; Listing generated by Microsoft (R) Optimizing Compiler Version 17.00.51106.1 

	TITLE	C:\Users\Zhitao Li\Documents\Visual Studio 2012\Projects\Freefalcon\SIM\DIGI\gndAttck.cpp
	.686P
	.XMM
	include listing.inc
	.model	flat

INCLUDELIB LIBCMT
INCLUDELIB OLDNAMES

PUBLIC	?traps@_Num_base@std@@2_NB			; std::_Num_base::traps
PUBLIC	?round_style@_Num_base@std@@2W4float_round_style@2@B ; std::_Num_base::round_style
PUBLIC	?digits@_Num_base@std@@2HB			; std::_Num_base::digits
PUBLIC	?digits10@_Num_base@std@@2HB			; std::_Num_base::digits10
PUBLIC	?max_digits10@_Num_base@std@@2HB		; std::_Num_base::max_digits10
PUBLIC	?max_exponent@_Num_base@std@@2HB		; std::_Num_base::max_exponent
PUBLIC	?max_exponent10@_Num_base@std@@2HB		; std::_Num_base::max_exponent10
PUBLIC	?min_exponent@_Num_base@std@@2HB		; std::_Num_base::min_exponent
PUBLIC	?min_exponent10@_Num_base@std@@2HB		; std::_Num_base::min_exponent10
PUBLIC	?radix@_Num_base@std@@2HB			; std::_Num_base::radix
PUBLIC	?is_bounded@_Num_int_base@std@@2_NB		; std::_Num_int_base::is_bounded
PUBLIC	?is_exact@_Num_int_base@std@@2_NB		; std::_Num_int_base::is_exact
PUBLIC	?is_integer@_Num_int_base@std@@2_NB		; std::_Num_int_base::is_integer
PUBLIC	?is_modulo@_Num_int_base@std@@2_NB		; std::_Num_int_base::is_modulo
PUBLIC	?is_specialized@_Num_int_base@std@@2_NB		; std::_Num_int_base::is_specialized
PUBLIC	?radix@_Num_int_base@std@@2HB			; std::_Num_int_base::radix
PUBLIC	?has_denorm@_Num_float_base@std@@2W4float_denorm_style@2@B ; std::_Num_float_base::has_denorm
PUBLIC	?has_denorm_loss@_Num_float_base@std@@2_NB	; std::_Num_float_base::has_denorm_loss
PUBLIC	?SIMDIRTYDATA_INTERVAL@FalconEntity@@2KB	; FalconEntity::SIMDIRTYDATA_INTERVAL
PUBLIC	?CMPDIRTYDATA_INTERVAL@FalconEntity@@2KB	; FalconEntity::CMPDIRTYDATA_INTERVAL
PUBLIC	?has_infinity@_Num_float_base@std@@2_NB		; std::_Num_float_base::has_infinity
PUBLIC	?has_quiet_NaN@_Num_float_base@std@@2_NB	; std::_Num_float_base::has_quiet_NaN
PUBLIC	?has_signaling_NaN@_Num_float_base@std@@2_NB	; std::_Num_float_base::has_signaling_NaN
PUBLIC	?is_bounded@_Num_float_base@std@@2_NB		; std::_Num_float_base::is_bounded
PUBLIC	?is_exact@_Num_float_base@std@@2_NB		; std::_Num_float_base::is_exact
PUBLIC	?is_iec559@_Num_float_base@std@@2_NB		; std::_Num_float_base::is_iec559
PUBLIC	?is_integer@_Num_float_base@std@@2_NB		; std::_Num_float_base::is_integer
PUBLIC	?is_modulo@_Num_float_base@std@@2_NB		; std::_Num_float_base::is_modulo
PUBLIC	?is_signed@_Num_float_base@std@@2_NB		; std::_Num_float_base::is_signed
PUBLIC	?is_specialized@_Num_float_base@std@@2_NB	; std::_Num_float_base::is_specialized
PUBLIC	?tinyness_before@_Num_float_base@std@@2_NB	; std::_Num_float_base::tinyness_before
PUBLIC	?traps@_Num_float_base@std@@2_NB		; std::_Num_float_base::traps
PUBLIC	?round_style@_Num_float_base@std@@2W4float_round_style@2@B ; std::_Num_float_base::round_style
PUBLIC	?radix@_Num_float_base@std@@2HB			; std::_Num_float_base::radix
PUBLIC	?collate@?$_Locbase@H@std@@2HB			; std::_Locbase<int>::collate
PUBLIC	?ctype@?$_Locbase@H@std@@2HB			; std::_Locbase<int>::ctype
PUBLIC	?monetary@?$_Locbase@H@std@@2HB			; std::_Locbase<int>::monetary
PUBLIC	?is_signed@?$numeric_limits@D@std@@2_NB		; std::numeric_limits<char>::is_signed
PUBLIC	?numeric@?$_Locbase@H@std@@2HB			; std::_Locbase<int>::numeric
PUBLIC	?time@?$_Locbase@H@std@@2HB			; std::_Locbase<int>::time
PUBLIC	?digits@?$numeric_limits@D@std@@2HB		; std::numeric_limits<char>::digits
PUBLIC	?messages@?$_Locbase@H@std@@2HB			; std::_Locbase<int>::messages
PUBLIC	?digits10@?$numeric_limits@D@std@@2HB		; std::numeric_limits<char>::digits10
PUBLIC	?all@?$_Locbase@H@std@@2HB			; std::_Locbase<int>::all
PUBLIC	?none@?$_Locbase@H@std@@2HB			; std::_Locbase<int>::none
PUBLIC	?is_signed@?$numeric_limits@_W@std@@2_NB	; std::numeric_limits<wchar_t>::is_signed
PUBLIC	?digits@?$numeric_limits@_W@std@@2HB		; std::numeric_limits<wchar_t>::digits
PUBLIC	?digits10@?$numeric_limits@_W@std@@2HB		; std::numeric_limits<wchar_t>::digits10
PUBLIC	?is_modulo@?$numeric_limits@_N@std@@2_NB	; std::numeric_limits<bool>::is_modulo
PUBLIC	?is_signed@?$numeric_limits@_N@std@@2_NB	; std::numeric_limits<bool>::is_signed
PUBLIC	?digits@?$numeric_limits@_N@std@@2HB		; std::numeric_limits<bool>::digits
PUBLIC	?digits10@?$numeric_limits@_N@std@@2HB		; std::numeric_limits<bool>::digits10
PUBLIC	?is_signed@?$numeric_limits@C@std@@2_NB		; std::numeric_limits<signed char>::is_signed
PUBLIC	?digits@?$numeric_limits@C@std@@2HB		; std::numeric_limits<signed char>::digits
PUBLIC	?digits10@?$numeric_limits@C@std@@2HB		; std::numeric_limits<signed char>::digits10
PUBLIC	?table_size@?$ctype@D@std@@2IB			; std::ctype<char>::table_size
PUBLIC	?is_signed@?$numeric_limits@E@std@@2_NB		; std::numeric_limits<unsigned char>::is_signed
PUBLIC	?value@?$integral_constant@_N$0A@@std@@2_NB	; std::integral_constant<bool,0>::value
PUBLIC	?digits@?$numeric_limits@E@std@@2HB		; std::numeric_limits<unsigned char>::digits
PUBLIC	?digits10@?$numeric_limits@E@std@@2HB		; std::numeric_limits<unsigned char>::digits10
PUBLIC	?value@?$integral_constant@_N$00@std@@2_NB	; std::integral_constant<bool,1>::value
PUBLIC	?is_signed@?$numeric_limits@F@std@@2_NB		; std::numeric_limits<short>::is_signed
PUBLIC	?TP@@3PAPAVSimObjectType@@A			; TP
PUBLIC	?digits@?$numeric_limits@F@std@@2HB		; std::numeric_limits<short>::digits
PUBLIC	?digits10@?$numeric_limits@F@std@@2HB		; std::numeric_limits<short>::digits10
PUBLIC	?is_signed@?$numeric_limits@G@std@@2_NB		; std::numeric_limits<unsigned short>::is_signed
PUBLIC	?digits@?$numeric_limits@G@std@@2HB		; std::numeric_limits<unsigned short>::digits
PUBLIC	?digits10@?$numeric_limits@G@std@@2HB		; std::numeric_limits<unsigned short>::digits10
PUBLIC	?is_signed@?$numeric_limits@H@std@@2_NB		; std::numeric_limits<int>::is_signed
PUBLIC	?value@?$_Sizeof@HU_Nil@std@@U12@U12@U12@U12@U12@U12@@std@@2IB ; std::_Sizeof<int,std::_Nil,std::_Nil,std::_Nil,std::_Nil,std::_Nil,std::_Nil,std::_Nil>::value
PUBLIC	?digits@?$numeric_limits@H@std@@2HB		; std::numeric_limits<int>::digits
PUBLIC	?digits10@?$numeric_limits@H@std@@2HB		; std::numeric_limits<int>::digits10
PUBLIC	?is_signed@?$numeric_limits@I@std@@2_NB		; std::numeric_limits<unsigned int>::is_signed
PUBLIC	?digits@?$numeric_limits@I@std@@2HB		; std::numeric_limits<unsigned int>::digits
PUBLIC	?digits10@?$numeric_limits@I@std@@2HB		; std::numeric_limits<unsigned int>::digits10
PUBLIC	?is_signed@?$numeric_limits@J@std@@2_NB		; std::numeric_limits<long>::is_signed
PUBLIC	?digits@?$numeric_limits@J@std@@2HB		; std::numeric_limits<long>::digits
PUBLIC	?digits10@?$numeric_limits@J@std@@2HB		; std::numeric_limits<long>::digits10
PUBLIC	?is_signed@?$numeric_limits@K@std@@2_NB		; std::numeric_limits<unsigned long>::is_signed
PUBLIC	?digits@?$numeric_limits@K@std@@2HB		; std::numeric_limits<unsigned long>::digits
PUBLIC	?digits10@?$numeric_limits@K@std@@2HB		; std::numeric_limits<unsigned long>::digits10
PUBLIC	?is_signed@?$numeric_limits@_J@std@@2_NB	; std::numeric_limits<__int64>::is_signed
PUBLIC	?digits@?$numeric_limits@_J@std@@2HB		; std::numeric_limits<__int64>::digits
PUBLIC	?digits10@?$numeric_limits@_J@std@@2HB		; std::numeric_limits<__int64>::digits10
PUBLIC	?is_signed@?$numeric_limits@_K@std@@2_NB	; std::numeric_limits<unsigned __int64>::is_signed
PUBLIC	?digits@?$numeric_limits@_K@std@@2HB		; std::numeric_limits<unsigned __int64>::digits
PUBLIC	?digits10@?$numeric_limits@_K@std@@2HB		; std::numeric_limits<unsigned __int64>::digits10
PUBLIC	?digits@?$numeric_limits@M@std@@2HB		; std::numeric_limits<float>::digits
PUBLIC	?digits10@?$numeric_limits@M@std@@2HB		; std::numeric_limits<float>::digits10
PUBLIC	?max_digits10@?$numeric_limits@M@std@@2HB	; std::numeric_limits<float>::max_digits10
PUBLIC	?max_exponent@?$numeric_limits@M@std@@2HB	; std::numeric_limits<float>::max_exponent
PUBLIC	?max_exponent10@?$numeric_limits@M@std@@2HB	; std::numeric_limits<float>::max_exponent10
PUBLIC	?min_exponent@?$numeric_limits@M@std@@2HB	; std::numeric_limits<float>::min_exponent
PUBLIC	?min_exponent10@?$numeric_limits@M@std@@2HB	; std::numeric_limits<float>::min_exponent10
PUBLIC	?value@?$integral_constant@I$0A@@std@@2IB	; std::integral_constant<unsigned int,0>::value
PUBLIC	?digits@?$numeric_limits@N@std@@2HB		; std::numeric_limits<double>::digits
PUBLIC	?digits10@?$numeric_limits@N@std@@2HB		; std::numeric_limits<double>::digits10
PUBLIC	?max_digits10@?$numeric_limits@N@std@@2HB	; std::numeric_limits<double>::max_digits10
PUBLIC	?max_exponent@?$numeric_limits@N@std@@2HB	; std::numeric_limits<double>::max_exponent
PUBLIC	?max_exponent10@?$numeric_limits@N@std@@2HB	; std::numeric_limits<double>::max_exponent10
PUBLIC	?min_exponent@?$numeric_limits@N@std@@2HB	; std::numeric_limits<double>::min_exponent
PUBLIC	?min_exponent10@?$numeric_limits@N@std@@2HB	; std::numeric_limits<double>::min_exponent10
PUBLIC	?skipws@?$_Iosb@H@std@@2W4_Fmtflags@12@B	; std::_Iosb<int>::skipws
PUBLIC	?unitbuf@?$_Iosb@H@std@@2W4_Fmtflags@12@B	; std::_Iosb<int>::unitbuf
PUBLIC	?uppercase@?$_Iosb@H@std@@2W4_Fmtflags@12@B	; std::_Iosb<int>::uppercase
PUBLIC	?digits@?$numeric_limits@O@std@@2HB		; std::numeric_limits<long double>::digits
PUBLIC	?showbase@?$_Iosb@H@std@@2W4_Fmtflags@12@B	; std::_Iosb<int>::showbase
PUBLIC	?digits10@?$numeric_limits@O@std@@2HB		; std::numeric_limits<long double>::digits10
PUBLIC	?showpoint@?$_Iosb@H@std@@2W4_Fmtflags@12@B	; std::_Iosb<int>::showpoint
PUBLIC	?max_digits10@?$numeric_limits@O@std@@2HB	; std::numeric_limits<long double>::max_digits10
PUBLIC	?showpos@?$_Iosb@H@std@@2W4_Fmtflags@12@B	; std::_Iosb<int>::showpos
PUBLIC	?max_exponent@?$numeric_limits@O@std@@2HB	; std::numeric_limits<long double>::max_exponent
PUBLIC	?left@?$_Iosb@H@std@@2W4_Fmtflags@12@B		; std::_Iosb<int>::left
PUBLIC	?right@?$_Iosb@H@std@@2W4_Fmtflags@12@B		; std::_Iosb<int>::right
PUBLIC	?max_exponent10@?$numeric_limits@O@std@@2HB	; std::numeric_limits<long double>::max_exponent10
PUBLIC	?internal@?$_Iosb@H@std@@2W4_Fmtflags@12@B	; std::_Iosb<int>::internal
PUBLIC	?min_exponent@?$numeric_limits@O@std@@2HB	; std::numeric_limits<long double>::min_exponent
PUBLIC	?dec@?$_Iosb@H@std@@2W4_Fmtflags@12@B		; std::_Iosb<int>::dec
PUBLIC	?min_exponent10@?$numeric_limits@O@std@@2HB	; std::numeric_limits<long double>::min_exponent10
PUBLIC	?oct@?$_Iosb@H@std@@2W4_Fmtflags@12@B		; std::_Iosb<int>::oct
PUBLIC	?hex@?$_Iosb@H@std@@2W4_Fmtflags@12@B		; std::_Iosb<int>::hex
PUBLIC	?scientific@?$_Iosb@H@std@@2W4_Fmtflags@12@B	; std::_Iosb<int>::scientific
PUBLIC	?fixed@?$_Iosb@H@std@@2W4_Fmtflags@12@B		; std::_Iosb<int>::fixed
PUBLIC	?hexfloat@?$_Iosb@H@std@@2W4_Fmtflags@12@B	; std::_Iosb<int>::hexfloat
PUBLIC	?boolalpha@?$_Iosb@H@std@@2W4_Fmtflags@12@B	; std::_Iosb<int>::boolalpha
PUBLIC	?_Stdio@?$_Iosb@H@std@@2W4_Fmtflags@12@B	; std::_Iosb<int>::_Stdio
PUBLIC	?adjustfield@?$_Iosb@H@std@@2W4_Fmtflags@12@B	; std::_Iosb<int>::adjustfield
PUBLIC	?basefield@?$_Iosb@H@std@@2W4_Fmtflags@12@B	; std::_Iosb<int>::basefield
PUBLIC	?floatfield@?$_Iosb@H@std@@2W4_Fmtflags@12@B	; std::_Iosb<int>::floatfield
PUBLIC	?goodbit@?$_Iosb@H@std@@2W4_Iostate@12@B	; std::_Iosb<int>::goodbit
PUBLIC	?eofbit@?$_Iosb@H@std@@2W4_Iostate@12@B		; std::_Iosb<int>::eofbit
PUBLIC	?failbit@?$_Iosb@H@std@@2W4_Iostate@12@B	; std::_Iosb<int>::failbit
PUBLIC	?badbit@?$_Iosb@H@std@@2W4_Iostate@12@B		; std::_Iosb<int>::badbit
PUBLIC	?_Hardfail@?$_Iosb@H@std@@2W4_Iostate@12@B	; std::_Iosb<int>::_Hardfail
PUBLIC	?in@?$_Iosb@H@std@@2W4_Openmode@12@B		; std::_Iosb<int>::in
PUBLIC	?out@?$_Iosb@H@std@@2W4_Openmode@12@B		; std::_Iosb<int>::out
PUBLIC	?ate@?$_Iosb@H@std@@2W4_Openmode@12@B		; std::_Iosb<int>::ate
PUBLIC	?app@?$_Iosb@H@std@@2W4_Openmode@12@B		; std::_Iosb<int>::app
PUBLIC	?trunc@?$_Iosb@H@std@@2W4_Openmode@12@B		; std::_Iosb<int>::trunc
PUBLIC	?_Nocreate@?$_Iosb@H@std@@2W4_Openmode@12@B	; std::_Iosb<int>::_Nocreate
PUBLIC	?_Noreplace@?$_Iosb@H@std@@2W4_Openmode@12@B	; std::_Iosb<int>::_Noreplace
PUBLIC	?binary@?$_Iosb@H@std@@2W4_Openmode@12@B	; std::_Iosb<int>::binary
PUBLIC	?beg@?$_Iosb@H@std@@2W4_Seekdir@12@B		; std::_Iosb<int>::beg
PUBLIC	?cur@?$_Iosb@H@std@@2W4_Seekdir@12@B		; std::_Iosb<int>::cur
PUBLIC	?end@?$_Iosb@H@std@@2W4_Seekdir@12@B		; std::_Iosb<int>::end
PUBLIC	?_Stream_err@failure@ios_base@std@@0W4io_errc@43@B ; std::ios_base::failure::_Stream_err
PUBLIC	?value@?$_Sizeof@U_Nil@std@@U12@U12@U12@U12@U12@U12@U12@@std@@2IB ; std::_Sizeof<std::_Nil,std::_Nil,std::_Nil,std::_Nil,std::_Nil,std::_Nil,std::_Nil,std::_Nil>::value
PUBLIC	?has_denorm@_Num_base@std@@2W4float_denorm_style@2@B ; std::_Num_base::has_denorm
PUBLIC	?has_denorm_loss@_Num_base@std@@2_NB		; std::_Num_base::has_denorm_loss
PUBLIC	?has_infinity@_Num_base@std@@2_NB		; std::_Num_base::has_infinity
PUBLIC	?has_quiet_NaN@_Num_base@std@@2_NB		; std::_Num_base::has_quiet_NaN
PUBLIC	?has_signaling_NaN@_Num_base@std@@2_NB		; std::_Num_base::has_signaling_NaN
PUBLIC	?is_bounded@_Num_base@std@@2_NB			; std::_Num_base::is_bounded
PUBLIC	?is_exact@_Num_base@std@@2_NB			; std::_Num_base::is_exact
PUBLIC	?is_iec559@_Num_base@std@@2_NB			; std::_Num_base::is_iec559
PUBLIC	?is_integer@_Num_base@std@@2_NB			; std::_Num_base::is_integer
PUBLIC	?is_modulo@_Num_base@std@@2_NB			; std::_Num_base::is_modulo
PUBLIC	?is_signed@_Num_base@std@@2_NB			; std::_Num_base::is_signed
PUBLIC	?is_specialized@_Num_base@std@@2_NB		; std::_Num_base::is_specialized
PUBLIC	?tinyness_before@_Num_base@std@@2_NB		; std::_Num_base::tinyness_before
_BSS	SEGMENT
?TP@@3PAPAVSimObjectType@@A DD 01H DUP (?)		; TP
_BSS	ENDS
;	COMDAT ?tinyness_before@_Num_base@std@@2_NB
CONST	SEGMENT
?tinyness_before@_Num_base@std@@2_NB DB 00H		; std::_Num_base::tinyness_before
CONST	ENDS
;	COMDAT ?is_specialized@_Num_base@std@@2_NB
CONST	SEGMENT
?is_specialized@_Num_base@std@@2_NB DB 00H		; std::_Num_base::is_specialized
CONST	ENDS
;	COMDAT ?is_signed@_Num_base@std@@2_NB
CONST	SEGMENT
?is_signed@_Num_base@std@@2_NB DB 00H			; std::_Num_base::is_signed
CONST	ENDS
;	COMDAT ?is_modulo@_Num_base@std@@2_NB
CONST	SEGMENT
?is_modulo@_Num_base@std@@2_NB DB 00H			; std::_Num_base::is_modulo
CONST	ENDS
;	COMDAT ?is_integer@_Num_base@std@@2_NB
CONST	SEGMENT
?is_integer@_Num_base@std@@2_NB DB 00H			; std::_Num_base::is_integer
CONST	ENDS
;	COMDAT ?is_iec559@_Num_base@std@@2_NB
CONST	SEGMENT
?is_iec559@_Num_base@std@@2_NB DB 00H			; std::_Num_base::is_iec559
CONST	ENDS
;	COMDAT ?is_exact@_Num_base@std@@2_NB
CONST	SEGMENT
?is_exact@_Num_base@std@@2_NB DB 00H			; std::_Num_base::is_exact
CONST	ENDS
;	COMDAT ?is_bounded@_Num_base@std@@2_NB
CONST	SEGMENT
?is_bounded@_Num_base@std@@2_NB DB 00H			; std::_Num_base::is_bounded
CONST	ENDS
;	COMDAT ?has_signaling_NaN@_Num_base@std@@2_NB
CONST	SEGMENT
?has_signaling_NaN@_Num_base@std@@2_NB DB 00H		; std::_Num_base::has_signaling_NaN
CONST	ENDS
;	COMDAT ?has_quiet_NaN@_Num_base@std@@2_NB
CONST	SEGMENT
?has_quiet_NaN@_Num_base@std@@2_NB DB 00H		; std::_Num_base::has_quiet_NaN
CONST	ENDS
;	COMDAT ?has_infinity@_Num_base@std@@2_NB
CONST	SEGMENT
?has_infinity@_Num_base@std@@2_NB DB 00H		; std::_Num_base::has_infinity
CONST	ENDS
;	COMDAT ?has_denorm_loss@_Num_base@std@@2_NB
CONST	SEGMENT
?has_denorm_loss@_Num_base@std@@2_NB DB 00H		; std::_Num_base::has_denorm_loss
CONST	ENDS
;	COMDAT ?has_denorm@_Num_base@std@@2W4float_denorm_style@2@B
CONST	SEGMENT
?has_denorm@_Num_base@std@@2W4float_denorm_style@2@B DD 00H ; std::_Num_base::has_denorm
CONST	ENDS
;	COMDAT ?value@?$_Sizeof@U_Nil@std@@U12@U12@U12@U12@U12@U12@U12@@std@@2IB
CONST	SEGMENT
?value@?$_Sizeof@U_Nil@std@@U12@U12@U12@U12@U12@U12@U12@@std@@2IB DD 00H ; std::_Sizeof<std::_Nil,std::_Nil,std::_Nil,std::_Nil,std::_Nil,std::_Nil,std::_Nil,std::_Nil>::value
CONST	ENDS
;	COMDAT ?_Stream_err@failure@ios_base@std@@0W4io_errc@43@B
CONST	SEGMENT
?_Stream_err@failure@ios_base@std@@0W4io_errc@43@B DD 01H ; std::ios_base::failure::_Stream_err
CONST	ENDS
;	COMDAT ?end@?$_Iosb@H@std@@2W4_Seekdir@12@B
CONST	SEGMENT
?end@?$_Iosb@H@std@@2W4_Seekdir@12@B DD 02H		; std::_Iosb<int>::end
CONST	ENDS
;	COMDAT ?cur@?$_Iosb@H@std@@2W4_Seekdir@12@B
CONST	SEGMENT
?cur@?$_Iosb@H@std@@2W4_Seekdir@12@B DD 01H		; std::_Iosb<int>::cur
CONST	ENDS
;	COMDAT ?beg@?$_Iosb@H@std@@2W4_Seekdir@12@B
CONST	SEGMENT
?beg@?$_Iosb@H@std@@2W4_Seekdir@12@B DD 00H		; std::_Iosb<int>::beg
CONST	ENDS
;	COMDAT ?binary@?$_Iosb@H@std@@2W4_Openmode@12@B
CONST	SEGMENT
?binary@?$_Iosb@H@std@@2W4_Openmode@12@B DD 020H	; std::_Iosb<int>::binary
CONST	ENDS
;	COMDAT ?_Noreplace@?$_Iosb@H@std@@2W4_Openmode@12@B
CONST	SEGMENT
?_Noreplace@?$_Iosb@H@std@@2W4_Openmode@12@B DD 080H	; std::_Iosb<int>::_Noreplace
CONST	ENDS
;	COMDAT ?_Nocreate@?$_Iosb@H@std@@2W4_Openmode@12@B
CONST	SEGMENT
?_Nocreate@?$_Iosb@H@std@@2W4_Openmode@12@B DD 040H	; std::_Iosb<int>::_Nocreate
CONST	ENDS
;	COMDAT ?trunc@?$_Iosb@H@std@@2W4_Openmode@12@B
CONST	SEGMENT
?trunc@?$_Iosb@H@std@@2W4_Openmode@12@B DD 010H		; std::_Iosb<int>::trunc
CONST	ENDS
;	COMDAT ?app@?$_Iosb@H@std@@2W4_Openmode@12@B
CONST	SEGMENT
?app@?$_Iosb@H@std@@2W4_Openmode@12@B DD 08H		; std::_Iosb<int>::app
CONST	ENDS
;	COMDAT ?ate@?$_Iosb@H@std@@2W4_Openmode@12@B
CONST	SEGMENT
?ate@?$_Iosb@H@std@@2W4_Openmode@12@B DD 04H		; std::_Iosb<int>::ate
CONST	ENDS
;	COMDAT ?out@?$_Iosb@H@std@@2W4_Openmode@12@B
CONST	SEGMENT
?out@?$_Iosb@H@std@@2W4_Openmode@12@B DD 02H		; std::_Iosb<int>::out
CONST	ENDS
;	COMDAT ?in@?$_Iosb@H@std@@2W4_Openmode@12@B
CONST	SEGMENT
?in@?$_Iosb@H@std@@2W4_Openmode@12@B DD 01H		; std::_Iosb<int>::in
CONST	ENDS
;	COMDAT ?_Hardfail@?$_Iosb@H@std@@2W4_Iostate@12@B
CONST	SEGMENT
?_Hardfail@?$_Iosb@H@std@@2W4_Iostate@12@B DD 010H	; std::_Iosb<int>::_Hardfail
CONST	ENDS
;	COMDAT ?badbit@?$_Iosb@H@std@@2W4_Iostate@12@B
CONST	SEGMENT
?badbit@?$_Iosb@H@std@@2W4_Iostate@12@B DD 04H		; std::_Iosb<int>::badbit
CONST	ENDS
;	COMDAT ?failbit@?$_Iosb@H@std@@2W4_Iostate@12@B
CONST	SEGMENT
?failbit@?$_Iosb@H@std@@2W4_Iostate@12@B DD 02H		; std::_Iosb<int>::failbit
CONST	ENDS
;	COMDAT ?eofbit@?$_Iosb@H@std@@2W4_Iostate@12@B
CONST	SEGMENT
?eofbit@?$_Iosb@H@std@@2W4_Iostate@12@B DD 01H		; std::_Iosb<int>::eofbit
CONST	ENDS
;	COMDAT ?goodbit@?$_Iosb@H@std@@2W4_Iostate@12@B
CONST	SEGMENT
?goodbit@?$_Iosb@H@std@@2W4_Iostate@12@B DD 00H		; std::_Iosb<int>::goodbit
CONST	ENDS
;	COMDAT ?floatfield@?$_Iosb@H@std@@2W4_Fmtflags@12@B
CONST	SEGMENT
?floatfield@?$_Iosb@H@std@@2W4_Fmtflags@12@B DD 03000H	; std::_Iosb<int>::floatfield
CONST	ENDS
;	COMDAT ?basefield@?$_Iosb@H@std@@2W4_Fmtflags@12@B
CONST	SEGMENT
?basefield@?$_Iosb@H@std@@2W4_Fmtflags@12@B DD 0e00H	; std::_Iosb<int>::basefield
CONST	ENDS
;	COMDAT ?adjustfield@?$_Iosb@H@std@@2W4_Fmtflags@12@B
CONST	SEGMENT
?adjustfield@?$_Iosb@H@std@@2W4_Fmtflags@12@B DD 01c0H	; std::_Iosb<int>::adjustfield
CONST	ENDS
;	COMDAT ?_Stdio@?$_Iosb@H@std@@2W4_Fmtflags@12@B
CONST	SEGMENT
?_Stdio@?$_Iosb@H@std@@2W4_Fmtflags@12@B DD 08000H	; std::_Iosb<int>::_Stdio
CONST	ENDS
;	COMDAT ?boolalpha@?$_Iosb@H@std@@2W4_Fmtflags@12@B
CONST	SEGMENT
?boolalpha@?$_Iosb@H@std@@2W4_Fmtflags@12@B DD 04000H	; std::_Iosb<int>::boolalpha
CONST	ENDS
;	COMDAT ?hexfloat@?$_Iosb@H@std@@2W4_Fmtflags@12@B
CONST	SEGMENT
?hexfloat@?$_Iosb@H@std@@2W4_Fmtflags@12@B DD 03000H	; std::_Iosb<int>::hexfloat
CONST	ENDS
;	COMDAT ?fixed@?$_Iosb@H@std@@2W4_Fmtflags@12@B
CONST	SEGMENT
?fixed@?$_Iosb@H@std@@2W4_Fmtflags@12@B DD 02000H	; std::_Iosb<int>::fixed
CONST	ENDS
;	COMDAT ?scientific@?$_Iosb@H@std@@2W4_Fmtflags@12@B
CONST	SEGMENT
?scientific@?$_Iosb@H@std@@2W4_Fmtflags@12@B DD 01000H	; std::_Iosb<int>::scientific
CONST	ENDS
;	COMDAT ?hex@?$_Iosb@H@std@@2W4_Fmtflags@12@B
CONST	SEGMENT
?hex@?$_Iosb@H@std@@2W4_Fmtflags@12@B DD 0800H		; std::_Iosb<int>::hex
CONST	ENDS
;	COMDAT ?oct@?$_Iosb@H@std@@2W4_Fmtflags@12@B
CONST	SEGMENT
?oct@?$_Iosb@H@std@@2W4_Fmtflags@12@B DD 0400H		; std::_Iosb<int>::oct
CONST	ENDS
;	COMDAT ?min_exponent10@?$numeric_limits@O@std@@2HB
CONST	SEGMENT
?min_exponent10@?$numeric_limits@O@std@@2HB DD 0fffffecdH ; std::numeric_limits<long double>::min_exponent10
CONST	ENDS
;	COMDAT ?dec@?$_Iosb@H@std@@2W4_Fmtflags@12@B
CONST	SEGMENT
?dec@?$_Iosb@H@std@@2W4_Fmtflags@12@B DD 0200H		; std::_Iosb<int>::dec
CONST	ENDS
;	COMDAT ?min_exponent@?$numeric_limits@O@std@@2HB
CONST	SEGMENT
?min_exponent@?$numeric_limits@O@std@@2HB DD 0fffffc03H	; std::numeric_limits<long double>::min_exponent
CONST	ENDS
;	COMDAT ?internal@?$_Iosb@H@std@@2W4_Fmtflags@12@B
CONST	SEGMENT
?internal@?$_Iosb@H@std@@2W4_Fmtflags@12@B DD 0100H	; std::_Iosb<int>::internal
CONST	ENDS
;	COMDAT ?max_exponent10@?$numeric_limits@O@std@@2HB
CONST	SEGMENT
?max_exponent10@?$numeric_limits@O@std@@2HB DD 0134H	; std::numeric_limits<long double>::max_exponent10
CONST	ENDS
;	COMDAT ?right@?$_Iosb@H@std@@2W4_Fmtflags@12@B
CONST	SEGMENT
?right@?$_Iosb@H@std@@2W4_Fmtflags@12@B DD 080H		; std::_Iosb<int>::right
CONST	ENDS
;	COMDAT ?left@?$_Iosb@H@std@@2W4_Fmtflags@12@B
CONST	SEGMENT
?left@?$_Iosb@H@std@@2W4_Fmtflags@12@B DD 040H		; std::_Iosb<int>::left
CONST	ENDS
;	COMDAT ?max_exponent@?$numeric_limits@O@std@@2HB
CONST	SEGMENT
?max_exponent@?$numeric_limits@O@std@@2HB DD 0400H	; std::numeric_limits<long double>::max_exponent
CONST	ENDS
;	COMDAT ?showpos@?$_Iosb@H@std@@2W4_Fmtflags@12@B
CONST	SEGMENT
?showpos@?$_Iosb@H@std@@2W4_Fmtflags@12@B DD 020H	; std::_Iosb<int>::showpos
CONST	ENDS
;	COMDAT ?max_digits10@?$numeric_limits@O@std@@2HB
CONST	SEGMENT
?max_digits10@?$numeric_limits@O@std@@2HB DD 011H	; std::numeric_limits<long double>::max_digits10
CONST	ENDS
;	COMDAT ?showpoint@?$_Iosb@H@std@@2W4_Fmtflags@12@B
CONST	SEGMENT
?showpoint@?$_Iosb@H@std@@2W4_Fmtflags@12@B DD 010H	; std::_Iosb<int>::showpoint
CONST	ENDS
;	COMDAT ?digits10@?$numeric_limits@O@std@@2HB
CONST	SEGMENT
?digits10@?$numeric_limits@O@std@@2HB DD 0fH		; std::numeric_limits<long double>::digits10
CONST	ENDS
;	COMDAT ?showbase@?$_Iosb@H@std@@2W4_Fmtflags@12@B
CONST	SEGMENT
?showbase@?$_Iosb@H@std@@2W4_Fmtflags@12@B DD 08H	; std::_Iosb<int>::showbase
CONST	ENDS
;	COMDAT ?digits@?$numeric_limits@O@std@@2HB
CONST	SEGMENT
?digits@?$numeric_limits@O@std@@2HB DD 035H		; std::numeric_limits<long double>::digits
CONST	ENDS
;	COMDAT ?uppercase@?$_Iosb@H@std@@2W4_Fmtflags@12@B
CONST	SEGMENT
?uppercase@?$_Iosb@H@std@@2W4_Fmtflags@12@B DD 04H	; std::_Iosb<int>::uppercase
CONST	ENDS
;	COMDAT ?unitbuf@?$_Iosb@H@std@@2W4_Fmtflags@12@B
CONST	SEGMENT
?unitbuf@?$_Iosb@H@std@@2W4_Fmtflags@12@B DD 02H	; std::_Iosb<int>::unitbuf
CONST	ENDS
;	COMDAT ?skipws@?$_Iosb@H@std@@2W4_Fmtflags@12@B
CONST	SEGMENT
?skipws@?$_Iosb@H@std@@2W4_Fmtflags@12@B DD 01H		; std::_Iosb<int>::skipws
CONST	ENDS
;	COMDAT ?min_exponent10@?$numeric_limits@N@std@@2HB
CONST	SEGMENT
?min_exponent10@?$numeric_limits@N@std@@2HB DD 0fffffecdH ; std::numeric_limits<double>::min_exponent10
CONST	ENDS
;	COMDAT ?min_exponent@?$numeric_limits@N@std@@2HB
CONST	SEGMENT
?min_exponent@?$numeric_limits@N@std@@2HB DD 0fffffc03H	; std::numeric_limits<double>::min_exponent
CONST	ENDS
;	COMDAT ?max_exponent10@?$numeric_limits@N@std@@2HB
CONST	SEGMENT
?max_exponent10@?$numeric_limits@N@std@@2HB DD 0134H	; std::numeric_limits<double>::max_exponent10
CONST	ENDS
;	COMDAT ?max_exponent@?$numeric_limits@N@std@@2HB
CONST	SEGMENT
?max_exponent@?$numeric_limits@N@std@@2HB DD 0400H	; std::numeric_limits<double>::max_exponent
CONST	ENDS
;	COMDAT ?max_digits10@?$numeric_limits@N@std@@2HB
CONST	SEGMENT
?max_digits10@?$numeric_limits@N@std@@2HB DD 011H	; std::numeric_limits<double>::max_digits10
CONST	ENDS
;	COMDAT ?digits10@?$numeric_limits@N@std@@2HB
CONST	SEGMENT
?digits10@?$numeric_limits@N@std@@2HB DD 0fH		; std::numeric_limits<double>::digits10
CONST	ENDS
;	COMDAT ?digits@?$numeric_limits@N@std@@2HB
CONST	SEGMENT
?digits@?$numeric_limits@N@std@@2HB DD 035H		; std::numeric_limits<double>::digits
CONST	ENDS
;	COMDAT ?value@?$integral_constant@I$0A@@std@@2IB
CONST	SEGMENT
?value@?$integral_constant@I$0A@@std@@2IB DD 00H	; std::integral_constant<unsigned int,0>::value
CONST	ENDS
;	COMDAT ?min_exponent10@?$numeric_limits@M@std@@2HB
CONST	SEGMENT
?min_exponent10@?$numeric_limits@M@std@@2HB DD 0ffffffdbH ; std::numeric_limits<float>::min_exponent10
CONST	ENDS
;	COMDAT ?min_exponent@?$numeric_limits@M@std@@2HB
CONST	SEGMENT
?min_exponent@?$numeric_limits@M@std@@2HB DD 0ffffff83H	; std::numeric_limits<float>::min_exponent
CONST	ENDS
;	COMDAT ?max_exponent10@?$numeric_limits@M@std@@2HB
CONST	SEGMENT
?max_exponent10@?$numeric_limits@M@std@@2HB DD 026H	; std::numeric_limits<float>::max_exponent10
CONST	ENDS
;	COMDAT ?max_exponent@?$numeric_limits@M@std@@2HB
CONST	SEGMENT
?max_exponent@?$numeric_limits@M@std@@2HB DD 080H	; std::numeric_limits<float>::max_exponent
CONST	ENDS
;	COMDAT ?max_digits10@?$numeric_limits@M@std@@2HB
CONST	SEGMENT
?max_digits10@?$numeric_limits@M@std@@2HB DD 09H	; std::numeric_limits<float>::max_digits10
CONST	ENDS
;	COMDAT ?digits10@?$numeric_limits@M@std@@2HB
CONST	SEGMENT
?digits10@?$numeric_limits@M@std@@2HB DD 06H		; std::numeric_limits<float>::digits10
CONST	ENDS
;	COMDAT ?digits@?$numeric_limits@M@std@@2HB
CONST	SEGMENT
?digits@?$numeric_limits@M@std@@2HB DD 018H		; std::numeric_limits<float>::digits
CONST	ENDS
;	COMDAT ?digits10@?$numeric_limits@_K@std@@2HB
CONST	SEGMENT
?digits10@?$numeric_limits@_K@std@@2HB DD 013H		; std::numeric_limits<unsigned __int64>::digits10
CONST	ENDS
;	COMDAT ?digits@?$numeric_limits@_K@std@@2HB
CONST	SEGMENT
?digits@?$numeric_limits@_K@std@@2HB DD 040H		; std::numeric_limits<unsigned __int64>::digits
CONST	ENDS
;	COMDAT ?is_signed@?$numeric_limits@_K@std@@2_NB
CONST	SEGMENT
?is_signed@?$numeric_limits@_K@std@@2_NB DB 00H		; std::numeric_limits<unsigned __int64>::is_signed
CONST	ENDS
;	COMDAT ?digits10@?$numeric_limits@_J@std@@2HB
CONST	SEGMENT
?digits10@?$numeric_limits@_J@std@@2HB DD 012H		; std::numeric_limits<__int64>::digits10
CONST	ENDS
;	COMDAT ?digits@?$numeric_limits@_J@std@@2HB
CONST	SEGMENT
?digits@?$numeric_limits@_J@std@@2HB DD 03fH		; std::numeric_limits<__int64>::digits
CONST	ENDS
;	COMDAT ?is_signed@?$numeric_limits@_J@std@@2_NB
CONST	SEGMENT
?is_signed@?$numeric_limits@_J@std@@2_NB DB 01H		; std::numeric_limits<__int64>::is_signed
CONST	ENDS
;	COMDAT ?digits10@?$numeric_limits@K@std@@2HB
CONST	SEGMENT
?digits10@?$numeric_limits@K@std@@2HB DD 09H		; std::numeric_limits<unsigned long>::digits10
CONST	ENDS
;	COMDAT ?digits@?$numeric_limits@K@std@@2HB
CONST	SEGMENT
?digits@?$numeric_limits@K@std@@2HB DD 020H		; std::numeric_limits<unsigned long>::digits
CONST	ENDS
;	COMDAT ?is_signed@?$numeric_limits@K@std@@2_NB
CONST	SEGMENT
?is_signed@?$numeric_limits@K@std@@2_NB DB 00H		; std::numeric_limits<unsigned long>::is_signed
CONST	ENDS
;	COMDAT ?digits10@?$numeric_limits@J@std@@2HB
CONST	SEGMENT
?digits10@?$numeric_limits@J@std@@2HB DD 09H		; std::numeric_limits<long>::digits10
CONST	ENDS
;	COMDAT ?digits@?$numeric_limits@J@std@@2HB
CONST	SEGMENT
?digits@?$numeric_limits@J@std@@2HB DD 01fH		; std::numeric_limits<long>::digits
CONST	ENDS
;	COMDAT ?is_signed@?$numeric_limits@J@std@@2_NB
CONST	SEGMENT
?is_signed@?$numeric_limits@J@std@@2_NB DB 01H		; std::numeric_limits<long>::is_signed
CONST	ENDS
;	COMDAT ?digits10@?$numeric_limits@I@std@@2HB
CONST	SEGMENT
?digits10@?$numeric_limits@I@std@@2HB DD 09H		; std::numeric_limits<unsigned int>::digits10
CONST	ENDS
;	COMDAT ?digits@?$numeric_limits@I@std@@2HB
CONST	SEGMENT
?digits@?$numeric_limits@I@std@@2HB DD 020H		; std::numeric_limits<unsigned int>::digits
CONST	ENDS
;	COMDAT ?is_signed@?$numeric_limits@I@std@@2_NB
CONST	SEGMENT
?is_signed@?$numeric_limits@I@std@@2_NB DB 00H		; std::numeric_limits<unsigned int>::is_signed
CONST	ENDS
;	COMDAT ?digits10@?$numeric_limits@H@std@@2HB
CONST	SEGMENT
?digits10@?$numeric_limits@H@std@@2HB DD 09H		; std::numeric_limits<int>::digits10
CONST	ENDS
;	COMDAT ?digits@?$numeric_limits@H@std@@2HB
CONST	SEGMENT
?digits@?$numeric_limits@H@std@@2HB DD 01fH		; std::numeric_limits<int>::digits
CONST	ENDS
;	COMDAT ?value@?$_Sizeof@HU_Nil@std@@U12@U12@U12@U12@U12@U12@@std@@2IB
CONST	SEGMENT
?value@?$_Sizeof@HU_Nil@std@@U12@U12@U12@U12@U12@U12@@std@@2IB DD 01H ; std::_Sizeof<int,std::_Nil,std::_Nil,std::_Nil,std::_Nil,std::_Nil,std::_Nil,std::_Nil>::value
CONST	ENDS
;	COMDAT ?is_signed@?$numeric_limits@H@std@@2_NB
CONST	SEGMENT
?is_signed@?$numeric_limits@H@std@@2_NB DB 01H		; std::numeric_limits<int>::is_signed
CONST	ENDS
;	COMDAT ?digits10@?$numeric_limits@G@std@@2HB
CONST	SEGMENT
?digits10@?$numeric_limits@G@std@@2HB DD 04H		; std::numeric_limits<unsigned short>::digits10
CONST	ENDS
;	COMDAT ?digits@?$numeric_limits@G@std@@2HB
CONST	SEGMENT
?digits@?$numeric_limits@G@std@@2HB DD 010H		; std::numeric_limits<unsigned short>::digits
CONST	ENDS
;	COMDAT ?is_signed@?$numeric_limits@G@std@@2_NB
CONST	SEGMENT
?is_signed@?$numeric_limits@G@std@@2_NB DB 00H		; std::numeric_limits<unsigned short>::is_signed
CONST	ENDS
;	COMDAT ?digits10@?$numeric_limits@F@std@@2HB
CONST	SEGMENT
?digits10@?$numeric_limits@F@std@@2HB DD 04H		; std::numeric_limits<short>::digits10
CONST	ENDS
;	COMDAT ?digits@?$numeric_limits@F@std@@2HB
CONST	SEGMENT
?digits@?$numeric_limits@F@std@@2HB DD 0fH		; std::numeric_limits<short>::digits
CONST	ENDS
;	COMDAT ?is_signed@?$numeric_limits@F@std@@2_NB
CONST	SEGMENT
?is_signed@?$numeric_limits@F@std@@2_NB DB 01H		; std::numeric_limits<short>::is_signed
CONST	ENDS
;	COMDAT ?value@?$integral_constant@_N$00@std@@2_NB
CONST	SEGMENT
?value@?$integral_constant@_N$00@std@@2_NB DB 01H	; std::integral_constant<bool,1>::value
CONST	ENDS
;	COMDAT ?digits10@?$numeric_limits@E@std@@2HB
CONST	SEGMENT
?digits10@?$numeric_limits@E@std@@2HB DD 02H		; std::numeric_limits<unsigned char>::digits10
CONST	ENDS
;	COMDAT ?digits@?$numeric_limits@E@std@@2HB
CONST	SEGMENT
?digits@?$numeric_limits@E@std@@2HB DD 08H		; std::numeric_limits<unsigned char>::digits
CONST	ENDS
;	COMDAT ?value@?$integral_constant@_N$0A@@std@@2_NB
CONST	SEGMENT
?value@?$integral_constant@_N$0A@@std@@2_NB DB 00H	; std::integral_constant<bool,0>::value
CONST	ENDS
;	COMDAT ?is_signed@?$numeric_limits@E@std@@2_NB
CONST	SEGMENT
?is_signed@?$numeric_limits@E@std@@2_NB DB 00H		; std::numeric_limits<unsigned char>::is_signed
CONST	ENDS
_DATA	SEGMENT
_matrix44_ident DD 03f800000r			; 1
	DD	000000000r			; 0
	DD	000000000r			; 0
	DD	000000000r			; 0
	DD	000000000r			; 0
	DD	03f800000r			; 1
	DD	000000000r			; 0
	DD	000000000r			; 0
	DD	000000000r			; 0
	DD	000000000r			; 0
	DD	03f800000r			; 1
	DD	000000000r			; 0
	DD	000000000r			; 0
	DD	000000000r			; 0
	DD	000000000r			; 0
	DD	03f800000r			; 1
_cloudPntList DD 0c5bcc000r			; -6040
	DD	0c4070000r			; -540
	DD	0c694ac00r			; -19030
	DD	0c6de1c00r			; -28430
	DD	0c4dfc000r			; -1790
	DD	046dcc800r			; 28260
	DD	047104200r			; 36930
	DD	045732000r			; 3890
	DD	04744ea00r			; 50410
	DD	045336000r			; 2870
	DD	0c4d48000r			; -1700
	DD	04736da00r			; 46810
	DD	0c763ee00r			; -58350
	DD	0c4d48000r			; -1700
	DD	0c64c1000r			; -13060
	DD	046f2bc00r			; 31070
	DD	045480000r			; 3200
	DD	0c7293800r			; -43320
	DD	0c7bdc400r			; -97160
	DD	0c4d48000r			; -1700
	DD	04576e000r			; 3950
	DD	0c792e000r			; -75200
	DD	0c4bb8000r			; -1500
	DD	047957400r			; 76520
	DD	04759ee00r			; 55790
	DD	0c5a1e000r			; -5180
	DD	0c7a24e00r			; -83100
	DD	0c7473800r			; -51000
	DD	0c3a00000r			; -320
	DD	0c7829100r			; -66850
	DD	047733400r			; 62260
	DD	0c3a00000r			; -320
	DD	047708200r			; 61570
	DD	0c7710e00r			; -61710
	DD	0c550c000r			; -3340
	DD	046fb7c00r			; 32190
	DD	0c7719a00r			; -61850
	DD	0c7483200r			; -51250
	DD	047543a00r			; 54330
	DD	0c5bcc000r			; -6040
	DD	0c7495400r			; -51540
	DD	0c694ac00r			; -19030
	DD	0c6a7a800r			; -21460
	DD	0c74b0200r			; -51970
	DD	0468e8000r			; 18240
	DD	047298800r			; 43400
	DD	0c74bf200r			; -52210
	DD	046bc7000r			; 24120
	DD	0c749f400r			; -51700
	DD	0c74bc000r			; -52160
	DD	046948400r			; 19010
	DD	0c605e800r			; -8570
	DD	0c7488200r			; -51330
	DD	0c74ca600r			; -52390
	DD	04731bc00r			; 45500
	DD	0c7509800r			; -53400
	DD	0c6725800r			; -15510
	DD	0c7719a00r			; -61850
	DD	0c7483200r			; -51250
	DD	047543a00r			; 54330
	DD	047553400r			; 54580
	DD	0c74ddc00r			; -52700
	DD	0479a5600r			; 79020
	DD	047a7e400r			; 85960
	DD	0c74c5600r			; -52310
	DD	0477d4800r			; 64840
	DD	0c7c44500r			; -100490
	DD	0c74d1400r			; -52500
	DD	047ac2600r			; 88140
	DD	0c7a1ae00r			; -82780
	DD	0c749ea00r			; -51690
	DD	0c7bce300r			; -96710
	DD	0c6126800r			; -9370
	DD	0c7495400r			; -51540
	DD	043cd0000r			; 410
	DD	0c6a7a800r			; -21460
	DD	0c74a8a00r			; -51850
	DD	0473fae00r			; 49070
	DD	0457c8000r			; 4040
	DD	0c74e4a00r			; -52810
	DD	047871e00r			; 69180
	DD	0c6cbc000r			; -26080
	DD	0c74bc000r			; -52160
	DD	046984400r			; 19490
	DD	0452fa000r			; 2810
	DD	0c7488200r			; -51330
	DD	0c7081800r			; -34840
	DD	0c7719a00r			; -61850
	DD	0c749d600r			; -51670
	DD	047b17600r			; 90860
	DD	047553400r			; 54580
	DD	0c74ddc00r			; -52700
	DD	0479a5600r			; 79020
	DD	047a7e400r			; 85960
	DD	0c74c5600r			; -52310
	DD	0477d4800r			; 64840
	DD	0c7c44500r			; -100490
	DD	0c74d1400r			; -52500
	DD	047ac2600r			; 88140
	DD	047c04e00r			; 98460
	DD	0c74d1400r			; -52500
	DD	0c732a200r			; -45730
	DD	0467b9000r			; 16100
	DD	0c7487800r			; -51320
	DD	0c749a400r			; -51620
	DD	047636c00r			; 58220
	DD	0c74e0400r			; -52740
	DD	0c760b000r			; -57520
	DD	0c6126800r			; -9370
	DD	0c4070000r			; -540
	DD	043cd0000r			; 410
	DD	0c4e60000r			; -1840
	DD	0c6a30c00r			; -20870
	DD	0470a6600r			; 35430
	DD	0c7230c00r			; -41740
	DD	046924000r			; 18720
	DD	04797d600r			; 77740
	DD	0460d9000r			; 9060
	DD	0c616c800r			; -9650
	DD	0c7921300r			; -74790
_lightningPosList DD 041300000r			; 11
	DD	000000000r			; 0
	DD	040e00000r			; 7
	DD	040a00000r			; 5
	DD	041100000r			; 9
	DD	041000000r			; 8
	DD	041000000r			; 8
	DD	041600000r			; 14
	DD	041800000r			; 16
	DD	041a00000r			; 20
	DD	041200000r			; 10
	DD	041c00000r			; 24
	DD	041300000r			; 11
	DD	041d80000r			; 27
	DD	040c00000r			; 6
	DD	041f00000r			; 30
	DD	040e00000r			; 7
	DD	042040000r			; 33
	DD	03f800000r			; 1
	DD	042180000r			; 38
	DD	040a00000r			; 5
	DD	042280000r			; 42
	DD	040a00000r			; 5
	DD	042340000r			; 45
	DD	041400000r			; 12
	DD	042400000r			; 48
	DD	041a00000r			; 20
	DD	042500000r			; 52
	DD	041a00000r			; 20
	DD	042680000r			; 58
	DD	041b80000r			; 23
	DD	042740000r			; 61
	DD	041b00000r			; 22
	DD	0427c0000r			; 63
	DD	041b00000r			; 22
	DD	042840000r			; 66
	DD	041c80000r			; 25
	DD	042880000r			; 68
	DD	041a00000r			; 20
	DD	0428c0000r			; 70
	DD	041c00000r			; 24
	DD	042960000r			; 75
	DD	041c00000r			; 24
	DD	0429a0000r			; 77
	DD	041f80000r			; 31
	DD	042a00000r			; 80
	DD	041f80000r			; 31
	DD	042a60000r			; 83
	DD	042040000r			; 33
	DD	042b00000r			; 88
	DD	041f80000r			; 31
	DD	042b80000r			; 92
	DD	0423c0000r			; 47
	DD	042ce0000r			; 103
	DD	042380000r			; 46
	DD	042d20000r			; 105
	DD	0423c0000r			; 47
	DD	042d60000r			; 107
	DD	042340000r			; 45
	DD	042e00000r			; 112
	DD	042400000r			; 48
	DD	042e40000r			; 114
	DD	042380000r			; 46
	DD	042ea0000r			; 117
	DD	0422c0000r			; 43
	DD	043000000r			; 128
_matrix33_ident DD 03f800000r			; 1
	DD	000000000r			; 0
	DD	000000000r			; 0
	DD	000000000r			; 0
	DD	03f800000r			; 1
	DD	000000000r			; 0
	DD	000000000r			; 0
	DD	000000000r			; 0
	DD	03f800000r			; 1
_DATA	ENDS
;	COMDAT ?table_size@?$ctype@D@std@@2IB
CONST	SEGMENT
?table_size@?$ctype@D@std@@2IB DD 0100H			; std::ctype<char>::table_size
CONST	ENDS
;	COMDAT ?digits10@?$numeric_limits@C@std@@2HB
CONST	SEGMENT
?digits10@?$numeric_limits@C@std@@2HB DD 02H		; std::numeric_limits<signed char>::digits10
CONST	ENDS
;	COMDAT ?digits@?$numeric_limits@C@std@@2HB
CONST	SEGMENT
?digits@?$numeric_limits@C@std@@2HB DD 07H		; std::numeric_limits<signed char>::digits
CONST	ENDS
;	COMDAT ?is_signed@?$numeric_limits@C@std@@2_NB
CONST	SEGMENT
?is_signed@?$numeric_limits@C@std@@2_NB DB 01H		; std::numeric_limits<signed char>::is_signed
CONST	ENDS
CONST	SEGMENT
_L_2	DD	03f317218r			; 0.693147
_NEAR_CLIP DD	03f800000r			; 1
CONST	ENDS
;	COMDAT ?digits10@?$numeric_limits@_N@std@@2HB
CONST	SEGMENT
?digits10@?$numeric_limits@_N@std@@2HB DD 00H		; std::numeric_limits<bool>::digits10
CONST	ENDS
;	COMDAT ?digits@?$numeric_limits@_N@std@@2HB
CONST	SEGMENT
?digits@?$numeric_limits@_N@std@@2HB DD 01H		; std::numeric_limits<bool>::digits
CONST	ENDS
;	COMDAT ?is_signed@?$numeric_limits@_N@std@@2_NB
CONST	SEGMENT
?is_signed@?$numeric_limits@_N@std@@2_NB DB 00H		; std::numeric_limits<bool>::is_signed
CONST	ENDS
;	COMDAT ?is_modulo@?$numeric_limits@_N@std@@2_NB
CONST	SEGMENT
?is_modulo@?$numeric_limits@_N@std@@2_NB DB 00H		; std::numeric_limits<bool>::is_modulo
CONST	ENDS
;	COMDAT ?digits10@?$numeric_limits@_W@std@@2HB
CONST	SEGMENT
?digits10@?$numeric_limits@_W@std@@2HB DD 04H		; std::numeric_limits<wchar_t>::digits10
CONST	ENDS
;	COMDAT ?digits@?$numeric_limits@_W@std@@2HB
CONST	SEGMENT
?digits@?$numeric_limits@_W@std@@2HB DD 010H		; std::numeric_limits<wchar_t>::digits
CONST	ENDS
;	COMDAT ?is_signed@?$numeric_limits@_W@std@@2_NB
CONST	SEGMENT
?is_signed@?$numeric_limits@_W@std@@2_NB DB 00H		; std::numeric_limits<wchar_t>::is_signed
CONST	ENDS
;	COMDAT ?none@?$_Locbase@H@std@@2HB
CONST	SEGMENT
?none@?$_Locbase@H@std@@2HB DD 00H			; std::_Locbase<int>::none
CONST	ENDS
;	COMDAT ?all@?$_Locbase@H@std@@2HB
CONST	SEGMENT
?all@?$_Locbase@H@std@@2HB DD 03fH			; std::_Locbase<int>::all
CONST	ENDS
;	COMDAT ?digits10@?$numeric_limits@D@std@@2HB
CONST	SEGMENT
?digits10@?$numeric_limits@D@std@@2HB DD 02H		; std::numeric_limits<char>::digits10
CONST	ENDS
;	COMDAT ?messages@?$_Locbase@H@std@@2HB
CONST	SEGMENT
?messages@?$_Locbase@H@std@@2HB DD 020H			; std::_Locbase<int>::messages
CONST	ENDS
;	COMDAT ?digits@?$numeric_limits@D@std@@2HB
CONST	SEGMENT
?digits@?$numeric_limits@D@std@@2HB DD 07H		; std::numeric_limits<char>::digits
CONST	ENDS
;	COMDAT ?time@?$_Locbase@H@std@@2HB
CONST	SEGMENT
?time@?$_Locbase@H@std@@2HB DD 010H			; std::_Locbase<int>::time
CONST	ENDS
;	COMDAT ?numeric@?$_Locbase@H@std@@2HB
CONST	SEGMENT
?numeric@?$_Locbase@H@std@@2HB DD 08H			; std::_Locbase<int>::numeric
CONST	ENDS
;	COMDAT ?is_signed@?$numeric_limits@D@std@@2_NB
CONST	SEGMENT
?is_signed@?$numeric_limits@D@std@@2_NB DB 01H		; std::numeric_limits<char>::is_signed
CONST	ENDS
;	COMDAT ?monetary@?$_Locbase@H@std@@2HB
CONST	SEGMENT
?monetary@?$_Locbase@H@std@@2HB DD 04H			; std::_Locbase<int>::monetary
CONST	ENDS
;	COMDAT ?ctype@?$_Locbase@H@std@@2HB
CONST	SEGMENT
?ctype@?$_Locbase@H@std@@2HB DD 02H			; std::_Locbase<int>::ctype
CONST	ENDS
;	COMDAT ?collate@?$_Locbase@H@std@@2HB
CONST	SEGMENT
?collate@?$_Locbase@H@std@@2HB DD 01H			; std::_Locbase<int>::collate
CONST	ENDS
;	COMDAT ?radix@_Num_float_base@std@@2HB
CONST	SEGMENT
?radix@_Num_float_base@std@@2HB DD 02H			; std::_Num_float_base::radix
CONST	ENDS
;	COMDAT ?round_style@_Num_float_base@std@@2W4float_round_style@2@B
CONST	SEGMENT
?round_style@_Num_float_base@std@@2W4float_round_style@2@B DD 01H ; std::_Num_float_base::round_style
CONST	ENDS
;	COMDAT ?traps@_Num_float_base@std@@2_NB
CONST	SEGMENT
?traps@_Num_float_base@std@@2_NB DB 00H			; std::_Num_float_base::traps
CONST	ENDS
;	COMDAT ?tinyness_before@_Num_float_base@std@@2_NB
CONST	SEGMENT
?tinyness_before@_Num_float_base@std@@2_NB DB 01H	; std::_Num_float_base::tinyness_before
CONST	ENDS
;	COMDAT ?is_specialized@_Num_float_base@std@@2_NB
CONST	SEGMENT
?is_specialized@_Num_float_base@std@@2_NB DB 01H	; std::_Num_float_base::is_specialized
CONST	ENDS
;	COMDAT ?is_signed@_Num_float_base@std@@2_NB
CONST	SEGMENT
?is_signed@_Num_float_base@std@@2_NB DB 01H		; std::_Num_float_base::is_signed
CONST	ENDS
;	COMDAT ?is_modulo@_Num_float_base@std@@2_NB
CONST	SEGMENT
?is_modulo@_Num_float_base@std@@2_NB DB 00H		; std::_Num_float_base::is_modulo
CONST	ENDS
;	COMDAT ?is_integer@_Num_float_base@std@@2_NB
CONST	SEGMENT
?is_integer@_Num_float_base@std@@2_NB DB 00H		; std::_Num_float_base::is_integer
CONST	ENDS
;	COMDAT ?is_iec559@_Num_float_base@std@@2_NB
CONST	SEGMENT
?is_iec559@_Num_float_base@std@@2_NB DB 01H		; std::_Num_float_base::is_iec559
CONST	ENDS
;	COMDAT ?is_exact@_Num_float_base@std@@2_NB
CONST	SEGMENT
?is_exact@_Num_float_base@std@@2_NB DB 00H		; std::_Num_float_base::is_exact
CONST	ENDS
;	COMDAT ?is_bounded@_Num_float_base@std@@2_NB
CONST	SEGMENT
?is_bounded@_Num_float_base@std@@2_NB DB 01H		; std::_Num_float_base::is_bounded
CONST	ENDS
;	COMDAT ?has_signaling_NaN@_Num_float_base@std@@2_NB
CONST	SEGMENT
?has_signaling_NaN@_Num_float_base@std@@2_NB DB 01H	; std::_Num_float_base::has_signaling_NaN
CONST	ENDS
;	COMDAT ?has_quiet_NaN@_Num_float_base@std@@2_NB
CONST	SEGMENT
?has_quiet_NaN@_Num_float_base@std@@2_NB DB 01H		; std::_Num_float_base::has_quiet_NaN
CONST	ENDS
;	COMDAT ?has_infinity@_Num_float_base@std@@2_NB
CONST	SEGMENT
?has_infinity@_Num_float_base@std@@2_NB DB 01H		; std::_Num_float_base::has_infinity
CONST	ENDS
;	COMDAT ?CMPDIRTYDATA_INTERVAL@FalconEntity@@2KB
CONST	SEGMENT
?CMPDIRTYDATA_INTERVAL@FalconEntity@@2KB DD 0c8H	; FalconEntity::CMPDIRTYDATA_INTERVAL
CONST	ENDS
;	COMDAT ?SIMDIRTYDATA_INTERVAL@FalconEntity@@2KB
CONST	SEGMENT
?SIMDIRTYDATA_INTERVAL@FalconEntity@@2KB DD 0c8H	; FalconEntity::SIMDIRTYDATA_INTERVAL
CONST	ENDS
;	COMDAT ?has_denorm_loss@_Num_float_base@std@@2_NB
CONST	SEGMENT
?has_denorm_loss@_Num_float_base@std@@2_NB DB 01H	; std::_Num_float_base::has_denorm_loss
CONST	ENDS
;	COMDAT ?has_denorm@_Num_float_base@std@@2W4float_denorm_style@2@B
CONST	SEGMENT
?has_denorm@_Num_float_base@std@@2W4float_denorm_style@2@B DD 01H ; std::_Num_float_base::has_denorm
CONST	ENDS
;	COMDAT ?radix@_Num_int_base@std@@2HB
CONST	SEGMENT
?radix@_Num_int_base@std@@2HB DD 02H			; std::_Num_int_base::radix
CONST	ENDS
;	COMDAT ?is_specialized@_Num_int_base@std@@2_NB
CONST	SEGMENT
?is_specialized@_Num_int_base@std@@2_NB DB 01H		; std::_Num_int_base::is_specialized
CONST	ENDS
;	COMDAT ?is_modulo@_Num_int_base@std@@2_NB
CONST	SEGMENT
?is_modulo@_Num_int_base@std@@2_NB DB 01H		; std::_Num_int_base::is_modulo
CONST	ENDS
;	COMDAT ?is_integer@_Num_int_base@std@@2_NB
CONST	SEGMENT
?is_integer@_Num_int_base@std@@2_NB DB 01H		; std::_Num_int_base::is_integer
CONST	ENDS
;	COMDAT ?is_exact@_Num_int_base@std@@2_NB
CONST	SEGMENT
?is_exact@_Num_int_base@std@@2_NB DB 01H		; std::_Num_int_base::is_exact
CONST	ENDS
;	COMDAT ?is_bounded@_Num_int_base@std@@2_NB
CONST	SEGMENT
?is_bounded@_Num_int_base@std@@2_NB DB 01H		; std::_Num_int_base::is_bounded
CONST	ENDS
;	COMDAT ?radix@_Num_base@std@@2HB
CONST	SEGMENT
?radix@_Num_base@std@@2HB DD 00H			; std::_Num_base::radix
CONST	ENDS
;	COMDAT ?min_exponent10@_Num_base@std@@2HB
CONST	SEGMENT
?min_exponent10@_Num_base@std@@2HB DD 00H		; std::_Num_base::min_exponent10
CONST	ENDS
;	COMDAT ?min_exponent@_Num_base@std@@2HB
CONST	SEGMENT
?min_exponent@_Num_base@std@@2HB DD 00H			; std::_Num_base::min_exponent
CONST	ENDS
;	COMDAT ?max_exponent10@_Num_base@std@@2HB
CONST	SEGMENT
?max_exponent10@_Num_base@std@@2HB DD 00H		; std::_Num_base::max_exponent10
CONST	ENDS
;	COMDAT ?max_exponent@_Num_base@std@@2HB
CONST	SEGMENT
?max_exponent@_Num_base@std@@2HB DD 00H			; std::_Num_base::max_exponent
CONST	ENDS
;	COMDAT ?max_digits10@_Num_base@std@@2HB
CONST	SEGMENT
?max_digits10@_Num_base@std@@2HB DD 00H			; std::_Num_base::max_digits10
CONST	ENDS
;	COMDAT ?digits10@_Num_base@std@@2HB
CONST	SEGMENT
?digits10@_Num_base@std@@2HB DD 00H			; std::_Num_base::digits10
CONST	ENDS
;	COMDAT ?digits@_Num_base@std@@2HB
CONST	SEGMENT
?digits@_Num_base@std@@2HB DD 00H			; std::_Num_base::digits
CONST	ENDS
;	COMDAT ?round_style@_Num_base@std@@2W4float_round_style@2@B
CONST	SEGMENT
?round_style@_Num_base@std@@2W4float_round_style@2@B DD 00H ; std::_Num_base::round_style
CONST	ENDS
;	COMDAT ?traps@_Num_base@std@@2_NB
CONST	SEGMENT
?traps@_Num_base@std@@2_NB DB 00H			; std::_Num_base::traps
CONST	ENDS
PUBLIC	_fabsf
PUBLIC	_acosf
PUBLIC	?acos@@YAMM@Z					; acos
PUBLIC	?fabs@@YAMM@Z					; fabs
PUBLIC	??0VU_SESSION_ID@@QAE@K@Z			; VU_SESSION_ID::VU_SESSION_ID
PUBLIC	??8VU_SESSION_ID@@QBEHABV0@@Z			; VU_SESSION_ID::operator==
PUBLIC	??0VU_ID@@QAE@XZ				; VU_ID::VU_ID
PUBLIC	??9VU_ID@@QBE_NABV0@@Z				; VU_ID::operator!=
PUBLIC	?Id@VuEntity@@QBE?AVVU_ID@@XZ			; VuEntity::Id
PUBLIC	?Type@VuEntity@@QBEGXZ				; VuEntity::Type
PUBLIC	?XPos@VuEntity@@QBEMXZ				; VuEntity::XPos
PUBLIC	?YPos@VuEntity@@QBEMXZ				; VuEntity::YPos
PUBLIC	?ZPos@VuEntity@@QBEMXZ				; VuEntity::ZPos
PUBLIC	?XDelta@VuEntity@@QBEMXZ			; VuEntity::XDelta
PUBLIC	?YDelta@VuEntity@@QBEMXZ			; VuEntity::YDelta
PUBLIC	?Yaw@VuEntity@@QBEMXZ				; VuEntity::Yaw
PUBLIC	?Pitch@VuEntity@@QBEMXZ				; VuEntity::Pitch
PUBLIC	?EntityType@VuEntity@@QBEPAUVuEntityType@@XZ	; VuEntity::EntityType
PUBLIC	??2@YAPAXIPAX@Z					; operator new
PUBLIC	??3@YAXPAX0@Z					; operator delete
PUBLIC	?length@?$char_traits@D@std@@SAIPBD@Z		; std::char_traits<char>::length
PUBLIC	?copy@?$char_traits@D@std@@SAPADPADPBDI@Z	; std::char_traits<char>::copy
PUBLIC	?move@?$char_traits@D@std@@SAPADPADPBDI@Z	; std::char_traits<char>::move
PUBLIC	?assign@?$char_traits@D@std@@SAXAADABD@Z	; std::char_traits<char>::assign
PUBLIC	??0?$allocator@D@std@@QAE@XZ			; std::allocator<char>::allocator<char>
PUBLIC	?deallocate@?$allocator@D@std@@QAEXPADI@Z	; std::allocator<char>::deallocate
PUBLIC	?allocate@?$allocator@D@std@@QAEPADI@Z		; std::allocator<char>::allocate
PUBLIC	?max_size@?$allocator@D@std@@QBEIXZ		; std::allocator<char>::max_size
PUBLIC	?max_size@?$allocator_traits@V?$allocator@D@std@@@std@@SAIABV?$allocator@D@2@@Z ; std::allocator_traits<std::allocator<char> >::max_size
PUBLIC	??0?$_Wrap_alloc@V?$allocator@D@std@@@std@@QAE@XZ ; std::_Wrap_alloc<std::allocator<char> >::_Wrap_alloc<std::allocator<char> >
PUBLIC	?allocate@?$_Wrap_alloc@V?$allocator@D@std@@@std@@QAEPADI@Z ; std::_Wrap_alloc<std::allocator<char> >::allocate
PUBLIC	?deallocate@?$_Wrap_alloc@V?$allocator@D@std@@@std@@QAEXPADI@Z ; std::_Wrap_alloc<std::allocator<char> >::deallocate
PUBLIC	?max_size@?$_Wrap_alloc@V?$allocator@D@std@@@std@@QBEIXZ ; std::_Wrap_alloc<std::allocator<char> >::max_size
PUBLIC	??0?$_String_val@U?$_Simple_types@D@std@@@std@@QAE@XZ ; std::_String_val<std::_Simple_types<char> >::_String_val<std::_Simple_types<char> >
PUBLIC	?_Myptr@?$_String_val@U?$_Simple_types@D@std@@@std@@QAEPADXZ ; std::_String_val<std::_Simple_types<char> >::_Myptr
PUBLIC	?_Myptr@?$_String_val@U?$_Simple_types@D@std@@@std@@QBEPBDXZ ; std::_String_val<std::_Simple_types<char> >::_Myptr
PUBLIC	??0?$_String_alloc@$0A@U?$_String_base_types@DV?$allocator@D@std@@@std@@@std@@QAE@ABV?$allocator@D@1@@Z ; std::_String_alloc<0,std::_String_base_types<char,std::allocator<char> > >::_String_alloc<0,std::_String_base_types<char,std::allocator<char> > >
PUBLIC	?_Getal@?$_String_alloc@$0A@U?$_String_base_types@DV?$allocator@D@std@@@std@@@std@@QBE?AU?$_Wrap_alloc@V?$allocator@D@std@@@2@XZ ; std::_String_alloc<0,std::_String_base_types<char,std::allocator<char> > >::_Getal
PUBLIC	??0?$basic_string@DU?$char_traits@D@std@@V?$allocator@D@2@@std@@QAE@PBD@Z ; std::basic_string<char,std::char_traits<char>,std::allocator<char> >::basic_string<char,std::char_traits<char>,std::allocator<char> >
PUBLIC	?assign@?$basic_string@DU?$char_traits@D@std@@V?$allocator@D@2@@std@@QAEAAV12@ABV12@II@Z ; std::basic_string<char,std::char_traits<char>,std::allocator<char> >::assign
PUBLIC	?assign@?$basic_string@DU?$char_traits@D@std@@V?$allocator@D@2@@std@@QAEAAV12@PBDI@Z ; std::basic_string<char,std::char_traits<char>,std::allocator<char> >::assign
PUBLIC	?assign@?$basic_string@DU?$char_traits@D@std@@V?$allocator@D@2@@std@@QAEAAV12@PBD@Z ; std::basic_string<char,std::char_traits<char>,std::allocator<char> >::assign
PUBLIC	?erase@?$basic_string@DU?$char_traits@D@std@@V?$allocator@D@2@@std@@QAEAAV12@I@Z ; std::basic_string<char,std::char_traits<char>,std::allocator<char> >::erase
PUBLIC	?erase@?$basic_string@DU?$char_traits@D@std@@V?$allocator@D@2@@std@@QAEAAV12@II@Z ; std::basic_string<char,std::char_traits<char>,std::allocator<char> >::erase
PUBLIC	?size@?$basic_string@DU?$char_traits@D@std@@V?$allocator@D@2@@std@@QBEIXZ ; std::basic_string<char,std::char_traits<char>,std::allocator<char> >::size
PUBLIC	?max_size@?$basic_string@DU?$char_traits@D@std@@V?$allocator@D@2@@std@@QBEIXZ ; std::basic_string<char,std::char_traits<char>,std::allocator<char> >::max_size
PUBLIC	?_Copy@?$basic_string@DU?$char_traits@D@std@@V?$allocator@D@2@@std@@QAEXII@Z ; std::basic_string<char,std::char_traits<char>,std::allocator<char> >::_Copy
PUBLIC	?_Eos@?$basic_string@DU?$char_traits@D@std@@V?$allocator@D@2@@std@@QAEXI@Z ; std::basic_string<char,std::char_traits<char>,std::allocator<char> >::_Eos
PUBLIC	?_Grow@?$basic_string@DU?$char_traits@D@std@@V?$allocator@D@2@@std@@QAE_NI_N@Z ; std::basic_string<char,std::char_traits<char>,std::allocator<char> >::_Grow
PUBLIC	?_Inside@?$basic_string@DU?$char_traits@D@std@@V?$allocator@D@2@@std@@QAE_NPBD@Z ; std::basic_string<char,std::char_traits<char>,std::allocator<char> >::_Inside
PUBLIC	?_Tidy@?$basic_string@DU?$char_traits@D@std@@V?$allocator@D@2@@std@@QAEX_NI@Z ; std::basic_string<char,std::char_traits<char>,std::allocator<char> >::_Tidy
PUBLIC	?_Xlen@?$basic_string@DU?$char_traits@D@std@@V?$allocator@D@2@@std@@QBEXXZ ; std::basic_string<char,std::char_traits<char>,std::allocator<char> >::_Xlen
PUBLIC	?_Xran@?$basic_string@DU?$char_traits@D@std@@V?$allocator@D@2@@std@@QBEXXZ ; std::basic_string<char,std::char_traits<char>,std::allocator<char> >::_Xran
PUBLIC	?IsCampaign@FalconEntity@@QAEHXZ		; FalconEntity::IsCampaign
PUBLIC	?IsSim@FalconEntity@@QAEHXZ			; FalconEntity::IsSim
PUBLIC	?IsSetFalcFlag@FalconEntity@@QAEHH@Z		; FalconEntity::IsSetFalcFlag
PUBLIC	?IsPlayer@FalconEntity@@QAEHXZ			; FalconEntity::IsPlayer
PUBLIC	?mlSinCos@@YAXPAUmlTrig@@M@Z			; mlSinCos
PUBLIC	?checked_atan2@@YANNN@Z				; checked_atan2
PUBLIC	?SetFlag@BaseBrain@@QAEXH@Z			; BaseBrain::SetFlag
PUBLIC	?ClearFlag@BaseBrain@@QAEXH@Z			; BaseBrain::ClearFlag
PUBLIC	?GetWPTarget@WayPointClass@@QAEPAVCampBaseClass@@XZ ; WayPointClass::GetWPTarget
PUBLIC	?GetWPTargetBuilding@WayPointClass@@QAEEXZ	; WayPointClass::GetWPTargetBuilding
PUBLIC	?GetWPAction@WayPointClass@@QAEHXZ		; WayPointClass::GetWPAction
PUBLIC	?GetWPRouteAction@WayPointClass@@QAEHXZ		; WayPointClass::GetWPRouteAction
PUBLIC	?GetWPFlags@WayPointClass@@QAEKXZ		; WayPointClass::GetWPFlags
PUBLIC	?GetNextWP@WayPointClass@@QAEPAV1@XZ		; WayPointClass::GetNextWP
PUBLIC	?GetPrevWP@WayPointClass@@QAEPAV1@XZ		; WayPointClass::GetPrevWP
PUBLIC	?GroundAttackMode@DigitalBrain@@IAEXXZ		; DigitalBrain::GroundAttackMode
PUBLIC	?SetGroundTarget@DigitalBrain@@IAEXPAVFalconEntity@@@Z ; DigitalBrain::SetGroundTarget
PUBLIC	?SetGroundTargetPtr@DigitalBrain@@IAEXPAVSimObjectType@@@Z ; DigitalBrain::SetGroundTargetPtr
PUBLIC	?SelectGroundTarget@DigitalBrain@@IAEXH@Z	; DigitalBrain::SelectGroundTarget
PUBLIC	?SelectCampGroundTarget@DigitalBrain@@IAEXXZ	; DigitalBrain::SelectCampGroundTarget
PUBLIC	?TakePicture@DigitalBrain@@IAEXMM@Z		; DigitalBrain::TakePicture
PUBLIC	?DropBomb@DigitalBrain@@IAEXMMPAVRadarClass@@@Z	; DigitalBrain::DropBomb
PUBLIC	?DropGBU@DigitalBrain@@IAEXMMPAVRadarClass@@@Z	; DigitalBrain::DropGBU
PUBLIC	?FireAGMissile@DigitalBrain@@IAEXMM@Z		; DigitalBrain::FireAGMissile
PUBLIC	?FireRocket@DigitalBrain@@IAEHMM@Z		; DigitalBrain::FireRocket
PUBLIC	?GunStrafe@DigitalBrain@@IAEHMM@Z		; DigitalBrain::GunStrafe
PUBLIC	?MaverickSetup@DigitalBrain@@IAEHMMMMPAVRadarClass@@@Z ; DigitalBrain::MaverickSetup
PUBLIC	?HARMSetup@DigitalBrain@@IAEHMMMM@Z		; DigitalBrain::HARMSetup
PUBLIC	?JSOWSetup@DigitalBrain@@IAEHMMMM@Z		; DigitalBrain::JSOWSetup
PUBLIC	?AGflyOut@DigitalBrain@@IAEXXZ			; DigitalBrain::AGflyOut
PUBLIC	?SelectGroundWeapon@DigitalBrain@@IAEXXZ	; DigitalBrain::SelectGroundWeapon
PUBLIC	?SetupAGMode@DigitalBrain@@IAEXPAVWayPointClass@@0@Z ; DigitalBrain::SetupAGMode
PUBLIC	?IPCheck@DigitalBrain@@IAEXXZ			; DigitalBrain::IPCheck
PUBLIC	?SetTrackPoint@DigitalBrain@@QAEXMM@Z		; DigitalBrain::SetTrackPoint
PUBLIC	?SetTrackPoint@DigitalBrain@@QAEXMMM@Z		; DigitalBrain::SetTrackPoint
PUBLIC	?SetATCFlag@DigitalBrain@@QAEXH@Z		; DigitalBrain::SetATCFlag
PUBLIC	?ClearATCFlag@DigitalBrain@@QAEXH@Z		; DigitalBrain::ClearATCFlag
PUBLIC	?IsSetATC@DigitalBrain@@QAEHH@Z			; DigitalBrain::IsSetATC
PUBLIC	?IsNotMainTargetSEAD@DigitalBrain@@AAEHXZ	; DigitalBrain::IsNotMainTargetSEAD
PUBLIC	?get@?$VuBin@VCampBaseClass@@@@QBEPAVCampBaseClass@@XZ ; VuBin<CampBaseClass>::get
PUBLIC	?IsAwake@SimBaseClass@@QBEHXZ			; SimBaseClass::IsAwake
PUBLIC	?IsSetFlag@SimBaseClass@@QBEHH@Z		; SimBaseClass::IsSetFlag
PUBLIC	?GetCampaignObject@SimBaseClass@@QAEPAVCampBaseClass@@XZ ; SimBaseClass::GetCampaignObject
PUBLIC	?RdrRng@SimBaseClass@@QAEMXZ			; SimBaseClass::RdrRng
PUBLIC	?get@?$VuBin@VFalconEntity@@@@QBEPAVFalconEntity@@XZ ; VuBin<FalconEntity>::get
PUBLIC	?CurrentTarget@SensorClass@@QAEPAVSimObjectType@@XZ ; SensorClass::CurrentTarget
PUBLIC	??7?$VuBin@VSimWeaponClass@@@@QBE_NXZ		; VuBin<SimWeaponClass>::operator!
PUBLIC	??B?$VuBin@VSimWeaponClass@@@@QBE_NXZ		; VuBin<SimWeaponClass>::operator bool
PUBLIC	??C?$VuBin@VSimWeaponClass@@@@QBEPAVSimWeaponClass@@XZ ; VuBin<SimWeaponClass>::operator->
PUBLIC	?get@?$VuBin@VSimWeaponClass@@@@QBEPAVSimWeaponClass@@XZ ; VuBin<SimWeaponClass>::get
PUBLIC	?GetNextOnRail@SimWeaponClass@@QAEPAV1@XZ	; SimWeaponClass::GetNextOnRail
PUBLIC	?IsSetBombFlag@BombClass@@QAEHH@Z		; BombClass::IsSetBombFlag
PUBLIC	?GetMasterMode@FireControlComputer@@QAE?AW4FCCMasterMode@1@XZ ; FireControlComputer::GetMasterMode
PUBLIC	?GetSubMode@FireControlComputer@@QAE?AW4FCCSubMode@1@XZ ; FireControlComputer::GetSubMode
PUBLIC	?SetBombReleaseOverride@FireControlComputer@@QAEXH@Z ; FireControlComputer::SetBombReleaseOverride
PUBLIC	?NumHardpoints@SMSBaseClass@@QAEHXZ		; SMSBaseClass::NumHardpoints
PUBLIC	?CurHardpoint@SMSBaseClass@@QAEHXZ		; SMSBaseClass::CurHardpoint
PUBLIC	?NumCurrentWpn@SMSBaseClass@@QAEHXZ		; SMSBaseClass::NumCurrentWpn
PUBLIC	?IsFiringRockets@SMSClass@@QAEHXZ		; SMSClass::IsFiringRockets
PUBLIC	?CurRippleCount@SMSClass@@QAEHXZ		; SMSClass::CurRippleCount
PUBLIC	?GetAGBRippleCount@SMSClass@@QAEHXZ		; SMSClass::GetAGBRippleCount
PUBLIC	?GetAGBRippleInterval@SMSClass@@QAEHXZ		; SMSClass::GetAGBRippleInterval
PUBLIC	?GetAGBBurstAlt@SMSClass@@QAEHXZ		; SMSClass::GetAGBBurstAlt
PUBLIC	?SetAGBRippleCount@SMSClass@@QAEXH@Z		; SMSClass::SetAGBRippleCount
PUBLIC	?SetAGBBurstAlt@SMSClass@@QAEXH@Z		; SMSClass::SetAGBBurstAlt
PUBLIC	?SetAGBPair@SMSClass@@QAEX_N@Z			; SMSClass::SetAGBPair
PUBLIC	??0id@locale@std@@QAE@I@Z			; std::locale::id::id
PUBLIC	?generic_category@std@@YAABVerror_category@1@XZ	; std::generic_category
PUBLIC	?system_category@std@@YAABVerror_category@1@XZ	; std::system_category
PUBLIC	??0error_category@std@@QAE@XZ			; std::error_category::error_category
PUBLIC	??1error_category@std@@UAE@XZ			; std::error_category::~error_category
PUBLIC	?default_error_condition@error_category@std@@UBE?AVerror_condition@2@H@Z ; std::error_category::default_error_condition
PUBLIC	?equivalent@error_category@std@@UBE_NHABVerror_condition@2@@Z ; std::error_category::equivalent
PUBLIC	?equivalent@error_category@std@@UBE_NABVerror_code@2@H@Z ; std::error_category::equivalent
PUBLIC	??8error_category@std@@QBE_NABV01@@Z		; std::error_category::operator==
PUBLIC	??_Gerror_category@std@@UAEPAXI@Z		; std::error_category::`scalar deleting destructor'
PUBLIC	?value@error_code@std@@QBEHXZ			; std::error_code::value
PUBLIC	?category@error_code@std@@QBEABVerror_category@2@XZ ; std::error_code::category
PUBLIC	??0error_condition@std@@QAE@HABVerror_category@1@@Z ; std::error_condition::error_condition
PUBLIC	?value@error_condition@std@@QBEHXZ		; std::error_condition::value
PUBLIC	?category@error_condition@std@@QBEABVerror_category@2@XZ ; std::error_condition::category
PUBLIC	??8error_condition@std@@QBE_NABV01@@Z		; std::error_condition::operator==
PUBLIC	??0_Generic_error_category@std@@QAE@XZ		; std::_Generic_error_category::_Generic_error_category
PUBLIC	?name@_Generic_error_category@std@@UBEPBDXZ	; std::_Generic_error_category::name
PUBLIC	?message@_Generic_error_category@std@@UBE?AV?$basic_string@DU?$char_traits@D@std@@V?$allocator@D@2@@2@H@Z ; std::_Generic_error_category::message
PUBLIC	??1_Generic_error_category@std@@UAE@XZ		; std::_Generic_error_category::~_Generic_error_category
PUBLIC	??_G_Generic_error_category@std@@UAEPAXI@Z	; std::_Generic_error_category::`scalar deleting destructor'
PUBLIC	??0_Iostream_error_category@std@@QAE@XZ		; std::_Iostream_error_category::_Iostream_error_category
PUBLIC	?name@_Iostream_error_category@std@@UBEPBDXZ	; std::_Iostream_error_category::name
PUBLIC	?message@_Iostream_error_category@std@@UBE?AV?$basic_string@DU?$char_traits@D@std@@V?$allocator@D@2@@2@H@Z ; std::_Iostream_error_category::message
PUBLIC	??1_Iostream_error_category@std@@UAE@XZ		; std::_Iostream_error_category::~_Iostream_error_category
PUBLIC	??_G_Iostream_error_category@std@@UAEPAXI@Z	; std::_Iostream_error_category::`scalar deleting destructor'
PUBLIC	??0_System_error_category@std@@QAE@XZ		; std::_System_error_category::_System_error_category
PUBLIC	?name@_System_error_category@std@@UBEPBDXZ	; std::_System_error_category::name
PUBLIC	?message@_System_error_category@std@@UBE?AV?$basic_string@DU?$char_traits@D@std@@V?$allocator@D@2@@2@H@Z ; std::_System_error_category::message
PUBLIC	?default_error_condition@_System_error_category@std@@UBE?AVerror_condition@2@H@Z ; std::_System_error_category::default_error_condition
PUBLIC	??1_System_error_category@std@@UAE@XZ		; std::_System_error_category::~_System_error_category
PUBLIC	??_G_System_error_category@std@@UAEPAXI@Z	; std::_System_error_category::`scalar deleting destructor'
PUBLIC	?AutopilotType@AircraftClass@@QAE?AW4AutoPilotType@1@XZ ; AircraftClass::AutopilotType
PUBLIC	?DBrain@AircraftClass@@QAEPAVDigitalBrain@@XZ	; AircraftClass::DBrain
PUBLIC	?FabsF@@YAMM@Z					; FabsF
PUBLIC	?SqrtF@@YAMM@Z					; SqrtF
PUBLIC	?IsAggregate@CampBaseClass@@QAEHXZ		; CampBaseClass::IsAggregate
PUBLIC	?UnsetChecked@CampBaseClass@@QAEXXZ		; CampBaseClass::UnsetChecked
PUBLIC	?GetTarget@UnitClass@@QAEPAVFalconEntity@@XZ	; UnitClass::GetTarget
PUBLIC	?GetUnitTactic@UnitClass@@QBEHXZ		; UnitClass::GetUnitTactic
PUBLIC	?BaseData@SimObjectType@@QAEPAVFalconEntity@@XZ	; SimObjectType::BaseData
PUBLIC	?TStance@TeamClass@@QAEHE@Z			; TeamClass::TStance
PUBLIC	?IsLocked@LaserPodClass@@QAEHXZ			; LaserPodClass::IsLocked
PUBLIC	?MoveStick@@YAXAAMMM@Z				; MoveStick
PUBLIC	??$construct@PADAAPAD@?$_Wrap_alloc@V?$allocator@D@std@@@std@@QAEXPAPADAAPAD@Z ; std::_Wrap_alloc<std::allocator<char> >::construct<char *,char * &>
PUBLIC	??$destroy@PAD@?$_Wrap_alloc@V?$allocator@D@std@@@std@@QAEXPAPAD@Z ; std::_Wrap_alloc<std::allocator<char> >::destroy<char *>
PUBLIC	??$addressof@D@std@@YAPADAAD@Z			; std::addressof<char>
PUBLIC	??$_Allocate@D@std@@YAPADIPAD@Z			; std::_Allocate<char>
PUBLIC	??$forward@AAPAD@std@@YAAAPADAAPAD@Z		; std::forward<char * &>
PUBLIC	??$construct@PADAAPAD@?$allocator_traits@V?$allocator@D@std@@@std@@SAXAAV?$allocator@D@1@PAPADAAPAD@Z ; std::allocator_traits<std::allocator<char> >::construct<char *,char * &>
PUBLIC	??$destroy@PAD@?$allocator_traits@V?$allocator@D@std@@@std@@SAXAAV?$allocator@D@1@PAPAD@Z ; std::allocator_traits<std::allocator<char> >::destroy<char *>
PUBLIC	??$construct@PADAAPAD@?$allocator@D@std@@QAEXPAPADAAPAD@Z ; std::allocator<char>::construct<char *,char * &>
PUBLIC	??$destroy@PAD@?$allocator@D@std@@QAEXPAPAD@Z	; std::allocator<char>::destroy<char *>
PUBLIC	??_7error_category@std@@6B@			; std::error_category::`vftable'
PUBLIC	??_7_Generic_error_category@std@@6B@		; std::_Generic_error_category::`vftable'
PUBLIC	??_C@_07DCLBNMLN@generic?$AA@			; `string'
PUBLIC	??_C@_0O@BFJCFAAK@unknown?5error?$AA@		; `string'
PUBLIC	??_7_Iostream_error_category@std@@6B@		; std::_Iostream_error_category::`vftable'
PUBLIC	??_C@_08LLGCOLLL@iostream?$AA@			; `string'
PUBLIC	??_C@_0BG@PADBLCHM@iostream?5stream?5error?$AA@	; `string'
PUBLIC	??_7_System_error_category@std@@6B@		; std::_System_error_category::`vftable'
PUBLIC	??_C@_06FHFOAHML@system?$AA@			; `string'
PUBLIC	?_Generic_object@?$_Error_objects@H@std@@2V_Generic_error_category@2@A ; std::_Error_objects<int>::_Generic_object
PUBLIC	?_Iostream_object@?$_Error_objects@H@std@@2V_Iostream_error_category@2@A ; std::_Error_objects<int>::_Iostream_object
PUBLIC	?_System_object@?$_Error_objects@H@std@@2V_System_error_category@2@A ; std::_Error_objects<int>::_System_object
PUBLIC	?id@?$num_put@DV?$back_insert_iterator@V?$basic_string@DU?$char_traits@D@std@@V?$allocator@D@2@@std@@@std@@@std@@2V0locale@2@A ; std::num_put<char,std::back_insert_iterator<std::basic_string<char,std::char_traits<char>,std::allocator<char> > > >::id
PUBLIC	?id@?$num_put@_WV?$back_insert_iterator@V?$basic_string@_WU?$char_traits@_W@std@@V?$allocator@_W@2@@std@@@std@@@std@@2V0locale@2@A ; std::num_put<wchar_t,std::back_insert_iterator<std::basic_string<wchar_t,std::char_traits<wchar_t>,std::allocator<wchar_t> > > >::id
PUBLIC	??_C@_0N@PEIHJIIA@Way?5Too?5Low?6?$AA@		; `string'
PUBLIC	??_C@_08BAMGLEEE@Too?5Low?6?$AA@		; `string'
PUBLIC	??_C@_0O@DIIALKLP@RocketFiring?6?$AA@		; `string'
PUBLIC	??_C@_0M@KMPJBFFN@RocketJink?6?$AA@		; `string'
PUBLIC	??_C@_0CB@JNHJEDCH@RocketFlyOut?5Alt?3?5?$CFf?5?5Range?3?5?$CFf?6@ ; `string'
PUBLIC	??_C@_0BA@NAONBMMI@noSolution?5?$DN?5?$CFd?$AA@	; `string'
PUBLIC	??_C@_0BJ@BJNDFIH@Pitch?3?5To?5Attack?5Alt?5?$CFf?6?$AA@ ; `string'
PUBLIC	??_C@_0HE@BDJBNFGF@?$CK?$CKME?$CK?$CK?5hdg?5?$CFf?5atel?5?$CFf?5pitch?5?$CFf?5t@ ; `string'
PUBLIC	??_C@_0L@NKJBDNAB@Too?5Close?6?$AA@		; `string'
PUBLIC	??_C@_0BI@PGBJGCL@Roll?3?5To?5Tgt?5Direction?6?$AA@ ; `string'
PUBLIC	??_C@_0BN@OEJMGLIO@Roll?3?5Pipper?5To?5Tgt?5taz?3?5?$CFf?6?$AA@ ; `string'
PUBLIC	??_C@_06MHHKCODM@Firing?$AA@			; `string'
PUBLIC	??_C@_0CC@OEAEGKEN@?$CK?$CK?$CK?$CK?5Fire?5Missiles?5?$CK?$CK?$CK?$CK?5Angle?5?$CFf@ ; `string'
PUBLIC	??_C@_0M@JCNJJKHD@Rocket?9Fail?$AA@		; `string'
PUBLIC	?id@?$numpunct@D@std@@2V0locale@2@A		; std::numpunct<char>::id
PUBLIC	?id@?$numpunct@_W@std@@2V0locale@2@A		; std::numpunct<wchar_t>::id
PUBLIC	??_C@_0BI@CFPLBAOH@invalid?5string?5position?$AA@ ; `string'
PUBLIC	??_C@_0BA@JFNIOLAK@string?5too?5long?$AA@	; `string'
PUBLIC	??_R4error_category@std@@6B@			; std::error_category::`RTTI Complete Object Locator'
PUBLIC	??_R0?AVerror_category@std@@@8			; std::error_category `RTTI Type Descriptor'
PUBLIC	??_R3error_category@std@@8			; std::error_category::`RTTI Class Hierarchy Descriptor'
PUBLIC	??_R2error_category@std@@8			; std::error_category::`RTTI Base Class Array'
PUBLIC	??_R1A@?0A@EA@error_category@std@@8		; std::error_category::`RTTI Base Class Descriptor at (0,-1,0,64)'
PUBLIC	??_R4_Generic_error_category@std@@6B@		; std::_Generic_error_category::`RTTI Complete Object Locator'
PUBLIC	??_R0?AV_Generic_error_category@std@@@8		; std::_Generic_error_category `RTTI Type Descriptor'
PUBLIC	??_R3_Generic_error_category@std@@8		; std::_Generic_error_category::`RTTI Class Hierarchy Descriptor'
PUBLIC	??_R2_Generic_error_category@std@@8		; std::_Generic_error_category::`RTTI Base Class Array'
PUBLIC	??_R1A@?0A@EA@_Generic_error_category@std@@8	; std::_Generic_error_category::`RTTI Base Class Descriptor at (0,-1,0,64)'
PUBLIC	??_R4_Iostream_error_category@std@@6B@		; std::_Iostream_error_category::`RTTI Complete Object Locator'
PUBLIC	??_R0?AV_Iostream_error_category@std@@@8	; std::_Iostream_error_category `RTTI Type Descriptor'
PUBLIC	??_R3_Iostream_error_category@std@@8		; std::_Iostream_error_category::`RTTI Class Hierarchy Descriptor'
PUBLIC	??_R2_Iostream_error_category@std@@8		; std::_Iostream_error_category::`RTTI Base Class Array'
PUBLIC	??_R1A@?0A@EA@_Iostream_error_category@std@@8	; std::_Iostream_error_category::`RTTI Base Class Descriptor at (0,-1,0,64)'
PUBLIC	??_R4_System_error_category@std@@6B@		; std::_System_error_category::`RTTI Complete Object Locator'
PUBLIC	??_R0?AV_System_error_category@std@@@8		; std::_System_error_category `RTTI Type Descriptor'
PUBLIC	??_R3_System_error_category@std@@8		; std::_System_error_category::`RTTI Class Hierarchy Descriptor'
PUBLIC	??_R2_System_error_category@std@@8		; std::_System_error_category::`RTTI Base Class Array'
PUBLIC	??_R1A@?0A@EA@_System_error_category@std@@8	; std::_System_error_category::`RTTI Base Class Descriptor at (0,-1,0,64)'
PUBLIC	__real@00000000
PUBLIC	__real@0000000000000000
PUBLIC	__real@392c987a
PUBLIC	__real@3c0efa34
PUBLIC	__real@3c8efa34
PUBLIC	__real@3d8efa34
PUBLIC	__real@3db2b8c1
PUBLIC	__real@3dcccccd
PUBLIC	__real@3e32b8c1
PUBLIC	__real@3e800000
PUBLIC	__real@3e860a91
PUBLIC	__real@3eb2b8c1
PUBLIC	__real@3f000000
PUBLIC	__real@3f060a91
PUBLIC	__real@3f1c61a9
PUBLIC	__real@3f32b8c1
PUBLIC	__real@3f333333
PUBLIC	__real@3f490fd9
PUBLIC	__real@3f4ccccd
PUBLIC	__real@3f666666
PUBLIC	__real@3f800000
PUBLIC	__real@3f860a91
PUBLIC	__real@3fa66666
PUBLIC	__real@3fa78d35
PUBLIC	__real@3fc00000
PUBLIC	__real@3fc90fd9
PUBLIC	__real@3fd80b03
PUBLIC	__real@3ff921fb54442d18
PUBLIC	__real@40000000
PUBLIC	__real@400921fb54442d18
PUBLIC	__real@40400000
PUBLIC	__real@40833333
PUBLIC	__real@40a00000
PUBLIC	__real@40c00000
PUBLIC	__real@40f00000
PUBLIC	__real@41200000
PUBLIC	__real@42480000
PUBLIC	__real@42652ee1
PUBLIC	__real@42700000
PUBLIC	__real@42c80000
PUBLIC	__real@43160000
PUBLIC	__real@437a0000
PUBLIC	__real@43fa0000
PUBLIC	__real@4417e7c0
PUBLIC	__real@447a0000
PUBLIC	__real@4497e7c0
PUBLIC	__real@44bb8000
PUBLIC	__real@44fa0000
PUBLIC	__real@45bb8000
PUBLIC	__real@45bde1b0
PUBLIC	__real@45e3dba1
PUBLIC	__real@463de1b0
PUBLIC	__real@466d5a1c
PUBLIC	__real@468e6944
PUBLIC	__real@46a6257a
PUBLIC	__real@46ed5a1c
PUBLIC	__real@4704d000
PUBLIC	__real@473de1b0
PUBLIC	__real@47927c00
PUBLIC	__real@4f5c0ff8
PUBLIC	__real@50abec7b
PUBLIC	__real@8000000000000000
PUBLIC	__real@bc8efa34
PUBLIC	__real@bdb2b8c1
PUBLIC	__real@be32b8c1
PUBLIC	__real@bf060a91
PUBLIC	__real@bf32b8c1
PUBLIC	__real@bf333333
PUBLIC	__real@bf800000
PUBLIC	__real@bf860a91
PUBLIC	__real@bff921fb54442d18
PUBLIC	__real@c2c80000
PUBLIC	__real@c3160000
PUBLIC	__real@c37a0000
PUBLIC	__real@c3c80000
PUBLIC	__real@c3fa0000
PUBLIC	__real@c47a0000
PUBLIC	__real@c4bb8000
PUBLIC	__xmm@80000000800000008000000080000000
EXTRN	__purecall:PROC
EXTRN	??2@YAPAXI@Z:PROC				; operator new
EXTRN	??3@YAXPAX@Z:PROC				; operator delete
EXTRN	_atexit:PROC
EXTRN	_fflush:PROC
EXTRN	_fprintf:PROC
EXTRN	_acos:PROC
EXTRN	_atan:PROC
EXTRN	_fabs:PROC
EXTRN	_rand:PROC
EXTRN	_memcpy:PROC
EXTRN	_strlen:PROC
EXTRN	_memmove:PROC
EXTRN	_MonoPrint:PROC
EXTRN	?_Xbad_alloc@std@@YAXXZ:PROC			; std::_Xbad_alloc
EXTRN	?_Xlength_error@std@@YAXPBD@Z:PROC		; std::_Xlength_error
EXTRN	?_Xout_of_range@std@@YAXPBD@Z:PROC		; std::_Xout_of_range
EXTRN	?Find@VuDatabase@@QBEPAVVuEntity@@VVU_ID@@@Z:PROC ; VuDatabase::Find
EXTRN	??0VuGridIterator@@QAE@PAVVuGridTree@@MMM@Z:PROC ; VuGridIterator::VuGridIterator
EXTRN	?GetFirst@VuGridIterator@@QAEPAVVuEntity@@XZ:PROC ; VuGridIterator::GetFirst
EXTRN	?GetNext@VuGridIterator@@QAEPAVVuEntity@@XZ:PROC ; VuGridIterator::GetNext
EXTRN	?TargetAzEl@@YAXPAVFalconEntity@@MMMAAM1@Z:PROC	; TargetAzEl
EXTRN	?CalcRelGeom@@YAXPAVSimBaseClass@@PAVSimObjectType@@QAY02MM@Z:PROC ; CalcRelGeom
EXTRN	?GetLocation@WayPointClass@@QBEXPAM00@Z:PROC	; WayPointClass::GetLocation
EXTRN	?SelectNextWaypoint@DigitalBrain@@IAEXXZ:PROC	; DigitalBrain::SelectNextWaypoint
EXTRN	?GetWaypointIndex@DigitalBrain@@IAEHXZ:PROC	; DigitalBrain::GetWaypointIndex
EXTRN	?GetTargetWPIndex@DigitalBrain@@IAEHXZ:PROC	; DigitalBrain::GetTargetWPIndex
EXTRN	?SimpleTrackSpeed@DigitalBrain@@IAEMM@Z:PROC	; DigitalBrain::SimpleTrackSpeed
EXTRN	?TrackPoint@DigitalBrain@@IAEMMM@Z:PROC		; DigitalBrain::TrackPoint
EXTRN	?SetTrackPoint@DigitalBrain@@QAEXPAVSimObjectType@@@Z:PROC ; DigitalBrain::SetTrackPoint
EXTRN	?AiRunTargetSelection@DigitalBrain@@AAEXXZ:PROC	; DigitalBrain::AiRunTargetSelection
EXTRN	?AiRejoin@DigitalBrain@@AAEXPAVFalconWingmanMsg@@W4AiHint@1@@Z:PROC ; DigitalBrain::AiRejoin
EXTRN	?FindSimGroundTarget@DigitalBrain@@AAEPAVSimBaseClass@@PAVCampBaseClass@@HH@Z:PROC ; DigitalBrain::FindSimGroundTarget
EXTRN	?FindSensor@@YAPAVSensorClass@@PAVSimMoverClass@@H@Z:PROC ; FindSensor
EXTRN	?GetWeaponId@SimWeaponClass@@QAEFXZ:PROC	; SimWeaponClass::GetWeaponId
EXTRN	?GetTheBomb@FireControlComputer@@QAEPAVBombClass@@XZ:PROC ; FireControlComputer::GetTheBomb
EXTRN	?SetMasterMode@FireControlComputer@@QAEXW4FCCMasterMode@1@@Z:PROC ; FireControlComputer::SetMasterMode
EXTRN	?SetSubMode@FireControlComputer@@QAEXW4FCCSubMode@1@@Z:PROC ; FireControlComputer::SetSubMode
EXTRN	?SetTarget@FireControlComputer@@QAEXPAVSimObjectType@@@Z:PROC ; FireControlComputer::SetTarget
EXTRN	?SetWeaponType@SMSClass@@QAEXW4WeaponType@@@Z:PROC ; SMSClass::SetWeaponType
EXTRN	?FindWeaponClass@SMSClass@@QAEHW4WeaponClass@@H@Z:PROC ; SMSClass::FindWeaponClass
EXTRN	??_Eerror_category@std@@UAEPAXI@Z:PROC		; std::error_category::`vector deleting destructor'
EXTRN	?_Syserror_map@std@@YAPBDH@Z:PROC		; std::_Syserror_map
EXTRN	?_Winerror_map@std@@YAPBDH@Z:PROC		; std::_Winerror_map
EXTRN	??_E_Generic_error_category@std@@UAEPAXI@Z:PROC	; std::_Generic_error_category::`vector deleting destructor'
EXTRN	??_E_Iostream_error_category@std@@UAEPAXI@Z:PROC ; std::_Iostream_error_category::`vector deleting destructor'
EXTRN	??_E_System_error_category@std@@UAEPAXI@Z:PROC	; std::_System_error_category::`vector deleting destructor'
EXTRN	?GetGroundLevel@OTWDriverClass@@QAEMMMPAUTpoint@@@Z:PROC ; OTWDriverClass::GetGroundLevel
EXTRN	?DropProgramed@AircraftClass@@QAEXXZ:PROC	; AircraftClass::DropProgramed
EXTRN	?GetA2GJDAMAlt@AircraftClass@@QAEMXZ:PROC	; AircraftClass::GetA2GJDAMAlt
EXTRN	?GetA2GJSOWAlt@AircraftClass@@QAEMXZ:PROC	; AircraftClass::GetA2GJSOWAlt
EXTRN	?GetA2GHarmAlt@AircraftClass@@QAEMXZ:PROC	; AircraftClass::GetA2GHarmAlt
EXTRN	?GetA2GAGMAlt@AircraftClass@@QAEMXZ:PROC	; AircraftClass::GetA2GAGMAlt
EXTRN	?GetA2GGBUAlt@AircraftClass@@QAEMXZ:PROC	; AircraftClass::GetA2GGBUAlt
EXTRN	?GetA2GClusterAlt@AircraftClass@@QAEMXZ:PROC	; AircraftClass::GetA2GClusterAlt
EXTRN	?GetA2GDumbLDAlt@AircraftClass@@QAEMXZ:PROC	; AircraftClass::GetA2GDumbLDAlt
EXTRN	?GetA2GGenericBombAlt@AircraftClass@@QAEMXZ:PROC ; AircraftClass::GetA2GGenericBombAlt
EXTRN	?GetA2GGunRocketAlt@AircraftClass@@QAEMXZ:PROC	; AircraftClass::GetA2GGunRocketAlt
EXTRN	?GetA2GCameraAlt@AircraftClass@@QAEMXZ:PROC	; AircraftClass::GetA2GCameraAlt
EXTRN	?RunSeeker@MissileClass@@QAEXXZ:PROC		; MissileClass::RunSeeker
EXTRN	?GetRMax@MissileClass@@QAEMMMMMM@Z:PROC		; MissileClass::GetRMax
EXTRN	?GetComponentEntity@CampBaseClass@@QAEPAVSimBaseClass@@H@Z:PROC ; CampBaseClass::GetComponentEntity
EXTRN	?NumberOfComponents@CampBaseClass@@QAEHXZ:PROC	; CampBaseClass::NumberOfComponents
EXTRN	?GetVehicleClassData@@YAPAUVehicleClassDataType@@H@Z:PROC ; GetVehicleClassData
EXTRN	?GetOverrideWP@FlightClass@@QAEPAVWayPointClass@@XZ:PROC ; FlightClass::GetOverrideWP
EXTRN	??0SimObjectType@@QAE@PAVFalconEntity@@@Z:PROC	; SimObjectType::SimObjectType
EXTRN	?Reference@SimObjectType@@QAEXXZ:PROC		; SimObjectType::Reference
EXTRN	?Release@SimObjectType@@QAEXXZ:PROC		; SimObjectType::Release
EXTRN	?AiMakeRadioResponse@@YAXPAVSimBaseClass@@HPAF@Z:PROC ; AiMakeRadioResponse
EXTRN	?AiSendCommand@@YAXPAVSimBaseClass@@HHVVU_ID@@@Z:PROC ; AiSendCommand
EXTRN	?FindLaserPod@@YAPAVSensorClass@@PAVSimMoverClass@@@Z:PROC ; FindLaserPod
EXTRN	@__security_check_cookie@4:PROC
EXTRN	__CxxThrowException@8:PROC
EXTRN	___CxxFrameHandler3:PROC
EXTRN	?vuDatabase@@3PAVVuDatabase@@A:DWORD		; vuDatabase
EXTRN	?FalconNullId@@3VVU_ID@@A:QWORD			; FalconNullId
EXTRN	?SimLibMajorFrameTime@@3MA:DWORD		; SimLibMajorFrameTime
EXTRN	?SimLibElapsedTime@@3KA:DWORD			; SimLibElapsedTime
EXTRN	??_7type_info@@6B@:QWORD			; type_info::`vftable'
EXTRN	?WeaponDataTable@@3PAUWeaponClassDataType@@A:DWORD ; WeaponDataTable
EXTRN	?OTWDriver@@3VOTWDriverClass@@A:BYTE		; OTWDriver
EXTRN	?RealUnitProxList@@3PAVVuGridTree@@A:DWORD	; RealUnitProxList
EXTRN	?TeamInfo@@3PAPAVTeamClass@@A:BYTE		; TeamInfo
EXTRN	?RadarDataTable@@3PAURadarDataType@@A:DWORD	; RadarDataTable
EXTRN	?g_nSeadAttackTime@@3HA:DWORD			; g_nSeadAttackTime
EXTRN	?g_nStrikeAttackTime@@3HA:DWORD			; g_nStrikeAttackTime
EXTRN	?g_nGroundAttackTime@@3HA:DWORD			; g_nGroundAttackTime
EXTRN	?g_nCASAttackTime@@3HA:DWORD			; g_nCASAttackTime
EXTRN	?g_fAIHarmMaxRange@@3MA:DWORD			; g_fAIHarmMaxRange
EXTRN	?g_fAIJSOWMaxRange@@3MA:DWORD			; g_fAIJSOWMaxRange
EXTRN	?g_nAIshootLookShootTime@@3HA:DWORD		; g_nAIshootLookShootTime
EXTRN	?g_fAGFlyoutRange@@3MA:DWORD			; g_fAGFlyoutRange
EXTRN	?g_fAGSlowFlyoutRange@@3MA:DWORD		; g_fAGSlowFlyoutRange
EXTRN	?g_fRocketPitchFactor@@3MA:DWORD		; g_fRocketPitchFactor
EXTRN	?g_fRocketPitchCorr@@3MA:DWORD			; g_fRocketPitchCorr
EXTRN	___security_cookie:DWORD
EXTRN	__fltused:DWORD
_BSS	SEGMENT
_piecewise_construct DB 01H DUP (?)
	ALIGN	4

_allocator_arg DB 01H DUP (?)
_BSS	ENDS
;	COMDAT ?_Generic_object@?$_Error_objects@H@std@@2V_Generic_error_category@2@A
_BSS	SEGMENT
?_Generic_object@?$_Error_objects@H@std@@2V_Generic_error_category@2@A DD 01H DUP (?) ; std::_Error_objects<int>::_Generic_object
_BSS	ENDS
;	COMDAT ?_Iostream_object@?$_Error_objects@H@std@@2V_Iostream_error_category@2@A
_BSS	SEGMENT
?_Iostream_object@?$_Error_objects@H@std@@2V_Iostream_error_category@2@A DD 01H DUP (?) ; std::_Error_objects<int>::_Iostream_object
_BSS	ENDS
;	COMDAT ?_System_object@?$_Error_objects@H@std@@2V_System_error_category@2@A
_BSS	SEGMENT
?_System_object@?$_Error_objects@H@std@@2V_System_error_category@2@A DD 01H DUP (?) ; std::_Error_objects<int>::_System_object
_BSS	ENDS
;	COMDAT ?id@?$num_put@DV?$back_insert_iterator@V?$basic_string@DU?$char_traits@D@std@@V?$allocator@D@2@@std@@@std@@@std@@2V0locale@2@A
_BSS	SEGMENT
?id@?$num_put@DV?$back_insert_iterator@V?$basic_string@DU?$char_traits@D@std@@V?$allocator@D@2@@std@@@std@@@std@@2V0locale@2@A DD 01H DUP (?) ; std::num_put<char,std::back_insert_iterator<std::basic_string<char,std::char_traits<char>,std::allocator<char> > > >::id
_BSS	ENDS
;	COMDAT ?id@?$num_put@_WV?$back_insert_iterator@V?$basic_string@_WU?$char_traits@_W@std@@V?$allocator@_W@2@@std@@@std@@@std@@2V0locale@2@A
_BSS	SEGMENT
?id@?$num_put@_WV?$back_insert_iterator@V?$basic_string@_WU?$char_traits@_W@std@@V?$allocator@_W@2@@std@@@std@@@std@@2V0locale@2@A DD 01H DUP (?) ; std::num_put<wchar_t,std::back_insert_iterator<std::basic_string<wchar_t,std::char_traits<wchar_t>,std::allocator<wchar_t> > > >::id
_BSS	ENDS
;	COMDAT ?fp@?1??FireRocket@DigitalBrain@@IAEHMM@Z@4PAU_iobuf@@A
_BSS	SEGMENT
?fp@?1??FireRocket@DigitalBrain@@IAEHMM@Z@4PAU_iobuf@@A DD 01H DUP (?) ; `DigitalBrain::FireRocket'::`2'::fp
_BSS	ENDS
;	COMDAT ?id@?$numpunct@D@std@@2V0locale@2@A
_BSS	SEGMENT
?id@?$numpunct@D@std@@2V0locale@2@A DD 01H DUP (?)	; std::numpunct<char>::id
_BSS	ENDS
;	COMDAT ?id@?$numpunct@_W@std@@2V0locale@2@A
_BSS	SEGMENT
?id@?$numpunct@_W@std@@2V0locale@2@A DD 01H DUP (?)	; std::numpunct<wchar_t>::id
_BSS	ENDS
CRT$XCU	SEGMENT
_piecewise_construct$initializer$ DD FLAT:??__Epiecewise_construct@std@@YAXXZ
CRT$XCU	ENDS
;	COMDAT __xmm@80000000800000008000000080000000
CONST	SEGMENT
__xmm@80000000800000008000000080000000 DB 00H, 00H, 00H, 080H, 00H, 00H, 00H
	DB	080H, 00H, 00H, 00H, 080H, 00H, 00H, 00H, 080H
CONST	ENDS
;	COMDAT __real@c4bb8000
CONST	SEGMENT
__real@c4bb8000 DD 0c4bb8000r			; -1500
CONST	ENDS
;	COMDAT __real@c47a0000
CONST	SEGMENT
__real@c47a0000 DD 0c47a0000r			; -1000
CONST	ENDS
;	COMDAT __real@c3fa0000
CONST	SEGMENT
__real@c3fa0000 DD 0c3fa0000r			; -500
CONST	ENDS
;	COMDAT __real@c3c80000
CONST	SEGMENT
__real@c3c80000 DD 0c3c80000r			; -400
CONST	ENDS
;	COMDAT __real@c37a0000
CONST	SEGMENT
__real@c37a0000 DD 0c37a0000r			; -250
CONST	ENDS
;	COMDAT __real@c3160000
CONST	SEGMENT
__real@c3160000 DD 0c3160000r			; -150
CONST	ENDS
;	COMDAT __real@c2c80000
CONST	SEGMENT
__real@c2c80000 DD 0c2c80000r			; -100
CONST	ENDS
;	COMDAT __real@bff921fb54442d18
CONST	SEGMENT
__real@bff921fb54442d18 DQ 0bff921fb54442d18r	; -1.5708
CONST	ENDS
;	COMDAT __real@bf860a91
CONST	SEGMENT
__real@bf860a91 DD 0bf860a91r			; -1.0472
CONST	ENDS
;	COMDAT __real@bf800000
CONST	SEGMENT
__real@bf800000 DD 0bf800000r			; -1
CONST	ENDS
;	COMDAT __real@bf333333
CONST	SEGMENT
__real@bf333333 DD 0bf333333r			; -0.7
CONST	ENDS
;	COMDAT __real@bf32b8c1
CONST	SEGMENT
__real@bf32b8c1 DD 0bf32b8c1r			; -0.698132
CONST	ENDS
;	COMDAT __real@bf060a91
CONST	SEGMENT
__real@bf060a91 DD 0bf060a91r			; -0.523599
CONST	ENDS
;	COMDAT __real@be32b8c1
CONST	SEGMENT
__real@be32b8c1 DD 0be32b8c1r			; -0.174533
CONST	ENDS
;	COMDAT __real@bdb2b8c1
CONST	SEGMENT
__real@bdb2b8c1 DD 0bdb2b8c1r			; -0.0872665
CONST	ENDS
;	COMDAT __real@bc8efa34
CONST	SEGMENT
__real@bc8efa34 DD 0bc8efa34r			; -0.0174533
CONST	ENDS
;	COMDAT __real@8000000000000000
CONST	SEGMENT
__real@8000000000000000 DQ 08000000000000000r	; -0
CONST	ENDS
;	COMDAT __real@50abec7b
CONST	SEGMENT
__real@50abec7b DD 050abec7br			; 2.30752e+010
CONST	ENDS
;	COMDAT __real@4f5c0ff8
CONST	SEGMENT
__real@4f5c0ff8 DD 04f5c0ff8r			; 3.69203e+009
CONST	ENDS
;	COMDAT __real@47927c00
CONST	SEGMENT
__real@47927c00 DD 047927c00r			; 75000
CONST	ENDS
;	COMDAT __real@473de1b0
CONST	SEGMENT
__real@473de1b0 DD 0473de1b0r			; 48609.7
CONST	ENDS
;	COMDAT __real@4704d000
CONST	SEGMENT
__real@4704d000 DD 04704d000r			; 34000
CONST	ENDS
;	COMDAT __real@46ed5a1c
CONST	SEGMENT
__real@46ed5a1c DD 046ed5a1cr			; 30381.1
CONST	ENDS
;	COMDAT __real@46a6257a
CONST	SEGMENT
__real@46a6257a DD 046a6257ar			; 21266.7
CONST	ENDS
;	COMDAT __real@468e6944
CONST	SEGMENT
__real@468e6944 DD 0468e6944r			; 18228.6
CONST	ENDS
;	COMDAT __real@466d5a1c
CONST	SEGMENT
__real@466d5a1c DD 0466d5a1cr			; 15190.5
CONST	ENDS
;	COMDAT __real@463de1b0
CONST	SEGMENT
__real@463de1b0 DD 0463de1b0r			; 12152.4
CONST	ENDS
;	COMDAT __real@45e3dba1
CONST	SEGMENT
__real@45e3dba1 DD 045e3dba1r			; 7291.45
CONST	ENDS
;	COMDAT __real@45bde1b0
CONST	SEGMENT
__real@45bde1b0 DD 045bde1b0r			; 6076.21
CONST	ENDS
;	COMDAT __real@45bb8000
CONST	SEGMENT
__real@45bb8000 DD 045bb8000r			; 6000
CONST	ENDS
;	COMDAT __real@44fa0000
CONST	SEGMENT
__real@44fa0000 DD 044fa0000r			; 2000
CONST	ENDS
;	COMDAT __real@44bb8000
CONST	SEGMENT
__real@44bb8000 DD 044bb8000r			; 1500
CONST	ENDS
;	COMDAT __real@4497e7c0
CONST	SEGMENT
__real@4497e7c0 DD 04497e7c0r			; 1215.24
CONST	ENDS
;	COMDAT __real@447a0000
CONST	SEGMENT
__real@447a0000 DD 0447a0000r			; 1000
CONST	ENDS
;	COMDAT __real@4417e7c0
CONST	SEGMENT
__real@4417e7c0 DD 04417e7c0r			; 607.621
CONST	ENDS
;	COMDAT __real@43fa0000
CONST	SEGMENT
__real@43fa0000 DD 043fa0000r			; 500
CONST	ENDS
;	COMDAT __real@437a0000
CONST	SEGMENT
__real@437a0000 DD 0437a0000r			; 250
CONST	ENDS
;	COMDAT __real@43160000
CONST	SEGMENT
__real@43160000 DD 043160000r			; 150
CONST	ENDS
;	COMDAT __real@42c80000
CONST	SEGMENT
__real@42c80000 DD 042c80000r			; 100
CONST	ENDS
;	COMDAT __real@42700000
CONST	SEGMENT
__real@42700000 DD 042700000r			; 60
CONST	ENDS
;	COMDAT __real@42652ee1
CONST	SEGMENT
__real@42652ee1 DD 042652ee1r			; 57.2958
CONST	ENDS
;	COMDAT __real@42480000
CONST	SEGMENT
__real@42480000 DD 042480000r			; 50
CONST	ENDS
;	COMDAT __real@41200000
CONST	SEGMENT
__real@41200000 DD 041200000r			; 10
CONST	ENDS
;	COMDAT __real@40f00000
CONST	SEGMENT
__real@40f00000 DD 040f00000r			; 7.5
CONST	ENDS
;	COMDAT __real@40c00000
CONST	SEGMENT
__real@40c00000 DD 040c00000r			; 6
CONST	ENDS
;	COMDAT __real@40a00000
CONST	SEGMENT
__real@40a00000 DD 040a00000r			; 5
CONST	ENDS
;	COMDAT __real@40833333
CONST	SEGMENT
__real@40833333 DD 040833333r			; 4.1
CONST	ENDS
;	COMDAT __real@40400000
CONST	SEGMENT
__real@40400000 DD 040400000r			; 3
CONST	ENDS
;	COMDAT __real@400921fb54442d18
CONST	SEGMENT
__real@400921fb54442d18 DQ 0400921fb54442d18r	; 3.14159
CONST	ENDS
;	COMDAT __real@40000000
CONST	SEGMENT
__real@40000000 DD 040000000r			; 2
CONST	ENDS
;	COMDAT __real@3ff921fb54442d18
CONST	SEGMENT
__real@3ff921fb54442d18 DQ 03ff921fb54442d18r	; 1.5708
CONST	ENDS
;	COMDAT __real@3fd80b03
CONST	SEGMENT
__real@3fd80b03 DD 03fd80b03r			; 1.68784
CONST	ENDS
;	COMDAT __real@3fc90fd9
CONST	SEGMENT
__real@3fc90fd9 DD 03fc90fd9r			; 1.5708
CONST	ENDS
;	COMDAT __real@3fc00000
CONST	SEGMENT
__real@3fc00000 DD 03fc00000r			; 1.5
CONST	ENDS
;	COMDAT __real@3fa78d35
CONST	SEGMENT
__real@3fa78d35 DD 03fa78d35r			; 1.309
CONST	ENDS
;	COMDAT __real@3fa66666
CONST	SEGMENT
__real@3fa66666 DD 03fa66666r			; 1.3
CONST	ENDS
;	COMDAT __real@3f860a91
CONST	SEGMENT
__real@3f860a91 DD 03f860a91r			; 1.0472
CONST	ENDS
;	COMDAT __real@3f800000
CONST	SEGMENT
__real@3f800000 DD 03f800000r			; 1
CONST	ENDS
;	COMDAT __real@3f666666
CONST	SEGMENT
__real@3f666666 DD 03f666666r			; 0.9
CONST	ENDS
;	COMDAT __real@3f4ccccd
CONST	SEGMENT
__real@3f4ccccd DD 03f4ccccdr			; 0.8
CONST	ENDS
;	COMDAT __real@3f490fd9
CONST	SEGMENT
__real@3f490fd9 DD 03f490fd9r			; 0.785398
CONST	ENDS
;	COMDAT __real@3f333333
CONST	SEGMENT
__real@3f333333 DD 03f333333r			; 0.7
CONST	ENDS
;	COMDAT __real@3f32b8c1
CONST	SEGMENT
__real@3f32b8c1 DD 03f32b8c1r			; 0.698132
CONST	ENDS
;	COMDAT __real@3f1c61a9
CONST	SEGMENT
__real@3f1c61a9 DD 03f1c61a9r			; 0.610865
CONST	ENDS
;	COMDAT __real@3f060a91
CONST	SEGMENT
__real@3f060a91 DD 03f060a91r			; 0.523599
CONST	ENDS
;	COMDAT __real@3f000000
CONST	SEGMENT
__real@3f000000 DD 03f000000r			; 0.5
CONST	ENDS
;	COMDAT __real@3eb2b8c1
CONST	SEGMENT
__real@3eb2b8c1 DD 03eb2b8c1r			; 0.349066
CONST	ENDS
;	COMDAT __real@3e860a91
CONST	SEGMENT
__real@3e860a91 DD 03e860a91r			; 0.261799
CONST	ENDS
;	COMDAT __real@3e800000
CONST	SEGMENT
__real@3e800000 DD 03e800000r			; 0.25
CONST	ENDS
;	COMDAT __real@3e32b8c1
CONST	SEGMENT
__real@3e32b8c1 DD 03e32b8c1r			; 0.174533
CONST	ENDS
;	COMDAT __real@3dcccccd
CONST	SEGMENT
__real@3dcccccd DD 03dcccccdr			; 0.1
CONST	ENDS
;	COMDAT __real@3db2b8c1
CONST	SEGMENT
__real@3db2b8c1 DD 03db2b8c1r			; 0.0872665
CONST	ENDS
;	COMDAT __real@3d8efa34
CONST	SEGMENT
__real@3d8efa34 DD 03d8efa34r			; 0.0698132
CONST	ENDS
;	COMDAT __real@3c8efa34
CONST	SEGMENT
__real@3c8efa34 DD 03c8efa34r			; 0.0174533
CONST	ENDS
;	COMDAT __real@3c0efa34
CONST	SEGMENT
__real@3c0efa34 DD 03c0efa34r			; 0.00872665
CONST	ENDS
;	COMDAT __real@392c987a
CONST	SEGMENT
__real@392c987a DD 0392c987ar			; 0.0001646
CONST	ENDS
;	COMDAT __real@0000000000000000
CONST	SEGMENT
__real@0000000000000000 DQ 00000000000000000r	; 0
CONST	ENDS
;	COMDAT __real@00000000
CONST	SEGMENT
__real@00000000 DD 000000000r			; 0
CONST	ENDS
;	COMDAT ??_R1A@?0A@EA@_System_error_category@std@@8
rdata$r	SEGMENT
??_R1A@?0A@EA@_System_error_category@std@@8 DD FLAT:??_R0?AV_System_error_category@std@@@8 ; std::_System_error_category::`RTTI Base Class Descriptor at (0,-1,0,64)'
	DD	02H
	DD	00H
	DD	0ffffffffH
	DD	00H
	DD	040H
	DD	FLAT:??_R3_System_error_category@std@@8
rdata$r	ENDS
;	COMDAT ??_R2_System_error_category@std@@8
rdata$r	SEGMENT
??_R2_System_error_category@std@@8 DD FLAT:??_R1A@?0A@EA@_System_error_category@std@@8 ; std::_System_error_category::`RTTI Base Class Array'
	DD	FLAT:??_R1A@?0A@EA@_Generic_error_category@std@@8
	DD	FLAT:??_R1A@?0A@EA@error_category@std@@8
rdata$r	ENDS
;	COMDAT ??_R3_System_error_category@std@@8
rdata$r	SEGMENT
??_R3_System_error_category@std@@8 DD 00H		; std::_System_error_category::`RTTI Class Hierarchy Descriptor'
	DD	00H
	DD	03H
	DD	FLAT:??_R2_System_error_category@std@@8
rdata$r	ENDS
;	COMDAT ??_R0?AV_System_error_category@std@@@8
_DATA	SEGMENT
??_R0?AV_System_error_category@std@@@8 DD FLAT:??_7type_info@@6B@ ; std::_System_error_category `RTTI Type Descriptor'
	DD	00H
	DB	'.?AV_System_error_category@std@@', 00H
_DATA	ENDS
;	COMDAT ??_R4_System_error_category@std@@6B@
rdata$r	SEGMENT
??_R4_System_error_category@std@@6B@ DD 00H		; std::_System_error_category::`RTTI Complete Object Locator'
	DD	00H
	DD	00H
	DD	FLAT:??_R0?AV_System_error_category@std@@@8
	DD	FLAT:??_R3_System_error_category@std@@8
rdata$r	ENDS
;	COMDAT ??_R1A@?0A@EA@_Iostream_error_category@std@@8
rdata$r	SEGMENT
??_R1A@?0A@EA@_Iostream_error_category@std@@8 DD FLAT:??_R0?AV_Iostream_error_category@std@@@8 ; std::_Iostream_error_category::`RTTI Base Class Descriptor at (0,-1,0,64)'
	DD	02H
	DD	00H
	DD	0ffffffffH
	DD	00H
	DD	040H
	DD	FLAT:??_R3_Iostream_error_category@std@@8
rdata$r	ENDS
;	COMDAT ??_R2_Iostream_error_category@std@@8
rdata$r	SEGMENT
??_R2_Iostream_error_category@std@@8 DD FLAT:??_R1A@?0A@EA@_Iostream_error_category@std@@8 ; std::_Iostream_error_category::`RTTI Base Class Array'
	DD	FLAT:??_R1A@?0A@EA@_Generic_error_category@std@@8
	DD	FLAT:??_R1A@?0A@EA@error_category@std@@8
rdata$r	ENDS
;	COMDAT ??_R3_Iostream_error_category@std@@8
rdata$r	SEGMENT
??_R3_Iostream_error_category@std@@8 DD 00H		; std::_Iostream_error_category::`RTTI Class Hierarchy Descriptor'
	DD	00H
	DD	03H
	DD	FLAT:??_R2_Iostream_error_category@std@@8
rdata$r	ENDS
;	COMDAT ??_R0?AV_Iostream_error_category@std@@@8
_DATA	SEGMENT
??_R0?AV_Iostream_error_category@std@@@8 DD FLAT:??_7type_info@@6B@ ; std::_Iostream_error_category `RTTI Type Descriptor'
	DD	00H
	DB	'.?AV_Iostream_error_category@std@@', 00H
_DATA	ENDS
;	COMDAT ??_R4_Iostream_error_category@std@@6B@
rdata$r	SEGMENT
??_R4_Iostream_error_category@std@@6B@ DD 00H		; std::_Iostream_error_category::`RTTI Complete Object Locator'
	DD	00H
	DD	00H
	DD	FLAT:??_R0?AV_Iostream_error_category@std@@@8
	DD	FLAT:??_R3_Iostream_error_category@std@@8
rdata$r	ENDS
;	COMDAT ??_R1A@?0A@EA@_Generic_error_category@std@@8
rdata$r	SEGMENT
??_R1A@?0A@EA@_Generic_error_category@std@@8 DD FLAT:??_R0?AV_Generic_error_category@std@@@8 ; std::_Generic_error_category::`RTTI Base Class Descriptor at (0,-1,0,64)'
	DD	01H
	DD	00H
	DD	0ffffffffH
	DD	00H
	DD	040H
	DD	FLAT:??_R3_Generic_error_category@std@@8
rdata$r	ENDS
;	COMDAT ??_R2_Generic_error_category@std@@8
rdata$r	SEGMENT
??_R2_Generic_error_category@std@@8 DD FLAT:??_R1A@?0A@EA@_Generic_error_category@std@@8 ; std::_Generic_error_category::`RTTI Base Class Array'
	DD	FLAT:??_R1A@?0A@EA@error_category@std@@8
rdata$r	ENDS
;	COMDAT ??_R3_Generic_error_category@std@@8
rdata$r	SEGMENT
??_R3_Generic_error_category@std@@8 DD 00H		; std::_Generic_error_category::`RTTI Class Hierarchy Descriptor'
	DD	00H
	DD	02H
	DD	FLAT:??_R2_Generic_error_category@std@@8
rdata$r	ENDS
;	COMDAT ??_R0?AV_Generic_error_category@std@@@8
_DATA	SEGMENT
??_R0?AV_Generic_error_category@std@@@8 DD FLAT:??_7type_info@@6B@ ; std::_Generic_error_category `RTTI Type Descriptor'
	DD	00H
	DB	'.?AV_Generic_error_category@std@@', 00H
_DATA	ENDS
;	COMDAT ??_R4_Generic_error_category@std@@6B@
rdata$r	SEGMENT
??_R4_Generic_error_category@std@@6B@ DD 00H		; std::_Generic_error_category::`RTTI Complete Object Locator'
	DD	00H
	DD	00H
	DD	FLAT:??_R0?AV_Generic_error_category@std@@@8
	DD	FLAT:??_R3_Generic_error_category@std@@8
rdata$r	ENDS
;	COMDAT ??_R1A@?0A@EA@error_category@std@@8
rdata$r	SEGMENT
??_R1A@?0A@EA@error_category@std@@8 DD FLAT:??_R0?AVerror_category@std@@@8 ; std::error_category::`RTTI Base Class Descriptor at (0,-1,0,64)'
	DD	00H
	DD	00H
	DD	0ffffffffH
	DD	00H
	DD	040H
	DD	FLAT:??_R3error_category@std@@8
rdata$r	ENDS
;	COMDAT ??_R2error_category@std@@8
rdata$r	SEGMENT
??_R2error_category@std@@8 DD FLAT:??_R1A@?0A@EA@error_category@std@@8 ; std::error_category::`RTTI Base Class Array'
rdata$r	ENDS
;	COMDAT ??_R3error_category@std@@8
rdata$r	SEGMENT
??_R3error_category@std@@8 DD 00H			; std::error_category::`RTTI Class Hierarchy Descriptor'
	DD	00H
	DD	01H
	DD	FLAT:??_R2error_category@std@@8
rdata$r	ENDS
;	COMDAT ??_R0?AVerror_category@std@@@8
_DATA	SEGMENT
??_R0?AVerror_category@std@@@8 DD FLAT:??_7type_info@@6B@ ; std::error_category `RTTI Type Descriptor'
	DD	00H
	DB	'.?AVerror_category@std@@', 00H
_DATA	ENDS
;	COMDAT ??_R4error_category@std@@6B@
rdata$r	SEGMENT
??_R4error_category@std@@6B@ DD 00H			; std::error_category::`RTTI Complete Object Locator'
	DD	00H
	DD	00H
	DD	FLAT:??_R0?AVerror_category@std@@@8
	DD	FLAT:??_R3error_category@std@@8
rdata$r	ENDS
;	COMDAT ??_C@_0BA@JFNIOLAK@string?5too?5long?$AA@
CONST	SEGMENT
??_C@_0BA@JFNIOLAK@string?5too?5long?$AA@ DB 'string too long', 00H ; `string'
CONST	ENDS
;	COMDAT ??_C@_0BI@CFPLBAOH@invalid?5string?5position?$AA@
CONST	SEGMENT
??_C@_0BI@CFPLBAOH@invalid?5string?5position?$AA@ DB 'invalid string posi'
	DB	'tion', 00H					; `string'
CONST	ENDS
;	COMDAT ??_C@_0M@JCNJJKHD@Rocket?9Fail?$AA@
CONST	SEGMENT
??_C@_0M@JCNJJKHD@Rocket?9Fail?$AA@ DB 'Rocket-Fail', 00H ; `string'
CONST	ENDS
;	COMDAT ??_C@_0CC@OEAEGKEN@?$CK?$CK?$CK?$CK?5Fire?5Missiles?5?$CK?$CK?$CK?$CK?5Angle?5?$CFf@
CONST	SEGMENT
??_C@_0CC@OEAEGKEN@?$CK?$CK?$CK?$CK?5Fire?5Missiles?5?$CK?$CK?$CK?$CK?5Angle?5?$CFf@ DB '*'
	DB	'*** Fire Missiles **** Angle %f', 0aH, 00H	; `string'
CONST	ENDS
;	COMDAT ??_C@_06MHHKCODM@Firing?$AA@
CONST	SEGMENT
??_C@_06MHHKCODM@Firing?$AA@ DB 'Firing', 00H		; `string'
CONST	ENDS
;	COMDAT ??_C@_0BN@OEJMGLIO@Roll?3?5Pipper?5To?5Tgt?5taz?3?5?$CFf?6?$AA@
CONST	SEGMENT
??_C@_0BN@OEJMGLIO@Roll?3?5Pipper?5To?5Tgt?5taz?3?5?$CFf?6?$AA@ DB 'Roll:'
	DB	' Pipper To Tgt taz: %f', 0aH, 00H		; `string'
CONST	ENDS
;	COMDAT ??_C@_0BI@PGBJGCL@Roll?3?5To?5Tgt?5Direction?6?$AA@
CONST	SEGMENT
??_C@_0BI@PGBJGCL@Roll?3?5To?5Tgt?5Direction?6?$AA@ DB 'Roll: To Tgt Dire'
	DB	'ction', 0aH, 00H				; `string'
CONST	ENDS
;	COMDAT ??_C@_0L@NKJBDNAB@Too?5Close?6?$AA@
CONST	SEGMENT
??_C@_0L@NKJBDNAB@Too?5Close?6?$AA@ DB 'Too Close', 0aH, 00H ; `string'
CONST	ENDS
;	COMDAT ??_C@_0HE@BDJBNFGF@?$CK?$CKME?$CK?$CK?5hdg?5?$CFf?5atel?5?$CFf?5pitch?5?$CFf?5t@
CONST	SEGMENT
??_C@_0HE@BDJBNFGF@?$CK?$CKME?$CK?$CK?5hdg?5?$CFf?5atel?5?$CFf?5pitch?5?$CFf?5t@ DB '*'
	DB	'*ME** hdg %f atel %f pitch %f tel %f  taz %f  dtaz %f  iel %f'
	DB	'  iaz %f  diaz %f  ang %f  Rng %f  rStk %f  pStk %f ', 0aH, 00H ; `string'
CONST	ENDS
;	COMDAT ??_C@_0BJ@BJNDFIH@Pitch?3?5To?5Attack?5Alt?5?$CFf?6?$AA@
CONST	SEGMENT
??_C@_0BJ@BJNDFIH@Pitch?3?5To?5Attack?5Alt?5?$CFf?6?$AA@ DB 'Pitch: To At'
	DB	'tack Alt %f', 0aH, 00H			; `string'
CONST	ENDS
;	COMDAT ??_C@_0BA@NAONBMMI@noSolution?5?$DN?5?$CFd?$AA@
CONST	SEGMENT
??_C@_0BA@NAONBMMI@noSolution?5?$DN?5?$CFd?$AA@ DB 'noSolution = %d', 00H ; `string'
CONST	ENDS
;	COMDAT ??_C@_0CB@JNHJEDCH@RocketFlyOut?5Alt?3?5?$CFf?5?5Range?3?5?$CFf?6@
CONST	SEGMENT
??_C@_0CB@JNHJEDCH@RocketFlyOut?5Alt?3?5?$CFf?5?5Range?3?5?$CFf?6@ DB 'Ro'
	DB	'cketFlyOut Alt: %f  Range: %f', 0aH, 00H	; `string'
CONST	ENDS
;	COMDAT ??_C@_0M@KMPJBFFN@RocketJink?6?$AA@
CONST	SEGMENT
??_C@_0M@KMPJBFFN@RocketJink?6?$AA@ DB 'RocketJink', 0aH, 00H ; `string'
CONST	ENDS
;	COMDAT ??_C@_0O@DIIALKLP@RocketFiring?6?$AA@
CONST	SEGMENT
??_C@_0O@DIIALKLP@RocketFiring?6?$AA@ DB 'RocketFiring', 0aH, 00H ; `string'
CONST	ENDS
;	COMDAT ??_C@_08BAMGLEEE@Too?5Low?6?$AA@
CONST	SEGMENT
??_C@_08BAMGLEEE@Too?5Low?6?$AA@ DB 'Too Low', 0aH, 00H	; `string'
CONST	ENDS
;	COMDAT ??_C@_0N@PEIHJIIA@Way?5Too?5Low?6?$AA@
CONST	SEGMENT
??_C@_0N@PEIHJIIA@Way?5Too?5Low?6?$AA@ DB 'Way Too Low', 0aH, 00H ; `string'
CONST	ENDS
;	COMDAT ?azRough@?7??FireRocket@DigitalBrain@@IAEHMM@Z@4MA
_DATA	SEGMENT
?azRough@?7??FireRocket@DigitalBrain@@IAEHMM@Z@4MA DD 03e32b8c1r ; 0.174533 ; `DigitalBrain::FireRocket'::`8'::azRough
_DATA	ENDS
;	COMDAT ??_C@_06FHFOAHML@system?$AA@
CONST	SEGMENT
??_C@_06FHFOAHML@system?$AA@ DB 'system', 00H		; `string'
CONST	ENDS
;	COMDAT ??_7_System_error_category@std@@6B@
CONST	SEGMENT
??_7_System_error_category@std@@6B@ DD FLAT:??_R4_System_error_category@std@@6B@ ; std::_System_error_category::`vftable'
	DD	FLAT:??_E_System_error_category@std@@UAEPAXI@Z
	DD	FLAT:?name@_System_error_category@std@@UBEPBDXZ
	DD	FLAT:?message@_System_error_category@std@@UBE?AV?$basic_string@DU?$char_traits@D@std@@V?$allocator@D@2@@2@H@Z
	DD	FLAT:?default_error_condition@_System_error_category@std@@UBE?AVerror_condition@2@H@Z
	DD	FLAT:?equivalent@error_category@std@@UBE_NABVerror_code@2@H@Z
	DD	FLAT:?equivalent@error_category@std@@UBE_NHABVerror_condition@2@@Z
CONST	ENDS
;	COMDAT ??_C@_0BG@PADBLCHM@iostream?5stream?5error?$AA@
CONST	SEGMENT
??_C@_0BG@PADBLCHM@iostream?5stream?5error?$AA@ DB 'iostream stream error'
	DB	00H						; `string'
CONST	ENDS
;	COMDAT ??_C@_08LLGCOLLL@iostream?$AA@
CONST	SEGMENT
??_C@_08LLGCOLLL@iostream?$AA@ DB 'iostream', 00H	; `string'
CONST	ENDS
;	COMDAT ??_7_Iostream_error_category@std@@6B@
CONST	SEGMENT
??_7_Iostream_error_category@std@@6B@ DD FLAT:??_R4_Iostream_error_category@std@@6B@ ; std::_Iostream_error_category::`vftable'
	DD	FLAT:??_E_Iostream_error_category@std@@UAEPAXI@Z
	DD	FLAT:?name@_Iostream_error_category@std@@UBEPBDXZ
	DD	FLAT:?message@_Iostream_error_category@std@@UBE?AV?$basic_string@DU?$char_traits@D@std@@V?$allocator@D@2@@2@H@Z
	DD	FLAT:?default_error_condition@error_category@std@@UBE?AVerror_condition@2@H@Z
	DD	FLAT:?equivalent@error_category@std@@UBE_NABVerror_code@2@H@Z
	DD	FLAT:?equivalent@error_category@std@@UBE_NHABVerror_condition@2@@Z
CONST	ENDS
;	COMDAT ??_C@_0O@BFJCFAAK@unknown?5error?$AA@
CONST	SEGMENT
??_C@_0O@BFJCFAAK@unknown?5error?$AA@ DB 'unknown error', 00H ; `string'
CONST	ENDS
;	COMDAT ??_C@_07DCLBNMLN@generic?$AA@
CONST	SEGMENT
??_C@_07DCLBNMLN@generic?$AA@ DB 'generic', 00H		; `string'
CONST	ENDS
;	COMDAT ??_7_Generic_error_category@std@@6B@
CONST	SEGMENT
??_7_Generic_error_category@std@@6B@ DD FLAT:??_R4_Generic_error_category@std@@6B@ ; std::_Generic_error_category::`vftable'
	DD	FLAT:??_E_Generic_error_category@std@@UAEPAXI@Z
	DD	FLAT:?name@_Generic_error_category@std@@UBEPBDXZ
	DD	FLAT:?message@_Generic_error_category@std@@UBE?AV?$basic_string@DU?$char_traits@D@std@@V?$allocator@D@2@@2@H@Z
	DD	FLAT:?default_error_condition@error_category@std@@UBE?AVerror_condition@2@H@Z
	DD	FLAT:?equivalent@error_category@std@@UBE_NABVerror_code@2@H@Z
	DD	FLAT:?equivalent@error_category@std@@UBE_NHABVerror_condition@2@@Z
CONST	ENDS
;	COMDAT ??_7error_category@std@@6B@
CONST	SEGMENT
??_7error_category@std@@6B@ DD FLAT:??_R4error_category@std@@6B@ ; std::error_category::`vftable'
	DD	FLAT:??_Eerror_category@std@@UAEPAXI@Z
	DD	FLAT:__purecall
	DD	FLAT:__purecall
	DD	FLAT:?default_error_condition@error_category@std@@UBE?AVerror_condition@2@H@Z
	DD	FLAT:?equivalent@error_category@std@@UBE_NABVerror_code@2@H@Z
	DD	FLAT:?equivalent@error_category@std@@UBE_NHABVerror_condition@2@@Z
CONST	ENDS
;	COMDAT xdata$x
xdata$x	SEGMENT
__unwindtable$??$construct@PADAAPAD@?$allocator@D@std@@QAEXPAPADAAPAD@Z DD 0ffffffffH
	DD	FLAT:__unwindfunclet$??$construct@PADAAPAD@?$allocator@D@std@@QAEXPAPADAAPAD@Z$0
__ehfuncinfo$??$construct@PADAAPAD@?$allocator@D@std@@QAEXPAPADAAPAD@Z DD 019930522H
	DD	01H
	DD	FLAT:__unwindtable$??$construct@PADAAPAD@?$allocator@D@std@@QAEXPAPADAAPAD@Z
	DD	2 DUP(00H)
	DD	2 DUP(00H)
	DD	00H
	DD	01H
xdata$x	ENDS
xdata$x	SEGMENT
__unwindtable$?SelectGroundTarget@DigitalBrain@@IAEXH@Z DD 0ffffffffH
	DD	FLAT:__unwindfunclet$?SelectGroundTarget@DigitalBrain@@IAEXH@Z$0
__unwindtable$?SetGroundTarget@DigitalBrain@@IAEXPAVFalconEntity@@@Z DD 0ffffffffH
	DD	FLAT:__unwindfunclet$?SetGroundTarget@DigitalBrain@@IAEXPAVFalconEntity@@@Z$0
__ehfuncinfo$?SelectGroundTarget@DigitalBrain@@IAEXH@Z DD 019930522H
	DD	01H
	DD	FLAT:__unwindtable$?SelectGroundTarget@DigitalBrain@@IAEXH@Z
	DD	2 DUP(00H)
	DD	2 DUP(00H)
	DD	00H
	DD	01H
__ehfuncinfo$?SetGroundTarget@DigitalBrain@@IAEXPAVFalconEntity@@@Z DD 019930522H
	DD	01H
	DD	FLAT:__unwindtable$?SetGroundTarget@DigitalBrain@@IAEXPAVFalconEntity@@@Z
	DD	2 DUP(00H)
	DD	2 DUP(00H)
	DD	00H
	DD	01H
xdata$x	ENDS
;	COMDAT xdata$x
xdata$x	SEGMENT
__catchsym$?_Copy@?$basic_string@DU?$char_traits@D@std@@V?$allocator@D@2@@std@@QAEXII@Z$5 DD 040H
	DD	00H
	DD	00H
	DD	FLAT:__catch$?_Copy@?$basic_string@DU?$char_traits@D@std@@V?$allocator@D@2@@std@@QAEXII@Z$0
__catchsym$?_Copy@?$basic_string@DU?$char_traits@D@std@@V?$allocator@D@2@@std@@QAEXII@Z$4 DD 040H
	DD	00H
	DD	00H
	DD	FLAT:__catch$?_Copy@?$basic_string@DU?$char_traits@D@std@@V?$allocator@D@2@@std@@QAEXII@Z$1
__unwindtable$?_Copy@?$basic_string@DU?$char_traits@D@std@@V?$allocator@D@2@@std@@QAEXII@Z DD 0ffffffffH
	DD	00H
	DD	0ffffffffH
	DD	00H
	DD	01H
	DD	00H
	DD	01H
	DD	00H
__ehfuncinfo$?_Copy@?$basic_string@DU?$char_traits@D@std@@V?$allocator@D@2@@std@@QAEXII@Z DD 019930522H
	DD	04H
	DD	FLAT:__unwindtable$?_Copy@?$basic_string@DU?$char_traits@D@std@@V?$allocator@D@2@@std@@QAEXII@Z
	DD	02H
	DD	FLAT:__tryblocktable$?_Copy@?$basic_string@DU?$char_traits@D@std@@V?$allocator@D@2@@std@@QAEXII@Z
	DD	2 DUP(00H)
	DD	00H
	DD	01H
__tryblocktable$?_Copy@?$basic_string@DU?$char_traits@D@std@@V?$allocator@D@2@@std@@QAEXII@Z DD 02H
	DD	02H
	DD	03H
	DD	01H
	DD	FLAT:__catchsym$?_Copy@?$basic_string@DU?$char_traits@D@std@@V?$allocator@D@2@@std@@QAEXII@Z$4
	DD	00H
	DD	00H
	DD	03H
	DD	01H
	DD	FLAT:__catchsym$?_Copy@?$basic_string@DU?$char_traits@D@std@@V?$allocator@D@2@@std@@QAEXII@Z$5
xdata$x	ENDS
CRT$XCU	SEGMENT
_allocator_arg$initializer$ DD FLAT:??__Eallocator_arg@std@@YAXXZ
CRT$XCU	ENDS
;	COMDAT CRT$XCU
CRT$XCU	SEGMENT
?_Generic_object$initializer$@?$_Error_objects@H@std@@2P6AXXZA DD FLAT:??__E?_Generic_object@?$_Error_objects@H@std@@2V_Generic_error_category@2@A@@YAXXZ ; std::_Error_objects<int>::_Generic_object$initializer$
CRT$XCU	ENDS
;	COMDAT CRT$XCU
CRT$XCU	SEGMENT
?_Iostream_object$initializer$@?$_Error_objects@H@std@@2P6AXXZA DD FLAT:??__E?_Iostream_object@?$_Error_objects@H@std@@2V_Iostream_error_category@2@A@@YAXXZ ; std::_Error_objects<int>::_Iostream_object$initializer$
CRT$XCU	ENDS
;	COMDAT CRT$XCU
CRT$XCU	SEGMENT
?_System_object$initializer$@?$_Error_objects@H@std@@2P6AXXZA DD FLAT:??__E?_System_object@?$_Error_objects@H@std@@2V_System_error_category@2@A@@YAXXZ ; std::_Error_objects<int>::_System_object$initializer$
CRT$XCU	ENDS
;	COMDAT CRT$XCU
CRT$XCU	SEGMENT
?id$initializer$@?$num_put@DV?$back_insert_iterator@V?$basic_string@DU?$char_traits@D@std@@V?$allocator@D@2@@std@@@std@@@std@@2P6AXXZA DD FLAT:??__E?id@?$num_put@DV?$back_insert_iterator@V?$basic_string@DU?$char_traits@D@std@@V?$allocator@D@2@@std@@@std@@@std@@2V0locale@2@A@@YAXXZ ; std::num_put<char,std::back_insert_iterator<std::basic_string<char,std::char_traits<char>,std::allocator<char> > > >::id$initializer$
CRT$XCU	ENDS
;	COMDAT CRT$XCU
CRT$XCU	SEGMENT
?id$initializer$@?$num_put@_WV?$back_insert_iterator@V?$basic_string@_WU?$char_traits@_W@std@@V?$allocator@_W@2@@std@@@std@@@std@@2P6AXXZA DD FLAT:??__E?id@?$num_put@_WV?$back_insert_iterator@V?$basic_string@_WU?$char_traits@_W@std@@V?$allocator@_W@2@@std@@@std@@@std@@2V0locale@2@A@@YAXXZ ; std::num_put<wchar_t,std::back_insert_iterator<std::basic_string<wchar_t,std::char_traits<wchar_t>,std::allocator<wchar_t> > > >::id$initializer$
CRT$XCU	ENDS
;	COMDAT CRT$XCU
CRT$XCU	SEGMENT
?id$initializer$@?$numpunct@D@std@@2P6AXXZA DD FLAT:??__E?id@?$numpunct@D@std@@2V0locale@2@A@@YAXXZ ; std::numpunct<char>::id$initializer$
CRT$XCU	ENDS
;	COMDAT CRT$XCU
CRT$XCU	SEGMENT
?id$initializer$@?$numpunct@_W@std@@2P6AXXZA DD FLAT:??__E?id@?$numpunct@_W@std@@2V0locale@2@A@@YAXXZ ; std::numpunct<wchar_t>::id$initializer$
CRT$XCU	ENDS
; Function compile flags: /Odtp
; File c:\program files (x86)\microsoft visual studio 11.0\vc\include\xmemory0
;	COMDAT ??$destroy@PAD@?$allocator@D@std@@QAEXPAPAD@Z
_TEXT	SEGMENT
_this$ = -4						; size = 4
__Ptr$ = 8						; size = 4
??$destroy@PAD@?$allocator@D@std@@QAEXPAPAD@Z PROC	; std::allocator<char>::destroy<char *>, COMDAT
; _this$ = ecx

; 621  : 		void destroy(_Uty *_Ptr)

	push	ebp
	mov	ebp, esp
	push	ecx
	mov	DWORD PTR _this$[ebp], ecx

; 622  : 		{	// destroy object at _Ptr
; 623  : 		_Ptr->~_Uty();
; 624  : 		}

	mov	esp, ebp
	pop	ebp
	ret	4
??$destroy@PAD@?$allocator@D@std@@QAEXPAPAD@Z ENDP	; std::allocator<char>::destroy<char *>
_TEXT	ENDS
; Function compile flags: /Odtp
; File c:\program files (x86)\microsoft visual studio 11.0\vc\include\xmemory0
;	COMDAT ??$construct@PADAAPAD@?$allocator@D@std@@QAEXPAPADAAPAD@Z
_TEXT	SEGMENT
$T2 = -28						; size = 4
_this$ = -24						; size = 4
tv73 = -20						; size = 4
$T3 = -16						; size = 4
__$EHRec$ = -12						; size = 12
__Ptr$ = 8						; size = 4
__V0$ = 12						; size = 4
??$construct@PADAAPAD@?$allocator@D@std@@QAEXPAPADAAPAD@Z PROC ; std::allocator<char>::construct<char *,char * &>, COMDAT
; _this$ = ecx

; 617  : _VARIADIC_EXPAND_0X(_ALLOC_MEMBER_CONSTRUCT, , , , )

	push	ebp
	mov	ebp, esp
	push	-1
	push	__ehhandler$??$construct@PADAAPAD@?$allocator@D@std@@QAEXPAPADAAPAD@Z
	mov	eax, DWORD PTR fs:0
	push	eax
	sub	esp, 16					; 00000010H
	mov	eax, DWORD PTR ___security_cookie
	xor	eax, ebp
	push	eax
	lea	eax, DWORD PTR __$EHRec$[ebp]
	mov	DWORD PTR fs:0, eax
	mov	DWORD PTR _this$[ebp], ecx
	mov	eax, DWORD PTR __Ptr$[ebp]
	push	eax
	push	4
	call	??2@YAPAXIPAX@Z				; operator new
	add	esp, 8
	mov	DWORD PTR $T3[ebp], eax
	mov	DWORD PTR __$EHRec$[ebp+8], 0
	cmp	DWORD PTR $T3[ebp], 0
	je	SHORT $LN3@construct
	mov	ecx, DWORD PTR __V0$[ebp]
	push	ecx
	call	??$forward@AAPAD@std@@YAAAPADAAPAD@Z	; std::forward<char * &>
	add	esp, 4
	mov	edx, DWORD PTR $T3[ebp]
	mov	eax, DWORD PTR [eax]
	mov	DWORD PTR [edx], eax
	mov	ecx, DWORD PTR $T3[ebp]
	mov	DWORD PTR tv73[ebp], ecx
	jmp	SHORT $LN4@construct
$LN3@construct:
	mov	DWORD PTR tv73[ebp], 0
$LN4@construct:
	mov	edx, DWORD PTR tv73[ebp]
	mov	DWORD PTR $T2[ebp], edx
	mov	DWORD PTR __$EHRec$[ebp+8], -1
	mov	ecx, DWORD PTR __$EHRec$[ebp]
	mov	DWORD PTR fs:0, ecx
	pop	ecx
	mov	esp, ebp
	pop	ebp
	ret	8
_TEXT	ENDS
;	COMDAT text$x
text$x	SEGMENT
__unwindfunclet$??$construct@PADAAPAD@?$allocator@D@std@@QAEXPAPADAAPAD@Z$0:
	mov	eax, DWORD PTR __Ptr$[ebp]
	push	eax
	mov	eax, DWORD PTR $T3[ebp]
	push	eax
	call	??3@YAXPAX0@Z				; operator delete
	add	esp, 8
	ret	0
__ehhandler$??$construct@PADAAPAD@?$allocator@D@std@@QAEXPAPADAAPAD@Z:
	mov	edx, DWORD PTR [esp+8]
	lea	eax, DWORD PTR [edx+12]
	mov	ecx, DWORD PTR [edx-20]
	xor	ecx, eax
	call	@__security_check_cookie@4
	mov	eax, OFFSET __ehfuncinfo$??$construct@PADAAPAD@?$allocator@D@std@@QAEXPAPADAAPAD@Z
	jmp	___CxxFrameHandler3
text$x	ENDS
??$construct@PADAAPAD@?$allocator@D@std@@QAEXPAPADAAPAD@Z ENDP ; std::allocator<char>::construct<char *,char * &>
; Function compile flags: /Odtp
; File c:\program files (x86)\microsoft visual studio 11.0\vc\include\xlocnum
;	COMDAT ??__E?id@?$numpunct@_W@std@@2V0locale@2@A@@YAXXZ
text$yc	SEGMENT
??__E?id@?$numpunct@_W@std@@2V0locale@2@A@@YAXXZ PROC	; `dynamic initializer for 'std::numpunct<wchar_t>::id'', COMDAT

; 155  : 		void _Getvals(wchar_t, const lconv *_Ptr, _Locinfo::_Cvtvec)

	push	ebp
	mov	ebp, esp
	push	0
	mov	ecx, OFFSET ?id@?$numpunct@_W@std@@2V0locale@2@A ; std::numpunct<wchar_t>::id
	call	??0id@locale@std@@QAE@I@Z		; std::locale::id::id
	pop	ebp
	ret	0
??__E?id@?$numpunct@_W@std@@2V0locale@2@A@@YAXXZ ENDP	; `dynamic initializer for 'std::numpunct<wchar_t>::id''
text$yc	ENDS
; Function compile flags: /Odtp
; File c:\program files (x86)\microsoft visual studio 11.0\vc\include\xlocnum
;	COMDAT ??__E?id@?$numpunct@D@std@@2V0locale@2@A@@YAXXZ
text$yc	SEGMENT
??__E?id@?$numpunct@D@std@@2V0locale@2@A@@YAXXZ PROC	; `dynamic initializer for 'std::numpunct<char>::id'', COMDAT

; 155  : 		void _Getvals(wchar_t, const lconv *_Ptr, _Locinfo::_Cvtvec)

	push	ebp
	mov	ebp, esp
	push	0
	mov	ecx, OFFSET ?id@?$numpunct@D@std@@2V0locale@2@A ; std::numpunct<char>::id
	call	??0id@locale@std@@QAE@I@Z		; std::locale::id::id
	pop	ebp
	ret	0
??__E?id@?$numpunct@D@std@@2V0locale@2@A@@YAXXZ ENDP	; `dynamic initializer for 'std::numpunct<char>::id''
text$yc	ENDS
; Function compile flags: /Odtp
; File c:\program files (x86)\microsoft visual studio 11.0\vc\include\xlocnum
;	COMDAT ??__E?id@?$num_put@_WV?$back_insert_iterator@V?$basic_string@_WU?$char_traits@_W@std@@V?$allocator@_W@2@@std@@@std@@@std@@2V0locale@2@A@@YAXXZ
text$yc	SEGMENT
??__E?id@?$num_put@_WV?$back_insert_iterator@V?$basic_string@_WU?$char_traits@_W@std@@V?$allocator@_W@2@@std@@@std@@@std@@2V0locale@2@A@@YAXXZ PROC ; `dynamic initializer for 'std::num_put<wchar_t,std::back_insert_iterator<std::basic_string<wchar_t,std::char_traits<wchar_t>,std::allocator<wchar_t> > > >::id'', COMDAT

; 155  : 		void _Getvals(wchar_t, const lconv *_Ptr, _Locinfo::_Cvtvec)

	push	ebp
	mov	ebp, esp
	push	0
	mov	ecx, OFFSET ?id@?$num_put@_WV?$back_insert_iterator@V?$basic_string@_WU?$char_traits@_W@std@@V?$allocator@_W@2@@std@@@std@@@std@@2V0locale@2@A ; std::num_put<wchar_t,std::back_insert_iterator<std::basic_string<wchar_t,std::char_traits<wchar_t>,std::allocator<wchar_t> > > >::id
	call	??0id@locale@std@@QAE@I@Z		; std::locale::id::id
	pop	ebp
	ret	0
??__E?id@?$num_put@_WV?$back_insert_iterator@V?$basic_string@_WU?$char_traits@_W@std@@V?$allocator@_W@2@@std@@@std@@@std@@2V0locale@2@A@@YAXXZ ENDP ; `dynamic initializer for 'std::num_put<wchar_t,std::back_insert_iterator<std::basic_string<wchar_t,std::char_traits<wchar_t>,std::allocator<wchar_t> > > >::id''
text$yc	ENDS
; Function compile flags: /Odtp
; File c:\program files (x86)\microsoft visual studio 11.0\vc\include\xlocnum
;	COMDAT ??__E?id@?$num_put@DV?$back_insert_iterator@V?$basic_string@DU?$char_traits@D@std@@V?$allocator@D@2@@std@@@std@@@std@@2V0locale@2@A@@YAXXZ
text$yc	SEGMENT
??__E?id@?$num_put@DV?$back_insert_iterator@V?$basic_string@DU?$char_traits@D@std@@V?$allocator@D@2@@std@@@std@@@std@@2V0locale@2@A@@YAXXZ PROC ; `dynamic initializer for 'std::num_put<char,std::back_insert_iterator<std::basic_string<char,std::char_traits<char>,std::allocator<char> > > >::id'', COMDAT

; 155  : 		void _Getvals(wchar_t, const lconv *_Ptr, _Locinfo::_Cvtvec)

	push	ebp
	mov	ebp, esp
	push	0
	mov	ecx, OFFSET ?id@?$num_put@DV?$back_insert_iterator@V?$basic_string@DU?$char_traits@D@std@@V?$allocator@D@2@@std@@@std@@@std@@2V0locale@2@A ; std::num_put<char,std::back_insert_iterator<std::basic_string<char,std::char_traits<char>,std::allocator<char> > > >::id
	call	??0id@locale@std@@QAE@I@Z		; std::locale::id::id
	pop	ebp
	ret	0
??__E?id@?$num_put@DV?$back_insert_iterator@V?$basic_string@DU?$char_traits@D@std@@V?$allocator@D@2@@std@@@std@@@std@@2V0locale@2@A@@YAXXZ ENDP ; `dynamic initializer for 'std::num_put<char,std::back_insert_iterator<std::basic_string<char,std::char_traits<char>,std::allocator<char> > > >::id''
text$yc	ENDS
; Function compile flags: /Odtp
; File c:\program files (x86)\microsoft visual studio 11.0\vc\include\xmemory0
;	COMDAT ??$destroy@PAD@?$allocator_traits@V?$allocator@D@std@@@std@@SAXAAV?$allocator@D@1@PAPAD@Z
_TEXT	SEGMENT
__Al$ = 8						; size = 4
__Ptr$ = 12						; size = 4
??$destroy@PAD@?$allocator_traits@V?$allocator@D@std@@@std@@SAXAAV?$allocator@D@1@PAPAD@Z PROC ; std::allocator_traits<std::allocator<char> >::destroy<char *>, COMDAT

; 755  : 		static void destroy(_Alloc& _Al, _Uty *_Ptr)

	push	ebp
	mov	ebp, esp

; 756  : 		{	// destroy object at _Ptr
; 757  : 		_Al.destroy(_Ptr);

	mov	eax, DWORD PTR __Ptr$[ebp]
	push	eax
	mov	ecx, DWORD PTR __Al$[ebp]
	call	??$destroy@PAD@?$allocator@D@std@@QAEXPAPAD@Z ; std::allocator<char>::destroy<char *>

; 758  : 		}

	pop	ebp
	ret	0
??$destroy@PAD@?$allocator_traits@V?$allocator@D@std@@@std@@SAXAAV?$allocator@D@1@PAPAD@Z ENDP ; std::allocator_traits<std::allocator<char> >::destroy<char *>
_TEXT	ENDS
; Function compile flags: /Odtp
; File c:\program files (x86)\microsoft visual studio 11.0\vc\include\xmemory0
;	COMDAT ??$construct@PADAAPAD@?$allocator_traits@V?$allocator@D@std@@@std@@SAXAAV?$allocator@D@1@PAPADAAPAD@Z
_TEXT	SEGMENT
__Al$ = 8						; size = 4
__Ptr$ = 12						; size = 4
__V0$ = 16						; size = 4
??$construct@PADAAPAD@?$allocator_traits@V?$allocator@D@std@@@std@@SAXAAV?$allocator@D@1@PAPADAAPAD@Z PROC ; std::allocator_traits<std::allocator<char> >::construct<char *,char * &>, COMDAT

; 751  : _VARIADIC_EXPAND_0X(_ALLOC_TRAITS_SPECIAL_CONSTRUCT, , , , )

	push	ebp
	mov	ebp, esp
	mov	eax, DWORD PTR __V0$[ebp]
	push	eax
	call	??$forward@AAPAD@std@@YAAAPADAAPAD@Z	; std::forward<char * &>
	add	esp, 4
	push	eax
	mov	ecx, DWORD PTR __Ptr$[ebp]
	push	ecx
	mov	ecx, DWORD PTR __Al$[ebp]
	call	??$construct@PADAAPAD@?$allocator@D@std@@QAEXPAPADAAPAD@Z ; std::allocator<char>::construct<char *,char * &>
	pop	ebp
	ret	0
??$construct@PADAAPAD@?$allocator_traits@V?$allocator@D@std@@@std@@SAXAAV?$allocator@D@1@PAPADAAPAD@Z ENDP ; std::allocator_traits<std::allocator<char> >::construct<char *,char * &>
_TEXT	ENDS
; Function compile flags: /Odtp
; File c:\program files (x86)\microsoft visual studio 11.0\vc\include\type_traits
;	COMDAT ??$forward@AAPAD@std@@YAAAPADAAPAD@Z
_TEXT	SEGMENT
__Arg$ = 8						; size = 4
??$forward@AAPAD@std@@YAAAPADAAPAD@Z PROC		; std::forward<char * &>, COMDAT

; 1775 : 	{	// forward an lvalue

	push	ebp
	mov	ebp, esp

; 1776 : 	return (static_cast<_Ty&&>(_Arg));

	mov	eax, DWORD PTR __Arg$[ebp]

; 1777 : 	}

	pop	ebp
	ret	0
??$forward@AAPAD@std@@YAAAPADAAPAD@Z ENDP		; std::forward<char * &>
_TEXT	ENDS
; Function compile flags: /Odtp
;	COMDAT ??__F?_System_object@?$_Error_objects@H@std@@2V_System_error_category@2@A@@YAXXZ
text$yd	SEGMENT
??__F?_System_object@?$_Error_objects@H@std@@2V_System_error_category@2@A@@YAXXZ PROC ; `dynamic atexit destructor for 'std::_Error_objects<int>::_System_object'', COMDAT
	push	ebp
	mov	ebp, esp
	mov	ecx, OFFSET ?_System_object@?$_Error_objects@H@std@@2V_System_error_category@2@A ; std::_Error_objects<int>::_System_object
	call	??1_System_error_category@std@@UAE@XZ
	pop	ebp
	ret	0
??__F?_System_object@?$_Error_objects@H@std@@2V_System_error_category@2@A@@YAXXZ ENDP ; `dynamic atexit destructor for 'std::_Error_objects<int>::_System_object''
text$yd	ENDS
; Function compile flags: /Odtp
; File c:\program files (x86)\microsoft visual studio 11.0\vc\include\xmemory0
;	COMDAT ??__E?_System_object@?$_Error_objects@H@std@@2V_System_error_category@2@A@@YAXXZ
text$yc	SEGMENT
??__E?_System_object@?$_Error_objects@H@std@@2V_System_error_category@2@A@@YAXXZ PROC ; `dynamic initializer for 'std::_Error_objects<int>::_System_object'', COMDAT

; 627  : 		{	// estimate maximum array size

	push	ebp
	mov	ebp, esp
	mov	ecx, OFFSET ?_System_object@?$_Error_objects@H@std@@2V_System_error_category@2@A ; std::_Error_objects<int>::_System_object
	call	??0_System_error_category@std@@QAE@XZ	; std::_System_error_category::_System_error_category
	push	OFFSET ??__F?_System_object@?$_Error_objects@H@std@@2V_System_error_category@2@A@@YAXXZ ; `dynamic atexit destructor for 'std::_Error_objects<int>::_System_object''
	call	_atexit
	add	esp, 4
	pop	ebp
	ret	0
??__E?_System_object@?$_Error_objects@H@std@@2V_System_error_category@2@A@@YAXXZ ENDP ; `dynamic initializer for 'std::_Error_objects<int>::_System_object''
text$yc	ENDS
; Function compile flags: /Odtp
;	COMDAT ??__F?_Iostream_object@?$_Error_objects@H@std@@2V_Iostream_error_category@2@A@@YAXXZ
text$yd	SEGMENT
??__F?_Iostream_object@?$_Error_objects@H@std@@2V_Iostream_error_category@2@A@@YAXXZ PROC ; `dynamic atexit destructor for 'std::_Error_objects<int>::_Iostream_object'', COMDAT
	push	ebp
	mov	ebp, esp
	mov	ecx, OFFSET ?_Iostream_object@?$_Error_objects@H@std@@2V_Iostream_error_category@2@A ; std::_Error_objects<int>::_Iostream_object
	call	??1_Iostream_error_category@std@@UAE@XZ
	pop	ebp
	ret	0
??__F?_Iostream_object@?$_Error_objects@H@std@@2V_Iostream_error_category@2@A@@YAXXZ ENDP ; `dynamic atexit destructor for 'std::_Error_objects<int>::_Iostream_object''
text$yd	ENDS
; Function compile flags: /Odtp
; File c:\program files (x86)\microsoft visual studio 11.0\vc\include\xmemory0
;	COMDAT ??__E?_Iostream_object@?$_Error_objects@H@std@@2V_Iostream_error_category@2@A@@YAXXZ
text$yc	SEGMENT
??__E?_Iostream_object@?$_Error_objects@H@std@@2V_Iostream_error_category@2@A@@YAXXZ PROC ; `dynamic initializer for 'std::_Error_objects<int>::_Iostream_object'', COMDAT

; 627  : 		{	// estimate maximum array size

	push	ebp
	mov	ebp, esp
	mov	ecx, OFFSET ?_Iostream_object@?$_Error_objects@H@std@@2V_Iostream_error_category@2@A ; std::_Error_objects<int>::_Iostream_object
	call	??0_Iostream_error_category@std@@QAE@XZ	; std::_Iostream_error_category::_Iostream_error_category
	push	OFFSET ??__F?_Iostream_object@?$_Error_objects@H@std@@2V_Iostream_error_category@2@A@@YAXXZ ; `dynamic atexit destructor for 'std::_Error_objects<int>::_Iostream_object''
	call	_atexit
	add	esp, 4
	pop	ebp
	ret	0
??__E?_Iostream_object@?$_Error_objects@H@std@@2V_Iostream_error_category@2@A@@YAXXZ ENDP ; `dynamic initializer for 'std::_Error_objects<int>::_Iostream_object''
text$yc	ENDS
; Function compile flags: /Odtp
;	COMDAT ??__F?_Generic_object@?$_Error_objects@H@std@@2V_Generic_error_category@2@A@@YAXXZ
text$yd	SEGMENT
??__F?_Generic_object@?$_Error_objects@H@std@@2V_Generic_error_category@2@A@@YAXXZ PROC ; `dynamic atexit destructor for 'std::_Error_objects<int>::_Generic_object'', COMDAT
	push	ebp
	mov	ebp, esp
	mov	ecx, OFFSET ?_Generic_object@?$_Error_objects@H@std@@2V_Generic_error_category@2@A ; std::_Error_objects<int>::_Generic_object
	call	??1_Generic_error_category@std@@UAE@XZ
	pop	ebp
	ret	0
??__F?_Generic_object@?$_Error_objects@H@std@@2V_Generic_error_category@2@A@@YAXXZ ENDP ; `dynamic atexit destructor for 'std::_Error_objects<int>::_Generic_object''
text$yd	ENDS
; Function compile flags: /Odtp
; File c:\program files (x86)\microsoft visual studio 11.0\vc\include\xmemory0
;	COMDAT ??__E?_Generic_object@?$_Error_objects@H@std@@2V_Generic_error_category@2@A@@YAXXZ
text$yc	SEGMENT
??__E?_Generic_object@?$_Error_objects@H@std@@2V_Generic_error_category@2@A@@YAXXZ PROC ; `dynamic initializer for 'std::_Error_objects<int>::_Generic_object'', COMDAT

; 627  : 		{	// estimate maximum array size

	push	ebp
	mov	ebp, esp
	mov	ecx, OFFSET ?_Generic_object@?$_Error_objects@H@std@@2V_Generic_error_category@2@A ; std::_Error_objects<int>::_Generic_object
	call	??0_Generic_error_category@std@@QAE@XZ	; std::_Generic_error_category::_Generic_error_category
	push	OFFSET ??__F?_Generic_object@?$_Error_objects@H@std@@2V_Generic_error_category@2@A@@YAXXZ ; `dynamic atexit destructor for 'std::_Error_objects<int>::_Generic_object''
	call	_atexit
	add	esp, 4
	pop	ebp
	ret	0
??__E?_Generic_object@?$_Error_objects@H@std@@2V_Generic_error_category@2@A@@YAXXZ ENDP ; `dynamic initializer for 'std::_Error_objects<int>::_Generic_object''
text$yc	ENDS
; Function compile flags: /Odtp
; File c:\program files (x86)\microsoft visual studio 11.0\vc\include\xmemory0
;	COMDAT ??$_Allocate@D@std@@YAPADIPAD@Z
_TEXT	SEGMENT
__Ptr$ = -4						; size = 4
__Count$ = 8						; size = 4
___formal$ = 12						; size = 4
??$_Allocate@D@std@@YAPADIPAD@Z PROC			; std::_Allocate<char>, COMDAT

; 22   : 	{	// allocate storage for _Count elements of type _Ty

	push	ebp
	mov	ebp, esp
	push	ecx

; 23   : 	void *_Ptr = 0;

	mov	DWORD PTR __Ptr$[ebp], 0

; 24   : 
; 25   : 	if (_Count == 0)

	cmp	DWORD PTR __Count$[ebp], 0
	jne	SHORT $LN4@Allocate

; 26   : 		;
; 27   : 	else if (((size_t)(-1) / sizeof (_Ty) < _Count)

	jmp	SHORT $LN3@Allocate
$LN4@Allocate:

; 28   : 		|| (_Ptr = ::operator new(_Count * sizeof (_Ty))) == 0)

	cmp	DWORD PTR __Count$[ebp], -1
	ja	SHORT $LN1@Allocate
	mov	eax, DWORD PTR __Count$[ebp]
	push	eax
	call	??2@YAPAXI@Z				; operator new
	add	esp, 4
	mov	DWORD PTR __Ptr$[ebp], eax
	cmp	DWORD PTR __Ptr$[ebp], 0
	jne	SHORT $LN3@Allocate
$LN1@Allocate:

; 29   : 		_Xbad_alloc();	// report no memory

	call	?_Xbad_alloc@std@@YAXXZ			; std::_Xbad_alloc
$LN3@Allocate:

; 30   : 
; 31   : 	return ((_Ty *)_Ptr);

	mov	eax, DWORD PTR __Ptr$[ebp]
$LN6@Allocate:

; 32   : 	}

	mov	esp, ebp
	pop	ebp
	ret	0
??$_Allocate@D@std@@YAPADIPAD@Z ENDP			; std::_Allocate<char>
_TEXT	ENDS
; Function compile flags: /Odtp
; File c:\program files (x86)\microsoft visual studio 11.0\vc\include\xstddef
;	COMDAT ??$addressof@D@std@@YAPADAAD@Z
_TEXT	SEGMENT
__Val$ = 8						; size = 4
??$addressof@D@std@@YAPADAAD@Z PROC			; std::addressof<char>, COMDAT

; 85   : 	{	// return address of _Val

	push	ebp
	mov	ebp, esp

; 86   : 	return (reinterpret_cast<_Ty *>(
; 87   : 		(&const_cast<char&>(
; 88   : 		reinterpret_cast<const volatile char&>(_Val)))));

	mov	eax, DWORD PTR __Val$[ebp]

; 89   : 	}

	pop	ebp
	ret	0
??$addressof@D@std@@YAPADAAD@Z ENDP			; std::addressof<char>
_TEXT	ENDS
; Function compile flags: /Odtp
; File c:\program files (x86)\microsoft visual studio 11.0\vc\include\xmemory0
;	COMDAT ??$destroy@PAD@?$_Wrap_alloc@V?$allocator@D@std@@@std@@QAEXPAPAD@Z
_TEXT	SEGMENT
_this$ = -4						; size = 4
__Ptr$ = 8						; size = 4
??$destroy@PAD@?$_Wrap_alloc@V?$allocator@D@std@@@std@@QAEXPAPAD@Z PROC ; std::_Wrap_alloc<std::allocator<char> >::destroy<char *>, COMDAT
; _this$ = ecx

; 907  : 		void destroy(_Ty *_Ptr)

	push	ebp
	mov	ebp, esp
	push	ecx
	mov	DWORD PTR _this$[ebp], ecx

; 908  : 		{	// destroy object at _Ptr
; 909  : 		_Mytraits::destroy(*this, _Ptr);

	mov	eax, DWORD PTR __Ptr$[ebp]
	push	eax
	mov	ecx, DWORD PTR _this$[ebp]
	push	ecx
	call	??$destroy@PAD@?$allocator_traits@V?$allocator@D@std@@@std@@SAXAAV?$allocator@D@1@PAPAD@Z ; std::allocator_traits<std::allocator<char> >::destroy<char *>
	add	esp, 8

; 910  : 		}

	mov	esp, ebp
	pop	ebp
	ret	4
??$destroy@PAD@?$_Wrap_alloc@V?$allocator@D@std@@@std@@QAEXPAPAD@Z ENDP ; std::_Wrap_alloc<std::allocator<char> >::destroy<char *>
_TEXT	ENDS
; Function compile flags: /Odtp
; File c:\program files (x86)\microsoft visual studio 11.0\vc\include\xmemory0
;	COMDAT ??$construct@PADAAPAD@?$_Wrap_alloc@V?$allocator@D@std@@@std@@QAEXPAPADAAPAD@Z
_TEXT	SEGMENT
_this$ = -4						; size = 4
__Ptr$ = 8						; size = 4
__V0$ = 12						; size = 4
??$construct@PADAAPAD@?$_Wrap_alloc@V?$allocator@D@std@@@std@@QAEXPAPADAAPAD@Z PROC ; std::_Wrap_alloc<std::allocator<char> >::construct<char *,char * &>, COMDAT
; _this$ = ecx

; 903  : _VARIADIC_EXPAND_0X(_WRAP_ALLOC_CONSTRUCT, , , , )

	push	ebp
	mov	ebp, esp
	push	ecx
	mov	DWORD PTR _this$[ebp], ecx
	mov	eax, DWORD PTR __V0$[ebp]
	push	eax
	call	??$forward@AAPAD@std@@YAAAPADAAPAD@Z	; std::forward<char * &>
	add	esp, 4
	push	eax
	mov	ecx, DWORD PTR __Ptr$[ebp]
	push	ecx
	mov	edx, DWORD PTR _this$[ebp]
	push	edx
	call	??$construct@PADAAPAD@?$allocator_traits@V?$allocator@D@std@@@std@@SAXAAV?$allocator@D@1@PAPADAAPAD@Z ; std::allocator_traits<std::allocator<char> >::construct<char *,char * &>
	add	esp, 12					; 0000000cH
	mov	esp, ebp
	pop	ebp
	ret	8
??$construct@PADAAPAD@?$_Wrap_alloc@V?$allocator@D@std@@@std@@QAEXPAPADAAPAD@Z ENDP ; std::_Wrap_alloc<std::allocator<char> >::construct<char *,char * &>
_TEXT	ENDS
; Function compile flags: /Odtp
; File c:\users\zhitao li\documents\visual studio 2012\projects\freefalcon\sim\digi\gndattck.cpp
_TEXT	SEGMENT
_stick$ = 8						; size = 4
_desired$ = 12						; size = 4
_dps$ = 16						; size = 4
?MoveStick@@YAXAAMMM@Z PROC				; MoveStick

; 3680 : 	{

	push	ebp
	mov	ebp, esp

; 3681 : 		if(stick > desired)

	mov	eax, DWORD PTR _stick$[ebp]
	movss	xmm0, DWORD PTR [eax]
	comiss	xmm0, DWORD PTR _desired$[ebp]
	jbe	SHORT $LN5@MoveStick

; 3682 : 		{
; 3683 : 			stick -= dps * SimLibMajorFrameTime;

	movss	xmm0, DWORD PTR _dps$[ebp]
	mulss	xmm0, DWORD PTR ?SimLibMajorFrameTime@@3MA
	mov	ecx, DWORD PTR _stick$[ebp]
	movss	xmm1, DWORD PTR [ecx]
	subss	xmm1, xmm0
	mov	edx, DWORD PTR _stick$[ebp]
	movss	DWORD PTR [edx], xmm1

; 3684 : 			if(stick < desired) stick = desired;

	mov	eax, DWORD PTR _stick$[ebp]
	movss	xmm0, DWORD PTR _desired$[ebp]
	comiss	xmm0, DWORD PTR [eax]
	jbe	SHORT $LN4@MoveStick
	mov	ecx, DWORD PTR _stick$[ebp]
	movss	xmm0, DWORD PTR _desired$[ebp]
	movss	DWORD PTR [ecx], xmm0
$LN4@MoveStick:

; 3685 : 
; 3686 : 		}
; 3687 : 		else

	jmp	SHORT $LN1@MoveStick
$LN5@MoveStick:

; 3688 : 		{
; 3689 : 			if(stick < desired)

	mov	edx, DWORD PTR _stick$[ebp]
	movss	xmm0, DWORD PTR _desired$[ebp]
	comiss	xmm0, DWORD PTR [edx]
	jbe	SHORT $LN1@MoveStick

; 3690 : 			{
; 3691 : 				stick += dps * SimLibMajorFrameTime;

	movss	xmm0, DWORD PTR _dps$[ebp]
	mulss	xmm0, DWORD PTR ?SimLibMajorFrameTime@@3MA
	mov	eax, DWORD PTR _stick$[ebp]
	addss	xmm0, DWORD PTR [eax]
	mov	ecx, DWORD PTR _stick$[ebp]
	movss	DWORD PTR [ecx], xmm0

; 3692 : 				if(stick > desired) stick = desired;

	mov	edx, DWORD PTR _stick$[ebp]
	movss	xmm0, DWORD PTR [edx]
	comiss	xmm0, DWORD PTR _desired$[ebp]
	jbe	SHORT $LN1@MoveStick
	mov	eax, DWORD PTR _stick$[ebp]
	movss	xmm0, DWORD PTR _desired$[ebp]
	movss	DWORD PTR [eax], xmm0
$LN1@MoveStick:

; 3693 : 			}	
; 3694 : 		}
; 3695 : 	}

	pop	ebp
	ret	0
?MoveStick@@YAXAAMMM@Z ENDP				; MoveStick
_TEXT	ENDS
; Function compile flags: /Odtp
; File c:\users\zhitao li\documents\visual studio 2012\projects\freefalcon\sim\include\laserpod.h
;	COMDAT ?IsLocked@LaserPodClass@@QAEHXZ
_TEXT	SEGMENT
_this$ = -8						; size = 4
tv66 = -4						; size = 4
?IsLocked@LaserPodClass@@QAEHXZ PROC			; LaserPodClass::IsLocked, COMDAT
; _this$ = ecx

; 19   : 	int IsLocked (void)							{return (hasTarget == TargetLocked);}

	push	ebp
	mov	ebp, esp
	sub	esp, 8
	mov	DWORD PTR _this$[ebp], ecx
	mov	eax, DWORD PTR _this$[ebp]
	cmp	DWORD PTR [eax+84], 1
	jne	SHORT $LN3@IsLocked
	mov	DWORD PTR tv66[ebp], 1
	jmp	SHORT $LN4@IsLocked
$LN3@IsLocked:
	mov	DWORD PTR tv66[ebp], 0
$LN4@IsLocked:
	mov	eax, DWORD PTR tv66[ebp]
	mov	esp, ebp
	pop	ebp
	ret	0
?IsLocked@LaserPodClass@@QAEHXZ ENDP			; LaserPodClass::IsLocked
_TEXT	ENDS
; Function compile flags: /Odtp
; File c:\users\zhitao li\documents\visual studio 2012\projects\freefalcon\campaign\include\team.h
;	COMDAT ?TStance@TeamClass@@QAEHE@Z
_TEXT	SEGMENT
_this$ = -4						; size = 4
_team$ = 8						; size = 1
?TStance@TeamClass@@QAEHE@Z PROC			; TeamClass::TStance, COMDAT
; _this$ = ecx

; 317  : 	int TStance(Team team)						{ return stance[team]; }

	push	ebp
	mov	ebp, esp
	push	ecx
	mov	DWORD PTR _this$[ebp], ecx
	movzx	eax, BYTE PTR _team$[ebp]
	mov	ecx, DWORD PTR _this$[ebp]
	movsx	eax, WORD PTR [ecx+eax*2+580]
	mov	esp, ebp
	pop	ebp
	ret	4
?TStance@TeamClass@@QAEHE@Z ENDP			; TeamClass::TStance
_TEXT	ENDS
; Function compile flags: /Odtp
; File c:\users\zhitao li\documents\visual studio 2012\projects\freefalcon\sim\include\object.h
;	COMDAT ?BaseData@SimObjectType@@QAEPAVFalconEntity@@XZ
_TEXT	SEGMENT
_this$ = -4						; size = 4
?BaseData@SimObjectType@@QAEPAVFalconEntity@@XZ PROC	; SimObjectType::BaseData, COMDAT
; _this$ = ecx

; 92   : 	FalconEntity* BaseData(void) { return baseData.get(); };

	push	ebp
	mov	ebp, esp
	push	ecx
	mov	DWORD PTR _this$[ebp], ecx
	mov	ecx, DWORD PTR _this$[ebp]
	call	?get@?$VuBin@VFalconEntity@@@@QBEPAVFalconEntity@@XZ ; VuBin<FalconEntity>::get
	mov	esp, ebp
	pop	ebp
	ret	0
?BaseData@SimObjectType@@QAEPAVFalconEntity@@XZ ENDP	; SimObjectType::BaseData
_TEXT	ENDS
; Function compile flags: /Odtp
; File c:\users\zhitao li\documents\visual studio 2012\projects\freefalcon\campaign\include\unit.h
;	COMDAT ?GetUnitTactic@UnitClass@@QBEHXZ
_TEXT	SEGMENT
_this$ = -4						; size = 4
?GetUnitTactic@UnitClass@@QBEHXZ PROC			; UnitClass::GetUnitTactic, COMDAT
; _this$ = ecx

; 375  : 	int GetUnitTactic() const						{ return tactic; }

	push	ebp
	mov	ebp, esp
	push	ecx
	mov	DWORD PTR _this$[ebp], ecx
	mov	eax, DWORD PTR _this$[ebp]
	movzx	eax, BYTE PTR [eax+222]
	mov	esp, ebp
	pop	ebp
	ret	0
?GetUnitTactic@UnitClass@@QBEHXZ ENDP			; UnitClass::GetUnitTactic
_TEXT	ENDS
; Function compile flags: /Odtp
; File c:\users\zhitao li\documents\visual studio 2012\projects\freefalcon\campaign\include\unit.h
;	COMDAT ?GetTarget@UnitClass@@QAEPAVFalconEntity@@XZ
_TEXT	SEGMENT
_this$ = -4						; size = 4
?GetTarget@UnitClass@@QAEPAVFalconEntity@@XZ PROC	; UnitClass::GetTarget, COMDAT
; _this$ = ecx

; 366  : 	FalconEntity* GetTarget (void)					{ return (FalconEntity*) vuDatabase->Find(target_id); }

	push	ebp
	mov	ebp, esp
	push	ecx
	mov	DWORD PTR _this$[ebp], ecx
	mov	eax, DWORD PTR _this$[ebp]
	mov	ecx, DWORD PTR [eax+216]
	push	ecx
	mov	edx, DWORD PTR [eax+212]
	push	edx
	mov	ecx, DWORD PTR ?vuDatabase@@3PAVVuDatabase@@A ; vuDatabase
	call	?Find@VuDatabase@@QBEPAVVuEntity@@VVU_ID@@@Z ; VuDatabase::Find
	mov	esp, ebp
	pop	ebp
	ret	0
?GetTarget@UnitClass@@QAEPAVFalconEntity@@XZ ENDP	; UnitClass::GetTarget
_TEXT	ENDS
; Function compile flags: /Odtp
; File c:\users\zhitao li\documents\visual studio 2012\projects\freefalcon\campaign\include\campbase.h
;	COMDAT ?UnsetChecked@CampBaseClass@@QAEXXZ
_TEXT	SEGMENT
_this$ = -4						; size = 4
?UnsetChecked@CampBaseClass@@QAEXXZ PROC		; CampBaseClass::UnsetChecked, COMDAT
; _this$ = ecx

; 307  : 	void UnsetChecked (void)					{	local_flags &= ~CBC_CHECKED; }

	push	ebp
	mov	ebp, esp
	push	ecx
	mov	DWORD PTR _this$[ebp], ecx
	mov	eax, DWORD PTR _this$[ebp]
	movsx	ecx, WORD PTR [eax+156]
	and	ecx, -2					; fffffffeH
	mov	edx, DWORD PTR _this$[ebp]
	mov	WORD PTR [edx+156], cx
	mov	esp, ebp
	pop	ebp
	ret	0
?UnsetChecked@CampBaseClass@@QAEXXZ ENDP		; CampBaseClass::UnsetChecked
_TEXT	ENDS
; Function compile flags: /Odtp
; File c:\users\zhitao li\documents\visual studio 2012\projects\freefalcon\campaign\include\campbase.h
;	COMDAT ?IsAggregate@CampBaseClass@@QAEHXZ
_TEXT	SEGMENT
_this$ = -4						; size = 4
?IsAggregate@CampBaseClass@@QAEHXZ PROC			; CampBaseClass::IsAggregate, COMDAT
; _this$ = ecx

; 278  : 	int IsAggregate (void)						{	return local_flags & CBC_AGGREGATE; }

	push	ebp
	mov	ebp, esp
	push	ecx
	mov	DWORD PTR _this$[ebp], ecx
	mov	eax, DWORD PTR _this$[ebp]
	movsx	eax, WORD PTR [eax+156]
	and	eax, 128				; 00000080H
	mov	esp, ebp
	pop	ebp
	ret	0
?IsAggregate@CampBaseClass@@QAEHXZ ENDP			; CampBaseClass::IsAggregate
_TEXT	ENDS
; Function compile flags: /Odtp
; File c:\users\zhitao li\documents\visual studio 2012\projects\freefalcon\graphics\include\fmath.h
;	COMDAT ?SqrtF@@YAMM@Z
_TEXT	SEGMENT
_f$ = 8							; size = 4
?SqrtF@@YAMM@Z PROC					; SqrtF, COMDAT

; 49   : {

	push	ebp
	mov	ebp, esp

; 50   : 	_asm
; 51   : 	{
; 52   : 		fld f;

	fld	DWORD PTR _f$[ebp]

; 53   : 		fsqrt;

	fsqrt

; 54   : 		fstp f;

	fstp	DWORD PTR _f$[ebp]

; 55   : 	}
; 56   : 
; 57   : 	return f;

	fld	DWORD PTR _f$[ebp]

; 58   : }

	pop	ebp
	ret	0
?SqrtF@@YAMM@Z ENDP					; SqrtF
_TEXT	ENDS
; Function compile flags: /Odtp
; File c:\users\zhitao li\documents\visual studio 2012\projects\freefalcon\graphics\include\fmath.h
;	COMDAT ?FabsF@@YAMM@Z
_TEXT	SEGMENT
_f$ = 8							; size = 4
?FabsF@@YAMM@Z PROC					; FabsF, COMDAT

; 37   : {

	push	ebp
	mov	ebp, esp

; 38   : 	_asm
; 39   : 	{
; 40   : 		fld f;

	fld	DWORD PTR _f$[ebp]

; 41   : 		fabs;

	fabs

; 42   : 		fstp f;

	fstp	DWORD PTR _f$[ebp]

; 43   : 	}
; 44   : 
; 45   : 	return f;

	fld	DWORD PTR _f$[ebp]

; 46   : }

	pop	ebp
	ret	0
?FabsF@@YAMM@Z ENDP					; FabsF
_TEXT	ENDS
; Function compile flags: /Odtp
; File c:\users\zhitao li\documents\visual studio 2012\projects\freefalcon\sim\include\aircrft.h
;	COMDAT ?DBrain@AircraftClass@@QAEPAVDigitalBrain@@XZ
_TEXT	SEGMENT
_this$ = -4						; size = 4
?DBrain@AircraftClass@@QAEPAVDigitalBrain@@XZ PROC	; AircraftClass::DBrain, COMDAT
; _this$ = ecx

; 624  : 	DigitalBrain *DBrain(void)			{return (DigitalBrain *)theBrain;}

	push	ebp
	mov	ebp, esp
	push	ecx
	mov	DWORD PTR _this$[ebp], ecx
	mov	eax, DWORD PTR _this$[ebp]
	mov	eax, DWORD PTR [eax+672]
	mov	esp, ebp
	pop	ebp
	ret	0
?DBrain@AircraftClass@@QAEPAVDigitalBrain@@XZ ENDP	; AircraftClass::DBrain
_TEXT	ENDS
; Function compile flags: /Odtp
; File c:\users\zhitao li\documents\visual studio 2012\projects\freefalcon\sim\include\aircrft.h
;	COMDAT ?AutopilotType@AircraftClass@@QAE?AW4AutoPilotType@1@XZ
_TEXT	SEGMENT
_this$ = -4						; size = 4
?AutopilotType@AircraftClass@@QAE?AW4AutoPilotType@1@XZ PROC ; AircraftClass::AutopilotType, COMDAT
; _this$ = ecx

; 329  : 	AutoPilotType	AutopilotType (void) {return autopilotType;};

	push	ebp
	mov	ebp, esp
	push	ecx
	mov	DWORD PTR _this$[ebp], ecx
	mov	eax, DWORD PTR _this$[ebp]
	mov	eax, DWORD PTR [eax+968]
	mov	esp, ebp
	pop	ebp
	ret	0
?AutopilotType@AircraftClass@@QAE?AW4AutoPilotType@1@XZ ENDP ; AircraftClass::AutopilotType
_TEXT	ENDS
; Function compile flags: /Odtp
;	COMDAT ??_G_System_error_category@std@@UAEPAXI@Z
_TEXT	SEGMENT
_this$ = -4						; size = 4
___flags$ = 8						; size = 4
??_G_System_error_category@std@@UAEPAXI@Z PROC		; std::_System_error_category::`scalar deleting destructor', COMDAT
; _this$ = ecx
	push	ebp
	mov	ebp, esp
	push	ecx
	mov	DWORD PTR _this$[ebp], ecx
	mov	ecx, DWORD PTR _this$[ebp]
	call	??1_System_error_category@std@@UAE@XZ
	mov	eax, DWORD PTR ___flags$[ebp]
	and	eax, 1
	je	SHORT $LN1@scalar
	mov	ecx, DWORD PTR _this$[ebp]
	push	ecx
	call	??3@YAXPAX@Z				; operator delete
	add	esp, 4
$LN1@scalar:
	mov	eax, DWORD PTR _this$[ebp]
	mov	esp, ebp
	pop	ebp
	ret	4
??_G_System_error_category@std@@UAEPAXI@Z ENDP		; std::_System_error_category::`scalar deleting destructor'
_TEXT	ENDS
; Function compile flags: /Odtp
;	COMDAT ??1_System_error_category@std@@UAE@XZ
_TEXT	SEGMENT
_this$ = -4						; size = 4
??1_System_error_category@std@@UAE@XZ PROC		; std::_System_error_category::~_System_error_category, COMDAT
; _this$ = ecx
	push	ebp
	mov	ebp, esp
	push	ecx
	mov	DWORD PTR _this$[ebp], ecx
	mov	ecx, DWORD PTR _this$[ebp]
	call	??1_Generic_error_category@std@@UAE@XZ
	mov	esp, ebp
	pop	ebp
	ret	0
??1_System_error_category@std@@UAE@XZ ENDP		; std::_System_error_category::~_System_error_category
_TEXT	ENDS
; Function compile flags: /Odtp
; File c:\program files (x86)\microsoft visual studio 11.0\vc\include\system_error
;	COMDAT ?default_error_condition@_System_error_category@std@@UBE?AVerror_condition@2@H@Z
_TEXT	SEGMENT
_this$ = -4						; size = 4
___$ReturnUdt$ = 8					; size = 4
__Errval$ = 12						; size = 4
?default_error_condition@_System_error_category@std@@UBE?AVerror_condition@2@H@Z PROC ; std::_System_error_category::default_error_condition, COMDAT
; _this$ = ecx

; 641  : 		{	// make error_condition for error code (generic if possible)

	push	ebp
	mov	ebp, esp
	push	ecx
	mov	DWORD PTR _this$[ebp], ecx

; 642  : 		if (_Syserror_map(_Errval))

	mov	eax, DWORD PTR __Errval$[ebp]
	push	eax
	call	?_Syserror_map@std@@YAPBDH@Z		; std::_Syserror_map
	add	esp, 4
	test	eax, eax
	je	SHORT $LN2@default_er

; 643  : 			return (error_condition(_Errval, generic_category()));

	call	?generic_category@std@@YAABVerror_category@1@XZ ; std::generic_category
	push	eax
	mov	ecx, DWORD PTR __Errval$[ebp]
	push	ecx
	mov	ecx, DWORD PTR ___$ReturnUdt$[ebp]
	call	??0error_condition@std@@QAE@HABVerror_category@1@@Z ; std::error_condition::error_condition
	mov	eax, DWORD PTR ___$ReturnUdt$[ebp]
	jmp	SHORT $LN3@default_er

; 644  : 		else

	jmp	SHORT $LN3@default_er
$LN2@default_er:

; 645  : 			return (error_condition(_Errval, system_category()));

	call	?system_category@std@@YAABVerror_category@1@XZ ; std::system_category
	push	eax
	mov	edx, DWORD PTR __Errval$[ebp]
	push	edx
	mov	ecx, DWORD PTR ___$ReturnUdt$[ebp]
	call	??0error_condition@std@@QAE@HABVerror_category@1@@Z ; std::error_condition::error_condition
	mov	eax, DWORD PTR ___$ReturnUdt$[ebp]
$LN3@default_er:

; 646  : 		}

	mov	esp, ebp
	pop	ebp
	ret	8
?default_error_condition@_System_error_category@std@@UBE?AVerror_condition@2@H@Z ENDP ; std::_System_error_category::default_error_condition
_TEXT	ENDS
; Function compile flags: /Odtp
; File c:\program files (x86)\microsoft visual studio 11.0\vc\include\system_error
;	COMDAT ?message@_System_error_category@std@@UBE?AV?$basic_string@DU?$char_traits@D@std@@V?$allocator@D@2@@2@H@Z
_TEXT	SEGMENT
_this$ = -16						; size = 4
$T1 = -12						; size = 4
tv69 = -8						; size = 4
__Name$ = -4						; size = 4
___$ReturnUdt$ = 8					; size = 4
__Errcode$ = 12						; size = 4
?message@_System_error_category@std@@UBE?AV?$basic_string@DU?$char_traits@D@std@@V?$allocator@D@2@@2@H@Z PROC ; std::_System_error_category::message, COMDAT
; _this$ = ecx

; 634  : 		{	// convert to name of error

	push	ebp
	mov	ebp, esp
	sub	esp, 16					; 00000010H
	mov	DWORD PTR _this$[ebp], ecx
	mov	DWORD PTR $T1[ebp], 0

; 635  : 		const char *_Name = _Winerror_map(_Errcode);

	mov	eax, DWORD PTR __Errcode$[ebp]
	push	eax
	call	?_Winerror_map@std@@YAPBDH@Z		; std::_Winerror_map
	add	esp, 4
	mov	DWORD PTR __Name$[ebp], eax

; 636  : 		return (string(_Name != 0 ? _Name : "unknown error"));

	cmp	DWORD PTR __Name$[ebp], 0
	je	SHORT $LN3@message
	mov	ecx, DWORD PTR __Name$[ebp]
	mov	DWORD PTR tv69[ebp], ecx
	jmp	SHORT $LN4@message
$LN3@message:
	mov	DWORD PTR tv69[ebp], OFFSET ??_C@_0O@BFJCFAAK@unknown?5error?$AA@
$LN4@message:
	mov	edx, DWORD PTR tv69[ebp]
	push	edx
	mov	ecx, DWORD PTR ___$ReturnUdt$[ebp]
	call	??0?$basic_string@DU?$char_traits@D@std@@V?$allocator@D@2@@std@@QAE@PBD@Z ; std::basic_string<char,std::char_traits<char>,std::allocator<char> >::basic_string<char,std::char_traits<char>,std::allocator<char> >
	mov	eax, DWORD PTR $T1[ebp]
	or	eax, 1
	mov	DWORD PTR $T1[ebp], eax
	mov	eax, DWORD PTR ___$ReturnUdt$[ebp]

; 637  : 		}

	mov	esp, ebp
	pop	ebp
	ret	8
?message@_System_error_category@std@@UBE?AV?$basic_string@DU?$char_traits@D@std@@V?$allocator@D@2@@2@H@Z ENDP ; std::_System_error_category::message
_TEXT	ENDS
; Function compile flags: /Odtp
; File c:\program files (x86)\microsoft visual studio 11.0\vc\include\system_error
;	COMDAT ?name@_System_error_category@std@@UBEPBDXZ
_TEXT	SEGMENT
_this$ = -4						; size = 4
?name@_System_error_category@std@@UBEPBDXZ PROC		; std::_System_error_category::name, COMDAT
; _this$ = ecx

; 629  : 		{	// get name of category

	push	ebp
	mov	ebp, esp
	push	ecx
	mov	DWORD PTR _this$[ebp], ecx

; 630  : 		return ("system");

	mov	eax, OFFSET ??_C@_06FHFOAHML@system?$AA@

; 631  : 		}

	mov	esp, ebp
	pop	ebp
	ret	0
?name@_System_error_category@std@@UBEPBDXZ ENDP		; std::_System_error_category::name
_TEXT	ENDS
; Function compile flags: /Odtp
; File c:\program files (x86)\microsoft visual studio 11.0\vc\include\system_error
;	COMDAT ??0_System_error_category@std@@QAE@XZ
_TEXT	SEGMENT
_this$ = -4						; size = 4
??0_System_error_category@std@@QAE@XZ PROC		; std::_System_error_category::_System_error_category, COMDAT
; _this$ = ecx

; 624  : 	_System_error_category()

	push	ebp
	mov	ebp, esp
	push	ecx
	mov	DWORD PTR _this$[ebp], ecx
	mov	ecx, DWORD PTR _this$[ebp]
	call	??0_Generic_error_category@std@@QAE@XZ	; std::_Generic_error_category::_Generic_error_category
	mov	eax, DWORD PTR _this$[ebp]
	mov	DWORD PTR [eax], OFFSET ??_7_System_error_category@std@@6B@

; 625  : 		{	// default constructor
; 626  : 		}

	mov	eax, DWORD PTR _this$[ebp]
	mov	esp, ebp
	pop	ebp
	ret	0
??0_System_error_category@std@@QAE@XZ ENDP		; std::_System_error_category::_System_error_category
_TEXT	ENDS
; Function compile flags: /Odtp
;	COMDAT ??_G_Iostream_error_category@std@@UAEPAXI@Z
_TEXT	SEGMENT
_this$ = -4						; size = 4
___flags$ = 8						; size = 4
??_G_Iostream_error_category@std@@UAEPAXI@Z PROC	; std::_Iostream_error_category::`scalar deleting destructor', COMDAT
; _this$ = ecx
	push	ebp
	mov	ebp, esp
	push	ecx
	mov	DWORD PTR _this$[ebp], ecx
	mov	ecx, DWORD PTR _this$[ebp]
	call	??1_Iostream_error_category@std@@UAE@XZ
	mov	eax, DWORD PTR ___flags$[ebp]
	and	eax, 1
	je	SHORT $LN1@scalar
	mov	ecx, DWORD PTR _this$[ebp]
	push	ecx
	call	??3@YAXPAX@Z				; operator delete
	add	esp, 4
$LN1@scalar:
	mov	eax, DWORD PTR _this$[ebp]
	mov	esp, ebp
	pop	ebp
	ret	4
??_G_Iostream_error_category@std@@UAEPAXI@Z ENDP	; std::_Iostream_error_category::`scalar deleting destructor'
_TEXT	ENDS
; Function compile flags: /Odtp
;	COMDAT ??1_Iostream_error_category@std@@UAE@XZ
_TEXT	SEGMENT
_this$ = -4						; size = 4
??1_Iostream_error_category@std@@UAE@XZ PROC		; std::_Iostream_error_category::~_Iostream_error_category, COMDAT
; _this$ = ecx
	push	ebp
	mov	ebp, esp
	push	ecx
	mov	DWORD PTR _this$[ebp], ecx
	mov	ecx, DWORD PTR _this$[ebp]
	call	??1_Generic_error_category@std@@UAE@XZ
	mov	esp, ebp
	pop	ebp
	ret	0
??1_Iostream_error_category@std@@UAE@XZ ENDP		; std::_Iostream_error_category::~_Iostream_error_category
_TEXT	ENDS
; Function compile flags: /Odtp
; File c:\program files (x86)\microsoft visual studio 11.0\vc\include\system_error
;	COMDAT ?message@_Iostream_error_category@std@@UBE?AV?$basic_string@DU?$char_traits@D@std@@V?$allocator@D@2@@2@H@Z
_TEXT	SEGMENT
_this$ = -8						; size = 4
$T1 = -4						; size = 4
___$ReturnUdt$ = 8					; size = 4
__Errcode$ = 12						; size = 4
?message@_Iostream_error_category@std@@UBE?AV?$basic_string@DU?$char_traits@D@std@@V?$allocator@D@2@@2@H@Z PROC ; std::_Iostream_error_category::message, COMDAT
; _this$ = ecx

; 611  : 		{	// convert to name of error

	push	ebp
	mov	ebp, esp
	sub	esp, 8
	mov	DWORD PTR _this$[ebp], ecx
	mov	DWORD PTR $T1[ebp], 0

; 612  : 		if (_Errcode == (int)io_errc::stream)

	cmp	DWORD PTR __Errcode$[ebp], 1
	jne	SHORT $LN2@message

; 613  : 			return ("iostream stream error");

	push	OFFSET ??_C@_0BG@PADBLCHM@iostream?5stream?5error?$AA@
	mov	ecx, DWORD PTR ___$ReturnUdt$[ebp]
	call	??0?$basic_string@DU?$char_traits@D@std@@V?$allocator@D@2@@std@@QAE@PBD@Z ; std::basic_string<char,std::char_traits<char>,std::allocator<char> >::basic_string<char,std::char_traits<char>,std::allocator<char> >
	mov	eax, DWORD PTR $T1[ebp]
	or	eax, 1
	mov	DWORD PTR $T1[ebp], eax
	mov	eax, DWORD PTR ___$ReturnUdt$[ebp]
	jmp	SHORT $LN3@message

; 614  : 		else

	jmp	SHORT $LN3@message
$LN2@message:

; 615  : 			return (_Generic_error_category::message(_Errcode));

	mov	ecx, DWORD PTR __Errcode$[ebp]
	push	ecx
	mov	edx, DWORD PTR ___$ReturnUdt$[ebp]
	push	edx
	mov	ecx, DWORD PTR _this$[ebp]
	call	?message@_Generic_error_category@std@@UBE?AV?$basic_string@DU?$char_traits@D@std@@V?$allocator@D@2@@2@H@Z ; std::_Generic_error_category::message
	mov	eax, DWORD PTR $T1[ebp]
	or	eax, 1
	mov	DWORD PTR $T1[ebp], eax
	mov	eax, DWORD PTR ___$ReturnUdt$[ebp]
$LN3@message:

; 616  : 		}

	mov	esp, ebp
	pop	ebp
	ret	8
?message@_Iostream_error_category@std@@UBE?AV?$basic_string@DU?$char_traits@D@std@@V?$allocator@D@2@@2@H@Z ENDP ; std::_Iostream_error_category::message
_TEXT	ENDS
; Function compile flags: /Odtp
; File c:\program files (x86)\microsoft visual studio 11.0\vc\include\system_error
;	COMDAT ?name@_Iostream_error_category@std@@UBEPBDXZ
_TEXT	SEGMENT
_this$ = -4						; size = 4
?name@_Iostream_error_category@std@@UBEPBDXZ PROC	; std::_Iostream_error_category::name, COMDAT
; _this$ = ecx

; 606  : 		{	// get name of category

	push	ebp
	mov	ebp, esp
	push	ecx
	mov	DWORD PTR _this$[ebp], ecx

; 607  : 		return ("iostream");

	mov	eax, OFFSET ??_C@_08LLGCOLLL@iostream?$AA@

; 608  : 		}

	mov	esp, ebp
	pop	ebp
	ret	0
?name@_Iostream_error_category@std@@UBEPBDXZ ENDP	; std::_Iostream_error_category::name
_TEXT	ENDS
; Function compile flags: /Odtp
; File c:\program files (x86)\microsoft visual studio 11.0\vc\include\system_error
;	COMDAT ??0_Iostream_error_category@std@@QAE@XZ
_TEXT	SEGMENT
_this$ = -4						; size = 4
??0_Iostream_error_category@std@@QAE@XZ PROC		; std::_Iostream_error_category::_Iostream_error_category, COMDAT
; _this$ = ecx

; 601  : 	_Iostream_error_category()

	push	ebp
	mov	ebp, esp
	push	ecx
	mov	DWORD PTR _this$[ebp], ecx
	mov	ecx, DWORD PTR _this$[ebp]
	call	??0_Generic_error_category@std@@QAE@XZ	; std::_Generic_error_category::_Generic_error_category
	mov	eax, DWORD PTR _this$[ebp]
	mov	DWORD PTR [eax], OFFSET ??_7_Iostream_error_category@std@@6B@

; 602  : 		{	// default constructor
; 603  : 		}

	mov	eax, DWORD PTR _this$[ebp]
	mov	esp, ebp
	pop	ebp
	ret	0
??0_Iostream_error_category@std@@QAE@XZ ENDP		; std::_Iostream_error_category::_Iostream_error_category
_TEXT	ENDS
; Function compile flags: /Odtp
;	COMDAT ??_G_Generic_error_category@std@@UAEPAXI@Z
_TEXT	SEGMENT
_this$ = -4						; size = 4
___flags$ = 8						; size = 4
??_G_Generic_error_category@std@@UAEPAXI@Z PROC		; std::_Generic_error_category::`scalar deleting destructor', COMDAT
; _this$ = ecx
	push	ebp
	mov	ebp, esp
	push	ecx
	mov	DWORD PTR _this$[ebp], ecx
	mov	ecx, DWORD PTR _this$[ebp]
	call	??1_Generic_error_category@std@@UAE@XZ
	mov	eax, DWORD PTR ___flags$[ebp]
	and	eax, 1
	je	SHORT $LN1@scalar
	mov	ecx, DWORD PTR _this$[ebp]
	push	ecx
	call	??3@YAXPAX@Z				; operator delete
	add	esp, 4
$LN1@scalar:
	mov	eax, DWORD PTR _this$[ebp]
	mov	esp, ebp
	pop	ebp
	ret	4
??_G_Generic_error_category@std@@UAEPAXI@Z ENDP		; std::_Generic_error_category::`scalar deleting destructor'
_TEXT	ENDS
; Function compile flags: /Odtp
;	COMDAT ??1_Generic_error_category@std@@UAE@XZ
_TEXT	SEGMENT
_this$ = -4						; size = 4
??1_Generic_error_category@std@@UAE@XZ PROC		; std::_Generic_error_category::~_Generic_error_category, COMDAT
; _this$ = ecx
	push	ebp
	mov	ebp, esp
	push	ecx
	mov	DWORD PTR _this$[ebp], ecx
	mov	ecx, DWORD PTR _this$[ebp]
	call	??1error_category@std@@UAE@XZ		; std::error_category::~error_category
	mov	esp, ebp
	pop	ebp
	ret	0
??1_Generic_error_category@std@@UAE@XZ ENDP		; std::_Generic_error_category::~_Generic_error_category
_TEXT	ENDS
; Function compile flags: /Odtp
; File c:\program files (x86)\microsoft visual studio 11.0\vc\include\system_error
;	COMDAT ?message@_Generic_error_category@std@@UBE?AV?$basic_string@DU?$char_traits@D@std@@V?$allocator@D@2@@2@H@Z
_TEXT	SEGMENT
_this$ = -16						; size = 4
$T1 = -12						; size = 4
tv69 = -8						; size = 4
__Name$ = -4						; size = 4
___$ReturnUdt$ = 8					; size = 4
__Errcode$ = 12						; size = 4
?message@_Generic_error_category@std@@UBE?AV?$basic_string@DU?$char_traits@D@std@@V?$allocator@D@2@@2@H@Z PROC ; std::_Generic_error_category::message, COMDAT
; _this$ = ecx

; 590  : 		{	// convert to name of error

	push	ebp
	mov	ebp, esp
	sub	esp, 16					; 00000010H
	mov	DWORD PTR _this$[ebp], ecx
	mov	DWORD PTR $T1[ebp], 0

; 591  : 		const char *_Name = _Syserror_map(_Errcode);

	mov	eax, DWORD PTR __Errcode$[ebp]
	push	eax
	call	?_Syserror_map@std@@YAPBDH@Z		; std::_Syserror_map
	add	esp, 4
	mov	DWORD PTR __Name$[ebp], eax

; 592  : 		return (string(_Name != 0 ? _Name : "unknown error"));

	cmp	DWORD PTR __Name$[ebp], 0
	je	SHORT $LN3@message
	mov	ecx, DWORD PTR __Name$[ebp]
	mov	DWORD PTR tv69[ebp], ecx
	jmp	SHORT $LN4@message
$LN3@message:
	mov	DWORD PTR tv69[ebp], OFFSET ??_C@_0O@BFJCFAAK@unknown?5error?$AA@
$LN4@message:
	mov	edx, DWORD PTR tv69[ebp]
	push	edx
	mov	ecx, DWORD PTR ___$ReturnUdt$[ebp]
	call	??0?$basic_string@DU?$char_traits@D@std@@V?$allocator@D@2@@std@@QAE@PBD@Z ; std::basic_string<char,std::char_traits<char>,std::allocator<char> >::basic_string<char,std::char_traits<char>,std::allocator<char> >
	mov	eax, DWORD PTR $T1[ebp]
	or	eax, 1
	mov	DWORD PTR $T1[ebp], eax
	mov	eax, DWORD PTR ___$ReturnUdt$[ebp]

; 593  : 		}

	mov	esp, ebp
	pop	ebp
	ret	8
?message@_Generic_error_category@std@@UBE?AV?$basic_string@DU?$char_traits@D@std@@V?$allocator@D@2@@2@H@Z ENDP ; std::_Generic_error_category::message
_TEXT	ENDS
; Function compile flags: /Odtp
; File c:\program files (x86)\microsoft visual studio 11.0\vc\include\system_error
;	COMDAT ?name@_Generic_error_category@std@@UBEPBDXZ
_TEXT	SEGMENT
_this$ = -4						; size = 4
?name@_Generic_error_category@std@@UBEPBDXZ PROC	; std::_Generic_error_category::name, COMDAT
; _this$ = ecx

; 585  : 		{	// get name of category

	push	ebp
	mov	ebp, esp
	push	ecx
	mov	DWORD PTR _this$[ebp], ecx

; 586  : 		return ("generic");

	mov	eax, OFFSET ??_C@_07DCLBNMLN@generic?$AA@

; 587  : 		}

	mov	esp, ebp
	pop	ebp
	ret	0
?name@_Generic_error_category@std@@UBEPBDXZ ENDP	; std::_Generic_error_category::name
_TEXT	ENDS
; Function compile flags: /Odtp
; File c:\program files (x86)\microsoft visual studio 11.0\vc\include\system_error
;	COMDAT ??0_Generic_error_category@std@@QAE@XZ
_TEXT	SEGMENT
_this$ = -4						; size = 4
??0_Generic_error_category@std@@QAE@XZ PROC		; std::_Generic_error_category::_Generic_error_category, COMDAT
; _this$ = ecx

; 580  : 	_Generic_error_category()

	push	ebp
	mov	ebp, esp
	push	ecx
	mov	DWORD PTR _this$[ebp], ecx
	mov	ecx, DWORD PTR _this$[ebp]
	call	??0error_category@std@@QAE@XZ		; std::error_category::error_category
	mov	eax, DWORD PTR _this$[ebp]
	mov	DWORD PTR [eax], OFFSET ??_7_Generic_error_category@std@@6B@

; 581  : 		{	// default constructor
; 582  : 		}

	mov	eax, DWORD PTR _this$[ebp]
	mov	esp, ebp
	pop	ebp
	ret	0
??0_Generic_error_category@std@@QAE@XZ ENDP		; std::_Generic_error_category::_Generic_error_category
_TEXT	ENDS
; Function compile flags: /Odtp
; File c:\program files (x86)\microsoft visual studio 11.0\vc\include\system_error
;	COMDAT ??8error_condition@std@@QBE_NABV01@@Z
_TEXT	SEGMENT
tv78 = -8						; size = 4
_this$ = -4						; size = 4
__Right$ = 8						; size = 4
??8error_condition@std@@QBE_NABV01@@Z PROC		; std::error_condition::operator==, COMDAT
; _this$ = ecx

; 376  : 		{	// test if *this == _Right

	push	ebp
	mov	ebp, esp
	sub	esp, 8
	push	esi
	mov	DWORD PTR _this$[ebp], ecx

; 377  : 		return (category() == _Right.category()
; 378  : 			&& value() == _Right.value());

	mov	ecx, DWORD PTR __Right$[ebp]
	call	?category@error_condition@std@@QBEABVerror_category@2@XZ ; std::error_condition::category
	push	eax
	mov	ecx, DWORD PTR _this$[ebp]
	call	?category@error_condition@std@@QBEABVerror_category@2@XZ ; std::error_condition::category
	mov	ecx, eax
	call	??8error_category@std@@QBE_NABV01@@Z	; std::error_category::operator==
	movzx	eax, al
	test	eax, eax
	je	SHORT $LN3@operator
	mov	ecx, DWORD PTR _this$[ebp]
	call	?value@error_condition@std@@QBEHXZ	; std::error_condition::value
	mov	esi, eax
	mov	ecx, DWORD PTR __Right$[ebp]
	call	?value@error_condition@std@@QBEHXZ	; std::error_condition::value
	cmp	esi, eax
	jne	SHORT $LN3@operator
	mov	DWORD PTR tv78[ebp], 1
	jmp	SHORT $LN4@operator
$LN3@operator:
	mov	DWORD PTR tv78[ebp], 0
$LN4@operator:
	mov	al, BYTE PTR tv78[ebp]

; 379  : 		}

	pop	esi
	mov	esp, ebp
	pop	ebp
	ret	4
??8error_condition@std@@QBE_NABV01@@Z ENDP		; std::error_condition::operator==
_TEXT	ENDS
; Function compile flags: /Odtp
; File c:\program files (x86)\microsoft visual studio 11.0\vc\include\system_error
;	COMDAT ?category@error_condition@std@@QBEABVerror_category@2@XZ
_TEXT	SEGMENT
_this$ = -4						; size = 4
?category@error_condition@std@@QBEABVerror_category@2@XZ PROC ; std::error_condition::category, COMDAT
; _this$ = ecx

; 354  : 		{	// get category

	push	ebp
	mov	ebp, esp
	push	ecx
	mov	DWORD PTR _this$[ebp], ecx

; 355  : 		return (*_Mycat);

	mov	eax, DWORD PTR _this$[ebp]
	mov	eax, DWORD PTR [eax+4]

; 356  : 		}

	mov	esp, ebp
	pop	ebp
	ret	0
?category@error_condition@std@@QBEABVerror_category@2@XZ ENDP ; std::error_condition::category
_TEXT	ENDS
; Function compile flags: /Odtp
; File c:\program files (x86)\microsoft visual studio 11.0\vc\include\system_error
;	COMDAT ?value@error_condition@std@@QBEHXZ
_TEXT	SEGMENT
_this$ = -4						; size = 4
?value@error_condition@std@@QBEHXZ PROC			; std::error_condition::value, COMDAT
; _this$ = ecx

; 349  : 		{	// get error code

	push	ebp
	mov	ebp, esp
	push	ecx
	mov	DWORD PTR _this$[ebp], ecx

; 350  : 		return (_Myval);

	mov	eax, DWORD PTR _this$[ebp]
	mov	eax, DWORD PTR [eax]

; 351  : 		}

	mov	esp, ebp
	pop	ebp
	ret	0
?value@error_condition@std@@QBEHXZ ENDP			; std::error_condition::value
_TEXT	ENDS
; Function compile flags: /Odtp
; File c:\program files (x86)\microsoft visual studio 11.0\vc\include\system_error
;	COMDAT ??0error_condition@std@@QAE@HABVerror_category@1@@Z
_TEXT	SEGMENT
_this$ = -4						; size = 4
__Val$ = 8						; size = 4
__Cat$ = 12						; size = 4
??0error_condition@std@@QAE@HABVerror_category@1@@Z PROC ; std::error_condition::error_condition, COMDAT
; _this$ = ecx

; 316  : 		{	// construct from error code and category

	push	ebp
	mov	ebp, esp
	push	ecx
	mov	DWORD PTR _this$[ebp], ecx
	mov	eax, DWORD PTR _this$[ebp]
	mov	ecx, DWORD PTR __Val$[ebp]
	mov	DWORD PTR [eax], ecx
	mov	edx, DWORD PTR _this$[ebp]
	mov	eax, DWORD PTR __Cat$[ebp]
	mov	DWORD PTR [edx+4], eax

; 317  : 		}

	mov	eax, DWORD PTR _this$[ebp]
	mov	esp, ebp
	pop	ebp
	ret	8
??0error_condition@std@@QAE@HABVerror_category@1@@Z ENDP ; std::error_condition::error_condition
_TEXT	ENDS
; Function compile flags: /Odtp
; File c:\program files (x86)\microsoft visual studio 11.0\vc\include\system_error
;	COMDAT ?category@error_code@std@@QBEABVerror_category@2@XZ
_TEXT	SEGMENT
_this$ = -4						; size = 4
?category@error_code@std@@QBEABVerror_category@2@XZ PROC ; std::error_code::category, COMDAT
; _this$ = ecx

; 256  : 		{	// get category

	push	ebp
	mov	ebp, esp
	push	ecx
	mov	DWORD PTR _this$[ebp], ecx

; 257  : 		return (*_Mycat);

	mov	eax, DWORD PTR _this$[ebp]
	mov	eax, DWORD PTR [eax+4]

; 258  : 		}

	mov	esp, ebp
	pop	ebp
	ret	0
?category@error_code@std@@QBEABVerror_category@2@XZ ENDP ; std::error_code::category
_TEXT	ENDS
; Function compile flags: /Odtp
; File c:\program files (x86)\microsoft visual studio 11.0\vc\include\system_error
;	COMDAT ?value@error_code@std@@QBEHXZ
_TEXT	SEGMENT
_this$ = -4						; size = 4
?value@error_code@std@@QBEHXZ PROC			; std::error_code::value, COMDAT
; _this$ = ecx

; 251  : 		{	// get error code

	push	ebp
	mov	ebp, esp
	push	ecx
	mov	DWORD PTR _this$[ebp], ecx

; 252  : 		return (_Myval);

	mov	eax, DWORD PTR _this$[ebp]
	mov	eax, DWORD PTR [eax]

; 253  : 		}

	mov	esp, ebp
	pop	ebp
	ret	0
?value@error_code@std@@QBEHXZ ENDP			; std::error_code::value
_TEXT	ENDS
; Function compile flags: /Odtp
;	COMDAT ??_Gerror_category@std@@UAEPAXI@Z
_TEXT	SEGMENT
_this$ = -4						; size = 4
___flags$ = 8						; size = 4
??_Gerror_category@std@@UAEPAXI@Z PROC			; std::error_category::`scalar deleting destructor', COMDAT
; _this$ = ecx
	push	ebp
	mov	ebp, esp
	push	ecx
	mov	DWORD PTR _this$[ebp], ecx
	mov	ecx, DWORD PTR _this$[ebp]
	call	??1error_category@std@@UAE@XZ		; std::error_category::~error_category
	mov	eax, DWORD PTR ___flags$[ebp]
	and	eax, 1
	je	SHORT $LN1@scalar
	mov	ecx, DWORD PTR _this$[ebp]
	push	ecx
	call	??3@YAXPAX@Z				; operator delete
	add	esp, 4
$LN1@scalar:
	mov	eax, DWORD PTR _this$[ebp]
	mov	esp, ebp
	pop	ebp
	ret	4
??_Gerror_category@std@@UAEPAXI@Z ENDP			; std::error_category::`scalar deleting destructor'
_TEXT	ENDS
; Function compile flags: /Odtp
; File c:\program files (x86)\microsoft visual studio 11.0\vc\include\system_error
;	COMDAT ??8error_category@std@@QBE_NABV01@@Z
_TEXT	SEGMENT
_this$ = -8						; size = 4
tv65 = -4						; size = 4
__Right$ = 8						; size = 4
??8error_category@std@@QBE_NABV01@@Z PROC		; std::error_category::operator==, COMDAT
; _this$ = ecx

; 184  : 		{	// compare categories for equality

	push	ebp
	mov	ebp, esp
	sub	esp, 8
	mov	DWORD PTR _this$[ebp], ecx

; 185  : 		return (this == &_Right);

	mov	eax, DWORD PTR _this$[ebp]
	cmp	eax, DWORD PTR __Right$[ebp]
	jne	SHORT $LN3@operator
	mov	DWORD PTR tv65[ebp], 1
	jmp	SHORT $LN4@operator
$LN3@operator:
	mov	DWORD PTR tv65[ebp], 0
$LN4@operator:
	mov	al, BYTE PTR tv65[ebp]

; 186  : 		}

	mov	esp, ebp
	pop	ebp
	ret	4
??8error_category@std@@QBE_NABV01@@Z ENDP		; std::error_category::operator==
_TEXT	ENDS
; Function compile flags: /Odtp
; File c:\program files (x86)\microsoft visual studio 11.0\vc\include\system_error
;	COMDAT ?equivalent@error_category@std@@UBE_NABVerror_code@2@H@Z
_TEXT	SEGMENT
_this$ = -8						; size = 4
tv74 = -4						; size = 4
__Code$ = 8						; size = 4
__Errval$ = 12						; size = 4
?equivalent@error_category@std@@UBE_NABVerror_code@2@H@Z PROC ; std::error_category::equivalent, COMDAT
; _this$ = ecx

; 415  : 	{	// test if conditions same for this category

	push	ebp
	mov	ebp, esp
	sub	esp, 8
	mov	DWORD PTR _this$[ebp], ecx

; 416  : 	return (*this == _Code.category() && _Code.value() == _Errval);

	mov	ecx, DWORD PTR __Code$[ebp]
	call	?category@error_code@std@@QBEABVerror_category@2@XZ ; std::error_code::category
	push	eax
	mov	ecx, DWORD PTR _this$[ebp]
	call	??8error_category@std@@QBE_NABV01@@Z	; std::error_category::operator==
	movzx	eax, al
	test	eax, eax
	je	SHORT $LN3@equivalent
	mov	ecx, DWORD PTR __Code$[ebp]
	call	?value@error_code@std@@QBEHXZ		; std::error_code::value
	cmp	eax, DWORD PTR __Errval$[ebp]
	jne	SHORT $LN3@equivalent
	mov	DWORD PTR tv74[ebp], 1
	jmp	SHORT $LN4@equivalent
$LN3@equivalent:
	mov	DWORD PTR tv74[ebp], 0
$LN4@equivalent:
	mov	al, BYTE PTR tv74[ebp]

; 417  : 	}

	mov	esp, ebp
	pop	ebp
	ret	8
?equivalent@error_category@std@@UBE_NABVerror_code@2@H@Z ENDP ; std::error_category::equivalent
_TEXT	ENDS
; Function compile flags: /Odtp
; File c:\program files (x86)\microsoft visual studio 11.0\vc\include\system_error
;	COMDAT ?equivalent@error_category@std@@UBE_NHABVerror_condition@2@@Z
_TEXT	SEGMENT
$T1 = -12						; size = 8
_this$ = -4						; size = 4
__Errval$ = 8						; size = 4
__Cond$ = 12						; size = 4
?equivalent@error_category@std@@UBE_NHABVerror_condition@2@@Z PROC ; std::error_category::equivalent, COMDAT
; _this$ = ecx

; 408  : 	{	// test if error code same condition

	push	ebp
	mov	ebp, esp
	sub	esp, 12					; 0000000cH
	mov	DWORD PTR _this$[ebp], ecx

; 409  : 	return (default_error_condition(_Errval) == _Cond);

	mov	eax, DWORD PTR __Cond$[ebp]
	push	eax
	mov	ecx, DWORD PTR __Errval$[ebp]
	push	ecx
	lea	edx, DWORD PTR $T1[ebp]
	push	edx
	mov	eax, DWORD PTR _this$[ebp]
	mov	edx, DWORD PTR [eax]
	mov	ecx, DWORD PTR _this$[ebp]
	mov	eax, DWORD PTR [edx+12]
	call	eax
	mov	ecx, eax
	call	??8error_condition@std@@QBE_NABV01@@Z	; std::error_condition::operator==

; 410  : 	}

	mov	esp, ebp
	pop	ebp
	ret	8
?equivalent@error_category@std@@UBE_NHABVerror_condition@2@@Z ENDP ; std::error_category::equivalent
_TEXT	ENDS
; Function compile flags: /Odtp
; File c:\program files (x86)\microsoft visual studio 11.0\vc\include\system_error
;	COMDAT ?default_error_condition@error_category@std@@UBE?AVerror_condition@2@H@Z
_TEXT	SEGMENT
_this$ = -4						; size = 4
___$ReturnUdt$ = 8					; size = 4
__Errval$ = 12						; size = 4
?default_error_condition@error_category@std@@UBE?AVerror_condition@2@H@Z PROC ; std::error_category::default_error_condition, COMDAT
; _this$ = ecx

; 401  : 	{	// make error_condition for error code

	push	ebp
	mov	ebp, esp
	push	ecx
	mov	DWORD PTR _this$[ebp], ecx

; 402  : 	return (error_condition(_Errval, *this));

	mov	eax, DWORD PTR _this$[ebp]
	push	eax
	mov	ecx, DWORD PTR __Errval$[ebp]
	push	ecx
	mov	ecx, DWORD PTR ___$ReturnUdt$[ebp]
	call	??0error_condition@std@@QAE@HABVerror_category@1@@Z ; std::error_condition::error_condition
	mov	eax, DWORD PTR ___$ReturnUdt$[ebp]

; 403  : 	}

	mov	esp, ebp
	pop	ebp
	ret	8
?default_error_condition@error_category@std@@UBE?AVerror_condition@2@H@Z ENDP ; std::error_category::default_error_condition
_TEXT	ENDS
; Function compile flags: /Odtp
; File c:\program files (x86)\microsoft visual studio 11.0\vc\include\system_error
;	COMDAT ??1error_category@std@@UAE@XZ
_TEXT	SEGMENT
_this$ = -4						; size = 4
??1error_category@std@@UAE@XZ PROC			; std::error_category::~error_category, COMDAT
; _this$ = ecx

; 167  : 		{	// destroy the object

	push	ebp
	mov	ebp, esp
	push	ecx
	mov	DWORD PTR _this$[ebp], ecx
	mov	eax, DWORD PTR _this$[ebp]
	mov	DWORD PTR [eax], OFFSET ??_7error_category@std@@6B@

; 168  : 		}

	mov	esp, ebp
	pop	ebp
	ret	0
??1error_category@std@@UAE@XZ ENDP			; std::error_category::~error_category
_TEXT	ENDS
; Function compile flags: /Odtp
; File c:\program files (x86)\microsoft visual studio 11.0\vc\include\system_error
;	COMDAT ??0error_category@std@@QAE@XZ
_TEXT	SEGMENT
_this$ = -4						; size = 4
??0error_category@std@@QAE@XZ PROC			; std::error_category::error_category, COMDAT
; _this$ = ecx

; 162  : 	error_category()

	push	ebp
	mov	ebp, esp
	push	ecx
	mov	DWORD PTR _this$[ebp], ecx
	mov	eax, DWORD PTR _this$[ebp]
	mov	DWORD PTR [eax], OFFSET ??_7error_category@std@@6B@

; 163  : 		{	// default constructor
; 164  : 		}

	mov	eax, DWORD PTR _this$[ebp]
	mov	esp, ebp
	pop	ebp
	ret	0
??0error_category@std@@QAE@XZ ENDP			; std::error_category::error_category
_TEXT	ENDS
; Function compile flags: /Odtp
; File c:\program files (x86)\microsoft visual studio 11.0\vc\include\system_error
;	COMDAT ?system_category@std@@YAABVerror_category@1@XZ
_TEXT	SEGMENT
?system_category@std@@YAABVerror_category@1@XZ PROC	; std::system_category, COMDAT

; 679  : 	{	// get system_category

	push	ebp
	mov	ebp, esp

; 680  : 	return (_Error_objects<int>::_System_object);

	mov	eax, OFFSET ?_System_object@?$_Error_objects@H@std@@2V_System_error_category@2@A ; std::_Error_objects<int>::_System_object

; 681  : 	}

	pop	ebp
	ret	0
?system_category@std@@YAABVerror_category@1@XZ ENDP	; std::system_category
_TEXT	ENDS
; Function compile flags: /Odtp
; File c:\program files (x86)\microsoft visual studio 11.0\vc\include\system_error
;	COMDAT ?generic_category@std@@YAABVerror_category@1@XZ
_TEXT	SEGMENT
?generic_category@std@@YAABVerror_category@1@XZ PROC	; std::generic_category, COMDAT

; 669  : 	{	// get generic_category

	push	ebp
	mov	ebp, esp

; 670  : 	return (_Error_objects<int>::_Generic_object);

	mov	eax, OFFSET ?_Generic_object@?$_Error_objects@H@std@@2V_Generic_error_category@2@A ; std::_Error_objects<int>::_Generic_object

; 671  : 	}

	pop	ebp
	ret	0
?generic_category@std@@YAABVerror_category@1@XZ ENDP	; std::generic_category
_TEXT	ENDS
; Function compile flags: /Odtp
; File c:\program files (x86)\microsoft visual studio 11.0\vc\include\xlocale
;	COMDAT ??0id@locale@std@@QAE@I@Z
_TEXT	SEGMENT
_this$ = -4						; size = 4
__Val$ = 8						; size = 4
??0id@locale@std@@QAE@I@Z PROC				; std::locale::id::id, COMDAT
; _this$ = ecx

; 74   : 			{	// construct with specified stamp value

	push	ebp
	mov	ebp, esp
	push	ecx
	mov	DWORD PTR _this$[ebp], ecx
	mov	eax, DWORD PTR _this$[ebp]
	mov	ecx, DWORD PTR __Val$[ebp]
	mov	DWORD PTR [eax], ecx

; 75   : 			}

	mov	eax, DWORD PTR _this$[ebp]
	mov	esp, ebp
	pop	ebp
	ret	4
??0id@locale@std@@QAE@I@Z ENDP				; std::locale::id::id
_TEXT	ENDS
; Function compile flags: /Odtp
; File c:\users\zhitao li\documents\visual studio 2012\projects\freefalcon\sim\include\sms.h
;	COMDAT ?SetAGBPair@SMSClass@@QAEX_N@Z
_TEXT	SEGMENT
_this$ = -4						; size = 4
_x$ = 8							; size = 1
?SetAGBPair@SMSClass@@QAEX_N@Z PROC			; SMSClass::SetAGBPair, COMDAT
; _this$ = ecx

; 325  : 	void SetAGBPair(bool x)           { agbProfile[curProfile].releasePair    = x; }

	push	ebp
	mov	ebp, esp
	push	ecx
	mov	DWORD PTR _this$[ebp], ecx
	mov	eax, DWORD PTR _this$[ebp]
	mov	ecx, DWORD PTR [eax+196]
	imul	ecx, 40					; 00000028H
	mov	edx, DWORD PTR _this$[ebp]
	mov	al, BYTE PTR _x$[ebp]
	mov	BYTE PTR [edx+ecx+232], al
	mov	esp, ebp
	pop	ebp
	ret	4
?SetAGBPair@SMSClass@@QAEX_N@Z ENDP			; SMSClass::SetAGBPair
_TEXT	ENDS
; Function compile flags: /Odtp
; File c:\users\zhitao li\documents\visual studio 2012\projects\freefalcon\sim\include\sms.h
;	COMDAT ?SetAGBBurstAlt@SMSClass@@QAEXH@Z
_TEXT	SEGMENT
_this$ = -4						; size = 4
_x$ = 8							; size = 4
?SetAGBBurstAlt@SMSClass@@QAEXH@Z PROC			; SMSClass::SetAGBBurstAlt, COMDAT
; _this$ = ecx

; 320  : 	void SetAGBBurstAlt(int x)        { agbProfile[curProfile].burstAltitude  = x; }

	push	ebp
	mov	ebp, esp
	push	ecx
	mov	DWORD PTR _this$[ebp], ecx
	mov	eax, DWORD PTR _this$[ebp]
	mov	ecx, DWORD PTR [eax+196]
	imul	ecx, 40					; 00000028H
	mov	edx, DWORD PTR _this$[ebp]
	mov	eax, DWORD PTR _x$[ebp]
	mov	DWORD PTR [edx+ecx+212], eax
	mov	esp, ebp
	pop	ebp
	ret	4
?SetAGBBurstAlt@SMSClass@@QAEXH@Z ENDP			; SMSClass::SetAGBBurstAlt
_TEXT	ENDS
; Function compile flags: /Odtp
; File c:\users\zhitao li\documents\visual studio 2012\projects\freefalcon\sim\include\sms.h
;	COMDAT ?SetAGBRippleCount@SMSClass@@QAEXH@Z
_TEXT	SEGMENT
_this$ = -4						; size = 4
_x$ = 8							; size = 4
?SetAGBRippleCount@SMSClass@@QAEXH@Z PROC		; SMSClass::SetAGBRippleCount, COMDAT
; _this$ = ecx

; 317  : 	void SetAGBRippleCount(int x)     { agbProfile[curProfile].rippleCount    = x; }

	push	ebp
	mov	ebp, esp
	push	ecx
	mov	DWORD PTR _this$[ebp], ecx
	mov	eax, DWORD PTR _this$[ebp]
	mov	ecx, DWORD PTR [eax+196]
	imul	ecx, 40					; 00000028H
	mov	edx, DWORD PTR _this$[ebp]
	mov	eax, DWORD PTR _x$[ebp]
	mov	DWORD PTR [edx+ecx+200], eax
	mov	esp, ebp
	pop	ebp
	ret	4
?SetAGBRippleCount@SMSClass@@QAEXH@Z ENDP		; SMSClass::SetAGBRippleCount
_TEXT	ENDS
; Function compile flags: /Odtp
; File c:\users\zhitao li\documents\visual studio 2012\projects\freefalcon\sim\include\sms.h
;	COMDAT ?GetAGBBurstAlt@SMSClass@@QAEHXZ
_TEXT	SEGMENT
_this$ = -4						; size = 4
?GetAGBBurstAlt@SMSClass@@QAEHXZ PROC			; SMSClass::GetAGBBurstAlt, COMDAT
; _this$ = ecx

; 309  : 	int GetAGBBurstAlt(void)       { return agbProfile[curProfile].burstAltitude;   }

	push	ebp
	mov	ebp, esp
	push	ecx
	mov	DWORD PTR _this$[ebp], ecx
	mov	eax, DWORD PTR _this$[ebp]
	mov	ecx, DWORD PTR [eax+196]
	imul	ecx, 40					; 00000028H
	mov	edx, DWORD PTR _this$[ebp]
	mov	eax, DWORD PTR [edx+ecx+212]
	mov	esp, ebp
	pop	ebp
	ret	0
?GetAGBBurstAlt@SMSClass@@QAEHXZ ENDP			; SMSClass::GetAGBBurstAlt
_TEXT	ENDS
; Function compile flags: /Odtp
; File c:\users\zhitao li\documents\visual studio 2012\projects\freefalcon\sim\include\sms.h
;	COMDAT ?GetAGBRippleInterval@SMSClass@@QAEHXZ
_TEXT	SEGMENT
_this$ = -4						; size = 4
?GetAGBRippleInterval@SMSClass@@QAEHXZ PROC		; SMSClass::GetAGBRippleInterval, COMDAT
; _this$ = ecx

; 307  : 	int GetAGBRippleInterval(void) { return agbProfile[curProfile].rippleInterval;  }

	push	ebp
	mov	ebp, esp
	push	ecx
	mov	DWORD PTR _this$[ebp], ecx
	mov	eax, DWORD PTR _this$[ebp]
	mov	ecx, DWORD PTR [eax+196]
	imul	ecx, 40					; 00000028H
	mov	edx, DWORD PTR _this$[ebp]
	mov	eax, DWORD PTR [edx+ecx+204]
	mov	esp, ebp
	pop	ebp
	ret	0
?GetAGBRippleInterval@SMSClass@@QAEHXZ ENDP		; SMSClass::GetAGBRippleInterval
_TEXT	ENDS
; Function compile flags: /Odtp
; File c:\users\zhitao li\documents\visual studio 2012\projects\freefalcon\sim\include\sms.h
;	COMDAT ?GetAGBRippleCount@SMSClass@@QAEHXZ
_TEXT	SEGMENT
_this$ = -4						; size = 4
?GetAGBRippleCount@SMSClass@@QAEHXZ PROC		; SMSClass::GetAGBRippleCount, COMDAT
; _this$ = ecx

; 306  : 	int GetAGBRippleCount(void)    { return agbProfile[curProfile].rippleCount;     }

	push	ebp
	mov	ebp, esp
	push	ecx
	mov	DWORD PTR _this$[ebp], ecx
	mov	eax, DWORD PTR _this$[ebp]
	mov	ecx, DWORD PTR [eax+196]
	imul	ecx, 40					; 00000028H
	mov	edx, DWORD PTR _this$[ebp]
	mov	eax, DWORD PTR [edx+ecx+200]
	mov	esp, ebp
	pop	ebp
	ret	0
?GetAGBRippleCount@SMSClass@@QAEHXZ ENDP		; SMSClass::GetAGBRippleCount
_TEXT	ENDS
; Function compile flags: /Odtp
; File c:\users\zhitao li\documents\visual studio 2012\projects\freefalcon\sim\include\sms.h
;	COMDAT ?CurRippleCount@SMSClass@@QAEHXZ
_TEXT	SEGMENT
_this$ = -4						; size = 4
?CurRippleCount@SMSClass@@QAEHXZ PROC			; SMSClass::CurRippleCount, COMDAT
; _this$ = ecx

; 255  : 		int  CurRippleCount(void) {return curRippleCount;}; // JB 010708

	push	ebp
	mov	ebp, esp
	push	ecx
	mov	DWORD PTR _this$[ebp], ecx
	mov	eax, DWORD PTR _this$[ebp]
	mov	eax, DWORD PTR [eax+72]
	mov	esp, ebp
	pop	ebp
	ret	0
?CurRippleCount@SMSClass@@QAEHXZ ENDP			; SMSClass::CurRippleCount
_TEXT	ENDS
; Function compile flags: /Odtp
; File c:\users\zhitao li\documents\visual studio 2012\projects\freefalcon\sim\include\sms.h
;	COMDAT ?IsFiringRockets@SMSClass@@QAEHXZ
_TEXT	SEGMENT
_this$ = -4						; size = 4
?IsFiringRockets@SMSClass@@QAEHXZ PROC			; SMSClass::IsFiringRockets, COMDAT
; _this$ = ecx

; 194  : 	int IsFiringRockets( void ) { return runRockets; }

	push	ebp
	mov	ebp, esp
	push	ecx
	mov	DWORD PTR _this$[ebp], ecx
	mov	eax, DWORD PTR _this$[ebp]
	mov	eax, DWORD PTR [eax+84]
	mov	esp, ebp
	pop	ebp
	ret	0
?IsFiringRockets@SMSClass@@QAEHXZ ENDP			; SMSClass::IsFiringRockets
_TEXT	ENDS
; Function compile flags: /Odtp
; File c:\users\zhitao li\documents\visual studio 2012\projects\freefalcon\sim\include\sms.h
;	COMDAT ?NumCurrentWpn@SMSBaseClass@@QAEHXZ
_TEXT	SEGMENT
_this$ = -4						; size = 4
?NumCurrentWpn@SMSBaseClass@@QAEHXZ PROC		; SMSBaseClass::NumCurrentWpn, COMDAT
; _this$ = ecx

; 89   : 	int  NumCurrentWpn(void) {return numCurrentWpn;};

	push	ebp
	mov	ebp, esp
	push	ecx
	mov	DWORD PTR _this$[ebp], ecx
	mov	eax, DWORD PTR _this$[ebp]
	mov	eax, DWORD PTR [eax+48]
	mov	esp, ebp
	pop	ebp
	ret	0
?NumCurrentWpn@SMSBaseClass@@QAEHXZ ENDP		; SMSBaseClass::NumCurrentWpn
_TEXT	ENDS
; Function compile flags: /Odtp
; File c:\users\zhitao li\documents\visual studio 2012\projects\freefalcon\sim\include\sms.h
;	COMDAT ?CurHardpoint@SMSBaseClass@@QAEHXZ
_TEXT	SEGMENT
_this$ = -4						; size = 4
?CurHardpoint@SMSBaseClass@@QAEHXZ PROC			; SMSBaseClass::CurHardpoint, COMDAT
; _this$ = ecx

; 88   : 	int CurHardpoint (void) {return curHardpoint;};

	push	ebp
	mov	ebp, esp
	push	ecx
	mov	DWORD PTR _this$[ebp], ecx
	mov	eax, DWORD PTR _this$[ebp]
	mov	eax, DWORD PTR [eax+44]
	mov	esp, ebp
	pop	ebp
	ret	0
?CurHardpoint@SMSBaseClass@@QAEHXZ ENDP			; SMSBaseClass::CurHardpoint
_TEXT	ENDS
; Function compile flags: /Odtp
; File c:\users\zhitao li\documents\visual studio 2012\projects\freefalcon\sim\include\sms.h
;	COMDAT ?NumHardpoints@SMSBaseClass@@QAEHXZ
_TEXT	SEGMENT
_this$ = -4						; size = 4
?NumHardpoints@SMSBaseClass@@QAEHXZ PROC		; SMSBaseClass::NumHardpoints, COMDAT
; _this$ = ecx

; 87   : 	int NumHardpoints (void) {return numHardpoints;};

	push	ebp
	mov	ebp, esp
	push	ecx
	mov	DWORD PTR _this$[ebp], ecx
	mov	eax, DWORD PTR _this$[ebp]
	mov	eax, DWORD PTR [eax+40]
	mov	esp, ebp
	pop	ebp
	ret	0
?NumHardpoints@SMSBaseClass@@QAEHXZ ENDP		; SMSBaseClass::NumHardpoints
_TEXT	ENDS
; Function compile flags: /Odtp
; File c:\users\zhitao li\documents\visual studio 2012\projects\freefalcon\sim\include\fcc.h
;	COMDAT ?SetBombReleaseOverride@FireControlComputer@@QAEXH@Z
_TEXT	SEGMENT
_this$ = -4						; size = 4
_newVal$ = 8						; size = 4
?SetBombReleaseOverride@FireControlComputer@@QAEXH@Z PROC ; FireControlComputer::SetBombReleaseOverride, COMDAT
; _this$ = ecx

; 297  :    void SetBombReleaseOverride (int newVal) {bombReleaseOverride = newVal;};

	push	ebp
	mov	ebp, esp
	push	ecx
	mov	DWORD PTR _this$[ebp], ecx
	mov	eax, DWORD PTR _this$[ebp]
	mov	ecx, DWORD PTR _newVal$[ebp]
	mov	DWORD PTR [eax+100], ecx
	mov	esp, ebp
	pop	ebp
	ret	4
?SetBombReleaseOverride@FireControlComputer@@QAEXH@Z ENDP ; FireControlComputer::SetBombReleaseOverride
_TEXT	ENDS
; Function compile flags: /Odtp
; File c:\users\zhitao li\documents\visual studio 2012\projects\freefalcon\sim\include\fcc.h
;	COMDAT ?GetSubMode@FireControlComputer@@QAE?AW4FCCSubMode@1@XZ
_TEXT	SEGMENT
_this$ = -4						; size = 4
?GetSubMode@FireControlComputer@@QAE?AW4FCCSubMode@1@XZ PROC ; FireControlComputer::GetSubMode, COMDAT
; _this$ = ecx

; 281  : 	FCCSubMode GetSubMode (void) {return (subMode);};

	push	ebp
	mov	ebp, esp
	push	ecx
	mov	DWORD PTR _this$[ebp], ecx
	mov	eax, DWORD PTR _this$[ebp]
	mov	eax, DWORD PTR [eax+148]
	mov	esp, ebp
	pop	ebp
	ret	0
?GetSubMode@FireControlComputer@@QAE?AW4FCCSubMode@1@XZ ENDP ; FireControlComputer::GetSubMode
_TEXT	ENDS
; Function compile flags: /Odtp
; File c:\users\zhitao li\documents\visual studio 2012\projects\freefalcon\sim\include\fcc.h
;	COMDAT ?GetMasterMode@FireControlComputer@@QAE?AW4FCCMasterMode@1@XZ
_TEXT	SEGMENT
_this$ = -4						; size = 4
?GetMasterMode@FireControlComputer@@QAE?AW4FCCMasterMode@1@XZ PROC ; FireControlComputer::GetMasterMode, COMDAT
; _this$ = ecx

; 276  : 	FCCMasterMode GetMasterMode (void) {return (masterMode);};

	push	ebp
	mov	ebp, esp
	push	ecx
	mov	DWORD PTR _this$[ebp], ecx
	mov	eax, DWORD PTR _this$[ebp]
	mov	eax, DWORD PTR [eax+144]
	mov	esp, ebp
	pop	ebp
	ret	0
?GetMasterMode@FireControlComputer@@QAE?AW4FCCMasterMode@1@XZ ENDP ; FireControlComputer::GetMasterMode
_TEXT	ENDS
; Function compile flags: /Odtp
; File c:\users\zhitao li\documents\visual studio 2012\projects\freefalcon\sim\include\bomb.h
;	COMDAT ?IsSetBombFlag@BombClass@@QAEHH@Z
_TEXT	SEGMENT
_this$ = -8						; size = 4
tv67 = -4						; size = 4
_newFlag$ = 8						; size = 4
?IsSetBombFlag@BombClass@@QAEHH@Z PROC			; BombClass::IsSetBombFlag, COMDAT
; _this$ = ecx

; 102  : 	int IsSetBombFlag (int newFlag) {return flags & newFlag ? TRUE : FALSE;};

	push	ebp
	mov	ebp, esp
	sub	esp, 8
	mov	DWORD PTR _this$[ebp], ecx
	mov	eax, DWORD PTR _this$[ebp]
	mov	ecx, DWORD PTR [eax+732]
	and	ecx, DWORD PTR _newFlag$[ebp]
	je	SHORT $LN3@IsSetBombF
	mov	DWORD PTR tv67[ebp], 1
	jmp	SHORT $LN4@IsSetBombF
$LN3@IsSetBombF:
	mov	DWORD PTR tv67[ebp], 0
$LN4@IsSetBombF:
	mov	eax, DWORD PTR tv67[ebp]
	mov	esp, ebp
	pop	ebp
	ret	4
?IsSetBombFlag@BombClass@@QAEHH@Z ENDP			; BombClass::IsSetBombFlag
_TEXT	ENDS
; Function compile flags: /Odtp
; File c:\users\zhitao li\documents\visual studio 2012\projects\freefalcon\sim\include\simweapn.h
;	COMDAT ?GetNextOnRail@SimWeaponClass@@QAEPAV1@XZ
_TEXT	SEGMENT
_this$ = -4						; size = 4
?GetNextOnRail@SimWeaponClass@@QAEPAV1@XZ PROC		; SimWeaponClass::GetNextOnRail, COMDAT
; _this$ = ecx

; 41   : 	SimWeaponClass* GetNextOnRail(void) { return nextOnRail.get(); }

	push	ebp
	mov	ebp, esp
	push	ecx
	mov	DWORD PTR _this$[ebp], ecx
	mov	ecx, DWORD PTR _this$[ebp]
	add	ecx, 672				; 000002a0H
	call	?get@?$VuBin@VSimWeaponClass@@@@QBEPAVSimWeaponClass@@XZ ; VuBin<SimWeaponClass>::get
	mov	esp, ebp
	pop	ebp
	ret	0
?GetNextOnRail@SimWeaponClass@@QAEPAV1@XZ ENDP		; SimWeaponClass::GetNextOnRail
_TEXT	ENDS
; Function compile flags: /Odtp
; File c:\users\zhitao li\documents\visual studio 2012\projects\freefalcon\vu2\include\vu_templates.h
;	COMDAT ?get@?$VuBin@VSimWeaponClass@@@@QBEPAVSimWeaponClass@@XZ
_TEXT	SEGMENT
_this$ = -4						; size = 4
?get@?$VuBin@VSimWeaponClass@@@@QBEPAVSimWeaponClass@@XZ PROC ; VuBin<SimWeaponClass>::get, COMDAT
; _this$ = ecx

; 55   : 	E *get() const{

	push	ebp
	mov	ebp, esp
	push	ecx
	mov	DWORD PTR _this$[ebp], ecx

; 56   : 		return e;

	mov	eax, DWORD PTR _this$[ebp]
	mov	eax, DWORD PTR [eax]

; 57   : 	}

	mov	esp, ebp
	pop	ebp
	ret	0
?get@?$VuBin@VSimWeaponClass@@@@QBEPAVSimWeaponClass@@XZ ENDP ; VuBin<SimWeaponClass>::get
_TEXT	ENDS
; Function compile flags: /Odtp
; File c:\users\zhitao li\documents\visual studio 2012\projects\freefalcon\vu2\include\vu_templates.h
;	COMDAT ??C?$VuBin@VSimWeaponClass@@@@QBEPAVSimWeaponClass@@XZ
_TEXT	SEGMENT
_this$ = -4						; size = 4
??C?$VuBin@VSimWeaponClass@@@@QBEPAVSimWeaponClass@@XZ PROC ; VuBin<SimWeaponClass>::operator->, COMDAT
; _this$ = ecx

; 50   : 	E *operator->() const {

	push	ebp
	mov	ebp, esp
	push	ecx
	mov	DWORD PTR _this$[ebp], ecx

; 51   : 		return e;

	mov	eax, DWORD PTR _this$[ebp]
	mov	eax, DWORD PTR [eax]

; 52   : 	}

	mov	esp, ebp
	pop	ebp
	ret	0
??C?$VuBin@VSimWeaponClass@@@@QBEPAVSimWeaponClass@@XZ ENDP ; VuBin<SimWeaponClass>::operator->
_TEXT	ENDS
; Function compile flags: /Odtp
; File c:\users\zhitao li\documents\visual studio 2012\projects\freefalcon\vu2\include\vu_templates.h
;	COMDAT ??B?$VuBin@VSimWeaponClass@@@@QBE_NXZ
_TEXT	SEGMENT
_this$ = -8						; size = 4
tv66 = -4						; size = 4
??B?$VuBin@VSimWeaponClass@@@@QBE_NXZ PROC		; VuBin<SimWeaponClass>::operator bool, COMDAT
; _this$ = ecx

; 40   : 	operator bool() const{

	push	ebp
	mov	ebp, esp
	sub	esp, 8
	mov	DWORD PTR _this$[ebp], ecx

; 41   : 		return e != NULL;

	mov	eax, DWORD PTR _this$[ebp]
	cmp	DWORD PTR [eax], 0
	je	SHORT $LN3@operator
	mov	DWORD PTR tv66[ebp], 1
	jmp	SHORT $LN4@operator
$LN3@operator:
	mov	DWORD PTR tv66[ebp], 0
$LN4@operator:
	mov	al, BYTE PTR tv66[ebp]

; 42   : 	}

	mov	esp, ebp
	pop	ebp
	ret	0
??B?$VuBin@VSimWeaponClass@@@@QBE_NXZ ENDP		; VuBin<SimWeaponClass>::operator bool
_TEXT	ENDS
; Function compile flags: /Odtp
; File c:\users\zhitao li\documents\visual studio 2012\projects\freefalcon\vu2\include\vu_templates.h
;	COMDAT ??7?$VuBin@VSimWeaponClass@@@@QBE_NXZ
_TEXT	SEGMENT
_this$ = -8						; size = 4
tv66 = -4						; size = 4
??7?$VuBin@VSimWeaponClass@@@@QBE_NXZ PROC		; VuBin<SimWeaponClass>::operator!, COMDAT
; _this$ = ecx

; 37   : 	bool operator!() const{

	push	ebp
	mov	ebp, esp
	sub	esp, 8
	mov	DWORD PTR _this$[ebp], ecx

; 38   : 		return e == NULL;

	mov	eax, DWORD PTR _this$[ebp]
	cmp	DWORD PTR [eax], 0
	jne	SHORT $LN3@operator
	mov	DWORD PTR tv66[ebp], 1
	jmp	SHORT $LN4@operator
$LN3@operator:
	mov	DWORD PTR tv66[ebp], 0
$LN4@operator:
	mov	al, BYTE PTR tv66[ebp]

; 39   : 	}

	mov	esp, ebp
	pop	ebp
	ret	0
??7?$VuBin@VSimWeaponClass@@@@QBE_NXZ ENDP		; VuBin<SimWeaponClass>::operator!
_TEXT	ENDS
; Function compile flags: /Odtp
; File c:\users\zhitao li\documents\visual studio 2012\projects\freefalcon\sim\include\sensclas.h
;	COMDAT ?CurrentTarget@SensorClass@@QAEPAVSimObjectType@@XZ
_TEXT	SEGMENT
_this$ = -4						; size = 4
?CurrentTarget@SensorClass@@QAEPAVSimObjectType@@XZ PROC ; SensorClass::CurrentTarget, COMDAT
; _this$ = ecx

; 46   : 	SimObjectType* CurrentTarget(void)	{ return lockedTarget; };

	push	ebp
	mov	ebp, esp
	push	ecx
	mov	DWORD PTR _this$[ebp], ecx
	mov	eax, DWORD PTR _this$[ebp]
	mov	eax, DWORD PTR [eax+48]
	mov	esp, ebp
	pop	ebp
	ret	0
?CurrentTarget@SensorClass@@QAEPAVSimObjectType@@XZ ENDP ; SensorClass::CurrentTarget
_TEXT	ENDS
; Function compile flags: /Odtp
; File c:\users\zhitao li\documents\visual studio 2012\projects\freefalcon\vu2\include\vu_templates.h
;	COMDAT ?get@?$VuBin@VFalconEntity@@@@QBEPAVFalconEntity@@XZ
_TEXT	SEGMENT
_this$ = -4						; size = 4
?get@?$VuBin@VFalconEntity@@@@QBEPAVFalconEntity@@XZ PROC ; VuBin<FalconEntity>::get, COMDAT
; _this$ = ecx

; 55   : 	E *get() const{

	push	ebp
	mov	ebp, esp
	push	ecx
	mov	DWORD PTR _this$[ebp], ecx

; 56   : 		return e;

	mov	eax, DWORD PTR _this$[ebp]
	mov	eax, DWORD PTR [eax]

; 57   : 	}

	mov	esp, ebp
	pop	ebp
	ret	0
?get@?$VuBin@VFalconEntity@@@@QBEPAVFalconEntity@@XZ ENDP ; VuBin<FalconEntity>::get
_TEXT	ENDS
; Function compile flags: /Odtp
; File c:\users\zhitao li\documents\visual studio 2012\projects\freefalcon\sim\include\simbase.h
;	COMDAT ?RdrRng@SimBaseClass@@QAEMXZ
_TEXT	SEGMENT
_this$ = -4						; size = 4
?RdrRng@SimBaseClass@@QAEMXZ PROC			; SimBaseClass::RdrRng, COMDAT
; _this$ = ecx

; 225  : 	float RdrRng (void) {return specialData.rdrNominalRng;};

	push	ebp
	mov	ebp, esp
	push	ecx
	mov	DWORD PTR _this$[ebp], ecx
	mov	eax, DWORD PTR _this$[ebp]
	fld	DWORD PTR [eax+156]
	mov	esp, ebp
	pop	ebp
	ret	0
?RdrRng@SimBaseClass@@QAEMXZ ENDP			; SimBaseClass::RdrRng
_TEXT	ENDS
; Function compile flags: /Odtp
; File c:\users\zhitao li\documents\visual studio 2012\projects\freefalcon\sim\include\simbase.h
;	COMDAT ?GetCampaignObject@SimBaseClass@@QAEPAVCampBaseClass@@XZ
_TEXT	SEGMENT
_this$ = -4						; size = 4
?GetCampaignObject@SimBaseClass@@QAEPAVCampBaseClass@@XZ PROC ; SimBaseClass::GetCampaignObject, COMDAT
; _this$ = ecx

; 212  : 	CampBaseClass *GetCampaignObject (void) { return campaignObject.get(); }

	push	ebp
	mov	ebp, esp
	push	ecx
	mov	DWORD PTR _this$[ebp], ecx
	mov	ecx, DWORD PTR _this$[ebp]
	add	ecx, 144				; 00000090H
	call	?get@?$VuBin@VCampBaseClass@@@@QBEPAVCampBaseClass@@XZ ; VuBin<CampBaseClass>::get
	mov	esp, ebp
	pop	ebp
	ret	0
?GetCampaignObject@SimBaseClass@@QAEPAVCampBaseClass@@XZ ENDP ; SimBaseClass::GetCampaignObject
_TEXT	ENDS
; Function compile flags: /Odtp
; File c:\users\zhitao li\documents\visual studio 2012\projects\freefalcon\sim\include\simbase.h
;	COMDAT ?IsSetFlag@SimBaseClass@@QBEHH@Z
_TEXT	SEGMENT
_this$ = -8						; size = 4
tv68 = -4						; size = 4
_flag$ = 8						; size = 4
?IsSetFlag@SimBaseClass@@QBEHH@Z PROC			; SimBaseClass::IsSetFlag, COMDAT
; _this$ = ecx

; 178  : 	int  IsSetFlag(int flag) const { return ((specialData.flags & flag) ? TRUE : FALSE); }

	push	ebp
	mov	ebp, esp
	sub	esp, 8
	mov	DWORD PTR _this$[ebp], ecx
	mov	eax, DWORD PTR _this$[ebp]
	mov	ecx, DWORD PTR [eax+172]
	and	ecx, DWORD PTR _flag$[ebp]
	je	SHORT $LN3@IsSetFlag
	mov	DWORD PTR tv68[ebp], 1
	jmp	SHORT $LN4@IsSetFlag
$LN3@IsSetFlag:
	mov	DWORD PTR tv68[ebp], 0
$LN4@IsSetFlag:
	mov	eax, DWORD PTR tv68[ebp]
	mov	esp, ebp
	pop	ebp
	ret	4
?IsSetFlag@SimBaseClass@@QBEHH@Z ENDP			; SimBaseClass::IsSetFlag
_TEXT	ENDS
; Function compile flags: /Odtp
; File c:\users\zhitao li\documents\visual studio 2012\projects\freefalcon\sim\include\simbase.h
;	COMDAT ?IsAwake@SimBaseClass@@QBEHXZ
_TEXT	SEGMENT
_this$ = -4						; size = 4
?IsAwake@SimBaseClass@@QBEHXZ PROC			; SimBaseClass::IsAwake, COMDAT
; _this$ = ecx

; 177  : 	int IsAwake() const { return localFlags & OBJ_AWAKE; }

	push	ebp
	mov	ebp, esp
	push	ecx
	mov	DWORD PTR _this$[ebp], ecx
	mov	eax, DWORD PTR _this$[ebp]
	movzx	eax, BYTE PTR [eax+284]
	and	eax, 1
	mov	esp, ebp
	pop	ebp
	ret	0
?IsAwake@SimBaseClass@@QBEHXZ ENDP			; SimBaseClass::IsAwake
_TEXT	ENDS
; Function compile flags: /Odtp
; File c:\users\zhitao li\documents\visual studio 2012\projects\freefalcon\vu2\include\vu_templates.h
;	COMDAT ?get@?$VuBin@VCampBaseClass@@@@QBEPAVCampBaseClass@@XZ
_TEXT	SEGMENT
_this$ = -4						; size = 4
?get@?$VuBin@VCampBaseClass@@@@QBEPAVCampBaseClass@@XZ PROC ; VuBin<CampBaseClass>::get, COMDAT
; _this$ = ecx

; 55   : 	E *get() const{

	push	ebp
	mov	ebp, esp
	push	ecx
	mov	DWORD PTR _this$[ebp], ecx

; 56   : 		return e;

	mov	eax, DWORD PTR _this$[ebp]
	mov	eax, DWORD PTR [eax]

; 57   : 	}

	mov	esp, ebp
	pop	ebp
	ret	0
?get@?$VuBin@VCampBaseClass@@@@QBEPAVCampBaseClass@@XZ ENDP ; VuBin<CampBaseClass>::get
_TEXT	ENDS
; Function compile flags: /Odtp
; File c:\users\zhitao li\documents\visual studio 2012\projects\freefalcon\sim\digi\gndattck.cpp
_TEXT	SEGMENT
_campBaseTarget$ = -8					; size = 4
_this$ = -4						; size = 4
?IsNotMainTargetSEAD@DigitalBrain@@AAEHXZ PROC		; DigitalBrain::IsNotMainTargetSEAD
; _this$ = ecx

; 62   : {

	push	ebp
	mov	ebp, esp
	sub	esp, 8
	mov	DWORD PTR _this$[ebp], ecx

; 63   : 	// SEADESCORT has no main target
; 64   : 	if ( missionType == AMIS_SEADESCORT )

	mov	eax, DWORD PTR _this$[ebp]
	cmp	DWORD PTR [eax+284], 12			; 0000000cH
	jne	SHORT $LN6@IsNotMainT

; 65   : 		return TRUE;

	mov	eax, 1
	jmp	$LN7@IsNotMainT
$LN6@IsNotMainT:

; 66   : 
; 67   : 	// Only for SEADS missions
; 68   : 	if ( missionType != AMIS_SEADSTRIKE )

	mov	ecx, DWORD PTR _this$[ebp]
	cmp	DWORD PTR [ecx+284], 11			; 0000000bH
	je	SHORT $LN5@IsNotMainT

; 69   : 		return FALSE;

	xor	eax, eax
	jmp	$LN7@IsNotMainT
$LN5@IsNotMainT:

; 70   : 
; 71   : 	// If not ground target, we can't check if it's our main target, right? So assume it's not our main target
; 72   : 	if (!groundTargetPtr)

	mov	edx, DWORD PTR _this$[ebp]
	cmp	DWORD PTR [edx+224], 0
	jne	SHORT $LN4@IsNotMainT

; 73   : 		return TRUE;

	mov	eax, 1
	jmp	SHORT $LN7@IsNotMainT
$LN4@IsNotMainT:

; 74   : 
; 75   : 	// Get the target campaign object if it's a sim
; 76   : 	CampBaseClass *campBaseTarget = ((CampBaseClass *)groundTargetPtr->BaseData());

	mov	eax, DWORD PTR _this$[ebp]
	mov	ecx, DWORD PTR [eax+224]
	call	?BaseData@SimObjectType@@QAEPAVFalconEntity@@XZ ; SimObjectType::BaseData
	mov	DWORD PTR _campBaseTarget$[ebp], eax

; 77   : 	if (((SimBaseClass *)groundTargetPtr->BaseData())->IsSim())

	mov	ecx, DWORD PTR _this$[ebp]
	mov	ecx, DWORD PTR [ecx+224]
	call	?BaseData@SimObjectType@@QAEPAVFalconEntity@@XZ ; SimObjectType::BaseData
	mov	ecx, eax
	call	?IsSim@FalconEntity@@QAEHXZ		; FalconEntity::IsSim
	test	eax, eax
	je	SHORT $LN3@IsNotMainT

; 78   : 		campBaseTarget = ((SimBaseClass *)groundTargetPtr->BaseData())->GetCampaignObject();

	mov	edx, DWORD PTR _this$[ebp]
	mov	ecx, DWORD PTR [edx+224]
	call	?BaseData@SimObjectType@@QAEPAVFalconEntity@@XZ ; SimObjectType::BaseData
	mov	ecx, eax
	call	?GetCampaignObject@SimBaseClass@@QAEPAVCampBaseClass@@XZ ; SimBaseClass::GetCampaignObject
	mov	DWORD PTR _campBaseTarget$[ebp], eax
$LN3@IsNotMainT:

; 79   : 
; 80   : 	// We should always have a waypoint but if we don't, can't be our attack waypoint right?
; 81   : 	if (!self->curWaypoint)

	mov	eax, DWORD PTR _this$[ebp]
	mov	ecx, DWORD PTR [eax+56]
	cmp	DWORD PTR [ecx+728], 0
	jne	SHORT $LN2@IsNotMainT

; 82   : 		return TRUE;

	mov	eax, 1
	jmp	SHORT $LN7@IsNotMainT
$LN2@IsNotMainT:

; 83   : 
; 84   : 	// If it's not our main target, it's ok to stop attacking it
; 85   : 	if (self->curWaypoint->GetWPTarget() != campBaseTarget)

	mov	edx, DWORD PTR _this$[ebp]
	mov	eax, DWORD PTR [edx+56]
	mov	ecx, DWORD PTR [eax+728]
	call	?GetWPTarget@WayPointClass@@QAEPAVCampBaseClass@@XZ ; WayPointClass::GetWPTarget
	cmp	eax, DWORD PTR _campBaseTarget$[ebp]
	je	SHORT $LN1@IsNotMainT

; 86   : 		return TRUE;

	mov	eax, 1
	jmp	SHORT $LN7@IsNotMainT
$LN1@IsNotMainT:

; 87   : 
; 88   : 	// It's our main target, keep pounding it to death...
; 89   : 	return FALSE;

	xor	eax, eax
$LN7@IsNotMainT:

; 90   : }

	mov	esp, ebp
	pop	ebp
	ret	0
?IsNotMainTargetSEAD@DigitalBrain@@AAEHXZ ENDP		; DigitalBrain::IsNotMainTargetSEAD
_TEXT	ENDS
; Function compile flags: /Odtp
; File c:\users\zhitao li\documents\visual studio 2012\projects\freefalcon\sim\include\digi.h
;	COMDAT ?IsSetATC@DigitalBrain@@QAEHH@Z
_TEXT	SEGMENT
_this$ = -8						; size = 4
tv68 = -4						; size = 4
_flag$ = 8						; size = 4
?IsSetATC@DigitalBrain@@QAEHH@Z PROC			; DigitalBrain::IsSetATC, COMDAT
; _this$ = ecx

; 709  : 	int		IsSetATC(int flag)								{return (atcFlags & flag) && TRUE;}

	push	ebp
	mov	ebp, esp
	sub	esp, 8
	mov	DWORD PTR _this$[ebp], ecx
	mov	eax, DWORD PTR _this$[ebp]
	mov	ecx, DWORD PTR [eax+300]
	and	ecx, DWORD PTR _flag$[ebp]
	je	SHORT $LN3@IsSetATC
	mov	edx, 1
	test	edx, edx
	je	SHORT $LN3@IsSetATC
	mov	DWORD PTR tv68[ebp], 1
	jmp	SHORT $LN4@IsSetATC
$LN3@IsSetATC:
	mov	DWORD PTR tv68[ebp], 0
$LN4@IsSetATC:
	mov	eax, DWORD PTR tv68[ebp]
	mov	esp, ebp
	pop	ebp
	ret	4
?IsSetATC@DigitalBrain@@QAEHH@Z ENDP			; DigitalBrain::IsSetATC
_TEXT	ENDS
; Function compile flags: /Odtp
; File c:\users\zhitao li\documents\visual studio 2012\projects\freefalcon\sim\include\digi.h
;	COMDAT ?ClearATCFlag@DigitalBrain@@QAEXH@Z
_TEXT	SEGMENT
_this$ = -4						; size = 4
_flag$ = 8						; size = 4
?ClearATCFlag@DigitalBrain@@QAEXH@Z PROC		; DigitalBrain::ClearATCFlag, COMDAT
; _this$ = ecx

; 708  : 	void	ClearATCFlag(int flag)							{atcFlags &= ~flag;}

	push	ebp
	mov	ebp, esp
	push	ecx
	mov	DWORD PTR _this$[ebp], ecx
	mov	eax, DWORD PTR _flag$[ebp]
	not	eax
	mov	ecx, DWORD PTR _this$[ebp]
	and	eax, DWORD PTR [ecx+300]
	mov	edx, DWORD PTR _this$[ebp]
	mov	DWORD PTR [edx+300], eax
	mov	esp, ebp
	pop	ebp
	ret	4
?ClearATCFlag@DigitalBrain@@QAEXH@Z ENDP		; DigitalBrain::ClearATCFlag
_TEXT	ENDS
; Function compile flags: /Odtp
; File c:\users\zhitao li\documents\visual studio 2012\projects\freefalcon\sim\include\digi.h
;	COMDAT ?SetATCFlag@DigitalBrain@@QAEXH@Z
_TEXT	SEGMENT
_this$ = -4						; size = 4
_flag$ = 8						; size = 4
?SetATCFlag@DigitalBrain@@QAEXH@Z PROC			; DigitalBrain::SetATCFlag, COMDAT
; _this$ = ecx

; 707  : 	void	SetATCFlag(int flag)							{atcFlags |= flag;}

	push	ebp
	mov	ebp, esp
	push	ecx
	mov	DWORD PTR _this$[ebp], ecx
	mov	eax, DWORD PTR _this$[ebp]
	mov	ecx, DWORD PTR [eax+300]
	or	ecx, DWORD PTR _flag$[ebp]
	mov	edx, DWORD PTR _this$[ebp]
	mov	DWORD PTR [edx+300], ecx
	mov	esp, ebp
	pop	ebp
	ret	4
?SetATCFlag@DigitalBrain@@QAEXH@Z ENDP			; DigitalBrain::SetATCFlag
_TEXT	ENDS
; Function compile flags: /Odtp
; File c:\users\zhitao li\documents\visual studio 2012\projects\freefalcon\sim\include\digi.h
;	COMDAT ?SetTrackPoint@DigitalBrain@@QAEXMMM@Z
_TEXT	SEGMENT
_this$ = -4						; size = 4
_x$ = 8							; size = 4
_y$ = 12						; size = 4
_z$ = 16						; size = 4
?SetTrackPoint@DigitalBrain@@QAEXMMM@Z PROC		; DigitalBrain::SetTrackPoint, COMDAT
; _this$ = ecx

; 699  : 	void	SetTrackPoint(float x, float y, float z){ SetTrackPoint(x, y); trackZ = z; }

	push	ebp
	mov	ebp, esp
	push	ecx
	mov	DWORD PTR _this$[ebp], ecx
	push	ecx
	movss	xmm0, DWORD PTR _y$[ebp]
	movss	DWORD PTR [esp], xmm0
	push	ecx
	movss	xmm0, DWORD PTR _x$[ebp]
	movss	DWORD PTR [esp], xmm0
	mov	ecx, DWORD PTR _this$[ebp]
	call	?SetTrackPoint@DigitalBrain@@QAEXMM@Z	; DigitalBrain::SetTrackPoint
	mov	eax, DWORD PTR _this$[ebp]
	movss	xmm0, DWORD PTR _z$[ebp]
	movss	DWORD PTR [eax+156], xmm0
	mov	esp, ebp
	pop	ebp
	ret	12					; 0000000cH
?SetTrackPoint@DigitalBrain@@QAEXMMM@Z ENDP		; DigitalBrain::SetTrackPoint
_TEXT	ENDS
; Function compile flags: /Odtp
; File c:\users\zhitao li\documents\visual studio 2012\projects\freefalcon\sim\include\digi.h
;	COMDAT ?SetTrackPoint@DigitalBrain@@QAEXMM@Z
_TEXT	SEGMENT
_this$ = -4						; size = 4
_x$ = 8							; size = 4
_y$ = 12						; size = 4
?SetTrackPoint@DigitalBrain@@QAEXMM@Z PROC		; DigitalBrain::SetTrackPoint, COMDAT
; _this$ = ecx

; 698  : 	void	SetTrackPoint(float x, float y){ trackX = x; trackY=y; }

	push	ebp
	mov	ebp, esp
	push	ecx
	mov	DWORD PTR _this$[ebp], ecx
	mov	eax, DWORD PTR _this$[ebp]
	movss	xmm0, DWORD PTR _x$[ebp]
	movss	DWORD PTR [eax+148], xmm0
	mov	ecx, DWORD PTR _this$[ebp]
	movss	xmm0, DWORD PTR _y$[ebp]
	movss	DWORD PTR [ecx+152], xmm0
	mov	esp, ebp
	pop	ebp
	ret	8
?SetTrackPoint@DigitalBrain@@QAEXMM@Z ENDP		; DigitalBrain::SetTrackPoint
_TEXT	ENDS
; Function compile flags: /Odtp
; File c:\users\zhitao li\documents\visual studio 2012\projects\freefalcon\sim\digi\gndattck.cpp
_TEXT	SEGMENT
_Sms$ = -112						; size = 4
tv383 = -108						; size = 4
tv356 = -104						; size = 4
tv401 = -100						; size = 4
_response$ = -96					; size = 4
tv373 = -92						; size = 4
tv425 = -88						; size = 4
tv394 = -84						; size = 4
tv454 = -80						; size = 4
tv378 = -76						; size = 4
tv419 = -72						; size = 4
tv351 = -68						; size = 4
tv413 = -64						; size = 4
tv361 = -60						; size = 4
_tgtrangeSq$ = -56					; size = 4
_wpZ$ = -52						; size = 4
_wpY$ = -48						; size = 4
_rangeSq$ = -44						; size = 4
_wpX$ = -40						; size = 4
_dY$ = -36						; size = 4
_dZ$ = -32						; size = 4
_dX$ = -28						; size = 4
_tmpWaypoint$ = -24					; size = 4
_this$ = -20						; size = 4
_edata$ = -16						; size = 12
__$ArrayPad$ = -4					; size = 4
?IPCheck@DigitalBrain@@IAEXXZ PROC			; DigitalBrain::IPCheck
; _this$ = ecx

; 2970 : 	{

	push	ebp
	mov	ebp, esp
	sub	esp, 112				; 00000070H
	mov	eax, DWORD PTR ___security_cookie
	xor	eax, ebp
	mov	DWORD PTR __$ArrayPad$[ebp], eax
	mov	DWORD PTR _this$[ebp], ecx

; 2971 : 		WayPointClass* tmpWaypoint = self->waypoint;

	mov	eax, DWORD PTR _this$[ebp]
	mov	ecx, DWORD PTR [eax+56]
	mov	edx, DWORD PTR [ecx+732]
	mov	DWORD PTR _tmpWaypoint$[ebp], edx

; 2972 : 		SMSClass* Sms = self->Sms;

	mov	eax, DWORD PTR _this$[ebp]
	mov	ecx, DWORD PTR [eax+56]
	mov	edx, DWORD PTR [ecx+940]
	mov	DWORD PTR _Sms$[ebp], edx

; 2973 : 		float wpX, wpY, wpZ;
; 2974 : 		//TJL 10/20/03 Added back in dZ
; 2975 : 		float dX, dY, dZ;
; 2976 : 		float rangeSq, tgtrangeSq;
; 2977 : 		short edata[6];
; 2978 : 		int response;
; 2979 : 
; 2980 : 		// Only for the player's wingmen
; 2981 : 		// JB 020315 All aircraft will now all check to see if they have passed the IP.  
; 2982 : 		// Only checking for the IP if the lead is a player is silly.  
; 2983 : 		// Things depend on the ReachedIP flag being set properly.
; 2984 : 		//if (flightLead && flightLead->IsSetFlag(MOTION_OWNSHIP)) 
; 2985 : 		{
; 2986 : 			// Periodically check for IP and if so, ask for permission to engage
; 2987 : 			//if (!IsSetATC(ReachedIP)) 
; 2988 : 			//TJL 10/20/03 Put this back to check FL lead
; 2989 : 			if (!IsSetATC(ReachedIP) && flightLead->IsSetFlag(MOTION_OWNSHIP))

	push	2097152					; 00200000H
	mov	ecx, DWORD PTR _this$[ebp]
	call	?IsSetATC@DigitalBrain@@QAEHH@Z		; DigitalBrain::IsSetATC
	test	eax, eax
	jne	$LN20@IPCheck
	push	65536					; 00010000H
	mov	eax, DWORD PTR _this$[ebp]
	mov	ecx, DWORD PTR [eax+708]
	call	?IsSetFlag@SimBaseClass@@QBEHH@Z	; SimBaseClass::IsSetFlag
	test	eax, eax
	je	$LN20@IPCheck
$LN19@IPCheck:

; 2990 : 			{
; 2991 : 				// Find the IP waypoint
; 2992 : 				while (tmpWaypoint) {

	cmp	DWORD PTR _tmpWaypoint$[ebp], 0
	je	SHORT $LN18@IPCheck

; 2993 : 					if (tmpWaypoint->GetWPFlags() & WPF_TARGET)

	mov	ecx, DWORD PTR _tmpWaypoint$[ebp]
	call	?GetWPFlags@WayPointClass@@QAEKXZ	; WayPointClass::GetWPFlags
	and	eax, 1
	je	SHORT $LN17@IPCheck

; 2994 : 						break;

	jmp	SHORT $LN18@IPCheck
$LN17@IPCheck:

; 2995 : 					tmpWaypoint = tmpWaypoint->GetNextWP();

	mov	ecx, DWORD PTR _tmpWaypoint$[ebp]
	call	?GetNextWP@WayPointClass@@QAEPAV1@XZ	; WayPointClass::GetNextWP
	mov	DWORD PTR _tmpWaypoint$[ebp], eax

; 2996 : 				}

	jmp	SHORT $LN19@IPCheck
$LN18@IPCheck:

; 2997 : 
; 2998 : 				// From the target, find the IP
; 2999 : 				if (tmpWaypoint)

	cmp	DWORD PTR _tmpWaypoint$[ebp], 0
	je	$LN16@IPCheck

; 3000 : 				{
; 3001 : 					tmpWaypoint->GetLocation (&wpX, &wpY, &wpZ);

	lea	ecx, DWORD PTR _wpZ$[ebp]
	push	ecx
	lea	edx, DWORD PTR _wpY$[ebp]
	push	edx
	lea	eax, DWORD PTR _wpX$[ebp]
	push	eax
	mov	ecx, DWORD PTR _tmpWaypoint$[ebp]
	call	?GetLocation@WayPointClass@@QBEXPAM00@Z	; WayPointClass::GetLocation

; 3002 : 					dX = self->XPos() - wpX;

	mov	ecx, DWORD PTR _this$[ebp]
	mov	ecx, DWORD PTR [ecx+56]
	call	?XPos@VuEntity@@QBEMXZ			; VuEntity::XPos
	fstp	DWORD PTR tv351[ebp]
	movss	xmm0, DWORD PTR tv351[ebp]
	subss	xmm0, DWORD PTR _wpX$[ebp]
	movss	DWORD PTR _dX$[ebp], xmm0

; 3003 : 					dY = self->YPos() - wpY;

	mov	edx, DWORD PTR _this$[ebp]
	mov	ecx, DWORD PTR [edx+56]
	call	?YPos@VuEntity@@QBEMXZ			; VuEntity::YPos
	fstp	DWORD PTR tv356[ebp]
	movss	xmm0, DWORD PTR tv356[ebp]
	subss	xmm0, DWORD PTR _wpY$[ebp]
	movss	DWORD PTR _dY$[ebp], xmm0

; 3004 : 					dZ = self->ZPos() - wpZ;

	mov	eax, DWORD PTR _this$[ebp]
	mov	ecx, DWORD PTR [eax+56]
	call	?ZPos@VuEntity@@QBEMXZ			; VuEntity::ZPos
	fstp	DWORD PTR tv361[ebp]
	movss	xmm0, DWORD PTR tv361[ebp]
	subss	xmm0, DWORD PTR _wpZ$[ebp]
	movss	DWORD PTR _dZ$[ebp], xmm0

; 3005 : 					tgtrangeSq = dX*dX + dY*dY + dZ*dZ;

	movss	xmm0, DWORD PTR _dX$[ebp]
	mulss	xmm0, DWORD PTR _dX$[ebp]
	movss	xmm1, DWORD PTR _dY$[ebp]
	mulss	xmm1, DWORD PTR _dY$[ebp]
	addss	xmm0, xmm1
	movss	xmm1, DWORD PTR _dZ$[ebp]
	mulss	xmm1, DWORD PTR _dZ$[ebp]
	addss	xmm0, xmm1
	movss	DWORD PTR _tgtrangeSq$[ebp], xmm0

; 3006 : 					tmpWaypoint = tmpWaypoint->GetPrevWP();

	mov	ecx, DWORD PTR _tmpWaypoint$[ebp]
	call	?GetPrevWP@WayPointClass@@QAEPAV1@XZ	; WayPointClass::GetPrevWP
	mov	DWORD PTR _tmpWaypoint$[ebp], eax
$LN16@IPCheck:

; 3007 : 				}
; 3008 : 
; 3009 : 				// Have an IP
; 3010 : 				// TJL 10/20/03 Added back Zpos
; 3011 : 				if (tmpWaypoint) 

	cmp	DWORD PTR _tmpWaypoint$[ebp], 0
	je	$LN4@IPCheck

; 3012 : 				{
; 3013 : 					tmpWaypoint->GetLocation (&wpX, &wpY, &wpZ);

	lea	ecx, DWORD PTR _wpZ$[ebp]
	push	ecx
	lea	edx, DWORD PTR _wpY$[ebp]
	push	edx
	lea	eax, DWORD PTR _wpX$[ebp]
	push	eax
	mov	ecx, DWORD PTR _tmpWaypoint$[ebp]
	call	?GetLocation@WayPointClass@@QBEXPAM00@Z	; WayPointClass::GetLocation

; 3014 : 					dX = self->XPos() - wpX;

	mov	ecx, DWORD PTR _this$[ebp]
	mov	ecx, DWORD PTR [ecx+56]
	call	?XPos@VuEntity@@QBEMXZ			; VuEntity::XPos
	fstp	DWORD PTR tv373[ebp]
	movss	xmm0, DWORD PTR tv373[ebp]
	subss	xmm0, DWORD PTR _wpX$[ebp]
	movss	DWORD PTR _dX$[ebp], xmm0

; 3015 : 					dY = self->YPos() - wpY;

	mov	edx, DWORD PTR _this$[ebp]
	mov	ecx, DWORD PTR [edx+56]
	call	?YPos@VuEntity@@QBEMXZ			; VuEntity::YPos
	fstp	DWORD PTR tv378[ebp]
	movss	xmm0, DWORD PTR tv378[ebp]
	subss	xmm0, DWORD PTR _wpY$[ebp]
	movss	DWORD PTR _dY$[ebp], xmm0

; 3016 : 					dZ = self->ZPos() - wpZ;

	mov	eax, DWORD PTR _this$[ebp]
	mov	ecx, DWORD PTR [eax+56]
	call	?ZPos@VuEntity@@QBEMXZ			; VuEntity::ZPos
	fstp	DWORD PTR tv383[ebp]
	movss	xmm0, DWORD PTR tv383[ebp]
	subss	xmm0, DWORD PTR _wpZ$[ebp]
	movss	DWORD PTR _dZ$[ebp], xmm0

; 3017 : 
; 3018 : 					// Original code was looking for the SLANT distance, I'm not...
; 3019 : 					// Check for within 5 NM of IP
; 3020 : 					// TJL 10/20/03 Added back Z slant and change 5.0F to 10.0F
; 3021 : 					rangeSq = dX*dX + dY*dY + dZ*dZ;

	movss	xmm0, DWORD PTR _dX$[ebp]
	mulss	xmm0, DWORD PTR _dX$[ebp]
	movss	xmm1, DWORD PTR _dY$[ebp]
	mulss	xmm1, DWORD PTR _dY$[ebp]
	addss	xmm0, xmm1
	movss	xmm1, DWORD PTR _dZ$[ebp]
	mulss	xmm1, DWORD PTR _dZ$[ebp]
	addss	xmm0, xmm1
	movss	DWORD PTR _rangeSq$[ebp], xmm0

; 3022 : 					//Cobra TJL Attempt to let SEAD flights target earlier
; 3023 : 					if (missionType == AMIS_SEADESCORT || missionType == AMIS_SEADSTRIKE)

	mov	ecx, DWORD PTR _this$[ebp]
	cmp	DWORD PTR [ecx+284], 12			; 0000000cH
	je	SHORT $LN13@IPCheck
	mov	edx, DWORD PTR _this$[ebp]
	cmp	DWORD PTR [edx+284], 11			; 0000000bH
	jne	$LN14@IPCheck
$LN13@IPCheck:

; 3024 : 					{
; 3025 : 						if ((FabsF(rangeSq) < (25.0F * NM_TO_FT)*(25.0F * NM_TO_FT)) &&
; 3026 : 								(FabsF(tgtrangeSq) < (g_fAIHarmMaxRange * NM_TO_FT)*(g_fAIHarmMaxRange * NM_TO_FT))) 

	push	ecx
	movss	xmm0, DWORD PTR _rangeSq$[ebp]
	movss	DWORD PTR [esp], xmm0
	call	?FabsF@@YAMM@Z				; FabsF
	add	esp, 4
	fstp	DWORD PTR tv394[ebp]
	movss	xmm0, DWORD PTR __real@50abec7b
	comiss	xmm0, DWORD PTR tv394[ebp]
	jbe	SHORT $LN11@IPCheck
	push	ecx
	movss	xmm0, DWORD PTR _tgtrangeSq$[ebp]
	movss	DWORD PTR [esp], xmm0
	call	?FabsF@@YAMM@Z				; FabsF
	add	esp, 4
	fstp	DWORD PTR tv401[ebp]
	movss	xmm0, DWORD PTR ?g_fAIHarmMaxRange@@3MA
	mulss	xmm0, DWORD PTR __real@45bde1b0
	movss	xmm1, DWORD PTR ?g_fAIHarmMaxRange@@3MA
	mulss	xmm1, DWORD PTR __real@45bde1b0
	mulss	xmm0, xmm1
	comiss	xmm0, DWORD PTR tv401[ebp]
	jbe	SHORT $LN11@IPCheck

; 3027 : 						{
; 3028 : 							SetATCFlag(ReachedIP);

	push	2097152					; 00200000H
	mov	ecx, DWORD PTR _this$[ebp]
	call	?SetATCFlag@DigitalBrain@@QAEXH@Z	; DigitalBrain::SetATCFlag

; 3029 : 							// JB 020315 Only set the WaitForTarget flag if the lead is a player.
; 3030 : 							if (flightLead && flightLead->IsSetFlag(MOTION_OWNSHIP)) 

	mov	eax, DWORD PTR _this$[ebp]
	cmp	DWORD PTR [eax+708], 0
	je	SHORT $LN11@IPCheck
	push	65536					; 00010000H
	mov	ecx, DWORD PTR _this$[ebp]
	mov	ecx, DWORD PTR [ecx+708]
	call	?IsSetFlag@SimBaseClass@@QBEHH@Z	; SimBaseClass::IsSetFlag
	test	eax, eax
	je	SHORT $LN11@IPCheck

; 3031 : 								SetATCFlag(WaitForTarget);

	push	1073741824				; 40000000H
	mov	ecx, DWORD PTR _this$[ebp]
	call	?SetATCFlag@DigitalBrain@@QAEXH@Z	; DigitalBrain::SetATCFlag
$LN11@IPCheck:

; 3032 : 						}
; 3033 : 
; 3034 : 					}

	jmp	$LN4@IPCheck
$LN14@IPCheck:

; 3035 : 					//Cobra - Attempt to let JSOW flights target earlier
; 3036 : 					//else if (((BombClass *)Sms->hardPoint[Sms->CurHardpoint()]->weaponPointer) && 
; 3037 : 					//					(((BombClass *)Sms->hardPoint[Sms->CurHardpoint()]->weaponPointer)->IsSetBombFlag(BombClass::IsJSOW)) ||
; 3038 : 					else if	(hasBomb == TRUE+4)

	mov	edx, DWORD PTR _this$[ebp]
	cmp	DWORD PTR [edx+180], 5
	jne	$LN9@IPCheck

; 3039 : 					{
; 3040 : 						if ((FabsF(rangeSq) < FabsF((25.0F * NM_TO_FT)*(25.0F * NM_TO_FT))) &&
; 3041 : 								(FabsF(tgtrangeSq) < (g_fAIJSOWMaxRange * NM_TO_FT)*(g_fAIJSOWMaxRange * NM_TO_FT))) 

	push	ecx
	movss	xmm0, DWORD PTR _rangeSq$[ebp]
	movss	DWORD PTR [esp], xmm0
	call	?FabsF@@YAMM@Z				; FabsF
	add	esp, 4
	fstp	DWORD PTR tv413[ebp]
	movss	xmm0, DWORD PTR tv413[ebp]
	push	ecx
	movss	xmm1, DWORD PTR __real@50abec7b
	movss	DWORD PTR [esp], xmm1
	movss	DWORD PTR tv454[ebp], xmm0
	call	?FabsF@@YAMM@Z				; FabsF
	add	esp, 4
	fstp	DWORD PTR tv419[ebp]
	movss	xmm0, DWORD PTR tv419[ebp]
	movss	xmm1, DWORD PTR tv454[ebp]
	comiss	xmm0, xmm1
	jbe	SHORT $LN7@IPCheck
	push	ecx
	movss	xmm0, DWORD PTR _tgtrangeSq$[ebp]
	movss	DWORD PTR [esp], xmm0
	call	?FabsF@@YAMM@Z				; FabsF
	add	esp, 4
	fstp	DWORD PTR tv425[ebp]
	movss	xmm0, DWORD PTR ?g_fAIJSOWMaxRange@@3MA
	mulss	xmm0, DWORD PTR __real@45bde1b0
	movss	xmm1, DWORD PTR ?g_fAIJSOWMaxRange@@3MA
	mulss	xmm1, DWORD PTR __real@45bde1b0
	mulss	xmm0, xmm1
	comiss	xmm0, DWORD PTR tv425[ebp]
	jbe	SHORT $LN7@IPCheck

; 3042 : 						{
; 3043 : 							SetATCFlag(ReachedIP);

	push	2097152					; 00200000H
	mov	ecx, DWORD PTR _this$[ebp]
	call	?SetATCFlag@DigitalBrain@@QAEXH@Z	; DigitalBrain::SetATCFlag

; 3044 : 							// JB 020315 Only set the WaitForTarget flag if the lead is a player.
; 3045 : 							if (flightLead && flightLead->IsSetFlag(MOTION_OWNSHIP)) 

	mov	eax, DWORD PTR _this$[ebp]
	cmp	DWORD PTR [eax+708], 0
	je	SHORT $LN7@IPCheck
	push	65536					; 00010000H
	mov	ecx, DWORD PTR _this$[ebp]
	mov	ecx, DWORD PTR [ecx+708]
	call	?IsSetFlag@SimBaseClass@@QBEHH@Z	; SimBaseClass::IsSetFlag
	test	eax, eax
	je	SHORT $LN7@IPCheck

; 3046 : 								SetATCFlag(WaitForTarget);

	push	1073741824				; 40000000H
	mov	ecx, DWORD PTR _this$[ebp]
	call	?SetATCFlag@DigitalBrain@@QAEXH@Z	; DigitalBrain::SetATCFlag
$LN7@IPCheck:

; 3047 : 						}
; 3048 : 					}

	jmp	SHORT $LN4@IPCheck
$LN9@IPCheck:

; 3049 : 					else if (rangeSq < (10.0F * NM_TO_FT)*(10.0F * NM_TO_FT)) 

	movss	xmm0, DWORD PTR __real@4f5c0ff8
	comiss	xmm0, DWORD PTR _rangeSq$[ebp]
	jbe	SHORT $LN4@IPCheck

; 3050 : 					{
; 3051 : 						// The range is INCREASING so we assume (may be wronly if we turned away from the IP waypoint) we've reached it, say so and wait for a target
; 3052 : 						SetATCFlag(ReachedIP);

	push	2097152					; 00200000H
	mov	ecx, DWORD PTR _this$[ebp]
	call	?SetATCFlag@DigitalBrain@@QAEXH@Z	; DigitalBrain::SetATCFlag

; 3053 : 						// JB 020315 Only set the WaitForTarget flag if the lead is a player.
; 3054 : 						if (flightLead && flightLead->IsSetFlag(MOTION_OWNSHIP)) 

	mov	edx, DWORD PTR _this$[ebp]
	cmp	DWORD PTR [edx+708], 0
	je	SHORT $LN4@IPCheck
	push	65536					; 00010000H
	mov	eax, DWORD PTR _this$[ebp]
	mov	ecx, DWORD PTR [eax+708]
	call	?IsSetFlag@SimBaseClass@@QBEHH@Z	; SimBaseClass::IsSetFlag
	test	eax, eax
	je	SHORT $LN4@IPCheck

; 3055 : 							SetATCFlag(WaitForTarget);

	push	1073741824				; 40000000H
	mov	ecx, DWORD PTR _this$[ebp]
	call	?SetATCFlag@DigitalBrain@@QAEXH@Z	; DigitalBrain::SetATCFlag
$LN4@IPCheck:

; 3056 : 					}
; 3057 : 				}
; 3058 : 			}

	jmp	$LN1@IPCheck
$LN20@IPCheck:

; 3059 : 			// We have reached our IP waypoint, are we waiting for a target?
; 3060 : 			else if (IsSetATC(WaitForTarget)) {

	push	1073741824				; 40000000H
	mov	ecx, DWORD PTR _this$[ebp]
	call	?IsSetATC@DigitalBrain@@QAEHH@Z		; DigitalBrain::IsSetATC
	test	eax, eax
	je	$LN1@IPCheck

; 3061 : 				// Yes, ask for permission if we are an incomplete AGMission that doesn't already have a designated target and it holds a ground target
; 3062 : 				if (missionClass == AGMission && !missionComplete && !mpActionFlags[AI_ENGAGE_TARGET] && groundTargetPtr)

	mov	ecx, DWORD PTR _this$[ebp]
	cmp	DWORD PTR [ecx+288], 0
	jne	$LN1@IPCheck
	mov	edx, DWORD PTR _this$[ebp]
	cmp	DWORD PTR [edx+292], 0
	jne	$LN1@IPCheck
	mov	eax, 4
	imul	eax, 3
	mov	ecx, DWORD PTR _this$[ebp]
	cmp	DWORD PTR [ecx+eax+760], 0
	jne	$LN1@IPCheck
	mov	edx, DWORD PTR _this$[ebp]
	cmp	DWORD PTR [edx+224], 0
	je	$LN1@IPCheck

; 3063 : 				{
; 3064 : 					// Flag we are waiting for permission and we have a ground target to shoot at
; 3065 : 					SetATCFlag(WaitingPermission);

	push	67108864				; 04000000H
	mov	ecx, DWORD PTR _this$[ebp]
	call	?SetATCFlag@DigitalBrain@@QAEXH@Z	; DigitalBrain::SetATCFlag

; 3066 : 					ClearATCFlag(WaitForTarget);

	push	1073741824				; 40000000H
	mov	ecx, DWORD PTR _this$[ebp]
	call	?ClearATCFlag@DigitalBrain@@QAEXH@Z	; DigitalBrain::ClearATCFlag

; 3067 : 
; 3068 : 					// Ask for permission to engage
; 3069 : 					SetATCFlag (AskedToEngage);

	push	1048576					; 00100000H
	mov	ecx, DWORD PTR _this$[ebp]
	call	?SetATCFlag@DigitalBrain@@QAEXH@Z	; DigitalBrain::SetATCFlag

; 3070 : 					edata[0]	= ((FlightClass*)self->GetCampaignObject())->callsign_id;

	mov	eax, DWORD PTR _this$[ebp]
	mov	ecx, DWORD PTR [eax+56]
	call	?GetCampaignObject@SimBaseClass@@QAEPAVCampBaseClass@@XZ ; SimBaseClass::GetCampaignObject
	movzx	cx, BYTE PTR [eax+425]
	mov	edx, 2
	imul	edx, 0
	mov	WORD PTR _edata$[ebp+edx], cx

; 3071 : 					edata[1]	= (((FlightClass*)self->GetCampaignObject())->callsign_num - 1) * 4 + isWing + 1;

	mov	eax, DWORD PTR _this$[ebp]
	mov	ecx, DWORD PTR [eax+56]
	call	?GetCampaignObject@SimBaseClass@@QAEPAVCampBaseClass@@XZ ; SimBaseClass::GetCampaignObject
	movzx	ecx, BYTE PTR [eax+426]
	mov	edx, DWORD PTR _this$[ebp]
	mov	eax, DWORD PTR [edx+24]
	lea	ecx, DWORD PTR [eax+ecx*4-3]
	mov	edx, 2
	shl	edx, 0
	mov	WORD PTR _edata$[ebp+edx], cx

; 3072 : 					response = rcREQUESTTOENGAGE;

	mov	DWORD PTR _response$[ebp], 175		; 000000afH

; 3073 : 					AiMakeRadioResponse( self, response, edata );

	lea	eax, DWORD PTR _edata$[ebp]
	push	eax
	mov	ecx, DWORD PTR _response$[ebp]
	push	ecx
	mov	edx, DWORD PTR _this$[ebp]
	mov	eax, DWORD PTR [edx+56]
	push	eax
	call	?AiMakeRadioResponse@@YAXPAVSimBaseClass@@HPAF@Z ; AiMakeRadioResponse
	add	esp, 12					; 0000000cH
$LN1@IPCheck:

; 3074 : 				}
; 3075 : 			}
; 3076 : 		}
; 3077 : 	}

	mov	ecx, DWORD PTR __$ArrayPad$[ebp]
	xor	ecx, ebp
	call	@__security_check_cookie@4
	mov	esp, ebp
	pop	ebp
	ret	0
?IPCheck@DigitalBrain@@IAEXXZ ENDP			; DigitalBrain::IPCheck
_TEXT	ENDS
; Function compile flags: /Odtp
; File c:\users\zhitao li\documents\visual studio 2012\projects\freefalcon\sim\digi\gndattck.cpp
_TEXT	SEGMENT
_dz$ = -164						; size = 4
tv947 = -160						; size = 4
tv1130 = -156						; size = 4
tv965 = -152						; size = 4
tv1121 = -148						; size = 4
tv1139 = -144						; size = 4
tv1105 = -140						; size = 4
tv1143 = -136						; size = 4
tv1079 = -132						; size = 4
tv942 = -128						; size = 4
tv1072 = -124						; size = 4
tv924 = -120						; size = 4
tv1056 = -116						; size = 4
tv958 = -112						; size = 4
tv1048 = -108						; size = 4
tv953 = -104						; size = 4
tv1040 = -100						; size = 4
tv1141 = -96						; size = 4
tv1031 = -92						; size = 4
tv917 = -88						; size = 4
tv1022 = -84						; size = 4
tv931 = -80						; size = 4
tv1005 = -76						; size = 4
_classPtr$ = -72					; size = 4
tv936 = -68						; size = 4
tv697 = -64						; size = 4
_campUnit$ = -60					; size = 4
tv680 = -56						; size = 4
tv90 = -52						; size = 4
tv342 = -48						; size = 4
_Sms$ = -44						; size = 4
_range$ = -40						; size = 4
_dx$ = -36						; size = 4
_vc$1 = -32						; size = 4
_wpAction$ = -28					; size = 4
tv143 = -24						; size = 4
_dy$ = -20						; size = 4
_campBaseTarg$ = -16					; size = 4
_LoiterTime$2 = -12					; size = 4
_dwp$ = -8						; size = 4
_this$ = -4						; size = 4
_cwp$ = 8						; size = 4
_wp$ = 12						; size = 4
?SetupAGMode@DigitalBrain@@IAEXPAVWayPointClass@@0@Z PROC ; DigitalBrain::SetupAGMode
; _this$ = ecx

; 2551 : 	{

	push	ebp
	mov	ebp, esp
	sub	esp, 164				; 000000a4H
	mov	DWORD PTR _this$[ebp], ecx

; 2552 : 		int wpAction;	
; 2553 : 		UnitClass *campUnit = (UnitClass *)self->GetCampaignObject();

	mov	eax, DWORD PTR _this$[ebp]
	mov	ecx, DWORD PTR [eax+56]
	call	?GetCampaignObject@SimBaseClass@@QAEPAVCampBaseClass@@XZ ; SimBaseClass::GetCampaignObject
	mov	DWORD PTR _campUnit$[ebp], eax

; 2554 : 		CampBaseClass *campBaseTarg;
; 2555 : 		float dx, dy, dz, range;
; 2556 : 		Falcon4EntityClassType* classPtr;
; 2557 : 		WayPointClass *dwp;
; 2558 : 		SMSClass* Sms = self->Sms;

	mov	ecx, DWORD PTR _this$[ebp]
	mov	edx, DWORD PTR [ecx+56]
	mov	eax, DWORD PTR [edx+940]
	mov	DWORD PTR _Sms$[ebp], eax

; 2559 : 
; 2560 : 		//================================================
; 2561 : 		// Cobra - bypass Setup while attacking with rockets
; 2562 : 		//================================================
; 2563 : 			if((Sms->curWeapon && Sms->curWeapon->IsLauncher() && hasRocket && onStation == Final) || rocketMnvr == RocketFiring)

	mov	ecx, DWORD PTR _Sms$[ebp]
	add	ecx, 164				; 000000a4H
	call	??B?$VuBin@VSimWeaponClass@@@@QBE_NXZ	; VuBin<SimWeaponClass>::operator bool
	movzx	ecx, al
	test	ecx, ecx
	je	SHORT $LN80@SetupAGMod
	mov	ecx, DWORD PTR _Sms$[ebp]
	add	ecx, 164				; 000000a4H
	call	??C?$VuBin@VSimWeaponClass@@@@QBEPAVSimWeaponClass@@XZ ; VuBin<SimWeaponClass>::operator->
	mov	DWORD PTR tv90[ebp], eax
	mov	edx, DWORD PTR tv90[ebp]
	mov	eax, DWORD PTR [edx]
	mov	ecx, DWORD PTR tv90[ebp]
	mov	edx, DWORD PTR [eax+160]
	call	edx
	test	eax, eax
	je	SHORT $LN80@SetupAGMod
	mov	eax, DWORD PTR _this$[ebp]
	cmp	DWORD PTR [eax+192], 0
	je	SHORT $LN80@SetupAGMod
	mov	ecx, DWORD PTR _this$[ebp]
	cmp	DWORD PTR [ecx+132], 15			; 0000000fH
	je	SHORT $LN81@SetupAGMod
$LN80@SetupAGMod:
	mov	edx, DWORD PTR _this$[ebp]
	cmp	DWORD PTR [edx+44], 1
	jne	SHORT $LN82@SetupAGMod
$LN81@SetupAGMod:

; 2564 : 			{
; 2565 : 				return;

	jmp	$LN83@SetupAGMod
$LN82@SetupAGMod:

; 2566 : 			}
; 2567 : 		//================================================
; 2568 : 
; 2569 : 		// Cobra - Initialize the loitering timer
; 2570 : 		if (agmergeTimer < 0)

	mov	eax, DWORD PTR _this$[ebp]
	cmp	DWORD PTR [eax+556], 0
	jae	$LN72@SetupAGMod

; 2571 : 		{
; 2572 : 			int LoiterTime = g_nGroundAttackTime;

	mov	ecx, DWORD PTR ?g_nGroundAttackTime@@3HA ; g_nGroundAttackTime
	mov	DWORD PTR _LoiterTime$2[ebp], ecx

; 2573 : 			switch (self->curWaypoint->GetWPAction())

	mov	edx, DWORD PTR _this$[ebp]
	mov	eax, DWORD PTR [edx+56]
	mov	ecx, DWORD PTR [eax+728]
	call	?GetWPAction@WayPointClass@@QAEHXZ	; WayPointClass::GetWPAction
	mov	DWORD PTR tv143[ebp], eax
	mov	ecx, DWORD PTR tv143[ebp]
	sub	ecx, 9
	mov	DWORD PTR tv143[ebp], ecx
	cmp	DWORD PTR tv143[ebp], 12		; 0000000cH
	ja	SHORT $LN73@SetupAGMod
	mov	edx, DWORD PTR tv143[ebp]
	movzx	eax, BYTE PTR $LN89@SetupAGMod[edx]
	jmp	DWORD PTR $LN90@SetupAGMod[eax*4]
$LN76@SetupAGMod:

; 2574 : 			{
; 2575 : 				case WP_GNDSTRIKE:
; 2576 : 				case WP_NAVSTRIKE:
; 2577 : 				case WP_STRIKE:
; 2578 : 				case WP_BOMB:
; 2579 : 					LoiterTime = g_nStrikeAttackTime;

	mov	ecx, DWORD PTR ?g_nStrikeAttackTime@@3HA ; g_nStrikeAttackTime
	mov	DWORD PTR _LoiterTime$2[ebp], ecx

; 2580 : 					break;

	jmp	SHORT $LN77@SetupAGMod
$LN75@SetupAGMod:

; 2581 : 
; 2582 : 				case WP_SEAD:
; 2583 : 					LoiterTime = g_nSeadAttackTime;

	mov	edx, DWORD PTR ?g_nSeadAttackTime@@3HA	; g_nSeadAttackTime
	mov	DWORD PTR _LoiterTime$2[ebp], edx

; 2584 : 					break;

	jmp	SHORT $LN77@SetupAGMod
$LN74@SetupAGMod:

; 2585 : 
; 2586 : 				case WP_SAD:
; 2587 : 				case WP_CASCP:
; 2588 : 				case WP_RECON:
; 2589 : 					LoiterTime = g_nCASAttackTime;

	mov	eax, DWORD PTR ?g_nCASAttackTime@@3HA	; g_nCASAttackTime
	mov	DWORD PTR _LoiterTime$2[ebp], eax

; 2590 : 					break;

	jmp	SHORT $LN77@SetupAGMod
$LN73@SetupAGMod:

; 2591 : 
; 2592 : 				default:
; 2593 : 					LoiterTime = g_nGroundAttackTime;

	mov	ecx, DWORD PTR ?g_nGroundAttackTime@@3HA ; g_nGroundAttackTime
	mov	DWORD PTR _LoiterTime$2[ebp], ecx
$LN77@SetupAGMod:

; 2594 : 					break;
; 2595 : 			}
; 2596 : 
; 2597 : 			agmergeTimer = SimLibElapsedTime + LoiterTime * 60 * SEC_TO_MSEC;

	mov	edx, DWORD PTR _LoiterTime$2[ebp]
	imul	edx, 60					; 0000003cH
	imul	edx, 1000				; 000003e8H
	add	edx, DWORD PTR ?SimLibElapsedTime@@3KA	; SimLibElapsedTime
	mov	eax, DWORD PTR _this$[ebp]
	mov	DWORD PTR [eax+556], edx

; 2598 : 
; 2599 : 
; 2600 : 			// Cobra - Try turning your AI wingmen loose
; 2601 : 			if (self->GetCampaignObject()->NumberOfComponents()>1 && !isWing)

	mov	ecx, DWORD PTR _this$[ebp]
	mov	ecx, DWORD PTR [ecx+56]
	call	?GetCampaignObject@SimBaseClass@@QAEPAVCampBaseClass@@XZ ; SimBaseClass::GetCampaignObject
	mov	ecx, eax
	call	?NumberOfComponents@CampBaseClass@@QAEHXZ ; CampBaseClass::NumberOfComponents
	cmp	eax, 1
	jle	SHORT $LN72@SetupAGMod
	mov	edx, DWORD PTR _this$[ebp]
	cmp	DWORD PTR [edx+24], 0
	jne	SHORT $LN72@SetupAGMod

; 2602 : 				// RED - FIXED CTD - AI should not use this function
; 2603 : 				// AiSendPlayerCommand( FalconWingmanMsg::WMWeaponsFree, AiFlight );
; 2604 : 				AiSendCommand( self, FalconWingmanMsg::WMWeaponsFree, AiFlight, FalconNullId );

	mov	eax, DWORD PTR ?FalconNullId@@3VVU_ID@@A+4
	push	eax
	mov	ecx, DWORD PTR ?FalconNullId@@3VVU_ID@@A
	push	ecx
	push	2
	push	14					; 0000000eH
	mov	edx, DWORD PTR _this$[ebp]
	mov	eax, DWORD PTR [edx+56]
	push	eax
	call	?AiSendCommand@@YAXPAVSimBaseClass@@HHVVU_ID@@@Z ; AiSendCommand
	add	esp, 20					; 00000014H
$LN72@SetupAGMod:

; 2605 : 		}
; 2606 : 
; 2607 : 		// So we don't think our mission is complete and forget to go to CrossWind from 'NotThereYet'
; 2608 : 		// Cobra - if we have been attacking long enough, go home
; 2609 : 		if (agmergeTimer != 0 && SimLibElapsedTime > agmergeTimer)   

	mov	ecx, DWORD PTR _this$[ebp]
	cmp	DWORD PTR [ecx+556], 0
	je	SHORT $LN71@SetupAGMod
	mov	edx, DWORD PTR _this$[ebp]
	mov	eax, DWORD PTR ?SimLibElapsedTime@@3KA	; SimLibElapsedTime
	cmp	eax, DWORD PTR [edx+556]
	jbe	SHORT $LN71@SetupAGMod

; 2610 : 		{
; 2611 : 			ClearATCFlag(HasCanUseAGWeapon);

	push	536870912				; 20000000H
	mov	ecx, DWORD PTR _this$[ebp]
	call	?ClearATCFlag@DigitalBrain@@QAEXH@Z	; DigitalBrain::ClearATCFlag

; 2612 : 			ClearATCFlag(HasAGWeapon);

	push	4194304					; 00400000H
	mov	ecx, DWORD PTR _this$[ebp]
	call	?ClearATCFlag@DigitalBrain@@QAEXH@Z	; DigitalBrain::ClearATCFlag

; 2613 : 			agmergeTimer = SimLibElapsedTime + 1;

	mov	ecx, DWORD PTR ?SimLibElapsedTime@@3KA	; SimLibElapsedTime
	add	ecx, 1
	mov	edx, DWORD PTR _this$[ebp]
	mov	DWORD PTR [edx+556], ecx

; 2614 : 			SetGroundTarget(NULL);

	push	0
	mov	ecx, DWORD PTR _this$[ebp]
	call	?SetGroundTarget@DigitalBrain@@IAEXPAVFalconEntity@@@Z ; DigitalBrain::SetGroundTarget

; 2615 : 			agDoctrine = AGD_NONE;

	mov	eax, DWORD PTR _this$[ebp]
	mov	DWORD PTR [eax+244], 0

; 2616 : 			missionComplete = TRUE;

	mov	ecx, DWORD PTR _this$[ebp]
	mov	DWORD PTR [ecx+292], 1

; 2617 : 			return;

	jmp	$LN83@SetupAGMod

; 2618 : 		}
; 2619 : 		else

	jmp	SHORT $LN70@SetupAGMod
$LN71@SetupAGMod:

; 2620 : 			missionComplete = FALSE;

	mov	edx, DWORD PTR _this$[ebp]
	mov	DWORD PTR [edx+292], 0
$LN70@SetupAGMod:

; 2621 : 
; 2622 : 		agImprovise = FALSE;

	mov	eax, DWORD PTR _this$[ebp]
	mov	DWORD PTR [eax+240], 0

; 2623 : 
; 2624 : 		// First, lets get a target if we're the lead, otherwise use the target provided by the lead...
; 2625 : 
; 2626 : 		if (!isWing) 

	mov	ecx, DWORD PTR _this$[ebp]
	cmp	DWORD PTR [ecx+24], 0
	jne	$LN69@SetupAGMod

; 2627 : 		{
; 2628 : 			dwp = NULL;

	mov	DWORD PTR _dwp$[ebp], 0

; 2629 : 			if (campUnit)

	cmp	DWORD PTR _campUnit$[ebp], 0
	je	SHORT $LN68@SetupAGMod

; 2630 : 				dwp = ((FlightClass *)campUnit)->GetOverrideWP();

	mov	ecx, DWORD PTR _campUnit$[ebp]
	call	?GetOverrideWP@FlightClass@@QAEPAVWayPointClass@@XZ ; FlightClass::GetOverrideWP
	mov	DWORD PTR _dwp$[ebp], eax
$LN68@SetupAGMod:

; 2631 : 
; 2632 : 			// If we were passed a target wayp
; 2633 : 			if (wp) 

	cmp	DWORD PTR _wp$[ebp], 0
	je	$LN67@SetupAGMod

; 2634 : 			{
; 2635 : 				// First have the lead fly toward the IP waypoint until he can see a target
; 2636 : 				if (cwp != wp) 

	mov	edx, DWORD PTR _cwp$[ebp]
	cmp	edx, DWORD PTR _wp$[ebp]
	je	SHORT $LN66@SetupAGMod

; 2637 : 				{
; 2638 : 					cwp->GetLocation(&ipX, &ipY, &ipZ);

	mov	eax, DWORD PTR _this$[ebp]
	add	eax, 276				; 00000114H
	push	eax
	mov	ecx, DWORD PTR _this$[ebp]
	add	ecx, 272				; 00000110H
	push	ecx
	mov	edx, DWORD PTR _this$[ebp]
	add	edx, 268				; 0000010cH
	push	edx
	mov	ecx, DWORD PTR _cwp$[ebp]
	call	?GetLocation@WayPointClass@@QBEXPAM00@Z	; WayPointClass::GetLocation

; 2639 : 
; 2640 : 					// Next waypoint is our target waypoint
; 2641 : 					SelectNextWaypoint();

	mov	ecx, DWORD PTR _this$[ebp]
	call	?SelectNextWaypoint@DigitalBrain@@IAEXXZ ; DigitalBrain::SelectNextWaypoint

; 2642 : 
; 2643 : 					// If we have HARM or JSOW on board (even if we can't use them), start your attack from here
; 2644 : 					// Cobra - JSOWs start attack here also
; 2645 : 					if ((hasHARM) || (hasBomb == TRUE + 4)) 

	mov	eax, DWORD PTR _this$[ebp]
	cmp	DWORD PTR [eax+188], 0
	jne	SHORT $LN64@SetupAGMod
	mov	ecx, DWORD PTR _this$[ebp]
	cmp	DWORD PTR [ecx+180], 5
	jne	SHORT $LN65@SetupAGMod
$LN64@SetupAGMod:

; 2646 : 					{
; 2647 : 						ipX = self->XPos();

	mov	edx, DWORD PTR _this$[ebp]
	mov	ecx, DWORD PTR [edx+56]
	call	?XPos@VuEntity@@QBEMXZ			; VuEntity::XPos
	mov	eax, DWORD PTR _this$[ebp]
	fstp	DWORD PTR [eax+268]

; 2648 : 						ipY = self->YPos();

	mov	ecx, DWORD PTR _this$[ebp]
	mov	ecx, DWORD PTR [ecx+56]
	call	?YPos@VuEntity@@QBEMXZ			; VuEntity::YPos
	mov	edx, DWORD PTR _this$[ebp]
	fstp	DWORD PTR [edx+272]
$LN65@SetupAGMod:

; 2649 : 					}
; 2650 : 				}
; 2651 : 				else 

	jmp	SHORT $LN61@SetupAGMod
$LN66@SetupAGMod:

; 2652 : 				{
; 2653 : 					if (dwp)

	cmp	DWORD PTR _dwp$[ebp], 0
	je	SHORT $LN62@SetupAGMod

; 2654 : 						dwp->GetLocation(&ipX, &ipY, &ipZ);

	mov	eax, DWORD PTR _this$[ebp]
	add	eax, 276				; 00000114H
	push	eax
	mov	ecx, DWORD PTR _this$[ebp]
	add	ecx, 272				; 00000110H
	push	ecx
	mov	edx, DWORD PTR _this$[ebp]
	add	edx, 268				; 0000010cH
	push	edx
	mov	ecx, DWORD PTR _dwp$[ebp]
	call	?GetLocation@WayPointClass@@QBEXPAM00@Z	; WayPointClass::GetLocation

; 2655 : 					else

	jmp	SHORT $LN61@SetupAGMod
$LN62@SetupAGMod:

; 2656 : 						wp->GetLocation(&ipX, &ipY, &ipZ);

	mov	eax, DWORD PTR _this$[ebp]
	add	eax, 276				; 00000114H
	push	eax
	mov	ecx, DWORD PTR _this$[ebp]
	add	ecx, 272				; 00000110H
	push	ecx
	mov	edx, DWORD PTR _this$[ebp]
	add	edx, 268				; 0000010cH
	push	edx
	mov	ecx, DWORD PTR _wp$[ebp]
	call	?GetLocation@WayPointClass@@QBEXPAM00@Z	; WayPointClass::GetLocation
$LN61@SetupAGMod:

; 2657 : 
; 2658 : 				}
; 2659 : 
; 2660 : 				wpAction = wp->GetWPAction();

	mov	ecx, DWORD PTR _wp$[ebp]
	call	?GetWPAction@WayPointClass@@QAEHXZ	; WayPointClass::GetWPAction
	mov	DWORD PTR _wpAction$[ebp], eax

; 2661 : 				// If we have nothing, look at our enroute action
; 2662 : 				if (wpAction == WP_NOTHING)

	cmp	DWORD PTR _wpAction$[ebp], 0
	jne	SHORT $LN60@SetupAGMod

; 2663 : 					wpAction = wp->GetWPRouteAction();

	mov	ecx, DWORD PTR _wp$[ebp]
	call	?GetWPRouteAction@WayPointClass@@QAEHXZ	; WayPointClass::GetWPRouteAction
	mov	DWORD PTR _wpAction$[ebp], eax
$LN60@SetupAGMod:

; 2664 : 
; 2665 : 				// If it's a SEAD or CASCP waypoint, do the following...
; 2666 : 				if ((wpAction == WP_SEAD || wpAction == WP_CASCP) && cwp == wp) 

	cmp	DWORD PTR _wpAction$[ebp], 19		; 00000013H
	je	SHORT $LN58@SetupAGMod
	cmp	DWORD PTR _wpAction$[ebp], 9
	jne	$LN59@SetupAGMod
$LN58@SetupAGMod:
	mov	eax, DWORD PTR _cwp$[ebp]
	cmp	eax, DWORD PTR _wp$[ebp]
	jne	$LN59@SetupAGMod

; 2667 : 				{
; 2668 : 					// But only if it is time to retarget, otherwise stay quiet
; 2669 : 					if (SimLibElapsedTime > nextAGTargetTime) 

	mov	ecx, DWORD PTR _this$[ebp]
	mov	edx, DWORD PTR ?SimLibElapsedTime@@3KA	; SimLibElapsedTime
	cmp	edx, DWORD PTR [ecx+252]
	jbe	$LN57@SetupAGMod

; 2670 : 					{
; 2671 : 						// Next retarget in 5 seconds
; 2672 : 						nextAGTargetTime = SimLibElapsedTime + 5000;

	mov	eax, DWORD PTR ?SimLibElapsedTime@@3KA	; SimLibElapsedTime
	add	eax, 5000				; 00001388H
	mov	ecx, DWORD PTR _this$[ebp]
	mov	DWORD PTR [ecx+252], eax

; 2673 : 
; 2674 : 						// First, lets release our current target and target history
; 2675 : 						SetGroundTarget( NULL );

	push	0
	mov	ecx, DWORD PTR _this$[ebp]
	call	?SetGroundTarget@DigitalBrain@@IAEXPAVFalconEntity@@@Z ; DigitalBrain::SetGroundTarget

; 2676 : 						gndTargetHistory[0] = NULL;

	mov	edx, 4
	imul	edx, 0
	mov	eax, DWORD PTR _this$[ebp]
	mov	DWORD PTR [eax+edx+452], 0

; 2677 : 
; 2678 : 						// The first call should get a campaign entity while the second one will fetch a sim entity within
; 2679 : 						SelectGroundTarget( TARGET_ANYTHING );

	push	0
	mov	ecx, DWORD PTR _this$[ebp]
	call	?SelectGroundTarget@DigitalBrain@@IAEXH@Z ; DigitalBrain::SelectGroundTarget

; 2680 : 						if (groundTargetPtr == NULL)

	mov	ecx, DWORD PTR _this$[ebp]
	cmp	DWORD PTR [ecx+224], 0
	jne	SHORT $LN56@SetupAGMod

; 2681 : 							return;

	jmp	$LN83@SetupAGMod
$LN56@SetupAGMod:

; 2682 : 						if (groundTargetPtr->BaseData()->IsCampaign() && !((CampBaseClass *)groundTargetPtr->BaseData())->IsAggregate())

	mov	edx, DWORD PTR _this$[ebp]
	mov	ecx, DWORD PTR [edx+224]
	call	?BaseData@SimObjectType@@QAEPAVFalconEntity@@XZ ; SimObjectType::BaseData
	mov	ecx, eax
	call	?IsCampaign@FalconEntity@@QAEHXZ	; FalconEntity::IsCampaign
	test	eax, eax
	je	SHORT $LN55@SetupAGMod
	mov	eax, DWORD PTR _this$[ebp]
	mov	ecx, DWORD PTR [eax+224]
	call	?BaseData@SimObjectType@@QAEPAVFalconEntity@@XZ ; SimObjectType::BaseData
	mov	ecx, eax
	call	?IsAggregate@CampBaseClass@@QAEHXZ	; CampBaseClass::IsAggregate
	test	eax, eax
	jne	SHORT $LN55@SetupAGMod

; 2683 : 							SelectGroundTarget( TARGET_ANYTHING );

	push	0
	mov	ecx, DWORD PTR _this$[ebp]
	call	?SelectGroundTarget@DigitalBrain@@IAEXH@Z ; DigitalBrain::SelectGroundTarget
$LN55@SetupAGMod:

; 2684 : 					}
; 2685 : 					else

	jmp	SHORT $LN54@SetupAGMod
$LN57@SetupAGMod:

; 2686 : 						return;

	jmp	$LN83@SetupAGMod
$LN54@SetupAGMod:

; 2687 : 				}
; 2688 : 				else 

	jmp	$LN40@SetupAGMod
$LN59@SetupAGMod:

; 2689 : 				{
; 2690 : 					// divert waypoint overrides everything else
; 2691 : 					if (dwp) 

	cmp	DWORD PTR _dwp$[ebp], 0
	je	SHORT $LN52@SetupAGMod

; 2692 : 					{
; 2693 : 						campBaseTarg = dwp->GetWPTarget();

	mov	ecx, DWORD PTR _dwp$[ebp]
	call	?GetWPTarget@WayPointClass@@QAEPAVCampBaseClass@@XZ ; WayPointClass::GetWPTarget
	mov	DWORD PTR _campBaseTarg$[ebp], eax

; 2694 : 						if (!campBaseTarg) {

	cmp	DWORD PTR _campBaseTarg$[ebp], 0
	jne	SHORT $LN51@SetupAGMod

; 2695 : 							dwp = NULL;

	mov	DWORD PTR _dwp$[ebp], 0

; 2696 : 							campBaseTarg = wp->GetWPTarget();

	mov	ecx, DWORD PTR _wp$[ebp]
	call	?GetWPTarget@WayPointClass@@QAEPAVCampBaseClass@@XZ ; WayPointClass::GetWPTarget
	mov	DWORD PTR _campBaseTarg$[ebp], eax
$LN51@SetupAGMod:

; 2697 : 						}
; 2698 : 					}
; 2699 : 					else

	jmp	SHORT $LN50@SetupAGMod
$LN52@SetupAGMod:

; 2700 : 						campBaseTarg = wp->GetWPTarget();

	mov	ecx, DWORD PTR _wp$[ebp]
	call	?GetWPTarget@WayPointClass@@QAEPAVCampBaseClass@@XZ ; WayPointClass::GetWPTarget
	mov	DWORD PTR _campBaseTarg$[ebp], eax
$LN50@SetupAGMod:

; 2701 : 
; 2702 : 					// See if we got a target waypoint target, if not, try and see if we can select one by using the campaign target selector
; 2703 : 					if (campBaseTarg == NULL) 

	cmp	DWORD PTR _campBaseTarg$[ebp], 0
	jne	$LN49@SetupAGMod

; 2704 : 					{
; 2705 : 						if (SimLibElapsedTime > nextAGTargetTime) 

	mov	ecx, DWORD PTR _this$[ebp]
	mov	edx, DWORD PTR ?SimLibElapsedTime@@3KA	; SimLibElapsedTime
	cmp	edx, DWORD PTR [ecx+252]
	jbe	$LN48@SetupAGMod

; 2706 : 						{
; 2707 : 							// Next retarget in 5 seconds
; 2708 : 							nextAGTargetTime = SimLibElapsedTime + 5000;

	mov	eax, DWORD PTR ?SimLibElapsedTime@@3KA	; SimLibElapsedTime
	add	eax, 5000				; 00001388H
	mov	ecx, DWORD PTR _this$[ebp]
	mov	DWORD PTR [ecx+252], eax

; 2709 : 
; 2710 : 							// First, lets release our current target and target history
; 2711 : 							SetGroundTarget( NULL );

	push	0
	mov	ecx, DWORD PTR _this$[ebp]
	call	?SetGroundTarget@DigitalBrain@@IAEXPAVFalconEntity@@@Z ; DigitalBrain::SetGroundTarget

; 2712 : 							gndTargetHistory[0] = NULL;

	mov	edx, 4
	imul	edx, 0
	mov	eax, DWORD PTR _this$[ebp]
	mov	DWORD PTR [eax+edx+452], 0

; 2713 : 
; 2714 : 							// The first call should get a campaign entity while the second one will fetch a sim entity within
; 2715 : 							SelectGroundTarget( TARGET_ANYTHING );

	push	0
	mov	ecx, DWORD PTR _this$[ebp]
	call	?SelectGroundTarget@DigitalBrain@@IAEXH@Z ; DigitalBrain::SelectGroundTarget

; 2716 : 							if (groundTargetPtr == NULL)

	mov	ecx, DWORD PTR _this$[ebp]
	cmp	DWORD PTR [ecx+224], 0
	jne	SHORT $LN47@SetupAGMod

; 2717 : 								return;

	jmp	$LN83@SetupAGMod
$LN47@SetupAGMod:

; 2718 : 							if (groundTargetPtr->BaseData()->IsCampaign() && !((CampBaseClass *)groundTargetPtr->BaseData())->IsAggregate())

	mov	edx, DWORD PTR _this$[ebp]
	mov	ecx, DWORD PTR [edx+224]
	call	?BaseData@SimObjectType@@QAEPAVFalconEntity@@XZ ; SimObjectType::BaseData
	mov	ecx, eax
	call	?IsCampaign@FalconEntity@@QAEHXZ	; FalconEntity::IsCampaign
	test	eax, eax
	je	SHORT $LN46@SetupAGMod
	mov	eax, DWORD PTR _this$[ebp]
	mov	ecx, DWORD PTR [eax+224]
	call	?BaseData@SimObjectType@@QAEPAVFalconEntity@@XZ ; SimObjectType::BaseData
	mov	ecx, eax
	call	?IsAggregate@CampBaseClass@@QAEHXZ	; CampBaseClass::IsAggregate
	test	eax, eax
	jne	SHORT $LN46@SetupAGMod

; 2719 : 								SelectGroundTarget( TARGET_ANYTHING );

	push	0
	mov	ecx, DWORD PTR _this$[ebp]
	call	?SelectGroundTarget@DigitalBrain@@IAEXH@Z ; DigitalBrain::SelectGroundTarget
$LN46@SetupAGMod:

; 2720 : 						}
; 2721 : 						else

	jmp	SHORT $LN45@SetupAGMod
$LN48@SetupAGMod:

; 2722 : 							return;

	jmp	$LN83@SetupAGMod
$LN45@SetupAGMod:
	jmp	$LN40@SetupAGMod
$LN49@SetupAGMod:

; 2723 : 					}
; 2724 : 					// set ground target to camp base if ground target is NULL at this point
; 2725 : 					else if ( groundTargetPtr == NULL )

	mov	ecx, DWORD PTR _this$[ebp]
	cmp	DWORD PTR [ecx+224], 0
	jne	$LN40@SetupAGMod

; 2726 : 					{
; 2727 : 						SetGroundTarget( campBaseTarg );

	mov	edx, DWORD PTR _campBaseTarg$[ebp]
	push	edx
	mov	ecx, DWORD PTR _this$[ebp]
	call	?SetGroundTarget@DigitalBrain@@IAEXPAVFalconEntity@@@Z ; DigitalBrain::SetGroundTarget

; 2728 : 
; 2729 : 						if (groundTargetPtr == NULL)

	mov	eax, DWORD PTR _this$[ebp]
	cmp	DWORD PTR [eax+224], 0
	jne	SHORT $LN42@SetupAGMod

; 2730 : 							return;

	jmp	$LN83@SetupAGMod
$LN42@SetupAGMod:

; 2731 : 						// 2001-10-26 ADDED by M.N. If player changed mission type in TE planner, and below the target WP
; 2732 : 						// we find a package object, it will become a ground target. If a package is engaged, CTD.
; 2733 : 						if (groundTargetPtr->BaseData()->IsPackage())

	mov	ecx, DWORD PTR _this$[ebp]
	mov	ecx, DWORD PTR [ecx+224]
	call	?BaseData@SimObjectType@@QAEPAVFalconEntity@@XZ ; SimObjectType::BaseData
	mov	DWORD PTR tv342[ebp], eax
	mov	edx, DWORD PTR tv342[ebp]
	mov	eax, DWORD PTR [edx]
	mov	ecx, DWORD PTR tv342[ebp]
	mov	edx, DWORD PTR [eax+256]
	call	edx
	test	eax, eax
	je	SHORT $LN41@SetupAGMod

; 2734 : 						{
; 2735 : 							SetGroundTarget( NULL );

	push	0
	mov	ecx, DWORD PTR _this$[ebp]
	call	?SetGroundTarget@DigitalBrain@@IAEXPAVFalconEntity@@@Z ; DigitalBrain::SetGroundTarget

; 2736 : 							gndTargetHistory[0] = NULL;

	mov	eax, 4
	imul	eax, 0
	mov	ecx, DWORD PTR _this$[ebp]
	mov	DWORD PTR [ecx+eax+452], 0

; 2737 : 							SelectGroundTarget( TARGET_ANYTHING );	// choose something else

	push	0
	mov	ecx, DWORD PTR _this$[ebp]
	call	?SelectGroundTarget@DigitalBrain@@IAEXH@Z ; DigitalBrain::SelectGroundTarget
$LN41@SetupAGMod:

; 2738 : 						}
; 2739 : 						// END of added section
; 2740 : 
; 2741 : 						// Then get a sim entity from it
; 2742 : 						if (groundTargetPtr->BaseData()->IsCampaign() && !((CampBaseClass *)groundTargetPtr->BaseData())->IsAggregate())

	mov	edx, DWORD PTR _this$[ebp]
	mov	ecx, DWORD PTR [edx+224]
	call	?BaseData@SimObjectType@@QAEPAVFalconEntity@@XZ ; SimObjectType::BaseData
	mov	ecx, eax
	call	?IsCampaign@FalconEntity@@QAEHXZ	; FalconEntity::IsCampaign
	test	eax, eax
	je	SHORT $LN40@SetupAGMod
	mov	eax, DWORD PTR _this$[ebp]
	mov	ecx, DWORD PTR [eax+224]
	call	?BaseData@SimObjectType@@QAEPAVFalconEntity@@XZ ; SimObjectType::BaseData
	mov	ecx, eax
	call	?IsAggregate@CampBaseClass@@QAEHXZ	; CampBaseClass::IsAggregate
	test	eax, eax
	jne	SHORT $LN40@SetupAGMod

; 2743 : 							SelectGroundTarget( TARGET_ANYTHING );

	push	0
	mov	ecx, DWORD PTR _this$[ebp]
	call	?SelectGroundTarget@DigitalBrain@@IAEXH@Z ; DigitalBrain::SelectGroundTarget
$LN40@SetupAGMod:

; 2744 : 					}
; 2745 : 				}

	jmp	SHORT $LN36@SetupAGMod
$LN67@SetupAGMod:

; 2746 : 			}
; 2747 : 			// It's not from a waypoint action (could be a target of opportunity, even from A2A mission if it has A2G weapons as well)
; 2748 : 			else  if (SimLibElapsedTime > nextAGTargetTime) 

	mov	ecx, DWORD PTR _this$[ebp]
	mov	edx, DWORD PTR ?SimLibElapsedTime@@3KA	; SimLibElapsedTime
	cmp	edx, DWORD PTR [ecx+252]
	jbe	SHORT $LN38@SetupAGMod

; 2749 : 			{
; 2750 : 				// Next retarget in 5 seconds
; 2751 : 				nextAGTargetTime = SimLibElapsedTime + 5000;

	mov	eax, DWORD PTR ?SimLibElapsedTime@@3KA	; SimLibElapsedTime
	add	eax, 5000				; 00001388H
	mov	ecx, DWORD PTR _this$[ebp]
	mov	DWORD PTR [ecx+252], eax

; 2752 : 
; 2753 : 				// First, lets release our current target and target history
; 2754 : 				SetGroundTarget( NULL );

	push	0
	mov	ecx, DWORD PTR _this$[ebp]
	call	?SetGroundTarget@DigitalBrain@@IAEXPAVFalconEntity@@@Z ; DigitalBrain::SetGroundTarget

; 2755 : 				gndTargetHistory[0] = NULL;

	mov	edx, 4
	imul	edx, 0
	mov	eax, DWORD PTR _this$[ebp]
	mov	DWORD PTR [eax+edx+452], 0

; 2756 : 
; 2757 : 				// The first call should get a campaign entity while the second one will fetch a sim entity within
; 2758 : 				SelectGroundTarget( TARGET_ANYTHING );

	push	0
	mov	ecx, DWORD PTR _this$[ebp]
	call	?SelectGroundTarget@DigitalBrain@@IAEXH@Z ; DigitalBrain::SelectGroundTarget

; 2759 : 				if (groundTargetPtr == NULL)

	mov	ecx, DWORD PTR _this$[ebp]
	cmp	DWORD PTR [ecx+224], 0
	jne	SHORT $LN37@SetupAGMod

; 2760 : 					return;

	jmp	$LN83@SetupAGMod
$LN37@SetupAGMod:

; 2761 : 				SelectGroundTarget( TARGET_ANYTHING );

	push	0
	mov	ecx, DWORD PTR _this$[ebp]
	call	?SelectGroundTarget@DigitalBrain@@IAEXH@Z ; DigitalBrain::SelectGroundTarget

; 2762 : 
; 2763 : 				// Don't ask me, that's how they had it in the orininal code
; 2764 : 				agImprovise = TRUE;

	mov	edx, DWORD PTR _this$[ebp]
	mov	DWORD PTR [edx+240], 1

; 2765 : 			}
; 2766 : 			// Not the time to retarget, so get out
; 2767 : 			else

	jmp	SHORT $LN36@SetupAGMod
$LN38@SetupAGMod:

; 2768 : 				return;

	jmp	$LN83@SetupAGMod
$LN36@SetupAGMod:

; 2769 : 
; 2770 : 		}
; 2771 : 		// Don't ask me, that's how they had it in the orininal code
; 2772 : 		else

	jmp	SHORT $LN35@SetupAGMod
$LN69@SetupAGMod:

; 2773 : 		{
; 2774 : 			agImprovise = TRUE;

	mov	eax, DWORD PTR _this$[ebp]
	mov	DWORD PTR [eax+240], 1
$LN35@SetupAGMod:

; 2775 : 		}
; 2776 : 
; 2777 : 		// No ground target? do nothing
; 2778 : 		if (!groundTargetPtr)

	mov	ecx, DWORD PTR _this$[ebp]
	cmp	DWORD PTR [ecx+224], 0
	jne	SHORT $LN34@SetupAGMod

; 2779 : 			return;

	jmp	$LN83@SetupAGMod
$LN34@SetupAGMod:

; 2780 : 
; 2781 : 		// After all this, make sure we have a sim target if we can
; 2782 : 		if (groundTargetPtr->BaseData()->IsCampaign() && !((CampBaseClass *)groundTargetPtr->BaseData())->IsAggregate())

	mov	edx, DWORD PTR _this$[ebp]
	mov	ecx, DWORD PTR [edx+224]
	call	?BaseData@SimObjectType@@QAEPAVFalconEntity@@XZ ; SimObjectType::BaseData
	mov	ecx, eax
	call	?IsCampaign@FalconEntity@@QAEHXZ	; FalconEntity::IsCampaign
	test	eax, eax
	je	SHORT $LN33@SetupAGMod
	mov	eax, DWORD PTR _this$[ebp]
	mov	ecx, DWORD PTR [eax+224]
	call	?BaseData@SimObjectType@@QAEPAVFalconEntity@@XZ ; SimObjectType::BaseData
	mov	ecx, eax
	call	?IsAggregate@CampBaseClass@@QAEHXZ	; CampBaseClass::IsAggregate
	test	eax, eax
	jne	SHORT $LN33@SetupAGMod

; 2783 : 			SelectGroundTarget( TARGET_ANYTHING );

	push	0
	mov	ecx, DWORD PTR _this$[ebp]
	call	?SelectGroundTarget@DigitalBrain@@IAEXH@Z ; DigitalBrain::SelectGroundTarget
$LN33@SetupAGMod:

; 2784 : 
; 2785 : 		// do we have any ground weapons?
; 2786 : /*		SelectGroundWeapon();
; 2787 : 		if (!IsSetATC(HasAGWeapon)) 
; 2788 : 		{
; 2789 : 			// Nope, can't really attack can't we? so bail out
; 2790 : 			SetGroundTarget(NULL);
; 2791 : 			agDoctrine = AGD_NONE;
; 2792 : 			return;
; 2793 : 		}
; 2794 : */
; 2795 : 		// Better be safe than sory...
; 2796 : 		if (groundTargetPtr == NULL) 

	mov	ecx, DWORD PTR _this$[ebp]
	cmp	DWORD PTR [ecx+224], 0
	jne	SHORT $LN32@SetupAGMod

; 2797 : 		{
; 2798 : 			// Nope, somehow we lost our target so bail out...
; 2799 : 			agDoctrine = AGD_NONE;

	mov	edx, DWORD PTR _this$[ebp]
	mov	DWORD PTR [edx+244], 0

; 2800 : 			return;

	jmp	$LN83@SetupAGMod
$LN32@SetupAGMod:

; 2801 : 		}
; 2802 : 
; 2803 : 		// Tell the AI it hasn't done a ground pass yet so it can redo its attack profile
; 2804 : 		madeAGPass = FALSE;

	mov	eax, DWORD PTR _this$[ebp]
	mov	DWORD PTR [eax+260], 0

; 2805 : 
; 2806 : 		// set doctrine and approach to default value, calc an insertion point loc
; 2807 : 		agDoctrine = AGD_LOOK_SHOOT_LOOK;

	mov	ecx, DWORD PTR _this$[ebp]
	mov	DWORD PTR [ecx+244], 2

; 2808 : 		if (missionType == AMIS_SEADESCORT || missionType == AMIS_SEADSTRIKE) 

	mov	edx, DWORD PTR _this$[ebp]
	cmp	DWORD PTR [edx+284], 12			; 0000000cH
	je	SHORT $LN30@SetupAGMod
	mov	eax, DWORD PTR _this$[ebp]
	cmp	DWORD PTR [eax+284], 11			; 0000000bH
	jne	SHORT $LN31@SetupAGMod
$LN30@SetupAGMod:

; 2809 : 		{
; 2810 : 			// Cobra - SEAD escort or strike do not fly in low.  They want the radars to see them and turn on.
; 2811 : 			agApproach = AGA_HIGH;

	mov	ecx, DWORD PTR _this$[ebp]
	mov	DWORD PTR [ecx+248], 2

; 2812 : 			//		agApproach = AGA_LOW;
; 2813 : 			//ipZ = 0.0f;
; 2814 : 			//TJL 10/28/03 HARM Altitude
; 2815 : 			ipZ = -self->GetA2GHarmAlt();

	mov	edx, DWORD PTR _this$[ebp]
	mov	ecx, DWORD PTR [edx+56]
	call	?GetA2GHarmAlt@AircraftClass@@QAEMXZ	; AircraftClass::GetA2GHarmAlt
	fstp	DWORD PTR tv917[ebp]
	movss	xmm0, DWORD PTR tv917[ebp]
	xorps	xmm0, DWORD PTR __xmm@80000000800000008000000080000000
	mov	eax, DWORD PTR _this$[ebp]
	movss	DWORD PTR [eax+276], xmm0

; 2816 : 		}
; 2817 : 		else 

	jmp	SHORT $LN29@SetupAGMod
$LN31@SetupAGMod:

; 2818 : 		{
; 2819 : 			// Cobra - kind of a radical default profile for non-Harm missions
; 2820 : 			//agApproach = AGA_DIVE;
; 2821 : 			//ipZ = -self->GetA2GGunRocketAlt();
; 2822 : 			agApproach = AGA_HIGH;

	mov	ecx, DWORD PTR _this$[ebp]
	mov	DWORD PTR [ecx+248], 2

; 2823 : 			ipZ = -self->GetA2GDumbLDAlt();

	mov	edx, DWORD PTR _this$[ebp]
	mov	ecx, DWORD PTR [edx+56]
	call	?GetA2GDumbLDAlt@AircraftClass@@QAEMXZ	; AircraftClass::GetA2GDumbLDAlt
	fstp	DWORD PTR tv924[ebp]
	movss	xmm0, DWORD PTR tv924[ebp]
	xorps	xmm0, DWORD PTR __xmm@80000000800000008000000080000000
	mov	eax, DWORD PTR _this$[ebp]
	movss	DWORD PTR [eax+276], xmm0
$LN29@SetupAGMod:

; 2824 : 		}
; 2825 : 
; 2826 : 		dx = groundTargetPtr->BaseData()->XPos() - self->XPos();

	mov	ecx, DWORD PTR _this$[ebp]
	mov	ecx, DWORD PTR [ecx+224]
	call	?BaseData@SimObjectType@@QAEPAVFalconEntity@@XZ ; SimObjectType::BaseData
	mov	ecx, eax
	call	?XPos@VuEntity@@QBEMXZ			; VuEntity::XPos
	fstp	DWORD PTR tv931[ebp]
	movss	xmm0, DWORD PTR tv931[ebp]
	mov	edx, DWORD PTR _this$[ebp]
	mov	ecx, DWORD PTR [edx+56]
	movss	DWORD PTR tv1139[ebp], xmm0
	call	?XPos@VuEntity@@QBEMXZ			; VuEntity::XPos
	fstp	DWORD PTR tv936[ebp]
	movss	xmm0, DWORD PTR tv1139[ebp]
	subss	xmm0, DWORD PTR tv936[ebp]
	movss	DWORD PTR _dx$[ebp], xmm0

; 2827 : 		dy = groundTargetPtr->BaseData()->YPos() - self->YPos();

	mov	eax, DWORD PTR _this$[ebp]
	mov	ecx, DWORD PTR [eax+224]
	call	?BaseData@SimObjectType@@QAEPAVFalconEntity@@XZ ; SimObjectType::BaseData
	mov	ecx, eax
	call	?YPos@VuEntity@@QBEMXZ			; VuEntity::YPos
	fstp	DWORD PTR tv942[ebp]
	movss	xmm0, DWORD PTR tv942[ebp]
	mov	ecx, DWORD PTR _this$[ebp]
	mov	ecx, DWORD PTR [ecx+56]
	movss	DWORD PTR tv1141[ebp], xmm0
	call	?YPos@VuEntity@@QBEMXZ			; VuEntity::YPos
	fstp	DWORD PTR tv947[ebp]
	movss	xmm0, DWORD PTR tv1141[ebp]
	subss	xmm0, DWORD PTR tv947[ebp]
	movss	DWORD PTR _dy$[ebp], xmm0

; 2828 : 		dz = groundTargetPtr->BaseData()->ZPos() - self->ZPos();

	mov	edx, DWORD PTR _this$[ebp]
	mov	ecx, DWORD PTR [edx+224]
	call	?BaseData@SimObjectType@@QAEPAVFalconEntity@@XZ ; SimObjectType::BaseData
	mov	ecx, eax
	call	?ZPos@VuEntity@@QBEMXZ			; VuEntity::ZPos
	fstp	DWORD PTR tv953[ebp]
	movss	xmm0, DWORD PTR tv953[ebp]
	mov	eax, DWORD PTR _this$[ebp]
	mov	ecx, DWORD PTR [eax+56]
	movss	DWORD PTR tv1143[ebp], xmm0
	call	?ZPos@VuEntity@@QBEMXZ			; VuEntity::ZPos
	fstp	DWORD PTR tv958[ebp]
	movss	xmm0, DWORD PTR tv1143[ebp]
	subss	xmm0, DWORD PTR tv958[ebp]
	movss	DWORD PTR _dz$[ebp], xmm0

; 2829 : 
; 2830 : 		// x-y get range
; 2831 : 		range = (float)sqrt( dx * dx + dy * dy ) + 0.1f;

	movss	xmm0, DWORD PTR _dx$[ebp]
	mulss	xmm0, DWORD PTR _dx$[ebp]
	movss	xmm1, DWORD PTR _dy$[ebp]
	mulss	xmm1, DWORD PTR _dy$[ebp]
	addss	xmm0, xmm1
	push	ecx
	movss	DWORD PTR [esp], xmm0
	call	?SqrtSSE@@YAMM@Z			; SqrtSSE
	add	esp, 4
	fstp	DWORD PTR tv965[ebp]
	movss	xmm0, DWORD PTR tv965[ebp]
	addss	xmm0, DWORD PTR __real@3dcccccd
	movss	DWORD PTR _range$[ebp], xmm0

; 2832 : 
; 2833 : 		// normalize the x and y vector
; 2834 : 		dx /= range;

	movss	xmm0, DWORD PTR _dx$[ebp]
	divss	xmm0, DWORD PTR _range$[ebp]
	movss	DWORD PTR _dx$[ebp], xmm0

; 2835 : 		dy /= range;

	movss	xmm0, DWORD PTR _dy$[ebp]
	divss	xmm0, DWORD PTR _range$[ebp]
	movss	DWORD PTR _dy$[ebp], xmm0

; 2836 : 
; 2837 : 		// see if we're too close in and set ipX/ipY accordingly
; 2838 : 		if ( range < 2.0f * NM_TO_FT ) // was 5.0

	movss	xmm0, DWORD PTR __real@463de1b0
	comiss	xmm0, DWORD PTR _range$[ebp]
	jbe	SHORT $LN28@SetupAGMod

; 2839 : 		{
; 2840 : 			AGflyOut();

	mov	ecx, DWORD PTR _this$[ebp]
	call	?AGflyOut@DigitalBrain@@IAEXXZ		; DigitalBrain::AGflyOut

; 2841 : 			SetGroundTarget(NULL);

	push	0
	mov	ecx, DWORD PTR _this$[ebp]
	call	?SetGroundTarget@DigitalBrain@@IAEXPAVFalconEntity@@@Z ; DigitalBrain::SetGroundTarget

; 2842 : 			onStation = Downwind;

	mov	ecx, DWORD PTR _this$[ebp]
	mov	DWORD PTR [ecx+132], 13			; 0000000dH

; 2843 : 		}
; 2844 : 		else

	jmp	SHORT $LN27@SetupAGMod
$LN28@SetupAGMod:

; 2845 : 		{
; 2846 : 			// get point between us and target
; 2847 : 			ipX = groundTargetPtr->BaseData()->XPos(); // + dy * g_fAGFlyoutRange * NM_TO_FT;//previously 7.0 Cobra

	mov	edx, DWORD PTR _this$[ebp]
	mov	ecx, DWORD PTR [edx+224]
	call	?BaseData@SimObjectType@@QAEPAVFalconEntity@@XZ ; SimObjectType::BaseData
	mov	ecx, eax
	call	?XPos@VuEntity@@QBEMXZ			; VuEntity::XPos
	mov	eax, DWORD PTR _this$[ebp]
	fstp	DWORD PTR [eax+268]

; 2848 : 			ipY = groundTargetPtr->BaseData()->YPos(); // - dx * g_fAGFlyoutRange * NM_TO_FT;

	mov	ecx, DWORD PTR _this$[ebp]
	mov	ecx, DWORD PTR [ecx+224]
	call	?BaseData@SimObjectType@@QAEPAVFalconEntity@@XZ ; SimObjectType::BaseData
	mov	ecx, eax
	call	?YPos@VuEntity@@QBEMXZ			; VuEntity::YPos
	mov	edx, DWORD PTR _this$[ebp]
	fstp	DWORD PTR [edx+272]
$LN27@SetupAGMod:

; 2849 : 			ShiAssert (ipX > 0.0F);
; 2850 : 		}
; 2851 : 
; 2852 : 		// Depending on the type of plane, adjust our attack profile
; 2853 : 		classPtr = (Falcon4EntityClassType*)self->EntityType();

	mov	eax, DWORD PTR _this$[ebp]
	mov	ecx, DWORD PTR [eax+56]
	call	?EntityType@VuEntity@@QBEPAUVuEntityType@@XZ ; VuEntity::EntityType
	mov	DWORD PTR _classPtr$[ebp], eax

; 2854 : 		if (classPtr->vuClassData.classInfo_[VU_STYPE] == STYPE_AIR_BOMBER )

	mov	ecx, 1
	imul	ecx, 3
	mov	edx, DWORD PTR _classPtr$[ebp]
	movzx	eax, BYTE PTR [edx+ecx+8]
	cmp	eax, 4
	jne	SHORT $LN26@SetupAGMod

; 2855 : 		{
; 2856 : 			agApproach = AGA_BOMBER;

	mov	ecx, DWORD PTR _this$[ebp]
	mov	DWORD PTR [ecx+248], 4

; 2857 : 			agDoctrine = AGD_SHOOT_RUN;

	mov	edx, DWORD PTR _this$[ebp]
	mov	DWORD PTR [edx+244], 1

; 2858 : 			ipZ = self->ZPos();

	mov	eax, DWORD PTR _this$[ebp]
	mov	ecx, DWORD PTR [eax+56]
	call	?ZPos@VuEntity@@QBEMXZ			; VuEntity::ZPos
	mov	ecx, DWORD PTR _this$[ebp]
	fstp	DWORD PTR [ecx+276]

; 2859 : 		}
; 2860 : 		else

	jmp	$LN2@SetupAGMod
$LN26@SetupAGMod:

; 2861 : 		{
; 2862 : 			// Cobra - Check for AG weapons to make sure we have the correct info
; 2863 : 			SelectGroundWeapon();

	mov	ecx, DWORD PTR _this$[ebp]
	call	?SelectGroundWeapon@DigitalBrain@@IAEXXZ ; DigitalBrain::SelectGroundWeapon

; 2864 : 
; 2865 : 			// Order of fire is: HARMs, AGMissiles, GBUs, bombs, rockets then gun so do it similarely
; 2866 : 			//TJL 10/27/03 Porting out all attack altitudes to spconfig variables
; 2867 : 			if (hasHARM) {

	mov	edx, DWORD PTR _this$[ebp]
	cmp	DWORD PTR [edx+188], 0
	je	SHORT $LN24@SetupAGMod

; 2868 : 				// Cobra - SEAD escort or strike do not fly in low.  They want the radars to see them and turn on.
; 2869 : 				agApproach = AGA_HIGH;

	mov	eax, DWORD PTR _this$[ebp]
	mov	DWORD PTR [eax+248], 2

; 2870 : 				//		agApproach = AGA_LOW;
; 2871 : 				agDoctrine = AGD_LOOK_SHOOT_LOOK;

	mov	ecx, DWORD PTR _this$[ebp]
	mov	DWORD PTR [ecx+244], 2

; 2872 : 				ipX = self->XPos();

	mov	edx, DWORD PTR _this$[ebp]
	mov	ecx, DWORD PTR [edx+56]
	call	?XPos@VuEntity@@QBEMXZ			; VuEntity::XPos
	mov	eax, DWORD PTR _this$[ebp]
	fstp	DWORD PTR [eax+268]

; 2873 : 				ipY = self->YPos();

	mov	ecx, DWORD PTR _this$[ebp]
	mov	ecx, DWORD PTR [ecx+56]
	call	?YPos@VuEntity@@QBEMXZ			; VuEntity::YPos
	mov	edx, DWORD PTR _this$[ebp]
	fstp	DWORD PTR [edx+272]

; 2874 : 				ipZ = -self->GetA2GHarmAlt();

	mov	eax, DWORD PTR _this$[ebp]
	mov	ecx, DWORD PTR [eax+56]
	call	?GetA2GHarmAlt@AircraftClass@@QAEMXZ	; AircraftClass::GetA2GHarmAlt
	fstp	DWORD PTR tv1005[ebp]
	movss	xmm0, DWORD PTR tv1005[ebp]
	xorps	xmm0, DWORD PTR __xmm@80000000800000008000000080000000
	mov	ecx, DWORD PTR _this$[ebp]
	movss	DWORD PTR [ecx+276], xmm0
	jmp	$LN8@SetupAGMod
$LN24@SetupAGMod:

; 2875 : 				//ipZ = 0.0f;
; 2876 : 			}
; 2877 : 			else if (hasAGMissile) {

	mov	edx, DWORD PTR _this$[ebp]
	cmp	DWORD PTR [edx+184], 0
	je	SHORT $LN22@SetupAGMod

; 2878 : 				agApproach = AGA_HIGH;

	mov	eax, DWORD PTR _this$[ebp]
	mov	DWORD PTR [eax+248], 2

; 2879 : 				agDoctrine = AGD_LOOK_SHOOT_LOOK;

	mov	ecx, DWORD PTR _this$[ebp]
	mov	DWORD PTR [ecx+244], 2

; 2880 : 
; 2881 : 				// Wings shoots Mavericks as soon as asked.
; 2882 : 				ipX = self->XPos();

	mov	edx, DWORD PTR _this$[ebp]
	mov	ecx, DWORD PTR [edx+56]
	call	?XPos@VuEntity@@QBEMXZ			; VuEntity::XPos
	mov	eax, DWORD PTR _this$[ebp]
	fstp	DWORD PTR [eax+268]

; 2883 : 				ipY = self->YPos();

	mov	ecx, DWORD PTR _this$[ebp]
	mov	ecx, DWORD PTR [ecx+56]
	call	?YPos@VuEntity@@QBEMXZ			; VuEntity::YPos
	mov	edx, DWORD PTR _this$[ebp]
	fstp	DWORD PTR [edx+272]

; 2884 : 				ipZ = -self->GetA2GAGMAlt();

	mov	eax, DWORD PTR _this$[ebp]
	mov	ecx, DWORD PTR [eax+56]
	call	?GetA2GAGMAlt@AircraftClass@@QAEMXZ	; AircraftClass::GetA2GAGMAlt
	fstp	DWORD PTR tv1022[ebp]
	movss	xmm0, DWORD PTR tv1022[ebp]
	xorps	xmm0, DWORD PTR __xmm@80000000800000008000000080000000
	mov	ecx, DWORD PTR _this$[ebp]
	movss	DWORD PTR [ecx+276], xmm0
	jmp	$LN8@SetupAGMod
$LN22@SetupAGMod:

; 2885 : 				//ipZ = -4000.0f;
; 2886 : 			}
; 2887 : 			else if (hasGBU) {

	mov	edx, DWORD PTR _this$[ebp]
	cmp	DWORD PTR [edx+204], 0
	je	SHORT $LN20@SetupAGMod

; 2888 : 				agApproach = AGA_HIGH;

	mov	eax, DWORD PTR _this$[ebp]
	mov	DWORD PTR [eax+248], 2

; 2889 : 				agDoctrine = AGD_SHOOT_RUN;

	mov	ecx, DWORD PTR _this$[ebp]
	mov	DWORD PTR [ecx+244], 1

; 2890 : 				ipZ = -self->GetA2GGBUAlt();

	mov	edx, DWORD PTR _this$[ebp]
	mov	ecx, DWORD PTR [edx+56]
	call	?GetA2GGBUAlt@AircraftClass@@QAEMXZ	; AircraftClass::GetA2GGBUAlt
	fstp	DWORD PTR tv1031[ebp]
	movss	xmm0, DWORD PTR tv1031[ebp]
	xorps	xmm0, DWORD PTR __xmm@80000000800000008000000080000000
	mov	eax, DWORD PTR _this$[ebp]
	movss	DWORD PTR [eax+276], xmm0
	jmp	$LN8@SetupAGMod
$LN20@SetupAGMod:

; 2891 : 				//ipZ = -13000.0f;
; 2892 : 			}
; 2893 : 			else if (hasBomb) 

	mov	ecx, DWORD PTR _this$[ebp]
	cmp	DWORD PTR [ecx+180], 0
	je	$LN18@SetupAGMod

; 2894 : 			{
; 2895 : 				if (hasBomb == TRUE + 1) 		// It's a durandal

	mov	edx, DWORD PTR _this$[ebp]
	cmp	DWORD PTR [edx+180], 2
	jne	SHORT $LN17@SetupAGMod

; 2896 : 				{
; 2897 : 					agApproach = AGA_HIGH;		// Because if 'low', he will 'pop up' on final...

	mov	eax, DWORD PTR _this$[ebp]
	mov	DWORD PTR [eax+248], 2

; 2898 : 					ipZ = -self->GetA2GGenericBombAlt();

	mov	ecx, DWORD PTR _this$[ebp]
	mov	ecx, DWORD PTR [ecx+56]
	call	?GetA2GGenericBombAlt@AircraftClass@@QAEMXZ ; AircraftClass::GetA2GGenericBombAlt
	fstp	DWORD PTR tv1040[ebp]
	movss	xmm0, DWORD PTR tv1040[ebp]
	xorps	xmm0, DWORD PTR __xmm@80000000800000008000000080000000
	mov	edx, DWORD PTR _this$[ebp]
	movss	DWORD PTR [edx+276], xmm0
	jmp	$LN10@SetupAGMod
$LN17@SetupAGMod:

; 2899 : 					//ipZ = -250.0f;
; 2900 : 				}
; 2901 : 				else if (hasBomb == TRUE + 2) 	// It's a cluster bomb

	mov	eax, DWORD PTR _this$[ebp]
	cmp	DWORD PTR [eax+180], 3
	jne	SHORT $LN15@SetupAGMod

; 2902 : 				{
; 2903 : 					agApproach = AGA_HIGH;

	mov	ecx, DWORD PTR _this$[ebp]
	mov	DWORD PTR [ecx+248], 2

; 2904 : 					ipZ = -self->GetA2GClusterAlt();

	mov	edx, DWORD PTR _this$[ebp]
	mov	ecx, DWORD PTR [edx+56]
	call	?GetA2GClusterAlt@AircraftClass@@QAEMXZ	; AircraftClass::GetA2GClusterAlt
	fstp	DWORD PTR tv1048[ebp]
	movss	xmm0, DWORD PTR tv1048[ebp]
	xorps	xmm0, DWORD PTR __xmm@80000000800000008000000080000000
	mov	eax, DWORD PTR _this$[ebp]
	movss	DWORD PTR [eax+276], xmm0
	jmp	$LN10@SetupAGMod
$LN15@SetupAGMod:

; 2905 : 					//ipZ = -5000.0f;
; 2906 : 				}
; 2907 : 				else if (hasBomb == TRUE + 3) 	// It's a JDAM bomb

	mov	ecx, DWORD PTR _this$[ebp]
	cmp	DWORD PTR [ecx+180], 4
	jne	SHORT $LN13@SetupAGMod

; 2908 : 				{
; 2909 : 					agApproach = AGA_HIGH;

	mov	edx, DWORD PTR _this$[ebp]
	mov	DWORD PTR [edx+248], 2

; 2910 : 					ipZ = -self->GetA2GJDAMAlt();

	mov	eax, DWORD PTR _this$[ebp]
	mov	ecx, DWORD PTR [eax+56]
	call	?GetA2GJDAMAlt@AircraftClass@@QAEMXZ	; AircraftClass::GetA2GJDAMAlt
	fstp	DWORD PTR tv1056[ebp]
	movss	xmm0, DWORD PTR tv1056[ebp]
	xorps	xmm0, DWORD PTR __xmm@80000000800000008000000080000000
	mov	ecx, DWORD PTR _this$[ebp]
	movss	DWORD PTR [ecx+276], xmm0
	jmp	$LN10@SetupAGMod
$LN13@SetupAGMod:

; 2911 : 					//ipZ = -5000.0f;
; 2912 : 				}
; 2913 : 				else if (hasBomb == TRUE + 4) 	// It's a JSOW bomb

	mov	edx, DWORD PTR _this$[ebp]
	cmp	DWORD PTR [edx+180], 5
	jne	SHORT $LN11@SetupAGMod

; 2914 : 				{
; 2915 : 					ipX = self->XPos();

	mov	eax, DWORD PTR _this$[ebp]
	mov	ecx, DWORD PTR [eax+56]
	call	?XPos@VuEntity@@QBEMXZ			; VuEntity::XPos
	mov	ecx, DWORD PTR _this$[ebp]
	fstp	DWORD PTR [ecx+268]

; 2916 : 					ipY = self->YPos();

	mov	edx, DWORD PTR _this$[ebp]
	mov	ecx, DWORD PTR [edx+56]
	call	?YPos@VuEntity@@QBEMXZ			; VuEntity::YPos
	mov	eax, DWORD PTR _this$[ebp]
	fstp	DWORD PTR [eax+272]

; 2917 : 					agApproach = AGA_HIGH;

	mov	ecx, DWORD PTR _this$[ebp]
	mov	DWORD PTR [ecx+248], 2

; 2918 : 					ipZ = -self->GetA2GJSOWAlt();

	mov	edx, DWORD PTR _this$[ebp]
	mov	ecx, DWORD PTR [edx+56]
	call	?GetA2GJSOWAlt@AircraftClass@@QAEMXZ	; AircraftClass::GetA2GJSOWAlt
	fstp	DWORD PTR tv1072[ebp]
	movss	xmm0, DWORD PTR tv1072[ebp]
	xorps	xmm0, DWORD PTR __xmm@80000000800000008000000080000000
	mov	eax, DWORD PTR _this$[ebp]
	movss	DWORD PTR [eax+276], xmm0

; 2919 : 					//ipZ = -5000.0f;
; 2920 : 				}
; 2921 : 				else 

	jmp	SHORT $LN10@SetupAGMod
$LN11@SetupAGMod:

; 2922 : 				{		// It's any other type of bombs
; 2923 : 					agApproach = AGA_HIGH;

	mov	ecx, DWORD PTR _this$[ebp]
	mov	DWORD PTR [ecx+248], 2

; 2924 : 					ipZ = -self->GetA2GDumbLDAlt();

	mov	edx, DWORD PTR _this$[ebp]
	mov	ecx, DWORD PTR [edx+56]
	call	?GetA2GDumbLDAlt@AircraftClass@@QAEMXZ	; AircraftClass::GetA2GDumbLDAlt
	fstp	DWORD PTR tv1079[ebp]
	movss	xmm0, DWORD PTR tv1079[ebp]
	xorps	xmm0, DWORD PTR __xmm@80000000800000008000000080000000
	mov	eax, DWORD PTR _this$[ebp]
	movss	DWORD PTR [eax+276], xmm0
$LN10@SetupAGMod:

; 2925 : 					//ipZ = -11000.0f;
; 2926 : 				}
; 2927 : 
; 2928 : 				// Now check if we are within the plane's min/max altitude and snap if not...
; 2929 : 				VehicleClassDataType *vc = GetVehicleClassData(self->Type() - VU_LAST_ENTITY_TYPE);

	mov	ecx, DWORD PTR _this$[ebp]
	mov	ecx, DWORD PTR [ecx+56]
	call	?Type@VuEntity@@QBEGXZ			; VuEntity::Type
	movzx	edx, ax
	sub	edx, 100				; 00000064H
	push	edx
	call	?GetVehicleClassData@@YAPAUVehicleClassDataType@@H@Z ; GetVehicleClassData
	add	esp, 4
	mov	DWORD PTR _vc$1[ebp], eax

; 2930 : 				ipZ = max(vc->HighAlt * -100.0f, ipZ);

	mov	eax, DWORD PTR _vc$1[ebp]
	movsx	ecx, WORD PTR [eax+48]
	cvtsi2ss xmm0, ecx
	mulss	xmm0, DWORD PTR __real@c2c80000
	mov	edx, DWORD PTR _this$[ebp]
	comiss	xmm0, DWORD PTR [edx+276]
	jbe	SHORT $LN85@SetupAGMod
	mov	eax, DWORD PTR _vc$1[ebp]
	movsx	ecx, WORD PTR [eax+48]
	cvtsi2ss xmm0, ecx
	mulss	xmm0, DWORD PTR __real@c2c80000
	movss	DWORD PTR tv680[ebp], xmm0
	jmp	SHORT $LN86@SetupAGMod
$LN85@SetupAGMod:
	mov	edx, DWORD PTR _this$[ebp]
	movss	xmm0, DWORD PTR [edx+276]
	movss	DWORD PTR tv680[ebp], xmm0
$LN86@SetupAGMod:
	mov	eax, DWORD PTR _this$[ebp]
	movss	xmm0, DWORD PTR tv680[ebp]
	movss	DWORD PTR [eax+276], xmm0

; 2931 : 				ipZ = min(vc->LowAlt * -100.0f, ipZ);

	mov	ecx, DWORD PTR _vc$1[ebp]
	movsx	edx, WORD PTR [ecx+50]
	cvtsi2ss xmm0, edx
	mulss	xmm0, DWORD PTR __real@c2c80000
	mov	eax, DWORD PTR _this$[ebp]
	movss	xmm1, DWORD PTR [eax+276]
	comiss	xmm1, xmm0
	jbe	SHORT $LN87@SetupAGMod
	mov	ecx, DWORD PTR _vc$1[ebp]
	movsx	edx, WORD PTR [ecx+50]
	cvtsi2ss xmm0, edx
	mulss	xmm0, DWORD PTR __real@c2c80000
	movss	DWORD PTR tv697[ebp], xmm0
	jmp	SHORT $LN88@SetupAGMod
$LN87@SetupAGMod:
	mov	eax, DWORD PTR _this$[ebp]
	movss	xmm0, DWORD PTR [eax+276]
	movss	DWORD PTR tv697[ebp], xmm0
$LN88@SetupAGMod:
	mov	ecx, DWORD PTR _this$[ebp]
	movss	xmm0, DWORD PTR tv697[ebp]
	movss	DWORD PTR [ecx+276], xmm0

; 2932 : 
; 2933 : 				agDoctrine = AGD_SHOOT_RUN;

	mov	edx, DWORD PTR _this$[ebp]
	mov	DWORD PTR [edx+244], 1
	jmp	SHORT $LN8@SetupAGMod
$LN18@SetupAGMod:

; 2934 : 			}
; 2935 : 			else if (hasGun || hasRocket) 

	mov	eax, DWORD PTR _this$[ebp]
	cmp	DWORD PTR [eax+196], 0
	jne	SHORT $LN7@SetupAGMod
	mov	ecx, DWORD PTR _this$[ebp]
	cmp	DWORD PTR [ecx+192], 0
	je	SHORT $LN8@SetupAGMod
$LN7@SetupAGMod:

; 2936 : 			{
; 2937 : 				agDoctrine = AGD_LOOK_SHOOT_LOOK;

	mov	edx, DWORD PTR _this$[ebp]
	mov	DWORD PTR [edx+244], 2

; 2938 : 				agApproach = AGA_DIVE;

	mov	eax, DWORD PTR _this$[ebp]
	mov	DWORD PTR [eax+248], 3

; 2939 : 				ipZ = -self->GetA2GGunRocketAlt();

	mov	ecx, DWORD PTR _this$[ebp]
	mov	ecx, DWORD PTR [ecx+56]
	call	?GetA2GGunRocketAlt@AircraftClass@@QAEMXZ ; AircraftClass::GetA2GGunRocketAlt
	fstp	DWORD PTR tv1105[ebp]
	movss	xmm0, DWORD PTR tv1105[ebp]
	xorps	xmm0, DWORD PTR __xmm@80000000800000008000000080000000
	mov	edx, DWORD PTR _this$[ebp]
	movss	DWORD PTR [edx+276], xmm0
$LN8@SetupAGMod:

; 2940 : 				//ipZ = -7000.0f;
; 2941 : 			}
; 2942 : 
; 2943 : 			// For these, it's always a LOOK SHOOT LOOK
; 2944 : 			if ( missionType == AMIS_SAD || missionType == AMIS_INT || missionType == AMIS_BAI || hasAGMissile || hasHARM || IsNotMainTargetSEAD())

	mov	eax, DWORD PTR _this$[ebp]
	cmp	DWORD PTR [eax+284], 23			; 00000017H
	je	SHORT $LN5@SetupAGMod
	mov	ecx, DWORD PTR _this$[ebp]
	cmp	DWORD PTR [ecx+284], 24			; 00000018H
	je	SHORT $LN5@SetupAGMod
	mov	edx, DWORD PTR _this$[ebp]
	cmp	DWORD PTR [edx+284], 25			; 00000019H
	je	SHORT $LN5@SetupAGMod
	mov	eax, DWORD PTR _this$[ebp]
	cmp	DWORD PTR [eax+184], 0
	jne	SHORT $LN5@SetupAGMod
	mov	ecx, DWORD PTR _this$[ebp]
	cmp	DWORD PTR [ecx+188], 0
	jne	SHORT $LN5@SetupAGMod
	mov	ecx, DWORD PTR _this$[ebp]
	call	?IsNotMainTargetSEAD@DigitalBrain@@AAEHXZ ; DigitalBrain::IsNotMainTargetSEAD
	test	eax, eax
	je	SHORT $LN6@SetupAGMod
$LN5@SetupAGMod:

; 2945 : 				agDoctrine = AGD_LOOK_SHOOT_LOOK;

	mov	edx, DWORD PTR _this$[ebp]
	mov	DWORD PTR [edx+244], 2
$LN6@SetupAGMod:

; 2946 : 
; 2947 : 			// Just in case it was changed by a weapon type earlier
; 2948 : 			if (missionType == AMIS_SEADESCORT || missionType == AMIS_SEADSTRIKE) 

	mov	eax, DWORD PTR _this$[ebp]
	cmp	DWORD PTR [eax+284], 12			; 0000000cH
	je	SHORT $LN3@SetupAGMod
	mov	ecx, DWORD PTR _this$[ebp]
	cmp	DWORD PTR [ecx+284], 11			; 0000000bH
	jne	SHORT $LN4@SetupAGMod
$LN3@SetupAGMod:

; 2949 : 			{
; 2950 : 				agApproach = AGA_HIGH;

	mov	edx, DWORD PTR _this$[ebp]
	mov	DWORD PTR [edx+248], 2

; 2951 : 				//ipZ = 0.0f;
; 2952 : 				//TJL 10/28/03 Harm Alt
; 2953 : 				ipZ = -self->GetA2GHarmAlt();

	mov	eax, DWORD PTR _this$[ebp]
	mov	ecx, DWORD PTR [eax+56]
	call	?GetA2GHarmAlt@AircraftClass@@QAEMXZ	; AircraftClass::GetA2GHarmAlt
	fstp	DWORD PTR tv1121[ebp]
	movss	xmm0, DWORD PTR tv1121[ebp]
	xorps	xmm0, DWORD PTR __xmm@80000000800000008000000080000000
	mov	ecx, DWORD PTR _this$[ebp]
	movss	DWORD PTR [ecx+276], xmm0
$LN4@SetupAGMod:

; 2954 : 			}
; 2955 : 
; 2956 : 			// Then if we have a camera, 
; 2957 : 			if ((missionType == AMIS_BDA || missionType == AMIS_RECON) && hasCamera) 

	mov	edx, DWORD PTR _this$[ebp]
	cmp	DWORD PTR [edx+284], 30			; 0000001eH
	je	SHORT $LN1@SetupAGMod
	mov	eax, DWORD PTR _this$[ebp]
	cmp	DWORD PTR [eax+284], 29			; 0000001dH
	jne	SHORT $LN2@SetupAGMod
$LN1@SetupAGMod:
	mov	ecx, DWORD PTR _this$[ebp]
	cmp	DWORD PTR [ecx+200], 0
	je	SHORT $LN2@SetupAGMod

; 2958 : 			{
; 2959 : 				ipZ = -self->GetA2GCameraAlt();

	mov	edx, DWORD PTR _this$[ebp]
	mov	ecx, DWORD PTR [edx+56]
	call	?GetA2GCameraAlt@AircraftClass@@QAEMXZ	; AircraftClass::GetA2GCameraAlt
	fstp	DWORD PTR tv1130[ebp]
	movss	xmm0, DWORD PTR tv1130[ebp]
	xorps	xmm0, DWORD PTR __xmm@80000000800000008000000080000000
	mov	eax, DWORD PTR _this$[ebp]
	movss	DWORD PTR [eax+276], xmm0

; 2960 : 				//ipZ = -7000.0f;
; 2961 : 				agDoctrine = AGD_SHOOT_RUN;

	mov	ecx, DWORD PTR _this$[ebp]
	mov	DWORD PTR [ecx+244], 1

; 2962 : 				agApproach = AGA_DIVE;

	mov	edx, DWORD PTR _this$[ebp]
	mov	DWORD PTR [edx+248], 3
$LN2@SetupAGMod:

; 2963 : 			}
; 2964 : 		}
; 2965 : 		// Cobra - Save current weapon attack altitude
; 2966 : 		AGattackAlt = ipZ;

	mov	eax, DWORD PTR _this$[ebp]
	mov	ecx, DWORD PTR _this$[ebp]
	mov	edx, DWORD PTR [ecx+276]
	mov	DWORD PTR [eax+264], edx
$LN83@SetupAGMod:

; 2967 : 	}

	mov	esp, ebp
	pop	ebp
	ret	8
	npad	2
$LN90@SetupAGMod:
	DD	$LN74@SetupAGMod
	DD	$LN76@SetupAGMod
	DD	$LN75@SetupAGMod
	DD	$LN73@SetupAGMod
$LN89@SetupAGMod:
	DB	0
	DB	3
	DB	3
	DB	3
	DB	3
	DB	1
	DB	1
	DB	0
	DB	1
	DB	1
	DB	2
	DB	3
	DB	0
?SetupAGMode@DigitalBrain@@IAEXPAVWayPointClass@@0@Z ENDP ; DigitalBrain::SetupAGMode
_TEXT	ENDS
; Function compile flags: /Odtp
; File c:\users\zhitao li\documents\visual studio 2012\projects\freefalcon\sim\digi\gndattck.cpp
_TEXT	SEGMENT
tv1125 = -76						; size = 4
_usComponents$1 = -72					; size = 4
tv712 = -68						; size = 4
_ret$ = -64						; size = 4
tv560 = -60						; size = 4
tv540 = -56						; size = 4
tv523 = -52						; size = 4
tv514 = -48						; size = 4
tv497 = -44						; size = 4
_flightMember$2 = -40					; size = 4
_classPtr$ = -36					; size = 4
_i$3 = -32						; size = 4
_runAway$ = -28						; size = 4
_weap$4 = -24						; size = 4
_theBomb$ = -20						; size = 4
_tmpWaypoint$5 = -16					; size = 4
_Sms$ = -12						; size = 4
_i$ = -8						; size = 4
_this$ = -4						; size = 4
?SelectGroundWeapon@DigitalBrain@@IAEXXZ PROC		; DigitalBrain::SelectGroundWeapon
; _this$ = ecx

; 2083 : {

	push	ebp
	mov	ebp, esp
	sub	esp, 76					; 0000004cH
	push	esi
	mov	DWORD PTR _this$[ebp], ecx

; 2084 : 	int i;
; 2085 : 	Falcon4EntityClassType* classPtr;
; 2086 : 	int runAway = FALSE;

	mov	DWORD PTR _runAway$[ebp], 0

; 2087 : 	SMSClass* Sms = self->Sms;

	mov	eax, DWORD PTR _this$[ebp]
	mov	ecx, DWORD PTR [eax+56]
	mov	edx, DWORD PTR [ecx+940]
	mov	DWORD PTR _Sms$[ebp], edx

; 2088 : 	BombClass *theBomb;
; 2089 : 
; 2090 : 	hasAGMissile = FALSE;

	mov	eax, DWORD PTR _this$[ebp]
	mov	DWORD PTR [eax+184], 0

; 2091 : 	hasBomb = FALSE;

	mov	ecx, DWORD PTR _this$[ebp]
	mov	DWORD PTR [ecx+180], 0

