; Listing generated by Microsoft (R) Optimizing Compiler Version 17.00.51106.1 

	TITLE	C:\Users\Zhitao Li\Documents\Visual Studio 2012\Projects\Freefalcon\SIM\DIGI\landme.cpp
	.686P
	.XMM
	include listing.inc
	.model	flat

INCLUDELIB LIBCMT
INCLUDELIB OLDNAMES

PUBLIC	?traps@_Num_base@std@@2_NB			; std::_Num_base::traps
PUBLIC	?round_style@_Num_base@std@@2W4float_round_style@2@B ; std::_Num_base::round_style
PUBLIC	?digits@_Num_base@std@@2HB			; std::_Num_base::digits
PUBLIC	?digits10@_Num_base@std@@2HB			; std::_Num_base::digits10
PUBLIC	?max_digits10@_Num_base@std@@2HB		; std::_Num_base::max_digits10
PUBLIC	?max_exponent@_Num_base@std@@2HB		; std::_Num_base::max_exponent
PUBLIC	?max_exponent10@_Num_base@std@@2HB		; std::_Num_base::max_exponent10
PUBLIC	?min_exponent@_Num_base@std@@2HB		; std::_Num_base::min_exponent
PUBLIC	?min_exponent10@_Num_base@std@@2HB		; std::_Num_base::min_exponent10
PUBLIC	?radix@_Num_base@std@@2HB			; std::_Num_base::radix
PUBLIC	?is_bounded@_Num_int_base@std@@2_NB		; std::_Num_int_base::is_bounded
PUBLIC	?is_exact@_Num_int_base@std@@2_NB		; std::_Num_int_base::is_exact
PUBLIC	?is_integer@_Num_int_base@std@@2_NB		; std::_Num_int_base::is_integer
PUBLIC	?is_modulo@_Num_int_base@std@@2_NB		; std::_Num_int_base::is_modulo
PUBLIC	?is_specialized@_Num_int_base@std@@2_NB		; std::_Num_int_base::is_specialized
PUBLIC	?radix@_Num_int_base@std@@2HB			; std::_Num_int_base::radix
PUBLIC	?has_denorm@_Num_float_base@std@@2W4float_denorm_style@2@B ; std::_Num_float_base::has_denorm
PUBLIC	?has_denorm_loss@_Num_float_base@std@@2_NB	; std::_Num_float_base::has_denorm_loss
PUBLIC	?SIMDIRTYDATA_INTERVAL@FalconEntity@@2KB	; FalconEntity::SIMDIRTYDATA_INTERVAL
PUBLIC	?CMPDIRTYDATA_INTERVAL@FalconEntity@@2KB	; FalconEntity::CMPDIRTYDATA_INTERVAL
PUBLIC	?has_infinity@_Num_float_base@std@@2_NB		; std::_Num_float_base::has_infinity
PUBLIC	?has_quiet_NaN@_Num_float_base@std@@2_NB	; std::_Num_float_base::has_quiet_NaN
PUBLIC	?has_signaling_NaN@_Num_float_base@std@@2_NB	; std::_Num_float_base::has_signaling_NaN
PUBLIC	?is_bounded@_Num_float_base@std@@2_NB		; std::_Num_float_base::is_bounded
PUBLIC	?is_exact@_Num_float_base@std@@2_NB		; std::_Num_float_base::is_exact
PUBLIC	?is_iec559@_Num_float_base@std@@2_NB		; std::_Num_float_base::is_iec559
PUBLIC	?is_integer@_Num_float_base@std@@2_NB		; std::_Num_float_base::is_integer
PUBLIC	?is_modulo@_Num_float_base@std@@2_NB		; std::_Num_float_base::is_modulo
PUBLIC	?is_signed@_Num_float_base@std@@2_NB		; std::_Num_float_base::is_signed
PUBLIC	?is_specialized@_Num_float_base@std@@2_NB	; std::_Num_float_base::is_specialized
PUBLIC	?tinyness_before@_Num_float_base@std@@2_NB	; std::_Num_float_base::tinyness_before
PUBLIC	?traps@_Num_float_base@std@@2_NB		; std::_Num_float_base::traps
PUBLIC	?round_style@_Num_float_base@std@@2W4float_round_style@2@B ; std::_Num_float_base::round_style
PUBLIC	?radix@_Num_float_base@std@@2HB			; std::_Num_float_base::radix
PUBLIC	?is_signed@?$numeric_limits@D@std@@2_NB		; std::numeric_limits<char>::is_signed
PUBLIC	?digits@?$numeric_limits@D@std@@2HB		; std::numeric_limits<char>::digits
PUBLIC	?digits10@?$numeric_limits@D@std@@2HB		; std::numeric_limits<char>::digits10
PUBLIC	?is_signed@?$numeric_limits@_W@std@@2_NB	; std::numeric_limits<wchar_t>::is_signed
PUBLIC	?digits@?$numeric_limits@_W@std@@2HB		; std::numeric_limits<wchar_t>::digits
PUBLIC	?digits10@?$numeric_limits@_W@std@@2HB		; std::numeric_limits<wchar_t>::digits10
PUBLIC	?is_modulo@?$numeric_limits@_N@std@@2_NB	; std::numeric_limits<bool>::is_modulo
PUBLIC	?is_signed@?$numeric_limits@_N@std@@2_NB	; std::numeric_limits<bool>::is_signed
PUBLIC	?digits@?$numeric_limits@_N@std@@2HB		; std::numeric_limits<bool>::digits
PUBLIC	?digits10@?$numeric_limits@_N@std@@2HB		; std::numeric_limits<bool>::digits10
PUBLIC	?is_signed@?$numeric_limits@C@std@@2_NB		; std::numeric_limits<signed char>::is_signed
PUBLIC	?digits@?$numeric_limits@C@std@@2HB		; std::numeric_limits<signed char>::digits
PUBLIC	?digits10@?$numeric_limits@C@std@@2HB		; std::numeric_limits<signed char>::digits10
PUBLIC	?is_signed@?$numeric_limits@E@std@@2_NB		; std::numeric_limits<unsigned char>::is_signed
PUBLIC	?value@?$integral_constant@_N$0A@@std@@2_NB	; std::integral_constant<bool,0>::value
PUBLIC	?digits@?$numeric_limits@E@std@@2HB		; std::numeric_limits<unsigned char>::digits
PUBLIC	?digits10@?$numeric_limits@E@std@@2HB		; std::numeric_limits<unsigned char>::digits10
PUBLIC	?value@?$integral_constant@_N$00@std@@2_NB	; std::integral_constant<bool,1>::value
PUBLIC	?is_signed@?$numeric_limits@F@std@@2_NB		; std::numeric_limits<short>::is_signed
PUBLIC	?digits@?$numeric_limits@F@std@@2HB		; std::numeric_limits<short>::digits
PUBLIC	?digits10@?$numeric_limits@F@std@@2HB		; std::numeric_limits<short>::digits10
PUBLIC	?is_signed@?$numeric_limits@G@std@@2_NB		; std::numeric_limits<unsigned short>::is_signed
PUBLIC	?digits@?$numeric_limits@G@std@@2HB		; std::numeric_limits<unsigned short>::digits
PUBLIC	?digits10@?$numeric_limits@G@std@@2HB		; std::numeric_limits<unsigned short>::digits10
PUBLIC	?is_signed@?$numeric_limits@H@std@@2_NB		; std::numeric_limits<int>::is_signed
PUBLIC	?value@?$_Sizeof@HU_Nil@std@@U12@U12@U12@U12@U12@U12@@std@@2IB ; std::_Sizeof<int,std::_Nil,std::_Nil,std::_Nil,std::_Nil,std::_Nil,std::_Nil,std::_Nil>::value
PUBLIC	?digits@?$numeric_limits@H@std@@2HB		; std::numeric_limits<int>::digits
PUBLIC	?skipws@?$_Iosb@H@std@@2W4_Fmtflags@12@B	; std::_Iosb<int>::skipws
PUBLIC	?digits10@?$numeric_limits@H@std@@2HB		; std::numeric_limits<int>::digits10
PUBLIC	?unitbuf@?$_Iosb@H@std@@2W4_Fmtflags@12@B	; std::_Iosb<int>::unitbuf
PUBLIC	?uppercase@?$_Iosb@H@std@@2W4_Fmtflags@12@B	; std::_Iosb<int>::uppercase
PUBLIC	?showbase@?$_Iosb@H@std@@2W4_Fmtflags@12@B	; std::_Iosb<int>::showbase
PUBLIC	?showpoint@?$_Iosb@H@std@@2W4_Fmtflags@12@B	; std::_Iosb<int>::showpoint
PUBLIC	?showpos@?$_Iosb@H@std@@2W4_Fmtflags@12@B	; std::_Iosb<int>::showpos
PUBLIC	?left@?$_Iosb@H@std@@2W4_Fmtflags@12@B		; std::_Iosb<int>::left
PUBLIC	?right@?$_Iosb@H@std@@2W4_Fmtflags@12@B		; std::_Iosb<int>::right
PUBLIC	?internal@?$_Iosb@H@std@@2W4_Fmtflags@12@B	; std::_Iosb<int>::internal
PUBLIC	?dec@?$_Iosb@H@std@@2W4_Fmtflags@12@B		; std::_Iosb<int>::dec
PUBLIC	?oct@?$_Iosb@H@std@@2W4_Fmtflags@12@B		; std::_Iosb<int>::oct
PUBLIC	?is_signed@?$numeric_limits@I@std@@2_NB		; std::numeric_limits<unsigned int>::is_signed
PUBLIC	?hex@?$_Iosb@H@std@@2W4_Fmtflags@12@B		; std::_Iosb<int>::hex
PUBLIC	?digits@?$numeric_limits@I@std@@2HB		; std::numeric_limits<unsigned int>::digits
PUBLIC	?scientific@?$_Iosb@H@std@@2W4_Fmtflags@12@B	; std::_Iosb<int>::scientific
PUBLIC	?fixed@?$_Iosb@H@std@@2W4_Fmtflags@12@B		; std::_Iosb<int>::fixed
PUBLIC	?digits10@?$numeric_limits@I@std@@2HB		; std::numeric_limits<unsigned int>::digits10
PUBLIC	?hexfloat@?$_Iosb@H@std@@2W4_Fmtflags@12@B	; std::_Iosb<int>::hexfloat
PUBLIC	?boolalpha@?$_Iosb@H@std@@2W4_Fmtflags@12@B	; std::_Iosb<int>::boolalpha
PUBLIC	?_Stdio@?$_Iosb@H@std@@2W4_Fmtflags@12@B	; std::_Iosb<int>::_Stdio
PUBLIC	?adjustfield@?$_Iosb@H@std@@2W4_Fmtflags@12@B	; std::_Iosb<int>::adjustfield
PUBLIC	?basefield@?$_Iosb@H@std@@2W4_Fmtflags@12@B	; std::_Iosb<int>::basefield
PUBLIC	?floatfield@?$_Iosb@H@std@@2W4_Fmtflags@12@B	; std::_Iosb<int>::floatfield
PUBLIC	?goodbit@?$_Iosb@H@std@@2W4_Iostate@12@B	; std::_Iosb<int>::goodbit
PUBLIC	?eofbit@?$_Iosb@H@std@@2W4_Iostate@12@B		; std::_Iosb<int>::eofbit
PUBLIC	?failbit@?$_Iosb@H@std@@2W4_Iostate@12@B	; std::_Iosb<int>::failbit
PUBLIC	?is_signed@?$numeric_limits@J@std@@2_NB		; std::numeric_limits<long>::is_signed
PUBLIC	?badbit@?$_Iosb@H@std@@2W4_Iostate@12@B		; std::_Iosb<int>::badbit
PUBLIC	?digits@?$numeric_limits@J@std@@2HB		; std::numeric_limits<long>::digits
PUBLIC	?_Hardfail@?$_Iosb@H@std@@2W4_Iostate@12@B	; std::_Iosb<int>::_Hardfail
PUBLIC	?digits10@?$numeric_limits@J@std@@2HB		; std::numeric_limits<long>::digits10
PUBLIC	?in@?$_Iosb@H@std@@2W4_Openmode@12@B		; std::_Iosb<int>::in
PUBLIC	?out@?$_Iosb@H@std@@2W4_Openmode@12@B		; std::_Iosb<int>::out
PUBLIC	?ate@?$_Iosb@H@std@@2W4_Openmode@12@B		; std::_Iosb<int>::ate
PUBLIC	?app@?$_Iosb@H@std@@2W4_Openmode@12@B		; std::_Iosb<int>::app
PUBLIC	?trunc@?$_Iosb@H@std@@2W4_Openmode@12@B		; std::_Iosb<int>::trunc
PUBLIC	?_Nocreate@?$_Iosb@H@std@@2W4_Openmode@12@B	; std::_Iosb<int>::_Nocreate
PUBLIC	?_Noreplace@?$_Iosb@H@std@@2W4_Openmode@12@B	; std::_Iosb<int>::_Noreplace
PUBLIC	?binary@?$_Iosb@H@std@@2W4_Openmode@12@B	; std::_Iosb<int>::binary
PUBLIC	?beg@?$_Iosb@H@std@@2W4_Seekdir@12@B		; std::_Iosb<int>::beg
PUBLIC	?is_signed@?$numeric_limits@K@std@@2_NB		; std::numeric_limits<unsigned long>::is_signed
PUBLIC	?cur@?$_Iosb@H@std@@2W4_Seekdir@12@B		; std::_Iosb<int>::cur
PUBLIC	?end@?$_Iosb@H@std@@2W4_Seekdir@12@B		; std::_Iosb<int>::end
PUBLIC	?digits@?$numeric_limits@K@std@@2HB		; std::numeric_limits<unsigned long>::digits
PUBLIC	?digits10@?$numeric_limits@K@std@@2HB		; std::numeric_limits<unsigned long>::digits10
PUBLIC	?_Stream_err@failure@ios_base@std@@0W4io_errc@43@B ; std::ios_base::failure::_Stream_err
PUBLIC	?is_signed@?$numeric_limits@_J@std@@2_NB	; std::numeric_limits<__int64>::is_signed
PUBLIC	?digits@?$numeric_limits@_J@std@@2HB		; std::numeric_limits<__int64>::digits
PUBLIC	?digits10@?$numeric_limits@_J@std@@2HB		; std::numeric_limits<__int64>::digits10
PUBLIC	?is_signed@?$numeric_limits@_K@std@@2_NB	; std::numeric_limits<unsigned __int64>::is_signed
PUBLIC	?digits@?$numeric_limits@_K@std@@2HB		; std::numeric_limits<unsigned __int64>::digits
PUBLIC	?digits10@?$numeric_limits@_K@std@@2HB		; std::numeric_limits<unsigned __int64>::digits10
PUBLIC	?digits@?$numeric_limits@M@std@@2HB		; std::numeric_limits<float>::digits
PUBLIC	?digits10@?$numeric_limits@M@std@@2HB		; std::numeric_limits<float>::digits10
PUBLIC	?max_digits10@?$numeric_limits@M@std@@2HB	; std::numeric_limits<float>::max_digits10
PUBLIC	?max_exponent@?$numeric_limits@M@std@@2HB	; std::numeric_limits<float>::max_exponent
PUBLIC	?max_exponent10@?$numeric_limits@M@std@@2HB	; std::numeric_limits<float>::max_exponent10
PUBLIC	?min_exponent@?$numeric_limits@M@std@@2HB	; std::numeric_limits<float>::min_exponent
PUBLIC	?min_exponent10@?$numeric_limits@M@std@@2HB	; std::numeric_limits<float>::min_exponent10
PUBLIC	?value@?$integral_constant@I$0A@@std@@2IB	; std::integral_constant<unsigned int,0>::value
PUBLIC	?digits@?$numeric_limits@N@std@@2HB		; std::numeric_limits<double>::digits
PUBLIC	?digits10@?$numeric_limits@N@std@@2HB		; std::numeric_limits<double>::digits10
PUBLIC	?max_digits10@?$numeric_limits@N@std@@2HB	; std::numeric_limits<double>::max_digits10
PUBLIC	?max_exponent@?$numeric_limits@N@std@@2HB	; std::numeric_limits<double>::max_exponent
PUBLIC	?max_exponent10@?$numeric_limits@N@std@@2HB	; std::numeric_limits<double>::max_exponent10
PUBLIC	?min_exponent@?$numeric_limits@N@std@@2HB	; std::numeric_limits<double>::min_exponent
PUBLIC	?min_exponent10@?$numeric_limits@N@std@@2HB	; std::numeric_limits<double>::min_exponent10
PUBLIC	?digits@?$numeric_limits@O@std@@2HB		; std::numeric_limits<long double>::digits
PUBLIC	?digits10@?$numeric_limits@O@std@@2HB		; std::numeric_limits<long double>::digits10
PUBLIC	?max_digits10@?$numeric_limits@O@std@@2HB	; std::numeric_limits<long double>::max_digits10
PUBLIC	?max_exponent@?$numeric_limits@O@std@@2HB	; std::numeric_limits<long double>::max_exponent
PUBLIC	?max_exponent10@?$numeric_limits@O@std@@2HB	; std::numeric_limits<long double>::max_exponent10
PUBLIC	?min_exponent@?$numeric_limits@O@std@@2HB	; std::numeric_limits<long double>::min_exponent
PUBLIC	?min_exponent10@?$numeric_limits@O@std@@2HB	; std::numeric_limits<long double>::min_exponent10
PUBLIC	?collate@?$_Locbase@H@std@@2HB			; std::_Locbase<int>::collate
PUBLIC	?ctype@?$_Locbase@H@std@@2HB			; std::_Locbase<int>::ctype
PUBLIC	?monetary@?$_Locbase@H@std@@2HB			; std::_Locbase<int>::monetary
PUBLIC	?numeric@?$_Locbase@H@std@@2HB			; std::_Locbase<int>::numeric
PUBLIC	?time@?$_Locbase@H@std@@2HB			; std::_Locbase<int>::time
PUBLIC	?messages@?$_Locbase@H@std@@2HB			; std::_Locbase<int>::messages
PUBLIC	?all@?$_Locbase@H@std@@2HB			; std::_Locbase<int>::all
PUBLIC	?none@?$_Locbase@H@std@@2HB			; std::_Locbase<int>::none
PUBLIC	?value@?$_Sizeof@U_Nil@std@@U12@U12@U12@U12@U12@U12@U12@@std@@2IB ; std::_Sizeof<std::_Nil,std::_Nil,std::_Nil,std::_Nil,std::_Nil,std::_Nil,std::_Nil,std::_Nil>::value
PUBLIC	?table_size@?$ctype@D@std@@2IB			; std::ctype<char>::table_size
PUBLIC	?has_denorm@_Num_base@std@@2W4float_denorm_style@2@B ; std::_Num_base::has_denorm
PUBLIC	?has_denorm_loss@_Num_base@std@@2_NB		; std::_Num_base::has_denorm_loss
PUBLIC	?has_infinity@_Num_base@std@@2_NB		; std::_Num_base::has_infinity
PUBLIC	?has_quiet_NaN@_Num_base@std@@2_NB		; std::_Num_base::has_quiet_NaN
PUBLIC	?has_signaling_NaN@_Num_base@std@@2_NB		; std::_Num_base::has_signaling_NaN
PUBLIC	?is_bounded@_Num_base@std@@2_NB			; std::_Num_base::is_bounded
PUBLIC	?is_exact@_Num_base@std@@2_NB			; std::_Num_base::is_exact
PUBLIC	?is_iec559@_Num_base@std@@2_NB			; std::_Num_base::is_iec559
PUBLIC	?is_integer@_Num_base@std@@2_NB			; std::_Num_base::is_integer
PUBLIC	?is_modulo@_Num_base@std@@2_NB			; std::_Num_base::is_modulo
PUBLIC	?is_signed@_Num_base@std@@2_NB			; std::_Num_base::is_signed
PUBLIC	?is_specialized@_Num_base@std@@2_NB		; std::_Num_base::is_specialized
PUBLIC	?tinyness_before@_Num_base@std@@2_NB		; std::_Num_base::tinyness_before
;	COMDAT ?tinyness_before@_Num_base@std@@2_NB
CONST	SEGMENT
?tinyness_before@_Num_base@std@@2_NB DB 00H		; std::_Num_base::tinyness_before
CONST	ENDS
;	COMDAT ?is_specialized@_Num_base@std@@2_NB
CONST	SEGMENT
?is_specialized@_Num_base@std@@2_NB DB 00H		; std::_Num_base::is_specialized
CONST	ENDS
;	COMDAT ?is_signed@_Num_base@std@@2_NB
CONST	SEGMENT
?is_signed@_Num_base@std@@2_NB DB 00H			; std::_Num_base::is_signed
CONST	ENDS
;	COMDAT ?is_modulo@_Num_base@std@@2_NB
CONST	SEGMENT
?is_modulo@_Num_base@std@@2_NB DB 00H			; std::_Num_base::is_modulo
CONST	ENDS
;	COMDAT ?is_integer@_Num_base@std@@2_NB
CONST	SEGMENT
?is_integer@_Num_base@std@@2_NB DB 00H			; std::_Num_base::is_integer
CONST	ENDS
;	COMDAT ?is_iec559@_Num_base@std@@2_NB
CONST	SEGMENT
?is_iec559@_Num_base@std@@2_NB DB 00H			; std::_Num_base::is_iec559
CONST	ENDS
;	COMDAT ?is_exact@_Num_base@std@@2_NB
CONST	SEGMENT
?is_exact@_Num_base@std@@2_NB DB 00H			; std::_Num_base::is_exact
CONST	ENDS
;	COMDAT ?is_bounded@_Num_base@std@@2_NB
CONST	SEGMENT
?is_bounded@_Num_base@std@@2_NB DB 00H			; std::_Num_base::is_bounded
CONST	ENDS
;	COMDAT ?has_signaling_NaN@_Num_base@std@@2_NB
CONST	SEGMENT
?has_signaling_NaN@_Num_base@std@@2_NB DB 00H		; std::_Num_base::has_signaling_NaN
CONST	ENDS
;	COMDAT ?has_quiet_NaN@_Num_base@std@@2_NB
CONST	SEGMENT
?has_quiet_NaN@_Num_base@std@@2_NB DB 00H		; std::_Num_base::has_quiet_NaN
CONST	ENDS
;	COMDAT ?has_infinity@_Num_base@std@@2_NB
CONST	SEGMENT
?has_infinity@_Num_base@std@@2_NB DB 00H		; std::_Num_base::has_infinity
CONST	ENDS
;	COMDAT ?has_denorm_loss@_Num_base@std@@2_NB
CONST	SEGMENT
?has_denorm_loss@_Num_base@std@@2_NB DB 00H		; std::_Num_base::has_denorm_loss
CONST	ENDS
;	COMDAT ?has_denorm@_Num_base@std@@2W4float_denorm_style@2@B
CONST	SEGMENT
?has_denorm@_Num_base@std@@2W4float_denorm_style@2@B DD 00H ; std::_Num_base::has_denorm
CONST	ENDS
;	COMDAT ?table_size@?$ctype@D@std@@2IB
CONST	SEGMENT
?table_size@?$ctype@D@std@@2IB DD 0100H			; std::ctype<char>::table_size
CONST	ENDS
;	COMDAT ?value@?$_Sizeof@U_Nil@std@@U12@U12@U12@U12@U12@U12@U12@@std@@2IB
CONST	SEGMENT
?value@?$_Sizeof@U_Nil@std@@U12@U12@U12@U12@U12@U12@U12@@std@@2IB DD 00H ; std::_Sizeof<std::_Nil,std::_Nil,std::_Nil,std::_Nil,std::_Nil,std::_Nil,std::_Nil,std::_Nil>::value
CONST	ENDS
;	COMDAT ?none@?$_Locbase@H@std@@2HB
CONST	SEGMENT
?none@?$_Locbase@H@std@@2HB DD 00H			; std::_Locbase<int>::none
CONST	ENDS
;	COMDAT ?all@?$_Locbase@H@std@@2HB
CONST	SEGMENT
?all@?$_Locbase@H@std@@2HB DD 03fH			; std::_Locbase<int>::all
CONST	ENDS
;	COMDAT ?messages@?$_Locbase@H@std@@2HB
CONST	SEGMENT
?messages@?$_Locbase@H@std@@2HB DD 020H			; std::_Locbase<int>::messages
CONST	ENDS
;	COMDAT ?time@?$_Locbase@H@std@@2HB
CONST	SEGMENT
?time@?$_Locbase@H@std@@2HB DD 010H			; std::_Locbase<int>::time
CONST	ENDS
;	COMDAT ?numeric@?$_Locbase@H@std@@2HB
CONST	SEGMENT
?numeric@?$_Locbase@H@std@@2HB DD 08H			; std::_Locbase<int>::numeric
CONST	ENDS
;	COMDAT ?monetary@?$_Locbase@H@std@@2HB
CONST	SEGMENT
?monetary@?$_Locbase@H@std@@2HB DD 04H			; std::_Locbase<int>::monetary
CONST	ENDS
;	COMDAT ?ctype@?$_Locbase@H@std@@2HB
CONST	SEGMENT
?ctype@?$_Locbase@H@std@@2HB DD 02H			; std::_Locbase<int>::ctype
CONST	ENDS
;	COMDAT ?collate@?$_Locbase@H@std@@2HB
CONST	SEGMENT
?collate@?$_Locbase@H@std@@2HB DD 01H			; std::_Locbase<int>::collate
CONST	ENDS
;	COMDAT ?min_exponent10@?$numeric_limits@O@std@@2HB
CONST	SEGMENT
?min_exponent10@?$numeric_limits@O@std@@2HB DD 0fffffecdH ; std::numeric_limits<long double>::min_exponent10
CONST	ENDS
;	COMDAT ?min_exponent@?$numeric_limits@O@std@@2HB
CONST	SEGMENT
?min_exponent@?$numeric_limits@O@std@@2HB DD 0fffffc03H	; std::numeric_limits<long double>::min_exponent
CONST	ENDS
;	COMDAT ?max_exponent10@?$numeric_limits@O@std@@2HB
CONST	SEGMENT
?max_exponent10@?$numeric_limits@O@std@@2HB DD 0134H	; std::numeric_limits<long double>::max_exponent10
CONST	ENDS
;	COMDAT ?max_exponent@?$numeric_limits@O@std@@2HB
CONST	SEGMENT
?max_exponent@?$numeric_limits@O@std@@2HB DD 0400H	; std::numeric_limits<long double>::max_exponent
CONST	ENDS
;	COMDAT ?max_digits10@?$numeric_limits@O@std@@2HB
CONST	SEGMENT
?max_digits10@?$numeric_limits@O@std@@2HB DD 011H	; std::numeric_limits<long double>::max_digits10
CONST	ENDS
;	COMDAT ?digits10@?$numeric_limits@O@std@@2HB
CONST	SEGMENT
?digits10@?$numeric_limits@O@std@@2HB DD 0fH		; std::numeric_limits<long double>::digits10
CONST	ENDS
;	COMDAT ?digits@?$numeric_limits@O@std@@2HB
CONST	SEGMENT
?digits@?$numeric_limits@O@std@@2HB DD 035H		; std::numeric_limits<long double>::digits
CONST	ENDS
;	COMDAT ?min_exponent10@?$numeric_limits@N@std@@2HB
CONST	SEGMENT
?min_exponent10@?$numeric_limits@N@std@@2HB DD 0fffffecdH ; std::numeric_limits<double>::min_exponent10
CONST	ENDS
;	COMDAT ?min_exponent@?$numeric_limits@N@std@@2HB
CONST	SEGMENT
?min_exponent@?$numeric_limits@N@std@@2HB DD 0fffffc03H	; std::numeric_limits<double>::min_exponent
CONST	ENDS
;	COMDAT ?max_exponent10@?$numeric_limits@N@std@@2HB
CONST	SEGMENT
?max_exponent10@?$numeric_limits@N@std@@2HB DD 0134H	; std::numeric_limits<double>::max_exponent10
CONST	ENDS
;	COMDAT ?max_exponent@?$numeric_limits@N@std@@2HB
CONST	SEGMENT
?max_exponent@?$numeric_limits@N@std@@2HB DD 0400H	; std::numeric_limits<double>::max_exponent
CONST	ENDS
;	COMDAT ?max_digits10@?$numeric_limits@N@std@@2HB
CONST	SEGMENT
?max_digits10@?$numeric_limits@N@std@@2HB DD 011H	; std::numeric_limits<double>::max_digits10
CONST	ENDS
;	COMDAT ?digits10@?$numeric_limits@N@std@@2HB
CONST	SEGMENT
?digits10@?$numeric_limits@N@std@@2HB DD 0fH		; std::numeric_limits<double>::digits10
CONST	ENDS
;	COMDAT ?digits@?$numeric_limits@N@std@@2HB
CONST	SEGMENT
?digits@?$numeric_limits@N@std@@2HB DD 035H		; std::numeric_limits<double>::digits
CONST	ENDS
;	COMDAT ?value@?$integral_constant@I$0A@@std@@2IB
CONST	SEGMENT
?value@?$integral_constant@I$0A@@std@@2IB DD 00H	; std::integral_constant<unsigned int,0>::value
CONST	ENDS
;	COMDAT ?min_exponent10@?$numeric_limits@M@std@@2HB
CONST	SEGMENT
?min_exponent10@?$numeric_limits@M@std@@2HB DD 0ffffffdbH ; std::numeric_limits<float>::min_exponent10
CONST	ENDS
;	COMDAT ?min_exponent@?$numeric_limits@M@std@@2HB
CONST	SEGMENT
?min_exponent@?$numeric_limits@M@std@@2HB DD 0ffffff83H	; std::numeric_limits<float>::min_exponent
CONST	ENDS
;	COMDAT ?max_exponent10@?$numeric_limits@M@std@@2HB
CONST	SEGMENT
?max_exponent10@?$numeric_limits@M@std@@2HB DD 026H	; std::numeric_limits<float>::max_exponent10
CONST	ENDS
;	COMDAT ?max_exponent@?$numeric_limits@M@std@@2HB
CONST	SEGMENT
?max_exponent@?$numeric_limits@M@std@@2HB DD 080H	; std::numeric_limits<float>::max_exponent
CONST	ENDS
;	COMDAT ?max_digits10@?$numeric_limits@M@std@@2HB
CONST	SEGMENT
?max_digits10@?$numeric_limits@M@std@@2HB DD 09H	; std::numeric_limits<float>::max_digits10
CONST	ENDS
;	COMDAT ?digits10@?$numeric_limits@M@std@@2HB
CONST	SEGMENT
?digits10@?$numeric_limits@M@std@@2HB DD 06H		; std::numeric_limits<float>::digits10
CONST	ENDS
;	COMDAT ?digits@?$numeric_limits@M@std@@2HB
CONST	SEGMENT
?digits@?$numeric_limits@M@std@@2HB DD 018H		; std::numeric_limits<float>::digits
CONST	ENDS
;	COMDAT ?digits10@?$numeric_limits@_K@std@@2HB
CONST	SEGMENT
?digits10@?$numeric_limits@_K@std@@2HB DD 013H		; std::numeric_limits<unsigned __int64>::digits10
CONST	ENDS
;	COMDAT ?digits@?$numeric_limits@_K@std@@2HB
CONST	SEGMENT
?digits@?$numeric_limits@_K@std@@2HB DD 040H		; std::numeric_limits<unsigned __int64>::digits
CONST	ENDS
_DATA	SEGMENT
_matrix33_ident DD 03f800000r			; 1
	DD	000000000r			; 0
	DD	000000000r			; 0
	DD	000000000r			; 0
	DD	03f800000r			; 1
	DD	000000000r			; 0
	DD	000000000r			; 0
	DD	000000000r			; 0
	DD	03f800000r			; 1
	ORG $+4
_PreFlightTable DD 00H
	DD	00H
	DD	01H
	DD	00H
	DD	01H
	DD	00H
	DD	01H
	DD	00H
	DD	02H
	DD	00H
	DD	01H
	DD	00H
	DD	09H
	DD	00H
	DD	01H
	DD	00H
	DD	03H
	DD	00H
	DD	00H
	DD	FLAT:?EngineStart@@YAHPAVAircraftClass@@@Z
	DD	04H
	DD	00H
	DD	01H
	DD	00H
	DD	05H
	DD	0800H
	DD	06H
	DD	00H
	DD	05H
	DD	04H
	DD	02H
	DD	00H
	DD	05H
	DD	02H
	DD	01H
	DD	00H
	DD	05H
	DD	01H
	DD	01H
	DD	00H
	DD	05H
	DD	08H
	DD	01H
	DD	00H
	DD	05H
	DD	0400H
	DD	03H
	DD	00H
	DD	05H
	DD	0200H
	DD	01H
	DD	00H
	DD	05H
	DD	080H
	DD	01H
	DD	00H
	DD	05H
	DD	0100H
	DD	01H
	DD	00H
	DD	05H
	DD	010H
	DD	01H
	DD	00H
	DD	05H
	DD	020H
	DD	01H
	DD	00H
	DD	05H
	DD	040H
	DD	01H
	DD	00H
	DD	05H
	DD	020000H
	DD	01H
	DD	00H
	DD	07H
	DD	00H
	DD	01H
	DD	00H
	DD	05H
	DD	01000H
	DD	02H
	DD	00H
	DD	05H
	DD	02000H
	DD	02H
	DD	00H
	DD	05H
	DD	04000H
	DD	02H
	DD	00H
	DD	05H
	DD	08000H
	DD	02H
	DD	00H
	DD	05H
	DD	0200000H
	DD	02H
	DD	00H
	DD	0aH
	DD	00H
	DD	01H
	DD	00H
	DD	0cH
	DD	04H
	DD	01H
	DD	00H
	DD	0cH
	DD	010H
	DD	01H
	DD	00H
	DD	0cH
	DD	08H
	DD	01H
	DD	00H
	DD	0cH
	DD	040H
	DD	01H
	DD	00H
	DD	0dH
	DD	02H
	DD	01e5H
	DD	00H
	DD	0dH
	DD	020H
	DD	00H
	DD	00H
	DD	0eH
	DD	01H
	DD	01H
	DD	00H
	DD	0eH
	DD	02H
	DD	01H
	DD	00H
	DD	06H
	DD	0400000H
	DD	03H
	DD	00H
	DD	0bH
	DD	00H
	DD	01H
	DD	00H
	DD	08H
	DD	00H
	DD	01H
	DD	00H
	DD	0fH
	DD	00H
	DD	01H
	DD	00H
_matrix44_ident DD 03f800000r			; 1
	DD	000000000r			; 0
	DD	000000000r			; 0
	DD	000000000r			; 0
	DD	000000000r			; 0
	DD	03f800000r			; 1
	DD	000000000r			; 0
	DD	000000000r			; 0
	DD	000000000r			; 0
	DD	000000000r			; 0
	DD	03f800000r			; 1
	DD	000000000r			; 0
	DD	000000000r			; 0
	DD	000000000r			; 0
	DD	000000000r			; 0
	DD	03f800000r			; 1
_DATA	ENDS
;	COMDAT ?is_signed@?$numeric_limits@_K@std@@2_NB
CONST	SEGMENT
?is_signed@?$numeric_limits@_K@std@@2_NB DB 00H		; std::numeric_limits<unsigned __int64>::is_signed
CONST	ENDS
;	COMDAT ?digits10@?$numeric_limits@_J@std@@2HB
CONST	SEGMENT
?digits10@?$numeric_limits@_J@std@@2HB DD 012H		; std::numeric_limits<__int64>::digits10
CONST	ENDS
;	COMDAT ?digits@?$numeric_limits@_J@std@@2HB
CONST	SEGMENT
?digits@?$numeric_limits@_J@std@@2HB DD 03fH		; std::numeric_limits<__int64>::digits
CONST	ENDS
;	COMDAT ?is_signed@?$numeric_limits@_J@std@@2_NB
CONST	SEGMENT
?is_signed@?$numeric_limits@_J@std@@2_NB DB 01H		; std::numeric_limits<__int64>::is_signed
CONST	ENDS
;	COMDAT ?_Stream_err@failure@ios_base@std@@0W4io_errc@43@B
CONST	SEGMENT
?_Stream_err@failure@ios_base@std@@0W4io_errc@43@B DD 01H ; std::ios_base::failure::_Stream_err
CONST	ENDS
;	COMDAT ?digits10@?$numeric_limits@K@std@@2HB
CONST	SEGMENT
?digits10@?$numeric_limits@K@std@@2HB DD 09H		; std::numeric_limits<unsigned long>::digits10
CONST	ENDS
;	COMDAT ?digits@?$numeric_limits@K@std@@2HB
CONST	SEGMENT
?digits@?$numeric_limits@K@std@@2HB DD 020H		; std::numeric_limits<unsigned long>::digits
CONST	ENDS
;	COMDAT ?end@?$_Iosb@H@std@@2W4_Seekdir@12@B
CONST	SEGMENT
?end@?$_Iosb@H@std@@2W4_Seekdir@12@B DD 02H		; std::_Iosb<int>::end
CONST	ENDS
;	COMDAT ?cur@?$_Iosb@H@std@@2W4_Seekdir@12@B
CONST	SEGMENT
?cur@?$_Iosb@H@std@@2W4_Seekdir@12@B DD 01H		; std::_Iosb<int>::cur
CONST	ENDS
;	COMDAT ?is_signed@?$numeric_limits@K@std@@2_NB
CONST	SEGMENT
?is_signed@?$numeric_limits@K@std@@2_NB DB 00H		; std::numeric_limits<unsigned long>::is_signed
CONST	ENDS
;	COMDAT ?beg@?$_Iosb@H@std@@2W4_Seekdir@12@B
CONST	SEGMENT
?beg@?$_Iosb@H@std@@2W4_Seekdir@12@B DD 00H		; std::_Iosb<int>::beg
CONST	ENDS
;	COMDAT ?binary@?$_Iosb@H@std@@2W4_Openmode@12@B
CONST	SEGMENT
?binary@?$_Iosb@H@std@@2W4_Openmode@12@B DD 020H	; std::_Iosb<int>::binary
CONST	ENDS
;	COMDAT ?_Noreplace@?$_Iosb@H@std@@2W4_Openmode@12@B
CONST	SEGMENT
?_Noreplace@?$_Iosb@H@std@@2W4_Openmode@12@B DD 080H	; std::_Iosb<int>::_Noreplace
CONST	ENDS
;	COMDAT ?_Nocreate@?$_Iosb@H@std@@2W4_Openmode@12@B
CONST	SEGMENT
?_Nocreate@?$_Iosb@H@std@@2W4_Openmode@12@B DD 040H	; std::_Iosb<int>::_Nocreate
CONST	ENDS
;	COMDAT ?trunc@?$_Iosb@H@std@@2W4_Openmode@12@B
CONST	SEGMENT
?trunc@?$_Iosb@H@std@@2W4_Openmode@12@B DD 010H		; std::_Iosb<int>::trunc
CONST	ENDS
;	COMDAT ?app@?$_Iosb@H@std@@2W4_Openmode@12@B
CONST	SEGMENT
?app@?$_Iosb@H@std@@2W4_Openmode@12@B DD 08H		; std::_Iosb<int>::app
CONST	ENDS
;	COMDAT ?ate@?$_Iosb@H@std@@2W4_Openmode@12@B
CONST	SEGMENT
?ate@?$_Iosb@H@std@@2W4_Openmode@12@B DD 04H		; std::_Iosb<int>::ate
CONST	ENDS
;	COMDAT ?out@?$_Iosb@H@std@@2W4_Openmode@12@B
CONST	SEGMENT
?out@?$_Iosb@H@std@@2W4_Openmode@12@B DD 02H		; std::_Iosb<int>::out
CONST	ENDS
;	COMDAT ?in@?$_Iosb@H@std@@2W4_Openmode@12@B
CONST	SEGMENT
?in@?$_Iosb@H@std@@2W4_Openmode@12@B DD 01H		; std::_Iosb<int>::in
CONST	ENDS
;	COMDAT ?digits10@?$numeric_limits@J@std@@2HB
CONST	SEGMENT
?digits10@?$numeric_limits@J@std@@2HB DD 09H		; std::numeric_limits<long>::digits10
CONST	ENDS
;	COMDAT ?_Hardfail@?$_Iosb@H@std@@2W4_Iostate@12@B
CONST	SEGMENT
?_Hardfail@?$_Iosb@H@std@@2W4_Iostate@12@B DD 010H	; std::_Iosb<int>::_Hardfail
CONST	ENDS
;	COMDAT ?digits@?$numeric_limits@J@std@@2HB
CONST	SEGMENT
?digits@?$numeric_limits@J@std@@2HB DD 01fH		; std::numeric_limits<long>::digits
CONST	ENDS
;	COMDAT ?badbit@?$_Iosb@H@std@@2W4_Iostate@12@B
CONST	SEGMENT
?badbit@?$_Iosb@H@std@@2W4_Iostate@12@B DD 04H		; std::_Iosb<int>::badbit
CONST	ENDS
;	COMDAT ?is_signed@?$numeric_limits@J@std@@2_NB
CONST	SEGMENT
?is_signed@?$numeric_limits@J@std@@2_NB DB 01H		; std::numeric_limits<long>::is_signed
CONST	ENDS
;	COMDAT ?failbit@?$_Iosb@H@std@@2W4_Iostate@12@B
CONST	SEGMENT
?failbit@?$_Iosb@H@std@@2W4_Iostate@12@B DD 02H		; std::_Iosb<int>::failbit
CONST	ENDS
;	COMDAT ?eofbit@?$_Iosb@H@std@@2W4_Iostate@12@B
CONST	SEGMENT
?eofbit@?$_Iosb@H@std@@2W4_Iostate@12@B DD 01H		; std::_Iosb<int>::eofbit
CONST	ENDS
;	COMDAT ?goodbit@?$_Iosb@H@std@@2W4_Iostate@12@B
CONST	SEGMENT
?goodbit@?$_Iosb@H@std@@2W4_Iostate@12@B DD 00H		; std::_Iosb<int>::goodbit
CONST	ENDS
;	COMDAT ?floatfield@?$_Iosb@H@std@@2W4_Fmtflags@12@B
CONST	SEGMENT
?floatfield@?$_Iosb@H@std@@2W4_Fmtflags@12@B DD 03000H	; std::_Iosb<int>::floatfield
CONST	ENDS
;	COMDAT ?basefield@?$_Iosb@H@std@@2W4_Fmtflags@12@B
CONST	SEGMENT
?basefield@?$_Iosb@H@std@@2W4_Fmtflags@12@B DD 0e00H	; std::_Iosb<int>::basefield
CONST	ENDS
;	COMDAT ?adjustfield@?$_Iosb@H@std@@2W4_Fmtflags@12@B
CONST	SEGMENT
?adjustfield@?$_Iosb@H@std@@2W4_Fmtflags@12@B DD 01c0H	; std::_Iosb<int>::adjustfield
CONST	ENDS
;	COMDAT ?_Stdio@?$_Iosb@H@std@@2W4_Fmtflags@12@B
CONST	SEGMENT
?_Stdio@?$_Iosb@H@std@@2W4_Fmtflags@12@B DD 08000H	; std::_Iosb<int>::_Stdio
CONST	ENDS
;	COMDAT ?boolalpha@?$_Iosb@H@std@@2W4_Fmtflags@12@B
CONST	SEGMENT
?boolalpha@?$_Iosb@H@std@@2W4_Fmtflags@12@B DD 04000H	; std::_Iosb<int>::boolalpha
CONST	ENDS
;	COMDAT ?hexfloat@?$_Iosb@H@std@@2W4_Fmtflags@12@B
CONST	SEGMENT
?hexfloat@?$_Iosb@H@std@@2W4_Fmtflags@12@B DD 03000H	; std::_Iosb<int>::hexfloat
CONST	ENDS
;	COMDAT ?digits10@?$numeric_limits@I@std@@2HB
CONST	SEGMENT
?digits10@?$numeric_limits@I@std@@2HB DD 09H		; std::numeric_limits<unsigned int>::digits10
CONST	ENDS
;	COMDAT ?fixed@?$_Iosb@H@std@@2W4_Fmtflags@12@B
CONST	SEGMENT
?fixed@?$_Iosb@H@std@@2W4_Fmtflags@12@B DD 02000H	; std::_Iosb<int>::fixed
CONST	ENDS
;	COMDAT ?scientific@?$_Iosb@H@std@@2W4_Fmtflags@12@B
CONST	SEGMENT
?scientific@?$_Iosb@H@std@@2W4_Fmtflags@12@B DD 01000H	; std::_Iosb<int>::scientific
CONST	ENDS
;	COMDAT ?digits@?$numeric_limits@I@std@@2HB
CONST	SEGMENT
?digits@?$numeric_limits@I@std@@2HB DD 020H		; std::numeric_limits<unsigned int>::digits
CONST	ENDS
;	COMDAT ?hex@?$_Iosb@H@std@@2W4_Fmtflags@12@B
CONST	SEGMENT
?hex@?$_Iosb@H@std@@2W4_Fmtflags@12@B DD 0800H		; std::_Iosb<int>::hex
CONST	ENDS
;	COMDAT ?is_signed@?$numeric_limits@I@std@@2_NB
CONST	SEGMENT
?is_signed@?$numeric_limits@I@std@@2_NB DB 00H		; std::numeric_limits<unsigned int>::is_signed
CONST	ENDS
;	COMDAT ?oct@?$_Iosb@H@std@@2W4_Fmtflags@12@B
CONST	SEGMENT
?oct@?$_Iosb@H@std@@2W4_Fmtflags@12@B DD 0400H		; std::_Iosb<int>::oct
CONST	ENDS
;	COMDAT ?dec@?$_Iosb@H@std@@2W4_Fmtflags@12@B
CONST	SEGMENT
?dec@?$_Iosb@H@std@@2W4_Fmtflags@12@B DD 0200H		; std::_Iosb<int>::dec
CONST	ENDS
;	COMDAT ?internal@?$_Iosb@H@std@@2W4_Fmtflags@12@B
CONST	SEGMENT
?internal@?$_Iosb@H@std@@2W4_Fmtflags@12@B DD 0100H	; std::_Iosb<int>::internal
CONST	ENDS
;	COMDAT ?right@?$_Iosb@H@std@@2W4_Fmtflags@12@B
CONST	SEGMENT
?right@?$_Iosb@H@std@@2W4_Fmtflags@12@B DD 080H		; std::_Iosb<int>::right
CONST	ENDS
;	COMDAT ?left@?$_Iosb@H@std@@2W4_Fmtflags@12@B
CONST	SEGMENT
?left@?$_Iosb@H@std@@2W4_Fmtflags@12@B DD 040H		; std::_Iosb<int>::left
CONST	ENDS
;	COMDAT ?showpos@?$_Iosb@H@std@@2W4_Fmtflags@12@B
CONST	SEGMENT
?showpos@?$_Iosb@H@std@@2W4_Fmtflags@12@B DD 020H	; std::_Iosb<int>::showpos
CONST	ENDS
;	COMDAT ?showpoint@?$_Iosb@H@std@@2W4_Fmtflags@12@B
CONST	SEGMENT
?showpoint@?$_Iosb@H@std@@2W4_Fmtflags@12@B DD 010H	; std::_Iosb<int>::showpoint
CONST	ENDS
;	COMDAT ?showbase@?$_Iosb@H@std@@2W4_Fmtflags@12@B
CONST	SEGMENT
?showbase@?$_Iosb@H@std@@2W4_Fmtflags@12@B DD 08H	; std::_Iosb<int>::showbase
CONST	ENDS
;	COMDAT ?uppercase@?$_Iosb@H@std@@2W4_Fmtflags@12@B
CONST	SEGMENT
?uppercase@?$_Iosb@H@std@@2W4_Fmtflags@12@B DD 04H	; std::_Iosb<int>::uppercase
CONST	ENDS
;	COMDAT ?unitbuf@?$_Iosb@H@std@@2W4_Fmtflags@12@B
CONST	SEGMENT
?unitbuf@?$_Iosb@H@std@@2W4_Fmtflags@12@B DD 02H	; std::_Iosb<int>::unitbuf
CONST	ENDS
;	COMDAT ?digits10@?$numeric_limits@H@std@@2HB
CONST	SEGMENT
?digits10@?$numeric_limits@H@std@@2HB DD 09H		; std::numeric_limits<int>::digits10
CONST	ENDS
;	COMDAT ?skipws@?$_Iosb@H@std@@2W4_Fmtflags@12@B
CONST	SEGMENT
?skipws@?$_Iosb@H@std@@2W4_Fmtflags@12@B DD 01H		; std::_Iosb<int>::skipws
CONST	ENDS
;	COMDAT ?digits@?$numeric_limits@H@std@@2HB
CONST	SEGMENT
?digits@?$numeric_limits@H@std@@2HB DD 01fH		; std::numeric_limits<int>::digits
CONST	ENDS
;	COMDAT ?value@?$_Sizeof@HU_Nil@std@@U12@U12@U12@U12@U12@U12@@std@@2IB
CONST	SEGMENT
?value@?$_Sizeof@HU_Nil@std@@U12@U12@U12@U12@U12@U12@@std@@2IB DD 01H ; std::_Sizeof<int,std::_Nil,std::_Nil,std::_Nil,std::_Nil,std::_Nil,std::_Nil,std::_Nil>::value
CONST	ENDS
;	COMDAT ?is_signed@?$numeric_limits@H@std@@2_NB
CONST	SEGMENT
?is_signed@?$numeric_limits@H@std@@2_NB DB 01H		; std::numeric_limits<int>::is_signed
CONST	ENDS
;	COMDAT ?digits10@?$numeric_limits@G@std@@2HB
CONST	SEGMENT
?digits10@?$numeric_limits@G@std@@2HB DD 04H		; std::numeric_limits<unsigned short>::digits10
CONST	ENDS
;	COMDAT ?digits@?$numeric_limits@G@std@@2HB
CONST	SEGMENT
?digits@?$numeric_limits@G@std@@2HB DD 010H		; std::numeric_limits<unsigned short>::digits
CONST	ENDS
;	COMDAT ?is_signed@?$numeric_limits@G@std@@2_NB
CONST	SEGMENT
?is_signed@?$numeric_limits@G@std@@2_NB DB 00H		; std::numeric_limits<unsigned short>::is_signed
CONST	ENDS
;	COMDAT ?digits10@?$numeric_limits@F@std@@2HB
CONST	SEGMENT
?digits10@?$numeric_limits@F@std@@2HB DD 04H		; std::numeric_limits<short>::digits10
CONST	ENDS
;	COMDAT ?digits@?$numeric_limits@F@std@@2HB
CONST	SEGMENT
?digits@?$numeric_limits@F@std@@2HB DD 0fH		; std::numeric_limits<short>::digits
CONST	ENDS
;	COMDAT ?is_signed@?$numeric_limits@F@std@@2_NB
CONST	SEGMENT
?is_signed@?$numeric_limits@F@std@@2_NB DB 01H		; std::numeric_limits<short>::is_signed
CONST	ENDS
;	COMDAT ?value@?$integral_constant@_N$00@std@@2_NB
CONST	SEGMENT
?value@?$integral_constant@_N$00@std@@2_NB DB 01H	; std::integral_constant<bool,1>::value
CONST	ENDS
;	COMDAT ?digits10@?$numeric_limits@E@std@@2HB
CONST	SEGMENT
?digits10@?$numeric_limits@E@std@@2HB DD 02H		; std::numeric_limits<unsigned char>::digits10
CONST	ENDS
;	COMDAT ?digits@?$numeric_limits@E@std@@2HB
CONST	SEGMENT
?digits@?$numeric_limits@E@std@@2HB DD 08H		; std::numeric_limits<unsigned char>::digits
CONST	ENDS
;	COMDAT ?value@?$integral_constant@_N$0A@@std@@2_NB
CONST	SEGMENT
?value@?$integral_constant@_N$0A@@std@@2_NB DB 00H	; std::integral_constant<bool,0>::value
CONST	ENDS
;	COMDAT ?is_signed@?$numeric_limits@E@std@@2_NB
CONST	SEGMENT
?is_signed@?$numeric_limits@E@std@@2_NB DB 00H		; std::numeric_limits<unsigned char>::is_signed
CONST	ENDS
;	COMDAT ?digits10@?$numeric_limits@C@std@@2HB
CONST	SEGMENT
?digits10@?$numeric_limits@C@std@@2HB DD 02H		; std::numeric_limits<signed char>::digits10
CONST	ENDS
;	COMDAT ?digits@?$numeric_limits@C@std@@2HB
CONST	SEGMENT
?digits@?$numeric_limits@C@std@@2HB DD 07H		; std::numeric_limits<signed char>::digits
CONST	ENDS
;	COMDAT ?is_signed@?$numeric_limits@C@std@@2_NB
CONST	SEGMENT
?is_signed@?$numeric_limits@C@std@@2_NB DB 01H		; std::numeric_limits<signed char>::is_signed
CONST	ENDS
CONST	SEGMENT
_L_2	DD	03f317218r			; 0.693147
CONST	ENDS
;	COMDAT ?digits10@?$numeric_limits@_N@std@@2HB
CONST	SEGMENT
?digits10@?$numeric_limits@_N@std@@2HB DD 00H		; std::numeric_limits<bool>::digits10
CONST	ENDS
;	COMDAT ?digits@?$numeric_limits@_N@std@@2HB
CONST	SEGMENT
?digits@?$numeric_limits@_N@std@@2HB DD 01H		; std::numeric_limits<bool>::digits
CONST	ENDS
;	COMDAT ?is_signed@?$numeric_limits@_N@std@@2_NB
CONST	SEGMENT
?is_signed@?$numeric_limits@_N@std@@2_NB DB 00H		; std::numeric_limits<bool>::is_signed
CONST	ENDS
;	COMDAT ?is_modulo@?$numeric_limits@_N@std@@2_NB
CONST	SEGMENT
?is_modulo@?$numeric_limits@_N@std@@2_NB DB 00H		; std::numeric_limits<bool>::is_modulo
CONST	ENDS
;	COMDAT ?digits10@?$numeric_limits@_W@std@@2HB
CONST	SEGMENT
?digits10@?$numeric_limits@_W@std@@2HB DD 04H		; std::numeric_limits<wchar_t>::digits10
CONST	ENDS
;	COMDAT ?digits@?$numeric_limits@_W@std@@2HB
CONST	SEGMENT
?digits@?$numeric_limits@_W@std@@2HB DD 010H		; std::numeric_limits<wchar_t>::digits
CONST	ENDS
;	COMDAT ?is_signed@?$numeric_limits@_W@std@@2_NB
CONST	SEGMENT
?is_signed@?$numeric_limits@_W@std@@2_NB DB 00H		; std::numeric_limits<wchar_t>::is_signed
CONST	ENDS
;	COMDAT ?digits10@?$numeric_limits@D@std@@2HB
CONST	SEGMENT
?digits10@?$numeric_limits@D@std@@2HB DD 02H		; std::numeric_limits<char>::digits10
CONST	ENDS
;	COMDAT ?digits@?$numeric_limits@D@std@@2HB
CONST	SEGMENT
?digits@?$numeric_limits@D@std@@2HB DD 07H		; std::numeric_limits<char>::digits
CONST	ENDS
;	COMDAT ?is_signed@?$numeric_limits@D@std@@2_NB
CONST	SEGMENT
?is_signed@?$numeric_limits@D@std@@2_NB DB 01H		; std::numeric_limits<char>::is_signed
CONST	ENDS
;	COMDAT ?radix@_Num_float_base@std@@2HB
CONST	SEGMENT
?radix@_Num_float_base@std@@2HB DD 02H			; std::_Num_float_base::radix
CONST	ENDS
;	COMDAT ?round_style@_Num_float_base@std@@2W4float_round_style@2@B
CONST	SEGMENT
?round_style@_Num_float_base@std@@2W4float_round_style@2@B DD 01H ; std::_Num_float_base::round_style
CONST	ENDS
;	COMDAT ?traps@_Num_float_base@std@@2_NB
CONST	SEGMENT
?traps@_Num_float_base@std@@2_NB DB 00H			; std::_Num_float_base::traps
CONST	ENDS
;	COMDAT ?tinyness_before@_Num_float_base@std@@2_NB
CONST	SEGMENT
?tinyness_before@_Num_float_base@std@@2_NB DB 01H	; std::_Num_float_base::tinyness_before
CONST	ENDS
;	COMDAT ?is_specialized@_Num_float_base@std@@2_NB
CONST	SEGMENT
?is_specialized@_Num_float_base@std@@2_NB DB 01H	; std::_Num_float_base::is_specialized
CONST	ENDS
;	COMDAT ?is_signed@_Num_float_base@std@@2_NB
CONST	SEGMENT
?is_signed@_Num_float_base@std@@2_NB DB 01H		; std::_Num_float_base::is_signed
CONST	ENDS
;	COMDAT ?is_modulo@_Num_float_base@std@@2_NB
CONST	SEGMENT
?is_modulo@_Num_float_base@std@@2_NB DB 00H		; std::_Num_float_base::is_modulo
CONST	ENDS
;	COMDAT ?is_integer@_Num_float_base@std@@2_NB
CONST	SEGMENT
?is_integer@_Num_float_base@std@@2_NB DB 00H		; std::_Num_float_base::is_integer
CONST	ENDS
;	COMDAT ?is_iec559@_Num_float_base@std@@2_NB
CONST	SEGMENT
?is_iec559@_Num_float_base@std@@2_NB DB 01H		; std::_Num_float_base::is_iec559
CONST	ENDS
;	COMDAT ?is_exact@_Num_float_base@std@@2_NB
CONST	SEGMENT
?is_exact@_Num_float_base@std@@2_NB DB 00H		; std::_Num_float_base::is_exact
CONST	ENDS
;	COMDAT ?is_bounded@_Num_float_base@std@@2_NB
CONST	SEGMENT
?is_bounded@_Num_float_base@std@@2_NB DB 01H		; std::_Num_float_base::is_bounded
CONST	ENDS
;	COMDAT ?has_signaling_NaN@_Num_float_base@std@@2_NB
CONST	SEGMENT
?has_signaling_NaN@_Num_float_base@std@@2_NB DB 01H	; std::_Num_float_base::has_signaling_NaN
CONST	ENDS
;	COMDAT ?has_quiet_NaN@_Num_float_base@std@@2_NB
CONST	SEGMENT
?has_quiet_NaN@_Num_float_base@std@@2_NB DB 01H		; std::_Num_float_base::has_quiet_NaN
CONST	ENDS
;	COMDAT ?has_infinity@_Num_float_base@std@@2_NB
CONST	SEGMENT
?has_infinity@_Num_float_base@std@@2_NB DB 01H		; std::_Num_float_base::has_infinity
CONST	ENDS
;	COMDAT ?CMPDIRTYDATA_INTERVAL@FalconEntity@@2KB
CONST	SEGMENT
?CMPDIRTYDATA_INTERVAL@FalconEntity@@2KB DD 0c8H	; FalconEntity::CMPDIRTYDATA_INTERVAL
CONST	ENDS
;	COMDAT ?SIMDIRTYDATA_INTERVAL@FalconEntity@@2KB
CONST	SEGMENT
?SIMDIRTYDATA_INTERVAL@FalconEntity@@2KB DD 0c8H	; FalconEntity::SIMDIRTYDATA_INTERVAL
CONST	ENDS
;	COMDAT ?has_denorm_loss@_Num_float_base@std@@2_NB
CONST	SEGMENT
?has_denorm_loss@_Num_float_base@std@@2_NB DB 01H	; std::_Num_float_base::has_denorm_loss
CONST	ENDS
;	COMDAT ?has_denorm@_Num_float_base@std@@2W4float_denorm_style@2@B
CONST	SEGMENT
?has_denorm@_Num_float_base@std@@2W4float_denorm_style@2@B DD 01H ; std::_Num_float_base::has_denorm
CONST	ENDS
;	COMDAT ?radix@_Num_int_base@std@@2HB
CONST	SEGMENT
?radix@_Num_int_base@std@@2HB DD 02H			; std::_Num_int_base::radix
CONST	ENDS
;	COMDAT ?is_specialized@_Num_int_base@std@@2_NB
CONST	SEGMENT
?is_specialized@_Num_int_base@std@@2_NB DB 01H		; std::_Num_int_base::is_specialized
CONST	ENDS
;	COMDAT ?is_modulo@_Num_int_base@std@@2_NB
CONST	SEGMENT
?is_modulo@_Num_int_base@std@@2_NB DB 01H		; std::_Num_int_base::is_modulo
CONST	ENDS
;	COMDAT ?is_integer@_Num_int_base@std@@2_NB
CONST	SEGMENT
?is_integer@_Num_int_base@std@@2_NB DB 01H		; std::_Num_int_base::is_integer
CONST	ENDS
;	COMDAT ?is_exact@_Num_int_base@std@@2_NB
CONST	SEGMENT
?is_exact@_Num_int_base@std@@2_NB DB 01H		; std::_Num_int_base::is_exact
CONST	ENDS
;	COMDAT ?is_bounded@_Num_int_base@std@@2_NB
CONST	SEGMENT
?is_bounded@_Num_int_base@std@@2_NB DB 01H		; std::_Num_int_base::is_bounded
CONST	ENDS
;	COMDAT ?radix@_Num_base@std@@2HB
CONST	SEGMENT
?radix@_Num_base@std@@2HB DD 00H			; std::_Num_base::radix
CONST	ENDS
;	COMDAT ?min_exponent10@_Num_base@std@@2HB
CONST	SEGMENT
?min_exponent10@_Num_base@std@@2HB DD 00H		; std::_Num_base::min_exponent10
CONST	ENDS
;	COMDAT ?min_exponent@_Num_base@std@@2HB
CONST	SEGMENT
?min_exponent@_Num_base@std@@2HB DD 00H			; std::_Num_base::min_exponent
CONST	ENDS
;	COMDAT ?max_exponent10@_Num_base@std@@2HB
CONST	SEGMENT
?max_exponent10@_Num_base@std@@2HB DD 00H		; std::_Num_base::max_exponent10
CONST	ENDS
;	COMDAT ?max_exponent@_Num_base@std@@2HB
CONST	SEGMENT
?max_exponent@_Num_base@std@@2HB DD 00H			; std::_Num_base::max_exponent
CONST	ENDS
;	COMDAT ?max_digits10@_Num_base@std@@2HB
CONST	SEGMENT
?max_digits10@_Num_base@std@@2HB DD 00H			; std::_Num_base::max_digits10
CONST	ENDS
;	COMDAT ?digits10@_Num_base@std@@2HB
CONST	SEGMENT
?digits10@_Num_base@std@@2HB DD 00H			; std::_Num_base::digits10
CONST	ENDS
;	COMDAT ?digits@_Num_base@std@@2HB
CONST	SEGMENT
?digits@_Num_base@std@@2HB DD 00H			; std::_Num_base::digits
CONST	ENDS
;	COMDAT ?round_style@_Num_base@std@@2W4float_round_style@2@B
CONST	SEGMENT
?round_style@_Num_base@std@@2W4float_round_style@2@B DD 00H ; std::_Num_base::round_style
CONST	ENDS
;	COMDAT ?traps@_Num_base@std@@2_NB
CONST	SEGMENT
?traps@_Num_base@std@@2_NB DB 00H			; std::_Num_base::traps
CONST	ENDS
PUBLIC	_fabsf
PUBLIC	_cosf
PUBLIC	_sinf
PUBLIC	?cos@@YAMM@Z					; cos
PUBLIC	?fabs@@YAMM@Z					; fabs
PUBLIC	?sin@@YAMM@Z					; sin
PUBLIC	?Id@VuEntity@@QBE?AVVU_ID@@XZ			; VuEntity::Id
PUBLIC	?OwnerId@VuEntity@@QBE?AVVU_ID@@XZ		; VuEntity::OwnerId
PUBLIC	?XPos@VuEntity@@QBEMXZ				; VuEntity::XPos
PUBLIC	?YPos@VuEntity@@QBEMXZ				; VuEntity::YPos
PUBLIC	?ZPos@VuEntity@@QBEMXZ				; VuEntity::ZPos
PUBLIC	?XDelta@VuEntity@@QBEMXZ			; VuEntity::XDelta
PUBLIC	?YDelta@VuEntity@@QBEMXZ			; VuEntity::YDelta
PUBLIC	?Yaw@VuEntity@@QBEMXZ				; VuEntity::Yaw
PUBLIC	??2@YAPAXIPAX@Z					; operator new
PUBLIC	??3@YAXPAX0@Z					; operator delete
PUBLIC	?length@?$char_traits@D@std@@SAIPBD@Z		; std::char_traits<char>::length
PUBLIC	?copy@?$char_traits@D@std@@SAPADPADPBDI@Z	; std::char_traits<char>::copy
PUBLIC	?move@?$char_traits@D@std@@SAPADPADPBDI@Z	; std::char_traits<char>::move
PUBLIC	?assign@?$char_traits@D@std@@SAXAADABD@Z	; std::char_traits<char>::assign
PUBLIC	??0?$allocator@D@std@@QAE@XZ			; std::allocator<char>::allocator<char>
PUBLIC	?deallocate@?$allocator@D@std@@QAEXPADI@Z	; std::allocator<char>::deallocate
PUBLIC	?allocate@?$allocator@D@std@@QAEPADI@Z		; std::allocator<char>::allocate
PUBLIC	?max_size@?$allocator@D@std@@QBEIXZ		; std::allocator<char>::max_size
PUBLIC	?max_size@?$allocator_traits@V?$allocator@D@std@@@std@@SAIABV?$allocator@D@2@@Z ; std::allocator_traits<std::allocator<char> >::max_size
PUBLIC	??0?$_Wrap_alloc@V?$allocator@D@std@@@std@@QAE@XZ ; std::_Wrap_alloc<std::allocator<char> >::_Wrap_alloc<std::allocator<char> >
PUBLIC	?allocate@?$_Wrap_alloc@V?$allocator@D@std@@@std@@QAEPADI@Z ; std::_Wrap_alloc<std::allocator<char> >::allocate
PUBLIC	?deallocate@?$_Wrap_alloc@V?$allocator@D@std@@@std@@QAEXPADI@Z ; std::_Wrap_alloc<std::allocator<char> >::deallocate
PUBLIC	?max_size@?$_Wrap_alloc@V?$allocator@D@std@@@std@@QBEIXZ ; std::_Wrap_alloc<std::allocator<char> >::max_size
PUBLIC	??0?$_String_val@U?$_Simple_types@D@std@@@std@@QAE@XZ ; std::_String_val<std::_Simple_types<char> >::_String_val<std::_Simple_types<char> >
PUBLIC	?_Myptr@?$_String_val@U?$_Simple_types@D@std@@@std@@QAEPADXZ ; std::_String_val<std::_Simple_types<char> >::_Myptr
PUBLIC	?_Myptr@?$_String_val@U?$_Simple_types@D@std@@@std@@QBEPBDXZ ; std::_String_val<std::_Simple_types<char> >::_Myptr
PUBLIC	??0?$_String_alloc@$0A@U?$_String_base_types@DV?$allocator@D@std@@@std@@@std@@QAE@ABV?$allocator@D@1@@Z ; std::_String_alloc<0,std::_String_base_types<char,std::allocator<char> > >::_String_alloc<0,std::_String_base_types<char,std::allocator<char> > >
PUBLIC	?_Getal@?$_String_alloc@$0A@U?$_String_base_types@DV?$allocator@D@std@@@std@@@std@@QBE?AU?$_Wrap_alloc@V?$allocator@D@std@@@2@XZ ; std::_String_alloc<0,std::_String_base_types<char,std::allocator<char> > >::_Getal
PUBLIC	??0?$basic_string@DU?$char_traits@D@std@@V?$allocator@D@2@@std@@QAE@PBD@Z ; std::basic_string<char,std::char_traits<char>,std::allocator<char> >::basic_string<char,std::char_traits<char>,std::allocator<char> >
PUBLIC	?assign@?$basic_string@DU?$char_traits@D@std@@V?$allocator@D@2@@std@@QAEAAV12@ABV12@II@Z ; std::basic_string<char,std::char_traits<char>,std::allocator<char> >::assign
PUBLIC	?assign@?$basic_string@DU?$char_traits@D@std@@V?$allocator@D@2@@std@@QAEAAV12@PBDI@Z ; std::basic_string<char,std::char_traits<char>,std::allocator<char> >::assign
PUBLIC	?assign@?$basic_string@DU?$char_traits@D@std@@V?$allocator@D@2@@std@@QAEAAV12@PBD@Z ; std::basic_string<char,std::char_traits<char>,std::allocator<char> >::assign
PUBLIC	?erase@?$basic_string@DU?$char_traits@D@std@@V?$allocator@D@2@@std@@QAEAAV12@I@Z ; std::basic_string<char,std::char_traits<char>,std::allocator<char> >::erase
PUBLIC	?erase@?$basic_string@DU?$char_traits@D@std@@V?$allocator@D@2@@std@@QAEAAV12@II@Z ; std::basic_string<char,std::char_traits<char>,std::allocator<char> >::erase
PUBLIC	?size@?$basic_string@DU?$char_traits@D@std@@V?$allocator@D@2@@std@@QBEIXZ ; std::basic_string<char,std::char_traits<char>,std::allocator<char> >::size
PUBLIC	?max_size@?$basic_string@DU?$char_traits@D@std@@V?$allocator@D@2@@std@@QBEIXZ ; std::basic_string<char,std::char_traits<char>,std::allocator<char> >::max_size
PUBLIC	?_Copy@?$basic_string@DU?$char_traits@D@std@@V?$allocator@D@2@@std@@QAEXII@Z ; std::basic_string<char,std::char_traits<char>,std::allocator<char> >::_Copy
PUBLIC	?_Eos@?$basic_string@DU?$char_traits@D@std@@V?$allocator@D@2@@std@@QAEXI@Z ; std::basic_string<char,std::char_traits<char>,std::allocator<char> >::_Eos
PUBLIC	?_Grow@?$basic_string@DU?$char_traits@D@std@@V?$allocator@D@2@@std@@QAE_NI_N@Z ; std::basic_string<char,std::char_traits<char>,std::allocator<char> >::_Grow
PUBLIC	?_Inside@?$basic_string@DU?$char_traits@D@std@@V?$allocator@D@2@@std@@QAE_NPBD@Z ; std::basic_string<char,std::char_traits<char>,std::allocator<char> >::_Inside
PUBLIC	?_Tidy@?$basic_string@DU?$char_traits@D@std@@V?$allocator@D@2@@std@@QAEX_NI@Z ; std::basic_string<char,std::char_traits<char>,std::allocator<char> >::_Tidy
PUBLIC	?_Xlen@?$basic_string@DU?$char_traits@D@std@@V?$allocator@D@2@@std@@QBEXXZ ; std::basic_string<char,std::char_traits<char>,std::allocator<char> >::_Xlen
PUBLIC	?_Xran@?$basic_string@DU?$char_traits@D@std@@V?$allocator@D@2@@std@@QBEXXZ ; std::basic_string<char,std::char_traits<char>,std::allocator<char> >::_Xran
PUBLIC	??B?$VuBin@VVuSessionEntity@@@@QBE_NXZ		; VuBin<VuSessionEntity>::operator bool
PUBLIC	??C?$VuBin@VVuSessionEntity@@@@QBEPAVVuSessionEntity@@XZ ; VuBin<VuSessionEntity>::operator->
PUBLIC	?get@?$VuBin@VVuSessionEntity@@@@QBEPAVVuSessionEntity@@XZ ; VuBin<VuSessionEntity>::get
PUBLIC	?IsSetFalcFlag@FalconEntity@@QAEHH@Z		; FalconEntity::IsSetFalcFlag
PUBLIC	?IsPlayer@FalconEntity@@QAEHXZ			; FalconEntity::IsPlayer
PUBLIC	?mlSinCos@@YAXPAUmlTrig@@M@Z			; mlSinCos
PUBLIC	?checked_atan2@@YANNN@Z				; checked_atan2
PUBLIC	?GetWPAction@WayPointClass@@QAEHXZ		; WayPointClass::GetWPAction
PUBLIC	?GetNextWP@WayPointClass@@QAEPAV1@XZ		; WayPointClass::GetNextWP
PUBLIC	?GetPrevWP@WayPointClass@@QAEPAV1@XZ		; WayPointClass::GetPrevWP
PUBLIC	?GetWPDepartureTime@WayPointClass@@QAEKXZ	; WayPointClass::GetWPDepartureTime
PUBLIC	?GetRunwayStats@ATCBrain@@QAEPAUrunwayStatsStruct@@XZ ; ATCBrain::GetRunwayStats
PUBLIC	?MinDeagTime@ATCBrain@@QAEKXZ			; ATCBrain::MinDeagTime
PUBLIC	?IsAtFirstTaxipoint@DigitalBrain@@QAEHXZ	; DigitalBrain::IsAtFirstTaxipoint
PUBLIC	?Land@DigitalBrain@@IAEXXZ			; DigitalBrain::Land
PUBLIC	?TakeOff@DigitalBrain@@IAEXXZ			; DigitalBrain::TakeOff
PUBLIC	?PreFlight@DigitalBrain@@IAEHXZ			; DigitalBrain::PreFlight
PUBLIC	?QuickPreFlight@DigitalBrain@@IAEXXZ		; DigitalBrain::QuickPreFlight
PUBLIC	?TaxiBack@DigitalBrain@@IAEXPAVObjectiveClass@@@Z ; DigitalBrain::TaxiBack
PUBLIC	?CheckTaxiTrackPoint@DigitalBrain@@IAEPAVSimBaseClass@@XZ ; DigitalBrain::CheckTaxiTrackPoint
PUBLIC	?CheckPoint@DigitalBrain@@IAEPAVSimBaseClass@@MM@Z ; DigitalBrain::CheckPoint
PUBLIC	?CheckTaxiCollision@DigitalBrain@@IAEHXZ	; DigitalBrain::CheckTaxiCollision
PUBLIC	?SimpleGroundTrack@DigitalBrain@@IAEHM@Z	; DigitalBrain::SimpleGroundTrack
PUBLIC	?FindParkingSpot@DigitalBrain@@IAEXPAVObjectiveClass@@@Z ; DigitalBrain::FindParkingSpot
PUBLIC	?CloseToTrackPoint@DigitalBrain@@IAE_NXZ	; DigitalBrain::CloseToTrackPoint
PUBLIC	?AtFinalTaxiPoint@DigitalBrain@@IAE_NXZ		; DigitalBrain::AtFinalTaxiPoint
PUBLIC	?BestParkSpot@DigitalBrain@@IAEHPAVObjectiveClass@@@Z ; DigitalBrain::BestParkSpot
PUBLIC	?RandomStuff@DigitalBrain@@IAEXPAVSimBaseClass@@@Z ; DigitalBrain::RandomStuff
PUBLIC	?SetDebugLabel@DigitalBrain@@QAEXPAVObjectiveClass@@@Z ; DigitalBrain::SetDebugLabel
PUBLIC	?CalcWaitTime@DigitalBrain@@QAEHPAVATCBrain@@@Z	; DigitalBrain::CalcWaitTime
PUBLIC	?ResetTaxiState@DigitalBrain@@QAEXXZ		; DigitalBrain::ResetTaxiState
PUBLIC	?SetTaxiPoint@DigitalBrain@@QAEXH@Z		; DigitalBrain::SetTaxiPoint
PUBLIC	?GetTaxiPoint@DigitalBrain@@QAEHXZ		; DigitalBrain::GetTaxiPoint
PUBLIC	?UpdateTaxipoint@DigitalBrain@@QAEXXZ		; DigitalBrain::UpdateTaxipoint
PUBLIC	?GetLeader@DigitalBrain@@QAEPAVAircraftClass@@XZ ; DigitalBrain::GetLeader
PUBLIC	?FindDesiredTaxiPoint@DigitalBrain@@QAEHKH@Z	; DigitalBrain::FindDesiredTaxiPoint
PUBLIC	?FindDesiredTaxiPoint@DigitalBrain@@QAEHK@Z	; DigitalBrain::FindDesiredTaxiPoint
PUBLIC	?SetTrackPoint@DigitalBrain@@QAEXMM@Z		; DigitalBrain::SetTrackPoint
PUBLIC	?SetTrackPoint@DigitalBrain@@QAEXMMM@Z		; DigitalBrain::SetTrackPoint
PUBLIC	?ChooseNextPoint@DigitalBrain@@QAEXPAVObjectiveClass@@@Z ; DigitalBrain::ChooseNextPoint
PUBLIC	?DealWithBlocker@DigitalBrain@@QAEXPAVSimBaseClass@@PAVObjectiveClass@@@Z ; DigitalBrain::DealWithBlocker
PUBLIC	?WingmanTakeRunway@DigitalBrain@@QAEHPAVObjectiveClass@@PAVAircraftClass@@1@Z ; DigitalBrain::WingmanTakeRunway
PUBLIC	?WingmanTakeRunway@DigitalBrain@@QAEHPAVObjectiveClass@@@Z ; DigitalBrain::WingmanTakeRunway
PUBLIC	?OffsetTrackPoint@DigitalBrain@@QAEXMH@Z	; DigitalBrain::OffsetTrackPoint
PUBLIC	?SetATCFlag@DigitalBrain@@QAEXH@Z		; DigitalBrain::SetATCFlag
PUBLIC	?ClearATCFlag@DigitalBrain@@QAEXH@Z		; DigitalBrain::ClearATCFlag
PUBLIC	?IsSetATC@DigitalBrain@@QAEHH@Z			; DigitalBrain::IsSetATC
PUBLIC	?ResetATC@DigitalBrain@@QAEXXZ			; DigitalBrain::ResetATC
PUBLIC	?SendATCMsg@DigitalBrain@@QAEXW4AtcStatusEnum@@@Z ; DigitalBrain::SendATCMsg
PUBLIC	?SetATCStatus@DigitalBrain@@QAEXW4AtcStatusEnum@@@Z ; DigitalBrain::SetATCStatus
PUBLIC	?ATCStatus@DigitalBrain@@QAE?AW4AtcStatusEnum@@XZ ; DigitalBrain::ATCStatus
PUBLIC	?RwTime@DigitalBrain@@QAEKXZ			; DigitalBrain::RwTime
PUBLIC	?CalculateNextTurnDistance@DigitalBrain@@QAEMXZ	; DigitalBrain::CalculateNextTurnDistance
PUBLIC	?ReadyToGo@DigitalBrain@@QAEHXZ			; DigitalBrain::ReadyToGo
PUBLIC	?CalculateTaxiSpeed@DigitalBrain@@QAEMM@Z	; DigitalBrain::CalculateTaxiSpeed
PUBLIC	?GetGame@FalconSessionEntity@@QAEPAVFalconGameEntity@@XZ ; FalconSessionEntity::GetGame
PUBLIC	?get@?$VuBin@VCampBaseClass@@@@QBEPAVCampBaseClass@@XZ ; VuBin<CampBaseClass>::get
PUBLIC	?IsSetFlag@SimBaseClass@@QBEHH@Z		; SimBaseClass::IsSetFlag
PUBLIC	?GetCampaignObject@SimBaseClass@@QAEPAVCampBaseClass@@XZ ; SimBaseClass::GetCampaignObject
PUBLIC	?SetSwitch@SimMoverClass@@QAEXHH@Z		; SimMoverClass::SetSwitch
PUBLIC	?GetSwitch@SimMoverClass@@QAEHH@Z		; SimMoverClass::GetSwitch
PUBLIC	?IsAcStatusBitsSet@AircraftClass@@QBE_NH@Z	; AircraftClass::IsAcStatusBitsSet
PUBLIC	?ExtlOn@AircraftClass@@QAEXW4ExtlLightFlags@1@@Z ; AircraftClass::ExtlOn
PUBLIC	?ExtlState@AircraftClass@@QBEHW4ExtlLightFlags@1@@Z ; AircraftClass::ExtlState
PUBLIC	?INSOn@AircraftClass@@QAEXW4INSAlignFlags@1@@Z	; AircraftClass::INSOn
PUBLIC	?INSOff@AircraftClass@@QAEXW4INSAlignFlags@1@@Z	; AircraftClass::INSOff
PUBLIC	?INSState@AircraftClass@@QAEHW4INSAlignFlags@1@@Z ; AircraftClass::INSState
PUBLIC	?AutopilotType@AircraftClass@@QAE?AW4AutoPilotType@1@XZ ; AircraftClass::AutopilotType
PUBLIC	?RaltOn@AircraftClass@@QAEXXZ			; AircraftClass::RaltOn
PUBLIC	?PowerOn@AircraftClass@@QAEXW4AvionicsPowerFlags@1@@Z ; AircraftClass::PowerOn
PUBLIC	?PowerSwitchOn@AircraftClass@@QAEHW4AvionicsPowerFlags@1@@Z ; AircraftClass::PowerSwitchOn
PUBLIC	?MainPower@AircraftClass@@QAE?AW4MainPowerType@1@XZ ; AircraftClass::MainPower
PUBLIC	?SetPGM@AircraftClass@@QAEXW4EWSPGMSwitch@1@@Z	; AircraftClass::SetPGM
PUBLIC	?DBrain@AircraftClass@@QAEPAVDigitalBrain@@XZ	; AircraftClass::DBrain
PUBLIC	?GetComponents@CampBaseClass@@QBEPAVTailInsertList@@XZ ; CampBaseClass::GetComponents
PUBLIC	?GetPlayerEntity@SimulationDriver@@QBEPAVSimMoverClass@@XZ ; SimulationDriver::GetPlayerEntity
PUBLIC	?GetFirstUnitWP@UnitClass@@QAEPAVWayPointClass@@XZ ; UnitClass::GetFirstUnitWP
PUBLIC	?GetNumberEngines@AirframeClass@@QAEHXZ		; AirframeClass::GetNumberEngines
PUBLIC	?HasDragChute@AirframeClass@@QAE_NXZ		; AirframeClass::HasDragChute
PUBLIC	?DragChuteMaxSpeed@AirframeClass@@QAEMXZ	; AirframeClass::DragChuteMaxSpeed
PUBLIC	?HasThrRev@AirframeClass@@QAEHXZ		; AirframeClass::HasThrRev
PUBLIC	?IsEngineFlag@AirframeClass@@QAEHW4EngineFlags@1@@Z ; AirframeClass::IsEngineFlag
PUBLIC	?SetEngineFlag@AirframeClass@@QAEXW4EngineFlags@1@@Z ; AirframeClass::SetEngineFlag
PUBLIC	?ClearEngineFlag@AirframeClass@@QAEXW4EngineFlags@1@@Z ; AirframeClass::ClearEngineFlag
PUBLIC	?SetFuelSwitch@AirframeClass@@QAEXW4FuelSwitch@1@@Z ; AirframeClass::SetFuelSwitch
PUBLIC	?SetFuelPump@AirframeClass@@QAEXW4FuelPump@1@@Z	; AirframeClass::SetFuelPump
PUBLIC	?SetAirSource@AirframeClass@@QAEXW4AirSource@1@@Z ; AirframeClass::SetAirSource
PUBLIC	?SetThrotl@AirframeClass@@QAEXM@Z		; AirframeClass::SetThrotl
PUBLIC	?MinVcas@AirframeClass@@QAEMXZ			; AirframeClass::MinVcas
PUBLIC	?MaxVcas@AirframeClass@@QAEMXZ			; AirframeClass::MaxVcas
PUBLIC	?CornerVcas@AirframeClass@@QAEMXZ		; AirframeClass::CornerVcas
PUBLIC	?Fuel@AirframeClass@@QAEMXZ			; AirframeClass::Fuel
PUBLIC	?SetFlag@AirframeClass@@QAEXH@Z			; AirframeClass::SetFlag
PUBLIC	?ClearFlag@AirframeClass@@QAEXH@Z		; AirframeClass::ClearFlag
PUBLIC	?IsSet@AirframeClass@@QBEHH@Z			; AirframeClass::IsSet
PUBLIC	?GetSimpleMode@AirframeClass@@QAEHXZ		; AirframeClass::GetSimpleMode
PUBLIC	?GetLandingAoASpd@AirframeClass@@QAEMXZ		; AirframeClass::GetLandingAoASpd
PUBLIC	??0id@locale@std@@QAE@I@Z			; std::locale::id::id
PUBLIC	?generic_category@std@@YAABVerror_category@1@XZ	; std::generic_category
PUBLIC	?system_category@std@@YAABVerror_category@1@XZ	; std::system_category
PUBLIC	??0error_category@std@@QAE@XZ			; std::error_category::error_category
PUBLIC	??1error_category@std@@UAE@XZ			; std::error_category::~error_category
PUBLIC	?default_error_condition@error_category@std@@UBE?AVerror_condition@2@H@Z ; std::error_category::default_error_condition
PUBLIC	?equivalent@error_category@std@@UBE_NHABVerror_condition@2@@Z ; std::error_category::equivalent
PUBLIC	?equivalent@error_category@std@@UBE_NABVerror_code@2@H@Z ; std::error_category::equivalent
PUBLIC	??8error_category@std@@QBE_NABV01@@Z		; std::error_category::operator==
PUBLIC	??_Gerror_category@std@@UAEPAXI@Z		; std::error_category::`scalar deleting destructor'
PUBLIC	?value@error_code@std@@QBEHXZ			; std::error_code::value
PUBLIC	?category@error_code@std@@QBEABVerror_category@2@XZ ; std::error_code::category
PUBLIC	??0error_condition@std@@QAE@HABVerror_category@1@@Z ; std::error_condition::error_condition
PUBLIC	?value@error_condition@std@@QBEHXZ		; std::error_condition::value
PUBLIC	?category@error_condition@std@@QBEABVerror_category@2@XZ ; std::error_condition::category
PUBLIC	??8error_condition@std@@QBE_NABV01@@Z		; std::error_condition::operator==
PUBLIC	??0_Generic_error_category@std@@QAE@XZ		; std::_Generic_error_category::_Generic_error_category
PUBLIC	?name@_Generic_error_category@std@@UBEPBDXZ	; std::_Generic_error_category::name
PUBLIC	?message@_Generic_error_category@std@@UBE?AV?$basic_string@DU?$char_traits@D@std@@V?$allocator@D@2@@2@H@Z ; std::_Generic_error_category::message
PUBLIC	??1_Generic_error_category@std@@UAE@XZ		; std::_Generic_error_category::~_Generic_error_category
PUBLIC	??_G_Generic_error_category@std@@UAEPAXI@Z	; std::_Generic_error_category::`scalar deleting destructor'
PUBLIC	??0_Iostream_error_category@std@@QAE@XZ		; std::_Iostream_error_category::_Iostream_error_category
PUBLIC	?name@_Iostream_error_category@std@@UBEPBDXZ	; std::_Iostream_error_category::name
PUBLIC	?message@_Iostream_error_category@std@@UBE?AV?$basic_string@DU?$char_traits@D@std@@V?$allocator@D@2@@2@H@Z ; std::_Iostream_error_category::message
PUBLIC	??1_Iostream_error_category@std@@UAE@XZ		; std::_Iostream_error_category::~_Iostream_error_category
PUBLIC	??_G_Iostream_error_category@std@@UAEPAXI@Z	; std::_Iostream_error_category::`scalar deleting destructor'
PUBLIC	??0_System_error_category@std@@QAE@XZ		; std::_System_error_category::_System_error_category
PUBLIC	?name@_System_error_category@std@@UBEPBDXZ	; std::_System_error_category::name
PUBLIC	?message@_System_error_category@std@@UBE?AV?$basic_string@DU?$char_traits@D@std@@V?$allocator@D@2@@2@H@Z ; std::_System_error_category::message
PUBLIC	?default_error_condition@_System_error_category@std@@UBE?AVerror_condition@2@H@Z ; std::_System_error_category::default_error_condition
PUBLIC	??1_System_error_category@std@@UAE@XZ		; std::_System_error_category::~_System_error_category
PUBLIC	??_G_System_error_category@std@@UAEPAXI@Z	; std::_System_error_category::`scalar deleting destructor'
PUBLIC	?GetStartFlag@PlayerOptionsClass@@QAE?AW4StartFlag@1@XZ ; PlayerOptionsClass::GetStartFlag
PUBLIC	?Radius@DrawableObject@@QBEMXZ			; DrawableObject::Radius
PUBLIC	?LabelColor@DrawableBSP@@QAEKXZ			; DrawableBSP::LabelColor
PUBLIC	?SetMasterArm@SMSBaseClass@@QAEXW4MasterArmState@1@@Z ; SMSBaseClass::SetMasterArm
PUBLIC	?SetICPFlag@ICPClass@@QAEXH@Z			; ICPClass::SetICPFlag
PUBLIC	?SetICPSecondaryMode@ICPClass@@QAEXH@Z		; ICPClass::SetICPSecondaryMode
PUBLIC	?GetLightLevel@CTimeOfDay@@QAEMXZ		; CTimeOfDay::GetLightLevel
PUBLIC	?GenerateFastRandom@@YAJXZ			; GenerateFastRandom
PUBLIC	?PRANDFloatPos@@YAMXZ				; PRANDFloatPos
PUBLIC	??$construct@PADAAPAD@?$_Wrap_alloc@V?$allocator@D@std@@@std@@QAEXPAPADAAPAD@Z ; std::_Wrap_alloc<std::allocator<char> >::construct<char *,char * &>
PUBLIC	??$destroy@PAD@?$_Wrap_alloc@V?$allocator@D@std@@@std@@QAEXPAPAD@Z ; std::_Wrap_alloc<std::allocator<char> >::destroy<char *>
PUBLIC	??$addressof@D@std@@YAPADAAD@Z			; std::addressof<char>
PUBLIC	??$_Allocate@D@std@@YAPADIPAD@Z			; std::_Allocate<char>
PUBLIC	??$forward@AAPAD@std@@YAAAPADAAPAD@Z		; std::forward<char * &>
PUBLIC	??$construct@PADAAPAD@?$allocator_traits@V?$allocator@D@std@@@std@@SAXAAV?$allocator@D@1@PAPADAAPAD@Z ; std::allocator_traits<std::allocator<char> >::construct<char *,char * &>
PUBLIC	??$destroy@PAD@?$allocator_traits@V?$allocator@D@std@@@std@@SAXAAV?$allocator@D@1@PAPAD@Z ; std::allocator_traits<std::allocator<char> >::destroy<char *>
PUBLIC	??$construct@PADAAPAD@?$allocator@D@std@@QAEXPAPADAAPAD@Z ; std::allocator<char>::construct<char *,char * &>
PUBLIC	??$destroy@PAD@?$allocator@D@std@@QAEXPAPAD@Z	; std::allocator<char>::destroy<char *>
PUBLIC	??_7error_category@std@@6B@			; std::error_category::`vftable'
PUBLIC	??_7_Generic_error_category@std@@6B@		; std::_Generic_error_category::`vftable'
PUBLIC	??_C@_07DCLBNMLN@generic?$AA@			; `string'
PUBLIC	??_C@_0O@BFJCFAAK@unknown?5error?$AA@		; `string'
PUBLIC	??_7_Iostream_error_category@std@@6B@		; std::_Iostream_error_category::`vftable'
PUBLIC	??_C@_08LLGCOLLL@iostream?$AA@			; `string'
PUBLIC	??_C@_0BG@PADBLCHM@iostream?5stream?5error?$AA@	; `string'
PUBLIC	??_7_System_error_category@std@@6B@		; std::_System_error_category::`vftable'
PUBLIC	??_C@_06FHFOAHML@system?$AA@			; `string'
PUBLIC	?_Generic_object@?$_Error_objects@H@std@@2V_Generic_error_category@2@A ; std::_Error_objects<int>::_Generic_object
PUBLIC	?_Iostream_object@?$_Error_objects@H@std@@2V_Iostream_error_category@2@A ; std::_Error_objects<int>::_Iostream_object
PUBLIC	?_System_object@?$_Error_objects@H@std@@2V_System_error_category@2@A ; std::_Error_objects<int>::_System_object
PUBLIC	?id@?$num_put@DV?$back_insert_iterator@V?$basic_string@DU?$char_traits@D@std@@V?$allocator@D@2@@std@@@std@@@std@@2V0locale@2@A ; std::num_put<char,std::back_insert_iterator<std::basic_string<char,std::char_traits<char>,std::allocator<char> > > >::id
PUBLIC	?id@?$num_put@_WV?$back_insert_iterator@V?$basic_string@_WU?$char_traits@_W@std@@V?$allocator@_W@2@@std@@@std@@@std@@2V0locale@2@A ; std::num_put<wchar_t,std::back_insert_iterator<std::basic_string<wchar_t,std::char_traits<wchar_t>,std::allocator<wchar_t> > > >::id
PUBLIC	?LastRandom@?1??GenerateFastRandom@@YAJXZ@4JA	; `GenerateFastRandom'::`2'::LastRandom
PUBLIC	??_C@_0CA@GLBKACGL@Speed?3?5?$CFd?5kts?0?5PointDist?3?5?$CFd?5ft?$AA@ ; `string'
PUBLIC	??_C@_0BC@OBEDLAHJ@TaxiPt?5?$CFd?0?5type?3?5?$AA@ ; `string'
PUBLIC	??_C@_0M@PPBOKGPO@SmallParkPt?$AA@		; `string'
PUBLIC	??_C@_0M@NKALPJKJ@LargeParkPt?$AA@		; `string'
PUBLIC	??_C@_09GFOPPOAM@TakeoffPt?$AA@			; `string'
PUBLIC	??_C@_08PJMGDEDN@RunwayPt?$AA@			; `string'
PUBLIC	??_C@_06NOMCLABP@TaxiPt?$AA@			; `string'
PUBLIC	??_C@_0L@ENOFFMFD@CritTaxiPt?$AA@		; `string'
PUBLIC	??_C@_0N@COEEMFNJ@TakeRunwayPt?$AA@		; `string'
PUBLIC	?id@?$numpunct@D@std@@2V0locale@2@A		; std::numpunct<char>::id
PUBLIC	?id@?$numpunct@_W@std@@2V0locale@2@A		; std::numpunct<wchar_t>::id
PUBLIC	??_C@_0BI@CFPLBAOH@invalid?5string?5position?$AA@ ; `string'
PUBLIC	??_C@_0BA@JFNIOLAK@string?5too?5long?$AA@	; `string'
PUBLIC	??_R4error_category@std@@6B@			; std::error_category::`RTTI Complete Object Locator'
PUBLIC	??_R0?AVerror_category@std@@@8			; std::error_category `RTTI Type Descriptor'
PUBLIC	??_R3error_category@std@@8			; std::error_category::`RTTI Class Hierarchy Descriptor'
PUBLIC	??_R2error_category@std@@8			; std::error_category::`RTTI Base Class Array'
PUBLIC	??_R1A@?0A@EA@error_category@std@@8		; std::error_category::`RTTI Base Class Descriptor at (0,-1,0,64)'
PUBLIC	??_R4_Generic_error_category@std@@6B@		; std::_Generic_error_category::`RTTI Complete Object Locator'
PUBLIC	??_R0?AV_Generic_error_category@std@@@8		; std::_Generic_error_category `RTTI Type Descriptor'
PUBLIC	??_R3_Generic_error_category@std@@8		; std::_Generic_error_category::`RTTI Class Hierarchy Descriptor'
PUBLIC	??_R2_Generic_error_category@std@@8		; std::_Generic_error_category::`RTTI Base Class Array'
PUBLIC	??_R1A@?0A@EA@_Generic_error_category@std@@8	; std::_Generic_error_category::`RTTI Base Class Descriptor at (0,-1,0,64)'
PUBLIC	??_R4_Iostream_error_category@std@@6B@		; std::_Iostream_error_category::`RTTI Complete Object Locator'
PUBLIC	??_R0?AV_Iostream_error_category@std@@@8	; std::_Iostream_error_category `RTTI Type Descriptor'
PUBLIC	??_R3_Iostream_error_category@std@@8		; std::_Iostream_error_category::`RTTI Class Hierarchy Descriptor'
PUBLIC	??_R2_Iostream_error_category@std@@8		; std::_Iostream_error_category::`RTTI Base Class Array'
PUBLIC	??_R1A@?0A@EA@_Iostream_error_category@std@@8	; std::_Iostream_error_category::`RTTI Base Class Descriptor at (0,-1,0,64)'
PUBLIC	??_R4_System_error_category@std@@6B@		; std::_System_error_category::`RTTI Complete Object Locator'
PUBLIC	??_R0?AV_System_error_category@std@@@8		; std::_System_error_category `RTTI Type Descriptor'
PUBLIC	??_R3_System_error_category@std@@8		; std::_System_error_category::`RTTI Class Hierarchy Descriptor'
PUBLIC	??_R2_System_error_category@std@@8		; std::_System_error_category::`RTTI Base Class Array'
PUBLIC	??_R1A@?0A@EA@_System_error_category@std@@8	; std::_System_error_category::`RTTI Base Class Descriptor at (0,-1,0,64)'
PUBLIC	__real@00000000
PUBLIC	__real@0000000000000000
PUBLIC	__real@392c987a
PUBLIC	__real@3c8efa34
PUBLIC	__real@3d4ccccd
PUBLIC	__real@3d56a98a
PUBLIC	__real@3db2b8c1
PUBLIC	__real@3dcccccd
PUBLIC	__real@3e2cd59c
PUBLIC	__real@3e32b8c1
PUBLIC	__real@3e4ccccd
PUBLIC	__real@3e99999a
PUBLIC	__real@3ecccccd
PUBLIC	__real@3f000000
PUBLIC	__real@3f060a91
PUBLIC	__real@3f0ccccd
PUBLIC	__real@3f19999a
PUBLIC	__real@3f266666
PUBLIC	__real@3f30a3d7
PUBLIC	__real@3f333333
PUBLIC	__real@3f400000
PUBLIC	__real@3f490fd9
PUBLIC	__real@3f4ccccd
PUBLIC	__real@3f5f66f1
PUBLIC	__real@3f7f064f
PUBLIC	__real@3f7f7cee
PUBLIC	__real@3f800000
PUBLIC	__real@3f8ccccd
PUBLIC	__real@3f99999a
PUBLIC	__real@3f9c61a9
PUBLIC	__real@3fa00000
PUBLIC	__real@3fb2b8c1
PUBLIC	__real@3fc00000
PUBLIC	__real@3fc90fd9
PUBLIC	__real@3fd80b03
PUBLIC	__real@3ff921fb54442d18
PUBLIC	__real@40000000
PUBLIC	__real@400921fb54442d18
PUBLIC	__real@40400000
PUBLIC	__real@40490fdb
PUBLIC	__real@4050e0dc3c000000
PUBLIC	__real@40a00000
PUBLIC	__real@40c90fd9
PUBLIC	__real@40c90fdb
PUBLIC	__real@41000000
PUBLIC	__real@410706e2
PUBLIC	__real@41200000
PUBLIC	__real@41428963
PUBLIC	__real@41700000
PUBLIC	__real@418706e2
PUBLIC	__real@419c0000
PUBLIC	__real@41a00000
PUBLIC	__real@420706e2
PUBLIC	__real@42200000
PUBLIC	__real@42220842
PUBLIC	__real@42480000
PUBLIC	__real@424a8a53
PUBLIC	__real@426c4c0b
PUBLIC	__real@42700000
PUBLIC	__real@428706e2
PUBLIC	__real@42960000
PUBLIC	__real@42a00000
PUBLIC	__real@42a8c89a
PUBLIC	__real@42c80000
PUBLIC	__real@42ca8a53
PUBLIC	__real@42f00000
PUBLIC	__real@4328c89a
PUBLIC	__real@43480000
PUBLIC	__real@43870000
PUBLIC	__real@43960000
PUBLIC	__real@43c80000
PUBLIC	__real@43fa0000
PUBLIC	__real@447a0000
PUBLIC	__real@453b8000
PUBLIC	__real@45610000
PUBLIC	__real@457a0000
PUBLIC	__real@45bb8000
PUBLIC	__real@45c80000
PUBLIC	__real@46610000
PUBLIC	__real@468e6944
PUBLIC	__real@471c4000
PUBLIC	__real@476d5a1c
PUBLIC	__real@477fff00
PUBLIC	__real@48320395
PUBLIC	__real@48742400
PUBLIC	__real@4a095440
PUBLIC	__real@4a742400
PUBLIC	__real@4b095440
PUBLIC	__real@4b0cd705
PUBLIC	__real@4c0cd705
PUBLIC	__real@502bec79
PUBLIC	__real@50bd75c0
PUBLIC	__real@50eb3111
PUBLIC	__real@8000000000000000
PUBLIC	__real@bc8a1142
PUBLIC	__real@bf800000
PUBLIC	__real@bff921fb54442d18
PUBLIC	__real@c0490fdb
PUBLIC	__real@c1a00000
PUBLIC	__real@c2480000
PUBLIC	__real@c3480000
PUBLIC	__real@c4fa0000
PUBLIC	__real@c5bde1b0
PUBLIC	__xmm@41f00000000000000000000000000000
PUBLIC	__xmm@80000000800000008000000080000000
EXTRN	__purecall:PROC
EXTRN	??2@YAPAXI@Z:PROC				; operator new
EXTRN	??3@YAXPAX@Z:PROC				; operator delete
EXTRN	_atexit:PROC
EXTRN	_sprintf:PROC
EXTRN	_atan:PROC
EXTRN	_cos:PROC
EXTRN	_fabs:PROC
EXTRN	_sin:PROC
EXTRN	_rand:PROC
EXTRN	_memcpy:PROC
EXTRN	_strcat:PROC
EXTRN	_strlen:PROC
EXTRN	_memmove:PROC
EXTRN	?IsLocal@VuEntity@@QBEEXZ:PROC			; VuEntity::IsLocal
EXTRN	?_Xbad_alloc@std@@YAXXZ:PROC			; std::_Xbad_alloc
EXTRN	?_Xlength_error@std@@YAXPBD@Z:PROC		; std::_Xlength_error
EXTRN	?_Xout_of_range@std@@YAXPBD@Z:PROC		; std::_Xout_of_range
EXTRN	?Find@VuDatabase@@QBEPAVVuEntity@@VVU_ID@@@Z:PROC ; VuDatabase::Find
EXTRN	?Game@VuSessionEntity@@QAEPAVVuGameEntity@@XZ:PROC ; VuSessionEntity::Game
EXTRN	??0VuListIterator@@QAE@PAVVuLinkedList@@@Z:PROC	; VuListIterator::VuListIterator
EXTRN	??1VuListIterator@@UAE@XZ:PROC			; VuListIterator::~VuListIterator
EXTRN	?GetFirst@VuListIterator@@QAEPAVVuEntity@@XZ:PROC ; VuListIterator::GetFirst
EXTRN	?GetNext@VuListIterator@@QAEPAVVuEntity@@XZ:PROC ; VuListIterator::GetNext
EXTRN	??0VuGridIterator@@QAE@PAVVuGridTree@@MMM@Z:PROC ; VuGridIterator::VuGridIterator
EXTRN	??1VuGridIterator@@UAE@XZ:PROC			; VuGridIterator::~VuGridIterator
EXTRN	?GetFirst@VuGridIterator@@QAEPAVVuEntity@@XZ:PROC ; VuGridIterator::GetFirst
EXTRN	?GetNext@VuGridIterator@@QAEPAVVuEntity@@XZ:PROC ; VuGridIterator::GetNext
EXTRN	?GetLocation@FalconEntity@@QBEXPAF0@Z:PROC	; FalconEntity::GetLocation
EXTRN	?FalconSendMessage@@YAXPAVVuMessage@@H@Z:PROC	; FalconSendMessage
EXTRN	?Camp_GetCurrentTime@@YAKXZ:PROC		; Camp_GetCurrentTime
EXTRN	?GetLocation@WayPointClass@@QBEXPAM00@Z:PROC	; WayPointClass::GetLocation
EXTRN	?RequestEmerClearance@ATCBrain@@QAEXPAVAircraftClass@@@Z:PROC ; ATCBrain::RequestEmerClearance
EXTRN	?GetOppositeRunway@ATCBrain@@QAEHH@Z:PROC	; ATCBrain::GetOppositeRunway
EXTRN	?FindBestTakeoffRunway@ATCBrain@@QAEHH@Z:PROC	; ATCBrain::FindBestTakeoffRunway
EXTRN	?FindBestLandingRunway@ATCBrain@@QAEHPAVFalconEntity@@H@Z:PROC ; ATCBrain::FindBestLandingRunway
EXTRN	?FindAbortPt@ATCBrain@@QAEXPAVAircraftClass@@PAM11@Z:PROC ; ATCBrain::FindAbortPt
EXTRN	?FindTakeoffPt@ATCBrain@@QAEHPAVFlightClass@@HHPAM1@Z:PROC ; ATCBrain::FindTakeoffPt
EXTRN	?FindRunwayPt@ATCBrain@@QAEHPAVFlightClass@@HHPAM1@Z:PROC ; ATCBrain::FindRunwayPt
EXTRN	?FindFinalPt@ATCBrain@@QAEXPAVAircraftClass@@HPAM1@Z:PROC ; ATCBrain::FindFinalPt
EXTRN	?FindBasePt@ATCBrain@@QAE?AW4AtcStatusEnum@@PAVAircraftClass@@HMMPAM1@Z:PROC ; ATCBrain::FindBasePt
EXTRN	?FindFirstLegPt@ATCBrain@@QAE?AW4AtcStatusEnum@@PAVAircraftClass@@HKMMHPAM1@Z:PROC ; ATCBrain::FindFirstLegPt
EXTRN	?DetermineAngle@ATCBrain@@QAEMPAVAircraftClass@@HW4AtcStatusEnum@@@Z:PROC ; ATCBrain::DetermineAngle
EXTRN	?GetAltitude@ATCBrain@@QAEMPAVAircraftClass@@W4AtcStatusEnum@@@Z:PROC ; ATCBrain::GetAltitude
EXTRN	?CalculateMinMaxTime@ATCBrain@@QAEXPAVAircraftClass@@HW4AtcStatusEnum@@PAK2M@Z:PROC ; ATCBrain::CalculateMinMaxTime
EXTRN	?IsOnRunway@ATCBrain@@QAEHMM@Z:PROC		; ATCBrain::IsOnRunway
EXTRN	?IsOnRunway@ATCBrain@@QAEHPAVAircraftClass@@@Z:PROC ; ATCBrain::IsOnRunway
EXTRN	?IsOnRunway@ATCBrain@@QAEHH@Z:PROC		; ATCBrain::IsOnRunway
EXTRN	?UseSectionTakeoff@ATCBrain@@QAEHPAVFlightClass@@H@Z:PROC ; ATCBrain::UseSectionTakeoff
EXTRN	?CheckTaxiPointGlobal@@YAPAVSimBaseClass@@PAVAircraftClass@@MM@Z:PROC ; CheckTaxiPointGlobal
EXTRN	?Loiter@DigitalBrain@@IAEXXZ:PROC		; DigitalBrain::Loiter
EXTRN	?GoToCurrentWaypoint@DigitalBrain@@IAEXXZ:PROC	; DigitalBrain::GoToCurrentWaypoint
EXTRN	?SelectNextWaypoint@DigitalBrain@@IAEXXZ:PROC	; DigitalBrain::SelectNextWaypoint
EXTRN	?SelectGroundWeapon@DigitalBrain@@IAEXXZ:PROC	; DigitalBrain::SelectGroundWeapon
EXTRN	?SimpleTrack@DigitalBrain@@IAEXW4SimpleTrackMode@1@M@Z:PROC ; DigitalBrain::SimpleTrack
EXTRN	?SimpleTrackAzimuth@DigitalBrain@@IAEMMMM@Z:PROC ; DigitalBrain::SimpleTrackAzimuth
EXTRN	?SimpleGoToCurrentWaypoint@DigitalBrain@@IAEXXZ:PROC ; DigitalBrain::SimpleGoToCurrentWaypoint
EXTRN	?SimpleGroundTrackSpeed@DigitalBrain@@IAEMM@Z:PROC ; DigitalBrain::SimpleGroundTrackSpeed
EXTRN	?SetMaxRollDelta@DigitalBrain@@IAEXM@Z:PROC	; DigitalBrain::SetMaxRollDelta
EXTRN	?TrackPoint@DigitalBrain@@IAEMMM@Z:PROC		; DigitalBrain::TrackPoint
EXTRN	?TrackPointLanding@DigitalBrain@@IAEMM@Z:PROC	; DigitalBrain::TrackPointLanding
EXTRN	?MyWingman@DigitalBrain@@QAEPAVSimBaseClass@@XZ:PROC ; DigitalBrain::MyWingman
EXTRN	?AiRejoin@DigitalBrain@@AAEXPAVFalconWingmanMsg@@W4AiHint@1@@Z:PROC ; DigitalBrain::AiRejoin
EXTRN	?SetAcStatusBits@AircraftClass@@QAEXH@Z:PROC	; AircraftClass::SetAcStatusBits
EXTRN	?ClearAcStatusBits@AircraftClass@@QAEXH@Z:PROC	; AircraftClass::ClearAcStatusBits
EXTRN	?SwitchINSToAlign@AircraftClass@@QAEXXZ:PROC	; AircraftClass::SwitchINSToAlign
EXTRN	?SwitchINSToNav@AircraftClass@@QAEXXZ:PROC	; AircraftClass::SwitchINSToNav
EXTRN	?HomeAirbase@AircraftClass@@QAE?AVVU_ID@@XZ:PROC ; AircraftClass::HomeAirbase
EXTRN	?LandingAirbase@AircraftClass@@QAE?AVVU_ID@@XZ:PROC ; AircraftClass::LandingAirbase
EXTRN	?DivertAirbase@AircraftClass@@QAE?AVVU_ID@@XZ:PROC ; AircraftClass::DivertAirbase
EXTRN	?PreFlight@AircraftClass@@QAEXXZ:PROC		; AircraftClass::PreFlight
EXTRN	?IncMainPower@AircraftClass@@QAEXXZ:PROC	; AircraftClass::IncMainPower
EXTRN	?DecMainPower@AircraftClass@@QAEXXZ:PROC	; AircraftClass::DecMainPower
EXTRN	?GetComponentIndex@CampBaseClass@@QAEHPAVVuEntity@@@Z:PROC ; CampBaseClass::GetComponentIndex
EXTRN	?GetComponentNumber@CampBaseClass@@QAEPAVSimBaseClass@@H@Z:PROC ; CampBaseClass::GetComponentNumber
EXTRN	?NumberOfComponents@CampBaseClass@@QAEHXZ:PROC	; CampBaseClass::NumberOfComponents
EXTRN	?GetTotalVehicles@UnitClass@@QAEHXZ:PROC	; UnitClass::GetTotalVehicles
EXTRN	?GetCurrentUnitWP@UnitClass@@QBEPAVWayPointClass@@XZ:PROC ; UnitClass::GetCurrentUnitWP
EXTRN	?FindNearbyAirbase@@YAPAVObjectiveClass@@FF@Z:PROC ; FindNearbyAirbase
EXTRN	?FindNearestFriendlyRunway@@YAPAVObjectiveClass@@EFF@Z:PROC ; FindNearestFriendlyRunway
EXTRN	?GridToSim@@YAMF@Z:PROC				; GridToSim
EXTRN	?ConvertSimToGrid@@YAXPAUvector@@PAF1@Z:PROC	; ConvertSimToGrid
EXTRN	??0FalconRadioChatterMessage@@QAE@VVU_ID@@PAVVuTargetEntity@@E@Z:PROC ; FalconRadioChatterMessage::FalconRadioChatterMessage
EXTRN	?ConvertWingNumberToCallNumber@@YAFH@Z:PROC	; ConvertWingNumberToCallNumber
EXTRN	??0FalconATCMessage@@QAE@VVU_ID@@PAVVuTargetEntity@@E@Z:PROC ; FalconATCMessage::FalconATCMessage
EXTRN	?TEFClose@AirframeClass@@QAEXXZ:PROC		; AirframeClass::TEFClose
EXTRN	?TEFTakeoff@AirframeClass@@QAEXXZ:PROC		; AirframeClass::TEFTakeoff
EXTRN	?LEFClose@AirframeClass@@QAEXXZ:PROC		; AirframeClass::LEFClose
EXTRN	?LEFTakeoff@AirframeClass@@QAEXXZ:PROC		; AirframeClass::LEFTakeoff
EXTRN	?CanopyToggle@AirframeClass@@QAEXXZ:PROC	; AirframeClass::CanopyToggle
EXTRN	?JfsEngineStart@AirframeClass@@QAEXXZ:PROC	; AirframeClass::JfsEngineStart
EXTRN	?CalcDesSpeed@AirframeClass@@QAEMM@Z:PROC	; AirframeClass::CalcDesSpeed
EXTRN	?CalcTASfromCAS@AirframeClass@@QAEMM@Z:PROC	; AirframeClass::CalcTASfromCAS
EXTRN	?GetParkType@AirframeClass@@QAEHXZ:PROC		; AirframeClass::GetParkType
EXTRN	?GetTaxiPosition@@YAHHH@Z:PROC			; GetTaxiPosition
EXTRN	?GetFirstPt@@YAHH@Z:PROC			; GetFirstPt
EXTRN	?GetNextPt@@YAHH@Z:PROC				; GetNextPt
EXTRN	?GetNextTaxiPt@@YAHH@Z:PROC			; GetNextTaxiPt
EXTRN	?GetNextPtLoop@@YAHH@Z:PROC			; GetNextPtLoop
EXTRN	?GetPrevTaxiPt@@YAHH@Z:PROC			; GetPrevTaxiPt
EXTRN	?GetPrevPtLoop@@YAHH@Z:PROC			; GetPrevPtLoop
EXTRN	?TranslatePointData@@YAXPAVCampBaseClass@@HPAM1@Z:PROC ; TranslatePointData
EXTRN	?GetQueue@@YAHH@Z:PROC				; GetQueue
EXTRN	?GetNextParkTypePt@@YAHHH@Z:PROC		; GetNextParkTypePt
EXTRN	?GetPilotVoiceID@FlightClass@@QAEEH@Z:PROC	; FlightClass::GetPilotVoiceID
EXTRN	?RegroupAircraft@@YAXPAVAircraftClass@@@Z:PROC	; RegroupAircraft
EXTRN	??_Eerror_category@std@@UAEPAXI@Z:PROC		; std::error_category::`vector deleting destructor'
EXTRN	?_Syserror_map@std@@YAPBDH@Z:PROC		; std::_Syserror_map
EXTRN	?_Winerror_map@std@@YAPBDH@Z:PROC		; std::_Winerror_map
EXTRN	??_E_Generic_error_category@std@@UAEPAXI@Z:PROC	; std::_Generic_error_category::`vector deleting destructor'
EXTRN	??_E_Iostream_error_category@std@@UAEPAXI@Z:PROC ; std::_Iostream_error_category::`vector deleting destructor'
EXTRN	??_E_System_error_category@std@@UAEPAXI@Z:PROC	; std::_System_error_category::`vector deleting destructor'
EXTRN	?GetGroundLevel@OTWDriverClass@@QAEMMMPAUTpoint@@@Z:PROC ; OTWDriverClass::GetGroundLevel
EXTRN	?GetMEA@TMap@@QAEMMM@Z:PROC			; TMap::GetMEA
EXTRN	?FindSensor@@YAPAVSensorClass@@PAVSimMoverClass@@H@Z:PROC ; FindSensor
EXTRN	?ClearStrings@ICPClass@@QAEXXZ:PROC		; ICPClass::ClearStrings
EXTRN	?LeaveCNI@ICPClass@@QAEXXZ:PROC			; ICPClass::LeaveCNI
EXTRN	?ChangeToCNI@ICPClass@@QAEXXZ:PROC		; ICPClass::ChangeToCNI
EXTRN	?InitialiseInstruments@CockpitManager@@QAEXXZ:PROC ; CockpitManager::InitialiseInstruments
EXTRN	@__security_check_cookie@4:PROC
EXTRN	__CxxThrowException@8:PROC
EXTRN	___CxxFrameHandler3:PROC
EXTRN	?vuDatabase@@3PAVVuDatabase@@A:DWORD		; vuDatabase
EXTRN	?vuLocalSessionEntity@@3V?$VuBin@VVuSessionEntity@@@@A:DWORD ; vuLocalSessionEntity
EXTRN	?SimLibMajorFrameTime@@3MA:DWORD		; SimLibMajorFrameTime
EXTRN	?SimLibElapsedTime@@3KA:DWORD			; SimLibElapsedTime
EXTRN	??_7type_info@@6B@:QWORD			; type_info::`vftable'
EXTRN	?PtHeaderDataTable@@3PAUPtHeaderDataType@@A:DWORD ; PtHeaderDataTable
EXTRN	?PtDataTable@@3PAUPtDataType@@A:DWORD		; PtDataTable
EXTRN	?RealUnitProxList@@3PAVVuGridTree@@A:DWORD	; RealUnitProxList
EXTRN	?SimDriver@@3VSimulationDriver@@A:BYTE		; SimDriver
EXTRN	?PlayerOptions@@3VPlayerOptionsClass@@A:BYTE	; PlayerOptions
EXTRN	?OTWDriver@@3VOTWDriverClass@@A:BYTE		; OTWDriver
EXTRN	?TheMap@@3VTMap@@A:BYTE				; TheMap
EXTRN	?TheHud@@3PAVHudClass@@A:DWORD			; TheHud
EXTRN	?TheTimeOfDay@@3VCTimeOfDay@@A:BYTE		; TheTimeOfDay
EXTRN	?gameCompressionRatio@@3HA:DWORD		; gameCompressionRatio
EXTRN	?g_nReagTimer@@3HA:DWORD			; g_nReagTimer
EXTRN	?g_nShowDebugLabels@@3HA:DWORD			; g_nShowDebugLabels
EXTRN	?g_fTaxiEarly@@3MA:DWORD			; g_fTaxiEarly
EXTRN	?g_nTaxiLaunchTime@@3HA:DWORD			; g_nTaxiLaunchTime
EXTRN	?g_bMPFix@@3_NA:BYTE				; g_bMPFix
EXTRN	___security_cookie:DWORD
EXTRN	__fltused:DWORD
_BSS	SEGMENT
_piecewise_construct DB 01H DUP (?)
_allocator_arg DB 01H DUP (?)
_BSS	ENDS
;	COMDAT ?_Generic_object@?$_Error_objects@H@std@@2V_Generic_error_category@2@A
_BSS	SEGMENT
?_Generic_object@?$_Error_objects@H@std@@2V_Generic_error_category@2@A DD 01H DUP (?) ; std::_Error_objects<int>::_Generic_object
_BSS	ENDS
;	COMDAT ?_Iostream_object@?$_Error_objects@H@std@@2V_Iostream_error_category@2@A
_BSS	SEGMENT
?_Iostream_object@?$_Error_objects@H@std@@2V_Iostream_error_category@2@A DD 01H DUP (?) ; std::_Error_objects<int>::_Iostream_object
_BSS	ENDS
;	COMDAT ?_System_object@?$_Error_objects@H@std@@2V_System_error_category@2@A
_BSS	SEGMENT
?_System_object@?$_Error_objects@H@std@@2V_System_error_category@2@A DD 01H DUP (?) ; std::_Error_objects<int>::_System_object
_BSS	ENDS
;	COMDAT ?id@?$num_put@DV?$back_insert_iterator@V?$basic_string@DU?$char_traits@D@std@@V?$allocator@D@2@@std@@@std@@@std@@2V0locale@2@A
_BSS	SEGMENT
?id@?$num_put@DV?$back_insert_iterator@V?$basic_string@DU?$char_traits@D@std@@V?$allocator@D@2@@std@@@std@@@std@@2V0locale@2@A DD 01H DUP (?) ; std::num_put<char,std::back_insert_iterator<std::basic_string<char,std::char_traits<char>,std::allocator<char> > > >::id
_BSS	ENDS
;	COMDAT ?id@?$num_put@_WV?$back_insert_iterator@V?$basic_string@_WU?$char_traits@_W@std@@V?$allocator@_W@2@@std@@@std@@@std@@2V0locale@2@A
_BSS	SEGMENT
?id@?$num_put@_WV?$back_insert_iterator@V?$basic_string@_WU?$char_traits@_W@std@@V?$allocator@_W@2@@std@@@std@@@std@@2V0locale@2@A DD 01H DUP (?) ; std::num_put<wchar_t,std::back_insert_iterator<std::basic_string<wchar_t,std::char_traits<wchar_t>,std::allocator<wchar_t> > > >::id
_BSS	ENDS
;	COMDAT ?LastRandom@?1??GenerateFastRandom@@YAJXZ@4JA
_BSS	SEGMENT
?LastRandom@?1??GenerateFastRandom@@YAJXZ@4JA DD 01H DUP (?) ; `GenerateFastRandom'::`2'::LastRandom
_BSS	ENDS
;	COMDAT ?id@?$numpunct@D@std@@2V0locale@2@A
_BSS	SEGMENT
?id@?$numpunct@D@std@@2V0locale@2@A DD 01H DUP (?)	; std::numpunct<char>::id
_BSS	ENDS
;	COMDAT ?id@?$numpunct@_W@std@@2V0locale@2@A
_BSS	SEGMENT
?id@?$numpunct@_W@std@@2V0locale@2@A DD 01H DUP (?)	; std::numpunct<wchar_t>::id
_BSS	ENDS
CRT$XCU	SEGMENT
_piecewise_construct$initializer$ DD FLAT:??__Epiecewise_construct@std@@YAXXZ
CRT$XCU	ENDS
;	COMDAT __xmm@80000000800000008000000080000000
CONST	SEGMENT
__xmm@80000000800000008000000080000000 DB 00H, 00H, 00H, 080H, 00H, 00H, 00H
	DB	080H, 00H, 00H, 00H, 080H, 00H, 00H, 00H, 080H
CONST	ENDS
;	COMDAT __xmm@41f00000000000000000000000000000
CONST	SEGMENT
__xmm@41f00000000000000000000000000000 DB 00H, 00H, 00H, 00H, 00H, 00H, 00H
	DB	00H, 00H, 00H, 00H, 00H, 00H, 00H, 0f0H, 'A'
CONST	ENDS
;	COMDAT __real@c5bde1b0
CONST	SEGMENT
__real@c5bde1b0 DD 0c5bde1b0r			; -6076.21
CONST	ENDS
;	COMDAT __real@c4fa0000
CONST	SEGMENT
__real@c4fa0000 DD 0c4fa0000r			; -2000
CONST	ENDS
;	COMDAT __real@c3480000
CONST	SEGMENT
__real@c3480000 DD 0c3480000r			; -200
CONST	ENDS
;	COMDAT __real@c2480000
CONST	SEGMENT
__real@c2480000 DD 0c2480000r			; -50
CONST	ENDS
;	COMDAT __real@c1a00000
CONST	SEGMENT
__real@c1a00000 DD 0c1a00000r			; -20
CONST	ENDS
;	COMDAT __real@c0490fdb
CONST	SEGMENT
__real@c0490fdb DD 0c0490fdbr			; -3.14159
CONST	ENDS
;	COMDAT __real@bff921fb54442d18
CONST	SEGMENT
__real@bff921fb54442d18 DQ 0bff921fb54442d18r	; -1.5708
CONST	ENDS
;	COMDAT __real@bf800000
CONST	SEGMENT
__real@bf800000 DD 0bf800000r			; -1
CONST	ENDS
;	COMDAT __real@bc8a1142
CONST	SEGMENT
__real@bc8a1142 DD 0bc8a1142r			; -0.0168539
CONST	ENDS
;	COMDAT __real@8000000000000000
CONST	SEGMENT
__real@8000000000000000 DQ 08000000000000000r	; -0
CONST	ENDS
;	COMDAT __real@50eb3111
CONST	SEGMENT
__real@50eb3111 DD 050eb3111r			; 3.15669e+010
CONST	ENDS
;	COMDAT __real@50bd75c0
CONST	SEGMENT
__real@50bd75c0 DD 050bd75c0r			; 2.54289e+010
CONST	ENDS
;	COMDAT __real@502bec79
CONST	SEGMENT
__real@502bec79 DD 0502bec79r			; 1.15376e+010
CONST	ENDS
;	COMDAT __real@4c0cd705
CONST	SEGMENT
__real@4c0cd705 DD 04c0cd705r			; 3.69203e+007
CONST	ENDS
;	COMDAT __real@4b0cd705
CONST	SEGMENT
__real@4b0cd705 DD 04b0cd705r			; 9.23009e+006
CONST	ENDS
;	COMDAT __real@4b095440
CONST	SEGMENT
__real@4b095440 DD 04b095440r			; 9e+006
CONST	ENDS
;	COMDAT __real@4a742400
CONST	SEGMENT
__real@4a742400 DD 04a742400r			; 4e+006
CONST	ENDS
;	COMDAT __real@4a095440
CONST	SEGMENT
__real@4a095440 DD 04a095440r			; 2.25e+006
CONST	ENDS
;	COMDAT __real@48742400
CONST	SEGMENT
__real@48742400 DD 048742400r			; 250000
CONST	ENDS
;	COMDAT __real@48320395
CONST	SEGMENT
__real@48320395 DD 048320395r			; 182286
CONST	ENDS
;	COMDAT __real@477fff00
CONST	SEGMENT
__real@477fff00 DD 0477fff00r			; 65535
CONST	ENDS
;	COMDAT __real@476d5a1c
CONST	SEGMENT
__real@476d5a1c DD 0476d5a1cr			; 60762.1
CONST	ENDS
;	COMDAT __real@471c4000
CONST	SEGMENT
__real@471c4000 DD 0471c4000r			; 40000
CONST	ENDS
;	COMDAT __real@468e6944
CONST	SEGMENT
__real@468e6944 DD 0468e6944r			; 18228.6
CONST	ENDS
;	COMDAT __real@46610000
CONST	SEGMENT
__real@46610000 DD 046610000r			; 14400
CONST	ENDS
;	COMDAT __real@45c80000
CONST	SEGMENT
__real@45c80000 DD 045c80000r			; 6400
CONST	ENDS
;	COMDAT __real@45bb8000
CONST	SEGMENT
__real@45bb8000 DD 045bb8000r			; 6000
CONST	ENDS
;	COMDAT __real@457a0000
CONST	SEGMENT
__real@457a0000 DD 0457a0000r			; 4000
CONST	ENDS
;	COMDAT __real@45610000
CONST	SEGMENT
__real@45610000 DD 045610000r			; 3600
CONST	ENDS
;	COMDAT __real@453b8000
CONST	SEGMENT
__real@453b8000 DD 0453b8000r			; 3000
CONST	ENDS
;	COMDAT __real@447a0000
CONST	SEGMENT
__real@447a0000 DD 0447a0000r			; 1000
CONST	ENDS
;	COMDAT __real@43fa0000
CONST	SEGMENT
__real@43fa0000 DD 043fa0000r			; 500
CONST	ENDS
;	COMDAT __real@43c80000
CONST	SEGMENT
__real@43c80000 DD 043c80000r			; 400
CONST	ENDS
;	COMDAT __real@43960000
CONST	SEGMENT
__real@43960000 DD 043960000r			; 300
CONST	ENDS
;	COMDAT __real@43870000
CONST	SEGMENT
__real@43870000 DD 043870000r			; 270
CONST	ENDS
;	COMDAT __real@43480000
CONST	SEGMENT
__real@43480000 DD 043480000r			; 200
CONST	ENDS
;	COMDAT __real@4328c89a
CONST	SEGMENT
__real@4328c89a DD 04328c89ar			; 168.784
CONST	ENDS
;	COMDAT __real@42f00000
CONST	SEGMENT
__real@42f00000 DD 042f00000r			; 120
CONST	ENDS
;	COMDAT __real@42ca8a53
CONST	SEGMENT
__real@42ca8a53 DD 042ca8a53r			; 101.27
CONST	ENDS
;	COMDAT __real@42c80000
CONST	SEGMENT
__real@42c80000 DD 042c80000r			; 100
CONST	ENDS
;	COMDAT __real@42a8c89a
CONST	SEGMENT
__real@42a8c89a DD 042a8c89ar			; 84.3918
CONST	ENDS
;	COMDAT __real@42a00000
CONST	SEGMENT
__real@42a00000 DD 042a00000r			; 80
CONST	ENDS
;	COMDAT __real@42960000
CONST	SEGMENT
__real@42960000 DD 042960000r			; 75
CONST	ENDS
;	COMDAT __real@428706e2
CONST	SEGMENT
__real@428706e2 DD 0428706e2r			; 67.5134
CONST	ENDS
;	COMDAT __real@42700000
CONST	SEGMENT
__real@42700000 DD 042700000r			; 60
CONST	ENDS
;	COMDAT __real@426c4c0b
CONST	SEGMENT
__real@426c4c0b DD 0426c4c0br			; 59.0743
CONST	ENDS
;	COMDAT __real@424a8a53
CONST	SEGMENT
__real@424a8a53 DD 0424a8a53r			; 50.6351
CONST	ENDS
;	COMDAT __real@42480000
CONST	SEGMENT
__real@42480000 DD 042480000r			; 50
CONST	ENDS
;	COMDAT __real@42220842
CONST	SEGMENT
__real@42220842 DD 042220842r			; 40.5081
CONST	ENDS
;	COMDAT __real@42200000
CONST	SEGMENT
__real@42200000 DD 042200000r			; 40
CONST	ENDS
;	COMDAT __real@420706e2
CONST	SEGMENT
__real@420706e2 DD 0420706e2r			; 33.7567
CONST	ENDS
;	COMDAT __real@41a00000
CONST	SEGMENT
__real@41a00000 DD 041a00000r			; 20
CONST	ENDS
;	COMDAT __real@419c0000
CONST	SEGMENT
__real@419c0000 DD 0419c0000r			; 19.5
CONST	ENDS
;	COMDAT __real@418706e2
CONST	SEGMENT
__real@418706e2 DD 0418706e2r			; 16.8784
CONST	ENDS
;	COMDAT __real@41700000
CONST	SEGMENT
__real@41700000 DD 041700000r			; 15
CONST	ENDS
;	COMDAT __real@41428963
CONST	SEGMENT
__real@41428963 DD 041428963r			; 12.1585
CONST	ENDS
;	COMDAT __real@41200000
CONST	SEGMENT
__real@41200000 DD 041200000r			; 10
CONST	ENDS
;	COMDAT __real@410706e2
CONST	SEGMENT
__real@410706e2 DD 0410706e2r			; 8.43918
CONST	ENDS
;	COMDAT __real@41000000
CONST	SEGMENT
__real@41000000 DD 041000000r			; 8
CONST	ENDS
;	COMDAT __real@40c90fdb
CONST	SEGMENT
__real@40c90fdb DD 040c90fdbr			; 6.28319
CONST	ENDS
;	COMDAT __real@40c90fd9
CONST	SEGMENT
__real@40c90fd9 DD 040c90fd9r			; 6.28318
CONST	ENDS
;	COMDAT __real@40a00000
CONST	SEGMENT
__real@40a00000 DD 040a00000r			; 5
CONST	ENDS
;	COMDAT __real@4050e0dc3c000000
CONST	SEGMENT
__real@4050e0dc3c000000 DQ 04050e0dc3c000000r	; 67.5134
CONST	ENDS
;	COMDAT __real@40490fdb
CONST	SEGMENT
__real@40490fdb DD 040490fdbr			; 3.14159
CONST	ENDS
;	COMDAT __real@40400000
CONST	SEGMENT
__real@40400000 DD 040400000r			; 3
CONST	ENDS
;	COMDAT __real@400921fb54442d18
CONST	SEGMENT
__real@400921fb54442d18 DQ 0400921fb54442d18r	; 3.14159
CONST	ENDS
;	COMDAT __real@40000000
CONST	SEGMENT
__real@40000000 DD 040000000r			; 2
CONST	ENDS
;	COMDAT __real@3ff921fb54442d18
CONST	SEGMENT
__real@3ff921fb54442d18 DQ 03ff921fb54442d18r	; 1.5708
CONST	ENDS
;	COMDAT __real@3fd80b03
CONST	SEGMENT
__real@3fd80b03 DD 03fd80b03r			; 1.68784
CONST	ENDS
;	COMDAT __real@3fc90fd9
CONST	SEGMENT
__real@3fc90fd9 DD 03fc90fd9r			; 1.5708
CONST	ENDS
;	COMDAT __real@3fc00000
CONST	SEGMENT
__real@3fc00000 DD 03fc00000r			; 1.5
CONST	ENDS
;	COMDAT __real@3fb2b8c1
CONST	SEGMENT
__real@3fb2b8c1 DD 03fb2b8c1r			; 1.39626
CONST	ENDS
;	COMDAT __real@3fa00000
CONST	SEGMENT
__real@3fa00000 DD 03fa00000r			; 1.25
CONST	ENDS
;	COMDAT __real@3f9c61a9
CONST	SEGMENT
__real@3f9c61a9 DD 03f9c61a9r			; 1.22173
CONST	ENDS
;	COMDAT __real@3f99999a
CONST	SEGMENT
__real@3f99999a DD 03f99999ar			; 1.2
CONST	ENDS
;	COMDAT __real@3f8ccccd
CONST	SEGMENT
__real@3f8ccccd DD 03f8ccccdr			; 1.1
CONST	ENDS
;	COMDAT __real@3f800000
CONST	SEGMENT
__real@3f800000 DD 03f800000r			; 1
CONST	ENDS
;	COMDAT __real@3f7f7cee
CONST	SEGMENT
__real@3f7f7cee DD 03f7f7ceer			; 0.998
CONST	ENDS
;	COMDAT __real@3f7f064f
CONST	SEGMENT
__real@3f7f064f DD 03f7f064fr			; 0.99619
CONST	ENDS
;	COMDAT __real@3f5f66f1
CONST	SEGMENT
__real@3f5f66f1 DD 03f5f66f1r			; 0.872665
CONST	ENDS
;	COMDAT __real@3f4ccccd
CONST	SEGMENT
__real@3f4ccccd DD 03f4ccccdr			; 0.8
CONST	ENDS
;	COMDAT __real@3f490fd9
CONST	SEGMENT
__real@3f490fd9 DD 03f490fd9r			; 0.785398
CONST	ENDS
;	COMDAT __real@3f400000
CONST	SEGMENT
__real@3f400000 DD 03f400000r			; 0.75
CONST	ENDS
;	COMDAT __real@3f333333
CONST	SEGMENT
__real@3f333333 DD 03f333333r			; 0.7
CONST	ENDS
;	COMDAT __real@3f30a3d7
CONST	SEGMENT
__real@3f30a3d7 DD 03f30a3d7r			; 0.69
CONST	ENDS
;	COMDAT __real@3f266666
CONST	SEGMENT
__real@3f266666 DD 03f266666r			; 0.65
CONST	ENDS
;	COMDAT __real@3f19999a
CONST	SEGMENT
__real@3f19999a DD 03f19999ar			; 0.6
CONST	ENDS
;	COMDAT __real@3f0ccccd
CONST	SEGMENT
__real@3f0ccccd DD 03f0ccccdr			; 0.55
CONST	ENDS
;	COMDAT __real@3f060a91
CONST	SEGMENT
__real@3f060a91 DD 03f060a91r			; 0.523599
CONST	ENDS
;	COMDAT __real@3f000000
CONST	SEGMENT
__real@3f000000 DD 03f000000r			; 0.5
CONST	ENDS
;	COMDAT __real@3ecccccd
CONST	SEGMENT
__real@3ecccccd DD 03ecccccdr			; 0.4
CONST	ENDS
;	COMDAT __real@3e99999a
CONST	SEGMENT
__real@3e99999a DD 03e99999ar			; 0.3
CONST	ENDS
;	COMDAT __real@3e4ccccd
CONST	SEGMENT
__real@3e4ccccd DD 03e4ccccdr			; 0.2
CONST	ENDS
;	COMDAT __real@3e32b8c1
CONST	SEGMENT
__real@3e32b8c1 DD 03e32b8c1r			; 0.174533
CONST	ENDS
;	COMDAT __real@3e2cd59c
CONST	SEGMENT
__real@3e2cd59c DD 03e2cd59cr			; 0.168784
CONST	ENDS
;	COMDAT __real@3dcccccd
CONST	SEGMENT
__real@3dcccccd DD 03dcccccdr			; 0.1
CONST	ENDS
;	COMDAT __real@3db2b8c1
CONST	SEGMENT
__real@3db2b8c1 DD 03db2b8c1r			; 0.0872665
CONST	ENDS
;	COMDAT __real@3d56a98a
CONST	SEGMENT
__real@3d56a98a DD 03d56a98ar			; 0.0524078
CONST	ENDS
;	COMDAT __real@3d4ccccd
CONST	SEGMENT
__real@3d4ccccd DD 03d4ccccdr			; 0.05
CONST	ENDS
;	COMDAT __real@3c8efa34
CONST	SEGMENT
__real@3c8efa34 DD 03c8efa34r			; 0.0174533
CONST	ENDS
;	COMDAT __real@392c987a
CONST	SEGMENT
__real@392c987a DD 0392c987ar			; 0.0001646
CONST	ENDS
;	COMDAT __real@0000000000000000
CONST	SEGMENT
__real@0000000000000000 DQ 00000000000000000r	; 0
CONST	ENDS
;	COMDAT __real@00000000
CONST	SEGMENT
__real@00000000 DD 000000000r			; 0
CONST	ENDS
;	COMDAT ??_R1A@?0A@EA@_System_error_category@std@@8
rdata$r	SEGMENT
??_R1A@?0A@EA@_System_error_category@std@@8 DD FLAT:??_R0?AV_System_error_category@std@@@8 ; std::_System_error_category::`RTTI Base Class Descriptor at (0,-1,0,64)'
	DD	02H
	DD	00H
	DD	0ffffffffH
	DD	00H
	DD	040H
	DD	FLAT:??_R3_System_error_category@std@@8
rdata$r	ENDS
;	COMDAT ??_R2_System_error_category@std@@8
rdata$r	SEGMENT
??_R2_System_error_category@std@@8 DD FLAT:??_R1A@?0A@EA@_System_error_category@std@@8 ; std::_System_error_category::`RTTI Base Class Array'
	DD	FLAT:??_R1A@?0A@EA@_Generic_error_category@std@@8
	DD	FLAT:??_R1A@?0A@EA@error_category@std@@8
rdata$r	ENDS
;	COMDAT ??_R3_System_error_category@std@@8
rdata$r	SEGMENT
??_R3_System_error_category@std@@8 DD 00H		; std::_System_error_category::`RTTI Class Hierarchy Descriptor'
	DD	00H
	DD	03H
	DD	FLAT:??_R2_System_error_category@std@@8
rdata$r	ENDS
;	COMDAT ??_R0?AV_System_error_category@std@@@8
_DATA	SEGMENT
??_R0?AV_System_error_category@std@@@8 DD FLAT:??_7type_info@@6B@ ; std::_System_error_category `RTTI Type Descriptor'
	DD	00H
	DB	'.?AV_System_error_category@std@@', 00H
_DATA	ENDS
;	COMDAT ??_R4_System_error_category@std@@6B@
rdata$r	SEGMENT
??_R4_System_error_category@std@@6B@ DD 00H		; std::_System_error_category::`RTTI Complete Object Locator'
	DD	00H
	DD	00H
	DD	FLAT:??_R0?AV_System_error_category@std@@@8
	DD	FLAT:??_R3_System_error_category@std@@8
rdata$r	ENDS
;	COMDAT ??_R1A@?0A@EA@_Iostream_error_category@std@@8
rdata$r	SEGMENT
??_R1A@?0A@EA@_Iostream_error_category@std@@8 DD FLAT:??_R0?AV_Iostream_error_category@std@@@8 ; std::_Iostream_error_category::`RTTI Base Class Descriptor at (0,-1,0,64)'
	DD	02H
	DD	00H
	DD	0ffffffffH
	DD	00H
	DD	040H
	DD	FLAT:??_R3_Iostream_error_category@std@@8
rdata$r	ENDS
;	COMDAT ??_R2_Iostream_error_category@std@@8
rdata$r	SEGMENT
??_R2_Iostream_error_category@std@@8 DD FLAT:??_R1A@?0A@EA@_Iostream_error_category@std@@8 ; std::_Iostream_error_category::`RTTI Base Class Array'
	DD	FLAT:??_R1A@?0A@EA@_Generic_error_category@std@@8
	DD	FLAT:??_R1A@?0A@EA@error_category@std@@8
rdata$r	ENDS
;	COMDAT ??_R3_Iostream_error_category@std@@8
rdata$r	SEGMENT
??_R3_Iostream_error_category@std@@8 DD 00H		; std::_Iostream_error_category::`RTTI Class Hierarchy Descriptor'
	DD	00H
	DD	03H
	DD	FLAT:??_R2_Iostream_error_category@std@@8
rdata$r	ENDS
;	COMDAT ??_R0?AV_Iostream_error_category@std@@@8
_DATA	SEGMENT
??_R0?AV_Iostream_error_category@std@@@8 DD FLAT:??_7type_info@@6B@ ; std::_Iostream_error_category `RTTI Type Descriptor'
	DD	00H
	DB	'.?AV_Iostream_error_category@std@@', 00H
_DATA	ENDS
;	COMDAT ??_R4_Iostream_error_category@std@@6B@
rdata$r	SEGMENT
??_R4_Iostream_error_category@std@@6B@ DD 00H		; std::_Iostream_error_category::`RTTI Complete Object Locator'
	DD	00H
	DD	00H
	DD	FLAT:??_R0?AV_Iostream_error_category@std@@@8
	DD	FLAT:??_R3_Iostream_error_category@std@@8
rdata$r	ENDS
;	COMDAT ??_R1A@?0A@EA@_Generic_error_category@std@@8
rdata$r	SEGMENT
??_R1A@?0A@EA@_Generic_error_category@std@@8 DD FLAT:??_R0?AV_Generic_error_category@std@@@8 ; std::_Generic_error_category::`RTTI Base Class Descriptor at (0,-1,0,64)'
	DD	01H
	DD	00H
	DD	0ffffffffH
	DD	00H
	DD	040H
	DD	FLAT:??_R3_Generic_error_category@std@@8
rdata$r	ENDS
;	COMDAT ??_R2_Generic_error_category@std@@8
rdata$r	SEGMENT
??_R2_Generic_error_category@std@@8 DD FLAT:??_R1A@?0A@EA@_Generic_error_category@std@@8 ; std::_Generic_error_category::`RTTI Base Class Array'
	DD	FLAT:??_R1A@?0A@EA@error_category@std@@8
rdata$r	ENDS
;	COMDAT ??_R3_Generic_error_category@std@@8
rdata$r	SEGMENT
??_R3_Generic_error_category@std@@8 DD 00H		; std::_Generic_error_category::`RTTI Class Hierarchy Descriptor'
	DD	00H
	DD	02H
	DD	FLAT:??_R2_Generic_error_category@std@@8
rdata$r	ENDS
;	COMDAT ??_R0?AV_Generic_error_category@std@@@8
_DATA	SEGMENT
??_R0?AV_Generic_error_category@std@@@8 DD FLAT:??_7type_info@@6B@ ; std::_Generic_error_category `RTTI Type Descriptor'
	DD	00H
	DB	'.?AV_Generic_error_category@std@@', 00H
_DATA	ENDS
;	COMDAT ??_R4_Generic_error_category@std@@6B@
rdata$r	SEGMENT
??_R4_Generic_error_category@std@@6B@ DD 00H		; std::_Generic_error_category::`RTTI Complete Object Locator'
	DD	00H
	DD	00H
	DD	FLAT:??_R0?AV_Generic_error_category@std@@@8
	DD	FLAT:??_R3_Generic_error_category@std@@8
rdata$r	ENDS
;	COMDAT ??_R1A@?0A@EA@error_category@std@@8
rdata$r	SEGMENT
??_R1A@?0A@EA@error_category@std@@8 DD FLAT:??_R0?AVerror_category@std@@@8 ; std::error_category::`RTTI Base Class Descriptor at (0,-1,0,64)'
	DD	00H
	DD	00H
	DD	0ffffffffH
	DD	00H
	DD	040H
	DD	FLAT:??_R3error_category@std@@8
rdata$r	ENDS
;	COMDAT ??_R2error_category@std@@8
rdata$r	SEGMENT
??_R2error_category@std@@8 DD FLAT:??_R1A@?0A@EA@error_category@std@@8 ; std::error_category::`RTTI Base Class Array'
rdata$r	ENDS
;	COMDAT ??_R3error_category@std@@8
rdata$r	SEGMENT
??_R3error_category@std@@8 DD 00H			; std::error_category::`RTTI Class Hierarchy Descriptor'
	DD	00H
	DD	01H
	DD	FLAT:??_R2error_category@std@@8
rdata$r	ENDS
;	COMDAT ??_R0?AVerror_category@std@@@8
_DATA	SEGMENT
??_R0?AVerror_category@std@@@8 DD FLAT:??_7type_info@@6B@ ; std::error_category `RTTI Type Descriptor'
	DD	00H
	DB	'.?AVerror_category@std@@', 00H
_DATA	ENDS
;	COMDAT ??_R4error_category@std@@6B@
rdata$r	SEGMENT
??_R4error_category@std@@6B@ DD 00H			; std::error_category::`RTTI Complete Object Locator'
	DD	00H
	DD	00H
	DD	FLAT:??_R0?AVerror_category@std@@@8
	DD	FLAT:??_R3error_category@std@@8
rdata$r	ENDS
;	COMDAT ??_C@_0BA@JFNIOLAK@string?5too?5long?$AA@
CONST	SEGMENT
??_C@_0BA@JFNIOLAK@string?5too?5long?$AA@ DB 'string too long', 00H ; `string'
CONST	ENDS
;	COMDAT ??_C@_0BI@CFPLBAOH@invalid?5string?5position?$AA@
CONST	SEGMENT
??_C@_0BI@CFPLBAOH@invalid?5string?5position?$AA@ DB 'invalid string posi'
	DB	'tion', 00H					; `string'
CONST	ENDS
;	COMDAT ??_C@_0N@COEEMFNJ@TakeRunwayPt?$AA@
CONST	SEGMENT
??_C@_0N@COEEMFNJ@TakeRunwayPt?$AA@ DB 'TakeRunwayPt', 00H ; `string'
CONST	ENDS
;	COMDAT ??_C@_0L@ENOFFMFD@CritTaxiPt?$AA@
CONST	SEGMENT
??_C@_0L@ENOFFMFD@CritTaxiPt?$AA@ DB 'CritTaxiPt', 00H	; `string'
CONST	ENDS
;	COMDAT ??_C@_06NOMCLABP@TaxiPt?$AA@
CONST	SEGMENT
??_C@_06NOMCLABP@TaxiPt?$AA@ DB 'TaxiPt', 00H		; `string'
CONST	ENDS
;	COMDAT ??_C@_08PJMGDEDN@RunwayPt?$AA@
CONST	SEGMENT
??_C@_08PJMGDEDN@RunwayPt?$AA@ DB 'RunwayPt', 00H	; `string'
CONST	ENDS
;	COMDAT ??_C@_09GFOPPOAM@TakeoffPt?$AA@
CONST	SEGMENT
??_C@_09GFOPPOAM@TakeoffPt?$AA@ DB 'TakeoffPt', 00H	; `string'
CONST	ENDS
;	COMDAT ??_C@_0M@NKALPJKJ@LargeParkPt?$AA@
CONST	SEGMENT
??_C@_0M@NKALPJKJ@LargeParkPt?$AA@ DB 'LargeParkPt', 00H ; `string'
CONST	ENDS
;	COMDAT ??_C@_0M@PPBOKGPO@SmallParkPt?$AA@
CONST	SEGMENT
??_C@_0M@PPBOKGPO@SmallParkPt?$AA@ DB 'SmallParkPt', 00H ; `string'
CONST	ENDS
;	COMDAT ??_C@_0BC@OBEDLAHJ@TaxiPt?5?$CFd?0?5type?3?5?$AA@
CONST	SEGMENT
??_C@_0BC@OBEDLAHJ@TaxiPt?5?$CFd?0?5type?3?5?$AA@ DB 'TaxiPt %d, type: ', 00H ; `string'
CONST	ENDS
;	COMDAT ??_C@_0CA@GLBKACGL@Speed?3?5?$CFd?5kts?0?5PointDist?3?5?$CFd?5ft?$AA@
CONST	SEGMENT
??_C@_0CA@GLBKACGL@Speed?3?5?$CFd?5kts?0?5PointDist?3?5?$CFd?5ft?$AA@ DB 'S'
	DB	'peed: %d kts, PointDist: %d ft', 00H	; `string'
CONST	ENDS
;	COMDAT ??_C@_06FHFOAHML@system?$AA@
CONST	SEGMENT
??_C@_06FHFOAHML@system?$AA@ DB 'system', 00H		; `string'
CONST	ENDS
;	COMDAT ??_7_System_error_category@std@@6B@
CONST	SEGMENT
??_7_System_error_category@std@@6B@ DD FLAT:??_R4_System_error_category@std@@6B@ ; std::_System_error_category::`vftable'
	DD	FLAT:??_E_System_error_category@std@@UAEPAXI@Z
	DD	FLAT:?name@_System_error_category@std@@UBEPBDXZ
	DD	FLAT:?message@_System_error_category@std@@UBE?AV?$basic_string@DU?$char_traits@D@std@@V?$allocator@D@2@@2@H@Z
	DD	FLAT:?default_error_condition@_System_error_category@std@@UBE?AVerror_condition@2@H@Z
	DD	FLAT:?equivalent@error_category@std@@UBE_NABVerror_code@2@H@Z
	DD	FLAT:?equivalent@error_category@std@@UBE_NHABVerror_condition@2@@Z
CONST	ENDS
;	COMDAT ??_C@_0BG@PADBLCHM@iostream?5stream?5error?$AA@
CONST	SEGMENT
??_C@_0BG@PADBLCHM@iostream?5stream?5error?$AA@ DB 'iostream stream error'
	DB	00H						; `string'
CONST	ENDS
;	COMDAT ??_C@_08LLGCOLLL@iostream?$AA@
CONST	SEGMENT
??_C@_08LLGCOLLL@iostream?$AA@ DB 'iostream', 00H	; `string'
CONST	ENDS
;	COMDAT ??_7_Iostream_error_category@std@@6B@
CONST	SEGMENT
??_7_Iostream_error_category@std@@6B@ DD FLAT:??_R4_Iostream_error_category@std@@6B@ ; std::_Iostream_error_category::`vftable'
	DD	FLAT:??_E_Iostream_error_category@std@@UAEPAXI@Z
	DD	FLAT:?name@_Iostream_error_category@std@@UBEPBDXZ
	DD	FLAT:?message@_Iostream_error_category@std@@UBE?AV?$basic_string@DU?$char_traits@D@std@@V?$allocator@D@2@@2@H@Z
	DD	FLAT:?default_error_condition@error_category@std@@UBE?AVerror_condition@2@H@Z
	DD	FLAT:?equivalent@error_category@std@@UBE_NABVerror_code@2@H@Z
	DD	FLAT:?equivalent@error_category@std@@UBE_NHABVerror_condition@2@@Z
CONST	ENDS
;	COMDAT ??_C@_0O@BFJCFAAK@unknown?5error?$AA@
CONST	SEGMENT
??_C@_0O@BFJCFAAK@unknown?5error?$AA@ DB 'unknown error', 00H ; `string'
CONST	ENDS
;	COMDAT ??_C@_07DCLBNMLN@generic?$AA@
CONST	SEGMENT
??_C@_07DCLBNMLN@generic?$AA@ DB 'generic', 00H		; `string'
CONST	ENDS
;	COMDAT ??_7_Generic_error_category@std@@6B@
CONST	SEGMENT
??_7_Generic_error_category@std@@6B@ DD FLAT:??_R4_Generic_error_category@std@@6B@ ; std::_Generic_error_category::`vftable'
	DD	FLAT:??_E_Generic_error_category@std@@UAEPAXI@Z
	DD	FLAT:?name@_Generic_error_category@std@@UBEPBDXZ
	DD	FLAT:?message@_Generic_error_category@std@@UBE?AV?$basic_string@DU?$char_traits@D@std@@V?$allocator@D@2@@2@H@Z
	DD	FLAT:?default_error_condition@error_category@std@@UBE?AVerror_condition@2@H@Z
	DD	FLAT:?equivalent@error_category@std@@UBE_NABVerror_code@2@H@Z
	DD	FLAT:?equivalent@error_category@std@@UBE_NHABVerror_condition@2@@Z
CONST	ENDS
;	COMDAT ??_7error_category@std@@6B@
CONST	SEGMENT
??_7error_category@std@@6B@ DD FLAT:??_R4error_category@std@@6B@ ; std::error_category::`vftable'
	DD	FLAT:??_Eerror_category@std@@UAEPAXI@Z
	DD	FLAT:__purecall
	DD	FLAT:__purecall
	DD	FLAT:?default_error_condition@error_category@std@@UBE?AVerror_condition@2@H@Z
	DD	FLAT:?equivalent@error_category@std@@UBE_NABVerror_code@2@H@Z
	DD	FLAT:?equivalent@error_category@std@@UBE_NHABVerror_condition@2@@Z
CONST	ENDS
;	COMDAT xdata$x
xdata$x	SEGMENT
__unwindtable$??$construct@PADAAPAD@?$allocator@D@std@@QAEXPAPADAAPAD@Z DD 0ffffffffH
	DD	FLAT:__unwindfunclet$??$construct@PADAAPAD@?$allocator@D@std@@QAEXPAPADAAPAD@Z$0
__ehfuncinfo$??$construct@PADAAPAD@?$allocator@D@std@@QAEXPAPADAAPAD@Z DD 019930522H
	DD	01H
	DD	FLAT:__unwindtable$??$construct@PADAAPAD@?$allocator@D@std@@QAEXPAPADAAPAD@Z
	DD	2 DUP(00H)
	DD	2 DUP(00H)
	DD	00H
	DD	01H
xdata$x	ENDS
xdata$x	SEGMENT
__unwindtable$?GetLeader@DigitalBrain@@QAEPAVAircraftClass@@XZ DD 0ffffffffH
	DD	FLAT:__unwindfunclet$?GetLeader@DigitalBrain@@QAEPAVAircraftClass@@XZ$0
__unwindtable$?SimpleGroundTrack@DigitalBrain@@IAEHM@Z DD 0ffffffffH
	DD	FLAT:__unwindfunclet$?SimpleGroundTrack@DigitalBrain@@IAEHM@Z$0
__unwindtable$?TakeOff@DigitalBrain@@IAEXXZ DD 0ffffffffH
	DD	FLAT:__unwindfunclet$?TakeOff@DigitalBrain@@IAEXXZ$0
__unwindtable$?Land@DigitalBrain@@IAEXXZ DD 0ffffffffH
	DD	FLAT:__unwindfunclet$?Land@DigitalBrain@@IAEXXZ$0
__unwindtable$?SendATCMsg@DigitalBrain@@QAEXW4AtcStatusEnum@@@Z DD 0ffffffffH
	DD	FLAT:__unwindfunclet$?SendATCMsg@DigitalBrain@@QAEXW4AtcStatusEnum@@@Z$0
	DD	0ffffffffH
	DD	FLAT:__unwindfunclet$?SendATCMsg@DigitalBrain@@QAEXW4AtcStatusEnum@@@Z$1
__unwindtable$?CheckTaxiCollision@DigitalBrain@@IAEHXZ DD 0ffffffffH
	DD	FLAT:__unwindfunclet$?CheckTaxiCollision@DigitalBrain@@IAEHXZ$0
	DD	00H
	DD	FLAT:__unwindfunclet$?CheckTaxiCollision@DigitalBrain@@IAEHXZ$1
__ehfuncinfo$?SendATCMsg@DigitalBrain@@QAEXW4AtcStatusEnum@@@Z DD 019930522H
	DD	02H
	DD	FLAT:__unwindtable$?SendATCMsg@DigitalBrain@@QAEXW4AtcStatusEnum@@@Z
	DD	2 DUP(00H)
	DD	2 DUP(00H)
	DD	00H
	DD	01H
__ehfuncinfo$?GetLeader@DigitalBrain@@QAEPAVAircraftClass@@XZ DD 019930522H
	DD	01H
	DD	FLAT:__unwindtable$?GetLeader@DigitalBrain@@QAEPAVAircraftClass@@XZ
	DD	2 DUP(00H)
	DD	2 DUP(00H)
	DD	00H
	DD	01H
__ehfuncinfo$?SimpleGroundTrack@DigitalBrain@@IAEHM@Z DD 019930522H
	DD	01H
	DD	FLAT:__unwindtable$?SimpleGroundTrack@DigitalBrain@@IAEHM@Z
	DD	2 DUP(00H)
	DD	2 DUP(00H)
	DD	00H
	DD	01H
__ehfuncinfo$?CheckTaxiCollision@DigitalBrain@@IAEHXZ DD 019930522H
	DD	02H
	DD	FLAT:__unwindtable$?CheckTaxiCollision@DigitalBrain@@IAEHXZ
	DD	2 DUP(00H)
	DD	2 DUP(00H)
	DD	00H
	DD	01H
__ehfuncinfo$?TakeOff@DigitalBrain@@IAEXXZ DD 019930522H
	DD	01H
	DD	FLAT:__unwindtable$?TakeOff@DigitalBrain@@IAEXXZ
	DD	2 DUP(00H)
	DD	2 DUP(00H)
	DD	00H
	DD	01H
__ehfuncinfo$?Land@DigitalBrain@@IAEXXZ DD 019930522H
	DD	01H
	DD	FLAT:__unwindtable$?Land@DigitalBrain@@IAEXXZ
	DD	2 DUP(00H)
	DD	2 DUP(00H)
	DD	00H
	DD	01H
xdata$x	ENDS
;	COMDAT xdata$x
xdata$x	SEGMENT
__catchsym$?_Copy@?$basic_string@DU?$char_traits@D@std@@V?$allocator@D@2@@std@@QAEXII@Z$5 DD 040H
	DD	00H
	DD	00H
	DD	FLAT:__catch$?_Copy@?$basic_string@DU?$char_traits@D@std@@V?$allocator@D@2@@std@@QAEXII@Z$0
__catchsym$?_Copy@?$basic_string@DU?$char_traits@D@std@@V?$allocator@D@2@@std@@QAEXII@Z$4 DD 040H
	DD	00H
	DD	00H
	DD	FLAT:__catch$?_Copy@?$basic_string@DU?$char_traits@D@std@@V?$allocator@D@2@@std@@QAEXII@Z$1
__unwindtable$?_Copy@?$basic_string@DU?$char_traits@D@std@@V?$allocator@D@2@@std@@QAEXII@Z DD 0ffffffffH
	DD	00H
	DD	0ffffffffH
	DD	00H
	DD	01H
	DD	00H
	DD	01H
	DD	00H
__ehfuncinfo$?_Copy@?$basic_string@DU?$char_traits@D@std@@V?$allocator@D@2@@std@@QAEXII@Z DD 019930522H
	DD	04H
	DD	FLAT:__unwindtable$?_Copy@?$basic_string@DU?$char_traits@D@std@@V?$allocator@D@2@@std@@QAEXII@Z
	DD	02H
	DD	FLAT:__tryblocktable$?_Copy@?$basic_string@DU?$char_traits@D@std@@V?$allocator@D@2@@std@@QAEXII@Z
	DD	2 DUP(00H)
	DD	00H
	DD	01H
__tryblocktable$?_Copy@?$basic_string@DU?$char_traits@D@std@@V?$allocator@D@2@@std@@QAEXII@Z DD 02H
	DD	02H
	DD	03H
	DD	01H
	DD	FLAT:__catchsym$?_Copy@?$basic_string@DU?$char_traits@D@std@@V?$allocator@D@2@@std@@QAEXII@Z$4
	DD	00H
	DD	00H
	DD	03H
	DD	01H
	DD	FLAT:__catchsym$?_Copy@?$basic_string@DU?$char_traits@D@std@@V?$allocator@D@2@@std@@QAEXII@Z$5
xdata$x	ENDS
CRT$XCU	SEGMENT
_allocator_arg$initializer$ DD FLAT:??__Eallocator_arg@std@@YAXXZ
CRT$XCU	ENDS
;	COMDAT CRT$XCU
CRT$XCU	SEGMENT
?_Generic_object$initializer$@?$_Error_objects@H@std@@2P6AXXZA DD FLAT:??__E?_Generic_object@?$_Error_objects@H@std@@2V_Generic_error_category@2@A@@YAXXZ ; std::_Error_objects<int>::_Generic_object$initializer$
CRT$XCU	ENDS
;	COMDAT CRT$XCU
CRT$XCU	SEGMENT
?_Iostream_object$initializer$@?$_Error_objects@H@std@@2P6AXXZA DD FLAT:??__E?_Iostream_object@?$_Error_objects@H@std@@2V_Iostream_error_category@2@A@@YAXXZ ; std::_Error_objects<int>::_Iostream_object$initializer$
CRT$XCU	ENDS
;	COMDAT CRT$XCU
CRT$XCU	SEGMENT
?_System_object$initializer$@?$_Error_objects@H@std@@2P6AXXZA DD FLAT:??__E?_System_object@?$_Error_objects@H@std@@2V_System_error_category@2@A@@YAXXZ ; std::_Error_objects<int>::_System_object$initializer$
CRT$XCU	ENDS
;	COMDAT CRT$XCU
CRT$XCU	SEGMENT
?id$initializer$@?$num_put@DV?$back_insert_iterator@V?$basic_string@DU?$char_traits@D@std@@V?$allocator@D@2@@std@@@std@@@std@@2P6AXXZA DD FLAT:??__E?id@?$num_put@DV?$back_insert_iterator@V?$basic_string@DU?$char_traits@D@std@@V?$allocator@D@2@@std@@@std@@@std@@2V0locale@2@A@@YAXXZ ; std::num_put<char,std::back_insert_iterator<std::basic_string<char,std::char_traits<char>,std::allocator<char> > > >::id$initializer$
CRT$XCU	ENDS
;	COMDAT CRT$XCU
CRT$XCU	SEGMENT
?id$initializer$@?$num_put@_WV?$back_insert_iterator@V?$basic_string@_WU?$char_traits@_W@std@@V?$allocator@_W@2@@std@@@std@@@std@@2P6AXXZA DD FLAT:??__E?id@?$num_put@_WV?$back_insert_iterator@V?$basic_string@_WU?$char_traits@_W@std@@V?$allocator@_W@2@@std@@@std@@@std@@2V0locale@2@A@@YAXXZ ; std::num_put<wchar_t,std::back_insert_iterator<std::basic_string<wchar_t,std::char_traits<wchar_t>,std::allocator<wchar_t> > > >::id$initializer$
CRT$XCU	ENDS
;	COMDAT CRT$XCU
CRT$XCU	SEGMENT
?id$initializer$@?$numpunct@D@std@@2P6AXXZA DD FLAT:??__E?id@?$numpunct@D@std@@2V0locale@2@A@@YAXXZ ; std::numpunct<char>::id$initializer$
CRT$XCU	ENDS
;	COMDAT CRT$XCU
CRT$XCU	SEGMENT
?id$initializer$@?$numpunct@_W@std@@2P6AXXZA DD FLAT:??__E?id@?$numpunct@_W@std@@2V0locale@2@A@@YAXXZ ; std::numpunct<wchar_t>::id$initializer$
CRT$XCU	ENDS
; Function compile flags: /Odtp
; File c:\program files (x86)\microsoft visual studio 11.0\vc\include\xmemory0
;	COMDAT ??$destroy@PAD@?$allocator@D@std@@QAEXPAPAD@Z
_TEXT	SEGMENT
_this$ = -4						; size = 4
__Ptr$ = 8						; size = 4
??$destroy@PAD@?$allocator@D@std@@QAEXPAPAD@Z PROC	; std::allocator<char>::destroy<char *>, COMDAT
; _this$ = ecx

; 621  : 		void destroy(_Uty *_Ptr)

	push	ebp
	mov	ebp, esp
	push	ecx
	mov	DWORD PTR _this$[ebp], ecx

; 622  : 		{	// destroy object at _Ptr
; 623  : 		_Ptr->~_Uty();
; 624  : 		}

	mov	esp, ebp
	pop	ebp
	ret	4
??$destroy@PAD@?$allocator@D@std@@QAEXPAPAD@Z ENDP	; std::allocator<char>::destroy<char *>
_TEXT	ENDS
; Function compile flags: /Odtp
; File c:\program files (x86)\microsoft visual studio 11.0\vc\include\xmemory0
;	COMDAT ??$construct@PADAAPAD@?$allocator@D@std@@QAEXPAPADAAPAD@Z
_TEXT	SEGMENT
$T2 = -28						; size = 4
_this$ = -24						; size = 4
tv73 = -20						; size = 4
$T3 = -16						; size = 4
__$EHRec$ = -12						; size = 12
__Ptr$ = 8						; size = 4
__V0$ = 12						; size = 4
??$construct@PADAAPAD@?$allocator@D@std@@QAEXPAPADAAPAD@Z PROC ; std::allocator<char>::construct<char *,char * &>, COMDAT
; _this$ = ecx

; 617  : _VARIADIC_EXPAND_0X(_ALLOC_MEMBER_CONSTRUCT, , , , )

	push	ebp
	mov	ebp, esp
	push	-1
	push	__ehhandler$??$construct@PADAAPAD@?$allocator@D@std@@QAEXPAPADAAPAD@Z
	mov	eax, DWORD PTR fs:0
	push	eax
	sub	esp, 16					; 00000010H
	mov	eax, DWORD PTR ___security_cookie
	xor	eax, ebp
	push	eax
	lea	eax, DWORD PTR __$EHRec$[ebp]
	mov	DWORD PTR fs:0, eax
	mov	DWORD PTR _this$[ebp], ecx
	mov	eax, DWORD PTR __Ptr$[ebp]
	push	eax
	push	4
	call	??2@YAPAXIPAX@Z				; operator new
	add	esp, 8
	mov	DWORD PTR $T3[ebp], eax
	mov	DWORD PTR __$EHRec$[ebp+8], 0
	cmp	DWORD PTR $T3[ebp], 0
	je	SHORT $LN3@construct
	mov	ecx, DWORD PTR __V0$[ebp]
	push	ecx
	call	??$forward@AAPAD@std@@YAAAPADAAPAD@Z	; std::forward<char * &>
	add	esp, 4
	mov	edx, DWORD PTR $T3[ebp]
	mov	eax, DWORD PTR [eax]
	mov	DWORD PTR [edx], eax
	mov	ecx, DWORD PTR $T3[ebp]
	mov	DWORD PTR tv73[ebp], ecx
	jmp	SHORT $LN4@construct
$LN3@construct:
	mov	DWORD PTR tv73[ebp], 0
$LN4@construct:
	mov	edx, DWORD PTR tv73[ebp]
	mov	DWORD PTR $T2[ebp], edx
	mov	DWORD PTR __$EHRec$[ebp+8], -1
	mov	ecx, DWORD PTR __$EHRec$[ebp]
	mov	DWORD PTR fs:0, ecx
	pop	ecx
	mov	esp, ebp
	pop	ebp
	ret	8
_TEXT	ENDS
;	COMDAT text$x
text$x	SEGMENT
__unwindfunclet$??$construct@PADAAPAD@?$allocator@D@std@@QAEXPAPADAAPAD@Z$0:
	mov	eax, DWORD PTR __Ptr$[ebp]
	push	eax
	mov	eax, DWORD PTR $T3[ebp]
	push	eax
	call	??3@YAXPAX0@Z				; operator delete
	add	esp, 8
	ret	0
__ehhandler$??$construct@PADAAPAD@?$allocator@D@std@@QAEXPAPADAAPAD@Z:
	mov	edx, DWORD PTR [esp+8]
	lea	eax, DWORD PTR [edx+12]
	mov	ecx, DWORD PTR [edx-20]
	xor	ecx, eax
	call	@__security_check_cookie@4
	mov	eax, OFFSET __ehfuncinfo$??$construct@PADAAPAD@?$allocator@D@std@@QAEXPAPADAAPAD@Z
	jmp	___CxxFrameHandler3
text$x	ENDS
??$construct@PADAAPAD@?$allocator@D@std@@QAEXPAPADAAPAD@Z ENDP ; std::allocator<char>::construct<char *,char * &>
; Function compile flags: /Odtp
; File c:\program files (x86)\microsoft visual studio 11.0\vc\include\xlocnum
;	COMDAT ??__E?id@?$numpunct@_W@std@@2V0locale@2@A@@YAXXZ
text$yc	SEGMENT
??__E?id@?$numpunct@_W@std@@2V0locale@2@A@@YAXXZ PROC	; `dynamic initializer for 'std::numpunct<wchar_t>::id'', COMDAT

; 155  : 		void _Getvals(wchar_t, const lconv *_Ptr, _Locinfo::_Cvtvec)

	push	ebp
	mov	ebp, esp
	push	0
	mov	ecx, OFFSET ?id@?$numpunct@_W@std@@2V0locale@2@A ; std::numpunct<wchar_t>::id
	call	??0id@locale@std@@QAE@I@Z		; std::locale::id::id
	pop	ebp
	ret	0
??__E?id@?$numpunct@_W@std@@2V0locale@2@A@@YAXXZ ENDP	; `dynamic initializer for 'std::numpunct<wchar_t>::id''
text$yc	ENDS
; Function compile flags: /Odtp
; File c:\program files (x86)\microsoft visual studio 11.0\vc\include\xlocnum
;	COMDAT ??__E?id@?$numpunct@D@std@@2V0locale@2@A@@YAXXZ
text$yc	SEGMENT
??__E?id@?$numpunct@D@std@@2V0locale@2@A@@YAXXZ PROC	; `dynamic initializer for 'std::numpunct<char>::id'', COMDAT

; 155  : 		void _Getvals(wchar_t, const lconv *_Ptr, _Locinfo::_Cvtvec)

	push	ebp
	mov	ebp, esp
	push	0
	mov	ecx, OFFSET ?id@?$numpunct@D@std@@2V0locale@2@A ; std::numpunct<char>::id
	call	??0id@locale@std@@QAE@I@Z		; std::locale::id::id
	pop	ebp
	ret	0
??__E?id@?$numpunct@D@std@@2V0locale@2@A@@YAXXZ ENDP	; `dynamic initializer for 'std::numpunct<char>::id''
text$yc	ENDS
; Function compile flags: /Odtp
; File c:\program files (x86)\microsoft visual studio 11.0\vc\include\xlocnum
;	COMDAT ??__E?id@?$num_put@_WV?$back_insert_iterator@V?$basic_string@_WU?$char_traits@_W@std@@V?$allocator@_W@2@@std@@@std@@@std@@2V0locale@2@A@@YAXXZ
text$yc	SEGMENT
??__E?id@?$num_put@_WV?$back_insert_iterator@V?$basic_string@_WU?$char_traits@_W@std@@V?$allocator@_W@2@@std@@@std@@@std@@2V0locale@2@A@@YAXXZ PROC ; `dynamic initializer for 'std::num_put<wchar_t,std::back_insert_iterator<std::basic_string<wchar_t,std::char_traits<wchar_t>,std::allocator<wchar_t> > > >::id'', COMDAT

; 155  : 		void _Getvals(wchar_t, const lconv *_Ptr, _Locinfo::_Cvtvec)

	push	ebp
	mov	ebp, esp
	push	0
	mov	ecx, OFFSET ?id@?$num_put@_WV?$back_insert_iterator@V?$basic_string@_WU?$char_traits@_W@std@@V?$allocator@_W@2@@std@@@std@@@std@@2V0locale@2@A ; std::num_put<wchar_t,std::back_insert_iterator<std::basic_string<wchar_t,std::char_traits<wchar_t>,std::allocator<wchar_t> > > >::id
	call	??0id@locale@std@@QAE@I@Z		; std::locale::id::id
	pop	ebp
	ret	0
??__E?id@?$num_put@_WV?$back_insert_iterator@V?$basic_string@_WU?$char_traits@_W@std@@V?$allocator@_W@2@@std@@@std@@@std@@2V0locale@2@A@@YAXXZ ENDP ; `dynamic initializer for 'std::num_put<wchar_t,std::back_insert_iterator<std::basic_string<wchar_t,std::char_traits<wchar_t>,std::allocator<wchar_t> > > >::id''
text$yc	ENDS
; Function compile flags: /Odtp
; File c:\program files (x86)\microsoft visual studio 11.0\vc\include\xlocnum
;	COMDAT ??__E?id@?$num_put@DV?$back_insert_iterator@V?$basic_string@DU?$char_traits@D@std@@V?$allocator@D@2@@std@@@std@@@std@@2V0locale@2@A@@YAXXZ
text$yc	SEGMENT
??__E?id@?$num_put@DV?$back_insert_iterator@V?$basic_string@DU?$char_traits@D@std@@V?$allocator@D@2@@std@@@std@@@std@@2V0locale@2@A@@YAXXZ PROC ; `dynamic initializer for 'std::num_put<char,std::back_insert_iterator<std::basic_string<char,std::char_traits<char>,std::allocator<char> > > >::id'', COMDAT

; 155  : 		void _Getvals(wchar_t, const lconv *_Ptr, _Locinfo::_Cvtvec)

	push	ebp
	mov	ebp, esp
	push	0
	mov	ecx, OFFSET ?id@?$num_put@DV?$back_insert_iterator@V?$basic_string@DU?$char_traits@D@std@@V?$allocator@D@2@@std@@@std@@@std@@2V0locale@2@A ; std::num_put<char,std::back_insert_iterator<std::basic_string<char,std::char_traits<char>,std::allocator<char> > > >::id
	call	??0id@locale@std@@QAE@I@Z		; std::locale::id::id
	pop	ebp
	ret	0
??__E?id@?$num_put@DV?$back_insert_iterator@V?$basic_string@DU?$char_traits@D@std@@V?$allocator@D@2@@std@@@std@@@std@@2V0locale@2@A@@YAXXZ ENDP ; `dynamic initializer for 'std::num_put<char,std::back_insert_iterator<std::basic_string<char,std::char_traits<char>,std::allocator<char> > > >::id''
text$yc	ENDS
; Function compile flags: /Odtp
; File c:\program files (x86)\microsoft visual studio 11.0\vc\include\xmemory0
;	COMDAT ??$destroy@PAD@?$allocator_traits@V?$allocator@D@std@@@std@@SAXAAV?$allocator@D@1@PAPAD@Z
_TEXT	SEGMENT
__Al$ = 8						; size = 4
__Ptr$ = 12						; size = 4
??$destroy@PAD@?$allocator_traits@V?$allocator@D@std@@@std@@SAXAAV?$allocator@D@1@PAPAD@Z PROC ; std::allocator_traits<std::allocator<char> >::destroy<char *>, COMDAT

; 755  : 		static void destroy(_Alloc& _Al, _Uty *_Ptr)

	push	ebp
	mov	ebp, esp

; 756  : 		{	// destroy object at _Ptr
; 757  : 		_Al.destroy(_Ptr);

	mov	eax, DWORD PTR __Ptr$[ebp]
	push	eax
	mov	ecx, DWORD PTR __Al$[ebp]
	call	??$destroy@PAD@?$allocator@D@std@@QAEXPAPAD@Z ; std::allocator<char>::destroy<char *>

; 758  : 		}

	pop	ebp
	ret	0
??$destroy@PAD@?$allocator_traits@V?$allocator@D@std@@@std@@SAXAAV?$allocator@D@1@PAPAD@Z ENDP ; std::allocator_traits<std::allocator<char> >::destroy<char *>
_TEXT	ENDS
; Function compile flags: /Odtp
; File c:\program files (x86)\microsoft visual studio 11.0\vc\include\xmemory0
;	COMDAT ??$construct@PADAAPAD@?$allocator_traits@V?$allocator@D@std@@@std@@SAXAAV?$allocator@D@1@PAPADAAPAD@Z
_TEXT	SEGMENT
__Al$ = 8						; size = 4
__Ptr$ = 12						; size = 4
__V0$ = 16						; size = 4
??$construct@PADAAPAD@?$allocator_traits@V?$allocator@D@std@@@std@@SAXAAV?$allocator@D@1@PAPADAAPAD@Z PROC ; std::allocator_traits<std::allocator<char> >::construct<char *,char * &>, COMDAT

; 751  : _VARIADIC_EXPAND_0X(_ALLOC_TRAITS_SPECIAL_CONSTRUCT, , , , )

	push	ebp
	mov	ebp, esp
	mov	eax, DWORD PTR __V0$[ebp]
	push	eax
	call	??$forward@AAPAD@std@@YAAAPADAAPAD@Z	; std::forward<char * &>
	add	esp, 4
	push	eax
	mov	ecx, DWORD PTR __Ptr$[ebp]
	push	ecx
	mov	ecx, DWORD PTR __Al$[ebp]
	call	??$construct@PADAAPAD@?$allocator@D@std@@QAEXPAPADAAPAD@Z ; std::allocator<char>::construct<char *,char * &>
	pop	ebp
	ret	0
??$construct@PADAAPAD@?$allocator_traits@V?$allocator@D@std@@@std@@SAXAAV?$allocator@D@1@PAPADAAPAD@Z ENDP ; std::allocator_traits<std::allocator<char> >::construct<char *,char * &>
_TEXT	ENDS
; Function compile flags: /Odtp
; File c:\program files (x86)\microsoft visual studio 11.0\vc\include\type_traits
;	COMDAT ??$forward@AAPAD@std@@YAAAPADAAPAD@Z
_TEXT	SEGMENT
__Arg$ = 8						; size = 4
??$forward@AAPAD@std@@YAAAPADAAPAD@Z PROC		; std::forward<char * &>, COMDAT

; 1775 : 	{	// forward an lvalue

	push	ebp
	mov	ebp, esp

; 1776 : 	return (static_cast<_Ty&&>(_Arg));

	mov	eax, DWORD PTR __Arg$[ebp]

; 1777 : 	}

	pop	ebp
	ret	0
??$forward@AAPAD@std@@YAAAPADAAPAD@Z ENDP		; std::forward<char * &>
_TEXT	ENDS
; Function compile flags: /Odtp
;	COMDAT ??__F?_System_object@?$_Error_objects@H@std@@2V_System_error_category@2@A@@YAXXZ
text$yd	SEGMENT
??__F?_System_object@?$_Error_objects@H@std@@2V_System_error_category@2@A@@YAXXZ PROC ; `dynamic atexit destructor for 'std::_Error_objects<int>::_System_object'', COMDAT
	push	ebp
	mov	ebp, esp
	mov	ecx, OFFSET ?_System_object@?$_Error_objects@H@std@@2V_System_error_category@2@A ; std::_Error_objects<int>::_System_object
	call	??1_System_error_category@std@@UAE@XZ
	pop	ebp
	ret	0
??__F?_System_object@?$_Error_objects@H@std@@2V_System_error_category@2@A@@YAXXZ ENDP ; `dynamic atexit destructor for 'std::_Error_objects<int>::_System_object''
text$yd	ENDS
; Function compile flags: /Odtp
; File c:\program files (x86)\microsoft visual studio 11.0\vc\include\xmemory0
;	COMDAT ??__E?_System_object@?$_Error_objects@H@std@@2V_System_error_category@2@A@@YAXXZ
text$yc	SEGMENT
??__E?_System_object@?$_Error_objects@H@std@@2V_System_error_category@2@A@@YAXXZ PROC ; `dynamic initializer for 'std::_Error_objects<int>::_System_object'', COMDAT

; 627  : 		{	// estimate maximum array size

	push	ebp
	mov	ebp, esp
	mov	ecx, OFFSET ?_System_object@?$_Error_objects@H@std@@2V_System_error_category@2@A ; std::_Error_objects<int>::_System_object
	call	??0_System_error_category@std@@QAE@XZ	; std::_System_error_category::_System_error_category
	push	OFFSET ??__F?_System_object@?$_Error_objects@H@std@@2V_System_error_category@2@A@@YAXXZ ; `dynamic atexit destructor for 'std::_Error_objects<int>::_System_object''
	call	_atexit
	add	esp, 4
	pop	ebp
	ret	0
??__E?_System_object@?$_Error_objects@H@std@@2V_System_error_category@2@A@@YAXXZ ENDP ; `dynamic initializer for 'std::_Error_objects<int>::_System_object''
text$yc	ENDS
; Function compile flags: /Odtp
;	COMDAT ??__F?_Iostream_object@?$_Error_objects@H@std@@2V_Iostream_error_category@2@A@@YAXXZ
text$yd	SEGMENT
??__F?_Iostream_object@?$_Error_objects@H@std@@2V_Iostream_error_category@2@A@@YAXXZ PROC ; `dynamic atexit destructor for 'std::_Error_objects<int>::_Iostream_object'', COMDAT
	push	ebp
	mov	ebp, esp
	mov	ecx, OFFSET ?_Iostream_object@?$_Error_objects@H@std@@2V_Iostream_error_category@2@A ; std::_Error_objects<int>::_Iostream_object
	call	??1_Iostream_error_category@std@@UAE@XZ
	pop	ebp
	ret	0
??__F?_Iostream_object@?$_Error_objects@H@std@@2V_Iostream_error_category@2@A@@YAXXZ ENDP ; `dynamic atexit destructor for 'std::_Error_objects<int>::_Iostream_object''
text$yd	ENDS
; Function compile flags: /Odtp
; File c:\program files (x86)\microsoft visual studio 11.0\vc\include\xmemory0
;	COMDAT ??__E?_Iostream_object@?$_Error_objects@H@std@@2V_Iostream_error_category@2@A@@YAXXZ
text$yc	SEGMENT
??__E?_Iostream_object@?$_Error_objects@H@std@@2V_Iostream_error_category@2@A@@YAXXZ PROC ; `dynamic initializer for 'std::_Error_objects<int>::_Iostream_object'', COMDAT

; 627  : 		{	// estimate maximum array size

	push	ebp
	mov	ebp, esp
	mov	ecx, OFFSET ?_Iostream_object@?$_Error_objects@H@std@@2V_Iostream_error_category@2@A ; std::_Error_objects<int>::_Iostream_object
	call	??0_Iostream_error_category@std@@QAE@XZ	; std::_Iostream_error_category::_Iostream_error_category
	push	OFFSET ??__F?_Iostream_object@?$_Error_objects@H@std@@2V_Iostream_error_category@2@A@@YAXXZ ; `dynamic atexit destructor for 'std::_Error_objects<int>::_Iostream_object''
	call	_atexit
	add	esp, 4
	pop	ebp
	ret	0
??__E?_Iostream_object@?$_Error_objects@H@std@@2V_Iostream_error_category@2@A@@YAXXZ ENDP ; `dynamic initializer for 'std::_Error_objects<int>::_Iostream_object''
text$yc	ENDS
; Function compile flags: /Odtp
;	COMDAT ??__F?_Generic_object@?$_Error_objects@H@std@@2V_Generic_error_category@2@A@@YAXXZ
text$yd	SEGMENT
??__F?_Generic_object@?$_Error_objects@H@std@@2V_Generic_error_category@2@A@@YAXXZ PROC ; `dynamic atexit destructor for 'std::_Error_objects<int>::_Generic_object'', COMDAT
	push	ebp
	mov	ebp, esp
	mov	ecx, OFFSET ?_Generic_object@?$_Error_objects@H@std@@2V_Generic_error_category@2@A ; std::_Error_objects<int>::_Generic_object
	call	??1_Generic_error_category@std@@UAE@XZ
	pop	ebp
	ret	0
??__F?_Generic_object@?$_Error_objects@H@std@@2V_Generic_error_category@2@A@@YAXXZ ENDP ; `dynamic atexit destructor for 'std::_Error_objects<int>::_Generic_object''
text$yd	ENDS
; Function compile flags: /Odtp
; File c:\program files (x86)\microsoft visual studio 11.0\vc\include\xmemory0
;	COMDAT ??__E?_Generic_object@?$_Error_objects@H@std@@2V_Generic_error_category@2@A@@YAXXZ
text$yc	SEGMENT
??__E?_Generic_object@?$_Error_objects@H@std@@2V_Generic_error_category@2@A@@YAXXZ PROC ; `dynamic initializer for 'std::_Error_objects<int>::_Generic_object'', COMDAT

; 627  : 		{	// estimate maximum array size

	push	ebp
	mov	ebp, esp
	mov	ecx, OFFSET ?_Generic_object@?$_Error_objects@H@std@@2V_Generic_error_category@2@A ; std::_Error_objects<int>::_Generic_object
	call	??0_Generic_error_category@std@@QAE@XZ	; std::_Generic_error_category::_Generic_error_category
	push	OFFSET ??__F?_Generic_object@?$_Error_objects@H@std@@2V_Generic_error_category@2@A@@YAXXZ ; `dynamic atexit destructor for 'std::_Error_objects<int>::_Generic_object''
	call	_atexit
	add	esp, 4
	pop	ebp
	ret	0
??__E?_Generic_object@?$_Error_objects@H@std@@2V_Generic_error_category@2@A@@YAXXZ ENDP ; `dynamic initializer for 'std::_Error_objects<int>::_Generic_object''
text$yc	ENDS
; Function compile flags: /Odtp
; File c:\program files (x86)\microsoft visual studio 11.0\vc\include\xmemory0
;	COMDAT ??$_Allocate@D@std@@YAPADIPAD@Z
_TEXT	SEGMENT
__Ptr$ = -4						; size = 4
__Count$ = 8						; size = 4
___formal$ = 12						; size = 4
??$_Allocate@D@std@@YAPADIPAD@Z PROC			; std::_Allocate<char>, COMDAT

; 22   : 	{	// allocate storage for _Count elements of type _Ty

	push	ebp
	mov	ebp, esp
	push	ecx

; 23   : 	void *_Ptr = 0;

	mov	DWORD PTR __Ptr$[ebp], 0

; 24   : 
; 25   : 	if (_Count == 0)

	cmp	DWORD PTR __Count$[ebp], 0
	jne	SHORT $LN4@Allocate

; 26   : 		;
; 27   : 	else if (((size_t)(-1) / sizeof (_Ty) < _Count)

	jmp	SHORT $LN3@Allocate
$LN4@Allocate:

; 28   : 		|| (_Ptr = ::operator new(_Count * sizeof (_Ty))) == 0)

	cmp	DWORD PTR __Count$[ebp], -1
	ja	SHORT $LN1@Allocate
	mov	eax, DWORD PTR __Count$[ebp]
	push	eax
	call	??2@YAPAXI@Z				; operator new
	add	esp, 4
	mov	DWORD PTR __Ptr$[ebp], eax
	cmp	DWORD PTR __Ptr$[ebp], 0
	jne	SHORT $LN3@Allocate
$LN1@Allocate:

; 29   : 		_Xbad_alloc();	// report no memory

	call	?_Xbad_alloc@std@@YAXXZ			; std::_Xbad_alloc
$LN3@Allocate:

; 30   : 
; 31   : 	return ((_Ty *)_Ptr);

	mov	eax, DWORD PTR __Ptr$[ebp]
$LN6@Allocate:

; 32   : 	}

	mov	esp, ebp
	pop	ebp
	ret	0
??$_Allocate@D@std@@YAPADIPAD@Z ENDP			; std::_Allocate<char>
_TEXT	ENDS
; Function compile flags: /Odtp
; File c:\program files (x86)\microsoft visual studio 11.0\vc\include\xstddef
;	COMDAT ??$addressof@D@std@@YAPADAAD@Z
_TEXT	SEGMENT
__Val$ = 8						; size = 4
??$addressof@D@std@@YAPADAAD@Z PROC			; std::addressof<char>, COMDAT

; 85   : 	{	// return address of _Val

	push	ebp
	mov	ebp, esp

; 86   : 	return (reinterpret_cast<_Ty *>(
; 87   : 		(&const_cast<char&>(
; 88   : 		reinterpret_cast<const volatile char&>(_Val)))));

	mov	eax, DWORD PTR __Val$[ebp]

; 89   : 	}

	pop	ebp
	ret	0
??$addressof@D@std@@YAPADAAD@Z ENDP			; std::addressof<char>
_TEXT	ENDS
; Function compile flags: /Odtp
; File c:\program files (x86)\microsoft visual studio 11.0\vc\include\xmemory0
;	COMDAT ??$destroy@PAD@?$_Wrap_alloc@V?$allocator@D@std@@@std@@QAEXPAPAD@Z
_TEXT	SEGMENT
_this$ = -4						; size = 4
__Ptr$ = 8						; size = 4
??$destroy@PAD@?$_Wrap_alloc@V?$allocator@D@std@@@std@@QAEXPAPAD@Z PROC ; std::_Wrap_alloc<std::allocator<char> >::destroy<char *>, COMDAT
; _this$ = ecx

; 907  : 		void destroy(_Ty *_Ptr)

	push	ebp
	mov	ebp, esp
	push	ecx
	mov	DWORD PTR _this$[ebp], ecx

; 908  : 		{	// destroy object at _Ptr
; 909  : 		_Mytraits::destroy(*this, _Ptr);

	mov	eax, DWORD PTR __Ptr$[ebp]
	push	eax
	mov	ecx, DWORD PTR _this$[ebp]
	push	ecx
	call	??$destroy@PAD@?$allocator_traits@V?$allocator@D@std@@@std@@SAXAAV?$allocator@D@1@PAPAD@Z ; std::allocator_traits<std::allocator<char> >::destroy<char *>
	add	esp, 8

; 910  : 		}

	mov	esp, ebp
	pop	ebp
	ret	4
??$destroy@PAD@?$_Wrap_alloc@V?$allocator@D@std@@@std@@QAEXPAPAD@Z ENDP ; std::_Wrap_alloc<std::allocator<char> >::destroy<char *>
_TEXT	ENDS
; Function compile flags: /Odtp
; File c:\program files (x86)\microsoft visual studio 11.0\vc\include\xmemory0
;	COMDAT ??$construct@PADAAPAD@?$_Wrap_alloc@V?$allocator@D@std@@@std@@QAEXPAPADAAPAD@Z
_TEXT	SEGMENT
_this$ = -4						; size = 4
__Ptr$ = 8						; size = 4
__V0$ = 12						; size = 4
??$construct@PADAAPAD@?$_Wrap_alloc@V?$allocator@D@std@@@std@@QAEXPAPADAAPAD@Z PROC ; std::_Wrap_alloc<std::allocator<char> >::construct<char *,char * &>, COMDAT
; _this$ = ecx

; 903  : _VARIADIC_EXPAND_0X(_WRAP_ALLOC_CONSTRUCT, , , , )

	push	ebp
	mov	ebp, esp
	push	ecx
	mov	DWORD PTR _this$[ebp], ecx
	mov	eax, DWORD PTR __V0$[ebp]
	push	eax
	call	??$forward@AAPAD@std@@YAAAPADAAPAD@Z	; std::forward<char * &>
	add	esp, 4
	push	eax
	mov	ecx, DWORD PTR __Ptr$[ebp]
	push	ecx
	mov	edx, DWORD PTR _this$[ebp]
	push	edx
	call	??$construct@PADAAPAD@?$allocator_traits@V?$allocator@D@std@@@std@@SAXAAV?$allocator@D@1@PAPADAAPAD@Z ; std::allocator_traits<std::allocator<char> >::construct<char *,char * &>
	add	esp, 12					; 0000000cH
	mov	esp, ebp
	pop	ebp
	ret	8
??$construct@PADAAPAD@?$_Wrap_alloc@V?$allocator@D@std@@@std@@QAEXPAPADAAPAD@Z ENDP ; std::_Wrap_alloc<std::allocator<char> >::construct<char *,char * &>
_TEXT	ENDS
; Function compile flags: /Odtp
; File c:\users\zhitao li\documents\visual studio 2012\projects\freefalcon\sim\digi\landme.cpp
_TEXT	SEGMENT
_self$ = 8						; size = 4
?EngineStart@@YAHPAVAircraftClass@@@Z PROC		; EngineStart

; 3818 : {

	push	ebp
	mov	ebp, esp

; 3819 :     if (self->af->IsSet(AirframeClass::EngineStopped))

	push	134217728				; 08000000H
	mov	eax, DWORD PTR _self$[ebp]
	mov	ecx, DWORD PTR [eax+932]
	call	?IsSet@AirframeClass@@QBEHH@Z		; AirframeClass::IsSet
	test	eax, eax
	je	SHORT $LN7@EngineStar

; 3820 : 	{
; 3821 : /* RAS - not sure if this has any side effects so commenting it out for now
; 3822 : 		//RAS-5Nov04-Set Parking Brake when Starting Engines
; 3823 : 		if(!self->af->IsSet((AirframeClass::WheelBrakes)))
; 3824 : */
; 3825 : 			self->af->SetFlag(AirframeClass::WheelBrakes);

	push	8
	mov	ecx, DWORD PTR _self$[ebp]
	mov	ecx, DWORD PTR [ecx+932]
	call	?SetFlag@AirframeClass@@QAEXH@Z		; AirframeClass::SetFlag

; 3826 : 
; 3827 : 		if /*(self->af->rpm > 0.2f)*/ (self->af->IsSet(AirframeClass::JfsStart)) { // Jfs is runnning time to light

	push	268435456				; 10000000H
	mov	edx, DWORD PTR _self$[ebp]
	mov	ecx, DWORD PTR [edx+932]
	call	?IsSet@AirframeClass@@QBEHH@Z		; AirframeClass::IsSet
	test	eax, eax
	je	SHORT $LN7@EngineStar

; 3828 : 			self->af->SetThrotl(0.1f); // advance the throttle to light.

	push	ecx
	movss	xmm0, DWORD PTR __real@3dcccccd
	movss	DWORD PTR [esp], xmm0
	mov	eax, DWORD PTR _self$[ebp]
	mov	ecx, DWORD PTR [eax+932]
	call	?SetThrotl@AirframeClass@@QAEXM@Z	; AirframeClass::SetThrotl

; 3829 : 			self->af->ClearFlag(AirframeClass::EngineStopped);

	push	134217728				; 08000000H
	mov	ecx, DWORD PTR _self$[ebp]
	mov	ecx, DWORD PTR [ecx+932]
	call	?ClearFlag@AirframeClass@@QAEXH@Z	; AirframeClass::ClearFlag

; 3830 : 			self->af->engine1Throttle = 0.3F;

	mov	edx, DWORD PTR _self$[ebp]
	mov	eax, DWORD PTR [edx+932]
	movss	xmm0, DWORD PTR __real@3e99999a
	movss	DWORD PTR [eax+1520], xmm0
$LN7@EngineStar:

; 3831 : 
; 3832 : 	}
; 3833 : 	}
; 3834 : 	//TJL 01/22/04 multi-engine
; 3835 : 	if (self->af->IsEngineFlag(AirframeClass::EngineStopped2))

	push	8
	mov	ecx, DWORD PTR _self$[ebp]
	mov	ecx, DWORD PTR [ecx+932]
	call	?IsEngineFlag@AirframeClass@@QAEHW4EngineFlags@1@@Z ; AirframeClass::IsEngineFlag
	test	eax, eax
	je	SHORT $LN5@EngineStar

; 3836 : 	{
; 3837 : 		if /*(self->af->rpm2 > 0.2f)*/(self->af->IsSet(AirframeClass::JfsStart))

	push	268435456				; 10000000H
	mov	edx, DWORD PTR _self$[ebp]
	mov	ecx, DWORD PTR [edx+932]
	call	?IsSet@AirframeClass@@QBEHH@Z		; AirframeClass::IsSet
	test	eax, eax
	je	SHORT $LN5@EngineStar

; 3838 : 		{
; 3839 : 			self->af->SetThrotl(0.1f);

	push	ecx
	movss	xmm0, DWORD PTR __real@3dcccccd
	movss	DWORD PTR [esp], xmm0
	mov	eax, DWORD PTR _self$[ebp]
	mov	ecx, DWORD PTR [eax+932]
	call	?SetThrotl@AirframeClass@@QAEXM@Z	; AirframeClass::SetThrotl

; 3840 : 			self->af->ClearEngineFlag(AirframeClass::EngineStopped2);

	push	8
	mov	ecx, DWORD PTR _self$[ebp]
	mov	ecx, DWORD PTR [ecx+932]
	call	?ClearEngineFlag@AirframeClass@@QAEXW4EngineFlags@1@@Z ; AirframeClass::ClearEngineFlag

; 3841 :   		    self->af->engine2Throttle = 0.3F;

	mov	edx, DWORD PTR _self$[ebp]
	mov	eax, DWORD PTR [edx+932]
	movss	xmm0, DWORD PTR __real@3e99999a
	movss	DWORD PTR [eax+1524], xmm0
$LN5@EngineStar:

; 3842 : 		}
; 3843 : 	}
; 3844 : 
; 3845 : /*	//TJL 08/15/04 Trying to fix this
; 3846 : 	if (self->af->IsSet(AirframeClass::JfsStart)) 
; 3847 : 	{
; 3848 : 		// nothing much happening
; 3849 : 	}
; 3850 : 		else { // start the JFS
; 3851 : 	    self->af->JfsEngineStart();
; 3852 : 		return 0;
; 3853 : */
; 3854 : 
; 3855 : 	//RAS-5Nov04-Fix for Ramp Start Preflight (All items would not get accomplished because the engine
; 3856 : 	//start routine was looping in the JfsEngineStart() function
; 3857 :     if(self->af->IsSet(AirframeClass::EngineStopped))

	push	134217728				; 08000000H
	mov	ecx, DWORD PTR _self$[ebp]
	mov	ecx, DWORD PTR [ecx+932]
	call	?IsSet@AirframeClass@@QBEHH@Z		; AirframeClass::IsSet
	test	eax, eax
	je	SHORT $LN4@EngineStar

; 3858 : 	{
; 3859 : 		self->af->JfsEngineStart();

	mov	edx, DWORD PTR _self$[ebp]
	mov	ecx, DWORD PTR [edx+932]
	call	?JfsEngineStart@AirframeClass@@QAEXXZ	; AirframeClass::JfsEngineStart

; 3860 : 		return 0;

	xor	eax, eax
	jmp	$LN9@EngineStar
$LN4@EngineStar:

; 3861 : 	}
; 3862 : 	
; 3863 : 
; 3864 : 	if (self->af->rpm > 0.69f) { // at idle

	mov	eax, DWORD PTR _self$[ebp]
	mov	ecx, DWORD PTR [eax+932]
	movss	xmm0, DWORD PTR [ecx+1212]
	comiss	xmm0, DWORD PTR __real@3f30a3d7
	jbe	SHORT $LN3@EngineStar

; 3865 : 	    self->af->SetThrotl(0.0F);

	push	ecx
	movss	xmm0, DWORD PTR __real@00000000
	movss	DWORD PTR [esp], xmm0
	mov	edx, DWORD PTR _self$[ebp]
	mov	ecx, DWORD PTR [edx+932]
	call	?SetThrotl@AirframeClass@@QAEXM@Z	; AirframeClass::SetThrotl

; 3866 : 		self->af->engine1Throttle = 0.0F;

	mov	eax, DWORD PTR _self$[ebp]
	mov	ecx, DWORD PTR [eax+932]
	movss	xmm0, DWORD PTR __real@00000000
	movss	DWORD PTR [ecx+1520], xmm0

; 3867 : 		self->af->engine2Throttle = 0.0F;

	mov	edx, DWORD PTR _self$[ebp]
	mov	eax, DWORD PTR [edx+932]
	movss	xmm0, DWORD PTR __real@00000000
	movss	DWORD PTR [eax+1524], xmm0

; 3868 : 		self->DBrain()->throtl = 0.0F;

	mov	ecx, DWORD PTR _self$[ebp]
	call	?DBrain@AircraftClass@@QAEPAVDigitalBrain@@XZ ; AircraftClass::DBrain
	movss	xmm0, DWORD PTR __real@00000000
	movss	DWORD PTR [eax+40], xmm0

; 3869 : 	    return 1; // finished engine start up

	mov	eax, 1
	jmp	SHORT $LN9@EngineStar
	jmp	SHORT $LN1@EngineStar
$LN3@EngineStar:

; 3870 : 	}
; 3871 : 	else if (self->af->rpm > 0.5f) { // engine now running

	mov	ecx, DWORD PTR _self$[ebp]
	mov	edx, DWORD PTR [ecx+932]
	movss	xmm0, DWORD PTR [edx+1212]
	comiss	xmm0, DWORD PTR __real@3f000000
	jbe	SHORT $LN1@EngineStar

; 3872 : 	    self->af->SetThrotl(0.0F);

	push	ecx
	movss	xmm0, DWORD PTR __real@00000000
	movss	DWORD PTR [esp], xmm0
	mov	eax, DWORD PTR _self$[ebp]
	mov	ecx, DWORD PTR [eax+932]
	call	?SetThrotl@AirframeClass@@QAEXM@Z	; AirframeClass::SetThrotl

; 3873 : 		self->af->engine1Throttle = 0.0F;

	mov	ecx, DWORD PTR _self$[ebp]
	mov	edx, DWORD PTR [ecx+932]
	movss	xmm0, DWORD PTR __real@00000000
	movss	DWORD PTR [edx+1520], xmm0

; 3874 : 		self->af->engine2Throttle = 0.0F;

	mov	eax, DWORD PTR _self$[ebp]
	mov	ecx, DWORD PTR [eax+932]
	movss	xmm0, DWORD PTR __real@00000000
	movss	DWORD PTR [ecx+1524], xmm0
$LN1@EngineStar:

; 3875 : 	}
; 3876 :     return 0;

	xor	eax, eax
$LN9@EngineStar:

; 3877 : 	/*
; 3878 : 	
; 3879 :     }
; 3880 :     else {
; 3881 : 	*/
; 3882 : }

	pop	ebp
	ret	0
?EngineStart@@YAHPAVAircraftClass@@@Z ENDP		; EngineStart
_TEXT	ENDS
; Function compile flags: /Odtp
; File c:\users\zhitao li\documents\visual studio 2012\projects\freefalcon\falclib\include\fakerand.h
;	COMDAT ?PRANDFloatPos@@YAMXZ
_TEXT	SEGMENT
tv72 = -8						; size = 4
_x$ = -4						; size = 4
?PRANDFloatPos@@YAMXZ PROC				; PRANDFloatPos, COMDAT

; 150  : {

	push	ebp
	mov	ebp, esp
	sub	esp, 8

; 151  : //	return NRANDPOS;
; 152  : 	float	x=	(float)(GenerateFastRandom()&0xffff);

	call	?GenerateFastRandom@@YAJXZ		; GenerateFastRandom
	and	eax, 65535				; 0000ffffH
	cvtsi2ss xmm0, eax
	movss	DWORD PTR _x$[ebp], xmm0

; 153  : 	return( x / 65535.0f);

	movss	xmm0, DWORD PTR _x$[ebp]
	divss	xmm0, DWORD PTR __real@477fff00
	movss	DWORD PTR tv72[ebp], xmm0
	fld	DWORD PTR tv72[ebp]

; 154  : }

	mov	esp, ebp
	pop	ebp
	ret	0
?PRANDFloatPos@@YAMXZ ENDP				; PRANDFloatPos
_TEXT	ENDS
; Function compile flags: /Odtp
; File c:\users\zhitao li\documents\visual studio 2012\projects\freefalcon\falclib\include\fakerand.h
;	COMDAT ?GenerateFastRandom@@YAJXZ
_TEXT	SEGMENT
_FastRandom$ = -4					; size = 4
?GenerateFastRandom@@YAJXZ PROC				; GenerateFastRandom, COMDAT

; 108  : {

	push	ebp
	mov	ebp, esp
	push	ecx

; 109  : 	static long LastRandom;
; 110  : 	long	FastRandom;														// The Random Variable
; 111  : 	_asm {	
; 112  : 			push	edx

	push	edx

; 113  : 			push	eax

	push	eax

; 114  : 			RDTSC

	rdtsc

; 115  : 			add	DWORD PTR FastRandom,edx

	add	DWORD PTR _FastRandom$[ebp], edx

; 116  : 			xor	DWORD PTR FastRandom,eax

	xor	DWORD PTR _FastRandom$[ebp], eax

; 117  : 			mov	eax, DWORD PTR LastRandom

	mov	eax, DWORD PTR ?LastRandom@?1??GenerateFastRandom@@YAJXZ@4JA ; `GenerateFastRandom'::`2'::LastRandom

; 118  : 			add	DWORD PTR FastRandom,eax

	add	DWORD PTR _FastRandom$[ebp], eax

; 119  : 			add	DWORD PTR LastRandom,edx

	add	DWORD PTR ?LastRandom@?1??GenerateFastRandom@@YAJXZ@4JA, edx ; `GenerateFastRandom'::`2'::LastRandom

; 120  : 			pop	eax

	pop	eax

; 121  : 			pop	edx

	pop	edx

; 122  : 	}
; 123  : 	return(FastRandom);

	mov	eax, DWORD PTR _FastRandom$[ebp]

; 124  : }

	mov	esp, ebp
	pop	ebp
	ret	0
?GenerateFastRandom@@YAJXZ ENDP				; GenerateFastRandom
_TEXT	ENDS
; Function compile flags: /Odtp
; File c:\users\zhitao li\documents\visual studio 2012\projects\freefalcon\graphics\include\tod.h
;	COMDAT ?GetLightLevel@CTimeOfDay@@QAEMXZ
_TEXT	SEGMENT
tv71 = -8						; size = 4
_this$ = -4						; size = 4
?GetLightLevel@CTimeOfDay@@QAEMXZ PROC			; CTimeOfDay::GetLightLevel, COMDAT
; _this$ = ecx

; 108  : 	float GetLightLevel()						{ return Ambient + Diffuse; };

	push	ebp
	mov	ebp, esp
	sub	esp, 8
	mov	DWORD PTR _this$[ebp], ecx
	mov	eax, DWORD PTR _this$[ebp]
	mov	ecx, DWORD PTR _this$[ebp]
	movss	xmm0, DWORD PTR [eax+220]
	addss	xmm0, DWORD PTR [ecx+224]
	movss	DWORD PTR tv71[ebp], xmm0
	fld	DWORD PTR tv71[ebp]
	mov	esp, ebp
	pop	ebp
	ret	0
?GetLightLevel@CTimeOfDay@@QAEMXZ ENDP			; CTimeOfDay::GetLightLevel
_TEXT	ENDS
; Function compile flags: /Odtp
; File c:\users\zhitao li\documents\visual studio 2012\projects\freefalcon\sim\include\icp.h
;	COMDAT ?SetICPSecondaryMode@ICPClass@@QAEXH@Z
_TEXT	SEGMENT
_this$ = -4						; size = 4
_num$ = 8						; size = 4
?SetICPSecondaryMode@ICPClass@@QAEXH@Z PROC		; ICPClass::SetICPSecondaryMode, COMDAT
; _this$ = ecx

; 575  :    void SetICPSecondaryMode(int num) {mICPSecondaryMode = num;};

	push	ebp
	mov	ebp, esp
	push	ecx
	mov	DWORD PTR _this$[ebp], ecx
	mov	eax, DWORD PTR _this$[ebp]
	mov	ecx, DWORD PTR _num$[ebp]
	mov	DWORD PTR [eax+12], ecx
	mov	esp, ebp
	pop	ebp
	ret	4
?SetICPSecondaryMode@ICPClass@@QAEXH@Z ENDP		; ICPClass::SetICPSecondaryMode
_TEXT	ENDS
; Function compile flags: /Odtp
; File c:\users\zhitao li\documents\visual studio 2012\projects\freefalcon\sim\include\icp.h
;	COMDAT ?SetICPFlag@ICPClass@@QAEXH@Z
_TEXT	SEGMENT
_this$ = -4						; size = 4
_newFlag$ = 8						; size = 4
?SetICPFlag@ICPClass@@QAEXH@Z PROC			; ICPClass::SetICPFlag, COMDAT
; _this$ = ecx

; 497  : 	void SetICPFlag (int newFlag) {ICPModeFlags |= newFlag;};

	push	ebp
	mov	ebp, esp
	push	ecx
	mov	DWORD PTR _this$[ebp], ecx
	mov	eax, DWORD PTR _this$[ebp]
	mov	ecx, DWORD PTR [eax+1376]
	or	ecx, DWORD PTR _newFlag$[ebp]
	mov	edx, DWORD PTR _this$[ebp]
	mov	DWORD PTR [edx+1376], ecx
	mov	esp, ebp
	pop	ebp
	ret	4
?SetICPFlag@ICPClass@@QAEXH@Z ENDP			; ICPClass::SetICPFlag
_TEXT	ENDS
; Function compile flags: /Odtp
; File c:\users\zhitao li\documents\visual studio 2012\projects\freefalcon\sim\include\sms.h
;	COMDAT ?SetMasterArm@SMSBaseClass@@QAEXW4MasterArmState@1@@Z
_TEXT	SEGMENT
_this$ = -4						; size = 4
_newState$ = 8						; size = 4
?SetMasterArm@SMSBaseClass@@QAEXW4MasterArmState@1@@Z PROC ; SMSBaseClass::SetMasterArm, COMDAT
; _this$ = ecx

; 93   : 	void SetMasterArm (MasterArmState newState) {masterArm = newState;};

	push	ebp
	mov	ebp, esp
	push	ecx
	mov	DWORD PTR _this$[ebp], ecx
	mov	eax, DWORD PTR _this$[ebp]
	mov	ecx, DWORD PTR _newState$[ebp]
	mov	DWORD PTR [eax+8], ecx
	mov	esp, ebp
	pop	ebp
	ret	4
?SetMasterArm@SMSBaseClass@@QAEXW4MasterArmState@1@@Z ENDP ; SMSBaseClass::SetMasterArm
_TEXT	ENDS
; Function compile flags: /Odtp
; File c:\users\zhitao li\documents\visual studio 2012\projects\freefalcon\graphics\include\drawbsp.h
;	COMDAT ?LabelColor@DrawableBSP@@QAEKXZ
_TEXT	SEGMENT
_this$ = -4						; size = 4
?LabelColor@DrawableBSP@@QAEKXZ PROC			; DrawableBSP::LabelColor, COMDAT
; _this$ = ecx

; 63   : 	DWORD LabelColor()										{ return labelColor; }

	push	ebp
	mov	ebp, esp
	push	ecx
	mov	DWORD PTR _this$[ebp], ecx
	mov	eax, DWORD PTR _this$[ebp]
	mov	eax, DWORD PTR [eax+164]
	mov	esp, ebp
	pop	ebp
	ret	0
?LabelColor@DrawableBSP@@QAEKXZ ENDP			; DrawableBSP::LabelColor
_TEXT	ENDS
; Function compile flags: /Odtp
; File c:\users\zhitao li\documents\visual studio 2012\projects\freefalcon\graphics\include\drawobj.h
;	COMDAT ?Radius@DrawableObject@@QBEMXZ
_TEXT	SEGMENT
_this$ = -4						; size = 4
?Radius@DrawableObject@@QBEMXZ PROC			; DrawableObject::Radius, COMDAT
; _this$ = ecx

; 27   : 	float Radius() const { return radius; }

	push	ebp
	mov	ebp, esp
	push	ecx
	mov	DWORD PTR _this$[ebp], ecx
	mov	eax, DWORD PTR _this$[ebp]
	fld	DWORD PTR [eax+16]
	mov	esp, ebp
	pop	ebp
	ret	0
?Radius@DrawableObject@@QBEMXZ ENDP			; DrawableObject::Radius
_TEXT	ENDS
; Function compile flags: /Odtp
; File c:\users\zhitao li\documents\visual studio 2012\projects\freefalcon\falclib\include\playerop.h
;	COMDAT ?GetStartFlag@PlayerOptionsClass@@QAE?AW4StartFlag@1@XZ
_TEXT	SEGMENT
_this$ = -8						; size = 4
tv65 = -4						; size = 4
?GetStartFlag@PlayerOptionsClass@@QAE?AW4StartFlag@1@XZ PROC ; PlayerOptionsClass::GetStartFlag, COMDAT
; _this$ = ecx

; 201  : 		{ 

	push	ebp
	mov	ebp, esp
	sub	esp, 8
	mov	DWORD PTR _this$[ebp], ecx

; 202  : 			switch(SimStartFlags) // MLR 12/11/2003 - Sanity check

	mov	eax, DWORD PTR _this$[ebp]
	mov	ecx, DWORD PTR [eax+196]
	mov	DWORD PTR tv65[ebp], ecx
	cmp	DWORD PTR tv65[ebp], 0
	jl	SHORT $LN2@GetStartFl
	cmp	DWORD PTR tv65[ebp], 2
	jle	SHORT $LN1@GetStartFl
	jmp	SHORT $LN2@GetStartFl
$LN1@GetStartFl:

; 203  : 			{
; 204  : 			case START_RUNWAY:
; 205  : 			case START_TAXI:
; 206  : 			case START_RAMP:
; 207  : 				return(SimStartFlags); 

	mov	edx, DWORD PTR _this$[ebp]
	mov	eax, DWORD PTR [edx+196]
	jmp	SHORT $LN4@GetStartFl
$LN2@GetStartFl:

; 208  : 			}
; 209  : 			return(START_RUNWAY);

	xor	eax, eax
$LN4@GetStartFl:

; 210  : 		}

	mov	esp, ebp
	pop	ebp
	ret	0
?GetStartFlag@PlayerOptionsClass@@QAE?AW4StartFlag@1@XZ ENDP ; PlayerOptionsClass::GetStartFlag
_TEXT	ENDS
; Function compile flags: /Odtp
;	COMDAT ??_G_System_error_category@std@@UAEPAXI@Z
_TEXT	SEGMENT
_this$ = -4						; size = 4
___flags$ = 8						; size = 4
??_G_System_error_category@std@@UAEPAXI@Z PROC		; std::_System_error_category::`scalar deleting destructor', COMDAT
; _this$ = ecx
	push	ebp
	mov	ebp, esp
	push	ecx
	mov	DWORD PTR _this$[ebp], ecx
	mov	ecx, DWORD PTR _this$[ebp]
	call	??1_System_error_category@std@@UAE@XZ
	mov	eax, DWORD PTR ___flags$[ebp]
	and	eax, 1
	je	SHORT $LN1@scalar
	mov	ecx, DWORD PTR _this$[ebp]
	push	ecx
	call	??3@YAXPAX@Z				; operator delete
	add	esp, 4
$LN1@scalar:
	mov	eax, DWORD PTR _this$[ebp]
	mov	esp, ebp
	pop	ebp
	ret	4
??_G_System_error_category@std@@UAEPAXI@Z ENDP		; std::_System_error_category::`scalar deleting destructor'
_TEXT	ENDS
; Function compile flags: /Odtp
;	COMDAT ??1_System_error_category@std@@UAE@XZ
_TEXT	SEGMENT
_this$ = -4						; size = 4
??1_System_error_category@std@@UAE@XZ PROC		; std::_System_error_category::~_System_error_category, COMDAT
; _this$ = ecx
	push	ebp
	mov	ebp, esp
	push	ecx
	mov	DWORD PTR _this$[ebp], ecx
	mov	ecx, DWORD PTR _this$[ebp]
	call	??1_Generic_error_category@std@@UAE@XZ
	mov	esp, ebp
	pop	ebp
	ret	0
??1_System_error_category@std@@UAE@XZ ENDP		; std::_System_error_category::~_System_error_category
_TEXT	ENDS
; Function compile flags: /Odtp
; File c:\program files (x86)\microsoft visual studio 11.0\vc\include\system_error
;	COMDAT ?default_error_condition@_System_error_category@std@@UBE?AVerror_condition@2@H@Z
_TEXT	SEGMENT
_this$ = -4						; size = 4
___$ReturnUdt$ = 8					; size = 4
__Errval$ = 12						; size = 4
?default_error_condition@_System_error_category@std@@UBE?AVerror_condition@2@H@Z PROC ; std::_System_error_category::default_error_condition, COMDAT
; _this$ = ecx

; 641  : 		{	// make error_condition for error code (generic if possible)

	push	ebp
	mov	ebp, esp
	push	ecx
	mov	DWORD PTR _this$[ebp], ecx

; 642  : 		if (_Syserror_map(_Errval))

	mov	eax, DWORD PTR __Errval$[ebp]
	push	eax
	call	?_Syserror_map@std@@YAPBDH@Z		; std::_Syserror_map
	add	esp, 4
	test	eax, eax
	je	SHORT $LN2@default_er

; 643  : 			return (error_condition(_Errval, generic_category()));

	call	?generic_category@std@@YAABVerror_category@1@XZ ; std::generic_category
	push	eax
	mov	ecx, DWORD PTR __Errval$[ebp]
	push	ecx
	mov	ecx, DWORD PTR ___$ReturnUdt$[ebp]
	call	??0error_condition@std@@QAE@HABVerror_category@1@@Z ; std::error_condition::error_condition
	mov	eax, DWORD PTR ___$ReturnUdt$[ebp]
	jmp	SHORT $LN3@default_er

; 644  : 		else

	jmp	SHORT $LN3@default_er
$LN2@default_er:

; 645  : 			return (error_condition(_Errval, system_category()));

	call	?system_category@std@@YAABVerror_category@1@XZ ; std::system_category
	push	eax
	mov	edx, DWORD PTR __Errval$[ebp]
	push	edx
	mov	ecx, DWORD PTR ___$ReturnUdt$[ebp]
	call	??0error_condition@std@@QAE@HABVerror_category@1@@Z ; std::error_condition::error_condition
	mov	eax, DWORD PTR ___$ReturnUdt$[ebp]
$LN3@default_er:

; 646  : 		}

	mov	esp, ebp
	pop	ebp
	ret	8
?default_error_condition@_System_error_category@std@@UBE?AVerror_condition@2@H@Z ENDP ; std::_System_error_category::default_error_condition
_TEXT	ENDS
; Function compile flags: /Odtp
; File c:\program files (x86)\microsoft visual studio 11.0\vc\include\system_error
;	COMDAT ?message@_System_error_category@std@@UBE?AV?$basic_string@DU?$char_traits@D@std@@V?$allocator@D@2@@2@H@Z
_TEXT	SEGMENT
_this$ = -16						; size = 4
$T1 = -12						; size = 4
tv69 = -8						; size = 4
__Name$ = -4						; size = 4
___$ReturnUdt$ = 8					; size = 4
__Errcode$ = 12						; size = 4
?message@_System_error_category@std@@UBE?AV?$basic_string@DU?$char_traits@D@std@@V?$allocator@D@2@@2@H@Z PROC ; std::_System_error_category::message, COMDAT
; _this$ = ecx

; 634  : 		{	// convert to name of error

	push	ebp
	mov	ebp, esp
	sub	esp, 16					; 00000010H
	mov	DWORD PTR _this$[ebp], ecx
	mov	DWORD PTR $T1[ebp], 0

; 635  : 		const char *_Name = _Winerror_map(_Errcode);

	mov	eax, DWORD PTR __Errcode$[ebp]
	push	eax
	call	?_Winerror_map@std@@YAPBDH@Z		; std::_Winerror_map
	add	esp, 4
	mov	DWORD PTR __Name$[ebp], eax

; 636  : 		return (string(_Name != 0 ? _Name : "unknown error"));

	cmp	DWORD PTR __Name$[ebp], 0
	je	SHORT $LN3@message
	mov	ecx, DWORD PTR __Name$[ebp]
	mov	DWORD PTR tv69[ebp], ecx
	jmp	SHORT $LN4@message
$LN3@message:
	mov	DWORD PTR tv69[ebp], OFFSET ??_C@_0O@BFJCFAAK@unknown?5error?$AA@
$LN4@message:
	mov	edx, DWORD PTR tv69[ebp]
	push	edx
	mov	ecx, DWORD PTR ___$ReturnUdt$[ebp]
	call	??0?$basic_string@DU?$char_traits@D@std@@V?$allocator@D@2@@std@@QAE@PBD@Z ; std::basic_string<char,std::char_traits<char>,std::allocator<char> >::basic_string<char,std::char_traits<char>,std::allocator<char> >
	mov	eax, DWORD PTR $T1[ebp]
	or	eax, 1
	mov	DWORD PTR $T1[ebp], eax
	mov	eax, DWORD PTR ___$ReturnUdt$[ebp]

; 637  : 		}

	mov	esp, ebp
	pop	ebp
	ret	8
?message@_System_error_category@std@@UBE?AV?$basic_string@DU?$char_traits@D@std@@V?$allocator@D@2@@2@H@Z ENDP ; std::_System_error_category::message
_TEXT	ENDS
; Function compile flags: /Odtp
; File c:\program files (x86)\microsoft visual studio 11.0\vc\include\system_error
;	COMDAT ?name@_System_error_category@std@@UBEPBDXZ
_TEXT	SEGMENT
_this$ = -4						; size = 4
?name@_System_error_category@std@@UBEPBDXZ PROC		; std::_System_error_category::name, COMDAT
; _this$ = ecx

; 629  : 		{	// get name of category

	push	ebp
	mov	ebp, esp
	push	ecx
	mov	DWORD PTR _this$[ebp], ecx

; 630  : 		return ("system");

	mov	eax, OFFSET ??_C@_06FHFOAHML@system?$AA@

; 631  : 		}

	mov	esp, ebp
	pop	ebp
	ret	0
?name@_System_error_category@std@@UBEPBDXZ ENDP		; std::_System_error_category::name
_TEXT	ENDS
; Function compile flags: /Odtp
; File c:\program files (x86)\microsoft visual studio 11.0\vc\include\system_error
;	COMDAT ??0_System_error_category@std@@QAE@XZ
_TEXT	SEGMENT
_this$ = -4						; size = 4
??0_System_error_category@std@@QAE@XZ PROC		; std::_System_error_category::_System_error_category, COMDAT
; _this$ = ecx

; 624  : 	_System_error_category()

	push	ebp
	mov	ebp, esp
	push	ecx
	mov	DWORD PTR _this$[ebp], ecx
	mov	ecx, DWORD PTR _this$[ebp]
	call	??0_Generic_error_category@std@@QAE@XZ	; std::_Generic_error_category::_Generic_error_category
	mov	eax, DWORD PTR _this$[ebp]
	mov	DWORD PTR [eax], OFFSET ??_7_System_error_category@std@@6B@

; 625  : 		{	// default constructor
; 626  : 		}

	mov	eax, DWORD PTR _this$[ebp]
	mov	esp, ebp
	pop	ebp
	ret	0
??0_System_error_category@std@@QAE@XZ ENDP		; std::_System_error_category::_System_error_category
_TEXT	ENDS
; Function compile flags: /Odtp
;	COMDAT ??_G_Iostream_error_category@std@@UAEPAXI@Z
_TEXT	SEGMENT
_this$ = -4						; size = 4
___flags$ = 8						; size = 4
??_G_Iostream_error_category@std@@UAEPAXI@Z PROC	; std::_Iostream_error_category::`scalar deleting destructor', COMDAT
; _this$ = ecx
	push	ebp
	mov	ebp, esp
	push	ecx
	mov	DWORD PTR _this$[ebp], ecx
	mov	ecx, DWORD PTR _this$[ebp]
	call	??1_Iostream_error_category@std@@UAE@XZ
	mov	eax, DWORD PTR ___flags$[ebp]
	and	eax, 1
	je	SHORT $LN1@scalar
	mov	ecx, DWORD PTR _this$[ebp]
	push	ecx
	call	??3@YAXPAX@Z				; operator delete
	add	esp, 4
$LN1@scalar:
	mov	eax, DWORD PTR _this$[ebp]
	mov	esp, ebp
	pop	ebp
	ret	4
??_G_Iostream_error_category@std@@UAEPAXI@Z ENDP	; std::_Iostream_error_category::`scalar deleting destructor'
_TEXT	ENDS
; Function compile flags: /Odtp
;	COMDAT ??1_Iostream_error_category@std@@UAE@XZ
_TEXT	SEGMENT
_this$ = -4						; size = 4
??1_Iostream_error_category@std@@UAE@XZ PROC		; std::_Iostream_error_category::~_Iostream_error_category, COMDAT
; _this$ = ecx
	push	ebp
	mov	ebp, esp
	push	ecx
	mov	DWORD PTR _this$[ebp], ecx
	mov	ecx, DWORD PTR _this$[ebp]
	call	??1_Generic_error_category@std@@UAE@XZ
	mov	esp, ebp
	pop	ebp
	ret	0
??1_Iostream_error_category@std@@UAE@XZ ENDP		; std::_Iostream_error_category::~_Iostream_error_category
_TEXT	ENDS
; Function compile flags: /Odtp
; File c:\program files (x86)\microsoft visual studio 11.0\vc\include\system_error
;	COMDAT ?message@_Iostream_error_category@std@@UBE?AV?$basic_string@DU?$char_traits@D@std@@V?$allocator@D@2@@2@H@Z
_TEXT	SEGMENT
_this$ = -8						; size = 4
$T1 = -4						; size = 4
___$ReturnUdt$ = 8					; size = 4
__Errcode$ = 12						; size = 4
?message@_Iostream_error_category@std@@UBE?AV?$basic_string@DU?$char_traits@D@std@@V?$allocator@D@2@@2@H@Z PROC ; std::_Iostream_error_category::message, COMDAT
; _this$ = ecx

; 611  : 		{	// convert to name of error

	push	ebp
	mov	ebp, esp
	sub	esp, 8
	mov	DWORD PTR _this$[ebp], ecx
	mov	DWORD PTR $T1[ebp], 0

; 612  : 		if (_Errcode == (int)io_errc::stream)

	cmp	DWORD PTR __Errcode$[ebp], 1
	jne	SHORT $LN2@message

; 613  : 			return ("iostream stream error");

	push	OFFSET ??_C@_0BG@PADBLCHM@iostream?5stream?5error?$AA@
	mov	ecx, DWORD PTR ___$ReturnUdt$[ebp]
	call	??0?$basic_string@DU?$char_traits@D@std@@V?$allocator@D@2@@std@@QAE@PBD@Z ; std::basic_string<char,std::char_traits<char>,std::allocator<char> >::basic_string<char,std::char_traits<char>,std::allocator<char> >
	mov	eax, DWORD PTR $T1[ebp]
	or	eax, 1
	mov	DWORD PTR $T1[ebp], eax
	mov	eax, DWORD PTR ___$ReturnUdt$[ebp]
	jmp	SHORT $LN3@message

; 614  : 		else

	jmp	SHORT $LN3@message
$LN2@message:

; 615  : 			return (_Generic_error_category::message(_Errcode));

	mov	ecx, DWORD PTR __Errcode$[ebp]
	push	ecx
	mov	edx, DWORD PTR ___$ReturnUdt$[ebp]
	push	edx
	mov	ecx, DWORD PTR _this$[ebp]
	call	?message@_Generic_error_category@std@@UBE?AV?$basic_string@DU?$char_traits@D@std@@V?$allocator@D@2@@2@H@Z ; std::_Generic_error_category::message
	mov	eax, DWORD PTR $T1[ebp]
	or	eax, 1
	mov	DWORD PTR $T1[ebp], eax
	mov	eax, DWORD PTR ___$ReturnUdt$[ebp]
$LN3@message:

; 616  : 		}

	mov	esp, ebp
	pop	ebp
	ret	8
?message@_Iostream_error_category@std@@UBE?AV?$basic_string@DU?$char_traits@D@std@@V?$allocator@D@2@@2@H@Z ENDP ; std::_Iostream_error_category::message
_TEXT	ENDS
; Function compile flags: /Odtp
; File c:\program files (x86)\microsoft visual studio 11.0\vc\include\system_error
;	COMDAT ?name@_Iostream_error_category@std@@UBEPBDXZ
_TEXT	SEGMENT
_this$ = -4						; size = 4
?name@_Iostream_error_category@std@@UBEPBDXZ PROC	; std::_Iostream_error_category::name, COMDAT
; _this$ = ecx

; 606  : 		{	// get name of category

	push	ebp
	mov	ebp, esp
	push	ecx
	mov	DWORD PTR _this$[ebp], ecx

; 607  : 		return ("iostream");

	mov	eax, OFFSET ??_C@_08LLGCOLLL@iostream?$AA@

; 608  : 		}

	mov	esp, ebp
	pop	ebp
	ret	0
?name@_Iostream_error_category@std@@UBEPBDXZ ENDP	; std::_Iostream_error_category::name
_TEXT	ENDS
; Function compile flags: /Odtp
; File c:\program files (x86)\microsoft visual studio 11.0\vc\include\system_error
;	COMDAT ??0_Iostream_error_category@std@@QAE@XZ
_TEXT	SEGMENT
_this$ = -4						; size = 4
??0_Iostream_error_category@std@@QAE@XZ PROC		; std::_Iostream_error_category::_Iostream_error_category, COMDAT
; _this$ = ecx

; 601  : 	_Iostream_error_category()

	push	ebp
	mov	ebp, esp
	push	ecx
	mov	DWORD PTR _this$[ebp], ecx
	mov	ecx, DWORD PTR _this$[ebp]
	call	??0_Generic_error_category@std@@QAE@XZ	; std::_Generic_error_category::_Generic_error_category
	mov	eax, DWORD PTR _this$[ebp]
	mov	DWORD PTR [eax], OFFSET ??_7_Iostream_error_category@std@@6B@

; 602  : 		{	// default constructor
; 603  : 		}

	mov	eax, DWORD PTR _this$[ebp]
	mov	esp, ebp
	pop	ebp
	ret	0
??0_Iostream_error_category@std@@QAE@XZ ENDP		; std::_Iostream_error_category::_Iostream_error_category
_TEXT	ENDS
; Function compile flags: /Odtp
;	COMDAT ??_G_Generic_error_category@std@@UAEPAXI@Z
_TEXT	SEGMENT
_this$ = -4						; size = 4
___flags$ = 8						; size = 4
??_G_Generic_error_category@std@@UAEPAXI@Z PROC		; std::_Generic_error_category::`scalar deleting destructor', COMDAT
; _this$ = ecx
	push	ebp
	mov	ebp, esp
	push	ecx
	mov	DWORD PTR _this$[ebp], ecx
	mov	ecx, DWORD PTR _this$[ebp]
	call	??1_Generic_error_category@std@@UAE@XZ
	mov	eax, DWORD PTR ___flags$[ebp]
	and	eax, 1
	je	SHORT $LN1@scalar
	mov	ecx, DWORD PTR _this$[ebp]
	push	ecx
	call	??3@YAXPAX@Z				; operator delete
	add	esp, 4
$LN1@scalar:
	mov	eax, DWORD PTR _this$[ebp]
	mov	esp, ebp
	pop	ebp
	ret	4
??_G_Generic_error_category@std@@UAEPAXI@Z ENDP		; std::_Generic_error_category::`scalar deleting destructor'
_TEXT	ENDS
; Function compile flags: /Odtp
;	COMDAT ??1_Generic_error_category@std@@UAE@XZ
_TEXT	SEGMENT
_this$ = -4						; size = 4
??1_Generic_error_category@std@@UAE@XZ PROC		; std::_Generic_error_category::~_Generic_error_category, COMDAT
; _this$ = ecx
	push	ebp
	mov	ebp, esp
	push	ecx
	mov	DWORD PTR _this$[ebp], ecx
	mov	ecx, DWORD PTR _this$[ebp]
	call	??1error_category@std@@UAE@XZ		; std::error_category::~error_category
	mov	esp, ebp
	pop	ebp
	ret	0
??1_Generic_error_category@std@@UAE@XZ ENDP		; std::_Generic_error_category::~_Generic_error_category
_TEXT	ENDS
; Function compile flags: /Odtp
; File c:\program files (x86)\microsoft visual studio 11.0\vc\include\system_error
;	COMDAT ?message@_Generic_error_category@std@@UBE?AV?$basic_string@DU?$char_traits@D@std@@V?$allocator@D@2@@2@H@Z
_TEXT	SEGMENT
_this$ = -16						; size = 4
$T1 = -12						; size = 4
tv69 = -8						; size = 4
__Name$ = -4						; size = 4
___$ReturnUdt$ = 8					; size = 4
__Errcode$ = 12						; size = 4
?message@_Generic_error_category@std@@UBE?AV?$basic_string@DU?$char_traits@D@std@@V?$allocator@D@2@@2@H@Z PROC ; std::_Generic_error_category::message, COMDAT
; _this$ = ecx

; 590  : 		{	// convert to name of error

	push	ebp
	mov	ebp, esp
	sub	esp, 16					; 00000010H
	mov	DWORD PTR _this$[ebp], ecx
	mov	DWORD PTR $T1[ebp], 0

; 591  : 		const char *_Name = _Syserror_map(_Errcode);

	mov	eax, DWORD PTR __Errcode$[ebp]
	push	eax
	call	?_Syserror_map@std@@YAPBDH@Z		; std::_Syserror_map
	add	esp, 4
	mov	DWORD PTR __Name$[ebp], eax

; 592  : 		return (string(_Name != 0 ? _Name : "unknown error"));

	cmp	DWORD PTR __Name$[ebp], 0
	je	SHORT $LN3@message
	mov	ecx, DWORD PTR __Name$[ebp]
	mov	DWORD PTR tv69[ebp], ecx
	jmp	SHORT $LN4@message
$LN3@message:
	mov	DWORD PTR tv69[ebp], OFFSET ??_C@_0O@BFJCFAAK@unknown?5error?$AA@
$LN4@message:
	mov	edx, DWORD PTR tv69[ebp]
	push	edx
	mov	ecx, DWORD PTR ___$ReturnUdt$[ebp]
	call	??0?$basic_string@DU?$char_traits@D@std@@V?$allocator@D@2@@std@@QAE@PBD@Z ; std::basic_string<char,std::char_traits<char>,std::allocator<char> >::basic_string<char,std::char_traits<char>,std::allocator<char> >
	mov	eax, DWORD PTR $T1[ebp]
	or	eax, 1
	mov	DWORD PTR $T1[ebp], eax
	mov	eax, DWORD PTR ___$ReturnUdt$[ebp]

; 593  : 		}

	mov	esp, ebp
	pop	ebp
	ret	8
?message@_Generic_error_category@std@@UBE?AV?$basic_string@DU?$char_traits@D@std@@V?$allocator@D@2@@2@H@Z ENDP ; std::_Generic_error_category::message
_TEXT	ENDS
; Function compile flags: /Odtp
; File c:\program files (x86)\microsoft visual studio 11.0\vc\include\system_error
;	COMDAT ?name@_Generic_error_category@std@@UBEPBDXZ
_TEXT	SEGMENT
_this$ = -4						; size = 4
?name@_Generic_error_category@std@@UBEPBDXZ PROC	; std::_Generic_error_category::name, COMDAT
; _this$ = ecx

; 585  : 		{	// get name of category

	push	ebp
	mov	ebp, esp
	push	ecx
	mov	DWORD PTR _this$[ebp], ecx

; 586  : 		return ("generic");

	mov	eax, OFFSET ??_C@_07DCLBNMLN@generic?$AA@

; 587  : 		}

	mov	esp, ebp
	pop	ebp
	ret	0
?name@_Generic_error_category@std@@UBEPBDXZ ENDP	; std::_Generic_error_category::name
_TEXT	ENDS
; Function compile flags: /Odtp
; File c:\program files (x86)\microsoft visual studio 11.0\vc\include\system_error
;	COMDAT ??0_Generic_error_category@std@@QAE@XZ
_TEXT	SEGMENT
_this$ = -4						; size = 4
??0_Generic_error_category@std@@QAE@XZ PROC		; std::_Generic_error_category::_Generic_error_category, COMDAT
; _this$ = ecx

; 580  : 	_Generic_error_category()

	push	ebp
	mov	ebp, esp
	push	ecx
	mov	DWORD PTR _this$[ebp], ecx
	mov	ecx, DWORD PTR _this$[ebp]
	call	??0error_category@std@@QAE@XZ		; std::error_category::error_category
	mov	eax, DWORD PTR _this$[ebp]
	mov	DWORD PTR [eax], OFFSET ??_7_Generic_error_category@std@@6B@

; 581  : 		{	// default constructor
; 582  : 		}

	mov	eax, DWORD PTR _this$[ebp]
	mov	esp, ebp
	pop	ebp
	ret	0
??0_Generic_error_category@std@@QAE@XZ ENDP		; std::_Generic_error_category::_Generic_error_category
_TEXT	ENDS
; Function compile flags: /Odtp
; File c:\program files (x86)\microsoft visual studio 11.0\vc\include\system_error
;	COMDAT ??8error_condition@std@@QBE_NABV01@@Z
_TEXT	SEGMENT
tv78 = -8						; size = 4
_this$ = -4						; size = 4
__Right$ = 8						; size = 4
??8error_condition@std@@QBE_NABV01@@Z PROC		; std::error_condition::operator==, COMDAT
; _this$ = ecx

; 376  : 		{	// test if *this == _Right

	push	ebp
	mov	ebp, esp
	sub	esp, 8
	push	esi
	mov	DWORD PTR _this$[ebp], ecx

; 377  : 		return (category() == _Right.category()
; 378  : 			&& value() == _Right.value());

	mov	ecx, DWORD PTR __Right$[ebp]
	call	?category@error_condition@std@@QBEABVerror_category@2@XZ ; std::error_condition::category
	push	eax
	mov	ecx, DWORD PTR _this$[ebp]
	call	?category@error_condition@std@@QBEABVerror_category@2@XZ ; std::error_condition::category
	mov	ecx, eax
	call	??8error_category@std@@QBE_NABV01@@Z	; std::error_category::operator==
	movzx	eax, al
	test	eax, eax
	je	SHORT $LN3@operator
	mov	ecx, DWORD PTR _this$[ebp]
	call	?value@error_condition@std@@QBEHXZ	; std::error_condition::value
	mov	esi, eax
	mov	ecx, DWORD PTR __Right$[ebp]
	call	?value@error_condition@std@@QBEHXZ	; std::error_condition::value
	cmp	esi, eax
	jne	SHORT $LN3@operator
	mov	DWORD PTR tv78[ebp], 1
	jmp	SHORT $LN4@operator
$LN3@operator:
	mov	DWORD PTR tv78[ebp], 0
$LN4@operator:
	mov	al, BYTE PTR tv78[ebp]

; 379  : 		}

	pop	esi
	mov	esp, ebp
	pop	ebp
	ret	4
??8error_condition@std@@QBE_NABV01@@Z ENDP		; std::error_condition::operator==
_TEXT	ENDS
; Function compile flags: /Odtp
; File c:\program files (x86)\microsoft visual studio 11.0\vc\include\system_error
;	COMDAT ?category@error_condition@std@@QBEABVerror_category@2@XZ
_TEXT	SEGMENT
_this$ = -4						; size = 4
?category@error_condition@std@@QBEABVerror_category@2@XZ PROC ; std::error_condition::category, COMDAT
; _this$ = ecx

; 354  : 		{	// get category

	push	ebp
	mov	ebp, esp
	push	ecx
	mov	DWORD PTR _this$[ebp], ecx

; 355  : 		return (*_Mycat);

	mov	eax, DWORD PTR _this$[ebp]
	mov	eax, DWORD PTR [eax+4]

; 356  : 		}

	mov	esp, ebp
	pop	ebp
	ret	0
?category@error_condition@std@@QBEABVerror_category@2@XZ ENDP ; std::error_condition::category
_TEXT	ENDS
; Function compile flags: /Odtp
; File c:\program files (x86)\microsoft visual studio 11.0\vc\include\system_error
;	COMDAT ?value@error_condition@std@@QBEHXZ
_TEXT	SEGMENT
_this$ = -4						; size = 4
?value@error_condition@std@@QBEHXZ PROC			; std::error_condition::value, COMDAT
; _this$ = ecx

; 349  : 		{	// get error code

	push	ebp
	mov	ebp, esp
	push	ecx
	mov	DWORD PTR _this$[ebp], ecx

; 350  : 		return (_Myval);

	mov	eax, DWORD PTR _this$[ebp]
	mov	eax, DWORD PTR [eax]

; 351  : 		}

	mov	esp, ebp
	pop	ebp
	ret	0
?value@error_condition@std@@QBEHXZ ENDP			; std::error_condition::value
_TEXT	ENDS
; Function compile flags: /Odtp
; File c:\program files (x86)\microsoft visual studio 11.0\vc\include\system_error
;	COMDAT ??0error_condition@std@@QAE@HABVerror_category@1@@Z
_TEXT	SEGMENT
_this$ = -4						; size = 4
__Val$ = 8						; size = 4
__Cat$ = 12						; size = 4
??0error_condition@std@@QAE@HABVerror_category@1@@Z PROC ; std::error_condition::error_condition, COMDAT
; _this$ = ecx

; 316  : 		{	// construct from error code and category

	push	ebp
	mov	ebp, esp
	push	ecx
	mov	DWORD PTR _this$[ebp], ecx
	mov	eax, DWORD PTR _this$[ebp]
	mov	ecx, DWORD PTR __Val$[ebp]
	mov	DWORD PTR [eax], ecx
	mov	edx, DWORD PTR _this$[ebp]
	mov	eax, DWORD PTR __Cat$[ebp]
	mov	DWORD PTR [edx+4], eax

; 317  : 		}

	mov	eax, DWORD PTR _this$[ebp]
	mov	esp, ebp
	pop	ebp
	ret	8
??0error_condition@std@@QAE@HABVerror_category@1@@Z ENDP ; std::error_condition::error_condition
_TEXT	ENDS
; Function compile flags: /Odtp
; File c:\program files (x86)\microsoft visual studio 11.0\vc\include\system_error
;	COMDAT ?category@error_code@std@@QBEABVerror_category@2@XZ
_TEXT	SEGMENT
_this$ = -4						; size = 4
?category@error_code@std@@QBEABVerror_category@2@XZ PROC ; std::error_code::category, COMDAT
; _this$ = ecx

; 256  : 		{	// get category

	push	ebp
	mov	ebp, esp
	push	ecx
	mov	DWORD PTR _this$[ebp], ecx

; 257  : 		return (*_Mycat);

	mov	eax, DWORD PTR _this$[ebp]
	mov	eax, DWORD PTR [eax+4]

; 258  : 		}

	mov	esp, ebp
	pop	ebp
	ret	0
?category@error_code@std@@QBEABVerror_category@2@XZ ENDP ; std::error_code::category
_TEXT	ENDS
; Function compile flags: /Odtp
; File c:\program files (x86)\microsoft visual studio 11.0\vc\include\system_error
;	COMDAT ?value@error_code@std@@QBEHXZ
_TEXT	SEGMENT
_this$ = -4						; size = 4
?value@error_code@std@@QBEHXZ PROC			; std::error_code::value, COMDAT
; _this$ = ecx

; 251  : 		{	// get error code

	push	ebp
	mov	ebp, esp
	push	ecx
	mov	DWORD PTR _this$[ebp], ecx

; 252  : 		return (_Myval);

	mov	eax, DWORD PTR _this$[ebp]
	mov	eax, DWORD PTR [eax]

; 253  : 		}

	mov	esp, ebp
	pop	ebp
	ret	0
?value@error_code@std@@QBEHXZ ENDP			; std::error_code::value
_TEXT	ENDS
; Function compile flags: /Odtp
;	COMDAT ??_Gerror_category@std@@UAEPAXI@Z
_TEXT	SEGMENT
_this$ = -4						; size = 4
___flags$ = 8						; size = 4
??_Gerror_category@std@@UAEPAXI@Z PROC			; std::error_category::`scalar deleting destructor', COMDAT
; _this$ = ecx
	push	ebp
	mov	ebp, esp
	push	ecx
	mov	DWORD PTR _this$[ebp], ecx
	mov	ecx, DWORD PTR _this$[ebp]
	call	??1error_category@std@@UAE@XZ		; std::error_category::~error_category
	mov	eax, DWORD PTR ___flags$[ebp]
	and	eax, 1
	je	SHORT $LN1@scalar
	mov	ecx, DWORD PTR _this$[ebp]
	push	ecx
	call	??3@YAXPAX@Z				; operator delete
	add	esp, 4
$LN1@scalar:
	mov	eax, DWORD PTR _this$[ebp]
	mov	esp, ebp
	pop	ebp
	ret	4
??_Gerror_category@std@@UAEPAXI@Z ENDP			; std::error_category::`scalar deleting destructor'
_TEXT	ENDS
; Function compile flags: /Odtp
; File c:\program files (x86)\microsoft visual studio 11.0\vc\include\system_error
;	COMDAT ??8error_category@std@@QBE_NABV01@@Z
_TEXT	SEGMENT
_this$ = -8						; size = 4
tv65 = -4						; size = 4
__Right$ = 8						; size = 4
??8error_category@std@@QBE_NABV01@@Z PROC		; std::error_category::operator==, COMDAT
; _this$ = ecx

; 184  : 		{	// compare categories for equality

	push	ebp
	mov	ebp, esp
	sub	esp, 8
	mov	DWORD PTR _this$[ebp], ecx

; 185  : 		return (this == &_Right);

	mov	eax, DWORD PTR _this$[ebp]
	cmp	eax, DWORD PTR __Right$[ebp]
	jne	SHORT $LN3@operator
	mov	DWORD PTR tv65[ebp], 1
	jmp	SHORT $LN4@operator
$LN3@operator:
	mov	DWORD PTR tv65[ebp], 0
$LN4@operator:
	mov	al, BYTE PTR tv65[ebp]

; 186  : 		}

	mov	esp, ebp
	pop	ebp
	ret	4
??8error_category@std@@QBE_NABV01@@Z ENDP		; std::error_category::operator==
_TEXT	ENDS
; Function compile flags: /Odtp
; File c:\program files (x86)\microsoft visual studio 11.0\vc\include\system_error
;	COMDAT ?equivalent@error_category@std@@UBE_NABVerror_code@2@H@Z
_TEXT	SEGMENT
_this$ = -8						; size = 4
tv74 = -4						; size = 4
__Code$ = 8						; size = 4
__Errval$ = 12						; size = 4
?equivalent@error_category@std@@UBE_NABVerror_code@2@H@Z PROC ; std::error_category::equivalent, COMDAT
; _this$ = ecx

; 415  : 	{	// test if conditions same for this category

	push	ebp
	mov	ebp, esp
	sub	esp, 8
	mov	DWORD PTR _this$[ebp], ecx

; 416  : 	return (*this == _Code.category() && _Code.value() == _Errval);

	mov	ecx, DWORD PTR __Code$[ebp]
	call	?category@error_code@std@@QBEABVerror_category@2@XZ ; std::error_code::category
	push	eax
	mov	ecx, DWORD PTR _this$[ebp]
	call	??8error_category@std@@QBE_NABV01@@Z	; std::error_category::operator==
	movzx	eax, al
	test	eax, eax
	je	SHORT $LN3@equivalent
	mov	ecx, DWORD PTR __Code$[ebp]
	call	?value@error_code@std@@QBEHXZ		; std::error_code::value
	cmp	eax, DWORD PTR __Errval$[ebp]
	jne	SHORT $LN3@equivalent
	mov	DWORD PTR tv74[ebp], 1
	jmp	SHORT $LN4@equivalent
$LN3@equivalent:
	mov	DWORD PTR tv74[ebp], 0
$LN4@equivalent:
	mov	al, BYTE PTR tv74[ebp]

; 417  : 	}

	mov	esp, ebp
	pop	ebp
	ret	8
?equivalent@error_category@std@@UBE_NABVerror_code@2@H@Z ENDP ; std::error_category::equivalent
_TEXT	ENDS
; Function compile flags: /Odtp
; File c:\program files (x86)\microsoft visual studio 11.0\vc\include\system_error
;	COMDAT ?equivalent@error_category@std@@UBE_NHABVerror_condition@2@@Z
_TEXT	SEGMENT
$T1 = -12						; size = 8
_this$ = -4						; size = 4
__Errval$ = 8						; size = 4
__Cond$ = 12						; size = 4
?equivalent@error_category@std@@UBE_NHABVerror_condition@2@@Z PROC ; std::error_category::equivalent, COMDAT
; _this$ = ecx

; 408  : 	{	// test if error code same condition

	push	ebp
	mov	ebp, esp
	sub	esp, 12					; 0000000cH
	mov	DWORD PTR _this$[ebp], ecx

; 409  : 	return (default_error_condition(_Errval) == _Cond);

	mov	eax, DWORD PTR __Cond$[ebp]
	push	eax
	mov	ecx, DWORD PTR __Errval$[ebp]
	push	ecx
	lea	edx, DWORD PTR $T1[ebp]
	push	edx
	mov	eax, DWORD PTR _this$[ebp]
	mov	edx, DWORD PTR [eax]
	mov	ecx, DWORD PTR _this$[ebp]
	mov	eax, DWORD PTR [edx+12]
	call	eax
	mov	ecx, eax
	call	??8error_condition@std@@QBE_NABV01@@Z	; std::error_condition::operator==

; 410  : 	}

	mov	esp, ebp
	pop	ebp
	ret	8
?equivalent@error_category@std@@UBE_NHABVerror_condition@2@@Z ENDP ; std::error_category::equivalent
_TEXT	ENDS
; Function compile flags: /Odtp
; File c:\program files (x86)\microsoft visual studio 11.0\vc\include\system_error
;	COMDAT ?default_error_condition@error_category@std@@UBE?AVerror_condition@2@H@Z
_TEXT	SEGMENT
_this$ = -4						; size = 4
___$ReturnUdt$ = 8					; size = 4
__Errval$ = 12						; size = 4
?default_error_condition@error_category@std@@UBE?AVerror_condition@2@H@Z PROC ; std::error_category::default_error_condition, COMDAT
; _this$ = ecx

; 401  : 	{	// make error_condition for error code

	push	ebp
	mov	ebp, esp
	push	ecx
	mov	DWORD PTR _this$[ebp], ecx

; 402  : 	return (error_condition(_Errval, *this));

	mov	eax, DWORD PTR _this$[ebp]
	push	eax
	mov	ecx, DWORD PTR __Errval$[ebp]
	push	ecx
	mov	ecx, DWORD PTR ___$ReturnUdt$[ebp]
	call	??0error_condition@std@@QAE@HABVerror_category@1@@Z ; std::error_condition::error_condition
	mov	eax, DWORD PTR ___$ReturnUdt$[ebp]

; 403  : 	}

	mov	esp, ebp
	pop	ebp
	ret	8
?default_error_condition@error_category@std@@UBE?AVerror_condition@2@H@Z ENDP ; std::error_category::default_error_condition
_TEXT	ENDS
; Function compile flags: /Odtp
; File c:\program files (x86)\microsoft visual studio 11.0\vc\include\system_error
;	COMDAT ??1error_category@std@@UAE@XZ
_TEXT	SEGMENT
_this$ = -4						; size = 4
??1error_category@std@@UAE@XZ PROC			; std::error_category::~error_category, COMDAT
; _this$ = ecx

; 167  : 		{	// destroy the object

	push	ebp
	mov	ebp, esp
	push	ecx
	mov	DWORD PTR _this$[ebp], ecx
	mov	eax, DWORD PTR _this$[ebp]
	mov	DWORD PTR [eax], OFFSET ??_7error_category@std@@6B@

; 168  : 		}

	mov	esp, ebp
	pop	ebp
	ret	0
??1error_category@std@@UAE@XZ ENDP			; std::error_category::~error_category
_TEXT	ENDS
; Function compile flags: /Odtp
; File c:\program files (x86)\microsoft visual studio 11.0\vc\include\system_error
;	COMDAT ??0error_category@std@@QAE@XZ
_TEXT	SEGMENT
_this$ = -4						; size = 4
??0error_category@std@@QAE@XZ PROC			; std::error_category::error_category, COMDAT
; _this$ = ecx

; 162  : 	error_category()

	push	ebp
	mov	ebp, esp
	push	ecx
	mov	DWORD PTR _this$[ebp], ecx
	mov	eax, DWORD PTR _this$[ebp]
	mov	DWORD PTR [eax], OFFSET ??_7error_category@std@@6B@

; 163  : 		{	// default constructor
; 164  : 		}

	mov	eax, DWORD PTR _this$[ebp]
	mov	esp, ebp
	pop	ebp
	ret	0
??0error_category@std@@QAE@XZ ENDP			; std::error_category::error_category
_TEXT	ENDS
; Function compile flags: /Odtp
; File c:\program files (x86)\microsoft visual studio 11.0\vc\include\system_error
;	COMDAT ?system_category@std@@YAABVerror_category@1@XZ
_TEXT	SEGMENT
?system_category@std@@YAABVerror_category@1@XZ PROC	; std::system_category, COMDAT

; 679  : 	{	// get system_category

	push	ebp
	mov	ebp, esp

; 680  : 	return (_Error_objects<int>::_System_object);

	mov	eax, OFFSET ?_System_object@?$_Error_objects@H@std@@2V_System_error_category@2@A ; std::_Error_objects<int>::_System_object

; 681  : 	}

	pop	ebp
	ret	0
?system_category@std@@YAABVerror_category@1@XZ ENDP	; std::system_category
_TEXT	ENDS
; Function compile flags: /Odtp
; File c:\program files (x86)\microsoft visual studio 11.0\vc\include\system_error
;	COMDAT ?generic_category@std@@YAABVerror_category@1@XZ
_TEXT	SEGMENT
?generic_category@std@@YAABVerror_category@1@XZ PROC	; std::generic_category, COMDAT

; 669  : 	{	// get generic_category

	push	ebp
	mov	ebp, esp

; 670  : 	return (_Error_objects<int>::_Generic_object);

	mov	eax, OFFSET ?_Generic_object@?$_Error_objects@H@std@@2V_Generic_error_category@2@A ; std::_Error_objects<int>::_Generic_object

; 671  : 	}

	pop	ebp
	ret	0
?generic_category@std@@YAABVerror_category@1@XZ ENDP	; std::generic_category
_TEXT	ENDS
; Function compile flags: /Odtp
; File c:\program files (x86)\microsoft visual studio 11.0\vc\include\xlocale
;	COMDAT ??0id@locale@std@@QAE@I@Z
_TEXT	SEGMENT
_this$ = -4						; size = 4
__Val$ = 8						; size = 4
??0id@locale@std@@QAE@I@Z PROC				; std::locale::id::id, COMDAT
; _this$ = ecx

; 74   : 			{	// construct with specified stamp value

	push	ebp
	mov	ebp, esp
	push	ecx
	mov	DWORD PTR _this$[ebp], ecx
	mov	eax, DWORD PTR _this$[ebp]
	mov	ecx, DWORD PTR __Val$[ebp]
	mov	DWORD PTR [eax], ecx

; 75   : 			}

	mov	eax, DWORD PTR _this$[ebp]
	mov	esp, ebp
	pop	ebp
	ret	4
??0id@locale@std@@QAE@I@Z ENDP				; std::locale::id::id
_TEXT	ENDS
; Function compile flags: /Odtp
; File c:\users\zhitao li\documents\visual studio 2012\projects\freefalcon\sim\include\airframe.h
;	COMDAT ?GetLandingAoASpd@AirframeClass@@QAEMXZ
_TEXT	SEGMENT
_this$ = -4						; size = 4
?GetLandingAoASpd@AirframeClass@@QAEMXZ PROC		; AirframeClass::GetLandingAoASpd, COMDAT
; _this$ = ecx

; 1228 : 	float GetLandingAoASpd() { return CalcDesSpeed(auxaeroData->landingAOA); };

	push	ebp
	mov	ebp, esp
	push	ecx
	mov	DWORD PTR _this$[ebp], ecx
	mov	eax, DWORD PTR _this$[ebp]
	mov	ecx, DWORD PTR [eax+4]
	push	ecx
	movss	xmm0, DWORD PTR [ecx+224]
	movss	DWORD PTR [esp], xmm0
	mov	ecx, DWORD PTR _this$[ebp]
	call	?CalcDesSpeed@AirframeClass@@QAEMM@Z	; AirframeClass::CalcDesSpeed
	mov	esp, ebp
	pop	ebp
	ret	0
?GetLandingAoASpd@AirframeClass@@QAEMXZ ENDP		; AirframeClass::GetLandingAoASpd
_TEXT	ENDS
; Function compile flags: /Odtp
; File c:\users\zhitao li\documents\visual studio 2012\projects\freefalcon\sim\include\airframe.h
;	COMDAT ?GetSimpleMode@AirframeClass@@QAEHXZ
_TEXT	SEGMENT
_this$ = -4						; size = 4
?GetSimpleMode@AirframeClass@@QAEHXZ PROC		; AirframeClass::GetSimpleMode, COMDAT
; _this$ = ecx

; 1224 : 	int  GetSimpleMode(void) {return simpleMode;};

	push	ebp
	mov	ebp, esp
	push	ecx
	mov	DWORD PTR _this$[ebp], ecx
	mov	eax, DWORD PTR _this$[ebp]
	mov	eax, DWORD PTR [eax+824]
	mov	esp, ebp
	pop	ebp
	ret	0
?GetSimpleMode@AirframeClass@@QAEHXZ ENDP		; AirframeClass::GetSimpleMode
_TEXT	ENDS
; Function compile flags: /Odtp
; File c:\users\zhitao li\documents\visual studio 2012\projects\freefalcon\sim\include\airframe.h
;	COMDAT ?IsSet@AirframeClass@@QBEHH@Z
_TEXT	SEGMENT
_this$ = -8						; size = 4
tv67 = -4						; size = 4
_testFlag$ = 8						; size = 4
?IsSet@AirframeClass@@QBEHH@Z PROC			; AirframeClass::IsSet, COMDAT
; _this$ = ecx

; 1216 : 	int IsSet (int testFlag) const {return flags & testFlag ? 1 : 0;}

	push	ebp
	mov	ebp, esp
	sub	esp, 8
	mov	DWORD PTR _this$[ebp], ecx
	mov	eax, DWORD PTR _this$[ebp]
	mov	ecx, DWORD PTR [eax+88]
	and	ecx, DWORD PTR _testFlag$[ebp]
	je	SHORT $LN3@IsSet
	mov	DWORD PTR tv67[ebp], 1
	jmp	SHORT $LN4@IsSet
$LN3@IsSet:
	mov	DWORD PTR tv67[ebp], 0
$LN4@IsSet:
	mov	eax, DWORD PTR tv67[ebp]
	mov	esp, ebp
	pop	ebp
	ret	4
?IsSet@AirframeClass@@QBEHH@Z ENDP			; AirframeClass::IsSet
_TEXT	ENDS
; Function compile flags: /Odtp
; File c:\users\zhitao li\documents\visual studio 2012\projects\freefalcon\sim\include\airframe.h
;	COMDAT ?ClearFlag@AirframeClass@@QAEXH@Z
_TEXT	SEGMENT
_this$ = -4						; size = 4
_newFlag$ = 8						; size = 4
?ClearFlag@AirframeClass@@QAEXH@Z PROC			; AirframeClass::ClearFlag, COMDAT
; _this$ = ecx

; 1215 : 	void ClearFlag (int newFlag) {flags &= ~newFlag;};

	push	ebp
	mov	ebp, esp
	push	ecx
	mov	DWORD PTR _this$[ebp], ecx
	mov	eax, DWORD PTR _newFlag$[ebp]
	not	eax
	mov	ecx, DWORD PTR _this$[ebp]
	and	eax, DWORD PTR [ecx+88]
	mov	edx, DWORD PTR _this$[ebp]
	mov	DWORD PTR [edx+88], eax
	mov	esp, ebp
	pop	ebp
	ret	4
?ClearFlag@AirframeClass@@QAEXH@Z ENDP			; AirframeClass::ClearFlag
_TEXT	ENDS
; Function compile flags: /Odtp
; File c:\users\zhitao li\documents\visual studio 2012\projects\freefalcon\sim\include\airframe.h
;	COMDAT ?SetFlag@AirframeClass@@QAEXH@Z
_TEXT	SEGMENT
_this$ = -4						; size = 4
_newFlag$ = 8						; size = 4
?SetFlag@AirframeClass@@QAEXH@Z PROC			; AirframeClass::SetFlag, COMDAT
; _this$ = ecx

; 1214 : 	void SetFlag (int newFlag) {flags |= newFlag;};

	push	ebp
	mov	ebp, esp
	push	ecx
	mov	DWORD PTR _this$[ebp], ecx
	mov	eax, DWORD PTR _this$[ebp]
	mov	ecx, DWORD PTR [eax+88]
	or	ecx, DWORD PTR _newFlag$[ebp]
	mov	edx, DWORD PTR _this$[ebp]
	mov	DWORD PTR [edx+88], ecx
	mov	esp, ebp
	pop	ebp
	ret	4
?SetFlag@AirframeClass@@QAEXH@Z ENDP			; AirframeClass::SetFlag
_TEXT	ENDS
; Function compile flags: /Odtp
; File c:\users\zhitao li\documents\visual studio 2012\projects\freefalcon\sim\include\airframe.h
;	COMDAT ?Fuel@AirframeClass@@QAEMXZ
_TEXT	SEGMENT
_this$ = -4						; size = 4
?Fuel@AirframeClass@@QAEMXZ PROC			; AirframeClass::Fuel, COMDAT
; _this$ = ecx

; 1183 : 	float Fuel (void) {return fuel;};

	push	ebp
	mov	ebp, esp
	push	ecx
	mov	DWORD PTR _this$[ebp], ecx
	mov	eax, DWORD PTR _this$[ebp]
	fld	DWORD PTR [eax+20]
	mov	esp, ebp
	pop	ebp
	ret	0
?Fuel@AirframeClass@@QAEMXZ ENDP			; AirframeClass::Fuel
_TEXT	ENDS
; Function compile flags: /Odtp
; File c:\users\zhitao li\documents\visual studio 2012\projects\freefalcon\sim\include\airframe.h
;	COMDAT ?CornerVcas@AirframeClass@@QAEMXZ
_TEXT	SEGMENT
_this$ = -4						; size = 4
?CornerVcas@AirframeClass@@QAEMXZ PROC			; AirframeClass::CornerVcas, COMDAT
; _this$ = ecx

; 1178 : 	float CornerVcas(void) {return cornerVcas;}

	push	ebp
	mov	ebp, esp
	push	ecx
	mov	DWORD PTR _this$[ebp], ecx
	mov	eax, DWORD PTR _this$[ebp]
	fld	DWORD PTR [eax+84]
	mov	esp, ebp
	pop	ebp
	ret	0
?CornerVcas@AirframeClass@@QAEMXZ ENDP			; AirframeClass::CornerVcas
_TEXT	ENDS
; Function compile flags: /Odtp
; File c:\users\zhitao li\documents\visual studio 2012\projects\freefalcon\sim\include\airframe.h
;	COMDAT ?MaxVcas@AirframeClass@@QAEMXZ
_TEXT	SEGMENT
_this$ = -4						; size = 4
?MaxVcas@AirframeClass@@QAEMXZ PROC			; AirframeClass::MaxVcas, COMDAT
; _this$ = ecx

; 1176 : 	float MaxVcas(void) {return maxVcas;}

	push	ebp
	mov	ebp, esp
	push	ecx
	mov	DWORD PTR _this$[ebp], ecx
	mov	eax, DWORD PTR _this$[ebp]
	fld	DWORD PTR [eax+80]
	mov	esp, ebp
	pop	ebp
	ret	0
?MaxVcas@AirframeClass@@QAEMXZ ENDP			; AirframeClass::MaxVcas
_TEXT	ENDS
; Function compile flags: /Odtp
; File c:\users\zhitao li\documents\visual studio 2012\projects\freefalcon\sim\include\airframe.h
;	COMDAT ?MinVcas@AirframeClass@@QAEMXZ
_TEXT	SEGMENT
_this$ = -4						; size = 4
?MinVcas@AirframeClass@@QAEMXZ PROC			; AirframeClass::MinVcas, COMDAT
; _this$ = ecx

; 1175 : 	float MinVcas(void) {return minVcas;}

	push	ebp
	mov	ebp, esp
	push	ecx
	mov	DWORD PTR _this$[ebp], ecx
	mov	eax, DWORD PTR _this$[ebp]
	fld	DWORD PTR [eax+76]
	mov	esp, ebp
	pop	ebp
	ret	0
?MinVcas@AirframeClass@@QAEMXZ ENDP			; AirframeClass::MinVcas
_TEXT	ENDS
; Function compile flags: /Odtp
; File c:\users\zhitao li\documents\visual studio 2012\projects\freefalcon\sim\include\airframe.h
;	COMDAT ?SetThrotl@AirframeClass@@QAEXM@Z
_TEXT	SEGMENT
_this$ = -4						; size = 4
_newThrot$ = 8						; size = 4
?SetThrotl@AirframeClass@@QAEXM@Z PROC			; AirframeClass::SetThrotl, COMDAT
; _this$ = ecx

; 1164 : 	void SetThrotl (float newThrot) {throtl = newThrot;};

	push	ebp
	mov	ebp, esp
	push	ecx
	mov	DWORD PTR _this$[ebp], ecx
	mov	eax, DWORD PTR _this$[ebp]
	movss	xmm0, DWORD PTR _newThrot$[ebp]
	movss	DWORD PTR [eax+1512], xmm0
	mov	esp, ebp
	pop	ebp
	ret	4
?SetThrotl@AirframeClass@@QAEXM@Z ENDP			; AirframeClass::SetThrotl
_TEXT	ENDS
; Function compile flags: /Odtp
; File c:\users\zhitao li\documents\visual studio 2012\projects\freefalcon\sim\include\airframe.h
;	COMDAT ?SetAirSource@AirframeClass@@QAEXW4AirSource@1@@Z
_TEXT	SEGMENT
_this$ = -4						; size = 4
_as$ = 8						; size = 4
?SetAirSource@AirframeClass@@QAEXW4AirSource@1@@Z PROC	; AirframeClass::SetAirSource, COMDAT
; _this$ = ecx

; 1111 : 	void SetAirSource(AirSource as) { airSource = as; };

	push	ebp
	mov	ebp, esp
	push	ecx
	mov	DWORD PTR _this$[ebp], ecx
	mov	eax, DWORD PTR _this$[ebp]
	mov	ecx, DWORD PTR _as$[ebp]
	mov	DWORD PTR [eax+1800], ecx
	mov	esp, ebp
	pop	ebp
	ret	4
?SetAirSource@AirframeClass@@QAEXW4AirSource@1@@Z ENDP	; AirframeClass::SetAirSource
_TEXT	ENDS
; Function compile flags: /Odtp
; File c:\users\zhitao li\documents\visual studio 2012\projects\freefalcon\sim\include\airframe.h
;	COMDAT ?SetFuelPump@AirframeClass@@QAEXW4FuelPump@1@@Z
_TEXT	SEGMENT
_this$ = -4						; size = 4
_fp$ = 8						; size = 4
?SetFuelPump@AirframeClass@@QAEXW4FuelPump@1@@Z PROC	; AirframeClass::SetFuelPump, COMDAT
; _this$ = ecx

; 1090 : 	void SetFuelPump(FuelPump fp) { fuelPump = fp; };

	push	ebp
	mov	ebp, esp
	push	ecx
	mov	DWORD PTR _this$[ebp], ecx
	mov	eax, DWORD PTR _this$[ebp]
	mov	ecx, DWORD PTR _fp$[ebp]
	mov	DWORD PTR [eax+1684], ecx
	mov	esp, ebp
	pop	ebp
	ret	4
?SetFuelPump@AirframeClass@@QAEXW4FuelPump@1@@Z ENDP	; AirframeClass::SetFuelPump
_TEXT	ENDS
; Function compile flags: /Odtp
; File c:\users\zhitao li\documents\visual studio 2012\projects\freefalcon\sim\include\airframe.h
;	COMDAT ?SetFuelSwitch@AirframeClass@@QAEXW4FuelSwitch@1@@Z
_TEXT	SEGMENT
_this$ = -4						; size = 4
_fs$ = 8						; size = 4
?SetFuelSwitch@AirframeClass@@QAEXW4FuelSwitch@1@@Z PROC ; AirframeClass::SetFuelSwitch, COMDAT
; _this$ = ecx

; 1081 : 	void SetFuelSwitch(FuelSwitch fs) { fuelSwitch = fs; };

	push	ebp
	mov	ebp, esp
	push	ecx
	mov	DWORD PTR _this$[ebp], ecx
	mov	eax, DWORD PTR _this$[ebp]
	mov	ecx, DWORD PTR _fs$[ebp]
	mov	DWORD PTR [eax+1680], ecx
	mov	esp, ebp
	pop	ebp
	ret	4
?SetFuelSwitch@AirframeClass@@QAEXW4FuelSwitch@1@@Z ENDP ; AirframeClass::SetFuelSwitch
_TEXT	ENDS
; Function compile flags: /Odtp
; File c:\users\zhitao li\documents\visual studio 2012\projects\freefalcon\sim\include\airframe.h
;	COMDAT ?ClearEngineFlag@AirframeClass@@QAEXW4EngineFlags@1@@Z
_TEXT	SEGMENT
_this$ = -4						; size = 4
_ef$ = 8						; size = 4
?ClearEngineFlag@AirframeClass@@QAEXW4EngineFlags@1@@Z PROC ; AirframeClass::ClearEngineFlag, COMDAT
; _this$ = ecx

; 1072 : 	void ClearEngineFlag(EngineFlags ef) { engineFlags &= ~ ef; };

	push	ebp
	mov	ebp, esp
	push	ecx
	mov	DWORD PTR _this$[ebp], ecx
	mov	eax, DWORD PTR _ef$[ebp]
	not	eax
	mov	ecx, DWORD PTR _this$[ebp]
	and	eax, DWORD PTR [ecx+1676]
	mov	edx, DWORD PTR _this$[ebp]
	mov	DWORD PTR [edx+1676], eax
	mov	esp, ebp
	pop	ebp
	ret	4
?ClearEngineFlag@AirframeClass@@QAEXW4EngineFlags@1@@Z ENDP ; AirframeClass::ClearEngineFlag
_TEXT	ENDS
; Function compile flags: /Odtp
; File c:\users\zhitao li\documents\visual studio 2012\projects\freefalcon\sim\include\airframe.h
;	COMDAT ?SetEngineFlag@AirframeClass@@QAEXW4EngineFlags@1@@Z
_TEXT	SEGMENT
_this$ = -4						; size = 4
_ef$ = 8						; size = 4
?SetEngineFlag@AirframeClass@@QAEXW4EngineFlags@1@@Z PROC ; AirframeClass::SetEngineFlag, COMDAT
; _this$ = ecx

; 1071 : 	void SetEngineFlag(EngineFlags ef) { engineFlags |= ef; };

	push	ebp
	mov	ebp, esp
	push	ecx
	mov	DWORD PTR _this$[ebp], ecx
	mov	eax, DWORD PTR _this$[ebp]
	mov	ecx, DWORD PTR [eax+1676]
	or	ecx, DWORD PTR _ef$[ebp]
	mov	edx, DWORD PTR _this$[ebp]
	mov	DWORD PTR [edx+1676], ecx
	mov	esp, ebp
	pop	ebp
	ret	4
?SetEngineFlag@AirframeClass@@QAEXW4EngineFlags@1@@Z ENDP ; AirframeClass::SetEngineFlag
_TEXT	ENDS
; Function compile flags: /Odtp
; File c:\users\zhitao li\documents\visual studio 2012\projects\freefalcon\sim\include\airframe.h
;	COMDAT ?IsEngineFlag@AirframeClass@@QAEHW4EngineFlags@1@@Z
_TEXT	SEGMENT
_this$ = -8						; size = 4
tv67 = -4						; size = 4
_ef$ = 8						; size = 4
?IsEngineFlag@AirframeClass@@QAEHW4EngineFlags@1@@Z PROC ; AirframeClass::IsEngineFlag, COMDAT
; _this$ = ecx

; 1070 : 	int IsEngineFlag(EngineFlags ef) { return (engineFlags & ef) ? 1 : 0; };

	push	ebp
	mov	ebp, esp
	sub	esp, 8
	mov	DWORD PTR _this$[ebp], ecx
	mov	eax, DWORD PTR _this$[ebp]
	mov	ecx, DWORD PTR [eax+1676]
	and	ecx, DWORD PTR _ef$[ebp]
	je	SHORT $LN3@IsEngineFl
	mov	DWORD PTR tv67[ebp], 1
	jmp	SHORT $LN4@IsEngineFl
$LN3@IsEngineFl:
	mov	DWORD PTR tv67[ebp], 0
$LN4@IsEngineFl:
	mov	eax, DWORD PTR tv67[ebp]
	mov	esp, ebp
	pop	ebp
	ret	4
?IsEngineFlag@AirframeClass@@QAEHW4EngineFlags@1@@Z ENDP ; AirframeClass::IsEngineFlag
_TEXT	ENDS
; Function compile flags: /Odtp
; File c:\users\zhitao li\documents\visual studio 2012\projects\freefalcon\sim\include\airframe.h
;	COMDAT ?HasThrRev@AirframeClass@@QAEHXZ
_TEXT	SEGMENT
_this$ = -4						; size = 4
?HasThrRev@AirframeClass@@QAEHXZ PROC			; AirframeClass::HasThrRev, COMDAT
; _this$ = ecx

; 1015 : 	int HasThrRev() { return auxaeroData->hasThrRev; };

	push	ebp
	mov	ebp, esp
	push	ecx
	mov	DWORD PTR _this$[ebp], ecx
	mov	eax, DWORD PTR _this$[ebp]
	mov	ecx, DWORD PTR [eax+4]
	mov	eax, DWORD PTR [ecx+4028]
	mov	esp, ebp
	pop	ebp
	ret	0
?HasThrRev@AirframeClass@@QAEHXZ ENDP			; AirframeClass::HasThrRev
_TEXT	ENDS
; Function compile flags: /Odtp
; File c:\users\zhitao li\documents\visual studio 2012\projects\freefalcon\sim\include\airframe.h
;	COMDAT ?DragChuteMaxSpeed@AirframeClass@@QAEMXZ
_TEXT	SEGMENT
_this$ = -4						; size = 4
?DragChuteMaxSpeed@AirframeClass@@QAEMXZ PROC		; AirframeClass::DragChuteMaxSpeed, COMDAT
; _this$ = ecx

; 1008 : 	float DragChuteMaxSpeed() { return auxaeroData->dragChuteMaxSpeed; };

	push	ebp
	mov	ebp, esp
	push	ecx
	mov	DWORD PTR _this$[ebp], ecx
	mov	eax, DWORD PTR _this$[ebp]
	mov	ecx, DWORD PTR [eax+4]
	fld	DWORD PTR [ecx+232]
	mov	esp, ebp
	pop	ebp
	ret	0
?DragChuteMaxSpeed@AirframeClass@@QAEMXZ ENDP		; AirframeClass::DragChuteMaxSpeed
_TEXT	ENDS
; Function compile flags: /Odtp
; File c:\users\zhitao li\documents\visual studio 2012\projects\freefalcon\sim\include\airframe.h
;	COMDAT ?HasDragChute@AirframeClass@@QAE_NXZ
_TEXT	SEGMENT
_this$ = -8						; size = 4
tv67 = -4						; size = 4
?HasDragChute@AirframeClass@@QAE_NXZ PROC		; AirframeClass::HasDragChute, COMDAT
; _this$ = ecx

; 1007 : 	bool HasDragChute() { return auxaeroData->dragChuteCd > 0; };

	push	ebp
	mov	ebp, esp
	sub	esp, 8
	mov	DWORD PTR _this$[ebp], ecx
	mov	eax, DWORD PTR _this$[ebp]
	mov	ecx, DWORD PTR [eax+4]
	movss	xmm0, DWORD PTR [ecx+228]
	comiss	xmm0, DWORD PTR __real@00000000
	jbe	SHORT $LN3@HasDragChu
	mov	DWORD PTR tv67[ebp], 1
	jmp	SHORT $LN4@HasDragChu
$LN3@HasDragChu:
	mov	DWORD PTR tv67[ebp], 0
$LN4@HasDragChu:
	mov	al, BYTE PTR tv67[ebp]
	mov	esp, ebp
	pop	ebp
	ret	0
?HasDragChute@AirframeClass@@QAE_NXZ ENDP		; AirframeClass::HasDragChute
_TEXT	ENDS
; Function compile flags: /Odtp
; File c:\users\zhitao li\documents\visual studio 2012\projects\freefalcon\sim\include\airframe.h
;	COMDAT ?GetNumberEngines@AirframeClass@@QAEHXZ
_TEXT	SEGMENT
_this$ = -4						; size = 4
?GetNumberEngines@AirframeClass@@QAEHXZ PROC		; AirframeClass::GetNumberEngines, COMDAT
; _this$ = ecx

; 802  : 	int GetNumberEngines() {return auxaeroData->nEngines;};

	push	ebp
	mov	ebp, esp
	push	ecx
	mov	DWORD PTR _this$[ebp], ecx
	mov	eax, DWORD PTR _this$[ebp]
	mov	ecx, DWORD PTR [eax+4]
	mov	eax, DWORD PTR [ecx+344]
	mov	esp, ebp
	pop	ebp
	ret	0
?GetNumberEngines@AirframeClass@@QAEHXZ ENDP		; AirframeClass::GetNumberEngines
_TEXT	ENDS
; Function compile flags: /Odtp
; File c:\users\zhitao li\documents\visual studio 2012\projects\freefalcon\campaign\include\unit.h
;	COMDAT ?GetFirstUnitWP@UnitClass@@QAEPAVWayPointClass@@XZ
_TEXT	SEGMENT
_this$ = -4						; size = 4
?GetFirstUnitWP@UnitClass@@QAEPAVWayPointClass@@XZ PROC	; UnitClass::GetFirstUnitWP, COMDAT
; _this$ = ecx

; 431  : 	WayPoint GetFirstUnitWP()				{ return wp_list; }

	push	ebp
	mov	ebp, esp
	push	ecx
	mov	DWORD PTR _this$[ebp], ecx
	mov	eax, DWORD PTR _this$[ebp]
	mov	eax, DWORD PTR [eax+244]
	mov	esp, ebp
	pop	ebp
	ret	0
?GetFirstUnitWP@UnitClass@@QAEPAVWayPointClass@@XZ ENDP	; UnitClass::GetFirstUnitWP
_TEXT	ENDS
; Function compile flags: /Odtp
; File c:\users\zhitao li\documents\visual studio 2012\projects\freefalcon\sim\include\simdrive.h
;	COMDAT ?GetPlayerEntity@SimulationDriver@@QBEPAVSimMoverClass@@XZ
_TEXT	SEGMENT
_this$ = -4						; size = 4
?GetPlayerEntity@SimulationDriver@@QBEPAVSimMoverClass@@XZ PROC ; SimulationDriver::GetPlayerEntity, COMDAT
; _this$ = ecx

; 76   : 	SimMoverClass *GetPlayerEntity() const { return const_cast<SimMoverClass*>(playerEntity); }

	push	ebp
	mov	ebp, esp
	push	ecx
	mov	DWORD PTR _this$[ebp], ecx
	mov	eax, DWORD PTR _this$[ebp]
	mov	eax, DWORD PTR [eax+56]
	mov	esp, ebp
	pop	ebp
	ret	0
?GetPlayerEntity@SimulationDriver@@QBEPAVSimMoverClass@@XZ ENDP ; SimulationDriver::GetPlayerEntity
_TEXT	ENDS
; Function compile flags: /Odtp
; File c:\users\zhitao li\documents\visual studio 2012\projects\freefalcon\campaign\include\campbase.h
;	COMDAT ?GetComponents@CampBaseClass@@QBEPAVTailInsertList@@XZ
_TEXT	SEGMENT
_this$ = -4						; size = 4
?GetComponents@CampBaseClass@@QBEPAVTailInsertList@@XZ PROC ; CampBaseClass::GetComponents, COMDAT
; _this$ = ecx

; 141  : 	TailInsertList *GetComponents() const		{	return components; }

	push	ebp
	mov	ebp, esp
	push	ecx
	mov	DWORD PTR _this$[ebp], ecx
	mov	eax, DWORD PTR _this$[ebp]
	mov	eax, DWORD PTR [eax+160]
	mov	esp, ebp
	pop	ebp
	ret	0
?GetComponents@CampBaseClass@@QBEPAVTailInsertList@@XZ ENDP ; CampBaseClass::GetComponents
_TEXT	ENDS
; Function compile flags: /Odtp
; File c:\users\zhitao li\documents\visual studio 2012\projects\freefalcon\sim\include\aircrft.h
;	COMDAT ?DBrain@AircraftClass@@QAEPAVDigitalBrain@@XZ
_TEXT	SEGMENT
_this$ = -4						; size = 4
?DBrain@AircraftClass@@QAEPAVDigitalBrain@@XZ PROC	; AircraftClass::DBrain, COMDAT
; _this$ = ecx

; 624  : 	DigitalBrain *DBrain(void)			{return (DigitalBrain *)theBrain;}

	push	ebp
	mov	ebp, esp
	push	ecx
	mov	DWORD PTR _this$[ebp], ecx
	mov	eax, DWORD PTR _this$[ebp]
	mov	eax, DWORD PTR [eax+672]
	mov	esp, ebp
	pop	ebp
	ret	0
?DBrain@AircraftClass@@QAEPAVDigitalBrain@@XZ ENDP	; AircraftClass::DBrain
_TEXT	ENDS
; Function compile flags: /Odtp
; File c:\users\zhitao li\documents\visual studio 2012\projects\freefalcon\sim\include\aircrft.h
;	COMDAT ?SetPGM@AircraftClass@@QAEXW4EWSPGMSwitch@1@@Z
_TEXT	SEGMENT
_this$ = -4						; size = 4
_t$ = 8							; size = 4
?SetPGM@AircraftClass@@QAEXW4EWSPGMSwitch@1@@Z PROC	; AircraftClass::SetPGM, COMDAT
; _this$ = ecx

; 544  : 	void SetPGM (EWSPGMSwitch t) { EWSPgm = t; };

	push	ebp
	mov	ebp, esp
	push	ecx
	mov	DWORD PTR _this$[ebp], ecx
	mov	eax, DWORD PTR _this$[ebp]
	mov	ecx, DWORD PTR _t$[ebp]
	mov	DWORD PTR [eax+1496], ecx
	mov	esp, ebp
	pop	ebp
	ret	4
?SetPGM@AircraftClass@@QAEXW4EWSPGMSwitch@1@@Z ENDP	; AircraftClass::SetPGM
_TEXT	ENDS
; Function compile flags: /Odtp
; File c:\users\zhitao li\documents\visual studio 2012\projects\freefalcon\sim\include\aircrft.h
;	COMDAT ?MainPower@AircraftClass@@QAE?AW4MainPowerType@1@XZ
_TEXT	SEGMENT
_this$ = -4						; size = 4
?MainPower@AircraftClass@@QAE?AW4MainPowerType@1@XZ PROC ; AircraftClass::MainPower, COMDAT
; _this$ = ecx

; 519  : 	MainPowerType MainPower() { return mainPower; };

	push	ebp
	mov	ebp, esp
	push	ecx
	mov	DWORD PTR _this$[ebp], ecx
	mov	eax, DWORD PTR _this$[ebp]
	mov	eax, DWORD PTR [eax+1484]
	mov	esp, ebp
	pop	ebp
	ret	0
?MainPower@AircraftClass@@QAE?AW4MainPowerType@1@XZ ENDP ; AircraftClass::MainPower
_TEXT	ENDS
; Function compile flags: /Odtp
; File c:\users\zhitao li\documents\visual studio 2012\projects\freefalcon\sim\include\aircrft.h
;	COMDAT ?PowerSwitchOn@AircraftClass@@QAEHW4AvionicsPowerFlags@1@@Z
_TEXT	SEGMENT
_this$ = -8						; size = 4
tv67 = -4						; size = 4
_fl$ = 8						; size = 4
?PowerSwitchOn@AircraftClass@@QAEHW4AvionicsPowerFlags@1@@Z PROC ; AircraftClass::PowerSwitchOn, COMDAT
; _this$ = ecx

; 513  : 	int PowerSwitchOn(AvionicsPowerFlags fl) { return (powerFlags & fl) ? TRUE : FALSE; };

	push	ebp
	mov	ebp, esp
	sub	esp, 8
	mov	DWORD PTR _this$[ebp], ecx
	mov	eax, DWORD PTR _this$[ebp]
	mov	ecx, DWORD PTR [eax+1480]
	and	ecx, DWORD PTR _fl$[ebp]
	je	SHORT $LN3@PowerSwitc
	mov	DWORD PTR tv67[ebp], 1
	jmp	SHORT $LN4@PowerSwitc
$LN3@PowerSwitc:
	mov	DWORD PTR tv67[ebp], 0
$LN4@PowerSwitc:
	mov	eax, DWORD PTR tv67[ebp]
	mov	esp, ebp
	pop	ebp
	ret	4
?PowerSwitchOn@AircraftClass@@QAEHW4AvionicsPowerFlags@1@@Z ENDP ; AircraftClass::PowerSwitchOn
_TEXT	ENDS
; Function compile flags: /Odtp
; File c:\users\zhitao li\documents\visual studio 2012\projects\freefalcon\sim\include\aircrft.h
;	COMDAT ?PowerOn@AircraftClass@@QAEXW4AvionicsPowerFlags@1@@Z
_TEXT	SEGMENT
_this$ = -4						; size = 4
_fl$ = 8						; size = 4
?PowerOn@AircraftClass@@QAEXW4AvionicsPowerFlags@1@@Z PROC ; AircraftClass::PowerOn, COMDAT
; _this$ = ecx

; 509  : 	void PowerOn (AvionicsPowerFlags fl) { powerFlags |= fl; };

	push	ebp
	mov	ebp, esp
	push	ecx
	mov	DWORD PTR _this$[ebp], ecx
	mov	eax, DWORD PTR _this$[ebp]
	mov	ecx, DWORD PTR [eax+1480]
	or	ecx, DWORD PTR _fl$[ebp]
	mov	edx, DWORD PTR _this$[ebp]
	mov	DWORD PTR [edx+1480], ecx
	mov	esp, ebp
	pop	ebp
	ret	4
?PowerOn@AircraftClass@@QAEXW4AvionicsPowerFlags@1@@Z ENDP ; AircraftClass::PowerOn
_TEXT	ENDS
; Function compile flags: /Odtp
; File c:\users\zhitao li\documents\visual studio 2012\projects\freefalcon\sim\include\aircrft.h
;	COMDAT ?RaltOn@AircraftClass@@QAEXXZ
_TEXT	SEGMENT
_this$ = -4						; size = 4
?RaltOn@AircraftClass@@QAEXXZ PROC			; AircraftClass::RaltOn, COMDAT
; _this$ = ecx

; 417  : 	void RaltOn() {RALTStatus = RON;};

	push	ebp
	mov	ebp, esp
	push	ecx
	mov	DWORD PTR _this$[ebp], ecx
	mov	eax, DWORD PTR _this$[ebp]
	mov	DWORD PTR [eax+1004], 2
	mov	esp, ebp
	pop	ebp
	ret	0
?RaltOn@AircraftClass@@QAEXXZ ENDP			; AircraftClass::RaltOn
_TEXT	ENDS
; Function compile flags: /Odtp
; File c:\users\zhitao li\documents\visual studio 2012\projects\freefalcon\sim\include\aircrft.h
;	COMDAT ?AutopilotType@AircraftClass@@QAE?AW4AutoPilotType@1@XZ
_TEXT	SEGMENT
_this$ = -4						; size = 4
?AutopilotType@AircraftClass@@QAE?AW4AutoPilotType@1@XZ PROC ; AircraftClass::AutopilotType, COMDAT
; _this$ = ecx

; 329  : 	AutoPilotType	AutopilotType (void) {return autopilotType;};

	push	ebp
	mov	ebp, esp
	push	ecx
	mov	DWORD PTR _this$[ebp], ecx
	mov	eax, DWORD PTR _this$[ebp]
	mov	eax, DWORD PTR [eax+968]
	mov	esp, ebp
	pop	ebp
	ret	0
?AutopilotType@AircraftClass@@QAE?AW4AutoPilotType@1@XZ ENDP ; AircraftClass::AutopilotType
_TEXT	ENDS
; Function compile flags: /Odtp
; File c:\users\zhitao li\documents\visual studio 2012\projects\freefalcon\sim\include\aircrft.h
;	COMDAT ?INSState@AircraftClass@@QAEHW4INSAlignFlags@1@@Z
_TEXT	SEGMENT
_this$ = -8						; size = 4
tv67 = -4						; size = 4
_fl$ = 8						; size = 4
?INSState@AircraftClass@@QAEHW4INSAlignFlags@1@@Z PROC	; AircraftClass::INSState, COMDAT
; _this$ = ecx

; 211  : 	int INSState(INSAlignFlags fl) { return (INSFlags & fl) == (unsigned int)fl ? 1 : 0; };

	push	ebp
	mov	ebp, esp
	sub	esp, 8
	mov	DWORD PTR _this$[ebp], ecx
	mov	eax, DWORD PTR _this$[ebp]
	mov	ecx, DWORD PTR [eax+768]
	and	ecx, DWORD PTR _fl$[ebp]
	cmp	ecx, DWORD PTR _fl$[ebp]
	jne	SHORT $LN3@INSState
	mov	DWORD PTR tv67[ebp], 1
	jmp	SHORT $LN4@INSState
$LN3@INSState:
	mov	DWORD PTR tv67[ebp], 0
$LN4@INSState:
	mov	eax, DWORD PTR tv67[ebp]
	mov	esp, ebp
	pop	ebp
	ret	4
?INSState@AircraftClass@@QAEHW4INSAlignFlags@1@@Z ENDP	; AircraftClass::INSState
_TEXT	ENDS
; Function compile flags: /Odtp
; File c:\users\zhitao li\documents\visual studio 2012\projects\freefalcon\sim\include\aircrft.h
;	COMDAT ?INSOff@AircraftClass@@QAEXW4INSAlignFlags@1@@Z
_TEXT	SEGMENT
_this$ = -4						; size = 4
_fl$ = 8						; size = 4
?INSOff@AircraftClass@@QAEXW4INSAlignFlags@1@@Z PROC	; AircraftClass::INSOff, COMDAT
; _this$ = ecx

; 210  : 	void INSOff(INSAlignFlags fl) { INSFlags &= ~fl; };

	push	ebp
	mov	ebp, esp
	push	ecx
	mov	DWORD PTR _this$[ebp], ecx
	mov	eax, DWORD PTR _fl$[ebp]
	not	eax
	mov	ecx, DWORD PTR _this$[ebp]
	and	eax, DWORD PTR [ecx+768]
	mov	edx, DWORD PTR _this$[ebp]
	mov	DWORD PTR [edx+768], eax
	mov	esp, ebp
	pop	ebp
	ret	4
?INSOff@AircraftClass@@QAEXW4INSAlignFlags@1@@Z ENDP	; AircraftClass::INSOff
_TEXT	ENDS
; Function compile flags: /Odtp
; File c:\users\zhitao li\documents\visual studio 2012\projects\freefalcon\sim\include\aircrft.h
;	COMDAT ?INSOn@AircraftClass@@QAEXW4INSAlignFlags@1@@Z
_TEXT	SEGMENT
_this$ = -4						; size = 4
_fl$ = 8						; size = 4
?INSOn@AircraftClass@@QAEXW4INSAlignFlags@1@@Z PROC	; AircraftClass::INSOn, COMDAT
; _this$ = ecx

; 209  : 	void INSOn(INSAlignFlags fl) { INSFlags |= fl; };

	push	ebp
	mov	ebp, esp
	push	ecx
	mov	DWORD PTR _this$[ebp], ecx
	mov	eax, DWORD PTR _this$[ebp]
	mov	ecx, DWORD PTR [eax+768]
	or	ecx, DWORD PTR _fl$[ebp]
	mov	edx, DWORD PTR _this$[ebp]
	mov	DWORD PTR [edx+768], ecx
	mov	esp, ebp
	pop	ebp
	ret	4
?INSOn@AircraftClass@@QAEXW4INSAlignFlags@1@@Z ENDP	; AircraftClass::INSOn
_TEXT	ENDS
; Function compile flags: /Odtp
; File c:\users\zhitao li\documents\visual studio 2012\projects\freefalcon\sim\include\aircrft.h
;	COMDAT ?ExtlState@AircraftClass@@QBEHW4ExtlLightFlags@1@@Z
_TEXT	SEGMENT
_this$ = -8						; size = 4
tv69 = -4						; size = 4
_fl$ = 8						; size = 4
?ExtlState@AircraftClass@@QBEHW4ExtlLightFlags@1@@Z PROC ; AircraftClass::ExtlState, COMDAT
; _this$ = ecx

; 188  : 	int ExtlState(ExtlLightFlags fl) const { return (IsAcStatusBitsSet(fl) ? 1 : 0); }

	push	ebp
	mov	ebp, esp
	sub	esp, 8
	mov	DWORD PTR _this$[ebp], ecx
	mov	eax, DWORD PTR _fl$[ebp]
	push	eax
	mov	ecx, DWORD PTR _this$[ebp]
	call	?IsAcStatusBitsSet@AircraftClass@@QBE_NH@Z ; AircraftClass::IsAcStatusBitsSet
	movzx	ecx, al
	test	ecx, ecx
	je	SHORT $LN3@ExtlState
	mov	DWORD PTR tv69[ebp], 1
	jmp	SHORT $LN4@ExtlState
$LN3@ExtlState:
	mov	DWORD PTR tv69[ebp], 0
$LN4@ExtlState:
	mov	eax, DWORD PTR tv69[ebp]
	mov	esp, ebp
	pop	ebp
	ret	4
?ExtlState@AircraftClass@@QBEHW4ExtlLightFlags@1@@Z ENDP ; AircraftClass::ExtlState
_TEXT	ENDS
; Function compile flags: /Odtp
; File c:\users\zhitao li\documents\visual studio 2012\projects\freefalcon\sim\include\aircrft.h
;	COMDAT ?ExtlOn@AircraftClass@@QAEXW4ExtlLightFlags@1@@Z
_TEXT	SEGMENT
_this$ = -4						; size = 4
_fl$ = 8						; size = 4
?ExtlOn@AircraftClass@@QAEXW4ExtlLightFlags@1@@Z PROC	; AircraftClass::ExtlOn, COMDAT
; _this$ = ecx

; 186  : 	void ExtlOn(ExtlLightFlags fl) { SetAcStatusBits(fl); }

	push	ebp
	mov	ebp, esp
	push	ecx
	mov	DWORD PTR _this$[ebp], ecx
	mov	eax, DWORD PTR _fl$[ebp]
	push	eax
	mov	ecx, DWORD PTR _this$[ebp]
	call	?SetAcStatusBits@AircraftClass@@QAEXH@Z	; AircraftClass::SetAcStatusBits
	mov	esp, ebp
	pop	ebp
	ret	4
?ExtlOn@AircraftClass@@QAEXW4ExtlLightFlags@1@@Z ENDP	; AircraftClass::ExtlOn
_TEXT	ENDS
; Function compile flags: /Odtp
; File c:\users\zhitao li\documents\visual studio 2012\projects\freefalcon\sim\include\aircrft.h
;	COMDAT ?IsAcStatusBitsSet@AircraftClass@@QBE_NH@Z
_TEXT	SEGMENT
_this$ = -8						; size = 4
tv67 = -4						; size = 4
_bits$ = 8						; size = 4
?IsAcStatusBitsSet@AircraftClass@@QBE_NH@Z PROC		; AircraftClass::IsAcStatusBitsSet, COMDAT
; _this$ = ecx

; 170  : 	bool IsAcStatusBitsSet(int bits) const { return (status_bits & bits) == bits; }

	push	ebp
	mov	ebp, esp
	sub	esp, 8
	mov	DWORD PTR _this$[ebp], ecx
	mov	eax, DWORD PTR _this$[ebp]
	mov	ecx, DWORD PTR [eax+760]
	and	ecx, DWORD PTR _bits$[ebp]
	cmp	ecx, DWORD PTR _bits$[ebp]
	jne	SHORT $LN3@IsAcStatus
	mov	DWORD PTR tv67[ebp], 1
	jmp	SHORT $LN4@IsAcStatus
$LN3@IsAcStatus:
	mov	DWORD PTR tv67[ebp], 0
$LN4@IsAcStatus:
	mov	al, BYTE PTR tv67[ebp]
	mov	esp, ebp
	pop	ebp
	ret	4
?IsAcStatusBitsSet@AircraftClass@@QBE_NH@Z ENDP		; AircraftClass::IsAcStatusBitsSet
_TEXT	ENDS
; Function compile flags: /Odtp
; File c:\users\zhitao li\documents\visual studio 2012\projects\freefalcon\sim\include\simmover.h
;	COMDAT ?GetSwitch@SimMoverClass@@QAEHH@Z
_TEXT	SEGMENT
tv69 = -8						; size = 4
_this$ = -4						; size = 4
_num$ = 8						; size = 4
?GetSwitch@SimMoverClass@@QAEHH@Z PROC			; SimMoverClass::GetSwitch, COMDAT
; _this$ = ecx

; 135  : 	int GetSwitch (int num) { return num < numSwitches ? switchData[num] : 0; }

	push	ebp
	mov	ebp, esp
	sub	esp, 8
	mov	DWORD PTR _this$[ebp], ecx
	mov	eax, DWORD PTR _this$[ebp]
	mov	ecx, DWORD PTR _num$[ebp]
	cmp	ecx, DWORD PTR [eax+604]
	jge	SHORT $LN3@GetSwitch
	mov	edx, DWORD PTR _this$[ebp]
	mov	eax, DWORD PTR [edx+592]
	mov	ecx, DWORD PTR _num$[ebp]
	mov	edx, DWORD PTR [eax+ecx*4]
	mov	DWORD PTR tv69[ebp], edx
	jmp	SHORT $LN4@GetSwitch
$LN3@GetSwitch:
	mov	DWORD PTR tv69[ebp], 0
$LN4@GetSwitch:
	mov	eax, DWORD PTR tv69[ebp]
	mov	esp, ebp
	pop	ebp
	ret	4
?GetSwitch@SimMoverClass@@QAEHH@Z ENDP			; SimMoverClass::GetSwitch
_TEXT	ENDS
; Function compile flags: /Odtp
; File c:\users\zhitao li\documents\visual studio 2012\projects\freefalcon\sim\include\simmover.h
;	COMDAT ?SetSwitch@SimMoverClass@@QAEXHH@Z
_TEXT	SEGMENT
_this$ = -4						; size = 4
_num$ = 8						; size = 4
_val$ = 12						; size = 4
?SetSwitch@SimMoverClass@@QAEXHH@Z PROC			; SimMoverClass::SetSwitch, COMDAT
; _this$ = ecx

; 134  : 	void SetSwitch (int num, int val) { ShiAssert(num < numSwitches); if (num < numSwitches) { switchData[num] = val; switchChange[num] = TRUE;} }

	push	ebp
	mov	ebp, esp
	push	ecx
	mov	DWORD PTR _this$[ebp], ecx
	mov	eax, DWORD PTR _this$[ebp]
	mov	ecx, DWORD PTR _num$[ebp]
	cmp	ecx, DWORD PTR [eax+604]
	jge	SHORT $LN2@SetSwitch
	mov	edx, DWORD PTR _this$[ebp]
	mov	eax, DWORD PTR [edx+592]
	mov	ecx, DWORD PTR _num$[ebp]
	mov	edx, DWORD PTR _val$[ebp]
	mov	DWORD PTR [eax+ecx*4], edx
	mov	eax, DWORD PTR _this$[ebp]
	mov	ecx, DWORD PTR [eax+596]
	mov	edx, DWORD PTR _num$[ebp]
	mov	DWORD PTR [ecx+edx*4], 1
$LN2@SetSwitch:
	mov	esp, ebp
	pop	ebp
	ret	8
?SetSwitch@SimMoverClass@@QAEXHH@Z ENDP			; SimMoverClass::SetSwitch
_TEXT	ENDS
; Function compile flags: /Odtp
; File c:\users\zhitao li\documents\visual studio 2012\projects\freefalcon\sim\include\simbase.h
;	COMDAT ?GetCampaignObject@SimBaseClass@@QAEPAVCampBaseClass@@XZ
_TEXT	SEGMENT
_this$ = -4						; size = 4
?GetCampaignObject@SimBaseClass@@QAEPAVCampBaseClass@@XZ PROC ; SimBaseClass::GetCampaignObject, COMDAT
; _this$ = ecx

; 212  : 	CampBaseClass *GetCampaignObject (void) { return campaignObject.get(); }

	push	ebp
	mov	ebp, esp
	push	ecx
	mov	DWORD PTR _this$[ebp], ecx
	mov	ecx, DWORD PTR _this$[ebp]
	add	ecx, 144				; 00000090H
	call	?get@?$VuBin@VCampBaseClass@@@@QBEPAVCampBaseClass@@XZ ; VuBin<CampBaseClass>::get
	mov	esp, ebp
	pop	ebp
	ret	0
?GetCampaignObject@SimBaseClass@@QAEPAVCampBaseClass@@XZ ENDP ; SimBaseClass::GetCampaignObject
_TEXT	ENDS
; Function compile flags: /Odtp
; File c:\users\zhitao li\documents\visual studio 2012\projects\freefalcon\sim\include\simbase.h
;	COMDAT ?IsSetFlag@SimBaseClass@@QBEHH@Z
_TEXT	SEGMENT
_this$ = -8						; size = 4
tv68 = -4						; size = 4
_flag$ = 8						; size = 4
?IsSetFlag@SimBaseClass@@QBEHH@Z PROC			; SimBaseClass::IsSetFlag, COMDAT
; _this$ = ecx

; 178  : 	int  IsSetFlag(int flag) const { return ((specialData.flags & flag) ? TRUE : FALSE); }

	push	ebp
	mov	ebp, esp
	sub	esp, 8
	mov	DWORD PTR _this$[ebp], ecx
	mov	eax, DWORD PTR _this$[ebp]
	mov	ecx, DWORD PTR [eax+172]
	and	ecx, DWORD PTR _flag$[ebp]
	je	SHORT $LN3@IsSetFlag
	mov	DWORD PTR tv68[ebp], 1
	jmp	SHORT $LN4@IsSetFlag
$LN3@IsSetFlag:
	mov	DWORD PTR tv68[ebp], 0
$LN4@IsSetFlag:
	mov	eax, DWORD PTR tv68[ebp]
	mov	esp, ebp
	pop	ebp
	ret	4
?IsSetFlag@SimBaseClass@@QBEHH@Z ENDP			; SimBaseClass::IsSetFlag
_TEXT	ENDS
; Function compile flags: /Odtp
; File c:\users\zhitao li\documents\visual studio 2012\projects\freefalcon\vu2\include\vu_templates.h
;	COMDAT ?get@?$VuBin@VCampBaseClass@@@@QBEPAVCampBaseClass@@XZ
_TEXT	SEGMENT
_this$ = -4						; size = 4
?get@?$VuBin@VCampBaseClass@@@@QBEPAVCampBaseClass@@XZ PROC ; VuBin<CampBaseClass>::get, COMDAT
; _this$ = ecx

; 55   : 	E *get() const{

	push	ebp
	mov	ebp, esp
	push	ecx
	mov	DWORD PTR _this$[ebp], ecx

; 56   : 		return e;

	mov	eax, DWORD PTR _this$[ebp]
	mov	eax, DWORD PTR [eax]

; 57   : 	}

	mov	esp, ebp
	pop	ebp
	ret	0
?get@?$VuBin@VCampBaseClass@@@@QBEPAVCampBaseClass@@XZ ENDP ; VuBin<CampBaseClass>::get
_TEXT	ENDS
; Function compile flags: /Odtp
; File c:\users\zhitao li\documents\visual studio 2012\projects\freefalcon\falclib\include\falcsess.h
;	COMDAT ?GetGame@FalconSessionEntity@@QAEPAVFalconGameEntity@@XZ
_TEXT	SEGMENT
_this$ = -4						; size = 4
?GetGame@FalconSessionEntity@@QAEPAVFalconGameEntity@@XZ PROC ; FalconSessionEntity::GetGame, COMDAT
; _this$ = ecx

; 154  : 	FalconGameEntity* GetGame (void)              { return (FalconGameEntity*)VuSessionEntity::Game(); }

	push	ebp
	mov	ebp, esp
	push	ecx
	mov	DWORD PTR _this$[ebp], ecx
	mov	ecx, DWORD PTR _this$[ebp]
	call	?Game@VuSessionEntity@@QAEPAVVuGameEntity@@XZ ; VuSessionEntity::Game
	mov	esp, ebp
	pop	ebp
	ret	0
?GetGame@FalconSessionEntity@@QAEPAVFalconGameEntity@@XZ ENDP ; FalconSessionEntity::GetGame
_TEXT	ENDS
; Function compile flags: /Odtp
; File c:\users\zhitao li\documents\visual studio 2012\projects\freefalcon\sim\digi\landme.cpp
_TEXT	SEGMENT
tv175 = -44						; size = 4
_prevY$ = -40						; size = 4
_prevX$ = -36						; size = 4
_Airbase$ = -32						; size = 4
tv143 = -28						; size = 4
tv142 = -24						; size = 4
tv135 = -20						; size = 4
_dy$ = -16						; size = 4
_dx$ = -12						; size = 4
_point$ = -8						; size = 4
_this$ = -4						; size = 4
_time$ = 8						; size = 4
?CalculateTaxiSpeed@DigitalBrain@@QAEMM@Z PROC		; DigitalBrain::CalculateTaxiSpeed
; _this$ = ecx

; 2926 : {

	push	ebp
	mov	ebp, esp
	sub	esp, 44					; 0000002cH
	mov	DWORD PTR _this$[ebp], ecx

; 2927 : 	ObjectiveClass *Airbase = (ObjectiveClass *)vuDatabase->Find(airbase);

	mov	eax, DWORD PTR _this$[ebp]
	mov	ecx, DWORD PTR [eax+312]
	push	ecx
	mov	edx, DWORD PTR [eax+308]
	push	edx
	mov	ecx, DWORD PTR ?vuDatabase@@3PAVVuDatabase@@A ; vuDatabase
	call	?Find@VuDatabase@@QBEPAVVuEntity@@VVU_ID@@@Z ; VuDatabase::Find
	mov	DWORD PTR _Airbase$[ebp], eax

; 2928 : 
; 2929 : 	ShiAssert(Airbase);
; 2930 : 
; 2931 : 	float prevX, prevY, dx, dy;
; 2932 : 	//float nextX, nextY;
; 2933 : 	int point;
; 2934 : //	point = GetNextPt(curTaxiPoint);
; 2935 : 	point = GetNextTaxiPt(curTaxiPoint);	// 07JAN04 - FRB - Get *taxi* point	we are at now

	mov	eax, DWORD PTR _this$[ebp]
	mov	ecx, DWORD PTR [eax+332]
	push	ecx
	call	?GetNextTaxiPt@@YAHH@Z			; GetNextTaxiPt
	add	esp, 4
	mov	DWORD PTR _point$[ebp], eax

; 2936 : 
; 2937 : 	if(point && time)

	cmp	DWORD PTR _point$[ebp], 0
	je	$LN2@CalculateT
	movss	xmm0, DWORD PTR _time$[ebp]
	ucomiss	xmm0, DWORD PTR __real@00000000
	lahf
	test	ah, 68					; 00000044H
	jnp	$LN2@CalculateT

; 2938 : 	{
; 2939 : 		//TranslatePointData(Airbase, curTaxiPoint, &nextX, &nextY);
; 2940 : 		TranslatePointData(Airbase, point, &prevX, &prevY);

	lea	edx, DWORD PTR _prevY$[ebp]
	push	edx
	lea	eax, DWORD PTR _prevX$[ebp]
	push	eax
	mov	ecx, DWORD PTR _point$[ebp]
	push	ecx
	mov	edx, DWORD PTR _Airbase$[ebp]
	push	edx
	call	?TranslatePointData@@YAXPAVCampBaseClass@@HPAM1@Z ; TranslatePointData
	add	esp, 16					; 00000010H

; 2941 : 		//dx = prevX - nextX;
; 2942 : 		//dy = prevY - nextY;
; 2943 : 		dx = prevX - trackX;

	mov	eax, DWORD PTR _this$[ebp]
	movss	xmm0, DWORD PTR _prevX$[ebp]
	subss	xmm0, DWORD PTR [eax+148]
	movss	DWORD PTR _dx$[ebp], xmm0

; 2944 : 		dy = prevY - trackY;

	mov	ecx, DWORD PTR _this$[ebp]
	movss	xmm0, DWORD PTR _prevY$[ebp]
	subss	xmm0, DWORD PTR [ecx+152]
	movss	DWORD PTR _dy$[ebp], xmm0

; 2945 : 
; 2946 : 		//how fast do we go to cover the distance in (time) seconds?
; 2947 : 		desiredSpeed = (float)sqrt(dx*dx + dy*dy)/time;

	movss	xmm0, DWORD PTR _dx$[ebp]
	mulss	xmm0, DWORD PTR _dx$[ebp]
	movss	xmm1, DWORD PTR _dy$[ebp]
	mulss	xmm1, DWORD PTR _dy$[ebp]
	addss	xmm0, xmm1
	push	ecx
	movss	DWORD PTR [esp], xmm0
	call	?SqrtSSE@@YAMM@Z			; SqrtSSE
	add	esp, 4
	fstp	DWORD PTR tv175[ebp]
	movss	xmm0, DWORD PTR tv175[ebp]
	divss	xmm0, DWORD PTR _time$[ebp]
	mov	edx, DWORD PTR _this$[ebp]
	movss	DWORD PTR [edx+336], xmm0

; 2948 : 
; 2949 : 		ShiAssert(!_isnan(desiredSpeed))
; 2950 : 	}
; 2951 : 	else

	jmp	SHORT $LN1@CalculateT
$LN2@CalculateT:

; 2952 : 		desiredSpeed = 5.0F * KNOTS_TO_FTPSEC;

	mov	eax, DWORD PTR _this$[ebp]
	movss	xmm0, DWORD PTR __real@410706e2
	movss	DWORD PTR [eax+336], xmm0
$LN1@CalculateT:

; 2953 : 
; 2954 : 	//no matter how late, we don't taxi at more than 30 knots or less than 5
; 2955 : 	desiredSpeed = max(5.0F*KNOTS_TO_FTPSEC, min(desiredSpeed,24.0F*KNOTS_TO_FTPSEC));	//RAS - 10Oct04 - changed from 30 to 24 max based on Booster's input

	mov	ecx, DWORD PTR _this$[ebp]
	movss	xmm0, DWORD PTR __real@42220842
	comiss	xmm0, DWORD PTR [ecx+336]
	jbe	SHORT $LN5@CalculateT
	mov	edx, DWORD PTR _this$[ebp]
	movss	xmm0, DWORD PTR [edx+336]
	movss	DWORD PTR tv135[ebp], xmm0
	jmp	SHORT $LN6@CalculateT
$LN5@CalculateT:
	movss	xmm0, DWORD PTR __real@42220842
	movss	DWORD PTR tv135[ebp], xmm0
$LN6@CalculateT:
	movss	xmm0, DWORD PTR __real@410706e2
	comiss	xmm0, DWORD PTR tv135[ebp]
	jbe	SHORT $LN9@CalculateT
	movss	xmm0, DWORD PTR __real@410706e2
	movss	DWORD PTR tv143[ebp], xmm0
	jmp	SHORT $LN10@CalculateT
$LN9@CalculateT:
	mov	eax, DWORD PTR _this$[ebp]
	movss	xmm0, DWORD PTR __real@42220842
	comiss	xmm0, DWORD PTR [eax+336]
	jbe	SHORT $LN7@CalculateT
	mov	ecx, DWORD PTR _this$[ebp]
	movss	xmm0, DWORD PTR [ecx+336]
	movss	DWORD PTR tv142[ebp], xmm0
	jmp	SHORT $LN8@CalculateT
$LN7@CalculateT:
	movss	xmm0, DWORD PTR __real@42220842
	movss	DWORD PTR tv142[ebp], xmm0
$LN8@CalculateT:
	movss	xmm0, DWORD PTR tv142[ebp]
	movss	DWORD PTR tv143[ebp], xmm0
$LN10@CalculateT:
	mov	edx, DWORD PTR _this$[ebp]
	movss	xmm0, DWORD PTR tv143[ebp]
	movss	DWORD PTR [edx+336], xmm0

; 2956 : //	desiredSpeed = max(10.0F*KNOTS_TO_FTPSEC, min(desiredSpeed,30.0F*KNOTS_TO_FTPSEC));	 // 24JAN04 - FRB - was 5 min
; 2957 : 																																											 
; 2958 : 	return desiredSpeed;

	mov	eax, DWORD PTR _this$[ebp]
	fld	DWORD PTR [eax+336]

; 2959 : }

	mov	esp, ebp
	pop	ebp
	ret	4
?CalculateTaxiSpeed@DigitalBrain@@QAEMM@Z ENDP		; DigitalBrain::CalculateTaxiSpeed
_TEXT	ENDS
; Function compile flags: /Odtp
; File c:\users\zhitao li\documents\visual studio 2012\projects\freefalcon\sim\digi\landme.cpp
_TEXT	SEGMENT
tv316 = -36						; size = 4
tv302 = -32						; size = 4
_flight$ = -28						; size = 4
tv280 = -24						; size = 4
_runway$ = -20						; size = 4
_Airbase$ = -16						; size = 4
_retval$ = -12						; size = 4
_wingman$ = -8						; size = 4
_this$ = -4						; size = 4
?ReadyToGo@DigitalBrain@@QAEHXZ PROC			; DigitalBrain::ReadyToGo
; _this$ = ecx

; 3196 : {

	push	ebp
	mov	ebp, esp
	sub	esp, 36					; 00000024H
	mov	DWORD PTR _this$[ebp], ecx

; 3197 : 	int retval = FALSE, runway;

	mov	DWORD PTR _retval$[ebp], 0

; 3198 : 	FlightClass *flight = (FlightClass*)self->GetCampaignObject();

	mov	eax, DWORD PTR _this$[ebp]
	mov	ecx, DWORD PTR [eax+56]
	call	?GetCampaignObject@SimBaseClass@@QAEPAVCampBaseClass@@XZ ; SimBaseClass::GetCampaignObject
	mov	DWORD PTR _flight$[ebp], eax

; 3199 : 	ObjectiveClass	*Airbase = (ObjectiveClass *)vuDatabase->Find(airbase);

	mov	ecx, DWORD PTR _this$[ebp]
	mov	edx, DWORD PTR [ecx+312]
	push	edx
	mov	eax, DWORD PTR [ecx+308]
	push	eax
	mov	ecx, DWORD PTR ?vuDatabase@@3PAVVuDatabase@@A ; vuDatabase
	call	?Find@VuDatabase@@QBEPAVVuEntity@@VVU_ID@@@Z ; VuDatabase::Find
	mov	DWORD PTR _Airbase$[ebp], eax

; 3200 : 	AircraftClass *wingman = NULL;

	mov	DWORD PTR _wingman$[ebp], 0

; 3201 : 
; 3202 : 	if(!Airbase)

	cmp	DWORD PTR _Airbase$[ebp], 0
	jne	SHORT $LN19@ReadyToGo

; 3203 : 		return TRUE;

	mov	eax, 1
	jmp	$LN20@ReadyToGo
$LN19@ReadyToGo:

; 3204 : 
; 3205 : 	if(!isWing && !IsSetATC(PermitTakeoff))

	mov	ecx, DWORD PTR _this$[ebp]
	cmp	DWORD PTR [ecx+24], 0
	jne	SHORT $LN18@ReadyToGo
	push	4
	mov	ecx, DWORD PTR _this$[ebp]
	call	?IsSetATC@DigitalBrain@@QAEHH@Z		; DigitalBrain::IsSetATC
	test	eax, eax
	jne	SHORT $LN18@ReadyToGo

; 3206 : 		return FALSE;

	xor	eax, eax
	jmp	$LN20@ReadyToGo
$LN18@ReadyToGo:

; 3207 : 
; 3208 : 	if( (!isWing || self->vehicleInUnit == 2) && 
; 3209 : 		rwtime + WINGMAN_WAIT_TIME < SimLibElapsedTime && 	// FRB - check WINGMAN_WAIT_TIME value (is 30 secs)
; 3210 : 		waittimer <= SimLibElapsedTime  )

	mov	edx, DWORD PTR _this$[ebp]
	cmp	DWORD PTR [edx+24], 0
	je	SHORT $LN16@ReadyToGo
	mov	eax, DWORD PTR _this$[ebp]
	mov	ecx, DWORD PTR [eax+56]
	movzx	edx, BYTE PTR [ecx+664]
	cmp	edx, 2
	jne	SHORT $LN17@ReadyToGo
$LN16@ReadyToGo:
	mov	eax, DWORD PTR _this$[ebp]
	mov	ecx, DWORD PTR [eax+316]
	add	ecx, 15000				; 00003a98H
	cmp	ecx, DWORD PTR ?SimLibElapsedTime@@3KA	; SimLibElapsedTime
	jae	SHORT $LN17@ReadyToGo
	mov	edx, DWORD PTR _this$[ebp]
	mov	eax, DWORD PTR [edx+344]
	cmp	eax, DWORD PTR ?SimLibElapsedTime@@3KA	; SimLibElapsedTime
	ja	SHORT $LN17@ReadyToGo

; 3211 : 	{
; 3212 : 		retval = TRUE;

	mov	DWORD PTR _retval$[ebp], 1
	jmp	$LN2@ReadyToGo
$LN17@ReadyToGo:

; 3213 : 	}
; 3214 : 	else if(self->GetVt() < 2.0F && waittimer <= SimLibElapsedTime)

	mov	ecx, DWORD PTR _this$[ebp]
	mov	edx, DWORD PTR [ecx+56]
	mov	eax, DWORD PTR _this$[ebp]
	mov	edx, DWORD PTR [edx]
	mov	ecx, DWORD PTR [eax+56]
	mov	eax, DWORD PTR [edx+220]
	call	eax
	fstp	DWORD PTR tv280[ebp]
	movss	xmm0, DWORD PTR __real@40000000
	comiss	xmm0, DWORD PTR tv280[ebp]
	jbe	$LN2@ReadyToGo
	mov	ecx, DWORD PTR _this$[ebp]
	mov	edx, DWORD PTR [ecx+344]
	cmp	edx, DWORD PTR ?SimLibElapsedTime@@3KA	; SimLibElapsedTime
	ja	$LN2@ReadyToGo

; 3215 : 	{
; 3216 : 		if (Airbase->brain->UseSectionTakeoff(flight, rwIndex) )

	mov	eax, DWORD PTR _this$[ebp]
	mov	ecx, DWORD PTR [eax+304]
	push	ecx
	mov	edx, DWORD PTR _flight$[ebp]
	push	edx
	mov	eax, DWORD PTR _Airbase$[ebp]
	mov	ecx, DWORD PTR [eax+240]
	call	?UseSectionTakeoff@ATCBrain@@QAEHPAVFlightClass@@H@Z ; ATCBrain::UseSectionTakeoff
	test	eax, eax
	je	$LN13@ReadyToGo

; 3217 : 		{
; 3218 : 			wingman = (AircraftClass*)MyWingman();				

	mov	ecx, DWORD PTR _this$[ebp]
	call	?MyWingman@DigitalBrain@@QAEPAVSimBaseClass@@XZ ; DigitalBrain::MyWingman
	mov	DWORD PTR _wingman$[ebp], eax

; 3219 : 
; 3220 : 			if(wingman && Airbase->brain)

	cmp	DWORD PTR _wingman$[ebp], 0
	je	$LN12@ReadyToGo
	mov	ecx, DWORD PTR _Airbase$[ebp]
	cmp	DWORD PTR [ecx+240], 0
	je	$LN12@ReadyToGo

; 3221 : 			{
; 3222 : 				runway = Airbase->brain->IsOnRunway(wingman);

	mov	edx, DWORD PTR _wingman$[ebp]
	push	edx
	mov	eax, DWORD PTR _Airbase$[ebp]
	mov	ecx, DWORD PTR [eax+240]
	call	?IsOnRunway@ATCBrain@@QAEHPAVAircraftClass@@@Z ; ATCBrain::IsOnRunway
	mov	DWORD PTR _runway$[ebp], eax

; 3223 : 				if( !wingman->OnGround() )

	mov	ecx, DWORD PTR _wingman$[ebp]
	mov	edx, DWORD PTR [ecx]
	mov	ecx, DWORD PTR _wingman$[ebp]
	mov	eax, DWORD PTR [edx+148]
	call	eax
	test	eax, eax
	jne	SHORT $LN11@ReadyToGo

; 3224 : 					retval = TRUE;

	mov	DWORD PTR _retval$[ebp], 1
	jmp	SHORT $LN9@ReadyToGo
$LN11@ReadyToGo:

; 3225 : 				else if(wingman->GetVt() > 40.0F * KNOTS_TO_FTPSEC && (runway == rwIndex || Airbase->brain->GetOppositeRunway(runway) == rwIndex))

	mov	ecx, DWORD PTR _wingman$[ebp]
	mov	edx, DWORD PTR [ecx]
	mov	ecx, DWORD PTR _wingman$[ebp]
	mov	eax, DWORD PTR [edx+220]
	call	eax
	fstp	DWORD PTR tv302[ebp]
	movss	xmm0, DWORD PTR tv302[ebp]
	comiss	xmm0, DWORD PTR __real@428706e2
	jbe	SHORT $LN9@ReadyToGo
	mov	ecx, DWORD PTR _this$[ebp]
	mov	edx, DWORD PTR _runway$[ebp]
	cmp	edx, DWORD PTR [ecx+304]
	je	SHORT $LN8@ReadyToGo
	mov	eax, DWORD PTR _runway$[ebp]
	push	eax
	mov	ecx, DWORD PTR _Airbase$[ebp]
	mov	ecx, DWORD PTR [ecx+240]
	call	?GetOppositeRunway@ATCBrain@@QAEHH@Z	; ATCBrain::GetOppositeRunway
	mov	edx, DWORD PTR _this$[ebp]
	cmp	eax, DWORD PTR [edx+304]
	jne	SHORT $LN9@ReadyToGo
$LN8@ReadyToGo:

; 3226 : 					retval = TRUE;

	mov	DWORD PTR _retval$[ebp], 1
$LN9@ReadyToGo:

; 3227 : 
; 3228 : 				if(isWing == 0 || self->vehicleInUnit == 2)

	mov	eax, DWORD PTR _this$[ebp]
	cmp	DWORD PTR [eax+24], 0
	je	SHORT $LN6@ReadyToGo
	mov	ecx, DWORD PTR _this$[ebp]
	mov	edx, DWORD PTR [ecx+56]
	movzx	eax, BYTE PTR [edx+664]
	cmp	eax, 2
	jne	SHORT $LN5@ReadyToGo
$LN6@ReadyToGo:

; 3229 : 				{					
; 3230 : 					if(wingman->GetVt() < 2.0F && (runway == rwIndex || Airbase->brain->GetOppositeRunway(runway) == rwIndex) )

	mov	ecx, DWORD PTR _wingman$[ebp]
	mov	edx, DWORD PTR [ecx]
	mov	ecx, DWORD PTR _wingman$[ebp]
	mov	eax, DWORD PTR [edx+220]
	call	eax
	fstp	DWORD PTR tv316[ebp]
	movss	xmm0, DWORD PTR __real@40000000
	comiss	xmm0, DWORD PTR tv316[ebp]
	jbe	SHORT $LN5@ReadyToGo
	mov	ecx, DWORD PTR _this$[ebp]
	mov	edx, DWORD PTR _runway$[ebp]
	cmp	edx, DWORD PTR [ecx+304]
	je	SHORT $LN4@ReadyToGo
	mov	eax, DWORD PTR _runway$[ebp]
	push	eax
	mov	ecx, DWORD PTR _Airbase$[ebp]
	mov	ecx, DWORD PTR [ecx+240]
	call	?GetOppositeRunway@ATCBrain@@QAEHH@Z	; ATCBrain::GetOppositeRunway
	mov	edx, DWORD PTR _this$[ebp]
	cmp	eax, DWORD PTR [edx+304]
	jne	SHORT $LN5@ReadyToGo
$LN4@ReadyToGo:

; 3231 : 						retval = TRUE;

	mov	DWORD PTR _retval$[ebp], 1
$LN5@ReadyToGo:

; 3232 : 				}
; 3233 : 			}
; 3234 : 			else 

	jmp	SHORT $LN3@ReadyToGo
$LN12@ReadyToGo:

; 3235 : 				retval = TRUE;

	mov	DWORD PTR _retval$[ebp], 1
$LN3@ReadyToGo:

; 3236 : 		}
; 3237 : 		else 

	jmp	SHORT $LN2@ReadyToGo
$LN13@ReadyToGo:

; 3238 : 			retval = TRUE;

	mov	DWORD PTR _retval$[ebp], 1
$LN2@ReadyToGo:

; 3239 : 	}
; 3240 : 
; 3241 : 	if(wingman && retval && !IsSetATC(WingmanReady))

	cmp	DWORD PTR _wingman$[ebp], 0
	je	SHORT $LN1@ReadyToGo
	cmp	DWORD PTR _retval$[ebp], 0
	je	SHORT $LN1@ReadyToGo
	push	4096					; 00001000H
	mov	ecx, DWORD PTR _this$[ebp]
	call	?IsSetATC@DigitalBrain@@QAEHH@Z		; DigitalBrain::IsSetATC
	test	eax, eax
	jne	SHORT $LN1@ReadyToGo

; 3242 : 	{
; 3243 : 		SetATCFlag(WingmanReady);

	push	4096					; 00001000H
	mov	ecx, DWORD PTR _this$[ebp]
	call	?SetATCFlag@DigitalBrain@@QAEXH@Z	; DigitalBrain::SetATCFlag

; 3244 : 		waittimer = CampaignSeconds + SimLibElapsedTime;

	mov	eax, DWORD PTR ?SimLibElapsedTime@@3KA	; SimLibElapsedTime
	add	eax, 1000				; 000003e8H
	mov	ecx, DWORD PTR _this$[ebp]
	mov	DWORD PTR [ecx+344], eax

; 3245 : 
; 3246 : 		retval = FALSE;

	mov	DWORD PTR _retval$[ebp], 0
$LN1@ReadyToGo:

; 3247 : 	}
; 3248 : 
; 3249 : 	return retval;

	mov	eax, DWORD PTR _retval$[ebp]
$LN20@ReadyToGo:

; 3250 : }

	mov	esp, ebp
	pop	ebp
	ret	0
?ReadyToGo@DigitalBrain@@QAEHXZ ENDP			; DigitalBrain::ReadyToGo
_TEXT	ENDS
; Function compile flags: /Odtp
; File c:\users\zhitao li\documents\visual studio 2012\projects\freefalcon\sim\digi\landme.cpp
_TEXT	SEGMENT
tv515 = -84						; size = 4
tv509 = -80						; size = 4
tv468 = -76						; size = 4
tv462 = -72						; size = 4
tv405 = -68						; size = 4
tv399 = -64						; size = 4
tv381 = -60						; size = 4
_baseY$ = -56						; size = 4
_baseX$ = -52						; size = 4
_cosAngle$ = -48					; size = 4
tv135 = -44						; size = 4
_vt$ = -40						; size = 4
_finalY$ = -36						; size = 4
_finalX$ = -32						; size = 4
_Airbase$ = -28						; size = 4
_dy$ = -24						; size = 4
_dx$ = -20						; size = 4
_newHeading$ = -16					; size = 4
_curHeading$ = -12					; size = 4
_deltaHdg$ = -8						; size = 4
_this$ = -4						; size = 4
?CalculateNextTurnDistance@DigitalBrain@@QAEMXZ PROC	; DigitalBrain::CalculateNextTurnDistance
; _this$ = ecx

; 235  : {

	push	ebp
	mov	ebp, esp
	sub	esp, 84					; 00000054H
	mov	DWORD PTR _this$[ebp], ecx

; 236  : 	float curHeading=0.0F, newHeading=0.0F, cosAngle=1.0F, deltaHdg=0.0F;

	movss	xmm0, DWORD PTR __real@00000000
	movss	DWORD PTR _curHeading$[ebp], xmm0
	movss	xmm0, DWORD PTR __real@00000000
	movss	DWORD PTR _newHeading$[ebp], xmm0
	movss	xmm0, DWORD PTR __real@3f800000
	movss	DWORD PTR _cosAngle$[ebp], xmm0
	movss	xmm0, DWORD PTR __real@00000000
	movss	DWORD PTR _deltaHdg$[ebp], xmm0

; 237  : 	float baseX=0.0F, baseY=0.0F, finalX=0.0F, finalY=0.0F, dx=0.0F, dy=0.0F, vt=0.0F;

	movss	xmm0, DWORD PTR __real@00000000
	movss	DWORD PTR _baseX$[ebp], xmm0
	movss	xmm0, DWORD PTR __real@00000000
	movss	DWORD PTR _baseY$[ebp], xmm0
	movss	xmm0, DWORD PTR __real@00000000
	movss	DWORD PTR _finalX$[ebp], xmm0
	movss	xmm0, DWORD PTR __real@00000000
	movss	DWORD PTR _finalY$[ebp], xmm0
	movss	xmm0, DWORD PTR __real@00000000
	movss	DWORD PTR _dx$[ebp], xmm0
	movss	xmm0, DWORD PTR __real@00000000
	movss	DWORD PTR _dy$[ebp], xmm0
	movss	xmm0, DWORD PTR __real@00000000
	movss	DWORD PTR _vt$[ebp], xmm0

; 238  : 	ObjectiveClass *Airbase = (ObjectiveClass *)vuDatabase->Find(airbase);

	mov	eax, DWORD PTR _this$[ebp]
	mov	ecx, DWORD PTR [eax+312]
	push	ecx
	mov	edx, DWORD PTR [eax+308]
	push	edx
	mov	ecx, DWORD PTR ?vuDatabase@@3PAVVuDatabase@@A ; vuDatabase
	call	?Find@VuDatabase@@QBEPAVVuEntity@@VVU_ID@@@Z ; VuDatabase::Find
	mov	DWORD PTR _Airbase$[ebp], eax

; 239  : 	
; 240  : 	turnDist = 500.0F;

	mov	eax, DWORD PTR _this$[ebp]
	movss	xmm0, DWORD PTR __real@43fa0000
	movss	DWORD PTR [eax+340], xmm0

; 241  : 
; 242  : 	if (Airbase && Airbase->brain){

	cmp	DWORD PTR _Airbase$[ebp], 0
	je	$LN28@CalculateN
	mov	ecx, DWORD PTR _Airbase$[ebp]
	cmp	DWORD PTR [ecx+240], 0
	je	$LN28@CalculateN

; 243  : 		// sfr: get a rwindex if we still dont have one
; 244  : 		if (rwIndex == 0){

	mov	edx, DWORD PTR _this$[ebp]
	cmp	DWORD PTR [edx+304], 0
	jne	SHORT $LN27@CalculateN

; 245  : 			rwIndex = Airbase->brain->FindBestLandingRunway(self);

	push	0
	mov	eax, DWORD PTR _this$[ebp]
	mov	ecx, DWORD PTR [eax+56]
	push	ecx
	mov	edx, DWORD PTR _Airbase$[ebp]
	mov	ecx, DWORD PTR [edx+240]
	call	?FindBestLandingRunway@ATCBrain@@QAEHPAVFalconEntity@@H@Z ; ATCBrain::FindBestLandingRunway
	mov	ecx, DWORD PTR _this$[ebp]
	mov	DWORD PTR [ecx+304], eax
$LN27@CalculateN:

; 246  : 		}
; 247  : 
; 248  : 		//vt = sqrt(self->XDelta() * self->XDelta() + self->YDelta() * self->YDelta());
; 249  : 		vt = af->MinVcas() * KNOTS_TO_FTPSEC;

	mov	edx, DWORD PTR _this$[ebp]
	mov	ecx, DWORD PTR [edx+60]
	call	?MinVcas@AirframeClass@@QAEMXZ		; AirframeClass::MinVcas
	fstp	DWORD PTR tv381[ebp]
	movss	xmm0, DWORD PTR tv381[ebp]
	mulss	xmm0, DWORD PTR __real@3fd80b03
	movss	DWORD PTR _vt$[ebp], xmm0

; 250  : 
; 251  : 		cosAngle = Airbase->brain->DetermineAngle(self, rwIndex, atcstatus);

	mov	eax, DWORD PTR _this$[ebp]
	mov	ecx, DWORD PTR [eax+328]
	push	ecx
	mov	edx, DWORD PTR _this$[ebp]
	mov	eax, DWORD PTR [edx+304]
	push	eax
	mov	ecx, DWORD PTR _this$[ebp]
	mov	edx, DWORD PTR [ecx+56]
	push	edx
	mov	eax, DWORD PTR _Airbase$[ebp]
	mov	ecx, DWORD PTR [eax+240]
	call	?DetermineAngle@ATCBrain@@QAEMPAVAircraftClass@@HW4AtcStatusEnum@@@Z ; ATCBrain::DetermineAngle
	fstp	DWORD PTR _cosAngle$[ebp]

; 252  : 
; 253  : 		switch(atcstatus){

	mov	ecx, DWORD PTR _this$[ebp]
	mov	edx, DWORD PTR [ecx+328]
	mov	DWORD PTR tv135[ebp], edx
	mov	eax, DWORD PTR tv135[ebp]
	sub	eax, 8
	mov	DWORD PTR tv135[ebp], eax
	cmp	DWORD PTR tv135[ebp], 3
	ja	$LN25@CalculateN
	mov	ecx, DWORD PTR tv135[ebp]
	jmp	DWORD PTR $LN31@CalculateN[ecx*4]
$LN24@CalculateN:

; 254  : 			case lFirstLeg:
; 255  : 				dx = self->XPos() - trackX;

	mov	edx, DWORD PTR _this$[ebp]
	mov	ecx, DWORD PTR [edx+56]
	call	?XPos@VuEntity@@QBEMXZ			; VuEntity::XPos
	fstp	DWORD PTR tv399[ebp]
	movss	xmm0, DWORD PTR tv399[ebp]
	mov	eax, DWORD PTR _this$[ebp]
	subss	xmm0, DWORD PTR [eax+148]
	movss	DWORD PTR _dx$[ebp], xmm0

; 256  : 				dy = self->YPos() - trackY;

	mov	ecx, DWORD PTR _this$[ebp]
	mov	ecx, DWORD PTR [ecx+56]
	call	?YPos@VuEntity@@QBEMXZ			; VuEntity::YPos
	fstp	DWORD PTR tv405[ebp]
	movss	xmm0, DWORD PTR tv405[ebp]
	mov	edx, DWORD PTR _this$[ebp]
	subss	xmm0, DWORD PTR [edx+152]
	movss	DWORD PTR _dy$[ebp], xmm0

; 257  : 				curHeading = (float)atan2(dy,dx);

	cvtss2sd xmm0, DWORD PTR _dx$[ebp]
	sub	esp, 8
	movsd	QWORD PTR [esp], xmm0
	cvtss2sd xmm0, DWORD PTR _dy$[ebp]
	sub	esp, 8
	movsd	QWORD PTR [esp], xmm0
	call	?checked_atan2@@YANNN@Z			; checked_atan2
	add	esp, 16					; 00000010H
	fstp	DWORD PTR _curHeading$[ebp]

; 258  : 				if(curHeading < 0.0F)

	movss	xmm0, DWORD PTR __real@00000000
	comiss	xmm0, DWORD PTR _curHeading$[ebp]
	jbe	SHORT $LN23@CalculateN

; 259  : 					curHeading += PI * 2.0F;

	movss	xmm0, DWORD PTR _curHeading$[ebp]
	addss	xmm0, DWORD PTR __real@40c90fdb
	movss	DWORD PTR _curHeading$[ebp], xmm0
$LN23@CalculateN:

; 260  : 
; 261  : 				Airbase->brain->FindFinalPt(self, rwIndex, &finalX, &finalY);

	lea	eax, DWORD PTR _finalY$[ebp]
	push	eax
	lea	ecx, DWORD PTR _finalX$[ebp]
	push	ecx
	mov	edx, DWORD PTR _this$[ebp]
	mov	eax, DWORD PTR [edx+304]
	push	eax
	mov	ecx, DWORD PTR _this$[ebp]
	mov	edx, DWORD PTR [ecx+56]
	push	edx
	mov	eax, DWORD PTR _Airbase$[ebp]
	mov	ecx, DWORD PTR [eax+240]
	call	?FindFinalPt@ATCBrain@@QAEXPAVAircraftClass@@HPAM1@Z ; ATCBrain::FindFinalPt

; 262  : 				if(cosAngle < 0.0F)

	movss	xmm0, DWORD PTR __real@00000000
	comiss	xmm0, DWORD PTR _cosAngle$[ebp]
	jbe	SHORT $LN22@CalculateN

; 263  : 				{
; 264  : 					Airbase->brain->FindBasePt(self, rwIndex, finalX, finalY, &baseX, &baseY);

	lea	ecx, DWORD PTR _baseY$[ebp]
	push	ecx
	lea	edx, DWORD PTR _baseX$[ebp]
	push	edx
	push	ecx
	movss	xmm0, DWORD PTR _finalY$[ebp]
	movss	DWORD PTR [esp], xmm0
	push	ecx
	movss	xmm0, DWORD PTR _finalX$[ebp]
	movss	DWORD PTR [esp], xmm0
	mov	eax, DWORD PTR _this$[ebp]
	mov	ecx, DWORD PTR [eax+304]
	push	ecx
	mov	edx, DWORD PTR _this$[ebp]
	mov	eax, DWORD PTR [edx+56]
	push	eax
	mov	ecx, DWORD PTR _Airbase$[ebp]
	mov	ecx, DWORD PTR [ecx+240]
	call	?FindBasePt@ATCBrain@@QAE?AW4AtcStatusEnum@@PAVAircraftClass@@HMMPAM1@Z ; ATCBrain::FindBasePt

; 265  : 					dx = trackX - baseX;

	mov	edx, DWORD PTR _this$[ebp]
	movss	xmm0, DWORD PTR [edx+148]
	subss	xmm0, DWORD PTR _baseX$[ebp]
	movss	DWORD PTR _dx$[ebp], xmm0

; 266  : 					dy = trackY - baseY;

	mov	eax, DWORD PTR _this$[ebp]
	movss	xmm0, DWORD PTR [eax+152]
	subss	xmm0, DWORD PTR _baseY$[ebp]
	movss	DWORD PTR _dy$[ebp], xmm0

; 267  : 				}
; 268  : 				else

	jmp	SHORT $LN21@CalculateN
$LN22@CalculateN:

; 269  : 				{
; 270  : 					dx = trackX - finalX;

	mov	ecx, DWORD PTR _this$[ebp]
	movss	xmm0, DWORD PTR [ecx+148]
	subss	xmm0, DWORD PTR _finalX$[ebp]
	movss	DWORD PTR _dx$[ebp], xmm0

; 271  : 					dy = trackY - finalY;

	mov	edx, DWORD PTR _this$[ebp]
	movss	xmm0, DWORD PTR [edx+152]
	subss	xmm0, DWORD PTR _finalY$[ebp]
	movss	DWORD PTR _dy$[ebp], xmm0
$LN21@CalculateN:

; 272  : 				}
; 273  : 				newHeading = (float)atan2(dy,dx);

	cvtss2sd xmm0, DWORD PTR _dx$[ebp]
	sub	esp, 8
	movsd	QWORD PTR [esp], xmm0
	cvtss2sd xmm0, DWORD PTR _dy$[ebp]
	sub	esp, 8
	movsd	QWORD PTR [esp], xmm0
	call	?checked_atan2@@YANNN@Z			; checked_atan2
	add	esp, 16					; 00000010H
	fstp	DWORD PTR _newHeading$[ebp]

; 274  : 				if(newHeading < 0.0F)

	movss	xmm0, DWORD PTR __real@00000000
	comiss	xmm0, DWORD PTR _newHeading$[ebp]
	jbe	SHORT $LN20@CalculateN

; 275  : 					newHeading += PI * 2.0F;

	movss	xmm0, DWORD PTR _newHeading$[ebp]
	addss	xmm0, DWORD PTR __real@40c90fdb
	movss	DWORD PTR _newHeading$[ebp], xmm0
$LN20@CalculateN:

; 276  : 
; 277  : 				deltaHdg = newHeading - curHeading;

	movss	xmm0, DWORD PTR _newHeading$[ebp]
	subss	xmm0, DWORD PTR _curHeading$[ebp]
	movss	DWORD PTR _deltaHdg$[ebp], xmm0

; 278  : 				if(deltaHdg > PI)

	movss	xmm0, DWORD PTR _deltaHdg$[ebp]
	comiss	xmm0, DWORD PTR __real@40490fdb
	jbe	SHORT $LN19@CalculateN

; 279  : 					deltaHdg = -(deltaHdg - PI);

	movss	xmm0, DWORD PTR _deltaHdg$[ebp]
	subss	xmm0, DWORD PTR __real@40490fdb
	xorps	xmm0, DWORD PTR __xmm@80000000800000008000000080000000
	movss	DWORD PTR _deltaHdg$[ebp], xmm0
	jmp	SHORT $LN17@CalculateN
$LN19@CalculateN:

; 280  : 				else if(deltaHdg < -PI)

	movss	xmm0, DWORD PTR __real@c0490fdb
	comiss	xmm0, DWORD PTR _deltaHdg$[ebp]
	jbe	SHORT $LN17@CalculateN

; 281  : 					deltaHdg = -(deltaHdg + PI);

	movss	xmm0, DWORD PTR _deltaHdg$[ebp]
	addss	xmm0, DWORD PTR __real@40490fdb
	xorps	xmm0, DWORD PTR __xmm@80000000800000008000000080000000
	movss	DWORD PTR _deltaHdg$[ebp], xmm0
$LN17@CalculateN:

; 282  : 				turnDist = (float)fabs( deltaHdg * 12.15854203708F * vt );

	movss	xmm0, DWORD PTR _deltaHdg$[ebp]
	mulss	xmm0, DWORD PTR __real@41428963
	mulss	xmm0, DWORD PTR _vt$[ebp]
	push	ecx
	movss	DWORD PTR [esp], xmm0
	call	?fabs@@YAMM@Z				; fabs
	add	esp, 4
	mov	eax, DWORD PTR _this$[ebp]
	fstp	DWORD PTR [eax+340]

; 283  : 			break;

	jmp	$LN25@CalculateN
$LN16@CalculateN:

; 284  : 			case lToBase:
; 285  : 				dx = self->XPos() - trackX;

	mov	ecx, DWORD PTR _this$[ebp]
	mov	ecx, DWORD PTR [ecx+56]
	call	?XPos@VuEntity@@QBEMXZ			; VuEntity::XPos
	fstp	DWORD PTR tv462[ebp]
	movss	xmm0, DWORD PTR tv462[ebp]
	mov	edx, DWORD PTR _this$[ebp]
	subss	xmm0, DWORD PTR [edx+148]
	movss	DWORD PTR _dx$[ebp], xmm0

; 286  : 				dy = self->YPos() - trackY;

	mov	eax, DWORD PTR _this$[ebp]
	mov	ecx, DWORD PTR [eax+56]
	call	?YPos@VuEntity@@QBEMXZ			; VuEntity::YPos
	fstp	DWORD PTR tv468[ebp]
	movss	xmm0, DWORD PTR tv468[ebp]
	mov	ecx, DWORD PTR _this$[ebp]
	subss	xmm0, DWORD PTR [ecx+152]
	movss	DWORD PTR _dy$[ebp], xmm0

; 287  : 				curHeading = (float)atan2(dy,dx);

	cvtss2sd xmm0, DWORD PTR _dx$[ebp]
	sub	esp, 8
	movsd	QWORD PTR [esp], xmm0
	cvtss2sd xmm0, DWORD PTR _dy$[ebp]
	sub	esp, 8
	movsd	QWORD PTR [esp], xmm0
	call	?checked_atan2@@YANNN@Z			; checked_atan2
	add	esp, 16					; 00000010H
	fstp	DWORD PTR _curHeading$[ebp]

; 288  : 				if(curHeading < 0.0F)

	movss	xmm0, DWORD PTR __real@00000000
	comiss	xmm0, DWORD PTR _curHeading$[ebp]
	jbe	SHORT $LN15@CalculateN

; 289  : 					curHeading += PI * 2.0F;

	movss	xmm0, DWORD PTR _curHeading$[ebp]
	addss	xmm0, DWORD PTR __real@40c90fdb
	movss	DWORD PTR _curHeading$[ebp], xmm0
$LN15@CalculateN:

; 290  : 
; 291  : 				Airbase->brain->FindFinalPt(self, rwIndex, &finalX, &finalY);

	lea	edx, DWORD PTR _finalY$[ebp]
	push	edx
	lea	eax, DWORD PTR _finalX$[ebp]
	push	eax
	mov	ecx, DWORD PTR _this$[ebp]
	mov	edx, DWORD PTR [ecx+304]
	push	edx
	mov	eax, DWORD PTR _this$[ebp]
	mov	ecx, DWORD PTR [eax+56]
	push	ecx
	mov	edx, DWORD PTR _Airbase$[ebp]
	mov	ecx, DWORD PTR [edx+240]
	call	?FindFinalPt@ATCBrain@@QAEXPAVAircraftClass@@HPAM1@Z ; ATCBrain::FindFinalPt

; 292  : 				dx = trackX - finalX;

	mov	eax, DWORD PTR _this$[ebp]
	movss	xmm0, DWORD PTR [eax+148]
	subss	xmm0, DWORD PTR _finalX$[ebp]
	movss	DWORD PTR _dx$[ebp], xmm0

; 293  : 				dy = trackY - finalY;

	mov	ecx, DWORD PTR _this$[ebp]
	movss	xmm0, DWORD PTR [ecx+152]
	subss	xmm0, DWORD PTR _finalY$[ebp]
	movss	DWORD PTR _dy$[ebp], xmm0

; 294  : 				newHeading = (float)atan2(dy,dx);

	cvtss2sd xmm0, DWORD PTR _dx$[ebp]
	sub	esp, 8
	movsd	QWORD PTR [esp], xmm0
	cvtss2sd xmm0, DWORD PTR _dy$[ebp]
	sub	esp, 8
	movsd	QWORD PTR [esp], xmm0
	call	?checked_atan2@@YANNN@Z			; checked_atan2
	add	esp, 16					; 00000010H
	fstp	DWORD PTR _newHeading$[ebp]

; 295  : 				if(newHeading < 0.0F)

	movss	xmm0, DWORD PTR __real@00000000
	comiss	xmm0, DWORD PTR _newHeading$[ebp]
	jbe	SHORT $LN14@CalculateN

; 296  : 					newHeading += PI * 2.0F;

	movss	xmm0, DWORD PTR _newHeading$[ebp]
	addss	xmm0, DWORD PTR __real@40c90fdb
	movss	DWORD PTR _newHeading$[ebp], xmm0
$LN14@CalculateN:

; 297  : 
; 298  : 				deltaHdg = newHeading - curHeading;

	movss	xmm0, DWORD PTR _newHeading$[ebp]
	subss	xmm0, DWORD PTR _curHeading$[ebp]
	movss	DWORD PTR _deltaHdg$[ebp], xmm0

; 299  : 				if(deltaHdg > PI)

	movss	xmm0, DWORD PTR _deltaHdg$[ebp]
	comiss	xmm0, DWORD PTR __real@40490fdb
	jbe	SHORT $LN13@CalculateN

; 300  : 					deltaHdg = -(deltaHdg - PI);

	movss	xmm0, DWORD PTR _deltaHdg$[ebp]
	subss	xmm0, DWORD PTR __real@40490fdb
	xorps	xmm0, DWORD PTR __xmm@80000000800000008000000080000000
	movss	DWORD PTR _deltaHdg$[ebp], xmm0
	jmp	SHORT $LN11@CalculateN
$LN13@CalculateN:

; 301  : 				else if(deltaHdg < -PI)

	movss	xmm0, DWORD PTR __real@c0490fdb
	comiss	xmm0, DWORD PTR _deltaHdg$[ebp]
	jbe	SHORT $LN11@CalculateN

; 302  : 					deltaHdg = -(deltaHdg + PI);

	movss	xmm0, DWORD PTR _deltaHdg$[ebp]
	addss	xmm0, DWORD PTR __real@40490fdb
	xorps	xmm0, DWORD PTR __xmm@80000000800000008000000080000000
	movss	DWORD PTR _deltaHdg$[ebp], xmm0
$LN11@CalculateN:

; 303  : 				turnDist = (float)fabs( deltaHdg * 12.15854203708F * vt );

	movss	xmm0, DWORD PTR _deltaHdg$[ebp]
	mulss	xmm0, DWORD PTR __real@41428963
	mulss	xmm0, DWORD PTR _vt$[ebp]
	push	ecx
	movss	DWORD PTR [esp], xmm0
	call	?fabs@@YAMM@Z				; fabs
	add	esp, 4
	mov	edx, DWORD PTR _this$[ebp]
	fstp	DWORD PTR [edx+340]

; 304  : 			break;

	jmp	$LN25@CalculateN
$LN10@CalculateN:

; 305  : 			case lToFinal:
; 306  : 			case lOnFinal:
; 307  : 				dx = self->XPos() - trackX;

	mov	eax, DWORD PTR _this$[ebp]
	mov	ecx, DWORD PTR [eax+56]
	call	?XPos@VuEntity@@QBEMXZ			; VuEntity::XPos
	fstp	DWORD PTR tv509[ebp]
	movss	xmm0, DWORD PTR tv509[ebp]
	mov	ecx, DWORD PTR _this$[ebp]
	subss	xmm0, DWORD PTR [ecx+148]
	movss	DWORD PTR _dx$[ebp], xmm0

; 308  : 				dy = self->YPos() - trackY;

	mov	edx, DWORD PTR _this$[ebp]
	mov	ecx, DWORD PTR [edx+56]
	call	?YPos@VuEntity@@QBEMXZ			; VuEntity::YPos
	fstp	DWORD PTR tv515[ebp]
	movss	xmm0, DWORD PTR tv515[ebp]
	mov	eax, DWORD PTR _this$[ebp]
	subss	xmm0, DWORD PTR [eax+152]
	movss	DWORD PTR _dy$[ebp], xmm0

; 309  : 				curHeading = (float)atan2(dy,dx);

	cvtss2sd xmm0, DWORD PTR _dx$[ebp]
	sub	esp, 8
	movsd	QWORD PTR [esp], xmm0
	cvtss2sd xmm0, DWORD PTR _dy$[ebp]
	sub	esp, 8
	movsd	QWORD PTR [esp], xmm0
	call	?checked_atan2@@YANNN@Z			; checked_atan2
	add	esp, 16					; 00000010H
	fstp	DWORD PTR _curHeading$[ebp]

; 310  : 				if(curHeading < 0.0F)

	movss	xmm0, DWORD PTR __real@00000000
	comiss	xmm0, DWORD PTR _curHeading$[ebp]
	jbe	SHORT $LN9@CalculateN

; 311  : 					curHeading += PI * 2.0F;

	movss	xmm0, DWORD PTR _curHeading$[ebp]
	addss	xmm0, DWORD PTR __real@40c90fdb
	movss	DWORD PTR _curHeading$[ebp], xmm0
$LN9@CalculateN:

; 312  : 				
; 313  : 				newHeading = PtHeaderDataTable[rwIndex].data * DTR;

	mov	ecx, DWORD PTR _this$[ebp]
	mov	edx, DWORD PTR [ecx+304]
	imul	edx, 28					; 0000001cH
	mov	eax, DWORD PTR ?PtHeaderDataTable@@3PAUPtHeaderDataType@@A ; PtHeaderDataTable
	movsx	ecx, WORD PTR [eax+edx+10]
	cvtsi2ss xmm0, ecx
	mulss	xmm0, DWORD PTR __real@3c8efa34
	movss	DWORD PTR _newHeading$[ebp], xmm0

; 314  : 
; 315  : 				deltaHdg = newHeading - curHeading;

	movss	xmm0, DWORD PTR _newHeading$[ebp]
	subss	xmm0, DWORD PTR _curHeading$[ebp]
	movss	DWORD PTR _deltaHdg$[ebp], xmm0

; 316  : 				if(deltaHdg > PI)

	movss	xmm0, DWORD PTR _deltaHdg$[ebp]
	comiss	xmm0, DWORD PTR __real@40490fdb
	jbe	SHORT $LN8@CalculateN

; 317  : 					deltaHdg = -(deltaHdg - PI);

	movss	xmm0, DWORD PTR _deltaHdg$[ebp]
	subss	xmm0, DWORD PTR __real@40490fdb
	xorps	xmm0, DWORD PTR __xmm@80000000800000008000000080000000
	movss	DWORD PTR _deltaHdg$[ebp], xmm0
	jmp	SHORT $LN6@CalculateN
$LN8@CalculateN:

; 318  : 				else if(deltaHdg < -PI)

	movss	xmm0, DWORD PTR __real@c0490fdb
	comiss	xmm0, DWORD PTR _deltaHdg$[ebp]
	jbe	SHORT $LN6@CalculateN

; 319  : 					deltaHdg = -(deltaHdg + PI);

	movss	xmm0, DWORD PTR _deltaHdg$[ebp]
	addss	xmm0, DWORD PTR __real@40490fdb
	xorps	xmm0, DWORD PTR __xmm@80000000800000008000000080000000
	movss	DWORD PTR _deltaHdg$[ebp], xmm0
$LN6@CalculateN:

; 320  : 				turnDist = (float)fabs( deltaHdg * 12.15854203708F * vt );

	movss	xmm0, DWORD PTR _deltaHdg$[ebp]
	mulss	xmm0, DWORD PTR __real@41428963
	mulss	xmm0, DWORD PTR _vt$[ebp]
	push	ecx
	movss	DWORD PTR [esp], xmm0
	call	?fabs@@YAMM@Z				; fabs
	add	esp, 4
	mov	edx, DWORD PTR _this$[ebp]
	fstp	DWORD PTR [edx+340]

; 321  : 				if(turnDist < 4000.0F)

	mov	eax, DWORD PTR _this$[ebp]
	movss	xmm0, DWORD PTR __real@457a0000
	comiss	xmm0, DWORD PTR [eax+340]
	jbe	SHORT $LN5@CalculateN

; 322  : 					turnDist = 4000.0F;

	mov	ecx, DWORD PTR _this$[ebp]
	movss	xmm0, DWORD PTR __real@457a0000
	movss	DWORD PTR [ecx+340], xmm0
$LN5@CalculateN:
$LN25@CalculateN:

; 323  : 			break;
; 324  : 		}
; 325  : 		turnDist += (0.5F * vt);

	movss	xmm0, DWORD PTR __real@3f000000
	mulss	xmm0, DWORD PTR _vt$[ebp]
	mov	edx, DWORD PTR _this$[ebp]
	addss	xmm0, DWORD PTR [edx+340]
	mov	eax, DWORD PTR _this$[ebp]
	movss	DWORD PTR [eax+340], xmm0
$LN28@CalculateN:

; 326  : 	}	
; 327  : 
; 328  : 
; 329  : 	if(self->IsPlayer()){

	mov	ecx, DWORD PTR _this$[ebp]
	mov	ecx, DWORD PTR [ecx+56]
	call	?IsPlayer@FalconEntity@@QAEHXZ		; FalconEntity::IsPlayer
	test	eax, eax
	je	SHORT $LN4@CalculateN

; 330  : 		if(turnDist < 400.0F){

	mov	edx, DWORD PTR _this$[ebp]
	movss	xmm0, DWORD PTR __real@43c80000
	comiss	xmm0, DWORD PTR [edx+340]
	jbe	SHORT $LN3@CalculateN

; 331  : 			turnDist = 400.0F;

	mov	eax, DWORD PTR _this$[ebp]
	movss	xmm0, DWORD PTR __real@43c80000
	movss	DWORD PTR [eax+340], xmm0
$LN3@CalculateN:

; 332  : 		}
; 333  : 	}

	jmp	SHORT $LN1@CalculateN
$LN4@CalculateN:

; 334  : 	else if(turnDist < 300.0F){

	mov	ecx, DWORD PTR _this$[ebp]
	movss	xmm0, DWORD PTR __real@43960000
	comiss	xmm0, DWORD PTR [ecx+340]
	jbe	SHORT $LN1@CalculateN

; 335  : 		turnDist = 300.0F;

	mov	edx, DWORD PTR _this$[ebp]
	movss	xmm0, DWORD PTR __real@43960000
	movss	DWORD PTR [edx+340], xmm0
$LN1@CalculateN:

; 336  : 	}
; 337  : 	return turnDist;

	mov	eax, DWORD PTR _this$[ebp]
	fld	DWORD PTR [eax+340]

; 338  : }

	mov	esp, ebp
	pop	ebp
	ret	0
$LN31@CalculateN:
	DD	$LN24@CalculateN
	DD	$LN16@CalculateN
	DD	$LN10@CalculateN
	DD	$LN10@CalculateN
?CalculateNextTurnDistance@DigitalBrain@@QAEMXZ ENDP	; DigitalBrain::CalculateNextTurnDistance
_TEXT	ENDS
; Function compile flags: /Odtp
; File c:\users\zhitao li\documents\visual studio 2012\projects\freefalcon\sim\include\digi.h
;	COMDAT ?RwTime@DigitalBrain@@QAEKXZ
_TEXT	SEGMENT
_this$ = -4						; size = 4
?RwTime@DigitalBrain@@QAEKXZ PROC			; DigitalBrain::RwTime, COMDAT
; _this$ = ecx

; 772  : 	VU_TIME RwTime(void)	{return rwtime;}

	push	ebp
	mov	ebp, esp
	push	ecx
	mov	DWORD PTR _this$[ebp], ecx
	mov	eax, DWORD PTR _this$[ebp]
	mov	eax, DWORD PTR [eax+316]
	mov	esp, ebp
	pop	ebp
	ret	0
?RwTime@DigitalBrain@@QAEKXZ ENDP			; DigitalBrain::RwTime
_TEXT	ENDS
; Function compile flags: /Odtp
; File c:\users\zhitao li\documents\visual studio 2012\projects\freefalcon\sim\include\digi.h
;	COMDAT ?ATCStatus@DigitalBrain@@QAE?AW4AtcStatusEnum@@XZ
_TEXT	SEGMENT
_this$ = -4						; size = 4
?ATCStatus@DigitalBrain@@QAE?AW4AtcStatusEnum@@XZ PROC	; DigitalBrain::ATCStatus, COMDAT
; _this$ = ecx

; 765  : 	AtcStatusEnum	ATCStatus(void)							{return atcstatus;}

	push	ebp
	mov	ebp, esp
	push	ecx
	mov	DWORD PTR _this$[ebp], ecx
	mov	eax, DWORD PTR _this$[ebp]
	mov	eax, DWORD PTR [eax+328]
	mov	esp, ebp
	pop	ebp
	ret	0
?ATCStatus@DigitalBrain@@QAE?AW4AtcStatusEnum@@XZ ENDP	; DigitalBrain::ATCStatus
_TEXT	ENDS
; Function compile flags: /Odtp
; File c:\users\zhitao li\documents\visual studio 2012\projects\freefalcon\sim\include\digi.h
;	COMDAT ?SetATCStatus@DigitalBrain@@QAEXW4AtcStatusEnum@@@Z
_TEXT	SEGMENT
_this$ = -4						; size = 4
_status$ = 8						; size = 4
?SetATCStatus@DigitalBrain@@QAEXW4AtcStatusEnum@@@Z PROC ; DigitalBrain::SetATCStatus, COMDAT
; _this$ = ecx

; 764  : 	void			SetATCStatus(AtcStatusEnum status)		{atcstatus = status;}

	push	ebp
	mov	ebp, esp
	push	ecx
	mov	DWORD PTR _this$[ebp], ecx
	mov	eax, DWORD PTR _this$[ebp]
	mov	ecx, DWORD PTR _status$[ebp]
	mov	DWORD PTR [eax+328], ecx
	mov	esp, ebp
	pop	ebp
	ret	4
?SetATCStatus@DigitalBrain@@QAEXW4AtcStatusEnum@@@Z ENDP ; DigitalBrain::SetATCStatus
_TEXT	ENDS
; Function compile flags: /Odtp
; File c:\users\zhitao li\documents\visual studio 2012\projects\freefalcon\sim\digi\landme.cpp
_TEXT	SEGMENT
$T2 = -72						; size = 8
$T3 = -64						; size = 8
$T4 = -56						; size = 4
$T5 = -52						; size = 4
tv186 = -48						; size = 4
tv173 = -44						; size = 4
$T6 = -40						; size = 4
tv168 = -36						; size = 4
tv145 = -32						; size = 4
$T7 = -28						; size = 4
_atc$ = -24						; size = 4
_this$ = -20						; size = 4
_ATCMessage$ = -16					; size = 4
__$EHRec$ = -12						; size = 12
_msg$ = 8						; size = 4
?SendATCMsg@DigitalBrain@@QAEXW4AtcStatusEnum@@@Z PROC	; DigitalBrain::SendATCMsg
; _this$ = ecx

; 2855 : {

	push	ebp
	mov	ebp, esp
	push	-1
	push	__ehhandler$?SendATCMsg@DigitalBrain@@QAEXW4AtcStatusEnum@@@Z
	mov	eax, DWORD PTR fs:0
	push	eax
	sub	esp, 60					; 0000003cH
	mov	eax, DWORD PTR ___security_cookie
	xor	eax, ebp
	push	eax
	lea	eax, DWORD PTR __$EHRec$[ebp]
	mov	DWORD PTR fs:0, eax
	mov	DWORD PTR _this$[ebp], ecx

; 2856 : 	//atcstatus = msg;
; 2857 : 	//hack so we don't send atc messages to taskforces
; 2858 : 	CampBaseClass *atc = (CampBaseClass*)vuDatabase->Find(airbase);

	mov	eax, DWORD PTR _this$[ebp]
	mov	ecx, DWORD PTR [eax+312]
	push	ecx
	mov	edx, DWORD PTR [eax+308]
	push	edx
	mov	ecx, DWORD PTR ?vuDatabase@@3PAVVuDatabase@@A ; vuDatabase
	call	?Find@VuDatabase@@QBEPAVVuEntity@@VVU_ID@@@Z ; VuDatabase::Find
	mov	DWORD PTR _atc$[ebp], eax

; 2859 : 	if(!atc || !atc->IsObjective()){

	cmp	DWORD PTR _atc$[ebp], 0
	je	SHORT $LN12@SendATCMsg
	mov	eax, DWORD PTR _atc$[ebp]
	mov	edx, DWORD PTR [eax]
	mov	ecx, DWORD PTR _atc$[ebp]
	mov	eax, DWORD PTR [edx+236]
	call	eax
	test	eax, eax
	jne	SHORT $LN13@SendATCMsg
$LN12@SendATCMsg:

; 2860 : 		return;

	jmp	$LN14@SendATCMsg
$LN13@SendATCMsg:

; 2861 : 	}
; 2862 : 
; 2863 : 	FalconATCMessage* ATCMessage;
; 2864 : 	if (g_bMPFix){

	movzx	ecx, BYTE PTR ?g_bMPFix@@3_NA		; g_bMPFix
	test	ecx, ecx
	je	$LN11@SendATCMsg

; 2865 : 		ATCMessage = new FalconATCMessage( 
; 2866 : 			airbase, (VuTargetEntity*) vuDatabase->Find(vuLocalSessionEntity->Game()->OwnerId()) 
; 2867 : 		);

	push	62					; 0000003eH
	call	??2@YAPAXI@Z				; operator new
	add	esp, 4
	mov	DWORD PTR $T7[ebp], eax
	mov	DWORD PTR __$EHRec$[ebp+8], 0
	cmp	DWORD PTR $T7[ebp], 0
	je	SHORT $LN16@SendATCMsg
	push	1
	lea	edx, DWORD PTR $T3[ebp]
	push	edx
	mov	ecx, OFFSET ?vuLocalSessionEntity@@3V?$VuBin@VVuSessionEntity@@@@A ; vuLocalSessionEntity
	call	??C?$VuBin@VVuSessionEntity@@@@QBEPAVVuSessionEntity@@XZ ; VuBin<VuSessionEntity>::operator->
	mov	ecx, eax
	call	?Game@VuSessionEntity@@QAEPAVVuGameEntity@@XZ ; VuSessionEntity::Game
	mov	ecx, eax
	call	?OwnerId@VuEntity@@QBE?AVVU_ID@@XZ	; VuEntity::OwnerId
	mov	ecx, DWORD PTR [eax+4]
	push	ecx
	mov	edx, DWORD PTR [eax]
	push	edx
	mov	ecx, DWORD PTR ?vuDatabase@@3PAVVuDatabase@@A ; vuDatabase
	call	?Find@VuDatabase@@QBEPAVVuEntity@@VVU_ID@@@Z ; VuDatabase::Find
	push	eax
	mov	eax, DWORD PTR _this$[ebp]
	mov	ecx, DWORD PTR [eax+312]
	push	ecx
	mov	edx, DWORD PTR [eax+308]
	push	edx
	mov	ecx, DWORD PTR $T7[ebp]
	call	??0FalconATCMessage@@QAE@VVU_ID@@PAVVuTargetEntity@@E@Z ; FalconATCMessage::FalconATCMessage
	mov	DWORD PTR tv145[ebp], eax
	jmp	SHORT $LN17@SendATCMsg
$LN16@SendATCMsg:
	mov	DWORD PTR tv145[ebp], 0
$LN17@SendATCMsg:
	mov	eax, DWORD PTR tv145[ebp]
	mov	DWORD PTR $T5[ebp], eax
	mov	DWORD PTR __$EHRec$[ebp+8], -1
	mov	ecx, DWORD PTR $T5[ebp]
	mov	DWORD PTR _ATCMessage$[ebp], ecx

; 2868 : 	}
; 2869 : 	else {

	jmp	$LN10@SendATCMsg
$LN11@SendATCMsg:

; 2870 : 		ATCMessage = new FalconATCMessage( airbase, FalconLocalGame );

	push	62					; 0000003eH
	call	??2@YAPAXI@Z				; operator new
	add	esp, 4
	mov	DWORD PTR $T6[ebp], eax
	mov	DWORD PTR __$EHRec$[ebp+8], 1
	cmp	DWORD PTR $T6[ebp], 0
	je	SHORT $LN20@SendATCMsg
	mov	ecx, OFFSET ?vuLocalSessionEntity@@3V?$VuBin@VVuSessionEntity@@@@A ; vuLocalSessionEntity
	call	??B?$VuBin@VVuSessionEntity@@@@QBE_NXZ	; VuBin<VuSessionEntity>::operator bool
	movzx	edx, al
	test	edx, edx
	je	SHORT $LN18@SendATCMsg
	mov	ecx, OFFSET ?vuLocalSessionEntity@@3V?$VuBin@VVuSessionEntity@@@@A ; vuLocalSessionEntity
	call	?get@?$VuBin@VVuSessionEntity@@@@QBEPAVVuSessionEntity@@XZ ; VuBin<VuSessionEntity>::get
	mov	ecx, eax
	call	?GetGame@FalconSessionEntity@@QAEPAVFalconGameEntity@@XZ ; FalconSessionEntity::GetGame
	mov	DWORD PTR tv168[ebp], eax
	jmp	SHORT $LN19@SendATCMsg
$LN18@SendATCMsg:
	mov	DWORD PTR tv168[ebp], 0
$LN19@SendATCMsg:
	push	1
	mov	eax, DWORD PTR tv168[ebp]
	push	eax
	mov	ecx, DWORD PTR _this$[ebp]
	mov	edx, DWORD PTR [ecx+312]
	push	edx
	mov	eax, DWORD PTR [ecx+308]
	push	eax
	mov	ecx, DWORD PTR $T6[ebp]
	call	??0FalconATCMessage@@QAE@VVU_ID@@PAVVuTargetEntity@@E@Z ; FalconATCMessage::FalconATCMessage
	mov	DWORD PTR tv173[ebp], eax
	jmp	SHORT $LN21@SendATCMsg
$LN20@SendATCMsg:
	mov	DWORD PTR tv173[ebp], 0
$LN21@SendATCMsg:
	mov	ecx, DWORD PTR tv173[ebp]
	mov	DWORD PTR $T4[ebp], ecx
	mov	DWORD PTR __$EHRec$[ebp+8], -1
	mov	edx, DWORD PTR $T4[ebp]
	mov	DWORD PTR _ATCMessage$[ebp], edx
$LN10@SendATCMsg:

; 2871 : 	}
; 2872 : 
; 2873 : 	ATCMessage->dataBlock.from		= self->Id();

	lea	eax, DWORD PTR $T2[ebp]
	push	eax
	mov	ecx, DWORD PTR _this$[ebp]
	mov	ecx, DWORD PTR [ecx+56]
	call	?Id@VuEntity@@QBE?AVVU_ID@@XZ		; VuEntity::Id
	mov	edx, DWORD PTR [eax]
	mov	eax, DWORD PTR [eax+4]
	mov	ecx, DWORD PTR _ATCMessage$[ebp]
	mov	DWORD PTR [ecx+48], edx
	mov	DWORD PTR [ecx+52], eax

; 2874 : 	ATCMessage->dataBlock.status	= (short)msg;

	mov	edx, DWORD PTR _ATCMessage$[ebp]
	mov	ax, WORD PTR _msg$[ebp]
	mov	WORD PTR [edx+60], ax

; 2875 : 
; 2876 : 	switch(msg){

	mov	ecx, DWORD PTR _msg$[ebp]
	mov	DWORD PTR tv186[ebp], ecx
	cmp	DWORD PTR tv186[ebp], 29		; 0000001dH
	ja	SHORT $LN8@SendATCMsg
	mov	edx, DWORD PTR tv186[ebp]
	movzx	eax, BYTE PTR $LN24@SendATCMsg[edx]
	jmp	DWORD PTR $LN26@SendATCMsg[eax*4]
$LN7@SendATCMsg:

; 2877 : 		case lReqClearance:
; 2878 : 			ATCMessage->dataBlock.type		= FalconATCMessage::RequestClearance;

	mov	ecx, DWORD PTR _ATCMessage$[ebp]
	mov	DWORD PTR [ecx+56], 0

; 2879 : 			break;

	jmp	SHORT $LN8@SendATCMsg
$LN6@SendATCMsg:

; 2880 : 		case lTakingPosition:
; 2881 : 			ATCMessage->dataBlock.type		= FalconATCMessage::ContactApproach;

	mov	edx, DWORD PTR _ATCMessage$[ebp]
	mov	DWORD PTR [edx+56], 2

; 2882 : 			break;		

	jmp	SHORT $LN8@SendATCMsg
$LN5@SendATCMsg:

; 2883 : 		case lReqEmerClearance:
; 2884 : 			ATCMessage->dataBlock.type		= FalconATCMessage::RequestEmerClearance;

	mov	eax, DWORD PTR _ATCMessage$[ebp]
	mov	DWORD PTR [eax+56], 1

; 2885 : 			break;

	jmp	SHORT $LN8@SendATCMsg
$LN4@SendATCMsg:

; 2886 : 		case tReqTaxi:
; 2887 : 			ATCMessage->dataBlock.type		= FalconATCMessage::RequestTaxi;

	mov	ecx, DWORD PTR _ATCMessage$[ebp]
	mov	DWORD PTR [ecx+56], 4

; 2888 : 		break;

	jmp	SHORT $LN8@SendATCMsg
$LN3@SendATCMsg:

; 2889 : 		case tReqTakeoff:
; 2890 : 			ATCMessage->dataBlock.type		= FalconATCMessage::RequestTakeoff;

	mov	edx, DWORD PTR _ATCMessage$[ebp]
	mov	DWORD PTR [edx+56], 3

; 2891 : 		break;

	jmp	SHORT $LN8@SendATCMsg
$LN2@SendATCMsg:

; 2892 : 		case tEmerStop:	
; 2893 : 		case lAborted:
; 2894 : 		case lIngressing:
; 2895 : 		case lHolding:
; 2896 : 		case lFirstLeg:
; 2897 : 		case lToBase:
; 2898 : 		case lToFinal:
; 2899 : 		case lOnFinal:
; 2900 : 		case lLanded:
; 2901 : 		case lTaxiOff:
; 2902 : 		case lEmerHold:
; 2903 : 		case lEmergencyToBase:
; 2904 : 		case lEmergencyToFinal:
; 2905 : 		case lEmergencyOnFinal:
; 2906 : 		case lCrashed:
; 2907 : 		case tTaxi:
; 2908 : 		case tHoldShort:
; 2909 : 		case tPrepToTakeRunway:
; 2910 : 		case tTakeRunway:
; 2911 : 		case tTakeoff:
; 2912 : 		case tFlyOut:
; 2913 : 		case noATC:
; 2914 : 		case tTaxiBack:
; 2915 : 			ATCMessage->dataBlock.type		= FalconATCMessage::UpdateStatus;

	mov	eax, DWORD PTR _ATCMessage$[ebp]
	mov	DWORD PTR [eax+56], 5
$LN8@SendATCMsg:

; 2916 : 			break;
; 2917 : 		default:
; 2918 : 			//we shouldn't get here
; 2919 : 			ShiWarning("Sending unknown ATC message type");
; 2920 : 	}
; 2921 : 
; 2922 : 	FalconSendMessage(ATCMessage, TRUE);

	push	1
	mov	ecx, DWORD PTR _ATCMessage$[ebp]
	push	ecx
	call	?FalconSendMessage@@YAXPAVVuMessage@@H@Z ; FalconSendMessage
	add	esp, 8
$LN14@SendATCMsg:

; 2923 : }

	mov	ecx, DWORD PTR __$EHRec$[ebp]
	mov	DWORD PTR fs:0, ecx
	pop	ecx
	mov	esp, ebp
	pop	ebp
	ret	4
	npad	3
$LN26@SendATCMsg:
	DD	$LN2@SendATCMsg
	DD	$LN7@SendATCMsg
	DD	$LN5@SendATCMsg
	DD	$LN6@SendATCMsg
	DD	$LN4@SendATCMsg
	DD	$LN3@SendATCMsg
	DD	$LN8@SendATCMsg
$LN24@SendATCMsg:
	DB	0
	DB	1
	DB	2
	DB	0
	DB	3
	DB	0
	DB	0
	DB	0
	DB	0
	DB	0
	DB	0
	DB	0
	DB	6
	DB	0
	DB	0
	DB	0
	DB	0
	DB	0
	DB	0
	DB	4
	DB	5
	DB	0
	DB	0
	DB	6
	DB	0
	DB	0
	DB	0
	DB	0
	DB	0
	DB	0
_TEXT	ENDS
text$x	SEGMENT
__unwindfunclet$?SendATCMsg@DigitalBrain@@QAEXW4AtcStatusEnum@@@Z$0:
	mov	eax, DWORD PTR $T7[ebp]
	push	eax
	call	??3@YAXPAX@Z				; operator delete
	pop	ecx
	ret	0
__unwindfunclet$?SendATCMsg@DigitalBrain@@QAEXW4AtcStatusEnum@@@Z$1:
	mov	eax, DWORD PTR $T6[ebp]
	push	eax
	call	??3@YAXPAX@Z				; operator delete
	pop	ecx
	ret	0
__ehhandler$?SendATCMsg@DigitalBrain@@QAEXW4AtcStatusEnum@@@Z:
	mov	edx, DWORD PTR [esp+8]
	lea	eax, DWORD PTR [edx+12]
	mov	ecx, DWORD PTR [edx-64]
	xor	ecx, eax
	call	@__security_check_cookie@4
	mov	eax, OFFSET __ehfuncinfo$?SendATCMsg@DigitalBrain@@QAEXW4AtcStatusEnum@@@Z
	jmp	___CxxFrameHandler3
text$x	ENDS
?SendATCMsg@DigitalBrain@@QAEXW4AtcStatusEnum@@@Z ENDP	; DigitalBrain::SendATCMsg
; Function compile flags: /Odtp
; File c:\users\zhitao li\documents\visual studio 2012\projects\freefalcon\sim\digi\landme.cpp
_TEXT	SEGMENT
$T1 = -12						; size = 8
_this$ = -4						; size = 4
?ResetATC@DigitalBrain@@QAEXXZ PROC			; DigitalBrain::ResetATC
; _this$ = ecx

; 74   : void DigitalBrain::ResetATC(){

	push	ebp
	mov	ebp, esp
	sub	esp, 12					; 0000000cH
	mov	DWORD PTR _this$[ebp], ecx

; 75   : 	SetATCStatus(noATC);

	push	0
	mov	ecx, DWORD PTR _this$[ebp]
	call	?SetATCStatus@DigitalBrain@@QAEXW4AtcStatusEnum@@@Z ; DigitalBrain::SetATCStatus

; 76   : 	if (!(moreFlags & NewHomebase)){

	mov	eax, DWORD PTR _this$[ebp]
	mov	ecx, DWORD PTR [eax+968]
	and	ecx, 16					; 00000010H
	jne	SHORT $LN1@ResetATC

; 77   : 		// we set a new airbase to head to (for example because of fumes fuel -> Actions.cpp)
; 78   : 		airbase = self->HomeAirbase();

	lea	edx, DWORD PTR $T1[ebp]
	push	edx
	mov	eax, DWORD PTR _this$[ebp]
	mov	ecx, DWORD PTR [eax+56]
	call	?HomeAirbase@AircraftClass@@QAE?AVVU_ID@@XZ ; AircraftClass::HomeAirbase
	mov	ecx, DWORD PTR [eax]
	mov	edx, DWORD PTR [eax+4]
	mov	eax, DWORD PTR _this$[ebp]
	mov	DWORD PTR [eax+308], ecx
	mov	DWORD PTR [eax+312], edx
$LN1@ResetATC:

; 79   : 	}
; 80   : 	rwIndex = 0;

	mov	ecx, DWORD PTR _this$[ebp]
	mov	DWORD PTR [ecx+304], 0

; 81   : 	rwtime = 0;

	mov	edx, DWORD PTR _this$[ebp]
	mov	DWORD PTR [edx+316], 0

; 82   : 	waittimer = 0;

	mov	eax, DWORD PTR _this$[ebp]
	mov	DWORD PTR [eax+344], 0

; 83   : 	SetTaxiPoint(0);

	push	0
	mov	ecx, DWORD PTR _this$[ebp]
	call	?SetTaxiPoint@DigitalBrain@@QAEXH@Z	; DigitalBrain::SetTaxiPoint

; 84   : 	desiredSpeed = 0;

	mov	ecx, DWORD PTR _this$[ebp]
	movss	xmm0, DWORD PTR __real@00000000
	movss	DWORD PTR [ecx+336], xmm0

; 85   : 	turnDist = 0;

	mov	edx, DWORD PTR _this$[ebp]
	movss	xmm0, DWORD PTR __real@00000000
	movss	DWORD PTR [edx+340], xmm0

; 86   : }

	mov	esp, ebp
	pop	ebp
	ret	0
?ResetATC@DigitalBrain@@QAEXXZ ENDP			; DigitalBrain::ResetATC
_TEXT	ENDS
; Function compile flags: /Odtp
; File c:\users\zhitao li\documents\visual studio 2012\projects\freefalcon\sim\include\digi.h
;	COMDAT ?IsSetATC@DigitalBrain@@QAEHH@Z
_TEXT	SEGMENT
_this$ = -8						; size = 4
tv68 = -4						; size = 4
_flag$ = 8						; size = 4
?IsSetATC@DigitalBrain@@QAEHH@Z PROC			; DigitalBrain::IsSetATC, COMDAT
; _this$ = ecx

; 709  : 	int		IsSetATC(int flag)								{return (atcFlags & flag) && TRUE;}

	push	ebp
	mov	ebp, esp
	sub	esp, 8
	mov	DWORD PTR _this$[ebp], ecx
	mov	eax, DWORD PTR _this$[ebp]
	mov	ecx, DWORD PTR [eax+300]
	and	ecx, DWORD PTR _flag$[ebp]
	je	SHORT $LN3@IsSetATC
	mov	edx, 1
	test	edx, edx
	je	SHORT $LN3@IsSetATC
	mov	DWORD PTR tv68[ebp], 1
	jmp	SHORT $LN4@IsSetATC
$LN3@IsSetATC:
	mov	DWORD PTR tv68[ebp], 0
$LN4@IsSetATC:
	mov	eax, DWORD PTR tv68[ebp]
	mov	esp, ebp
	pop	ebp
	ret	4
?IsSetATC@DigitalBrain@@QAEHH@Z ENDP			; DigitalBrain::IsSetATC
_TEXT	ENDS
; Function compile flags: /Odtp
; File c:\users\zhitao li\documents\visual studio 2012\projects\freefalcon\sim\include\digi.h
;	COMDAT ?ClearATCFlag@DigitalBrain@@QAEXH@Z
_TEXT	SEGMENT
_this$ = -4						; size = 4
_flag$ = 8						; size = 4
?ClearATCFlag@DigitalBrain@@QAEXH@Z PROC		; DigitalBrain::ClearATCFlag, COMDAT
; _this$ = ecx

; 708  : 	void	ClearATCFlag(int flag)							{atcFlags &= ~flag;}

	push	ebp
	mov	ebp, esp
	push	ecx
	mov	DWORD PTR _this$[ebp], ecx
	mov	eax, DWORD PTR _flag$[ebp]
	not	eax
	mov	ecx, DWORD PTR _this$[ebp]
	and	eax, DWORD PTR [ecx+300]
	mov	edx, DWORD PTR _this$[ebp]
	mov	DWORD PTR [edx+300], eax
	mov	esp, ebp
	pop	ebp
	ret	4
?ClearATCFlag@DigitalBrain@@QAEXH@Z ENDP		; DigitalBrain::ClearATCFlag
_TEXT	ENDS
; Function compile flags: /Odtp
; File c:\users\zhitao li\documents\visual studio 2012\projects\freefalcon\sim\include\digi.h
;	COMDAT ?SetATCFlag@DigitalBrain@@QAEXH@Z
_TEXT	SEGMENT
_this$ = -4						; size = 4
_flag$ = 8						; size = 4
?SetATCFlag@DigitalBrain@@QAEXH@Z PROC			; DigitalBrain::SetATCFlag, COMDAT
; _this$ = ecx

; 707  : 	void	SetATCFlag(int flag)							{atcFlags |= flag;}

	push	ebp
	mov	ebp, esp
	push	ecx
	mov	DWORD PTR _this$[ebp], ecx
	mov	eax, DWORD PTR _this$[ebp]
	mov	ecx, DWORD PTR [eax+300]
	or	ecx, DWORD PTR _flag$[ebp]
	mov	edx, DWORD PTR _this$[ebp]
	mov	DWORD PTR [edx+300], ecx
	mov	esp, ebp
	pop	ebp
	ret	4
?SetATCFlag@DigitalBrain@@QAEXH@Z ENDP			; DigitalBrain::SetATCFlag
_TEXT	ENDS
; Function compile flags: /Odtp
; File c:\users\zhitao li\documents\visual studio 2012\projects\freefalcon\sim\digi\landme.cpp
_TEXT	SEGMENT
tv436 = -96						; size = 4
tv429 = -92						; size = 4
tv393 = -88						; size = 4
tv387 = -84						; size = 4
tv205 = -80						; size = 4
tv164 = -76						; size = 4
tv163 = -72						; size = 4
tv156 = -68						; size = 4
_x1$ = -64						; size = 4
_y1$ = -60						; size = 4
_queue$1 = -56						; size = 4
_tmpY$ = -52						; size = 4
_tmpX$ = -48						; size = 4
_length$2 = -44						; size = 4
_runwayStats$ = -40					; size = 4
_point$ = -36						; size = 4
_relx$ = -32						; size = 4
_Airbase$ = -28						; size = 4
_cosHdg$ = -24						; size = 4
_sinHdg$ = -20						; size = 4
_dist$ = -16						; size = 4
_dx$ = -12						; size = 4
_dy$ = -8						; size = 4
_this$ = -4						; size = 4
_offDist$ = 8						; size = 4
_dir$ = 12						; size = 4
?OffsetTrackPoint@DigitalBrain@@QAEXMH@Z PROC		; DigitalBrain::OffsetTrackPoint
; _this$ = ecx

; 2962 : {

	push	ebp
	mov	ebp, esp
	sub	esp, 96					; 00000060H
	mov	DWORD PTR _this$[ebp], ecx

; 2963 : 	float dx=0.0F, dy=0.0F, dist=0.0F, relx=0.0F, x1=0.0F, y1=0.0F;

	movss	xmm0, DWORD PTR __real@00000000
	movss	DWORD PTR _dx$[ebp], xmm0
	movss	xmm0, DWORD PTR __real@00000000
	movss	DWORD PTR _dy$[ebp], xmm0
	movss	xmm0, DWORD PTR __real@00000000
	movss	DWORD PTR _dist$[ebp], xmm0
	movss	xmm0, DWORD PTR __real@00000000
	movss	DWORD PTR _relx$[ebp], xmm0
	movss	xmm0, DWORD PTR __real@00000000
	movss	DWORD PTR _x1$[ebp], xmm0
	movss	xmm0, DWORD PTR __real@00000000
	movss	DWORD PTR _y1$[ebp], xmm0

; 2964 : 	float cosHdg=1.0F, sinHdg=0.0F;

	movss	xmm0, DWORD PTR __real@3f800000
	movss	DWORD PTR _cosHdg$[ebp], xmm0
	movss	xmm0, DWORD PTR __real@00000000
	movss	DWORD PTR _sinHdg$[ebp], xmm0

; 2965 : 	int point=0;

	mov	DWORD PTR _point$[ebp], 0

; 2966 : 	float tmpX=0.0F, tmpY=0.0F;

	movss	xmm0, DWORD PTR __real@00000000
	movss	DWORD PTR _tmpX$[ebp], xmm0
	movss	xmm0, DWORD PTR __real@00000000
	movss	DWORD PTR _tmpY$[ebp], xmm0

; 2967 : 	ObjectiveClass *Airbase = NULL;

	mov	DWORD PTR _Airbase$[ebp], 0

; 2968 : 	runwayStatsStruct *runwayStats = NULL;

	mov	DWORD PTR _runwayStats$[ebp], 0

; 2969 : 
; 2970 : 	if(dir == centerRunway)

	cmp	DWORD PTR _dir$[ebp], 10		; 0000000aH
	jne	$LN18@OffsetTrac

; 2971 : 	{
; 2972 : 		Airbase = (ObjectiveClass *)vuDatabase->Find(airbase);

	mov	eax, DWORD PTR _this$[ebp]
	mov	ecx, DWORD PTR [eax+312]
	push	ecx
	mov	edx, DWORD PTR [eax+308]
	push	edx
	mov	ecx, DWORD PTR ?vuDatabase@@3PAVVuDatabase@@A ; vuDatabase
	call	?Find@VuDatabase@@QBEPAVVuEntity@@VVU_ID@@@Z ; VuDatabase::Find
	mov	DWORD PTR _Airbase$[ebp], eax

; 2973 : 		if(Airbase)

	cmp	DWORD PTR _Airbase$[ebp], 0
	je	$LN17@OffsetTrac

; 2974 : 		{
; 2975 : 			int queue = GetQueue(rwIndex);

	mov	eax, DWORD PTR _this$[ebp]
	mov	ecx, DWORD PTR [eax+304]
	push	ecx
	call	?GetQueue@@YAHH@Z			; GetQueue
	add	esp, 4
	mov	DWORD PTR _queue$1[ebp], eax

; 2976 : 			runwayStats = Airbase->brain->GetRunwayStats();

	mov	edx, DWORD PTR _Airbase$[ebp]
	mov	ecx, DWORD PTR [edx+240]
