; Listing generated by Microsoft (R) Optimizing Compiler Version 17.00.51106.1 

	TITLE	C:\Users\Zhitao Li\Documents\Visual Studio 2012\Projects\Freefalcon\SIM\DIGI\tankbrn.cpp
	.686P
	.XMM
	include listing.inc
	.model	flat

INCLUDELIB LIBCMT
INCLUDELIB OLDNAMES

PUBLIC	?traps@_Num_base@std@@2_NB			; std::_Num_base::traps
PUBLIC	?round_style@_Num_base@std@@2W4float_round_style@2@B ; std::_Num_base::round_style
PUBLIC	?digits@_Num_base@std@@2HB			; std::_Num_base::digits
PUBLIC	?digits10@_Num_base@std@@2HB			; std::_Num_base::digits10
PUBLIC	?max_digits10@_Num_base@std@@2HB		; std::_Num_base::max_digits10
PUBLIC	?max_exponent@_Num_base@std@@2HB		; std::_Num_base::max_exponent
PUBLIC	?max_exponent10@_Num_base@std@@2HB		; std::_Num_base::max_exponent10
PUBLIC	?min_exponent@_Num_base@std@@2HB		; std::_Num_base::min_exponent
PUBLIC	?min_exponent10@_Num_base@std@@2HB		; std::_Num_base::min_exponent10
PUBLIC	?radix@_Num_base@std@@2HB			; std::_Num_base::radix
PUBLIC	?is_bounded@_Num_int_base@std@@2_NB		; std::_Num_int_base::is_bounded
PUBLIC	?is_exact@_Num_int_base@std@@2_NB		; std::_Num_int_base::is_exact
PUBLIC	?is_integer@_Num_int_base@std@@2_NB		; std::_Num_int_base::is_integer
PUBLIC	?is_modulo@_Num_int_base@std@@2_NB		; std::_Num_int_base::is_modulo
PUBLIC	?is_specialized@_Num_int_base@std@@2_NB		; std::_Num_int_base::is_specialized
PUBLIC	?radix@_Num_int_base@std@@2HB			; std::_Num_int_base::radix
PUBLIC	?has_denorm@_Num_float_base@std@@2W4float_denorm_style@2@B ; std::_Num_float_base::has_denorm
PUBLIC	?has_denorm_loss@_Num_float_base@std@@2_NB	; std::_Num_float_base::has_denorm_loss
PUBLIC	?SIMDIRTYDATA_INTERVAL@FalconEntity@@2KB	; FalconEntity::SIMDIRTYDATA_INTERVAL
PUBLIC	?CMPDIRTYDATA_INTERVAL@FalconEntity@@2KB	; FalconEntity::CMPDIRTYDATA_INTERVAL
PUBLIC	?has_infinity@_Num_float_base@std@@2_NB		; std::_Num_float_base::has_infinity
PUBLIC	?has_quiet_NaN@_Num_float_base@std@@2_NB	; std::_Num_float_base::has_quiet_NaN
PUBLIC	?has_signaling_NaN@_Num_float_base@std@@2_NB	; std::_Num_float_base::has_signaling_NaN
PUBLIC	?is_bounded@_Num_float_base@std@@2_NB		; std::_Num_float_base::is_bounded
PUBLIC	?is_exact@_Num_float_base@std@@2_NB		; std::_Num_float_base::is_exact
PUBLIC	?is_iec559@_Num_float_base@std@@2_NB		; std::_Num_float_base::is_iec559
PUBLIC	?is_integer@_Num_float_base@std@@2_NB		; std::_Num_float_base::is_integer
PUBLIC	?is_modulo@_Num_float_base@std@@2_NB		; std::_Num_float_base::is_modulo
PUBLIC	?is_signed@_Num_float_base@std@@2_NB		; std::_Num_float_base::is_signed
PUBLIC	?is_specialized@_Num_float_base@std@@2_NB	; std::_Num_float_base::is_specialized
PUBLIC	?tinyness_before@_Num_float_base@std@@2_NB	; std::_Num_float_base::tinyness_before
PUBLIC	?traps@_Num_float_base@std@@2_NB		; std::_Num_float_base::traps
PUBLIC	?round_style@_Num_float_base@std@@2W4float_round_style@2@B ; std::_Num_float_base::round_style
PUBLIC	?radix@_Num_float_base@std@@2HB			; std::_Num_float_base::radix
PUBLIC	?is_signed@?$numeric_limits@D@std@@2_NB		; std::numeric_limits<char>::is_signed
PUBLIC	?collate@?$_Locbase@H@std@@2HB			; std::_Locbase<int>::collate
PUBLIC	?digits@?$numeric_limits@D@std@@2HB		; std::numeric_limits<char>::digits
PUBLIC	?ctype@?$_Locbase@H@std@@2HB			; std::_Locbase<int>::ctype
PUBLIC	?monetary@?$_Locbase@H@std@@2HB			; std::_Locbase<int>::monetary
PUBLIC	?digits10@?$numeric_limits@D@std@@2HB		; std::numeric_limits<char>::digits10
PUBLIC	?numeric@?$_Locbase@H@std@@2HB			; std::_Locbase<int>::numeric
PUBLIC	?time@?$_Locbase@H@std@@2HB			; std::_Locbase<int>::time
PUBLIC	?messages@?$_Locbase@H@std@@2HB			; std::_Locbase<int>::messages
PUBLIC	?all@?$_Locbase@H@std@@2HB			; std::_Locbase<int>::all
PUBLIC	?none@?$_Locbase@H@std@@2HB			; std::_Locbase<int>::none
PUBLIC	?is_signed@?$numeric_limits@_W@std@@2_NB	; std::numeric_limits<wchar_t>::is_signed
PUBLIC	?digits@?$numeric_limits@_W@std@@2HB		; std::numeric_limits<wchar_t>::digits
PUBLIC	?digits10@?$numeric_limits@_W@std@@2HB		; std::numeric_limits<wchar_t>::digits10
PUBLIC	?is_modulo@?$numeric_limits@_N@std@@2_NB	; std::numeric_limits<bool>::is_modulo
PUBLIC	?is_signed@?$numeric_limits@_N@std@@2_NB	; std::numeric_limits<bool>::is_signed
PUBLIC	?digits@?$numeric_limits@_N@std@@2HB		; std::numeric_limits<bool>::digits
PUBLIC	?digits10@?$numeric_limits@_N@std@@2HB		; std::numeric_limits<bool>::digits10
PUBLIC	?is_signed@?$numeric_limits@C@std@@2_NB		; std::numeric_limits<signed char>::is_signed
PUBLIC	?digits@?$numeric_limits@C@std@@2HB		; std::numeric_limits<signed char>::digits
PUBLIC	?digits10@?$numeric_limits@C@std@@2HB		; std::numeric_limits<signed char>::digits10
PUBLIC	?table_size@?$ctype@D@std@@2IB			; std::ctype<char>::table_size
PUBLIC	?is_signed@?$numeric_limits@E@std@@2_NB		; std::numeric_limits<unsigned char>::is_signed
PUBLIC	?value@?$integral_constant@_N$0A@@std@@2_NB	; std::integral_constant<bool,0>::value
PUBLIC	?digits@?$numeric_limits@E@std@@2HB		; std::numeric_limits<unsigned char>::digits
PUBLIC	?digits10@?$numeric_limits@E@std@@2HB		; std::numeric_limits<unsigned char>::digits10
PUBLIC	?value@?$integral_constant@_N$00@std@@2_NB	; std::integral_constant<bool,1>::value
PUBLIC	?is_signed@?$numeric_limits@F@std@@2_NB		; std::numeric_limits<short>::is_signed
PUBLIC	?digits@?$numeric_limits@F@std@@2HB		; std::numeric_limits<short>::digits
PUBLIC	?digits10@?$numeric_limits@F@std@@2HB		; std::numeric_limits<short>::digits10
PUBLIC	?is_signed@?$numeric_limits@G@std@@2_NB		; std::numeric_limits<unsigned short>::is_signed
PUBLIC	?digits@?$numeric_limits@G@std@@2HB		; std::numeric_limits<unsigned short>::digits
PUBLIC	?digits10@?$numeric_limits@G@std@@2HB		; std::numeric_limits<unsigned short>::digits10
PUBLIC	?is_signed@?$numeric_limits@H@std@@2_NB		; std::numeric_limits<int>::is_signed
PUBLIC	?value@?$_Sizeof@HU_Nil@std@@U12@U12@U12@U12@U12@U12@@std@@2IB ; std::_Sizeof<int,std::_Nil,std::_Nil,std::_Nil,std::_Nil,std::_Nil,std::_Nil,std::_Nil>::value
PUBLIC	?digits@?$numeric_limits@H@std@@2HB		; std::numeric_limits<int>::digits
PUBLIC	?digits10@?$numeric_limits@H@std@@2HB		; std::numeric_limits<int>::digits10
PUBLIC	?is_signed@?$numeric_limits@I@std@@2_NB		; std::numeric_limits<unsigned int>::is_signed
PUBLIC	?digits@?$numeric_limits@I@std@@2HB		; std::numeric_limits<unsigned int>::digits
PUBLIC	?digits10@?$numeric_limits@I@std@@2HB		; std::numeric_limits<unsigned int>::digits10
PUBLIC	?is_signed@?$numeric_limits@J@std@@2_NB		; std::numeric_limits<long>::is_signed
PUBLIC	?digits@?$numeric_limits@J@std@@2HB		; std::numeric_limits<long>::digits
PUBLIC	?digits10@?$numeric_limits@J@std@@2HB		; std::numeric_limits<long>::digits10
PUBLIC	?is_signed@?$numeric_limits@K@std@@2_NB		; std::numeric_limits<unsigned long>::is_signed
PUBLIC	?digits@?$numeric_limits@K@std@@2HB		; std::numeric_limits<unsigned long>::digits
PUBLIC	?digits10@?$numeric_limits@K@std@@2HB		; std::numeric_limits<unsigned long>::digits10
PUBLIC	?is_signed@?$numeric_limits@_J@std@@2_NB	; std::numeric_limits<__int64>::is_signed
PUBLIC	?digits@?$numeric_limits@_J@std@@2HB		; std::numeric_limits<__int64>::digits
PUBLIC	?digits10@?$numeric_limits@_J@std@@2HB		; std::numeric_limits<__int64>::digits10
PUBLIC	?is_signed@?$numeric_limits@_K@std@@2_NB	; std::numeric_limits<unsigned __int64>::is_signed
PUBLIC	?digits@?$numeric_limits@_K@std@@2HB		; std::numeric_limits<unsigned __int64>::digits
PUBLIC	?digits10@?$numeric_limits@_K@std@@2HB		; std::numeric_limits<unsigned __int64>::digits10
PUBLIC	?digits@?$numeric_limits@M@std@@2HB		; std::numeric_limits<float>::digits
PUBLIC	?digits10@?$numeric_limits@M@std@@2HB		; std::numeric_limits<float>::digits10
PUBLIC	?max_digits10@?$numeric_limits@M@std@@2HB	; std::numeric_limits<float>::max_digits10
PUBLIC	?max_exponent@?$numeric_limits@M@std@@2HB	; std::numeric_limits<float>::max_exponent
PUBLIC	?max_exponent10@?$numeric_limits@M@std@@2HB	; std::numeric_limits<float>::max_exponent10
PUBLIC	?min_exponent@?$numeric_limits@M@std@@2HB	; std::numeric_limits<float>::min_exponent
PUBLIC	?min_exponent10@?$numeric_limits@M@std@@2HB	; std::numeric_limits<float>::min_exponent10
PUBLIC	?value@?$integral_constant@I$0A@@std@@2IB	; std::integral_constant<unsigned int,0>::value
PUBLIC	?digits@?$numeric_limits@N@std@@2HB		; std::numeric_limits<double>::digits
PUBLIC	?digits10@?$numeric_limits@N@std@@2HB		; std::numeric_limits<double>::digits10
PUBLIC	?max_digits10@?$numeric_limits@N@std@@2HB	; std::numeric_limits<double>::max_digits10
PUBLIC	?max_exponent@?$numeric_limits@N@std@@2HB	; std::numeric_limits<double>::max_exponent
PUBLIC	?max_exponent10@?$numeric_limits@N@std@@2HB	; std::numeric_limits<double>::max_exponent10
PUBLIC	?min_exponent@?$numeric_limits@N@std@@2HB	; std::numeric_limits<double>::min_exponent
PUBLIC	?min_exponent10@?$numeric_limits@N@std@@2HB	; std::numeric_limits<double>::min_exponent10
PUBLIC	?digits@?$numeric_limits@O@std@@2HB		; std::numeric_limits<long double>::digits
PUBLIC	?skipws@?$_Iosb@H@std@@2W4_Fmtflags@12@B	; std::_Iosb<int>::skipws
PUBLIC	?unitbuf@?$_Iosb@H@std@@2W4_Fmtflags@12@B	; std::_Iosb<int>::unitbuf
PUBLIC	?digits10@?$numeric_limits@O@std@@2HB		; std::numeric_limits<long double>::digits10
PUBLIC	?max_digits10@?$numeric_limits@O@std@@2HB	; std::numeric_limits<long double>::max_digits10
PUBLIC	?uppercase@?$_Iosb@H@std@@2W4_Fmtflags@12@B	; std::_Iosb<int>::uppercase
PUBLIC	?showbase@?$_Iosb@H@std@@2W4_Fmtflags@12@B	; std::_Iosb<int>::showbase
PUBLIC	?max_exponent@?$numeric_limits@O@std@@2HB	; std::numeric_limits<long double>::max_exponent
PUBLIC	?showpoint@?$_Iosb@H@std@@2W4_Fmtflags@12@B	; std::_Iosb<int>::showpoint
PUBLIC	?max_exponent10@?$numeric_limits@O@std@@2HB	; std::numeric_limits<long double>::max_exponent10
PUBLIC	?showpos@?$_Iosb@H@std@@2W4_Fmtflags@12@B	; std::_Iosb<int>::showpos
PUBLIC	?left@?$_Iosb@H@std@@2W4_Fmtflags@12@B		; std::_Iosb<int>::left
PUBLIC	?min_exponent@?$numeric_limits@O@std@@2HB	; std::numeric_limits<long double>::min_exponent
PUBLIC	?right@?$_Iosb@H@std@@2W4_Fmtflags@12@B		; std::_Iosb<int>::right
PUBLIC	?min_exponent10@?$numeric_limits@O@std@@2HB	; std::numeric_limits<long double>::min_exponent10
PUBLIC	?internal@?$_Iosb@H@std@@2W4_Fmtflags@12@B	; std::_Iosb<int>::internal
PUBLIC	?dec@?$_Iosb@H@std@@2W4_Fmtflags@12@B		; std::_Iosb<int>::dec
PUBLIC	?oct@?$_Iosb@H@std@@2W4_Fmtflags@12@B		; std::_Iosb<int>::oct
PUBLIC	?hex@?$_Iosb@H@std@@2W4_Fmtflags@12@B		; std::_Iosb<int>::hex
PUBLIC	?scientific@?$_Iosb@H@std@@2W4_Fmtflags@12@B	; std::_Iosb<int>::scientific
PUBLIC	?fixed@?$_Iosb@H@std@@2W4_Fmtflags@12@B		; std::_Iosb<int>::fixed
PUBLIC	?hexfloat@?$_Iosb@H@std@@2W4_Fmtflags@12@B	; std::_Iosb<int>::hexfloat
PUBLIC	?boolalpha@?$_Iosb@H@std@@2W4_Fmtflags@12@B	; std::_Iosb<int>::boolalpha
PUBLIC	?_Stdio@?$_Iosb@H@std@@2W4_Fmtflags@12@B	; std::_Iosb<int>::_Stdio
PUBLIC	?adjustfield@?$_Iosb@H@std@@2W4_Fmtflags@12@B	; std::_Iosb<int>::adjustfield
PUBLIC	?basefield@?$_Iosb@H@std@@2W4_Fmtflags@12@B	; std::_Iosb<int>::basefield
PUBLIC	?floatfield@?$_Iosb@H@std@@2W4_Fmtflags@12@B	; std::_Iosb<int>::floatfield
PUBLIC	?goodbit@?$_Iosb@H@std@@2W4_Iostate@12@B	; std::_Iosb<int>::goodbit
PUBLIC	?eofbit@?$_Iosb@H@std@@2W4_Iostate@12@B		; std::_Iosb<int>::eofbit
PUBLIC	?failbit@?$_Iosb@H@std@@2W4_Iostate@12@B	; std::_Iosb<int>::failbit
PUBLIC	?badbit@?$_Iosb@H@std@@2W4_Iostate@12@B		; std::_Iosb<int>::badbit
PUBLIC	?_Hardfail@?$_Iosb@H@std@@2W4_Iostate@12@B	; std::_Iosb<int>::_Hardfail
PUBLIC	?in@?$_Iosb@H@std@@2W4_Openmode@12@B		; std::_Iosb<int>::in
PUBLIC	?out@?$_Iosb@H@std@@2W4_Openmode@12@B		; std::_Iosb<int>::out
PUBLIC	?ate@?$_Iosb@H@std@@2W4_Openmode@12@B		; std::_Iosb<int>::ate
PUBLIC	?app@?$_Iosb@H@std@@2W4_Openmode@12@B		; std::_Iosb<int>::app
PUBLIC	?trunc@?$_Iosb@H@std@@2W4_Openmode@12@B		; std::_Iosb<int>::trunc
PUBLIC	?_Nocreate@?$_Iosb@H@std@@2W4_Openmode@12@B	; std::_Iosb<int>::_Nocreate
PUBLIC	?_Noreplace@?$_Iosb@H@std@@2W4_Openmode@12@B	; std::_Iosb<int>::_Noreplace
PUBLIC	?binary@?$_Iosb@H@std@@2W4_Openmode@12@B	; std::_Iosb<int>::binary
PUBLIC	?beg@?$_Iosb@H@std@@2W4_Seekdir@12@B		; std::_Iosb<int>::beg
PUBLIC	?cur@?$_Iosb@H@std@@2W4_Seekdir@12@B		; std::_Iosb<int>::cur
PUBLIC	?end@?$_Iosb@H@std@@2W4_Seekdir@12@B		; std::_Iosb<int>::end
PUBLIC	?_Stream_err@failure@ios_base@std@@0W4io_errc@43@B ; std::ios_base::failure::_Stream_err
PUBLIC	?value@?$_Sizeof@U_Nil@std@@U12@U12@U12@U12@U12@U12@U12@@std@@2IB ; std::_Sizeof<std::_Nil,std::_Nil,std::_Nil,std::_Nil,std::_Nil,std::_Nil,std::_Nil,std::_Nil>::value
PUBLIC	?has_denorm@_Num_base@std@@2W4float_denorm_style@2@B ; std::_Num_base::has_denorm
PUBLIC	?has_denorm_loss@_Num_base@std@@2_NB		; std::_Num_base::has_denorm_loss
PUBLIC	?has_infinity@_Num_base@std@@2_NB		; std::_Num_base::has_infinity
PUBLIC	?has_quiet_NaN@_Num_base@std@@2_NB		; std::_Num_base::has_quiet_NaN
PUBLIC	?has_signaling_NaN@_Num_base@std@@2_NB		; std::_Num_base::has_signaling_NaN
PUBLIC	?is_bounded@_Num_base@std@@2_NB			; std::_Num_base::is_bounded
PUBLIC	?is_exact@_Num_base@std@@2_NB			; std::_Num_base::is_exact
PUBLIC	?is_iec559@_Num_base@std@@2_NB			; std::_Num_base::is_iec559
PUBLIC	?is_integer@_Num_base@std@@2_NB			; std::_Num_base::is_integer
PUBLIC	?is_modulo@_Num_base@std@@2_NB			; std::_Num_base::is_modulo
PUBLIC	?is_signed@_Num_base@std@@2_NB			; std::_Num_base::is_signed
PUBLIC	?is_specialized@_Num_base@std@@2_NB		; std::_Num_base::is_specialized
PUBLIC	?tinyness_before@_Num_base@std@@2_NB		; std::_Num_base::tinyness_before
;	COMDAT ?tinyness_before@_Num_base@std@@2_NB
CONST	SEGMENT
?tinyness_before@_Num_base@std@@2_NB DB 00H		; std::_Num_base::tinyness_before
CONST	ENDS
;	COMDAT ?is_specialized@_Num_base@std@@2_NB
CONST	SEGMENT
?is_specialized@_Num_base@std@@2_NB DB 00H		; std::_Num_base::is_specialized
CONST	ENDS
;	COMDAT ?is_signed@_Num_base@std@@2_NB
CONST	SEGMENT
?is_signed@_Num_base@std@@2_NB DB 00H			; std::_Num_base::is_signed
CONST	ENDS
;	COMDAT ?is_modulo@_Num_base@std@@2_NB
CONST	SEGMENT
?is_modulo@_Num_base@std@@2_NB DB 00H			; std::_Num_base::is_modulo
CONST	ENDS
;	COMDAT ?is_integer@_Num_base@std@@2_NB
CONST	SEGMENT
?is_integer@_Num_base@std@@2_NB DB 00H			; std::_Num_base::is_integer
CONST	ENDS
;	COMDAT ?is_iec559@_Num_base@std@@2_NB
CONST	SEGMENT
?is_iec559@_Num_base@std@@2_NB DB 00H			; std::_Num_base::is_iec559
CONST	ENDS
;	COMDAT ?is_exact@_Num_base@std@@2_NB
CONST	SEGMENT
?is_exact@_Num_base@std@@2_NB DB 00H			; std::_Num_base::is_exact
CONST	ENDS
;	COMDAT ?is_bounded@_Num_base@std@@2_NB
CONST	SEGMENT
?is_bounded@_Num_base@std@@2_NB DB 00H			; std::_Num_base::is_bounded
CONST	ENDS
;	COMDAT ?has_signaling_NaN@_Num_base@std@@2_NB
CONST	SEGMENT
?has_signaling_NaN@_Num_base@std@@2_NB DB 00H		; std::_Num_base::has_signaling_NaN
CONST	ENDS
;	COMDAT ?has_quiet_NaN@_Num_base@std@@2_NB
CONST	SEGMENT
?has_quiet_NaN@_Num_base@std@@2_NB DB 00H		; std::_Num_base::has_quiet_NaN
CONST	ENDS
;	COMDAT ?has_infinity@_Num_base@std@@2_NB
CONST	SEGMENT
?has_infinity@_Num_base@std@@2_NB DB 00H		; std::_Num_base::has_infinity
CONST	ENDS
;	COMDAT ?has_denorm_loss@_Num_base@std@@2_NB
CONST	SEGMENT
?has_denorm_loss@_Num_base@std@@2_NB DB 00H		; std::_Num_base::has_denorm_loss
CONST	ENDS
;	COMDAT ?has_denorm@_Num_base@std@@2W4float_denorm_style@2@B
CONST	SEGMENT
?has_denorm@_Num_base@std@@2W4float_denorm_style@2@B DD 00H ; std::_Num_base::has_denorm
CONST	ENDS
;	COMDAT ?value@?$_Sizeof@U_Nil@std@@U12@U12@U12@U12@U12@U12@U12@@std@@2IB
CONST	SEGMENT
?value@?$_Sizeof@U_Nil@std@@U12@U12@U12@U12@U12@U12@U12@@std@@2IB DD 00H ; std::_Sizeof<std::_Nil,std::_Nil,std::_Nil,std::_Nil,std::_Nil,std::_Nil,std::_Nil,std::_Nil>::value
CONST	ENDS
;	COMDAT ?_Stream_err@failure@ios_base@std@@0W4io_errc@43@B
CONST	SEGMENT
?_Stream_err@failure@ios_base@std@@0W4io_errc@43@B DD 01H ; std::ios_base::failure::_Stream_err
CONST	ENDS
;	COMDAT ?end@?$_Iosb@H@std@@2W4_Seekdir@12@B
CONST	SEGMENT
?end@?$_Iosb@H@std@@2W4_Seekdir@12@B DD 02H		; std::_Iosb<int>::end
CONST	ENDS
;	COMDAT ?cur@?$_Iosb@H@std@@2W4_Seekdir@12@B
CONST	SEGMENT
?cur@?$_Iosb@H@std@@2W4_Seekdir@12@B DD 01H		; std::_Iosb<int>::cur
CONST	ENDS
;	COMDAT ?beg@?$_Iosb@H@std@@2W4_Seekdir@12@B
CONST	SEGMENT
?beg@?$_Iosb@H@std@@2W4_Seekdir@12@B DD 00H		; std::_Iosb<int>::beg
CONST	ENDS
;	COMDAT ?binary@?$_Iosb@H@std@@2W4_Openmode@12@B
CONST	SEGMENT
?binary@?$_Iosb@H@std@@2W4_Openmode@12@B DD 020H	; std::_Iosb<int>::binary
CONST	ENDS
;	COMDAT ?_Noreplace@?$_Iosb@H@std@@2W4_Openmode@12@B
CONST	SEGMENT
?_Noreplace@?$_Iosb@H@std@@2W4_Openmode@12@B DD 080H	; std::_Iosb<int>::_Noreplace
CONST	ENDS
;	COMDAT ?_Nocreate@?$_Iosb@H@std@@2W4_Openmode@12@B
CONST	SEGMENT
?_Nocreate@?$_Iosb@H@std@@2W4_Openmode@12@B DD 040H	; std::_Iosb<int>::_Nocreate
CONST	ENDS
;	COMDAT ?trunc@?$_Iosb@H@std@@2W4_Openmode@12@B
CONST	SEGMENT
?trunc@?$_Iosb@H@std@@2W4_Openmode@12@B DD 010H		; std::_Iosb<int>::trunc
CONST	ENDS
;	COMDAT ?app@?$_Iosb@H@std@@2W4_Openmode@12@B
CONST	SEGMENT
?app@?$_Iosb@H@std@@2W4_Openmode@12@B DD 08H		; std::_Iosb<int>::app
CONST	ENDS
;	COMDAT ?ate@?$_Iosb@H@std@@2W4_Openmode@12@B
CONST	SEGMENT
?ate@?$_Iosb@H@std@@2W4_Openmode@12@B DD 04H		; std::_Iosb<int>::ate
CONST	ENDS
;	COMDAT ?out@?$_Iosb@H@std@@2W4_Openmode@12@B
CONST	SEGMENT
?out@?$_Iosb@H@std@@2W4_Openmode@12@B DD 02H		; std::_Iosb<int>::out
CONST	ENDS
;	COMDAT ?in@?$_Iosb@H@std@@2W4_Openmode@12@B
CONST	SEGMENT
?in@?$_Iosb@H@std@@2W4_Openmode@12@B DD 01H		; std::_Iosb<int>::in
CONST	ENDS
;	COMDAT ?_Hardfail@?$_Iosb@H@std@@2W4_Iostate@12@B
CONST	SEGMENT
?_Hardfail@?$_Iosb@H@std@@2W4_Iostate@12@B DD 010H	; std::_Iosb<int>::_Hardfail
CONST	ENDS
;	COMDAT ?badbit@?$_Iosb@H@std@@2W4_Iostate@12@B
CONST	SEGMENT
?badbit@?$_Iosb@H@std@@2W4_Iostate@12@B DD 04H		; std::_Iosb<int>::badbit
CONST	ENDS
;	COMDAT ?failbit@?$_Iosb@H@std@@2W4_Iostate@12@B
CONST	SEGMENT
?failbit@?$_Iosb@H@std@@2W4_Iostate@12@B DD 02H		; std::_Iosb<int>::failbit
CONST	ENDS
;	COMDAT ?eofbit@?$_Iosb@H@std@@2W4_Iostate@12@B
CONST	SEGMENT
?eofbit@?$_Iosb@H@std@@2W4_Iostate@12@B DD 01H		; std::_Iosb<int>::eofbit
CONST	ENDS
;	COMDAT ?goodbit@?$_Iosb@H@std@@2W4_Iostate@12@B
CONST	SEGMENT
?goodbit@?$_Iosb@H@std@@2W4_Iostate@12@B DD 00H		; std::_Iosb<int>::goodbit
CONST	ENDS
;	COMDAT ?floatfield@?$_Iosb@H@std@@2W4_Fmtflags@12@B
CONST	SEGMENT
?floatfield@?$_Iosb@H@std@@2W4_Fmtflags@12@B DD 03000H	; std::_Iosb<int>::floatfield
CONST	ENDS
;	COMDAT ?basefield@?$_Iosb@H@std@@2W4_Fmtflags@12@B
CONST	SEGMENT
?basefield@?$_Iosb@H@std@@2W4_Fmtflags@12@B DD 0e00H	; std::_Iosb<int>::basefield
CONST	ENDS
;	COMDAT ?adjustfield@?$_Iosb@H@std@@2W4_Fmtflags@12@B
CONST	SEGMENT
?adjustfield@?$_Iosb@H@std@@2W4_Fmtflags@12@B DD 01c0H	; std::_Iosb<int>::adjustfield
CONST	ENDS
;	COMDAT ?_Stdio@?$_Iosb@H@std@@2W4_Fmtflags@12@B
CONST	SEGMENT
?_Stdio@?$_Iosb@H@std@@2W4_Fmtflags@12@B DD 08000H	; std::_Iosb<int>::_Stdio
CONST	ENDS
;	COMDAT ?boolalpha@?$_Iosb@H@std@@2W4_Fmtflags@12@B
CONST	SEGMENT
?boolalpha@?$_Iosb@H@std@@2W4_Fmtflags@12@B DD 04000H	; std::_Iosb<int>::boolalpha
CONST	ENDS
;	COMDAT ?hexfloat@?$_Iosb@H@std@@2W4_Fmtflags@12@B
CONST	SEGMENT
?hexfloat@?$_Iosb@H@std@@2W4_Fmtflags@12@B DD 03000H	; std::_Iosb<int>::hexfloat
CONST	ENDS
;	COMDAT ?fixed@?$_Iosb@H@std@@2W4_Fmtflags@12@B
CONST	SEGMENT
?fixed@?$_Iosb@H@std@@2W4_Fmtflags@12@B DD 02000H	; std::_Iosb<int>::fixed
CONST	ENDS
;	COMDAT ?scientific@?$_Iosb@H@std@@2W4_Fmtflags@12@B
CONST	SEGMENT
?scientific@?$_Iosb@H@std@@2W4_Fmtflags@12@B DD 01000H	; std::_Iosb<int>::scientific
CONST	ENDS
;	COMDAT ?hex@?$_Iosb@H@std@@2W4_Fmtflags@12@B
CONST	SEGMENT
?hex@?$_Iosb@H@std@@2W4_Fmtflags@12@B DD 0800H		; std::_Iosb<int>::hex
CONST	ENDS
;	COMDAT ?oct@?$_Iosb@H@std@@2W4_Fmtflags@12@B
CONST	SEGMENT
?oct@?$_Iosb@H@std@@2W4_Fmtflags@12@B DD 0400H		; std::_Iosb<int>::oct
CONST	ENDS
;	COMDAT ?dec@?$_Iosb@H@std@@2W4_Fmtflags@12@B
CONST	SEGMENT
?dec@?$_Iosb@H@std@@2W4_Fmtflags@12@B DD 0200H		; std::_Iosb<int>::dec
CONST	ENDS
;	COMDAT ?internal@?$_Iosb@H@std@@2W4_Fmtflags@12@B
CONST	SEGMENT
?internal@?$_Iosb@H@std@@2W4_Fmtflags@12@B DD 0100H	; std::_Iosb<int>::internal
CONST	ENDS
;	COMDAT ?min_exponent10@?$numeric_limits@O@std@@2HB
CONST	SEGMENT
?min_exponent10@?$numeric_limits@O@std@@2HB DD 0fffffecdH ; std::numeric_limits<long double>::min_exponent10
CONST	ENDS
;	COMDAT ?right@?$_Iosb@H@std@@2W4_Fmtflags@12@B
CONST	SEGMENT
?right@?$_Iosb@H@std@@2W4_Fmtflags@12@B DD 080H		; std::_Iosb<int>::right
CONST	ENDS
;	COMDAT ?min_exponent@?$numeric_limits@O@std@@2HB
CONST	SEGMENT
?min_exponent@?$numeric_limits@O@std@@2HB DD 0fffffc03H	; std::numeric_limits<long double>::min_exponent
CONST	ENDS
;	COMDAT ?left@?$_Iosb@H@std@@2W4_Fmtflags@12@B
CONST	SEGMENT
?left@?$_Iosb@H@std@@2W4_Fmtflags@12@B DD 040H		; std::_Iosb<int>::left
CONST	ENDS
;	COMDAT ?showpos@?$_Iosb@H@std@@2W4_Fmtflags@12@B
CONST	SEGMENT
?showpos@?$_Iosb@H@std@@2W4_Fmtflags@12@B DD 020H	; std::_Iosb<int>::showpos
CONST	ENDS
;	COMDAT ?max_exponent10@?$numeric_limits@O@std@@2HB
CONST	SEGMENT
?max_exponent10@?$numeric_limits@O@std@@2HB DD 0134H	; std::numeric_limits<long double>::max_exponent10
CONST	ENDS
;	COMDAT ?showpoint@?$_Iosb@H@std@@2W4_Fmtflags@12@B
CONST	SEGMENT
?showpoint@?$_Iosb@H@std@@2W4_Fmtflags@12@B DD 010H	; std::_Iosb<int>::showpoint
CONST	ENDS
;	COMDAT ?max_exponent@?$numeric_limits@O@std@@2HB
CONST	SEGMENT
?max_exponent@?$numeric_limits@O@std@@2HB DD 0400H	; std::numeric_limits<long double>::max_exponent
CONST	ENDS
;	COMDAT ?showbase@?$_Iosb@H@std@@2W4_Fmtflags@12@B
CONST	SEGMENT
?showbase@?$_Iosb@H@std@@2W4_Fmtflags@12@B DD 08H	; std::_Iosb<int>::showbase
CONST	ENDS
;	COMDAT ?uppercase@?$_Iosb@H@std@@2W4_Fmtflags@12@B
CONST	SEGMENT
?uppercase@?$_Iosb@H@std@@2W4_Fmtflags@12@B DD 04H	; std::_Iosb<int>::uppercase
CONST	ENDS
;	COMDAT ?max_digits10@?$numeric_limits@O@std@@2HB
CONST	SEGMENT
?max_digits10@?$numeric_limits@O@std@@2HB DD 011H	; std::numeric_limits<long double>::max_digits10
CONST	ENDS
;	COMDAT ?digits10@?$numeric_limits@O@std@@2HB
CONST	SEGMENT
?digits10@?$numeric_limits@O@std@@2HB DD 0fH		; std::numeric_limits<long double>::digits10
CONST	ENDS
;	COMDAT ?unitbuf@?$_Iosb@H@std@@2W4_Fmtflags@12@B
CONST	SEGMENT
?unitbuf@?$_Iosb@H@std@@2W4_Fmtflags@12@B DD 02H	; std::_Iosb<int>::unitbuf
CONST	ENDS
;	COMDAT ?skipws@?$_Iosb@H@std@@2W4_Fmtflags@12@B
CONST	SEGMENT
?skipws@?$_Iosb@H@std@@2W4_Fmtflags@12@B DD 01H		; std::_Iosb<int>::skipws
CONST	ENDS
;	COMDAT ?digits@?$numeric_limits@O@std@@2HB
CONST	SEGMENT
?digits@?$numeric_limits@O@std@@2HB DD 035H		; std::numeric_limits<long double>::digits
CONST	ENDS
;	COMDAT ?min_exponent10@?$numeric_limits@N@std@@2HB
CONST	SEGMENT
?min_exponent10@?$numeric_limits@N@std@@2HB DD 0fffffecdH ; std::numeric_limits<double>::min_exponent10
CONST	ENDS
;	COMDAT ?min_exponent@?$numeric_limits@N@std@@2HB
CONST	SEGMENT
?min_exponent@?$numeric_limits@N@std@@2HB DD 0fffffc03H	; std::numeric_limits<double>::min_exponent
CONST	ENDS
;	COMDAT ?max_exponent10@?$numeric_limits@N@std@@2HB
CONST	SEGMENT
?max_exponent10@?$numeric_limits@N@std@@2HB DD 0134H	; std::numeric_limits<double>::max_exponent10
CONST	ENDS
;	COMDAT ?max_exponent@?$numeric_limits@N@std@@2HB
CONST	SEGMENT
?max_exponent@?$numeric_limits@N@std@@2HB DD 0400H	; std::numeric_limits<double>::max_exponent
CONST	ENDS
;	COMDAT ?max_digits10@?$numeric_limits@N@std@@2HB
CONST	SEGMENT
?max_digits10@?$numeric_limits@N@std@@2HB DD 011H	; std::numeric_limits<double>::max_digits10
CONST	ENDS
;	COMDAT ?digits10@?$numeric_limits@N@std@@2HB
CONST	SEGMENT
?digits10@?$numeric_limits@N@std@@2HB DD 0fH		; std::numeric_limits<double>::digits10
CONST	ENDS
;	COMDAT ?digits@?$numeric_limits@N@std@@2HB
CONST	SEGMENT
?digits@?$numeric_limits@N@std@@2HB DD 035H		; std::numeric_limits<double>::digits
CONST	ENDS
;	COMDAT ?value@?$integral_constant@I$0A@@std@@2IB
CONST	SEGMENT
?value@?$integral_constant@I$0A@@std@@2IB DD 00H	; std::integral_constant<unsigned int,0>::value
CONST	ENDS
;	COMDAT ?min_exponent10@?$numeric_limits@M@std@@2HB
CONST	SEGMENT
?min_exponent10@?$numeric_limits@M@std@@2HB DD 0ffffffdbH ; std::numeric_limits<float>::min_exponent10
CONST	ENDS
;	COMDAT ?min_exponent@?$numeric_limits@M@std@@2HB
CONST	SEGMENT
?min_exponent@?$numeric_limits@M@std@@2HB DD 0ffffff83H	; std::numeric_limits<float>::min_exponent
CONST	ENDS
;	COMDAT ?max_exponent10@?$numeric_limits@M@std@@2HB
CONST	SEGMENT
?max_exponent10@?$numeric_limits@M@std@@2HB DD 026H	; std::numeric_limits<float>::max_exponent10
CONST	ENDS
;	COMDAT ?max_exponent@?$numeric_limits@M@std@@2HB
CONST	SEGMENT
?max_exponent@?$numeric_limits@M@std@@2HB DD 080H	; std::numeric_limits<float>::max_exponent
CONST	ENDS
;	COMDAT ?max_digits10@?$numeric_limits@M@std@@2HB
CONST	SEGMENT
?max_digits10@?$numeric_limits@M@std@@2HB DD 09H	; std::numeric_limits<float>::max_digits10
CONST	ENDS
;	COMDAT ?digits10@?$numeric_limits@M@std@@2HB
CONST	SEGMENT
?digits10@?$numeric_limits@M@std@@2HB DD 06H		; std::numeric_limits<float>::digits10
CONST	ENDS
;	COMDAT ?digits@?$numeric_limits@M@std@@2HB
CONST	SEGMENT
?digits@?$numeric_limits@M@std@@2HB DD 018H		; std::numeric_limits<float>::digits
CONST	ENDS
;	COMDAT ?digits10@?$numeric_limits@_K@std@@2HB
CONST	SEGMENT
?digits10@?$numeric_limits@_K@std@@2HB DD 013H		; std::numeric_limits<unsigned __int64>::digits10
CONST	ENDS
;	COMDAT ?digits@?$numeric_limits@_K@std@@2HB
CONST	SEGMENT
?digits@?$numeric_limits@_K@std@@2HB DD 040H		; std::numeric_limits<unsigned __int64>::digits
CONST	ENDS
;	COMDAT ?is_signed@?$numeric_limits@_K@std@@2_NB
CONST	SEGMENT
?is_signed@?$numeric_limits@_K@std@@2_NB DB 00H		; std::numeric_limits<unsigned __int64>::is_signed
CONST	ENDS
;	COMDAT ?digits10@?$numeric_limits@_J@std@@2HB
CONST	SEGMENT
?digits10@?$numeric_limits@_J@std@@2HB DD 012H		; std::numeric_limits<__int64>::digits10
CONST	ENDS
;	COMDAT ?digits@?$numeric_limits@_J@std@@2HB
CONST	SEGMENT
?digits@?$numeric_limits@_J@std@@2HB DD 03fH		; std::numeric_limits<__int64>::digits
CONST	ENDS
;	COMDAT ?is_signed@?$numeric_limits@_J@std@@2_NB
CONST	SEGMENT
?is_signed@?$numeric_limits@_J@std@@2_NB DB 01H		; std::numeric_limits<__int64>::is_signed
CONST	ENDS
;	COMDAT ?digits10@?$numeric_limits@K@std@@2HB
CONST	SEGMENT
?digits10@?$numeric_limits@K@std@@2HB DD 09H		; std::numeric_limits<unsigned long>::digits10
CONST	ENDS
;	COMDAT ?digits@?$numeric_limits@K@std@@2HB
CONST	SEGMENT
?digits@?$numeric_limits@K@std@@2HB DD 020H		; std::numeric_limits<unsigned long>::digits
CONST	ENDS
;	COMDAT ?is_signed@?$numeric_limits@K@std@@2_NB
CONST	SEGMENT
?is_signed@?$numeric_limits@K@std@@2_NB DB 00H		; std::numeric_limits<unsigned long>::is_signed
CONST	ENDS
;	COMDAT ?digits10@?$numeric_limits@J@std@@2HB
CONST	SEGMENT
?digits10@?$numeric_limits@J@std@@2HB DD 09H		; std::numeric_limits<long>::digits10
CONST	ENDS
;	COMDAT ?digits@?$numeric_limits@J@std@@2HB
CONST	SEGMENT
?digits@?$numeric_limits@J@std@@2HB DD 01fH		; std::numeric_limits<long>::digits
CONST	ENDS
;	COMDAT ?is_signed@?$numeric_limits@J@std@@2_NB
CONST	SEGMENT
?is_signed@?$numeric_limits@J@std@@2_NB DB 01H		; std::numeric_limits<long>::is_signed
CONST	ENDS
;	COMDAT ?digits10@?$numeric_limits@I@std@@2HB
CONST	SEGMENT
?digits10@?$numeric_limits@I@std@@2HB DD 09H		; std::numeric_limits<unsigned int>::digits10
CONST	ENDS
;	COMDAT ?digits@?$numeric_limits@I@std@@2HB
CONST	SEGMENT
?digits@?$numeric_limits@I@std@@2HB DD 020H		; std::numeric_limits<unsigned int>::digits
CONST	ENDS
;	COMDAT ?is_signed@?$numeric_limits@I@std@@2_NB
CONST	SEGMENT
?is_signed@?$numeric_limits@I@std@@2_NB DB 00H		; std::numeric_limits<unsigned int>::is_signed
CONST	ENDS
;	COMDAT ?digits10@?$numeric_limits@H@std@@2HB
CONST	SEGMENT
?digits10@?$numeric_limits@H@std@@2HB DD 09H		; std::numeric_limits<int>::digits10
CONST	ENDS
;	COMDAT ?digits@?$numeric_limits@H@std@@2HB
CONST	SEGMENT
?digits@?$numeric_limits@H@std@@2HB DD 01fH		; std::numeric_limits<int>::digits
CONST	ENDS
;	COMDAT ?value@?$_Sizeof@HU_Nil@std@@U12@U12@U12@U12@U12@U12@@std@@2IB
CONST	SEGMENT
?value@?$_Sizeof@HU_Nil@std@@U12@U12@U12@U12@U12@U12@@std@@2IB DD 01H ; std::_Sizeof<int,std::_Nil,std::_Nil,std::_Nil,std::_Nil,std::_Nil,std::_Nil,std::_Nil>::value
CONST	ENDS
;	COMDAT ?is_signed@?$numeric_limits@H@std@@2_NB
CONST	SEGMENT
?is_signed@?$numeric_limits@H@std@@2_NB DB 01H		; std::numeric_limits<int>::is_signed
CONST	ENDS
;	COMDAT ?digits10@?$numeric_limits@G@std@@2HB
CONST	SEGMENT
?digits10@?$numeric_limits@G@std@@2HB DD 04H		; std::numeric_limits<unsigned short>::digits10
CONST	ENDS
;	COMDAT ?digits@?$numeric_limits@G@std@@2HB
CONST	SEGMENT
?digits@?$numeric_limits@G@std@@2HB DD 010H		; std::numeric_limits<unsigned short>::digits
CONST	ENDS
;	COMDAT ?is_signed@?$numeric_limits@G@std@@2_NB
CONST	SEGMENT
?is_signed@?$numeric_limits@G@std@@2_NB DB 00H		; std::numeric_limits<unsigned short>::is_signed
CONST	ENDS
;	COMDAT ?digits10@?$numeric_limits@F@std@@2HB
CONST	SEGMENT
?digits10@?$numeric_limits@F@std@@2HB DD 04H		; std::numeric_limits<short>::digits10
CONST	ENDS
;	COMDAT ?digits@?$numeric_limits@F@std@@2HB
CONST	SEGMENT
?digits@?$numeric_limits@F@std@@2HB DD 0fH		; std::numeric_limits<short>::digits
CONST	ENDS
;	COMDAT ?is_signed@?$numeric_limits@F@std@@2_NB
CONST	SEGMENT
?is_signed@?$numeric_limits@F@std@@2_NB DB 01H		; std::numeric_limits<short>::is_signed
CONST	ENDS
;	COMDAT ?value@?$integral_constant@_N$00@std@@2_NB
CONST	SEGMENT
?value@?$integral_constant@_N$00@std@@2_NB DB 01H	; std::integral_constant<bool,1>::value
CONST	ENDS
;	COMDAT ?digits10@?$numeric_limits@E@std@@2HB
CONST	SEGMENT
?digits10@?$numeric_limits@E@std@@2HB DD 02H		; std::numeric_limits<unsigned char>::digits10
CONST	ENDS
;	COMDAT ?digits@?$numeric_limits@E@std@@2HB
CONST	SEGMENT
?digits@?$numeric_limits@E@std@@2HB DD 08H		; std::numeric_limits<unsigned char>::digits
CONST	ENDS
;	COMDAT ?value@?$integral_constant@_N$0A@@std@@2_NB
CONST	SEGMENT
?value@?$integral_constant@_N$0A@@std@@2_NB DB 00H	; std::integral_constant<bool,0>::value
CONST	ENDS
;	COMDAT ?is_signed@?$numeric_limits@E@std@@2_NB
CONST	SEGMENT
?is_signed@?$numeric_limits@E@std@@2_NB DB 00H		; std::numeric_limits<unsigned char>::is_signed
CONST	ENDS
;	COMDAT ?table_size@?$ctype@D@std@@2IB
CONST	SEGMENT
?table_size@?$ctype@D@std@@2IB DD 0100H			; std::ctype<char>::table_size
CONST	ENDS
;	COMDAT ?digits10@?$numeric_limits@C@std@@2HB
CONST	SEGMENT
?digits10@?$numeric_limits@C@std@@2HB DD 02H		; std::numeric_limits<signed char>::digits10
CONST	ENDS
;	COMDAT ?digits@?$numeric_limits@C@std@@2HB
CONST	SEGMENT
?digits@?$numeric_limits@C@std@@2HB DD 07H		; std::numeric_limits<signed char>::digits
CONST	ENDS
;	COMDAT ?is_signed@?$numeric_limits@C@std@@2_NB
CONST	SEGMENT
?is_signed@?$numeric_limits@C@std@@2_NB DB 01H		; std::numeric_limits<signed char>::is_signed
CONST	ENDS
CONST	SEGMENT
_L_2	DD	03f317218r			; 0.693147
CONST	ENDS
;	COMDAT ?digits10@?$numeric_limits@_N@std@@2HB
CONST	SEGMENT
?digits10@?$numeric_limits@_N@std@@2HB DD 00H		; std::numeric_limits<bool>::digits10
CONST	ENDS
;	COMDAT ?digits@?$numeric_limits@_N@std@@2HB
CONST	SEGMENT
?digits@?$numeric_limits@_N@std@@2HB DD 01H		; std::numeric_limits<bool>::digits
CONST	ENDS
;	COMDAT ?is_signed@?$numeric_limits@_N@std@@2_NB
CONST	SEGMENT
?is_signed@?$numeric_limits@_N@std@@2_NB DB 00H		; std::numeric_limits<bool>::is_signed
CONST	ENDS
;	COMDAT ?is_modulo@?$numeric_limits@_N@std@@2_NB
CONST	SEGMENT
?is_modulo@?$numeric_limits@_N@std@@2_NB DB 00H		; std::numeric_limits<bool>::is_modulo
CONST	ENDS
_DATA	SEGMENT
_matrix44_ident DD 03f800000r			; 1
	DD	000000000r			; 0
	DD	000000000r			; 0
	DD	000000000r			; 0
	DD	000000000r			; 0
	DD	03f800000r			; 1
	DD	000000000r			; 0
	DD	000000000r			; 0
	DD	000000000r			; 0
	DD	000000000r			; 0
	DD	03f800000r			; 1
	DD	000000000r			; 0
	DD	000000000r			; 0
	DD	000000000r			; 0
	DD	000000000r			; 0
	DD	03f800000r			; 1
_matrix33_ident DD 03f800000r			; 1
	DD	000000000r			; 0
	DD	000000000r			; 0
	DD	000000000r			; 0
	DD	03f800000r			; 1
	DD	000000000r			; 0
	DD	000000000r			; 0
	DD	000000000r			; 0
	DD	03f800000r			; 1
_DATA	ENDS
;	COMDAT ?digits10@?$numeric_limits@_W@std@@2HB
CONST	SEGMENT
?digits10@?$numeric_limits@_W@std@@2HB DD 04H		; std::numeric_limits<wchar_t>::digits10
CONST	ENDS
;	COMDAT ?digits@?$numeric_limits@_W@std@@2HB
CONST	SEGMENT
?digits@?$numeric_limits@_W@std@@2HB DD 010H		; std::numeric_limits<wchar_t>::digits
CONST	ENDS
;	COMDAT ?is_signed@?$numeric_limits@_W@std@@2_NB
CONST	SEGMENT
?is_signed@?$numeric_limits@_W@std@@2_NB DB 00H		; std::numeric_limits<wchar_t>::is_signed
CONST	ENDS
;	COMDAT ?none@?$_Locbase@H@std@@2HB
CONST	SEGMENT
?none@?$_Locbase@H@std@@2HB DD 00H			; std::_Locbase<int>::none
CONST	ENDS
;	COMDAT ?all@?$_Locbase@H@std@@2HB
CONST	SEGMENT
?all@?$_Locbase@H@std@@2HB DD 03fH			; std::_Locbase<int>::all
CONST	ENDS
;	COMDAT ?messages@?$_Locbase@H@std@@2HB
CONST	SEGMENT
?messages@?$_Locbase@H@std@@2HB DD 020H			; std::_Locbase<int>::messages
CONST	ENDS
;	COMDAT ?time@?$_Locbase@H@std@@2HB
CONST	SEGMENT
?time@?$_Locbase@H@std@@2HB DD 010H			; std::_Locbase<int>::time
CONST	ENDS
;	COMDAT ?numeric@?$_Locbase@H@std@@2HB
CONST	SEGMENT
?numeric@?$_Locbase@H@std@@2HB DD 08H			; std::_Locbase<int>::numeric
CONST	ENDS
;	COMDAT ?digits10@?$numeric_limits@D@std@@2HB
CONST	SEGMENT
?digits10@?$numeric_limits@D@std@@2HB DD 02H		; std::numeric_limits<char>::digits10
CONST	ENDS
;	COMDAT ?monetary@?$_Locbase@H@std@@2HB
CONST	SEGMENT
?monetary@?$_Locbase@H@std@@2HB DD 04H			; std::_Locbase<int>::monetary
CONST	ENDS
;	COMDAT ?ctype@?$_Locbase@H@std@@2HB
CONST	SEGMENT
?ctype@?$_Locbase@H@std@@2HB DD 02H			; std::_Locbase<int>::ctype
CONST	ENDS
;	COMDAT ?digits@?$numeric_limits@D@std@@2HB
CONST	SEGMENT
?digits@?$numeric_limits@D@std@@2HB DD 07H		; std::numeric_limits<char>::digits
CONST	ENDS
;	COMDAT ?collate@?$_Locbase@H@std@@2HB
CONST	SEGMENT
?collate@?$_Locbase@H@std@@2HB DD 01H			; std::_Locbase<int>::collate
CONST	ENDS
;	COMDAT ?is_signed@?$numeric_limits@D@std@@2_NB
CONST	SEGMENT
?is_signed@?$numeric_limits@D@std@@2_NB DB 01H		; std::numeric_limits<char>::is_signed
CONST	ENDS
;	COMDAT ?radix@_Num_float_base@std@@2HB
CONST	SEGMENT
?radix@_Num_float_base@std@@2HB DD 02H			; std::_Num_float_base::radix
CONST	ENDS
;	COMDAT ?round_style@_Num_float_base@std@@2W4float_round_style@2@B
CONST	SEGMENT
?round_style@_Num_float_base@std@@2W4float_round_style@2@B DD 01H ; std::_Num_float_base::round_style
CONST	ENDS
;	COMDAT ?traps@_Num_float_base@std@@2_NB
CONST	SEGMENT
?traps@_Num_float_base@std@@2_NB DB 00H			; std::_Num_float_base::traps
CONST	ENDS
;	COMDAT ?tinyness_before@_Num_float_base@std@@2_NB
CONST	SEGMENT
?tinyness_before@_Num_float_base@std@@2_NB DB 01H	; std::_Num_float_base::tinyness_before
CONST	ENDS
;	COMDAT ?is_specialized@_Num_float_base@std@@2_NB
CONST	SEGMENT
?is_specialized@_Num_float_base@std@@2_NB DB 01H	; std::_Num_float_base::is_specialized
CONST	ENDS
;	COMDAT ?is_signed@_Num_float_base@std@@2_NB
CONST	SEGMENT
?is_signed@_Num_float_base@std@@2_NB DB 01H		; std::_Num_float_base::is_signed
CONST	ENDS
;	COMDAT ?is_modulo@_Num_float_base@std@@2_NB
CONST	SEGMENT
?is_modulo@_Num_float_base@std@@2_NB DB 00H		; std::_Num_float_base::is_modulo
CONST	ENDS
;	COMDAT ?is_integer@_Num_float_base@std@@2_NB
CONST	SEGMENT
?is_integer@_Num_float_base@std@@2_NB DB 00H		; std::_Num_float_base::is_integer
CONST	ENDS
;	COMDAT ?is_iec559@_Num_float_base@std@@2_NB
CONST	SEGMENT
?is_iec559@_Num_float_base@std@@2_NB DB 01H		; std::_Num_float_base::is_iec559
CONST	ENDS
;	COMDAT ?is_exact@_Num_float_base@std@@2_NB
CONST	SEGMENT
?is_exact@_Num_float_base@std@@2_NB DB 00H		; std::_Num_float_base::is_exact
CONST	ENDS
;	COMDAT ?is_bounded@_Num_float_base@std@@2_NB
CONST	SEGMENT
?is_bounded@_Num_float_base@std@@2_NB DB 01H		; std::_Num_float_base::is_bounded
CONST	ENDS
;	COMDAT ?has_signaling_NaN@_Num_float_base@std@@2_NB
CONST	SEGMENT
?has_signaling_NaN@_Num_float_base@std@@2_NB DB 01H	; std::_Num_float_base::has_signaling_NaN
CONST	ENDS
;	COMDAT ?has_quiet_NaN@_Num_float_base@std@@2_NB
CONST	SEGMENT
?has_quiet_NaN@_Num_float_base@std@@2_NB DB 01H		; std::_Num_float_base::has_quiet_NaN
CONST	ENDS
;	COMDAT ?has_infinity@_Num_float_base@std@@2_NB
CONST	SEGMENT
?has_infinity@_Num_float_base@std@@2_NB DB 01H		; std::_Num_float_base::has_infinity
CONST	ENDS
;	COMDAT ?CMPDIRTYDATA_INTERVAL@FalconEntity@@2KB
CONST	SEGMENT
?CMPDIRTYDATA_INTERVAL@FalconEntity@@2KB DD 0c8H	; FalconEntity::CMPDIRTYDATA_INTERVAL
CONST	ENDS
;	COMDAT ?SIMDIRTYDATA_INTERVAL@FalconEntity@@2KB
CONST	SEGMENT
?SIMDIRTYDATA_INTERVAL@FalconEntity@@2KB DD 0c8H	; FalconEntity::SIMDIRTYDATA_INTERVAL
CONST	ENDS
;	COMDAT ?has_denorm_loss@_Num_float_base@std@@2_NB
CONST	SEGMENT
?has_denorm_loss@_Num_float_base@std@@2_NB DB 01H	; std::_Num_float_base::has_denorm_loss
CONST	ENDS
;	COMDAT ?has_denorm@_Num_float_base@std@@2W4float_denorm_style@2@B
CONST	SEGMENT
?has_denorm@_Num_float_base@std@@2W4float_denorm_style@2@B DD 01H ; std::_Num_float_base::has_denorm
CONST	ENDS
;	COMDAT ?radix@_Num_int_base@std@@2HB
CONST	SEGMENT
?radix@_Num_int_base@std@@2HB DD 02H			; std::_Num_int_base::radix
CONST	ENDS
;	COMDAT ?is_specialized@_Num_int_base@std@@2_NB
CONST	SEGMENT
?is_specialized@_Num_int_base@std@@2_NB DB 01H		; std::_Num_int_base::is_specialized
CONST	ENDS
;	COMDAT ?is_modulo@_Num_int_base@std@@2_NB
CONST	SEGMENT
?is_modulo@_Num_int_base@std@@2_NB DB 01H		; std::_Num_int_base::is_modulo
CONST	ENDS
;	COMDAT ?is_integer@_Num_int_base@std@@2_NB
CONST	SEGMENT
?is_integer@_Num_int_base@std@@2_NB DB 01H		; std::_Num_int_base::is_integer
CONST	ENDS
;	COMDAT ?is_exact@_Num_int_base@std@@2_NB
CONST	SEGMENT
?is_exact@_Num_int_base@std@@2_NB DB 01H		; std::_Num_int_base::is_exact
CONST	ENDS
;	COMDAT ?is_bounded@_Num_int_base@std@@2_NB
CONST	SEGMENT
?is_bounded@_Num_int_base@std@@2_NB DB 01H		; std::_Num_int_base::is_bounded
CONST	ENDS
;	COMDAT ?radix@_Num_base@std@@2HB
CONST	SEGMENT
?radix@_Num_base@std@@2HB DD 00H			; std::_Num_base::radix
CONST	ENDS
;	COMDAT ?min_exponent10@_Num_base@std@@2HB
CONST	SEGMENT
?min_exponent10@_Num_base@std@@2HB DD 00H		; std::_Num_base::min_exponent10
CONST	ENDS
;	COMDAT ?min_exponent@_Num_base@std@@2HB
CONST	SEGMENT
?min_exponent@_Num_base@std@@2HB DD 00H			; std::_Num_base::min_exponent
CONST	ENDS
;	COMDAT ?max_exponent10@_Num_base@std@@2HB
CONST	SEGMENT
?max_exponent10@_Num_base@std@@2HB DD 00H		; std::_Num_base::max_exponent10
CONST	ENDS
;	COMDAT ?max_exponent@_Num_base@std@@2HB
CONST	SEGMENT
?max_exponent@_Num_base@std@@2HB DD 00H			; std::_Num_base::max_exponent
CONST	ENDS
;	COMDAT ?max_digits10@_Num_base@std@@2HB
CONST	SEGMENT
?max_digits10@_Num_base@std@@2HB DD 00H			; std::_Num_base::max_digits10
CONST	ENDS
;	COMDAT ?digits10@_Num_base@std@@2HB
CONST	SEGMENT
?digits10@_Num_base@std@@2HB DD 00H			; std::_Num_base::digits10
CONST	ENDS
;	COMDAT ?digits@_Num_base@std@@2HB
CONST	SEGMENT
?digits@_Num_base@std@@2HB DD 00H			; std::_Num_base::digits
CONST	ENDS
;	COMDAT ?round_style@_Num_base@std@@2W4float_round_style@2@B
CONST	SEGMENT
?round_style@_Num_base@std@@2W4float_round_style@2@B DD 00H ; std::_Num_base::round_style
CONST	ENDS
;	COMDAT ?traps@_Num_base@std@@2_NB
CONST	SEGMENT
?traps@_Num_base@std@@2_NB DB 00H			; std::_Num_base::traps
CONST	ENDS
PUBLIC	_fabsf
PUBLIC	_atanf
PUBLIC	_cosf
PUBLIC	_sinf
PUBLIC	?atan@@YAMM@Z					; atan
PUBLIC	?cos@@YAMM@Z					; cos
PUBLIC	?fabs@@YAMM@Z					; fabs
PUBLIC	?sin@@YAMM@Z					; sin
PUBLIC	??8VU_SESSION_ID@@QBEHABV0@@Z			; VU_SESSION_ID::operator==
PUBLIC	??9VU_ID@@QBE_NABV0@@Z				; VU_ID::operator!=
PUBLIC	?Id@VuEntity@@QBE?AVVU_ID@@XZ			; VuEntity::Id
PUBLIC	?OwnerId@VuEntity@@QBE?AVVU_ID@@XZ		; VuEntity::OwnerId
PUBLIC	?XPos@VuEntity@@QBEMXZ				; VuEntity::XPos
PUBLIC	?YPos@VuEntity@@QBEMXZ				; VuEntity::YPos
PUBLIC	?ZPos@VuEntity@@QBEMXZ				; VuEntity::ZPos
PUBLIC	?XDelta@VuEntity@@QBEMXZ			; VuEntity::XDelta
PUBLIC	?YDelta@VuEntity@@QBEMXZ			; VuEntity::YDelta
PUBLIC	?Yaw@VuEntity@@QBEMXZ				; VuEntity::Yaw
PUBLIC	?Pitch@VuEntity@@QBEMXZ				; VuEntity::Pitch
PUBLIC	?Roll@VuEntity@@QBEMXZ				; VuEntity::Roll
PUBLIC	?LastUpdateTime@VuEntity@@QBEKXZ		; VuEntity::LastUpdateTime
PUBLIC	??2@YAPAXIPAX@Z					; operator new
PUBLIC	??3@YAXPAX0@Z					; operator delete
PUBLIC	?length@?$char_traits@D@std@@SAIPBD@Z		; std::char_traits<char>::length
PUBLIC	?copy@?$char_traits@D@std@@SAPADPADPBDI@Z	; std::char_traits<char>::copy
PUBLIC	?move@?$char_traits@D@std@@SAPADPADPBDI@Z	; std::char_traits<char>::move
PUBLIC	?assign@?$char_traits@D@std@@SAXAADABD@Z	; std::char_traits<char>::assign
PUBLIC	??0?$allocator@D@std@@QAE@XZ			; std::allocator<char>::allocator<char>
PUBLIC	?deallocate@?$allocator@D@std@@QAEXPADI@Z	; std::allocator<char>::deallocate
PUBLIC	?allocate@?$allocator@D@std@@QAEPADI@Z		; std::allocator<char>::allocate
PUBLIC	?max_size@?$allocator@D@std@@QBEIXZ		; std::allocator<char>::max_size
PUBLIC	?max_size@?$allocator_traits@V?$allocator@D@std@@@std@@SAIABV?$allocator@D@2@@Z ; std::allocator_traits<std::allocator<char> >::max_size
PUBLIC	??0?$_Wrap_alloc@V?$allocator@D@std@@@std@@QAE@XZ ; std::_Wrap_alloc<std::allocator<char> >::_Wrap_alloc<std::allocator<char> >
PUBLIC	?allocate@?$_Wrap_alloc@V?$allocator@D@std@@@std@@QAEPADI@Z ; std::_Wrap_alloc<std::allocator<char> >::allocate
PUBLIC	?deallocate@?$_Wrap_alloc@V?$allocator@D@std@@@std@@QAEXPADI@Z ; std::_Wrap_alloc<std::allocator<char> >::deallocate
PUBLIC	?max_size@?$_Wrap_alloc@V?$allocator@D@std@@@std@@QBEIXZ ; std::_Wrap_alloc<std::allocator<char> >::max_size
PUBLIC	??0?$_String_val@U?$_Simple_types@D@std@@@std@@QAE@XZ ; std::_String_val<std::_Simple_types<char> >::_String_val<std::_Simple_types<char> >
PUBLIC	?_Myptr@?$_String_val@U?$_Simple_types@D@std@@@std@@QAEPADXZ ; std::_String_val<std::_Simple_types<char> >::_Myptr
PUBLIC	?_Myptr@?$_String_val@U?$_Simple_types@D@std@@@std@@QBEPBDXZ ; std::_String_val<std::_Simple_types<char> >::_Myptr
PUBLIC	??0?$_String_alloc@$0A@U?$_String_base_types@DV?$allocator@D@std@@@std@@@std@@QAE@ABV?$allocator@D@1@@Z ; std::_String_alloc<0,std::_String_base_types<char,std::allocator<char> > >::_String_alloc<0,std::_String_base_types<char,std::allocator<char> > >
PUBLIC	?_Getal@?$_String_alloc@$0A@U?$_String_base_types@DV?$allocator@D@std@@@std@@@std@@QBE?AU?$_Wrap_alloc@V?$allocator@D@std@@@2@XZ ; std::_String_alloc<0,std::_String_base_types<char,std::allocator<char> > >::_Getal
PUBLIC	??0?$basic_string@DU?$char_traits@D@std@@V?$allocator@D@2@@std@@QAE@PBD@Z ; std::basic_string<char,std::char_traits<char>,std::allocator<char> >::basic_string<char,std::char_traits<char>,std::allocator<char> >
PUBLIC	?assign@?$basic_string@DU?$char_traits@D@std@@V?$allocator@D@2@@std@@QAEAAV12@ABV12@II@Z ; std::basic_string<char,std::char_traits<char>,std::allocator<char> >::assign
PUBLIC	?assign@?$basic_string@DU?$char_traits@D@std@@V?$allocator@D@2@@std@@QAEAAV12@PBDI@Z ; std::basic_string<char,std::char_traits<char>,std::allocator<char> >::assign
PUBLIC	?assign@?$basic_string@DU?$char_traits@D@std@@V?$allocator@D@2@@std@@QAEAAV12@PBD@Z ; std::basic_string<char,std::char_traits<char>,std::allocator<char> >::assign
PUBLIC	?erase@?$basic_string@DU?$char_traits@D@std@@V?$allocator@D@2@@std@@QAEAAV12@I@Z ; std::basic_string<char,std::char_traits<char>,std::allocator<char> >::erase
PUBLIC	?erase@?$basic_string@DU?$char_traits@D@std@@V?$allocator@D@2@@std@@QAEAAV12@II@Z ; std::basic_string<char,std::char_traits<char>,std::allocator<char> >::erase
PUBLIC	?size@?$basic_string@DU?$char_traits@D@std@@V?$allocator@D@2@@std@@QBEIXZ ; std::basic_string<char,std::char_traits<char>,std::allocator<char> >::size
PUBLIC	?max_size@?$basic_string@DU?$char_traits@D@std@@V?$allocator@D@2@@std@@QBEIXZ ; std::basic_string<char,std::char_traits<char>,std::allocator<char> >::max_size
PUBLIC	?_Copy@?$basic_string@DU?$char_traits@D@std@@V?$allocator@D@2@@std@@QAEXII@Z ; std::basic_string<char,std::char_traits<char>,std::allocator<char> >::_Copy
PUBLIC	?_Eos@?$basic_string@DU?$char_traits@D@std@@V?$allocator@D@2@@std@@QAEXI@Z ; std::basic_string<char,std::char_traits<char>,std::allocator<char> >::_Eos
PUBLIC	?_Grow@?$basic_string@DU?$char_traits@D@std@@V?$allocator@D@2@@std@@QAE_NI_N@Z ; std::basic_string<char,std::char_traits<char>,std::allocator<char> >::_Grow
PUBLIC	?_Inside@?$basic_string@DU?$char_traits@D@std@@V?$allocator@D@2@@std@@QAE_NPBD@Z ; std::basic_string<char,std::char_traits<char>,std::allocator<char> >::_Inside
PUBLIC	?_Tidy@?$basic_string@DU?$char_traits@D@std@@V?$allocator@D@2@@std@@QAEX_NI@Z ; std::basic_string<char,std::char_traits<char>,std::allocator<char> >::_Tidy
PUBLIC	?_Xlen@?$basic_string@DU?$char_traits@D@std@@V?$allocator@D@2@@std@@QBEXXZ ; std::basic_string<char,std::char_traits<char>,std::allocator<char> >::_Xlen
PUBLIC	?_Xran@?$basic_string@DU?$char_traits@D@std@@V?$allocator@D@2@@std@@QBEXXZ ; std::basic_string<char,std::char_traits<char>,std::allocator<char> >::_Xran
PUBLIC	??B?$VuBin@VVuSessionEntity@@@@QBE_NXZ		; VuBin<VuSessionEntity>::operator bool
PUBLIC	??C?$VuBin@VVuSessionEntity@@@@QBEPAVVuSessionEntity@@XZ ; VuBin<VuSessionEntity>::operator->
PUBLIC	?get@?$VuBin@VVuSessionEntity@@@@QBEPAVVuSessionEntity@@XZ ; VuBin<VuSessionEntity>::get
PUBLIC	?mlSinCos@@YAXPAUmlTrig@@M@Z			; mlSinCos
PUBLIC	?checked_atan2@@YANNN@Z				; checked_atan2
PUBLIC	?PostInsert@BaseBrain@@UAEXXZ			; BaseBrain::PostInsert
PUBLIC	?GetWPAction@WayPointClass@@QAEHXZ		; WayPointClass::GetWPAction
PUBLIC	?GetNextWP@WayPointClass@@QAEPAV1@XZ		; WayPointClass::GetNextWP
PUBLIC	?SetTrackPoint@DigitalBrain@@QAEXMM@Z		; DigitalBrain::SetTrackPoint
PUBLIC	??0id@locale@std@@QAE@I@Z			; std::locale::id::id
PUBLIC	?generic_category@std@@YAABVerror_category@1@XZ	; std::generic_category
PUBLIC	?system_category@std@@YAABVerror_category@1@XZ	; std::system_category
PUBLIC	??0error_category@std@@QAE@XZ			; std::error_category::error_category
PUBLIC	??1error_category@std@@UAE@XZ			; std::error_category::~error_category
PUBLIC	?default_error_condition@error_category@std@@UBE?AVerror_condition@2@H@Z ; std::error_category::default_error_condition
PUBLIC	?equivalent@error_category@std@@UBE_NHABVerror_condition@2@@Z ; std::error_category::equivalent
PUBLIC	?equivalent@error_category@std@@UBE_NABVerror_code@2@H@Z ; std::error_category::equivalent
PUBLIC	??8error_category@std@@QBE_NABV01@@Z		; std::error_category::operator==
PUBLIC	??_Gerror_category@std@@UAEPAXI@Z		; std::error_category::`scalar deleting destructor'
PUBLIC	?value@error_code@std@@QBEHXZ			; std::error_code::value
PUBLIC	?category@error_code@std@@QBEABVerror_category@2@XZ ; std::error_code::category
PUBLIC	??0error_condition@std@@QAE@HABVerror_category@1@@Z ; std::error_condition::error_condition
PUBLIC	?value@error_condition@std@@QBEHXZ		; std::error_condition::value
PUBLIC	?category@error_condition@std@@QBEABVerror_category@2@XZ ; std::error_condition::category
PUBLIC	??8error_condition@std@@QBE_NABV01@@Z		; std::error_condition::operator==
PUBLIC	??0_Generic_error_category@std@@QAE@XZ		; std::_Generic_error_category::_Generic_error_category
PUBLIC	?name@_Generic_error_category@std@@UBEPBDXZ	; std::_Generic_error_category::name
PUBLIC	?message@_Generic_error_category@std@@UBE?AV?$basic_string@DU?$char_traits@D@std@@V?$allocator@D@2@@2@H@Z ; std::_Generic_error_category::message
PUBLIC	??1_Generic_error_category@std@@UAE@XZ		; std::_Generic_error_category::~_Generic_error_category
PUBLIC	??_G_Generic_error_category@std@@UAEPAXI@Z	; std::_Generic_error_category::`scalar deleting destructor'
PUBLIC	??0_Iostream_error_category@std@@QAE@XZ		; std::_Iostream_error_category::_Iostream_error_category
PUBLIC	?name@_Iostream_error_category@std@@UBEPBDXZ	; std::_Iostream_error_category::name
PUBLIC	?message@_Iostream_error_category@std@@UBE?AV?$basic_string@DU?$char_traits@D@std@@V?$allocator@D@2@@2@H@Z ; std::_Iostream_error_category::message
PUBLIC	??1_Iostream_error_category@std@@UAE@XZ		; std::_Iostream_error_category::~_Iostream_error_category
PUBLIC	??_G_Iostream_error_category@std@@UAEPAXI@Z	; std::_Iostream_error_category::`scalar deleting destructor'
PUBLIC	??0_System_error_category@std@@QAE@XZ		; std::_System_error_category::_System_error_category
PUBLIC	?name@_System_error_category@std@@UBEPBDXZ	; std::_System_error_category::name
PUBLIC	?message@_System_error_category@std@@UBE?AV?$basic_string@DU?$char_traits@D@std@@V?$allocator@D@2@@2@H@Z ; std::_System_error_category::message
PUBLIC	?default_error_condition@_System_error_category@std@@UBE?AVerror_condition@2@H@Z ; std::_System_error_category::default_error_condition
PUBLIC	??1_System_error_category@std@@UAE@XZ		; std::_System_error_category::~_System_error_category
PUBLIC	??_G_System_error_category@std@@UAEPAXI@Z	; std::_System_error_category::`scalar deleting destructor'
PUBLIC	?Radius@DrawableObject@@QBEMXZ			; DrawableObject::Radius
PUBLIC	?LabelColor@DrawableBSP@@QAEKXZ			; DrawableBSP::LabelColor
PUBLIC	?GetID@DrawableBSP@@QAEHXZ			; DrawableBSP::GetID
PUBLIC	?BaseData@SimObjectType@@QAEPAVFalconEntity@@XZ	; SimObjectType::BaseData
PUBLIC	?get@?$VuBin@VFalconEntity@@@@QBEPAVFalconEntity@@XZ ; VuBin<FalconEntity>::get
PUBLIC	?CallNext@TankerBrain@@AAEXXZ			; TankerBrain::CallNext
PUBLIC	?DriveBoom@TankerBrain@@AAEXXZ			; TankerBrain::DriveBoom
PUBLIC	?DriveLights@TankerBrain@@AAEXXZ		; TankerBrain::DriveLights
PUBLIC	?BreakAway@TankerBrain@@AAEXXZ			; TankerBrain::BreakAway
PUBLIC	?TurnTo@TankerBrain@@AAEXM@Z			; TankerBrain::TurnTo
PUBLIC	?FollowThirsty@TankerBrain@@AAEXXZ		; TankerBrain::FollowThirsty
PUBLIC	?TurnToTrackPoint@TankerBrain@@AAEXH@Z		; TankerBrain::TurnToTrackPoint
PUBLIC	??0TankerBrain@@QAE@PAVAircraftClass@@PAVAirframeClass@@@Z ; TankerBrain::TankerBrain
PUBLIC	??1TankerBrain@@UAE@XZ				; TankerBrain::~TankerBrain
PUBLIC	?FrameExec@TankerBrain@@UAEXPAVSimObjectType@@0@Z ; TankerBrain::FrameExec
PUBLIC	?AddToQ@TankerBrain@@QAEHPAVSimVehicleClass@@@Z	; TankerBrain::AddToQ
PUBLIC	?RemoveFromQ@TankerBrain@@QAEXPAVSimVehicleClass@@@Z ; TankerBrain::RemoveFromQ
PUBLIC	?AIReady@TankerBrain@@QAEXXZ			; TankerBrain::AIReady
PUBLIC	?AddToWaitQ@TankerBrain@@QAEHPAVSimVehicleClass@@@Z ; TankerBrain::AddToWaitQ
PUBLIC	?PurgeWaitQ@TankerBrain@@QAEXXZ			; TankerBrain::PurgeWaitQ
PUBLIC	?TankingPosition@TankerBrain@@QAEHPAVSimVehicleClass@@@Z ; TankerBrain::TankingPosition
PUBLIC	?DoneRefueling@TankerBrain@@QAEXXZ		; TankerBrain::DoneRefueling
PUBLIC	?OptTankingPosition@TankerBrain@@QAEXPAUTpoint@@@Z ; TankerBrain::OptTankingPosition
PUBLIC	?BoomWorldPosition@TankerBrain@@QAEXPAUTpoint@@@Z ; TankerBrain::BoomWorldPosition
PUBLIC	?ReceptorRelPosition@TankerBrain@@QAEXPAUTpoint@@PAVSimVehicleClass@@@Z ; TankerBrain::ReceptorRelPosition
PUBLIC	?BoomTipPosition@TankerBrain@@QAEXPAUTpoint@@@Z	; TankerBrain::BoomTipPosition
PUBLIC	?IsTanker@TankerBrain@@UAEHXZ			; TankerBrain::IsTanker
PUBLIC	?InitBoom@TankerBrain@@UAEXXZ			; TankerBrain::InitBoom
PUBLIC	?CleanupBoom@TankerBrain@@UAEXXZ		; TankerBrain::CleanupBoom
PUBLIC	??_GTankerBrain@@UAEPAXI@Z			; TankerBrain::`scalar deleting destructor'
PUBLIC	?get@?$VuBin@VCampBaseClass@@@@QBEPAVCampBaseClass@@XZ ; VuBin<CampBaseClass>::get
PUBLIC	?GetCampaignObject@SimBaseClass@@QAEPAVCampBaseClass@@XZ ; SimBaseClass::GetCampaignObject
PUBLIC	?GetFirstUnitWP@UnitClass@@QAEPAVWayPointClass@@XZ ; UnitClass::GetFirstUnitWP
PUBLIC	?GetGame@FalconSessionEntity@@QAEPAVFalconGameEntity@@XZ ; FalconSessionEntity::GetGame
PUBLIC	?GetPlayerEntity@SimulationDriver@@QBEPAVSimMoverClass@@XZ ; SimulationDriver::GetPlayerEntity
PUBLIC	?GetRefuelPosition@AirframeClass@@QAEXPAUTpoint@@@Z ; AirframeClass::GetRefuelPosition
PUBLIC	?GetDrogueRFPos@AirframeClass@@QAEXPAUTpoint@@@Z ; AirframeClass::GetDrogueRFPos
PUBLIC	?GetBoomRFPos@AirframeClass@@QAEXPAUTpoint@@@Z	; AirframeClass::GetBoomRFPos
PUBLIC	?GetBoomStoredAngle@AirframeClass@@QAEMXZ	; AirframeClass::GetBoomStoredAngle
PUBLIC	?GetnBooms@AirframeClass@@QAEHXZ		; AirframeClass::GetnBooms
PUBLIC	?GetnDrogues@AirframeClass@@QAEHXZ		; AirframeClass::GetnDrogues
PUBLIC	?GetActiveDrogue@AirframeClass@@QAEHXZ		; AirframeClass::GetActiveDrogue
PUBLIC	?GetDrogueExt@AirframeClass@@QAEMXZ		; AirframeClass::GetDrogueExt
PUBLIC	?ClearFlag@AirframeClass@@QAEXH@Z		; AirframeClass::ClearFlag
PUBLIC	?GetRefuelSpeed@AirframeClass@@QAEMXZ		; AirframeClass::GetRefuelSpeed
PUBLIC	?GetRefuelAltitude@AirframeClass@@QAEMXZ	; AirframeClass::GetRefuelAltitude
PUBLIC	?GetTankerLongLeg@AirframeClass@@QAEMXZ		; AirframeClass::GetTankerLongLeg
PUBLIC	?GetTankerShortLeg@AirframeClass@@QAEMXZ	; AirframeClass::GetTankerShortLeg
PUBLIC	?GetRefuelingMode@PlayerOptionsClass@@QAEHXZ	; PlayerOptionsClass::GetRefuelingMode
PUBLIC	??$construct@PADAAPAD@?$_Wrap_alloc@V?$allocator@D@std@@@std@@QAEXPAPADAAPAD@Z ; std::_Wrap_alloc<std::allocator<char> >::construct<char *,char * &>
PUBLIC	??$destroy@PAD@?$_Wrap_alloc@V?$allocator@D@std@@@std@@QAEXPAPAD@Z ; std::_Wrap_alloc<std::allocator<char> >::destroy<char *>
PUBLIC	??$addressof@D@std@@YAPADAAD@Z			; std::addressof<char>
PUBLIC	??$_Allocate@D@std@@YAPADIPAD@Z			; std::_Allocate<char>
PUBLIC	??$forward@AAPAD@std@@YAAAPADAAPAD@Z		; std::forward<char * &>
PUBLIC	??$construct@PADAAPAD@?$allocator_traits@V?$allocator@D@std@@@std@@SAXAAV?$allocator@D@1@PAPADAAPAD@Z ; std::allocator_traits<std::allocator<char> >::construct<char *,char * &>
PUBLIC	??$destroy@PAD@?$allocator_traits@V?$allocator@D@std@@@std@@SAXAAV?$allocator@D@1@PAPAD@Z ; std::allocator_traits<std::allocator<char> >::destroy<char *>
PUBLIC	??$construct@PADAAPAD@?$allocator@D@std@@QAEXPAPADAAPAD@Z ; std::allocator<char>::construct<char *,char * &>
PUBLIC	??$destroy@PAD@?$allocator@D@std@@QAEXPAPAD@Z	; std::allocator<char>::destroy<char *>
PUBLIC	??_7error_category@std@@6B@			; std::error_category::`vftable'
PUBLIC	??_7_Generic_error_category@std@@6B@		; std::_Generic_error_category::`vftable'
PUBLIC	??_C@_07DCLBNMLN@generic?$AA@			; `string'
PUBLIC	??_C@_0O@BFJCFAAK@unknown?5error?$AA@		; `string'
PUBLIC	??_7_Iostream_error_category@std@@6B@		; std::_Iostream_error_category::`vftable'
PUBLIC	??_C@_08LLGCOLLL@iostream?$AA@			; `string'
PUBLIC	??_C@_0BG@PADBLCHM@iostream?5stream?5error?$AA@	; `string'
PUBLIC	??_7_System_error_category@std@@6B@		; std::_System_error_category::`vftable'
PUBLIC	??_C@_06FHFOAHML@system?$AA@			; `string'
PUBLIC	?_Generic_object@?$_Error_objects@H@std@@2V_Generic_error_category@2@A ; std::_Error_objects<int>::_Generic_object
PUBLIC	?_Iostream_object@?$_Error_objects@H@std@@2V_Iostream_error_category@2@A ; std::_Error_objects<int>::_Iostream_object
PUBLIC	?_System_object@?$_Error_objects@H@std@@2V_System_error_category@2@A ; std::_Error_objects<int>::_System_object
PUBLIC	?id@?$num_put@DV?$back_insert_iterator@V?$basic_string@DU?$char_traits@D@std@@V?$allocator@D@2@@std@@@std@@@std@@2V0locale@2@A ; std::num_put<char,std::back_insert_iterator<std::basic_string<char,std::char_traits<char>,std::allocator<char> > > >::id
PUBLIC	?id@?$num_put@_WV?$back_insert_iterator@V?$basic_string@_WU?$char_traits@_W@std@@V?$allocator@_W@2@@std@@@std@@@std@@2V0locale@2@A ; std::num_put<wchar_t,std::back_insert_iterator<std::basic_string<wchar_t,std::char_traits<wchar_t>,std::allocator<wchar_t> > > >::id
PUBLIC	??_7TankerBrain@@6B@				; TankerBrain::`vftable'
PUBLIC	??_C@_0BC@GJIPNCPH@?$CF5?41f?5?$CF5?41f?5?$CF5?41f?$AA@ ; `string'
PUBLIC	??_C@_0P@FBILDPBG@?$CF5?41f?5?$CF5?41f?5?$CFd?$AA@ ; `string'
PUBLIC	??_C@_0CA@IPKEBIDK@?$CF3?42f?5?$CF5?41f?5?5?5?$CF3?40f?5?$CF3?42f?5TP?5?$CFd?$AA@ ; `string'
PUBLIC	?id@?$numpunct@D@std@@2V0locale@2@A		; std::numpunct<char>::id
PUBLIC	?id@?$numpunct@_W@std@@2V0locale@2@A		; std::numpunct<wchar_t>::id
PUBLIC	??_C@_0BI@CFPLBAOH@invalid?5string?5position?$AA@ ; `string'
PUBLIC	??_C@_0BA@JFNIOLAK@string?5too?5long?$AA@	; `string'
PUBLIC	??_R4error_category@std@@6B@			; std::error_category::`RTTI Complete Object Locator'
PUBLIC	??_R0?AVerror_category@std@@@8			; std::error_category `RTTI Type Descriptor'
PUBLIC	??_R3error_category@std@@8			; std::error_category::`RTTI Class Hierarchy Descriptor'
PUBLIC	??_R2error_category@std@@8			; std::error_category::`RTTI Base Class Array'
PUBLIC	??_R1A@?0A@EA@error_category@std@@8		; std::error_category::`RTTI Base Class Descriptor at (0,-1,0,64)'
PUBLIC	??_R4_Generic_error_category@std@@6B@		; std::_Generic_error_category::`RTTI Complete Object Locator'
PUBLIC	??_R0?AV_Generic_error_category@std@@@8		; std::_Generic_error_category `RTTI Type Descriptor'
PUBLIC	??_R3_Generic_error_category@std@@8		; std::_Generic_error_category::`RTTI Class Hierarchy Descriptor'
PUBLIC	??_R2_Generic_error_category@std@@8		; std::_Generic_error_category::`RTTI Base Class Array'
PUBLIC	??_R1A@?0A@EA@_Generic_error_category@std@@8	; std::_Generic_error_category::`RTTI Base Class Descriptor at (0,-1,0,64)'
PUBLIC	??_R4_Iostream_error_category@std@@6B@		; std::_Iostream_error_category::`RTTI Complete Object Locator'
PUBLIC	??_R0?AV_Iostream_error_category@std@@@8	; std::_Iostream_error_category `RTTI Type Descriptor'
PUBLIC	??_R3_Iostream_error_category@std@@8		; std::_Iostream_error_category::`RTTI Class Hierarchy Descriptor'
PUBLIC	??_R2_Iostream_error_category@std@@8		; std::_Iostream_error_category::`RTTI Base Class Array'
PUBLIC	??_R1A@?0A@EA@_Iostream_error_category@std@@8	; std::_Iostream_error_category::`RTTI Base Class Descriptor at (0,-1,0,64)'
PUBLIC	??_R4_System_error_category@std@@6B@		; std::_System_error_category::`RTTI Complete Object Locator'
PUBLIC	??_R0?AV_System_error_category@std@@@8		; std::_System_error_category `RTTI Type Descriptor'
PUBLIC	??_R3_System_error_category@std@@8		; std::_System_error_category::`RTTI Class Hierarchy Descriptor'
PUBLIC	??_R2_System_error_category@std@@8		; std::_System_error_category::`RTTI Base Class Array'
PUBLIC	??_R1A@?0A@EA@_System_error_category@std@@8	; std::_System_error_category::`RTTI Base Class Descriptor at (0,-1,0,64)'
PUBLIC	??_R4TankerBrain@@6B@				; TankerBrain::`RTTI Complete Object Locator'
PUBLIC	??_R0?AVTankerBrain@@@8				; TankerBrain `RTTI Type Descriptor'
PUBLIC	??_R3TankerBrain@@8				; TankerBrain::`RTTI Class Hierarchy Descriptor'
PUBLIC	??_R2TankerBrain@@8				; TankerBrain::`RTTI Base Class Array'
PUBLIC	??_R1A@?0A@EA@TankerBrain@@8			; TankerBrain::`RTTI Base Class Descriptor at (0,-1,0,64)'
PUBLIC	??_R1A@?0A@EA@DigitalBrain@@8			; DigitalBrain::`RTTI Base Class Descriptor at (0,-1,0,64)'
PUBLIC	??_R0?AVDigitalBrain@@@8			; DigitalBrain `RTTI Type Descriptor'
PUBLIC	??_R3DigitalBrain@@8				; DigitalBrain::`RTTI Class Hierarchy Descriptor'
PUBLIC	??_R2DigitalBrain@@8				; DigitalBrain::`RTTI Base Class Array'
PUBLIC	??_R1A@?0A@EA@BaseBrain@@8			; BaseBrain::`RTTI Base Class Descriptor at (0,-1,0,64)'
PUBLIC	??_R0?AVBaseBrain@@@8				; BaseBrain `RTTI Type Descriptor'
PUBLIC	??_R3BaseBrain@@8				; BaseBrain::`RTTI Class Hierarchy Descriptor'
PUBLIC	??_R2BaseBrain@@8				; BaseBrain::`RTTI Base Class Array'
PUBLIC	__real@00000000
PUBLIC	__real@0000000000000000
PUBLIC	__real@392c987a
PUBLIC	__real@3c23d70a
PUBLIC	__real@3c8efa34
PUBLIC	__real@3e32b8c1
PUBLIC	__real@3e860a91
PUBLIC	__real@3ecd87ab
PUBLIC	__real@3f000000
PUBLIC	__real@3f1c61a9
PUBLIC	__real@3f800000
PUBLIC	__real@3f99999a
PUBLIC	__real@3fc90fd9
PUBLIC	__real@3fc90fdb
PUBLIC	__real@3ff921fb54442d18
PUBLIC	__real@40000000
PUBLIC	__real@400921fb54442d18
PUBLIC	__real@40200000
PUBLIC	__real@40400000
PUBLIC	__real@40490fdb
PUBLIC	__real@40800000
PUBLIC	__real@4096cbe4
PUBLIC	__real@40a00000
PUBLIC	__real@40c00000
PUBLIC	__real@40c90fd9
PUBLIC	__real@40c90fdb
PUBLIC	__real@40e00000
PUBLIC	__real@41000000
PUBLIC	__real@41700000
PUBLIC	__real@41a00000
PUBLIC	__real@41b80000
PUBLIC	__real@41c80000
PUBLIC	__real@41ca0650
PUBLIC	__real@41d80000
PUBLIC	__real@41f00000
PUBLIC	__real@42060000
PUBLIC	__real@420c0000
PUBLIC	__real@42100000
PUBLIC	__real@42200000
PUBLIC	__real@42340000
PUBLIC	__real@42652ee1
PUBLIC	__real@42700000
PUBLIC	__real@428c0000
PUBLIC	__real@42c80000
PUBLIC	__real@430c0000
PUBLIC	__real@43150000
PUBLIC	__real@43160000
PUBLIC	__real@43480000
PUBLIC	__real@43730c66
PUBLIC	__real@43fa0000
PUBLIC	__real@44480000
PUBLIC	__real@4479f99a
PUBLIC	__real@44bb8000
PUBLIC	__real@45bde1b0
PUBLIC	__real@49945852
PUBLIC	__real@8000000000000000
PUBLIC	__real@be32b8c1
PUBLIC	__real@be860a91
PUBLIC	__real@bec49808
PUBLIC	__real@becd87ab
PUBLIC	__real@bf32b8c1
PUBLIC	__real@bf800000
PUBLIC	__real@bfc90fd9
PUBLIC	__real@bff921fb54442d18
PUBLIC	__real@c0200000
PUBLIC	__real@c0400000
PUBLIC	__real@c0a00000
PUBLIC	__real@c1000000
PUBLIC	__real@c1700000
PUBLIC	__real@c1c80000
PUBLIC	__real@c1d0cccd
PUBLIC	__real@c1d9999a
PUBLIC	__real@c21b999a
PUBLIC	__real@c21e8ebe
PUBLIC	__real@c2200000
PUBLIC	__xmm@80000000800000008000000080000000
EXTRN	__purecall:PROC
EXTRN	??2@YAPAXI@Z:PROC				; operator new
EXTRN	??3@YAXPAX@Z:PROC				; operator delete
EXTRN	_atexit:PROC
EXTRN	_sprintf:PROC
EXTRN	_atan:PROC
EXTRN	_cos:PROC
EXTRN	_fabs:PROC
EXTRN	_sin:PROC
EXTRN	_memcpy:PROC
EXTRN	_memset:PROC
EXTRN	_strlen:PROC
EXTRN	_memmove:PROC
EXTRN	?_Xbad_alloc@std@@YAXXZ:PROC			; std::_Xbad_alloc
EXTRN	?_Xlength_error@std@@YAXPBD@Z:PROC		; std::_Xlength_error
EXTRN	?_Xout_of_range@std@@YAXPBD@Z:PROC		; std::_Xout_of_range
EXTRN	?Register@VuCollection@@QAEXXZ:PROC		; VuCollection::Register
EXTRN	?Unregister@VuCollection@@QAEXXZ:PROC		; VuCollection::Unregister
EXTRN	?Remove@VuCollection@@QAEHPAVVuEntity@@@Z:PROC	; VuCollection::Remove
EXTRN	?Game@VuSessionEntity@@QAEPAVVuGameEntity@@XZ:PROC ; VuSessionEntity::Game
EXTRN	?GetCameraEntity@VuSessionEntity@@QBEPAVVuEntity@@E@Z:PROC ; VuSessionEntity::GetCameraEntity
EXTRN	??0VuListIterator@@QAE@PAVVuLinkedList@@@Z:PROC	; VuListIterator::VuListIterator
EXTRN	??1VuListIterator@@UAE@XZ:PROC			; VuListIterator::~VuListIterator
EXTRN	?GetFirst@VuListIterator@@QAEPAVVuEntity@@XZ:PROC ; VuListIterator::GetFirst
EXTRN	?GetNext@VuListIterator@@QAEPAVVuEntity@@XZ:PROC ; VuListIterator::GetNext
EXTRN	??0VuSessionsIterator@@QAE@PAVVuGroupEntity@@@Z:PROC ; VuSessionsIterator::VuSessionsIterator
EXTRN	??1VuSessionsIterator@@UAE@XZ:PROC		; VuSessionsIterator::~VuSessionsIterator
EXTRN	?GetFirst@VuSessionsIterator@@QAEPAVVuSessionEntity@@XZ:PROC ; VuSessionsIterator::GetFirst
EXTRN	?GetNext@VuSessionsIterator@@QAEPAVVuSessionEntity@@XZ:PROC ; VuSessionsIterator::GetNext
EXTRN	?FalconSendMessage@@YAXPAVVuMessage@@H@Z:PROC	; FalconSendMessage
EXTRN	??0TailInsertList@@QAE@PAVVuFilter@@@Z:PROC	; TailInsertList::TailInsertList
EXTRN	?ForcedInsert@TailInsertList@@QAEHPAVVuEntity@@@Z:PROC ; TailInsertList::ForcedInsert
EXTRN	??0HeadInsertList@@QAE@PAVVuFilter@@@Z:PROC	; HeadInsertList::HeadInsertList
EXTRN	?ForcedInsert@HeadInsertList@@QAEHPAVVuEntity@@@Z:PROC ; HeadInsertList::ForcedInsert
EXTRN	?GetLocation@WayPointClass@@QBEXPAM00@Z:PROC	; WayPointClass::GetLocation
EXTRN	?SetTarget@DigitalBrain@@MAEXPAVSimObjectType@@@Z:PROC ; DigitalBrain::SetTarget
EXTRN	?SimpleTrack@DigitalBrain@@IAEXW4SimpleTrackMode@1@M@Z:PROC ; DigitalBrain::SimpleTrack
EXTRN	??0DigitalBrain@@QAE@PAVAircraftClass@@PAVAirframeClass@@@Z:PROC ; DigitalBrain::DigitalBrain
EXTRN	??1DigitalBrain@@UAE@XZ:PROC			; DigitalBrain::~DigitalBrain
EXTRN	?Sleep@DigitalBrain@@UAEXXZ:PROC		; DigitalBrain::Sleep
EXTRN	?ReceiveOrders@DigitalBrain@@UAEXPAVFalconEvent@@@Z:PROC ; DigitalBrain::ReceiveOrders
EXTRN	?JoinFlight@DigitalBrain@@UAEXXZ:PROC		; DigitalBrain::JoinFlight
EXTRN	?SetLead@DigitalBrain@@UAEXH@Z:PROC		; DigitalBrain::SetLead
EXTRN	?FrameExec@DigitalBrain@@UAEXPAVSimObjectType@@0@Z:PROC ; DigitalBrain::FrameExec
EXTRN	??_Eerror_category@std@@UAEPAXI@Z:PROC		; std::error_category::`vector deleting destructor'
EXTRN	?_Syserror_map@std@@YAPBDH@Z:PROC		; std::_Syserror_map
EXTRN	?_Winerror_map@std@@YAPBDH@Z:PROC		; std::_Winerror_map
EXTRN	??_E_Generic_error_category@std@@UAEPAXI@Z:PROC	; std::_Generic_error_category::`vector deleting destructor'
EXTRN	??_E_Iostream_error_category@std@@UAEPAXI@Z:PROC ; std::_Iostream_error_category::`vector deleting destructor'
EXTRN	??_E_System_error_category@std@@UAEPAXI@Z:PROC	; std::_System_error_category::`vector deleting destructor'
EXTRN	??0DrawableBSP@@QAE@HPBUTpoint@@PBUTrotation@@M@Z:PROC ; DrawableBSP::DrawableBSP
EXTRN	?AttachChild@DrawableBSP@@QAEXPAV1@H@Z:PROC	; DrawableBSP::AttachChild
EXTRN	?DetachChild@DrawableBSP@@QAEXPAV1@H@Z:PROC	; DrawableBSP::DetachChild
EXTRN	?GetChildOffset@DrawableBSP@@QAEXHPAUTpoint@@@Z:PROC ; DrawableBSP::GetChildOffset
EXTRN	?SetDOFangle@DrawableBSP@@QAEXHM@Z:PROC		; DrawableBSP::SetDOFangle
EXTRN	?SetDOFoffset@DrawableBSP@@QAEXHM@Z:PROC	; DrawableBSP::SetDOFoffset
EXTRN	?SetSwitchMask@DrawableBSP@@QAEXHK@Z:PROC	; DrawableBSP::SetSwitchMask
EXTRN	??0SimObjectType@@QAE@PAVFalconEntity@@@Z:PROC	; SimObjectType::SimObjectType
EXTRN	?Reference@SimObjectType@@QAEXXZ:PROC		; SimObjectType::Reference
EXTRN	?Release@SimObjectType@@QAEXXZ:PROC		; SimObjectType::Release
EXTRN	??_ETankerBrain@@UAEPAXI@Z:PROC			; TankerBrain::`vector deleting destructor'
EXTRN	?MapVisId@@YAKK@Z:PROC				; MapVisId
EXTRN	??0FalconTankerMessage@@QAE@VVU_ID@@PAVVuTargetEntity@@E@Z:PROC ; FalconTankerMessage::FalconTankerMessage
EXTRN	?MatrixMult@@YAXPBUTrotation@@PBUTpoint@@PAU2@@Z:PROC ; MatrixMult
EXTRN	?MatrixMultTranspose@@YAXPBUTrotation@@PBUTpoint@@PAU2@@Z:PROC ; MatrixMultTranspose
EXTRN	?CalcTASfromCAS@AirframeClass@@QAEMM@Z:PROC	; AirframeClass::CalcTASfromCAS
EXTRN	??0FalconSimCampMessage@@QAE@VVU_ID@@PAVVuTargetEntity@@E@Z:PROC ; FalconSimCampMessage::FalconSimCampMessage
EXTRN	?DistSqu@@YAMMMMM@Z:PROC			; DistSqu
EXTRN	?DistanceToFront@@YAMFF@Z:PROC			; DistanceToFront
EXTRN	?DirectionToFront@@YAMFF@Z:PROC			; DirectionToFront
EXTRN	?SimToGrid@@YAFM@Z:PROC				; SimToGrid
EXTRN	?ConvertSimToGrid@@YAXPAUvector@@PAF1@Z:PROC	; ConvertSimToGrid
EXTRN	@__security_check_cookie@4:PROC
EXTRN	__CxxThrowException@8:PROC
EXTRN	___CxxFrameHandler3:PROC
EXTRN	?vuLocalSessionEntity@@3V?$VuBin@VVuSessionEntity@@@@A:DWORD ; vuLocalSessionEntity
EXTRN	?vuxGameTime@@3KA:DWORD				; vuxGameTime
EXTRN	?SimLibMajorFrameTime@@3MA:DWORD		; SimLibMajorFrameTime
EXTRN	?SimLibElapsedTime@@3KA:DWORD			; SimLibElapsedTime
EXTRN	?FalconNothingFilter@@3VFalconNothingFilterType@@A:DWORD ; FalconNothingFilter
EXTRN	??_7type_info@@6B@:QWORD			; type_info::`vftable'
EXTRN	?SimDriver@@3VSimulationDriver@@A:BYTE		; SimDriver
EXTRN	?IMatrix@@3UTrotation@@B:BYTE			; IMatrix
EXTRN	?PlayerOptions@@3VPlayerOptionsClass@@A:BYTE	; PlayerOptions
EXTRN	?MINIMUM_TANKER_DISTANCE@@3FA:WORD		; MINIMUM_TANKER_DISTANCE
EXTRN	?MAXIMUM_TANKER_DISTANCE@@3FA:WORD		; MAXIMUM_TANKER_DISTANCE
EXTRN	?g_bLightsKC135@@3_NA:BYTE			; g_bLightsKC135
EXTRN	?g_nShowDebugLabels@@3HA:DWORD			; g_nShowDebugLabels
EXTRN	?SimLibLastMajorFrameTime@@3MA:DWORD		; SimLibLastMajorFrameTime
EXTRN	?g_bUseTankerTrack@@3_NA:BYTE			; g_bUseTankerTrack
EXTRN	?g_fTankerTrackFactor@@3MA:DWORD		; g_fTankerTrackFactor
EXTRN	?g_fTankerHeadsupDistance@@3MA:DWORD		; g_fTankerHeadsupDistance
EXTRN	?g_fTankerBackupDistance@@3MA:DWORD		; g_fTankerBackupDistance
EXTRN	?g_fHeadingStabilizeFactor@@3MA:DWORD		; g_fHeadingStabilizeFactor
EXTRN	___security_cookie:DWORD
EXTRN	__fltused:DWORD
_BSS	SEGMENT
_piecewise_construct DB 01H DUP (?)
_allocator_arg DB 01H DUP (?)
_BSS	ENDS
;	COMDAT ?_Generic_object@?$_Error_objects@H@std@@2V_Generic_error_category@2@A
_BSS	SEGMENT
?_Generic_object@?$_Error_objects@H@std@@2V_Generic_error_category@2@A DD 01H DUP (?) ; std::_Error_objects<int>::_Generic_object
_BSS	ENDS
;	COMDAT ?_Iostream_object@?$_Error_objects@H@std@@2V_Iostream_error_category@2@A
_BSS	SEGMENT
?_Iostream_object@?$_Error_objects@H@std@@2V_Iostream_error_category@2@A DD 01H DUP (?) ; std::_Error_objects<int>::_Iostream_object
_BSS	ENDS
;	COMDAT ?_System_object@?$_Error_objects@H@std@@2V_System_error_category@2@A
_BSS	SEGMENT
?_System_object@?$_Error_objects@H@std@@2V_System_error_category@2@A DD 01H DUP (?) ; std::_Error_objects<int>::_System_object
_BSS	ENDS
;	COMDAT ?id@?$num_put@DV?$back_insert_iterator@V?$basic_string@DU?$char_traits@D@std@@V?$allocator@D@2@@std@@@std@@@std@@2V0locale@2@A
_BSS	SEGMENT
?id@?$num_put@DV?$back_insert_iterator@V?$basic_string@DU?$char_traits@D@std@@V?$allocator@D@2@@std@@@std@@@std@@2V0locale@2@A DD 01H DUP (?) ; std::num_put<char,std::back_insert_iterator<std::basic_string<char,std::char_traits<char>,std::allocator<char> > > >::id
_BSS	ENDS
;	COMDAT ?id@?$num_put@_WV?$back_insert_iterator@V?$basic_string@_WU?$char_traits@_W@std@@V?$allocator@_W@2@@std@@@std@@@std@@2V0locale@2@A
_BSS	SEGMENT
?id@?$num_put@_WV?$back_insert_iterator@V?$basic_string@_WU?$char_traits@_W@std@@V?$allocator@_W@2@@std@@@std@@@std@@2V0locale@2@A DD 01H DUP (?) ; std::num_put<wchar_t,std::back_insert_iterator<std::basic_string<wchar_t,std::char_traits<wchar_t>,std::allocator<wchar_t> > > >::id
_BSS	ENDS
;	COMDAT ?id@?$numpunct@D@std@@2V0locale@2@A
_BSS	SEGMENT
?id@?$numpunct@D@std@@2V0locale@2@A DD 01H DUP (?)	; std::numpunct<char>::id
_BSS	ENDS
;	COMDAT ?id@?$numpunct@_W@std@@2V0locale@2@A
_BSS	SEGMENT
?id@?$numpunct@_W@std@@2V0locale@2@A DD 01H DUP (?)	; std::numpunct<wchar_t>::id
_BSS	ENDS
CRT$XCU	SEGMENT
_piecewise_construct$initializer$ DD FLAT:??__Epiecewise_construct@std@@YAXXZ
CRT$XCU	ENDS
;	COMDAT __xmm@80000000800000008000000080000000
CONST	SEGMENT
__xmm@80000000800000008000000080000000 DB 00H, 00H, 00H, 080H, 00H, 00H, 00H
	DB	080H, 00H, 00H, 00H, 080H, 00H, 00H, 00H, 080H
CONST	ENDS
;	COMDAT __real@c2200000
CONST	SEGMENT
__real@c2200000 DD 0c2200000r			; -40
CONST	ENDS
;	COMDAT __real@c21e8ebe
CONST	SEGMENT
__real@c21e8ebe DD 0c21e8eber			; -39.6394
CONST	ENDS
;	COMDAT __real@c21b999a
CONST	SEGMENT
__real@c21b999a DD 0c21b999ar			; -38.9
CONST	ENDS
;	COMDAT __real@c1d9999a
CONST	SEGMENT
__real@c1d9999a DD 0c1d9999ar			; -27.2
CONST	ENDS
;	COMDAT __real@c1d0cccd
CONST	SEGMENT
__real@c1d0cccd DD 0c1d0cccdr			; -26.1
CONST	ENDS
;	COMDAT __real@c1c80000
CONST	SEGMENT
__real@c1c80000 DD 0c1c80000r			; -25
CONST	ENDS
;	COMDAT __real@c1700000
CONST	SEGMENT
__real@c1700000 DD 0c1700000r			; -15
CONST	ENDS
;	COMDAT __real@c1000000
CONST	SEGMENT
__real@c1000000 DD 0c1000000r			; -8
CONST	ENDS
;	COMDAT __real@c0a00000
CONST	SEGMENT
__real@c0a00000 DD 0c0a00000r			; -5
CONST	ENDS
;	COMDAT __real@c0400000
CONST	SEGMENT
__real@c0400000 DD 0c0400000r			; -3
CONST	ENDS
;	COMDAT __real@c0200000
CONST	SEGMENT
__real@c0200000 DD 0c0200000r			; -2.5
CONST	ENDS
;	COMDAT __real@bff921fb54442d18
CONST	SEGMENT
__real@bff921fb54442d18 DQ 0bff921fb54442d18r	; -1.5708
CONST	ENDS
;	COMDAT __real@bfc90fd9
CONST	SEGMENT
__real@bfc90fd9 DD 0bfc90fd9r			; -1.5708
CONST	ENDS
;	COMDAT __real@bf800000
CONST	SEGMENT
__real@bf800000 DD 0bf800000r			; -1
CONST	ENDS
;	COMDAT __real@bf32b8c1
CONST	SEGMENT
__real@bf32b8c1 DD 0bf32b8c1r			; -0.698132
CONST	ENDS
;	COMDAT __real@becd87ab
CONST	SEGMENT
__real@becd87ab DD 0becd87abr			; -0.401426
CONST	ENDS
;	COMDAT __real@bec49808
CONST	SEGMENT
__real@bec49808 DD 0bec49808r			; -0.383972
CONST	ENDS
;	COMDAT __real@be860a91
CONST	SEGMENT
__real@be860a91 DD 0be860a91r			; -0.261799
CONST	ENDS
;	COMDAT __real@be32b8c1
CONST	SEGMENT
__real@be32b8c1 DD 0be32b8c1r			; -0.174533
CONST	ENDS
;	COMDAT __real@8000000000000000
CONST	SEGMENT
__real@8000000000000000 DQ 08000000000000000r	; -0
CONST	ENDS
;	COMDAT __real@49945852
CONST	SEGMENT
__real@49945852 DD 049945852r			; 1.21524e+006
CONST	ENDS
;	COMDAT __real@45bde1b0
CONST	SEGMENT
__real@45bde1b0 DD 045bde1b0r			; 6076.21
CONST	ENDS
;	COMDAT __real@44bb8000
CONST	SEGMENT
__real@44bb8000 DD 044bb8000r			; 1500
CONST	ENDS
;	COMDAT __real@4479f99a
CONST	SEGMENT
__real@4479f99a DD 04479f99ar			; 999.9
CONST	ENDS
;	COMDAT __real@44480000
CONST	SEGMENT
__real@44480000 DD 044480000r			; 800
CONST	ENDS
;	COMDAT __real@43fa0000
CONST	SEGMENT
__real@43fa0000 DD 043fa0000r			; 500
CONST	ENDS
;	COMDAT __real@43730c66
CONST	SEGMENT
__real@43730c66 DD 043730c66r			; 243.048
CONST	ENDS
;	COMDAT __real@43480000
CONST	SEGMENT
__real@43480000 DD 043480000r			; 200
CONST	ENDS
;	COMDAT __real@43160000
CONST	SEGMENT
__real@43160000 DD 043160000r			; 150
CONST	ENDS
;	COMDAT __real@43150000
CONST	SEGMENT
__real@43150000 DD 043150000r			; 149
CONST	ENDS
;	COMDAT __real@430c0000
CONST	SEGMENT
__real@430c0000 DD 0430c0000r			; 140
CONST	ENDS
;	COMDAT __real@42c80000
CONST	SEGMENT
__real@42c80000 DD 042c80000r			; 100
CONST	ENDS
;	COMDAT __real@428c0000
CONST	SEGMENT
__real@428c0000 DD 0428c0000r			; 70
CONST	ENDS
;	COMDAT __real@42700000
CONST	SEGMENT
__real@42700000 DD 042700000r			; 60
CONST	ENDS
;	COMDAT __real@42652ee1
CONST	SEGMENT
__real@42652ee1 DD 042652ee1r			; 57.2958
CONST	ENDS
;	COMDAT __real@42340000
CONST	SEGMENT
__real@42340000 DD 042340000r			; 45
CONST	ENDS
;	COMDAT __real@42200000
CONST	SEGMENT
__real@42200000 DD 042200000r			; 40
CONST	ENDS
;	COMDAT __real@42100000
CONST	SEGMENT
__real@42100000 DD 042100000r			; 36
CONST	ENDS
;	COMDAT __real@420c0000
CONST	SEGMENT
__real@420c0000 DD 0420c0000r			; 35
CONST	ENDS
;	COMDAT __real@42060000
CONST	SEGMENT
__real@42060000 DD 042060000r			; 33.5
CONST	ENDS
;	COMDAT __real@41f00000
CONST	SEGMENT
__real@41f00000 DD 041f00000r			; 30
CONST	ENDS
;	COMDAT __real@41d80000
CONST	SEGMENT
__real@41d80000 DD 041d80000r			; 27
CONST	ENDS
;	COMDAT __real@41ca0650
CONST	SEGMENT
__real@41ca0650 DD 041ca0650r			; 25.2531
CONST	ENDS
;	COMDAT __real@41c80000
CONST	SEGMENT
__real@41c80000 DD 041c80000r			; 25
CONST	ENDS
;	COMDAT __real@41b80000
CONST	SEGMENT
__real@41b80000 DD 041b80000r			; 23
CONST	ENDS
;	COMDAT __real@41a00000
CONST	SEGMENT
__real@41a00000 DD 041a00000r			; 20
CONST	ENDS
;	COMDAT __real@41700000
CONST	SEGMENT
__real@41700000 DD 041700000r			; 15
CONST	ENDS
;	COMDAT __real@41000000
CONST	SEGMENT
__real@41000000 DD 041000000r			; 8
CONST	ENDS
;	COMDAT __real@40e00000
CONST	SEGMENT
__real@40e00000 DD 040e00000r			; 7
CONST	ENDS
;	COMDAT __real@40c90fdb
CONST	SEGMENT
__real@40c90fdb DD 040c90fdbr			; 6.28319
CONST	ENDS
;	COMDAT __real@40c90fd9
CONST	SEGMENT
__real@40c90fd9 DD 040c90fd9r			; 6.28318
CONST	ENDS
;	COMDAT __real@40c00000
CONST	SEGMENT
__real@40c00000 DD 040c00000r			; 6
CONST	ENDS
;	COMDAT __real@40a00000
CONST	SEGMENT
__real@40a00000 DD 040a00000r			; 5
CONST	ENDS
;	COMDAT __real@4096cbe4
CONST	SEGMENT
__real@4096cbe4 DD 04096cbe4r			; 4.71239
CONST	ENDS
;	COMDAT __real@40800000
CONST	SEGMENT
__real@40800000 DD 040800000r			; 4
CONST	ENDS
;	COMDAT __real@40490fdb
CONST	SEGMENT
__real@40490fdb DD 040490fdbr			; 3.14159
CONST	ENDS
;	COMDAT __real@40400000
CONST	SEGMENT
__real@40400000 DD 040400000r			; 3
CONST	ENDS
;	COMDAT __real@40200000
CONST	SEGMENT
__real@40200000 DD 040200000r			; 2.5
CONST	ENDS
;	COMDAT __real@400921fb54442d18
CONST	SEGMENT
__real@400921fb54442d18 DQ 0400921fb54442d18r	; 3.14159
CONST	ENDS
;	COMDAT __real@40000000
CONST	SEGMENT
__real@40000000 DD 040000000r			; 2
CONST	ENDS
;	COMDAT __real@3ff921fb54442d18
CONST	SEGMENT
__real@3ff921fb54442d18 DQ 03ff921fb54442d18r	; 1.5708
CONST	ENDS
;	COMDAT __real@3fc90fdb
CONST	SEGMENT
__real@3fc90fdb DD 03fc90fdbr			; 1.5708
CONST	ENDS
;	COMDAT __real@3fc90fd9
CONST	SEGMENT
__real@3fc90fd9 DD 03fc90fd9r			; 1.5708
CONST	ENDS
;	COMDAT __real@3f99999a
CONST	SEGMENT
__real@3f99999a DD 03f99999ar			; 1.2
CONST	ENDS
;	COMDAT __real@3f800000
CONST	SEGMENT
__real@3f800000 DD 03f800000r			; 1
CONST	ENDS
;	COMDAT __real@3f1c61a9
CONST	SEGMENT
__real@3f1c61a9 DD 03f1c61a9r			; 0.610865
CONST	ENDS
;	COMDAT __real@3f000000
CONST	SEGMENT
__real@3f000000 DD 03f000000r			; 0.5
CONST	ENDS
;	COMDAT __real@3ecd87ab
CONST	SEGMENT
__real@3ecd87ab DD 03ecd87abr			; 0.401426
CONST	ENDS
;	COMDAT __real@3e860a91
CONST	SEGMENT
__real@3e860a91 DD 03e860a91r			; 0.261799
CONST	ENDS
;	COMDAT __real@3e32b8c1
CONST	SEGMENT
__real@3e32b8c1 DD 03e32b8c1r			; 0.174533
CONST	ENDS
;	COMDAT __real@3c8efa34
CONST	SEGMENT
__real@3c8efa34 DD 03c8efa34r			; 0.0174533
CONST	ENDS
;	COMDAT __real@3c23d70a
CONST	SEGMENT
__real@3c23d70a DD 03c23d70ar			; 0.01
CONST	ENDS
;	COMDAT __real@392c987a
CONST	SEGMENT
__real@392c987a DD 0392c987ar			; 0.0001646
CONST	ENDS
;	COMDAT __real@0000000000000000
CONST	SEGMENT
__real@0000000000000000 DQ 00000000000000000r	; 0
CONST	ENDS
;	COMDAT __real@00000000
CONST	SEGMENT
__real@00000000 DD 000000000r			; 0
CONST	ENDS
;	COMDAT ??_R2BaseBrain@@8
rdata$r	SEGMENT
??_R2BaseBrain@@8 DD FLAT:??_R1A@?0A@EA@BaseBrain@@8	; BaseBrain::`RTTI Base Class Array'
rdata$r	ENDS
;	COMDAT ??_R3BaseBrain@@8
rdata$r	SEGMENT
??_R3BaseBrain@@8 DD 00H				; BaseBrain::`RTTI Class Hierarchy Descriptor'
	DD	00H
	DD	01H
	DD	FLAT:??_R2BaseBrain@@8
rdata$r	ENDS
;	COMDAT ??_R0?AVBaseBrain@@@8
_DATA	SEGMENT
??_R0?AVBaseBrain@@@8 DD FLAT:??_7type_info@@6B@	; BaseBrain `RTTI Type Descriptor'
	DD	00H
	DB	'.?AVBaseBrain@@', 00H
_DATA	ENDS
;	COMDAT ??_R1A@?0A@EA@BaseBrain@@8
rdata$r	SEGMENT
??_R1A@?0A@EA@BaseBrain@@8 DD FLAT:??_R0?AVBaseBrain@@@8 ; BaseBrain::`RTTI Base Class Descriptor at (0,-1,0,64)'
	DD	00H
	DD	00H
	DD	0ffffffffH
	DD	00H
	DD	040H
	DD	FLAT:??_R3BaseBrain@@8
rdata$r	ENDS
;	COMDAT ??_R2DigitalBrain@@8
rdata$r	SEGMENT
??_R2DigitalBrain@@8 DD FLAT:??_R1A@?0A@EA@DigitalBrain@@8 ; DigitalBrain::`RTTI Base Class Array'
	DD	FLAT:??_R1A@?0A@EA@BaseBrain@@8
rdata$r	ENDS
;	COMDAT ??_R3DigitalBrain@@8
rdata$r	SEGMENT
??_R3DigitalBrain@@8 DD 00H				; DigitalBrain::`RTTI Class Hierarchy Descriptor'
	DD	00H
	DD	02H
	DD	FLAT:??_R2DigitalBrain@@8
rdata$r	ENDS
;	COMDAT ??_R0?AVDigitalBrain@@@8
_DATA	SEGMENT
??_R0?AVDigitalBrain@@@8 DD FLAT:??_7type_info@@6B@	; DigitalBrain `RTTI Type Descriptor'
	DD	00H
	DB	'.?AVDigitalBrain@@', 00H
_DATA	ENDS
;	COMDAT ??_R1A@?0A@EA@DigitalBrain@@8
rdata$r	SEGMENT
??_R1A@?0A@EA@DigitalBrain@@8 DD FLAT:??_R0?AVDigitalBrain@@@8 ; DigitalBrain::`RTTI Base Class Descriptor at (0,-1,0,64)'
	DD	01H
	DD	00H
	DD	0ffffffffH
	DD	00H
	DD	040H
	DD	FLAT:??_R3DigitalBrain@@8
rdata$r	ENDS
;	COMDAT ??_R1A@?0A@EA@TankerBrain@@8
rdata$r	SEGMENT
??_R1A@?0A@EA@TankerBrain@@8 DD FLAT:??_R0?AVTankerBrain@@@8 ; TankerBrain::`RTTI Base Class Descriptor at (0,-1,0,64)'
	DD	02H
	DD	00H
	DD	0ffffffffH
	DD	00H
	DD	040H
	DD	FLAT:??_R3TankerBrain@@8
rdata$r	ENDS
;	COMDAT ??_R2TankerBrain@@8
rdata$r	SEGMENT
??_R2TankerBrain@@8 DD FLAT:??_R1A@?0A@EA@TankerBrain@@8 ; TankerBrain::`RTTI Base Class Array'
	DD	FLAT:??_R1A@?0A@EA@DigitalBrain@@8
	DD	FLAT:??_R1A@?0A@EA@BaseBrain@@8
rdata$r	ENDS
;	COMDAT ??_R3TankerBrain@@8
rdata$r	SEGMENT
??_R3TankerBrain@@8 DD 00H				; TankerBrain::`RTTI Class Hierarchy Descriptor'
	DD	00H
	DD	03H
	DD	FLAT:??_R2TankerBrain@@8
rdata$r	ENDS
;	COMDAT ??_R0?AVTankerBrain@@@8
_DATA	SEGMENT
??_R0?AVTankerBrain@@@8 DD FLAT:??_7type_info@@6B@	; TankerBrain `RTTI Type Descriptor'
	DD	00H
	DB	'.?AVTankerBrain@@', 00H
_DATA	ENDS
;	COMDAT ??_R4TankerBrain@@6B@
rdata$r	SEGMENT
??_R4TankerBrain@@6B@ DD 00H				; TankerBrain::`RTTI Complete Object Locator'
	DD	00H
	DD	00H
	DD	FLAT:??_R0?AVTankerBrain@@@8
	DD	FLAT:??_R3TankerBrain@@8
rdata$r	ENDS
;	COMDAT ??_R1A@?0A@EA@_System_error_category@std@@8
rdata$r	SEGMENT
??_R1A@?0A@EA@_System_error_category@std@@8 DD FLAT:??_R0?AV_System_error_category@std@@@8 ; std::_System_error_category::`RTTI Base Class Descriptor at (0,-1,0,64)'
	DD	02H
	DD	00H
	DD	0ffffffffH
	DD	00H
	DD	040H
	DD	FLAT:??_R3_System_error_category@std@@8
rdata$r	ENDS
;	COMDAT ??_R2_System_error_category@std@@8
rdata$r	SEGMENT
??_R2_System_error_category@std@@8 DD FLAT:??_R1A@?0A@EA@_System_error_category@std@@8 ; std::_System_error_category::`RTTI Base Class Array'
	DD	FLAT:??_R1A@?0A@EA@_Generic_error_category@std@@8
	DD	FLAT:??_R1A@?0A@EA@error_category@std@@8
rdata$r	ENDS
;	COMDAT ??_R3_System_error_category@std@@8
rdata$r	SEGMENT
??_R3_System_error_category@std@@8 DD 00H		; std::_System_error_category::`RTTI Class Hierarchy Descriptor'
	DD	00H
	DD	03H
	DD	FLAT:??_R2_System_error_category@std@@8
rdata$r	ENDS
;	COMDAT ??_R0?AV_System_error_category@std@@@8
_DATA	SEGMENT
??_R0?AV_System_error_category@std@@@8 DD FLAT:??_7type_info@@6B@ ; std::_System_error_category `RTTI Type Descriptor'
	DD	00H
	DB	'.?AV_System_error_category@std@@', 00H
_DATA	ENDS
;	COMDAT ??_R4_System_error_category@std@@6B@
rdata$r	SEGMENT
??_R4_System_error_category@std@@6B@ DD 00H		; std::_System_error_category::`RTTI Complete Object Locator'
	DD	00H
	DD	00H
	DD	FLAT:??_R0?AV_System_error_category@std@@@8
	DD	FLAT:??_R3_System_error_category@std@@8
rdata$r	ENDS
;	COMDAT ??_R1A@?0A@EA@_Iostream_error_category@std@@8
rdata$r	SEGMENT
??_R1A@?0A@EA@_Iostream_error_category@std@@8 DD FLAT:??_R0?AV_Iostream_error_category@std@@@8 ; std::_Iostream_error_category::`RTTI Base Class Descriptor at (0,-1,0,64)'
	DD	02H
	DD	00H
	DD	0ffffffffH
	DD	00H
	DD	040H
	DD	FLAT:??_R3_Iostream_error_category@std@@8
rdata$r	ENDS
;	COMDAT ??_R2_Iostream_error_category@std@@8
rdata$r	SEGMENT
??_R2_Iostream_error_category@std@@8 DD FLAT:??_R1A@?0A@EA@_Iostream_error_category@std@@8 ; std::_Iostream_error_category::`RTTI Base Class Array'
	DD	FLAT:??_R1A@?0A@EA@_Generic_error_category@std@@8
	DD	FLAT:??_R1A@?0A@EA@error_category@std@@8
rdata$r	ENDS
;	COMDAT ??_R3_Iostream_error_category@std@@8
rdata$r	SEGMENT
??_R3_Iostream_error_category@std@@8 DD 00H		; std::_Iostream_error_category::`RTTI Class Hierarchy Descriptor'
	DD	00H
	DD	03H
	DD	FLAT:??_R2_Iostream_error_category@std@@8
rdata$r	ENDS
;	COMDAT ??_R0?AV_Iostream_error_category@std@@@8
_DATA	SEGMENT
??_R0?AV_Iostream_error_category@std@@@8 DD FLAT:??_7type_info@@6B@ ; std::_Iostream_error_category `RTTI Type Descriptor'
	DD	00H
	DB	'.?AV_Iostream_error_category@std@@', 00H
_DATA	ENDS
;	COMDAT ??_R4_Iostream_error_category@std@@6B@
rdata$r	SEGMENT
??_R4_Iostream_error_category@std@@6B@ DD 00H		; std::_Iostream_error_category::`RTTI Complete Object Locator'
	DD	00H
	DD	00H
	DD	FLAT:??_R0?AV_Iostream_error_category@std@@@8
	DD	FLAT:??_R3_Iostream_error_category@std@@8
rdata$r	ENDS
;	COMDAT ??_R1A@?0A@EA@_Generic_error_category@std@@8
rdata$r	SEGMENT
??_R1A@?0A@EA@_Generic_error_category@std@@8 DD FLAT:??_R0?AV_Generic_error_category@std@@@8 ; std::_Generic_error_category::`RTTI Base Class Descriptor at (0,-1,0,64)'
	DD	01H
	DD	00H
	DD	0ffffffffH
	DD	00H
	DD	040H
	DD	FLAT:??_R3_Generic_error_category@std@@8
rdata$r	ENDS
;	COMDAT ??_R2_Generic_error_category@std@@8
rdata$r	SEGMENT
??_R2_Generic_error_category@std@@8 DD FLAT:??_R1A@?0A@EA@_Generic_error_category@std@@8 ; std::_Generic_error_category::`RTTI Base Class Array'
	DD	FLAT:??_R1A@?0A@EA@error_category@std@@8
rdata$r	ENDS
;	COMDAT ??_R3_Generic_error_category@std@@8
rdata$r	SEGMENT
??_R3_Generic_error_category@std@@8 DD 00H		; std::_Generic_error_category::`RTTI Class Hierarchy Descriptor'
	DD	00H
	DD	02H
	DD	FLAT:??_R2_Generic_error_category@std@@8
rdata$r	ENDS
;	COMDAT ??_R0?AV_Generic_error_category@std@@@8
_DATA	SEGMENT
??_R0?AV_Generic_error_category@std@@@8 DD FLAT:??_7type_info@@6B@ ; std::_Generic_error_category `RTTI Type Descriptor'
	DD	00H
	DB	'.?AV_Generic_error_category@std@@', 00H
_DATA	ENDS
;	COMDAT ??_R4_Generic_error_category@std@@6B@
rdata$r	SEGMENT
??_R4_Generic_error_category@std@@6B@ DD 00H		; std::_Generic_error_category::`RTTI Complete Object Locator'
	DD	00H
	DD	00H
	DD	FLAT:??_R0?AV_Generic_error_category@std@@@8
	DD	FLAT:??_R3_Generic_error_category@std@@8
rdata$r	ENDS
;	COMDAT ??_R1A@?0A@EA@error_category@std@@8
rdata$r	SEGMENT
??_R1A@?0A@EA@error_category@std@@8 DD FLAT:??_R0?AVerror_category@std@@@8 ; std::error_category::`RTTI Base Class Descriptor at (0,-1,0,64)'
	DD	00H
	DD	00H
	DD	0ffffffffH
	DD	00H
	DD	040H
	DD	FLAT:??_R3error_category@std@@8
rdata$r	ENDS
;	COMDAT ??_R2error_category@std@@8
rdata$r	SEGMENT
??_R2error_category@std@@8 DD FLAT:??_R1A@?0A@EA@error_category@std@@8 ; std::error_category::`RTTI Base Class Array'
rdata$r	ENDS
;	COMDAT ??_R3error_category@std@@8
rdata$r	SEGMENT
??_R3error_category@std@@8 DD 00H			; std::error_category::`RTTI Class Hierarchy Descriptor'
	DD	00H
	DD	01H
	DD	FLAT:??_R2error_category@std@@8
rdata$r	ENDS
;	COMDAT ??_R0?AVerror_category@std@@@8
_DATA	SEGMENT
??_R0?AVerror_category@std@@@8 DD FLAT:??_7type_info@@6B@ ; std::error_category `RTTI Type Descriptor'
	DD	00H
	DB	'.?AVerror_category@std@@', 00H
_DATA	ENDS
;	COMDAT ??_R4error_category@std@@6B@
rdata$r	SEGMENT
??_R4error_category@std@@6B@ DD 00H			; std::error_category::`RTTI Complete Object Locator'
	DD	00H
	DD	00H
	DD	FLAT:??_R0?AVerror_category@std@@@8
	DD	FLAT:??_R3error_category@std@@8
rdata$r	ENDS
;	COMDAT ??_C@_0BA@JFNIOLAK@string?5too?5long?$AA@
CONST	SEGMENT
??_C@_0BA@JFNIOLAK@string?5too?5long?$AA@ DB 'string too long', 00H ; `string'
CONST	ENDS
;	COMDAT ??_C@_0BI@CFPLBAOH@invalid?5string?5position?$AA@
CONST	SEGMENT
??_C@_0BI@CFPLBAOH@invalid?5string?5position?$AA@ DB 'invalid string posi'
	DB	'tion', 00H					; `string'
CONST	ENDS
;	COMDAT ??_C@_0CA@IPKEBIDK@?$CF3?42f?5?$CF5?41f?5?5?5?$CF3?40f?5?$CF3?42f?5TP?5?$CFd?$AA@
CONST	SEGMENT
??_C@_0CA@IPKEBIDK@?$CF3?42f?5?$CF5?41f?5?5?5?$CF3?40f?5?$CF3?42f?5TP?5?$CFd?$AA@ DB '%'
	DB	'3.2f %5.1f   %3.0f %3.2f TP %d', 00H	; `string'
CONST	ENDS
;	COMDAT ??_C@_0P@FBILDPBG@?$CF5?41f?5?$CF5?41f?5?$CFd?$AA@
CONST	SEGMENT
??_C@_0P@FBILDPBG@?$CF5?41f?5?$CF5?41f?5?$CFd?$AA@ DB '%5.1f %5.1f %d', 00H ; `string'
CONST	ENDS
;	COMDAT ??_C@_0BC@GJIPNCPH@?$CF5?41f?5?$CF5?41f?5?$CF5?41f?$AA@
CONST	SEGMENT
??_C@_0BC@GJIPNCPH@?$CF5?41f?5?$CF5?41f?5?$CF5?41f?$AA@ DB '%5.1f %5.1f %'
	DB	'5.1f', 00H					; `string'
CONST	ENDS
;	COMDAT ??_7TankerBrain@@6B@
CONST	SEGMENT
??_7TankerBrain@@6B@ DD FLAT:??_R4TankerBrain@@6B@	; TankerBrain::`vftable'
	DD	FLAT:??_ETankerBrain@@UAEPAXI@Z
	DD	FLAT:?ReceiveOrders@DigitalBrain@@UAEXPAVFalconEvent@@@Z
	DD	FLAT:?JoinFlight@DigitalBrain@@UAEXXZ
	DD	FLAT:?SetLead@DigitalBrain@@UAEXH@Z
	DD	FLAT:?FrameExec@TankerBrain@@UAEXPAVSimObjectType@@0@Z
	DD	FLAT:?PostInsert@BaseBrain@@UAEXXZ
	DD	FLAT:?Sleep@DigitalBrain@@UAEXXZ
	DD	FLAT:?IsTanker@TankerBrain@@UAEHXZ
	DD	FLAT:?InitBoom@TankerBrain@@UAEXXZ
	DD	FLAT:?CleanupBoom@TankerBrain@@UAEXXZ
	DD	FLAT:?SetTarget@DigitalBrain@@MAEXPAVSimObjectType@@@Z
CONST	ENDS
;	COMDAT ??_C@_06FHFOAHML@system?$AA@
CONST	SEGMENT
??_C@_06FHFOAHML@system?$AA@ DB 'system', 00H		; `string'
CONST	ENDS
;	COMDAT ??_7_System_error_category@std@@6B@
CONST	SEGMENT
??_7_System_error_category@std@@6B@ DD FLAT:??_R4_System_error_category@std@@6B@ ; std::_System_error_category::`vftable'
	DD	FLAT:??_E_System_error_category@std@@UAEPAXI@Z
	DD	FLAT:?name@_System_error_category@std@@UBEPBDXZ
	DD	FLAT:?message@_System_error_category@std@@UBE?AV?$basic_string@DU?$char_traits@D@std@@V?$allocator@D@2@@2@H@Z
	DD	FLAT:?default_error_condition@_System_error_category@std@@UBE?AVerror_condition@2@H@Z
	DD	FLAT:?equivalent@error_category@std@@UBE_NABVerror_code@2@H@Z
	DD	FLAT:?equivalent@error_category@std@@UBE_NHABVerror_condition@2@@Z
CONST	ENDS
;	COMDAT ??_C@_0BG@PADBLCHM@iostream?5stream?5error?$AA@
CONST	SEGMENT
??_C@_0BG@PADBLCHM@iostream?5stream?5error?$AA@ DB 'iostream stream error'
	DB	00H						; `string'
CONST	ENDS
;	COMDAT ??_C@_08LLGCOLLL@iostream?$AA@
CONST	SEGMENT
??_C@_08LLGCOLLL@iostream?$AA@ DB 'iostream', 00H	; `string'
CONST	ENDS
;	COMDAT ??_7_Iostream_error_category@std@@6B@
CONST	SEGMENT
??_7_Iostream_error_category@std@@6B@ DD FLAT:??_R4_Iostream_error_category@std@@6B@ ; std::_Iostream_error_category::`vftable'
	DD	FLAT:??_E_Iostream_error_category@std@@UAEPAXI@Z
	DD	FLAT:?name@_Iostream_error_category@std@@UBEPBDXZ
	DD	FLAT:?message@_Iostream_error_category@std@@UBE?AV?$basic_string@DU?$char_traits@D@std@@V?$allocator@D@2@@2@H@Z
	DD	FLAT:?default_error_condition@error_category@std@@UBE?AVerror_condition@2@H@Z
	DD	FLAT:?equivalent@error_category@std@@UBE_NABVerror_code@2@H@Z
	DD	FLAT:?equivalent@error_category@std@@UBE_NHABVerror_condition@2@@Z
CONST	ENDS
;	COMDAT ??_C@_0O@BFJCFAAK@unknown?5error?$AA@
CONST	SEGMENT
??_C@_0O@BFJCFAAK@unknown?5error?$AA@ DB 'unknown error', 00H ; `string'
CONST	ENDS
;	COMDAT ??_C@_07DCLBNMLN@generic?$AA@
CONST	SEGMENT
??_C@_07DCLBNMLN@generic?$AA@ DB 'generic', 00H		; `string'
CONST	ENDS
;	COMDAT ??_7_Generic_error_category@std@@6B@
CONST	SEGMENT
??_7_Generic_error_category@std@@6B@ DD FLAT:??_R4_Generic_error_category@std@@6B@ ; std::_Generic_error_category::`vftable'
	DD	FLAT:??_E_Generic_error_category@std@@UAEPAXI@Z
	DD	FLAT:?name@_Generic_error_category@std@@UBEPBDXZ
	DD	FLAT:?message@_Generic_error_category@std@@UBE?AV?$basic_string@DU?$char_traits@D@std@@V?$allocator@D@2@@2@H@Z
	DD	FLAT:?default_error_condition@error_category@std@@UBE?AVerror_condition@2@H@Z
	DD	FLAT:?equivalent@error_category@std@@UBE_NABVerror_code@2@H@Z
	DD	FLAT:?equivalent@error_category@std@@UBE_NHABVerror_condition@2@@Z
CONST	ENDS
;	COMDAT ??_7error_category@std@@6B@
CONST	SEGMENT
??_7error_category@std@@6B@ DD FLAT:??_R4error_category@std@@6B@ ; std::error_category::`vftable'
	DD	FLAT:??_Eerror_category@std@@UAEPAXI@Z
	DD	FLAT:__purecall
	DD	FLAT:__purecall
	DD	FLAT:?default_error_condition@error_category@std@@UBE?AVerror_condition@2@H@Z
	DD	FLAT:?equivalent@error_category@std@@UBE_NABVerror_code@2@H@Z
	DD	FLAT:?equivalent@error_category@std@@UBE_NHABVerror_condition@2@@Z
CONST	ENDS
;	COMDAT xdata$x
xdata$x	SEGMENT
__unwindtable$??$construct@PADAAPAD@?$allocator@D@std@@QAEXPAPADAAPAD@Z DD 0ffffffffH
	DD	FLAT:__unwindfunclet$??$construct@PADAAPAD@?$allocator@D@std@@QAEXPAPADAAPAD@Z$0
__ehfuncinfo$??$construct@PADAAPAD@?$allocator@D@std@@QAEXPAPADAAPAD@Z DD 019930522H
	DD	01H
	DD	FLAT:__unwindtable$??$construct@PADAAPAD@?$allocator@D@std@@QAEXPAPADAAPAD@Z
	DD	2 DUP(00H)
	DD	2 DUP(00H)
	DD	00H
	DD	01H
xdata$x	ENDS
xdata$x	SEGMENT
__unwindtable$?DoneRefueling@TankerBrain@@QAEXXZ DD 0ffffffffH
	DD	FLAT:__unwindfunclet$?DoneRefueling@TankerBrain@@QAEXXZ$0
__unwindtable$?TankingPosition@TankerBrain@@QAEHPAVSimVehicleClass@@@Z DD 0ffffffffH
	DD	FLAT:__unwindfunclet$?TankingPosition@TankerBrain@@QAEHPAVSimVehicleClass@@@Z$0
__unwindtable$??1TankerBrain@@UAE@XZ DD 0ffffffffH
	DD	FLAT:__unwindfunclet$??1TankerBrain@@UAE@XZ$0
__unwindtable$?BreakAway@TankerBrain@@AAEXXZ DD 0ffffffffH
	DD	FLAT:__unwindfunclet$?BreakAway@TankerBrain@@AAEXXZ$0
__unwindtable$?PurgeWaitQ@TankerBrain@@QAEXXZ DD 0ffffffffH
	DD	FLAT:__unwindfunclet$?PurgeWaitQ@TankerBrain@@QAEXXZ$0
	DD	00H
	DD	FLAT:__unwindfunclet$?PurgeWaitQ@TankerBrain@@QAEXXZ$1
__unwindtable$?AddToQ@TankerBrain@@QAEHPAVSimVehicleClass@@@Z DD 0ffffffffH
	DD	FLAT:__unwindfunclet$?AddToQ@TankerBrain@@QAEHPAVSimVehicleClass@@@Z$0
	DD	0ffffffffH
	DD	FLAT:__unwindfunclet$?AddToQ@TankerBrain@@QAEHPAVSimVehicleClass@@@Z$1
__unwindtable$?AddToWaitQ@TankerBrain@@QAEHPAVSimVehicleClass@@@Z DD 0ffffffffH
	DD	FLAT:__unwindfunclet$?AddToWaitQ@TankerBrain@@QAEHPAVSimVehicleClass@@@Z$0
	DD	0ffffffffH
	DD	FLAT:__unwindfunclet$?AddToWaitQ@TankerBrain@@QAEHPAVSimVehicleClass@@@Z$1
	DD	01H
	DD	FLAT:__unwindfunclet$?AddToWaitQ@TankerBrain@@QAEHPAVSimVehicleClass@@@Z$2
__unwindtable$??0TankerBrain@@QAE@PAVAircraftClass@@PAVAirframeClass@@@Z DD 0ffffffffH
	DD	FLAT:__unwindfunclet$??0TankerBrain@@QAE@PAVAircraftClass@@PAVAirframeClass@@@Z$0
	DD	00H
	DD	FLAT:__unwindfunclet$??0TankerBrain@@QAE@PAVAircraftClass@@PAVAirframeClass@@@Z$1
	DD	00H
	DD	FLAT:__unwindfunclet$??0TankerBrain@@QAE@PAVAircraftClass@@PAVAirframeClass@@@Z$2
__ehfuncinfo$?InitBoom@TankerBrain@@UAEXXZ DD 019930522H
	DD	05H
	DD	FLAT:__unwindtable$?InitBoom@TankerBrain@@UAEXXZ
	DD	2 DUP(00H)
	DD	2 DUP(00H)
	DD	00H
	DD	01H
__ehfuncinfo$?DoneRefueling@TankerBrain@@QAEXXZ DD 019930522H
	DD	01H
	DD	FLAT:__unwindtable$?DoneRefueling@TankerBrain@@QAEXXZ
	DD	2 DUP(00H)
	DD	2 DUP(00H)
	DD	00H
	DD	01H
__ehfuncinfo$?TankingPosition@TankerBrain@@QAEHPAVSimVehicleClass@@@Z DD 019930522H
	DD	01H
	DD	FLAT:__unwindtable$?TankingPosition@TankerBrain@@QAEHPAVSimVehicleClass@@@Z
	DD	2 DUP(00H)
	DD	2 DUP(00H)
	DD	00H
	DD	01H
__ehfuncinfo$?PurgeWaitQ@TankerBrain@@QAEXXZ DD 019930522H
	DD	02H
	DD	FLAT:__unwindtable$?PurgeWaitQ@TankerBrain@@QAEXXZ
	DD	2 DUP(00H)
	DD	2 DUP(00H)
	DD	00H
	DD	01H
__ehfuncinfo$?AddToWaitQ@TankerBrain@@QAEHPAVSimVehicleClass@@@Z DD 019930522H
	DD	03H
	DD	FLAT:__unwindtable$?AddToWaitQ@TankerBrain@@QAEHPAVSimVehicleClass@@@Z
	DD	2 DUP(00H)
	DD	2 DUP(00H)
	DD	00H
	DD	01H
__ehfuncinfo$?AddToQ@TankerBrain@@QAEHPAVSimVehicleClass@@@Z DD 019930522H
	DD	02H
	DD	FLAT:__unwindtable$?AddToQ@TankerBrain@@QAEHPAVSimVehicleClass@@@Z
	DD	2 DUP(00H)
	DD	2 DUP(00H)
	DD	00H
	DD	01H
__ehfuncinfo$??1TankerBrain@@UAE@XZ DD 019930522H
	DD	01H
	DD	FLAT:__unwindtable$??1TankerBrain@@UAE@XZ
	DD	2 DUP(00H)
	DD	2 DUP(00H)
	DD	00H
	DD	01H
__ehfuncinfo$??0TankerBrain@@QAE@PAVAircraftClass@@PAVAirframeClass@@@Z DD 019930522H
	DD	03H
	DD	FLAT:__unwindtable$??0TankerBrain@@QAE@PAVAircraftClass@@PAVAirframeClass@@@Z
	DD	2 DUP(00H)
	DD	2 DUP(00H)
	DD	00H
	DD	01H
__ehfuncinfo$?FollowThirsty@TankerBrain@@AAEXXZ DD 019930522H
	DD	06H
	DD	FLAT:__unwindtable$?FollowThirsty@TankerBrain@@AAEXXZ
	DD	2 DUP(00H)
	DD	2 DUP(00H)
	DD	00H
	DD	01H
__ehfuncinfo$?BreakAway@TankerBrain@@AAEXXZ DD 019930522H
	DD	01H
	DD	FLAT:__unwindtable$?BreakAway@TankerBrain@@AAEXXZ
	DD	2 DUP(00H)
	DD	2 DUP(00H)
	DD	00H
	DD	01H
__ehfuncinfo$?DriveBoom@TankerBrain@@AAEXXZ DD 019930522H
	DD	08H
	DD	FLAT:__unwindtable$?DriveBoom@TankerBrain@@AAEXXZ
	DD	2 DUP(00H)
	DD	2 DUP(00H)
	DD	00H
	DD	01H
__ehfuncinfo$?CallNext@TankerBrain@@AAEXXZ DD 019930522H
	DD	06H
	DD	FLAT:__unwindtable$?CallNext@TankerBrain@@AAEXXZ
	DD	2 DUP(00H)
	DD	2 DUP(00H)
	DD	00H
	DD	01H
__unwindtable$?InitBoom@TankerBrain@@UAEXXZ DD 0ffffffffH
	DD	FLAT:__unwindfunclet$?InitBoom@TankerBrain@@UAEXXZ$0
	DD	0ffffffffH
	DD	FLAT:__unwindfunclet$?InitBoom@TankerBrain@@UAEXXZ$1
	DD	0ffffffffH
	DD	FLAT:__unwindfunclet$?InitBoom@TankerBrain@@UAEXXZ$2
	DD	0ffffffffH
	DD	FLAT:__unwindfunclet$?InitBoom@TankerBrain@@UAEXXZ$3
	DD	0ffffffffH
	DD	FLAT:__unwindfunclet$?InitBoom@TankerBrain@@UAEXXZ$4
__unwindtable$?FollowThirsty@TankerBrain@@AAEXXZ DD 0ffffffffH
	DD	FLAT:__unwindfunclet$?FollowThirsty@TankerBrain@@AAEXXZ$0
	DD	0ffffffffH
	DD	FLAT:__unwindfunclet$?FollowThirsty@TankerBrain@@AAEXXZ$1
	DD	0ffffffffH
	DD	FLAT:__unwindfunclet$?FollowThirsty@TankerBrain@@AAEXXZ$2
	DD	0ffffffffH
	DD	FLAT:__unwindfunclet$?FollowThirsty@TankerBrain@@AAEXXZ$3
	DD	0ffffffffH
	DD	FLAT:__unwindfunclet$?FollowThirsty@TankerBrain@@AAEXXZ$4
	DD	0ffffffffH
	DD	FLAT:__unwindfunclet$?FollowThirsty@TankerBrain@@AAEXXZ$5
__unwindtable$?CallNext@TankerBrain@@AAEXXZ DD 0ffffffffH
	DD	FLAT:__unwindfunclet$?CallNext@TankerBrain@@AAEXXZ$0
	DD	00H
	DD	FLAT:__unwindfunclet$?CallNext@TankerBrain@@AAEXXZ$1
	DD	00H
	DD	FLAT:__unwindfunclet$?CallNext@TankerBrain@@AAEXXZ$2
	DD	00H
	DD	FLAT:__unwindfunclet$?CallNext@TankerBrain@@AAEXXZ$3
	DD	03H
	DD	FLAT:__unwindfunclet$?CallNext@TankerBrain@@AAEXXZ$4
	DD	03H
	DD	FLAT:__unwindfunclet$?CallNext@TankerBrain@@AAEXXZ$5
__unwindtable$?DriveBoom@TankerBrain@@AAEXXZ DD 0ffffffffH
	DD	FLAT:__unwindfunclet$?DriveBoom@TankerBrain@@AAEXXZ$0
	DD	0ffffffffH
	DD	FLAT:__unwindfunclet$?DriveBoom@TankerBrain@@AAEXXZ$1
	DD	0ffffffffH
	DD	FLAT:__unwindfunclet$?DriveBoom@TankerBrain@@AAEXXZ$2
	DD	0ffffffffH
	DD	FLAT:__unwindfunclet$?DriveBoom@TankerBrain@@AAEXXZ$3
	DD	0ffffffffH
	DD	FLAT:__unwindfunclet$?DriveBoom@TankerBrain@@AAEXXZ$4
	DD	0ffffffffH
	DD	FLAT:__unwindfunclet$?DriveBoom@TankerBrain@@AAEXXZ$5
	DD	0ffffffffH
	DD	FLAT:__unwindfunclet$?DriveBoom@TankerBrain@@AAEXXZ$6
	DD	0ffffffffH
	DD	FLAT:__unwindfunclet$?DriveBoom@TankerBrain@@AAEXXZ$7
xdata$x	ENDS
;	COMDAT xdata$x
xdata$x	SEGMENT
__catchsym$?_Copy@?$basic_string@DU?$char_traits@D@std@@V?$allocator@D@2@@std@@QAEXII@Z$5 DD 040H
	DD	00H
	DD	00H
	DD	FLAT:__catch$?_Copy@?$basic_string@DU?$char_traits@D@std@@V?$allocator@D@2@@std@@QAEXII@Z$0
__catchsym$?_Copy@?$basic_string@DU?$char_traits@D@std@@V?$allocator@D@2@@std@@QAEXII@Z$4 DD 040H
	DD	00H
	DD	00H
	DD	FLAT:__catch$?_Copy@?$basic_string@DU?$char_traits@D@std@@V?$allocator@D@2@@std@@QAEXII@Z$1
__unwindtable$?_Copy@?$basic_string@DU?$char_traits@D@std@@V?$allocator@D@2@@std@@QAEXII@Z DD 0ffffffffH
	DD	00H
	DD	0ffffffffH
	DD	00H
	DD	01H
	DD	00H
	DD	01H
	DD	00H
__ehfuncinfo$?_Copy@?$basic_string@DU?$char_traits@D@std@@V?$allocator@D@2@@std@@QAEXII@Z DD 019930522H
	DD	04H
	DD	FLAT:__unwindtable$?_Copy@?$basic_string@DU?$char_traits@D@std@@V?$allocator@D@2@@std@@QAEXII@Z
	DD	02H
	DD	FLAT:__tryblocktable$?_Copy@?$basic_string@DU?$char_traits@D@std@@V?$allocator@D@2@@std@@QAEXII@Z
	DD	2 DUP(00H)
	DD	00H
	DD	01H
__tryblocktable$?_Copy@?$basic_string@DU?$char_traits@D@std@@V?$allocator@D@2@@std@@QAEXII@Z DD 02H
	DD	02H
	DD	03H
	DD	01H
	DD	FLAT:__catchsym$?_Copy@?$basic_string@DU?$char_traits@D@std@@V?$allocator@D@2@@std@@QAEXII@Z$4
	DD	00H
	DD	00H
	DD	03H
	DD	01H
	DD	FLAT:__catchsym$?_Copy@?$basic_string@DU?$char_traits@D@std@@V?$allocator@D@2@@std@@QAEXII@Z$5
xdata$x	ENDS
CRT$XCU	SEGMENT
_allocator_arg$initializer$ DD FLAT:??__Eallocator_arg@std@@YAXXZ
CRT$XCU	ENDS
;	COMDAT CRT$XCU
CRT$XCU	SEGMENT
?_Generic_object$initializer$@?$_Error_objects@H@std@@2P6AXXZA DD FLAT:??__E?_Generic_object@?$_Error_objects@H@std@@2V_Generic_error_category@2@A@@YAXXZ ; std::_Error_objects<int>::_Generic_object$initializer$
CRT$XCU	ENDS
;	COMDAT CRT$XCU
CRT$XCU	SEGMENT
?_Iostream_object$initializer$@?$_Error_objects@H@std@@2P6AXXZA DD FLAT:??__E?_Iostream_object@?$_Error_objects@H@std@@2V_Iostream_error_category@2@A@@YAXXZ ; std::_Error_objects<int>::_Iostream_object$initializer$
CRT$XCU	ENDS
;	COMDAT CRT$XCU
CRT$XCU	SEGMENT
?_System_object$initializer$@?$_Error_objects@H@std@@2P6AXXZA DD FLAT:??__E?_System_object@?$_Error_objects@H@std@@2V_System_error_category@2@A@@YAXXZ ; std::_Error_objects<int>::_System_object$initializer$
CRT$XCU	ENDS
;	COMDAT CRT$XCU
CRT$XCU	SEGMENT
?id$initializer$@?$num_put@DV?$back_insert_iterator@V?$basic_string@DU?$char_traits@D@std@@V?$allocator@D@2@@std@@@std@@@std@@2P6AXXZA DD FLAT:??__E?id@?$num_put@DV?$back_insert_iterator@V?$basic_string@DU?$char_traits@D@std@@V?$allocator@D@2@@std@@@std@@@std@@2V0locale@2@A@@YAXXZ ; std::num_put<char,std::back_insert_iterator<std::basic_string<char,std::char_traits<char>,std::allocator<char> > > >::id$initializer$
CRT$XCU	ENDS
;	COMDAT CRT$XCU
CRT$XCU	SEGMENT
?id$initializer$@?$num_put@_WV?$back_insert_iterator@V?$basic_string@_WU?$char_traits@_W@std@@V?$allocator@_W@2@@std@@@std@@@std@@2P6AXXZA DD FLAT:??__E?id@?$num_put@_WV?$back_insert_iterator@V?$basic_string@_WU?$char_traits@_W@std@@V?$allocator@_W@2@@std@@@std@@@std@@2V0locale@2@A@@YAXXZ ; std::num_put<wchar_t,std::back_insert_iterator<std::basic_string<wchar_t,std::char_traits<wchar_t>,std::allocator<wchar_t> > > >::id$initializer$
CRT$XCU	ENDS
;	COMDAT CRT$XCU
CRT$XCU	SEGMENT
?id$initializer$@?$numpunct@D@std@@2P6AXXZA DD FLAT:??__E?id@?$numpunct@D@std@@2V0locale@2@A@@YAXXZ ; std::numpunct<char>::id$initializer$
CRT$XCU	ENDS
;	COMDAT CRT$XCU
CRT$XCU	SEGMENT
?id$initializer$@?$numpunct@_W@std@@2P6AXXZA DD FLAT:??__E?id@?$numpunct@_W@std@@2V0locale@2@A@@YAXXZ ; std::numpunct<wchar_t>::id$initializer$
CRT$XCU	ENDS
; Function compile flags: /Odtp
; File c:\program files (x86)\microsoft visual studio 11.0\vc\include\xmemory0
;	COMDAT ??$destroy@PAD@?$allocator@D@std@@QAEXPAPAD@Z
_TEXT	SEGMENT
_this$ = -4						; size = 4
__Ptr$ = 8						; size = 4
??$destroy@PAD@?$allocator@D@std@@QAEXPAPAD@Z PROC	; std::allocator<char>::destroy<char *>, COMDAT
; _this$ = ecx

; 621  : 		void destroy(_Uty *_Ptr)

	push	ebp
	mov	ebp, esp
	push	ecx
	mov	DWORD PTR _this$[ebp], ecx

; 622  : 		{	// destroy object at _Ptr
; 623  : 		_Ptr->~_Uty();
; 624  : 		}

	mov	esp, ebp
	pop	ebp
	ret	4
??$destroy@PAD@?$allocator@D@std@@QAEXPAPAD@Z ENDP	; std::allocator<char>::destroy<char *>
_TEXT	ENDS
; Function compile flags: /Odtp
; File c:\program files (x86)\microsoft visual studio 11.0\vc\include\xmemory0
;	COMDAT ??$construct@PADAAPAD@?$allocator@D@std@@QAEXPAPADAAPAD@Z
_TEXT	SEGMENT
$T2 = -28						; size = 4
_this$ = -24						; size = 4
tv73 = -20						; size = 4
$T3 = -16						; size = 4
__$EHRec$ = -12						; size = 12
__Ptr$ = 8						; size = 4
__V0$ = 12						; size = 4
??$construct@PADAAPAD@?$allocator@D@std@@QAEXPAPADAAPAD@Z PROC ; std::allocator<char>::construct<char *,char * &>, COMDAT
; _this$ = ecx

; 617  : _VARIADIC_EXPAND_0X(_ALLOC_MEMBER_CONSTRUCT, , , , )

	push	ebp
	mov	ebp, esp
	push	-1
	push	__ehhandler$??$construct@PADAAPAD@?$allocator@D@std@@QAEXPAPADAAPAD@Z
	mov	eax, DWORD PTR fs:0
	push	eax
	sub	esp, 16					; 00000010H
	mov	eax, DWORD PTR ___security_cookie
	xor	eax, ebp
	push	eax
	lea	eax, DWORD PTR __$EHRec$[ebp]
	mov	DWORD PTR fs:0, eax
	mov	DWORD PTR _this$[ebp], ecx
	mov	eax, DWORD PTR __Ptr$[ebp]
	push	eax
	push	4
	call	??2@YAPAXIPAX@Z				; operator new
	add	esp, 8
	mov	DWORD PTR $T3[ebp], eax
	mov	DWORD PTR __$EHRec$[ebp+8], 0
	cmp	DWORD PTR $T3[ebp], 0
	je	SHORT $LN3@construct
	mov	ecx, DWORD PTR __V0$[ebp]
	push	ecx
	call	??$forward@AAPAD@std@@YAAAPADAAPAD@Z	; std::forward<char * &>
	add	esp, 4
	mov	edx, DWORD PTR $T3[ebp]
	mov	eax, DWORD PTR [eax]
	mov	DWORD PTR [edx], eax
	mov	ecx, DWORD PTR $T3[ebp]
	mov	DWORD PTR tv73[ebp], ecx
	jmp	SHORT $LN4@construct
$LN3@construct:
	mov	DWORD PTR tv73[ebp], 0
$LN4@construct:
	mov	edx, DWORD PTR tv73[ebp]
	mov	DWORD PTR $T2[ebp], edx
	mov	DWORD PTR __$EHRec$[ebp+8], -1
	mov	ecx, DWORD PTR __$EHRec$[ebp]
	mov	DWORD PTR fs:0, ecx
	pop	ecx
	mov	esp, ebp
	pop	ebp
	ret	8
_TEXT	ENDS
;	COMDAT text$x
text$x	SEGMENT
__unwindfunclet$??$construct@PADAAPAD@?$allocator@D@std@@QAEXPAPADAAPAD@Z$0:
	mov	eax, DWORD PTR __Ptr$[ebp]
	push	eax
	mov	eax, DWORD PTR $T3[ebp]
	push	eax
	call	??3@YAXPAX0@Z				; operator delete
	add	esp, 8
	ret	0
__ehhandler$??$construct@PADAAPAD@?$allocator@D@std@@QAEXPAPADAAPAD@Z:
	mov	edx, DWORD PTR [esp+8]
	lea	eax, DWORD PTR [edx+12]
	mov	ecx, DWORD PTR [edx-20]
	xor	ecx, eax
	call	@__security_check_cookie@4
	mov	eax, OFFSET __ehfuncinfo$??$construct@PADAAPAD@?$allocator@D@std@@QAEXPAPADAAPAD@Z
	jmp	___CxxFrameHandler3
text$x	ENDS
??$construct@PADAAPAD@?$allocator@D@std@@QAEXPAPADAAPAD@Z ENDP ; std::allocator<char>::construct<char *,char * &>
; Function compile flags: /Odtp
; File c:\program files (x86)\microsoft visual studio 11.0\vc\include\xlocnum
;	COMDAT ??__E?id@?$numpunct@_W@std@@2V0locale@2@A@@YAXXZ
text$yc	SEGMENT
??__E?id@?$numpunct@_W@std@@2V0locale@2@A@@YAXXZ PROC	; `dynamic initializer for 'std::numpunct<wchar_t>::id'', COMDAT

; 155  : 		void _Getvals(wchar_t, const lconv *_Ptr, _Locinfo::_Cvtvec)

	push	ebp
	mov	ebp, esp
	push	0
	mov	ecx, OFFSET ?id@?$numpunct@_W@std@@2V0locale@2@A ; std::numpunct<wchar_t>::id
	call	??0id@locale@std@@QAE@I@Z		; std::locale::id::id
	pop	ebp
	ret	0
??__E?id@?$numpunct@_W@std@@2V0locale@2@A@@YAXXZ ENDP	; `dynamic initializer for 'std::numpunct<wchar_t>::id''
text$yc	ENDS
; Function compile flags: /Odtp
; File c:\program files (x86)\microsoft visual studio 11.0\vc\include\xlocnum
;	COMDAT ??__E?id@?$numpunct@D@std@@2V0locale@2@A@@YAXXZ
text$yc	SEGMENT
??__E?id@?$numpunct@D@std@@2V0locale@2@A@@YAXXZ PROC	; `dynamic initializer for 'std::numpunct<char>::id'', COMDAT

; 155  : 		void _Getvals(wchar_t, const lconv *_Ptr, _Locinfo::_Cvtvec)

	push	ebp
	mov	ebp, esp
	push	0
	mov	ecx, OFFSET ?id@?$numpunct@D@std@@2V0locale@2@A ; std::numpunct<char>::id
	call	??0id@locale@std@@QAE@I@Z		; std::locale::id::id
	pop	ebp
	ret	0
??__E?id@?$numpunct@D@std@@2V0locale@2@A@@YAXXZ ENDP	; `dynamic initializer for 'std::numpunct<char>::id''
text$yc	ENDS
; Function compile flags: /Odtp
; File c:\program files (x86)\microsoft visual studio 11.0\vc\include\xlocnum
;	COMDAT ??__E?id@?$num_put@_WV?$back_insert_iterator@V?$basic_string@_WU?$char_traits@_W@std@@V?$allocator@_W@2@@std@@@std@@@std@@2V0locale@2@A@@YAXXZ
text$yc	SEGMENT
??__E?id@?$num_put@_WV?$back_insert_iterator@V?$basic_string@_WU?$char_traits@_W@std@@V?$allocator@_W@2@@std@@@std@@@std@@2V0locale@2@A@@YAXXZ PROC ; `dynamic initializer for 'std::num_put<wchar_t,std::back_insert_iterator<std::basic_string<wchar_t,std::char_traits<wchar_t>,std::allocator<wchar_t> > > >::id'', COMDAT

; 155  : 		void _Getvals(wchar_t, const lconv *_Ptr, _Locinfo::_Cvtvec)

	push	ebp
	mov	ebp, esp
	push	0
	mov	ecx, OFFSET ?id@?$num_put@_WV?$back_insert_iterator@V?$basic_string@_WU?$char_traits@_W@std@@V?$allocator@_W@2@@std@@@std@@@std@@2V0locale@2@A ; std::num_put<wchar_t,std::back_insert_iterator<std::basic_string<wchar_t,std::char_traits<wchar_t>,std::allocator<wchar_t> > > >::id
	call	??0id@locale@std@@QAE@I@Z		; std::locale::id::id
	pop	ebp
	ret	0
??__E?id@?$num_put@_WV?$back_insert_iterator@V?$basic_string@_WU?$char_traits@_W@std@@V?$allocator@_W@2@@std@@@std@@@std@@2V0locale@2@A@@YAXXZ ENDP ; `dynamic initializer for 'std::num_put<wchar_t,std::back_insert_iterator<std::basic_string<wchar_t,std::char_traits<wchar_t>,std::allocator<wchar_t> > > >::id''
text$yc	ENDS
; Function compile flags: /Odtp
; File c:\program files (x86)\microsoft visual studio 11.0\vc\include\xlocnum
;	COMDAT ??__E?id@?$num_put@DV?$back_insert_iterator@V?$basic_string@DU?$char_traits@D@std@@V?$allocator@D@2@@std@@@std@@@std@@2V0locale@2@A@@YAXXZ
text$yc	SEGMENT
??__E?id@?$num_put@DV?$back_insert_iterator@V?$basic_string@DU?$char_traits@D@std@@V?$allocator@D@2@@std@@@std@@@std@@2V0locale@2@A@@YAXXZ PROC ; `dynamic initializer for 'std::num_put<char,std::back_insert_iterator<std::basic_string<char,std::char_traits<char>,std::allocator<char> > > >::id'', COMDAT

; 155  : 		void _Getvals(wchar_t, const lconv *_Ptr, _Locinfo::_Cvtvec)

	push	ebp
	mov	ebp, esp
	push	0
	mov	ecx, OFFSET ?id@?$num_put@DV?$back_insert_iterator@V?$basic_string@DU?$char_traits@D@std@@V?$allocator@D@2@@std@@@std@@@std@@2V0locale@2@A ; std::num_put<char,std::back_insert_iterator<std::basic_string<char,std::char_traits<char>,std::allocator<char> > > >::id
	call	??0id@locale@std@@QAE@I@Z		; std::locale::id::id
	pop	ebp
	ret	0
??__E?id@?$num_put@DV?$back_insert_iterator@V?$basic_string@DU?$char_traits@D@std@@V?$allocator@D@2@@std@@@std@@@std@@2V0locale@2@A@@YAXXZ ENDP ; `dynamic initializer for 'std::num_put<char,std::back_insert_iterator<std::basic_string<char,std::char_traits<char>,std::allocator<char> > > >::id''
text$yc	ENDS
; Function compile flags: /Odtp
; File c:\program files (x86)\microsoft visual studio 11.0\vc\include\xmemory0
;	COMDAT ??$destroy@PAD@?$allocator_traits@V?$allocator@D@std@@@std@@SAXAAV?$allocator@D@1@PAPAD@Z
_TEXT	SEGMENT
__Al$ = 8						; size = 4
__Ptr$ = 12						; size = 4
??$destroy@PAD@?$allocator_traits@V?$allocator@D@std@@@std@@SAXAAV?$allocator@D@1@PAPAD@Z PROC ; std::allocator_traits<std::allocator<char> >::destroy<char *>, COMDAT

; 755  : 		static void destroy(_Alloc& _Al, _Uty *_Ptr)

	push	ebp
	mov	ebp, esp

; 756  : 		{	// destroy object at _Ptr
; 757  : 		_Al.destroy(_Ptr);

	mov	eax, DWORD PTR __Ptr$[ebp]
	push	eax
	mov	ecx, DWORD PTR __Al$[ebp]
	call	??$destroy@PAD@?$allocator@D@std@@QAEXPAPAD@Z ; std::allocator<char>::destroy<char *>

; 758  : 		}

	pop	ebp
	ret	0
??$destroy@PAD@?$allocator_traits@V?$allocator@D@std@@@std@@SAXAAV?$allocator@D@1@PAPAD@Z ENDP ; std::allocator_traits<std::allocator<char> >::destroy<char *>
_TEXT	ENDS
; Function compile flags: /Odtp
; File c:\program files (x86)\microsoft visual studio 11.0\vc\include\xmemory0
;	COMDAT ??$construct@PADAAPAD@?$allocator_traits@V?$allocator@D@std@@@std@@SAXAAV?$allocator@D@1@PAPADAAPAD@Z
_TEXT	SEGMENT
__Al$ = 8						; size = 4
__Ptr$ = 12						; size = 4
__V0$ = 16						; size = 4
??$construct@PADAAPAD@?$allocator_traits@V?$allocator@D@std@@@std@@SAXAAV?$allocator@D@1@PAPADAAPAD@Z PROC ; std::allocator_traits<std::allocator<char> >::construct<char *,char * &>, COMDAT

; 751  : _VARIADIC_EXPAND_0X(_ALLOC_TRAITS_SPECIAL_CONSTRUCT, , , , )

	push	ebp
	mov	ebp, esp
	mov	eax, DWORD PTR __V0$[ebp]
	push	eax
	call	??$forward@AAPAD@std@@YAAAPADAAPAD@Z	; std::forward<char * &>
	add	esp, 4
	push	eax
	mov	ecx, DWORD PTR __Ptr$[ebp]
	push	ecx
	mov	ecx, DWORD PTR __Al$[ebp]
	call	??$construct@PADAAPAD@?$allocator@D@std@@QAEXPAPADAAPAD@Z ; std::allocator<char>::construct<char *,char * &>
	pop	ebp
	ret	0
??$construct@PADAAPAD@?$allocator_traits@V?$allocator@D@std@@@std@@SAXAAV?$allocator@D@1@PAPADAAPAD@Z ENDP ; std::allocator_traits<std::allocator<char> >::construct<char *,char * &>
_TEXT	ENDS
; Function compile flags: /Odtp
; File c:\program files (x86)\microsoft visual studio 11.0\vc\include\type_traits
;	COMDAT ??$forward@AAPAD@std@@YAAAPADAAPAD@Z
_TEXT	SEGMENT
__Arg$ = 8						; size = 4
??$forward@AAPAD@std@@YAAAPADAAPAD@Z PROC		; std::forward<char * &>, COMDAT

; 1775 : 	{	// forward an lvalue

	push	ebp
	mov	ebp, esp

; 1776 : 	return (static_cast<_Ty&&>(_Arg));

	mov	eax, DWORD PTR __Arg$[ebp]

; 1777 : 	}

	pop	ebp
	ret	0
??$forward@AAPAD@std@@YAAAPADAAPAD@Z ENDP		; std::forward<char * &>
_TEXT	ENDS
; Function compile flags: /Odtp
;	COMDAT ??__F?_System_object@?$_Error_objects@H@std@@2V_System_error_category@2@A@@YAXXZ
text$yd	SEGMENT
??__F?_System_object@?$_Error_objects@H@std@@2V_System_error_category@2@A@@YAXXZ PROC ; `dynamic atexit destructor for 'std::_Error_objects<int>::_System_object'', COMDAT
	push	ebp
	mov	ebp, esp
	mov	ecx, OFFSET ?_System_object@?$_Error_objects@H@std@@2V_System_error_category@2@A ; std::_Error_objects<int>::_System_object
	call	??1_System_error_category@std@@UAE@XZ
	pop	ebp
	ret	0
??__F?_System_object@?$_Error_objects@H@std@@2V_System_error_category@2@A@@YAXXZ ENDP ; `dynamic atexit destructor for 'std::_Error_objects<int>::_System_object''
text$yd	ENDS
; Function compile flags: /Odtp
; File c:\program files (x86)\microsoft visual studio 11.0\vc\include\xmemory0
;	COMDAT ??__E?_System_object@?$_Error_objects@H@std@@2V_System_error_category@2@A@@YAXXZ
text$yc	SEGMENT
??__E?_System_object@?$_Error_objects@H@std@@2V_System_error_category@2@A@@YAXXZ PROC ; `dynamic initializer for 'std::_Error_objects<int>::_System_object'', COMDAT

; 627  : 		{	// estimate maximum array size

	push	ebp
	mov	ebp, esp
	mov	ecx, OFFSET ?_System_object@?$_Error_objects@H@std@@2V_System_error_category@2@A ; std::_Error_objects<int>::_System_object
	call	??0_System_error_category@std@@QAE@XZ	; std::_System_error_category::_System_error_category
	push	OFFSET ??__F?_System_object@?$_Error_objects@H@std@@2V_System_error_category@2@A@@YAXXZ ; `dynamic atexit destructor for 'std::_Error_objects<int>::_System_object''
	call	_atexit
	add	esp, 4
	pop	ebp
	ret	0
??__E?_System_object@?$_Error_objects@H@std@@2V_System_error_category@2@A@@YAXXZ ENDP ; `dynamic initializer for 'std::_Error_objects<int>::_System_object''
text$yc	ENDS
; Function compile flags: /Odtp
;	COMDAT ??__F?_Iostream_object@?$_Error_objects@H@std@@2V_Iostream_error_category@2@A@@YAXXZ
text$yd	SEGMENT
??__F?_Iostream_object@?$_Error_objects@H@std@@2V_Iostream_error_category@2@A@@YAXXZ PROC ; `dynamic atexit destructor for 'std::_Error_objects<int>::_Iostream_object'', COMDAT
	push	ebp
	mov	ebp, esp
	mov	ecx, OFFSET ?_Iostream_object@?$_Error_objects@H@std@@2V_Iostream_error_category@2@A ; std::_Error_objects<int>::_Iostream_object
	call	??1_Iostream_error_category@std@@UAE@XZ
	pop	ebp
	ret	0
??__F?_Iostream_object@?$_Error_objects@H@std@@2V_Iostream_error_category@2@A@@YAXXZ ENDP ; `dynamic atexit destructor for 'std::_Error_objects<int>::_Iostream_object''
text$yd	ENDS
; Function compile flags: /Odtp
; File c:\program files (x86)\microsoft visual studio 11.0\vc\include\xmemory0
;	COMDAT ??__E?_Iostream_object@?$_Error_objects@H@std@@2V_Iostream_error_category@2@A@@YAXXZ
text$yc	SEGMENT
??__E?_Iostream_object@?$_Error_objects@H@std@@2V_Iostream_error_category@2@A@@YAXXZ PROC ; `dynamic initializer for 'std::_Error_objects<int>::_Iostream_object'', COMDAT

; 627  : 		{	// estimate maximum array size

	push	ebp
	mov	ebp, esp
	mov	ecx, OFFSET ?_Iostream_object@?$_Error_objects@H@std@@2V_Iostream_error_category@2@A ; std::_Error_objects<int>::_Iostream_object
	call	??0_Iostream_error_category@std@@QAE@XZ	; std::_Iostream_error_category::_Iostream_error_category
	push	OFFSET ??__F?_Iostream_object@?$_Error_objects@H@std@@2V_Iostream_error_category@2@A@@YAXXZ ; `dynamic atexit destructor for 'std::_Error_objects<int>::_Iostream_object''
	call	_atexit
	add	esp, 4
	pop	ebp
	ret	0
??__E?_Iostream_object@?$_Error_objects@H@std@@2V_Iostream_error_category@2@A@@YAXXZ ENDP ; `dynamic initializer for 'std::_Error_objects<int>::_Iostream_object''
text$yc	ENDS
; Function compile flags: /Odtp
;	COMDAT ??__F?_Generic_object@?$_Error_objects@H@std@@2V_Generic_error_category@2@A@@YAXXZ
text$yd	SEGMENT
??__F?_Generic_object@?$_Error_objects@H@std@@2V_Generic_error_category@2@A@@YAXXZ PROC ; `dynamic atexit destructor for 'std::_Error_objects<int>::_Generic_object'', COMDAT
	push	ebp
	mov	ebp, esp
	mov	ecx, OFFSET ?_Generic_object@?$_Error_objects@H@std@@2V_Generic_error_category@2@A ; std::_Error_objects<int>::_Generic_object
	call	??1_Generic_error_category@std@@UAE@XZ
	pop	ebp
	ret	0
??__F?_Generic_object@?$_Error_objects@H@std@@2V_Generic_error_category@2@A@@YAXXZ ENDP ; `dynamic atexit destructor for 'std::_Error_objects<int>::_Generic_object''
text$yd	ENDS
; Function compile flags: /Odtp
; File c:\program files (x86)\microsoft visual studio 11.0\vc\include\xmemory0
;	COMDAT ??__E?_Generic_object@?$_Error_objects@H@std@@2V_Generic_error_category@2@A@@YAXXZ
text$yc	SEGMENT
??__E?_Generic_object@?$_Error_objects@H@std@@2V_Generic_error_category@2@A@@YAXXZ PROC ; `dynamic initializer for 'std::_Error_objects<int>::_Generic_object'', COMDAT

; 627  : 		{	// estimate maximum array size

	push	ebp
	mov	ebp, esp
	mov	ecx, OFFSET ?_Generic_object@?$_Error_objects@H@std@@2V_Generic_error_category@2@A ; std::_Error_objects<int>::_Generic_object
	call	??0_Generic_error_category@std@@QAE@XZ	; std::_Generic_error_category::_Generic_error_category
	push	OFFSET ??__F?_Generic_object@?$_Error_objects@H@std@@2V_Generic_error_category@2@A@@YAXXZ ; `dynamic atexit destructor for 'std::_Error_objects<int>::_Generic_object''
	call	_atexit
	add	esp, 4
	pop	ebp
	ret	0
??__E?_Generic_object@?$_Error_objects@H@std@@2V_Generic_error_category@2@A@@YAXXZ ENDP ; `dynamic initializer for 'std::_Error_objects<int>::_Generic_object''
text$yc	ENDS
; Function compile flags: /Odtp
; File c:\program files (x86)\microsoft visual studio 11.0\vc\include\xmemory0
;	COMDAT ??$_Allocate@D@std@@YAPADIPAD@Z
_TEXT	SEGMENT
__Ptr$ = -4						; size = 4
__Count$ = 8						; size = 4
___formal$ = 12						; size = 4
??$_Allocate@D@std@@YAPADIPAD@Z PROC			; std::_Allocate<char>, COMDAT

; 22   : 	{	// allocate storage for _Count elements of type _Ty

	push	ebp
	mov	ebp, esp
	push	ecx

; 23   : 	void *_Ptr = 0;

	mov	DWORD PTR __Ptr$[ebp], 0

; 24   : 
; 25   : 	if (_Count == 0)

	cmp	DWORD PTR __Count$[ebp], 0
	jne	SHORT $LN4@Allocate

; 26   : 		;
; 27   : 	else if (((size_t)(-1) / sizeof (_Ty) < _Count)

	jmp	SHORT $LN3@Allocate
$LN4@Allocate:

; 28   : 		|| (_Ptr = ::operator new(_Count * sizeof (_Ty))) == 0)

	cmp	DWORD PTR __Count$[ebp], -1
	ja	SHORT $LN1@Allocate
	mov	eax, DWORD PTR __Count$[ebp]
	push	eax
	call	??2@YAPAXI@Z				; operator new
	add	esp, 4
	mov	DWORD PTR __Ptr$[ebp], eax
	cmp	DWORD PTR __Ptr$[ebp], 0
	jne	SHORT $LN3@Allocate
$LN1@Allocate:

; 29   : 		_Xbad_alloc();	// report no memory

	call	?_Xbad_alloc@std@@YAXXZ			; std::_Xbad_alloc
$LN3@Allocate:

; 30   : 
; 31   : 	return ((_Ty *)_Ptr);

	mov	eax, DWORD PTR __Ptr$[ebp]
$LN6@Allocate:

; 32   : 	}

	mov	esp, ebp
	pop	ebp
	ret	0
??$_Allocate@D@std@@YAPADIPAD@Z ENDP			; std::_Allocate<char>
_TEXT	ENDS
; Function compile flags: /Odtp
; File c:\program files (x86)\microsoft visual studio 11.0\vc\include\xstddef
;	COMDAT ??$addressof@D@std@@YAPADAAD@Z
_TEXT	SEGMENT
__Val$ = 8						; size = 4
??$addressof@D@std@@YAPADAAD@Z PROC			; std::addressof<char>, COMDAT

; 85   : 	{	// return address of _Val

	push	ebp
	mov	ebp, esp

; 86   : 	return (reinterpret_cast<_Ty *>(
; 87   : 		(&const_cast<char&>(
; 88   : 		reinterpret_cast<const volatile char&>(_Val)))));

	mov	eax, DWORD PTR __Val$[ebp]

; 89   : 	}

	pop	ebp
	ret	0
??$addressof@D@std@@YAPADAAD@Z ENDP			; std::addressof<char>
_TEXT	ENDS
; Function compile flags: /Odtp
; File c:\program files (x86)\microsoft visual studio 11.0\vc\include\xmemory0
;	COMDAT ??$destroy@PAD@?$_Wrap_alloc@V?$allocator@D@std@@@std@@QAEXPAPAD@Z
_TEXT	SEGMENT
_this$ = -4						; size = 4
__Ptr$ = 8						; size = 4
??$destroy@PAD@?$_Wrap_alloc@V?$allocator@D@std@@@std@@QAEXPAPAD@Z PROC ; std::_Wrap_alloc<std::allocator<char> >::destroy<char *>, COMDAT
; _this$ = ecx

; 907  : 		void destroy(_Ty *_Ptr)

	push	ebp
	mov	ebp, esp
	push	ecx
	mov	DWORD PTR _this$[ebp], ecx

; 908  : 		{	// destroy object at _Ptr
; 909  : 		_Mytraits::destroy(*this, _Ptr);

	mov	eax, DWORD PTR __Ptr$[ebp]
	push	eax
	mov	ecx, DWORD PTR _this$[ebp]
	push	ecx
	call	??$destroy@PAD@?$allocator_traits@V?$allocator@D@std@@@std@@SAXAAV?$allocator@D@1@PAPAD@Z ; std::allocator_traits<std::allocator<char> >::destroy<char *>
	add	esp, 8

; 910  : 		}

	mov	esp, ebp
	pop	ebp
	ret	4
??$destroy@PAD@?$_Wrap_alloc@V?$allocator@D@std@@@std@@QAEXPAPAD@Z ENDP ; std::_Wrap_alloc<std::allocator<char> >::destroy<char *>
_TEXT	ENDS
; Function compile flags: /Odtp
; File c:\program files (x86)\microsoft visual studio 11.0\vc\include\xmemory0
;	COMDAT ??$construct@PADAAPAD@?$_Wrap_alloc@V?$allocator@D@std@@@std@@QAEXPAPADAAPAD@Z
_TEXT	SEGMENT
_this$ = -4						; size = 4
__Ptr$ = 8						; size = 4
__V0$ = 12						; size = 4
??$construct@PADAAPAD@?$_Wrap_alloc@V?$allocator@D@std@@@std@@QAEXPAPADAAPAD@Z PROC ; std::_Wrap_alloc<std::allocator<char> >::construct<char *,char * &>, COMDAT
; _this$ = ecx

; 903  : _VARIADIC_EXPAND_0X(_WRAP_ALLOC_CONSTRUCT, , , , )

	push	ebp
	mov	ebp, esp
	push	ecx
	mov	DWORD PTR _this$[ebp], ecx
	mov	eax, DWORD PTR __V0$[ebp]
	push	eax
	call	??$forward@AAPAD@std@@YAAAPADAAPAD@Z	; std::forward<char * &>
	add	esp, 4
	push	eax
	mov	ecx, DWORD PTR __Ptr$[ebp]
	push	ecx
	mov	edx, DWORD PTR _this$[ebp]
	push	edx
	call	??$construct@PADAAPAD@?$allocator_traits@V?$allocator@D@std@@@std@@SAXAAV?$allocator@D@1@PAPADAAPAD@Z ; std::allocator_traits<std::allocator<char> >::construct<char *,char * &>
	add	esp, 12					; 0000000cH
	mov	esp, ebp
	pop	ebp
	ret	8
??$construct@PADAAPAD@?$_Wrap_alloc@V?$allocator@D@std@@@std@@QAEXPAPADAAPAD@Z ENDP ; std::_Wrap_alloc<std::allocator<char> >::construct<char *,char * &>
_TEXT	ENDS
; Function compile flags: /Odtp
; File c:\users\zhitao li\documents\visual studio 2012\projects\freefalcon\falclib\include\playerop.h
;	COMDAT ?GetRefuelingMode@PlayerOptionsClass@@QAEHXZ
_TEXT	SEGMENT
_this$ = -4						; size = 4
?GetRefuelingMode@PlayerOptionsClass@@QAEHXZ PROC	; PlayerOptionsClass::GetRefuelingMode, COMDAT
; _this$ = ecx

; 144  : 	int GetRefuelingMode (void)								{ return SimAirRefuelingMode; };

	push	ebp
	mov	ebp, esp
	push	ecx
	mov	DWORD PTR _this$[ebp], ecx
	mov	eax, DWORD PTR _this$[ebp]
	mov	eax, DWORD PTR [eax+72]
	mov	esp, ebp
	pop	ebp
	ret	0
?GetRefuelingMode@PlayerOptionsClass@@QAEHXZ ENDP	; PlayerOptionsClass::GetRefuelingMode
_TEXT	ENDS
; Function compile flags: /Odtp
; File c:\users\zhitao li\documents\visual studio 2012\projects\freefalcon\sim\include\airframe.h
;	COMDAT ?GetTankerShortLeg@AirframeClass@@QAEMXZ
_TEXT	SEGMENT
_this$ = -4						; size = 4
?GetTankerShortLeg@AirframeClass@@QAEMXZ PROC		; AirframeClass::GetTankerShortLeg, COMDAT
; _this$ = ecx

; 1252 : 	float GetTankerShortLeg(void) {return auxaeroData->shortLeg; }

	push	ebp
	mov	ebp, esp
	push	ecx
	mov	DWORD PTR _this$[ebp], ecx
	mov	eax, DWORD PTR _this$[ebp]
	mov	ecx, DWORD PTR [eax+4]
	fld	DWORD PTR [ecx+2552]
	mov	esp, ebp
	pop	ebp
	ret	0
?GetTankerShortLeg@AirframeClass@@QAEMXZ ENDP		; AirframeClass::GetTankerShortLeg
_TEXT	ENDS
; Function compile flags: /Odtp
; File c:\users\zhitao li\documents\visual studio 2012\projects\freefalcon\sim\include\airframe.h
;	COMDAT ?GetTankerLongLeg@AirframeClass@@QAEMXZ
_TEXT	SEGMENT
_this$ = -4						; size = 4
?GetTankerLongLeg@AirframeClass@@QAEMXZ PROC		; AirframeClass::GetTankerLongLeg, COMDAT
; _this$ = ecx

; 1251 : 	float GetTankerLongLeg(void) {return auxaeroData->longLeg; }

	push	ebp
	mov	ebp, esp
	push	ecx
	mov	DWORD PTR _this$[ebp], ecx
	mov	eax, DWORD PTR _this$[ebp]
	mov	ecx, DWORD PTR [eax+4]
	fld	DWORD PTR [ecx+2548]
	mov	esp, ebp
	pop	ebp
	ret	0
?GetTankerLongLeg@AirframeClass@@QAEMXZ ENDP		; AirframeClass::GetTankerLongLeg
_TEXT	ENDS
; Function compile flags: /Odtp
; File c:\users\zhitao li\documents\visual studio 2012\projects\freefalcon\sim\include\airframe.h
;	COMDAT ?GetRefuelAltitude@AirframeClass@@QAEMXZ
_TEXT	SEGMENT
_this$ = -4						; size = 4
?GetRefuelAltitude@AirframeClass@@QAEMXZ PROC		; AirframeClass::GetRefuelAltitude, COMDAT
; _this$ = ecx

; 1243 : 	float GetRefuelAltitude(void) {return auxaeroData->refuelAltitude; }

	push	ebp
	mov	ebp, esp
	push	ecx
	mov	DWORD PTR _this$[ebp], ecx
	mov	eax, DWORD PTR _this$[ebp]
	mov	ecx, DWORD PTR [eax+4]
	fld	DWORD PTR [ecx+2524]
	mov	esp, ebp
	pop	ebp
	ret	0
?GetRefuelAltitude@AirframeClass@@QAEMXZ ENDP		; AirframeClass::GetRefuelAltitude
_TEXT	ENDS
; Function compile flags: /Odtp
; File c:\users\zhitao li\documents\visual studio 2012\projects\freefalcon\sim\include\airframe.h
;	COMDAT ?GetRefuelSpeed@AirframeClass@@QAEMXZ
_TEXT	SEGMENT
_this$ = -4						; size = 4
?GetRefuelSpeed@AirframeClass@@QAEMXZ PROC		; AirframeClass::GetRefuelSpeed, COMDAT
; _this$ = ecx

; 1242 : 	float GetRefuelSpeed(void) {return auxaeroData->refuelSpeed; }

	push	ebp
	mov	ebp, esp
	push	ecx
	mov	DWORD PTR _this$[ebp], ecx
	mov	eax, DWORD PTR _this$[ebp]
	mov	ecx, DWORD PTR [eax+4]
	fld	DWORD PTR [ecx+2520]
	mov	esp, ebp
	pop	ebp
	ret	0
?GetRefuelSpeed@AirframeClass@@QAEMXZ ENDP		; AirframeClass::GetRefuelSpeed
_TEXT	ENDS
; Function compile flags: /Odtp
; File c:\users\zhitao li\documents\visual studio 2012\projects\freefalcon\sim\include\airframe.h
;	COMDAT ?ClearFlag@AirframeClass@@QAEXH@Z
_TEXT	SEGMENT
_this$ = -4						; size = 4
_newFlag$ = 8						; size = 4
?ClearFlag@AirframeClass@@QAEXH@Z PROC			; AirframeClass::ClearFlag, COMDAT
; _this$ = ecx

; 1215 : 	void ClearFlag (int newFlag) {flags &= ~newFlag;};

	push	ebp
	mov	ebp, esp
	push	ecx
	mov	DWORD PTR _this$[ebp], ecx
	mov	eax, DWORD PTR _newFlag$[ebp]
	not	eax
	mov	ecx, DWORD PTR _this$[ebp]
	and	eax, DWORD PTR [ecx+88]
	mov	edx, DWORD PTR _this$[ebp]
	mov	DWORD PTR [edx+88], eax
	mov	esp, ebp
	pop	ebp
	ret	4
?ClearFlag@AirframeClass@@QAEXH@Z ENDP			; AirframeClass::ClearFlag
_TEXT	ENDS
; Function compile flags: /Odtp
; File c:\users\zhitao li\documents\visual studio 2012\projects\freefalcon\sim\include\airframe.h
;	COMDAT ?GetDrogueExt@AirframeClass@@QAEMXZ
_TEXT	SEGMENT
_this$ = -4						; size = 4
?GetDrogueExt@AirframeClass@@QAEMXZ PROC		; AirframeClass::GetDrogueExt, COMDAT
; _this$ = ecx

; 730  : 	float GetDrogueExt() { return auxaeroData->DrogueExt; }; // 29NOV03 - FRB

	push	ebp
	mov	ebp, esp
	push	ecx
	mov	DWORD PTR _this$[ebp], ecx
	mov	eax, DWORD PTR _this$[ebp]
	mov	ecx, DWORD PTR [eax+4]
	fld	DWORD PTR [ecx+2592]
	mov	esp, ebp
	pop	ebp
	ret	0
?GetDrogueExt@AirframeClass@@QAEMXZ ENDP		; AirframeClass::GetDrogueExt
_TEXT	ENDS
; Function compile flags: /Odtp
; File c:\users\zhitao li\documents\visual studio 2012\projects\freefalcon\sim\include\airframe.h
;	COMDAT ?GetActiveDrogue@AirframeClass@@QAEHXZ
_TEXT	SEGMENT
_this$ = -4						; size = 4
?GetActiveDrogue@AirframeClass@@QAEHXZ PROC		; AirframeClass::GetActiveDrogue, COMDAT
; _this$ = ecx

; 729  : 	int GetActiveDrogue() { return auxaeroData->activeDrogue; }; // 26NOV03 - FRB

	push	ebp
	mov	ebp, esp
	push	ecx
	mov	DWORD PTR _this$[ebp], ecx
	mov	eax, DWORD PTR _this$[ebp]
	mov	ecx, DWORD PTR [eax+4]
	mov	eax, DWORD PTR [ecx+2588]
	mov	esp, ebp
	pop	ebp
	ret	0
?GetActiveDrogue@AirframeClass@@QAEHXZ ENDP		; AirframeClass::GetActiveDrogue
_TEXT	ENDS
; Function compile flags: /Odtp
; File c:\users\zhitao li\documents\visual studio 2012\projects\freefalcon\sim\include\airframe.h
;	COMDAT ?GetnDrogues@AirframeClass@@QAEHXZ
_TEXT	SEGMENT
_this$ = -4						; size = 4
?GetnDrogues@AirframeClass@@QAEHXZ PROC			; AirframeClass::GetnDrogues, COMDAT
; _this$ = ecx

; 728  : 	int GetnDrogues() { return auxaeroData->numDrogues; }; // 18NOV03 - FRB

	push	ebp
	mov	ebp, esp
	push	ecx
	mov	DWORD PTR _this$[ebp], ecx
	mov	eax, DWORD PTR _this$[ebp]
	mov	ecx, DWORD PTR [eax+4]
	mov	eax, DWORD PTR [ecx+2584]
	mov	esp, ebp
	pop	ebp
	ret	0
?GetnDrogues@AirframeClass@@QAEHXZ ENDP			; AirframeClass::GetnDrogues
_TEXT	ENDS
; Function compile flags: /Odtp
; File c:\users\zhitao li\documents\visual studio 2012\projects\freefalcon\sim\include\airframe.h
;	COMDAT ?GetnBooms@AirframeClass@@QAEHXZ
_TEXT	SEGMENT
_this$ = -4						; size = 4
?GetnBooms@AirframeClass@@QAEHXZ PROC			; AirframeClass::GetnBooms, COMDAT
; _this$ = ecx

; 727  : 	int GetnBooms() { return auxaeroData->numBooms; }; // 18NOV03 - FRB

	push	ebp
	mov	ebp, esp
	push	ecx
	mov	DWORD PTR _this$[ebp], ecx
	mov	eax, DWORD PTR _this$[ebp]
	mov	ecx, DWORD PTR [eax+4]
	mov	eax, DWORD PTR [ecx+2580]
	mov	esp, ebp
	pop	ebp
	ret	0
?GetnBooms@AirframeClass@@QAEHXZ ENDP			; AirframeClass::GetnBooms
_TEXT	ENDS
; Function compile flags: /Odtp
; File c:\users\zhitao li\documents\visual studio 2012\projects\freefalcon\sim\include\airframe.h
;	COMDAT ?GetBoomStoredAngle@AirframeClass@@QAEMXZ
_TEXT	SEGMENT
_this$ = -4						; size = 4
?GetBoomStoredAngle@AirframeClass@@QAEMXZ PROC		; AirframeClass::GetBoomStoredAngle, COMDAT
; _this$ = ecx

; 726  : 	float GetBoomStoredAngle() { return auxaeroData->BoomStoredAngle; }; // 18NOV03 - FRB

	push	ebp
	mov	ebp, esp
	push	ecx
	mov	DWORD PTR _this$[ebp], ecx
	mov	eax, DWORD PTR _this$[ebp]
	mov	ecx, DWORD PTR [eax+4]
	fld	DWORD PTR [ecx+2596]
	mov	esp, ebp
	pop	ebp
	ret	0
?GetBoomStoredAngle@AirframeClass@@QAEMXZ ENDP		; AirframeClass::GetBoomStoredAngle
_TEXT	ENDS
; Function compile flags: /Odtp
; File c:\users\zhitao li\documents\visual studio 2012\projects\freefalcon\sim\include\airframe.h
;	COMDAT ?GetBoomRFPos@AirframeClass@@QAEXPAUTpoint@@@Z
_TEXT	SEGMENT
_this$ = -4						; size = 4
_pos$ = 8						; size = 4
?GetBoomRFPos@AirframeClass@@QAEXPAUTpoint@@@Z PROC	; AirframeClass::GetBoomRFPos, COMDAT
; _this$ = ecx

; 725  : 	void GetBoomRFPos(Tpoint *pos) { *pos = auxaeroData->BoomRFPos; }; // 12DEC03 - FRB

	push	ebp
	mov	ebp, esp
	push	ecx
	mov	DWORD PTR _this$[ebp], ecx
	mov	eax, DWORD PTR _this$[ebp]
	mov	ecx, DWORD PTR [eax+4]
	add	ecx, 2612				; 00000a34H
	mov	edx, DWORD PTR _pos$[ebp]
	mov	eax, DWORD PTR [ecx]
	mov	DWORD PTR [edx], eax
	mov	eax, DWORD PTR [ecx+4]
	mov	DWORD PTR [edx+4], eax
	mov	ecx, DWORD PTR [ecx+8]
	mov	DWORD PTR [edx+8], ecx
	mov	esp, ebp
	pop	ebp
	ret	4
?GetBoomRFPos@AirframeClass@@QAEXPAUTpoint@@@Z ENDP	; AirframeClass::GetBoomRFPos
_TEXT	ENDS
; Function compile flags: /Odtp
; File c:\users\zhitao li\documents\visual studio 2012\projects\freefalcon\sim\include\airframe.h
;	COMDAT ?GetDrogueRFPos@AirframeClass@@QAEXPAUTpoint@@@Z
_TEXT	SEGMENT
_this$ = -4						; size = 4
_pos$ = 8						; size = 4
?GetDrogueRFPos@AirframeClass@@QAEXPAUTpoint@@@Z PROC	; AirframeClass::GetDrogueRFPos, COMDAT
; _this$ = ecx

; 724  : 	void GetDrogueRFPos(Tpoint *pos) { *pos = auxaeroData->DrogueRFPos; }; // 12DEC03 - FRB

	push	ebp
	mov	ebp, esp
	push	ecx
	mov	DWORD PTR _this$[ebp], ecx
	mov	eax, DWORD PTR _this$[ebp]
	mov	ecx, DWORD PTR [eax+4]
	add	ecx, 2600				; 00000a28H
	mov	edx, DWORD PTR _pos$[ebp]
	mov	eax, DWORD PTR [ecx]
	mov	DWORD PTR [edx], eax
	mov	eax, DWORD PTR [ecx+4]
	mov	DWORD PTR [edx+4], eax
	mov	ecx, DWORD PTR [ecx+8]
	mov	DWORD PTR [edx+8], ecx
	mov	esp, ebp
	pop	ebp
	ret	4
?GetDrogueRFPos@AirframeClass@@QAEXPAUTpoint@@@Z ENDP	; AirframeClass::GetDrogueRFPos
_TEXT	ENDS
; Function compile flags: /Odtp
; File c:\users\zhitao li\documents\visual studio 2012\projects\freefalcon\sim\include\airframe.h
;	COMDAT ?GetRefuelPosition@AirframeClass@@QAEXPAUTpoint@@@Z
_TEXT	SEGMENT
_this$ = -4						; size = 4
_pos$ = 8						; size = 4
?GetRefuelPosition@AirframeClass@@QAEXPAUTpoint@@@Z PROC ; AirframeClass::GetRefuelPosition, COMDAT
; _this$ = ecx

; 711  : 	void GetRefuelPosition(Tpoint *pos) { *pos = auxaeroData->refuelLocation; };

	push	ebp
	mov	ebp, esp
	push	ecx
	mov	DWORD PTR _this$[ebp], ecx
	mov	eax, DWORD PTR _this$[ebp]
	mov	ecx, DWORD PTR [eax+4]
	add	ecx, 456				; 000001c8H
	mov	edx, DWORD PTR _pos$[ebp]
	mov	eax, DWORD PTR [ecx]
	mov	DWORD PTR [edx], eax
	mov	eax, DWORD PTR [ecx+4]
	mov	DWORD PTR [edx+4], eax
	mov	ecx, DWORD PTR [ecx+8]
	mov	DWORD PTR [edx+8], ecx
	mov	esp, ebp
	pop	ebp
	ret	4
?GetRefuelPosition@AirframeClass@@QAEXPAUTpoint@@@Z ENDP ; AirframeClass::GetRefuelPosition
_TEXT	ENDS
; Function compile flags: /Odtp
; File c:\users\zhitao li\documents\visual studio 2012\projects\freefalcon\sim\include\simdrive.h
;	COMDAT ?GetPlayerEntity@SimulationDriver@@QBEPAVSimMoverClass@@XZ
_TEXT	SEGMENT
_this$ = -4						; size = 4
?GetPlayerEntity@SimulationDriver@@QBEPAVSimMoverClass@@XZ PROC ; SimulationDriver::GetPlayerEntity, COMDAT
; _this$ = ecx

; 76   : 	SimMoverClass *GetPlayerEntity() const { return const_cast<SimMoverClass*>(playerEntity); }

	push	ebp
	mov	ebp, esp
	push	ecx
	mov	DWORD PTR _this$[ebp], ecx
	mov	eax, DWORD PTR _this$[ebp]
	mov	eax, DWORD PTR [eax+56]
	mov	esp, ebp
	pop	ebp
	ret	0
?GetPlayerEntity@SimulationDriver@@QBEPAVSimMoverClass@@XZ ENDP ; SimulationDriver::GetPlayerEntity
_TEXT	ENDS
; Function compile flags: /Odtp
; File c:\users\zhitao li\documents\visual studio 2012\projects\freefalcon\falclib\include\falcsess.h
;	COMDAT ?GetGame@FalconSessionEntity@@QAEPAVFalconGameEntity@@XZ
_TEXT	SEGMENT
_this$ = -4						; size = 4
?GetGame@FalconSessionEntity@@QAEPAVFalconGameEntity@@XZ PROC ; FalconSessionEntity::GetGame, COMDAT
; _this$ = ecx

; 154  : 	FalconGameEntity* GetGame (void)              { return (FalconGameEntity*)VuSessionEntity::Game(); }

	push	ebp
	mov	ebp, esp
	push	ecx
	mov	DWORD PTR _this$[ebp], ecx
	mov	ecx, DWORD PTR _this$[ebp]
	call	?Game@VuSessionEntity@@QAEPAVVuGameEntity@@XZ ; VuSessionEntity::Game
	mov	esp, ebp
	pop	ebp
	ret	0
?GetGame@FalconSessionEntity@@QAEPAVFalconGameEntity@@XZ ENDP ; FalconSessionEntity::GetGame
_TEXT	ENDS
; Function compile flags: /Odtp
; File c:\users\zhitao li\documents\visual studio 2012\projects\freefalcon\campaign\include\unit.h
;	COMDAT ?GetFirstUnitWP@UnitClass@@QAEPAVWayPointClass@@XZ
_TEXT	SEGMENT
_this$ = -4						; size = 4
?GetFirstUnitWP@UnitClass@@QAEPAVWayPointClass@@XZ PROC	; UnitClass::GetFirstUnitWP, COMDAT
; _this$ = ecx

; 431  : 	WayPoint GetFirstUnitWP()				{ return wp_list; }

	push	ebp
	mov	ebp, esp
	push	ecx
	mov	DWORD PTR _this$[ebp], ecx
	mov	eax, DWORD PTR _this$[ebp]
	mov	eax, DWORD PTR [eax+244]
	mov	esp, ebp
	pop	ebp
	ret	0
?GetFirstUnitWP@UnitClass@@QAEPAVWayPointClass@@XZ ENDP	; UnitClass::GetFirstUnitWP
_TEXT	ENDS
; Function compile flags: /Odtp
; File c:\users\zhitao li\documents\visual studio 2012\projects\freefalcon\sim\include\simbase.h
;	COMDAT ?GetCampaignObject@SimBaseClass@@QAEPAVCampBaseClass@@XZ
_TEXT	SEGMENT
_this$ = -4						; size = 4
?GetCampaignObject@SimBaseClass@@QAEPAVCampBaseClass@@XZ PROC ; SimBaseClass::GetCampaignObject, COMDAT
; _this$ = ecx

; 212  : 	CampBaseClass *GetCampaignObject (void) { return campaignObject.get(); }

	push	ebp
	mov	ebp, esp
	push	ecx
	mov	DWORD PTR _this$[ebp], ecx
	mov	ecx, DWORD PTR _this$[ebp]
	add	ecx, 144				; 00000090H
	call	?get@?$VuBin@VCampBaseClass@@@@QBEPAVCampBaseClass@@XZ ; VuBin<CampBaseClass>::get
	mov	esp, ebp
	pop	ebp
	ret	0
?GetCampaignObject@SimBaseClass@@QAEPAVCampBaseClass@@XZ ENDP ; SimBaseClass::GetCampaignObject
_TEXT	ENDS
; Function compile flags: /Odtp
; File c:\users\zhitao li\documents\visual studio 2012\projects\freefalcon\vu2\include\vu_templates.h
;	COMDAT ?get@?$VuBin@VCampBaseClass@@@@QBEPAVCampBaseClass@@XZ
_TEXT	SEGMENT
_this$ = -4						; size = 4
?get@?$VuBin@VCampBaseClass@@@@QBEPAVCampBaseClass@@XZ PROC ; VuBin<CampBaseClass>::get, COMDAT
; _this$ = ecx

; 55   : 	E *get() const{

	push	ebp
	mov	ebp, esp
	push	ecx
	mov	DWORD PTR _this$[ebp], ecx

; 56   : 		return e;

	mov	eax, DWORD PTR _this$[ebp]
	mov	eax, DWORD PTR [eax]

; 57   : 	}

	mov	esp, ebp
	pop	ebp
	ret	0
?get@?$VuBin@VCampBaseClass@@@@QBEPAVCampBaseClass@@XZ ENDP ; VuBin<CampBaseClass>::get
_TEXT	ENDS
; Function compile flags: /Odtp
;	COMDAT ??_GTankerBrain@@UAEPAXI@Z
_TEXT	SEGMENT
_this$ = -4						; size = 4
___flags$ = 8						; size = 4
??_GTankerBrain@@UAEPAXI@Z PROC				; TankerBrain::`scalar deleting destructor', COMDAT
; _this$ = ecx
	push	ebp
	mov	ebp, esp
	push	ecx
	mov	DWORD PTR _this$[ebp], ecx
	mov	ecx, DWORD PTR _this$[ebp]
	call	??1TankerBrain@@UAE@XZ			; TankerBrain::~TankerBrain
	mov	eax, DWORD PTR ___flags$[ebp]
	and	eax, 1
	je	SHORT $LN1@scalar
	mov	ecx, DWORD PTR _this$[ebp]
	push	ecx
	call	??3@YAXPAX@Z				; operator delete
	add	esp, 4
$LN1@scalar:
	mov	eax, DWORD PTR _this$[ebp]
	mov	esp, ebp
	pop	ebp
	ret	4
??_GTankerBrain@@UAEPAXI@Z ENDP				; TankerBrain::`scalar deleting destructor'
_TEXT	ENDS
; Function compile flags: /Odtp
; File c:\users\zhitao li\documents\visual studio 2012\projects\freefalcon\sim\digi\tankbrn.cpp
_TEXT	SEGMENT
tv324 = -72						; size = 4
$T1 = -68						; size = 4
tv279 = -64						; size = 4
$T2 = -60						; size = 4
tv235 = -56						; size = 4
$T3 = -52						; size = 4
tv194 = -48						; size = 4
$T4 = -44						; size = 4
tv144 = -40						; size = 4
$T5 = -36						; size = 4
tv65 = -32						; size = 4
$T6 = -28						; size = 4
$T7 = -24						; size = 4
$T8 = -20						; size = 4
$T9 = -16						; size = 4
$T10 = -12						; size = 4
_i$ = -8						; size = 4
_this$ = -4						; size = 4
?CleanupBoom@TankerBrain@@UAEXXZ PROC			; TankerBrain::CleanupBoom
; _this$ = ecx

; 125  : {

	push	ebp
	mov	ebp, esp
	sub	esp, 72					; 00000048H
	mov	DWORD PTR _this$[ebp], ecx

; 126  : 	int i;
; 127  : 
; 128  : 	switch(type)	// 29NOV03 - FRB - reworked to cleanup the drogues on boom tankers

	mov	eax, DWORD PTR _this$[ebp]
	mov	ecx, DWORD PTR [eax+1188]
	mov	DWORD PTR tv65[ebp], ecx
	cmp	DWORD PTR tv65[ebp], 2
	je	SHORT $LN15@CleanupBoo
	cmp	DWORD PTR tv65[ebp], 3
	je	$LN9@CleanupBoo
	jmp	$LN18@CleanupBoo
$LN15@CleanupBoo:

; 129  : 	{
; 130  : 		case TNKR_KCBOOM:
; 131  : 			if(boom[BOOM].drawPointer)

	mov	edx, DWORD PTR _this$[ebp]
	mov	eax, DWORD PTR [edx+1024]
	imul	eax, 28					; 0000001cH
	mov	ecx, DWORD PTR _this$[ebp]
	cmp	DWORD PTR [ecx+eax+1060], 0
	je	$LN14@CleanupBoo

; 132  : 			{
; 133  : 				((DrawableBSP*)self->drawPointer)->DetachChild(boom[BOOM].drawPointer, 0);

	push	0
	mov	edx, DWORD PTR _this$[ebp]
	mov	eax, DWORD PTR [edx+1024]
	imul	eax, 28					; 0000001cH
	mov	ecx, DWORD PTR _this$[ebp]
	mov	edx, DWORD PTR [ecx+eax+1060]
	push	edx
	mov	eax, DWORD PTR _this$[ebp]
	mov	ecx, DWORD PTR [eax+56]
	mov	ecx, DWORD PTR [ecx+332]
	call	?DetachChild@DrawableBSP@@QAEXPAV1@H@Z	; DrawableBSP::DetachChild

; 134  : 				delete boom[BOOM].drawPointer;

	mov	edx, DWORD PTR _this$[ebp]
	mov	eax, DWORD PTR [edx+1024]
	imul	eax, 28					; 0000001cH
	mov	ecx, DWORD PTR _this$[ebp]
	mov	edx, DWORD PTR [ecx+eax+1060]
	mov	DWORD PTR $T5[ebp], edx
	mov	eax, DWORD PTR $T5[ebp]
	mov	DWORD PTR $T10[ebp], eax
	cmp	DWORD PTR $T10[ebp], 0
	je	SHORT $LN20@CleanupBoo
	push	1
	mov	ecx, DWORD PTR $T10[ebp]
	mov	edx, DWORD PTR [ecx]
	mov	ecx, DWORD PTR $T10[ebp]
	mov	eax, DWORD PTR [edx]
	call	eax
	mov	DWORD PTR tv144[ebp], eax
	jmp	SHORT $LN21@CleanupBoo
$LN20@CleanupBoo:
	mov	DWORD PTR tv144[ebp], 0
$LN21@CleanupBoo:

; 135  : 				boom[BOOM].drawPointer = NULL;

	mov	ecx, DWORD PTR _this$[ebp]
	mov	edx, DWORD PTR [ecx+1024]
	imul	edx, 28					; 0000001cH
	mov	eax, DWORD PTR _this$[ebp]
	mov	DWORD PTR [eax+edx+1060], 0

; 136  : 				for(i = 1; i <= numDrogues; i++)

	mov	DWORD PTR _i$[ebp], 1
	jmp	SHORT $LN13@CleanupBoo
$LN12@CleanupBoo:
	mov	ecx, DWORD PTR _i$[ebp]
	add	ecx, 1
	mov	DWORD PTR _i$[ebp], ecx
$LN13@CleanupBoo:
	mov	edx, DWORD PTR _this$[ebp]
	mov	eax, DWORD PTR _i$[ebp]
	cmp	eax, DWORD PTR [edx+988]
	jg	$LN14@CleanupBoo

; 137  : 				{
; 138  : 					if(boom[i].drawPointer)

	mov	ecx, DWORD PTR _i$[ebp]
	imul	ecx, 28					; 0000001cH
	mov	edx, DWORD PTR _this$[ebp]
	cmp	DWORD PTR [edx+ecx+1060], 0
	je	SHORT $LN10@CleanupBoo

; 139  : 					{
; 140  : 						((DrawableBSP*)self->drawPointer)->DetachChild(boom[i].drawPointer, i);

	mov	eax, DWORD PTR _i$[ebp]
	push	eax
	mov	ecx, DWORD PTR _i$[ebp]
	imul	ecx, 28					; 0000001cH
	mov	edx, DWORD PTR _this$[ebp]
	mov	eax, DWORD PTR [edx+ecx+1060]
	push	eax
	mov	ecx, DWORD PTR _this$[ebp]
	mov	edx, DWORD PTR [ecx+56]
	mov	ecx, DWORD PTR [edx+332]
	call	?DetachChild@DrawableBSP@@QAEXPAV1@H@Z	; DrawableBSP::DetachChild

; 141  : 						delete boom[i].drawPointer;

	mov	eax, DWORD PTR _i$[ebp]
	imul	eax, 28					; 0000001cH
	mov	ecx, DWORD PTR _this$[ebp]
	mov	edx, DWORD PTR [ecx+eax+1060]
	mov	DWORD PTR $T4[ebp], edx
	mov	eax, DWORD PTR $T4[ebp]
	mov	DWORD PTR $T9[ebp], eax
	cmp	DWORD PTR $T9[ebp], 0
	je	SHORT $LN22@CleanupBoo
	push	1
	mov	ecx, DWORD PTR $T9[ebp]
	mov	edx, DWORD PTR [ecx]
	mov	ecx, DWORD PTR $T9[ebp]
	mov	eax, DWORD PTR [edx]
	call	eax
	mov	DWORD PTR tv194[ebp], eax
	jmp	SHORT $LN23@CleanupBoo
$LN22@CleanupBoo:
	mov	DWORD PTR tv194[ebp], 0
$LN23@CleanupBoo:

; 142  : 						boom[i].drawPointer = NULL;

	mov	ecx, DWORD PTR _i$[ebp]
	imul	ecx, 28					; 0000001cH
	mov	edx, DWORD PTR _this$[ebp]
	mov	DWORD PTR [edx+ecx+1060], 0
$LN10@CleanupBoo:

; 143  : 					}
; 144  : 				}

	jmp	$LN12@CleanupBoo
$LN14@CleanupBoo:

; 145  : 			}
; 146  : 			break;

	jmp	$LN18@CleanupBoo
$LN9@CleanupBoo:

; 147  : 
; 148  : 		case TNKR_KCDROGUE:
; 149  : 			for(i = 1; i <= numDrogues; i++)

	mov	DWORD PTR _i$[ebp], 1
	jmp	SHORT $LN8@CleanupBoo
$LN7@CleanupBoo:
	mov	eax, DWORD PTR _i$[ebp]
	add	eax, 1
	mov	DWORD PTR _i$[ebp], eax
$LN8@CleanupBoo:
	mov	ecx, DWORD PTR _this$[ebp]
	mov	edx, DWORD PTR _i$[ebp]
	cmp	edx, DWORD PTR [ecx+988]
	jg	$LN18@CleanupBoo

; 150  : 			{
; 151  : 				if(rack[i])

	mov	eax, DWORD PTR _i$[ebp]
	mov	ecx, DWORD PTR _this$[ebp]
	cmp	DWORD PTR [ecx+eax*4+1028], 0
	je	$LN5@CleanupBoo

; 152  : 				{
; 153  : 					if(boom[i].drawPointer)

	mov	edx, DWORD PTR _i$[ebp]
	imul	edx, 28					; 0000001cH
	mov	eax, DWORD PTR _this$[ebp]
	cmp	DWORD PTR [eax+edx+1060], 0
	je	SHORT $LN4@CleanupBoo

; 154  : 					{
; 155  : 						rack[i]->DetachChild(boom[i].drawPointer, 0);

	push	0
	mov	ecx, DWORD PTR _i$[ebp]
	imul	ecx, 28					; 0000001cH
	mov	edx, DWORD PTR _this$[ebp]
	mov	eax, DWORD PTR [edx+ecx+1060]
	push	eax
	mov	ecx, DWORD PTR _i$[ebp]
	mov	edx, DWORD PTR _this$[ebp]
	mov	ecx, DWORD PTR [edx+ecx*4+1028]
	call	?DetachChild@DrawableBSP@@QAEXPAV1@H@Z	; DrawableBSP::DetachChild

; 156  : 						delete boom[i].drawPointer;

	mov	eax, DWORD PTR _i$[ebp]
	imul	eax, 28					; 0000001cH
	mov	ecx, DWORD PTR _this$[ebp]
	mov	edx, DWORD PTR [ecx+eax+1060]
	mov	DWORD PTR $T3[ebp], edx
	mov	eax, DWORD PTR $T3[ebp]
	mov	DWORD PTR $T8[ebp], eax
	cmp	DWORD PTR $T8[ebp], 0
	je	SHORT $LN24@CleanupBoo
	push	1
	mov	ecx, DWORD PTR $T8[ebp]
	mov	edx, DWORD PTR [ecx]
	mov	ecx, DWORD PTR $T8[ebp]
	mov	eax, DWORD PTR [edx]
	call	eax
	mov	DWORD PTR tv235[ebp], eax
	jmp	SHORT $LN25@CleanupBoo
$LN24@CleanupBoo:
	mov	DWORD PTR tv235[ebp], 0
$LN25@CleanupBoo:

; 157  : 						boom[i].drawPointer = NULL;

	mov	ecx, DWORD PTR _i$[ebp]
	imul	ecx, 28					; 0000001cH
	mov	edx, DWORD PTR _this$[ebp]
	mov	DWORD PTR [edx+ecx+1060], 0
$LN4@CleanupBoo:

; 158  : 					}
; 159  : 					if(boom[i].drawPointer)

	mov	eax, DWORD PTR _i$[ebp]
	imul	eax, 28					; 0000001cH
	mov	ecx, DWORD PTR _this$[ebp]
	cmp	DWORD PTR [ecx+eax+1060], 0
	je	SHORT $LN3@CleanupBoo

; 160  : 						((DrawableBSP*)self->drawPointer)->DetachChild(rack[i], i-1);

	mov	edx, DWORD PTR _i$[ebp]
	sub	edx, 1
	push	edx
	mov	eax, DWORD PTR _i$[ebp]
	mov	ecx, DWORD PTR _this$[ebp]
	mov	edx, DWORD PTR [ecx+eax*4+1028]
	push	edx
	mov	eax, DWORD PTR _this$[ebp]
	mov	ecx, DWORD PTR [eax+56]
	mov	ecx, DWORD PTR [ecx+332]
	call	?DetachChild@DrawableBSP@@QAEXPAV1@H@Z	; DrawableBSP::DetachChild
$LN3@CleanupBoo:

; 161  : 					delete rack[i];

	mov	edx, DWORD PTR _i$[ebp]
	mov	eax, DWORD PTR _this$[ebp]
	mov	ecx, DWORD PTR [eax+edx*4+1028]
	mov	DWORD PTR $T2[ebp], ecx
	mov	edx, DWORD PTR $T2[ebp]
	mov	DWORD PTR $T7[ebp], edx
	cmp	DWORD PTR $T7[ebp], 0
	je	SHORT $LN26@CleanupBoo
	push	1
	mov	eax, DWORD PTR $T7[ebp]
	mov	edx, DWORD PTR [eax]
	mov	ecx, DWORD PTR $T7[ebp]
	mov	eax, DWORD PTR [edx]
	call	eax
	mov	DWORD PTR tv279[ebp], eax
	jmp	SHORT $LN27@CleanupBoo
$LN26@CleanupBoo:
	mov	DWORD PTR tv279[ebp], 0
$LN27@CleanupBoo:

; 162  : 					rack[i] = NULL;

	mov	ecx, DWORD PTR _i$[ebp]
	mov	edx, DWORD PTR _this$[ebp]
	mov	DWORD PTR [edx+ecx*4+1028], 0

; 163  : 				}
; 164  : 				else

	jmp	$LN2@CleanupBoo
$LN5@CleanupBoo:

; 165  : 				{
; 166  : 					if(boom[i].drawPointer)

	mov	eax, DWORD PTR _i$[ebp]
	imul	eax, 28					; 0000001cH
	mov	ecx, DWORD PTR _this$[ebp]
	cmp	DWORD PTR [ecx+eax+1060], 0
	je	SHORT $LN2@CleanupBoo

; 167  : 					{
; 168  : 						((DrawableBSP*)self->drawPointer)->DetachChild(boom[i].drawPointer, i-1);

	mov	edx, DWORD PTR _i$[ebp]
	sub	edx, 1
	push	edx
	mov	eax, DWORD PTR _i$[ebp]
	imul	eax, 28					; 0000001cH
	mov	ecx, DWORD PTR _this$[ebp]
	mov	edx, DWORD PTR [ecx+eax+1060]
	push	edx
	mov	eax, DWORD PTR _this$[ebp]
	mov	ecx, DWORD PTR [eax+56]
	mov	ecx, DWORD PTR [ecx+332]
	call	?DetachChild@DrawableBSP@@QAEXPAV1@H@Z	; DrawableBSP::DetachChild

; 169  : 						delete boom[i].drawPointer;

	mov	edx, DWORD PTR _i$[ebp]
	imul	edx, 28					; 0000001cH
	mov	eax, DWORD PTR _this$[ebp]
	mov	ecx, DWORD PTR [eax+edx+1060]
	mov	DWORD PTR $T1[ebp], ecx
	mov	edx, DWORD PTR $T1[ebp]
	mov	DWORD PTR $T6[ebp], edx
	cmp	DWORD PTR $T6[ebp], 0
	je	SHORT $LN28@CleanupBoo
	push	1
	mov	eax, DWORD PTR $T6[ebp]
	mov	edx, DWORD PTR [eax]
	mov	ecx, DWORD PTR $T6[ebp]
	mov	eax, DWORD PTR [edx]
	call	eax
	mov	DWORD PTR tv324[ebp], eax
	jmp	SHORT $LN29@CleanupBoo
$LN28@CleanupBoo:
	mov	DWORD PTR tv324[ebp], 0
$LN29@CleanupBoo:

; 170  : 						boom[i].drawPointer = NULL;

	mov	ecx, DWORD PTR _i$[ebp]
	imul	ecx, 28					; 0000001cH
	mov	edx, DWORD PTR _this$[ebp]
	mov	DWORD PTR [edx+ecx+1060], 0
$LN2@CleanupBoo:

; 171  : 					}
; 172  : 				}
; 173  : 			}

	jmp	$LN7@CleanupBoo
$LN18@CleanupBoo:

; 174  : 			break;
; 175  : 	}
; 176  : }

	mov	esp, ebp
	pop	ebp
	ret	0
?CleanupBoom@TankerBrain@@UAEXXZ ENDP			; TankerBrain::CleanupBoom
_TEXT	ENDS
; Function compile flags: /Odtp
; File c:\users\zhitao li\documents\visual studio 2012\projects\freefalcon\sim\digi\tankbrn.cpp
_TEXT	SEGMENT
$T2 = -124						; size = 4
$T3 = -120						; size = 4
$T4 = -116						; size = 4
$T5 = -112						; size = 4
$T6 = -108						; size = 4
tv334 = -104						; size = 4
$T7 = -100						; size = 4
$T8 = -96						; size = 4
$T9 = -92						; size = 4
tv432 = -88						; size = 4
$T10 = -84						; size = 4
$T11 = -80						; size = 4
tv723 = -76						; size = 4
tv756 = -72						; size = 4
tv667 = -68						; size = 4
_drogueModel$ = -64					; size = 4
tv179 = -60						; size = 4
_i$12 = -56						; size = 4
_boomModel$ = -52					; size = 4
_i$13 = -48						; size = 4
_this$ = -44						; size = 4
_rackLoc$ = -40						; size = 12
_simLoc$ = -28						; size = 12
__$ArrayPad$ = -16					; size = 4
__$EHRec$ = -12						; size = 12
?InitBoom@TankerBrain@@UAEXXZ PROC			; TankerBrain::InitBoom
; _this$ = ecx

; 182  : {

	push	ebp
	mov	ebp, esp
	push	-1
	push	__ehhandler$?InitBoom@TankerBrain@@UAEXXZ
	mov	eax, DWORD PTR fs:0
	push	eax
	sub	esp, 112				; 00000070H
	mov	eax, DWORD PTR ___security_cookie
	xor	eax, ebp
	mov	DWORD PTR __$ArrayPad$[ebp], eax
	push	eax
	lea	eax, DWORD PTR __$EHRec$[ebp]
	mov	DWORD PTR fs:0, eax
	mov	DWORD PTR _this$[ebp], ecx

; 183  : 	unsigned long boomModel = 0;

	mov	DWORD PTR _boomModel$[ebp], 0

; 184  : 	unsigned long drogueModel = 0;

	mov	DWORD PTR _drogueModel$[ebp], 0

; 185  : 	Tpoint rackLoc;
; 186  : 	Tpoint simLoc;
; 187  : 
; 188  : 	// 26NOV03 - FRB - Variable values from <ac>.dat	file
; 189  : 
; 190  : 	self->af->GetDrogueRFPos(&DrogueRFPos);

	mov	eax, DWORD PTR _this$[ebp]
	add	eax, 996				; 000003e4H
	push	eax
	mov	ecx, DWORD PTR _this$[ebp]
	mov	edx, DWORD PTR [ecx+56]
	mov	ecx, DWORD PTR [edx+932]
	call	?GetDrogueRFPos@AirframeClass@@QAEXPAUTpoint@@@Z ; AirframeClass::GetDrogueRFPos

; 191  : 	self->af->GetBoomRFPos(&BoomRFPos);

	mov	eax, DWORD PTR _this$[ebp]
	add	eax, 1008				; 000003f0H
	push	eax
	mov	ecx, DWORD PTR _this$[ebp]
	mov	edx, DWORD PTR [ecx+56]
	mov	ecx, DWORD PTR [edx+932]
	call	?GetBoomRFPos@AirframeClass@@QAEXPAUTpoint@@@Z ; AirframeClass::GetBoomRFPos

; 192  : 	DrogueExt = self->af->GetDrogueExt();

	mov	eax, DWORD PTR _this$[ebp]
	mov	ecx, DWORD PTR [eax+56]
	mov	ecx, DWORD PTR [ecx+932]
	call	?GetDrogueExt@AirframeClass@@QAEMXZ	; AirframeClass::GetDrogueExt
	mov	edx, DWORD PTR _this$[ebp]
	fstp	DWORD PTR [edx+992]

; 193  : 
; 194  : 	numBooms = self->af->GetnBooms();

	mov	eax, DWORD PTR _this$[ebp]
	mov	ecx, DWORD PTR [eax+56]
	mov	ecx, DWORD PTR [ecx+932]
	call	?GetnBooms@AirframeClass@@QAEHXZ	; AirframeClass::GetnBooms
	mov	edx, DWORD PTR _this$[ebp]
	mov	DWORD PTR [edx+984], eax

; 195  : 	if (numBooms > 1)

	mov	eax, DWORD PTR _this$[ebp]
	cmp	DWORD PTR [eax+984], 1
	jle	SHORT $LN56@InitBoom

; 196  : 		numBooms = 1;

	mov	ecx, DWORD PTR _this$[ebp]
	mov	DWORD PTR [ecx+984], 1
$LN56@InitBoom:

; 197  : 	numDrogues = self->af->GetnDrogues();

	mov	edx, DWORD PTR _this$[ebp]
	mov	eax, DWORD PTR [edx+56]
	mov	ecx, DWORD PTR [eax+932]
	call	?GetnDrogues@AirframeClass@@QAEHXZ	; AirframeClass::GetnDrogues
	mov	ecx, DWORD PTR _this$[ebp]
	mov	DWORD PTR [ecx+988], eax

; 198  : 	if (numDrogues > 4)

	mov	edx, DWORD PTR _this$[ebp]
	cmp	DWORD PTR [edx+988], 4
	jle	SHORT $LN55@InitBoom

; 199  : 		numDrogues = 4;

	mov	eax, DWORD PTR _this$[ebp]
	mov	DWORD PTR [eax+988], 4
$LN55@InitBoom:

; 200  : 	DROGUE = self->af->GetActiveDrogue();

	mov	ecx, DWORD PTR _this$[ebp]
	mov	edx, DWORD PTR [ecx+56]
	mov	ecx, DWORD PTR [edx+932]
	call	?GetActiveDrogue@AirframeClass@@QAEHXZ	; AirframeClass::GetActiveDrogue
	mov	ecx, DWORD PTR _this$[ebp]
	mov	DWORD PTR [ecx+1020], eax

; 201  : 	if (!numBooms)

	mov	edx, DWORD PTR _this$[ebp]
	cmp	DWORD PTR [edx+984], 0
	jne	SHORT $LN54@InitBoom

; 202  : 		DROGUE ++; // move to correct boom[] index

	mov	eax, DWORD PTR _this$[ebp]
	mov	ecx, DWORD PTR [eax+1020]
	add	ecx, 1
	mov	edx, DWORD PTR _this$[ebp]
	mov	DWORD PTR [edx+1020], ecx
$LN54@InitBoom:

; 203  : 	BOOM = 0;

	mov	eax, DWORD PTR _this$[ebp]
	mov	DWORD PTR [eax+1024], 0

; 204  : 
; 205  : 	switch(((DrawableBSP*)self->drawPointer)->GetID())

	mov	ecx, DWORD PTR _this$[ebp]
	mov	edx, DWORD PTR [ecx+56]
	mov	ecx, DWORD PTR [edx+332]
	call	?GetID@DrawableBSP@@QAEHXZ		; DrawableBSP::GetID
	mov	DWORD PTR tv179[ebp], eax
	cmp	DWORD PTR tv179[ebp], 1218		; 000004c2H
	jg	SHORT $LN69@InitBoom
	cmp	DWORD PTR tv179[ebp], 1218		; 000004c2H
	je	$LN30@InitBoom
	cmp	DWORD PTR tv179[ebp], 887		; 00000377H
	je	$LN30@InitBoom
	cmp	DWORD PTR tv179[ebp], 905		; 00000389H
	jle	$LN1@InitBoom
	cmp	DWORD PTR tv179[ebp], 907		; 0000038bH
	jle	SHORT $LN51@InitBoom
	jmp	$LN1@InitBoom
$LN69@InitBoom:
	mov	eax, DWORD PTR tv179[ebp]
	sub	eax, 2200				; 00000898H
	mov	DWORD PTR tv179[ebp], eax
	cmp	DWORD PTR tv179[ebp], 9
	ja	$LN1@InitBoom
	mov	ecx, DWORD PTR tv179[ebp]
	movzx	edx, BYTE PTR $LN75@InitBoom[ecx]
	jmp	DWORD PTR $LN77@InitBoom[edx*4]

; 206  : 	{
; 207  : 		type = TNKR_KCBOOM;

	mov	eax, DWORD PTR _this$[ebp]
	mov	DWORD PTR [eax+1188], 2

; 208  : 		ServiceType = BOOM_SERVICE;

	mov	ecx, DWORD PTR _this$[ebp]
	mov	DWORD PTR [ecx+1196], 20		; 00000014H
$LN51@InitBoom:

; 209  : 
; 210  : 		case VIS_KC10:
; 211  : 		case VIS_KC135:
; 212  : 		case VIS_TNKR_BOOM1:	// 17NOV03 - FRB - Boom-equipped Parent #2200
; 213  : 		case VIS_TNKR_BOOM2:	// 17NOV03 - FRB - Boom-equipped Parent #2201
; 214  : 		case VIS_TNKR_BOOM3:	// 17NOV03 - FRB - Boom-equipped Parent #2202
; 215  : 		case VIS_TNKR_BOOM4:	// 17NOV03 - FRB - Boom-equipped Parent #2203
; 216  : 		case VIS_TNKR_BOOM5:	// 17NOV03 - FRB - Boom-equipped Parent #2204
; 217  : 		{
; 218  : 			if (((DrawableBSP*)self->drawPointer)->GetID() == VIS_KC10)

	mov	edx, DWORD PTR _this$[ebp]
	mov	eax, DWORD PTR [edx+56]
	mov	ecx, DWORD PTR [eax+332]
	call	?GetID@DrawableBSP@@QAEHXZ		; DrawableBSP::GetID
	cmp	eax, 907				; 0000038bH
	jne	SHORT $LN50@InitBoom

; 219  : 			{
; 220  : 				stype = TNKR_KC10;

	mov	ecx, DWORD PTR _this$[ebp]
	mov	DWORD PTR [ecx+1192], 0

; 221  : 				boomModel = VIS_KC10BOOM;

	mov	DWORD PTR _boomModel$[ebp], 1215	; 000004bfH

; 222  : 				drogueModel = 0;

	mov	DWORD PTR _drogueModel$[ebp], 0
	jmp	$LN37@InitBoom
$LN50@InitBoom:

; 223  : 			}
; 224  : 			else if (((DrawableBSP*)self->drawPointer)->GetID() == VIS_KC135)

	mov	edx, DWORD PTR _this$[ebp]
	mov	eax, DWORD PTR [edx+56]
	mov	ecx, DWORD PTR [eax+332]
	call	?GetID@DrawableBSP@@QAEHXZ		; DrawableBSP::GetID
	cmp	eax, 906				; 0000038aH
	jne	SHORT $LN48@InitBoom

; 225  : 			{
; 226  : 				stype = TNKR_KC135;

	mov	ecx, DWORD PTR _this$[ebp]
	mov	DWORD PTR [ecx+1192], 1

; 227  : 				boomModel = VIS_KC135BOOM;

	mov	DWORD PTR _boomModel$[ebp], 1221	; 000004c5H

; 228  : 				drogueModel = 0;

	mov	DWORD PTR _drogueModel$[ebp], 0
	jmp	$LN37@InitBoom
$LN48@InitBoom:

; 229  : 			}
; 230  : 			else if (((DrawableBSP*)self->drawPointer)->GetID() == VIS_TNKR_BOOM1)

	mov	edx, DWORD PTR _this$[ebp]
	mov	eax, DWORD PTR [edx+56]
	mov	ecx, DWORD PTR [eax+332]
	call	?GetID@DrawableBSP@@QAEHXZ		; DrawableBSP::GetID
	cmp	eax, 2200				; 00000898H
	jne	SHORT $LN46@InitBoom

; 231  : 			{ // KC-10 with boom and drogue
; 232  : 				stype = TNKR_KC10;

	mov	ecx, DWORD PTR _this$[ebp]
	mov	DWORD PTR [ecx+1192], 0

; 233  : 				boomModel = VIS_KCBOOM1;

	mov	DWORD PTR _boomModel$[ebp], 2210	; 000008a2H

; 234  : 				drogueModel = VIS_KCDROGUE1;

	mov	DWORD PTR _drogueModel$[ebp], 2220	; 000008acH
	jmp	$LN37@InitBoom
$LN46@InitBoom:

; 235  : 			}
; 236  : 			else if (((DrawableBSP*)self->drawPointer)->GetID() == VIS_TNKR_BOOM2)

	mov	edx, DWORD PTR _this$[ebp]
	mov	eax, DWORD PTR [edx+56]
	mov	ecx, DWORD PTR [eax+332]
	call	?GetID@DrawableBSP@@QAEHXZ		; DrawableBSP::GetID
	cmp	eax, 2201				; 00000899H
	jne	SHORT $LN44@InitBoom

; 237  : 			{ // KC-135 with boom and drogue
; 238  : 				stype = TNKR_KC135;

	mov	ecx, DWORD PTR _this$[ebp]
	mov	DWORD PTR [ecx+1192], 1

; 239  : 				boomModel = VIS_KCBOOM2;

	mov	DWORD PTR _boomModel$[ebp], 2211	; 000008a3H

; 240  : 				drogueModel = VIS_KCDROGUE2;

	mov	DWORD PTR _drogueModel$[ebp], 2221	; 000008adH
	jmp	$LN37@InitBoom
$LN44@InitBoom:

; 241  : 			}
; 242  : 			else if (((DrawableBSP*)self->drawPointer)->GetID() == VIS_TNKR_BOOM3)

	mov	edx, DWORD PTR _this$[ebp]
	mov	eax, DWORD PTR [edx+56]
	mov	ecx, DWORD PTR [eax+332]
	call	?GetID@DrawableBSP@@QAEHXZ		; DrawableBSP::GetID
	cmp	eax, 2202				; 0000089aH
	jne	SHORT $LN42@InitBoom

; 243  : 			{ 
; 244  : 				stype = TNKR_UNKNOWN;

	mov	ecx, DWORD PTR _this$[ebp]
	mov	DWORD PTR [ecx+1192], 6

; 245  : 				boomModel = VIS_KCBOOM3;

	mov	DWORD PTR _boomModel$[ebp], 2212	; 000008a4H

; 246  : 				drogueModel = VIS_KCDROGUE3;

	mov	DWORD PTR _drogueModel$[ebp], 2222	; 000008aeH
	jmp	$LN37@InitBoom
$LN42@InitBoom:

; 247  : 			}
; 248  : 			else if (((DrawableBSP*)self->drawPointer)->GetID() == VIS_TNKR_BOOM4)

	mov	edx, DWORD PTR _this$[ebp]
	mov	eax, DWORD PTR [edx+56]
	mov	ecx, DWORD PTR [eax+332]
	call	?GetID@DrawableBSP@@QAEHXZ		; DrawableBSP::GetID
	cmp	eax, 2203				; 0000089bH
	jne	SHORT $LN40@InitBoom

; 249  : 			{ 
; 250  : 				stype = TNKR_UNKNOWN;

	mov	ecx, DWORD PTR _this$[ebp]
	mov	DWORD PTR [ecx+1192], 6

; 251  : 				boomModel = VIS_KCBOOM4;

	mov	DWORD PTR _boomModel$[ebp], 2213	; 000008a5H

; 252  : 				drogueModel = VIS_KCDROGUE4;

	mov	DWORD PTR _drogueModel$[ebp], 2223	; 000008afH
	jmp	SHORT $LN37@InitBoom
$LN40@InitBoom:

; 253  : 			}
; 254  : 			else if (((DrawableBSP*)self->drawPointer)->GetID() == VIS_TNKR_BOOM5)

	mov	edx, DWORD PTR _this$[ebp]
	mov	eax, DWORD PTR [edx+56]
	mov	ecx, DWORD PTR [eax+332]
	call	?GetID@DrawableBSP@@QAEHXZ		; DrawableBSP::GetID
	cmp	eax, 2204				; 0000089cH
	jne	SHORT $LN38@InitBoom

; 255  : 			{ 
; 256  : 				stype = TNKR_UNKNOWN;

	mov	ecx, DWORD PTR _this$[ebp]
	mov	DWORD PTR [ecx+1192], 6

; 257  : 				boomModel = VIS_KCBOOM5;

	mov	DWORD PTR _boomModel$[ebp], 2214	; 000008a6H

; 258  : 				drogueModel = VIS_KCDROGUE5;

	mov	DWORD PTR _drogueModel$[ebp], 2224	; 000008b0H

; 259  : 			}
; 260  : 			else

	jmp	SHORT $LN37@InitBoom
$LN38@InitBoom:

; 261  : 			{
; 262  : 				stype = TNKR_KC135;

	mov	edx, DWORD PTR _this$[ebp]
	mov	DWORD PTR [edx+1192], 1

; 263  : 				boomModel = VIS_KC135BOOM;

	mov	DWORD PTR _boomModel$[ebp], 1221	; 000004c5H

; 264  : 				drogueModel = 0;

	mov	DWORD PTR _drogueModel$[ebp], 0
$LN37@InitBoom:

; 265  : 			}
; 266  : 
; 267  : 			if (!DrogueExt)

	mov	eax, DWORD PTR _this$[ebp]
	movss	xmm0, DWORD PTR [eax+992]
	ucomiss	xmm0, DWORD PTR __real@00000000
	lahf
	test	ah, 68					; 00000044H
	jp	SHORT $LN36@InitBoom

; 268  : 				DrogueExt = 70.0f;

	mov	ecx, DWORD PTR _this$[ebp]
	movss	xmm0, DWORD PTR __real@428c0000
	movss	DWORD PTR [ecx+992], xmm0
$LN36@InitBoom:

; 269  : 			if (!numBooms)

	mov	edx, DWORD PTR _this$[ebp]
	cmp	DWORD PTR [edx+984], 0
	jne	SHORT $LN35@InitBoom

; 270  : 				numBooms = 1;

	mov	eax, DWORD PTR _this$[ebp]
	mov	DWORD PTR [eax+984], 1
$LN35@InitBoom:

; 271  : 
; 272  : 			boom[BOOM].drawPointer = new DrawableBSP( MapVisId(boomModel), &simLoc, &IMatrix );

	push	172					; 000000acH
	call	??2@YAPAXI@Z				; operator new
	add	esp, 4
	mov	DWORD PTR $T10[ebp], eax
	mov	DWORD PTR __$EHRec$[ebp+8], 0
	cmp	DWORD PTR $T10[ebp], 0
	je	SHORT $LN59@InitBoom
	push	ecx
	movss	xmm0, DWORD PTR __real@3f800000
	movss	DWORD PTR [esp], xmm0
	push	OFFSET ?IMatrix@@3UTrotation@@B		; IMatrix
	lea	ecx, DWORD PTR _simLoc$[ebp]
	push	ecx
	mov	edx, DWORD PTR _boomModel$[ebp]
	push	edx
	call	?MapVisId@@YAKK@Z			; MapVisId
	add	esp, 4
	push	eax
	mov	ecx, DWORD PTR $T10[ebp]
	call	??0DrawableBSP@@QAE@HPBUTpoint@@PBUTrotation@@M@Z ; DrawableBSP::DrawableBSP
	mov	DWORD PTR tv334[ebp], eax
	jmp	SHORT $LN60@InitBoom
$LN59@InitBoom:
	mov	DWORD PTR tv334[ebp], 0
$LN60@InitBoom:
	mov	eax, DWORD PTR tv334[ebp]
	mov	DWORD PTR $T6[ebp], eax
	mov	DWORD PTR __$EHRec$[ebp+8], -1
	mov	ecx, DWORD PTR _this$[ebp]
	mov	edx, DWORD PTR [ecx+1024]
	imul	edx, 28					; 0000001cH
	mov	eax, DWORD PTR _this$[ebp]
	mov	ecx, DWORD PTR $T6[ebp]
	mov	DWORD PTR [eax+edx+1060], ecx

; 273  : 			((DrawableBSP*)self->drawPointer)->AttachChild(boom[BOOM].drawPointer, 0);

	push	0
	mov	edx, DWORD PTR _this$[ebp]
	mov	eax, DWORD PTR [edx+1024]
	imul	eax, 28					; 0000001cH
	mov	ecx, DWORD PTR _this$[ebp]
	mov	edx, DWORD PTR [ecx+eax+1060]
	push	edx
	mov	eax, DWORD PTR _this$[ebp]
	mov	ecx, DWORD PTR [eax+56]
	mov	ecx, DWORD PTR [ecx+332]
	call	?AttachChild@DrawableBSP@@QAEXPAV1@H@Z	; DrawableBSP::AttachChild

; 274  : 			((DrawableBSP*)self->drawPointer)->GetChildOffset(0, &simLoc);

	lea	edx, DWORD PTR _simLoc$[ebp]
	push	edx
	push	0
	mov	eax, DWORD PTR _this$[ebp]
	mov	ecx, DWORD PTR [eax+56]
	mov	ecx, DWORD PTR [ecx+332]
	call	?GetChildOffset@DrawableBSP@@QAEXHPAUTpoint@@@Z ; DrawableBSP::GetChildOffset

; 275  : 			boom[BOOM].rx = simLoc.x;

	mov	edx, DWORD PTR _this$[ebp]
	mov	eax, DWORD PTR [edx+1024]
	imul	eax, 28					; 0000001cH
	mov	ecx, DWORD PTR _this$[ebp]
	movss	xmm0, DWORD PTR _simLoc$[ebp]
	movss	DWORD PTR [ecx+eax+1048], xmm0

; 276  : 			boom[BOOM].ry = simLoc.y;

	mov	edx, DWORD PTR _this$[ebp]
	mov	eax, DWORD PTR [edx+1024]
	imul	eax, 28					; 0000001cH
	mov	ecx, DWORD PTR _this$[ebp]
	movss	xmm0, DWORD PTR _simLoc$[ebp+4]
	movss	DWORD PTR [ecx+eax+1052], xmm0

; 277  : 			boom[BOOM].rz = simLoc.z;

	mov	edx, DWORD PTR _this$[ebp]
	mov	eax, DWORD PTR [edx+1024]
	imul	eax, 28					; 0000001cH
	mov	ecx, DWORD PTR _this$[ebp]
	movss	xmm0, DWORD PTR _simLoc$[ebp+8]
	movss	DWORD PTR [ecx+eax+1056], xmm0

; 278  : 			boom[BOOM].az = 0.0F;

	mov	edx, DWORD PTR _this$[ebp]
	mov	eax, DWORD PTR [edx+1024]
	imul	eax, 28					; 0000001cH
	mov	ecx, DWORD PTR _this$[ebp]
	movss	xmm0, DWORD PTR __real@00000000
	movss	DWORD PTR [ecx+eax+1064], xmm0

; 279  : 			boom[BOOM].el = 0.0F;

	mov	edx, DWORD PTR _this$[ebp]
	mov	eax, DWORD PTR [edx+1024]
	imul	eax, 28					; 0000001cH
	mov	ecx, DWORD PTR _this$[ebp]
	movss	xmm0, DWORD PTR __real@00000000
	movss	DWORD PTR [ecx+eax+1068], xmm0

; 280  : 			boom[BOOM].ext = 0.0F;

	mov	edx, DWORD PTR _this$[ebp]
	mov	eax, DWORD PTR [edx+1024]
	imul	eax, 28					; 0000001cH
	mov	ecx, DWORD PTR _this$[ebp]
	movss	xmm0, DWORD PTR __real@00000000
	movss	DWORD PTR [ecx+eax+1072], xmm0

; 281  : 			if (numDrogues)

	mov	edx, DWORD PTR _this$[ebp]
	cmp	DWORD PTR [edx+988], 0
	je	$LN31@InitBoom

; 282  : 			{
; 283  : 				for (int i = 1; i <= numDrogues; i++)	// Drogue pod model	must have its own rack

	mov	DWORD PTR _i$12[ebp], 1
	jmp	SHORT $LN33@InitBoom
$LN32@InitBoom:
	mov	eax, DWORD PTR _i$12[ebp]
	add	eax, 1
	mov	DWORD PTR _i$12[ebp], eax
$LN33@InitBoom:
	mov	ecx, DWORD PTR _this$[ebp]
	mov	edx, DWORD PTR _i$12[ebp]
	cmp	edx, DWORD PTR [ecx+988]
	jg	$LN31@InitBoom

; 284  : 				{
; 285  : 					boom[i].drawPointer = new DrawableBSP( MapVisId(drogueModel), &simLoc, &IMatrix );

	push	172					; 000000acH
	call	??2@YAPAXI@Z				; operator new
	add	esp, 4
	mov	DWORD PTR $T9[ebp], eax
	mov	DWORD PTR __$EHRec$[ebp+8], 1
	cmp	DWORD PTR $T9[ebp], 0
	je	SHORT $LN61@InitBoom
	push	ecx
	movss	xmm0, DWORD PTR __real@3f800000
	movss	DWORD PTR [esp], xmm0
	push	OFFSET ?IMatrix@@3UTrotation@@B		; IMatrix
	lea	eax, DWORD PTR _simLoc$[ebp]
	push	eax
	mov	ecx, DWORD PTR _drogueModel$[ebp]
	push	ecx
	call	?MapVisId@@YAKK@Z			; MapVisId
	add	esp, 4
	push	eax
	mov	ecx, DWORD PTR $T9[ebp]
	call	??0DrawableBSP@@QAE@HPBUTpoint@@PBUTrotation@@M@Z ; DrawableBSP::DrawableBSP
	mov	DWORD PTR tv432[ebp], eax
	jmp	SHORT $LN62@InitBoom
$LN61@InitBoom:
	mov	DWORD PTR tv432[ebp], 0
$LN62@InitBoom:
	mov	edx, DWORD PTR tv432[ebp]
	mov	DWORD PTR $T4[ebp], edx
	mov	DWORD PTR __$EHRec$[ebp+8], -1
	mov	eax, DWORD PTR _i$12[ebp]
	imul	eax, 28					; 0000001cH
	mov	ecx, DWORD PTR _this$[ebp]
	mov	edx, DWORD PTR $T4[ebp]
	mov	DWORD PTR [ecx+eax+1060], edx

; 286  : 					((DrawableBSP*)self->drawPointer)->AttachChild(boom[i].drawPointer, i);

	mov	eax, DWORD PTR _i$12[ebp]
	push	eax
	mov	ecx, DWORD PTR _i$12[ebp]
	imul	ecx, 28					; 0000001cH
	mov	edx, DWORD PTR _this$[ebp]
	mov	eax, DWORD PTR [edx+ecx+1060]
	push	eax
	mov	ecx, DWORD PTR _this$[ebp]
	mov	edx, DWORD PTR [ecx+56]
	mov	ecx, DWORD PTR [edx+332]
	call	?AttachChild@DrawableBSP@@QAEXPAV1@H@Z	; DrawableBSP::AttachChild

; 287  : 					((DrawableBSP*)self->drawPointer)->GetChildOffset(i, &simLoc);

	lea	eax, DWORD PTR _simLoc$[ebp]
	push	eax
	mov	ecx, DWORD PTR _i$12[ebp]
	push	ecx
	mov	edx, DWORD PTR _this$[ebp]
	mov	eax, DWORD PTR [edx+56]
	mov	ecx, DWORD PTR [eax+332]
	call	?GetChildOffset@DrawableBSP@@QAEXHPAUTpoint@@@Z ; DrawableBSP::GetChildOffset

; 288  : 					boom[i].rx = simLoc.x;

	mov	ecx, DWORD PTR _i$12[ebp]
	imul	ecx, 28					; 0000001cH
	mov	edx, DWORD PTR _this$[ebp]
	movss	xmm0, DWORD PTR _simLoc$[ebp]
	movss	DWORD PTR [edx+ecx+1048], xmm0

; 289  : 					boom[i].ry = simLoc.y;

	mov	eax, DWORD PTR _i$12[ebp]
	imul	eax, 28					; 0000001cH
	mov	ecx, DWORD PTR _this$[ebp]
	movss	xmm0, DWORD PTR _simLoc$[ebp+4]
	movss	DWORD PTR [ecx+eax+1052], xmm0

; 290  : 					boom[i].rz = simLoc.z;

	mov	edx, DWORD PTR _i$12[ebp]
	imul	edx, 28					; 0000001cH
	mov	eax, DWORD PTR _this$[ebp]
	movss	xmm0, DWORD PTR _simLoc$[ebp+8]
	movss	DWORD PTR [eax+edx+1056], xmm0

; 291  : 					boom[i].az = 0.0F;

	mov	ecx, DWORD PTR _i$12[ebp]
	imul	ecx, 28					; 0000001cH
	mov	edx, DWORD PTR _this$[ebp]
	movss	xmm0, DWORD PTR __real@00000000
	movss	DWORD PTR [edx+ecx+1064], xmm0

; 292  : 					boom[i].el = 0.0F;

	mov	eax, DWORD PTR _i$12[ebp]
	imul	eax, 28					; 0000001cH
	mov	ecx, DWORD PTR _this$[ebp]
	movss	xmm0, DWORD PTR __real@00000000
	movss	DWORD PTR [ecx+eax+1068], xmm0

; 293  : 					boom[i].ext = 0.0F;

	mov	edx, DWORD PTR _i$12[ebp]
	imul	edx, 28					; 0000001cH
	mov	eax, DWORD PTR _this$[ebp]
	movss	xmm0, DWORD PTR __real@00000000
	movss	DWORD PTR [eax+edx+1072], xmm0

; 294  : 				}

	jmp	$LN32@InitBoom
$LN31@InitBoom:

; 295  : 			}
; 296  : 
; 297  : 		}	// end Boom-equipped a/c
; 298  : 			break;

	jmp	$LN52@InitBoom
$LN30@InitBoom:

; 299  : 
; 300  : 		case VIS_TNKR_DROGUE1:	// 17NOV03 - FRB - Drogue-equipped Parent #2205 (single drogue)
; 301  : 		case VIS_TNKR_DROGUE2:	// 17NOV03 - FRB - Drogue-equipped Parent #2206 (single drogue) 
; 302  : 		case VIS_TNKR_DROGUE3:	// 17NOV03 - FRB - Drogue-equipped Parent #2207	(double drogue)
; 303  : 		case VIS_TNKR_DROGUE4:	// 17NOV03 - FRB - Drogue-equipped Parent #2208 (double drogue)
; 304  : 		case VIS_TNKR_DROGUE5:	// 17NOV03 - FRB - Drogue-equipped Parent #2209	(double drogue)
; 305  : 		case VIS_KC130: // (double drogue)
; 306  : 		case VIS_IL78:	// (triple drogue)
; 307  : 		{
; 308  : 			type = TNKR_KCDROGUE;

	mov	ecx, DWORD PTR _this$[ebp]
	mov	DWORD PTR [ecx+1188], 3

; 309  : 			ServiceType = DROGUE_SERVICE;

	mov	edx, DWORD PTR _this$[ebp]
	mov	DWORD PTR [edx+1196], 10		; 0000000aH

; 310  : 
; 311  : 			if (((DrawableBSP*)self->drawPointer)->GetID() == VIS_IL78)

	mov	eax, DWORD PTR _this$[ebp]
	mov	ecx, DWORD PTR [eax+56]
	mov	ecx, DWORD PTR [ecx+332]
	call	?GetID@DrawableBSP@@QAEHXZ		; DrawableBSP::GetID
	cmp	eax, 1218				; 000004c2H
	jne	SHORT $LN29@InitBoom

; 312  : 			{
; 313  : 				boomModel = VIS_RDROGUE;

	mov	DWORD PTR _boomModel$[ebp], 1223	; 000004c7H

; 314  : 				numDrogues = 3;

	mov	edx, DWORD PTR _this$[ebp]
	mov	DWORD PTR [edx+988], 3
	jmp	$LN11@InitBoom
$LN29@InitBoom:

; 315  : 			}
; 316  : 			else if (((DrawableBSP*)self->drawPointer)->GetID() == VIS_KC130)

	mov	eax, DWORD PTR _this$[ebp]
	mov	ecx, DWORD PTR [eax+56]
	mov	ecx, DWORD PTR [ecx+332]
	call	?GetID@DrawableBSP@@QAEHXZ		; DrawableBSP::GetID
	cmp	eax, 887				; 00000377H
	jne	SHORT $LN27@InitBoom

; 317  : 			{
; 318  : 				boomModel = VIS_RDROGUE;

	mov	DWORD PTR _boomModel$[ebp], 1223	; 000004c7H

; 319  : 				numDrogues = 2;

	mov	edx, DWORD PTR _this$[ebp]
	mov	DWORD PTR [edx+988], 2
	jmp	$LN11@InitBoom
$LN27@InitBoom:

; 320  : 			}
; 321  : 			else if (((DrawableBSP*)self->drawPointer)->GetID() == VIS_TNKR_DROGUE1)

	mov	eax, DWORD PTR _this$[ebp]
	mov	ecx, DWORD PTR [eax+56]
	mov	ecx, DWORD PTR [ecx+332]
	call	?GetID@DrawableBSP@@QAEHXZ		; DrawableBSP::GetID
	cmp	eax, 2205				; 0000089dH
	jne	SHORT $LN25@InitBoom

; 322  : 			{
; 323  : 				boomModel = VIS_RDROGUE1;

	mov	DWORD PTR _boomModel$[ebp], 2215	; 000008a7H

; 324  : 				if (!numDrogues)

	mov	edx, DWORD PTR _this$[ebp]
	cmp	DWORD PTR [edx+988], 0
	jne	SHORT $LN24@InitBoom

; 325  : 					numDrogues = 1;

	mov	eax, DWORD PTR _this$[ebp]
	mov	DWORD PTR [eax+988], 1
$LN24@InitBoom:

; 326  : 				// Drogue includes rack
; 327  : 			}

	jmp	$LN11@InitBoom
$LN25@InitBoom:

; 328  : 			else if (((DrawableBSP*)self->drawPointer)->GetID() == VIS_TNKR_DROGUE2)

	mov	ecx, DWORD PTR _this$[ebp]
	mov	edx, DWORD PTR [ecx+56]
	mov	ecx, DWORD PTR [edx+332]
	call	?GetID@DrawableBSP@@QAEHXZ		; DrawableBSP::GetID
	cmp	eax, 2206				; 0000089eH
	jne	SHORT $LN22@InitBoom

; 329  : 			{
; 330  : 				boomModel = VIS_RDROGUE2;

	mov	DWORD PTR _boomModel$[ebp], 2216	; 000008a8H

; 331  : 				if (!numDrogues)

	mov	eax, DWORD PTR _this$[ebp]
	cmp	DWORD PTR [eax+988], 0
	jne	SHORT $LN21@InitBoom

; 332  : 					numDrogues = 1;

	mov	ecx, DWORD PTR _this$[ebp]
	mov	DWORD PTR [ecx+988], 1
$LN21@InitBoom:

; 333  : 				// Drogue includes rack
; 334  : 			}

	jmp	$LN11@InitBoom
$LN22@InitBoom:

; 335  : 			else if (((DrawableBSP*)self->drawPointer)->GetID() == VIS_TNKR_DROGUE3)

	mov	edx, DWORD PTR _this$[ebp]
	mov	eax, DWORD PTR [edx+56]
	mov	ecx, DWORD PTR [eax+332]
	call	?GetID@DrawableBSP@@QAEHXZ		; DrawableBSP::GetID
	cmp	eax, 2207				; 0000089fH
	jne	SHORT $LN19@InitBoom

; 336  : 			{
; 337  : 				boomModel = VIS_RDROGUE3;

	mov	DWORD PTR _boomModel$[ebp], 2217	; 000008a9H

; 338  : 				if (!numDrogues)

	mov	ecx, DWORD PTR _this$[ebp]
	cmp	DWORD PTR [ecx+988], 0
	jne	SHORT $LN18@InitBoom

; 339  : 					numDrogues = 2;

	mov	edx, DWORD PTR _this$[ebp]
	mov	DWORD PTR [edx+988], 2
$LN18@InitBoom:

; 340  : 				// Drogue includes rack
; 341  : 			}

	jmp	$LN11@InitBoom
$LN19@InitBoom:

; 342  : 			else if (((DrawableBSP*)self->drawPointer)->GetID() == VIS_TNKR_DROGUE4)

	mov	eax, DWORD PTR _this$[ebp]
	mov	ecx, DWORD PTR [eax+56]
	mov	ecx, DWORD PTR [ecx+332]
	call	?GetID@DrawableBSP@@QAEHXZ		; DrawableBSP::GetID
	cmp	eax, 2208				; 000008a0H
	jne	SHORT $LN16@InitBoom

; 343  : 			{
; 344  : 				boomModel = VIS_RDROGUE4;

	mov	DWORD PTR _boomModel$[ebp], 2218	; 000008aaH

; 345  : 				if (!numDrogues)

	mov	edx, DWORD PTR _this$[ebp]
	cmp	DWORD PTR [edx+988], 0
	jne	SHORT $LN15@InitBoom

; 346  : 					numDrogues = 2;

	mov	eax, DWORD PTR _this$[ebp]
	mov	DWORD PTR [eax+988], 2
$LN15@InitBoom:

; 347  : 				// Drogue includes rack
; 348  : 			}

	jmp	SHORT $LN11@InitBoom
$LN16@InitBoom:

; 349  : 			else if (((DrawableBSP*)self->drawPointer)->GetID() == VIS_TNKR_DROGUE5)

	mov	ecx, DWORD PTR _this$[ebp]
	mov	edx, DWORD PTR [ecx+56]
	mov	ecx, DWORD PTR [edx+332]
	call	?GetID@DrawableBSP@@QAEHXZ		; DrawableBSP::GetID
	cmp	eax, 2209				; 000008a1H
	jne	SHORT $LN13@InitBoom

; 350  : 			{
; 351  : 				boomModel = VIS_RDROGUE5;

	mov	DWORD PTR _boomModel$[ebp], 2219	; 000008abH

; 352  : 				if (!numDrogues)

	mov	eax, DWORD PTR _this$[ebp]
	cmp	DWORD PTR [eax+988], 0
	jne	SHORT $LN12@InitBoom

; 353  : 					numDrogues = 2;

	mov	ecx, DWORD PTR _this$[ebp]
	mov	DWORD PTR [ecx+988], 2
$LN12@InitBoom:

; 354  : 				// Drogue includes rack
; 355  : 			}
; 356  : 			else

	jmp	SHORT $LN11@InitBoom
$LN13@InitBoom:

; 357  : 			{
; 358  : 				boomModel = VIS_RDROGUE;

	mov	DWORD PTR _boomModel$[ebp], 1223	; 000004c7H

; 359  : 				if (!numDrogues)

	mov	edx, DWORD PTR _this$[ebp]
	cmp	DWORD PTR [edx+988], 0
	jne	SHORT $LN10@InitBoom

; 360  : 					numDrogues = 1;

	mov	eax, DWORD PTR _this$[ebp]
	mov	DWORD PTR [eax+988], 1
$LN10@InitBoom:

; 361  : 				boomModel = VIS_RDROGUE;

	mov	DWORD PTR _boomModel$[ebp], 1223	; 000004c7H
$LN11@InitBoom:

; 362  : 			}
; 363  : 
; 364  : 
; 365  : 			if (!DrogueExt)

	mov	ecx, DWORD PTR _this$[ebp]
	movss	xmm0, DWORD PTR [ecx+992]
	ucomiss	xmm0, DWORD PTR __real@00000000
	lahf
	test	ah, 68					; 00000044H
	jp	SHORT $LN9@InitBoom

; 366  : 				DrogueExt = 40.0f;

	mov	edx, DWORD PTR _this$[ebp]
	movss	xmm0, DWORD PTR __real@42200000
	movss	DWORD PTR [edx+992], xmm0
$LN9@InitBoom:

; 367  : 
; 368  : 			numBooms = 0;  // These a/c can't have booms

	mov	eax, DWORD PTR _this$[ebp]
	mov	DWORD PTR [eax+984], 0

; 369  : 			if (!DROGUE)

	mov	ecx, DWORD PTR _this$[ebp]
	cmp	DWORD PTR [ecx+1020], 0
	jne	SHORT $LN8@InitBoom

; 370  : 				DROGUE = 1;

	mov	edx, DWORD PTR _this$[ebp]
	mov	DWORD PTR [edx+1020], 1
$LN8@InitBoom:

; 371  : 			if (DROGUE > numDrogues)

	mov	eax, DWORD PTR _this$[ebp]
	mov	ecx, DWORD PTR _this$[ebp]
	mov	edx, DWORD PTR [eax+1020]
	cmp	edx, DWORD PTR [ecx+988]
	jle	SHORT $LN7@InitBoom

; 372  : 				DROGUE = numDrogues;

	mov	eax, DWORD PTR _this$[ebp]
	mov	ecx, DWORD PTR _this$[ebp]
	mov	edx, DWORD PTR [ecx+988]
	mov	DWORD PTR [eax+1020], edx
$LN7@InitBoom:

; 373  : 
; 374  : 			for (int i = 1; i <= numDrogues; i++)

	mov	DWORD PTR _i$13[ebp], 1
	jmp	SHORT $LN6@InitBoom
$LN5@InitBoom:
	mov	eax, DWORD PTR _i$13[ebp]
	add	eax, 1
	mov	DWORD PTR _i$13[ebp], eax
$LN6@InitBoom:
	mov	ecx, DWORD PTR _this$[ebp]
	mov	edx, DWORD PTR _i$13[ebp]
	cmp	edx, DWORD PTR [ecx+988]
	jg	$LN4@InitBoom

; 375  : 			{
; 376  : 				if (boomModel == VIS_RDROGUE)

	cmp	DWORD PTR _boomModel$[ebp], 1223	; 000004c7H
	jne	$LN3@InitBoom

; 377  : 				{
; 378  : 					rack[i] = new DrawableBSP( MapVisId(VIS_SINGLE_RACK), &simLoc, &IMatrix );

	push	172					; 000000acH
	call	??2@YAPAXI@Z				; operator new
	add	esp, 4
	mov	DWORD PTR $T8[ebp], eax
	mov	DWORD PTR __$EHRec$[ebp+8], 2
	cmp	DWORD PTR $T8[ebp], 0
	je	SHORT $LN63@InitBoom
	push	ecx
	movss	xmm0, DWORD PTR __real@3f800000
	movss	DWORD PTR [esp], xmm0
	push	OFFSET ?IMatrix@@3UTrotation@@B		; IMatrix
	lea	eax, DWORD PTR _simLoc$[ebp]
	push	eax
	push	140					; 0000008cH
	call	?MapVisId@@YAKK@Z			; MapVisId
	add	esp, 4
	push	eax
	mov	ecx, DWORD PTR $T8[ebp]
	call	??0DrawableBSP@@QAE@HPBUTpoint@@PBUTrotation@@M@Z ; DrawableBSP::DrawableBSP
	mov	DWORD PTR tv667[ebp], eax
	jmp	SHORT $LN64@InitBoom
$LN63@InitBoom:
	mov	DWORD PTR tv667[ebp], 0
$LN64@InitBoom:
	mov	ecx, DWORD PTR tv667[ebp]
	mov	DWORD PTR $T2[ebp], ecx
	mov	DWORD PTR __$EHRec$[ebp+8], -1
	mov	edx, DWORD PTR _i$13[ebp]
	mov	eax, DWORD PTR _this$[ebp]
	mov	ecx, DWORD PTR $T2[ebp]
	mov	DWORD PTR [eax+edx*4+1028], ecx

; 379  : 					((DrawableBSP*)self->drawPointer)->AttachChild(rack[i], i-1);

	mov	edx, DWORD PTR _i$13[ebp]
	sub	edx, 1
	push	edx
	mov	eax, DWORD PTR _i$13[ebp]
	mov	ecx, DWORD PTR _this$[ebp]
	mov	edx, DWORD PTR [ecx+eax*4+1028]
	push	edx
	mov	eax, DWORD PTR _this$[ebp]
	mov	ecx, DWORD PTR [eax+56]
	mov	ecx, DWORD PTR [ecx+332]
	call	?AttachChild@DrawableBSP@@QAEXPAV1@H@Z	; DrawableBSP::AttachChild

; 380  : 					((DrawableBSP*)self->drawPointer)->GetChildOffset(i-1, &rackLoc);

	lea	edx, DWORD PTR _rackLoc$[ebp]
	push	edx
	mov	eax, DWORD PTR _i$13[ebp]
	sub	eax, 1
	push	eax
	mov	ecx, DWORD PTR _this$[ebp]
	mov	edx, DWORD PTR [ecx+56]
	mov	ecx, DWORD PTR [edx+332]
	call	?GetChildOffset@DrawableBSP@@QAEXHPAUTpoint@@@Z ; DrawableBSP::GetChildOffset

; 381  : 					boom[i].drawPointer = new DrawableBSP( MapVisId(boomModel), &simLoc, &IMatrix );

	push	172					; 000000acH
	call	??2@YAPAXI@Z				; operator new
	add	esp, 4
	mov	DWORD PTR $T7[ebp], eax
	mov	DWORD PTR __$EHRec$[ebp+8], 3
	cmp	DWORD PTR $T7[ebp], 0
	je	SHORT $LN65@InitBoom
	push	ecx
	movss	xmm0, DWORD PTR __real@3f800000
	movss	DWORD PTR [esp], xmm0
	push	OFFSET ?IMatrix@@3UTrotation@@B		; IMatrix
	lea	eax, DWORD PTR _simLoc$[ebp]
	push	eax
	mov	ecx, DWORD PTR _boomModel$[ebp]
	push	ecx
	call	?MapVisId@@YAKK@Z			; MapVisId
	add	esp, 4
	push	eax
	mov	ecx, DWORD PTR $T7[ebp]
	call	??0DrawableBSP@@QAE@HPBUTpoint@@PBUTrotation@@M@Z ; DrawableBSP::DrawableBSP
	mov	DWORD PTR tv723[ebp], eax
	jmp	SHORT $LN66@InitBoom
$LN65@InitBoom:
	mov	DWORD PTR tv723[ebp], 0
$LN66@InitBoom:
	mov	edx, DWORD PTR tv723[ebp]
	mov	DWORD PTR $T3[ebp], edx
	mov	DWORD PTR __$EHRec$[ebp+8], -1
	mov	eax, DWORD PTR _i$13[ebp]
	imul	eax, 28					; 0000001cH
	mov	ecx, DWORD PTR _this$[ebp]
	mov	edx, DWORD PTR $T3[ebp]
	mov	DWORD PTR [ecx+eax+1060], edx

; 382  : 					rack[i]->AttachChild(boom[i].drawPointer, 0);

	push	0
	mov	eax, DWORD PTR _i$13[ebp]
	imul	eax, 28					; 0000001cH
	mov	ecx, DWORD PTR _this$[ebp]
	mov	edx, DWORD PTR [ecx+eax+1060]
	push	edx
	mov	eax, DWORD PTR _i$13[ebp]
	mov	ecx, DWORD PTR _this$[ebp]
	mov	ecx, DWORD PTR [ecx+eax*4+1028]
	call	?AttachChild@DrawableBSP@@QAEXPAV1@H@Z	; DrawableBSP::AttachChild

; 383  : 					rack[i]->GetChildOffset(0, &simLoc);

	lea	edx, DWORD PTR _simLoc$[ebp]
	push	edx
	push	0
	mov	eax, DWORD PTR _i$13[ebp]
	mov	ecx, DWORD PTR _this$[ebp]
	mov	ecx, DWORD PTR [ecx+eax*4+1028]
	call	?GetChildOffset@DrawableBSP@@QAEXHPAUTpoint@@@Z ; DrawableBSP::GetChildOffset

; 384  : 				}
; 385  : 				else // New Drogue pod must include rack

	jmp	$LN2@InitBoom
$LN3@InitBoom:

; 386  : 				{
; 387  : 					boom[i].drawPointer = new DrawableBSP( MapVisId(boomModel), &simLoc, &IMatrix );

	push	172					; 000000acH
	call	??2@YAPAXI@Z				; operator new
	add	esp, 4
	mov	DWORD PTR $T11[ebp], eax
	mov	DWORD PTR __$EHRec$[ebp+8], 4
	cmp	DWORD PTR $T11[ebp], 0
	je	SHORT $LN67@InitBoom
	push	ecx
	movss	xmm0, DWORD PTR __real@3f800000
	movss	DWORD PTR [esp], xmm0
	push	OFFSET ?IMatrix@@3UTrotation@@B		; IMatrix
	lea	edx, DWORD PTR _simLoc$[ebp]
	push	edx
	mov	eax, DWORD PTR _boomModel$[ebp]
	push	eax
	call	?MapVisId@@YAKK@Z			; MapVisId
	add	esp, 4
	push	eax
	mov	ecx, DWORD PTR $T11[ebp]
	call	??0DrawableBSP@@QAE@HPBUTpoint@@PBUTrotation@@M@Z ; DrawableBSP::DrawableBSP
	mov	DWORD PTR tv756[ebp], eax
	jmp	SHORT $LN68@InitBoom
$LN67@InitBoom:
	mov	DWORD PTR tv756[ebp], 0
$LN68@InitBoom:
	mov	ecx, DWORD PTR tv756[ebp]
	mov	DWORD PTR $T5[ebp], ecx
	mov	DWORD PTR __$EHRec$[ebp+8], -1
	mov	edx, DWORD PTR _i$13[ebp]
	imul	edx, 28					; 0000001cH
	mov	eax, DWORD PTR _this$[ebp]
	mov	ecx, DWORD PTR $T5[ebp]
	mov	DWORD PTR [eax+edx+1060], ecx

; 388  : 					((DrawableBSP*)self->drawPointer)->AttachChild(boom[i].drawPointer, i-1);

	mov	edx, DWORD PTR _i$13[ebp]
	sub	edx, 1
	push	edx
	mov	eax, DWORD PTR _i$13[ebp]
	imul	eax, 28					; 0000001cH
	mov	ecx, DWORD PTR _this$[ebp]
	mov	edx, DWORD PTR [ecx+eax+1060]
	push	edx
	mov	eax, DWORD PTR _this$[ebp]
	mov	ecx, DWORD PTR [eax+56]
	mov	ecx, DWORD PTR [ecx+332]
	call	?AttachChild@DrawableBSP@@QAEXPAV1@H@Z	; DrawableBSP::AttachChild

; 389  : 					((DrawableBSP*)self->drawPointer)->GetChildOffset(i-1, &simLoc);

	lea	edx, DWORD PTR _simLoc$[ebp]
	push	edx
	mov	eax, DWORD PTR _i$13[ebp]
	sub	eax, 1
	push	eax
	mov	ecx, DWORD PTR _this$[ebp]
	mov	edx, DWORD PTR [ecx+56]
	mov	ecx, DWORD PTR [edx+332]
	call	?GetChildOffset@DrawableBSP@@QAEXHPAUTpoint@@@Z ; DrawableBSP::GetChildOffset
$LN2@InitBoom:

; 390  : 				}
; 391  : 				boom[i].rx = simLoc.x + rackLoc.x;

	movss	xmm0, DWORD PTR _simLoc$[ebp]
	addss	xmm0, DWORD PTR _rackLoc$[ebp]
	mov	eax, DWORD PTR _i$13[ebp]
	imul	eax, 28					; 0000001cH
	mov	ecx, DWORD PTR _this$[ebp]
	movss	DWORD PTR [ecx+eax+1048], xmm0

; 392  : 				boom[i].ry = simLoc.y + rackLoc.y;

	movss	xmm0, DWORD PTR _simLoc$[ebp+4]
	addss	xmm0, DWORD PTR _rackLoc$[ebp+4]
	mov	edx, DWORD PTR _i$13[ebp]
	imul	edx, 28					; 0000001cH
	mov	eax, DWORD PTR _this$[ebp]
	movss	DWORD PTR [eax+edx+1052], xmm0

; 393  : 				boom[i].rz = simLoc.z + rackLoc.z;

	movss	xmm0, DWORD PTR _simLoc$[ebp+8]
	addss	xmm0, DWORD PTR _rackLoc$[ebp+8]
	mov	ecx, DWORD PTR _i$13[ebp]
	imul	ecx, 28					; 0000001cH
	mov	edx, DWORD PTR _this$[ebp]
	movss	DWORD PTR [edx+ecx+1056], xmm0

; 394  : 				boom[i].az = 0.0F;

	mov	eax, DWORD PTR _i$13[ebp]
	imul	eax, 28					; 0000001cH
	mov	ecx, DWORD PTR _this$[ebp]
	movss	xmm0, DWORD PTR __real@00000000
	movss	DWORD PTR [ecx+eax+1064], xmm0

; 395  : 				boom[i].el = 0.0F;

	mov	edx, DWORD PTR _i$13[ebp]
	imul	edx, 28					; 0000001cH
	mov	eax, DWORD PTR _this$[ebp]
	movss	xmm0, DWORD PTR __real@00000000
	movss	DWORD PTR [eax+edx+1068], xmm0

; 396  : 				boom[i].ext = 0.0F;

	mov	ecx, DWORD PTR _i$13[ebp]
	imul	ecx, 28					; 0000001cH
	mov	edx, DWORD PTR _this$[ebp]
	movss	xmm0, DWORD PTR __real@00000000
	movss	DWORD PTR [edx+ecx+1072], xmm0

; 397  : 
; 398  : 			}

	jmp	$LN5@InitBoom
$LN4@InitBoom:

; 399  : 
; 400  : 		} // end drogue-equipped a/c	
; 401  : 			break;

	jmp	SHORT $LN52@InitBoom
$LN1@InitBoom:

; 402  : 		default:
; 403  : 			type = TNKR_UNKNOWN;

	mov	eax, DWORD PTR _this$[ebp]
	mov	DWORD PTR [eax+1188], 6
$LN52@InitBoom:

; 404  : 			break;
; 405  : 		}
; 406  : }

	mov	ecx, DWORD PTR __$EHRec$[ebp]
	mov	DWORD PTR fs:0, ecx
	pop	ecx
	mov	ecx, DWORD PTR __$ArrayPad$[ebp]
	xor	ecx, ebp
	call	@__security_check_cookie@4
	mov	esp, ebp
	pop	ebp
	ret	0
	npad	1
$LN77@InitBoom:
	DD	$LN51@InitBoom
	DD	$LN30@InitBoom
$LN75@InitBoom:
	DB	0
	DB	0
	DB	0
	DB	0
	DB	0
	DB	1
	DB	1
	DB	1
	DB	1
	DB	1
_TEXT	ENDS
text$x	SEGMENT
__unwindfunclet$?InitBoom@TankerBrain@@UAEXXZ$0:
	mov	eax, DWORD PTR $T10[ebp]
	push	eax
	call	??3@YAXPAX@Z				; operator delete
	pop	ecx
	ret	0
__unwindfunclet$?InitBoom@TankerBrain@@UAEXXZ$1:
	mov	eax, DWORD PTR $T9[ebp]
	push	eax
	call	??3@YAXPAX@Z				; operator delete
	pop	ecx
	ret	0
__unwindfunclet$?InitBoom@TankerBrain@@UAEXXZ$2:
	mov	eax, DWORD PTR $T8[ebp]
	push	eax
	call	??3@YAXPAX@Z				; operator delete
	pop	ecx
	ret	0
__unwindfunclet$?InitBoom@TankerBrain@@UAEXXZ$3:
	mov	eax, DWORD PTR $T7[ebp]
	push	eax
	call	??3@YAXPAX@Z				; operator delete
	pop	ecx
	ret	0
__unwindfunclet$?InitBoom@TankerBrain@@UAEXXZ$4:
	mov	eax, DWORD PTR $T11[ebp]
	push	eax
	call	??3@YAXPAX@Z				; operator delete
	pop	ecx
	ret	0
__ehhandler$?InitBoom@TankerBrain@@UAEXXZ:
	mov	edx, DWORD PTR [esp+8]
	lea	eax, DWORD PTR [edx+12]
	mov	ecx, DWORD PTR [edx-116]
	xor	ecx, eax
	call	@__security_check_cookie@4
	mov	ecx, DWORD PTR [edx-4]
	xor	ecx, eax
	call	@__security_check_cookie@4
	mov	eax, OFFSET __ehfuncinfo$?InitBoom@TankerBrain@@UAEXXZ
	jmp	___CxxFrameHandler3
text$x	ENDS
?InitBoom@TankerBrain@@UAEXXZ ENDP			; TankerBrain::InitBoom
; Function compile flags: /Odtp
; File c:\users\zhitao li\documents\visual studio 2012\projects\freefalcon\sim\include\tankbrn.h
;	COMDAT ?IsTanker@TankerBrain@@UAEHXZ
_TEXT	SEGMENT
_this$ = -4						; size = 4
?IsTanker@TankerBrain@@UAEHXZ PROC			; TankerBrain::IsTanker, COMDAT
; _this$ = ecx

; 108  : 	  virtual int IsTanker(void)	{return TRUE;}

	push	ebp
	mov	ebp, esp
	push	ecx
	mov	DWORD PTR _this$[ebp], ecx
	mov	eax, 1
	mov	esp, ebp
	pop	ebp
	ret	0
?IsTanker@TankerBrain@@UAEHXZ ENDP			; TankerBrain::IsTanker
_TEXT	ENDS
; Function compile flags: /Odtp
; File c:\users\zhitao li\documents\visual studio 2012\projects\freefalcon\sim\digi\tankbrn.cpp
_TEXT	SEGMENT
_TrigAz$1 = -88						; size = 8
tv540 = -80						; size = 4
tv492 = -76						; size = 4
tv570 = -72						; size = 4
_TrigEl$2 = -68						; size = 8
tv516 = -60						; size = 4
tv618 = -56						; size = 4
tv622 = -52						; size = 4
tv632 = -48						; size = 4
tv626 = -44						; size = 4
tv594 = -40						; size = 4
tv624 = -36						; size = 4
tv630 = -32						; size = 4
tv628 = -28						; size = 4
_orientation$ = -24					; size = 4
_this$ = -20						; size = 4
_boompos$ = -16						; size = 12
__$ArrayPad$ = -4					; size = 4
_pos$ = 8						; size = 4
?BoomTipPosition@TankerBrain@@QAEXPAUTpoint@@@Z PROC	; TankerBrain::BoomTipPosition
; _this$ = ecx

; 2077 : {

	push	ebp
	mov	ebp, esp
	sub	esp, 88					; 00000058H
	mov	eax, DWORD PTR ___security_cookie
	xor	eax, ebp
	mov	DWORD PTR __$ArrayPad$[ebp], eax
	mov	DWORD PTR _this$[ebp], ecx

; 2078 : 	Trotation *orientation = &((DrawableBSP*)self->drawPointer)->orientation;

	mov	eax, DWORD PTR _this$[ebp]
	mov	ecx, DWORD PTR [eax+56]
	mov	edx, DWORD PTR [ecx+332]
	add	edx, 48					; 00000030H
	mov	DWORD PTR _orientation$[ebp], edx

; 2079 : 	Tpoint boompos;
; 2080 : 
; 2081 : 	if(ServiceType == BOOM_SERVICE)

	mov	eax, DWORD PTR _this$[ebp]
	cmp	DWORD PTR [eax+1196], 20		; 00000014H
	jne	$LN2@BoomTipPos

; 2082 : 	{
; 2083 : 		mlTrig TrigAz, TrigEl;
; 2084 : 
; 2085 : 		mlSinCos(&TrigAz, boom[BOOM].az);

	mov	ecx, DWORD PTR _this$[ebp]
	mov	edx, DWORD PTR [ecx+1024]
	imul	edx, 28					; 0000001cH
	mov	eax, DWORD PTR _this$[ebp]
	push	ecx
	movss	xmm0, DWORD PTR [eax+edx+1064]
	movss	DWORD PTR [esp], xmm0
	lea	ecx, DWORD PTR _TrigAz$1[ebp]
	push	ecx
	call	?mlSinCos@@YAXPAUmlTrig@@M@Z		; mlSinCos
	add	esp, 8

; 2086 : 		mlSinCos(&TrigEl, boom[BOOM].el);

	mov	edx, DWORD PTR _this$[ebp]
	mov	eax, DWORD PTR [edx+1024]
	imul	eax, 28					; 0000001cH
	mov	ecx, DWORD PTR _this$[ebp]
	push	ecx
	movss	xmm0, DWORD PTR [ecx+eax+1068]
	movss	DWORD PTR [esp], xmm0
	lea	edx, DWORD PTR _TrigEl$2[ebp]
	push	edx
	call	?mlSinCos@@YAXPAUmlTrig@@M@Z		; mlSinCos
	add	esp, 8

; 2087 : 
; 2088 : 		boompos.x = -(33.5F + boom[BOOM].ext)*TrigAz.cos*TrigEl.cos;

	mov	eax, DWORD PTR _this$[ebp]
	mov	ecx, DWORD PTR [eax+1024]
	imul	ecx, 28					; 0000001cH
	mov	edx, DWORD PTR _this$[ebp]
	movss	xmm0, DWORD PTR __real@42060000
	addss	xmm0, DWORD PTR [edx+ecx+1072]
	xorps	xmm0, DWORD PTR __xmm@80000000800000008000000080000000
	mulss	xmm0, DWORD PTR _TrigAz$1[ebp+4]
	mulss	xmm0, DWORD PTR _TrigEl$2[ebp+4]
	movss	DWORD PTR _boompos$[ebp], xmm0

; 2089 : 		boompos.y = -(33.5F + boom[BOOM].ext)*TrigAz.sin*TrigEl.cos;

	mov	eax, DWORD PTR _this$[ebp]
	mov	ecx, DWORD PTR [eax+1024]
	imul	ecx, 28					; 0000001cH
	mov	edx, DWORD PTR _this$[ebp]
	movss	xmm0, DWORD PTR __real@42060000
	addss	xmm0, DWORD PTR [edx+ecx+1072]
	xorps	xmm0, DWORD PTR __xmm@80000000800000008000000080000000
	mulss	xmm0, DWORD PTR _TrigAz$1[ebp]
	mulss	xmm0, DWORD PTR _TrigEl$2[ebp+4]
	movss	DWORD PTR _boompos$[ebp+4], xmm0

; 2090 : 		boompos.z = -(33.5F + boom[BOOM].ext)*TrigEl.sin;

	mov	eax, DWORD PTR _this$[ebp]
	mov	ecx, DWORD PTR [eax+1024]
	imul	ecx, 28					; 0000001cH
	mov	edx, DWORD PTR _this$[ebp]
	movss	xmm0, DWORD PTR __real@42060000
	addss	xmm0, DWORD PTR [edx+ecx+1072]
	xorps	xmm0, DWORD PTR __xmm@80000000800000008000000080000000
	mulss	xmm0, DWORD PTR _TrigEl$2[ebp]
	movss	DWORD PTR _boompos$[ebp+8], xmm0

; 2091 : 
; 2092 : 		pos->x = orientation->M11*(boom[BOOM].rx + boompos.x) + orientation->M12*(boom[BOOM].ry + boompos.y) + orientation->M13*(boom[BOOM].rz + boompos.z) + self->XPos();

	mov	eax, DWORD PTR _this$[ebp]
	mov	ecx, DWORD PTR [eax+1024]
	imul	ecx, 28					; 0000001cH
	mov	edx, DWORD PTR _this$[ebp]
	movss	xmm0, DWORD PTR [edx+ecx+1048]
	addss	xmm0, DWORD PTR _boompos$[ebp]
	mov	eax, DWORD PTR _orientation$[ebp]
	mulss	xmm0, DWORD PTR [eax]
	mov	ecx, DWORD PTR _this$[ebp]
	mov	edx, DWORD PTR [ecx+1024]
	imul	edx, 28					; 0000001cH
	mov	eax, DWORD PTR _this$[ebp]
	movss	xmm1, DWORD PTR [eax+edx+1052]
	addss	xmm1, DWORD PTR _boompos$[ebp+4]
	mov	ecx, DWORD PTR _orientation$[ebp]
	mulss	xmm1, DWORD PTR [ecx+4]
	addss	xmm0, xmm1
	mov	edx, DWORD PTR _this$[ebp]
	mov	eax, DWORD PTR [edx+1024]
	imul	eax, 28					; 0000001cH
	mov	ecx, DWORD PTR _this$[ebp]
	movss	xmm1, DWORD PTR [ecx+eax+1056]
	addss	xmm1, DWORD PTR _boompos$[ebp+8]
	mov	edx, DWORD PTR _orientation$[ebp]
	mulss	xmm1, DWORD PTR [edx+8]
	addss	xmm0, xmm1
	mov	eax, DWORD PTR _this$[ebp]
	mov	ecx, DWORD PTR [eax+56]
	movss	DWORD PTR tv622[ebp], xmm0
	call	?XPos@VuEntity@@QBEMXZ			; VuEntity::XPos
	fstp	DWORD PTR tv492[ebp]
	movss	xmm0, DWORD PTR tv622[ebp]
	addss	xmm0, DWORD PTR tv492[ebp]
	mov	ecx, DWORD PTR _pos$[ebp]
	movss	DWORD PTR [ecx], xmm0

; 2093 : 		pos->y = orientation->M21*(boom[BOOM].rx + boompos.x) + orientation->M22*(boom[BOOM].ry + boompos.y) + orientation->M23*(boom[BOOM].rz + boompos.z) + self->YPos();

	mov	edx, DWORD PTR _this$[ebp]
	mov	eax, DWORD PTR [edx+1024]
	imul	eax, 28					; 0000001cH
	mov	ecx, DWORD PTR _this$[ebp]
	movss	xmm0, DWORD PTR [ecx+eax+1048]
	addss	xmm0, DWORD PTR _boompos$[ebp]
	mov	edx, DWORD PTR _orientation$[ebp]
	mulss	xmm0, DWORD PTR [edx+12]
	mov	eax, DWORD PTR _this$[ebp]
	mov	ecx, DWORD PTR [eax+1024]
	imul	ecx, 28					; 0000001cH
	mov	edx, DWORD PTR _this$[ebp]
	movss	xmm1, DWORD PTR [edx+ecx+1052]
	addss	xmm1, DWORD PTR _boompos$[ebp+4]
	mov	eax, DWORD PTR _orientation$[ebp]
	mulss	xmm1, DWORD PTR [eax+16]
	addss	xmm0, xmm1
	mov	ecx, DWORD PTR _this$[ebp]
	mov	edx, DWORD PTR [ecx+1024]
	imul	edx, 28					; 0000001cH
	mov	eax, DWORD PTR _this$[ebp]
	movss	xmm1, DWORD PTR [eax+edx+1056]
	addss	xmm1, DWORD PTR _boompos$[ebp+8]
	mov	ecx, DWORD PTR _orientation$[ebp]
	mulss	xmm1, DWORD PTR [ecx+20]
	addss	xmm0, xmm1
	mov	edx, DWORD PTR _this$[ebp]
	mov	ecx, DWORD PTR [edx+56]
	movss	DWORD PTR tv624[ebp], xmm0
	call	?YPos@VuEntity@@QBEMXZ			; VuEntity::YPos
	fstp	DWORD PTR tv516[ebp]
	movss	xmm0, DWORD PTR tv624[ebp]
	addss	xmm0, DWORD PTR tv516[ebp]
	mov	eax, DWORD PTR _pos$[ebp]
	movss	DWORD PTR [eax+4], xmm0

; 2094 : 		pos->z = orientation->M31*(boom[BOOM].rx + boompos.x) + orientation->M32*(boom[BOOM].ry + boompos.y) + orientation->M33*(boom[BOOM].rz + boompos.z) + self->ZPos();

	mov	ecx, DWORD PTR _this$[ebp]
	mov	edx, DWORD PTR [ecx+1024]
	imul	edx, 28					; 0000001cH
	mov	eax, DWORD PTR _this$[ebp]
	movss	xmm0, DWORD PTR [eax+edx+1048]
	addss	xmm0, DWORD PTR _boompos$[ebp]
	mov	ecx, DWORD PTR _orientation$[ebp]
	mulss	xmm0, DWORD PTR [ecx+24]
	mov	edx, DWORD PTR _this$[ebp]
	mov	eax, DWORD PTR [edx+1024]
	imul	eax, 28					; 0000001cH
	mov	ecx, DWORD PTR _this$[ebp]
	movss	xmm1, DWORD PTR [ecx+eax+1052]
	addss	xmm1, DWORD PTR _boompos$[ebp+4]
	mov	edx, DWORD PTR _orientation$[ebp]
	mulss	xmm1, DWORD PTR [edx+28]
	addss	xmm0, xmm1
	mov	eax, DWORD PTR _this$[ebp]
	mov	ecx, DWORD PTR [eax+1024]
	imul	ecx, 28					; 0000001cH
	mov	edx, DWORD PTR _this$[ebp]
	movss	xmm1, DWORD PTR [edx+ecx+1056]
	addss	xmm1, DWORD PTR _boompos$[ebp+8]
	mov	eax, DWORD PTR _orientation$[ebp]
	mulss	xmm1, DWORD PTR [eax+32]
	addss	xmm0, xmm1
	mov	ecx, DWORD PTR _this$[ebp]
	mov	ecx, DWORD PTR [ecx+56]
	movss	DWORD PTR tv626[ebp], xmm0
	call	?ZPos@VuEntity@@QBEMXZ			; VuEntity::ZPos
	fstp	DWORD PTR tv540[ebp]
	movss	xmm0, DWORD PTR tv626[ebp]
	addss	xmm0, DWORD PTR tv540[ebp]
	mov	edx, DWORD PTR _pos$[ebp]
	movss	DWORD PTR [edx+8], xmm0

; 2095 : 	}
; 2096 : 	else

	jmp	$LN1@BoomTipPos
$LN2@BoomTipPos:

; 2097 : 	{
; 2098 : //		boompos.x = -boom[DROGUE].ext;
; 2099 : /*
; 2100 : //		Tpoint minB, maxB;
; 2101 : 		if (curThirsty && curThirsty->drawPointer) 
; 2102 : 		{
; 2103 : //		    ((DrawableBSP*)curThirsty->drawPointer)->GetBoundingBox(&minB, &maxB);
; 2104 : //		    boompos.x -= maxB.x;
; 2105 : 				float rad = ((DrawableBSP*)curThirsty->drawPointer)->Radius();	// 22NOV03 - FRB - Use Parent record radius since BoundingBox +X may be changed to decrease a/c hitbox
; 2106 : 		    boompos.x -= rad;
; 2107 : 		}
; 2108 : */
; 2109 : 		boompos.x = DrogueRFPos.x;

	mov	eax, DWORD PTR _this$[ebp]
	movss	xmm0, DWORD PTR [eax+996]
	movss	DWORD PTR _boompos$[ebp], xmm0

; 2110 : 		boompos.y = DrogueRFPos.y;

	mov	ecx, DWORD PTR _this$[ebp]
	movss	xmm0, DWORD PTR [ecx+1000]
	movss	DWORD PTR _boompos$[ebp+4], xmm0

; 2111 : 		boompos.z = DrogueRFPos.z;

	mov	edx, DWORD PTR _this$[ebp]
	movss	xmm0, DWORD PTR [edx+1004]
	movss	DWORD PTR _boompos$[ebp+8], xmm0

; 2112 : 
; 2113 : 		pos->x = orientation->M11*(boom[DROGUE].rx + boompos.x) + orientation->M12*(boom[DROGUE].ry + boompos.y) + orientation->M13*(boom[DROGUE].rz + boompos.z) + self->XPos();

	mov	eax, DWORD PTR _this$[ebp]
	mov	ecx, DWORD PTR [eax+1020]
	imul	ecx, 28					; 0000001cH
	mov	edx, DWORD PTR _this$[ebp]
	movss	xmm0, DWORD PTR [edx+ecx+1048]
	addss	xmm0, DWORD PTR _boompos$[ebp]
	mov	eax, DWORD PTR _orientation$[ebp]
	mulss	xmm0, DWORD PTR [eax]
	mov	ecx, DWORD PTR _this$[ebp]
	mov	edx, DWORD PTR [ecx+1020]
	imul	edx, 28					; 0000001cH
	mov	eax, DWORD PTR _this$[ebp]
	movss	xmm1, DWORD PTR [eax+edx+1052]
	addss	xmm1, DWORD PTR _boompos$[ebp+4]
	mov	ecx, DWORD PTR _orientation$[ebp]
	mulss	xmm1, DWORD PTR [ecx+4]
	addss	xmm0, xmm1
	mov	edx, DWORD PTR _this$[ebp]
	mov	eax, DWORD PTR [edx+1020]
	imul	eax, 28					; 0000001cH
	mov	ecx, DWORD PTR _this$[ebp]
	movss	xmm1, DWORD PTR [ecx+eax+1056]
	addss	xmm1, DWORD PTR _boompos$[ebp+8]
	mov	edx, DWORD PTR _orientation$[ebp]
	mulss	xmm1, DWORD PTR [edx+8]
	addss	xmm0, xmm1
	mov	eax, DWORD PTR _this$[ebp]
	mov	ecx, DWORD PTR [eax+56]
	movss	DWORD PTR tv628[ebp], xmm0
	call	?XPos@VuEntity@@QBEMXZ			; VuEntity::XPos
	fstp	DWORD PTR tv570[ebp]
	movss	xmm0, DWORD PTR tv628[ebp]
	addss	xmm0, DWORD PTR tv570[ebp]
	mov	ecx, DWORD PTR _pos$[ebp]
	movss	DWORD PTR [ecx], xmm0

; 2114 : 		pos->y = orientation->M21*(boom[DROGUE].rx + boompos.x) + orientation->M22*(boom[DROGUE].ry + boompos.y) + orientation->M23*(boom[DROGUE].rz + boompos.z) + self->YPos();

	mov	edx, DWORD PTR _this$[ebp]
	mov	eax, DWORD PTR [edx+1020]
	imul	eax, 28					; 0000001cH
	mov	ecx, DWORD PTR _this$[ebp]
	movss	xmm0, DWORD PTR [ecx+eax+1048]
	addss	xmm0, DWORD PTR _boompos$[ebp]
	mov	edx, DWORD PTR _orientation$[ebp]
	mulss	xmm0, DWORD PTR [edx+12]
	mov	eax, DWORD PTR _this$[ebp]
	mov	ecx, DWORD PTR [eax+1020]
	imul	ecx, 28					; 0000001cH
	mov	edx, DWORD PTR _this$[ebp]
	movss	xmm1, DWORD PTR [edx+ecx+1052]
	addss	xmm1, DWORD PTR _boompos$[ebp+4]
	mov	eax, DWORD PTR _orientation$[ebp]
	mulss	xmm1, DWORD PTR [eax+16]
	addss	xmm0, xmm1
	mov	ecx, DWORD PTR _this$[ebp]
	mov	edx, DWORD PTR [ecx+1020]
	imul	edx, 28					; 0000001cH
	mov	eax, DWORD PTR _this$[ebp]
	movss	xmm1, DWORD PTR [eax+edx+1056]
	addss	xmm1, DWORD PTR _boompos$[ebp+8]
	mov	ecx, DWORD PTR _orientation$[ebp]
	mulss	xmm1, DWORD PTR [ecx+20]
	addss	xmm0, xmm1
	mov	edx, DWORD PTR _this$[ebp]
	mov	ecx, DWORD PTR [edx+56]
	movss	DWORD PTR tv630[ebp], xmm0
	call	?YPos@VuEntity@@QBEMXZ			; VuEntity::YPos
	fstp	DWORD PTR tv594[ebp]
	movss	xmm0, DWORD PTR tv630[ebp]
	addss	xmm0, DWORD PTR tv594[ebp]
	mov	eax, DWORD PTR _pos$[ebp]
	movss	DWORD PTR [eax+4], xmm0

; 2115 : 		pos->z = orientation->M31*(boom[DROGUE].rx + boompos.x) + orientation->M32*(boom[DROGUE].ry + boompos.y) + orientation->M33*(boom[DROGUE].rz + boompos.z) + self->ZPos();

	mov	ecx, DWORD PTR _this$[ebp]
	mov	edx, DWORD PTR [ecx+1020]
	imul	edx, 28					; 0000001cH
	mov	eax, DWORD PTR _this$[ebp]
	movss	xmm0, DWORD PTR [eax+edx+1048]
	addss	xmm0, DWORD PTR _boompos$[ebp]
	mov	ecx, DWORD PTR _orientation$[ebp]
	mulss	xmm0, DWORD PTR [ecx+24]
	mov	edx, DWORD PTR _this$[ebp]
	mov	eax, DWORD PTR [edx+1020]
	imul	eax, 28					; 0000001cH
	mov	ecx, DWORD PTR _this$[ebp]
	movss	xmm1, DWORD PTR [ecx+eax+1052]
	addss	xmm1, DWORD PTR _boompos$[ebp+4]
	mov	edx, DWORD PTR _orientation$[ebp]
	mulss	xmm1, DWORD PTR [edx+28]
	addss	xmm0, xmm1
	mov	eax, DWORD PTR _this$[ebp]
	mov	ecx, DWORD PTR [eax+1020]
	imul	ecx, 28					; 0000001cH
	mov	edx, DWORD PTR _this$[ebp]
	movss	xmm1, DWORD PTR [edx+ecx+1056]
	addss	xmm1, DWORD PTR _boompos$[ebp+8]
	mov	eax, DWORD PTR _orientation$[ebp]
	mulss	xmm1, DWORD PTR [eax+32]
	addss	xmm0, xmm1
	mov	ecx, DWORD PTR _this$[ebp]
	mov	ecx, DWORD PTR [ecx+56]
	movss	DWORD PTR tv632[ebp], xmm0
	call	?ZPos@VuEntity@@QBEMXZ			; VuEntity::ZPos
	fstp	DWORD PTR tv618[ebp]
	movss	xmm0, DWORD PTR tv632[ebp]
	addss	xmm0, DWORD PTR tv618[ebp]
	mov	edx, DWORD PTR _pos$[ebp]
	movss	DWORD PTR [edx+8], xmm0
$LN1@BoomTipPos:

; 2116 : 	}
; 2117 : 
; 2118 : 	return;
; 2119 : }

	mov	ecx, DWORD PTR __$ArrayPad$[ebp]
	xor	ecx, ebp
	call	@__security_check_cookie@4
	mov	esp, ebp
	pop	ebp
	ret	4
?BoomTipPosition@TankerBrain@@QAEXPAUTpoint@@@Z ENDP	; TankerBrain::BoomTipPosition
_TEXT	ENDS
; Function compile flags: /Odtp
; File c:\users\zhitao li\documents\visual studio 2012\projects\freefalcon\sim\digi\tankbrn.cpp
_TEXT	SEGMENT
tv404 = -116						; size = 4
tv414 = -112						; size = 4
tv547 = -108						; size = 4
_rad$ = -104						; size = 4
tv503 = -100						; size = 4
tv553 = -96						; size = 4
tv498 = -92						; size = 4
tv551 = -88						; size = 4
tv492 = -84						; size = 4
tv409 = -80						; size = 4
tv557 = -76						; size = 4
tv399 = -72						; size = 4
tv487 = -68						; size = 4
tv424 = -64						; size = 4
tv482 = -60						; size = 4
tv419 = -56						; size = 4
tv555 = -52						; size = 4
tv549 = -48						; size = 4
tv477 = -44						; size = 4
tv472 = -40						; size = 4
tv467 = -36						; size = 4
_this$ = -32						; size = 4
_recWPos$ = -28						; size = 12
_recThirstyRelPos$ = -16				; size = 12
__$ArrayPad$ = -4					; size = 4
_pos$ = 8						; size = 4
_thirsty$ = 12						; size = 4
?ReceptorRelPosition@TankerBrain@@QAEXPAUTpoint@@PAVSimVehicleClass@@@Z PROC ; TankerBrain::ReceptorRelPosition
; _this$ = ecx

; 1995 : {

	push	ebp
	mov	ebp, esp
	sub	esp, 116				; 00000074H
	mov	eax, DWORD PTR ___security_cookie
	xor	eax, ebp
	mov	DWORD PTR __$ArrayPad$[ebp], eax
	mov	DWORD PTR _this$[ebp], ecx

; 1996 : //			Tpoint	minB, maxB;
; 1997 : 			float		rad;
; 1998 : 	if(!thirsty->drawPointer)

	mov	eax, DWORD PTR _thirsty$[ebp]
	cmp	DWORD PTR [eax+332], 0
	jne	$LN11@ReceptorRe

; 1999 : 	{
; 2000 : 		pos->x = thirsty->XPos()- self->XPos();

	mov	ecx, DWORD PTR _thirsty$[ebp]
	call	?XPos@VuEntity@@QBEMXZ			; VuEntity::XPos
	fstp	DWORD PTR tv399[ebp]
	movss	xmm0, DWORD PTR tv399[ebp]
	mov	ecx, DWORD PTR _this$[ebp]
	mov	ecx, DWORD PTR [ecx+56]
	movss	DWORD PTR tv547[ebp], xmm0
	call	?XPos@VuEntity@@QBEMXZ			; VuEntity::XPos
	fstp	DWORD PTR tv404[ebp]
	movss	xmm0, DWORD PTR tv547[ebp]
	subss	xmm0, DWORD PTR tv404[ebp]
	mov	edx, DWORD PTR _pos$[ebp]
	movss	DWORD PTR [edx], xmm0

; 2001 : 		pos->y = thirsty->YPos()- self->YPos();

	mov	ecx, DWORD PTR _thirsty$[ebp]
	call	?YPos@VuEntity@@QBEMXZ			; VuEntity::YPos
	fstp	DWORD PTR tv409[ebp]
	movss	xmm0, DWORD PTR tv409[ebp]
	mov	eax, DWORD PTR _this$[ebp]
	mov	ecx, DWORD PTR [eax+56]
	movss	DWORD PTR tv549[ebp], xmm0
	call	?YPos@VuEntity@@QBEMXZ			; VuEntity::YPos
	fstp	DWORD PTR tv414[ebp]
	movss	xmm0, DWORD PTR tv549[ebp]
	subss	xmm0, DWORD PTR tv414[ebp]
	mov	ecx, DWORD PTR _pos$[ebp]
	movss	DWORD PTR [ecx+4], xmm0

; 2002 : 		pos->z = thirsty->ZPos()- self->ZPos();

	mov	ecx, DWORD PTR _thirsty$[ebp]
	call	?ZPos@VuEntity@@QBEMXZ			; VuEntity::ZPos
	fstp	DWORD PTR tv419[ebp]
	movss	xmm0, DWORD PTR tv419[ebp]
	mov	edx, DWORD PTR _this$[ebp]
	mov	ecx, DWORD PTR [edx+56]
	movss	DWORD PTR tv551[ebp], xmm0
	call	?ZPos@VuEntity@@QBEMXZ			; VuEntity::ZPos
	fstp	DWORD PTR tv424[ebp]
	movss	xmm0, DWORD PTR tv551[ebp]
	subss	xmm0, DWORD PTR tv424[ebp]
	mov	eax, DWORD PTR _pos$[ebp]
	movss	DWORD PTR [eax+8], xmm0

; 2003 : 		return;

	jmp	$LN12@ReceptorRe
$LN11@ReceptorRe:

; 2004 : 	}
; 2005 : 
; 2006 : 	Tpoint recWPos;
; 2007 : 	Tpoint recThirstyRelPos;
; 2008 : 
; 2009 : // 15NOV03 - FRB - Need to use the <fm>.dat refuelLocation
; 2010 : 		((AircraftClass*)thirsty)->af->GetRefuelPosition(&recThirstyRelPos);

	lea	ecx, DWORD PTR _recThirstyRelPos$[ebp]
	push	ecx
	mov	edx, DWORD PTR _thirsty$[ebp]
	mov	ecx, DWORD PTR [edx+932]
	call	?GetRefuelPosition@AirframeClass@@QAEXPAUTpoint@@@Z ; AirframeClass::GetRefuelPosition

; 2011 : 
; 2012 : 	// Use F-16 position if 0,0,0 refuelingLocation in <fm>.dat
; 2013 :   if (recThirstyRelPos.x == 0.0F && recThirstyRelPos.y == 0.0F && recThirstyRelPos.z == 0.0F) 

	movss	xmm0, DWORD PTR _recThirstyRelPos$[ebp]
	ucomiss	xmm0, DWORD PTR __real@00000000
	lahf
	test	ah, 68					; 00000044H
	jp	$LN10@ReceptorRe
	movss	xmm0, DWORD PTR _recThirstyRelPos$[ebp+4]
	ucomiss	xmm0, DWORD PTR __real@00000000
	lahf
	test	ah, 68					; 00000044H
	jp	$LN10@ReceptorRe
	movss	xmm0, DWORD PTR _recThirstyRelPos$[ebp+8]
	ucomiss	xmm0, DWORD PTR __real@00000000
	lahf
	test	ah, 68					; 00000044H
	jp	$LN10@ReceptorRe

; 2014 : 	{
; 2015 : 		if(ServiceType == BOOM_SERVICE)

	mov	eax, DWORD PTR _this$[ebp]
	cmp	DWORD PTR [eax+1196], 20		; 00000014H
	jne	SHORT $LN9@ReceptorRe

; 2016 : 		{
; 2017 : 			recThirstyRelPos.x = 0.0F + BoomRFPos.x; // F-16's refueling port location

	mov	ecx, DWORD PTR _this$[ebp]
	movss	xmm0, DWORD PTR __real@00000000
	addss	xmm0, DWORD PTR [ecx+1008]
	movss	DWORD PTR _recThirstyRelPos$[ebp], xmm0

; 2018 : 			recThirstyRelPos.y = 0.0F + BoomRFPos.y;

	mov	edx, DWORD PTR _this$[ebp]
	movss	xmm0, DWORD PTR __real@00000000
	addss	xmm0, DWORD PTR [edx+1012]
	movss	DWORD PTR _recThirstyRelPos$[ebp+4], xmm0

; 2019 : 			recThirstyRelPos.z = -3.0F + BoomRFPos.z;

	mov	eax, DWORD PTR _this$[ebp]
	movss	xmm0, DWORD PTR __real@c0400000
	addss	xmm0, DWORD PTR [eax+1016]
	movss	DWORD PTR _recThirstyRelPos$[ebp+8], xmm0

; 2020 : 		}
; 2021 : 		else // Drogue tankers

	jmp	SHORT $LN6@ReceptorRe
$LN9@ReceptorRe:

; 2022 : 		{
; 2023 : 			// if nothing set, use nose of a/c
; 2024 : 	    if (thirsty->drawPointer) 

	mov	ecx, DWORD PTR _thirsty$[ebp]
	cmp	DWORD PTR [ecx+332], 0
	je	SHORT $LN7@ReceptorRe

; 2025 : 			{
; 2026 : //				((DrawableBSP*)thirsty->drawPointer)->GetBoundingBox(&minB, &maxB);
; 2027 : 				rad = ((DrawableBSP*)thirsty->drawPointer)->Radius();	// Use Parent record radius since BoundingBox +X may be changed to decrease a/c hitbox

	mov	edx, DWORD PTR _thirsty$[ebp]
	mov	ecx, DWORD PTR [edx+332]
	call	?Radius@DrawableObject@@QBEMXZ		; DrawableObject::Radius
	fstp	DWORD PTR _rad$[ebp]

; 2028 : 				recThirstyRelPos.x = rad;

	movss	xmm0, DWORD PTR _rad$[ebp]
	movss	DWORD PTR _recThirstyRelPos$[ebp], xmm0

; 2029 : 				recThirstyRelPos.y = 0.0F;

	movss	xmm0, DWORD PTR __real@00000000
	movss	DWORD PTR _recThirstyRelPos$[ebp+4], xmm0

; 2030 : 				recThirstyRelPos.z = 0.0F;

	movss	xmm0, DWORD PTR __real@00000000
	movss	DWORD PTR _recThirstyRelPos$[ebp+8], xmm0

; 2031 : 	    }
; 2032 : 			else

	jmp	SHORT $LN6@ReceptorRe
$LN7@ReceptorRe:

; 2033 : 			{
; 2034 : 				recThirstyRelPos.x = IL78HACKX;

	movss	xmm0, DWORD PTR __real@41c80000
	movss	DWORD PTR _recThirstyRelPos$[ebp], xmm0

; 2035 : 				recThirstyRelPos.y = 0.0F;

	movss	xmm0, DWORD PTR __real@00000000
	movss	DWORD PTR _recThirstyRelPos$[ebp+4], xmm0

; 2036 : 				recThirstyRelPos.z = 0.0F;

	movss	xmm0, DWORD PTR __real@00000000
	movss	DWORD PTR _recThirstyRelPos$[ebp+8], xmm0
$LN6@ReceptorRe:

; 2037 : 			}
; 2038 : 		}

	jmp	SHORT $LN4@ReceptorRe
$LN10@ReceptorRe:

; 2039 : 	}
; 2040 : 	else if (ServiceType == BOOM_SERVICE) // FRB - Tanker-specific Adjustments

	mov	eax, DWORD PTR _this$[ebp]
	cmp	DWORD PTR [eax+1196], 20		; 00000014H
	jne	SHORT $LN4@ReceptorRe

; 2041 : 	{
; 2042 : 		recThirstyRelPos.x += BoomRFPos.x; 

	mov	ecx, DWORD PTR _this$[ebp]
	movss	xmm0, DWORD PTR _recThirstyRelPos$[ebp]
	addss	xmm0, DWORD PTR [ecx+1008]
	movss	DWORD PTR _recThirstyRelPos$[ebp], xmm0

; 2043 : 		recThirstyRelPos.y += BoomRFPos.y;

	mov	edx, DWORD PTR _this$[ebp]
	movss	xmm0, DWORD PTR _recThirstyRelPos$[ebp+4]
	addss	xmm0, DWORD PTR [edx+1012]
	movss	DWORD PTR _recThirstyRelPos$[ebp+4], xmm0

; 2044 : 		recThirstyRelPos.z += BoomRFPos.z;

	mov	eax, DWORD PTR _this$[ebp]
	movss	xmm0, DWORD PTR _recThirstyRelPos$[ebp+8]
	addss	xmm0, DWORD PTR [eax+1016]
	movss	DWORD PTR _recThirstyRelPos$[ebp+8], xmm0
$LN4@ReceptorRe:

; 2045 : 	}
; 2046 : // 15NOV03 - FRB - end
; 2047 : 
; 2048 : 	MatrixMult( &((DrawableBSP*)thirsty->drawPointer)->orientation, &recThirstyRelPos, &recWPos );

	lea	ecx, DWORD PTR _recWPos$[ebp]
	push	ecx
	lea	edx, DWORD PTR _recThirstyRelPos$[ebp]
	push	edx
	mov	eax, DWORD PTR _thirsty$[ebp]
	mov	ecx, DWORD PTR [eax+332]
	add	ecx, 48					; 00000030H
	push	ecx
	call	?MatrixMult@@YAXPBUTrotation@@PBUTpoint@@PAU2@@Z ; MatrixMult
	add	esp, 12					; 0000000cH

; 2049 : 	recWPos.x += thirsty->XPos()- self->XPos();

	mov	ecx, DWORD PTR _thirsty$[ebp]
	call	?XPos@VuEntity@@QBEMXZ			; VuEntity::XPos
	fstp	DWORD PTR tv467[ebp]
	movss	xmm0, DWORD PTR tv467[ebp]
	mov	edx, DWORD PTR _this$[ebp]
	mov	ecx, DWORD PTR [edx+56]
	movss	DWORD PTR tv553[ebp], xmm0
	call	?XPos@VuEntity@@QBEMXZ			; VuEntity::XPos
	fstp	DWORD PTR tv472[ebp]
	movss	xmm0, DWORD PTR tv553[ebp]
	subss	xmm0, DWORD PTR tv472[ebp]
	addss	xmm0, DWORD PTR _recWPos$[ebp]
	movss	DWORD PTR _recWPos$[ebp], xmm0

; 2050 : 	recWPos.y += thirsty->YPos()- self->YPos();

	mov	ecx, DWORD PTR _thirsty$[ebp]
	call	?YPos@VuEntity@@QBEMXZ			; VuEntity::YPos
	fstp	DWORD PTR tv477[ebp]
	movss	xmm0, DWORD PTR tv477[ebp]
	mov	eax, DWORD PTR _this$[ebp]
	mov	ecx, DWORD PTR [eax+56]
	movss	DWORD PTR tv555[ebp], xmm0
	call	?YPos@VuEntity@@QBEMXZ			; VuEntity::YPos
	fstp	DWORD PTR tv482[ebp]
	movss	xmm0, DWORD PTR tv555[ebp]
	subss	xmm0, DWORD PTR tv482[ebp]
	addss	xmm0, DWORD PTR _recWPos$[ebp+4]
	movss	DWORD PTR _recWPos$[ebp+4], xmm0

; 2051 : 	recWPos.z += thirsty->ZPos()- self->ZPos();

	mov	ecx, DWORD PTR _thirsty$[ebp]
	call	?ZPos@VuEntity@@QBEMXZ			; VuEntity::ZPos
	fstp	DWORD PTR tv487[ebp]
	movss	xmm0, DWORD PTR tv487[ebp]
	mov	ecx, DWORD PTR _this$[ebp]
	mov	ecx, DWORD PTR [ecx+56]
	movss	DWORD PTR tv557[ebp], xmm0
	call	?ZPos@VuEntity@@QBEMXZ			; VuEntity::ZPos
	fstp	DWORD PTR tv492[ebp]
	movss	xmm0, DWORD PTR tv557[ebp]
	subss	xmm0, DWORD PTR tv492[ebp]
	addss	xmm0, DWORD PTR _recWPos$[ebp+8]
	movss	DWORD PTR _recWPos$[ebp+8], xmm0

; 2052 : 
; 2053 : 	if (thirsty->LastUpdateTime() == vuxGameTime)

	mov	ecx, DWORD PTR _thirsty$[ebp]
	call	?LastUpdateTime@VuEntity@@QBEKXZ	; VuEntity::LastUpdateTime
	cmp	eax, DWORD PTR ?vuxGameTime@@3KA	; vuxGameTime
	jne	SHORT $LN3@ReceptorRe

; 2054 : 	{
; 2055 : 		// Correct for different frame rates
; 2056 : 		recWPos.x -= thirsty->XDelta()*SimLibMajorFrameTime;

	mov	ecx, DWORD PTR _thirsty$[ebp]
	call	?XDelta@VuEntity@@QBEMXZ		; VuEntity::XDelta
	fstp	DWORD PTR tv498[ebp]
	movss	xmm0, DWORD PTR tv498[ebp]
	mulss	xmm0, DWORD PTR ?SimLibMajorFrameTime@@3MA
	movss	xmm1, DWORD PTR _recWPos$[ebp]
	subss	xmm1, xmm0
	movss	DWORD PTR _recWPos$[ebp], xmm1

; 2057 : 		recWPos.y -= thirsty->YDelta()*SimLibMajorFrameTime;

	mov	ecx, DWORD PTR _thirsty$[ebp]
	call	?YDelta@VuEntity@@QBEMXZ		; VuEntity::YDelta
	fstp	DWORD PTR tv503[ebp]
	movss	xmm0, DWORD PTR tv503[ebp]
	mulss	xmm0, DWORD PTR ?SimLibMajorFrameTime@@3MA
	movss	xmm1, DWORD PTR _recWPos$[ebp+4]
	subss	xmm1, xmm0
	movss	DWORD PTR _recWPos$[ebp+4], xmm1
$LN3@ReceptorRe:

; 2058 : 	}
; 2059 : 
; 2060 : 	MatrixMultTranspose( &((DrawableBSP*)self->drawPointer)->orientation, &recWPos, pos );

	mov	edx, DWORD PTR _pos$[ebp]
	push	edx
	lea	eax, DWORD PTR _recWPos$[ebp]
	push	eax
	mov	ecx, DWORD PTR _this$[ebp]
	mov	edx, DWORD PTR [ecx+56]
	mov	eax, DWORD PTR [edx+332]
	add	eax, 48					; 00000030H
	push	eax
	call	?MatrixMultTranspose@@YAXPBUTrotation@@PBUTpoint@@PAU2@@Z ; MatrixMultTranspose
	add	esp, 12					; 0000000cH

; 2061 : 
; 2062 : 	if(ServiceType == BOOM_SERVICE)

	mov	ecx, DWORD PTR _this$[ebp]
	cmp	DWORD PTR [ecx+1196], 20		; 00000014H
	jne	SHORT $LN2@ReceptorRe

; 2063 : 	{
; 2064 : 		pos->x -= boom[BOOM].rx;

	mov	edx, DWORD PTR _this$[ebp]
	mov	eax, DWORD PTR [edx+1024]
	imul	eax, 28					; 0000001cH
	mov	ecx, DWORD PTR _pos$[ebp]
	mov	edx, DWORD PTR _this$[ebp]
	movss	xmm0, DWORD PTR [ecx]
	subss	xmm0, DWORD PTR [edx+eax+1048]
	mov	eax, DWORD PTR _pos$[ebp]
	movss	DWORD PTR [eax], xmm0

; 2065 : 		pos->y -= boom[BOOM].ry;

	mov	ecx, DWORD PTR _this$[ebp]
	mov	edx, DWORD PTR [ecx+1024]
	imul	edx, 28					; 0000001cH
	mov	eax, DWORD PTR _pos$[ebp]
	mov	ecx, DWORD PTR _this$[ebp]
	movss	xmm0, DWORD PTR [eax+4]
	subss	xmm0, DWORD PTR [ecx+edx+1052]
	mov	edx, DWORD PTR _pos$[ebp]
	movss	DWORD PTR [edx+4], xmm0

; 2066 : 		pos->z -= boom[BOOM].rz;

	mov	eax, DWORD PTR _this$[ebp]
	mov	ecx, DWORD PTR [eax+1024]
	imul	ecx, 28					; 0000001cH
	mov	edx, DWORD PTR _pos$[ebp]
	mov	eax, DWORD PTR _this$[ebp]
	movss	xmm0, DWORD PTR [edx+8]
	subss	xmm0, DWORD PTR [eax+ecx+1056]
	mov	ecx, DWORD PTR _pos$[ebp]
	movss	DWORD PTR [ecx+8], xmm0

; 2067 : 	}
; 2068 : 	else

	jmp	SHORT $LN1@ReceptorRe
$LN2@ReceptorRe:

; 2069 : 	{
; 2070 : 		pos->x -= boom[DROGUE].rx;

	mov	edx, DWORD PTR _this$[ebp]
	mov	eax, DWORD PTR [edx+1020]
	imul	eax, 28					; 0000001cH
	mov	ecx, DWORD PTR _pos$[ebp]
	mov	edx, DWORD PTR _this$[ebp]
	movss	xmm0, DWORD PTR [ecx]
	subss	xmm0, DWORD PTR [edx+eax+1048]
	mov	eax, DWORD PTR _pos$[ebp]
	movss	DWORD PTR [eax], xmm0

; 2071 : 		pos->y -= boom[DROGUE].ry;

	mov	ecx, DWORD PTR _this$[ebp]
	mov	edx, DWORD PTR [ecx+1020]
	imul	edx, 28					; 0000001cH
	mov	eax, DWORD PTR _pos$[ebp]
	mov	ecx, DWORD PTR _this$[ebp]
	movss	xmm0, DWORD PTR [eax+4]
	subss	xmm0, DWORD PTR [ecx+edx+1052]
	mov	edx, DWORD PTR _pos$[ebp]
	movss	DWORD PTR [edx+4], xmm0

; 2072 : 		pos->z -= boom[DROGUE].rz;

	mov	eax, DWORD PTR _this$[ebp]
	mov	ecx, DWORD PTR [eax+1020]
	imul	ecx, 28					; 0000001cH
	mov	edx, DWORD PTR _pos$[ebp]
	mov	eax, DWORD PTR _this$[ebp]
	movss	xmm0, DWORD PTR [edx+8]
	subss	xmm0, DWORD PTR [eax+ecx+1056]
	mov	ecx, DWORD PTR _pos$[ebp]
	movss	DWORD PTR [ecx+8], xmm0
$LN1@ReceptorRe:
$LN12@ReceptorRe:

; 2073 : 	}
; 2074 : }

	mov	ecx, DWORD PTR __$ArrayPad$[ebp]
	xor	ecx, ebp
	call	@__security_check_cookie@4
	mov	esp, ebp
	pop	ebp
	ret	8
?ReceptorRelPosition@TankerBrain@@QAEXPAUTpoint@@PAVSimVehicleClass@@@Z ENDP ; TankerBrain::ReceptorRelPosition
_TEXT	ENDS
; Function compile flags: /Odtp
; File c:\users\zhitao li\documents\visual studio 2012\projects\freefalcon\sim\digi\tankbrn.cpp
_TEXT	SEGMENT
tv480 = -56						; size = 4
tv494 = -52						; size = 4
tv459 = -48						; size = 4
tv492 = -44						; size = 4
tv438 = -40						; size = 4
tv490 = -36						; size = 4
tv417 = -32						; size = 4
tv488 = -28						; size = 4
tv396 = -24						; size = 4
tv486 = -20						; size = 4
tv375 = -16						; size = 4
tv484 = -12						; size = 4
_orientation$ = -8					; size = 4
_this$ = -4						; size = 4
_pos$ = 8						; size = 4
?BoomWorldPosition@TankerBrain@@QAEXPAUTpoint@@@Z PROC	; TankerBrain::BoomWorldPosition
; _this$ = ecx

; 1972 : {

	push	ebp
	mov	ebp, esp
	sub	esp, 56					; 00000038H
	mov	DWORD PTR _this$[ebp], ecx

; 1973 : 	Trotation *orientation = &((DrawableBSP*)self->drawPointer)->orientation;

	mov	eax, DWORD PTR _this$[ebp]
	mov	ecx, DWORD PTR [eax+56]
	mov	edx, DWORD PTR [ecx+332]
	add	edx, 48					; 00000030H
	mov	DWORD PTR _orientation$[ebp], edx

; 1974 : 
; 1975 : 	if(ServiceType == BOOM_SERVICE)

	mov	eax, DWORD PTR _this$[ebp]
	cmp	DWORD PTR [eax+1196], 20		; 00000014H
	jne	$LN2@BoomWorldP

; 1976 : 	{
; 1977 : 		pos->x = orientation->M11*boom[BOOM].rx + orientation->M12*boom[BOOM].ry + orientation->M13*boom[BOOM].rz + self->XPos();

	mov	ecx, DWORD PTR _this$[ebp]
	mov	edx, DWORD PTR [ecx+1024]
	imul	edx, 28					; 0000001cH
	mov	eax, DWORD PTR _orientation$[ebp]
	mov	ecx, DWORD PTR _this$[ebp]
	movss	xmm0, DWORD PTR [eax]
	mulss	xmm0, DWORD PTR [ecx+edx+1048]
	mov	edx, DWORD PTR _this$[ebp]
	mov	eax, DWORD PTR [edx+1024]
	imul	eax, 28					; 0000001cH
	mov	ecx, DWORD PTR _orientation$[ebp]
	mov	edx, DWORD PTR _this$[ebp]
	movss	xmm1, DWORD PTR [ecx+4]
	mulss	xmm1, DWORD PTR [edx+eax+1052]
	addss	xmm0, xmm1
	mov	eax, DWORD PTR _this$[ebp]
	mov	ecx, DWORD PTR [eax+1024]
	imul	ecx, 28					; 0000001cH
	mov	edx, DWORD PTR _orientation$[ebp]
	mov	eax, DWORD PTR _this$[ebp]
	movss	xmm1, DWORD PTR [edx+8]
	mulss	xmm1, DWORD PTR [eax+ecx+1056]
	addss	xmm0, xmm1
	mov	ecx, DWORD PTR _this$[ebp]
	mov	ecx, DWORD PTR [ecx+56]
	movss	DWORD PTR tv484[ebp], xmm0
	call	?XPos@VuEntity@@QBEMXZ			; VuEntity::XPos
	fstp	DWORD PTR tv375[ebp]
	movss	xmm0, DWORD PTR tv484[ebp]
	addss	xmm0, DWORD PTR tv375[ebp]
	mov	edx, DWORD PTR _pos$[ebp]
	movss	DWORD PTR [edx], xmm0

; 1978 : 		pos->y = orientation->M21*boom[BOOM].rx + orientation->M22*boom[BOOM].ry + orientation->M23*boom[BOOM].rz + self->YPos();

	mov	eax, DWORD PTR _this$[ebp]
	mov	ecx, DWORD PTR [eax+1024]
	imul	ecx, 28					; 0000001cH
	mov	edx, DWORD PTR _orientation$[ebp]
	mov	eax, DWORD PTR _this$[ebp]
	movss	xmm0, DWORD PTR [edx+12]
	mulss	xmm0, DWORD PTR [eax+ecx+1048]
	mov	ecx, DWORD PTR _this$[ebp]
	mov	edx, DWORD PTR [ecx+1024]
	imul	edx, 28					; 0000001cH
	mov	eax, DWORD PTR _orientation$[ebp]
	mov	ecx, DWORD PTR _this$[ebp]
	movss	xmm1, DWORD PTR [eax+16]
	mulss	xmm1, DWORD PTR [ecx+edx+1052]
	addss	xmm0, xmm1
	mov	edx, DWORD PTR _this$[ebp]
	mov	eax, DWORD PTR [edx+1024]
	imul	eax, 28					; 0000001cH
	mov	ecx, DWORD PTR _orientation$[ebp]
	mov	edx, DWORD PTR _this$[ebp]
	movss	xmm1, DWORD PTR [ecx+20]
	mulss	xmm1, DWORD PTR [edx+eax+1056]
	addss	xmm0, xmm1
	mov	eax, DWORD PTR _this$[ebp]
	mov	ecx, DWORD PTR [eax+56]
	movss	DWORD PTR tv486[ebp], xmm0
	call	?YPos@VuEntity@@QBEMXZ			; VuEntity::YPos
	fstp	DWORD PTR tv396[ebp]
	movss	xmm0, DWORD PTR tv486[ebp]
	addss	xmm0, DWORD PTR tv396[ebp]
	mov	ecx, DWORD PTR _pos$[ebp]
	movss	DWORD PTR [ecx+4], xmm0

; 1979 : 		pos->z = orientation->M31*boom[BOOM].rx + orientation->M32*boom[BOOM].ry + orientation->M33*boom[BOOM].rz + self->ZPos();

	mov	edx, DWORD PTR _this$[ebp]
	mov	eax, DWORD PTR [edx+1024]
	imul	eax, 28					; 0000001cH
	mov	ecx, DWORD PTR _orientation$[ebp]
	mov	edx, DWORD PTR _this$[ebp]
	movss	xmm0, DWORD PTR [ecx+24]
	mulss	xmm0, DWORD PTR [edx+eax+1048]
	mov	eax, DWORD PTR _this$[ebp]
	mov	ecx, DWORD PTR [eax+1024]
	imul	ecx, 28					; 0000001cH
	mov	edx, DWORD PTR _orientation$[ebp]
	mov	eax, DWORD PTR _this$[ebp]
	movss	xmm1, DWORD PTR [edx+28]
	mulss	xmm1, DWORD PTR [eax+ecx+1052]
	addss	xmm0, xmm1
	mov	ecx, DWORD PTR _this$[ebp]
	mov	edx, DWORD PTR [ecx+1024]
	imul	edx, 28					; 0000001cH
	mov	eax, DWORD PTR _orientation$[ebp]
	mov	ecx, DWORD PTR _this$[ebp]
	movss	xmm1, DWORD PTR [eax+32]
	mulss	xmm1, DWORD PTR [ecx+edx+1056]
	addss	xmm0, xmm1
	mov	edx, DWORD PTR _this$[ebp]
	mov	ecx, DWORD PTR [edx+56]
	movss	DWORD PTR tv488[ebp], xmm0
	call	?ZPos@VuEntity@@QBEMXZ			; VuEntity::ZPos
	fstp	DWORD PTR tv417[ebp]
	movss	xmm0, DWORD PTR tv488[ebp]
	addss	xmm0, DWORD PTR tv417[ebp]
	mov	eax, DWORD PTR _pos$[ebp]
	movss	DWORD PTR [eax+8], xmm0

; 1980 : 	}
; 1981 : 	else

	jmp	$LN1@BoomWorldP
$LN2@BoomWorldP:

; 1982 : 	{
; 1983 : 		pos->x = orientation->M11*boom[DROGUE].rx + orientation->M12*boom[DROGUE].ry + orientation->M13*boom[DROGUE].rz + self->XPos();

	mov	ecx, DWORD PTR _this$[ebp]
	mov	edx, DWORD PTR [ecx+1020]
	imul	edx, 28					; 0000001cH
	mov	eax, DWORD PTR _orientation$[ebp]
	mov	ecx, DWORD PTR _this$[ebp]
	movss	xmm0, DWORD PTR [eax]
	mulss	xmm0, DWORD PTR [ecx+edx+1048]
	mov	edx, DWORD PTR _this$[ebp]
	mov	eax, DWORD PTR [edx+1020]
	imul	eax, 28					; 0000001cH
	mov	ecx, DWORD PTR _orientation$[ebp]
	mov	edx, DWORD PTR _this$[ebp]
	movss	xmm1, DWORD PTR [ecx+4]
	mulss	xmm1, DWORD PTR [edx+eax+1052]
	addss	xmm0, xmm1
	mov	eax, DWORD PTR _this$[ebp]
	mov	ecx, DWORD PTR [eax+1020]
	imul	ecx, 28					; 0000001cH
	mov	edx, DWORD PTR _orientation$[ebp]
	mov	eax, DWORD PTR _this$[ebp]
	movss	xmm1, DWORD PTR [edx+8]
	mulss	xmm1, DWORD PTR [eax+ecx+1056]
	addss	xmm0, xmm1
	mov	ecx, DWORD PTR _this$[ebp]
	mov	ecx, DWORD PTR [ecx+56]
	movss	DWORD PTR tv490[ebp], xmm0
	call	?XPos@VuEntity@@QBEMXZ			; VuEntity::XPos
	fstp	DWORD PTR tv438[ebp]
	movss	xmm0, DWORD PTR tv490[ebp]
	addss	xmm0, DWORD PTR tv438[ebp]
	mov	edx, DWORD PTR _pos$[ebp]
	movss	DWORD PTR [edx], xmm0

; 1984 : 		pos->y = orientation->M21*boom[DROGUE].rx + orientation->M22*boom[DROGUE].ry + orientation->M23*boom[DROGUE].rz + self->YPos();

	mov	eax, DWORD PTR _this$[ebp]
	mov	ecx, DWORD PTR [eax+1020]
	imul	ecx, 28					; 0000001cH
	mov	edx, DWORD PTR _orientation$[ebp]
	mov	eax, DWORD PTR _this$[ebp]
	movss	xmm0, DWORD PTR [edx+12]
	mulss	xmm0, DWORD PTR [eax+ecx+1048]
	mov	ecx, DWORD PTR _this$[ebp]
	mov	edx, DWORD PTR [ecx+1020]
	imul	edx, 28					; 0000001cH
	mov	eax, DWORD PTR _orientation$[ebp]
	mov	ecx, DWORD PTR _this$[ebp]
	movss	xmm1, DWORD PTR [eax+16]
	mulss	xmm1, DWORD PTR [ecx+edx+1052]
	addss	xmm0, xmm1
	mov	edx, DWORD PTR _this$[ebp]
	mov	eax, DWORD PTR [edx+1020]
	imul	eax, 28					; 0000001cH
	mov	ecx, DWORD PTR _orientation$[ebp]
	mov	edx, DWORD PTR _this$[ebp]
	movss	xmm1, DWORD PTR [ecx+20]
	mulss	xmm1, DWORD PTR [edx+eax+1056]
	addss	xmm0, xmm1
	mov	eax, DWORD PTR _this$[ebp]
	mov	ecx, DWORD PTR [eax+56]
	movss	DWORD PTR tv492[ebp], xmm0
	call	?YPos@VuEntity@@QBEMXZ			; VuEntity::YPos
	fstp	DWORD PTR tv459[ebp]
	movss	xmm0, DWORD PTR tv492[ebp]
	addss	xmm0, DWORD PTR tv459[ebp]
	mov	ecx, DWORD PTR _pos$[ebp]
	movss	DWORD PTR [ecx+4], xmm0

; 1985 : 		pos->z = orientation->M31*boom[DROGUE].rx + orientation->M32*boom[DROGUE].ry + orientation->M33*boom[DROGUE].rz + self->ZPos();

	mov	edx, DWORD PTR _this$[ebp]
	mov	eax, DWORD PTR [edx+1020]
	imul	eax, 28					; 0000001cH
	mov	ecx, DWORD PTR _orientation$[ebp]
	mov	edx, DWORD PTR _this$[ebp]
	movss	xmm0, DWORD PTR [ecx+24]
	mulss	xmm0, DWORD PTR [edx+eax+1048]
	mov	eax, DWORD PTR _this$[ebp]
	mov	ecx, DWORD PTR [eax+1020]
	imul	ecx, 28					; 0000001cH
	mov	edx, DWORD PTR _orientation$[ebp]
	mov	eax, DWORD PTR _this$[ebp]
	movss	xmm1, DWORD PTR [edx+28]
	mulss	xmm1, DWORD PTR [eax+ecx+1052]
	addss	xmm0, xmm1
	mov	ecx, DWORD PTR _this$[ebp]
	mov	edx, DWORD PTR [ecx+1020]
	imul	edx, 28					; 0000001cH
	mov	eax, DWORD PTR _orientation$[ebp]
	mov	ecx, DWORD PTR _this$[ebp]
	movss	xmm1, DWORD PTR [eax+32]
	mulss	xmm1, DWORD PTR [ecx+edx+1056]
	addss	xmm0, xmm1
	mov	edx, DWORD PTR _this$[ebp]
	mov	ecx, DWORD PTR [edx+56]
	movss	DWORD PTR tv494[ebp], xmm0
	call	?ZPos@VuEntity@@QBEMXZ			; VuEntity::ZPos
	fstp	DWORD PTR tv480[ebp]
	movss	xmm0, DWORD PTR tv494[ebp]
	addss	xmm0, DWORD PTR tv480[ebp]
	mov	eax, DWORD PTR _pos$[ebp]
	movss	DWORD PTR [eax+8], xmm0
$LN1@BoomWorldP:

; 1986 : 	}
; 1987 : 	return;
; 1988 : }

	mov	esp, ebp
	pop	ebp
	ret	4
?BoomWorldPosition@TankerBrain@@QAEXPAUTpoint@@@Z ENDP	; TankerBrain::BoomWorldPosition
_TEXT	ENDS
; Function compile flags: /Odtp
; File c:\users\zhitao li\documents\visual studio 2012\projects\freefalcon\sim\digi\tankbrn.cpp
_TEXT	SEGMENT
tv768 = -96						; size = 4
_rad$1 = -92						; size = 4
tv979 = -88						; size = 4
tv816 = -84						; size = 4
tv971 = -80						; size = 4
tv832 = -76						; size = 4
tv963 = -72						; size = 4
tv792 = -68						; size = 4
tv995 = -64						; size = 4
tv985 = -60						; size = 4
tv939 = -56						; size = 4
tv824 = -52						; size = 4
tv993 = -48						; size = 4
tv989 = -44						; size = 4
tv915 = -40						; size = 4
tv987 = -36						; size = 4
tv991 = -32						; size = 4
_rad$2 = -28						; size = 4
_orientation$ = -24					; size = 4
_this$ = -20						; size = 4
_boompos$ = -16						; size = 12
__$ArrayPad$ = -4					; size = 4
_pos$ = 8						; size = 4
?OptTankingPosition@TankerBrain@@QAEXPAUTpoint@@@Z PROC	; TankerBrain::OptTankingPosition
; _this$ = ecx

; 2124 : {

	push	ebp
	mov	ebp, esp
	sub	esp, 96					; 00000060H
	mov	eax, DWORD PTR ___security_cookie
	xor	eax, ebp
	mov	DWORD PTR __$ArrayPad$[ebp], eax
	mov	DWORD PTR _this$[ebp], ecx

; 2125 : 	Tpoint boompos;
; 2126 : 
; 2127 : 	boompos.x = boompos.y = boompos.z = 0;

	movss	xmm0, DWORD PTR __real@00000000
	movss	DWORD PTR _boompos$[ebp+8], xmm0
	movss	xmm0, DWORD PTR _boompos$[ebp+8]
	movss	DWORD PTR _boompos$[ebp+4], xmm0
	movss	xmm0, DWORD PTR _boompos$[ebp+4]
	movss	DWORD PTR _boompos$[ebp], xmm0

; 2128 : 
; 2129 : 	if(!self->drawPointer)

	mov	eax, DWORD PTR _this$[ebp]
	mov	ecx, DWORD PTR [eax+56]
	cmp	DWORD PTR [ecx+332], 0
	jne	SHORT $LN18@OptTanking

; 2130 : 	{
; 2131 : 		pos->x = self->XPos();

	mov	edx, DWORD PTR _this$[ebp]
	mov	ecx, DWORD PTR [edx+56]
	call	?XPos@VuEntity@@QBEMXZ			; VuEntity::XPos
	mov	eax, DWORD PTR _pos$[ebp]
	fstp	DWORD PTR [eax]

; 2132 : 		pos->y = self->YPos();

	mov	ecx, DWORD PTR _this$[ebp]
	mov	ecx, DWORD PTR [ecx+56]
	call	?YPos@VuEntity@@QBEMXZ			; VuEntity::YPos
	mov	edx, DWORD PTR _pos$[ebp]
	fstp	DWORD PTR [edx+4]

; 2133 : 		pos->z = self->ZPos();

	mov	eax, DWORD PTR _this$[ebp]
	mov	ecx, DWORD PTR [eax+56]
	call	?ZPos@VuEntity@@QBEMXZ			; VuEntity::ZPos
	mov	ecx, DWORD PTR _pos$[ebp]
	fstp	DWORD PTR [ecx+8]

; 2134 : 		return;

	jmp	$LN19@OptTanking
$LN18@OptTanking:

; 2135 : 	}
; 2136 : 	Trotation *orientation = &((DrawableBSP*)self->drawPointer)->orientation;

	mov	edx, DWORD PTR _this$[ebp]
	mov	eax, DWORD PTR [edx+56]
	mov	ecx, DWORD PTR [eax+332]
	add	ecx, 48					; 00000030H
	mov	DWORD PTR _orientation$[ebp], ecx

; 2137 : 	if(ServiceType == BOOM_SERVICE)

	mov	edx, DWORD PTR _this$[ebp]
	cmp	DWORD PTR [edx+1196], 20		; 00000014H
	jne	$LN17@OptTanking

; 2138 : 	{
; 2139 : 	    if (curThirsty && curThirsty->IsAirplane() && ((AircraftClass*)curThirsty)->af) 

	mov	eax, DWORD PTR _this$[ebp]
	cmp	DWORD PTR [eax+980], 0
	je	$LN12@OptTanking
	mov	ecx, DWORD PTR _this$[ebp]
	mov	edx, DWORD PTR [ecx+980]
	mov	eax, DWORD PTR _this$[ebp]
	mov	edx, DWORD PTR [edx]
	mov	ecx, DWORD PTR [eax+980]
	mov	eax, DWORD PTR [edx+192]
	call	eax
	test	eax, eax
	je	$LN12@OptTanking
	mov	ecx, DWORD PTR _this$[ebp]
	mov	edx, DWORD PTR [ecx+980]
	cmp	DWORD PTR [edx+932], 0
	je	$LN12@OptTanking

; 2140 : 			{
; 2141 : 				((AircraftClass*)curThirsty)->af->GetRefuelPosition(&boompos);

	lea	eax, DWORD PTR _boompos$[ebp]
	push	eax
	mov	ecx, DWORD PTR _this$[ebp]
	mov	edx, DWORD PTR [ecx+980]
	mov	ecx, DWORD PTR [edx+932]
	call	?GetRefuelPosition@AirframeClass@@QAEXPAUTpoint@@@Z ; AirframeClass::GetRefuelPosition

; 2142 : 	// 15NOV03 - FRB - Adjust F-16 rf boom position to match current a/c rf port location
; 2143 : 				// if nothing set, use F-16 default
; 2144 : 				if (boompos.x == 0 && boompos.y ==0 && boompos.z == 0) 

	movss	xmm0, DWORD PTR _boompos$[ebp]
	ucomiss	xmm0, DWORD PTR __real@00000000
	lahf
	test	ah, 68					; 00000044H
	jp	SHORT $LN15@OptTanking
	movss	xmm0, DWORD PTR _boompos$[ebp+4]
	ucomiss	xmm0, DWORD PTR __real@00000000
	lahf
	test	ah, 68					; 00000044H
	jp	SHORT $LN15@OptTanking
	movss	xmm0, DWORD PTR _boompos$[ebp+8]
	ucomiss	xmm0, DWORD PTR __real@00000000
	lahf
	test	ah, 68					; 00000044H
	jp	SHORT $LN15@OptTanking

; 2145 : 				{
; 2146 : 					boompos.x = STDPOSX;

	movss	xmm0, DWORD PTR __real@c21e8ebe
	movss	DWORD PTR _boompos$[ebp], xmm0

; 2147 : //					boompos.y = BoomRFPos.y;
; 2148 : 					boompos.z = STDPOSZ;

	movss	xmm0, DWORD PTR __real@41ca0650
	movss	DWORD PTR _boompos$[ebp+8], xmm0

; 2149 : 				}
; 2150 : 				else

	jmp	SHORT $LN12@OptTanking
$LN15@OptTanking:

; 2151 : 				{
; 2152 : 					boompos.x = -boompos.x + STDPOSX;

	movss	xmm0, DWORD PTR _boompos$[ebp]
	xorps	xmm0, DWORD PTR __xmm@80000000800000008000000080000000
	addss	xmm0, DWORD PTR __real@c21e8ebe
	movss	DWORD PTR _boompos$[ebp], xmm0

; 2153 : 					boompos.y = -boompos.y;

	movss	xmm0, DWORD PTR _boompos$[ebp+4]
	xorps	xmm0, DWORD PTR __xmm@80000000800000008000000080000000
	movss	DWORD PTR _boompos$[ebp+4], xmm0

; 2154 : 					if (boompos.z)

	movss	xmm0, DWORD PTR _boompos$[ebp+8]
	ucomiss	xmm0, DWORD PTR __real@00000000
	lahf
	test	ah, 68					; 00000044H
	jnp	SHORT $LN13@OptTanking

; 2155 : 						boompos.z = -(boompos.z + 3.0F) + STDPOSZ;

	movss	xmm0, DWORD PTR _boompos$[ebp+8]
	addss	xmm0, DWORD PTR __real@40400000
	xorps	xmm0, DWORD PTR __xmm@80000000800000008000000080000000
	addss	xmm0, DWORD PTR __real@41ca0650
	movss	DWORD PTR _boompos$[ebp+8], xmm0

; 2156 : 					else

	jmp	SHORT $LN12@OptTanking
$LN13@OptTanking:

; 2157 : 						boompos.z = STDPOSZ;

	movss	xmm0, DWORD PTR __real@41ca0650
	movss	DWORD PTR _boompos$[ebp+8], xmm0
$LN12@OptTanking:

; 2158 : 				}
; 2159 : 			}
; 2160 : 
; 2161 : 		pos->x = orientation->M11*(boom[BOOM].rx + boompos.x) + orientation->M12*(boom[BOOM].ry + boompos.y) + orientation->M13*(boom[BOOM].rz + boompos.z) + self->XPos();

	mov	eax, DWORD PTR _this$[ebp]
	mov	ecx, DWORD PTR [eax+1024]
	imul	ecx, 28					; 0000001cH
	mov	edx, DWORD PTR _this$[ebp]
	movss	xmm0, DWORD PTR [edx+ecx+1048]
	addss	xmm0, DWORD PTR _boompos$[ebp]
	mov	eax, DWORD PTR _orientation$[ebp]
	mulss	xmm0, DWORD PTR [eax]
	mov	ecx, DWORD PTR _this$[ebp]
	mov	edx, DWORD PTR [ecx+1024]
	imul	edx, 28					; 0000001cH
	mov	eax, DWORD PTR _this$[ebp]
	movss	xmm1, DWORD PTR [eax+edx+1052]
	addss	xmm1, DWORD PTR _boompos$[ebp+4]
	mov	ecx, DWORD PTR _orientation$[ebp]
	mulss	xmm1, DWORD PTR [ecx+4]
	addss	xmm0, xmm1
	mov	edx, DWORD PTR _this$[ebp]
	mov	eax, DWORD PTR [edx+1024]
	imul	eax, 28					; 0000001cH
	mov	ecx, DWORD PTR _this$[ebp]
	movss	xmm1, DWORD PTR [ecx+eax+1056]
	addss	xmm1, DWORD PTR _boompos$[ebp+8]
	mov	edx, DWORD PTR _orientation$[ebp]
	mulss	xmm1, DWORD PTR [edx+8]
	addss	xmm0, xmm1
	mov	eax, DWORD PTR _this$[ebp]
	mov	ecx, DWORD PTR [eax+56]
	movss	DWORD PTR tv985[ebp], xmm0
	call	?XPos@VuEntity@@QBEMXZ			; VuEntity::XPos
	fstp	DWORD PTR tv768[ebp]
	movss	xmm0, DWORD PTR tv985[ebp]
	addss	xmm0, DWORD PTR tv768[ebp]
	mov	ecx, DWORD PTR _pos$[ebp]
	movss	DWORD PTR [ecx], xmm0

; 2162 : 		pos->y = orientation->M21*(boom[BOOM].rx + boompos.x) + orientation->M22*(boom[BOOM].ry + boompos.y) + orientation->M23*(boom[BOOM].rz + boompos.z) + self->YPos();

	mov	edx, DWORD PTR _this$[ebp]
	mov	eax, DWORD PTR [edx+1024]
	imul	eax, 28					; 0000001cH
	mov	ecx, DWORD PTR _this$[ebp]
	movss	xmm0, DWORD PTR [ecx+eax+1048]
	addss	xmm0, DWORD PTR _boompos$[ebp]
	mov	edx, DWORD PTR _orientation$[ebp]
	mulss	xmm0, DWORD PTR [edx+12]
	mov	eax, DWORD PTR _this$[ebp]
	mov	ecx, DWORD PTR [eax+1024]
	imul	ecx, 28					; 0000001cH
	mov	edx, DWORD PTR _this$[ebp]
	movss	xmm1, DWORD PTR [edx+ecx+1052]
	addss	xmm1, DWORD PTR _boompos$[ebp+4]
	mov	eax, DWORD PTR _orientation$[ebp]
	mulss	xmm1, DWORD PTR [eax+16]
	addss	xmm0, xmm1
	mov	ecx, DWORD PTR _this$[ebp]
	mov	edx, DWORD PTR [ecx+1024]
	imul	edx, 28					; 0000001cH
	mov	eax, DWORD PTR _this$[ebp]
	movss	xmm1, DWORD PTR [eax+edx+1056]
	addss	xmm1, DWORD PTR _boompos$[ebp+8]
	mov	ecx, DWORD PTR _orientation$[ebp]
	mulss	xmm1, DWORD PTR [ecx+20]
	addss	xmm0, xmm1
	mov	edx, DWORD PTR _this$[ebp]
	mov	ecx, DWORD PTR [edx+56]
	movss	DWORD PTR tv987[ebp], xmm0
	call	?YPos@VuEntity@@QBEMXZ			; VuEntity::YPos
	fstp	DWORD PTR tv792[ebp]
	movss	xmm0, DWORD PTR tv987[ebp]
	addss	xmm0, DWORD PTR tv792[ebp]
	mov	eax, DWORD PTR _pos$[ebp]
	movss	DWORD PTR [eax+4], xmm0

; 2163 : 		pos->z = orientation->M31*(boom[BOOM].rx + boompos.x) + orientation->M32*(boom[BOOM].ry + boompos.y) + orientation->M33*(boom[BOOM].rz + boompos.z) + self->ZPos();

	mov	ecx, DWORD PTR _this$[ebp]
	mov	edx, DWORD PTR [ecx+1024]
	imul	edx, 28					; 0000001cH
	mov	eax, DWORD PTR _this$[ebp]
	movss	xmm0, DWORD PTR [eax+edx+1048]
	addss	xmm0, DWORD PTR _boompos$[ebp]
	mov	ecx, DWORD PTR _orientation$[ebp]
	mulss	xmm0, DWORD PTR [ecx+24]
	mov	edx, DWORD PTR _this$[ebp]
	mov	eax, DWORD PTR [edx+1024]
	imul	eax, 28					; 0000001cH
	mov	ecx, DWORD PTR _this$[ebp]
	movss	xmm1, DWORD PTR [ecx+eax+1052]
	addss	xmm1, DWORD PTR _boompos$[ebp+4]
	mov	edx, DWORD PTR _orientation$[ebp]
	mulss	xmm1, DWORD PTR [edx+28]
	addss	xmm0, xmm1
	mov	eax, DWORD PTR _this$[ebp]
	mov	ecx, DWORD PTR [eax+1024]
	imul	ecx, 28					; 0000001cH
	mov	edx, DWORD PTR _this$[ebp]
	movss	xmm1, DWORD PTR [edx+ecx+1056]
	addss	xmm1, DWORD PTR _boompos$[ebp+8]
	mov	eax, DWORD PTR _orientation$[ebp]
	mulss	xmm1, DWORD PTR [eax+32]
	addss	xmm0, xmm1
	mov	ecx, DWORD PTR _this$[ebp]
	mov	ecx, DWORD PTR [ecx+56]
	movss	DWORD PTR tv989[ebp], xmm0
	call	?ZPos@VuEntity@@QBEMXZ			; VuEntity::ZPos
	fstp	DWORD PTR tv816[ebp]
	movss	xmm0, DWORD PTR tv989[ebp]
	addss	xmm0, DWORD PTR tv816[ebp]
	mov	edx, DWORD PTR _pos$[ebp]
	movss	DWORD PTR [edx+8], xmm0

; 2164 : 
; 2165 : 		if (self->LastUpdateTime() == vuxGameTime)

	mov	eax, DWORD PTR _this$[ebp]
	mov	ecx, DWORD PTR [eax+56]
	call	?LastUpdateTime@VuEntity@@QBEKXZ	; VuEntity::LastUpdateTime
	cmp	eax, DWORD PTR ?vuxGameTime@@3KA	; vuxGameTime
	jne	SHORT $LN11@OptTanking

; 2166 : 		{
; 2167 : 			// Correct for different frame rates
; 2168 : 			pos->x -= self->XDelta()*SimLibMajorFrameTime;

	mov	ecx, DWORD PTR _this$[ebp]
	mov	ecx, DWORD PTR [ecx+56]
	call	?XDelta@VuEntity@@QBEMXZ		; VuEntity::XDelta
	fstp	DWORD PTR tv824[ebp]
	movss	xmm0, DWORD PTR tv824[ebp]
	mulss	xmm0, DWORD PTR ?SimLibMajorFrameTime@@3MA
	mov	edx, DWORD PTR _pos$[ebp]
	movss	xmm1, DWORD PTR [edx]
	subss	xmm1, xmm0
	mov	eax, DWORD PTR _pos$[ebp]
	movss	DWORD PTR [eax], xmm1

; 2169 : 			pos->y -= self->YDelta()*SimLibMajorFrameTime;

	mov	ecx, DWORD PTR _this$[ebp]
	mov	ecx, DWORD PTR [ecx+56]
	call	?YDelta@VuEntity@@QBEMXZ		; VuEntity::YDelta
	fstp	DWORD PTR tv832[ebp]
	movss	xmm0, DWORD PTR tv832[ebp]
	mulss	xmm0, DWORD PTR ?SimLibMajorFrameTime@@3MA
	mov	edx, DWORD PTR _pos$[ebp]
	movss	xmm1, DWORD PTR [edx+4]
	subss	xmm1, xmm0
	mov	eax, DWORD PTR _pos$[ebp]
	movss	DWORD PTR [eax+4], xmm1
$LN11@OptTanking:

; 2170 : 		}
; 2171 : 	}
; 2172 : 	else

	jmp	$LN1@OptTanking
$LN17@OptTanking:

; 2173 : 	{
; 2174 : 	    if (curThirsty && curThirsty->IsAirplane() && ((AircraftClass*)curThirsty)->af) 

	mov	ecx, DWORD PTR _this$[ebp]
	cmp	DWORD PTR [ecx+980], 0
	je	$LN9@OptTanking
	mov	edx, DWORD PTR _this$[ebp]
	mov	eax, DWORD PTR [edx+980]
	mov	ecx, DWORD PTR _this$[ebp]
	mov	edx, DWORD PTR [eax]
	mov	ecx, DWORD PTR [ecx+980]
	mov	eax, DWORD PTR [edx+192]
	call	eax
	test	eax, eax
	je	$LN9@OptTanking
	mov	ecx, DWORD PTR _this$[ebp]
	mov	edx, DWORD PTR [ecx+980]
	cmp	DWORD PTR [edx+932], 0
	je	$LN9@OptTanking

; 2175 : 			{
; 2176 : 					((AircraftClass*)curThirsty)->af->GetRefuelPosition(&boompos);

	lea	eax, DWORD PTR _boompos$[ebp]
	push	eax
	mov	ecx, DWORD PTR _this$[ebp]
	mov	edx, DWORD PTR [ecx+980]
	mov	ecx, DWORD PTR [edx+932]
	call	?GetRefuelPosition@AirframeClass@@QAEXPAUTpoint@@@Z ; AirframeClass::GetRefuelPosition

; 2177 : 	// 15NOV03 - FRB - Adjust droque rf position to match current a/c rf port location
; 2178 : 				// if nothing set, use nose of a/c
; 2179 : 				if (boompos.x == 0 && boompos.y ==0 && boompos.z == 0) 

	movss	xmm0, DWORD PTR _boompos$[ebp]
	ucomiss	xmm0, DWORD PTR __real@00000000
	lahf
	test	ah, 68					; 00000044H
	jp	$LN8@OptTanking
	movss	xmm0, DWORD PTR _boompos$[ebp+4]
	ucomiss	xmm0, DWORD PTR __real@00000000
	lahf
	test	ah, 68					; 00000044H
	jp	$LN8@OptTanking
	movss	xmm0, DWORD PTR _boompos$[ebp+8]
	ucomiss	xmm0, DWORD PTR __real@00000000
	lahf
	test	ah, 68					; 00000044H
	jp	$LN8@OptTanking

; 2180 : 				{
; 2181 : 							float		rad;
; 2182 : //							Tpoint minB, maxB;
; 2183 : 					if (curThirsty && curThirsty->drawPointer) 

	mov	eax, DWORD PTR _this$[ebp]
	cmp	DWORD PTR [eax+980], 0
	je	SHORT $LN7@OptTanking
	mov	ecx, DWORD PTR _this$[ebp]
	mov	edx, DWORD PTR [ecx+980]
	cmp	DWORD PTR [edx+332], 0
	je	SHORT $LN7@OptTanking

; 2184 : 					{
; 2185 : //						((DrawableBSP*)curThirsty->drawPointer)->GetBoundingBox(&minB, &maxB);
; 2186 : 						rad = ((DrawableBSP*)curThirsty->drawPointer)->Radius();	// FRB - Use Parent record radius since BoundingBox +X may be changed to decrease a/c hitbox

	mov	eax, DWORD PTR _this$[ebp]
	mov	ecx, DWORD PTR [eax+980]
	mov	ecx, DWORD PTR [ecx+332]
	call	?Radius@DrawableObject@@QBEMXZ		; DrawableObject::Radius
	fstp	DWORD PTR _rad$2[ebp]

; 2187 : 						boompos.x = -rad + DrogueRFPos.x;

	movss	xmm0, DWORD PTR _rad$2[ebp]
	xorps	xmm0, DWORD PTR __xmm@80000000800000008000000080000000
	mov	edx, DWORD PTR _this$[ebp]
	addss	xmm0, DWORD PTR [edx+996]
	movss	DWORD PTR _boompos$[ebp], xmm0

; 2188 : 						boompos.y = DrogueRFPos.y;

	mov	eax, DWORD PTR _this$[ebp]
	movss	xmm0, DWORD PTR [eax+1000]
	movss	DWORD PTR _boompos$[ebp+4], xmm0

; 2189 : 						boompos.z = DrogueRFPos.z;

	mov	ecx, DWORD PTR _this$[ebp]
	movss	xmm0, DWORD PTR [ecx+1004]
	movss	DWORD PTR _boompos$[ebp+8], xmm0

; 2190 : 					}
; 2191 : 					else // no model data available at this time, so fake it.

	jmp	SHORT $LN6@OptTanking
$LN7@OptTanking:

; 2192 : 					{
; 2193 : 						boompos.x = DrogueRFPos.x - IL78HACKX;	 // guessimate

	mov	edx, DWORD PTR _this$[ebp]
	movss	xmm0, DWORD PTR [edx+996]
	subss	xmm0, DWORD PTR __real@41c80000
	movss	DWORD PTR _boompos$[ebp], xmm0

; 2194 : 						boompos.y = DrogueRFPos.y;

	mov	eax, DWORD PTR _this$[ebp]
	movss	xmm0, DWORD PTR [eax+1000]
	movss	DWORD PTR _boompos$[ebp+4], xmm0

; 2195 : 						boompos.z = DrogueRFPos.z;

	mov	ecx, DWORD PTR _this$[ebp]
	movss	xmm0, DWORD PTR [ecx+1004]
	movss	DWORD PTR _boompos$[ebp+8], xmm0
$LN6@OptTanking:

; 2196 : 					}
; 2197 : 				}
; 2198 : 				else // use refueling position data

	jmp	SHORT $LN5@OptTanking
$LN8@OptTanking:

; 2199 : 				{
; 2200 : 					boompos.x = -boompos.x + DrogueRFPos.x;

	movss	xmm0, DWORD PTR _boompos$[ebp]
	xorps	xmm0, DWORD PTR __xmm@80000000800000008000000080000000
	mov	edx, DWORD PTR _this$[ebp]
	addss	xmm0, DWORD PTR [edx+996]
	movss	DWORD PTR _boompos$[ebp], xmm0

; 2201 : 					boompos.y = -boompos.y + DrogueRFPos.y;

	movss	xmm0, DWORD PTR _boompos$[ebp+4]
	xorps	xmm0, DWORD PTR __xmm@80000000800000008000000080000000
	mov	eax, DWORD PTR _this$[ebp]
	addss	xmm0, DWORD PTR [eax+1000]
	movss	DWORD PTR _boompos$[ebp+4], xmm0

; 2202 : 					boompos.z = -boompos.z + DrogueRFPos.z;

	movss	xmm0, DWORD PTR _boompos$[ebp+8]
	xorps	xmm0, DWORD PTR __xmm@80000000800000008000000080000000
	mov	ecx, DWORD PTR _this$[ebp]
	addss	xmm0, DWORD PTR [ecx+1004]
	movss	DWORD PTR _boompos$[ebp+8], xmm0
$LN5@OptTanking:

; 2203 : 				}
; 2204 : 	    }
; 2205 : 	    else // not an a/c ?????

	jmp	$LN2@OptTanking
$LN9@OptTanking:

; 2206 : 			{
; 2207 : 							float		rad;
; 2208 : //							Tpoint minB, maxB;
; 2209 : 				if (curThirsty && curThirsty->drawPointer) 

	mov	edx, DWORD PTR _this$[ebp]
	cmp	DWORD PTR [edx+980], 0
	je	SHORT $LN3@OptTanking
	mov	eax, DWORD PTR _this$[ebp]
	mov	ecx, DWORD PTR [eax+980]
	cmp	DWORD PTR [ecx+332], 0
	je	SHORT $LN3@OptTanking

; 2210 : 				{
; 2211 : //						((DrawableBSP*)curThirsty->drawPointer)->GetBoundingBox(&minB, &maxB);
; 2212 : 						rad = ((DrawableBSP*)curThirsty->drawPointer)->Radius();	// FRB - Use Parent record radius since BoundingBox +X may be changed to decrease a/c hitbox

	mov	edx, DWORD PTR _this$[ebp]
	mov	eax, DWORD PTR [edx+980]
	mov	ecx, DWORD PTR [eax+332]
	call	?Radius@DrawableObject@@QBEMXZ		; DrawableObject::Radius
	fstp	DWORD PTR _rad$1[ebp]

; 2213 : 						boompos.x = -rad + DrogueRFPos.x;

	movss	xmm0, DWORD PTR _rad$1[ebp]
	xorps	xmm0, DWORD PTR __xmm@80000000800000008000000080000000
	mov	ecx, DWORD PTR _this$[ebp]
	addss	xmm0, DWORD PTR [ecx+996]
	movss	DWORD PTR _boompos$[ebp], xmm0

; 2214 : 						boompos.y = DrogueRFPos.y;

	mov	edx, DWORD PTR _this$[ebp]
	movss	xmm0, DWORD PTR [edx+1000]
	movss	DWORD PTR _boompos$[ebp+4], xmm0

; 2215 : 						boompos.z = DrogueRFPos.z;

	mov	eax, DWORD PTR _this$[ebp]
	movss	xmm0, DWORD PTR [eax+1004]
	movss	DWORD PTR _boompos$[ebp+8], xmm0

; 2216 : 				}
; 2217 : 					else

	jmp	SHORT $LN2@OptTanking
$LN3@OptTanking:

; 2218 : 					{
; 2219 : 						boompos.x = DrogueRFPos.x - IL78HACKX;	 // guessimate

	mov	ecx, DWORD PTR _this$[ebp]
	movss	xmm0, DWORD PTR [ecx+996]
	subss	xmm0, DWORD PTR __real@41c80000
	movss	DWORD PTR _boompos$[ebp], xmm0

; 2220 : 						boompos.y = DrogueRFPos.y;

	mov	edx, DWORD PTR _this$[ebp]
	movss	xmm0, DWORD PTR [edx+1000]
	movss	DWORD PTR _boompos$[ebp+4], xmm0

; 2221 : 						boompos.z = DrogueRFPos.z;

	mov	eax, DWORD PTR _this$[ebp]
	movss	xmm0, DWORD PTR [eax+1004]
	movss	DWORD PTR _boompos$[ebp+8], xmm0
$LN2@OptTanking:

; 2222 : 					}
; 2223 : 	    }
; 2224 : 
; 2225 : 	    pos->x = orientation->M11*(boom[DROGUE].rx + boompos.x) + orientation->M12*(boom[DROGUE].ry + boompos.y) + orientation->M13*(boom[DROGUE].rz + boompos.z) + self->XPos();

	mov	ecx, DWORD PTR _this$[ebp]
	mov	edx, DWORD PTR [ecx+1020]
	imul	edx, 28					; 0000001cH
	mov	eax, DWORD PTR _this$[ebp]
	movss	xmm0, DWORD PTR [eax+edx+1048]
	addss	xmm0, DWORD PTR _boompos$[ebp]
	mov	ecx, DWORD PTR _orientation$[ebp]
	mulss	xmm0, DWORD PTR [ecx]
	mov	edx, DWORD PTR _this$[ebp]
	mov	eax, DWORD PTR [edx+1020]
	imul	eax, 28					; 0000001cH
	mov	ecx, DWORD PTR _this$[ebp]
	movss	xmm1, DWORD PTR [ecx+eax+1052]
	addss	xmm1, DWORD PTR _boompos$[ebp+4]
	mov	edx, DWORD PTR _orientation$[ebp]
	mulss	xmm1, DWORD PTR [edx+4]
	addss	xmm0, xmm1
	mov	eax, DWORD PTR _this$[ebp]
	mov	ecx, DWORD PTR [eax+1020]
	imul	ecx, 28					; 0000001cH
	mov	edx, DWORD PTR _this$[ebp]
	movss	xmm1, DWORD PTR [edx+ecx+1056]
	addss	xmm1, DWORD PTR _boompos$[ebp+8]
	mov	eax, DWORD PTR _orientation$[ebp]
	mulss	xmm1, DWORD PTR [eax+8]
	addss	xmm0, xmm1
	mov	ecx, DWORD PTR _this$[ebp]
	mov	ecx, DWORD PTR [ecx+56]
	movss	DWORD PTR tv991[ebp], xmm0
	call	?XPos@VuEntity@@QBEMXZ			; VuEntity::XPos
	fstp	DWORD PTR tv915[ebp]
	movss	xmm0, DWORD PTR tv991[ebp]
	addss	xmm0, DWORD PTR tv915[ebp]
	mov	edx, DWORD PTR _pos$[ebp]
	movss	DWORD PTR [edx], xmm0

; 2226 : 	    pos->y = orientation->M21*(boom[DROGUE].rx + boompos.x) + orientation->M22*(boom[DROGUE].ry + boompos.y) + orientation->M23*(boom[DROGUE].rz + boompos.z) + self->YPos();

	mov	eax, DWORD PTR _this$[ebp]
	mov	ecx, DWORD PTR [eax+1020]
	imul	ecx, 28					; 0000001cH
	mov	edx, DWORD PTR _this$[ebp]
	movss	xmm0, DWORD PTR [edx+ecx+1048]
	addss	xmm0, DWORD PTR _boompos$[ebp]
	mov	eax, DWORD PTR _orientation$[ebp]
	mulss	xmm0, DWORD PTR [eax+12]
	mov	ecx, DWORD PTR _this$[ebp]
	mov	edx, DWORD PTR [ecx+1020]
	imul	edx, 28					; 0000001cH
	mov	eax, DWORD PTR _this$[ebp]
	movss	xmm1, DWORD PTR [eax+edx+1052]
	addss	xmm1, DWORD PTR _boompos$[ebp+4]
	mov	ecx, DWORD PTR _orientation$[ebp]
	mulss	xmm1, DWORD PTR [ecx+16]
	addss	xmm0, xmm1
	mov	edx, DWORD PTR _this$[ebp]
	mov	eax, DWORD PTR [edx+1020]
	imul	eax, 28					; 0000001cH
	mov	ecx, DWORD PTR _this$[ebp]
	movss	xmm1, DWORD PTR [ecx+eax+1056]
	addss	xmm1, DWORD PTR _boompos$[ebp+8]
	mov	edx, DWORD PTR _orientation$[ebp]
	mulss	xmm1, DWORD PTR [edx+20]
	addss	xmm0, xmm1
	mov	eax, DWORD PTR _this$[ebp]
	mov	ecx, DWORD PTR [eax+56]
	movss	DWORD PTR tv993[ebp], xmm0
	call	?YPos@VuEntity@@QBEMXZ			; VuEntity::YPos
	fstp	DWORD PTR tv939[ebp]
	movss	xmm0, DWORD PTR tv993[ebp]
	addss	xmm0, DWORD PTR tv939[ebp]
	mov	ecx, DWORD PTR _pos$[ebp]
	movss	DWORD PTR [ecx+4], xmm0

; 2227 : 	    pos->z = orientation->M31*(boom[DROGUE].rx + boompos.x) + orientation->M32*(boom[DROGUE].ry + boompos.y) + orientation->M33*(boom[DROGUE].rz + boompos.z) + self->ZPos();

	mov	edx, DWORD PTR _this$[ebp]
	mov	eax, DWORD PTR [edx+1020]
	imul	eax, 28					; 0000001cH
	mov	ecx, DWORD PTR _this$[ebp]
	movss	xmm0, DWORD PTR [ecx+eax+1048]
	addss	xmm0, DWORD PTR _boompos$[ebp]
	mov	edx, DWORD PTR _orientation$[ebp]
	mulss	xmm0, DWORD PTR [edx+24]
	mov	eax, DWORD PTR _this$[ebp]
	mov	ecx, DWORD PTR [eax+1020]
	imul	ecx, 28					; 0000001cH
	mov	edx, DWORD PTR _this$[ebp]
	movss	xmm1, DWORD PTR [edx+ecx+1052]
	addss	xmm1, DWORD PTR _boompos$[ebp+4]
	mov	eax, DWORD PTR _orientation$[ebp]
	mulss	xmm1, DWORD PTR [eax+28]
	addss	xmm0, xmm1
	mov	ecx, DWORD PTR _this$[ebp]
	mov	edx, DWORD PTR [ecx+1020]
	imul	edx, 28					; 0000001cH
	mov	eax, DWORD PTR _this$[ebp]
	movss	xmm1, DWORD PTR [eax+edx+1056]
	addss	xmm1, DWORD PTR _boompos$[ebp+8]
	mov	ecx, DWORD PTR _orientation$[ebp]
	mulss	xmm1, DWORD PTR [ecx+32]
	addss	xmm0, xmm1
	mov	edx, DWORD PTR _this$[ebp]
	mov	ecx, DWORD PTR [edx+56]
	movss	DWORD PTR tv995[ebp], xmm0
	call	?ZPos@VuEntity@@QBEMXZ			; VuEntity::ZPos
	fstp	DWORD PTR tv963[ebp]
	movss	xmm0, DWORD PTR tv995[ebp]
	addss	xmm0, DWORD PTR tv963[ebp]
	mov	eax, DWORD PTR _pos$[ebp]
	movss	DWORD PTR [eax+8], xmm0

; 2228 : 	    
; 2229 : 	    if (self->LastUpdateTime() == vuxGameTime)

	mov	ecx, DWORD PTR _this$[ebp]
	mov	ecx, DWORD PTR [ecx+56]
	call	?LastUpdateTime@VuEntity@@QBEKXZ	; VuEntity::LastUpdateTime
	cmp	eax, DWORD PTR ?vuxGameTime@@3KA	; vuxGameTime
	jne	SHORT $LN1@OptTanking

; 2230 : 	    {
; 2231 : 				// Correct for different frame rates
; 2232 : 				pos->x -= self->XDelta()*SimLibMajorFrameTime;

	mov	edx, DWORD PTR _this$[ebp]
	mov	ecx, DWORD PTR [edx+56]
	call	?XDelta@VuEntity@@QBEMXZ		; VuEntity::XDelta
	fstp	DWORD PTR tv971[ebp]
	movss	xmm0, DWORD PTR tv971[ebp]
	mulss	xmm0, DWORD PTR ?SimLibMajorFrameTime@@3MA
	mov	eax, DWORD PTR _pos$[ebp]
	movss	xmm1, DWORD PTR [eax]
	subss	xmm1, xmm0
	mov	ecx, DWORD PTR _pos$[ebp]
	movss	DWORD PTR [ecx], xmm1

; 2233 : 				pos->y -= self->YDelta()*SimLibMajorFrameTime;

	mov	edx, DWORD PTR _this$[ebp]
	mov	ecx, DWORD PTR [edx+56]
	call	?YDelta@VuEntity@@QBEMXZ		; VuEntity::YDelta
	fstp	DWORD PTR tv979[ebp]
	movss	xmm0, DWORD PTR tv979[ebp]
	mulss	xmm0, DWORD PTR ?SimLibMajorFrameTime@@3MA
	mov	eax, DWORD PTR _pos$[ebp]
	movss	xmm1, DWORD PTR [eax+4]
	subss	xmm1, xmm0
	mov	ecx, DWORD PTR _pos$[ebp]
	movss	DWORD PTR [ecx+4], xmm1
$LN1@OptTanking:
$LN19@OptTanking:

; 2234 : 	    }
; 2235 : 	}
; 2236 : 	return;
; 2237 : }

	mov	ecx, DWORD PTR __$ArrayPad$[ebp]
	xor	ecx, ebp
	call	@__security_check_cookie@4
	mov	esp, ebp
	pop	ebp
	ret	4
?OptTankingPosition@TankerBrain@@QAEXPAUTpoint@@@Z ENDP	; TankerBrain::OptTankingPosition
_TEXT	ENDS
; Function compile flags: /Odtp
; File c:\users\zhitao li\documents\visual studio 2012\projects\freefalcon\sim\digi\tankbrn.cpp
_TEXT	SEGMENT
$T2 = -68						; size = 8
$T3 = -60						; size = 8
$T4 = -52						; size = 8
$T5 = -44						; size = 8
$T6 = -36						; size = 4
tv197 = -32						; size = 4
$T7 = -28						; size = 4
tv175 = -24						; size = 4
_msg$8 = -20						; size = 4
_this$ = -16						; size = 4
__$EHRec$ = -12						; size = 12
?DoneRefueling@TankerBrain@@QAEXXZ PROC			; TankerBrain::DoneRefueling
; _this$ = ecx

; 491  : {

	push	ebp
	mov	ebp, esp
	push	-1
	push	__ehhandler$?DoneRefueling@TankerBrain@@QAEXXZ
	mov	eax, DWORD PTR fs:0
	push	eax
	sub	esp, 56					; 00000038H
	mov	eax, DWORD PTR ___security_cookie
	xor	eax, ebp
	push	eax
	lea	eax, DWORD PTR __$EHRec$[ebp]
	mov	DWORD PTR fs:0, eax
	mov	DWORD PTR _this$[ebp], ecx

; 492  : 	/*
; 493  : 	if (tankingPtr)
; 494  : 	{
; 495  : 		tankingPtr->Release(  );
; 496  : 		//if (self->IsInstantAction())
; 497  : 		//InstantAction.SetNoAdd(FALSE);
; 498  : 	}
; 499  : 	
; 500  : 	tankingPtr = NULL;
; 501  : 	*/
; 502  : 	holdAlt += 200.0F;	// 15NOV03 - FRB - was 100.0F

	mov	eax, DWORD PTR _this$[ebp]
	movss	xmm0, DWORD PTR [eax+1204]
	addss	xmm0, DWORD PTR __real@43480000
	mov	ecx, DWORD PTR _this$[ebp]
	movss	DWORD PTR [ecx+1204], xmm0

; 503  : 	af->ClearFlag(AirframeClass::Refueling);

	push	16					; 00000010H
	mov	edx, DWORD PTR _this$[ebp]
	mov	ecx, DWORD PTR [edx+60]
	call	?ClearFlag@AirframeClass@@QAEXH@Z	; AirframeClass::ClearFlag

; 504  : 	flags |= ClearingPlane;

	mov	eax, DWORD PTR _this$[ebp]
	mov	ecx, DWORD PTR [eax+1200]
	or	ecx, 64					; 00000040H
	mov	edx, DWORD PTR _this$[ebp]
	mov	DWORD PTR [edx+1200], ecx

; 505  : 	//curThirsty = NULL;
; 506  : 	flags &= ~GivingGas;

	mov	eax, DWORD PTR _this$[ebp]
	mov	ecx, DWORD PTR [eax+1200]
	and	ecx, -5					; fffffffbH
	mov	edx, DWORD PTR _this$[ebp]
	mov	DWORD PTR [edx+1200], ecx

; 507  : 	flags &= ~PatternDefined;

	mov	eax, DWORD PTR _this$[ebp]
	mov	ecx, DWORD PTR [eax+1200]
	and	ecx, -3					; fffffffdH
	mov	edx, DWORD PTR _this$[ebp]
	mov	DWORD PTR [edx+1200], ecx

; 508  : 	//flags &= ~IsRefueling;
; 509  : 
; 510  : //me123 transfere ownship back to host when we are done rf
; 511  : 	if (vuLocalSessionEntity &&
; 512  : 		 vuLocalSessionEntity->Game() &&
; 513  : 		 self->OwnerId() != vuLocalSessionEntity->Game()->OwnerId())

	mov	ecx, OFFSET ?vuLocalSessionEntity@@3V?$VuBin@VVuSessionEntity@@@@A ; vuLocalSessionEntity
	call	??B?$VuBin@VVuSessionEntity@@@@QBE_NXZ	; VuBin<VuSessionEntity>::operator bool
	movzx	eax, al
	test	eax, eax
	je	$LN1@DoneRefuel
	mov	ecx, OFFSET ?vuLocalSessionEntity@@3V?$VuBin@VVuSessionEntity@@@@A ; vuLocalSessionEntity
	call	??C?$VuBin@VVuSessionEntity@@@@QBEPAVVuSessionEntity@@XZ ; VuBin<VuSessionEntity>::operator->
	mov	ecx, eax
	call	?Game@VuSessionEntity@@QAEPAVVuGameEntity@@XZ ; VuSessionEntity::Game
	test	eax, eax
	je	$LN1@DoneRefuel
	lea	ecx, DWORD PTR $T5[ebp]
	push	ecx
	mov	ecx, OFFSET ?vuLocalSessionEntity@@3V?$VuBin@VVuSessionEntity@@@@A ; vuLocalSessionEntity
	call	??C?$VuBin@VVuSessionEntity@@@@QBEPAVVuSessionEntity@@XZ ; VuBin<VuSessionEntity>::operator->
	mov	ecx, eax
	call	?Game@VuSessionEntity@@QAEPAVVuGameEntity@@XZ ; VuSessionEntity::Game
	mov	ecx, eax
	call	?OwnerId@VuEntity@@QBE?AVVU_ID@@XZ	; VuEntity::OwnerId
	push	eax
	lea	edx, DWORD PTR $T4[ebp]
	push	edx
	mov	eax, DWORD PTR _this$[ebp]
	mov	ecx, DWORD PTR [eax+56]
	call	?OwnerId@VuEntity@@QBE?AVVU_ID@@XZ	; VuEntity::OwnerId
	mov	ecx, eax
	call	??9VU_ID@@QBE_NABV0@@Z			; VU_ID::operator!=
	movzx	ecx, al
	test	ecx, ecx
	je	$LN1@DoneRefuel

; 514  : 		 {
; 515  : 	 		FalconSimCampMessage	*msg = new FalconSimCampMessage (self->GetCampaignObject()->Id(), FalconLocalGame); // target);

	push	66					; 00000042H
	call	??2@YAPAXI@Z				; operator new
	add	esp, 4
	mov	DWORD PTR $T7[ebp], eax
	mov	DWORD PTR __$EHRec$[ebp+8], 0
	cmp	DWORD PTR $T7[ebp], 0
	je	SHORT $LN6@DoneRefuel
	mov	ecx, OFFSET ?vuLocalSessionEntity@@3V?$VuBin@VVuSessionEntity@@@@A ; vuLocalSessionEntity
	call	??B?$VuBin@VVuSessionEntity@@@@QBE_NXZ	; VuBin<VuSessionEntity>::operator bool
	movzx	edx, al
	test	edx, edx
	je	SHORT $LN4@DoneRefuel
	mov	ecx, OFFSET ?vuLocalSessionEntity@@3V?$VuBin@VVuSessionEntity@@@@A ; vuLocalSessionEntity
	call	?get@?$VuBin@VVuSessionEntity@@@@QBEPAVVuSessionEntity@@XZ ; VuBin<VuSessionEntity>::get
	mov	ecx, eax
	call	?GetGame@FalconSessionEntity@@QAEPAVFalconGameEntity@@XZ ; FalconSessionEntity::GetGame
	mov	DWORD PTR tv175[ebp], eax
	jmp	SHORT $LN5@DoneRefuel
$LN4@DoneRefuel:
	mov	DWORD PTR tv175[ebp], 0
$LN5@DoneRefuel:
	push	1
	mov	eax, DWORD PTR tv175[ebp]
	push	eax
	lea	ecx, DWORD PTR $T3[ebp]
	push	ecx
	mov	edx, DWORD PTR _this$[ebp]
	mov	ecx, DWORD PTR [edx+56]
	call	?GetCampaignObject@SimBaseClass@@QAEPAVCampBaseClass@@XZ ; SimBaseClass::GetCampaignObject
	mov	ecx, eax
	call	?Id@VuEntity@@QBE?AVVU_ID@@XZ		; VuEntity::Id
	mov	ecx, DWORD PTR [eax+4]
	push	ecx
	mov	edx, DWORD PTR [eax]
	push	edx
	mov	ecx, DWORD PTR $T7[ebp]
	call	??0FalconSimCampMessage@@QAE@VVU_ID@@PAVVuTargetEntity@@E@Z ; FalconSimCampMessage::FalconSimCampMessage
	mov	DWORD PTR tv197[ebp], eax
	jmp	SHORT $LN7@DoneRefuel
$LN6@DoneRefuel:
	mov	DWORD PTR tv197[ebp], 0
$LN7@DoneRefuel:
	mov	eax, DWORD PTR tv197[ebp]
	mov	DWORD PTR $T6[ebp], eax
	mov	DWORD PTR __$EHRec$[ebp+8], -1
	mov	ecx, DWORD PTR $T6[ebp]
	mov	DWORD PTR _msg$8[ebp], ecx

; 516  : 	 		msg->dataBlock.from = vuLocalSessionEntity->Game()->OwnerId();

	lea	edx, DWORD PTR $T2[ebp]
	push	edx
	mov	ecx, OFFSET ?vuLocalSessionEntity@@3V?$VuBin@VVuSessionEntity@@@@A ; vuLocalSessionEntity
	call	??C?$VuBin@VVuSessionEntity@@@@QBEPAVVuSessionEntity@@XZ ; VuBin<VuSessionEntity>::operator->
	mov	ecx, eax
	call	?Game@VuSessionEntity@@QAEPAVVuGameEntity@@XZ ; VuSessionEntity::Game
	mov	ecx, eax
	call	?OwnerId@VuEntity@@QBE?AVVU_ID@@XZ	; VuEntity::OwnerId
	mov	ecx, DWORD PTR [eax]
	mov	edx, DWORD PTR [eax+4]
	mov	eax, DWORD PTR _msg$8[ebp]
	mov	DWORD PTR [eax+48], ecx
	mov	DWORD PTR [eax+52], edx

; 517  : 	 		msg->dataBlock.message = FalconSimCampMessage::simcampChangeOwner;

	mov	ecx, DWORD PTR _msg$8[ebp]
	mov	DWORD PTR [ecx+56], 2

; 518  : 	 		FalconSendMessage(msg);

	push	0
	mov	edx, DWORD PTR _msg$8[ebp]
	push	edx
	call	?FalconSendMessage@@YAXPAVVuMessage@@H@Z ; FalconSendMessage
	add	esp, 8
$LN1@DoneRefuel:

; 519  : 		 }
; 520  : 	turnallow = false;

	mov	eax, DWORD PTR _this$[ebp]
	mov	DWORD PTR [eax+1220], 0

; 521  : 	HeadsUp = true;

	mov	ecx, DWORD PTR _this$[ebp]
	mov	DWORD PTR [ecx+1228], 1

; 522  : 	reachedFirstTrackpoint = false;

	mov	edx, DWORD PTR _this$[ebp]
	mov	BYTE PTR [edx+1289], 0

; 523  : }

	mov	ecx, DWORD PTR __$EHRec$[ebp]
	mov	DWORD PTR fs:0, ecx
	pop	ecx
	mov	esp, ebp
	pop	ebp
	ret	0
_TEXT	ENDS
text$x	SEGMENT
__unwindfunclet$?DoneRefueling@TankerBrain@@QAEXXZ$0:
	mov	eax, DWORD PTR $T7[ebp]
	push	eax
	call	??3@YAXPAX@Z				; operator delete
	pop	ecx
	ret	0
__ehhandler$?DoneRefueling@TankerBrain@@QAEXXZ:
	mov	edx, DWORD PTR [esp+8]
	lea	eax, DWORD PTR [edx+12]
	mov	ecx, DWORD PTR [edx-60]
	xor	ecx, eax
	call	@__security_check_cookie@4
	mov	eax, OFFSET __ehfuncinfo$?DoneRefueling@TankerBrain@@QAEXXZ
	jmp	___CxxFrameHandler3
text$x	ENDS
?DoneRefueling@TankerBrain@@QAEXXZ ENDP			; TankerBrain::DoneRefueling
; Function compile flags: /Odtp
; File c:\users\zhitao li\documents\visual studio 2012\projects\freefalcon\sim\digi\tankbrn.cpp
_TEXT	SEGMENT
_myit$ = -44						; size = 12
$T2 = -32						; size = 4
$T3 = -28						; size = 4
_this$ = -24						; size = 4
_count$ = -20						; size = 4
_entity$ = -16						; size = 4
__$EHRec$ = -12						; size = 12
_thirstyOne$ = 8					; size = 4
?TankingPosition@TankerBrain@@QAEHPAVSimVehicleClass@@@Z PROC ; TankerBrain::TankingPosition
; _this$ = ecx

; 1522 : {

	push	ebp
	mov	ebp, esp
	push	-1
	push	__ehhandler$?TankingPosition@TankerBrain@@QAEHPAVSimVehicleClass@@@Z
	mov	eax, DWORD PTR fs:0
	push	eax
	sub	esp, 32					; 00000020H
	mov	eax, DWORD PTR ___security_cookie
	xor	eax, ebp
	push	eax
	lea	eax, DWORD PTR __$EHRec$[ebp]
	mov	DWORD PTR fs:0, eax
	mov	DWORD PTR _this$[ebp], ecx

; 1523 : 	VuEntity		*entity = NULL;

	mov	DWORD PTR _entity$[ebp], 0

; 1524 : 	int count = 0;

	mov	DWORD PTR _count$[ebp], 0

; 1525 : 
; 1526 : 	VuListIterator	myit(thirstyQ);

	mov	eax, DWORD PTR _this$[ebp]
	mov	ecx, DWORD PTR [eax+972]
	push	ecx
	lea	ecx, DWORD PTR _myit$[ebp]
	call	??0VuListIterator@@QAE@PAVVuLinkedList@@@Z ; VuListIterator::VuListIterator
	mov	DWORD PTR __$EHRec$[ebp+8], 0

; 1527 : 	entity = myit.GetFirst();

	lea	ecx, DWORD PTR _myit$[ebp]
	call	?GetFirst@VuListIterator@@QAEPAVVuEntity@@XZ ; VuListIterator::GetFirst
	mov	DWORD PTR _entity$[ebp], eax
$LN3@TankingPos:

; 1528 : 	while(entity)

	cmp	DWORD PTR _entity$[ebp], 0
	je	SHORT $LN2@TankingPos

; 1529 : 	{
; 1530 : 		if(entity == thirstyOne)

	mov	edx, DWORD PTR _entity$[ebp]
	cmp	edx, DWORD PTR _thirstyOne$[ebp]
	jne	SHORT $LN1@TankingPos

; 1531 : 		{
; 1532 : 			return count;

	mov	eax, DWORD PTR _count$[ebp]
	mov	DWORD PTR $T3[ebp], eax
	mov	DWORD PTR __$EHRec$[ebp+8], -1
	lea	ecx, DWORD PTR _myit$[ebp]
	call	??1VuListIterator@@UAE@XZ		; VuListIterator::~VuListIterator
	mov	eax, DWORD PTR $T3[ebp]
	jmp	SHORT $LN4@TankingPos
$LN1@TankingPos:

; 1533 : 		}
; 1534 : 		count++;

	mov	ecx, DWORD PTR _count$[ebp]
	add	ecx, 1
	mov	DWORD PTR _count$[ebp], ecx

; 1535 : 		entity = myit.GetNext();

	lea	ecx, DWORD PTR _myit$[ebp]
	call	?GetNext@VuListIterator@@QAEPAVVuEntity@@XZ ; VuListIterator::GetNext
	mov	DWORD PTR _entity$[ebp], eax

; 1536 : 	}

	jmp	SHORT $LN3@TankingPos
$LN2@TankingPos:

; 1537 : 	return -1;

	mov	DWORD PTR $T2[ebp], -1
	mov	DWORD PTR __$EHRec$[ebp+8], -1
	lea	ecx, DWORD PTR _myit$[ebp]
	call	??1VuListIterator@@UAE@XZ		; VuListIterator::~VuListIterator
	mov	eax, DWORD PTR $T2[ebp]
$LN4@TankingPos:

; 1538 : }

	mov	ecx, DWORD PTR __$EHRec$[ebp]
	mov	DWORD PTR fs:0, ecx
	pop	ecx
	mov	esp, ebp
	pop	ebp
	ret	4
_TEXT	ENDS
text$x	SEGMENT
__unwindfunclet$?TankingPosition@TankerBrain@@QAEHPAVSimVehicleClass@@@Z$0:
	lea	ecx, DWORD PTR _myit$[ebp]
	jmp	??1VuListIterator@@UAE@XZ		; VuListIterator::~VuListIterator
__ehhandler$?TankingPosition@TankerBrain@@QAEHPAVSimVehicleClass@@@Z:
	mov	edx, DWORD PTR [esp+8]
	lea	eax, DWORD PTR [edx+12]
	mov	ecx, DWORD PTR [edx-36]
	xor	ecx, eax
	call	@__security_check_cookie@4
	mov	eax, OFFSET __ehfuncinfo$?TankingPosition@TankerBrain@@QAEHPAVSimVehicleClass@@@Z
	jmp	___CxxFrameHandler3
text$x	ENDS
?TankingPosition@TankerBrain@@QAEHPAVSimVehicleClass@@@Z ENDP ; TankerBrain::TankingPosition
; Function compile flags: /Odtp
; File c:\users\zhitao li\documents\visual studio 2012\projects\freefalcon\sim\digi\tankbrn.cpp
_TEXT	SEGMENT
_myit$2 = -68						; size = 12
$T3 = -56						; size = 8
$T4 = -48						; size = 8
$T5 = -40						; size = 4
tv147 = -36						; size = 4
$T6 = -32						; size = 4
tv131 = -28						; size = 4
_this$ = -24						; size = 4
_entity$ = -20						; size = 4
_tankMsg$7 = -16					; size = 4
__$EHRec$ = -12						; size = 12
?PurgeWaitQ@TankerBrain@@QAEXXZ PROC			; TankerBrain::PurgeWaitQ
; _this$ = ecx

; 1634 : {

	push	ebp
	mov	ebp, esp
	push	-1
	push	__ehhandler$?PurgeWaitQ@TankerBrain@@QAEXXZ
	mov	eax, DWORD PTR fs:0
	push	eax
	sub	esp, 56					; 00000038H
	mov	eax, DWORD PTR ___security_cookie
	xor	eax, ebp
	push	eax
	lea	eax, DWORD PTR __$EHRec$[ebp]
	mov	DWORD PTR fs:0, eax
	mov	DWORD PTR _this$[ebp], ecx

; 1635 : 	VuEntity		*entity = NULL;

	mov	DWORD PTR _entity$[ebp], 0

; 1636 : 	{
; 1637 : 		VuListIterator	myit(waitQ);

	mov	eax, DWORD PTR _this$[ebp]
	mov	ecx, DWORD PTR [eax+976]
	push	ecx
	lea	ecx, DWORD PTR _myit$2[ebp]
	call	??0VuListIterator@@QAE@PAVVuLinkedList@@@Z ; VuListIterator::VuListIterator
	mov	DWORD PTR __$EHRec$[ebp+8], 0

; 1638 : 		entity = myit.GetFirst();

	lea	ecx, DWORD PTR _myit$2[ebp]
	call	?GetFirst@VuListIterator@@QAEPAVVuEntity@@XZ ; VuListIterator::GetFirst
	mov	DWORD PTR _entity$[ebp], eax
$LN2@PurgeWaitQ:

; 1639 : 		while(entity)

	cmp	DWORD PTR _entity$[ebp], 0
	je	$LN1@PurgeWaitQ

; 1640 : 		{
; 1641 : 			FalconTankerMessage *tankMsg;
; 1642 : 
; 1643 : 			tankMsg = new FalconTankerMessage (self->Id(), FalconLocalGame);

	push	68					; 00000044H
	call	??2@YAPAXI@Z				; operator new
	add	esp, 4
	mov	DWORD PTR $T6[ebp], eax
	mov	BYTE PTR __$EHRec$[ebp+8], 1
	cmp	DWORD PTR $T6[ebp], 0
	je	SHORT $LN7@PurgeWaitQ
	mov	ecx, OFFSET ?vuLocalSessionEntity@@3V?$VuBin@VVuSessionEntity@@@@A ; vuLocalSessionEntity
	call	??B?$VuBin@VVuSessionEntity@@@@QBE_NXZ	; VuBin<VuSessionEntity>::operator bool
	movzx	edx, al
	test	edx, edx
	je	SHORT $LN5@PurgeWaitQ
	mov	ecx, OFFSET ?vuLocalSessionEntity@@3V?$VuBin@VVuSessionEntity@@@@A ; vuLocalSessionEntity
	call	?get@?$VuBin@VVuSessionEntity@@@@QBEPAVVuSessionEntity@@XZ ; VuBin<VuSessionEntity>::get
	mov	ecx, eax
	call	?GetGame@FalconSessionEntity@@QAEPAVFalconGameEntity@@XZ ; FalconSessionEntity::GetGame
	mov	DWORD PTR tv131[ebp], eax
	jmp	SHORT $LN6@PurgeWaitQ
$LN5@PurgeWaitQ:
	mov	DWORD PTR tv131[ebp], 0
$LN6@PurgeWaitQ:
	push	1
	mov	eax, DWORD PTR tv131[ebp]
	push	eax
	lea	ecx, DWORD PTR $T4[ebp]
	push	ecx
	mov	edx, DWORD PTR _this$[ebp]
	mov	ecx, DWORD PTR [edx+56]
	call	?Id@VuEntity@@QBE?AVVU_ID@@XZ		; VuEntity::Id
	mov	ecx, DWORD PTR [eax+4]
	push	ecx
	mov	edx, DWORD PTR [eax]
	push	edx
	mov	ecx, DWORD PTR $T6[ebp]
	call	??0FalconTankerMessage@@QAE@VVU_ID@@PAVVuTargetEntity@@E@Z ; FalconTankerMessage::FalconTankerMessage
	mov	DWORD PTR tv147[ebp], eax
	jmp	SHORT $LN8@PurgeWaitQ
$LN7@PurgeWaitQ:
	mov	DWORD PTR tv147[ebp], 0
$LN8@PurgeWaitQ:
	mov	eax, DWORD PTR tv147[ebp]
	mov	DWORD PTR $T5[ebp], eax
	mov	BYTE PTR __$EHRec$[ebp+8], 0
	mov	ecx, DWORD PTR $T5[ebp]
	mov	DWORD PTR _tankMsg$7[ebp], ecx

; 1644 : 			tankMsg->dataBlock.caller = entity->Id();

	lea	edx, DWORD PTR $T3[ebp]
	push	edx
	mov	ecx, DWORD PTR _entity$[ebp]
	call	?Id@VuEntity@@QBE?AVVU_ID@@XZ		; VuEntity::Id
	mov	ecx, DWORD PTR [eax]
	mov	edx, DWORD PTR [eax+4]
	mov	eax, DWORD PTR _tankMsg$7[ebp]
	mov	DWORD PTR [eax+48], ecx
	mov	DWORD PTR [eax+52], edx

; 1645 : 			tankMsg->dataBlock.type = FalconTankerMessage::PositionUpdate;

	mov	ecx, DWORD PTR _tankMsg$7[ebp]
	mov	DWORD PTR [ecx+56], 11			; 0000000bH

; 1646 : 			tankMsg->dataBlock.data1 = tankMsg->dataBlock.data1 = -1;

	mov	edx, DWORD PTR _tankMsg$7[ebp]
	movss	xmm0, DWORD PTR __real@bf800000
	movss	DWORD PTR [edx+60], xmm0
	mov	eax, DWORD PTR _tankMsg$7[ebp]
	movss	xmm0, DWORD PTR __real@bf800000
	movss	DWORD PTR [eax+60], xmm0

; 1647 : 			FalconSendMessage (tankMsg);

	push	0
	mov	ecx, DWORD PTR _tankMsg$7[ebp]
	push	ecx
	call	?FalconSendMessage@@YAXPAVVuMessage@@H@Z ; FalconSendMessage
	add	esp, 8

; 1648 : 			entity = myit.GetNext();

	lea	ecx, DWORD PTR _myit$2[ebp]
	call	?GetNext@VuListIterator@@QAEPAVVuEntity@@XZ ; VuListIterator::GetNext
	mov	DWORD PTR _entity$[ebp], eax

; 1649 : 		}

	jmp	$LN2@PurgeWaitQ
$LN1@PurgeWaitQ:

; 1650 : 	}

	mov	DWORD PTR __$EHRec$[ebp+8], -1
	lea	ecx, DWORD PTR _myit$2[ebp]
	call	??1VuListIterator@@UAE@XZ		; VuListIterator::~VuListIterator

; 1651 : 	waitQ->Purge();

	push	1
	mov	edx, DWORD PTR _this$[ebp]
	mov	eax, DWORD PTR [edx+976]
	mov	ecx, DWORD PTR _this$[ebp]
	mov	edx, DWORD PTR [eax]
	mov	ecx, DWORD PTR [ecx+976]
	mov	eax, DWORD PTR [edx]
	call	eax

; 1652 : }

	mov	ecx, DWORD PTR __$EHRec$[ebp]
	mov	DWORD PTR fs:0, ecx
	pop	ecx
	mov	esp, ebp
	pop	ebp
	ret	0
_TEXT	ENDS
text$x	SEGMENT
__unwindfunclet$?PurgeWaitQ@TankerBrain@@QAEXXZ$0:
	lea	ecx, DWORD PTR _myit$2[ebp]
	jmp	??1VuListIterator@@UAE@XZ		; VuListIterator::~VuListIterator
__unwindfunclet$?PurgeWaitQ@TankerBrain@@QAEXXZ$1:
	mov	eax, DWORD PTR $T6[ebp]
	push	eax
	call	??3@YAXPAX@Z				; operator delete
	pop	ecx
	ret	0
__ehhandler$?PurgeWaitQ@TankerBrain@@QAEXXZ:
	mov	edx, DWORD PTR [esp+8]
	lea	eax, DWORD PTR [edx+12]
	mov	ecx, DWORD PTR [edx-60]
	xor	ecx, eax
	call	@__security_check_cookie@4
	mov	eax, OFFSET __ehfuncinfo$?PurgeWaitQ@TankerBrain@@QAEXXZ
	jmp	___CxxFrameHandler3
text$x	ENDS
?PurgeWaitQ@TankerBrain@@QAEXXZ ENDP			; TankerBrain::PurgeWaitQ
; Function compile flags: /Odtp
; File c:\users\zhitao li\documents\visual studio 2012\projects\freefalcon\sim\digi\tankbrn.cpp
_TEXT	SEGMENT
_myit$2 = -92						; size = 12
_myit$3 = -80						; size = 12
$T4 = -68						; size = 8
$T5 = -60						; size = 8
$T6 = -52						; size = 4
$T7 = -48						; size = 4
tv190 = -44						; size = 4
tv174 = -40						; size = 4
$T8 = -36						; size = 4
tv158 = -32						; size = 4
_this$ = -28						; size = 4
_tankMsg$9 = -24					; size = 4
_entity$ = -20						; size = 4
_count$ = -16						; size = 4
__$EHRec$ = -12						; size = 12
_doneOne$ = 8						; size = 4
?AddToWaitQ@TankerBrain@@QAEHPAVSimVehicleClass@@@Z PROC ; TankerBrain::AddToWaitQ
; _this$ = ecx

; 1593 : {

	push	ebp
	mov	ebp, esp
	push	-1
	push	__ehhandler$?AddToWaitQ@TankerBrain@@QAEHPAVSimVehicleClass@@@Z
	mov	eax, DWORD PTR fs:0
	push	eax
	sub	esp, 80					; 00000050H
	mov	eax, DWORD PTR ___security_cookie
	xor	eax, ebp
	push	eax
	lea	eax, DWORD PTR __$EHRec$[ebp]
	mov	DWORD PTR fs:0, eax
	mov	DWORD PTR _this$[ebp], ecx

; 1594 : 	VuEntity		*entity = NULL;

	mov	DWORD PTR _entity$[ebp], 0

; 1595 : 	int count = 1;

	mov	DWORD PTR _count$[ebp], 1

; 1596 : 
; 1597 : 	{
; 1598 : 		VuListIterator	myit(waitQ);

	mov	eax, DWORD PTR _this$[ebp]
	mov	ecx, DWORD PTR [eax+976]
	push	ecx
	lea	ecx, DWORD PTR _myit$3[ebp]
	call	??0VuListIterator@@QAE@PAVVuLinkedList@@@Z ; VuListIterator::VuListIterator
	mov	DWORD PTR __$EHRec$[ebp+8], 0

; 1599 : 		entity = myit.GetFirst();

	lea	ecx, DWORD PTR _myit$3[ebp]
	call	?GetFirst@VuListIterator@@QAEPAVVuEntity@@XZ ; VuListIterator::GetFirst
	mov	DWORD PTR _entity$[ebp], eax
$LN5@AddToWaitQ:

; 1600 : 		while(entity)

	cmp	DWORD PTR _entity$[ebp], 0
	je	SHORT $LN4@AddToWaitQ

; 1601 : 		{
; 1602 : 			if(entity == doneOne)

	mov	edx, DWORD PTR _entity$[ebp]
	cmp	edx, DWORD PTR _doneOne$[ebp]
	jne	SHORT $LN3@AddToWaitQ

; 1603 : 			{
; 1604 : 				return count;

	mov	eax, DWORD PTR _count$[ebp]
	mov	DWORD PTR $T7[ebp], eax
	mov	DWORD PTR __$EHRec$[ebp+8], -1
	lea	ecx, DWORD PTR _myit$3[ebp]
	call	??1VuListIterator@@UAE@XZ		; VuListIterator::~VuListIterator
	mov	eax, DWORD PTR $T7[ebp]
	jmp	$LN6@AddToWaitQ
$LN3@AddToWaitQ:

; 1605 : 			}		
; 1606 : 			count++;

	mov	ecx, DWORD PTR _count$[ebp]
	add	ecx, 1
	mov	DWORD PTR _count$[ebp], ecx

; 1607 : 			entity = myit.GetNext();

	lea	ecx, DWORD PTR _myit$3[ebp]
	call	?GetNext@VuListIterator@@QAEPAVVuEntity@@XZ ; VuListIterator::GetNext
	mov	DWORD PTR _entity$[ebp], eax

; 1608 : 		}

	jmp	SHORT $LN5@AddToWaitQ
$LN4@AddToWaitQ:

; 1609 : 	}

	mov	DWORD PTR __$EHRec$[ebp+8], -1
	lea	ecx, DWORD PTR _myit$3[ebp]
	call	??1VuListIterator@@UAE@XZ		; VuListIterator::~VuListIterator

; 1610 : 	waitQ->ForcedInsert(doneOne);

	mov	edx, DWORD PTR _doneOne$[ebp]
	push	edx
	mov	eax, DWORD PTR _this$[ebp]
	mov	ecx, DWORD PTR [eax+976]
	call	?ForcedInsert@HeadInsertList@@QAEHPAVVuEntity@@@Z ; HeadInsertList::ForcedInsert

; 1611 : 
; 1612 : 	count = 1;

	mov	DWORD PTR _count$[ebp], 1

; 1613 : 	{
; 1614 : 		VuListIterator	myit(waitQ);

	mov	ecx, DWORD PTR _this$[ebp]
	mov	edx, DWORD PTR [ecx+976]
	push	edx
	lea	ecx, DWORD PTR _myit$2[ebp]
	call	??0VuListIterator@@QAE@PAVVuLinkedList@@@Z ; VuListIterator::VuListIterator
	mov	DWORD PTR __$EHRec$[ebp+8], 1

; 1615 : 		entity = myit.GetFirst();

	lea	ecx, DWORD PTR _myit$2[ebp]
	call	?GetFirst@VuListIterator@@QAEPAVVuEntity@@XZ ; VuListIterator::GetFirst
	mov	DWORD PTR _entity$[ebp], eax
$LN2@AddToWaitQ:

; 1616 : 		while(entity)

	cmp	DWORD PTR _entity$[ebp], 0
	je	$LN1@AddToWaitQ

; 1617 : 		{
; 1618 : 			FalconTankerMessage *tankMsg;
; 1619 : 
; 1620 : 			tankMsg = new FalconTankerMessage (self->Id(), FalconLocalGame);

	push	68					; 00000044H
	call	??2@YAPAXI@Z				; operator new
	add	esp, 4
	mov	DWORD PTR $T8[ebp], eax
	mov	BYTE PTR __$EHRec$[ebp+8], 2
	cmp	DWORD PTR $T8[ebp], 0
	je	SHORT $LN10@AddToWaitQ
	mov	ecx, OFFSET ?vuLocalSessionEntity@@3V?$VuBin@VVuSessionEntity@@@@A ; vuLocalSessionEntity
	call	??B?$VuBin@VVuSessionEntity@@@@QBE_NXZ	; VuBin<VuSessionEntity>::operator bool
	movzx	eax, al
	test	eax, eax
	je	SHORT $LN8@AddToWaitQ
	mov	ecx, OFFSET ?vuLocalSessionEntity@@3V?$VuBin@VVuSessionEntity@@@@A ; vuLocalSessionEntity
	call	?get@?$VuBin@VVuSessionEntity@@@@QBEPAVVuSessionEntity@@XZ ; VuBin<VuSessionEntity>::get
	mov	ecx, eax
	call	?GetGame@FalconSessionEntity@@QAEPAVFalconGameEntity@@XZ ; FalconSessionEntity::GetGame
	mov	DWORD PTR tv158[ebp], eax
	jmp	SHORT $LN9@AddToWaitQ
$LN8@AddToWaitQ:
	mov	DWORD PTR tv158[ebp], 0
$LN9@AddToWaitQ:
	push	1
	mov	ecx, DWORD PTR tv158[ebp]
	push	ecx
	lea	edx, DWORD PTR $T5[ebp]
	push	edx
	mov	eax, DWORD PTR _this$[ebp]
	mov	ecx, DWORD PTR [eax+56]
	call	?Id@VuEntity@@QBE?AVVU_ID@@XZ		; VuEntity::Id
	mov	ecx, DWORD PTR [eax+4]
	push	ecx
	mov	edx, DWORD PTR [eax]
	push	edx
	mov	ecx, DWORD PTR $T8[ebp]
	call	??0FalconTankerMessage@@QAE@VVU_ID@@PAVVuTargetEntity@@E@Z ; FalconTankerMessage::FalconTankerMessage
	mov	DWORD PTR tv174[ebp], eax
	jmp	SHORT $LN11@AddToWaitQ
$LN10@AddToWaitQ:
	mov	DWORD PTR tv174[ebp], 0
$LN11@AddToWaitQ:
	mov	eax, DWORD PTR tv174[ebp]
	mov	DWORD PTR $T6[ebp], eax
	mov	BYTE PTR __$EHRec$[ebp+8], 1
	mov	ecx, DWORD PTR $T6[ebp]
	mov	DWORD PTR _tankMsg$9[ebp], ecx

; 1621 : 			tankMsg->dataBlock.caller = doneOne->Id();

	lea	edx, DWORD PTR $T4[ebp]
	push	edx
	mov	ecx, DWORD PTR _doneOne$[ebp]
	call	?Id@VuEntity@@QBE?AVVU_ID@@XZ		; VuEntity::Id
	mov	ecx, DWORD PTR [eax]
	mov	edx, DWORD PTR [eax+4]
	mov	eax, DWORD PTR _tankMsg$9[ebp]
	mov	DWORD PTR [eax+48], ecx
	mov	DWORD PTR [eax+52], edx

; 1622 : 			tankMsg->dataBlock.type = FalconTankerMessage::PositionUpdate;

	mov	ecx, DWORD PTR _tankMsg$9[ebp]
	mov	DWORD PTR [ecx+56], 11			; 0000000bH

; 1623 : 			tankMsg->dataBlock.data1 = tankMsg->dataBlock.data1 = (float)count;

	cvtsi2ss xmm0, DWORD PTR _count$[ebp]
	movss	DWORD PTR tv190[ebp], xmm0
	mov	edx, DWORD PTR _tankMsg$9[ebp]
	movss	xmm0, DWORD PTR tv190[ebp]
	movss	DWORD PTR [edx+60], xmm0
	mov	eax, DWORD PTR _tankMsg$9[ebp]
	movss	xmm0, DWORD PTR tv190[ebp]
	movss	DWORD PTR [eax+60], xmm0

; 1624 : 			FalconSendMessage (tankMsg);

	push	0
	mov	ecx, DWORD PTR _tankMsg$9[ebp]
	push	ecx
	call	?FalconSendMessage@@YAXPAVVuMessage@@H@Z ; FalconSendMessage
	add	esp, 8

; 1625 : 			count++;

	mov	edx, DWORD PTR _count$[ebp]
	add	edx, 1
	mov	DWORD PTR _count$[ebp], edx

; 1626 : 			entity = myit.GetNext();

	lea	ecx, DWORD PTR _myit$2[ebp]
	call	?GetNext@VuListIterator@@QAEPAVVuEntity@@XZ ; VuListIterator::GetNext
	mov	DWORD PTR _entity$[ebp], eax

; 1627 : 		}

	jmp	$LN2@AddToWaitQ
$LN1@AddToWaitQ:

; 1628 : 	}

	mov	DWORD PTR __$EHRec$[ebp+8], -1
	lea	ecx, DWORD PTR _myit$2[ebp]
	call	??1VuListIterator@@UAE@XZ		; VuListIterator::~VuListIterator

; 1629 : 	
; 1630 : 	return 1;

	mov	eax, 1
$LN6@AddToWaitQ:

; 1631 : }

	mov	ecx, DWORD PTR __$EHRec$[ebp]
	mov	DWORD PTR fs:0, ecx
	pop	ecx
	mov	esp, ebp
	pop	ebp
	ret	4
_TEXT	ENDS
text$x	SEGMENT
__unwindfunclet$?AddToWaitQ@TankerBrain@@QAEHPAVSimVehicleClass@@@Z$0:
	lea	ecx, DWORD PTR _myit$3[ebp]
	jmp	??1VuListIterator@@UAE@XZ		; VuListIterator::~VuListIterator
__unwindfunclet$?AddToWaitQ@TankerBrain@@QAEHPAVSimVehicleClass@@@Z$1:
	lea	ecx, DWORD PTR _myit$2[ebp]
	jmp	??1VuListIterator@@UAE@XZ		; VuListIterator::~VuListIterator
__unwindfunclet$?AddToWaitQ@TankerBrain@@QAEHPAVSimVehicleClass@@@Z$2:
	mov	eax, DWORD PTR $T8[ebp]
	push	eax
	call	??3@YAXPAX@Z				; operator delete
	pop	ecx
	ret	0
__ehhandler$?AddToWaitQ@TankerBrain@@QAEHPAVSimVehicleClass@@@Z:
	mov	edx, DWORD PTR [esp+8]
	lea	eax, DWORD PTR [edx+12]
	mov	ecx, DWORD PTR [edx-84]
	xor	ecx, eax
	call	@__security_check_cookie@4
	mov	eax, OFFSET __ehfuncinfo$?AddToWaitQ@TankerBrain@@QAEHPAVSimVehicleClass@@@Z
	jmp	___CxxFrameHandler3
text$x	ENDS
?AddToWaitQ@TankerBrain@@QAEHPAVSimVehicleClass@@@Z ENDP ; TankerBrain::AddToWaitQ
; Function compile flags: /Odtp
; File c:\users\zhitao li\documents\visual studio 2012\projects\freefalcon\sim\digi\tankbrn.cpp
_TEXT	SEGMENT
_this$ = -4						; size = 4
?AIReady@TankerBrain@@QAEXXZ PROC			; TankerBrain::AIReady
; _this$ = ecx

; 1580 : {

	push	ebp
	mov	ebp, esp
	push	ecx
	mov	DWORD PTR _this$[ebp], ecx

; 1581 : 	flags |= AIready;

	mov	eax, DWORD PTR _this$[ebp]
	mov	ecx, DWORD PTR [eax+1200]
	or	ecx, 128				; 00000080H
	mov	edx, DWORD PTR _this$[ebp]
	mov	DWORD PTR [edx+1200], ecx

; 1582 : }

	mov	esp, ebp
	pop	ebp
	ret	0
?AIReady@TankerBrain@@QAEXXZ ENDP			; TankerBrain::AIReady
_TEXT	ENDS
; Function compile flags: /Odtp
; File c:\users\zhitao li\documents\visual studio 2012\projects\freefalcon\sim\digi\tankbrn.cpp
_TEXT	SEGMENT
_this$ = -4						; size = 4
_thirstyOne$ = 8					; size = 4
?RemoveFromQ@TankerBrain@@QAEXPAVSimVehicleClass@@@Z PROC ; TankerBrain::RemoveFromQ
; _this$ = ecx

; 1585 : {

	push	ebp
	mov	ebp, esp
	push	ecx
	mov	DWORD PTR _this$[ebp], ecx

; 1586 : 	if(thirstyOne == curThirsty)

	mov	eax, DWORD PTR _this$[ebp]
	mov	ecx, DWORD PTR _thirstyOne$[ebp]
	cmp	ecx, DWORD PTR [eax+980]
	jne	SHORT $LN1@RemoveFrom

; 1587 : 		curThirsty = NULL;

	mov	edx, DWORD PTR _this$[ebp]
	mov	DWORD PTR [edx+980], 0
$LN1@RemoveFrom:

; 1588 : 
; 1589 : 	thirstyQ->Remove(thirstyOne);

	mov	eax, DWORD PTR _thirstyOne$[ebp]
	push	eax
	mov	ecx, DWORD PTR _this$[ebp]
	mov	ecx, DWORD PTR [ecx+972]
	call	?Remove@VuCollection@@QAEHPAVVuEntity@@@Z ; VuCollection::Remove

; 1590 : }

	mov	esp, ebp
	pop	ebp
	ret	4
?RemoveFromQ@TankerBrain@@QAEXPAVSimVehicleClass@@@Z ENDP ; TankerBrain::RemoveFromQ
_TEXT	ENDS
; Function compile flags: /Odtp
; File c:\users\zhitao li\documents\visual studio 2012\projects\freefalcon\sim\digi\tankbrn.cpp
_TEXT	SEGMENT
_myit$2 = -84						; size = 12
$T3 = -72						; size = 8
$T4 = -64						; size = 8
$T5 = -56						; size = 4
$T6 = -52						; size = 4
$T7 = -48						; size = 4
tv182 = -44						; size = 4
tv166 = -40						; size = 4
$T8 = -36						; size = 4
tv150 = -32						; size = 4
_this$ = -28						; size = 4
_entity$ = -24						; size = 4
_tankMsg$9 = -20					; size = 4
_count$ = -16						; size = 4
__$EHRec$ = -12						; size = 12
_thirstyOne$ = 8					; size = 4
?AddToQ@TankerBrain@@QAEHPAVSimVehicleClass@@@Z PROC	; TankerBrain::AddToQ
; _this$ = ecx

; 1541 : {

	push	ebp
	mov	ebp, esp
	push	-1
	push	__ehhandler$?AddToQ@TankerBrain@@QAEHPAVSimVehicleClass@@@Z
	mov	eax, DWORD PTR fs:0
	push	eax
	sub	esp, 72					; 00000048H
	mov	eax, DWORD PTR ___security_cookie
	xor	eax, ebp
	push	eax
	lea	eax, DWORD PTR __$EHRec$[ebp]
	mov	DWORD PTR fs:0, eax
	mov	DWORD PTR _this$[ebp], ecx

; 1542 : 	VuEntity		*entity = NULL;

	mov	DWORD PTR _entity$[ebp], 0

; 1543 : 	int count = 0;

	mov	DWORD PTR _count$[ebp], 0

; 1544 : 
; 1545 : 	if (thirstyQ){

	mov	eax, DWORD PTR _this$[ebp]
	cmp	DWORD PTR [eax+972], 0
	je	$LN1@AddToQ

; 1546 : 		{
; 1547 : 			VuListIterator	myit(thirstyQ);

	mov	ecx, DWORD PTR _this$[ebp]
	mov	edx, DWORD PTR [ecx+972]
	push	edx
	lea	ecx, DWORD PTR _myit$2[ebp]
	call	??0VuListIterator@@QAE@PAVVuLinkedList@@@Z ; VuListIterator::VuListIterator
	mov	DWORD PTR __$EHRec$[ebp+8], 0

; 1548 : 			entity = myit.GetFirst();

	lea	ecx, DWORD PTR _myit$2[ebp]
	call	?GetFirst@VuListIterator@@QAEPAVVuEntity@@XZ ; VuListIterator::GetFirst
	mov	DWORD PTR _entity$[ebp], eax
$LN6@AddToQ:

; 1549 : 			while(entity)

	cmp	DWORD PTR _entity$[ebp], 0
	je	SHORT $LN5@AddToQ

; 1550 : 			{
; 1551 : 				if(entity == thirstyOne)

	mov	eax, DWORD PTR _entity$[ebp]
	cmp	eax, DWORD PTR _thirstyOne$[ebp]
	jne	SHORT $LN2@AddToQ

; 1552 : 				{
; 1553 : 					if(count == 0)

	cmp	DWORD PTR _count$[ebp], 0
	jne	SHORT $LN3@AddToQ

; 1554 : 						return -1;

	mov	DWORD PTR $T7[ebp], -1
	mov	DWORD PTR __$EHRec$[ebp+8], -1
	lea	ecx, DWORD PTR _myit$2[ebp]
	call	??1VuListIterator@@UAE@XZ		; VuListIterator::~VuListIterator
	mov	eax, DWORD PTR $T7[ebp]
	jmp	$LN8@AddToQ

; 1555 : 					else

	jmp	SHORT $LN2@AddToQ
$LN3@AddToQ:

; 1556 : 						return count;

	mov	ecx, DWORD PTR _count$[ebp]
	mov	DWORD PTR $T6[ebp], ecx
	mov	DWORD PTR __$EHRec$[ebp+8], -1
	lea	ecx, DWORD PTR _myit$2[ebp]
	call	??1VuListIterator@@UAE@XZ		; VuListIterator::~VuListIterator
	mov	eax, DWORD PTR $T6[ebp]
	jmp	$LN8@AddToQ
$LN2@AddToQ:

; 1557 : 				}
; 1558 : 				
; 1559 : 				count++;

	mov	edx, DWORD PTR _count$[ebp]
	add	edx, 1
	mov	DWORD PTR _count$[ebp], edx

; 1560 : 				entity = myit.GetNext();

	lea	ecx, DWORD PTR _myit$2[ebp]
	call	?GetNext@VuListIterator@@QAEPAVVuEntity@@XZ ; VuListIterator::GetNext
	mov	DWORD PTR _entity$[ebp], eax

; 1561 : 			}

	jmp	SHORT $LN6@AddToQ
$LN5@AddToQ:

; 1562 : 		}

	mov	DWORD PTR __$EHRec$[ebp+8], -1
	lea	ecx, DWORD PTR _myit$2[ebp]
	call	??1VuListIterator@@UAE@XZ		; VuListIterator::~VuListIterator

; 1563 : 		thirstyQ->ForcedInsert(thirstyOne);

	mov	eax, DWORD PTR _thirstyOne$[ebp]
	push	eax
	mov	ecx, DWORD PTR _this$[ebp]
	mov	ecx, DWORD PTR [ecx+972]
	call	?ForcedInsert@TailInsertList@@QAEHPAVVuEntity@@@Z ; TailInsertList::ForcedInsert

; 1564 : 		if(count != 0)

	cmp	DWORD PTR _count$[ebp], 0
	je	$LN1@AddToQ

; 1565 : 		{
; 1566 : 			FalconTankerMessage *tankMsg;
; 1567 : 
; 1568 : 			tankMsg = new FalconTankerMessage (self->Id(), FalconLocalGame);

	push	68					; 00000044H
	call	??2@YAPAXI@Z				; operator new
	add	esp, 4
	mov	DWORD PTR $T8[ebp], eax
	mov	DWORD PTR __$EHRec$[ebp+8], 1
	cmp	DWORD PTR $T8[ebp], 0
	je	SHORT $LN12@AddToQ
	mov	ecx, OFFSET ?vuLocalSessionEntity@@3V?$VuBin@VVuSessionEntity@@@@A ; vuLocalSessionEntity
	call	??B?$VuBin@VVuSessionEntity@@@@QBE_NXZ	; VuBin<VuSessionEntity>::operator bool
	movzx	edx, al
	test	edx, edx
	je	SHORT $LN10@AddToQ
	mov	ecx, OFFSET ?vuLocalSessionEntity@@3V?$VuBin@VVuSessionEntity@@@@A ; vuLocalSessionEntity
	call	?get@?$VuBin@VVuSessionEntity@@@@QBEPAVVuSessionEntity@@XZ ; VuBin<VuSessionEntity>::get
	mov	ecx, eax
	call	?GetGame@FalconSessionEntity@@QAEPAVFalconGameEntity@@XZ ; FalconSessionEntity::GetGame
	mov	DWORD PTR tv150[ebp], eax
	jmp	SHORT $LN11@AddToQ
$LN10@AddToQ:
	mov	DWORD PTR tv150[ebp], 0
$LN11@AddToQ:
	push	1
	mov	eax, DWORD PTR tv150[ebp]
	push	eax
	lea	ecx, DWORD PTR $T4[ebp]
	push	ecx
	mov	edx, DWORD PTR _this$[ebp]
	mov	ecx, DWORD PTR [edx+56]
	call	?Id@VuEntity@@QBE?AVVU_ID@@XZ		; VuEntity::Id
	mov	ecx, DWORD PTR [eax+4]
	push	ecx
	mov	edx, DWORD PTR [eax]
	push	edx
	mov	ecx, DWORD PTR $T8[ebp]
	call	??0FalconTankerMessage@@QAE@VVU_ID@@PAVVuTargetEntity@@E@Z ; FalconTankerMessage::FalconTankerMessage
	mov	DWORD PTR tv166[ebp], eax
	jmp	SHORT $LN13@AddToQ
$LN12@AddToQ:
	mov	DWORD PTR tv166[ebp], 0
$LN13@AddToQ:
	mov	eax, DWORD PTR tv166[ebp]
	mov	DWORD PTR $T5[ebp], eax
	mov	DWORD PTR __$EHRec$[ebp+8], -1
	mov	ecx, DWORD PTR $T5[ebp]
	mov	DWORD PTR _tankMsg$9[ebp], ecx

; 1569 : 			tankMsg->dataBlock.caller = thirstyOne->Id();

	lea	edx, DWORD PTR $T3[ebp]
	push	edx
	mov	ecx, DWORD PTR _thirstyOne$[ebp]
	call	?Id@VuEntity@@QBE?AVVU_ID@@XZ		; VuEntity::Id
	mov	ecx, DWORD PTR [eax]
	mov	edx, DWORD PTR [eax+4]
	mov	eax, DWORD PTR _tankMsg$9[ebp]
	mov	DWORD PTR [eax+48], ecx
	mov	DWORD PTR [eax+52], edx

; 1570 : 			tankMsg->dataBlock.type = FalconTankerMessage::PositionUpdate;

	mov	ecx, DWORD PTR _tankMsg$9[ebp]
	mov	DWORD PTR [ecx+56], 11			; 0000000bH

; 1571 : 			tankMsg->dataBlock.data1 = tankMsg->dataBlock.data1 = (float)count;

	cvtsi2ss xmm0, DWORD PTR _count$[ebp]
	movss	DWORD PTR tv182[ebp], xmm0
	mov	edx, DWORD PTR _tankMsg$9[ebp]
	movss	xmm0, DWORD PTR tv182[ebp]
	movss	DWORD PTR [edx+60], xmm0
	mov	eax, DWORD PTR _tankMsg$9[ebp]
	movss	xmm0, DWORD PTR tv182[ebp]
	movss	DWORD PTR [eax+60], xmm0

; 1572 : 			FalconSendMessage (tankMsg);

	push	0
	mov	ecx, DWORD PTR _tankMsg$9[ebp]
	push	ecx
	call	?FalconSendMessage@@YAXPAVVuMessage@@H@Z ; FalconSendMessage
	add	esp, 8
$LN1@AddToQ:

; 1573 : 		}
; 1574 : 	}
; 1575 : 
; 1576 : 	return count;

	mov	eax, DWORD PTR _count$[ebp]
$LN8@AddToQ:

; 1577 : }

	mov	ecx, DWORD PTR __$EHRec$[ebp]
	mov	DWORD PTR fs:0, ecx
	pop	ecx
	mov	esp, ebp
	pop	ebp
	ret	4
_TEXT	ENDS
text$x	SEGMENT
__unwindfunclet$?AddToQ@TankerBrain@@QAEHPAVSimVehicleClass@@@Z$0:
	lea	ecx, DWORD PTR _myit$2[ebp]
	jmp	??1VuListIterator@@UAE@XZ		; VuListIterator::~VuListIterator
__unwindfunclet$?AddToQ@TankerBrain@@QAEHPAVSimVehicleClass@@@Z$1:
	mov	eax, DWORD PTR $T8[ebp]
	push	eax
	call	??3@YAXPAX@Z				; operator delete
	pop	ecx
	ret	0
__ehhandler$?AddToQ@TankerBrain@@QAEHPAVSimVehicleClass@@@Z:
	mov	edx, DWORD PTR [esp+8]
	lea	eax, DWORD PTR [edx+12]
	mov	ecx, DWORD PTR [edx-76]
	xor	ecx, eax
	call	@__security_check_cookie@4
	mov	eax, OFFSET __ehfuncinfo$?AddToQ@TankerBrain@@QAEHPAVSimVehicleClass@@@Z
	jmp	___CxxFrameHandler3
text$x	ENDS
?AddToQ@TankerBrain@@QAEHPAVSimVehicleClass@@@Z ENDP	; TankerBrain::AddToQ
; Function compile flags: /Odtp
; File c:\users\zhitao li\documents\visual studio 2012\projects\freefalcon\sim\digi\tankbrn.cpp
_TEXT	SEGMENT
_z$1 = -152						; size = 4
_longleg$2 = -148					; size = 4
tv671 = -144						; size = 4
tv638 = -140						; size = 4
tv704 = -136						; size = 4
tv681 = -132						; size = 4
tv714 = -128						; size = 4
tv648 = -124						; size = 4
_flight$3 = -120					; size = 4
_shortleg$4 = -116					; size = 4
_distance$5 = -112					; size = 4
_gy$6 = -108						; size = 2
_farthercloser$7 = -104					; size = 4
_gx$8 = -100						; size = 2
_gx$9 = -96						; size = 2
_gy$10 = -92						; size = 2
_gy$11 = -88						; size = 2
_y$12 = -84						; size = 4
_gx$13 = -80						; size = 2
_x$14 = -76						; size = 4
_dx$15 = -72						; size = 4
_dy$16 = -68						; size = 4
_w$17 = -64						; size = 4
_dist$18 = -60						; size = 4
_heading$19 = -56					; size = 4
_boxside$20 = -49					; size = 1
_heading$21 = -48					; size = 4
_this$ = -44						; size = 4
_pos$22 = -40						; size = 12
_pos$23 = -28						; size = 12
_pos$24 = -16						; size = 12
__$ArrayPad$ = -4					; size = 4
_tList$ = 8						; size = 4
_tPtr$ = 12						; size = 4
?FrameExec@TankerBrain@@UAEXPAVSimObjectType@@0@Z PROC	; TankerBrain::FrameExec
; _this$ = ecx

; 1655 : {

	push	ebp
	mov	ebp, esp
	sub	esp, 152				; 00000098H
	mov	eax, DWORD PTR ___security_cookie
	xor	eax, ebp
	mov	DWORD PTR __$ArrayPad$[ebp], eax
	push	esi
	mov	DWORD PTR _this$[ebp], ecx

; 1656 : 	if (!(flags & (IsRefueling|ClearingPlane)))

	mov	eax, DWORD PTR _this$[ebp]
	mov	ecx, DWORD PTR [eax+1200]
	and	ecx, 65					; 00000041H
	jne	$LN38@FrameExec

; 1657 : 	{
; 1658 : 		DigitalBrain::FrameExec(tList, tPtr);

	mov	edx, DWORD PTR _tPtr$[ebp]
	push	edx
	mov	eax, DWORD PTR _tList$[ebp]
	push	eax
	mov	ecx, DWORD PTR _this$[ebp]
	call	?FrameExec@DigitalBrain@@UAEXPAVSimObjectType@@0@Z ; DigitalBrain::FrameExec

; 1659 : 		// Lights Off
; 1660 : 		if(stype == TNKR_KC10)

	mov	ecx, DWORD PTR _this$[ebp]
	cmp	DWORD PTR [ecx+1192], 0
	jne	SHORT $LN37@FrameExec

; 1661 : 			DriveLights();	

	mov	ecx, DWORD PTR _this$[ebp]
	call	?DriveLights@TankerBrain@@AAEXXZ	; TankerBrain::DriveLights
	jmp	SHORT $LN35@FrameExec
$LN37@FrameExec:

; 1662 : 		else if(stype == TNKR_KC135 && g_bLightsKC135)	// when we have the lights on the KC-135 model

	mov	edx, DWORD PTR _this$[ebp]
	cmp	DWORD PTR [edx+1192], 1
	jne	SHORT $LN35@FrameExec
	movzx	eax, BYTE PTR ?g_bLightsKC135@@3_NA	; g_bLightsKC135
	test	eax, eax
	je	SHORT $LN35@FrameExec

; 1663 : 			DriveLights();

	mov	ecx, DWORD PTR _this$[ebp]
	call	?DriveLights@TankerBrain@@AAEXXZ	; TankerBrain::DriveLights
$LN35@FrameExec:

; 1664 : #ifdef DAVE_DBG	 
; 1665 : 		if(MoveBoom && ServiceType == BOOM_SERVICE)
; 1666 : 		{
; 1667 : 			boomAzTest = max ( min (boomAzTest,  23.0F * DTR), -23.0F * DTR);
; 1668 : 			boomElTest = max ( min (boomElTest, 4.0F * DTR), -40.0F * DTR);
; 1669 : 			boomExtTest = max ( min (boomExtTest, 21.0F), 0.0F); 
; 1670 : 
; 1671 : 			boom[BOOM].drawPointer->SetDOFangle(BOOM_AZIMUTH, -boomAzTest);
; 1672 : 			boom[BOOM].drawPointer->SetDOFangle(BOOM_ELEVATION, -boomElTest);
; 1673 : 			boom[BOOM].drawPointer->SetDOFoffset(BOOM_EXTENSION, boomExtTest);
; 1674 : 		}
; 1675 : 		else
; 1676 : 			DriveBoom();
; 1677 : 		
; 1678 : #else
; 1679 : 		// Boom Away
; 1680 : 		DriveBoom();

	mov	ecx, DWORD PTR _this$[ebp]
	call	?DriveBoom@TankerBrain@@AAEXXZ		; TankerBrain::DriveBoom

; 1681 : #endif
; 1682 : 
; 1683 : 		// 07DEC03 - FRB - Turn on drogue lights
; 1684 : 		if (boom[DROGUE].drawPointer)

	mov	ecx, DWORD PTR _this$[ebp]
	mov	edx, DWORD PTR [ecx+1020]
	imul	edx, 28					; 0000001cH
	mov	eax, DWORD PTR _this$[ebp]
	cmp	DWORD PTR [eax+edx+1060], 0
	je	SHORT $LN34@FrameExec

; 1685 : 			boom[DROGUE].drawPointer->SetSwitchMask(0, 0);

	push	0
	push	0
	mov	ecx, DWORD PTR _this$[ebp]
	mov	edx, DWORD PTR [ecx+1020]
	imul	edx, 28					; 0000001cH
	mov	eax, DWORD PTR _this$[ebp]
	mov	ecx, DWORD PTR [eax+edx+1060]
	call	?SetSwitchMask@DrawableBSP@@QAEXHK@Z	; DrawableBSP::SetSwitchMask
$LN34@FrameExec:

; 1686 : 		
; 1687 : 		CallNext();

	mov	ecx, DWORD PTR _this$[ebp]
	call	?CallNext@TankerBrain@@AAEXXZ		; TankerBrain::CallNext

; 1688 : 	}
; 1689 : 	else

	jmp	$LN33@FrameExec
$LN38@FrameExec:

; 1690 : 	{
; 1691 : 		if (g_bUseTankerTrack)

	movzx	ecx, BYTE PTR ?g_bUseTankerTrack@@3_NA	; g_bUseTankerTrack
	test	ecx, ecx
	je	$LN32@FrameExec

; 1692 : 		{
; 1693 : 			if (directionsetup)

	mov	edx, DWORD PTR _this$[ebp]
	cmp	DWORD PTR [edx+1224], 0
	je	$LN31@FrameExec

; 1694 : 			{
; 1695 : /*
; 1696 : 	1.) Find heading to FLOT
; 1697 : 	2.) Get distance to FLOT
; 1698 : 	3.) if Distance is too close (MINIMUM_TANKER_DISTANCE, Falcon4.AII), 
; 1699 : 		or too far (MAXIMUM_TANKER_DISTANCE, Falcon4.AII), set first tanker trackpoint as the first "Tanker" waypoint
; 1700 : 	4.) In normal case: set up TrackPoints array: 
; 1701 : 			TP[].x = XPos
; 1702 : 			TP[].y = YPos
; 1703 : 			TP[].z = Heading (no need to calculate this over and over again...)
; 1704 : 
; 1705 : 			TP[0] = Current location
; 1706 : 			TP[1] = 90 25 nm	<- this is a 180 heading away from the FLOT
; 1707 : 			TP[2] = 90 60 nm	<- parallel to the FLOT
; 1708 : 			TP[3] = 90 25 nm	<- towards the FLOT
; 1709 : 
; 1710 : 			boxside decides if we do a left or right box, according to heading to FLOT
; 1711 : 
; 1712 : 			set currentTP to point 1
; 1713 : 
; 1714 : 	5.) if one of 3.) is true:
; 1715 : 			TP[0] = farther away/closer to the FLOT
; 1716 : 			TP[1] = 90 25 nm	<- this is a 180 heading away from the FLOT
; 1717 : 			TP[2] = 90 60 nm	<- parallel to the FLOT
; 1718 : 			TP[3] = 90 25 nm	<- towards the FLOT
; 1719 : 
; 1720 : 			boxside decides if we do a left or right box
; 1721 : 			
; 1722 : 			set currentTP to point 0
; 1723 : 
; 1724 : 			check if we go from TP 0 to TP 3 or from TP 0 to TP 1
; 1725 : */
; 1726 : 				float dist, dx, dy, longleg, shortleg, heading, distance;
; 1727 : 				bool boxside = false;

	mov	BYTE PTR _boxside$20[ebp], 0

; 1728 : 				int farthercloser = 0;

	mov	DWORD PTR _farthercloser$7[ebp], 0

; 1729 : 
; 1730 : 				reachedFirstTrackpoint = false;

	mov	eax, DWORD PTR _this$[ebp]
	mov	BYTE PTR [eax+1289], 0

; 1731 : 
; 1732 : 				directionsetup = 0;

	mov	ecx, DWORD PTR _this$[ebp]
	mov	DWORD PTR [ecx+1224], 0

; 1733 : 				HeadsUp = true;

	mov	edx, DWORD PTR _this$[ebp]
	mov	DWORD PTR [edx+1228], 1

; 1734 : 				advancedirection = false; // means go trackpoint 0->1->2->3

	mov	eax, DWORD PTR _this$[ebp]
	mov	BYTE PTR [eax+1288], 0

; 1735 : 
; 1736 : 				ShiAssert(curThirsty);
; 1737 : 				if (curThirsty){

	mov	ecx, DWORD PTR _this$[ebp]
	cmp	DWORD PTR [ecx+980], 0
	je	SHORT $LN30@FrameExec

; 1738 : 					longleg = ((AircraftClass*)curThirsty)->af->GetTankerLongLeg();

	mov	edx, DWORD PTR _this$[ebp]
	mov	eax, DWORD PTR [edx+980]
	mov	ecx, DWORD PTR [eax+932]
	call	?GetTankerLongLeg@AirframeClass@@QAEMXZ	; AirframeClass::GetTankerLongLeg
	fstp	DWORD PTR _longleg$2[ebp]

; 1739 : 					shortleg = ((AircraftClass*)curThirsty)->af->GetTankerShortLeg();

	mov	ecx, DWORD PTR _this$[ebp]
	mov	edx, DWORD PTR [ecx+980]
	mov	ecx, DWORD PTR [edx+932]
	call	?GetTankerShortLeg@AirframeClass@@QAEMXZ ; AirframeClass::GetTankerShortLeg
	fstp	DWORD PTR _shortleg$4[ebp]
$LN30@FrameExec:

; 1740 : 				}
; 1741 : 
; 1742 : 				distance = DistanceToFront(SimToGrid(self->YPos()),SimToGrid(self->XPos()));

	mov	eax, DWORD PTR _this$[ebp]
	mov	ecx, DWORD PTR [eax+56]
	call	?XPos@VuEntity@@QBEMXZ			; VuEntity::XPos
	push	ecx
	fstp	DWORD PTR [esp]
	call	?SimToGrid@@YAFM@Z			; SimToGrid
	add	esp, 4
	movzx	ecx, ax
	push	ecx
	mov	edx, DWORD PTR _this$[ebp]
	mov	ecx, DWORD PTR [edx+56]
	call	?YPos@VuEntity@@QBEMXZ			; VuEntity::YPos
	push	ecx
	fstp	DWORD PTR [esp]
	call	?SimToGrid@@YAFM@Z			; SimToGrid
	add	esp, 4
	movzx	eax, ax
	push	eax
	call	?DistanceToFront@@YAMFF@Z		; DistanceToFront
	add	esp, 8
	fstp	DWORD PTR _distance$5[ebp]

; 1743 : 
; 1744 : 				if (distance < (float)(MINIMUM_TANKER_DISTANCE - 5)){

	movsx	ecx, WORD PTR ?MINIMUM_TANKER_DISTANCE@@3FA ; MINIMUM_TANKER_DISTANCE
	sub	ecx, 5
	cvtsi2ss xmm0, ecx
	comiss	xmm0, DWORD PTR _distance$5[ebp]
	jbe	SHORT $LN29@FrameExec

; 1745 : 					farthercloser = 1;

	mov	DWORD PTR _farthercloser$7[ebp], 1
	jmp	SHORT $LN27@FrameExec
$LN29@FrameExec:

; 1746 : 				}
; 1747 : 				else if (distance > (float)(MAXIMUM_TANKER_DISTANCE + 5)){

	movsx	edx, WORD PTR ?MAXIMUM_TANKER_DISTANCE@@3FA ; MAXIMUM_TANKER_DISTANCE
	add	edx, 5
	cvtsi2ss xmm0, edx
	movss	xmm1, DWORD PTR _distance$5[ebp]
	comiss	xmm1, xmm0
	jbe	SHORT $LN27@FrameExec

; 1748 : 					farthercloser = 2;

	mov	DWORD PTR _farthercloser$7[ebp], 2

; 1749 : 					advancedirection = true; // go trackpoint 0->3->2->1

	mov	eax, DWORD PTR _this$[ebp]
	mov	BYTE PTR [eax+1288], 1
$LN27@FrameExec:

; 1750 : 				}
; 1751 : 
; 1752 : 				if (farthercloser){

	cmp	DWORD PTR _farthercloser$7[ebp], 0
	je	$LN26@FrameExec

; 1753 : 
; 1754 : 					// Get the first tanker waypoint as first normal trackpoint
; 1755 : 					WayPoint w = NULL;

	mov	DWORD PTR _w$17[ebp], 0

; 1756 : 					Flight flight = (Flight)self->GetCampaignObject();

	mov	ecx, DWORD PTR _this$[ebp]
	mov	ecx, DWORD PTR [ecx+56]
	call	?GetCampaignObject@SimBaseClass@@QAEPAVCampBaseClass@@XZ ; SimBaseClass::GetCampaignObject
	mov	DWORD PTR _flight$3[ebp], eax

; 1757 : 					if (flight)

	cmp	DWORD PTR _flight$3[ebp], 0
	je	SHORT $LN25@FrameExec

; 1758 : 						w = flight->GetFirstUnitWP(); // this is takeoff time

	mov	ecx, DWORD PTR _flight$3[ebp]
	call	?GetFirstUnitWP@UnitClass@@QAEPAVWayPointClass@@XZ ; UnitClass::GetFirstUnitWP
	mov	DWORD PTR _w$17[ebp], eax
$LN25@FrameExec:

; 1759 : 
; 1760 : 					// use location of first "Tanker" waypoint if we're outside our min/max FLOT range
; 1761 : 					while (w){

	cmp	DWORD PTR _w$17[ebp], 0
	je	SHORT $LN23@FrameExec

; 1762 : 						if (w->GetWPAction() == WP_TANKER){

	mov	ecx, DWORD PTR _w$17[ebp]
	call	?GetWPAction@WayPointClass@@QAEHXZ	; WayPointClass::GetWPAction
	cmp	eax, 24					; 00000018H
	jne	SHORT $LN22@FrameExec

; 1763 : 							break;

	jmp	SHORT $LN23@FrameExec
$LN22@FrameExec:

; 1764 : 						}
; 1765 : 						w = w->GetNextWP();

	mov	ecx, DWORD PTR _w$17[ebp]
	call	?GetNextWP@WayPointClass@@QAEPAV1@XZ	; WayPointClass::GetNextWP
	mov	DWORD PTR _w$17[ebp], eax

; 1766 : 					}

	jmp	SHORT $LN25@FrameExec
$LN23@FrameExec:

; 1767 : 
; 1768 : 					float x,y,z;
; 1769 : 					if (w){

	cmp	DWORD PTR _w$17[ebp], 0
	je	SHORT $LN21@FrameExec

; 1770 : 						w->GetLocation(&x, &y, &z);

	lea	edx, DWORD PTR _z$1[ebp]
	push	edx
	lea	eax, DWORD PTR _y$12[ebp]
	push	eax
	lea	ecx, DWORD PTR _x$14[ebp]
	push	ecx
	mov	ecx, DWORD PTR _w$17[ebp]
	call	?GetLocation@WayPointClass@@QBEXPAM00@Z	; WayPointClass::GetLocation

; 1771 : 					}
; 1772 : 					else {

	jmp	SHORT $LN20@FrameExec
$LN21@FrameExec:

; 1773 : 						// we have no waypoints - like in refuel training mission
; 1774 : 						x = self->XPos();

	mov	edx, DWORD PTR _this$[ebp]
	mov	ecx, DWORD PTR [edx+56]
	call	?XPos@VuEntity@@QBEMXZ			; VuEntity::XPos
	fstp	DWORD PTR _x$14[ebp]

; 1775 : 						y = self->YPos();

	mov	eax, DWORD PTR _this$[ebp]
	mov	ecx, DWORD PTR [eax+56]
	call	?YPos@VuEntity@@QBEMXZ			; VuEntity::YPos
	fstp	DWORD PTR _y$12[ebp]
$LN20@FrameExec:

; 1776 : 					}
; 1777 : 					
; 1778 : 					// of course from our waypoints location...
; 1779 : 					// sfr: fixing xy order
; 1780 : 					// heading = DirectionToFront(SimToGrid(y),SimToGrid(x)); 
; 1781 : 					GridIndex gx, gy;
; 1782 : 					::vector pos = { x, y };

	movss	xmm0, DWORD PTR _x$14[ebp]
	movss	DWORD PTR _pos$22[ebp], xmm0
	movss	xmm0, DWORD PTR _y$12[ebp]
	movss	DWORD PTR _pos$22[ebp+4], xmm0
	xor	ecx, ecx
	mov	DWORD PTR _pos$22[ebp+8], ecx

; 1783 : 					ConvertSimToGrid(&pos, &gx, &gy);

	lea	edx, DWORD PTR _gy$11[ebp]
	push	edx
	lea	eax, DWORD PTR _gx$13[ebp]
	push	eax
	lea	ecx, DWORD PTR _pos$22[ebp]
	push	ecx
	call	?ConvertSimToGrid@@YAXPAUvector@@PAF1@Z	; ConvertSimToGrid
	add	esp, 12					; 0000000cH

; 1784 : 					heading = DirectionToFront(gx, gy); 

	movzx	edx, WORD PTR _gy$11[ebp]
	push	edx
	movzx	eax, WORD PTR _gx$13[ebp]
	push	eax
	call	?DirectionToFront@@YAMFF@Z		; DirectionToFront
	add	esp, 8
	fstp	DWORD PTR _heading$21[ebp]

; 1785 : 				
; 1786 : 					if (heading<0.0f){

	movss	xmm0, DWORD PTR __real@00000000
	comiss	xmm0, DWORD PTR _heading$21[ebp]
	jbe	SHORT $LN19@FrameExec

; 1787 : 						heading += PI * 2;

	movss	xmm0, DWORD PTR _heading$21[ebp]
	addss	xmm0, DWORD PTR __real@40c90fdb
	movss	DWORD PTR _heading$21[ebp], xmm0
$LN19@FrameExec:

; 1788 : 					}
; 1789 : 
; 1790 : 					TrackPoints[0].x = x;

	mov	ecx, 12					; 0000000cH
	imul	ecx, 0
	mov	edx, DWORD PTR _this$[ebp]
	movss	xmm0, DWORD PTR _x$14[ebp]
	movss	DWORD PTR [edx+ecx+1236], xmm0

; 1791 : 					TrackPoints[0].y = y;

	mov	eax, 12					; 0000000cH
	imul	eax, 0
	mov	ecx, DWORD PTR _this$[ebp]
	movss	xmm0, DWORD PTR _y$12[ebp]
	movss	DWORD PTR [ecx+eax+1240], xmm0

; 1792 : 					
; 1793 : 					currentTP = 0;

	mov	edx, DWORD PTR _this$[ebp]
	mov	DWORD PTR [edx+1284], 0

; 1794 : 				}
; 1795 : 				else {

	jmp	$LN18@FrameExec
$LN26@FrameExec:

; 1796 : 					// tanker is within min/max range to FLOT, so use current position for trackpoint 0
; 1797 : 					// sfr: fixing xy order
; 1798 : 					//heading = DirectionToFront(SimToGrid(self->YPos()),SimToGrid(self->XPos()));
; 1799 : 					GridIndex gx, gy;
; 1800 : 					::vector pos = { self->XPos(), self->YPos()};

	mov	eax, DWORD PTR _this$[ebp]
	mov	ecx, DWORD PTR [eax+56]
	call	?XPos@VuEntity@@QBEMXZ			; VuEntity::XPos
	fstp	DWORD PTR _pos$23[ebp]
	mov	ecx, DWORD PTR _this$[ebp]
	mov	ecx, DWORD PTR [ecx+56]
	call	?YPos@VuEntity@@QBEMXZ			; VuEntity::YPos
	fstp	DWORD PTR _pos$23[ebp+4]
	xor	edx, edx
	mov	DWORD PTR _pos$23[ebp+8], edx

; 1801 : 					ConvertSimToGrid(&pos, &gx, &gy);

	lea	eax, DWORD PTR _gy$6[ebp]
	push	eax
	lea	ecx, DWORD PTR _gx$9[ebp]
	push	ecx
	lea	edx, DWORD PTR _pos$23[ebp]
	push	edx
	call	?ConvertSimToGrid@@YAXPAUvector@@PAF1@Z	; ConvertSimToGrid
	add	esp, 12					; 0000000cH

; 1802 : 					heading = DirectionToFront(gx, gy); 

	movzx	eax, WORD PTR _gy$6[ebp]
	push	eax
	movzx	ecx, WORD PTR _gx$9[ebp]
	push	ecx
	call	?DirectionToFront@@YAMFF@Z		; DirectionToFront
	add	esp, 8
	fstp	DWORD PTR _heading$21[ebp]

; 1803 : 					//heading = DirectionToFront(SimToGrid(self->XPos()),SimToGrid(self->YPos()));
; 1804 : 				
; 1805 : 					if (heading<0.0f){

	movss	xmm0, DWORD PTR __real@00000000
	comiss	xmm0, DWORD PTR _heading$21[ebp]
	jbe	SHORT $LN17@FrameExec

; 1806 : 						heading += PI * 2;

	movss	xmm0, DWORD PTR _heading$21[ebp]
	addss	xmm0, DWORD PTR __real@40c90fdb
	movss	DWORD PTR _heading$21[ebp], xmm0
$LN17@FrameExec:

; 1807 : 					}
; 1808 : 
; 1809 : 					// TrackPoint[0], current location
; 1810 : 					TrackPoints[0].x = self->XPos();

	mov	edx, DWORD PTR _this$[ebp]
	mov	ecx, DWORD PTR [edx+56]
	call	?XPos@VuEntity@@QBEMXZ			; VuEntity::XPos
	mov	eax, 12					; 0000000cH
	imul	eax, 0
	mov	ecx, DWORD PTR _this$[ebp]
	fstp	DWORD PTR [ecx+eax+1236]

; 1811 : 					TrackPoints[0].y = self->YPos();

	mov	edx, DWORD PTR _this$[ebp]
	mov	ecx, DWORD PTR [edx+56]
	call	?YPos@VuEntity@@QBEMXZ			; VuEntity::YPos
	mov	eax, 12					; 0000000cH
	imul	eax, 0
	mov	ecx, DWORD PTR _this$[ebp]
	fstp	DWORD PTR [ecx+eax+1240]

; 1812 : 
; 1813 : 					currentTP = 1;

	mov	edx, DWORD PTR _this$[ebp]
	mov	DWORD PTR [edx+1284], 1
$LN18@FrameExec:

; 1814 : 				}
; 1815 : 				// the closest FLOT point is "east" of us
; 1816 : 				if (heading >= 0.0f && heading < PI/2.0f || heading > PI && heading < PI + PI/2.0f){

	movss	xmm0, DWORD PTR _heading$21[ebp]
	comiss	xmm0, DWORD PTR __real@00000000
	jb	SHORT $LN14@FrameExec
	movss	xmm0, DWORD PTR __real@3fc90fdb
	comiss	xmm0, DWORD PTR _heading$21[ebp]
	ja	SHORT $LN15@FrameExec
$LN14@FrameExec:
	movss	xmm0, DWORD PTR _heading$21[ebp]
	comiss	xmm0, DWORD PTR __real@40490fdb
	jbe	SHORT $LN16@FrameExec
	movss	xmm0, DWORD PTR __real@4096cbe4
	comiss	xmm0, DWORD PTR _heading$21[ebp]
	jbe	SHORT $LN16@FrameExec
$LN15@FrameExec:

; 1817 : 					boxside = true;

	mov	BYTE PTR _boxside$20[ebp], 1
$LN16@FrameExec:

; 1818 : 				}// this creates a track box to the right, which should be away from the FLOT, false = to the left
; 1819 : 
; 1820 : 				heading += PI;	// turn now 180 away from the FLOT

	movss	xmm0, DWORD PTR _heading$21[ebp]
	addss	xmm0, DWORD PTR __real@40490fdb
	movss	DWORD PTR _heading$21[ebp], xmm0

; 1821 : 				if (heading > PI * 2.0F){

	movss	xmm0, DWORD PTR _heading$21[ebp]
	comiss	xmm0, DWORD PTR __real@40c90fdb
	jbe	SHORT $LN13@FrameExec

; 1822 : 					heading -= PI * 2.0F;

	movss	xmm0, DWORD PTR _heading$21[ebp]
	subss	xmm0, DWORD PTR __real@40c90fdb
	movss	DWORD PTR _heading$21[ebp], xmm0
$LN13@FrameExec:

; 1823 : 				}
; 1824 : 
; 1825 : 				//TrackPoints[0].z = heading;
; 1826 : 
; 1827 : 				// TrackPoint[1], initial direction
; 1828 : 				dist = shortleg * NM_TO_FT;

	movss	xmm0, DWORD PTR _shortleg$4[ebp]
	mulss	xmm0, DWORD PTR __real@45bde1b0
	movss	DWORD PTR _dist$18[ebp], xmm0

; 1829 : 
; 1830 : 				dx = TrackPoints[0].x + dist * cos (heading);

	mov	esi, 12					; 0000000cH
	imul	esi, 0
	push	ecx
	movss	xmm0, DWORD PTR _heading$21[ebp]
	movss	DWORD PTR [esp], xmm0
	call	?cos@@YAMM@Z				; cos
	add	esp, 4
	fstp	DWORD PTR tv638[ebp]
	movss	xmm0, DWORD PTR tv638[ebp]
	mulss	xmm0, DWORD PTR _dist$18[ebp]
	mov	eax, DWORD PTR _this$[ebp]
	addss	xmm0, DWORD PTR [eax+esi+1236]
	movss	DWORD PTR _dx$15[ebp], xmm0

; 1831 : 				dy = TrackPoints[0].y + dist * sin (heading);

	mov	esi, 12					; 0000000cH
	imul	esi, 0
	push	ecx
	movss	xmm0, DWORD PTR _heading$21[ebp]
	movss	DWORD PTR [esp], xmm0
	call	?sin@@YAMM@Z				; sin
	add	esp, 4
	fstp	DWORD PTR tv648[ebp]
	movss	xmm0, DWORD PTR tv648[ebp]
	mulss	xmm0, DWORD PTR _dist$18[ebp]
	mov	ecx, DWORD PTR _this$[ebp]
	addss	xmm0, DWORD PTR [ecx+esi+1240]
	movss	DWORD PTR _dy$16[ebp], xmm0

; 1832 : 					
; 1833 : 				TrackPoints[1].x = dx;

	mov	edx, 12					; 0000000cH
	shl	edx, 0
	mov	eax, DWORD PTR _this$[ebp]
	movss	xmm0, DWORD PTR _dx$15[ebp]
	movss	DWORD PTR [eax+edx+1236], xmm0

; 1834 : 				TrackPoints[1].y = dy;

	mov	ecx, 12					; 0000000cH
	shl	ecx, 0
	mov	edx, DWORD PTR _this$[ebp]
	movss	xmm0, DWORD PTR _dy$16[ebp]
	movss	DWORD PTR [edx+ecx+1240], xmm0

; 1835 : 
; 1836 : 				// TrackPoint[2] add 90 heading
; 1837 : 				if (boxside){

	movzx	eax, BYTE PTR _boxside$20[ebp]
	test	eax, eax
	je	SHORT $LN12@FrameExec

; 1838 : 					heading -= PI/2.0f;

	movss	xmm0, DWORD PTR _heading$21[ebp]
	subss	xmm0, DWORD PTR __real@3fc90fdb
	movss	DWORD PTR _heading$21[ebp], xmm0

; 1839 : 					if (heading < 0.0f){

	movss	xmm0, DWORD PTR __real@00000000
	comiss	xmm0, DWORD PTR _heading$21[ebp]
	jbe	SHORT $LN11@FrameExec

; 1840 : 						heading += PI * 2.0f;

	movss	xmm0, DWORD PTR _heading$21[ebp]
	addss	xmm0, DWORD PTR __real@40c90fdb
	movss	DWORD PTR _heading$21[ebp], xmm0
$LN11@FrameExec:

; 1841 : 					}
; 1842 : 				}
; 1843 : 				else {

	jmp	SHORT $LN9@FrameExec
$LN12@FrameExec:

; 1844 : 					heading += PI/2.0f;

	movss	xmm0, DWORD PTR _heading$21[ebp]
	addss	xmm0, DWORD PTR __real@3fc90fdb
	movss	DWORD PTR _heading$21[ebp], xmm0

; 1845 : 					if (heading > PI * 2.0F){

	movss	xmm0, DWORD PTR _heading$21[ebp]
	comiss	xmm0, DWORD PTR __real@40c90fdb
	jbe	SHORT $LN9@FrameExec

; 1846 : 						heading -= PI * 2.0F;

	movss	xmm0, DWORD PTR _heading$21[ebp]
	subss	xmm0, DWORD PTR __real@40c90fdb
	movss	DWORD PTR _heading$21[ebp], xmm0
$LN9@FrameExec:

; 1847 : 					}
; 1848 : 				}
; 1849 : 
; 1850 : 				//TrackPoints[1].z = heading;
; 1851 : 
; 1852 : 				dist = longleg * NM_TO_FT;

	movss	xmm0, DWORD PTR _longleg$2[ebp]
	mulss	xmm0, DWORD PTR __real@45bde1b0
	movss	DWORD PTR _dist$18[ebp], xmm0

; 1853 : 
; 1854 : 				dx = TrackPoints[1].x + dist * cos (heading);

	mov	esi, 12					; 0000000cH
	shl	esi, 0
	push	ecx
	movss	xmm0, DWORD PTR _heading$21[ebp]
	movss	DWORD PTR [esp], xmm0
	call	?cos@@YAMM@Z				; cos
	add	esp, 4
	fstp	DWORD PTR tv671[ebp]
	movss	xmm0, DWORD PTR tv671[ebp]
	mulss	xmm0, DWORD PTR _dist$18[ebp]
	mov	ecx, DWORD PTR _this$[ebp]
	addss	xmm0, DWORD PTR [ecx+esi+1236]
	movss	DWORD PTR _dx$15[ebp], xmm0

; 1855 : 				dy = TrackPoints[1].y + dist * sin (heading);

	mov	esi, 12					; 0000000cH
	shl	esi, 0
	push	ecx
	movss	xmm0, DWORD PTR _heading$21[ebp]
	movss	DWORD PTR [esp], xmm0
	call	?sin@@YAMM@Z				; sin
	add	esp, 4
	fstp	DWORD PTR tv681[ebp]
	movss	xmm0, DWORD PTR tv681[ebp]
	mulss	xmm0, DWORD PTR _dist$18[ebp]
	mov	edx, DWORD PTR _this$[ebp]
	addss	xmm0, DWORD PTR [edx+esi+1240]
	movss	DWORD PTR _dy$16[ebp], xmm0

; 1856 : 					
; 1857 : 				TrackPoints[2].x = dx;

	mov	eax, 12					; 0000000cH
	shl	eax, 1
	mov	ecx, DWORD PTR _this$[ebp]
	movss	xmm0, DWORD PTR _dx$15[ebp]
	movss	DWORD PTR [ecx+eax+1236], xmm0

; 1858 : 				TrackPoints[2].y = dy;

	mov	edx, 12					; 0000000cH
	shl	edx, 1
	mov	eax, DWORD PTR _this$[ebp]
	movss	xmm0, DWORD PTR _dy$16[ebp]
	movss	DWORD PTR [eax+edx+1240], xmm0

; 1859 : 
; 1860 : 				// TrackPoint[3] add another 90 heading
; 1861 : 				if (boxside){

	movzx	ecx, BYTE PTR _boxside$20[ebp]
	test	ecx, ecx
	je	SHORT $LN8@FrameExec

; 1862 : 					heading -= PI/2.0f;

	movss	xmm0, DWORD PTR _heading$21[ebp]
	subss	xmm0, DWORD PTR __real@3fc90fdb
	movss	DWORD PTR _heading$21[ebp], xmm0

; 1863 : 					if (heading<0.0f){

	movss	xmm0, DWORD PTR __real@00000000
	comiss	xmm0, DWORD PTR _heading$21[ebp]
	jbe	SHORT $LN7@FrameExec

; 1864 : 						heading += PI * 2.0f;

	movss	xmm0, DWORD PTR _heading$21[ebp]
	addss	xmm0, DWORD PTR __real@40c90fdb
	movss	DWORD PTR _heading$21[ebp], xmm0
$LN7@FrameExec:

; 1865 : 					}
; 1866 : 				}
; 1867 : 				else {

	jmp	SHORT $LN5@FrameExec
$LN8@FrameExec:

; 1868 : 					heading += PI/2.0f;

	movss	xmm0, DWORD PTR _heading$21[ebp]
	addss	xmm0, DWORD PTR __real@3fc90fdb
	movss	DWORD PTR _heading$21[ebp], xmm0

; 1869 : 					if (heading > PI * 2.0F){

	movss	xmm0, DWORD PTR _heading$21[ebp]
	comiss	xmm0, DWORD PTR __real@40c90fdb
	jbe	SHORT $LN5@FrameExec

; 1870 : 						heading -= PI * 2.0F;

	movss	xmm0, DWORD PTR _heading$21[ebp]
	subss	xmm0, DWORD PTR __real@40c90fdb
	movss	DWORD PTR _heading$21[ebp], xmm0
$LN5@FrameExec:

; 1871 : 					}
; 1872 : 				}
; 1873 : 
; 1874 : 				//TrackPoints[2].z = heading;
; 1875 : 
; 1876 : 				dist = shortleg * NM_TO_FT;

	movss	xmm0, DWORD PTR _shortleg$4[ebp]
	mulss	xmm0, DWORD PTR __real@45bde1b0
	movss	DWORD PTR _dist$18[ebp], xmm0

; 1877 : 
; 1878 : 				dx = TrackPoints[2].x + dist * cos (heading);

	mov	esi, 12					; 0000000cH
	shl	esi, 1
	push	ecx
	movss	xmm0, DWORD PTR _heading$21[ebp]
	movss	DWORD PTR [esp], xmm0
	call	?cos@@YAMM@Z				; cos
	add	esp, 4
	fstp	DWORD PTR tv704[ebp]
	movss	xmm0, DWORD PTR tv704[ebp]
	mulss	xmm0, DWORD PTR _dist$18[ebp]
	mov	edx, DWORD PTR _this$[ebp]
	addss	xmm0, DWORD PTR [edx+esi+1236]
	movss	DWORD PTR _dx$15[ebp], xmm0

; 1879 : 				dy = TrackPoints[2].y + dist * sin (heading);

	mov	esi, 12					; 0000000cH
	shl	esi, 1
	push	ecx
	movss	xmm0, DWORD PTR _heading$21[ebp]
	movss	DWORD PTR [esp], xmm0
	call	?sin@@YAMM@Z				; sin
	add	esp, 4
	fstp	DWORD PTR tv714[ebp]
	movss	xmm0, DWORD PTR tv714[ebp]
	mulss	xmm0, DWORD PTR _dist$18[ebp]
	mov	eax, DWORD PTR _this$[ebp]
	addss	xmm0, DWORD PTR [eax+esi+1240]
	movss	DWORD PTR _dy$16[ebp], xmm0

; 1880 : 					
; 1881 : 				TrackPoints[3].x = dx;

	mov	ecx, 12					; 0000000cH
	imul	ecx, 3
	mov	edx, DWORD PTR _this$[ebp]
	movss	xmm0, DWORD PTR _dx$15[ebp]
	movss	DWORD PTR [edx+ecx+1236], xmm0

; 1882 : 				TrackPoints[3].y = dy;

	mov	eax, 12					; 0000000cH
	imul	eax, 3
	mov	ecx, DWORD PTR _this$[ebp]
	movss	xmm0, DWORD PTR _dy$16[ebp]
	movss	DWORD PTR [ecx+eax+1240], xmm0

; 1883 : /*
; 1884 : 				if (boxside)
; 1885 : 				{
; 1886 : 					heading -= PI/2.0f;
; 1887 : 					if (heading<0.0f)
; 1888 : 						heading += PI * 2.0f;
; 1889 : 				}
; 1890 : 				else
; 1891 : 				{
; 1892 : 					heading += PI/2.0f;
; 1893 : 					if (heading > PI * 2.0F)
; 1894 : 						heading -= PI * 2.0F;
; 1895 : 				}
; 1896 : 
; 1897 : 				TrackPoints[3].z = heading;*/
; 1898 : /* MN that was a BS idea... now we do if we are too close to FLOT, continue Trackpoints 0-1-2-3, if we were too far, do TP 0-3-2-1
; 1899 : 				// check our angle from Trackpoint 0 to Trackpoint 1 and 3 - which ever is less, head towards it
; 1900 : 				float x,y,fx,fy,r,a1,a2;
; 1901 : 				fx = TrackPoints[0].y;
; 1902 : 				fy = TrackPoints[0].x;
; 1903 : 				x = self->YPos();
; 1904 : 				y = self->XPos();
; 1905 : 
; 1906 : 				if (farthercloser) 	// angle to first trackpoint
; 1907 : 					r = (float)atan2((float)(fx-x),(float)(fy-y));
; 1908 : 				else 
; 1909 : 					r = self->Yaw(); // current heading
; 1910 : 
; 1911 : 				if (r < 0.0f)
; 1912 : 					r += PI * 2.0f;
; 1913 : 
; 1914 : 				a1 = r - TrackPoints[0].z;
; 1915 : 				if (a1 < 0.0f)
; 1916 : 					a1 += PI * 2.0f;
; 1917 : 
; 1918 : 				a2 = r - (TrackPoints[3].z + PI); // +PI as we want the angle from TP0 to TP3 and not TP3 to TP0...
; 1919 : 				if (a2 < 0.0f)
; 1920 : 					a2 += PI * 2.0f;
; 1921 : 				if (a2 > PI * 2.0f)
; 1922 : 					a2 -= PI * 2.0f;
; 1923 : 
; 1924 : 				if (a2 < a1)
; 1925 : 					advancedirection = true; // go from 0->3->2->1
; 1926 : */
; 1927 : 				// finally head towards our first trackpoint
; 1928 : 				TurnToTrackPoint(currentTP);

	mov	edx, DWORD PTR _this$[ebp]
	mov	eax, DWORD PTR [edx+1284]
	push	eax
	mov	ecx, DWORD PTR _this$[ebp]
	call	?TurnToTrackPoint@TankerBrain@@AAEXH@Z	; TankerBrain::TurnToTrackPoint
$LN31@FrameExec:

; 1929 : 
; 1930 : 			}
; 1931 : 		}
; 1932 : 		else {

	jmp	$LN3@FrameExec
$LN32@FrameExec:

; 1933 : 			// Added by M.N.
; 1934 : 			if (directionsetup){

	mov	ecx, DWORD PTR _this$[ebp]
	cmp	DWORD PTR [ecx+1224], 0
	je	$LN3@FrameExec

; 1935 : 				// at tankercall, do an initial turn away from the FLOT, only reset by "RequestFuel" message
; 1936 : 				directionsetup = 0;

	mov	edx, DWORD PTR _this$[ebp]
	mov	DWORD PTR [edx+1224], 0

; 1937 : 				// sfr: fixing xy order
; 1938 : 				//float heading = DirectionToFront(SimToGrid(self->YPos()),SimToGrid(self->XPos()));
; 1939 : 				GridIndex gx, gy;
; 1940 : 				::vector pos = { self->XPos(), self->YPos()};

	mov	eax, DWORD PTR _this$[ebp]
	mov	ecx, DWORD PTR [eax+56]
	call	?XPos@VuEntity@@QBEMXZ			; VuEntity::XPos
	fstp	DWORD PTR _pos$24[ebp]
	mov	ecx, DWORD PTR _this$[ebp]
	mov	ecx, DWORD PTR [ecx+56]
	call	?YPos@VuEntity@@QBEMXZ			; VuEntity::YPos
	fstp	DWORD PTR _pos$24[ebp+4]
	xor	edx, edx
	mov	DWORD PTR _pos$24[ebp+8], edx

; 1941 : 				ConvertSimToGrid(&pos, &gx, &gy);

	lea	eax, DWORD PTR _gy$10[ebp]
	push	eax
	lea	ecx, DWORD PTR _gx$8[ebp]
	push	ecx
	lea	edx, DWORD PTR _pos$24[ebp]
	push	edx
	call	?ConvertSimToGrid@@YAXPAUvector@@PAF1@Z	; ConvertSimToGrid
	add	esp, 12					; 0000000cH

; 1942 : 				//float heading = DirectionToFront(SimToGrid(self->XPos()),SimToGrid(self->YPos()));
; 1943 : 				float heading = DirectionToFront(gx, gy);

	movzx	eax, WORD PTR _gy$10[ebp]
	push	eax
	movzx	ecx, WORD PTR _gx$8[ebp]
	push	ecx
	call	?DirectionToFront@@YAMFF@Z		; DirectionToFront
	add	esp, 8
	fstp	DWORD PTR _heading$19[ebp]

; 1944 : 
; 1945 : 				if (heading<0.0f){

	movss	xmm0, DWORD PTR __real@00000000
	comiss	xmm0, DWORD PTR _heading$19[ebp]
	jbe	SHORT $LN2@FrameExec

; 1946 : 					heading += PI * 2;

	movss	xmm0, DWORD PTR _heading$19[ebp]
	addss	xmm0, DWORD PTR __real@40c90fdb
	movss	DWORD PTR _heading$19[ebp], xmm0
$LN2@FrameExec:

; 1947 : 				}
; 1948 : 				heading += PI;	// turn 180 away from the FLOT

	movss	xmm0, DWORD PTR _heading$19[ebp]
	addss	xmm0, DWORD PTR __real@40490fdb
	movss	DWORD PTR _heading$19[ebp], xmm0

; 1949 : 				if (heading > PI * 2.0F){

	movss	xmm0, DWORD PTR _heading$19[ebp]
	comiss	xmm0, DWORD PTR __real@40c90fdb
	jbe	SHORT $LN1@FrameExec

; 1950 : 					heading -= PI * 2.0F;

	movss	xmm0, DWORD PTR _heading$19[ebp]
	subss	xmm0, DWORD PTR __real@40c90fdb
	movss	DWORD PTR _heading$19[ebp], xmm0
$LN1@FrameExec:

; 1951 : 				}
; 1952 : 				TurnTo(heading);

	push	ecx
	movss	xmm0, DWORD PTR _heading$19[ebp]
	movss	DWORD PTR [esp], xmm0
	mov	ecx, DWORD PTR _this$[ebp]
	call	?TurnTo@TankerBrain@@AAEXM@Z		; TankerBrain::TurnTo
$LN3@FrameExec:

; 1953 : 			}
; 1954 : 		}
; 1955 : 		FollowThirsty();

	mov	ecx, DWORD PTR _this$[ebp]
	call	?FollowThirsty@TankerBrain@@AAEXXZ	; TankerBrain::FollowThirsty
$LN33@FrameExec:

; 1956 : #ifdef DAVE_DBG	  
; 1957 : 		if(MoveBoom && ServiceType == BOOM_SERVICE)
; 1958 : 		{
; 1959 : 			boomAzTest = max ( min (boomAzTest,  23.0F * DTR), -23.0F * DTR);
; 1960 : 			boomElTest = max ( min (boomElTest, 4.0F * DTR), -40.0F * DTR);
; 1961 : 			boomExtTest = max ( min (boomExtTest, 21.0F), 0.0F); // PJW... was 21 & 6
; 1962 : 
; 1963 : 			boom[BOOM].drawPointer->SetDOFangle(BOOM_AZIMUTH, -boomAzTest);
; 1964 : 			boom[BOOM].drawPointer->SetDOFangle(BOOM_ELEVATION, -boomElTest);
; 1965 : 			boom[BOOM].drawPointer->SetDOFoffset(BOOM_EXTENSION, boomExtTest);
; 1966 : 		}
; 1967 : #endif
; 1968 : 	}
; 1969 : }

	pop	esi
	mov	ecx, DWORD PTR __$ArrayPad$[ebp]
	xor	ecx, ebp
	call	@__security_check_cookie@4
	mov	esp, ebp
	pop	ebp
	ret	8
?FrameExec@TankerBrain@@UAEXPAVSimObjectType@@0@Z ENDP	; TankerBrain::FrameExec
_TEXT	ENDS
; Function compile flags: /Odtp
; File c:\users\zhitao li\documents\visual studio 2012\projects\freefalcon\sim\digi\tankbrn.cpp
_TEXT	SEGMENT
tv148 = -40						; size = 4
$T2 = -36						; size = 4
tv129 = -32						; size = 4
$T3 = -28						; size = 4
$T4 = -24						; size = 4
$T5 = -20						; size = 4
_this$ = -16						; size = 4
__$EHRec$ = -12						; size = 12
??1TankerBrain@@UAE@XZ PROC				; TankerBrain::~TankerBrain
; _this$ = ecx

; 106  : {

	push	ebp
	mov	ebp, esp
	push	-1
	push	__ehhandler$??1TankerBrain@@UAE@XZ
	mov	eax, DWORD PTR fs:0
	push	eax
	sub	esp, 28					; 0000001cH
	mov	eax, DWORD PTR ___security_cookie
	xor	eax, ebp
	push	eax
	lea	eax, DWORD PTR __$EHRec$[ebp]
	mov	DWORD PTR fs:0, eax
	mov	DWORD PTR _this$[ebp], ecx
	mov	eax, DWORD PTR _this$[ebp]
	mov	DWORD PTR [eax], OFFSET ??_7TankerBrain@@6B@
	mov	DWORD PTR __$EHRec$[ebp+8], 0

; 107  : 	if (tankingPtr)

	mov	ecx, DWORD PTR _this$[ebp]
	cmp	DWORD PTR [ecx+1208], 0
	je	SHORT $LN1@TankerBrai

; 108  : 	{
; 109  : 		tankingPtr->Release(  );

	mov	edx, DWORD PTR _this$[ebp]
	mov	ecx, DWORD PTR [edx+1208]
	call	?Release@SimObjectType@@QAEXXZ		; SimObjectType::Release
$LN1@TankerBrai:

; 110  : 	}
; 111  : 	
; 112  : 	tankingPtr = NULL;

	mov	eax, DWORD PTR _this$[ebp]
	mov	DWORD PTR [eax+1208], 0

; 113  : 	curThirsty = NULL;

	mov	ecx, DWORD PTR _this$[ebp]
	mov	DWORD PTR [ecx+980], 0

; 114  : 	
; 115  : 	thirstyQ->Unregister();

	mov	edx, DWORD PTR _this$[ebp]
	mov	ecx, DWORD PTR [edx+972]
	call	?Unregister@VuCollection@@QAEXXZ	; VuCollection::Unregister

; 116  : 	delete thirstyQ;

	mov	eax, DWORD PTR _this$[ebp]
	mov	ecx, DWORD PTR [eax+972]
	mov	DWORD PTR $T3[ebp], ecx
	mov	edx, DWORD PTR $T3[ebp]
	mov	DWORD PTR $T5[ebp], edx
	cmp	DWORD PTR $T5[ebp], 0
	je	SHORT $LN4@TankerBrai
	push	1
	mov	eax, DWORD PTR $T5[ebp]
	mov	edx, DWORD PTR [eax]
	mov	ecx, DWORD PTR $T5[ebp]
	mov	eax, DWORD PTR [edx+12]
	call	eax
	mov	DWORD PTR tv129[ebp], eax
	jmp	SHORT $LN5@TankerBrai
$LN4@TankerBrai:
	mov	DWORD PTR tv129[ebp], 0
$LN5@TankerBrai:

; 117  : 	thirstyQ = NULL;

	mov	ecx, DWORD PTR _this$[ebp]
	mov	DWORD PTR [ecx+972], 0

; 118  : 	waitQ->Unregister(); // another leak fixed JPO

	mov	edx, DWORD PTR _this$[ebp]
	mov	ecx, DWORD PTR [edx+976]
	call	?Unregister@VuCollection@@QAEXXZ	; VuCollection::Unregister

; 119  : 	delete waitQ;

	mov	eax, DWORD PTR _this$[ebp]
	mov	ecx, DWORD PTR [eax+976]
	mov	DWORD PTR $T2[ebp], ecx
	mov	edx, DWORD PTR $T2[ebp]
	mov	DWORD PTR $T4[ebp], edx
	cmp	DWORD PTR $T4[ebp], 0
	je	SHORT $LN6@TankerBrai
	push	1
	mov	eax, DWORD PTR $T4[ebp]
	mov	edx, DWORD PTR [eax]
	mov	ecx, DWORD PTR $T4[ebp]
	mov	eax, DWORD PTR [edx+12]
	call	eax
	mov	DWORD PTR tv148[ebp], eax
	jmp	SHORT $LN7@TankerBrai
$LN6@TankerBrai:
	mov	DWORD PTR tv148[ebp], 0
$LN7@TankerBrai:

; 120  : 	waitQ = NULL;

	mov	ecx, DWORD PTR _this$[ebp]
	mov	DWORD PTR [ecx+976], 0

; 121  : 	CleanupBoom();

	mov	ecx, DWORD PTR _this$[ebp]
	call	?CleanupBoom@TankerBrain@@UAEXXZ	; TankerBrain::CleanupBoom

; 122  : }

	mov	DWORD PTR __$EHRec$[ebp+8], -1
	mov	ecx, DWORD PTR _this$[ebp]
	call	??1DigitalBrain@@UAE@XZ			; DigitalBrain::~DigitalBrain
	mov	ecx, DWORD PTR __$EHRec$[ebp]
	mov	DWORD PTR fs:0, ecx
	pop	ecx
	mov	esp, ebp
	pop	ebp
	ret	0
_TEXT	ENDS
text$x	SEGMENT
__unwindfunclet$??1TankerBrain@@UAE@XZ$0:
	mov	ecx, DWORD PTR _this$[ebp]
	jmp	??1DigitalBrain@@UAE@XZ			; DigitalBrain::~DigitalBrain
__ehhandler$??1TankerBrain@@UAE@XZ:
	mov	edx, DWORD PTR [esp+8]
	lea	eax, DWORD PTR [edx+12]
	mov	ecx, DWORD PTR [edx-32]
	xor	ecx, eax
	call	@__security_check_cookie@4
	mov	eax, OFFSET __ehfuncinfo$??1TankerBrain@@UAE@XZ
	jmp	___CxxFrameHandler3
text$x	ENDS
??1TankerBrain@@UAE@XZ ENDP				; TankerBrain::~TankerBrain
; Function compile flags: /Odtp
; File c:\users\zhitao li\documents\visual studio 2012\projects\freefalcon\sim\digi\tankbrn.cpp
_TEXT	SEGMENT
$T2 = -44						; size = 4
$T3 = -40						; size = 4
tv148 = -36						; size = 4
$T4 = -32						; size = 4
tv129 = -28						; size = 4
$T5 = -24						; size = 4
_i$6 = -20						; size = 4
_this$ = -16						; size = 4
__$EHRec$ = -12						; size = 12
_myPlatform$ = 8					; size = 4
_myAf$ = 12						; size = 4
??0TankerBrain@@QAE@PAVAircraftClass@@PAVAirframeClass@@@Z PROC ; TankerBrain::TankerBrain
; _this$ = ecx

; 74   : {

	push	ebp
	mov	ebp, esp
	push	-1
	push	__ehhandler$??0TankerBrain@@QAE@PAVAircraftClass@@PAVAirframeClass@@@Z
	mov	eax, DWORD PTR fs:0
	push	eax
	sub	esp, 32					; 00000020H
	mov	eax, DWORD PTR ___security_cookie
	xor	eax, ebp
	push	eax
	lea	eax, DWORD PTR __$EHRec$[ebp]
	mov	DWORD PTR fs:0, eax
	mov	DWORD PTR _this$[ebp], ecx
	mov	eax, DWORD PTR _myAf$[ebp]
	push	eax
	mov	ecx, DWORD PTR _myPlatform$[ebp]
	push	ecx
	mov	ecx, DWORD PTR _this$[ebp]
	call	??0DigitalBrain@@QAE@PAVAircraftClass@@PAVAirframeClass@@@Z ; DigitalBrain::DigitalBrain
	mov	DWORD PTR __$EHRec$[ebp+8], 0
	mov	edx, DWORD PTR _this$[ebp]
	mov	DWORD PTR [edx], OFFSET ??_7TankerBrain@@6B@

; 75   : 	flags = 0;

	mov	eax, DWORD PTR _this$[ebp]
	mov	DWORD PTR [eax+1200], 0

; 76   : 	stype = 0;

	mov	ecx, DWORD PTR _this$[ebp]
	mov	DWORD PTR [ecx+1192], 0

; 77   : 	thirstyQ = new TailInsertList;

	push	24					; 00000018H
	call	??2@YAPAXI@Z				; operator new
	add	esp, 4
	mov	DWORD PTR $T5[ebp], eax
	mov	BYTE PTR __$EHRec$[ebp+8], 1
	cmp	DWORD PTR $T5[ebp], 0
	je	SHORT $LN6@TankerBrai
	push	OFFSET ?FalconNothingFilter@@3VFalconNothingFilterType@@A ; FalconNothingFilter
	mov	ecx, DWORD PTR $T5[ebp]
	call	??0TailInsertList@@QAE@PAVVuFilter@@@Z	; TailInsertList::TailInsertList
	mov	DWORD PTR tv129[ebp], eax
	jmp	SHORT $LN7@TankerBrai
$LN6@TankerBrai:
	mov	DWORD PTR tv129[ebp], 0
$LN7@TankerBrai:
	mov	edx, DWORD PTR tv129[ebp]
	mov	DWORD PTR $T3[ebp], edx
	mov	BYTE PTR __$EHRec$[ebp+8], 0
	mov	eax, DWORD PTR _this$[ebp]
	mov	ecx, DWORD PTR $T3[ebp]
	mov	DWORD PTR [eax+972], ecx

; 78   : 	thirstyQ->Register();

	mov	edx, DWORD PTR _this$[ebp]
	mov	ecx, DWORD PTR [edx+972]
	call	?Register@VuCollection@@QAEXXZ		; VuCollection::Register

; 79   : 	waitQ = new HeadInsertList;

	push	24					; 00000018H
	call	??2@YAPAXI@Z				; operator new
	add	esp, 4
	mov	DWORD PTR $T4[ebp], eax
	mov	BYTE PTR __$EHRec$[ebp+8], 2
	cmp	DWORD PTR $T4[ebp], 0
	je	SHORT $LN8@TankerBrai
	push	OFFSET ?FalconNothingFilter@@3VFalconNothingFilterType@@A ; FalconNothingFilter
	mov	ecx, DWORD PTR $T4[ebp]
	call	??0HeadInsertList@@QAE@PAVVuFilter@@@Z	; HeadInsertList::HeadInsertList
	mov	DWORD PTR tv148[ebp], eax
	jmp	SHORT $LN9@TankerBrai
$LN8@TankerBrai:
	mov	DWORD PTR tv148[ebp], 0
$LN9@TankerBrai:
	mov	eax, DWORD PTR tv148[ebp]
	mov	DWORD PTR $T2[ebp], eax
	mov	BYTE PTR __$EHRec$[ebp+8], 0
	mov	ecx, DWORD PTR _this$[ebp]
	mov	edx, DWORD PTR $T2[ebp]
	mov	DWORD PTR [ecx+976], edx

; 80   : 	waitQ->Register();

	mov	eax, DWORD PTR _this$[ebp]
	mov	ecx, DWORD PTR [eax+976]
	call	?Register@VuCollection@@QAEXXZ		; VuCollection::Register

; 81   : 	curThirsty = NULL;

	mov	ecx, DWORD PTR _this$[ebp]
	mov	DWORD PTR [ecx+980], 0

; 82   : 	tankingPtr = NULL;

	mov	edx, DWORD PTR _this$[ebp]
	mov	DWORD PTR [edx+1208], 0

; 83   : 	lastStabalize = 0;

	mov	eax, DWORD PTR _this$[ebp]
	mov	DWORD PTR [eax+1212], 0

; 84   : 	lastBoomCommand = 0;

	mov	ecx, DWORD PTR _this$[ebp]
	mov	DWORD PTR [ecx+1216], 0

; 85   : 	memset(&boom,0,sizeof(boom));

	push	140					; 0000008cH
	push	0
	mov	edx, DWORD PTR _this$[ebp]
	add	edx, 1048				; 00000418H
	push	edx
	call	_memset
	add	esp, 12					; 0000000cH

; 86   : 	memset(&rack,0,sizeof(rack));

	push	20					; 00000014H
	push	0
	mov	eax, DWORD PTR _this$[ebp]
	add	eax, 1028				; 00000404H
	push	eax
	call	_memset
	add	esp, 12					; 0000000cH

; 87   : 	numBooms = 0;

	mov	ecx, DWORD PTR _this$[ebp]
	mov	DWORD PTR [ecx+984], 0

; 88   : 	numDrogues = 0;

	mov	edx, DWORD PTR _this$[ebp]
	mov	DWORD PTR [edx+988], 0

; 89   : 	DrogueExt = 40.0f;

	mov	eax, DWORD PTR _this$[ebp]
	movss	xmm0, DWORD PTR __real@42200000
	movss	DWORD PTR [eax+992], xmm0

; 90   : 	DROGUE = 0;

	mov	ecx, DWORD PTR _this$[ebp]
	mov	DWORD PTR [ecx+1020], 0

; 91   : 	BOOM = 0;

	mov	edx, DWORD PTR _this$[ebp]
	mov	DWORD PTR [edx+1024], 0

; 92   : 	ServiceType = BOOM_SERVICE;

	mov	eax, DWORD PTR _this$[ebp]
	mov	DWORD PTR [eax+1196], 20		; 00000014H

; 93   : 	turnallow = false;

	mov	ecx, DWORD PTR _this$[ebp]
	mov	DWORD PTR [ecx+1220], 0

; 94   : 	HeadsUp = false;

	mov	edx, DWORD PTR _this$[ebp]
	mov	DWORD PTR [edx+1228], 0

; 95   : 	reachedFirstTrackpoint = false;

	mov	eax, DWORD PTR _this$[ebp]
	mov	BYTE PTR [eax+1289], 0

; 96   : 	// 2002-03-13 MN
; 97   : 	for (int i = 0; i < sizeof (TrackPoints) / sizeof (vector); i++)

	mov	DWORD PTR _i$6[ebp], 0
	jmp	SHORT $LN3@TankerBrai
$LN2@TankerBrai:
	mov	ecx, DWORD PTR _i$6[ebp]
	add	ecx, 1
	mov	DWORD PTR _i$6[ebp], ecx
$LN3@TankerBrai:
	cmp	DWORD PTR _i$6[ebp], 4
	jae	SHORT $LN1@TankerBrai

; 98   : 	{
; 99   : 		TrackPoints[i].x = 0.0f; 

	mov	edx, DWORD PTR _i$6[ebp]
	imul	edx, 12					; 0000000cH
	mov	eax, DWORD PTR _this$[ebp]
	movss	xmm0, DWORD PTR __real@00000000
	movss	DWORD PTR [eax+edx+1236], xmm0

; 100  : 		TrackPoints[i].y = 0.0f;

	mov	ecx, DWORD PTR _i$6[ebp]
	imul	ecx, 12					; 0000000cH
	mov	edx, DWORD PTR _this$[ebp]
	movss	xmm0, DWORD PTR __real@00000000
	movss	DWORD PTR [edx+ecx+1240], xmm0

; 101  : 		TrackPoints[i].z = 0.0f;

	mov	eax, DWORD PTR _i$6[ebp]
	imul	eax, 12					; 0000000cH
	mov	ecx, DWORD PTR _this$[ebp]
	movss	xmm0, DWORD PTR __real@00000000
	movss	DWORD PTR [ecx+eax+1244], xmm0

; 102  : 	}

	jmp	SHORT $LN2@TankerBrai
$LN1@TankerBrai:

; 103  : }

	mov	DWORD PTR __$EHRec$[ebp+8], -1
	mov	eax, DWORD PTR _this$[ebp]
	mov	ecx, DWORD PTR __$EHRec$[ebp]
	mov	DWORD PTR fs:0, ecx
	pop	ecx
	mov	esp, ebp
	pop	ebp
	ret	8
_TEXT	ENDS
text$x	SEGMENT
__unwindfunclet$??0TankerBrain@@QAE@PAVAircraftClass@@PAVAirframeClass@@@Z$0:
	mov	ecx, DWORD PTR _this$[ebp]
	jmp	??1DigitalBrain@@UAE@XZ			; DigitalBrain::~DigitalBrain
__unwindfunclet$??0TankerBrain@@QAE@PAVAircraftClass@@PAVAirframeClass@@@Z$1:
	mov	eax, DWORD PTR $T5[ebp]
	push	eax
	call	??3@YAXPAX@Z				; operator delete
	pop	ecx
	ret	0
__unwindfunclet$??0TankerBrain@@QAE@PAVAircraftClass@@PAVAirframeClass@@@Z$2:
	mov	eax, DWORD PTR $T4[ebp]
	push	eax
	call	??3@YAXPAX@Z				; operator delete
	pop	ecx
	ret	0
__ehhandler$??0TankerBrain@@QAE@PAVAircraftClass@@PAVAirframeClass@@@Z:
	mov	edx, DWORD PTR [esp+8]
	lea	eax, DWORD PTR [edx+12]
	mov	ecx, DWORD PTR [edx-36]
	xor	ecx, eax
	call	@__security_check_cookie@4
	mov	eax, OFFSET __ehfuncinfo$??0TankerBrain@@QAE@PAVAircraftClass@@PAVAirframeClass@@@Z
	jmp	___CxxFrameHandler3
text$x	ENDS
??0TankerBrain@@QAE@PAVAircraftClass@@PAVAirframeClass@@@Z ENDP ; TankerBrain::TankerBrain
; Function compile flags: /Odtp
; File c:\users\zhitao li\documents\visual studio 2012\projects\freefalcon\sim\digi\tankbrn.cpp
_TEXT	SEGMENT
_this$ = -4						; size = 4
_trackPoint$ = 8					; size = 4
?TurnToTrackPoint@TankerBrain@@AAEXH@Z PROC		; TankerBrain::TurnToTrackPoint
; _this$ = ecx

; 1186 : {

	push	ebp
	mov	ebp, esp
	push	ecx
	mov	DWORD PTR _this$[ebp], ecx

; 1187 : 	// Set up new trackpoint
; 1188 : 	SetTrackPoint(TrackPoints[trackPoint].x, TrackPoints[trackPoint].y);

	mov	eax, DWORD PTR _trackPoint$[ebp]
	imul	eax, 12					; 0000000cH
	mov	ecx, DWORD PTR _this$[ebp]
	push	ecx
	movss	xmm0, DWORD PTR [ecx+eax+1240]
	movss	DWORD PTR [esp], xmm0
	mov	edx, DWORD PTR _trackPoint$[ebp]
	imul	edx, 12					; 0000000cH
	mov	eax, DWORD PTR _this$[ebp]
	push	ecx
	movss	xmm0, DWORD PTR [eax+edx+1236]
	movss	DWORD PTR [esp], xmm0
	mov	ecx, DWORD PTR _this$[ebp]
	call	?SetTrackPoint@DigitalBrain@@QAEXMM@Z	; DigitalBrain::SetTrackPoint

; 1189 : }

	mov	esp, ebp
	pop	ebp
	ret	4
?TurnToTrackPoint@TankerBrain@@AAEXH@Z ENDP		; TankerBrain::TurnToTrackPoint
_TEXT	ENDS
; Function compile flags: /Odtp
; File c:\users\zhitao li\documents\visual studio 2012\projects\freefalcon\sim\digi\tankbrn.cpp
_TEXT	SEGMENT
$T2 = -388						; size = 8
$T3 = -380						; size = 8
$T4 = -372						; size = 8
$T5 = -364						; size = 8
$T6 = -356						; size = 8
$T7 = -348						; size = 8
$T8 = -340						; size = 8
$T9 = -332						; size = 8
$T10 = -324						; size = 8
$T11 = -316						; size = 8
tv1373 = -308						; size = 4
$T12 = -304						; size = 4
_oldRange$ = -300					; size = 4
tv1915 = -296						; size = 4
tv1812 = -292						; size = 4
tv1824 = -288						; size = 4
_rad$13 = -284						; size = 4
tv1564 = -280						; size = 4
$T14 = -276						; size = 4
_oldEl$ = -272						; size = 4
tv1670 = -268						; size = 4
tv1818 = -264						; size = 4
tv1616 = -260						; size = 4
_oldAz$ = -256						; size = 4
tv1595 = -252						; size = 4
$T15 = -248						; size = 4
$T16 = -244						; size = 4
tv1678 = -240						; size = 4
tv1880 = -236						; size = 4
tv1621 = -232						; size = 4
tv1873 = -228						; size = 4
tv1604 = -224						; size = 4
tv1847 = -220						; size = 4
tv1571 = -216						; size = 4
tv1919 = -212						; size = 4
$T17 = -208						; size = 4
tv1841 = -204						; size = 4
tv1408 = -200						; size = 4
tv1830 = -196						; size = 4
tv1917 = -192						; size = 4
$T18 = -188						; size = 4
tv247 = -184						; size = 4
tv390 = -180						; size = 4
tv203 = -176						; size = 4
$T19 = -172						; size = 4
tv93 = -168						; size = 4
tv866 = -164						; size = 4
tv1157 = -160						; size = 4
$T20 = -156						; size = 4
$T21 = -152						; size = 4
$T22 = -148						; size = 4
tv1141 = -144						; size = 4
tv537 = -140						; size = 4
tv955 = -136						; size = 4
tv521 = -132						; size = 4
$T23 = -128						; size = 4
$T24 = -124						; size = 4
tv939 = -120						; size = 4
tv882 = -116						; size = 4
tv406 = -112						; size = 4
_dy$ = -108						; size = 4
_inverseTimeDelta$25 = -104				; size = 4
_dx$ = -100						; size = 4
_xyRange$ = -96						; size = 4
_yaw$26 = -92						; size = 4
_heading$ = -88						; size = 4
_dist$ = -84						; size = 4
_tankMsg$ = -80						; size = 4
_this$ = -76						; size = 4
_relPos$27 = -72					; size = 12
_boompos$28 = -60					; size = 12
_tmpchr$29 = -48					; size = 32
__$ArrayPad$ = -16					; size = 4
__$EHRec$ = -12						; size = 12
?FollowThirsty@TankerBrain@@AAEXXZ PROC			; TankerBrain::FollowThirsty
; _this$ = ecx

; 1193 : {

	push	ebp
	mov	ebp, esp
	push	-1
	push	__ehhandler$?FollowThirsty@TankerBrain@@AAEXXZ
	mov	eax, DWORD PTR fs:0
	push	eax
	sub	esp, 376				; 00000178H
	mov	eax, DWORD PTR ___security_cookie
	xor	eax, ebp
	mov	DWORD PTR __$ArrayPad$[ebp], eax
	push	esi
	push	eax
	lea	eax, DWORD PTR __$EHRec$[ebp]
	mov	DWORD PTR fs:0, eax
	mov	DWORD PTR _this$[ebp], ecx

; 1194 : 	float xyRange, dist, dx, dy, heading;
; 1195 : 	float oldAz, oldEl, oldRange;
; 1196 : 	FalconTankerMessage* tankMsg;
; 1197 : 
; 1198 : 	// Find the thirsty one
; 1199 : 	if (!tankingPtr || tankingPtr->BaseData() != curThirsty)

	mov	eax, DWORD PTR _this$[ebp]
	cmp	DWORD PTR [eax+1208], 0
	je	SHORT $LN64@FollowThir
	mov	ecx, DWORD PTR _this$[ebp]
	mov	ecx, DWORD PTR [ecx+1208]
	call	?BaseData@SimObjectType@@QAEPAVFalconEntity@@XZ ; SimObjectType::BaseData
	mov	edx, DWORD PTR _this$[ebp]
	cmp	eax, DWORD PTR [edx+980]
	je	$LN62@FollowThir
$LN64@FollowThir:

; 1200 : 	   {
; 1201 : 		if (tankingPtr)

	mov	eax, DWORD PTR _this$[ebp]
	cmp	DWORD PTR [eax+1208], 0
	je	SHORT $LN63@FollowThir

; 1202 : 			tankingPtr->Release(  );

	mov	ecx, DWORD PTR _this$[ebp]
	mov	ecx, DWORD PTR [ecx+1208]
	call	?Release@SimObjectType@@QAEXXZ		; SimObjectType::Release
$LN63@FollowThir:

; 1203 : #ifdef DEBUG
; 1204 : 		//tankingPtr = new SimObjectType( OBJ_TAG, self, curThirsty );
; 1205 : #else
; 1206 : 		tankingPtr = new SimObjectType(curThirsty);

	push	24					; 00000018H
	call	??2@YAPAXI@Z				; operator new
	add	esp, 4
	mov	DWORD PTR $T20[ebp], eax
	mov	DWORD PTR __$EHRec$[ebp+8], 0
	cmp	DWORD PTR $T20[ebp], 0
	je	SHORT $LN68@FollowThir
	mov	edx, DWORD PTR _this$[ebp]
	mov	eax, DWORD PTR [edx+980]
	push	eax
	mov	ecx, DWORD PTR $T20[ebp]
	call	??0SimObjectType@@QAE@PAVFalconEntity@@@Z ; SimObjectType::SimObjectType
	mov	DWORD PTR tv93[ebp], eax
	jmp	SHORT $LN69@FollowThir
$LN68@FollowThir:
	mov	DWORD PTR tv93[ebp], 0
$LN69@FollowThir:
	mov	ecx, DWORD PTR tv93[ebp]
	mov	DWORD PTR $T17[ebp], ecx
	mov	DWORD PTR __$EHRec$[ebp+8], -1
	mov	edx, DWORD PTR _this$[ebp]
	mov	eax, DWORD PTR $T17[ebp]
	mov	DWORD PTR [edx+1208], eax

; 1207 : #endif
; 1208 : 		tankingPtr->Reference(  );

	mov	ecx, DWORD PTR _this$[ebp]
	mov	ecx, DWORD PTR [ecx+1208]
	call	?Reference@SimObjectType@@QAEXXZ	; SimObjectType::Reference

; 1209 : 		dist = DistanceToFront(SimToGrid(self->YPos()),SimToGrid(self->XPos()));		

	mov	edx, DWORD PTR _this$[ebp]
	mov	ecx, DWORD PTR [edx+56]
	call	?XPos@VuEntity@@QBEMXZ			; VuEntity::XPos
	push	ecx
	fstp	DWORD PTR [esp]
	call	?SimToGrid@@YAFM@Z			; SimToGrid
	add	esp, 4
	movzx	eax, ax
	push	eax
	mov	ecx, DWORD PTR _this$[ebp]
	mov	ecx, DWORD PTR [ecx+56]
	call	?YPos@VuEntity@@QBEMXZ			; VuEntity::YPos
	push	ecx
	fstp	DWORD PTR [esp]
	call	?SimToGrid@@YAFM@Z			; SimToGrid
	add	esp, 4
	movzx	edx, ax
	push	edx
	call	?DistanceToFront@@YAMFF@Z		; DistanceToFront
	add	esp, 8
	fstp	DWORD PTR _dist$[ebp]

; 1210 : 		if (!g_bUseTankerTrack && dist > 60.0F && dist < 100.0F)

	movzx	eax, BYTE PTR ?g_bUseTankerTrack@@3_NA	; g_bUseTankerTrack
	test	eax, eax
	jne	SHORT $LN62@FollowThir
	movss	xmm0, DWORD PTR _dist$[ebp]
	comiss	xmm0, DWORD PTR __real@42700000
	jbe	SHORT $LN62@FollowThir
	movss	xmm0, DWORD PTR __real@42c80000
	comiss	xmm0, DWORD PTR _dist$[ebp]
	jbe	SHORT $LN62@FollowThir

; 1211 : 		{
; 1212 : 			turnallow = true;	// allow a new turn

	mov	ecx, DWORD PTR _this$[ebp]
	mov	DWORD PTR [ecx+1220], 1

; 1213 : 			HeadsUp = true;

	mov	edx, DWORD PTR _this$[ebp]
	mov	DWORD PTR [edx+1228], 1
$LN62@FollowThir:

; 1214 : 		}
; 1215 : 	   }
; 1216 : 	
; 1217 : 	if (tankingPtr)

	mov	eax, DWORD PTR _this$[ebp]
	cmp	DWORD PTR [eax+1208], 0
	je	$LN61@FollowThir

; 1218 : 	{
; 1219 : 		float inverseTimeDelta = 1.0F / SimLibLastMajorFrameTime;

	movss	xmm0, DWORD PTR __real@3f800000
	divss	xmm0, DWORD PTR ?SimLibLastMajorFrameTime@@3MA
	movss	DWORD PTR _inverseTimeDelta$25[ebp], xmm0

; 1220 : 
; 1221 : 		Tpoint relPos;
; 1222 : 		ReceptorRelPosition(&relPos, curThirsty);

	mov	ecx, DWORD PTR _this$[ebp]
	mov	edx, DWORD PTR [ecx+980]
	push	edx
	lea	eax, DWORD PTR _relPos$27[ebp]
	push	eax
	mov	ecx, DWORD PTR _this$[ebp]
	call	?ReceptorRelPosition@TankerBrain@@QAEXPAUTpoint@@PAVSimVehicleClass@@@Z ; TankerBrain::ReceptorRelPosition

; 1223 : 
; 1224 : 		oldRange = tankingPtr->localData->range;

	mov	ecx, DWORD PTR _this$[ebp]
	mov	edx, DWORD PTR [ecx+1208]
	mov	eax, DWORD PTR [edx+12]
	movss	xmm0, DWORD PTR [eax+44]
	movss	DWORD PTR _oldRange$[ebp], xmm0

; 1225 : 		tankingPtr->localData->range = (float)sqrt(relPos.x*relPos.x + relPos.y*relPos.y + relPos.z*relPos.z);

	movss	xmm0, DWORD PTR _relPos$27[ebp]
	mulss	xmm0, DWORD PTR _relPos$27[ebp]
	movss	xmm1, DWORD PTR _relPos$27[ebp+4]
	mulss	xmm1, DWORD PTR _relPos$27[ebp+4]
	addss	xmm0, xmm1
	movss	xmm1, DWORD PTR _relPos$27[ebp+8]
	mulss	xmm1, DWORD PTR _relPos$27[ebp+8]
	addss	xmm0, xmm1
	push	ecx
	movss	DWORD PTR [esp], xmm0
	call	?SqrtSSE@@YAMM@Z			; SqrtSSE
	add	esp, 4
	mov	ecx, DWORD PTR _this$[ebp]
	mov	edx, DWORD PTR [ecx+1208]
	mov	eax, DWORD PTR [edx+12]
	fstp	DWORD PTR [eax+44]

; 1226 : 		tankingPtr->localData->rangedot = (tankingPtr->localData->range - oldRange) * inverseTimeDelta;		

	mov	ecx, DWORD PTR _this$[ebp]
	mov	edx, DWORD PTR [ecx+1208]
	mov	eax, DWORD PTR [edx+12]
	movss	xmm0, DWORD PTR [eax+44]
	subss	xmm0, DWORD PTR _oldRange$[ebp]
	mulss	xmm0, DWORD PTR _inverseTimeDelta$25[ebp]
	mov	ecx, DWORD PTR _this$[ebp]
	mov	edx, DWORD PTR [ecx+1208]
	mov	eax, DWORD PTR [edx+12]
	movss	DWORD PTR [eax+48], xmm0

; 1227 : 		tankingPtr->localData->range = max (tankingPtr->localData->range, 0.01F);

	mov	ecx, DWORD PTR _this$[ebp]
	mov	edx, DWORD PTR [ecx+1208]
	mov	eax, DWORD PTR [edx+12]
	movss	xmm0, DWORD PTR [eax+44]
	comiss	xmm0, DWORD PTR __real@3c23d70a
	jbe	SHORT $LN70@FollowThir
	mov	ecx, DWORD PTR _this$[ebp]
	mov	edx, DWORD PTR [ecx+1208]
	mov	eax, DWORD PTR [edx+12]
	movss	xmm0, DWORD PTR [eax+44]
	movss	DWORD PTR tv203[ebp], xmm0
	jmp	SHORT $LN71@FollowThir
$LN70@FollowThir:
	movss	xmm0, DWORD PTR __real@3c23d70a
	movss	DWORD PTR tv203[ebp], xmm0
$LN71@FollowThir:
	mov	ecx, DWORD PTR _this$[ebp]
	mov	edx, DWORD PTR [ecx+1208]
	mov	eax, DWORD PTR [edx+12]
	movss	xmm0, DWORD PTR tv203[ebp]
	movss	DWORD PTR [eax+44], xmm0

; 1228 : 		xyRange = (float)sqrt(relPos.x*relPos.x + relPos.y*relPos.y);

	movss	xmm0, DWORD PTR _relPos$27[ebp]
	mulss	xmm0, DWORD PTR _relPos$27[ebp]
	movss	xmm1, DWORD PTR _relPos$27[ebp+4]
	mulss	xmm1, DWORD PTR _relPos$27[ebp+4]
	addss	xmm0, xmm1
	push	ecx
	movss	DWORD PTR [esp], xmm0
	call	?SqrtSSE@@YAMM@Z			; SqrtSSE
	add	esp, 4
	fstp	DWORD PTR _xyRange$[ebp]

; 1229 : 
; 1230 : 		/*-------*/
; 1231 : 		/* az    */
; 1232 : 		/*-------*/
; 1233 : 		oldAz = tankingPtr->localData->az;

	mov	ecx, DWORD PTR _this$[ebp]
	mov	edx, DWORD PTR [ecx+1208]
	mov	eax, DWORD PTR [edx+12]
	movss	xmm0, DWORD PTR [eax+16]
	movss	DWORD PTR _oldAz$[ebp], xmm0

; 1234 : 		tankingPtr->localData->az = (float)atan2(relPos.y,-relPos.x);

	movss	xmm0, DWORD PTR _relPos$27[ebp]
	xorps	xmm0, DWORD PTR __xmm@80000000800000008000000080000000
	cvtss2sd xmm0, xmm0
	sub	esp, 8
	movsd	QWORD PTR [esp], xmm0
	cvtss2sd xmm0, DWORD PTR _relPos$27[ebp+4]
	sub	esp, 8
	movsd	QWORD PTR [esp], xmm0
	call	?checked_atan2@@YANNN@Z			; checked_atan2
	add	esp, 16					; 00000010H
	fstp	DWORD PTR tv1373[ebp]
	fld	DWORD PTR tv1373[ebp]
	mov	ecx, DWORD PTR _this$[ebp]
	mov	edx, DWORD PTR [ecx+1208]
	mov	eax, DWORD PTR [edx+12]
	fstp	DWORD PTR [eax+16]

; 1235 : 		tankingPtr->localData->azFromdot = (tankingPtr->localData->az - oldAz) * inverseTimeDelta;

	mov	ecx, DWORD PTR _this$[ebp]
	mov	edx, DWORD PTR [ecx+1208]
	mov	eax, DWORD PTR [edx+12]
	movss	xmm0, DWORD PTR [eax+16]
	subss	xmm0, DWORD PTR _oldAz$[ebp]
	mulss	xmm0, DWORD PTR _inverseTimeDelta$25[ebp]
	mov	ecx, DWORD PTR _this$[ebp]
	mov	edx, DWORD PTR [ecx+1208]
	mov	eax, DWORD PTR [edx+12]
	movss	DWORD PTR [eax+24], xmm0

; 1236 : 		
; 1237 : 		/*-------*/
; 1238 : 		/* elev  */
; 1239 : 		/*-------*/
; 1240 : 		oldEl = tankingPtr->localData->el;

	mov	ecx, DWORD PTR _this$[ebp]
	mov	edx, DWORD PTR [ecx+1208]
	mov	eax, DWORD PTR [edx+12]
	movss	xmm0, DWORD PTR [eax+28]
	movss	DWORD PTR _oldEl$[ebp], xmm0

; 1241 : 		if (xyRange != 0.0)

	cvtss2sd xmm0, DWORD PTR _xyRange$[ebp]
	ucomisd	xmm0, QWORD PTR __real@0000000000000000
	lahf
	test	ah, 68					; 00000044H
	jnp	SHORT $LN60@FollowThir

; 1242 : 			tankingPtr->localData->el = (float)atan(-relPos.z/xyRange);

	movss	xmm0, DWORD PTR _relPos$27[ebp+8]
	xorps	xmm0, DWORD PTR __xmm@80000000800000008000000080000000
	divss	xmm0, DWORD PTR _xyRange$[ebp]
	push	ecx
	movss	DWORD PTR [esp], xmm0
	call	?atan@@YAMM@Z				; atan
	add	esp, 4
	mov	ecx, DWORD PTR _this$[ebp]
	mov	edx, DWORD PTR [ecx+1208]
	mov	eax, DWORD PTR [edx+12]
	fstp	DWORD PTR [eax+28]

; 1243 : 		else

	jmp	SHORT $LN59@FollowThir
$LN60@FollowThir:

; 1244 : 			tankingPtr->localData->el = (relPos.z < 0.0F ? -90.0F * DTR : 90.0F * DTR);

	movss	xmm0, DWORD PTR __real@00000000
	comiss	xmm0, DWORD PTR _relPos$27[ebp+8]
	jbe	SHORT $LN72@FollowThir
	movss	xmm0, DWORD PTR __real@bfc90fd9
	movss	DWORD PTR tv247[ebp], xmm0
	jmp	SHORT $LN73@FollowThir
$LN72@FollowThir:
	movss	xmm0, DWORD PTR __real@3fc90fd9
	movss	DWORD PTR tv247[ebp], xmm0
$LN73@FollowThir:
	mov	ecx, DWORD PTR _this$[ebp]
	mov	edx, DWORD PTR [ecx+1208]
	mov	eax, DWORD PTR [edx+12]
	movss	xmm0, DWORD PTR tv247[ebp]
	movss	DWORD PTR [eax+28], xmm0
$LN59@FollowThir:

; 1245 : 		tankingPtr->localData->elFromdot = (tankingPtr->localData->el - oldEl) * inverseTimeDelta;

	mov	ecx, DWORD PTR _this$[ebp]
	mov	edx, DWORD PTR [ecx+1208]
	mov	eax, DWORD PTR [edx+12]
	movss	xmm0, DWORD PTR [eax+28]
	subss	xmm0, DWORD PTR _oldEl$[ebp]
	mulss	xmm0, DWORD PTR _inverseTimeDelta$25[ebp]
	mov	ecx, DWORD PTR _this$[ebp]
	mov	edx, DWORD PTR [ecx+1208]
	mov	eax, DWORD PTR [edx+12]
	movss	DWORD PTR [eax+36], xmm0

; 1246 : 
; 1247 : 		trackZ = -holdAlt;

	mov	ecx, DWORD PTR _this$[ebp]
	movss	xmm0, DWORD PTR [ecx+1204]
	xorps	xmm0, DWORD PTR __xmm@80000000800000008000000080000000
	mov	edx, DWORD PTR _this$[ebp]
	movss	DWORD PTR [edx+156], xmm0

; 1248 : 
; 1249 : 		if(flags & ClearingPlane)

	mov	eax, DWORD PTR _this$[ebp]
	mov	ecx, DWORD PTR [eax+1200]
	and	ecx, 64					; 00000040H
	je	SHORT $LN58@FollowThir

; 1250 : //			desSpeed = af->CalcTASfromCAS(335.0F)*KNOTS_TO_FTPSEC;									//JPG 24 Apr 04 - Removed conversions
; 1251 : 			desSpeed = af->CalcTASfromCAS(((AircraftClass*)curThirsty)->af->GetRefuelSpeed())*1.2f; //*KNOTS_TO_FTPSEC; // 12DEC03 - FRB

	mov	edx, DWORD PTR _this$[ebp]
	mov	eax, DWORD PTR [edx+980]
	mov	ecx, DWORD PTR [eax+932]
	call	?GetRefuelSpeed@AirframeClass@@QAEMXZ	; AirframeClass::GetRefuelSpeed
	push	ecx
	fstp	DWORD PTR [esp]
	mov	ecx, DWORD PTR _this$[ebp]
	mov	ecx, DWORD PTR [ecx+60]
	call	?CalcTASfromCAS@AirframeClass@@QAEMM@Z	; AirframeClass::CalcTASfromCAS
	fstp	DWORD PTR tv1408[ebp]
	movss	xmm0, DWORD PTR tv1408[ebp]
	mulss	xmm0, DWORD PTR __real@3f99999a
	mov	edx, DWORD PTR _this$[ebp]
	movss	DWORD PTR [edx+1232], xmm0

; 1252 : 		else 	// use refuel speed for this aircraft

	jmp	SHORT $LN57@FollowThir
$LN58@FollowThir:

; 1253 : 			desSpeed = af->CalcTASfromCAS(((AircraftClass*)curThirsty)->af->GetRefuelSpeed());//*KNOTS_TO_FTPSEC;

	mov	eax, DWORD PTR _this$[ebp]
	mov	ecx, DWORD PTR [eax+980]
	mov	ecx, DWORD PTR [ecx+932]
	call	?GetRefuelSpeed@AirframeClass@@QAEMXZ	; AirframeClass::GetRefuelSpeed
	push	ecx
	fstp	DWORD PTR [esp]
	mov	edx, DWORD PTR _this$[ebp]
	mov	ecx, DWORD PTR [edx+60]
	call	?CalcTASfromCAS@AirframeClass@@QAEMM@Z	; AirframeClass::CalcTASfromCAS
	mov	eax, DWORD PTR _this$[ebp]
	fstp	DWORD PTR [eax+1232]
$LN57@FollowThir:

; 1254 : 
; 1255 : // 2002-03-13 MN box tanker track
; 1256 : 		if (g_bUseTankerTrack)

	movzx	ecx, BYTE PTR ?g_bUseTankerTrack@@3_NA	; g_bUseTankerTrack
	test	ecx, ecx
	je	$LN56@FollowThir

; 1257 : 		{
; 1258 : /* 
; 1259 : 	1) Check distance to our current Trackpoint
; 1260 : 	2) If distance is < g_fTankerHeadsupDistance, make Headsup call
; 1261 : 	3) If distance is < g_fTankerTrackFactor or distance to current trackpoint increases again, head towards the next trackPoint
; 1262 : 
; 1263 : 	If advancedirection is set true, then tanker was outside his max range envelope when
; 1264 : 	called for refueling. In this case when switching from Trackpoint 0 to Trackpoint 1,
; 1265 : 	tanker would do a 180 turn - so just reverse the order from 0->1->2->3 to 0->3->2->1
; 1266 : */
; 1267 : 			dist = DistSqu(self->XPos(), self->YPos(), TrackPoints[currentTP].x, TrackPoints[currentTP].y);

	mov	edx, DWORD PTR _this$[ebp]
	mov	eax, DWORD PTR [edx+1284]
	imul	eax, 12					; 0000000cH
	mov	ecx, DWORD PTR _this$[ebp]
	push	ecx
	movss	xmm0, DWORD PTR [ecx+eax+1240]
	movss	DWORD PTR [esp], xmm0
	mov	edx, DWORD PTR _this$[ebp]
	mov	eax, DWORD PTR [edx+1284]
	imul	eax, 12					; 0000000cH
	mov	ecx, DWORD PTR _this$[ebp]
	push	ecx
	movss	xmm0, DWORD PTR [ecx+eax+1236]
	movss	DWORD PTR [esp], xmm0
	mov	edx, DWORD PTR _this$[ebp]
	mov	ecx, DWORD PTR [edx+56]
	call	?YPos@VuEntity@@QBEMXZ			; VuEntity::YPos
	push	ecx
	fstp	DWORD PTR [esp]
	mov	eax, DWORD PTR _this$[ebp]
	mov	ecx, DWORD PTR [eax+56]
	call	?XPos@VuEntity@@QBEMXZ			; VuEntity::XPos
	push	ecx
	fstp	DWORD PTR [esp]
	call	?DistSqu@@YAMMMMM@Z			; DistSqu
	add	esp, 16					; 00000010H
	fstp	DWORD PTR _dist$[ebp]

; 1268 : 
; 1269 : // trackPointDistance is always the closest distance to current trackpoint when close to it.
; 1270 : // If tanker doesn't get "the curve" to catch the trackpoint at g_fTankerTrackFactor distance,
; 1271 : // which means dist > trackPointDistance again, do the turn to next trackpoint nevertheless
; 1272 : // (sort of backup function to keep the tanker turning in a track...)
; 1273 : 			if (dist < (g_fTankerBackupDistance) * NM_TO_FT * (g_fTankerBackupDistance) * NM_TO_FT )

	movss	xmm0, DWORD PTR ?g_fTankerBackupDistance@@3MA
	mulss	xmm0, DWORD PTR __real@45bde1b0
	mulss	xmm0, DWORD PTR ?g_fTankerBackupDistance@@3MA
	mulss	xmm0, DWORD PTR __real@45bde1b0
	comiss	xmm0, DWORD PTR _dist$[ebp]
	jbe	SHORT $LN55@FollowThir

; 1274 : 			{
; 1275 : 				if (dist < trackPointDistance)

	mov	ecx, DWORD PTR _this$[ebp]
	movss	xmm0, DWORD PTR [ecx+1292]
	comiss	xmm0, DWORD PTR _dist$[ebp]
	jbe	SHORT $LN54@FollowThir

; 1276 : 					trackPointDistance = dist;

	mov	edx, DWORD PTR _this$[ebp]
	movss	xmm0, DWORD PTR _dist$[ebp]
	movss	DWORD PTR [edx+1292], xmm0
$LN54@FollowThir:

; 1277 : 			}
; 1278 : 			else

	jmp	SHORT $LN53@FollowThir
$LN55@FollowThir:

; 1279 : 				trackPointDistance = (0.5f + g_fTankerBackupDistance) * NM_TO_FT * (0.5f + g_fTankerBackupDistance) * NM_TO_FT;

	movss	xmm0, DWORD PTR __real@3f000000
	addss	xmm0, DWORD PTR ?g_fTankerBackupDistance@@3MA
	mulss	xmm0, DWORD PTR __real@45bde1b0
	movss	xmm1, DWORD PTR __real@3f000000
	addss	xmm1, DWORD PTR ?g_fTankerBackupDistance@@3MA
	mulss	xmm0, xmm1
	mulss	xmm0, DWORD PTR __real@45bde1b0
	mov	eax, DWORD PTR _this$[ebp]
	movss	DWORD PTR [eax+1292], xmm0
$LN53@FollowThir:

; 1280 : 
; 1281 : 			if ((dist < (g_fTankerHeadsupDistance) * NM_TO_FT * (g_fTankerHeadsupDistance) * NM_TO_FT ) && HeadsUp)

	movss	xmm0, DWORD PTR ?g_fTankerHeadsupDistance@@3MA
	mulss	xmm0, DWORD PTR __real@45bde1b0
	mulss	xmm0, DWORD PTR ?g_fTankerHeadsupDistance@@3MA
	mulss	xmm0, DWORD PTR __real@45bde1b0
	comiss	xmm0, DWORD PTR _dist$[ebp]
	jbe	$LN52@FollowThir
	mov	ecx, DWORD PTR _this$[ebp]
	cmp	DWORD PTR [ecx+1228], 0
	je	$LN52@FollowThir

; 1282 : 			{
; 1283 : 				reachedFirstTrackpoint = true; // from now on limit rStick, pStick and flight model (afsimple.cpp) until refueling is done

	mov	edx, DWORD PTR _this$[ebp]
	mov	BYTE PTR [edx+1289], 1

; 1284 : 				HeadsUp = false;

	mov	eax, DWORD PTR _this$[ebp]
	mov	DWORD PTR [eax+1228], 0

; 1285 : 				turnallow = true;

	mov	ecx, DWORD PTR _this$[ebp]
	mov	DWORD PTR [ecx+1220], 1

; 1286 : 				tankMsg = new FalconTankerMessage (self->Id(), FalconLocalGame);

	push	68					; 00000044H
	call	??2@YAPAXI@Z				; operator new
	add	esp, 4
	mov	DWORD PTR $T24[ebp], eax
	mov	DWORD PTR __$EHRec$[ebp+8], 1
	cmp	DWORD PTR $T24[ebp], 0
	je	SHORT $LN76@FollowThir
	mov	ecx, OFFSET ?vuLocalSessionEntity@@3V?$VuBin@VVuSessionEntity@@@@A ; vuLocalSessionEntity
	call	??B?$VuBin@VVuSessionEntity@@@@QBE_NXZ	; VuBin<VuSessionEntity>::operator bool
	movzx	edx, al
	test	edx, edx
	je	SHORT $LN74@FollowThir
	mov	ecx, OFFSET ?vuLocalSessionEntity@@3V?$VuBin@VVuSessionEntity@@@@A ; vuLocalSessionEntity
	call	?get@?$VuBin@VVuSessionEntity@@@@QBEPAVVuSessionEntity@@XZ ; VuBin<VuSessionEntity>::get
	mov	ecx, eax
	call	?GetGame@FalconSessionEntity@@QAEPAVFalconGameEntity@@XZ ; FalconSessionEntity::GetGame
	mov	DWORD PTR tv390[ebp], eax
	jmp	SHORT $LN75@FollowThir
$LN74@FollowThir:
	mov	DWORD PTR tv390[ebp], 0
$LN75@FollowThir:
	push	1
	mov	eax, DWORD PTR tv390[ebp]
	push	eax
	lea	ecx, DWORD PTR $T11[ebp]
	push	ecx
	mov	edx, DWORD PTR _this$[ebp]
	mov	ecx, DWORD PTR [edx+56]
	call	?Id@VuEntity@@QBE?AVVU_ID@@XZ		; VuEntity::Id
	mov	ecx, DWORD PTR [eax+4]
	push	ecx
	mov	edx, DWORD PTR [eax]
	push	edx
	mov	ecx, DWORD PTR $T24[ebp]
	call	??0FalconTankerMessage@@QAE@VVU_ID@@PAVVuTargetEntity@@E@Z ; FalconTankerMessage::FalconTankerMessage
	mov	DWORD PTR tv406[ebp], eax
	jmp	SHORT $LN77@FollowThir
$LN76@FollowThir:
	mov	DWORD PTR tv406[ebp], 0
$LN77@FollowThir:
	mov	eax, DWORD PTR tv406[ebp]
	mov	DWORD PTR $T12[ebp], eax
	mov	DWORD PTR __$EHRec$[ebp+8], -1
	mov	ecx, DWORD PTR $T12[ebp]
	mov	DWORD PTR _tankMsg$[ebp], ecx

; 1287 : 				tankMsg->dataBlock.caller = curThirsty->Id();

	lea	edx, DWORD PTR $T6[ebp]
	push	edx
	mov	eax, DWORD PTR _this$[ebp]
	mov	ecx, DWORD PTR [eax+980]
	call	?Id@VuEntity@@QBE?AVVU_ID@@XZ		; VuEntity::Id
	mov	ecx, DWORD PTR [eax]
	mov	edx, DWORD PTR [eax+4]
	mov	eax, DWORD PTR _tankMsg$[ebp]
	mov	DWORD PTR [eax+48], ecx
	mov	DWORD PTR [eax+52], edx

; 1288 : 				tankMsg->dataBlock.type = FalconTankerMessage::TankerTurn;

	mov	ecx, DWORD PTR _tankMsg$[ebp]
	mov	DWORD PTR [ecx+56], 10			; 0000000aH

; 1289 : 				tankMsg->dataBlock.data1 = tankMsg->dataBlock.data2 = 0;

	mov	edx, DWORD PTR _tankMsg$[ebp]
	movss	xmm0, DWORD PTR __real@00000000
	movss	DWORD PTR [edx+64], xmm0
	mov	eax, DWORD PTR _tankMsg$[ebp]
	movss	xmm0, DWORD PTR __real@00000000
	movss	DWORD PTR [eax+60], xmm0

; 1290 : 				FalconSendMessage (tankMsg);

	push	0
	mov	ecx, DWORD PTR _tankMsg$[ebp]
	push	ecx
	call	?FalconSendMessage@@YAXPAVVuMessage@@H@Z ; FalconSendMessage
	add	esp, 8
$LN52@FollowThir:

; 1291 : 			}
; 1292 : // distance to trackpoint increases again or we are closer than g_fTankerTrackFactor nm ? -> switch to next trackpoint
; 1293 : 			if ((dist > trackPointDistance || (dist < (g_fTankerTrackFactor) * NM_TO_FT * (g_fTankerTrackFactor) * NM_TO_FT)) && turnallow)

	mov	edx, DWORD PTR _this$[ebp]
	movss	xmm0, DWORD PTR _dist$[ebp]
	comiss	xmm0, DWORD PTR [edx+1292]
	ja	SHORT $LN50@FollowThir
	movss	xmm0, DWORD PTR ?g_fTankerTrackFactor@@3MA
	mulss	xmm0, DWORD PTR __real@45bde1b0
	mulss	xmm0, DWORD PTR ?g_fTankerTrackFactor@@3MA
	mulss	xmm0, DWORD PTR __real@45bde1b0
	comiss	xmm0, DWORD PTR _dist$[ebp]
	jbe	$LN51@FollowThir
$LN50@FollowThir:
	mov	eax, DWORD PTR _this$[ebp]
	cmp	DWORD PTR [eax+1220], 0
	je	$LN51@FollowThir

; 1294 : 			{
; 1295 :      			HeadsUp = true;

	mov	ecx, DWORD PTR _this$[ebp]
	mov	DWORD PTR [ecx+1228], 1

; 1296 : 				turnallow = false;

	mov	edx, DWORD PTR _this$[ebp]
	mov	DWORD PTR [edx+1220], 0

; 1297 : 				if (advancedirection)

	mov	eax, DWORD PTR _this$[ebp]
	movzx	ecx, BYTE PTR [eax+1288]
	test	ecx, ecx
	je	SHORT $LN49@FollowThir

; 1298 : 					currentTP--;

	mov	edx, DWORD PTR _this$[ebp]
	mov	eax, DWORD PTR [edx+1284]
	sub	eax, 1
	mov	ecx, DWORD PTR _this$[ebp]
	mov	DWORD PTR [ecx+1284], eax

; 1299 : 				else 

	jmp	SHORT $LN48@FollowThir
$LN49@FollowThir:

; 1300 : 					currentTP++;

	mov	edx, DWORD PTR _this$[ebp]
	mov	eax, DWORD PTR [edx+1284]
	add	eax, 1
	mov	ecx, DWORD PTR _this$[ebp]
	mov	DWORD PTR [ecx+1284], eax
$LN48@FollowThir:

; 1301 : 				if (currentTP > 3)

	mov	edx, DWORD PTR _this$[ebp]
	cmp	DWORD PTR [edx+1284], 3
	jle	SHORT $LN47@FollowThir

; 1302 : 					currentTP = 0;

	mov	eax, DWORD PTR _this$[ebp]
	mov	DWORD PTR [eax+1284], 0
$LN47@FollowThir:

; 1303 : 				if (currentTP < 0)

	mov	ecx, DWORD PTR _this$[ebp]
	cmp	DWORD PTR [ecx+1284], 0
	jge	SHORT $LN46@FollowThir

; 1304 : 					currentTP = 3;

	mov	edx, DWORD PTR _this$[ebp]
	mov	DWORD PTR [edx+1284], 3
$LN46@FollowThir:

; 1305 : 				TurnToTrackPoint(currentTP);

	mov	eax, DWORD PTR _this$[ebp]
	mov	ecx, DWORD PTR [eax+1284]
	push	ecx
	mov	ecx, DWORD PTR _this$[ebp]
	call	?TurnToTrackPoint@TankerBrain@@AAEXH@Z	; TankerBrain::TurnToTrackPoint
$LN51@FollowThir:

; 1306 : 			}
; 1307 : 		}
; 1308 : 		else

	jmp	$LN37@FollowThir
$LN56@FollowThir:

; 1309 : 		{
; 1310 : 			dist = DistanceToFront(SimToGrid(self->YPos()),SimToGrid(self->XPos()));		

	mov	edx, DWORD PTR _this$[ebp]
	mov	ecx, DWORD PTR [edx+56]
	call	?XPos@VuEntity@@QBEMXZ			; VuEntity::XPos
	push	ecx
	fstp	DWORD PTR [esp]
	call	?SimToGrid@@YAFM@Z			; SimToGrid
	add	esp, 4
	movzx	eax, ax
	push	eax
	mov	ecx, DWORD PTR _this$[ebp]
	mov	ecx, DWORD PTR [ecx+56]
	call	?YPos@VuEntity@@QBEMXZ			; VuEntity::YPos
	push	ecx
	fstp	DWORD PTR [esp]
	call	?SimToGrid@@YAFM@Z			; SimToGrid
	add	esp, 4
	movzx	edx, ax
	push	edx
	call	?DistanceToFront@@YAMFF@Z		; DistanceToFront
	add	esp, 8
	fstp	DWORD PTR _dist$[ebp]

; 1311 : 
; 1312 : 			if (dist > 45.0F && dist < 140.0F || dist > 200.0F)

	movss	xmm0, DWORD PTR _dist$[ebp]
	comiss	xmm0, DWORD PTR __real@42340000
	jbe	SHORT $LN42@FollowThir
	movss	xmm0, DWORD PTR __real@430c0000
	comiss	xmm0, DWORD PTR _dist$[ebp]
	ja	SHORT $LN43@FollowThir
$LN42@FollowThir:
	movss	xmm0, DWORD PTR _dist$[ebp]
	comiss	xmm0, DWORD PTR __real@43480000
	jbe	SHORT $LN44@FollowThir
$LN43@FollowThir:

; 1313 : 			{
; 1314 : 				HeadsUp = true;		// and a HeadsUp call

	mov	eax, DWORD PTR _this$[ebp]
	mov	DWORD PTR [eax+1228], 1
$LN44@FollowThir:

; 1315 : 			}
; 1316 : 
; 1317 : 			if ((dist <= 36.0F || dist >= 149.0F) && HeadsUp)

	movss	xmm0, DWORD PTR __real@42100000
	comiss	xmm0, DWORD PTR _dist$[ebp]
	jae	SHORT $LN40@FollowThir
	movss	xmm0, DWORD PTR _dist$[ebp]
	comiss	xmm0, DWORD PTR __real@43150000
	jb	$LN41@FollowThir
$LN40@FollowThir:
	mov	ecx, DWORD PTR _this$[ebp]
	cmp	DWORD PTR [ecx+1228], 0
	je	$LN41@FollowThir

; 1318 : 			{
; 1319 : 				HeadsUp = false;

	mov	edx, DWORD PTR _this$[ebp]
	mov	DWORD PTR [edx+1228], 0

; 1320 : 				turnallow = true;

	mov	eax, DWORD PTR _this$[ebp]
	mov	DWORD PTR [eax+1220], 1

; 1321 : 				tankMsg = new FalconTankerMessage (self->Id(), FalconLocalGame);

	push	68					; 00000044H
	call	??2@YAPAXI@Z				; operator new
	add	esp, 4
	mov	DWORD PTR $T19[ebp], eax
	mov	DWORD PTR __$EHRec$[ebp+8], 2
	cmp	DWORD PTR $T19[ebp], 0
	je	SHORT $LN80@FollowThir
	mov	ecx, OFFSET ?vuLocalSessionEntity@@3V?$VuBin@VVuSessionEntity@@@@A ; vuLocalSessionEntity
	call	??B?$VuBin@VVuSessionEntity@@@@QBE_NXZ	; VuBin<VuSessionEntity>::operator bool
	movzx	ecx, al
	test	ecx, ecx
	je	SHORT $LN78@FollowThir
	mov	ecx, OFFSET ?vuLocalSessionEntity@@3V?$VuBin@VVuSessionEntity@@@@A ; vuLocalSessionEntity
	call	?get@?$VuBin@VVuSessionEntity@@@@QBEPAVVuSessionEntity@@XZ ; VuBin<VuSessionEntity>::get
	mov	ecx, eax
	call	?GetGame@FalconSessionEntity@@QAEPAVFalconGameEntity@@XZ ; FalconSessionEntity::GetGame
	mov	DWORD PTR tv521[ebp], eax
	jmp	SHORT $LN79@FollowThir
$LN78@FollowThir:
	mov	DWORD PTR tv521[ebp], 0
$LN79@FollowThir:
	push	1
	mov	edx, DWORD PTR tv521[ebp]
	push	edx
	lea	eax, DWORD PTR $T4[ebp]
	push	eax
	mov	ecx, DWORD PTR _this$[ebp]
	mov	ecx, DWORD PTR [ecx+56]
	call	?Id@VuEntity@@QBE?AVVU_ID@@XZ		; VuEntity::Id
	mov	edx, DWORD PTR [eax+4]
	push	edx
	mov	eax, DWORD PTR [eax]
	push	eax
	mov	ecx, DWORD PTR $T19[ebp]
	call	??0FalconTankerMessage@@QAE@VVU_ID@@PAVVuTargetEntity@@E@Z ; FalconTankerMessage::FalconTankerMessage
	mov	DWORD PTR tv537[ebp], eax
	jmp	SHORT $LN81@FollowThir
$LN80@FollowThir:
	mov	DWORD PTR tv537[ebp], 0
$LN81@FollowThir:
	mov	ecx, DWORD PTR tv537[ebp]
	mov	DWORD PTR $T18[ebp], ecx
	mov	DWORD PTR __$EHRec$[ebp+8], -1
	mov	edx, DWORD PTR $T18[ebp]
	mov	DWORD PTR _tankMsg$[ebp], edx

; 1322 : 				tankMsg->dataBlock.caller = curThirsty->Id();

	lea	eax, DWORD PTR $T2[ebp]
	push	eax
	mov	ecx, DWORD PTR _this$[ebp]
	mov	ecx, DWORD PTR [ecx+980]
	call	?Id@VuEntity@@QBE?AVVU_ID@@XZ		; VuEntity::Id
	mov	edx, DWORD PTR [eax]
	mov	eax, DWORD PTR [eax+4]
	mov	ecx, DWORD PTR _tankMsg$[ebp]
	mov	DWORD PTR [ecx+48], edx
	mov	DWORD PTR [ecx+52], eax

; 1323 : 				tankMsg->dataBlock.type = FalconTankerMessage::TankerTurn;

	mov	edx, DWORD PTR _tankMsg$[ebp]
	mov	DWORD PTR [edx+56], 10			; 0000000aH

; 1324 : 				tankMsg->dataBlock.data1 = tankMsg->dataBlock.data2 = 0;

	mov	eax, DWORD PTR _tankMsg$[ebp]
	movss	xmm0, DWORD PTR __real@00000000
	movss	DWORD PTR [eax+64], xmm0
	mov	ecx, DWORD PTR _tankMsg$[ebp]
	movss	xmm0, DWORD PTR __real@00000000
	movss	DWORD PTR [ecx+60], xmm0

; 1325 : 				FalconSendMessage (tankMsg);

	push	0
	mov	edx, DWORD PTR _tankMsg$[ebp]
	push	edx
	call	?FalconSendMessage@@YAXPAVVuMessage@@H@Z ; FalconSendMessage
	add	esp, 8
$LN41@FollowThir:

; 1326 : 			}
; 1327 : 	
; 1328 : 			if (dist < 35.0F || dist > 150.0F)	// refuel between 35 and 150 nm distance to the FLOT

	movss	xmm0, DWORD PTR __real@420c0000
	comiss	xmm0, DWORD PTR _dist$[ebp]
	ja	SHORT $LN38@FollowThir
	movss	xmm0, DWORD PTR _dist$[ebp]
	comiss	xmm0, DWORD PTR __real@43160000
	jbe	$LN37@FollowThir
$LN38@FollowThir:

; 1329 : 			{
; 1330 : 				if (turnallow)

	mov	eax, DWORD PTR _this$[ebp]
	cmp	DWORD PTR [eax+1220], 0
	je	$LN37@FollowThir

; 1331 : 				{
; 1332 : 					turnallow = false;

	mov	ecx, DWORD PTR _this$[ebp]
	mov	DWORD PTR [ecx+1220], 0

; 1333 : 					dx = trackX - self->XPos();

	mov	edx, DWORD PTR _this$[ebp]
	mov	ecx, DWORD PTR [edx+56]
	call	?XPos@VuEntity@@QBEMXZ			; VuEntity::XPos
	fstp	DWORD PTR tv1564[ebp]
	mov	eax, DWORD PTR _this$[ebp]
	movss	xmm0, DWORD PTR [eax+148]
	subss	xmm0, DWORD PTR tv1564[ebp]
	movss	DWORD PTR _dx$[ebp], xmm0

; 1334 : 					dy = trackY - self->YPos();

	mov	ecx, DWORD PTR _this$[ebp]
	mov	ecx, DWORD PTR [ecx+56]
	call	?YPos@VuEntity@@QBEMXZ			; VuEntity::YPos
	fstp	DWORD PTR tv1571[ebp]
	mov	edx, DWORD PTR _this$[ebp]
	movss	xmm0, DWORD PTR [edx+152]
	subss	xmm0, DWORD PTR tv1571[ebp]
	movss	DWORD PTR _dy$[ebp], xmm0

; 1335 : 					heading = (float)atan2(dy,dx);

	cvtss2sd xmm0, DWORD PTR _dx$[ebp]
	sub	esp, 8
	movsd	QWORD PTR [esp], xmm0
	cvtss2sd xmm0, DWORD PTR _dy$[ebp]
	sub	esp, 8
	movsd	QWORD PTR [esp], xmm0
	call	?checked_atan2@@YANNN@Z			; checked_atan2
	add	esp, 16					; 00000010H
	fstp	DWORD PTR _heading$[ebp]

; 1336 : 					if(heading < 0.0F)

	movss	xmm0, DWORD PTR __real@00000000
	comiss	xmm0, DWORD PTR _heading$[ebp]
	jbe	SHORT $LN36@FollowThir

; 1337 : 						heading += PI * 2.0F;

	movss	xmm0, DWORD PTR _heading$[ebp]
	addss	xmm0, DWORD PTR __real@40c90fdb
	movss	DWORD PTR _heading$[ebp], xmm0
$LN36@FollowThir:

; 1338 : 					heading += PI;	// add 180

	movss	xmm0, DWORD PTR _heading$[ebp]
	addss	xmm0, DWORD PTR __real@40490fdb
	movss	DWORD PTR _heading$[ebp], xmm0

; 1339 : 					if (heading > PI * 2.0F)

	movss	xmm0, DWORD PTR _heading$[ebp]
	comiss	xmm0, DWORD PTR __real@40c90fdb
	jbe	SHORT $LN35@FollowThir

; 1340 : 						heading -= PI * 2.0F;

	movss	xmm0, DWORD PTR _heading$[ebp]
	subss	xmm0, DWORD PTR __real@40c90fdb
	movss	DWORD PTR _heading$[ebp], xmm0
$LN35@FollowThir:

; 1341 : 					TurnTo(heading);	// set up new trackpoint and make a radio call announcing the turn

	push	ecx
	movss	xmm0, DWORD PTR _heading$[ebp]
	movss	DWORD PTR [esp], xmm0
	mov	ecx, DWORD PTR _this$[ebp]
	call	?TurnTo@TankerBrain@@AAEXM@Z		; TankerBrain::TurnTo
$LN37@FollowThir:

; 1342 : 				}
; 1343 : 			}
; 1344 : 		}
; 1345 : 
; 1346 : 		SimpleTrack(SimpleTrackTanker, desSpeed);

	mov	eax, DWORD PTR _this$[ebp]
	push	ecx
	movss	xmm0, DWORD PTR [eax+1232]
	movss	DWORD PTR [esp], xmm0
	push	2
	mov	ecx, DWORD PTR _this$[ebp]
	call	?SimpleTrack@DigitalBrain@@IAEXW4SimpleTrackMode@1@M@Z ; DigitalBrain::SimpleTrack

; 1347 : 
; 1348 : 		if (g_bUseTankerTrack)

	movzx	ecx, BYTE PTR ?g_bUseTankerTrack@@3_NA	; g_bUseTankerTrack
	test	ecx, ecx
	je	$LN33@FollowThir

; 1349 : 		{
; 1350 : 			dy = TrackPoints[currentTP].y - self->YPos();

	mov	edx, DWORD PTR _this$[ebp]
	mov	esi, DWORD PTR [edx+1284]
	imul	esi, 12					; 0000000cH
	mov	eax, DWORD PTR _this$[ebp]
	mov	ecx, DWORD PTR [eax+56]
	call	?YPos@VuEntity@@QBEMXZ			; VuEntity::YPos
	fstp	DWORD PTR tv1595[ebp]
	mov	ecx, DWORD PTR _this$[ebp]
	movss	xmm0, DWORD PTR [ecx+esi+1240]
	subss	xmm0, DWORD PTR tv1595[ebp]
	movss	DWORD PTR _dy$[ebp], xmm0

; 1351 : 			dx = TrackPoints[currentTP].x - self->XPos();

	mov	edx, DWORD PTR _this$[ebp]
	mov	esi, DWORD PTR [edx+1284]
	imul	esi, 12					; 0000000cH
	mov	eax, DWORD PTR _this$[ebp]
	mov	ecx, DWORD PTR [eax+56]
	call	?XPos@VuEntity@@QBEMXZ			; VuEntity::XPos
	fstp	DWORD PTR tv1604[ebp]
	mov	ecx, DWORD PTR _this$[ebp]
	movss	xmm0, DWORD PTR [ecx+esi+1236]
	subss	xmm0, DWORD PTR tv1604[ebp]
	movss	DWORD PTR _dx$[ebp], xmm0

; 1352 : 
; 1353 : 			heading = (float)atan2(dy,dx);

	cvtss2sd xmm0, DWORD PTR _dx$[ebp]
	sub	esp, 8
	movsd	QWORD PTR [esp], xmm0
	cvtss2sd xmm0, DWORD PTR _dy$[ebp]
	sub	esp, 8
	movsd	QWORD PTR [esp], xmm0
	call	?checked_atan2@@YANNN@Z			; checked_atan2
	add	esp, 16					; 00000010H
	fstp	DWORD PTR _heading$[ebp]

; 1354 : 			
; 1355 : 			if (fabs(self->Yaw() - heading) < g_fHeadingStabilizeFactor) // when our course is close to trackpoint's direction

	mov	edx, DWORD PTR _this$[ebp]
	mov	ecx, DWORD PTR [edx+56]
	call	?Yaw@VuEntity@@QBEMXZ			; VuEntity::Yaw
	fstp	DWORD PTR tv1616[ebp]
	movss	xmm0, DWORD PTR tv1616[ebp]
	subss	xmm0, DWORD PTR _heading$[ebp]
	push	ecx
	movss	DWORD PTR [esp], xmm0
	call	?fabs@@YAMM@Z				; fabs
	add	esp, 4
	fstp	DWORD PTR tv1621[ebp]
	movss	xmm0, DWORD PTR ?g_fHeadingStabilizeFactor@@3MA
	comiss	xmm0, DWORD PTR tv1621[ebp]
	jbe	SHORT $LN33@FollowThir

; 1356 : 				rStick = 0.0F;						  // stabilize Tanker's heading

	mov	eax, DWORD PTR _this$[ebp]
	movss	xmm0, DWORD PTR __real@00000000
	movss	DWORD PTR [eax+32], xmm0
$LN33@FollowThir:

; 1357 : 		}
; 1358 : 
; 1359 : 		if (g_nShowDebugLabels & 0x800)

	mov	ecx, DWORD PTR ?g_nShowDebugLabels@@3HA	; g_nShowDebugLabels
	and	ecx, 2048				; 00000800H
	je	$LN30@FollowThir

; 1360 : 		{
; 1361 : 			char tmpchr[32];
; 1362 : 			dist = (float)sqrt(dist);

	push	ecx
	movss	xmm0, DWORD PTR _dist$[ebp]
	movss	DWORD PTR [esp], xmm0
	call	?SqrtSSE@@YAMM@Z			; SqrtSSE
	add	esp, 4
	fstp	DWORD PTR _dist$[ebp]

; 1363 : 			dist *= FT_TO_NM;

	movss	xmm0, DWORD PTR _dist$[ebp]
	mulss	xmm0, DWORD PTR __real@392c987a
	movss	DWORD PTR _dist$[ebp], xmm0

; 1364 : 			float yaw = self->Yaw();

	mov	edx, DWORD PTR _this$[ebp]
	mov	ecx, DWORD PTR [edx+56]
	call	?Yaw@VuEntity@@QBEMXZ			; VuEntity::Yaw
	fstp	DWORD PTR _yaw$26[ebp]

; 1365 : 			if (yaw < 0.0f)

	movss	xmm0, DWORD PTR __real@00000000
	comiss	xmm0, DWORD PTR _yaw$26[ebp]
	jbe	SHORT $LN31@FollowThir

; 1366 : 				yaw += 360.0F * DTR;

	movss	xmm0, DWORD PTR _yaw$26[ebp]
	addss	xmm0, DWORD PTR __real@40c90fd9
	movss	DWORD PTR _yaw$26[ebp], xmm0
$LN31@FollowThir:

; 1367 : 			yaw *= RTD;

	movss	xmm0, DWORD PTR _yaw$26[ebp]
	mulss	xmm0, DWORD PTR __real@42652ee1
	movss	DWORD PTR _yaw$26[ebp], xmm0

; 1368 : 
; 1369 : 			ReceptorRelPosition(&relPos, curThirsty);

	mov	eax, DWORD PTR _this$[ebp]
	mov	ecx, DWORD PTR [eax+980]
	push	ecx
	lea	edx, DWORD PTR _relPos$27[ebp]
	push	edx
	mov	ecx, DWORD PTR _this$[ebp]
	call	?ReceptorRelPosition@TankerBrain@@QAEXPAUTpoint@@PAVSimVehicleClass@@@Z ; TankerBrain::ReceptorRelPosition

; 1370 : 
; 1371 : 			sprintf(tmpchr,"%3.2f %5.1f   %3.0f %3.2f TP %d",relPos.x, self->XPos(), yaw, dist, currentTP);

	mov	eax, DWORD PTR _this$[ebp]
	mov	ecx, DWORD PTR [eax+1284]
	push	ecx
	cvtss2sd xmm0, DWORD PTR _dist$[ebp]
	sub	esp, 8
	movsd	QWORD PTR [esp], xmm0
	cvtss2sd xmm0, DWORD PTR _yaw$26[ebp]
	sub	esp, 8
	movsd	QWORD PTR [esp], xmm0
	mov	edx, DWORD PTR _this$[ebp]
	mov	ecx, DWORD PTR [edx+56]
	call	?XPos@VuEntity@@QBEMXZ			; VuEntity::XPos
	sub	esp, 8
	fstp	QWORD PTR [esp]
	cvtss2sd xmm0, DWORD PTR _relPos$27[ebp]
	sub	esp, 8
	movsd	QWORD PTR [esp], xmm0
	push	OFFSET ??_C@_0CA@IPKEBIDK@?$CF3?42f?5?$CF5?41f?5?5?5?$CF3?40f?5?$CF3?42f?5TP?5?$CFd?$AA@
	lea	eax, DWORD PTR _tmpchr$29[ebp]
	push	eax
	call	_sprintf
	add	esp, 44					; 0000002cH

; 1372 : 			if (self->drawPointer)

	mov	ecx, DWORD PTR _this$[ebp]
	mov	edx, DWORD PTR [ecx+56]
	cmp	DWORD PTR [edx+332], 0
	je	SHORT $LN30@FollowThir

; 1373 : 				((DrawableBSP*)self->drawPointer)->SetLabel (tmpchr, ((DrawableBSP*)self->drawPointer)->LabelColor());

	mov	eax, DWORD PTR _this$[ebp]
	mov	ecx, DWORD PTR [eax+56]
	mov	ecx, DWORD PTR [ecx+332]
	call	?LabelColor@DrawableBSP@@QAEKXZ		; DrawableBSP::LabelColor
	push	eax
	lea	edx, DWORD PTR _tmpchr$29[ebp]
	push	edx
	mov	eax, DWORD PTR _this$[ebp]
	mov	ecx, DWORD PTR [eax+56]
	mov	edx, DWORD PTR [ecx+332]
	mov	eax, DWORD PTR _this$[ebp]
	mov	ecx, DWORD PTR [eax+56]
	mov	edx, DWORD PTR [edx]
	mov	ecx, DWORD PTR [ecx+332]
	mov	eax, DWORD PTR [edx+8]
	call	eax
$LN30@FollowThir:

; 1374 : 		}
; 1375 : 		
; 1376 : 		// Set the lights
; 1377 : 		if(stype == TNKR_KC10)

	mov	ecx, DWORD PTR _this$[ebp]
	cmp	DWORD PTR [ecx+1192], 0
	jne	SHORT $LN29@FollowThir

; 1378 : 			DriveLights();	

	mov	ecx, DWORD PTR _this$[ebp]
	call	?DriveLights@TankerBrain@@AAEXXZ	; TankerBrain::DriveLights
	jmp	SHORT $LN27@FollowThir
$LN29@FollowThir:

; 1379 : 		else if(stype == TNKR_KC135 && g_bLightsKC135)	// when we have the lights on the KC-135 model

	mov	edx, DWORD PTR _this$[ebp]
	cmp	DWORD PTR [edx+1192], 1
	jne	SHORT $LN27@FollowThir
	movzx	eax, BYTE PTR ?g_bLightsKC135@@3_NA	; g_bLightsKC135
	test	eax, eax
	je	SHORT $LN27@FollowThir

; 1380 : 			DriveLights();

	mov	ecx, DWORD PTR _this$[ebp]
	call	?DriveLights@TankerBrain@@AAEXXZ	; TankerBrain::DriveLights
$LN27@FollowThir:

; 1381 : 		
; 1382 : 		if (xyRange < 500.0F && !(flags & PrecontactPos) &&
; 1383 : 			fabs(tankingPtr->localData->rangedot) < 100.0F &&
; 1384 : 			fabs(tankingPtr->localData->az) < 35.0F * DTR)

	movss	xmm0, DWORD PTR __real@43fa0000
	comiss	xmm0, DWORD PTR _xyRange$[ebp]
	jbe	$LN26@FollowThir
	mov	ecx, DWORD PTR _this$[ebp]
	mov	edx, DWORD PTR [ecx+1200]
	and	edx, 16					; 00000010H
	jne	$LN26@FollowThir
	mov	eax, DWORD PTR _this$[ebp]
	mov	ecx, DWORD PTR [eax+1208]
	mov	edx, DWORD PTR [ecx+12]
	push	ecx
	movss	xmm0, DWORD PTR [edx+48]
	movss	DWORD PTR [esp], xmm0
	call	?fabs@@YAMM@Z				; fabs
	add	esp, 4
	fstp	DWORD PTR tv1670[ebp]
	movss	xmm0, DWORD PTR __real@42c80000
	comiss	xmm0, DWORD PTR tv1670[ebp]
	jbe	$LN26@FollowThir
	mov	eax, DWORD PTR _this$[ebp]
	mov	ecx, DWORD PTR [eax+1208]
	mov	edx, DWORD PTR [ecx+12]
	push	ecx
	movss	xmm0, DWORD PTR [edx+16]
	movss	DWORD PTR [esp], xmm0
	call	?fabs@@YAMM@Z				; fabs
	add	esp, 4
	fstp	DWORD PTR tv1678[ebp]
	movss	xmm0, DWORD PTR __real@3f1c61a9
	comiss	xmm0, DWORD PTR tv1678[ebp]
	jbe	$LN26@FollowThir

; 1385 : 		{
; 1386 : 			flags |= PrecontactPos;

	mov	eax, DWORD PTR _this$[ebp]
	mov	ecx, DWORD PTR [eax+1200]
	or	ecx, 16					; 00000010H
	mov	edx, DWORD PTR _this$[ebp]
	mov	DWORD PTR [edx+1200], ecx

; 1387 : 			// Call into contact position
; 1388 : 			tankMsg = new FalconTankerMessage (self->Id(), FalconLocalGame);

	push	68					; 00000044H
	call	??2@YAPAXI@Z				; operator new
	add	esp, 4
	mov	DWORD PTR $T22[ebp], eax
	mov	DWORD PTR __$EHRec$[ebp+8], 3
	cmp	DWORD PTR $T22[ebp], 0
	je	SHORT $LN84@FollowThir
	mov	ecx, OFFSET ?vuLocalSessionEntity@@3V?$VuBin@VVuSessionEntity@@@@A ; vuLocalSessionEntity
	call	??B?$VuBin@VVuSessionEntity@@@@QBE_NXZ	; VuBin<VuSessionEntity>::operator bool
	movzx	eax, al
	test	eax, eax
	je	SHORT $LN82@FollowThir
	mov	ecx, OFFSET ?vuLocalSessionEntity@@3V?$VuBin@VVuSessionEntity@@@@A ; vuLocalSessionEntity
	call	?get@?$VuBin@VVuSessionEntity@@@@QBEPAVVuSessionEntity@@XZ ; VuBin<VuSessionEntity>::get
	mov	ecx, eax
	call	?GetGame@FalconSessionEntity@@QAEPAVFalconGameEntity@@XZ ; FalconSessionEntity::GetGame
	mov	DWORD PTR tv866[ebp], eax
	jmp	SHORT $LN83@FollowThir
$LN82@FollowThir:
	mov	DWORD PTR tv866[ebp], 0
$LN83@FollowThir:
	push	1
	mov	ecx, DWORD PTR tv866[ebp]
	push	ecx
	lea	edx, DWORD PTR $T9[ebp]
	push	edx
	mov	eax, DWORD PTR _this$[ebp]
	mov	ecx, DWORD PTR [eax+56]
	call	?Id@VuEntity@@QBE?AVVU_ID@@XZ		; VuEntity::Id
	mov	ecx, DWORD PTR [eax+4]
	push	ecx
	mov	edx, DWORD PTR [eax]
	push	edx
	mov	ecx, DWORD PTR $T22[ebp]
	call	??0FalconTankerMessage@@QAE@VVU_ID@@PAVVuTargetEntity@@E@Z ; FalconTankerMessage::FalconTankerMessage
	mov	DWORD PTR tv882[ebp], eax
	jmp	SHORT $LN85@FollowThir
$LN84@FollowThir:
	mov	DWORD PTR tv882[ebp], 0
$LN85@FollowThir:
	mov	eax, DWORD PTR tv882[ebp]
	mov	DWORD PTR $T14[ebp], eax
	mov	DWORD PTR __$EHRec$[ebp+8], -1
	mov	ecx, DWORD PTR $T14[ebp]
	mov	DWORD PTR _tankMsg$[ebp], ecx

; 1389 : 			tankMsg->dataBlock.caller = curThirsty->Id();

	lea	edx, DWORD PTR $T5[ebp]
	push	edx
	mov	eax, DWORD PTR _this$[ebp]
	mov	ecx, DWORD PTR [eax+980]
	call	?Id@VuEntity@@QBE?AVVU_ID@@XZ		; VuEntity::Id
	mov	ecx, DWORD PTR [eax]
	mov	edx, DWORD PTR [eax+4]
	mov	eax, DWORD PTR _tankMsg$[ebp]
	mov	DWORD PTR [eax+48], ecx
	mov	DWORD PTR [eax+52], edx

; 1390 : 			tankMsg->dataBlock.type = FalconTankerMessage::ClearToContact;

	mov	ecx, DWORD PTR _tankMsg$[ebp]
	mov	DWORD PTR [ecx+56], 6

; 1391 : 			tankMsg->dataBlock.data1 = tankMsg->dataBlock.data2 = 0;

	mov	edx, DWORD PTR _tankMsg$[ebp]
	movss	xmm0, DWORD PTR __real@00000000
	movss	DWORD PTR [edx+64], xmm0
	mov	eax, DWORD PTR _tankMsg$[ebp]
	movss	xmm0, DWORD PTR __real@00000000
	movss	DWORD PTR [eax+60], xmm0

; 1392 : 			FalconSendMessage (tankMsg);

	push	0
	mov	ecx, DWORD PTR _tankMsg$[ebp]
	push	ecx
	call	?FalconSendMessage@@YAXPAVVuMessage@@H@Z ; FalconSendMessage
	add	esp, 8
$LN26@FollowThir:

; 1393 : 		}
; 1394 : 		
; 1395 : 		if(!(flags & ClearingPlane))

	mov	edx, DWORD PTR _this$[ebp]
	mov	eax, DWORD PTR [edx+1200]
	and	eax, 64					; 00000040H
	jne	$LN24@FollowThir

; 1396 : // 25NOV03 - FRB - Give directions to drogue-refueling a/c
; 1397 : //		if(ServiceType != DROGUE_SERVICE && !(flags & ClearingPlane))
; 1398 : 		{
; 1399 : 			if (xyRange < 200.0F && !(flags & GivingGas) &&
; 1400 : 				(SimLibElapsedTime - lastBoomCommand) > 10000)

	movss	xmm0, DWORD PTR __real@43480000
	comiss	xmm0, DWORD PTR _xyRange$[ebp]
	jbe	$LN24@FollowThir
	mov	ecx, DWORD PTR _this$[ebp]
	mov	edx, DWORD PTR [ecx+1200]
	and	edx, 4
	jne	$LN24@FollowThir
	mov	eax, DWORD PTR _this$[ebp]
	mov	ecx, DWORD PTR ?SimLibElapsedTime@@3KA	; SimLibElapsedTime
	sub	ecx, DWORD PTR [eax+1216]
	cmp	ecx, 10000				; 00002710H
	jbe	$LN24@FollowThir

; 1401 : 			{
; 1402 : 				lastBoomCommand = SimLibElapsedTime;

	mov	edx, DWORD PTR _this$[ebp]
	mov	eax, DWORD PTR ?SimLibElapsedTime@@3KA	; SimLibElapsedTime
	mov	DWORD PTR [edx+1216], eax

; 1403 : 				// Call boom commands
; 1404 : 				tankMsg = new FalconTankerMessage (self->Id(), FalconLocalGame);

	push	68					; 00000044H
	call	??2@YAPAXI@Z				; operator new
	add	esp, 4
	mov	DWORD PTR $T23[ebp], eax
	mov	DWORD PTR __$EHRec$[ebp+8], 4
	cmp	DWORD PTR $T23[ebp], 0
	je	SHORT $LN88@FollowThir
	mov	ecx, OFFSET ?vuLocalSessionEntity@@3V?$VuBin@VVuSessionEntity@@@@A ; vuLocalSessionEntity
	call	??B?$VuBin@VVuSessionEntity@@@@QBE_NXZ	; VuBin<VuSessionEntity>::operator bool
	movzx	ecx, al
	test	ecx, ecx
	je	SHORT $LN86@FollowThir
	mov	ecx, OFFSET ?vuLocalSessionEntity@@3V?$VuBin@VVuSessionEntity@@@@A ; vuLocalSessionEntity
	call	?get@?$VuBin@VVuSessionEntity@@@@QBEPAVVuSessionEntity@@XZ ; VuBin<VuSessionEntity>::get
	mov	ecx, eax
	call	?GetGame@FalconSessionEntity@@QAEPAVFalconGameEntity@@XZ ; FalconSessionEntity::GetGame
	mov	DWORD PTR tv939[ebp], eax
	jmp	SHORT $LN87@FollowThir
$LN86@FollowThir:
	mov	DWORD PTR tv939[ebp], 0
$LN87@FollowThir:
	push	1
	mov	edx, DWORD PTR tv939[ebp]
	push	edx
	lea	eax, DWORD PTR $T7[ebp]
	push	eax
	mov	ecx, DWORD PTR _this$[ebp]
	mov	ecx, DWORD PTR [ecx+56]
	call	?Id@VuEntity@@QBE?AVVU_ID@@XZ		; VuEntity::Id
	mov	edx, DWORD PTR [eax+4]
	push	edx
	mov	eax, DWORD PTR [eax]
	push	eax
	mov	ecx, DWORD PTR $T23[ebp]
	call	??0FalconTankerMessage@@QAE@VVU_ID@@PAVVuTargetEntity@@E@Z ; FalconTankerMessage::FalconTankerMessage
	mov	DWORD PTR tv955[ebp], eax
	jmp	SHORT $LN89@FollowThir
$LN88@FollowThir:
	mov	DWORD PTR tv955[ebp], 0
$LN89@FollowThir:
	mov	ecx, DWORD PTR tv955[ebp]
	mov	DWORD PTR $T15[ebp], ecx
	mov	DWORD PTR __$EHRec$[ebp+8], -1
	mov	edx, DWORD PTR $T15[ebp]
	mov	DWORD PTR _tankMsg$[ebp], edx

; 1405 : 				tankMsg->dataBlock.caller = curThirsty->Id();

	lea	eax, DWORD PTR $T3[ebp]
	push	eax
	mov	ecx, DWORD PTR _this$[ebp]
	mov	ecx, DWORD PTR [ecx+980]
	call	?Id@VuEntity@@QBE?AVVU_ID@@XZ		; VuEntity::Id
	mov	edx, DWORD PTR [eax]
	mov	eax, DWORD PTR [eax+4]
	mov	ecx, DWORD PTR _tankMsg$[ebp]
	mov	DWORD PTR [ecx+48], edx
	mov	DWORD PTR [ecx+52], eax

; 1406 : 				tankMsg->dataBlock.type = FalconTankerMessage::BoomCommand;

	mov	edx, DWORD PTR _tankMsg$[ebp]
	mov	DWORD PTR [edx+56], 8

; 1407 : 				
; 1408 : // 2002-03-06 MN calculate relative position based on aircrafts refuel position
; 1409 : 				Tpoint boompos;
; 1410 : 				boompos.x = boompos.z = 0;

	movss	xmm0, DWORD PTR __real@00000000
	movss	DWORD PTR _boompos$28[ebp+8], xmm0
	movss	xmm0, DWORD PTR _boompos$28[ebp+8]
	movss	DWORD PTR _boompos$28[ebp], xmm0

; 1411 : 
; 1412 : 		    if (curThirsty && curThirsty->IsAirplane() && ((AircraftClass*)curThirsty)->af) 

	mov	eax, DWORD PTR _this$[ebp]
	cmp	DWORD PTR [eax+980], 0
	je	$LN13@FollowThir
	mov	ecx, DWORD PTR _this$[ebp]
	mov	edx, DWORD PTR [ecx+980]
	mov	eax, DWORD PTR _this$[ebp]
	mov	edx, DWORD PTR [edx]
	mov	ecx, DWORD PTR [eax+980]
	mov	eax, DWORD PTR [edx+192]
	call	eax
	test	eax, eax
	je	$LN13@FollowThir
	mov	ecx, DWORD PTR _this$[ebp]
	mov	edx, DWORD PTR [ecx+980]
	cmp	DWORD PTR [edx+932], 0
	je	$LN13@FollowThir

; 1413 : 				{
; 1414 : 					((AircraftClass*)curThirsty)->af->GetRefuelPosition(&boompos);

	lea	eax, DWORD PTR _boompos$28[ebp]
	push	eax
	mov	ecx, DWORD PTR _this$[ebp]
	mov	edx, DWORD PTR [ecx+980]
	mov	ecx, DWORD PTR [edx+932]
	call	?GetRefuelPosition@AirframeClass@@QAEXPAUTpoint@@@Z ; AirframeClass::GetRefuelPosition

; 1415 : 					// 15NOV03 - FRB - Adjust F-16 rf boom position to match current a/c rf port location
; 1416 : 					if(ServiceType == BOOM_SERVICE)

	mov	eax, DWORD PTR _this$[ebp]
	cmp	DWORD PTR [eax+1196], 20		; 00000014H
	jne	$LN22@FollowThir

; 1417 : 					{
; 1418 : 						// if nothing set, use F-16 default
; 1419 : 						if (boompos.x == 0 && boompos.y ==0 && boompos.z == 0) 

	movss	xmm0, DWORD PTR _boompos$28[ebp]
	ucomiss	xmm0, DWORD PTR __real@00000000
	lahf
	test	ah, 68					; 00000044H
	jp	SHORT $LN21@FollowThir
	movss	xmm0, DWORD PTR _boompos$28[ebp+4]
	ucomiss	xmm0, DWORD PTR __real@00000000
	lahf
	test	ah, 68					; 00000044H
	jp	SHORT $LN21@FollowThir
	movss	xmm0, DWORD PTR _boompos$28[ebp+8]
	ucomiss	xmm0, DWORD PTR __real@00000000
	lahf
	test	ah, 68					; 00000044H
	jp	SHORT $LN21@FollowThir

; 1420 : 						{
; 1421 : 							boompos.x = STDPOSX;

	movss	xmm0, DWORD PTR __real@c21e8ebe
	movss	DWORD PTR _boompos$28[ebp], xmm0

; 1422 : 							boompos.y = 0.0f;

	movss	xmm0, DWORD PTR __real@00000000
	movss	DWORD PTR _boompos$28[ebp+4], xmm0

; 1423 : 							boompos.z = STDPOSZ;

	movss	xmm0, DWORD PTR __real@41ca0650
	movss	DWORD PTR _boompos$28[ebp+8], xmm0

; 1424 : 						}
; 1425 : 						else

	jmp	SHORT $LN18@FollowThir
$LN21@FollowThir:

; 1426 : 						{
; 1427 : 							boompos.x = -boompos.x + STDPOSX;

	movss	xmm0, DWORD PTR _boompos$28[ebp]
	xorps	xmm0, DWORD PTR __xmm@80000000800000008000000080000000
	addss	xmm0, DWORD PTR __real@c21e8ebe
	movss	DWORD PTR _boompos$28[ebp], xmm0

; 1428 : 							boompos.y = -boompos.y;

	movss	xmm0, DWORD PTR _boompos$28[ebp+4]
	xorps	xmm0, DWORD PTR __xmm@80000000800000008000000080000000
	movss	DWORD PTR _boompos$28[ebp+4], xmm0

; 1429 : 							if (boompos.z)

	movss	xmm0, DWORD PTR _boompos$28[ebp+8]
	ucomiss	xmm0, DWORD PTR __real@00000000
	lahf
	test	ah, 68					; 00000044H
	jnp	SHORT $LN19@FollowThir

; 1430 : 								boompos.z = -(boompos.z + 3.0F) + STDPOSZ;

	movss	xmm0, DWORD PTR _boompos$28[ebp+8]
	addss	xmm0, DWORD PTR __real@40400000
	xorps	xmm0, DWORD PTR __xmm@80000000800000008000000080000000
	addss	xmm0, DWORD PTR __real@41ca0650
	movss	DWORD PTR _boompos$28[ebp+8], xmm0

; 1431 : 							else

	jmp	SHORT $LN18@FollowThir
$LN19@FollowThir:

; 1432 : 								boompos.z = STDPOSZ;

	movss	xmm0, DWORD PTR __real@41ca0650
	movss	DWORD PTR _boompos$28[ebp+8], xmm0
$LN18@FollowThir:

; 1433 : 						}
; 1434 : 					}
; 1435 : 					else

	jmp	$LN13@FollowThir
$LN22@FollowThir:

; 1436 : 					{
; 1437 : 						// 18NOV03 - FRB - Added direction commands to drogue tanker
; 1438 : 						// 15NOV03 - FRB - Adjust droque rf position to match current a/c rf port location
; 1439 : 						// if nothing set, use nose of a/c
; 1440 : 						if (boompos.x == 0 && boompos.y ==0 && boompos.z == 0) 

	movss	xmm0, DWORD PTR _boompos$28[ebp]
	ucomiss	xmm0, DWORD PTR __real@00000000
	lahf
	test	ah, 68					; 00000044H
	jp	$LN16@FollowThir
	movss	xmm0, DWORD PTR _boompos$28[ebp+4]
	ucomiss	xmm0, DWORD PTR __real@00000000
	lahf
	test	ah, 68					; 00000044H
	jp	$LN16@FollowThir
	movss	xmm0, DWORD PTR _boompos$28[ebp+8]
	ucomiss	xmm0, DWORD PTR __real@00000000
	lahf
	test	ah, 68					; 00000044H
	jp	$LN16@FollowThir

; 1441 : 						{
; 1442 : 									float		rad;
; 1443 : 							if (curThirsty && curThirsty->drawPointer) 

	mov	ecx, DWORD PTR _this$[ebp]
	cmp	DWORD PTR [ecx+980], 0
	je	SHORT $LN15@FollowThir
	mov	edx, DWORD PTR _this$[ebp]
	mov	eax, DWORD PTR [edx+980]
	cmp	DWORD PTR [eax+332], 0
	je	SHORT $LN15@FollowThir

; 1444 : 							{
; 1445 : 								rad = ((DrawableBSP*)curThirsty->drawPointer)->Radius();	// Use Parent record radius since BoundingBox +X may be changed to decrease a/c hitbox

	mov	ecx, DWORD PTR _this$[ebp]
	mov	edx, DWORD PTR [ecx+980]
	mov	ecx, DWORD PTR [edx+332]
	call	?Radius@DrawableObject@@QBEMXZ		; DrawableObject::Radius
	fstp	DWORD PTR _rad$13[ebp]

; 1446 : 								boompos.x = -rad - DrogueExt;

	movss	xmm0, DWORD PTR _rad$13[ebp]
	xorps	xmm0, DWORD PTR __xmm@80000000800000008000000080000000
	mov	eax, DWORD PTR _this$[ebp]
	subss	xmm0, DWORD PTR [eax+992]
	movss	DWORD PTR _boompos$28[ebp], xmm0

; 1447 : 								boompos.y = 0.0F;

	movss	xmm0, DWORD PTR __real@00000000
	movss	DWORD PTR _boompos$28[ebp+4], xmm0

; 1448 : 								boompos.z = 0.0F;

	movss	xmm0, DWORD PTR __real@00000000
	movss	DWORD PTR _boompos$28[ebp+8], xmm0

; 1449 : 							}
; 1450 : 							else // no model data available at this time, so fake it.

	jmp	SHORT $LN14@FollowThir
$LN15@FollowThir:

; 1451 : 							{
; 1452 : 								boompos.x = IL78HACKX - DrogueExt;	 // guessimate

	mov	ecx, DWORD PTR _this$[ebp]
	movss	xmm0, DWORD PTR __real@41c80000
	subss	xmm0, DWORD PTR [ecx+992]
	movss	DWORD PTR _boompos$28[ebp], xmm0

; 1453 : 								boompos.y = 0.0F;

	movss	xmm0, DWORD PTR __real@00000000
	movss	DWORD PTR _boompos$28[ebp+4], xmm0

; 1454 : 								boompos.z = 0.0F;

	movss	xmm0, DWORD PTR __real@00000000
	movss	DWORD PTR _boompos$28[ebp+8], xmm0
$LN14@FollowThir:

; 1455 : 							}
; 1456 : 						}
; 1457 : 						else // use refueling position data

	jmp	SHORT $LN13@FollowThir
$LN16@FollowThir:

; 1458 : 						{
; 1459 : 							boompos.x = -boompos.x + DrogueRFPos.x;

	movss	xmm0, DWORD PTR _boompos$28[ebp]
	xorps	xmm0, DWORD PTR __xmm@80000000800000008000000080000000
	mov	edx, DWORD PTR _this$[ebp]
	addss	xmm0, DWORD PTR [edx+996]
	movss	DWORD PTR _boompos$28[ebp], xmm0

; 1460 : 							boompos.y = -boompos.y + DrogueRFPos.y;

	movss	xmm0, DWORD PTR _boompos$28[ebp+4]
	xorps	xmm0, DWORD PTR __xmm@80000000800000008000000080000000
	mov	eax, DWORD PTR _this$[ebp]
	addss	xmm0, DWORD PTR [eax+1000]
	movss	DWORD PTR _boompos$28[ebp+4], xmm0

; 1461 : 							boompos.z = -boompos.z + DrogueRFPos.z;

	movss	xmm0, DWORD PTR _boompos$28[ebp+8]
	xorps	xmm0, DWORD PTR __xmm@80000000800000008000000080000000
	mov	ecx, DWORD PTR _this$[ebp]
	addss	xmm0, DWORD PTR [ecx+1004]
	movss	DWORD PTR _boompos$28[ebp+8], xmm0
$LN13@FollowThir:

; 1462 : 						}
; 1463 : 					}
; 1464 : 				}
; 1465 : 
; 1466 : 				relPos.x -= boompos.x; // relPos.x += 39.63939795321F;

	movss	xmm0, DWORD PTR _relPos$27[ebp]
	subss	xmm0, DWORD PTR _boompos$28[ebp]
	movss	DWORD PTR _relPos$27[ebp], xmm0

; 1467 : 				relPos.z -= boompos.z; // relPos.z -= 25.2530815923F;

	movss	xmm0, DWORD PTR _relPos$27[ebp+8]
	subss	xmm0, DWORD PTR _boompos$28[ebp+8]
	movss	DWORD PTR _relPos$27[ebp+8], xmm0

; 1468 : 
; 1469 : 				// pos rx is towards the front of the tanker
; 1470 : 				// pos ry is to the right of the tanker
; 1471 : 				// pos rz is to the bottom of the tanker
; 1472 : 				if(fabs(relPos.x) > fabs(relPos.y) && fabs(relPos.x) > fabs(relPos.z))

	push	ecx
	movss	xmm0, DWORD PTR _relPos$27[ebp]
	movss	DWORD PTR [esp], xmm0
	call	?fabs@@YAMM@Z				; fabs
	add	esp, 4
	fstp	DWORD PTR tv1812[ebp]
	movss	xmm0, DWORD PTR tv1812[ebp]
	push	ecx
	movss	xmm1, DWORD PTR _relPos$27[ebp+4]
	movss	DWORD PTR [esp], xmm1
	movss	DWORD PTR tv1915[ebp], xmm0
	call	?fabs@@YAMM@Z				; fabs
	add	esp, 4
	fstp	DWORD PTR tv1818[ebp]
	movss	xmm0, DWORD PTR tv1915[ebp]
	comiss	xmm0, DWORD PTR tv1818[ebp]
	jbe	$LN12@FollowThir
	push	ecx
	movss	xmm0, DWORD PTR _relPos$27[ebp]
	movss	DWORD PTR [esp], xmm0
	call	?fabs@@YAMM@Z				; fabs
	add	esp, 4
	fstp	DWORD PTR tv1824[ebp]
	movss	xmm0, DWORD PTR tv1824[ebp]
	push	ecx
	movss	xmm1, DWORD PTR _relPos$27[ebp+8]
	movss	DWORD PTR [esp], xmm1
	movss	DWORD PTR tv1917[ebp], xmm0
	call	?fabs@@YAMM@Z				; fabs
	add	esp, 4
	fstp	DWORD PTR tv1830[ebp]
	movss	xmm0, DWORD PTR tv1917[ebp]
	comiss	xmm0, DWORD PTR tv1830[ebp]
	jbe	SHORT $LN12@FollowThir

; 1473 : 				{
; 1474 : 					if(relPos.x < 0.0f)

	movss	xmm0, DWORD PTR __real@00000000
	comiss	xmm0, DWORD PTR _relPos$27[ebp]
	jbe	SHORT $LN11@FollowThir

; 1475 : 						tankMsg->dataBlock.data1 = MOVE_FORWARD; 

	mov	edx, DWORD PTR _tankMsg$[ebp]
	movss	xmm0, DWORD PTR __real@00000000
	movss	DWORD PTR [edx+60], xmm0

; 1476 : 					else

	jmp	SHORT $LN10@FollowThir
$LN11@FollowThir:

; 1477 : 						tankMsg->dataBlock.data1 = MOVE_BACK; 

	mov	eax, DWORD PTR _tankMsg$[ebp]
	movss	xmm0, DWORD PTR __real@3f800000
	movss	DWORD PTR [eax+60], xmm0
$LN10@FollowThir:
	jmp	$LN3@FollowThir
$LN12@FollowThir:

; 1478 : 				}
; 1479 : 				else if(fabs(relPos.z) > fabs(relPos.y))

	push	ecx
	movss	xmm0, DWORD PTR _relPos$27[ebp+8]
	movss	DWORD PTR [esp], xmm0
	call	?fabs@@YAMM@Z				; fabs
	add	esp, 4
	fstp	DWORD PTR tv1841[ebp]
	movss	xmm0, DWORD PTR tv1841[ebp]
	push	ecx
	movss	xmm1, DWORD PTR _relPos$27[ebp+4]
	movss	DWORD PTR [esp], xmm1
	movss	DWORD PTR tv1919[ebp], xmm0
	call	?fabs@@YAMM@Z				; fabs
	add	esp, 4
	fstp	DWORD PTR tv1847[ebp]
	movss	xmm0, DWORD PTR tv1919[ebp]
	comiss	xmm0, DWORD PTR tv1847[ebp]
	jbe	SHORT $LN8@FollowThir

; 1480 : 				{
; 1481 : 					if(relPos.z < 0.0f)

	movss	xmm0, DWORD PTR __real@00000000
	comiss	xmm0, DWORD PTR _relPos$27[ebp+8]
	jbe	SHORT $LN7@FollowThir

; 1482 : 						tankMsg->dataBlock.data1 = MOVE_DOWN;

	mov	ecx, DWORD PTR _tankMsg$[ebp]
	movss	xmm0, DWORD PTR __real@40400000
	movss	DWORD PTR [ecx+60], xmm0

; 1483 : 					else

	jmp	SHORT $LN6@FollowThir
$LN7@FollowThir:

; 1484 : 						tankMsg->dataBlock.data1 = MOVE_UP;

	mov	edx, DWORD PTR _tankMsg$[ebp]
	movss	xmm0, DWORD PTR __real@40000000
	movss	DWORD PTR [edx+60], xmm0
$LN6@FollowThir:

; 1485 : 				}
; 1486 : 				else

	jmp	SHORT $LN3@FollowThir
$LN8@FollowThir:

; 1487 : 				{
; 1488 : 					if(relPos.y > 0.0f)

	movss	xmm0, DWORD PTR _relPos$27[ebp+4]
	comiss	xmm0, DWORD PTR __real@00000000
	jbe	SHORT $LN4@FollowThir

; 1489 : 						tankMsg->dataBlock.data1 = MOVE_LEFT; 

	mov	eax, DWORD PTR _tankMsg$[ebp]
	movss	xmm0, DWORD PTR __real@40a00000
	movss	DWORD PTR [eax+60], xmm0

; 1490 : 					else

	jmp	SHORT $LN3@FollowThir
$LN4@FollowThir:

; 1491 : 						tankMsg->dataBlock.data1 = MOVE_RIGHT;

	mov	ecx, DWORD PTR _tankMsg$[ebp]
	movss	xmm0, DWORD PTR __real@40800000
	movss	DWORD PTR [ecx+60], xmm0
$LN3@FollowThir:

; 1492 : 				}
; 1493 : 				
; 1494 : 				tankMsg->dataBlock.data2 = 0;

	mov	edx, DWORD PTR _tankMsg$[ebp]
	movss	xmm0, DWORD PTR __real@00000000
	movss	DWORD PTR [edx+64], xmm0

; 1495 : 				FalconSendMessage (tankMsg);

	push	0
	mov	eax, DWORD PTR _tankMsg$[ebp]
	push	eax
	call	?FalconSendMessage@@YAXPAVVuMessage@@H@Z ; FalconSendMessage
	add	esp, 8
$LN24@FollowThir:

; 1496 : 			}
; 1497 : 		}
; 1498 : 		
; 1499 : 		// Too Eratic?
; 1500 : 		if ( !(flags & ClearingPlane) && (flags & GivingGas) && (SimLibElapsedTime - lastStabalize) > 15000 &&
; 1501 : 			fabs (tankingPtr->localData->azFromdot) > 10.0F * DTR && fabs (tankingPtr->localData->elFromdot) > 10.0F * DTR)

	mov	ecx, DWORD PTR _this$[ebp]
	mov	edx, DWORD PTR [ecx+1200]
	and	edx, 64					; 00000040H
	jne	$LN2@FollowThir
	mov	eax, DWORD PTR _this$[ebp]
	mov	ecx, DWORD PTR [eax+1200]
	and	ecx, 4
	je	$LN2@FollowThir
	mov	edx, DWORD PTR _this$[ebp]
	mov	eax, DWORD PTR ?SimLibElapsedTime@@3KA	; SimLibElapsedTime
	sub	eax, DWORD PTR [edx+1212]
	cmp	eax, 15000				; 00003a98H
	jbe	$LN2@FollowThir
	mov	ecx, DWORD PTR _this$[ebp]
	mov	edx, DWORD PTR [ecx+1208]
	mov	eax, DWORD PTR [edx+12]
	push	ecx
	movss	xmm0, DWORD PTR [eax+24]
	movss	DWORD PTR [esp], xmm0
	call	?fabs@@YAMM@Z				; fabs
	add	esp, 4
	fstp	DWORD PTR tv1873[ebp]
	movss	xmm0, DWORD PTR tv1873[ebp]
	comiss	xmm0, DWORD PTR __real@3e32b8c1
	jbe	$LN2@FollowThir
	mov	ecx, DWORD PTR _this$[ebp]
	mov	edx, DWORD PTR [ecx+1208]
	mov	eax, DWORD PTR [edx+12]
	push	ecx
	movss	xmm0, DWORD PTR [eax+36]
	movss	DWORD PTR [esp], xmm0
	call	?fabs@@YAMM@Z				; fabs
	add	esp, 4
	fstp	DWORD PTR tv1880[ebp]
	movss	xmm0, DWORD PTR tv1880[ebp]
	comiss	xmm0, DWORD PTR __real@3e32b8c1
	jbe	$LN2@FollowThir

; 1502 : 		{
; 1503 : 			lastStabalize = SimLibElapsedTime;

	mov	ecx, DWORD PTR _this$[ebp]
	mov	edx, DWORD PTR ?SimLibElapsedTime@@3KA	; SimLibElapsedTime
	mov	DWORD PTR [ecx+1212], edx

; 1504 : 			// Call stablize command
; 1505 : 			tankMsg = new FalconTankerMessage ( self->Id(), FalconLocalGame);

	push	68					; 00000044H
	call	??2@YAPAXI@Z				; operator new
	add	esp, 4
	mov	DWORD PTR $T21[ebp], eax
	mov	DWORD PTR __$EHRec$[ebp+8], 5
	cmp	DWORD PTR $T21[ebp], 0
	je	SHORT $LN92@FollowThir
	mov	ecx, OFFSET ?vuLocalSessionEntity@@3V?$VuBin@VVuSessionEntity@@@@A ; vuLocalSessionEntity
	call	??B?$VuBin@VVuSessionEntity@@@@QBE_NXZ	; VuBin<VuSessionEntity>::operator bool
	movzx	eax, al
	test	eax, eax
	je	SHORT $LN90@FollowThir
	mov	ecx, OFFSET ?vuLocalSessionEntity@@3V?$VuBin@VVuSessionEntity@@@@A ; vuLocalSessionEntity
	call	?get@?$VuBin@VVuSessionEntity@@@@QBEPAVVuSessionEntity@@XZ ; VuBin<VuSessionEntity>::get
	mov	ecx, eax
	call	?GetGame@FalconSessionEntity@@QAEPAVFalconGameEntity@@XZ ; FalconSessionEntity::GetGame
	mov	DWORD PTR tv1141[ebp], eax
	jmp	SHORT $LN91@FollowThir
$LN90@FollowThir:
	mov	DWORD PTR tv1141[ebp], 0
$LN91@FollowThir:
	push	1
	mov	ecx, DWORD PTR tv1141[ebp]
	push	ecx
	lea	edx, DWORD PTR $T10[ebp]
	push	edx
	mov	eax, DWORD PTR _this$[ebp]
	mov	ecx, DWORD PTR [eax+56]
	call	?Id@VuEntity@@QBE?AVVU_ID@@XZ		; VuEntity::Id
	mov	ecx, DWORD PTR [eax+4]
	push	ecx
	mov	edx, DWORD PTR [eax]
	push	edx
	mov	ecx, DWORD PTR $T21[ebp]
	call	??0FalconTankerMessage@@QAE@VVU_ID@@PAVVuTargetEntity@@E@Z ; FalconTankerMessage::FalconTankerMessage
	mov	DWORD PTR tv1157[ebp], eax
	jmp	SHORT $LN93@FollowThir
$LN92@FollowThir:
	mov	DWORD PTR tv1157[ebp], 0
$LN93@FollowThir:
	mov	eax, DWORD PTR tv1157[ebp]
	mov	DWORD PTR $T16[ebp], eax
	mov	DWORD PTR __$EHRec$[ebp+8], -1
	mov	ecx, DWORD PTR $T16[ebp]
	mov	DWORD PTR _tankMsg$[ebp], ecx

; 1506 : 			tankMsg->dataBlock.caller = curThirsty->Id();

	lea	edx, DWORD PTR $T8[ebp]
	push	edx
	mov	eax, DWORD PTR _this$[ebp]
	mov	ecx, DWORD PTR [eax+980]
	call	?Id@VuEntity@@QBE?AVVU_ID@@XZ		; VuEntity::Id
	mov	ecx, DWORD PTR [eax]
	mov	edx, DWORD PTR [eax+4]
	mov	eax, DWORD PTR _tankMsg$[ebp]
	mov	DWORD PTR [eax+48], ecx
	mov	DWORD PTR [eax+52], edx

; 1507 : 			tankMsg->dataBlock.type = FalconTankerMessage::Stabalize;

	mov	ecx, DWORD PTR _tankMsg$[ebp]
	mov	DWORD PTR [ecx+56], 7

; 1508 : 			tankMsg->dataBlock.data1 = tankMsg->dataBlock.data2 = 0;

	mov	edx, DWORD PTR _tankMsg$[ebp]
	movss	xmm0, DWORD PTR __real@00000000
	movss	DWORD PTR [edx+64], xmm0
	mov	eax, DWORD PTR _tankMsg$[ebp]
	movss	xmm0, DWORD PTR __real@00000000
	movss	DWORD PTR [eax+60], xmm0

; 1509 : 			FalconSendMessage (tankMsg);

	push	0
	mov	ecx, DWORD PTR _tankMsg$[ebp]
	push	ecx
	call	?FalconSendMessage@@YAXPAVVuMessage@@H@Z ; FalconSendMessage
	add	esp, 8
$LN2@FollowThir:

; 1510 : 		}
; 1511 : 	}
; 1512 : 	else

	jmp	SHORT $LN1@FollowThir
$LN61@FollowThir:

; 1513 : 	{
; 1514 : 		DoneRefueling();

	mov	ecx, DWORD PTR _this$[ebp]
	call	?DoneRefueling@TankerBrain@@QAEXXZ	; TankerBrain::DoneRefueling
$LN1@FollowThir:

; 1515 : 	}
; 1516 : 
; 1517 : 	// Stick it
; 1518 : 	DriveBoom();

	mov	ecx, DWORD PTR _this$[ebp]
	call	?DriveBoom@TankerBrain@@AAEXXZ		; TankerBrain::DriveBoom

; 1519 : }

	mov	ecx, DWORD PTR __$EHRec$[ebp]
	mov	DWORD PTR fs:0, ecx
	pop	ecx
	pop	esi
	mov	ecx, DWORD PTR __$ArrayPad$[ebp]
	xor	ecx, ebp
	call	@__security_check_cookie@4
	mov	esp, ebp
	pop	ebp
	ret	0
_TEXT	ENDS
text$x	SEGMENT
__unwindfunclet$?FollowThirsty@TankerBrain@@AAEXXZ$0:
	mov	eax, DWORD PTR $T20[ebp]
	push	eax
	call	??3@YAXPAX@Z				; operator delete
	pop	ecx
	ret	0
__unwindfunclet$?FollowThirsty@TankerBrain@@AAEXXZ$1:
	mov	eax, DWORD PTR $T24[ebp]
	push	eax
	call	??3@YAXPAX@Z				; operator delete
	pop	ecx
	ret	0
__unwindfunclet$?FollowThirsty@TankerBrain@@AAEXXZ$2:
	mov	eax, DWORD PTR $T19[ebp]
	push	eax
	call	??3@YAXPAX@Z				; operator delete
	pop	ecx
	ret	0
__unwindfunclet$?FollowThirsty@TankerBrain@@AAEXXZ$3:
	mov	eax, DWORD PTR $T22[ebp]
	push	eax
	call	??3@YAXPAX@Z				; operator delete
	pop	ecx
	ret	0
__unwindfunclet$?FollowThirsty@TankerBrain@@AAEXXZ$4:
	mov	eax, DWORD PTR $T23[ebp]
	push	eax
	call	??3@YAXPAX@Z				; operator delete
	pop	ecx
	ret	0
__unwindfunclet$?FollowThirsty@TankerBrain@@AAEXXZ$5:
	mov	eax, DWORD PTR $T21[ebp]
	push	eax
	call	??3@YAXPAX@Z				; operator delete
	pop	ecx
	ret	0
__ehhandler$?FollowThirsty@TankerBrain@@AAEXXZ:
	mov	edx, DWORD PTR [esp+8]
	lea	eax, DWORD PTR [edx+12]
	mov	ecx, DWORD PTR [edx-384]
	xor	ecx, eax
	call	@__security_check_cookie@4
	mov	ecx, DWORD PTR [edx-4]
	xor	ecx, eax
	call	@__security_check_cookie@4
	mov	eax, OFFSET __ehfuncinfo$?FollowThirsty@TankerBrain@@AAEXXZ
	jmp	___CxxFrameHandler3
text$x	ENDS
?FollowThirsty@TankerBrain@@AAEXXZ ENDP			; TankerBrain::FollowThirsty
; Function compile flags: /Odtp
; File c:\users\zhitao li\documents\visual studio 2012\projects\freefalcon\sim\digi\tankbrn.cpp
_TEXT	SEGMENT
_dx$ = -40						; size = 4
_dy$ = -36						; size = 4
tv169 = -32						; size = 4
tv159 = -28						; size = 4
tv153 = -24						; size = 4
tv167 = -20						; size = 4
tv147 = -16						; size = 4
tv141 = -12						; size = 4
_dist$ = -8						; size = 4
_this$ = -4						; size = 4
_newHeading$ = 8					; size = 4
?TurnTo@TankerBrain@@AAEXM@Z PROC			; TankerBrain::TurnTo
; _this$ = ecx

; 1172 : {

	push	ebp
	mov	ebp, esp
	sub	esp, 40					; 00000028H
	mov	DWORD PTR _this$[ebp], ecx

; 1173 : 	// M.N. 2001-11-28
; 1174 : 	float dist, dx, dy;	
; 1175 : 
; 1176 : 	// Set up new trackpoint
; 1177 : 	dist = 200.0F * NM_TO_FT;

	movss	xmm0, DWORD PTR __real@49945852
	movss	DWORD PTR _dist$[ebp], xmm0

; 1178 : 
; 1179 : 	dx = self->XPos() + dist * sin (newHeading);

	mov	eax, DWORD PTR _this$[ebp]
	mov	ecx, DWORD PTR [eax+56]
	call	?XPos@VuEntity@@QBEMXZ			; VuEntity::XPos
	fstp	DWORD PTR tv141[ebp]
	movss	xmm0, DWORD PTR tv141[ebp]
	push	ecx
	movss	xmm1, DWORD PTR _newHeading$[ebp]
	movss	DWORD PTR [esp], xmm1
	movss	DWORD PTR tv167[ebp], xmm0
	call	?sin@@YAMM@Z				; sin
	add	esp, 4
	fstp	DWORD PTR tv147[ebp]
	movss	xmm0, DWORD PTR tv147[ebp]
	mulss	xmm0, DWORD PTR _dist$[ebp]
	movss	xmm1, DWORD PTR tv167[ebp]
	addss	xmm1, xmm0
	movss	DWORD PTR _dx$[ebp], xmm1

; 1180 : 	dy = self->YPos() + dist * cos (newHeading);

	mov	ecx, DWORD PTR _this$[ebp]
	mov	ecx, DWORD PTR [ecx+56]
	call	?YPos@VuEntity@@QBEMXZ			; VuEntity::YPos
	fstp	DWORD PTR tv153[ebp]
	movss	xmm0, DWORD PTR tv153[ebp]
	push	ecx
	movss	xmm1, DWORD PTR _newHeading$[ebp]
	movss	DWORD PTR [esp], xmm1
	movss	DWORD PTR tv169[ebp], xmm0
	call	?cos@@YAMM@Z				; cos
	add	esp, 4
	fstp	DWORD PTR tv159[ebp]
	movss	xmm0, DWORD PTR tv159[ebp]
	mulss	xmm0, DWORD PTR _dist$[ebp]
	movss	xmm1, DWORD PTR tv169[ebp]
	addss	xmm1, xmm0
	movss	DWORD PTR _dy$[ebp], xmm1

; 1181 : 
; 1182 : 	SetTrackPoint(dx, dy);

	push	ecx
	movss	xmm0, DWORD PTR _dy$[ebp]
	movss	DWORD PTR [esp], xmm0
	push	ecx
	movss	xmm0, DWORD PTR _dx$[ebp]
	movss	DWORD PTR [esp], xmm0
	mov	ecx, DWORD PTR _this$[ebp]
	call	?SetTrackPoint@DigitalBrain@@QAEXMM@Z	; DigitalBrain::SetTrackPoint

; 1183 : }

	mov	esp, ebp
	pop	ebp
	ret	4
?TurnTo@TankerBrain@@AAEXM@Z ENDP			; TankerBrain::TurnTo
_TEXT	ENDS
; Function compile flags: /Odtp
; File c:\users\zhitao li\documents\visual studio 2012\projects\freefalcon\sim\digi\tankbrn.cpp
_TEXT	SEGMENT
$T2 = -52						; size = 8
$T3 = -44						; size = 8
$T4 = -36						; size = 4
tv135 = -32						; size = 4
$T5 = -28						; size = 4
tv87 = -24						; size = 4
_this$ = -20						; size = 4
_tankMsg$ = -16						; size = 4
__$EHRec$ = -12						; size = 12
?BreakAway@TankerBrain@@AAEXXZ PROC			; TankerBrain::BreakAway
; _this$ = ecx

; 1158 : {

	push	ebp
	mov	ebp, esp
	push	-1
	push	__ehhandler$?BreakAway@TankerBrain@@AAEXXZ
	mov	eax, DWORD PTR fs:0
	push	eax
	sub	esp, 40					; 00000028H
	mov	eax, DWORD PTR ___security_cookie
	xor	eax, ebp
	push	eax
	lea	eax, DWORD PTR __$EHRec$[ebp]
	mov	DWORD PTR fs:0, eax
	mov	DWORD PTR _this$[ebp], ecx

; 1159 : 	FalconTankerMessage* tankMsg;
; 1160 : 	
; 1161 : 	tankMsg = new FalconTankerMessage (self->Id(), FalconLocalGame);

	push	68					; 00000044H
	call	??2@YAPAXI@Z				; operator new
	add	esp, 4
	mov	DWORD PTR $T5[ebp], eax
	mov	DWORD PTR __$EHRec$[ebp+8], 0
	cmp	DWORD PTR $T5[ebp], 0
	je	SHORT $LN5@BreakAway
	mov	ecx, OFFSET ?vuLocalSessionEntity@@3V?$VuBin@VVuSessionEntity@@@@A ; vuLocalSessionEntity
	call	??B?$VuBin@VVuSessionEntity@@@@QBE_NXZ	; VuBin<VuSessionEntity>::operator bool
	movzx	eax, al
	test	eax, eax
	je	SHORT $LN3@BreakAway
	mov	ecx, OFFSET ?vuLocalSessionEntity@@3V?$VuBin@VVuSessionEntity@@@@A ; vuLocalSessionEntity
	call	?get@?$VuBin@VVuSessionEntity@@@@QBEPAVVuSessionEntity@@XZ ; VuBin<VuSessionEntity>::get
	mov	ecx, eax
	call	?GetGame@FalconSessionEntity@@QAEPAVFalconGameEntity@@XZ ; FalconSessionEntity::GetGame
	mov	DWORD PTR tv87[ebp], eax
	jmp	SHORT $LN4@BreakAway
$LN3@BreakAway:
	mov	DWORD PTR tv87[ebp], 0
$LN4@BreakAway:
	push	1
	mov	ecx, DWORD PTR tv87[ebp]
	push	ecx
	lea	edx, DWORD PTR $T3[ebp]
	push	edx
	mov	eax, DWORD PTR _this$[ebp]
	mov	ecx, DWORD PTR [eax+56]
	call	?Id@VuEntity@@QBE?AVVU_ID@@XZ		; VuEntity::Id
	mov	ecx, DWORD PTR [eax+4]
	push	ecx
	mov	edx, DWORD PTR [eax]
	push	edx
	mov	ecx, DWORD PTR $T5[ebp]
	call	??0FalconTankerMessage@@QAE@VVU_ID@@PAVVuTargetEntity@@E@Z ; FalconTankerMessage::FalconTankerMessage
	mov	DWORD PTR tv135[ebp], eax
	jmp	SHORT $LN6@BreakAway
$LN5@BreakAway:
	mov	DWORD PTR tv135[ebp], 0
$LN6@BreakAway:
	mov	eax, DWORD PTR tv135[ebp]
	mov	DWORD PTR $T4[ebp], eax
	mov	DWORD PTR __$EHRec$[ebp+8], -1
	mov	ecx, DWORD PTR $T4[ebp]
	mov	DWORD PTR _tankMsg$[ebp], ecx

; 1162 : 	tankMsg->dataBlock.caller = curThirsty->Id();

	lea	edx, DWORD PTR $T2[ebp]
	push	edx
	mov	eax, DWORD PTR _this$[ebp]
	mov	ecx, DWORD PTR [eax+980]
	call	?Id@VuEntity@@QBE?AVVU_ID@@XZ		; VuEntity::Id
	mov	ecx, DWORD PTR [eax]
	mov	edx, DWORD PTR [eax+4]
	mov	eax, DWORD PTR _tankMsg$[ebp]
	mov	DWORD PTR [eax+48], ecx
	mov	DWORD PTR [eax+52], edx

; 1163 : 	tankMsg->dataBlock.type = FalconTankerMessage::Breakaway;

	mov	ecx, DWORD PTR _tankMsg$[ebp]
	mov	DWORD PTR [ecx+56], 4

; 1164 : 	tankMsg->dataBlock.data1 = tankMsg->dataBlock.data2 = 0;

	mov	edx, DWORD PTR _tankMsg$[ebp]
	movss	xmm0, DWORD PTR __real@00000000
	movss	DWORD PTR [edx+64], xmm0
	mov	eax, DWORD PTR _tankMsg$[ebp]
	movss	xmm0, DWORD PTR __real@00000000
	movss	DWORD PTR [eax+60], xmm0

; 1165 : 	FalconSendMessage (tankMsg);

	push	0
	mov	ecx, DWORD PTR _tankMsg$[ebp]
	push	ecx
	call	?FalconSendMessage@@YAXPAVVuMessage@@H@Z ; FalconSendMessage
	add	esp, 8

; 1166 : 	turnallow = false;

	mov	edx, DWORD PTR _this$[ebp]
	mov	DWORD PTR [edx+1220], 0

; 1167 : 	HeadsUp = true;

	mov	eax, DWORD PTR _this$[ebp]
	mov	DWORD PTR [eax+1228], 1

; 1168 : 	reachedFirstTrackpoint = false;	

	mov	ecx, DWORD PTR _this$[ebp]
	mov	BYTE PTR [ecx+1289], 0

; 1169 : }

	mov	ecx, DWORD PTR __$EHRec$[ebp]
	mov	DWORD PTR fs:0, ecx
	pop	ecx
	mov	esp, ebp
	pop	ebp
	ret	0
_TEXT	ENDS
text$x	SEGMENT
__unwindfunclet$?BreakAway@TankerBrain@@AAEXXZ$0:
	mov	eax, DWORD PTR $T5[ebp]
	push	eax
	call	??3@YAXPAX@Z				; operator delete
	pop	ecx
	ret	0
__ehhandler$?BreakAway@TankerBrain@@AAEXXZ:
	mov	edx, DWORD PTR [esp+8]
	lea	eax, DWORD PTR [edx+12]
	mov	ecx, DWORD PTR [edx-44]
	xor	ecx, eax
	call	@__security_check_cookie@4
	mov	eax, OFFSET __ehfuncinfo$?BreakAway@TankerBrain@@AAEXXZ
	jmp	___CxxFrameHandler3
text$x	ENDS
?BreakAway@TankerBrain@@AAEXXZ ENDP			; TankerBrain::BreakAway
; Function compile flags: /Odtp
; File c:\users\zhitao li\documents\visual studio 2012\projects\freefalcon\sim\digi\tankbrn.cpp
_TEXT	SEGMENT
_this$ = -36						; size = 4
_lightVal$ = -32					; size = 4
_boompos$1 = -28					; size = 12
_relPos$2 = -16						; size = 12
__$ArrayPad$ = -4					; size = 4
?DriveLights@TankerBrain@@AAEXXZ PROC			; TankerBrain::DriveLights
; _this$ = ecx

; 964  : {

	push	ebp
	mov	ebp, esp
	sub	esp, 36					; 00000024H
	mov	eax, DWORD PTR ___security_cookie
	xor	eax, ebp
	mov	DWORD PTR __$ArrayPad$[ebp], eax
	mov	DWORD PTR _this$[ebp], ecx

; 965  : 	
; 966  : 	int lightVal;
; 967  : 	
; 968  : 	// possible CTD fix
; 969  : 	if (!self->drawPointer)

	mov	eax, DWORD PTR _this$[ebp]
	mov	ecx, DWORD PTR [eax+56]
	cmp	DWORD PTR [ecx+332], 0
	jne	SHORT $LN40@DriveLight

; 970  : 		return;

	jmp	$LN41@DriveLight
$LN40@DriveLight:

; 971  : 
; 972  : 	if (tankingPtr)

	mov	edx, DWORD PTR _this$[ebp]
	cmp	DWORD PTR [edx+1208], 0
	je	$LN39@DriveLight

; 973  : 	{
; 974  : 		//float elOff = -tankingPtr->localData->el * RTD;
; 975  : 		//float rangeOff = tankingPtr->localData->range - 33.5F;
; 976  : 
; 977  : 		// Up/Down light
; 978  : 		// Turn on the Labels
; 979  : 		lightVal = (1 << 6) + 1;

	mov	DWORD PTR _lightVal$[ebp], 65		; 00000041H

; 980  : 		
; 981  : 		Tpoint relPos;
; 982  : 		ReceptorRelPosition(&relPos, curThirsty);

	mov	eax, DWORD PTR _this$[ebp]
	mov	ecx, DWORD PTR [eax+980]
	push	ecx
	lea	edx, DWORD PTR _relPos$2[ebp]
	push	edx
	mov	ecx, DWORD PTR _this$[ebp]
	call	?ReceptorRelPosition@TankerBrain@@QAEXPAUTpoint@@PAVSimVehicleClass@@@Z ; TankerBrain::ReceptorRelPosition

; 983  : 
; 984  : // 2002-03-06 MN calculate relative position based on aircrafts refuel position
; 985  : 		Tpoint boompos;
; 986  : 		boompos.x = boompos.z = 0;

	movss	xmm0, DWORD PTR __real@00000000
	movss	DWORD PTR _boompos$1[ebp+8], xmm0
	movss	xmm0, DWORD PTR _boompos$1[ebp+8]
	movss	DWORD PTR _boompos$1[ebp], xmm0

; 987  : 
; 988  :     if (curThirsty && curThirsty->IsAirplane() && ((AircraftClass*)curThirsty)->af) 

	mov	eax, DWORD PTR _this$[ebp]
	cmp	DWORD PTR [eax+980], 0
	je	$LN34@DriveLight
	mov	ecx, DWORD PTR _this$[ebp]
	mov	edx, DWORD PTR [ecx+980]
	mov	eax, DWORD PTR _this$[ebp]
	mov	edx, DWORD PTR [edx]
	mov	ecx, DWORD PTR [eax+980]
	mov	eax, DWORD PTR [edx+192]
	call	eax
	test	eax, eax
	je	$LN34@DriveLight
	mov	ecx, DWORD PTR _this$[ebp]
	mov	edx, DWORD PTR [ecx+980]
	cmp	DWORD PTR [edx+932], 0
	je	$LN34@DriveLight

; 989  : 		{
; 990  : 			((AircraftClass*)curThirsty)->af->GetRefuelPosition(&boompos);

	lea	eax, DWORD PTR _boompos$1[ebp]
	push	eax
	mov	ecx, DWORD PTR _this$[ebp]
	mov	edx, DWORD PTR [ecx+980]
	mov	ecx, DWORD PTR [edx+932]
	call	?GetRefuelPosition@AirframeClass@@QAEXPAUTpoint@@@Z ; AirframeClass::GetRefuelPosition

; 991  : 			// 15NOV03 - FRB - Adjust F-16 rf boom position to match current a/c rf port location
; 992  : 	  // if nothing set, use F-16 default
; 993  : 				if (boompos.x == 0 && boompos.y ==0 && boompos.z == 0) 

	movss	xmm0, DWORD PTR _boompos$1[ebp]
	ucomiss	xmm0, DWORD PTR __real@00000000
	lahf
	test	ah, 68					; 00000044H
	jp	SHORT $LN37@DriveLight
	movss	xmm0, DWORD PTR _boompos$1[ebp+4]
	ucomiss	xmm0, DWORD PTR __real@00000000
	lahf
	test	ah, 68					; 00000044H
	jp	SHORT $LN37@DriveLight
	movss	xmm0, DWORD PTR _boompos$1[ebp+8]
	ucomiss	xmm0, DWORD PTR __real@00000000
	lahf
	test	ah, 68					; 00000044H
	jp	SHORT $LN37@DriveLight

; 994  : 				{
; 995  : 					boompos.x = STDPOSX;

	movss	xmm0, DWORD PTR __real@c21e8ebe
	movss	DWORD PTR _boompos$1[ebp], xmm0

; 996  : 					boompos.y = 0.0f;

	movss	xmm0, DWORD PTR __real@00000000
	movss	DWORD PTR _boompos$1[ebp+4], xmm0

; 997  : 					boompos.z = STDPOSZ;

	movss	xmm0, DWORD PTR __real@41ca0650
	movss	DWORD PTR _boompos$1[ebp+8], xmm0

; 998  : 				}
; 999  : 				else

	jmp	SHORT $LN34@DriveLight
$LN37@DriveLight:

; 1000 : 				{
; 1001 : 					boompos.x = -boompos.x + STDPOSX;

	movss	xmm0, DWORD PTR _boompos$1[ebp]
	xorps	xmm0, DWORD PTR __xmm@80000000800000008000000080000000
	addss	xmm0, DWORD PTR __real@c21e8ebe
	movss	DWORD PTR _boompos$1[ebp], xmm0

; 1002 : 					boompos.y = -boompos.y;

	movss	xmm0, DWORD PTR _boompos$1[ebp+4]
	xorps	xmm0, DWORD PTR __xmm@80000000800000008000000080000000
	movss	DWORD PTR _boompos$1[ebp+4], xmm0

; 1003 : 					if (boompos.z)

	movss	xmm0, DWORD PTR _boompos$1[ebp+8]
	ucomiss	xmm0, DWORD PTR __real@00000000
	lahf
	test	ah, 68					; 00000044H
	jnp	SHORT $LN35@DriveLight

; 1004 : 						boompos.z = -(boompos.z + 3.0F) + STDPOSZ;

	movss	xmm0, DWORD PTR _boompos$1[ebp+8]
	addss	xmm0, DWORD PTR __real@40400000
	xorps	xmm0, DWORD PTR __xmm@80000000800000008000000080000000
	addss	xmm0, DWORD PTR __real@41ca0650
	movss	DWORD PTR _boompos$1[ebp+8], xmm0

; 1005 : 					else

	jmp	SHORT $LN34@DriveLight
$LN35@DriveLight:

; 1006 : 						boompos.z = STDPOSZ;

	movss	xmm0, DWORD PTR __real@41ca0650
	movss	DWORD PTR _boompos$1[ebp+8], xmm0
$LN34@DriveLight:

; 1007 : 				}
; 1008 : 		}
; 1009 : 
; 1010 : 		relPos.x -= boompos.x; // relPos.x += 39.63939795321F;

	movss	xmm0, DWORD PTR _relPos$2[ebp]
	subss	xmm0, DWORD PTR _boompos$1[ebp]
	movss	DWORD PTR _relPos$2[ebp], xmm0

; 1011 : 		relPos.z -= boompos.z; // relPos.z -= 25.2530815923F;

	movss	xmm0, DWORD PTR _relPos$2[ebp+8]
	subss	xmm0, DWORD PTR _boompos$1[ebp+8]
	movss	DWORD PTR _relPos$2[ebp+8], xmm0

; 1012 : #if 0
; 1013 : 		// Set the right arrow
; 1014 : 		if (relPos.z < -25.0F)
; 1015 : 			lightVal += (1 << 5);
; 1016 : 		else if (relPos.z < -15.0F)
; 1017 : 			lightVal += (3 << 4);
; 1018 : 		else if (relPos.z < -8.0F)
; 1019 : 			lightVal += (1 << 4);
; 1020 : 		else if (relPos.z < -2.5F)
; 1021 : 			lightVal += (3 << 3);
; 1022 : 		else if (relPos.z < 2.5F)
; 1023 : 			lightVal += (1 << 3);
; 1024 : 		else if (relPos.z < 8.0F)
; 1025 : 			lightVal += (3 << 2);
; 1026 : 		else if (relPos.z < 15.0F)
; 1027 : 			lightVal += (1 << 2);
; 1028 : 		else if (relPos.z < 25.0F)
; 1029 : 			lightVal += (3 << 1);
; 1030 : 		else 
; 1031 : 			lightVal += (1 << 1);
; 1032 : #else										// M.N. Turn around lights as IRL does it work this way ??
; 1033 : 		if (relPos.z < -25.0F)

	movss	xmm0, DWORD PTR __real@c1c80000
	comiss	xmm0, DWORD PTR _relPos$2[ebp+8]
	jbe	SHORT $LN33@DriveLight

; 1034 : 			lightVal += (3 << 1);

	mov	eax, DWORD PTR _lightVal$[ebp]
	add	eax, 6
	mov	DWORD PTR _lightVal$[ebp], eax
	jmp	$LN18@DriveLight
$LN33@DriveLight:

; 1035 : 		else if (relPos.z < -15.0F)

	movss	xmm0, DWORD PTR __real@c1700000
	comiss	xmm0, DWORD PTR _relPos$2[ebp+8]
	jbe	SHORT $LN31@DriveLight

; 1036 : 			lightVal += (1 << 2);

	mov	ecx, DWORD PTR _lightVal$[ebp]
	add	ecx, 4
	mov	DWORD PTR _lightVal$[ebp], ecx
	jmp	$LN18@DriveLight
$LN31@DriveLight:

; 1037 : 		else if (relPos.z < -8.0F)

	movss	xmm0, DWORD PTR __real@c1000000
	comiss	xmm0, DWORD PTR _relPos$2[ebp+8]
	jbe	SHORT $LN29@DriveLight

; 1038 : 			lightVal += (3 << 2);

	mov	edx, DWORD PTR _lightVal$[ebp]
	add	edx, 12					; 0000000cH
	mov	DWORD PTR _lightVal$[ebp], edx
	jmp	$LN18@DriveLight
$LN29@DriveLight:

; 1039 : 		else if (relPos.z < -2.5F)

	movss	xmm0, DWORD PTR __real@c0200000
	comiss	xmm0, DWORD PTR _relPos$2[ebp+8]
	jbe	SHORT $LN27@DriveLight

; 1040 : 			lightVal += (1 << 3);

	mov	eax, DWORD PTR _lightVal$[ebp]
	add	eax, 8
	mov	DWORD PTR _lightVal$[ebp], eax
	jmp	SHORT $LN18@DriveLight
$LN27@DriveLight:

; 1041 : 		else if (relPos.z < 2.5F)

	movss	xmm0, DWORD PTR __real@40200000
	comiss	xmm0, DWORD PTR _relPos$2[ebp+8]
	jbe	SHORT $LN25@DriveLight

; 1042 : 			lightVal += (3 << 3);

	mov	ecx, DWORD PTR _lightVal$[ebp]
	add	ecx, 24					; 00000018H
	mov	DWORD PTR _lightVal$[ebp], ecx
	jmp	SHORT $LN18@DriveLight
$LN25@DriveLight:

; 1043 : 		else if (relPos.z < 8.0F)

	movss	xmm0, DWORD PTR __real@41000000
	comiss	xmm0, DWORD PTR _relPos$2[ebp+8]
	jbe	SHORT $LN23@DriveLight

; 1044 : 			lightVal += (1 << 4);		

	mov	edx, DWORD PTR _lightVal$[ebp]
	add	edx, 16					; 00000010H
	mov	DWORD PTR _lightVal$[ebp], edx
	jmp	SHORT $LN18@DriveLight
$LN23@DriveLight:

; 1045 : 		else if (relPos.z < 15.0F)

	movss	xmm0, DWORD PTR __real@41700000
	comiss	xmm0, DWORD PTR _relPos$2[ebp+8]
	jbe	SHORT $LN21@DriveLight

; 1046 : 			lightVal += (3 << 4);

	mov	eax, DWORD PTR _lightVal$[ebp]
	add	eax, 48					; 00000030H
	mov	DWORD PTR _lightVal$[ebp], eax
	jmp	SHORT $LN18@DriveLight
$LN21@DriveLight:

; 1047 : 		else if (relPos.z < 25.0F)

	movss	xmm0, DWORD PTR __real@41c80000
	comiss	xmm0, DWORD PTR _relPos$2[ebp+8]
	jbe	SHORT $LN19@DriveLight

; 1048 : 			lightVal += (1 << 5);

	mov	ecx, DWORD PTR _lightVal$[ebp]
	add	ecx, 32					; 00000020H
	mov	DWORD PTR _lightVal$[ebp], ecx

; 1049 : 		else 

	jmp	SHORT $LN18@DriveLight
$LN19@DriveLight:

; 1050 : 			lightVal += (1 << 1);

	mov	edx, DWORD PTR _lightVal$[ebp]
	add	edx, 2
	mov	DWORD PTR _lightVal$[ebp], edx
$LN18@DriveLight:

; 1051 : #endif
; 1052 : 
; 1053 : 		/*
; 1054 : 		if(tankingPtr->localData->az > 0.0F)
; 1055 : 		{
; 1056 : 			// Set the right arrow
; 1057 : 			if (elOff < 26.1F)
; 1058 : 				lightVal += (0x1 << 5);
; 1059 : 			else if (elOff < 27.2F)
; 1060 : 				lightVal += (0x11 << 4);
; 1061 : 			else if (elOff < 28.4F)
; 1062 : 				lightVal += (0x1 << 4);
; 1063 : 			else if (elOff < 29.5F)
; 1064 : 				lightVal += (0x11 << 3);
; 1065 : 			else if (elOff < 35.5F)
; 1066 : 				lightVal += (0x1 << 3);
; 1067 : 			else if (elOff < 36.6F)
; 1068 : 				lightVal += (0x11 << 2);
; 1069 : 			else if (elOff < 37.8F)
; 1070 : 				lightVal += (0x1 << 2);
; 1071 : 			else if (elOff < 38.9F)
; 1072 : 				lightVal += (0x11 << 1);
; 1073 : 			else 
; 1074 : 				lightVal += (0x1 << 1);
; 1075 : 		}
; 1076 : 		else
; 1077 : 		{
; 1078 : 			lightVal += (0x1 << 1);
; 1079 : 		}*/
; 1080 : 		
; 1081 : 		((DrawableBSP*)self->drawPointer)->SetSwitchMask(0, lightVal);

	mov	eax, DWORD PTR _lightVal$[ebp]
	push	eax
	push	0
	mov	ecx, DWORD PTR _this$[ebp]
	mov	edx, DWORD PTR [ecx+56]
	mov	ecx, DWORD PTR [edx+332]
	call	?SetSwitchMask@DrawableBSP@@QAEXHK@Z	; DrawableBSP::SetSwitchMask

; 1082 : 		
; 1083 : 		// Fore/Aft light
; 1084 : 		// Turn on the Labels
; 1085 : 		lightVal = (1 << 6) + 1;

	mov	DWORD PTR _lightVal$[ebp], 65		; 00000041H

; 1086 : #if 0
; 1087 : 		// Set the right arrow
; 1088 : 		if (relPos.x < -25.0F)
; 1089 : 			lightVal += (1 << 5);
; 1090 : 		else if (relPos.x < -15.0F)
; 1091 : 			lightVal += (3 << 4);
; 1092 : 		else if (relPos.x < -8.0F)
; 1093 : 			lightVal += (1 << 4);
; 1094 : 		else if (relPos.x < -2.5F)
; 1095 : 			lightVal += (3 << 3);
; 1096 : 		else if (relPos.x < 2.5F)
; 1097 : 			lightVal += (1 << 3);
; 1098 : 		else if (relPos.x < 8.0F)
; 1099 : 			lightVal += (3 << 2);
; 1100 : 		else if (relPos.x < 15.0F)
; 1101 : 			lightVal += (1 << 2);
; 1102 : 		else if (relPos.x < 25.0F)
; 1103 : 			lightVal += (3 << 1);
; 1104 : 		else 
; 1105 : 			lightVal += (1 << 1);
; 1106 : #else 
; 1107 : 				// Set the right arrow
; 1108 : 		if (relPos.x < -25.0F)

	movss	xmm0, DWORD PTR __real@c1c80000
	comiss	xmm0, DWORD PTR _relPos$2[ebp]
	jbe	SHORT $LN17@DriveLight

; 1109 : 			lightVal += (3 << 1);

	mov	eax, DWORD PTR _lightVal$[ebp]
	add	eax, 6
	mov	DWORD PTR _lightVal$[ebp], eax
	jmp	$LN2@DriveLight
$LN17@DriveLight:

; 1110 : 		else if (relPos.x < -15.0F)

	movss	xmm0, DWORD PTR __real@c1700000
	comiss	xmm0, DWORD PTR _relPos$2[ebp]
	jbe	SHORT $LN15@DriveLight

; 1111 : 			lightVal += (1 << 2);

	mov	ecx, DWORD PTR _lightVal$[ebp]
	add	ecx, 4
	mov	DWORD PTR _lightVal$[ebp], ecx
	jmp	$LN2@DriveLight
$LN15@DriveLight:

; 1112 : 		else if (relPos.x < -8.0F)

	movss	xmm0, DWORD PTR __real@c1000000
	comiss	xmm0, DWORD PTR _relPos$2[ebp]
	jbe	SHORT $LN13@DriveLight

; 1113 : 			lightVal += (3 << 2);

	mov	edx, DWORD PTR _lightVal$[ebp]
	add	edx, 12					; 0000000cH
	mov	DWORD PTR _lightVal$[ebp], edx
	jmp	$LN2@DriveLight
$LN13@DriveLight:

; 1114 : 		else if (relPos.x < -2.5F)

	movss	xmm0, DWORD PTR __real@c0200000
	comiss	xmm0, DWORD PTR _relPos$2[ebp]
	jbe	SHORT $LN11@DriveLight

; 1115 : 			lightVal += (1 << 3);

	mov	eax, DWORD PTR _lightVal$[ebp]
	add	eax, 8
	mov	DWORD PTR _lightVal$[ebp], eax
	jmp	SHORT $LN2@DriveLight
$LN11@DriveLight:

; 1116 : 		else if (relPos.x < 2.5F)

	movss	xmm0, DWORD PTR __real@40200000
	comiss	xmm0, DWORD PTR _relPos$2[ebp]
	jbe	SHORT $LN9@DriveLight

; 1117 : 			lightVal += (3 << 3);

	mov	ecx, DWORD PTR _lightVal$[ebp]
	add	ecx, 24					; 00000018H
	mov	DWORD PTR _lightVal$[ebp], ecx
	jmp	SHORT $LN2@DriveLight
$LN9@DriveLight:

; 1118 : 		else if (relPos.x < 8.0F)

	movss	xmm0, DWORD PTR __real@41000000
	comiss	xmm0, DWORD PTR _relPos$2[ebp]
	jbe	SHORT $LN7@DriveLight

; 1119 : 			lightVal += (1 << 4);

	mov	edx, DWORD PTR _lightVal$[ebp]
	add	edx, 16					; 00000010H
	mov	DWORD PTR _lightVal$[ebp], edx
	jmp	SHORT $LN2@DriveLight
$LN7@DriveLight:

; 1120 : 		else if (relPos.x < 15.0F)

	movss	xmm0, DWORD PTR __real@41700000
	comiss	xmm0, DWORD PTR _relPos$2[ebp]
	jbe	SHORT $LN5@DriveLight

; 1121 : 			lightVal += (3 << 4);

	mov	eax, DWORD PTR _lightVal$[ebp]
	add	eax, 48					; 00000030H
	mov	DWORD PTR _lightVal$[ebp], eax
	jmp	SHORT $LN2@DriveLight
$LN5@DriveLight:

; 1122 : 		else if (relPos.x < 25.0F)

	movss	xmm0, DWORD PTR __real@41c80000
	comiss	xmm0, DWORD PTR _relPos$2[ebp]
	jbe	SHORT $LN3@DriveLight

; 1123 : 			lightVal += (1 << 5);

	mov	ecx, DWORD PTR _lightVal$[ebp]
	add	ecx, 32					; 00000020H
	mov	DWORD PTR _lightVal$[ebp], ecx

; 1124 : 		else 

	jmp	SHORT $LN2@DriveLight
$LN3@DriveLight:

; 1125 : 			lightVal += (1 << 1);

	mov	edx, DWORD PTR _lightVal$[ebp]
	add	edx, 2
	mov	DWORD PTR _lightVal$[ebp], edx
$LN2@DriveLight:

; 1126 : #endif
; 1127 : 		/*
; 1128 : 		// Set the right arrow
; 1129 : 		if (rangeOff > 18.5F)
; 1130 : 			lightVal += (0x1 << 5);
; 1131 : 		else if (rangeOff > 17.25F)
; 1132 : 			lightVal += (0x11 << 4);
; 1133 : 		else if (rangeOff > 16.0F)
; 1134 : 			lightVal += (0x1 << 4);
; 1135 : 		else if (rangeOff > 14.75F)
; 1136 : 			lightVal += (0x11 << 3);
; 1137 : 		else if (rangeOff > 12.25F)
; 1138 : 			lightVal += (0x1 << 3);
; 1139 : 		else if (rangeOff > 11.0F)
; 1140 : 			lightVal += (0x11 << 2);
; 1141 : 		else if (rangeOff > 9.75F)
; 1142 : 			lightVal += (0x1 << 2);
; 1143 : 		else if (rangeOff > 8.55F)
; 1144 : 			lightVal += (0x11 << 1);
; 1145 : 		else 
; 1146 : 			lightVal += (0x1 << 1);*/
; 1147 : 		
; 1148 : 		((DrawableBSP*)self->drawPointer)->SetSwitchMask(1, lightVal);

	mov	eax, DWORD PTR _lightVal$[ebp]
	push	eax
	push	1
	mov	ecx, DWORD PTR _this$[ebp]
	mov	edx, DWORD PTR [ecx+56]
	mov	ecx, DWORD PTR [edx+332]
	call	?SetSwitchMask@DrawableBSP@@QAEXHK@Z	; DrawableBSP::SetSwitchMask

; 1149 : 	}
; 1150 : 	else

	jmp	SHORT $LN1@DriveLight
$LN39@DriveLight:

; 1151 : 	{
; 1152 : 		((DrawableBSP*)self->drawPointer)->SetSwitchMask(0, 0);

	push	0
	push	0
	mov	eax, DWORD PTR _this$[ebp]
	mov	ecx, DWORD PTR [eax+56]
	mov	ecx, DWORD PTR [ecx+332]
	call	?SetSwitchMask@DrawableBSP@@QAEXHK@Z	; DrawableBSP::SetSwitchMask

; 1153 : 		((DrawableBSP*)self->drawPointer)->SetSwitchMask(1, 0);

	push	0
	push	1
	mov	edx, DWORD PTR _this$[ebp]
	mov	eax, DWORD PTR [edx+56]
	mov	ecx, DWORD PTR [eax+332]
	call	?SetSwitchMask@DrawableBSP@@QAEXHK@Z	; DrawableBSP::SetSwitchMask
$LN1@DriveLight:
$LN41@DriveLight:

; 1154 : 	}
; 1155 : }

	mov	ecx, DWORD PTR __$ArrayPad$[ebp]
	xor	ecx, ebp
	call	@__security_check_cookie@4
	mov	esp, ebp
	pop	ebp
	ret	0
?DriveLights@TankerBrain@@AAEXXZ ENDP			; TankerBrain::DriveLights
_TEXT	ENDS
; Function compile flags: /Odtp
; File c:\users\zhitao li\documents\visual studio 2012\projects\freefalcon\sim\digi\tankbrn.cpp
_TEXT	SEGMENT
$T2 = -560						; size = 8
$T3 = -552						; size = 8
$T4 = -544						; size = 8
$T5 = -536						; size = 8
$T6 = -528						; size = 8
$T7 = -520						; size = 8
$T8 = -512						; size = 8
$T9 = -504						; size = 8
$T10 = -496						; size = 8
$T11 = -488						; size = 8
$T12 = -480						; size = 8
$T13 = -472						; size = 8
_myit$14 = -464						; size = 12
_myit$15 = -452						; size = 12
tv2199 = -440						; size = 4
tv2744 = -436						; size = 4
tv2309 = -432						; size = 4
tv2210 = -428						; size = 4
tv2189 = -424						; size = 4
tv2765 = -420						; size = 4
tv2644 = -416						; size = 4
tv2987 = -412						; size = 4
tv2635 = -408						; size = 4
$T16 = -404						; size = 4
tv2627 = -400						; size = 4
tv2784 = -396						; size = 4
_rad$ = -392						; size = 4
tv2754 = -388						; size = 4
$T17 = -384						; size = 4
tv2652 = -380						; size = 4
tv2356 = -376						; size = 4
tv2230 = -372						; size = 4
tv2331 = -368						; size = 4
tv2985 = -364						; size = 4
$T18 = -360						; size = 4
tv2494 = -356						; size = 4
$T19 = -352						; size = 4
tv2473 = -348						; size = 4
tv2891 = -344						; size = 4
$T20 = -340						; size = 4
tv2878 = -336						; size = 4
tv2342 = -332						; size = 4
tv2867 = -328						; size = 4
tv2320 = -324						; size = 4
tv2857 = -320						; size = 4
tv2299 = -316						; size = 4
tv2846 = -312						; size = 4
tv2252 = -308						; size = 4
tv2837 = -304						; size = 4
$T21 = -300						; size = 4
tv2241 = -296						; size = 4
tv579 = -292						; size = 4
tv1234 = -288						; size = 4
tv244 = -284						; size = 4
$T22 = -280						; size = 4
tv240 = -276						; size = 4
tv862 = -272						; size = 4
tv1838 = -268						; size = 4
tv1272 = -264						; size = 4
$T23 = -260						; size = 4
tv1191 = -256						; size = 4
tv1822 = -252						; size = 4
tv846 = -248						; size = 4
tv1734 = -244						; size = 4
tv595 = -240						; size = 4
$T24 = -236						; size = 4
tv1271 = -232						; size = 4
tv1718 = -228						; size = 4
tv1192 = -224						; size = 4
tv1579 = -220						; size = 4
tv1174 = -216						; size = 4
$T25 = -212						; size = 4
$T26 = -208						; size = 4
tv1531 = -204						; size = 4
tv220 = -200						; size = 4
tv1312 = -196						; size = 4
tv742 = -192						; size = 4
tv1311 = -188						; size = 4
$T27 = -184						; size = 4
tv1294 = -180						; size = 4
tv758 = -176						; size = 4
_range$28 = -172					; size = 4
_totalrange$29 = -168					; size = 4
_tmpRefuelMode$30 = -164				; size = 4
_tankMsg$31 = -160					; size = 4
_tankMsg$32 = -156					; size = 4
_tmpRefuelMode$ = -152					; size = 4
_entity$33 = -148					; size = 4
_entity$34 = -144					; size = 4
_tmpRange$ = -140					; size = 4
_ScaledRM$ = -136					; size = 4
_tempEl$ = -132						; size = 4
_tmpAz$ = -128						; size = 4
_ScaledRM$35 = -124					; size = 4
_tankMsg$ = -120					; size = 4
_this$ = -116						; size = 4
_label$36 = -112					; size = 31
_label$37 = -80						; size = 31
_label$38 = -48						; size = 31
__$ArrayPad$ = -16					; size = 4
__$EHRec$ = -12						; size = 12
?DriveBoom@TankerBrain@@AAEXXZ PROC			; TankerBrain::DriveBoom
; _this$ = ecx

; 528  : {

	push	ebp
	mov	ebp, esp
	push	-1
	push	__ehhandler$?DriveBoom@TankerBrain@@AAEXXZ
	mov	eax, DWORD PTR fs:0
	push	eax
	sub	esp, 548				; 00000224H
	mov	eax, DWORD PTR ___security_cookie
	xor	eax, ebp
	mov	DWORD PTR __$ArrayPad$[ebp], eax
	push	esi
	push	eax
	lea	eax, DWORD PTR __$EHRec$[ebp]
	mov	DWORD PTR fs:0, eax
	mov	DWORD PTR _this$[ebp], ecx

; 529  : 	float tmpAz, tmpRange, tempEl, rad;
; 530  : 	
; 531  : 	FalconTankerMessage *tankMsg;
; 532  : 
; 533  : 	// 29NOV03 - FRB
; 534  : 	// Type of refueling required by this aircraft?
; 535  : 	if (curThirsty && numBooms >= 1 && numDrogues >= 1)	// Tanker has both services?

	mov	eax, DWORD PTR _this$[ebp]
	cmp	DWORD PTR [eax+980], 0
	je	SHORT $LN82@DriveBoom
	mov	ecx, DWORD PTR _this$[ebp]
	cmp	DWORD PTR [ecx+984], 1
	jl	SHORT $LN82@DriveBoom
	mov	edx, DWORD PTR _this$[ebp]
	cmp	DWORD PTR [edx+988], 1
	jl	SHORT $LN82@DriveBoom

; 536  : 		if (((AircraftClass*)curThirsty)->af) 

	mov	eax, DWORD PTR _this$[ebp]
	mov	ecx, DWORD PTR [eax+980]
	cmp	DWORD PTR [ecx+932], 0
	je	SHORT $LN82@DriveBoom

; 537  : 			if (((AircraftClass*)curThirsty)->af->GetnDrogues() >= 1.0f)

	mov	edx, DWORD PTR _this$[ebp]
	mov	eax, DWORD PTR [edx+980]
	mov	ecx, DWORD PTR [eax+932]
	call	?GetnDrogues@AirframeClass@@QAEHXZ	; AirframeClass::GetnDrogues
	cvtsi2ss xmm0, eax
	comiss	xmm0, DWORD PTR __real@3f800000
	jb	SHORT $LN83@DriveBoom

; 538  : 				ServiceType = DROGUE_SERVICE;

	mov	ecx, DWORD PTR _this$[ebp]
	mov	DWORD PTR [ecx+1196], 10		; 0000000aH

; 539  : 			else

	jmp	SHORT $LN82@DriveBoom
$LN83@DriveBoom:

; 540  : 				ServiceType = BOOM_SERVICE;

	mov	edx, DWORD PTR _this$[ebp]
	mov	DWORD PTR [edx+1196], 20		; 00000014H
$LN82@DriveBoom:

; 541  : 	// end FRB
; 542  : 
; 543  : 	if(ServiceType == DROGUE_SERVICE)

	mov	eax, DWORD PTR _this$[ebp]
	cmp	DWORD PTR [eax+1196], 10		; 0000000aH
	jne	$LN81@DriveBoom

; 544  : 	{
; 545  : 	    int range = 0;

	mov	DWORD PTR _range$28[ebp], 0

; 546  :     if (tankingPtr && tankingPtr->localData->range < 1500) // FRB - Changed 800' to 1500' to give more time to extend the drogue

	mov	ecx, DWORD PTR _this$[ebp]
	cmp	DWORD PTR [ecx+1208], 0
	je	SHORT $LN79@DriveBoom
	mov	edx, DWORD PTR _this$[ebp]
	mov	eax, DWORD PTR [edx+1208]
	mov	ecx, DWORD PTR [eax+12]
	movss	xmm0, DWORD PTR __real@44bb8000
	comiss	xmm0, DWORD PTR [ecx+44]
	jbe	SHORT $LN79@DriveBoom

; 547  : 		{
; 548  : 			range = static_cast<int>(-DrogueExt);

	mov	edx, DWORD PTR _this$[ebp]
	movss	xmm0, DWORD PTR [edx+992]
	xorps	xmm0, DWORD PTR __xmm@80000000800000008000000080000000
	cvttss2si eax, xmm0
	mov	DWORD PTR _range$28[ebp], eax

; 549  : 			// 07DEC03 - FRB - Turn on drogue lights
; 550  : 			if (boom[DROGUE].drawPointer)

	mov	ecx, DWORD PTR _this$[ebp]
	mov	edx, DWORD PTR [ecx+1020]
	imul	edx, 28					; 0000001cH
	mov	eax, DWORD PTR _this$[ebp]
	cmp	DWORD PTR [eax+edx+1060], 0
	je	SHORT $LN79@DriveBoom

; 551  : 				boom[DROGUE].drawPointer->SetSwitchMask(0, 1);

	push	1
	push	0
	mov	ecx, DWORD PTR _this$[ebp]
	mov	edx, DWORD PTR [ecx+1020]
	imul	edx, 28					; 0000001cH
	mov	eax, DWORD PTR _this$[ebp]
	mov	ecx, DWORD PTR [eax+edx+1060]
	call	?SetSwitchMask@DrawableBSP@@QAEXHK@Z	; DrawableBSP::SetSwitchMask
$LN79@DriveBoom:

; 552  : 		}
; 553  : 
; 554  : //	    for (int i = 0; i < numDrogues; i++) { // only extend active one
; 555  : //    int i = DROGUE;
; 556  : 		if (boom[DROGUE].drawPointer) 

	mov	ecx, DWORD PTR _this$[ebp]
	mov	edx, DWORD PTR [ecx+1020]
	imul	edx, 28					; 0000001cH
	mov	eax, DWORD PTR _this$[ebp]
	cmp	DWORD PTR [eax+edx+1060], 0
	je	$LN78@DriveBoom

; 557  : 		{
; 558  : 		  if (boom[DROGUE].ext > range) 

	mov	ecx, DWORD PTR _this$[ebp]
	mov	edx, DWORD PTR [ecx+1020]
	imul	edx, 28					; 0000001cH
	cvtsi2ss xmm0, DWORD PTR _range$28[ebp]
	mov	eax, DWORD PTR _this$[ebp]
	movss	xmm1, DWORD PTR [eax+edx+1072]
	comiss	xmm1, xmm0
	jbe	SHORT $LN77@DriveBoom

; 559  : 			{
; 560  : 				boom[DROGUE].ext -= 5.0F * SimLibLastMajorFrameTime;

	mov	ecx, DWORD PTR _this$[ebp]
	mov	edx, DWORD PTR [ecx+1020]
	imul	edx, 28					; 0000001cH
	movss	xmm0, DWORD PTR __real@40a00000
	mulss	xmm0, DWORD PTR ?SimLibLastMajorFrameTime@@3MA
	mov	eax, DWORD PTR _this$[ebp]
	movss	xmm1, DWORD PTR [eax+edx+1072]
	subss	xmm1, xmm0
	mov	ecx, DWORD PTR _this$[ebp]
	mov	edx, DWORD PTR [ecx+1020]
	imul	edx, 28					; 0000001cH
	mov	eax, DWORD PTR _this$[ebp]
	movss	DWORD PTR [eax+edx+1072], xmm1
	jmp	SHORT $LN75@DriveBoom
$LN77@DriveBoom:

; 561  : 		  }
; 562  : 		  else if (boom[DROGUE].ext < range) 

	mov	ecx, DWORD PTR _this$[ebp]
	mov	edx, DWORD PTR [ecx+1020]
	imul	edx, 28					; 0000001cH
	cvtsi2ss xmm0, DWORD PTR _range$28[ebp]
	mov	eax, DWORD PTR _this$[ebp]
	comiss	xmm0, DWORD PTR [eax+edx+1072]
	jbe	SHORT $LN75@DriveBoom

; 563  : 			{
; 564  : 				boom[DROGUE].ext += 5.0F * SimLibLastMajorFrameTime;

	mov	ecx, DWORD PTR _this$[ebp]
	mov	edx, DWORD PTR [ecx+1020]
	imul	edx, 28					; 0000001cH
	movss	xmm0, DWORD PTR __real@40a00000
	mulss	xmm0, DWORD PTR ?SimLibLastMajorFrameTime@@3MA
	mov	eax, DWORD PTR _this$[ebp]
	addss	xmm0, DWORD PTR [eax+edx+1072]
	mov	ecx, DWORD PTR _this$[ebp]
	mov	edx, DWORD PTR [ecx+1020]
	imul	edx, 28					; 0000001cH
	mov	eax, DWORD PTR _this$[ebp]
	movss	DWORD PTR [eax+edx+1072], xmm0
$LN75@DriveBoom:

; 565  : 		  }
; 566  : 		  boom[DROGUE].ext = max ( min (boom[DROGUE].ext, 1.0F), -DrogueExt);	 // 23NOV03 - FRB - changed 40 to DrogueExt

	mov	ecx, DWORD PTR _this$[ebp]
	mov	edx, DWORD PTR [ecx+1020]
	imul	edx, 28					; 0000001cH
	mov	eax, DWORD PTR _this$[ebp]
	movss	xmm0, DWORD PTR __real@3f800000
	comiss	xmm0, DWORD PTR [eax+edx+1072]
	jbe	SHORT $LN88@DriveBoom
	mov	ecx, DWORD PTR _this$[ebp]
	mov	edx, DWORD PTR [ecx+1020]
	imul	edx, 28					; 0000001cH
	mov	eax, DWORD PTR _this$[ebp]
	movss	xmm0, DWORD PTR [eax+edx+1072]
	movss	DWORD PTR tv220[ebp], xmm0
	jmp	SHORT $LN89@DriveBoom
$LN88@DriveBoom:
	movss	xmm0, DWORD PTR __real@3f800000
	movss	DWORD PTR tv220[ebp], xmm0
$LN89@DriveBoom:
	mov	ecx, DWORD PTR _this$[ebp]
	movss	xmm0, DWORD PTR [ecx+992]
	xorps	xmm0, DWORD PTR __xmm@80000000800000008000000080000000
	movss	xmm1, DWORD PTR tv220[ebp]
	comiss	xmm1, xmm0
	jbe	SHORT $LN92@DriveBoom
	mov	edx, DWORD PTR _this$[ebp]
	mov	eax, DWORD PTR [edx+1020]
	imul	eax, 28					; 0000001cH
	mov	ecx, DWORD PTR _this$[ebp]
	movss	xmm0, DWORD PTR __real@3f800000
	comiss	xmm0, DWORD PTR [ecx+eax+1072]
	jbe	SHORT $LN90@DriveBoom
	mov	edx, DWORD PTR _this$[ebp]
	mov	eax, DWORD PTR [edx+1020]
	imul	eax, 28					; 0000001cH
	mov	ecx, DWORD PTR _this$[ebp]
	movss	xmm0, DWORD PTR [ecx+eax+1072]
	movss	DWORD PTR tv240[ebp], xmm0
	jmp	SHORT $LN91@DriveBoom
$LN90@DriveBoom:
	movss	xmm0, DWORD PTR __real@3f800000
	movss	DWORD PTR tv240[ebp], xmm0
$LN91@DriveBoom:
	movss	xmm0, DWORD PTR tv240[ebp]
	movss	DWORD PTR tv244[ebp], xmm0
	jmp	SHORT $LN93@DriveBoom
$LN92@DriveBoom:
	mov	edx, DWORD PTR _this$[ebp]
	movss	xmm0, DWORD PTR [edx+992]
	xorps	xmm0, DWORD PTR __xmm@80000000800000008000000080000000
	movss	DWORD PTR tv244[ebp], xmm0
$LN93@DriveBoom:
	mov	eax, DWORD PTR _this$[ebp]
	mov	ecx, DWORD PTR [eax+1020]
	imul	ecx, 28					; 0000001cH
	mov	edx, DWORD PTR _this$[ebp]
	movss	xmm0, DWORD PTR tv244[ebp]
	movss	DWORD PTR [edx+ecx+1072], xmm0

; 567  : 		  boom[DROGUE].drawPointer->SetDOFangle(0, fabs(boom[DROGUE].ext/-DrogueExt));	// 04DEC03 - FRB - drogue extension uses Translation DOFs(TDOF)

	mov	eax, DWORD PTR _this$[ebp]
	mov	ecx, DWORD PTR [eax+1020]
	imul	ecx, 28					; 0000001cH
	mov	edx, DWORD PTR _this$[ebp]
	movss	xmm0, DWORD PTR [edx+992]
	xorps	xmm0, DWORD PTR __xmm@80000000800000008000000080000000
	mov	eax, DWORD PTR _this$[ebp]
	movss	xmm1, DWORD PTR [eax+ecx+1072]
	divss	xmm1, xmm0
	push	ecx
	movss	DWORD PTR [esp], xmm1
	call	?fabs@@YAMM@Z				; fabs
	fstp	DWORD PTR [esp]
	push	0
	mov	ecx, DWORD PTR _this$[ebp]
	mov	edx, DWORD PTR [ecx+1020]
	imul	edx, 28					; 0000001cH
	mov	eax, DWORD PTR _this$[ebp]
	mov	ecx, DWORD PTR [eax+edx+1060]
	call	?SetDOFangle@DrawableBSP@@QAEXHM@Z	; DrawableBSP::SetDOFangle
$LN78@DriveBoom:

; 568  : //		  boom[DROGUE].drawPointer->SetDOFoffset(0, boom[DROGUE].ext);
; 569  : 		}
; 570  : //	    }
; 571  : 	    tmpRange = boom[DROGUE].ext;

	mov	ecx, DWORD PTR _this$[ebp]
	mov	edx, DWORD PTR [ecx+1020]
	imul	edx, 28					; 0000001cH
	mov	eax, DWORD PTR _this$[ebp]
	movss	xmm0, DWORD PTR [eax+edx+1072]
	movss	DWORD PTR _tmpRange$[ebp], xmm0

; 572  : 
; 573  : 			// FRB - No azimuth or elevation control of drogue
; 574  : 			boom[DROGUE].az = 0.0f;

	mov	ecx, DWORD PTR _this$[ebp]
	mov	edx, DWORD PTR [ecx+1020]
	imul	edx, 28					; 0000001cH
	mov	eax, DWORD PTR _this$[ebp]
	movss	xmm0, DWORD PTR __real@00000000
	movss	DWORD PTR [eax+edx+1064], xmm0

; 575  : 			boom[DROGUE].el = 0.0f;

	mov	ecx, DWORD PTR _this$[ebp]
	mov	edx, DWORD PTR [ecx+1020]
	imul	edx, 28					; 0000001cH
	mov	eax, DWORD PTR _this$[ebp]
	movss	xmm0, DWORD PTR __real@00000000
	movss	DWORD PTR [eax+edx+1068], xmm0

; 576  : 
; 577  : 	    
; 578  : 	    tmpAz = 0;

	movss	xmm0, DWORD PTR __real@00000000
	movss	DWORD PTR _tmpAz$[ebp], xmm0

; 579  : 	    tempEl = 0;

	movss	xmm0, DWORD PTR __real@00000000
	movss	DWORD PTR _tempEl$[ebp], xmm0

; 580  : 
; 581  : 	    if (!(flags & GivingGas) && (!tankingPtr || tankingPtr->localData->range > 800.0F) || (flags & ClearingPlane))

	mov	ecx, DWORD PTR _this$[ebp]
	mov	edx, DWORD PTR [ecx+1200]
	and	edx, 4
	jne	SHORT $LN72@DriveBoom
	mov	eax, DWORD PTR _this$[ebp]
	cmp	DWORD PTR [eax+1208], 0
	je	SHORT $LN73@DriveBoom
	mov	ecx, DWORD PTR _this$[ebp]
	mov	edx, DWORD PTR [ecx+1208]
	mov	eax, DWORD PTR [edx+12]
	movss	xmm0, DWORD PTR [eax+44]
	comiss	xmm0, DWORD PTR __real@44480000
	ja	SHORT $LN73@DriveBoom
$LN72@DriveBoom:
	mov	ecx, DWORD PTR _this$[ebp]
	mov	edx, DWORD PTR [ecx+1200]
	and	edx, 64					; 00000040H
	je	SHORT $LN74@DriveBoom
$LN73@DriveBoom:

; 582  : 	    {
; 583  : 				tmpAz = 0.0F;

	movss	xmm0, DWORD PTR __real@00000000
	movss	DWORD PTR _tmpAz$[ebp], xmm0

; 584  : 				tempEl = 0;

	movss	xmm0, DWORD PTR __real@00000000
	movss	DWORD PTR _tempEl$[ebp], xmm0
	jmp	$LN68@DriveBoom
$LN74@DriveBoom:

; 585  : 	    }
; 586  : 	    else if (!(flags & GivingGas) && (!tankingPtr || tankingPtr->localData->range - DrogueExt > 30.0F))

	mov	eax, DWORD PTR _this$[ebp]
	mov	ecx, DWORD PTR [eax+1200]
	and	ecx, 4
	jne	SHORT $LN70@DriveBoom
	mov	edx, DWORD PTR _this$[ebp]
	cmp	DWORD PTR [edx+1208], 0
	je	SHORT $LN69@DriveBoom
	mov	eax, DWORD PTR _this$[ebp]
	mov	ecx, DWORD PTR [eax+1208]
	mov	edx, DWORD PTR [ecx+12]
	mov	eax, DWORD PTR _this$[ebp]
	movss	xmm0, DWORD PTR [edx+44]
	subss	xmm0, DWORD PTR [eax+992]
	comiss	xmm0, DWORD PTR __real@41f00000
	jbe	SHORT $LN70@DriveBoom
$LN69@DriveBoom:

; 587  : 	    {
; 588  : 				tmpAz = 0.0F;

	movss	xmm0, DWORD PTR __real@00000000
	movss	DWORD PTR _tmpAz$[ebp], xmm0

; 589  : 				tempEl = 0;

	movss	xmm0, DWORD PTR __real@00000000
	movss	DWORD PTR _tempEl$[ebp], xmm0

; 590  : 	    }
; 591  : 	    else

	jmp	SHORT $LN68@DriveBoom
$LN70@DriveBoom:

; 592  : 	    {
; 593  : 				tempEl = tankingPtr->localData->el;	

	mov	ecx, DWORD PTR _this$[ebp]
	mov	edx, DWORD PTR [ecx+1208]
	mov	eax, DWORD PTR [edx+12]
	movss	xmm0, DWORD PTR [eax+28]
	movss	DWORD PTR _tempEl$[ebp], xmm0

; 594  : 				tmpAz = tankingPtr->localData->az;

	mov	ecx, DWORD PTR _this$[ebp]
	mov	edx, DWORD PTR [ecx+1208]
	mov	eax, DWORD PTR [edx+12]
	movss	xmm0, DWORD PTR [eax+16]
	movss	DWORD PTR _tmpAz$[ebp], xmm0
$LN68@DriveBoom:

; 595  : 	    }
; 596  : 	    
; 597  : #if 0 // not done yet  // FRB - No azimuth or elevation control of drogue
; 598  : 	    if(boom[DROGUE].az - tmpAz > FOLLOW_RATE * SimLibLastMajorFrameTime)
; 599  : 				boom[DROGUE].az = boom[DROGUE].az - FOLLOW_RATE * SimLibLastMajorFrameTime;
; 600  : 	    else if(boom[DROGUE].az - tmpAz < -FOLLOW_RATE * SimLibLastMajorFrameTime)
; 601  : 				boom[DROGUE].az = boom[DROGUE].az + FOLLOW_RATE * SimLibLastMajorFrameTime;
; 602  : 	    else
; 603  : 				boom[DROGUE].az = tmpAz;
; 604  : 	    
; 605  : 	    if(boom[DROGUE].el - tempEl > FOLLOW_RATE * SimLibLastMajorFrameTime)
; 606  : 				boom[DROGUE].el = boom[DROGUE].el - FOLLOW_RATE * SimLibLastMajorFrameTime;
; 607  : 	    else if(boom[DROGUE].el - tempEl < -FOLLOW_RATE * SimLibLastMajorFrameTime)
; 608  : 				boom[DROGUE].el = boom[DROGUE].el + FOLLOW_RATE * SimLibLastMajorFrameTime;
; 609  : 	    else
; 610  : 				boom[DROGUE].el = tempEl;
; 611  : 
; 612  : 			// FRB - Max drogue hose extension is fixed	at -DrogueExt feet
; 613  : 	    if(boom[DROGUE].ext - tmpRange > 5.0F * SimLibLastMajorFrameTime)
; 614  : 				boom[DROGUE].ext = boom[DROGUE].ext - 5.0F * SimLibLastMajorFrameTime;
; 615  : 	    else if(boom[DROGUE].ext - tmpRange < -5.0F * SimLibLastMajorFrameTime)
; 616  : 				boom[DROGUE].ext = boom[DROGUE].ext + 5.0F * SimLibLastMajorFrameTime;
; 617  : 	    else
; 618  : 				boom[DROGUE].ext = tmpRange;	
; 619  : 	    tmpRange = boom[DROGUE].ext;
; 620  : //	    Tpoint minB, maxB;
; 621  : 	    if (curThirsty && curThirsty->drawPointer) 
; 622  : 			{
; 623  : //				((DrawableBSP*)curThirsty->drawPointer)->GetBoundingBox(&minB, &maxB);
; 624  : //				tmpRange -= maxB.x;
; 625  : 				float rad = ((DrawableBSP*)curThirsty->drawPointer)->Radius();	// Use Parent record radius since BoundingBox +X may be changed to decrease a/c hitbox
; 626  : //				tmpRange -= rad;
; 627  : 	    }
; 628  : 	    
; 629  : 	    boom[DROGUE].az = max ( min (boom[DROGUE].az,  4.0F * DTR), -4.0F * DTR);
; 630  : 	    boom[DROGUE].el = max ( min (boom[DROGUE].el, 10.0f * DTR), -10.0F * DTR);
; 631  : 			if (boom[DROGUE].drawPointer)
; 632  : 			{
; 633  : 				boom[DROGUE].drawPointer->SetDOFangle(1, -boom[DROGUE].az);
; 634  : 				boom[DROGUE].drawPointer->SetDOFangle(2, -boom[DROGUE].el);
; 635  : 			}
; 636  : #endif
; 637  : 
; 638  : 	    int tmpRefuelMode;
; 639  : 	    int ScaledRM = 1; // FRB

	mov	DWORD PTR _ScaledRM$35[ebp], 1

; 640  : 	    
; 641  : 	    // Is it the player here
; 642  : 	    if (curThirsty == SimDriver.GetPlayerEntity())

	mov	ecx, OFFSET ?SimDriver@@3VSimulationDriver@@A ; SimDriver
	call	?GetPlayerEntity@SimulationDriver@@QBEPAVSimMoverClass@@XZ ; SimulationDriver::GetPlayerEntity
	mov	ecx, DWORD PTR _this$[ebp]
	cmp	DWORD PTR [ecx+980], eax
	jne	SHORT $LN67@DriveBoom

; 643  : 				ScaledRM = tmpRefuelMode = PlayerOptions.GetRefuelingMode();

	mov	ecx, OFFSET ?PlayerOptions@@3VPlayerOptionsClass@@A ; PlayerOptions
	call	?GetRefuelingMode@PlayerOptionsClass@@QAEHXZ ; PlayerOptionsClass::GetRefuelingMode
	mov	DWORD PTR _tmpRefuelMode$30[ebp], eax
	mov	edx, DWORD PTR _tmpRefuelMode$30[ebp]
	mov	DWORD PTR _ScaledRM$35[ebp], edx

; 644  : 	    // Nope, use 'very' easy refuelling
; 645  : 	    else

	jmp	SHORT $LN66@DriveBoom
$LN67@DriveBoom:

; 646  : 			{
; 647  : 				tmpRefuelMode = 4;

	mov	DWORD PTR _tmpRefuelMode$30[ebp], 4

; 648  : 				ScaledRM = 2;//sfr: why float?? 2.0f;  // FRB - Decrease AI hookup tolerance factor

	mov	DWORD PTR _ScaledRM$35[ebp], 2
$LN66@DriveBoom:

; 649  : 			}
; 650  : 			if (tmpRefuelMode == 3){

	cmp	DWORD PTR _tmpRefuelMode$30[ebp], 3
	jne	SHORT $LN65@DriveBoom

; 651  : 				ScaledRM = 2;//sfr: again! 2.0f;  // FRB - Decrease Easy hookup tolerance factor

	mov	DWORD PTR _ScaledRM$35[ebp], 2
$LN65@DriveBoom:

; 652  : 			}
; 653  : 
; 654  : // 2002-03-08 MN HACK add in the drawpointer radius - this should fix DROGUE for each aircraft
; 655  : // Tested with SU-27, MiG-29, MiG-23, MiG-19, TU-16 and IL-28
; 656  : 		float totalrange = 999.9F;

	movss	xmm0, DWORD PTR __real@4479f99a
	movss	DWORD PTR _totalrange$29[ebp], xmm0

; 657  : // 2002-03-09 MN changed to use aircraft datafile value - safer for fixing IL78 for each aircraft
; 658  :  		if (curThirsty && tankingPtr && curThirsty)

	mov	eax, DWORD PTR _this$[ebp]
	cmp	DWORD PTR [eax+980], 0
	je	SHORT $LN64@DriveBoom
	mov	ecx, DWORD PTR _this$[ebp]
	cmp	DWORD PTR [ecx+1208], 0
	je	SHORT $LN64@DriveBoom
	mov	edx, DWORD PTR _this$[ebp]
	cmp	DWORD PTR [edx+980], 0
	je	SHORT $LN64@DriveBoom

; 659  : 		{
; 660  :  			totalrange = tankingPtr->localData->range + tmpRange;	// 23NOV03 - FRB

	mov	eax, DWORD PTR _this$[ebp]
	mov	ecx, DWORD PTR [eax+1208]
	mov	edx, DWORD PTR [ecx+12]
	movss	xmm0, DWORD PTR [edx+44]
	addss	xmm0, DWORD PTR _tmpRange$[ebp]
	movss	DWORD PTR _totalrange$29[ebp], xmm0
$LN64@DriveBoom:

; 661  : // 			totalrange = tankingPtr->localData->range;
; 662  : // 23NOV03 - FRB  			totalrange = tmpRange + ((AircraftClass*)curThirsty)->af->GetIL78Factor() + tankingPtr->localData->range;
; 663  : 		}
; 664  :  
; 665  :  		if (curThirsty && g_nShowDebugLabels & 0x4000)

	mov	eax, DWORD PTR _this$[ebp]
	cmp	DWORD PTR [eax+980], 0
	je	$LN63@DriveBoom
	mov	ecx, DWORD PTR ?g_nShowDebugLabels@@3HA	; g_nShowDebugLabels
	and	ecx, 16384				; 00004000H
	je	$LN63@DriveBoom

; 666  :  		{
; 667  :  			char label[31];
; 668  : // 			sprintf(label,"%5.1f %5.1f %5.1f",totalrange, tankingPtr->localData->range, boom[DROGUE].rx);
; 669  :  			sprintf(label,"%5.1f %5.1f %5.1f", (boom[DROGUE].ext/-DrogueExt), DrogueRFPos.x, boom[DROGUE].ext);

	mov	edx, DWORD PTR _this$[ebp]
	mov	eax, DWORD PTR [edx+1020]
	imul	eax, 28					; 0000001cH
	mov	ecx, DWORD PTR _this$[ebp]
	cvtss2sd xmm0, DWORD PTR [ecx+eax+1072]
	sub	esp, 8
	movsd	QWORD PTR [esp], xmm0
	mov	edx, DWORD PTR _this$[ebp]
	cvtss2sd xmm0, DWORD PTR [edx+996]
	sub	esp, 8
	movsd	QWORD PTR [esp], xmm0
	mov	eax, DWORD PTR _this$[ebp]
	mov	ecx, DWORD PTR [eax+1020]
	imul	ecx, 28					; 0000001cH
	mov	edx, DWORD PTR _this$[ebp]
	movss	xmm0, DWORD PTR [edx+992]
	xorps	xmm0, DWORD PTR __xmm@80000000800000008000000080000000
	mov	eax, DWORD PTR _this$[ebp]
	movss	xmm1, DWORD PTR [eax+ecx+1072]
	divss	xmm1, xmm0
	cvtss2sd xmm0, xmm1
	sub	esp, 8
	movsd	QWORD PTR [esp], xmm0
	push	OFFSET ??_C@_0BC@GJIPNCPH@?$CF5?41f?5?$CF5?41f?5?$CF5?41f?$AA@
	lea	ecx, DWORD PTR _label$36[ebp]
	push	ecx
	call	_sprintf
	add	esp, 32					; 00000020H

; 670  : 			((DrawableBSP*)curThirsty->drawPointer)->SetLabel (label, ((DrawableBSP*)curThirsty->drawPointer)->LabelColor());

	mov	edx, DWORD PTR _this$[ebp]
	mov	eax, DWORD PTR [edx+980]
	mov	ecx, DWORD PTR [eax+332]
	call	?LabelColor@DrawableBSP@@QAEKXZ		; DrawableBSP::LabelColor
	push	eax
	lea	ecx, DWORD PTR _label$36[ebp]
	push	ecx
	mov	edx, DWORD PTR _this$[ebp]
	mov	eax, DWORD PTR [edx+980]
	mov	ecx, DWORD PTR [eax+332]
	mov	edx, DWORD PTR _this$[ebp]
	mov	eax, DWORD PTR [edx+980]
	mov	edx, DWORD PTR [ecx]
	mov	ecx, DWORD PTR [eax+332]
	mov	eax, DWORD PTR [edx+8]
	call	eax
$LN63@DriveBoom:

; 671  :  		}
; 672  :  		if (curThirsty && g_nShowDebugLabels & 0x40000)

	mov	ecx, DWORD PTR _this$[ebp]
	cmp	DWORD PTR [ecx+980], 0
	je	$LN62@DriveBoom
	mov	edx, DWORD PTR ?g_nShowDebugLabels@@3HA	; g_nShowDebugLabels
	and	edx, 262144				; 00040000H
	je	SHORT $LN62@DriveBoom

; 673  :  		{
; 674  :  			char label[31];
; 675  : // 			sprintf(label,"%5.1f %5.1f %5.1f",totalrange, tankingPtr->localData->range, boom[DROGUE].rx);
; 676  :  			sprintf(label,"%5.1f %5.1f %d", DrogueExt, DrogueRFPos.x, DROGUE);

	mov	eax, DWORD PTR _this$[ebp]
	mov	ecx, DWORD PTR [eax+1020]
	push	ecx
	mov	edx, DWORD PTR _this$[ebp]
	cvtss2sd xmm0, DWORD PTR [edx+996]
	sub	esp, 8
	movsd	QWORD PTR [esp], xmm0
	mov	eax, DWORD PTR _this$[ebp]
	cvtss2sd xmm0, DWORD PTR [eax+992]
	sub	esp, 8
	movsd	QWORD PTR [esp], xmm0
	push	OFFSET ??_C@_0P@FBILDPBG@?$CF5?41f?5?$CF5?41f?5?$CFd?$AA@
	lea	ecx, DWORD PTR _label$37[ebp]
	push	ecx
	call	_sprintf
	add	esp, 28					; 0000001cH

; 677  : 			((DrawableBSP*)curThirsty->drawPointer)->SetLabel (label, ((DrawableBSP*)curThirsty->drawPointer)->LabelColor());

	mov	edx, DWORD PTR _this$[ebp]
	mov	eax, DWORD PTR [edx+980]
	mov	ecx, DWORD PTR [eax+332]
	call	?LabelColor@DrawableBSP@@QAEKXZ		; DrawableBSP::LabelColor
	push	eax
	lea	ecx, DWORD PTR _label$37[ebp]
	push	ecx
	mov	edx, DWORD PTR _this$[ebp]
	mov	eax, DWORD PTR [edx+980]
	mov	ecx, DWORD PTR [eax+332]
	mov	edx, DWORD PTR _this$[ebp]
	mov	eax, DWORD PTR [edx+980]
	mov	edx, DWORD PTR [ecx]
	mov	ecx, DWORD PTR [eax+332]
	mov	eax, DWORD PTR [edx+8]
	call	eax
$LN62@DriveBoom:

; 678  :  		}
; 679  : 
; 680  : 		if (!(flags & (GivingGas | ClearingPlane)) && tankingPtr)

	mov	ecx, DWORD PTR _this$[ebp]
	mov	edx, DWORD PTR [ecx+1200]
	and	edx, 68					; 00000044H
	jne	$LN61@DriveBoom
	mov	eax, DWORD PTR _this$[ebp]
	cmp	DWORD PTR [eax+1208], 0
	je	$LN61@DriveBoom

; 681  : 	  {			
; 682  : 			if ((fabs(totalrange) < 6.0F * /*FRB*/ ScaledRM &&
; 683  : 					fabs(boom[DROGUE].az - tmpAz)*RTD < 6.0F * /*FRB*/ ScaledRM &&
; 684  : 					fabs(boom[DROGUE].el - tankingPtr->localData->el)*RTD < 2.0F * /*FRB*/ ScaledRM &&
; 685  : 					boom[DROGUE].el*RTD < 5.0F * /*FRB*/ ScaledRM &&
; 686  : 					boom[DROGUE].el*RTD > -5.0F * /*FRB*/ ScaledRM && 
; 687  : 					fabs(boom[DROGUE].az)*RTD < 20.0F * /*FRB*/ ScaledRM &&
; 688  : 					fabs(tankingPtr->BaseData()->Roll())*RTD < 4.0F * /* S.G.*/ ScaledRM &&
; 689  : 					fabs(tankingPtr->BaseData()->Pitch())*RTD < 6.0F * /* S.G.*/ ScaledRM)
; 690  : 					|| ((flags & AIready) && (tmpRefuelMode >= 3)))	// 27NOV03 - FRB  AI is in position

	push	ecx
	movss	xmm0, DWORD PTR _totalrange$29[ebp]
	movss	DWORD PTR [esp], xmm0
	call	?fabs@@YAMM@Z				; fabs
	add	esp, 4
	fstp	DWORD PTR tv2189[ebp]
	cvtsi2ss xmm0, DWORD PTR _ScaledRM$35[ebp]
	mulss	xmm0, DWORD PTR __real@40c00000
	comiss	xmm0, DWORD PTR tv2189[ebp]
	jbe	$LN58@DriveBoom
	mov	ecx, DWORD PTR _this$[ebp]
	mov	edx, DWORD PTR [ecx+1020]
	imul	edx, 28					; 0000001cH
	mov	eax, DWORD PTR _this$[ebp]
	movss	xmm0, DWORD PTR [eax+edx+1064]
	subss	xmm0, DWORD PTR _tmpAz$[ebp]
	push	ecx
	movss	DWORD PTR [esp], xmm0
	call	?fabs@@YAMM@Z				; fabs
	add	esp, 4
	fstp	DWORD PTR tv2199[ebp]
	movss	xmm0, DWORD PTR tv2199[ebp]
	mulss	xmm0, DWORD PTR __real@42652ee1
	cvtsi2ss xmm1, DWORD PTR _ScaledRM$35[ebp]
	mulss	xmm1, DWORD PTR __real@40c00000
	comiss	xmm1, xmm0
	jbe	$LN58@DriveBoom
	mov	ecx, DWORD PTR _this$[ebp]
	mov	edx, DWORD PTR [ecx+1020]
	imul	edx, 28					; 0000001cH
	mov	eax, DWORD PTR _this$[ebp]
	mov	ecx, DWORD PTR [eax+1208]
	mov	eax, DWORD PTR [ecx+12]
	mov	ecx, DWORD PTR _this$[ebp]
	movss	xmm0, DWORD PTR [ecx+edx+1068]
	subss	xmm0, DWORD PTR [eax+28]
	push	ecx
	movss	DWORD PTR [esp], xmm0
	call	?fabs@@YAMM@Z				; fabs
	add	esp, 4
	fstp	DWORD PTR tv2210[ebp]
	movss	xmm0, DWORD PTR tv2210[ebp]
	mulss	xmm0, DWORD PTR __real@42652ee1
	cvtsi2ss xmm1, DWORD PTR _ScaledRM$35[ebp]
	mulss	xmm1, DWORD PTR __real@40000000
	comiss	xmm1, xmm0
	jbe	$LN58@DriveBoom
	mov	edx, DWORD PTR _this$[ebp]
	mov	eax, DWORD PTR [edx+1020]
	imul	eax, 28					; 0000001cH
	mov	ecx, DWORD PTR _this$[ebp]
	movss	xmm0, DWORD PTR [ecx+eax+1068]
	mulss	xmm0, DWORD PTR __real@42652ee1
	cvtsi2ss xmm1, DWORD PTR _ScaledRM$35[ebp]
	mulss	xmm1, DWORD PTR __real@40a00000
	comiss	xmm1, xmm0
	jbe	$LN58@DriveBoom
	mov	edx, DWORD PTR _this$[ebp]
	mov	eax, DWORD PTR [edx+1020]
	imul	eax, 28					; 0000001cH
	mov	ecx, DWORD PTR _this$[ebp]
	movss	xmm0, DWORD PTR [ecx+eax+1068]
	mulss	xmm0, DWORD PTR __real@42652ee1
	cvtsi2ss xmm1, DWORD PTR _ScaledRM$35[ebp]
	mulss	xmm1, DWORD PTR __real@c0a00000
	comiss	xmm0, xmm1
	jbe	$LN58@DriveBoom
	mov	edx, DWORD PTR _this$[ebp]
	mov	eax, DWORD PTR [edx+1020]
	imul	eax, 28					; 0000001cH
	mov	ecx, DWORD PTR _this$[ebp]
	push	ecx
	movss	xmm0, DWORD PTR [ecx+eax+1064]
	movss	DWORD PTR [esp], xmm0
	call	?fabs@@YAMM@Z				; fabs
	add	esp, 4
	fstp	DWORD PTR tv2230[ebp]
	movss	xmm0, DWORD PTR tv2230[ebp]
	mulss	xmm0, DWORD PTR __real@42652ee1
	cvtsi2ss xmm1, DWORD PTR _ScaledRM$35[ebp]
	mulss	xmm1, DWORD PTR __real@41a00000
	comiss	xmm1, xmm0
	jbe	$LN58@DriveBoom
	mov	edx, DWORD PTR _this$[ebp]
	mov	ecx, DWORD PTR [edx+1208]
	call	?BaseData@SimObjectType@@QAEPAVFalconEntity@@XZ ; SimObjectType::BaseData
	mov	ecx, eax
	call	?Roll@VuEntity@@QBEMXZ			; VuEntity::Roll
	push	ecx
	fstp	DWORD PTR [esp]
	call	?fabs@@YAMM@Z				; fabs
	add	esp, 4
	fstp	DWORD PTR tv2241[ebp]
	movss	xmm0, DWORD PTR tv2241[ebp]
	mulss	xmm0, DWORD PTR __real@42652ee1
	cvtsi2ss xmm1, DWORD PTR _ScaledRM$35[ebp]
	mulss	xmm1, DWORD PTR __real@40800000
	comiss	xmm1, xmm0
	jbe	SHORT $LN58@DriveBoom
	mov	eax, DWORD PTR _this$[ebp]
	mov	ecx, DWORD PTR [eax+1208]
	call	?BaseData@SimObjectType@@QAEPAVFalconEntity@@XZ ; SimObjectType::BaseData
	mov	ecx, eax
	call	?Pitch@VuEntity@@QBEMXZ			; VuEntity::Pitch
	push	ecx
	fstp	DWORD PTR [esp]
	call	?fabs@@YAMM@Z				; fabs
	add	esp, 4
	fstp	DWORD PTR tv2252[ebp]
	movss	xmm0, DWORD PTR tv2252[ebp]
	mulss	xmm0, DWORD PTR __real@42652ee1
	cvtsi2ss xmm1, DWORD PTR _ScaledRM$35[ebp]
	mulss	xmm1, DWORD PTR __real@40c00000
	comiss	xmm1, xmm0
	ja	SHORT $LN59@DriveBoom
$LN58@DriveBoom:
	mov	ecx, DWORD PTR _this$[ebp]
	mov	edx, DWORD PTR [ecx+1200]
	and	edx, 128				; 00000080H
	je	$LN60@DriveBoom
	cmp	DWORD PTR _tmpRefuelMode$30[ebp], 3
	jl	$LN60@DriveBoom
$LN59@DriveBoom:

; 691  : 			{
; 692  : 					flags |= GivingGas;

	mov	eax, DWORD PTR _this$[ebp]
	mov	ecx, DWORD PTR [eax+1200]
	or	ecx, 4
	mov	edx, DWORD PTR _this$[ebp]
	mov	DWORD PTR [edx+1200], ecx

; 693  : 					tankMsg = new FalconTankerMessage (self->Id(), FalconLocalGame);

	push	68					; 00000044H
	call	??2@YAPAXI@Z				; operator new
	add	esp, 4
	mov	DWORD PTR $T27[ebp], eax
	mov	DWORD PTR __$EHRec$[ebp+8], 0
	cmp	DWORD PTR $T27[ebp], 0
	je	SHORT $LN96@DriveBoom
	mov	ecx, OFFSET ?vuLocalSessionEntity@@3V?$VuBin@VVuSessionEntity@@@@A ; vuLocalSessionEntity
	call	??B?$VuBin@VVuSessionEntity@@@@QBE_NXZ	; VuBin<VuSessionEntity>::operator bool
	movzx	eax, al
	test	eax, eax
	je	SHORT $LN94@DriveBoom
	mov	ecx, OFFSET ?vuLocalSessionEntity@@3V?$VuBin@VVuSessionEntity@@@@A ; vuLocalSessionEntity
	call	?get@?$VuBin@VVuSessionEntity@@@@QBEPAVVuSessionEntity@@XZ ; VuBin<VuSessionEntity>::get
	mov	ecx, eax
	call	?GetGame@FalconSessionEntity@@QAEPAVFalconGameEntity@@XZ ; FalconSessionEntity::GetGame
	mov	DWORD PTR tv579[ebp], eax
	jmp	SHORT $LN95@DriveBoom
$LN94@DriveBoom:
	mov	DWORD PTR tv579[ebp], 0
$LN95@DriveBoom:
	push	1
	mov	ecx, DWORD PTR tv579[ebp]
	push	ecx
	lea	edx, DWORD PTR $T13[ebp]
	push	edx
	mov	eax, DWORD PTR _this$[ebp]
	mov	ecx, DWORD PTR [eax+56]
	call	?Id@VuEntity@@QBE?AVVU_ID@@XZ		; VuEntity::Id
	mov	ecx, DWORD PTR [eax+4]
	push	ecx
	mov	edx, DWORD PTR [eax]
	push	edx
	mov	ecx, DWORD PTR $T27[ebp]
	call	??0FalconTankerMessage@@QAE@VVU_ID@@PAVVuTargetEntity@@E@Z ; FalconTankerMessage::FalconTankerMessage
	mov	DWORD PTR tv595[ebp], eax
	jmp	SHORT $LN97@DriveBoom
$LN96@DriveBoom:
	mov	DWORD PTR tv595[ebp], 0
$LN97@DriveBoom:
	mov	eax, DWORD PTR tv595[ebp]
	mov	DWORD PTR $T16[ebp], eax
	mov	DWORD PTR __$EHRec$[ebp+8], -1
	mov	ecx, DWORD PTR $T16[ebp]
	mov	DWORD PTR _tankMsg$[ebp], ecx

; 694  : 					tankMsg->dataBlock.caller = curThirsty->Id();

	lea	edx, DWORD PTR $T10[ebp]
	push	edx
	mov	eax, DWORD PTR _this$[ebp]
	mov	ecx, DWORD PTR [eax+980]
	call	?Id@VuEntity@@QBE?AVVU_ID@@XZ		; VuEntity::Id
	mov	ecx, DWORD PTR [eax]
	mov	edx, DWORD PTR [eax+4]
	mov	eax, DWORD PTR _tankMsg$[ebp]
	mov	DWORD PTR [eax+48], ecx
	mov	DWORD PTR [eax+52], edx

; 695  : 					tankMsg->dataBlock.type = FalconTankerMessage::Contact;

	mov	ecx, DWORD PTR _tankMsg$[ebp]
	mov	DWORD PTR [ecx+56], 3

; 696  : 					tankMsg->dataBlock.data1 = tankMsg->dataBlock.data2 = 0;

	mov	edx, DWORD PTR _tankMsg$[ebp]
	movss	xmm0, DWORD PTR __real@00000000
	movss	DWORD PTR [edx+64], xmm0
	mov	eax, DWORD PTR _tankMsg$[ebp]
	movss	xmm0, DWORD PTR __real@00000000
	movss	DWORD PTR [eax+60], xmm0

; 697  : 					FalconSendMessage (tankMsg);

	push	0
	mov	ecx, DWORD PTR _tankMsg$[ebp]
	push	ecx
	call	?FalconSendMessage@@YAXPAVVuMessage@@H@Z ; FalconSendMessage
	add	esp, 8
$LN60@DriveBoom:

; 698  : 			}
; 699  : 	  }

	jmp	$LN48@DriveBoom
$LN61@DriveBoom:

; 700  : 	  else if(tankingPtr && !(flags & ClearingPlane))

	mov	edx, DWORD PTR _this$[ebp]
	cmp	DWORD PTR [edx+1208], 0
	je	$LN56@DriveBoom
	mov	eax, DWORD PTR _this$[ebp]
	mov	ecx, DWORD PTR [eax+1200]
	and	ecx, 64					; 00000040H
	jne	$LN56@DriveBoom

; 701  : 	  {
; 702  : 			tmpAz = tankingPtr->localData->az;

	mov	edx, DWORD PTR _this$[ebp]
	mov	eax, DWORD PTR [edx+1208]
	mov	ecx, DWORD PTR [eax+12]
	movss	xmm0, DWORD PTR [ecx+16]
	movss	DWORD PTR _tmpAz$[ebp], xmm0

; 703  : 			if (fabs(totalrange ) > 8.0F * /*FRB*/ ScaledRM ||
; 704  : 					fabs(boom[DROGUE].az - tmpAz)*RTD > 7.0F * /*FRB*/ ScaledRM ||
; 705  : 					fabs(boom[DROGUE].el - tankingPtr->localData->el)*RTD > 5.0F * /*FRB*/ ScaledRM ||
; 706  : 					fabs(tankingPtr->BaseData()->Roll())*RTD > 5.0F * /* S.G.*/ ScaledRM ||
; 707  : 					fabs(tankingPtr->BaseData()->Pitch())*RTD > 8.0F * /* S.G.*/ ScaledRM ||
; 708  : 					tankingPtr->localData->el*RTD > 5.0F * /*FRB*/ ScaledRM || 
; 709  : 					tankingPtr->localData->el*RTD < -5.0F * /*FRB*/ ScaledRM || 
; 710  : 					fabs(tankingPtr->localData->az)*RTD > 23.0F * /*FRB*/ ScaledRM )

	push	ecx
	movss	xmm0, DWORD PTR _totalrange$29[ebp]
	movss	DWORD PTR [esp], xmm0
	call	?fabs@@YAMM@Z				; fabs
	add	esp, 4
	fstp	DWORD PTR tv2299[ebp]
	movss	xmm0, DWORD PTR tv2299[ebp]
	cvtsi2ss xmm1, DWORD PTR _ScaledRM$35[ebp]
	mulss	xmm1, DWORD PTR __real@41000000
	comiss	xmm0, xmm1
	ja	$LN54@DriveBoom
	mov	edx, DWORD PTR _this$[ebp]
	mov	eax, DWORD PTR [edx+1020]
	imul	eax, 28					; 0000001cH
	mov	ecx, DWORD PTR _this$[ebp]
	movss	xmm0, DWORD PTR [ecx+eax+1064]
	subss	xmm0, DWORD PTR _tmpAz$[ebp]
	push	ecx
	movss	DWORD PTR [esp], xmm0
	call	?fabs@@YAMM@Z				; fabs
	add	esp, 4
	fstp	DWORD PTR tv2309[ebp]
	movss	xmm0, DWORD PTR tv2309[ebp]
	mulss	xmm0, DWORD PTR __real@42652ee1
	cvtsi2ss xmm1, DWORD PTR _ScaledRM$35[ebp]
	mulss	xmm1, DWORD PTR __real@40e00000
	comiss	xmm0, xmm1
	ja	$LN54@DriveBoom
	mov	edx, DWORD PTR _this$[ebp]
	mov	eax, DWORD PTR [edx+1020]
	imul	eax, 28					; 0000001cH
	mov	ecx, DWORD PTR _this$[ebp]
	mov	edx, DWORD PTR [ecx+1208]
	mov	ecx, DWORD PTR [edx+12]
	mov	edx, DWORD PTR _this$[ebp]
	movss	xmm0, DWORD PTR [edx+eax+1068]
	subss	xmm0, DWORD PTR [ecx+28]
	push	ecx
	movss	DWORD PTR [esp], xmm0
	call	?fabs@@YAMM@Z				; fabs
	add	esp, 4
	fstp	DWORD PTR tv2320[ebp]
	movss	xmm0, DWORD PTR tv2320[ebp]
	mulss	xmm0, DWORD PTR __real@42652ee1
	cvtsi2ss xmm1, DWORD PTR _ScaledRM$35[ebp]
	mulss	xmm1, DWORD PTR __real@40a00000
	comiss	xmm0, xmm1
	ja	$LN54@DriveBoom
	mov	eax, DWORD PTR _this$[ebp]
	mov	ecx, DWORD PTR [eax+1208]
	call	?BaseData@SimObjectType@@QAEPAVFalconEntity@@XZ ; SimObjectType::BaseData
	mov	ecx, eax
	call	?Roll@VuEntity@@QBEMXZ			; VuEntity::Roll
	push	ecx
	fstp	DWORD PTR [esp]
	call	?fabs@@YAMM@Z				; fabs
	add	esp, 4
	fstp	DWORD PTR tv2331[ebp]
	movss	xmm0, DWORD PTR tv2331[ebp]
	mulss	xmm0, DWORD PTR __real@42652ee1
	cvtsi2ss xmm1, DWORD PTR _ScaledRM$35[ebp]
	mulss	xmm1, DWORD PTR __real@40a00000
	comiss	xmm0, xmm1
	ja	$LN54@DriveBoom
	mov	ecx, DWORD PTR _this$[ebp]
	mov	ecx, DWORD PTR [ecx+1208]
	call	?BaseData@SimObjectType@@QAEPAVFalconEntity@@XZ ; SimObjectType::BaseData
	mov	ecx, eax
	call	?Pitch@VuEntity@@QBEMXZ			; VuEntity::Pitch
	push	ecx
	fstp	DWORD PTR [esp]
	call	?fabs@@YAMM@Z				; fabs
	add	esp, 4
	fstp	DWORD PTR tv2342[ebp]
	movss	xmm0, DWORD PTR tv2342[ebp]
	mulss	xmm0, DWORD PTR __real@42652ee1
	cvtsi2ss xmm1, DWORD PTR _ScaledRM$35[ebp]
	mulss	xmm1, DWORD PTR __real@41000000
	comiss	xmm0, xmm1
	ja	$LN54@DriveBoom
	mov	edx, DWORD PTR _this$[ebp]
	mov	eax, DWORD PTR [edx+1208]
	mov	ecx, DWORD PTR [eax+12]
	movss	xmm0, DWORD PTR [ecx+28]
	mulss	xmm0, DWORD PTR __real@42652ee1
	cvtsi2ss xmm1, DWORD PTR _ScaledRM$35[ebp]
	mulss	xmm1, DWORD PTR __real@40a00000
	comiss	xmm0, xmm1
	ja	SHORT $LN54@DriveBoom
	mov	edx, DWORD PTR _this$[ebp]
	mov	eax, DWORD PTR [edx+1208]
	mov	ecx, DWORD PTR [eax+12]
	movss	xmm0, DWORD PTR [ecx+28]
	mulss	xmm0, DWORD PTR __real@42652ee1
	cvtsi2ss xmm1, DWORD PTR _ScaledRM$35[ebp]
	mulss	xmm1, DWORD PTR __real@c0a00000
	comiss	xmm1, xmm0
	ja	SHORT $LN54@DriveBoom
	mov	edx, DWORD PTR _this$[ebp]
	mov	eax, DWORD PTR [edx+1208]
	mov	ecx, DWORD PTR [eax+12]
	push	ecx
	movss	xmm0, DWORD PTR [ecx+16]
	movss	DWORD PTR [esp], xmm0
	call	?fabs@@YAMM@Z				; fabs
	add	esp, 4
	fstp	DWORD PTR tv2356[ebp]
	movss	xmm0, DWORD PTR tv2356[ebp]
	mulss	xmm0, DWORD PTR __real@42652ee1
	cvtsi2ss xmm1, DWORD PTR _ScaledRM$35[ebp]
	mulss	xmm1, DWORD PTR __real@41b80000
	comiss	xmm0, xmm1
	jbe	$LN55@DriveBoom
$LN54@DriveBoom:

; 711  : 			{
; 712  : 					flags &= ~GivingGas;

	mov	edx, DWORD PTR _this$[ebp]
	mov	eax, DWORD PTR [edx+1200]
	and	eax, -5					; fffffffbH
	mov	ecx, DWORD PTR _this$[ebp]
	mov	DWORD PTR [ecx+1200], eax

; 713  : 					flags &= ~AIready;

	mov	edx, DWORD PTR _this$[ebp]
	mov	eax, DWORD PTR [edx+1200]
	and	eax, -129				; ffffff7fH
	mov	ecx, DWORD PTR _this$[ebp]
	mov	DWORD PTR [ecx+1200], eax

; 714  : 					tankMsg = new FalconTankerMessage (self->Id(), FalconLocalGame);

	push	68					; 00000044H
	call	??2@YAPAXI@Z				; operator new
	add	esp, 4
	mov	DWORD PTR $T22[ebp], eax
	mov	DWORD PTR __$EHRec$[ebp+8], 1
	cmp	DWORD PTR $T22[ebp], 0
	je	SHORT $LN100@DriveBoom
	mov	ecx, OFFSET ?vuLocalSessionEntity@@3V?$VuBin@VVuSessionEntity@@@@A ; vuLocalSessionEntity
	call	??B?$VuBin@VVuSessionEntity@@@@QBE_NXZ	; VuBin<VuSessionEntity>::operator bool
	movzx	edx, al
	test	edx, edx
	je	SHORT $LN98@DriveBoom
	mov	ecx, OFFSET ?vuLocalSessionEntity@@3V?$VuBin@VVuSessionEntity@@@@A ; vuLocalSessionEntity
	call	?get@?$VuBin@VVuSessionEntity@@@@QBEPAVVuSessionEntity@@XZ ; VuBin<VuSessionEntity>::get
	mov	ecx, eax
	call	?GetGame@FalconSessionEntity@@QAEPAVFalconGameEntity@@XZ ; FalconSessionEntity::GetGame
	mov	DWORD PTR tv742[ebp], eax
	jmp	SHORT $LN99@DriveBoom
$LN98@DriveBoom:
	mov	DWORD PTR tv742[ebp], 0
$LN99@DriveBoom:
	push	1
	mov	eax, DWORD PTR tv742[ebp]
	push	eax
	lea	ecx, DWORD PTR $T8[ebp]
	push	ecx
	mov	edx, DWORD PTR _this$[ebp]
	mov	ecx, DWORD PTR [edx+56]
	call	?Id@VuEntity@@QBE?AVVU_ID@@XZ		; VuEntity::Id
	mov	ecx, DWORD PTR [eax+4]
	push	ecx
	mov	edx, DWORD PTR [eax]
	push	edx
	mov	ecx, DWORD PTR $T22[ebp]
	call	??0FalconTankerMessage@@QAE@VVU_ID@@PAVVuTargetEntity@@E@Z ; FalconTankerMessage::FalconTankerMessage
	mov	DWORD PTR tv758[ebp], eax
	jmp	SHORT $LN101@DriveBoom
$LN100@DriveBoom:
	mov	DWORD PTR tv758[ebp], 0
$LN101@DriveBoom:
	mov	eax, DWORD PTR tv758[ebp]
	mov	DWORD PTR $T20[ebp], eax
	mov	DWORD PTR __$EHRec$[ebp+8], -1
	mov	ecx, DWORD PTR $T20[ebp]
	mov	DWORD PTR _tankMsg$[ebp], ecx

; 715  : 					tankMsg->dataBlock.caller = curThirsty->Id();

	lea	edx, DWORD PTR $T6[ebp]
	push	edx
	mov	eax, DWORD PTR _this$[ebp]
	mov	ecx, DWORD PTR [eax+980]
	call	?Id@VuEntity@@QBE?AVVU_ID@@XZ		; VuEntity::Id
	mov	ecx, DWORD PTR [eax]
	mov	edx, DWORD PTR [eax+4]
	mov	eax, DWORD PTR _tankMsg$[ebp]
	mov	DWORD PTR [eax+48], ecx
	mov	DWORD PTR [eax+52], edx

; 716  : 					tankMsg->dataBlock.type = FalconTankerMessage::Disconnect;

	mov	ecx, DWORD PTR _tankMsg$[ebp]
	mov	DWORD PTR [ecx+56], 9

; 717  : 					tankMsg->dataBlock.data1 = tankMsg->dataBlock.data2 = 0;

	mov	edx, DWORD PTR _tankMsg$[ebp]
	movss	xmm0, DWORD PTR __real@00000000
	movss	DWORD PTR [edx+64], xmm0
	mov	eax, DWORD PTR _tankMsg$[ebp]
	movss	xmm0, DWORD PTR __real@00000000
	movss	DWORD PTR [eax+60], xmm0

; 718  : 					FalconSendMessage (tankMsg);

	push	0
	mov	ecx, DWORD PTR _tankMsg$[ebp]
	push	ecx
	call	?FalconSendMessage@@YAXPAVVuMessage@@H@Z ; FalconSendMessage
	add	esp, 8
$LN55@DriveBoom:

; 719  : 			}
; 720  : 	  }
; 721  : 	  else if( (flags & ClearingPlane) && tankingPtr && 

	jmp	$LN48@DriveBoom
$LN56@DriveBoom:

; 722  : 								tankingPtr->localData->range > 0.04F * NM_TO_FT)

	mov	edx, DWORD PTR _this$[ebp]
	mov	eax, DWORD PTR [edx+1200]
	and	eax, 64					; 00000040H
	je	$LN52@DriveBoom
	mov	ecx, DWORD PTR _this$[ebp]
	cmp	DWORD PTR [ecx+1208], 0
	je	$LN52@DriveBoom
	mov	edx, DWORD PTR _this$[ebp]
	mov	eax, DWORD PTR [edx+1208]
	mov	ecx, DWORD PTR [eax+12]
	movss	xmm0, DWORD PTR [ecx+44]
	comiss	xmm0, DWORD PTR __real@43730c66
	jbe	$LN52@DriveBoom

; 723  : 	  {
; 724  : 			VuEntity		*entity = NULL;

	mov	DWORD PTR _entity$33[ebp], 0

; 725  : 			{
; 726  : 				// sfr: @todo is this correct? looks damn weird to me
; 727  : 				VuListIterator	myit(thirstyQ);

	mov	edx, DWORD PTR _this$[ebp]
	mov	eax, DWORD PTR [edx+972]
	push	eax
	lea	ecx, DWORD PTR _myit$15[ebp]
	call	??0VuListIterator@@QAE@PAVVuLinkedList@@@Z ; VuListIterator::VuListIterator
	mov	DWORD PTR __$EHRec$[ebp+8], 2

; 728  : 				if ( entity = myit.GetFirst() ){

	lea	ecx, DWORD PTR _myit$15[ebp]
	call	?GetFirst@VuListIterator@@QAEPAVVuEntity@@XZ ; VuListIterator::GetFirst
	mov	DWORD PTR _entity$33[ebp], eax
	cmp	DWORD PTR _entity$33[ebp], 0
	je	SHORT $LN51@DriveBoom

; 729  : 					// MLR 5/13/2004 - Just in case
; 730  : 					entity = myit.GetNext();

	lea	ecx, DWORD PTR _myit$15[ebp]
	call	?GetNext@VuListIterator@@QAEPAVVuEntity@@XZ ; VuListIterator::GetNext
	mov	DWORD PTR _entity$33[ebp], eax
$LN51@DriveBoom:

; 731  : 				}
; 732  : 			}

	mov	DWORD PTR __$EHRec$[ebp+8], -1
	lea	ecx, DWORD PTR _myit$15[ebp]
	call	??1VuListIterator@@UAE@XZ		; VuListIterator::~VuListIterator

; 733  : 
; 734  : 			if(entity && ((SimBaseClass*)entity)->GetCampaignObject() == curThirsty->GetCampaignObject()){

	cmp	DWORD PTR _entity$33[ebp], 0
	je	SHORT $LN50@DriveBoom
	mov	ecx, DWORD PTR _entity$33[ebp]
	call	?GetCampaignObject@SimBaseClass@@QAEPAVCampBaseClass@@XZ ; SimBaseClass::GetCampaignObject
	mov	esi, eax
	mov	ecx, DWORD PTR _this$[ebp]
	mov	ecx, DWORD PTR [ecx+980]
	call	?GetCampaignObject@SimBaseClass@@QAEPAVCampBaseClass@@XZ ; SimBaseClass::GetCampaignObject
	cmp	esi, eax
	jne	SHORT $LN50@DriveBoom

; 735  : 				AddToWaitQ(curThirsty);

	mov	edx, DWORD PTR _this$[ebp]
	mov	eax, DWORD PTR [edx+980]
	push	eax
	mov	ecx, DWORD PTR _this$[ebp]
	call	?AddToWaitQ@TankerBrain@@QAEHPAVSimVehicleClass@@@Z ; TankerBrain::AddToWaitQ

; 736  : 			}
; 737  : 			else 

	jmp	$LN49@DriveBoom
$LN50@DriveBoom:

; 738  : 			{
; 739  : 					PurgeWaitQ();

	mov	ecx, DWORD PTR _this$[ebp]
	call	?PurgeWaitQ@TankerBrain@@QAEXXZ		; TankerBrain::PurgeWaitQ

; 740  : 					FalconTankerMessage *tankMsg;
; 741  : 					
; 742  : 					tankMsg = new FalconTankerMessage (self->Id(), FalconLocalGame);

	push	68					; 00000044H
	call	??2@YAPAXI@Z				; operator new
	add	esp, 4
	mov	DWORD PTR $T26[ebp], eax
	mov	DWORD PTR __$EHRec$[ebp+8], 3
	cmp	DWORD PTR $T26[ebp], 0
	je	SHORT $LN104@DriveBoom
	mov	ecx, OFFSET ?vuLocalSessionEntity@@3V?$VuBin@VVuSessionEntity@@@@A ; vuLocalSessionEntity
	call	??B?$VuBin@VVuSessionEntity@@@@QBE_NXZ	; VuBin<VuSessionEntity>::operator bool
	movzx	ecx, al
	test	ecx, ecx
	je	SHORT $LN102@DriveBoom
	mov	ecx, OFFSET ?vuLocalSessionEntity@@3V?$VuBin@VVuSessionEntity@@@@A ; vuLocalSessionEntity
	call	?get@?$VuBin@VVuSessionEntity@@@@QBEPAVVuSessionEntity@@XZ ; VuBin<VuSessionEntity>::get
	mov	ecx, eax
	call	?GetGame@FalconSessionEntity@@QAEPAVFalconGameEntity@@XZ ; FalconSessionEntity::GetGame
	mov	DWORD PTR tv846[ebp], eax
	jmp	SHORT $LN103@DriveBoom
$LN102@DriveBoom:
	mov	DWORD PTR tv846[ebp], 0
$LN103@DriveBoom:
	push	1
	mov	edx, DWORD PTR tv846[ebp]
	push	edx
	lea	eax, DWORD PTR $T4[ebp]
	push	eax
	mov	ecx, DWORD PTR _this$[ebp]
	mov	ecx, DWORD PTR [ecx+56]
	call	?Id@VuEntity@@QBE?AVVU_ID@@XZ		; VuEntity::Id
	mov	edx, DWORD PTR [eax+4]
	push	edx
	mov	eax, DWORD PTR [eax]
	push	eax
	mov	ecx, DWORD PTR $T26[ebp]
	call	??0FalconTankerMessage@@QAE@VVU_ID@@PAVVuTargetEntity@@E@Z ; FalconTankerMessage::FalconTankerMessage
	mov	DWORD PTR tv862[ebp], eax
	jmp	SHORT $LN105@DriveBoom
$LN104@DriveBoom:
	mov	DWORD PTR tv862[ebp], 0
$LN105@DriveBoom:
	mov	ecx, DWORD PTR tv862[ebp]
	mov	DWORD PTR $T17[ebp], ecx
	mov	DWORD PTR __$EHRec$[ebp+8], -1
	mov	edx, DWORD PTR $T17[ebp]
	mov	DWORD PTR _tankMsg$31[ebp], edx

; 743  : 					tankMsg->dataBlock.caller = curThirsty->Id();

	lea	eax, DWORD PTR $T2[ebp]
	push	eax
	mov	ecx, DWORD PTR _this$[ebp]
	mov	ecx, DWORD PTR [ecx+980]
	call	?Id@VuEntity@@QBE?AVVU_ID@@XZ		; VuEntity::Id
	mov	edx, DWORD PTR [eax]
	mov	eax, DWORD PTR [eax+4]
	mov	ecx, DWORD PTR _tankMsg$31[ebp]
	mov	DWORD PTR [ecx+48], edx
	mov	DWORD PTR [ecx+52], eax

; 744  : 					tankMsg->dataBlock.type = FalconTankerMessage::PositionUpdate;

	mov	edx, DWORD PTR _tankMsg$31[ebp]
	mov	DWORD PTR [edx+56], 11			; 0000000bH

; 745  : 					tankMsg->dataBlock.data1 = -1;

	mov	eax, DWORD PTR _tankMsg$31[ebp]
	movss	xmm0, DWORD PTR __real@bf800000
	movss	DWORD PTR [eax+60], xmm0

; 746  : 					FalconSendMessage (tankMsg);

	push	0
	mov	ecx, DWORD PTR _tankMsg$31[ebp]
	push	ecx
	call	?FalconSendMessage@@YAXPAVVuMessage@@H@Z ; FalconSendMessage
	add	esp, 8
$LN49@DriveBoom:

; 747  : 			}
; 748  : 			
; 749  : 			RemoveFromQ(curThirsty);

	mov	edx, DWORD PTR _this$[ebp]
	mov	eax, DWORD PTR [edx+980]
	push	eax
	mov	ecx, DWORD PTR _this$[ebp]
	call	?RemoveFromQ@TankerBrain@@QAEXPAVSimVehicleClass@@@Z ; TankerBrain::RemoveFromQ

; 750  : 			tankingPtr->Release(  );

	mov	ecx, DWORD PTR _this$[ebp]
	mov	ecx, DWORD PTR [ecx+1208]
	call	?Release@SimObjectType@@QAEXXZ		; SimObjectType::Release

; 751  : 			tankingPtr = NULL;

	mov	edx, DWORD PTR _this$[ebp]
	mov	DWORD PTR [edx+1208], 0

; 752  : 			flags &= ~ClearingPlane;

	mov	eax, DWORD PTR _this$[ebp]
	mov	ecx, DWORD PTR [eax+1200]
	and	ecx, -65				; ffffffbfH
	mov	edx, DWORD PTR _this$[ebp]
	mov	DWORD PTR [edx+1200], ecx

; 753  : 			flags &= ~IsRefueling;

	mov	eax, DWORD PTR _this$[ebp]
	mov	ecx, DWORD PTR [eax+1200]
	and	ecx, -2					; fffffffeH
	mov	edx, DWORD PTR _this$[ebp]
	mov	DWORD PTR [edx+1200], ecx

; 754  : 			flags &= ~AIready;

	mov	eax, DWORD PTR _this$[ebp]
	mov	ecx, DWORD PTR [eax+1200]
	and	ecx, -129				; ffffff7fH
	mov	edx, DWORD PTR _this$[ebp]
	mov	DWORD PTR [edx+1200], ecx

; 755  : 	  }
; 756  : 	  else

	jmp	SHORT $LN48@DriveBoom
$LN52@DriveBoom:

; 757  : 	  {
; 758  : 			if(tankingPtr)

	mov	eax, DWORD PTR _this$[ebp]
	cmp	DWORD PTR [eax+1208], 0
	je	SHORT $LN47@DriveBoom

; 759  : 					tankingPtr->Release(  );

	mov	ecx, DWORD PTR _this$[ebp]
	mov	ecx, DWORD PTR [ecx+1208]
	call	?Release@SimObjectType@@QAEXXZ		; SimObjectType::Release
$LN47@DriveBoom:

; 760  : 			tankingPtr = NULL;

	mov	edx, DWORD PTR _this$[ebp]
	mov	DWORD PTR [edx+1208], 0
$LN48@DriveBoom:

; 761  : 			//flags &= ~ClearingPlane;
; 762  : 			//flags &= ~IsRefueling;
; 763  : 	  }
; 764  :     return;

	jmp	$LN86@DriveBoom
$LN81@DriveBoom:

; 765  : 	} // end Drogue service
; 766  : 
; 767  : 
; 768  : 	//====================================================
; 769  : 	// Boom service
; 770  : 	if(!boom[BOOM].drawPointer)

	mov	eax, DWORD PTR _this$[ebp]
	mov	ecx, DWORD PTR [eax+1024]
	imul	ecx, 28					; 0000001cH
	mov	edx, DWORD PTR _this$[ebp]
	cmp	DWORD PTR [edx+ecx+1060], 0
	jne	SHORT $LN46@DriveBoom

; 771  : 		return;

	jmp	$LN86@DriveBoom
$LN46@DriveBoom:

; 772  : 
; 773  : 	// 28NOV03 - FRB - Get nose location to replace F-16 constant
; 774  : 	if (curThirsty && curThirsty->drawPointer) 

	mov	eax, DWORD PTR _this$[ebp]
	cmp	DWORD PTR [eax+980], 0
	je	SHORT $LN45@DriveBoom
	mov	ecx, DWORD PTR _this$[ebp]
	mov	edx, DWORD PTR [ecx+980]
	cmp	DWORD PTR [edx+332], 0
	je	SHORT $LN45@DriveBoom

; 775  : 	{
; 776  : 		rad = ((DrawableBSP*)curThirsty->drawPointer)->Radius();	// Use Parent record radius since BoundingBox +X may be changed to decrease a/c hitbox

	mov	eax, DWORD PTR _this$[ebp]
	mov	ecx, DWORD PTR [eax+980]
	mov	ecx, DWORD PTR [ecx+332]
	call	?Radius@DrawableObject@@QBEMXZ		; DrawableObject::Radius
	fstp	DWORD PTR _rad$[ebp]
$LN45@DriveBoom:

; 777  : 	}
; 778  : 
; 779  : 	tmpRange = 0.0F;

	movss	xmm0, DWORD PTR __real@00000000
	movss	DWORD PTR _tmpRange$[ebp], xmm0

; 780  : 
; 781  : 	if (!(flags & GivingGas) && (!tankingPtr || tankingPtr->localData->range > 800.0F) || (flags & ClearingPlane))

	mov	edx, DWORD PTR _this$[ebp]
	mov	eax, DWORD PTR [edx+1200]
	and	eax, 4
	jne	SHORT $LN42@DriveBoom
	mov	ecx, DWORD PTR _this$[ebp]
	cmp	DWORD PTR [ecx+1208], 0
	je	SHORT $LN43@DriveBoom
	mov	edx, DWORD PTR _this$[ebp]
	mov	eax, DWORD PTR [edx+1208]
	mov	ecx, DWORD PTR [eax+12]
	movss	xmm0, DWORD PTR [ecx+44]
	comiss	xmm0, DWORD PTR __real@44480000
	ja	SHORT $LN43@DriveBoom
$LN42@DriveBoom:
	mov	edx, DWORD PTR _this$[ebp]
	mov	eax, DWORD PTR [edx+1200]
	and	eax, 64					; 00000040H
	je	SHORT $LN44@DriveBoom
$LN43@DriveBoom:

; 782  : 	{
; 783  : 		tmpAz = 0.0F;

	movss	xmm0, DWORD PTR __real@00000000
	movss	DWORD PTR _tmpAz$[ebp], xmm0

; 784  : 		tempEl = 	self->af->GetBoomStoredAngle()*DTR; // 12DEC03 - FRB - Use tanker <ac>.dat stored angle 

	mov	ecx, DWORD PTR _this$[ebp]
	mov	edx, DWORD PTR [ecx+56]
	mov	ecx, DWORD PTR [edx+932]
	call	?GetBoomStoredAngle@AirframeClass@@QAEMXZ ; AirframeClass::GetBoomStoredAngle
	fstp	DWORD PTR tv2473[ebp]
	movss	xmm0, DWORD PTR tv2473[ebp]
	mulss	xmm0, DWORD PTR __real@3c8efa34
	movss	DWORD PTR _tempEl$[ebp], xmm0

; 785  : 		tmpRange = 0.0F;

	movss	xmm0, DWORD PTR __real@00000000
	movss	DWORD PTR _tmpRange$[ebp], xmm0
	jmp	$LN32@DriveBoom
$LN44@DriveBoom:

; 786  : 	}
; 787  :  	else if (!(flags & GivingGas) && (!tankingPtr || tankingPtr->localData->range - 33.5F > rad)) // 28NOV03 - FRB - replaced 30.0F	w/ rad

	mov	eax, DWORD PTR _this$[ebp]
	mov	ecx, DWORD PTR [eax+1200]
	and	ecx, 4
	jne	SHORT $LN40@DriveBoom
	mov	edx, DWORD PTR _this$[ebp]
	cmp	DWORD PTR [edx+1208], 0
	je	SHORT $LN39@DriveBoom
	mov	eax, DWORD PTR _this$[ebp]
	mov	ecx, DWORD PTR [eax+1208]
	mov	edx, DWORD PTR [ecx+12]
	movss	xmm0, DWORD PTR [edx+44]
	subss	xmm0, DWORD PTR __real@42060000
	comiss	xmm0, DWORD PTR _rad$[ebp]
	jbe	SHORT $LN40@DriveBoom
$LN39@DriveBoom:

; 788  : 	{
; 789  : 		tmpAz = 0.0F;

	movss	xmm0, DWORD PTR __real@00000000
	movss	DWORD PTR _tmpAz$[ebp], xmm0

; 790  : 		tempEl = -15.0F*DTR;

	movss	xmm0, DWORD PTR __real@be860a91
	movss	DWORD PTR _tempEl$[ebp], xmm0

; 791  : 		tmpRange = 6.0F;

	movss	xmm0, DWORD PTR __real@40c00000
	movss	DWORD PTR _tmpRange$[ebp], xmm0

; 792  : 	}
; 793  : 	else

	jmp	$LN32@DriveBoom
$LN40@DriveBoom:

; 794  : 	{
; 795  : 		//lower and swivel boom first, then extend
; 796  : 		if(tankingPtr->localData->el < -22.0F*DTR)

	mov	eax, DWORD PTR _this$[ebp]
	mov	ecx, DWORD PTR [eax+1208]
	mov	edx, DWORD PTR [ecx+12]
	movss	xmm0, DWORD PTR __real@bec49808
	comiss	xmm0, DWORD PTR [edx+28]
	jbe	SHORT $LN37@DriveBoom

; 797  : 			tempEl = tankingPtr->localData->el;	

	mov	eax, DWORD PTR _this$[ebp]
	mov	ecx, DWORD PTR [eax+1208]
	mov	edx, DWORD PTR [ecx+12]
	movss	xmm0, DWORD PTR [edx+28]
	movss	DWORD PTR _tempEl$[ebp], xmm0

; 798  : 		else

	jmp	SHORT $LN36@DriveBoom
$LN37@DriveBoom:

; 799  : 			tempEl = -15.0F;

	movss	xmm0, DWORD PTR __real@c1700000
	movss	DWORD PTR _tempEl$[ebp], xmm0
$LN36@DriveBoom:

; 800  : 		// 28NOV03 - FRB - 		
; 801  : 		if(fabs(tankingPtr->localData->az) > 15.0F*DTR)

	mov	eax, DWORD PTR _this$[ebp]
	mov	ecx, DWORD PTR [eax+1208]
	mov	edx, DWORD PTR [ecx+12]
	push	ecx
	movss	xmm0, DWORD PTR [edx+16]
	movss	DWORD PTR [esp], xmm0
	call	?fabs@@YAMM@Z				; fabs
	add	esp, 4
	fstp	DWORD PTR tv2494[ebp]
	movss	xmm0, DWORD PTR tv2494[ebp]
	comiss	xmm0, DWORD PTR __real@3e860a91
	jbe	SHORT $LN35@DriveBoom

; 802  : 			tmpAz = 0.0f;

	movss	xmm0, DWORD PTR __real@00000000
	movss	DWORD PTR _tmpAz$[ebp], xmm0

; 803  : 		else

	jmp	SHORT $LN34@DriveBoom
$LN35@DriveBoom:

; 804  : 			tmpAz = tankingPtr->localData->az;

	mov	eax, DWORD PTR _this$[ebp]
	mov	ecx, DWORD PTR [eax+1208]
	mov	edx, DWORD PTR [ecx+12]
	movss	xmm0, DWORD PTR [edx+16]
	movss	DWORD PTR _tmpAz$[ebp], xmm0
$LN34@DriveBoom:

; 805  : 
; 806  : 		if(boom[BOOM].el*RTD > -27.2F && !(flags & GivingGas))

	mov	eax, DWORD PTR _this$[ebp]
	mov	ecx, DWORD PTR [eax+1024]
	imul	ecx, 28					; 0000001cH
	mov	edx, DWORD PTR _this$[ebp]
	movss	xmm0, DWORD PTR [edx+ecx+1068]
	mulss	xmm0, DWORD PTR __real@42652ee1
	comiss	xmm0, DWORD PTR __real@c1d9999a
	jbe	SHORT $LN33@DriveBoom
	mov	eax, DWORD PTR _this$[ebp]
	mov	ecx, DWORD PTR [eax+1200]
	and	ecx, 4
	jne	SHORT $LN33@DriveBoom

; 807  : 			tmpRange = 6.0F; 

	movss	xmm0, DWORD PTR __real@40c00000
	movss	DWORD PTR _tmpRange$[ebp], xmm0

; 808  : 		else

	jmp	SHORT $LN32@DriveBoom
$LN33@DriveBoom:

; 809  : 			tmpRange = tankingPtr->localData->range - 33.5F; 

	mov	edx, DWORD PTR _this$[ebp]
	mov	eax, DWORD PTR [edx+1208]
	mov	ecx, DWORD PTR [eax+12]
	movss	xmm0, DWORD PTR [ecx+44]
	subss	xmm0, DWORD PTR __real@42060000
	movss	DWORD PTR _tmpRange$[ebp], xmm0
$LN32@DriveBoom:

; 810  : 	}
; 811  : 		
; 812  : 	if(boom[BOOM].az - tmpAz > FOLLOW_RATE * SimLibLastMajorFrameTime)

	mov	edx, DWORD PTR _this$[ebp]
	mov	eax, DWORD PTR [edx+1024]
	imul	eax, 28					; 0000001cH
	mov	ecx, DWORD PTR _this$[ebp]
	movss	xmm0, DWORD PTR [ecx+eax+1064]
	subss	xmm0, DWORD PTR _tmpAz$[ebp]
	movss	xmm1, DWORD PTR __real@3e32b8c1
	mulss	xmm1, DWORD PTR ?SimLibLastMajorFrameTime@@3MA
	comiss	xmm0, xmm1
	jbe	SHORT $LN31@DriveBoom

; 813  : 		boom[BOOM].az = boom[BOOM].az - FOLLOW_RATE * SimLibLastMajorFrameTime;

	mov	edx, DWORD PTR _this$[ebp]
	mov	eax, DWORD PTR [edx+1024]
	imul	eax, 28					; 0000001cH
	movss	xmm0, DWORD PTR __real@3e32b8c1
	mulss	xmm0, DWORD PTR ?SimLibLastMajorFrameTime@@3MA
	mov	ecx, DWORD PTR _this$[ebp]
	movss	xmm1, DWORD PTR [ecx+eax+1064]
	subss	xmm1, xmm0
	mov	edx, DWORD PTR _this$[ebp]
	mov	eax, DWORD PTR [edx+1024]
	imul	eax, 28					; 0000001cH
	mov	ecx, DWORD PTR _this$[ebp]
	movss	DWORD PTR [ecx+eax+1064], xmm1
	jmp	$LN28@DriveBoom
$LN31@DriveBoom:

; 814  : 	else if(boom[BOOM].az - tmpAz < -FOLLOW_RATE * SimLibLastMajorFrameTime)

	mov	edx, DWORD PTR _this$[ebp]
	mov	eax, DWORD PTR [edx+1024]
	imul	eax, 28					; 0000001cH
	mov	ecx, DWORD PTR _this$[ebp]
	movss	xmm0, DWORD PTR [ecx+eax+1064]
	subss	xmm0, DWORD PTR _tmpAz$[ebp]
	movss	xmm1, DWORD PTR __real@be32b8c1
	mulss	xmm1, DWORD PTR ?SimLibLastMajorFrameTime@@3MA
	comiss	xmm1, xmm0
	jbe	SHORT $LN29@DriveBoom

; 815  : 		boom[BOOM].az = boom[BOOM].az + FOLLOW_RATE * SimLibLastMajorFrameTime;

	mov	edx, DWORD PTR _this$[ebp]
	mov	eax, DWORD PTR [edx+1024]
	imul	eax, 28					; 0000001cH
	movss	xmm0, DWORD PTR __real@3e32b8c1
	mulss	xmm0, DWORD PTR ?SimLibLastMajorFrameTime@@3MA
	mov	ecx, DWORD PTR _this$[ebp]
	addss	xmm0, DWORD PTR [ecx+eax+1064]
	mov	edx, DWORD PTR _this$[ebp]
	mov	eax, DWORD PTR [edx+1024]
	imul	eax, 28					; 0000001cH
	mov	ecx, DWORD PTR _this$[ebp]
	movss	DWORD PTR [ecx+eax+1064], xmm0

; 816  : 	else

	jmp	SHORT $LN28@DriveBoom
$LN29@DriveBoom:

; 817  : 		boom[BOOM].az = tmpAz;

	mov	edx, DWORD PTR _this$[ebp]
	mov	eax, DWORD PTR [edx+1024]
	imul	eax, 28					; 0000001cH
	mov	ecx, DWORD PTR _this$[ebp]
	movss	xmm0, DWORD PTR _tmpAz$[ebp]
	movss	DWORD PTR [ecx+eax+1064], xmm0
$LN28@DriveBoom:

; 818  : 
; 819  : 	if(boom[BOOM].el - tempEl > FOLLOW_RATE * SimLibLastMajorFrameTime)

	mov	edx, DWORD PTR _this$[ebp]
	mov	eax, DWORD PTR [edx+1024]
	imul	eax, 28					; 0000001cH
	mov	ecx, DWORD PTR _this$[ebp]
	movss	xmm0, DWORD PTR [ecx+eax+1068]
	subss	xmm0, DWORD PTR _tempEl$[ebp]
	movss	xmm1, DWORD PTR __real@3e32b8c1
	mulss	xmm1, DWORD PTR ?SimLibLastMajorFrameTime@@3MA
	comiss	xmm0, xmm1
	jbe	SHORT $LN27@DriveBoom

; 820  : 		boom[BOOM].el = boom[BOOM].el - FOLLOW_RATE * SimLibLastMajorFrameTime;

	mov	edx, DWORD PTR _this$[ebp]
	mov	eax, DWORD PTR [edx+1024]
	imul	eax, 28					; 0000001cH
	movss	xmm0, DWORD PTR __real@3e32b8c1
	mulss	xmm0, DWORD PTR ?SimLibLastMajorFrameTime@@3MA
	mov	ecx, DWORD PTR _this$[ebp]
	movss	xmm1, DWORD PTR [ecx+eax+1068]
	subss	xmm1, xmm0
	mov	edx, DWORD PTR _this$[ebp]
	mov	eax, DWORD PTR [edx+1024]
	imul	eax, 28					; 0000001cH
	mov	ecx, DWORD PTR _this$[ebp]
	movss	DWORD PTR [ecx+eax+1068], xmm1
	jmp	$LN24@DriveBoom
$LN27@DriveBoom:

; 821  : 	else if(boom[BOOM].el - tempEl < -FOLLOW_RATE * SimLibLastMajorFrameTime)

	mov	edx, DWORD PTR _this$[ebp]
	mov	eax, DWORD PTR [edx+1024]
	imul	eax, 28					; 0000001cH
	mov	ecx, DWORD PTR _this$[ebp]
	movss	xmm0, DWORD PTR [ecx+eax+1068]
	subss	xmm0, DWORD PTR _tempEl$[ebp]
	movss	xmm1, DWORD PTR __real@be32b8c1
	mulss	xmm1, DWORD PTR ?SimLibLastMajorFrameTime@@3MA
	comiss	xmm1, xmm0
	jbe	SHORT $LN25@DriveBoom

; 822  : 		boom[BOOM].el = boom[BOOM].el + FOLLOW_RATE * SimLibLastMajorFrameTime;

	mov	edx, DWORD PTR _this$[ebp]
	mov	eax, DWORD PTR [edx+1024]
	imul	eax, 28					; 0000001cH
	movss	xmm0, DWORD PTR __real@3e32b8c1
	mulss	xmm0, DWORD PTR ?SimLibLastMajorFrameTime@@3MA
	mov	ecx, DWORD PTR _this$[ebp]
	addss	xmm0, DWORD PTR [ecx+eax+1068]
	mov	edx, DWORD PTR _this$[ebp]
	mov	eax, DWORD PTR [edx+1024]
	imul	eax, 28					; 0000001cH
	mov	ecx, DWORD PTR _this$[ebp]
	movss	DWORD PTR [ecx+eax+1068], xmm0

; 823  : 	else

	jmp	SHORT $LN24@DriveBoom
$LN25@DriveBoom:

; 824  : 		boom[BOOM].el = tempEl;

	mov	edx, DWORD PTR _this$[ebp]
	mov	eax, DWORD PTR [edx+1024]
	imul	eax, 28					; 0000001cH
	mov	ecx, DWORD PTR _this$[ebp]
	movss	xmm0, DWORD PTR _tempEl$[ebp]
	movss	DWORD PTR [ecx+eax+1068], xmm0
$LN24@DriveBoom:

; 825  : 
; 826  : 	if(boom[BOOM].ext - tmpRange > 5.0F * SimLibLastMajorFrameTime)

	mov	edx, DWORD PTR _this$[ebp]
	mov	eax, DWORD PTR [edx+1024]
	imul	eax, 28					; 0000001cH
	mov	ecx, DWORD PTR _this$[ebp]
	movss	xmm0, DWORD PTR [ecx+eax+1072]
	subss	xmm0, DWORD PTR _tmpRange$[ebp]
	movss	xmm1, DWORD PTR __real@40a00000
	mulss	xmm1, DWORD PTR ?SimLibLastMajorFrameTime@@3MA
	comiss	xmm0, xmm1
	jbe	SHORT $LN23@DriveBoom

; 827  : 		boom[BOOM].ext = boom[BOOM].ext - 5.0F * SimLibLastMajorFrameTime;

	mov	edx, DWORD PTR _this$[ebp]
	mov	eax, DWORD PTR [edx+1024]
	imul	eax, 28					; 0000001cH
	movss	xmm0, DWORD PTR __real@40a00000
	mulss	xmm0, DWORD PTR ?SimLibLastMajorFrameTime@@3MA
	mov	ecx, DWORD PTR _this$[ebp]
	movss	xmm1, DWORD PTR [ecx+eax+1072]
	subss	xmm1, xmm0
	mov	edx, DWORD PTR _this$[ebp]
	mov	eax, DWORD PTR [edx+1024]
	imul	eax, 28					; 0000001cH
	mov	ecx, DWORD PTR _this$[ebp]
	movss	DWORD PTR [ecx+eax+1072], xmm1
	jmp	$LN20@DriveBoom
$LN23@DriveBoom:

; 828  : 	else if(boom[BOOM].ext - tmpRange < -5.0F * SimLibLastMajorFrameTime)

	mov	edx, DWORD PTR _this$[ebp]
	mov	eax, DWORD PTR [edx+1024]
	imul	eax, 28					; 0000001cH
	mov	ecx, DWORD PTR _this$[ebp]
	movss	xmm0, DWORD PTR [ecx+eax+1072]
	subss	xmm0, DWORD PTR _tmpRange$[ebp]
	movss	xmm1, DWORD PTR __real@c0a00000
	mulss	xmm1, DWORD PTR ?SimLibLastMajorFrameTime@@3MA
	comiss	xmm1, xmm0
	jbe	SHORT $LN21@DriveBoom

; 829  : 		boom[BOOM].ext = boom[BOOM].ext + 5.0F * SimLibLastMajorFrameTime;

	mov	edx, DWORD PTR _this$[ebp]
	mov	eax, DWORD PTR [edx+1024]
	imul	eax, 28					; 0000001cH
	movss	xmm0, DWORD PTR __real@40a00000
	mulss	xmm0, DWORD PTR ?SimLibLastMajorFrameTime@@3MA
	mov	ecx, DWORD PTR _this$[ebp]
	addss	xmm0, DWORD PTR [ecx+eax+1072]
	mov	edx, DWORD PTR _this$[ebp]
	mov	eax, DWORD PTR [edx+1024]
	imul	eax, 28					; 0000001cH
	mov	ecx, DWORD PTR _this$[ebp]
	movss	DWORD PTR [ecx+eax+1072], xmm0

; 830  : 	else

	jmp	SHORT $LN20@DriveBoom
$LN21@DriveBoom:

; 831  : 		boom[BOOM].ext = tmpRange;	

	mov	edx, DWORD PTR _this$[ebp]
	mov	eax, DWORD PTR [edx+1024]
	imul	eax, 28					; 0000001cH
	mov	ecx, DWORD PTR _this$[ebp]
	movss	xmm0, DWORD PTR _tmpRange$[ebp]
	movss	DWORD PTR [ecx+eax+1072], xmm0
$LN20@DriveBoom:

; 832  : 	
; 833  : 	
; 834  : 	boom[BOOM].az = max ( min (boom[BOOM].az,  23.0F * DTR), -23.0F * DTR);

	mov	edx, DWORD PTR _this$[ebp]
	mov	eax, DWORD PTR [edx+1024]
	imul	eax, 28					; 0000001cH
	mov	ecx, DWORD PTR _this$[ebp]
	movss	xmm0, DWORD PTR __real@3ecd87ab
	comiss	xmm0, DWORD PTR [ecx+eax+1064]
	jbe	SHORT $LN106@DriveBoom
	mov	edx, DWORD PTR _this$[ebp]
	mov	eax, DWORD PTR [edx+1024]
	imul	eax, 28					; 0000001cH
	mov	ecx, DWORD PTR _this$[ebp]
	movss	xmm0, DWORD PTR [ecx+eax+1064]
	movss	DWORD PTR tv1174[ebp], xmm0
	jmp	SHORT $LN107@DriveBoom
$LN106@DriveBoom:
	movss	xmm0, DWORD PTR __real@3ecd87ab
	movss	DWORD PTR tv1174[ebp], xmm0
$LN107@DriveBoom:
	movss	xmm0, DWORD PTR tv1174[ebp]
	comiss	xmm0, DWORD PTR __real@becd87ab
	jbe	SHORT $LN110@DriveBoom
	mov	edx, DWORD PTR _this$[ebp]
	mov	eax, DWORD PTR [edx+1024]
	imul	eax, 28					; 0000001cH
	mov	ecx, DWORD PTR _this$[ebp]
	movss	xmm0, DWORD PTR __real@3ecd87ab
	comiss	xmm0, DWORD PTR [ecx+eax+1064]
	jbe	SHORT $LN108@DriveBoom
	mov	edx, DWORD PTR _this$[ebp]
	mov	eax, DWORD PTR [edx+1024]
	imul	eax, 28					; 0000001cH
	mov	ecx, DWORD PTR _this$[ebp]
	movss	xmm0, DWORD PTR [ecx+eax+1064]
	movss	DWORD PTR tv1191[ebp], xmm0
	jmp	SHORT $LN109@DriveBoom
$LN108@DriveBoom:
	movss	xmm0, DWORD PTR __real@3ecd87ab
	movss	DWORD PTR tv1191[ebp], xmm0
$LN109@DriveBoom:
	movss	xmm0, DWORD PTR tv1191[ebp]
	movss	DWORD PTR tv1192[ebp], xmm0
	jmp	SHORT $LN111@DriveBoom
$LN110@DriveBoom:
	movss	xmm0, DWORD PTR __real@becd87ab
	movss	DWORD PTR tv1192[ebp], xmm0
$LN111@DriveBoom:
	mov	edx, DWORD PTR _this$[ebp]
	mov	eax, DWORD PTR [edx+1024]
	imul	eax, 28					; 0000001cH
	mov	ecx, DWORD PTR _this$[ebp]
	movss	xmm0, DWORD PTR tv1192[ebp]
	movss	DWORD PTR [ecx+eax+1064], xmm0

; 835  : 	boom[BOOM].el = max ( min (boom[BOOM].el, self->af->GetBoomStoredAngle() * DTR), -40.0F * DTR);  // <== 12DEC03 - FRB use tanker boom stored angle

	mov	edx, DWORD PTR _this$[ebp]
	mov	eax, DWORD PTR [edx+1024]
	imul	eax, 28					; 0000001cH
	mov	ecx, DWORD PTR _this$[ebp]
	movss	xmm0, DWORD PTR [ecx+eax+1068]
	mov	edx, DWORD PTR _this$[ebp]
	mov	eax, DWORD PTR [edx+56]
	mov	ecx, DWORD PTR [eax+932]
	movss	DWORD PTR tv2985[ebp], xmm0
	call	?GetBoomStoredAngle@AirframeClass@@QAEMXZ ; AirframeClass::GetBoomStoredAngle
	fstp	DWORD PTR tv2627[ebp]
	movss	xmm0, DWORD PTR tv2627[ebp]
	mulss	xmm0, DWORD PTR __real@3c8efa34
	movss	xmm1, DWORD PTR tv2985[ebp]
	comiss	xmm0, xmm1
	jbe	SHORT $LN112@DriveBoom
	mov	ecx, DWORD PTR _this$[ebp]
	mov	edx, DWORD PTR [ecx+1024]
	imul	edx, 28					; 0000001cH
	mov	eax, DWORD PTR _this$[ebp]
	movss	xmm0, DWORD PTR [eax+edx+1068]
	movss	DWORD PTR tv1234[ebp], xmm0
	jmp	SHORT $LN113@DriveBoom
$LN112@DriveBoom:
	mov	ecx, DWORD PTR _this$[ebp]
	mov	edx, DWORD PTR [ecx+56]
	mov	ecx, DWORD PTR [edx+932]
	call	?GetBoomStoredAngle@AirframeClass@@QAEMXZ ; AirframeClass::GetBoomStoredAngle
	fstp	DWORD PTR tv2635[ebp]
	movss	xmm0, DWORD PTR tv2635[ebp]
	mulss	xmm0, DWORD PTR __real@3c8efa34
	movss	DWORD PTR tv1234[ebp], xmm0
$LN113@DriveBoom:
	movss	xmm0, DWORD PTR tv1234[ebp]
	comiss	xmm0, DWORD PTR __real@bf32b8c1
	jbe	$LN116@DriveBoom
	mov	eax, DWORD PTR _this$[ebp]
	mov	ecx, DWORD PTR [eax+1024]
	imul	ecx, 28					; 0000001cH
	mov	edx, DWORD PTR _this$[ebp]
	movss	xmm0, DWORD PTR [edx+ecx+1068]
	mov	eax, DWORD PTR _this$[ebp]
	mov	ecx, DWORD PTR [eax+56]
	mov	ecx, DWORD PTR [ecx+932]
	movss	DWORD PTR tv2987[ebp], xmm0
	call	?GetBoomStoredAngle@AirframeClass@@QAEMXZ ; AirframeClass::GetBoomStoredAngle
	fstp	DWORD PTR tv2644[ebp]
	movss	xmm0, DWORD PTR tv2644[ebp]
	mulss	xmm0, DWORD PTR __real@3c8efa34
	movss	xmm1, DWORD PTR tv2987[ebp]
	comiss	xmm0, xmm1
	jbe	SHORT $LN114@DriveBoom
	mov	edx, DWORD PTR _this$[ebp]
	mov	eax, DWORD PTR [edx+1024]
	imul	eax, 28					; 0000001cH
	mov	ecx, DWORD PTR _this$[ebp]
	movss	xmm0, DWORD PTR [ecx+eax+1068]
	movss	DWORD PTR tv1271[ebp], xmm0
	jmp	SHORT $LN115@DriveBoom
$LN114@DriveBoom:
	mov	edx, DWORD PTR _this$[ebp]
	mov	eax, DWORD PTR [edx+56]
	mov	ecx, DWORD PTR [eax+932]
	call	?GetBoomStoredAngle@AirframeClass@@QAEMXZ ; AirframeClass::GetBoomStoredAngle
	fstp	DWORD PTR tv2652[ebp]
	movss	xmm0, DWORD PTR tv2652[ebp]
	mulss	xmm0, DWORD PTR __real@3c8efa34
	movss	DWORD PTR tv1271[ebp], xmm0
$LN115@DriveBoom:
	movss	xmm0, DWORD PTR tv1271[ebp]
	movss	DWORD PTR tv1272[ebp], xmm0
	jmp	SHORT $LN117@DriveBoom
$LN116@DriveBoom:
	movss	xmm0, DWORD PTR __real@bf32b8c1
	movss	DWORD PTR tv1272[ebp], xmm0
$LN117@DriveBoom:
	mov	ecx, DWORD PTR _this$[ebp]
	mov	edx, DWORD PTR [ecx+1024]
	imul	edx, 28					; 0000001cH
	mov	eax, DWORD PTR _this$[ebp]
	movss	xmm0, DWORD PTR tv1272[ebp]
	movss	DWORD PTR [eax+edx+1068], xmm0

; 836  : 	boom[BOOM].ext = max ( min (boom[BOOM].ext, 27.0F), 1.0F); 

	mov	ecx, DWORD PTR _this$[ebp]
	mov	edx, DWORD PTR [ecx+1024]
	imul	edx, 28					; 0000001cH
	mov	eax, DWORD PTR _this$[ebp]
	movss	xmm0, DWORD PTR __real@41d80000
	comiss	xmm0, DWORD PTR [eax+edx+1072]
	jbe	SHORT $LN118@DriveBoom
	mov	ecx, DWORD PTR _this$[ebp]
	mov	edx, DWORD PTR [ecx+1024]
	imul	edx, 28					; 0000001cH
	mov	eax, DWORD PTR _this$[ebp]
	movss	xmm0, DWORD PTR [eax+edx+1072]
	movss	DWORD PTR tv1294[ebp], xmm0
	jmp	SHORT $LN119@DriveBoom
$LN118@DriveBoom:
	movss	xmm0, DWORD PTR __real@41d80000
	movss	DWORD PTR tv1294[ebp], xmm0
$LN119@DriveBoom:
	movss	xmm0, DWORD PTR tv1294[ebp]
	comiss	xmm0, DWORD PTR __real@3f800000
	jbe	SHORT $LN122@DriveBoom
	mov	ecx, DWORD PTR _this$[ebp]
	mov	edx, DWORD PTR [ecx+1024]
	imul	edx, 28					; 0000001cH
	mov	eax, DWORD PTR _this$[ebp]
	movss	xmm0, DWORD PTR __real@41d80000
	comiss	xmm0, DWORD PTR [eax+edx+1072]
	jbe	SHORT $LN120@DriveBoom
	mov	ecx, DWORD PTR _this$[ebp]
	mov	edx, DWORD PTR [ecx+1024]
	imul	edx, 28					; 0000001cH
	mov	eax, DWORD PTR _this$[ebp]
	movss	xmm0, DWORD PTR [eax+edx+1072]
	movss	DWORD PTR tv1311[ebp], xmm0
	jmp	SHORT $LN121@DriveBoom
$LN120@DriveBoom:
	movss	xmm0, DWORD PTR __real@41d80000
	movss	DWORD PTR tv1311[ebp], xmm0
$LN121@DriveBoom:
	movss	xmm0, DWORD PTR tv1311[ebp]
	movss	DWORD PTR tv1312[ebp], xmm0
	jmp	SHORT $LN123@DriveBoom
$LN122@DriveBoom:
	movss	xmm0, DWORD PTR __real@3f800000
	movss	DWORD PTR tv1312[ebp], xmm0
$LN123@DriveBoom:
	mov	ecx, DWORD PTR _this$[ebp]
	mov	edx, DWORD PTR [ecx+1024]
	imul	edx, 28					; 0000001cH
	mov	eax, DWORD PTR _this$[ebp]
	movss	xmm0, DWORD PTR tv1312[ebp]
	movss	DWORD PTR [eax+edx+1072], xmm0

; 837  : 
; 838  : 	/*		
; 839  : 	Tpoint boomtip, receptor, recWPos;
; 840  : 	BoomTipPosition(&boomtip);
; 841  : 
; 842  : 	receptor.x = 0.0F;
; 843  : 	receptor.y = 0.0F;
; 844  : 	receptor.z = -3.0F;
; 845  : 	
; 846  : 	MatrixMult( &((DrawableBSP*)((SimVehicleClass*)tankingPtr->BaseData())->drawPointer)->orientation, &receptor, &recWPos );
; 847  : 	recWPos.x += tankingPtr->BaseData()->XPos();
; 848  : 	recWPos.y += tankingPtr->BaseData()->YPos();
; 849  : 	recWPos.z += tankingPtr->BaseData()->ZPos();
; 850  : 	*/
; 851  : 	
; 852  : 	boom[BOOM].drawPointer->SetDOFangle(BOOM_AZIMUTH, -boom[BOOM].az);

	mov	ecx, DWORD PTR _this$[ebp]
	mov	edx, DWORD PTR [ecx+1024]
	imul	edx, 28					; 0000001cH
	mov	eax, DWORD PTR _this$[ebp]
	movss	xmm0, DWORD PTR [eax+edx+1064]
	xorps	xmm0, DWORD PTR __xmm@80000000800000008000000080000000
	push	ecx
	movss	DWORD PTR [esp], xmm0
	push	0
	mov	ecx, DWORD PTR _this$[ebp]
	mov	edx, DWORD PTR [ecx+1024]
	imul	edx, 28					; 0000001cH
	mov	eax, DWORD PTR _this$[ebp]
	mov	ecx, DWORD PTR [eax+edx+1060]
	call	?SetDOFangle@DrawableBSP@@QAEXHM@Z	; DrawableBSP::SetDOFangle

; 853  : 	boom[BOOM].drawPointer->SetDOFangle(BOOM_ELEVATION, -boom[BOOM].el);

	mov	ecx, DWORD PTR _this$[ebp]
	mov	edx, DWORD PTR [ecx+1024]
	imul	edx, 28					; 0000001cH
	mov	eax, DWORD PTR _this$[ebp]
	movss	xmm0, DWORD PTR [eax+edx+1068]
	xorps	xmm0, DWORD PTR __xmm@80000000800000008000000080000000
	push	ecx
	movss	DWORD PTR [esp], xmm0
	push	1
	mov	ecx, DWORD PTR _this$[ebp]
	mov	edx, DWORD PTR [ecx+1024]
	imul	edx, 28					; 0000001cH
	mov	eax, DWORD PTR _this$[ebp]
	mov	ecx, DWORD PTR [eax+edx+1060]
	call	?SetDOFangle@DrawableBSP@@QAEXHM@Z	; DrawableBSP::SetDOFangle

; 854  : 	boom[BOOM].drawPointer->SetDOFoffset(BOOM_EXTENSION, boom[BOOM].ext);

	mov	ecx, DWORD PTR _this$[ebp]
	mov	edx, DWORD PTR [ecx+1024]
	imul	edx, 28					; 0000001cH
	mov	eax, DWORD PTR _this$[ebp]
	push	ecx
	movss	xmm0, DWORD PTR [eax+edx+1072]
	movss	DWORD PTR [esp], xmm0
	push	2
	mov	ecx, DWORD PTR _this$[ebp]
	mov	edx, DWORD PTR [ecx+1024]
	imul	edx, 28					; 0000001cH
	mov	eax, DWORD PTR _this$[ebp]
	mov	ecx, DWORD PTR [eax+edx+1060]
	call	?SetDOFoffset@DrawableBSP@@QAEXHM@Z	; DrawableBSP::SetDOFoffset

; 855  : 
; 856  : // OW - sylvains refuelling fix
; 857  : // S.G. ADDED SO AI PILOTS HAVE AN EASIER JOB AT REFUELLING THAN THE PLAYERS
; 858  : 	  float tmpRefuelMode;
; 859  : 	  float ScaledRM = 1.0f; // FRB

	movss	xmm0, DWORD PTR __real@3f800000
	movss	DWORD PTR _ScaledRM$[ebp], xmm0

; 860  : 	  
; 861  : 	  // Is it the player here
; 862  : 	  if (curThirsty == SimDriver.GetPlayerEntity())

	mov	ecx, OFFSET ?SimDriver@@3VSimulationDriver@@A ; SimDriver
	call	?GetPlayerEntity@SimulationDriver@@QBEPAVSimMoverClass@@XZ ; SimulationDriver::GetPlayerEntity
	mov	ecx, DWORD PTR _this$[ebp]
	cmp	DWORD PTR [ecx+980], eax
	jne	SHORT $LN19@DriveBoom

; 863  : 			ScaledRM = tmpRefuelMode = static_cast<float>(PlayerOptions.GetRefuelingMode());

	mov	ecx, OFFSET ?PlayerOptions@@3VPlayerOptionsClass@@A ; PlayerOptions
	call	?GetRefuelingMode@PlayerOptionsClass@@QAEHXZ ; PlayerOptionsClass::GetRefuelingMode
	cvtsi2ss xmm0, eax
	movss	DWORD PTR _tmpRefuelMode$[ebp], xmm0
	movss	xmm0, DWORD PTR _tmpRefuelMode$[ebp]
	movss	DWORD PTR _ScaledRM$[ebp], xmm0

; 864  : 	  // Nope, use 'very' easy refuelling
; 865  : 	  else

	jmp	SHORT $LN18@DriveBoom
$LN19@DriveBoom:

; 866  : 		{
; 867  : 			tmpRefuelMode = 4.0f;

	movss	xmm0, DWORD PTR __real@40800000
	movss	DWORD PTR _tmpRefuelMode$[ebp], xmm0

; 868  : 		  ScaledRM = 2.0f;  // FRB - Decrease AI hookup tolerance factor

	movss	xmm0, DWORD PTR __real@40000000
	movss	DWORD PTR _ScaledRM$[ebp], xmm0
$LN18@DriveBoom:

; 869  : 		}
; 870  : 		if (tmpRefuelMode == 3.0f)

	movss	xmm0, DWORD PTR _tmpRefuelMode$[ebp]
	ucomiss	xmm0, DWORD PTR __real@40400000
	lahf
	test	ah, 68					; 00000044H
	jp	SHORT $LN17@DriveBoom

; 871  : 		  ScaledRM = 2.0f;  // FRB - Decrease Easy hookup tolerance factor

	movss	xmm0, DWORD PTR __real@40000000
	movss	DWORD PTR _ScaledRM$[ebp], xmm0
$LN17@DriveBoom:

; 872  : 
; 873  : // THERE WILL BE FOUR USE OF tmpRefuelMode IN THE NEXT if/else if/else statement. THESE USED TO BE PlayerOptions.GetRefuelingMode()
; 874  : // END OF ADDED SECTION
; 875  : 
; 876  :  		if (curThirsty && g_nShowDebugLabels & 0x4000)

	mov	edx, DWORD PTR _this$[ebp]
	cmp	DWORD PTR [edx+980], 0
	je	$LN16@DriveBoom
	mov	eax, DWORD PTR ?g_nShowDebugLabels@@3HA	; g_nShowDebugLabels
	and	eax, 16384				; 00004000H
	je	$LN16@DriveBoom

; 877  :  		{
; 878  :  			char label[31];
; 879  : // 			sprintf(label,"tot*%5.1f tmp*%5.1f R*%5.1f",totalrange, tmpRange, tankingPtr->localData->range);
; 880  :  			sprintf(label,"%5.1f %5.1f %5.1f",BoomRFPos.x, BoomRFPos.y, BoomRFPos.z);

	mov	ecx, DWORD PTR _this$[ebp]
	cvtss2sd xmm0, DWORD PTR [ecx+1016]
	sub	esp, 8
	movsd	QWORD PTR [esp], xmm0
	mov	edx, DWORD PTR _this$[ebp]
	cvtss2sd xmm0, DWORD PTR [edx+1012]
	sub	esp, 8
	movsd	QWORD PTR [esp], xmm0
	mov	eax, DWORD PTR _this$[ebp]
	cvtss2sd xmm0, DWORD PTR [eax+1008]
	sub	esp, 8
	movsd	QWORD PTR [esp], xmm0
	push	OFFSET ??_C@_0BC@GJIPNCPH@?$CF5?41f?5?$CF5?41f?5?$CF5?41f?$AA@
	lea	ecx, DWORD PTR _label$38[ebp]
	push	ecx
	call	_sprintf
	add	esp, 32					; 00000020H

; 881  : 			((DrawableBSP*)curThirsty->drawPointer)->SetLabel (label, ((DrawableBSP*)curThirsty->drawPointer)->LabelColor());

	mov	edx, DWORD PTR _this$[ebp]
	mov	eax, DWORD PTR [edx+980]
	mov	ecx, DWORD PTR [eax+332]
	call	?LabelColor@DrawableBSP@@QAEKXZ		; DrawableBSP::LabelColor
	push	eax
	lea	ecx, DWORD PTR _label$38[ebp]
	push	ecx
	mov	edx, DWORD PTR _this$[ebp]
	mov	eax, DWORD PTR [edx+980]
	mov	ecx, DWORD PTR [eax+332]
	mov	edx, DWORD PTR _this$[ebp]
	mov	eax, DWORD PTR [edx+980]
	mov	edx, DWORD PTR [ecx]
	mov	ecx, DWORD PTR [eax+332]
	mov	eax, DWORD PTR [edx+8]
	call	eax
$LN16@DriveBoom:

; 882  :  		}
; 883  : 
; 884  : 
; 885  : 	if (!(flags & (GivingGas | ClearingPlane)) && tankingPtr)

	mov	ecx, DWORD PTR _this$[ebp]
	mov	edx, DWORD PTR [ecx+1200]
	and	edx, 68					; 00000044H
	jne	$LN15@DriveBoom
	mov	eax, DWORD PTR _this$[ebp]
	cmp	DWORD PTR [eax+1208], 0
	je	$LN15@DriveBoom

; 886  : 	{			
; 887  : 		if ((fabs(boom[BOOM].ext - tankingPtr->localData->range + 33.5F) < 1.0F * /*FRB*/ ScaledRM &&
; 888  : 			fabs(boom[BOOM].az - tmpAz)*RTD < 1.0F * /*FRB*/ ScaledRM &&
; 889  : 			fabs(boom[BOOM].el - tankingPtr->localData->el)*RTD < 1.0F * /*FRB*/ ScaledRM &&
; 890  : 			boom[BOOM].el*RTD < -26.1F && boom[BOOM].el*RTD > -38.9F && fabs(boom[BOOM].az)*RTD < 20.0F /* &&
; 891  : 			fabs(tankingPtr->BaseData()->Roll())*RTD < 4.0F * /* S.G.*/ // ScaledRM &&
; 892  : 			// fabs(tankingPtr->BaseData()->Pitch())*RTD < 4.0F * /* S.G.*/ ScaledRM) */  JPG 14 Jan03 - End of Line 881 thru 883 - pitch and roll isn't needed
; 893  : 			|| ((flags & AIready) && (tmpRefuelMode >= 3.0f))))	// 27NOV03 - FRB  AI is in position

	mov	ecx, DWORD PTR _this$[ebp]
	mov	edx, DWORD PTR [ecx+1024]
	imul	edx, 28					; 0000001cH
	mov	eax, DWORD PTR _this$[ebp]
	mov	ecx, DWORD PTR [eax+1208]
	mov	eax, DWORD PTR [ecx+12]
	mov	ecx, DWORD PTR _this$[ebp]
	movss	xmm0, DWORD PTR [ecx+edx+1072]
	subss	xmm0, DWORD PTR [eax+44]
	addss	xmm0, DWORD PTR __real@42060000
	push	ecx
	movss	DWORD PTR [esp], xmm0
	call	?fabs@@YAMM@Z				; fabs
	add	esp, 4
	fstp	DWORD PTR tv2744[ebp]
	movss	xmm0, DWORD PTR __real@3f800000
	mulss	xmm0, DWORD PTR _ScaledRM$[ebp]
	comiss	xmm0, DWORD PTR tv2744[ebp]
	jbe	$LN12@DriveBoom
	mov	edx, DWORD PTR _this$[ebp]
	mov	eax, DWORD PTR [edx+1024]
	imul	eax, 28					; 0000001cH
	mov	ecx, DWORD PTR _this$[ebp]
	movss	xmm0, DWORD PTR [ecx+eax+1064]
	subss	xmm0, DWORD PTR _tmpAz$[ebp]
	push	ecx
	movss	DWORD PTR [esp], xmm0
	call	?fabs@@YAMM@Z				; fabs
	add	esp, 4
	fstp	DWORD PTR tv2754[ebp]
	movss	xmm0, DWORD PTR tv2754[ebp]
	mulss	xmm0, DWORD PTR __real@42652ee1
	movss	xmm1, DWORD PTR __real@3f800000
	mulss	xmm1, DWORD PTR _ScaledRM$[ebp]
	comiss	xmm1, xmm0
	jbe	$LN12@DriveBoom
	mov	edx, DWORD PTR _this$[ebp]
	mov	eax, DWORD PTR [edx+1024]
	imul	eax, 28					; 0000001cH
	mov	ecx, DWORD PTR _this$[ebp]
	mov	edx, DWORD PTR [ecx+1208]
	mov	ecx, DWORD PTR [edx+12]
	mov	edx, DWORD PTR _this$[ebp]
	movss	xmm0, DWORD PTR [edx+eax+1068]
	subss	xmm0, DWORD PTR [ecx+28]
	push	ecx
	movss	DWORD PTR [esp], xmm0
	call	?fabs@@YAMM@Z				; fabs
	add	esp, 4
	fstp	DWORD PTR tv2765[ebp]
	movss	xmm0, DWORD PTR tv2765[ebp]
	mulss	xmm0, DWORD PTR __real@42652ee1
	movss	xmm1, DWORD PTR __real@3f800000
	mulss	xmm1, DWORD PTR _ScaledRM$[ebp]
	comiss	xmm1, xmm0
	jbe	$LN12@DriveBoom
	mov	eax, DWORD PTR _this$[ebp]
	mov	ecx, DWORD PTR [eax+1024]
	imul	ecx, 28					; 0000001cH
	mov	edx, DWORD PTR _this$[ebp]
	movss	xmm0, DWORD PTR [edx+ecx+1068]
	mulss	xmm0, DWORD PTR __real@42652ee1
	movss	xmm1, DWORD PTR __real@c1d0cccd
	comiss	xmm1, xmm0
	jbe	SHORT $LN12@DriveBoom
	mov	eax, DWORD PTR _this$[ebp]
	mov	ecx, DWORD PTR [eax+1024]
	imul	ecx, 28					; 0000001cH
	mov	edx, DWORD PTR _this$[ebp]
	movss	xmm0, DWORD PTR [edx+ecx+1068]
	mulss	xmm0, DWORD PTR __real@42652ee1
	comiss	xmm0, DWORD PTR __real@c21b999a
	jbe	SHORT $LN12@DriveBoom
	mov	eax, DWORD PTR _this$[ebp]
	mov	ecx, DWORD PTR [eax+1024]
	imul	ecx, 28					; 0000001cH
	mov	edx, DWORD PTR _this$[ebp]
	push	ecx
	movss	xmm0, DWORD PTR [edx+ecx+1064]
	movss	DWORD PTR [esp], xmm0
	call	?fabs@@YAMM@Z				; fabs
	add	esp, 4
	fstp	DWORD PTR tv2784[ebp]
	movss	xmm0, DWORD PTR tv2784[ebp]
	mulss	xmm0, DWORD PTR __real@42652ee1
	movss	xmm1, DWORD PTR __real@41a00000
	comiss	xmm1, xmm0
	ja	SHORT $LN13@DriveBoom
$LN12@DriveBoom:
	mov	eax, DWORD PTR _this$[ebp]
	mov	ecx, DWORD PTR [eax+1200]
	and	ecx, 128				; 00000080H
	je	$LN14@DriveBoom
	movss	xmm0, DWORD PTR _tmpRefuelMode$[ebp]
	comiss	xmm0, DWORD PTR __real@40400000
	jb	$LN14@DriveBoom
$LN13@DriveBoom:

; 894  : 		{
; 895  : 			flags |= GivingGas;

	mov	edx, DWORD PTR _this$[ebp]
	mov	eax, DWORD PTR [edx+1200]
	or	eax, 4
	mov	ecx, DWORD PTR _this$[ebp]
	mov	DWORD PTR [ecx+1200], eax

; 896  : 			flags &= ~AIready;

	mov	edx, DWORD PTR _this$[ebp]
	mov	eax, DWORD PTR [edx+1200]
	and	eax, -129				; ffffff7fH
	mov	ecx, DWORD PTR _this$[ebp]
	mov	DWORD PTR [ecx+1200], eax

; 897  : 			tankMsg = new FalconTankerMessage (self->Id(), FalconLocalGame);

	push	68					; 00000044H
	call	??2@YAPAXI@Z				; operator new
	add	esp, 4
	mov	DWORD PTR $T25[ebp], eax
	mov	DWORD PTR __$EHRec$[ebp+8], 4
	cmp	DWORD PTR $T25[ebp], 0
	je	SHORT $LN126@DriveBoom
	mov	ecx, OFFSET ?vuLocalSessionEntity@@3V?$VuBin@VVuSessionEntity@@@@A ; vuLocalSessionEntity
	call	??B?$VuBin@VVuSessionEntity@@@@QBE_NXZ	; VuBin<VuSessionEntity>::operator bool
	movzx	edx, al
	test	edx, edx
	je	SHORT $LN124@DriveBoom
	mov	ecx, OFFSET ?vuLocalSessionEntity@@3V?$VuBin@VVuSessionEntity@@@@A ; vuLocalSessionEntity
	call	?get@?$VuBin@VVuSessionEntity@@@@QBEPAVVuSessionEntity@@XZ ; VuBin<VuSessionEntity>::get
	mov	ecx, eax
	call	?GetGame@FalconSessionEntity@@QAEPAVFalconGameEntity@@XZ ; FalconSessionEntity::GetGame
	mov	DWORD PTR tv1531[ebp], eax
	jmp	SHORT $LN125@DriveBoom
$LN124@DriveBoom:
	mov	DWORD PTR tv1531[ebp], 0
$LN125@DriveBoom:
	push	1
	mov	eax, DWORD PTR tv1531[ebp]
	push	eax
	lea	ecx, DWORD PTR $T11[ebp]
	push	ecx
	mov	edx, DWORD PTR _this$[ebp]
	mov	ecx, DWORD PTR [edx+56]
	call	?Id@VuEntity@@QBE?AVVU_ID@@XZ		; VuEntity::Id
	mov	ecx, DWORD PTR [eax+4]
	push	ecx
	mov	edx, DWORD PTR [eax]
	push	edx
	mov	ecx, DWORD PTR $T25[ebp]
	call	??0FalconTankerMessage@@QAE@VVU_ID@@PAVVuTargetEntity@@E@Z ; FalconTankerMessage::FalconTankerMessage
	mov	DWORD PTR tv1579[ebp], eax
	jmp	SHORT $LN127@DriveBoom
$LN126@DriveBoom:
	mov	DWORD PTR tv1579[ebp], 0
$LN127@DriveBoom:
	mov	eax, DWORD PTR tv1579[ebp]
	mov	DWORD PTR $T21[ebp], eax
	mov	DWORD PTR __$EHRec$[ebp+8], -1
	mov	ecx, DWORD PTR $T21[ebp]
	mov	DWORD PTR _tankMsg$[ebp], ecx

; 898  : 			tankMsg->dataBlock.caller = curThirsty->Id();

	lea	edx, DWORD PTR $T3[ebp]
	push	edx
	mov	eax, DWORD PTR _this$[ebp]
	mov	ecx, DWORD PTR [eax+980]
	call	?Id@VuEntity@@QBE?AVVU_ID@@XZ		; VuEntity::Id
	mov	ecx, DWORD PTR [eax]
	mov	edx, DWORD PTR [eax+4]
	mov	eax, DWORD PTR _tankMsg$[ebp]
	mov	DWORD PTR [eax+48], ecx
	mov	DWORD PTR [eax+52], edx

; 899  : 			tankMsg->dataBlock.type = FalconTankerMessage::Contact;

	mov	ecx, DWORD PTR _tankMsg$[ebp]
	mov	DWORD PTR [ecx+56], 3

; 900  : 			tankMsg->dataBlock.data1 = tankMsg->dataBlock.data2 = 0;

	mov	edx, DWORD PTR _tankMsg$[ebp]
	movss	xmm0, DWORD PTR __real@00000000
	movss	DWORD PTR [edx+64], xmm0
	mov	eax, DWORD PTR _tankMsg$[ebp]
	movss	xmm0, DWORD PTR __real@00000000
	movss	DWORD PTR [eax+60], xmm0

; 901  : 			FalconSendMessage (tankMsg);

	push	0
	mov	ecx, DWORD PTR _tankMsg$[ebp]
	push	ecx
	call	?FalconSendMessage@@YAXPAVVuMessage@@H@Z ; FalconSendMessage
	add	esp, 8
$LN14@DriveBoom:

; 902  : 		}
; 903  : 	}

	jmp	$LN2@DriveBoom
$LN15@DriveBoom:

; 904  : 	else if(tankingPtr && !(flags & ClearingPlane))

	mov	edx, DWORD PTR _this$[ebp]
	cmp	DWORD PTR [edx+1208], 0
	je	$LN10@DriveBoom
	mov	eax, DWORD PTR _this$[ebp]
	mov	ecx, DWORD PTR [eax+1200]
	and	ecx, 64					; 00000040H
	jne	$LN10@DriveBoom

; 905  : 	{
; 906  : 		if (fabs(boom[BOOM].ext - tankingPtr->localData->range + 33.5F) > 2.0F ||
; 907  : 			fabs(boom[BOOM].az - tmpAz)*RTD > 2.0F * /*FRB*/ ScaledRM ||
; 908  : 			fabs(boom[BOOM].el - tankingPtr->localData->el)*RTD > 2.0F ||
; 909  : 			fabs(tankingPtr->BaseData()->Roll())*RTD > 20.0F * /* S.G.*/ ScaledRM ||  // JPG 14 Jan 03 - 20 prevents tons of disconnects in the turn
; 910  : 			fabs(tankingPtr->BaseData()->Pitch())*RTD > 20.0F * /* S.G.*/ ScaledRM ||
; 911  : 			tankingPtr->localData->el*RTD > -25.0F || 
; 912  : 			tankingPtr->localData->el*RTD < -40.0F || 
; 913  : 			fabs(tankingPtr->localData->az)*RTD > 23.0F )

	mov	edx, DWORD PTR _this$[ebp]
	mov	eax, DWORD PTR [edx+1024]
	imul	eax, 28					; 0000001cH
	mov	ecx, DWORD PTR _this$[ebp]
	mov	edx, DWORD PTR [ecx+1208]
	mov	ecx, DWORD PTR [edx+12]
	mov	edx, DWORD PTR _this$[ebp]
	movss	xmm0, DWORD PTR [edx+eax+1072]
	subss	xmm0, DWORD PTR [ecx+44]
	addss	xmm0, DWORD PTR __real@42060000
	push	ecx
	movss	DWORD PTR [esp], xmm0
	call	?fabs@@YAMM@Z				; fabs
	add	esp, 4
	fstp	DWORD PTR tv2837[ebp]
	movss	xmm0, DWORD PTR tv2837[ebp]
	comiss	xmm0, DWORD PTR __real@40000000
	ja	$LN8@DriveBoom
	mov	eax, DWORD PTR _this$[ebp]
	mov	ecx, DWORD PTR [eax+1024]
	imul	ecx, 28					; 0000001cH
	mov	edx, DWORD PTR _this$[ebp]
	movss	xmm0, DWORD PTR [edx+ecx+1064]
	subss	xmm0, DWORD PTR _tmpAz$[ebp]
	push	ecx
	movss	DWORD PTR [esp], xmm0
	call	?fabs@@YAMM@Z				; fabs
	add	esp, 4
	fstp	DWORD PTR tv2846[ebp]
	movss	xmm0, DWORD PTR tv2846[ebp]
	mulss	xmm0, DWORD PTR __real@42652ee1
	movss	xmm1, DWORD PTR __real@40000000
	mulss	xmm1, DWORD PTR _ScaledRM$[ebp]
	comiss	xmm0, xmm1
	ja	$LN8@DriveBoom
	mov	eax, DWORD PTR _this$[ebp]
	mov	ecx, DWORD PTR [eax+1024]
	imul	ecx, 28					; 0000001cH
	mov	edx, DWORD PTR _this$[ebp]
	mov	eax, DWORD PTR [edx+1208]
	mov	edx, DWORD PTR [eax+12]
	mov	eax, DWORD PTR _this$[ebp]
	movss	xmm0, DWORD PTR [eax+ecx+1068]
	subss	xmm0, DWORD PTR [edx+28]
	push	ecx
	movss	DWORD PTR [esp], xmm0
	call	?fabs@@YAMM@Z				; fabs
	add	esp, 4
	fstp	DWORD PTR tv2857[ebp]
	movss	xmm0, DWORD PTR tv2857[ebp]
	mulss	xmm0, DWORD PTR __real@42652ee1
	comiss	xmm0, DWORD PTR __real@40000000
	ja	$LN8@DriveBoom
	mov	ecx, DWORD PTR _this$[ebp]
	mov	ecx, DWORD PTR [ecx+1208]
	call	?BaseData@SimObjectType@@QAEPAVFalconEntity@@XZ ; SimObjectType::BaseData
	mov	ecx, eax
	call	?Roll@VuEntity@@QBEMXZ			; VuEntity::Roll
	push	ecx
	fstp	DWORD PTR [esp]
	call	?fabs@@YAMM@Z				; fabs
	add	esp, 4
	fstp	DWORD PTR tv2867[ebp]
	movss	xmm0, DWORD PTR tv2867[ebp]
	mulss	xmm0, DWORD PTR __real@42652ee1
	movss	xmm1, DWORD PTR __real@41a00000
	mulss	xmm1, DWORD PTR _ScaledRM$[ebp]
	comiss	xmm0, xmm1
	ja	$LN8@DriveBoom
	mov	edx, DWORD PTR _this$[ebp]
	mov	ecx, DWORD PTR [edx+1208]
	call	?BaseData@SimObjectType@@QAEPAVFalconEntity@@XZ ; SimObjectType::BaseData
	mov	ecx, eax
	call	?Pitch@VuEntity@@QBEMXZ			; VuEntity::Pitch
	push	ecx
	fstp	DWORD PTR [esp]
	call	?fabs@@YAMM@Z				; fabs
	add	esp, 4
	fstp	DWORD PTR tv2878[ebp]
	movss	xmm0, DWORD PTR tv2878[ebp]
	mulss	xmm0, DWORD PTR __real@42652ee1
	movss	xmm1, DWORD PTR __real@41a00000
	mulss	xmm1, DWORD PTR _ScaledRM$[ebp]
	comiss	xmm0, xmm1
	ja	$LN8@DriveBoom
	mov	eax, DWORD PTR _this$[ebp]
	mov	ecx, DWORD PTR [eax+1208]
	mov	edx, DWORD PTR [ecx+12]
	movss	xmm0, DWORD PTR [edx+28]
	mulss	xmm0, DWORD PTR __real@42652ee1
	comiss	xmm0, DWORD PTR __real@c1c80000
	ja	SHORT $LN8@DriveBoom
	mov	eax, DWORD PTR _this$[ebp]
	mov	ecx, DWORD PTR [eax+1208]
	mov	edx, DWORD PTR [ecx+12]
	movss	xmm0, DWORD PTR [edx+28]
	mulss	xmm0, DWORD PTR __real@42652ee1
	movss	xmm1, DWORD PTR __real@c2200000
	comiss	xmm1, xmm0
	ja	SHORT $LN8@DriveBoom
	mov	eax, DWORD PTR _this$[ebp]
	mov	ecx, DWORD PTR [eax+1208]
	mov	edx, DWORD PTR [ecx+12]
	push	ecx
	movss	xmm0, DWORD PTR [edx+16]
	movss	DWORD PTR [esp], xmm0
	call	?fabs@@YAMM@Z				; fabs
	add	esp, 4
	fstp	DWORD PTR tv2891[ebp]
	movss	xmm0, DWORD PTR tv2891[ebp]
	mulss	xmm0, DWORD PTR __real@42652ee1
	comiss	xmm0, DWORD PTR __real@41b80000
	jbe	$LN9@DriveBoom
$LN8@DriveBoom:

; 914  : 		{
; 915  : 			flags &= ~GivingGas;

	mov	eax, DWORD PTR _this$[ebp]
	mov	ecx, DWORD PTR [eax+1200]
	and	ecx, -5					; fffffffbH
	mov	edx, DWORD PTR _this$[ebp]
	mov	DWORD PTR [edx+1200], ecx

; 916  : 			tankMsg = new FalconTankerMessage (self->Id(), FalconLocalGame);

	push	68					; 00000044H
	call	??2@YAPAXI@Z				; operator new
	add	esp, 4
	mov	DWORD PTR $T24[ebp], eax
	mov	DWORD PTR __$EHRec$[ebp+8], 5
	cmp	DWORD PTR $T24[ebp], 0
	je	SHORT $LN130@DriveBoom
	mov	ecx, OFFSET ?vuLocalSessionEntity@@3V?$VuBin@VVuSessionEntity@@@@A ; vuLocalSessionEntity
	call	??B?$VuBin@VVuSessionEntity@@@@QBE_NXZ	; VuBin<VuSessionEntity>::operator bool
	movzx	eax, al
	test	eax, eax
	je	SHORT $LN128@DriveBoom
	mov	ecx, OFFSET ?vuLocalSessionEntity@@3V?$VuBin@VVuSessionEntity@@@@A ; vuLocalSessionEntity
	call	?get@?$VuBin@VVuSessionEntity@@@@QBEPAVVuSessionEntity@@XZ ; VuBin<VuSessionEntity>::get
	mov	ecx, eax
	call	?GetGame@FalconSessionEntity@@QAEPAVFalconGameEntity@@XZ ; FalconSessionEntity::GetGame
	mov	DWORD PTR tv1718[ebp], eax
	jmp	SHORT $LN129@DriveBoom
$LN128@DriveBoom:
	mov	DWORD PTR tv1718[ebp], 0
$LN129@DriveBoom:
	push	1
	mov	ecx, DWORD PTR tv1718[ebp]
	push	ecx
	lea	edx, DWORD PTR $T9[ebp]
	push	edx
	mov	eax, DWORD PTR _this$[ebp]
	mov	ecx, DWORD PTR [eax+56]
	call	?Id@VuEntity@@QBE?AVVU_ID@@XZ		; VuEntity::Id
	mov	ecx, DWORD PTR [eax+4]
	push	ecx
	mov	edx, DWORD PTR [eax]
	push	edx
	mov	ecx, DWORD PTR $T24[ebp]
	call	??0FalconTankerMessage@@QAE@VVU_ID@@PAVVuTargetEntity@@E@Z ; FalconTankerMessage::FalconTankerMessage
	mov	DWORD PTR tv1734[ebp], eax
	jmp	SHORT $LN131@DriveBoom
$LN130@DriveBoom:
	mov	DWORD PTR tv1734[ebp], 0
$LN131@DriveBoom:
	mov	eax, DWORD PTR tv1734[ebp]
	mov	DWORD PTR $T19[ebp], eax
	mov	DWORD PTR __$EHRec$[ebp+8], -1
	mov	ecx, DWORD PTR $T19[ebp]
	mov	DWORD PTR _tankMsg$[ebp], ecx

; 917  : 			tankMsg->dataBlock.caller = curThirsty->Id();

	lea	edx, DWORD PTR $T5[ebp]
	push	edx
	mov	eax, DWORD PTR _this$[ebp]
	mov	ecx, DWORD PTR [eax+980]
	call	?Id@VuEntity@@QBE?AVVU_ID@@XZ		; VuEntity::Id
	mov	ecx, DWORD PTR [eax]
	mov	edx, DWORD PTR [eax+4]
	mov	eax, DWORD PTR _tankMsg$[ebp]
	mov	DWORD PTR [eax+48], ecx
	mov	DWORD PTR [eax+52], edx

; 918  : 			tankMsg->dataBlock.type = FalconTankerMessage::Disconnect;

	mov	ecx, DWORD PTR _tankMsg$[ebp]
	mov	DWORD PTR [ecx+56], 9

; 919  : 			tankMsg->dataBlock.data1 = tankMsg->dataBlock.data2 = 0;

	mov	edx, DWORD PTR _tankMsg$[ebp]
	movss	xmm0, DWORD PTR __real@00000000
	movss	DWORD PTR [edx+64], xmm0
	mov	eax, DWORD PTR _tankMsg$[ebp]
	movss	xmm0, DWORD PTR __real@00000000
	movss	DWORD PTR [eax+60], xmm0

; 920  : 			FalconSendMessage (tankMsg);

	push	0
	mov	ecx, DWORD PTR _tankMsg$[ebp]
	push	ecx
	call	?FalconSendMessage@@YAXPAVVuMessage@@H@Z ; FalconSendMessage
	add	esp, 8
$LN9@DriveBoom:

; 921  : 		}
; 922  : 	}

	jmp	$LN2@DriveBoom
$LN10@DriveBoom:

; 923  : 	else if( (flags & ClearingPlane) && tankingPtr && tankingPtr->localData->range > 0.04F * NM_TO_FT)

	mov	edx, DWORD PTR _this$[ebp]
	mov	eax, DWORD PTR [edx+1200]
	and	eax, 64					; 00000040H
	je	$LN6@DriveBoom
	mov	ecx, DWORD PTR _this$[ebp]
	cmp	DWORD PTR [ecx+1208], 0
	je	$LN6@DriveBoom
	mov	edx, DWORD PTR _this$[ebp]
	mov	eax, DWORD PTR [edx+1208]
	mov	ecx, DWORD PTR [eax+12]
	movss	xmm0, DWORD PTR [ecx+44]
	comiss	xmm0, DWORD PTR __real@43730c66
	jbe	$LN6@DriveBoom

; 924  : 	{
; 925  : 		VuEntity		*entity = NULL;

	mov	DWORD PTR _entity$34[ebp], 0

; 926  : 		{
; 927  : 			VuListIterator	myit(thirstyQ);

	mov	edx, DWORD PTR _this$[ebp]
	mov	eax, DWORD PTR [edx+972]
	push	eax
	lea	ecx, DWORD PTR _myit$14[ebp]
	call	??0VuListIterator@@QAE@PAVVuLinkedList@@@Z ; VuListIterator::VuListIterator
	mov	DWORD PTR __$EHRec$[ebp+8], 6

; 928  : 			if(entity = myit.GetFirst() ) // MLR 5/13/2004 - Just in case

	lea	ecx, DWORD PTR _myit$14[ebp]
	call	?GetFirst@VuListIterator@@QAEPAVVuEntity@@XZ ; VuListIterator::GetFirst
	mov	DWORD PTR _entity$34[ebp], eax
	cmp	DWORD PTR _entity$34[ebp], 0
	je	SHORT $LN5@DriveBoom

; 929  : 				entity = myit.GetNext();

	lea	ecx, DWORD PTR _myit$14[ebp]
	call	?GetNext@VuListIterator@@QAEPAVVuEntity@@XZ ; VuListIterator::GetNext
	mov	DWORD PTR _entity$34[ebp], eax
$LN5@DriveBoom:

; 930  : 		}

	mov	DWORD PTR __$EHRec$[ebp+8], -1
	lea	ecx, DWORD PTR _myit$14[ebp]
	call	??1VuListIterator@@UAE@XZ		; VuListIterator::~VuListIterator

; 931  : 		if(entity && ((SimBaseClass*)entity)->GetCampaignObject() == curThirsty->GetCampaignObject()){

	cmp	DWORD PTR _entity$34[ebp], 0
	je	SHORT $LN4@DriveBoom
	mov	ecx, DWORD PTR _entity$34[ebp]
	call	?GetCampaignObject@SimBaseClass@@QAEPAVCampBaseClass@@XZ ; SimBaseClass::GetCampaignObject
	mov	esi, eax
	mov	ecx, DWORD PTR _this$[ebp]
	mov	ecx, DWORD PTR [ecx+980]
	call	?GetCampaignObject@SimBaseClass@@QAEPAVCampBaseClass@@XZ ; SimBaseClass::GetCampaignObject
	cmp	esi, eax
	jne	SHORT $LN4@DriveBoom

; 932  : 			AddToWaitQ(curThirsty);

	mov	edx, DWORD PTR _this$[ebp]
	mov	eax, DWORD PTR [edx+980]
	push	eax
	mov	ecx, DWORD PTR _this$[ebp]
	call	?AddToWaitQ@TankerBrain@@QAEHPAVSimVehicleClass@@@Z ; TankerBrain::AddToWaitQ

; 933  : 		}
; 934  : 		else 

	jmp	$LN3@DriveBoom
$LN4@DriveBoom:

; 935  : 		{
; 936  : 			PurgeWaitQ();

	mov	ecx, DWORD PTR _this$[ebp]
	call	?PurgeWaitQ@TankerBrain@@QAEXXZ		; TankerBrain::PurgeWaitQ

; 937  : 			FalconTankerMessage *tankMsg;
; 938  : 
; 939  : 			tankMsg = new FalconTankerMessage (self->Id(), FalconLocalGame);

	push	68					; 00000044H
	call	??2@YAPAXI@Z				; operator new
	add	esp, 4
	mov	DWORD PTR $T23[ebp], eax
	mov	DWORD PTR __$EHRec$[ebp+8], 7
	cmp	DWORD PTR $T23[ebp], 0
	je	SHORT $LN134@DriveBoom
	mov	ecx, OFFSET ?vuLocalSessionEntity@@3V?$VuBin@VVuSessionEntity@@@@A ; vuLocalSessionEntity
	call	??B?$VuBin@VVuSessionEntity@@@@QBE_NXZ	; VuBin<VuSessionEntity>::operator bool
	movzx	ecx, al
	test	ecx, ecx
	je	SHORT $LN132@DriveBoom
	mov	ecx, OFFSET ?vuLocalSessionEntity@@3V?$VuBin@VVuSessionEntity@@@@A ; vuLocalSessionEntity
	call	?get@?$VuBin@VVuSessionEntity@@@@QBEPAVVuSessionEntity@@XZ ; VuBin<VuSessionEntity>::get
	mov	ecx, eax
	call	?GetGame@FalconSessionEntity@@QAEPAVFalconGameEntity@@XZ ; FalconSessionEntity::GetGame
	mov	DWORD PTR tv1822[ebp], eax
	jmp	SHORT $LN133@DriveBoom
$LN132@DriveBoom:
	mov	DWORD PTR tv1822[ebp], 0
$LN133@DriveBoom:
	push	1
	mov	edx, DWORD PTR tv1822[ebp]
	push	edx
	lea	eax, DWORD PTR $T7[ebp]
	push	eax
	mov	ecx, DWORD PTR _this$[ebp]
	mov	ecx, DWORD PTR [ecx+56]
	call	?Id@VuEntity@@QBE?AVVU_ID@@XZ		; VuEntity::Id
	mov	edx, DWORD PTR [eax+4]
	push	edx
	mov	eax, DWORD PTR [eax]
	push	eax
	mov	ecx, DWORD PTR $T23[ebp]
	call	??0FalconTankerMessage@@QAE@VVU_ID@@PAVVuTargetEntity@@E@Z ; FalconTankerMessage::FalconTankerMessage
	mov	DWORD PTR tv1838[ebp], eax
	jmp	SHORT $LN135@DriveBoom
$LN134@DriveBoom:
	mov	DWORD PTR tv1838[ebp], 0
$LN135@DriveBoom:
	mov	ecx, DWORD PTR tv1838[ebp]
	mov	DWORD PTR $T18[ebp], ecx
	mov	DWORD PTR __$EHRec$[ebp+8], -1
	mov	edx, DWORD PTR $T18[ebp]
	mov	DWORD PTR _tankMsg$32[ebp], edx

; 940  : 			tankMsg->dataBlock.caller = curThirsty->Id();

	lea	eax, DWORD PTR $T12[ebp]
	push	eax
	mov	ecx, DWORD PTR _this$[ebp]
	mov	ecx, DWORD PTR [ecx+980]
	call	?Id@VuEntity@@QBE?AVVU_ID@@XZ		; VuEntity::Id
	mov	edx, DWORD PTR [eax]
	mov	eax, DWORD PTR [eax+4]
	mov	ecx, DWORD PTR _tankMsg$32[ebp]
	mov	DWORD PTR [ecx+48], edx
	mov	DWORD PTR [ecx+52], eax

; 941  : 			tankMsg->dataBlock.type = FalconTankerMessage::PositionUpdate;

	mov	edx, DWORD PTR _tankMsg$32[ebp]
	mov	DWORD PTR [edx+56], 11			; 0000000bH

; 942  : 			tankMsg->dataBlock.data1 = -1;

	mov	eax, DWORD PTR _tankMsg$32[ebp]
	movss	xmm0, DWORD PTR __real@bf800000
	movss	DWORD PTR [eax+60], xmm0

; 943  : 			FalconSendMessage (tankMsg);

	push	0
	mov	ecx, DWORD PTR _tankMsg$32[ebp]
	push	ecx
	call	?FalconSendMessage@@YAXPAVVuMessage@@H@Z ; FalconSendMessage
	add	esp, 8
$LN3@DriveBoom:

; 944  : 		}
; 945  : 
; 946  : 		RemoveFromQ(curThirsty);

	mov	edx, DWORD PTR _this$[ebp]
	mov	eax, DWORD PTR [edx+980]
	push	eax
	mov	ecx, DWORD PTR _this$[ebp]
	call	?RemoveFromQ@TankerBrain@@QAEXPAVSimVehicleClass@@@Z ; TankerBrain::RemoveFromQ

; 947  : 		tankingPtr->Release(  );

	mov	ecx, DWORD PTR _this$[ebp]
	mov	ecx, DWORD PTR [ecx+1208]
	call	?Release@SimObjectType@@QAEXXZ		; SimObjectType::Release

; 948  : 		tankingPtr = NULL;

	mov	edx, DWORD PTR _this$[ebp]
	mov	DWORD PTR [edx+1208], 0

; 949  : 		flags &= ~AIready;

	mov	eax, DWORD PTR _this$[ebp]
	mov	ecx, DWORD PTR [eax+1200]
	and	ecx, -129				; ffffff7fH
	mov	edx, DWORD PTR _this$[ebp]
	mov	DWORD PTR [edx+1200], ecx

; 950  : 		flags &= ~ClearingPlane;

	mov	eax, DWORD PTR _this$[ebp]
	mov	ecx, DWORD PTR [eax+1200]
	and	ecx, -65				; ffffffbfH
	mov	edx, DWORD PTR _this$[ebp]
	mov	DWORD PTR [edx+1200], ecx

; 951  : 		flags &= ~IsRefueling;

	mov	eax, DWORD PTR _this$[ebp]
	mov	ecx, DWORD PTR [eax+1200]
	and	ecx, -2					; fffffffeH
	mov	edx, DWORD PTR _this$[ebp]
	mov	DWORD PTR [edx+1200], ecx

; 952  : 	}
; 953  : 	else

	jmp	SHORT $LN2@DriveBoom
$LN6@DriveBoom:

; 954  : 	{
; 955  : 		if(tankingPtr)

	mov	eax, DWORD PTR _this$[ebp]
	cmp	DWORD PTR [eax+1208], 0
	je	SHORT $LN1@DriveBoom

; 956  : 			tankingPtr->Release(  );

	mov	ecx, DWORD PTR _this$[ebp]
	mov	ecx, DWORD PTR [ecx+1208]
	call	?Release@SimObjectType@@QAEXXZ		; SimObjectType::Release
$LN1@DriveBoom:

; 957  : 		tankingPtr = NULL;

	mov	edx, DWORD PTR _this$[ebp]
	mov	DWORD PTR [edx+1208], 0
$LN2@DriveBoom:
$LN86@DriveBoom:

; 958  : 		//flags &= ~ClearingPlane;
; 959  : 		//flags &= ~IsRefueling;
; 960  : 	}
; 961  : }

	mov	ecx, DWORD PTR __$EHRec$[ebp]
	mov	DWORD PTR fs:0, ecx
	pop	ecx
	pop	esi
	mov	ecx, DWORD PTR __$ArrayPad$[ebp]
	xor	ecx, ebp
	call	@__security_check_cookie@4
	mov	esp, ebp
	pop	ebp
	ret	0
_TEXT	ENDS
text$x	SEGMENT
__unwindfunclet$?DriveBoom@TankerBrain@@AAEXXZ$0:
	mov	eax, DWORD PTR $T27[ebp]
	push	eax
	call	??3@YAXPAX@Z				; operator delete
	pop	ecx
	ret	0
__unwindfunclet$?DriveBoom@TankerBrain@@AAEXXZ$1:
	mov	eax, DWORD PTR $T22[ebp]
	push	eax
	call	??3@YAXPAX@Z				; operator delete
	pop	ecx
	ret	0
__unwindfunclet$?DriveBoom@TankerBrain@@AAEXXZ$2:
	lea	ecx, DWORD PTR _myit$15[ebp]
	jmp	??1VuListIterator@@UAE@XZ		; VuListIterator::~VuListIterator
__unwindfunclet$?DriveBoom@TankerBrain@@AAEXXZ$3:
	mov	eax, DWORD PTR $T26[ebp]
	push	eax
	call	??3@YAXPAX@Z				; operator delete
	pop	ecx
	ret	0
__unwindfunclet$?DriveBoom@TankerBrain@@AAEXXZ$4:
	mov	eax, DWORD PTR $T25[ebp]
	push	eax
	call	??3@YAXPAX@Z				; operator delete
	pop	ecx
	ret	0
__unwindfunclet$?DriveBoom@TankerBrain@@AAEXXZ$5:
	mov	eax, DWORD PTR $T24[ebp]
	push	eax
	call	??3@YAXPAX@Z				; operator delete
	pop	ecx
	ret	0
__unwindfunclet$?DriveBoom@TankerBrain@@AAEXXZ$6:
	lea	ecx, DWORD PTR _myit$14[ebp]
	jmp	??1VuListIterator@@UAE@XZ		; VuListIterator::~VuListIterator
__unwindfunclet$?DriveBoom@TankerBrain@@AAEXXZ$7:
	mov	eax, DWORD PTR $T23[ebp]
	push	eax
	call	??3@YAXPAX@Z				; operator delete
	pop	ecx
	ret	0
__ehhandler$?DriveBoom@TankerBrain@@AAEXXZ:
	mov	edx, DWORD PTR [esp+8]
	lea	eax, DWORD PTR [edx+12]
	mov	ecx, DWORD PTR [edx-556]
	xor	ecx, eax
	call	@__security_check_cookie@4
	mov	ecx, DWORD PTR [edx-4]
	xor	ecx, eax
	call	@__security_check_cookie@4
	mov	eax, OFFSET __ehfuncinfo$?DriveBoom@TankerBrain@@AAEXXZ
	jmp	___CxxFrameHandler3
text$x	ENDS
?DriveBoom@TankerBrain@@AAEXXZ ENDP			; TankerBrain::DriveBoom
; Function compile flags: /Odtp
; File c:\users\zhitao li\documents\visual studio 2012\projects\freefalcon\sim\digi\tankbrn.cpp
_TEXT	SEGMENT
$T2 = -220						; size = 8
$T3 = -212						; size = 8
$T4 = -204						; size = 8
$T5 = -196						; size = 8
$T6 = -188						; size = 8
$T7 = -180						; size = 8
$T8 = -172						; size = 8
$T9 = -164						; size = 8
$T10 = -156						; size = 8
$T11 = -148						; size = 8
_Sessioniter$12 = -140					; size = 12
_thirstyWalker$ = -128					; size = 12
$T13 = -116						; size = 4
$T14 = -112						; size = 4
$T15 = -108						; size = 4
$T16 = -104						; size = 4
_game$17 = -100						; size = 4
tv432 = -96						; size = 4
tv216 = -92						; size = 4
$T18 = -88						; size = 4
tv232 = -84						; size = 4
tv147 = -80						; size = 4
$T19 = -76						; size = 4
tv369 = -72						; size = 4
$T20 = -68						; size = 4
$T21 = -64						; size = 4
tv163 = -60						; size = 4
tv347 = -56						; size = 4
tv248 = -52						; size = 4
tv410 = -48						; size = 4
_msg$22 = -44						; size = 4
_count$ = -40						; size = 4
_msg$23 = -36						; size = 4
_foundone$24 = -32					; size = 4
_sess$25 = -28						; size = 4
_aircraft$ = -24					; size = 4
_tankMsg$ = -20						; size = 4
_this$ = -16						; size = 4
__$EHRec$ = -12						; size = 12
?CallNext@TankerBrain@@AAEXXZ PROC			; TankerBrain::CallNext
; _this$ = ecx

; 410  : {

	push	ebp
	mov	ebp, esp
	push	-1
	push	__ehhandler$?CallNext@TankerBrain@@AAEXXZ
	mov	eax, DWORD PTR fs:0
	push	eax
	sub	esp, 208				; 000000d0H
	mov	eax, DWORD PTR ___security_cookie
	xor	eax, ebp
	push	eax
	lea	eax, DWORD PTR __$EHRec$[ebp]
	mov	DWORD PTR fs:0, eax
	mov	DWORD PTR _this$[ebp], ecx

; 411  : 	AircraftClass* aircraft;
; 412  : 	FalconTankerMessage* tankMsg;
; 413  : 	int count = 1;

	mov	DWORD PTR _count$[ebp], 1

; 414  : 
; 415  : 	VuListIterator thirstyWalker (thirstyQ);

	mov	eax, DWORD PTR _this$[ebp]
	mov	ecx, DWORD PTR [eax+972]
	push	ecx
	lea	ecx, DWORD PTR _thirstyWalker$[ebp]
	call	??0VuListIterator@@QAE@PAVVuLinkedList@@@Z ; VuListIterator::VuListIterator
	mov	DWORD PTR __$EHRec$[ebp+8], 0

; 416  : 	aircraft = (AircraftClass*)thirstyWalker.GetFirst();

	lea	ecx, DWORD PTR _thirstyWalker$[ebp]
	call	?GetFirst@VuListIterator@@QAEPAVVuEntity@@XZ ; VuListIterator::GetFirst
	mov	DWORD PTR _aircraft$[ebp], eax

; 417  : 	if (aircraft){

	cmp	DWORD PTR _aircraft$[ebp], 0
	je	$LN7@CallNext

; 418  : 		//me123 yea this is crap holdAlt = min ( max (-self->ZPos(), 15000.0F), 25000.0F);
; 419  : 		// holdAlt = -self->ZPos();//me123
; 420  : 		// 2002-02-17 holding current ZPos is crap - 
; 421  : 		// A10 can never reach tanker cruising altitude - use defined altitude from airframe class auxaerodata
; 422  : 		holdAlt = aircraft->af->GetRefuelAltitude();

	mov	edx, DWORD PTR _aircraft$[ebp]
	mov	ecx, DWORD PTR [edx+932]
	call	?GetRefuelAltitude@AirframeClass@@QAEMXZ ; AirframeClass::GetRefuelAltitude
	mov	eax, DWORD PTR _this$[ebp]
	fstp	DWORD PTR [eax+1204]

; 423  : 		//it's much easier if the tanker isn't trying to change altitude
; 424  : 		//holdAlt = 20000.0F;
; 425  : 		curThirsty = aircraft;

	mov	ecx, DWORD PTR _this$[ebp]
	mov	edx, DWORD PTR _aircraft$[ebp]
	mov	DWORD PTR [ecx+980], edx

; 426  : 		flags |= IsRefueling;

	mov	eax, DWORD PTR _this$[ebp]
	mov	ecx, DWORD PTR [eax+1200]
	or	ecx, 1
	mov	edx, DWORD PTR _this$[ebp]
	mov	DWORD PTR [edx+1200], ecx

; 427  : 		
; 428  : 		// Say precontact message
; 429  : 		tankMsg = new FalconTankerMessage (self->Id(), FalconLocalGame);

	push	68					; 00000044H
	call	??2@YAPAXI@Z				; operator new
	add	esp, 4
	mov	DWORD PTR $T19[ebp], eax
	mov	BYTE PTR __$EHRec$[ebp+8], 1
	cmp	DWORD PTR $T19[ebp], 0
	je	SHORT $LN15@CallNext
	mov	ecx, OFFSET ?vuLocalSessionEntity@@3V?$VuBin@VVuSessionEntity@@@@A ; vuLocalSessionEntity
	call	??B?$VuBin@VVuSessionEntity@@@@QBE_NXZ	; VuBin<VuSessionEntity>::operator bool
	movzx	eax, al
	test	eax, eax
	je	SHORT $LN13@CallNext
	mov	ecx, OFFSET ?vuLocalSessionEntity@@3V?$VuBin@VVuSessionEntity@@@@A ; vuLocalSessionEntity
	call	?get@?$VuBin@VVuSessionEntity@@@@QBEPAVVuSessionEntity@@XZ ; VuBin<VuSessionEntity>::get
	mov	ecx, eax
	call	?GetGame@FalconSessionEntity@@QAEPAVFalconGameEntity@@XZ ; FalconSessionEntity::GetGame
	mov	DWORD PTR tv147[ebp], eax
	jmp	SHORT $LN14@CallNext
$LN13@CallNext:
	mov	DWORD PTR tv147[ebp], 0
$LN14@CallNext:
	push	1
	mov	ecx, DWORD PTR tv147[ebp]
	push	ecx
	lea	edx, DWORD PTR $T9[ebp]
	push	edx
	mov	eax, DWORD PTR _this$[ebp]
	mov	ecx, DWORD PTR [eax+56]
	call	?Id@VuEntity@@QBE?AVVU_ID@@XZ		; VuEntity::Id
	mov	ecx, DWORD PTR [eax+4]
	push	ecx
	mov	edx, DWORD PTR [eax]
	push	edx
	mov	ecx, DWORD PTR $T19[ebp]
	call	??0FalconTankerMessage@@QAE@VVU_ID@@PAVVuTargetEntity@@E@Z ; FalconTankerMessage::FalconTankerMessage
	mov	DWORD PTR tv163[ebp], eax
	jmp	SHORT $LN16@CallNext
$LN15@CallNext:
	mov	DWORD PTR tv163[ebp], 0
$LN16@CallNext:
	mov	eax, DWORD PTR tv163[ebp]
	mov	DWORD PTR $T14[ebp], eax
	mov	BYTE PTR __$EHRec$[ebp+8], 0
	mov	ecx, DWORD PTR $T14[ebp]
	mov	DWORD PTR _tankMsg$[ebp], ecx

; 430  : 		tankMsg->dataBlock.caller = curThirsty->Id();

	lea	edx, DWORD PTR $T4[ebp]
	push	edx
	mov	eax, DWORD PTR _this$[ebp]
	mov	ecx, DWORD PTR [eax+980]
	call	?Id@VuEntity@@QBE?AVVU_ID@@XZ		; VuEntity::Id
	mov	ecx, DWORD PTR [eax]
	mov	edx, DWORD PTR [eax+4]
	mov	eax, DWORD PTR _tankMsg$[ebp]
	mov	DWORD PTR [eax+48], ecx
	mov	DWORD PTR [eax+52], edx

; 431  : 		tankMsg->dataBlock.type = FalconTankerMessage::PreContact;

	mov	ecx, DWORD PTR _tankMsg$[ebp]
	mov	DWORD PTR [ecx+56], 5

; 432  : 		tankMsg->dataBlock.data1 = tankMsg->dataBlock.data1 = 0;

	mov	edx, DWORD PTR _tankMsg$[ebp]
	movss	xmm0, DWORD PTR __real@00000000
	movss	DWORD PTR [edx+60], xmm0
	mov	eax, DWORD PTR _tankMsg$[ebp]
	movss	xmm0, DWORD PTR __real@00000000
	movss	DWORD PTR [eax+60], xmm0

; 433  : 		FalconSendMessage (tankMsg);

	push	0
	mov	ecx, DWORD PTR _tankMsg$[ebp]
	push	ecx
	call	?FalconSendMessage@@YAXPAVVuMessage@@H@Z ; FalconSendMessage
	add	esp, 8

; 434  : 		
; 435  : 		aircraft = (AircraftClass*)thirstyWalker.GetNext();

	lea	ecx, DWORD PTR _thirstyWalker$[ebp]
	call	?GetNext@VuListIterator@@QAEPAVVuEntity@@XZ ; VuListIterator::GetNext
	mov	DWORD PTR _aircraft$[ebp], eax
$LN9@CallNext:

; 436  : 		while(aircraft)

	cmp	DWORD PTR _aircraft$[ebp], 0
	je	$LN8@CallNext

; 437  : 		{
; 438  : 			tankMsg = new FalconTankerMessage (self->Id(), FalconLocalGame);

	push	68					; 00000044H
	call	??2@YAPAXI@Z				; operator new
	add	esp, 4
	mov	DWORD PTR $T20[ebp], eax
	mov	BYTE PTR __$EHRec$[ebp+8], 2
	cmp	DWORD PTR $T20[ebp], 0
	je	SHORT $LN19@CallNext
	mov	ecx, OFFSET ?vuLocalSessionEntity@@3V?$VuBin@VVuSessionEntity@@@@A ; vuLocalSessionEntity
	call	??B?$VuBin@VVuSessionEntity@@@@QBE_NXZ	; VuBin<VuSessionEntity>::operator bool
	movzx	edx, al
	test	edx, edx
	je	SHORT $LN17@CallNext
	mov	ecx, OFFSET ?vuLocalSessionEntity@@3V?$VuBin@VVuSessionEntity@@@@A ; vuLocalSessionEntity
	call	?get@?$VuBin@VVuSessionEntity@@@@QBEPAVVuSessionEntity@@XZ ; VuBin<VuSessionEntity>::get
	mov	ecx, eax
	call	?GetGame@FalconSessionEntity@@QAEPAVFalconGameEntity@@XZ ; FalconSessionEntity::GetGame
	mov	DWORD PTR tv216[ebp], eax
	jmp	SHORT $LN18@CallNext
$LN17@CallNext:
	mov	DWORD PTR tv216[ebp], 0
$LN18@CallNext:
	push	1
	mov	eax, DWORD PTR tv216[ebp]
	push	eax
	lea	ecx, DWORD PTR $T2[ebp]
	push	ecx
	mov	edx, DWORD PTR _this$[ebp]
	mov	ecx, DWORD PTR [edx+56]
	call	?Id@VuEntity@@QBE?AVVU_ID@@XZ		; VuEntity::Id
	mov	ecx, DWORD PTR [eax+4]
	push	ecx
	mov	edx, DWORD PTR [eax]
	push	edx
	mov	ecx, DWORD PTR $T20[ebp]
	call	??0FalconTankerMessage@@QAE@VVU_ID@@PAVVuTargetEntity@@E@Z ; FalconTankerMessage::FalconTankerMessage
	mov	DWORD PTR tv232[ebp], eax
	jmp	SHORT $LN20@CallNext
$LN19@CallNext:
	mov	DWORD PTR tv232[ebp], 0
$LN20@CallNext:
	mov	eax, DWORD PTR tv232[ebp]
	mov	DWORD PTR $T13[ebp], eax
	mov	BYTE PTR __$EHRec$[ebp+8], 0
	mov	ecx, DWORD PTR $T13[ebp]
	mov	DWORD PTR _tankMsg$[ebp], ecx

; 439  : 			tankMsg->dataBlock.caller = aircraft->Id();

	lea	edx, DWORD PTR $T11[ebp]
	push	edx
	mov	ecx, DWORD PTR _aircraft$[ebp]
	call	?Id@VuEntity@@QBE?AVVU_ID@@XZ		; VuEntity::Id
	mov	ecx, DWORD PTR [eax]
	mov	edx, DWORD PTR [eax+4]
	mov	eax, DWORD PTR _tankMsg$[ebp]
	mov	DWORD PTR [eax+48], ecx
	mov	DWORD PTR [eax+52], edx

; 440  : 			tankMsg->dataBlock.type = FalconTankerMessage::PositionUpdate;

	mov	ecx, DWORD PTR _tankMsg$[ebp]
	mov	DWORD PTR [ecx+56], 11			; 0000000bH

; 441  : 			tankMsg->dataBlock.data1 = tankMsg->dataBlock.data1 = (float)count;

	cvtsi2ss xmm0, DWORD PTR _count$[ebp]
	movss	DWORD PTR tv248[ebp], xmm0
	mov	edx, DWORD PTR _tankMsg$[ebp]
	movss	xmm0, DWORD PTR tv248[ebp]
	movss	DWORD PTR [edx+60], xmm0
	mov	eax, DWORD PTR _tankMsg$[ebp]
	movss	xmm0, DWORD PTR tv248[ebp]
	movss	DWORD PTR [eax+60], xmm0

; 442  : 			FalconSendMessage (tankMsg);

	push	0
	mov	ecx, DWORD PTR _tankMsg$[ebp]
	push	ecx
	call	?FalconSendMessage@@YAXPAVVuMessage@@H@Z ; FalconSendMessage
	add	esp, 8

; 443  : 
; 444  : 			count++;

	mov	edx, DWORD PTR _count$[ebp]
	add	edx, 1
	mov	DWORD PTR _count$[ebp], edx

; 445  : 			aircraft = (AircraftClass*)thirstyWalker.GetNext();

	lea	ecx, DWORD PTR _thirstyWalker$[ebp]
	call	?GetNext@VuListIterator@@QAEPAVVuEntity@@XZ ; VuListIterator::GetNext
	mov	DWORD PTR _aircraft$[ebp], eax

; 446  : 		}	

	jmp	$LN9@CallNext
$LN8@CallNext:

; 447  : 		
; 448  : //me123 
; 449  : 		if (vuLocalSessionEntity &&
; 450  : 			vuLocalSessionEntity->Game() &&
; 451  : 			self->OwnerId() != curThirsty->OwnerId()
; 452  : 		){

	mov	ecx, OFFSET ?vuLocalSessionEntity@@3V?$VuBin@VVuSessionEntity@@@@A ; vuLocalSessionEntity
	call	??B?$VuBin@VVuSessionEntity@@@@QBE_NXZ	; VuBin<VuSessionEntity>::operator bool
	movzx	eax, al
	test	eax, eax
	je	$LN7@CallNext
	mov	ecx, OFFSET ?vuLocalSessionEntity@@3V?$VuBin@VVuSessionEntity@@@@A ; vuLocalSessionEntity
	call	??C?$VuBin@VVuSessionEntity@@@@QBEPAVVuSessionEntity@@XZ ; VuBin<VuSessionEntity>::operator->
	mov	ecx, eax
	call	?Game@VuSessionEntity@@QAEPAVVuGameEntity@@XZ ; VuSessionEntity::Game
	test	eax, eax
	je	$LN7@CallNext
	lea	ecx, DWORD PTR $T5[ebp]
	push	ecx
	mov	edx, DWORD PTR _this$[ebp]
	mov	ecx, DWORD PTR [edx+980]
	call	?OwnerId@VuEntity@@QBE?AVVU_ID@@XZ	; VuEntity::OwnerId
	push	eax
	lea	eax, DWORD PTR $T7[ebp]
	push	eax
	mov	ecx, DWORD PTR _this$[ebp]
	mov	ecx, DWORD PTR [ecx+56]
	call	?OwnerId@VuEntity@@QBE?AVVU_ID@@XZ	; VuEntity::OwnerId
	mov	ecx, eax
	call	??9VU_ID@@QBE_NABV0@@Z			; VU_ID::operator!=
	movzx	edx, al
	test	edx, edx
	je	$LN7@CallNext

; 453  : 			// we are hostign a game
; 454  : 	 		VuGameEntity *game = vuLocalSessionEntity->Game();

	mov	ecx, OFFSET ?vuLocalSessionEntity@@3V?$VuBin@VVuSessionEntity@@@@A ; vuLocalSessionEntity
	call	??C?$VuBin@VVuSessionEntity@@@@QBEPAVVuSessionEntity@@XZ ; VuBin<VuSessionEntity>::operator->
	mov	ecx, eax
	call	?Game@VuSessionEntity@@QAEPAVVuGameEntity@@XZ ; VuSessionEntity::Game
	mov	DWORD PTR _game$17[ebp], eax

; 455  : 	 		VuSessionsIterator Sessioniter(game);

	mov	eax, DWORD PTR _game$17[ebp]
	push	eax
	lea	ecx, DWORD PTR _Sessioniter$12[ebp]
	call	??0VuSessionsIterator@@QAE@PAVVuGroupEntity@@@Z ; VuSessionsIterator::VuSessionsIterator
	mov	BYTE PTR __$EHRec$[ebp+8], 3

; 456  : 	 		VuSessionEntity*   sess;
; 457  : 	 		sess = Sessioniter.GetFirst();

	lea	ecx, DWORD PTR _Sessioniter$12[ebp]
	call	?GetFirst@VuSessionsIterator@@QAEPAVVuSessionEntity@@XZ ; VuSessionsIterator::GetFirst
	mov	DWORD PTR _sess$25[ebp], eax

; 458  : 	 		int foundone = FALSE;

	mov	DWORD PTR _foundone$24[ebp], 0
$LN6@CallNext:

; 459  : 
; 460  : 	 		while (sess && !foundone)

	cmp	DWORD PTR _sess$25[ebp], 0
	je	SHORT $LN5@CallNext
	cmp	DWORD PTR _foundone$24[ebp], 0
	jne	SHORT $LN5@CallNext

; 461  : 	 		{
; 462  : 				if (sess->GetCameraEntity(0) == curThirsty) 

	push	0
	mov	ecx, DWORD PTR _sess$25[ebp]
	call	?GetCameraEntity@VuSessionEntity@@QBEPAVVuEntity@@E@Z ; VuSessionEntity::GetCameraEntity
	mov	ecx, DWORD PTR _this$[ebp]
	cmp	eax, DWORD PTR [ecx+980]
	jne	SHORT $LN4@CallNext

; 463  : 				{
; 464  : 					 foundone = TRUE;

	mov	DWORD PTR _foundone$24[ebp], 1

; 465  : 					 break;

	jmp	SHORT $LN5@CallNext

; 466  : 				}
; 467  : 				else  

	jmp	SHORT $LN3@CallNext
$LN4@CallNext:

; 468  : 				{
; 469  : 					 sess = Sessioniter.GetNext ();

	lea	ecx, DWORD PTR _Sessioniter$12[ebp]
	call	?GetNext@VuSessionsIterator@@QAEPAVVuSessionEntity@@XZ ; VuSessionsIterator::GetNext
	mov	DWORD PTR _sess$25[ebp], eax
$LN3@CallNext:

; 470  : 				}
; 471  : 	 		}

	jmp	SHORT $LN6@CallNext
$LN5@CallNext:

; 472  : 	 		if (foundone) 

	cmp	DWORD PTR _foundone$24[ebp], 0
	je	$LN2@CallNext

; 473  : 	 		{
; 474  : 	 			FalconSimCampMessage	*msg = new FalconSimCampMessage (self->GetCampaignObject()->Id(), FalconLocalGame); // target);

	push	66					; 00000042H
	call	??2@YAPAXI@Z				; operator new
	add	esp, 4
	mov	DWORD PTR $T21[ebp], eax
	mov	BYTE PTR __$EHRec$[ebp+8], 4
	cmp	DWORD PTR $T21[ebp], 0
	je	SHORT $LN23@CallNext
	mov	ecx, OFFSET ?vuLocalSessionEntity@@3V?$VuBin@VVuSessionEntity@@@@A ; vuLocalSessionEntity
	call	??B?$VuBin@VVuSessionEntity@@@@QBE_NXZ	; VuBin<VuSessionEntity>::operator bool
	movzx	edx, al
	test	edx, edx
	je	SHORT $LN21@CallNext
	mov	ecx, OFFSET ?vuLocalSessionEntity@@3V?$VuBin@VVuSessionEntity@@@@A ; vuLocalSessionEntity
	call	?get@?$VuBin@VVuSessionEntity@@@@QBEPAVVuSessionEntity@@XZ ; VuBin<VuSessionEntity>::get
	mov	ecx, eax
	call	?GetGame@FalconSessionEntity@@QAEPAVFalconGameEntity@@XZ ; FalconSessionEntity::GetGame
	mov	DWORD PTR tv347[ebp], eax
	jmp	SHORT $LN22@CallNext
$LN21@CallNext:
	mov	DWORD PTR tv347[ebp], 0
$LN22@CallNext:
	push	1
	mov	eax, DWORD PTR tv347[ebp]
	push	eax
	lea	ecx, DWORD PTR $T3[ebp]
	push	ecx
	mov	edx, DWORD PTR _this$[ebp]
	mov	ecx, DWORD PTR [edx+56]
	call	?GetCampaignObject@SimBaseClass@@QAEPAVCampBaseClass@@XZ ; SimBaseClass::GetCampaignObject
	mov	ecx, eax
	call	?Id@VuEntity@@QBE?AVVU_ID@@XZ		; VuEntity::Id
	mov	ecx, DWORD PTR [eax+4]
	push	ecx
	mov	edx, DWORD PTR [eax]
	push	edx
	mov	ecx, DWORD PTR $T21[ebp]
	call	??0FalconSimCampMessage@@QAE@VVU_ID@@PAVVuTargetEntity@@E@Z ; FalconSimCampMessage::FalconSimCampMessage
	mov	DWORD PTR tv369[ebp], eax
	jmp	SHORT $LN24@CallNext
$LN23@CallNext:
	mov	DWORD PTR tv369[ebp], 0
$LN24@CallNext:
	mov	eax, DWORD PTR tv369[ebp]
	mov	DWORD PTR $T16[ebp], eax
	mov	BYTE PTR __$EHRec$[ebp+8], 3
	mov	ecx, DWORD PTR $T16[ebp]
	mov	DWORD PTR _msg$23[ebp], ecx

; 475  : 	 			msg->dataBlock.from = sess->Id();

	lea	edx, DWORD PTR $T10[ebp]
	push	edx
	mov	ecx, DWORD PTR _sess$25[ebp]
	call	?Id@VuEntity@@QBE?AVVU_ID@@XZ		; VuEntity::Id
	mov	ecx, DWORD PTR [eax]
	mov	edx, DWORD PTR [eax+4]
	mov	eax, DWORD PTR _msg$23[ebp]
	mov	DWORD PTR [eax+48], ecx
	mov	DWORD PTR [eax+52], edx

; 476  : 	 			msg->dataBlock.message = FalconSimCampMessage::simcampChangeOwner;

	mov	ecx, DWORD PTR _msg$23[ebp]
	mov	DWORD PTR [ecx+56], 2

; 477  : 	 			FalconSendMessage(msg);

	push	0
	mov	edx, DWORD PTR _msg$23[ebp]
	push	edx
	call	?FalconSendMessage@@YAXPAVVuMessage@@H@Z ; FalconSendMessage
	add	esp, 8

; 478  : 	 		}
; 479  : 			else

	jmp	$LN1@CallNext
$LN2@CallNext:

; 480  : 			{// must be an ai plane who's curthirsty so lets give the host the tanker
; 481  : 	 			FalconSimCampMessage	*msg = new FalconSimCampMessage (self->GetCampaignObject()->Id(), FalconLocalGame); // target);

	push	66					; 00000042H
	call	??2@YAPAXI@Z				; operator new
	add	esp, 4
	mov	DWORD PTR $T18[ebp], eax
	mov	BYTE PTR __$EHRec$[ebp+8], 5
	cmp	DWORD PTR $T18[ebp], 0
	je	SHORT $LN27@CallNext
	mov	ecx, OFFSET ?vuLocalSessionEntity@@3V?$VuBin@VVuSessionEntity@@@@A ; vuLocalSessionEntity
	call	??B?$VuBin@VVuSessionEntity@@@@QBE_NXZ	; VuBin<VuSessionEntity>::operator bool
	movzx	eax, al
	test	eax, eax
	je	SHORT $LN25@CallNext
	mov	ecx, OFFSET ?vuLocalSessionEntity@@3V?$VuBin@VVuSessionEntity@@@@A ; vuLocalSessionEntity
	call	?get@?$VuBin@VVuSessionEntity@@@@QBEPAVVuSessionEntity@@XZ ; VuBin<VuSessionEntity>::get
	mov	ecx, eax
	call	?GetGame@FalconSessionEntity@@QAEPAVFalconGameEntity@@XZ ; FalconSessionEntity::GetGame
	mov	DWORD PTR tv410[ebp], eax
	jmp	SHORT $LN26@CallNext
$LN25@CallNext:
	mov	DWORD PTR tv410[ebp], 0
$LN26@CallNext:
	push	1
	mov	ecx, DWORD PTR tv410[ebp]
	push	ecx
	lea	edx, DWORD PTR $T8[ebp]
	push	edx
	mov	eax, DWORD PTR _this$[ebp]
	mov	ecx, DWORD PTR [eax+56]
	call	?GetCampaignObject@SimBaseClass@@QAEPAVCampBaseClass@@XZ ; SimBaseClass::GetCampaignObject
	mov	ecx, eax
	call	?Id@VuEntity@@QBE?AVVU_ID@@XZ		; VuEntity::Id
	mov	ecx, DWORD PTR [eax+4]
	push	ecx
	mov	edx, DWORD PTR [eax]
	push	edx
	mov	ecx, DWORD PTR $T18[ebp]
	call	??0FalconSimCampMessage@@QAE@VVU_ID@@PAVVuTargetEntity@@E@Z ; FalconSimCampMessage::FalconSimCampMessage
	mov	DWORD PTR tv432[ebp], eax
	jmp	SHORT $LN28@CallNext
$LN27@CallNext:
	mov	DWORD PTR tv432[ebp], 0
$LN28@CallNext:
	mov	eax, DWORD PTR tv432[ebp]
	mov	DWORD PTR $T15[ebp], eax
	mov	BYTE PTR __$EHRec$[ebp+8], 3
	mov	ecx, DWORD PTR $T15[ebp]
	mov	DWORD PTR _msg$22[ebp], ecx

; 482  : 	 			msg->dataBlock.from = curThirsty->OwnerId();

	lea	edx, DWORD PTR $T6[ebp]
	push	edx
	mov	eax, DWORD PTR _this$[ebp]
	mov	ecx, DWORD PTR [eax+980]
	call	?OwnerId@VuEntity@@QBE?AVVU_ID@@XZ	; VuEntity::OwnerId
	mov	ecx, DWORD PTR [eax]
	mov	edx, DWORD PTR [eax+4]
	mov	eax, DWORD PTR _msg$22[ebp]
	mov	DWORD PTR [eax+48], ecx
	mov	DWORD PTR [eax+52], edx

; 483  : 	 			msg->dataBlock.message = FalconSimCampMessage::simcampChangeOwner;

	mov	ecx, DWORD PTR _msg$22[ebp]
	mov	DWORD PTR [ecx+56], 2

; 484  : 	 			FalconSendMessage(msg);

	push	0
	mov	edx, DWORD PTR _msg$22[ebp]
	push	edx
	call	?FalconSendMessage@@YAXPAVVuMessage@@H@Z ; FalconSendMessage
	add	esp, 8
$LN1@CallNext:

; 485  : 			}
; 486  : 	 	}

	mov	BYTE PTR __$EHRec$[ebp+8], 0
	lea	ecx, DWORD PTR _Sessioniter$12[ebp]
	call	??1VuSessionsIterator@@UAE@XZ		; VuSessionsIterator::~VuSessionsIterator
$LN7@CallNext:

; 487  : 	}
; 488  : }

	mov	DWORD PTR __$EHRec$[ebp+8], -1
	lea	ecx, DWORD PTR _thirstyWalker$[ebp]
	call	??1VuListIterator@@UAE@XZ		; VuListIterator::~VuListIterator
	mov	ecx, DWORD PTR __$EHRec$[ebp]
	mov	DWORD PTR fs:0, ecx
	pop	ecx
	mov	esp, ebp
	pop	ebp
	ret	0
_TEXT	ENDS
text$x	SEGMENT
__unwindfunclet$?CallNext@TankerBrain@@AAEXXZ$0:
	lea	ecx, DWORD PTR _thirstyWalker$[ebp]
	jmp	??1VuListIterator@@UAE@XZ		; VuListIterator::~VuListIterator
__unwindfunclet$?CallNext@TankerBrain@@AAEXXZ$1:
	mov	eax, DWORD PTR $T19[ebp]
	push	eax
	call	??3@YAXPAX@Z				; operator delete
	pop	ecx
	ret	0
__unwindfunclet$?CallNext@TankerBrain@@AAEXXZ$2:
	mov	eax, DWORD PTR $T20[ebp]
	push	eax
	call	??3@YAXPAX@Z				; operator delete
	pop	ecx
	ret	0
__unwindfunclet$?CallNext@TankerBrain@@AAEXXZ$3:
	lea	ecx, DWORD PTR _Sessioniter$12[ebp]
	jmp	??1VuSessionsIterator@@UAE@XZ		; VuSessionsIterator::~VuSessionsIterator
__unwindfunclet$?CallNext@TankerBrain@@AAEXXZ$4:
	mov	eax, DWORD PTR $T21[ebp]
	push	eax
	call	??3@YAXPAX@Z				; operator delete
	pop	ecx
	ret	0
__unwindfunclet$?CallNext@TankerBrain@@AAEXXZ$5:
	mov	eax, DWORD PTR $T18[ebp]
	push	eax
	call	??3@YAXPAX@Z				; operator delete
	pop	ecx
	ret	0
__ehhandler$?CallNext@TankerBrain@@AAEXXZ:
	mov	edx, DWORD PTR [esp+8]
	lea	eax, DWORD PTR [edx+12]
	mov	ecx, DWORD PTR [edx-212]
	xor	ecx, eax
	call	@__security_check_cookie@4
	mov	eax, OFFSET __ehfuncinfo$?CallNext@TankerBrain@@AAEXXZ
	jmp	___CxxFrameHandler3
text$x	ENDS
?CallNext@TankerBrain@@AAEXXZ ENDP			; TankerBrain::CallNext
; Function compile flags: /Odtp
; File c:\users\zhitao li\documents\visual studio 2012\projects\freefalcon\vu2\include\vu_templates.h
;	COMDAT ?get@?$VuBin@VFalconEntity@@@@QBEPAVFalconEntity@@XZ
_TEXT	SEGMENT
_this$ = -4						; size = 4
?get@?$VuBin@VFalconEntity@@@@QBEPAVFalconEntity@@XZ PROC ; VuBin<FalconEntity>::get, COMDAT
; _this$ = ecx

; 55   : 	E *get() const{

	push	ebp
	mov	ebp, esp
	push	ecx
	mov	DWORD PTR _this$[ebp], ecx

; 56   : 		return e;

	mov	eax, DWORD PTR _this$[ebp]
	mov	eax, DWORD PTR [eax]

; 57   : 	}

	mov	esp, ebp
	pop	ebp
	ret	0
?get@?$VuBin@VFalconEntity@@@@QBEPAVFalconEntity@@XZ ENDP ; VuBin<FalconEntity>::get
_TEXT	ENDS
; Function compile flags: /Odtp
; File c:\users\zhitao li\documents\visual studio 2012\projects\freefalcon\sim\include\object.h
;	COMDAT ?BaseData@SimObjectType@@QAEPAVFalconEntity@@XZ
_TEXT	SEGMENT
_this$ = -4						; size = 4
?BaseData@SimObjectType@@QAEPAVFalconEntity@@XZ PROC	; SimObjectType::BaseData, COMDAT
; _this$ = ecx

; 92   : 	FalconEntity* BaseData(void) { return baseData.get(); };

	push	ebp
	mov	ebp, esp
	push	ecx
	mov	DWORD PTR _this$[ebp], ecx
	mov	ecx, DWORD PTR _this$[ebp]
	call	?get@?$VuBin@VFalconEntity@@@@QBEPAVFalconEntity@@XZ ; VuBin<FalconEntity>::get
	mov	esp, ebp
	pop	ebp
	ret	0
?BaseData@SimObjectType@@QAEPAVFalconEntity@@XZ ENDP	; SimObjectType::BaseData
_TEXT	ENDS
; Function compile flags: /Odtp
; File c:\users\zhitao li\documents\visual studio 2012\projects\freefalcon\graphics\include\drawbsp.h
;	COMDAT ?GetID@DrawableBSP@@QAEHXZ
_TEXT	SEGMENT
_this$ = -4						; size = 4
?GetID@DrawableBSP@@QAEHXZ PROC				; DrawableBSP::GetID, COMDAT
; _this$ = ecx

; 72   : 	int  GetID( void )			{ return id; };

	push	ebp
	mov	ebp, esp
	push	ecx
	mov	DWORD PTR _this$[ebp], ecx
	mov	eax, DWORD PTR _this$[ebp]
	mov	eax, DWORD PTR [eax+120]
	mov	esp, ebp
	pop	ebp
	ret	0
?GetID@DrawableBSP@@QAEHXZ ENDP				; DrawableBSP::GetID
_TEXT	ENDS
; Function compile flags: /Odtp
; File c:\users\zhitao li\documents\visual studio 2012\projects\freefalcon\graphics\include\drawbsp.h
;	COMDAT ?LabelColor@DrawableBSP@@QAEKXZ
_TEXT	SEGMENT
_this$ = -4						; size = 4
?LabelColor@DrawableBSP@@QAEKXZ PROC			; DrawableBSP::LabelColor, COMDAT
; _this$ = ecx

; 63   : 	DWORD LabelColor()										{ return labelColor; }

	push	ebp
	mov	ebp, esp
	push	ecx
	mov	DWORD PTR _this$[ebp], ecx
	mov	eax, DWORD PTR _this$[ebp]
	mov	eax, DWORD PTR [eax+164]
	mov	esp, ebp
	pop	ebp
	ret	0
?LabelColor@DrawableBSP@@QAEKXZ ENDP			; DrawableBSP::LabelColor
_TEXT	ENDS
; Function compile flags: /Odtp
; File c:\users\zhitao li\documents\visual studio 2012\projects\freefalcon\graphics\include\drawobj.h
;	COMDAT ?Radius@DrawableObject@@QBEMXZ
_TEXT	SEGMENT
_this$ = -4						; size = 4
?Radius@DrawableObject@@QBEMXZ PROC			; DrawableObject::Radius, COMDAT
; _this$ = ecx

; 27   : 	float Radius() const { return radius; }

	push	ebp
	mov	ebp, esp
	push	ecx
	mov	DWORD PTR _this$[ebp], ecx
	mov	eax, DWORD PTR _this$[ebp]
	fld	DWORD PTR [eax+16]
	mov	esp, ebp
	pop	ebp
	ret	0
?Radius@DrawableObject@@QBEMXZ ENDP			; DrawableObject::Radius
_TEXT	ENDS
; Function compile flags: /Odtp
;	COMDAT ??_G_System_error_category@std@@UAEPAXI@Z
_TEXT	SEGMENT
_this$ = -4						; size = 4
___flags$ = 8						; size = 4
??_G_System_error_category@std@@UAEPAXI@Z PROC		; std::_System_error_category::`scalar deleting destructor', COMDAT
; _this$ = ecx
	push	ebp
	mov	ebp, esp
	push	ecx
	mov	DWORD PTR _this$[ebp], ecx
	mov	ecx, DWORD PTR _this$[ebp]
	call	??1_System_error_category@std@@UAE@XZ
	mov	eax, DWORD PTR ___flags$[ebp]
	and	eax, 1
	je	SHORT $LN1@scalar
	mov	ecx, DWORD PTR _this$[ebp]
	push	ecx
	call	??3@YAXPAX@Z				; operator delete
	add	esp, 4
$LN1@scalar:
	mov	eax, DWORD PTR _this$[ebp]
	mov	esp, ebp
	pop	ebp
	ret	4
??_G_System_error_category@std@@UAEPAXI@Z ENDP		; std::_System_error_category::`scalar deleting destructor'
_TEXT	ENDS
; Function compile flags: /Odtp
;	COMDAT ??1_System_error_category@std@@UAE@XZ
_TEXT	SEGMENT
_this$ = -4						; size = 4
??1_System_error_category@std@@UAE@XZ PROC		; std::_System_error_category::~_System_error_category, COMDAT
; _this$ = ecx
	push	ebp
	mov	ebp, esp
	push	ecx
	mov	DWORD PTR _this$[ebp], ecx
	mov	ecx, DWORD PTR _this$[ebp]
	call	??1_Generic_error_category@std@@UAE@XZ
	mov	esp, ebp
	pop	ebp
	ret	0
??1_System_error_category@std@@UAE@XZ ENDP		; std::_System_error_category::~_System_error_category
_TEXT	ENDS
; Function compile flags: /Odtp
; File c:\program files (x86)\microsoft visual studio 11.0\vc\include\system_error
;	COMDAT ?default_error_condition@_System_error_category@std@@UBE?AVerror_condition@2@H@Z
_TEXT	SEGMENT
_this$ = -4						; size = 4
___$ReturnUdt$ = 8					; size = 4
__Errval$ = 12						; size = 4
?default_error_condition@_System_error_category@std@@UBE?AVerror_condition@2@H@Z PROC ; std::_System_error_category::default_error_condition, COMDAT
; _this$ = ecx

; 641  : 		{	// make error_condition for error code (generic if possible)

	push	ebp
	mov	ebp, esp
	push	ecx
	mov	DWORD PTR _this$[ebp], ecx

; 642  : 		if (_Syserror_map(_Errval))

	mov	eax, DWORD PTR __Errval$[ebp]
	push	eax
	call	?_Syserror_map@std@@YAPBDH@Z		; std::_Syserror_map
	add	esp, 4
	test	eax, eax
	je	SHORT $LN2@default_er

; 643  : 			return (error_condition(_Errval, generic_category()));

	call	?generic_category@std@@YAABVerror_category@1@XZ ; std::generic_category
	push	eax
	mov	ecx, DWORD PTR __Errval$[ebp]
	push	ecx
	mov	ecx, DWORD PTR ___$ReturnUdt$[ebp]
	call	??0error_condition@std@@QAE@HABVerror_category@1@@Z ; std::error_condition::error_condition
	mov	eax, DWORD PTR ___$ReturnUdt$[ebp]
	jmp	SHORT $LN3@default_er

; 644  : 		else

	jmp	SHORT $LN3@default_er
$LN2@default_er:

; 645  : 			return (error_condition(_Errval, system_category()));

	call	?system_category@std@@YAABVerror_category@1@XZ ; std::system_category
	push	eax
	mov	edx, DWORD PTR __Errval$[ebp]
	push	edx
	mov	ecx, DWORD PTR ___$ReturnUdt$[ebp]
	call	??0error_condition@std@@QAE@HABVerror_category@1@@Z ; std::error_condition::error_condition
	mov	eax, DWORD PTR ___$ReturnUdt$[ebp]
$LN3@default_er:

; 646  : 		}

	mov	esp, ebp
	pop	ebp
	ret	8
?default_error_condition@_System_error_category@std@@UBE?AVerror_condition@2@H@Z ENDP ; std::_System_error_category::default_error_condition
_TEXT	ENDS
; Function compile flags: /Odtp
; File c:\program files (x86)\microsoft visual studio 11.0\vc\include\system_error
;	COMDAT ?message@_System_error_category@std@@UBE?AV?$basic_string@DU?$char_traits@D@std@@V?$allocator@D@2@@2@H@Z
_TEXT	SEGMENT
_this$ = -16						; size = 4
$T1 = -12						; size = 4
tv69 = -8						; size = 4
__Name$ = -4						; size = 4
___$ReturnUdt$ = 8					; size = 4
__Errcode$ = 12						; size = 4
?message@_System_error_category@std@@UBE?AV?$basic_string@DU?$char_traits@D@std@@V?$allocator@D@2@@2@H@Z PROC ; std::_System_error_category::message, COMDAT
; _this$ = ecx

; 634  : 		{	// convert to name of error

	push	ebp
	mov	ebp, esp
	sub	esp, 16					; 00000010H
	mov	DWORD PTR _this$[ebp], ecx
	mov	DWORD PTR $T1[ebp], 0

; 635  : 		const char *_Name = _Winerror_map(_Errcode);

	mov	eax, DWORD PTR __Errcode$[ebp]
	push	eax
	call	?_Winerror_map@std@@YAPBDH@Z		; std::_Winerror_map
	add	esp, 4
	mov	DWORD PTR __Name$[ebp], eax

; 636  : 		return (string(_Name != 0 ? _Name : "unknown error"));

	cmp	DWORD PTR __Name$[ebp], 0
	je	SHORT $LN3@message
	mov	ecx, DWORD PTR __Name$[ebp]
	mov	DWORD PTR tv69[ebp], ecx
	jmp	SHORT $LN4@message
$LN3@message:
	mov	DWORD PTR tv69[ebp], OFFSET ??_C@_0O@BFJCFAAK@unknown?5error?$AA@
$LN4@message:
	mov	edx, DWORD PTR tv69[ebp]
	push	edx
	mov	ecx, DWORD PTR ___$ReturnUdt$[ebp]
	call	??0?$basic_string@DU?$char_traits@D@std@@V?$allocator@D@2@@std@@QAE@PBD@Z ; std::basic_string<char,std::char_traits<char>,std::allocator<char> >::basic_string<char,std::char_traits<char>,std::allocator<char> >
	mov	eax, DWORD PTR $T1[ebp]
	or	eax, 1
	mov	DWORD PTR $T1[ebp], eax
	mov	eax, DWORD PTR ___$ReturnUdt$[ebp]

; 637  : 		}

	mov	esp, ebp
	pop	ebp
	ret	8
?message@_System_error_category@std@@UBE?AV?$basic_string@DU?$char_traits@D@std@@V?$allocator@D@2@@2@H@Z ENDP ; std::_System_error_category::message
_TEXT	ENDS
; Function compile flags: /Odtp
; File c:\program files (x86)\microsoft visual studio 11.0\vc\include\system_error
;	COMDAT ?name@_System_error_category@std@@UBEPBDXZ
_TEXT	SEGMENT
_this$ = -4						; size = 4
?name@_System_error_category@std@@UBEPBDXZ PROC		; std::_System_error_category::name, COMDAT
; _this$ = ecx

; 629  : 		{	// get name of category

	push	ebp
	mov	ebp, esp
	push	ecx
	mov	DWORD PTR _this$[ebp], ecx

; 630  : 		return ("system");

	mov	eax, OFFSET ??_C@_06FHFOAHML@system?$AA@

; 631  : 		}

	mov	esp, ebp
	pop	ebp
	ret	0
?name@_System_error_category@std@@UBEPBDXZ ENDP		; std::_System_error_category::name
_TEXT	ENDS
; Function compile flags: /Odtp
; File c:\program files (x86)\microsoft visual studio 11.0\vc\include\system_error
;	COMDAT ??0_System_error_category@std@@QAE@XZ
_TEXT	SEGMENT
_this$ = -4						; size = 4
??0_System_error_category@std@@QAE@XZ PROC		; std::_System_error_category::_System_error_category, COMDAT
; _this$ = ecx

; 624  : 	_System_error_category()

	push	ebp
	mov	ebp, esp
	push	ecx
	mov	DWORD PTR _this$[ebp], ecx
	mov	ecx, DWORD PTR _this$[ebp]
	call	??0_Generic_error_category@std@@QAE@XZ	; std::_Generic_error_category::_Generic_error_category
	mov	eax, DWORD PTR _this$[ebp]
	mov	DWORD PTR [eax], OFFSET ??_7_System_error_category@std@@6B@

; 625  : 		{	// default constructor
; 626  : 		}

	mov	eax, DWORD PTR _this$[ebp]
	mov	esp, ebp
	pop	ebp
	ret	0
??0_System_error_category@std@@QAE@XZ ENDP		; std::_System_error_category::_System_error_category
_TEXT	ENDS
; Function compile flags: /Odtp
;	COMDAT ??_G_Iostream_error_category@std@@UAEPAXI@Z
_TEXT	SEGMENT
_this$ = -4						; size = 4
___flags$ = 8						; size = 4
??_G_Iostream_error_category@std@@UAEPAXI@Z PROC	; std::_Iostream_error_category::`scalar deleting destructor', COMDAT
; _this$ = ecx
	push	ebp
	mov	ebp, esp
	push	ecx
	mov	DWORD PTR _this$[ebp], ecx
	mov	ecx, DWORD PTR _this$[ebp]
	call	??1_Iostream_error_category@std@@UAE@XZ
	mov	eax, DWORD PTR ___flags$[ebp]
	and	eax, 1
	je	SHORT $LN1@scalar
	mov	ecx, DWORD PTR _this$[ebp]
	push	ecx
	call	??3@YAXPAX@Z				; operator delete
	add	esp, 4
$LN1@scalar:
	mov	eax, DWORD PTR _this$[ebp]
	mov	esp, ebp
	pop	ebp
	ret	4
??_G_Iostream_error_category@std@@UAEPAXI@Z ENDP	; std::_Iostream_error_category::`scalar deleting destructor'
_TEXT	ENDS
; Function compile flags: /Odtp
;	COMDAT ??1_Iostream_error_category@std@@UAE@XZ
_TEXT	SEGMENT
_this$ = -4						; size = 4
??1_Iostream_error_category@std@@UAE@XZ PROC		; std::_Iostream_error_category::~_Iostream_error_category, COMDAT
; _this$ = ecx
	push	ebp
	mov	ebp, esp
	push	ecx
	mov	DWORD PTR _this$[ebp], ecx
	mov	ecx, DWORD PTR _this$[ebp]
	call	??1_Generic_error_category@std@@UAE@XZ
	mov	esp, ebp
	pop	ebp
	ret	0
??1_Iostream_error_category@std@@UAE@XZ ENDP		; std::_Iostream_error_category::~_Iostream_error_category
_TEXT	ENDS
; Function compile flags: /Odtp
; File c:\program files (x86)\microsoft visual studio 11.0\vc\include\system_error
;	COMDAT ?message@_Iostream_error_category@std@@UBE?AV?$basic_string@DU?$char_traits@D@std@@V?$allocator@D@2@@2@H@Z
_TEXT	SEGMENT
_this$ = -8						; size = 4
$T1 = -4						; size = 4
___$ReturnUdt$ = 8					; size = 4
__Errcode$ = 12						; size = 4
?message@_Iostream_error_category@std@@UBE?AV?$basic_string@DU?$char_traits@D@std@@V?$allocator@D@2@@2@H@Z PROC ; std::_Iostream_error_category::message, COMDAT
; _this$ = ecx

; 611  : 		{	// convert to name of error

	push	ebp
	mov	ebp, esp
	sub	esp, 8
	mov	DWORD PTR _this$[ebp], ecx
	mov	DWORD PTR $T1[ebp], 0

; 612  : 		if (_Errcode == (int)io_errc::stream)

	cmp	DWORD PTR __Errcode$[ebp], 1
	jne	SHORT $LN2@message

; 613  : 			return ("iostream stream error");

	push	OFFSET ??_C@_0BG@PADBLCHM@iostream?5stream?5error?$AA@
	mov	ecx, DWORD PTR ___$ReturnUdt$[ebp]
	call	??0?$basic_string@DU?$char_traits@D@std@@V?$allocator@D@2@@std@@QAE@PBD@Z ; std::basic_string<char,std::char_traits<char>,std::allocator<char> >::basic_string<char,std::char_traits<char>,std::allocator<char> >
	mov	eax, DWORD PTR $T1[ebp]
	or	eax, 1
	mov	DWORD PTR $T1[ebp], eax
	mov	eax, DWORD PTR ___$ReturnUdt$[ebp]
	jmp	SHORT $LN3@message

; 614  : 		else

	jmp	SHORT $LN3@message
$LN2@message:

; 615  : 			return (_Generic_error_category::message(_Errcode));

	mov	ecx, DWORD PTR __Errcode$[ebp]
	push	ecx
	mov	edx, DWORD PTR ___$ReturnUdt$[ebp]
	push	edx
	mov	ecx, DWORD PTR _this$[ebp]
	call	?message@_Generic_error_category@std@@UBE?AV?$basic_string@DU?$char_traits@D@std@@V?$allocator@D@2@@2@H@Z ; std::_Generic_error_category::message
	mov	eax, DWORD PTR $T1[ebp]
	or	eax, 1
	mov	DWORD PTR $T1[ebp], eax
	mov	eax, DWORD PTR ___$ReturnUdt$[ebp]
$LN3@message:

; 616  : 		}

	mov	esp, ebp
	pop	ebp
	ret	8
?message@_Iostream_error_category@std@@UBE?AV?$basic_string@DU?$char_traits@D@std@@V?$allocator@D@2@@2@H@Z ENDP ; std::_Iostream_error_category::message
_TEXT	ENDS
; Function compile flags: /Odtp
; File c:\program files (x86)\microsoft visual studio 11.0\vc\include\system_error
;	COMDAT ?name@_Iostream_error_category@std@@UBEPBDXZ
_TEXT	SEGMENT
_this$ = -4						; size = 4
?name@_Iostream_error_category@std@@UBEPBDXZ PROC	; std::_Iostream_error_category::name, COMDAT
; _this$ = ecx

; 606  : 		{	// get name of category

	push	ebp
	mov	ebp, esp
	push	ecx
	mov	DWORD PTR _this$[ebp], ecx

; 607  : 		return ("iostream");

	mov	eax, OFFSET ??_C@_08LLGCOLLL@iostream?$AA@

; 608  : 		}

	mov	esp, ebp
	pop	ebp
	ret	0
?name@_Iostream_error_category@std@@UBEPBDXZ ENDP	; std::_Iostream_error_category::name
_TEXT	ENDS
; Function compile flags: /Odtp
; File c:\program files (x86)\microsoft visual studio 11.0\vc\include\system_error
;	COMDAT ??0_Iostream_error_category@std@@QAE@XZ
_TEXT	SEGMENT
_this$ = -4						; size = 4
??0_Iostream_error_category@std@@QAE@XZ PROC		; std::_Iostream_error_category::_Iostream_error_category, COMDAT
; _this$ = ecx

; 601  : 	_Iostream_error_category()

	push	ebp
	mov	ebp, esp
	push	ecx
	mov	DWORD PTR _this$[ebp], ecx
	mov	ecx, DWORD PTR _this$[ebp]
	call	??0_Generic_error_category@std@@QAE@XZ	; std::_Generic_error_category::_Generic_error_category
	mov	eax, DWORD PTR _this$[ebp]
	mov	DWORD PTR [eax], OFFSET ??_7_Iostream_error_category@std@@6B@

; 602  : 		{	// default constructor
; 603  : 		}

	mov	eax, DWORD PTR _this$[ebp]
	mov	esp, ebp
	pop	ebp
	ret	0
??0_Iostream_error_category@std@@QAE@XZ ENDP		; std::_Iostream_error_category::_Iostream_error_category
_TEXT	ENDS
; Function compile flags: /Odtp
;	COMDAT ??_G_Generic_error_category@std@@UAEPAXI@Z
_TEXT	SEGMENT
_this$ = -4						; size = 4
___flags$ = 8						; size = 4
??_G_Generic_error_category@std@@UAEPAXI@Z PROC		; std::_Generic_error_category::`scalar deleting destructor', COMDAT
; _this$ = ecx
	push	ebp
	mov	ebp, esp
	push	ecx
	mov	DWORD PTR _this$[ebp], ecx
	mov	ecx, DWORD PTR _this$[ebp]
	call	??1_Generic_error_category@std@@UAE@XZ
	mov	eax, DWORD PTR ___flags$[ebp]
	and	eax, 1
	je	SHORT $LN1@scalar
	mov	ecx, DWORD PTR _this$[ebp]
	push	ecx
	call	??3@YAXPAX@Z				; operator delete
	add	esp, 4
$LN1@scalar:
	mov	eax, DWORD PTR _this$[ebp]
	mov	esp, ebp
	pop	ebp
	ret	4
??_G_Generic_error_category@std@@UAEPAXI@Z ENDP		; std::_Generic_error_category::`scalar deleting destructor'
_TEXT	ENDS
; Function compile flags: /Odtp
;	COMDAT ??1_Generic_error_category@std@@UAE@XZ
_TEXT	SEGMENT
_this$ = -4						; size = 4
??1_Generic_error_category@std@@UAE@XZ PROC		; std::_Generic_error_category::~_Generic_error_category, COMDAT
; _this$ = ecx
	push	ebp
	mov	ebp, esp
	push	ecx
	mov	DWORD PTR _this$[ebp], ecx
	mov	ecx, DWORD PTR _this$[ebp]
	call	??1error_category@std@@UAE@XZ		; std::error_category::~error_category
	mov	esp, ebp
	pop	ebp
	ret	0
??1_Generic_error_category@std@@UAE@XZ ENDP		; std::_Generic_error_category::~_Generic_error_category
_TEXT	ENDS
; Function compile flags: /Odtp
; File c:\program files (x86)\microsoft visual studio 11.0\vc\include\system_error
;	COMDAT ?message@_Generic_error_category@std@@UBE?AV?$basic_string@DU?$char_traits@D@std@@V?$allocator@D@2@@2@H@Z
_TEXT	SEGMENT
_this$ = -16						; size = 4
$T1 = -12						; size = 4
tv69 = -8						; size = 4
__Name$ = -4						; size = 4
___$ReturnUdt$ = 8					; size = 4
__Errcode$ = 12						; size = 4
?message@_Generic_error_category@std@@UBE?AV?$basic_string@DU?$char_traits@D@std@@V?$allocator@D@2@@2@H@Z PROC ; std::_Generic_error_category::message, COMDAT
; _this$ = ecx

; 590  : 		{	// convert to name of error

	push	ebp
	mov	ebp, esp
	sub	esp, 16					; 00000010H
	mov	DWORD PTR _this$[ebp], ecx
	mov	DWORD PTR $T1[ebp], 0

; 591  : 		const char *_Name = _Syserror_map(_Errcode);

	mov	eax, DWORD PTR __Errcode$[ebp]
	push	eax
	call	?_Syserror_map@std@@YAPBDH@Z		; std::_Syserror_map
	add	esp, 4
	mov	DWORD PTR __Name$[ebp], eax

; 592  : 		return (string(_Name != 0 ? _Name : "unknown error"));

	cmp	DWORD PTR __Name$[ebp], 0
	je	SHORT $LN3@message
	mov	ecx, DWORD PTR __Name$[ebp]
	mov	DWORD PTR tv69[ebp], ecx
	jmp	SHORT $LN4@message
$LN3@message:
	mov	DWORD PTR tv69[ebp], OFFSET ??_C@_0O@BFJCFAAK@unknown?5error?$AA@
$LN4@message:
	mov	edx, DWORD PTR tv69[ebp]
	push	edx
	mov	ecx, DWORD PTR ___$ReturnUdt$[ebp]
	call	??0?$basic_string@DU?$char_traits@D@std@@V?$allocator@D@2@@std@@QAE@PBD@Z ; std::basic_string<char,std::char_traits<char>,std::allocator<char> >::basic_string<char,std::char_traits<char>,std::allocator<char> >
	mov	eax, DWORD PTR $T1[ebp]
	or	eax, 1
	mov	DWORD PTR $T1[ebp], eax
	mov	eax, DWORD PTR ___$ReturnUdt$[ebp]

; 593  : 		}

	mov	esp, ebp
	pop	ebp
	ret	8
?message@_Generic_error_category@std@@UBE?AV?$basic_string@DU?$char_traits@D@std@@V?$allocator@D@2@@2@H@Z ENDP ; std::_Generic_error_category::message
_TEXT	ENDS
; Function compile flags: /Odtp
; File c:\program files (x86)\microsoft visual studio 11.0\vc\include\system_error
;	COMDAT ?name@_Generic_error_category@std@@UBEPBDXZ
_TEXT	SEGMENT
_this$ = -4						; size = 4
?name@_Generic_error_category@std@@UBEPBDXZ PROC	; std::_Generic_error_category::name, COMDAT
; _this$ = ecx

; 585  : 		{	// get name of category

	push	ebp
	mov	ebp, esp
	push	ecx
	mov	DWORD PTR _this$[ebp], ecx

; 586  : 		return ("generic");

	mov	eax, OFFSET ??_C@_07DCLBNMLN@generic?$AA@

; 587  : 		}

	mov	esp, ebp
	pop	ebp
	ret	0
?name@_Generic_error_category@std@@UBEPBDXZ ENDP	; std::_Generic_error_category::name
_TEXT	ENDS
; Function compile flags: /Odtp
; File c:\program files (x86)\microsoft visual studio 11.0\vc\include\system_error
;	COMDAT ??0_Generic_error_category@std@@QAE@XZ
_TEXT	SEGMENT
_this$ = -4						; size = 4
??0_Generic_error_category@std@@QAE@XZ PROC		; std::_Generic_error_category::_Generic_error_category, COMDAT
; _this$ = ecx

; 580  : 	_Generic_error_category()

	push	ebp
	mov	ebp, esp
	push	ecx
	mov	DWORD PTR _this$[ebp], ecx
	mov	ecx, DWORD PTR _this$[ebp]
	call	??0error_category@std@@QAE@XZ		; std::error_category::error_category
	mov	eax, DWORD PTR _this$[ebp]
	mov	DWORD PTR [eax], OFFSET ??_7_Generic_error_category@std@@6B@

; 581  : 		{	// default constructor
; 582  : 		}

	mov	eax, DWORD PTR _this$[ebp]
	mov	esp, ebp
	pop	ebp
	ret	0
??0_Generic_error_category@std@@QAE@XZ ENDP		; std::_Generic_error_category::_Generic_error_category
_TEXT	ENDS
; Function compile flags: /Odtp
; File c:\program files (x86)\microsoft visual studio 11.0\vc\include\system_error
;	COMDAT ??8error_condition@std@@QBE_NABV01@@Z
_TEXT	SEGMENT
tv78 = -8						; size = 4
_this$ = -4						; size = 4
__Right$ = 8						; size = 4
??8error_condition@std@@QBE_NABV01@@Z PROC		; std::error_condition::operator==, COMDAT
; _this$ = ecx

; 376  : 		{	// test if *this == _Right

	push	ebp
	mov	ebp, esp
	sub	esp, 8
	push	esi
	mov	DWORD PTR _this$[ebp], ecx

; 377  : 		return (category() == _Right.category()
; 378  : 			&& value() == _Right.value());

	mov	ecx, DWORD PTR __Right$[ebp]
	call	?category@error_condition@std@@QBEABVerror_category@2@XZ ; std::error_condition::category
	push	eax
	mov	ecx, DWORD PTR _this$[ebp]
	call	?category@error_condition@std@@QBEABVerror_category@2@XZ ; std::error_condition::category
	mov	ecx, eax
	call	??8error_category@std@@QBE_NABV01@@Z	; std::error_category::operator==
	movzx	eax, al
	test	eax, eax
	je	SHORT $LN3@operator
	mov	ecx, DWORD PTR _this$[ebp]
	call	?value@error_condition@std@@QBEHXZ	; std::error_condition::value
	mov	esi, eax
	mov	ecx, DWORD PTR __Right$[ebp]
	call	?value@error_condition@std@@QBEHXZ	; std::error_condition::value
	cmp	esi, eax
	jne	SHORT $LN3@operator
	mov	DWORD PTR tv78[ebp], 1
	jmp	SHORT $LN4@operator
$LN3@operator:
	mov	DWORD PTR tv78[ebp], 0
$LN4@operator:
	mov	al, BYTE PTR tv78[ebp]

; 379  : 		}

	pop	esi
	mov	esp, ebp
	pop	ebp
	ret	4
??8error_condition@std@@QBE_NABV01@@Z ENDP		; std::error_condition::operator==
_TEXT	ENDS
; Function compile flags: /Odtp
; File c:\program files (x86)\microsoft visual studio 11.0\vc\include\system_error
;	COMDAT ?category@error_condition@std@@QBEABVerror_category@2@XZ
_TEXT	SEGMENT
_this$ = -4						; size = 4
?category@error_condition@std@@QBEABVerror_category@2@XZ PROC ; std::error_condition::category, COMDAT
; _this$ = ecx

; 354  : 		{	// get category

	push	ebp
	mov	ebp, esp
	push	ecx
	mov	DWORD PTR _this$[ebp], ecx

; 355  : 		return (*_Mycat);

	mov	eax, DWORD PTR _this$[ebp]
	mov	eax, DWORD PTR [eax+4]

; 356  : 		}

	mov	esp, ebp
	pop	ebp
	ret	0
?category@error_condition@std@@QBEABVerror_category@2@XZ ENDP ; std::error_condition::category
_TEXT	ENDS
; Function compile flags: /Odtp
; File c:\program files (x86)\microsoft visual studio 11.0\vc\include\system_error
;	COMDAT ?value@error_condition@std@@QBEHXZ
_TEXT	SEGMENT
_this$ = -4						; size = 4
?value@error_condition@std@@QBEHXZ PROC			; std::error_condition::value, COMDAT
; _this$ = ecx

; 349  : 		{	// get error code

	push	ebp
	mov	ebp, esp
	push	ecx
	mov	DWORD PTR _this$[ebp], ecx

; 350  : 		return (_Myval);

	mov	eax, DWORD PTR _this$[ebp]
	mov	eax, DWORD PTR [eax]

; 351  : 		}

	mov	esp, ebp
	pop	ebp
	ret	0
?value@error_condition@std@@QBEHXZ ENDP			; std::error_condition::value
_TEXT	ENDS
; Function compile flags: /Odtp
; File c:\program files (x86)\microsoft visual studio 11.0\vc\include\system_error
;	COMDAT ??0error_condition@std@@QAE@HABVerror_category@1@@Z
_TEXT	SEGMENT
_this$ = -4						; size = 4
__Val$ = 8						; size = 4
__Cat$ = 12						; size = 4
??0error_condition@std@@QAE@HABVerror_category@1@@Z PROC ; std::error_condition::error_condition, COMDAT
; _this$ = ecx

; 316  : 		{	// construct from error code and category

	push	ebp
	mov	ebp, esp
	push	ecx
	mov	DWORD PTR _this$[ebp], ecx
	mov	eax, DWORD PTR _this$[ebp]
	mov	ecx, DWORD PTR __Val$[ebp]
	mov	DWORD PTR [eax], ecx
	mov	edx, DWORD PTR _this$[ebp]
	mov	eax, DWORD PTR __Cat$[ebp]
	mov	DWORD PTR [edx+4], eax

; 317  : 		}

	mov	eax, DWORD PTR _this$[ebp]
	mov	esp, ebp
	pop	ebp
	ret	8
??0error_condition@std@@QAE@HABVerror_category@1@@Z ENDP ; std::error_condition::error_condition
_TEXT	ENDS
; Function compile flags: /Odtp
; File c:\program files (x86)\microsoft visual studio 11.0\vc\include\system_error
;	COMDAT ?category@error_code@std@@QBEABVerror_category@2@XZ
_TEXT	SEGMENT
_this$ = -4						; size = 4
?category@error_code@std@@QBEABVerror_category@2@XZ PROC ; std::error_code::category, COMDAT
; _this$ = ecx

; 256  : 		{	// get category

	push	ebp
	mov	ebp, esp
	push	ecx
	mov	DWORD PTR _this$[ebp], ecx

; 257  : 		return (*_Mycat);

	mov	eax, DWORD PTR _this$[ebp]
	mov	eax, DWORD PTR [eax+4]

; 258  : 		}

	mov	esp, ebp
	pop	ebp
	ret	0
?category@error_code@std@@QBEABVerror_category@2@XZ ENDP ; std::error_code::category
_TEXT	ENDS
; Function compile flags: /Odtp
; File c:\program files (x86)\microsoft visual studio 11.0\vc\include\system_error
;	COMDAT ?value@error_code@std@@QBEHXZ
_TEXT	SEGMENT
_this$ = -4						; size = 4
?value@error_code@std@@QBEHXZ PROC			; std::error_code::value, COMDAT
; _this$ = ecx

; 251  : 		{	// get error code

	push	ebp
	mov	ebp, esp
	push	ecx
	mov	DWORD PTR _this$[ebp], ecx

; 252  : 		return (_Myval);

	mov	eax, DWORD PTR _this$[ebp]
	mov	eax, DWORD PTR [eax]

; 253  : 		}

	mov	esp, ebp
	pop	ebp
	ret	0
?value@error_code@std@@QBEHXZ ENDP			; std::error_code::value
_TEXT	ENDS
; Function compile flags: /Odtp
;	COMDAT ??_Gerror_category@std@@UAEPAXI@Z
_TEXT	SEGMENT
_this$ = -4						; size = 4
___flags$ = 8						; size = 4
??_Gerror_category@std@@UAEPAXI@Z PROC			; std::error_category::`scalar deleting destructor', COMDAT
; _this$ = ecx
	push	ebp
	mov	ebp, esp
	push	ecx
	mov	DWORD PTR _this$[ebp], ecx
	mov	ecx, DWORD PTR _this$[ebp]
	call	??1error_category@std@@UAE@XZ		; std::error_category::~error_category
	mov	eax, DWORD PTR ___flags$[ebp]
	and	eax, 1
	je	SHORT $LN1@scalar
	mov	ecx, DWORD PTR _this$[ebp]
	push	ecx
	call	??3@YAXPAX@Z				; operator delete
	add	esp, 4
$LN1@scalar:
	mov	eax, DWORD PTR _this$[ebp]
	mov	esp, ebp
	pop	ebp
	ret	4
??_Gerror_category@std@@UAEPAXI@Z ENDP			; std::error_category::`scalar deleting destructor'
_TEXT	ENDS
; Function compile flags: /Odtp
; File c:\program files (x86)\microsoft visual studio 11.0\vc\include\system_error
;	COMDAT ??8error_category@std@@QBE_NABV01@@Z
_TEXT	SEGMENT
_this$ = -8						; size = 4
tv65 = -4						; size = 4
__Right$ = 8						; size = 4
??8error_category@std@@QBE_NABV01@@Z PROC		; std::error_category::operator==, COMDAT
; _this$ = ecx

; 184  : 		{	// compare categories for equality

	push	ebp
	mov	ebp, esp
	sub	esp, 8
	mov	DWORD PTR _this$[ebp], ecx

; 185  : 		return (this == &_Right);

	mov	eax, DWORD PTR _this$[ebp]
	cmp	eax, DWORD PTR __Right$[ebp]
	jne	SHORT $LN3@operator
	mov	DWORD PTR tv65[ebp], 1
	jmp	SHORT $LN4@operator
$LN3@operator:
	mov	DWORD PTR tv65[ebp], 0
$LN4@operator:
	mov	al, BYTE PTR tv65[ebp]

; 186  : 		}

	mov	esp, ebp
	pop	ebp
	ret	4
??8error_category@std@@QBE_NABV01@@Z ENDP		; std::error_category::operator==
_TEXT	ENDS
; Function compile flags: /Odtp
; File c:\program files (x86)\microsoft visual studio 11.0\vc\include\system_error
;	COMDAT ?equivalent@error_category@std@@UBE_NABVerror_code@2@H@Z
_TEXT	SEGMENT
_this$ = -8						; size = 4
tv74 = -4						; size = 4
__Code$ = 8						; size = 4
__Errval$ = 12						; size = 4
?equivalent@error_category@std@@UBE_NABVerror_code@2@H@Z PROC ; std::error_category::equivalent, COMDAT
; _this$ = ecx

; 415  : 	{	// test if conditions same for this category

	push	ebp
	mov	ebp, esp
	sub	esp, 8
	mov	DWORD PTR _this$[ebp], ecx

; 416  : 	return (*this == _Code.category() && _Code.value() == _Errval);

	mov	ecx, DWORD PTR __Code$[ebp]
	call	?category@error_code@std@@QBEABVerror_category@2@XZ ; std::error_code::category
	push	eax
	mov	ecx, DWORD PTR _this$[ebp]
	call	??8error_category@std@@QBE_NABV01@@Z	; std::error_category::operator==
	movzx	eax, al
	test	eax, eax
	je	SHORT $LN3@equivalent
	mov	ecx, DWORD PTR __Code$[ebp]
	call	?value@error_code@std@@QBEHXZ		; std::error_code::value
	cmp	eax, DWORD PTR __Errval$[ebp]
	jne	SHORT $LN3@equivalent
	mov	DWORD PTR tv74[ebp], 1
	jmp	SHORT $LN4@equivalent
$LN3@equivalent:
	mov	DWORD PTR tv74[ebp], 0
$LN4@equivalent:
	mov	al, BYTE PTR tv74[ebp]

; 417  : 	}

	mov	esp, ebp
	pop	ebp
	ret	8
?equivalent@error_category@std@@UBE_NABVerror_code@2@H@Z ENDP ; std::error_category::equivalent
_TEXT	ENDS
; Function compile flags: /Odtp
; File c:\program files (x86)\microsoft visual studio 11.0\vc\include\system_error
;	COMDAT ?equivalent@error_category@std@@UBE_NHABVerror_condition@2@@Z
_TEXT	SEGMENT
$T1 = -12						; size = 8
_this$ = -4						; size = 4
__Errval$ = 8						; size = 4
__Cond$ = 12						; size = 4
?equivalent@error_category@std@@UBE_NHABVerror_condition@2@@Z PROC ; std::error_category::equivalent, COMDAT
; _this$ = ecx

; 408  : 	{	// test if error code same condition

	push	ebp
	mov	ebp, esp
	sub	esp, 12					; 0000000cH
	mov	DWORD PTR _this$[ebp], ecx

; 409  : 	return (default_error_condition(_Errval) == _Cond);

	mov	eax, DWORD PTR __Cond$[ebp]
	push	eax
	mov	ecx, DWORD PTR __Errval$[ebp]
	push	ecx
	lea	edx, DWORD PTR $T1[ebp]
	push	edx
	mov	eax, DWORD PTR _this$[ebp]
	mov	edx, DWORD PTR [eax]
	mov	ecx, DWORD PTR _this$[ebp]
	mov	eax, DWORD PTR [edx+12]
	call	eax
	mov	ecx, eax
	call	??8error_condition@std@@QBE_NABV01@@Z	; std::error_condition::operator==

; 410  : 	}

	mov	esp, ebp
	pop	ebp
	ret	8
?equivalent@error_category@std@@UBE_NHABVerror_condition@2@@Z ENDP ; std::error_category::equivalent
_TEXT	ENDS
; Function compile flags: /Odtp
; File c:\program files (x86)\microsoft visual studio 11.0\vc\include\system_error
;	COMDAT ?default_error_condition@error_category@std@@UBE?AVerror_condition@2@H@Z
_TEXT	SEGMENT
_this$ = -4						; size = 4
___$ReturnUdt$ = 8					; size = 4
__Errval$ = 12						; size = 4
?default_error_condition@error_category@std@@UBE?AVerror_condition@2@H@Z PROC ; std::error_category::default_error_condition, COMDAT
; _this$ = ecx

; 401  : 	{	// make error_condition for error code

	push	ebp
	mov	ebp, esp
	push	ecx
	mov	DWORD PTR _this$[ebp], ecx

; 402  : 	return (error_condition(_Errval, *this));

	mov	eax, DWORD PTR _this$[ebp]
	push	eax
	mov	ecx, DWORD PTR __Errval$[ebp]
	push	ecx
	mov	ecx, DWORD PTR ___$ReturnUdt$[ebp]
	call	??0error_condition@std@@QAE@HABVerror_category@1@@Z ; std::error_condition::error_condition
	mov	eax, DWORD PTR ___$ReturnUdt$[ebp]

; 403  : 	}

	mov	esp, ebp
	pop	ebp
	ret	8
?default_error_condition@error_category@std@@UBE?AVerror_condition@2@H@Z ENDP ; std::error_category::default_error_condition
_TEXT	ENDS
; Function compile flags: /Odtp
; File c:\program files (x86)\microsoft visual studio 11.0\vc\include\system_error
;	COMDAT ??1error_category@std@@UAE@XZ
_TEXT	SEGMENT
_this$ = -4						; size = 4
??1error_category@std@@UAE@XZ PROC			; std::error_category::~error_category, COMDAT
; _this$ = ecx

; 167  : 		{	// destroy the object

	push	ebp
	mov	ebp, esp
	push	ecx
	mov	DWORD PTR _this$[ebp], ecx
	mov	eax, DWORD PTR _this$[ebp]
	mov	DWORD PTR [eax], OFFSET ??_7error_category@std@@6B@

; 168  : 		}

	mov	esp, ebp
	pop	ebp
	ret	0
??1error_category@std@@UAE@XZ ENDP			; std::error_category::~error_category
_TEXT	ENDS
; Function compile flags: /Odtp
; File c:\program files (x86)\microsoft visual studio 11.0\vc\include\system_error
;	COMDAT ??0error_category@std@@QAE@XZ
_TEXT	SEGMENT
_this$ = -4						; size = 4
??0error_category@std@@QAE@XZ PROC			; std::error_category::error_category, COMDAT
; _this$ = ecx

; 162  : 	error_category()

	push	ebp
	mov	ebp, esp
	push	ecx
	mov	DWORD PTR _this$[ebp], ecx
	mov	eax, DWORD PTR _this$[ebp]
	mov	DWORD PTR [eax], OFFSET ??_7error_category@std@@6B@

; 163  : 		{	// default constructor
; 164  : 		}

	mov	eax, DWORD PTR _this$[ebp]
	mov	esp, ebp
	pop	ebp
	ret	0
??0error_category@std@@QAE@XZ ENDP			; std::error_category::error_category
_TEXT	ENDS
; Function compile flags: /Odtp
; File c:\program files (x86)\microsoft visual studio 11.0\vc\include\system_error
;	COMDAT ?system_category@std@@YAABVerror_category@1@XZ
_TEXT	SEGMENT
?system_category@std@@YAABVerror_category@1@XZ PROC	; std::system_category, COMDAT

; 679  : 	{	// get system_category

	push	ebp
	mov	ebp, esp

; 680  : 	return (_Error_objects<int>::_System_object);

	mov	eax, OFFSET ?_System_object@?$_Error_objects@H@std@@2V_System_error_category@2@A ; std::_Error_objects<int>::_System_object

; 681  : 	}

	pop	ebp
	ret	0
?system_category@std@@YAABVerror_category@1@XZ ENDP	; std::system_category
_TEXT	ENDS
; Function compile flags: /Odtp
; File c:\program files (x86)\microsoft visual studio 11.0\vc\include\system_error
;	COMDAT ?generic_category@std@@YAABVerror_category@1@XZ
_TEXT	SEGMENT
?generic_category@std@@YAABVerror_category@1@XZ PROC	; std::generic_category, COMDAT

; 669  : 	{	// get generic_category

	push	ebp
	mov	ebp, esp

; 670  : 	return (_Error_objects<int>::_Generic_object);

	mov	eax, OFFSET ?_Generic_object@?$_Error_objects@H@std@@2V_Generic_error_category@2@A ; std::_Error_objects<int>::_Generic_object

; 671  : 	}

	pop	ebp
	ret	0
?generic_category@std@@YAABVerror_category@1@XZ ENDP	; std::generic_category
_TEXT	ENDS
; Function compile flags: /Odtp
; File c:\program files (x86)\microsoft visual studio 11.0\vc\include\xlocale
;	COMDAT ??0id@locale@std@@QAE@I@Z
_TEXT	SEGMENT
_this$ = -4						; size = 4
__Val$ = 8						; size = 4
??0id@locale@std@@QAE@I@Z PROC				; std::locale::id::id, COMDAT
; _this$ = ecx

; 74   : 			{	// construct with specified stamp value

	push	ebp
	mov	ebp, esp
	push	ecx
	mov	DWORD PTR _this$[ebp], ecx
	mov	eax, DWORD PTR _this$[ebp]
	mov	ecx, DWORD PTR __Val$[ebp]
	mov	DWORD PTR [eax], ecx

; 75   : 			}

	mov	eax, DWORD PTR _this$[ebp]
	mov	esp, ebp
	pop	ebp
	ret	4
??0id@locale@std@@QAE@I@Z ENDP				; std::locale::id::id
_TEXT	ENDS
; Function compile flags: /Odtp
; File c:\users\zhitao li\documents\visual studio 2012\projects\freefalcon\sim\include\digi.h
;	COMDAT ?SetTrackPoint@DigitalBrain@@QAEXMM@Z
_TEXT	SEGMENT
_this$ = -4						; size = 4
_x$ = 8							; size = 4
_y$ = 12						; size = 4
?SetTrackPoint@DigitalBrain@@QAEXMM@Z PROC		; DigitalBrain::SetTrackPoint, COMDAT
; _this$ = ecx

; 698  : 	void	SetTrackPoint(float x, float y){ trackX = x; trackY=y; }

	push	ebp
	mov	ebp, esp
	push	ecx
	mov	DWORD PTR _this$[ebp], ecx
	mov	eax, DWORD PTR _this$[ebp]
	movss	xmm0, DWORD PTR _x$[ebp]
	movss	DWORD PTR [eax+148], xmm0
	mov	ecx, DWORD PTR _this$[ebp]
	movss	xmm0, DWORD PTR _y$[ebp]
	movss	DWORD PTR [ecx+152], xmm0
	mov	esp, ebp
	pop	ebp
	ret	8
?SetTrackPoint@DigitalBrain@@QAEXMM@Z ENDP		; DigitalBrain::SetTrackPoint
_TEXT	ENDS
; Function compile flags: /Odtp
; File c:\users\zhitao li\documents\visual studio 2012\projects\freefalcon\campaign\include\campwp.h
;	COMDAT ?GetNextWP@WayPointClass@@QAEPAV1@XZ
_TEXT	SEGMENT
_this$ = -4						; size = 4
?GetNextWP@WayPointClass@@QAEPAV1@XZ PROC		; WayPointClass::GetNextWP, COMDAT
; _this$ = ecx

; 175  : 	WayPoint GetNextWP (void)						{ return NextWP; }

	push	ebp
	mov	ebp, esp
	push	ecx
	mov	DWORD PTR _this$[ebp], ecx
	mov	eax, DWORD PTR _this$[ebp]
	mov	eax, DWORD PTR [eax+44]
	mov	esp, ebp
	pop	ebp
	ret	0
?GetNextWP@WayPointClass@@QAEPAV1@XZ ENDP		; WayPointClass::GetNextWP
_TEXT	ENDS
; Function compile flags: /Odtp
; File c:\users\zhitao li\documents\visual studio 2012\projects\freefalcon\campaign\include\campwp.h
;	COMDAT ?GetWPAction@WayPointClass@@QAEHXZ
_TEXT	SEGMENT
_this$ = -4						; size = 4
?GetWPAction@WayPointClass@@QAEHXZ PROC			; WayPointClass::GetWPAction, COMDAT
; _this$ = ecx

; 170  : 	int GetWPAction(void)							{ return (int)Action; }

	push	ebp
	mov	ebp, esp
	push	ecx
	mov	DWORD PTR _this$[ebp], ecx
	mov	eax, DWORD PTR _this$[ebp]
	movzx	eax, BYTE PTR [eax+24]
	mov	esp, ebp
	pop	ebp
	ret	0
?GetWPAction@WayPointClass@@QAEHXZ ENDP			; WayPointClass::GetWPAction
_TEXT	ENDS
; Function compile flags: /Odtp
; File c:\users\zhitao li\documents\visual studio 2012\projects\freefalcon\sim\include\simbrain.h
;	COMDAT ?PostInsert@BaseBrain@@UAEXXZ
_TEXT	SEGMENT
_this$ = -4						; size = 4
?PostInsert@BaseBrain@@UAEXXZ PROC			; BaseBrain::PostInsert, COMDAT
; _this$ = ecx

; 33   :       virtual void PostInsert (void) {};

	push	ebp
	mov	ebp, esp
	push	ecx
	mov	DWORD PTR _this$[ebp], ecx
	mov	esp, ebp
	pop	ebp
	ret	0
?PostInsert@BaseBrain@@UAEXXZ ENDP			; BaseBrain::PostInsert
_TEXT	ENDS
; Function compile flags: /Odtp
; File c:\users\zhitao li\documents\visual studio 2012\projects\freefalcon\falclib\include\mltrig.h
;	COMDAT ?checked_atan2@@YANNN@Z
_TEXT	SEGMENT
_z$ = -8						; size = 8
_y$ = 8							; size = 8
_x$ = 16						; size = 8
?checked_atan2@@YANNN@Z PROC				; checked_atan2, COMDAT

; 46   : {

	push	ebp
	mov	ebp, esp
	sub	esp, 8

; 47   : 	double z;
; 48   : 	
; 49   : 	if (x == -0.0)

	movsd	xmm0, QWORD PTR _x$[ebp]
	ucomisd	xmm0, QWORD PTR __real@8000000000000000
	lahf
	test	ah, 68					; 00000044H
	jp	SHORT $LN8@checked_at

; 50   : 		x = 0.0;

	movsd	xmm0, QWORD PTR __real@0000000000000000
	movsd	QWORD PTR _x$[ebp], xmm0
$LN8@checked_at:

; 51   : 	
; 52   : 	if (x != 0)

	movsd	xmm0, QWORD PTR _x$[ebp]
	ucomisd	xmm0, QWORD PTR __real@0000000000000000
	lahf
	test	ah, 68					; 00000044H
	jnp	SHORT $LN7@checked_at

; 53   : 		z = atan(y / x);

	movsd	xmm0, QWORD PTR _y$[ebp]
	divsd	xmm0, QWORD PTR _x$[ebp]
	sub	esp, 8
	movsd	QWORD PTR [esp], xmm0
	call	_atan
	add	esp, 8
	fstp	QWORD PTR _z$[ebp]
	jmp	SHORT $LN4@checked_at
$LN7@checked_at:

; 54   : 	else if (y > 0)

	movsd	xmm0, QWORD PTR _y$[ebp]
	comisd	xmm0, QWORD PTR __real@0000000000000000
	jbe	SHORT $LN5@checked_at

; 55   : 		z = HALF_DPI;

	movsd	xmm0, QWORD PTR __real@3ff921fb54442d18
	movsd	QWORD PTR _z$[ebp], xmm0

; 56   : 	else

	jmp	SHORT $LN4@checked_at
$LN5@checked_at:

; 57   : 		z = -HALF_DPI;

	movsd	xmm0, QWORD PTR __real@bff921fb54442d18
	movsd	QWORD PTR _z$[ebp], xmm0
$LN4@checked_at:

; 58   : 
; 59   : 	if (x < 0)

	movsd	xmm0, QWORD PTR __real@0000000000000000
	comisd	xmm0, QWORD PTR _x$[ebp]
	jbe	SHORT $LN1@checked_at

; 60   : 	{
; 61   : 		if (y < 0)

	movsd	xmm0, QWORD PTR __real@0000000000000000
	comisd	xmm0, QWORD PTR _y$[ebp]
	jbe	SHORT $LN2@checked_at

; 62   : 			z -= DPI;

	movsd	xmm0, QWORD PTR _z$[ebp]
	subsd	xmm0, QWORD PTR __real@400921fb54442d18
	movsd	QWORD PTR _z$[ebp], xmm0

; 63   : 		else

	jmp	SHORT $LN1@checked_at
$LN2@checked_at:

; 64   : 			z += DPI;

	movsd	xmm0, QWORD PTR _z$[ebp]
	addsd	xmm0, QWORD PTR __real@400921fb54442d18
	movsd	QWORD PTR _z$[ebp], xmm0
$LN1@checked_at:

; 65   : 	}
; 66   : 
; 67   : 	return z;

	fld	QWORD PTR _z$[ebp]

; 68   : }

	mov	esp, ebp
	pop	ebp
	ret	0
?checked_atan2@@YANNN@Z ENDP				; checked_atan2
_TEXT	ENDS
; Function compile flags: /Odtp
; File c:\users\zhitao li\documents\visual studio 2012\projects\freefalcon\falclib\include\mltrig.h
;	COMDAT ?mlSinCos@@YAXPAUmlTrig@@M@Z
_TEXT	SEGMENT
_trig$ = 8						; size = 4
_angle$ = 12						; size = 4
?mlSinCos@@YAXPAUmlTrig@@M@Z PROC			; mlSinCos, COMDAT

; 12   : {

	push	ebp
	mov	ebp, esp

; 13   : #if defined(_MSC_VER)
; 14   : 	__asm 
; 15   : 	{
; 16   : 		__asm	mov     ecx, trig;

	mov	ecx, DWORD PTR _trig$[ebp]

; 17   : 		__asm	fld     dword ptr [angle];

	fld	DWORD PTR _angle$[ebp]

; 18   : 		__asm	fsincos;

	fsincos

; 19   : 		__asm	fstp    dword ptr [ecx]trig.cos;

	fstp	DWORD PTR [ecx+4]

; 20   : 		__asm	fstp    dword ptr [ecx]trig.sin;

	fstp	DWORD PTR [ecx]

; 21   : 	}
; 22   : #else
; 23   : 	trig->sin = (Float32)sin(angle);
; 24   : 	trig->cos = (Float32)cos(angle);
; 25   : #endif
; 26   : }

	pop	ebp
	ret	0
?mlSinCos@@YAXPAUmlTrig@@M@Z ENDP			; mlSinCos
_TEXT	ENDS
; Function compile flags: /Odtp
; File c:\users\zhitao li\documents\visual studio 2012\projects\freefalcon\vu2\include\vu_templates.h
;	COMDAT ?get@?$VuBin@VVuSessionEntity@@@@QBEPAVVuSessionEntity@@XZ
_TEXT	SEGMENT
_this$ = -4						; size = 4
?get@?$VuBin@VVuSessionEntity@@@@QBEPAVVuSessionEntity@@XZ PROC ; VuBin<VuSessionEntity>::get, COMDAT
; _this$ = ecx

; 55   : 	E *get() const{

	push	ebp
	mov	ebp, esp
	push	ecx
	mov	DWORD PTR _this$[ebp], ecx

; 56   : 		return e;

	mov	eax, DWORD PTR _this$[ebp]
	mov	eax, DWORD PTR [eax]

; 57   : 	}

	mov	esp, ebp
	pop	ebp
	ret	0
?get@?$VuBin@VVuSessionEntity@@@@QBEPAVVuSessionEntity@@XZ ENDP ; VuBin<VuSessionEntity>::get
_TEXT	ENDS
; Function compile flags: /Odtp
; File c:\users\zhitao li\documents\visual studio 2012\projects\freefalcon\vu2\include\vu_templates.h
;	COMDAT ??C?$VuBin@VVuSessionEntity@@@@QBEPAVVuSessionEntity@@XZ
_TEXT	SEGMENT
_this$ = -4						; size = 4
??C?$VuBin@VVuSessionEntity@@@@QBEPAVVuSessionEntity@@XZ PROC ; VuBin<VuSessionEntity>::operator->, COMDAT
; _this$ = ecx

; 50   : 	E *operator->() const {

	push	ebp
	mov	ebp, esp
	push	ecx
	mov	DWORD PTR _this$[ebp], ecx

; 51   : 		return e;

	mov	eax, DWORD PTR _this$[ebp]
	mov	eax, DWORD PTR [eax]

; 52   : 	}

	mov	esp, ebp
	pop	ebp
	ret	0
??C?$VuBin@VVuSessionEntity@@@@QBEPAVVuSessionEntity@@XZ ENDP ; VuBin<VuSessionEntity>::operator->
_TEXT	ENDS
; Function compile flags: /Odtp
; File c:\users\zhitao li\documents\visual studio 2012\projects\freefalcon\vu2\include\vu_templates.h
;	COMDAT ??B?$VuBin@VVuSessionEntity@@@@QBE_NXZ
_TEXT	SEGMENT
_this$ = -8						; size = 4
tv66 = -4						; size = 4
??B?$VuBin@VVuSessionEntity@@@@QBE_NXZ PROC		; VuBin<VuSessionEntity>::operator bool, COMDAT
; _this$ = ecx

; 40   : 	operator bool() const{

	push	ebp
	mov	ebp, esp
	sub	esp, 8
	mov	DWORD PTR _this$[ebp], ecx

; 41   : 		return e != NULL;

	mov	eax, DWORD PTR _this$[ebp]
	cmp	DWORD PTR [eax], 0
	je	SHORT $LN3@operator
	mov	DWORD PTR tv66[ebp], 1
	jmp	SHORT $LN4@operator
$LN3@operator:
	mov	DWORD PTR tv66[ebp], 0
$LN4@operator:
	mov	al, BYTE PTR tv66[ebp]

; 42   : 	}

	mov	esp, ebp
	pop	ebp
	ret	0
??B?$VuBin@VVuSessionEntity@@@@QBE_NXZ ENDP		; VuBin<VuSessionEntity>::operator bool
_TEXT	ENDS
; Function compile flags: /Odtp
; File c:\program files (x86)\microsoft visual studio 11.0\vc\include\xstring
;	COMDAT ?_Xran@?$basic_string@DU?$char_traits@D@std@@V?$allocator@D@2@@std@@QBEXXZ
_TEXT	SEGMENT
_this$ = -4						; size = 4
?_Xran@?$basic_string@DU?$char_traits@D@std@@V?$allocator@D@2@@std@@QBEXXZ PROC ; std::basic_string<char,std::char_traits<char>,std::allocator<char> >::_Xran, COMDAT
; _this$ = ecx

; 2275 : 		{	// report an out_of_range error

	push	ebp
	mov	ebp, esp
	push	ecx
	mov	DWORD PTR _this$[ebp], ecx

; 2276 : 		_Xout_of_range("invalid string position");

	push	OFFSET ??_C@_0BI@CFPLBAOH@invalid?5string?5position?$AA@
	call	?_Xout_of_range@std@@YAXPBD@Z		; std::_Xout_of_range
$LN2@Xran:

; 2277 : 		}

	mov	esp, ebp
	pop	ebp
	ret	0
?_Xran@?$basic_string@DU?$char_traits@D@std@@V?$allocator@D@2@@std@@QBEXXZ ENDP ; std::basic_string<char,std::char_traits<char>,std::allocator<char> >::_Xran
_TEXT	ENDS
; Function compile flags: /Odtp
; File c:\program files (x86)\microsoft visual studio 11.0\vc\include\xstring
;	COMDAT ?_Xlen@?$basic_string@DU?$char_traits@D@std@@V?$allocator@D@2@@std@@QBEXXZ
_TEXT	SEGMENT
_this$ = -4						; size = 4
?_Xlen@?$basic_string@DU?$char_traits@D@std@@V?$allocator@D@2@@std@@QBEXXZ PROC ; std::basic_string<char,std::char_traits<char>,std::allocator<char> >::_Xlen, COMDAT
; _this$ = ecx

; 2270 : 		{	// report a length_error

	push	ebp
	mov	ebp, esp
	push	ecx
	mov	DWORD PTR _this$[ebp], ecx

; 2271 : 		_Xlength_error("string too long");

	push	OFFSET ??_C@_0BA@JFNIOLAK@string?5too?5long?$AA@
	call	?_Xlength_error@std@@YAXPBD@Z		; std::_Xlength_error
$LN2@Xlen:

; 2272 : 		}

	mov	esp, ebp
	pop	ebp
	ret	0
?_Xlen@?$basic_string@DU?$char_traits@D@std@@V?$allocator@D@2@@std@@QBEXXZ ENDP ; std::basic_string<char,std::char_traits<char>,std::allocator<char> >::_Xlen
_TEXT	ENDS
; Function compile flags: /Odtp
; File c:\program files (x86)\microsoft visual studio 11.0\vc\include\xstring
;	COMDAT ?_Tidy@?$basic_string@DU?$char_traits@D@std@@V?$allocator@D@2@@std@@QAEX_NI@Z
_TEXT	SEGMENT
__Ptr$1 = -12						; size = 4
_this$ = -8						; size = 4
$T2 = -2						; size = 1
$T3 = -1						; size = 1
__Built$ = 8						; size = 1
__Newsize$ = 12						; size = 4
?_Tidy@?$basic_string@DU?$char_traits@D@std@@V?$allocator@D@2@@std@@QAEX_NI@Z PROC ; std::basic_string<char,std::char_traits<char>,std::allocator<char> >::_Tidy, COMDAT
; _this$ = ecx

; 2253 : 		{	// initialize buffer, deallocating any storage

	push	ebp
	mov	ebp, esp
	sub	esp, 12					; 0000000cH
	mov	DWORD PTR _this$[ebp], ecx

; 2254 : 		if (!_Built)

	movzx	eax, BYTE PTR __Built$[ebp]
	test	eax, eax
	jne	SHORT $LN4@Tidy
	jmp	SHORT $LN3@Tidy
$LN4@Tidy:

; 2255 : 			;
; 2256 : 		else if (this->_BUF_SIZE <= this->_Myres)

	mov	ecx, DWORD PTR _this$[ebp]
	cmp	DWORD PTR [ecx+20], 16			; 00000010H
	jb	SHORT $LN3@Tidy

; 2257 : 			{	// copy any leftovers to small buffer and deallocate
; 2258 : 			pointer _Ptr = this->_Bx._Ptr;

	mov	edx, DWORD PTR _this$[ebp]
	mov	eax, DWORD PTR [edx]
	mov	DWORD PTR __Ptr$1[ebp], eax

; 2259 : 			this->_Getal().destroy(&this->_Bx._Ptr);

	mov	ecx, DWORD PTR _this$[ebp]
	push	ecx
	lea	edx, DWORD PTR $T3[ebp]
	push	edx
	mov	ecx, DWORD PTR _this$[ebp]
	call	?_Getal@?$_String_alloc@$0A@U?$_String_base_types@DV?$allocator@D@std@@@std@@@std@@QBE?AU?$_Wrap_alloc@V?$allocator@D@std@@@2@XZ ; std::_String_alloc<0,std::_String_base_types<char,std::allocator<char> > >::_Getal
	mov	ecx, eax
	call	??$destroy@PAD@?$_Wrap_alloc@V?$allocator@D@std@@@std@@QAEXPAPAD@Z ; std::_Wrap_alloc<std::allocator<char> >::destroy<char *>

; 2260 : 			if (0 < _Newsize)

	cmp	DWORD PTR __Newsize$[ebp], 0
	jbe	SHORT $LN1@Tidy

; 2261 : 				_Traits::copy(this->_Bx._Buf,
; 2262 : 					_STD addressof(*_Ptr), _Newsize);

	mov	eax, DWORD PTR __Newsize$[ebp]
	push	eax
	mov	ecx, DWORD PTR __Ptr$1[ebp]
	push	ecx
	call	??$addressof@D@std@@YAPADAAD@Z		; std::addressof<char>
	add	esp, 4
	push	eax
	mov	edx, DWORD PTR _this$[ebp]
	push	edx
	call	?copy@?$char_traits@D@std@@SAPADPADPBDI@Z ; std::char_traits<char>::copy
	add	esp, 12					; 0000000cH
$LN1@Tidy:

; 2263 : 			this->_Getal().deallocate(_Ptr, this->_Myres + 1);

	mov	eax, DWORD PTR _this$[ebp]
	mov	ecx, DWORD PTR [eax+20]
	add	ecx, 1
	push	ecx
	mov	edx, DWORD PTR __Ptr$1[ebp]
	push	edx
	lea	eax, DWORD PTR $T2[ebp]
	push	eax
	mov	ecx, DWORD PTR _this$[ebp]
	call	?_Getal@?$_String_alloc@$0A@U?$_String_base_types@DV?$allocator@D@std@@@std@@@std@@QBE?AU?$_Wrap_alloc@V?$allocator@D@std@@@2@XZ ; std::_String_alloc<0,std::_String_base_types<char,std::allocator<char> > >::_Getal
	mov	ecx, eax
	call	?deallocate@?$_Wrap_alloc@V?$allocator@D@std@@@std@@QAEXPADI@Z ; std::_Wrap_alloc<std::allocator<char> >::deallocate
$LN3@Tidy:

; 2264 : 			}
; 2265 : 		this->_Myres = this->_BUF_SIZE - 1;

	mov	ecx, DWORD PTR _this$[ebp]
	mov	DWORD PTR [ecx+20], 15			; 0000000fH

; 2266 : 		_Eos(_Newsize);

	mov	edx, DWORD PTR __Newsize$[ebp]
	push	edx
	mov	ecx, DWORD PTR _this$[ebp]
	call	?_Eos@?$basic_string@DU?$char_traits@D@std@@V?$allocator@D@2@@std@@QAEXI@Z ; std::basic_string<char,std::char_traits<char>,std::allocator<char> >::_Eos

; 2267 : 		}

	mov	esp, ebp
	pop	ebp
	ret	8
?_Tidy@?$basic_string@DU?$char_traits@D@std@@V?$allocator@D@2@@std@@QAEX_NI@Z ENDP ; std::basic_string<char,std::char_traits<char>,std::allocator<char> >::_Tidy
_TEXT	ENDS
; Function compile flags: /Odtp
; File c:\program files (x86)\microsoft visual studio 11.0\vc\include\xstring
;	COMDAT ?_Inside@?$basic_string@DU?$char_traits@D@std@@V?$allocator@D@2@@std@@QAE_NPBD@Z
_TEXT	SEGMENT
_this$ = -4						; size = 4
__Ptr$ = 8						; size = 4
?_Inside@?$basic_string@DU?$char_traits@D@std@@V?$allocator@D@2@@std@@QAE_NPBD@Z PROC ; std::basic_string<char,std::char_traits<char>,std::allocator<char> >::_Inside, COMDAT
; _this$ = ecx

; 2237 : 		{	// test if _Ptr points inside string

	push	ebp
	mov	ebp, esp
	push	ecx
	mov	DWORD PTR _this$[ebp], ecx

; 2238 : 		if (_Ptr == 0 || _Ptr < this->_Myptr()
; 2239 : 			|| this->_Myptr() + this->_Mysize <= _Ptr)

	cmp	DWORD PTR __Ptr$[ebp], 0
	je	SHORT $LN2@Inside
	mov	ecx, DWORD PTR _this$[ebp]
	call	?_Myptr@?$_String_val@U?$_Simple_types@D@std@@@std@@QAEPADXZ ; std::_String_val<std::_Simple_types<char> >::_Myptr
	cmp	DWORD PTR __Ptr$[ebp], eax
	jb	SHORT $LN2@Inside
	mov	ecx, DWORD PTR _this$[ebp]
	call	?_Myptr@?$_String_val@U?$_Simple_types@D@std@@@std@@QAEPADXZ ; std::_String_val<std::_Simple_types<char> >::_Myptr
	mov	ecx, DWORD PTR _this$[ebp]
	add	eax, DWORD PTR [ecx+16]
	cmp	eax, DWORD PTR __Ptr$[ebp]
	ja	SHORT $LN3@Inside
$LN2@Inside:

; 2240 : 			return (false);	// don't ask

	xor	al, al
	jmp	SHORT $LN4@Inside

; 2241 : 		else

	jmp	SHORT $LN4@Inside
$LN3@Inside:

; 2242 : 			return (true);

	mov	al, 1
$LN4@Inside:

; 2243 : 		}

	mov	esp, ebp
	pop	ebp
	ret	4
?_Inside@?$basic_string@DU?$char_traits@D@std@@V?$allocator@D@2@@std@@QAE_NPBD@Z ENDP ; std::basic_string<char,std::char_traits<char>,std::allocator<char> >::_Inside
_TEXT	ENDS
; Function compile flags: /Odtp
; File c:\program files (x86)\microsoft visual studio 11.0\vc\include\xstring
;	COMDAT ?_Grow@?$basic_string@DU?$char_traits@D@std@@V?$allocator@D@2@@std@@QAE_NI_N@Z
_TEXT	SEGMENT
tv136 = -12						; size = 4
tv129 = -8						; size = 4
_this$ = -4						; size = 4
__Newsize$ = 8						; size = 4
__Trim$ = 12						; size = 1
?_Grow@?$basic_string@DU?$char_traits@D@std@@V?$allocator@D@2@@std@@QAE_NI_N@Z PROC ; std::basic_string<char,std::char_traits<char>,std::allocator<char> >::_Grow, COMDAT
; _this$ = ecx

; 2223 : 		{	// ensure buffer is big enough, trim to size if _Trim is true

	push	ebp
	mov	ebp, esp
	sub	esp, 12					; 0000000cH
	mov	DWORD PTR _this$[ebp], ecx

; 2224 : 		if (max_size() < _Newsize)

	mov	ecx, DWORD PTR _this$[ebp]
	call	?max_size@?$basic_string@DU?$char_traits@D@std@@V?$allocator@D@2@@std@@QBEIXZ ; std::basic_string<char,std::char_traits<char>,std::allocator<char> >::max_size
	cmp	eax, DWORD PTR __Newsize$[ebp]
	jae	SHORT $LN6@Grow

; 2225 : 			_Xlen();	// result too long

	mov	ecx, DWORD PTR _this$[ebp]
	call	?_Xlen@?$basic_string@DU?$char_traits@D@std@@V?$allocator@D@2@@std@@QBEXXZ ; std::basic_string<char,std::char_traits<char>,std::allocator<char> >::_Xlen
$LN6@Grow:

; 2226 : 		if (this->_Myres < _Newsize)

	mov	eax, DWORD PTR _this$[ebp]
	mov	ecx, DWORD PTR [eax+20]
	cmp	ecx, DWORD PTR __Newsize$[ebp]
	jae	SHORT $LN5@Grow

; 2227 : 			_Copy(_Newsize, this->_Mysize);	// reallocate to grow

	mov	edx, DWORD PTR _this$[ebp]
	mov	eax, DWORD PTR [edx+16]
	push	eax
	mov	ecx, DWORD PTR __Newsize$[ebp]
	push	ecx
	mov	ecx, DWORD PTR _this$[ebp]
	call	?_Copy@?$basic_string@DU?$char_traits@D@std@@V?$allocator@D@2@@std@@QAEXII@Z ; std::basic_string<char,std::char_traits<char>,std::allocator<char> >::_Copy
	jmp	SHORT $LN4@Grow
$LN5@Grow:

; 2228 : 		else if (_Trim && _Newsize < this->_BUF_SIZE)

	movzx	edx, BYTE PTR __Trim$[ebp]
	test	edx, edx
	je	SHORT $LN3@Grow
	cmp	DWORD PTR __Newsize$[ebp], 16		; 00000010H
	jae	SHORT $LN3@Grow

; 2229 : 			_Tidy(true,	// copy and deallocate if trimming to small string
; 2230 : 				_Newsize < this->_Mysize ? _Newsize : this->_Mysize);

	mov	eax, DWORD PTR _this$[ebp]
	mov	ecx, DWORD PTR __Newsize$[ebp]
	cmp	ecx, DWORD PTR [eax+16]
	jae	SHORT $LN9@Grow
	mov	edx, DWORD PTR __Newsize$[ebp]
	mov	DWORD PTR tv129[ebp], edx
	jmp	SHORT $LN10@Grow
$LN9@Grow:
	mov	eax, DWORD PTR _this$[ebp]
	mov	ecx, DWORD PTR [eax+16]
	mov	DWORD PTR tv129[ebp], ecx
$LN10@Grow:
	mov	edx, DWORD PTR tv129[ebp]
	push	edx
	push	1
	mov	ecx, DWORD PTR _this$[ebp]
	call	?_Tidy@?$basic_string@DU?$char_traits@D@std@@V?$allocator@D@2@@std@@QAEX_NI@Z ; std::basic_string<char,std::char_traits<char>,std::allocator<char> >::_Tidy
	jmp	SHORT $LN4@Grow
$LN3@Grow:

; 2231 : 		else if (_Newsize == 0)

	cmp	DWORD PTR __Newsize$[ebp], 0
	jne	SHORT $LN4@Grow

; 2232 : 			_Eos(0);	// new size is zero, just null terminate

	push	0
	mov	ecx, DWORD PTR _this$[ebp]
	call	?_Eos@?$basic_string@DU?$char_traits@D@std@@V?$allocator@D@2@@std@@QAEXI@Z ; std::basic_string<char,std::char_traits<char>,std::allocator<char> >::_Eos
$LN4@Grow:

; 2233 : 		return (0 < _Newsize);	// return true only if more work to do

	cmp	DWORD PTR __Newsize$[ebp], 0
	jbe	SHORT $LN11@Grow
	mov	DWORD PTR tv136[ebp], 1
	jmp	SHORT $LN12@Grow
$LN11@Grow:
	mov	DWORD PTR tv136[ebp], 0
$LN12@Grow:
	mov	al, BYTE PTR tv136[ebp]
$LN8@Grow:

; 2234 : 		}

	mov	esp, ebp
	pop	ebp
	ret	8
?_Grow@?$basic_string@DU?$char_traits@D@std@@V?$allocator@D@2@@std@@QAE_NI_N@Z ENDP ; std::basic_string<char,std::char_traits<char>,std::allocator<char> >::_Grow
_TEXT	ENDS
; Function compile flags: /Odtp
; File c:\program files (x86)\microsoft visual studio 11.0\vc\include\xstring
;	COMDAT ?_Eos@?$basic_string@DU?$char_traits@D@std@@V?$allocator@D@2@@std@@QAEXI@Z
_TEXT	SEGMENT
_this$ = -8						; size = 4
$T1 = -1						; size = 1
__Newsize$ = 8						; size = 4
?_Eos@?$basic_string@DU?$char_traits@D@std@@V?$allocator@D@2@@std@@QAEXI@Z PROC ; std::basic_string<char,std::char_traits<char>,std::allocator<char> >::_Eos, COMDAT
; _this$ = ecx

; 2217 : 		{	// set new length and null terminator

	push	ebp
	mov	ebp, esp
	sub	esp, 8
	mov	DWORD PTR _this$[ebp], ecx

; 2218 : 		_Traits::assign(this->_Myptr()[this->_Mysize = _Newsize], _Elem());

	mov	BYTE PTR $T1[ebp], 0
	mov	eax, DWORD PTR _this$[ebp]
	mov	ecx, DWORD PTR __Newsize$[ebp]
	mov	DWORD PTR [eax+16], ecx
	lea	edx, DWORD PTR $T1[ebp]
	push	edx
	mov	ecx, DWORD PTR _this$[ebp]
	call	?_Myptr@?$_String_val@U?$_Simple_types@D@std@@@std@@QAEPADXZ ; std::_String_val<std::_Simple_types<char> >::_Myptr
	add	eax, DWORD PTR __Newsize$[ebp]
	push	eax
	call	?assign@?$char_traits@D@std@@SAXAADABD@Z ; std::char_traits<char>::assign
	add	esp, 8

; 2219 : 		}

	mov	esp, ebp
	pop	ebp
	ret	4
?_Eos@?$basic_string@DU?$char_traits@D@std@@V?$allocator@D@2@@std@@QAEXI@Z ENDP ; std::basic_string<char,std::char_traits<char>,std::allocator<char> >::_Eos
_TEXT	ENDS
; Function compile flags: /Odtp
; File c:\program files (x86)\microsoft visual studio 11.0\vc\include\xstring
;	COMDAT ?_Copy@?$basic_string@DU?$char_traits@D@std@@V?$allocator@D@2@@std@@QAEXII@Z
_TEXT	SEGMENT
tv205 = -48						; size = 4
tv204 = -44						; size = 4
tv203 = -40						; size = 4
tv202 = -36						; size = 4
__Ptr$ = -32						; size = 4
__Newres$ = -28						; size = 4
_this$ = -24						; size = 4
$T2 = -19						; size = 1
$T3 = -18						; size = 1
$T4 = -17						; size = 1
__$EHRec$ = -16						; size = 16
__Newsize$ = 8						; size = 4
__Oldlen$ = 12						; size = 4
?_Copy@?$basic_string@DU?$char_traits@D@std@@V?$allocator@D@2@@std@@QAEXII@Z PROC ; std::basic_string<char,std::char_traits<char>,std::allocator<char> >::_Copy, COMDAT
; _this$ = ecx

; 2182 : 		{	// copy _Oldlen elements to newly allocated buffer

	push	ebp
	mov	ebp, esp
	push	-1
	push	__ehhandler$?_Copy@?$basic_string@DU?$char_traits@D@std@@V?$allocator@D@2@@std@@QAEXII@Z
	mov	eax, DWORD PTR fs:0
	push	eax
	push	ecx
	sub	esp, 32					; 00000020H
	push	ebx
	push	esi
	push	edi
	mov	eax, DWORD PTR ___security_cookie
	xor	eax, ebp
	push	eax
	lea	eax, DWORD PTR __$EHRec$[ebp+4]
	mov	DWORD PTR fs:0, eax
	mov	DWORD PTR __$EHRec$[ebp], esp
	mov	DWORD PTR _this$[ebp], ecx

; 2183 : 		size_type _Newres = _Newsize | this->_ALLOC_MASK;

	mov	eax, DWORD PTR __Newsize$[ebp]
	or	eax, 15					; 0000000fH
	mov	DWORD PTR __Newres$[ebp], eax

; 2184 : 		if (max_size() < _Newres)

	mov	ecx, DWORD PTR _this$[ebp]
	call	?max_size@?$basic_string@DU?$char_traits@D@std@@V?$allocator@D@2@@std@@QBEIXZ ; std::basic_string<char,std::char_traits<char>,std::allocator<char> >::max_size
	cmp	eax, DWORD PTR __Newres$[ebp]
	jae	SHORT $LN9@Copy

; 2185 : 			_Newres = _Newsize;	// undo roundup if too big

	mov	ecx, DWORD PTR __Newsize$[ebp]
	mov	DWORD PTR __Newres$[ebp], ecx
	jmp	SHORT $LN8@Copy
$LN9@Copy:

; 2186 : 		else if (this->_Myres / 2 <= _Newres / 3)

	mov	eax, DWORD PTR __Newres$[ebp]
	xor	edx, edx
	mov	ecx, 3
	div	ecx
	mov	edx, DWORD PTR _this$[ebp]
	mov	ecx, DWORD PTR [edx+20]
	shr	ecx, 1
	cmp	ecx, eax
	ja	SHORT $LN7@Copy
	jmp	SHORT $LN8@Copy
$LN7@Copy:

; 2187 : 			;
; 2188 : 		else if (this->_Myres <= max_size() - this->_Myres / 2)

	mov	edx, DWORD PTR _this$[ebp]
	mov	esi, DWORD PTR [edx+20]
	shr	esi, 1
	mov	ecx, DWORD PTR _this$[ebp]
	call	?max_size@?$basic_string@DU?$char_traits@D@std@@V?$allocator@D@2@@std@@QBEIXZ ; std::basic_string<char,std::char_traits<char>,std::allocator<char> >::max_size
	sub	eax, esi
	mov	ecx, DWORD PTR _this$[ebp]
	cmp	DWORD PTR [ecx+20], eax
	ja	SHORT $LN5@Copy

; 2189 : 			_Newres = this->_Myres
; 2190 : 				+ this->_Myres / 2;	// grow exponentially if possible

	mov	edx, DWORD PTR _this$[ebp]
	mov	eax, DWORD PTR [edx+20]
	shr	eax, 1
	mov	ecx, DWORD PTR _this$[ebp]
	add	eax, DWORD PTR [ecx+20]
	mov	DWORD PTR __Newres$[ebp], eax

; 2191 : 		else

	jmp	SHORT $LN8@Copy
$LN5@Copy:

; 2192 : 			_Newres = max_size();	// settle for max_size()

	mov	ecx, DWORD PTR _this$[ebp]
	call	?max_size@?$basic_string@DU?$char_traits@D@std@@V?$allocator@D@2@@std@@QBEIXZ ; std::basic_string<char,std::char_traits<char>,std::allocator<char> >::max_size
	mov	DWORD PTR __Newres$[ebp], eax
$LN8@Copy:

; 2193 : 
; 2194 : 		_Elem *_Ptr;
; 2195 : 		_TRY_BEGIN

	mov	DWORD PTR __$EHRec$[ebp+12], 0

; 2196 : 			_Ptr = this->_Getal().allocate(_Newres + 1);

	lea	edx, DWORD PTR $T4[ebp]
	push	edx
	mov	ecx, DWORD PTR _this$[ebp]
	call	?_Getal@?$_String_alloc@$0A@U?$_String_base_types@DV?$allocator@D@std@@@std@@@std@@QBE?AU?$_Wrap_alloc@V?$allocator@D@std@@@2@XZ ; std::_String_alloc<0,std::_String_base_types<char,std::allocator<char> > >::_Getal
	mov	DWORD PTR tv202[ebp], eax
	mov	eax, DWORD PTR __Newres$[ebp]
	add	eax, 1
	push	eax
	mov	ecx, DWORD PTR tv202[ebp]
	call	?allocate@?$_Wrap_alloc@V?$allocator@D@std@@@std@@QAEPADI@Z ; std::_Wrap_alloc<std::allocator<char> >::allocate
	mov	DWORD PTR tv203[ebp], eax
	mov	ecx, DWORD PTR tv203[ebp]
	mov	DWORD PTR __Ptr$[ebp], ecx
	jmp	SHORT $LN12@Copy
__catch$?_Copy@?$basic_string@DU?$char_traits@D@std@@V?$allocator@D@2@@std@@QAEXII@Z$0:

; 2197 : 		_CATCH_ALL

	mov	DWORD PTR __$EHRec$[ebp], esp

; 2198 : 			_Newres = _Newsize;	// allocation failed, undo roundup and retry

	mov	edx, DWORD PTR __Newsize$[ebp]
	mov	DWORD PTR __Newres$[ebp], edx

; 2199 : 			_TRY_BEGIN

	mov	BYTE PTR __$EHRec$[ebp+12], 2

; 2200 : 				_Ptr = this->_Getal().allocate(_Newres + 1);

	lea	eax, DWORD PTR $T3[ebp]
	push	eax
	mov	ecx, DWORD PTR _this$[ebp]
	call	?_Getal@?$_String_alloc@$0A@U?$_String_base_types@DV?$allocator@D@std@@@std@@@std@@QBE?AU?$_Wrap_alloc@V?$allocator@D@std@@@2@XZ ; std::_String_alloc<0,std::_String_base_types<char,std::allocator<char> > >::_Getal
	mov	DWORD PTR tv204[ebp], eax
	mov	ecx, DWORD PTR __Newres$[ebp]
	add	ecx, 1
	push	ecx
	mov	ecx, DWORD PTR tv204[ebp]
	call	?allocate@?$_Wrap_alloc@V?$allocator@D@std@@@std@@QAEPADI@Z ; std::_Wrap_alloc<std::allocator<char> >::allocate
	mov	DWORD PTR tv205[ebp], eax
	mov	edx, DWORD PTR tv205[ebp]
	mov	DWORD PTR __Ptr$[ebp], edx
	jmp	SHORT $LN14@Copy
__catch$?_Copy@?$basic_string@DU?$char_traits@D@std@@V?$allocator@D@2@@std@@QAEXII@Z$1:

; 2201 : 			_CATCH_ALL
; 2202 : 			_Tidy(true);	// failed again, discard storage and reraise

	push	0
	push	1
	mov	ecx, DWORD PTR _this$[ebp]
	call	?_Tidy@?$basic_string@DU?$char_traits@D@std@@V?$allocator@D@2@@std@@QAEX_NI@Z ; std::basic_string<char,std::char_traits<char>,std::allocator<char> >::_Tidy

; 2203 : 			_RERAISE;

	push	0
	push	0
	call	__CxxThrowException@8

; 2204 : 			_CATCH_END

	mov	eax, $LN17@Copy
	ret	0
$LN14@Copy:
	mov	DWORD PTR __$EHRec$[ebp+12], 1
	jmp	SHORT __tryend$?_Copy@?$basic_string@DU?$char_traits@D@std@@V?$allocator@D@2@@std@@QAEXII@Z$2
$LN17@Copy:
	mov	DWORD PTR __$EHRec$[ebp+12], 1
__tryend$?_Copy@?$basic_string@DU?$char_traits@D@std@@V?$allocator@D@2@@std@@QAEXII@Z$2:

; 2205 : 		_CATCH_END

	mov	eax, $LN19@Copy
	ret	0
$LN12@Copy:
	mov	DWORD PTR __$EHRec$[ebp+12], -1
	jmp	SHORT __tryend$?_Copy@?$basic_string@DU?$char_traits@D@std@@V?$allocator@D@2@@std@@QAEXII@Z$3
$LN19@Copy:
	mov	DWORD PTR __$EHRec$[ebp+12], -1
__tryend$?_Copy@?$basic_string@DU?$char_traits@D@std@@V?$allocator@D@2@@std@@QAEXII@Z$3:

; 2206 : 
; 2207 : 		if (0 < _Oldlen)

	cmp	DWORD PTR __Oldlen$[ebp], 0
	jbe	SHORT $LN1@Copy

; 2208 : 			_Traits::copy(_Ptr, this->_Myptr(),
; 2209 : 				_Oldlen);	// copy existing elements

	mov	eax, DWORD PTR __Oldlen$[ebp]
	push	eax
	mov	ecx, DWORD PTR _this$[ebp]
	call	?_Myptr@?$_String_val@U?$_Simple_types@D@std@@@std@@QAEPADXZ ; std::_String_val<std::_Simple_types<char> >::_Myptr
	push	eax
	mov	ecx, DWORD PTR __Ptr$[ebp]
	push	ecx
	call	?copy@?$char_traits@D@std@@SAPADPADPBDI@Z ; std::char_traits<char>::copy
	add	esp, 12					; 0000000cH
$LN1@Copy:

; 2210 : 		_Tidy(true);

	push	0
	push	1
	mov	ecx, DWORD PTR _this$[ebp]
	call	?_Tidy@?$basic_string@DU?$char_traits@D@std@@V?$allocator@D@2@@std@@QAEX_NI@Z ; std::basic_string<char,std::char_traits<char>,std::allocator<char> >::_Tidy

; 2211 : 		this->_Getal().construct(&this->_Bx._Ptr, _Ptr);

	lea	edx, DWORD PTR __Ptr$[ebp]
	push	edx
	mov	eax, DWORD PTR _this$[ebp]
	push	eax
	lea	ecx, DWORD PTR $T2[ebp]
	push	ecx
	mov	ecx, DWORD PTR _this$[ebp]
	call	?_Getal@?$_String_alloc@$0A@U?$_String_base_types@DV?$allocator@D@std@@@std@@@std@@QBE?AU?$_Wrap_alloc@V?$allocator@D@std@@@2@XZ ; std::_String_alloc<0,std::_String_base_types<char,std::allocator<char> > >::_Getal
	mov	ecx, eax
	call	??$construct@PADAAPAD@?$_Wrap_alloc@V?$allocator@D@std@@@std@@QAEXPAPADAAPAD@Z ; std::_Wrap_alloc<std::allocator<char> >::construct<char *,char * &>

; 2212 : 		this->_Myres = _Newres;

	mov	edx, DWORD PTR _this$[ebp]
	mov	eax, DWORD PTR __Newres$[ebp]
	mov	DWORD PTR [edx+20], eax

; 2213 : 		_Eos(_Oldlen);

	mov	ecx, DWORD PTR __Oldlen$[ebp]
	push	ecx
	mov	ecx, DWORD PTR _this$[ebp]
	call	?_Eos@?$basic_string@DU?$char_traits@D@std@@V?$allocator@D@2@@std@@QAEXI@Z ; std::basic_string<char,std::char_traits<char>,std::allocator<char> >::_Eos
$LN11@Copy:

; 2214 : 		}

	mov	ecx, DWORD PTR __$EHRec$[ebp+4]
	mov	DWORD PTR fs:0, ecx
	pop	ecx
	pop	edi
	pop	esi
	pop	ebx
	mov	esp, ebp
	pop	ebp
	ret	8
_TEXT	ENDS
;	COMDAT text$x
text$x	SEGMENT
__ehhandler$?_Copy@?$basic_string@DU?$char_traits@D@std@@V?$allocator@D@2@@std@@QAEXII@Z:
	mov	edx, DWORD PTR [esp+8]
	lea	eax, DWORD PTR [edx+12]
	mov	ecx, DWORD PTR [edx-52]
	xor	ecx, eax
	call	@__security_check_cookie@4
	mov	eax, OFFSET __ehfuncinfo$?_Copy@?$basic_string@DU?$char_traits@D@std@@V?$allocator@D@2@@std@@QAEXII@Z
	jmp	___CxxFrameHandler3
text$x	ENDS
?_Copy@?$basic_string@DU?$char_traits@D@std@@V?$allocator@D@2@@std@@QAEXII@Z ENDP ; std::basic_string<char,std::char_traits<char>,std::allocator<char> >::_Copy
; Function compile flags: /Odtp
; File c:\program files (x86)\microsoft visual studio 11.0\vc\include\xstring
;	COMDAT ?max_size@?$basic_string@DU?$char_traits@D@std@@V?$allocator@D@2@@std@@QBEIXZ
_TEXT	SEGMENT
_this$ = -16						; size = 4
tv75 = -12						; size = 4
__Num$ = -8						; size = 4
$T1 = -1						; size = 1
?max_size@?$basic_string@DU?$char_traits@D@std@@V?$allocator@D@2@@std@@QBEIXZ PROC ; std::basic_string<char,std::char_traits<char>,std::allocator<char> >::max_size, COMDAT
; _this$ = ecx

; 1737 : 		{	// return maximum possible length of sequence

	push	ebp
	mov	ebp, esp
	sub	esp, 16					; 00000010H
	mov	DWORD PTR _this$[ebp], ecx

; 1738 : 		size_type _Num = this->_Getal().max_size();

	lea	eax, DWORD PTR $T1[ebp]
	push	eax
	mov	ecx, DWORD PTR _this$[ebp]
	call	?_Getal@?$_String_alloc@$0A@U?$_String_base_types@DV?$allocator@D@std@@@std@@@std@@QBE?AU?$_Wrap_alloc@V?$allocator@D@std@@@2@XZ ; std::_String_alloc<0,std::_String_base_types<char,std::allocator<char> > >::_Getal
	mov	ecx, eax
	call	?max_size@?$_Wrap_alloc@V?$allocator@D@std@@@std@@QBEIXZ ; std::_Wrap_alloc<std::allocator<char> >::max_size
	mov	DWORD PTR __Num$[ebp], eax

; 1739 : 		return (_Num <= 1 ? 1 : _Num - 1);

	cmp	DWORD PTR __Num$[ebp], 1
	ja	SHORT $LN3@max_size
	mov	DWORD PTR tv75[ebp], 1
	jmp	SHORT $LN4@max_size
$LN3@max_size:
	mov	ecx, DWORD PTR __Num$[ebp]
	sub	ecx, 1
	mov	DWORD PTR tv75[ebp], ecx
$LN4@max_size:
	mov	eax, DWORD PTR tv75[ebp]

; 1740 : 		}

	mov	esp, ebp
	pop	ebp
	ret	0
?max_size@?$basic_string@DU?$char_traits@D@std@@V?$allocator@D@2@@std@@QBEIXZ ENDP ; std::basic_string<char,std::char_traits<char>,std::allocator<char> >::max_size
_TEXT	ENDS
; Function compile flags: /Odtp
; File c:\program files (x86)\microsoft visual studio 11.0\vc\include\xstring
;	COMDAT ?size@?$basic_string@DU?$char_traits@D@std@@V?$allocator@D@2@@std@@QBEIXZ
_TEXT	SEGMENT
_this$ = -4						; size = 4
?size@?$basic_string@DU?$char_traits@D@std@@V?$allocator@D@2@@std@@QBEIXZ PROC ; std::basic_string<char,std::char_traits<char>,std::allocator<char> >::size, COMDAT
; _this$ = ecx

; 1732 : 		{	// return length of sequence

	push	ebp
	mov	ebp, esp
	push	ecx
	mov	DWORD PTR _this$[ebp], ecx

; 1733 : 		return (this->_Mysize);

	mov	eax, DWORD PTR _this$[ebp]
	mov	eax, DWORD PTR [eax+16]

; 1734 : 		}

	mov	esp, ebp
	pop	ebp
	ret	0
?size@?$basic_string@DU?$char_traits@D@std@@V?$allocator@D@2@@std@@QBEIXZ ENDP ; std::basic_string<char,std::char_traits<char>,std::allocator<char> >::size
_TEXT	ENDS
; Function compile flags: /Odtp
; File c:\program files (x86)\microsoft visual studio 11.0\vc\include\xstring
;	COMDAT ?erase@?$basic_string@DU?$char_traits@D@std@@V?$allocator@D@2@@std@@QAEAAV12@II@Z
_TEXT	SEGMENT
__Newsize$1 = -12					; size = 4
__Ptr$2 = -8						; size = 4
_this$ = -4						; size = 4
__Off$ = 8						; size = 4
__Count$ = 12						; size = 4
?erase@?$basic_string@DU?$char_traits@D@std@@V?$allocator@D@2@@std@@QAEAAV12@II@Z PROC ; std::basic_string<char,std::char_traits<char>,std::allocator<char> >::erase, COMDAT
; _this$ = ecx

; 1317 : 		{	// erase elements [_Off, _Off + _Count)

	push	ebp
	mov	ebp, esp
	sub	esp, 12					; 0000000cH
	mov	DWORD PTR _this$[ebp], ecx

; 1318 : 		if (this->_Mysize < _Off)

	mov	eax, DWORD PTR _this$[ebp]
	mov	ecx, DWORD PTR [eax+16]
	cmp	ecx, DWORD PTR __Off$[ebp]
	jae	SHORT $LN4@erase

; 1319 : 			_Xran();	// _Off off end

	mov	ecx, DWORD PTR _this$[ebp]
	call	?_Xran@?$basic_string@DU?$char_traits@D@std@@V?$allocator@D@2@@std@@QBEXXZ ; std::basic_string<char,std::char_traits<char>,std::allocator<char> >::_Xran
$LN4@erase:

; 1320 : 		if (this->_Mysize - _Off <= _Count)

	mov	edx, DWORD PTR _this$[ebp]
	mov	eax, DWORD PTR [edx+16]
	sub	eax, DWORD PTR __Off$[ebp]
	cmp	eax, DWORD PTR __Count$[ebp]
	ja	SHORT $LN3@erase

; 1321 : 			_Eos(_Off);	// erase elements [_Off, ...)

	mov	ecx, DWORD PTR __Off$[ebp]
	push	ecx
	mov	ecx, DWORD PTR _this$[ebp]
	call	?_Eos@?$basic_string@DU?$char_traits@D@std@@V?$allocator@D@2@@std@@QAEXI@Z ; std::basic_string<char,std::char_traits<char>,std::allocator<char> >::_Eos
	jmp	SHORT $LN2@erase
$LN3@erase:

; 1322 : 		else if (0 < _Count)

	cmp	DWORD PTR __Count$[ebp], 0
	jbe	SHORT $LN2@erase

; 1323 : 			{	// move elements down
; 1324 : 			value_type *_Ptr = this->_Myptr() + _Off;

	mov	ecx, DWORD PTR _this$[ebp]
	call	?_Myptr@?$_String_val@U?$_Simple_types@D@std@@@std@@QAEPADXZ ; std::_String_val<std::_Simple_types<char> >::_Myptr
	add	eax, DWORD PTR __Off$[ebp]
	mov	DWORD PTR __Ptr$2[ebp], eax

; 1325 : 			size_type _Newsize = this->_Mysize - _Count;

	mov	edx, DWORD PTR _this$[ebp]
	mov	eax, DWORD PTR [edx+16]
	sub	eax, DWORD PTR __Count$[ebp]
	mov	DWORD PTR __Newsize$1[ebp], eax

; 1326 : 			_Traits::move(_Ptr, _Ptr + _Count, _Newsize - _Off);

	mov	ecx, DWORD PTR __Newsize$1[ebp]
	sub	ecx, DWORD PTR __Off$[ebp]
	push	ecx
	mov	edx, DWORD PTR __Ptr$2[ebp]
	add	edx, DWORD PTR __Count$[ebp]
	push	edx
	mov	eax, DWORD PTR __Ptr$2[ebp]
	push	eax
	call	?move@?$char_traits@D@std@@SAPADPADPBDI@Z ; std::char_traits<char>::move
	add	esp, 12					; 0000000cH

; 1327 : 			_Eos(_Newsize);

	mov	ecx, DWORD PTR __Newsize$1[ebp]
	push	ecx
	mov	ecx, DWORD PTR _this$[ebp]
	call	?_Eos@?$basic_string@DU?$char_traits@D@std@@V?$allocator@D@2@@std@@QAEXI@Z ; std::basic_string<char,std::char_traits<char>,std::allocator<char> >::_Eos
$LN2@erase:

; 1328 : 			}
; 1329 : 		return (*this);

	mov	eax, DWORD PTR _this$[ebp]
$LN6@erase:

; 1330 : 		}

	mov	esp, ebp
	pop	ebp
	ret	8
?erase@?$basic_string@DU?$char_traits@D@std@@V?$allocator@D@2@@std@@QAEAAV12@II@Z ENDP ; std::basic_string<char,std::char_traits<char>,std::allocator<char> >::erase
_TEXT	ENDS
; Function compile flags: /Odtp
; File c:\program files (x86)\microsoft visual studio 11.0\vc\include\xstring
;	COMDAT ?erase@?$basic_string@DU?$char_traits@D@std@@V?$allocator@D@2@@std@@QAEAAV12@I@Z
_TEXT	SEGMENT
_this$ = -4						; size = 4
__Off$ = 8						; size = 4
?erase@?$basic_string@DU?$char_traits@D@std@@V?$allocator@D@2@@std@@QAEAAV12@I@Z PROC ; std::basic_string<char,std::char_traits<char>,std::allocator<char> >::erase, COMDAT
; _this$ = ecx

; 1309 : 		{	// erase elements [_Off, ...)

	push	ebp
	mov	ebp, esp
	push	ecx
	mov	DWORD PTR _this$[ebp], ecx

; 1310 : 		if (this->_Mysize < _Off)

	mov	eax, DWORD PTR _this$[ebp]
	mov	ecx, DWORD PTR [eax+16]
	cmp	ecx, DWORD PTR __Off$[ebp]
	jae	SHORT $LN1@erase

; 1311 : 			_Xran();	// _Off off end

	mov	ecx, DWORD PTR _this$[ebp]
	call	?_Xran@?$basic_string@DU?$char_traits@D@std@@V?$allocator@D@2@@std@@QBEXXZ ; std::basic_string<char,std::char_traits<char>,std::allocator<char> >::_Xran
$LN1@erase:

; 1312 : 		_Eos(_Off);

	mov	edx, DWORD PTR __Off$[ebp]
	push	edx
	mov	ecx, DWORD PTR _this$[ebp]
	call	?_Eos@?$basic_string@DU?$char_traits@D@std@@V?$allocator@D@2@@std@@QAEXI@Z ; std::basic_string<char,std::char_traits<char>,std::allocator<char> >::_Eos

; 1313 : 		return (*this);

	mov	eax, DWORD PTR _this$[ebp]
$LN3@erase:

; 1314 : 		}

	mov	esp, ebp
	pop	ebp
	ret	4
?erase@?$basic_string@DU?$char_traits@D@std@@V?$allocator@D@2@@std@@QAEAAV12@I@Z ENDP ; std::basic_string<char,std::char_traits<char>,std::allocator<char> >::erase
_TEXT	ENDS
; Function compile flags: /Odtp
; File c:\program files (x86)\microsoft visual studio 11.0\vc\include\xstring
;	COMDAT ?assign@?$basic_string@DU?$char_traits@D@std@@V?$allocator@D@2@@std@@QAEAAV12@PBD@Z
_TEXT	SEGMENT
_this$ = -4						; size = 4
__Ptr$ = 8						; size = 4
?assign@?$basic_string@DU?$char_traits@D@std@@V?$allocator@D@2@@std@@QAEAAV12@PBD@Z PROC ; std::basic_string<char,std::char_traits<char>,std::allocator<char> >::assign, COMDAT
; _this$ = ecx

; 1142 : 		{	// assign [_Ptr, <null>)

	push	ebp
	mov	ebp, esp
	push	ecx
	mov	DWORD PTR _this$[ebp], ecx

; 1143 : 		_DEBUG_POINTER(_Ptr);
; 1144 : 		return (assign(_Ptr, _Traits::length(_Ptr)));

	mov	eax, DWORD PTR __Ptr$[ebp]
	push	eax
	call	?length@?$char_traits@D@std@@SAIPBD@Z	; std::char_traits<char>::length
	add	esp, 4
	push	eax
	mov	ecx, DWORD PTR __Ptr$[ebp]
	push	ecx
	mov	ecx, DWORD PTR _this$[ebp]
	call	?assign@?$basic_string@DU?$char_traits@D@std@@V?$allocator@D@2@@std@@QAEAAV12@PBDI@Z ; std::basic_string<char,std::char_traits<char>,std::allocator<char> >::assign

; 1145 : 		}

	mov	esp, ebp
	pop	ebp
	ret	4
?assign@?$basic_string@DU?$char_traits@D@std@@V?$allocator@D@2@@std@@QAEAAV12@PBD@Z ENDP ; std::basic_string<char,std::char_traits<char>,std::allocator<char> >::assign
_TEXT	ENDS
; Function compile flags: /Odtp
; File c:\program files (x86)\microsoft visual studio 11.0\vc\include\xstring
;	COMDAT ?assign@?$basic_string@DU?$char_traits@D@std@@V?$allocator@D@2@@std@@QAEAAV12@PBDI@Z
_TEXT	SEGMENT
_this$ = -4						; size = 4
__Ptr$ = 8						; size = 4
__Count$ = 12						; size = 4
?assign@?$basic_string@DU?$char_traits@D@std@@V?$allocator@D@2@@std@@QAEAAV12@PBDI@Z PROC ; std::basic_string<char,std::char_traits<char>,std::allocator<char> >::assign, COMDAT
; _this$ = ecx

; 1123 : 		{	// assign [_Ptr, _Ptr + _Count)

	push	ebp
	mov	ebp, esp
	push	ecx
	mov	DWORD PTR _this$[ebp], ecx

; 1124 :  #if _ITERATOR_DEBUG_LEVEL == 2
; 1125 : 		if (_Count != 0)
; 1126 : 			_DEBUG_POINTER(_Ptr);
; 1127 :  #endif /* _ITERATOR_DEBUG_LEVEL == 2 */
; 1128 : 
; 1129 : 		if (_Inside(_Ptr))

	mov	eax, DWORD PTR __Ptr$[ebp]
	push	eax
	mov	ecx, DWORD PTR _this$[ebp]
	call	?_Inside@?$basic_string@DU?$char_traits@D@std@@V?$allocator@D@2@@std@@QAE_NPBD@Z ; std::basic_string<char,std::char_traits<char>,std::allocator<char> >::_Inside
	movzx	ecx, al
	test	ecx, ecx
	je	SHORT $LN2@assign

; 1130 : 			return (assign(*this,
; 1131 : 				_Ptr - this->_Myptr(), _Count));	// substring

	mov	edx, DWORD PTR __Count$[ebp]
	push	edx
	mov	ecx, DWORD PTR _this$[ebp]
	call	?_Myptr@?$_String_val@U?$_Simple_types@D@std@@@std@@QAEPADXZ ; std::_String_val<std::_Simple_types<char> >::_Myptr
	mov	ecx, DWORD PTR __Ptr$[ebp]
	sub	ecx, eax
	push	ecx
	mov	edx, DWORD PTR _this$[ebp]
	push	edx
	mov	ecx, DWORD PTR _this$[ebp]
	call	?assign@?$basic_string@DU?$char_traits@D@std@@V?$allocator@D@2@@std@@QAEAAV12@ABV12@II@Z ; std::basic_string<char,std::char_traits<char>,std::allocator<char> >::assign
	jmp	SHORT $LN3@assign
$LN2@assign:

; 1132 : 
; 1133 : 		if (_Grow(_Count))

	push	0
	mov	eax, DWORD PTR __Count$[ebp]
	push	eax
	mov	ecx, DWORD PTR _this$[ebp]
	call	?_Grow@?$basic_string@DU?$char_traits@D@std@@V?$allocator@D@2@@std@@QAE_NI_N@Z ; std::basic_string<char,std::char_traits<char>,std::allocator<char> >::_Grow
	movzx	ecx, al
	test	ecx, ecx
	je	SHORT $LN1@assign

; 1134 : 			{	// make room and assign new stuff
; 1135 : 			_Traits::copy(this->_Myptr(), _Ptr, _Count);

	mov	edx, DWORD PTR __Count$[ebp]
	push	edx
	mov	eax, DWORD PTR __Ptr$[ebp]
	push	eax
	mov	ecx, DWORD PTR _this$[ebp]
	call	?_Myptr@?$_String_val@U?$_Simple_types@D@std@@@std@@QAEPADXZ ; std::_String_val<std::_Simple_types<char> >::_Myptr
	push	eax
	call	?copy@?$char_traits@D@std@@SAPADPADPBDI@Z ; std::char_traits<char>::copy
	add	esp, 12					; 0000000cH

; 1136 : 			_Eos(_Count);

	mov	ecx, DWORD PTR __Count$[ebp]
	push	ecx
	mov	ecx, DWORD PTR _this$[ebp]
	call	?_Eos@?$basic_string@DU?$char_traits@D@std@@V?$allocator@D@2@@std@@QAEXI@Z ; std::basic_string<char,std::char_traits<char>,std::allocator<char> >::_Eos
$LN1@assign:

; 1137 : 			}
; 1138 : 		return (*this);

	mov	eax, DWORD PTR _this$[ebp]
$LN3@assign:

; 1139 : 		}

	mov	esp, ebp
	pop	ebp
	ret	8
?assign@?$basic_string@DU?$char_traits@D@std@@V?$allocator@D@2@@std@@QAEAAV12@PBDI@Z ENDP ; std::basic_string<char,std::char_traits<char>,std::allocator<char> >::assign
_TEXT	ENDS
; Function compile flags: /Odtp
; File c:\program files (x86)\microsoft visual studio 11.0\vc\include\xstring
;	COMDAT ?assign@?$basic_string@DU?$char_traits@D@std@@V?$allocator@D@2@@std@@QAEAAV12@ABV12@II@Z
_TEXT	SEGMENT
__Num$ = -8						; size = 4
_this$ = -4						; size = 4
__Right$ = 8						; size = 4
__Roff$ = 12						; size = 4
__Count$ = 16						; size = 4
?assign@?$basic_string@DU?$char_traits@D@std@@V?$allocator@D@2@@std@@QAEAAV12@ABV12@II@Z PROC ; std::basic_string<char,std::char_traits<char>,std::allocator<char> >::assign, COMDAT
; _this$ = ecx

; 1104 : 		{	// assign _Right [_Roff, _Roff + _Count)

	push	ebp
	mov	ebp, esp
	sub	esp, 8
	mov	DWORD PTR _this$[ebp], ecx

; 1105 : 		if (_Right.size() < _Roff)

	mov	ecx, DWORD PTR __Right$[ebp]
	call	?size@?$basic_string@DU?$char_traits@D@std@@V?$allocator@D@2@@std@@QBEIXZ ; std::basic_string<char,std::char_traits<char>,std::allocator<char> >::size
	cmp	eax, DWORD PTR __Roff$[ebp]
	jae	SHORT $LN5@assign

; 1106 : 			_Xran();	// _Roff off end

	mov	ecx, DWORD PTR _this$[ebp]
	call	?_Xran@?$basic_string@DU?$char_traits@D@std@@V?$allocator@D@2@@std@@QBEXXZ ; std::basic_string<char,std::char_traits<char>,std::allocator<char> >::_Xran
$LN5@assign:

; 1107 : 		size_type _Num = _Right.size() - _Roff;

	mov	ecx, DWORD PTR __Right$[ebp]
	call	?size@?$basic_string@DU?$char_traits@D@std@@V?$allocator@D@2@@std@@QBEIXZ ; std::basic_string<char,std::char_traits<char>,std::allocator<char> >::size
	sub	eax, DWORD PTR __Roff$[ebp]
	mov	DWORD PTR __Num$[ebp], eax

; 1108 : 		if (_Count < _Num)

	mov	eax, DWORD PTR __Count$[ebp]
	cmp	eax, DWORD PTR __Num$[ebp]
	jae	SHORT $LN4@assign

; 1109 : 			_Num = _Count;	// trim _Num to size

	mov	ecx, DWORD PTR __Count$[ebp]
	mov	DWORD PTR __Num$[ebp], ecx
$LN4@assign:

; 1110 : 
; 1111 : 		if (this == &_Right)

	mov	edx, DWORD PTR _this$[ebp]
	cmp	edx, DWORD PTR __Right$[ebp]
	jne	SHORT $LN3@assign

; 1112 : 			erase((size_type)(_Roff + _Num)), erase(0, _Roff);	// substring

	mov	eax, DWORD PTR __Roff$[ebp]
	add	eax, DWORD PTR __Num$[ebp]
	push	eax
	mov	ecx, DWORD PTR _this$[ebp]
	call	?erase@?$basic_string@DU?$char_traits@D@std@@V?$allocator@D@2@@std@@QAEAAV12@I@Z ; std::basic_string<char,std::char_traits<char>,std::allocator<char> >::erase
	mov	ecx, DWORD PTR __Roff$[ebp]
	push	ecx
	push	0
	mov	ecx, DWORD PTR _this$[ebp]
	call	?erase@?$basic_string@DU?$char_traits@D@std@@V?$allocator@D@2@@std@@QAEAAV12@II@Z ; std::basic_string<char,std::char_traits<char>,std::allocator<char> >::erase
	jmp	SHORT $LN2@assign
$LN3@assign:

; 1113 : 		else if (_Grow(_Num))

	push	0
	mov	edx, DWORD PTR __Num$[ebp]
	push	edx
	mov	ecx, DWORD PTR _this$[ebp]
	call	?_Grow@?$basic_string@DU?$char_traits@D@std@@V?$allocator@D@2@@std@@QAE_NI_N@Z ; std::basic_string<char,std::char_traits<char>,std::allocator<char> >::_Grow
	movzx	eax, al
	test	eax, eax
	je	SHORT $LN2@assign

; 1114 : 			{	// make room and assign new stuff
; 1115 : 			_Traits::copy(this->_Myptr(),
; 1116 : 				_Right._Myptr() + _Roff, _Num);

	mov	ecx, DWORD PTR __Num$[ebp]
	push	ecx
	mov	ecx, DWORD PTR __Right$[ebp]
	call	?_Myptr@?$_String_val@U?$_Simple_types@D@std@@@std@@QBEPBDXZ ; std::_String_val<std::_Simple_types<char> >::_Myptr
	add	eax, DWORD PTR __Roff$[ebp]
	push	eax
	mov	ecx, DWORD PTR _this$[ebp]
	call	?_Myptr@?$_String_val@U?$_Simple_types@D@std@@@std@@QAEPADXZ ; std::_String_val<std::_Simple_types<char> >::_Myptr
	push	eax
	call	?copy@?$char_traits@D@std@@SAPADPADPBDI@Z ; std::char_traits<char>::copy
	add	esp, 12					; 0000000cH

; 1117 : 			_Eos(_Num);

	mov	edx, DWORD PTR __Num$[ebp]
	push	edx
	mov	ecx, DWORD PTR _this$[ebp]
	call	?_Eos@?$basic_string@DU?$char_traits@D@std@@V?$allocator@D@2@@std@@QAEXI@Z ; std::basic_string<char,std::char_traits<char>,std::allocator<char> >::_Eos
$LN2@assign:

; 1118 : 			}
; 1119 : 		return (*this);

	mov	eax, DWORD PTR _this$[ebp]
$LN7@assign:

; 1120 : 		}

	mov	esp, ebp
	pop	ebp
	ret	12					; 0000000cH
?assign@?$basic_string@DU?$char_traits@D@std@@V?$allocator@D@2@@std@@QAEAAV12@ABV12@II@Z ENDP ; std::basic_string<char,std::char_traits<char>,std::allocator<char> >::assign
_TEXT	ENDS
; Function compile flags: /Odtp
; File c:\program files (x86)\microsoft visual studio 11.0\vc\include\xstring
;	COMDAT ??0?$basic_string@DU?$char_traits@D@std@@V?$allocator@D@2@@std@@QAE@PBD@Z
_TEXT	SEGMENT
_this$ = -8						; size = 4
$T1 = -1						; size = 1
__Ptr$ = 8						; size = 4
??0?$basic_string@DU?$char_traits@D@std@@V?$allocator@D@2@@std@@QAE@PBD@Z PROC ; std::basic_string<char,std::char_traits<char>,std::allocator<char> >::basic_string<char,std::char_traits<char>,std::allocator<char> >, COMDAT
; _this$ = ecx

; 791  : 		{	// construct from [_Ptr, <null>)

	push	ebp
	mov	ebp, esp
	sub	esp, 8
	mov	DWORD PTR _this$[ebp], ecx
	lea	ecx, DWORD PTR $T1[ebp]
	call	??0?$allocator@D@std@@QAE@XZ		; std::allocator<char>::allocator<char>
	push	eax
	mov	ecx, DWORD PTR _this$[ebp]
	call	??0?$_String_alloc@$0A@U?$_String_base_types@DV?$allocator@D@std@@@std@@@std@@QAE@ABV?$allocator@D@1@@Z ; std::_String_alloc<0,std::_String_base_types<char,std::allocator<char> > >::_String_alloc<0,std::_String_base_types<char,std::allocator<char> > >

; 792  : 		_Tidy();

	push	0
	push	0
	mov	ecx, DWORD PTR _this$[ebp]
	call	?_Tidy@?$basic_string@DU?$char_traits@D@std@@V?$allocator@D@2@@std@@QAEX_NI@Z ; std::basic_string<char,std::char_traits<char>,std::allocator<char> >::_Tidy

; 793  : 		assign(_Ptr);

	mov	eax, DWORD PTR __Ptr$[ebp]
	push	eax
	mov	ecx, DWORD PTR _this$[ebp]
	call	?assign@?$basic_string@DU?$char_traits@D@std@@V?$allocator@D@2@@std@@QAEAAV12@PBD@Z ; std::basic_string<char,std::char_traits<char>,std::allocator<char> >::assign

; 794  : 		}

	mov	eax, DWORD PTR _this$[ebp]
	mov	esp, ebp
	pop	ebp
	ret	4
??0?$basic_string@DU?$char_traits@D@std@@V?$allocator@D@2@@std@@QAE@PBD@Z ENDP ; std::basic_string<char,std::char_traits<char>,std::allocator<char> >::basic_string<char,std::char_traits<char>,std::allocator<char> >
_TEXT	ENDS
; Function compile flags: /Odtp
; File c:\program files (x86)\microsoft visual studio 11.0\vc\include\xstring
;	COMDAT ?_Getal@?$_String_alloc@$0A@U?$_String_base_types@DV?$allocator@D@std@@@std@@@std@@QBE?AU?$_Wrap_alloc@V?$allocator@D@std@@@2@XZ
_TEXT	SEGMENT
_this$ = -4						; size = 4
___$ReturnUdt$ = 8					; size = 4
?_Getal@?$_String_alloc@$0A@U?$_String_base_types@DV?$allocator@D@std@@@std@@@std@@QBE?AU?$_Wrap_alloc@V?$allocator@D@std@@@2@XZ PROC ; std::_String_alloc<0,std::_String_base_types<char,std::allocator<char> > >::_Getal, COMDAT
; _this$ = ecx

; 688  : 		{	// get reference to allocator

	push	ebp
	mov	ebp, esp
	push	ecx
	mov	DWORD PTR _this$[ebp], ecx

; 689  : 		return (_Alty());

	mov	ecx, DWORD PTR ___$ReturnUdt$[ebp]
	call	??0?$_Wrap_alloc@V?$allocator@D@std@@@std@@QAE@XZ ; std::_Wrap_alloc<std::allocator<char> >::_Wrap_alloc<std::allocator<char> >
	mov	eax, DWORD PTR ___$ReturnUdt$[ebp]

; 690  : 		}

	mov	esp, ebp
	pop	ebp
	ret	4
?_Getal@?$_String_alloc@$0A@U?$_String_base_types@DV?$allocator@D@std@@@std@@@std@@QBE?AU?$_Wrap_alloc@V?$allocator@D@std@@@2@XZ ENDP ; std::_String_alloc<0,std::_String_base_types<char,std::allocator<char> > >::_Getal
_TEXT	ENDS
; Function compile flags: /Odtp
; File c:\program files (x86)\microsoft visual studio 11.0\vc\include\xstring
;	COMDAT ??0?$_String_alloc@$0A@U?$_String_base_types@DV?$allocator@D@std@@@std@@@std@@QAE@ABV?$allocator@D@1@@Z
_TEXT	SEGMENT
_this$ = -4						; size = 4
___formal$ = 8						; size = 4
??0?$_String_alloc@$0A@U?$_String_base_types@DV?$allocator@D@std@@@std@@@std@@QAE@ABV?$allocator@D@1@@Z PROC ; std::_String_alloc<0,std::_String_base_types<char,std::allocator<char> > >::_String_alloc<0,std::_String_base_types<char,std::allocator<char> > >, COMDAT
; _this$ = ecx

; 635  : 	_String_alloc(const _Alloc& = _Alloc())

	push	ebp
	mov	ebp, esp
	push	ecx
	mov	DWORD PTR _this$[ebp], ecx
	mov	ecx, DWORD PTR _this$[ebp]
	call	??0?$_String_val@U?$_Simple_types@D@std@@@std@@QAE@XZ ; std::_String_val<std::_Simple_types<char> >::_String_val<std::_Simple_types<char> >

; 636  : 		{	// construct allocator from _Al
; 637  : 		}

	mov	eax, DWORD PTR _this$[ebp]
	mov	esp, ebp
	pop	ebp
	ret	4
??0?$_String_alloc@$0A@U?$_String_base_types@DV?$allocator@D@std@@@std@@@std@@QAE@ABV?$allocator@D@1@@Z ENDP ; std::_String_alloc<0,std::_String_base_types<char,std::allocator<char> > >::_String_alloc<0,std::_String_base_types<char,std::allocator<char> > >
_TEXT	ENDS
; Function compile flags: /Odtp
; File c:\program files (x86)\microsoft visual studio 11.0\vc\include\xstring
;	COMDAT ?_Myptr@?$_String_val@U?$_Simple_types@D@std@@@std@@QBEPBDXZ
_TEXT	SEGMENT
tv72 = -8						; size = 4
_this$ = -4						; size = 4
?_Myptr@?$_String_val@U?$_Simple_types@D@std@@@std@@QBEPBDXZ PROC ; std::_String_val<std::_Simple_types<char> >::_Myptr, COMDAT
; _this$ = ecx

; 521  : 		{	// determine current pointer to buffer for nonmutable string

	push	ebp
	mov	ebp, esp
	sub	esp, 8
	mov	DWORD PTR _this$[ebp], ecx

; 522  : 		return (this->_BUF_SIZE <= this->_Myres
; 523  : 			? _STD addressof(*this->_Bx._Ptr)
; 524  : 			: this->_Bx._Buf);

	mov	eax, DWORD PTR _this$[ebp]
	cmp	DWORD PTR [eax+20], 16			; 00000010H
	jb	SHORT $LN3@Myptr
	mov	ecx, DWORD PTR _this$[ebp]
	mov	edx, DWORD PTR [ecx]
	push	edx
	call	??$addressof@D@std@@YAPADAAD@Z		; std::addressof<char>
	add	esp, 4
	mov	DWORD PTR tv72[ebp], eax
	jmp	SHORT $LN4@Myptr
$LN3@Myptr:
	mov	eax, DWORD PTR _this$[ebp]
	mov	DWORD PTR tv72[ebp], eax
$LN4@Myptr:
	mov	eax, DWORD PTR tv72[ebp]

; 525  : 		}

	mov	esp, ebp
	pop	ebp
	ret	0
?_Myptr@?$_String_val@U?$_Simple_types@D@std@@@std@@QBEPBDXZ ENDP ; std::_String_val<std::_Simple_types<char> >::_Myptr
_TEXT	ENDS
; Function compile flags: /Odtp
; File c:\program files (x86)\microsoft visual studio 11.0\vc\include\xstring
;	COMDAT ?_Myptr@?$_String_val@U?$_Simple_types@D@std@@@std@@QAEPADXZ
_TEXT	SEGMENT
tv72 = -8						; size = 4
_this$ = -4						; size = 4
?_Myptr@?$_String_val@U?$_Simple_types@D@std@@@std@@QAEPADXZ PROC ; std::_String_val<std::_Simple_types<char> >::_Myptr, COMDAT
; _this$ = ecx

; 514  : 		{	// determine current pointer to buffer for mutable string

	push	ebp
	mov	ebp, esp
	sub	esp, 8
	mov	DWORD PTR _this$[ebp], ecx

; 515  : 		return (this->_BUF_SIZE <= this->_Myres
; 516  : 			? _STD addressof(*this->_Bx._Ptr)
; 517  : 			: this->_Bx._Buf);

	mov	eax, DWORD PTR _this$[ebp]
	cmp	DWORD PTR [eax+20], 16			; 00000010H
	jb	SHORT $LN3@Myptr
	mov	ecx, DWORD PTR _this$[ebp]
	mov	edx, DWORD PTR [ecx]
	push	edx
	call	??$addressof@D@std@@YAPADAAD@Z		; std::addressof<char>
	add	esp, 4
	mov	DWORD PTR tv72[ebp], eax
	jmp	SHORT $LN4@Myptr
$LN3@Myptr:
	mov	eax, DWORD PTR _this$[ebp]
	mov	DWORD PTR tv72[ebp], eax
$LN4@Myptr:
	mov	eax, DWORD PTR tv72[ebp]

; 518  : 		}

	mov	esp, ebp
	pop	ebp
	ret	0
?_Myptr@?$_String_val@U?$_Simple_types@D@std@@@std@@QAEPADXZ ENDP ; std::_String_val<std::_Simple_types<char> >::_Myptr
_TEXT	ENDS
; Function compile flags: /Odtp
; File c:\program files (x86)\microsoft visual studio 11.0\vc\include\xstring
;	COMDAT ??0?$_String_val@U?$_Simple_types@D@std@@@std@@QAE@XZ
_TEXT	SEGMENT
_this$ = -4						; size = 4
??0?$_String_val@U?$_Simple_types@D@std@@@std@@QAE@XZ PROC ; std::_String_val<std::_Simple_types<char> >::_String_val<std::_Simple_types<char> >, COMDAT
; _this$ = ecx

; 496  : 	_String_val()

	push	ebp
	mov	ebp, esp
	push	ecx
	mov	DWORD PTR _this$[ebp], ecx

; 497  : 		{	// initialize values
; 498  : 		_Mysize = 0;

	mov	eax, DWORD PTR _this$[ebp]
	mov	DWORD PTR [eax+16], 0

; 499  : 		_Myres = 0;

	mov	ecx, DWORD PTR _this$[ebp]
	mov	DWORD PTR [ecx+20], 0

; 500  : 		}

	mov	eax, DWORD PTR _this$[ebp]
	mov	esp, ebp
	pop	ebp
	ret	0
??0?$_String_val@U?$_Simple_types@D@std@@@std@@QAE@XZ ENDP ; std::_String_val<std::_Simple_types<char> >::_String_val<std::_Simple_types<char> >
_TEXT	ENDS
; Function compile flags: /Odtp
; File c:\program files (x86)\microsoft visual studio 11.0\vc\include\xmemory0
;	COMDAT ?max_size@?$_Wrap_alloc@V?$allocator@D@std@@@std@@QBEIXZ
_TEXT	SEGMENT
_this$ = -4						; size = 4
?max_size@?$_Wrap_alloc@V?$allocator@D@std@@@std@@QBEIXZ PROC ; std::_Wrap_alloc<std::allocator<char> >::max_size, COMDAT
; _this$ = ecx

; 913  : 		{	// get maximum size

	push	ebp
	mov	ebp, esp
	push	ecx
	mov	DWORD PTR _this$[ebp], ecx

; 914  : 		return (_Mytraits::max_size(*this));

	mov	eax, DWORD PTR _this$[ebp]
	push	eax
	call	?max_size@?$allocator_traits@V?$allocator@D@std@@@std@@SAIABV?$allocator@D@2@@Z ; std::allocator_traits<std::allocator<char> >::max_size
	add	esp, 4

; 915  : 		}

	mov	esp, ebp
	pop	ebp
	ret	0
?max_size@?$_Wrap_alloc@V?$allocator@D@std@@@std@@QBEIXZ ENDP ; std::_Wrap_alloc<std::allocator<char> >::max_size
_TEXT	ENDS
; Function compile flags: /Odtp
; File c:\program files (x86)\microsoft visual studio 11.0\vc\include\xmemory0
;	COMDAT ?deallocate@?$_Wrap_alloc@V?$allocator@D@std@@@std@@QAEXPADI@Z
_TEXT	SEGMENT
_this$ = -4						; size = 4
__Ptr$ = 8						; size = 4
__Count$ = 12						; size = 4
?deallocate@?$_Wrap_alloc@V?$allocator@D@std@@@std@@QAEXPADI@Z PROC ; std::_Wrap_alloc<std::allocator<char> >::deallocate, COMDAT
; _this$ = ecx

; 886  : 		{	// deallocate object at _Ptr, ignore size

	push	ebp
	mov	ebp, esp
	push	ecx
	mov	DWORD PTR _this$[ebp], ecx

; 887  : 		_Mybase::deallocate(_Ptr, _Count);

	mov	eax, DWORD PTR __Count$[ebp]
	push	eax
	mov	ecx, DWORD PTR __Ptr$[ebp]
	push	ecx
	mov	ecx, DWORD PTR _this$[ebp]
	call	?deallocate@?$allocator@D@std@@QAEXPADI@Z ; std::allocator<char>::deallocate

; 888  : 		}

	mov	esp, ebp
	pop	ebp
	ret	8
?deallocate@?$_Wrap_alloc@V?$allocator@D@std@@@std@@QAEXPADI@Z ENDP ; std::_Wrap_alloc<std::allocator<char> >::deallocate
_TEXT	ENDS
; Function compile flags: /Odtp
; File c:\program files (x86)\microsoft visual studio 11.0\vc\include\xmemory0
;	COMDAT ?allocate@?$_Wrap_alloc@V?$allocator@D@std@@@std@@QAEPADI@Z
_TEXT	SEGMENT
_this$ = -4						; size = 4
__Count$ = 8						; size = 4
?allocate@?$_Wrap_alloc@V?$allocator@D@std@@@std@@QAEPADI@Z PROC ; std::_Wrap_alloc<std::allocator<char> >::allocate, COMDAT
; _this$ = ecx

; 875  : 		{	// allocate array of _Count elements

	push	ebp
	mov	ebp, esp
	push	ecx
	mov	DWORD PTR _this$[ebp], ecx

; 876  : 		return (_Mybase::allocate(_Count));

	mov	eax, DWORD PTR __Count$[ebp]
	push	eax
	mov	ecx, DWORD PTR _this$[ebp]
	call	?allocate@?$allocator@D@std@@QAEPADI@Z	; std::allocator<char>::allocate

; 877  : 		}

	mov	esp, ebp
	pop	ebp
	ret	4
?allocate@?$_Wrap_alloc@V?$allocator@D@std@@@std@@QAEPADI@Z ENDP ; std::_Wrap_alloc<std::allocator<char> >::allocate
_TEXT	ENDS
; Function compile flags: /Odtp
; File c:\program files (x86)\microsoft visual studio 11.0\vc\include\xmemory0
;	COMDAT ??0?$_Wrap_alloc@V?$allocator@D@std@@@std@@QAE@XZ
_TEXT	SEGMENT
_this$ = -4						; size = 4
??0?$_Wrap_alloc@V?$allocator@D@std@@@std@@QAE@XZ PROC	; std::_Wrap_alloc<std::allocator<char> >::_Wrap_alloc<std::allocator<char> >, COMDAT
; _this$ = ecx

; 830  : 		{	// construct default allocator (do nothing)

	push	ebp
	mov	ebp, esp
	push	ecx
	mov	DWORD PTR _this$[ebp], ecx
	mov	ecx, DWORD PTR _this$[ebp]
	call	??0?$allocator@D@std@@QAE@XZ		; std::allocator<char>::allocator<char>

; 831  : 		}

	mov	eax, DWORD PTR _this$[ebp]
	mov	esp, ebp
	pop	ebp
	ret	0
??0?$_Wrap_alloc@V?$allocator@D@std@@@std@@QAE@XZ ENDP	; std::_Wrap_alloc<std::allocator<char> >::_Wrap_alloc<std::allocator<char> >
_TEXT	ENDS
; Function compile flags: /Odtp
; File c:\program files (x86)\microsoft visual studio 11.0\vc\include\xmemory0
;	COMDAT ?max_size@?$allocator_traits@V?$allocator@D@std@@@std@@SAIABV?$allocator@D@2@@Z
_TEXT	SEGMENT
__Al$ = 8						; size = 4
?max_size@?$allocator_traits@V?$allocator@D@std@@@std@@SAIABV?$allocator@D@2@@Z PROC ; std::allocator_traits<std::allocator<char> >::max_size, COMDAT

; 761  : 		{	// get maximum size

	push	ebp
	mov	ebp, esp

; 762  : 		return (_Al.max_size());

	mov	ecx, DWORD PTR __Al$[ebp]
	call	?max_size@?$allocator@D@std@@QBEIXZ	; std::allocator<char>::max_size

; 763  : 		}

	pop	ebp
	ret	0
?max_size@?$allocator_traits@V?$allocator@D@std@@@std@@SAIABV?$allocator@D@2@@Z ENDP ; std::allocator_traits<std::allocator<char> >::max_size
_TEXT	ENDS
; Function compile flags: /Odtp
; File c:\program files (x86)\microsoft visual studio 11.0\vc\include\xmemory0
;	COMDAT ?max_size@?$allocator@D@std@@QBEIXZ
_TEXT	SEGMENT
_this$ = -4						; size = 4
?max_size@?$allocator@D@std@@QBEIXZ PROC		; std::allocator<char>::max_size, COMDAT
; _this$ = ecx

; 627  : 		{	// estimate maximum array size

	push	ebp
	mov	ebp, esp
	push	ecx
	mov	DWORD PTR _this$[ebp], ecx

; 628  : 		return ((size_t)(-1) / sizeof (_Ty));

	or	eax, -1

; 629  : 		}

	mov	esp, ebp
	pop	ebp
	ret	0
?max_size@?$allocator@D@std@@QBEIXZ ENDP		; std::allocator<char>::max_size
_TEXT	ENDS
; Function compile flags: /Odtp
; File c:\program files (x86)\microsoft visual studio 11.0\vc\include\xmemory0
;	COMDAT ?allocate@?$allocator@D@std@@QAEPADI@Z
_TEXT	SEGMENT
_this$ = -4						; size = 4
__Count$ = 8						; size = 4
?allocate@?$allocator@D@std@@QAEPADI@Z PROC		; std::allocator<char>::allocate, COMDAT
; _this$ = ecx

; 590  : 		{	// allocate array of _Count elements

	push	ebp
	mov	ebp, esp
	push	ecx
	mov	DWORD PTR _this$[ebp], ecx

; 591  : 		return (_Allocate(_Count, (pointer)0));

	push	0
	mov	eax, DWORD PTR __Count$[ebp]
	push	eax
	call	??$_Allocate@D@std@@YAPADIPAD@Z		; std::_Allocate<char>
	add	esp, 8

; 592  : 		}

	mov	esp, ebp
	pop	ebp
	ret	4
?allocate@?$allocator@D@std@@QAEPADI@Z ENDP		; std::allocator<char>::allocate
_TEXT	ENDS
; Function compile flags: /Odtp
; File c:\program files (x86)\microsoft visual studio 11.0\vc\include\xmemory0
;	COMDAT ?deallocate@?$allocator@D@std@@QAEXPADI@Z
_TEXT	SEGMENT
_this$ = -4						; size = 4
__Ptr$ = 8						; size = 4
___formal$ = 12						; size = 4
?deallocate@?$allocator@D@std@@QAEXPADI@Z PROC		; std::allocator<char>::deallocate, COMDAT
; _this$ = ecx

; 585  : 		{	// deallocate object at _Ptr, ignore size

	push	ebp
	mov	ebp, esp
	push	ecx
	mov	DWORD PTR _this$[ebp], ecx

; 586  : 		::operator delete(_Ptr);

	mov	eax, DWORD PTR __Ptr$[ebp]
	push	eax
	call	??3@YAXPAX@Z				; operator delete
	add	esp, 4

; 587  : 		}

	mov	esp, ebp
	pop	ebp
	ret	8
?deallocate@?$allocator@D@std@@QAEXPADI@Z ENDP		; std::allocator<char>::deallocate
_TEXT	ENDS
; Function compile flags: /Odtp
; File c:\program files (x86)\microsoft visual studio 11.0\vc\include\xmemory0
;	COMDAT ??0?$allocator@D@std@@QAE@XZ
_TEXT	SEGMENT
_this$ = -4						; size = 4
??0?$allocator@D@std@@QAE@XZ PROC			; std::allocator<char>::allocator<char>, COMDAT
; _this$ = ecx

; 565  : 	allocator() _THROW0()

	push	ebp
	mov	ebp, esp
	push	ecx
	mov	DWORD PTR _this$[ebp], ecx

; 566  : 		{	// construct default allocator (do nothing)
; 567  : 		}

	mov	eax, DWORD PTR _this$[ebp]
	mov	esp, ebp
	pop	ebp
	ret	0
??0?$allocator@D@std@@QAE@XZ ENDP			; std::allocator<char>::allocator<char>
_TEXT	ENDS
; Function compile flags: /Odtp
; File c:\program files (x86)\microsoft visual studio 11.0\vc\include\xutility
;	COMDAT ??__Eallocator_arg@std@@YAXXZ
text$yc	SEGMENT
$T1 = -1						; size = 1
??__Eallocator_arg@std@@YAXXZ PROC			; std::`dynamic initializer for 'allocator_arg'', COMDAT

; 3644 : const allocator_arg_t allocator_arg = allocator_arg_t();

	push	ebp
	mov	ebp, esp
	push	ecx
	xor	eax, eax
	mov	BYTE PTR $T1[ebp], al
	mov	esp, ebp
	pop	ebp
	ret	0
??__Eallocator_arg@std@@YAXXZ ENDP			; std::`dynamic initializer for 'allocator_arg''
text$yc	ENDS
; Function compile flags: /Odtp
; File c:\program files (x86)\microsoft visual studio 11.0\vc\include\utility
;	COMDAT ??__Epiecewise_construct@std@@YAXXZ
text$yc	SEGMENT
$T1 = -1						; size = 1
??__Epiecewise_construct@std@@YAXXZ PROC		; std::`dynamic initializer for 'piecewise_construct'', COMDAT

; 65   : 	piecewise_construct_t();

	push	ebp
	mov	ebp, esp
	push	ecx
	xor	eax, eax
	mov	BYTE PTR $T1[ebp], al
	mov	esp, ebp
	pop	ebp
	ret	0
??__Epiecewise_construct@std@@YAXXZ ENDP		; std::`dynamic initializer for 'piecewise_construct''
text$yc	ENDS
; Function compile flags: /Odtp
; File c:\program files (x86)\microsoft visual studio 11.0\vc\include\iosfwd
;	COMDAT ?assign@?$char_traits@D@std@@SAXAADABD@Z
_TEXT	SEGMENT
__Left$ = 8						; size = 4
__Right$ = 12						; size = 4
?assign@?$char_traits@D@std@@SAXAADABD@Z PROC		; std::char_traits<char>::assign, COMDAT

; 563  : 		{	// assign an element

	push	ebp
	mov	ebp, esp

; 564  : 		_Left = _Right;

	mov	eax, DWORD PTR __Left$[ebp]
	mov	ecx, DWORD PTR __Right$[ebp]
	mov	dl, BYTE PTR [ecx]
	mov	BYTE PTR [eax], dl

; 565  : 		}

	pop	ebp
	ret	0
?assign@?$char_traits@D@std@@SAXAADABD@Z ENDP		; std::char_traits<char>::assign
_TEXT	ENDS
; Function compile flags: /Odtp
; File c:\program files (x86)\microsoft visual studio 11.0\vc\include\iosfwd
;	COMDAT ?move@?$char_traits@D@std@@SAPADPADPBDI@Z
_TEXT	SEGMENT
tv69 = -4						; size = 4
__First1$ = 8						; size = 4
__First2$ = 12						; size = 4
__Count$ = 16						; size = 4
?move@?$char_traits@D@std@@SAPADPADPBDI@Z PROC		; std::char_traits<char>::move, COMDAT

; 551  : 		{	// copy [_First2, _First2 + _Count) to [_First1, ...)

	push	ebp
	mov	ebp, esp
	push	ecx

; 552  : 		return (_Count == 0 ? _First1
; 553  : 			: (_Elem *)_CSTD memmove(_First1, _First2, _Count));

	cmp	DWORD PTR __Count$[ebp], 0
	jne	SHORT $LN3@move
	mov	eax, DWORD PTR __First1$[ebp]
	mov	DWORD PTR tv69[ebp], eax
	jmp	SHORT $LN4@move
$LN3@move:
	mov	ecx, DWORD PTR __Count$[ebp]
	push	ecx
	mov	edx, DWORD PTR __First2$[ebp]
	push	edx
	mov	eax, DWORD PTR __First1$[ebp]
	push	eax
	call	_memmove
	add	esp, 12					; 0000000cH
	mov	DWORD PTR tv69[ebp], eax
$LN4@move:
	mov	eax, DWORD PTR tv69[ebp]

; 554  : 		}

	mov	esp, ebp
	pop	ebp
	ret	0
?move@?$char_traits@D@std@@SAPADPADPBDI@Z ENDP		; std::char_traits<char>::move
_TEXT	ENDS
; Function compile flags: /Odtp
; File c:\program files (x86)\microsoft visual studio 11.0\vc\include\iosfwd
;	COMDAT ?copy@?$char_traits@D@std@@SAPADPADPBDI@Z
_TEXT	SEGMENT
tv69 = -4						; size = 4
__First1$ = 8						; size = 4
__First2$ = 12						; size = 4
__Count$ = 16						; size = 4
?copy@?$char_traits@D@std@@SAPADPADPBDI@Z PROC		; std::char_traits<char>::copy, COMDAT

; 528  : 		{	// copy [_First2, _First2 + _Count) to [_First1, ...)

	push	ebp
	mov	ebp, esp
	push	ecx

; 529  : 		return (_Count == 0 ? _First1
; 530  : 			: (_Elem *)_CSTD memcpy(_First1, _First2, _Count));

	cmp	DWORD PTR __Count$[ebp], 0
	jne	SHORT $LN3@copy
	mov	eax, DWORD PTR __First1$[ebp]
	mov	DWORD PTR tv69[ebp], eax
	jmp	SHORT $LN4@copy
$LN3@copy:
	mov	ecx, DWORD PTR __Count$[ebp]
	push	ecx
	mov	edx, DWORD PTR __First2$[ebp]
	push	edx
	mov	eax, DWORD PTR __First1$[ebp]
	push	eax
	call	_memcpy
	add	esp, 12					; 0000000cH
	mov	DWORD PTR tv69[ebp], eax
$LN4@copy:
	mov	eax, DWORD PTR tv69[ebp]

; 531  : 		}

	mov	esp, ebp
	pop	ebp
	ret	0
?copy@?$char_traits@D@std@@SAPADPADPBDI@Z ENDP		; std::char_traits<char>::copy
_TEXT	ENDS
; Function compile flags: /Odtp
; File c:\program files (x86)\microsoft visual studio 11.0\vc\include\iosfwd
;	COMDAT ?length@?$char_traits@D@std@@SAIPBD@Z
_TEXT	SEGMENT
tv68 = -4						; size = 4
__First$ = 8						; size = 4
?length@?$char_traits@D@std@@SAIPBD@Z PROC		; std::char_traits<char>::length, COMDAT

; 521  : 		{	// find length of null-terminated string

	push	ebp
	mov	ebp, esp
	push	ecx

; 522  : 		return (*_First == 0 ? 0
; 523  : 			: _CSTD strlen(_First));

	mov	eax, DWORD PTR __First$[ebp]
	movsx	ecx, BYTE PTR [eax]
	test	ecx, ecx
	jne	SHORT $LN3@length
	mov	DWORD PTR tv68[ebp], 0
	jmp	SHORT $LN4@length
$LN3@length:
	mov	edx, DWORD PTR __First$[ebp]
	push	edx
	call	_strlen
	add	esp, 4
	mov	DWORD PTR tv68[ebp], eax
$LN4@length:
	mov	eax, DWORD PTR tv68[ebp]

; 524  : 		}

	mov	esp, ebp
	pop	ebp
	ret	0
?length@?$char_traits@D@std@@SAIPBD@Z ENDP		; std::char_traits<char>::length
_TEXT	ENDS
; Function compile flags: /Odtp
; File c:\program files (x86)\microsoft visual studio 11.0\vc\include\new
;	COMDAT ??3@YAXPAX0@Z
_TEXT	SEGMENT
___formal$ = 8						; size = 4
___formal$ = 12						; size = 4
??3@YAXPAX0@Z PROC					; operator delete, COMDAT

; 64   : 	{	// delete if placement new fails

	push	ebp
	mov	ebp, esp

; 65   : 	}

	pop	ebp
	ret	0
??3@YAXPAX0@Z ENDP					; operator delete
_TEXT	ENDS
; Function compile flags: /Odtp
; File c:\program files (x86)\microsoft visual studio 11.0\vc\include\new
;	COMDAT ??2@YAPAXIPAX@Z
_TEXT	SEGMENT
___formal$ = 8						; size = 4
__Where$ = 12						; size = 4
??2@YAPAXIPAX@Z PROC					; operator new, COMDAT

; 59   : 	{	// construct array with placement at _Where

	push	ebp
	mov	ebp, esp

; 60   : 	return (_Where);

	mov	eax, DWORD PTR __Where$[ebp]

; 61   : 	}

	pop	ebp
	ret	0
??2@YAPAXIPAX@Z ENDP					; operator new
_TEXT	ENDS
; Function compile flags: /Odtp
; File c:\users\zhitao li\documents\visual studio 2012\projects\freefalcon\vu2\include\vuentity.h
;	COMDAT ?LastUpdateTime@VuEntity@@QBEKXZ
_TEXT	SEGMENT
_this$ = -4						; size = 4
?LastUpdateTime@VuEntity@@QBEKXZ PROC			; VuEntity::LastUpdateTime, COMDAT
; _this$ = ecx

; 172  : 	VU_TIME LastUpdateTime() const { return lastUpdateTime_; }

	push	ebp
	mov	ebp, esp
	push	ecx
	mov	DWORD PTR _this$[ebp], ecx
	mov	eax, DWORD PTR _this$[ebp]
	mov	eax, DWORD PTR [eax+100]
	mov	esp, ebp
	pop	ebp
	ret	0
?LastUpdateTime@VuEntity@@QBEKXZ ENDP			; VuEntity::LastUpdateTime
_TEXT	ENDS
; Function compile flags: /Odtp
; File c:\users\zhitao li\documents\visual studio 2012\projects\freefalcon\vu2\include\vuentity.h
;	COMDAT ?Roll@VuEntity@@QBEMXZ
_TEXT	SEGMENT
_this$ = -4						; size = 4
?Roll@VuEntity@@QBEMXZ PROC				; VuEntity::Roll, COMDAT
; _this$ = ecx

; 166  : 	SM_SCALAR Roll() const { return orient_.roll_; }

	push	ebp
	mov	ebp, esp
	push	ecx
	mov	DWORD PTR _this$[ebp], ecx
	mov	eax, DWORD PTR _this$[ebp]
	fld	DWORD PTR [eax+68]
	mov	esp, ebp
	pop	ebp
	ret	0
?Roll@VuEntity@@QBEMXZ ENDP				; VuEntity::Roll
_TEXT	ENDS
; Function compile flags: /Odtp
; File c:\users\zhitao li\documents\visual studio 2012\projects\freefalcon\vu2\include\vuentity.h
;	COMDAT ?Pitch@VuEntity@@QBEMXZ
_TEXT	SEGMENT
_this$ = -4						; size = 4
?Pitch@VuEntity@@QBEMXZ PROC				; VuEntity::Pitch, COMDAT
; _this$ = ecx

; 165  : 	SM_SCALAR Pitch() const { return orient_.pitch_; }

	push	ebp
	mov	ebp, esp
	push	ecx
	mov	DWORD PTR _this$[ebp], ecx
	mov	eax, DWORD PTR _this$[ebp]
	fld	DWORD PTR [eax+64]
	mov	esp, ebp
	pop	ebp
	ret	0
?Pitch@VuEntity@@QBEMXZ ENDP				; VuEntity::Pitch
_TEXT	ENDS
; Function compile flags: /Odtp
; File c:\users\zhitao li\documents\visual studio 2012\projects\freefalcon\vu2\include\vuentity.h
;	COMDAT ?Yaw@VuEntity@@QBEMXZ
_TEXT	SEGMENT
_this$ = -4						; size = 4
?Yaw@VuEntity@@QBEMXZ PROC				; VuEntity::Yaw, COMDAT
; _this$ = ecx

; 164  : 	SM_SCALAR Yaw() const { return orient_.yaw_; }

	push	ebp
	mov	ebp, esp
	push	ecx
	mov	DWORD PTR _this$[ebp], ecx
	mov	eax, DWORD PTR _this$[ebp]
	fld	DWORD PTR [eax+60]
	mov	esp, ebp
	pop	ebp
	ret	0
?Yaw@VuEntity@@QBEMXZ ENDP				; VuEntity::Yaw
_TEXT	ENDS
; Function compile flags: /Odtp
; File c:\users\zhitao li\documents\visual studio 2012\projects\freefalcon\vu2\include\vuentity.h
;	COMDAT ?YDelta@VuEntity@@QBEMXZ
_TEXT	SEGMENT
_this$ = -4						; size = 4
?YDelta@VuEntity@@QBEMXZ PROC				; VuEntity::YDelta, COMDAT
; _this$ = ecx

; 162  : 	SM_SCALAR YDelta() const { return pos_.dy_; }

	push	ebp
	mov	ebp, esp
	push	ecx
	mov	DWORD PTR _this$[ebp], ecx
	mov	eax, DWORD PTR _this$[ebp]
	fld	DWORD PTR [eax+52]
	mov	esp, ebp
	pop	ebp
	ret	0
?YDelta@VuEntity@@QBEMXZ ENDP				; VuEntity::YDelta
_TEXT	ENDS
; Function compile flags: /Odtp
; File c:\users\zhitao li\documents\visual studio 2012\projects\freefalcon\vu2\include\vuentity.h
;	COMDAT ?XDelta@VuEntity@@QBEMXZ
_TEXT	SEGMENT
_this$ = -4						; size = 4
?XDelta@VuEntity@@QBEMXZ PROC				; VuEntity::XDelta, COMDAT
; _this$ = ecx

; 161  : 	SM_SCALAR XDelta() const { return pos_.dx_; }

	push	ebp
	mov	ebp, esp
	push	ecx
	mov	DWORD PTR _this$[ebp], ecx
	mov	eax, DWORD PTR _this$[ebp]
	fld	DWORD PTR [eax+48]
	mov	esp, ebp
	pop	ebp
	ret	0
?XDelta@VuEntity@@QBEMXZ ENDP				; VuEntity::XDelta
_TEXT	ENDS
; Function compile flags: /Odtp
; File c:\users\zhitao li\documents\visual studio 2012\projects\freefalcon\vu2\include\vuentity.h
;	COMDAT ?ZPos@VuEntity@@QBEMXZ
_TEXT	SEGMENT
_this$ = -4						; size = 4
?ZPos@VuEntity@@QBEMXZ PROC				; VuEntity::ZPos, COMDAT
; _this$ = ecx

; 160  : 	BIG_SCALAR ZPos()	const { return pos_.z_; }

	push	ebp
	mov	ebp, esp
	push	ecx
	mov	DWORD PTR _this$[ebp], ecx
	mov	eax, DWORD PTR _this$[ebp]
	fld	DWORD PTR [eax+44]
	mov	esp, ebp
	pop	ebp
	ret	0
?ZPos@VuEntity@@QBEMXZ ENDP				; VuEntity::ZPos
_TEXT	ENDS
; Function compile flags: /Odtp
; File c:\users\zhitao li\documents\visual studio 2012\projects\freefalcon\vu2\include\vuentity.h
;	COMDAT ?YPos@VuEntity@@QBEMXZ
_TEXT	SEGMENT
_this$ = -4						; size = 4
?YPos@VuEntity@@QBEMXZ PROC				; VuEntity::YPos, COMDAT
; _this$ = ecx

; 159  : 	BIG_SCALAR YPos()	const { return pos_.y_; }

	push	ebp
	mov	ebp, esp
	push	ecx
	mov	DWORD PTR _this$[ebp], ecx
	mov	eax, DWORD PTR _this$[ebp]
	fld	DWORD PTR [eax+40]
	mov	esp, ebp
	pop	ebp
	ret	0
?YPos@VuEntity@@QBEMXZ ENDP				; VuEntity::YPos
_TEXT	ENDS
; Function compile flags: /Odtp
; File c:\users\zhitao li\documents\visual studio 2012\projects\freefalcon\vu2\include\vuentity.h
;	COMDAT ?XPos@VuEntity@@QBEMXZ
_TEXT	SEGMENT
_this$ = -4						; size = 4
?XPos@VuEntity@@QBEMXZ PROC				; VuEntity::XPos, COMDAT
; _this$ = ecx

; 158  : 	BIG_SCALAR XPos() const { return pos_.x_; }

	push	ebp
	mov	ebp, esp
	push	ecx
	mov	DWORD PTR _this$[ebp], ecx
	mov	eax, DWORD PTR _this$[ebp]
	fld	DWORD PTR [eax+36]
	mov	esp, ebp
	pop	ebp
	ret	0
?XPos@VuEntity@@QBEMXZ ENDP				; VuEntity::XPos
_TEXT	ENDS
; Function compile flags: /Odtp
; File c:\users\zhitao li\documents\visual studio 2012\projects\freefalcon\vu2\include\vuentity.h
;	COMDAT ?OwnerId@VuEntity@@QBE?AVVU_ID@@XZ
_TEXT	SEGMENT
_this$ = -4						; size = 4
___$ReturnUdt$ = 8					; size = 4
?OwnerId@VuEntity@@QBE?AVVU_ID@@XZ PROC			; VuEntity::OwnerId, COMDAT
; _this$ = ecx

; 152  : 	VU_ID OwnerId() const     { return share_.ownerId_; }

	push	ebp
	mov	ebp, esp
	push	ecx
	mov	DWORD PTR _this$[ebp], ecx
	mov	eax, DWORD PTR _this$[ebp]
	mov	ecx, DWORD PTR [eax+20]
	mov	edx, DWORD PTR [eax+24]
	mov	eax, DWORD PTR ___$ReturnUdt$[ebp]
	mov	DWORD PTR [eax], ecx
	mov	DWORD PTR [eax+4], edx
	mov	eax, DWORD PTR ___$ReturnUdt$[ebp]
	mov	esp, ebp
	pop	ebp
	ret	4
?OwnerId@VuEntity@@QBE?AVVU_ID@@XZ ENDP			; VuEntity::OwnerId
_TEXT	ENDS
; Function compile flags: /Odtp
; File c:\users\zhitao li\documents\visual studio 2012\projects\freefalcon\vu2\include\vuentity.h
;	COMDAT ?Id@VuEntity@@QBE?AVVU_ID@@XZ
_TEXT	SEGMENT
_this$ = -4						; size = 4
___$ReturnUdt$ = 8					; size = 4
?Id@VuEntity@@QBE?AVVU_ID@@XZ PROC			; VuEntity::Id, COMDAT
; _this$ = ecx

; 131  : 	VU_ID Id() const	{ return share_.id_; }

	push	ebp
	mov	ebp, esp
	push	ecx
	mov	DWORD PTR _this$[ebp], ecx
	mov	eax, DWORD PTR _this$[ebp]
	mov	ecx, DWORD PTR [eax+12]
	mov	edx, DWORD PTR [eax+16]
	mov	eax, DWORD PTR ___$ReturnUdt$[ebp]
	mov	DWORD PTR [eax], ecx
	mov	DWORD PTR [eax+4], edx
	mov	eax, DWORD PTR ___$ReturnUdt$[ebp]
	mov	esp, ebp
	pop	ebp
	ret	4
?Id@VuEntity@@QBE?AVVU_ID@@XZ ENDP			; VuEntity::Id
_TEXT	ENDS
; Function compile flags: /Odtp
; File c:\users\zhitao li\documents\visual studio 2012\projects\freefalcon\falclib\include\vutypes.h
;	COMDAT ??9VU_ID@@QBE_NABV0@@Z
_TEXT	SEGMENT
_this$ = -8						; size = 4
tv74 = -2						; size = 1
tv73 = -1						; size = 1
_rhs$ = 8						; size = 4
??9VU_ID@@QBE_NABV0@@Z PROC				; VU_ID::operator!=, COMDAT
; _this$ = ecx

; 111  : 	bool operator != (const VU_ID &rhs) const { 

	push	ebp
	mov	ebp, esp
	sub	esp, 8
	mov	DWORD PTR _this$[ebp], ecx

; 112  : 		return (
; 113  : 			num_ == rhs.num_ ? 
; 114  : 			(creator_ == rhs.creator_ ? false : true) : 
; 115  : 			true
; 116  : 		); 

	mov	eax, DWORD PTR _this$[ebp]
	mov	ecx, DWORD PTR _rhs$[ebp]
	mov	edx, DWORD PTR [eax]
	cmp	edx, DWORD PTR [ecx]
	jne	SHORT $LN5@operator
	mov	eax, DWORD PTR _rhs$[ebp]
	add	eax, 4
	push	eax
	mov	ecx, DWORD PTR _this$[ebp]
	add	ecx, 4
	call	??8VU_SESSION_ID@@QBEHABV0@@Z		; VU_SESSION_ID::operator==
	test	eax, eax
	je	SHORT $LN3@operator
	mov	BYTE PTR tv73[ebp], 0
	jmp	SHORT $LN4@operator
$LN3@operator:
	mov	BYTE PTR tv73[ebp], 1
$LN4@operator:
	mov	cl, BYTE PTR tv73[ebp]
	mov	BYTE PTR tv74[ebp], cl
	jmp	SHORT $LN6@operator
$LN5@operator:
	mov	BYTE PTR tv74[ebp], 1
$LN6@operator:
	mov	al, BYTE PTR tv74[ebp]

; 117  : 	}

	mov	esp, ebp
	pop	ebp
	ret	4
??9VU_ID@@QBE_NABV0@@Z ENDP				; VU_ID::operator!=
_TEXT	ENDS
; Function compile flags: /Odtp
; File c:\users\zhitao li\documents\visual studio 2012\projects\freefalcon\falclib\include\vutypes.h
;	COMDAT ??8VU_SESSION_ID@@QBEHABV0@@Z
_TEXT	SEGMENT
_this$ = -8						; size = 4
tv67 = -4						; size = 4
_rhs$ = 8						; size = 4
??8VU_SESSION_ID@@QBEHABV0@@Z PROC			; VU_SESSION_ID::operator==, COMDAT
; _this$ = ecx

; 55   : 	int operator == (const VU_SESSION_ID &rhs) const{

	push	ebp
	mov	ebp, esp
	sub	esp, 8
	mov	DWORD PTR _this$[ebp], ecx

; 56   : 		return (value_ == rhs.value_ ? TRUE : FALSE); 

	mov	eax, DWORD PTR _this$[ebp]
	mov	ecx, DWORD PTR _rhs$[ebp]
	mov	edx, DWORD PTR [eax]
	cmp	edx, DWORD PTR [ecx]
	jne	SHORT $LN3@operator
	mov	DWORD PTR tv67[ebp], 1
	jmp	SHORT $LN4@operator
$LN3@operator:
	mov	DWORD PTR tv67[ebp], 0
$LN4@operator:
	mov	eax, DWORD PTR tv67[ebp]

; 57   : 	}

	mov	esp, ebp
	pop	ebp
	ret	4
??8VU_SESSION_ID@@QBEHABV0@@Z ENDP			; VU_SESSION_ID::operator==
_TEXT	ENDS
; Function compile flags: /Odtp
; File c:\users\zhitao li\documents\visual studio 2012\projects\freefalcon\mathlib\math.h
_TEXT	SEGMENT
_x$ = 8							; size = 4
?SqrtSSE@@YAMM@Z PROC					; SqrtSSE

; 91   : static inline float SqrtSSE(float x){ 

	push	ebp
	mov	ebp, esp

; 92   :     __asm 
; 93   :     { 
; 94   :         sqrtss xmm0,x 

	sqrtss	xmm0, DWORD PTR _x$[ebp]

; 95   :         movss x,xmm0 

	movss	XMMWORD PTR _x$[ebp], xmm0

; 96   :     } 
; 97   : 
; 98   :     return x; 

	fld	DWORD PTR _x$[ebp]

; 99   : } 

	pop	ebp
	ret	0
?SqrtSSE@@YAMM@Z ENDP					; SqrtSSE
_TEXT	ENDS
; Function compile flags: /Odtp
; File c:\program files (x86)\microsoft visual studio 11.0\vc\include\math.h
;	COMDAT ?sin@@YAMM@Z
_TEXT	SEGMENT
__X$ = 8						; size = 4
?sin@@YAMM@Z PROC					; sin, COMDAT

; 537  :         {return (sinf(_X)); }

	push	ebp
	mov	ebp, esp
	push	ecx
	movss	xmm0, DWORD PTR __X$[ebp]
	movss	DWORD PTR [esp], xmm0
	call	_sinf
	add	esp, 4
	pop	ebp
	ret	0
?sin@@YAMM@Z ENDP					; sin
_TEXT	ENDS
; Function compile flags: /Odtp
; File c:\program files (x86)\microsoft visual studio 11.0\vc\include\math.h
;	COMDAT ?fabs@@YAMM@Z
_TEXT	SEGMENT
__X$ = 8						; size = 4
?fabs@@YAMM@Z PROC					; fabs, COMDAT

; 517  :         {return (fabsf(_X)); }

	push	ebp
	mov	ebp, esp
	push	ecx
	movss	xmm0, DWORD PTR __X$[ebp]
	movss	DWORD PTR [esp], xmm0
	call	_fabsf
	add	esp, 4
	pop	ebp
	ret	0
?fabs@@YAMM@Z ENDP					; fabs
_TEXT	ENDS
; Function compile flags: /Odtp
; File c:\program files (x86)\microsoft visual studio 11.0\vc\include\math.h
;	COMDAT ?cos@@YAMM@Z
_TEXT	SEGMENT
__X$ = 8						; size = 4
?cos@@YAMM@Z PROC					; cos, COMDAT

; 511  :         {return (cosf(_X)); }

	push	ebp
	mov	ebp, esp
	push	ecx
	movss	xmm0, DWORD PTR __X$[ebp]
	movss	DWORD PTR [esp], xmm0
	call	_cosf
	add	esp, 4
	pop	ebp
	ret	0
?cos@@YAMM@Z ENDP					; cos
_TEXT	ENDS
; Function compile flags: /Odtp
; File c:\program files (x86)\microsoft visual studio 11.0\vc\include\math.h
;	COMDAT ?atan@@YAMM@Z
_TEXT	SEGMENT
__X$ = 8						; size = 4
?atan@@YAMM@Z PROC					; atan, COMDAT

; 505  :         {return (atanf(_X)); }

	push	ebp
	mov	ebp, esp
	push	ecx
	movss	xmm0, DWORD PTR __X$[ebp]
	movss	DWORD PTR [esp], xmm0
	call	_atanf
	add	esp, 4
	pop	ebp
	ret	0
?atan@@YAMM@Z ENDP					; atan
_TEXT	ENDS
; Function compile flags: /Odtp
; File c:\program files (x86)\microsoft visual studio 11.0\vc\include\math.h
;	COMDAT _sinf
_TEXT	SEGMENT
tv74 = -12						; size = 8
tv76 = -4						; size = 4
__X$ = 8						; size = 4
_sinf	PROC						; COMDAT

; 430  :         {return ((float)sin((double)_X)); }

	push	ebp
	mov	ebp, esp
	sub	esp, 12					; 0000000cH
	cvtss2sd xmm0, DWORD PTR __X$[ebp]
	sub	esp, 8
	movsd	QWORD PTR [esp], xmm0
	call	_sin
	add	esp, 8
	fstp	QWORD PTR tv74[ebp]
	movsd	xmm0, QWORD PTR tv74[ebp]
	cvtsd2ss xmm0, xmm0
	movss	DWORD PTR tv76[ebp], xmm0
	fld	DWORD PTR tv76[ebp]
	mov	esp, ebp
	pop	ebp
	ret	0
_sinf	ENDP
_TEXT	ENDS
; Function compile flags: /Odtp
; File c:\program files (x86)\microsoft visual studio 11.0\vc\include\math.h
;	COMDAT _cosf
_TEXT	SEGMENT
tv74 = -12						; size = 8
tv76 = -4						; size = 4
__X$ = 8						; size = 4
_cosf	PROC						; COMDAT

; 410  :         {return ((float)cos((double)_X)); }

	push	ebp
	mov	ebp, esp
	sub	esp, 12					; 0000000cH
	cvtss2sd xmm0, DWORD PTR __X$[ebp]
	sub	esp, 8
	movsd	QWORD PTR [esp], xmm0
	call	_cos
	add	esp, 8
	fstp	QWORD PTR tv74[ebp]
	movsd	xmm0, QWORD PTR tv74[ebp]
	cvtsd2ss xmm0, xmm0
	movss	DWORD PTR tv76[ebp], xmm0
	fld	DWORD PTR tv76[ebp]
	mov	esp, ebp
	pop	ebp
	ret	0
_cosf	ENDP
_TEXT	ENDS
; Function compile flags: /Odtp
; File c:\program files (x86)\microsoft visual studio 11.0\vc\include\math.h
;	COMDAT _atanf
_TEXT	SEGMENT
tv74 = -12						; size = 8
tv76 = -4						; size = 4
__X$ = 8						; size = 4
_atanf	PROC						; COMDAT

; 404  :         {return ((float)atan((double)_X)); }

	push	ebp
	mov	ebp, esp
	sub	esp, 12					; 0000000cH
	cvtss2sd xmm0, DWORD PTR __X$[ebp]
	sub	esp, 8
	movsd	QWORD PTR [esp], xmm0
	call	_atan
	add	esp, 8
	fstp	QWORD PTR tv74[ebp]
	movsd	xmm0, QWORD PTR tv74[ebp]
	cvtsd2ss xmm0, xmm0
	movss	DWORD PTR tv76[ebp], xmm0
	fld	DWORD PTR tv76[ebp]
	mov	esp, ebp
	pop	ebp
	ret	0
_atanf	ENDP
_TEXT	ENDS
; Function compile flags: /Odtp
; File c:\program files (x86)\microsoft visual studio 11.0\vc\include\math.h
;	COMDAT _fabsf
_TEXT	SEGMENT
tv74 = -12						; size = 8
tv76 = -4						; size = 4
__X$ = 8						; size = 4
_fabsf	PROC						; COMDAT

; 392  :         {return ((float)fabs((double)_X)); }

	push	ebp
	mov	ebp, esp
	sub	esp, 12					; 0000000cH
	cvtss2sd xmm0, DWORD PTR __X$[ebp]
	sub	esp, 8
	movsd	QWORD PTR [esp], xmm0
	call	_fabs
	add	esp, 8
	fstp	QWORD PTR tv74[ebp]
	movsd	xmm0, QWORD PTR tv74[ebp]
	cvtsd2ss xmm0, xmm0
	movss	DWORD PTR tv76[ebp], xmm0
	fld	DWORD PTR tv76[ebp]
	mov	esp, ebp
	pop	ebp
	ret	0
_fabsf	ENDP
_TEXT	ENDS
END
