; Listing generated by Microsoft (R) Optimizing Compiler Version 17.00.51106.1 

	TITLE	C:\Users\Zhitao Li\Documents\Visual Studio 2012\Projects\Freefalcon\SIM\DIGI\targeting.cpp
	.686P
	.XMM
	include listing.inc
	.model	flat

INCLUDELIB LIBCMT
INCLUDELIB OLDNAMES

PUBLIC	?traps@_Num_base@std@@2_NB			; std::_Num_base::traps
PUBLIC	?round_style@_Num_base@std@@2W4float_round_style@2@B ; std::_Num_base::round_style
PUBLIC	?digits@_Num_base@std@@2HB			; std::_Num_base::digits
PUBLIC	?digits10@_Num_base@std@@2HB			; std::_Num_base::digits10
PUBLIC	?max_digits10@_Num_base@std@@2HB		; std::_Num_base::max_digits10
PUBLIC	?max_exponent@_Num_base@std@@2HB		; std::_Num_base::max_exponent
PUBLIC	?max_exponent10@_Num_base@std@@2HB		; std::_Num_base::max_exponent10
PUBLIC	?min_exponent@_Num_base@std@@2HB		; std::_Num_base::min_exponent
PUBLIC	?min_exponent10@_Num_base@std@@2HB		; std::_Num_base::min_exponent10
PUBLIC	?radix@_Num_base@std@@2HB			; std::_Num_base::radix
PUBLIC	?is_bounded@_Num_int_base@std@@2_NB		; std::_Num_int_base::is_bounded
PUBLIC	?is_exact@_Num_int_base@std@@2_NB		; std::_Num_int_base::is_exact
PUBLIC	?is_integer@_Num_int_base@std@@2_NB		; std::_Num_int_base::is_integer
PUBLIC	?is_modulo@_Num_int_base@std@@2_NB		; std::_Num_int_base::is_modulo
PUBLIC	?is_specialized@_Num_int_base@std@@2_NB		; std::_Num_int_base::is_specialized
PUBLIC	?radix@_Num_int_base@std@@2HB			; std::_Num_int_base::radix
PUBLIC	?has_denorm@_Num_float_base@std@@2W4float_denorm_style@2@B ; std::_Num_float_base::has_denorm
PUBLIC	?has_denorm_loss@_Num_float_base@std@@2_NB	; std::_Num_float_base::has_denorm_loss
PUBLIC	?SIMDIRTYDATA_INTERVAL@FalconEntity@@2KB	; FalconEntity::SIMDIRTYDATA_INTERVAL
PUBLIC	?CMPDIRTYDATA_INTERVAL@FalconEntity@@2KB	; FalconEntity::CMPDIRTYDATA_INTERVAL
PUBLIC	?has_infinity@_Num_float_base@std@@2_NB		; std::_Num_float_base::has_infinity
PUBLIC	?has_quiet_NaN@_Num_float_base@std@@2_NB	; std::_Num_float_base::has_quiet_NaN
PUBLIC	?has_signaling_NaN@_Num_float_base@std@@2_NB	; std::_Num_float_base::has_signaling_NaN
PUBLIC	?is_bounded@_Num_float_base@std@@2_NB		; std::_Num_float_base::is_bounded
PUBLIC	?is_exact@_Num_float_base@std@@2_NB		; std::_Num_float_base::is_exact
PUBLIC	?is_iec559@_Num_float_base@std@@2_NB		; std::_Num_float_base::is_iec559
PUBLIC	?is_integer@_Num_float_base@std@@2_NB		; std::_Num_float_base::is_integer
PUBLIC	?is_modulo@_Num_float_base@std@@2_NB		; std::_Num_float_base::is_modulo
PUBLIC	?is_signed@_Num_float_base@std@@2_NB		; std::_Num_float_base::is_signed
PUBLIC	?is_specialized@_Num_float_base@std@@2_NB	; std::_Num_float_base::is_specialized
PUBLIC	?tinyness_before@_Num_float_base@std@@2_NB	; std::_Num_float_base::tinyness_before
PUBLIC	?traps@_Num_float_base@std@@2_NB		; std::_Num_float_base::traps
PUBLIC	?round_style@_Num_float_base@std@@2W4float_round_style@2@B ; std::_Num_float_base::round_style
PUBLIC	?radix@_Num_float_base@std@@2HB			; std::_Num_float_base::radix
PUBLIC	?is_signed@?$numeric_limits@D@std@@2_NB		; std::numeric_limits<char>::is_signed
PUBLIC	?digits@?$numeric_limits@D@std@@2HB		; std::numeric_limits<char>::digits
PUBLIC	?digits10@?$numeric_limits@D@std@@2HB		; std::numeric_limits<char>::digits10
PUBLIC	?is_signed@?$numeric_limits@_W@std@@2_NB	; std::numeric_limits<wchar_t>::is_signed
PUBLIC	?digits@?$numeric_limits@_W@std@@2HB		; std::numeric_limits<wchar_t>::digits
PUBLIC	?digits10@?$numeric_limits@_W@std@@2HB		; std::numeric_limits<wchar_t>::digits10
PUBLIC	?is_modulo@?$numeric_limits@_N@std@@2_NB	; std::numeric_limits<bool>::is_modulo
PUBLIC	?is_signed@?$numeric_limits@_N@std@@2_NB	; std::numeric_limits<bool>::is_signed
PUBLIC	?digits@?$numeric_limits@_N@std@@2HB		; std::numeric_limits<bool>::digits
PUBLIC	?digits10@?$numeric_limits@_N@std@@2HB		; std::numeric_limits<bool>::digits10
PUBLIC	?is_signed@?$numeric_limits@C@std@@2_NB		; std::numeric_limits<signed char>::is_signed
PUBLIC	?digits@?$numeric_limits@C@std@@2HB		; std::numeric_limits<signed char>::digits
PUBLIC	?digits10@?$numeric_limits@C@std@@2HB		; std::numeric_limits<signed char>::digits10
PUBLIC	?is_signed@?$numeric_limits@E@std@@2_NB		; std::numeric_limits<unsigned char>::is_signed
PUBLIC	?value@?$integral_constant@_N$0A@@std@@2_NB	; std::integral_constant<bool,0>::value
PUBLIC	?digits@?$numeric_limits@E@std@@2HB		; std::numeric_limits<unsigned char>::digits
PUBLIC	?digits10@?$numeric_limits@E@std@@2HB		; std::numeric_limits<unsigned char>::digits10
PUBLIC	?value@?$integral_constant@_N$00@std@@2_NB	; std::integral_constant<bool,1>::value
PUBLIC	?is_signed@?$numeric_limits@F@std@@2_NB		; std::numeric_limits<short>::is_signed
PUBLIC	?digits@?$numeric_limits@F@std@@2HB		; std::numeric_limits<short>::digits
PUBLIC	?digits10@?$numeric_limits@F@std@@2HB		; std::numeric_limits<short>::digits10
PUBLIC	?skipws@?$_Iosb@H@std@@2W4_Fmtflags@12@B	; std::_Iosb<int>::skipws
PUBLIC	?unitbuf@?$_Iosb@H@std@@2W4_Fmtflags@12@B	; std::_Iosb<int>::unitbuf
PUBLIC	?uppercase@?$_Iosb@H@std@@2W4_Fmtflags@12@B	; std::_Iosb<int>::uppercase
PUBLIC	?showbase@?$_Iosb@H@std@@2W4_Fmtflags@12@B	; std::_Iosb<int>::showbase
PUBLIC	?showpoint@?$_Iosb@H@std@@2W4_Fmtflags@12@B	; std::_Iosb<int>::showpoint
PUBLIC	?showpos@?$_Iosb@H@std@@2W4_Fmtflags@12@B	; std::_Iosb<int>::showpos
PUBLIC	?is_signed@?$numeric_limits@G@std@@2_NB		; std::numeric_limits<unsigned short>::is_signed
PUBLIC	?left@?$_Iosb@H@std@@2W4_Fmtflags@12@B		; std::_Iosb<int>::left
PUBLIC	?digits@?$numeric_limits@G@std@@2HB		; std::numeric_limits<unsigned short>::digits
PUBLIC	?right@?$_Iosb@H@std@@2W4_Fmtflags@12@B		; std::_Iosb<int>::right
PUBLIC	?digits10@?$numeric_limits@G@std@@2HB		; std::numeric_limits<unsigned short>::digits10
PUBLIC	?internal@?$_Iosb@H@std@@2W4_Fmtflags@12@B	; std::_Iosb<int>::internal
PUBLIC	?dec@?$_Iosb@H@std@@2W4_Fmtflags@12@B		; std::_Iosb<int>::dec
PUBLIC	?oct@?$_Iosb@H@std@@2W4_Fmtflags@12@B		; std::_Iosb<int>::oct
PUBLIC	?hex@?$_Iosb@H@std@@2W4_Fmtflags@12@B		; std::_Iosb<int>::hex
PUBLIC	?scientific@?$_Iosb@H@std@@2W4_Fmtflags@12@B	; std::_Iosb<int>::scientific
PUBLIC	?fixed@?$_Iosb@H@std@@2W4_Fmtflags@12@B		; std::_Iosb<int>::fixed
PUBLIC	?hexfloat@?$_Iosb@H@std@@2W4_Fmtflags@12@B	; std::_Iosb<int>::hexfloat
PUBLIC	?boolalpha@?$_Iosb@H@std@@2W4_Fmtflags@12@B	; std::_Iosb<int>::boolalpha
PUBLIC	?_Stdio@?$_Iosb@H@std@@2W4_Fmtflags@12@B	; std::_Iosb<int>::_Stdio
PUBLIC	?adjustfield@?$_Iosb@H@std@@2W4_Fmtflags@12@B	; std::_Iosb<int>::adjustfield
PUBLIC	?is_signed@?$numeric_limits@H@std@@2_NB		; std::numeric_limits<int>::is_signed
PUBLIC	?value@?$_Sizeof@HU_Nil@std@@U12@U12@U12@U12@U12@U12@@std@@2IB ; std::_Sizeof<int,std::_Nil,std::_Nil,std::_Nil,std::_Nil,std::_Nil,std::_Nil,std::_Nil>::value
PUBLIC	?basefield@?$_Iosb@H@std@@2W4_Fmtflags@12@B	; std::_Iosb<int>::basefield
PUBLIC	?floatfield@?$_Iosb@H@std@@2W4_Fmtflags@12@B	; std::_Iosb<int>::floatfield
PUBLIC	?digits@?$numeric_limits@H@std@@2HB		; std::numeric_limits<int>::digits
PUBLIC	?digits10@?$numeric_limits@H@std@@2HB		; std::numeric_limits<int>::digits10
PUBLIC	?goodbit@?$_Iosb@H@std@@2W4_Iostate@12@B	; std::_Iosb<int>::goodbit
PUBLIC	?eofbit@?$_Iosb@H@std@@2W4_Iostate@12@B		; std::_Iosb<int>::eofbit
PUBLIC	?failbit@?$_Iosb@H@std@@2W4_Iostate@12@B	; std::_Iosb<int>::failbit
PUBLIC	?badbit@?$_Iosb@H@std@@2W4_Iostate@12@B		; std::_Iosb<int>::badbit
PUBLIC	?_Hardfail@?$_Iosb@H@std@@2W4_Iostate@12@B	; std::_Iosb<int>::_Hardfail
PUBLIC	?in@?$_Iosb@H@std@@2W4_Openmode@12@B		; std::_Iosb<int>::in
PUBLIC	?out@?$_Iosb@H@std@@2W4_Openmode@12@B		; std::_Iosb<int>::out
PUBLIC	?ate@?$_Iosb@H@std@@2W4_Openmode@12@B		; std::_Iosb<int>::ate
PUBLIC	?app@?$_Iosb@H@std@@2W4_Openmode@12@B		; std::_Iosb<int>::app
PUBLIC	?is_signed@?$numeric_limits@I@std@@2_NB		; std::numeric_limits<unsigned int>::is_signed
PUBLIC	?trunc@?$_Iosb@H@std@@2W4_Openmode@12@B		; std::_Iosb<int>::trunc
PUBLIC	?_Nocreate@?$_Iosb@H@std@@2W4_Openmode@12@B	; std::_Iosb<int>::_Nocreate
PUBLIC	?digits@?$numeric_limits@I@std@@2HB		; std::numeric_limits<unsigned int>::digits
PUBLIC	?_Noreplace@?$_Iosb@H@std@@2W4_Openmode@12@B	; std::_Iosb<int>::_Noreplace
PUBLIC	?digits10@?$numeric_limits@I@std@@2HB		; std::numeric_limits<unsigned int>::digits10
PUBLIC	?binary@?$_Iosb@H@std@@2W4_Openmode@12@B	; std::_Iosb<int>::binary
PUBLIC	?beg@?$_Iosb@H@std@@2W4_Seekdir@12@B		; std::_Iosb<int>::beg
PUBLIC	?cur@?$_Iosb@H@std@@2W4_Seekdir@12@B		; std::_Iosb<int>::cur
PUBLIC	?end@?$_Iosb@H@std@@2W4_Seekdir@12@B		; std::_Iosb<int>::end
PUBLIC	?is_signed@?$numeric_limits@J@std@@2_NB		; std::numeric_limits<long>::is_signed
PUBLIC	?digits@?$numeric_limits@J@std@@2HB		; std::numeric_limits<long>::digits
PUBLIC	?digits10@?$numeric_limits@J@std@@2HB		; std::numeric_limits<long>::digits10
PUBLIC	?_Stream_err@failure@ios_base@std@@0W4io_errc@43@B ; std::ios_base::failure::_Stream_err
PUBLIC	?is_signed@?$numeric_limits@K@std@@2_NB		; std::numeric_limits<unsigned long>::is_signed
PUBLIC	?digits@?$numeric_limits@K@std@@2HB		; std::numeric_limits<unsigned long>::digits
PUBLIC	?digits10@?$numeric_limits@K@std@@2HB		; std::numeric_limits<unsigned long>::digits10
PUBLIC	?is_signed@?$numeric_limits@_J@std@@2_NB	; std::numeric_limits<__int64>::is_signed
PUBLIC	?digits@?$numeric_limits@_J@std@@2HB		; std::numeric_limits<__int64>::digits
PUBLIC	?digits10@?$numeric_limits@_J@std@@2HB		; std::numeric_limits<__int64>::digits10
PUBLIC	?is_signed@?$numeric_limits@_K@std@@2_NB	; std::numeric_limits<unsigned __int64>::is_signed
PUBLIC	?digits@?$numeric_limits@_K@std@@2HB		; std::numeric_limits<unsigned __int64>::digits
PUBLIC	?digits10@?$numeric_limits@_K@std@@2HB		; std::numeric_limits<unsigned __int64>::digits10
PUBLIC	?digits@?$numeric_limits@M@std@@2HB		; std::numeric_limits<float>::digits
PUBLIC	?digits10@?$numeric_limits@M@std@@2HB		; std::numeric_limits<float>::digits10
PUBLIC	?max_digits10@?$numeric_limits@M@std@@2HB	; std::numeric_limits<float>::max_digits10
PUBLIC	?max_exponent@?$numeric_limits@M@std@@2HB	; std::numeric_limits<float>::max_exponent
PUBLIC	?max_exponent10@?$numeric_limits@M@std@@2HB	; std::numeric_limits<float>::max_exponent10
PUBLIC	?min_exponent@?$numeric_limits@M@std@@2HB	; std::numeric_limits<float>::min_exponent
PUBLIC	?min_exponent10@?$numeric_limits@M@std@@2HB	; std::numeric_limits<float>::min_exponent10
PUBLIC	?value@?$integral_constant@I$0A@@std@@2IB	; std::integral_constant<unsigned int,0>::value
PUBLIC	?digits@?$numeric_limits@N@std@@2HB		; std::numeric_limits<double>::digits
PUBLIC	?digits10@?$numeric_limits@N@std@@2HB		; std::numeric_limits<double>::digits10
PUBLIC	?max_digits10@?$numeric_limits@N@std@@2HB	; std::numeric_limits<double>::max_digits10
PUBLIC	?max_exponent@?$numeric_limits@N@std@@2HB	; std::numeric_limits<double>::max_exponent
PUBLIC	?max_exponent10@?$numeric_limits@N@std@@2HB	; std::numeric_limits<double>::max_exponent10
PUBLIC	?min_exponent@?$numeric_limits@N@std@@2HB	; std::numeric_limits<double>::min_exponent
PUBLIC	?min_exponent10@?$numeric_limits@N@std@@2HB	; std::numeric_limits<double>::min_exponent10
PUBLIC	?digits@?$numeric_limits@O@std@@2HB		; std::numeric_limits<long double>::digits
PUBLIC	?digits10@?$numeric_limits@O@std@@2HB		; std::numeric_limits<long double>::digits10
PUBLIC	?max_digits10@?$numeric_limits@O@std@@2HB	; std::numeric_limits<long double>::max_digits10
PUBLIC	?max_exponent@?$numeric_limits@O@std@@2HB	; std::numeric_limits<long double>::max_exponent
PUBLIC	?max_exponent10@?$numeric_limits@O@std@@2HB	; std::numeric_limits<long double>::max_exponent10
PUBLIC	?min_exponent@?$numeric_limits@O@std@@2HB	; std::numeric_limits<long double>::min_exponent
PUBLIC	?min_exponent10@?$numeric_limits@O@std@@2HB	; std::numeric_limits<long double>::min_exponent10
PUBLIC	?collate@?$_Locbase@H@std@@2HB			; std::_Locbase<int>::collate
PUBLIC	?ctype@?$_Locbase@H@std@@2HB			; std::_Locbase<int>::ctype
PUBLIC	?monetary@?$_Locbase@H@std@@2HB			; std::_Locbase<int>::monetary
PUBLIC	?numeric@?$_Locbase@H@std@@2HB			; std::_Locbase<int>::numeric
PUBLIC	?time@?$_Locbase@H@std@@2HB			; std::_Locbase<int>::time
PUBLIC	?messages@?$_Locbase@H@std@@2HB			; std::_Locbase<int>::messages
PUBLIC	?all@?$_Locbase@H@std@@2HB			; std::_Locbase<int>::all
PUBLIC	?none@?$_Locbase@H@std@@2HB			; std::_Locbase<int>::none
PUBLIC	?value@?$_Sizeof@U_Nil@std@@U12@U12@U12@U12@U12@U12@U12@@std@@2IB ; std::_Sizeof<std::_Nil,std::_Nil,std::_Nil,std::_Nil,std::_Nil,std::_Nil,std::_Nil,std::_Nil>::value
PUBLIC	?table_size@?$ctype@D@std@@2IB			; std::ctype<char>::table_size
PUBLIC	?has_denorm@_Num_base@std@@2W4float_denorm_style@2@B ; std::_Num_base::has_denorm
PUBLIC	?has_denorm_loss@_Num_base@std@@2_NB		; std::_Num_base::has_denorm_loss
PUBLIC	?has_infinity@_Num_base@std@@2_NB		; std::_Num_base::has_infinity
PUBLIC	?has_quiet_NaN@_Num_base@std@@2_NB		; std::_Num_base::has_quiet_NaN
PUBLIC	?has_signaling_NaN@_Num_base@std@@2_NB		; std::_Num_base::has_signaling_NaN
PUBLIC	?is_bounded@_Num_base@std@@2_NB			; std::_Num_base::is_bounded
PUBLIC	?is_exact@_Num_base@std@@2_NB			; std::_Num_base::is_exact
PUBLIC	?is_iec559@_Num_base@std@@2_NB			; std::_Num_base::is_iec559
PUBLIC	?is_integer@_Num_base@std@@2_NB			; std::_Num_base::is_integer
PUBLIC	?is_modulo@_Num_base@std@@2_NB			; std::_Num_base::is_modulo
PUBLIC	?is_signed@_Num_base@std@@2_NB			; std::_Num_base::is_signed
PUBLIC	?is_specialized@_Num_base@std@@2_NB		; std::_Num_base::is_specialized
PUBLIC	?tinyness_before@_Num_base@std@@2_NB		; std::_Num_base::tinyness_before
;	COMDAT ?tinyness_before@_Num_base@std@@2_NB
CONST	SEGMENT
?tinyness_before@_Num_base@std@@2_NB DB 00H		; std::_Num_base::tinyness_before
CONST	ENDS
;	COMDAT ?is_specialized@_Num_base@std@@2_NB
CONST	SEGMENT
?is_specialized@_Num_base@std@@2_NB DB 00H		; std::_Num_base::is_specialized
CONST	ENDS
;	COMDAT ?is_signed@_Num_base@std@@2_NB
CONST	SEGMENT
?is_signed@_Num_base@std@@2_NB DB 00H			; std::_Num_base::is_signed
CONST	ENDS
;	COMDAT ?is_modulo@_Num_base@std@@2_NB
CONST	SEGMENT
?is_modulo@_Num_base@std@@2_NB DB 00H			; std::_Num_base::is_modulo
CONST	ENDS
;	COMDAT ?is_integer@_Num_base@std@@2_NB
CONST	SEGMENT
?is_integer@_Num_base@std@@2_NB DB 00H			; std::_Num_base::is_integer
CONST	ENDS
;	COMDAT ?is_iec559@_Num_base@std@@2_NB
CONST	SEGMENT
?is_iec559@_Num_base@std@@2_NB DB 00H			; std::_Num_base::is_iec559
CONST	ENDS
;	COMDAT ?is_exact@_Num_base@std@@2_NB
CONST	SEGMENT
?is_exact@_Num_base@std@@2_NB DB 00H			; std::_Num_base::is_exact
CONST	ENDS
;	COMDAT ?is_bounded@_Num_base@std@@2_NB
CONST	SEGMENT
?is_bounded@_Num_base@std@@2_NB DB 00H			; std::_Num_base::is_bounded
CONST	ENDS
;	COMDAT ?has_signaling_NaN@_Num_base@std@@2_NB
CONST	SEGMENT
?has_signaling_NaN@_Num_base@std@@2_NB DB 00H		; std::_Num_base::has_signaling_NaN
CONST	ENDS
;	COMDAT ?has_quiet_NaN@_Num_base@std@@2_NB
CONST	SEGMENT
?has_quiet_NaN@_Num_base@std@@2_NB DB 00H		; std::_Num_base::has_quiet_NaN
CONST	ENDS
;	COMDAT ?has_infinity@_Num_base@std@@2_NB
CONST	SEGMENT
?has_infinity@_Num_base@std@@2_NB DB 00H		; std::_Num_base::has_infinity
CONST	ENDS
;	COMDAT ?has_denorm_loss@_Num_base@std@@2_NB
CONST	SEGMENT
?has_denorm_loss@_Num_base@std@@2_NB DB 00H		; std::_Num_base::has_denorm_loss
CONST	ENDS
;	COMDAT ?has_denorm@_Num_base@std@@2W4float_denorm_style@2@B
CONST	SEGMENT
?has_denorm@_Num_base@std@@2W4float_denorm_style@2@B DD 00H ; std::_Num_base::has_denorm
CONST	ENDS
;	COMDAT ?table_size@?$ctype@D@std@@2IB
CONST	SEGMENT
?table_size@?$ctype@D@std@@2IB DD 0100H			; std::ctype<char>::table_size
CONST	ENDS
;	COMDAT ?value@?$_Sizeof@U_Nil@std@@U12@U12@U12@U12@U12@U12@U12@@std@@2IB
CONST	SEGMENT
?value@?$_Sizeof@U_Nil@std@@U12@U12@U12@U12@U12@U12@U12@@std@@2IB DD 00H ; std::_Sizeof<std::_Nil,std::_Nil,std::_Nil,std::_Nil,std::_Nil,std::_Nil,std::_Nil,std::_Nil>::value
CONST	ENDS
;	COMDAT ?none@?$_Locbase@H@std@@2HB
CONST	SEGMENT
?none@?$_Locbase@H@std@@2HB DD 00H			; std::_Locbase<int>::none
CONST	ENDS
;	COMDAT ?all@?$_Locbase@H@std@@2HB
CONST	SEGMENT
?all@?$_Locbase@H@std@@2HB DD 03fH			; std::_Locbase<int>::all
CONST	ENDS
;	COMDAT ?messages@?$_Locbase@H@std@@2HB
CONST	SEGMENT
?messages@?$_Locbase@H@std@@2HB DD 020H			; std::_Locbase<int>::messages
CONST	ENDS
;	COMDAT ?time@?$_Locbase@H@std@@2HB
CONST	SEGMENT
?time@?$_Locbase@H@std@@2HB DD 010H			; std::_Locbase<int>::time
CONST	ENDS
;	COMDAT ?numeric@?$_Locbase@H@std@@2HB
CONST	SEGMENT
?numeric@?$_Locbase@H@std@@2HB DD 08H			; std::_Locbase<int>::numeric
CONST	ENDS
;	COMDAT ?monetary@?$_Locbase@H@std@@2HB
CONST	SEGMENT
?monetary@?$_Locbase@H@std@@2HB DD 04H			; std::_Locbase<int>::monetary
CONST	ENDS
;	COMDAT ?ctype@?$_Locbase@H@std@@2HB
CONST	SEGMENT
?ctype@?$_Locbase@H@std@@2HB DD 02H			; std::_Locbase<int>::ctype
CONST	ENDS
;	COMDAT ?collate@?$_Locbase@H@std@@2HB
CONST	SEGMENT
?collate@?$_Locbase@H@std@@2HB DD 01H			; std::_Locbase<int>::collate
CONST	ENDS
;	COMDAT ?min_exponent10@?$numeric_limits@O@std@@2HB
CONST	SEGMENT
?min_exponent10@?$numeric_limits@O@std@@2HB DD 0fffffecdH ; std::numeric_limits<long double>::min_exponent10
CONST	ENDS
;	COMDAT ?min_exponent@?$numeric_limits@O@std@@2HB
CONST	SEGMENT
?min_exponent@?$numeric_limits@O@std@@2HB DD 0fffffc03H	; std::numeric_limits<long double>::min_exponent
CONST	ENDS
;	COMDAT ?max_exponent10@?$numeric_limits@O@std@@2HB
CONST	SEGMENT
?max_exponent10@?$numeric_limits@O@std@@2HB DD 0134H	; std::numeric_limits<long double>::max_exponent10
CONST	ENDS
;	COMDAT ?max_exponent@?$numeric_limits@O@std@@2HB
CONST	SEGMENT
?max_exponent@?$numeric_limits@O@std@@2HB DD 0400H	; std::numeric_limits<long double>::max_exponent
CONST	ENDS
;	COMDAT ?max_digits10@?$numeric_limits@O@std@@2HB
CONST	SEGMENT
?max_digits10@?$numeric_limits@O@std@@2HB DD 011H	; std::numeric_limits<long double>::max_digits10
CONST	ENDS
;	COMDAT ?digits10@?$numeric_limits@O@std@@2HB
CONST	SEGMENT
?digits10@?$numeric_limits@O@std@@2HB DD 0fH		; std::numeric_limits<long double>::digits10
CONST	ENDS
;	COMDAT ?digits@?$numeric_limits@O@std@@2HB
CONST	SEGMENT
?digits@?$numeric_limits@O@std@@2HB DD 035H		; std::numeric_limits<long double>::digits
CONST	ENDS
;	COMDAT ?min_exponent10@?$numeric_limits@N@std@@2HB
CONST	SEGMENT
?min_exponent10@?$numeric_limits@N@std@@2HB DD 0fffffecdH ; std::numeric_limits<double>::min_exponent10
CONST	ENDS
;	COMDAT ?min_exponent@?$numeric_limits@N@std@@2HB
CONST	SEGMENT
?min_exponent@?$numeric_limits@N@std@@2HB DD 0fffffc03H	; std::numeric_limits<double>::min_exponent
CONST	ENDS
;	COMDAT ?max_exponent10@?$numeric_limits@N@std@@2HB
CONST	SEGMENT
?max_exponent10@?$numeric_limits@N@std@@2HB DD 0134H	; std::numeric_limits<double>::max_exponent10
CONST	ENDS
;	COMDAT ?max_exponent@?$numeric_limits@N@std@@2HB
CONST	SEGMENT
?max_exponent@?$numeric_limits@N@std@@2HB DD 0400H	; std::numeric_limits<double>::max_exponent
CONST	ENDS
;	COMDAT ?max_digits10@?$numeric_limits@N@std@@2HB
CONST	SEGMENT
?max_digits10@?$numeric_limits@N@std@@2HB DD 011H	; std::numeric_limits<double>::max_digits10
CONST	ENDS
;	COMDAT ?digits10@?$numeric_limits@N@std@@2HB
CONST	SEGMENT
?digits10@?$numeric_limits@N@std@@2HB DD 0fH		; std::numeric_limits<double>::digits10
CONST	ENDS
;	COMDAT ?digits@?$numeric_limits@N@std@@2HB
CONST	SEGMENT
?digits@?$numeric_limits@N@std@@2HB DD 035H		; std::numeric_limits<double>::digits
CONST	ENDS
;	COMDAT ?value@?$integral_constant@I$0A@@std@@2IB
CONST	SEGMENT
?value@?$integral_constant@I$0A@@std@@2IB DD 00H	; std::integral_constant<unsigned int,0>::value
CONST	ENDS
;	COMDAT ?min_exponent10@?$numeric_limits@M@std@@2HB
CONST	SEGMENT
?min_exponent10@?$numeric_limits@M@std@@2HB DD 0ffffffdbH ; std::numeric_limits<float>::min_exponent10
CONST	ENDS
;	COMDAT ?min_exponent@?$numeric_limits@M@std@@2HB
CONST	SEGMENT
?min_exponent@?$numeric_limits@M@std@@2HB DD 0ffffff83H	; std::numeric_limits<float>::min_exponent
CONST	ENDS
;	COMDAT ?max_exponent10@?$numeric_limits@M@std@@2HB
CONST	SEGMENT
?max_exponent10@?$numeric_limits@M@std@@2HB DD 026H	; std::numeric_limits<float>::max_exponent10
CONST	ENDS
;	COMDAT ?max_exponent@?$numeric_limits@M@std@@2HB
CONST	SEGMENT
?max_exponent@?$numeric_limits@M@std@@2HB DD 080H	; std::numeric_limits<float>::max_exponent
CONST	ENDS
;	COMDAT ?max_digits10@?$numeric_limits@M@std@@2HB
CONST	SEGMENT
?max_digits10@?$numeric_limits@M@std@@2HB DD 09H	; std::numeric_limits<float>::max_digits10
CONST	ENDS
;	COMDAT ?digits10@?$numeric_limits@M@std@@2HB
CONST	SEGMENT
?digits10@?$numeric_limits@M@std@@2HB DD 06H		; std::numeric_limits<float>::digits10
CONST	ENDS
;	COMDAT ?digits@?$numeric_limits@M@std@@2HB
CONST	SEGMENT
?digits@?$numeric_limits@M@std@@2HB DD 018H		; std::numeric_limits<float>::digits
CONST	ENDS
;	COMDAT ?digits10@?$numeric_limits@_K@std@@2HB
CONST	SEGMENT
?digits10@?$numeric_limits@_K@std@@2HB DD 013H		; std::numeric_limits<unsigned __int64>::digits10
CONST	ENDS
;	COMDAT ?digits@?$numeric_limits@_K@std@@2HB
CONST	SEGMENT
?digits@?$numeric_limits@_K@std@@2HB DD 040H		; std::numeric_limits<unsigned __int64>::digits
CONST	ENDS
;	COMDAT ?is_signed@?$numeric_limits@_K@std@@2_NB
CONST	SEGMENT
?is_signed@?$numeric_limits@_K@std@@2_NB DB 00H		; std::numeric_limits<unsigned __int64>::is_signed
CONST	ENDS
;	COMDAT ?digits10@?$numeric_limits@_J@std@@2HB
CONST	SEGMENT
?digits10@?$numeric_limits@_J@std@@2HB DD 012H		; std::numeric_limits<__int64>::digits10
CONST	ENDS
;	COMDAT ?digits@?$numeric_limits@_J@std@@2HB
CONST	SEGMENT
?digits@?$numeric_limits@_J@std@@2HB DD 03fH		; std::numeric_limits<__int64>::digits
CONST	ENDS
;	COMDAT ?is_signed@?$numeric_limits@_J@std@@2_NB
CONST	SEGMENT
?is_signed@?$numeric_limits@_J@std@@2_NB DB 01H		; std::numeric_limits<__int64>::is_signed
CONST	ENDS
;	COMDAT ?digits10@?$numeric_limits@K@std@@2HB
CONST	SEGMENT
?digits10@?$numeric_limits@K@std@@2HB DD 09H		; std::numeric_limits<unsigned long>::digits10
CONST	ENDS
;	COMDAT ?digits@?$numeric_limits@K@std@@2HB
CONST	SEGMENT
?digits@?$numeric_limits@K@std@@2HB DD 020H		; std::numeric_limits<unsigned long>::digits
CONST	ENDS
;	COMDAT ?is_signed@?$numeric_limits@K@std@@2_NB
CONST	SEGMENT
?is_signed@?$numeric_limits@K@std@@2_NB DB 00H		; std::numeric_limits<unsigned long>::is_signed
CONST	ENDS
;	COMDAT ?_Stream_err@failure@ios_base@std@@0W4io_errc@43@B
CONST	SEGMENT
?_Stream_err@failure@ios_base@std@@0W4io_errc@43@B DD 01H ; std::ios_base::failure::_Stream_err
CONST	ENDS
;	COMDAT ?digits10@?$numeric_limits@J@std@@2HB
CONST	SEGMENT
?digits10@?$numeric_limits@J@std@@2HB DD 09H		; std::numeric_limits<long>::digits10
CONST	ENDS
;	COMDAT ?digits@?$numeric_limits@J@std@@2HB
CONST	SEGMENT
?digits@?$numeric_limits@J@std@@2HB DD 01fH		; std::numeric_limits<long>::digits
CONST	ENDS
;	COMDAT ?is_signed@?$numeric_limits@J@std@@2_NB
CONST	SEGMENT
?is_signed@?$numeric_limits@J@std@@2_NB DB 01H		; std::numeric_limits<long>::is_signed
CONST	ENDS
;	COMDAT ?end@?$_Iosb@H@std@@2W4_Seekdir@12@B
CONST	SEGMENT
?end@?$_Iosb@H@std@@2W4_Seekdir@12@B DD 02H		; std::_Iosb<int>::end
CONST	ENDS
;	COMDAT ?cur@?$_Iosb@H@std@@2W4_Seekdir@12@B
CONST	SEGMENT
?cur@?$_Iosb@H@std@@2W4_Seekdir@12@B DD 01H		; std::_Iosb<int>::cur
CONST	ENDS
;	COMDAT ?beg@?$_Iosb@H@std@@2W4_Seekdir@12@B
CONST	SEGMENT
?beg@?$_Iosb@H@std@@2W4_Seekdir@12@B DD 00H		; std::_Iosb<int>::beg
CONST	ENDS
_DATA	SEGMENT
_matrix33_ident DD 03f800000r			; 1
	DD	000000000r			; 0
	DD	000000000r			; 0
	DD	000000000r			; 0
	DD	03f800000r			; 1
	DD	000000000r			; 0
	DD	000000000r			; 0
	DD	000000000r			; 0
	DD	03f800000r			; 1
	ORG $+4
_matrix44_ident DD 03f800000r			; 1
	DD	000000000r			; 0
	DD	000000000r			; 0
	DD	000000000r			; 0
	DD	000000000r			; 0
	DD	03f800000r			; 1
	DD	000000000r			; 0
	DD	000000000r			; 0
	DD	000000000r			; 0
	DD	000000000r			; 0
	DD	03f800000r			; 1
	DD	000000000r			; 0
	DD	000000000r			; 0
	DD	000000000r			; 0
	DD	000000000r			; 0
	DD	03f800000r			; 1
_DATA	ENDS
;	COMDAT ?binary@?$_Iosb@H@std@@2W4_Openmode@12@B
CONST	SEGMENT
?binary@?$_Iosb@H@std@@2W4_Openmode@12@B DD 020H	; std::_Iosb<int>::binary
CONST	ENDS
;	COMDAT ?digits10@?$numeric_limits@I@std@@2HB
CONST	SEGMENT
?digits10@?$numeric_limits@I@std@@2HB DD 09H		; std::numeric_limits<unsigned int>::digits10
CONST	ENDS
;	COMDAT ?_Noreplace@?$_Iosb@H@std@@2W4_Openmode@12@B
CONST	SEGMENT
?_Noreplace@?$_Iosb@H@std@@2W4_Openmode@12@B DD 080H	; std::_Iosb<int>::_Noreplace
CONST	ENDS
;	COMDAT ?digits@?$numeric_limits@I@std@@2HB
CONST	SEGMENT
?digits@?$numeric_limits@I@std@@2HB DD 020H		; std::numeric_limits<unsigned int>::digits
CONST	ENDS
;	COMDAT ?_Nocreate@?$_Iosb@H@std@@2W4_Openmode@12@B
CONST	SEGMENT
?_Nocreate@?$_Iosb@H@std@@2W4_Openmode@12@B DD 040H	; std::_Iosb<int>::_Nocreate
CONST	ENDS
;	COMDAT ?trunc@?$_Iosb@H@std@@2W4_Openmode@12@B
CONST	SEGMENT
?trunc@?$_Iosb@H@std@@2W4_Openmode@12@B DD 010H		; std::_Iosb<int>::trunc
CONST	ENDS
;	COMDAT ?is_signed@?$numeric_limits@I@std@@2_NB
CONST	SEGMENT
?is_signed@?$numeric_limits@I@std@@2_NB DB 00H		; std::numeric_limits<unsigned int>::is_signed
CONST	ENDS
;	COMDAT ?app@?$_Iosb@H@std@@2W4_Openmode@12@B
CONST	SEGMENT
?app@?$_Iosb@H@std@@2W4_Openmode@12@B DD 08H		; std::_Iosb<int>::app
CONST	ENDS
;	COMDAT ?ate@?$_Iosb@H@std@@2W4_Openmode@12@B
CONST	SEGMENT
?ate@?$_Iosb@H@std@@2W4_Openmode@12@B DD 04H		; std::_Iosb<int>::ate
CONST	ENDS
;	COMDAT ?out@?$_Iosb@H@std@@2W4_Openmode@12@B
CONST	SEGMENT
?out@?$_Iosb@H@std@@2W4_Openmode@12@B DD 02H		; std::_Iosb<int>::out
CONST	ENDS
;	COMDAT ?in@?$_Iosb@H@std@@2W4_Openmode@12@B
CONST	SEGMENT
?in@?$_Iosb@H@std@@2W4_Openmode@12@B DD 01H		; std::_Iosb<int>::in
CONST	ENDS
;	COMDAT ?_Hardfail@?$_Iosb@H@std@@2W4_Iostate@12@B
CONST	SEGMENT
?_Hardfail@?$_Iosb@H@std@@2W4_Iostate@12@B DD 010H	; std::_Iosb<int>::_Hardfail
CONST	ENDS
;	COMDAT ?badbit@?$_Iosb@H@std@@2W4_Iostate@12@B
CONST	SEGMENT
?badbit@?$_Iosb@H@std@@2W4_Iostate@12@B DD 04H		; std::_Iosb<int>::badbit
CONST	ENDS
;	COMDAT ?failbit@?$_Iosb@H@std@@2W4_Iostate@12@B
CONST	SEGMENT
?failbit@?$_Iosb@H@std@@2W4_Iostate@12@B DD 02H		; std::_Iosb<int>::failbit
CONST	ENDS
;	COMDAT ?eofbit@?$_Iosb@H@std@@2W4_Iostate@12@B
CONST	SEGMENT
?eofbit@?$_Iosb@H@std@@2W4_Iostate@12@B DD 01H		; std::_Iosb<int>::eofbit
CONST	ENDS
;	COMDAT ?goodbit@?$_Iosb@H@std@@2W4_Iostate@12@B
CONST	SEGMENT
?goodbit@?$_Iosb@H@std@@2W4_Iostate@12@B DD 00H		; std::_Iosb<int>::goodbit
CONST	ENDS
;	COMDAT ?digits10@?$numeric_limits@H@std@@2HB
CONST	SEGMENT
?digits10@?$numeric_limits@H@std@@2HB DD 09H		; std::numeric_limits<int>::digits10
CONST	ENDS
;	COMDAT ?digits@?$numeric_limits@H@std@@2HB
CONST	SEGMENT
?digits@?$numeric_limits@H@std@@2HB DD 01fH		; std::numeric_limits<int>::digits
CONST	ENDS
;	COMDAT ?floatfield@?$_Iosb@H@std@@2W4_Fmtflags@12@B
CONST	SEGMENT
?floatfield@?$_Iosb@H@std@@2W4_Fmtflags@12@B DD 03000H	; std::_Iosb<int>::floatfield
CONST	ENDS
;	COMDAT ?basefield@?$_Iosb@H@std@@2W4_Fmtflags@12@B
CONST	SEGMENT
?basefield@?$_Iosb@H@std@@2W4_Fmtflags@12@B DD 0e00H	; std::_Iosb<int>::basefield
CONST	ENDS
;	COMDAT ?value@?$_Sizeof@HU_Nil@std@@U12@U12@U12@U12@U12@U12@@std@@2IB
CONST	SEGMENT
?value@?$_Sizeof@HU_Nil@std@@U12@U12@U12@U12@U12@U12@@std@@2IB DD 01H ; std::_Sizeof<int,std::_Nil,std::_Nil,std::_Nil,std::_Nil,std::_Nil,std::_Nil,std::_Nil>::value
CONST	ENDS
;	COMDAT ?is_signed@?$numeric_limits@H@std@@2_NB
CONST	SEGMENT
?is_signed@?$numeric_limits@H@std@@2_NB DB 01H		; std::numeric_limits<int>::is_signed
CONST	ENDS
;	COMDAT ?adjustfield@?$_Iosb@H@std@@2W4_Fmtflags@12@B
CONST	SEGMENT
?adjustfield@?$_Iosb@H@std@@2W4_Fmtflags@12@B DD 01c0H	; std::_Iosb<int>::adjustfield
CONST	ENDS
;	COMDAT ?_Stdio@?$_Iosb@H@std@@2W4_Fmtflags@12@B
CONST	SEGMENT
?_Stdio@?$_Iosb@H@std@@2W4_Fmtflags@12@B DD 08000H	; std::_Iosb<int>::_Stdio
CONST	ENDS
;	COMDAT ?boolalpha@?$_Iosb@H@std@@2W4_Fmtflags@12@B
CONST	SEGMENT
?boolalpha@?$_Iosb@H@std@@2W4_Fmtflags@12@B DD 04000H	; std::_Iosb<int>::boolalpha
CONST	ENDS
;	COMDAT ?hexfloat@?$_Iosb@H@std@@2W4_Fmtflags@12@B
CONST	SEGMENT
?hexfloat@?$_Iosb@H@std@@2W4_Fmtflags@12@B DD 03000H	; std::_Iosb<int>::hexfloat
CONST	ENDS
;	COMDAT ?fixed@?$_Iosb@H@std@@2W4_Fmtflags@12@B
CONST	SEGMENT
?fixed@?$_Iosb@H@std@@2W4_Fmtflags@12@B DD 02000H	; std::_Iosb<int>::fixed
CONST	ENDS
;	COMDAT ?scientific@?$_Iosb@H@std@@2W4_Fmtflags@12@B
CONST	SEGMENT
?scientific@?$_Iosb@H@std@@2W4_Fmtflags@12@B DD 01000H	; std::_Iosb<int>::scientific
CONST	ENDS
;	COMDAT ?hex@?$_Iosb@H@std@@2W4_Fmtflags@12@B
CONST	SEGMENT
?hex@?$_Iosb@H@std@@2W4_Fmtflags@12@B DD 0800H		; std::_Iosb<int>::hex
CONST	ENDS
;	COMDAT ?oct@?$_Iosb@H@std@@2W4_Fmtflags@12@B
CONST	SEGMENT
?oct@?$_Iosb@H@std@@2W4_Fmtflags@12@B DD 0400H		; std::_Iosb<int>::oct
CONST	ENDS
;	COMDAT ?dec@?$_Iosb@H@std@@2W4_Fmtflags@12@B
CONST	SEGMENT
?dec@?$_Iosb@H@std@@2W4_Fmtflags@12@B DD 0200H		; std::_Iosb<int>::dec
CONST	ENDS
;	COMDAT ?internal@?$_Iosb@H@std@@2W4_Fmtflags@12@B
CONST	SEGMENT
?internal@?$_Iosb@H@std@@2W4_Fmtflags@12@B DD 0100H	; std::_Iosb<int>::internal
CONST	ENDS
;	COMDAT ?digits10@?$numeric_limits@G@std@@2HB
CONST	SEGMENT
?digits10@?$numeric_limits@G@std@@2HB DD 04H		; std::numeric_limits<unsigned short>::digits10
CONST	ENDS
;	COMDAT ?right@?$_Iosb@H@std@@2W4_Fmtflags@12@B
CONST	SEGMENT
?right@?$_Iosb@H@std@@2W4_Fmtflags@12@B DD 080H		; std::_Iosb<int>::right
CONST	ENDS
;	COMDAT ?digits@?$numeric_limits@G@std@@2HB
CONST	SEGMENT
?digits@?$numeric_limits@G@std@@2HB DD 010H		; std::numeric_limits<unsigned short>::digits
CONST	ENDS
;	COMDAT ?left@?$_Iosb@H@std@@2W4_Fmtflags@12@B
CONST	SEGMENT
?left@?$_Iosb@H@std@@2W4_Fmtflags@12@B DD 040H		; std::_Iosb<int>::left
CONST	ENDS
;	COMDAT ?is_signed@?$numeric_limits@G@std@@2_NB
CONST	SEGMENT
?is_signed@?$numeric_limits@G@std@@2_NB DB 00H		; std::numeric_limits<unsigned short>::is_signed
CONST	ENDS
;	COMDAT ?showpos@?$_Iosb@H@std@@2W4_Fmtflags@12@B
CONST	SEGMENT
?showpos@?$_Iosb@H@std@@2W4_Fmtflags@12@B DD 020H	; std::_Iosb<int>::showpos
CONST	ENDS
;	COMDAT ?showpoint@?$_Iosb@H@std@@2W4_Fmtflags@12@B
CONST	SEGMENT
?showpoint@?$_Iosb@H@std@@2W4_Fmtflags@12@B DD 010H	; std::_Iosb<int>::showpoint
CONST	ENDS
;	COMDAT ?showbase@?$_Iosb@H@std@@2W4_Fmtflags@12@B
CONST	SEGMENT
?showbase@?$_Iosb@H@std@@2W4_Fmtflags@12@B DD 08H	; std::_Iosb<int>::showbase
CONST	ENDS
;	COMDAT ?uppercase@?$_Iosb@H@std@@2W4_Fmtflags@12@B
CONST	SEGMENT
?uppercase@?$_Iosb@H@std@@2W4_Fmtflags@12@B DD 04H	; std::_Iosb<int>::uppercase
CONST	ENDS
;	COMDAT ?unitbuf@?$_Iosb@H@std@@2W4_Fmtflags@12@B
CONST	SEGMENT
?unitbuf@?$_Iosb@H@std@@2W4_Fmtflags@12@B DD 02H	; std::_Iosb<int>::unitbuf
CONST	ENDS
;	COMDAT ?skipws@?$_Iosb@H@std@@2W4_Fmtflags@12@B
CONST	SEGMENT
?skipws@?$_Iosb@H@std@@2W4_Fmtflags@12@B DD 01H		; std::_Iosb<int>::skipws
CONST	ENDS
;	COMDAT ?digits10@?$numeric_limits@F@std@@2HB
CONST	SEGMENT
?digits10@?$numeric_limits@F@std@@2HB DD 04H		; std::numeric_limits<short>::digits10
CONST	ENDS
;	COMDAT ?digits@?$numeric_limits@F@std@@2HB
CONST	SEGMENT
?digits@?$numeric_limits@F@std@@2HB DD 0fH		; std::numeric_limits<short>::digits
CONST	ENDS
;	COMDAT ?is_signed@?$numeric_limits@F@std@@2_NB
CONST	SEGMENT
?is_signed@?$numeric_limits@F@std@@2_NB DB 01H		; std::numeric_limits<short>::is_signed
CONST	ENDS
;	COMDAT ?value@?$integral_constant@_N$00@std@@2_NB
CONST	SEGMENT
?value@?$integral_constant@_N$00@std@@2_NB DB 01H	; std::integral_constant<bool,1>::value
CONST	ENDS
;	COMDAT ?digits10@?$numeric_limits@E@std@@2HB
CONST	SEGMENT
?digits10@?$numeric_limits@E@std@@2HB DD 02H		; std::numeric_limits<unsigned char>::digits10
CONST	ENDS
;	COMDAT ?digits@?$numeric_limits@E@std@@2HB
CONST	SEGMENT
?digits@?$numeric_limits@E@std@@2HB DD 08H		; std::numeric_limits<unsigned char>::digits
CONST	ENDS
;	COMDAT ?value@?$integral_constant@_N$0A@@std@@2_NB
CONST	SEGMENT
?value@?$integral_constant@_N$0A@@std@@2_NB DB 00H	; std::integral_constant<bool,0>::value
CONST	ENDS
;	COMDAT ?is_signed@?$numeric_limits@E@std@@2_NB
CONST	SEGMENT
?is_signed@?$numeric_limits@E@std@@2_NB DB 00H		; std::numeric_limits<unsigned char>::is_signed
CONST	ENDS
;	COMDAT ?digits10@?$numeric_limits@C@std@@2HB
CONST	SEGMENT
?digits10@?$numeric_limits@C@std@@2HB DD 02H		; std::numeric_limits<signed char>::digits10
CONST	ENDS
;	COMDAT ?digits@?$numeric_limits@C@std@@2HB
CONST	SEGMENT
?digits@?$numeric_limits@C@std@@2HB DD 07H		; std::numeric_limits<signed char>::digits
CONST	ENDS
;	COMDAT ?is_signed@?$numeric_limits@C@std@@2_NB
CONST	SEGMENT
?is_signed@?$numeric_limits@C@std@@2_NB DB 01H		; std::numeric_limits<signed char>::is_signed
CONST	ENDS
CONST	SEGMENT
_L_2	DD	03f317218r			; 0.693147
CONST	ENDS
;	COMDAT ?digits10@?$numeric_limits@_N@std@@2HB
CONST	SEGMENT
?digits10@?$numeric_limits@_N@std@@2HB DD 00H		; std::numeric_limits<bool>::digits10
CONST	ENDS
;	COMDAT ?digits@?$numeric_limits@_N@std@@2HB
CONST	SEGMENT
?digits@?$numeric_limits@_N@std@@2HB DD 01H		; std::numeric_limits<bool>::digits
CONST	ENDS
;	COMDAT ?is_signed@?$numeric_limits@_N@std@@2_NB
CONST	SEGMENT
?is_signed@?$numeric_limits@_N@std@@2_NB DB 00H		; std::numeric_limits<bool>::is_signed
CONST	ENDS
;	COMDAT ?is_modulo@?$numeric_limits@_N@std@@2_NB
CONST	SEGMENT
?is_modulo@?$numeric_limits@_N@std@@2_NB DB 00H		; std::numeric_limits<bool>::is_modulo
CONST	ENDS
;	COMDAT ?digits10@?$numeric_limits@_W@std@@2HB
CONST	SEGMENT
?digits10@?$numeric_limits@_W@std@@2HB DD 04H		; std::numeric_limits<wchar_t>::digits10
CONST	ENDS
;	COMDAT ?digits@?$numeric_limits@_W@std@@2HB
CONST	SEGMENT
?digits@?$numeric_limits@_W@std@@2HB DD 010H		; std::numeric_limits<wchar_t>::digits
CONST	ENDS
;	COMDAT ?is_signed@?$numeric_limits@_W@std@@2_NB
CONST	SEGMENT
?is_signed@?$numeric_limits@_W@std@@2_NB DB 00H		; std::numeric_limits<wchar_t>::is_signed
CONST	ENDS
;	COMDAT ?digits10@?$numeric_limits@D@std@@2HB
CONST	SEGMENT
?digits10@?$numeric_limits@D@std@@2HB DD 02H		; std::numeric_limits<char>::digits10
CONST	ENDS
;	COMDAT ?digits@?$numeric_limits@D@std@@2HB
CONST	SEGMENT
?digits@?$numeric_limits@D@std@@2HB DD 07H		; std::numeric_limits<char>::digits
CONST	ENDS
;	COMDAT ?is_signed@?$numeric_limits@D@std@@2_NB
CONST	SEGMENT
?is_signed@?$numeric_limits@D@std@@2_NB DB 01H		; std::numeric_limits<char>::is_signed
CONST	ENDS
;	COMDAT ?radix@_Num_float_base@std@@2HB
CONST	SEGMENT
?radix@_Num_float_base@std@@2HB DD 02H			; std::_Num_float_base::radix
CONST	ENDS
;	COMDAT ?round_style@_Num_float_base@std@@2W4float_round_style@2@B
CONST	SEGMENT
?round_style@_Num_float_base@std@@2W4float_round_style@2@B DD 01H ; std::_Num_float_base::round_style
CONST	ENDS
;	COMDAT ?traps@_Num_float_base@std@@2_NB
CONST	SEGMENT
?traps@_Num_float_base@std@@2_NB DB 00H			; std::_Num_float_base::traps
CONST	ENDS
;	COMDAT ?tinyness_before@_Num_float_base@std@@2_NB
CONST	SEGMENT
?tinyness_before@_Num_float_base@std@@2_NB DB 01H	; std::_Num_float_base::tinyness_before
CONST	ENDS
;	COMDAT ?is_specialized@_Num_float_base@std@@2_NB
CONST	SEGMENT
?is_specialized@_Num_float_base@std@@2_NB DB 01H	; std::_Num_float_base::is_specialized
CONST	ENDS
;	COMDAT ?is_signed@_Num_float_base@std@@2_NB
CONST	SEGMENT
?is_signed@_Num_float_base@std@@2_NB DB 01H		; std::_Num_float_base::is_signed
CONST	ENDS
;	COMDAT ?is_modulo@_Num_float_base@std@@2_NB
CONST	SEGMENT
?is_modulo@_Num_float_base@std@@2_NB DB 00H		; std::_Num_float_base::is_modulo
CONST	ENDS
;	COMDAT ?is_integer@_Num_float_base@std@@2_NB
CONST	SEGMENT
?is_integer@_Num_float_base@std@@2_NB DB 00H		; std::_Num_float_base::is_integer
CONST	ENDS
;	COMDAT ?is_iec559@_Num_float_base@std@@2_NB
CONST	SEGMENT
?is_iec559@_Num_float_base@std@@2_NB DB 01H		; std::_Num_float_base::is_iec559
CONST	ENDS
;	COMDAT ?is_exact@_Num_float_base@std@@2_NB
CONST	SEGMENT
?is_exact@_Num_float_base@std@@2_NB DB 00H		; std::_Num_float_base::is_exact
CONST	ENDS
;	COMDAT ?is_bounded@_Num_float_base@std@@2_NB
CONST	SEGMENT
?is_bounded@_Num_float_base@std@@2_NB DB 01H		; std::_Num_float_base::is_bounded
CONST	ENDS
;	COMDAT ?has_signaling_NaN@_Num_float_base@std@@2_NB
CONST	SEGMENT
?has_signaling_NaN@_Num_float_base@std@@2_NB DB 01H	; std::_Num_float_base::has_signaling_NaN
CONST	ENDS
;	COMDAT ?has_quiet_NaN@_Num_float_base@std@@2_NB
CONST	SEGMENT
?has_quiet_NaN@_Num_float_base@std@@2_NB DB 01H		; std::_Num_float_base::has_quiet_NaN
CONST	ENDS
;	COMDAT ?has_infinity@_Num_float_base@std@@2_NB
CONST	SEGMENT
?has_infinity@_Num_float_base@std@@2_NB DB 01H		; std::_Num_float_base::has_infinity
CONST	ENDS
;	COMDAT ?CMPDIRTYDATA_INTERVAL@FalconEntity@@2KB
CONST	SEGMENT
?CMPDIRTYDATA_INTERVAL@FalconEntity@@2KB DD 0c8H	; FalconEntity::CMPDIRTYDATA_INTERVAL
CONST	ENDS
;	COMDAT ?SIMDIRTYDATA_INTERVAL@FalconEntity@@2KB
CONST	SEGMENT
?SIMDIRTYDATA_INTERVAL@FalconEntity@@2KB DD 0c8H	; FalconEntity::SIMDIRTYDATA_INTERVAL
CONST	ENDS
;	COMDAT ?has_denorm_loss@_Num_float_base@std@@2_NB
CONST	SEGMENT
?has_denorm_loss@_Num_float_base@std@@2_NB DB 01H	; std::_Num_float_base::has_denorm_loss
CONST	ENDS
;	COMDAT ?has_denorm@_Num_float_base@std@@2W4float_denorm_style@2@B
CONST	SEGMENT
?has_denorm@_Num_float_base@std@@2W4float_denorm_style@2@B DD 01H ; std::_Num_float_base::has_denorm
CONST	ENDS
;	COMDAT ?radix@_Num_int_base@std@@2HB
CONST	SEGMENT
?radix@_Num_int_base@std@@2HB DD 02H			; std::_Num_int_base::radix
CONST	ENDS
;	COMDAT ?is_specialized@_Num_int_base@std@@2_NB
CONST	SEGMENT
?is_specialized@_Num_int_base@std@@2_NB DB 01H		; std::_Num_int_base::is_specialized
CONST	ENDS
;	COMDAT ?is_modulo@_Num_int_base@std@@2_NB
CONST	SEGMENT
?is_modulo@_Num_int_base@std@@2_NB DB 01H		; std::_Num_int_base::is_modulo
CONST	ENDS
;	COMDAT ?is_integer@_Num_int_base@std@@2_NB
CONST	SEGMENT
?is_integer@_Num_int_base@std@@2_NB DB 01H		; std::_Num_int_base::is_integer
CONST	ENDS
;	COMDAT ?is_exact@_Num_int_base@std@@2_NB
CONST	SEGMENT
?is_exact@_Num_int_base@std@@2_NB DB 01H		; std::_Num_int_base::is_exact
CONST	ENDS
;	COMDAT ?is_bounded@_Num_int_base@std@@2_NB
CONST	SEGMENT
?is_bounded@_Num_int_base@std@@2_NB DB 01H		; std::_Num_int_base::is_bounded
CONST	ENDS
;	COMDAT ?radix@_Num_base@std@@2HB
CONST	SEGMENT
?radix@_Num_base@std@@2HB DD 00H			; std::_Num_base::radix
CONST	ENDS
;	COMDAT ?min_exponent10@_Num_base@std@@2HB
CONST	SEGMENT
?min_exponent10@_Num_base@std@@2HB DD 00H		; std::_Num_base::min_exponent10
CONST	ENDS
;	COMDAT ?min_exponent@_Num_base@std@@2HB
CONST	SEGMENT
?min_exponent@_Num_base@std@@2HB DD 00H			; std::_Num_base::min_exponent
CONST	ENDS
;	COMDAT ?max_exponent10@_Num_base@std@@2HB
CONST	SEGMENT
?max_exponent10@_Num_base@std@@2HB DD 00H		; std::_Num_base::max_exponent10
CONST	ENDS
;	COMDAT ?max_exponent@_Num_base@std@@2HB
CONST	SEGMENT
?max_exponent@_Num_base@std@@2HB DD 00H			; std::_Num_base::max_exponent
CONST	ENDS
;	COMDAT ?max_digits10@_Num_base@std@@2HB
CONST	SEGMENT
?max_digits10@_Num_base@std@@2HB DD 00H			; std::_Num_base::max_digits10
CONST	ENDS
;	COMDAT ?digits10@_Num_base@std@@2HB
CONST	SEGMENT
?digits10@_Num_base@std@@2HB DD 00H			; std::_Num_base::digits10
CONST	ENDS
;	COMDAT ?digits@_Num_base@std@@2HB
CONST	SEGMENT
?digits@_Num_base@std@@2HB DD 00H			; std::_Num_base::digits
CONST	ENDS
;	COMDAT ?round_style@_Num_base@std@@2W4float_round_style@2@B
CONST	SEGMENT
?round_style@_Num_base@std@@2W4float_round_style@2@B DD 00H ; std::_Num_base::round_style
CONST	ENDS
;	COMDAT ?traps@_Num_base@std@@2_NB
CONST	SEGMENT
?traps@_Num_base@std@@2_NB DB 00H			; std::_Num_base::traps
CONST	ENDS
PUBLIC	??8VU_SESSION_ID@@QBEHABV0@@Z			; VU_SESSION_ID::operator==
PUBLIC	??8VU_ID@@QBE_NABV0@@Z				; VU_ID::operator==
PUBLIC	??9VU_ID@@QBE_NABV0@@Z				; VU_ID::operator!=
PUBLIC	?VuState@VuEntity@@QBE?AW4VU_MEM@@XZ		; VuEntity::VuState
PUBLIC	?XPos@VuEntity@@QBEMXZ				; VuEntity::XPos
PUBLIC	?YPos@VuEntity@@QBEMXZ				; VuEntity::YPos
PUBLIC	??2@YAPAXIPAX@Z					; operator new
PUBLIC	??3@YAXPAX0@Z					; operator delete
PUBLIC	?length@?$char_traits@D@std@@SAIPBD@Z		; std::char_traits<char>::length
PUBLIC	?copy@?$char_traits@D@std@@SAPADPADPBDI@Z	; std::char_traits<char>::copy
PUBLIC	?move@?$char_traits@D@std@@SAPADPADPBDI@Z	; std::char_traits<char>::move
PUBLIC	?assign@?$char_traits@D@std@@SAXAADABD@Z	; std::char_traits<char>::assign
PUBLIC	??0?$allocator@D@std@@QAE@XZ			; std::allocator<char>::allocator<char>
PUBLIC	?deallocate@?$allocator@D@std@@QAEXPADI@Z	; std::allocator<char>::deallocate
PUBLIC	?allocate@?$allocator@D@std@@QAEPADI@Z		; std::allocator<char>::allocate
PUBLIC	?max_size@?$allocator@D@std@@QBEIXZ		; std::allocator<char>::max_size
PUBLIC	?max_size@?$allocator_traits@V?$allocator@D@std@@@std@@SAIABV?$allocator@D@2@@Z ; std::allocator_traits<std::allocator<char> >::max_size
PUBLIC	??0?$_Wrap_alloc@V?$allocator@D@std@@@std@@QAE@XZ ; std::_Wrap_alloc<std::allocator<char> >::_Wrap_alloc<std::allocator<char> >
PUBLIC	?allocate@?$_Wrap_alloc@V?$allocator@D@std@@@std@@QAEPADI@Z ; std::_Wrap_alloc<std::allocator<char> >::allocate
PUBLIC	?deallocate@?$_Wrap_alloc@V?$allocator@D@std@@@std@@QAEXPADI@Z ; std::_Wrap_alloc<std::allocator<char> >::deallocate
PUBLIC	?max_size@?$_Wrap_alloc@V?$allocator@D@std@@@std@@QBEIXZ ; std::_Wrap_alloc<std::allocator<char> >::max_size
PUBLIC	??0?$_String_val@U?$_Simple_types@D@std@@@std@@QAE@XZ ; std::_String_val<std::_Simple_types<char> >::_String_val<std::_Simple_types<char> >
PUBLIC	?_Myptr@?$_String_val@U?$_Simple_types@D@std@@@std@@QAEPADXZ ; std::_String_val<std::_Simple_types<char> >::_Myptr
PUBLIC	?_Myptr@?$_String_val@U?$_Simple_types@D@std@@@std@@QBEPBDXZ ; std::_String_val<std::_Simple_types<char> >::_Myptr
PUBLIC	??0?$_String_alloc@$0A@U?$_String_base_types@DV?$allocator@D@std@@@std@@@std@@QAE@ABV?$allocator@D@1@@Z ; std::_String_alloc<0,std::_String_base_types<char,std::allocator<char> > >::_String_alloc<0,std::_String_base_types<char,std::allocator<char> > >
PUBLIC	?_Getal@?$_String_alloc@$0A@U?$_String_base_types@DV?$allocator@D@std@@@std@@@std@@QBE?AU?$_Wrap_alloc@V?$allocator@D@std@@@2@XZ ; std::_String_alloc<0,std::_String_base_types<char,std::allocator<char> > >::_Getal
PUBLIC	??0?$basic_string@DU?$char_traits@D@std@@V?$allocator@D@2@@std@@QAE@PBD@Z ; std::basic_string<char,std::char_traits<char>,std::allocator<char> >::basic_string<char,std::char_traits<char>,std::allocator<char> >
PUBLIC	?assign@?$basic_string@DU?$char_traits@D@std@@V?$allocator@D@2@@std@@QAEAAV12@ABV12@II@Z ; std::basic_string<char,std::char_traits<char>,std::allocator<char> >::assign
PUBLIC	?assign@?$basic_string@DU?$char_traits@D@std@@V?$allocator@D@2@@std@@QAEAAV12@PBDI@Z ; std::basic_string<char,std::char_traits<char>,std::allocator<char> >::assign
PUBLIC	?assign@?$basic_string@DU?$char_traits@D@std@@V?$allocator@D@2@@std@@QAEAAV12@PBD@Z ; std::basic_string<char,std::char_traits<char>,std::allocator<char> >::assign
PUBLIC	?erase@?$basic_string@DU?$char_traits@D@std@@V?$allocator@D@2@@std@@QAEAAV12@I@Z ; std::basic_string<char,std::char_traits<char>,std::allocator<char> >::erase
PUBLIC	?erase@?$basic_string@DU?$char_traits@D@std@@V?$allocator@D@2@@std@@QAEAAV12@II@Z ; std::basic_string<char,std::char_traits<char>,std::allocator<char> >::erase
PUBLIC	?size@?$basic_string@DU?$char_traits@D@std@@V?$allocator@D@2@@std@@QBEIXZ ; std::basic_string<char,std::char_traits<char>,std::allocator<char> >::size
PUBLIC	?max_size@?$basic_string@DU?$char_traits@D@std@@V?$allocator@D@2@@std@@QBEIXZ ; std::basic_string<char,std::char_traits<char>,std::allocator<char> >::max_size
PUBLIC	?_Copy@?$basic_string@DU?$char_traits@D@std@@V?$allocator@D@2@@std@@QAEXII@Z ; std::basic_string<char,std::char_traits<char>,std::allocator<char> >::_Copy
PUBLIC	?_Eos@?$basic_string@DU?$char_traits@D@std@@V?$allocator@D@2@@std@@QAEXI@Z ; std::basic_string<char,std::char_traits<char>,std::allocator<char> >::_Eos
PUBLIC	?_Grow@?$basic_string@DU?$char_traits@D@std@@V?$allocator@D@2@@std@@QAE_NI_N@Z ; std::basic_string<char,std::char_traits<char>,std::allocator<char> >::_Grow
PUBLIC	?_Inside@?$basic_string@DU?$char_traits@D@std@@V?$allocator@D@2@@std@@QAE_NPBD@Z ; std::basic_string<char,std::char_traits<char>,std::allocator<char> >::_Inside
PUBLIC	?_Tidy@?$basic_string@DU?$char_traits@D@std@@V?$allocator@D@2@@std@@QAEX_NI@Z ; std::basic_string<char,std::char_traits<char>,std::allocator<char> >::_Tidy
PUBLIC	?_Xlen@?$basic_string@DU?$char_traits@D@std@@V?$allocator@D@2@@std@@QBEXXZ ; std::basic_string<char,std::char_traits<char>,std::allocator<char> >::_Xlen
PUBLIC	?_Xran@?$basic_string@DU?$char_traits@D@std@@V?$allocator@D@2@@std@@QBEXXZ ; std::basic_string<char,std::char_traits<char>,std::allocator<char> >::_Xran
PUBLIC	?IsCampaign@FalconEntity@@QAEHXZ		; FalconEntity::IsCampaign
PUBLIC	?IsSim@FalconEntity@@QAEHXZ			; FalconEntity::IsSim
PUBLIC	?DoTargeting@DigitalBrain@@IAEXXZ		; DigitalBrain::DoTargeting
PUBLIC	?InsertIntoTargetList@DigitalBrain@@IAEPAVSimObjectType@@PAV2@0@Z ; DigitalBrain::InsertIntoTargetList
PUBLIC	?TargetSelection@DigitalBrain@@IAEXXZ		; DigitalBrain::TargetSelection
PUBLIC	?CampTargetSelection@DigitalBrain@@IAEPAVFalconEntity@@XZ ; DigitalBrain::CampTargetSelection
PUBLIC	?IsSetATC@DigitalBrain@@QAEHH@Z			; DigitalBrain::IsSetATC
PUBLIC	?get@?$VuBin@VCampBaseClass@@@@QBEPAVCampBaseClass@@XZ ; VuBin<CampBaseClass>::get
PUBLIC	?IsAwake@SimBaseClass@@QBEHXZ			; SimBaseClass::IsAwake
PUBLIC	?IsSetFlag@SimBaseClass@@QBEHH@Z		; SimBaseClass::IsSetFlag
PUBLIC	?GetCampaignObject@SimBaseClass@@QAEPAVCampBaseClass@@XZ ; SimBaseClass::GetCampaignObject
PUBLIC	?get@?$VuBin@VFalconEntity@@@@QBEPAVFalconEntity@@XZ ; VuBin<FalconEntity>::get
PUBLIC	?IsAcStatusBitsSet@AircraftClass@@QBE_NH@Z	; AircraftClass::IsAcStatusBitsSet
PUBLIC	?GetComponents@CampBaseClass@@QBEPAVTailInsertList@@XZ ; CampBaseClass::GetComponents
PUBLIC	?IsAggregate@CampBaseClass@@QAEHXZ		; CampBaseClass::IsAggregate
PUBLIC	?UnsetChecked@CampBaseClass@@QAEXXZ		; CampBaseClass::UnsetChecked
PUBLIC	?GetTarget@UnitClass@@QAEPAVFalconEntity@@XZ	; UnitClass::GetTarget
PUBLIC	?GetUnitTactic@UnitClass@@QBEHXZ		; UnitClass::GetUnitTactic
PUBLIC	?Type@SensorClass@@QAE?AW4SensorType@1@XZ	; SensorClass::Type
PUBLIC	?BaseData@SimObjectType@@QAEPAVFalconEntity@@XZ	; SimObjectType::BaseData
PUBLIC	??0id@locale@std@@QAE@I@Z			; std::locale::id::id
PUBLIC	?generic_category@std@@YAABVerror_category@1@XZ	; std::generic_category
PUBLIC	?system_category@std@@YAABVerror_category@1@XZ	; std::system_category
PUBLIC	??0error_category@std@@QAE@XZ			; std::error_category::error_category
PUBLIC	??1error_category@std@@UAE@XZ			; std::error_category::~error_category
PUBLIC	?default_error_condition@error_category@std@@UBE?AVerror_condition@2@H@Z ; std::error_category::default_error_condition
PUBLIC	?equivalent@error_category@std@@UBE_NHABVerror_condition@2@@Z ; std::error_category::equivalent
PUBLIC	?equivalent@error_category@std@@UBE_NABVerror_code@2@H@Z ; std::error_category::equivalent
PUBLIC	??8error_category@std@@QBE_NABV01@@Z		; std::error_category::operator==
PUBLIC	??_Gerror_category@std@@UAEPAXI@Z		; std::error_category::`scalar deleting destructor'
PUBLIC	?value@error_code@std@@QBEHXZ			; std::error_code::value
PUBLIC	?category@error_code@std@@QBEABVerror_category@2@XZ ; std::error_code::category
PUBLIC	??0error_condition@std@@QAE@HABVerror_category@1@@Z ; std::error_condition::error_condition
PUBLIC	?value@error_condition@std@@QBEHXZ		; std::error_condition::value
PUBLIC	?category@error_condition@std@@QBEABVerror_category@2@XZ ; std::error_condition::category
PUBLIC	??8error_condition@std@@QBE_NABV01@@Z		; std::error_condition::operator==
PUBLIC	??0_Generic_error_category@std@@QAE@XZ		; std::_Generic_error_category::_Generic_error_category
PUBLIC	?name@_Generic_error_category@std@@UBEPBDXZ	; std::_Generic_error_category::name
PUBLIC	?message@_Generic_error_category@std@@UBE?AV?$basic_string@DU?$char_traits@D@std@@V?$allocator@D@2@@2@H@Z ; std::_Generic_error_category::message
PUBLIC	??1_Generic_error_category@std@@UAE@XZ		; std::_Generic_error_category::~_Generic_error_category
PUBLIC	??_G_Generic_error_category@std@@UAEPAXI@Z	; std::_Generic_error_category::`scalar deleting destructor'
PUBLIC	??0_Iostream_error_category@std@@QAE@XZ		; std::_Iostream_error_category::_Iostream_error_category
PUBLIC	?name@_Iostream_error_category@std@@UBEPBDXZ	; std::_Iostream_error_category::name
PUBLIC	?message@_Iostream_error_category@std@@UBE?AV?$basic_string@DU?$char_traits@D@std@@V?$allocator@D@2@@2@H@Z ; std::_Iostream_error_category::message
PUBLIC	??1_Iostream_error_category@std@@UAE@XZ		; std::_Iostream_error_category::~_Iostream_error_category
PUBLIC	??_G_Iostream_error_category@std@@UAEPAXI@Z	; std::_Iostream_error_category::`scalar deleting destructor'
PUBLIC	??0_System_error_category@std@@QAE@XZ		; std::_System_error_category::_System_error_category
PUBLIC	?name@_System_error_category@std@@UBEPBDXZ	; std::_System_error_category::name
PUBLIC	?message@_System_error_category@std@@UBE?AV?$basic_string@DU?$char_traits@D@std@@V?$allocator@D@2@@2@H@Z ; std::_System_error_category::message
PUBLIC	?default_error_condition@_System_error_category@std@@UBE?AVerror_condition@2@H@Z ; std::_System_error_category::default_error_condition
PUBLIC	??1_System_error_category@std@@UAE@XZ		; std::_System_error_category::~_System_error_category
PUBLIC	??_G_System_error_category@std@@UAEPAXI@Z	; std::_System_error_category::`scalar deleting destructor'
PUBLIC	?MakeSimListFromVuList@@YAPAVSimObjectType@@PAVAircraftClass@@PAV1@PAVVuLinkedList@@@Z ; MakeSimListFromVuList
PUBLIC	??$construct@PADAAPAD@?$_Wrap_alloc@V?$allocator@D@std@@@std@@QAEXPAPADAAPAD@Z ; std::_Wrap_alloc<std::allocator<char> >::construct<char *,char * &>
PUBLIC	??$destroy@PAD@?$_Wrap_alloc@V?$allocator@D@std@@@std@@QAEXPAPAD@Z ; std::_Wrap_alloc<std::allocator<char> >::destroy<char *>
PUBLIC	??$addressof@D@std@@YAPADAAD@Z			; std::addressof<char>
PUBLIC	??$_Allocate@D@std@@YAPADIPAD@Z			; std::_Allocate<char>
PUBLIC	??$forward@AAPAD@std@@YAAAPADAAPAD@Z		; std::forward<char * &>
PUBLIC	??$construct@PADAAPAD@?$allocator_traits@V?$allocator@D@std@@@std@@SAXAAV?$allocator@D@1@PAPADAAPAD@Z ; std::allocator_traits<std::allocator<char> >::construct<char *,char * &>
PUBLIC	??$destroy@PAD@?$allocator_traits@V?$allocator@D@std@@@std@@SAXAAV?$allocator@D@1@PAPAD@Z ; std::allocator_traits<std::allocator<char> >::destroy<char *>
PUBLIC	??$construct@PADAAPAD@?$allocator@D@std@@QAEXPAPADAAPAD@Z ; std::allocator<char>::construct<char *,char * &>
PUBLIC	??$destroy@PAD@?$allocator@D@std@@QAEXPAPAD@Z	; std::allocator<char>::destroy<char *>
PUBLIC	??_7error_category@std@@6B@			; std::error_category::`vftable'
PUBLIC	??_7_Generic_error_category@std@@6B@		; std::_Generic_error_category::`vftable'
PUBLIC	??_C@_07DCLBNMLN@generic?$AA@			; `string'
PUBLIC	??_C@_0O@BFJCFAAK@unknown?5error?$AA@		; `string'
PUBLIC	??_7_Iostream_error_category@std@@6B@		; std::_Iostream_error_category::`vftable'
PUBLIC	??_C@_08LLGCOLLL@iostream?$AA@			; `string'
PUBLIC	??_C@_0BG@PADBLCHM@iostream?5stream?5error?$AA@	; `string'
PUBLIC	??_7_System_error_category@std@@6B@		; std::_System_error_category::`vftable'
PUBLIC	??_C@_06FHFOAHML@system?$AA@			; `string'
PUBLIC	?_Generic_object@?$_Error_objects@H@std@@2V_Generic_error_category@2@A ; std::_Error_objects<int>::_Generic_object
PUBLIC	?_Iostream_object@?$_Error_objects@H@std@@2V_Iostream_error_category@2@A ; std::_Error_objects<int>::_Iostream_object
PUBLIC	?_System_object@?$_Error_objects@H@std@@2V_System_error_category@2@A ; std::_Error_objects<int>::_System_object
PUBLIC	?id@?$num_put@DV?$back_insert_iterator@V?$basic_string@DU?$char_traits@D@std@@V?$allocator@D@2@@std@@@std@@@std@@2V0locale@2@A ; std::num_put<char,std::back_insert_iterator<std::basic_string<char,std::char_traits<char>,std::allocator<char> > > >::id
PUBLIC	?id@?$num_put@_WV?$back_insert_iterator@V?$basic_string@_WU?$char_traits@_W@std@@V?$allocator@_W@2@@std@@@std@@@std@@2V0locale@2@A ; std::num_put<wchar_t,std::back_insert_iterator<std::basic_string<wchar_t,std::char_traits<wchar_t>,std::allocator<wchar_t> > > >::id
PUBLIC	?id@?$numpunct@D@std@@2V0locale@2@A		; std::numpunct<char>::id
PUBLIC	?id@?$numpunct@_W@std@@2V0locale@2@A		; std::numpunct<wchar_t>::id
PUBLIC	??_C@_0BI@CFPLBAOH@invalid?5string?5position?$AA@ ; `string'
PUBLIC	??_C@_0BA@JFNIOLAK@string?5too?5long?$AA@	; `string'
PUBLIC	??_R4error_category@std@@6B@			; std::error_category::`RTTI Complete Object Locator'
PUBLIC	??_R0?AVerror_category@std@@@8			; std::error_category `RTTI Type Descriptor'
PUBLIC	??_R3error_category@std@@8			; std::error_category::`RTTI Class Hierarchy Descriptor'
PUBLIC	??_R2error_category@std@@8			; std::error_category::`RTTI Base Class Array'
PUBLIC	??_R1A@?0A@EA@error_category@std@@8		; std::error_category::`RTTI Base Class Descriptor at (0,-1,0,64)'
PUBLIC	??_R4_Generic_error_category@std@@6B@		; std::_Generic_error_category::`RTTI Complete Object Locator'
PUBLIC	??_R0?AV_Generic_error_category@std@@@8		; std::_Generic_error_category `RTTI Type Descriptor'
PUBLIC	??_R3_Generic_error_category@std@@8		; std::_Generic_error_category::`RTTI Class Hierarchy Descriptor'
PUBLIC	??_R2_Generic_error_category@std@@8		; std::_Generic_error_category::`RTTI Base Class Array'
PUBLIC	??_R1A@?0A@EA@_Generic_error_category@std@@8	; std::_Generic_error_category::`RTTI Base Class Descriptor at (0,-1,0,64)'
PUBLIC	??_R4_Iostream_error_category@std@@6B@		; std::_Iostream_error_category::`RTTI Complete Object Locator'
PUBLIC	??_R0?AV_Iostream_error_category@std@@@8	; std::_Iostream_error_category `RTTI Type Descriptor'
PUBLIC	??_R3_Iostream_error_category@std@@8		; std::_Iostream_error_category::`RTTI Class Hierarchy Descriptor'
PUBLIC	??_R2_Iostream_error_category@std@@8		; std::_Iostream_error_category::`RTTI Base Class Array'
PUBLIC	??_R1A@?0A@EA@_Iostream_error_category@std@@8	; std::_Iostream_error_category::`RTTI Base Class Descriptor at (0,-1,0,64)'
PUBLIC	??_R4_System_error_category@std@@6B@		; std::_System_error_category::`RTTI Complete Object Locator'
PUBLIC	??_R0?AV_System_error_category@std@@@8		; std::_System_error_category `RTTI Type Descriptor'
PUBLIC	??_R3_System_error_category@std@@8		; std::_System_error_category::`RTTI Class Hierarchy Descriptor'
PUBLIC	??_R2_System_error_category@std@@8		; std::_System_error_category::`RTTI Base Class Array'
PUBLIC	??_R1A@?0A@EA@_System_error_category@std@@8	; std::_System_error_category::`RTTI Base Class Descriptor at (0,-1,0,64)'
PUBLIC	__real@00000000
PUBLIC	__real@3f800000
PUBLIC	__real@40490fd9
PUBLIC	__real@476a6000
PUBLIC	__real@48b20395
PUBLIC	__real@7f7fffff
PUBLIC	__xmm@41f00000000000000000000000000000
EXTRN	__purecall:PROC
EXTRN	??2@YAPAXI@Z:PROC				; operator new
EXTRN	??3@YAXPAX@Z:PROC				; operator delete
EXTRN	_atexit:PROC
EXTRN	_memcpy:PROC
EXTRN	_strlen:PROC
EXTRN	_memmove:PROC
EXTRN	?_Xbad_alloc@std@@YAXXZ:PROC			; std::_Xbad_alloc
EXTRN	?_Xlength_error@std@@YAXPBD@Z:PROC		; std::_Xlength_error
EXTRN	?_Xout_of_range@std@@YAXPBD@Z:PROC		; std::_Xout_of_range
EXTRN	?Find@VuDatabase@@QBEPAVVuEntity@@VVU_ID@@@Z:PROC ; VuDatabase::Find
EXTRN	??0VuListIterator@@QAE@PAVVuLinkedList@@@Z:PROC	; VuListIterator::VuListIterator
EXTRN	??1VuListIterator@@UAE@XZ:PROC			; VuListIterator::~VuListIterator
EXTRN	?GetFirst@VuListIterator@@QAEPAVVuEntity@@XZ:PROC ; VuListIterator::GetFirst
EXTRN	?GetNext@VuListIterator@@QAEPAVVuEntity@@XZ:PROC ; VuListIterator::GetNext
EXTRN	?ClearTarget@BaseBrain@@QAEXXZ:PROC		; BaseBrain::ClearTarget
EXTRN	?CalcRelGeom@@YAXPAVSimBaseClass@@PAVSimObjectType@@QAY02MM@Z:PROC ; CalcRelGeom
EXTRN	?SimCompare@@YAHPAVVuEntity@@0@Z:PROC		; SimCompare
EXTRN	?AddMode@DigitalBrain@@IAEXW4DigiMode@1@@Z:PROC	; DigitalBrain::AddMode
EXTRN	?SetGroundTarget@DigitalBrain@@IAEXPAVFalconEntity@@@Z:PROC ; DigitalBrain::SetGroundTarget
EXTRN	?SelectGroundWeapon@DigitalBrain@@IAEXXZ:PROC	; DigitalBrain::SelectGroundWeapon
EXTRN	?SetupAGMode@DigitalBrain@@IAEXPAVWayPointClass@@0@Z:PROC ; DigitalBrain::SetupAGMode
EXTRN	?FuelCheck@DigitalBrain@@IAEXXZ:PROC		; DigitalBrain::FuelCheck
EXTRN	?IPCheck@DigitalBrain@@IAEXXZ:PROC		; DigitalBrain::IPCheck
EXTRN	?SensorFusion@DigitalBrain@@IAEXXZ:PROC		; DigitalBrain::SensorFusion
EXTRN	?SetThreat@DigitalBrain@@IAEXPAVFalconEntity@@@Z:PROC ; DigitalBrain::SetThreat
EXTRN	?SetFlag@SimBaseClass@@QAEXH@Z:PROC		; SimBaseClass::SetFlag
EXTRN	?UnSetFlag@SimBaseClass@@QAEXH@Z:PROC		; SimBaseClass::UnSetFlag
EXTRN	?RunSensors@AircraftClass@@QAEXXZ:PROC		; AircraftClass::RunSensors
EXTRN	?GetSpotted@CampBaseClass@@QAEHE@Z:PROC		; CampBaseClass::GetSpotted
EXTRN	?FindSensor@@YAPAVSensorClass@@PAVSimMoverClass@@H@Z:PROC ; FindSensor
EXTRN	??0SimObjectType@@QAE@PAVFalconEntity@@@Z:PROC	; SimObjectType::SimObjectType
EXTRN	?Reference@SimObjectType@@QAEXXZ:PROC		; SimObjectType::Reference
EXTRN	?Release@SimObjectType@@QAEXXZ:PROC		; SimObjectType::Release
EXTRN	??_Eerror_category@std@@UAEPAXI@Z:PROC		; std::error_category::`vector deleting destructor'
EXTRN	?_Syserror_map@std@@YAPBDH@Z:PROC		; std::_Syserror_map
EXTRN	?_Winerror_map@std@@YAPBDH@Z:PROC		; std::_Winerror_map
EXTRN	??_E_Generic_error_category@std@@UAEPAXI@Z:PROC	; std::_Generic_error_category::`vector deleting destructor'
EXTRN	??_E_Iostream_error_category@std@@UAEPAXI@Z:PROC ; std::_Iostream_error_category::`vector deleting destructor'
EXTRN	??_E_System_error_category@std@@UAEPAXI@Z:PROC	; std::_System_error_category::`vector deleting destructor'
EXTRN	?UpdateTargetList@@YAPAVSimObjectType@@PAV1@PAVSimMoverClass@@PAVFalconPrivateOrderedList@@@Z:PROC ; UpdateTargetList
EXTRN	?SpikeCheck@@YAPAVFalconEntity@@PAVAircraftClass@@PAV1@PAH@Z:PROC ; SpikeCheck
EXTRN	@__security_check_cookie@4:PROC
EXTRN	__CxxThrowException@8:PROC
EXTRN	___CxxFrameHandler3:PROC
EXTRN	?vuDatabase@@3PAVVuDatabase@@A:DWORD		; vuDatabase
EXTRN	?FalconNullId@@3VVU_ID@@A:QWORD			; FalconNullId
EXTRN	?SimLibMajorFrameTime@@3MA:DWORD		; SimLibMajorFrameTime
EXTRN	?SimLibElapsedTime@@3KA:DWORD			; SimLibElapsedTime
EXTRN	??_7type_info@@6B@:QWORD			; type_info::`vftable'
EXTRN	?SimDriver@@3VSimulationDriver@@A:BYTE		; SimDriver
EXTRN	?g_fSearchSimTargetFromRangeSqr@@3MA:DWORD	; g_fSearchSimTargetFromRangeSqr
EXTRN	___security_cookie:DWORD
EXTRN	__fltused:DWORD
_BSS	SEGMENT
_piecewise_construct DB 01H DUP (?)
_allocator_arg DB 01H DUP (?)
_BSS	ENDS
;	COMDAT ?_Generic_object@?$_Error_objects@H@std@@2V_Generic_error_category@2@A
_BSS	SEGMENT
?_Generic_object@?$_Error_objects@H@std@@2V_Generic_error_category@2@A DD 01H DUP (?) ; std::_Error_objects<int>::_Generic_object
_BSS	ENDS
;	COMDAT ?_Iostream_object@?$_Error_objects@H@std@@2V_Iostream_error_category@2@A
_BSS	SEGMENT
?_Iostream_object@?$_Error_objects@H@std@@2V_Iostream_error_category@2@A DD 01H DUP (?) ; std::_Error_objects<int>::_Iostream_object
_BSS	ENDS
;	COMDAT ?_System_object@?$_Error_objects@H@std@@2V_System_error_category@2@A
_BSS	SEGMENT
?_System_object@?$_Error_objects@H@std@@2V_System_error_category@2@A DD 01H DUP (?) ; std::_Error_objects<int>::_System_object
_BSS	ENDS
;	COMDAT ?id@?$num_put@DV?$back_insert_iterator@V?$basic_string@DU?$char_traits@D@std@@V?$allocator@D@2@@std@@@std@@@std@@2V0locale@2@A
_BSS	SEGMENT
?id@?$num_put@DV?$back_insert_iterator@V?$basic_string@DU?$char_traits@D@std@@V?$allocator@D@2@@std@@@std@@@std@@2V0locale@2@A DD 01H DUP (?) ; std::num_put<char,std::back_insert_iterator<std::basic_string<char,std::char_traits<char>,std::allocator<char> > > >::id
_BSS	ENDS
;	COMDAT ?id@?$num_put@_WV?$back_insert_iterator@V?$basic_string@_WU?$char_traits@_W@std@@V?$allocator@_W@2@@std@@@std@@@std@@2V0locale@2@A
_BSS	SEGMENT
?id@?$num_put@_WV?$back_insert_iterator@V?$basic_string@_WU?$char_traits@_W@std@@V?$allocator@_W@2@@std@@@std@@@std@@2V0locale@2@A DD 01H DUP (?) ; std::num_put<wchar_t,std::back_insert_iterator<std::basic_string<wchar_t,std::char_traits<wchar_t>,std::allocator<wchar_t> > > >::id
_BSS	ENDS
;	COMDAT ?id@?$numpunct@D@std@@2V0locale@2@A
_BSS	SEGMENT
?id@?$numpunct@D@std@@2V0locale@2@A DD 01H DUP (?)	; std::numpunct<char>::id
_BSS	ENDS
;	COMDAT ?id@?$numpunct@_W@std@@2V0locale@2@A
_BSS	SEGMENT
?id@?$numpunct@_W@std@@2V0locale@2@A DD 01H DUP (?)	; std::numpunct<wchar_t>::id
_BSS	ENDS
CRT$XCU	SEGMENT
_piecewise_construct$initializer$ DD FLAT:??__Epiecewise_construct@std@@YAXXZ
CRT$XCU	ENDS
;	COMDAT __xmm@41f00000000000000000000000000000
CONST	SEGMENT
__xmm@41f00000000000000000000000000000 DB 00H, 00H, 00H, 00H, 00H, 00H, 00H
	DB	00H, 00H, 00H, 00H, 00H, 00H, 00H, 0f0H, 'A'
CONST	ENDS
;	COMDAT __real@7f7fffff
CONST	SEGMENT
__real@7f7fffff DD 07f7fffffr			; 3.40282e+038
CONST	ENDS
;	COMDAT __real@48b20395
CONST	SEGMENT
__real@48b20395 DD 048b20395r			; 364573
CONST	ENDS
;	COMDAT __real@476a6000
CONST	SEGMENT
__real@476a6000 DD 0476a6000r			; 60000
CONST	ENDS
;	COMDAT __real@40490fd9
CONST	SEGMENT
__real@40490fd9 DD 040490fd9r			; 3.14159
CONST	ENDS
;	COMDAT __real@3f800000
CONST	SEGMENT
__real@3f800000 DD 03f800000r			; 1
CONST	ENDS
;	COMDAT __real@00000000
CONST	SEGMENT
__real@00000000 DD 000000000r			; 0
CONST	ENDS
;	COMDAT ??_R1A@?0A@EA@_System_error_category@std@@8
rdata$r	SEGMENT
??_R1A@?0A@EA@_System_error_category@std@@8 DD FLAT:??_R0?AV_System_error_category@std@@@8 ; std::_System_error_category::`RTTI Base Class Descriptor at (0,-1,0,64)'
	DD	02H
	DD	00H
	DD	0ffffffffH
	DD	00H
	DD	040H
	DD	FLAT:??_R3_System_error_category@std@@8
rdata$r	ENDS
;	COMDAT ??_R2_System_error_category@std@@8
rdata$r	SEGMENT
??_R2_System_error_category@std@@8 DD FLAT:??_R1A@?0A@EA@_System_error_category@std@@8 ; std::_System_error_category::`RTTI Base Class Array'
	DD	FLAT:??_R1A@?0A@EA@_Generic_error_category@std@@8
	DD	FLAT:??_R1A@?0A@EA@error_category@std@@8
rdata$r	ENDS
;	COMDAT ??_R3_System_error_category@std@@8
rdata$r	SEGMENT
??_R3_System_error_category@std@@8 DD 00H		; std::_System_error_category::`RTTI Class Hierarchy Descriptor'
	DD	00H
	DD	03H
	DD	FLAT:??_R2_System_error_category@std@@8
rdata$r	ENDS
;	COMDAT ??_R0?AV_System_error_category@std@@@8
_DATA	SEGMENT
??_R0?AV_System_error_category@std@@@8 DD FLAT:??_7type_info@@6B@ ; std::_System_error_category `RTTI Type Descriptor'
	DD	00H
	DB	'.?AV_System_error_category@std@@', 00H
_DATA	ENDS
;	COMDAT ??_R4_System_error_category@std@@6B@
rdata$r	SEGMENT
??_R4_System_error_category@std@@6B@ DD 00H		; std::_System_error_category::`RTTI Complete Object Locator'
	DD	00H
	DD	00H
	DD	FLAT:??_R0?AV_System_error_category@std@@@8
	DD	FLAT:??_R3_System_error_category@std@@8
rdata$r	ENDS
;	COMDAT ??_R1A@?0A@EA@_Iostream_error_category@std@@8
rdata$r	SEGMENT
??_R1A@?0A@EA@_Iostream_error_category@std@@8 DD FLAT:??_R0?AV_Iostream_error_category@std@@@8 ; std::_Iostream_error_category::`RTTI Base Class Descriptor at (0,-1,0,64)'
	DD	02H
	DD	00H
	DD	0ffffffffH
	DD	00H
	DD	040H
	DD	FLAT:??_R3_Iostream_error_category@std@@8
rdata$r	ENDS
;	COMDAT ??_R2_Iostream_error_category@std@@8
rdata$r	SEGMENT
??_R2_Iostream_error_category@std@@8 DD FLAT:??_R1A@?0A@EA@_Iostream_error_category@std@@8 ; std::_Iostream_error_category::`RTTI Base Class Array'
	DD	FLAT:??_R1A@?0A@EA@_Generic_error_category@std@@8
	DD	FLAT:??_R1A@?0A@EA@error_category@std@@8
rdata$r	ENDS
;	COMDAT ??_R3_Iostream_error_category@std@@8
rdata$r	SEGMENT
??_R3_Iostream_error_category@std@@8 DD 00H		; std::_Iostream_error_category::`RTTI Class Hierarchy Descriptor'
	DD	00H
	DD	03H
	DD	FLAT:??_R2_Iostream_error_category@std@@8
rdata$r	ENDS
;	COMDAT ??_R0?AV_Iostream_error_category@std@@@8
_DATA	SEGMENT
??_R0?AV_Iostream_error_category@std@@@8 DD FLAT:??_7type_info@@6B@ ; std::_Iostream_error_category `RTTI Type Descriptor'
	DD	00H
	DB	'.?AV_Iostream_error_category@std@@', 00H
_DATA	ENDS
;	COMDAT ??_R4_Iostream_error_category@std@@6B@
rdata$r	SEGMENT
??_R4_Iostream_error_category@std@@6B@ DD 00H		; std::_Iostream_error_category::`RTTI Complete Object Locator'
	DD	00H
	DD	00H
	DD	FLAT:??_R0?AV_Iostream_error_category@std@@@8
	DD	FLAT:??_R3_Iostream_error_category@std@@8
rdata$r	ENDS
;	COMDAT ??_R1A@?0A@EA@_Generic_error_category@std@@8
rdata$r	SEGMENT
??_R1A@?0A@EA@_Generic_error_category@std@@8 DD FLAT:??_R0?AV_Generic_error_category@std@@@8 ; std::_Generic_error_category::`RTTI Base Class Descriptor at (0,-1,0,64)'
	DD	01H
	DD	00H
	DD	0ffffffffH
	DD	00H
	DD	040H
	DD	FLAT:??_R3_Generic_error_category@std@@8
rdata$r	ENDS
;	COMDAT ??_R2_Generic_error_category@std@@8
rdata$r	SEGMENT
??_R2_Generic_error_category@std@@8 DD FLAT:??_R1A@?0A@EA@_Generic_error_category@std@@8 ; std::_Generic_error_category::`RTTI Base Class Array'
	DD	FLAT:??_R1A@?0A@EA@error_category@std@@8
rdata$r	ENDS
;	COMDAT ??_R3_Generic_error_category@std@@8
rdata$r	SEGMENT
??_R3_Generic_error_category@std@@8 DD 00H		; std::_Generic_error_category::`RTTI Class Hierarchy Descriptor'
	DD	00H
	DD	02H
	DD	FLAT:??_R2_Generic_error_category@std@@8
rdata$r	ENDS
;	COMDAT ??_R0?AV_Generic_error_category@std@@@8
_DATA	SEGMENT
??_R0?AV_Generic_error_category@std@@@8 DD FLAT:??_7type_info@@6B@ ; std::_Generic_error_category `RTTI Type Descriptor'
	DD	00H
	DB	'.?AV_Generic_error_category@std@@', 00H
_DATA	ENDS
;	COMDAT ??_R4_Generic_error_category@std@@6B@
rdata$r	SEGMENT
??_R4_Generic_error_category@std@@6B@ DD 00H		; std::_Generic_error_category::`RTTI Complete Object Locator'
	DD	00H
	DD	00H
	DD	FLAT:??_R0?AV_Generic_error_category@std@@@8
	DD	FLAT:??_R3_Generic_error_category@std@@8
rdata$r	ENDS
;	COMDAT ??_R1A@?0A@EA@error_category@std@@8
rdata$r	SEGMENT
??_R1A@?0A@EA@error_category@std@@8 DD FLAT:??_R0?AVerror_category@std@@@8 ; std::error_category::`RTTI Base Class Descriptor at (0,-1,0,64)'
	DD	00H
	DD	00H
	DD	0ffffffffH
	DD	00H
	DD	040H
	DD	FLAT:??_R3error_category@std@@8
rdata$r	ENDS
;	COMDAT ??_R2error_category@std@@8
rdata$r	SEGMENT
??_R2error_category@std@@8 DD FLAT:??_R1A@?0A@EA@error_category@std@@8 ; std::error_category::`RTTI Base Class Array'
rdata$r	ENDS
;	COMDAT ??_R3error_category@std@@8
rdata$r	SEGMENT
??_R3error_category@std@@8 DD 00H			; std::error_category::`RTTI Class Hierarchy Descriptor'
	DD	00H
	DD	01H
	DD	FLAT:??_R2error_category@std@@8
rdata$r	ENDS
;	COMDAT ??_R0?AVerror_category@std@@@8
_DATA	SEGMENT
??_R0?AVerror_category@std@@@8 DD FLAT:??_7type_info@@6B@ ; std::error_category `RTTI Type Descriptor'
	DD	00H
	DB	'.?AVerror_category@std@@', 00H
_DATA	ENDS
;	COMDAT ??_R4error_category@std@@6B@
rdata$r	SEGMENT
??_R4error_category@std@@6B@ DD 00H			; std::error_category::`RTTI Complete Object Locator'
	DD	00H
	DD	00H
	DD	FLAT:??_R0?AVerror_category@std@@@8
	DD	FLAT:??_R3error_category@std@@8
rdata$r	ENDS
;	COMDAT ??_C@_0BA@JFNIOLAK@string?5too?5long?$AA@
CONST	SEGMENT
??_C@_0BA@JFNIOLAK@string?5too?5long?$AA@ DB 'string too long', 00H ; `string'
CONST	ENDS
;	COMDAT ??_C@_0BI@CFPLBAOH@invalid?5string?5position?$AA@
CONST	SEGMENT
??_C@_0BI@CFPLBAOH@invalid?5string?5position?$AA@ DB 'invalid string posi'
	DB	'tion', 00H					; `string'
CONST	ENDS
;	COMDAT ??_C@_06FHFOAHML@system?$AA@
CONST	SEGMENT
??_C@_06FHFOAHML@system?$AA@ DB 'system', 00H		; `string'
CONST	ENDS
;	COMDAT ??_7_System_error_category@std@@6B@
CONST	SEGMENT
??_7_System_error_category@std@@6B@ DD FLAT:??_R4_System_error_category@std@@6B@ ; std::_System_error_category::`vftable'
	DD	FLAT:??_E_System_error_category@std@@UAEPAXI@Z
	DD	FLAT:?name@_System_error_category@std@@UBEPBDXZ
	DD	FLAT:?message@_System_error_category@std@@UBE?AV?$basic_string@DU?$char_traits@D@std@@V?$allocator@D@2@@2@H@Z
	DD	FLAT:?default_error_condition@_System_error_category@std@@UBE?AVerror_condition@2@H@Z
	DD	FLAT:?equivalent@error_category@std@@UBE_NABVerror_code@2@H@Z
	DD	FLAT:?equivalent@error_category@std@@UBE_NHABVerror_condition@2@@Z
CONST	ENDS
;	COMDAT ??_C@_0BG@PADBLCHM@iostream?5stream?5error?$AA@
CONST	SEGMENT
??_C@_0BG@PADBLCHM@iostream?5stream?5error?$AA@ DB 'iostream stream error'
	DB	00H						; `string'
CONST	ENDS
;	COMDAT ??_C@_08LLGCOLLL@iostream?$AA@
CONST	SEGMENT
??_C@_08LLGCOLLL@iostream?$AA@ DB 'iostream', 00H	; `string'
CONST	ENDS
;	COMDAT ??_7_Iostream_error_category@std@@6B@
CONST	SEGMENT
??_7_Iostream_error_category@std@@6B@ DD FLAT:??_R4_Iostream_error_category@std@@6B@ ; std::_Iostream_error_category::`vftable'
	DD	FLAT:??_E_Iostream_error_category@std@@UAEPAXI@Z
	DD	FLAT:?name@_Iostream_error_category@std@@UBEPBDXZ
	DD	FLAT:?message@_Iostream_error_category@std@@UBE?AV?$basic_string@DU?$char_traits@D@std@@V?$allocator@D@2@@2@H@Z
	DD	FLAT:?default_error_condition@error_category@std@@UBE?AVerror_condition@2@H@Z
	DD	FLAT:?equivalent@error_category@std@@UBE_NABVerror_code@2@H@Z
	DD	FLAT:?equivalent@error_category@std@@UBE_NHABVerror_condition@2@@Z
CONST	ENDS
;	COMDAT ??_C@_0O@BFJCFAAK@unknown?5error?$AA@
CONST	SEGMENT
??_C@_0O@BFJCFAAK@unknown?5error?$AA@ DB 'unknown error', 00H ; `string'
CONST	ENDS
;	COMDAT ??_C@_07DCLBNMLN@generic?$AA@
CONST	SEGMENT
??_C@_07DCLBNMLN@generic?$AA@ DB 'generic', 00H		; `string'
CONST	ENDS
;	COMDAT ??_7_Generic_error_category@std@@6B@
CONST	SEGMENT
??_7_Generic_error_category@std@@6B@ DD FLAT:??_R4_Generic_error_category@std@@6B@ ; std::_Generic_error_category::`vftable'
	DD	FLAT:??_E_Generic_error_category@std@@UAEPAXI@Z
	DD	FLAT:?name@_Generic_error_category@std@@UBEPBDXZ
	DD	FLAT:?message@_Generic_error_category@std@@UBE?AV?$basic_string@DU?$char_traits@D@std@@V?$allocator@D@2@@2@H@Z
	DD	FLAT:?default_error_condition@error_category@std@@UBE?AVerror_condition@2@H@Z
	DD	FLAT:?equivalent@error_category@std@@UBE_NABVerror_code@2@H@Z
	DD	FLAT:?equivalent@error_category@std@@UBE_NHABVerror_condition@2@@Z
CONST	ENDS
;	COMDAT ??_7error_category@std@@6B@
CONST	SEGMENT
??_7error_category@std@@6B@ DD FLAT:??_R4error_category@std@@6B@ ; std::error_category::`vftable'
	DD	FLAT:??_Eerror_category@std@@UAEPAXI@Z
	DD	FLAT:__purecall
	DD	FLAT:__purecall
	DD	FLAT:?default_error_condition@error_category@std@@UBE?AVerror_condition@2@H@Z
	DD	FLAT:?equivalent@error_category@std@@UBE_NABVerror_code@2@H@Z
	DD	FLAT:?equivalent@error_category@std@@UBE_NHABVerror_condition@2@@Z
CONST	ENDS
;	COMDAT xdata$x
xdata$x	SEGMENT
__unwindtable$??$construct@PADAAPAD@?$allocator@D@std@@QAEXPAPADAAPAD@Z DD 0ffffffffH
	DD	FLAT:__unwindfunclet$??$construct@PADAAPAD@?$allocator@D@std@@QAEXPAPADAAPAD@Z$0
__ehfuncinfo$??$construct@PADAAPAD@?$allocator@D@std@@QAEXPAPADAAPAD@Z DD 019930522H
	DD	01H
	DD	FLAT:__unwindtable$??$construct@PADAAPAD@?$allocator@D@std@@QAEXPAPADAAPAD@Z
	DD	2 DUP(00H)
	DD	2 DUP(00H)
	DD	00H
	DD	01H
xdata$x	ENDS
xdata$x	SEGMENT
__unwindtable$?MakeSimListFromVuList@@YAPAVSimObjectType@@PAVAircraftClass@@PAV1@PAVVuLinkedList@@@Z DD 0ffffffffH
	DD	FLAT:__unwindfunclet$?MakeSimListFromVuList@@YAPAVSimObjectType@@PAVAircraftClass@@PAV1@PAVVuLinkedList@@@Z$0
	DD	00H
	DD	FLAT:__unwindfunclet$?MakeSimListFromVuList@@YAPAVSimObjectType@@PAVAircraftClass@@PAV1@PAVVuLinkedList@@@Z$1
__unwindtable$?DoTargeting@DigitalBrain@@IAEXXZ DD 0ffffffffH
	DD	FLAT:__unwindfunclet$?DoTargeting@DigitalBrain@@IAEXXZ$0
	DD	0ffffffffH
	DD	FLAT:__unwindfunclet$?DoTargeting@DigitalBrain@@IAEXXZ$1
__ehfuncinfo$?MakeSimListFromVuList@@YAPAVSimObjectType@@PAVAircraftClass@@PAV1@PAVVuLinkedList@@@Z DD 019930522H
	DD	02H
	DD	FLAT:__unwindtable$?MakeSimListFromVuList@@YAPAVSimObjectType@@PAVAircraftClass@@PAV1@PAVVuLinkedList@@@Z
	DD	2 DUP(00H)
	DD	2 DUP(00H)
	DD	00H
	DD	01H
__ehfuncinfo$?DoTargeting@DigitalBrain@@IAEXXZ DD 019930522H
	DD	02H
	DD	FLAT:__unwindtable$?DoTargeting@DigitalBrain@@IAEXXZ
	DD	2 DUP(00H)
	DD	2 DUP(00H)
	DD	00H
	DD	01H
xdata$x	ENDS
;	COMDAT xdata$x
xdata$x	SEGMENT
__catchsym$?_Copy@?$basic_string@DU?$char_traits@D@std@@V?$allocator@D@2@@std@@QAEXII@Z$5 DD 040H
	DD	00H
	DD	00H
	DD	FLAT:__catch$?_Copy@?$basic_string@DU?$char_traits@D@std@@V?$allocator@D@2@@std@@QAEXII@Z$0
__catchsym$?_Copy@?$basic_string@DU?$char_traits@D@std@@V?$allocator@D@2@@std@@QAEXII@Z$4 DD 040H
	DD	00H
	DD	00H
	DD	FLAT:__catch$?_Copy@?$basic_string@DU?$char_traits@D@std@@V?$allocator@D@2@@std@@QAEXII@Z$1
__unwindtable$?_Copy@?$basic_string@DU?$char_traits@D@std@@V?$allocator@D@2@@std@@QAEXII@Z DD 0ffffffffH
	DD	00H
	DD	0ffffffffH
	DD	00H
	DD	01H
	DD	00H
	DD	01H
	DD	00H
__ehfuncinfo$?_Copy@?$basic_string@DU?$char_traits@D@std@@V?$allocator@D@2@@std@@QAEXII@Z DD 019930522H
	DD	04H
	DD	FLAT:__unwindtable$?_Copy@?$basic_string@DU?$char_traits@D@std@@V?$allocator@D@2@@std@@QAEXII@Z
	DD	02H
	DD	FLAT:__tryblocktable$?_Copy@?$basic_string@DU?$char_traits@D@std@@V?$allocator@D@2@@std@@QAEXII@Z
	DD	2 DUP(00H)
	DD	00H
	DD	01H
__tryblocktable$?_Copy@?$basic_string@DU?$char_traits@D@std@@V?$allocator@D@2@@std@@QAEXII@Z DD 02H
	DD	02H
	DD	03H
	DD	01H
	DD	FLAT:__catchsym$?_Copy@?$basic_string@DU?$char_traits@D@std@@V?$allocator@D@2@@std@@QAEXII@Z$4
	DD	00H
	DD	00H
	DD	03H
	DD	01H
	DD	FLAT:__catchsym$?_Copy@?$basic_string@DU?$char_traits@D@std@@V?$allocator@D@2@@std@@QAEXII@Z$5
xdata$x	ENDS
CRT$XCU	SEGMENT
_allocator_arg$initializer$ DD FLAT:??__Eallocator_arg@std@@YAXXZ
CRT$XCU	ENDS
;	COMDAT CRT$XCU
CRT$XCU	SEGMENT
?_Generic_object$initializer$@?$_Error_objects@H@std@@2P6AXXZA DD FLAT:??__E?_Generic_object@?$_Error_objects@H@std@@2V_Generic_error_category@2@A@@YAXXZ ; std::_Error_objects<int>::_Generic_object$initializer$
CRT$XCU	ENDS
;	COMDAT CRT$XCU
CRT$XCU	SEGMENT
?_Iostream_object$initializer$@?$_Error_objects@H@std@@2P6AXXZA DD FLAT:??__E?_Iostream_object@?$_Error_objects@H@std@@2V_Iostream_error_category@2@A@@YAXXZ ; std::_Error_objects<int>::_Iostream_object$initializer$
CRT$XCU	ENDS
;	COMDAT CRT$XCU
CRT$XCU	SEGMENT
?_System_object$initializer$@?$_Error_objects@H@std@@2P6AXXZA DD FLAT:??__E?_System_object@?$_Error_objects@H@std@@2V_System_error_category@2@A@@YAXXZ ; std::_Error_objects<int>::_System_object$initializer$
CRT$XCU	ENDS
;	COMDAT CRT$XCU
CRT$XCU	SEGMENT
?id$initializer$@?$num_put@DV?$back_insert_iterator@V?$basic_string@DU?$char_traits@D@std@@V?$allocator@D@2@@std@@@std@@@std@@2P6AXXZA DD FLAT:??__E?id@?$num_put@DV?$back_insert_iterator@V?$basic_string@DU?$char_traits@D@std@@V?$allocator@D@2@@std@@@std@@@std@@2V0locale@2@A@@YAXXZ ; std::num_put<char,std::back_insert_iterator<std::basic_string<char,std::char_traits<char>,std::allocator<char> > > >::id$initializer$
CRT$XCU	ENDS
;	COMDAT CRT$XCU
CRT$XCU	SEGMENT
?id$initializer$@?$num_put@_WV?$back_insert_iterator@V?$basic_string@_WU?$char_traits@_W@std@@V?$allocator@_W@2@@std@@@std@@@std@@2P6AXXZA DD FLAT:??__E?id@?$num_put@_WV?$back_insert_iterator@V?$basic_string@_WU?$char_traits@_W@std@@V?$allocator@_W@2@@std@@@std@@@std@@2V0locale@2@A@@YAXXZ ; std::num_put<wchar_t,std::back_insert_iterator<std::basic_string<wchar_t,std::char_traits<wchar_t>,std::allocator<wchar_t> > > >::id$initializer$
CRT$XCU	ENDS
;	COMDAT CRT$XCU
CRT$XCU	SEGMENT
?id$initializer$@?$numpunct@D@std@@2P6AXXZA DD FLAT:??__E?id@?$numpunct@D@std@@2V0locale@2@A@@YAXXZ ; std::numpunct<char>::id$initializer$
CRT$XCU	ENDS
;	COMDAT CRT$XCU
CRT$XCU	SEGMENT
?id$initializer$@?$numpunct@_W@std@@2P6AXXZA DD FLAT:??__E?id@?$numpunct@_W@std@@2V0locale@2@A@@YAXXZ ; std::numpunct<wchar_t>::id$initializer$
CRT$XCU	ENDS
; Function compile flags: /Odtp
; File c:\program files (x86)\microsoft visual studio 11.0\vc\include\xmemory0
;	COMDAT ??$destroy@PAD@?$allocator@D@std@@QAEXPAPAD@Z
_TEXT	SEGMENT
_this$ = -4						; size = 4
__Ptr$ = 8						; size = 4
??$destroy@PAD@?$allocator@D@std@@QAEXPAPAD@Z PROC	; std::allocator<char>::destroy<char *>, COMDAT
; _this$ = ecx

; 621  : 		void destroy(_Uty *_Ptr)

	push	ebp
	mov	ebp, esp
	push	ecx
	mov	DWORD PTR _this$[ebp], ecx

; 622  : 		{	// destroy object at _Ptr
; 623  : 		_Ptr->~_Uty();
; 624  : 		}

	mov	esp, ebp
	pop	ebp
	ret	4
??$destroy@PAD@?$allocator@D@std@@QAEXPAPAD@Z ENDP	; std::allocator<char>::destroy<char *>
_TEXT	ENDS
; Function compile flags: /Odtp
; File c:\program files (x86)\microsoft visual studio 11.0\vc\include\xmemory0
;	COMDAT ??$construct@PADAAPAD@?$allocator@D@std@@QAEXPAPADAAPAD@Z
_TEXT	SEGMENT
$T2 = -28						; size = 4
_this$ = -24						; size = 4
tv73 = -20						; size = 4
$T3 = -16						; size = 4
__$EHRec$ = -12						; size = 12
__Ptr$ = 8						; size = 4
__V0$ = 12						; size = 4
??$construct@PADAAPAD@?$allocator@D@std@@QAEXPAPADAAPAD@Z PROC ; std::allocator<char>::construct<char *,char * &>, COMDAT
; _this$ = ecx

; 617  : _VARIADIC_EXPAND_0X(_ALLOC_MEMBER_CONSTRUCT, , , , )

	push	ebp
	mov	ebp, esp
	push	-1
	push	__ehhandler$??$construct@PADAAPAD@?$allocator@D@std@@QAEXPAPADAAPAD@Z
	mov	eax, DWORD PTR fs:0
	push	eax
	sub	esp, 16					; 00000010H
	mov	eax, DWORD PTR ___security_cookie
	xor	eax, ebp
	push	eax
	lea	eax, DWORD PTR __$EHRec$[ebp]
	mov	DWORD PTR fs:0, eax
	mov	DWORD PTR _this$[ebp], ecx
	mov	eax, DWORD PTR __Ptr$[ebp]
	push	eax
	push	4
	call	??2@YAPAXIPAX@Z				; operator new
	add	esp, 8
	mov	DWORD PTR $T3[ebp], eax
	mov	DWORD PTR __$EHRec$[ebp+8], 0
	cmp	DWORD PTR $T3[ebp], 0
	je	SHORT $LN3@construct
	mov	ecx, DWORD PTR __V0$[ebp]
	push	ecx
	call	??$forward@AAPAD@std@@YAAAPADAAPAD@Z	; std::forward<char * &>
	add	esp, 4
	mov	edx, DWORD PTR $T3[ebp]
	mov	eax, DWORD PTR [eax]
	mov	DWORD PTR [edx], eax
	mov	ecx, DWORD PTR $T3[ebp]
	mov	DWORD PTR tv73[ebp], ecx
	jmp	SHORT $LN4@construct
$LN3@construct:
	mov	DWORD PTR tv73[ebp], 0
$LN4@construct:
	mov	edx, DWORD PTR tv73[ebp]
	mov	DWORD PTR $T2[ebp], edx
	mov	DWORD PTR __$EHRec$[ebp+8], -1
	mov	ecx, DWORD PTR __$EHRec$[ebp]
	mov	DWORD PTR fs:0, ecx
	pop	ecx
	mov	esp, ebp
	pop	ebp
	ret	8
_TEXT	ENDS
;	COMDAT text$x
text$x	SEGMENT
__unwindfunclet$??$construct@PADAAPAD@?$allocator@D@std@@QAEXPAPADAAPAD@Z$0:
	mov	eax, DWORD PTR __Ptr$[ebp]
	push	eax
	mov	eax, DWORD PTR $T3[ebp]
	push	eax
	call	??3@YAXPAX0@Z				; operator delete
	add	esp, 8
	ret	0
__ehhandler$??$construct@PADAAPAD@?$allocator@D@std@@QAEXPAPADAAPAD@Z:
	mov	edx, DWORD PTR [esp+8]
	lea	eax, DWORD PTR [edx+12]
	mov	ecx, DWORD PTR [edx-20]
	xor	ecx, eax
	call	@__security_check_cookie@4
	mov	eax, OFFSET __ehfuncinfo$??$construct@PADAAPAD@?$allocator@D@std@@QAEXPAPADAAPAD@Z
	jmp	___CxxFrameHandler3
text$x	ENDS
??$construct@PADAAPAD@?$allocator@D@std@@QAEXPAPADAAPAD@Z ENDP ; std::allocator<char>::construct<char *,char * &>
; Function compile flags: /Odtp
; File c:\program files (x86)\microsoft visual studio 11.0\vc\include\xlocnum
;	COMDAT ??__E?id@?$numpunct@_W@std@@2V0locale@2@A@@YAXXZ
text$yc	SEGMENT
??__E?id@?$numpunct@_W@std@@2V0locale@2@A@@YAXXZ PROC	; `dynamic initializer for 'std::numpunct<wchar_t>::id'', COMDAT

; 155  : 		void _Getvals(wchar_t, const lconv *_Ptr, _Locinfo::_Cvtvec)

	push	ebp
	mov	ebp, esp
	push	0
	mov	ecx, OFFSET ?id@?$numpunct@_W@std@@2V0locale@2@A ; std::numpunct<wchar_t>::id
	call	??0id@locale@std@@QAE@I@Z		; std::locale::id::id
	pop	ebp
	ret	0
??__E?id@?$numpunct@_W@std@@2V0locale@2@A@@YAXXZ ENDP	; `dynamic initializer for 'std::numpunct<wchar_t>::id''
text$yc	ENDS
; Function compile flags: /Odtp
; File c:\program files (x86)\microsoft visual studio 11.0\vc\include\xlocnum
;	COMDAT ??__E?id@?$numpunct@D@std@@2V0locale@2@A@@YAXXZ
text$yc	SEGMENT
??__E?id@?$numpunct@D@std@@2V0locale@2@A@@YAXXZ PROC	; `dynamic initializer for 'std::numpunct<char>::id'', COMDAT

; 155  : 		void _Getvals(wchar_t, const lconv *_Ptr, _Locinfo::_Cvtvec)

	push	ebp
	mov	ebp, esp
	push	0
	mov	ecx, OFFSET ?id@?$numpunct@D@std@@2V0locale@2@A ; std::numpunct<char>::id
	call	??0id@locale@std@@QAE@I@Z		; std::locale::id::id
	pop	ebp
	ret	0
??__E?id@?$numpunct@D@std@@2V0locale@2@A@@YAXXZ ENDP	; `dynamic initializer for 'std::numpunct<char>::id''
text$yc	ENDS
; Function compile flags: /Odtp
; File c:\program files (x86)\microsoft visual studio 11.0\vc\include\xlocnum
;	COMDAT ??__E?id@?$num_put@_WV?$back_insert_iterator@V?$basic_string@_WU?$char_traits@_W@std@@V?$allocator@_W@2@@std@@@std@@@std@@2V0locale@2@A@@YAXXZ
text$yc	SEGMENT
??__E?id@?$num_put@_WV?$back_insert_iterator@V?$basic_string@_WU?$char_traits@_W@std@@V?$allocator@_W@2@@std@@@std@@@std@@2V0locale@2@A@@YAXXZ PROC ; `dynamic initializer for 'std::num_put<wchar_t,std::back_insert_iterator<std::basic_string<wchar_t,std::char_traits<wchar_t>,std::allocator<wchar_t> > > >::id'', COMDAT

; 155  : 		void _Getvals(wchar_t, const lconv *_Ptr, _Locinfo::_Cvtvec)

	push	ebp
	mov	ebp, esp
	push	0
	mov	ecx, OFFSET ?id@?$num_put@_WV?$back_insert_iterator@V?$basic_string@_WU?$char_traits@_W@std@@V?$allocator@_W@2@@std@@@std@@@std@@2V0locale@2@A ; std::num_put<wchar_t,std::back_insert_iterator<std::basic_string<wchar_t,std::char_traits<wchar_t>,std::allocator<wchar_t> > > >::id
	call	??0id@locale@std@@QAE@I@Z		; std::locale::id::id
	pop	ebp
	ret	0
??__E?id@?$num_put@_WV?$back_insert_iterator@V?$basic_string@_WU?$char_traits@_W@std@@V?$allocator@_W@2@@std@@@std@@@std@@2V0locale@2@A@@YAXXZ ENDP ; `dynamic initializer for 'std::num_put<wchar_t,std::back_insert_iterator<std::basic_string<wchar_t,std::char_traits<wchar_t>,std::allocator<wchar_t> > > >::id''
text$yc	ENDS
; Function compile flags: /Odtp
; File c:\program files (x86)\microsoft visual studio 11.0\vc\include\xlocnum
;	COMDAT ??__E?id@?$num_put@DV?$back_insert_iterator@V?$basic_string@DU?$char_traits@D@std@@V?$allocator@D@2@@std@@@std@@@std@@2V0locale@2@A@@YAXXZ
text$yc	SEGMENT
??__E?id@?$num_put@DV?$back_insert_iterator@V?$basic_string@DU?$char_traits@D@std@@V?$allocator@D@2@@std@@@std@@@std@@2V0locale@2@A@@YAXXZ PROC ; `dynamic initializer for 'std::num_put<char,std::back_insert_iterator<std::basic_string<char,std::char_traits<char>,std::allocator<char> > > >::id'', COMDAT

; 155  : 		void _Getvals(wchar_t, const lconv *_Ptr, _Locinfo::_Cvtvec)

	push	ebp
	mov	ebp, esp
	push	0
	mov	ecx, OFFSET ?id@?$num_put@DV?$back_insert_iterator@V?$basic_string@DU?$char_traits@D@std@@V?$allocator@D@2@@std@@@std@@@std@@2V0locale@2@A ; std::num_put<char,std::back_insert_iterator<std::basic_string<char,std::char_traits<char>,std::allocator<char> > > >::id
	call	??0id@locale@std@@QAE@I@Z		; std::locale::id::id
	pop	ebp
	ret	0
??__E?id@?$num_put@DV?$back_insert_iterator@V?$basic_string@DU?$char_traits@D@std@@V?$allocator@D@2@@std@@@std@@@std@@2V0locale@2@A@@YAXXZ ENDP ; `dynamic initializer for 'std::num_put<char,std::back_insert_iterator<std::basic_string<char,std::char_traits<char>,std::allocator<char> > > >::id''
text$yc	ENDS
; Function compile flags: /Odtp
; File c:\program files (x86)\microsoft visual studio 11.0\vc\include\xmemory0
;	COMDAT ??$destroy@PAD@?$allocator_traits@V?$allocator@D@std@@@std@@SAXAAV?$allocator@D@1@PAPAD@Z
_TEXT	SEGMENT
__Al$ = 8						; size = 4
__Ptr$ = 12						; size = 4
??$destroy@PAD@?$allocator_traits@V?$allocator@D@std@@@std@@SAXAAV?$allocator@D@1@PAPAD@Z PROC ; std::allocator_traits<std::allocator<char> >::destroy<char *>, COMDAT

; 755  : 		static void destroy(_Alloc& _Al, _Uty *_Ptr)

	push	ebp
	mov	ebp, esp

; 756  : 		{	// destroy object at _Ptr
; 757  : 		_Al.destroy(_Ptr);

	mov	eax, DWORD PTR __Ptr$[ebp]
	push	eax
	mov	ecx, DWORD PTR __Al$[ebp]
	call	??$destroy@PAD@?$allocator@D@std@@QAEXPAPAD@Z ; std::allocator<char>::destroy<char *>

; 758  : 		}

	pop	ebp
	ret	0
??$destroy@PAD@?$allocator_traits@V?$allocator@D@std@@@std@@SAXAAV?$allocator@D@1@PAPAD@Z ENDP ; std::allocator_traits<std::allocator<char> >::destroy<char *>
_TEXT	ENDS
; Function compile flags: /Odtp
; File c:\program files (x86)\microsoft visual studio 11.0\vc\include\xmemory0
;	COMDAT ??$construct@PADAAPAD@?$allocator_traits@V?$allocator@D@std@@@std@@SAXAAV?$allocator@D@1@PAPADAAPAD@Z
_TEXT	SEGMENT
__Al$ = 8						; size = 4
__Ptr$ = 12						; size = 4
__V0$ = 16						; size = 4
??$construct@PADAAPAD@?$allocator_traits@V?$allocator@D@std@@@std@@SAXAAV?$allocator@D@1@PAPADAAPAD@Z PROC ; std::allocator_traits<std::allocator<char> >::construct<char *,char * &>, COMDAT

; 751  : _VARIADIC_EXPAND_0X(_ALLOC_TRAITS_SPECIAL_CONSTRUCT, , , , )

	push	ebp
	mov	ebp, esp
	mov	eax, DWORD PTR __V0$[ebp]
	push	eax
	call	??$forward@AAPAD@std@@YAAAPADAAPAD@Z	; std::forward<char * &>
	add	esp, 4
	push	eax
	mov	ecx, DWORD PTR __Ptr$[ebp]
	push	ecx
	mov	ecx, DWORD PTR __Al$[ebp]
	call	??$construct@PADAAPAD@?$allocator@D@std@@QAEXPAPADAAPAD@Z ; std::allocator<char>::construct<char *,char * &>
	pop	ebp
	ret	0
??$construct@PADAAPAD@?$allocator_traits@V?$allocator@D@std@@@std@@SAXAAV?$allocator@D@1@PAPADAAPAD@Z ENDP ; std::allocator_traits<std::allocator<char> >::construct<char *,char * &>
_TEXT	ENDS
; Function compile flags: /Odtp
; File c:\program files (x86)\microsoft visual studio 11.0\vc\include\type_traits
;	COMDAT ??$forward@AAPAD@std@@YAAAPADAAPAD@Z
_TEXT	SEGMENT
__Arg$ = 8						; size = 4
??$forward@AAPAD@std@@YAAAPADAAPAD@Z PROC		; std::forward<char * &>, COMDAT

; 1775 : 	{	// forward an lvalue

	push	ebp
	mov	ebp, esp

; 1776 : 	return (static_cast<_Ty&&>(_Arg));

	mov	eax, DWORD PTR __Arg$[ebp]

; 1777 : 	}

	pop	ebp
	ret	0
??$forward@AAPAD@std@@YAAAPADAAPAD@Z ENDP		; std::forward<char * &>
_TEXT	ENDS
; Function compile flags: /Odtp
;	COMDAT ??__F?_System_object@?$_Error_objects@H@std@@2V_System_error_category@2@A@@YAXXZ
text$yd	SEGMENT
??__F?_System_object@?$_Error_objects@H@std@@2V_System_error_category@2@A@@YAXXZ PROC ; `dynamic atexit destructor for 'std::_Error_objects<int>::_System_object'', COMDAT
	push	ebp
	mov	ebp, esp
	mov	ecx, OFFSET ?_System_object@?$_Error_objects@H@std@@2V_System_error_category@2@A ; std::_Error_objects<int>::_System_object
	call	??1_System_error_category@std@@UAE@XZ
	pop	ebp
	ret	0
??__F?_System_object@?$_Error_objects@H@std@@2V_System_error_category@2@A@@YAXXZ ENDP ; `dynamic atexit destructor for 'std::_Error_objects<int>::_System_object''
text$yd	ENDS
; Function compile flags: /Odtp
; File c:\program files (x86)\microsoft visual studio 11.0\vc\include\xmemory0
;	COMDAT ??__E?_System_object@?$_Error_objects@H@std@@2V_System_error_category@2@A@@YAXXZ
text$yc	SEGMENT
??__E?_System_object@?$_Error_objects@H@std@@2V_System_error_category@2@A@@YAXXZ PROC ; `dynamic initializer for 'std::_Error_objects<int>::_System_object'', COMDAT

; 627  : 		{	// estimate maximum array size

	push	ebp
	mov	ebp, esp
	mov	ecx, OFFSET ?_System_object@?$_Error_objects@H@std@@2V_System_error_category@2@A ; std::_Error_objects<int>::_System_object
	call	??0_System_error_category@std@@QAE@XZ	; std::_System_error_category::_System_error_category
	push	OFFSET ??__F?_System_object@?$_Error_objects@H@std@@2V_System_error_category@2@A@@YAXXZ ; `dynamic atexit destructor for 'std::_Error_objects<int>::_System_object''
	call	_atexit
	add	esp, 4
	pop	ebp
	ret	0
??__E?_System_object@?$_Error_objects@H@std@@2V_System_error_category@2@A@@YAXXZ ENDP ; `dynamic initializer for 'std::_Error_objects<int>::_System_object''
text$yc	ENDS
; Function compile flags: /Odtp
;	COMDAT ??__F?_Iostream_object@?$_Error_objects@H@std@@2V_Iostream_error_category@2@A@@YAXXZ
text$yd	SEGMENT
??__F?_Iostream_object@?$_Error_objects@H@std@@2V_Iostream_error_category@2@A@@YAXXZ PROC ; `dynamic atexit destructor for 'std::_Error_objects<int>::_Iostream_object'', COMDAT
	push	ebp
	mov	ebp, esp
	mov	ecx, OFFSET ?_Iostream_object@?$_Error_objects@H@std@@2V_Iostream_error_category@2@A ; std::_Error_objects<int>::_Iostream_object
	call	??1_Iostream_error_category@std@@UAE@XZ
	pop	ebp
	ret	0
??__F?_Iostream_object@?$_Error_objects@H@std@@2V_Iostream_error_category@2@A@@YAXXZ ENDP ; `dynamic atexit destructor for 'std::_Error_objects<int>::_Iostream_object''
text$yd	ENDS
; Function compile flags: /Odtp
; File c:\program files (x86)\microsoft visual studio 11.0\vc\include\xmemory0
;	COMDAT ??__E?_Iostream_object@?$_Error_objects@H@std@@2V_Iostream_error_category@2@A@@YAXXZ
text$yc	SEGMENT
??__E?_Iostream_object@?$_Error_objects@H@std@@2V_Iostream_error_category@2@A@@YAXXZ PROC ; `dynamic initializer for 'std::_Error_objects<int>::_Iostream_object'', COMDAT

; 627  : 		{	// estimate maximum array size

	push	ebp
	mov	ebp, esp
	mov	ecx, OFFSET ?_Iostream_object@?$_Error_objects@H@std@@2V_Iostream_error_category@2@A ; std::_Error_objects<int>::_Iostream_object
	call	??0_Iostream_error_category@std@@QAE@XZ	; std::_Iostream_error_category::_Iostream_error_category
	push	OFFSET ??__F?_Iostream_object@?$_Error_objects@H@std@@2V_Iostream_error_category@2@A@@YAXXZ ; `dynamic atexit destructor for 'std::_Error_objects<int>::_Iostream_object''
	call	_atexit
	add	esp, 4
	pop	ebp
	ret	0
??__E?_Iostream_object@?$_Error_objects@H@std@@2V_Iostream_error_category@2@A@@YAXXZ ENDP ; `dynamic initializer for 'std::_Error_objects<int>::_Iostream_object''
text$yc	ENDS
; Function compile flags: /Odtp
;	COMDAT ??__F?_Generic_object@?$_Error_objects@H@std@@2V_Generic_error_category@2@A@@YAXXZ
text$yd	SEGMENT
??__F?_Generic_object@?$_Error_objects@H@std@@2V_Generic_error_category@2@A@@YAXXZ PROC ; `dynamic atexit destructor for 'std::_Error_objects<int>::_Generic_object'', COMDAT
	push	ebp
	mov	ebp, esp
	mov	ecx, OFFSET ?_Generic_object@?$_Error_objects@H@std@@2V_Generic_error_category@2@A ; std::_Error_objects<int>::_Generic_object
	call	??1_Generic_error_category@std@@UAE@XZ
	pop	ebp
	ret	0
??__F?_Generic_object@?$_Error_objects@H@std@@2V_Generic_error_category@2@A@@YAXXZ ENDP ; `dynamic atexit destructor for 'std::_Error_objects<int>::_Generic_object''
text$yd	ENDS
; Function compile flags: /Odtp
; File c:\program files (x86)\microsoft visual studio 11.0\vc\include\xmemory0
;	COMDAT ??__E?_Generic_object@?$_Error_objects@H@std@@2V_Generic_error_category@2@A@@YAXXZ
text$yc	SEGMENT
??__E?_Generic_object@?$_Error_objects@H@std@@2V_Generic_error_category@2@A@@YAXXZ PROC ; `dynamic initializer for 'std::_Error_objects<int>::_Generic_object'', COMDAT

; 627  : 		{	// estimate maximum array size

	push	ebp
	mov	ebp, esp
	mov	ecx, OFFSET ?_Generic_object@?$_Error_objects@H@std@@2V_Generic_error_category@2@A ; std::_Error_objects<int>::_Generic_object
	call	??0_Generic_error_category@std@@QAE@XZ	; std::_Generic_error_category::_Generic_error_category
	push	OFFSET ??__F?_Generic_object@?$_Error_objects@H@std@@2V_Generic_error_category@2@A@@YAXXZ ; `dynamic atexit destructor for 'std::_Error_objects<int>::_Generic_object''
	call	_atexit
	add	esp, 4
	pop	ebp
	ret	0
??__E?_Generic_object@?$_Error_objects@H@std@@2V_Generic_error_category@2@A@@YAXXZ ENDP ; `dynamic initializer for 'std::_Error_objects<int>::_Generic_object''
text$yc	ENDS
; Function compile flags: /Odtp
; File c:\program files (x86)\microsoft visual studio 11.0\vc\include\xmemory0
;	COMDAT ??$_Allocate@D@std@@YAPADIPAD@Z
_TEXT	SEGMENT
__Ptr$ = -4						; size = 4
__Count$ = 8						; size = 4
___formal$ = 12						; size = 4
??$_Allocate@D@std@@YAPADIPAD@Z PROC			; std::_Allocate<char>, COMDAT

; 22   : 	{	// allocate storage for _Count elements of type _Ty

	push	ebp
	mov	ebp, esp
	push	ecx

; 23   : 	void *_Ptr = 0;

	mov	DWORD PTR __Ptr$[ebp], 0

; 24   : 
; 25   : 	if (_Count == 0)

	cmp	DWORD PTR __Count$[ebp], 0
	jne	SHORT $LN4@Allocate

; 26   : 		;
; 27   : 	else if (((size_t)(-1) / sizeof (_Ty) < _Count)

	jmp	SHORT $LN3@Allocate
$LN4@Allocate:

; 28   : 		|| (_Ptr = ::operator new(_Count * sizeof (_Ty))) == 0)

	cmp	DWORD PTR __Count$[ebp], -1
	ja	SHORT $LN1@Allocate
	mov	eax, DWORD PTR __Count$[ebp]
	push	eax
	call	??2@YAPAXI@Z				; operator new
	add	esp, 4
	mov	DWORD PTR __Ptr$[ebp], eax
	cmp	DWORD PTR __Ptr$[ebp], 0
	jne	SHORT $LN3@Allocate
$LN1@Allocate:

; 29   : 		_Xbad_alloc();	// report no memory

	call	?_Xbad_alloc@std@@YAXXZ			; std::_Xbad_alloc
$LN3@Allocate:

; 30   : 
; 31   : 	return ((_Ty *)_Ptr);

	mov	eax, DWORD PTR __Ptr$[ebp]
$LN6@Allocate:

; 32   : 	}

	mov	esp, ebp
	pop	ebp
	ret	0
??$_Allocate@D@std@@YAPADIPAD@Z ENDP			; std::_Allocate<char>
_TEXT	ENDS
; Function compile flags: /Odtp
; File c:\program files (x86)\microsoft visual studio 11.0\vc\include\xstddef
;	COMDAT ??$addressof@D@std@@YAPADAAD@Z
_TEXT	SEGMENT
__Val$ = 8						; size = 4
??$addressof@D@std@@YAPADAAD@Z PROC			; std::addressof<char>, COMDAT

; 85   : 	{	// return address of _Val

	push	ebp
	mov	ebp, esp

; 86   : 	return (reinterpret_cast<_Ty *>(
; 87   : 		(&const_cast<char&>(
; 88   : 		reinterpret_cast<const volatile char&>(_Val)))));

	mov	eax, DWORD PTR __Val$[ebp]

; 89   : 	}

	pop	ebp
	ret	0
??$addressof@D@std@@YAPADAAD@Z ENDP			; std::addressof<char>
_TEXT	ENDS
; Function compile flags: /Odtp
; File c:\program files (x86)\microsoft visual studio 11.0\vc\include\xmemory0
;	COMDAT ??$destroy@PAD@?$_Wrap_alloc@V?$allocator@D@std@@@std@@QAEXPAPAD@Z
_TEXT	SEGMENT
_this$ = -4						; size = 4
__Ptr$ = 8						; size = 4
??$destroy@PAD@?$_Wrap_alloc@V?$allocator@D@std@@@std@@QAEXPAPAD@Z PROC ; std::_Wrap_alloc<std::allocator<char> >::destroy<char *>, COMDAT
; _this$ = ecx

; 907  : 		void destroy(_Ty *_Ptr)

	push	ebp
	mov	ebp, esp
	push	ecx
	mov	DWORD PTR _this$[ebp], ecx

; 908  : 		{	// destroy object at _Ptr
; 909  : 		_Mytraits::destroy(*this, _Ptr);

	mov	eax, DWORD PTR __Ptr$[ebp]
	push	eax
	mov	ecx, DWORD PTR _this$[ebp]
	push	ecx
	call	??$destroy@PAD@?$allocator_traits@V?$allocator@D@std@@@std@@SAXAAV?$allocator@D@1@PAPAD@Z ; std::allocator_traits<std::allocator<char> >::destroy<char *>
	add	esp, 8

; 910  : 		}

	mov	esp, ebp
	pop	ebp
	ret	4
??$destroy@PAD@?$_Wrap_alloc@V?$allocator@D@std@@@std@@QAEXPAPAD@Z ENDP ; std::_Wrap_alloc<std::allocator<char> >::destroy<char *>
_TEXT	ENDS
; Function compile flags: /Odtp
; File c:\program files (x86)\microsoft visual studio 11.0\vc\include\xmemory0
;	COMDAT ??$construct@PADAAPAD@?$_Wrap_alloc@V?$allocator@D@std@@@std@@QAEXPAPADAAPAD@Z
_TEXT	SEGMENT
_this$ = -4						; size = 4
__Ptr$ = 8						; size = 4
__V0$ = 12						; size = 4
??$construct@PADAAPAD@?$_Wrap_alloc@V?$allocator@D@std@@@std@@QAEXPAPADAAPAD@Z PROC ; std::_Wrap_alloc<std::allocator<char> >::construct<char *,char * &>, COMDAT
; _this$ = ecx

; 903  : _VARIADIC_EXPAND_0X(_WRAP_ALLOC_CONSTRUCT, , , , )

	push	ebp
	mov	ebp, esp
	push	ecx
	mov	DWORD PTR _this$[ebp], ecx
	mov	eax, DWORD PTR __V0$[ebp]
	push	eax
	call	??$forward@AAPAD@std@@YAAAPADAAPAD@Z	; std::forward<char * &>
	add	esp, 4
	push	eax
	mov	ecx, DWORD PTR __Ptr$[ebp]
	push	ecx
	mov	edx, DWORD PTR _this$[ebp]
	push	edx
	call	??$construct@PADAAPAD@?$allocator_traits@V?$allocator@D@std@@@std@@SAXAAV?$allocator@D@1@PAPADAAPAD@Z ; std::allocator_traits<std::allocator<char> >::construct<char *,char * &>
	add	esp, 12					; 0000000cH
	mov	esp, ebp
	pop	ebp
	ret	8
??$construct@PADAAPAD@?$_Wrap_alloc@V?$allocator@D@std@@@std@@QAEXPAPADAAPAD@Z ENDP ; std::_Wrap_alloc<std::allocator<char> >::construct<char *,char * &>
_TEXT	ENDS
; Function compile flags: /Odtp
; File c:\users\zhitao li\documents\visual studio 2012\projects\freefalcon\sim\digi\targeting.cpp
_TEXT	SEGMENT
_updateWalker$2 = -60					; size = 12
$T3 = -48						; size = 4
tv163 = -44						; size = 4
$T4 = -40						; size = 4
_feEntity$5 = -36					; size = 4
_lastObject$6 = -32					; size = 4
_rootObject$ = -28					; size = 4
_curEntity$7 = -24					; size = 4
_tmpObject$ = -20					; size = 4
_curObject$ = -16					; size = 4
__$EHRec$ = -12						; size = 12
_self$ = 8						; size = 4
_targetList$ = 12					; size = 4
_vuList$ = 16						; size = 4
?MakeSimListFromVuList@@YAPAVSimObjectType@@PAVAircraftClass@@PAV1@PAVVuLinkedList@@@Z PROC ; MakeSimListFromVuList

; 599  : {

	push	ebp
	mov	ebp, esp
	push	-1
	push	__ehhandler$?MakeSimListFromVuList@@YAPAVSimObjectType@@PAVAircraftClass@@PAV1@PAVVuLinkedList@@@Z
	mov	eax, DWORD PTR fs:0
	push	eax
	sub	esp, 48					; 00000030H
	mov	eax, DWORD PTR ___security_cookie
	xor	eax, ebp
	push	eax
	lea	eax, DWORD PTR __$EHRec$[ebp]
	mov	DWORD PTR fs:0, eax

; 600  : 	SimObjectType* rootObject;
; 601  : 	SimObjectType* curObject;
; 602  : 	SimObjectType* tmpObject;
; 603  : 
; 604  : 	if (vuList)

	cmp	DWORD PTR _vuList$[ebp], 0
	je	$LN20@MakeSimLis

; 605  : 	{
; 606  : 		// If we have a list then make the targetList has the same objects
; 607  : 
; 608  : 		SimObjectType* lastObject;
; 609  : 		VuEntity* curEntity;
; 610  : 		
; 611  : 		curObject = targetList;

	mov	eax, DWORD PTR _targetList$[ebp]
	mov	DWORD PTR _curObject$[ebp], eax

; 612  : 		rootObject = targetList;

	mov	ecx, DWORD PTR _targetList$[ebp]
	mov	DWORD PTR _rootObject$[ebp], ecx

; 613  : 		lastObject = NULL;

	mov	DWORD PTR _lastObject$6[ebp], 0

; 614  : 
; 615  : 		VuListIterator updateWalker (vuList);

	mov	edx, DWORD PTR _vuList$[ebp]
	push	edx
	lea	ecx, DWORD PTR _updateWalker$2[ebp]
	call	??0VuListIterator@@QAE@PAVVuLinkedList@@@Z ; VuListIterator::VuListIterator
	mov	DWORD PTR __$EHRec$[ebp+8], 0

; 616  : 		curEntity = updateWalker.GetFirst();

	lea	ecx, DWORD PTR _updateWalker$2[ebp]
	call	?GetFirst@VuListIterator@@QAEPAVVuEntity@@XZ ; VuListIterator::GetFirst
	mov	DWORD PTR _curEntity$7[ebp], eax
$LN27@MakeSimLis:

; 617  : 		while (curEntity)

	cmp	DWORD PTR _curEntity$7[ebp], 0
	je	$LN18@MakeSimLis

; 618  : 		{
; 619  : 			if (curObject)

	cmp	DWORD PTR _curObject$[ebp], 0
	je	$LN17@MakeSimLis

; 620  : 			{
; 621  : 				if (curObject->BaseData() == curEntity)

	mov	ecx, DWORD PTR _curObject$[ebp]
	call	?BaseData@SimObjectType@@QAEPAVFalconEntity@@XZ ; SimObjectType::BaseData
	cmp	eax, DWORD PTR _curEntity$7[ebp]
	jne	SHORT $LN16@MakeSimLis

; 622  : 				{
; 623  : 					// Step both lists
; 624  : 					lastObject = curObject;

	mov	eax, DWORD PTR _curObject$[ebp]
	mov	DWORD PTR _lastObject$6[ebp], eax

; 625  : 					curObject = curObject->next;

	mov	ecx, DWORD PTR _curObject$[ebp]
	mov	edx, DWORD PTR [ecx+16]
	mov	DWORD PTR _curObject$[ebp], edx

; 626  : 					curEntity = updateWalker.GetNext();

	lea	ecx, DWORD PTR _updateWalker$2[ebp]
	call	?GetNext@VuListIterator@@QAEPAVVuEntity@@XZ ; VuListIterator::GetNext
	mov	DWORD PTR _curEntity$7[ebp], eax

; 627  : 				}
; 628  : 				else

	jmp	SHORT $LN15@MakeSimLis
$LN16@MakeSimLis:

; 629  : 				{
; 630  : 					// Delete current object
; 631  : 					if (curObject->prev)

	mov	eax, DWORD PTR _curObject$[ebp]
	cmp	DWORD PTR [eax+20], 0
	je	SHORT $LN14@MakeSimLis

; 632  : 					{
; 633  : 						curObject->prev->next = curObject->next;

	mov	ecx, DWORD PTR _curObject$[ebp]
	mov	edx, DWORD PTR [ecx+20]
	mov	eax, DWORD PTR _curObject$[ebp]
	mov	ecx, DWORD PTR [eax+16]
	mov	DWORD PTR [edx+16], ecx

; 634  : 					}
; 635  : 					else

	jmp	SHORT $LN13@MakeSimLis
$LN14@MakeSimLis:

; 636  : 					{
; 637  : 						rootObject = curObject->next;

	mov	edx, DWORD PTR _curObject$[ebp]
	mov	eax, DWORD PTR [edx+16]
	mov	DWORD PTR _rootObject$[ebp], eax
$LN13@MakeSimLis:

; 638  : 					}
; 639  : 					
; 640  : 					if (curObject->next)

	mov	ecx, DWORD PTR _curObject$[ebp]
	cmp	DWORD PTR [ecx+16], 0
	je	SHORT $LN12@MakeSimLis

; 641  : 					{
; 642  : 						curObject->next->prev = curObject->prev;

	mov	edx, DWORD PTR _curObject$[ebp]
	mov	eax, DWORD PTR [edx+16]
	mov	ecx, DWORD PTR _curObject$[ebp]
	mov	edx, DWORD PTR [ecx+20]
	mov	DWORD PTR [eax+20], edx
$LN12@MakeSimLis:

; 643  : 					}
; 644  : 					
; 645  : 					tmpObject = curObject;

	mov	eax, DWORD PTR _curObject$[ebp]
	mov	DWORD PTR _tmpObject$[ebp], eax

; 646  : 					curObject = curObject->next;

	mov	ecx, DWORD PTR _curObject$[ebp]
	mov	edx, DWORD PTR [ecx+16]
	mov	DWORD PTR _curObject$[ebp], edx

; 647  :                		tmpObject->next = NULL;

	mov	eax, DWORD PTR _tmpObject$[ebp]
	mov	DWORD PTR [eax+16], 0

; 648  :                		tmpObject->prev = NULL;

	mov	ecx, DWORD PTR _tmpObject$[ebp]
	mov	DWORD PTR [ecx+20], 0

; 649  : 					tmpObject->Release(  );

	mov	ecx, DWORD PTR _tmpObject$[ebp]
	call	?Release@SimObjectType@@QAEXXZ		; SimObjectType::Release

; 650  : 					tmpObject = NULL;

	mov	DWORD PTR _tmpObject$[ebp], 0
$LN15@MakeSimLis:

; 651  : 				}
; 652  : 			}
; 653  : 			else { // FRB - ALERT!

	jmp	$LN11@MakeSimLis
$LN17@MakeSimLis:

; 654  : 				// sfr: no dead or sleeping entities
; 655  : 				FalconEntity *feEntity = static_cast<FalconEntity*>(curEntity);

	mov	edx, DWORD PTR _curEntity$7[ebp]
	mov	DWORD PTR _feEntity$5[ebp], edx

; 656  : 				if (
; 657  : 					feEntity->IsDead() || 
; 658  : 					(feEntity->IsSim() && !static_cast<SimBaseClass*>(feEntity)->IsAwake())
; 659  : 				){

	mov	eax, DWORD PTR _feEntity$5[ebp]
	mov	edx, DWORD PTR [eax]
	mov	ecx, DWORD PTR _feEntity$5[ebp]
	mov	eax, DWORD PTR [edx+212]
	call	eax
	test	eax, eax
	jne	SHORT $LN9@MakeSimLis
	mov	ecx, DWORD PTR _feEntity$5[ebp]
	call	?IsSim@FalconEntity@@QAEHXZ		; FalconEntity::IsSim
	test	eax, eax
	je	SHORT $LN10@MakeSimLis
	mov	ecx, DWORD PTR _feEntity$5[ebp]
	call	?IsAwake@SimBaseClass@@QBEHXZ		; SimBaseClass::IsAwake
	test	eax, eax
	jne	SHORT $LN10@MakeSimLis
$LN9@MakeSimLis:

; 660  : 					curEntity = updateWalker.GetNext();

	lea	ecx, DWORD PTR _updateWalker$2[ebp]
	call	?GetNext@VuListIterator@@QAEPAVVuEntity@@XZ ; VuListIterator::GetNext
	mov	DWORD PTR _curEntity$7[ebp], eax

; 661  : 					continue;

	jmp	$LN27@MakeSimLis
$LN10@MakeSimLis:

; 662  : 				}
; 663  : 				// Append new entry to sim list and increment vu list
; 664  : 				tmpObject = new SimObjectType((FalconEntity*)curEntity);

	push	24					; 00000018H
	call	??2@YAPAXI@Z				; operator new
	add	esp, 4
	mov	DWORD PTR $T4[ebp], eax
	mov	BYTE PTR __$EHRec$[ebp+8], 1
	cmp	DWORD PTR $T4[ebp], 0
	je	SHORT $LN23@MakeSimLis
	mov	ecx, DWORD PTR _curEntity$7[ebp]
	push	ecx
	mov	ecx, DWORD PTR $T4[ebp]
	call	??0SimObjectType@@QAE@PAVFalconEntity@@@Z ; SimObjectType::SimObjectType
	mov	DWORD PTR tv163[ebp], eax
	jmp	SHORT $LN24@MakeSimLis
$LN23@MakeSimLis:
	mov	DWORD PTR tv163[ebp], 0
$LN24@MakeSimLis:
	mov	edx, DWORD PTR tv163[ebp]
	mov	DWORD PTR $T3[ebp], edx
	mov	BYTE PTR __$EHRec$[ebp+8], 0
	mov	eax, DWORD PTR $T3[ebp]
	mov	DWORD PTR _tmpObject$[ebp], eax

; 665  : 				tmpObject->Reference();

	mov	ecx, DWORD PTR _tmpObject$[ebp]
	call	?Reference@SimObjectType@@QAEXXZ	; SimObjectType::Reference

; 666  : 				tmpObject->localData->range = 0.0F;

	mov	ecx, DWORD PTR _tmpObject$[ebp]
	mov	edx, DWORD PTR [ecx+12]
	movss	xmm0, DWORD PTR __real@00000000
	movss	DWORD PTR [edx+44], xmm0

; 667  : 				tmpObject->localData->ataFrom = 180.0F * DTR;

	mov	eax, DWORD PTR _tmpObject$[ebp]
	mov	ecx, DWORD PTR [eax+12]
	movss	xmm0, DWORD PTR __real@40490fd9
	movss	DWORD PTR [ecx+4], xmm0

; 668  : 				tmpObject->localData->aspect = 0.0F;

	mov	edx, DWORD PTR _tmpObject$[ebp]
	mov	eax, DWORD PTR [edx+12]
	movss	xmm0, DWORD PTR __real@00000000
	movss	DWORD PTR [eax+68], xmm0

; 669  : 				tmpObject->next = NULL;

	mov	ecx, DWORD PTR _tmpObject$[ebp]
	mov	DWORD PTR [ecx+16], 0

; 670  : 				tmpObject->prev = lastObject;

	mov	edx, DWORD PTR _tmpObject$[ebp]
	mov	eax, DWORD PTR _lastObject$6[ebp]
	mov	DWORD PTR [edx+20], eax

; 671  : 				
; 672  : 				if (lastObject)

	cmp	DWORD PTR _lastObject$6[ebp], 0
	je	SHORT $LN8@MakeSimLis

; 673  : 					lastObject->next = tmpObject;

	mov	ecx, DWORD PTR _lastObject$6[ebp]
	mov	edx, DWORD PTR _tmpObject$[ebp]
	mov	DWORD PTR [ecx+16], edx
$LN8@MakeSimLis:

; 674  : 				
; 675  : 				lastObject = tmpObject;

	mov	eax, DWORD PTR _tmpObject$[ebp]
	mov	DWORD PTR _lastObject$6[ebp], eax

; 676  : 				
; 677  : 				// Set head if needed
; 678  : 				if (!rootObject)

	cmp	DWORD PTR _rootObject$[ebp], 0
	jne	SHORT $LN7@MakeSimLis

; 679  : 					rootObject = tmpObject;

	mov	ecx, DWORD PTR _tmpObject$[ebp]
	mov	DWORD PTR _rootObject$[ebp], ecx
$LN7@MakeSimLis:

; 680  : 				
; 681  : 				// Step vu list
; 682  : 				curEntity = updateWalker.GetNext();

	lea	ecx, DWORD PTR _updateWalker$2[ebp]
	call	?GetNext@VuListIterator@@QAEPAVVuEntity@@XZ ; VuListIterator::GetNext
	mov	DWORD PTR _curEntity$7[ebp], eax
$LN11@MakeSimLis:

; 683  : 			}
; 684  : 		}

	jmp	$LN27@MakeSimLis
$LN18@MakeSimLis:

; 685  : 	}

	mov	DWORD PTR __$EHRec$[ebp+8], -1
	lea	ecx, DWORD PTR _updateWalker$2[ebp]
	call	??1VuListIterator@@UAE@XZ		; VuListIterator::~VuListIterator

; 686  : 	else

	jmp	$LN6@MakeSimLis
$LN20@MakeSimLis:

; 687  : 	{
; 688  : 		// PETER HACK
; 689  : 		// PETER: curObject has NOT been set by anything (garbage off the stack)
; 690  : 		// I am assuming this is what you meant :)
; 691  : 		// HOWEVER, this causes crashes later on so I am just returning
; 692  : //		return(targetList);
; 693  : 		curObject = targetList;

	mov	edx, DWORD PTR _targetList$[ebp]
	mov	DWORD PTR _curObject$[ebp], edx

; 694  : 		rootObject = targetList;

	mov	eax, DWORD PTR _targetList$[ebp]
	mov	DWORD PTR _rootObject$[ebp], eax
$LN5@MakeSimLis:

; 695  : 		// PETER END HACK
; 696  : 
; 697  : 		// We have no list, so we should have no objects
; 698  : 		while (curObject)

	cmp	DWORD PTR _curObject$[ebp], 0
	je	SHORT $LN4@MakeSimLis

; 699  : 		{
; 700  : 			// Delete current object
; 701  : 			if (curObject->prev)

	mov	ecx, DWORD PTR _curObject$[ebp]
	cmp	DWORD PTR [ecx+20], 0
	je	SHORT $LN3@MakeSimLis

; 702  : 			{
; 703  : 				curObject->prev->next = curObject->next;

	mov	edx, DWORD PTR _curObject$[ebp]
	mov	eax, DWORD PTR [edx+20]
	mov	ecx, DWORD PTR _curObject$[ebp]
	mov	edx, DWORD PTR [ecx+16]
	mov	DWORD PTR [eax+16], edx

; 704  : 			}
; 705  : 			else

	jmp	SHORT $LN2@MakeSimLis
$LN3@MakeSimLis:

; 706  : 			{
; 707  : 				rootObject = curObject->next;

	mov	eax, DWORD PTR _curObject$[ebp]
	mov	ecx, DWORD PTR [eax+16]
	mov	DWORD PTR _rootObject$[ebp], ecx
$LN2@MakeSimLis:

; 708  : 			}
; 709  : 			
; 710  : 			if (curObject->next)

	mov	edx, DWORD PTR _curObject$[ebp]
	cmp	DWORD PTR [edx+16], 0
	je	SHORT $LN1@MakeSimLis

; 711  : 			{
; 712  : 				curObject->next->prev = curObject->prev;

	mov	eax, DWORD PTR _curObject$[ebp]
	mov	ecx, DWORD PTR [eax+16]
	mov	edx, DWORD PTR _curObject$[ebp]
	mov	eax, DWORD PTR [edx+20]
	mov	DWORD PTR [ecx+20], eax
$LN1@MakeSimLis:

; 713  : 			}
; 714  : 			
; 715  : 			tmpObject = curObject;

	mov	ecx, DWORD PTR _curObject$[ebp]
	mov	DWORD PTR _tmpObject$[ebp], ecx

; 716  : 			curObject = curObject->next;

	mov	edx, DWORD PTR _curObject$[ebp]
	mov	eax, DWORD PTR [edx+16]
	mov	DWORD PTR _curObject$[ebp], eax

; 717  :          tmpObject->next = NULL;

	mov	ecx, DWORD PTR _tmpObject$[ebp]
	mov	DWORD PTR [ecx+16], 0

; 718  :          tmpObject->prev = NULL;

	mov	edx, DWORD PTR _tmpObject$[ebp]
	mov	DWORD PTR [edx+20], 0

; 719  : 			tmpObject->Release(  );

	mov	ecx, DWORD PTR _tmpObject$[ebp]
	call	?Release@SimObjectType@@QAEXXZ		; SimObjectType::Release

; 720  : 			tmpObject = NULL;

	mov	DWORD PTR _tmpObject$[ebp], 0

; 721  : 		}

	jmp	SHORT $LN5@MakeSimLis
$LN4@MakeSimLis:

; 722  : 
; 723  : 		rootObject = NULL;

	mov	DWORD PTR _rootObject$[ebp], 0
$LN6@MakeSimLis:

; 724  : 	}
; 725  : 
; 726  : 	return rootObject;

	mov	eax, DWORD PTR _rootObject$[ebp]

; 727  : }

	mov	ecx, DWORD PTR __$EHRec$[ebp]
	mov	DWORD PTR fs:0, ecx
	pop	ecx
	mov	esp, ebp
	pop	ebp
	ret	0
_TEXT	ENDS
text$x	SEGMENT
__unwindfunclet$?MakeSimListFromVuList@@YAPAVSimObjectType@@PAVAircraftClass@@PAV1@PAVVuLinkedList@@@Z$0:
	lea	ecx, DWORD PTR _updateWalker$2[ebp]
	jmp	??1VuListIterator@@UAE@XZ		; VuListIterator::~VuListIterator
__unwindfunclet$?MakeSimListFromVuList@@YAPAVSimObjectType@@PAVAircraftClass@@PAV1@PAVVuLinkedList@@@Z$1:
	mov	eax, DWORD PTR $T4[ebp]
	push	eax
	call	??3@YAXPAX@Z				; operator delete
	pop	ecx
	ret	0
__ehhandler$?MakeSimListFromVuList@@YAPAVSimObjectType@@PAVAircraftClass@@PAV1@PAVVuLinkedList@@@Z:
	mov	edx, DWORD PTR [esp+8]
	lea	eax, DWORD PTR [edx+12]
	mov	ecx, DWORD PTR [edx-52]
	xor	ecx, eax
	call	@__security_check_cookie@4
	mov	eax, OFFSET __ehfuncinfo$?MakeSimListFromVuList@@YAPAVSimObjectType@@PAVAircraftClass@@PAV1@PAVVuLinkedList@@@Z
	jmp	___CxxFrameHandler3
text$x	ENDS
?MakeSimListFromVuList@@YAPAVSimObjectType@@PAVAircraftClass@@PAV1@PAVVuLinkedList@@@Z ENDP ; MakeSimListFromVuList
; Function compile flags: /Odtp
;	COMDAT ??_G_System_error_category@std@@UAEPAXI@Z
_TEXT	SEGMENT
_this$ = -4						; size = 4
___flags$ = 8						; size = 4
??_G_System_error_category@std@@UAEPAXI@Z PROC		; std::_System_error_category::`scalar deleting destructor', COMDAT
; _this$ = ecx
	push	ebp
	mov	ebp, esp
	push	ecx
	mov	DWORD PTR _this$[ebp], ecx
	mov	ecx, DWORD PTR _this$[ebp]
	call	??1_System_error_category@std@@UAE@XZ
	mov	eax, DWORD PTR ___flags$[ebp]
	and	eax, 1
	je	SHORT $LN1@scalar
	mov	ecx, DWORD PTR _this$[ebp]
	push	ecx
	call	??3@YAXPAX@Z				; operator delete
	add	esp, 4
$LN1@scalar:
	mov	eax, DWORD PTR _this$[ebp]
	mov	esp, ebp
	pop	ebp
	ret	4
??_G_System_error_category@std@@UAEPAXI@Z ENDP		; std::_System_error_category::`scalar deleting destructor'
_TEXT	ENDS
; Function compile flags: /Odtp
;	COMDAT ??1_System_error_category@std@@UAE@XZ
_TEXT	SEGMENT
_this$ = -4						; size = 4
??1_System_error_category@std@@UAE@XZ PROC		; std::_System_error_category::~_System_error_category, COMDAT
; _this$ = ecx
	push	ebp
	mov	ebp, esp
	push	ecx
	mov	DWORD PTR _this$[ebp], ecx
	mov	ecx, DWORD PTR _this$[ebp]
	call	??1_Generic_error_category@std@@UAE@XZ
	mov	esp, ebp
	pop	ebp
	ret	0
??1_System_error_category@std@@UAE@XZ ENDP		; std::_System_error_category::~_System_error_category
_TEXT	ENDS
; Function compile flags: /Odtp
; File c:\program files (x86)\microsoft visual studio 11.0\vc\include\system_error
;	COMDAT ?default_error_condition@_System_error_category@std@@UBE?AVerror_condition@2@H@Z
_TEXT	SEGMENT
_this$ = -4						; size = 4
___$ReturnUdt$ = 8					; size = 4
__Errval$ = 12						; size = 4
?default_error_condition@_System_error_category@std@@UBE?AVerror_condition@2@H@Z PROC ; std::_System_error_category::default_error_condition, COMDAT
; _this$ = ecx

; 641  : 		{	// make error_condition for error code (generic if possible)

	push	ebp
	mov	ebp, esp
	push	ecx
	mov	DWORD PTR _this$[ebp], ecx

; 642  : 		if (_Syserror_map(_Errval))

	mov	eax, DWORD PTR __Errval$[ebp]
	push	eax
	call	?_Syserror_map@std@@YAPBDH@Z		; std::_Syserror_map
	add	esp, 4
	test	eax, eax
	je	SHORT $LN2@default_er

; 643  : 			return (error_condition(_Errval, generic_category()));

	call	?generic_category@std@@YAABVerror_category@1@XZ ; std::generic_category
	push	eax
	mov	ecx, DWORD PTR __Errval$[ebp]
	push	ecx
	mov	ecx, DWORD PTR ___$ReturnUdt$[ebp]
	call	??0error_condition@std@@QAE@HABVerror_category@1@@Z ; std::error_condition::error_condition
	mov	eax, DWORD PTR ___$ReturnUdt$[ebp]
	jmp	SHORT $LN3@default_er

; 644  : 		else

	jmp	SHORT $LN3@default_er
$LN2@default_er:

; 645  : 			return (error_condition(_Errval, system_category()));

	call	?system_category@std@@YAABVerror_category@1@XZ ; std::system_category
	push	eax
	mov	edx, DWORD PTR __Errval$[ebp]
	push	edx
	mov	ecx, DWORD PTR ___$ReturnUdt$[ebp]
	call	??0error_condition@std@@QAE@HABVerror_category@1@@Z ; std::error_condition::error_condition
	mov	eax, DWORD PTR ___$ReturnUdt$[ebp]
$LN3@default_er:

; 646  : 		}

	mov	esp, ebp
	pop	ebp
	ret	8
?default_error_condition@_System_error_category@std@@UBE?AVerror_condition@2@H@Z ENDP ; std::_System_error_category::default_error_condition
_TEXT	ENDS
; Function compile flags: /Odtp
; File c:\program files (x86)\microsoft visual studio 11.0\vc\include\system_error
;	COMDAT ?message@_System_error_category@std@@UBE?AV?$basic_string@DU?$char_traits@D@std@@V?$allocator@D@2@@2@H@Z
_TEXT	SEGMENT
_this$ = -16						; size = 4
$T1 = -12						; size = 4
tv69 = -8						; size = 4
__Name$ = -4						; size = 4
___$ReturnUdt$ = 8					; size = 4
__Errcode$ = 12						; size = 4
?message@_System_error_category@std@@UBE?AV?$basic_string@DU?$char_traits@D@std@@V?$allocator@D@2@@2@H@Z PROC ; std::_System_error_category::message, COMDAT
; _this$ = ecx

; 634  : 		{	// convert to name of error

	push	ebp
	mov	ebp, esp
	sub	esp, 16					; 00000010H
	mov	DWORD PTR _this$[ebp], ecx
	mov	DWORD PTR $T1[ebp], 0

; 635  : 		const char *_Name = _Winerror_map(_Errcode);

	mov	eax, DWORD PTR __Errcode$[ebp]
	push	eax
	call	?_Winerror_map@std@@YAPBDH@Z		; std::_Winerror_map
	add	esp, 4
	mov	DWORD PTR __Name$[ebp], eax

; 636  : 		return (string(_Name != 0 ? _Name : "unknown error"));

	cmp	DWORD PTR __Name$[ebp], 0
	je	SHORT $LN3@message
	mov	ecx, DWORD PTR __Name$[ebp]
	mov	DWORD PTR tv69[ebp], ecx
	jmp	SHORT $LN4@message
$LN3@message:
	mov	DWORD PTR tv69[ebp], OFFSET ??_C@_0O@BFJCFAAK@unknown?5error?$AA@
$LN4@message:
	mov	edx, DWORD PTR tv69[ebp]
	push	edx
	mov	ecx, DWORD PTR ___$ReturnUdt$[ebp]
	call	??0?$basic_string@DU?$char_traits@D@std@@V?$allocator@D@2@@std@@QAE@PBD@Z ; std::basic_string<char,std::char_traits<char>,std::allocator<char> >::basic_string<char,std::char_traits<char>,std::allocator<char> >
	mov	eax, DWORD PTR $T1[ebp]
	or	eax, 1
	mov	DWORD PTR $T1[ebp], eax
	mov	eax, DWORD PTR ___$ReturnUdt$[ebp]

; 637  : 		}

	mov	esp, ebp
	pop	ebp
	ret	8
?message@_System_error_category@std@@UBE?AV?$basic_string@DU?$char_traits@D@std@@V?$allocator@D@2@@2@H@Z ENDP ; std::_System_error_category::message
_TEXT	ENDS
; Function compile flags: /Odtp
; File c:\program files (x86)\microsoft visual studio 11.0\vc\include\system_error
;	COMDAT ?name@_System_error_category@std@@UBEPBDXZ
_TEXT	SEGMENT
_this$ = -4						; size = 4
?name@_System_error_category@std@@UBEPBDXZ PROC		; std::_System_error_category::name, COMDAT
; _this$ = ecx

; 629  : 		{	// get name of category

	push	ebp
	mov	ebp, esp
	push	ecx
	mov	DWORD PTR _this$[ebp], ecx

; 630  : 		return ("system");

	mov	eax, OFFSET ??_C@_06FHFOAHML@system?$AA@

; 631  : 		}

	mov	esp, ebp
	pop	ebp
	ret	0
?name@_System_error_category@std@@UBEPBDXZ ENDP		; std::_System_error_category::name
_TEXT	ENDS
; Function compile flags: /Odtp
; File c:\program files (x86)\microsoft visual studio 11.0\vc\include\system_error
;	COMDAT ??0_System_error_category@std@@QAE@XZ
_TEXT	SEGMENT
_this$ = -4						; size = 4
??0_System_error_category@std@@QAE@XZ PROC		; std::_System_error_category::_System_error_category, COMDAT
; _this$ = ecx

; 624  : 	_System_error_category()

	push	ebp
	mov	ebp, esp
	push	ecx
	mov	DWORD PTR _this$[ebp], ecx
	mov	ecx, DWORD PTR _this$[ebp]
	call	??0_Generic_error_category@std@@QAE@XZ	; std::_Generic_error_category::_Generic_error_category
	mov	eax, DWORD PTR _this$[ebp]
	mov	DWORD PTR [eax], OFFSET ??_7_System_error_category@std@@6B@

; 625  : 		{	// default constructor
; 626  : 		}

	mov	eax, DWORD PTR _this$[ebp]
	mov	esp, ebp
	pop	ebp
	ret	0
??0_System_error_category@std@@QAE@XZ ENDP		; std::_System_error_category::_System_error_category
_TEXT	ENDS
; Function compile flags: /Odtp
;	COMDAT ??_G_Iostream_error_category@std@@UAEPAXI@Z
_TEXT	SEGMENT
_this$ = -4						; size = 4
___flags$ = 8						; size = 4
??_G_Iostream_error_category@std@@UAEPAXI@Z PROC	; std::_Iostream_error_category::`scalar deleting destructor', COMDAT
; _this$ = ecx
	push	ebp
	mov	ebp, esp
	push	ecx
	mov	DWORD PTR _this$[ebp], ecx
	mov	ecx, DWORD PTR _this$[ebp]
	call	??1_Iostream_error_category@std@@UAE@XZ
	mov	eax, DWORD PTR ___flags$[ebp]
	and	eax, 1
	je	SHORT $LN1@scalar
	mov	ecx, DWORD PTR _this$[ebp]
	push	ecx
	call	??3@YAXPAX@Z				; operator delete
	add	esp, 4
$LN1@scalar:
	mov	eax, DWORD PTR _this$[ebp]
	mov	esp, ebp
	pop	ebp
	ret	4
??_G_Iostream_error_category@std@@UAEPAXI@Z ENDP	; std::_Iostream_error_category::`scalar deleting destructor'
_TEXT	ENDS
; Function compile flags: /Odtp
;	COMDAT ??1_Iostream_error_category@std@@UAE@XZ
_TEXT	SEGMENT
_this$ = -4						; size = 4
??1_Iostream_error_category@std@@UAE@XZ PROC		; std::_Iostream_error_category::~_Iostream_error_category, COMDAT
; _this$ = ecx
	push	ebp
	mov	ebp, esp
	push	ecx
	mov	DWORD PTR _this$[ebp], ecx
	mov	ecx, DWORD PTR _this$[ebp]
	call	??1_Generic_error_category@std@@UAE@XZ
	mov	esp, ebp
	pop	ebp
	ret	0
??1_Iostream_error_category@std@@UAE@XZ ENDP		; std::_Iostream_error_category::~_Iostream_error_category
_TEXT	ENDS
; Function compile flags: /Odtp
; File c:\program files (x86)\microsoft visual studio 11.0\vc\include\system_error
;	COMDAT ?message@_Iostream_error_category@std@@UBE?AV?$basic_string@DU?$char_traits@D@std@@V?$allocator@D@2@@2@H@Z
_TEXT	SEGMENT
_this$ = -8						; size = 4
$T1 = -4						; size = 4
___$ReturnUdt$ = 8					; size = 4
__Errcode$ = 12						; size = 4
?message@_Iostream_error_category@std@@UBE?AV?$basic_string@DU?$char_traits@D@std@@V?$allocator@D@2@@2@H@Z PROC ; std::_Iostream_error_category::message, COMDAT
; _this$ = ecx

; 611  : 		{	// convert to name of error

	push	ebp
	mov	ebp, esp
	sub	esp, 8
	mov	DWORD PTR _this$[ebp], ecx
	mov	DWORD PTR $T1[ebp], 0

; 612  : 		if (_Errcode == (int)io_errc::stream)

	cmp	DWORD PTR __Errcode$[ebp], 1
	jne	SHORT $LN2@message

; 613  : 			return ("iostream stream error");

	push	OFFSET ??_C@_0BG@PADBLCHM@iostream?5stream?5error?$AA@
	mov	ecx, DWORD PTR ___$ReturnUdt$[ebp]
	call	??0?$basic_string@DU?$char_traits@D@std@@V?$allocator@D@2@@std@@QAE@PBD@Z ; std::basic_string<char,std::char_traits<char>,std::allocator<char> >::basic_string<char,std::char_traits<char>,std::allocator<char> >
	mov	eax, DWORD PTR $T1[ebp]
	or	eax, 1
	mov	DWORD PTR $T1[ebp], eax
	mov	eax, DWORD PTR ___$ReturnUdt$[ebp]
	jmp	SHORT $LN3@message

; 614  : 		else

	jmp	SHORT $LN3@message
$LN2@message:

; 615  : 			return (_Generic_error_category::message(_Errcode));

	mov	ecx, DWORD PTR __Errcode$[ebp]
	push	ecx
	mov	edx, DWORD PTR ___$ReturnUdt$[ebp]
	push	edx
	mov	ecx, DWORD PTR _this$[ebp]
	call	?message@_Generic_error_category@std@@UBE?AV?$basic_string@DU?$char_traits@D@std@@V?$allocator@D@2@@2@H@Z ; std::_Generic_error_category::message
	mov	eax, DWORD PTR $T1[ebp]
	or	eax, 1
	mov	DWORD PTR $T1[ebp], eax
	mov	eax, DWORD PTR ___$ReturnUdt$[ebp]
$LN3@message:

; 616  : 		}

	mov	esp, ebp
	pop	ebp
	ret	8
?message@_Iostream_error_category@std@@UBE?AV?$basic_string@DU?$char_traits@D@std@@V?$allocator@D@2@@2@H@Z ENDP ; std::_Iostream_error_category::message
_TEXT	ENDS
; Function compile flags: /Odtp
; File c:\program files (x86)\microsoft visual studio 11.0\vc\include\system_error
;	COMDAT ?name@_Iostream_error_category@std@@UBEPBDXZ
_TEXT	SEGMENT
_this$ = -4						; size = 4
?name@_Iostream_error_category@std@@UBEPBDXZ PROC	; std::_Iostream_error_category::name, COMDAT
; _this$ = ecx

; 606  : 		{	// get name of category

	push	ebp
	mov	ebp, esp
	push	ecx
	mov	DWORD PTR _this$[ebp], ecx

; 607  : 		return ("iostream");

	mov	eax, OFFSET ??_C@_08LLGCOLLL@iostream?$AA@

; 608  : 		}

	mov	esp, ebp
	pop	ebp
	ret	0
?name@_Iostream_error_category@std@@UBEPBDXZ ENDP	; std::_Iostream_error_category::name
_TEXT	ENDS
; Function compile flags: /Odtp
; File c:\program files (x86)\microsoft visual studio 11.0\vc\include\system_error
;	COMDAT ??0_Iostream_error_category@std@@QAE@XZ
_TEXT	SEGMENT
_this$ = -4						; size = 4
??0_Iostream_error_category@std@@QAE@XZ PROC		; std::_Iostream_error_category::_Iostream_error_category, COMDAT
; _this$ = ecx

; 601  : 	_Iostream_error_category()

	push	ebp
	mov	ebp, esp
	push	ecx
	mov	DWORD PTR _this$[ebp], ecx
	mov	ecx, DWORD PTR _this$[ebp]
	call	??0_Generic_error_category@std@@QAE@XZ	; std::_Generic_error_category::_Generic_error_category
	mov	eax, DWORD PTR _this$[ebp]
	mov	DWORD PTR [eax], OFFSET ??_7_Iostream_error_category@std@@6B@

; 602  : 		{	// default constructor
; 603  : 		}

	mov	eax, DWORD PTR _this$[ebp]
	mov	esp, ebp
	pop	ebp
	ret	0
??0_Iostream_error_category@std@@QAE@XZ ENDP		; std::_Iostream_error_category::_Iostream_error_category
_TEXT	ENDS
; Function compile flags: /Odtp
;	COMDAT ??_G_Generic_error_category@std@@UAEPAXI@Z
_TEXT	SEGMENT
_this$ = -4						; size = 4
___flags$ = 8						; size = 4
??_G_Generic_error_category@std@@UAEPAXI@Z PROC		; std::_Generic_error_category::`scalar deleting destructor', COMDAT
; _this$ = ecx
	push	ebp
	mov	ebp, esp
	push	ecx
	mov	DWORD PTR _this$[ebp], ecx
	mov	ecx, DWORD PTR _this$[ebp]
	call	??1_Generic_error_category@std@@UAE@XZ
	mov	eax, DWORD PTR ___flags$[ebp]
	and	eax, 1
	je	SHORT $LN1@scalar
	mov	ecx, DWORD PTR _this$[ebp]
	push	ecx
	call	??3@YAXPAX@Z				; operator delete
	add	esp, 4
$LN1@scalar:
	mov	eax, DWORD PTR _this$[ebp]
	mov	esp, ebp
	pop	ebp
	ret	4
??_G_Generic_error_category@std@@UAEPAXI@Z ENDP		; std::_Generic_error_category::`scalar deleting destructor'
_TEXT	ENDS
; Function compile flags: /Odtp
;	COMDAT ??1_Generic_error_category@std@@UAE@XZ
_TEXT	SEGMENT
_this$ = -4						; size = 4
??1_Generic_error_category@std@@UAE@XZ PROC		; std::_Generic_error_category::~_Generic_error_category, COMDAT
; _this$ = ecx
	push	ebp
	mov	ebp, esp
	push	ecx
	mov	DWORD PTR _this$[ebp], ecx
	mov	ecx, DWORD PTR _this$[ebp]
	call	??1error_category@std@@UAE@XZ		; std::error_category::~error_category
	mov	esp, ebp
	pop	ebp
	ret	0
??1_Generic_error_category@std@@UAE@XZ ENDP		; std::_Generic_error_category::~_Generic_error_category
_TEXT	ENDS
; Function compile flags: /Odtp
; File c:\program files (x86)\microsoft visual studio 11.0\vc\include\system_error
;	COMDAT ?message@_Generic_error_category@std@@UBE?AV?$basic_string@DU?$char_traits@D@std@@V?$allocator@D@2@@2@H@Z
_TEXT	SEGMENT
_this$ = -16						; size = 4
$T1 = -12						; size = 4
tv69 = -8						; size = 4
__Name$ = -4						; size = 4
___$ReturnUdt$ = 8					; size = 4
__Errcode$ = 12						; size = 4
?message@_Generic_error_category@std@@UBE?AV?$basic_string@DU?$char_traits@D@std@@V?$allocator@D@2@@2@H@Z PROC ; std::_Generic_error_category::message, COMDAT
; _this$ = ecx

; 590  : 		{	// convert to name of error

	push	ebp
	mov	ebp, esp
	sub	esp, 16					; 00000010H
	mov	DWORD PTR _this$[ebp], ecx
	mov	DWORD PTR $T1[ebp], 0

; 591  : 		const char *_Name = _Syserror_map(_Errcode);

	mov	eax, DWORD PTR __Errcode$[ebp]
	push	eax
	call	?_Syserror_map@std@@YAPBDH@Z		; std::_Syserror_map
	add	esp, 4
	mov	DWORD PTR __Name$[ebp], eax

; 592  : 		return (string(_Name != 0 ? _Name : "unknown error"));

	cmp	DWORD PTR __Name$[ebp], 0
	je	SHORT $LN3@message
	mov	ecx, DWORD PTR __Name$[ebp]
	mov	DWORD PTR tv69[ebp], ecx
	jmp	SHORT $LN4@message
$LN3@message:
	mov	DWORD PTR tv69[ebp], OFFSET ??_C@_0O@BFJCFAAK@unknown?5error?$AA@
$LN4@message:
	mov	edx, DWORD PTR tv69[ebp]
	push	edx
	mov	ecx, DWORD PTR ___$ReturnUdt$[ebp]
	call	??0?$basic_string@DU?$char_traits@D@std@@V?$allocator@D@2@@std@@QAE@PBD@Z ; std::basic_string<char,std::char_traits<char>,std::allocator<char> >::basic_string<char,std::char_traits<char>,std::allocator<char> >
	mov	eax, DWORD PTR $T1[ebp]
	or	eax, 1
	mov	DWORD PTR $T1[ebp], eax
	mov	eax, DWORD PTR ___$ReturnUdt$[ebp]

; 593  : 		}

	mov	esp, ebp
	pop	ebp
	ret	8
?message@_Generic_error_category@std@@UBE?AV?$basic_string@DU?$char_traits@D@std@@V?$allocator@D@2@@2@H@Z ENDP ; std::_Generic_error_category::message
_TEXT	ENDS
; Function compile flags: /Odtp
; File c:\program files (x86)\microsoft visual studio 11.0\vc\include\system_error
;	COMDAT ?name@_Generic_error_category@std@@UBEPBDXZ
_TEXT	SEGMENT
_this$ = -4						; size = 4
?name@_Generic_error_category@std@@UBEPBDXZ PROC	; std::_Generic_error_category::name, COMDAT
; _this$ = ecx

; 585  : 		{	// get name of category

	push	ebp
	mov	ebp, esp
	push	ecx
	mov	DWORD PTR _this$[ebp], ecx

; 586  : 		return ("generic");

	mov	eax, OFFSET ??_C@_07DCLBNMLN@generic?$AA@

; 587  : 		}

	mov	esp, ebp
	pop	ebp
	ret	0
?name@_Generic_error_category@std@@UBEPBDXZ ENDP	; std::_Generic_error_category::name
_TEXT	ENDS
; Function compile flags: /Odtp
; File c:\program files (x86)\microsoft visual studio 11.0\vc\include\system_error
;	COMDAT ??0_Generic_error_category@std@@QAE@XZ
_TEXT	SEGMENT
_this$ = -4						; size = 4
??0_Generic_error_category@std@@QAE@XZ PROC		; std::_Generic_error_category::_Generic_error_category, COMDAT
; _this$ = ecx

; 580  : 	_Generic_error_category()

	push	ebp
	mov	ebp, esp
	push	ecx
	mov	DWORD PTR _this$[ebp], ecx
	mov	ecx, DWORD PTR _this$[ebp]
	call	??0error_category@std@@QAE@XZ		; std::error_category::error_category
	mov	eax, DWORD PTR _this$[ebp]
	mov	DWORD PTR [eax], OFFSET ??_7_Generic_error_category@std@@6B@

; 581  : 		{	// default constructor
; 582  : 		}

	mov	eax, DWORD PTR _this$[ebp]
	mov	esp, ebp
	pop	ebp
	ret	0
??0_Generic_error_category@std@@QAE@XZ ENDP		; std::_Generic_error_category::_Generic_error_category
_TEXT	ENDS
; Function compile flags: /Odtp
; File c:\program files (x86)\microsoft visual studio 11.0\vc\include\system_error
;	COMDAT ??8error_condition@std@@QBE_NABV01@@Z
_TEXT	SEGMENT
tv78 = -8						; size = 4
_this$ = -4						; size = 4
__Right$ = 8						; size = 4
??8error_condition@std@@QBE_NABV01@@Z PROC		; std::error_condition::operator==, COMDAT
; _this$ = ecx

; 376  : 		{	// test if *this == _Right

	push	ebp
	mov	ebp, esp
	sub	esp, 8
	push	esi
	mov	DWORD PTR _this$[ebp], ecx

; 377  : 		return (category() == _Right.category()
; 378  : 			&& value() == _Right.value());

	mov	ecx, DWORD PTR __Right$[ebp]
	call	?category@error_condition@std@@QBEABVerror_category@2@XZ ; std::error_condition::category
	push	eax
	mov	ecx, DWORD PTR _this$[ebp]
	call	?category@error_condition@std@@QBEABVerror_category@2@XZ ; std::error_condition::category
	mov	ecx, eax
	call	??8error_category@std@@QBE_NABV01@@Z	; std::error_category::operator==
	movzx	eax, al
	test	eax, eax
	je	SHORT $LN3@operator
	mov	ecx, DWORD PTR _this$[ebp]
	call	?value@error_condition@std@@QBEHXZ	; std::error_condition::value
	mov	esi, eax
	mov	ecx, DWORD PTR __Right$[ebp]
	call	?value@error_condition@std@@QBEHXZ	; std::error_condition::value
	cmp	esi, eax
	jne	SHORT $LN3@operator
	mov	DWORD PTR tv78[ebp], 1
	jmp	SHORT $LN4@operator
$LN3@operator:
	mov	DWORD PTR tv78[ebp], 0
$LN4@operator:
	mov	al, BYTE PTR tv78[ebp]

; 379  : 		}

	pop	esi
	mov	esp, ebp
	pop	ebp
	ret	4
??8error_condition@std@@QBE_NABV01@@Z ENDP		; std::error_condition::operator==
_TEXT	ENDS
; Function compile flags: /Odtp
; File c:\program files (x86)\microsoft visual studio 11.0\vc\include\system_error
;	COMDAT ?category@error_condition@std@@QBEABVerror_category@2@XZ
_TEXT	SEGMENT
_this$ = -4						; size = 4
?category@error_condition@std@@QBEABVerror_category@2@XZ PROC ; std::error_condition::category, COMDAT
; _this$ = ecx

; 354  : 		{	// get category

	push	ebp
	mov	ebp, esp
	push	ecx
	mov	DWORD PTR _this$[ebp], ecx

; 355  : 		return (*_Mycat);

	mov	eax, DWORD PTR _this$[ebp]
	mov	eax, DWORD PTR [eax+4]

; 356  : 		}

	mov	esp, ebp
	pop	ebp
	ret	0
?category@error_condition@std@@QBEABVerror_category@2@XZ ENDP ; std::error_condition::category
_TEXT	ENDS
; Function compile flags: /Odtp
; File c:\program files (x86)\microsoft visual studio 11.0\vc\include\system_error
;	COMDAT ?value@error_condition@std@@QBEHXZ
_TEXT	SEGMENT
_this$ = -4						; size = 4
?value@error_condition@std@@QBEHXZ PROC			; std::error_condition::value, COMDAT
; _this$ = ecx

; 349  : 		{	// get error code

	push	ebp
	mov	ebp, esp
	push	ecx
	mov	DWORD PTR _this$[ebp], ecx

; 350  : 		return (_Myval);

	mov	eax, DWORD PTR _this$[ebp]
	mov	eax, DWORD PTR [eax]

; 351  : 		}

	mov	esp, ebp
	pop	ebp
	ret	0
?value@error_condition@std@@QBEHXZ ENDP			; std::error_condition::value
_TEXT	ENDS
; Function compile flags: /Odtp
; File c:\program files (x86)\microsoft visual studio 11.0\vc\include\system_error
;	COMDAT ??0error_condition@std@@QAE@HABVerror_category@1@@Z
_TEXT	SEGMENT
_this$ = -4						; size = 4
__Val$ = 8						; size = 4
__Cat$ = 12						; size = 4
??0error_condition@std@@QAE@HABVerror_category@1@@Z PROC ; std::error_condition::error_condition, COMDAT
; _this$ = ecx

; 316  : 		{	// construct from error code and category

	push	ebp
	mov	ebp, esp
	push	ecx
	mov	DWORD PTR _this$[ebp], ecx
	mov	eax, DWORD PTR _this$[ebp]
	mov	ecx, DWORD PTR __Val$[ebp]
	mov	DWORD PTR [eax], ecx
	mov	edx, DWORD PTR _this$[ebp]
	mov	eax, DWORD PTR __Cat$[ebp]
	mov	DWORD PTR [edx+4], eax

; 317  : 		}

	mov	eax, DWORD PTR _this$[ebp]
	mov	esp, ebp
	pop	ebp
	ret	8
??0error_condition@std@@QAE@HABVerror_category@1@@Z ENDP ; std::error_condition::error_condition
_TEXT	ENDS
; Function compile flags: /Odtp
; File c:\program files (x86)\microsoft visual studio 11.0\vc\include\system_error
;	COMDAT ?category@error_code@std@@QBEABVerror_category@2@XZ
_TEXT	SEGMENT
_this$ = -4						; size = 4
?category@error_code@std@@QBEABVerror_category@2@XZ PROC ; std::error_code::category, COMDAT
; _this$ = ecx

; 256  : 		{	// get category

	push	ebp
	mov	ebp, esp
	push	ecx
	mov	DWORD PTR _this$[ebp], ecx

; 257  : 		return (*_Mycat);

	mov	eax, DWORD PTR _this$[ebp]
	mov	eax, DWORD PTR [eax+4]

; 258  : 		}

	mov	esp, ebp
	pop	ebp
	ret	0
?category@error_code@std@@QBEABVerror_category@2@XZ ENDP ; std::error_code::category
_TEXT	ENDS
; Function compile flags: /Odtp
; File c:\program files (x86)\microsoft visual studio 11.0\vc\include\system_error
;	COMDAT ?value@error_code@std@@QBEHXZ
_TEXT	SEGMENT
_this$ = -4						; size = 4
?value@error_code@std@@QBEHXZ PROC			; std::error_code::value, COMDAT
; _this$ = ecx

; 251  : 		{	// get error code

	push	ebp
	mov	ebp, esp
	push	ecx
	mov	DWORD PTR _this$[ebp], ecx

; 252  : 		return (_Myval);

	mov	eax, DWORD PTR _this$[ebp]
	mov	eax, DWORD PTR [eax]

; 253  : 		}

	mov	esp, ebp
	pop	ebp
	ret	0
?value@error_code@std@@QBEHXZ ENDP			; std::error_code::value
_TEXT	ENDS
; Function compile flags: /Odtp
;	COMDAT ??_Gerror_category@std@@UAEPAXI@Z
_TEXT	SEGMENT
_this$ = -4						; size = 4
___flags$ = 8						; size = 4
??_Gerror_category@std@@UAEPAXI@Z PROC			; std::error_category::`scalar deleting destructor', COMDAT
; _this$ = ecx
	push	ebp
	mov	ebp, esp
	push	ecx
	mov	DWORD PTR _this$[ebp], ecx
	mov	ecx, DWORD PTR _this$[ebp]
	call	??1error_category@std@@UAE@XZ		; std::error_category::~error_category
	mov	eax, DWORD PTR ___flags$[ebp]
	and	eax, 1
	je	SHORT $LN1@scalar
	mov	ecx, DWORD PTR _this$[ebp]
	push	ecx
	call	??3@YAXPAX@Z				; operator delete
	add	esp, 4
$LN1@scalar:
	mov	eax, DWORD PTR _this$[ebp]
	mov	esp, ebp
	pop	ebp
	ret	4
??_Gerror_category@std@@UAEPAXI@Z ENDP			; std::error_category::`scalar deleting destructor'
_TEXT	ENDS
; Function compile flags: /Odtp
; File c:\program files (x86)\microsoft visual studio 11.0\vc\include\system_error
;	COMDAT ??8error_category@std@@QBE_NABV01@@Z
_TEXT	SEGMENT
_this$ = -8						; size = 4
tv65 = -4						; size = 4
__Right$ = 8						; size = 4
??8error_category@std@@QBE_NABV01@@Z PROC		; std::error_category::operator==, COMDAT
; _this$ = ecx

; 184  : 		{	// compare categories for equality

	push	ebp
	mov	ebp, esp
	sub	esp, 8
	mov	DWORD PTR _this$[ebp], ecx

; 185  : 		return (this == &_Right);

	mov	eax, DWORD PTR _this$[ebp]
	cmp	eax, DWORD PTR __Right$[ebp]
	jne	SHORT $LN3@operator
	mov	DWORD PTR tv65[ebp], 1
	jmp	SHORT $LN4@operator
$LN3@operator:
	mov	DWORD PTR tv65[ebp], 0
$LN4@operator:
	mov	al, BYTE PTR tv65[ebp]

; 186  : 		}

	mov	esp, ebp
	pop	ebp
	ret	4
??8error_category@std@@QBE_NABV01@@Z ENDP		; std::error_category::operator==
_TEXT	ENDS
; Function compile flags: /Odtp
; File c:\program files (x86)\microsoft visual studio 11.0\vc\include\system_error
;	COMDAT ?equivalent@error_category@std@@UBE_NABVerror_code@2@H@Z
_TEXT	SEGMENT
_this$ = -8						; size = 4
tv74 = -4						; size = 4
__Code$ = 8						; size = 4
__Errval$ = 12						; size = 4
?equivalent@error_category@std@@UBE_NABVerror_code@2@H@Z PROC ; std::error_category::equivalent, COMDAT
; _this$ = ecx

; 415  : 	{	// test if conditions same for this category

	push	ebp
	mov	ebp, esp
	sub	esp, 8
	mov	DWORD PTR _this$[ebp], ecx

; 416  : 	return (*this == _Code.category() && _Code.value() == _Errval);

	mov	ecx, DWORD PTR __Code$[ebp]
	call	?category@error_code@std@@QBEABVerror_category@2@XZ ; std::error_code::category
	push	eax
	mov	ecx, DWORD PTR _this$[ebp]
	call	??8error_category@std@@QBE_NABV01@@Z	; std::error_category::operator==
	movzx	eax, al
	test	eax, eax
	je	SHORT $LN3@equivalent
	mov	ecx, DWORD PTR __Code$[ebp]
	call	?value@error_code@std@@QBEHXZ		; std::error_code::value
	cmp	eax, DWORD PTR __Errval$[ebp]
	jne	SHORT $LN3@equivalent
	mov	DWORD PTR tv74[ebp], 1
	jmp	SHORT $LN4@equivalent
$LN3@equivalent:
	mov	DWORD PTR tv74[ebp], 0
$LN4@equivalent:
	mov	al, BYTE PTR tv74[ebp]

; 417  : 	}

	mov	esp, ebp
	pop	ebp
	ret	8
?equivalent@error_category@std@@UBE_NABVerror_code@2@H@Z ENDP ; std::error_category::equivalent
_TEXT	ENDS
; Function compile flags: /Odtp
; File c:\program files (x86)\microsoft visual studio 11.0\vc\include\system_error
;	COMDAT ?equivalent@error_category@std@@UBE_NHABVerror_condition@2@@Z
_TEXT	SEGMENT
$T1 = -12						; size = 8
_this$ = -4						; size = 4
__Errval$ = 8						; size = 4
__Cond$ = 12						; size = 4
?equivalent@error_category@std@@UBE_NHABVerror_condition@2@@Z PROC ; std::error_category::equivalent, COMDAT
; _this$ = ecx

; 408  : 	{	// test if error code same condition

	push	ebp
	mov	ebp, esp
	sub	esp, 12					; 0000000cH
	mov	DWORD PTR _this$[ebp], ecx

; 409  : 	return (default_error_condition(_Errval) == _Cond);

	mov	eax, DWORD PTR __Cond$[ebp]
	push	eax
	mov	ecx, DWORD PTR __Errval$[ebp]
	push	ecx
	lea	edx, DWORD PTR $T1[ebp]
	push	edx
	mov	eax, DWORD PTR _this$[ebp]
	mov	edx, DWORD PTR [eax]
	mov	ecx, DWORD PTR _this$[ebp]
	mov	eax, DWORD PTR [edx+12]
	call	eax
	mov	ecx, eax
	call	??8error_condition@std@@QBE_NABV01@@Z	; std::error_condition::operator==

; 410  : 	}

	mov	esp, ebp
	pop	ebp
	ret	8
?equivalent@error_category@std@@UBE_NHABVerror_condition@2@@Z ENDP ; std::error_category::equivalent
_TEXT	ENDS
; Function compile flags: /Odtp
; File c:\program files (x86)\microsoft visual studio 11.0\vc\include\system_error
;	COMDAT ?default_error_condition@error_category@std@@UBE?AVerror_condition@2@H@Z
_TEXT	SEGMENT
_this$ = -4						; size = 4
___$ReturnUdt$ = 8					; size = 4
__Errval$ = 12						; size = 4
?default_error_condition@error_category@std@@UBE?AVerror_condition@2@H@Z PROC ; std::error_category::default_error_condition, COMDAT
; _this$ = ecx

; 401  : 	{	// make error_condition for error code

	push	ebp
	mov	ebp, esp
	push	ecx
	mov	DWORD PTR _this$[ebp], ecx

; 402  : 	return (error_condition(_Errval, *this));

	mov	eax, DWORD PTR _this$[ebp]
	push	eax
	mov	ecx, DWORD PTR __Errval$[ebp]
	push	ecx
	mov	ecx, DWORD PTR ___$ReturnUdt$[ebp]
	call	??0error_condition@std@@QAE@HABVerror_category@1@@Z ; std::error_condition::error_condition
	mov	eax, DWORD PTR ___$ReturnUdt$[ebp]

; 403  : 	}

	mov	esp, ebp
	pop	ebp
	ret	8
?default_error_condition@error_category@std@@UBE?AVerror_condition@2@H@Z ENDP ; std::error_category::default_error_condition
_TEXT	ENDS
; Function compile flags: /Odtp
; File c:\program files (x86)\microsoft visual studio 11.0\vc\include\system_error
;	COMDAT ??1error_category@std@@UAE@XZ
_TEXT	SEGMENT
_this$ = -4						; size = 4
??1error_category@std@@UAE@XZ PROC			; std::error_category::~error_category, COMDAT
; _this$ = ecx

; 167  : 		{	// destroy the object

	push	ebp
	mov	ebp, esp
	push	ecx
	mov	DWORD PTR _this$[ebp], ecx
	mov	eax, DWORD PTR _this$[ebp]
	mov	DWORD PTR [eax], OFFSET ??_7error_category@std@@6B@

; 168  : 		}

	mov	esp, ebp
	pop	ebp
	ret	0
??1error_category@std@@UAE@XZ ENDP			; std::error_category::~error_category
_TEXT	ENDS
; Function compile flags: /Odtp
; File c:\program files (x86)\microsoft visual studio 11.0\vc\include\system_error
;	COMDAT ??0error_category@std@@QAE@XZ
_TEXT	SEGMENT
_this$ = -4						; size = 4
??0error_category@std@@QAE@XZ PROC			; std::error_category::error_category, COMDAT
; _this$ = ecx

; 162  : 	error_category()

	push	ebp
	mov	ebp, esp
	push	ecx
	mov	DWORD PTR _this$[ebp], ecx
	mov	eax, DWORD PTR _this$[ebp]
	mov	DWORD PTR [eax], OFFSET ??_7error_category@std@@6B@

; 163  : 		{	// default constructor
; 164  : 		}

	mov	eax, DWORD PTR _this$[ebp]
	mov	esp, ebp
	pop	ebp
	ret	0
??0error_category@std@@QAE@XZ ENDP			; std::error_category::error_category
_TEXT	ENDS
; Function compile flags: /Odtp
; File c:\program files (x86)\microsoft visual studio 11.0\vc\include\system_error
;	COMDAT ?system_category@std@@YAABVerror_category@1@XZ
_TEXT	SEGMENT
?system_category@std@@YAABVerror_category@1@XZ PROC	; std::system_category, COMDAT

; 679  : 	{	// get system_category

	push	ebp
	mov	ebp, esp

; 680  : 	return (_Error_objects<int>::_System_object);

	mov	eax, OFFSET ?_System_object@?$_Error_objects@H@std@@2V_System_error_category@2@A ; std::_Error_objects<int>::_System_object

; 681  : 	}

	pop	ebp
	ret	0
?system_category@std@@YAABVerror_category@1@XZ ENDP	; std::system_category
_TEXT	ENDS
; Function compile flags: /Odtp
; File c:\program files (x86)\microsoft visual studio 11.0\vc\include\system_error
;	COMDAT ?generic_category@std@@YAABVerror_category@1@XZ
_TEXT	SEGMENT
?generic_category@std@@YAABVerror_category@1@XZ PROC	; std::generic_category, COMDAT

; 669  : 	{	// get generic_category

	push	ebp
	mov	ebp, esp

; 670  : 	return (_Error_objects<int>::_Generic_object);

	mov	eax, OFFSET ?_Generic_object@?$_Error_objects@H@std@@2V_Generic_error_category@2@A ; std::_Error_objects<int>::_Generic_object

; 671  : 	}

	pop	ebp
	ret	0
?generic_category@std@@YAABVerror_category@1@XZ ENDP	; std::generic_category
_TEXT	ENDS
; Function compile flags: /Odtp
; File c:\program files (x86)\microsoft visual studio 11.0\vc\include\xlocale
;	COMDAT ??0id@locale@std@@QAE@I@Z
_TEXT	SEGMENT
_this$ = -4						; size = 4
__Val$ = 8						; size = 4
??0id@locale@std@@QAE@I@Z PROC				; std::locale::id::id, COMDAT
; _this$ = ecx

; 74   : 			{	// construct with specified stamp value

	push	ebp
	mov	ebp, esp
	push	ecx
	mov	DWORD PTR _this$[ebp], ecx
	mov	eax, DWORD PTR _this$[ebp]
	mov	ecx, DWORD PTR __Val$[ebp]
	mov	DWORD PTR [eax], ecx

; 75   : 			}

	mov	eax, DWORD PTR _this$[ebp]
	mov	esp, ebp
	pop	ebp
	ret	4
??0id@locale@std@@QAE@I@Z ENDP				; std::locale::id::id
_TEXT	ENDS
; Function compile flags: /Odtp
; File c:\users\zhitao li\documents\visual studio 2012\projects\freefalcon\sim\include\object.h
;	COMDAT ?BaseData@SimObjectType@@QAEPAVFalconEntity@@XZ
_TEXT	SEGMENT
_this$ = -4						; size = 4
?BaseData@SimObjectType@@QAEPAVFalconEntity@@XZ PROC	; SimObjectType::BaseData, COMDAT
; _this$ = ecx

; 92   : 	FalconEntity* BaseData(void) { return baseData.get(); };

	push	ebp
	mov	ebp, esp
	push	ecx
	mov	DWORD PTR _this$[ebp], ecx
	mov	ecx, DWORD PTR _this$[ebp]
	call	?get@?$VuBin@VFalconEntity@@@@QBEPAVFalconEntity@@XZ ; VuBin<FalconEntity>::get
	mov	esp, ebp
	pop	ebp
	ret	0
?BaseData@SimObjectType@@QAEPAVFalconEntity@@XZ ENDP	; SimObjectType::BaseData
_TEXT	ENDS
; Function compile flags: /Odtp
; File c:\users\zhitao li\documents\visual studio 2012\projects\freefalcon\sim\include\sensclas.h
;	COMDAT ?Type@SensorClass@@QAE?AW4SensorType@1@XZ
_TEXT	SEGMENT
_this$ = -4						; size = 4
?Type@SensorClass@@QAE?AW4SensorType@1@XZ PROC		; SensorClass::Type, COMDAT
; _this$ = ecx

; 36   : 	SensorType	Type(void)			{ return sensorType; }

	push	ebp
	mov	ebp, esp
	push	ecx
	mov	DWORD PTR _this$[ebp], ecx
	mov	eax, DWORD PTR _this$[ebp]
	mov	eax, DWORD PTR [eax+68]
	mov	esp, ebp
	pop	ebp
	ret	0
?Type@SensorClass@@QAE?AW4SensorType@1@XZ ENDP		; SensorClass::Type
_TEXT	ENDS
; Function compile flags: /Odtp
; File c:\users\zhitao li\documents\visual studio 2012\projects\freefalcon\campaign\include\unit.h
;	COMDAT ?GetUnitTactic@UnitClass@@QBEHXZ
_TEXT	SEGMENT
_this$ = -4						; size = 4
?GetUnitTactic@UnitClass@@QBEHXZ PROC			; UnitClass::GetUnitTactic, COMDAT
; _this$ = ecx

; 375  : 	int GetUnitTactic() const						{ return tactic; }

	push	ebp
	mov	ebp, esp
	push	ecx
	mov	DWORD PTR _this$[ebp], ecx
	mov	eax, DWORD PTR _this$[ebp]
	movzx	eax, BYTE PTR [eax+222]
	mov	esp, ebp
	pop	ebp
	ret	0
?GetUnitTactic@UnitClass@@QBEHXZ ENDP			; UnitClass::GetUnitTactic
_TEXT	ENDS
; Function compile flags: /Odtp
; File c:\users\zhitao li\documents\visual studio 2012\projects\freefalcon\campaign\include\unit.h
;	COMDAT ?GetTarget@UnitClass@@QAEPAVFalconEntity@@XZ
_TEXT	SEGMENT
_this$ = -4						; size = 4
?GetTarget@UnitClass@@QAEPAVFalconEntity@@XZ PROC	; UnitClass::GetTarget, COMDAT
; _this$ = ecx

; 366  : 	FalconEntity* GetTarget (void)					{ return (FalconEntity*) vuDatabase->Find(target_id); }

	push	ebp
	mov	ebp, esp
	push	ecx
	mov	DWORD PTR _this$[ebp], ecx
	mov	eax, DWORD PTR _this$[ebp]
	mov	ecx, DWORD PTR [eax+216]
	push	ecx
	mov	edx, DWORD PTR [eax+212]
	push	edx
	mov	ecx, DWORD PTR ?vuDatabase@@3PAVVuDatabase@@A ; vuDatabase
	call	?Find@VuDatabase@@QBEPAVVuEntity@@VVU_ID@@@Z ; VuDatabase::Find
	mov	esp, ebp
	pop	ebp
	ret	0
?GetTarget@UnitClass@@QAEPAVFalconEntity@@XZ ENDP	; UnitClass::GetTarget
_TEXT	ENDS
; Function compile flags: /Odtp
; File c:\users\zhitao li\documents\visual studio 2012\projects\freefalcon\campaign\include\campbase.h
;	COMDAT ?UnsetChecked@CampBaseClass@@QAEXXZ
_TEXT	SEGMENT
_this$ = -4						; size = 4
?UnsetChecked@CampBaseClass@@QAEXXZ PROC		; CampBaseClass::UnsetChecked, COMDAT
; _this$ = ecx

; 307  : 	void UnsetChecked (void)					{	local_flags &= ~CBC_CHECKED; }

	push	ebp
	mov	ebp, esp
	push	ecx
	mov	DWORD PTR _this$[ebp], ecx
	mov	eax, DWORD PTR _this$[ebp]
	movsx	ecx, WORD PTR [eax+156]
	and	ecx, -2					; fffffffeH
	mov	edx, DWORD PTR _this$[ebp]
	mov	WORD PTR [edx+156], cx
	mov	esp, ebp
	pop	ebp
	ret	0
?UnsetChecked@CampBaseClass@@QAEXXZ ENDP		; CampBaseClass::UnsetChecked
_TEXT	ENDS
; Function compile flags: /Odtp
; File c:\users\zhitao li\documents\visual studio 2012\projects\freefalcon\campaign\include\campbase.h
;	COMDAT ?IsAggregate@CampBaseClass@@QAEHXZ
_TEXT	SEGMENT
_this$ = -4						; size = 4
?IsAggregate@CampBaseClass@@QAEHXZ PROC			; CampBaseClass::IsAggregate, COMDAT
; _this$ = ecx

; 278  : 	int IsAggregate (void)						{	return local_flags & CBC_AGGREGATE; }

	push	ebp
	mov	ebp, esp
	push	ecx
	mov	DWORD PTR _this$[ebp], ecx
	mov	eax, DWORD PTR _this$[ebp]
	movsx	eax, WORD PTR [eax+156]
	and	eax, 128				; 00000080H
	mov	esp, ebp
	pop	ebp
	ret	0
?IsAggregate@CampBaseClass@@QAEHXZ ENDP			; CampBaseClass::IsAggregate
_TEXT	ENDS
; Function compile flags: /Odtp
; File c:\users\zhitao li\documents\visual studio 2012\projects\freefalcon\campaign\include\campbase.h
;	COMDAT ?GetComponents@CampBaseClass@@QBEPAVTailInsertList@@XZ
_TEXT	SEGMENT
_this$ = -4						; size = 4
?GetComponents@CampBaseClass@@QBEPAVTailInsertList@@XZ PROC ; CampBaseClass::GetComponents, COMDAT
; _this$ = ecx

; 141  : 	TailInsertList *GetComponents() const		{	return components; }

	push	ebp
	mov	ebp, esp
	push	ecx
	mov	DWORD PTR _this$[ebp], ecx
	mov	eax, DWORD PTR _this$[ebp]
	mov	eax, DWORD PTR [eax+160]
	mov	esp, ebp
	pop	ebp
	ret	0
?GetComponents@CampBaseClass@@QBEPAVTailInsertList@@XZ ENDP ; CampBaseClass::GetComponents
_TEXT	ENDS
; Function compile flags: /Odtp
; File c:\users\zhitao li\documents\visual studio 2012\projects\freefalcon\sim\include\aircrft.h
;	COMDAT ?IsAcStatusBitsSet@AircraftClass@@QBE_NH@Z
_TEXT	SEGMENT
_this$ = -8						; size = 4
tv67 = -4						; size = 4
_bits$ = 8						; size = 4
?IsAcStatusBitsSet@AircraftClass@@QBE_NH@Z PROC		; AircraftClass::IsAcStatusBitsSet, COMDAT
; _this$ = ecx

; 170  : 	bool IsAcStatusBitsSet(int bits) const { return (status_bits & bits) == bits; }

	push	ebp
	mov	ebp, esp
	sub	esp, 8
	mov	DWORD PTR _this$[ebp], ecx
	mov	eax, DWORD PTR _this$[ebp]
	mov	ecx, DWORD PTR [eax+760]
	and	ecx, DWORD PTR _bits$[ebp]
	cmp	ecx, DWORD PTR _bits$[ebp]
	jne	SHORT $LN3@IsAcStatus
	mov	DWORD PTR tv67[ebp], 1
	jmp	SHORT $LN4@IsAcStatus
$LN3@IsAcStatus:
	mov	DWORD PTR tv67[ebp], 0
$LN4@IsAcStatus:
	mov	al, BYTE PTR tv67[ebp]
	mov	esp, ebp
	pop	ebp
	ret	4
?IsAcStatusBitsSet@AircraftClass@@QBE_NH@Z ENDP		; AircraftClass::IsAcStatusBitsSet
_TEXT	ENDS
; Function compile flags: /Odtp
; File c:\users\zhitao li\documents\visual studio 2012\projects\freefalcon\vu2\include\vu_templates.h
;	COMDAT ?get@?$VuBin@VFalconEntity@@@@QBEPAVFalconEntity@@XZ
_TEXT	SEGMENT
_this$ = -4						; size = 4
?get@?$VuBin@VFalconEntity@@@@QBEPAVFalconEntity@@XZ PROC ; VuBin<FalconEntity>::get, COMDAT
; _this$ = ecx

; 55   : 	E *get() const{

	push	ebp
	mov	ebp, esp
	push	ecx
	mov	DWORD PTR _this$[ebp], ecx

; 56   : 		return e;

	mov	eax, DWORD PTR _this$[ebp]
	mov	eax, DWORD PTR [eax]

; 57   : 	}

	mov	esp, ebp
	pop	ebp
	ret	0
?get@?$VuBin@VFalconEntity@@@@QBEPAVFalconEntity@@XZ ENDP ; VuBin<FalconEntity>::get
_TEXT	ENDS
; Function compile flags: /Odtp
; File c:\users\zhitao li\documents\visual studio 2012\projects\freefalcon\sim\include\simbase.h
;	COMDAT ?GetCampaignObject@SimBaseClass@@QAEPAVCampBaseClass@@XZ
_TEXT	SEGMENT
_this$ = -4						; size = 4
?GetCampaignObject@SimBaseClass@@QAEPAVCampBaseClass@@XZ PROC ; SimBaseClass::GetCampaignObject, COMDAT
; _this$ = ecx

; 212  : 	CampBaseClass *GetCampaignObject (void) { return campaignObject.get(); }

	push	ebp
	mov	ebp, esp
	push	ecx
	mov	DWORD PTR _this$[ebp], ecx
	mov	ecx, DWORD PTR _this$[ebp]
	add	ecx, 144				; 00000090H
	call	?get@?$VuBin@VCampBaseClass@@@@QBEPAVCampBaseClass@@XZ ; VuBin<CampBaseClass>::get
	mov	esp, ebp
	pop	ebp
	ret	0
?GetCampaignObject@SimBaseClass@@QAEPAVCampBaseClass@@XZ ENDP ; SimBaseClass::GetCampaignObject
_TEXT	ENDS
; Function compile flags: /Odtp
; File c:\users\zhitao li\documents\visual studio 2012\projects\freefalcon\sim\include\simbase.h
;	COMDAT ?IsSetFlag@SimBaseClass@@QBEHH@Z
_TEXT	SEGMENT
_this$ = -8						; size = 4
tv68 = -4						; size = 4
_flag$ = 8						; size = 4
?IsSetFlag@SimBaseClass@@QBEHH@Z PROC			; SimBaseClass::IsSetFlag, COMDAT
; _this$ = ecx

; 178  : 	int  IsSetFlag(int flag) const { return ((specialData.flags & flag) ? TRUE : FALSE); }

	push	ebp
	mov	ebp, esp
	sub	esp, 8
	mov	DWORD PTR _this$[ebp], ecx
	mov	eax, DWORD PTR _this$[ebp]
	mov	ecx, DWORD PTR [eax+172]
	and	ecx, DWORD PTR _flag$[ebp]
	je	SHORT $LN3@IsSetFlag
	mov	DWORD PTR tv68[ebp], 1
	jmp	SHORT $LN4@IsSetFlag
$LN3@IsSetFlag:
	mov	DWORD PTR tv68[ebp], 0
$LN4@IsSetFlag:
	mov	eax, DWORD PTR tv68[ebp]
	mov	esp, ebp
	pop	ebp
	ret	4
?IsSetFlag@SimBaseClass@@QBEHH@Z ENDP			; SimBaseClass::IsSetFlag
_TEXT	ENDS
; Function compile flags: /Odtp
; File c:\users\zhitao li\documents\visual studio 2012\projects\freefalcon\sim\include\simbase.h
;	COMDAT ?IsAwake@SimBaseClass@@QBEHXZ
_TEXT	SEGMENT
_this$ = -4						; size = 4
?IsAwake@SimBaseClass@@QBEHXZ PROC			; SimBaseClass::IsAwake, COMDAT
; _this$ = ecx

; 177  : 	int IsAwake() const { return localFlags & OBJ_AWAKE; }

	push	ebp
	mov	ebp, esp
	push	ecx
	mov	DWORD PTR _this$[ebp], ecx
	mov	eax, DWORD PTR _this$[ebp]
	movzx	eax, BYTE PTR [eax+284]
	and	eax, 1
	mov	esp, ebp
	pop	ebp
	ret	0
?IsAwake@SimBaseClass@@QBEHXZ ENDP			; SimBaseClass::IsAwake
_TEXT	ENDS
; Function compile flags: /Odtp
; File c:\users\zhitao li\documents\visual studio 2012\projects\freefalcon\vu2\include\vu_templates.h
;	COMDAT ?get@?$VuBin@VCampBaseClass@@@@QBEPAVCampBaseClass@@XZ
_TEXT	SEGMENT
_this$ = -4						; size = 4
?get@?$VuBin@VCampBaseClass@@@@QBEPAVCampBaseClass@@XZ PROC ; VuBin<CampBaseClass>::get, COMDAT
; _this$ = ecx

; 55   : 	E *get() const{

	push	ebp
	mov	ebp, esp
	push	ecx
	mov	DWORD PTR _this$[ebp], ecx

; 56   : 		return e;

	mov	eax, DWORD PTR _this$[ebp]
	mov	eax, DWORD PTR [eax]

; 57   : 	}

	mov	esp, ebp
	pop	ebp
	ret	0
?get@?$VuBin@VCampBaseClass@@@@QBEPAVCampBaseClass@@XZ ENDP ; VuBin<CampBaseClass>::get
_TEXT	ENDS
; Function compile flags: /Odtp
; File c:\users\zhitao li\documents\visual studio 2012\projects\freefalcon\sim\include\digi.h
;	COMDAT ?IsSetATC@DigitalBrain@@QAEHH@Z
_TEXT	SEGMENT
_this$ = -8						; size = 4
tv68 = -4						; size = 4
_flag$ = 8						; size = 4
?IsSetATC@DigitalBrain@@QAEHH@Z PROC			; DigitalBrain::IsSetATC, COMDAT
; _this$ = ecx

; 709  : 	int		IsSetATC(int flag)								{return (atcFlags & flag) && TRUE;}

	push	ebp
	mov	ebp, esp
	sub	esp, 8
	mov	DWORD PTR _this$[ebp], ecx
	mov	eax, DWORD PTR _this$[ebp]
	mov	ecx, DWORD PTR [eax+300]
	and	ecx, DWORD PTR _flag$[ebp]
	je	SHORT $LN3@IsSetATC
	mov	edx, 1
	test	edx, edx
	je	SHORT $LN3@IsSetATC
	mov	DWORD PTR tv68[ebp], 1
	jmp	SHORT $LN4@IsSetATC
$LN3@IsSetATC:
	mov	DWORD PTR tv68[ebp], 0
$LN4@IsSetATC:
	mov	eax, DWORD PTR tv68[ebp]
	mov	esp, ebp
	pop	ebp
	ret	4
?IsSetATC@DigitalBrain@@QAEHH@Z ENDP			; DigitalBrain::IsSetATC
_TEXT	ENDS
; Function compile flags: /Odtp
; File c:\users\zhitao li\documents\visual studio 2012\projects\freefalcon\sim\digi\targeting.cpp
_TEXT	SEGMENT
_target$ = -12						; size = 4
_campUnit$ = -8						; size = 4
_this$ = -4						; size = 4
?CampTargetSelection@DigitalBrain@@IAEPAVFalconEntity@@XZ PROC ; DigitalBrain::CampTargetSelection
; _this$ = ecx

; 467  : {

	push	ebp
	mov	ebp, esp
	sub	esp, 12					; 0000000cH
	mov	DWORD PTR _this$[ebp], ecx

; 468  : 	UnitClass *campUnit = (UnitClass *)self->GetCampaignObject();

	mov	eax, DWORD PTR _this$[ebp]
	mov	ecx, DWORD PTR [eax+56]
	call	?GetCampaignObject@SimBaseClass@@QAEPAVCampBaseClass@@XZ ; SimBaseClass::GetCampaignObject
	mov	DWORD PTR _campUnit$[ebp], eax

; 469  : 	FalconEntity *target;
; 470  : 
; 471  : 	// at this point we have no target, we're going to ask the campaign
; 472  : 	// to find out what we're supposed to hit
; 473  : 	// tell unit we haven't done any checking on it yet
; 474  : 	campUnit->UnsetChecked();

	mov	ecx, DWORD PTR _campUnit$[ebp]
	call	?UnsetChecked@CampBaseClass@@QAEXXZ	; CampBaseClass::UnsetChecked

; 475  : 
; 476  : 	// choose target.  I assume if this returns 0, no target....
; 477  : 	if ( !campUnit->ChooseTarget() )

	mov	ecx, DWORD PTR _campUnit$[ebp]
	mov	edx, DWORD PTR [ecx]
	mov	ecx, DWORD PTR _campUnit$[ebp]
	mov	eax, DWORD PTR [edx+524]
	call	eax
	test	eax, eax
	jne	SHORT $LN5@CampTarget

; 478  : 		return NULL;

	xor	eax, eax
	jmp	$LN6@CampTarget
$LN5@CampTarget:

; 479  : 
; 480  : 	// get the target
; 481  : 	target = campUnit->GetTarget();

	mov	ecx, DWORD PTR _campUnit$[ebp]
	call	?GetTarget@UnitClass@@QAEPAVFalconEntity@@XZ ; UnitClass::GetTarget
	mov	DWORD PTR _target$[ebp], eax

; 482  : 
; 483  : 	// do we have a target?
; 484  : 	if ( !target )

	cmp	DWORD PTR _target$[ebp], 0
	jne	SHORT $LN4@CampTarget

; 485  : 		return NULL;

	xor	eax, eax
	jmp	$LN6@CampTarget
$LN4@CampTarget:

; 486  : 
; 487  : 
; 488  : 	// get tactic -- not doing anything with it now
; 489  : 	campUnit->ChooseTactic();

	mov	ecx, DWORD PTR _campUnit$[ebp]
	mov	edx, DWORD PTR [ecx]
	mov	ecx, DWORD PTR _campUnit$[ebp]
	mov	eax, DWORD PTR [edx+496]
	call	eax

; 490  : 	campTactic = campUnit->GetUnitTactic();

	mov	ecx, DWORD PTR _campUnit$[ebp]
	call	?GetUnitTactic@UnitClass@@QBEHXZ	; UnitClass::GetUnitTactic
	mov	ecx, DWORD PTR _this$[ebp]
	mov	DWORD PTR [ecx+52], eax

; 491  : 
; 492  : 	// set ground target pointer if on ground!
; 493  : 	// never, ever set targetPtr to ground object
; 494  : // 2000-09-27 MODIFIED BY S.G. AI NEED TO SET ITS TARGET POINTER IF IT HAS REACHED ITS IP WAYPOINT AS WELL
; 495  : //	if ( target->OnGround() && (missionClass == AAMission || missionComplete) && hasWeapons)
; 496  : 	if ( target->OnGround() && (missionClass == AAMission || missionComplete || IsSetATC(ReachedIP)) && hasWeapons)

	mov	edx, DWORD PTR _target$[ebp]
	mov	eax, DWORD PTR [edx]
	mov	ecx, DWORD PTR _target$[ebp]
	mov	edx, DWORD PTR [eax+148]
	call	edx
	test	eax, eax
	je	SHORT $LN3@CampTarget
	mov	eax, DWORD PTR _this$[ebp]
	cmp	DWORD PTR [eax+288], 1
	je	SHORT $LN2@CampTarget
	mov	ecx, DWORD PTR _this$[ebp]
	cmp	DWORD PTR [ecx+292], 0
	jne	SHORT $LN2@CampTarget
	push	2097152					; 00200000H
	mov	ecx, DWORD PTR _this$[ebp]
	call	?IsSetATC@DigitalBrain@@QAEHH@Z		; DigitalBrain::IsSetATC
	test	eax, eax
	je	SHORT $LN3@CampTarget
$LN2@CampTarget:
	mov	edx, DWORD PTR _this$[ebp]
	cmp	DWORD PTR [edx+216], 0
	je	SHORT $LN3@CampTarget

; 497  : 	{
; 498  : 		if ( !groundTargetPtr )

	mov	eax, DWORD PTR _this$[ebp]
	cmp	DWORD PTR [eax+224], 0
	jne	SHORT $LN1@CampTarget

; 499  : 		{
; 500  : 			SetGroundTarget( target );

	mov	ecx, DWORD PTR _target$[ebp]
	push	ecx
	mov	ecx, DWORD PTR _this$[ebp]
	call	?SetGroundTarget@DigitalBrain@@IAEXPAVFalconEntity@@@Z ; DigitalBrain::SetGroundTarget

; 501  : 			SetupAGMode( NULL, NULL );

	push	0
	push	0
	mov	ecx, DWORD PTR _this$[ebp]
	call	?SetupAGMode@DigitalBrain@@IAEXPAVWayPointClass@@0@Z ; DigitalBrain::SetupAGMode
$LN1@CampTarget:

; 502  : 		}
; 503  : 		return NULL;

	xor	eax, eax
	jmp	SHORT $LN6@CampTarget
$LN3@CampTarget:

; 504  : 	}
; 505  : 
; 506  : #ifdef DEBUG_TARGETING
; 507  : {
; 508  : float rng;
; 509  : 
; 510  :    rng = (float)sqrt((campBaseTarg->XPos()-self->XPos())*(campBaseTarg->XPos()-self->XPos()) +
; 511  :          (campBaseTarg->YPos()-self->YPos())*(campBaseTarg->YPos()-self->YPos()));
; 512  :    MonoPrint ("%s-%d set camp target %s : range = %.2f\n", ((DrawableBSP*)self->drawPointer)->Label(), isWing + 1,
; 513  :       ((UnitClass*)targetPtr->BaseData())->GetUnitClassName(), rng * FT_TO_NM);
; 514  : }
; 515  : #endif
; 516  : 
; 517  : 	// Return the selected campaign target
; 518  : 	return target;

	mov	eax, DWORD PTR _target$[ebp]
$LN6@CampTarget:

; 519  : }

	mov	esp, ebp
	pop	ebp
	ret	0
?CampTargetSelection@DigitalBrain@@IAEPAVFalconEntity@@XZ ENDP ; DigitalBrain::CampTargetSelection
_TEXT	ENDS
; Function compile flags: /Odtp
; File c:\users\zhitao li\documents\visual studio 2012\projects\freefalcon\sim\digi\targeting.cpp
_TEXT	SEGMENT
tv749 = -100						; size = 8
tv735 = -92						; size = 8
_maxTargetPtr$ = -84					; size = 8
_testme$1 = -76						; size = 4
_doNothing$2 = -72					; size = 4
_maxThreatPtr$ = -68					; size = 4
_theRadar$ = -64					; size = 4
tv745 = -60						; size = 4
tv731 = -56						; size = 4
_foundSpike$ = -52					; size = 4
tv434 = -48						; size = 4
tv413 = -44						; size = 4
_tmpLock$3 = -40					; size = 4
tv148 = -36						; size = 4
tv135 = -32						; size = 4
tv90 = -28						; size = 4
_i$4 = -24						; size = 4
_baseScore$ = -20					; size = 4
_curSpike$ = -16					; size = 4
_objectPtr$ = -12					; size = 4
_baseData$5 = -8					; size = 4
_this$ = -4						; size = 4
?TargetSelection@DigitalBrain@@IAEXXZ PROC		; DigitalBrain::TargetSelection
; _this$ = ecx

; 193  : {

	push	ebp
	mov	ebp, esp
	sub	esp, 100				; 00000064H
	push	esi
	mov	DWORD PTR _this$[ebp], ecx

; 194  : 	//float threatTime = MAX_THREAT_TIME - 1;
; 195  : 	//float targetTime = MAX_TARGET_TIME - 1;
; 196  : 	int baseScore = 0;

	mov	DWORD PTR _baseScore$[ebp], 0

; 197  : 
; 198  : 	FalconEntity* curSpike = NULL;

	mov	DWORD PTR _curSpike$[ebp], 0

; 199  : 	SimObjectType* objectPtr;
; 200  : 	SimObjectType* maxTargetPtr[2];
; 201  : 	SimObjectType* maxThreatPtr;
; 202  : 	BOOL foundSpike = FALSE;

	mov	DWORD PTR _foundSpike$[ebp], 0

; 203  : 	RadarClass* theRadar = (RadarClass*)FindSensor(self, SensorClass::Radar);

	push	1
	mov	eax, DWORD PTR _this$[ebp]
	mov	ecx, DWORD PTR [eax+56]
	push	ecx
	call	?FindSensor@@YAPAVSensorClass@@PAVSimMoverClass@@H@Z ; FindSensor
	add	esp, 8
	mov	DWORD PTR _theRadar$[ebp], eax

; 204  : 
; 205  : 	// stay on current target
; 206  : 	if ( targetPtr && (
; 207  : 			targetPtr->BaseData()->IsExploding() || targetPtr->BaseData()->IsDead() ||
; 208  : 			(
; 209  : 				targetPtr->BaseData()->IsAirplane() &&
; 210  : 				((AircraftClass*)targetPtr->BaseData())->IsAcStatusBitsSet(
; 211  : 					AircraftClass::ACSTATUS_PILOT_EJECTED
; 212  : 				)
; 213  : 			)
; 214  : 		)
; 215  : 	){

	mov	edx, DWORD PTR _this$[ebp]
	cmp	DWORD PTR [edx+12], 0
	je	$LN47@TargetSele
	mov	eax, DWORD PTR _this$[ebp]
	mov	ecx, DWORD PTR [eax+12]
	call	?BaseData@SimObjectType@@QAEPAVFalconEntity@@XZ ; SimObjectType::BaseData
	mov	DWORD PTR tv90[ebp], eax
	mov	ecx, DWORD PTR tv90[ebp]
	mov	edx, DWORD PTR [ecx]
	mov	ecx, DWORD PTR tv90[ebp]
	mov	eax, DWORD PTR [edx+208]
	call	eax
	test	eax, eax
	jne	SHORT $LN46@TargetSele
	mov	ecx, DWORD PTR _this$[ebp]
	mov	ecx, DWORD PTR [ecx+12]
	call	?BaseData@SimObjectType@@QAEPAVFalconEntity@@XZ ; SimObjectType::BaseData
	mov	DWORD PTR tv135[ebp], eax
	mov	edx, DWORD PTR tv135[ebp]
	mov	eax, DWORD PTR [edx]
	mov	ecx, DWORD PTR tv135[ebp]
	mov	edx, DWORD PTR [eax+212]
	call	edx
	test	eax, eax
	jne	SHORT $LN46@TargetSele
	mov	eax, DWORD PTR _this$[ebp]
	mov	ecx, DWORD PTR [eax+12]
	call	?BaseData@SimObjectType@@QAEPAVFalconEntity@@XZ ; SimObjectType::BaseData
	mov	DWORD PTR tv148[ebp], eax
	mov	ecx, DWORD PTR tv148[ebp]
	mov	edx, DWORD PTR [ecx]
	mov	ecx, DWORD PTR tv148[ebp]
	mov	eax, DWORD PTR [edx+192]
	call	eax
	test	eax, eax
	je	SHORT $LN47@TargetSele
	push	1
	mov	ecx, DWORD PTR _this$[ebp]
	mov	ecx, DWORD PTR [ecx+12]
	call	?BaseData@SimObjectType@@QAEPAVFalconEntity@@XZ ; SimObjectType::BaseData
	mov	ecx, eax
	call	?IsAcStatusBitsSet@AircraftClass@@QBE_NH@Z ; AircraftClass::IsAcStatusBitsSet
	movzx	edx, al
	test	edx, edx
	je	SHORT $LN47@TargetSele
$LN46@TargetSele:

; 216  : 		ClearTarget();		

	mov	ecx, DWORD PTR _this$[ebp]
	call	?ClearTarget@BaseBrain@@QAEXXZ		; BaseBrain::ClearTarget
$LN47@TargetSele:

; 217  : 	}
; 218  : 
; 219  : 	maxTargetPtr[0] = NULL;

	mov	eax, 4
	imul	eax, 0
	mov	DWORD PTR _maxTargetPtr$[ebp+eax], 0

; 220  : 	maxTargetPtr[1] = NULL;

	mov	ecx, 4
	shl	ecx, 0
	mov	DWORD PTR _maxTargetPtr$[ebp+ecx], 0

; 221  : 	maxThreatPtr = NULL;

	mov	DWORD PTR _maxThreatPtr$[ebp], 0

; 222  : 
; 223  : 	curSpike = SpikeCheck (self);

	push	0
	push	0
	mov	edx, DWORD PTR _this$[ebp]
	mov	eax, DWORD PTR [edx+56]
	push	eax
	call	?SpikeCheck@@YAPAVFalconEntity@@PAVAircraftClass@@PAV1@PAH@Z ; SpikeCheck
	add	esp, 12					; 0000000cH
	mov	DWORD PTR _curSpike$[ebp], eax

; 224  :    
; 225  : 	objectPtr = targetList;

	mov	ecx, DWORD PTR _this$[ebp]
	mov	edx, DWORD PTR [ecx+376]
	mov	DWORD PTR _objectPtr$[ebp], edx
$LN52@TargetSele:

; 226  : 
; 227  : 	// sfr: removed JB check
; 228  : 	// && !F4IsBadReadPtr(objectPtr, sizeof(SimObjectType))) // JB 010224 CTD
; 229  : 	while (objectPtr){

	cmp	DWORD PTR _objectPtr$[ebp], 0
	je	$LN44@TargetSele

; 230  : 		FalconEntity *baseData = objectPtr->BaseData();

	mov	ecx, DWORD PTR _objectPtr$[ebp]
	call	?BaseData@SimObjectType@@QAEPAVFalconEntity@@XZ ; SimObjectType::BaseData
	mov	DWORD PTR _baseData$5[ebp], eax

; 231  : 		if ( 
; 232  : 			(baseData == NULL) || (baseData->VuState() != VU_MEM_ACTIVE) || 
; 233  : 			//F4IsBadCodePtr((FARPROC) objectPtr->BaseData()) || // JB 010224 CTD
; 234  : 		    baseData->IsSim() && (
; 235  : 				baseData->IsWeapon() || baseData->IsEject() || (
; 236  : 					baseData->IsAirplane() &&  ((AircraftClass*)baseData)->IsAcStatusBitsSet(
; 237  : 						AircraftClass::ACSTATUS_PILOT_EJECTED
; 238  : 					)
; 239  : 				)
; 240  : 			) ||
; 241  : 			(objectPtr->localData->range > maxEngageRange)
; 242  : 		){

	cmp	DWORD PTR _baseData$5[ebp], 0
	je	SHORT $LN42@TargetSele
	mov	ecx, DWORD PTR _baseData$5[ebp]
	call	?VuState@VuEntity@@QBE?AW4VU_MEM@@XZ	; VuEntity::VuState
	cmp	eax, 3
	jne	SHORT $LN42@TargetSele
	mov	ecx, DWORD PTR _baseData$5[ebp]
	call	?IsSim@FalconEntity@@QAEHXZ		; FalconEntity::IsSim
	test	eax, eax
	je	SHORT $LN40@TargetSele
	mov	eax, DWORD PTR _baseData$5[ebp]
	mov	edx, DWORD PTR [eax]
	mov	ecx, DWORD PTR _baseData$5[ebp]
	mov	eax, DWORD PTR [edx+204]
	call	eax
	test	eax, eax
	jne	SHORT $LN42@TargetSele
	mov	ecx, DWORD PTR _baseData$5[ebp]
	mov	edx, DWORD PTR [ecx]
	mov	ecx, DWORD PTR _baseData$5[ebp]
	mov	eax, DWORD PTR [edx+188]
	call	eax
	test	eax, eax
	jne	SHORT $LN42@TargetSele
	mov	ecx, DWORD PTR _baseData$5[ebp]
	mov	edx, DWORD PTR [ecx]
	mov	ecx, DWORD PTR _baseData$5[ebp]
	mov	eax, DWORD PTR [edx+192]
	call	eax
	test	eax, eax
	je	SHORT $LN40@TargetSele
	push	1
	mov	ecx, DWORD PTR _baseData$5[ebp]
	call	?IsAcStatusBitsSet@AircraftClass@@QBE_NH@Z ; AircraftClass::IsAcStatusBitsSet
	movzx	ecx, al
	test	ecx, ecx
	jne	SHORT $LN42@TargetSele
$LN40@TargetSele:
	mov	edx, DWORD PTR _objectPtr$[ebp]
	mov	eax, DWORD PTR [edx+12]
	mov	ecx, DWORD PTR _this$[ebp]
	movss	xmm0, DWORD PTR [eax+44]
	comiss	xmm0, DWORD PTR [ecx+476]
	jbe	SHORT $LN43@TargetSele
$LN42@TargetSele:

; 243  : 			objectPtr = objectPtr->next;

	mov	edx, DWORD PTR _objectPtr$[ebp]
	mov	eax, DWORD PTR [edx+16]
	mov	DWORD PTR _objectPtr$[ebp], eax

; 244  : 			continue;

	jmp	$LN52@TargetSele
$LN43@TargetSele:

; 245  : 		}
; 246  : 
; 247  : 		// Cobra add this to clear out dead missiles?
; 248  : 		if (
; 249  : 			baseData->IsSim() &&
; 250  : 			((SimBaseClass *)baseData)->incomingMissile[0] &&
; 251  : 			((SimBaseClass *)baseData)->incomingMissile[0]->IsDead()
; 252  : 		){

	mov	ecx, DWORD PTR _baseData$5[ebp]
	call	?IsSim@FalconEntity@@QAEHXZ		; FalconEntity::IsSim
	test	eax, eax
	je	SHORT $LN39@TargetSele
	mov	ecx, 4
	imul	ecx, 0
	mov	edx, DWORD PTR _baseData$5[ebp]
	cmp	DWORD PTR [edx+ecx+420], 0
	je	SHORT $LN39@TargetSele
	mov	eax, 4
	imul	eax, 0
	mov	ecx, DWORD PTR _baseData$5[ebp]
	mov	edx, DWORD PTR [ecx+eax+420]
	mov	eax, 4
	imul	eax, 0
	mov	ecx, DWORD PTR _baseData$5[ebp]
	mov	edx, DWORD PTR [edx]
	mov	ecx, DWORD PTR [ecx+eax+420]
	mov	eax, DWORD PTR [edx+340]
	call	eax
	test	eax, eax
	je	SHORT $LN39@TargetSele

; 253  : 			((SimBaseClass *)baseData)->incomingMissile[0]=NULL;

	mov	ecx, 4
	imul	ecx, 0
	mov	edx, DWORD PTR _baseData$5[ebp]
	mov	DWORD PTR [edx+ecx+420], 0
$LN39@TargetSele:

; 254  : 		}
; 255  : 
; 256  : 		// S.G.ADDED SECTION. MAKE SUR OUR SENSOR IS SEEING HIM BEFORE WE DO ANYTHING WITH HIM...
; 257  : 		// WILL HOLD THE LOCKED OBJECT IF THE SENSOR COULD LOCK IT
; 258  : 		SimObjectType* tmpLock = NULL;                            

	mov	DWORD PTR _tmpLock$3[ebp], 0

; 259  : 		for (int i=0; i<self->numSensors; i++) {

	mov	DWORD PTR _i$4[ebp], 0
	jmp	SHORT $LN38@TargetSele
$LN37@TargetSele:
	mov	eax, DWORD PTR _i$4[ebp]
	add	eax, 1
	mov	DWORD PTR _i$4[ebp], eax
$LN38@TargetSele:
	mov	ecx, DWORD PTR _this$[ebp]
	mov	edx, DWORD PTR [ecx+56]
	mov	eax, DWORD PTR _i$4[ebp]
	cmp	eax, DWORD PTR [edx+652]
	jge	SHORT $LN36@TargetSele

; 260  : 			ShiAssert( self->sensorArray[i] );
; 261  : 			if (objectPtr->localData->sensorState[self->sensorArray[i]->Type()] > SensorClass::NoTrack) {

	mov	ecx, DWORD PTR _objectPtr$[ebp]
	mov	esi, DWORD PTR [ecx+12]
	mov	edx, DWORD PTR _this$[ebp]
	mov	eax, DWORD PTR [edx+56]
	mov	ecx, DWORD PTR [eax+648]
	mov	edx, DWORD PTR _i$4[ebp]
	mov	ecx, DWORD PTR [ecx+edx*4]
	call	?Type@SensorClass@@QAE?AW4SensorType@1@XZ ; SensorClass::Type
	cmp	DWORD PTR [esi+eax*4+192], 0
	jle	SHORT $LN35@TargetSele

; 262  : 				// CAN SEE AND DETECT IT
; 263  : 				tmpLock = objectPtr;

	mov	eax, DWORD PTR _objectPtr$[ebp]
	mov	DWORD PTR _tmpLock$3[ebp], eax

; 264  : 				break;

	jmp	SHORT $LN36@TargetSele
$LN35@TargetSele:

; 265  : 			}
; 266  : 		}

	jmp	SHORT $LN37@TargetSele
$LN36@TargetSele:

; 267  : 
; 268  : 		if (!tmpLock) {

	cmp	DWORD PTR _tmpLock$3[ebp], 0
	jne	$LN33@TargetSele

; 269  : 			// IF NO SENSOR IS SEEING THIS GUY, HOW CAN WE TRACK HIM?
; 270  : 			// 2001-03-16 ADDED BY S.G. THIS IS OUR GCI IMPLEMENTATION... 
; 271  : 			// EVEN IF NO SENSORS ON HIM, ACE AND VETERAN GETS TO USE GCI 
; 272  : 			if (/*SkillLevel() < g_nLowestSkillForGCI ||*/ 
; 273  : 				objectPtr->localData->range >= 60.0F * NM_TO_FT || 
; 274  : 				!(
; 275  : 					(
; 276  : 						baseData->IsSim() && 
; 277  : 						((SimBaseClass*)baseData)->GetCampaignObject()->GetSpotted(self->GetTeam())
; 278  : 					) || 
; 279  : 					(
; 280  : 						baseData->IsCampaign() && 
; 281  : 						((CampBaseClass*)baseData)->GetSpotted(self->GetTeam())
; 282  : 					)
; 283  : 				)
; 284  : 			){

	mov	ecx, DWORD PTR _objectPtr$[ebp]
	mov	edx, DWORD PTR [ecx+12]
	movss	xmm0, DWORD PTR [edx+44]
	comiss	xmm0, DWORD PTR __real@48b20395
	jae	SHORT $LN30@TargetSele
	mov	ecx, DWORD PTR _baseData$5[ebp]
	call	?IsSim@FalconEntity@@QAEHXZ		; FalconEntity::IsSim
	test	eax, eax
	je	SHORT $LN31@TargetSele
	mov	eax, DWORD PTR _this$[ebp]
	mov	ecx, DWORD PTR [eax+56]
	mov	edx, DWORD PTR _this$[ebp]
	mov	eax, DWORD PTR [ecx]
	mov	ecx, DWORD PTR [edx+56]
	mov	edx, DWORD PTR [eax+116]
	call	edx
	movzx	eax, al
	push	eax
	mov	ecx, DWORD PTR _baseData$5[ebp]
	call	?GetCampaignObject@SimBaseClass@@QAEPAVCampBaseClass@@XZ ; SimBaseClass::GetCampaignObject
	mov	ecx, eax
	call	?GetSpotted@CampBaseClass@@QAEHE@Z	; CampBaseClass::GetSpotted
	test	eax, eax
	jne	SHORT $LN33@TargetSele
$LN31@TargetSele:
	mov	ecx, DWORD PTR _baseData$5[ebp]
	call	?IsCampaign@FalconEntity@@QAEHXZ	; FalconEntity::IsCampaign
	test	eax, eax
	je	SHORT $LN30@TargetSele
	mov	ecx, DWORD PTR _this$[ebp]
	mov	edx, DWORD PTR [ecx+56]
	mov	eax, DWORD PTR _this$[ebp]
	mov	edx, DWORD PTR [edx]
	mov	ecx, DWORD PTR [eax+56]
	mov	eax, DWORD PTR [edx+116]
	call	eax
	movzx	ecx, al
	push	ecx
	mov	ecx, DWORD PTR _baseData$5[ebp]
	call	?GetSpotted@CampBaseClass@@QAEHE@Z	; CampBaseClass::GetSpotted
	test	eax, eax
	jne	SHORT $LN33@TargetSele
$LN30@TargetSele:

; 285  : 				objectPtr = objectPtr->next;

	mov	edx, DWORD PTR _objectPtr$[ebp]
	mov	eax, DWORD PTR [edx+16]
	mov	DWORD PTR _objectPtr$[ebp], eax

; 286  : 				continue;

	jmp	$LN52@TargetSele
$LN33@TargetSele:

; 287  : 			}
; 288  : 		}
; 289  : 
; 290  : 		// 2001-08-04 MODIFIED BY S.G. objectPtr CAN BE A CAMPAIGN OBJECT. NEED TO ACCOUNT FOR THIS
; 291  : 		if (baseData->IsSim() && ((SimBaseClass *)objectPtr->BaseData())->pctStrength <= 0.0f){

	mov	ecx, DWORD PTR _baseData$5[ebp]
	call	?IsSim@FalconEntity@@QAEHXZ		; FalconEntity::IsSim
	test	eax, eax
	je	SHORT $LN29@TargetSele
	mov	ecx, DWORD PTR _objectPtr$[ebp]
	call	?BaseData@SimObjectType@@QAEPAVFalconEntity@@XZ ; SimObjectType::BaseData
	movss	xmm0, DWORD PTR __real@00000000
	comiss	xmm0, DWORD PTR [eax+292]
	jb	SHORT $LN29@TargetSele

; 292  : 			// Dying target have a damage less than 0.0f
; 293  : 			objectPtr = objectPtr->next;

	mov	ecx, DWORD PTR _objectPtr$[ebp]
	mov	edx, DWORD PTR [ecx+16]
	mov	DWORD PTR _objectPtr$[ebp], edx

; 294  : 			continue;

	jmp	$LN52@TargetSele
	jmp	SHORT $LN23@TargetSele
$LN29@TargetSele:

; 295  : 		}
; 296  : 		// Increase priority of spike
; 297  : 		else if (baseData == curSpike){

	mov	eax, DWORD PTR _baseData$5[ebp]
	cmp	eax, DWORD PTR _curSpike$[ebp]
	jne	SHORT $LN27@TargetSele

; 298  : 			//objectPtr->localData->threatTime *= 0.8F + (1.0F - SkillLevel()/4.0F) * 0.8F;
; 299  : 			objectPtr->localData->threatScore +=30;

	mov	ecx, DWORD PTR _objectPtr$[ebp]
	mov	edx, DWORD PTR [ecx+12]
	mov	eax, DWORD PTR [edx+160]
	add	eax, 30					; 0000001eH
	mov	ecx, DWORD PTR _objectPtr$[ebp]
	mov	edx, DWORD PTR [ecx+12]
	mov	DWORD PTR [edx+160], eax

; 300  : 			foundSpike = TRUE;

	mov	DWORD PTR _foundSpike$[ebp], 1
	jmp	SHORT $LN23@TargetSele
$LN27@TargetSele:

; 301  : 		}
; 302  : 
; 303  : 		// 2000-09-12 ADDED BY S.G. 
; 304  : 		// IF THE TARGET ALREADY HAS A MISSILES ON ITS WAY AND 
; 305  : 		// WE DIDN'T SHOOT IT, DECREASE ITS PRIORITY BY 4. THIS WILL MAKE THE CURRENT LESS LIKEABLE 
; 306  : 		/*else if (objectPtr->BaseData()->IsSim() && ((SimBaseClass *)objectPtr->BaseData())->incomingMissile[0] && ((SimWeaponClass *)((SimBaseClass *)objectPtr->BaseData())->incomingMissile[0])->parent != self)
; 307  : 			//objectPtr->localData->targetTime *= 4.0f;
; 308  : 			//objectPtr->localData->threatScore -= 20;*/
; 309  : 		else if (baseData->IsSim() && ((SimBaseClass *)baseData)->incomingMissile[0]){

	mov	ecx, DWORD PTR _baseData$5[ebp]
	call	?IsSim@FalconEntity@@QAEHXZ		; FalconEntity::IsSim
	test	eax, eax
	je	SHORT $LN23@TargetSele
	mov	eax, 4
	imul	eax, 0
	mov	ecx, DWORD PTR _baseData$5[ebp]
	cmp	DWORD PTR [ecx+eax+420], 0
	je	SHORT $LN23@TargetSele

; 310  : 			if (theRadar->digiRadarMode == RadarClass::DigiSTT){

	mov	edx, DWORD PTR _theRadar$[ebp]
	cmp	DWORD PTR [edx+128], 0
	jne	SHORT $LN24@TargetSele

; 311  : 				int doNothing = 1; //Cobra just keep going since we are guiding a missile in this mode

	mov	DWORD PTR _doNothing$2[ebp], 1

; 312  : 			}
; 313  : 			else {

	jmp	SHORT $LN23@TargetSele
$LN24@TargetSele:

; 314  : 				//objectPtr = objectPtr->next;
; 315  : 				//continue;
; 316  : 				objectPtr->localData->threatScore =1;//we give it one so if there is nothing else it will

	mov	eax, DWORD PTR _objectPtr$[ebp]
	mov	ecx, DWORD PTR [eax+12]
	mov	DWORD PTR [ecx+160], 1
$LN23@TargetSele:

; 317  : 				//at least target this aircraft
; 318  : 			}
; 319  : 		}
; 320  : 
; 321  :       // Increase priority of current target
; 322  :      /* if (targetPtr && objectPtr->BaseData() == targetPtr->BaseData()) {
; 323  :          //objectPtr->localData->targetTime *= 0.5f;
; 324  : 		 //objectPtr->localData->threatTime *= 0.5f;
; 325  : 		  objectPtr->localData->threatScore += 30;
; 326  : 
; 327  :       }*/
; 328  : 
; 329  : 		/*if (objectPtr->localData->threatTime < threatTime)
; 330  : 		{
; 331  : 			threatTime = objectPtr->localData->threatTime;
; 332  : 			maxThreatPtr = objectPtr;
; 333  : 		}
; 334  : 
; 335  : 		if (objectPtr->localData->targetTime < targetTime)
; 336  : 		{
; 337  : 			targetTime = objectPtr->localData->targetTime;
; 338  : 			maxTargetPtr = objectPtr;
; 339  : 		}*/
; 340  : 		//Cobra test we want to force a retarget
; 341  : 		//TODO don't do this if you have to support a missile
; 342  : 		if (objectPtr->localData->threatScore > 0 && objectPtr->localData->threatScore >= baseScore)

	mov	edx, DWORD PTR _objectPtr$[ebp]
	mov	eax, DWORD PTR [edx+12]
	cmp	DWORD PTR [eax+160], 0
	jle	SHORT $LN20@TargetSele
	mov	ecx, DWORD PTR _objectPtr$[ebp]
	mov	edx, DWORD PTR [ecx+12]
	mov	eax, DWORD PTR [edx+160]
	cmp	eax, DWORD PTR _baseScore$[ebp]
	jl	SHORT $LN20@TargetSele

; 343  : 			{
; 344  : 			//if (objectPtr->BaseData()->IsSim())
; 345  : 				//{
; 346  : 				//if (!((SimBaseClass *)objectPtr->BaseData())->incomingMissile[0]/* && ((SimWeaponClass *)((SimBaseClass *)objectPtr->BaseData())->incomingMissile[0])->parent != self*/)
; 347  : 					//{
; 348  : 					baseScore = objectPtr->localData->threatScore;

	mov	ecx, DWORD PTR _objectPtr$[ebp]
	mov	edx, DWORD PTR [ecx+12]
	mov	eax, DWORD PTR [edx+160]
	mov	DWORD PTR _baseScore$[ebp], eax

; 349  : 					if (maxTargetPtr[0]==NULL)

	mov	ecx, 4
	imul	ecx, 0
	cmp	DWORD PTR _maxTargetPtr$[ebp+ecx], 0
	jne	SHORT $LN21@TargetSele

; 350  : 						maxTargetPtr[0] = objectPtr;

	mov	edx, 4
	imul	edx, 0
	mov	eax, DWORD PTR _objectPtr$[ebp]
	mov	DWORD PTR _maxTargetPtr$[ebp+edx], eax
$LN21@TargetSele:

; 351  : 
; 352  : 					if (maxTargetPtr[0]!=NULL)

	mov	ecx, 4
	imul	ecx, 0
	cmp	DWORD PTR _maxTargetPtr$[ebp+ecx], 0
	je	SHORT $LN20@TargetSele

; 353  : 						{
; 354  : 						maxTargetPtr[1] = maxTargetPtr[0];

	mov	edx, 4
	imul	edx, 0
	mov	eax, 4
	shl	eax, 0
	mov	ecx, DWORD PTR _maxTargetPtr$[ebp+edx]
	mov	DWORD PTR _maxTargetPtr$[ebp+eax], ecx

; 355  : 						maxTargetPtr[0] = objectPtr;

	mov	edx, 4
	imul	edx, 0
	mov	eax, DWORD PTR _objectPtr$[ebp]
	mov	DWORD PTR _maxTargetPtr$[ebp+edx], eax
$LN20@TargetSele:

; 356  : 						}
; 357  : 						
; 358  : 
; 359  : 					//}
; 360  : 				//}
; 361  : 			}
; 362  : 
; 363  :       objectPtr = objectPtr->next;

	mov	ecx, DWORD PTR _objectPtr$[ebp]
	mov	edx, DWORD PTR [ecx+16]
	mov	DWORD PTR _objectPtr$[ebp], edx

; 364  : 	}

	jmp	$LN52@TargetSele
$LN44@TargetSele:

; 365  : 	//Cobra we want to hold on targeting bombers for 15 seconds to be sure we don't miss a fighter target
; 366  : 	if (baseScore <= 5 && targetTimer == 0){

	cmp	DWORD PTR _baseScore$[ebp], 5
	jg	SHORT $LN19@TargetSele
	mov	eax, DWORD PTR _this$[ebp]
	cmp	DWORD PTR [eax+536], 0
	jne	SHORT $LN19@TargetSele

; 367  : 		targetTimer = SimLibElapsedTime + 60000;

	mov	ecx, DWORD PTR ?SimLibElapsedTime@@3KA	; SimLibElapsedTime
	add	ecx, 60000				; 0000ea60H
	mov	edx, DWORD PTR _this$[ebp]
	mov	DWORD PTR [edx+536], ecx
$LN19@TargetSele:

; 368  : 	}
; 369  : 
; 370  : 	if (missionType != AMIS_AIRCAV ) {

	mov	eax, DWORD PTR _this$[ebp]
	cmp	DWORD PTR [eax+284], 32			; 00000020H
	je	$LN18@TargetSele

; 371  : 	   /*if (threatTime < targetTime && maxThreatPtr && !maxThreatPtr->BaseData()->OnGround() )
; 372  : 		  SetTarget(maxThreatPtr);
; 373  : 	   else if (targetTime < MAX_TARGET_TIME && maxTargetPtr && !maxTargetPtr->BaseData()->OnGround() )
; 374  : 		  SetTarget(maxTargetPtr);*/
; 375  : 		if (baseScore <= 5 && targetTimer < SimLibElapsedTime && maxTargetPtr[0] && !maxTargetPtr[0]->BaseData()->OnGround()){

	cmp	DWORD PTR _baseScore$[ebp], 5
	jg	SHORT $LN17@TargetSele
	mov	ecx, DWORD PTR _this$[ebp]
	mov	edx, DWORD PTR [ecx+536]
	cmp	edx, DWORD PTR ?SimLibElapsedTime@@3KA	; SimLibElapsedTime
	jae	SHORT $LN17@TargetSele
	mov	eax, 4
	imul	eax, 0
	cmp	DWORD PTR _maxTargetPtr$[ebp+eax], 0
	je	SHORT $LN17@TargetSele
	mov	ecx, 4
	imul	ecx, 0
	mov	ecx, DWORD PTR _maxTargetPtr$[ebp+ecx]
	call	?BaseData@SimObjectType@@QAEPAVFalconEntity@@XZ ; SimObjectType::BaseData
	mov	DWORD PTR tv413[ebp], eax
	mov	edx, DWORD PTR tv413[ebp]
	mov	eax, DWORD PTR [edx]
	mov	ecx, DWORD PTR tv413[ebp]
	mov	edx, DWORD PTR [eax+148]
	call	edx
	test	eax, eax
	jne	SHORT $LN17@TargetSele

; 376  : 			SetTarget(maxTargetPtr[0]);

	mov	eax, 4
	imul	eax, 0
	mov	ecx, DWORD PTR _maxTargetPtr$[ebp+eax]
	push	ecx
	mov	edx, DWORD PTR _this$[ebp]
	mov	eax, DWORD PTR [edx]
	mov	ecx, DWORD PTR _this$[ebp]
	mov	edx, DWORD PTR [eax+40]
	call	edx

; 377  : 			targetTimer = 0;

	mov	eax, DWORD PTR _this$[ebp]
	mov	DWORD PTR [eax+536], 0
	jmp	$LN9@TargetSele
$LN17@TargetSele:

; 378  : 		}
; 379  : 		else if (baseScore > 5 && maxTargetPtr[0] && !maxTargetPtr[0]->BaseData()->OnGround()){

	cmp	DWORD PTR _baseScore$[ebp], 5
	jle	SHORT $LN15@TargetSele
	mov	ecx, 4
	imul	ecx, 0
	cmp	DWORD PTR _maxTargetPtr$[ebp+ecx], 0
	je	SHORT $LN15@TargetSele
	mov	edx, 4
	imul	edx, 0
	mov	ecx, DWORD PTR _maxTargetPtr$[ebp+edx]
	call	?BaseData@SimObjectType@@QAEPAVFalconEntity@@XZ ; SimObjectType::BaseData
	mov	DWORD PTR tv434[ebp], eax
	mov	eax, DWORD PTR tv434[ebp]
	mov	edx, DWORD PTR [eax]
	mov	ecx, DWORD PTR tv434[ebp]
	mov	eax, DWORD PTR [edx+148]
	call	eax
	test	eax, eax
	jne	SHORT $LN15@TargetSele

; 380  : 			SetTarget(maxTargetPtr[0]);

	mov	ecx, 4
	imul	ecx, 0
	mov	edx, DWORD PTR _maxTargetPtr$[ebp+ecx]
	push	edx
	mov	eax, DWORD PTR _this$[ebp]
	mov	edx, DWORD PTR [eax]
	mov	ecx, DWORD PTR _this$[ebp]
	mov	eax, DWORD PTR [edx+40]
	call	eax
	jmp	SHORT $LN9@TargetSele
$LN15@TargetSele:

; 381  : 		}
; 382  : 		else if (curSpike && !curSpike->OnGround() && !foundSpike){

	cmp	DWORD PTR _curSpike$[ebp], 0
	je	SHORT $LN13@TargetSele
	mov	ecx, DWORD PTR _curSpike$[ebp]
	mov	edx, DWORD PTR [ecx]
	mov	ecx, DWORD PTR _curSpike$[ebp]
	mov	eax, DWORD PTR [edx+148]
	call	eax
	test	eax, eax
	jne	SHORT $LN13@TargetSele
	cmp	DWORD PTR _foundSpike$[ebp], 0
	jne	SHORT $LN13@TargetSele

; 383  : 			SetThreat (curSpike);

	mov	ecx, DWORD PTR _curSpike$[ebp]
	push	ecx
	mov	ecx, DWORD PTR _this$[ebp]
	call	?SetThreat@DigitalBrain@@IAEXPAVFalconEntity@@@Z ; DigitalBrain::SetThreat
	jmp	SHORT $LN9@TargetSele
$LN13@TargetSele:

; 384  : 		}
; 385  : 		else if (curSpike && curSpike->OnGround()){

	cmp	DWORD PTR _curSpike$[ebp], 0
	je	SHORT $LN11@TargetSele
	mov	edx, DWORD PTR _curSpike$[ebp]
	mov	eax, DWORD PTR [edx]
	mov	ecx, DWORD PTR _curSpike$[ebp]
	mov	edx, DWORD PTR [eax+148]
	call	edx
	test	eax, eax
	je	SHORT $LN11@TargetSele

; 386  : 			SetGroundTarget(curSpike);

	mov	eax, DWORD PTR _curSpike$[ebp]
	push	eax
	mov	ecx, DWORD PTR _this$[ebp]
	call	?SetGroundTarget@DigitalBrain@@IAEXPAVFalconEntity@@@Z ; DigitalBrain::SetGroundTarget
	jmp	SHORT $LN9@TargetSele
$LN11@TargetSele:

; 387  : 		}
; 388  : 		else if (baseScore <= 5 && targetTimer < SimLibElapsedTime){

	cmp	DWORD PTR _baseScore$[ebp], 5
	jg	SHORT $LN9@TargetSele
	mov	ecx, DWORD PTR _this$[ebp]
	mov	edx, DWORD PTR [ecx+536]
	cmp	edx, DWORD PTR ?SimLibElapsedTime@@3KA	; SimLibElapsedTime
	jae	SHORT $LN9@TargetSele

; 389  : 			ClearTarget();

	mov	ecx, DWORD PTR _this$[ebp]
	call	?ClearTarget@BaseBrain@@QAEXXZ		; BaseBrain::ClearTarget

; 390  : 			AddMode (WaypointMode);

	push	22					; 00000016H
	mov	ecx, DWORD PTR _this$[ebp]
	call	?AddMode@DigitalBrain@@IAEXW4DigiMode@1@@Z ; DigitalBrain::AddMode
$LN9@TargetSele:

; 391  : 		}
; 392  : 	}
; 393  : 	else {

	jmp	SHORT $LN7@TargetSele
$LN18@TargetSele:

; 394  : 		int testme = 0;

	mov	DWORD PTR _testme$1[ebp], 0

; 395  : 		// airground mission, if pickup and drop off completely ignore
; 396  : 		// threats
; 397  : 		if ( missionType == AMIS_AIRCAV ){

	mov	eax, DWORD PTR _this$[ebp]
	cmp	DWORD PTR [eax+284], 32			; 00000020H
	jne	SHORT $LN7@TargetSele

; 398  : 			ClearTarget();

	mov	ecx, DWORD PTR _this$[ebp]
	call	?ClearTarget@BaseBrain@@QAEXXZ		; BaseBrain::ClearTarget

; 399  : 			AddMode (WaypointMode);

	push	22					; 00000016H
	mov	ecx, DWORD PTR _this$[ebp]
	call	?AddMode@DigitalBrain@@IAEXW4DigiMode@1@@Z ; DigitalBrain::AddMode
$LN7@TargetSele:

; 400  : 		}
; 401  : 	/*
; 402  : 	   else if (threatTime < targetTime &&
; 403  : 	   	   maxThreatPtr &&
; 404  : 		   maxThreatPtr->BaseData()->IsAirplane() &&
; 405  : 		   !maxThreatPtr->BaseData()->OnGround() &&
; 406  : 		   maxThreatPtr->localData->range < 5.0f * NM_TO_FT )
; 407  : 	   {
; 408  : 		  SetTarget(maxThreatPtr);
; 409  : 	   }
; 410  : 	   else if (targetTime < MAX_TARGET_TIME &&
; 411  : 	            maxTargetPtr &&
; 412  : 				maxTargetPtr->BaseData()->IsAirplane() &&
; 413  : 				!maxTargetPtr->BaseData()->OnGround() &&
; 414  : 				maxTargetPtr->localData->range < 5.0f * NM_TO_FT )
; 415  : 	   {
; 416  : 		  SetTarget(maxTargetPtr);
; 417  : 	   }
; 418  : 	   else if (curSpike &&
; 419  : 	   			curSpike->IsAirplane() &&
; 420  : 				!curSpike->OnGround() &&
; 421  : 				!foundSpike)
; 422  : 	   {
; 423  : 		  float dx, dy, dist;
; 424  : 
; 425  : 		  dx = self->XPos() - curSpike->XPos();
; 426  : 		  dy = self->YPos() - curSpike->YPos();
; 427  : 
; 428  : 		  dist = dx * dx + dy * dy;
; 429  : 
; 430  : 		  if ( dist < 5.0f * NM_TO_FT * 5.0f * NM_TO_FT ) 
; 431  : 		   SetThreat (curSpike);
; 432  : 		  else
; 433  : 		  {
; 434  : 			  ClearTarget();
; 435  : 		      AddMode (WaypointMode);
; 436  : 		  }
; 437  : 	   }
; 438  : 	   else
; 439  : 	   {
; 440  : 		  ClearTarget();
; 441  : 		  AddMode (WaypointMode);
; 442  : 	   }*/
; 443  : 	}
; 444  : 
; 445  : 	// Turn on jamming if possible
; 446  : 	if (curSpike && !jammertime || (flightLead && flightLead->IsSPJamming())){

	cmp	DWORD PTR _curSpike$[ebp], 0
	je	SHORT $LN4@TargetSele
	mov	ecx, DWORD PTR _this$[ebp]
	movss	xmm0, DWORD PTR [ecx+464]
	ucomiss	xmm0, DWORD PTR __real@00000000
	lahf
	test	ah, 68					; 00000044H
	jnp	SHORT $LN5@TargetSele
$LN4@TargetSele:
	mov	edx, DWORD PTR _this$[ebp]
	cmp	DWORD PTR [edx+708], 0
	je	$LN6@TargetSele
	mov	eax, DWORD PTR _this$[ebp]
	mov	ecx, DWORD PTR [eax+708]
	mov	edx, DWORD PTR _this$[ebp]
	mov	eax, DWORD PTR [ecx]
	mov	ecx, DWORD PTR [edx+708]
	mov	edx, DWORD PTR [eax+268]
	call	edx
	test	eax, eax
	je	SHORT $LN6@TargetSele
$LN5@TargetSele:

; 447  : 		if (self->HasSPJamming()){

	mov	eax, DWORD PTR _this$[ebp]
	mov	ecx, DWORD PTR [eax+56]
	mov	edx, DWORD PTR _this$[ebp]
	mov	eax, DWORD PTR [ecx]
	mov	ecx, DWORD PTR [edx+56]
	mov	edx, DWORD PTR [eax+276]
	call	edx
	test	eax, eax
	je	SHORT $LN3@TargetSele

; 448  : 			self->SetFlag(ECM_ON);

	push	2
	mov	eax, DWORD PTR _this$[ebp]
	mov	ecx, DWORD PTR [eax+56]
	call	?SetFlag@SimBaseClass@@QAEXH@Z		; SimBaseClass::SetFlag

; 449  : 			jammertime = SimLibElapsedTime + 60000.0f;

	mov	ecx, DWORD PTR ?SimLibElapsedTime@@3KA	; SimLibElapsedTime
	mov	DWORD PTR tv731[ebp], ecx
	cvtsi2sd xmm0, DWORD PTR tv731[ebp]
	mov	edx, DWORD PTR tv731[ebp]
	shr	edx, 31					; 0000001fH
	addsd	xmm0, QWORD PTR __xmm@41f00000000000000000000000000000[edx*8]
	movsd	QWORD PTR tv735[ebp], xmm0
	cvtsd2ss xmm0, QWORD PTR tv735[ebp]
	addss	xmm0, DWORD PTR __real@476a6000
	mov	eax, DWORD PTR _this$[ebp]
	movss	DWORD PTR [eax+464], xmm0
$LN3@TargetSele:

; 450  : 		}
; 451  : 	}

	jmp	SHORT $LN1@TargetSele
$LN6@TargetSele:

; 452  : 	else if (jammertime && jammertime < SimLibElapsedTime){

	mov	ecx, DWORD PTR _this$[ebp]
	movss	xmm0, DWORD PTR [ecx+464]
	ucomiss	xmm0, DWORD PTR __real@00000000
	lahf
	test	ah, 68					; 00000044H
	jnp	SHORT $LN1@TargetSele
	mov	edx, DWORD PTR ?SimLibElapsedTime@@3KA	; SimLibElapsedTime
	mov	DWORD PTR tv745[ebp], edx
	cvtsi2sd xmm0, DWORD PTR tv745[ebp]
	mov	eax, DWORD PTR tv745[ebp]
	shr	eax, 31					; 0000001fH
	addsd	xmm0, QWORD PTR __xmm@41f00000000000000000000000000000[eax*8]
	movsd	QWORD PTR tv749[ebp], xmm0
	cvtsd2ss xmm0, QWORD PTR tv749[ebp]
	mov	ecx, DWORD PTR _this$[ebp]
	comiss	xmm0, DWORD PTR [ecx+464]
	jbe	SHORT $LN1@TargetSele

; 453  : 		jammertime = 0;

	mov	edx, DWORD PTR _this$[ebp]
	movss	xmm0, DWORD PTR __real@00000000
	movss	DWORD PTR [edx+464], xmm0

; 454  : 		self->UnSetFlag(ECM_ON);

	push	2
	mov	eax, DWORD PTR _this$[ebp]
	mov	ecx, DWORD PTR [eax+56]
	call	?UnSetFlag@SimBaseClass@@QAEXH@Z	; SimBaseClass::UnSetFlag
$LN1@TargetSele:

; 455  : 	}
; 456  : }

	pop	esi
	mov	esp, ebp
	pop	ebp
	ret	0
?TargetSelection@DigitalBrain@@IAEXXZ ENDP		; DigitalBrain::TargetSelection
_TEXT	ENDS
; Function compile flags: /Odtp
; File c:\users\zhitao li\documents\visual studio 2012\projects\freefalcon\sim\digi\targeting.cpp
_TEXT	SEGMENT
_this$ = -16						; size = 4
tv143 = -12						; size = 4
_last$ = -8						; size = 4
_tmpPtr$ = -4						; size = 4
_root$ = 8						; size = 4
_newObj$ = 12						; size = 4
?InsertIntoTargetList@DigitalBrain@@IAEPAVSimObjectType@@PAV2@0@Z PROC ; DigitalBrain::InsertIntoTargetList
; _this$ = ecx

; 523  : {

	push	ebp
	mov	ebp, esp
	sub	esp, 16					; 00000010H
	push	esi
	mov	DWORD PTR _this$[ebp], ecx

; 524  : SimObjectType	*tmpPtr;
; 525  : SimObjectType	*last = NULL;

	mov	DWORD PTR _last$[ebp], 0

; 526  : 
; 527  : 	// This new object had better NOT be in someone elses list
; 528  : 	ShiAssert(newObj->next == NULL);
; 529  : 	ShiAssert(newObj->prev == NULL);
; 530  : 
; 531  :    // Stuff the new sim thing into the list
; 532  :    tmpPtr = root;

	mov	eax, DWORD PTR _root$[ebp]
	mov	DWORD PTR _tmpPtr$[ebp], eax

; 533  : 
; 534  :    // No list, so make it the list
; 535  :    if (tmpPtr == NULL)

	cmp	DWORD PTR _tmpPtr$[ebp], 0
	jne	SHORT $LN11@InsertInto

; 536  :    {
; 537  :       root = newObj;

	mov	ecx, DWORD PTR _newObj$[ebp]
	mov	DWORD PTR _root$[ebp], ecx

; 538  :       newObj->Reference(  );

	mov	ecx, DWORD PTR _newObj$[ebp]
	call	?Reference@SimObjectType@@QAEXXZ	; SimObjectType::Reference

; 539  :    }
; 540  :    else

	jmp	$LN12@InsertInto
$LN11@InsertInto:

; 541  :    {
; 542  :       while (tmpPtr && SimCompare (tmpPtr->BaseData(), newObj->BaseData()) < 0)

	cmp	DWORD PTR _tmpPtr$[ebp], 0
	je	SHORT $LN10@InsertInto
	mov	ecx, DWORD PTR _newObj$[ebp]
	call	?BaseData@SimObjectType@@QAEPAVFalconEntity@@XZ ; SimObjectType::BaseData
	push	eax
	mov	ecx, DWORD PTR _tmpPtr$[ebp]
	call	?BaseData@SimObjectType@@QAEPAVFalconEntity@@XZ ; SimObjectType::BaseData
	push	eax
	call	?SimCompare@@YAHPAVVuEntity@@0@Z	; SimCompare
	add	esp, 8
	test	eax, eax
	jge	SHORT $LN10@InsertInto

; 543  :       {
; 544  :          last = tmpPtr;

	mov	edx, DWORD PTR _tmpPtr$[ebp]
	mov	DWORD PTR _last$[ebp], edx

; 545  :          tmpPtr = tmpPtr->next;

	mov	eax, DWORD PTR _tmpPtr$[ebp]
	mov	ecx, DWORD PTR [eax+16]
	mov	DWORD PTR _tmpPtr$[ebp], ecx

; 546  :       }

	jmp	SHORT $LN11@InsertInto
$LN10@InsertInto:

; 547  : 
; 548  :       if (!last && (tmpPtr->BaseData() != newObj->BaseData()))

	cmp	DWORD PTR _last$[ebp], 0
	jne	SHORT $LN9@InsertInto
	mov	ecx, DWORD PTR _tmpPtr$[ebp]
	call	?BaseData@SimObjectType@@QAEPAVFalconEntity@@XZ ; SimObjectType::BaseData
	mov	esi, eax
	mov	ecx, DWORD PTR _newObj$[ebp]
	call	?BaseData@SimObjectType@@QAEPAVFalconEntity@@XZ ; SimObjectType::BaseData
	cmp	esi, eax
	je	SHORT $LN9@InsertInto

; 549  :       {
; 550  :          F4Assert (tmpPtr != newObj);
; 551  :          // Goes at the front
; 552  :          newObj->next = root;

	mov	edx, DWORD PTR _newObj$[ebp]
	mov	eax, DWORD PTR _root$[ebp]
	mov	DWORD PTR [edx+16], eax

; 553  :          root->prev = newObj;

	mov	ecx, DWORD PTR _root$[ebp]
	mov	edx, DWORD PTR _newObj$[ebp]
	mov	DWORD PTR [ecx+20], edx

; 554  :          root = newObj;

	mov	eax, DWORD PTR _newObj$[ebp]
	mov	DWORD PTR _root$[ebp], eax

; 555  :          newObj->Reference(  );

	mov	ecx, DWORD PTR _newObj$[ebp]
	call	?Reference@SimObjectType@@QAEXXZ	; SimObjectType::Reference
	jmp	$LN12@InsertInto
$LN9@InsertInto:

; 556  :       }
; 557  :       // Goes at the end
; 558  :       else if (tmpPtr == NULL)

	cmp	DWORD PTR _tmpPtr$[ebp], 0
	jne	SHORT $LN7@InsertInto

; 559  :       {
; 560  :          last->next = newObj;

	mov	ecx, DWORD PTR _last$[ebp]
	mov	edx, DWORD PTR _newObj$[ebp]
	mov	DWORD PTR [ecx+16], edx

; 561  :          newObj->prev = last;

	mov	eax, DWORD PTR _newObj$[ebp]
	mov	ecx, DWORD PTR _last$[ebp]
	mov	DWORD PTR [eax+20], ecx

; 562  :          newObj->Reference(  );

	mov	ecx, DWORD PTR _newObj$[ebp]
	call	?Reference@SimObjectType@@QAEXXZ	; SimObjectType::Reference
	jmp	$LN12@InsertInto
$LN7@InsertInto:

; 563  :       }
; 564  :       // Somewhere in the middle, but not already in there
; 565  :       else if (tmpPtr->BaseData() != newObj->BaseData())

	mov	ecx, DWORD PTR _tmpPtr$[ebp]
	call	?BaseData@SimObjectType@@QAEPAVFalconEntity@@XZ ; SimObjectType::BaseData
	mov	esi, eax
	mov	ecx, DWORD PTR _newObj$[ebp]
	call	?BaseData@SimObjectType@@QAEPAVFalconEntity@@XZ ; SimObjectType::BaseData
	cmp	esi, eax
	je	SHORT $LN5@InsertInto

; 566  :       {
; 567  :          last->next = newObj;

	mov	edx, DWORD PTR _last$[ebp]
	mov	eax, DWORD PTR _newObj$[ebp]
	mov	DWORD PTR [edx+16], eax

; 568  :          newObj->prev = last;

	mov	ecx, DWORD PTR _newObj$[ebp]
	mov	edx, DWORD PTR _last$[ebp]
	mov	DWORD PTR [ecx+20], edx

; 569  : 
; 570  :          tmpPtr->prev = newObj;

	mov	eax, DWORD PTR _tmpPtr$[ebp]
	mov	ecx, DWORD PTR _newObj$[ebp]
	mov	DWORD PTR [eax+20], ecx

; 571  :          newObj->next = tmpPtr;

	mov	edx, DWORD PTR _newObj$[ebp]
	mov	eax, DWORD PTR _tmpPtr$[ebp]
	mov	DWORD PTR [edx+16], eax

; 572  :          newObj->Reference(  );

	mov	ecx, DWORD PTR _newObj$[ebp]
	call	?Reference@SimObjectType@@QAEXXZ	; SimObjectType::Reference
	jmp	SHORT $LN12@InsertInto
$LN5@InsertInto:

; 573  :       }
; 574  :       // Must already be in the list
; 575  :       else if (tmpPtr != newObj)

	mov	ecx, DWORD PTR _tmpPtr$[ebp]
	cmp	ecx, DWORD PTR _newObj$[ebp]
	je	SHORT $LN3@InsertInto

; 576  :       {
; 577  :          F4Assert (tmpPtr->BaseData() == newObj->BaseData());
; 578  : 		 if ( !tmpPtr->BaseData()->OnGround() )

	mov	ecx, DWORD PTR _tmpPtr$[ebp]
	call	?BaseData@SimObjectType@@QAEPAVFalconEntity@@XZ ; SimObjectType::BaseData
	mov	DWORD PTR tv143[ebp], eax
	mov	edx, DWORD PTR tv143[ebp]
	mov	eax, DWORD PTR [edx]
	mov	ecx, DWORD PTR tv143[ebp]
	mov	edx, DWORD PTR [eax+148]
	call	edx
	test	eax, eax
	jne	SHORT $LN2@InsertInto

; 579  :          	SetTarget (tmpPtr);

	mov	eax, DWORD PTR _tmpPtr$[ebp]
	push	eax
	mov	ecx, DWORD PTR _this$[ebp]
	mov	edx, DWORD PTR [ecx]
	mov	ecx, DWORD PTR _this$[ebp]
	mov	eax, DWORD PTR [edx+40]
	call	eax
$LN2@InsertInto:

; 580  : 
; 581  : 		 // we don't need this any more -- and it shouldn't have any refs
; 582  : 		 newObj->Reference(  );

	mov	ecx, DWORD PTR _newObj$[ebp]
	call	?Reference@SimObjectType@@QAEXXZ	; SimObjectType::Reference

; 583  : 		 newObj->Release(  );

	mov	ecx, DWORD PTR _newObj$[ebp]
	call	?Release@SimObjectType@@QAEXXZ		; SimObjectType::Release

; 584  : 
; 585  :       }
; 586  : 	  else

	jmp	SHORT $LN12@InsertInto
$LN3@InsertInto:

; 587  : 	  {
; 588  : 		 // how did we get here?
; 589  : 		 // we don't need this any more
; 590  : 		 newObj->Reference(  );

	mov	ecx, DWORD PTR _newObj$[ebp]
	call	?Reference@SimObjectType@@QAEXXZ	; SimObjectType::Reference

; 591  : 		 newObj->Release(  );

	mov	ecx, DWORD PTR _newObj$[ebp]
	call	?Release@SimObjectType@@QAEXXZ		; SimObjectType::Release
$LN12@InsertInto:

; 592  : 	  }
; 593  :    }
; 594  : 
; 595  :    return root;

	mov	eax, DWORD PTR _root$[ebp]

; 596  : }

	pop	esi
	mov	esp, ebp
	pop	ebp
	ret	8
?InsertIntoTargetList@DigitalBrain@@IAEPAVSimObjectType@@PAV2@0@Z ENDP ; DigitalBrain::InsertIntoTargetList
_TEXT	ENDS
; Function compile flags: /Odtp
; File c:\users\zhitao li\documents\visual studio 2012\projects\freefalcon\sim\digi\targeting.cpp
_TEXT	SEGMENT
_tmpobj$2 = -124					; size = 4
_newTarg$3 = -120					; size = 4
$T4 = -116						; size = 4
tv774 = -112						; size = 4
tv778 = -108						; size = 4
tv681 = -104						; size = 4
tv780 = -100						; size = 4
tv676 = -96						; size = 4
tv672 = -92						; size = 4
tv776 = -88						; size = 4
tv667 = -84						; size = 4
tv770 = -80						; size = 4
tv663 = -76						; size = 4
tv772 = -72						; size = 4
tv658 = -68						; size = 4
tv654 = -64						; size = 4
tv768 = -60						; size = 4
tv649 = -56						; size = 4
_newTarg$5 = -52					; size = 4
$T6 = -48						; size = 4
tv416 = -44						; size = 4
$T7 = -40						; size = 4
_rngSqr$ = -36						; size = 4
tv250 = -32						; size = 4
$T8 = -28						; size = 4
_simobj$9 = -24						; size = 4
_campTarget$ = -20					; size = 4
_this$ = -16						; size = 4
__$EHRec$ = -12						; size = 12
?DoTargeting@DigitalBrain@@IAEXXZ PROC			; DigitalBrain::DoTargeting
; _this$ = ecx

; 35   : {

	push	ebp
	mov	ebp, esp
	push	-1
	push	__ehhandler$?DoTargeting@DigitalBrain@@IAEXXZ
	mov	eax, DWORD PTR fs:0
	push	eax
	sub	esp, 112				; 00000070H
	mov	eax, DWORD PTR ___security_cookie
	xor	eax, ebp
	push	eax
	lea	eax, DWORD PTR __$EHRec$[ebp]
	mov	DWORD PTR fs:0, eax
	mov	DWORD PTR _this$[ebp], ecx

; 36   : 	FalconEntity* campTarget = NULL;

	mov	DWORD PTR _campTarget$[ebp], 0

; 37   : 	float rngSqr = FLT_MAX;

	movss	xmm0, DWORD PTR __real@7f7fffff
	movss	DWORD PTR _rngSqr$[ebp], xmm0

; 38   : 
; 39   :    // Use parent target list for start
; 40   :    targetList = self->targetList;

	mov	eax, DWORD PTR _this$[ebp]
	mov	ecx, DWORD PTR [eax+56]
	mov	edx, DWORD PTR _this$[ebp]
	mov	eax, DWORD PTR [ecx+660]
	mov	DWORD PTR [edx+376], eax

; 41   : 
; 42   :    /*-----------------------------*/
; 43   :    /* Calculate relative geometry */
; 44   :    /*-----------------------------*/
; 45   :    if (targetPtr)

	mov	ecx, DWORD PTR _this$[ebp]
	cmp	DWORD PTR [ecx+12], 0
	je	SHORT $LN29@DoTargetin

; 46   :    {
; 47   :       targetData = targetPtr->localData;

	mov	edx, DWORD PTR _this$[ebp]
	mov	eax, DWORD PTR [edx+12]
	mov	ecx, DWORD PTR _this$[ebp]
	mov	edx, DWORD PTR [eax+12]
	mov	DWORD PTR [ecx+20], edx

; 48   :       ataDot  = (targetData->ata - lastAta) / SimLibMajorFrameTime;

	mov	eax, DWORD PTR _this$[ebp]
	mov	ecx, DWORD PTR [eax+20]
	mov	edx, DWORD PTR _this$[ebp]
	movss	xmm0, DWORD PTR [ecx]
	subss	xmm0, DWORD PTR [edx+372]
	divss	xmm0, DWORD PTR ?SimLibMajorFrameTime@@3MA
	mov	eax, DWORD PTR _this$[ebp]
	movss	DWORD PTR [eax+368], xmm0

; 49   :       lastAta   = targetData->ata;

	mov	ecx, DWORD PTR _this$[ebp]
	mov	edx, DWORD PTR [ecx+20]
	mov	eax, DWORD PTR _this$[ebp]
	mov	ecx, DWORD PTR [edx]
	mov	DWORD PTR [eax+372], ecx

; 50   :    }
; 51   :    else

	jmp	SHORT $LN28@DoTargetin
$LN29@DoTargetin:

; 52   :    {
; 53   :       targetData = NULL;

	mov	edx, DWORD PTR _this$[ebp]
	mov	DWORD PTR [edx+20], 0
$LN28@DoTargetin:

; 54   :    }
; 55   : 
; 56   :    // only flight leads update their target lists and scan.
; 57   :    // furthermore they only do this when in waypoint mode and
; 58   :    // we're in not in campaign or tactical
; 59   :    // When they decide to engage, they'll fix a target (or flight)
; 60   :    // and then begin continuous monitoring of that target only in
; 61   :    // an engagement mode.  This will occur up until the engagement is
; 62   :    // broken (or we die in engagement).  Returning to waypoint mode
; 63   :    // will return to scanning.
; 64   : 
; 65   : 	 // Cobra - Not being set from human's 0 after going digi with CAP AP
; 66   : 	 if (self->targetUpdateRate == 0)

	mov	eax, DWORD PTR _this$[ebp]
	mov	ecx, DWORD PTR [eax+56]
	cmp	DWORD PTR [ecx+708], 0
	jne	SHORT $LN27@DoTargetin

; 67   :       self->targetUpdateRate = (5 * SEC_TO_MSEC);

	mov	edx, DWORD PTR _this$[ebp]
	mov	eax, DWORD PTR [edx+56]
	mov	DWORD PTR [eax+708], 5000		; 00001388H
$LN27@DoTargetin:

; 68   : 
; 69   :    if (SimLibElapsedTime > self->nextTargetUpdate)

	mov	ecx, DWORD PTR _this$[ebp]
	mov	edx, DWORD PTR [ecx+56]
	mov	eax, DWORD PTR ?SimLibElapsedTime@@3KA	; SimLibElapsedTime
	cmp	eax, DWORD PTR [edx+704]
	jbe	$LN1@DoTargetin

; 70   :    {
; 71   :       // If we are lead, or lead is player, look for a target
; 72   :       if (!isWing ||(mDesignatedObject == FalconNullId && flightLead && flightLead->IsSetFlag(MOTION_OWNSHIP)))

	mov	ecx, DWORD PTR _this$[ebp]
	cmp	DWORD PTR [ecx+24], 0
	je	SHORT $LN24@DoTargetin
	push	OFFSET ?FalconNullId@@3VVU_ID@@A	; FalconNullId
	mov	ecx, DWORD PTR _this$[ebp]
	add	ecx, 800				; 00000320H
	call	??8VU_ID@@QBE_NABV0@@Z			; VU_ID::operator==
	movzx	edx, al
	test	edx, edx
	je	$LN25@DoTargetin
	mov	eax, DWORD PTR _this$[ebp]
	cmp	DWORD PTR [eax+708], 0
	je	$LN25@DoTargetin
	push	65536					; 00010000H
	mov	ecx, DWORD PTR _this$[ebp]
	mov	ecx, DWORD PTR [ecx+708]
	call	?IsSetFlag@SimBaseClass@@QBEHH@Z	; SimBaseClass::IsSetFlag
	test	eax, eax
	je	$LN25@DoTargetin
$LN24@DoTargetin:

; 73   :       {
; 74   :          if (missionClass != AAMission && !missionComplete && agDoctrine == AGD_NONE)

	mov	edx, DWORD PTR _this$[ebp]
	cmp	DWORD PTR [edx+288], 1
	je	SHORT $LN23@DoTargetin
	mov	eax, DWORD PTR _this$[ebp]
	cmp	DWORD PTR [eax+292], 0
	jne	SHORT $LN23@DoTargetin
	mov	ecx, DWORD PTR _this$[ebp]
	cmp	DWORD PTR [ecx+244], 0
	jne	SHORT $LN23@DoTargetin

; 75   :             SelectGroundWeapon();

	mov	ecx, DWORD PTR _this$[ebp]
	call	?SelectGroundWeapon@DigitalBrain@@IAEXXZ ; DigitalBrain::SelectGroundWeapon
$LN23@DoTargetin:

; 76   :          campTarget = CampTargetSelection();

	mov	ecx, DWORD PTR _this$[ebp]
	call	?CampTargetSelection@DigitalBrain@@IAEPAVFalconEntity@@XZ ; DigitalBrain::CampTargetSelection
	mov	DWORD PTR _campTarget$[ebp], eax

; 77   :          if (campTarget)

	cmp	DWORD PTR _campTarget$[ebp], 0
	je	$LN22@DoTargetin

; 78   :          {
; 79   :             // Use campaign target
; 80   :             if ( campTarget->IsCampaign() && ((CampBaseClass*)campTarget)->GetComponents())

	mov	ecx, DWORD PTR _campTarget$[ebp]
	call	?IsCampaign@FalconEntity@@QAEHXZ	; FalconEntity::IsCampaign
	test	eax, eax
	je	SHORT $LN21@DoTargetin
	mov	ecx, DWORD PTR _campTarget$[ebp]
	call	?GetComponents@CampBaseClass@@QBEPAVTailInsertList@@XZ ; CampBaseClass::GetComponents
	test	eax, eax
	je	SHORT $LN21@DoTargetin

; 81   :             {
; 82   :                self->targetList = MakeSimListFromVuList (self, self->targetList, ((CampBaseClass*)campTarget)->GetComponents());

	mov	ecx, DWORD PTR _campTarget$[ebp]
	call	?GetComponents@CampBaseClass@@QBEPAVTailInsertList@@XZ ; CampBaseClass::GetComponents
	push	eax
	mov	edx, DWORD PTR _this$[ebp]
	mov	eax, DWORD PTR [edx+56]
	mov	ecx, DWORD PTR [eax+660]
	push	ecx
	mov	edx, DWORD PTR _this$[ebp]
	mov	eax, DWORD PTR [edx+56]
	push	eax
	call	?MakeSimListFromVuList@@YAPAVSimObjectType@@PAVAircraftClass@@PAV1@PAVVuLinkedList@@@Z ; MakeSimListFromVuList
	add	esp, 12					; 0000000cH
	mov	ecx, DWORD PTR _this$[ebp]
	mov	edx, DWORD PTR [ecx+56]
	mov	DWORD PTR [edx+660], eax
	jmp	$LN19@DoTargetin
$LN21@DoTargetin:

; 83   :             }
; 84   : 						// 2002-02-25 MODIFIED BY S.G. NO NO NO, AGGREGATED Campaign object should make it here as well otherwise AI will not target them until they enter the 20 NM limit below.
; 85   :             // Campaign returned a sim entity, deal with it
; 86   : //          else if (campTarget->IsSim())
; 87   :             else if (campTarget->IsSim() || (campTarget->IsCampaign() && ((CampBaseClass *)campTarget)->IsAggregate()))

	mov	ecx, DWORD PTR _campTarget$[ebp]
	call	?IsSim@FalconEntity@@QAEHXZ		; FalconEntity::IsSim
	test	eax, eax
	jne	SHORT $LN18@DoTargetin
	mov	ecx, DWORD PTR _campTarget$[ebp]
	call	?IsCampaign@FalconEntity@@QAEHXZ	; FalconEntity::IsCampaign
	test	eax, eax
	je	SHORT $LN19@DoTargetin
	mov	ecx, DWORD PTR _campTarget$[ebp]
	call	?IsAggregate@CampBaseClass@@QAEHXZ	; CampBaseClass::IsAggregate
	test	eax, eax
	je	SHORT $LN19@DoTargetin
$LN18@DoTargetin:

; 88   :             {
; 89   : 							// Put it directly into our target list
; 90   : 							SimObjectType *newTarg = new SimObjectType( campTarget );

	push	24					; 00000018H
	call	??2@YAPAXI@Z				; operator new
	add	esp, 4
	mov	DWORD PTR $T8[ebp], eax
	mov	DWORD PTR __$EHRec$[ebp+8], 0
	cmp	DWORD PTR $T8[ebp], 0
	je	SHORT $LN32@DoTargetin
	mov	eax, DWORD PTR _campTarget$[ebp]
	push	eax
	mov	ecx, DWORD PTR $T8[ebp]
	call	??0SimObjectType@@QAE@PAVFalconEntity@@@Z ; SimObjectType::SimObjectType
	mov	DWORD PTR tv250[ebp], eax
	jmp	SHORT $LN33@DoTargetin
$LN32@DoTargetin:
	mov	DWORD PTR tv250[ebp], 0
$LN33@DoTargetin:
	mov	ecx, DWORD PTR tv250[ebp]
	mov	DWORD PTR $T6[ebp], ecx
	mov	DWORD PTR __$EHRec$[ebp+8], -1
	mov	edx, DWORD PTR $T6[ebp]
	mov	DWORD PTR _newTarg$5[ebp], edx

; 91   : 							self->targetList = InsertIntoTargetList (self->targetList, newTarg);

	mov	eax, DWORD PTR _newTarg$5[ebp]
	push	eax
	mov	ecx, DWORD PTR _this$[ebp]
	mov	edx, DWORD PTR [ecx+56]
	mov	eax, DWORD PTR [edx+660]
	push	eax
	mov	ecx, DWORD PTR _this$[ebp]
	call	?InsertIntoTargetList@DigitalBrain@@IAEPAVSimObjectType@@PAV2@0@Z ; DigitalBrain::InsertIntoTargetList
	mov	ecx, DWORD PTR _this$[ebp]
	mov	edx, DWORD PTR [ecx+56]
	mov	DWORD PTR [edx+660], eax
$LN19@DoTargetin:

; 92   :             }
; 93   : 
; 94   :             rngSqr = (campTarget->XPos() - self->XPos())*(campTarget->XPos() - self->XPos()) +
; 95   :                (campTarget->YPos() - self->YPos())*(campTarget->YPos() - self->YPos());

	mov	ecx, DWORD PTR _campTarget$[ebp]
	call	?XPos@VuEntity@@QBEMXZ			; VuEntity::XPos
	fstp	DWORD PTR tv649[ebp]
	movss	xmm0, DWORD PTR tv649[ebp]
	mov	eax, DWORD PTR _this$[ebp]
	mov	ecx, DWORD PTR [eax+56]
	movss	DWORD PTR tv768[ebp], xmm0
	call	?XPos@VuEntity@@QBEMXZ			; VuEntity::XPos
	fstp	DWORD PTR tv654[ebp]
	movss	xmm0, DWORD PTR tv768[ebp]
	subss	xmm0, DWORD PTR tv654[ebp]
	mov	ecx, DWORD PTR _campTarget$[ebp]
	movss	DWORD PTR tv770[ebp], xmm0
	call	?XPos@VuEntity@@QBEMXZ			; VuEntity::XPos
	fstp	DWORD PTR tv658[ebp]
	movss	xmm0, DWORD PTR tv658[ebp]
	mov	ecx, DWORD PTR _this$[ebp]
	mov	ecx, DWORD PTR [ecx+56]
	movss	DWORD PTR tv772[ebp], xmm0
	call	?XPos@VuEntity@@QBEMXZ			; VuEntity::XPos
	fstp	DWORD PTR tv663[ebp]
	movss	xmm0, DWORD PTR tv772[ebp]
	subss	xmm0, DWORD PTR tv663[ebp]
	movss	xmm1, DWORD PTR tv770[ebp]
	mulss	xmm1, xmm0
	mov	ecx, DWORD PTR _campTarget$[ebp]
	movss	DWORD PTR tv774[ebp], xmm1
	call	?YPos@VuEntity@@QBEMXZ			; VuEntity::YPos
	fstp	DWORD PTR tv667[ebp]
	movss	xmm0, DWORD PTR tv667[ebp]
	mov	edx, DWORD PTR _this$[ebp]
	mov	ecx, DWORD PTR [edx+56]
	movss	DWORD PTR tv776[ebp], xmm0
	call	?YPos@VuEntity@@QBEMXZ			; VuEntity::YPos
	fstp	DWORD PTR tv672[ebp]
	movss	xmm0, DWORD PTR tv776[ebp]
	subss	xmm0, DWORD PTR tv672[ebp]
	mov	ecx, DWORD PTR _campTarget$[ebp]
	movss	DWORD PTR tv778[ebp], xmm0
	call	?YPos@VuEntity@@QBEMXZ			; VuEntity::YPos
	fstp	DWORD PTR tv676[ebp]
	movss	xmm0, DWORD PTR tv676[ebp]
	mov	eax, DWORD PTR _this$[ebp]
	mov	ecx, DWORD PTR [eax+56]
	movss	DWORD PTR tv780[ebp], xmm0
	call	?YPos@VuEntity@@QBEMXZ			; VuEntity::YPos
	fstp	DWORD PTR tv681[ebp]
	movss	xmm0, DWORD PTR tv780[ebp]
	subss	xmm0, DWORD PTR tv681[ebp]
	movss	xmm1, DWORD PTR tv778[ebp]
	mulss	xmm1, xmm0
	movss	xmm0, DWORD PTR tv774[ebp]
	addss	xmm0, xmm1
	movss	DWORD PTR _rngSqr$[ebp], xmm0
$LN22@DoTargetin:

; 96   :          }
; 97   :          // If the campaign didn't give us a target or we're so close that campaign targeting isn't
; 98   : 		// reliable, then build our own target list.
; 99   : 		// TODO:  We should really put both the campaign suggested target and the local environment
; 100  : 		// objects into our target list and then make a weighted choice among all of the entities.
; 101  : 		// 2000-11-17 MODIFIED BY S.G. WILL TRY DIFFERENT VALUES AND SEE HOW IT AFFECTS GAMEPLAY/FPS 
; 102  : 		//(5 NM IS THE DEFAULT). 20 NM SEEMS FINE (NO REAL FPS LOSS AND IMPROVED AI TARGET SORTING)
; 103  : 		//       if (!campTarget || rngSqr < (5.0F * NM_TO_FT)*(5.0F * NM_TO_FT))
; 104  : 		// SYLVAINLOOK in your RP5 code, this was brought back to 5 NM...
; 105  : 		// 2002-03-15 MODIFIED BY S.G. Now uses g_fSearchSimTargetFromRangeSqr so we can tweak it
; 106  : 		// TJL 10/20/03 SearchSim is missing from F4config. Uncommented hard code and changed it to 8.0 miles.
; 107  : 		//if (!campTarget || rngSqr < (20.0F * NM_TO_FT)*(20.0F * NM_TO_FT))
; 108  : 		//if (!campTarget || rngSqr < (8.0F * NM_TO_FT)*(8.0F * NM_TO_FT))
; 109  : 		if (!campTarget || rngSqr < g_fSearchSimTargetFromRangeSqr){

	cmp	DWORD PTR _campTarget$[ebp], 0
	je	SHORT $LN16@DoTargetin
	movss	xmm0, DWORD PTR ?g_fSearchSimTargetFromRangeSqr@@3MA
	comiss	xmm0, DWORD PTR _rngSqr$[ebp]
	jbe	SHORT $LN17@DoTargetin
$LN16@DoTargetin:

; 110  : 			// Need a target list for threat checking
; 111  : 			self->targetList = UpdateTargetList (self->targetList, self, SimDriver.combinedList);

	mov	ecx, DWORD PTR ?SimDriver@@3VSimulationDriver@@A+16
	push	ecx
	mov	edx, DWORD PTR _this$[ebp]
	mov	eax, DWORD PTR [edx+56]
	push	eax
	mov	ecx, DWORD PTR _this$[ebp]
	mov	edx, DWORD PTR [ecx+56]
	mov	eax, DWORD PTR [edx+660]
	push	eax
	call	?UpdateTargetList@@YAPAVSimObjectType@@PAV1@PAVSimMoverClass@@PAVFalconPrivateOrderedList@@@Z ; UpdateTargetList
	add	esp, 12					; 0000000cH
	mov	ecx, DWORD PTR _this$[ebp]
	mov	edx, DWORD PTR [ecx+56]
	mov	DWORD PTR [edx+660], eax
$LN17@DoTargetin:

; 112  : 		}
; 113  :     }
; 114  :     else //wingman

	jmp	$LN8@DoTargetin
$LN25@DoTargetin:

; 115  :     {
; 116  :          if (mDesignatedObject != FalconNullId)

	push	OFFSET ?FalconNullId@@3VVU_ID@@A	; FalconNullId
	mov	ecx, DWORD PTR _this$[ebp]
	add	ecx, 800				; 00000320H
	call	??9VU_ID@@QBE_NABV0@@Z			; VU_ID::operator!=
	movzx	eax, al
	test	eax, eax
	je	$LN11@DoTargetin

; 117  :          {
; 118  :       		campTarget = (FalconEntity*) vuDatabase->Find(mDesignatedObject);	// Lookup target in database

	mov	ecx, DWORD PTR _this$[ebp]
	mov	edx, DWORD PTR [ecx+804]
	push	edx
	mov	eax, DWORD PTR [ecx+800]
	push	eax
	mov	ecx, DWORD PTR ?vuDatabase@@3PAVVuDatabase@@A ; vuDatabase
	call	?Find@VuDatabase@@QBEPAVVuEntity@@VVU_ID@@@Z ; VuDatabase::Find
	mov	DWORD PTR _campTarget$[ebp], eax

; 119  :             if (campTarget && campTarget->IsCampaign() && ((CampBaseClass*)campTarget)->GetComponents())

	cmp	DWORD PTR _campTarget$[ebp], 0
	je	SHORT $LN13@DoTargetin
	mov	ecx, DWORD PTR _campTarget$[ebp]
	call	?IsCampaign@FalconEntity@@QAEHXZ	; FalconEntity::IsCampaign
	test	eax, eax
	je	SHORT $LN13@DoTargetin
	mov	ecx, DWORD PTR _campTarget$[ebp]
	call	?GetComponents@CampBaseClass@@QBEPAVTailInsertList@@XZ ; CampBaseClass::GetComponents
	test	eax, eax
	je	SHORT $LN13@DoTargetin

; 120  :             {
; 121  :                self->targetList = MakeSimListFromVuList (self, self->targetList, ((CampBaseClass*)campTarget)->GetComponents());

	mov	ecx, DWORD PTR _campTarget$[ebp]
	call	?GetComponents@CampBaseClass@@QBEPAVTailInsertList@@XZ ; CampBaseClass::GetComponents
	push	eax
	mov	ecx, DWORD PTR _this$[ebp]
	mov	edx, DWORD PTR [ecx+56]
	mov	eax, DWORD PTR [edx+660]
	push	eax
	mov	ecx, DWORD PTR _this$[ebp]
	mov	edx, DWORD PTR [ecx+56]
	push	edx
	call	?MakeSimListFromVuList@@YAPAVSimObjectType@@PAVAircraftClass@@PAV1@PAVVuLinkedList@@@Z ; MakeSimListFromVuList
	add	esp, 12					; 0000000cH
	mov	ecx, DWORD PTR _this$[ebp]
	mov	edx, DWORD PTR [ecx+56]
	mov	DWORD PTR [edx+660], eax
	jmp	SHORT $LN11@DoTargetin
$LN13@DoTargetin:

; 122  :             }
; 123  :             else if (campTarget && campTarget->IsSim())

	cmp	DWORD PTR _campTarget$[ebp], 0
	je	SHORT $LN11@DoTargetin
	mov	ecx, DWORD PTR _campTarget$[ebp]
	call	?IsSim@FalconEntity@@QAEHXZ		; FalconEntity::IsSim
	test	eax, eax
	je	SHORT $LN11@DoTargetin

; 124  :             {
; 125  : 				// Put it directly into our target list
; 126  : 							SimObjectType *newTarg = new SimObjectType( campTarget );

	push	24					; 00000018H
	call	??2@YAPAXI@Z				; operator new
	add	esp, 4
	mov	DWORD PTR $T7[ebp], eax
	mov	DWORD PTR __$EHRec$[ebp+8], 1
	cmp	DWORD PTR $T7[ebp], 0
	je	SHORT $LN34@DoTargetin
	mov	eax, DWORD PTR _campTarget$[ebp]
	push	eax
	mov	ecx, DWORD PTR $T7[ebp]
	call	??0SimObjectType@@QAE@PAVFalconEntity@@@Z ; SimObjectType::SimObjectType
	mov	DWORD PTR tv416[ebp], eax
	jmp	SHORT $LN35@DoTargetin
$LN34@DoTargetin:
	mov	DWORD PTR tv416[ebp], 0
$LN35@DoTargetin:
	mov	ecx, DWORD PTR tv416[ebp]
	mov	DWORD PTR $T4[ebp], ecx
	mov	DWORD PTR __$EHRec$[ebp+8], -1
	mov	edx, DWORD PTR $T4[ebp]
	mov	DWORD PTR _newTarg$3[ebp], edx

; 127  : 							self->targetList = InsertIntoTargetList (self->targetList, newTarg);

	mov	eax, DWORD PTR _newTarg$3[ebp]
	push	eax
	mov	ecx, DWORD PTR _this$[ebp]
	mov	edx, DWORD PTR [ecx+56]
	mov	eax, DWORD PTR [edx+660]
	push	eax
	mov	ecx, DWORD PTR _this$[ebp]
	call	?InsertIntoTargetList@DigitalBrain@@IAEPAVSimObjectType@@PAV2@0@Z ; DigitalBrain::InsertIntoTargetList
	mov	ecx, DWORD PTR _this$[ebp]
	mov	edx, DWORD PTR [ecx+56]
	mov	DWORD PTR [edx+660], eax
$LN11@DoTargetin:

; 128  :             }
; 129  :          }
; 130  : 
; 131  :          // Check for nearby threats and kill them
; 132  : 		// TODO:  Should we do a range check here like we do for leads above, or just trust the campaign?
; 133  :          if (!campTarget)

	cmp	DWORD PTR _campTarget$[ebp], 0
	jne	SHORT $LN10@DoTargetin

; 134  :          {
; 135  : 						//me123 we need it for bvr reactions      if (missionClass == AAMission || missionComplete)
; 136  : 						self->targetList = UpdateTargetList (self->targetList, self, SimDriver.combinedList);

	mov	eax, DWORD PTR ?SimDriver@@3VSimulationDriver@@A+16
	push	eax
	mov	ecx, DWORD PTR _this$[ebp]
	mov	edx, DWORD PTR [ecx+56]
	push	edx
	mov	eax, DWORD PTR _this$[ebp]
	mov	ecx, DWORD PTR [eax+56]
	mov	edx, DWORD PTR [ecx+660]
	push	edx
	call	?UpdateTargetList@@YAPAVSimObjectType@@PAV1@PAVSimMoverClass@@PAVFalconPrivateOrderedList@@@Z ; UpdateTargetList
	add	esp, 12					; 0000000cH
	mov	ecx, DWORD PTR _this$[ebp]
	mov	edx, DWORD PTR [ecx+56]
	mov	DWORD PTR [edx+660], eax
$LN10@DoTargetin:

; 137  :          }
; 138  : 
; 139  : 		 // edg: kruft check -- it has been observed that wingman's target
; 140  : 		 // lists are holding refs to sim objects that are no longer awake.
; 141  : 		 // This will remove them.
; 142  : 		 SimObjectType *simobj = self->targetList;

	mov	eax, DWORD PTR _this$[ebp]
	mov	ecx, DWORD PTR [eax+56]
	mov	edx, DWORD PTR [ecx+660]
	mov	DWORD PTR _simobj$9[ebp], edx
$LN9@DoTargetin:

; 143  : 		 SimObjectType *tmpobj;
; 144  : 		 while ( simobj )

	cmp	DWORD PTR _simobj$9[ebp], 0
	je	$LN8@DoTargetin

; 145  : 		 {
; 146  : 			 if ( simobj->BaseData()->IsSim() && !((SimBaseClass*)simobj->BaseData())->IsAwake() )

	mov	ecx, DWORD PTR _simobj$9[ebp]
	call	?BaseData@SimObjectType@@QAEPAVFalconEntity@@XZ ; SimObjectType::BaseData
	mov	ecx, eax
	call	?IsSim@FalconEntity@@QAEHXZ		; FalconEntity::IsSim
	test	eax, eax
	je	$LN7@DoTargetin
	mov	ecx, DWORD PTR _simobj$9[ebp]
	call	?BaseData@SimObjectType@@QAEPAVFalconEntity@@XZ ; SimObjectType::BaseData
	mov	ecx, eax
	call	?IsAwake@SimBaseClass@@QBEHXZ		; SimBaseClass::IsAwake
	test	eax, eax
	jne	SHORT $LN7@DoTargetin

; 147  : 			 {
; 148  : 				 tmpobj = simobj->next;

	mov	eax, DWORD PTR _simobj$9[ebp]
	mov	ecx, DWORD PTR [eax+16]
	mov	DWORD PTR _tmpobj$2[ebp], ecx

; 149  : 
; 150  : 				 // remove from chain
; 151  : 				 if ( simobj->prev )

	mov	edx, DWORD PTR _simobj$9[ebp]
	cmp	DWORD PTR [edx+20], 0
	je	SHORT $LN6@DoTargetin

; 152  : 				 	simobj->prev->next = simobj->next;

	mov	eax, DWORD PTR _simobj$9[ebp]
	mov	ecx, DWORD PTR [eax+20]
	mov	edx, DWORD PTR _simobj$9[ebp]
	mov	eax, DWORD PTR [edx+16]
	mov	DWORD PTR [ecx+16], eax

; 153  : 				 else

	jmp	SHORT $LN5@DoTargetin
$LN6@DoTargetin:

; 154  : 					 self->targetList = simobj->next;

	mov	ecx, DWORD PTR _this$[ebp]
	mov	edx, DWORD PTR [ecx+56]
	mov	eax, DWORD PTR _simobj$9[ebp]
	mov	ecx, DWORD PTR [eax+16]
	mov	DWORD PTR [edx+660], ecx
$LN5@DoTargetin:

; 155  : 				 if ( simobj->next )

	mov	edx, DWORD PTR _simobj$9[ebp]
	cmp	DWORD PTR [edx+16], 0
	je	SHORT $LN4@DoTargetin

; 156  : 				 	simobj->next->prev = simobj->prev;

	mov	eax, DWORD PTR _simobj$9[ebp]
	mov	ecx, DWORD PTR [eax+16]
	mov	edx, DWORD PTR _simobj$9[ebp]
	mov	eax, DWORD PTR [edx+20]
	mov	DWORD PTR [ecx+20], eax
$LN4@DoTargetin:

; 157  : 
; 158  : 				 simobj->next = NULL;

	mov	ecx, DWORD PTR _simobj$9[ebp]
	mov	DWORD PTR [ecx+16], 0

; 159  : 				 simobj->prev = NULL;

	mov	edx, DWORD PTR _simobj$9[ebp]
	mov	DWORD PTR [edx+20], 0

; 160  : 		 		 simobj->Release(  );

	mov	ecx, DWORD PTR _simobj$9[ebp]
	call	?Release@SimObjectType@@QAEXXZ		; SimObjectType::Release

; 161  : 				 simobj = tmpobj;

	mov	eax, DWORD PTR _tmpobj$2[ebp]
	mov	DWORD PTR _simobj$9[ebp], eax

; 162  : 
; 163  : 			 }
; 164  : 			 else

	jmp	SHORT $LN3@DoTargetin
$LN7@DoTargetin:

; 165  : 			 {
; 166  : 				simobj = simobj->next;

	mov	ecx, DWORD PTR _simobj$9[ebp]
	mov	edx, DWORD PTR [ecx+16]
	mov	DWORD PTR _simobj$9[ebp], edx
$LN3@DoTargetin:

; 167  : 			 }
; 168  : 		 }

	jmp	$LN9@DoTargetin
$LN8@DoTargetin:

; 169  :       }
; 170  : //Don't go here if no Targetlist (nothing happens and it's a waste
; 171  :   //Cobra
; 172  :   if (self->targetList)

	mov	eax, DWORD PTR _this$[ebp]
	mov	ecx, DWORD PTR [eax+56]
	cmp	DWORD PTR [ecx+660], 0
	je	SHORT $LN2@DoTargetin

; 173  :       CalcRelGeom(self, self->targetList, ((AircraftClass*)self)->vmat, 1.0F / SimLibMajorFrameTime);

	movss	xmm0, DWORD PTR __real@3f800000
	divss	xmm0, DWORD PTR ?SimLibMajorFrameTime@@3MA
	push	ecx
	movss	DWORD PTR [esp], xmm0
	mov	edx, DWORD PTR _this$[ebp]
	mov	eax, DWORD PTR [edx+56]
	add	eax, 1056				; 00000420H
	push	eax
	mov	ecx, DWORD PTR _this$[ebp]
	mov	edx, DWORD PTR [ecx+56]
	mov	eax, DWORD PTR [edx+660]
	push	eax
	mov	ecx, DWORD PTR _this$[ebp]
	mov	edx, DWORD PTR [ecx+56]
	push	edx
	call	?CalcRelGeom@@YAXPAVSimBaseClass@@PAVSimObjectType@@QAY02MM@Z ; CalcRelGeom
	add	esp, 16					; 00000010H
$LN2@DoTargetin:

; 174  : 
; 175  :       targetList = self->targetList;

	mov	eax, DWORD PTR _this$[ebp]
	mov	ecx, DWORD PTR [eax+56]
	mov	edx, DWORD PTR _this$[ebp]
	mov	eax, DWORD PTR [ecx+660]
	mov	DWORD PTR [edx+376], eax

; 176  :       // Sensors
; 177  :       ((AircraftClass *)self)->RunSensors();

	mov	ecx, DWORD PTR _this$[ebp]
	mov	ecx, DWORD PTR [ecx+56]
	call	?RunSensors@AircraftClass@@QAEXXZ	; AircraftClass::RunSensors

; 178  :       self->nextTargetUpdate = SimLibElapsedTime + self->targetUpdateRate;

	mov	edx, DWORD PTR _this$[ebp]
	mov	eax, DWORD PTR [edx+56]
	mov	ecx, DWORD PTR ?SimLibElapsedTime@@3KA	; SimLibElapsedTime
	add	ecx, DWORD PTR [eax+708]
	mov	edx, DWORD PTR _this$[ebp]
	mov	eax, DWORD PTR [edx+56]
	mov	DWORD PTR [eax+704], ecx

; 179  : 
; 180  :       // This is a timed event, so lets check gas here
; 181  :       FuelCheck();

	mov	ecx, DWORD PTR _this$[ebp]
	call	?FuelCheck@DigitalBrain@@IAEXXZ		; DigitalBrain::FuelCheck

; 182  : 
; 183  :       // Check for reaching IP
; 184  : 			if (!IsSetATC(ReachedIP))

	push	2097152					; 00200000H
	mov	ecx, DWORD PTR _this$[ebp]
	call	?IsSetATC@DigitalBrain@@QAEHH@Z		; DigitalBrain::IsSetATC
	test	eax, eax
	jne	SHORT $LN1@DoTargetin

; 185  : 				IPCheck();

	mov	ecx, DWORD PTR _this$[ebp]
	call	?IPCheck@DigitalBrain@@IAEXXZ		; DigitalBrain::IPCheck
$LN1@DoTargetin:

; 186  :    }
; 187  : 
; 188  :    // Merge the data for each threat/target
; 189  :    SensorFusion();

	mov	ecx, DWORD PTR _this$[ebp]
	call	?SensorFusion@DigitalBrain@@IAEXXZ	; DigitalBrain::SensorFusion

; 190  : }

	mov	ecx, DWORD PTR __$EHRec$[ebp]
	mov	DWORD PTR fs:0, ecx
	pop	ecx
	mov	esp, ebp
	pop	ebp
	ret	0
_TEXT	ENDS
text$x	SEGMENT
__unwindfunclet$?DoTargeting@DigitalBrain@@IAEXXZ$0:
	mov	eax, DWORD PTR $T8[ebp]
	push	eax
	call	??3@YAXPAX@Z				; operator delete
	pop	ecx
	ret	0
__unwindfunclet$?DoTargeting@DigitalBrain@@IAEXXZ$1:
	mov	eax, DWORD PTR $T7[ebp]
	push	eax
	call	??3@YAXPAX@Z				; operator delete
	pop	ecx
	ret	0
__ehhandler$?DoTargeting@DigitalBrain@@IAEXXZ:
	mov	edx, DWORD PTR [esp+8]
	lea	eax, DWORD PTR [edx+12]
	mov	ecx, DWORD PTR [edx-116]
	xor	ecx, eax
	call	@__security_check_cookie@4
	mov	eax, OFFSET __ehfuncinfo$?DoTargeting@DigitalBrain@@IAEXXZ
	jmp	___CxxFrameHandler3
text$x	ENDS
?DoTargeting@DigitalBrain@@IAEXXZ ENDP			; DigitalBrain::DoTargeting
; Function compile flags: /Odtp
; File c:\users\zhitao li\documents\visual studio 2012\projects\freefalcon\falclib\include\falcent.h
;	COMDAT ?IsSim@FalconEntity@@QAEHXZ
_TEXT	SEGMENT
_this$ = -8						; size = 4
tv68 = -4						; size = 4
?IsSim@FalconEntity@@QAEHXZ PROC			; FalconEntity::IsSim, COMDAT
; _this$ = ecx

; 103  : 		{return (falconType & FalconSimEntity) ? TRUE : FALSE;};

	push	ebp
	mov	ebp, esp
	sub	esp, 8
	mov	DWORD PTR _this$[ebp], ecx
	mov	eax, DWORD PTR _this$[ebp]
	movsx	ecx, BYTE PTR [eax+137]
	and	ecx, 2
	je	SHORT $LN3@IsSim
	mov	DWORD PTR tv68[ebp], 1
	jmp	SHORT $LN4@IsSim
$LN3@IsSim:
	mov	DWORD PTR tv68[ebp], 0
$LN4@IsSim:
	mov	eax, DWORD PTR tv68[ebp]
	mov	esp, ebp
	pop	ebp
	ret	0
?IsSim@FalconEntity@@QAEHXZ ENDP			; FalconEntity::IsSim
_TEXT	ENDS
; Function compile flags: /Odtp
; File c:\users\zhitao li\documents\visual studio 2012\projects\freefalcon\falclib\include\falcent.h
;	COMDAT ?IsCampaign@FalconEntity@@QAEHXZ
_TEXT	SEGMENT
_this$ = -8						; size = 4
tv68 = -4						; size = 4
?IsCampaign@FalconEntity@@QAEHXZ PROC			; FalconEntity::IsCampaign, COMDAT
; _this$ = ecx

; 101  : 		{return (falconType & FalconCampaignEntity) ? TRUE : FALSE;};

	push	ebp
	mov	ebp, esp
	sub	esp, 8
	mov	DWORD PTR _this$[ebp], ecx
	mov	eax, DWORD PTR _this$[ebp]
	movsx	ecx, BYTE PTR [eax+137]
	and	ecx, 1
	je	SHORT $LN3@IsCampaign
	mov	DWORD PTR tv68[ebp], 1
	jmp	SHORT $LN4@IsCampaign
$LN3@IsCampaign:
	mov	DWORD PTR tv68[ebp], 0
$LN4@IsCampaign:
	mov	eax, DWORD PTR tv68[ebp]
	mov	esp, ebp
	pop	ebp
	ret	0
?IsCampaign@FalconEntity@@QAEHXZ ENDP			; FalconEntity::IsCampaign
_TEXT	ENDS
; Function compile flags: /Odtp
; File c:\program files (x86)\microsoft visual studio 11.0\vc\include\xstring
;	COMDAT ?_Xran@?$basic_string@DU?$char_traits@D@std@@V?$allocator@D@2@@std@@QBEXXZ
_TEXT	SEGMENT
_this$ = -4						; size = 4
?_Xran@?$basic_string@DU?$char_traits@D@std@@V?$allocator@D@2@@std@@QBEXXZ PROC ; std::basic_string<char,std::char_traits<char>,std::allocator<char> >::_Xran, COMDAT
; _this$ = ecx

; 2275 : 		{	// report an out_of_range error

	push	ebp
	mov	ebp, esp
	push	ecx
	mov	DWORD PTR _this$[ebp], ecx

; 2276 : 		_Xout_of_range("invalid string position");

	push	OFFSET ??_C@_0BI@CFPLBAOH@invalid?5string?5position?$AA@
	call	?_Xout_of_range@std@@YAXPBD@Z		; std::_Xout_of_range
$LN2@Xran:

; 2277 : 		}

	mov	esp, ebp
	pop	ebp
	ret	0
?_Xran@?$basic_string@DU?$char_traits@D@std@@V?$allocator@D@2@@std@@QBEXXZ ENDP ; std::basic_string<char,std::char_traits<char>,std::allocator<char> >::_Xran
_TEXT	ENDS
; Function compile flags: /Odtp
; File c:\program files (x86)\microsoft visual studio 11.0\vc\include\xstring
;	COMDAT ?_Xlen@?$basic_string@DU?$char_traits@D@std@@V?$allocator@D@2@@std@@QBEXXZ
_TEXT	SEGMENT
_this$ = -4						; size = 4
?_Xlen@?$basic_string@DU?$char_traits@D@std@@V?$allocator@D@2@@std@@QBEXXZ PROC ; std::basic_string<char,std::char_traits<char>,std::allocator<char> >::_Xlen, COMDAT
; _this$ = ecx

; 2270 : 		{	// report a length_error

	push	ebp
	mov	ebp, esp
	push	ecx
	mov	DWORD PTR _this$[ebp], ecx

; 2271 : 		_Xlength_error("string too long");

	push	OFFSET ??_C@_0BA@JFNIOLAK@string?5too?5long?$AA@
	call	?_Xlength_error@std@@YAXPBD@Z		; std::_Xlength_error
$LN2@Xlen:

; 2272 : 		}

	mov	esp, ebp
	pop	ebp
	ret	0
?_Xlen@?$basic_string@DU?$char_traits@D@std@@V?$allocator@D@2@@std@@QBEXXZ ENDP ; std::basic_string<char,std::char_traits<char>,std::allocator<char> >::_Xlen
_TEXT	ENDS
; Function compile flags: /Odtp
; File c:\program files (x86)\microsoft visual studio 11.0\vc\include\xstring
;	COMDAT ?_Tidy@?$basic_string@DU?$char_traits@D@std@@V?$allocator@D@2@@std@@QAEX_NI@Z
_TEXT	SEGMENT
__Ptr$1 = -12						; size = 4
_this$ = -8						; size = 4
$T2 = -2						; size = 1
$T3 = -1						; size = 1
__Built$ = 8						; size = 1
__Newsize$ = 12						; size = 4
?_Tidy@?$basic_string@DU?$char_traits@D@std@@V?$allocator@D@2@@std@@QAEX_NI@Z PROC ; std::basic_string<char,std::char_traits<char>,std::allocator<char> >::_Tidy, COMDAT
; _this$ = ecx

; 2253 : 		{	// initialize buffer, deallocating any storage

	push	ebp
	mov	ebp, esp
	sub	esp, 12					; 0000000cH
	mov	DWORD PTR _this$[ebp], ecx

; 2254 : 		if (!_Built)

	movzx	eax, BYTE PTR __Built$[ebp]
	test	eax, eax
	jne	SHORT $LN4@Tidy
	jmp	SHORT $LN3@Tidy
$LN4@Tidy:

; 2255 : 			;
; 2256 : 		else if (this->_BUF_SIZE <= this->_Myres)

	mov	ecx, DWORD PTR _this$[ebp]
	cmp	DWORD PTR [ecx+20], 16			; 00000010H
	jb	SHORT $LN3@Tidy

; 2257 : 			{	// copy any leftovers to small buffer and deallocate
; 2258 : 			pointer _Ptr = this->_Bx._Ptr;

	mov	edx, DWORD PTR _this$[ebp]
	mov	eax, DWORD PTR [edx]
	mov	DWORD PTR __Ptr$1[ebp], eax

; 2259 : 			this->_Getal().destroy(&this->_Bx._Ptr);

	mov	ecx, DWORD PTR _this$[ebp]
	push	ecx
	lea	edx, DWORD PTR $T3[ebp]
	push	edx
	mov	ecx, DWORD PTR _this$[ebp]
	call	?_Getal@?$_String_alloc@$0A@U?$_String_base_types@DV?$allocator@D@std@@@std@@@std@@QBE?AU?$_Wrap_alloc@V?$allocator@D@std@@@2@XZ ; std::_String_alloc<0,std::_String_base_types<char,std::allocator<char> > >::_Getal
	mov	ecx, eax
	call	??$destroy@PAD@?$_Wrap_alloc@V?$allocator@D@std@@@std@@QAEXPAPAD@Z ; std::_Wrap_alloc<std::allocator<char> >::destroy<char *>

; 2260 : 			if (0 < _Newsize)

	cmp	DWORD PTR __Newsize$[ebp], 0
	jbe	SHORT $LN1@Tidy

; 2261 : 				_Traits::copy(this->_Bx._Buf,
; 2262 : 					_STD addressof(*_Ptr), _Newsize);

	mov	eax, DWORD PTR __Newsize$[ebp]
	push	eax
	mov	ecx, DWORD PTR __Ptr$1[ebp]
	push	ecx
	call	??$addressof@D@std@@YAPADAAD@Z		; std::addressof<char>
	add	esp, 4
	push	eax
	mov	edx, DWORD PTR _this$[ebp]
	push	edx
	call	?copy@?$char_traits@D@std@@SAPADPADPBDI@Z ; std::char_traits<char>::copy
	add	esp, 12					; 0000000cH
$LN1@Tidy:

; 2263 : 			this->_Getal().deallocate(_Ptr, this->_Myres + 1);

	mov	eax, DWORD PTR _this$[ebp]
	mov	ecx, DWORD PTR [eax+20]
	add	ecx, 1
	push	ecx
	mov	edx, DWORD PTR __Ptr$1[ebp]
	push	edx
	lea	eax, DWORD PTR $T2[ebp]
	push	eax
	mov	ecx, DWORD PTR _this$[ebp]
	call	?_Getal@?$_String_alloc@$0A@U?$_String_base_types@DV?$allocator@D@std@@@std@@@std@@QBE?AU?$_Wrap_alloc@V?$allocator@D@std@@@2@XZ ; std::_String_alloc<0,std::_String_base_types<char,std::allocator<char> > >::_Getal
	mov	ecx, eax
	call	?deallocate@?$_Wrap_alloc@V?$allocator@D@std@@@std@@QAEXPADI@Z ; std::_Wrap_alloc<std::allocator<char> >::deallocate
$LN3@Tidy:

; 2264 : 			}
; 2265 : 		this->_Myres = this->_BUF_SIZE - 1;

	mov	ecx, DWORD PTR _this$[ebp]
	mov	DWORD PTR [ecx+20], 15			; 0000000fH

; 2266 : 		_Eos(_Newsize);

	mov	edx, DWORD PTR __Newsize$[ebp]
	push	edx
	mov	ecx, DWORD PTR _this$[ebp]
	call	?_Eos@?$basic_string@DU?$char_traits@D@std@@V?$allocator@D@2@@std@@QAEXI@Z ; std::basic_string<char,std::char_traits<char>,std::allocator<char> >::_Eos

; 2267 : 		}

	mov	esp, ebp
	pop	ebp
	ret	8
?_Tidy@?$basic_string@DU?$char_traits@D@std@@V?$allocator@D@2@@std@@QAEX_NI@Z ENDP ; std::basic_string<char,std::char_traits<char>,std::allocator<char> >::_Tidy
_TEXT	ENDS
; Function compile flags: /Odtp
; File c:\program files (x86)\microsoft visual studio 11.0\vc\include\xstring
;	COMDAT ?_Inside@?$basic_string@DU?$char_traits@D@std@@V?$allocator@D@2@@std@@QAE_NPBD@Z
_TEXT	SEGMENT
_this$ = -4						; size = 4
__Ptr$ = 8						; size = 4
?_Inside@?$basic_string@DU?$char_traits@D@std@@V?$allocator@D@2@@std@@QAE_NPBD@Z PROC ; std::basic_string<char,std::char_traits<char>,std::allocator<char> >::_Inside, COMDAT
; _this$ = ecx

; 2237 : 		{	// test if _Ptr points inside string

	push	ebp
	mov	ebp, esp
	push	ecx
	mov	DWORD PTR _this$[ebp], ecx

; 2238 : 		if (_Ptr == 0 || _Ptr < this->_Myptr()
; 2239 : 			|| this->_Myptr() + this->_Mysize <= _Ptr)

	cmp	DWORD PTR __Ptr$[ebp], 0
	je	SHORT $LN2@Inside
	mov	ecx, DWORD PTR _this$[ebp]
	call	?_Myptr@?$_String_val@U?$_Simple_types@D@std@@@std@@QAEPADXZ ; std::_String_val<std::_Simple_types<char> >::_Myptr
	cmp	DWORD PTR __Ptr$[ebp], eax
	jb	SHORT $LN2@Inside
	mov	ecx, DWORD PTR _this$[ebp]
	call	?_Myptr@?$_String_val@U?$_Simple_types@D@std@@@std@@QAEPADXZ ; std::_String_val<std::_Simple_types<char> >::_Myptr
	mov	ecx, DWORD PTR _this$[ebp]
	add	eax, DWORD PTR [ecx+16]
	cmp	eax, DWORD PTR __Ptr$[ebp]
	ja	SHORT $LN3@Inside
$LN2@Inside:

; 2240 : 			return (false);	// don't ask

	xor	al, al
	jmp	SHORT $LN4@Inside

; 2241 : 		else

	jmp	SHORT $LN4@Inside
$LN3@Inside:

; 2242 : 			return (true);

	mov	al, 1
$LN4@Inside:

; 2243 : 		}

	mov	esp, ebp
	pop	ebp
	ret	4
?_Inside@?$basic_string@DU?$char_traits@D@std@@V?$allocator@D@2@@std@@QAE_NPBD@Z ENDP ; std::basic_string<char,std::char_traits<char>,std::allocator<char> >::_Inside
_TEXT	ENDS
; Function compile flags: /Odtp
; File c:\program files (x86)\microsoft visual studio 11.0\vc\include\xstring
;	COMDAT ?_Grow@?$basic_string@DU?$char_traits@D@std@@V?$allocator@D@2@@std@@QAE_NI_N@Z
_TEXT	SEGMENT
tv136 = -12						; size = 4
tv129 = -8						; size = 4
_this$ = -4						; size = 4
__Newsize$ = 8						; size = 4
__Trim$ = 12						; size = 1
?_Grow@?$basic_string@DU?$char_traits@D@std@@V?$allocator@D@2@@std@@QAE_NI_N@Z PROC ; std::basic_string<char,std::char_traits<char>,std::allocator<char> >::_Grow, COMDAT
; _this$ = ecx

; 2223 : 		{	// ensure buffer is big enough, trim to size if _Trim is true

	push	ebp
	mov	ebp, esp
	sub	esp, 12					; 0000000cH
	mov	DWORD PTR _this$[ebp], ecx

; 2224 : 		if (max_size() < _Newsize)

	mov	ecx, DWORD PTR _this$[ebp]
	call	?max_size@?$basic_string@DU?$char_traits@D@std@@V?$allocator@D@2@@std@@QBEIXZ ; std::basic_string<char,std::char_traits<char>,std::allocator<char> >::max_size
	cmp	eax, DWORD PTR __Newsize$[ebp]
	jae	SHORT $LN6@Grow

; 2225 : 			_Xlen();	// result too long

	mov	ecx, DWORD PTR _this$[ebp]
	call	?_Xlen@?$basic_string@DU?$char_traits@D@std@@V?$allocator@D@2@@std@@QBEXXZ ; std::basic_string<char,std::char_traits<char>,std::allocator<char> >::_Xlen
$LN6@Grow:

; 2226 : 		if (this->_Myres < _Newsize)

	mov	eax, DWORD PTR _this$[ebp]
	mov	ecx, DWORD PTR [eax+20]
	cmp	ecx, DWORD PTR __Newsize$[ebp]
	jae	SHORT $LN5@Grow

; 2227 : 			_Copy(_Newsize, this->_Mysize);	// reallocate to grow

	mov	edx, DWORD PTR _this$[ebp]
	mov	eax, DWORD PTR [edx+16]
	push	eax
	mov	ecx, DWORD PTR __Newsize$[ebp]
	push	ecx
	mov	ecx, DWORD PTR _this$[ebp]
	call	?_Copy@?$basic_string@DU?$char_traits@D@std@@V?$allocator@D@2@@std@@QAEXII@Z ; std::basic_string<char,std::char_traits<char>,std::allocator<char> >::_Copy
	jmp	SHORT $LN4@Grow
$LN5@Grow:

; 2228 : 		else if (_Trim && _Newsize < this->_BUF_SIZE)

	movzx	edx, BYTE PTR __Trim$[ebp]
	test	edx, edx
	je	SHORT $LN3@Grow
	cmp	DWORD PTR __Newsize$[ebp], 16		; 00000010H
	jae	SHORT $LN3@Grow

; 2229 : 			_Tidy(true,	// copy and deallocate if trimming to small string
; 2230 : 				_Newsize < this->_Mysize ? _Newsize : this->_Mysize);

	mov	eax, DWORD PTR _this$[ebp]
	mov	ecx, DWORD PTR __Newsize$[ebp]
	cmp	ecx, DWORD PTR [eax+16]
	jae	SHORT $LN9@Grow
	mov	edx, DWORD PTR __Newsize$[ebp]
	mov	DWORD PTR tv129[ebp], edx
	jmp	SHORT $LN10@Grow
$LN9@Grow:
	mov	eax, DWORD PTR _this$[ebp]
	mov	ecx, DWORD PTR [eax+16]
	mov	DWORD PTR tv129[ebp], ecx
$LN10@Grow:
	mov	edx, DWORD PTR tv129[ebp]
	push	edx
	push	1
	mov	ecx, DWORD PTR _this$[ebp]
	call	?_Tidy@?$basic_string@DU?$char_traits@D@std@@V?$allocator@D@2@@std@@QAEX_NI@Z ; std::basic_string<char,std::char_traits<char>,std::allocator<char> >::_Tidy
	jmp	SHORT $LN4@Grow
$LN3@Grow:

; 2231 : 		else if (_Newsize == 0)

	cmp	DWORD PTR __Newsize$[ebp], 0
	jne	SHORT $LN4@Grow

; 2232 : 			_Eos(0);	// new size is zero, just null terminate

	push	0
	mov	ecx, DWORD PTR _this$[ebp]
	call	?_Eos@?$basic_string@DU?$char_traits@D@std@@V?$allocator@D@2@@std@@QAEXI@Z ; std::basic_string<char,std::char_traits<char>,std::allocator<char> >::_Eos
$LN4@Grow:

; 2233 : 		return (0 < _Newsize);	// return true only if more work to do

	cmp	DWORD PTR __Newsize$[ebp], 0
	jbe	SHORT $LN11@Grow
	mov	DWORD PTR tv136[ebp], 1
	jmp	SHORT $LN12@Grow
$LN11@Grow:
	mov	DWORD PTR tv136[ebp], 0
$LN12@Grow:
	mov	al, BYTE PTR tv136[ebp]
$LN8@Grow:

; 2234 : 		}

	mov	esp, ebp
	pop	ebp
	ret	8
?_Grow@?$basic_string@DU?$char_traits@D@std@@V?$allocator@D@2@@std@@QAE_NI_N@Z ENDP ; std::basic_string<char,std::char_traits<char>,std::allocator<char> >::_Grow
_TEXT	ENDS
; Function compile flags: /Odtp
; File c:\program files (x86)\microsoft visual studio 11.0\vc\include\xstring
;	COMDAT ?_Eos@?$basic_string@DU?$char_traits@D@std@@V?$allocator@D@2@@std@@QAEXI@Z
_TEXT	SEGMENT
_this$ = -8						; size = 4
$T1 = -1						; size = 1
__Newsize$ = 8						; size = 4
?_Eos@?$basic_string@DU?$char_traits@D@std@@V?$allocator@D@2@@std@@QAEXI@Z PROC ; std::basic_string<char,std::char_traits<char>,std::allocator<char> >::_Eos, COMDAT
; _this$ = ecx

; 2217 : 		{	// set new length and null terminator

	push	ebp
	mov	ebp, esp
	sub	esp, 8
	mov	DWORD PTR _this$[ebp], ecx

; 2218 : 		_Traits::assign(this->_Myptr()[this->_Mysize = _Newsize], _Elem());

	mov	BYTE PTR $T1[ebp], 0
	mov	eax, DWORD PTR _this$[ebp]
	mov	ecx, DWORD PTR __Newsize$[ebp]
	mov	DWORD PTR [eax+16], ecx
	lea	edx, DWORD PTR $T1[ebp]
	push	edx
	mov	ecx, DWORD PTR _this$[ebp]
	call	?_Myptr@?$_String_val@U?$_Simple_types@D@std@@@std@@QAEPADXZ ; std::_String_val<std::_Simple_types<char> >::_Myptr
	add	eax, DWORD PTR __Newsize$[ebp]
	push	eax
	call	?assign@?$char_traits@D@std@@SAXAADABD@Z ; std::char_traits<char>::assign
	add	esp, 8

; 2219 : 		}

	mov	esp, ebp
	pop	ebp
	ret	4
?_Eos@?$basic_string@DU?$char_traits@D@std@@V?$allocator@D@2@@std@@QAEXI@Z ENDP ; std::basic_string<char,std::char_traits<char>,std::allocator<char> >::_Eos
_TEXT	ENDS
; Function compile flags: /Odtp
; File c:\program files (x86)\microsoft visual studio 11.0\vc\include\xstring
;	COMDAT ?_Copy@?$basic_string@DU?$char_traits@D@std@@V?$allocator@D@2@@std@@QAEXII@Z
_TEXT	SEGMENT
tv205 = -48						; size = 4
tv204 = -44						; size = 4
tv203 = -40						; size = 4
tv202 = -36						; size = 4
__Ptr$ = -32						; size = 4
__Newres$ = -28						; size = 4
_this$ = -24						; size = 4
$T2 = -19						; size = 1
$T3 = -18						; size = 1
$T4 = -17						; size = 1
__$EHRec$ = -16						; size = 16
__Newsize$ = 8						; size = 4
__Oldlen$ = 12						; size = 4
?_Copy@?$basic_string@DU?$char_traits@D@std@@V?$allocator@D@2@@std@@QAEXII@Z PROC ; std::basic_string<char,std::char_traits<char>,std::allocator<char> >::_Copy, COMDAT
; _this$ = ecx

; 2182 : 		{	// copy _Oldlen elements to newly allocated buffer

	push	ebp
	mov	ebp, esp
	push	-1
	push	__ehhandler$?_Copy@?$basic_string@DU?$char_traits@D@std@@V?$allocator@D@2@@std@@QAEXII@Z
	mov	eax, DWORD PTR fs:0
	push	eax
	push	ecx
	sub	esp, 32					; 00000020H
	push	ebx
	push	esi
	push	edi
	mov	eax, DWORD PTR ___security_cookie
	xor	eax, ebp
	push	eax
	lea	eax, DWORD PTR __$EHRec$[ebp+4]
	mov	DWORD PTR fs:0, eax
	mov	DWORD PTR __$EHRec$[ebp], esp
	mov	DWORD PTR _this$[ebp], ecx

; 2183 : 		size_type _Newres = _Newsize | this->_ALLOC_MASK;

	mov	eax, DWORD PTR __Newsize$[ebp]
	or	eax, 15					; 0000000fH
	mov	DWORD PTR __Newres$[ebp], eax

; 2184 : 		if (max_size() < _Newres)

	mov	ecx, DWORD PTR _this$[ebp]
	call	?max_size@?$basic_string@DU?$char_traits@D@std@@V?$allocator@D@2@@std@@QBEIXZ ; std::basic_string<char,std::char_traits<char>,std::allocator<char> >::max_size
	cmp	eax, DWORD PTR __Newres$[ebp]
	jae	SHORT $LN9@Copy

; 2185 : 			_Newres = _Newsize;	// undo roundup if too big

	mov	ecx, DWORD PTR __Newsize$[ebp]
	mov	DWORD PTR __Newres$[ebp], ecx
	jmp	SHORT $LN8@Copy
$LN9@Copy:

; 2186 : 		else if (this->_Myres / 2 <= _Newres / 3)

	mov	eax, DWORD PTR __Newres$[ebp]
	xor	edx, edx
	mov	ecx, 3
	div	ecx
	mov	edx, DWORD PTR _this$[ebp]
	mov	ecx, DWORD PTR [edx+20]
	shr	ecx, 1
	cmp	ecx, eax
	ja	SHORT $LN7@Copy
	jmp	SHORT $LN8@Copy
$LN7@Copy:

; 2187 : 			;
; 2188 : 		else if (this->_Myres <= max_size() - this->_Myres / 2)

	mov	edx, DWORD PTR _this$[ebp]
	mov	esi, DWORD PTR [edx+20]
	shr	esi, 1
	mov	ecx, DWORD PTR _this$[ebp]
	call	?max_size@?$basic_string@DU?$char_traits@D@std@@V?$allocator@D@2@@std@@QBEIXZ ; std::basic_string<char,std::char_traits<char>,std::allocator<char> >::max_size
	sub	eax, esi
	mov	ecx, DWORD PTR _this$[ebp]
	cmp	DWORD PTR [ecx+20], eax
	ja	SHORT $LN5@Copy

; 2189 : 			_Newres = this->_Myres
; 2190 : 				+ this->_Myres / 2;	// grow exponentially if possible

	mov	edx, DWORD PTR _this$[ebp]
	mov	eax, DWORD PTR [edx+20]
	shr	eax, 1
	mov	ecx, DWORD PTR _this$[ebp]
	add	eax, DWORD PTR [ecx+20]
	mov	DWORD PTR __Newres$[ebp], eax

; 2191 : 		else

	jmp	SHORT $LN8@Copy
$LN5@Copy:

; 2192 : 			_Newres = max_size();	// settle for max_size()

	mov	ecx, DWORD PTR _this$[ebp]
	call	?max_size@?$basic_string@DU?$char_traits@D@std@@V?$allocator@D@2@@std@@QBEIXZ ; std::basic_string<char,std::char_traits<char>,std::allocator<char> >::max_size
	mov	DWORD PTR __Newres$[ebp], eax
$LN8@Copy:

; 2193 : 
; 2194 : 		_Elem *_Ptr;
; 2195 : 		_TRY_BEGIN

	mov	DWORD PTR __$EHRec$[ebp+12], 0

; 2196 : 			_Ptr = this->_Getal().allocate(_Newres + 1);

	lea	edx, DWORD PTR $T4[ebp]
	push	edx
	mov	ecx, DWORD PTR _this$[ebp]
	call	?_Getal@?$_String_alloc@$0A@U?$_String_base_types@DV?$allocator@D@std@@@std@@@std@@QBE?AU?$_Wrap_alloc@V?$allocator@D@std@@@2@XZ ; std::_String_alloc<0,std::_String_base_types<char,std::allocator<char> > >::_Getal
	mov	DWORD PTR tv202[ebp], eax
	mov	eax, DWORD PTR __Newres$[ebp]
	add	eax, 1
	push	eax
	mov	ecx, DWORD PTR tv202[ebp]
	call	?allocate@?$_Wrap_alloc@V?$allocator@D@std@@@std@@QAEPADI@Z ; std::_Wrap_alloc<std::allocator<char> >::allocate
	mov	DWORD PTR tv203[ebp], eax
	mov	ecx, DWORD PTR tv203[ebp]
	mov	DWORD PTR __Ptr$[ebp], ecx
	jmp	SHORT $LN12@Copy
__catch$?_Copy@?$basic_string@DU?$char_traits@D@std@@V?$allocator@D@2@@std@@QAEXII@Z$0:

; 2197 : 		_CATCH_ALL

	mov	DWORD PTR __$EHRec$[ebp], esp

; 2198 : 			_Newres = _Newsize;	// allocation failed, undo roundup and retry

	mov	edx, DWORD PTR __Newsize$[ebp]
	mov	DWORD PTR __Newres$[ebp], edx

; 2199 : 			_TRY_BEGIN

	mov	BYTE PTR __$EHRec$[ebp+12], 2

; 2200 : 				_Ptr = this->_Getal().allocate(_Newres + 1);

	lea	eax, DWORD PTR $T3[ebp]
	push	eax
	mov	ecx, DWORD PTR _this$[ebp]
	call	?_Getal@?$_String_alloc@$0A@U?$_String_base_types@DV?$allocator@D@std@@@std@@@std@@QBE?AU?$_Wrap_alloc@V?$allocator@D@std@@@2@XZ ; std::_String_alloc<0,std::_String_base_types<char,std::allocator<char> > >::_Getal
	mov	DWORD PTR tv204[ebp], eax
	mov	ecx, DWORD PTR __Newres$[ebp]
	add	ecx, 1
	push	ecx
	mov	ecx, DWORD PTR tv204[ebp]
	call	?allocate@?$_Wrap_alloc@V?$allocator@D@std@@@std@@QAEPADI@Z ; std::_Wrap_alloc<std::allocator<char> >::allocate
	mov	DWORD PTR tv205[ebp], eax
	mov	edx, DWORD PTR tv205[ebp]
	mov	DWORD PTR __Ptr$[ebp], edx
	jmp	SHORT $LN14@Copy
__catch$?_Copy@?$basic_string@DU?$char_traits@D@std@@V?$allocator@D@2@@std@@QAEXII@Z$1:

; 2201 : 			_CATCH_ALL
; 2202 : 			_Tidy(true);	// failed again, discard storage and reraise

	push	0
	push	1
	mov	ecx, DWORD PTR _this$[ebp]
	call	?_Tidy@?$basic_string@DU?$char_traits@D@std@@V?$allocator@D@2@@std@@QAEX_NI@Z ; std::basic_string<char,std::char_traits<char>,std::allocator<char> >::_Tidy

; 2203 : 			_RERAISE;

	push	0
	push	0
	call	__CxxThrowException@8

; 2204 : 			_CATCH_END

	mov	eax, $LN17@Copy
	ret	0
$LN14@Copy:
	mov	DWORD PTR __$EHRec$[ebp+12], 1
	jmp	SHORT __tryend$?_Copy@?$basic_string@DU?$char_traits@D@std@@V?$allocator@D@2@@std@@QAEXII@Z$2
$LN17@Copy:
	mov	DWORD PTR __$EHRec$[ebp+12], 1
__tryend$?_Copy@?$basic_string@DU?$char_traits@D@std@@V?$allocator@D@2@@std@@QAEXII@Z$2:

; 2205 : 		_CATCH_END

	mov	eax, $LN19@Copy
	ret	0
$LN12@Copy:
	mov	DWORD PTR __$EHRec$[ebp+12], -1
	jmp	SHORT __tryend$?_Copy@?$basic_string@DU?$char_traits@D@std@@V?$allocator@D@2@@std@@QAEXII@Z$3
$LN19@Copy:
	mov	DWORD PTR __$EHRec$[ebp+12], -1
__tryend$?_Copy@?$basic_string@DU?$char_traits@D@std@@V?$allocator@D@2@@std@@QAEXII@Z$3:

; 2206 : 
; 2207 : 		if (0 < _Oldlen)

	cmp	DWORD PTR __Oldlen$[ebp], 0
	jbe	SHORT $LN1@Copy

; 2208 : 			_Traits::copy(_Ptr, this->_Myptr(),
; 2209 : 				_Oldlen);	// copy existing elements

	mov	eax, DWORD PTR __Oldlen$[ebp]
	push	eax
	mov	ecx, DWORD PTR _this$[ebp]
	call	?_Myptr@?$_String_val@U?$_Simple_types@D@std@@@std@@QAEPADXZ ; std::_String_val<std::_Simple_types<char> >::_Myptr
	push	eax
	mov	ecx, DWORD PTR __Ptr$[ebp]
	push	ecx
	call	?copy@?$char_traits@D@std@@SAPADPADPBDI@Z ; std::char_traits<char>::copy
	add	esp, 12					; 0000000cH
$LN1@Copy:

; 2210 : 		_Tidy(true);

	push	0
	push	1
	mov	ecx, DWORD PTR _this$[ebp]
	call	?_Tidy@?$basic_string@DU?$char_traits@D@std@@V?$allocator@D@2@@std@@QAEX_NI@Z ; std::basic_string<char,std::char_traits<char>,std::allocator<char> >::_Tidy

; 2211 : 		this->_Getal().construct(&this->_Bx._Ptr, _Ptr);

	lea	edx, DWORD PTR __Ptr$[ebp]
	push	edx
	mov	eax, DWORD PTR _this$[ebp]
	push	eax
	lea	ecx, DWORD PTR $T2[ebp]
	push	ecx
	mov	ecx, DWORD PTR _this$[ebp]
	call	?_Getal@?$_String_alloc@$0A@U?$_String_base_types@DV?$allocator@D@std@@@std@@@std@@QBE?AU?$_Wrap_alloc@V?$allocator@D@std@@@2@XZ ; std::_String_alloc<0,std::_String_base_types<char,std::allocator<char> > >::_Getal
	mov	ecx, eax
	call	??$construct@PADAAPAD@?$_Wrap_alloc@V?$allocator@D@std@@@std@@QAEXPAPADAAPAD@Z ; std::_Wrap_alloc<std::allocator<char> >::construct<char *,char * &>

; 2212 : 		this->_Myres = _Newres;

	mov	edx, DWORD PTR _this$[ebp]
	mov	eax, DWORD PTR __Newres$[ebp]
	mov	DWORD PTR [edx+20], eax

; 2213 : 		_Eos(_Oldlen);

	mov	ecx, DWORD PTR __Oldlen$[ebp]
	push	ecx
	mov	ecx, DWORD PTR _this$[ebp]
	call	?_Eos@?$basic_string@DU?$char_traits@D@std@@V?$allocator@D@2@@std@@QAEXI@Z ; std::basic_string<char,std::char_traits<char>,std::allocator<char> >::_Eos
$LN11@Copy:

; 2214 : 		}

	mov	ecx, DWORD PTR __$EHRec$[ebp+4]
	mov	DWORD PTR fs:0, ecx
	pop	ecx
	pop	edi
	pop	esi
	pop	ebx
	mov	esp, ebp
	pop	ebp
	ret	8
_TEXT	ENDS
;	COMDAT text$x
text$x	SEGMENT
__ehhandler$?_Copy@?$basic_string@DU?$char_traits@D@std@@V?$allocator@D@2@@std@@QAEXII@Z:
	mov	edx, DWORD PTR [esp+8]
	lea	eax, DWORD PTR [edx+12]
	mov	ecx, DWORD PTR [edx-52]
	xor	ecx, eax
	call	@__security_check_cookie@4
	mov	eax, OFFSET __ehfuncinfo$?_Copy@?$basic_string@DU?$char_traits@D@std@@V?$allocator@D@2@@std@@QAEXII@Z
	jmp	___CxxFrameHandler3
text$x	ENDS
?_Copy@?$basic_string@DU?$char_traits@D@std@@V?$allocator@D@2@@std@@QAEXII@Z ENDP ; std::basic_string<char,std::char_traits<char>,std::allocator<char> >::_Copy
; Function compile flags: /Odtp
; File c:\program files (x86)\microsoft visual studio 11.0\vc\include\xstring
;	COMDAT ?max_size@?$basic_string@DU?$char_traits@D@std@@V?$allocator@D@2@@std@@QBEIXZ
_TEXT	SEGMENT
_this$ = -16						; size = 4
tv75 = -12						; size = 4
__Num$ = -8						; size = 4
$T1 = -1						; size = 1
?max_size@?$basic_string@DU?$char_traits@D@std@@V?$allocator@D@2@@std@@QBEIXZ PROC ; std::basic_string<char,std::char_traits<char>,std::allocator<char> >::max_size, COMDAT
; _this$ = ecx

; 1737 : 		{	// return maximum possible length of sequence

	push	ebp
	mov	ebp, esp
	sub	esp, 16					; 00000010H
	mov	DWORD PTR _this$[ebp], ecx

; 1738 : 		size_type _Num = this->_Getal().max_size();

	lea	eax, DWORD PTR $T1[ebp]
	push	eax
	mov	ecx, DWORD PTR _this$[ebp]
	call	?_Getal@?$_String_alloc@$0A@U?$_String_base_types@DV?$allocator@D@std@@@std@@@std@@QBE?AU?$_Wrap_alloc@V?$allocator@D@std@@@2@XZ ; std::_String_alloc<0,std::_String_base_types<char,std::allocator<char> > >::_Getal
	mov	ecx, eax
	call	?max_size@?$_Wrap_alloc@V?$allocator@D@std@@@std@@QBEIXZ ; std::_Wrap_alloc<std::allocator<char> >::max_size
	mov	DWORD PTR __Num$[ebp], eax

; 1739 : 		return (_Num <= 1 ? 1 : _Num - 1);

	cmp	DWORD PTR __Num$[ebp], 1
	ja	SHORT $LN3@max_size
	mov	DWORD PTR tv75[ebp], 1
	jmp	SHORT $LN4@max_size
$LN3@max_size:
	mov	ecx, DWORD PTR __Num$[ebp]
	sub	ecx, 1
	mov	DWORD PTR tv75[ebp], ecx
$LN4@max_size:
	mov	eax, DWORD PTR tv75[ebp]

; 1740 : 		}

	mov	esp, ebp
	pop	ebp
	ret	0
?max_size@?$basic_string@DU?$char_traits@D@std@@V?$allocator@D@2@@std@@QBEIXZ ENDP ; std::basic_string<char,std::char_traits<char>,std::allocator<char> >::max_size
_TEXT	ENDS
; Function compile flags: /Odtp
; File c:\program files (x86)\microsoft visual studio 11.0\vc\include\xstring
;	COMDAT ?size@?$basic_string@DU?$char_traits@D@std@@V?$allocator@D@2@@std@@QBEIXZ
_TEXT	SEGMENT
_this$ = -4						; size = 4
?size@?$basic_string@DU?$char_traits@D@std@@V?$allocator@D@2@@std@@QBEIXZ PROC ; std::basic_string<char,std::char_traits<char>,std::allocator<char> >::size, COMDAT
; _this$ = ecx

; 1732 : 		{	// return length of sequence

	push	ebp
	mov	ebp, esp
	push	ecx
	mov	DWORD PTR _this$[ebp], ecx

; 1733 : 		return (this->_Mysize);

	mov	eax, DWORD PTR _this$[ebp]
	mov	eax, DWORD PTR [eax+16]

; 1734 : 		}

	mov	esp, ebp
	pop	ebp
	ret	0
?size@?$basic_string@DU?$char_traits@D@std@@V?$allocator@D@2@@std@@QBEIXZ ENDP ; std::basic_string<char,std::char_traits<char>,std::allocator<char> >::size
_TEXT	ENDS
; Function compile flags: /Odtp
; File c:\program files (x86)\microsoft visual studio 11.0\vc\include\xstring
;	COMDAT ?erase@?$basic_string@DU?$char_traits@D@std@@V?$allocator@D@2@@std@@QAEAAV12@II@Z
_TEXT	SEGMENT
__Newsize$1 = -12					; size = 4
__Ptr$2 = -8						; size = 4
_this$ = -4						; size = 4
__Off$ = 8						; size = 4
__Count$ = 12						; size = 4
?erase@?$basic_string@DU?$char_traits@D@std@@V?$allocator@D@2@@std@@QAEAAV12@II@Z PROC ; std::basic_string<char,std::char_traits<char>,std::allocator<char> >::erase, COMDAT
; _this$ = ecx

; 1317 : 		{	// erase elements [_Off, _Off + _Count)

	push	ebp
	mov	ebp, esp
	sub	esp, 12					; 0000000cH
	mov	DWORD PTR _this$[ebp], ecx

; 1318 : 		if (this->_Mysize < _Off)

	mov	eax, DWORD PTR _this$[ebp]
	mov	ecx, DWORD PTR [eax+16]
	cmp	ecx, DWORD PTR __Off$[ebp]
	jae	SHORT $LN4@erase

; 1319 : 			_Xran();	// _Off off end

	mov	ecx, DWORD PTR _this$[ebp]
	call	?_Xran@?$basic_string@DU?$char_traits@D@std@@V?$allocator@D@2@@std@@QBEXXZ ; std::basic_string<char,std::char_traits<char>,std::allocator<char> >::_Xran
$LN4@erase:

; 1320 : 		if (this->_Mysize - _Off <= _Count)

	mov	edx, DWORD PTR _this$[ebp]
	mov	eax, DWORD PTR [edx+16]
	sub	eax, DWORD PTR __Off$[ebp]
	cmp	eax, DWORD PTR __Count$[ebp]
	ja	SHORT $LN3@erase

; 1321 : 			_Eos(_Off);	// erase elements [_Off, ...)

	mov	ecx, DWORD PTR __Off$[ebp]
	push	ecx
	mov	ecx, DWORD PTR _this$[ebp]
	call	?_Eos@?$basic_string@DU?$char_traits@D@std@@V?$allocator@D@2@@std@@QAEXI@Z ; std::basic_string<char,std::char_traits<char>,std::allocator<char> >::_Eos
	jmp	SHORT $LN2@erase
$LN3@erase:

; 1322 : 		else if (0 < _Count)

	cmp	DWORD PTR __Count$[ebp], 0
	jbe	SHORT $LN2@erase

; 1323 : 			{	// move elements down
; 1324 : 			value_type *_Ptr = this->_Myptr() + _Off;

	mov	ecx, DWORD PTR _this$[ebp]
	call	?_Myptr@?$_String_val@U?$_Simple_types@D@std@@@std@@QAEPADXZ ; std::_String_val<std::_Simple_types<char> >::_Myptr
	add	eax, DWORD PTR __Off$[ebp]
	mov	DWORD PTR __Ptr$2[ebp], eax

; 1325 : 			size_type _Newsize = this->_Mysize - _Count;

	mov	edx, DWORD PTR _this$[ebp]
	mov	eax, DWORD PTR [edx+16]
	sub	eax, DWORD PTR __Count$[ebp]
	mov	DWORD PTR __Newsize$1[ebp], eax

; 1326 : 			_Traits::move(_Ptr, _Ptr + _Count, _Newsize - _Off);

	mov	ecx, DWORD PTR __Newsize$1[ebp]
	sub	ecx, DWORD PTR __Off$[ebp]
	push	ecx
	mov	edx, DWORD PTR __Ptr$2[ebp]
	add	edx, DWORD PTR __Count$[ebp]
	push	edx
	mov	eax, DWORD PTR __Ptr$2[ebp]
	push	eax
	call	?move@?$char_traits@D@std@@SAPADPADPBDI@Z ; std::char_traits<char>::move
	add	esp, 12					; 0000000cH

; 1327 : 			_Eos(_Newsize);

	mov	ecx, DWORD PTR __Newsize$1[ebp]
	push	ecx
	mov	ecx, DWORD PTR _this$[ebp]
	call	?_Eos@?$basic_string@DU?$char_traits@D@std@@V?$allocator@D@2@@std@@QAEXI@Z ; std::basic_string<char,std::char_traits<char>,std::allocator<char> >::_Eos
$LN2@erase:

; 1328 : 			}
; 1329 : 		return (*this);

	mov	eax, DWORD PTR _this$[ebp]
$LN6@erase:

; 1330 : 		}

	mov	esp, ebp
	pop	ebp
	ret	8
?erase@?$basic_string@DU?$char_traits@D@std@@V?$allocator@D@2@@std@@QAEAAV12@II@Z ENDP ; std::basic_string<char,std::char_traits<char>,std::allocator<char> >::erase
_TEXT	ENDS
; Function compile flags: /Odtp
; File c:\program files (x86)\microsoft visual studio 11.0\vc\include\xstring
;	COMDAT ?erase@?$basic_string@DU?$char_traits@D@std@@V?$allocator@D@2@@std@@QAEAAV12@I@Z
_TEXT	SEGMENT
_this$ = -4						; size = 4
__Off$ = 8						; size = 4
?erase@?$basic_string@DU?$char_traits@D@std@@V?$allocator@D@2@@std@@QAEAAV12@I@Z PROC ; std::basic_string<char,std::char_traits<char>,std::allocator<char> >::erase, COMDAT
; _this$ = ecx

; 1309 : 		{	// erase elements [_Off, ...)

	push	ebp
	mov	ebp, esp
	push	ecx
	mov	DWORD PTR _this$[ebp], ecx

; 1310 : 		if (this->_Mysize < _Off)

	mov	eax, DWORD PTR _this$[ebp]
	mov	ecx, DWORD PTR [eax+16]
	cmp	ecx, DWORD PTR __Off$[ebp]
	jae	SHORT $LN1@erase

; 1311 : 			_Xran();	// _Off off end

	mov	ecx, DWORD PTR _this$[ebp]
	call	?_Xran@?$basic_string@DU?$char_traits@D@std@@V?$allocator@D@2@@std@@QBEXXZ ; std::basic_string<char,std::char_traits<char>,std::allocator<char> >::_Xran
$LN1@erase:

; 1312 : 		_Eos(_Off);

	mov	edx, DWORD PTR __Off$[ebp]
	push	edx
	mov	ecx, DWORD PTR _this$[ebp]
	call	?_Eos@?$basic_string@DU?$char_traits@D@std@@V?$allocator@D@2@@std@@QAEXI@Z ; std::basic_string<char,std::char_traits<char>,std::allocator<char> >::_Eos

; 1313 : 		return (*this);

	mov	eax, DWORD PTR _this$[ebp]
$LN3@erase:

; 1314 : 		}

	mov	esp, ebp
	pop	ebp
	ret	4
?erase@?$basic_string@DU?$char_traits@D@std@@V?$allocator@D@2@@std@@QAEAAV12@I@Z ENDP ; std::basic_string<char,std::char_traits<char>,std::allocator<char> >::erase
_TEXT	ENDS
; Function compile flags: /Odtp
; File c:\program files (x86)\microsoft visual studio 11.0\vc\include\xstring
;	COMDAT ?assign@?$basic_string@DU?$char_traits@D@std@@V?$allocator@D@2@@std@@QAEAAV12@PBD@Z
_TEXT	SEGMENT
_this$ = -4						; size = 4
__Ptr$ = 8						; size = 4
?assign@?$basic_string@DU?$char_traits@D@std@@V?$allocator@D@2@@std@@QAEAAV12@PBD@Z PROC ; std::basic_string<char,std::char_traits<char>,std::allocator<char> >::assign, COMDAT
; _this$ = ecx

; 1142 : 		{	// assign [_Ptr, <null>)

	push	ebp
	mov	ebp, esp
	push	ecx
	mov	DWORD PTR _this$[ebp], ecx

; 1143 : 		_DEBUG_POINTER(_Ptr);
; 1144 : 		return (assign(_Ptr, _Traits::length(_Ptr)));

	mov	eax, DWORD PTR __Ptr$[ebp]
	push	eax
	call	?length@?$char_traits@D@std@@SAIPBD@Z	; std::char_traits<char>::length
	add	esp, 4
	push	eax
	mov	ecx, DWORD PTR __Ptr$[ebp]
	push	ecx
	mov	ecx, DWORD PTR _this$[ebp]
	call	?assign@?$basic_string@DU?$char_traits@D@std@@V?$allocator@D@2@@std@@QAEAAV12@PBDI@Z ; std::basic_string<char,std::char_traits<char>,std::allocator<char> >::assign

; 1145 : 		}

	mov	esp, ebp
	pop	ebp
	ret	4
?assign@?$basic_string@DU?$char_traits@D@std@@V?$allocator@D@2@@std@@QAEAAV12@PBD@Z ENDP ; std::basic_string<char,std::char_traits<char>,std::allocator<char> >::assign
_TEXT	ENDS
; Function compile flags: /Odtp
; File c:\program files (x86)\microsoft visual studio 11.0\vc\include\xstring
;	COMDAT ?assign@?$basic_string@DU?$char_traits@D@std@@V?$allocator@D@2@@std@@QAEAAV12@PBDI@Z
_TEXT	SEGMENT
_this$ = -4						; size = 4
__Ptr$ = 8						; size = 4
__Count$ = 12						; size = 4
?assign@?$basic_string@DU?$char_traits@D@std@@V?$allocator@D@2@@std@@QAEAAV12@PBDI@Z PROC ; std::basic_string<char,std::char_traits<char>,std::allocator<char> >::assign, COMDAT
; _this$ = ecx

; 1123 : 		{	// assign [_Ptr, _Ptr + _Count)

	push	ebp
	mov	ebp, esp
	push	ecx
	mov	DWORD PTR _this$[ebp], ecx

; 1124 :  #if _ITERATOR_DEBUG_LEVEL == 2
; 1125 : 		if (_Count != 0)
; 1126 : 			_DEBUG_POINTER(_Ptr);
; 1127 :  #endif /* _ITERATOR_DEBUG_LEVEL == 2 */
; 1128 : 
; 1129 : 		if (_Inside(_Ptr))

	mov	eax, DWORD PTR __Ptr$[ebp]
	push	eax
	mov	ecx, DWORD PTR _this$[ebp]
	call	?_Inside@?$basic_string@DU?$char_traits@D@std@@V?$allocator@D@2@@std@@QAE_NPBD@Z ; std::basic_string<char,std::char_traits<char>,std::allocator<char> >::_Inside
	movzx	ecx, al
	test	ecx, ecx
	je	SHORT $LN2@assign

; 1130 : 			return (assign(*this,
; 1131 : 				_Ptr - this->_Myptr(), _Count));	// substring

	mov	edx, DWORD PTR __Count$[ebp]
	push	edx
	mov	ecx, DWORD PTR _this$[ebp]
	call	?_Myptr@?$_String_val@U?$_Simple_types@D@std@@@std@@QAEPADXZ ; std::_String_val<std::_Simple_types<char> >::_Myptr
	mov	ecx, DWORD PTR __Ptr$[ebp]
	sub	ecx, eax
	push	ecx
	mov	edx, DWORD PTR _this$[ebp]
	push	edx
	mov	ecx, DWORD PTR _this$[ebp]
	call	?assign@?$basic_string@DU?$char_traits@D@std@@V?$allocator@D@2@@std@@QAEAAV12@ABV12@II@Z ; std::basic_string<char,std::char_traits<char>,std::allocator<char> >::assign
	jmp	SHORT $LN3@assign
$LN2@assign:

; 1132 : 
; 1133 : 		if (_Grow(_Count))

	push	0
	mov	eax, DWORD PTR __Count$[ebp]
	push	eax
	mov	ecx, DWORD PTR _this$[ebp]
	call	?_Grow@?$basic_string@DU?$char_traits@D@std@@V?$allocator@D@2@@std@@QAE_NI_N@Z ; std::basic_string<char,std::char_traits<char>,std::allocator<char> >::_Grow
	movzx	ecx, al
	test	ecx, ecx
	je	SHORT $LN1@assign

; 1134 : 			{	// make room and assign new stuff
; 1135 : 			_Traits::copy(this->_Myptr(), _Ptr, _Count);

	mov	edx, DWORD PTR __Count$[ebp]
	push	edx
	mov	eax, DWORD PTR __Ptr$[ebp]
	push	eax
	mov	ecx, DWORD PTR _this$[ebp]
	call	?_Myptr@?$_String_val@U?$_Simple_types@D@std@@@std@@QAEPADXZ ; std::_String_val<std::_Simple_types<char> >::_Myptr
	push	eax
	call	?copy@?$char_traits@D@std@@SAPADPADPBDI@Z ; std::char_traits<char>::copy
	add	esp, 12					; 0000000cH

; 1136 : 			_Eos(_Count);

	mov	ecx, DWORD PTR __Count$[ebp]
	push	ecx
	mov	ecx, DWORD PTR _this$[ebp]
	call	?_Eos@?$basic_string@DU?$char_traits@D@std@@V?$allocator@D@2@@std@@QAEXI@Z ; std::basic_string<char,std::char_traits<char>,std::allocator<char> >::_Eos
$LN1@assign:

; 1137 : 			}
; 1138 : 		return (*this);

	mov	eax, DWORD PTR _this$[ebp]
$LN3@assign:

; 1139 : 		}

	mov	esp, ebp
	pop	ebp
	ret	8
?assign@?$basic_string@DU?$char_traits@D@std@@V?$allocator@D@2@@std@@QAEAAV12@PBDI@Z ENDP ; std::basic_string<char,std::char_traits<char>,std::allocator<char> >::assign
_TEXT	ENDS
; Function compile flags: /Odtp
; File c:\program files (x86)\microsoft visual studio 11.0\vc\include\xstring
;	COMDAT ?assign@?$basic_string@DU?$char_traits@D@std@@V?$allocator@D@2@@std@@QAEAAV12@ABV12@II@Z
_TEXT	SEGMENT
__Num$ = -8						; size = 4
_this$ = -4						; size = 4
__Right$ = 8						; size = 4
__Roff$ = 12						; size = 4
__Count$ = 16						; size = 4
?assign@?$basic_string@DU?$char_traits@D@std@@V?$allocator@D@2@@std@@QAEAAV12@ABV12@II@Z PROC ; std::basic_string<char,std::char_traits<char>,std::allocator<char> >::assign, COMDAT
; _this$ = ecx

; 1104 : 		{	// assign _Right [_Roff, _Roff + _Count)

	push	ebp
	mov	ebp, esp
	sub	esp, 8
	mov	DWORD PTR _this$[ebp], ecx

; 1105 : 		if (_Right.size() < _Roff)

	mov	ecx, DWORD PTR __Right$[ebp]
	call	?size@?$basic_string@DU?$char_traits@D@std@@V?$allocator@D@2@@std@@QBEIXZ ; std::basic_string<char,std::char_traits<char>,std::allocator<char> >::size
	cmp	eax, DWORD PTR __Roff$[ebp]
	jae	SHORT $LN5@assign

; 1106 : 			_Xran();	// _Roff off end

	mov	ecx, DWORD PTR _this$[ebp]
	call	?_Xran@?$basic_string@DU?$char_traits@D@std@@V?$allocator@D@2@@std@@QBEXXZ ; std::basic_string<char,std::char_traits<char>,std::allocator<char> >::_Xran
$LN5@assign:

; 1107 : 		size_type _Num = _Right.size() - _Roff;

	mov	ecx, DWORD PTR __Right$[ebp]
	call	?size@?$basic_string@DU?$char_traits@D@std@@V?$allocator@D@2@@std@@QBEIXZ ; std::basic_string<char,std::char_traits<char>,std::allocator<char> >::size
	sub	eax, DWORD PTR __Roff$[ebp]
	mov	DWORD PTR __Num$[ebp], eax

; 1108 : 		if (_Count < _Num)

	mov	eax, DWORD PTR __Count$[ebp]
	cmp	eax, DWORD PTR __Num$[ebp]
	jae	SHORT $LN4@assign

; 1109 : 			_Num = _Count;	// trim _Num to size

	mov	ecx, DWORD PTR __Count$[ebp]
	mov	DWORD PTR __Num$[ebp], ecx
$LN4@assign:

; 1110 : 
; 1111 : 		if (this == &_Right)

	mov	edx, DWORD PTR _this$[ebp]
	cmp	edx, DWORD PTR __Right$[ebp]
	jne	SHORT $LN3@assign

; 1112 : 			erase((size_type)(_Roff + _Num)), erase(0, _Roff);	// substring

	mov	eax, DWORD PTR __Roff$[ebp]
	add	eax, DWORD PTR __Num$[ebp]
	push	eax
	mov	ecx, DWORD PTR _this$[ebp]
	call	?erase@?$basic_string@DU?$char_traits@D@std@@V?$allocator@D@2@@std@@QAEAAV12@I@Z ; std::basic_string<char,std::char_traits<char>,std::allocator<char> >::erase
	mov	ecx, DWORD PTR __Roff$[ebp]
	push	ecx
	push	0
	mov	ecx, DWORD PTR _this$[ebp]
	call	?erase@?$basic_string@DU?$char_traits@D@std@@V?$allocator@D@2@@std@@QAEAAV12@II@Z ; std::basic_string<char,std::char_traits<char>,std::allocator<char> >::erase
	jmp	SHORT $LN2@assign
$LN3@assign:

; 1113 : 		else if (_Grow(_Num))

	push	0
	mov	edx, DWORD PTR __Num$[ebp]
	push	edx
	mov	ecx, DWORD PTR _this$[ebp]
	call	?_Grow@?$basic_string@DU?$char_traits@D@std@@V?$allocator@D@2@@std@@QAE_NI_N@Z ; std::basic_string<char,std::char_traits<char>,std::allocator<char> >::_Grow
	movzx	eax, al
	test	eax, eax
	je	SHORT $LN2@assign

; 1114 : 			{	// make room and assign new stuff
; 1115 : 			_Traits::copy(this->_Myptr(),
; 1116 : 				_Right._Myptr() + _Roff, _Num);

	mov	ecx, DWORD PTR __Num$[ebp]
	push	ecx
	mov	ecx, DWORD PTR __Right$[ebp]
	call	?_Myptr@?$_String_val@U?$_Simple_types@D@std@@@std@@QBEPBDXZ ; std::_String_val<std::_Simple_types<char> >::_Myptr
	add	eax, DWORD PTR __Roff$[ebp]
	push	eax
	mov	ecx, DWORD PTR _this$[ebp]
	call	?_Myptr@?$_String_val@U?$_Simple_types@D@std@@@std@@QAEPADXZ ; std::_String_val<std::_Simple_types<char> >::_Myptr
	push	eax
	call	?copy@?$char_traits@D@std@@SAPADPADPBDI@Z ; std::char_traits<char>::copy
	add	esp, 12					; 0000000cH

; 1117 : 			_Eos(_Num);

	mov	edx, DWORD PTR __Num$[ebp]
	push	edx
	mov	ecx, DWORD PTR _this$[ebp]
	call	?_Eos@?$basic_string@DU?$char_traits@D@std@@V?$allocator@D@2@@std@@QAEXI@Z ; std::basic_string<char,std::char_traits<char>,std::allocator<char> >::_Eos
$LN2@assign:

; 1118 : 			}
; 1119 : 		return (*this);

	mov	eax, DWORD PTR _this$[ebp]
$LN7@assign:

; 1120 : 		}

	mov	esp, ebp
	pop	ebp
	ret	12					; 0000000cH
?assign@?$basic_string@DU?$char_traits@D@std@@V?$allocator@D@2@@std@@QAEAAV12@ABV12@II@Z ENDP ; std::basic_string<char,std::char_traits<char>,std::allocator<char> >::assign
_TEXT	ENDS
; Function compile flags: /Odtp
; File c:\program files (x86)\microsoft visual studio 11.0\vc\include\xstring
;	COMDAT ??0?$basic_string@DU?$char_traits@D@std@@V?$allocator@D@2@@std@@QAE@PBD@Z
_TEXT	SEGMENT
_this$ = -8						; size = 4
$T1 = -1						; size = 1
__Ptr$ = 8						; size = 4
??0?$basic_string@DU?$char_traits@D@std@@V?$allocator@D@2@@std@@QAE@PBD@Z PROC ; std::basic_string<char,std::char_traits<char>,std::allocator<char> >::basic_string<char,std::char_traits<char>,std::allocator<char> >, COMDAT
; _this$ = ecx

; 791  : 		{	// construct from [_Ptr, <null>)

	push	ebp
	mov	ebp, esp
	sub	esp, 8
	mov	DWORD PTR _this$[ebp], ecx
	lea	ecx, DWORD PTR $T1[ebp]
	call	??0?$allocator@D@std@@QAE@XZ		; std::allocator<char>::allocator<char>
	push	eax
	mov	ecx, DWORD PTR _this$[ebp]
	call	??0?$_String_alloc@$0A@U?$_String_base_types@DV?$allocator@D@std@@@std@@@std@@QAE@ABV?$allocator@D@1@@Z ; std::_String_alloc<0,std::_String_base_types<char,std::allocator<char> > >::_String_alloc<0,std::_String_base_types<char,std::allocator<char> > >

; 792  : 		_Tidy();

	push	0
	push	0
	mov	ecx, DWORD PTR _this$[ebp]
	call	?_Tidy@?$basic_string@DU?$char_traits@D@std@@V?$allocator@D@2@@std@@QAEX_NI@Z ; std::basic_string<char,std::char_traits<char>,std::allocator<char> >::_Tidy

; 793  : 		assign(_Ptr);

	mov	eax, DWORD PTR __Ptr$[ebp]
	push	eax
	mov	ecx, DWORD PTR _this$[ebp]
	call	?assign@?$basic_string@DU?$char_traits@D@std@@V?$allocator@D@2@@std@@QAEAAV12@PBD@Z ; std::basic_string<char,std::char_traits<char>,std::allocator<char> >::assign

; 794  : 		}

	mov	eax, DWORD PTR _this$[ebp]
	mov	esp, ebp
	pop	ebp
	ret	4
??0?$basic_string@DU?$char_traits@D@std@@V?$allocator@D@2@@std@@QAE@PBD@Z ENDP ; std::basic_string<char,std::char_traits<char>,std::allocator<char> >::basic_string<char,std::char_traits<char>,std::allocator<char> >
_TEXT	ENDS
; Function compile flags: /Odtp
; File c:\program files (x86)\microsoft visual studio 11.0\vc\include\xstring
;	COMDAT ?_Getal@?$_String_alloc@$0A@U?$_String_base_types@DV?$allocator@D@std@@@std@@@std@@QBE?AU?$_Wrap_alloc@V?$allocator@D@std@@@2@XZ
_TEXT	SEGMENT
_this$ = -4						; size = 4
___$ReturnUdt$ = 8					; size = 4
?_Getal@?$_String_alloc@$0A@U?$_String_base_types@DV?$allocator@D@std@@@std@@@std@@QBE?AU?$_Wrap_alloc@V?$allocator@D@std@@@2@XZ PROC ; std::_String_alloc<0,std::_String_base_types<char,std::allocator<char> > >::_Getal, COMDAT
; _this$ = ecx

; 688  : 		{	// get reference to allocator

	push	ebp
	mov	ebp, esp
	push	ecx
	mov	DWORD PTR _this$[ebp], ecx

; 689  : 		return (_Alty());

	mov	ecx, DWORD PTR ___$ReturnUdt$[ebp]
	call	??0?$_Wrap_alloc@V?$allocator@D@std@@@std@@QAE@XZ ; std::_Wrap_alloc<std::allocator<char> >::_Wrap_alloc<std::allocator<char> >
	mov	eax, DWORD PTR ___$ReturnUdt$[ebp]

; 690  : 		}

	mov	esp, ebp
	pop	ebp
	ret	4
?_Getal@?$_String_alloc@$0A@U?$_String_base_types@DV?$allocator@D@std@@@std@@@std@@QBE?AU?$_Wrap_alloc@V?$allocator@D@std@@@2@XZ ENDP ; std::_String_alloc<0,std::_String_base_types<char,std::allocator<char> > >::_Getal
_TEXT	ENDS
; Function compile flags: /Odtp
; File c:\program files (x86)\microsoft visual studio 11.0\vc\include\xstring
;	COMDAT ??0?$_String_alloc@$0A@U?$_String_base_types@DV?$allocator@D@std@@@std@@@std@@QAE@ABV?$allocator@D@1@@Z
_TEXT	SEGMENT
_this$ = -4						; size = 4
___formal$ = 8						; size = 4
??0?$_String_alloc@$0A@U?$_String_base_types@DV?$allocator@D@std@@@std@@@std@@QAE@ABV?$allocator@D@1@@Z PROC ; std::_String_alloc<0,std::_String_base_types<char,std::allocator<char> > >::_String_alloc<0,std::_String_base_types<char,std::allocator<char> > >, COMDAT
; _this$ = ecx

; 635  : 	_String_alloc(const _Alloc& = _Alloc())

	push	ebp
	mov	ebp, esp
	push	ecx
	mov	DWORD PTR _this$[ebp], ecx
	mov	ecx, DWORD PTR _this$[ebp]
	call	??0?$_String_val@U?$_Simple_types@D@std@@@std@@QAE@XZ ; std::_String_val<std::_Simple_types<char> >::_String_val<std::_Simple_types<char> >

; 636  : 		{	// construct allocator from _Al
; 637  : 		}

	mov	eax, DWORD PTR _this$[ebp]
	mov	esp, ebp
	pop	ebp
	ret	4
??0?$_String_alloc@$0A@U?$_String_base_types@DV?$allocator@D@std@@@std@@@std@@QAE@ABV?$allocator@D@1@@Z ENDP ; std::_String_alloc<0,std::_String_base_types<char,std::allocator<char> > >::_String_alloc<0,std::_String_base_types<char,std::allocator<char> > >
_TEXT	ENDS
; Function compile flags: /Odtp
; File c:\program files (x86)\microsoft visual studio 11.0\vc\include\xstring
;	COMDAT ?_Myptr@?$_String_val@U?$_Simple_types@D@std@@@std@@QBEPBDXZ
_TEXT	SEGMENT
tv72 = -8						; size = 4
_this$ = -4						; size = 4
?_Myptr@?$_String_val@U?$_Simple_types@D@std@@@std@@QBEPBDXZ PROC ; std::_String_val<std::_Simple_types<char> >::_Myptr, COMDAT
; _this$ = ecx

; 521  : 		{	// determine current pointer to buffer for nonmutable string

	push	ebp
	mov	ebp, esp
	sub	esp, 8
	mov	DWORD PTR _this$[ebp], ecx

; 522  : 		return (this->_BUF_SIZE <= this->_Myres
; 523  : 			? _STD addressof(*this->_Bx._Ptr)
; 524  : 			: this->_Bx._Buf);

	mov	eax, DWORD PTR _this$[ebp]
	cmp	DWORD PTR [eax+20], 16			; 00000010H
	jb	SHORT $LN3@Myptr
	mov	ecx, DWORD PTR _this$[ebp]
	mov	edx, DWORD PTR [ecx]
	push	edx
	call	??$addressof@D@std@@YAPADAAD@Z		; std::addressof<char>
	add	esp, 4
	mov	DWORD PTR tv72[ebp], eax
	jmp	SHORT $LN4@Myptr
$LN3@Myptr:
	mov	eax, DWORD PTR _this$[ebp]
	mov	DWORD PTR tv72[ebp], eax
$LN4@Myptr:
	mov	eax, DWORD PTR tv72[ebp]

; 525  : 		}

	mov	esp, ebp
	pop	ebp
	ret	0
?_Myptr@?$_String_val@U?$_Simple_types@D@std@@@std@@QBEPBDXZ ENDP ; std::_String_val<std::_Simple_types<char> >::_Myptr
_TEXT	ENDS
; Function compile flags: /Odtp
; File c:\program files (x86)\microsoft visual studio 11.0\vc\include\xstring
;	COMDAT ?_Myptr@?$_String_val@U?$_Simple_types@D@std@@@std@@QAEPADXZ
_TEXT	SEGMENT
tv72 = -8						; size = 4
_this$ = -4						; size = 4
?_Myptr@?$_String_val@U?$_Simple_types@D@std@@@std@@QAEPADXZ PROC ; std::_String_val<std::_Simple_types<char> >::_Myptr, COMDAT
; _this$ = ecx

; 514  : 		{	// determine current pointer to buffer for mutable string

	push	ebp
	mov	ebp, esp
	sub	esp, 8
	mov	DWORD PTR _this$[ebp], ecx

; 515  : 		return (this->_BUF_SIZE <= this->_Myres
; 516  : 			? _STD addressof(*this->_Bx._Ptr)
; 517  : 			: this->_Bx._Buf);

	mov	eax, DWORD PTR _this$[ebp]
	cmp	DWORD PTR [eax+20], 16			; 00000010H
	jb	SHORT $LN3@Myptr
	mov	ecx, DWORD PTR _this$[ebp]
	mov	edx, DWORD PTR [ecx]
	push	edx
	call	??$addressof@D@std@@YAPADAAD@Z		; std::addressof<char>
	add	esp, 4
	mov	DWORD PTR tv72[ebp], eax
	jmp	SHORT $LN4@Myptr
$LN3@Myptr:
	mov	eax, DWORD PTR _this$[ebp]
	mov	DWORD PTR tv72[ebp], eax
$LN4@Myptr:
	mov	eax, DWORD PTR tv72[ebp]

; 518  : 		}

	mov	esp, ebp
	pop	ebp
	ret	0
?_Myptr@?$_String_val@U?$_Simple_types@D@std@@@std@@QAEPADXZ ENDP ; std::_String_val<std::_Simple_types<char> >::_Myptr
_TEXT	ENDS
; Function compile flags: /Odtp
; File c:\program files (x86)\microsoft visual studio 11.0\vc\include\xstring
;	COMDAT ??0?$_String_val@U?$_Simple_types@D@std@@@std@@QAE@XZ
_TEXT	SEGMENT
_this$ = -4						; size = 4
??0?$_String_val@U?$_Simple_types@D@std@@@std@@QAE@XZ PROC ; std::_String_val<std::_Simple_types<char> >::_String_val<std::_Simple_types<char> >, COMDAT
; _this$ = ecx

; 496  : 	_String_val()

	push	ebp
	mov	ebp, esp
	push	ecx
	mov	DWORD PTR _this$[ebp], ecx

; 497  : 		{	// initialize values
; 498  : 		_Mysize = 0;

	mov	eax, DWORD PTR _this$[ebp]
	mov	DWORD PTR [eax+16], 0

; 499  : 		_Myres = 0;

	mov	ecx, DWORD PTR _this$[ebp]
	mov	DWORD PTR [ecx+20], 0

; 500  : 		}

	mov	eax, DWORD PTR _this$[ebp]
	mov	esp, ebp
	pop	ebp
	ret	0
??0?$_String_val@U?$_Simple_types@D@std@@@std@@QAE@XZ ENDP ; std::_String_val<std::_Simple_types<char> >::_String_val<std::_Simple_types<char> >
_TEXT	ENDS
; Function compile flags: /Odtp
; File c:\program files (x86)\microsoft visual studio 11.0\vc\include\xmemory0
;	COMDAT ?max_size@?$_Wrap_alloc@V?$allocator@D@std@@@std@@QBEIXZ
_TEXT	SEGMENT
_this$ = -4						; size = 4
?max_size@?$_Wrap_alloc@V?$allocator@D@std@@@std@@QBEIXZ PROC ; std::_Wrap_alloc<std::allocator<char> >::max_size, COMDAT
; _this$ = ecx

; 913  : 		{	// get maximum size

	push	ebp
	mov	ebp, esp
	push	ecx
	mov	DWORD PTR _this$[ebp], ecx

; 914  : 		return (_Mytraits::max_size(*this));

	mov	eax, DWORD PTR _this$[ebp]
	push	eax
	call	?max_size@?$allocator_traits@V?$allocator@D@std@@@std@@SAIABV?$allocator@D@2@@Z ; std::allocator_traits<std::allocator<char> >::max_size
	add	esp, 4

; 915  : 		}

	mov	esp, ebp
	pop	ebp
	ret	0
?max_size@?$_Wrap_alloc@V?$allocator@D@std@@@std@@QBEIXZ ENDP ; std::_Wrap_alloc<std::allocator<char> >::max_size
_TEXT	ENDS
; Function compile flags: /Odtp
; File c:\program files (x86)\microsoft visual studio 11.0\vc\include\xmemory0
;	COMDAT ?deallocate@?$_Wrap_alloc@V?$allocator@D@std@@@std@@QAEXPADI@Z
_TEXT	SEGMENT
_this$ = -4						; size = 4
__Ptr$ = 8						; size = 4
__Count$ = 12						; size = 4
?deallocate@?$_Wrap_alloc@V?$allocator@D@std@@@std@@QAEXPADI@Z PROC ; std::_Wrap_alloc<std::allocator<char> >::deallocate, COMDAT
; _this$ = ecx

; 886  : 		{	// deallocate object at _Ptr, ignore size

	push	ebp
	mov	ebp, esp
	push	ecx
	mov	DWORD PTR _this$[ebp], ecx

; 887  : 		_Mybase::deallocate(_Ptr, _Count);

	mov	eax, DWORD PTR __Count$[ebp]
	push	eax
	mov	ecx, DWORD PTR __Ptr$[ebp]
	push	ecx
	mov	ecx, DWORD PTR _this$[ebp]
	call	?deallocate@?$allocator@D@std@@QAEXPADI@Z ; std::allocator<char>::deallocate

; 888  : 		}

	mov	esp, ebp
	pop	ebp
	ret	8
?deallocate@?$_Wrap_alloc@V?$allocator@D@std@@@std@@QAEXPADI@Z ENDP ; std::_Wrap_alloc<std::allocator<char> >::deallocate
_TEXT	ENDS
; Function compile flags: /Odtp
; File c:\program files (x86)\microsoft visual studio 11.0\vc\include\xmemory0
;	COMDAT ?allocate@?$_Wrap_alloc@V?$allocator@D@std@@@std@@QAEPADI@Z
_TEXT	SEGMENT
_this$ = -4						; size = 4
__Count$ = 8						; size = 4
?allocate@?$_Wrap_alloc@V?$allocator@D@std@@@std@@QAEPADI@Z PROC ; std::_Wrap_alloc<std::allocator<char> >::allocate, COMDAT
; _this$ = ecx

; 875  : 		{	// allocate array of _Count elements

	push	ebp
	mov	ebp, esp
	push	ecx
	mov	DWORD PTR _this$[ebp], ecx

; 876  : 		return (_Mybase::allocate(_Count));

	mov	eax, DWORD PTR __Count$[ebp]
	push	eax
	mov	ecx, DWORD PTR _this$[ebp]
	call	?allocate@?$allocator@D@std@@QAEPADI@Z	; std::allocator<char>::allocate

; 877  : 		}

	mov	esp, ebp
	pop	ebp
	ret	4
?allocate@?$_Wrap_alloc@V?$allocator@D@std@@@std@@QAEPADI@Z ENDP ; std::_Wrap_alloc<std::allocator<char> >::allocate
_TEXT	ENDS
; Function compile flags: /Odtp
; File c:\program files (x86)\microsoft visual studio 11.0\vc\include\xmemory0
;	COMDAT ??0?$_Wrap_alloc@V?$allocator@D@std@@@std@@QAE@XZ
_TEXT	SEGMENT
_this$ = -4						; size = 4
??0?$_Wrap_alloc@V?$allocator@D@std@@@std@@QAE@XZ PROC	; std::_Wrap_alloc<std::allocator<char> >::_Wrap_alloc<std::allocator<char> >, COMDAT
; _this$ = ecx

; 830  : 		{	// construct default allocator (do nothing)

	push	ebp
	mov	ebp, esp
	push	ecx
	mov	DWORD PTR _this$[ebp], ecx
	mov	ecx, DWORD PTR _this$[ebp]
	call	??0?$allocator@D@std@@QAE@XZ		; std::allocator<char>::allocator<char>

; 831  : 		}

	mov	eax, DWORD PTR _this$[ebp]
	mov	esp, ebp
	pop	ebp
	ret	0
??0?$_Wrap_alloc@V?$allocator@D@std@@@std@@QAE@XZ ENDP	; std::_Wrap_alloc<std::allocator<char> >::_Wrap_alloc<std::allocator<char> >
_TEXT	ENDS
; Function compile flags: /Odtp
; File c:\program files (x86)\microsoft visual studio 11.0\vc\include\xmemory0
;	COMDAT ?max_size@?$allocator_traits@V?$allocator@D@std@@@std@@SAIABV?$allocator@D@2@@Z
_TEXT	SEGMENT
__Al$ = 8						; size = 4
?max_size@?$allocator_traits@V?$allocator@D@std@@@std@@SAIABV?$allocator@D@2@@Z PROC ; std::allocator_traits<std::allocator<char> >::max_size, COMDAT

; 761  : 		{	// get maximum size

	push	ebp
	mov	ebp, esp

; 762  : 		return (_Al.max_size());

	mov	ecx, DWORD PTR __Al$[ebp]
	call	?max_size@?$allocator@D@std@@QBEIXZ	; std::allocator<char>::max_size

; 763  : 		}

	pop	ebp
	ret	0
?max_size@?$allocator_traits@V?$allocator@D@std@@@std@@SAIABV?$allocator@D@2@@Z ENDP ; std::allocator_traits<std::allocator<char> >::max_size
_TEXT	ENDS
; Function compile flags: /Odtp
; File c:\program files (x86)\microsoft visual studio 11.0\vc\include\xmemory0
;	COMDAT ?max_size@?$allocator@D@std@@QBEIXZ
_TEXT	SEGMENT
_this$ = -4						; size = 4
?max_size@?$allocator@D@std@@QBEIXZ PROC		; std::allocator<char>::max_size, COMDAT
; _this$ = ecx

; 627  : 		{	// estimate maximum array size

	push	ebp
	mov	ebp, esp
	push	ecx
	mov	DWORD PTR _this$[ebp], ecx

; 628  : 		return ((size_t)(-1) / sizeof (_Ty));

	or	eax, -1

; 629  : 		}

	mov	esp, ebp
	pop	ebp
	ret	0
?max_size@?$allocator@D@std@@QBEIXZ ENDP		; std::allocator<char>::max_size
_TEXT	ENDS
; Function compile flags: /Odtp
; File c:\program files (x86)\microsoft visual studio 11.0\vc\include\xmemory0
;	COMDAT ?allocate@?$allocator@D@std@@QAEPADI@Z
_TEXT	SEGMENT
_this$ = -4						; size = 4
__Count$ = 8						; size = 4
?allocate@?$allocator@D@std@@QAEPADI@Z PROC		; std::allocator<char>::allocate, COMDAT
; _this$ = ecx

; 590  : 		{	// allocate array of _Count elements

	push	ebp
	mov	ebp, esp
	push	ecx
	mov	DWORD PTR _this$[ebp], ecx

; 591  : 		return (_Allocate(_Count, (pointer)0));

	push	0
	mov	eax, DWORD PTR __Count$[ebp]
	push	eax
	call	??$_Allocate@D@std@@YAPADIPAD@Z		; std::_Allocate<char>
	add	esp, 8

; 592  : 		}

	mov	esp, ebp
	pop	ebp
	ret	4
?allocate@?$allocator@D@std@@QAEPADI@Z ENDP		; std::allocator<char>::allocate
_TEXT	ENDS
; Function compile flags: /Odtp
; File c:\program files (x86)\microsoft visual studio 11.0\vc\include\xmemory0
;	COMDAT ?deallocate@?$allocator@D@std@@QAEXPADI@Z
_TEXT	SEGMENT
_this$ = -4						; size = 4
__Ptr$ = 8						; size = 4
___formal$ = 12						; size = 4
?deallocate@?$allocator@D@std@@QAEXPADI@Z PROC		; std::allocator<char>::deallocate, COMDAT
; _this$ = ecx

; 585  : 		{	// deallocate object at _Ptr, ignore size

	push	ebp
	mov	ebp, esp
	push	ecx
	mov	DWORD PTR _this$[ebp], ecx

; 586  : 		::operator delete(_Ptr);

	mov	eax, DWORD PTR __Ptr$[ebp]
	push	eax
	call	??3@YAXPAX@Z				; operator delete
	add	esp, 4

; 587  : 		}

	mov	esp, ebp
	pop	ebp
	ret	8
?deallocate@?$allocator@D@std@@QAEXPADI@Z ENDP		; std::allocator<char>::deallocate
_TEXT	ENDS
; Function compile flags: /Odtp
; File c:\program files (x86)\microsoft visual studio 11.0\vc\include\xmemory0
;	COMDAT ??0?$allocator@D@std@@QAE@XZ
_TEXT	SEGMENT
_this$ = -4						; size = 4
??0?$allocator@D@std@@QAE@XZ PROC			; std::allocator<char>::allocator<char>, COMDAT
; _this$ = ecx

; 565  : 	allocator() _THROW0()

	push	ebp
	mov	ebp, esp
	push	ecx
	mov	DWORD PTR _this$[ebp], ecx

; 566  : 		{	// construct default allocator (do nothing)
; 567  : 		}

	mov	eax, DWORD PTR _this$[ebp]
	mov	esp, ebp
	pop	ebp
	ret	0
??0?$allocator@D@std@@QAE@XZ ENDP			; std::allocator<char>::allocator<char>
_TEXT	ENDS
; Function compile flags: /Odtp
; File c:\program files (x86)\microsoft visual studio 11.0\vc\include\xutility
;	COMDAT ??__Eallocator_arg@std@@YAXXZ
text$yc	SEGMENT
$T1 = -1						; size = 1
??__Eallocator_arg@std@@YAXXZ PROC			; std::`dynamic initializer for 'allocator_arg'', COMDAT

; 3644 : const allocator_arg_t allocator_arg = allocator_arg_t();

	push	ebp
	mov	ebp, esp
	push	ecx
	xor	eax, eax
	mov	BYTE PTR $T1[ebp], al
	mov	esp, ebp
	pop	ebp
	ret	0
??__Eallocator_arg@std@@YAXXZ ENDP			; std::`dynamic initializer for 'allocator_arg''
text$yc	ENDS
; Function compile flags: /Odtp
; File c:\program files (x86)\microsoft visual studio 11.0\vc\include\utility
;	COMDAT ??__Epiecewise_construct@std@@YAXXZ
text$yc	SEGMENT
$T1 = -1						; size = 1
??__Epiecewise_construct@std@@YAXXZ PROC		; std::`dynamic initializer for 'piecewise_construct'', COMDAT

; 65   : 	piecewise_construct_t();

	push	ebp
	mov	ebp, esp
	push	ecx
	xor	eax, eax
	mov	BYTE PTR $T1[ebp], al
	mov	esp, ebp
	pop	ebp
	ret	0
??__Epiecewise_construct@std@@YAXXZ ENDP		; std::`dynamic initializer for 'piecewise_construct''
text$yc	ENDS
; Function compile flags: /Odtp
; File c:\program files (x86)\microsoft visual studio 11.0\vc\include\iosfwd
;	COMDAT ?assign@?$char_traits@D@std@@SAXAADABD@Z
_TEXT	SEGMENT
__Left$ = 8						; size = 4
__Right$ = 12						; size = 4
?assign@?$char_traits@D@std@@SAXAADABD@Z PROC		; std::char_traits<char>::assign, COMDAT

; 563  : 		{	// assign an element

	push	ebp
	mov	ebp, esp

; 564  : 		_Left = _Right;

	mov	eax, DWORD PTR __Left$[ebp]
	mov	ecx, DWORD PTR __Right$[ebp]
	mov	dl, BYTE PTR [ecx]
	mov	BYTE PTR [eax], dl

; 565  : 		}

	pop	ebp
	ret	0
?assign@?$char_traits@D@std@@SAXAADABD@Z ENDP		; std::char_traits<char>::assign
_TEXT	ENDS
; Function compile flags: /Odtp
; File c:\program files (x86)\microsoft visual studio 11.0\vc\include\iosfwd
;	COMDAT ?move@?$char_traits@D@std@@SAPADPADPBDI@Z
_TEXT	SEGMENT
tv69 = -4						; size = 4
__First1$ = 8						; size = 4
__First2$ = 12						; size = 4
__Count$ = 16						; size = 4
?move@?$char_traits@D@std@@SAPADPADPBDI@Z PROC		; std::char_traits<char>::move, COMDAT

; 551  : 		{	// copy [_First2, _First2 + _Count) to [_First1, ...)

	push	ebp
	mov	ebp, esp
	push	ecx

; 552  : 		return (_Count == 0 ? _First1
; 553  : 			: (_Elem *)_CSTD memmove(_First1, _First2, _Count));

	cmp	DWORD PTR __Count$[ebp], 0
	jne	SHORT $LN3@move
	mov	eax, DWORD PTR __First1$[ebp]
	mov	DWORD PTR tv69[ebp], eax
	jmp	SHORT $LN4@move
$LN3@move:
	mov	ecx, DWORD PTR __Count$[ebp]
	push	ecx
	mov	edx, DWORD PTR __First2$[ebp]
	push	edx
	mov	eax, DWORD PTR __First1$[ebp]
	push	eax
	call	_memmove
	add	esp, 12					; 0000000cH
	mov	DWORD PTR tv69[ebp], eax
$LN4@move:
	mov	eax, DWORD PTR tv69[ebp]

; 554  : 		}

	mov	esp, ebp
	pop	ebp
	ret	0
?move@?$char_traits@D@std@@SAPADPADPBDI@Z ENDP		; std::char_traits<char>::move
_TEXT	ENDS
; Function compile flags: /Odtp
; File c:\program files (x86)\microsoft visual studio 11.0\vc\include\iosfwd
;	COMDAT ?copy@?$char_traits@D@std@@SAPADPADPBDI@Z
_TEXT	SEGMENT
tv69 = -4						; size = 4
__First1$ = 8						; size = 4
__First2$ = 12						; size = 4
__Count$ = 16						; size = 4
?copy@?$char_traits@D@std@@SAPADPADPBDI@Z PROC		; std::char_traits<char>::copy, COMDAT

; 528  : 		{	// copy [_First2, _First2 + _Count) to [_First1, ...)

	push	ebp
	mov	ebp, esp
	push	ecx

; 529  : 		return (_Count == 0 ? _First1
; 530  : 			: (_Elem *)_CSTD memcpy(_First1, _First2, _Count));

	cmp	DWORD PTR __Count$[ebp], 0
	jne	SHORT $LN3@copy
	mov	eax, DWORD PTR __First1$[ebp]
	mov	DWORD PTR tv69[ebp], eax
	jmp	SHORT $LN4@copy
$LN3@copy:
	mov	ecx, DWORD PTR __Count$[ebp]
	push	ecx
	mov	edx, DWORD PTR __First2$[ebp]
	push	edx
	mov	eax, DWORD PTR __First1$[ebp]
	push	eax
	call	_memcpy
	add	esp, 12					; 0000000cH
	mov	DWORD PTR tv69[ebp], eax
$LN4@copy:
	mov	eax, DWORD PTR tv69[ebp]

; 531  : 		}

	mov	esp, ebp
	pop	ebp
	ret	0
?copy@?$char_traits@D@std@@SAPADPADPBDI@Z ENDP		; std::char_traits<char>::copy
_TEXT	ENDS
; Function compile flags: /Odtp
; File c:\program files (x86)\microsoft visual studio 11.0\vc\include\iosfwd
;	COMDAT ?length@?$char_traits@D@std@@SAIPBD@Z
_TEXT	SEGMENT
tv68 = -4						; size = 4
__First$ = 8						; size = 4
?length@?$char_traits@D@std@@SAIPBD@Z PROC		; std::char_traits<char>::length, COMDAT

; 521  : 		{	// find length of null-terminated string

	push	ebp
	mov	ebp, esp
	push	ecx

; 522  : 		return (*_First == 0 ? 0
; 523  : 			: _CSTD strlen(_First));

	mov	eax, DWORD PTR __First$[ebp]
	movsx	ecx, BYTE PTR [eax]
	test	ecx, ecx
	jne	SHORT $LN3@length
	mov	DWORD PTR tv68[ebp], 0
	jmp	SHORT $LN4@length
$LN3@length:
	mov	edx, DWORD PTR __First$[ebp]
	push	edx
	call	_strlen
	add	esp, 4
	mov	DWORD PTR tv68[ebp], eax
$LN4@length:
	mov	eax, DWORD PTR tv68[ebp]

; 524  : 		}

	mov	esp, ebp
	pop	ebp
	ret	0
?length@?$char_traits@D@std@@SAIPBD@Z ENDP		; std::char_traits<char>::length
_TEXT	ENDS
; Function compile flags: /Odtp
; File c:\program files (x86)\microsoft visual studio 11.0\vc\include\new
;	COMDAT ??3@YAXPAX0@Z
_TEXT	SEGMENT
___formal$ = 8						; size = 4
___formal$ = 12						; size = 4
??3@YAXPAX0@Z PROC					; operator delete, COMDAT

; 64   : 	{	// delete if placement new fails

	push	ebp
	mov	ebp, esp

; 65   : 	}

	pop	ebp
	ret	0
??3@YAXPAX0@Z ENDP					; operator delete
_TEXT	ENDS
; Function compile flags: /Odtp
; File c:\program files (x86)\microsoft visual studio 11.0\vc\include\new
;	COMDAT ??2@YAPAXIPAX@Z
_TEXT	SEGMENT
___formal$ = 8						; size = 4
__Where$ = 12						; size = 4
??2@YAPAXIPAX@Z PROC					; operator new, COMDAT

; 59   : 	{	// construct array with placement at _Where

	push	ebp
	mov	ebp, esp

; 60   : 	return (_Where);

	mov	eax, DWORD PTR __Where$[ebp]

; 61   : 	}

	pop	ebp
	ret	0
??2@YAPAXIPAX@Z ENDP					; operator new
_TEXT	ENDS
; Function compile flags: /Odtp
; File c:\users\zhitao li\documents\visual studio 2012\projects\freefalcon\vu2\include\vuentity.h
;	COMDAT ?YPos@VuEntity@@QBEMXZ
_TEXT	SEGMENT
_this$ = -4						; size = 4
?YPos@VuEntity@@QBEMXZ PROC				; VuEntity::YPos, COMDAT
; _this$ = ecx

; 159  : 	BIG_SCALAR YPos()	const { return pos_.y_; }

	push	ebp
	mov	ebp, esp
	push	ecx
	mov	DWORD PTR _this$[ebp], ecx
	mov	eax, DWORD PTR _this$[ebp]
	fld	DWORD PTR [eax+40]
	mov	esp, ebp
	pop	ebp
	ret	0
?YPos@VuEntity@@QBEMXZ ENDP				; VuEntity::YPos
_TEXT	ENDS
; Function compile flags: /Odtp
; File c:\users\zhitao li\documents\visual studio 2012\projects\freefalcon\vu2\include\vuentity.h
;	COMDAT ?XPos@VuEntity@@QBEMXZ
_TEXT	SEGMENT
_this$ = -4						; size = 4
?XPos@VuEntity@@QBEMXZ PROC				; VuEntity::XPos, COMDAT
; _this$ = ecx

; 158  : 	BIG_SCALAR XPos() const { return pos_.x_; }

	push	ebp
	mov	ebp, esp
	push	ecx
	mov	DWORD PTR _this$[ebp], ecx
	mov	eax, DWORD PTR _this$[ebp]
	fld	DWORD PTR [eax+36]
	mov	esp, ebp
	pop	ebp
	ret	0
?XPos@VuEntity@@QBEMXZ ENDP				; VuEntity::XPos
_TEXT	ENDS
; Function compile flags: /Odtp
; File c:\users\zhitao li\documents\visual studio 2012\projects\freefalcon\vu2\include\vuentity.h
;	COMDAT ?VuState@VuEntity@@QBE?AW4VU_MEM@@XZ
_TEXT	SEGMENT
_this$ = -4						; size = 4
?VuState@VuEntity@@QBE?AW4VU_MEM@@XZ PROC		; VuEntity::VuState, COMDAT
; _this$ = ecx

; 153  : 	VU_MEM VuState() const    { return vuState_; }

	push	ebp
	mov	ebp, esp
	push	ecx
	mov	DWORD PTR _this$[ebp], ecx
	mov	eax, DWORD PTR _this$[ebp]
	mov	eax, DWORD PTR [eax+92]
	mov	esp, ebp
	pop	ebp
	ret	0
?VuState@VuEntity@@QBE?AW4VU_MEM@@XZ ENDP		; VuEntity::VuState
_TEXT	ENDS
; Function compile flags: /Odtp
; File c:\users\zhitao li\documents\visual studio 2012\projects\freefalcon\falclib\include\vutypes.h
;	COMDAT ??9VU_ID@@QBE_NABV0@@Z
_TEXT	SEGMENT
_this$ = -8						; size = 4
tv74 = -2						; size = 1
tv73 = -1						; size = 1
_rhs$ = 8						; size = 4
??9VU_ID@@QBE_NABV0@@Z PROC				; VU_ID::operator!=, COMDAT
; _this$ = ecx

; 111  : 	bool operator != (const VU_ID &rhs) const { 

	push	ebp
	mov	ebp, esp
	sub	esp, 8
	mov	DWORD PTR _this$[ebp], ecx

; 112  : 		return (
; 113  : 			num_ == rhs.num_ ? 
; 114  : 			(creator_ == rhs.creator_ ? false : true) : 
; 115  : 			true
; 116  : 		); 

	mov	eax, DWORD PTR _this$[ebp]
	mov	ecx, DWORD PTR _rhs$[ebp]
	mov	edx, DWORD PTR [eax]
	cmp	edx, DWORD PTR [ecx]
	jne	SHORT $LN5@operator
	mov	eax, DWORD PTR _rhs$[ebp]
	add	eax, 4
	push	eax
	mov	ecx, DWORD PTR _this$[ebp]
	add	ecx, 4
	call	??8VU_SESSION_ID@@QBEHABV0@@Z		; VU_SESSION_ID::operator==
	test	eax, eax
	je	SHORT $LN3@operator
	mov	BYTE PTR tv73[ebp], 0
	jmp	SHORT $LN4@operator
$LN3@operator:
	mov	BYTE PTR tv73[ebp], 1
$LN4@operator:
	mov	cl, BYTE PTR tv73[ebp]
	mov	BYTE PTR tv74[ebp], cl
	jmp	SHORT $LN6@operator
$LN5@operator:
	mov	BYTE PTR tv74[ebp], 1
$LN6@operator:
	mov	al, BYTE PTR tv74[ebp]

; 117  : 	}

	mov	esp, ebp
	pop	ebp
	ret	4
??9VU_ID@@QBE_NABV0@@Z ENDP				; VU_ID::operator!=
_TEXT	ENDS
; Function compile flags: /Odtp
; File c:\users\zhitao li\documents\visual studio 2012\projects\freefalcon\falclib\include\vutypes.h
;	COMDAT ??8VU_ID@@QBE_NABV0@@Z
_TEXT	SEGMENT
_this$ = -8						; size = 4
tv74 = -2						; size = 1
tv73 = -1						; size = 1
_rhs$ = 8						; size = 4
??8VU_ID@@QBE_NABV0@@Z PROC				; VU_ID::operator==, COMDAT
; _this$ = ecx

; 104  : 	bool operator == (const VU_ID &rhs) const { 

	push	ebp
	mov	ebp, esp
	sub	esp, 8
	mov	DWORD PTR _this$[ebp], ecx

; 105  : 		return (
; 106  : 			num_ == rhs.num_ ? 
; 107  : 			(creator_ == rhs.creator_ ? true : false) : 
; 108  : 			false
; 109  : 		); 

	mov	eax, DWORD PTR _this$[ebp]
	mov	ecx, DWORD PTR _rhs$[ebp]
	mov	edx, DWORD PTR [eax]
	cmp	edx, DWORD PTR [ecx]
	jne	SHORT $LN5@operator
	mov	eax, DWORD PTR _rhs$[ebp]
	add	eax, 4
	push	eax
	mov	ecx, DWORD PTR _this$[ebp]
	add	ecx, 4
	call	??8VU_SESSION_ID@@QBEHABV0@@Z		; VU_SESSION_ID::operator==
	test	eax, eax
	je	SHORT $LN3@operator
	mov	BYTE PTR tv73[ebp], 1
	jmp	SHORT $LN4@operator
$LN3@operator:
	mov	BYTE PTR tv73[ebp], 0
$LN4@operator:
	mov	cl, BYTE PTR tv73[ebp]
	mov	BYTE PTR tv74[ebp], cl
	jmp	SHORT $LN6@operator
$LN5@operator:
	mov	BYTE PTR tv74[ebp], 0
$LN6@operator:
	mov	al, BYTE PTR tv74[ebp]

; 110  : 	}

	mov	esp, ebp
	pop	ebp
	ret	4
??8VU_ID@@QBE_NABV0@@Z ENDP				; VU_ID::operator==
_TEXT	ENDS
; Function compile flags: /Odtp
; File c:\users\zhitao li\documents\visual studio 2012\projects\freefalcon\falclib\include\vutypes.h
;	COMDAT ??8VU_SESSION_ID@@QBEHABV0@@Z
_TEXT	SEGMENT
_this$ = -8						; size = 4
tv67 = -4						; size = 4
_rhs$ = 8						; size = 4
??8VU_SESSION_ID@@QBEHABV0@@Z PROC			; VU_SESSION_ID::operator==, COMDAT
; _this$ = ecx

; 55   : 	int operator == (const VU_SESSION_ID &rhs) const{

	push	ebp
	mov	ebp, esp
	sub	esp, 8
	mov	DWORD PTR _this$[ebp], ecx

; 56   : 		return (value_ == rhs.value_ ? TRUE : FALSE); 

	mov	eax, DWORD PTR _this$[ebp]
	mov	ecx, DWORD PTR _rhs$[ebp]
	mov	edx, DWORD PTR [eax]
	cmp	edx, DWORD PTR [ecx]
	jne	SHORT $LN3@operator
	mov	DWORD PTR tv67[ebp], 1
	jmp	SHORT $LN4@operator
$LN3@operator:
	mov	DWORD PTR tv67[ebp], 0
$LN4@operator:
	mov	eax, DWORD PTR tv67[ebp]

; 57   : 	}

	mov	esp, ebp
	pop	ebp
	ret	4
??8VU_SESSION_ID@@QBEHABV0@@Z ENDP			; VU_SESSION_ID::operator==
_TEXT	ENDS
END
