; Listing generated by Microsoft (R) Optimizing Compiler Version 17.00.51106.1 

	TITLE	C:\Users\Zhitao Li\Documents\Visual Studio 2012\Projects\Freefalcon\SIM\DIGI\waypoint.cpp
	.686P
	.XMM
	include listing.inc
	.model	flat

INCLUDELIB LIBCMT
INCLUDELIB OLDNAMES

PUBLIC	?traps@_Num_base@std@@2_NB			; std::_Num_base::traps
PUBLIC	?round_style@_Num_base@std@@2W4float_round_style@2@B ; std::_Num_base::round_style
PUBLIC	?digits@_Num_base@std@@2HB			; std::_Num_base::digits
PUBLIC	?digits10@_Num_base@std@@2HB			; std::_Num_base::digits10
PUBLIC	?max_digits10@_Num_base@std@@2HB		; std::_Num_base::max_digits10
PUBLIC	?max_exponent@_Num_base@std@@2HB		; std::_Num_base::max_exponent
PUBLIC	?max_exponent10@_Num_base@std@@2HB		; std::_Num_base::max_exponent10
PUBLIC	?min_exponent@_Num_base@std@@2HB		; std::_Num_base::min_exponent
PUBLIC	?min_exponent10@_Num_base@std@@2HB		; std::_Num_base::min_exponent10
PUBLIC	?radix@_Num_base@std@@2HB			; std::_Num_base::radix
PUBLIC	?is_bounded@_Num_int_base@std@@2_NB		; std::_Num_int_base::is_bounded
PUBLIC	?is_exact@_Num_int_base@std@@2_NB		; std::_Num_int_base::is_exact
PUBLIC	?is_integer@_Num_int_base@std@@2_NB		; std::_Num_int_base::is_integer
PUBLIC	?is_modulo@_Num_int_base@std@@2_NB		; std::_Num_int_base::is_modulo
PUBLIC	?is_specialized@_Num_int_base@std@@2_NB		; std::_Num_int_base::is_specialized
PUBLIC	?radix@_Num_int_base@std@@2HB			; std::_Num_int_base::radix
PUBLIC	?has_denorm@_Num_float_base@std@@2W4float_denorm_style@2@B ; std::_Num_float_base::has_denorm
PUBLIC	?has_denorm_loss@_Num_float_base@std@@2_NB	; std::_Num_float_base::has_denorm_loss
PUBLIC	?SIMDIRTYDATA_INTERVAL@FalconEntity@@2KB	; FalconEntity::SIMDIRTYDATA_INTERVAL
PUBLIC	?CMPDIRTYDATA_INTERVAL@FalconEntity@@2KB	; FalconEntity::CMPDIRTYDATA_INTERVAL
PUBLIC	?has_infinity@_Num_float_base@std@@2_NB		; std::_Num_float_base::has_infinity
PUBLIC	?has_quiet_NaN@_Num_float_base@std@@2_NB	; std::_Num_float_base::has_quiet_NaN
PUBLIC	?has_signaling_NaN@_Num_float_base@std@@2_NB	; std::_Num_float_base::has_signaling_NaN
PUBLIC	?is_bounded@_Num_float_base@std@@2_NB		; std::_Num_float_base::is_bounded
PUBLIC	?is_exact@_Num_float_base@std@@2_NB		; std::_Num_float_base::is_exact
PUBLIC	?is_iec559@_Num_float_base@std@@2_NB		; std::_Num_float_base::is_iec559
PUBLIC	?is_integer@_Num_float_base@std@@2_NB		; std::_Num_float_base::is_integer
PUBLIC	?is_modulo@_Num_float_base@std@@2_NB		; std::_Num_float_base::is_modulo
PUBLIC	?is_signed@_Num_float_base@std@@2_NB		; std::_Num_float_base::is_signed
PUBLIC	?is_specialized@_Num_float_base@std@@2_NB	; std::_Num_float_base::is_specialized
PUBLIC	?tinyness_before@_Num_float_base@std@@2_NB	; std::_Num_float_base::tinyness_before
PUBLIC	?traps@_Num_float_base@std@@2_NB		; std::_Num_float_base::traps
PUBLIC	?round_style@_Num_float_base@std@@2W4float_round_style@2@B ; std::_Num_float_base::round_style
PUBLIC	?radix@_Num_float_base@std@@2HB			; std::_Num_float_base::radix
PUBLIC	?is_signed@?$numeric_limits@D@std@@2_NB		; std::numeric_limits<char>::is_signed
PUBLIC	?digits@?$numeric_limits@D@std@@2HB		; std::numeric_limits<char>::digits
PUBLIC	?digits10@?$numeric_limits@D@std@@2HB		; std::numeric_limits<char>::digits10
PUBLIC	?is_signed@?$numeric_limits@_W@std@@2_NB	; std::numeric_limits<wchar_t>::is_signed
PUBLIC	?digits@?$numeric_limits@_W@std@@2HB		; std::numeric_limits<wchar_t>::digits
PUBLIC	?digits10@?$numeric_limits@_W@std@@2HB		; std::numeric_limits<wchar_t>::digits10
PUBLIC	?is_modulo@?$numeric_limits@_N@std@@2_NB	; std::numeric_limits<bool>::is_modulo
PUBLIC	?is_signed@?$numeric_limits@_N@std@@2_NB	; std::numeric_limits<bool>::is_signed
PUBLIC	?digits@?$numeric_limits@_N@std@@2HB		; std::numeric_limits<bool>::digits
PUBLIC	?digits10@?$numeric_limits@_N@std@@2HB		; std::numeric_limits<bool>::digits10
PUBLIC	?collate@?$_Locbase@H@std@@2HB			; std::_Locbase<int>::collate
PUBLIC	?ctype@?$_Locbase@H@std@@2HB			; std::_Locbase<int>::ctype
PUBLIC	?monetary@?$_Locbase@H@std@@2HB			; std::_Locbase<int>::monetary
PUBLIC	?numeric@?$_Locbase@H@std@@2HB			; std::_Locbase<int>::numeric
PUBLIC	?time@?$_Locbase@H@std@@2HB			; std::_Locbase<int>::time
PUBLIC	?messages@?$_Locbase@H@std@@2HB			; std::_Locbase<int>::messages
PUBLIC	?all@?$_Locbase@H@std@@2HB			; std::_Locbase<int>::all
PUBLIC	?none@?$_Locbase@H@std@@2HB			; std::_Locbase<int>::none
PUBLIC	?is_signed@?$numeric_limits@C@std@@2_NB		; std::numeric_limits<signed char>::is_signed
PUBLIC	?digits@?$numeric_limits@C@std@@2HB		; std::numeric_limits<signed char>::digits
PUBLIC	?digits10@?$numeric_limits@C@std@@2HB		; std::numeric_limits<signed char>::digits10
PUBLIC	?is_signed@?$numeric_limits@E@std@@2_NB		; std::numeric_limits<unsigned char>::is_signed
PUBLIC	?value@?$integral_constant@_N$0A@@std@@2_NB	; std::integral_constant<bool,0>::value
PUBLIC	?digits@?$numeric_limits@E@std@@2HB		; std::numeric_limits<unsigned char>::digits
PUBLIC	?digits10@?$numeric_limits@E@std@@2HB		; std::numeric_limits<unsigned char>::digits10
PUBLIC	?value@?$integral_constant@_N$00@std@@2_NB	; std::integral_constant<bool,1>::value
PUBLIC	?is_signed@?$numeric_limits@F@std@@2_NB		; std::numeric_limits<short>::is_signed
PUBLIC	?digits@?$numeric_limits@F@std@@2HB		; std::numeric_limits<short>::digits
PUBLIC	?digits10@?$numeric_limits@F@std@@2HB		; std::numeric_limits<short>::digits10
PUBLIC	?table_size@?$ctype@D@std@@2IB			; std::ctype<char>::table_size
PUBLIC	?is_signed@?$numeric_limits@G@std@@2_NB		; std::numeric_limits<unsigned short>::is_signed
PUBLIC	?digits@?$numeric_limits@G@std@@2HB		; std::numeric_limits<unsigned short>::digits
PUBLIC	?digits10@?$numeric_limits@G@std@@2HB		; std::numeric_limits<unsigned short>::digits10
PUBLIC	?is_signed@?$numeric_limits@H@std@@2_NB		; std::numeric_limits<int>::is_signed
PUBLIC	?value@?$_Sizeof@HU_Nil@std@@U12@U12@U12@U12@U12@U12@@std@@2IB ; std::_Sizeof<int,std::_Nil,std::_Nil,std::_Nil,std::_Nil,std::_Nil,std::_Nil,std::_Nil>::value
PUBLIC	?digits@?$numeric_limits@H@std@@2HB		; std::numeric_limits<int>::digits
PUBLIC	?digits10@?$numeric_limits@H@std@@2HB		; std::numeric_limits<int>::digits10
PUBLIC	?is_signed@?$numeric_limits@I@std@@2_NB		; std::numeric_limits<unsigned int>::is_signed
PUBLIC	?digits@?$numeric_limits@I@std@@2HB		; std::numeric_limits<unsigned int>::digits
PUBLIC	?digits10@?$numeric_limits@I@std@@2HB		; std::numeric_limits<unsigned int>::digits10
PUBLIC	?is_signed@?$numeric_limits@J@std@@2_NB		; std::numeric_limits<long>::is_signed
PUBLIC	?digits@?$numeric_limits@J@std@@2HB		; std::numeric_limits<long>::digits
PUBLIC	?digits10@?$numeric_limits@J@std@@2HB		; std::numeric_limits<long>::digits10
PUBLIC	?is_signed@?$numeric_limits@K@std@@2_NB		; std::numeric_limits<unsigned long>::is_signed
PUBLIC	?digits@?$numeric_limits@K@std@@2HB		; std::numeric_limits<unsigned long>::digits
PUBLIC	?digits10@?$numeric_limits@K@std@@2HB		; std::numeric_limits<unsigned long>::digits10
PUBLIC	?is_signed@?$numeric_limits@_J@std@@2_NB	; std::numeric_limits<__int64>::is_signed
PUBLIC	?digits@?$numeric_limits@_J@std@@2HB		; std::numeric_limits<__int64>::digits
PUBLIC	?digits10@?$numeric_limits@_J@std@@2HB		; std::numeric_limits<__int64>::digits10
PUBLIC	?is_signed@?$numeric_limits@_K@std@@2_NB	; std::numeric_limits<unsigned __int64>::is_signed
PUBLIC	?digits@?$numeric_limits@_K@std@@2HB		; std::numeric_limits<unsigned __int64>::digits
PUBLIC	?digits10@?$numeric_limits@_K@std@@2HB		; std::numeric_limits<unsigned __int64>::digits10
PUBLIC	?digits@?$numeric_limits@M@std@@2HB		; std::numeric_limits<float>::digits
PUBLIC	?digits10@?$numeric_limits@M@std@@2HB		; std::numeric_limits<float>::digits10
PUBLIC	?max_digits10@?$numeric_limits@M@std@@2HB	; std::numeric_limits<float>::max_digits10
PUBLIC	?max_exponent@?$numeric_limits@M@std@@2HB	; std::numeric_limits<float>::max_exponent
PUBLIC	?max_exponent10@?$numeric_limits@M@std@@2HB	; std::numeric_limits<float>::max_exponent10
PUBLIC	?min_exponent@?$numeric_limits@M@std@@2HB	; std::numeric_limits<float>::min_exponent
PUBLIC	?min_exponent10@?$numeric_limits@M@std@@2HB	; std::numeric_limits<float>::min_exponent10
PUBLIC	?value@?$integral_constant@I$0A@@std@@2IB	; std::integral_constant<unsigned int,0>::value
PUBLIC	?digits@?$numeric_limits@N@std@@2HB		; std::numeric_limits<double>::digits
PUBLIC	?digits10@?$numeric_limits@N@std@@2HB		; std::numeric_limits<double>::digits10
PUBLIC	?max_digits10@?$numeric_limits@N@std@@2HB	; std::numeric_limits<double>::max_digits10
PUBLIC	?max_exponent@?$numeric_limits@N@std@@2HB	; std::numeric_limits<double>::max_exponent
PUBLIC	?max_exponent10@?$numeric_limits@N@std@@2HB	; std::numeric_limits<double>::max_exponent10
PUBLIC	?min_exponent@?$numeric_limits@N@std@@2HB	; std::numeric_limits<double>::min_exponent
PUBLIC	?min_exponent10@?$numeric_limits@N@std@@2HB	; std::numeric_limits<double>::min_exponent10
PUBLIC	?digits@?$numeric_limits@O@std@@2HB		; std::numeric_limits<long double>::digits
PUBLIC	?digits10@?$numeric_limits@O@std@@2HB		; std::numeric_limits<long double>::digits10
PUBLIC	?max_digits10@?$numeric_limits@O@std@@2HB	; std::numeric_limits<long double>::max_digits10
PUBLIC	?max_exponent@?$numeric_limits@O@std@@2HB	; std::numeric_limits<long double>::max_exponent
PUBLIC	?max_exponent10@?$numeric_limits@O@std@@2HB	; std::numeric_limits<long double>::max_exponent10
PUBLIC	?min_exponent@?$numeric_limits@O@std@@2HB	; std::numeric_limits<long double>::min_exponent
PUBLIC	?min_exponent10@?$numeric_limits@O@std@@2HB	; std::numeric_limits<long double>::min_exponent10
PUBLIC	?skipws@?$_Iosb@H@std@@2W4_Fmtflags@12@B	; std::_Iosb<int>::skipws
PUBLIC	?unitbuf@?$_Iosb@H@std@@2W4_Fmtflags@12@B	; std::_Iosb<int>::unitbuf
PUBLIC	?uppercase@?$_Iosb@H@std@@2W4_Fmtflags@12@B	; std::_Iosb<int>::uppercase
PUBLIC	?showbase@?$_Iosb@H@std@@2W4_Fmtflags@12@B	; std::_Iosb<int>::showbase
PUBLIC	?showpoint@?$_Iosb@H@std@@2W4_Fmtflags@12@B	; std::_Iosb<int>::showpoint
PUBLIC	?showpos@?$_Iosb@H@std@@2W4_Fmtflags@12@B	; std::_Iosb<int>::showpos
PUBLIC	?left@?$_Iosb@H@std@@2W4_Fmtflags@12@B		; std::_Iosb<int>::left
PUBLIC	?right@?$_Iosb@H@std@@2W4_Fmtflags@12@B		; std::_Iosb<int>::right
PUBLIC	?internal@?$_Iosb@H@std@@2W4_Fmtflags@12@B	; std::_Iosb<int>::internal
PUBLIC	?dec@?$_Iosb@H@std@@2W4_Fmtflags@12@B		; std::_Iosb<int>::dec
PUBLIC	?oct@?$_Iosb@H@std@@2W4_Fmtflags@12@B		; std::_Iosb<int>::oct
PUBLIC	?hex@?$_Iosb@H@std@@2W4_Fmtflags@12@B		; std::_Iosb<int>::hex
PUBLIC	?scientific@?$_Iosb@H@std@@2W4_Fmtflags@12@B	; std::_Iosb<int>::scientific
PUBLIC	?fixed@?$_Iosb@H@std@@2W4_Fmtflags@12@B		; std::_Iosb<int>::fixed
PUBLIC	?hexfloat@?$_Iosb@H@std@@2W4_Fmtflags@12@B	; std::_Iosb<int>::hexfloat
PUBLIC	?boolalpha@?$_Iosb@H@std@@2W4_Fmtflags@12@B	; std::_Iosb<int>::boolalpha
PUBLIC	?_Stdio@?$_Iosb@H@std@@2W4_Fmtflags@12@B	; std::_Iosb<int>::_Stdio
PUBLIC	?adjustfield@?$_Iosb@H@std@@2W4_Fmtflags@12@B	; std::_Iosb<int>::adjustfield
PUBLIC	?basefield@?$_Iosb@H@std@@2W4_Fmtflags@12@B	; std::_Iosb<int>::basefield
PUBLIC	?floatfield@?$_Iosb@H@std@@2W4_Fmtflags@12@B	; std::_Iosb<int>::floatfield
PUBLIC	?value@?$_Sizeof@U_Nil@std@@U12@U12@U12@U12@U12@U12@U12@@std@@2IB ; std::_Sizeof<std::_Nil,std::_Nil,std::_Nil,std::_Nil,std::_Nil,std::_Nil,std::_Nil,std::_Nil>::value
PUBLIC	?goodbit@?$_Iosb@H@std@@2W4_Iostate@12@B	; std::_Iosb<int>::goodbit
PUBLIC	?eofbit@?$_Iosb@H@std@@2W4_Iostate@12@B		; std::_Iosb<int>::eofbit
PUBLIC	?failbit@?$_Iosb@H@std@@2W4_Iostate@12@B	; std::_Iosb<int>::failbit
PUBLIC	?badbit@?$_Iosb@H@std@@2W4_Iostate@12@B		; std::_Iosb<int>::badbit
PUBLIC	?_Hardfail@?$_Iosb@H@std@@2W4_Iostate@12@B	; std::_Iosb<int>::_Hardfail
PUBLIC	?in@?$_Iosb@H@std@@2W4_Openmode@12@B		; std::_Iosb<int>::in
PUBLIC	?out@?$_Iosb@H@std@@2W4_Openmode@12@B		; std::_Iosb<int>::out
PUBLIC	?ate@?$_Iosb@H@std@@2W4_Openmode@12@B		; std::_Iosb<int>::ate
PUBLIC	?app@?$_Iosb@H@std@@2W4_Openmode@12@B		; std::_Iosb<int>::app
PUBLIC	?trunc@?$_Iosb@H@std@@2W4_Openmode@12@B		; std::_Iosb<int>::trunc
PUBLIC	?_Nocreate@?$_Iosb@H@std@@2W4_Openmode@12@B	; std::_Iosb<int>::_Nocreate
PUBLIC	?_Noreplace@?$_Iosb@H@std@@2W4_Openmode@12@B	; std::_Iosb<int>::_Noreplace
PUBLIC	?binary@?$_Iosb@H@std@@2W4_Openmode@12@B	; std::_Iosb<int>::binary
PUBLIC	?beg@?$_Iosb@H@std@@2W4_Seekdir@12@B		; std::_Iosb<int>::beg
PUBLIC	?cur@?$_Iosb@H@std@@2W4_Seekdir@12@B		; std::_Iosb<int>::cur
PUBLIC	?end@?$_Iosb@H@std@@2W4_Seekdir@12@B		; std::_Iosb<int>::end
PUBLIC	?_Stream_err@failure@ios_base@std@@0W4io_errc@43@B ; std::ios_base::failure::_Stream_err
PUBLIC	?has_denorm@_Num_base@std@@2W4float_denorm_style@2@B ; std::_Num_base::has_denorm
PUBLIC	?has_denorm_loss@_Num_base@std@@2_NB		; std::_Num_base::has_denorm_loss
PUBLIC	?has_infinity@_Num_base@std@@2_NB		; std::_Num_base::has_infinity
PUBLIC	?has_quiet_NaN@_Num_base@std@@2_NB		; std::_Num_base::has_quiet_NaN
PUBLIC	?has_signaling_NaN@_Num_base@std@@2_NB		; std::_Num_base::has_signaling_NaN
PUBLIC	?is_bounded@_Num_base@std@@2_NB			; std::_Num_base::is_bounded
PUBLIC	?is_exact@_Num_base@std@@2_NB			; std::_Num_base::is_exact
PUBLIC	?is_iec559@_Num_base@std@@2_NB			; std::_Num_base::is_iec559
PUBLIC	?is_integer@_Num_base@std@@2_NB			; std::_Num_base::is_integer
PUBLIC	?is_modulo@_Num_base@std@@2_NB			; std::_Num_base::is_modulo
PUBLIC	?is_signed@_Num_base@std@@2_NB			; std::_Num_base::is_signed
PUBLIC	?is_specialized@_Num_base@std@@2_NB		; std::_Num_base::is_specialized
PUBLIC	?tinyness_before@_Num_base@std@@2_NB		; std::_Num_base::tinyness_before
;	COMDAT ?tinyness_before@_Num_base@std@@2_NB
CONST	SEGMENT
?tinyness_before@_Num_base@std@@2_NB DB 00H		; std::_Num_base::tinyness_before
CONST	ENDS
;	COMDAT ?is_specialized@_Num_base@std@@2_NB
CONST	SEGMENT
?is_specialized@_Num_base@std@@2_NB DB 00H		; std::_Num_base::is_specialized
CONST	ENDS
;	COMDAT ?is_signed@_Num_base@std@@2_NB
CONST	SEGMENT
?is_signed@_Num_base@std@@2_NB DB 00H			; std::_Num_base::is_signed
CONST	ENDS
;	COMDAT ?is_modulo@_Num_base@std@@2_NB
CONST	SEGMENT
?is_modulo@_Num_base@std@@2_NB DB 00H			; std::_Num_base::is_modulo
CONST	ENDS
;	COMDAT ?is_integer@_Num_base@std@@2_NB
CONST	SEGMENT
?is_integer@_Num_base@std@@2_NB DB 00H			; std::_Num_base::is_integer
CONST	ENDS
;	COMDAT ?is_iec559@_Num_base@std@@2_NB
CONST	SEGMENT
?is_iec559@_Num_base@std@@2_NB DB 00H			; std::_Num_base::is_iec559
CONST	ENDS
;	COMDAT ?is_exact@_Num_base@std@@2_NB
CONST	SEGMENT
?is_exact@_Num_base@std@@2_NB DB 00H			; std::_Num_base::is_exact
CONST	ENDS
;	COMDAT ?is_bounded@_Num_base@std@@2_NB
CONST	SEGMENT
?is_bounded@_Num_base@std@@2_NB DB 00H			; std::_Num_base::is_bounded
CONST	ENDS
;	COMDAT ?has_signaling_NaN@_Num_base@std@@2_NB
CONST	SEGMENT
?has_signaling_NaN@_Num_base@std@@2_NB DB 00H		; std::_Num_base::has_signaling_NaN
CONST	ENDS
;	COMDAT ?has_quiet_NaN@_Num_base@std@@2_NB
CONST	SEGMENT
?has_quiet_NaN@_Num_base@std@@2_NB DB 00H		; std::_Num_base::has_quiet_NaN
CONST	ENDS
;	COMDAT ?has_infinity@_Num_base@std@@2_NB
CONST	SEGMENT
?has_infinity@_Num_base@std@@2_NB DB 00H		; std::_Num_base::has_infinity
CONST	ENDS
;	COMDAT ?has_denorm_loss@_Num_base@std@@2_NB
CONST	SEGMENT
?has_denorm_loss@_Num_base@std@@2_NB DB 00H		; std::_Num_base::has_denorm_loss
CONST	ENDS
;	COMDAT ?has_denorm@_Num_base@std@@2W4float_denorm_style@2@B
CONST	SEGMENT
?has_denorm@_Num_base@std@@2W4float_denorm_style@2@B DD 00H ; std::_Num_base::has_denorm
CONST	ENDS
;	COMDAT ?_Stream_err@failure@ios_base@std@@0W4io_errc@43@B
CONST	SEGMENT
?_Stream_err@failure@ios_base@std@@0W4io_errc@43@B DD 01H ; std::ios_base::failure::_Stream_err
CONST	ENDS
;	COMDAT ?end@?$_Iosb@H@std@@2W4_Seekdir@12@B
CONST	SEGMENT
?end@?$_Iosb@H@std@@2W4_Seekdir@12@B DD 02H		; std::_Iosb<int>::end
CONST	ENDS
;	COMDAT ?cur@?$_Iosb@H@std@@2W4_Seekdir@12@B
CONST	SEGMENT
?cur@?$_Iosb@H@std@@2W4_Seekdir@12@B DD 01H		; std::_Iosb<int>::cur
CONST	ENDS
;	COMDAT ?beg@?$_Iosb@H@std@@2W4_Seekdir@12@B
CONST	SEGMENT
?beg@?$_Iosb@H@std@@2W4_Seekdir@12@B DD 00H		; std::_Iosb<int>::beg
CONST	ENDS
;	COMDAT ?binary@?$_Iosb@H@std@@2W4_Openmode@12@B
CONST	SEGMENT
?binary@?$_Iosb@H@std@@2W4_Openmode@12@B DD 020H	; std::_Iosb<int>::binary
CONST	ENDS
;	COMDAT ?_Noreplace@?$_Iosb@H@std@@2W4_Openmode@12@B
CONST	SEGMENT
?_Noreplace@?$_Iosb@H@std@@2W4_Openmode@12@B DD 080H	; std::_Iosb<int>::_Noreplace
CONST	ENDS
;	COMDAT ?_Nocreate@?$_Iosb@H@std@@2W4_Openmode@12@B
CONST	SEGMENT
?_Nocreate@?$_Iosb@H@std@@2W4_Openmode@12@B DD 040H	; std::_Iosb<int>::_Nocreate
CONST	ENDS
;	COMDAT ?trunc@?$_Iosb@H@std@@2W4_Openmode@12@B
CONST	SEGMENT
?trunc@?$_Iosb@H@std@@2W4_Openmode@12@B DD 010H		; std::_Iosb<int>::trunc
CONST	ENDS
;	COMDAT ?app@?$_Iosb@H@std@@2W4_Openmode@12@B
CONST	SEGMENT
?app@?$_Iosb@H@std@@2W4_Openmode@12@B DD 08H		; std::_Iosb<int>::app
CONST	ENDS
;	COMDAT ?ate@?$_Iosb@H@std@@2W4_Openmode@12@B
CONST	SEGMENT
?ate@?$_Iosb@H@std@@2W4_Openmode@12@B DD 04H		; std::_Iosb<int>::ate
CONST	ENDS
;	COMDAT ?out@?$_Iosb@H@std@@2W4_Openmode@12@B
CONST	SEGMENT
?out@?$_Iosb@H@std@@2W4_Openmode@12@B DD 02H		; std::_Iosb<int>::out
CONST	ENDS
;	COMDAT ?in@?$_Iosb@H@std@@2W4_Openmode@12@B
CONST	SEGMENT
?in@?$_Iosb@H@std@@2W4_Openmode@12@B DD 01H		; std::_Iosb<int>::in
CONST	ENDS
;	COMDAT ?_Hardfail@?$_Iosb@H@std@@2W4_Iostate@12@B
CONST	SEGMENT
?_Hardfail@?$_Iosb@H@std@@2W4_Iostate@12@B DD 010H	; std::_Iosb<int>::_Hardfail
CONST	ENDS
;	COMDAT ?badbit@?$_Iosb@H@std@@2W4_Iostate@12@B
CONST	SEGMENT
?badbit@?$_Iosb@H@std@@2W4_Iostate@12@B DD 04H		; std::_Iosb<int>::badbit
CONST	ENDS
;	COMDAT ?failbit@?$_Iosb@H@std@@2W4_Iostate@12@B
CONST	SEGMENT
?failbit@?$_Iosb@H@std@@2W4_Iostate@12@B DD 02H		; std::_Iosb<int>::failbit
CONST	ENDS
;	COMDAT ?eofbit@?$_Iosb@H@std@@2W4_Iostate@12@B
CONST	SEGMENT
?eofbit@?$_Iosb@H@std@@2W4_Iostate@12@B DD 01H		; std::_Iosb<int>::eofbit
CONST	ENDS
;	COMDAT ?goodbit@?$_Iosb@H@std@@2W4_Iostate@12@B
CONST	SEGMENT
?goodbit@?$_Iosb@H@std@@2W4_Iostate@12@B DD 00H		; std::_Iosb<int>::goodbit
CONST	ENDS
;	COMDAT ?value@?$_Sizeof@U_Nil@std@@U12@U12@U12@U12@U12@U12@U12@@std@@2IB
CONST	SEGMENT
?value@?$_Sizeof@U_Nil@std@@U12@U12@U12@U12@U12@U12@U12@@std@@2IB DD 00H ; std::_Sizeof<std::_Nil,std::_Nil,std::_Nil,std::_Nil,std::_Nil,std::_Nil,std::_Nil,std::_Nil>::value
CONST	ENDS
;	COMDAT ?floatfield@?$_Iosb@H@std@@2W4_Fmtflags@12@B
CONST	SEGMENT
?floatfield@?$_Iosb@H@std@@2W4_Fmtflags@12@B DD 03000H	; std::_Iosb<int>::floatfield
CONST	ENDS
;	COMDAT ?basefield@?$_Iosb@H@std@@2W4_Fmtflags@12@B
CONST	SEGMENT
?basefield@?$_Iosb@H@std@@2W4_Fmtflags@12@B DD 0e00H	; std::_Iosb<int>::basefield
CONST	ENDS
;	COMDAT ?adjustfield@?$_Iosb@H@std@@2W4_Fmtflags@12@B
CONST	SEGMENT
?adjustfield@?$_Iosb@H@std@@2W4_Fmtflags@12@B DD 01c0H	; std::_Iosb<int>::adjustfield
CONST	ENDS
;	COMDAT ?_Stdio@?$_Iosb@H@std@@2W4_Fmtflags@12@B
CONST	SEGMENT
?_Stdio@?$_Iosb@H@std@@2W4_Fmtflags@12@B DD 08000H	; std::_Iosb<int>::_Stdio
CONST	ENDS
;	COMDAT ?boolalpha@?$_Iosb@H@std@@2W4_Fmtflags@12@B
CONST	SEGMENT
?boolalpha@?$_Iosb@H@std@@2W4_Fmtflags@12@B DD 04000H	; std::_Iosb<int>::boolalpha
CONST	ENDS
;	COMDAT ?hexfloat@?$_Iosb@H@std@@2W4_Fmtflags@12@B
CONST	SEGMENT
?hexfloat@?$_Iosb@H@std@@2W4_Fmtflags@12@B DD 03000H	; std::_Iosb<int>::hexfloat
CONST	ENDS
;	COMDAT ?fixed@?$_Iosb@H@std@@2W4_Fmtflags@12@B
CONST	SEGMENT
?fixed@?$_Iosb@H@std@@2W4_Fmtflags@12@B DD 02000H	; std::_Iosb<int>::fixed
CONST	ENDS
;	COMDAT ?scientific@?$_Iosb@H@std@@2W4_Fmtflags@12@B
CONST	SEGMENT
?scientific@?$_Iosb@H@std@@2W4_Fmtflags@12@B DD 01000H	; std::_Iosb<int>::scientific
CONST	ENDS
;	COMDAT ?hex@?$_Iosb@H@std@@2W4_Fmtflags@12@B
CONST	SEGMENT
?hex@?$_Iosb@H@std@@2W4_Fmtflags@12@B DD 0800H		; std::_Iosb<int>::hex
CONST	ENDS
;	COMDAT ?oct@?$_Iosb@H@std@@2W4_Fmtflags@12@B
CONST	SEGMENT
?oct@?$_Iosb@H@std@@2W4_Fmtflags@12@B DD 0400H		; std::_Iosb<int>::oct
CONST	ENDS
;	COMDAT ?dec@?$_Iosb@H@std@@2W4_Fmtflags@12@B
CONST	SEGMENT
?dec@?$_Iosb@H@std@@2W4_Fmtflags@12@B DD 0200H		; std::_Iosb<int>::dec
CONST	ENDS
;	COMDAT ?internal@?$_Iosb@H@std@@2W4_Fmtflags@12@B
CONST	SEGMENT
?internal@?$_Iosb@H@std@@2W4_Fmtflags@12@B DD 0100H	; std::_Iosb<int>::internal
CONST	ENDS
;	COMDAT ?right@?$_Iosb@H@std@@2W4_Fmtflags@12@B
CONST	SEGMENT
?right@?$_Iosb@H@std@@2W4_Fmtflags@12@B DD 080H		; std::_Iosb<int>::right
CONST	ENDS
;	COMDAT ?left@?$_Iosb@H@std@@2W4_Fmtflags@12@B
CONST	SEGMENT
?left@?$_Iosb@H@std@@2W4_Fmtflags@12@B DD 040H		; std::_Iosb<int>::left
CONST	ENDS
;	COMDAT ?showpos@?$_Iosb@H@std@@2W4_Fmtflags@12@B
CONST	SEGMENT
?showpos@?$_Iosb@H@std@@2W4_Fmtflags@12@B DD 020H	; std::_Iosb<int>::showpos
CONST	ENDS
;	COMDAT ?showpoint@?$_Iosb@H@std@@2W4_Fmtflags@12@B
CONST	SEGMENT
?showpoint@?$_Iosb@H@std@@2W4_Fmtflags@12@B DD 010H	; std::_Iosb<int>::showpoint
CONST	ENDS
;	COMDAT ?showbase@?$_Iosb@H@std@@2W4_Fmtflags@12@B
CONST	SEGMENT
?showbase@?$_Iosb@H@std@@2W4_Fmtflags@12@B DD 08H	; std::_Iosb<int>::showbase
CONST	ENDS
;	COMDAT ?uppercase@?$_Iosb@H@std@@2W4_Fmtflags@12@B
CONST	SEGMENT
?uppercase@?$_Iosb@H@std@@2W4_Fmtflags@12@B DD 04H	; std::_Iosb<int>::uppercase
CONST	ENDS
;	COMDAT ?unitbuf@?$_Iosb@H@std@@2W4_Fmtflags@12@B
CONST	SEGMENT
?unitbuf@?$_Iosb@H@std@@2W4_Fmtflags@12@B DD 02H	; std::_Iosb<int>::unitbuf
CONST	ENDS
;	COMDAT ?skipws@?$_Iosb@H@std@@2W4_Fmtflags@12@B
CONST	SEGMENT
?skipws@?$_Iosb@H@std@@2W4_Fmtflags@12@B DD 01H		; std::_Iosb<int>::skipws
CONST	ENDS
;	COMDAT ?min_exponent10@?$numeric_limits@O@std@@2HB
CONST	SEGMENT
?min_exponent10@?$numeric_limits@O@std@@2HB DD 0fffffecdH ; std::numeric_limits<long double>::min_exponent10
CONST	ENDS
;	COMDAT ?min_exponent@?$numeric_limits@O@std@@2HB
CONST	SEGMENT
?min_exponent@?$numeric_limits@O@std@@2HB DD 0fffffc03H	; std::numeric_limits<long double>::min_exponent
CONST	ENDS
;	COMDAT ?max_exponent10@?$numeric_limits@O@std@@2HB
CONST	SEGMENT
?max_exponent10@?$numeric_limits@O@std@@2HB DD 0134H	; std::numeric_limits<long double>::max_exponent10
CONST	ENDS
;	COMDAT ?max_exponent@?$numeric_limits@O@std@@2HB
CONST	SEGMENT
?max_exponent@?$numeric_limits@O@std@@2HB DD 0400H	; std::numeric_limits<long double>::max_exponent
CONST	ENDS
;	COMDAT ?max_digits10@?$numeric_limits@O@std@@2HB
CONST	SEGMENT
?max_digits10@?$numeric_limits@O@std@@2HB DD 011H	; std::numeric_limits<long double>::max_digits10
CONST	ENDS
;	COMDAT ?digits10@?$numeric_limits@O@std@@2HB
CONST	SEGMENT
?digits10@?$numeric_limits@O@std@@2HB DD 0fH		; std::numeric_limits<long double>::digits10
CONST	ENDS
;	COMDAT ?digits@?$numeric_limits@O@std@@2HB
CONST	SEGMENT
?digits@?$numeric_limits@O@std@@2HB DD 035H		; std::numeric_limits<long double>::digits
CONST	ENDS
;	COMDAT ?min_exponent10@?$numeric_limits@N@std@@2HB
CONST	SEGMENT
?min_exponent10@?$numeric_limits@N@std@@2HB DD 0fffffecdH ; std::numeric_limits<double>::min_exponent10
CONST	ENDS
;	COMDAT ?min_exponent@?$numeric_limits@N@std@@2HB
CONST	SEGMENT
?min_exponent@?$numeric_limits@N@std@@2HB DD 0fffffc03H	; std::numeric_limits<double>::min_exponent
CONST	ENDS
;	COMDAT ?max_exponent10@?$numeric_limits@N@std@@2HB
CONST	SEGMENT
?max_exponent10@?$numeric_limits@N@std@@2HB DD 0134H	; std::numeric_limits<double>::max_exponent10
CONST	ENDS
;	COMDAT ?max_exponent@?$numeric_limits@N@std@@2HB
CONST	SEGMENT
?max_exponent@?$numeric_limits@N@std@@2HB DD 0400H	; std::numeric_limits<double>::max_exponent
CONST	ENDS
;	COMDAT ?max_digits10@?$numeric_limits@N@std@@2HB
CONST	SEGMENT
?max_digits10@?$numeric_limits@N@std@@2HB DD 011H	; std::numeric_limits<double>::max_digits10
CONST	ENDS
;	COMDAT ?digits10@?$numeric_limits@N@std@@2HB
CONST	SEGMENT
?digits10@?$numeric_limits@N@std@@2HB DD 0fH		; std::numeric_limits<double>::digits10
CONST	ENDS
;	COMDAT ?digits@?$numeric_limits@N@std@@2HB
CONST	SEGMENT
?digits@?$numeric_limits@N@std@@2HB DD 035H		; std::numeric_limits<double>::digits
CONST	ENDS
;	COMDAT ?value@?$integral_constant@I$0A@@std@@2IB
CONST	SEGMENT
?value@?$integral_constant@I$0A@@std@@2IB DD 00H	; std::integral_constant<unsigned int,0>::value
CONST	ENDS
;	COMDAT ?min_exponent10@?$numeric_limits@M@std@@2HB
CONST	SEGMENT
?min_exponent10@?$numeric_limits@M@std@@2HB DD 0ffffffdbH ; std::numeric_limits<float>::min_exponent10
CONST	ENDS
;	COMDAT ?min_exponent@?$numeric_limits@M@std@@2HB
CONST	SEGMENT
?min_exponent@?$numeric_limits@M@std@@2HB DD 0ffffff83H	; std::numeric_limits<float>::min_exponent
CONST	ENDS
;	COMDAT ?max_exponent10@?$numeric_limits@M@std@@2HB
CONST	SEGMENT
?max_exponent10@?$numeric_limits@M@std@@2HB DD 026H	; std::numeric_limits<float>::max_exponent10
CONST	ENDS
;	COMDAT ?max_exponent@?$numeric_limits@M@std@@2HB
CONST	SEGMENT
?max_exponent@?$numeric_limits@M@std@@2HB DD 080H	; std::numeric_limits<float>::max_exponent
CONST	ENDS
;	COMDAT ?max_digits10@?$numeric_limits@M@std@@2HB
CONST	SEGMENT
?max_digits10@?$numeric_limits@M@std@@2HB DD 09H	; std::numeric_limits<float>::max_digits10
CONST	ENDS
;	COMDAT ?digits10@?$numeric_limits@M@std@@2HB
CONST	SEGMENT
?digits10@?$numeric_limits@M@std@@2HB DD 06H		; std::numeric_limits<float>::digits10
CONST	ENDS
;	COMDAT ?digits@?$numeric_limits@M@std@@2HB
CONST	SEGMENT
?digits@?$numeric_limits@M@std@@2HB DD 018H		; std::numeric_limits<float>::digits
CONST	ENDS
;	COMDAT ?digits10@?$numeric_limits@_K@std@@2HB
CONST	SEGMENT
?digits10@?$numeric_limits@_K@std@@2HB DD 013H		; std::numeric_limits<unsigned __int64>::digits10
CONST	ENDS
;	COMDAT ?digits@?$numeric_limits@_K@std@@2HB
CONST	SEGMENT
?digits@?$numeric_limits@_K@std@@2HB DD 040H		; std::numeric_limits<unsigned __int64>::digits
CONST	ENDS
;	COMDAT ?is_signed@?$numeric_limits@_K@std@@2_NB
CONST	SEGMENT
?is_signed@?$numeric_limits@_K@std@@2_NB DB 00H		; std::numeric_limits<unsigned __int64>::is_signed
CONST	ENDS
;	COMDAT ?digits10@?$numeric_limits@_J@std@@2HB
CONST	SEGMENT
?digits10@?$numeric_limits@_J@std@@2HB DD 012H		; std::numeric_limits<__int64>::digits10
CONST	ENDS
;	COMDAT ?digits@?$numeric_limits@_J@std@@2HB
CONST	SEGMENT
?digits@?$numeric_limits@_J@std@@2HB DD 03fH		; std::numeric_limits<__int64>::digits
CONST	ENDS
;	COMDAT ?is_signed@?$numeric_limits@_J@std@@2_NB
CONST	SEGMENT
?is_signed@?$numeric_limits@_J@std@@2_NB DB 01H		; std::numeric_limits<__int64>::is_signed
CONST	ENDS
;	COMDAT ?digits10@?$numeric_limits@K@std@@2HB
CONST	SEGMENT
?digits10@?$numeric_limits@K@std@@2HB DD 09H		; std::numeric_limits<unsigned long>::digits10
CONST	ENDS
;	COMDAT ?digits@?$numeric_limits@K@std@@2HB
CONST	SEGMENT
?digits@?$numeric_limits@K@std@@2HB DD 020H		; std::numeric_limits<unsigned long>::digits
CONST	ENDS
;	COMDAT ?is_signed@?$numeric_limits@K@std@@2_NB
CONST	SEGMENT
?is_signed@?$numeric_limits@K@std@@2_NB DB 00H		; std::numeric_limits<unsigned long>::is_signed
CONST	ENDS
;	COMDAT ?digits10@?$numeric_limits@J@std@@2HB
CONST	SEGMENT
?digits10@?$numeric_limits@J@std@@2HB DD 09H		; std::numeric_limits<long>::digits10
CONST	ENDS
;	COMDAT ?digits@?$numeric_limits@J@std@@2HB
CONST	SEGMENT
?digits@?$numeric_limits@J@std@@2HB DD 01fH		; std::numeric_limits<long>::digits
CONST	ENDS
;	COMDAT ?is_signed@?$numeric_limits@J@std@@2_NB
CONST	SEGMENT
?is_signed@?$numeric_limits@J@std@@2_NB DB 01H		; std::numeric_limits<long>::is_signed
CONST	ENDS
;	COMDAT ?digits10@?$numeric_limits@I@std@@2HB
CONST	SEGMENT
?digits10@?$numeric_limits@I@std@@2HB DD 09H		; std::numeric_limits<unsigned int>::digits10
CONST	ENDS
;	COMDAT ?digits@?$numeric_limits@I@std@@2HB
CONST	SEGMENT
?digits@?$numeric_limits@I@std@@2HB DD 020H		; std::numeric_limits<unsigned int>::digits
CONST	ENDS
;	COMDAT ?is_signed@?$numeric_limits@I@std@@2_NB
CONST	SEGMENT
?is_signed@?$numeric_limits@I@std@@2_NB DB 00H		; std::numeric_limits<unsigned int>::is_signed
CONST	ENDS
;	COMDAT ?digits10@?$numeric_limits@H@std@@2HB
CONST	SEGMENT
?digits10@?$numeric_limits@H@std@@2HB DD 09H		; std::numeric_limits<int>::digits10
CONST	ENDS
;	COMDAT ?digits@?$numeric_limits@H@std@@2HB
CONST	SEGMENT
?digits@?$numeric_limits@H@std@@2HB DD 01fH		; std::numeric_limits<int>::digits
CONST	ENDS
;	COMDAT ?value@?$_Sizeof@HU_Nil@std@@U12@U12@U12@U12@U12@U12@@std@@2IB
CONST	SEGMENT
?value@?$_Sizeof@HU_Nil@std@@U12@U12@U12@U12@U12@U12@@std@@2IB DD 01H ; std::_Sizeof<int,std::_Nil,std::_Nil,std::_Nil,std::_Nil,std::_Nil,std::_Nil,std::_Nil>::value
CONST	ENDS
;	COMDAT ?is_signed@?$numeric_limits@H@std@@2_NB
CONST	SEGMENT
?is_signed@?$numeric_limits@H@std@@2_NB DB 01H		; std::numeric_limits<int>::is_signed
CONST	ENDS
;	COMDAT ?digits10@?$numeric_limits@G@std@@2HB
CONST	SEGMENT
?digits10@?$numeric_limits@G@std@@2HB DD 04H		; std::numeric_limits<unsigned short>::digits10
CONST	ENDS
;	COMDAT ?digits@?$numeric_limits@G@std@@2HB
CONST	SEGMENT
?digits@?$numeric_limits@G@std@@2HB DD 010H		; std::numeric_limits<unsigned short>::digits
CONST	ENDS
;	COMDAT ?is_signed@?$numeric_limits@G@std@@2_NB
CONST	SEGMENT
?is_signed@?$numeric_limits@G@std@@2_NB DB 00H		; std::numeric_limits<unsigned short>::is_signed
CONST	ENDS
;	COMDAT ?table_size@?$ctype@D@std@@2IB
CONST	SEGMENT
?table_size@?$ctype@D@std@@2IB DD 0100H			; std::ctype<char>::table_size
CONST	ENDS
;	COMDAT ?digits10@?$numeric_limits@F@std@@2HB
CONST	SEGMENT
?digits10@?$numeric_limits@F@std@@2HB DD 04H		; std::numeric_limits<short>::digits10
CONST	ENDS
;	COMDAT ?digits@?$numeric_limits@F@std@@2HB
CONST	SEGMENT
?digits@?$numeric_limits@F@std@@2HB DD 0fH		; std::numeric_limits<short>::digits
CONST	ENDS
;	COMDAT ?is_signed@?$numeric_limits@F@std@@2_NB
CONST	SEGMENT
?is_signed@?$numeric_limits@F@std@@2_NB DB 01H		; std::numeric_limits<short>::is_signed
CONST	ENDS
;	COMDAT ?value@?$integral_constant@_N$00@std@@2_NB
CONST	SEGMENT
?value@?$integral_constant@_N$00@std@@2_NB DB 01H	; std::integral_constant<bool,1>::value
CONST	ENDS
;	COMDAT ?digits10@?$numeric_limits@E@std@@2HB
CONST	SEGMENT
?digits10@?$numeric_limits@E@std@@2HB DD 02H		; std::numeric_limits<unsigned char>::digits10
CONST	ENDS
_DATA	SEGMENT
_matrix44_ident DD 03f800000r			; 1
	DD	000000000r			; 0
	DD	000000000r			; 0
	DD	000000000r			; 0
	DD	000000000r			; 0
	DD	03f800000r			; 1
	DD	000000000r			; 0
	DD	000000000r			; 0
	DD	000000000r			; 0
	DD	000000000r			; 0
	DD	03f800000r			; 1
	DD	000000000r			; 0
	DD	000000000r			; 0
	DD	000000000r			; 0
	DD	000000000r			; 0
	DD	03f800000r			; 1
_matrix33_ident DD 03f800000r			; 1
	DD	000000000r			; 0
	DD	000000000r			; 0
	DD	000000000r			; 0
	DD	03f800000r			; 1
	DD	000000000r			; 0
	DD	000000000r			; 0
	DD	000000000r			; 0
	DD	03f800000r			; 1
_DATA	ENDS
;	COMDAT ?digits@?$numeric_limits@E@std@@2HB
CONST	SEGMENT
?digits@?$numeric_limits@E@std@@2HB DD 08H		; std::numeric_limits<unsigned char>::digits
CONST	ENDS
;	COMDAT ?value@?$integral_constant@_N$0A@@std@@2_NB
CONST	SEGMENT
?value@?$integral_constant@_N$0A@@std@@2_NB DB 00H	; std::integral_constant<bool,0>::value
CONST	ENDS
;	COMDAT ?is_signed@?$numeric_limits@E@std@@2_NB
CONST	SEGMENT
?is_signed@?$numeric_limits@E@std@@2_NB DB 00H		; std::numeric_limits<unsigned char>::is_signed
CONST	ENDS
;	COMDAT ?digits10@?$numeric_limits@C@std@@2HB
CONST	SEGMENT
?digits10@?$numeric_limits@C@std@@2HB DD 02H		; std::numeric_limits<signed char>::digits10
CONST	ENDS
;	COMDAT ?digits@?$numeric_limits@C@std@@2HB
CONST	SEGMENT
?digits@?$numeric_limits@C@std@@2HB DD 07H		; std::numeric_limits<signed char>::digits
CONST	ENDS
;	COMDAT ?is_signed@?$numeric_limits@C@std@@2_NB
CONST	SEGMENT
?is_signed@?$numeric_limits@C@std@@2_NB DB 01H		; std::numeric_limits<signed char>::is_signed
CONST	ENDS
;	COMDAT ?none@?$_Locbase@H@std@@2HB
CONST	SEGMENT
?none@?$_Locbase@H@std@@2HB DD 00H			; std::_Locbase<int>::none
CONST	ENDS
;	COMDAT ?all@?$_Locbase@H@std@@2HB
CONST	SEGMENT
?all@?$_Locbase@H@std@@2HB DD 03fH			; std::_Locbase<int>::all
CONST	ENDS
CONST	SEGMENT
_L_2	DD	03f317218r			; 0.693147
CONST	ENDS
;	COMDAT ?messages@?$_Locbase@H@std@@2HB
CONST	SEGMENT
?messages@?$_Locbase@H@std@@2HB DD 020H			; std::_Locbase<int>::messages
CONST	ENDS
;	COMDAT ?time@?$_Locbase@H@std@@2HB
CONST	SEGMENT
?time@?$_Locbase@H@std@@2HB DD 010H			; std::_Locbase<int>::time
CONST	ENDS
;	COMDAT ?numeric@?$_Locbase@H@std@@2HB
CONST	SEGMENT
?numeric@?$_Locbase@H@std@@2HB DD 08H			; std::_Locbase<int>::numeric
CONST	ENDS
;	COMDAT ?monetary@?$_Locbase@H@std@@2HB
CONST	SEGMENT
?monetary@?$_Locbase@H@std@@2HB DD 04H			; std::_Locbase<int>::monetary
CONST	ENDS
;	COMDAT ?ctype@?$_Locbase@H@std@@2HB
CONST	SEGMENT
?ctype@?$_Locbase@H@std@@2HB DD 02H			; std::_Locbase<int>::ctype
CONST	ENDS
;	COMDAT ?collate@?$_Locbase@H@std@@2HB
CONST	SEGMENT
?collate@?$_Locbase@H@std@@2HB DD 01H			; std::_Locbase<int>::collate
CONST	ENDS
;	COMDAT ?digits10@?$numeric_limits@_N@std@@2HB
CONST	SEGMENT
?digits10@?$numeric_limits@_N@std@@2HB DD 00H		; std::numeric_limits<bool>::digits10
CONST	ENDS
;	COMDAT ?digits@?$numeric_limits@_N@std@@2HB
CONST	SEGMENT
?digits@?$numeric_limits@_N@std@@2HB DD 01H		; std::numeric_limits<bool>::digits
CONST	ENDS
;	COMDAT ?is_signed@?$numeric_limits@_N@std@@2_NB
CONST	SEGMENT
?is_signed@?$numeric_limits@_N@std@@2_NB DB 00H		; std::numeric_limits<bool>::is_signed
CONST	ENDS
;	COMDAT ?is_modulo@?$numeric_limits@_N@std@@2_NB
CONST	SEGMENT
?is_modulo@?$numeric_limits@_N@std@@2_NB DB 00H		; std::numeric_limits<bool>::is_modulo
CONST	ENDS
;	COMDAT ?digits10@?$numeric_limits@_W@std@@2HB
CONST	SEGMENT
?digits10@?$numeric_limits@_W@std@@2HB DD 04H		; std::numeric_limits<wchar_t>::digits10
CONST	ENDS
;	COMDAT ?digits@?$numeric_limits@_W@std@@2HB
CONST	SEGMENT
?digits@?$numeric_limits@_W@std@@2HB DD 010H		; std::numeric_limits<wchar_t>::digits
CONST	ENDS
;	COMDAT ?is_signed@?$numeric_limits@_W@std@@2_NB
CONST	SEGMENT
?is_signed@?$numeric_limits@_W@std@@2_NB DB 00H		; std::numeric_limits<wchar_t>::is_signed
CONST	ENDS
;	COMDAT ?digits10@?$numeric_limits@D@std@@2HB
CONST	SEGMENT
?digits10@?$numeric_limits@D@std@@2HB DD 02H		; std::numeric_limits<char>::digits10
CONST	ENDS
;	COMDAT ?digits@?$numeric_limits@D@std@@2HB
CONST	SEGMENT
?digits@?$numeric_limits@D@std@@2HB DD 07H		; std::numeric_limits<char>::digits
CONST	ENDS
;	COMDAT ?is_signed@?$numeric_limits@D@std@@2_NB
CONST	SEGMENT
?is_signed@?$numeric_limits@D@std@@2_NB DB 01H		; std::numeric_limits<char>::is_signed
CONST	ENDS
;	COMDAT ?radix@_Num_float_base@std@@2HB
CONST	SEGMENT
?radix@_Num_float_base@std@@2HB DD 02H			; std::_Num_float_base::radix
CONST	ENDS
;	COMDAT ?round_style@_Num_float_base@std@@2W4float_round_style@2@B
CONST	SEGMENT
?round_style@_Num_float_base@std@@2W4float_round_style@2@B DD 01H ; std::_Num_float_base::round_style
CONST	ENDS
;	COMDAT ?traps@_Num_float_base@std@@2_NB
CONST	SEGMENT
?traps@_Num_float_base@std@@2_NB DB 00H			; std::_Num_float_base::traps
CONST	ENDS
;	COMDAT ?tinyness_before@_Num_float_base@std@@2_NB
CONST	SEGMENT
?tinyness_before@_Num_float_base@std@@2_NB DB 01H	; std::_Num_float_base::tinyness_before
CONST	ENDS
;	COMDAT ?is_specialized@_Num_float_base@std@@2_NB
CONST	SEGMENT
?is_specialized@_Num_float_base@std@@2_NB DB 01H	; std::_Num_float_base::is_specialized
CONST	ENDS
;	COMDAT ?is_signed@_Num_float_base@std@@2_NB
CONST	SEGMENT
?is_signed@_Num_float_base@std@@2_NB DB 01H		; std::_Num_float_base::is_signed
CONST	ENDS
;	COMDAT ?is_modulo@_Num_float_base@std@@2_NB
CONST	SEGMENT
?is_modulo@_Num_float_base@std@@2_NB DB 00H		; std::_Num_float_base::is_modulo
CONST	ENDS
;	COMDAT ?is_integer@_Num_float_base@std@@2_NB
CONST	SEGMENT
?is_integer@_Num_float_base@std@@2_NB DB 00H		; std::_Num_float_base::is_integer
CONST	ENDS
;	COMDAT ?is_iec559@_Num_float_base@std@@2_NB
CONST	SEGMENT
?is_iec559@_Num_float_base@std@@2_NB DB 01H		; std::_Num_float_base::is_iec559
CONST	ENDS
;	COMDAT ?is_exact@_Num_float_base@std@@2_NB
CONST	SEGMENT
?is_exact@_Num_float_base@std@@2_NB DB 00H		; std::_Num_float_base::is_exact
CONST	ENDS
;	COMDAT ?is_bounded@_Num_float_base@std@@2_NB
CONST	SEGMENT
?is_bounded@_Num_float_base@std@@2_NB DB 01H		; std::_Num_float_base::is_bounded
CONST	ENDS
;	COMDAT ?has_signaling_NaN@_Num_float_base@std@@2_NB
CONST	SEGMENT
?has_signaling_NaN@_Num_float_base@std@@2_NB DB 01H	; std::_Num_float_base::has_signaling_NaN
CONST	ENDS
;	COMDAT ?has_quiet_NaN@_Num_float_base@std@@2_NB
CONST	SEGMENT
?has_quiet_NaN@_Num_float_base@std@@2_NB DB 01H		; std::_Num_float_base::has_quiet_NaN
CONST	ENDS
;	COMDAT ?has_infinity@_Num_float_base@std@@2_NB
CONST	SEGMENT
?has_infinity@_Num_float_base@std@@2_NB DB 01H		; std::_Num_float_base::has_infinity
CONST	ENDS
;	COMDAT ?CMPDIRTYDATA_INTERVAL@FalconEntity@@2KB
CONST	SEGMENT
?CMPDIRTYDATA_INTERVAL@FalconEntity@@2KB DD 0c8H	; FalconEntity::CMPDIRTYDATA_INTERVAL
CONST	ENDS
;	COMDAT ?SIMDIRTYDATA_INTERVAL@FalconEntity@@2KB
CONST	SEGMENT
?SIMDIRTYDATA_INTERVAL@FalconEntity@@2KB DD 0c8H	; FalconEntity::SIMDIRTYDATA_INTERVAL
CONST	ENDS
;	COMDAT ?has_denorm_loss@_Num_float_base@std@@2_NB
CONST	SEGMENT
?has_denorm_loss@_Num_float_base@std@@2_NB DB 01H	; std::_Num_float_base::has_denorm_loss
CONST	ENDS
;	COMDAT ?has_denorm@_Num_float_base@std@@2W4float_denorm_style@2@B
CONST	SEGMENT
?has_denorm@_Num_float_base@std@@2W4float_denorm_style@2@B DD 01H ; std::_Num_float_base::has_denorm
CONST	ENDS
;	COMDAT ?radix@_Num_int_base@std@@2HB
CONST	SEGMENT
?radix@_Num_int_base@std@@2HB DD 02H			; std::_Num_int_base::radix
CONST	ENDS
;	COMDAT ?is_specialized@_Num_int_base@std@@2_NB
CONST	SEGMENT
?is_specialized@_Num_int_base@std@@2_NB DB 01H		; std::_Num_int_base::is_specialized
CONST	ENDS
;	COMDAT ?is_modulo@_Num_int_base@std@@2_NB
CONST	SEGMENT
?is_modulo@_Num_int_base@std@@2_NB DB 01H		; std::_Num_int_base::is_modulo
CONST	ENDS
;	COMDAT ?is_integer@_Num_int_base@std@@2_NB
CONST	SEGMENT
?is_integer@_Num_int_base@std@@2_NB DB 01H		; std::_Num_int_base::is_integer
CONST	ENDS
;	COMDAT ?is_exact@_Num_int_base@std@@2_NB
CONST	SEGMENT
?is_exact@_Num_int_base@std@@2_NB DB 01H		; std::_Num_int_base::is_exact
CONST	ENDS
;	COMDAT ?is_bounded@_Num_int_base@std@@2_NB
CONST	SEGMENT
?is_bounded@_Num_int_base@std@@2_NB DB 01H		; std::_Num_int_base::is_bounded
CONST	ENDS
;	COMDAT ?radix@_Num_base@std@@2HB
CONST	SEGMENT
?radix@_Num_base@std@@2HB DD 00H			; std::_Num_base::radix
CONST	ENDS
;	COMDAT ?min_exponent10@_Num_base@std@@2HB
CONST	SEGMENT
?min_exponent10@_Num_base@std@@2HB DD 00H		; std::_Num_base::min_exponent10
CONST	ENDS
;	COMDAT ?min_exponent@_Num_base@std@@2HB
CONST	SEGMENT
?min_exponent@_Num_base@std@@2HB DD 00H			; std::_Num_base::min_exponent
CONST	ENDS
;	COMDAT ?max_exponent10@_Num_base@std@@2HB
CONST	SEGMENT
?max_exponent10@_Num_base@std@@2HB DD 00H		; std::_Num_base::max_exponent10
CONST	ENDS
;	COMDAT ?max_exponent@_Num_base@std@@2HB
CONST	SEGMENT
?max_exponent@_Num_base@std@@2HB DD 00H			; std::_Num_base::max_exponent
CONST	ENDS
;	COMDAT ?max_digits10@_Num_base@std@@2HB
CONST	SEGMENT
?max_digits10@_Num_base@std@@2HB DD 00H			; std::_Num_base::max_digits10
CONST	ENDS
;	COMDAT ?digits10@_Num_base@std@@2HB
CONST	SEGMENT
?digits10@_Num_base@std@@2HB DD 00H			; std::_Num_base::digits10
CONST	ENDS
;	COMDAT ?digits@_Num_base@std@@2HB
CONST	SEGMENT
?digits@_Num_base@std@@2HB DD 00H			; std::_Num_base::digits
CONST	ENDS
;	COMDAT ?round_style@_Num_base@std@@2W4float_round_style@2@B
CONST	SEGMENT
?round_style@_Num_base@std@@2W4float_round_style@2@B DD 00H ; std::_Num_base::round_style
CONST	ENDS
;	COMDAT ?traps@_Num_base@std@@2_NB
CONST	SEGMENT
?traps@_Num_base@std@@2_NB DB 00H			; std::_Num_base::traps
CONST	ENDS
PUBLIC	_fabsf
PUBLIC	_cosf
PUBLIC	_sinf
PUBLIC	?cos@@YAMM@Z					; cos
PUBLIC	?fabs@@YAMM@Z					; fabs
PUBLIC	?sin@@YAMM@Z					; sin
PUBLIC	??8VU_SESSION_ID@@QBEHABV0@@Z			; VU_SESSION_ID::operator==
PUBLIC	??8VU_ID@@QBE_NABV0@@Z				; VU_ID::operator==
PUBLIC	?Id@VuEntity@@QBE?AVVU_ID@@XZ			; VuEntity::Id
PUBLIC	?XPos@VuEntity@@QBEMXZ				; VuEntity::XPos
PUBLIC	?YPos@VuEntity@@QBEMXZ				; VuEntity::YPos
PUBLIC	?ZPos@VuEntity@@QBEMXZ				; VuEntity::ZPos
PUBLIC	?XDelta@VuEntity@@QBEMXZ			; VuEntity::XDelta
PUBLIC	?YDelta@VuEntity@@QBEMXZ			; VuEntity::YDelta
PUBLIC	?Yaw@VuEntity@@QBEMXZ				; VuEntity::Yaw
PUBLIC	??2@YAPAXIPAX@Z					; operator new
PUBLIC	??3@YAXPAX0@Z					; operator delete
PUBLIC	?length@?$char_traits@D@std@@SAIPBD@Z		; std::char_traits<char>::length
PUBLIC	?copy@?$char_traits@D@std@@SAPADPADPBDI@Z	; std::char_traits<char>::copy
PUBLIC	?move@?$char_traits@D@std@@SAPADPADPBDI@Z	; std::char_traits<char>::move
PUBLIC	?assign@?$char_traits@D@std@@SAXAADABD@Z	; std::char_traits<char>::assign
PUBLIC	??0?$allocator@D@std@@QAE@XZ			; std::allocator<char>::allocator<char>
PUBLIC	?deallocate@?$allocator@D@std@@QAEXPADI@Z	; std::allocator<char>::deallocate
PUBLIC	?allocate@?$allocator@D@std@@QAEPADI@Z		; std::allocator<char>::allocate
PUBLIC	?max_size@?$allocator@D@std@@QBEIXZ		; std::allocator<char>::max_size
PUBLIC	?max_size@?$allocator_traits@V?$allocator@D@std@@@std@@SAIABV?$allocator@D@2@@Z ; std::allocator_traits<std::allocator<char> >::max_size
PUBLIC	??0?$_Wrap_alloc@V?$allocator@D@std@@@std@@QAE@XZ ; std::_Wrap_alloc<std::allocator<char> >::_Wrap_alloc<std::allocator<char> >
PUBLIC	?allocate@?$_Wrap_alloc@V?$allocator@D@std@@@std@@QAEPADI@Z ; std::_Wrap_alloc<std::allocator<char> >::allocate
PUBLIC	?deallocate@?$_Wrap_alloc@V?$allocator@D@std@@@std@@QAEXPADI@Z ; std::_Wrap_alloc<std::allocator<char> >::deallocate
PUBLIC	?max_size@?$_Wrap_alloc@V?$allocator@D@std@@@std@@QBEIXZ ; std::_Wrap_alloc<std::allocator<char> >::max_size
PUBLIC	??0?$_String_val@U?$_Simple_types@D@std@@@std@@QAE@XZ ; std::_String_val<std::_Simple_types<char> >::_String_val<std::_Simple_types<char> >
PUBLIC	?_Myptr@?$_String_val@U?$_Simple_types@D@std@@@std@@QAEPADXZ ; std::_String_val<std::_Simple_types<char> >::_Myptr
PUBLIC	?_Myptr@?$_String_val@U?$_Simple_types@D@std@@@std@@QBEPBDXZ ; std::_String_val<std::_Simple_types<char> >::_Myptr
PUBLIC	??0?$_String_alloc@$0A@U?$_String_base_types@DV?$allocator@D@std@@@std@@@std@@QAE@ABV?$allocator@D@1@@Z ; std::_String_alloc<0,std::_String_base_types<char,std::allocator<char> > >::_String_alloc<0,std::_String_base_types<char,std::allocator<char> > >
PUBLIC	?_Getal@?$_String_alloc@$0A@U?$_String_base_types@DV?$allocator@D@std@@@std@@@std@@QBE?AU?$_Wrap_alloc@V?$allocator@D@std@@@2@XZ ; std::_String_alloc<0,std::_String_base_types<char,std::allocator<char> > >::_Getal
PUBLIC	??0?$basic_string@DU?$char_traits@D@std@@V?$allocator@D@2@@std@@QAE@PBD@Z ; std::basic_string<char,std::char_traits<char>,std::allocator<char> >::basic_string<char,std::char_traits<char>,std::allocator<char> >
PUBLIC	?assign@?$basic_string@DU?$char_traits@D@std@@V?$allocator@D@2@@std@@QAEAAV12@ABV12@II@Z ; std::basic_string<char,std::char_traits<char>,std::allocator<char> >::assign
PUBLIC	?assign@?$basic_string@DU?$char_traits@D@std@@V?$allocator@D@2@@std@@QAEAAV12@PBDI@Z ; std::basic_string<char,std::char_traits<char>,std::allocator<char> >::assign
PUBLIC	?assign@?$basic_string@DU?$char_traits@D@std@@V?$allocator@D@2@@std@@QAEAAV12@PBD@Z ; std::basic_string<char,std::char_traits<char>,std::allocator<char> >::assign
PUBLIC	?erase@?$basic_string@DU?$char_traits@D@std@@V?$allocator@D@2@@std@@QAEAAV12@I@Z ; std::basic_string<char,std::char_traits<char>,std::allocator<char> >::erase
PUBLIC	?erase@?$basic_string@DU?$char_traits@D@std@@V?$allocator@D@2@@std@@QAEAAV12@II@Z ; std::basic_string<char,std::char_traits<char>,std::allocator<char> >::erase
PUBLIC	?size@?$basic_string@DU?$char_traits@D@std@@V?$allocator@D@2@@std@@QBEIXZ ; std::basic_string<char,std::char_traits<char>,std::allocator<char> >::size
PUBLIC	?max_size@?$basic_string@DU?$char_traits@D@std@@V?$allocator@D@2@@std@@QBEIXZ ; std::basic_string<char,std::char_traits<char>,std::allocator<char> >::max_size
PUBLIC	?_Copy@?$basic_string@DU?$char_traits@D@std@@V?$allocator@D@2@@std@@QAEXII@Z ; std::basic_string<char,std::char_traits<char>,std::allocator<char> >::_Copy
PUBLIC	?_Eos@?$basic_string@DU?$char_traits@D@std@@V?$allocator@D@2@@std@@QAEXI@Z ; std::basic_string<char,std::char_traits<char>,std::allocator<char> >::_Eos
PUBLIC	?_Grow@?$basic_string@DU?$char_traits@D@std@@V?$allocator@D@2@@std@@QAE_NI_N@Z ; std::basic_string<char,std::char_traits<char>,std::allocator<char> >::_Grow
PUBLIC	?_Inside@?$basic_string@DU?$char_traits@D@std@@V?$allocator@D@2@@std@@QAE_NPBD@Z ; std::basic_string<char,std::char_traits<char>,std::allocator<char> >::_Inside
PUBLIC	?_Tidy@?$basic_string@DU?$char_traits@D@std@@V?$allocator@D@2@@std@@QAEX_NI@Z ; std::basic_string<char,std::char_traits<char>,std::allocator<char> >::_Tidy
PUBLIC	?_Xlen@?$basic_string@DU?$char_traits@D@std@@V?$allocator@D@2@@std@@QBEXXZ ; std::basic_string<char,std::char_traits<char>,std::allocator<char> >::_Xlen
PUBLIC	?_Xran@?$basic_string@DU?$char_traits@D@std@@V?$allocator@D@2@@std@@QBEXXZ ; std::basic_string<char,std::char_traits<char>,std::allocator<char> >::_Xran
PUBLIC	??B?$VuBin@VVuSessionEntity@@@@QBE_NXZ		; VuBin<VuSessionEntity>::operator bool
PUBLIC	?get@?$VuBin@VVuSessionEntity@@@@QBEPAVVuSessionEntity@@XZ ; VuBin<VuSessionEntity>::get
PUBLIC	?IsSetFalcFlag@FalconEntity@@QAEHH@Z		; FalconEntity::IsSetFalcFlag
PUBLIC	?IsPlayer@FalconEntity@@QAEHXZ			; FalconEntity::IsPlayer
PUBLIC	?checked_atan2@@YANNN@Z				; checked_atan2
PUBLIC	?GetWPTarget@WayPointClass@@QAEPAVCampBaseClass@@XZ ; WayPointClass::GetWPTarget
PUBLIC	?GetWPAction@WayPointClass@@QAEHXZ		; WayPointClass::GetWPAction
PUBLIC	?GetWPRouteAction@WayPointClass@@QAEHXZ		; WayPointClass::GetWPRouteAction
PUBLIC	?GetWPFormation@WayPointClass@@QAEHXZ		; WayPointClass::GetWPFormation
PUBLIC	?GetWPFlags@WayPointClass@@QAEKXZ		; WayPointClass::GetWPFlags
PUBLIC	?GetNextWP@WayPointClass@@QAEPAV1@XZ		; WayPointClass::GetNextWP
PUBLIC	?GetPrevWP@WayPointClass@@QAEPAV1@XZ		; WayPointClass::GetPrevWP
PUBLIC	?SetWPDepartTime@WayPointClass@@QAEXK@Z		; WayPointClass::SetWPDepartTime
PUBLIC	?SetWPArrive@WayPointClass@@QAEXK@Z		; WayPointClass::SetWPArrive
PUBLIC	?GetWPArrivalTime@WayPointClass@@QAEKXZ		; WayPointClass::GetWPArrivalTime
PUBLIC	?GetWPDepartureTime@WayPointClass@@QAEKXZ	; WayPointClass::GetWPDepartureTime
PUBLIC	?GetWPLocation@WayPointClass@@QBEXPAF0@Z	; WayPointClass::GetWPLocation
PUBLIC	?FollowWaypoints@DigitalBrain@@IAEXXZ		; DigitalBrain::FollowWaypoints
PUBLIC	?GoToCurrentWaypoint@DigitalBrain@@IAEXXZ	; DigitalBrain::GoToCurrentWaypoint
PUBLIC	?SelectNextWaypoint@DigitalBrain@@IAEXXZ	; DigitalBrain::SelectNextWaypoint
PUBLIC	?SetWaypointSpecificStuff@DigitalBrain@@IAEXXZ	; DigitalBrain::SetWaypointSpecificStuff
PUBLIC	?GetWaypointIndex@DigitalBrain@@IAEHXZ		; DigitalBrain::GetWaypointIndex
PUBLIC	?GetTargetWPIndex@DigitalBrain@@IAEHXZ		; DigitalBrain::GetTargetWPIndex
PUBLIC	?DoPickupAirdrop@DigitalBrain@@IAEXXZ		; DigitalBrain::DoPickupAirdrop
PUBLIC	?SimpleGoToCurrentWaypoint@DigitalBrain@@IAEXXZ	; DigitalBrain::SimpleGoToCurrentWaypoint
PUBLIC	?SetTrackPoint@DigitalBrain@@QAEXMM@Z		; DigitalBrain::SetTrackPoint
PUBLIC	?SetTrackPoint@DigitalBrain@@QAEXMMM@Z		; DigitalBrain::SetTrackPoint
PUBLIC	?SetATCFlag@DigitalBrain@@QAEXH@Z		; DigitalBrain::SetATCFlag
PUBLIC	?IsSetATC@DigitalBrain@@QAEHH@Z			; DigitalBrain::IsSetATC
PUBLIC	??0id@locale@std@@QAE@I@Z			; std::locale::id::id
PUBLIC	?generic_category@std@@YAABVerror_category@1@XZ	; std::generic_category
PUBLIC	?system_category@std@@YAABVerror_category@1@XZ	; std::system_category
PUBLIC	??0error_category@std@@QAE@XZ			; std::error_category::error_category
PUBLIC	??1error_category@std@@UAE@XZ			; std::error_category::~error_category
PUBLIC	?default_error_condition@error_category@std@@UBE?AVerror_condition@2@H@Z ; std::error_category::default_error_condition
PUBLIC	?equivalent@error_category@std@@UBE_NHABVerror_condition@2@@Z ; std::error_category::equivalent
PUBLIC	?equivalent@error_category@std@@UBE_NABVerror_code@2@H@Z ; std::error_category::equivalent
PUBLIC	??8error_category@std@@QBE_NABV01@@Z		; std::error_category::operator==
PUBLIC	??_Gerror_category@std@@UAEPAXI@Z		; std::error_category::`scalar deleting destructor'
PUBLIC	?value@error_code@std@@QBEHXZ			; std::error_code::value
PUBLIC	?category@error_code@std@@QBEABVerror_category@2@XZ ; std::error_code::category
PUBLIC	??0error_condition@std@@QAE@HABVerror_category@1@@Z ; std::error_condition::error_condition
PUBLIC	?value@error_condition@std@@QBEHXZ		; std::error_condition::value
PUBLIC	?category@error_condition@std@@QBEABVerror_category@2@XZ ; std::error_condition::category
PUBLIC	??8error_condition@std@@QBE_NABV01@@Z		; std::error_condition::operator==
PUBLIC	??0_Generic_error_category@std@@QAE@XZ		; std::_Generic_error_category::_Generic_error_category
PUBLIC	?name@_Generic_error_category@std@@UBEPBDXZ	; std::_Generic_error_category::name
PUBLIC	?message@_Generic_error_category@std@@UBE?AV?$basic_string@DU?$char_traits@D@std@@V?$allocator@D@2@@2@H@Z ; std::_Generic_error_category::message
PUBLIC	??1_Generic_error_category@std@@UAE@XZ		; std::_Generic_error_category::~_Generic_error_category
PUBLIC	??_G_Generic_error_category@std@@UAEPAXI@Z	; std::_Generic_error_category::`scalar deleting destructor'
PUBLIC	??0_Iostream_error_category@std@@QAE@XZ		; std::_Iostream_error_category::_Iostream_error_category
PUBLIC	?name@_Iostream_error_category@std@@UBEPBDXZ	; std::_Iostream_error_category::name
PUBLIC	?message@_Iostream_error_category@std@@UBE?AV?$basic_string@DU?$char_traits@D@std@@V?$allocator@D@2@@2@H@Z ; std::_Iostream_error_category::message
PUBLIC	??1_Iostream_error_category@std@@UAE@XZ		; std::_Iostream_error_category::~_Iostream_error_category
PUBLIC	??_G_Iostream_error_category@std@@UAEPAXI@Z	; std::_Iostream_error_category::`scalar deleting destructor'
PUBLIC	??0_System_error_category@std@@QAE@XZ		; std::_System_error_category::_System_error_category
PUBLIC	?name@_System_error_category@std@@UBEPBDXZ	; std::_System_error_category::name
PUBLIC	?message@_System_error_category@std@@UBE?AV?$basic_string@DU?$char_traits@D@std@@V?$allocator@D@2@@2@H@Z ; std::_System_error_category::message
PUBLIC	?default_error_condition@_System_error_category@std@@UBE?AVerror_condition@2@H@Z ; std::_System_error_category::default_error_condition
PUBLIC	??1_System_error_category@std@@UAE@XZ		; std::_System_error_category::~_System_error_category
PUBLIC	??_G_System_error_category@std@@UAEPAXI@Z	; std::_System_error_category::`scalar deleting destructor'
PUBLIC	?get@?$VuBin@VCampBaseClass@@@@QBEPAVCampBaseClass@@XZ ; VuBin<CampBaseClass>::get
PUBLIC	?GetCallsignIdx@SimBaseClass@@QAEHXZ		; SimBaseClass::GetCallsignIdx
PUBLIC	?GetCampaignObject@SimBaseClass@@QAEPAVCampBaseClass@@XZ ; SimBaseClass::GetCampaignObject
PUBLIC	?GetStptMode@FireControlComputer@@QAE?AW4FCCStptMode@1@XZ ; FireControlComputer::GetStptMode
PUBLIC	?GetGame@FalconSessionEntity@@QAEPAVFalconGameEntity@@XZ ; FalconSessionEntity::GetGame
PUBLIC	?AutopilotType@AircraftClass@@QAE?AW4AutoPilotType@1@XZ ; AircraftClass::AutopilotType
PUBLIC	?GetPlayerEntity@SimulationDriver@@QBEPAVSimMoverClass@@XZ ; SimulationDriver::GetPlayerEntity
PUBLIC	?GetSimpleMode@AirframeClass@@QAEHXZ		; AirframeClass::GetSimpleMode
PUBLIC	?Cargo@UnitClass@@QBEHXZ			; UnitClass::Cargo
PUBLIC	?GetFirstUnitWP@UnitClass@@QAEPAVWayPointClass@@XZ ; UnitClass::GetFirstUnitWP
PUBLIC	??$construct@PADAAPAD@?$_Wrap_alloc@V?$allocator@D@std@@@std@@QAEXPAPADAAPAD@Z ; std::_Wrap_alloc<std::allocator<char> >::construct<char *,char * &>
PUBLIC	??$destroy@PAD@?$_Wrap_alloc@V?$allocator@D@std@@@std@@QAEXPAPAD@Z ; std::_Wrap_alloc<std::allocator<char> >::destroy<char *>
PUBLIC	??$addressof@D@std@@YAPADAAD@Z			; std::addressof<char>
PUBLIC	??$_Allocate@D@std@@YAPADIPAD@Z			; std::_Allocate<char>
PUBLIC	??$forward@AAPAD@std@@YAAAPADAAPAD@Z		; std::forward<char * &>
PUBLIC	??$construct@PADAAPAD@?$allocator_traits@V?$allocator@D@std@@@std@@SAXAAV?$allocator@D@1@PAPADAAPAD@Z ; std::allocator_traits<std::allocator<char> >::construct<char *,char * &>
PUBLIC	??$destroy@PAD@?$allocator_traits@V?$allocator@D@std@@@std@@SAXAAV?$allocator@D@1@PAPAD@Z ; std::allocator_traits<std::allocator<char> >::destroy<char *>
PUBLIC	??$construct@PADAAPAD@?$allocator@D@std@@QAEXPAPADAAPAD@Z ; std::allocator<char>::construct<char *,char * &>
PUBLIC	??$destroy@PAD@?$allocator@D@std@@QAEXPAPAD@Z	; std::allocator<char>::destroy<char *>
PUBLIC	??_7error_category@std@@6B@			; std::error_category::`vftable'
PUBLIC	??_7_Generic_error_category@std@@6B@		; std::_Generic_error_category::`vftable'
PUBLIC	??_C@_07DCLBNMLN@generic?$AA@			; `string'
PUBLIC	??_C@_0O@BFJCFAAK@unknown?5error?$AA@		; `string'
PUBLIC	??_7_Iostream_error_category@std@@6B@		; std::_Iostream_error_category::`vftable'
PUBLIC	??_C@_08LLGCOLLL@iostream?$AA@			; `string'
PUBLIC	??_C@_0BG@PADBLCHM@iostream?5stream?5error?$AA@	; `string'
PUBLIC	??_7_System_error_category@std@@6B@		; std::_System_error_category::`vftable'
PUBLIC	??_C@_06FHFOAHML@system?$AA@			; `string'
PUBLIC	?_Generic_object@?$_Error_objects@H@std@@2V_Generic_error_category@2@A ; std::_Error_objects<int>::_Generic_object
PUBLIC	?_Iostream_object@?$_Error_objects@H@std@@2V_Iostream_error_category@2@A ; std::_Error_objects<int>::_Iostream_object
PUBLIC	?_System_object@?$_Error_objects@H@std@@2V_System_error_category@2@A ; std::_Error_objects<int>::_System_object
PUBLIC	?id@?$num_put@DV?$back_insert_iterator@V?$basic_string@DU?$char_traits@D@std@@V?$allocator@D@2@@std@@@std@@@std@@2V0locale@2@A ; std::num_put<char,std::back_insert_iterator<std::basic_string<char,std::char_traits<char>,std::allocator<char> > > >::id
PUBLIC	?id@?$num_put@_WV?$back_insert_iterator@V?$basic_string@_WU?$char_traits@_W@std@@V?$allocator@_W@2@@std@@@std@@@std@@2V0locale@2@A ; std::num_put<wchar_t,std::back_insert_iterator<std::basic_string<wchar_t,std::char_traits<wchar_t>,std::allocator<wchar_t> > > >::id
PUBLIC	?id@?$numpunct@D@std@@2V0locale@2@A		; std::numpunct<char>::id
PUBLIC	?id@?$numpunct@_W@std@@2V0locale@2@A		; std::numpunct<wchar_t>::id
PUBLIC	??_C@_0BI@CFPLBAOH@invalid?5string?5position?$AA@ ; `string'
PUBLIC	??_C@_0BA@JFNIOLAK@string?5too?5long?$AA@	; `string'
PUBLIC	??_R4error_category@std@@6B@			; std::error_category::`RTTI Complete Object Locator'
PUBLIC	??_R0?AVerror_category@std@@@8			; std::error_category `RTTI Type Descriptor'
PUBLIC	??_R3error_category@std@@8			; std::error_category::`RTTI Class Hierarchy Descriptor'
PUBLIC	??_R2error_category@std@@8			; std::error_category::`RTTI Base Class Array'
PUBLIC	??_R1A@?0A@EA@error_category@std@@8		; std::error_category::`RTTI Base Class Descriptor at (0,-1,0,64)'
PUBLIC	??_R4_Generic_error_category@std@@6B@		; std::_Generic_error_category::`RTTI Complete Object Locator'
PUBLIC	??_R0?AV_Generic_error_category@std@@@8		; std::_Generic_error_category `RTTI Type Descriptor'
PUBLIC	??_R3_Generic_error_category@std@@8		; std::_Generic_error_category::`RTTI Class Hierarchy Descriptor'
PUBLIC	??_R2_Generic_error_category@std@@8		; std::_Generic_error_category::`RTTI Base Class Array'
PUBLIC	??_R1A@?0A@EA@_Generic_error_category@std@@8	; std::_Generic_error_category::`RTTI Base Class Descriptor at (0,-1,0,64)'
PUBLIC	??_R4_Iostream_error_category@std@@6B@		; std::_Iostream_error_category::`RTTI Complete Object Locator'
PUBLIC	??_R0?AV_Iostream_error_category@std@@@8	; std::_Iostream_error_category `RTTI Type Descriptor'
PUBLIC	??_R3_Iostream_error_category@std@@8		; std::_Iostream_error_category::`RTTI Class Hierarchy Descriptor'
PUBLIC	??_R2_Iostream_error_category@std@@8		; std::_Iostream_error_category::`RTTI Base Class Array'
PUBLIC	??_R1A@?0A@EA@_Iostream_error_category@std@@8	; std::_Iostream_error_category::`RTTI Base Class Descriptor at (0,-1,0,64)'
PUBLIC	??_R4_System_error_category@std@@6B@		; std::_System_error_category::`RTTI Complete Object Locator'
PUBLIC	??_R0?AV_System_error_category@std@@@8		; std::_System_error_category `RTTI Type Descriptor'
PUBLIC	??_R3_System_error_category@std@@8		; std::_System_error_category::`RTTI Class Hierarchy Descriptor'
PUBLIC	??_R2_System_error_category@std@@8		; std::_System_error_category::`RTTI Base Class Array'
PUBLIC	??_R1A@?0A@EA@_System_error_category@std@@8	; std::_System_error_category::`RTTI Base Class Descriptor at (0,-1,0,64)'
PUBLIC	__real@00000000
PUBLIC	__real@0000000000000000
PUBLIC	__real@392c987a
PUBLIC	__real@3d4ccccd
PUBLIC	__real@3d56774e
PUBLIC	__real@3e32b8c1
PUBLIC	__real@3e800000
PUBLIC	__real@3f17ac60
PUBLIC	__real@3f4ccccd
PUBLIC	__real@3f800000
PUBLIC	__real@3fa00000
PUBLIC	__real@3fa66666
PUBLIC	__real@3fc00000
PUBLIC	__real@3ff921fb54442d18
PUBLIC	__real@40000000
PUBLIC	__real@400921fb54442d18
PUBLIC	__real@40490fd9
PUBLIC	__real@40c90fd9
PUBLIC	__real@42200000
PUBLIC	__real@42652ee1
PUBLIC	__real@42a8c89a
PUBLIC	__real@43480000
PUBLIC	__real@437d2ce8
PUBLIC	__real@43fa0000
PUBLIC	__real@447a0000
PUBLIC	__real@45bde1b0
PUBLIC	__real@48742400
PUBLIC	__real@4bbebc20
PUBLIC	__real@4cbebc20
PUBLIC	__real@8000000000000000
PUBLIC	__real@bd56774e
PUBLIC	__real@bf800000
PUBLIC	__real@bff921fb54442d18
PUBLIC	__real@c0490fd9
PUBLIC	__real@c2c80000
PUBLIC	__real@c59c4000
PUBLIC	__xmm@41f00000000000000000000000000000
PUBLIC	__xmm@80000000800000008000000080000000
EXTRN	__purecall:PROC
EXTRN	??2@YAPAXI@Z:PROC				; operator new
EXTRN	??3@YAXPAX@Z:PROC				; operator delete
EXTRN	_atexit:PROC
EXTRN	_atan:PROC
EXTRN	_cos:PROC
EXTRN	_fabs:PROC
EXTRN	_sin:PROC
EXTRN	_rand:PROC
EXTRN	_memcpy:PROC
EXTRN	_strlen:PROC
EXTRN	_memmove:PROC
EXTRN	?_Xbad_alloc@std@@YAXXZ:PROC			; std::_Xbad_alloc
EXTRN	?_Xlength_error@std@@YAXPBD@Z:PROC		; std::_Xlength_error
EXTRN	?_Xout_of_range@std@@YAXPBD@Z:PROC		; std::_Xout_of_range
EXTRN	?Remove@VuCollection@@QAEHPAVVuEntity@@@Z:PROC	; VuCollection::Remove
EXTRN	?Find@VuDatabase@@QBEPAVVuEntity@@VVU_ID@@@Z:PROC ; VuDatabase::Find
EXTRN	?Game@VuSessionEntity@@QAEPAVVuGameEntity@@XZ:PROC ; VuSessionEntity::Game
EXTRN	?FalconSendMessage@@YAXPAVVuMessage@@H@Z:PROC	; FalconSendMessage
EXTRN	?ForcedInsert@FalconPrivateList@@QAEHPAVVuEntity@@@Z:PROC ; FalconPrivateList::ForcedInsert
EXTRN	?GetLocation@WayPointClass@@QBEXPAM00@Z:PROC	; WayPointClass::GetLocation
EXTRN	?AddMode@DigitalBrain@@IAEXW4DigiMode@1@@Z:PROC	; DigitalBrain::AddMode
EXTRN	?MachHold@DigitalBrain@@IAEHMMH@Z:PROC		; DigitalBrain::MachHold
EXTRN	?Loiter@DigitalBrain@@IAEXXZ:PROC		; DigitalBrain::Loiter
EXTRN	?LevelTurn@DigitalBrain@@IAEXMMH@Z:PROC		; DigitalBrain::LevelTurn
EXTRN	?AltitudeHold@DigitalBrain@@IAEHM@Z:PROC	; DigitalBrain::AltitudeHold
EXTRN	?GroundAttackMode@DigitalBrain@@IAEXXZ:PROC	; DigitalBrain::GroundAttackMode
EXTRN	?SelectGroundWeapon@DigitalBrain@@IAEXXZ:PROC	; DigitalBrain::SelectGroundWeapon
EXTRN	?SetupAGMode@DigitalBrain@@IAEXPAVWayPointClass@@0@Z:PROC ; DigitalBrain::SetupAGMode
EXTRN	?Land@DigitalBrain@@IAEXXZ:PROC			; DigitalBrain::Land
EXTRN	?TakeOff@DigitalBrain@@IAEXXZ:PROC		; DigitalBrain::TakeOff
EXTRN	?SimpleTrack@DigitalBrain@@IAEXW4SimpleTrackMode@1@M@Z:PROC ; DigitalBrain::SimpleTrack
EXTRN	?GroundCheck@DigitalBrain@@IAEXXZ:PROC		; DigitalBrain::GroundCheck
EXTRN	?SetYpedal@DigitalBrain@@IAEMM@Z:PROC		; DigitalBrain::SetYpedal
EXTRN	?TrackPoint@DigitalBrain@@IAEMMM@Z:PROC		; DigitalBrain::TrackPoint
EXTRN	?ThreeAxisAP@DigitalBrain@@QAEXXZ:PROC		; DigitalBrain::ThreeAxisAP
EXTRN	??_Eerror_category@std@@UAEPAXI@Z:PROC		; std::error_category::`vector deleting destructor'
EXTRN	?_Syserror_map@std@@YAPBDH@Z:PROC		; std::_Syserror_map
EXTRN	?_Winerror_map@std@@YAPBDH@Z:PROC		; std::_Winerror_map
EXTRN	??_E_Generic_error_category@std@@UAEPAXI@Z:PROC	; std::_Generic_error_category::`vector deleting destructor'
EXTRN	??_E_Iostream_error_category@std@@UAEPAXI@Z:PROC ; std::_Iostream_error_category::`vector deleting destructor'
EXTRN	??_E_System_error_category@std@@UAEPAXI@Z:PROC	; std::_System_error_category::`vector deleting destructor'
EXTRN	?GetGroundLevel@OTWDriverClass@@QAEMMMPAUTpoint@@@Z:PROC ; OTWDriverClass::GetGroundLevel
EXTRN	?GetAreaFloorAndCeiling@OTWDriverClass@@QAEXPAM0@Z:PROC ; OTWDriverClass::GetAreaFloorAndCeiling
EXTRN	?SetWaypointNum@FireControlComputer@@QAEXH@Z:PROC ; FireControlComputer::SetWaypointNum
EXTRN	?SetAutopilot@AircraftClass@@QAEXW4AutoPilotType@1@@Z:PROC ; AircraftClass::SetAutopilot
EXTRN	?GetComponentIndex@CampBaseClass@@QAEHPAVVuEntity@@@Z:PROC ; CampBaseClass::GetComponentIndex
EXTRN	?GetComponentEntity@CampBaseClass@@QAEPAVSimBaseClass@@H@Z:PROC ; CampBaseClass::GetComponentEntity
EXTRN	?GetComponentLead@CampBaseClass@@QAEPAVSimBaseClass@@XZ:PROC ; CampBaseClass::GetComponentLead
EXTRN	?SetLocation@CampBaseClass@@QAEXFF@Z:PROC	; CampBaseClass::SetLocation
EXTRN	?GetPlayerAircraft@SimulationDriver@@QBEPAVAircraftClass@@XZ:PROC ; SimulationDriver::GetPlayerAircraft
EXTRN	?FindTanker@SimulationDriver@@QAEPAVFlightClass@@PAVSimBaseClass@@@Z:PROC ; SimulationDriver::FindTanker
EXTRN	??0FalconFACMessage@@QAE@VVU_ID@@PAVVuTargetEntity@@E@Z:PROC ; FalconFACMessage::FalconFACMessage
EXTRN	??0FalconRadioChatterMessage@@QAE@VVU_ID@@PAVVuTargetEntity@@E@Z:PROC ; FalconRadioChatterMessage::FalconRadioChatterMessage
EXTRN	??0FalconTankerMessage@@QAE@VVU_ID@@PAVVuTargetEntity@@E@Z:PROC ; FalconTankerMessage::FalconTankerMessage
EXTRN	?SetCargoId@UnitClass@@QAEXVVU_ID@@@Z:PROC	; UnitClass::SetCargoId
EXTRN	?SetInactive@UnitClass@@QAEXH@Z:PROC		; UnitClass::SetInactive
EXTRN	?GetTotalVehicles@UnitClass@@QAEHXZ:PROC	; UnitClass::GetTotalVehicles
EXTRN	?LoadUnit@UnitClass@@QAEXPAV1@@Z:PROC		; UnitClass::LoadUnit
EXTRN	?UnloadUnit@UnitClass@@QAEXXZ:PROC		; UnitClass::UnloadUnit
EXTRN	?SetCurrentUnitWP@UnitClass@@QAEXPAVWayPointClass@@@Z:PROC ; UnitClass::SetCurrentUnitWP
EXTRN	?GetPilotVoiceID@FlightClass@@QAEEH@Z:PROC	; FlightClass::GetPilotVoiceID
EXTRN	?GetFlightLeadSlot@FlightClass@@QAEHXZ:PROC	; FlightClass::GetFlightLeadSlot
EXTRN	?GetFlightLeadCallNumber@FlightClass@@QAEHXZ:PROC ; FlightClass::GetFlightLeadCallNumber
EXTRN	?AiSendCommand@@YAXPAVSimBaseClass@@HHVVU_ID@@@Z:PROC ; AiSendCommand
EXTRN	@__security_check_cookie@4:PROC
EXTRN	__CxxThrowException@8:PROC
EXTRN	___CxxFrameHandler3:PROC
EXTRN	?vuDatabase@@3PAVVuDatabase@@A:DWORD		; vuDatabase
EXTRN	?vuLocalSessionEntity@@3V?$VuBin@VVuSessionEntity@@@@A:DWORD ; vuLocalSessionEntity
EXTRN	?vuNullId@@3VVU_ID@@A:QWORD			; vuNullId
EXTRN	?FalconNullId@@3VVU_ID@@A:QWORD			; FalconNullId
EXTRN	?SimLibElapsedTime@@3KA:DWORD			; SimLibElapsedTime
EXTRN	??_7type_info@@6B@:QWORD			; type_info::`vftable'
EXTRN	?acFormationData@@3PAVACFormationData@@A:DWORD	; acFormationData
EXTRN	?RuleMode@@3W4RulesModes@@A:DWORD		; RuleMode
EXTRN	?OTWDriver@@3VOTWDriverClass@@A:BYTE		; OTWDriver
EXTRN	?UserStickInputs@@3VPilotInputs@@A:BYTE		; UserStickInputs
EXTRN	?SimDriver@@3VSimulationDriver@@A:BYTE		; SimDriver
EXTRN	?g_fAIRefuelRange@@3MA:DWORD			; g_fAIRefuelRange
EXTRN	?g_nSkipWaypointTime@@3HA:DWORD			; g_nSkipWaypointTime
EXTRN	?g_bAGTargetWPFix@@3_NA:BYTE			; g_bAGTargetWPFix
EXTRN	?g_fAIMinWPAlt@@3MA:DWORD			; g_fAIMinWPAlt
EXTRN	___security_cookie:DWORD
EXTRN	__fltused:DWORD
_BSS	SEGMENT
_piecewise_construct DB 01H DUP (?)
_allocator_arg DB 01H DUP (?)
_BSS	ENDS
;	COMDAT ?_Generic_object@?$_Error_objects@H@std@@2V_Generic_error_category@2@A
_BSS	SEGMENT
?_Generic_object@?$_Error_objects@H@std@@2V_Generic_error_category@2@A DD 01H DUP (?) ; std::_Error_objects<int>::_Generic_object
_BSS	ENDS
;	COMDAT ?_Iostream_object@?$_Error_objects@H@std@@2V_Iostream_error_category@2@A
_BSS	SEGMENT
?_Iostream_object@?$_Error_objects@H@std@@2V_Iostream_error_category@2@A DD 01H DUP (?) ; std::_Error_objects<int>::_Iostream_object
_BSS	ENDS
;	COMDAT ?_System_object@?$_Error_objects@H@std@@2V_System_error_category@2@A
_BSS	SEGMENT
?_System_object@?$_Error_objects@H@std@@2V_System_error_category@2@A DD 01H DUP (?) ; std::_Error_objects<int>::_System_object
_BSS	ENDS
;	COMDAT ?id@?$num_put@DV?$back_insert_iterator@V?$basic_string@DU?$char_traits@D@std@@V?$allocator@D@2@@std@@@std@@@std@@2V0locale@2@A
_BSS	SEGMENT
?id@?$num_put@DV?$back_insert_iterator@V?$basic_string@DU?$char_traits@D@std@@V?$allocator@D@2@@std@@@std@@@std@@2V0locale@2@A DD 01H DUP (?) ; std::num_put<char,std::back_insert_iterator<std::basic_string<char,std::char_traits<char>,std::allocator<char> > > >::id
_BSS	ENDS
;	COMDAT ?id@?$num_put@_WV?$back_insert_iterator@V?$basic_string@_WU?$char_traits@_W@std@@V?$allocator@_W@2@@std@@@std@@@std@@2V0locale@2@A
_BSS	SEGMENT
?id@?$num_put@_WV?$back_insert_iterator@V?$basic_string@_WU?$char_traits@_W@std@@V?$allocator@_W@2@@std@@@std@@@std@@2V0locale@2@A DD 01H DUP (?) ; std::num_put<wchar_t,std::back_insert_iterator<std::basic_string<wchar_t,std::char_traits<wchar_t>,std::allocator<wchar_t> > > >::id
_BSS	ENDS
;	COMDAT ?id@?$numpunct@D@std@@2V0locale@2@A
_BSS	SEGMENT
?id@?$numpunct@D@std@@2V0locale@2@A DD 01H DUP (?)	; std::numpunct<char>::id
_BSS	ENDS
;	COMDAT ?id@?$numpunct@_W@std@@2V0locale@2@A
_BSS	SEGMENT
?id@?$numpunct@_W@std@@2V0locale@2@A DD 01H DUP (?)	; std::numpunct<wchar_t>::id
_BSS	ENDS
CRT$XCU	SEGMENT
_piecewise_construct$initializer$ DD FLAT:??__Epiecewise_construct@std@@YAXXZ
CRT$XCU	ENDS
;	COMDAT __xmm@80000000800000008000000080000000
CONST	SEGMENT
__xmm@80000000800000008000000080000000 DB 00H, 00H, 00H, 080H, 00H, 00H, 00H
	DB	080H, 00H, 00H, 00H, 080H, 00H, 00H, 00H, 080H
CONST	ENDS
;	COMDAT __xmm@41f00000000000000000000000000000
CONST	SEGMENT
__xmm@41f00000000000000000000000000000 DB 00H, 00H, 00H, 00H, 00H, 00H, 00H
	DB	00H, 00H, 00H, 00H, 00H, 00H, 00H, 0f0H, 'A'
CONST	ENDS
;	COMDAT __real@c59c4000
CONST	SEGMENT
__real@c59c4000 DD 0c59c4000r			; -5000
CONST	ENDS
;	COMDAT __real@c2c80000
CONST	SEGMENT
__real@c2c80000 DD 0c2c80000r			; -100
CONST	ENDS
;	COMDAT __real@c0490fd9
CONST	SEGMENT
__real@c0490fd9 DD 0c0490fd9r			; -3.14159
CONST	ENDS
;	COMDAT __real@bff921fb54442d18
CONST	SEGMENT
__real@bff921fb54442d18 DQ 0bff921fb54442d18r	; -1.5708
CONST	ENDS
;	COMDAT __real@bf800000
CONST	SEGMENT
__real@bf800000 DD 0bf800000r			; -1
CONST	ENDS
;	COMDAT __real@bd56774e
CONST	SEGMENT
__real@bd56774e DD 0bd56774er			; -0.0523599
CONST	ENDS
;	COMDAT __real@8000000000000000
CONST	SEGMENT
__real@8000000000000000 DQ 08000000000000000r	; -0
CONST	ENDS
;	COMDAT __real@4cbebc20
CONST	SEGMENT
__real@4cbebc20 DD 04cbebc20r			; 1e+008
CONST	ENDS
;	COMDAT __real@4bbebc20
CONST	SEGMENT
__real@4bbebc20 DD 04bbebc20r			; 2.5e+007
CONST	ENDS
;	COMDAT __real@48742400
CONST	SEGMENT
__real@48742400 DD 048742400r			; 250000
CONST	ENDS
;	COMDAT __real@45bde1b0
CONST	SEGMENT
__real@45bde1b0 DD 045bde1b0r			; 6076.21
CONST	ENDS
;	COMDAT __real@447a0000
CONST	SEGMENT
__real@447a0000 DD 0447a0000r			; 1000
CONST	ENDS
;	COMDAT __real@43fa0000
CONST	SEGMENT
__real@43fa0000 DD 043fa0000r			; 500
CONST	ENDS
;	COMDAT __real@437d2ce8
CONST	SEGMENT
__real@437d2ce8 DD 0437d2ce8r			; 253.175
CONST	ENDS
;	COMDAT __real@43480000
CONST	SEGMENT
__real@43480000 DD 043480000r			; 200
CONST	ENDS
;	COMDAT __real@42a8c89a
CONST	SEGMENT
__real@42a8c89a DD 042a8c89ar			; 84.3918
CONST	ENDS
;	COMDAT __real@42652ee1
CONST	SEGMENT
__real@42652ee1 DD 042652ee1r			; 57.2958
CONST	ENDS
;	COMDAT __real@42200000
CONST	SEGMENT
__real@42200000 DD 042200000r			; 40
CONST	ENDS
;	COMDAT __real@40c90fd9
CONST	SEGMENT
__real@40c90fd9 DD 040c90fd9r			; 6.28318
CONST	ENDS
;	COMDAT __real@40490fd9
CONST	SEGMENT
__real@40490fd9 DD 040490fd9r			; 3.14159
CONST	ENDS
;	COMDAT __real@400921fb54442d18
CONST	SEGMENT
__real@400921fb54442d18 DQ 0400921fb54442d18r	; 3.14159
CONST	ENDS
;	COMDAT __real@40000000
CONST	SEGMENT
__real@40000000 DD 040000000r			; 2
CONST	ENDS
;	COMDAT __real@3ff921fb54442d18
CONST	SEGMENT
__real@3ff921fb54442d18 DQ 03ff921fb54442d18r	; 1.5708
CONST	ENDS
;	COMDAT __real@3fc00000
CONST	SEGMENT
__real@3fc00000 DD 03fc00000r			; 1.5
CONST	ENDS
;	COMDAT __real@3fa66666
CONST	SEGMENT
__real@3fa66666 DD 03fa66666r			; 1.3
CONST	ENDS
;	COMDAT __real@3fa00000
CONST	SEGMENT
__real@3fa00000 DD 03fa00000r			; 1.25
CONST	ENDS
;	COMDAT __real@3f800000
CONST	SEGMENT
__real@3f800000 DD 03f800000r			; 1
CONST	ENDS
;	COMDAT __real@3f4ccccd
CONST	SEGMENT
__real@3f4ccccd DD 03f4ccccdr			; 0.8
CONST	ENDS
;	COMDAT __real@3f17ac60
CONST	SEGMENT
__real@3f17ac60 DD 03f17ac60r			; 0.592474
CONST	ENDS
;	COMDAT __real@3e800000
CONST	SEGMENT
__real@3e800000 DD 03e800000r			; 0.25
CONST	ENDS
;	COMDAT __real@3e32b8c1
CONST	SEGMENT
__real@3e32b8c1 DD 03e32b8c1r			; 0.174533
CONST	ENDS
;	COMDAT __real@3d56774e
CONST	SEGMENT
__real@3d56774e DD 03d56774er			; 0.0523599
CONST	ENDS
;	COMDAT __real@3d4ccccd
CONST	SEGMENT
__real@3d4ccccd DD 03d4ccccdr			; 0.05
CONST	ENDS
;	COMDAT __real@392c987a
CONST	SEGMENT
__real@392c987a DD 0392c987ar			; 0.0001646
CONST	ENDS
;	COMDAT __real@0000000000000000
CONST	SEGMENT
__real@0000000000000000 DQ 00000000000000000r	; 0
CONST	ENDS
;	COMDAT __real@00000000
CONST	SEGMENT
__real@00000000 DD 000000000r			; 0
CONST	ENDS
;	COMDAT ??_R1A@?0A@EA@_System_error_category@std@@8
rdata$r	SEGMENT
??_R1A@?0A@EA@_System_error_category@std@@8 DD FLAT:??_R0?AV_System_error_category@std@@@8 ; std::_System_error_category::`RTTI Base Class Descriptor at (0,-1,0,64)'
	DD	02H
	DD	00H
	DD	0ffffffffH
	DD	00H
	DD	040H
	DD	FLAT:??_R3_System_error_category@std@@8
rdata$r	ENDS
;	COMDAT ??_R2_System_error_category@std@@8
rdata$r	SEGMENT
??_R2_System_error_category@std@@8 DD FLAT:??_R1A@?0A@EA@_System_error_category@std@@8 ; std::_System_error_category::`RTTI Base Class Array'
	DD	FLAT:??_R1A@?0A@EA@_Generic_error_category@std@@8
	DD	FLAT:??_R1A@?0A@EA@error_category@std@@8
rdata$r	ENDS
;	COMDAT ??_R3_System_error_category@std@@8
rdata$r	SEGMENT
??_R3_System_error_category@std@@8 DD 00H		; std::_System_error_category::`RTTI Class Hierarchy Descriptor'
	DD	00H
	DD	03H
	DD	FLAT:??_R2_System_error_category@std@@8
rdata$r	ENDS
;	COMDAT ??_R0?AV_System_error_category@std@@@8
_DATA	SEGMENT
??_R0?AV_System_error_category@std@@@8 DD FLAT:??_7type_info@@6B@ ; std::_System_error_category `RTTI Type Descriptor'
	DD	00H
	DB	'.?AV_System_error_category@std@@', 00H
_DATA	ENDS
;	COMDAT ??_R4_System_error_category@std@@6B@
rdata$r	SEGMENT
??_R4_System_error_category@std@@6B@ DD 00H		; std::_System_error_category::`RTTI Complete Object Locator'
	DD	00H
	DD	00H
	DD	FLAT:??_R0?AV_System_error_category@std@@@8
	DD	FLAT:??_R3_System_error_category@std@@8
rdata$r	ENDS
;	COMDAT ??_R1A@?0A@EA@_Iostream_error_category@std@@8
rdata$r	SEGMENT
??_R1A@?0A@EA@_Iostream_error_category@std@@8 DD FLAT:??_R0?AV_Iostream_error_category@std@@@8 ; std::_Iostream_error_category::`RTTI Base Class Descriptor at (0,-1,0,64)'
	DD	02H
	DD	00H
	DD	0ffffffffH
	DD	00H
	DD	040H
	DD	FLAT:??_R3_Iostream_error_category@std@@8
rdata$r	ENDS
;	COMDAT ??_R2_Iostream_error_category@std@@8
rdata$r	SEGMENT
??_R2_Iostream_error_category@std@@8 DD FLAT:??_R1A@?0A@EA@_Iostream_error_category@std@@8 ; std::_Iostream_error_category::`RTTI Base Class Array'
	DD	FLAT:??_R1A@?0A@EA@_Generic_error_category@std@@8
	DD	FLAT:??_R1A@?0A@EA@error_category@std@@8
rdata$r	ENDS
;	COMDAT ??_R3_Iostream_error_category@std@@8
rdata$r	SEGMENT
??_R3_Iostream_error_category@std@@8 DD 00H		; std::_Iostream_error_category::`RTTI Class Hierarchy Descriptor'
	DD	00H
	DD	03H
	DD	FLAT:??_R2_Iostream_error_category@std@@8
rdata$r	ENDS
;	COMDAT ??_R0?AV_Iostream_error_category@std@@@8
_DATA	SEGMENT
??_R0?AV_Iostream_error_category@std@@@8 DD FLAT:??_7type_info@@6B@ ; std::_Iostream_error_category `RTTI Type Descriptor'
	DD	00H
	DB	'.?AV_Iostream_error_category@std@@', 00H
_DATA	ENDS
;	COMDAT ??_R4_Iostream_error_category@std@@6B@
rdata$r	SEGMENT
??_R4_Iostream_error_category@std@@6B@ DD 00H		; std::_Iostream_error_category::`RTTI Complete Object Locator'
	DD	00H
	DD	00H
	DD	FLAT:??_R0?AV_Iostream_error_category@std@@@8
	DD	FLAT:??_R3_Iostream_error_category@std@@8
rdata$r	ENDS
;	COMDAT ??_R1A@?0A@EA@_Generic_error_category@std@@8
rdata$r	SEGMENT
??_R1A@?0A@EA@_Generic_error_category@std@@8 DD FLAT:??_R0?AV_Generic_error_category@std@@@8 ; std::_Generic_error_category::`RTTI Base Class Descriptor at (0,-1,0,64)'
	DD	01H
	DD	00H
	DD	0ffffffffH
	DD	00H
	DD	040H
	DD	FLAT:??_R3_Generic_error_category@std@@8
rdata$r	ENDS
;	COMDAT ??_R2_Generic_error_category@std@@8
rdata$r	SEGMENT
??_R2_Generic_error_category@std@@8 DD FLAT:??_R1A@?0A@EA@_Generic_error_category@std@@8 ; std::_Generic_error_category::`RTTI Base Class Array'
	DD	FLAT:??_R1A@?0A@EA@error_category@std@@8
rdata$r	ENDS
;	COMDAT ??_R3_Generic_error_category@std@@8
rdata$r	SEGMENT
??_R3_Generic_error_category@std@@8 DD 00H		; std::_Generic_error_category::`RTTI Class Hierarchy Descriptor'
	DD	00H
	DD	02H
	DD	FLAT:??_R2_Generic_error_category@std@@8
rdata$r	ENDS
;	COMDAT ??_R0?AV_Generic_error_category@std@@@8
_DATA	SEGMENT
??_R0?AV_Generic_error_category@std@@@8 DD FLAT:??_7type_info@@6B@ ; std::_Generic_error_category `RTTI Type Descriptor'
	DD	00H
	DB	'.?AV_Generic_error_category@std@@', 00H
_DATA	ENDS
;	COMDAT ??_R4_Generic_error_category@std@@6B@
rdata$r	SEGMENT
??_R4_Generic_error_category@std@@6B@ DD 00H		; std::_Generic_error_category::`RTTI Complete Object Locator'
	DD	00H
	DD	00H
	DD	FLAT:??_R0?AV_Generic_error_category@std@@@8
	DD	FLAT:??_R3_Generic_error_category@std@@8
rdata$r	ENDS
;	COMDAT ??_R1A@?0A@EA@error_category@std@@8
rdata$r	SEGMENT
??_R1A@?0A@EA@error_category@std@@8 DD FLAT:??_R0?AVerror_category@std@@@8 ; std::error_category::`RTTI Base Class Descriptor at (0,-1,0,64)'
	DD	00H
	DD	00H
	DD	0ffffffffH
	DD	00H
	DD	040H
	DD	FLAT:??_R3error_category@std@@8
rdata$r	ENDS
;	COMDAT ??_R2error_category@std@@8
rdata$r	SEGMENT
??_R2error_category@std@@8 DD FLAT:??_R1A@?0A@EA@error_category@std@@8 ; std::error_category::`RTTI Base Class Array'
rdata$r	ENDS
;	COMDAT ??_R3error_category@std@@8
rdata$r	SEGMENT
??_R3error_category@std@@8 DD 00H			; std::error_category::`RTTI Class Hierarchy Descriptor'
	DD	00H
	DD	01H
	DD	FLAT:??_R2error_category@std@@8
rdata$r	ENDS
;	COMDAT ??_R0?AVerror_category@std@@@8
_DATA	SEGMENT
??_R0?AVerror_category@std@@@8 DD FLAT:??_7type_info@@6B@ ; std::error_category `RTTI Type Descriptor'
	DD	00H
	DB	'.?AVerror_category@std@@', 00H
_DATA	ENDS
;	COMDAT ??_R4error_category@std@@6B@
rdata$r	SEGMENT
??_R4error_category@std@@6B@ DD 00H			; std::error_category::`RTTI Complete Object Locator'
	DD	00H
	DD	00H
	DD	FLAT:??_R0?AVerror_category@std@@@8
	DD	FLAT:??_R3error_category@std@@8
rdata$r	ENDS
;	COMDAT ??_C@_0BA@JFNIOLAK@string?5too?5long?$AA@
CONST	SEGMENT
??_C@_0BA@JFNIOLAK@string?5too?5long?$AA@ DB 'string too long', 00H ; `string'
CONST	ENDS
;	COMDAT ??_C@_0BI@CFPLBAOH@invalid?5string?5position?$AA@
CONST	SEGMENT
??_C@_0BI@CFPLBAOH@invalid?5string?5position?$AA@ DB 'invalid string posi'
	DB	'tion', 00H					; `string'
CONST	ENDS
;	COMDAT ??_C@_06FHFOAHML@system?$AA@
CONST	SEGMENT
??_C@_06FHFOAHML@system?$AA@ DB 'system', 00H		; `string'
CONST	ENDS
;	COMDAT ??_7_System_error_category@std@@6B@
CONST	SEGMENT
??_7_System_error_category@std@@6B@ DD FLAT:??_R4_System_error_category@std@@6B@ ; std::_System_error_category::`vftable'
	DD	FLAT:??_E_System_error_category@std@@UAEPAXI@Z
	DD	FLAT:?name@_System_error_category@std@@UBEPBDXZ
	DD	FLAT:?message@_System_error_category@std@@UBE?AV?$basic_string@DU?$char_traits@D@std@@V?$allocator@D@2@@2@H@Z
	DD	FLAT:?default_error_condition@_System_error_category@std@@UBE?AVerror_condition@2@H@Z
	DD	FLAT:?equivalent@error_category@std@@UBE_NABVerror_code@2@H@Z
	DD	FLAT:?equivalent@error_category@std@@UBE_NHABVerror_condition@2@@Z
CONST	ENDS
;	COMDAT ??_C@_0BG@PADBLCHM@iostream?5stream?5error?$AA@
CONST	SEGMENT
??_C@_0BG@PADBLCHM@iostream?5stream?5error?$AA@ DB 'iostream stream error'
	DB	00H						; `string'
CONST	ENDS
;	COMDAT ??_C@_08LLGCOLLL@iostream?$AA@
CONST	SEGMENT
??_C@_08LLGCOLLL@iostream?$AA@ DB 'iostream', 00H	; `string'
CONST	ENDS
;	COMDAT ??_7_Iostream_error_category@std@@6B@
CONST	SEGMENT
??_7_Iostream_error_category@std@@6B@ DD FLAT:??_R4_Iostream_error_category@std@@6B@ ; std::_Iostream_error_category::`vftable'
	DD	FLAT:??_E_Iostream_error_category@std@@UAEPAXI@Z
	DD	FLAT:?name@_Iostream_error_category@std@@UBEPBDXZ
	DD	FLAT:?message@_Iostream_error_category@std@@UBE?AV?$basic_string@DU?$char_traits@D@std@@V?$allocator@D@2@@2@H@Z
	DD	FLAT:?default_error_condition@error_category@std@@UBE?AVerror_condition@2@H@Z
	DD	FLAT:?equivalent@error_category@std@@UBE_NABVerror_code@2@H@Z
	DD	FLAT:?equivalent@error_category@std@@UBE_NHABVerror_condition@2@@Z
CONST	ENDS
;	COMDAT ??_C@_0O@BFJCFAAK@unknown?5error?$AA@
CONST	SEGMENT
??_C@_0O@BFJCFAAK@unknown?5error?$AA@ DB 'unknown error', 00H ; `string'
CONST	ENDS
;	COMDAT ??_C@_07DCLBNMLN@generic?$AA@
CONST	SEGMENT
??_C@_07DCLBNMLN@generic?$AA@ DB 'generic', 00H		; `string'
CONST	ENDS
;	COMDAT ??_7_Generic_error_category@std@@6B@
CONST	SEGMENT
??_7_Generic_error_category@std@@6B@ DD FLAT:??_R4_Generic_error_category@std@@6B@ ; std::_Generic_error_category::`vftable'
	DD	FLAT:??_E_Generic_error_category@std@@UAEPAXI@Z
	DD	FLAT:?name@_Generic_error_category@std@@UBEPBDXZ
	DD	FLAT:?message@_Generic_error_category@std@@UBE?AV?$basic_string@DU?$char_traits@D@std@@V?$allocator@D@2@@2@H@Z
	DD	FLAT:?default_error_condition@error_category@std@@UBE?AVerror_condition@2@H@Z
	DD	FLAT:?equivalent@error_category@std@@UBE_NABVerror_code@2@H@Z
	DD	FLAT:?equivalent@error_category@std@@UBE_NHABVerror_condition@2@@Z
CONST	ENDS
;	COMDAT ??_7error_category@std@@6B@
CONST	SEGMENT
??_7error_category@std@@6B@ DD FLAT:??_R4error_category@std@@6B@ ; std::error_category::`vftable'
	DD	FLAT:??_Eerror_category@std@@UAEPAXI@Z
	DD	FLAT:__purecall
	DD	FLAT:__purecall
	DD	FLAT:?default_error_condition@error_category@std@@UBE?AVerror_condition@2@H@Z
	DD	FLAT:?equivalent@error_category@std@@UBE_NABVerror_code@2@H@Z
	DD	FLAT:?equivalent@error_category@std@@UBE_NHABVerror_condition@2@@Z
CONST	ENDS
;	COMDAT xdata$x
xdata$x	SEGMENT
__unwindtable$??$construct@PADAAPAD@?$allocator@D@std@@QAEXPAPADAAPAD@Z DD 0ffffffffH
	DD	FLAT:__unwindfunclet$??$construct@PADAAPAD@?$allocator@D@std@@QAEXPAPADAAPAD@Z$0
__ehfuncinfo$??$construct@PADAAPAD@?$allocator@D@std@@QAEXPAPADAAPAD@Z DD 019930522H
	DD	01H
	DD	FLAT:__unwindtable$??$construct@PADAAPAD@?$allocator@D@std@@QAEXPAPADAAPAD@Z
	DD	2 DUP(00H)
	DD	2 DUP(00H)
	DD	00H
	DD	01H
xdata$x	ENDS
xdata$x	SEGMENT
__unwindtable$?DoPickupAirdrop@DigitalBrain@@IAEXXZ DD 0ffffffffH
	DD	FLAT:__unwindfunclet$?DoPickupAirdrop@DigitalBrain@@IAEXXZ$0
	DD	0ffffffffH
	DD	FLAT:__unwindfunclet$?DoPickupAirdrop@DigitalBrain@@IAEXXZ$1
__unwindtable$?SelectNextWaypoint@DigitalBrain@@IAEXXZ DD 0ffffffffH
	DD	FLAT:__unwindfunclet$?SelectNextWaypoint@DigitalBrain@@IAEXXZ$0
	DD	0ffffffffH
	DD	FLAT:__unwindfunclet$?SelectNextWaypoint@DigitalBrain@@IAEXXZ$1
__unwindtable$?FollowWaypoints@DigitalBrain@@IAEXXZ DD 0ffffffffH
	DD	FLAT:__unwindfunclet$?FollowWaypoints@DigitalBrain@@IAEXXZ$0
	DD	0ffffffffH
	DD	FLAT:__unwindfunclet$?FollowWaypoints@DigitalBrain@@IAEXXZ$1
__unwindtable$?SetWaypointSpecificStuff@DigitalBrain@@IAEXXZ DD 0ffffffffH
	DD	FLAT:__unwindfunclet$?SetWaypointSpecificStuff@DigitalBrain@@IAEXXZ$0
	DD	0ffffffffH
	DD	FLAT:__unwindfunclet$?SetWaypointSpecificStuff@DigitalBrain@@IAEXXZ$1
	DD	0ffffffffH
	DD	FLAT:__unwindfunclet$?SetWaypointSpecificStuff@DigitalBrain@@IAEXXZ$2
__ehfuncinfo$?DoPickupAirdrop@DigitalBrain@@IAEXXZ DD 019930522H
	DD	02H
	DD	FLAT:__unwindtable$?DoPickupAirdrop@DigitalBrain@@IAEXXZ
	DD	2 DUP(00H)
	DD	2 DUP(00H)
	DD	00H
	DD	01H
__ehfuncinfo$?SetWaypointSpecificStuff@DigitalBrain@@IAEXXZ DD 019930522H
	DD	03H
	DD	FLAT:__unwindtable$?SetWaypointSpecificStuff@DigitalBrain@@IAEXXZ
	DD	2 DUP(00H)
	DD	2 DUP(00H)
	DD	00H
	DD	01H
__ehfuncinfo$?SelectNextWaypoint@DigitalBrain@@IAEXXZ DD 019930522H
	DD	02H
	DD	FLAT:__unwindtable$?SelectNextWaypoint@DigitalBrain@@IAEXXZ
	DD	2 DUP(00H)
	DD	2 DUP(00H)
	DD	00H
	DD	01H
__ehfuncinfo$?FollowWaypoints@DigitalBrain@@IAEXXZ DD 019930522H
	DD	02H
	DD	FLAT:__unwindtable$?FollowWaypoints@DigitalBrain@@IAEXXZ
	DD	2 DUP(00H)
	DD	2 DUP(00H)
	DD	00H
	DD	01H
xdata$x	ENDS
;	COMDAT xdata$x
xdata$x	SEGMENT
__catchsym$?_Copy@?$basic_string@DU?$char_traits@D@std@@V?$allocator@D@2@@std@@QAEXII@Z$5 DD 040H
	DD	00H
	DD	00H
	DD	FLAT:__catch$?_Copy@?$basic_string@DU?$char_traits@D@std@@V?$allocator@D@2@@std@@QAEXII@Z$0
__catchsym$?_Copy@?$basic_string@DU?$char_traits@D@std@@V?$allocator@D@2@@std@@QAEXII@Z$4 DD 040H
	DD	00H
	DD	00H
	DD	FLAT:__catch$?_Copy@?$basic_string@DU?$char_traits@D@std@@V?$allocator@D@2@@std@@QAEXII@Z$1
__unwindtable$?_Copy@?$basic_string@DU?$char_traits@D@std@@V?$allocator@D@2@@std@@QAEXII@Z DD 0ffffffffH
	DD	00H
	DD	0ffffffffH
	DD	00H
	DD	01H
	DD	00H
	DD	01H
	DD	00H
__ehfuncinfo$?_Copy@?$basic_string@DU?$char_traits@D@std@@V?$allocator@D@2@@std@@QAEXII@Z DD 019930522H
	DD	04H
	DD	FLAT:__unwindtable$?_Copy@?$basic_string@DU?$char_traits@D@std@@V?$allocator@D@2@@std@@QAEXII@Z
	DD	02H
	DD	FLAT:__tryblocktable$?_Copy@?$basic_string@DU?$char_traits@D@std@@V?$allocator@D@2@@std@@QAEXII@Z
	DD	2 DUP(00H)
	DD	00H
	DD	01H
__tryblocktable$?_Copy@?$basic_string@DU?$char_traits@D@std@@V?$allocator@D@2@@std@@QAEXII@Z DD 02H
	DD	02H
	DD	03H
	DD	01H
	DD	FLAT:__catchsym$?_Copy@?$basic_string@DU?$char_traits@D@std@@V?$allocator@D@2@@std@@QAEXII@Z$4
	DD	00H
	DD	00H
	DD	03H
	DD	01H
	DD	FLAT:__catchsym$?_Copy@?$basic_string@DU?$char_traits@D@std@@V?$allocator@D@2@@std@@QAEXII@Z$5
xdata$x	ENDS
CRT$XCU	SEGMENT
_allocator_arg$initializer$ DD FLAT:??__Eallocator_arg@std@@YAXXZ
CRT$XCU	ENDS
;	COMDAT CRT$XCU
CRT$XCU	SEGMENT
?_Generic_object$initializer$@?$_Error_objects@H@std@@2P6AXXZA DD FLAT:??__E?_Generic_object@?$_Error_objects@H@std@@2V_Generic_error_category@2@A@@YAXXZ ; std::_Error_objects<int>::_Generic_object$initializer$
CRT$XCU	ENDS
;	COMDAT CRT$XCU
CRT$XCU	SEGMENT
?_Iostream_object$initializer$@?$_Error_objects@H@std@@2P6AXXZA DD FLAT:??__E?_Iostream_object@?$_Error_objects@H@std@@2V_Iostream_error_category@2@A@@YAXXZ ; std::_Error_objects<int>::_Iostream_object$initializer$
CRT$XCU	ENDS
;	COMDAT CRT$XCU
CRT$XCU	SEGMENT
?_System_object$initializer$@?$_Error_objects@H@std@@2P6AXXZA DD FLAT:??__E?_System_object@?$_Error_objects@H@std@@2V_System_error_category@2@A@@YAXXZ ; std::_Error_objects<int>::_System_object$initializer$
CRT$XCU	ENDS
;	COMDAT CRT$XCU
CRT$XCU	SEGMENT
?id$initializer$@?$num_put@DV?$back_insert_iterator@V?$basic_string@DU?$char_traits@D@std@@V?$allocator@D@2@@std@@@std@@@std@@2P6AXXZA DD FLAT:??__E?id@?$num_put@DV?$back_insert_iterator@V?$basic_string@DU?$char_traits@D@std@@V?$allocator@D@2@@std@@@std@@@std@@2V0locale@2@A@@YAXXZ ; std::num_put<char,std::back_insert_iterator<std::basic_string<char,std::char_traits<char>,std::allocator<char> > > >::id$initializer$
CRT$XCU	ENDS
;	COMDAT CRT$XCU
CRT$XCU	SEGMENT
?id$initializer$@?$num_put@_WV?$back_insert_iterator@V?$basic_string@_WU?$char_traits@_W@std@@V?$allocator@_W@2@@std@@@std@@@std@@2P6AXXZA DD FLAT:??__E?id@?$num_put@_WV?$back_insert_iterator@V?$basic_string@_WU?$char_traits@_W@std@@V?$allocator@_W@2@@std@@@std@@@std@@2V0locale@2@A@@YAXXZ ; std::num_put<wchar_t,std::back_insert_iterator<std::basic_string<wchar_t,std::char_traits<wchar_t>,std::allocator<wchar_t> > > >::id$initializer$
CRT$XCU	ENDS
;	COMDAT CRT$XCU
CRT$XCU	SEGMENT
?id$initializer$@?$numpunct@D@std@@2P6AXXZA DD FLAT:??__E?id@?$numpunct@D@std@@2V0locale@2@A@@YAXXZ ; std::numpunct<char>::id$initializer$
CRT$XCU	ENDS
;	COMDAT CRT$XCU
CRT$XCU	SEGMENT
?id$initializer$@?$numpunct@_W@std@@2P6AXXZA DD FLAT:??__E?id@?$numpunct@_W@std@@2V0locale@2@A@@YAXXZ ; std::numpunct<wchar_t>::id$initializer$
CRT$XCU	ENDS
; Function compile flags: /Odtp
; File c:\program files (x86)\microsoft visual studio 11.0\vc\include\xmemory0
;	COMDAT ??$destroy@PAD@?$allocator@D@std@@QAEXPAPAD@Z
_TEXT	SEGMENT
_this$ = -4						; size = 4
__Ptr$ = 8						; size = 4
??$destroy@PAD@?$allocator@D@std@@QAEXPAPAD@Z PROC	; std::allocator<char>::destroy<char *>, COMDAT
; _this$ = ecx

; 621  : 		void destroy(_Uty *_Ptr)

	push	ebp
	mov	ebp, esp
	push	ecx
	mov	DWORD PTR _this$[ebp], ecx

; 622  : 		{	// destroy object at _Ptr
; 623  : 		_Ptr->~_Uty();
; 624  : 		}

	mov	esp, ebp
	pop	ebp
	ret	4
??$destroy@PAD@?$allocator@D@std@@QAEXPAPAD@Z ENDP	; std::allocator<char>::destroy<char *>
_TEXT	ENDS
; Function compile flags: /Odtp
; File c:\program files (x86)\microsoft visual studio 11.0\vc\include\xmemory0
;	COMDAT ??$construct@PADAAPAD@?$allocator@D@std@@QAEXPAPADAAPAD@Z
_TEXT	SEGMENT
$T2 = -28						; size = 4
_this$ = -24						; size = 4
tv73 = -20						; size = 4
$T3 = -16						; size = 4
__$EHRec$ = -12						; size = 12
__Ptr$ = 8						; size = 4
__V0$ = 12						; size = 4
??$construct@PADAAPAD@?$allocator@D@std@@QAEXPAPADAAPAD@Z PROC ; std::allocator<char>::construct<char *,char * &>, COMDAT
; _this$ = ecx

; 617  : _VARIADIC_EXPAND_0X(_ALLOC_MEMBER_CONSTRUCT, , , , )

	push	ebp
	mov	ebp, esp
	push	-1
	push	__ehhandler$??$construct@PADAAPAD@?$allocator@D@std@@QAEXPAPADAAPAD@Z
	mov	eax, DWORD PTR fs:0
	push	eax
	sub	esp, 16					; 00000010H
	mov	eax, DWORD PTR ___security_cookie
	xor	eax, ebp
	push	eax
	lea	eax, DWORD PTR __$EHRec$[ebp]
	mov	DWORD PTR fs:0, eax
	mov	DWORD PTR _this$[ebp], ecx
	mov	eax, DWORD PTR __Ptr$[ebp]
	push	eax
	push	4
	call	??2@YAPAXIPAX@Z				; operator new
	add	esp, 8
	mov	DWORD PTR $T3[ebp], eax
	mov	DWORD PTR __$EHRec$[ebp+8], 0
	cmp	DWORD PTR $T3[ebp], 0
	je	SHORT $LN3@construct
	mov	ecx, DWORD PTR __V0$[ebp]
	push	ecx
	call	??$forward@AAPAD@std@@YAAAPADAAPAD@Z	; std::forward<char * &>
	add	esp, 4
	mov	edx, DWORD PTR $T3[ebp]
	mov	eax, DWORD PTR [eax]
	mov	DWORD PTR [edx], eax
	mov	ecx, DWORD PTR $T3[ebp]
	mov	DWORD PTR tv73[ebp], ecx
	jmp	SHORT $LN4@construct
$LN3@construct:
	mov	DWORD PTR tv73[ebp], 0
$LN4@construct:
	mov	edx, DWORD PTR tv73[ebp]
	mov	DWORD PTR $T2[ebp], edx
	mov	DWORD PTR __$EHRec$[ebp+8], -1
	mov	ecx, DWORD PTR __$EHRec$[ebp]
	mov	DWORD PTR fs:0, ecx
	pop	ecx
	mov	esp, ebp
	pop	ebp
	ret	8
_TEXT	ENDS
;	COMDAT text$x
text$x	SEGMENT
__unwindfunclet$??$construct@PADAAPAD@?$allocator@D@std@@QAEXPAPADAAPAD@Z$0:
	mov	eax, DWORD PTR __Ptr$[ebp]
	push	eax
	mov	eax, DWORD PTR $T3[ebp]
	push	eax
	call	??3@YAXPAX0@Z				; operator delete
	add	esp, 8
	ret	0
__ehhandler$??$construct@PADAAPAD@?$allocator@D@std@@QAEXPAPADAAPAD@Z:
	mov	edx, DWORD PTR [esp+8]
	lea	eax, DWORD PTR [edx+12]
	mov	ecx, DWORD PTR [edx-20]
	xor	ecx, eax
	call	@__security_check_cookie@4
	mov	eax, OFFSET __ehfuncinfo$??$construct@PADAAPAD@?$allocator@D@std@@QAEXPAPADAAPAD@Z
	jmp	___CxxFrameHandler3
text$x	ENDS
??$construct@PADAAPAD@?$allocator@D@std@@QAEXPAPADAAPAD@Z ENDP ; std::allocator<char>::construct<char *,char * &>
; Function compile flags: /Odtp
; File c:\program files (x86)\microsoft visual studio 11.0\vc\include\xlocnum
;	COMDAT ??__E?id@?$numpunct@_W@std@@2V0locale@2@A@@YAXXZ
text$yc	SEGMENT
??__E?id@?$numpunct@_W@std@@2V0locale@2@A@@YAXXZ PROC	; `dynamic initializer for 'std::numpunct<wchar_t>::id'', COMDAT

; 155  : 		void _Getvals(wchar_t, const lconv *_Ptr, _Locinfo::_Cvtvec)

	push	ebp
	mov	ebp, esp
	push	0
	mov	ecx, OFFSET ?id@?$numpunct@_W@std@@2V0locale@2@A ; std::numpunct<wchar_t>::id
	call	??0id@locale@std@@QAE@I@Z		; std::locale::id::id
	pop	ebp
	ret	0
??__E?id@?$numpunct@_W@std@@2V0locale@2@A@@YAXXZ ENDP	; `dynamic initializer for 'std::numpunct<wchar_t>::id''
text$yc	ENDS
; Function compile flags: /Odtp
; File c:\program files (x86)\microsoft visual studio 11.0\vc\include\xlocnum
;	COMDAT ??__E?id@?$numpunct@D@std@@2V0locale@2@A@@YAXXZ
text$yc	SEGMENT
??__E?id@?$numpunct@D@std@@2V0locale@2@A@@YAXXZ PROC	; `dynamic initializer for 'std::numpunct<char>::id'', COMDAT

; 155  : 		void _Getvals(wchar_t, const lconv *_Ptr, _Locinfo::_Cvtvec)

	push	ebp
	mov	ebp, esp
	push	0
	mov	ecx, OFFSET ?id@?$numpunct@D@std@@2V0locale@2@A ; std::numpunct<char>::id
	call	??0id@locale@std@@QAE@I@Z		; std::locale::id::id
	pop	ebp
	ret	0
??__E?id@?$numpunct@D@std@@2V0locale@2@A@@YAXXZ ENDP	; `dynamic initializer for 'std::numpunct<char>::id''
text$yc	ENDS
; Function compile flags: /Odtp
; File c:\program files (x86)\microsoft visual studio 11.0\vc\include\xlocnum
;	COMDAT ??__E?id@?$num_put@_WV?$back_insert_iterator@V?$basic_string@_WU?$char_traits@_W@std@@V?$allocator@_W@2@@std@@@std@@@std@@2V0locale@2@A@@YAXXZ
text$yc	SEGMENT
??__E?id@?$num_put@_WV?$back_insert_iterator@V?$basic_string@_WU?$char_traits@_W@std@@V?$allocator@_W@2@@std@@@std@@@std@@2V0locale@2@A@@YAXXZ PROC ; `dynamic initializer for 'std::num_put<wchar_t,std::back_insert_iterator<std::basic_string<wchar_t,std::char_traits<wchar_t>,std::allocator<wchar_t> > > >::id'', COMDAT

; 155  : 		void _Getvals(wchar_t, const lconv *_Ptr, _Locinfo::_Cvtvec)

	push	ebp
	mov	ebp, esp
	push	0
	mov	ecx, OFFSET ?id@?$num_put@_WV?$back_insert_iterator@V?$basic_string@_WU?$char_traits@_W@std@@V?$allocator@_W@2@@std@@@std@@@std@@2V0locale@2@A ; std::num_put<wchar_t,std::back_insert_iterator<std::basic_string<wchar_t,std::char_traits<wchar_t>,std::allocator<wchar_t> > > >::id
	call	??0id@locale@std@@QAE@I@Z		; std::locale::id::id
	pop	ebp
	ret	0
??__E?id@?$num_put@_WV?$back_insert_iterator@V?$basic_string@_WU?$char_traits@_W@std@@V?$allocator@_W@2@@std@@@std@@@std@@2V0locale@2@A@@YAXXZ ENDP ; `dynamic initializer for 'std::num_put<wchar_t,std::back_insert_iterator<std::basic_string<wchar_t,std::char_traits<wchar_t>,std::allocator<wchar_t> > > >::id''
text$yc	ENDS
; Function compile flags: /Odtp
; File c:\program files (x86)\microsoft visual studio 11.0\vc\include\xlocnum
;	COMDAT ??__E?id@?$num_put@DV?$back_insert_iterator@V?$basic_string@DU?$char_traits@D@std@@V?$allocator@D@2@@std@@@std@@@std@@2V0locale@2@A@@YAXXZ
text$yc	SEGMENT
??__E?id@?$num_put@DV?$back_insert_iterator@V?$basic_string@DU?$char_traits@D@std@@V?$allocator@D@2@@std@@@std@@@std@@2V0locale@2@A@@YAXXZ PROC ; `dynamic initializer for 'std::num_put<char,std::back_insert_iterator<std::basic_string<char,std::char_traits<char>,std::allocator<char> > > >::id'', COMDAT

; 155  : 		void _Getvals(wchar_t, const lconv *_Ptr, _Locinfo::_Cvtvec)

	push	ebp
	mov	ebp, esp
	push	0
	mov	ecx, OFFSET ?id@?$num_put@DV?$back_insert_iterator@V?$basic_string@DU?$char_traits@D@std@@V?$allocator@D@2@@std@@@std@@@std@@2V0locale@2@A ; std::num_put<char,std::back_insert_iterator<std::basic_string<char,std::char_traits<char>,std::allocator<char> > > >::id
	call	??0id@locale@std@@QAE@I@Z		; std::locale::id::id
	pop	ebp
	ret	0
??__E?id@?$num_put@DV?$back_insert_iterator@V?$basic_string@DU?$char_traits@D@std@@V?$allocator@D@2@@std@@@std@@@std@@2V0locale@2@A@@YAXXZ ENDP ; `dynamic initializer for 'std::num_put<char,std::back_insert_iterator<std::basic_string<char,std::char_traits<char>,std::allocator<char> > > >::id''
text$yc	ENDS
; Function compile flags: /Odtp
; File c:\program files (x86)\microsoft visual studio 11.0\vc\include\xmemory0
;	COMDAT ??$destroy@PAD@?$allocator_traits@V?$allocator@D@std@@@std@@SAXAAV?$allocator@D@1@PAPAD@Z
_TEXT	SEGMENT
__Al$ = 8						; size = 4
__Ptr$ = 12						; size = 4
??$destroy@PAD@?$allocator_traits@V?$allocator@D@std@@@std@@SAXAAV?$allocator@D@1@PAPAD@Z PROC ; std::allocator_traits<std::allocator<char> >::destroy<char *>, COMDAT

; 755  : 		static void destroy(_Alloc& _Al, _Uty *_Ptr)

	push	ebp
	mov	ebp, esp

; 756  : 		{	// destroy object at _Ptr
; 757  : 		_Al.destroy(_Ptr);

	mov	eax, DWORD PTR __Ptr$[ebp]
	push	eax
	mov	ecx, DWORD PTR __Al$[ebp]
	call	??$destroy@PAD@?$allocator@D@std@@QAEXPAPAD@Z ; std::allocator<char>::destroy<char *>

; 758  : 		}

	pop	ebp
	ret	0
??$destroy@PAD@?$allocator_traits@V?$allocator@D@std@@@std@@SAXAAV?$allocator@D@1@PAPAD@Z ENDP ; std::allocator_traits<std::allocator<char> >::destroy<char *>
_TEXT	ENDS
; Function compile flags: /Odtp
; File c:\program files (x86)\microsoft visual studio 11.0\vc\include\xmemory0
;	COMDAT ??$construct@PADAAPAD@?$allocator_traits@V?$allocator@D@std@@@std@@SAXAAV?$allocator@D@1@PAPADAAPAD@Z
_TEXT	SEGMENT
__Al$ = 8						; size = 4
__Ptr$ = 12						; size = 4
__V0$ = 16						; size = 4
??$construct@PADAAPAD@?$allocator_traits@V?$allocator@D@std@@@std@@SAXAAV?$allocator@D@1@PAPADAAPAD@Z PROC ; std::allocator_traits<std::allocator<char> >::construct<char *,char * &>, COMDAT

; 751  : _VARIADIC_EXPAND_0X(_ALLOC_TRAITS_SPECIAL_CONSTRUCT, , , , )

	push	ebp
	mov	ebp, esp
	mov	eax, DWORD PTR __V0$[ebp]
	push	eax
	call	??$forward@AAPAD@std@@YAAAPADAAPAD@Z	; std::forward<char * &>
	add	esp, 4
	push	eax
	mov	ecx, DWORD PTR __Ptr$[ebp]
	push	ecx
	mov	ecx, DWORD PTR __Al$[ebp]
	call	??$construct@PADAAPAD@?$allocator@D@std@@QAEXPAPADAAPAD@Z ; std::allocator<char>::construct<char *,char * &>
	pop	ebp
	ret	0
??$construct@PADAAPAD@?$allocator_traits@V?$allocator@D@std@@@std@@SAXAAV?$allocator@D@1@PAPADAAPAD@Z ENDP ; std::allocator_traits<std::allocator<char> >::construct<char *,char * &>
_TEXT	ENDS
; Function compile flags: /Odtp
; File c:\program files (x86)\microsoft visual studio 11.0\vc\include\type_traits
;	COMDAT ??$forward@AAPAD@std@@YAAAPADAAPAD@Z
_TEXT	SEGMENT
__Arg$ = 8						; size = 4
??$forward@AAPAD@std@@YAAAPADAAPAD@Z PROC		; std::forward<char * &>, COMDAT

; 1775 : 	{	// forward an lvalue

	push	ebp
	mov	ebp, esp

; 1776 : 	return (static_cast<_Ty&&>(_Arg));

	mov	eax, DWORD PTR __Arg$[ebp]

; 1777 : 	}

	pop	ebp
	ret	0
??$forward@AAPAD@std@@YAAAPADAAPAD@Z ENDP		; std::forward<char * &>
_TEXT	ENDS
; Function compile flags: /Odtp
;	COMDAT ??__F?_System_object@?$_Error_objects@H@std@@2V_System_error_category@2@A@@YAXXZ
text$yd	SEGMENT
??__F?_System_object@?$_Error_objects@H@std@@2V_System_error_category@2@A@@YAXXZ PROC ; `dynamic atexit destructor for 'std::_Error_objects<int>::_System_object'', COMDAT
	push	ebp
	mov	ebp, esp
	mov	ecx, OFFSET ?_System_object@?$_Error_objects@H@std@@2V_System_error_category@2@A ; std::_Error_objects<int>::_System_object
	call	??1_System_error_category@std@@UAE@XZ
	pop	ebp
	ret	0
??__F?_System_object@?$_Error_objects@H@std@@2V_System_error_category@2@A@@YAXXZ ENDP ; `dynamic atexit destructor for 'std::_Error_objects<int>::_System_object''
text$yd	ENDS
; Function compile flags: /Odtp
; File c:\program files (x86)\microsoft visual studio 11.0\vc\include\xmemory0
;	COMDAT ??__E?_System_object@?$_Error_objects@H@std@@2V_System_error_category@2@A@@YAXXZ
text$yc	SEGMENT
??__E?_System_object@?$_Error_objects@H@std@@2V_System_error_category@2@A@@YAXXZ PROC ; `dynamic initializer for 'std::_Error_objects<int>::_System_object'', COMDAT

; 627  : 		{	// estimate maximum array size

	push	ebp
	mov	ebp, esp
	mov	ecx, OFFSET ?_System_object@?$_Error_objects@H@std@@2V_System_error_category@2@A ; std::_Error_objects<int>::_System_object
	call	??0_System_error_category@std@@QAE@XZ	; std::_System_error_category::_System_error_category
	push	OFFSET ??__F?_System_object@?$_Error_objects@H@std@@2V_System_error_category@2@A@@YAXXZ ; `dynamic atexit destructor for 'std::_Error_objects<int>::_System_object''
	call	_atexit
	add	esp, 4
	pop	ebp
	ret	0
??__E?_System_object@?$_Error_objects@H@std@@2V_System_error_category@2@A@@YAXXZ ENDP ; `dynamic initializer for 'std::_Error_objects<int>::_System_object''
text$yc	ENDS
; Function compile flags: /Odtp
;	COMDAT ??__F?_Iostream_object@?$_Error_objects@H@std@@2V_Iostream_error_category@2@A@@YAXXZ
text$yd	SEGMENT
??__F?_Iostream_object@?$_Error_objects@H@std@@2V_Iostream_error_category@2@A@@YAXXZ PROC ; `dynamic atexit destructor for 'std::_Error_objects<int>::_Iostream_object'', COMDAT
	push	ebp
	mov	ebp, esp
	mov	ecx, OFFSET ?_Iostream_object@?$_Error_objects@H@std@@2V_Iostream_error_category@2@A ; std::_Error_objects<int>::_Iostream_object
	call	??1_Iostream_error_category@std@@UAE@XZ
	pop	ebp
	ret	0
??__F?_Iostream_object@?$_Error_objects@H@std@@2V_Iostream_error_category@2@A@@YAXXZ ENDP ; `dynamic atexit destructor for 'std::_Error_objects<int>::_Iostream_object''
text$yd	ENDS
; Function compile flags: /Odtp
; File c:\program files (x86)\microsoft visual studio 11.0\vc\include\xmemory0
;	COMDAT ??__E?_Iostream_object@?$_Error_objects@H@std@@2V_Iostream_error_category@2@A@@YAXXZ
text$yc	SEGMENT
??__E?_Iostream_object@?$_Error_objects@H@std@@2V_Iostream_error_category@2@A@@YAXXZ PROC ; `dynamic initializer for 'std::_Error_objects<int>::_Iostream_object'', COMDAT

; 627  : 		{	// estimate maximum array size

	push	ebp
	mov	ebp, esp
	mov	ecx, OFFSET ?_Iostream_object@?$_Error_objects@H@std@@2V_Iostream_error_category@2@A ; std::_Error_objects<int>::_Iostream_object
	call	??0_Iostream_error_category@std@@QAE@XZ	; std::_Iostream_error_category::_Iostream_error_category
	push	OFFSET ??__F?_Iostream_object@?$_Error_objects@H@std@@2V_Iostream_error_category@2@A@@YAXXZ ; `dynamic atexit destructor for 'std::_Error_objects<int>::_Iostream_object''
	call	_atexit
	add	esp, 4
	pop	ebp
	ret	0
??__E?_Iostream_object@?$_Error_objects@H@std@@2V_Iostream_error_category@2@A@@YAXXZ ENDP ; `dynamic initializer for 'std::_Error_objects<int>::_Iostream_object''
text$yc	ENDS
; Function compile flags: /Odtp
;	COMDAT ??__F?_Generic_object@?$_Error_objects@H@std@@2V_Generic_error_category@2@A@@YAXXZ
text$yd	SEGMENT
??__F?_Generic_object@?$_Error_objects@H@std@@2V_Generic_error_category@2@A@@YAXXZ PROC ; `dynamic atexit destructor for 'std::_Error_objects<int>::_Generic_object'', COMDAT
	push	ebp
	mov	ebp, esp
	mov	ecx, OFFSET ?_Generic_object@?$_Error_objects@H@std@@2V_Generic_error_category@2@A ; std::_Error_objects<int>::_Generic_object
	call	??1_Generic_error_category@std@@UAE@XZ
	pop	ebp
	ret	0
??__F?_Generic_object@?$_Error_objects@H@std@@2V_Generic_error_category@2@A@@YAXXZ ENDP ; `dynamic atexit destructor for 'std::_Error_objects<int>::_Generic_object''
text$yd	ENDS
; Function compile flags: /Odtp
; File c:\program files (x86)\microsoft visual studio 11.0\vc\include\xmemory0
;	COMDAT ??__E?_Generic_object@?$_Error_objects@H@std@@2V_Generic_error_category@2@A@@YAXXZ
text$yc	SEGMENT
??__E?_Generic_object@?$_Error_objects@H@std@@2V_Generic_error_category@2@A@@YAXXZ PROC ; `dynamic initializer for 'std::_Error_objects<int>::_Generic_object'', COMDAT

; 627  : 		{	// estimate maximum array size

	push	ebp
	mov	ebp, esp
	mov	ecx, OFFSET ?_Generic_object@?$_Error_objects@H@std@@2V_Generic_error_category@2@A ; std::_Error_objects<int>::_Generic_object
	call	??0_Generic_error_category@std@@QAE@XZ	; std::_Generic_error_category::_Generic_error_category
	push	OFFSET ??__F?_Generic_object@?$_Error_objects@H@std@@2V_Generic_error_category@2@A@@YAXXZ ; `dynamic atexit destructor for 'std::_Error_objects<int>::_Generic_object''
	call	_atexit
	add	esp, 4
	pop	ebp
	ret	0
??__E?_Generic_object@?$_Error_objects@H@std@@2V_Generic_error_category@2@A@@YAXXZ ENDP ; `dynamic initializer for 'std::_Error_objects<int>::_Generic_object''
text$yc	ENDS
; Function compile flags: /Odtp
; File c:\program files (x86)\microsoft visual studio 11.0\vc\include\xmemory0
;	COMDAT ??$_Allocate@D@std@@YAPADIPAD@Z
_TEXT	SEGMENT
__Ptr$ = -4						; size = 4
__Count$ = 8						; size = 4
___formal$ = 12						; size = 4
??$_Allocate@D@std@@YAPADIPAD@Z PROC			; std::_Allocate<char>, COMDAT

; 22   : 	{	// allocate storage for _Count elements of type _Ty

	push	ebp
	mov	ebp, esp
	push	ecx

; 23   : 	void *_Ptr = 0;

	mov	DWORD PTR __Ptr$[ebp], 0

; 24   : 
; 25   : 	if (_Count == 0)

	cmp	DWORD PTR __Count$[ebp], 0
	jne	SHORT $LN4@Allocate

; 26   : 		;
; 27   : 	else if (((size_t)(-1) / sizeof (_Ty) < _Count)

	jmp	SHORT $LN3@Allocate
$LN4@Allocate:

; 28   : 		|| (_Ptr = ::operator new(_Count * sizeof (_Ty))) == 0)

	cmp	DWORD PTR __Count$[ebp], -1
	ja	SHORT $LN1@Allocate
	mov	eax, DWORD PTR __Count$[ebp]
	push	eax
	call	??2@YAPAXI@Z				; operator new
	add	esp, 4
	mov	DWORD PTR __Ptr$[ebp], eax
	cmp	DWORD PTR __Ptr$[ebp], 0
	jne	SHORT $LN3@Allocate
$LN1@Allocate:

; 29   : 		_Xbad_alloc();	// report no memory

	call	?_Xbad_alloc@std@@YAXXZ			; std::_Xbad_alloc
$LN3@Allocate:

; 30   : 
; 31   : 	return ((_Ty *)_Ptr);

	mov	eax, DWORD PTR __Ptr$[ebp]
$LN6@Allocate:

; 32   : 	}

	mov	esp, ebp
	pop	ebp
	ret	0
??$_Allocate@D@std@@YAPADIPAD@Z ENDP			; std::_Allocate<char>
_TEXT	ENDS
; Function compile flags: /Odtp
; File c:\program files (x86)\microsoft visual studio 11.0\vc\include\xstddef
;	COMDAT ??$addressof@D@std@@YAPADAAD@Z
_TEXT	SEGMENT
__Val$ = 8						; size = 4
??$addressof@D@std@@YAPADAAD@Z PROC			; std::addressof<char>, COMDAT

; 85   : 	{	// return address of _Val

	push	ebp
	mov	ebp, esp

; 86   : 	return (reinterpret_cast<_Ty *>(
; 87   : 		(&const_cast<char&>(
; 88   : 		reinterpret_cast<const volatile char&>(_Val)))));

	mov	eax, DWORD PTR __Val$[ebp]

; 89   : 	}

	pop	ebp
	ret	0
??$addressof@D@std@@YAPADAAD@Z ENDP			; std::addressof<char>
_TEXT	ENDS
; Function compile flags: /Odtp
; File c:\program files (x86)\microsoft visual studio 11.0\vc\include\xmemory0
;	COMDAT ??$destroy@PAD@?$_Wrap_alloc@V?$allocator@D@std@@@std@@QAEXPAPAD@Z
_TEXT	SEGMENT
_this$ = -4						; size = 4
__Ptr$ = 8						; size = 4
??$destroy@PAD@?$_Wrap_alloc@V?$allocator@D@std@@@std@@QAEXPAPAD@Z PROC ; std::_Wrap_alloc<std::allocator<char> >::destroy<char *>, COMDAT
; _this$ = ecx

; 907  : 		void destroy(_Ty *_Ptr)

	push	ebp
	mov	ebp, esp
	push	ecx
	mov	DWORD PTR _this$[ebp], ecx

; 908  : 		{	// destroy object at _Ptr
; 909  : 		_Mytraits::destroy(*this, _Ptr);

	mov	eax, DWORD PTR __Ptr$[ebp]
	push	eax
	mov	ecx, DWORD PTR _this$[ebp]
	push	ecx
	call	??$destroy@PAD@?$allocator_traits@V?$allocator@D@std@@@std@@SAXAAV?$allocator@D@1@PAPAD@Z ; std::allocator_traits<std::allocator<char> >::destroy<char *>
	add	esp, 8

; 910  : 		}

	mov	esp, ebp
	pop	ebp
	ret	4
??$destroy@PAD@?$_Wrap_alloc@V?$allocator@D@std@@@std@@QAEXPAPAD@Z ENDP ; std::_Wrap_alloc<std::allocator<char> >::destroy<char *>
_TEXT	ENDS
; Function compile flags: /Odtp
; File c:\program files (x86)\microsoft visual studio 11.0\vc\include\xmemory0
;	COMDAT ??$construct@PADAAPAD@?$_Wrap_alloc@V?$allocator@D@std@@@std@@QAEXPAPADAAPAD@Z
_TEXT	SEGMENT
_this$ = -4						; size = 4
__Ptr$ = 8						; size = 4
__V0$ = 12						; size = 4
??$construct@PADAAPAD@?$_Wrap_alloc@V?$allocator@D@std@@@std@@QAEXPAPADAAPAD@Z PROC ; std::_Wrap_alloc<std::allocator<char> >::construct<char *,char * &>, COMDAT
; _this$ = ecx

; 903  : _VARIADIC_EXPAND_0X(_WRAP_ALLOC_CONSTRUCT, , , , )

	push	ebp
	mov	ebp, esp
	push	ecx
	mov	DWORD PTR _this$[ebp], ecx
	mov	eax, DWORD PTR __V0$[ebp]
	push	eax
	call	??$forward@AAPAD@std@@YAAAPADAAPAD@Z	; std::forward<char * &>
	add	esp, 4
	push	eax
	mov	ecx, DWORD PTR __Ptr$[ebp]
	push	ecx
	mov	edx, DWORD PTR _this$[ebp]
	push	edx
	call	??$construct@PADAAPAD@?$allocator_traits@V?$allocator@D@std@@@std@@SAXAAV?$allocator@D@1@PAPADAAPAD@Z ; std::allocator_traits<std::allocator<char> >::construct<char *,char * &>
	add	esp, 12					; 0000000cH
	mov	esp, ebp
	pop	ebp
	ret	8
??$construct@PADAAPAD@?$_Wrap_alloc@V?$allocator@D@std@@@std@@QAEXPAPADAAPAD@Z ENDP ; std::_Wrap_alloc<std::allocator<char> >::construct<char *,char * &>
_TEXT	ENDS
; Function compile flags: /Odtp
; File c:\users\zhitao li\documents\visual studio 2012\projects\freefalcon\campaign\include\unit.h
;	COMDAT ?GetFirstUnitWP@UnitClass@@QAEPAVWayPointClass@@XZ
_TEXT	SEGMENT
_this$ = -4						; size = 4
?GetFirstUnitWP@UnitClass@@QAEPAVWayPointClass@@XZ PROC	; UnitClass::GetFirstUnitWP, COMDAT
; _this$ = ecx

; 431  : 	WayPoint GetFirstUnitWP()				{ return wp_list; }

	push	ebp
	mov	ebp, esp
	push	ecx
	mov	DWORD PTR _this$[ebp], ecx
	mov	eax, DWORD PTR _this$[ebp]
	mov	eax, DWORD PTR [eax+244]
	mov	esp, ebp
	pop	ebp
	ret	0
?GetFirstUnitWP@UnitClass@@QAEPAVWayPointClass@@XZ ENDP	; UnitClass::GetFirstUnitWP
_TEXT	ENDS
; Function compile flags: /Odtp
; File c:\users\zhitao li\documents\visual studio 2012\projects\freefalcon\campaign\include\unit.h
;	COMDAT ?Cargo@UnitClass@@QBEHXZ
_TEXT	SEGMENT
_this$ = -4						; size = 4
?Cargo@UnitClass@@QBEHXZ PROC				; UnitClass::Cargo, COMDAT
; _this$ = ecx

; 318  : 	int Cargo () const								{ return (int)unit_flags & U_CARGO; }

	push	ebp
	mov	ebp, esp
	push	ecx
	mov	DWORD PTR _this$[ebp], ecx
	mov	eax, DWORD PTR _this$[ebp]
	mov	eax, DWORD PTR [eax+196]
	and	eax, 8192				; 00002000H
	mov	esp, ebp
	pop	ebp
	ret	0
?Cargo@UnitClass@@QBEHXZ ENDP				; UnitClass::Cargo
_TEXT	ENDS
; Function compile flags: /Odtp
; File c:\users\zhitao li\documents\visual studio 2012\projects\freefalcon\sim\include\airframe.h
;	COMDAT ?GetSimpleMode@AirframeClass@@QAEHXZ
_TEXT	SEGMENT
_this$ = -4						; size = 4
?GetSimpleMode@AirframeClass@@QAEHXZ PROC		; AirframeClass::GetSimpleMode, COMDAT
; _this$ = ecx

; 1224 : 	int  GetSimpleMode(void) {return simpleMode;};

	push	ebp
	mov	ebp, esp
	push	ecx
	mov	DWORD PTR _this$[ebp], ecx
	mov	eax, DWORD PTR _this$[ebp]
	mov	eax, DWORD PTR [eax+824]
	mov	esp, ebp
	pop	ebp
	ret	0
?GetSimpleMode@AirframeClass@@QAEHXZ ENDP		; AirframeClass::GetSimpleMode
_TEXT	ENDS
; Function compile flags: /Odtp
; File c:\users\zhitao li\documents\visual studio 2012\projects\freefalcon\sim\include\simdrive.h
;	COMDAT ?GetPlayerEntity@SimulationDriver@@QBEPAVSimMoverClass@@XZ
_TEXT	SEGMENT
_this$ = -4						; size = 4
?GetPlayerEntity@SimulationDriver@@QBEPAVSimMoverClass@@XZ PROC ; SimulationDriver::GetPlayerEntity, COMDAT
; _this$ = ecx

; 76   : 	SimMoverClass *GetPlayerEntity() const { return const_cast<SimMoverClass*>(playerEntity); }

	push	ebp
	mov	ebp, esp
	push	ecx
	mov	DWORD PTR _this$[ebp], ecx
	mov	eax, DWORD PTR _this$[ebp]
	mov	eax, DWORD PTR [eax+56]
	mov	esp, ebp
	pop	ebp
	ret	0
?GetPlayerEntity@SimulationDriver@@QBEPAVSimMoverClass@@XZ ENDP ; SimulationDriver::GetPlayerEntity
_TEXT	ENDS
; Function compile flags: /Odtp
; File c:\users\zhitao li\documents\visual studio 2012\projects\freefalcon\sim\include\aircrft.h
;	COMDAT ?AutopilotType@AircraftClass@@QAE?AW4AutoPilotType@1@XZ
_TEXT	SEGMENT
_this$ = -4						; size = 4
?AutopilotType@AircraftClass@@QAE?AW4AutoPilotType@1@XZ PROC ; AircraftClass::AutopilotType, COMDAT
; _this$ = ecx

; 329  : 	AutoPilotType	AutopilotType (void) {return autopilotType;};

	push	ebp
	mov	ebp, esp
	push	ecx
	mov	DWORD PTR _this$[ebp], ecx
	mov	eax, DWORD PTR _this$[ebp]
	mov	eax, DWORD PTR [eax+968]
	mov	esp, ebp
	pop	ebp
	ret	0
?AutopilotType@AircraftClass@@QAE?AW4AutoPilotType@1@XZ ENDP ; AircraftClass::AutopilotType
_TEXT	ENDS
; Function compile flags: /Odtp
; File c:\users\zhitao li\documents\visual studio 2012\projects\freefalcon\falclib\include\falcsess.h
;	COMDAT ?GetGame@FalconSessionEntity@@QAEPAVFalconGameEntity@@XZ
_TEXT	SEGMENT
_this$ = -4						; size = 4
?GetGame@FalconSessionEntity@@QAEPAVFalconGameEntity@@XZ PROC ; FalconSessionEntity::GetGame, COMDAT
; _this$ = ecx

; 154  : 	FalconGameEntity* GetGame (void)              { return (FalconGameEntity*)VuSessionEntity::Game(); }

	push	ebp
	mov	ebp, esp
	push	ecx
	mov	DWORD PTR _this$[ebp], ecx
	mov	ecx, DWORD PTR _this$[ebp]
	call	?Game@VuSessionEntity@@QAEPAVVuGameEntity@@XZ ; VuSessionEntity::Game
	mov	esp, ebp
	pop	ebp
	ret	0
?GetGame@FalconSessionEntity@@QAEPAVFalconGameEntity@@XZ ENDP ; FalconSessionEntity::GetGame
_TEXT	ENDS
; Function compile flags: /Odtp
; File c:\users\zhitao li\documents\visual studio 2012\projects\freefalcon\sim\include\fcc.h
;	COMDAT ?GetStptMode@FireControlComputer@@QAE?AW4FCCStptMode@1@XZ
_TEXT	SEGMENT
_this$ = -4						; size = 4
?GetStptMode@FireControlComputer@@QAE?AW4FCCStptMode@1@XZ PROC ; FireControlComputer::GetStptMode, COMDAT
; _this$ = ecx

; 295  : 	FCCStptMode GetStptMode(void) {return mStptMode;};

	push	ebp
	mov	ebp, esp
	push	ecx
	mov	DWORD PTR _this$[ebp], ecx
	mov	eax, DWORD PTR _this$[ebp]
	mov	eax, DWORD PTR [eax+124]
	mov	esp, ebp
	pop	ebp
	ret	0
?GetStptMode@FireControlComputer@@QAE?AW4FCCStptMode@1@XZ ENDP ; FireControlComputer::GetStptMode
_TEXT	ENDS
; Function compile flags: /Odtp
; File c:\users\zhitao li\documents\visual studio 2012\projects\freefalcon\sim\include\simbase.h
;	COMDAT ?GetCampaignObject@SimBaseClass@@QAEPAVCampBaseClass@@XZ
_TEXT	SEGMENT
_this$ = -4						; size = 4
?GetCampaignObject@SimBaseClass@@QAEPAVCampBaseClass@@XZ PROC ; SimBaseClass::GetCampaignObject, COMDAT
; _this$ = ecx

; 212  : 	CampBaseClass *GetCampaignObject (void) { return campaignObject.get(); }

	push	ebp
	mov	ebp, esp
	push	ecx
	mov	DWORD PTR _this$[ebp], ecx
	mov	ecx, DWORD PTR _this$[ebp]
	add	ecx, 144				; 00000090H
	call	?get@?$VuBin@VCampBaseClass@@@@QBEPAVCampBaseClass@@XZ ; VuBin<CampBaseClass>::get
	mov	esp, ebp
	pop	ebp
	ret	0
?GetCampaignObject@SimBaseClass@@QAEPAVCampBaseClass@@XZ ENDP ; SimBaseClass::GetCampaignObject
_TEXT	ENDS
; Function compile flags: /Odtp
; File c:\users\zhitao li\documents\visual studio 2012\projects\freefalcon\sim\include\simbase.h
;	COMDAT ?GetCallsignIdx@SimBaseClass@@QAEHXZ
_TEXT	SEGMENT
_this$ = -4						; size = 4
?GetCallsignIdx@SimBaseClass@@QAEHXZ PROC		; SimBaseClass::GetCallsignIdx, COMDAT
; _this$ = ecx

; 154  : 	int GetCallsignIdx () { return callsignIdx; };

	push	ebp
	mov	ebp, esp
	push	ecx
	mov	DWORD PTR _this$[ebp], ecx
	mov	eax, DWORD PTR _this$[ebp]
	mov	eax, DWORD PTR [eax+232]
	mov	esp, ebp
	pop	ebp
	ret	0
?GetCallsignIdx@SimBaseClass@@QAEHXZ ENDP		; SimBaseClass::GetCallsignIdx
_TEXT	ENDS
; Function compile flags: /Odtp
; File c:\users\zhitao li\documents\visual studio 2012\projects\freefalcon\vu2\include\vu_templates.h
;	COMDAT ?get@?$VuBin@VCampBaseClass@@@@QBEPAVCampBaseClass@@XZ
_TEXT	SEGMENT
_this$ = -4						; size = 4
?get@?$VuBin@VCampBaseClass@@@@QBEPAVCampBaseClass@@XZ PROC ; VuBin<CampBaseClass>::get, COMDAT
; _this$ = ecx

; 55   : 	E *get() const{

	push	ebp
	mov	ebp, esp
	push	ecx
	mov	DWORD PTR _this$[ebp], ecx

; 56   : 		return e;

	mov	eax, DWORD PTR _this$[ebp]
	mov	eax, DWORD PTR [eax]

; 57   : 	}

	mov	esp, ebp
	pop	ebp
	ret	0
?get@?$VuBin@VCampBaseClass@@@@QBEPAVCampBaseClass@@XZ ENDP ; VuBin<CampBaseClass>::get
_TEXT	ENDS
; Function compile flags: /Odtp
;	COMDAT ??_G_System_error_category@std@@UAEPAXI@Z
_TEXT	SEGMENT
_this$ = -4						; size = 4
___flags$ = 8						; size = 4
??_G_System_error_category@std@@UAEPAXI@Z PROC		; std::_System_error_category::`scalar deleting destructor', COMDAT
; _this$ = ecx
	push	ebp
	mov	ebp, esp
	push	ecx
	mov	DWORD PTR _this$[ebp], ecx
	mov	ecx, DWORD PTR _this$[ebp]
	call	??1_System_error_category@std@@UAE@XZ
	mov	eax, DWORD PTR ___flags$[ebp]
	and	eax, 1
	je	SHORT $LN1@scalar
	mov	ecx, DWORD PTR _this$[ebp]
	push	ecx
	call	??3@YAXPAX@Z				; operator delete
	add	esp, 4
$LN1@scalar:
	mov	eax, DWORD PTR _this$[ebp]
	mov	esp, ebp
	pop	ebp
	ret	4
??_G_System_error_category@std@@UAEPAXI@Z ENDP		; std::_System_error_category::`scalar deleting destructor'
_TEXT	ENDS
; Function compile flags: /Odtp
;	COMDAT ??1_System_error_category@std@@UAE@XZ
_TEXT	SEGMENT
_this$ = -4						; size = 4
??1_System_error_category@std@@UAE@XZ PROC		; std::_System_error_category::~_System_error_category, COMDAT
; _this$ = ecx
	push	ebp
	mov	ebp, esp
	push	ecx
	mov	DWORD PTR _this$[ebp], ecx
	mov	ecx, DWORD PTR _this$[ebp]
	call	??1_Generic_error_category@std@@UAE@XZ
	mov	esp, ebp
	pop	ebp
	ret	0
??1_System_error_category@std@@UAE@XZ ENDP		; std::_System_error_category::~_System_error_category
_TEXT	ENDS
; Function compile flags: /Odtp
; File c:\program files (x86)\microsoft visual studio 11.0\vc\include\system_error
;	COMDAT ?default_error_condition@_System_error_category@std@@UBE?AVerror_condition@2@H@Z
_TEXT	SEGMENT
_this$ = -4						; size = 4
___$ReturnUdt$ = 8					; size = 4
__Errval$ = 12						; size = 4
?default_error_condition@_System_error_category@std@@UBE?AVerror_condition@2@H@Z PROC ; std::_System_error_category::default_error_condition, COMDAT
; _this$ = ecx

; 641  : 		{	// make error_condition for error code (generic if possible)

	push	ebp
	mov	ebp, esp
	push	ecx
	mov	DWORD PTR _this$[ebp], ecx

; 642  : 		if (_Syserror_map(_Errval))

	mov	eax, DWORD PTR __Errval$[ebp]
	push	eax
	call	?_Syserror_map@std@@YAPBDH@Z		; std::_Syserror_map
	add	esp, 4
	test	eax, eax
	je	SHORT $LN2@default_er

; 643  : 			return (error_condition(_Errval, generic_category()));

	call	?generic_category@std@@YAABVerror_category@1@XZ ; std::generic_category
	push	eax
	mov	ecx, DWORD PTR __Errval$[ebp]
	push	ecx
	mov	ecx, DWORD PTR ___$ReturnUdt$[ebp]
	call	??0error_condition@std@@QAE@HABVerror_category@1@@Z ; std::error_condition::error_condition
	mov	eax, DWORD PTR ___$ReturnUdt$[ebp]
	jmp	SHORT $LN3@default_er

; 644  : 		else

	jmp	SHORT $LN3@default_er
$LN2@default_er:

; 645  : 			return (error_condition(_Errval, system_category()));

	call	?system_category@std@@YAABVerror_category@1@XZ ; std::system_category
	push	eax
	mov	edx, DWORD PTR __Errval$[ebp]
	push	edx
	mov	ecx, DWORD PTR ___$ReturnUdt$[ebp]
	call	??0error_condition@std@@QAE@HABVerror_category@1@@Z ; std::error_condition::error_condition
	mov	eax, DWORD PTR ___$ReturnUdt$[ebp]
$LN3@default_er:

; 646  : 		}

	mov	esp, ebp
	pop	ebp
	ret	8
?default_error_condition@_System_error_category@std@@UBE?AVerror_condition@2@H@Z ENDP ; std::_System_error_category::default_error_condition
_TEXT	ENDS
; Function compile flags: /Odtp
; File c:\program files (x86)\microsoft visual studio 11.0\vc\include\system_error
;	COMDAT ?message@_System_error_category@std@@UBE?AV?$basic_string@DU?$char_traits@D@std@@V?$allocator@D@2@@2@H@Z
_TEXT	SEGMENT
_this$ = -16						; size = 4
$T1 = -12						; size = 4
tv69 = -8						; size = 4
__Name$ = -4						; size = 4
___$ReturnUdt$ = 8					; size = 4
__Errcode$ = 12						; size = 4
?message@_System_error_category@std@@UBE?AV?$basic_string@DU?$char_traits@D@std@@V?$allocator@D@2@@2@H@Z PROC ; std::_System_error_category::message, COMDAT
; _this$ = ecx

; 634  : 		{	// convert to name of error

	push	ebp
	mov	ebp, esp
	sub	esp, 16					; 00000010H
	mov	DWORD PTR _this$[ebp], ecx
	mov	DWORD PTR $T1[ebp], 0

; 635  : 		const char *_Name = _Winerror_map(_Errcode);

	mov	eax, DWORD PTR __Errcode$[ebp]
	push	eax
	call	?_Winerror_map@std@@YAPBDH@Z		; std::_Winerror_map
	add	esp, 4
	mov	DWORD PTR __Name$[ebp], eax

; 636  : 		return (string(_Name != 0 ? _Name : "unknown error"));

	cmp	DWORD PTR __Name$[ebp], 0
	je	SHORT $LN3@message
	mov	ecx, DWORD PTR __Name$[ebp]
	mov	DWORD PTR tv69[ebp], ecx
	jmp	SHORT $LN4@message
$LN3@message:
	mov	DWORD PTR tv69[ebp], OFFSET ??_C@_0O@BFJCFAAK@unknown?5error?$AA@
$LN4@message:
	mov	edx, DWORD PTR tv69[ebp]
	push	edx
	mov	ecx, DWORD PTR ___$ReturnUdt$[ebp]
	call	??0?$basic_string@DU?$char_traits@D@std@@V?$allocator@D@2@@std@@QAE@PBD@Z ; std::basic_string<char,std::char_traits<char>,std::allocator<char> >::basic_string<char,std::char_traits<char>,std::allocator<char> >
	mov	eax, DWORD PTR $T1[ebp]
	or	eax, 1
	mov	DWORD PTR $T1[ebp], eax
	mov	eax, DWORD PTR ___$ReturnUdt$[ebp]

; 637  : 		}

	mov	esp, ebp
	pop	ebp
	ret	8
?message@_System_error_category@std@@UBE?AV?$basic_string@DU?$char_traits@D@std@@V?$allocator@D@2@@2@H@Z ENDP ; std::_System_error_category::message
_TEXT	ENDS
; Function compile flags: /Odtp
; File c:\program files (x86)\microsoft visual studio 11.0\vc\include\system_error
;	COMDAT ?name@_System_error_category@std@@UBEPBDXZ
_TEXT	SEGMENT
_this$ = -4						; size = 4
?name@_System_error_category@std@@UBEPBDXZ PROC		; std::_System_error_category::name, COMDAT
; _this$ = ecx

; 629  : 		{	// get name of category

	push	ebp
	mov	ebp, esp
	push	ecx
	mov	DWORD PTR _this$[ebp], ecx

; 630  : 		return ("system");

	mov	eax, OFFSET ??_C@_06FHFOAHML@system?$AA@

; 631  : 		}

	mov	esp, ebp
	pop	ebp
	ret	0
?name@_System_error_category@std@@UBEPBDXZ ENDP		; std::_System_error_category::name
_TEXT	ENDS
; Function compile flags: /Odtp
; File c:\program files (x86)\microsoft visual studio 11.0\vc\include\system_error
;	COMDAT ??0_System_error_category@std@@QAE@XZ
_TEXT	SEGMENT
_this$ = -4						; size = 4
??0_System_error_category@std@@QAE@XZ PROC		; std::_System_error_category::_System_error_category, COMDAT
; _this$ = ecx

; 624  : 	_System_error_category()

	push	ebp
	mov	ebp, esp
	push	ecx
	mov	DWORD PTR _this$[ebp], ecx
	mov	ecx, DWORD PTR _this$[ebp]
	call	??0_Generic_error_category@std@@QAE@XZ	; std::_Generic_error_category::_Generic_error_category
	mov	eax, DWORD PTR _this$[ebp]
	mov	DWORD PTR [eax], OFFSET ??_7_System_error_category@std@@6B@

; 625  : 		{	// default constructor
; 626  : 		}

	mov	eax, DWORD PTR _this$[ebp]
	mov	esp, ebp
	pop	ebp
	ret	0
??0_System_error_category@std@@QAE@XZ ENDP		; std::_System_error_category::_System_error_category
_TEXT	ENDS
; Function compile flags: /Odtp
;	COMDAT ??_G_Iostream_error_category@std@@UAEPAXI@Z
_TEXT	SEGMENT
_this$ = -4						; size = 4
___flags$ = 8						; size = 4
??_G_Iostream_error_category@std@@UAEPAXI@Z PROC	; std::_Iostream_error_category::`scalar deleting destructor', COMDAT
; _this$ = ecx
	push	ebp
	mov	ebp, esp
	push	ecx
	mov	DWORD PTR _this$[ebp], ecx
	mov	ecx, DWORD PTR _this$[ebp]
	call	??1_Iostream_error_category@std@@UAE@XZ
	mov	eax, DWORD PTR ___flags$[ebp]
	and	eax, 1
	je	SHORT $LN1@scalar
	mov	ecx, DWORD PTR _this$[ebp]
	push	ecx
	call	??3@YAXPAX@Z				; operator delete
	add	esp, 4
$LN1@scalar:
	mov	eax, DWORD PTR _this$[ebp]
	mov	esp, ebp
	pop	ebp
	ret	4
??_G_Iostream_error_category@std@@UAEPAXI@Z ENDP	; std::_Iostream_error_category::`scalar deleting destructor'
_TEXT	ENDS
; Function compile flags: /Odtp
;	COMDAT ??1_Iostream_error_category@std@@UAE@XZ
_TEXT	SEGMENT
_this$ = -4						; size = 4
??1_Iostream_error_category@std@@UAE@XZ PROC		; std::_Iostream_error_category::~_Iostream_error_category, COMDAT
; _this$ = ecx
	push	ebp
	mov	ebp, esp
	push	ecx
	mov	DWORD PTR _this$[ebp], ecx
	mov	ecx, DWORD PTR _this$[ebp]
	call	??1_Generic_error_category@std@@UAE@XZ
	mov	esp, ebp
	pop	ebp
	ret	0
??1_Iostream_error_category@std@@UAE@XZ ENDP		; std::_Iostream_error_category::~_Iostream_error_category
_TEXT	ENDS
; Function compile flags: /Odtp
; File c:\program files (x86)\microsoft visual studio 11.0\vc\include\system_error
;	COMDAT ?message@_Iostream_error_category@std@@UBE?AV?$basic_string@DU?$char_traits@D@std@@V?$allocator@D@2@@2@H@Z
_TEXT	SEGMENT
_this$ = -8						; size = 4
$T1 = -4						; size = 4
___$ReturnUdt$ = 8					; size = 4
__Errcode$ = 12						; size = 4
?message@_Iostream_error_category@std@@UBE?AV?$basic_string@DU?$char_traits@D@std@@V?$allocator@D@2@@2@H@Z PROC ; std::_Iostream_error_category::message, COMDAT
; _this$ = ecx

; 611  : 		{	// convert to name of error

	push	ebp
	mov	ebp, esp
	sub	esp, 8
	mov	DWORD PTR _this$[ebp], ecx
	mov	DWORD PTR $T1[ebp], 0

; 612  : 		if (_Errcode == (int)io_errc::stream)

	cmp	DWORD PTR __Errcode$[ebp], 1
	jne	SHORT $LN2@message

; 613  : 			return ("iostream stream error");

	push	OFFSET ??_C@_0BG@PADBLCHM@iostream?5stream?5error?$AA@
	mov	ecx, DWORD PTR ___$ReturnUdt$[ebp]
	call	??0?$basic_string@DU?$char_traits@D@std@@V?$allocator@D@2@@std@@QAE@PBD@Z ; std::basic_string<char,std::char_traits<char>,std::allocator<char> >::basic_string<char,std::char_traits<char>,std::allocator<char> >
	mov	eax, DWORD PTR $T1[ebp]
	or	eax, 1
	mov	DWORD PTR $T1[ebp], eax
	mov	eax, DWORD PTR ___$ReturnUdt$[ebp]
	jmp	SHORT $LN3@message

; 614  : 		else

	jmp	SHORT $LN3@message
$LN2@message:

; 615  : 			return (_Generic_error_category::message(_Errcode));

	mov	ecx, DWORD PTR __Errcode$[ebp]
	push	ecx
	mov	edx, DWORD PTR ___$ReturnUdt$[ebp]
	push	edx
	mov	ecx, DWORD PTR _this$[ebp]
	call	?message@_Generic_error_category@std@@UBE?AV?$basic_string@DU?$char_traits@D@std@@V?$allocator@D@2@@2@H@Z ; std::_Generic_error_category::message
	mov	eax, DWORD PTR $T1[ebp]
	or	eax, 1
	mov	DWORD PTR $T1[ebp], eax
	mov	eax, DWORD PTR ___$ReturnUdt$[ebp]
$LN3@message:

; 616  : 		}

	mov	esp, ebp
	pop	ebp
	ret	8
?message@_Iostream_error_category@std@@UBE?AV?$basic_string@DU?$char_traits@D@std@@V?$allocator@D@2@@2@H@Z ENDP ; std::_Iostream_error_category::message
_TEXT	ENDS
; Function compile flags: /Odtp
; File c:\program files (x86)\microsoft visual studio 11.0\vc\include\system_error
;	COMDAT ?name@_Iostream_error_category@std@@UBEPBDXZ
_TEXT	SEGMENT
_this$ = -4						; size = 4
?name@_Iostream_error_category@std@@UBEPBDXZ PROC	; std::_Iostream_error_category::name, COMDAT
; _this$ = ecx

; 606  : 		{	// get name of category

	push	ebp
	mov	ebp, esp
	push	ecx
	mov	DWORD PTR _this$[ebp], ecx

; 607  : 		return ("iostream");

	mov	eax, OFFSET ??_C@_08LLGCOLLL@iostream?$AA@

; 608  : 		}

	mov	esp, ebp
	pop	ebp
	ret	0
?name@_Iostream_error_category@std@@UBEPBDXZ ENDP	; std::_Iostream_error_category::name
_TEXT	ENDS
; Function compile flags: /Odtp
; File c:\program files (x86)\microsoft visual studio 11.0\vc\include\system_error
;	COMDAT ??0_Iostream_error_category@std@@QAE@XZ
_TEXT	SEGMENT
_this$ = -4						; size = 4
??0_Iostream_error_category@std@@QAE@XZ PROC		; std::_Iostream_error_category::_Iostream_error_category, COMDAT
; _this$ = ecx

; 601  : 	_Iostream_error_category()

	push	ebp
	mov	ebp, esp
	push	ecx
	mov	DWORD PTR _this$[ebp], ecx
	mov	ecx, DWORD PTR _this$[ebp]
	call	??0_Generic_error_category@std@@QAE@XZ	; std::_Generic_error_category::_Generic_error_category
	mov	eax, DWORD PTR _this$[ebp]
	mov	DWORD PTR [eax], OFFSET ??_7_Iostream_error_category@std@@6B@

; 602  : 		{	// default constructor
; 603  : 		}

	mov	eax, DWORD PTR _this$[ebp]
	mov	esp, ebp
	pop	ebp
	ret	0
??0_Iostream_error_category@std@@QAE@XZ ENDP		; std::_Iostream_error_category::_Iostream_error_category
_TEXT	ENDS
; Function compile flags: /Odtp
;	COMDAT ??_G_Generic_error_category@std@@UAEPAXI@Z
_TEXT	SEGMENT
_this$ = -4						; size = 4
___flags$ = 8						; size = 4
??_G_Generic_error_category@std@@UAEPAXI@Z PROC		; std::_Generic_error_category::`scalar deleting destructor', COMDAT
; _this$ = ecx
	push	ebp
	mov	ebp, esp
	push	ecx
	mov	DWORD PTR _this$[ebp], ecx
	mov	ecx, DWORD PTR _this$[ebp]
	call	??1_Generic_error_category@std@@UAE@XZ
	mov	eax, DWORD PTR ___flags$[ebp]
	and	eax, 1
	je	SHORT $LN1@scalar
	mov	ecx, DWORD PTR _this$[ebp]
	push	ecx
	call	??3@YAXPAX@Z				; operator delete
	add	esp, 4
$LN1@scalar:
	mov	eax, DWORD PTR _this$[ebp]
	mov	esp, ebp
	pop	ebp
	ret	4
??_G_Generic_error_category@std@@UAEPAXI@Z ENDP		; std::_Generic_error_category::`scalar deleting destructor'
_TEXT	ENDS
; Function compile flags: /Odtp
;	COMDAT ??1_Generic_error_category@std@@UAE@XZ
_TEXT	SEGMENT
_this$ = -4						; size = 4
??1_Generic_error_category@std@@UAE@XZ PROC		; std::_Generic_error_category::~_Generic_error_category, COMDAT
; _this$ = ecx
	push	ebp
	mov	ebp, esp
	push	ecx
	mov	DWORD PTR _this$[ebp], ecx
	mov	ecx, DWORD PTR _this$[ebp]
	call	??1error_category@std@@UAE@XZ		; std::error_category::~error_category
	mov	esp, ebp
	pop	ebp
	ret	0
??1_Generic_error_category@std@@UAE@XZ ENDP		; std::_Generic_error_category::~_Generic_error_category
_TEXT	ENDS
; Function compile flags: /Odtp
; File c:\program files (x86)\microsoft visual studio 11.0\vc\include\system_error
;	COMDAT ?message@_Generic_error_category@std@@UBE?AV?$basic_string@DU?$char_traits@D@std@@V?$allocator@D@2@@2@H@Z
_TEXT	SEGMENT
_this$ = -16						; size = 4
$T1 = -12						; size = 4
tv69 = -8						; size = 4
__Name$ = -4						; size = 4
___$ReturnUdt$ = 8					; size = 4
__Errcode$ = 12						; size = 4
?message@_Generic_error_category@std@@UBE?AV?$basic_string@DU?$char_traits@D@std@@V?$allocator@D@2@@2@H@Z PROC ; std::_Generic_error_category::message, COMDAT
; _this$ = ecx

; 590  : 		{	// convert to name of error

	push	ebp
	mov	ebp, esp
	sub	esp, 16					; 00000010H
	mov	DWORD PTR _this$[ebp], ecx
	mov	DWORD PTR $T1[ebp], 0

; 591  : 		const char *_Name = _Syserror_map(_Errcode);

	mov	eax, DWORD PTR __Errcode$[ebp]
	push	eax
	call	?_Syserror_map@std@@YAPBDH@Z		; std::_Syserror_map
	add	esp, 4
	mov	DWORD PTR __Name$[ebp], eax

; 592  : 		return (string(_Name != 0 ? _Name : "unknown error"));

	cmp	DWORD PTR __Name$[ebp], 0
	je	SHORT $LN3@message
	mov	ecx, DWORD PTR __Name$[ebp]
	mov	DWORD PTR tv69[ebp], ecx
	jmp	SHORT $LN4@message
$LN3@message:
	mov	DWORD PTR tv69[ebp], OFFSET ??_C@_0O@BFJCFAAK@unknown?5error?$AA@
$LN4@message:
	mov	edx, DWORD PTR tv69[ebp]
	push	edx
	mov	ecx, DWORD PTR ___$ReturnUdt$[ebp]
	call	??0?$basic_string@DU?$char_traits@D@std@@V?$allocator@D@2@@std@@QAE@PBD@Z ; std::basic_string<char,std::char_traits<char>,std::allocator<char> >::basic_string<char,std::char_traits<char>,std::allocator<char> >
	mov	eax, DWORD PTR $T1[ebp]
	or	eax, 1
	mov	DWORD PTR $T1[ebp], eax
	mov	eax, DWORD PTR ___$ReturnUdt$[ebp]

; 593  : 		}

	mov	esp, ebp
	pop	ebp
	ret	8
?message@_Generic_error_category@std@@UBE?AV?$basic_string@DU?$char_traits@D@std@@V?$allocator@D@2@@2@H@Z ENDP ; std::_Generic_error_category::message
_TEXT	ENDS
; Function compile flags: /Odtp
; File c:\program files (x86)\microsoft visual studio 11.0\vc\include\system_error
;	COMDAT ?name@_Generic_error_category@std@@UBEPBDXZ
_TEXT	SEGMENT
_this$ = -4						; size = 4
?name@_Generic_error_category@std@@UBEPBDXZ PROC	; std::_Generic_error_category::name, COMDAT
; _this$ = ecx

; 585  : 		{	// get name of category

	push	ebp
	mov	ebp, esp
	push	ecx
	mov	DWORD PTR _this$[ebp], ecx

; 586  : 		return ("generic");

	mov	eax, OFFSET ??_C@_07DCLBNMLN@generic?$AA@

; 587  : 		}

	mov	esp, ebp
	pop	ebp
	ret	0
?name@_Generic_error_category@std@@UBEPBDXZ ENDP	; std::_Generic_error_category::name
_TEXT	ENDS
; Function compile flags: /Odtp
; File c:\program files (x86)\microsoft visual studio 11.0\vc\include\system_error
;	COMDAT ??0_Generic_error_category@std@@QAE@XZ
_TEXT	SEGMENT
_this$ = -4						; size = 4
??0_Generic_error_category@std@@QAE@XZ PROC		; std::_Generic_error_category::_Generic_error_category, COMDAT
; _this$ = ecx

; 580  : 	_Generic_error_category()

	push	ebp
	mov	ebp, esp
	push	ecx
	mov	DWORD PTR _this$[ebp], ecx
	mov	ecx, DWORD PTR _this$[ebp]
	call	??0error_category@std@@QAE@XZ		; std::error_category::error_category
	mov	eax, DWORD PTR _this$[ebp]
	mov	DWORD PTR [eax], OFFSET ??_7_Generic_error_category@std@@6B@

; 581  : 		{	// default constructor
; 582  : 		}

	mov	eax, DWORD PTR _this$[ebp]
	mov	esp, ebp
	pop	ebp
	ret	0
??0_Generic_error_category@std@@QAE@XZ ENDP		; std::_Generic_error_category::_Generic_error_category
_TEXT	ENDS
; Function compile flags: /Odtp
; File c:\program files (x86)\microsoft visual studio 11.0\vc\include\system_error
;	COMDAT ??8error_condition@std@@QBE_NABV01@@Z
_TEXT	SEGMENT
tv78 = -8						; size = 4
_this$ = -4						; size = 4
__Right$ = 8						; size = 4
??8error_condition@std@@QBE_NABV01@@Z PROC		; std::error_condition::operator==, COMDAT
; _this$ = ecx

; 376  : 		{	// test if *this == _Right

	push	ebp
	mov	ebp, esp
	sub	esp, 8
	push	esi
	mov	DWORD PTR _this$[ebp], ecx

; 377  : 		return (category() == _Right.category()
; 378  : 			&& value() == _Right.value());

	mov	ecx, DWORD PTR __Right$[ebp]
	call	?category@error_condition@std@@QBEABVerror_category@2@XZ ; std::error_condition::category
	push	eax
	mov	ecx, DWORD PTR _this$[ebp]
	call	?category@error_condition@std@@QBEABVerror_category@2@XZ ; std::error_condition::category
	mov	ecx, eax
	call	??8error_category@std@@QBE_NABV01@@Z	; std::error_category::operator==
	movzx	eax, al
	test	eax, eax
	je	SHORT $LN3@operator
	mov	ecx, DWORD PTR _this$[ebp]
	call	?value@error_condition@std@@QBEHXZ	; std::error_condition::value
	mov	esi, eax
	mov	ecx, DWORD PTR __Right$[ebp]
	call	?value@error_condition@std@@QBEHXZ	; std::error_condition::value
	cmp	esi, eax
	jne	SHORT $LN3@operator
	mov	DWORD PTR tv78[ebp], 1
	jmp	SHORT $LN4@operator
$LN3@operator:
	mov	DWORD PTR tv78[ebp], 0
$LN4@operator:
	mov	al, BYTE PTR tv78[ebp]

; 379  : 		}

	pop	esi
	mov	esp, ebp
	pop	ebp
	ret	4
??8error_condition@std@@QBE_NABV01@@Z ENDP		; std::error_condition::operator==
_TEXT	ENDS
; Function compile flags: /Odtp
; File c:\program files (x86)\microsoft visual studio 11.0\vc\include\system_error
;	COMDAT ?category@error_condition@std@@QBEABVerror_category@2@XZ
_TEXT	SEGMENT
_this$ = -4						; size = 4
?category@error_condition@std@@QBEABVerror_category@2@XZ PROC ; std::error_condition::category, COMDAT
; _this$ = ecx

; 354  : 		{	// get category

	push	ebp
	mov	ebp, esp
	push	ecx
	mov	DWORD PTR _this$[ebp], ecx

; 355  : 		return (*_Mycat);

	mov	eax, DWORD PTR _this$[ebp]
	mov	eax, DWORD PTR [eax+4]

; 356  : 		}

	mov	esp, ebp
	pop	ebp
	ret	0
?category@error_condition@std@@QBEABVerror_category@2@XZ ENDP ; std::error_condition::category
_TEXT	ENDS
; Function compile flags: /Odtp
; File c:\program files (x86)\microsoft visual studio 11.0\vc\include\system_error
;	COMDAT ?value@error_condition@std@@QBEHXZ
_TEXT	SEGMENT
_this$ = -4						; size = 4
?value@error_condition@std@@QBEHXZ PROC			; std::error_condition::value, COMDAT
; _this$ = ecx

; 349  : 		{	// get error code

	push	ebp
	mov	ebp, esp
	push	ecx
	mov	DWORD PTR _this$[ebp], ecx

; 350  : 		return (_Myval);

	mov	eax, DWORD PTR _this$[ebp]
	mov	eax, DWORD PTR [eax]

; 351  : 		}

	mov	esp, ebp
	pop	ebp
	ret	0
?value@error_condition@std@@QBEHXZ ENDP			; std::error_condition::value
_TEXT	ENDS
; Function compile flags: /Odtp
; File c:\program files (x86)\microsoft visual studio 11.0\vc\include\system_error
;	COMDAT ??0error_condition@std@@QAE@HABVerror_category@1@@Z
_TEXT	SEGMENT
_this$ = -4						; size = 4
__Val$ = 8						; size = 4
__Cat$ = 12						; size = 4
??0error_condition@std@@QAE@HABVerror_category@1@@Z PROC ; std::error_condition::error_condition, COMDAT
; _this$ = ecx

; 316  : 		{	// construct from error code and category

	push	ebp
	mov	ebp, esp
	push	ecx
	mov	DWORD PTR _this$[ebp], ecx
	mov	eax, DWORD PTR _this$[ebp]
	mov	ecx, DWORD PTR __Val$[ebp]
	mov	DWORD PTR [eax], ecx
	mov	edx, DWORD PTR _this$[ebp]
	mov	eax, DWORD PTR __Cat$[ebp]
	mov	DWORD PTR [edx+4], eax

; 317  : 		}

	mov	eax, DWORD PTR _this$[ebp]
	mov	esp, ebp
	pop	ebp
	ret	8
??0error_condition@std@@QAE@HABVerror_category@1@@Z ENDP ; std::error_condition::error_condition
_TEXT	ENDS
; Function compile flags: /Odtp
; File c:\program files (x86)\microsoft visual studio 11.0\vc\include\system_error
;	COMDAT ?category@error_code@std@@QBEABVerror_category@2@XZ
_TEXT	SEGMENT
_this$ = -4						; size = 4
?category@error_code@std@@QBEABVerror_category@2@XZ PROC ; std::error_code::category, COMDAT
; _this$ = ecx

; 256  : 		{	// get category

	push	ebp
	mov	ebp, esp
	push	ecx
	mov	DWORD PTR _this$[ebp], ecx

; 257  : 		return (*_Mycat);

	mov	eax, DWORD PTR _this$[ebp]
	mov	eax, DWORD PTR [eax+4]

; 258  : 		}

	mov	esp, ebp
	pop	ebp
	ret	0
?category@error_code@std@@QBEABVerror_category@2@XZ ENDP ; std::error_code::category
_TEXT	ENDS
; Function compile flags: /Odtp
; File c:\program files (x86)\microsoft visual studio 11.0\vc\include\system_error
;	COMDAT ?value@error_code@std@@QBEHXZ
_TEXT	SEGMENT
_this$ = -4						; size = 4
?value@error_code@std@@QBEHXZ PROC			; std::error_code::value, COMDAT
; _this$ = ecx

; 251  : 		{	// get error code

	push	ebp
	mov	ebp, esp
	push	ecx
	mov	DWORD PTR _this$[ebp], ecx

; 252  : 		return (_Myval);

	mov	eax, DWORD PTR _this$[ebp]
	mov	eax, DWORD PTR [eax]

; 253  : 		}

	mov	esp, ebp
	pop	ebp
	ret	0
?value@error_code@std@@QBEHXZ ENDP			; std::error_code::value
_TEXT	ENDS
; Function compile flags: /Odtp
;	COMDAT ??_Gerror_category@std@@UAEPAXI@Z
_TEXT	SEGMENT
_this$ = -4						; size = 4
___flags$ = 8						; size = 4
??_Gerror_category@std@@UAEPAXI@Z PROC			; std::error_category::`scalar deleting destructor', COMDAT
; _this$ = ecx
	push	ebp
	mov	ebp, esp
	push	ecx
	mov	DWORD PTR _this$[ebp], ecx
	mov	ecx, DWORD PTR _this$[ebp]
	call	??1error_category@std@@UAE@XZ		; std::error_category::~error_category
	mov	eax, DWORD PTR ___flags$[ebp]
	and	eax, 1
	je	SHORT $LN1@scalar
	mov	ecx, DWORD PTR _this$[ebp]
	push	ecx
	call	??3@YAXPAX@Z				; operator delete
	add	esp, 4
$LN1@scalar:
	mov	eax, DWORD PTR _this$[ebp]
	mov	esp, ebp
	pop	ebp
	ret	4
??_Gerror_category@std@@UAEPAXI@Z ENDP			; std::error_category::`scalar deleting destructor'
_TEXT	ENDS
; Function compile flags: /Odtp
; File c:\program files (x86)\microsoft visual studio 11.0\vc\include\system_error
;	COMDAT ??8error_category@std@@QBE_NABV01@@Z
_TEXT	SEGMENT
_this$ = -8						; size = 4
tv65 = -4						; size = 4
__Right$ = 8						; size = 4
??8error_category@std@@QBE_NABV01@@Z PROC		; std::error_category::operator==, COMDAT
; _this$ = ecx

; 184  : 		{	// compare categories for equality

	push	ebp
	mov	ebp, esp
	sub	esp, 8
	mov	DWORD PTR _this$[ebp], ecx

; 185  : 		return (this == &_Right);

	mov	eax, DWORD PTR _this$[ebp]
	cmp	eax, DWORD PTR __Right$[ebp]
	jne	SHORT $LN3@operator
	mov	DWORD PTR tv65[ebp], 1
	jmp	SHORT $LN4@operator
$LN3@operator:
	mov	DWORD PTR tv65[ebp], 0
$LN4@operator:
	mov	al, BYTE PTR tv65[ebp]

; 186  : 		}

	mov	esp, ebp
	pop	ebp
	ret	4
??8error_category@std@@QBE_NABV01@@Z ENDP		; std::error_category::operator==
_TEXT	ENDS
; Function compile flags: /Odtp
; File c:\program files (x86)\microsoft visual studio 11.0\vc\include\system_error
;	COMDAT ?equivalent@error_category@std@@UBE_NABVerror_code@2@H@Z
_TEXT	SEGMENT
_this$ = -8						; size = 4
tv74 = -4						; size = 4
__Code$ = 8						; size = 4
__Errval$ = 12						; size = 4
?equivalent@error_category@std@@UBE_NABVerror_code@2@H@Z PROC ; std::error_category::equivalent, COMDAT
; _this$ = ecx

; 415  : 	{	// test if conditions same for this category

	push	ebp
	mov	ebp, esp
	sub	esp, 8
	mov	DWORD PTR _this$[ebp], ecx

; 416  : 	return (*this == _Code.category() && _Code.value() == _Errval);

	mov	ecx, DWORD PTR __Code$[ebp]
	call	?category@error_code@std@@QBEABVerror_category@2@XZ ; std::error_code::category
	push	eax
	mov	ecx, DWORD PTR _this$[ebp]
	call	??8error_category@std@@QBE_NABV01@@Z	; std::error_category::operator==
	movzx	eax, al
	test	eax, eax
	je	SHORT $LN3@equivalent
	mov	ecx, DWORD PTR __Code$[ebp]
	call	?value@error_code@std@@QBEHXZ		; std::error_code::value
	cmp	eax, DWORD PTR __Errval$[ebp]
	jne	SHORT $LN3@equivalent
	mov	DWORD PTR tv74[ebp], 1
	jmp	SHORT $LN4@equivalent
$LN3@equivalent:
	mov	DWORD PTR tv74[ebp], 0
$LN4@equivalent:
	mov	al, BYTE PTR tv74[ebp]

; 417  : 	}

	mov	esp, ebp
	pop	ebp
	ret	8
?equivalent@error_category@std@@UBE_NABVerror_code@2@H@Z ENDP ; std::error_category::equivalent
_TEXT	ENDS
; Function compile flags: /Odtp
; File c:\program files (x86)\microsoft visual studio 11.0\vc\include\system_error
;	COMDAT ?equivalent@error_category@std@@UBE_NHABVerror_condition@2@@Z
_TEXT	SEGMENT
$T1 = -12						; size = 8
_this$ = -4						; size = 4
__Errval$ = 8						; size = 4
__Cond$ = 12						; size = 4
?equivalent@error_category@std@@UBE_NHABVerror_condition@2@@Z PROC ; std::error_category::equivalent, COMDAT
; _this$ = ecx

; 408  : 	{	// test if error code same condition

	push	ebp
	mov	ebp, esp
	sub	esp, 12					; 0000000cH
	mov	DWORD PTR _this$[ebp], ecx

; 409  : 	return (default_error_condition(_Errval) == _Cond);

	mov	eax, DWORD PTR __Cond$[ebp]
	push	eax
	mov	ecx, DWORD PTR __Errval$[ebp]
	push	ecx
	lea	edx, DWORD PTR $T1[ebp]
	push	edx
	mov	eax, DWORD PTR _this$[ebp]
	mov	edx, DWORD PTR [eax]
	mov	ecx, DWORD PTR _this$[ebp]
	mov	eax, DWORD PTR [edx+12]
	call	eax
	mov	ecx, eax
	call	??8error_condition@std@@QBE_NABV01@@Z	; std::error_condition::operator==

; 410  : 	}

	mov	esp, ebp
	pop	ebp
	ret	8
?equivalent@error_category@std@@UBE_NHABVerror_condition@2@@Z ENDP ; std::error_category::equivalent
_TEXT	ENDS
; Function compile flags: /Odtp
; File c:\program files (x86)\microsoft visual studio 11.0\vc\include\system_error
;	COMDAT ?default_error_condition@error_category@std@@UBE?AVerror_condition@2@H@Z
_TEXT	SEGMENT
_this$ = -4						; size = 4
___$ReturnUdt$ = 8					; size = 4
__Errval$ = 12						; size = 4
?default_error_condition@error_category@std@@UBE?AVerror_condition@2@H@Z PROC ; std::error_category::default_error_condition, COMDAT
; _this$ = ecx

; 401  : 	{	// make error_condition for error code

	push	ebp
	mov	ebp, esp
	push	ecx
	mov	DWORD PTR _this$[ebp], ecx

; 402  : 	return (error_condition(_Errval, *this));

	mov	eax, DWORD PTR _this$[ebp]
	push	eax
	mov	ecx, DWORD PTR __Errval$[ebp]
	push	ecx
	mov	ecx, DWORD PTR ___$ReturnUdt$[ebp]
	call	??0error_condition@std@@QAE@HABVerror_category@1@@Z ; std::error_condition::error_condition
	mov	eax, DWORD PTR ___$ReturnUdt$[ebp]

; 403  : 	}

	mov	esp, ebp
	pop	ebp
	ret	8
?default_error_condition@error_category@std@@UBE?AVerror_condition@2@H@Z ENDP ; std::error_category::default_error_condition
_TEXT	ENDS
; Function compile flags: /Odtp
; File c:\program files (x86)\microsoft visual studio 11.0\vc\include\system_error
;	COMDAT ??1error_category@std@@UAE@XZ
_TEXT	SEGMENT
_this$ = -4						; size = 4
??1error_category@std@@UAE@XZ PROC			; std::error_category::~error_category, COMDAT
; _this$ = ecx

; 167  : 		{	// destroy the object

	push	ebp
	mov	ebp, esp
	push	ecx
	mov	DWORD PTR _this$[ebp], ecx
	mov	eax, DWORD PTR _this$[ebp]
	mov	DWORD PTR [eax], OFFSET ??_7error_category@std@@6B@

; 168  : 		}

	mov	esp, ebp
	pop	ebp
	ret	0
??1error_category@std@@UAE@XZ ENDP			; std::error_category::~error_category
_TEXT	ENDS
; Function compile flags: /Odtp
; File c:\program files (x86)\microsoft visual studio 11.0\vc\include\system_error
;	COMDAT ??0error_category@std@@QAE@XZ
_TEXT	SEGMENT
_this$ = -4						; size = 4
??0error_category@std@@QAE@XZ PROC			; std::error_category::error_category, COMDAT
; _this$ = ecx

; 162  : 	error_category()

	push	ebp
	mov	ebp, esp
	push	ecx
	mov	DWORD PTR _this$[ebp], ecx
	mov	eax, DWORD PTR _this$[ebp]
	mov	DWORD PTR [eax], OFFSET ??_7error_category@std@@6B@

; 163  : 		{	// default constructor
; 164  : 		}

	mov	eax, DWORD PTR _this$[ebp]
	mov	esp, ebp
	pop	ebp
	ret	0
??0error_category@std@@QAE@XZ ENDP			; std::error_category::error_category
_TEXT	ENDS
; Function compile flags: /Odtp
; File c:\program files (x86)\microsoft visual studio 11.0\vc\include\system_error
;	COMDAT ?system_category@std@@YAABVerror_category@1@XZ
_TEXT	SEGMENT
?system_category@std@@YAABVerror_category@1@XZ PROC	; std::system_category, COMDAT

; 679  : 	{	// get system_category

	push	ebp
	mov	ebp, esp

; 680  : 	return (_Error_objects<int>::_System_object);

	mov	eax, OFFSET ?_System_object@?$_Error_objects@H@std@@2V_System_error_category@2@A ; std::_Error_objects<int>::_System_object

; 681  : 	}

	pop	ebp
	ret	0
?system_category@std@@YAABVerror_category@1@XZ ENDP	; std::system_category
_TEXT	ENDS
; Function compile flags: /Odtp
; File c:\program files (x86)\microsoft visual studio 11.0\vc\include\system_error
;	COMDAT ?generic_category@std@@YAABVerror_category@1@XZ
_TEXT	SEGMENT
?generic_category@std@@YAABVerror_category@1@XZ PROC	; std::generic_category, COMDAT

; 669  : 	{	// get generic_category

	push	ebp
	mov	ebp, esp

; 670  : 	return (_Error_objects<int>::_Generic_object);

	mov	eax, OFFSET ?_Generic_object@?$_Error_objects@H@std@@2V_Generic_error_category@2@A ; std::_Error_objects<int>::_Generic_object

; 671  : 	}

	pop	ebp
	ret	0
?generic_category@std@@YAABVerror_category@1@XZ ENDP	; std::generic_category
_TEXT	ENDS
; Function compile flags: /Odtp
; File c:\program files (x86)\microsoft visual studio 11.0\vc\include\xlocale
;	COMDAT ??0id@locale@std@@QAE@I@Z
_TEXT	SEGMENT
_this$ = -4						; size = 4
__Val$ = 8						; size = 4
??0id@locale@std@@QAE@I@Z PROC				; std::locale::id::id, COMDAT
; _this$ = ecx

; 74   : 			{	// construct with specified stamp value

	push	ebp
	mov	ebp, esp
	push	ecx
	mov	DWORD PTR _this$[ebp], ecx
	mov	eax, DWORD PTR _this$[ebp]
	mov	ecx, DWORD PTR __Val$[ebp]
	mov	DWORD PTR [eax], ecx

; 75   : 			}

	mov	eax, DWORD PTR _this$[ebp]
	mov	esp, ebp
	pop	ebp
	ret	4
??0id@locale@std@@QAE@I@Z ENDP				; std::locale::id::id
_TEXT	ENDS
; Function compile flags: /Odtp
; File c:\users\zhitao li\documents\visual studio 2012\projects\freefalcon\sim\include\digi.h
;	COMDAT ?IsSetATC@DigitalBrain@@QAEHH@Z
_TEXT	SEGMENT
_this$ = -8						; size = 4
tv68 = -4						; size = 4
_flag$ = 8						; size = 4
?IsSetATC@DigitalBrain@@QAEHH@Z PROC			; DigitalBrain::IsSetATC, COMDAT
; _this$ = ecx

; 709  : 	int		IsSetATC(int flag)								{return (atcFlags & flag) && TRUE;}

	push	ebp
	mov	ebp, esp
	sub	esp, 8
	mov	DWORD PTR _this$[ebp], ecx
	mov	eax, DWORD PTR _this$[ebp]
	mov	ecx, DWORD PTR [eax+300]
	and	ecx, DWORD PTR _flag$[ebp]
	je	SHORT $LN3@IsSetATC
	mov	edx, 1
	test	edx, edx
	je	SHORT $LN3@IsSetATC
	mov	DWORD PTR tv68[ebp], 1
	jmp	SHORT $LN4@IsSetATC
$LN3@IsSetATC:
	mov	DWORD PTR tv68[ebp], 0
$LN4@IsSetATC:
	mov	eax, DWORD PTR tv68[ebp]
	mov	esp, ebp
	pop	ebp
	ret	4
?IsSetATC@DigitalBrain@@QAEHH@Z ENDP			; DigitalBrain::IsSetATC
_TEXT	ENDS
; Function compile flags: /Odtp
; File c:\users\zhitao li\documents\visual studio 2012\projects\freefalcon\sim\include\digi.h
;	COMDAT ?SetATCFlag@DigitalBrain@@QAEXH@Z
_TEXT	SEGMENT
_this$ = -4						; size = 4
_flag$ = 8						; size = 4
?SetATCFlag@DigitalBrain@@QAEXH@Z PROC			; DigitalBrain::SetATCFlag, COMDAT
; _this$ = ecx

; 707  : 	void	SetATCFlag(int flag)							{atcFlags |= flag;}

	push	ebp
	mov	ebp, esp
	push	ecx
	mov	DWORD PTR _this$[ebp], ecx
	mov	eax, DWORD PTR _this$[ebp]
	mov	ecx, DWORD PTR [eax+300]
	or	ecx, DWORD PTR _flag$[ebp]
	mov	edx, DWORD PTR _this$[ebp]
	mov	DWORD PTR [edx+300], ecx
	mov	esp, ebp
	pop	ebp
	ret	4
?SetATCFlag@DigitalBrain@@QAEXH@Z ENDP			; DigitalBrain::SetATCFlag
_TEXT	ENDS
; Function compile flags: /Odtp
; File c:\users\zhitao li\documents\visual studio 2012\projects\freefalcon\sim\include\digi.h
;	COMDAT ?SetTrackPoint@DigitalBrain@@QAEXMMM@Z
_TEXT	SEGMENT
_this$ = -4						; size = 4
_x$ = 8							; size = 4
_y$ = 12						; size = 4
_z$ = 16						; size = 4
?SetTrackPoint@DigitalBrain@@QAEXMMM@Z PROC		; DigitalBrain::SetTrackPoint, COMDAT
; _this$ = ecx

; 699  : 	void	SetTrackPoint(float x, float y, float z){ SetTrackPoint(x, y); trackZ = z; }

	push	ebp
	mov	ebp, esp
	push	ecx
	mov	DWORD PTR _this$[ebp], ecx
	push	ecx
	movss	xmm0, DWORD PTR _y$[ebp]
	movss	DWORD PTR [esp], xmm0
	push	ecx
	movss	xmm0, DWORD PTR _x$[ebp]
	movss	DWORD PTR [esp], xmm0
	mov	ecx, DWORD PTR _this$[ebp]
	call	?SetTrackPoint@DigitalBrain@@QAEXMM@Z	; DigitalBrain::SetTrackPoint
	mov	eax, DWORD PTR _this$[ebp]
	movss	xmm0, DWORD PTR _z$[ebp]
	movss	DWORD PTR [eax+156], xmm0
	mov	esp, ebp
	pop	ebp
	ret	12					; 0000000cH
?SetTrackPoint@DigitalBrain@@QAEXMMM@Z ENDP		; DigitalBrain::SetTrackPoint
_TEXT	ENDS
; Function compile flags: /Odtp
; File c:\users\zhitao li\documents\visual studio 2012\projects\freefalcon\sim\include\digi.h
;	COMDAT ?SetTrackPoint@DigitalBrain@@QAEXMM@Z
_TEXT	SEGMENT
_this$ = -4						; size = 4
_x$ = 8							; size = 4
_y$ = 12						; size = 4
?SetTrackPoint@DigitalBrain@@QAEXMM@Z PROC		; DigitalBrain::SetTrackPoint, COMDAT
; _this$ = ecx

; 698  : 	void	SetTrackPoint(float x, float y){ trackX = x; trackY=y; }

	push	ebp
	mov	ebp, esp
	push	ecx
	mov	DWORD PTR _this$[ebp], ecx
	mov	eax, DWORD PTR _this$[ebp]
	movss	xmm0, DWORD PTR _x$[ebp]
	movss	DWORD PTR [eax+148], xmm0
	mov	ecx, DWORD PTR _this$[ebp]
	movss	xmm0, DWORD PTR _y$[ebp]
	movss	DWORD PTR [ecx+152], xmm0
	mov	esp, ebp
	pop	ebp
	ret	8
?SetTrackPoint@DigitalBrain@@QAEXMM@Z ENDP		; DigitalBrain::SetTrackPoint
_TEXT	ENDS
; Function compile flags: /Odtp
; File c:\users\zhitao li\documents\visual studio 2012\projects\freefalcon\sim\digi\waypoint.cpp
_TEXT	SEGMENT
tv913 = -160						; size = 8
_tfloor$1 = -152					; size = 4
tv940 = -148						; size = 4
tv761 = -144						; size = 4
tv834 = -140						; size = 4
_vehInFlight$ = -136					; size = 4
tv825 = -132						; size = 4
tv723 = -128						; size = 4
tv818 = -124						; size = 4
_tz$2 = -120						; size = 4
tv946 = -116						; size = 4
_ty$3 = -112						; size = 4
tv795 = -108						; size = 4
tv738 = -104						; size = 4
tv786 = -100						; size = 4
tv718 = -96						; size = 4
tv776 = -92						; size = 4
tv706 = -88						; size = 4
tv944 = -84						; size = 4
tv938 = -80						; size = 4
tv771 = -76						; size = 4
_tx$4 = -72						; size = 4
tv766 = -68						; size = 4
tv942 = -64						; size = 4
tv701 = -60						; size = 4
tv910 = -56						; size = 4
_tceil$5 = -52						; size = 4
_desSpeed$ = -48					; size = 4
_ttg$ = -44						; size = 4
_gainCtrl$ = -40					; size = 4
_rangeFactor$ = -36					; size = 4
_rng$ = -32						; size = 4
_tmpWaypoint$ = -28					; size = 4
_timeDelta$ = -24					; size = 4
_xerr$ = -20						; size = 4
_yerr$ = -16						; size = 4
_flightIdx$ = -12					; size = 4
_curPosition$ = -8					; size = 4
_this$ = -4						; size = 4
?SimpleGoToCurrentWaypoint@DigitalBrain@@IAEXXZ PROC	; DigitalBrain::SimpleGoToCurrentWaypoint
; _this$ = ecx

; 271  : {

	push	ebp
	mov	ebp, esp
	sub	esp, 160				; 000000a0H
	push	esi
	mov	DWORD PTR _this$[ebp], ecx

; 272  : float	xerr, yerr;
; 273  : float rng;
; 274  : float desSpeed; //desSpeedAlt TJL 02/20/04
; 275  : float ttg = 1.0;

	movss	xmm0, DWORD PTR __real@3f800000
	movss	DWORD PTR _ttg$[ebp], xmm0

; 276  : WayPointClass* tmpWaypoint;
; 277  : long timeDelta;
; 278  : float gainCtrl;
; 279  : int				vehInFlight;
; 280  : int				flightIdx;
; 281  : ACFormationData::PositionData *curPosition;
; 282  : float				rangeFactor;
; 283  : //int thisWP;
; 284  : //int nextWP;
; 285  : 
; 286  :    // prevent too much gain in controls
; 287  :    // except when we're too close to ground
; 288  :    gainCtrl = 0.25f;

	movss	xmm0, DWORD PTR __real@3e800000
	movss	DWORD PTR _gainCtrl$[ebp], xmm0

; 289  : 
; 290  : 	 // Cobra - Make sure groundAvoidNeeded is not needed 
; 291  : //		if (pullupTimer < SimLibElapsedTime)
; 292  : //		{
; 293  : //			groundAvoidNeeded = FALSE;
; 294  : //			pullupTimer = 0;
; 295  : //		}
; 296  : 
; 297  :    // see if we're in a ag attack mode
; 298  :    if ( agDoctrine == AGD_NONE )

	mov	eax, DWORD PTR _this$[ebp]
	cmp	DWORD PTR [eax+244], 0
	jne	$LN43@SimpleGoTo

; 299  :    {
; 300  : 	   float tx, ty, tz;
; 301  :    		self->curWaypoint->GetLocation (&tx, &ty, &tz);

	lea	ecx, DWORD PTR _tz$2[ebp]
	push	ecx
	lea	edx, DWORD PTR _ty$3[ebp]
	push	edx
	lea	eax, DWORD PTR _tx$4[ebp]
	push	eax
	mov	ecx, DWORD PTR _this$[ebp]
	mov	edx, DWORD PTR [ecx+56]
	mov	ecx, DWORD PTR [edx+728]
	call	?GetLocation@WayPointClass@@QBEXPAM00@Z	; WayPointClass::GetLocation

; 302  : 		SetTrackPoint(tx, ty, tz);

	push	ecx
	movss	xmm0, DWORD PTR _tz$2[ebp]
	movss	DWORD PTR [esp], xmm0
	push	ecx
	movss	xmm0, DWORD PTR _ty$3[ebp]
	movss	DWORD PTR [esp], xmm0
	push	ecx
	movss	xmm0, DWORD PTR _tx$4[ebp]
	movss	DWORD PTR [esp], xmm0
	mov	ecx, DWORD PTR _this$[ebp]
	call	?SetTrackPoint@DigitalBrain@@QAEXMMM@Z	; DigitalBrain::SetTrackPoint

; 303  : 
; 304  : 		// Adjust position to avoid collision near waypoint
; 305  : 		vehInFlight		= ((FlightClass*)self->GetCampaignObject())->GetTotalVehicles();

	mov	eax, DWORD PTR _this$[ebp]
	mov	ecx, DWORD PTR [eax+56]
	call	?GetCampaignObject@SimBaseClass@@QAEPAVCampBaseClass@@XZ ; SimBaseClass::GetCampaignObject
	mov	ecx, eax
	call	?GetTotalVehicles@UnitClass@@QAEHXZ	; UnitClass::GetTotalVehicles
	mov	DWORD PTR _vehInFlight$[ebp], eax

; 306  : 		flightIdx		= ((FlightClass*)self->GetCampaignObject())->GetComponentIndex(self);

	mov	ecx, DWORD PTR _this$[ebp]
	mov	edx, DWORD PTR [ecx+56]
	push	edx
	mov	eax, DWORD PTR _this$[ebp]
	mov	ecx, DWORD PTR [eax+56]
	call	?GetCampaignObject@SimBaseClass@@QAEPAVCampBaseClass@@XZ ; SimBaseClass::GetCampaignObject
	mov	ecx, eax
	call	?GetComponentIndex@CampBaseClass@@QAEHPAVVuEntity@@@Z ; CampBaseClass::GetComponentIndex
	mov	DWORD PTR _flightIdx$[ebp], eax

; 307  : 
; 308  : 		if (flightIdx != 0)

	cmp	DWORD PTR _flightIdx$[ebp], 0
	je	$LN36@SimpleGoTo

; 309  : 		{
; 310  : 			if(flightIdx == AiFirstWing && vehInFlight == 2) 

	cmp	DWORD PTR _flightIdx$[ebp], 1
	jne	SHORT $LN41@SimpleGoTo
	cmp	DWORD PTR _vehInFlight$[ebp], 2
	jne	SHORT $LN41@SimpleGoTo

; 311  : 			{
; 312  : 				curPosition	= &(acFormationData->twoposData[mFormation]);	// The four ship #2 slot position is copied in to the 2 ship formation array.

	mov	ecx, DWORD PTR _this$[ebp]
	mov	edx, DWORD PTR [ecx+808]
	shl	edx, 4
	mov	eax, DWORD PTR ?acFormationData@@3PAVACFormationData@@A ; acFormationData
	add	edx, DWORD PTR [eax+8]
	mov	DWORD PTR _curPosition$[ebp], edx
	jmp	SHORT $LN38@SimpleGoTo
$LN41@SimpleGoTo:

; 313  : 			}
; 314  : 			else if(flightIdx == AiSecondWing && mSplitFlight)

	cmp	DWORD PTR _flightIdx$[ebp], 3
	jne	SHORT $LN39@SimpleGoTo
	mov	ecx, DWORD PTR _this$[ebp]
	cmp	DWORD PTR [ecx+892], 0
	je	SHORT $LN39@SimpleGoTo

; 315  : 			{
; 316  : 				curPosition = &(acFormationData->twoposData[mFormation]);

	mov	edx, DWORD PTR _this$[ebp]
	mov	eax, DWORD PTR [edx+808]
	shl	eax, 4
	mov	ecx, DWORD PTR ?acFormationData@@3PAVACFormationData@@A ; acFormationData
	add	eax, DWORD PTR [ecx+8]
	mov	DWORD PTR _curPosition$[ebp], eax

; 317  : 			}
; 318  : 			else

	jmp	SHORT $LN38@SimpleGoTo
$LN39@SimpleGoTo:

; 319  : 			{
; 320  : 				curPosition = &(acFormationData->positionData[mFormation][flightIdx - 1]);

	mov	edx, DWORD PTR _this$[ebp]
	mov	eax, DWORD PTR [edx+808]
	mov	ecx, DWORD PTR ?acFormationData@@3PAVACFormationData@@A ; acFormationData
	mov	edx, DWORD PTR [ecx+4]
	mov	ecx, DWORD PTR _flightIdx$[ebp]
	sub	ecx, 1
	shl	ecx, 4
	add	ecx, DWORD PTR [edx+eax*4]
	mov	DWORD PTR _curPosition$[ebp], ecx
$LN38@SimpleGoTo:

; 321  : 			}
; 322  : 
; 323  : 			rangeFactor		= curPosition->range * (2.0F * mFormLateralSpaceFactor);

	mov	edx, DWORD PTR _this$[ebp]
	movss	xmm0, DWORD PTR __real@40000000
	mulss	xmm0, DWORD PTR [edx+904]
	mov	eax, DWORD PTR _curPosition$[ebp]
	mulss	xmm0, DWORD PTR [eax+12]
	movss	DWORD PTR _rangeFactor$[ebp], xmm0

; 324  : 
; 325  : 			trackX	+= rangeFactor * (float)cos(curPosition->relAz * mFormSide + self->Yaw());

	mov	ecx, DWORD PTR _this$[ebp]
	cvtsi2ss xmm0, DWORD PTR [ecx+900]
	mov	edx, DWORD PTR _curPosition$[ebp]
	mulss	xmm0, DWORD PTR [edx+4]
	mov	eax, DWORD PTR _this$[ebp]
	mov	ecx, DWORD PTR [eax+56]
	movss	DWORD PTR tv938[ebp], xmm0
	call	?Yaw@VuEntity@@QBEMXZ			; VuEntity::Yaw
	fstp	DWORD PTR tv701[ebp]
	movss	xmm0, DWORD PTR tv938[ebp]
	addss	xmm0, DWORD PTR tv701[ebp]
	push	ecx
	movss	DWORD PTR [esp], xmm0
	call	?cos@@YAMM@Z				; cos
	add	esp, 4
	fstp	DWORD PTR tv706[ebp]
	movss	xmm0, DWORD PTR tv706[ebp]
	mulss	xmm0, DWORD PTR _rangeFactor$[ebp]
	mov	ecx, DWORD PTR _this$[ebp]
	addss	xmm0, DWORD PTR [ecx+148]
	mov	edx, DWORD PTR _this$[ebp]
	movss	DWORD PTR [edx+148], xmm0

; 326  : 			trackY	+= rangeFactor * (float)sin(curPosition->relAz * mFormSide + self->Yaw());		

	mov	eax, DWORD PTR _this$[ebp]
	cvtsi2ss xmm0, DWORD PTR [eax+900]
	mov	ecx, DWORD PTR _curPosition$[ebp]
	mulss	xmm0, DWORD PTR [ecx+4]
	mov	edx, DWORD PTR _this$[ebp]
	mov	ecx, DWORD PTR [edx+56]
	movss	DWORD PTR tv940[ebp], xmm0
	call	?Yaw@VuEntity@@QBEMXZ			; VuEntity::Yaw
	fstp	DWORD PTR tv718[ebp]
	movss	xmm0, DWORD PTR tv940[ebp]
	addss	xmm0, DWORD PTR tv718[ebp]
	push	ecx
	movss	DWORD PTR [esp], xmm0
	call	?sin@@YAMM@Z				; sin
	add	esp, 4
	fstp	DWORD PTR tv723[ebp]
	movss	xmm0, DWORD PTR tv723[ebp]
	mulss	xmm0, DWORD PTR _rangeFactor$[ebp]
	mov	eax, DWORD PTR _this$[ebp]
	addss	xmm0, DWORD PTR [eax+152]
	mov	ecx, DWORD PTR _this$[ebp]
	movss	DWORD PTR [ecx+152], xmm0

; 327  : 
; 328  : 			if(curPosition->relEl)

	mov	edx, DWORD PTR _curPosition$[ebp]
	movss	xmm0, DWORD PTR [edx+8]
	ucomiss	xmm0, DWORD PTR __real@00000000
	lahf
	test	ah, 68					; 00000044H
	jnp	SHORT $LN37@SimpleGoTo

; 329  : 			{
; 330  : 				trackZ	+= rangeFactor * (float)sin(-curPosition->relEl);

	mov	eax, DWORD PTR _curPosition$[ebp]
	movss	xmm0, DWORD PTR [eax+8]
	xorps	xmm0, DWORD PTR __xmm@80000000800000008000000080000000
	push	ecx
	movss	DWORD PTR [esp], xmm0
	call	?sin@@YAMM@Z				; sin
	add	esp, 4
	fstp	DWORD PTR tv738[ebp]
	movss	xmm0, DWORD PTR tv738[ebp]
	mulss	xmm0, DWORD PTR _rangeFactor$[ebp]
	mov	ecx, DWORD PTR _this$[ebp]
	addss	xmm0, DWORD PTR [ecx+156]
	mov	edx, DWORD PTR _this$[ebp]
	movss	DWORD PTR [edx+156], xmm0

; 331  : 			}
; 332  : 			else

	jmp	SHORT $LN36@SimpleGoTo
$LN37@SimpleGoTo:

; 333  : 			{
; 334  : 				trackZ += (flightIdx * -100.0F);

	cvtsi2ss xmm0, DWORD PTR _flightIdx$[ebp]
	mulss	xmm0, DWORD PTR __real@c2c80000
	mov	eax, DWORD PTR _this$[ebp]
	addss	xmm0, DWORD PTR [eax+156]
	mov	ecx, DWORD PTR _this$[ebp]
	movss	DWORD PTR [ecx+156], xmm0
$LN36@SimpleGoTo:

; 335  : 			}
; 336  : 		}
; 337  :    }
; 338  :    else

	jmp	SHORT $LN35@SimpleGoTo
$LN43@SimpleGoTo:

; 339  :    {
; 340  : 	   SetTrackPoint(ipX, ipY, ipZ);

	mov	edx, DWORD PTR _this$[ebp]
	push	ecx
	movss	xmm0, DWORD PTR [edx+276]
	movss	DWORD PTR [esp], xmm0
	mov	eax, DWORD PTR _this$[ebp]
	push	ecx
	movss	xmm0, DWORD PTR [eax+272]
	movss	DWORD PTR [esp], xmm0
	mov	ecx, DWORD PTR _this$[ebp]
	push	ecx
	movss	xmm0, DWORD PTR [ecx+268]
	movss	DWORD PTR [esp], xmm0
	mov	ecx, DWORD PTR _this$[ebp]
	call	?SetTrackPoint@DigitalBrain@@QAEXMMM@Z	; DigitalBrain::SetTrackPoint
$LN35@SimpleGoTo:

; 341  :    }
; 342  : 
; 343  :    // edg: according to Kevin, waypoint Z's set for <= 5000.0f indicate
; 344  :    // terrain following, we'll modify our trackZ accordingly by looking
; 345  :    // 1 second and getting ground alt then setting ourselves to follow
; 346  :    // at 500ft.
; 347  : 	 // Cobra  - externalized WP min altitude
; 348  :    if ( trackZ >= -5000.0f )

	mov	edx, DWORD PTR _this$[ebp]
	movss	xmm0, DWORD PTR [edx+156]
	comiss	xmm0, DWORD PTR __real@c59c4000
	jb	$LN34@SimpleGoTo

; 349  :    {
; 350  : 	   trackZ = OTWDriver.GetGroundLevel( self->XPos() + self->XDelta(),
; 351  : 	   									  self->YPos() + self->YDelta() );

	push	0
	mov	eax, DWORD PTR _this$[ebp]
	mov	ecx, DWORD PTR [eax+56]
	call	?YPos@VuEntity@@QBEMXZ			; VuEntity::YPos
	fstp	DWORD PTR tv761[ebp]
	movss	xmm0, DWORD PTR tv761[ebp]
	mov	ecx, DWORD PTR _this$[ebp]
	mov	ecx, DWORD PTR [ecx+56]
	movss	DWORD PTR tv942[ebp], xmm0
	call	?YDelta@VuEntity@@QBEMXZ		; VuEntity::YDelta
	fstp	DWORD PTR tv766[ebp]
	movss	xmm0, DWORD PTR tv942[ebp]
	addss	xmm0, DWORD PTR tv766[ebp]
	push	ecx
	movss	DWORD PTR [esp], xmm0
	mov	edx, DWORD PTR _this$[ebp]
	mov	ecx, DWORD PTR [edx+56]
	call	?XPos@VuEntity@@QBEMXZ			; VuEntity::XPos
	fstp	DWORD PTR tv771[ebp]
	movss	xmm0, DWORD PTR tv771[ebp]
	mov	eax, DWORD PTR _this$[ebp]
	mov	ecx, DWORD PTR [eax+56]
	movss	DWORD PTR tv944[ebp], xmm0
	call	?XDelta@VuEntity@@QBEMXZ		; VuEntity::XDelta
	fstp	DWORD PTR tv776[ebp]
	movss	xmm0, DWORD PTR tv944[ebp]
	addss	xmm0, DWORD PTR tv776[ebp]
	push	ecx
	movss	DWORD PTR [esp], xmm0
	mov	ecx, OFFSET ?OTWDriver@@3VOTWDriverClass@@A ; OTWDriver
	call	?GetGroundLevel@OTWDriverClass@@QAEMMMPAUTpoint@@@Z ; OTWDriverClass::GetGroundLevel
	mov	ecx, DWORD PTR _this$[ebp]
	fstp	DWORD PTR [ecx+156]

; 352  : 	   // if we're below track alt, kick us up a bit harder so we don't plow
; 353  : 	   // into steeper slopes
; 354  : 	   if ( self->ZPos() - trackZ > -g_fAIMinWPAlt )

	mov	edx, DWORD PTR _this$[ebp]
	mov	ecx, DWORD PTR [edx+56]
	call	?ZPos@VuEntity@@QBEMXZ			; VuEntity::ZPos
	fstp	DWORD PTR tv786[ebp]
	movss	xmm0, DWORD PTR tv786[ebp]
	mov	eax, DWORD PTR _this$[ebp]
	subss	xmm0, DWORD PTR [eax+156]
	movss	xmm1, DWORD PTR ?g_fAIMinWPAlt@@3MA
	xorps	xmm1, DWORD PTR __xmm@80000000800000008000000080000000
	comiss	xmm0, xmm1
	jbe	SHORT $LN33@SimpleGoTo

; 355  : 	   {
; 356  : 	   		trackZ = trackZ - g_fAIMinWPAlt - ( self->ZPos() - trackZ + g_fAIMinWPAlt ) * 2.0f;

	mov	ecx, DWORD PTR _this$[ebp]
	movss	xmm0, DWORD PTR [ecx+156]
	subss	xmm0, DWORD PTR ?g_fAIMinWPAlt@@3MA
	mov	edx, DWORD PTR _this$[ebp]
	mov	ecx, DWORD PTR [edx+56]
	movss	DWORD PTR tv946[ebp], xmm0
	call	?ZPos@VuEntity@@QBEMXZ			; VuEntity::ZPos
	fstp	DWORD PTR tv795[ebp]
	movss	xmm0, DWORD PTR tv795[ebp]
	mov	eax, DWORD PTR _this$[ebp]
	subss	xmm0, DWORD PTR [eax+156]
	addss	xmm0, DWORD PTR ?g_fAIMinWPAlt@@3MA
	mulss	xmm0, DWORD PTR __real@40000000
	movss	xmm1, DWORD PTR tv946[ebp]
	subss	xmm1, xmm0
	mov	ecx, DWORD PTR _this$[ebp]
	movss	DWORD PTR [ecx+156], xmm1

; 357  : 			gainCtrl = 1.5f;

	movss	xmm0, DWORD PTR __real@3fc00000
	movss	DWORD PTR _gainCtrl$[ebp], xmm0

; 358  : 	   }
; 359  : 	   else

	jmp	SHORT $LN32@SimpleGoTo
$LN33@SimpleGoTo:

; 360  : 	   		trackZ -= g_fAIMinWPAlt;

	mov	edx, DWORD PTR _this$[ebp]
	movss	xmm0, DWORD PTR [edx+156]
	subss	xmm0, DWORD PTR ?g_fAIMinWPAlt@@3MA
	mov	eax, DWORD PTR _this$[ebp]
	movss	DWORD PTR [eax+156], xmm0
$LN32@SimpleGoTo:

; 361  :    }
; 362  :    else

	jmp	SHORT $LN30@SimpleGoTo
$LN34@SimpleGoTo:

; 363  :    {
; 364  : 	  // check to make sure we're above everything around
; 365  : 	  float tfloor, tceil;
; 366  : 
; 367  :     OTWDriver.GetAreaFloorAndCeiling( &tfloor, &tceil );

	lea	ecx, DWORD PTR _tceil$5[ebp]
	push	ecx
	lea	edx, DWORD PTR _tfloor$1[ebp]
	push	edx
	mov	ecx, OFFSET ?OTWDriver@@3VOTWDriverClass@@A ; OTWDriver
	call	?GetAreaFloorAndCeiling@OTWDriverClass@@QAEXPAM0@Z ; OTWDriverClass::GetAreaFloorAndCeiling

; 368  : 	  if ( trackZ > tceil - g_fAIMinWPAlt )

	movss	xmm0, DWORD PTR _tceil$5[ebp]
	subss	xmm0, DWORD PTR ?g_fAIMinWPAlt@@3MA
	mov	eax, DWORD PTR _this$[ebp]
	movss	xmm1, DWORD PTR [eax+156]
	comiss	xmm1, xmm0
	jbe	SHORT $LN30@SimpleGoTo

; 369  : 	  {
; 370  : 			gainCtrl = 1.5f;

	movss	xmm0, DWORD PTR __real@3fc00000
	movss	DWORD PTR _gainCtrl$[ebp], xmm0

; 371  : 	  	trackZ = tceil - g_fAIMinWPAlt;

	movss	xmm0, DWORD PTR _tceil$5[ebp]
	subss	xmm0, DWORD PTR ?g_fAIMinWPAlt@@3MA
	mov	ecx, DWORD PTR _this$[ebp]
	movss	DWORD PTR [ecx+156], xmm0
$LN30@SimpleGoTo:

; 372  : 	  }
; 373  :    }
; 374  : 
; 375  :    if (curMode != lastMode)

	mov	edx, DWORD PTR _this$[ebp]
	mov	eax, DWORD PTR _this$[ebp]
	mov	ecx, DWORD PTR [edx+136]
	cmp	ecx, DWORD PTR [eax+140]
	je	SHORT $LN29@SimpleGoTo

; 376  :    {
; 377  :       onStation = NotThereYet;

	mov	edx, DWORD PTR _this$[ebp]
	mov	DWORD PTR [edx+132], 0
$LN29@SimpleGoTo:

; 378  :    }
; 379  : 
; 380  : 	/*---------------------------*/
; 381  : 	/* Range to current waypoint */
; 382  : 	/*---------------------------*/
; 383  : 	xerr	= trackX - self->XPos();

	mov	eax, DWORD PTR _this$[ebp]
	mov	ecx, DWORD PTR [eax+56]
	call	?XPos@VuEntity@@QBEMXZ			; VuEntity::XPos
	fstp	DWORD PTR tv818[ebp]
	mov	ecx, DWORD PTR _this$[ebp]
	movss	xmm0, DWORD PTR [ecx+148]
	subss	xmm0, DWORD PTR tv818[ebp]
	movss	DWORD PTR _xerr$[ebp], xmm0

; 384  : 	yerr	= trackY - self->YPos();

	mov	edx, DWORD PTR _this$[ebp]
	mov	ecx, DWORD PTR [edx+56]
	call	?YPos@VuEntity@@QBEMXZ			; VuEntity::YPos
	fstp	DWORD PTR tv825[ebp]
	mov	eax, DWORD PTR _this$[ebp]
	movss	xmm0, DWORD PTR [eax+152]
	subss	xmm0, DWORD PTR tv825[ebp]
	movss	DWORD PTR _yerr$[ebp], xmm0

; 385  : 	rng	= sqrtf(xerr * xerr + yerr * yerr)*FT_TO_NM;

	movss	xmm0, DWORD PTR _xerr$[ebp]
	mulss	xmm0, DWORD PTR _xerr$[ebp]
	movss	xmm1, DWORD PTR _yerr$[ebp]
	mulss	xmm1, DWORD PTR _yerr$[ebp]
	addss	xmm0, xmm1
	push	ecx
	movss	DWORD PTR [esp], xmm0
	call	?SqrtSSE@@YAMM@Z			; SqrtSSE
	add	esp, 4
	fstp	DWORD PTR tv834[ebp]
	movss	xmm0, DWORD PTR tv834[ebp]
	mulss	xmm0, DWORD PTR __real@392c987a
	movss	DWORD PTR _rng$[ebp], xmm0

; 386  : 
; 387  : 	/*---------------------------*/
; 388  : 	/* Reached the next waypoint? */
; 389  : 	/*---------------------------*/
; 390  : 	// Cobra - Change rng to 2 nm (was 1 nm) to give AI a little more leeway in hitting the WP.
; 391  : 	// Cobra - Added loitering timer check (agmergeTimer)
; 392  : 	if(rng < 2.0f || (onStation != NotThereYet) || (SimLibElapsedTime > self->curWaypoint->GetWPDepartureTime()))

	movss	xmm0, DWORD PTR __real@40000000
	comiss	xmm0, DWORD PTR _rng$[ebp]
	ja	SHORT $LN27@SimpleGoTo
	mov	ecx, DWORD PTR _this$[ebp]
	cmp	DWORD PTR [ecx+132], 0
	jne	SHORT $LN27@SimpleGoTo
	mov	edx, DWORD PTR _this$[ebp]
	mov	eax, DWORD PTR [edx+56]
	mov	ecx, DWORD PTR [eax+728]
	call	?GetWPDepartureTime@WayPointClass@@QAEKXZ ; WayPointClass::GetWPDepartureTime
	cmp	DWORD PTR ?SimLibElapsedTime@@3KA, eax	; SimLibElapsedTime
	jbe	$LN28@SimpleGoTo
$LN27@SimpleGoTo:

; 393  : 	{
; 394  :      // Should we repeat?
; 395  :       if (self && self->curWaypoint && self->curWaypoint->GetWPFlags() & (WPF_REPEAT | WPF_REPEAT_CONTINUOUS))

	mov	ecx, DWORD PTR _this$[ebp]
	cmp	DWORD PTR [ecx+56], 0
	je	$LN26@SimpleGoTo
	mov	edx, DWORD PTR _this$[ebp]
	mov	eax, DWORD PTR [edx+56]
	cmp	DWORD PTR [eax+728], 0
	je	$LN26@SimpleGoTo
	mov	ecx, DWORD PTR _this$[ebp]
	mov	edx, DWORD PTR [ecx+56]
	mov	ecx, DWORD PTR [edx+728]
	call	?GetWPFlags@WayPointClass@@QAEKXZ	; WayPointClass::GetWPFlags
	and	eax, 4160				; 00001040H
	je	$LN26@SimpleGoTo

; 396  :       {
; 397  :          if ((self->curWaypoint->GetWPFlags() & WPF_REPEAT_CONTINUOUS) ||
; 398  :               SimLibElapsedTime < self->curWaypoint->GetWPDepartureTime())

	mov	eax, DWORD PTR _this$[ebp]
	mov	ecx, DWORD PTR [eax+56]
	mov	ecx, DWORD PTR [ecx+728]
	call	?GetWPFlags@WayPointClass@@QAEKXZ	; WayPointClass::GetWPFlags
	and	eax, 4096				; 00001000H
	jne	SHORT $LN24@SimpleGoTo
	mov	edx, DWORD PTR _this$[ebp]
	mov	eax, DWORD PTR [edx+56]
	mov	ecx, DWORD PTR [eax+728]
	call	?GetWPDepartureTime@WayPointClass@@QAEKXZ ; WayPointClass::GetWPDepartureTime
	cmp	DWORD PTR ?SimLibElapsedTime@@3KA, eax	; SimLibElapsedTime
	jae	$LN25@SimpleGoTo
$LN24@SimpleGoTo:

; 399  :          {
; 400  :             // Find prev waypoint
; 401  :             tmpWaypoint = self->curWaypoint->GetPrevWP ();

	mov	ecx, DWORD PTR _this$[ebp]
	mov	edx, DWORD PTR [ecx+56]
	mov	ecx, DWORD PTR [edx+728]
	call	?GetPrevWP@WayPointClass@@QAEPAV1@XZ	; WayPointClass::GetPrevWP
	mov	DWORD PTR _tmpWaypoint$[ebp], eax

; 402  : 
; 403  :             // Get travel time between points
; 404  :             timeDelta = self->curWaypoint->GetWPArrivalTime() - tmpWaypoint->GetWPDepartureTime();

	mov	eax, DWORD PTR _this$[ebp]
	mov	ecx, DWORD PTR [eax+56]
	mov	ecx, DWORD PTR [ecx+728]
	call	?GetWPArrivalTime@WayPointClass@@QAEKXZ	; WayPointClass::GetWPArrivalTime
	mov	esi, eax
	mov	ecx, DWORD PTR _tmpWaypoint$[ebp]
	call	?GetWPDepartureTime@WayPointClass@@QAEKXZ ; WayPointClass::GetWPDepartureTime
	sub	esi, eax
	mov	DWORD PTR _timeDelta$[ebp], esi

; 405  : 
; 406  :             // Reset arrival and departure points for first waypoint
; 407  :             tmpWaypoint->SetWPArrive (self->curWaypoint->GetWPArrivalTime() + timeDelta);

	mov	edx, DWORD PTR _this$[ebp]
	mov	eax, DWORD PTR [edx+56]
	mov	ecx, DWORD PTR [eax+728]
	call	?GetWPArrivalTime@WayPointClass@@QAEKXZ	; WayPointClass::GetWPArrivalTime
	add	eax, DWORD PTR _timeDelta$[ebp]
	push	eax
	mov	ecx, DWORD PTR _tmpWaypoint$[ebp]
	call	?SetWPArrive@WayPointClass@@QAEXK@Z	; WayPointClass::SetWPArrive

; 408  :             tmpWaypoint->SetWPDepartTime (self->curWaypoint->GetWPArrivalTime() + timeDelta);

	mov	ecx, DWORD PTR _this$[ebp]
	mov	edx, DWORD PTR [ecx+56]
	mov	ecx, DWORD PTR [edx+728]
	call	?GetWPArrivalTime@WayPointClass@@QAEKXZ	; WayPointClass::GetWPArrivalTime
	add	eax, DWORD PTR _timeDelta$[ebp]
	push	eax
	mov	ecx, DWORD PTR _tmpWaypoint$[ebp]
	call	?SetWPDepartTime@WayPointClass@@QAEXK@Z	; WayPointClass::SetWPDepartTime

; 409  : 
; 410  :             // reset arrival time for end waypoint
; 411  :             self->curWaypoint->SetWPArrive (self->curWaypoint->GetWPArrivalTime() + 2 * timeDelta);

	mov	eax, DWORD PTR _this$[ebp]
	mov	ecx, DWORD PTR [eax+56]
	mov	ecx, DWORD PTR [ecx+728]
	call	?GetWPArrivalTime@WayPointClass@@QAEKXZ	; WayPointClass::GetWPArrivalTime
	mov	edx, DWORD PTR _timeDelta$[ebp]
	lea	eax, DWORD PTR [eax+edx*2]
	push	eax
	mov	ecx, DWORD PTR _this$[ebp]
	mov	edx, DWORD PTR [ecx+56]
	mov	ecx, DWORD PTR [edx+728]
	call	?SetWPArrive@WayPointClass@@QAEXK@Z	; WayPointClass::SetWPArrive

; 412  : 
; 413  :             // If continuous, reset current departure time
; 414  :             if (self->curWaypoint->GetWPFlags() & WPF_REPEAT_CONTINUOUS)

	mov	eax, DWORD PTR _this$[ebp]
	mov	ecx, DWORD PTR [eax+56]
	mov	ecx, DWORD PTR [ecx+728]
	call	?GetWPFlags@WayPointClass@@QAEKXZ	; WayPointClass::GetWPFlags
	and	eax, 4096				; 00001000H
	je	SHORT $LN23@SimpleGoTo

; 415  :             {
; 416  :                self->curWaypoint->SetWPDepartTime (self->curWaypoint->GetWPArrivalTime() + 2 * timeDelta);

	mov	edx, DWORD PTR _this$[ebp]
	mov	eax, DWORD PTR [edx+56]
	mov	ecx, DWORD PTR [eax+728]
	call	?GetWPArrivalTime@WayPointClass@@QAEKXZ	; WayPointClass::GetWPArrivalTime
	mov	ecx, DWORD PTR _timeDelta$[ebp]
	lea	edx, DWORD PTR [eax+ecx*2]
	push	edx
	mov	eax, DWORD PTR _this$[ebp]
	mov	ecx, DWORD PTR [eax+56]
	mov	ecx, DWORD PTR [ecx+728]
	call	?SetWPDepartTime@WayPointClass@@QAEXK@Z	; WayPointClass::SetWPDepartTime
$LN23@SimpleGoTo:

; 417  :             }
; 418  : 
; 419  :             // set current waypoint to prev
; 420  :             self->curWaypoint = tmpWaypoint;

	mov	edx, DWORD PTR _this$[ebp]
	mov	eax, DWORD PTR [edx+56]
	mov	ecx, DWORD PTR _tmpWaypoint$[ebp]
	mov	DWORD PTR [eax+728], ecx

; 421  : 
; 422  :             onStation = NotThereYet;

	mov	edx, DWORD PTR _this$[ebp]
	mov	DWORD PTR [edx+132], 0

; 423  :             SetWaypointSpecificStuff();

	mov	ecx, DWORD PTR _this$[ebp]
	call	?SetWaypointSpecificStuff@DigitalBrain@@IAEXXZ ; DigitalBrain::SetWaypointSpecificStuff

; 424  :          }
; 425  :          else

	jmp	SHORT $LN22@SimpleGoTo
$LN25@SimpleGoTo:

; 426  :          {
; 427  : 						SelectNextWaypoint();

	mov	ecx, DWORD PTR _this$[ebp]
	call	?SelectNextWaypoint@DigitalBrain@@IAEXXZ ; DigitalBrain::SelectNextWaypoint
$LN22@SimpleGoTo:

; 428  :          }
; 429  : 				SimpleTrack(SimpleTrackDist, 0.0F);

	push	ecx
	movss	xmm0, DWORD PTR __real@00000000
	movss	DWORD PTR [esp], xmm0
	push	0
	mov	ecx, DWORD PTR _this$[ebp]
	call	?SimpleTrack@DigitalBrain@@IAEXW4SimpleTrackMode@1@M@Z ; DigitalBrain::SimpleTrack
	jmp	$LN6@SimpleGoTo
$LN26@SimpleGoTo:

; 430  :       }
; 431  : 			else if (onStation == NotThereYet)

	mov	eax, DWORD PTR _this$[ebp]
	cmp	DWORD PTR [eax+132], 0
	jne	SHORT $LN20@SimpleGoTo

; 432  : 			{
; 433  : 				onStation = Arrived;

	mov	ecx, DWORD PTR _this$[ebp]
	mov	DWORD PTR [ecx+132], 1

; 434  : 				SimpleTrack(SimpleTrackDist, 0.0F);

	push	ecx
	movss	xmm0, DWORD PTR __real@00000000
	movss	DWORD PTR [esp], xmm0
	push	0
	mov	ecx, DWORD PTR _this$[ebp]
	call	?SimpleTrack@DigitalBrain@@IAEXW4SimpleTrackMode@1@M@Z ; DigitalBrain::SimpleTrack
	jmp	$LN6@SimpleGoTo
$LN20@SimpleGoTo:

; 435  : 			}
; 436  : 			else if (rng < 2.0F && onStation == Arrived)

	movss	xmm0, DWORD PTR __real@40000000
	comiss	xmm0, DWORD PTR _rng$[ebp]
	jbe	$LN18@SimpleGoTo
	mov	edx, DWORD PTR _this$[ebp]
	cmp	DWORD PTR [edx+132], 1
	jne	SHORT $LN18@SimpleGoTo

; 437  : 			{
; 438  : 				if (GetTargetWPIndex() >= 0 && GetWaypointIndex() <= GetTargetWPIndex())

	mov	ecx, DWORD PTR _this$[ebp]
	call	?GetTargetWPIndex@DigitalBrain@@IAEHXZ	; DigitalBrain::GetTargetWPIndex
	test	eax, eax
	jl	SHORT $LN17@SimpleGoTo
	mov	ecx, DWORD PTR _this$[ebp]
	call	?GetWaypointIndex@DigitalBrain@@IAEHXZ	; DigitalBrain::GetWaypointIndex
	mov	esi, eax
	mov	ecx, DWORD PTR _this$[ebp]
	call	?GetTargetWPIndex@DigitalBrain@@IAEHXZ	; DigitalBrain::GetTargetWPIndex
	cmp	esi, eax
	jg	SHORT $LN17@SimpleGoTo

; 439  : 				{
; 440  : 					SelectNextWaypoint();

	mov	ecx, DWORD PTR _this$[ebp]
	call	?SelectNextWaypoint@DigitalBrain@@IAEXXZ ; DigitalBrain::SelectNextWaypoint

; 441  : 					SimpleTrack(SimpleTrackDist, 0.0F);

	push	ecx
	movss	xmm0, DWORD PTR __real@00000000
	movss	DWORD PTR [esp], xmm0
	push	0
	mov	ecx, DWORD PTR _this$[ebp]
	call	?SimpleTrack@DigitalBrain@@IAEXW4SimpleTrackMode@1@M@Z ; DigitalBrain::SimpleTrack
	jmp	SHORT $LN15@SimpleGoTo
$LN17@SimpleGoTo:

; 442  : 				}
; 443  : 				else if (GetWaypointIndex() != GetTargetWPIndex())

	mov	ecx, DWORD PTR _this$[ebp]
	call	?GetWaypointIndex@DigitalBrain@@IAEHXZ	; DigitalBrain::GetWaypointIndex
	mov	esi, eax
	mov	ecx, DWORD PTR _this$[ebp]
	call	?GetTargetWPIndex@DigitalBrain@@IAEHXZ	; DigitalBrain::GetTargetWPIndex
	cmp	esi, eax
	je	SHORT $LN15@SimpleGoTo

; 444  : 				{
; 445  : 					SelectNextWaypoint();

	mov	ecx, DWORD PTR _this$[ebp]
	call	?SelectNextWaypoint@DigitalBrain@@IAEXXZ ; DigitalBrain::SelectNextWaypoint

; 446  : 					SimpleTrack(SimpleTrackDist, 0.0F);

	push	ecx
	movss	xmm0, DWORD PTR __real@00000000
	movss	DWORD PTR [esp], xmm0
	push	0
	mov	ecx, DWORD PTR _this$[ebp]
	call	?SimpleTrack@DigitalBrain@@IAEXW4SimpleTrackMode@1@M@Z ; DigitalBrain::SimpleTrack
$LN15@SimpleGoTo:

; 447  : 				}
; 448  : 			}

	jmp	$LN6@SimpleGoTo
$LN18@SimpleGoTo:

; 449  : 			// edg: if we're within 30 secs just go to next ....
; 450  : 			else if (SimLibElapsedTime + g_nSkipWaypointTime > self->curWaypoint->GetWPDepartureTime())

	mov	esi, DWORD PTR ?SimLibElapsedTime@@3KA	; SimLibElapsedTime
	add	esi, DWORD PTR ?g_nSkipWaypointTime@@3HA ; g_nSkipWaypointTime
	mov	eax, DWORD PTR _this$[ebp]
	mov	ecx, DWORD PTR [eax+56]
	mov	ecx, DWORD PTR [ecx+728]
	call	?GetWPDepartureTime@WayPointClass@@QAEKXZ ; WayPointClass::GetWPDepartureTime
	cmp	esi, eax
	jbe	$LN13@SimpleGoTo

; 451  : 			{
; 452  : /* 2002-04-05 MN
; 453  : We have a problem here. With the new code that also allows AG missions to engage BVR/WVR, and the new flightmodels,
; 454  : it can easily happen that a flight is too late at its target, especially for AG missions. So if we're on an AG mission,
; 455  : have not yet completed the mission, are not in RTB mode or landing mode, don't skip the target waypoint. 
; 456  : 
; 457  : A better fix would be having the AI increase speed if they are behind scheduled waypoint times, but for FalconSP3 this is
; 458  : beyond our scope. */
; 459  : 
; 460  : 			//Cobra Caught the AI stuck in Crosswind with NULL groundTarget
; 461  : 			// Cobra - Sead AI wouldn't move on when no targets left or exceeded loitering timer
; 462  : 			//Adding in onStation == Crosswind; if we make it here, we are past our waypoint time 
; 463  : 			//already so this shouldn't be a problem?
; 464  : 				if (((onStation == Crosswind || (onStation == NotThereYet && missionComplete)) && 
; 465  : 					groundTargetPtr == NULL) || onStation == OnStation || !(g_bAGTargetWPFix && 
; 466  : 					self->curWaypoint->GetWPFlags() & WPF_TARGET && !missionComplete && missionClass == AGMission && 
; 467  : 					curMode != RTBMode && curMode != LandingMode))

	mov	edx, DWORD PTR _this$[ebp]
	cmp	DWORD PTR [edx+132], 12			; 0000000cH
	je	SHORT $LN9@SimpleGoTo
	mov	eax, DWORD PTR _this$[ebp]
	cmp	DWORD PTR [eax+132], 0
	jne	SHORT $LN10@SimpleGoTo
	mov	ecx, DWORD PTR _this$[ebp]
	cmp	DWORD PTR [ecx+292], 0
	je	SHORT $LN10@SimpleGoTo
$LN9@SimpleGoTo:
	mov	edx, DWORD PTR _this$[ebp]
	cmp	DWORD PTR [edx+224], 0
	je	SHORT $LN8@SimpleGoTo
$LN10@SimpleGoTo:
	mov	eax, DWORD PTR _this$[ebp]
	cmp	DWORD PTR [eax+132], 3
	je	SHORT $LN8@SimpleGoTo
	movzx	ecx, BYTE PTR ?g_bAGTargetWPFix@@3_NA	; g_bAGTargetWPFix
	test	ecx, ecx
	je	SHORT $LN8@SimpleGoTo
	mov	edx, DWORD PTR _this$[ebp]
	mov	eax, DWORD PTR [edx+56]
	mov	ecx, DWORD PTR [eax+728]
	call	?GetWPFlags@WayPointClass@@QAEKXZ	; WayPointClass::GetWPFlags
	and	eax, 1
	je	SHORT $LN8@SimpleGoTo
	mov	ecx, DWORD PTR _this$[ebp]
	cmp	DWORD PTR [ecx+292], 0
	jne	SHORT $LN8@SimpleGoTo
	mov	edx, DWORD PTR _this$[ebp]
	cmp	DWORD PTR [edx+288], 0
	jne	SHORT $LN8@SimpleGoTo
	mov	eax, DWORD PTR _this$[ebp]
	cmp	DWORD PTR [eax+136], 19			; 00000013H
	je	SHORT $LN8@SimpleGoTo
	mov	ecx, DWORD PTR _this$[ebp]
	cmp	DWORD PTR [ecx+136], 5
	jne	SHORT $LN7@SimpleGoTo
$LN8@SimpleGoTo:

; 468  : 				{
; 469  : // 2002-04-08 MN removed again - this stops AI from going to landing mode at all...
; 470  : 				// JB 020315 Don't skip to the last waypoint unless we're OnStation. Otherwise we may go into landing mode too early.
; 471  : //				if (onStation == OnStation || self->curWaypoint->GetNextWP() && self->curWaypoint->GetNextWP()->GetWPAction() != WP_LAND)
; 472  : 
; 473  : 					// Cobra - Don't skip the WP after target WP
; 474  : 					if (GetTargetWPIndex() >= 0 && GetWaypointIndex() <= GetTargetWPIndex())

	mov	ecx, DWORD PTR _this$[ebp]
	call	?GetTargetWPIndex@DigitalBrain@@IAEHXZ	; DigitalBrain::GetTargetWPIndex
	test	eax, eax
	jl	SHORT $LN7@SimpleGoTo
	mov	ecx, DWORD PTR _this$[ebp]
	call	?GetWaypointIndex@DigitalBrain@@IAEHXZ	; DigitalBrain::GetWaypointIndex
	mov	esi, eax
	mov	ecx, DWORD PTR _this$[ebp]
	call	?GetTargetWPIndex@DigitalBrain@@IAEHXZ	; DigitalBrain::GetTargetWPIndex
	cmp	esi, eax
	jg	SHORT $LN7@SimpleGoTo

; 475  : 						SelectNextWaypoint();

	mov	ecx, DWORD PTR _this$[ebp]
	call	?SelectNextWaypoint@DigitalBrain@@IAEXXZ ; DigitalBrain::SelectNextWaypoint
$LN7@SimpleGoTo:

; 476  : 				}
; 477  : 			SimpleTrack(SimpleTrackDist, 0.0F);

	push	ecx
	movss	xmm0, DWORD PTR __real@00000000
	movss	DWORD PTR [esp], xmm0
	push	0
	mov	ecx, DWORD PTR _this$[ebp]
	call	?SimpleTrack@DigitalBrain@@IAEXW4SimpleTrackMode@1@M@Z ; DigitalBrain::SimpleTrack

; 478  : 			}
; 479  : 			else 

	jmp	SHORT $LN6@SimpleGoTo
$LN13@SimpleGoTo:

; 480  : 			{
; 481  : 				Loiter();		

	mov	ecx, DWORD PTR _this$[ebp]
	call	?Loiter@DigitalBrain@@IAEXXZ		; DigitalBrain::Loiter
$LN6@SimpleGoTo:

; 482  : 			}
; 483  : 	}
; 484  : 	else 

	jmp	$LN5@SimpleGoTo
$LN28@SimpleGoTo:

; 485  : 	{
; 486  : 		// Time left to target
; 487  : 		if (self && self->curWaypoint)

	mov	edx, DWORD PTR _this$[ebp]
	cmp	DWORD PTR [edx+56], 0
	je	SHORT $LN4@SimpleGoTo
	mov	eax, DWORD PTR _this$[ebp]
	mov	ecx, DWORD PTR [eax+56]
	cmp	DWORD PTR [ecx+728], 0
	je	SHORT $LN4@SimpleGoTo

; 488  : 			ttg = (self->curWaypoint->GetWPArrivalTime() - SimLibElapsedTime) / (float)SEC_TO_MSEC;

	mov	edx, DWORD PTR _this$[ebp]
	mov	eax, DWORD PTR [edx+56]
	mov	ecx, DWORD PTR [eax+728]
	call	?GetWPArrivalTime@WayPointClass@@QAEKXZ	; WayPointClass::GetWPArrivalTime
	sub	eax, DWORD PTR ?SimLibElapsedTime@@3KA	; SimLibElapsedTime
	mov	DWORD PTR tv910[ebp], eax
	cvtsi2sd xmm0, DWORD PTR tv910[ebp]
	mov	ecx, DWORD PTR tv910[ebp]
	shr	ecx, 31					; 0000001fH
	addsd	xmm0, QWORD PTR __xmm@41f00000000000000000000000000000[ecx*8]
	movsd	QWORD PTR tv913[ebp], xmm0
	cvtsd2ss xmm0, QWORD PTR tv913[ebp]
	divss	xmm0, DWORD PTR __real@447a0000
	movss	DWORD PTR _ttg$[ebp], xmm0
$LN4@SimpleGoTo:

; 489  : 		//TJL 11/09/03 Make speed aircraft friendly. What about the A-10, it's not seeing 700.0f
; 490  : 		// Changed to from 700.0F to 1.3 of corner
; 491  :     if (ttg < 0.0F) 

	movss	xmm0, DWORD PTR __real@00000000
	comiss	xmm0, DWORD PTR _ttg$[ebp]
	jbe	SHORT $LN3@SimpleGoTo

; 492  : 		{	// If we're late
; 493  : 		desSpeed = 1.3F * cornerSpeed;	

	mov	edx, DWORD PTR _this$[ebp]
	movss	xmm0, DWORD PTR __real@3fa66666
	mulss	xmm0, DWORD PTR [edx+100]
	movss	DWORD PTR _desSpeed$[ebp], xmm0

; 494  : 		}
; 495  :     else 

	jmp	SHORT $LN2@SimpleGoTo
$LN3@SimpleGoTo:

; 496  : 		{
; 497  : 			//TJL 02/20/04 TEST of new range/speed code
; 498  : 			//desSpeed = (float) sqrt(rng) / ttg * FTPSEC_TO_KNOTS;
; 499  : 			rng = sqrtf(xerr * xerr + yerr * yerr);

	movss	xmm0, DWORD PTR _xerr$[ebp]
	mulss	xmm0, DWORD PTR _xerr$[ebp]
	movss	xmm1, DWORD PTR _yerr$[ebp]
	mulss	xmm1, DWORD PTR _yerr$[ebp]
	addss	xmm0, xmm1
	push	ecx
	movss	DWORD PTR [esp], xmm0
	call	?SqrtSSE@@YAMM@Z			; SqrtSSE
	add	esp, 4
	fstp	DWORD PTR _rng$[ebp]

; 500  : 			desSpeed = ((rng/ttg)*FTPSEC_TO_KNOTS);

	movss	xmm0, DWORD PTR _rng$[ebp]
	divss	xmm0, DWORD PTR _ttg$[ebp]
	mulss	xmm0, DWORD PTR __real@3f17ac60
	movss	DWORD PTR _desSpeed$[ebp], xmm0
$LN2@SimpleGoTo:

; 501  : 		}
; 502  : 
; 503  : 	  //TJL 02/20/04 We don't need this. MinVcas should be set in ac.dat file 
; 504  : 	  //as min speed Sea level.  Sim will take into account that speed at altitude
; 505  : 	  //Mnvers.cpp will catch speed below min vcas
; 506  : 
; 507  : /*      desSpeedAlt = get_air_speed (desSpeed, -1*FloatToInt32(self->ZPos()));
; 508  :       while (desSpeedAlt < af->MinVcas() * 0.85F)
; 509  :       {
; 510  :          desSpeed *= 1.1F;
; 511  :          desSpeedAlt = get_air_speed (desSpeed, -1*FloatToInt32(self->ZPos()));
; 512  :       }
; 513  : */
; 514  : 
; 515  :     if (curMode == RTBMode)

	mov	eax, DWORD PTR _this$[ebp]
	cmp	DWORD PTR [eax+136], 19			; 00000013H
	jne	SHORT $LN1@SimpleGoTo

; 516  :        desSpeed = cornerSpeed;

	mov	ecx, DWORD PTR _this$[ebp]
	movss	xmm0, DWORD PTR [ecx+100]
	movss	DWORD PTR _desSpeed$[ebp], xmm0
$LN1@SimpleGoTo:

; 517  : 		//TJL 02/20/04 Speed is in KNOTS
; 518  : 		//TrackPoint(0.0F, desSpeed * KNOTS_TO_FTPSEC);
; 519  : 		TrackPoint(0.0F, desSpeed);

	push	ecx
	movss	xmm0, DWORD PTR _desSpeed$[ebp]
	movss	DWORD PTR [esp], xmm0
	push	ecx
	movss	xmm0, DWORD PTR __real@00000000
	movss	DWORD PTR [esp], xmm0
	mov	ecx, DWORD PTR _this$[ebp]
	call	?TrackPoint@DigitalBrain@@IAEMMM@Z	; DigitalBrain::TrackPoint
	fstp	ST(0)
$LN5@SimpleGoTo:

; 520  : 	}
; 521  : 
; 522  : 	// modify p and r stick settings by gain control
; 523  : 	pStick *= gainCtrl;

	mov	edx, DWORD PTR _this$[ebp]
	movss	xmm0, DWORD PTR [edx+28]
	mulss	xmm0, DWORD PTR _gainCtrl$[ebp]
	mov	eax, DWORD PTR _this$[ebp]
	movss	DWORD PTR [eax+28], xmm0

; 524  : //	rStick *= gainCtrl;
; 525  : }

	pop	esi
	mov	esp, ebp
	pop	ebp
	ret	0
?SimpleGoToCurrentWaypoint@DigitalBrain@@IAEXXZ ENDP	; DigitalBrain::SimpleGoToCurrentWaypoint
_TEXT	ENDS
; Function compile flags: /Odtp
; File c:\users\zhitao li\documents\visual studio 2012\projects\freefalcon\sim\digi\waypoint.cpp
_TEXT	SEGMENT
$T2 = -192						; size = 8
$T3 = -184						; size = 8
$T4 = -176						; size = 8
$T5 = -168						; size = 8
$T6 = -160						; size = 8
$T7 = -152						; size = 8
tv686 = -144						; size = 4
tv654 = -140						; size = 4
tv681 = -136						; size = 4
_tz$ = -132						; size = 4
tv847 = -128						; size = 4
tv849 = -124						; size = 4
$T8 = -120						; size = 4
tv676 = -116						; size = 4
$T9 = -112						; size = 4
tv671 = -108						; size = 4
tv851 = -104						; size = 4
tv647 = -100						; size = 4
tv705 = -96						; size = 4
_ty$ = -92						; size = 4
tv696 = -88						; size = 4
_tx$ = -84						; size = 4
_gainCtrl$ = -80					; size = 4
_xerr$ = -76						; size = 4
_desSpeed$ = -72					; size = 4
tv315 = -68						; size = 4
tv493 = -64						; size = 4
_yerr$ = -60						; size = 4
$T10 = -56						; size = 4
$T11 = -52						; size = 4
_y$ = -48						; size = 2
_x$ = -44						; size = 2
_desAlt$ = -40						; size = 4
_rng$ = -36						; size = 4
_radioMessage$12 = -32					; size = 4
_radioMessage$13 = -28					; size = 4
_unit$ = -24						; size = 4
_cargo$ = -20						; size = 4
_this$ = -16						; size = 4
__$EHRec$ = -12						; size = 12
?DoPickupAirdrop@DigitalBrain@@IAEXXZ PROC		; DigitalBrain::DoPickupAirdrop
; _this$ = ecx

; 1084 : {

	push	ebp
	mov	ebp, esp
	push	-1
	push	__ehhandler$?DoPickupAirdrop@DigitalBrain@@IAEXXZ
	mov	eax, DWORD PTR fs:0
	push	eax
	sub	esp, 180				; 000000b4H
	mov	eax, DWORD PTR ___security_cookie
	xor	eax, ebp
	push	eax
	lea	eax, DWORD PTR __$EHRec$[ebp]
	mov	DWORD PTR fs:0, eax
	mov	DWORD PTR _this$[ebp], ecx

; 1085 : 	float	xerr, yerr;
; 1086 : 	float rng;
; 1087 : 	float desSpeed, desAlt;
; 1088 : 	float gainCtrl;
; 1089 : 	Unit cargo, unit;
; 1090 : 	GridIndex x,y;
; 1091 : 
; 1092 :    	// prevent too much gain in controls
; 1093 :    	// except when we're too close to ground
; 1094 :    	gainCtrl = 0.25f;

	movss	xmm0, DWORD PTR __real@3e800000
	movss	DWORD PTR _gainCtrl$[ebp], xmm0

; 1095 :     onStation = NotThereYet; // jpo - force it to keep going to pickup

	mov	eax, DWORD PTR _this$[ebp]
	mov	DWORD PTR [eax+132], 0

; 1096 :    	// get where we're supposed to go
; 1097 : 	float tx, ty, tz;
; 1098 :    	self->curWaypoint->GetLocation (&tx, &ty, &tz);

	lea	ecx, DWORD PTR _tz$[ebp]
	push	ecx
	lea	edx, DWORD PTR _ty$[ebp]
	push	edx
	lea	eax, DWORD PTR _tx$[ebp]
	push	eax
	mov	ecx, DWORD PTR _this$[ebp]
	mov	edx, DWORD PTR [ecx+56]
	mov	ecx, DWORD PTR [edx+728]
	call	?GetLocation@WayPointClass@@QBEXPAM00@Z	; WayPointClass::GetLocation

; 1099 : 	SetTrackPoint(tx, ty, tz);

	push	ecx
	movss	xmm0, DWORD PTR _tz$[ebp]
	movss	DWORD PTR [esp], xmm0
	push	ecx
	movss	xmm0, DWORD PTR _ty$[ebp]
	movss	DWORD PTR [esp], xmm0
	push	ecx
	movss	xmm0, DWORD PTR _tx$[ebp]
	movss	DWORD PTR [esp], xmm0
	mov	ecx, DWORD PTR _this$[ebp]
	call	?SetTrackPoint@DigitalBrain@@QAEXMMM@Z	; DigitalBrain::SetTrackPoint

; 1100 : 
; 1101 : 	// range info
; 1102 : 	xerr	= trackX - self->XPos();

	mov	eax, DWORD PTR _this$[ebp]
	mov	ecx, DWORD PTR [eax+56]
	call	?XPos@VuEntity@@QBEMXZ			; VuEntity::XPos
	fstp	DWORD PTR tv647[ebp]
	mov	ecx, DWORD PTR _this$[ebp]
	movss	xmm0, DWORD PTR [ecx+148]
	subss	xmm0, DWORD PTR tv647[ebp]
	movss	DWORD PTR _xerr$[ebp], xmm0

; 1103 : 	yerr	= trackY - self->YPos();

	mov	edx, DWORD PTR _this$[ebp]
	mov	ecx, DWORD PTR [edx+56]
	call	?YPos@VuEntity@@QBEMXZ			; VuEntity::YPos
	fstp	DWORD PTR tv654[ebp]
	mov	eax, DWORD PTR _this$[ebp]
	movss	xmm0, DWORD PTR [eax+152]
	subss	xmm0, DWORD PTR tv654[ebp]
	movss	DWORD PTR _yerr$[ebp], xmm0

; 1104 : 	rng	= xerr * xerr + yerr *	yerr;

	movss	xmm0, DWORD PTR _xerr$[ebp]
	mulss	xmm0, DWORD PTR _xerr$[ebp]
	movss	xmm1, DWORD PTR _yerr$[ebp]
	mulss	xmm1, DWORD PTR _yerr$[ebp]
	addss	xmm0, xmm1
	movss	DWORD PTR _rng$[ebp], xmm0

; 1105 : 
; 1106 : 	// if we're still far away just use the regular waypoint stuff
; 1107 : 	if ( rng > 10000.0f * 10000.0f )

	movss	xmm0, DWORD PTR _rng$[ebp]
	comiss	xmm0, DWORD PTR __real@4cbebc20
	jbe	SHORT $LN17@DoPickupAi

; 1108 : 	{
; 1109 : 		if(((AircraftClass*) self)->af->GetSimpleMode())

	mov	ecx, DWORD PTR _this$[ebp]
	mov	edx, DWORD PTR [ecx+56]
	mov	ecx, DWORD PTR [edx+932]
	call	?GetSimpleMode@AirframeClass@@QAEHXZ	; AirframeClass::GetSimpleMode
	test	eax, eax
	je	SHORT $LN16@DoPickupAi

; 1110 : 		{
; 1111 : 			SimpleGoToCurrentWaypoint();

	mov	ecx, DWORD PTR _this$[ebp]
	call	?SimpleGoToCurrentWaypoint@DigitalBrain@@IAEXXZ ; DigitalBrain::SimpleGoToCurrentWaypoint

; 1112 : 		}
; 1113 : 		else

	jmp	SHORT $LN15@DoPickupAi
$LN16@DoPickupAi:

; 1114 : 		{
; 1115 : 			GoToCurrentWaypoint();

	mov	ecx, DWORD PTR _this$[ebp]
	call	?GoToCurrentWaypoint@DigitalBrain@@IAEXXZ ; DigitalBrain::GoToCurrentWaypoint
$LN15@DoPickupAi:

; 1116 : 		}
; 1117 : 		return;

	jmp	$LN18@DoPickupAi
$LN17@DoPickupAi:

; 1118 : 	}
; 1119 : 
; 1120 : 	// now pick our speed based on final approach range
; 1121 : 	if ( rng < 5000.0f * 5000.0f )

	movss	xmm0, DWORD PTR __real@4bbebc20
	comiss	xmm0, DWORD PTR _rng$[ebp]
	jbe	SHORT $LN14@DoPickupAi

; 1122 : 	{
; 1123 : 		desSpeed = 50.0f * KNOTS_TO_FTPSEC;

	movss	xmm0, DWORD PTR __real@42a8c89a
	movss	DWORD PTR _desSpeed$[ebp], xmm0

; 1124 : 		desAlt = 40.0f;

	movss	xmm0, DWORD PTR __real@42200000
	movss	DWORD PTR _desAlt$[ebp], xmm0

; 1125 : 	}
; 1126 : 	else

	jmp	SHORT $LN13@DoPickupAi
$LN14@DoPickupAi:

; 1127 : 	{
; 1128 : 		desSpeed = 150.0f * KNOTS_TO_FTPSEC;

	movss	xmm0, DWORD PTR __real@437d2ce8
	movss	DWORD PTR _desSpeed$[ebp], xmm0

; 1129 : 		desAlt = 500.0f;

	movss	xmm0, DWORD PTR __real@43fa0000
	movss	DWORD PTR _desAlt$[ebp], xmm0
$LN13@DoPickupAi:

; 1130 : 	}
; 1131 : 
; 1132 : 	// terrain follwing....
; 1133 :     trackZ = OTWDriver.GetGroundLevel( self->XPos() + self->XDelta(),
; 1134 : 									  self->YPos() + self->YDelta() );

	push	0
	mov	eax, DWORD PTR _this$[ebp]
	mov	ecx, DWORD PTR [eax+56]
	call	?YPos@VuEntity@@QBEMXZ			; VuEntity::YPos
	fstp	DWORD PTR tv671[ebp]
	movss	xmm0, DWORD PTR tv671[ebp]
	mov	ecx, DWORD PTR _this$[ebp]
	mov	ecx, DWORD PTR [ecx+56]
	movss	DWORD PTR tv847[ebp], xmm0
	call	?YDelta@VuEntity@@QBEMXZ		; VuEntity::YDelta
	fstp	DWORD PTR tv676[ebp]
	movss	xmm0, DWORD PTR tv847[ebp]
	addss	xmm0, DWORD PTR tv676[ebp]
	push	ecx
	movss	DWORD PTR [esp], xmm0
	mov	edx, DWORD PTR _this$[ebp]
	mov	ecx, DWORD PTR [edx+56]
	call	?XPos@VuEntity@@QBEMXZ			; VuEntity::XPos
	fstp	DWORD PTR tv681[ebp]
	movss	xmm0, DWORD PTR tv681[ebp]
	mov	eax, DWORD PTR _this$[ebp]
	mov	ecx, DWORD PTR [eax+56]
	movss	DWORD PTR tv849[ebp], xmm0
	call	?XDelta@VuEntity@@QBEMXZ		; VuEntity::XDelta
	fstp	DWORD PTR tv686[ebp]
	movss	xmm0, DWORD PTR tv849[ebp]
	addss	xmm0, DWORD PTR tv686[ebp]
	push	ecx
	movss	DWORD PTR [esp], xmm0
	mov	ecx, OFFSET ?OTWDriver@@3VOTWDriverClass@@A ; OTWDriver
	call	?GetGroundLevel@OTWDriverClass@@QAEMMMPAUTpoint@@@Z ; OTWDriverClass::GetGroundLevel
	mov	ecx, DWORD PTR _this$[ebp]
	fstp	DWORD PTR [ecx+156]

; 1135 : 
; 1136 :     // if we're below track alt, kick us up a bit harder so we don't plow
; 1137 :     // into steeper slopes
; 1138 :     if ( self->ZPos() - trackZ > -desAlt )

	mov	edx, DWORD PTR _this$[ebp]
	mov	ecx, DWORD PTR [edx+56]
	call	?ZPos@VuEntity@@QBEMXZ			; VuEntity::ZPos
	fstp	DWORD PTR tv696[ebp]
	movss	xmm0, DWORD PTR tv696[ebp]
	mov	eax, DWORD PTR _this$[ebp]
	subss	xmm0, DWORD PTR [eax+156]
	movss	xmm1, DWORD PTR _desAlt$[ebp]
	xorps	xmm1, DWORD PTR __xmm@80000000800000008000000080000000
	comiss	xmm0, xmm1
	jbe	SHORT $LN12@DoPickupAi

; 1139 :     {
; 1140 : 		trackZ = trackZ - 500.0f - ( self->ZPos() - trackZ + 500.0f ) * 2.0f;

	mov	ecx, DWORD PTR _this$[ebp]
	movss	xmm0, DWORD PTR [ecx+156]
	subss	xmm0, DWORD PTR __real@43fa0000
	mov	edx, DWORD PTR _this$[ebp]
	mov	ecx, DWORD PTR [edx+56]
	movss	DWORD PTR tv851[ebp], xmm0
	call	?ZPos@VuEntity@@QBEMXZ			; VuEntity::ZPos
	fstp	DWORD PTR tv705[ebp]
	movss	xmm0, DWORD PTR tv705[ebp]
	mov	eax, DWORD PTR _this$[ebp]
	subss	xmm0, DWORD PTR [eax+156]
	addss	xmm0, DWORD PTR __real@43fa0000
	mulss	xmm0, DWORD PTR __real@40000000
	movss	xmm1, DWORD PTR tv851[ebp]
	subss	xmm1, xmm0
	mov	ecx, DWORD PTR _this$[ebp]
	movss	DWORD PTR [ecx+156], xmm1

; 1141 : 		gainCtrl = 1.5f;

	movss	xmm0, DWORD PTR __real@3fc00000
	movss	DWORD PTR _gainCtrl$[ebp], xmm0

; 1142 :     }
; 1143 :     else

	jmp	SHORT $LN11@DoPickupAi
$LN12@DoPickupAi:

; 1144 : 		trackZ -= desAlt;

	mov	edx, DWORD PTR _this$[ebp]
	movss	xmm0, DWORD PTR [edx+156]
	subss	xmm0, DWORD PTR _desAlt$[ebp]
	mov	eax, DWORD PTR _this$[ebp]
	movss	DWORD PTR [eax+156], xmm0
$LN11@DoPickupAi:

; 1145 : 
; 1146 : 	// are we there yet?
; 1147 : 	if ( rng < 500.0f * 500.0f )

	movss	xmm0, DWORD PTR __real@48742400
	comiss	xmm0, DWORD PTR _rng$[ebp]
	jbe	$LN10@DoPickupAi

; 1148 : 	{
; 1149 :    		if ( self->curWaypoint->GetWPAction() == WP_PICKUP )

	mov	ecx, DWORD PTR _this$[ebp]
	mov	edx, DWORD PTR [ecx+56]
	mov	ecx, DWORD PTR [edx+728]
	call	?GetWPAction@WayPointClass@@QAEHXZ	; WayPointClass::GetWPAction
	cmp	eax, 6
	jne	$LN9@DoPickupAi

; 1150 : 		{
; 1151 : 			// Load the airborne battalion.
; 1152 : 			cargo = (Unit) self->curWaypoint->GetWPTarget();

	mov	eax, DWORD PTR _this$[ebp]
	mov	ecx, DWORD PTR [eax+56]
	mov	ecx, DWORD PTR [ecx+728]
	call	?GetWPTarget@WayPointClass@@QAEPAVCampBaseClass@@XZ ; WayPointClass::GetWPTarget
	mov	DWORD PTR _cargo$[ebp], eax

; 1153 : 			unit = (Unit)self->GetCampaignObject();

	mov	edx, DWORD PTR _this$[ebp]
	mov	ecx, DWORD PTR [edx+56]
	call	?GetCampaignObject@SimBaseClass@@QAEPAVCampBaseClass@@XZ ; SimBaseClass::GetCampaignObject
	mov	DWORD PTR _unit$[ebp], eax

; 1154 : 			if (cargo && unit)

	cmp	DWORD PTR _cargo$[ebp], 0
	je	$LN6@DoPickupAi
	cmp	DWORD PTR _unit$[ebp], 0
	je	$LN6@DoPickupAi

; 1155 : 			{
; 1156 : 				unit->SetCargoId(cargo->Id());

	lea	eax, DWORD PTR $T7[ebp]
	push	eax
	mov	ecx, DWORD PTR _cargo$[ebp]
	call	?Id@VuEntity@@QBE?AVVU_ID@@XZ		; VuEntity::Id
	mov	ecx, DWORD PTR [eax+4]
	push	ecx
	mov	edx, DWORD PTR [eax]
	push	edx
	mov	ecx, DWORD PTR _unit$[ebp]
	call	?SetCargoId@UnitClass@@QAEXVVU_ID@@@Z	; UnitClass::SetCargoId

; 1157 : 				cargo->SetCargoId(unit->Id());

	lea	eax, DWORD PTR $T5[ebp]
	push	eax
	mov	ecx, DWORD PTR _unit$[ebp]
	call	?Id@VuEntity@@QBE?AVVU_ID@@XZ		; VuEntity::Id
	mov	ecx, DWORD PTR [eax+4]
	push	ecx
	mov	edx, DWORD PTR [eax]
	push	edx
	mov	ecx, DWORD PTR _cargo$[ebp]
	call	?SetCargoId@UnitClass@@QAEXVVU_ID@@@Z	; UnitClass::SetCargoId

; 1158 : 				cargo->SetInactive(1);

	push	1
	mov	ecx, DWORD PTR _cargo$[ebp]
	call	?SetInactive@UnitClass@@QAEXH@Z		; UnitClass::SetInactive

; 1159 : 				unit->LoadUnit(cargo);

	mov	eax, DWORD PTR _cargo$[ebp]
	push	eax
	mov	ecx, DWORD PTR _unit$[ebp]
	call	?LoadUnit@UnitClass@@QAEXPAV1@@Z	; UnitClass::LoadUnit

; 1160 : 				if(RuleMode != rINSTANT_ACTION && RuleMode != rDOGFIGHT)

	cmp	DWORD PTR ?RuleMode@@3W4RulesModes@@A, 0 ; RuleMode
	je	$LN6@DoPickupAi
	cmp	DWORD PTR ?RuleMode@@3W4RulesModes@@A, 1 ; RuleMode
	je	$LN6@DoPickupAi

; 1161 : 				{
; 1162 : 					if(((Flight)self->GetCampaignObject())->GetFlightLeadSlot() == self->vehicleInUnit)

	mov	ecx, DWORD PTR _this$[ebp]
	mov	ecx, DWORD PTR [ecx+56]
	call	?GetCampaignObject@SimBaseClass@@QAEPAVCampBaseClass@@XZ ; SimBaseClass::GetCampaignObject
	mov	ecx, eax
	call	?GetFlightLeadSlot@FlightClass@@QAEHXZ	; FlightClass::GetFlightLeadSlot
	mov	edx, DWORD PTR _this$[ebp]
	mov	ecx, DWORD PTR [edx+56]
	movzx	edx, BYTE PTR [ecx+664]
	cmp	eax, edx
	jne	$LN6@DoPickupAi

; 1163 : 					{
; 1164 : 						FalconRadioChatterMessage* radioMessage = new FalconRadioChatterMessage( self->Id(), FalconLocalSession );

	push	84					; 00000054H
	call	??2@YAPAXI@Z				; operator new
	add	esp, 4
	mov	DWORD PTR $T11[ebp], eax
	mov	DWORD PTR __$EHRec$[ebp+8], 0
	cmp	DWORD PTR $T11[ebp], 0
	je	SHORT $LN20@DoPickupAi
	push	1
	mov	ecx, OFFSET ?vuLocalSessionEntity@@3V?$VuBin@VVuSessionEntity@@@@A ; vuLocalSessionEntity
	call	?get@?$VuBin@VVuSessionEntity@@@@QBEPAVVuSessionEntity@@XZ ; VuBin<VuSessionEntity>::get
	push	eax
	lea	eax, DWORD PTR $T3[ebp]
	push	eax
	mov	ecx, DWORD PTR _this$[ebp]
	mov	ecx, DWORD PTR [ecx+56]
	call	?Id@VuEntity@@QBE?AVVU_ID@@XZ		; VuEntity::Id
	mov	edx, DWORD PTR [eax+4]
	push	edx
	mov	eax, DWORD PTR [eax]
	push	eax
	mov	ecx, DWORD PTR $T11[ebp]
	call	??0FalconRadioChatterMessage@@QAE@VVU_ID@@PAVVuTargetEntity@@E@Z ; FalconRadioChatterMessage::FalconRadioChatterMessage
	mov	DWORD PTR tv315[ebp], eax
	jmp	SHORT $LN21@DoPickupAi
$LN20@DoPickupAi:
	mov	DWORD PTR tv315[ebp], 0
$LN21@DoPickupAi:
	mov	ecx, DWORD PTR tv315[ebp]
	mov	DWORD PTR $T9[ebp], ecx
	mov	DWORD PTR __$EHRec$[ebp+8], -1
	mov	edx, DWORD PTR $T9[ebp]
	mov	DWORD PTR _radioMessage$12[ebp], edx

; 1165 : 						radioMessage->dataBlock.from = self->Id();

	lea	eax, DWORD PTR $T6[ebp]
	push	eax
	mov	ecx, DWORD PTR _this$[ebp]
	mov	ecx, DWORD PTR [ecx+56]
	call	?Id@VuEntity@@QBE?AVVU_ID@@XZ		; VuEntity::Id
	mov	edx, DWORD PTR [eax]
	mov	eax, DWORD PTR [eax+4]
	mov	ecx, DWORD PTR _radioMessage$12[ebp]
	mov	DWORD PTR [ecx+48], edx
	mov	DWORD PTR [ecx+52], eax

; 1166 : 						radioMessage->dataBlock.to = MESSAGE_FOR_TEAM;

	mov	edx, DWORD PTR _radioMessage$12[ebp]
	mov	BYTE PTR [edx+60], 1

; 1167 : 						radioMessage->dataBlock.voice_id = ((Flight)(self->GetCampaignObject()))->GetPilotVoiceID(self->vehicleInUnit);

	mov	eax, DWORD PTR _this$[ebp]
	mov	ecx, DWORD PTR [eax+56]
	movzx	edx, BYTE PTR [ecx+664]
	push	edx
	mov	eax, DWORD PTR _this$[ebp]
	mov	ecx, DWORD PTR [eax+56]
	call	?GetCampaignObject@SimBaseClass@@QAEPAVCampBaseClass@@XZ ; SimBaseClass::GetCampaignObject
	mov	ecx, eax
	call	?GetPilotVoiceID@FlightClass@@QAEEH@Z	; FlightClass::GetPilotVoiceID
	mov	ecx, DWORD PTR _radioMessage$12[ebp]
	mov	BYTE PTR [ecx+61], al

; 1168 : 						radioMessage->dataBlock.message = rcPACKJOINED; // best I can find - JPO

	mov	edx, 135				; 00000087H
	mov	eax, DWORD PTR _radioMessage$12[ebp]
	mov	WORD PTR [eax+62], dx

; 1169 : 						radioMessage->dataBlock.edata[0] = self->GetCallsignIdx();

	mov	ecx, DWORD PTR _this$[ebp]
	mov	ecx, DWORD PTR [ecx+56]
	call	?GetCallsignIdx@SimBaseClass@@QAEHXZ	; SimBaseClass::GetCallsignIdx
	mov	edx, 2
	imul	edx, 0
	mov	ecx, DWORD PTR _radioMessage$12[ebp]
	mov	WORD PTR [ecx+edx+64], ax

; 1170 : 						radioMessage->dataBlock.edata[1] = self->vehicleInUnit + 1;

	mov	edx, DWORD PTR _this$[ebp]
	mov	eax, DWORD PTR [edx+56]
	movzx	ecx, BYTE PTR [eax+664]
	add	ecx, 1
	mov	edx, 2
	shl	edx, 0
	mov	eax, DWORD PTR _radioMessage$12[ebp]
	mov	WORD PTR [eax+edx+64], cx

; 1171 : 						FalconSendMessage(radioMessage, FALSE);

	push	0
	mov	ecx, DWORD PTR _radioMessage$12[ebp]
	push	ecx
	call	?FalconSendMessage@@YAXPAVVuMessage@@H@Z ; FalconSendMessage
	add	esp, 8
$LN6@DoPickupAi:

; 1172 : 					}
; 1173 : 				}
; 1174 : 			}
; 1175 : 		}

	jmp	$LN1@DoPickupAi
$LN9@DoPickupAi:

; 1176 :    		else if ( self->curWaypoint->GetWPAction() == WP_AIRDROP )

	mov	edx, DWORD PTR _this$[ebp]
	mov	eax, DWORD PTR [edx+56]
	mov	ecx, DWORD PTR [eax+728]
	call	?GetWPAction@WayPointClass@@QAEHXZ	; WayPointClass::GetWPAction
	cmp	eax, 25					; 00000019H
	jne	$LN1@DoPickupAi

; 1177 : 		{
; 1178 : 			// Load the airborne battalion.
; 1179 : 			cargo = (Unit) self->curWaypoint->GetWPTarget();

	mov	ecx, DWORD PTR _this$[ebp]
	mov	edx, DWORD PTR [ecx+56]
	mov	ecx, DWORD PTR [edx+728]
	call	?GetWPTarget@WayPointClass@@QAEPAVCampBaseClass@@XZ ; WayPointClass::GetWPTarget
	mov	DWORD PTR _cargo$[ebp], eax

; 1180 : 			unit = (Unit)self->GetCampaignObject();

	mov	eax, DWORD PTR _this$[ebp]
	mov	ecx, DWORD PTR [eax+56]
	call	?GetCampaignObject@SimBaseClass@@QAEPAVCampBaseClass@@XZ ; SimBaseClass::GetCampaignObject
	mov	DWORD PTR _unit$[ebp], eax

; 1181 : 			if (cargo && unit && unit->Cargo())

	cmp	DWORD PTR _cargo$[ebp], 0
	je	$LN1@DoPickupAi
	cmp	DWORD PTR _unit$[ebp], 0
	je	$LN1@DoPickupAi
	mov	ecx, DWORD PTR _unit$[ebp]
	call	?Cargo@UnitClass@@QBEHXZ		; UnitClass::Cargo
	test	eax, eax
	je	$LN1@DoPickupAi

; 1182 : 			{
; 1183 : 				unit->UnloadUnit();

	mov	ecx, DWORD PTR _unit$[ebp]
	call	?UnloadUnit@UnitClass@@QAEXXZ		; UnitClass::UnloadUnit

; 1184 : 				cargo->SetCargoId(FalconNullId);

	mov	ecx, DWORD PTR ?FalconNullId@@3VVU_ID@@A+4
	push	ecx
	mov	edx, DWORD PTR ?FalconNullId@@3VVU_ID@@A
	push	edx
	mov	ecx, DWORD PTR _cargo$[ebp]
	call	?SetCargoId@UnitClass@@QAEXVVU_ID@@@Z	; UnitClass::SetCargoId

; 1185 : 				cargo->SetInactive(0);

	push	0
	mov	ecx, DWORD PTR _cargo$[ebp]
	call	?SetInactive@UnitClass@@QAEXH@Z		; UnitClass::SetInactive

; 1186 : 				self->curWaypoint->GetWPLocation(&x,&y);

	lea	eax, DWORD PTR _y$[ebp]
	push	eax
	lea	ecx, DWORD PTR _x$[ebp]
	push	ecx
	mov	edx, DWORD PTR _this$[ebp]
	mov	eax, DWORD PTR [edx+56]
	mov	ecx, DWORD PTR [eax+728]
	call	?GetWPLocation@WayPointClass@@QBEXPAF0@Z ; WayPointClass::GetWPLocation

; 1187 : 				cargo->SetLocation(x,y);

	movzx	ecx, WORD PTR _y$[ebp]
	push	ecx
	movzx	edx, WORD PTR _x$[ebp]
	push	edx
	mov	ecx, DWORD PTR _cargo$[ebp]
	call	?SetLocation@CampBaseClass@@QAEXFF@Z	; CampBaseClass::SetLocation

; 1188 : 				if(RuleMode != rINSTANT_ACTION && RuleMode != rDOGFIGHT)

	cmp	DWORD PTR ?RuleMode@@3W4RulesModes@@A, 0 ; RuleMode
	je	$LN1@DoPickupAi
	cmp	DWORD PTR ?RuleMode@@3W4RulesModes@@A, 1 ; RuleMode
	je	$LN1@DoPickupAi

; 1189 : 				{
; 1190 : 					if(((Flight)self->GetCampaignObject())->GetFlightLeadSlot() == self->vehicleInUnit)

	mov	eax, DWORD PTR _this$[ebp]
	mov	ecx, DWORD PTR [eax+56]
	call	?GetCampaignObject@SimBaseClass@@QAEPAVCampBaseClass@@XZ ; SimBaseClass::GetCampaignObject
	mov	ecx, eax
	call	?GetFlightLeadSlot@FlightClass@@QAEHXZ	; FlightClass::GetFlightLeadSlot
	mov	ecx, DWORD PTR _this$[ebp]
	mov	edx, DWORD PTR [ecx+56]
	movzx	ecx, BYTE PTR [edx+664]
	cmp	eax, ecx
	jne	$LN1@DoPickupAi

; 1191 : 					{
; 1192 : 						FalconRadioChatterMessage* radioMessage = new FalconRadioChatterMessage( self->Id(), FalconLocalSession );

	push	84					; 00000054H
	call	??2@YAPAXI@Z				; operator new
	add	esp, 4
	mov	DWORD PTR $T10[ebp], eax
	mov	DWORD PTR __$EHRec$[ebp+8], 1
	cmp	DWORD PTR $T10[ebp], 0
	je	SHORT $LN22@DoPickupAi
	push	1
	mov	ecx, OFFSET ?vuLocalSessionEntity@@3V?$VuBin@VVuSessionEntity@@@@A ; vuLocalSessionEntity
	call	?get@?$VuBin@VVuSessionEntity@@@@QBEPAVVuSessionEntity@@XZ ; VuBin<VuSessionEntity>::get
	push	eax
	lea	edx, DWORD PTR $T4[ebp]
	push	edx
	mov	eax, DWORD PTR _this$[ebp]
	mov	ecx, DWORD PTR [eax+56]
	call	?Id@VuEntity@@QBE?AVVU_ID@@XZ		; VuEntity::Id
	mov	ecx, DWORD PTR [eax+4]
	push	ecx
	mov	edx, DWORD PTR [eax]
	push	edx
	mov	ecx, DWORD PTR $T10[ebp]
	call	??0FalconRadioChatterMessage@@QAE@VVU_ID@@PAVVuTargetEntity@@E@Z ; FalconRadioChatterMessage::FalconRadioChatterMessage
	mov	DWORD PTR tv493[ebp], eax
	jmp	SHORT $LN23@DoPickupAi
$LN22@DoPickupAi:
	mov	DWORD PTR tv493[ebp], 0
$LN23@DoPickupAi:
	mov	eax, DWORD PTR tv493[ebp]
	mov	DWORD PTR $T8[ebp], eax
	mov	DWORD PTR __$EHRec$[ebp+8], -1
	mov	ecx, DWORD PTR $T8[ebp]
	mov	DWORD PTR _radioMessage$13[ebp], ecx

; 1193 : 						radioMessage->dataBlock.from = self->Id();

	lea	edx, DWORD PTR $T2[ebp]
	push	edx
	mov	eax, DWORD PTR _this$[ebp]
	mov	ecx, DWORD PTR [eax+56]
	call	?Id@VuEntity@@QBE?AVVU_ID@@XZ		; VuEntity::Id
	mov	ecx, DWORD PTR [eax]
	mov	edx, DWORD PTR [eax+4]
	mov	eax, DWORD PTR _radioMessage$13[ebp]
	mov	DWORD PTR [eax+48], ecx
	mov	DWORD PTR [eax+52], edx

; 1194 : 						radioMessage->dataBlock.to = MESSAGE_FOR_TEAM;

	mov	ecx, DWORD PTR _radioMessage$13[ebp]
	mov	BYTE PTR [ecx+60], 1

; 1195 : 						radioMessage->dataBlock.voice_id = ((Flight)(self->GetCampaignObject()))->GetPilotVoiceID(self->vehicleInUnit);

	mov	edx, DWORD PTR _this$[ebp]
	mov	eax, DWORD PTR [edx+56]
	movzx	ecx, BYTE PTR [eax+664]
	push	ecx
	mov	edx, DWORD PTR _this$[ebp]
	mov	ecx, DWORD PTR [edx+56]
	call	?GetCampaignObject@SimBaseClass@@QAEPAVCampBaseClass@@XZ ; SimBaseClass::GetCampaignObject
	mov	ecx, eax
	call	?GetPilotVoiceID@FlightClass@@QAEEH@Z	; FlightClass::GetPilotVoiceID
	mov	ecx, DWORD PTR _radioMessage$13[ebp]
	mov	BYTE PTR [ecx+61], al

; 1196 : 						radioMessage->dataBlock.message = rcAIRDROPDONE;

	mov	edx, 6
	mov	eax, DWORD PTR _radioMessage$13[ebp]
	mov	WORD PTR [eax+62], dx

; 1197 : 						radioMessage->dataBlock.edata[0] = self->GetCallsignIdx();

	mov	ecx, DWORD PTR _this$[ebp]
	mov	ecx, DWORD PTR [ecx+56]
	call	?GetCallsignIdx@SimBaseClass@@QAEHXZ	; SimBaseClass::GetCallsignIdx
	mov	edx, 2
	imul	edx, 0
	mov	ecx, DWORD PTR _radioMessage$13[ebp]
	mov	WORD PTR [ecx+edx+64], ax

; 1198 : 						radioMessage->dataBlock.edata[1] = self->vehicleInUnit + 1;

	mov	edx, DWORD PTR _this$[ebp]
	mov	eax, DWORD PTR [edx+56]
	movzx	ecx, BYTE PTR [eax+664]
	add	ecx, 1
	mov	edx, 2
	shl	edx, 0
	mov	eax, DWORD PTR _radioMessage$13[ebp]
	mov	WORD PTR [eax+edx+64], cx

; 1199 : 						FalconSendMessage(radioMessage, FALSE);

	push	0
	mov	ecx, DWORD PTR _radioMessage$13[ebp]
	push	ecx
	call	?FalconSendMessage@@YAXPAVVuMessage@@H@Z ; FalconSendMessage
	add	esp, 8
$LN1@DoPickupAi:

; 1200 : 					}
; 1201 : 				}
; 1202 : 			}
; 1203 : 		}
; 1204 : 		SelectNextWaypoint();

	mov	ecx, DWORD PTR _this$[ebp]
	call	?SelectNextWaypoint@DigitalBrain@@IAEXXZ ; DigitalBrain::SelectNextWaypoint
$LN10@DoPickupAi:

; 1205 : 	}
; 1206 : 
; 1207 : 
; 1208 : 	// head to track point
; 1209 : 	TrackPoint(0.0F, desSpeed );

	push	ecx
	movss	xmm0, DWORD PTR _desSpeed$[ebp]
	movss	DWORD PTR [esp], xmm0
	push	ecx
	movss	xmm0, DWORD PTR __real@00000000
	movss	DWORD PTR [esp], xmm0
	mov	ecx, DWORD PTR _this$[ebp]
	call	?TrackPoint@DigitalBrain@@IAEMMM@Z	; DigitalBrain::TrackPoint
	fstp	ST(0)

; 1210 : 
; 1211 : 	// modify p and r stick settings by gain control
; 1212 : 	pStick *= gainCtrl;

	mov	edx, DWORD PTR _this$[ebp]
	movss	xmm0, DWORD PTR [edx+28]
	mulss	xmm0, DWORD PTR _gainCtrl$[ebp]
	mov	eax, DWORD PTR _this$[ebp]
	movss	DWORD PTR [eax+28], xmm0
$LN18@DoPickupAi:

; 1213 : //	rStick *= gainCtrl;
; 1214 : }

	mov	ecx, DWORD PTR __$EHRec$[ebp]
	mov	DWORD PTR fs:0, ecx
	pop	ecx
	mov	esp, ebp
	pop	ebp
	ret	0
_TEXT	ENDS
text$x	SEGMENT
__unwindfunclet$?DoPickupAirdrop@DigitalBrain@@IAEXXZ$0:
	mov	eax, DWORD PTR $T11[ebp]
	push	eax
	call	??3@YAXPAX@Z				; operator delete
	pop	ecx
	ret	0
__unwindfunclet$?DoPickupAirdrop@DigitalBrain@@IAEXXZ$1:
	mov	eax, DWORD PTR $T10[ebp]
	push	eax
	call	??3@YAXPAX@Z				; operator delete
	pop	ecx
	ret	0
__ehhandler$?DoPickupAirdrop@DigitalBrain@@IAEXXZ:
	mov	edx, DWORD PTR [esp+8]
	lea	eax, DWORD PTR [edx+12]
	mov	ecx, DWORD PTR [edx-184]
	xor	ecx, eax
	call	@__security_check_cookie@4
	mov	eax, OFFSET __ehfuncinfo$?DoPickupAirdrop@DigitalBrain@@IAEXXZ
	jmp	___CxxFrameHandler3
text$x	ENDS
?DoPickupAirdrop@DigitalBrain@@IAEXXZ ENDP		; DigitalBrain::DoPickupAirdrop
; Function compile flags: /Odtp
; File c:\users\zhitao li\documents\visual studio 2012\projects\freefalcon\sim\digi\waypoint.cpp
_TEXT	SEGMENT
_this$ = -12						; size = 4
_waypointIndex$ = -8					; size = 4
_wlist$ = -4						; size = 4
?GetTargetWPIndex@DigitalBrain@@IAEHXZ PROC		; DigitalBrain::GetTargetWPIndex
; _this$ = ecx

; 1058 : {

	push	ebp
	mov	ebp, esp
	sub	esp, 12					; 0000000cH
	mov	DWORD PTR _this$[ebp], ecx

; 1059 : 	WayPointClass* wlist = self->waypoint;

	mov	eax, DWORD PTR _this$[ebp]
	mov	ecx, DWORD PTR [eax+56]
	mov	edx, DWORD PTR [ecx+732]
	mov	DWORD PTR _wlist$[ebp], edx

; 1060 : 	int waypointIndex = 0;

	mov	DWORD PTR _waypointIndex$[ebp], 0
$LN5@GetTargetW:

; 1061 : 
; 1062 : 	// get the target waypoint index in the list
; 1063 : 	while (wlist)

	cmp	DWORD PTR _wlist$[ebp], 0
	je	SHORT $LN4@GetTargetW

; 1064 : 	{
; 1065 : 		if (wlist->GetWPFlags() & WPF_TARGET)

	mov	ecx, DWORD PTR _wlist$[ebp]
	call	?GetWPFlags@WayPointClass@@QAEKXZ	; WayPointClass::GetWPFlags
	and	eax, 1
	je	SHORT $LN3@GetTargetW

; 1066 : 			break;

	jmp	SHORT $LN4@GetTargetW
$LN3@GetTargetW:

; 1067 : 		wlist = wlist->GetNextWP();

	mov	ecx, DWORD PTR _wlist$[ebp]
	call	?GetNextWP@WayPointClass@@QAEPAV1@XZ	; WayPointClass::GetNextWP
	mov	DWORD PTR _wlist$[ebp], eax

; 1068 : 		waypointIndex++ ;

	mov	eax, DWORD PTR _waypointIndex$[ebp]
	add	eax, 1
	mov	DWORD PTR _waypointIndex$[ebp], eax

; 1069 : 	}

	jmp	SHORT $LN5@GetTargetW
$LN4@GetTargetW:

; 1070 : 	if (wlist)

	cmp	DWORD PTR _wlist$[ebp], 0
	je	SHORT $LN2@GetTargetW

; 1071 : 		return waypointIndex;

	mov	eax, DWORD PTR _waypointIndex$[ebp]
	jmp	SHORT $LN6@GetTargetW

; 1072 : 	else

	jmp	SHORT $LN6@GetTargetW
$LN2@GetTargetW:

; 1073 : 		return -1;

	or	eax, -1
$LN6@GetTargetW:

; 1074 : }

	mov	esp, ebp
	pop	ebp
	ret	0
?GetTargetWPIndex@DigitalBrain@@IAEHXZ ENDP		; DigitalBrain::GetTargetWPIndex
_TEXT	ENDS
; Function compile flags: /Odtp
; File c:\users\zhitao li\documents\visual studio 2012\projects\freefalcon\sim\digi\waypoint.cpp
_TEXT	SEGMENT
_tmpWaypoint$ = -16					; size = 4
_this$ = -12						; size = 4
_waypointIndex$ = -8					; size = 4
_wlist$ = -4						; size = 4
?GetWaypointIndex@DigitalBrain@@IAEHXZ PROC		; DigitalBrain::GetWaypointIndex
; _this$ = ecx

; 1044 : {

	push	ebp
	mov	ebp, esp
	sub	esp, 16					; 00000010H
	mov	DWORD PTR _this$[ebp], ecx

; 1045 : 	WayPointClass* tmpWaypoint = self->curWaypoint;

	mov	eax, DWORD PTR _this$[ebp]
	mov	ecx, DWORD PTR [eax+56]
	mov	edx, DWORD PTR [ecx+728]
	mov	DWORD PTR _tmpWaypoint$[ebp], edx

; 1046 : 	WayPointClass* wlist = self->waypoint;

	mov	eax, DWORD PTR _this$[ebp]
	mov	ecx, DWORD PTR [eax+56]
	mov	edx, DWORD PTR [ecx+732]
	mov	DWORD PTR _wlist$[ebp], edx

; 1047 : 	int waypointIndex;
; 1048 : 
; 1049 : 	// get our current waypoint index in the list
; 1050 : 	for ( waypointIndex = 0;

	mov	DWORD PTR _waypointIndex$[ebp], 0

; 1051 : 		  wlist && wlist != tmpWaypoint;

	jmp	SHORT $LN3@GetWaypoin
$LN2@GetWaypoin:

; 1052 : 		  wlist = wlist->GetNextWP(), waypointIndex++ );

	mov	ecx, DWORD PTR _wlist$[ebp]
	call	?GetNextWP@WayPointClass@@QAEPAV1@XZ	; WayPointClass::GetNextWP
	mov	DWORD PTR _wlist$[ebp], eax
	mov	eax, DWORD PTR _waypointIndex$[ebp]
	add	eax, 1
	mov	DWORD PTR _waypointIndex$[ebp], eax
$LN3@GetWaypoin:
	cmp	DWORD PTR _wlist$[ebp], 0
	je	SHORT $LN1@GetWaypoin
	mov	ecx, DWORD PTR _wlist$[ebp]
	cmp	ecx, DWORD PTR _tmpWaypoint$[ebp]
	je	SHORT $LN1@GetWaypoin
	jmp	SHORT $LN2@GetWaypoin
$LN1@GetWaypoin:

; 1053 : 	return waypointIndex;

	mov	eax, DWORD PTR _waypointIndex$[ebp]

; 1054 : }

	mov	esp, ebp
	pop	ebp
	ret	0
?GetWaypointIndex@DigitalBrain@@IAEHXZ ENDP		; DigitalBrain::GetWaypointIndex
_TEXT	ENDS
; Function compile flags: /Odtp
; File c:\users\zhitao li\documents\visual studio 2012\projects\freefalcon\sim\digi\waypoint.cpp
_TEXT	SEGMENT
$T2 = -120						; size = 8
$T3 = -112						; size = 8
$T4 = -104						; size = 8
$T5 = -96						; size = 8
$T6 = -88						; size = 8
$T7 = -80						; size = 4
$T8 = -76						; size = 4
$T9 = -72						; size = 4
_facMsg$10 = -68					; size = 4
tv367 = -64						; size = 4
$T11 = -60						; size = 4
tv355 = -56						; size = 4
tv272 = -52						; size = 4
$T12 = -48						; size = 4
tv163 = -44						; size = 4
$T13 = -40						; size = 4
_waypointIndex$ = -36					; size = 4
tv79 = -32						; size = 4
_wlist$ = -28						; size = 4
_radioMessage$14 = -24					; size = 4
_radioMessage$15 = -20					; size = 4
_this$ = -16						; size = 4
__$EHRec$ = -12						; size = 12
?SetWaypointSpecificStuff@DigitalBrain@@IAEXXZ PROC	; DigitalBrain::SetWaypointSpecificStuff
; _this$ = ecx

; 914  : {

	push	ebp
	mov	ebp, esp
	push	-1
	push	__ehhandler$?SetWaypointSpecificStuff@DigitalBrain@@IAEXXZ
	mov	eax, DWORD PTR fs:0
	push	eax
	sub	esp, 108				; 0000006cH
	mov	eax, DWORD PTR ___security_cookie
	xor	eax, ebp
	push	eax
	lea	eax, DWORD PTR __$EHRec$[ebp]
	mov	DWORD PTR fs:0, eax
	mov	DWORD PTR _this$[ebp], ecx

; 915  : WayPointClass* wlist;
; 916  : int waypointIndex;
; 917  : 
; 918  : 
; 919  : 
; 920  :    if (self->curWaypoint)

	mov	eax, DWORD PTR _this$[ebp]
	mov	ecx, DWORD PTR [eax+56]
	cmp	DWORD PTR [ecx+728], 0
	je	$LN6@SetWaypoin

; 921  :    {
; 922  :       switch (self->curWaypoint->GetWPAction())

	mov	edx, DWORD PTR _this$[ebp]
	mov	eax, DWORD PTR [edx+56]
	mov	ecx, DWORD PTR [eax+728]
	call	?GetWPAction@WayPointClass@@QAEHXZ	; WayPointClass::GetWPAction
	mov	DWORD PTR tv79[ebp], eax
	cmp	DWORD PTR tv79[ebp], 14			; 0000000eH
	jl	$LN6@SetWaypoin
	cmp	DWORD PTR tv79[ebp], 18			; 00000012H
	jle	$LN12@SetWaypoin
	cmp	DWORD PTR tv79[ebp], 25			; 00000019H
	je	SHORT $LN20@SetWaypoin
	jmp	$LN6@SetWaypoin
$LN20@SetWaypoin:

; 923  :       {
; 924  :          case WP_AIRDROP:
; 925  : 			 if(RuleMode != rINSTANT_ACTION && RuleMode != rDOGFIGHT)

	cmp	DWORD PTR ?RuleMode@@3W4RulesModes@@A, 0 ; RuleMode
	je	$LN19@SetWaypoin
	cmp	DWORD PTR ?RuleMode@@3W4RulesModes@@A, 1 ; RuleMode
	je	$LN19@SetWaypoin

; 926  : 			{
; 927  : 				 if(((Flight)self->GetCampaignObject())->GetFlightLeadSlot() == self->vehicleInUnit)

	mov	ecx, DWORD PTR _this$[ebp]
	mov	ecx, DWORD PTR [ecx+56]
	call	?GetCampaignObject@SimBaseClass@@QAEPAVCampBaseClass@@XZ ; SimBaseClass::GetCampaignObject
	mov	ecx, eax
	call	?GetFlightLeadSlot@FlightClass@@QAEHXZ	; FlightClass::GetFlightLeadSlot
	mov	edx, DWORD PTR _this$[ebp]
	mov	ecx, DWORD PTR [edx+56]
	movzx	edx, BYTE PTR [ecx+664]
	cmp	eax, edx
	jne	$LN19@SetWaypoin

; 928  : 				 {
; 929  : 					 FalconRadioChatterMessage* radioMessage = new FalconRadioChatterMessage( self->Id(), FalconLocalSession );

	push	84					; 00000054H
	call	??2@YAPAXI@Z				; operator new
	add	esp, 4
	mov	DWORD PTR $T13[ebp], eax
	mov	DWORD PTR __$EHRec$[ebp+8], 0
	cmp	DWORD PTR $T13[ebp], 0
	je	SHORT $LN26@SetWaypoin
	push	1
	mov	ecx, OFFSET ?vuLocalSessionEntity@@3V?$VuBin@VVuSessionEntity@@@@A ; vuLocalSessionEntity
	call	?get@?$VuBin@VVuSessionEntity@@@@QBEPAVVuSessionEntity@@XZ ; VuBin<VuSessionEntity>::get
	push	eax
	lea	eax, DWORD PTR $T6[ebp]
	push	eax
	mov	ecx, DWORD PTR _this$[ebp]
	mov	ecx, DWORD PTR [ecx+56]
	call	?Id@VuEntity@@QBE?AVVU_ID@@XZ		; VuEntity::Id
	mov	edx, DWORD PTR [eax+4]
	push	edx
	mov	eax, DWORD PTR [eax]
	push	eax
	mov	ecx, DWORD PTR $T13[ebp]
	call	??0FalconRadioChatterMessage@@QAE@VVU_ID@@PAVVuTargetEntity@@E@Z ; FalconRadioChatterMessage::FalconRadioChatterMessage
	mov	DWORD PTR tv163[ebp], eax
	jmp	SHORT $LN27@SetWaypoin
$LN26@SetWaypoin:
	mov	DWORD PTR tv163[ebp], 0
$LN27@SetWaypoin:
	mov	ecx, DWORD PTR tv163[ebp]
	mov	DWORD PTR $T9[ebp], ecx
	mov	DWORD PTR __$EHRec$[ebp+8], -1
	mov	edx, DWORD PTR $T9[ebp]
	mov	DWORD PTR _radioMessage$15[ebp], edx

; 930  : 					 radioMessage->dataBlock.from = self->Id();

	lea	eax, DWORD PTR $T5[ebp]
	push	eax
	mov	ecx, DWORD PTR _this$[ebp]
	mov	ecx, DWORD PTR [ecx+56]
	call	?Id@VuEntity@@QBE?AVVU_ID@@XZ		; VuEntity::Id
	mov	edx, DWORD PTR [eax]
	mov	eax, DWORD PTR [eax+4]
	mov	ecx, DWORD PTR _radioMessage$15[ebp]
	mov	DWORD PTR [ecx+48], edx
	mov	DWORD PTR [ecx+52], eax

; 931  : 					 radioMessage->dataBlock.to = MESSAGE_FOR_TEAM;

	mov	edx, DWORD PTR _radioMessage$15[ebp]
	mov	BYTE PTR [edx+60], 1

; 932  : 					 radioMessage->dataBlock.voice_id = ((Flight)(self->GetCampaignObject()))->GetPilotVoiceID(self->vehicleInUnit);

	mov	eax, DWORD PTR _this$[ebp]
	mov	ecx, DWORD PTR [eax+56]
	movzx	edx, BYTE PTR [ecx+664]
	push	edx
	mov	eax, DWORD PTR _this$[ebp]
	mov	ecx, DWORD PTR [eax+56]
	call	?GetCampaignObject@SimBaseClass@@QAEPAVCampBaseClass@@XZ ; SimBaseClass::GetCampaignObject
	mov	ecx, eax
	call	?GetPilotVoiceID@FlightClass@@QAEEH@Z	; FlightClass::GetPilotVoiceID
	mov	ecx, DWORD PTR _radioMessage$15[ebp]
	mov	BYTE PTR [ecx+61], al

; 933  : 					 radioMessage->dataBlock.message = rcAIRDROPAPPROACH;

	mov	edx, 5
	mov	eax, DWORD PTR _radioMessage$15[ebp]
	mov	WORD PTR [eax+62], dx

; 934  : 					 radioMessage->dataBlock.edata[0] = self->GetCallsignIdx();

	mov	ecx, DWORD PTR _this$[ebp]
	mov	ecx, DWORD PTR [ecx+56]
	call	?GetCallsignIdx@SimBaseClass@@QAEHXZ	; SimBaseClass::GetCallsignIdx
	mov	edx, 2
	imul	edx, 0
	mov	ecx, DWORD PTR _radioMessage$15[ebp]
	mov	WORD PTR [ecx+edx+64], ax

; 935  : 					 radioMessage->dataBlock.edata[1] = self->vehicleInUnit + 1;

	mov	edx, DWORD PTR _this$[ebp]
	mov	eax, DWORD PTR [edx+56]
	movzx	ecx, BYTE PTR [eax+664]
	add	ecx, 1
	mov	edx, 2
	shl	edx, 0
	mov	eax, DWORD PTR _radioMessage$15[ebp]
	mov	WORD PTR [eax+edx+64], cx

; 936  : 					 FalconSendMessage(radioMessage, FALSE);

	push	0
	mov	ecx, DWORD PTR _radioMessage$15[ebp]
	push	ecx
	call	?FalconSendMessage@@YAXPAVVuMessage@@H@Z ; FalconSendMessage
	add	esp, 8
$LN19@SetWaypoin:

; 937  : 				 }
; 938  : 			 }
; 939  :             // PlayRadioMessage (rcAIRDROPDONE)
; 940  :             // self is a pointer to the AC that has dropped troops/cargo
; 941  :          break;

	jmp	$LN6@SetWaypoin

; 942  : 
; 943  :          case WP_ELINT:
; 944  :          case WP_NOTHING:
; 945  :          case WP_TAKEOFF:
; 946  :          case WP_ASSEMBLE:
; 947  : 			 //TJL 11/10/03 Adding sounds?
; 948  : 			
; 949  :          case WP_POSTASSEMBLE:
; 950  :          case WP_REFUEL:
; 951  :          case WP_REARM:
; 952  :          case WP_LAND:
; 953  :          case WP_RECON:
; 954  :          case WP_RESCUE:
; 955  :          case WP_ASW:
; 956  :          case WP_TANKER:
; 957  :          case WP_JAM:
; 958  :          case WP_FAC:
; 959  :          break;

	jmp	$LN6@SetWaypoin

; 960  : 
; 961  :          case WP_ESCORT:
; 962  :          break;

	jmp	$LN6@SetWaypoin

; 963  : 
; 964  :          case WP_CA:
; 965  :          break;

	jmp	$LN6@SetWaypoin

; 966  : 
; 967  :          case WP_CAP:
; 968  :          break;

	jmp	$LN6@SetWaypoin

; 969  : 
; 970  :          case WP_INTERCEPT:
; 971  :          break;

	jmp	$LN6@SetWaypoin
$LN12@SetWaypoin:

; 972  : 
; 973  :          case WP_GNDSTRIKE:
; 974  :          case WP_NAVSTRIKE:
; 975  :          case WP_STRIKE:
; 976  :          case WP_BOMB:
; 977  :          case WP_SAD:
; 978  : 			 //TJL 11/10/03 Sounds?
; 979  : #if 0		// Retro 20May2004 - fixed logic
; 980  : 			 if (missionType == (AMIS_OCASTRIKE || AMIS_INTSTRIKE || AMIS_STRIKE || AMIS_DEEPSTRIKE || AMIS_STSTRIKE || AMIS_STRATBOMB) )
; 981  : #else
; 982  : 			 if ((missionType == AMIS_OCASTRIKE) ||
; 983  : 				 (missionType == AMIS_INTSTRIKE) ||
; 984  : 				 (missionType == AMIS_STRIKE) ||
; 985  : 				 (missionType == AMIS_DEEPSTRIKE)||
; 986  : 				 (missionType == AMIS_STSTRIKE) ||
; 987  : 				 (missionType == AMIS_STRATBOMB) )

	mov	edx, DWORD PTR _this$[ebp]
	cmp	DWORD PTR [edx+284], 13			; 0000000dH
	je	SHORT $LN10@SetWaypoin
	mov	eax, DWORD PTR _this$[ebp]
	cmp	DWORD PTR [eax+284], 14			; 0000000eH
	je	SHORT $LN10@SetWaypoin
	mov	ecx, DWORD PTR _this$[ebp]
	cmp	DWORD PTR [ecx+284], 15			; 0000000fH
	je	SHORT $LN10@SetWaypoin
	mov	edx, DWORD PTR _this$[ebp]
	cmp	DWORD PTR [edx+284], 16			; 00000010H
	je	SHORT $LN10@SetWaypoin
	mov	eax, DWORD PTR _this$[ebp]
	cmp	DWORD PTR [eax+284], 17			; 00000011H
	je	SHORT $LN10@SetWaypoin
	mov	ecx, DWORD PTR _this$[ebp]
	cmp	DWORD PTR [ecx+284], 18			; 00000012H
	jne	$LN11@SetWaypoin
$LN10@SetWaypoin:

; 988  : #endif		// Retro 20May2004 - end
; 989  : 			{
; 990  : 					 FalconRadioChatterMessage* radioMessage = new FalconRadioChatterMessage( self->Id(), FalconLocalSession );

	push	84					; 00000054H
	call	??2@YAPAXI@Z				; operator new
	add	esp, 4
	mov	DWORD PTR $T12[ebp], eax
	mov	DWORD PTR __$EHRec$[ebp+8], 1
	cmp	DWORD PTR $T12[ebp], 0
	je	SHORT $LN28@SetWaypoin
	push	1
	mov	ecx, OFFSET ?vuLocalSessionEntity@@3V?$VuBin@VVuSessionEntity@@@@A ; vuLocalSessionEntity
	call	?get@?$VuBin@VVuSessionEntity@@@@QBEPAVVuSessionEntity@@XZ ; VuBin<VuSessionEntity>::get
	push	eax
	lea	edx, DWORD PTR $T4[ebp]
	push	edx
	mov	eax, DWORD PTR _this$[ebp]
	mov	ecx, DWORD PTR [eax+56]
	call	?Id@VuEntity@@QBE?AVVU_ID@@XZ		; VuEntity::Id
	mov	ecx, DWORD PTR [eax+4]
	push	ecx
	mov	edx, DWORD PTR [eax]
	push	edx
	mov	ecx, DWORD PTR $T12[ebp]
	call	??0FalconRadioChatterMessage@@QAE@VVU_ID@@PAVVuTargetEntity@@E@Z ; FalconRadioChatterMessage::FalconRadioChatterMessage
	mov	DWORD PTR tv272[ebp], eax
	jmp	SHORT $LN29@SetWaypoin
$LN28@SetWaypoin:
	mov	DWORD PTR tv272[ebp], 0
$LN29@SetWaypoin:
	mov	eax, DWORD PTR tv272[ebp]
	mov	DWORD PTR $T8[ebp], eax
	mov	DWORD PTR __$EHRec$[ebp+8], -1
	mov	ecx, DWORD PTR $T8[ebp]
	mov	DWORD PTR _radioMessage$14[ebp], ecx

; 991  : 					 radioMessage->dataBlock.from = self->Id();

	lea	edx, DWORD PTR $T3[ebp]
	push	edx
	mov	eax, DWORD PTR _this$[ebp]
	mov	ecx, DWORD PTR [eax+56]
	call	?Id@VuEntity@@QBE?AVVU_ID@@XZ		; VuEntity::Id
	mov	ecx, DWORD PTR [eax]
	mov	edx, DWORD PTR [eax+4]
	mov	eax, DWORD PTR _radioMessage$14[ebp]
	mov	DWORD PTR [eax+48], ecx
	mov	DWORD PTR [eax+52], edx

; 992  : 					 radioMessage->dataBlock.to = MESSAGE_FOR_PACKAGE;

	mov	ecx, DWORD PTR _radioMessage$14[ebp]
	mov	BYTE PTR [ecx+60], 2

; 993  : 					 radioMessage->dataBlock.voice_id = ((Flight)(self->GetCampaignObject()))->GetPilotVoiceID(self->vehicleInUnit);

	mov	edx, DWORD PTR _this$[ebp]
	mov	eax, DWORD PTR [edx+56]
	movzx	ecx, BYTE PTR [eax+664]
	push	ecx
	mov	edx, DWORD PTR _this$[ebp]
	mov	ecx, DWORD PTR [edx+56]
	call	?GetCampaignObject@SimBaseClass@@QAEPAVCampBaseClass@@XZ ; SimBaseClass::GetCampaignObject
	mov	ecx, eax
	call	?GetPilotVoiceID@FlightClass@@QAEEH@Z	; FlightClass::GetPilotVoiceID
	mov	ecx, DWORD PTR _radioMessage$14[ebp]
	mov	BYTE PTR [ecx+61], al

; 994  : 					 radioMessage->dataBlock.message = rcFLIGHTIN;

	mov	edx, 74					; 0000004aH
	mov	eax, DWORD PTR _radioMessage$14[ebp]
	mov	WORD PTR [eax+62], dx

; 995  : 				     radioMessage->dataBlock.edata[0] = ((Flight)this)->callsign_id;

	mov	ecx, DWORD PTR _this$[ebp]
	movzx	dx, BYTE PTR [ecx+425]
	mov	eax, 2
	imul	eax, 0
	mov	ecx, DWORD PTR _radioMessage$14[ebp]
	mov	WORD PTR [ecx+eax+64], dx

; 996  : 				     radioMessage->dataBlock.edata[1] = ((Flight)this)->GetFlightLeadCallNumber();

	mov	ecx, DWORD PTR _this$[ebp]
	call	?GetFlightLeadCallNumber@FlightClass@@QAEHXZ ; FlightClass::GetFlightLeadCallNumber
	mov	edx, 2
	shl	edx, 0
	mov	ecx, DWORD PTR _radioMessage$14[ebp]
	mov	WORD PTR [ecx+edx+64], ax

; 997  : 				     radioMessage->dataBlock.edata[2] = rand()%12;

	call	_rand
	cdq
	mov	ecx, 12					; 0000000cH
	idiv	ecx
	mov	eax, 2
	shl	eax, 1
	mov	ecx, DWORD PTR _radioMessage$14[ebp]
	mov	WORD PTR [ecx+eax+64], dx
$LN11@SetWaypoin:

; 998  : 				 }
; 999  : 			 //End
; 1000 : 
; 1001 : 
; 1002 :             if (missionType == AMIS_CAS)

	mov	edx, DWORD PTR _this$[ebp]
	cmp	DWORD PTR [edx+284], 22			; 00000016H
	jne	$LN6@SetWaypoin

; 1003 :             {
; 1004 :             FalconFACMessage* facMsg;
; 1005 : 
; 1006 :                facMsg = new FalconFACMessage (self->Id(), FalconLocalGame);

	push	80					; 00000050H
	call	??2@YAPAXI@Z				; operator new
	add	esp, 4
	mov	DWORD PTR $T11[ebp], eax
	mov	DWORD PTR __$EHRec$[ebp+8], 2
	cmp	DWORD PTR $T11[ebp], 0
	je	SHORT $LN32@SetWaypoin
	mov	ecx, OFFSET ?vuLocalSessionEntity@@3V?$VuBin@VVuSessionEntity@@@@A ; vuLocalSessionEntity
	call	??B?$VuBin@VVuSessionEntity@@@@QBE_NXZ	; VuBin<VuSessionEntity>::operator bool
	movzx	eax, al
	test	eax, eax
	je	SHORT $LN30@SetWaypoin
	mov	ecx, OFFSET ?vuLocalSessionEntity@@3V?$VuBin@VVuSessionEntity@@@@A ; vuLocalSessionEntity
	call	?get@?$VuBin@VVuSessionEntity@@@@QBEPAVVuSessionEntity@@XZ ; VuBin<VuSessionEntity>::get
	mov	ecx, eax
	call	?GetGame@FalconSessionEntity@@QAEPAVFalconGameEntity@@XZ ; FalconSessionEntity::GetGame
	mov	DWORD PTR tv355[ebp], eax
	jmp	SHORT $LN31@SetWaypoin
$LN30@SetWaypoin:
	mov	DWORD PTR tv355[ebp], 0
$LN31@SetWaypoin:
	push	1
	mov	ecx, DWORD PTR tv355[ebp]
	push	ecx
	lea	edx, DWORD PTR $T2[ebp]
	push	edx
	mov	eax, DWORD PTR _this$[ebp]
	mov	ecx, DWORD PTR [eax+56]
	call	?Id@VuEntity@@QBE?AVVU_ID@@XZ		; VuEntity::Id
	mov	ecx, DWORD PTR [eax+4]
	push	ecx
	mov	edx, DWORD PTR [eax]
	push	edx
	mov	ecx, DWORD PTR $T11[ebp]
	call	??0FalconFACMessage@@QAE@VVU_ID@@PAVVuTargetEntity@@E@Z ; FalconFACMessage::FalconFACMessage
	mov	DWORD PTR tv367[ebp], eax
	jmp	SHORT $LN33@SetWaypoin
$LN32@SetWaypoin:
	mov	DWORD PTR tv367[ebp], 0
$LN33@SetWaypoin:
	mov	eax, DWORD PTR tv367[ebp]
	mov	DWORD PTR $T7[ebp], eax
	mov	DWORD PTR __$EHRec$[ebp+8], -1
	mov	ecx, DWORD PTR $T7[ebp]
	mov	DWORD PTR _facMsg$10[ebp], ecx

; 1007 :                facMsg->dataBlock.type = FalconFACMessage::CheckIn;

	mov	edx, DWORD PTR _facMsg$10[ebp]
	mov	DWORD PTR [edx+56], 0

; 1008 :                FalconSendMessage (facMsg,FALSE);

	push	0
	mov	eax, DWORD PTR _facMsg$10[ebp]
	push	eax
	call	?FalconSendMessage@@YAXPAVVuMessage@@H@Z ; FalconSendMessage
	add	esp, 8
$LN6@SetWaypoin:

; 1009 :             }
; 1010 :          break;
; 1011 : 
; 1012 :          case WP_SEAD:
; 1013 :          break;
; 1014 : 
; 1015 :          default:
; 1016 : //            MonoPrint ("Why am I here (Digi GetBrain)\n");
; 1017 :          break;
; 1018 :       }
; 1019 :    }
; 1020 :    else
; 1021 :    {
; 1022 :    }
; 1023 : 
; 1024 :    // For a player, make sure the HUD and ICP know the current waypoint
; 1025 :    if (self == SimDriver.GetPlayerEntity())

	mov	ecx, OFFSET ?SimDriver@@3VSimulationDriver@@A ; SimDriver
	call	?GetPlayerEntity@SimulationDriver@@QBEPAVSimMoverClass@@XZ ; SimulationDriver::GetPlayerEntity
	mov	ecx, DWORD PTR _this$[ebp]
	cmp	DWORD PTR [ecx+56], eax
	jne	SHORT $LN5@SetWaypoin

; 1026 :    {
; 1027 : 	   for ( waypointIndex = 0, wlist = self->waypoint;

	mov	DWORD PTR _waypointIndex$[ebp], 0
	mov	edx, DWORD PTR _this$[ebp]
	mov	eax, DWORD PTR [edx+56]
	mov	ecx, DWORD PTR [eax+732]
	mov	DWORD PTR _wlist$[ebp], ecx

; 1028 : 		     wlist && wlist != self->curWaypoint;

	jmp	SHORT $LN4@SetWaypoin
$LN3@SetWaypoin:

; 1029 : 		     wlist = wlist->GetNextWP(), waypointIndex++ );

	mov	ecx, DWORD PTR _wlist$[ebp]
	call	?GetNextWP@WayPointClass@@QAEPAV1@XZ	; WayPointClass::GetNextWP
	mov	DWORD PTR _wlist$[ebp], eax
	mov	edx, DWORD PTR _waypointIndex$[ebp]
	add	edx, 1
	mov	DWORD PTR _waypointIndex$[ebp], edx
$LN4@SetWaypoin:
	cmp	DWORD PTR _wlist$[ebp], 0
	je	SHORT $LN2@SetWaypoin
	mov	eax, DWORD PTR _this$[ebp]
	mov	ecx, DWORD PTR [eax+56]
	mov	edx, DWORD PTR _wlist$[ebp]
	cmp	edx, DWORD PTR [ecx+728]
	je	SHORT $LN2@SetWaypoin
	jmp	SHORT $LN3@SetWaypoin
$LN2@SetWaypoin:

; 1030 :       self->FCC->SetWaypointNum (waypointIndex);

	mov	eax, DWORD PTR _waypointIndex$[ebp]
	push	eax
	mov	ecx, DWORD PTR _this$[ebp]
	mov	edx, DWORD PTR [ecx+56]
	mov	ecx, DWORD PTR [edx+936]
	call	?SetWaypointNum@FireControlComputer@@QAEXH@Z ; FireControlComputer::SetWaypointNum
$LN5@SetWaypoin:

; 1031 :    }
; 1032 : 
; 1033 :    // Marco edit - set Formation depending on waypoint selected
; 1034 :    if (SimDriver.GetPlayerEntity() != self && !isWing && self->curWaypoint->GetWPFormation() != mCurFormation)

	mov	ecx, OFFSET ?SimDriver@@3VSimulationDriver@@A ; SimDriver
	call	?GetPlayerEntity@SimulationDriver@@QBEPAVSimMoverClass@@XZ ; SimulationDriver::GetPlayerEntity
	mov	ecx, DWORD PTR _this$[ebp]
	cmp	eax, DWORD PTR [ecx+56]
	je	SHORT $LN24@SetWaypoin
	mov	edx, DWORD PTR _this$[ebp]
	cmp	DWORD PTR [edx+24], 0
	jne	SHORT $LN24@SetWaypoin
	mov	eax, DWORD PTR _this$[ebp]
	mov	ecx, DWORD PTR [eax+56]
	mov	ecx, DWORD PTR [ecx+728]
	call	?GetWPFormation@WayPointClass@@QAEHXZ	; WayPointClass::GetWPFormation
	mov	edx, DWORD PTR _this$[ebp]
	cmp	eax, DWORD PTR [edx+812]
	je	SHORT $LN24@SetWaypoin

; 1035 :    {
; 1036 : 	    mCurFormation = self->curWaypoint->GetWPFormation() ;

	mov	eax, DWORD PTR _this$[ebp]
	mov	ecx, DWORD PTR [eax+56]
	mov	ecx, DWORD PTR [ecx+728]
	call	?GetWPFormation@WayPointClass@@QAEHXZ	; WayPointClass::GetWPFormation
	mov	edx, DWORD PTR _this$[ebp]
	mov	DWORD PTR [edx+812], eax

; 1037 : 		AiSendCommand (self, mCurFormation, AiFlight, FalconNullId);

	mov	eax, DWORD PTR ?FalconNullId@@3VVU_ID@@A+4
	push	eax
	mov	ecx, DWORD PTR ?FalconNullId@@3VVU_ID@@A
	push	ecx
	push	2
	mov	edx, DWORD PTR _this$[ebp]
	mov	eax, DWORD PTR [edx+812]
	push	eax
	mov	ecx, DWORD PTR _this$[ebp]
	mov	edx, DWORD PTR [ecx+56]
	push	edx
	call	?AiSendCommand@@YAXPAVSimBaseClass@@HHVVU_ID@@@Z ; AiSendCommand
	add	esp, 20					; 00000014H
$LN24@SetWaypoin:

; 1038 :    }
; 1039 :    // End Marco Edit
; 1040 : }

	mov	ecx, DWORD PTR __$EHRec$[ebp]
	mov	DWORD PTR fs:0, ecx
	pop	ecx
	mov	esp, ebp
	pop	ebp
	ret	0
_TEXT	ENDS
text$x	SEGMENT
__unwindfunclet$?SetWaypointSpecificStuff@DigitalBrain@@IAEXXZ$0:
	mov	eax, DWORD PTR $T13[ebp]
	push	eax
	call	??3@YAXPAX@Z				; operator delete
	pop	ecx
	ret	0
__unwindfunclet$?SetWaypointSpecificStuff@DigitalBrain@@IAEXXZ$1:
	mov	eax, DWORD PTR $T12[ebp]
	push	eax
	call	??3@YAXPAX@Z				; operator delete
	pop	ecx
	ret	0
__unwindfunclet$?SetWaypointSpecificStuff@DigitalBrain@@IAEXXZ$2:
	mov	eax, DWORD PTR $T11[ebp]
	push	eax
	call	??3@YAXPAX@Z				; operator delete
	pop	ecx
	ret	0
__ehhandler$?SetWaypointSpecificStuff@DigitalBrain@@IAEXXZ:
	mov	edx, DWORD PTR [esp+8]
	lea	eax, DWORD PTR [edx+12]
	mov	ecx, DWORD PTR [edx-112]
	xor	ecx, eax
	call	@__security_check_cookie@4
	mov	eax, OFFSET __ehfuncinfo$?SetWaypointSpecificStuff@DigitalBrain@@IAEXXZ
	jmp	___CxxFrameHandler3
text$x	ENDS
?SetWaypointSpecificStuff@DigitalBrain@@IAEXXZ ENDP	; DigitalBrain::SetWaypointSpecificStuff
; Function compile flags: /Odtp
; File c:\users\zhitao li\documents\visual studio 2012\projects\freefalcon\sim\digi\waypoint.cpp
_TEXT	SEGMENT
$T2 = -116						; size = 8
$T3 = -108						; size = 8
$T4 = -100						; size = 8
$T5 = -92						; size = 8
_tmpMission$6 = -84					; size = 4
$T7 = -80						; size = 4
$T8 = -76						; size = 4
tv447 = -72						; size = 4
$T9 = -68						; size = 4
tv386 = -64						; size = 4
tv291 = -60						; size = 4
$T10 = -56						; size = 4
tv255 = -52						; size = 4
_tmpWaypoint$ = -48					; size = 4
_waypointIndex$ = -44					; size = 4
_i$ = -40						; size = 4
_radioMessage$11 = -36					; size = 4
_radioMessage$12 = -32					; size = 4
_campUnit$ = -28					; size = 4
_campCurWP$ = -24					; size = 4
_wlist$ = -20						; size = 4
_this$ = -16						; size = 4
__$EHRec$ = -12						; size = 12
?SelectNextWaypoint@DigitalBrain@@IAEXXZ PROC		; DigitalBrain::SelectNextWaypoint
; _this$ = ecx

; 745  : {

	push	ebp
	mov	ebp, esp
	push	-1
	push	__ehhandler$?SelectNextWaypoint@DigitalBrain@@IAEXXZ
	mov	eax, DWORD PTR fs:0
	push	eax
	sub	esp, 104				; 00000068H
	mov	eax, DWORD PTR ___security_cookie
	xor	eax, ebp
	push	eax
	lea	eax, DWORD PTR __$EHRec$[ebp]
	mov	DWORD PTR fs:0, eax
	mov	DWORD PTR _this$[ebp], ecx

; 746  : 	WayPointClass* tmpWaypoint = self->curWaypoint;

	mov	eax, DWORD PTR _this$[ebp]
	mov	ecx, DWORD PTR [eax+56]
	mov	edx, DWORD PTR [ecx+728]
	mov	DWORD PTR _tmpWaypoint$[ebp], edx

; 747  : 	WayPointClass* wlist = self->waypoint;

	mov	eax, DWORD PTR _this$[ebp]
	mov	ecx, DWORD PTR [eax+56]
	mov	edx, DWORD PTR [ecx+732]
	mov	DWORD PTR _wlist$[ebp], edx

; 748  : 	UnitClass *campUnit = NULL;

	mov	DWORD PTR _campUnit$[ebp], 0

; 749  : 	WayPointClass *campCurWP = NULL;

	mov	DWORD PTR _campCurWP$[ebp], 0

; 750  : 	int waypointIndex,i;
; 751  : 
; 752  : 	ShiAssert(!self->OnGround());
; 753  : 	// first get our current waypoint index in the list
; 754  : 	for ( waypointIndex = 0;

	mov	DWORD PTR _waypointIndex$[ebp], 0

; 755  : 		  wlist && wlist != tmpWaypoint;

	jmp	SHORT $LN37@SelectNext
$LN36@SelectNext:

; 756  : 		  wlist = wlist->GetNextWP(), waypointIndex++ );

	mov	ecx, DWORD PTR _wlist$[ebp]
	call	?GetNextWP@WayPointClass@@QAEPAV1@XZ	; WayPointClass::GetNextWP
	mov	DWORD PTR _wlist$[ebp], eax
	mov	eax, DWORD PTR _waypointIndex$[ebp]
	add	eax, 1
	mov	DWORD PTR _waypointIndex$[ebp], eax
$LN37@SelectNext:
	cmp	DWORD PTR _wlist$[ebp], 0
	je	SHORT $LN35@SelectNext
	mov	ecx, DWORD PTR _wlist$[ebp]
	cmp	ecx, DWORD PTR _tmpWaypoint$[ebp]
	je	SHORT $LN35@SelectNext
	jmp	SHORT $LN36@SelectNext
$LN35@SelectNext:

; 757  : 
; 758  : 	// see if we're running in tactical or campaign.  If so, we want to
; 759  : 	// synch the campaign's waypoints with ours
; 760  : 	// if ( SimDriver.RunningCampaignOrTactical() )
; 761  : 	{
; 762  : 		// get the pointer to our campaign unit
; 763  : 		campUnit = (UnitClass *)self->GetCampaignObject();

	mov	edx, DWORD PTR _this$[ebp]
	mov	ecx, DWORD PTR [edx+56]
	call	?GetCampaignObject@SimBaseClass@@QAEPAVCampBaseClass@@XZ ; SimBaseClass::GetCampaignObject
	mov	DWORD PTR _campUnit$[ebp], eax

; 764  : 
; 765  : 		if ( campUnit ) // sanity check

	cmp	DWORD PTR _campUnit$[ebp], 0
	je	SHORT $LN34@SelectNext

; 766  : 		{
; 767  : 			campCurWP = campUnit->GetFirstUnitWP();

	mov	ecx, DWORD PTR _campUnit$[ebp]
	call	?GetFirstUnitWP@UnitClass@@QAEPAVWayPointClass@@XZ ; UnitClass::GetFirstUnitWP
	mov	DWORD PTR _campCurWP$[ebp], eax

; 768  : 
; 769  : 			// now get the camp waypoint that corresponds to our next in the
; 770  : 			// list by index
; 771  : 			for ( i = 0; i <= waypointIndex; i++ )

	mov	DWORD PTR _i$[ebp], 0
	jmp	SHORT $LN33@SelectNext
$LN32@SelectNext:
	mov	eax, DWORD PTR _i$[ebp]
	add	eax, 1
	mov	DWORD PTR _i$[ebp], eax
$LN33@SelectNext:
	mov	ecx, DWORD PTR _i$[ebp]
	cmp	ecx, DWORD PTR _waypointIndex$[ebp]
	jg	SHORT $LN34@SelectNext

; 772  : 			{
; 773  : 				if ( campCurWP ) // sanity check

	cmp	DWORD PTR _campCurWP$[ebp], 0
	je	SHORT $LN30@SelectNext

; 774  : 					campCurWP = campCurWP->GetNextWP();

	mov	ecx, DWORD PTR _campCurWP$[ebp]
	call	?GetNextWP@WayPointClass@@QAEPAV1@XZ	; WayPointClass::GetNextWP
	mov	DWORD PTR _campCurWP$[ebp], eax
$LN30@SelectNext:

; 775  : 			}

	jmp	SHORT $LN32@SelectNext
$LN34@SelectNext:

; 776  : 		}
; 777  : 	}
; 778  : 
; 779  : 	onStation = NotThereYet;

	mov	edx, DWORD PTR _this$[ebp]
	mov	DWORD PTR [edx+132], 0

; 780  : 	if (self->curWaypoint) // JB 011016 CTD fix

	mov	eax, DWORD PTR _this$[ebp]
	mov	ecx, DWORD PTR [eax+56]
	cmp	DWORD PTR [ecx+728], 0
	je	SHORT $LN29@SelectNext

; 781  : 		self->curWaypoint = self->curWaypoint->GetNextWP();

	mov	edx, DWORD PTR _this$[ebp]
	mov	eax, DWORD PTR [edx+56]
	mov	ecx, DWORD PTR [eax+728]
	call	?GetNextWP@WayPointClass@@QAEPAV1@XZ	; WayPointClass::GetNextWP
	mov	ecx, DWORD PTR _this$[ebp]
	mov	edx, DWORD PTR [ecx+56]
	mov	DWORD PTR [edx+728], eax
$LN29@SelectNext:

; 782  : 
; 783  : 	// KCK: This isn't working anyway - so I'm commentting it out in order to prevent bugs
; 784  : 	// in the ATC and Campaign
; 785  : 	// edg: this should be OK now that an obsolute waypoint index is used to
; 786  : 	// synch the current WP between sim and camp units.
; 787  : 	if ( campCurWP )

	cmp	DWORD PTR _campCurWP$[ebp], 0
	je	SHORT $LN28@SelectNext

; 788  : 	{
; 789  : 		campUnit->SetCurrentUnitWP( campCurWP );

	mov	eax, DWORD PTR _campCurWP$[ebp]
	push	eax
	mov	ecx, DWORD PTR _campUnit$[ebp]
	call	?SetCurrentUnitWP@UnitClass@@QAEXPAVWayPointClass@@@Z ; UnitClass::SetCurrentUnitWP
$LN28@SelectNext:

; 790  : 	}
; 791  :    waypointMode = 0;

	mov	ecx, DWORD PTR _this$[ebp]
	mov	DWORD PTR [ecx+128], 0

; 792  : 
; 793  :    if (!self->curWaypoint)

	mov	edx, DWORD PTR _this$[ebp]
	mov	eax, DWORD PTR [edx+56]
	cmp	DWORD PTR [eax+728], 0
	jne	$LN27@SelectNext

; 794  : 	{
; 795  :       // No current waypoint, so go home
; 796  : 		
; 797  : 		// JB 010715 If the Digi has a ground target it may switch 
; 798  : 		// between the second to last and last waypoint continuously.
; 799  : 		groundTargetPtr = NULL; 

	mov	ecx, DWORD PTR _this$[ebp]
	mov	DWORD PTR [ecx+224], 0

; 800  :     
; 801  : 		  wlist = self->waypoint;

	mov	edx, DWORD PTR _this$[ebp]
	mov	eax, DWORD PTR [edx+56]
	mov	ecx, DWORD PTR [eax+732]
	mov	DWORD PTR _wlist$[ebp], ecx

; 802  :       waypointIndex = 0;

	mov	DWORD PTR _waypointIndex$[ebp], 0
$LN26@SelectNext:

; 803  : 	   while (wlist)

	cmp	DWORD PTR _wlist$[ebp], 0
	je	SHORT $LN25@SelectNext

; 804  : 	   {
; 805  : 		   if (wlist->GetWPAction() == WP_LAND)

	mov	ecx, DWORD PTR _wlist$[ebp]
	call	?GetWPAction@WayPointClass@@QAEHXZ	; WayPointClass::GetWPAction
	cmp	eax, 7
	jne	SHORT $LN24@SelectNext

; 806  : 		   {
; 807  : 			   break;

	jmp	SHORT $LN25@SelectNext
$LN24@SelectNext:

; 808  : 		   }
; 809  :          waypointIndex ++;

	mov	edx, DWORD PTR _waypointIndex$[ebp]
	add	edx, 1
	mov	DWORD PTR _waypointIndex$[ebp], edx

; 810  : 		   wlist = wlist->GetNextWP();

	mov	ecx, DWORD PTR _wlist$[ebp]
	call	?GetNextWP@WayPointClass@@QAEPAV1@XZ	; WayPointClass::GetNextWP
	mov	DWORD PTR _wlist$[ebp], eax

; 811  : 	   }

	jmp	SHORT $LN26@SelectNext
$LN25@SelectNext:

; 812  : 
; 813  :       if (wlist)

	cmp	DWORD PTR _wlist$[ebp], 0
	je	SHORT $LN23@SelectNext

; 814  :       {
; 815  : 		   // get the pointer to our campaign unit
; 816  : 		   campUnit = (UnitClass *)self->GetCampaignObject();

	mov	eax, DWORD PTR _this$[ebp]
	mov	ecx, DWORD PTR [eax+56]
	call	?GetCampaignObject@SimBaseClass@@QAEPAVCampBaseClass@@XZ ; SimBaseClass::GetCampaignObject
	mov	DWORD PTR _campUnit$[ebp], eax

; 817  : 
; 818  : 		   if ( campUnit ) // sanity check

	cmp	DWORD PTR _campUnit$[ebp], 0
	je	SHORT $LN22@SelectNext

; 819  : 		   {
; 820  : 			   campCurWP = campUnit->GetFirstUnitWP();

	mov	ecx, DWORD PTR _campUnit$[ebp]
	call	?GetFirstUnitWP@UnitClass@@QAEPAVWayPointClass@@XZ ; UnitClass::GetFirstUnitWP
	mov	DWORD PTR _campCurWP$[ebp], eax

; 821  : 
; 822  : 			   // now get the camp waypoint that corresponds to our next in the
; 823  : 			   // list by index
; 824  : 			   for ( i = 0; i <= waypointIndex; i++ )

	mov	DWORD PTR _i$[ebp], 0
	jmp	SHORT $LN21@SelectNext
$LN20@SelectNext:
	mov	ecx, DWORD PTR _i$[ebp]
	add	ecx, 1
	mov	DWORD PTR _i$[ebp], ecx
$LN21@SelectNext:
	mov	edx, DWORD PTR _i$[ebp]
	cmp	edx, DWORD PTR _waypointIndex$[ebp]
	jg	SHORT $LN22@SelectNext

; 825  : 			   {
; 826  : 				   if ( campCurWP ) // sanity check

	cmp	DWORD PTR _campCurWP$[ebp], 0
	je	SHORT $LN18@SelectNext

; 827  : 					   campCurWP = campCurWP->GetNextWP();

	mov	ecx, DWORD PTR _campCurWP$[ebp]
	call	?GetNextWP@WayPointClass@@QAEPAV1@XZ	; WayPointClass::GetNextWP
	mov	DWORD PTR _campCurWP$[ebp], eax
$LN18@SelectNext:

; 828  : 			   }

	jmp	SHORT $LN20@SelectNext
$LN22@SelectNext:

; 829  : 		   }
; 830  :          self->curWaypoint = wlist;

	mov	eax, DWORD PTR _this$[ebp]
	mov	ecx, DWORD PTR [eax+56]
	mov	edx, DWORD PTR _wlist$[ebp]
	mov	DWORD PTR [ecx+728], edx

; 831  :       }
; 832  :       else

	jmp	SHORT $LN17@SelectNext
$LN23@SelectNext:

; 833  :       {
; 834  :          // go back to the beginning
; 835  :          self->curWaypoint = self->waypoint;

	mov	eax, DWORD PTR _this$[ebp]
	mov	ecx, DWORD PTR [eax+56]
	mov	edx, DWORD PTR _this$[ebp]
	mov	eax, DWORD PTR [edx+56]
	mov	ecx, DWORD PTR [ecx+732]
	mov	DWORD PTR [eax+728], ecx

; 836  :          campUnit->SetCurrentUnitWP( campUnit->GetFirstUnitWP() );

	mov	ecx, DWORD PTR _campUnit$[ebp]
	call	?GetFirstUnitWP@UnitClass@@QAEPAVWayPointClass@@XZ ; UnitClass::GetFirstUnitWP
	push	eax
	mov	ecx, DWORD PTR _campUnit$[ebp]
	call	?SetCurrentUnitWP@UnitClass@@QAEXPAVWayPointClass@@@Z ; UnitClass::SetCurrentUnitWP
$LN17@SelectNext:

; 837  :       }
; 838  : 	}
; 839  :    else if (!(tmpWaypoint->GetWPFlags() & WPF_REPEAT) &&

	jmp	$LN16@SelectNext
$LN27@SelectNext:

; 840  :          (self->curWaypoint->GetWPFlags() & WPF_REPEAT))

	mov	ecx, DWORD PTR _tmpWaypoint$[ebp]
	call	?GetWPFlags@WayPointClass@@QAEKXZ	; WayPointClass::GetWPFlags
	and	eax, 64					; 00000040H
	jne	$LN15@SelectNext
	mov	edx, DWORD PTR _this$[ebp]
	mov	eax, DWORD PTR [edx+56]
	mov	ecx, DWORD PTR [eax+728]
	call	?GetWPFlags@WayPointClass@@QAEKXZ	; WayPointClass::GetWPFlags
	and	eax, 64					; 00000040H
	je	$LN15@SelectNext

; 841  :    {
; 842  :       if (self->curWaypoint->GetWPFlags() & WPF_IP)

	mov	ecx, DWORD PTR _this$[ebp]
	mov	edx, DWORD PTR [ecx+56]
	mov	ecx, DWORD PTR [edx+728]
	call	?GetWPFlags@WayPointClass@@QAEKXZ	; WayPointClass::GetWPFlags
	and	eax, 8
	je	SHORT $LN14@SelectNext

; 843  :       {
; 844  :          SetATCFlag(ReachedIP);

	push	2097152					; 00200000H
	mov	ecx, DWORD PTR _this$[ebp]
	call	?SetATCFlag@DigitalBrain@@QAEXH@Z	; DigitalBrain::SetATCFlag
$LN14@SelectNext:

; 845  :       }
; 846  : 
; 847  : 	  if (!(moreFlags & SaidSunrise))	// only say sunrise once and only insert once into FAC list

	mov	eax, DWORD PTR _this$[ebp]
	mov	ecx, DWORD PTR [eax+968]
	and	ecx, 32					; 00000020H
	jne	$LN13@SelectNext

; 848  : 	  {
; 849  : 		  moreFlags |= SaidSunrise;

	mov	edx, DWORD PTR _this$[ebp]
	mov	eax, DWORD PTR [edx+968]
	or	eax, 32					; 00000020H
	mov	ecx, DWORD PTR _this$[ebp]
	mov	DWORD PTR [ecx+968], eax

; 850  :       switch (tmpWaypoint->GetWPAction())

	mov	ecx, DWORD PTR _tmpWaypoint$[ebp]
	call	?GetWPAction@WayPointClass@@QAEHXZ	; WayPointClass::GetWPAction
	mov	DWORD PTR tv255[ebp], eax
	cmp	DWORD PTR tv255[ebp], 20		; 00000014H
	je	SHORT $LN9@SelectNext
	cmp	DWORD PTR tv255[ebp], 30		; 0000001eH
	je	SHORT $LN10@SelectNext
	jmp	$LN13@SelectNext
$LN10@SelectNext:

; 851  :       {
; 852  :          case WP_FAC:
; 853  :             SimDriver.facList->ForcedInsert(self);

	mov	edx, DWORD PTR _this$[ebp]
	mov	eax, DWORD PTR [edx+56]
	push	eax
	mov	ecx, DWORD PTR ?SimDriver@@3VSimulationDriver@@A+28
	call	?ForcedInsert@FalconPrivateList@@QAEHPAVVuEntity@@@Z ; FalconPrivateList::ForcedInsert

; 854  :          break;

	jmp	$LN13@SelectNext
$LN9@SelectNext:

; 855  : 
; 856  :          case WP_ELINT:
; 857  : 			FalconRadioChatterMessage* radioMessage = new FalconRadioChatterMessage( self->Id(), FalconLocalSession );

	push	84					; 00000054H
	call	??2@YAPAXI@Z				; operator new
	add	esp, 4
	mov	DWORD PTR $T10[ebp], eax
	mov	DWORD PTR __$EHRec$[ebp+8], 0
	cmp	DWORD PTR $T10[ebp], 0
	je	SHORT $LN40@SelectNext
	push	1
	mov	ecx, OFFSET ?vuLocalSessionEntity@@3V?$VuBin@VVuSessionEntity@@@@A ; vuLocalSessionEntity
	call	?get@?$VuBin@VVuSessionEntity@@@@QBEPAVVuSessionEntity@@XZ ; VuBin<VuSessionEntity>::get
	push	eax
	lea	ecx, DWORD PTR $T5[ebp]
	push	ecx
	mov	edx, DWORD PTR _this$[ebp]
	mov	ecx, DWORD PTR [edx+56]
	call	?Id@VuEntity@@QBE?AVVU_ID@@XZ		; VuEntity::Id
	mov	ecx, DWORD PTR [eax+4]
	push	ecx
	mov	edx, DWORD PTR [eax]
	push	edx
	mov	ecx, DWORD PTR $T10[ebp]
	call	??0FalconRadioChatterMessage@@QAE@VVU_ID@@PAVVuTargetEntity@@E@Z ; FalconRadioChatterMessage::FalconRadioChatterMessage
	mov	DWORD PTR tv291[ebp], eax
	jmp	SHORT $LN41@SelectNext
$LN40@SelectNext:
	mov	DWORD PTR tv291[ebp], 0
$LN41@SelectNext:
	mov	eax, DWORD PTR tv291[ebp]
	mov	DWORD PTR $T8[ebp], eax
	mov	DWORD PTR __$EHRec$[ebp+8], -1
	mov	ecx, DWORD PTR $T8[ebp]
	mov	DWORD PTR _radioMessage$12[ebp], ecx

; 858  : 			radioMessage->dataBlock.from = self->Id();

	lea	edx, DWORD PTR $T4[ebp]
	push	edx
	mov	eax, DWORD PTR _this$[ebp]
	mov	ecx, DWORD PTR [eax+56]
	call	?Id@VuEntity@@QBE?AVVU_ID@@XZ		; VuEntity::Id
	mov	ecx, DWORD PTR [eax]
	mov	edx, DWORD PTR [eax+4]
	mov	eax, DWORD PTR _radioMessage$12[ebp]
	mov	DWORD PTR [eax+48], ecx
	mov	DWORD PTR [eax+52], edx

; 859  : 			radioMessage->dataBlock.to = MESSAGE_FOR_TEAM;

	mov	ecx, DWORD PTR _radioMessage$12[ebp]
	mov	BYTE PTR [ecx+60], 1

; 860  : 			radioMessage->dataBlock.voice_id = ((Flight)(self->GetCampaignObject()))->GetPilotVoiceID(self->vehicleInUnit);

	mov	edx, DWORD PTR _this$[ebp]
	mov	eax, DWORD PTR [edx+56]
	movzx	ecx, BYTE PTR [eax+664]
	push	ecx
	mov	edx, DWORD PTR _this$[ebp]
	mov	ecx, DWORD PTR [edx+56]
	call	?GetCampaignObject@SimBaseClass@@QAEPAVCampBaseClass@@XZ ; SimBaseClass::GetCampaignObject
	mov	ecx, eax
	call	?GetPilotVoiceID@FlightClass@@QAEEH@Z	; FlightClass::GetPilotVoiceID
	mov	ecx, DWORD PTR _radioMessage$12[ebp]
	mov	BYTE PTR [ecx+61], al

; 861  : 			radioMessage->dataBlock.message = rcAWACSON;

	mov	edx, 24					; 00000018H
	mov	eax, DWORD PTR _radioMessage$12[ebp]
	mov	WORD PTR [eax+62], dx

; 862  : 			radioMessage->dataBlock.edata[0] = -1;

	mov	ecx, 2
	imul	ecx, 0
	or	edx, -1
	mov	eax, DWORD PTR _radioMessage$12[ebp]
	mov	WORD PTR [eax+ecx+64], dx

; 863  : 			radioMessage->dataBlock.edata[1] = -1;

	mov	ecx, 2
	shl	ecx, 0
	or	edx, -1
	mov	eax, DWORD PTR _radioMessage$12[ebp]
	mov	WORD PTR [eax+ecx+64], dx

; 864  : 			radioMessage->dataBlock.edata[2] = self->GetCallsignIdx();

	mov	ecx, DWORD PTR _this$[ebp]
	mov	ecx, DWORD PTR [ecx+56]
	call	?GetCallsignIdx@SimBaseClass@@QAEHXZ	; SimBaseClass::GetCallsignIdx
	mov	edx, 2
	shl	edx, 1
	mov	ecx, DWORD PTR _radioMessage$12[ebp]
	mov	WORD PTR [ecx+edx+64], ax

; 865  : 			radioMessage->dataBlock.edata[3] = self->vehicleInUnit + 1;

	mov	edx, DWORD PTR _this$[ebp]
	mov	eax, DWORD PTR [edx+56]
	movzx	ecx, BYTE PTR [eax+664]
	add	ecx, 1
	mov	edx, 2
	imul	edx, 3
	mov	eax, DWORD PTR _radioMessage$12[ebp]
	mov	WORD PTR [eax+edx+64], cx

; 866  : 			FalconSendMessage(radioMessage, FALSE);

	push	0
	mov	ecx, DWORD PTR _radioMessage$12[ebp]
	push	ecx
	call	?FalconSendMessage@@YAXPAVVuMessage@@H@Z ; FalconSendMessage
	add	esp, 8
$LN13@SelectNext:

; 867  : 			// PlayRadioMessage (rcAWACSON)
; 868  : 			// self is a pointer to the AC that is going on-line
; 869  :          break;
; 870  :       }
; 871  : 	  }
; 872  :    }
; 873  :    else if ((tmpWaypoint->GetWPFlags() & WPF_REPEAT) &&

	jmp	$LN16@SelectNext
$LN15@SelectNext:

; 874  :          !(self->curWaypoint->GetWPFlags() & WPF_REPEAT))

	mov	ecx, DWORD PTR _tmpWaypoint$[ebp]
	call	?GetWPFlags@WayPointClass@@QAEKXZ	; WayPointClass::GetWPFlags
	and	eax, 64					; 00000040H
	je	$LN16@SelectNext
	mov	edx, DWORD PTR _this$[ebp]
	mov	eax, DWORD PTR [edx+56]
	mov	ecx, DWORD PTR [eax+728]
	call	?GetWPFlags@WayPointClass@@QAEKXZ	; WayPointClass::GetWPFlags
	and	eax, 64					; 00000040H
	jne	$LN16@SelectNext

; 875  :    {
; 876  :       switch (tmpWaypoint->GetWPAction())

	mov	ecx, DWORD PTR _tmpWaypoint$[ebp]
	call	?GetWPAction@WayPointClass@@QAEHXZ	; WayPointClass::GetWPAction
	mov	DWORD PTR tv386[ebp], eax
	cmp	DWORD PTR tv386[ebp], 20		; 00000014H
	je	SHORT $LN3@SelectNext
	cmp	DWORD PTR tv386[ebp], 30		; 0000001eH
	je	SHORT $LN4@SelectNext
	jmp	$LN16@SelectNext
$LN4@SelectNext:

; 877  :       {
; 878  :          case WP_FAC:
; 879  :             SimDriver.facList->Remove(self);

	mov	ecx, DWORD PTR _this$[ebp]
	mov	edx, DWORD PTR [ecx+56]
	push	edx
	mov	ecx, DWORD PTR ?SimDriver@@3VSimulationDriver@@A+28
	call	?Remove@VuCollection@@QAEHPAVVuEntity@@@Z ; VuCollection::Remove

; 880  :          break;

	jmp	$LN16@SelectNext
$LN3@SelectNext:

; 881  : 
; 882  :          case WP_ELINT:
; 883  : 			if(((Flight)self->GetCampaignObject())->GetFlightLeadSlot() == self->vehicleInUnit)

	mov	eax, DWORD PTR _this$[ebp]
	mov	ecx, DWORD PTR [eax+56]
	call	?GetCampaignObject@SimBaseClass@@QAEPAVCampBaseClass@@XZ ; SimBaseClass::GetCampaignObject
	mov	ecx, eax
	call	?GetFlightLeadSlot@FlightClass@@QAEHXZ	; FlightClass::GetFlightLeadSlot
	mov	ecx, DWORD PTR _this$[ebp]
	mov	edx, DWORD PTR [ecx+56]
	movzx	ecx, BYTE PTR [edx+664]
	cmp	eax, ecx
	jne	$LN16@SelectNext

; 884  : 			{
; 885  : 				FalconRadioChatterMessage* radioMessage = new FalconRadioChatterMessage( self->Id(), FalconLocalSession );

	push	84					; 00000054H
	call	??2@YAPAXI@Z				; operator new
	add	esp, 4
	mov	DWORD PTR $T9[ebp], eax
	mov	DWORD PTR __$EHRec$[ebp+8], 1
	cmp	DWORD PTR $T9[ebp], 0
	je	SHORT $LN42@SelectNext
	push	1
	mov	ecx, OFFSET ?vuLocalSessionEntity@@3V?$VuBin@VVuSessionEntity@@@@A ; vuLocalSessionEntity
	call	?get@?$VuBin@VVuSessionEntity@@@@QBEPAVVuSessionEntity@@XZ ; VuBin<VuSessionEntity>::get
	push	eax
	lea	edx, DWORD PTR $T3[ebp]
	push	edx
	mov	eax, DWORD PTR _this$[ebp]
	mov	ecx, DWORD PTR [eax+56]
	call	?Id@VuEntity@@QBE?AVVU_ID@@XZ		; VuEntity::Id
	mov	ecx, DWORD PTR [eax+4]
	push	ecx
	mov	edx, DWORD PTR [eax]
	push	edx
	mov	ecx, DWORD PTR $T9[ebp]
	call	??0FalconRadioChatterMessage@@QAE@VVU_ID@@PAVVuTargetEntity@@E@Z ; FalconRadioChatterMessage::FalconRadioChatterMessage
	mov	DWORD PTR tv447[ebp], eax
	jmp	SHORT $LN43@SelectNext
$LN42@SelectNext:
	mov	DWORD PTR tv447[ebp], 0
$LN43@SelectNext:
	mov	eax, DWORD PTR tv447[ebp]
	mov	DWORD PTR $T7[ebp], eax
	mov	DWORD PTR __$EHRec$[ebp+8], -1
	mov	ecx, DWORD PTR $T7[ebp]
	mov	DWORD PTR _radioMessage$11[ebp], ecx

; 886  : 				radioMessage->dataBlock.from = self->Id();

	lea	edx, DWORD PTR $T2[ebp]
	push	edx
	mov	eax, DWORD PTR _this$[ebp]
	mov	ecx, DWORD PTR [eax+56]
	call	?Id@VuEntity@@QBE?AVVU_ID@@XZ		; VuEntity::Id
	mov	ecx, DWORD PTR [eax]
	mov	edx, DWORD PTR [eax+4]
	mov	eax, DWORD PTR _radioMessage$11[ebp]
	mov	DWORD PTR [eax+48], ecx
	mov	DWORD PTR [eax+52], edx

; 887  : 				radioMessage->dataBlock.to = MESSAGE_FOR_TEAM;

	mov	ecx, DWORD PTR _radioMessage$11[ebp]
	mov	BYTE PTR [ecx+60], 1

; 888  : 				radioMessage->dataBlock.voice_id = ((Flight)(self->GetCampaignObject()))->GetPilotVoiceID(self->vehicleInUnit);

	mov	edx, DWORD PTR _this$[ebp]
	mov	eax, DWORD PTR [edx+56]
	movzx	ecx, BYTE PTR [eax+664]
	push	ecx
	mov	edx, DWORD PTR _this$[ebp]
	mov	ecx, DWORD PTR [edx+56]
	call	?GetCampaignObject@SimBaseClass@@QAEPAVCampBaseClass@@XZ ; SimBaseClass::GetCampaignObject
	mov	ecx, eax
	call	?GetPilotVoiceID@FlightClass@@QAEEH@Z	; FlightClass::GetPilotVoiceID
	mov	ecx, DWORD PTR _radioMessage$11[ebp]
	mov	BYTE PTR [ecx+61], al

; 889  : 				radioMessage->dataBlock.message = rcAWACSOFF;

	mov	edx, 23					; 00000017H
	mov	eax, DWORD PTR _radioMessage$11[ebp]
	mov	WORD PTR [eax+62], dx

; 890  : 				radioMessage->dataBlock.edata[0] = -1;

	mov	ecx, 2
	imul	ecx, 0
	or	edx, -1
	mov	eax, DWORD PTR _radioMessage$11[ebp]
	mov	WORD PTR [eax+ecx+64], dx

; 891  : 				radioMessage->dataBlock.edata[1] = -1;

	mov	ecx, 2
	shl	ecx, 0
	or	edx, -1
	mov	eax, DWORD PTR _radioMessage$11[ebp]
	mov	WORD PTR [eax+ecx+64], dx

; 892  : 				radioMessage->dataBlock.edata[2] = self->GetCallsignIdx();

	mov	ecx, DWORD PTR _this$[ebp]
	mov	ecx, DWORD PTR [ecx+56]
	call	?GetCallsignIdx@SimBaseClass@@QAEHXZ	; SimBaseClass::GetCallsignIdx
	mov	edx, 2
	shl	edx, 1
	mov	ecx, DWORD PTR _radioMessage$11[ebp]
	mov	WORD PTR [ecx+edx+64], ax

; 893  : 				radioMessage->dataBlock.edata[3] = self->vehicleInUnit + 1;

	mov	edx, DWORD PTR _this$[ebp]
	mov	eax, DWORD PTR [edx+56]
	movzx	ecx, BYTE PTR [eax+664]
	add	ecx, 1
	mov	edx, 2
	imul	edx, 3
	mov	eax, DWORD PTR _radioMessage$11[ebp]
	mov	WORD PTR [eax+edx+64], cx

; 894  : 				FalconSendMessage(radioMessage, FALSE);

	push	0
	mov	ecx, DWORD PTR _radioMessage$11[ebp]
	push	ecx
	call	?FalconSendMessage@@YAXPAVVuMessage@@H@Z ; FalconSendMessage
	add	esp, 8
$LN16@SelectNext:

; 895  : 			}
; 896  :          // PlayRadioMessage (rcAWACSOFF)
; 897  :          // self is a pointer to the AC that is going on-line
; 898  :          break;      	}
; 899  :    }
; 900  : 
; 901  : // 2001-07-04 ADDED BY S.G. RE_EVALUATE YOUR GROUND WEAPONS WHEN SWITCHING WAYPOINT...
; 902  :    if (!IsSetATC(HasAGWeapon) && (missionClass == AGMission)) {

	push	4194304					; 00400000H
	mov	ecx, DWORD PTR _this$[ebp]
	call	?IsSetATC@DigitalBrain@@QAEHH@Z		; DigitalBrain::IsSetATC
	test	eax, eax
	jne	SHORT $LN1@SelectNext
	mov	edx, DWORD PTR _this$[ebp]
	cmp	DWORD PTR [edx+288], 0
	jne	SHORT $LN1@SelectNext

; 903  : 	   MissionClassEnum tmpMission = missionClass;

	mov	eax, DWORD PTR _this$[ebp]
	mov	ecx, DWORD PTR [eax+288]
	mov	DWORD PTR _tmpMission$6[ebp], ecx

; 904  : 	   //missionClass = AAMission;		// Without this, SelectGroundWeapon might call SelectNextWaypoint which will result in a stack overflow
; 905  : 	   SelectGroundWeapon();

	mov	ecx, DWORD PTR _this$[ebp]
	call	?SelectGroundWeapon@DigitalBrain@@IAEXXZ ; DigitalBrain::SelectGroundWeapon

; 906  :    	 missionClass = tmpMission;

	mov	edx, DWORD PTR _this$[ebp]
	mov	eax, DWORD PTR _tmpMission$6[ebp]
	mov	DWORD PTR [edx+288], eax
$LN1@SelectNext:

; 907  :    }
; 908  : // END OF ADDED SECTION
; 909  : 
; 910  :    SetWaypointSpecificStuff();

	mov	ecx, DWORD PTR _this$[ebp]
	call	?SetWaypointSpecificStuff@DigitalBrain@@IAEXXZ ; DigitalBrain::SetWaypointSpecificStuff

; 911  : }

	mov	ecx, DWORD PTR __$EHRec$[ebp]
	mov	DWORD PTR fs:0, ecx
	pop	ecx
	mov	esp, ebp
	pop	ebp
	ret	0
_TEXT	ENDS
text$x	SEGMENT
__unwindfunclet$?SelectNextWaypoint@DigitalBrain@@IAEXXZ$0:
	mov	eax, DWORD PTR $T10[ebp]
	push	eax
	call	??3@YAXPAX@Z				; operator delete
	pop	ecx
	ret	0
__unwindfunclet$?SelectNextWaypoint@DigitalBrain@@IAEXXZ$1:
	mov	eax, DWORD PTR $T9[ebp]
	push	eax
	call	??3@YAXPAX@Z				; operator delete
	pop	ecx
	ret	0
__ehhandler$?SelectNextWaypoint@DigitalBrain@@IAEXXZ:
	mov	edx, DWORD PTR [esp+8]
	lea	eax, DWORD PTR [edx+12]
	mov	ecx, DWORD PTR [edx-108]
	xor	ecx, eax
	call	@__security_check_cookie@4
	mov	eax, OFFSET __ehfuncinfo$?SelectNextWaypoint@DigitalBrain@@IAEXXZ
	jmp	___CxxFrameHandler3
text$x	ENDS
?SelectNextWaypoint@DigitalBrain@@IAEXXZ ENDP		; DigitalBrain::SelectNextWaypoint
; Function compile flags: /Odtp
; File c:\users\zhitao li\documents\visual studio 2012\projects\freefalcon\sim\digi\waypoint.cpp
_TEXT	SEGMENT
tv778 = -144						; size = 8
tv692 = -136						; size = 8
tv679 = -128						; size = 4
tv667 = -124						; size = 4
tv894 = -120						; size = 4
tv655 = -116						; size = 4
tv886 = -112						; size = 4
tv661 = -108						; size = 4
tv913 = -104						; size = 4
tv909 = -100						; size = 4
tv855 = -96						; size = 4
tv673 = -92						; size = 4
tv805 = -88						; size = 4
tv907 = -84						; size = 4
tv790 = -80						; size = 4
tv685 = -76						; size = 4
tv911 = -72						; size = 4
_playerAC$ = -68					; size = 4
tv200 = -64						; size = 4
_ttg$ = -60						; size = 4
tv203 = -56						; size = 4
tv775 = -52						; size = 4
tv204 = -48						; size = 4
tv435 = -44						; size = 4
_rng$ = -40						; size = 4
_wpY$ = -36						; size = 4
_tmpWaypoint$ = -32					; size = 4
_wpX$ = -28						; size = 4
_timeDelta$ = -24					; size = 4
_wpZ$ = -20						; size = 4
_desSpeed$ = -16					; size = 4
_desLoad$ = -12						; size = 4
_desHeading$ = -8					; size = 4
_this$ = -4						; size = 4
?GoToCurrentWaypoint@DigitalBrain@@IAEXXZ PROC		; DigitalBrain::GoToCurrentWaypoint
; _this$ = ecx

; 529  : {

	push	ebp
	mov	ebp, esp
	sub	esp, 144				; 00000090H
	push	esi
	mov	DWORD PTR _this$[ebp], ecx

; 530  : 	float rng, desHeading;
; 531  : 	float desLoad;
; 532  : 	float ttg, desSpeed;
; 533  : 	float wpX, wpY, wpZ;
; 534  : 	WayPointClass* tmpWaypoint;
; 535  : 	long timeDelta;
; 536  : 	AircraftClass *playerAC = SimDriver.GetPlayerAircraft();

	mov	ecx, OFFSET ?SimDriver@@3VSimulationDriver@@A ; SimDriver
	call	?GetPlayerAircraft@SimulationDriver@@QBEPAVAircraftClass@@XZ ; SimulationDriver::GetPlayerAircraft
	mov	DWORD PTR _playerAC$[ebp], eax

; 537  : 
; 538  : 	if(self == playerAC && playerAC->FCC->GetStptMode() != FireControlComputer::FCCWaypoint) {

	mov	eax, DWORD PTR _this$[ebp]
	mov	ecx, DWORD PTR [eax+56]
	cmp	ecx, DWORD PTR _playerAC$[ebp]
	jne	SHORT $LN45@GoToCurren
	mov	edx, DWORD PTR _playerAC$[ebp]
	mov	ecx, DWORD PTR [edx+936]
	call	?GetStptMode@FireControlComputer@@QAE?AW4FCCStptMode@1@XZ ; FireControlComputer::GetStptMode
	test	eax, eax
	je	SHORT $LN45@GoToCurren

; 539  : 		return;  // VWF 5/25/98 for E3

	jmp	$LN46@GoToCurren
$LN45@GoToCurren:

; 540  : 	}
; 541  : 
; 542  :    self->curWaypoint->GetLocation (&wpX, &wpY, &wpZ);

	lea	eax, DWORD PTR _wpZ$[ebp]
	push	eax
	lea	ecx, DWORD PTR _wpY$[ebp]
	push	ecx
	lea	edx, DWORD PTR _wpX$[ebp]
	push	edx
	mov	eax, DWORD PTR _this$[ebp]
	mov	ecx, DWORD PTR [eax+56]
	mov	ecx, DWORD PTR [ecx+728]
	call	?GetLocation@WayPointClass@@QBEXPAM00@Z	; WayPointClass::GetLocation

; 543  :    SetTrackPoint(wpX, wpY, wpZ);

	push	ecx
	movss	xmm0, DWORD PTR _wpZ$[ebp]
	movss	DWORD PTR [esp], xmm0
	push	ecx
	movss	xmm0, DWORD PTR _wpY$[ebp]
	movss	DWORD PTR [esp], xmm0
	push	ecx
	movss	xmm0, DWORD PTR _wpX$[ebp]
	movss	DWORD PTR [esp], xmm0
	mov	ecx, DWORD PTR _this$[ebp]
	call	?SetTrackPoint@DigitalBrain@@QAEXMMM@Z	; DigitalBrain::SetTrackPoint

; 544  :    if (curMode != lastMode)

	mov	edx, DWORD PTR _this$[ebp]
	mov	eax, DWORD PTR _this$[ebp]
	mov	ecx, DWORD PTR [edx+136]
	cmp	ecx, DWORD PTR [eax+140]
	je	SHORT $LN44@GoToCurren

; 545  :    {
; 546  :       onStation = NotThereYet;

	mov	edx, DWORD PTR _this$[ebp]
	mov	DWORD PTR [edx+132], 0

; 547  :       holdAlt = -wpZ;

	movss	xmm0, DWORD PTR _wpZ$[ebp]
	xorps	xmm0, DWORD PTR __xmm@80000000800000008000000080000000
	mov	eax, DWORD PTR _this$[ebp]
	movss	DWORD PTR [eax+160], xmm0

; 548  : 		waypointMode = 1;

	mov	ecx, DWORD PTR _this$[ebp]
	mov	DWORD PTR [ecx+128], 1
$LN44@GoToCurren:

; 549  :    }
; 550  : 
; 551  : 	/*---------------------------*/
; 552  : 	/* Range to current waypoint */
; 553  : 	/*---------------------------*/
; 554  : 	rng = (wpX - self->XPos()) * (wpX - self->XPos()) + (wpY - self->YPos()) *	(wpY - self->YPos());

	mov	edx, DWORD PTR _this$[ebp]
	mov	ecx, DWORD PTR [edx+56]
	call	?XPos@VuEntity@@QBEMXZ			; VuEntity::XPos
	fstp	DWORD PTR tv655[ebp]
	movss	xmm0, DWORD PTR _wpX$[ebp]
	subss	xmm0, DWORD PTR tv655[ebp]
	mov	eax, DWORD PTR _this$[ebp]
	mov	ecx, DWORD PTR [eax+56]
	movss	DWORD PTR tv907[ebp], xmm0
	call	?XPos@VuEntity@@QBEMXZ			; VuEntity::XPos
	fstp	DWORD PTR tv661[ebp]
	movss	xmm0, DWORD PTR _wpX$[ebp]
	subss	xmm0, DWORD PTR tv661[ebp]
	movss	xmm1, DWORD PTR tv907[ebp]
	mulss	xmm1, xmm0
	mov	ecx, DWORD PTR _this$[ebp]
	mov	ecx, DWORD PTR [ecx+56]
	movss	DWORD PTR tv909[ebp], xmm1
	call	?YPos@VuEntity@@QBEMXZ			; VuEntity::YPos
	fstp	DWORD PTR tv667[ebp]
	movss	xmm0, DWORD PTR _wpY$[ebp]
	subss	xmm0, DWORD PTR tv667[ebp]
	mov	edx, DWORD PTR _this$[ebp]
	mov	ecx, DWORD PTR [edx+56]
	movss	DWORD PTR tv911[ebp], xmm0
	call	?YPos@VuEntity@@QBEMXZ			; VuEntity::YPos
	fstp	DWORD PTR tv673[ebp]
	movss	xmm0, DWORD PTR _wpY$[ebp]
	subss	xmm0, DWORD PTR tv673[ebp]
	movss	xmm1, DWORD PTR tv911[ebp]
	mulss	xmm1, xmm0
	movss	xmm0, DWORD PTR tv909[ebp]
	addss	xmm0, xmm1
	movss	DWORD PTR _rng$[ebp], xmm0

; 555  : 
; 556  : 	/*------------------------------------*/
; 557  : 	/* Heading error for current waypoint */
; 558  : 	/*------------------------------------*/
; 559  : 	desHeading = (float)atan2 ( wpY - self->YPos(), wpX - self->XPos()) - af->sigma;

	mov	eax, DWORD PTR _this$[ebp]
	mov	ecx, DWORD PTR [eax+56]
	call	?XPos@VuEntity@@QBEMXZ			; VuEntity::XPos
	fstp	DWORD PTR tv679[ebp]
	movss	xmm0, DWORD PTR _wpX$[ebp]
	subss	xmm0, DWORD PTR tv679[ebp]
	cvtss2sd xmm0, xmm0
	sub	esp, 8
	movsd	QWORD PTR [esp], xmm0
	mov	ecx, DWORD PTR _this$[ebp]
