; Listing generated by Microsoft (R) Optimizing Compiler Version 17.00.51106.1 

	TITLE	C:\Users\Zhitao Li\Documents\Visual Studio 2012\Projects\Freefalcon\FALCLIB\MsgSrc\AWACSMsg.cpp
	.686P
	.XMM
	include listing.inc
	.model	flat

INCLUDELIB LIBCMT
INCLUDELIB OLDNAMES

PUBLIC	?value@?$integral_constant@I$0A@@std@@2IB	; std::integral_constant<unsigned int,0>::value
PUBLIC	?digits@?$numeric_limits@N@std@@2HB		; std::numeric_limits<double>::digits
PUBLIC	?digits10@?$numeric_limits@N@std@@2HB		; std::numeric_limits<double>::digits10
PUBLIC	?max_digits10@?$numeric_limits@N@std@@2HB	; std::numeric_limits<double>::max_digits10
PUBLIC	?max_exponent@?$numeric_limits@N@std@@2HB	; std::numeric_limits<double>::max_exponent
PUBLIC	?max_exponent10@?$numeric_limits@N@std@@2HB	; std::numeric_limits<double>::max_exponent10
PUBLIC	?min_exponent@?$numeric_limits@N@std@@2HB	; std::numeric_limits<double>::min_exponent
PUBLIC	?min_exponent10@?$numeric_limits@N@std@@2HB	; std::numeric_limits<double>::min_exponent10
PUBLIC	?digits@?$numeric_limits@O@std@@2HB		; std::numeric_limits<long double>::digits
PUBLIC	?digits10@?$numeric_limits@O@std@@2HB		; std::numeric_limits<long double>::digits10
PUBLIC	?max_digits10@?$numeric_limits@O@std@@2HB	; std::numeric_limits<long double>::max_digits10
PUBLIC	?max_exponent@?$numeric_limits@O@std@@2HB	; std::numeric_limits<long double>::max_exponent
PUBLIC	?max_exponent10@?$numeric_limits@O@std@@2HB	; std::numeric_limits<long double>::max_exponent10
PUBLIC	?min_exponent@?$numeric_limits@O@std@@2HB	; std::numeric_limits<long double>::min_exponent
PUBLIC	?min_exponent10@?$numeric_limits@O@std@@2HB	; std::numeric_limits<long double>::min_exponent10
PUBLIC	?value@?$_Sizeof@U_Nil@std@@U12@U12@U12@U12@U12@U12@U12@@std@@2IB ; std::_Sizeof<std::_Nil,std::_Nil,std::_Nil,std::_Nil,std::_Nil,std::_Nil,std::_Nil,std::_Nil>::value
PUBLIC	?has_denorm@_Num_base@std@@2W4float_denorm_style@2@B ; std::_Num_base::has_denorm
PUBLIC	?has_denorm_loss@_Num_base@std@@2_NB		; std::_Num_base::has_denorm_loss
PUBLIC	?has_infinity@_Num_base@std@@2_NB		; std::_Num_base::has_infinity
PUBLIC	?has_quiet_NaN@_Num_base@std@@2_NB		; std::_Num_base::has_quiet_NaN
PUBLIC	?has_signaling_NaN@_Num_base@std@@2_NB		; std::_Num_base::has_signaling_NaN
PUBLIC	?is_bounded@_Num_base@std@@2_NB			; std::_Num_base::is_bounded
PUBLIC	?is_exact@_Num_base@std@@2_NB			; std::_Num_base::is_exact
PUBLIC	?is_iec559@_Num_base@std@@2_NB			; std::_Num_base::is_iec559
PUBLIC	?is_integer@_Num_base@std@@2_NB			; std::_Num_base::is_integer
PUBLIC	?is_modulo@_Num_base@std@@2_NB			; std::_Num_base::is_modulo
PUBLIC	?is_signed@_Num_base@std@@2_NB			; std::_Num_base::is_signed
PUBLIC	?is_specialized@_Num_base@std@@2_NB		; std::_Num_base::is_specialized
PUBLIC	?tinyness_before@_Num_base@std@@2_NB		; std::_Num_base::tinyness_before
PUBLIC	?traps@_Num_base@std@@2_NB			; std::_Num_base::traps
PUBLIC	?round_style@_Num_base@std@@2W4float_round_style@2@B ; std::_Num_base::round_style
PUBLIC	?digits@_Num_base@std@@2HB			; std::_Num_base::digits
PUBLIC	?digits10@_Num_base@std@@2HB			; std::_Num_base::digits10
PUBLIC	?max_digits10@_Num_base@std@@2HB		; std::_Num_base::max_digits10
PUBLIC	?max_exponent@_Num_base@std@@2HB		; std::_Num_base::max_exponent
PUBLIC	?max_exponent10@_Num_base@std@@2HB		; std::_Num_base::max_exponent10
PUBLIC	?min_exponent@_Num_base@std@@2HB		; std::_Num_base::min_exponent
PUBLIC	?min_exponent10@_Num_base@std@@2HB		; std::_Num_base::min_exponent10
PUBLIC	?radix@_Num_base@std@@2HB			; std::_Num_base::radix
PUBLIC	?is_bounded@_Num_int_base@std@@2_NB		; std::_Num_int_base::is_bounded
PUBLIC	?is_exact@_Num_int_base@std@@2_NB		; std::_Num_int_base::is_exact
PUBLIC	?is_integer@_Num_int_base@std@@2_NB		; std::_Num_int_base::is_integer
PUBLIC	?is_modulo@_Num_int_base@std@@2_NB		; std::_Num_int_base::is_modulo
PUBLIC	?is_specialized@_Num_int_base@std@@2_NB		; std::_Num_int_base::is_specialized
PUBLIC	?radix@_Num_int_base@std@@2HB			; std::_Num_int_base::radix
PUBLIC	?has_denorm@_Num_float_base@std@@2W4float_denorm_style@2@B ; std::_Num_float_base::has_denorm
PUBLIC	?has_denorm_loss@_Num_float_base@std@@2_NB	; std::_Num_float_base::has_denorm_loss
PUBLIC	?SIMDIRTYDATA_INTERVAL@FalconEntity@@2KB	; FalconEntity::SIMDIRTYDATA_INTERVAL
PUBLIC	?CMPDIRTYDATA_INTERVAL@FalconEntity@@2KB	; FalconEntity::CMPDIRTYDATA_INTERVAL
PUBLIC	?has_infinity@_Num_float_base@std@@2_NB		; std::_Num_float_base::has_infinity
PUBLIC	?has_quiet_NaN@_Num_float_base@std@@2_NB	; std::_Num_float_base::has_quiet_NaN
PUBLIC	?has_signaling_NaN@_Num_float_base@std@@2_NB	; std::_Num_float_base::has_signaling_NaN
PUBLIC	?is_bounded@_Num_float_base@std@@2_NB		; std::_Num_float_base::is_bounded
PUBLIC	?is_exact@_Num_float_base@std@@2_NB		; std::_Num_float_base::is_exact
PUBLIC	?is_iec559@_Num_float_base@std@@2_NB		; std::_Num_float_base::is_iec559
PUBLIC	?is_integer@_Num_float_base@std@@2_NB		; std::_Num_float_base::is_integer
PUBLIC	?is_modulo@_Num_float_base@std@@2_NB		; std::_Num_float_base::is_modulo
PUBLIC	?is_signed@_Num_float_base@std@@2_NB		; std::_Num_float_base::is_signed
PUBLIC	?is_specialized@_Num_float_base@std@@2_NB	; std::_Num_float_base::is_specialized
PUBLIC	?tinyness_before@_Num_float_base@std@@2_NB	; std::_Num_float_base::tinyness_before
PUBLIC	?traps@_Num_float_base@std@@2_NB		; std::_Num_float_base::traps
PUBLIC	?round_style@_Num_float_base@std@@2W4float_round_style@2@B ; std::_Num_float_base::round_style
PUBLIC	?radix@_Num_float_base@std@@2HB			; std::_Num_float_base::radix
PUBLIC	?is_signed@?$numeric_limits@D@std@@2_NB		; std::numeric_limits<char>::is_signed
PUBLIC	?digits@?$numeric_limits@D@std@@2HB		; std::numeric_limits<char>::digits
PUBLIC	?digits10@?$numeric_limits@D@std@@2HB		; std::numeric_limits<char>::digits10
PUBLIC	?value@?$integral_constant@_N$0A@@std@@2_NB	; std::integral_constant<bool,0>::value
PUBLIC	?is_signed@?$numeric_limits@_W@std@@2_NB	; std::numeric_limits<wchar_t>::is_signed
PUBLIC	?digits@?$numeric_limits@_W@std@@2HB		; std::numeric_limits<wchar_t>::digits
PUBLIC	?digits10@?$numeric_limits@_W@std@@2HB		; std::numeric_limits<wchar_t>::digits10
PUBLIC	?value@?$integral_constant@_N$00@std@@2_NB	; std::integral_constant<bool,1>::value
PUBLIC	?is_modulo@?$numeric_limits@_N@std@@2_NB	; std::numeric_limits<bool>::is_modulo
PUBLIC	?is_signed@?$numeric_limits@_N@std@@2_NB	; std::numeric_limits<bool>::is_signed
PUBLIC	?digits@?$numeric_limits@_N@std@@2HB		; std::numeric_limits<bool>::digits
PUBLIC	?digits10@?$numeric_limits@_N@std@@2HB		; std::numeric_limits<bool>::digits10
PUBLIC	?is_signed@?$numeric_limits@C@std@@2_NB		; std::numeric_limits<signed char>::is_signed
PUBLIC	?digits@?$numeric_limits@C@std@@2HB		; std::numeric_limits<signed char>::digits
PUBLIC	?digits10@?$numeric_limits@C@std@@2HB		; std::numeric_limits<signed char>::digits10
PUBLIC	?is_signed@?$numeric_limits@E@std@@2_NB		; std::numeric_limits<unsigned char>::is_signed
PUBLIC	?digits@?$numeric_limits@E@std@@2HB		; std::numeric_limits<unsigned char>::digits
PUBLIC	?digits10@?$numeric_limits@E@std@@2HB		; std::numeric_limits<unsigned char>::digits10
PUBLIC	?is_signed@?$numeric_limits@F@std@@2_NB		; std::numeric_limits<short>::is_signed
PUBLIC	?digits@?$numeric_limits@F@std@@2HB		; std::numeric_limits<short>::digits
PUBLIC	?digits10@?$numeric_limits@F@std@@2HB		; std::numeric_limits<short>::digits10
PUBLIC	?is_signed@?$numeric_limits@G@std@@2_NB		; std::numeric_limits<unsigned short>::is_signed
PUBLIC	?digits@?$numeric_limits@G@std@@2HB		; std::numeric_limits<unsigned short>::digits
PUBLIC	?digits10@?$numeric_limits@G@std@@2HB		; std::numeric_limits<unsigned short>::digits10
PUBLIC	?is_signed@?$numeric_limits@H@std@@2_NB		; std::numeric_limits<int>::is_signed
PUBLIC	?value@?$_Sizeof@HU_Nil@std@@U12@U12@U12@U12@U12@U12@@std@@2IB ; std::_Sizeof<int,std::_Nil,std::_Nil,std::_Nil,std::_Nil,std::_Nil,std::_Nil,std::_Nil>::value
PUBLIC	?digits@?$numeric_limits@H@std@@2HB		; std::numeric_limits<int>::digits
PUBLIC	?digits10@?$numeric_limits@H@std@@2HB		; std::numeric_limits<int>::digits10
PUBLIC	?AWACSon@@3HA					; AWACSon
PUBLIC	?is_signed@?$numeric_limits@I@std@@2_NB		; std::numeric_limits<unsigned int>::is_signed
PUBLIC	?digits@?$numeric_limits@I@std@@2HB		; std::numeric_limits<unsigned int>::digits
PUBLIC	?digits10@?$numeric_limits@I@std@@2HB		; std::numeric_limits<unsigned int>::digits10
PUBLIC	?is_signed@?$numeric_limits@J@std@@2_NB		; std::numeric_limits<long>::is_signed
PUBLIC	?digits@?$numeric_limits@J@std@@2HB		; std::numeric_limits<long>::digits
PUBLIC	?digits10@?$numeric_limits@J@std@@2HB		; std::numeric_limits<long>::digits10
PUBLIC	?is_signed@?$numeric_limits@K@std@@2_NB		; std::numeric_limits<unsigned long>::is_signed
PUBLIC	?digits@?$numeric_limits@K@std@@2HB		; std::numeric_limits<unsigned long>::digits
PUBLIC	?digits10@?$numeric_limits@K@std@@2HB		; std::numeric_limits<unsigned long>::digits10
PUBLIC	?is_signed@?$numeric_limits@_J@std@@2_NB	; std::numeric_limits<__int64>::is_signed
PUBLIC	?digits@?$numeric_limits@_J@std@@2HB		; std::numeric_limits<__int64>::digits
PUBLIC	?digits10@?$numeric_limits@_J@std@@2HB		; std::numeric_limits<__int64>::digits10
PUBLIC	?is_signed@?$numeric_limits@_K@std@@2_NB	; std::numeric_limits<unsigned __int64>::is_signed
PUBLIC	?digits@?$numeric_limits@_K@std@@2HB		; std::numeric_limits<unsigned __int64>::digits
PUBLIC	?digits10@?$numeric_limits@_K@std@@2HB		; std::numeric_limits<unsigned __int64>::digits10
PUBLIC	?digits@?$numeric_limits@M@std@@2HB		; std::numeric_limits<float>::digits
PUBLIC	?digits10@?$numeric_limits@M@std@@2HB		; std::numeric_limits<float>::digits10
PUBLIC	?max_digits10@?$numeric_limits@M@std@@2HB	; std::numeric_limits<float>::max_digits10
PUBLIC	?max_exponent@?$numeric_limits@M@std@@2HB	; std::numeric_limits<float>::max_exponent
PUBLIC	?max_exponent10@?$numeric_limits@M@std@@2HB	; std::numeric_limits<float>::max_exponent10
PUBLIC	?min_exponent@?$numeric_limits@M@std@@2HB	; std::numeric_limits<float>::min_exponent
PUBLIC	?min_exponent10@?$numeric_limits@M@std@@2HB	; std::numeric_limits<float>::min_exponent10
;	COMDAT ?min_exponent10@?$numeric_limits@M@std@@2HB
CONST	SEGMENT
?min_exponent10@?$numeric_limits@M@std@@2HB DD 0ffffffdbH ; std::numeric_limits<float>::min_exponent10
CONST	ENDS
;	COMDAT ?min_exponent@?$numeric_limits@M@std@@2HB
CONST	SEGMENT
?min_exponent@?$numeric_limits@M@std@@2HB DD 0ffffff83H	; std::numeric_limits<float>::min_exponent
CONST	ENDS
;	COMDAT ?max_exponent10@?$numeric_limits@M@std@@2HB
CONST	SEGMENT
?max_exponent10@?$numeric_limits@M@std@@2HB DD 026H	; std::numeric_limits<float>::max_exponent10
CONST	ENDS
;	COMDAT ?max_exponent@?$numeric_limits@M@std@@2HB
CONST	SEGMENT
?max_exponent@?$numeric_limits@M@std@@2HB DD 080H	; std::numeric_limits<float>::max_exponent
CONST	ENDS
;	COMDAT ?max_digits10@?$numeric_limits@M@std@@2HB
CONST	SEGMENT
?max_digits10@?$numeric_limits@M@std@@2HB DD 09H	; std::numeric_limits<float>::max_digits10
CONST	ENDS
;	COMDAT ?digits10@?$numeric_limits@M@std@@2HB
CONST	SEGMENT
?digits10@?$numeric_limits@M@std@@2HB DD 06H		; std::numeric_limits<float>::digits10
CONST	ENDS
;	COMDAT ?digits@?$numeric_limits@M@std@@2HB
CONST	SEGMENT
?digits@?$numeric_limits@M@std@@2HB DD 018H		; std::numeric_limits<float>::digits
CONST	ENDS
;	COMDAT ?digits10@?$numeric_limits@_K@std@@2HB
CONST	SEGMENT
?digits10@?$numeric_limits@_K@std@@2HB DD 013H		; std::numeric_limits<unsigned __int64>::digits10
CONST	ENDS
;	COMDAT ?digits@?$numeric_limits@_K@std@@2HB
CONST	SEGMENT
?digits@?$numeric_limits@_K@std@@2HB DD 040H		; std::numeric_limits<unsigned __int64>::digits
CONST	ENDS
;	COMDAT ?is_signed@?$numeric_limits@_K@std@@2_NB
CONST	SEGMENT
?is_signed@?$numeric_limits@_K@std@@2_NB DB 00H		; std::numeric_limits<unsigned __int64>::is_signed
CONST	ENDS
;	COMDAT ?digits10@?$numeric_limits@_J@std@@2HB
CONST	SEGMENT
?digits10@?$numeric_limits@_J@std@@2HB DD 012H		; std::numeric_limits<__int64>::digits10
CONST	ENDS
;	COMDAT ?digits@?$numeric_limits@_J@std@@2HB
CONST	SEGMENT
?digits@?$numeric_limits@_J@std@@2HB DD 03fH		; std::numeric_limits<__int64>::digits
CONST	ENDS
;	COMDAT ?is_signed@?$numeric_limits@_J@std@@2_NB
CONST	SEGMENT
?is_signed@?$numeric_limits@_J@std@@2_NB DB 01H		; std::numeric_limits<__int64>::is_signed
CONST	ENDS
;	COMDAT ?digits10@?$numeric_limits@K@std@@2HB
CONST	SEGMENT
?digits10@?$numeric_limits@K@std@@2HB DD 09H		; std::numeric_limits<unsigned long>::digits10
CONST	ENDS
;	COMDAT ?digits@?$numeric_limits@K@std@@2HB
CONST	SEGMENT
?digits@?$numeric_limits@K@std@@2HB DD 020H		; std::numeric_limits<unsigned long>::digits
CONST	ENDS
;	COMDAT ?is_signed@?$numeric_limits@K@std@@2_NB
CONST	SEGMENT
?is_signed@?$numeric_limits@K@std@@2_NB DB 00H		; std::numeric_limits<unsigned long>::is_signed
CONST	ENDS
;	COMDAT ?digits10@?$numeric_limits@J@std@@2HB
CONST	SEGMENT
?digits10@?$numeric_limits@J@std@@2HB DD 09H		; std::numeric_limits<long>::digits10
CONST	ENDS
;	COMDAT ?digits@?$numeric_limits@J@std@@2HB
CONST	SEGMENT
?digits@?$numeric_limits@J@std@@2HB DD 01fH		; std::numeric_limits<long>::digits
CONST	ENDS
;	COMDAT ?is_signed@?$numeric_limits@J@std@@2_NB
CONST	SEGMENT
?is_signed@?$numeric_limits@J@std@@2_NB DB 01H		; std::numeric_limits<long>::is_signed
CONST	ENDS
;	COMDAT ?digits10@?$numeric_limits@I@std@@2HB
CONST	SEGMENT
?digits10@?$numeric_limits@I@std@@2HB DD 09H		; std::numeric_limits<unsigned int>::digits10
CONST	ENDS
;	COMDAT ?digits@?$numeric_limits@I@std@@2HB
CONST	SEGMENT
?digits@?$numeric_limits@I@std@@2HB DD 020H		; std::numeric_limits<unsigned int>::digits
CONST	ENDS
;	COMDAT ?is_signed@?$numeric_limits@I@std@@2_NB
CONST	SEGMENT
?is_signed@?$numeric_limits@I@std@@2_NB DB 00H		; std::numeric_limits<unsigned int>::is_signed
CONST	ENDS
;	COMDAT ?digits10@?$numeric_limits@H@std@@2HB
CONST	SEGMENT
?digits10@?$numeric_limits@H@std@@2HB DD 09H		; std::numeric_limits<int>::digits10
CONST	ENDS
;	COMDAT ?digits@?$numeric_limits@H@std@@2HB
CONST	SEGMENT
?digits@?$numeric_limits@H@std@@2HB DD 01fH		; std::numeric_limits<int>::digits
CONST	ENDS
;	COMDAT ?value@?$_Sizeof@HU_Nil@std@@U12@U12@U12@U12@U12@U12@@std@@2IB
CONST	SEGMENT
?value@?$_Sizeof@HU_Nil@std@@U12@U12@U12@U12@U12@U12@@std@@2IB DD 01H ; std::_Sizeof<int,std::_Nil,std::_Nil,std::_Nil,std::_Nil,std::_Nil,std::_Nil,std::_Nil>::value
CONST	ENDS
;	COMDAT ?is_signed@?$numeric_limits@H@std@@2_NB
CONST	SEGMENT
?is_signed@?$numeric_limits@H@std@@2_NB DB 01H		; std::numeric_limits<int>::is_signed
CONST	ENDS
;	COMDAT ?digits10@?$numeric_limits@G@std@@2HB
CONST	SEGMENT
?digits10@?$numeric_limits@G@std@@2HB DD 04H		; std::numeric_limits<unsigned short>::digits10
CONST	ENDS
;	COMDAT ?digits@?$numeric_limits@G@std@@2HB
CONST	SEGMENT
?digits@?$numeric_limits@G@std@@2HB DD 010H		; std::numeric_limits<unsigned short>::digits
CONST	ENDS
;	COMDAT ?is_signed@?$numeric_limits@G@std@@2_NB
CONST	SEGMENT
?is_signed@?$numeric_limits@G@std@@2_NB DB 00H		; std::numeric_limits<unsigned short>::is_signed
CONST	ENDS
;	COMDAT ?digits10@?$numeric_limits@F@std@@2HB
CONST	SEGMENT
?digits10@?$numeric_limits@F@std@@2HB DD 04H		; std::numeric_limits<short>::digits10
CONST	ENDS
;	COMDAT ?digits@?$numeric_limits@F@std@@2HB
CONST	SEGMENT
?digits@?$numeric_limits@F@std@@2HB DD 0fH		; std::numeric_limits<short>::digits
CONST	ENDS
;	COMDAT ?is_signed@?$numeric_limits@F@std@@2_NB
CONST	SEGMENT
?is_signed@?$numeric_limits@F@std@@2_NB DB 01H		; std::numeric_limits<short>::is_signed
CONST	ENDS
;	COMDAT ?digits10@?$numeric_limits@E@std@@2HB
CONST	SEGMENT
?digits10@?$numeric_limits@E@std@@2HB DD 02H		; std::numeric_limits<unsigned char>::digits10
CONST	ENDS
;	COMDAT ?digits@?$numeric_limits@E@std@@2HB
CONST	SEGMENT
?digits@?$numeric_limits@E@std@@2HB DD 08H		; std::numeric_limits<unsigned char>::digits
CONST	ENDS
;	COMDAT ?is_signed@?$numeric_limits@E@std@@2_NB
CONST	SEGMENT
?is_signed@?$numeric_limits@E@std@@2_NB DB 00H		; std::numeric_limits<unsigned char>::is_signed
CONST	ENDS
;	COMDAT ?digits10@?$numeric_limits@C@std@@2HB
CONST	SEGMENT
?digits10@?$numeric_limits@C@std@@2HB DD 02H		; std::numeric_limits<signed char>::digits10
CONST	ENDS
;	COMDAT ?digits@?$numeric_limits@C@std@@2HB
CONST	SEGMENT
?digits@?$numeric_limits@C@std@@2HB DD 07H		; std::numeric_limits<signed char>::digits
CONST	ENDS
;	COMDAT ?is_signed@?$numeric_limits@C@std@@2_NB
CONST	SEGMENT
?is_signed@?$numeric_limits@C@std@@2_NB DB 01H		; std::numeric_limits<signed char>::is_signed
CONST	ENDS
;	COMDAT ?digits10@?$numeric_limits@_N@std@@2HB
CONST	SEGMENT
?digits10@?$numeric_limits@_N@std@@2HB DD 00H		; std::numeric_limits<bool>::digits10
CONST	ENDS
;	COMDAT ?digits@?$numeric_limits@_N@std@@2HB
CONST	SEGMENT
?digits@?$numeric_limits@_N@std@@2HB DD 01H		; std::numeric_limits<bool>::digits
CONST	ENDS
;	COMDAT ?is_signed@?$numeric_limits@_N@std@@2_NB
CONST	SEGMENT
?is_signed@?$numeric_limits@_N@std@@2_NB DB 00H		; std::numeric_limits<bool>::is_signed
CONST	ENDS
;	COMDAT ?is_modulo@?$numeric_limits@_N@std@@2_NB
CONST	SEGMENT
?is_modulo@?$numeric_limits@_N@std@@2_NB DB 00H		; std::numeric_limits<bool>::is_modulo
CONST	ENDS
;	COMDAT ?value@?$integral_constant@_N$00@std@@2_NB
CONST	SEGMENT
?value@?$integral_constant@_N$00@std@@2_NB DB 01H	; std::integral_constant<bool,1>::value
CONST	ENDS
;	COMDAT ?digits10@?$numeric_limits@_W@std@@2HB
CONST	SEGMENT
?digits10@?$numeric_limits@_W@std@@2HB DD 04H		; std::numeric_limits<wchar_t>::digits10
CONST	ENDS
;	COMDAT ?digits@?$numeric_limits@_W@std@@2HB
CONST	SEGMENT
?digits@?$numeric_limits@_W@std@@2HB DD 010H		; std::numeric_limits<wchar_t>::digits
CONST	ENDS
;	COMDAT ?is_signed@?$numeric_limits@_W@std@@2_NB
CONST	SEGMENT
?is_signed@?$numeric_limits@_W@std@@2_NB DB 00H		; std::numeric_limits<wchar_t>::is_signed
CONST	ENDS
;	COMDAT ?value@?$integral_constant@_N$0A@@std@@2_NB
CONST	SEGMENT
?value@?$integral_constant@_N$0A@@std@@2_NB DB 00H	; std::integral_constant<bool,0>::value
CONST	ENDS
_DATA	SEGMENT
_matrix33_ident DD 03f800000r			; 1
	DD	000000000r			; 0
	DD	000000000r			; 0
	DD	000000000r			; 0
	DD	03f800000r			; 1
	DD	000000000r			; 0
	DD	000000000r			; 0
	DD	000000000r			; 0
	DD	03f800000r			; 1
?AWACSon@@3HA DD 01H					; AWACSon
_matrix44_ident DD 03f800000r			; 1
	DD	000000000r			; 0
	DD	000000000r			; 0
	DD	000000000r			; 0
	DD	000000000r			; 0
	DD	03f800000r			; 1
	DD	000000000r			; 0
	DD	000000000r			; 0
	DD	000000000r			; 0
	DD	000000000r			; 0
	DD	03f800000r			; 1
	DD	000000000r			; 0
	DD	000000000r			; 0
	DD	000000000r			; 0
	DD	000000000r			; 0
	DD	03f800000r			; 1
_DATA	ENDS
;	COMDAT ?digits10@?$numeric_limits@D@std@@2HB
CONST	SEGMENT
?digits10@?$numeric_limits@D@std@@2HB DD 02H		; std::numeric_limits<char>::digits10
CONST	ENDS
;	COMDAT ?digits@?$numeric_limits@D@std@@2HB
CONST	SEGMENT
?digits@?$numeric_limits@D@std@@2HB DD 07H		; std::numeric_limits<char>::digits
CONST	ENDS
;	COMDAT ?is_signed@?$numeric_limits@D@std@@2_NB
CONST	SEGMENT
?is_signed@?$numeric_limits@D@std@@2_NB DB 01H		; std::numeric_limits<char>::is_signed
CONST	ENDS
;	COMDAT ?radix@_Num_float_base@std@@2HB
CONST	SEGMENT
?radix@_Num_float_base@std@@2HB DD 02H			; std::_Num_float_base::radix
CONST	ENDS
;	COMDAT ?round_style@_Num_float_base@std@@2W4float_round_style@2@B
CONST	SEGMENT
?round_style@_Num_float_base@std@@2W4float_round_style@2@B DD 01H ; std::_Num_float_base::round_style
CONST	ENDS
;	COMDAT ?traps@_Num_float_base@std@@2_NB
CONST	SEGMENT
?traps@_Num_float_base@std@@2_NB DB 00H			; std::_Num_float_base::traps
CONST	ENDS
;	COMDAT ?tinyness_before@_Num_float_base@std@@2_NB
CONST	SEGMENT
?tinyness_before@_Num_float_base@std@@2_NB DB 01H	; std::_Num_float_base::tinyness_before
CONST	ENDS
;	COMDAT ?is_specialized@_Num_float_base@std@@2_NB
CONST	SEGMENT
?is_specialized@_Num_float_base@std@@2_NB DB 01H	; std::_Num_float_base::is_specialized
CONST	ENDS
;	COMDAT ?is_signed@_Num_float_base@std@@2_NB
CONST	SEGMENT
?is_signed@_Num_float_base@std@@2_NB DB 01H		; std::_Num_float_base::is_signed
CONST	ENDS
;	COMDAT ?is_modulo@_Num_float_base@std@@2_NB
CONST	SEGMENT
?is_modulo@_Num_float_base@std@@2_NB DB 00H		; std::_Num_float_base::is_modulo
CONST	ENDS
CONST	SEGMENT
_L_2	DD	03f317218r			; 0.693147
CONST	ENDS
;	COMDAT ?is_integer@_Num_float_base@std@@2_NB
CONST	SEGMENT
?is_integer@_Num_float_base@std@@2_NB DB 00H		; std::_Num_float_base::is_integer
CONST	ENDS
;	COMDAT ?is_iec559@_Num_float_base@std@@2_NB
CONST	SEGMENT
?is_iec559@_Num_float_base@std@@2_NB DB 01H		; std::_Num_float_base::is_iec559
CONST	ENDS
;	COMDAT ?is_exact@_Num_float_base@std@@2_NB
CONST	SEGMENT
?is_exact@_Num_float_base@std@@2_NB DB 00H		; std::_Num_float_base::is_exact
CONST	ENDS
;	COMDAT ?is_bounded@_Num_float_base@std@@2_NB
CONST	SEGMENT
?is_bounded@_Num_float_base@std@@2_NB DB 01H		; std::_Num_float_base::is_bounded
CONST	ENDS
;	COMDAT ?has_signaling_NaN@_Num_float_base@std@@2_NB
CONST	SEGMENT
?has_signaling_NaN@_Num_float_base@std@@2_NB DB 01H	; std::_Num_float_base::has_signaling_NaN
CONST	ENDS
;	COMDAT ?has_quiet_NaN@_Num_float_base@std@@2_NB
CONST	SEGMENT
?has_quiet_NaN@_Num_float_base@std@@2_NB DB 01H		; std::_Num_float_base::has_quiet_NaN
CONST	ENDS
;	COMDAT ?has_infinity@_Num_float_base@std@@2_NB
CONST	SEGMENT
?has_infinity@_Num_float_base@std@@2_NB DB 01H		; std::_Num_float_base::has_infinity
CONST	ENDS
;	COMDAT ?CMPDIRTYDATA_INTERVAL@FalconEntity@@2KB
CONST	SEGMENT
?CMPDIRTYDATA_INTERVAL@FalconEntity@@2KB DD 0c8H	; FalconEntity::CMPDIRTYDATA_INTERVAL
CONST	ENDS
;	COMDAT ?SIMDIRTYDATA_INTERVAL@FalconEntity@@2KB
CONST	SEGMENT
?SIMDIRTYDATA_INTERVAL@FalconEntity@@2KB DD 0c8H	; FalconEntity::SIMDIRTYDATA_INTERVAL
CONST	ENDS
;	COMDAT ?has_denorm_loss@_Num_float_base@std@@2_NB
CONST	SEGMENT
?has_denorm_loss@_Num_float_base@std@@2_NB DB 01H	; std::_Num_float_base::has_denorm_loss
CONST	ENDS
;	COMDAT ?has_denorm@_Num_float_base@std@@2W4float_denorm_style@2@B
CONST	SEGMENT
?has_denorm@_Num_float_base@std@@2W4float_denorm_style@2@B DD 01H ; std::_Num_float_base::has_denorm
CONST	ENDS
;	COMDAT ?radix@_Num_int_base@std@@2HB
CONST	SEGMENT
?radix@_Num_int_base@std@@2HB DD 02H			; std::_Num_int_base::radix
CONST	ENDS
;	COMDAT ?is_specialized@_Num_int_base@std@@2_NB
CONST	SEGMENT
?is_specialized@_Num_int_base@std@@2_NB DB 01H		; std::_Num_int_base::is_specialized
CONST	ENDS
;	COMDAT ?is_modulo@_Num_int_base@std@@2_NB
CONST	SEGMENT
?is_modulo@_Num_int_base@std@@2_NB DB 01H		; std::_Num_int_base::is_modulo
CONST	ENDS
;	COMDAT ?is_integer@_Num_int_base@std@@2_NB
CONST	SEGMENT
?is_integer@_Num_int_base@std@@2_NB DB 01H		; std::_Num_int_base::is_integer
CONST	ENDS
;	COMDAT ?is_exact@_Num_int_base@std@@2_NB
CONST	SEGMENT
?is_exact@_Num_int_base@std@@2_NB DB 01H		; std::_Num_int_base::is_exact
CONST	ENDS
;	COMDAT ?is_bounded@_Num_int_base@std@@2_NB
CONST	SEGMENT
?is_bounded@_Num_int_base@std@@2_NB DB 01H		; std::_Num_int_base::is_bounded
CONST	ENDS
;	COMDAT ?radix@_Num_base@std@@2HB
CONST	SEGMENT
?radix@_Num_base@std@@2HB DD 00H			; std::_Num_base::radix
CONST	ENDS
;	COMDAT ?min_exponent10@_Num_base@std@@2HB
CONST	SEGMENT
?min_exponent10@_Num_base@std@@2HB DD 00H		; std::_Num_base::min_exponent10
CONST	ENDS
;	COMDAT ?min_exponent@_Num_base@std@@2HB
CONST	SEGMENT
?min_exponent@_Num_base@std@@2HB DD 00H			; std::_Num_base::min_exponent
CONST	ENDS
;	COMDAT ?max_exponent10@_Num_base@std@@2HB
CONST	SEGMENT
?max_exponent10@_Num_base@std@@2HB DD 00H		; std::_Num_base::max_exponent10
CONST	ENDS
;	COMDAT ?max_exponent@_Num_base@std@@2HB
CONST	SEGMENT
?max_exponent@_Num_base@std@@2HB DD 00H			; std::_Num_base::max_exponent
CONST	ENDS
;	COMDAT ?max_digits10@_Num_base@std@@2HB
CONST	SEGMENT
?max_digits10@_Num_base@std@@2HB DD 00H			; std::_Num_base::max_digits10
CONST	ENDS
;	COMDAT ?digits10@_Num_base@std@@2HB
CONST	SEGMENT
?digits10@_Num_base@std@@2HB DD 00H			; std::_Num_base::digits10
CONST	ENDS
;	COMDAT ?digits@_Num_base@std@@2HB
CONST	SEGMENT
?digits@_Num_base@std@@2HB DD 00H			; std::_Num_base::digits
CONST	ENDS
;	COMDAT ?round_style@_Num_base@std@@2W4float_round_style@2@B
CONST	SEGMENT
?round_style@_Num_base@std@@2W4float_round_style@2@B DD 00H ; std::_Num_base::round_style
CONST	ENDS
;	COMDAT ?traps@_Num_base@std@@2_NB
CONST	SEGMENT
?traps@_Num_base@std@@2_NB DB 00H			; std::_Num_base::traps
CONST	ENDS
;	COMDAT ?tinyness_before@_Num_base@std@@2_NB
CONST	SEGMENT
?tinyness_before@_Num_base@std@@2_NB DB 00H		; std::_Num_base::tinyness_before
CONST	ENDS
;	COMDAT ?is_specialized@_Num_base@std@@2_NB
CONST	SEGMENT
?is_specialized@_Num_base@std@@2_NB DB 00H		; std::_Num_base::is_specialized
CONST	ENDS
;	COMDAT ?is_signed@_Num_base@std@@2_NB
CONST	SEGMENT
?is_signed@_Num_base@std@@2_NB DB 00H			; std::_Num_base::is_signed
CONST	ENDS
;	COMDAT ?is_modulo@_Num_base@std@@2_NB
CONST	SEGMENT
?is_modulo@_Num_base@std@@2_NB DB 00H			; std::_Num_base::is_modulo
CONST	ENDS
;	COMDAT ?is_integer@_Num_base@std@@2_NB
CONST	SEGMENT
?is_integer@_Num_base@std@@2_NB DB 00H			; std::_Num_base::is_integer
CONST	ENDS
;	COMDAT ?is_iec559@_Num_base@std@@2_NB
CONST	SEGMENT
?is_iec559@_Num_base@std@@2_NB DB 00H			; std::_Num_base::is_iec559
CONST	ENDS
;	COMDAT ?is_exact@_Num_base@std@@2_NB
CONST	SEGMENT
?is_exact@_Num_base@std@@2_NB DB 00H			; std::_Num_base::is_exact
CONST	ENDS
;	COMDAT ?is_bounded@_Num_base@std@@2_NB
CONST	SEGMENT
?is_bounded@_Num_base@std@@2_NB DB 00H			; std::_Num_base::is_bounded
CONST	ENDS
;	COMDAT ?has_signaling_NaN@_Num_base@std@@2_NB
CONST	SEGMENT
?has_signaling_NaN@_Num_base@std@@2_NB DB 00H		; std::_Num_base::has_signaling_NaN
CONST	ENDS
;	COMDAT ?has_quiet_NaN@_Num_base@std@@2_NB
CONST	SEGMENT
?has_quiet_NaN@_Num_base@std@@2_NB DB 00H		; std::_Num_base::has_quiet_NaN
CONST	ENDS
;	COMDAT ?has_infinity@_Num_base@std@@2_NB
CONST	SEGMENT
?has_infinity@_Num_base@std@@2_NB DB 00H		; std::_Num_base::has_infinity
CONST	ENDS
;	COMDAT ?has_denorm_loss@_Num_base@std@@2_NB
CONST	SEGMENT
?has_denorm_loss@_Num_base@std@@2_NB DB 00H		; std::_Num_base::has_denorm_loss
CONST	ENDS
;	COMDAT ?has_denorm@_Num_base@std@@2W4float_denorm_style@2@B
CONST	SEGMENT
?has_denorm@_Num_base@std@@2W4float_denorm_style@2@B DD 00H ; std::_Num_base::has_denorm
CONST	ENDS
;	COMDAT ?value@?$_Sizeof@U_Nil@std@@U12@U12@U12@U12@U12@U12@U12@@std@@2IB
CONST	SEGMENT
?value@?$_Sizeof@U_Nil@std@@U12@U12@U12@U12@U12@U12@U12@@std@@2IB DD 00H ; std::_Sizeof<std::_Nil,std::_Nil,std::_Nil,std::_Nil,std::_Nil,std::_Nil,std::_Nil,std::_Nil>::value
CONST	ENDS
;	COMDAT ?min_exponent10@?$numeric_limits@O@std@@2HB
CONST	SEGMENT
?min_exponent10@?$numeric_limits@O@std@@2HB DD 0fffffecdH ; std::numeric_limits<long double>::min_exponent10
CONST	ENDS
;	COMDAT ?min_exponent@?$numeric_limits@O@std@@2HB
CONST	SEGMENT
?min_exponent@?$numeric_limits@O@std@@2HB DD 0fffffc03H	; std::numeric_limits<long double>::min_exponent
CONST	ENDS
;	COMDAT ?max_exponent10@?$numeric_limits@O@std@@2HB
CONST	SEGMENT
?max_exponent10@?$numeric_limits@O@std@@2HB DD 0134H	; std::numeric_limits<long double>::max_exponent10
CONST	ENDS
;	COMDAT ?max_exponent@?$numeric_limits@O@std@@2HB
CONST	SEGMENT
?max_exponent@?$numeric_limits@O@std@@2HB DD 0400H	; std::numeric_limits<long double>::max_exponent
CONST	ENDS
;	COMDAT ?max_digits10@?$numeric_limits@O@std@@2HB
CONST	SEGMENT
?max_digits10@?$numeric_limits@O@std@@2HB DD 011H	; std::numeric_limits<long double>::max_digits10
CONST	ENDS
;	COMDAT ?digits10@?$numeric_limits@O@std@@2HB
CONST	SEGMENT
?digits10@?$numeric_limits@O@std@@2HB DD 0fH		; std::numeric_limits<long double>::digits10
CONST	ENDS
;	COMDAT ?digits@?$numeric_limits@O@std@@2HB
CONST	SEGMENT
?digits@?$numeric_limits@O@std@@2HB DD 035H		; std::numeric_limits<long double>::digits
CONST	ENDS
;	COMDAT ?min_exponent10@?$numeric_limits@N@std@@2HB
CONST	SEGMENT
?min_exponent10@?$numeric_limits@N@std@@2HB DD 0fffffecdH ; std::numeric_limits<double>::min_exponent10
CONST	ENDS
;	COMDAT ?min_exponent@?$numeric_limits@N@std@@2HB
CONST	SEGMENT
?min_exponent@?$numeric_limits@N@std@@2HB DD 0fffffc03H	; std::numeric_limits<double>::min_exponent
CONST	ENDS
;	COMDAT ?max_exponent10@?$numeric_limits@N@std@@2HB
CONST	SEGMENT
?max_exponent10@?$numeric_limits@N@std@@2HB DD 0134H	; std::numeric_limits<double>::max_exponent10
CONST	ENDS
;	COMDAT ?max_exponent@?$numeric_limits@N@std@@2HB
CONST	SEGMENT
?max_exponent@?$numeric_limits@N@std@@2HB DD 0400H	; std::numeric_limits<double>::max_exponent
CONST	ENDS
;	COMDAT ?max_digits10@?$numeric_limits@N@std@@2HB
CONST	SEGMENT
?max_digits10@?$numeric_limits@N@std@@2HB DD 011H	; std::numeric_limits<double>::max_digits10
CONST	ENDS
;	COMDAT ?digits10@?$numeric_limits@N@std@@2HB
CONST	SEGMENT
?digits10@?$numeric_limits@N@std@@2HB DD 0fH		; std::numeric_limits<double>::digits10
CONST	ENDS
;	COMDAT ?digits@?$numeric_limits@N@std@@2HB
CONST	SEGMENT
?digits@?$numeric_limits@N@std@@2HB DD 035H		; std::numeric_limits<double>::digits
CONST	ENDS
;	COMDAT ?value@?$integral_constant@I$0A@@std@@2IB
CONST	SEGMENT
?value@?$integral_constant@I$0A@@std@@2IB DD 00H	; std::integral_constant<unsigned int,0>::value
CONST	ENDS
PUBLIC	??0VU_SESSION_ID@@QAE@K@Z			; VU_SESSION_ID::VU_SESSION_ID
PUBLIC	??8VU_SESSION_ID@@QBEHABV0@@Z			; VU_SESSION_ID::operator==
PUBLIC	??BVU_SESSION_ID@@QBEKXZ			; VU_SESSION_ID::operator unsigned long
PUBLIC	??0VU_ID@@QAE@XZ				; VU_ID::VU_ID
PUBLIC	??8VU_ID@@QBE_NABV0@@Z				; VU_ID::operator==
PUBLIC	??BVU_ID@@QBEKXZ				; VU_ID::operator unsigned long
PUBLIC	?Id@VuEntity@@QBE?AVVU_ID@@XZ			; VuEntity::Id
PUBLIC	?Type@VuEntity@@QBEGXZ				; VuEntity::Type
PUBLIC	?XPos@VuEntity@@QBEMXZ				; VuEntity::XPos
PUBLIC	?YPos@VuEntity@@QBEMXZ				; VuEntity::YPos
PUBLIC	?ZPos@VuEntity@@QBEMXZ				; VuEntity::ZPos
PUBLIC	?EntityType@VuEntity@@QBEPAUVuEntityType@@XZ	; VuEntity::EntityType
PUBLIC	??2@YAPAXIPAX@Z					; operator new
PUBLIC	??3@YAXPAX0@Z					; operator delete
PUBLIC	?length@?$char_traits@D@std@@SAIPBD@Z		; std::char_traits<char>::length
PUBLIC	?copy@?$char_traits@D@std@@SAPADPADPBDI@Z	; std::char_traits<char>::copy
PUBLIC	?move@?$char_traits@D@std@@SAPADPADPBDI@Z	; std::char_traits<char>::move
PUBLIC	?assign@?$char_traits@D@std@@SAXAADABD@Z	; std::char_traits<char>::assign
PUBLIC	?_Adopt@_Iterator_base0@std@@QAEXPBX@Z		; std::_Iterator_base0::_Adopt
PUBLIC	??0logic_error@std@@QAE@PBD@Z			; std::logic_error::logic_error
PUBLIC	??1logic_error@std@@UAE@XZ			; std::logic_error::~logic_error
PUBLIC	??0logic_error@std@@QAE@ABV01@@Z		; std::logic_error::logic_error
PUBLIC	??_Glogic_error@std@@UAEPAXI@Z			; std::logic_error::`scalar deleting destructor'
PUBLIC	??0?$allocator@D@std@@QAE@XZ			; std::allocator<char>::allocator<char>
PUBLIC	?deallocate@?$allocator@D@std@@QAEXPADI@Z	; std::allocator<char>::deallocate
PUBLIC	?allocate@?$allocator@D@std@@QAEPADI@Z		; std::allocator<char>::allocate
PUBLIC	?max_size@?$allocator@D@std@@QBEIXZ		; std::allocator<char>::max_size
PUBLIC	?max_size@?$allocator_traits@V?$allocator@D@std@@@std@@SAIABV?$allocator@D@2@@Z ; std::allocator_traits<std::allocator<char> >::max_size
PUBLIC	??0?$_Wrap_alloc@V?$allocator@D@std@@@std@@QAE@XZ ; std::_Wrap_alloc<std::allocator<char> >::_Wrap_alloc<std::allocator<char> >
PUBLIC	?allocate@?$_Wrap_alloc@V?$allocator@D@std@@@std@@QAEPADI@Z ; std::_Wrap_alloc<std::allocator<char> >::allocate
PUBLIC	?deallocate@?$_Wrap_alloc@V?$allocator@D@std@@@std@@QAEXPADI@Z ; std::_Wrap_alloc<std::allocator<char> >::deallocate
PUBLIC	?max_size@?$_Wrap_alloc@V?$allocator@D@std@@@std@@QBEIXZ ; std::_Wrap_alloc<std::allocator<char> >::max_size
PUBLIC	??0?$_String_val@U?$_Simple_types@D@std@@@std@@QAE@XZ ; std::_String_val<std::_Simple_types<char> >::_String_val<std::_Simple_types<char> >
PUBLIC	?_Myptr@?$_String_val@U?$_Simple_types@D@std@@@std@@QAEPADXZ ; std::_String_val<std::_Simple_types<char> >::_Myptr
PUBLIC	?_Myptr@?$_String_val@U?$_Simple_types@D@std@@@std@@QBEPBDXZ ; std::_String_val<std::_Simple_types<char> >::_Myptr
PUBLIC	??0?$_String_alloc@$0A@U?$_String_base_types@DV?$allocator@D@std@@@std@@@std@@QAE@ABV?$allocator@D@1@@Z ; std::_String_alloc<0,std::_String_base_types<char,std::allocator<char> > >::_String_alloc<0,std::_String_base_types<char,std::allocator<char> > >
PUBLIC	?_Getal@?$_String_alloc@$0A@U?$_String_base_types@DV?$allocator@D@std@@@std@@@std@@QBE?AU?$_Wrap_alloc@V?$allocator@D@std@@@2@XZ ; std::_String_alloc<0,std::_String_base_types<char,std::allocator<char> > >::_Getal
PUBLIC	??0?$basic_string@DU?$char_traits@D@std@@V?$allocator@D@2@@std@@QAE@PBD@Z ; std::basic_string<char,std::char_traits<char>,std::allocator<char> >::basic_string<char,std::char_traits<char>,std::allocator<char> >
PUBLIC	??1?$basic_string@DU?$char_traits@D@std@@V?$allocator@D@2@@std@@QAE@XZ ; std::basic_string<char,std::char_traits<char>,std::allocator<char> >::~basic_string<char,std::char_traits<char>,std::allocator<char> >
PUBLIC	?assign@?$basic_string@DU?$char_traits@D@std@@V?$allocator@D@2@@std@@QAEAAV12@ABV12@II@Z ; std::basic_string<char,std::char_traits<char>,std::allocator<char> >::assign
PUBLIC	?assign@?$basic_string@DU?$char_traits@D@std@@V?$allocator@D@2@@std@@QAEAAV12@PBDI@Z ; std::basic_string<char,std::char_traits<char>,std::allocator<char> >::assign
PUBLIC	?assign@?$basic_string@DU?$char_traits@D@std@@V?$allocator@D@2@@std@@QAEAAV12@PBD@Z ; std::basic_string<char,std::char_traits<char>,std::allocator<char> >::assign
PUBLIC	?erase@?$basic_string@DU?$char_traits@D@std@@V?$allocator@D@2@@std@@QAEAAV12@I@Z ; std::basic_string<char,std::char_traits<char>,std::allocator<char> >::erase
PUBLIC	?erase@?$basic_string@DU?$char_traits@D@std@@V?$allocator@D@2@@std@@QAEAAV12@II@Z ; std::basic_string<char,std::char_traits<char>,std::allocator<char> >::erase
PUBLIC	?c_str@?$basic_string@DU?$char_traits@D@std@@V?$allocator@D@2@@std@@QBEPBDXZ ; std::basic_string<char,std::char_traits<char>,std::allocator<char> >::c_str
PUBLIC	?size@?$basic_string@DU?$char_traits@D@std@@V?$allocator@D@2@@std@@QBEIXZ ; std::basic_string<char,std::char_traits<char>,std::allocator<char> >::size
PUBLIC	?max_size@?$basic_string@DU?$char_traits@D@std@@V?$allocator@D@2@@std@@QBEIXZ ; std::basic_string<char,std::char_traits<char>,std::allocator<char> >::max_size
PUBLIC	?_Copy@?$basic_string@DU?$char_traits@D@std@@V?$allocator@D@2@@std@@QAEXII@Z ; std::basic_string<char,std::char_traits<char>,std::allocator<char> >::_Copy
PUBLIC	?_Eos@?$basic_string@DU?$char_traits@D@std@@V?$allocator@D@2@@std@@QAEXI@Z ; std::basic_string<char,std::char_traits<char>,std::allocator<char> >::_Eos
PUBLIC	?_Grow@?$basic_string@DU?$char_traits@D@std@@V?$allocator@D@2@@std@@QAE_NI_N@Z ; std::basic_string<char,std::char_traits<char>,std::allocator<char> >::_Grow
PUBLIC	?_Inside@?$basic_string@DU?$char_traits@D@std@@V?$allocator@D@2@@std@@QAE_NPBD@Z ; std::basic_string<char,std::char_traits<char>,std::allocator<char> >::_Inside
PUBLIC	?_Tidy@?$basic_string@DU?$char_traits@D@std@@V?$allocator@D@2@@std@@QAEX_NI@Z ; std::basic_string<char,std::char_traits<char>,std::allocator<char> >::_Tidy
PUBLIC	?_Xlen@?$basic_string@DU?$char_traits@D@std@@V?$allocator@D@2@@std@@QBEXXZ ; std::basic_string<char,std::char_traits<char>,std::allocator<char> >::_Xlen
PUBLIC	?_Xran@?$basic_string@DU?$char_traits@D@std@@V?$allocator@D@2@@std@@QBEXXZ ; std::basic_string<char,std::char_traits<char>,std::allocator<char> >::_Xran
PUBLIC	??0out_of_range@std@@QAE@ABV?$basic_string@DU?$char_traits@D@std@@V?$allocator@D@2@@1@@Z ; std::out_of_range::out_of_range
PUBLIC	??1out_of_range@std@@UAE@XZ			; std::out_of_range::~out_of_range
PUBLIC	??0out_of_range@std@@QAE@ABV01@@Z		; std::out_of_range::out_of_range
PUBLIC	??_Gout_of_range@std@@UAEPAXI@Z			; std::out_of_range::`scalar deleting destructor'
PUBLIC	??B?$VuBin@VVuSessionEntity@@@@QBE_NXZ		; VuBin<VuSessionEntity>::operator bool
PUBLIC	?get@?$VuBin@VVuSessionEntity@@@@QBEPAVVuSessionEntity@@XZ ; VuBin<VuSessionEntity>::get
PUBLIC	?EntityId@VuMessage@@QBE?AVVU_ID@@XZ		; VuMessage::EntityId
PUBLIC	?RequestReliableTransmit@VuMessage@@QAEXXZ	; VuMessage::RequestReliableTransmit
PUBLIC	?IsSim@FalconEntity@@QAEHXZ			; FalconEntity::IsSim
PUBLIC	??0InvalidBufferException@@QAE@ABV?$basic_string@DU?$char_traits@D@std@@V?$allocator@D@2@@std@@@Z ; InvalidBufferException::InvalidBufferException
PUBLIC	??1InvalidBufferException@@UAE@XZ		; InvalidBufferException::~InvalidBufferException
PUBLIC	??0InvalidBufferException@@QAE@ABV0@@Z		; InvalidBufferException::InvalidBufferException
PUBLIC	??_GInvalidBufferException@@UAEPAXI@Z		; InvalidBufferException::`scalar deleting destructor'
PUBLIC	?memcpychk@@YAXPAXPAPAEIPAJ@Z			; memcpychk
PUBLIC	??0FalconAWACSMessage@@QAE@VVU_ID@@PAVVuTargetEntity@@E@Z ; FalconAWACSMessage::FalconAWACSMessage
PUBLIC	??0FalconAWACSMessage@@QAE@EVVU_ID@@0@Z		; FalconAWACSMessage::FalconAWACSMessage
PUBLIC	??1FalconAWACSMessage@@UAE@XZ			; FalconAWACSMessage::~FalconAWACSMessage
PUBLIC	?Size@FalconAWACSMessage@@UBEHXZ		; FalconAWACSMessage::Size
PUBLIC	?Decode@FalconAWACSMessage@@UAEHPAPAEPAJ@Z	; FalconAWACSMessage::Decode
PUBLIC	?Encode@FalconAWACSMessage@@UAEHPAPAE@Z		; FalconAWACSMessage::Encode
PUBLIC	??0DATA_BLOCK@FalconAWACSMessage@@QAE@XZ	; FalconAWACSMessage::DATA_BLOCK::DATA_BLOCK
PUBLIC	?Process@FalconAWACSMessage@@MAEHE@Z		; FalconAWACSMessage::Process
PUBLIC	??_GFalconAWACSMessage@@UAEPAXI@Z		; FalconAWACSMessage::`scalar deleting destructor'
PUBLIC	?get@?$VuBin@VFalconEntity@@@@QBEPAVFalconEntity@@XZ ; VuBin<FalconEntity>::get
PUBLIC	?GetGame@FalconSessionEntity@@QAEPAVFalconGameEntity@@XZ ; FalconSessionEntity::GetGame
PUBLIC	?get@?$VuBin@VCampBaseClass@@@@QBEPAVCampBaseClass@@XZ ; VuBin<CampBaseClass>::get
PUBLIC	?GetCampaignObject@SimBaseClass@@QAEPAVCampBaseClass@@XZ ; SimBaseClass::GetCampaignObject
PUBLIC	??B?$VuBin@VSimWeaponClass@@@@QBE_NXZ		; VuBin<SimWeaponClass>::operator bool
PUBLIC	?GetDomain@CampBaseClass@@QBEEXZ		; CampBaseClass::GetDomain
PUBLIC	?GetSType@CampBaseClass@@QBEEXZ			; CampBaseClass::GetSType
PUBLIC	?GetIdentified@CampBaseClass@@QAEHE@Z		; CampBaseClass::GetIdentified
PUBLIC	?Aborted@UnitClass@@QBEHXZ			; UnitClass::Aborted
PUBLIC	?GetUnitAltitude@UnitClass@@QAEHXZ		; UnitClass::GetUnitAltitude
PUBLIC	?GetTargetID@UnitClass@@QAE?AVVU_ID@@XZ		; UnitClass::GetTargetID
PUBLIC	?GetAssignedTarget@FlightClass@@QAE?AVVU_ID@@XZ	; FlightClass::GetAssignedTarget
PUBLIC	?GetEvalFlags@FlightClass@@QAEEXZ		; FlightClass::GetEvalFlags
PUBLIC	?CurrentTarget@SensorClass@@QAEPAVSimObjectType@@XZ ; SensorClass::CurrentTarget
PUBLIC	?BaseData@SimObjectType@@QAEPAVFalconEntity@@XZ	; SimObjectType::BaseData
PUBLIC	?NumHardpoints@SMSBaseClass@@QAEHXZ		; SMSBaseClass::NumHardpoints
PUBLIC	?Fuel@AirframeClass@@QAEMXZ			; AirframeClass::Fuel
PUBLIC	??0?$allocator@U?$pair@$$CBMPAVFlightClass@@@std@@@std@@QAE@XZ ; std::allocator<std::pair<float const ,FlightClass *> >::allocator<std::pair<float const ,FlightClass *> >
PUBLIC	??0?$allocator@U?$_Tree_node@U?$pair@$$CBMPAVFlightClass@@@std@@PAX@std@@@std@@QAE@XZ ; std::allocator<std::_Tree_node<std::pair<float const ,FlightClass *>,void *> >::allocator<std::_Tree_node<std::pair<float const ,FlightClass *>,void *> >
PUBLIC	?deallocate@?$allocator@U?$_Tree_node@U?$pair@$$CBMPAVFlightClass@@@std@@PAX@std@@@std@@QAEXPAU?$_Tree_node@U?$pair@$$CBMPAVFlightClass@@@std@@PAX@2@I@Z ; std::allocator<std::_Tree_node<std::pair<float const ,FlightClass *>,void *> >::deallocate
PUBLIC	?allocate@?$allocator@U?$_Tree_node@U?$pair@$$CBMPAVFlightClass@@@std@@PAX@std@@@std@@QAEPAU?$_Tree_node@U?$pair@$$CBMPAVFlightClass@@@std@@PAX@2@I@Z ; std::allocator<std::_Tree_node<std::pair<float const ,FlightClass *>,void *> >::allocate
PUBLIC	??0?$_Wrap_alloc@V?$allocator@U?$_Tree_node@U?$pair@$$CBMPAVFlightClass@@@std@@PAX@std@@@std@@@std@@QAE@XZ ; std::_Wrap_alloc<std::allocator<std::_Tree_node<std::pair<float const ,FlightClass *>,void *> > >::_Wrap_alloc<std::allocator<std::_Tree_node<std::pair<float const ,FlightClass *>,void *> > >
PUBLIC	?allocate@?$_Wrap_alloc@V?$allocator@U?$_Tree_node@U?$pair@$$CBMPAVFlightClass@@@std@@PAX@std@@@std@@@std@@QAEPAU?$_Tree_node@U?$pair@$$CBMPAVFlightClass@@@std@@PAX@2@I@Z ; std::_Wrap_alloc<std::allocator<std::_Tree_node<std::pair<float const ,FlightClass *>,void *> > >::allocate
PUBLIC	?deallocate@?$_Wrap_alloc@V?$allocator@U?$_Tree_node@U?$pair@$$CBMPAVFlightClass@@@std@@PAX@std@@@std@@@std@@QAEXPAU?$_Tree_node@U?$pair@$$CBMPAVFlightClass@@@std@@PAX@2@I@Z ; std::_Wrap_alloc<std::allocator<std::_Tree_node<std::pair<float const ,FlightClass *>,void *> > >::deallocate
PUBLIC	??0?$_Tree_val@U?$_Tree_simple_types@U?$pair@$$CBMPAVFlightClass@@@std@@@std@@@std@@QAE@XZ ; std::_Tree_val<std::_Tree_simple_types<std::pair<float const ,FlightClass *> > >::_Tree_val<std::_Tree_simple_types<std::pair<float const ,FlightClass *> > >
PUBLIC	?_Color@?$_Tree_val@U?$_Tree_simple_types@U?$pair@$$CBMPAVFlightClass@@@std@@@std@@@std@@SAAADPAU?$_Tree_node@U?$pair@$$CBMPAVFlightClass@@@std@@PAX@2@@Z ; std::_Tree_val<std::_Tree_simple_types<std::pair<float const ,FlightClass *> > >::_Color
PUBLIC	?_Isnil@?$_Tree_val@U?$_Tree_simple_types@U?$pair@$$CBMPAVFlightClass@@@std@@@std@@@std@@SAAADPAU?$_Tree_node@U?$pair@$$CBMPAVFlightClass@@@std@@PAX@2@@Z ; std::_Tree_val<std::_Tree_simple_types<std::pair<float const ,FlightClass *> > >::_Isnil
PUBLIC	?_Left@?$_Tree_val@U?$_Tree_simple_types@U?$pair@$$CBMPAVFlightClass@@@std@@@std@@@std@@SAAAPAU?$_Tree_node@U?$pair@$$CBMPAVFlightClass@@@std@@PAX@2@PAU32@@Z ; std::_Tree_val<std::_Tree_simple_types<std::pair<float const ,FlightClass *> > >::_Left
PUBLIC	?_Parent@?$_Tree_val@U?$_Tree_simple_types@U?$pair@$$CBMPAVFlightClass@@@std@@@std@@@std@@SAAAPAU?$_Tree_node@U?$pair@$$CBMPAVFlightClass@@@std@@PAX@2@PAU32@@Z ; std::_Tree_val<std::_Tree_simple_types<std::pair<float const ,FlightClass *> > >::_Parent
PUBLIC	?_Right@?$_Tree_val@U?$_Tree_simple_types@U?$pair@$$CBMPAVFlightClass@@@std@@@std@@@std@@SAAAPAU?$_Tree_node@U?$pair@$$CBMPAVFlightClass@@@std@@PAX@2@PAU32@@Z ; std::_Tree_val<std::_Tree_simple_types<std::pair<float const ,FlightClass *> > >::_Right
PUBLIC	?_Myval@?$_Tree_val@U?$_Tree_simple_types@U?$pair@$$CBMPAVFlightClass@@@std@@@std@@@std@@SAAAU?$pair@$$CBMPAVFlightClass@@@2@PAU?$_Tree_node@U?$pair@$$CBMPAVFlightClass@@@std@@PAX@2@@Z ; std::_Tree_val<std::_Tree_simple_types<std::pair<float const ,FlightClass *> > >::_Myval
PUBLIC	?_Max@?$_Tree_val@U?$_Tree_simple_types@U?$pair@$$CBMPAVFlightClass@@@std@@@std@@@std@@SAPAU?$_Tree_node@U?$pair@$$CBMPAVFlightClass@@@std@@PAX@2@PAU32@@Z ; std::_Tree_val<std::_Tree_simple_types<std::pair<float const ,FlightClass *> > >::_Max
PUBLIC	?_Min@?$_Tree_val@U?$_Tree_simple_types@U?$pair@$$CBMPAVFlightClass@@@std@@@std@@@std@@SAPAU?$_Tree_node@U?$pair@$$CBMPAVFlightClass@@@std@@PAX@2@PAU32@@Z ; std::_Tree_val<std::_Tree_simple_types<std::pair<float const ,FlightClass *> > >::_Min
PUBLIC	??0?$_Tree_alloc@$0A@U?$_Tree_base_types@U?$pair@$$CBMPAVFlightClass@@@std@@V?$allocator@U?$pair@$$CBMPAVFlightClass@@@std@@@2@@std@@@std@@QAE@ABV?$allocator@U?$pair@$$CBMPAVFlightClass@@@std@@@1@@Z ; std::_Tree_alloc<0,std::_Tree_base_types<std::pair<float const ,FlightClass *>,std::allocator<std::pair<float const ,FlightClass *> > > >::_Tree_alloc<0,std::_Tree_base_types<std::pair<float const ,FlightClass *>,std::allocator<std::pair<float const ,FlightClass *> > > >
PUBLIC	??1?$_Tree_alloc@$0A@U?$_Tree_base_types@U?$pair@$$CBMPAVFlightClass@@@std@@V?$allocator@U?$pair@$$CBMPAVFlightClass@@@std@@@2@@std@@@std@@QAE@XZ ; std::_Tree_alloc<0,std::_Tree_base_types<std::pair<float const ,FlightClass *>,std::allocator<std::pair<float const ,FlightClass *> > > >::~_Tree_alloc<0,std::_Tree_base_types<std::pair<float const ,FlightClass *>,std::allocator<std::pair<float const ,FlightClass *> > > >
PUBLIC	?_Buyheadnode@?$_Tree_alloc@$0A@U?$_Tree_base_types@U?$pair@$$CBMPAVFlightClass@@@std@@V?$allocator@U?$pair@$$CBMPAVFlightClass@@@std@@@2@@std@@@std@@QAEPAU?$_Tree_node@U?$pair@$$CBMPAVFlightClass@@@std@@PAX@2@XZ ; std::_Tree_alloc<0,std::_Tree_base_types<std::pair<float const ,FlightClass *>,std::allocator<std::pair<float const ,FlightClass *> > > >::_Buyheadnode
PUBLIC	?_Freeheadnode@?$_Tree_alloc@$0A@U?$_Tree_base_types@U?$pair@$$CBMPAVFlightClass@@@std@@V?$allocator@U?$pair@$$CBMPAVFlightClass@@@std@@@2@@std@@@std@@QAEXPAU?$_Tree_node@U?$pair@$$CBMPAVFlightClass@@@std@@PAX@2@@Z ; std::_Tree_alloc<0,std::_Tree_base_types<std::pair<float const ,FlightClass *>,std::allocator<std::pair<float const ,FlightClass *> > > >::_Freeheadnode
PUBLIC	?_Getal@?$_Tree_alloc@$0A@U?$_Tree_base_types@U?$pair@$$CBMPAVFlightClass@@@std@@V?$allocator@U?$pair@$$CBMPAVFlightClass@@@std@@@2@@std@@@std@@QBE?AU?$_Wrap_alloc@V?$allocator@U?$_Tree_node@U?$pair@$$CBMPAVFlightClass@@@std@@PAX@std@@@std@@@2@XZ ; std::_Tree_alloc<0,std::_Tree_base_types<std::pair<float const ,FlightClass *>,std::allocator<std::pair<float const ,FlightClass *> > > >::_Getal
PUBLIC	??0?$_Tree_buy@U?$pair@$$CBMPAVFlightClass@@@std@@V?$allocator@U?$pair@$$CBMPAVFlightClass@@@std@@@2@@std@@QAE@ABV?$allocator@U?$pair@$$CBMPAVFlightClass@@@std@@@1@@Z ; std::_Tree_buy<std::pair<float const ,FlightClass *>,std::allocator<std::pair<float const ,FlightClass *> > >::_Tree_buy<std::pair<float const ,FlightClass *>,std::allocator<std::pair<float const ,FlightClass *> > >
PUBLIC	??1?$_Tree_buy@U?$pair@$$CBMPAVFlightClass@@@std@@V?$allocator@U?$pair@$$CBMPAVFlightClass@@@std@@@2@@std@@QAE@XZ ; std::_Tree_buy<std::pair<float const ,FlightClass *>,std::allocator<std::pair<float const ,FlightClass *> > >::~_Tree_buy<std::pair<float const ,FlightClass *>,std::allocator<std::pair<float const ,FlightClass *> > >
PUBLIC	??0?$_Tree_comp@$0A@V?$_Tmap_traits@MPAVFlightClass@@U?$less@M@std@@V?$allocator@U?$pair@$$CBMPAVFlightClass@@@std@@@3@$0A@@std@@@std@@QAE@ABU?$less@M@1@ABV?$allocator@U?$pair@$$CBMPAVFlightClass@@@std@@@1@@Z ; std::_Tree_comp<0,std::_Tmap_traits<float,FlightClass *,std::less<float>,std::allocator<std::pair<float const ,FlightClass *> >,0> >::_Tree_comp<0,std::_Tmap_traits<float,FlightClass *,std::less<float>,std::allocator<std::pair<float const ,FlightClass *> >,0> >
PUBLIC	??1?$_Tree_comp@$0A@V?$_Tmap_traits@MPAVFlightClass@@U?$less@M@std@@V?$allocator@U?$pair@$$CBMPAVFlightClass@@@std@@@3@$0A@@std@@@std@@QAE@XZ ; std::_Tree_comp<0,std::_Tmap_traits<float,FlightClass *,std::less<float>,std::allocator<std::pair<float const ,FlightClass *> >,0> >::~_Tree_comp<0,std::_Tmap_traits<float,FlightClass *,std::less<float>,std::allocator<std::pair<float const ,FlightClass *> >,0> >
PUBLIC	??0?$_Tree@V?$_Tmap_traits@MPAVFlightClass@@U?$less@M@std@@V?$allocator@U?$pair@$$CBMPAVFlightClass@@@std@@@3@$0A@@std@@@std@@QAE@ABU?$less@M@1@ABV?$allocator@U?$pair@$$CBMPAVFlightClass@@@std@@@1@@Z ; std::_Tree<std::_Tmap_traits<float,FlightClass *,std::less<float>,std::allocator<std::pair<float const ,FlightClass *> >,0> >::_Tree<std::_Tmap_traits<float,FlightClass *,std::less<float>,std::allocator<std::pair<float const ,FlightClass *> >,0> >
PUBLIC	??1?$_Tree@V?$_Tmap_traits@MPAVFlightClass@@U?$less@M@std@@V?$allocator@U?$pair@$$CBMPAVFlightClass@@@std@@@3@$0A@@std@@@std@@QAE@XZ ; std::_Tree<std::_Tmap_traits<float,FlightClass *,std::less<float>,std::allocator<std::pair<float const ,FlightClass *> >,0> >::~_Tree<std::_Tmap_traits<float,FlightClass *,std::less<float>,std::allocator<std::pair<float const ,FlightClass *> >,0> >
PUBLIC	?begin@?$_Tree@V?$_Tmap_traits@MPAVFlightClass@@U?$less@M@std@@V?$allocator@U?$pair@$$CBMPAVFlightClass@@@std@@@3@$0A@@std@@@std@@QAE?AV?$_Tree_iterator@V?$_Tree_val@U?$_Tree_simple_types@U?$pair@$$CBMPAVFlightClass@@@std@@@std@@@std@@@2@XZ ; std::_Tree<std::_Tmap_traits<float,FlightClass *,std::less<float>,std::allocator<std::pair<float const ,FlightClass *> >,0> >::begin
PUBLIC	?end@?$_Tree@V?$_Tmap_traits@MPAVFlightClass@@U?$less@M@std@@V?$allocator@U?$pair@$$CBMPAVFlightClass@@@std@@@3@$0A@@std@@@std@@QAE?AV?$_Tree_iterator@V?$_Tree_val@U?$_Tree_simple_types@U?$pair@$$CBMPAVFlightClass@@@std@@@std@@@std@@@2@XZ ; std::_Tree<std::_Tmap_traits<float,FlightClass *,std::less<float>,std::allocator<std::pair<float const ,FlightClass *> >,0> >::end
PUBLIC	?erase@?$_Tree@V?$_Tmap_traits@MPAVFlightClass@@U?$less@M@std@@V?$allocator@U?$pair@$$CBMPAVFlightClass@@@std@@@3@$0A@@std@@@std@@QAE?AV?$_Tree_iterator@V?$_Tree_val@U?$_Tree_simple_types@U?$pair@$$CBMPAVFlightClass@@@std@@@std@@@std@@@2@V?$_Tree_const_iterator@V?$_Tree_val@U?$_Tree_simple_types@U?$pair@$$CBMPAVFlightClass@@@std@@@std@@@std@@@2@@Z ; std::_Tree<std::_Tmap_traits<float,FlightClass *,std::less<float>,std::allocator<std::pair<float const ,FlightClass *> >,0> >::erase
PUBLIC	?erase@?$_Tree@V?$_Tmap_traits@MPAVFlightClass@@U?$less@M@std@@V?$allocator@U?$pair@$$CBMPAVFlightClass@@@std@@@3@$0A@@std@@@std@@QAE?AV?$_Tree_iterator@V?$_Tree_val@U?$_Tree_simple_types@U?$pair@$$CBMPAVFlightClass@@@std@@@std@@@std@@@2@V?$_Tree_const_iterator@V?$_Tree_val@U?$_Tree_simple_types@U?$pair@$$CBMPAVFlightClass@@@std@@@std@@@std@@@2@0@Z ; std::_Tree<std::_Tmap_traits<float,FlightClass *,std::less<float>,std::allocator<std::pair<float const ,FlightClass *> >,0> >::erase
PUBLIC	?clear@?$_Tree@V?$_Tmap_traits@MPAVFlightClass@@U?$less@M@std@@V?$allocator@U?$pair@$$CBMPAVFlightClass@@@std@@@3@$0A@@std@@@std@@QAEXXZ ; std::_Tree<std::_Tmap_traits<float,FlightClass *,std::less<float>,std::allocator<std::pair<float const ,FlightClass *> >,0> >::clear
PUBLIC	?_Erase@?$_Tree@V?$_Tmap_traits@MPAVFlightClass@@U?$less@M@std@@V?$allocator@U?$pair@$$CBMPAVFlightClass@@@std@@@3@$0A@@std@@@std@@IAEXPAU?$_Tree_node@U?$pair@$$CBMPAVFlightClass@@@std@@PAX@2@@Z ; std::_Tree<std::_Tmap_traits<float,FlightClass *,std::less<float>,std::allocator<std::pair<float const ,FlightClass *> >,0> >::_Erase
PUBLIC	?_Lmost@?$_Tree@V?$_Tmap_traits@MPAVFlightClass@@U?$less@M@std@@V?$allocator@U?$pair@$$CBMPAVFlightClass@@@std@@@3@$0A@@std@@@std@@IBEAAPAU?$_Tree_node@U?$pair@$$CBMPAVFlightClass@@@std@@PAX@2@XZ ; std::_Tree<std::_Tmap_traits<float,FlightClass *,std::less<float>,std::allocator<std::pair<float const ,FlightClass *> >,0> >::_Lmost
PUBLIC	?_Lrotate@?$_Tree@V?$_Tmap_traits@MPAVFlightClass@@U?$less@M@std@@V?$allocator@U?$pair@$$CBMPAVFlightClass@@@std@@@3@$0A@@std@@@std@@IAEXPAU?$_Tree_node@U?$pair@$$CBMPAVFlightClass@@@std@@PAX@2@@Z ; std::_Tree<std::_Tmap_traits<float,FlightClass *,std::less<float>,std::allocator<std::pair<float const ,FlightClass *> >,0> >::_Lrotate
PUBLIC	?_Rmost@?$_Tree@V?$_Tmap_traits@MPAVFlightClass@@U?$less@M@std@@V?$allocator@U?$pair@$$CBMPAVFlightClass@@@std@@@3@$0A@@std@@@std@@IBEAAPAU?$_Tree_node@U?$pair@$$CBMPAVFlightClass@@@std@@PAX@2@XZ ; std::_Tree<std::_Tmap_traits<float,FlightClass *,std::less<float>,std::allocator<std::pair<float const ,FlightClass *> >,0> >::_Rmost
PUBLIC	?_Root@?$_Tree@V?$_Tmap_traits@MPAVFlightClass@@U?$less@M@std@@V?$allocator@U?$pair@$$CBMPAVFlightClass@@@std@@@3@$0A@@std@@@std@@IBEAAPAU?$_Tree_node@U?$pair@$$CBMPAVFlightClass@@@std@@PAX@2@XZ ; std::_Tree<std::_Tmap_traits<float,FlightClass *,std::less<float>,std::allocator<std::pair<float const ,FlightClass *> >,0> >::_Root
PUBLIC	?_Rrotate@?$_Tree@V?$_Tmap_traits@MPAVFlightClass@@U?$less@M@std@@V?$allocator@U?$pair@$$CBMPAVFlightClass@@@std@@@3@$0A@@std@@@std@@IAEXPAU?$_Tree_node@U?$pair@$$CBMPAVFlightClass@@@std@@PAX@2@@Z ; std::_Tree<std::_Tmap_traits<float,FlightClass *,std::less<float>,std::allocator<std::pair<float const ,FlightClass *> >,0> >::_Rrotate
PUBLIC	?_Tidy@?$_Tree@V?$_Tmap_traits@MPAVFlightClass@@U?$less@M@std@@V?$allocator@U?$pair@$$CBMPAVFlightClass@@@std@@@3@$0A@@std@@@std@@IAEXXZ ; std::_Tree<std::_Tmap_traits<float,FlightClass *,std::less<float>,std::allocator<std::pair<float const ,FlightClass *> >,0> >::_Tidy
PUBLIC	??0?$map@MPAVFlightClass@@U?$less@M@std@@V?$allocator@U?$pair@$$CBMPAVFlightClass@@@std@@@3@@std@@QAE@XZ ; std::map<float,FlightClass *,std::less<float>,std::allocator<std::pair<float const ,FlightClass *> > >::map<float,FlightClass *,std::less<float>,std::allocator<std::pair<float const ,FlightClass *> > >
PUBLIC	??1?$map@MPAVFlightClass@@U?$less@M@std@@V?$allocator@U?$pair@$$CBMPAVFlightClass@@@std@@@3@@std@@QAE@XZ ; std::map<float,FlightClass *,std::less<float>,std::allocator<std::pair<float const ,FlightClass *> > >::~map<float,FlightClass *,std::less<float>,std::allocator<std::pair<float const ,FlightClass *> > >
PUBLIC	??0?$_Tree_unchecked_const_iterator@V?$_Tree_val@U?$_Tree_simple_types@U?$pair@$$CBMPAVFlightClass@@@std@@@std@@@std@@U_Iterator_base0@2@@std@@QAE@PAU?$_Tree_node@U?$pair@$$CBMPAVFlightClass@@@std@@PAX@1@PBV?$_Tree_val@U?$_Tree_simple_types@U?$pair@$$CBMPAVFlightClass@@@std@@@std@@@1@@Z ; std::_Tree_unchecked_const_iterator<std::_Tree_val<std::_Tree_simple_types<std::pair<float const ,FlightClass *> > >,std::_Iterator_base0>::_Tree_unchecked_const_iterator<std::_Tree_val<std::_Tree_simple_types<std::pair<float const ,FlightClass *> > >,std::_Iterator_base0>
PUBLIC	??E?$_Tree_unchecked_const_iterator@V?$_Tree_val@U?$_Tree_simple_types@U?$pair@$$CBMPAVFlightClass@@@std@@@std@@@std@@U_Iterator_base0@2@@std@@QAEAAV01@XZ ; std::_Tree_unchecked_const_iterator<std::_Tree_val<std::_Tree_simple_types<std::pair<float const ,FlightClass *> > >,std::_Iterator_base0>::operator++
PUBLIC	?_Mynode@?$_Tree_unchecked_const_iterator@V?$_Tree_val@U?$_Tree_simple_types@U?$pair@$$CBMPAVFlightClass@@@std@@@std@@@std@@U_Iterator_base0@2@@std@@QBEPAU?$_Tree_node@U?$pair@$$CBMPAVFlightClass@@@std@@PAX@2@XZ ; std::_Tree_unchecked_const_iterator<std::_Tree_val<std::_Tree_simple_types<std::pair<float const ,FlightClass *> > >,std::_Iterator_base0>::_Mynode
PUBLIC	??0?$_Tree_const_iterator@V?$_Tree_val@U?$_Tree_simple_types@U?$pair@$$CBMPAVFlightClass@@@std@@@std@@@std@@@std@@QAE@PAU?$_Tree_node@U?$pair@$$CBMPAVFlightClass@@@std@@PAX@1@PBV?$_Tree_val@U?$_Tree_simple_types@U?$pair@$$CBMPAVFlightClass@@@std@@@std@@@1@@Z ; std::_Tree_const_iterator<std::_Tree_val<std::_Tree_simple_types<std::pair<float const ,FlightClass *> > > >::_Tree_const_iterator<std::_Tree_val<std::_Tree_simple_types<std::pair<float const ,FlightClass *> > > >
PUBLIC	??E?$_Tree_const_iterator@V?$_Tree_val@U?$_Tree_simple_types@U?$pair@$$CBMPAVFlightClass@@@std@@@std@@@std@@@std@@QAEAAV01@XZ ; std::_Tree_const_iterator<std::_Tree_val<std::_Tree_simple_types<std::pair<float const ,FlightClass *> > > >::operator++
PUBLIC	??E?$_Tree_const_iterator@V?$_Tree_val@U?$_Tree_simple_types@U?$pair@$$CBMPAVFlightClass@@@std@@@std@@@std@@@std@@QAE?AV01@H@Z ; std::_Tree_const_iterator<std::_Tree_val<std::_Tree_simple_types<std::pair<float const ,FlightClass *> > > >::operator++
PUBLIC	??8?$_Tree_const_iterator@V?$_Tree_val@U?$_Tree_simple_types@U?$pair@$$CBMPAVFlightClass@@@std@@@std@@@std@@@std@@QBE_NABV01@@Z ; std::_Tree_const_iterator<std::_Tree_val<std::_Tree_simple_types<std::pair<float const ,FlightClass *> > > >::operator==
PUBLIC	??9?$_Tree_const_iterator@V?$_Tree_val@U?$_Tree_simple_types@U?$pair@$$CBMPAVFlightClass@@@std@@@std@@@std@@@std@@QBE_NABV01@@Z ; std::_Tree_const_iterator<std::_Tree_val<std::_Tree_simple_types<std::pair<float const ,FlightClass *> > > >::operator!=
PUBLIC	??0?$_Tree_iterator@V?$_Tree_val@U?$_Tree_simple_types@U?$pair@$$CBMPAVFlightClass@@@std@@@std@@@std@@@std@@QAE@PAU?$_Tree_node@U?$pair@$$CBMPAVFlightClass@@@std@@PAX@1@PBV?$_Tree_val@U?$_Tree_simple_types@U?$pair@$$CBMPAVFlightClass@@@std@@@std@@@1@@Z ; std::_Tree_iterator<std::_Tree_val<std::_Tree_simple_types<std::pair<float const ,FlightClass *> > > >::_Tree_iterator<std::_Tree_val<std::_Tree_simple_types<std::pair<float const ,FlightClass *> > > >
PUBLIC	??$destroy@PAD@?$_Wrap_alloc@V?$allocator@D@std@@@std@@QAEXPAPAD@Z ; std::_Wrap_alloc<std::allocator<char> >::destroy<char *>
PUBLIC	??$addressof@D@std@@YAPADAAD@Z			; std::addressof<char>
PUBLIC	??$addressof@PAU?$_Tree_node@U?$pair@$$CBMPAVFlightClass@@@std@@PAX@std@@@std@@YAPAPAU?$_Tree_node@U?$pair@$$CBMPAVFlightClass@@@std@@PAX@0@AAPAU10@@Z ; std::addressof<std::_Tree_node<std::pair<float const ,FlightClass *>,void *> *>
PUBLIC	??$destroy@PAU?$_Tree_node@U?$pair@$$CBMPAVFlightClass@@@std@@PAX@std@@@?$_Wrap_alloc@V?$allocator@U?$_Tree_node@U?$pair@$$CBMPAVFlightClass@@@std@@PAX@std@@@std@@@std@@QAEXPAPAU?$_Tree_node@U?$pair@$$CBMPAVFlightClass@@@std@@PAX@1@@Z ; std::_Wrap_alloc<std::allocator<std::_Tree_node<std::pair<float const ,FlightClass *>,void *> > >::destroy<std::_Tree_node<std::pair<float const ,FlightClass *>,void *> *>
PUBLIC	??$swap@D@std@@YAXAAD0@Z			; std::swap<char>
PUBLIC	??$addressof@U?$pair@$$CBMPAVFlightClass@@@std@@@std@@YAPAU?$pair@$$CBMPAVFlightClass@@@0@AAU10@@Z ; std::addressof<std::pair<float const ,FlightClass *> >
PUBLIC	??$destroy@U?$pair@$$CBMPAVFlightClass@@@std@@@?$_Wrap_alloc@V?$allocator@U?$_Tree_node@U?$pair@$$CBMPAVFlightClass@@@std@@PAX@std@@@std@@@std@@QAEXPAU?$pair@$$CBMPAVFlightClass@@@1@@Z ; std::_Wrap_alloc<std::allocator<std::_Tree_node<std::pair<float const ,FlightClass *>,void *> > >::destroy<std::pair<float const ,FlightClass *> >
PUBLIC	??$construct@PADAAPAD@?$_Wrap_alloc@V?$allocator@D@std@@@std@@QAEXPAPADAAPAD@Z ; std::_Wrap_alloc<std::allocator<char> >::construct<char *,char * &>
PUBLIC	??$construct@PAU?$_Tree_node@U?$pair@$$CBMPAVFlightClass@@@std@@PAX@std@@AAPAU12@@?$_Wrap_alloc@V?$allocator@U?$_Tree_node@U?$pair@$$CBMPAVFlightClass@@@std@@PAX@std@@@std@@@std@@QAEXPAPAU?$_Tree_node@U?$pair@$$CBMPAVFlightClass@@@std@@PAX@1@AAPAU21@@Z ; std::_Wrap_alloc<std::allocator<std::_Tree_node<std::pair<float const ,FlightClass *>,void *> > >::construct<std::_Tree_node<std::pair<float const ,FlightClass *>,void *> *,std::_Tree_node<std::pair<float const ,FlightClass *>,void *> * &>
PUBLIC	??$_Allocate@D@std@@YAPADIPAD@Z			; std::_Allocate<char>
PUBLIC	??$_Allocate@U?$_Tree_node@U?$pair@$$CBMPAVFlightClass@@@std@@PAX@std@@@std@@YAPAU?$_Tree_node@U?$pair@$$CBMPAVFlightClass@@@std@@PAX@0@IPAU10@@Z ; std::_Allocate<std::_Tree_node<std::pair<float const ,FlightClass *>,void *> >
PUBLIC	??$destroy@PAD@?$allocator_traits@V?$allocator@D@std@@@std@@SAXAAV?$allocator@D@1@PAPAD@Z ; std::allocator_traits<std::allocator<char> >::destroy<char *>
PUBLIC	??$destroy@PAU?$_Tree_node@U?$pair@$$CBMPAVFlightClass@@@std@@PAX@std@@@?$allocator_traits@V?$allocator@U?$_Tree_node@U?$pair@$$CBMPAVFlightClass@@@std@@PAX@std@@@std@@@std@@SAXAAV?$allocator@U?$_Tree_node@U?$pair@$$CBMPAVFlightClass@@@std@@PAX@std@@@1@PAPAU?$_Tree_node@U?$pair@$$CBMPAVFlightClass@@@std@@PAX@1@@Z ; std::allocator_traits<std::allocator<std::_Tree_node<std::pair<float const ,FlightClass *>,void *> > >::destroy<std::_Tree_node<std::pair<float const ,FlightClass *>,void *> *>
PUBLIC	??$_Move@AAD@std@@YA$$QADAAD@Z			; std::_Move<char &>
PUBLIC	??$destroy@U?$pair@$$CBMPAVFlightClass@@@std@@@?$allocator_traits@V?$allocator@U?$_Tree_node@U?$pair@$$CBMPAVFlightClass@@@std@@PAX@std@@@std@@@std@@SAXAAV?$allocator@U?$_Tree_node@U?$pair@$$CBMPAVFlightClass@@@std@@PAX@std@@@1@PAU?$pair@$$CBMPAVFlightClass@@@1@@Z ; std::allocator_traits<std::allocator<std::_Tree_node<std::pair<float const ,FlightClass *>,void *> > >::destroy<std::pair<float const ,FlightClass *> >
PUBLIC	??$forward@AAPAD@std@@YAAAPADAAPAD@Z		; std::forward<char * &>
PUBLIC	??$construct@PADAAPAD@?$allocator_traits@V?$allocator@D@std@@@std@@SAXAAV?$allocator@D@1@PAPADAAPAD@Z ; std::allocator_traits<std::allocator<char> >::construct<char *,char * &>
PUBLIC	??$forward@AAPAU?$_Tree_node@U?$pair@$$CBMPAVFlightClass@@@std@@PAX@std@@@std@@YAAAPAU?$_Tree_node@U?$pair@$$CBMPAVFlightClass@@@std@@PAX@0@AAPAU10@@Z ; std::forward<std::_Tree_node<std::pair<float const ,FlightClass *>,void *> * &>
PUBLIC	??$construct@PAU?$_Tree_node@U?$pair@$$CBMPAVFlightClass@@@std@@PAX@std@@AAPAU12@@?$allocator_traits@V?$allocator@U?$_Tree_node@U?$pair@$$CBMPAVFlightClass@@@std@@PAX@std@@@std@@@std@@SAXAAV?$allocator@U?$_Tree_node@U?$pair@$$CBMPAVFlightClass@@@std@@PAX@std@@@1@PAPAU?$_Tree_node@U?$pair@$$CBMPAVFlightClass@@@std@@PAX@1@AAPAU31@@Z ; std::allocator_traits<std::allocator<std::_Tree_node<std::pair<float const ,FlightClass *>,void *> > >::construct<std::_Tree_node<std::pair<float const ,FlightClass *>,void *> *,std::_Tree_node<std::pair<float const ,FlightClass *>,void *> * &>
PUBLIC	??$destroy@PAD@?$allocator@D@std@@QAEXPAPAD@Z	; std::allocator<char>::destroy<char *>
PUBLIC	??$destroy@PAU?$_Tree_node@U?$pair@$$CBMPAVFlightClass@@@std@@PAX@std@@@?$allocator@U?$_Tree_node@U?$pair@$$CBMPAVFlightClass@@@std@@PAX@std@@@std@@QAEXPAPAU?$_Tree_node@U?$pair@$$CBMPAVFlightClass@@@std@@PAX@1@@Z ; std::allocator<std::_Tree_node<std::pair<float const ,FlightClass *>,void *> >::destroy<std::_Tree_node<std::pair<float const ,FlightClass *>,void *> *>
PUBLIC	??$destroy@U?$pair@$$CBMPAVFlightClass@@@std@@@?$allocator@U?$_Tree_node@U?$pair@$$CBMPAVFlightClass@@@std@@PAX@std@@@std@@QAEXPAU?$pair@$$CBMPAVFlightClass@@@1@@Z ; std::allocator<std::_Tree_node<std::pair<float const ,FlightClass *>,void *> >::destroy<std::pair<float const ,FlightClass *> >
PUBLIC	??$construct@PADAAPAD@?$allocator@D@std@@QAEXPAPADAAPAD@Z ; std::allocator<char>::construct<char *,char * &>
PUBLIC	??$construct@PAU?$_Tree_node@U?$pair@$$CBMPAVFlightClass@@@std@@PAX@std@@AAPAU12@@?$allocator@U?$_Tree_node@U?$pair@$$CBMPAVFlightClass@@@std@@PAX@std@@@std@@QAEXPAPAU?$_Tree_node@U?$pair@$$CBMPAVFlightClass@@@std@@PAX@1@AAPAU21@@Z ; std::allocator<std::_Tree_node<std::pair<float const ,FlightClass *>,void *> >::construct<std::_Tree_node<std::pair<float const ,FlightClass *>,void *> *,std::_Tree_node<std::pair<float const ,FlightClass *>,void *> * &>
PUBLIC	??_7logic_error@std@@6B@			; std::logic_error::`vftable'
PUBLIC	??_7out_of_range@std@@6B@			; std::out_of_range::`vftable'
PUBLIC	??_7InvalidBufferException@@6B@			; InvalidBufferException::`vftable'
PUBLIC	??_C@_0CI@MPKJAHJH@Trying?5to?5write?5?$CFlu?5bytes?5to?5?$CFld@ ; `string'
PUBLIC	__TI4?AVInvalidBufferException@@
PUBLIC	__CTA4?AVInvalidBufferException@@
PUBLIC	??_R0?AVInvalidBufferException@@@8		; InvalidBufferException `RTTI Type Descriptor'
PUBLIC	__CT??_R0?AVInvalidBufferException@@@8??0InvalidBufferException@@QAE@ABV0@@Z12
PUBLIC	??_R0?AVout_of_range@std@@@8			; std::out_of_range `RTTI Type Descriptor'
PUBLIC	__CT??_R0?AVout_of_range@std@@@8??0out_of_range@std@@QAE@ABV01@@Z12
PUBLIC	??_R0?AVlogic_error@std@@@8			; std::logic_error `RTTI Type Descriptor'
PUBLIC	__CT??_R0?AVlogic_error@std@@@8??0logic_error@std@@QAE@ABV01@@Z12
PUBLIC	??_R0?AVexception@std@@@8			; std::exception `RTTI Type Descriptor'
PUBLIC	__CT??_R0?AVexception@std@@@8??0exception@std@@QAE@ABV01@@Z12
PUBLIC	??_7FalconAWACSMessage@@6B@			; FalconAWACSMessage::`vftable'
PUBLIC	??_C@_0BM@BKNKFJCB@AWACS?5message?5?$CD?$CFd?5playing?4?6?$AA@ ; `string'
PUBLIC	??_C@_0BE@EDPGFDMC@Making?5threat?5call?6?$AA@	; `string'
PUBLIC	??_C@_0BJ@IJFPPLLJ@No?5threats?5detected?5?3?9?$DO?6?$AA@ ; `string'
PUBLIC	??_C@_0BG@JKJLGINP@Ask?5for?5declare?5here?6?$AA@ ; `string'
PUBLIC	??_C@_0BG@JPLILLEH@Get?5declaration?5here?6?$AA@ ; `string'
PUBLIC	??_C@_0BM@PAPJHAGI@invalid?5map?1set?$DMT?$DO?5iterator?$AA@ ; `string'
PUBLIC	??_C@_0BA@JFNIOLAK@string?5too?5long?$AA@	; `string'
PUBLIC	??_C@_0BI@CFPLBAOH@invalid?5string?5position?$AA@ ; `string'
PUBLIC	??_R1A@?0A@EA@exception@std@@8			; std::exception::`RTTI Base Class Descriptor at (0,-1,0,64)'
PUBLIC	??_R3exception@std@@8				; std::exception::`RTTI Class Hierarchy Descriptor'
PUBLIC	??_R2exception@std@@8				; std::exception::`RTTI Base Class Array'
PUBLIC	??_R4logic_error@std@@6B@			; std::logic_error::`RTTI Complete Object Locator'
PUBLIC	??_R3logic_error@std@@8				; std::logic_error::`RTTI Class Hierarchy Descriptor'
PUBLIC	??_R2logic_error@std@@8				; std::logic_error::`RTTI Base Class Array'
PUBLIC	??_R1A@?0A@EA@logic_error@std@@8		; std::logic_error::`RTTI Base Class Descriptor at (0,-1,0,64)'
PUBLIC	??_R4out_of_range@std@@6B@			; std::out_of_range::`RTTI Complete Object Locator'
PUBLIC	??_R3out_of_range@std@@8			; std::out_of_range::`RTTI Class Hierarchy Descriptor'
PUBLIC	??_R2out_of_range@std@@8			; std::out_of_range::`RTTI Base Class Array'
PUBLIC	??_R1A@?0A@EA@out_of_range@std@@8		; std::out_of_range::`RTTI Base Class Descriptor at (0,-1,0,64)'
PUBLIC	??_R4InvalidBufferException@@6B@		; InvalidBufferException::`RTTI Complete Object Locator'
PUBLIC	??_R3InvalidBufferException@@8			; InvalidBufferException::`RTTI Class Hierarchy Descriptor'
PUBLIC	??_R2InvalidBufferException@@8			; InvalidBufferException::`RTTI Base Class Array'
PUBLIC	??_R1A@?0A@EA@InvalidBufferException@@8		; InvalidBufferException::`RTTI Base Class Descriptor at (0,-1,0,64)'
PUBLIC	??_R4FalconAWACSMessage@@6B@			; FalconAWACSMessage::`RTTI Complete Object Locator'
PUBLIC	??_R0?AVFalconAWACSMessage@@@8			; FalconAWACSMessage `RTTI Type Descriptor'
PUBLIC	??_R3FalconAWACSMessage@@8			; FalconAWACSMessage::`RTTI Class Hierarchy Descriptor'
PUBLIC	??_R2FalconAWACSMessage@@8			; FalconAWACSMessage::`RTTI Base Class Array'
PUBLIC	??_R1A@?0A@EA@FalconAWACSMessage@@8		; FalconAWACSMessage::`RTTI Base Class Descriptor at (0,-1,0,64)'
PUBLIC	??_R1A@?0A@EA@FalconEvent@@8			; FalconEvent::`RTTI Base Class Descriptor at (0,-1,0,64)'
PUBLIC	??_R0?AVFalconEvent@@@8				; FalconEvent `RTTI Type Descriptor'
PUBLIC	??_R3FalconEvent@@8				; FalconEvent::`RTTI Class Hierarchy Descriptor'
PUBLIC	??_R2FalconEvent@@8				; FalconEvent::`RTTI Base Class Array'
PUBLIC	??_R1A@?0A@EA@VuMessage@@8			; VuMessage::`RTTI Base Class Descriptor at (0,-1,0,64)'
PUBLIC	??_R0?AVVuMessage@@@8				; VuMessage `RTTI Type Descriptor'
PUBLIC	??_R3VuMessage@@8				; VuMessage::`RTTI Class Hierarchy Descriptor'
PUBLIC	??_R2VuMessage@@8				; VuMessage::`RTTI Base Class Array'
PUBLIC	__real@00000000
PUBLIC	__real@47c34ff3
PUBLIC	__real@bf800000
PUBLIC	__real@c53b8000
EXTRN	??2@YAPAXI@Z:PROC				; operator new
EXTRN	??3@YAXPAX@Z:PROC				; operator delete
EXTRN	_memcpy:PROC
EXTRN	_strlen:PROC
EXTRN	_memmove:PROC
EXTRN	_rand:PROC
EXTRN	_sprintf:PROC
EXTRN	?IsLocal@VuEntity@@QBEEXZ:PROC			; VuEntity::IsLocal
EXTRN	??0exception@std@@QAE@ABQBD@Z:PROC		; std::exception::exception
EXTRN	??0exception@std@@QAE@ABV01@@Z:PROC		; std::exception::exception
EXTRN	??1exception@std@@UAE@XZ:PROC			; std::exception::~exception
EXTRN	?what@exception@std@@UBEPBDXZ:PROC		; std::exception::what
EXTRN	?_Xbad_alloc@std@@YAXXZ:PROC			; std::_Xbad_alloc
EXTRN	?_Xlength_error@std@@YAXPBD@Z:PROC		; std::_Xlength_error
EXTRN	?_Xout_of_range@std@@YAXPBD@Z:PROC		; std::_Xout_of_range
EXTRN	??_Elogic_error@std@@UAEPAXI@Z:PROC		; std::logic_error::`vector deleting destructor'
EXTRN	??_Eout_of_range@std@@UAEPAXI@Z:PROC		; std::out_of_range::`vector deleting destructor'
EXTRN	?Find@VuDatabase@@QBEPAVVuEntity@@VVU_ID@@@Z:PROC ; VuDatabase::Find
EXTRN	?DoSend@VuMessage@@UAEEXZ:PROC			; VuMessage::DoSend
EXTRN	?Game@VuSessionEntity@@QAEPAVVuGameEntity@@XZ:PROC ; VuSessionEntity::Game
EXTRN	??0VuListIterator@@QAE@PAVVuLinkedList@@@Z:PROC	; VuListIterator::VuListIterator
EXTRN	??1VuListIterator@@UAE@XZ:PROC			; VuListIterator::~VuListIterator
EXTRN	?GetFirst@VuListIterator@@QAEPAVVuEntity@@XZ:PROC ; VuListIterator::GetFirst
EXTRN	?GetNext@VuListIterator@@QAEPAVVuEntity@@XZ:PROC ; VuListIterator::GetNext
EXTRN	?GetLocation@FalconEntity@@QBEXPAF0@Z:PROC	; FalconEntity::GetLocation
EXTRN	?Size@FalconEvent@@UBEHXZ:PROC			; FalconEvent::Size
EXTRN	?Decode@FalconEvent@@UAEHPAPAEPAJ@Z:PROC	; FalconEvent::Decode
EXTRN	?Encode@FalconEvent@@UAEHPAPAE@Z:PROC		; FalconEvent::Encode
EXTRN	??0FalconEvent@@IAE@EW4HandlingThread@0@VVU_ID@@PAVVuTargetEntity@@E@Z:PROC ; FalconEvent::FalconEvent
EXTRN	??0FalconEvent@@IAE@EW4HandlingThread@0@VVU_ID@@1@Z:PROC ; FalconEvent::FalconEvent
EXTRN	??1FalconEvent@@MAE@XZ:PROC			; FalconEvent::~FalconEvent
EXTRN	?Activate@FalconEvent@@MAEHPAVVuEntity@@@Z:PROC	; FalconEvent::Activate
EXTRN	?LocalSize@FalconEvent@@EBEHXZ:PROC		; FalconEvent::LocalSize
EXTRN	?FalconSendMessage@@YAXPAVVuMessage@@H@Z:PROC	; FalconSendMessage
EXTRN	_MonoPrint:PROC
EXTRN	??_EInvalidBufferException@@UAEPAXI@Z:PROC	; InvalidBufferException::`vector deleting destructor'
EXTRN	??_EFalconAWACSMessage@@UAEPAXI@Z:PROC		; FalconAWACSMessage::`vector deleting destructor'
EXTRN	?HomeAirbase@AircraftClass@@QAE?AVVU_ID@@XZ:PROC ; AircraftClass::HomeAirbase
EXTRN	?GetComponentLead@CampBaseClass@@QAEPAVSimBaseClass@@XZ:PROC ; CampBaseClass::GetComponentLead
EXTRN	?NumberOfComponents@CampBaseClass@@QAEHXZ:PROC	; CampBaseClass::NumberOfComponents
EXTRN	?FindNearestThreat@SimulationDriver@@QAEPAVSimBaseClass@@PAVAircraftClass@@PAF1PAM@Z:PROC ; SimulationDriver::FindNearestThreat
EXTRN	?FindNearestEnemyPlane@SimulationDriver@@QAEPAVSimBaseClass@@PAVAircraftClass@@PAF1PAM@Z:PROC ; SimulationDriver::FindNearestEnemyPlane
EXTRN	?FindNearestCampThreat@SimulationDriver@@QAEPAVCampBaseClass@@PAVAircraftClass@@PAF1PAM@Z:PROC ; SimulationDriver::FindNearestCampThreat
EXTRN	?FindNearestCampEnemy@SimulationDriver@@QAEPAVCampBaseClass@@PAVAircraftClass@@PAF1PAM@Z:PROC ; SimulationDriver::FindNearestCampEnemy
EXTRN	?FindTanker@SimulationDriver@@QAEPAVFlightClass@@PAVSimBaseClass@@@Z:PROC ; SimulationDriver::FindTanker
EXTRN	?GetDefaultAwacsVoice@@YAEXZ:PROC		; GetDefaultAwacsVoice
EXTRN	??0FalconRadioChatterMessage@@QAE@VVU_ID@@PAVVuTargetEntity@@E@Z:PROC ; FalconRadioChatterMessage::FalconRadioChatterMessage
EXTRN	?ConvertFlightNumberToCallNumber@@YAFH@Z:PROC	; ConvertFlightNumberToCallNumber
EXTRN	?CreateCallFromAwacs@@YAPAVFalconRadioChatterMessage@@PAVFlightClass@@FPAVVuTargetEntity@@@Z:PROC ; CreateCallFromAwacs
EXTRN	?CreateCallFromAwacsPlane@@YAPAVFalconRadioChatterMessage@@PAVAircraftClass@@FPAVVuTargetEntity@@@Z:PROC ; CreateCallFromAwacsPlane
EXTRN	?CheckDivertStatus@@YAHH@Z:PROC			; CheckDivertStatus
EXTRN	?SetDiverted@UnitClass@@QAEXH@Z:PROC		; UnitClass::SetDiverted
EXTRN	?GetVehicleID@UnitClass@@QAEFH@Z:PROC		; UnitClass::GetVehicleID
EXTRN	?FindNearestFriendlyAirbase@@YAPAVObjectiveClass@@EFF@Z:PROC ; FindNearestFriendlyAirbase
EXTRN	?SimToGrid@@YAFM@Z:PROC				; SimToGrid
EXTRN	?ConvertSimToGrid@@YAXPAUvector@@PAF1@Z:PROC	; ConvertSimToGrid
EXTRN	?SetEvalFlag@FlightClass@@QAEXEH@Z:PROC		; FlightClass::SetEvalFlag
EXTRN	?ClearEvalFlag@FlightClass@@QAEXE@Z:PROC	; FlightClass::ClearEvalFlag
EXTRN	?GetPilotVoiceID@FlightClass@@QAEEH@Z:PROC	; FlightClass::GetPilotVoiceID
EXTRN	?GetACCount@FlightClass@@QAEHXZ:PROC		; FlightClass::GetACCount
EXTRN	?GetFlightLeadVoiceID@FlightClass@@QAEEXZ:PROC	; FlightClass::GetFlightLeadVoiceID
EXTRN	?GetAWACSFlight@FlightClass@@QAEPAV1@XZ:PROC	; FlightClass::GetAWACSFlight
EXTRN	?GetTankerFlight@FlightClass@@QAEPAV1@XZ:PROC	; FlightClass::GetTankerFlight
EXTRN	?GetFlightController@FlightClass@@QAEPAV1@XZ:PROC ; FlightClass::GetFlightController
EXTRN	?GetTTRelations@@YAHEE@Z:PROC			; GetTTRelations
EXTRN	?FindSensor@@YAPAVSensorClass@@PAVSimMoverClass@@H@Z:PROC ; FindSensor
EXTRN	?RequestSARMission@@YAHPAVFlightClass@@@Z:PROC	; RequestSARMission
EXTRN	?RequestIntercept@@YAXPAVFlightClass@@HW4RequIntHint@@@Z:PROC ; RequestIntercept
EXTRN	?RegisterRelief@MissionEvaluationClass@@QAEXPAVFlightClass@@@Z:PROC ; MissionEvaluationClass::RegisterRelief
EXTRN	?FindFlightData@MissionEvaluationClass@@QAEPAVFlightDataClass@@PAVFlightClass@@@Z:PROC ; MissionEvaluationClass::FindFlightData
EXTRN	?FindAircraftTarget@@YA?AVVU_ID@@PAVAircraftClass@@@Z:PROC ; FindAircraftTarget
EXTRN	@__security_check_cookie@4:PROC
EXTRN	__CxxThrowException@8:PROC
EXTRN	___CxxFrameHandler3:PROC
EXTRN	?vuDatabase@@3PAVVuDatabase@@A:DWORD		; vuDatabase
EXTRN	?vuLocalSessionEntity@@3V?$VuBin@VVuSessionEntity@@@@A:DWORD ; vuLocalSessionEntity
EXTRN	?FalconNullId@@3VVU_ID@@A:QWORD			; FalconNullId
EXTRN	?MissionData@@3PAUMissionDataType@@A:BYTE	; MissionData
EXTRN	??_7type_info@@6B@:QWORD			; type_info::`vftable'
EXTRN	?AllAirList@@3PAVVuLinkedList@@A:DWORD		; AllAirList
EXTRN	?AllRealList@@3PAVVuLinkedList@@A:DWORD		; AllRealList
EXTRN	?SimDriver@@3VSimulationDriver@@A:BYTE		; SimDriver
EXTRN	?gDefaultAWACSCallSign@@3FA:WORD		; gDefaultAWACSCallSign
EXTRN	?TheCampaign@@3VCampaignClass@@A:BYTE		; TheCampaign
EXTRN	?PlayerOptions@@3VPlayerOptionsClass@@A:BYTE	; PlayerOptions
EXTRN	?g_bAWACSRequired@@3_NA:BYTE			; g_bAWACSRequired
EXTRN	?g_nMinTacanChannel@@3HA:DWORD			; g_nMinTacanChannel
EXTRN	?g_nChatterInterval@@3HA:DWORD			; g_nChatterInterval
EXTRN	___security_cookie:DWORD
EXTRN	__fltused:DWORD
_BSS	SEGMENT
_piecewise_construct DB 01H DUP (?)
_allocator_arg DB 01H DUP (?)
_BSS	ENDS
CRT$XCU	SEGMENT
_piecewise_construct$initializer$ DD FLAT:??__Epiecewise_construct@std@@YAXXZ
CRT$XCU	ENDS
;	COMDAT __real@c53b8000
CONST	SEGMENT
__real@c53b8000 DD 0c53b8000r			; -3000
CONST	ENDS
;	COMDAT __real@bf800000
CONST	SEGMENT
__real@bf800000 DD 0bf800000r			; -1
CONST	ENDS
;	COMDAT __real@47c34ff3
CONST	SEGMENT
__real@47c34ff3 DD 047c34ff3r			; 99999.9
CONST	ENDS
;	COMDAT __real@00000000
CONST	SEGMENT
__real@00000000 DD 000000000r			; 0
CONST	ENDS
;	COMDAT ??_R2VuMessage@@8
rdata$r	SEGMENT
??_R2VuMessage@@8 DD FLAT:??_R1A@?0A@EA@VuMessage@@8	; VuMessage::`RTTI Base Class Array'
rdata$r	ENDS
;	COMDAT ??_R3VuMessage@@8
rdata$r	SEGMENT
??_R3VuMessage@@8 DD 00H				; VuMessage::`RTTI Class Hierarchy Descriptor'
	DD	00H
	DD	01H
	DD	FLAT:??_R2VuMessage@@8
rdata$r	ENDS
;	COMDAT ??_R0?AVVuMessage@@@8
_DATA	SEGMENT
??_R0?AVVuMessage@@@8 DD FLAT:??_7type_info@@6B@	; VuMessage `RTTI Type Descriptor'
	DD	00H
	DB	'.?AVVuMessage@@', 00H
_DATA	ENDS
;	COMDAT ??_R1A@?0A@EA@VuMessage@@8
rdata$r	SEGMENT
??_R1A@?0A@EA@VuMessage@@8 DD FLAT:??_R0?AVVuMessage@@@8 ; VuMessage::`RTTI Base Class Descriptor at (0,-1,0,64)'
	DD	00H
	DD	00H
	DD	0ffffffffH
	DD	00H
	DD	040H
	DD	FLAT:??_R3VuMessage@@8
rdata$r	ENDS
;	COMDAT ??_R2FalconEvent@@8
rdata$r	SEGMENT
??_R2FalconEvent@@8 DD FLAT:??_R1A@?0A@EA@FalconEvent@@8 ; FalconEvent::`RTTI Base Class Array'
	DD	FLAT:??_R1A@?0A@EA@VuMessage@@8
rdata$r	ENDS
;	COMDAT ??_R3FalconEvent@@8
rdata$r	SEGMENT
??_R3FalconEvent@@8 DD 00H				; FalconEvent::`RTTI Class Hierarchy Descriptor'
	DD	00H
	DD	02H
	DD	FLAT:??_R2FalconEvent@@8
rdata$r	ENDS
;	COMDAT ??_R0?AVFalconEvent@@@8
_DATA	SEGMENT
??_R0?AVFalconEvent@@@8 DD FLAT:??_7type_info@@6B@	; FalconEvent `RTTI Type Descriptor'
	DD	00H
	DB	'.?AVFalconEvent@@', 00H
_DATA	ENDS
;	COMDAT ??_R1A@?0A@EA@FalconEvent@@8
rdata$r	SEGMENT
??_R1A@?0A@EA@FalconEvent@@8 DD FLAT:??_R0?AVFalconEvent@@@8 ; FalconEvent::`RTTI Base Class Descriptor at (0,-1,0,64)'
	DD	01H
	DD	00H
	DD	0ffffffffH
	DD	00H
	DD	040H
	DD	FLAT:??_R3FalconEvent@@8
rdata$r	ENDS
;	COMDAT ??_R1A@?0A@EA@FalconAWACSMessage@@8
rdata$r	SEGMENT
??_R1A@?0A@EA@FalconAWACSMessage@@8 DD FLAT:??_R0?AVFalconAWACSMessage@@@8 ; FalconAWACSMessage::`RTTI Base Class Descriptor at (0,-1,0,64)'
	DD	02H
	DD	00H
	DD	0ffffffffH
	DD	00H
	DD	040H
	DD	FLAT:??_R3FalconAWACSMessage@@8
rdata$r	ENDS
;	COMDAT ??_R2FalconAWACSMessage@@8
rdata$r	SEGMENT
??_R2FalconAWACSMessage@@8 DD FLAT:??_R1A@?0A@EA@FalconAWACSMessage@@8 ; FalconAWACSMessage::`RTTI Base Class Array'
	DD	FLAT:??_R1A@?0A@EA@FalconEvent@@8
	DD	FLAT:??_R1A@?0A@EA@VuMessage@@8
rdata$r	ENDS
;	COMDAT ??_R3FalconAWACSMessage@@8
rdata$r	SEGMENT
??_R3FalconAWACSMessage@@8 DD 00H			; FalconAWACSMessage::`RTTI Class Hierarchy Descriptor'
	DD	00H
	DD	03H
	DD	FLAT:??_R2FalconAWACSMessage@@8
rdata$r	ENDS
;	COMDAT ??_R0?AVFalconAWACSMessage@@@8
_DATA	SEGMENT
??_R0?AVFalconAWACSMessage@@@8 DD FLAT:??_7type_info@@6B@ ; FalconAWACSMessage `RTTI Type Descriptor'
	DD	00H
	DB	'.?AVFalconAWACSMessage@@', 00H
_DATA	ENDS
;	COMDAT ??_R4FalconAWACSMessage@@6B@
rdata$r	SEGMENT
??_R4FalconAWACSMessage@@6B@ DD 00H			; FalconAWACSMessage::`RTTI Complete Object Locator'
	DD	00H
	DD	00H
	DD	FLAT:??_R0?AVFalconAWACSMessage@@@8
	DD	FLAT:??_R3FalconAWACSMessage@@8
rdata$r	ENDS
;	COMDAT ??_R1A@?0A@EA@InvalidBufferException@@8
rdata$r	SEGMENT
??_R1A@?0A@EA@InvalidBufferException@@8 DD FLAT:??_R0?AVInvalidBufferException@@@8 ; InvalidBufferException::`RTTI Base Class Descriptor at (0,-1,0,64)'
	DD	03H
	DD	00H
	DD	0ffffffffH
	DD	00H
	DD	040H
	DD	FLAT:??_R3InvalidBufferException@@8
rdata$r	ENDS
;	COMDAT ??_R2InvalidBufferException@@8
rdata$r	SEGMENT
??_R2InvalidBufferException@@8 DD FLAT:??_R1A@?0A@EA@InvalidBufferException@@8 ; InvalidBufferException::`RTTI Base Class Array'
	DD	FLAT:??_R1A@?0A@EA@out_of_range@std@@8
	DD	FLAT:??_R1A@?0A@EA@logic_error@std@@8
	DD	FLAT:??_R1A@?0A@EA@exception@std@@8
rdata$r	ENDS
;	COMDAT ??_R3InvalidBufferException@@8
rdata$r	SEGMENT
??_R3InvalidBufferException@@8 DD 00H			; InvalidBufferException::`RTTI Class Hierarchy Descriptor'
	DD	00H
	DD	04H
	DD	FLAT:??_R2InvalidBufferException@@8
rdata$r	ENDS
;	COMDAT ??_R4InvalidBufferException@@6B@
rdata$r	SEGMENT
??_R4InvalidBufferException@@6B@ DD 00H			; InvalidBufferException::`RTTI Complete Object Locator'
	DD	00H
	DD	00H
	DD	FLAT:??_R0?AVInvalidBufferException@@@8
	DD	FLAT:??_R3InvalidBufferException@@8
rdata$r	ENDS
;	COMDAT ??_R1A@?0A@EA@out_of_range@std@@8
rdata$r	SEGMENT
??_R1A@?0A@EA@out_of_range@std@@8 DD FLAT:??_R0?AVout_of_range@std@@@8 ; std::out_of_range::`RTTI Base Class Descriptor at (0,-1,0,64)'
	DD	02H
	DD	00H
	DD	0ffffffffH
	DD	00H
	DD	040H
	DD	FLAT:??_R3out_of_range@std@@8
rdata$r	ENDS
;	COMDAT ??_R2out_of_range@std@@8
rdata$r	SEGMENT
??_R2out_of_range@std@@8 DD FLAT:??_R1A@?0A@EA@out_of_range@std@@8 ; std::out_of_range::`RTTI Base Class Array'
	DD	FLAT:??_R1A@?0A@EA@logic_error@std@@8
	DD	FLAT:??_R1A@?0A@EA@exception@std@@8
rdata$r	ENDS
;	COMDAT ??_R3out_of_range@std@@8
rdata$r	SEGMENT
??_R3out_of_range@std@@8 DD 00H				; std::out_of_range::`RTTI Class Hierarchy Descriptor'
	DD	00H
	DD	03H
	DD	FLAT:??_R2out_of_range@std@@8
rdata$r	ENDS
;	COMDAT ??_R4out_of_range@std@@6B@
rdata$r	SEGMENT
??_R4out_of_range@std@@6B@ DD 00H			; std::out_of_range::`RTTI Complete Object Locator'
	DD	00H
	DD	00H
	DD	FLAT:??_R0?AVout_of_range@std@@@8
	DD	FLAT:??_R3out_of_range@std@@8
rdata$r	ENDS
;	COMDAT ??_R1A@?0A@EA@logic_error@std@@8
rdata$r	SEGMENT
??_R1A@?0A@EA@logic_error@std@@8 DD FLAT:??_R0?AVlogic_error@std@@@8 ; std::logic_error::`RTTI Base Class Descriptor at (0,-1,0,64)'
	DD	01H
	DD	00H
	DD	0ffffffffH
	DD	00H
	DD	040H
	DD	FLAT:??_R3logic_error@std@@8
rdata$r	ENDS
;	COMDAT ??_R2logic_error@std@@8
rdata$r	SEGMENT
??_R2logic_error@std@@8 DD FLAT:??_R1A@?0A@EA@logic_error@std@@8 ; std::logic_error::`RTTI Base Class Array'
	DD	FLAT:??_R1A@?0A@EA@exception@std@@8
rdata$r	ENDS
;	COMDAT ??_R3logic_error@std@@8
rdata$r	SEGMENT
??_R3logic_error@std@@8 DD 00H				; std::logic_error::`RTTI Class Hierarchy Descriptor'
	DD	00H
	DD	02H
	DD	FLAT:??_R2logic_error@std@@8
rdata$r	ENDS
;	COMDAT ??_R4logic_error@std@@6B@
rdata$r	SEGMENT
??_R4logic_error@std@@6B@ DD 00H			; std::logic_error::`RTTI Complete Object Locator'
	DD	00H
	DD	00H
	DD	FLAT:??_R0?AVlogic_error@std@@@8
	DD	FLAT:??_R3logic_error@std@@8
rdata$r	ENDS
;	COMDAT ??_R2exception@std@@8
rdata$r	SEGMENT
??_R2exception@std@@8 DD FLAT:??_R1A@?0A@EA@exception@std@@8 ; std::exception::`RTTI Base Class Array'
rdata$r	ENDS
;	COMDAT ??_R3exception@std@@8
rdata$r	SEGMENT
??_R3exception@std@@8 DD 00H				; std::exception::`RTTI Class Hierarchy Descriptor'
	DD	00H
	DD	01H
	DD	FLAT:??_R2exception@std@@8
rdata$r	ENDS
;	COMDAT ??_R1A@?0A@EA@exception@std@@8
rdata$r	SEGMENT
??_R1A@?0A@EA@exception@std@@8 DD FLAT:??_R0?AVexception@std@@@8 ; std::exception::`RTTI Base Class Descriptor at (0,-1,0,64)'
	DD	00H
	DD	00H
	DD	0ffffffffH
	DD	00H
	DD	040H
	DD	FLAT:??_R3exception@std@@8
rdata$r	ENDS
;	COMDAT ??_C@_0BI@CFPLBAOH@invalid?5string?5position?$AA@
CONST	SEGMENT
??_C@_0BI@CFPLBAOH@invalid?5string?5position?$AA@ DB 'invalid string posi'
	DB	'tion', 00H					; `string'
CONST	ENDS
;	COMDAT ??_C@_0BA@JFNIOLAK@string?5too?5long?$AA@
CONST	SEGMENT
??_C@_0BA@JFNIOLAK@string?5too?5long?$AA@ DB 'string too long', 00H ; `string'
CONST	ENDS
;	COMDAT ??_C@_0BM@PAPJHAGI@invalid?5map?1set?$DMT?$DO?5iterator?$AA@
CONST	SEGMENT
??_C@_0BM@PAPJHAGI@invalid?5map?1set?$DMT?$DO?5iterator?$AA@ DB 'invalid '
	DB	'map/set<T> iterator', 00H			; `string'
CONST	ENDS
;	COMDAT ??_C@_0BG@JPLILLEH@Get?5declaration?5here?6?$AA@
CONST	SEGMENT
??_C@_0BG@JPLILLEH@Get?5declaration?5here?6?$AA@ DB 'Get declaration here'
	DB	0aH, 00H					; `string'
CONST	ENDS
;	COMDAT ??_C@_0BG@JKJLGINP@Ask?5for?5declare?5here?6?$AA@
CONST	SEGMENT
??_C@_0BG@JKJLGINP@Ask?5for?5declare?5here?6?$AA@ DB 'Ask for declare her'
	DB	'e', 0aH, 00H				; `string'
CONST	ENDS
;	COMDAT ??_C@_0BJ@IJFPPLLJ@No?5threats?5detected?5?3?9?$DO?6?$AA@
CONST	SEGMENT
??_C@_0BJ@IJFPPLLJ@No?5threats?5detected?5?3?9?$DO?6?$AA@ DB 'No threats '
	DB	'detected :->', 0aH, 00H			; `string'
CONST	ENDS
;	COMDAT ??_C@_0BE@EDPGFDMC@Making?5threat?5call?6?$AA@
CONST	SEGMENT
??_C@_0BE@EDPGFDMC@Making?5threat?5call?6?$AA@ DB 'Making threat call', 0aH
	DB	00H						; `string'
CONST	ENDS
;	COMDAT ??_C@_0BM@BKNKFJCB@AWACS?5message?5?$CD?$CFd?5playing?4?6?$AA@
CONST	SEGMENT
??_C@_0BM@BKNKFJCB@AWACS?5message?5?$CD?$CFd?5playing?4?6?$AA@ DB 'AWACS '
	DB	'message #%d playing.', 0aH, 00H		; `string'
CONST	ENDS
;	COMDAT ??_7FalconAWACSMessage@@6B@
CONST	SEGMENT
??_7FalconAWACSMessage@@6B@ DD FLAT:??_R4FalconAWACSMessage@@6B@ ; FalconAWACSMessage::`vftable'
	DD	FLAT:??_EFalconAWACSMessage@@UAEPAXI@Z
	DD	FLAT:?Size@FalconAWACSMessage@@UBEHXZ
	DD	FLAT:?DoSend@VuMessage@@UAEEXZ
	DD	FLAT:?Activate@FalconEvent@@MAEHPAVVuEntity@@@Z
	DD	FLAT:?Process@FalconAWACSMessage@@MAEHE@Z
	DD	FLAT:?Encode@FalconAWACSMessage@@UAEHPAPAE@Z
	DD	FLAT:?Decode@FalconAWACSMessage@@UAEHPAPAEPAJ@Z
	DD	FLAT:?LocalSize@FalconEvent@@EBEHXZ
CONST	ENDS
;	COMDAT __CT??_R0?AVexception@std@@@8??0exception@std@@QAE@ABV01@@Z12
xdata$x	SEGMENT
__CT??_R0?AVexception@std@@@8??0exception@std@@QAE@ABV01@@Z12 DD 00H
	DD	FLAT:??_R0?AVexception@std@@@8
	DD	00H
	DD	0ffffffffH
	ORG $+4
	DD	0cH
	DD	FLAT:??0exception@std@@QAE@ABV01@@Z
xdata$x	ENDS
;	COMDAT ??_R0?AVexception@std@@@8
_DATA	SEGMENT
??_R0?AVexception@std@@@8 DD FLAT:??_7type_info@@6B@	; std::exception `RTTI Type Descriptor'
	DD	00H
	DB	'.?AVexception@std@@', 00H
_DATA	ENDS
;	COMDAT __CT??_R0?AVlogic_error@std@@@8??0logic_error@std@@QAE@ABV01@@Z12
xdata$x	SEGMENT
__CT??_R0?AVlogic_error@std@@@8??0logic_error@std@@QAE@ABV01@@Z12 DD 00H
	DD	FLAT:??_R0?AVlogic_error@std@@@8
	DD	00H
	DD	0ffffffffH
	ORG $+4
	DD	0cH
	DD	FLAT:??0logic_error@std@@QAE@ABV01@@Z
xdata$x	ENDS
;	COMDAT ??_R0?AVlogic_error@std@@@8
_DATA	SEGMENT
??_R0?AVlogic_error@std@@@8 DD FLAT:??_7type_info@@6B@	; std::logic_error `RTTI Type Descriptor'
	DD	00H
	DB	'.?AVlogic_error@std@@', 00H
_DATA	ENDS
;	COMDAT __CT??_R0?AVout_of_range@std@@@8??0out_of_range@std@@QAE@ABV01@@Z12
xdata$x	SEGMENT
__CT??_R0?AVout_of_range@std@@@8??0out_of_range@std@@QAE@ABV01@@Z12 DD 00H
	DD	FLAT:??_R0?AVout_of_range@std@@@8
	DD	00H
	DD	0ffffffffH
	ORG $+4
	DD	0cH
	DD	FLAT:??0out_of_range@std@@QAE@ABV01@@Z
xdata$x	ENDS
;	COMDAT ??_R0?AVout_of_range@std@@@8
_DATA	SEGMENT
??_R0?AVout_of_range@std@@@8 DD FLAT:??_7type_info@@6B@	; std::out_of_range `RTTI Type Descriptor'
	DD	00H
	DB	'.?AVout_of_range@std@@', 00H
_DATA	ENDS
;	COMDAT __CT??_R0?AVInvalidBufferException@@@8??0InvalidBufferException@@QAE@ABV0@@Z12
xdata$x	SEGMENT
__CT??_R0?AVInvalidBufferException@@@8??0InvalidBufferException@@QAE@ABV0@@Z12 DD 00H
	DD	FLAT:??_R0?AVInvalidBufferException@@@8
	DD	00H
	DD	0ffffffffH
	ORG $+4
	DD	0cH
	DD	FLAT:??0InvalidBufferException@@QAE@ABV0@@Z
xdata$x	ENDS
;	COMDAT ??_R0?AVInvalidBufferException@@@8
_DATA	SEGMENT
??_R0?AVInvalidBufferException@@@8 DD FLAT:??_7type_info@@6B@ ; InvalidBufferException `RTTI Type Descriptor'
	DD	00H
	DB	'.?AVInvalidBufferException@@', 00H
_DATA	ENDS
;	COMDAT __CTA4?AVInvalidBufferException@@
xdata$x	SEGMENT
__CTA4?AVInvalidBufferException@@ DD 04H
	DD	FLAT:__CT??_R0?AVInvalidBufferException@@@8??0InvalidBufferException@@QAE@ABV0@@Z12
	DD	FLAT:__CT??_R0?AVout_of_range@std@@@8??0out_of_range@std@@QAE@ABV01@@Z12
	DD	FLAT:__CT??_R0?AVlogic_error@std@@@8??0logic_error@std@@QAE@ABV01@@Z12
	DD	FLAT:__CT??_R0?AVexception@std@@@8??0exception@std@@QAE@ABV01@@Z12
xdata$x	ENDS
;	COMDAT __TI4?AVInvalidBufferException@@
xdata$x	SEGMENT
__TI4?AVInvalidBufferException@@ DD 00H
	DD	FLAT:??1InvalidBufferException@@UAE@XZ
	DD	00H
	DD	FLAT:__CTA4?AVInvalidBufferException@@
xdata$x	ENDS
;	COMDAT ??_C@_0CI@MPKJAHJH@Trying?5to?5write?5?$CFlu?5bytes?5to?5?$CFld@
CONST	SEGMENT
??_C@_0CI@MPKJAHJH@Trying?5to?5write?5?$CFlu?5bytes?5to?5?$CFld@ DB 'Tryi'
	DB	'ng to write %lu bytes to %ld buffer', 00H	; `string'
CONST	ENDS
;	COMDAT ??_7InvalidBufferException@@6B@
CONST	SEGMENT
??_7InvalidBufferException@@6B@ DD FLAT:??_R4InvalidBufferException@@6B@ ; InvalidBufferException::`vftable'
	DD	FLAT:??_EInvalidBufferException@@UAEPAXI@Z
	DD	FLAT:?what@exception@std@@UBEPBDXZ
CONST	ENDS
;	COMDAT ??_7out_of_range@std@@6B@
CONST	SEGMENT
??_7out_of_range@std@@6B@ DD FLAT:??_R4out_of_range@std@@6B@ ; std::out_of_range::`vftable'
	DD	FLAT:??_Eout_of_range@std@@UAEPAXI@Z
	DD	FLAT:?what@exception@std@@UBEPBDXZ
CONST	ENDS
;	COMDAT ??_7logic_error@std@@6B@
CONST	SEGMENT
??_7logic_error@std@@6B@ DD FLAT:??_R4logic_error@std@@6B@ ; std::logic_error::`vftable'
	DD	FLAT:??_Elogic_error@std@@UAEPAXI@Z
	DD	FLAT:?what@exception@std@@UBEPBDXZ
CONST	ENDS
;	COMDAT xdata$x
xdata$x	SEGMENT
__unwindtable$??$construct@PAU?$_Tree_node@U?$pair@$$CBMPAVFlightClass@@@std@@PAX@std@@AAPAU12@@?$allocator@U?$_Tree_node@U?$pair@$$CBMPAVFlightClass@@@std@@PAX@std@@@std@@QAEXPAPAU?$_Tree_node@U?$pair@$$CBMPAVFlightClass@@@std@@PAX@1@AAPAU21@@Z DD 0ffffffffH
	DD	FLAT:__unwindfunclet$??$construct@PAU?$_Tree_node@U?$pair@$$CBMPAVFlightClass@@@std@@PAX@std@@AAPAU12@@?$allocator@U?$_Tree_node@U?$pair@$$CBMPAVFlightClass@@@std@@PAX@std@@@std@@QAEXPAPAU?$_Tree_node@U?$pair@$$CBMPAVFlightClass@@@std@@PAX@1@AAPAU21@@Z$0
__ehfuncinfo$??$construct@PAU?$_Tree_node@U?$pair@$$CBMPAVFlightClass@@@std@@PAX@std@@AAPAU12@@?$allocator@U?$_Tree_node@U?$pair@$$CBMPAVFlightClass@@@std@@PAX@std@@@std@@QAEXPAPAU?$_Tree_node@U?$pair@$$CBMPAVFlightClass@@@std@@PAX@1@AAPAU21@@Z DD 019930522H
	DD	01H
	DD	FLAT:__unwindtable$??$construct@PAU?$_Tree_node@U?$pair@$$CBMPAVFlightClass@@@std@@PAX@std@@AAPAU12@@?$allocator@U?$_Tree_node@U?$pair@$$CBMPAVFlightClass@@@std@@PAX@std@@@std@@QAEXPAPAU?$_Tree_node@U?$pair@$$CBMPAVFlightClass@@@std@@PAX@1@AAPAU21@@Z
	DD	2 DUP(00H)
	DD	2 DUP(00H)
	DD	00H
	DD	01H
xdata$x	ENDS
;	COMDAT xdata$x
xdata$x	SEGMENT
__unwindtable$??$construct@PADAAPAD@?$allocator@D@std@@QAEXPAPADAAPAD@Z DD 0ffffffffH
	DD	FLAT:__unwindfunclet$??$construct@PADAAPAD@?$allocator@D@std@@QAEXPAPADAAPAD@Z$0
__ehfuncinfo$??$construct@PADAAPAD@?$allocator@D@std@@QAEXPAPADAAPAD@Z DD 019930522H
	DD	01H
	DD	FLAT:__unwindtable$??$construct@PADAAPAD@?$allocator@D@std@@QAEXPAPADAAPAD@Z
	DD	2 DUP(00H)
	DD	2 DUP(00H)
	DD	00H
	DD	01H
xdata$x	ENDS
;	COMDAT xdata$x
xdata$x	SEGMENT
__catchsym$?_Buyheadnode@?$_Tree_alloc@$0A@U?$_Tree_base_types@U?$pair@$$CBMPAVFlightClass@@@std@@V?$allocator@U?$pair@$$CBMPAVFlightClass@@@std@@@2@@std@@@std@@QAEPAU?$_Tree_node@U?$pair@$$CBMPAVFlightClass@@@std@@PAX@2@XZ$2 DD 040H
	DD	00H
	DD	00H
	DD	FLAT:__catch$?_Buyheadnode@?$_Tree_alloc@$0A@U?$_Tree_base_types@U?$pair@$$CBMPAVFlightClass@@@std@@V?$allocator@U?$pair@$$CBMPAVFlightClass@@@std@@@2@@std@@@std@@QAEPAU?$_Tree_node@U?$pair@$$CBMPAVFlightClass@@@std@@PAX@2@XZ$0
__unwindtable$?_Buyheadnode@?$_Tree_alloc@$0A@U?$_Tree_base_types@U?$pair@$$CBMPAVFlightClass@@@std@@V?$allocator@U?$pair@$$CBMPAVFlightClass@@@std@@@2@@std@@@std@@QAEPAU?$_Tree_node@U?$pair@$$CBMPAVFlightClass@@@std@@PAX@2@XZ DD 0ffffffffH
	DD	00H
	DD	0ffffffffH
	DD	00H
__tryblocktable$?_Buyheadnode@?$_Tree_alloc@$0A@U?$_Tree_base_types@U?$pair@$$CBMPAVFlightClass@@@std@@V?$allocator@U?$pair@$$CBMPAVFlightClass@@@std@@@2@@std@@@std@@QAEPAU?$_Tree_node@U?$pair@$$CBMPAVFlightClass@@@std@@PAX@2@XZ DD 00H
	DD	00H
	DD	01H
	DD	01H
	DD	FLAT:__catchsym$?_Buyheadnode@?$_Tree_alloc@$0A@U?$_Tree_base_types@U?$pair@$$CBMPAVFlightClass@@@std@@V?$allocator@U?$pair@$$CBMPAVFlightClass@@@std@@@2@@std@@@std@@QAEPAU?$_Tree_node@U?$pair@$$CBMPAVFlightClass@@@std@@PAX@2@XZ$2
__ehfuncinfo$?_Buyheadnode@?$_Tree_alloc@$0A@U?$_Tree_base_types@U?$pair@$$CBMPAVFlightClass@@@std@@V?$allocator@U?$pair@$$CBMPAVFlightClass@@@std@@@2@@std@@@std@@QAEPAU?$_Tree_node@U?$pair@$$CBMPAVFlightClass@@@std@@PAX@2@XZ DD 019930522H
	DD	02H
	DD	FLAT:__unwindtable$?_Buyheadnode@?$_Tree_alloc@$0A@U?$_Tree_base_types@U?$pair@$$CBMPAVFlightClass@@@std@@V?$allocator@U?$pair@$$CBMPAVFlightClass@@@std@@@2@@std@@@std@@QAEPAU?$_Tree_node@U?$pair@$$CBMPAVFlightClass@@@std@@PAX@2@XZ
	DD	01H
	DD	FLAT:__tryblocktable$?_Buyheadnode@?$_Tree_alloc@$0A@U?$_Tree_base_types@U?$pair@$$CBMPAVFlightClass@@@std@@V?$allocator@U?$pair@$$CBMPAVFlightClass@@@std@@@2@@std@@@std@@QAEPAU?$_Tree_node@U?$pair@$$CBMPAVFlightClass@@@std@@PAX@2@XZ
	DD	2 DUP(00H)
	DD	00H
	DD	01H
xdata$x	ENDS
xdata$x	SEGMENT
__unwindtable$??0FalconAWACSMessage@@QAE@EVVU_ID@@0@Z DD 0ffffffffH
	DD	FLAT:__unwindfunclet$??0FalconAWACSMessage@@QAE@EVVU_ID@@0@Z$0
__unwindtable$??0FalconAWACSMessage@@QAE@VVU_ID@@PAVVuTargetEntity@@E@Z DD 0ffffffffH
	DD	FLAT:__unwindfunclet$??0FalconAWACSMessage@@QAE@VVU_ID@@PAVVuTargetEntity@@E@Z$0
__ehfuncinfo$?Process@FalconAWACSMessage@@MAEHE@Z DD 019930522H
	DD	06H
	DD	FLAT:__unwindtable$?Process@FalconAWACSMessage@@MAEHE@Z
	DD	2 DUP(00H)
	DD	2 DUP(00H)
	DD	00H
	DD	01H
__ehfuncinfo$??0FalconAWACSMessage@@QAE@EVVU_ID@@0@Z DD 019930522H
	DD	01H
	DD	FLAT:__unwindtable$??0FalconAWACSMessage@@QAE@EVVU_ID@@0@Z
	DD	2 DUP(00H)
	DD	2 DUP(00H)
	DD	00H
	DD	01H
__ehfuncinfo$??0FalconAWACSMessage@@QAE@VVU_ID@@PAVVuTargetEntity@@E@Z DD 019930522H
	DD	01H
	DD	FLAT:__unwindtable$??0FalconAWACSMessage@@QAE@VVU_ID@@PAVVuTargetEntity@@E@Z
	DD	2 DUP(00H)
	DD	2 DUP(00H)
	DD	00H
	DD	01H
__unwindtable$?Process@FalconAWACSMessage@@MAEHE@Z DD 0ffffffffH
	DD	FLAT:__unwindfunclet$?Process@FalconAWACSMessage@@MAEHE@Z$0
	DD	0ffffffffH
	DD	FLAT:__unwindfunclet$?Process@FalconAWACSMessage@@MAEHE@Z$1
	DD	0ffffffffH
	DD	FLAT:__unwindfunclet$?Process@FalconAWACSMessage@@MAEHE@Z$2
	DD	0ffffffffH
	DD	FLAT:__unwindfunclet$?Process@FalconAWACSMessage@@MAEHE@Z$3
	DD	0ffffffffH
	DD	FLAT:__unwindfunclet$?Process@FalconAWACSMessage@@MAEHE@Z$4
	DD	0ffffffffH
	DD	FLAT:__unwindfunclet$?Process@FalconAWACSMessage@@MAEHE@Z$5
xdata$x	ENDS
;	COMDAT xdata$x
xdata$x	SEGMENT
__unwindtable$?memcpychk@@YAXPAXPAPAEIPAJ@Z DD 0ffffffffH
	DD	FLAT:__unwindfunclet$?memcpychk@@YAXPAXPAPAEIPAJ@Z$0
__ehfuncinfo$?memcpychk@@YAXPAXPAPAEIPAJ@Z DD 019930522H
	DD	01H
	DD	FLAT:__unwindtable$?memcpychk@@YAXPAXPAPAEIPAJ@Z
	DD	2 DUP(00H)
	DD	2 DUP(00H)
	DD	00H
	DD	01H
xdata$x	ENDS
;	COMDAT xdata$x
xdata$x	SEGMENT
__catchsym$?_Copy@?$basic_string@DU?$char_traits@D@std@@V?$allocator@D@2@@std@@QAEXII@Z$5 DD 040H
	DD	00H
	DD	00H
	DD	FLAT:__catch$?_Copy@?$basic_string@DU?$char_traits@D@std@@V?$allocator@D@2@@std@@QAEXII@Z$0
__catchsym$?_Copy@?$basic_string@DU?$char_traits@D@std@@V?$allocator@D@2@@std@@QAEXII@Z$4 DD 040H
	DD	00H
	DD	00H
	DD	FLAT:__catch$?_Copy@?$basic_string@DU?$char_traits@D@std@@V?$allocator@D@2@@std@@QAEXII@Z$1
__unwindtable$?_Copy@?$basic_string@DU?$char_traits@D@std@@V?$allocator@D@2@@std@@QAEXII@Z DD 0ffffffffH
	DD	00H
	DD	0ffffffffH
	DD	00H
	DD	01H
	DD	00H
	DD	01H
	DD	00H
__ehfuncinfo$?_Copy@?$basic_string@DU?$char_traits@D@std@@V?$allocator@D@2@@std@@QAEXII@Z DD 019930522H
	DD	04H
	DD	FLAT:__unwindtable$?_Copy@?$basic_string@DU?$char_traits@D@std@@V?$allocator@D@2@@std@@QAEXII@Z
	DD	02H
	DD	FLAT:__tryblocktable$?_Copy@?$basic_string@DU?$char_traits@D@std@@V?$allocator@D@2@@std@@QAEXII@Z
	DD	2 DUP(00H)
	DD	00H
	DD	01H
__tryblocktable$?_Copy@?$basic_string@DU?$char_traits@D@std@@V?$allocator@D@2@@std@@QAEXII@Z DD 02H
	DD	02H
	DD	03H
	DD	01H
	DD	FLAT:__catchsym$?_Copy@?$basic_string@DU?$char_traits@D@std@@V?$allocator@D@2@@std@@QAEXII@Z$4
	DD	00H
	DD	00H
	DD	03H
	DD	01H
	DD	FLAT:__catchsym$?_Copy@?$basic_string@DU?$char_traits@D@std@@V?$allocator@D@2@@std@@QAEXII@Z$5
xdata$x	ENDS
CRT$XCU	SEGMENT
_allocator_arg$initializer$ DD FLAT:??__Eallocator_arg@std@@YAXXZ
CRT$XCU	ENDS
; Function compile flags: /Odtp
; File c:\program files (x86)\microsoft visual studio 11.0\vc\include\xmemory0
;	COMDAT ??$construct@PAU?$_Tree_node@U?$pair@$$CBMPAVFlightClass@@@std@@PAX@std@@AAPAU12@@?$allocator@U?$_Tree_node@U?$pair@$$CBMPAVFlightClass@@@std@@PAX@std@@@std@@QAEXPAPAU?$_Tree_node@U?$pair@$$CBMPAVFlightClass@@@std@@PAX@1@AAPAU21@@Z
_TEXT	SEGMENT
$T2 = -28						; size = 4
_this$ = -24						; size = 4
tv73 = -20						; size = 4
$T3 = -16						; size = 4
__$EHRec$ = -12						; size = 12
__Ptr$ = 8						; size = 4
__V0$ = 12						; size = 4
??$construct@PAU?$_Tree_node@U?$pair@$$CBMPAVFlightClass@@@std@@PAX@std@@AAPAU12@@?$allocator@U?$_Tree_node@U?$pair@$$CBMPAVFlightClass@@@std@@PAX@std@@@std@@QAEXPAPAU?$_Tree_node@U?$pair@$$CBMPAVFlightClass@@@std@@PAX@1@AAPAU21@@Z PROC ; std::allocator<std::_Tree_node<std::pair<float const ,FlightClass *>,void *> >::construct<std::_Tree_node<std::pair<float const ,FlightClass *>,void *> *,std::_Tree_node<std::pair<float const ,FlightClass *>,void *> * &>, COMDAT
; _this$ = ecx

; 617  : _VARIADIC_EXPAND_0X(_ALLOC_MEMBER_CONSTRUCT, , , , )

	push	ebp
	mov	ebp, esp
	push	-1
	push	__ehhandler$??$construct@PAU?$_Tree_node@U?$pair@$$CBMPAVFlightClass@@@std@@PAX@std@@AAPAU12@@?$allocator@U?$_Tree_node@U?$pair@$$CBMPAVFlightClass@@@std@@PAX@std@@@std@@QAEXPAPAU?$_Tree_node@U?$pair@$$CBMPAVFlightClass@@@std@@PAX@1@AAPAU21@@Z
	mov	eax, DWORD PTR fs:0
	push	eax
	sub	esp, 16					; 00000010H
	mov	eax, DWORD PTR ___security_cookie
	xor	eax, ebp
	push	eax
	lea	eax, DWORD PTR __$EHRec$[ebp]
	mov	DWORD PTR fs:0, eax
	mov	DWORD PTR _this$[ebp], ecx
	mov	eax, DWORD PTR __Ptr$[ebp]
	push	eax
	push	4
	call	??2@YAPAXIPAX@Z				; operator new
	add	esp, 8
	mov	DWORD PTR $T3[ebp], eax
	mov	DWORD PTR __$EHRec$[ebp+8], 0
	cmp	DWORD PTR $T3[ebp], 0
	je	SHORT $LN3@construct
	mov	ecx, DWORD PTR __V0$[ebp]
	push	ecx
	call	??$forward@AAPAU?$_Tree_node@U?$pair@$$CBMPAVFlightClass@@@std@@PAX@std@@@std@@YAAAPAU?$_Tree_node@U?$pair@$$CBMPAVFlightClass@@@std@@PAX@0@AAPAU10@@Z ; std::forward<std::_Tree_node<std::pair<float const ,FlightClass *>,void *> * &>
	add	esp, 4
	mov	edx, DWORD PTR $T3[ebp]
	mov	eax, DWORD PTR [eax]
	mov	DWORD PTR [edx], eax
	mov	ecx, DWORD PTR $T3[ebp]
	mov	DWORD PTR tv73[ebp], ecx
	jmp	SHORT $LN4@construct
$LN3@construct:
	mov	DWORD PTR tv73[ebp], 0
$LN4@construct:
	mov	edx, DWORD PTR tv73[ebp]
	mov	DWORD PTR $T2[ebp], edx
	mov	DWORD PTR __$EHRec$[ebp+8], -1
	mov	ecx, DWORD PTR __$EHRec$[ebp]
	mov	DWORD PTR fs:0, ecx
	pop	ecx
	mov	esp, ebp
	pop	ebp
	ret	8
_TEXT	ENDS
;	COMDAT text$x
text$x	SEGMENT
__unwindfunclet$??$construct@PAU?$_Tree_node@U?$pair@$$CBMPAVFlightClass@@@std@@PAX@std@@AAPAU12@@?$allocator@U?$_Tree_node@U?$pair@$$CBMPAVFlightClass@@@std@@PAX@std@@@std@@QAEXPAPAU?$_Tree_node@U?$pair@$$CBMPAVFlightClass@@@std@@PAX@1@AAPAU21@@Z$0:
	mov	eax, DWORD PTR __Ptr$[ebp]
	push	eax
	mov	eax, DWORD PTR $T3[ebp]
	push	eax
	call	??3@YAXPAX0@Z				; operator delete
	add	esp, 8
	ret	0
__ehhandler$??$construct@PAU?$_Tree_node@U?$pair@$$CBMPAVFlightClass@@@std@@PAX@std@@AAPAU12@@?$allocator@U?$_Tree_node@U?$pair@$$CBMPAVFlightClass@@@std@@PAX@std@@@std@@QAEXPAPAU?$_Tree_node@U?$pair@$$CBMPAVFlightClass@@@std@@PAX@1@AAPAU21@@Z:
	mov	edx, DWORD PTR [esp+8]
	lea	eax, DWORD PTR [edx+12]
	mov	ecx, DWORD PTR [edx-20]
	xor	ecx, eax
	call	@__security_check_cookie@4
	mov	eax, OFFSET __ehfuncinfo$??$construct@PAU?$_Tree_node@U?$pair@$$CBMPAVFlightClass@@@std@@PAX@std@@AAPAU12@@?$allocator@U?$_Tree_node@U?$pair@$$CBMPAVFlightClass@@@std@@PAX@std@@@std@@QAEXPAPAU?$_Tree_node@U?$pair@$$CBMPAVFlightClass@@@std@@PAX@1@AAPAU21@@Z
	jmp	___CxxFrameHandler3
text$x	ENDS
??$construct@PAU?$_Tree_node@U?$pair@$$CBMPAVFlightClass@@@std@@PAX@std@@AAPAU12@@?$allocator@U?$_Tree_node@U?$pair@$$CBMPAVFlightClass@@@std@@PAX@std@@@std@@QAEXPAPAU?$_Tree_node@U?$pair@$$CBMPAVFlightClass@@@std@@PAX@1@AAPAU21@@Z ENDP ; std::allocator<std::_Tree_node<std::pair<float const ,FlightClass *>,void *> >::construct<std::_Tree_node<std::pair<float const ,FlightClass *>,void *> *,std::_Tree_node<std::pair<float const ,FlightClass *>,void *> * &>
; Function compile flags: /Odtp
; File c:\program files (x86)\microsoft visual studio 11.0\vc\include\xmemory0
;	COMDAT ??$construct@PADAAPAD@?$allocator@D@std@@QAEXPAPADAAPAD@Z
_TEXT	SEGMENT
$T2 = -28						; size = 4
_this$ = -24						; size = 4
tv73 = -20						; size = 4
$T3 = -16						; size = 4
__$EHRec$ = -12						; size = 12
__Ptr$ = 8						; size = 4
__V0$ = 12						; size = 4
??$construct@PADAAPAD@?$allocator@D@std@@QAEXPAPADAAPAD@Z PROC ; std::allocator<char>::construct<char *,char * &>, COMDAT
; _this$ = ecx

; 617  : _VARIADIC_EXPAND_0X(_ALLOC_MEMBER_CONSTRUCT, , , , )

	push	ebp
	mov	ebp, esp
	push	-1
	push	__ehhandler$??$construct@PADAAPAD@?$allocator@D@std@@QAEXPAPADAAPAD@Z
	mov	eax, DWORD PTR fs:0
	push	eax
	sub	esp, 16					; 00000010H
	mov	eax, DWORD PTR ___security_cookie
	xor	eax, ebp
	push	eax
	lea	eax, DWORD PTR __$EHRec$[ebp]
	mov	DWORD PTR fs:0, eax
	mov	DWORD PTR _this$[ebp], ecx
	mov	eax, DWORD PTR __Ptr$[ebp]
	push	eax
	push	4
	call	??2@YAPAXIPAX@Z				; operator new
	add	esp, 8
	mov	DWORD PTR $T3[ebp], eax
	mov	DWORD PTR __$EHRec$[ebp+8], 0
	cmp	DWORD PTR $T3[ebp], 0
	je	SHORT $LN3@construct
	mov	ecx, DWORD PTR __V0$[ebp]
	push	ecx
	call	??$forward@AAPAD@std@@YAAAPADAAPAD@Z	; std::forward<char * &>
	add	esp, 4
	mov	edx, DWORD PTR $T3[ebp]
	mov	eax, DWORD PTR [eax]
	mov	DWORD PTR [edx], eax
	mov	ecx, DWORD PTR $T3[ebp]
	mov	DWORD PTR tv73[ebp], ecx
	jmp	SHORT $LN4@construct
$LN3@construct:
	mov	DWORD PTR tv73[ebp], 0
$LN4@construct:
	mov	edx, DWORD PTR tv73[ebp]
	mov	DWORD PTR $T2[ebp], edx
	mov	DWORD PTR __$EHRec$[ebp+8], -1
	mov	ecx, DWORD PTR __$EHRec$[ebp]
	mov	DWORD PTR fs:0, ecx
	pop	ecx
	mov	esp, ebp
	pop	ebp
	ret	8
_TEXT	ENDS
;	COMDAT text$x
text$x	SEGMENT
__unwindfunclet$??$construct@PADAAPAD@?$allocator@D@std@@QAEXPAPADAAPAD@Z$0:
	mov	eax, DWORD PTR __Ptr$[ebp]
	push	eax
	mov	eax, DWORD PTR $T3[ebp]
	push	eax
	call	??3@YAXPAX0@Z				; operator delete
	add	esp, 8
	ret	0
__ehhandler$??$construct@PADAAPAD@?$allocator@D@std@@QAEXPAPADAAPAD@Z:
	mov	edx, DWORD PTR [esp+8]
	lea	eax, DWORD PTR [edx+12]
	mov	ecx, DWORD PTR [edx-20]
	xor	ecx, eax
	call	@__security_check_cookie@4
	mov	eax, OFFSET __ehfuncinfo$??$construct@PADAAPAD@?$allocator@D@std@@QAEXPAPADAAPAD@Z
	jmp	___CxxFrameHandler3
text$x	ENDS
??$construct@PADAAPAD@?$allocator@D@std@@QAEXPAPADAAPAD@Z ENDP ; std::allocator<char>::construct<char *,char * &>
; Function compile flags: /Odtp
; File c:\program files (x86)\microsoft visual studio 11.0\vc\include\xmemory0
;	COMDAT ??$destroy@U?$pair@$$CBMPAVFlightClass@@@std@@@?$allocator@U?$_Tree_node@U?$pair@$$CBMPAVFlightClass@@@std@@PAX@std@@@std@@QAEXPAU?$pair@$$CBMPAVFlightClass@@@1@@Z
_TEXT	SEGMENT
_this$ = -4						; size = 4
__Ptr$ = 8						; size = 4
??$destroy@U?$pair@$$CBMPAVFlightClass@@@std@@@?$allocator@U?$_Tree_node@U?$pair@$$CBMPAVFlightClass@@@std@@PAX@std@@@std@@QAEXPAU?$pair@$$CBMPAVFlightClass@@@1@@Z PROC ; std::allocator<std::_Tree_node<std::pair<float const ,FlightClass *>,void *> >::destroy<std::pair<float const ,FlightClass *> >, COMDAT
; _this$ = ecx

; 621  : 		void destroy(_Uty *_Ptr)

	push	ebp
	mov	ebp, esp
	push	ecx
	mov	DWORD PTR _this$[ebp], ecx

; 622  : 		{	// destroy object at _Ptr
; 623  : 		_Ptr->~_Uty();
; 624  : 		}

	mov	esp, ebp
	pop	ebp
	ret	4
??$destroy@U?$pair@$$CBMPAVFlightClass@@@std@@@?$allocator@U?$_Tree_node@U?$pair@$$CBMPAVFlightClass@@@std@@PAX@std@@@std@@QAEXPAU?$pair@$$CBMPAVFlightClass@@@1@@Z ENDP ; std::allocator<std::_Tree_node<std::pair<float const ,FlightClass *>,void *> >::destroy<std::pair<float const ,FlightClass *> >
_TEXT	ENDS
; Function compile flags: /Odtp
; File c:\program files (x86)\microsoft visual studio 11.0\vc\include\xmemory0
;	COMDAT ??$destroy@PAU?$_Tree_node@U?$pair@$$CBMPAVFlightClass@@@std@@PAX@std@@@?$allocator@U?$_Tree_node@U?$pair@$$CBMPAVFlightClass@@@std@@PAX@std@@@std@@QAEXPAPAU?$_Tree_node@U?$pair@$$CBMPAVFlightClass@@@std@@PAX@1@@Z
_TEXT	SEGMENT
_this$ = -4						; size = 4
__Ptr$ = 8						; size = 4
??$destroy@PAU?$_Tree_node@U?$pair@$$CBMPAVFlightClass@@@std@@PAX@std@@@?$allocator@U?$_Tree_node@U?$pair@$$CBMPAVFlightClass@@@std@@PAX@std@@@std@@QAEXPAPAU?$_Tree_node@U?$pair@$$CBMPAVFlightClass@@@std@@PAX@1@@Z PROC ; std::allocator<std::_Tree_node<std::pair<float const ,FlightClass *>,void *> >::destroy<std::_Tree_node<std::pair<float const ,FlightClass *>,void *> *>, COMDAT
; _this$ = ecx

; 621  : 		void destroy(_Uty *_Ptr)

	push	ebp
	mov	ebp, esp
	push	ecx
	mov	DWORD PTR _this$[ebp], ecx

; 622  : 		{	// destroy object at _Ptr
; 623  : 		_Ptr->~_Uty();
; 624  : 		}

	mov	esp, ebp
	pop	ebp
	ret	4
??$destroy@PAU?$_Tree_node@U?$pair@$$CBMPAVFlightClass@@@std@@PAX@std@@@?$allocator@U?$_Tree_node@U?$pair@$$CBMPAVFlightClass@@@std@@PAX@std@@@std@@QAEXPAPAU?$_Tree_node@U?$pair@$$CBMPAVFlightClass@@@std@@PAX@1@@Z ENDP ; std::allocator<std::_Tree_node<std::pair<float const ,FlightClass *>,void *> >::destroy<std::_Tree_node<std::pair<float const ,FlightClass *>,void *> *>
_TEXT	ENDS
; Function compile flags: /Odtp
; File c:\program files (x86)\microsoft visual studio 11.0\vc\include\xmemory0
;	COMDAT ??$destroy@PAD@?$allocator@D@std@@QAEXPAPAD@Z
_TEXT	SEGMENT
_this$ = -4						; size = 4
__Ptr$ = 8						; size = 4
??$destroy@PAD@?$allocator@D@std@@QAEXPAPAD@Z PROC	; std::allocator<char>::destroy<char *>, COMDAT
; _this$ = ecx

; 621  : 		void destroy(_Uty *_Ptr)

	push	ebp
	mov	ebp, esp
	push	ecx
	mov	DWORD PTR _this$[ebp], ecx

; 622  : 		{	// destroy object at _Ptr
; 623  : 		_Ptr->~_Uty();
; 624  : 		}

	mov	esp, ebp
	pop	ebp
	ret	4
??$destroy@PAD@?$allocator@D@std@@QAEXPAPAD@Z ENDP	; std::allocator<char>::destroy<char *>
_TEXT	ENDS
; Function compile flags: /Odtp
; File c:\program files (x86)\microsoft visual studio 11.0\vc\include\xmemory0
;	COMDAT ??$construct@PAU?$_Tree_node@U?$pair@$$CBMPAVFlightClass@@@std@@PAX@std@@AAPAU12@@?$allocator_traits@V?$allocator@U?$_Tree_node@U?$pair@$$CBMPAVFlightClass@@@std@@PAX@std@@@std@@@std@@SAXAAV?$allocator@U?$_Tree_node@U?$pair@$$CBMPAVFlightClass@@@std@@PAX@std@@@1@PAPAU?$_Tree_node@U?$pair@$$CBMPAVFlightClass@@@std@@PAX@1@AAPAU31@@Z
_TEXT	SEGMENT
__Al$ = 8						; size = 4
__Ptr$ = 12						; size = 4
__V0$ = 16						; size = 4
??$construct@PAU?$_Tree_node@U?$pair@$$CBMPAVFlightClass@@@std@@PAX@std@@AAPAU12@@?$allocator_traits@V?$allocator@U?$_Tree_node@U?$pair@$$CBMPAVFlightClass@@@std@@PAX@std@@@std@@@std@@SAXAAV?$allocator@U?$_Tree_node@U?$pair@$$CBMPAVFlightClass@@@std@@PAX@std@@@1@PAPAU?$_Tree_node@U?$pair@$$CBMPAVFlightClass@@@std@@PAX@1@AAPAU31@@Z PROC ; std::allocator_traits<std::allocator<std::_Tree_node<std::pair<float const ,FlightClass *>,void *> > >::construct<std::_Tree_node<std::pair<float const ,FlightClass *>,void *> *,std::_Tree_node<std::pair<float const ,FlightClass *>,void *> * &>, COMDAT

; 751  : _VARIADIC_EXPAND_0X(_ALLOC_TRAITS_SPECIAL_CONSTRUCT, , , , )

	push	ebp
	mov	ebp, esp
	mov	eax, DWORD PTR __V0$[ebp]
	push	eax
	call	??$forward@AAPAU?$_Tree_node@U?$pair@$$CBMPAVFlightClass@@@std@@PAX@std@@@std@@YAAAPAU?$_Tree_node@U?$pair@$$CBMPAVFlightClass@@@std@@PAX@0@AAPAU10@@Z ; std::forward<std::_Tree_node<std::pair<float const ,FlightClass *>,void *> * &>
	add	esp, 4
	push	eax
	mov	ecx, DWORD PTR __Ptr$[ebp]
	push	ecx
	mov	ecx, DWORD PTR __Al$[ebp]
	call	??$construct@PAU?$_Tree_node@U?$pair@$$CBMPAVFlightClass@@@std@@PAX@std@@AAPAU12@@?$allocator@U?$_Tree_node@U?$pair@$$CBMPAVFlightClass@@@std@@PAX@std@@@std@@QAEXPAPAU?$_Tree_node@U?$pair@$$CBMPAVFlightClass@@@std@@PAX@1@AAPAU21@@Z ; std::allocator<std::_Tree_node<std::pair<float const ,FlightClass *>,void *> >::construct<std::_Tree_node<std::pair<float const ,FlightClass *>,void *> *,std::_Tree_node<std::pair<float const ,FlightClass *>,void *> * &>
	pop	ebp
	ret	0
??$construct@PAU?$_Tree_node@U?$pair@$$CBMPAVFlightClass@@@std@@PAX@std@@AAPAU12@@?$allocator_traits@V?$allocator@U?$_Tree_node@U?$pair@$$CBMPAVFlightClass@@@std@@PAX@std@@@std@@@std@@SAXAAV?$allocator@U?$_Tree_node@U?$pair@$$CBMPAVFlightClass@@@std@@PAX@std@@@1@PAPAU?$_Tree_node@U?$pair@$$CBMPAVFlightClass@@@std@@PAX@1@AAPAU31@@Z ENDP ; std::allocator_traits<std::allocator<std::_Tree_node<std::pair<float const ,FlightClass *>,void *> > >::construct<std::_Tree_node<std::pair<float const ,FlightClass *>,void *> *,std::_Tree_node<std::pair<float const ,FlightClass *>,void *> * &>
_TEXT	ENDS
; Function compile flags: /Odtp
; File c:\program files (x86)\microsoft visual studio 11.0\vc\include\type_traits
;	COMDAT ??$forward@AAPAU?$_Tree_node@U?$pair@$$CBMPAVFlightClass@@@std@@PAX@std@@@std@@YAAAPAU?$_Tree_node@U?$pair@$$CBMPAVFlightClass@@@std@@PAX@0@AAPAU10@@Z
_TEXT	SEGMENT
__Arg$ = 8						; size = 4
??$forward@AAPAU?$_Tree_node@U?$pair@$$CBMPAVFlightClass@@@std@@PAX@std@@@std@@YAAAPAU?$_Tree_node@U?$pair@$$CBMPAVFlightClass@@@std@@PAX@0@AAPAU10@@Z PROC ; std::forward<std::_Tree_node<std::pair<float const ,FlightClass *>,void *> * &>, COMDAT

; 1775 : 	{	// forward an lvalue

	push	ebp
	mov	ebp, esp

; 1776 : 	return (static_cast<_Ty&&>(_Arg));

	mov	eax, DWORD PTR __Arg$[ebp]

; 1777 : 	}

	pop	ebp
	ret	0
??$forward@AAPAU?$_Tree_node@U?$pair@$$CBMPAVFlightClass@@@std@@PAX@std@@@std@@YAAAPAU?$_Tree_node@U?$pair@$$CBMPAVFlightClass@@@std@@PAX@0@AAPAU10@@Z ENDP ; std::forward<std::_Tree_node<std::pair<float const ,FlightClass *>,void *> * &>
_TEXT	ENDS
; Function compile flags: /Odtp
; File c:\program files (x86)\microsoft visual studio 11.0\vc\include\xmemory0
;	COMDAT ??$construct@PADAAPAD@?$allocator_traits@V?$allocator@D@std@@@std@@SAXAAV?$allocator@D@1@PAPADAAPAD@Z
_TEXT	SEGMENT
__Al$ = 8						; size = 4
__Ptr$ = 12						; size = 4
__V0$ = 16						; size = 4
??$construct@PADAAPAD@?$allocator_traits@V?$allocator@D@std@@@std@@SAXAAV?$allocator@D@1@PAPADAAPAD@Z PROC ; std::allocator_traits<std::allocator<char> >::construct<char *,char * &>, COMDAT

; 751  : _VARIADIC_EXPAND_0X(_ALLOC_TRAITS_SPECIAL_CONSTRUCT, , , , )

	push	ebp
	mov	ebp, esp
	mov	eax, DWORD PTR __V0$[ebp]
	push	eax
	call	??$forward@AAPAD@std@@YAAAPADAAPAD@Z	; std::forward<char * &>
	add	esp, 4
	push	eax
	mov	ecx, DWORD PTR __Ptr$[ebp]
	push	ecx
	mov	ecx, DWORD PTR __Al$[ebp]
	call	??$construct@PADAAPAD@?$allocator@D@std@@QAEXPAPADAAPAD@Z ; std::allocator<char>::construct<char *,char * &>
	pop	ebp
	ret	0
??$construct@PADAAPAD@?$allocator_traits@V?$allocator@D@std@@@std@@SAXAAV?$allocator@D@1@PAPADAAPAD@Z ENDP ; std::allocator_traits<std::allocator<char> >::construct<char *,char * &>
_TEXT	ENDS
; Function compile flags: /Odtp
; File c:\program files (x86)\microsoft visual studio 11.0\vc\include\type_traits
;	COMDAT ??$forward@AAPAD@std@@YAAAPADAAPAD@Z
_TEXT	SEGMENT
__Arg$ = 8						; size = 4
??$forward@AAPAD@std@@YAAAPADAAPAD@Z PROC		; std::forward<char * &>, COMDAT

; 1775 : 	{	// forward an lvalue

	push	ebp
	mov	ebp, esp

; 1776 : 	return (static_cast<_Ty&&>(_Arg));

	mov	eax, DWORD PTR __Arg$[ebp]

; 1777 : 	}

	pop	ebp
	ret	0
??$forward@AAPAD@std@@YAAAPADAAPAD@Z ENDP		; std::forward<char * &>
_TEXT	ENDS
; Function compile flags: /Odtp
; File c:\program files (x86)\microsoft visual studio 11.0\vc\include\xmemory0
;	COMDAT ??$destroy@U?$pair@$$CBMPAVFlightClass@@@std@@@?$allocator_traits@V?$allocator@U?$_Tree_node@U?$pair@$$CBMPAVFlightClass@@@std@@PAX@std@@@std@@@std@@SAXAAV?$allocator@U?$_Tree_node@U?$pair@$$CBMPAVFlightClass@@@std@@PAX@std@@@1@PAU?$pair@$$CBMPAVFlightClass@@@1@@Z
_TEXT	SEGMENT
__Al$ = 8						; size = 4
__Ptr$ = 12						; size = 4
??$destroy@U?$pair@$$CBMPAVFlightClass@@@std@@@?$allocator_traits@V?$allocator@U?$_Tree_node@U?$pair@$$CBMPAVFlightClass@@@std@@PAX@std@@@std@@@std@@SAXAAV?$allocator@U?$_Tree_node@U?$pair@$$CBMPAVFlightClass@@@std@@PAX@std@@@1@PAU?$pair@$$CBMPAVFlightClass@@@1@@Z PROC ; std::allocator_traits<std::allocator<std::_Tree_node<std::pair<float const ,FlightClass *>,void *> > >::destroy<std::pair<float const ,FlightClass *> >, COMDAT

; 755  : 		static void destroy(_Alloc& _Al, _Uty *_Ptr)

	push	ebp
	mov	ebp, esp

; 756  : 		{	// destroy object at _Ptr
; 757  : 		_Al.destroy(_Ptr);

	mov	eax, DWORD PTR __Ptr$[ebp]
	push	eax
	mov	ecx, DWORD PTR __Al$[ebp]
	call	??$destroy@U?$pair@$$CBMPAVFlightClass@@@std@@@?$allocator@U?$_Tree_node@U?$pair@$$CBMPAVFlightClass@@@std@@PAX@std@@@std@@QAEXPAU?$pair@$$CBMPAVFlightClass@@@1@@Z ; std::allocator<std::_Tree_node<std::pair<float const ,FlightClass *>,void *> >::destroy<std::pair<float const ,FlightClass *> >

; 758  : 		}

	pop	ebp
	ret	0
??$destroy@U?$pair@$$CBMPAVFlightClass@@@std@@@?$allocator_traits@V?$allocator@U?$_Tree_node@U?$pair@$$CBMPAVFlightClass@@@std@@PAX@std@@@std@@@std@@SAXAAV?$allocator@U?$_Tree_node@U?$pair@$$CBMPAVFlightClass@@@std@@PAX@std@@@1@PAU?$pair@$$CBMPAVFlightClass@@@1@@Z ENDP ; std::allocator_traits<std::allocator<std::_Tree_node<std::pair<float const ,FlightClass *>,void *> > >::destroy<std::pair<float const ,FlightClass *> >
_TEXT	ENDS
; Function compile flags: /Odtp
; File c:\program files (x86)\microsoft visual studio 11.0\vc\include\type_traits
;	COMDAT ??$_Move@AAD@std@@YA$$QADAAD@Z
_TEXT	SEGMENT
__Arg$ = 8						; size = 4
??$_Move@AAD@std@@YA$$QADAAD@Z PROC			; std::_Move<char &>, COMDAT

; 1798 : 	{	// forward _Arg as movable

	push	ebp
	mov	ebp, esp

; 1799 : 	return ((typename remove_reference<_Ty>::type&&)_Arg);

	mov	eax, DWORD PTR __Arg$[ebp]

; 1800 : 	}

	pop	ebp
	ret	0
??$_Move@AAD@std@@YA$$QADAAD@Z ENDP			; std::_Move<char &>
_TEXT	ENDS
; Function compile flags: /Odtp
; File c:\program files (x86)\microsoft visual studio 11.0\vc\include\xmemory0
;	COMDAT ??$destroy@PAU?$_Tree_node@U?$pair@$$CBMPAVFlightClass@@@std@@PAX@std@@@?$allocator_traits@V?$allocator@U?$_Tree_node@U?$pair@$$CBMPAVFlightClass@@@std@@PAX@std@@@std@@@std@@SAXAAV?$allocator@U?$_Tree_node@U?$pair@$$CBMPAVFlightClass@@@std@@PAX@std@@@1@PAPAU?$_Tree_node@U?$pair@$$CBMPAVFlightClass@@@std@@PAX@1@@Z
_TEXT	SEGMENT
__Al$ = 8						; size = 4
__Ptr$ = 12						; size = 4
??$destroy@PAU?$_Tree_node@U?$pair@$$CBMPAVFlightClass@@@std@@PAX@std@@@?$allocator_traits@V?$allocator@U?$_Tree_node@U?$pair@$$CBMPAVFlightClass@@@std@@PAX@std@@@std@@@std@@SAXAAV?$allocator@U?$_Tree_node@U?$pair@$$CBMPAVFlightClass@@@std@@PAX@std@@@1@PAPAU?$_Tree_node@U?$pair@$$CBMPAVFlightClass@@@std@@PAX@1@@Z PROC ; std::allocator_traits<std::allocator<std::_Tree_node<std::pair<float const ,FlightClass *>,void *> > >::destroy<std::_Tree_node<std::pair<float const ,FlightClass *>,void *> *>, COMDAT

; 755  : 		static void destroy(_Alloc& _Al, _Uty *_Ptr)

	push	ebp
	mov	ebp, esp

; 756  : 		{	// destroy object at _Ptr
; 757  : 		_Al.destroy(_Ptr);

	mov	eax, DWORD PTR __Ptr$[ebp]
	push	eax
	mov	ecx, DWORD PTR __Al$[ebp]
	call	??$destroy@PAU?$_Tree_node@U?$pair@$$CBMPAVFlightClass@@@std@@PAX@std@@@?$allocator@U?$_Tree_node@U?$pair@$$CBMPAVFlightClass@@@std@@PAX@std@@@std@@QAEXPAPAU?$_Tree_node@U?$pair@$$CBMPAVFlightClass@@@std@@PAX@1@@Z ; std::allocator<std::_Tree_node<std::pair<float const ,FlightClass *>,void *> >::destroy<std::_Tree_node<std::pair<float const ,FlightClass *>,void *> *>

; 758  : 		}

	pop	ebp
	ret	0
??$destroy@PAU?$_Tree_node@U?$pair@$$CBMPAVFlightClass@@@std@@PAX@std@@@?$allocator_traits@V?$allocator@U?$_Tree_node@U?$pair@$$CBMPAVFlightClass@@@std@@PAX@std@@@std@@@std@@SAXAAV?$allocator@U?$_Tree_node@U?$pair@$$CBMPAVFlightClass@@@std@@PAX@std@@@1@PAPAU?$_Tree_node@U?$pair@$$CBMPAVFlightClass@@@std@@PAX@1@@Z ENDP ; std::allocator_traits<std::allocator<std::_Tree_node<std::pair<float const ,FlightClass *>,void *> > >::destroy<std::_Tree_node<std::pair<float const ,FlightClass *>,void *> *>
_TEXT	ENDS
; Function compile flags: /Odtp
; File c:\program files (x86)\microsoft visual studio 11.0\vc\include\xmemory0
;	COMDAT ??$destroy@PAD@?$allocator_traits@V?$allocator@D@std@@@std@@SAXAAV?$allocator@D@1@PAPAD@Z
_TEXT	SEGMENT
__Al$ = 8						; size = 4
__Ptr$ = 12						; size = 4
??$destroy@PAD@?$allocator_traits@V?$allocator@D@std@@@std@@SAXAAV?$allocator@D@1@PAPAD@Z PROC ; std::allocator_traits<std::allocator<char> >::destroy<char *>, COMDAT

; 755  : 		static void destroy(_Alloc& _Al, _Uty *_Ptr)

	push	ebp
	mov	ebp, esp

; 756  : 		{	// destroy object at _Ptr
; 757  : 		_Al.destroy(_Ptr);

	mov	eax, DWORD PTR __Ptr$[ebp]
	push	eax
	mov	ecx, DWORD PTR __Al$[ebp]
	call	??$destroy@PAD@?$allocator@D@std@@QAEXPAPAD@Z ; std::allocator<char>::destroy<char *>

; 758  : 		}

	pop	ebp
	ret	0
??$destroy@PAD@?$allocator_traits@V?$allocator@D@std@@@std@@SAXAAV?$allocator@D@1@PAPAD@Z ENDP ; std::allocator_traits<std::allocator<char> >::destroy<char *>
_TEXT	ENDS
; Function compile flags: /Odtp
; File c:\program files (x86)\microsoft visual studio 11.0\vc\include\xmemory0
;	COMDAT ??$_Allocate@U?$_Tree_node@U?$pair@$$CBMPAVFlightClass@@@std@@PAX@std@@@std@@YAPAU?$_Tree_node@U?$pair@$$CBMPAVFlightClass@@@std@@PAX@0@IPAU10@@Z
_TEXT	SEGMENT
__Ptr$ = -4						; size = 4
__Count$ = 8						; size = 4
___formal$ = 12						; size = 4
??$_Allocate@U?$_Tree_node@U?$pair@$$CBMPAVFlightClass@@@std@@PAX@std@@@std@@YAPAU?$_Tree_node@U?$pair@$$CBMPAVFlightClass@@@std@@PAX@0@IPAU10@@Z PROC ; std::_Allocate<std::_Tree_node<std::pair<float const ,FlightClass *>,void *> >, COMDAT

; 22   : 	{	// allocate storage for _Count elements of type _Ty

	push	ebp
	mov	ebp, esp
	push	ecx

; 23   : 	void *_Ptr = 0;

	mov	DWORD PTR __Ptr$[ebp], 0

; 24   : 
; 25   : 	if (_Count == 0)

	cmp	DWORD PTR __Count$[ebp], 0
	jne	SHORT $LN4@Allocate

; 26   : 		;
; 27   : 	else if (((size_t)(-1) / sizeof (_Ty) < _Count)

	jmp	SHORT $LN3@Allocate
$LN4@Allocate:

; 28   : 		|| (_Ptr = ::operator new(_Count * sizeof (_Ty))) == 0)

	cmp	DWORD PTR __Count$[ebp], 178956970	; 0aaaaaaaH
	ja	SHORT $LN1@Allocate
	mov	eax, DWORD PTR __Count$[ebp]
	imul	eax, 24					; 00000018H
	push	eax
	call	??2@YAPAXI@Z				; operator new
	add	esp, 4
	mov	DWORD PTR __Ptr$[ebp], eax
	cmp	DWORD PTR __Ptr$[ebp], 0
	jne	SHORT $LN3@Allocate
$LN1@Allocate:

; 29   : 		_Xbad_alloc();	// report no memory

	call	?_Xbad_alloc@std@@YAXXZ			; std::_Xbad_alloc
$LN3@Allocate:

; 30   : 
; 31   : 	return ((_Ty *)_Ptr);

	mov	eax, DWORD PTR __Ptr$[ebp]
$LN6@Allocate:

; 32   : 	}

	mov	esp, ebp
	pop	ebp
	ret	0
??$_Allocate@U?$_Tree_node@U?$pair@$$CBMPAVFlightClass@@@std@@PAX@std@@@std@@YAPAU?$_Tree_node@U?$pair@$$CBMPAVFlightClass@@@std@@PAX@0@IPAU10@@Z ENDP ; std::_Allocate<std::_Tree_node<std::pair<float const ,FlightClass *>,void *> >
_TEXT	ENDS
; Function compile flags: /Odtp
; File c:\program files (x86)\microsoft visual studio 11.0\vc\include\xmemory0
;	COMDAT ??$_Allocate@D@std@@YAPADIPAD@Z
_TEXT	SEGMENT
__Ptr$ = -4						; size = 4
__Count$ = 8						; size = 4
___formal$ = 12						; size = 4
??$_Allocate@D@std@@YAPADIPAD@Z PROC			; std::_Allocate<char>, COMDAT

; 22   : 	{	// allocate storage for _Count elements of type _Ty

	push	ebp
	mov	ebp, esp
	push	ecx

; 23   : 	void *_Ptr = 0;

	mov	DWORD PTR __Ptr$[ebp], 0

; 24   : 
; 25   : 	if (_Count == 0)

	cmp	DWORD PTR __Count$[ebp], 0
	jne	SHORT $LN4@Allocate

; 26   : 		;
; 27   : 	else if (((size_t)(-1) / sizeof (_Ty) < _Count)

	jmp	SHORT $LN3@Allocate
$LN4@Allocate:

; 28   : 		|| (_Ptr = ::operator new(_Count * sizeof (_Ty))) == 0)

	cmp	DWORD PTR __Count$[ebp], -1
	ja	SHORT $LN1@Allocate
	mov	eax, DWORD PTR __Count$[ebp]
	push	eax
	call	??2@YAPAXI@Z				; operator new
	add	esp, 4
	mov	DWORD PTR __Ptr$[ebp], eax
	cmp	DWORD PTR __Ptr$[ebp], 0
	jne	SHORT $LN3@Allocate
$LN1@Allocate:

; 29   : 		_Xbad_alloc();	// report no memory

	call	?_Xbad_alloc@std@@YAXXZ			; std::_Xbad_alloc
$LN3@Allocate:

; 30   : 
; 31   : 	return ((_Ty *)_Ptr);

	mov	eax, DWORD PTR __Ptr$[ebp]
$LN6@Allocate:

; 32   : 	}

	mov	esp, ebp
	pop	ebp
	ret	0
??$_Allocate@D@std@@YAPADIPAD@Z ENDP			; std::_Allocate<char>
_TEXT	ENDS
; Function compile flags: /Odtp
; File c:\program files (x86)\microsoft visual studio 11.0\vc\include\xmemory0
;	COMDAT ??$construct@PAU?$_Tree_node@U?$pair@$$CBMPAVFlightClass@@@std@@PAX@std@@AAPAU12@@?$_Wrap_alloc@V?$allocator@U?$_Tree_node@U?$pair@$$CBMPAVFlightClass@@@std@@PAX@std@@@std@@@std@@QAEXPAPAU?$_Tree_node@U?$pair@$$CBMPAVFlightClass@@@std@@PAX@1@AAPAU21@@Z
_TEXT	SEGMENT
_this$ = -4						; size = 4
__Ptr$ = 8						; size = 4
__V0$ = 12						; size = 4
??$construct@PAU?$_Tree_node@U?$pair@$$CBMPAVFlightClass@@@std@@PAX@std@@AAPAU12@@?$_Wrap_alloc@V?$allocator@U?$_Tree_node@U?$pair@$$CBMPAVFlightClass@@@std@@PAX@std@@@std@@@std@@QAEXPAPAU?$_Tree_node@U?$pair@$$CBMPAVFlightClass@@@std@@PAX@1@AAPAU21@@Z PROC ; std::_Wrap_alloc<std::allocator<std::_Tree_node<std::pair<float const ,FlightClass *>,void *> > >::construct<std::_Tree_node<std::pair<float const ,FlightClass *>,void *> *,std::_Tree_node<std::pair<float const ,FlightClass *>,void *> * &>, COMDAT
; _this$ = ecx

; 903  : _VARIADIC_EXPAND_0X(_WRAP_ALLOC_CONSTRUCT, , , , )

	push	ebp
	mov	ebp, esp
	push	ecx
	mov	DWORD PTR _this$[ebp], ecx
	mov	eax, DWORD PTR __V0$[ebp]
	push	eax
	call	??$forward@AAPAU?$_Tree_node@U?$pair@$$CBMPAVFlightClass@@@std@@PAX@std@@@std@@YAAAPAU?$_Tree_node@U?$pair@$$CBMPAVFlightClass@@@std@@PAX@0@AAPAU10@@Z ; std::forward<std::_Tree_node<std::pair<float const ,FlightClass *>,void *> * &>
	add	esp, 4
	push	eax
	mov	ecx, DWORD PTR __Ptr$[ebp]
	push	ecx
	mov	edx, DWORD PTR _this$[ebp]
	push	edx
	call	??$construct@PAU?$_Tree_node@U?$pair@$$CBMPAVFlightClass@@@std@@PAX@std@@AAPAU12@@?$allocator_traits@V?$allocator@U?$_Tree_node@U?$pair@$$CBMPAVFlightClass@@@std@@PAX@std@@@std@@@std@@SAXAAV?$allocator@U?$_Tree_node@U?$pair@$$CBMPAVFlightClass@@@std@@PAX@std@@@1@PAPAU?$_Tree_node@U?$pair@$$CBMPAVFlightClass@@@std@@PAX@1@AAPAU31@@Z ; std::allocator_traits<std::allocator<std::_Tree_node<std::pair<float const ,FlightClass *>,void *> > >::construct<std::_Tree_node<std::pair<float const ,FlightClass *>,void *> *,std::_Tree_node<std::pair<float const ,FlightClass *>,void *> * &>
	add	esp, 12					; 0000000cH
	mov	esp, ebp
	pop	ebp
	ret	8
??$construct@PAU?$_Tree_node@U?$pair@$$CBMPAVFlightClass@@@std@@PAX@std@@AAPAU12@@?$_Wrap_alloc@V?$allocator@U?$_Tree_node@U?$pair@$$CBMPAVFlightClass@@@std@@PAX@std@@@std@@@std@@QAEXPAPAU?$_Tree_node@U?$pair@$$CBMPAVFlightClass@@@std@@PAX@1@AAPAU21@@Z ENDP ; std::_Wrap_alloc<std::allocator<std::_Tree_node<std::pair<float const ,FlightClass *>,void *> > >::construct<std::_Tree_node<std::pair<float const ,FlightClass *>,void *> *,std::_Tree_node<std::pair<float const ,FlightClass *>,void *> * &>
_TEXT	ENDS
; Function compile flags: /Odtp
; File c:\program files (x86)\microsoft visual studio 11.0\vc\include\xmemory0
;	COMDAT ??$construct@PADAAPAD@?$_Wrap_alloc@V?$allocator@D@std@@@std@@QAEXPAPADAAPAD@Z
_TEXT	SEGMENT
_this$ = -4						; size = 4
__Ptr$ = 8						; size = 4
__V0$ = 12						; size = 4
??$construct@PADAAPAD@?$_Wrap_alloc@V?$allocator@D@std@@@std@@QAEXPAPADAAPAD@Z PROC ; std::_Wrap_alloc<std::allocator<char> >::construct<char *,char * &>, COMDAT
; _this$ = ecx

; 903  : _VARIADIC_EXPAND_0X(_WRAP_ALLOC_CONSTRUCT, , , , )

	push	ebp
	mov	ebp, esp
	push	ecx
	mov	DWORD PTR _this$[ebp], ecx
	mov	eax, DWORD PTR __V0$[ebp]
	push	eax
	call	??$forward@AAPAD@std@@YAAAPADAAPAD@Z	; std::forward<char * &>
	add	esp, 4
	push	eax
	mov	ecx, DWORD PTR __Ptr$[ebp]
	push	ecx
	mov	edx, DWORD PTR _this$[ebp]
	push	edx
	call	??$construct@PADAAPAD@?$allocator_traits@V?$allocator@D@std@@@std@@SAXAAV?$allocator@D@1@PAPADAAPAD@Z ; std::allocator_traits<std::allocator<char> >::construct<char *,char * &>
	add	esp, 12					; 0000000cH
	mov	esp, ebp
	pop	ebp
	ret	8
??$construct@PADAAPAD@?$_Wrap_alloc@V?$allocator@D@std@@@std@@QAEXPAPADAAPAD@Z ENDP ; std::_Wrap_alloc<std::allocator<char> >::construct<char *,char * &>
_TEXT	ENDS
; Function compile flags: /Odtp
; File c:\program files (x86)\microsoft visual studio 11.0\vc\include\xmemory0
;	COMDAT ??$destroy@U?$pair@$$CBMPAVFlightClass@@@std@@@?$_Wrap_alloc@V?$allocator@U?$_Tree_node@U?$pair@$$CBMPAVFlightClass@@@std@@PAX@std@@@std@@@std@@QAEXPAU?$pair@$$CBMPAVFlightClass@@@1@@Z
_TEXT	SEGMENT
_this$ = -4						; size = 4
__Ptr$ = 8						; size = 4
??$destroy@U?$pair@$$CBMPAVFlightClass@@@std@@@?$_Wrap_alloc@V?$allocator@U?$_Tree_node@U?$pair@$$CBMPAVFlightClass@@@std@@PAX@std@@@std@@@std@@QAEXPAU?$pair@$$CBMPAVFlightClass@@@1@@Z PROC ; std::_Wrap_alloc<std::allocator<std::_Tree_node<std::pair<float const ,FlightClass *>,void *> > >::destroy<std::pair<float const ,FlightClass *> >, COMDAT
; _this$ = ecx

; 907  : 		void destroy(_Ty *_Ptr)

	push	ebp
	mov	ebp, esp
	push	ecx
	mov	DWORD PTR _this$[ebp], ecx

; 908  : 		{	// destroy object at _Ptr
; 909  : 		_Mytraits::destroy(*this, _Ptr);

	mov	eax, DWORD PTR __Ptr$[ebp]
	push	eax
	mov	ecx, DWORD PTR _this$[ebp]
	push	ecx
	call	??$destroy@U?$pair@$$CBMPAVFlightClass@@@std@@@?$allocator_traits@V?$allocator@U?$_Tree_node@U?$pair@$$CBMPAVFlightClass@@@std@@PAX@std@@@std@@@std@@SAXAAV?$allocator@U?$_Tree_node@U?$pair@$$CBMPAVFlightClass@@@std@@PAX@std@@@1@PAU?$pair@$$CBMPAVFlightClass@@@1@@Z ; std::allocator_traits<std::allocator<std::_Tree_node<std::pair<float const ,FlightClass *>,void *> > >::destroy<std::pair<float const ,FlightClass *> >
	add	esp, 8

; 910  : 		}

	mov	esp, ebp
	pop	ebp
	ret	4
??$destroy@U?$pair@$$CBMPAVFlightClass@@@std@@@?$_Wrap_alloc@V?$allocator@U?$_Tree_node@U?$pair@$$CBMPAVFlightClass@@@std@@PAX@std@@@std@@@std@@QAEXPAU?$pair@$$CBMPAVFlightClass@@@1@@Z ENDP ; std::_Wrap_alloc<std::allocator<std::_Tree_node<std::pair<float const ,FlightClass *>,void *> > >::destroy<std::pair<float const ,FlightClass *> >
_TEXT	ENDS
; Function compile flags: /Odtp
; File c:\program files (x86)\microsoft visual studio 11.0\vc\include\xstddef
;	COMDAT ??$addressof@U?$pair@$$CBMPAVFlightClass@@@std@@@std@@YAPAU?$pair@$$CBMPAVFlightClass@@@0@AAU10@@Z
_TEXT	SEGMENT
__Val$ = 8						; size = 4
??$addressof@U?$pair@$$CBMPAVFlightClass@@@std@@@std@@YAPAU?$pair@$$CBMPAVFlightClass@@@0@AAU10@@Z PROC ; std::addressof<std::pair<float const ,FlightClass *> >, COMDAT

; 85   : 	{	// return address of _Val

	push	ebp
	mov	ebp, esp

; 86   : 	return (reinterpret_cast<_Ty *>(
; 87   : 		(&const_cast<char&>(
; 88   : 		reinterpret_cast<const volatile char&>(_Val)))));

	mov	eax, DWORD PTR __Val$[ebp]

; 89   : 	}

	pop	ebp
	ret	0
??$addressof@U?$pair@$$CBMPAVFlightClass@@@std@@@std@@YAPAU?$pair@$$CBMPAVFlightClass@@@0@AAU10@@Z ENDP ; std::addressof<std::pair<float const ,FlightClass *> >
_TEXT	ENDS
; Function compile flags: /Odtp
; File c:\program files (x86)\microsoft visual studio 11.0\vc\include\utility
;	COMDAT ??$swap@D@std@@YAXAAD0@Z
_TEXT	SEGMENT
__Tmp$ = -1						; size = 1
__Left$ = 8						; size = 4
__Right$ = 12						; size = 4
??$swap@D@std@@YAXAAD0@Z PROC				; std::swap<char>, COMDAT

; 46   : 	{	// exchange values stored at _Left and _Right

	push	ebp
	mov	ebp, esp
	push	ecx

; 47   : 	_Ty _Tmp = _Move(_Left);

	mov	eax, DWORD PTR __Left$[ebp]
	push	eax
	call	??$_Move@AAD@std@@YA$$QADAAD@Z		; std::_Move<char &>
	add	esp, 4
	mov	cl, BYTE PTR [eax]
	mov	BYTE PTR __Tmp$[ebp], cl

; 48   : 	_Left = _Move(_Right);

	mov	edx, DWORD PTR __Right$[ebp]
	push	edx
	call	??$_Move@AAD@std@@YA$$QADAAD@Z		; std::_Move<char &>
	add	esp, 4
	mov	ecx, DWORD PTR __Left$[ebp]
	mov	dl, BYTE PTR [eax]
	mov	BYTE PTR [ecx], dl

; 49   : 	_Right = _Move(_Tmp);

	lea	eax, DWORD PTR __Tmp$[ebp]
	push	eax
	call	??$_Move@AAD@std@@YA$$QADAAD@Z		; std::_Move<char &>
	add	esp, 4
	mov	ecx, DWORD PTR __Right$[ebp]
	mov	dl, BYTE PTR [eax]
	mov	BYTE PTR [ecx], dl

; 50   : 	}

	mov	esp, ebp
	pop	ebp
	ret	0
??$swap@D@std@@YAXAAD0@Z ENDP				; std::swap<char>
_TEXT	ENDS
; Function compile flags: /Odtp
; File c:\program files (x86)\microsoft visual studio 11.0\vc\include\xmemory0
;	COMDAT ??$destroy@PAU?$_Tree_node@U?$pair@$$CBMPAVFlightClass@@@std@@PAX@std@@@?$_Wrap_alloc@V?$allocator@U?$_Tree_node@U?$pair@$$CBMPAVFlightClass@@@std@@PAX@std@@@std@@@std@@QAEXPAPAU?$_Tree_node@U?$pair@$$CBMPAVFlightClass@@@std@@PAX@1@@Z
_TEXT	SEGMENT
_this$ = -4						; size = 4
__Ptr$ = 8						; size = 4
??$destroy@PAU?$_Tree_node@U?$pair@$$CBMPAVFlightClass@@@std@@PAX@std@@@?$_Wrap_alloc@V?$allocator@U?$_Tree_node@U?$pair@$$CBMPAVFlightClass@@@std@@PAX@std@@@std@@@std@@QAEXPAPAU?$_Tree_node@U?$pair@$$CBMPAVFlightClass@@@std@@PAX@1@@Z PROC ; std::_Wrap_alloc<std::allocator<std::_Tree_node<std::pair<float const ,FlightClass *>,void *> > >::destroy<std::_Tree_node<std::pair<float const ,FlightClass *>,void *> *>, COMDAT
; _this$ = ecx

; 907  : 		void destroy(_Ty *_Ptr)

	push	ebp
	mov	ebp, esp
	push	ecx
	mov	DWORD PTR _this$[ebp], ecx

; 908  : 		{	// destroy object at _Ptr
; 909  : 		_Mytraits::destroy(*this, _Ptr);

	mov	eax, DWORD PTR __Ptr$[ebp]
	push	eax
	mov	ecx, DWORD PTR _this$[ebp]
	push	ecx
	call	??$destroy@PAU?$_Tree_node@U?$pair@$$CBMPAVFlightClass@@@std@@PAX@std@@@?$allocator_traits@V?$allocator@U?$_Tree_node@U?$pair@$$CBMPAVFlightClass@@@std@@PAX@std@@@std@@@std@@SAXAAV?$allocator@U?$_Tree_node@U?$pair@$$CBMPAVFlightClass@@@std@@PAX@std@@@1@PAPAU?$_Tree_node@U?$pair@$$CBMPAVFlightClass@@@std@@PAX@1@@Z ; std::allocator_traits<std::allocator<std::_Tree_node<std::pair<float const ,FlightClass *>,void *> > >::destroy<std::_Tree_node<std::pair<float const ,FlightClass *>,void *> *>
	add	esp, 8

; 910  : 		}

	mov	esp, ebp
	pop	ebp
	ret	4
??$destroy@PAU?$_Tree_node@U?$pair@$$CBMPAVFlightClass@@@std@@PAX@std@@@?$_Wrap_alloc@V?$allocator@U?$_Tree_node@U?$pair@$$CBMPAVFlightClass@@@std@@PAX@std@@@std@@@std@@QAEXPAPAU?$_Tree_node@U?$pair@$$CBMPAVFlightClass@@@std@@PAX@1@@Z ENDP ; std::_Wrap_alloc<std::allocator<std::_Tree_node<std::pair<float const ,FlightClass *>,void *> > >::destroy<std::_Tree_node<std::pair<float const ,FlightClass *>,void *> *>
_TEXT	ENDS
; Function compile flags: /Odtp
; File c:\program files (x86)\microsoft visual studio 11.0\vc\include\xstddef
;	COMDAT ??$addressof@PAU?$_Tree_node@U?$pair@$$CBMPAVFlightClass@@@std@@PAX@std@@@std@@YAPAPAU?$_Tree_node@U?$pair@$$CBMPAVFlightClass@@@std@@PAX@0@AAPAU10@@Z
_TEXT	SEGMENT
__Val$ = 8						; size = 4
??$addressof@PAU?$_Tree_node@U?$pair@$$CBMPAVFlightClass@@@std@@PAX@std@@@std@@YAPAPAU?$_Tree_node@U?$pair@$$CBMPAVFlightClass@@@std@@PAX@0@AAPAU10@@Z PROC ; std::addressof<std::_Tree_node<std::pair<float const ,FlightClass *>,void *> *>, COMDAT

; 85   : 	{	// return address of _Val

	push	ebp
	mov	ebp, esp

; 86   : 	return (reinterpret_cast<_Ty *>(
; 87   : 		(&const_cast<char&>(
; 88   : 		reinterpret_cast<const volatile char&>(_Val)))));

	mov	eax, DWORD PTR __Val$[ebp]

; 89   : 	}

	pop	ebp
	ret	0
??$addressof@PAU?$_Tree_node@U?$pair@$$CBMPAVFlightClass@@@std@@PAX@std@@@std@@YAPAPAU?$_Tree_node@U?$pair@$$CBMPAVFlightClass@@@std@@PAX@0@AAPAU10@@Z ENDP ; std::addressof<std::_Tree_node<std::pair<float const ,FlightClass *>,void *> *>
_TEXT	ENDS
; Function compile flags: /Odtp
; File c:\program files (x86)\microsoft visual studio 11.0\vc\include\xstddef
;	COMDAT ??$addressof@D@std@@YAPADAAD@Z
_TEXT	SEGMENT
__Val$ = 8						; size = 4
??$addressof@D@std@@YAPADAAD@Z PROC			; std::addressof<char>, COMDAT

; 85   : 	{	// return address of _Val

	push	ebp
	mov	ebp, esp

; 86   : 	return (reinterpret_cast<_Ty *>(
; 87   : 		(&const_cast<char&>(
; 88   : 		reinterpret_cast<const volatile char&>(_Val)))));

	mov	eax, DWORD PTR __Val$[ebp]

; 89   : 	}

	pop	ebp
	ret	0
??$addressof@D@std@@YAPADAAD@Z ENDP			; std::addressof<char>
_TEXT	ENDS
; Function compile flags: /Odtp
; File c:\program files (x86)\microsoft visual studio 11.0\vc\include\xmemory0
;	COMDAT ??$destroy@PAD@?$_Wrap_alloc@V?$allocator@D@std@@@std@@QAEXPAPAD@Z
_TEXT	SEGMENT
_this$ = -4						; size = 4
__Ptr$ = 8						; size = 4
??$destroy@PAD@?$_Wrap_alloc@V?$allocator@D@std@@@std@@QAEXPAPAD@Z PROC ; std::_Wrap_alloc<std::allocator<char> >::destroy<char *>, COMDAT
; _this$ = ecx

; 907  : 		void destroy(_Ty *_Ptr)

	push	ebp
	mov	ebp, esp
	push	ecx
	mov	DWORD PTR _this$[ebp], ecx

; 908  : 		{	// destroy object at _Ptr
; 909  : 		_Mytraits::destroy(*this, _Ptr);

	mov	eax, DWORD PTR __Ptr$[ebp]
	push	eax
	mov	ecx, DWORD PTR _this$[ebp]
	push	ecx
	call	??$destroy@PAD@?$allocator_traits@V?$allocator@D@std@@@std@@SAXAAV?$allocator@D@1@PAPAD@Z ; std::allocator_traits<std::allocator<char> >::destroy<char *>
	add	esp, 8

; 910  : 		}

	mov	esp, ebp
	pop	ebp
	ret	4
??$destroy@PAD@?$_Wrap_alloc@V?$allocator@D@std@@@std@@QAEXPAPAD@Z ENDP ; std::_Wrap_alloc<std::allocator<char> >::destroy<char *>
_TEXT	ENDS
; Function compile flags: /Odtp
; File c:\program files (x86)\microsoft visual studio 11.0\vc\include\xtree
;	COMDAT ??0?$_Tree_iterator@V?$_Tree_val@U?$_Tree_simple_types@U?$pair@$$CBMPAVFlightClass@@@std@@@std@@@std@@@std@@QAE@PAU?$_Tree_node@U?$pair@$$CBMPAVFlightClass@@@std@@PAX@1@PBV?$_Tree_val@U?$_Tree_simple_types@U?$pair@$$CBMPAVFlightClass@@@std@@@std@@@1@@Z
_TEXT	SEGMENT
_this$ = -4						; size = 4
__Pnode$ = 8						; size = 4
__Plist$ = 12						; size = 4
??0?$_Tree_iterator@V?$_Tree_val@U?$_Tree_simple_types@U?$pair@$$CBMPAVFlightClass@@@std@@@std@@@std@@@std@@QAE@PAU?$_Tree_node@U?$pair@$$CBMPAVFlightClass@@@std@@PAX@1@PBV?$_Tree_val@U?$_Tree_simple_types@U?$pair@$$CBMPAVFlightClass@@@std@@@std@@@1@@Z PROC ; std::_Tree_iterator<std::_Tree_val<std::_Tree_simple_types<std::pair<float const ,FlightClass *> > > >::_Tree_iterator<std::_Tree_val<std::_Tree_simple_types<std::pair<float const ,FlightClass *> > > >, COMDAT
; _this$ = ecx

; 384  : 		{	// construct with node pointer _Pnode

	push	ebp
	mov	ebp, esp
	push	ecx
	mov	DWORD PTR _this$[ebp], ecx
	mov	eax, DWORD PTR __Plist$[ebp]
	push	eax
	mov	ecx, DWORD PTR __Pnode$[ebp]
	push	ecx
	mov	ecx, DWORD PTR _this$[ebp]
	call	??0?$_Tree_const_iterator@V?$_Tree_val@U?$_Tree_simple_types@U?$pair@$$CBMPAVFlightClass@@@std@@@std@@@std@@@std@@QAE@PAU?$_Tree_node@U?$pair@$$CBMPAVFlightClass@@@std@@PAX@1@PBV?$_Tree_val@U?$_Tree_simple_types@U?$pair@$$CBMPAVFlightClass@@@std@@@std@@@1@@Z ; std::_Tree_const_iterator<std::_Tree_val<std::_Tree_simple_types<std::pair<float const ,FlightClass *> > > >::_Tree_const_iterator<std::_Tree_val<std::_Tree_simple_types<std::pair<float const ,FlightClass *> > > >

; 385  : 		}

	mov	eax, DWORD PTR _this$[ebp]
	mov	esp, ebp
	pop	ebp
	ret	8
??0?$_Tree_iterator@V?$_Tree_val@U?$_Tree_simple_types@U?$pair@$$CBMPAVFlightClass@@@std@@@std@@@std@@@std@@QAE@PAU?$_Tree_node@U?$pair@$$CBMPAVFlightClass@@@std@@PAX@1@PBV?$_Tree_val@U?$_Tree_simple_types@U?$pair@$$CBMPAVFlightClass@@@std@@@std@@@1@@Z ENDP ; std::_Tree_iterator<std::_Tree_val<std::_Tree_simple_types<std::pair<float const ,FlightClass *> > > >::_Tree_iterator<std::_Tree_val<std::_Tree_simple_types<std::pair<float const ,FlightClass *> > > >
_TEXT	ENDS
; Function compile flags: /Odtp
; File c:\program files (x86)\microsoft visual studio 11.0\vc\include\xtree
;	COMDAT ??9?$_Tree_const_iterator@V?$_Tree_val@U?$_Tree_simple_types@U?$pair@$$CBMPAVFlightClass@@@std@@@std@@@std@@@std@@QBE_NABV01@@Z
_TEXT	SEGMENT
_this$ = -8						; size = 4
tv69 = -4						; size = 4
__Right$ = 8						; size = 4
??9?$_Tree_const_iterator@V?$_Tree_val@U?$_Tree_simple_types@U?$pair@$$CBMPAVFlightClass@@@std@@@std@@@std@@@std@@QBE_NABV01@@Z PROC ; std::_Tree_const_iterator<std::_Tree_val<std::_Tree_simple_types<std::pair<float const ,FlightClass *> > > >::operator!=, COMDAT
; _this$ = ecx

; 340  : 		{	// test for iterator inequality

	push	ebp
	mov	ebp, esp
	sub	esp, 8
	mov	DWORD PTR _this$[ebp], ecx

; 341  : 		return (!(*this == _Right));

	mov	eax, DWORD PTR __Right$[ebp]
	push	eax
	mov	ecx, DWORD PTR _this$[ebp]
	call	??8?$_Tree_const_iterator@V?$_Tree_val@U?$_Tree_simple_types@U?$pair@$$CBMPAVFlightClass@@@std@@@std@@@std@@@std@@QBE_NABV01@@Z ; std::_Tree_const_iterator<std::_Tree_val<std::_Tree_simple_types<std::pair<float const ,FlightClass *> > > >::operator==
	movzx	ecx, al
	test	ecx, ecx
	jne	SHORT $LN3@operator
	mov	DWORD PTR tv69[ebp], 1
	jmp	SHORT $LN4@operator
$LN3@operator:
	mov	DWORD PTR tv69[ebp], 0
$LN4@operator:
	mov	al, BYTE PTR tv69[ebp]

; 342  : 		}

	mov	esp, ebp
	pop	ebp
	ret	4
??9?$_Tree_const_iterator@V?$_Tree_val@U?$_Tree_simple_types@U?$pair@$$CBMPAVFlightClass@@@std@@@std@@@std@@@std@@QBE_NABV01@@Z ENDP ; std::_Tree_const_iterator<std::_Tree_val<std::_Tree_simple_types<std::pair<float const ,FlightClass *> > > >::operator!=
_TEXT	ENDS
; Function compile flags: /Odtp
; File c:\program files (x86)\microsoft visual studio 11.0\vc\include\xtree
;	COMDAT ??8?$_Tree_const_iterator@V?$_Tree_val@U?$_Tree_simple_types@U?$pair@$$CBMPAVFlightClass@@@std@@@std@@@std@@@std@@QBE_NABV01@@Z
_TEXT	SEGMENT
_this$ = -8						; size = 4
tv75 = -4						; size = 4
__Right$ = 8						; size = 4
??8?$_Tree_const_iterator@V?$_Tree_val@U?$_Tree_simple_types@U?$pair@$$CBMPAVFlightClass@@@std@@@std@@@std@@@std@@QBE_NABV01@@Z PROC ; std::_Tree_const_iterator<std::_Tree_val<std::_Tree_simple_types<std::pair<float const ,FlightClass *> > > >::operator==, COMDAT
; _this$ = ecx

; 322  : 		{	// test for iterator equality

	push	ebp
	mov	ebp, esp
	sub	esp, 8
	mov	DWORD PTR _this$[ebp], ecx

; 323  :  #if _ITERATOR_DEBUG_LEVEL == 2
; 324  : 		if (this->_Getcont() == 0
; 325  : 			|| this->_Getcont() != _Right._Getcont())
; 326  : 			{	// report error
; 327  : 			_DEBUG_ERROR("map/set iterators incompatible");
; 328  : 			_SCL_SECURE_INVALID_ARGUMENT;
; 329  : 			}
; 330  : 
; 331  :  #elif _ITERATOR_DEBUG_LEVEL == 1
; 332  : 		_SCL_SECURE_VALIDATE(this->_Getcont() != 0
; 333  : 			&& this->_Getcont() == _Right._Getcont());
; 334  :  #endif /* _ITERATOR_DEBUG_LEVEL */
; 335  : 
; 336  : 		return (this->_Ptr == _Right._Ptr);

	mov	eax, DWORD PTR _this$[ebp]
	mov	ecx, DWORD PTR __Right$[ebp]
	mov	edx, DWORD PTR [eax]
	cmp	edx, DWORD PTR [ecx]
	jne	SHORT $LN3@operator
	mov	DWORD PTR tv75[ebp], 1
	jmp	SHORT $LN4@operator
$LN3@operator:
	mov	DWORD PTR tv75[ebp], 0
$LN4@operator:
	mov	al, BYTE PTR tv75[ebp]

; 337  : 		}

	mov	esp, ebp
	pop	ebp
	ret	4
??8?$_Tree_const_iterator@V?$_Tree_val@U?$_Tree_simple_types@U?$pair@$$CBMPAVFlightClass@@@std@@@std@@@std@@@std@@QBE_NABV01@@Z ENDP ; std::_Tree_const_iterator<std::_Tree_val<std::_Tree_simple_types<std::pair<float const ,FlightClass *> > > >::operator==
_TEXT	ENDS
; Function compile flags: /Odtp
; File c:\program files (x86)\microsoft visual studio 11.0\vc\include\xtree
;	COMDAT ??E?$_Tree_const_iterator@V?$_Tree_val@U?$_Tree_simple_types@U?$pair@$$CBMPAVFlightClass@@@std@@@std@@@std@@@std@@QAE?AV01@H@Z
_TEXT	SEGMENT
__Tmp$ = -8						; size = 4
_this$ = -4						; size = 4
___$ReturnUdt$ = 8					; size = 4
___formal$ = 12						; size = 4
??E?$_Tree_const_iterator@V?$_Tree_val@U?$_Tree_simple_types@U?$pair@$$CBMPAVFlightClass@@@std@@@std@@@std@@@std@@QAE?AV01@H@Z PROC ; std::_Tree_const_iterator<std::_Tree_val<std::_Tree_simple_types<std::pair<float const ,FlightClass *> > > >::operator++, COMDAT
; _this$ = ecx

; 276  : 		{	// postincrement

	push	ebp
	mov	ebp, esp
	sub	esp, 8
	mov	DWORD PTR _this$[ebp], ecx

; 277  : 		_Myiter _Tmp = *this;

	mov	eax, DWORD PTR _this$[ebp]
	mov	ecx, DWORD PTR [eax]
	mov	DWORD PTR __Tmp$[ebp], ecx

; 278  : 		++*this;

	mov	ecx, DWORD PTR _this$[ebp]
	call	??E?$_Tree_const_iterator@V?$_Tree_val@U?$_Tree_simple_types@U?$pair@$$CBMPAVFlightClass@@@std@@@std@@@std@@@std@@QAEAAV01@XZ ; std::_Tree_const_iterator<std::_Tree_val<std::_Tree_simple_types<std::pair<float const ,FlightClass *> > > >::operator++

; 279  : 		return (_Tmp);

	mov	edx, DWORD PTR ___$ReturnUdt$[ebp]
	mov	eax, DWORD PTR __Tmp$[ebp]
	mov	DWORD PTR [edx], eax
	mov	eax, DWORD PTR ___$ReturnUdt$[ebp]

; 280  : 		}

	mov	esp, ebp
	pop	ebp
	ret	8
??E?$_Tree_const_iterator@V?$_Tree_val@U?$_Tree_simple_types@U?$pair@$$CBMPAVFlightClass@@@std@@@std@@@std@@@std@@QAE?AV01@H@Z ENDP ; std::_Tree_const_iterator<std::_Tree_val<std::_Tree_simple_types<std::pair<float const ,FlightClass *> > > >::operator++
_TEXT	ENDS
; Function compile flags: /Odtp
; File c:\program files (x86)\microsoft visual studio 11.0\vc\include\xtree
;	COMDAT ??E?$_Tree_const_iterator@V?$_Tree_val@U?$_Tree_simple_types@U?$pair@$$CBMPAVFlightClass@@@std@@@std@@@std@@@std@@QAEAAV01@XZ
_TEXT	SEGMENT
_this$ = -4						; size = 4
??E?$_Tree_const_iterator@V?$_Tree_val@U?$_Tree_simple_types@U?$pair@$$CBMPAVFlightClass@@@std@@@std@@@std@@@std@@QAEAAV01@XZ PROC ; std::_Tree_const_iterator<std::_Tree_val<std::_Tree_simple_types<std::pair<float const ,FlightClass *> > > >::operator++, COMDAT
; _this$ = ecx

; 256  : 		{	// preincrement

	push	ebp
	mov	ebp, esp
	push	ecx
	mov	DWORD PTR _this$[ebp], ecx

; 257  :  #if _ITERATOR_DEBUG_LEVEL == 2
; 258  : 		if (this->_Getcont() == 0
; 259  : 			|| this->_Ptr == 0
; 260  : 			|| _Mytree::_Isnil(this->_Ptr))
; 261  : 			{	// report error
; 262  : 			_DEBUG_ERROR("map/set iterator not incrementable");
; 263  : 			_SCL_SECURE_OUT_OF_RANGE;
; 264  : 			}
; 265  : 
; 266  :  #elif _ITERATOR_DEBUG_LEVEL == 1
; 267  : 		_SCL_SECURE_VALIDATE(this->_Getcont() != 0 && this->_Ptr != 0);
; 268  : 		_SCL_SECURE_VALIDATE_RANGE(!_Mytree::_Isnil(this->_Ptr));
; 269  :  #endif /* _ITERATOR_DEBUG_LEVEL */
; 270  : 
; 271  : 		++(*(_Mybase *)this);

	mov	ecx, DWORD PTR _this$[ebp]
	call	??E?$_Tree_unchecked_const_iterator@V?$_Tree_val@U?$_Tree_simple_types@U?$pair@$$CBMPAVFlightClass@@@std@@@std@@@std@@U_Iterator_base0@2@@std@@QAEAAV01@XZ ; std::_Tree_unchecked_const_iterator<std::_Tree_val<std::_Tree_simple_types<std::pair<float const ,FlightClass *> > >,std::_Iterator_base0>::operator++

; 272  : 		return (*this);

	mov	eax, DWORD PTR _this$[ebp]

; 273  : 		}

	mov	esp, ebp
	pop	ebp
	ret	0
??E?$_Tree_const_iterator@V?$_Tree_val@U?$_Tree_simple_types@U?$pair@$$CBMPAVFlightClass@@@std@@@std@@@std@@@std@@QAEAAV01@XZ ENDP ; std::_Tree_const_iterator<std::_Tree_val<std::_Tree_simple_types<std::pair<float const ,FlightClass *> > > >::operator++
_TEXT	ENDS
; Function compile flags: /Odtp
; File c:\program files (x86)\microsoft visual studio 11.0\vc\include\xtree
;	COMDAT ??0?$_Tree_const_iterator@V?$_Tree_val@U?$_Tree_simple_types@U?$pair@$$CBMPAVFlightClass@@@std@@@std@@@std@@@std@@QAE@PAU?$_Tree_node@U?$pair@$$CBMPAVFlightClass@@@std@@PAX@1@PBV?$_Tree_val@U?$_Tree_simple_types@U?$pair@$$CBMPAVFlightClass@@@std@@@std@@@1@@Z
_TEXT	SEGMENT
_this$ = -4						; size = 4
__Pnode$ = 8						; size = 4
__Plist$ = 12						; size = 4
??0?$_Tree_const_iterator@V?$_Tree_val@U?$_Tree_simple_types@U?$pair@$$CBMPAVFlightClass@@@std@@@std@@@std@@@std@@QAE@PAU?$_Tree_node@U?$pair@$$CBMPAVFlightClass@@@std@@PAX@1@PBV?$_Tree_val@U?$_Tree_simple_types@U?$pair@$$CBMPAVFlightClass@@@std@@@std@@@1@@Z PROC ; std::_Tree_const_iterator<std::_Tree_val<std::_Tree_simple_types<std::pair<float const ,FlightClass *> > > >::_Tree_const_iterator<std::_Tree_val<std::_Tree_simple_types<std::pair<float const ,FlightClass *> > > >, COMDAT
; _this$ = ecx

; 214  : 		{	// construct with node pointer _Pnode

	push	ebp
	mov	ebp, esp
	push	ecx
	mov	DWORD PTR _this$[ebp], ecx
	mov	eax, DWORD PTR __Plist$[ebp]
	push	eax
	mov	ecx, DWORD PTR __Pnode$[ebp]
	push	ecx
	mov	ecx, DWORD PTR _this$[ebp]
	call	??0?$_Tree_unchecked_const_iterator@V?$_Tree_val@U?$_Tree_simple_types@U?$pair@$$CBMPAVFlightClass@@@std@@@std@@@std@@U_Iterator_base0@2@@std@@QAE@PAU?$_Tree_node@U?$pair@$$CBMPAVFlightClass@@@std@@PAX@1@PBV?$_Tree_val@U?$_Tree_simple_types@U?$pair@$$CBMPAVFlightClass@@@std@@@std@@@1@@Z ; std::_Tree_unchecked_const_iterator<std::_Tree_val<std::_Tree_simple_types<std::pair<float const ,FlightClass *> > >,std::_Iterator_base0>::_Tree_unchecked_const_iterator<std::_Tree_val<std::_Tree_simple_types<std::pair<float const ,FlightClass *> > >,std::_Iterator_base0>

; 215  : 		}

	mov	eax, DWORD PTR _this$[ebp]
	mov	esp, ebp
	pop	ebp
	ret	8
??0?$_Tree_const_iterator@V?$_Tree_val@U?$_Tree_simple_types@U?$pair@$$CBMPAVFlightClass@@@std@@@std@@@std@@@std@@QAE@PAU?$_Tree_node@U?$pair@$$CBMPAVFlightClass@@@std@@PAX@1@PBV?$_Tree_val@U?$_Tree_simple_types@U?$pair@$$CBMPAVFlightClass@@@std@@@std@@@1@@Z ENDP ; std::_Tree_const_iterator<std::_Tree_val<std::_Tree_simple_types<std::pair<float const ,FlightClass *> > > >::_Tree_const_iterator<std::_Tree_val<std::_Tree_simple_types<std::pair<float const ,FlightClass *> > > >
_TEXT	ENDS
; Function compile flags: /Odtp
; File c:\program files (x86)\microsoft visual studio 11.0\vc\include\xtree
;	COMDAT ?_Mynode@?$_Tree_unchecked_const_iterator@V?$_Tree_val@U?$_Tree_simple_types@U?$pair@$$CBMPAVFlightClass@@@std@@@std@@@std@@U_Iterator_base0@2@@std@@QBEPAU?$_Tree_node@U?$pair@$$CBMPAVFlightClass@@@std@@PAX@2@XZ
_TEXT	SEGMENT
_this$ = -4						; size = 4
?_Mynode@?$_Tree_unchecked_const_iterator@V?$_Tree_val@U?$_Tree_simple_types@U?$pair@$$CBMPAVFlightClass@@@std@@@std@@@std@@U_Iterator_base0@2@@std@@QBEPAU?$_Tree_node@U?$pair@$$CBMPAVFlightClass@@@std@@PAX@2@XZ PROC ; std::_Tree_unchecked_const_iterator<std::_Tree_val<std::_Tree_simple_types<std::pair<float const ,FlightClass *> > >,std::_Iterator_base0>::_Mynode, COMDAT
; _this$ = ecx

; 122  : 		{	// return node pointer

	push	ebp
	mov	ebp, esp
	push	ecx
	mov	DWORD PTR _this$[ebp], ecx

; 123  : 		return (_Ptr);

	mov	eax, DWORD PTR _this$[ebp]
	mov	eax, DWORD PTR [eax]

; 124  : 		}

	mov	esp, ebp
	pop	ebp
	ret	0
?_Mynode@?$_Tree_unchecked_const_iterator@V?$_Tree_val@U?$_Tree_simple_types@U?$pair@$$CBMPAVFlightClass@@@std@@@std@@@std@@U_Iterator_base0@2@@std@@QBEPAU?$_Tree_node@U?$pair@$$CBMPAVFlightClass@@@std@@PAX@2@XZ ENDP ; std::_Tree_unchecked_const_iterator<std::_Tree_val<std::_Tree_simple_types<std::pair<float const ,FlightClass *> > >,std::_Iterator_base0>::_Mynode
_TEXT	ENDS
; Function compile flags: /Odtp
; File c:\program files (x86)\microsoft visual studio 11.0\vc\include\xtree
;	COMDAT ??E?$_Tree_unchecked_const_iterator@V?$_Tree_val@U?$_Tree_simple_types@U?$pair@$$CBMPAVFlightClass@@@std@@@std@@@std@@U_Iterator_base0@2@@std@@QAEAAV01@XZ
_TEXT	SEGMENT
__Pnode$1 = -8						; size = 4
_this$ = -4						; size = 4
??E?$_Tree_unchecked_const_iterator@V?$_Tree_val@U?$_Tree_simple_types@U?$pair@$$CBMPAVFlightClass@@@std@@@std@@@std@@U_Iterator_base0@2@@std@@QAEAAV01@XZ PROC ; std::_Tree_unchecked_const_iterator<std::_Tree_val<std::_Tree_simple_types<std::pair<float const ,FlightClass *> > >,std::_Iterator_base0>::operator++, COMDAT
; _this$ = ecx

; 59   : 		{	// preincrement

	push	ebp
	mov	ebp, esp
	sub	esp, 8
	mov	DWORD PTR _this$[ebp], ecx

; 60   : 		if (_Mytree::_Isnil(_Ptr))

	mov	eax, DWORD PTR _this$[ebp]
	mov	ecx, DWORD PTR [eax]
	push	ecx
	call	?_Isnil@?$_Tree_val@U?$_Tree_simple_types@U?$pair@$$CBMPAVFlightClass@@@std@@@std@@@std@@SAAADPAU?$_Tree_node@U?$pair@$$CBMPAVFlightClass@@@std@@PAX@2@@Z ; std::_Tree_val<std::_Tree_simple_types<std::pair<float const ,FlightClass *> > >::_Isnil
	add	esp, 4
	movsx	edx, BYTE PTR [eax]
	test	edx, edx
	je	SHORT $LN6@operator
	jmp	$LN5@operator
$LN6@operator:

; 61   : 			;	// end() shouldn't be incremented, don't move
; 62   : 		else if (!_Mytree::_Isnil(_Mytree::_Right(_Ptr)))

	mov	eax, DWORD PTR _this$[ebp]
	mov	ecx, DWORD PTR [eax]
	push	ecx
	call	?_Right@?$_Tree_val@U?$_Tree_simple_types@U?$pair@$$CBMPAVFlightClass@@@std@@@std@@@std@@SAAAPAU?$_Tree_node@U?$pair@$$CBMPAVFlightClass@@@std@@PAX@2@PAU32@@Z ; std::_Tree_val<std::_Tree_simple_types<std::pair<float const ,FlightClass *> > >::_Right
	add	esp, 4
	mov	edx, DWORD PTR [eax]
	push	edx
	call	?_Isnil@?$_Tree_val@U?$_Tree_simple_types@U?$pair@$$CBMPAVFlightClass@@@std@@@std@@@std@@SAAADPAU?$_Tree_node@U?$pair@$$CBMPAVFlightClass@@@std@@PAX@2@@Z ; std::_Tree_val<std::_Tree_simple_types<std::pair<float const ,FlightClass *> > >::_Isnil
	add	esp, 4
	movsx	eax, BYTE PTR [eax]
	test	eax, eax
	jne	SHORT $LN2@operator

; 63   : 			_Ptr = _Mytree::_Min(
; 64   : 				_Mytree::_Right(_Ptr));	// ==> smallest of right subtree

	mov	ecx, DWORD PTR _this$[ebp]
	mov	edx, DWORD PTR [ecx]
	push	edx
	call	?_Right@?$_Tree_val@U?$_Tree_simple_types@U?$pair@$$CBMPAVFlightClass@@@std@@@std@@@std@@SAAAPAU?$_Tree_node@U?$pair@$$CBMPAVFlightClass@@@std@@PAX@2@PAU32@@Z ; std::_Tree_val<std::_Tree_simple_types<std::pair<float const ,FlightClass *> > >::_Right
	add	esp, 4
	mov	eax, DWORD PTR [eax]
	push	eax
	call	?_Min@?$_Tree_val@U?$_Tree_simple_types@U?$pair@$$CBMPAVFlightClass@@@std@@@std@@@std@@SAPAU?$_Tree_node@U?$pair@$$CBMPAVFlightClass@@@std@@PAX@2@PAU32@@Z ; std::_Tree_val<std::_Tree_simple_types<std::pair<float const ,FlightClass *> > >::_Min
	add	esp, 4
	mov	ecx, DWORD PTR _this$[ebp]
	mov	DWORD PTR [ecx], eax

; 65   : 		else

	jmp	SHORT $LN5@operator
$LN2@operator:

; 66   : 			{	// climb looking for right subtree
; 67   : 			_Nodeptr _Pnode;
; 68   : 			while (!_Mytree::_Isnil(_Pnode = _Mytree::_Parent(_Ptr))
; 69   : 				&& _Ptr == _Mytree::_Right(_Pnode))

	mov	edx, DWORD PTR _this$[ebp]
	mov	eax, DWORD PTR [edx]
	push	eax
	call	?_Parent@?$_Tree_val@U?$_Tree_simple_types@U?$pair@$$CBMPAVFlightClass@@@std@@@std@@@std@@SAAAPAU?$_Tree_node@U?$pair@$$CBMPAVFlightClass@@@std@@PAX@2@PAU32@@Z ; std::_Tree_val<std::_Tree_simple_types<std::pair<float const ,FlightClass *> > >::_Parent
	add	esp, 4
	mov	ecx, DWORD PTR [eax]
	mov	DWORD PTR __Pnode$1[ebp], ecx
	mov	edx, DWORD PTR __Pnode$1[ebp]
	push	edx
	call	?_Isnil@?$_Tree_val@U?$_Tree_simple_types@U?$pair@$$CBMPAVFlightClass@@@std@@@std@@@std@@SAAADPAU?$_Tree_node@U?$pair@$$CBMPAVFlightClass@@@std@@PAX@2@@Z ; std::_Tree_val<std::_Tree_simple_types<std::pair<float const ,FlightClass *> > >::_Isnil
	add	esp, 4
	movsx	eax, BYTE PTR [eax]
	test	eax, eax
	jne	SHORT $LN1@operator
	mov	ecx, DWORD PTR __Pnode$1[ebp]
	push	ecx
	call	?_Right@?$_Tree_val@U?$_Tree_simple_types@U?$pair@$$CBMPAVFlightClass@@@std@@@std@@@std@@SAAAPAU?$_Tree_node@U?$pair@$$CBMPAVFlightClass@@@std@@PAX@2@PAU32@@Z ; std::_Tree_val<std::_Tree_simple_types<std::pair<float const ,FlightClass *> > >::_Right
	add	esp, 4
	mov	edx, DWORD PTR _this$[ebp]
	mov	ecx, DWORD PTR [edx]
	cmp	ecx, DWORD PTR [eax]
	jne	SHORT $LN1@operator

; 70   : 				_Ptr = _Pnode;	// ==> parent while right subtree

	mov	edx, DWORD PTR _this$[ebp]
	mov	eax, DWORD PTR __Pnode$1[ebp]
	mov	DWORD PTR [edx], eax
	jmp	SHORT $LN2@operator
$LN1@operator:

; 71   : 			_Ptr = _Pnode;	// ==> parent (head if end())

	mov	ecx, DWORD PTR _this$[ebp]
	mov	edx, DWORD PTR __Pnode$1[ebp]
	mov	DWORD PTR [ecx], edx
$LN5@operator:

; 72   : 			}
; 73   : 		return (*this);

	mov	eax, DWORD PTR _this$[ebp]

; 74   : 		}

	mov	esp, ebp
	pop	ebp
	ret	0
??E?$_Tree_unchecked_const_iterator@V?$_Tree_val@U?$_Tree_simple_types@U?$pair@$$CBMPAVFlightClass@@@std@@@std@@@std@@U_Iterator_base0@2@@std@@QAEAAV01@XZ ENDP ; std::_Tree_unchecked_const_iterator<std::_Tree_val<std::_Tree_simple_types<std::pair<float const ,FlightClass *> > >,std::_Iterator_base0>::operator++
_TEXT	ENDS
; Function compile flags: /Odtp
; File c:\program files (x86)\microsoft visual studio 11.0\vc\include\xtree
;	COMDAT ??0?$_Tree_unchecked_const_iterator@V?$_Tree_val@U?$_Tree_simple_types@U?$pair@$$CBMPAVFlightClass@@@std@@@std@@@std@@U_Iterator_base0@2@@std@@QAE@PAU?$_Tree_node@U?$pair@$$CBMPAVFlightClass@@@std@@PAX@1@PBV?$_Tree_val@U?$_Tree_simple_types@U?$pair@$$CBMPAVFlightClass@@@std@@@std@@@1@@Z
_TEXT	SEGMENT
_this$ = -4						; size = 4
__Pnode$ = 8						; size = 4
__Plist$ = 12						; size = 4
??0?$_Tree_unchecked_const_iterator@V?$_Tree_val@U?$_Tree_simple_types@U?$pair@$$CBMPAVFlightClass@@@std@@@std@@@std@@U_Iterator_base0@2@@std@@QAE@PAU?$_Tree_node@U?$pair@$$CBMPAVFlightClass@@@std@@PAX@1@PBV?$_Tree_val@U?$_Tree_simple_types@U?$pair@$$CBMPAVFlightClass@@@std@@@std@@@1@@Z PROC ; std::_Tree_unchecked_const_iterator<std::_Tree_val<std::_Tree_simple_types<std::pair<float const ,FlightClass *> > >,std::_Iterator_base0>::_Tree_unchecked_const_iterator<std::_Tree_val<std::_Tree_simple_types<std::pair<float const ,FlightClass *> > >,std::_Iterator_base0>, COMDAT
; _this$ = ecx

; 44   : 		{	// construct with node pointer _Pnode

	push	ebp
	mov	ebp, esp
	push	ecx
	mov	DWORD PTR _this$[ebp], ecx
	mov	eax, DWORD PTR _this$[ebp]
	mov	ecx, DWORD PTR __Pnode$[ebp]
	mov	DWORD PTR [eax], ecx

; 45   : 		this->_Adopt(_Plist);

	mov	edx, DWORD PTR __Plist$[ebp]
	push	edx
	mov	ecx, DWORD PTR _this$[ebp]
	call	?_Adopt@_Iterator_base0@std@@QAEXPBX@Z	; std::_Iterator_base0::_Adopt

; 46   : 		}

	mov	eax, DWORD PTR _this$[ebp]
	mov	esp, ebp
	pop	ebp
	ret	8
??0?$_Tree_unchecked_const_iterator@V?$_Tree_val@U?$_Tree_simple_types@U?$pair@$$CBMPAVFlightClass@@@std@@@std@@@std@@U_Iterator_base0@2@@std@@QAE@PAU?$_Tree_node@U?$pair@$$CBMPAVFlightClass@@@std@@PAX@1@PBV?$_Tree_val@U?$_Tree_simple_types@U?$pair@$$CBMPAVFlightClass@@@std@@@std@@@1@@Z ENDP ; std::_Tree_unchecked_const_iterator<std::_Tree_val<std::_Tree_simple_types<std::pair<float const ,FlightClass *> > >,std::_Iterator_base0>::_Tree_unchecked_const_iterator<std::_Tree_val<std::_Tree_simple_types<std::pair<float const ,FlightClass *> > >,std::_Iterator_base0>
_TEXT	ENDS
; Function compile flags: /Odtp
;	COMDAT ??1?$map@MPAVFlightClass@@U?$less@M@std@@V?$allocator@U?$pair@$$CBMPAVFlightClass@@@std@@@3@@std@@QAE@XZ
_TEXT	SEGMENT
_this$ = -4						; size = 4
??1?$map@MPAVFlightClass@@U?$less@M@std@@V?$allocator@U?$pair@$$CBMPAVFlightClass@@@std@@@3@@std@@QAE@XZ PROC ; std::map<float,FlightClass *,std::less<float>,std::allocator<std::pair<float const ,FlightClass *> > >::~map<float,FlightClass *,std::less<float>,std::allocator<std::pair<float const ,FlightClass *> > >, COMDAT
; _this$ = ecx
	push	ebp
	mov	ebp, esp
	push	ecx
	mov	DWORD PTR _this$[ebp], ecx
	mov	ecx, DWORD PTR _this$[ebp]
	call	??1?$_Tree@V?$_Tmap_traits@MPAVFlightClass@@U?$less@M@std@@V?$allocator@U?$pair@$$CBMPAVFlightClass@@@std@@@3@$0A@@std@@@std@@QAE@XZ ; std::_Tree<std::_Tmap_traits<float,FlightClass *,std::less<float>,std::allocator<std::pair<float const ,FlightClass *> >,0> >::~_Tree<std::_Tmap_traits<float,FlightClass *,std::less<float>,std::allocator<std::pair<float const ,FlightClass *> >,0> >
	mov	esp, ebp
	pop	ebp
	ret	0
??1?$map@MPAVFlightClass@@U?$less@M@std@@V?$allocator@U?$pair@$$CBMPAVFlightClass@@@std@@@3@@std@@QAE@XZ ENDP ; std::map<float,FlightClass *,std::less<float>,std::allocator<std::pair<float const ,FlightClass *> > >::~map<float,FlightClass *,std::less<float>,std::allocator<std::pair<float const ,FlightClass *> > >
_TEXT	ENDS
; Function compile flags: /Odtp
; File c:\program files (x86)\microsoft visual studio 11.0\vc\include\map
;	COMDAT ??0?$map@MPAVFlightClass@@U?$less@M@std@@V?$allocator@U?$pair@$$CBMPAVFlightClass@@@std@@@3@@std@@QAE@XZ
_TEXT	SEGMENT
_this$ = -8						; size = 4
$T1 = -2						; size = 1
$T2 = -1						; size = 1
??0?$map@MPAVFlightClass@@U?$less@M@std@@V?$allocator@U?$pair@$$CBMPAVFlightClass@@@std@@@3@@std@@QAE@XZ PROC ; std::map<float,FlightClass *,std::less<float>,std::allocator<std::pair<float const ,FlightClass *> > >::map<float,FlightClass *,std::less<float>,std::allocator<std::pair<float const ,FlightClass *> > >, COMDAT
; _this$ = ecx

; 92   : 		{	// construct empty map from defaults

	push	ebp
	mov	ebp, esp
	sub	esp, 8
	mov	DWORD PTR _this$[ebp], ecx
	lea	ecx, DWORD PTR $T2[ebp]
	call	??0?$allocator@U?$pair@$$CBMPAVFlightClass@@@std@@@std@@QAE@XZ ; std::allocator<std::pair<float const ,FlightClass *> >::allocator<std::pair<float const ,FlightClass *> >
	push	eax
	lea	eax, DWORD PTR $T1[ebp]
	push	eax
	mov	ecx, DWORD PTR _this$[ebp]
	call	??0?$_Tree@V?$_Tmap_traits@MPAVFlightClass@@U?$less@M@std@@V?$allocator@U?$pair@$$CBMPAVFlightClass@@@std@@@3@$0A@@std@@@std@@QAE@ABU?$less@M@1@ABV?$allocator@U?$pair@$$CBMPAVFlightClass@@@std@@@1@@Z ; std::_Tree<std::_Tmap_traits<float,FlightClass *,std::less<float>,std::allocator<std::pair<float const ,FlightClass *> >,0> >::_Tree<std::_Tmap_traits<float,FlightClass *,std::less<float>,std::allocator<std::pair<float const ,FlightClass *> >,0> >

; 93   : 		}

	mov	eax, DWORD PTR _this$[ebp]
	mov	esp, ebp
	pop	ebp
	ret	0
??0?$map@MPAVFlightClass@@U?$less@M@std@@V?$allocator@U?$pair@$$CBMPAVFlightClass@@@std@@@3@@std@@QAE@XZ ENDP ; std::map<float,FlightClass *,std::less<float>,std::allocator<std::pair<float const ,FlightClass *> > >::map<float,FlightClass *,std::less<float>,std::allocator<std::pair<float const ,FlightClass *> > >
_TEXT	ENDS
; Function compile flags: /Odtp
; File c:\program files (x86)\microsoft visual studio 11.0\vc\include\xtree
;	COMDAT ?_Tidy@?$_Tree@V?$_Tmap_traits@MPAVFlightClass@@U?$less@M@std@@V?$allocator@U?$pair@$$CBMPAVFlightClass@@@std@@@3@$0A@@std@@@std@@IAEXXZ
_TEXT	SEGMENT
$T1 = -24						; size = 4
$T2 = -20						; size = 4
$T3 = -16						; size = 4
$T4 = -12						; size = 4
$T5 = -8						; size = 4
_this$ = -4						; size = 4
?_Tidy@?$_Tree@V?$_Tmap_traits@MPAVFlightClass@@U?$less@M@std@@V?$allocator@U?$pair@$$CBMPAVFlightClass@@@std@@@3@$0A@@std@@@std@@IAEXXZ PROC ; std::_Tree<std::_Tmap_traits<float,FlightClass *,std::less<float>,std::allocator<std::pair<float const ,FlightClass *> >,0> >::_Tidy, COMDAT
; _this$ = ecx

; 2215 : 		{	// free all storage

	push	ebp
	mov	ebp, esp
	sub	esp, 24					; 00000018H
	mov	DWORD PTR _this$[ebp], ecx

; 2216 : 		erase(begin(), end());

	lea	eax, DWORD PTR $T3[ebp]
	push	eax
	mov	ecx, DWORD PTR _this$[ebp]
	call	?end@?$_Tree@V?$_Tmap_traits@MPAVFlightClass@@U?$less@M@std@@V?$allocator@U?$pair@$$CBMPAVFlightClass@@@std@@@3@$0A@@std@@@std@@QAE?AV?$_Tree_iterator@V?$_Tree_val@U?$_Tree_simple_types@U?$pair@$$CBMPAVFlightClass@@@std@@@std@@@std@@@2@XZ ; std::_Tree<std::_Tmap_traits<float,FlightClass *,std::less<float>,std::allocator<std::pair<float const ,FlightClass *> >,0> >::end
	mov	ecx, DWORD PTR [eax]
	mov	DWORD PTR $T5[ebp], ecx
	lea	edx, DWORD PTR $T2[ebp]
	push	edx
	mov	ecx, DWORD PTR _this$[ebp]
	call	?begin@?$_Tree@V?$_Tmap_traits@MPAVFlightClass@@U?$less@M@std@@V?$allocator@U?$pair@$$CBMPAVFlightClass@@@std@@@3@$0A@@std@@@std@@QAE?AV?$_Tree_iterator@V?$_Tree_val@U?$_Tree_simple_types@U?$pair@$$CBMPAVFlightClass@@@std@@@std@@@std@@@2@XZ ; std::_Tree<std::_Tmap_traits<float,FlightClass *,std::less<float>,std::allocator<std::pair<float const ,FlightClass *> >,0> >::begin
	mov	eax, DWORD PTR [eax]
	mov	DWORD PTR $T4[ebp], eax
	mov	ecx, DWORD PTR $T5[ebp]
	push	ecx
	mov	edx, DWORD PTR $T4[ebp]
	push	edx
	lea	eax, DWORD PTR $T1[ebp]
	push	eax
	mov	ecx, DWORD PTR _this$[ebp]
	call	?erase@?$_Tree@V?$_Tmap_traits@MPAVFlightClass@@U?$less@M@std@@V?$allocator@U?$pair@$$CBMPAVFlightClass@@@std@@@3@$0A@@std@@@std@@QAE?AV?$_Tree_iterator@V?$_Tree_val@U?$_Tree_simple_types@U?$pair@$$CBMPAVFlightClass@@@std@@@std@@@std@@@2@V?$_Tree_const_iterator@V?$_Tree_val@U?$_Tree_simple_types@U?$pair@$$CBMPAVFlightClass@@@std@@@std@@@std@@@2@0@Z ; std::_Tree<std::_Tmap_traits<float,FlightClass *,std::less<float>,std::allocator<std::pair<float const ,FlightClass *> >,0> >::erase

; 2217 : 		}

	mov	esp, ebp
	pop	ebp
	ret	0
?_Tidy@?$_Tree@V?$_Tmap_traits@MPAVFlightClass@@U?$less@M@std@@V?$allocator@U?$pair@$$CBMPAVFlightClass@@@std@@@3@$0A@@std@@@std@@IAEXXZ ENDP ; std::_Tree<std::_Tmap_traits<float,FlightClass *,std::less<float>,std::allocator<std::pair<float const ,FlightClass *> >,0> >::_Tidy
_TEXT	ENDS
; Function compile flags: /Odtp
; File c:\program files (x86)\microsoft visual studio 11.0\vc\include\xtree
;	COMDAT ?_Rrotate@?$_Tree@V?$_Tmap_traits@MPAVFlightClass@@U?$less@M@std@@V?$allocator@U?$pair@$$CBMPAVFlightClass@@@std@@@3@$0A@@std@@@std@@IAEXPAU?$_Tree_node@U?$pair@$$CBMPAVFlightClass@@@std@@PAX@2@@Z
_TEXT	SEGMENT
_this$ = -8						; size = 4
__Pnode$ = -4						; size = 4
__Wherenode$ = 8					; size = 4
?_Rrotate@?$_Tree@V?$_Tmap_traits@MPAVFlightClass@@U?$less@M@std@@V?$allocator@U?$pair@$$CBMPAVFlightClass@@@std@@@3@$0A@@std@@@std@@IAEXPAU?$_Tree_node@U?$pair@$$CBMPAVFlightClass@@@std@@PAX@2@@Z PROC ; std::_Tree<std::_Tmap_traits<float,FlightClass *,std::less<float>,std::allocator<std::pair<float const ,FlightClass *> >,0> >::_Rrotate, COMDAT
; _this$ = ecx

; 2143 : 		{	// promote left node to root of subtree

	push	ebp
	mov	ebp, esp
	sub	esp, 8
	push	esi
	mov	DWORD PTR _this$[ebp], ecx

; 2144 : 		_Nodeptr _Pnode = this->_Left(_Wherenode);

	mov	eax, DWORD PTR __Wherenode$[ebp]
	push	eax
	call	?_Left@?$_Tree_val@U?$_Tree_simple_types@U?$pair@$$CBMPAVFlightClass@@@std@@@std@@@std@@SAAAPAU?$_Tree_node@U?$pair@$$CBMPAVFlightClass@@@std@@PAX@2@PAU32@@Z ; std::_Tree_val<std::_Tree_simple_types<std::pair<float const ,FlightClass *> > >::_Left
	add	esp, 4
	mov	ecx, DWORD PTR [eax]
	mov	DWORD PTR __Pnode$[ebp], ecx

; 2145 : 		this->_Left(_Wherenode) = this->_Right(_Pnode);

	mov	edx, DWORD PTR __Pnode$[ebp]
	push	edx
	call	?_Right@?$_Tree_val@U?$_Tree_simple_types@U?$pair@$$CBMPAVFlightClass@@@std@@@std@@@std@@SAAAPAU?$_Tree_node@U?$pair@$$CBMPAVFlightClass@@@std@@PAX@2@PAU32@@Z ; std::_Tree_val<std::_Tree_simple_types<std::pair<float const ,FlightClass *> > >::_Right
	add	esp, 4
	mov	esi, eax
	mov	eax, DWORD PTR __Wherenode$[ebp]
	push	eax
	call	?_Left@?$_Tree_val@U?$_Tree_simple_types@U?$pair@$$CBMPAVFlightClass@@@std@@@std@@@std@@SAAAPAU?$_Tree_node@U?$pair@$$CBMPAVFlightClass@@@std@@PAX@2@PAU32@@Z ; std::_Tree_val<std::_Tree_simple_types<std::pair<float const ,FlightClass *> > >::_Left
	add	esp, 4
	mov	ecx, DWORD PTR [esi]
	mov	DWORD PTR [eax], ecx

; 2146 : 
; 2147 : 		if (!this->_Isnil(this->_Right(_Pnode)))

	mov	edx, DWORD PTR __Pnode$[ebp]
	push	edx
	call	?_Right@?$_Tree_val@U?$_Tree_simple_types@U?$pair@$$CBMPAVFlightClass@@@std@@@std@@@std@@SAAAPAU?$_Tree_node@U?$pair@$$CBMPAVFlightClass@@@std@@PAX@2@PAU32@@Z ; std::_Tree_val<std::_Tree_simple_types<std::pair<float const ,FlightClass *> > >::_Right
	add	esp, 4
	mov	eax, DWORD PTR [eax]
	push	eax
	call	?_Isnil@?$_Tree_val@U?$_Tree_simple_types@U?$pair@$$CBMPAVFlightClass@@@std@@@std@@@std@@SAAADPAU?$_Tree_node@U?$pair@$$CBMPAVFlightClass@@@std@@PAX@2@@Z ; std::_Tree_val<std::_Tree_simple_types<std::pair<float const ,FlightClass *> > >::_Isnil
	add	esp, 4
	movsx	ecx, BYTE PTR [eax]
	test	ecx, ecx
	jne	SHORT $LN5@Rrotate

; 2148 : 			this->_Parent(this->_Right(_Pnode)) = _Wherenode;

	mov	edx, DWORD PTR __Pnode$[ebp]
	push	edx
	call	?_Right@?$_Tree_val@U?$_Tree_simple_types@U?$pair@$$CBMPAVFlightClass@@@std@@@std@@@std@@SAAAPAU?$_Tree_node@U?$pair@$$CBMPAVFlightClass@@@std@@PAX@2@PAU32@@Z ; std::_Tree_val<std::_Tree_simple_types<std::pair<float const ,FlightClass *> > >::_Right
	add	esp, 4
	mov	eax, DWORD PTR [eax]
	push	eax
	call	?_Parent@?$_Tree_val@U?$_Tree_simple_types@U?$pair@$$CBMPAVFlightClass@@@std@@@std@@@std@@SAAAPAU?$_Tree_node@U?$pair@$$CBMPAVFlightClass@@@std@@PAX@2@PAU32@@Z ; std::_Tree_val<std::_Tree_simple_types<std::pair<float const ,FlightClass *> > >::_Parent
	add	esp, 4
	mov	ecx, DWORD PTR __Wherenode$[ebp]
	mov	DWORD PTR [eax], ecx
$LN5@Rrotate:

; 2149 : 		this->_Parent(_Pnode) = this->_Parent(_Wherenode);

	mov	edx, DWORD PTR __Wherenode$[ebp]
	push	edx
	call	?_Parent@?$_Tree_val@U?$_Tree_simple_types@U?$pair@$$CBMPAVFlightClass@@@std@@@std@@@std@@SAAAPAU?$_Tree_node@U?$pair@$$CBMPAVFlightClass@@@std@@PAX@2@PAU32@@Z ; std::_Tree_val<std::_Tree_simple_types<std::pair<float const ,FlightClass *> > >::_Parent
	add	esp, 4
	mov	esi, eax
	mov	eax, DWORD PTR __Pnode$[ebp]
	push	eax
	call	?_Parent@?$_Tree_val@U?$_Tree_simple_types@U?$pair@$$CBMPAVFlightClass@@@std@@@std@@@std@@SAAAPAU?$_Tree_node@U?$pair@$$CBMPAVFlightClass@@@std@@PAX@2@PAU32@@Z ; std::_Tree_val<std::_Tree_simple_types<std::pair<float const ,FlightClass *> > >::_Parent
	add	esp, 4
	mov	ecx, DWORD PTR [esi]
	mov	DWORD PTR [eax], ecx

; 2150 : 
; 2151 : 		if (_Wherenode == _Root())

	mov	ecx, DWORD PTR _this$[ebp]
	call	?_Root@?$_Tree@V?$_Tmap_traits@MPAVFlightClass@@U?$less@M@std@@V?$allocator@U?$pair@$$CBMPAVFlightClass@@@std@@@3@$0A@@std@@@std@@IBEAAPAU?$_Tree_node@U?$pair@$$CBMPAVFlightClass@@@std@@PAX@2@XZ ; std::_Tree<std::_Tmap_traits<float,FlightClass *,std::less<float>,std::allocator<std::pair<float const ,FlightClass *> >,0> >::_Root
	mov	edx, DWORD PTR __Wherenode$[ebp]
	cmp	edx, DWORD PTR [eax]
	jne	SHORT $LN4@Rrotate

; 2152 : 			_Root() = _Pnode;

	mov	ecx, DWORD PTR _this$[ebp]
	call	?_Root@?$_Tree@V?$_Tmap_traits@MPAVFlightClass@@U?$less@M@std@@V?$allocator@U?$pair@$$CBMPAVFlightClass@@@std@@@3@$0A@@std@@@std@@IBEAAPAU?$_Tree_node@U?$pair@$$CBMPAVFlightClass@@@std@@PAX@2@XZ ; std::_Tree<std::_Tmap_traits<float,FlightClass *,std::less<float>,std::allocator<std::pair<float const ,FlightClass *> >,0> >::_Root
	mov	ecx, DWORD PTR __Pnode$[ebp]
	mov	DWORD PTR [eax], ecx
	jmp	SHORT $LN3@Rrotate
$LN4@Rrotate:

; 2153 : 		else if (_Wherenode == this->_Right(this->_Parent(_Wherenode)))

	mov	edx, DWORD PTR __Wherenode$[ebp]
	push	edx
	call	?_Parent@?$_Tree_val@U?$_Tree_simple_types@U?$pair@$$CBMPAVFlightClass@@@std@@@std@@@std@@SAAAPAU?$_Tree_node@U?$pair@$$CBMPAVFlightClass@@@std@@PAX@2@PAU32@@Z ; std::_Tree_val<std::_Tree_simple_types<std::pair<float const ,FlightClass *> > >::_Parent
	add	esp, 4
	mov	eax, DWORD PTR [eax]
	push	eax
	call	?_Right@?$_Tree_val@U?$_Tree_simple_types@U?$pair@$$CBMPAVFlightClass@@@std@@@std@@@std@@SAAAPAU?$_Tree_node@U?$pair@$$CBMPAVFlightClass@@@std@@PAX@2@PAU32@@Z ; std::_Tree_val<std::_Tree_simple_types<std::pair<float const ,FlightClass *> > >::_Right
	add	esp, 4
	mov	ecx, DWORD PTR __Wherenode$[ebp]
	cmp	ecx, DWORD PTR [eax]
	jne	SHORT $LN2@Rrotate

; 2154 : 			this->_Right(this->_Parent(_Wherenode)) = _Pnode;

	mov	edx, DWORD PTR __Wherenode$[ebp]
	push	edx
	call	?_Parent@?$_Tree_val@U?$_Tree_simple_types@U?$pair@$$CBMPAVFlightClass@@@std@@@std@@@std@@SAAAPAU?$_Tree_node@U?$pair@$$CBMPAVFlightClass@@@std@@PAX@2@PAU32@@Z ; std::_Tree_val<std::_Tree_simple_types<std::pair<float const ,FlightClass *> > >::_Parent
	add	esp, 4
	mov	eax, DWORD PTR [eax]
	push	eax
	call	?_Right@?$_Tree_val@U?$_Tree_simple_types@U?$pair@$$CBMPAVFlightClass@@@std@@@std@@@std@@SAAAPAU?$_Tree_node@U?$pair@$$CBMPAVFlightClass@@@std@@PAX@2@PAU32@@Z ; std::_Tree_val<std::_Tree_simple_types<std::pair<float const ,FlightClass *> > >::_Right
	add	esp, 4
	mov	ecx, DWORD PTR __Pnode$[ebp]
	mov	DWORD PTR [eax], ecx

; 2155 : 		else

	jmp	SHORT $LN3@Rrotate
$LN2@Rrotate:

; 2156 : 			this->_Left(this->_Parent(_Wherenode)) = _Pnode;

	mov	edx, DWORD PTR __Wherenode$[ebp]
	push	edx
	call	?_Parent@?$_Tree_val@U?$_Tree_simple_types@U?$pair@$$CBMPAVFlightClass@@@std@@@std@@@std@@SAAAPAU?$_Tree_node@U?$pair@$$CBMPAVFlightClass@@@std@@PAX@2@PAU32@@Z ; std::_Tree_val<std::_Tree_simple_types<std::pair<float const ,FlightClass *> > >::_Parent
	add	esp, 4
	mov	eax, DWORD PTR [eax]
	push	eax
	call	?_Left@?$_Tree_val@U?$_Tree_simple_types@U?$pair@$$CBMPAVFlightClass@@@std@@@std@@@std@@SAAAPAU?$_Tree_node@U?$pair@$$CBMPAVFlightClass@@@std@@PAX@2@PAU32@@Z ; std::_Tree_val<std::_Tree_simple_types<std::pair<float const ,FlightClass *> > >::_Left
	add	esp, 4
	mov	ecx, DWORD PTR __Pnode$[ebp]
	mov	DWORD PTR [eax], ecx
$LN3@Rrotate:

; 2157 : 
; 2158 : 		this->_Right(_Pnode) = _Wherenode;

	mov	edx, DWORD PTR __Pnode$[ebp]
	push	edx
	call	?_Right@?$_Tree_val@U?$_Tree_simple_types@U?$pair@$$CBMPAVFlightClass@@@std@@@std@@@std@@SAAAPAU?$_Tree_node@U?$pair@$$CBMPAVFlightClass@@@std@@PAX@2@PAU32@@Z ; std::_Tree_val<std::_Tree_simple_types<std::pair<float const ,FlightClass *> > >::_Right
	add	esp, 4
	mov	ecx, DWORD PTR __Wherenode$[ebp]
	mov	DWORD PTR [eax], ecx

; 2159 : 		this->_Parent(_Wherenode) = _Pnode;

	mov	edx, DWORD PTR __Wherenode$[ebp]
	push	edx
	call	?_Parent@?$_Tree_val@U?$_Tree_simple_types@U?$pair@$$CBMPAVFlightClass@@@std@@@std@@@std@@SAAAPAU?$_Tree_node@U?$pair@$$CBMPAVFlightClass@@@std@@PAX@2@PAU32@@Z ; std::_Tree_val<std::_Tree_simple_types<std::pair<float const ,FlightClass *> > >::_Parent
	add	esp, 4
	mov	ecx, DWORD PTR __Pnode$[ebp]
	mov	DWORD PTR [eax], ecx

; 2160 : 		}

	pop	esi
	mov	esp, ebp
	pop	ebp
	ret	4
?_Rrotate@?$_Tree@V?$_Tmap_traits@MPAVFlightClass@@U?$less@M@std@@V?$allocator@U?$pair@$$CBMPAVFlightClass@@@std@@@3@$0A@@std@@@std@@IAEXPAU?$_Tree_node@U?$pair@$$CBMPAVFlightClass@@@std@@PAX@2@@Z ENDP ; std::_Tree<std::_Tmap_traits<float,FlightClass *,std::less<float>,std::allocator<std::pair<float const ,FlightClass *> >,0> >::_Rrotate
_TEXT	ENDS
; Function compile flags: /Odtp
; File c:\program files (x86)\microsoft visual studio 11.0\vc\include\xtree
;	COMDAT ?_Root@?$_Tree@V?$_Tmap_traits@MPAVFlightClass@@U?$less@M@std@@V?$allocator@U?$pair@$$CBMPAVFlightClass@@@std@@@3@$0A@@std@@@std@@IBEAAPAU?$_Tree_node@U?$pair@$$CBMPAVFlightClass@@@std@@PAX@2@XZ
_TEXT	SEGMENT
_this$ = -4						; size = 4
?_Root@?$_Tree@V?$_Tmap_traits@MPAVFlightClass@@U?$less@M@std@@V?$allocator@U?$pair@$$CBMPAVFlightClass@@@std@@@3@$0A@@std@@@std@@IBEAAPAU?$_Tree_node@U?$pair@$$CBMPAVFlightClass@@@std@@PAX@2@XZ PROC ; std::_Tree<std::_Tmap_traits<float,FlightClass *,std::less<float>,std::allocator<std::pair<float const ,FlightClass *> >,0> >::_Root, COMDAT
; _this$ = ecx

; 2138 : 		{	// return root of nonmutable tree

	push	ebp
	mov	ebp, esp
	push	ecx
	mov	DWORD PTR _this$[ebp], ecx

; 2139 : 		return (this->_Parent(this->_Myhead));

	mov	eax, DWORD PTR _this$[ebp]
	mov	ecx, DWORD PTR [eax]
	push	ecx
	call	?_Parent@?$_Tree_val@U?$_Tree_simple_types@U?$pair@$$CBMPAVFlightClass@@@std@@@std@@@std@@SAAAPAU?$_Tree_node@U?$pair@$$CBMPAVFlightClass@@@std@@PAX@2@PAU32@@Z ; std::_Tree_val<std::_Tree_simple_types<std::pair<float const ,FlightClass *> > >::_Parent
	add	esp, 4

; 2140 : 		}

	mov	esp, ebp
	pop	ebp
	ret	0
?_Root@?$_Tree@V?$_Tmap_traits@MPAVFlightClass@@U?$less@M@std@@V?$allocator@U?$pair@$$CBMPAVFlightClass@@@std@@@3@$0A@@std@@@std@@IBEAAPAU?$_Tree_node@U?$pair@$$CBMPAVFlightClass@@@std@@PAX@2@XZ ENDP ; std::_Tree<std::_Tmap_traits<float,FlightClass *,std::less<float>,std::allocator<std::pair<float const ,FlightClass *> >,0> >::_Root
_TEXT	ENDS
; Function compile flags: /Odtp
; File c:\program files (x86)\microsoft visual studio 11.0\vc\include\xtree
;	COMDAT ?_Rmost@?$_Tree@V?$_Tmap_traits@MPAVFlightClass@@U?$less@M@std@@V?$allocator@U?$pair@$$CBMPAVFlightClass@@@std@@@3@$0A@@std@@@std@@IBEAAPAU?$_Tree_node@U?$pair@$$CBMPAVFlightClass@@@std@@PAX@2@XZ
_TEXT	SEGMENT
_this$ = -4						; size = 4
?_Rmost@?$_Tree@V?$_Tmap_traits@MPAVFlightClass@@U?$less@M@std@@V?$allocator@U?$pair@$$CBMPAVFlightClass@@@std@@@3@$0A@@std@@@std@@IBEAAPAU?$_Tree_node@U?$pair@$$CBMPAVFlightClass@@@std@@PAX@2@XZ PROC ; std::_Tree<std::_Tmap_traits<float,FlightClass *,std::less<float>,std::allocator<std::pair<float const ,FlightClass *> >,0> >::_Rmost, COMDAT
; _this$ = ecx

; 2133 : 		{	// return rightmost node in nonmutable tree

	push	ebp
	mov	ebp, esp
	push	ecx
	mov	DWORD PTR _this$[ebp], ecx

; 2134 : 		return (this->_Right(this->_Myhead));

	mov	eax, DWORD PTR _this$[ebp]
	mov	ecx, DWORD PTR [eax]
	push	ecx
	call	?_Right@?$_Tree_val@U?$_Tree_simple_types@U?$pair@$$CBMPAVFlightClass@@@std@@@std@@@std@@SAAAPAU?$_Tree_node@U?$pair@$$CBMPAVFlightClass@@@std@@PAX@2@PAU32@@Z ; std::_Tree_val<std::_Tree_simple_types<std::pair<float const ,FlightClass *> > >::_Right
	add	esp, 4

; 2135 : 		}

	mov	esp, ebp
	pop	ebp
	ret	0
?_Rmost@?$_Tree@V?$_Tmap_traits@MPAVFlightClass@@U?$less@M@std@@V?$allocator@U?$pair@$$CBMPAVFlightClass@@@std@@@3@$0A@@std@@@std@@IBEAAPAU?$_Tree_node@U?$pair@$$CBMPAVFlightClass@@@std@@PAX@2@XZ ENDP ; std::_Tree<std::_Tmap_traits<float,FlightClass *,std::less<float>,std::allocator<std::pair<float const ,FlightClass *> >,0> >::_Rmost
_TEXT	ENDS
; Function compile flags: /Odtp
; File c:\program files (x86)\microsoft visual studio 11.0\vc\include\xtree
;	COMDAT ?_Lrotate@?$_Tree@V?$_Tmap_traits@MPAVFlightClass@@U?$less@M@std@@V?$allocator@U?$pair@$$CBMPAVFlightClass@@@std@@@3@$0A@@std@@@std@@IAEXPAU?$_Tree_node@U?$pair@$$CBMPAVFlightClass@@@std@@PAX@2@@Z
_TEXT	SEGMENT
_this$ = -8						; size = 4
__Pnode$ = -4						; size = 4
__Wherenode$ = 8					; size = 4
?_Lrotate@?$_Tree@V?$_Tmap_traits@MPAVFlightClass@@U?$less@M@std@@V?$allocator@U?$pair@$$CBMPAVFlightClass@@@std@@@3@$0A@@std@@@std@@IAEXPAU?$_Tree_node@U?$pair@$$CBMPAVFlightClass@@@std@@PAX@2@@Z PROC ; std::_Tree<std::_Tmap_traits<float,FlightClass *,std::less<float>,std::allocator<std::pair<float const ,FlightClass *> >,0> >::_Lrotate, COMDAT
; _this$ = ecx

; 2113 : 		{	// promote right node to root of subtree

	push	ebp
	mov	ebp, esp
	sub	esp, 8
	push	esi
	mov	DWORD PTR _this$[ebp], ecx

; 2114 : 		_Nodeptr _Pnode = this->_Right(_Wherenode);

	mov	eax, DWORD PTR __Wherenode$[ebp]
	push	eax
	call	?_Right@?$_Tree_val@U?$_Tree_simple_types@U?$pair@$$CBMPAVFlightClass@@@std@@@std@@@std@@SAAAPAU?$_Tree_node@U?$pair@$$CBMPAVFlightClass@@@std@@PAX@2@PAU32@@Z ; std::_Tree_val<std::_Tree_simple_types<std::pair<float const ,FlightClass *> > >::_Right
	add	esp, 4
	mov	ecx, DWORD PTR [eax]
	mov	DWORD PTR __Pnode$[ebp], ecx

; 2115 : 		this->_Right(_Wherenode) = this->_Left(_Pnode);

	mov	edx, DWORD PTR __Pnode$[ebp]
	push	edx
	call	?_Left@?$_Tree_val@U?$_Tree_simple_types@U?$pair@$$CBMPAVFlightClass@@@std@@@std@@@std@@SAAAPAU?$_Tree_node@U?$pair@$$CBMPAVFlightClass@@@std@@PAX@2@PAU32@@Z ; std::_Tree_val<std::_Tree_simple_types<std::pair<float const ,FlightClass *> > >::_Left
	add	esp, 4
	mov	esi, eax
	mov	eax, DWORD PTR __Wherenode$[ebp]
	push	eax
	call	?_Right@?$_Tree_val@U?$_Tree_simple_types@U?$pair@$$CBMPAVFlightClass@@@std@@@std@@@std@@SAAAPAU?$_Tree_node@U?$pair@$$CBMPAVFlightClass@@@std@@PAX@2@PAU32@@Z ; std::_Tree_val<std::_Tree_simple_types<std::pair<float const ,FlightClass *> > >::_Right
	add	esp, 4
	mov	ecx, DWORD PTR [esi]
	mov	DWORD PTR [eax], ecx

; 2116 : 
; 2117 : 		if (!this->_Isnil(this->_Left(_Pnode)))

	mov	edx, DWORD PTR __Pnode$[ebp]
	push	edx
	call	?_Left@?$_Tree_val@U?$_Tree_simple_types@U?$pair@$$CBMPAVFlightClass@@@std@@@std@@@std@@SAAAPAU?$_Tree_node@U?$pair@$$CBMPAVFlightClass@@@std@@PAX@2@PAU32@@Z ; std::_Tree_val<std::_Tree_simple_types<std::pair<float const ,FlightClass *> > >::_Left
	add	esp, 4
	mov	eax, DWORD PTR [eax]
	push	eax
	call	?_Isnil@?$_Tree_val@U?$_Tree_simple_types@U?$pair@$$CBMPAVFlightClass@@@std@@@std@@@std@@SAAADPAU?$_Tree_node@U?$pair@$$CBMPAVFlightClass@@@std@@PAX@2@@Z ; std::_Tree_val<std::_Tree_simple_types<std::pair<float const ,FlightClass *> > >::_Isnil
	add	esp, 4
	movsx	ecx, BYTE PTR [eax]
	test	ecx, ecx
	jne	SHORT $LN5@Lrotate

; 2118 : 			this->_Parent(this->_Left(_Pnode)) = _Wherenode;

	mov	edx, DWORD PTR __Pnode$[ebp]
	push	edx
	call	?_Left@?$_Tree_val@U?$_Tree_simple_types@U?$pair@$$CBMPAVFlightClass@@@std@@@std@@@std@@SAAAPAU?$_Tree_node@U?$pair@$$CBMPAVFlightClass@@@std@@PAX@2@PAU32@@Z ; std::_Tree_val<std::_Tree_simple_types<std::pair<float const ,FlightClass *> > >::_Left
	add	esp, 4
	mov	eax, DWORD PTR [eax]
	push	eax
	call	?_Parent@?$_Tree_val@U?$_Tree_simple_types@U?$pair@$$CBMPAVFlightClass@@@std@@@std@@@std@@SAAAPAU?$_Tree_node@U?$pair@$$CBMPAVFlightClass@@@std@@PAX@2@PAU32@@Z ; std::_Tree_val<std::_Tree_simple_types<std::pair<float const ,FlightClass *> > >::_Parent
	add	esp, 4
	mov	ecx, DWORD PTR __Wherenode$[ebp]
	mov	DWORD PTR [eax], ecx
$LN5@Lrotate:

; 2119 : 		this->_Parent(_Pnode) = this->_Parent(_Wherenode);

	mov	edx, DWORD PTR __Wherenode$[ebp]
	push	edx
	call	?_Parent@?$_Tree_val@U?$_Tree_simple_types@U?$pair@$$CBMPAVFlightClass@@@std@@@std@@@std@@SAAAPAU?$_Tree_node@U?$pair@$$CBMPAVFlightClass@@@std@@PAX@2@PAU32@@Z ; std::_Tree_val<std::_Tree_simple_types<std::pair<float const ,FlightClass *> > >::_Parent
	add	esp, 4
	mov	esi, eax
	mov	eax, DWORD PTR __Pnode$[ebp]
	push	eax
	call	?_Parent@?$_Tree_val@U?$_Tree_simple_types@U?$pair@$$CBMPAVFlightClass@@@std@@@std@@@std@@SAAAPAU?$_Tree_node@U?$pair@$$CBMPAVFlightClass@@@std@@PAX@2@PAU32@@Z ; std::_Tree_val<std::_Tree_simple_types<std::pair<float const ,FlightClass *> > >::_Parent
	add	esp, 4
	mov	ecx, DWORD PTR [esi]
	mov	DWORD PTR [eax], ecx

; 2120 : 
; 2121 : 		if (_Wherenode == _Root())

	mov	ecx, DWORD PTR _this$[ebp]
	call	?_Root@?$_Tree@V?$_Tmap_traits@MPAVFlightClass@@U?$less@M@std@@V?$allocator@U?$pair@$$CBMPAVFlightClass@@@std@@@3@$0A@@std@@@std@@IBEAAPAU?$_Tree_node@U?$pair@$$CBMPAVFlightClass@@@std@@PAX@2@XZ ; std::_Tree<std::_Tmap_traits<float,FlightClass *,std::less<float>,std::allocator<std::pair<float const ,FlightClass *> >,0> >::_Root
	mov	edx, DWORD PTR __Wherenode$[ebp]
	cmp	edx, DWORD PTR [eax]
	jne	SHORT $LN4@Lrotate

; 2122 : 			_Root() = _Pnode;

	mov	ecx, DWORD PTR _this$[ebp]
	call	?_Root@?$_Tree@V?$_Tmap_traits@MPAVFlightClass@@U?$less@M@std@@V?$allocator@U?$pair@$$CBMPAVFlightClass@@@std@@@3@$0A@@std@@@std@@IBEAAPAU?$_Tree_node@U?$pair@$$CBMPAVFlightClass@@@std@@PAX@2@XZ ; std::_Tree<std::_Tmap_traits<float,FlightClass *,std::less<float>,std::allocator<std::pair<float const ,FlightClass *> >,0> >::_Root
	mov	ecx, DWORD PTR __Pnode$[ebp]
	mov	DWORD PTR [eax], ecx
	jmp	SHORT $LN3@Lrotate
$LN4@Lrotate:

; 2123 : 		else if (_Wherenode == this->_Left(this->_Parent(_Wherenode)))

	mov	edx, DWORD PTR __Wherenode$[ebp]
	push	edx
	call	?_Parent@?$_Tree_val@U?$_Tree_simple_types@U?$pair@$$CBMPAVFlightClass@@@std@@@std@@@std@@SAAAPAU?$_Tree_node@U?$pair@$$CBMPAVFlightClass@@@std@@PAX@2@PAU32@@Z ; std::_Tree_val<std::_Tree_simple_types<std::pair<float const ,FlightClass *> > >::_Parent
	add	esp, 4
	mov	eax, DWORD PTR [eax]
	push	eax
	call	?_Left@?$_Tree_val@U?$_Tree_simple_types@U?$pair@$$CBMPAVFlightClass@@@std@@@std@@@std@@SAAAPAU?$_Tree_node@U?$pair@$$CBMPAVFlightClass@@@std@@PAX@2@PAU32@@Z ; std::_Tree_val<std::_Tree_simple_types<std::pair<float const ,FlightClass *> > >::_Left
	add	esp, 4
	mov	ecx, DWORD PTR __Wherenode$[ebp]
	cmp	ecx, DWORD PTR [eax]
	jne	SHORT $LN2@Lrotate

; 2124 : 			this->_Left(this->_Parent(_Wherenode)) = _Pnode;

	mov	edx, DWORD PTR __Wherenode$[ebp]
	push	edx
	call	?_Parent@?$_Tree_val@U?$_Tree_simple_types@U?$pair@$$CBMPAVFlightClass@@@std@@@std@@@std@@SAAAPAU?$_Tree_node@U?$pair@$$CBMPAVFlightClass@@@std@@PAX@2@PAU32@@Z ; std::_Tree_val<std::_Tree_simple_types<std::pair<float const ,FlightClass *> > >::_Parent
	add	esp, 4
	mov	eax, DWORD PTR [eax]
	push	eax
	call	?_Left@?$_Tree_val@U?$_Tree_simple_types@U?$pair@$$CBMPAVFlightClass@@@std@@@std@@@std@@SAAAPAU?$_Tree_node@U?$pair@$$CBMPAVFlightClass@@@std@@PAX@2@PAU32@@Z ; std::_Tree_val<std::_Tree_simple_types<std::pair<float const ,FlightClass *> > >::_Left
	add	esp, 4
	mov	ecx, DWORD PTR __Pnode$[ebp]
	mov	DWORD PTR [eax], ecx

; 2125 : 		else

	jmp	SHORT $LN3@Lrotate
$LN2@Lrotate:

; 2126 : 			this->_Right(this->_Parent(_Wherenode)) = _Pnode;

	mov	edx, DWORD PTR __Wherenode$[ebp]
	push	edx
	call	?_Parent@?$_Tree_val@U?$_Tree_simple_types@U?$pair@$$CBMPAVFlightClass@@@std@@@std@@@std@@SAAAPAU?$_Tree_node@U?$pair@$$CBMPAVFlightClass@@@std@@PAX@2@PAU32@@Z ; std::_Tree_val<std::_Tree_simple_types<std::pair<float const ,FlightClass *> > >::_Parent
	add	esp, 4
	mov	eax, DWORD PTR [eax]
	push	eax
	call	?_Right@?$_Tree_val@U?$_Tree_simple_types@U?$pair@$$CBMPAVFlightClass@@@std@@@std@@@std@@SAAAPAU?$_Tree_node@U?$pair@$$CBMPAVFlightClass@@@std@@PAX@2@PAU32@@Z ; std::_Tree_val<std::_Tree_simple_types<std::pair<float const ,FlightClass *> > >::_Right
	add	esp, 4
	mov	ecx, DWORD PTR __Pnode$[ebp]
	mov	DWORD PTR [eax], ecx
$LN3@Lrotate:

; 2127 : 
; 2128 : 		this->_Left(_Pnode) = _Wherenode;

	mov	edx, DWORD PTR __Pnode$[ebp]
	push	edx
	call	?_Left@?$_Tree_val@U?$_Tree_simple_types@U?$pair@$$CBMPAVFlightClass@@@std@@@std@@@std@@SAAAPAU?$_Tree_node@U?$pair@$$CBMPAVFlightClass@@@std@@PAX@2@PAU32@@Z ; std::_Tree_val<std::_Tree_simple_types<std::pair<float const ,FlightClass *> > >::_Left
	add	esp, 4
	mov	ecx, DWORD PTR __Wherenode$[ebp]
	mov	DWORD PTR [eax], ecx

; 2129 : 		this->_Parent(_Wherenode) = _Pnode;

	mov	edx, DWORD PTR __Wherenode$[ebp]
	push	edx
	call	?_Parent@?$_Tree_val@U?$_Tree_simple_types@U?$pair@$$CBMPAVFlightClass@@@std@@@std@@@std@@SAAAPAU?$_Tree_node@U?$pair@$$CBMPAVFlightClass@@@std@@PAX@2@PAU32@@Z ; std::_Tree_val<std::_Tree_simple_types<std::pair<float const ,FlightClass *> > >::_Parent
	add	esp, 4
	mov	ecx, DWORD PTR __Pnode$[ebp]
	mov	DWORD PTR [eax], ecx

; 2130 : 		}

	pop	esi
	mov	esp, ebp
	pop	ebp
	ret	4
?_Lrotate@?$_Tree@V?$_Tmap_traits@MPAVFlightClass@@U?$less@M@std@@V?$allocator@U?$pair@$$CBMPAVFlightClass@@@std@@@3@$0A@@std@@@std@@IAEXPAU?$_Tree_node@U?$pair@$$CBMPAVFlightClass@@@std@@PAX@2@@Z ENDP ; std::_Tree<std::_Tmap_traits<float,FlightClass *,std::less<float>,std::allocator<std::pair<float const ,FlightClass *> >,0> >::_Lrotate
_TEXT	ENDS
; Function compile flags: /Odtp
; File c:\program files (x86)\microsoft visual studio 11.0\vc\include\xtree
;	COMDAT ?_Lmost@?$_Tree@V?$_Tmap_traits@MPAVFlightClass@@U?$less@M@std@@V?$allocator@U?$pair@$$CBMPAVFlightClass@@@std@@@3@$0A@@std@@@std@@IBEAAPAU?$_Tree_node@U?$pair@$$CBMPAVFlightClass@@@std@@PAX@2@XZ
_TEXT	SEGMENT
_this$ = -4						; size = 4
?_Lmost@?$_Tree@V?$_Tmap_traits@MPAVFlightClass@@U?$less@M@std@@V?$allocator@U?$pair@$$CBMPAVFlightClass@@@std@@@3@$0A@@std@@@std@@IBEAAPAU?$_Tree_node@U?$pair@$$CBMPAVFlightClass@@@std@@PAX@2@XZ PROC ; std::_Tree<std::_Tmap_traits<float,FlightClass *,std::less<float>,std::allocator<std::pair<float const ,FlightClass *> >,0> >::_Lmost, COMDAT
; _this$ = ecx

; 2108 : 		{	// return leftmost node in nonmutable tree

	push	ebp
	mov	ebp, esp
	push	ecx
	mov	DWORD PTR _this$[ebp], ecx

; 2109 : 		return (this->_Left(this->_Myhead));

	mov	eax, DWORD PTR _this$[ebp]
	mov	ecx, DWORD PTR [eax]
	push	ecx
	call	?_Left@?$_Tree_val@U?$_Tree_simple_types@U?$pair@$$CBMPAVFlightClass@@@std@@@std@@@std@@SAAAPAU?$_Tree_node@U?$pair@$$CBMPAVFlightClass@@@std@@PAX@2@PAU32@@Z ; std::_Tree_val<std::_Tree_simple_types<std::pair<float const ,FlightClass *> > >::_Left
	add	esp, 4

; 2110 : 		}

	mov	esp, ebp
	pop	ebp
	ret	0
?_Lmost@?$_Tree@V?$_Tmap_traits@MPAVFlightClass@@U?$less@M@std@@V?$allocator@U?$pair@$$CBMPAVFlightClass@@@std@@@3@$0A@@std@@@std@@IBEAAPAU?$_Tree_node@U?$pair@$$CBMPAVFlightClass@@@std@@PAX@2@XZ ENDP ; std::_Tree<std::_Tmap_traits<float,FlightClass *,std::less<float>,std::allocator<std::pair<float const ,FlightClass *> >,0> >::_Lmost
_TEXT	ENDS
; Function compile flags: /Odtp
; File c:\program files (x86)\microsoft visual studio 11.0\vc\include\xtree
;	COMDAT ?_Erase@?$_Tree@V?$_Tmap_traits@MPAVFlightClass@@U?$less@M@std@@V?$allocator@U?$pair@$$CBMPAVFlightClass@@@std@@@3@$0A@@std@@@std@@IAEXPAU?$_Tree_node@U?$pair@$$CBMPAVFlightClass@@@std@@PAX@2@@Z
_TEXT	SEGMENT
_this$ = -12						; size = 4
__Pnode$1 = -8						; size = 4
$T2 = -2						; size = 1
$T3 = -1						; size = 1
__Rootnode$ = 8						; size = 4
?_Erase@?$_Tree@V?$_Tmap_traits@MPAVFlightClass@@U?$less@M@std@@V?$allocator@U?$pair@$$CBMPAVFlightClass@@@std@@@3@$0A@@std@@@std@@IAEXPAU?$_Tree_node@U?$pair@$$CBMPAVFlightClass@@@std@@PAX@2@@Z PROC ; std::_Tree<std::_Tmap_traits<float,FlightClass *,std::less<float>,std::allocator<std::pair<float const ,FlightClass *> >,0> >::_Erase, COMDAT
; _this$ = ecx

; 2060 : 		{	// free entire subtree, recursively

	push	ebp
	mov	ebp, esp
	sub	esp, 12					; 0000000cH
	mov	DWORD PTR _this$[ebp], ecx

; 2061 : 		for (_Nodeptr _Pnode = _Rootnode;

	mov	eax, DWORD PTR __Rootnode$[ebp]
	mov	DWORD PTR __Pnode$1[ebp], eax

; 2062 : 			!this->_Isnil(_Pnode); _Rootnode = _Pnode)

	jmp	SHORT $LN3@Erase
$LN2@Erase:
	mov	ecx, DWORD PTR __Pnode$1[ebp]
	mov	DWORD PTR __Rootnode$[ebp], ecx
$LN3@Erase:
	mov	edx, DWORD PTR __Pnode$1[ebp]
	push	edx
	call	?_Isnil@?$_Tree_val@U?$_Tree_simple_types@U?$pair@$$CBMPAVFlightClass@@@std@@@std@@@std@@SAAADPAU?$_Tree_node@U?$pair@$$CBMPAVFlightClass@@@std@@PAX@2@@Z ; std::_Tree_val<std::_Tree_simple_types<std::pair<float const ,FlightClass *> > >::_Isnil
	add	esp, 4
	movsx	eax, BYTE PTR [eax]
	test	eax, eax
	jne	SHORT $LN4@Erase

; 2063 : 			{	// free subtrees, then node
; 2064 : 			_Erase(this->_Right(_Pnode));

	mov	ecx, DWORD PTR __Pnode$1[ebp]
	push	ecx
	call	?_Right@?$_Tree_val@U?$_Tree_simple_types@U?$pair@$$CBMPAVFlightClass@@@std@@@std@@@std@@SAAAPAU?$_Tree_node@U?$pair@$$CBMPAVFlightClass@@@std@@PAX@2@PAU32@@Z ; std::_Tree_val<std::_Tree_simple_types<std::pair<float const ,FlightClass *> > >::_Right
	add	esp, 4
	mov	edx, DWORD PTR [eax]
	push	edx
	mov	ecx, DWORD PTR _this$[ebp]
	call	?_Erase@?$_Tree@V?$_Tmap_traits@MPAVFlightClass@@U?$less@M@std@@V?$allocator@U?$pair@$$CBMPAVFlightClass@@@std@@@3@$0A@@std@@@std@@IAEXPAU?$_Tree_node@U?$pair@$$CBMPAVFlightClass@@@std@@PAX@2@@Z ; std::_Tree<std::_Tmap_traits<float,FlightClass *,std::less<float>,std::allocator<std::pair<float const ,FlightClass *> >,0> >::_Erase

; 2065 : 			_Pnode = this->_Left(_Pnode);

	mov	eax, DWORD PTR __Pnode$1[ebp]
	push	eax
	call	?_Left@?$_Tree_val@U?$_Tree_simple_types@U?$pair@$$CBMPAVFlightClass@@@std@@@std@@@std@@SAAAPAU?$_Tree_node@U?$pair@$$CBMPAVFlightClass@@@std@@PAX@2@PAU32@@Z ; std::_Tree_val<std::_Tree_simple_types<std::pair<float const ,FlightClass *> > >::_Left
	add	esp, 4
	mov	ecx, DWORD PTR [eax]
	mov	DWORD PTR __Pnode$1[ebp], ecx

; 2066 : 			this->_Getal().destroy(
; 2067 : 				_STD addressof(this->_Myval(_Rootnode)));

	mov	edx, DWORD PTR __Rootnode$[ebp]
	push	edx
	call	?_Myval@?$_Tree_val@U?$_Tree_simple_types@U?$pair@$$CBMPAVFlightClass@@@std@@@std@@@std@@SAAAU?$pair@$$CBMPAVFlightClass@@@2@PAU?$_Tree_node@U?$pair@$$CBMPAVFlightClass@@@std@@PAX@2@@Z ; std::_Tree_val<std::_Tree_simple_types<std::pair<float const ,FlightClass *> > >::_Myval
	add	esp, 4
	push	eax
	call	??$addressof@U?$pair@$$CBMPAVFlightClass@@@std@@@std@@YAPAU?$pair@$$CBMPAVFlightClass@@@0@AAU10@@Z ; std::addressof<std::pair<float const ,FlightClass *> >
	add	esp, 4
	push	eax
	lea	eax, DWORD PTR $T3[ebp]
	push	eax
	mov	ecx, DWORD PTR _this$[ebp]
	call	?_Getal@?$_Tree_alloc@$0A@U?$_Tree_base_types@U?$pair@$$CBMPAVFlightClass@@@std@@V?$allocator@U?$pair@$$CBMPAVFlightClass@@@std@@@2@@std@@@std@@QBE?AU?$_Wrap_alloc@V?$allocator@U?$_Tree_node@U?$pair@$$CBMPAVFlightClass@@@std@@PAX@std@@@std@@@2@XZ ; std::_Tree_alloc<0,std::_Tree_base_types<std::pair<float const ,FlightClass *>,std::allocator<std::pair<float const ,FlightClass *> > > >::_Getal
	mov	ecx, eax
	call	??$destroy@U?$pair@$$CBMPAVFlightClass@@@std@@@?$_Wrap_alloc@V?$allocator@U?$_Tree_node@U?$pair@$$CBMPAVFlightClass@@@std@@PAX@std@@@std@@@std@@QAEXPAU?$pair@$$CBMPAVFlightClass@@@1@@Z ; std::_Wrap_alloc<std::allocator<std::_Tree_node<std::pair<float const ,FlightClass *>,void *> > >::destroy<std::pair<float const ,FlightClass *> >

; 2068 : 
; 2069 : 			this->_Getal().deallocate(_Rootnode, 1);

	push	1
	mov	ecx, DWORD PTR __Rootnode$[ebp]
	push	ecx
	lea	edx, DWORD PTR $T2[ebp]
	push	edx
	mov	ecx, DWORD PTR _this$[ebp]
	call	?_Getal@?$_Tree_alloc@$0A@U?$_Tree_base_types@U?$pair@$$CBMPAVFlightClass@@@std@@V?$allocator@U?$pair@$$CBMPAVFlightClass@@@std@@@2@@std@@@std@@QBE?AU?$_Wrap_alloc@V?$allocator@U?$_Tree_node@U?$pair@$$CBMPAVFlightClass@@@std@@PAX@std@@@std@@@2@XZ ; std::_Tree_alloc<0,std::_Tree_base_types<std::pair<float const ,FlightClass *>,std::allocator<std::pair<float const ,FlightClass *> > > >::_Getal
	mov	ecx, eax
	call	?deallocate@?$_Wrap_alloc@V?$allocator@U?$_Tree_node@U?$pair@$$CBMPAVFlightClass@@@std@@PAX@std@@@std@@@std@@QAEXPAU?$_Tree_node@U?$pair@$$CBMPAVFlightClass@@@std@@PAX@2@I@Z ; std::_Wrap_alloc<std::allocator<std::_Tree_node<std::pair<float const ,FlightClass *>,void *> > >::deallocate

; 2070 : 			}

	jmp	$LN2@Erase
$LN4@Erase:

; 2071 : 		}

	mov	esp, ebp
	pop	ebp
	ret	4
?_Erase@?$_Tree@V?$_Tmap_traits@MPAVFlightClass@@U?$less@M@std@@V?$allocator@U?$pair@$$CBMPAVFlightClass@@@std@@@3@$0A@@std@@@std@@IAEXPAU?$_Tree_node@U?$pair@$$CBMPAVFlightClass@@@std@@PAX@2@@Z ENDP ; std::_Tree<std::_Tmap_traits<float,FlightClass *,std::less<float>,std::allocator<std::pair<float const ,FlightClass *> >,0> >::_Erase
_TEXT	ENDS
; Function compile flags: /Odtp
; File c:\program files (x86)\microsoft visual studio 11.0\vc\include\xtree
;	COMDAT ?clear@?$_Tree@V?$_Tmap_traits@MPAVFlightClass@@U?$less@M@std@@V?$allocator@U?$pair@$$CBMPAVFlightClass@@@std@@@3@$0A@@std@@@std@@QAEXXZ
_TEXT	SEGMENT
_this$ = -4						; size = 4
?clear@?$_Tree@V?$_Tmap_traits@MPAVFlightClass@@U?$less@M@std@@V?$allocator@U?$pair@$$CBMPAVFlightClass@@@std@@@3@$0A@@std@@@std@@QAEXXZ PROC ; std::_Tree<std::_Tmap_traits<float,FlightClass *,std::less<float>,std::allocator<std::pair<float const ,FlightClass *> >,0> >::clear, COMDAT
; _this$ = ecx

; 1532 : 		{	// erase all

	push	ebp
	mov	ebp, esp
	push	ecx
	mov	DWORD PTR _this$[ebp], ecx

; 1533 :  #if _ITERATOR_DEBUG_LEVEL == 2
; 1534 : 		this->_Orphan_ptr(*this, 0);
; 1535 :  #endif /* _ITERATOR_DEBUG_LEVEL == 2 */
; 1536 : 
; 1537 : 		_Erase(_Root());

	mov	ecx, DWORD PTR _this$[ebp]
	call	?_Root@?$_Tree@V?$_Tmap_traits@MPAVFlightClass@@U?$less@M@std@@V?$allocator@U?$pair@$$CBMPAVFlightClass@@@std@@@3@$0A@@std@@@std@@IBEAAPAU?$_Tree_node@U?$pair@$$CBMPAVFlightClass@@@std@@PAX@2@XZ ; std::_Tree<std::_Tmap_traits<float,FlightClass *,std::less<float>,std::allocator<std::pair<float const ,FlightClass *> >,0> >::_Root
	mov	eax, DWORD PTR [eax]
	push	eax
	mov	ecx, DWORD PTR _this$[ebp]
	call	?_Erase@?$_Tree@V?$_Tmap_traits@MPAVFlightClass@@U?$less@M@std@@V?$allocator@U?$pair@$$CBMPAVFlightClass@@@std@@@3@$0A@@std@@@std@@IAEXPAU?$_Tree_node@U?$pair@$$CBMPAVFlightClass@@@std@@PAX@2@@Z ; std::_Tree<std::_Tmap_traits<float,FlightClass *,std::less<float>,std::allocator<std::pair<float const ,FlightClass *> >,0> >::_Erase

; 1538 : 		_Root() = this->_Myhead;

	mov	ecx, DWORD PTR _this$[ebp]
	call	?_Root@?$_Tree@V?$_Tmap_traits@MPAVFlightClass@@U?$less@M@std@@V?$allocator@U?$pair@$$CBMPAVFlightClass@@@std@@@3@$0A@@std@@@std@@IBEAAPAU?$_Tree_node@U?$pair@$$CBMPAVFlightClass@@@std@@PAX@2@XZ ; std::_Tree<std::_Tmap_traits<float,FlightClass *,std::less<float>,std::allocator<std::pair<float const ,FlightClass *> >,0> >::_Root
	mov	ecx, DWORD PTR _this$[ebp]
	mov	edx, DWORD PTR [ecx]
	mov	DWORD PTR [eax], edx

; 1539 : 		_Lmost() = this->_Myhead;

	mov	ecx, DWORD PTR _this$[ebp]
	call	?_Lmost@?$_Tree@V?$_Tmap_traits@MPAVFlightClass@@U?$less@M@std@@V?$allocator@U?$pair@$$CBMPAVFlightClass@@@std@@@3@$0A@@std@@@std@@IBEAAPAU?$_Tree_node@U?$pair@$$CBMPAVFlightClass@@@std@@PAX@2@XZ ; std::_Tree<std::_Tmap_traits<float,FlightClass *,std::less<float>,std::allocator<std::pair<float const ,FlightClass *> >,0> >::_Lmost
	mov	ecx, DWORD PTR _this$[ebp]
	mov	edx, DWORD PTR [ecx]
	mov	DWORD PTR [eax], edx

; 1540 : 		_Rmost() = this->_Myhead;

	mov	ecx, DWORD PTR _this$[ebp]
	call	?_Rmost@?$_Tree@V?$_Tmap_traits@MPAVFlightClass@@U?$less@M@std@@V?$allocator@U?$pair@$$CBMPAVFlightClass@@@std@@@3@$0A@@std@@@std@@IBEAAPAU?$_Tree_node@U?$pair@$$CBMPAVFlightClass@@@std@@PAX@2@XZ ; std::_Tree<std::_Tmap_traits<float,FlightClass *,std::less<float>,std::allocator<std::pair<float const ,FlightClass *> >,0> >::_Rmost
	mov	ecx, DWORD PTR _this$[ebp]
	mov	edx, DWORD PTR [ecx]
	mov	DWORD PTR [eax], edx

; 1541 : 		this->_Mysize = 0;

	mov	eax, DWORD PTR _this$[ebp]
	mov	DWORD PTR [eax+4], 0

; 1542 : 		}

	mov	esp, ebp
	pop	ebp
	ret	0
?clear@?$_Tree@V?$_Tmap_traits@MPAVFlightClass@@U?$less@M@std@@V?$allocator@U?$pair@$$CBMPAVFlightClass@@@std@@@3@$0A@@std@@@std@@QAEXXZ ENDP ; std::_Tree<std::_Tmap_traits<float,FlightClass *,std::less<float>,std::allocator<std::pair<float const ,FlightClass *> >,0> >::clear
_TEXT	ENDS
; Function compile flags: /Odtp
; File c:\program files (x86)\microsoft visual studio 11.0\vc\include\xtree
;	COMDAT ?erase@?$_Tree@V?$_Tmap_traits@MPAVFlightClass@@U?$less@M@std@@V?$allocator@U?$pair@$$CBMPAVFlightClass@@@std@@@3@$0A@@std@@@std@@QAE?AV?$_Tree_iterator@V?$_Tree_val@U?$_Tree_simple_types@U?$pair@$$CBMPAVFlightClass@@@std@@@std@@@std@@@2@V?$_Tree_const_iterator@V?$_Tree_val@U?$_Tree_simple_types@U?$pair@$$CBMPAVFlightClass@@@std@@@std@@@std@@@2@0@Z
_TEXT	SEGMENT
$T1 = -20						; size = 4
$T2 = -16						; size = 4
$T3 = -12						; size = 4
$T4 = -8						; size = 4
_this$ = -4						; size = 4
___$ReturnUdt$ = 8					; size = 4
__First$ = 12						; size = 4
__Last$ = 16						; size = 4
?erase@?$_Tree@V?$_Tmap_traits@MPAVFlightClass@@U?$less@M@std@@V?$allocator@U?$pair@$$CBMPAVFlightClass@@@std@@@3@$0A@@std@@@std@@QAE?AV?$_Tree_iterator@V?$_Tree_val@U?$_Tree_simple_types@U?$pair@$$CBMPAVFlightClass@@@std@@@std@@@std@@@2@V?$_Tree_const_iterator@V?$_Tree_val@U?$_Tree_simple_types@U?$pair@$$CBMPAVFlightClass@@@std@@@std@@@std@@@2@0@Z PROC ; std::_Tree<std::_Tmap_traits<float,FlightClass *,std::less<float>,std::allocator<std::pair<float const ,FlightClass *> >,0> >::erase, COMDAT
; _this$ = ecx

; 1508 : 		{	// erase [_First, _Last)

	push	ebp
	mov	ebp, esp
	sub	esp, 20					; 00000014H
	mov	DWORD PTR _this$[ebp], ecx

; 1509 : 		if (_First == begin() && _Last == end())

	lea	eax, DWORD PTR $T4[ebp]
	push	eax
	mov	ecx, DWORD PTR _this$[ebp]
	call	?begin@?$_Tree@V?$_Tmap_traits@MPAVFlightClass@@U?$less@M@std@@V?$allocator@U?$pair@$$CBMPAVFlightClass@@@std@@@3@$0A@@std@@@std@@QAE?AV?$_Tree_iterator@V?$_Tree_val@U?$_Tree_simple_types@U?$pair@$$CBMPAVFlightClass@@@std@@@std@@@std@@@2@XZ ; std::_Tree<std::_Tmap_traits<float,FlightClass *,std::less<float>,std::allocator<std::pair<float const ,FlightClass *> >,0> >::begin
	push	eax
	lea	ecx, DWORD PTR __First$[ebp]
	call	??8?$_Tree_const_iterator@V?$_Tree_val@U?$_Tree_simple_types@U?$pair@$$CBMPAVFlightClass@@@std@@@std@@@std@@@std@@QBE_NABV01@@Z ; std::_Tree_const_iterator<std::_Tree_val<std::_Tree_simple_types<std::pair<float const ,FlightClass *> > > >::operator==
	movzx	ecx, al
	test	ecx, ecx
	je	SHORT $LN2@erase
	lea	edx, DWORD PTR $T3[ebp]
	push	edx
	mov	ecx, DWORD PTR _this$[ebp]
	call	?end@?$_Tree@V?$_Tmap_traits@MPAVFlightClass@@U?$less@M@std@@V?$allocator@U?$pair@$$CBMPAVFlightClass@@@std@@@3@$0A@@std@@@std@@QAE?AV?$_Tree_iterator@V?$_Tree_val@U?$_Tree_simple_types@U?$pair@$$CBMPAVFlightClass@@@std@@@std@@@std@@@2@XZ ; std::_Tree<std::_Tmap_traits<float,FlightClass *,std::less<float>,std::allocator<std::pair<float const ,FlightClass *> >,0> >::end
	push	eax
	lea	ecx, DWORD PTR __Last$[ebp]
	call	??8?$_Tree_const_iterator@V?$_Tree_val@U?$_Tree_simple_types@U?$pair@$$CBMPAVFlightClass@@@std@@@std@@@std@@@std@@QBE_NABV01@@Z ; std::_Tree_const_iterator<std::_Tree_val<std::_Tree_simple_types<std::pair<float const ,FlightClass *> > > >::operator==
	movzx	eax, al
	test	eax, eax
	je	SHORT $LN2@erase

; 1510 : 			{	// erase all
; 1511 : 			clear();

	mov	ecx, DWORD PTR _this$[ebp]
	call	?clear@?$_Tree@V?$_Tmap_traits@MPAVFlightClass@@U?$less@M@std@@V?$allocator@U?$pair@$$CBMPAVFlightClass@@@std@@@3@$0A@@std@@@std@@QAEXXZ ; std::_Tree<std::_Tmap_traits<float,FlightClass *,std::less<float>,std::allocator<std::pair<float const ,FlightClass *> >,0> >::clear

; 1512 : 			return (begin());

	mov	ecx, DWORD PTR ___$ReturnUdt$[ebp]
	push	ecx
	mov	ecx, DWORD PTR _this$[ebp]
	call	?begin@?$_Tree@V?$_Tmap_traits@MPAVFlightClass@@U?$less@M@std@@V?$allocator@U?$pair@$$CBMPAVFlightClass@@@std@@@3@$0A@@std@@@std@@QAE?AV?$_Tree_iterator@V?$_Tree_val@U?$_Tree_simple_types@U?$pair@$$CBMPAVFlightClass@@@std@@@std@@@std@@@2@XZ ; std::_Tree<std::_Tmap_traits<float,FlightClass *,std::less<float>,std::allocator<std::pair<float const ,FlightClass *> >,0> >::begin
	mov	eax, DWORD PTR ___$ReturnUdt$[ebp]
	jmp	SHORT $LN5@erase

; 1513 : 			}
; 1514 : 		else

	jmp	SHORT $LN5@erase
$LN2@erase:

; 1515 : 			{	// partial erase, one at a time
; 1516 : 			while (_First != _Last)

	lea	edx, DWORD PTR __Last$[ebp]
	push	edx
	lea	ecx, DWORD PTR __First$[ebp]
	call	??9?$_Tree_const_iterator@V?$_Tree_val@U?$_Tree_simple_types@U?$pair@$$CBMPAVFlightClass@@@std@@@std@@@std@@@std@@QBE_NABV01@@Z ; std::_Tree_const_iterator<std::_Tree_val<std::_Tree_simple_types<std::pair<float const ,FlightClass *> > > >::operator!=
	movzx	eax, al
	test	eax, eax
	je	SHORT $LN1@erase

; 1517 : 				erase(_First++);

	push	0
	lea	ecx, DWORD PTR $T2[ebp]
	push	ecx
	lea	ecx, DWORD PTR __First$[ebp]
	call	??E?$_Tree_const_iterator@V?$_Tree_val@U?$_Tree_simple_types@U?$pair@$$CBMPAVFlightClass@@@std@@@std@@@std@@@std@@QAE?AV01@H@Z ; std::_Tree_const_iterator<std::_Tree_val<std::_Tree_simple_types<std::pair<float const ,FlightClass *> > > >::operator++
	mov	edx, DWORD PTR [eax]
	push	edx
	lea	eax, DWORD PTR $T1[ebp]
	push	eax
	mov	ecx, DWORD PTR _this$[ebp]
	call	?erase@?$_Tree@V?$_Tmap_traits@MPAVFlightClass@@U?$less@M@std@@V?$allocator@U?$pair@$$CBMPAVFlightClass@@@std@@@3@$0A@@std@@@std@@QAE?AV?$_Tree_iterator@V?$_Tree_val@U?$_Tree_simple_types@U?$pair@$$CBMPAVFlightClass@@@std@@@std@@@std@@@2@V?$_Tree_const_iterator@V?$_Tree_val@U?$_Tree_simple_types@U?$pair@$$CBMPAVFlightClass@@@std@@@std@@@std@@@2@@Z ; std::_Tree<std::_Tmap_traits<float,FlightClass *,std::less<float>,std::allocator<std::pair<float const ,FlightClass *> >,0> >::erase
	jmp	SHORT $LN2@erase
$LN1@erase:

; 1518 : 			return (iterator(_First._Ptr, this));

	mov	ecx, DWORD PTR _this$[ebp]
	push	ecx
	mov	edx, DWORD PTR __First$[ebp]
	push	edx
	mov	ecx, DWORD PTR ___$ReturnUdt$[ebp]
	call	??0?$_Tree_iterator@V?$_Tree_val@U?$_Tree_simple_types@U?$pair@$$CBMPAVFlightClass@@@std@@@std@@@std@@@std@@QAE@PAU?$_Tree_node@U?$pair@$$CBMPAVFlightClass@@@std@@PAX@1@PBV?$_Tree_val@U?$_Tree_simple_types@U?$pair@$$CBMPAVFlightClass@@@std@@@std@@@1@@Z ; std::_Tree_iterator<std::_Tree_val<std::_Tree_simple_types<std::pair<float const ,FlightClass *> > > >::_Tree_iterator<std::_Tree_val<std::_Tree_simple_types<std::pair<float const ,FlightClass *> > > >
	mov	eax, DWORD PTR ___$ReturnUdt$[ebp]
$LN5@erase:

; 1519 : 			}
; 1520 : 		}

	mov	esp, ebp
	pop	ebp
	ret	12					; 0000000cH
?erase@?$_Tree@V?$_Tmap_traits@MPAVFlightClass@@U?$less@M@std@@V?$allocator@U?$pair@$$CBMPAVFlightClass@@@std@@@3@$0A@@std@@@std@@QAE?AV?$_Tree_iterator@V?$_Tree_val@U?$_Tree_simple_types@U?$pair@$$CBMPAVFlightClass@@@std@@@std@@@std@@@2@V?$_Tree_const_iterator@V?$_Tree_val@U?$_Tree_simple_types@U?$pair@$$CBMPAVFlightClass@@@std@@@std@@@std@@@2@0@Z ENDP ; std::_Tree<std::_Tmap_traits<float,FlightClass *,std::less<float>,std::allocator<std::pair<float const ,FlightClass *> >,0> >::erase
_TEXT	ENDS
; Function compile flags: /Odtp
; File c:\program files (x86)\microsoft visual studio 11.0\vc\include\xtree
;	COMDAT ?erase@?$_Tree@V?$_Tmap_traits@MPAVFlightClass@@U?$less@M@std@@V?$allocator@U?$pair@$$CBMPAVFlightClass@@@std@@@3@$0A@@std@@@std@@QAE?AV?$_Tree_iterator@V?$_Tree_val@U?$_Tree_simple_types@U?$pair@$$CBMPAVFlightClass@@@std@@@std@@@std@@@2@V?$_Tree_const_iterator@V?$_Tree_val@U?$_Tree_simple_types@U?$pair@$$CBMPAVFlightClass@@@std@@@std@@@std@@@2@@Z
_TEXT	SEGMENT
tv182 = -32						; size = 4
tv170 = -28						; size = 4
_this$ = -24						; size = 4
__Erasednode$ = -20					; size = 4
__Fixnode$ = -16					; size = 4
__Fixnodeparent$ = -12					; size = 4
__Pnode$ = -8						; size = 4
$T1 = -2						; size = 1
$T2 = -1						; size = 1
___$ReturnUdt$ = 8					; size = 4
__Where$ = 12						; size = 4
?erase@?$_Tree@V?$_Tmap_traits@MPAVFlightClass@@U?$less@M@std@@V?$allocator@U?$pair@$$CBMPAVFlightClass@@@std@@@3@$0A@@std@@@std@@QAE?AV?$_Tree_iterator@V?$_Tree_val@U?$_Tree_simple_types@U?$pair@$$CBMPAVFlightClass@@@std@@@std@@@std@@@2@V?$_Tree_const_iterator@V?$_Tree_val@U?$_Tree_simple_types@U?$pair@$$CBMPAVFlightClass@@@std@@@std@@@std@@@2@@Z PROC ; std::_Tree<std::_Tmap_traits<float,FlightClass *,std::less<float>,std::allocator<std::pair<float const ,FlightClass *> >,0> >::erase, COMDAT
; _this$ = ecx

; 1323 : 		{	// erase element at _Where

	push	ebp
	mov	ebp, esp
	sub	esp, 32					; 00000020H
	push	esi
	mov	DWORD PTR _this$[ebp], ecx

; 1324 :  #if _ITERATOR_DEBUG_LEVEL == 2
; 1325 : 		if (_Where._Getcont() != this || this->_Isnil(_Where._Mynode()))
; 1326 : 			_DEBUG_ERROR("map/set erase iterator outside range");
; 1327 : 		_Nodeptr _Erasednode = _Where._Mynode();	// node to erase
; 1328 : 		++_Where;	// save successor iterator for return
; 1329 : 		_Orphan_ptr(*this, _Erasednode);
; 1330 : 
; 1331 :  #else /* _ITERATOR_DEBUG_LEVEL == 2 */
; 1332 : 		if (this->_Isnil(_Where._Mynode()))

	lea	ecx, DWORD PTR __Where$[ebp]
	call	?_Mynode@?$_Tree_unchecked_const_iterator@V?$_Tree_val@U?$_Tree_simple_types@U?$pair@$$CBMPAVFlightClass@@@std@@@std@@@std@@U_Iterator_base0@2@@std@@QBEPAU?$_Tree_node@U?$pair@$$CBMPAVFlightClass@@@std@@PAX@2@XZ ; std::_Tree_unchecked_const_iterator<std::_Tree_val<std::_Tree_simple_types<std::pair<float const ,FlightClass *> > >,std::_Iterator_base0>::_Mynode
	push	eax
	call	?_Isnil@?$_Tree_val@U?$_Tree_simple_types@U?$pair@$$CBMPAVFlightClass@@@std@@@std@@@std@@SAAADPAU?$_Tree_node@U?$pair@$$CBMPAVFlightClass@@@std@@PAX@2@@Z ; std::_Tree_val<std::_Tree_simple_types<std::pair<float const ,FlightClass *> > >::_Isnil
	add	esp, 4
	movsx	eax, BYTE PTR [eax]
	test	eax, eax
	je	SHORT $LN40@erase

; 1333 : 			_Xout_of_range("invalid map/set<T> iterator");

	push	OFFSET ??_C@_0BM@PAPJHAGI@invalid?5map?1set?$DMT?$DO?5iterator?$AA@
	call	?_Xout_of_range@std@@YAXPBD@Z		; std::_Xout_of_range
$LN40@erase:

; 1334 : 		_Nodeptr _Erasednode = _Where._Mynode();	// node to erase

	lea	ecx, DWORD PTR __Where$[ebp]
	call	?_Mynode@?$_Tree_unchecked_const_iterator@V?$_Tree_val@U?$_Tree_simple_types@U?$pair@$$CBMPAVFlightClass@@@std@@@std@@@std@@U_Iterator_base0@2@@std@@QBEPAU?$_Tree_node@U?$pair@$$CBMPAVFlightClass@@@std@@PAX@2@XZ ; std::_Tree_unchecked_const_iterator<std::_Tree_val<std::_Tree_simple_types<std::pair<float const ,FlightClass *> > >,std::_Iterator_base0>::_Mynode
	mov	DWORD PTR __Erasednode$[ebp], eax

; 1335 : 		++_Where;	// save successor iterator for return

	lea	ecx, DWORD PTR __Where$[ebp]
	call	??E?$_Tree_const_iterator@V?$_Tree_val@U?$_Tree_simple_types@U?$pair@$$CBMPAVFlightClass@@@std@@@std@@@std@@@std@@QAEAAV01@XZ ; std::_Tree_const_iterator<std::_Tree_val<std::_Tree_simple_types<std::pair<float const ,FlightClass *> > > >::operator++

; 1336 :  #endif /* _ITERATOR_DEBUG_LEVEL == 2 */
; 1337 : 
; 1338 : 		_Nodeptr _Fixnode;	// the node to recolor as needed
; 1339 : 		_Nodeptr _Fixnodeparent;	// parent of _Fixnode (which may be nil)
; 1340 : 		_Nodeptr _Pnode = _Erasednode;

	mov	ecx, DWORD PTR __Erasednode$[ebp]
	mov	DWORD PTR __Pnode$[ebp], ecx

; 1341 : 
; 1342 : 		if (this->_Isnil(this->_Left(_Pnode)))

	mov	edx, DWORD PTR __Pnode$[ebp]
	push	edx
	call	?_Left@?$_Tree_val@U?$_Tree_simple_types@U?$pair@$$CBMPAVFlightClass@@@std@@@std@@@std@@SAAAPAU?$_Tree_node@U?$pair@$$CBMPAVFlightClass@@@std@@PAX@2@PAU32@@Z ; std::_Tree_val<std::_Tree_simple_types<std::pair<float const ,FlightClass *> > >::_Left
	add	esp, 4
	mov	eax, DWORD PTR [eax]
	push	eax
	call	?_Isnil@?$_Tree_val@U?$_Tree_simple_types@U?$pair@$$CBMPAVFlightClass@@@std@@@std@@@std@@SAAADPAU?$_Tree_node@U?$pair@$$CBMPAVFlightClass@@@std@@PAX@2@@Z ; std::_Tree_val<std::_Tree_simple_types<std::pair<float const ,FlightClass *> > >::_Isnil
	add	esp, 4
	movsx	ecx, BYTE PTR [eax]
	test	ecx, ecx
	je	SHORT $LN39@erase

; 1343 : 			_Fixnode = this->_Right(_Pnode);	// stitch up right subtree

	mov	edx, DWORD PTR __Pnode$[ebp]
	push	edx
	call	?_Right@?$_Tree_val@U?$_Tree_simple_types@U?$pair@$$CBMPAVFlightClass@@@std@@@std@@@std@@SAAAPAU?$_Tree_node@U?$pair@$$CBMPAVFlightClass@@@std@@PAX@2@PAU32@@Z ; std::_Tree_val<std::_Tree_simple_types<std::pair<float const ,FlightClass *> > >::_Right
	add	esp, 4
	mov	eax, DWORD PTR [eax]
	mov	DWORD PTR __Fixnode$[ebp], eax
	jmp	SHORT $LN38@erase
$LN39@erase:

; 1344 : 		else if (this->_Isnil(this->_Right(_Pnode)))

	mov	ecx, DWORD PTR __Pnode$[ebp]
	push	ecx
	call	?_Right@?$_Tree_val@U?$_Tree_simple_types@U?$pair@$$CBMPAVFlightClass@@@std@@@std@@@std@@SAAAPAU?$_Tree_node@U?$pair@$$CBMPAVFlightClass@@@std@@PAX@2@PAU32@@Z ; std::_Tree_val<std::_Tree_simple_types<std::pair<float const ,FlightClass *> > >::_Right
	add	esp, 4
	mov	edx, DWORD PTR [eax]
	push	edx
	call	?_Isnil@?$_Tree_val@U?$_Tree_simple_types@U?$pair@$$CBMPAVFlightClass@@@std@@@std@@@std@@SAAADPAU?$_Tree_node@U?$pair@$$CBMPAVFlightClass@@@std@@PAX@2@@Z ; std::_Tree_val<std::_Tree_simple_types<std::pair<float const ,FlightClass *> > >::_Isnil
	add	esp, 4
	movsx	eax, BYTE PTR [eax]
	test	eax, eax
	je	SHORT $LN37@erase

; 1345 : 			_Fixnode = this->_Left(_Pnode);	// stitch up left subtree

	mov	ecx, DWORD PTR __Pnode$[ebp]
	push	ecx
	call	?_Left@?$_Tree_val@U?$_Tree_simple_types@U?$pair@$$CBMPAVFlightClass@@@std@@@std@@@std@@SAAAPAU?$_Tree_node@U?$pair@$$CBMPAVFlightClass@@@std@@PAX@2@PAU32@@Z ; std::_Tree_val<std::_Tree_simple_types<std::pair<float const ,FlightClass *> > >::_Left
	add	esp, 4
	mov	edx, DWORD PTR [eax]
	mov	DWORD PTR __Fixnode$[ebp], edx

; 1346 : 		else

	jmp	SHORT $LN38@erase
$LN37@erase:

; 1347 : 			{	// two subtrees, must lift successor node to replace erased
; 1348 : 			_Pnode = _Where._Mynode();	// _Pnode is successor node

	lea	ecx, DWORD PTR __Where$[ebp]
	call	?_Mynode@?$_Tree_unchecked_const_iterator@V?$_Tree_val@U?$_Tree_simple_types@U?$pair@$$CBMPAVFlightClass@@@std@@@std@@@std@@U_Iterator_base0@2@@std@@QBEPAU?$_Tree_node@U?$pair@$$CBMPAVFlightClass@@@std@@PAX@2@XZ ; std::_Tree_unchecked_const_iterator<std::_Tree_val<std::_Tree_simple_types<std::pair<float const ,FlightClass *> > >,std::_Iterator_base0>::_Mynode
	mov	DWORD PTR __Pnode$[ebp], eax

; 1349 : 			_Fixnode = this->_Right(_Pnode);	// _Fixnode is only subtree

	mov	eax, DWORD PTR __Pnode$[ebp]
	push	eax
	call	?_Right@?$_Tree_val@U?$_Tree_simple_types@U?$pair@$$CBMPAVFlightClass@@@std@@@std@@@std@@SAAAPAU?$_Tree_node@U?$pair@$$CBMPAVFlightClass@@@std@@PAX@2@PAU32@@Z ; std::_Tree_val<std::_Tree_simple_types<std::pair<float const ,FlightClass *> > >::_Right
	add	esp, 4
	mov	ecx, DWORD PTR [eax]
	mov	DWORD PTR __Fixnode$[ebp], ecx
$LN38@erase:

; 1350 : 			}
; 1351 : 
; 1352 : 		if (_Pnode == _Erasednode)

	mov	edx, DWORD PTR __Pnode$[ebp]
	cmp	edx, DWORD PTR __Erasednode$[ebp]
	jne	$LN35@erase

; 1353 : 			{	// at most one subtree, relink it
; 1354 : 			_Fixnodeparent = this->_Parent(_Erasednode);

	mov	eax, DWORD PTR __Erasednode$[ebp]
	push	eax
	call	?_Parent@?$_Tree_val@U?$_Tree_simple_types@U?$pair@$$CBMPAVFlightClass@@@std@@@std@@@std@@SAAAPAU?$_Tree_node@U?$pair@$$CBMPAVFlightClass@@@std@@PAX@2@PAU32@@Z ; std::_Tree_val<std::_Tree_simple_types<std::pair<float const ,FlightClass *> > >::_Parent
	add	esp, 4
	mov	ecx, DWORD PTR [eax]
	mov	DWORD PTR __Fixnodeparent$[ebp], ecx

; 1355 : 			if (!this->_Isnil(_Fixnode))

	mov	edx, DWORD PTR __Fixnode$[ebp]
	push	edx
	call	?_Isnil@?$_Tree_val@U?$_Tree_simple_types@U?$pair@$$CBMPAVFlightClass@@@std@@@std@@@std@@SAAADPAU?$_Tree_node@U?$pair@$$CBMPAVFlightClass@@@std@@PAX@2@@Z ; std::_Tree_val<std::_Tree_simple_types<std::pair<float const ,FlightClass *> > >::_Isnil
	add	esp, 4
	movsx	eax, BYTE PTR [eax]
	test	eax, eax
	jne	SHORT $LN34@erase

; 1356 : 				this->_Parent(_Fixnode) = _Fixnodeparent;	// link up

	mov	ecx, DWORD PTR __Fixnode$[ebp]
	push	ecx
	call	?_Parent@?$_Tree_val@U?$_Tree_simple_types@U?$pair@$$CBMPAVFlightClass@@@std@@@std@@@std@@SAAAPAU?$_Tree_node@U?$pair@$$CBMPAVFlightClass@@@std@@PAX@2@PAU32@@Z ; std::_Tree_val<std::_Tree_simple_types<std::pair<float const ,FlightClass *> > >::_Parent
	add	esp, 4
	mov	edx, DWORD PTR __Fixnodeparent$[ebp]
	mov	DWORD PTR [eax], edx
$LN34@erase:

; 1357 : 
; 1358 : 			if (_Root() == _Erasednode)

	mov	ecx, DWORD PTR _this$[ebp]
	call	?_Root@?$_Tree@V?$_Tmap_traits@MPAVFlightClass@@U?$less@M@std@@V?$allocator@U?$pair@$$CBMPAVFlightClass@@@std@@@3@$0A@@std@@@std@@IBEAAPAU?$_Tree_node@U?$pair@$$CBMPAVFlightClass@@@std@@PAX@2@XZ ; std::_Tree<std::_Tmap_traits<float,FlightClass *,std::less<float>,std::allocator<std::pair<float const ,FlightClass *> >,0> >::_Root
	mov	eax, DWORD PTR [eax]
	cmp	eax, DWORD PTR __Erasednode$[ebp]
	jne	SHORT $LN33@erase

; 1359 : 				_Root() = _Fixnode;	// link down from root

	mov	ecx, DWORD PTR _this$[ebp]
	call	?_Root@?$_Tree@V?$_Tmap_traits@MPAVFlightClass@@U?$less@M@std@@V?$allocator@U?$pair@$$CBMPAVFlightClass@@@std@@@3@$0A@@std@@@std@@IBEAAPAU?$_Tree_node@U?$pair@$$CBMPAVFlightClass@@@std@@PAX@2@XZ ; std::_Tree<std::_Tmap_traits<float,FlightClass *,std::less<float>,std::allocator<std::pair<float const ,FlightClass *> >,0> >::_Root
	mov	ecx, DWORD PTR __Fixnode$[ebp]
	mov	DWORD PTR [eax], ecx
	jmp	SHORT $LN32@erase
$LN33@erase:

; 1360 : 			else if (this->_Left(_Fixnodeparent) == _Erasednode)

	mov	edx, DWORD PTR __Fixnodeparent$[ebp]
	push	edx
	call	?_Left@?$_Tree_val@U?$_Tree_simple_types@U?$pair@$$CBMPAVFlightClass@@@std@@@std@@@std@@SAAAPAU?$_Tree_node@U?$pair@$$CBMPAVFlightClass@@@std@@PAX@2@PAU32@@Z ; std::_Tree_val<std::_Tree_simple_types<std::pair<float const ,FlightClass *> > >::_Left
	add	esp, 4
	mov	eax, DWORD PTR [eax]
	cmp	eax, DWORD PTR __Erasednode$[ebp]
	jne	SHORT $LN31@erase

; 1361 : 				this->_Left(_Fixnodeparent) = _Fixnode;	// link down to left

	mov	ecx, DWORD PTR __Fixnodeparent$[ebp]
	push	ecx
	call	?_Left@?$_Tree_val@U?$_Tree_simple_types@U?$pair@$$CBMPAVFlightClass@@@std@@@std@@@std@@SAAAPAU?$_Tree_node@U?$pair@$$CBMPAVFlightClass@@@std@@PAX@2@PAU32@@Z ; std::_Tree_val<std::_Tree_simple_types<std::pair<float const ,FlightClass *> > >::_Left
	add	esp, 4
	mov	edx, DWORD PTR __Fixnode$[ebp]
	mov	DWORD PTR [eax], edx

; 1362 : 			else

	jmp	SHORT $LN32@erase
$LN31@erase:

; 1363 : 				this->_Right(_Fixnodeparent) =
; 1364 : 					_Fixnode;	// link down to right

	mov	eax, DWORD PTR __Fixnodeparent$[ebp]
	push	eax
	call	?_Right@?$_Tree_val@U?$_Tree_simple_types@U?$pair@$$CBMPAVFlightClass@@@std@@@std@@@std@@SAAAPAU?$_Tree_node@U?$pair@$$CBMPAVFlightClass@@@std@@PAX@2@PAU32@@Z ; std::_Tree_val<std::_Tree_simple_types<std::pair<float const ,FlightClass *> > >::_Right
	add	esp, 4
	mov	ecx, DWORD PTR __Fixnode$[ebp]
	mov	DWORD PTR [eax], ecx
$LN32@erase:

; 1365 : 
; 1366 : 			if (_Lmost() == _Erasednode)

	mov	ecx, DWORD PTR _this$[ebp]
	call	?_Lmost@?$_Tree@V?$_Tmap_traits@MPAVFlightClass@@U?$less@M@std@@V?$allocator@U?$pair@$$CBMPAVFlightClass@@@std@@@3@$0A@@std@@@std@@IBEAAPAU?$_Tree_node@U?$pair@$$CBMPAVFlightClass@@@std@@PAX@2@XZ ; std::_Tree<std::_Tmap_traits<float,FlightClass *,std::less<float>,std::allocator<std::pair<float const ,FlightClass *> >,0> >::_Lmost
	mov	edx, DWORD PTR [eax]
	cmp	edx, DWORD PTR __Erasednode$[ebp]
	jne	SHORT $LN29@erase

; 1367 : 				_Lmost() = this->_Isnil(_Fixnode)
; 1368 : 					? _Fixnodeparent	// smallest is parent of erased node
; 1369 : 					: this->_Min(_Fixnode);	// smallest in relinked subtree

	mov	eax, DWORD PTR __Fixnode$[ebp]
	push	eax
	call	?_Isnil@?$_Tree_val@U?$_Tree_simple_types@U?$pair@$$CBMPAVFlightClass@@@std@@@std@@@std@@SAAADPAU?$_Tree_node@U?$pair@$$CBMPAVFlightClass@@@std@@PAX@2@@Z ; std::_Tree_val<std::_Tree_simple_types<std::pair<float const ,FlightClass *> > >::_Isnil
	add	esp, 4
	movsx	ecx, BYTE PTR [eax]
	test	ecx, ecx
	je	SHORT $LN43@erase
	mov	edx, DWORD PTR __Fixnodeparent$[ebp]
	mov	DWORD PTR tv170[ebp], edx
	jmp	SHORT $LN44@erase
$LN43@erase:
	mov	eax, DWORD PTR __Fixnode$[ebp]
	push	eax
	call	?_Min@?$_Tree_val@U?$_Tree_simple_types@U?$pair@$$CBMPAVFlightClass@@@std@@@std@@@std@@SAPAU?$_Tree_node@U?$pair@$$CBMPAVFlightClass@@@std@@PAX@2@PAU32@@Z ; std::_Tree_val<std::_Tree_simple_types<std::pair<float const ,FlightClass *> > >::_Min
	add	esp, 4
	mov	DWORD PTR tv170[ebp], eax
$LN44@erase:
	mov	ecx, DWORD PTR _this$[ebp]
	call	?_Lmost@?$_Tree@V?$_Tmap_traits@MPAVFlightClass@@U?$less@M@std@@V?$allocator@U?$pair@$$CBMPAVFlightClass@@@std@@@3@$0A@@std@@@std@@IBEAAPAU?$_Tree_node@U?$pair@$$CBMPAVFlightClass@@@std@@PAX@2@XZ ; std::_Tree<std::_Tmap_traits<float,FlightClass *,std::less<float>,std::allocator<std::pair<float const ,FlightClass *> >,0> >::_Lmost
	mov	ecx, DWORD PTR tv170[ebp]
	mov	DWORD PTR [eax], ecx
$LN29@erase:

; 1370 : 
; 1371 : 			if (_Rmost() == _Erasednode)

	mov	ecx, DWORD PTR _this$[ebp]
	call	?_Rmost@?$_Tree@V?$_Tmap_traits@MPAVFlightClass@@U?$less@M@std@@V?$allocator@U?$pair@$$CBMPAVFlightClass@@@std@@@3@$0A@@std@@@std@@IBEAAPAU?$_Tree_node@U?$pair@$$CBMPAVFlightClass@@@std@@PAX@2@XZ ; std::_Tree<std::_Tmap_traits<float,FlightClass *,std::less<float>,std::allocator<std::pair<float const ,FlightClass *> >,0> >::_Rmost
	mov	edx, DWORD PTR [eax]
	cmp	edx, DWORD PTR __Erasednode$[ebp]
	jne	SHORT $LN28@erase

; 1372 : 				_Rmost() = this->_Isnil(_Fixnode)
; 1373 : 					? _Fixnodeparent	// largest is parent of erased node
; 1374 : 					: this->_Max(_Fixnode);	// largest in relinked subtree

	mov	eax, DWORD PTR __Fixnode$[ebp]
	push	eax
	call	?_Isnil@?$_Tree_val@U?$_Tree_simple_types@U?$pair@$$CBMPAVFlightClass@@@std@@@std@@@std@@SAAADPAU?$_Tree_node@U?$pair@$$CBMPAVFlightClass@@@std@@PAX@2@@Z ; std::_Tree_val<std::_Tree_simple_types<std::pair<float const ,FlightClass *> > >::_Isnil
	add	esp, 4
	movsx	ecx, BYTE PTR [eax]
	test	ecx, ecx
	je	SHORT $LN45@erase
	mov	edx, DWORD PTR __Fixnodeparent$[ebp]
	mov	DWORD PTR tv182[ebp], edx
	jmp	SHORT $LN46@erase
$LN45@erase:
	mov	eax, DWORD PTR __Fixnode$[ebp]
	push	eax
	call	?_Max@?$_Tree_val@U?$_Tree_simple_types@U?$pair@$$CBMPAVFlightClass@@@std@@@std@@@std@@SAPAU?$_Tree_node@U?$pair@$$CBMPAVFlightClass@@@std@@PAX@2@PAU32@@Z ; std::_Tree_val<std::_Tree_simple_types<std::pair<float const ,FlightClass *> > >::_Max
	add	esp, 4
	mov	DWORD PTR tv182[ebp], eax
$LN46@erase:
	mov	ecx, DWORD PTR _this$[ebp]
	call	?_Rmost@?$_Tree@V?$_Tmap_traits@MPAVFlightClass@@U?$less@M@std@@V?$allocator@U?$pair@$$CBMPAVFlightClass@@@std@@@3@$0A@@std@@@std@@IBEAAPAU?$_Tree_node@U?$pair@$$CBMPAVFlightClass@@@std@@PAX@2@XZ ; std::_Tree<std::_Tmap_traits<float,FlightClass *,std::less<float>,std::allocator<std::pair<float const ,FlightClass *> >,0> >::_Rmost
	mov	ecx, DWORD PTR tv182[ebp]
	mov	DWORD PTR [eax], ecx
$LN28@erase:

; 1375 : 			}
; 1376 : 		else

	jmp	$LN27@erase
$LN35@erase:

; 1377 : 			{	// erased has two subtrees, _Pnode is successor to erased
; 1378 : 			this->_Parent(this->_Left(_Erasednode)) =
; 1379 : 				_Pnode;	// link left up

	mov	edx, DWORD PTR __Erasednode$[ebp]
	push	edx
	call	?_Left@?$_Tree_val@U?$_Tree_simple_types@U?$pair@$$CBMPAVFlightClass@@@std@@@std@@@std@@SAAAPAU?$_Tree_node@U?$pair@$$CBMPAVFlightClass@@@std@@PAX@2@PAU32@@Z ; std::_Tree_val<std::_Tree_simple_types<std::pair<float const ,FlightClass *> > >::_Left
	add	esp, 4
	mov	eax, DWORD PTR [eax]
	push	eax
	call	?_Parent@?$_Tree_val@U?$_Tree_simple_types@U?$pair@$$CBMPAVFlightClass@@@std@@@std@@@std@@SAAAPAU?$_Tree_node@U?$pair@$$CBMPAVFlightClass@@@std@@PAX@2@PAU32@@Z ; std::_Tree_val<std::_Tree_simple_types<std::pair<float const ,FlightClass *> > >::_Parent
	add	esp, 4
	mov	ecx, DWORD PTR __Pnode$[ebp]
	mov	DWORD PTR [eax], ecx

; 1380 : 			this->_Left(_Pnode) =
; 1381 : 				this->_Left(_Erasednode);	// link successor down

	mov	edx, DWORD PTR __Erasednode$[ebp]
	push	edx
	call	?_Left@?$_Tree_val@U?$_Tree_simple_types@U?$pair@$$CBMPAVFlightClass@@@std@@@std@@@std@@SAAAPAU?$_Tree_node@U?$pair@$$CBMPAVFlightClass@@@std@@PAX@2@PAU32@@Z ; std::_Tree_val<std::_Tree_simple_types<std::pair<float const ,FlightClass *> > >::_Left
	add	esp, 4
	mov	esi, eax
	mov	eax, DWORD PTR __Pnode$[ebp]
	push	eax
	call	?_Left@?$_Tree_val@U?$_Tree_simple_types@U?$pair@$$CBMPAVFlightClass@@@std@@@std@@@std@@SAAAPAU?$_Tree_node@U?$pair@$$CBMPAVFlightClass@@@std@@PAX@2@PAU32@@Z ; std::_Tree_val<std::_Tree_simple_types<std::pair<float const ,FlightClass *> > >::_Left
	add	esp, 4
	mov	ecx, DWORD PTR [esi]
	mov	DWORD PTR [eax], ecx

; 1382 : 
; 1383 : 			if (_Pnode == this->_Right(_Erasednode))

	mov	edx, DWORD PTR __Erasednode$[ebp]
	push	edx
	call	?_Right@?$_Tree_val@U?$_Tree_simple_types@U?$pair@$$CBMPAVFlightClass@@@std@@@std@@@std@@SAAAPAU?$_Tree_node@U?$pair@$$CBMPAVFlightClass@@@std@@PAX@2@PAU32@@Z ; std::_Tree_val<std::_Tree_simple_types<std::pair<float const ,FlightClass *> > >::_Right
	add	esp, 4
	mov	ecx, DWORD PTR __Pnode$[ebp]
	cmp	ecx, DWORD PTR [eax]
	jne	SHORT $LN26@erase

; 1384 : 				_Fixnodeparent = _Pnode;	// successor is next to erased

	mov	edx, DWORD PTR __Pnode$[ebp]
	mov	DWORD PTR __Fixnodeparent$[ebp], edx

; 1385 : 			else

	jmp	$LN25@erase
$LN26@erase:

; 1386 : 				{	// successor further down, link in place of erased
; 1387 : 				_Fixnodeparent =
; 1388 : 					this->_Parent(_Pnode);	// parent is successor's

	mov	eax, DWORD PTR __Pnode$[ebp]
	push	eax
	call	?_Parent@?$_Tree_val@U?$_Tree_simple_types@U?$pair@$$CBMPAVFlightClass@@@std@@@std@@@std@@SAAAPAU?$_Tree_node@U?$pair@$$CBMPAVFlightClass@@@std@@PAX@2@PAU32@@Z ; std::_Tree_val<std::_Tree_simple_types<std::pair<float const ,FlightClass *> > >::_Parent
	add	esp, 4
	mov	ecx, DWORD PTR [eax]
	mov	DWORD PTR __Fixnodeparent$[ebp], ecx

; 1389 : 				if (!this->_Isnil(_Fixnode))

	mov	edx, DWORD PTR __Fixnode$[ebp]
	push	edx
	call	?_Isnil@?$_Tree_val@U?$_Tree_simple_types@U?$pair@$$CBMPAVFlightClass@@@std@@@std@@@std@@SAAADPAU?$_Tree_node@U?$pair@$$CBMPAVFlightClass@@@std@@PAX@2@@Z ; std::_Tree_val<std::_Tree_simple_types<std::pair<float const ,FlightClass *> > >::_Isnil
	add	esp, 4
	movsx	eax, BYTE PTR [eax]
	test	eax, eax
	jne	SHORT $LN24@erase

; 1390 : 					this->_Parent(_Fixnode) = _Fixnodeparent;	// link fix up

	mov	ecx, DWORD PTR __Fixnode$[ebp]
	push	ecx
	call	?_Parent@?$_Tree_val@U?$_Tree_simple_types@U?$pair@$$CBMPAVFlightClass@@@std@@@std@@@std@@SAAAPAU?$_Tree_node@U?$pair@$$CBMPAVFlightClass@@@std@@PAX@2@PAU32@@Z ; std::_Tree_val<std::_Tree_simple_types<std::pair<float const ,FlightClass *> > >::_Parent
	add	esp, 4
	mov	edx, DWORD PTR __Fixnodeparent$[ebp]
	mov	DWORD PTR [eax], edx
$LN24@erase:

; 1391 : 				this->_Left(_Fixnodeparent) = _Fixnode;	// link fix down

	mov	eax, DWORD PTR __Fixnodeparent$[ebp]
	push	eax
	call	?_Left@?$_Tree_val@U?$_Tree_simple_types@U?$pair@$$CBMPAVFlightClass@@@std@@@std@@@std@@SAAAPAU?$_Tree_node@U?$pair@$$CBMPAVFlightClass@@@std@@PAX@2@PAU32@@Z ; std::_Tree_val<std::_Tree_simple_types<std::pair<float const ,FlightClass *> > >::_Left
	add	esp, 4
	mov	ecx, DWORD PTR __Fixnode$[ebp]
	mov	DWORD PTR [eax], ecx

; 1392 : 				this->_Right(_Pnode) =
; 1393 : 					this->_Right(_Erasednode);	// link next down

	mov	edx, DWORD PTR __Erasednode$[ebp]
	push	edx
	call	?_Right@?$_Tree_val@U?$_Tree_simple_types@U?$pair@$$CBMPAVFlightClass@@@std@@@std@@@std@@SAAAPAU?$_Tree_node@U?$pair@$$CBMPAVFlightClass@@@std@@PAX@2@PAU32@@Z ; std::_Tree_val<std::_Tree_simple_types<std::pair<float const ,FlightClass *> > >::_Right
	add	esp, 4
	mov	esi, eax
	mov	eax, DWORD PTR __Pnode$[ebp]
	push	eax
	call	?_Right@?$_Tree_val@U?$_Tree_simple_types@U?$pair@$$CBMPAVFlightClass@@@std@@@std@@@std@@SAAAPAU?$_Tree_node@U?$pair@$$CBMPAVFlightClass@@@std@@PAX@2@PAU32@@Z ; std::_Tree_val<std::_Tree_simple_types<std::pair<float const ,FlightClass *> > >::_Right
	add	esp, 4
	mov	ecx, DWORD PTR [esi]
	mov	DWORD PTR [eax], ecx

; 1394 : 				this->_Parent(this->_Right(_Erasednode)) =
; 1395 : 					_Pnode;	// right up

	mov	edx, DWORD PTR __Erasednode$[ebp]
	push	edx
	call	?_Right@?$_Tree_val@U?$_Tree_simple_types@U?$pair@$$CBMPAVFlightClass@@@std@@@std@@@std@@SAAAPAU?$_Tree_node@U?$pair@$$CBMPAVFlightClass@@@std@@PAX@2@PAU32@@Z ; std::_Tree_val<std::_Tree_simple_types<std::pair<float const ,FlightClass *> > >::_Right
	add	esp, 4
	mov	eax, DWORD PTR [eax]
	push	eax
	call	?_Parent@?$_Tree_val@U?$_Tree_simple_types@U?$pair@$$CBMPAVFlightClass@@@std@@@std@@@std@@SAAAPAU?$_Tree_node@U?$pair@$$CBMPAVFlightClass@@@std@@PAX@2@PAU32@@Z ; std::_Tree_val<std::_Tree_simple_types<std::pair<float const ,FlightClass *> > >::_Parent
	add	esp, 4
	mov	ecx, DWORD PTR __Pnode$[ebp]
	mov	DWORD PTR [eax], ecx
$LN25@erase:

; 1396 : 				}
; 1397 : 
; 1398 : 			if (_Root() == _Erasednode)

	mov	ecx, DWORD PTR _this$[ebp]
	call	?_Root@?$_Tree@V?$_Tmap_traits@MPAVFlightClass@@U?$less@M@std@@V?$allocator@U?$pair@$$CBMPAVFlightClass@@@std@@@3@$0A@@std@@@std@@IBEAAPAU?$_Tree_node@U?$pair@$$CBMPAVFlightClass@@@std@@PAX@2@XZ ; std::_Tree<std::_Tmap_traits<float,FlightClass *,std::less<float>,std::allocator<std::pair<float const ,FlightClass *> >,0> >::_Root
	mov	edx, DWORD PTR [eax]
	cmp	edx, DWORD PTR __Erasednode$[ebp]
	jne	SHORT $LN23@erase

; 1399 : 				_Root() = _Pnode;	// link down from root

	mov	ecx, DWORD PTR _this$[ebp]
	call	?_Root@?$_Tree@V?$_Tmap_traits@MPAVFlightClass@@U?$less@M@std@@V?$allocator@U?$pair@$$CBMPAVFlightClass@@@std@@@3@$0A@@std@@@std@@IBEAAPAU?$_Tree_node@U?$pair@$$CBMPAVFlightClass@@@std@@PAX@2@XZ ; std::_Tree<std::_Tmap_traits<float,FlightClass *,std::less<float>,std::allocator<std::pair<float const ,FlightClass *> >,0> >::_Root
	mov	ecx, DWORD PTR __Pnode$[ebp]
	mov	DWORD PTR [eax], ecx
	jmp	SHORT $LN22@erase
$LN23@erase:

; 1400 : 			else if (this->_Left(this->_Parent(_Erasednode)) == _Erasednode)

	mov	edx, DWORD PTR __Erasednode$[ebp]
	push	edx
	call	?_Parent@?$_Tree_val@U?$_Tree_simple_types@U?$pair@$$CBMPAVFlightClass@@@std@@@std@@@std@@SAAAPAU?$_Tree_node@U?$pair@$$CBMPAVFlightClass@@@std@@PAX@2@PAU32@@Z ; std::_Tree_val<std::_Tree_simple_types<std::pair<float const ,FlightClass *> > >::_Parent
	add	esp, 4
	mov	eax, DWORD PTR [eax]
	push	eax
	call	?_Left@?$_Tree_val@U?$_Tree_simple_types@U?$pair@$$CBMPAVFlightClass@@@std@@@std@@@std@@SAAAPAU?$_Tree_node@U?$pair@$$CBMPAVFlightClass@@@std@@PAX@2@PAU32@@Z ; std::_Tree_val<std::_Tree_simple_types<std::pair<float const ,FlightClass *> > >::_Left
	add	esp, 4
	mov	ecx, DWORD PTR [eax]
	cmp	ecx, DWORD PTR __Erasednode$[ebp]
	jne	SHORT $LN21@erase

; 1401 : 				this->_Left(this->_Parent(_Erasednode)) =
; 1402 : 					_Pnode;	// link down to left

	mov	edx, DWORD PTR __Erasednode$[ebp]
	push	edx
	call	?_Parent@?$_Tree_val@U?$_Tree_simple_types@U?$pair@$$CBMPAVFlightClass@@@std@@@std@@@std@@SAAAPAU?$_Tree_node@U?$pair@$$CBMPAVFlightClass@@@std@@PAX@2@PAU32@@Z ; std::_Tree_val<std::_Tree_simple_types<std::pair<float const ,FlightClass *> > >::_Parent
	add	esp, 4
	mov	eax, DWORD PTR [eax]
	push	eax
	call	?_Left@?$_Tree_val@U?$_Tree_simple_types@U?$pair@$$CBMPAVFlightClass@@@std@@@std@@@std@@SAAAPAU?$_Tree_node@U?$pair@$$CBMPAVFlightClass@@@std@@PAX@2@PAU32@@Z ; std::_Tree_val<std::_Tree_simple_types<std::pair<float const ,FlightClass *> > >::_Left
	add	esp, 4
	mov	ecx, DWORD PTR __Pnode$[ebp]
	mov	DWORD PTR [eax], ecx

; 1403 : 			else

	jmp	SHORT $LN22@erase
$LN21@erase:

; 1404 : 				this->_Right(this->_Parent(_Erasednode)) =
; 1405 : 					_Pnode;	// link down to right

	mov	edx, DWORD PTR __Erasednode$[ebp]
	push	edx
	call	?_Parent@?$_Tree_val@U?$_Tree_simple_types@U?$pair@$$CBMPAVFlightClass@@@std@@@std@@@std@@SAAAPAU?$_Tree_node@U?$pair@$$CBMPAVFlightClass@@@std@@PAX@2@PAU32@@Z ; std::_Tree_val<std::_Tree_simple_types<std::pair<float const ,FlightClass *> > >::_Parent
	add	esp, 4
	mov	eax, DWORD PTR [eax]
	push	eax
	call	?_Right@?$_Tree_val@U?$_Tree_simple_types@U?$pair@$$CBMPAVFlightClass@@@std@@@std@@@std@@SAAAPAU?$_Tree_node@U?$pair@$$CBMPAVFlightClass@@@std@@PAX@2@PAU32@@Z ; std::_Tree_val<std::_Tree_simple_types<std::pair<float const ,FlightClass *> > >::_Right
	add	esp, 4
	mov	ecx, DWORD PTR __Pnode$[ebp]
	mov	DWORD PTR [eax], ecx
$LN22@erase:

; 1406 : 
; 1407 : 			this->_Parent(_Pnode) =
; 1408 : 				this->_Parent(_Erasednode);	// link successor up

	mov	edx, DWORD PTR __Erasednode$[ebp]
	push	edx
	call	?_Parent@?$_Tree_val@U?$_Tree_simple_types@U?$pair@$$CBMPAVFlightClass@@@std@@@std@@@std@@SAAAPAU?$_Tree_node@U?$pair@$$CBMPAVFlightClass@@@std@@PAX@2@PAU32@@Z ; std::_Tree_val<std::_Tree_simple_types<std::pair<float const ,FlightClass *> > >::_Parent
	add	esp, 4
	mov	esi, eax
	mov	eax, DWORD PTR __Pnode$[ebp]
	push	eax
	call	?_Parent@?$_Tree_val@U?$_Tree_simple_types@U?$pair@$$CBMPAVFlightClass@@@std@@@std@@@std@@SAAAPAU?$_Tree_node@U?$pair@$$CBMPAVFlightClass@@@std@@PAX@2@PAU32@@Z ; std::_Tree_val<std::_Tree_simple_types<std::pair<float const ,FlightClass *> > >::_Parent
	add	esp, 4
	mov	ecx, DWORD PTR [esi]
	mov	DWORD PTR [eax], ecx

; 1409 : 			_STD swap(this->_Color(_Pnode),
; 1410 : 				this->_Color(_Erasednode));	// recolor it

	mov	edx, DWORD PTR __Erasednode$[ebp]
	push	edx
	call	?_Color@?$_Tree_val@U?$_Tree_simple_types@U?$pair@$$CBMPAVFlightClass@@@std@@@std@@@std@@SAAADPAU?$_Tree_node@U?$pair@$$CBMPAVFlightClass@@@std@@PAX@2@@Z ; std::_Tree_val<std::_Tree_simple_types<std::pair<float const ,FlightClass *> > >::_Color
	add	esp, 4
	push	eax
	mov	eax, DWORD PTR __Pnode$[ebp]
	push	eax
	call	?_Color@?$_Tree_val@U?$_Tree_simple_types@U?$pair@$$CBMPAVFlightClass@@@std@@@std@@@std@@SAAADPAU?$_Tree_node@U?$pair@$$CBMPAVFlightClass@@@std@@PAX@2@@Z ; std::_Tree_val<std::_Tree_simple_types<std::pair<float const ,FlightClass *> > >::_Color
	add	esp, 4
	push	eax
	call	??$swap@D@std@@YAXAAD0@Z		; std::swap<char>
	add	esp, 8
$LN27@erase:

; 1411 : 			}
; 1412 : 
; 1413 : 		if (this->_Color(_Erasednode) == this->_Black)

	mov	ecx, DWORD PTR __Erasednode$[ebp]
	push	ecx
	call	?_Color@?$_Tree_val@U?$_Tree_simple_types@U?$pair@$$CBMPAVFlightClass@@@std@@@std@@@std@@SAAADPAU?$_Tree_node@U?$pair@$$CBMPAVFlightClass@@@std@@PAX@2@@Z ; std::_Tree_val<std::_Tree_simple_types<std::pair<float const ,FlightClass *> > >::_Color
	add	esp, 4
	movsx	edx, BYTE PTR [eax]
	cmp	edx, 1
	jne	$LN19@erase

; 1414 : 			{	// erasing black link, must recolor/rebalance tree
; 1415 : 			for (; _Fixnode != _Root()
; 1416 : 				&& this->_Color(_Fixnode) == this->_Black;
; 1417 : 				_Fixnodeparent = this->_Parent(_Fixnode))

	jmp	SHORT $LN18@erase
$LN17@erase:
	mov	eax, DWORD PTR __Fixnode$[ebp]
	push	eax
	call	?_Parent@?$_Tree_val@U?$_Tree_simple_types@U?$pair@$$CBMPAVFlightClass@@@std@@@std@@@std@@SAAAPAU?$_Tree_node@U?$pair@$$CBMPAVFlightClass@@@std@@PAX@2@PAU32@@Z ; std::_Tree_val<std::_Tree_simple_types<std::pair<float const ,FlightClass *> > >::_Parent
	add	esp, 4
	mov	ecx, DWORD PTR [eax]
	mov	DWORD PTR __Fixnodeparent$[ebp], ecx
$LN18@erase:
	mov	ecx, DWORD PTR _this$[ebp]
	call	?_Root@?$_Tree@V?$_Tmap_traits@MPAVFlightClass@@U?$less@M@std@@V?$allocator@U?$pair@$$CBMPAVFlightClass@@@std@@@3@$0A@@std@@@std@@IBEAAPAU?$_Tree_node@U?$pair@$$CBMPAVFlightClass@@@std@@PAX@2@XZ ; std::_Tree<std::_Tmap_traits<float,FlightClass *,std::less<float>,std::allocator<std::pair<float const ,FlightClass *> >,0> >::_Root
	mov	edx, DWORD PTR __Fixnode$[ebp]
	cmp	edx, DWORD PTR [eax]
	je	$LN16@erase
	mov	eax, DWORD PTR __Fixnode$[ebp]
	push	eax
	call	?_Color@?$_Tree_val@U?$_Tree_simple_types@U?$pair@$$CBMPAVFlightClass@@@std@@@std@@@std@@SAAADPAU?$_Tree_node@U?$pair@$$CBMPAVFlightClass@@@std@@PAX@2@@Z ; std::_Tree_val<std::_Tree_simple_types<std::pair<float const ,FlightClass *> > >::_Color
	add	esp, 4
	movsx	ecx, BYTE PTR [eax]
	cmp	ecx, 1
	jne	$LN16@erase

; 1418 : 				if (_Fixnode == this->_Left(_Fixnodeparent))

	mov	edx, DWORD PTR __Fixnodeparent$[ebp]
	push	edx
	call	?_Left@?$_Tree_val@U?$_Tree_simple_types@U?$pair@$$CBMPAVFlightClass@@@std@@@std@@@std@@SAAAPAU?$_Tree_node@U?$pair@$$CBMPAVFlightClass@@@std@@PAX@2@PAU32@@Z ; std::_Tree_val<std::_Tree_simple_types<std::pair<float const ,FlightClass *> > >::_Left
	add	esp, 4
	mov	ecx, DWORD PTR __Fixnode$[ebp]
	cmp	ecx, DWORD PTR [eax]
	jne	$LN15@erase

; 1419 : 					{	// fixup left subtree
; 1420 : 					_Pnode = this->_Right(_Fixnodeparent);

	mov	edx, DWORD PTR __Fixnodeparent$[ebp]
	push	edx
	call	?_Right@?$_Tree_val@U?$_Tree_simple_types@U?$pair@$$CBMPAVFlightClass@@@std@@@std@@@std@@SAAAPAU?$_Tree_node@U?$pair@$$CBMPAVFlightClass@@@std@@PAX@2@PAU32@@Z ; std::_Tree_val<std::_Tree_simple_types<std::pair<float const ,FlightClass *> > >::_Right
	add	esp, 4
	mov	eax, DWORD PTR [eax]
	mov	DWORD PTR __Pnode$[ebp], eax

; 1421 : 					if (this->_Color(_Pnode) == this->_Red)

	mov	ecx, DWORD PTR __Pnode$[ebp]
	push	ecx
	call	?_Color@?$_Tree_val@U?$_Tree_simple_types@U?$pair@$$CBMPAVFlightClass@@@std@@@std@@@std@@SAAADPAU?$_Tree_node@U?$pair@$$CBMPAVFlightClass@@@std@@PAX@2@@Z ; std::_Tree_val<std::_Tree_simple_types<std::pair<float const ,FlightClass *> > >::_Color
	add	esp, 4
	movsx	edx, BYTE PTR [eax]
	test	edx, edx
	jne	SHORT $LN14@erase

; 1422 : 						{	// rotate red up from right subtree
; 1423 : 						this->_Color(_Pnode) = this->_Black;

	mov	eax, DWORD PTR __Pnode$[ebp]
	push	eax
	call	?_Color@?$_Tree_val@U?$_Tree_simple_types@U?$pair@$$CBMPAVFlightClass@@@std@@@std@@@std@@SAAADPAU?$_Tree_node@U?$pair@$$CBMPAVFlightClass@@@std@@PAX@2@@Z ; std::_Tree_val<std::_Tree_simple_types<std::pair<float const ,FlightClass *> > >::_Color
	add	esp, 4
	mov	BYTE PTR [eax], 1

; 1424 : 						this->_Color(_Fixnodeparent) = this->_Red;

	mov	ecx, DWORD PTR __Fixnodeparent$[ebp]
	push	ecx
	call	?_Color@?$_Tree_val@U?$_Tree_simple_types@U?$pair@$$CBMPAVFlightClass@@@std@@@std@@@std@@SAAADPAU?$_Tree_node@U?$pair@$$CBMPAVFlightClass@@@std@@PAX@2@@Z ; std::_Tree_val<std::_Tree_simple_types<std::pair<float const ,FlightClass *> > >::_Color
	add	esp, 4
	mov	BYTE PTR [eax], 0

; 1425 : 						_Lrotate(_Fixnodeparent);

	mov	edx, DWORD PTR __Fixnodeparent$[ebp]
	push	edx
	mov	ecx, DWORD PTR _this$[ebp]
	call	?_Lrotate@?$_Tree@V?$_Tmap_traits@MPAVFlightClass@@U?$less@M@std@@V?$allocator@U?$pair@$$CBMPAVFlightClass@@@std@@@3@$0A@@std@@@std@@IAEXPAU?$_Tree_node@U?$pair@$$CBMPAVFlightClass@@@std@@PAX@2@@Z ; std::_Tree<std::_Tmap_traits<float,FlightClass *,std::less<float>,std::allocator<std::pair<float const ,FlightClass *> >,0> >::_Lrotate

; 1426 : 						_Pnode = this->_Right(_Fixnodeparent);

	mov	eax, DWORD PTR __Fixnodeparent$[ebp]
	push	eax
	call	?_Right@?$_Tree_val@U?$_Tree_simple_types@U?$pair@$$CBMPAVFlightClass@@@std@@@std@@@std@@SAAAPAU?$_Tree_node@U?$pair@$$CBMPAVFlightClass@@@std@@PAX@2@PAU32@@Z ; std::_Tree_val<std::_Tree_simple_types<std::pair<float const ,FlightClass *> > >::_Right
	add	esp, 4
	mov	ecx, DWORD PTR [eax]
	mov	DWORD PTR __Pnode$[ebp], ecx
$LN14@erase:

; 1427 : 						}
; 1428 : 
; 1429 : 					if (this->_Isnil(_Pnode))

	mov	edx, DWORD PTR __Pnode$[ebp]
	push	edx
	call	?_Isnil@?$_Tree_val@U?$_Tree_simple_types@U?$pair@$$CBMPAVFlightClass@@@std@@@std@@@std@@SAAADPAU?$_Tree_node@U?$pair@$$CBMPAVFlightClass@@@std@@PAX@2@@Z ; std::_Tree_val<std::_Tree_simple_types<std::pair<float const ,FlightClass *> > >::_Isnil
	add	esp, 4
	movsx	eax, BYTE PTR [eax]
	test	eax, eax
	je	SHORT $LN13@erase

; 1430 : 						_Fixnode = _Fixnodeparent;	// shouldn't happen

	mov	ecx, DWORD PTR __Fixnodeparent$[ebp]
	mov	DWORD PTR __Fixnode$[ebp], ecx

; 1431 : 					else if (this->_Color(this->_Left(_Pnode)) == this->_Black

	jmp	$LN12@erase
$LN13@erase:

; 1432 : 						&& this->_Color(this->_Right(_Pnode)) == this->_Black)

	mov	edx, DWORD PTR __Pnode$[ebp]
	push	edx
	call	?_Left@?$_Tree_val@U?$_Tree_simple_types@U?$pair@$$CBMPAVFlightClass@@@std@@@std@@@std@@SAAAPAU?$_Tree_node@U?$pair@$$CBMPAVFlightClass@@@std@@PAX@2@PAU32@@Z ; std::_Tree_val<std::_Tree_simple_types<std::pair<float const ,FlightClass *> > >::_Left
	add	esp, 4
	mov	eax, DWORD PTR [eax]
	push	eax
	call	?_Color@?$_Tree_val@U?$_Tree_simple_types@U?$pair@$$CBMPAVFlightClass@@@std@@@std@@@std@@SAAADPAU?$_Tree_node@U?$pair@$$CBMPAVFlightClass@@@std@@PAX@2@@Z ; std::_Tree_val<std::_Tree_simple_types<std::pair<float const ,FlightClass *> > >::_Color
	add	esp, 4
	movsx	ecx, BYTE PTR [eax]
	cmp	ecx, 1
	jne	SHORT $LN11@erase
	mov	edx, DWORD PTR __Pnode$[ebp]
	push	edx
	call	?_Right@?$_Tree_val@U?$_Tree_simple_types@U?$pair@$$CBMPAVFlightClass@@@std@@@std@@@std@@SAAAPAU?$_Tree_node@U?$pair@$$CBMPAVFlightClass@@@std@@PAX@2@PAU32@@Z ; std::_Tree_val<std::_Tree_simple_types<std::pair<float const ,FlightClass *> > >::_Right
	add	esp, 4
	mov	eax, DWORD PTR [eax]
	push	eax
	call	?_Color@?$_Tree_val@U?$_Tree_simple_types@U?$pair@$$CBMPAVFlightClass@@@std@@@std@@@std@@SAAADPAU?$_Tree_node@U?$pair@$$CBMPAVFlightClass@@@std@@PAX@2@@Z ; std::_Tree_val<std::_Tree_simple_types<std::pair<float const ,FlightClass *> > >::_Color
	add	esp, 4
	movsx	ecx, BYTE PTR [eax]
	cmp	ecx, 1
	jne	SHORT $LN11@erase

; 1433 : 						{	// redden right subtree with black children
; 1434 : 						this->_Color(_Pnode) = this->_Red;

	mov	edx, DWORD PTR __Pnode$[ebp]
	push	edx
	call	?_Color@?$_Tree_val@U?$_Tree_simple_types@U?$pair@$$CBMPAVFlightClass@@@std@@@std@@@std@@SAAADPAU?$_Tree_node@U?$pair@$$CBMPAVFlightClass@@@std@@PAX@2@@Z ; std::_Tree_val<std::_Tree_simple_types<std::pair<float const ,FlightClass *> > >::_Color
	add	esp, 4
	mov	BYTE PTR [eax], 0

; 1435 : 						_Fixnode = _Fixnodeparent;

	mov	eax, DWORD PTR __Fixnodeparent$[ebp]
	mov	DWORD PTR __Fixnode$[ebp], eax

; 1436 : 						}
; 1437 : 					else

	jmp	$LN12@erase
$LN11@erase:

; 1438 : 						{	// must rearrange right subtree
; 1439 : 						if (this->_Color(this->_Right(_Pnode))
; 1440 : 							== this->_Black)

	mov	ecx, DWORD PTR __Pnode$[ebp]
	push	ecx
	call	?_Right@?$_Tree_val@U?$_Tree_simple_types@U?$pair@$$CBMPAVFlightClass@@@std@@@std@@@std@@SAAAPAU?$_Tree_node@U?$pair@$$CBMPAVFlightClass@@@std@@PAX@2@PAU32@@Z ; std::_Tree_val<std::_Tree_simple_types<std::pair<float const ,FlightClass *> > >::_Right
	add	esp, 4
	mov	edx, DWORD PTR [eax]
	push	edx
	call	?_Color@?$_Tree_val@U?$_Tree_simple_types@U?$pair@$$CBMPAVFlightClass@@@std@@@std@@@std@@SAAADPAU?$_Tree_node@U?$pair@$$CBMPAVFlightClass@@@std@@PAX@2@@Z ; std::_Tree_val<std::_Tree_simple_types<std::pair<float const ,FlightClass *> > >::_Color
	add	esp, 4
	movsx	eax, BYTE PTR [eax]
	cmp	eax, 1
	jne	SHORT $LN9@erase

; 1441 : 							{	// rotate red up from left sub-subtree
; 1442 : 							this->_Color(this->_Left(_Pnode)) = this->_Black;

	mov	ecx, DWORD PTR __Pnode$[ebp]
	push	ecx
	call	?_Left@?$_Tree_val@U?$_Tree_simple_types@U?$pair@$$CBMPAVFlightClass@@@std@@@std@@@std@@SAAAPAU?$_Tree_node@U?$pair@$$CBMPAVFlightClass@@@std@@PAX@2@PAU32@@Z ; std::_Tree_val<std::_Tree_simple_types<std::pair<float const ,FlightClass *> > >::_Left
	add	esp, 4
	mov	edx, DWORD PTR [eax]
	push	edx
	call	?_Color@?$_Tree_val@U?$_Tree_simple_types@U?$pair@$$CBMPAVFlightClass@@@std@@@std@@@std@@SAAADPAU?$_Tree_node@U?$pair@$$CBMPAVFlightClass@@@std@@PAX@2@@Z ; std::_Tree_val<std::_Tree_simple_types<std::pair<float const ,FlightClass *> > >::_Color
	add	esp, 4
	mov	BYTE PTR [eax], 1

; 1443 : 							this->_Color(_Pnode) = this->_Red;

	mov	eax, DWORD PTR __Pnode$[ebp]
	push	eax
	call	?_Color@?$_Tree_val@U?$_Tree_simple_types@U?$pair@$$CBMPAVFlightClass@@@std@@@std@@@std@@SAAADPAU?$_Tree_node@U?$pair@$$CBMPAVFlightClass@@@std@@PAX@2@@Z ; std::_Tree_val<std::_Tree_simple_types<std::pair<float const ,FlightClass *> > >::_Color
	add	esp, 4
	mov	BYTE PTR [eax], 0

; 1444 : 							_Rrotate(_Pnode);

	mov	ecx, DWORD PTR __Pnode$[ebp]
	push	ecx
	mov	ecx, DWORD PTR _this$[ebp]
	call	?_Rrotate@?$_Tree@V?$_Tmap_traits@MPAVFlightClass@@U?$less@M@std@@V?$allocator@U?$pair@$$CBMPAVFlightClass@@@std@@@3@$0A@@std@@@std@@IAEXPAU?$_Tree_node@U?$pair@$$CBMPAVFlightClass@@@std@@PAX@2@@Z ; std::_Tree<std::_Tmap_traits<float,FlightClass *,std::less<float>,std::allocator<std::pair<float const ,FlightClass *> >,0> >::_Rrotate

; 1445 : 							_Pnode = this->_Right(_Fixnodeparent);

	mov	edx, DWORD PTR __Fixnodeparent$[ebp]
	push	edx
	call	?_Right@?$_Tree_val@U?$_Tree_simple_types@U?$pair@$$CBMPAVFlightClass@@@std@@@std@@@std@@SAAAPAU?$_Tree_node@U?$pair@$$CBMPAVFlightClass@@@std@@PAX@2@PAU32@@Z ; std::_Tree_val<std::_Tree_simple_types<std::pair<float const ,FlightClass *> > >::_Right
	add	esp, 4
	mov	eax, DWORD PTR [eax]
	mov	DWORD PTR __Pnode$[ebp], eax
$LN9@erase:

; 1446 : 							}
; 1447 : 
; 1448 : 						this->_Color(_Pnode) = this->_Color(_Fixnodeparent);

	mov	ecx, DWORD PTR __Fixnodeparent$[ebp]
	push	ecx
	call	?_Color@?$_Tree_val@U?$_Tree_simple_types@U?$pair@$$CBMPAVFlightClass@@@std@@@std@@@std@@SAAADPAU?$_Tree_node@U?$pair@$$CBMPAVFlightClass@@@std@@PAX@2@@Z ; std::_Tree_val<std::_Tree_simple_types<std::pair<float const ,FlightClass *> > >::_Color
	add	esp, 4
	mov	esi, eax
	mov	edx, DWORD PTR __Pnode$[ebp]
	push	edx
	call	?_Color@?$_Tree_val@U?$_Tree_simple_types@U?$pair@$$CBMPAVFlightClass@@@std@@@std@@@std@@SAAADPAU?$_Tree_node@U?$pair@$$CBMPAVFlightClass@@@std@@PAX@2@@Z ; std::_Tree_val<std::_Tree_simple_types<std::pair<float const ,FlightClass *> > >::_Color
	add	esp, 4
	mov	cl, BYTE PTR [esi]
	mov	BYTE PTR [eax], cl

; 1449 : 						this->_Color(_Fixnodeparent) = this->_Black;

	mov	edx, DWORD PTR __Fixnodeparent$[ebp]
	push	edx
	call	?_Color@?$_Tree_val@U?$_Tree_simple_types@U?$pair@$$CBMPAVFlightClass@@@std@@@std@@@std@@SAAADPAU?$_Tree_node@U?$pair@$$CBMPAVFlightClass@@@std@@PAX@2@@Z ; std::_Tree_val<std::_Tree_simple_types<std::pair<float const ,FlightClass *> > >::_Color
	add	esp, 4
	mov	BYTE PTR [eax], 1

; 1450 : 						this->_Color(this->_Right(_Pnode)) = this->_Black;

	mov	eax, DWORD PTR __Pnode$[ebp]
	push	eax
	call	?_Right@?$_Tree_val@U?$_Tree_simple_types@U?$pair@$$CBMPAVFlightClass@@@std@@@std@@@std@@SAAAPAU?$_Tree_node@U?$pair@$$CBMPAVFlightClass@@@std@@PAX@2@PAU32@@Z ; std::_Tree_val<std::_Tree_simple_types<std::pair<float const ,FlightClass *> > >::_Right
	add	esp, 4
	mov	ecx, DWORD PTR [eax]
	push	ecx
	call	?_Color@?$_Tree_val@U?$_Tree_simple_types@U?$pair@$$CBMPAVFlightClass@@@std@@@std@@@std@@SAAADPAU?$_Tree_node@U?$pair@$$CBMPAVFlightClass@@@std@@PAX@2@@Z ; std::_Tree_val<std::_Tree_simple_types<std::pair<float const ,FlightClass *> > >::_Color
	add	esp, 4
	mov	BYTE PTR [eax], 1

; 1451 : 						_Lrotate(_Fixnodeparent);

	mov	edx, DWORD PTR __Fixnodeparent$[ebp]
	push	edx
	mov	ecx, DWORD PTR _this$[ebp]
	call	?_Lrotate@?$_Tree@V?$_Tmap_traits@MPAVFlightClass@@U?$less@M@std@@V?$allocator@U?$pair@$$CBMPAVFlightClass@@@std@@@3@$0A@@std@@@std@@IAEXPAU?$_Tree_node@U?$pair@$$CBMPAVFlightClass@@@std@@PAX@2@@Z ; std::_Tree<std::_Tmap_traits<float,FlightClass *,std::less<float>,std::allocator<std::pair<float const ,FlightClass *> >,0> >::_Lrotate

; 1452 : 						break;	// tree now recolored/rebalanced

	jmp	$LN16@erase
$LN12@erase:

; 1453 : 						}
; 1454 : 					}
; 1455 : 				else

	jmp	$LN8@erase
$LN15@erase:

; 1456 : 					{	// fixup right subtree
; 1457 : 					_Pnode = this->_Left(_Fixnodeparent);

	mov	eax, DWORD PTR __Fixnodeparent$[ebp]
	push	eax
	call	?_Left@?$_Tree_val@U?$_Tree_simple_types@U?$pair@$$CBMPAVFlightClass@@@std@@@std@@@std@@SAAAPAU?$_Tree_node@U?$pair@$$CBMPAVFlightClass@@@std@@PAX@2@PAU32@@Z ; std::_Tree_val<std::_Tree_simple_types<std::pair<float const ,FlightClass *> > >::_Left
	add	esp, 4
	mov	ecx, DWORD PTR [eax]
	mov	DWORD PTR __Pnode$[ebp], ecx

; 1458 : 					if (this->_Color(_Pnode) == this->_Red)

	mov	edx, DWORD PTR __Pnode$[ebp]
	push	edx
	call	?_Color@?$_Tree_val@U?$_Tree_simple_types@U?$pair@$$CBMPAVFlightClass@@@std@@@std@@@std@@SAAADPAU?$_Tree_node@U?$pair@$$CBMPAVFlightClass@@@std@@PAX@2@@Z ; std::_Tree_val<std::_Tree_simple_types<std::pair<float const ,FlightClass *> > >::_Color
	add	esp, 4
	movsx	eax, BYTE PTR [eax]
	test	eax, eax
	jne	SHORT $LN7@erase

; 1459 : 						{	// rotate red up from left subtree
; 1460 : 						this->_Color(_Pnode) = this->_Black;

	mov	ecx, DWORD PTR __Pnode$[ebp]
	push	ecx
	call	?_Color@?$_Tree_val@U?$_Tree_simple_types@U?$pair@$$CBMPAVFlightClass@@@std@@@std@@@std@@SAAADPAU?$_Tree_node@U?$pair@$$CBMPAVFlightClass@@@std@@PAX@2@@Z ; std::_Tree_val<std::_Tree_simple_types<std::pair<float const ,FlightClass *> > >::_Color
	add	esp, 4
	mov	BYTE PTR [eax], 1

; 1461 : 						this->_Color(_Fixnodeparent) = this->_Red;

	mov	edx, DWORD PTR __Fixnodeparent$[ebp]
	push	edx
	call	?_Color@?$_Tree_val@U?$_Tree_simple_types@U?$pair@$$CBMPAVFlightClass@@@std@@@std@@@std@@SAAADPAU?$_Tree_node@U?$pair@$$CBMPAVFlightClass@@@std@@PAX@2@@Z ; std::_Tree_val<std::_Tree_simple_types<std::pair<float const ,FlightClass *> > >::_Color
	add	esp, 4
	mov	BYTE PTR [eax], 0

; 1462 : 						_Rrotate(_Fixnodeparent);

	mov	eax, DWORD PTR __Fixnodeparent$[ebp]
	push	eax
	mov	ecx, DWORD PTR _this$[ebp]
	call	?_Rrotate@?$_Tree@V?$_Tmap_traits@MPAVFlightClass@@U?$less@M@std@@V?$allocator@U?$pair@$$CBMPAVFlightClass@@@std@@@3@$0A@@std@@@std@@IAEXPAU?$_Tree_node@U?$pair@$$CBMPAVFlightClass@@@std@@PAX@2@@Z ; std::_Tree<std::_Tmap_traits<float,FlightClass *,std::less<float>,std::allocator<std::pair<float const ,FlightClass *> >,0> >::_Rrotate

; 1463 : 						_Pnode = this->_Left(_Fixnodeparent);

	mov	ecx, DWORD PTR __Fixnodeparent$[ebp]
	push	ecx
	call	?_Left@?$_Tree_val@U?$_Tree_simple_types@U?$pair@$$CBMPAVFlightClass@@@std@@@std@@@std@@SAAAPAU?$_Tree_node@U?$pair@$$CBMPAVFlightClass@@@std@@PAX@2@PAU32@@Z ; std::_Tree_val<std::_Tree_simple_types<std::pair<float const ,FlightClass *> > >::_Left
	add	esp, 4
	mov	edx, DWORD PTR [eax]
	mov	DWORD PTR __Pnode$[ebp], edx
$LN7@erase:

; 1464 : 						}
; 1465 : 
; 1466 : 					if (this->_Isnil(_Pnode))

	mov	eax, DWORD PTR __Pnode$[ebp]
	push	eax
	call	?_Isnil@?$_Tree_val@U?$_Tree_simple_types@U?$pair@$$CBMPAVFlightClass@@@std@@@std@@@std@@SAAADPAU?$_Tree_node@U?$pair@$$CBMPAVFlightClass@@@std@@PAX@2@@Z ; std::_Tree_val<std::_Tree_simple_types<std::pair<float const ,FlightClass *> > >::_Isnil
	add	esp, 4
	movsx	ecx, BYTE PTR [eax]
	test	ecx, ecx
	je	SHORT $LN6@erase

; 1467 : 						_Fixnode = _Fixnodeparent;	// shouldn't happen

	mov	edx, DWORD PTR __Fixnodeparent$[ebp]
	mov	DWORD PTR __Fixnode$[ebp], edx

; 1468 : 					else if (this->_Color(this->_Right(_Pnode)) ==

	jmp	$LN8@erase
$LN6@erase:

; 1469 : 						this->_Black
; 1470 : 						&& this->_Color(this->_Left(_Pnode)) == this->_Black)

	mov	eax, DWORD PTR __Pnode$[ebp]
	push	eax
	call	?_Right@?$_Tree_val@U?$_Tree_simple_types@U?$pair@$$CBMPAVFlightClass@@@std@@@std@@@std@@SAAAPAU?$_Tree_node@U?$pair@$$CBMPAVFlightClass@@@std@@PAX@2@PAU32@@Z ; std::_Tree_val<std::_Tree_simple_types<std::pair<float const ,FlightClass *> > >::_Right
	add	esp, 4
	mov	ecx, DWORD PTR [eax]
	push	ecx
	call	?_Color@?$_Tree_val@U?$_Tree_simple_types@U?$pair@$$CBMPAVFlightClass@@@std@@@std@@@std@@SAAADPAU?$_Tree_node@U?$pair@$$CBMPAVFlightClass@@@std@@PAX@2@@Z ; std::_Tree_val<std::_Tree_simple_types<std::pair<float const ,FlightClass *> > >::_Color
	add	esp, 4
	movsx	edx, BYTE PTR [eax]
	cmp	edx, 1
	jne	SHORT $LN4@erase
	mov	eax, DWORD PTR __Pnode$[ebp]
	push	eax
	call	?_Left@?$_Tree_val@U?$_Tree_simple_types@U?$pair@$$CBMPAVFlightClass@@@std@@@std@@@std@@SAAAPAU?$_Tree_node@U?$pair@$$CBMPAVFlightClass@@@std@@PAX@2@PAU32@@Z ; std::_Tree_val<std::_Tree_simple_types<std::pair<float const ,FlightClass *> > >::_Left
	add	esp, 4
	mov	ecx, DWORD PTR [eax]
	push	ecx
	call	?_Color@?$_Tree_val@U?$_Tree_simple_types@U?$pair@$$CBMPAVFlightClass@@@std@@@std@@@std@@SAAADPAU?$_Tree_node@U?$pair@$$CBMPAVFlightClass@@@std@@PAX@2@@Z ; std::_Tree_val<std::_Tree_simple_types<std::pair<float const ,FlightClass *> > >::_Color
	add	esp, 4
	movsx	edx, BYTE PTR [eax]
	cmp	edx, 1
	jne	SHORT $LN4@erase

; 1471 : 						{	// redden left subtree with black children
; 1472 : 						this->_Color(_Pnode) = this->_Red;

	mov	eax, DWORD PTR __Pnode$[ebp]
	push	eax
	call	?_Color@?$_Tree_val@U?$_Tree_simple_types@U?$pair@$$CBMPAVFlightClass@@@std@@@std@@@std@@SAAADPAU?$_Tree_node@U?$pair@$$CBMPAVFlightClass@@@std@@PAX@2@@Z ; std::_Tree_val<std::_Tree_simple_types<std::pair<float const ,FlightClass *> > >::_Color
	add	esp, 4
	mov	BYTE PTR [eax], 0

; 1473 : 						_Fixnode = _Fixnodeparent;

	mov	ecx, DWORD PTR __Fixnodeparent$[ebp]
	mov	DWORD PTR __Fixnode$[ebp], ecx

; 1474 : 						}
; 1475 : 					else

	jmp	$LN8@erase
$LN4@erase:

; 1476 : 						{	// must rearrange left subtree
; 1477 : 						if (this->_Color(this->_Left(_Pnode)) == this->_Black)

	mov	edx, DWORD PTR __Pnode$[ebp]
	push	edx
	call	?_Left@?$_Tree_val@U?$_Tree_simple_types@U?$pair@$$CBMPAVFlightClass@@@std@@@std@@@std@@SAAAPAU?$_Tree_node@U?$pair@$$CBMPAVFlightClass@@@std@@PAX@2@PAU32@@Z ; std::_Tree_val<std::_Tree_simple_types<std::pair<float const ,FlightClass *> > >::_Left
	add	esp, 4
	mov	eax, DWORD PTR [eax]
	push	eax
	call	?_Color@?$_Tree_val@U?$_Tree_simple_types@U?$pair@$$CBMPAVFlightClass@@@std@@@std@@@std@@SAAADPAU?$_Tree_node@U?$pair@$$CBMPAVFlightClass@@@std@@PAX@2@@Z ; std::_Tree_val<std::_Tree_simple_types<std::pair<float const ,FlightClass *> > >::_Color
	add	esp, 4
	movsx	ecx, BYTE PTR [eax]
	cmp	ecx, 1
	jne	SHORT $LN2@erase

; 1478 : 							{	// rotate red up from right sub-subtree
; 1479 : 							this->_Color(this->_Right(_Pnode)) = this->_Black;

	mov	edx, DWORD PTR __Pnode$[ebp]
	push	edx
	call	?_Right@?$_Tree_val@U?$_Tree_simple_types@U?$pair@$$CBMPAVFlightClass@@@std@@@std@@@std@@SAAAPAU?$_Tree_node@U?$pair@$$CBMPAVFlightClass@@@std@@PAX@2@PAU32@@Z ; std::_Tree_val<std::_Tree_simple_types<std::pair<float const ,FlightClass *> > >::_Right
	add	esp, 4
	mov	eax, DWORD PTR [eax]
	push	eax
	call	?_Color@?$_Tree_val@U?$_Tree_simple_types@U?$pair@$$CBMPAVFlightClass@@@std@@@std@@@std@@SAAADPAU?$_Tree_node@U?$pair@$$CBMPAVFlightClass@@@std@@PAX@2@@Z ; std::_Tree_val<std::_Tree_simple_types<std::pair<float const ,FlightClass *> > >::_Color
	add	esp, 4
	mov	BYTE PTR [eax], 1

; 1480 : 							this->_Color(_Pnode) = this->_Red;

	mov	ecx, DWORD PTR __Pnode$[ebp]
	push	ecx
	call	?_Color@?$_Tree_val@U?$_Tree_simple_types@U?$pair@$$CBMPAVFlightClass@@@std@@@std@@@std@@SAAADPAU?$_Tree_node@U?$pair@$$CBMPAVFlightClass@@@std@@PAX@2@@Z ; std::_Tree_val<std::_Tree_simple_types<std::pair<float const ,FlightClass *> > >::_Color
	add	esp, 4
	mov	BYTE PTR [eax], 0

; 1481 : 							_Lrotate(_Pnode);

	mov	edx, DWORD PTR __Pnode$[ebp]
	push	edx
	mov	ecx, DWORD PTR _this$[ebp]
	call	?_Lrotate@?$_Tree@V?$_Tmap_traits@MPAVFlightClass@@U?$less@M@std@@V?$allocator@U?$pair@$$CBMPAVFlightClass@@@std@@@3@$0A@@std@@@std@@IAEXPAU?$_Tree_node@U?$pair@$$CBMPAVFlightClass@@@std@@PAX@2@@Z ; std::_Tree<std::_Tmap_traits<float,FlightClass *,std::less<float>,std::allocator<std::pair<float const ,FlightClass *> >,0> >::_Lrotate

; 1482 : 							_Pnode = this->_Left(_Fixnodeparent);

	mov	eax, DWORD PTR __Fixnodeparent$[ebp]
	push	eax
	call	?_Left@?$_Tree_val@U?$_Tree_simple_types@U?$pair@$$CBMPAVFlightClass@@@std@@@std@@@std@@SAAAPAU?$_Tree_node@U?$pair@$$CBMPAVFlightClass@@@std@@PAX@2@PAU32@@Z ; std::_Tree_val<std::_Tree_simple_types<std::pair<float const ,FlightClass *> > >::_Left
	add	esp, 4
	mov	ecx, DWORD PTR [eax]
	mov	DWORD PTR __Pnode$[ebp], ecx
$LN2@erase:

; 1483 : 							}
; 1484 : 
; 1485 : 						this->_Color(_Pnode) = this->_Color(_Fixnodeparent);

	mov	edx, DWORD PTR __Fixnodeparent$[ebp]
	push	edx
	call	?_Color@?$_Tree_val@U?$_Tree_simple_types@U?$pair@$$CBMPAVFlightClass@@@std@@@std@@@std@@SAAADPAU?$_Tree_node@U?$pair@$$CBMPAVFlightClass@@@std@@PAX@2@@Z ; std::_Tree_val<std::_Tree_simple_types<std::pair<float const ,FlightClass *> > >::_Color
	add	esp, 4
	mov	esi, eax
	mov	eax, DWORD PTR __Pnode$[ebp]
	push	eax
	call	?_Color@?$_Tree_val@U?$_Tree_simple_types@U?$pair@$$CBMPAVFlightClass@@@std@@@std@@@std@@SAAADPAU?$_Tree_node@U?$pair@$$CBMPAVFlightClass@@@std@@PAX@2@@Z ; std::_Tree_val<std::_Tree_simple_types<std::pair<float const ,FlightClass *> > >::_Color
	add	esp, 4
	mov	cl, BYTE PTR [esi]
	mov	BYTE PTR [eax], cl

; 1486 : 						this->_Color(_Fixnodeparent) = this->_Black;

	mov	edx, DWORD PTR __Fixnodeparent$[ebp]
	push	edx
	call	?_Color@?$_Tree_val@U?$_Tree_simple_types@U?$pair@$$CBMPAVFlightClass@@@std@@@std@@@std@@SAAADPAU?$_Tree_node@U?$pair@$$CBMPAVFlightClass@@@std@@PAX@2@@Z ; std::_Tree_val<std::_Tree_simple_types<std::pair<float const ,FlightClass *> > >::_Color
	add	esp, 4
	mov	BYTE PTR [eax], 1

; 1487 : 						this->_Color(this->_Left(_Pnode)) = this->_Black;

	mov	eax, DWORD PTR __Pnode$[ebp]
	push	eax
	call	?_Left@?$_Tree_val@U?$_Tree_simple_types@U?$pair@$$CBMPAVFlightClass@@@std@@@std@@@std@@SAAAPAU?$_Tree_node@U?$pair@$$CBMPAVFlightClass@@@std@@PAX@2@PAU32@@Z ; std::_Tree_val<std::_Tree_simple_types<std::pair<float const ,FlightClass *> > >::_Left
	add	esp, 4
	mov	ecx, DWORD PTR [eax]
	push	ecx
	call	?_Color@?$_Tree_val@U?$_Tree_simple_types@U?$pair@$$CBMPAVFlightClass@@@std@@@std@@@std@@SAAADPAU?$_Tree_node@U?$pair@$$CBMPAVFlightClass@@@std@@PAX@2@@Z ; std::_Tree_val<std::_Tree_simple_types<std::pair<float const ,FlightClass *> > >::_Color
	add	esp, 4
	mov	BYTE PTR [eax], 1

; 1488 : 						_Rrotate(_Fixnodeparent);

	mov	edx, DWORD PTR __Fixnodeparent$[ebp]
	push	edx
	mov	ecx, DWORD PTR _this$[ebp]
	call	?_Rrotate@?$_Tree@V?$_Tmap_traits@MPAVFlightClass@@U?$less@M@std@@V?$allocator@U?$pair@$$CBMPAVFlightClass@@@std@@@3@$0A@@std@@@std@@IAEXPAU?$_Tree_node@U?$pair@$$CBMPAVFlightClass@@@std@@PAX@2@@Z ; std::_Tree<std::_Tmap_traits<float,FlightClass *,std::less<float>,std::allocator<std::pair<float const ,FlightClass *> >,0> >::_Rrotate

; 1489 : 						break;	// tree now recolored/rebalanced

	jmp	SHORT $LN16@erase
$LN8@erase:

; 1490 : 						}
; 1491 : 					}

	jmp	$LN17@erase
$LN16@erase:

; 1492 : 
; 1493 : 			this->_Color(_Fixnode) = this->_Black;	// stopping node is black

	mov	eax, DWORD PTR __Fixnode$[ebp]
	push	eax
	call	?_Color@?$_Tree_val@U?$_Tree_simple_types@U?$pair@$$CBMPAVFlightClass@@@std@@@std@@@std@@SAAADPAU?$_Tree_node@U?$pair@$$CBMPAVFlightClass@@@std@@PAX@2@@Z ; std::_Tree_val<std::_Tree_simple_types<std::pair<float const ,FlightClass *> > >::_Color
	add	esp, 4
	mov	BYTE PTR [eax], 1
$LN19@erase:

; 1494 : 			}
; 1495 : 
; 1496 : 		this->_Getal().destroy(
; 1497 : 			_STD addressof(this->_Myval(_Erasednode)));	// delete erased node

	mov	ecx, DWORD PTR __Erasednode$[ebp]
	push	ecx
	call	?_Myval@?$_Tree_val@U?$_Tree_simple_types@U?$pair@$$CBMPAVFlightClass@@@std@@@std@@@std@@SAAAU?$pair@$$CBMPAVFlightClass@@@2@PAU?$_Tree_node@U?$pair@$$CBMPAVFlightClass@@@std@@PAX@2@@Z ; std::_Tree_val<std::_Tree_simple_types<std::pair<float const ,FlightClass *> > >::_Myval
	add	esp, 4
	push	eax
	call	??$addressof@U?$pair@$$CBMPAVFlightClass@@@std@@@std@@YAPAU?$pair@$$CBMPAVFlightClass@@@0@AAU10@@Z ; std::addressof<std::pair<float const ,FlightClass *> >
	add	esp, 4
	push	eax
	lea	edx, DWORD PTR $T2[ebp]
	push	edx
	mov	ecx, DWORD PTR _this$[ebp]
	call	?_Getal@?$_Tree_alloc@$0A@U?$_Tree_base_types@U?$pair@$$CBMPAVFlightClass@@@std@@V?$allocator@U?$pair@$$CBMPAVFlightClass@@@std@@@2@@std@@@std@@QBE?AU?$_Wrap_alloc@V?$allocator@U?$_Tree_node@U?$pair@$$CBMPAVFlightClass@@@std@@PAX@std@@@std@@@2@XZ ; std::_Tree_alloc<0,std::_Tree_base_types<std::pair<float const ,FlightClass *>,std::allocator<std::pair<float const ,FlightClass *> > > >::_Getal
	mov	ecx, eax
	call	??$destroy@U?$pair@$$CBMPAVFlightClass@@@std@@@?$_Wrap_alloc@V?$allocator@U?$_Tree_node@U?$pair@$$CBMPAVFlightClass@@@std@@PAX@std@@@std@@@std@@QAEXPAU?$pair@$$CBMPAVFlightClass@@@1@@Z ; std::_Wrap_alloc<std::allocator<std::_Tree_node<std::pair<float const ,FlightClass *>,void *> > >::destroy<std::pair<float const ,FlightClass *> >

; 1498 : 
; 1499 : 		this->_Getal().deallocate(_Erasednode, 1);

	push	1
	mov	eax, DWORD PTR __Erasednode$[ebp]
	push	eax
	lea	ecx, DWORD PTR $T1[ebp]
	push	ecx
	mov	ecx, DWORD PTR _this$[ebp]
	call	?_Getal@?$_Tree_alloc@$0A@U?$_Tree_base_types@U?$pair@$$CBMPAVFlightClass@@@std@@V?$allocator@U?$pair@$$CBMPAVFlightClass@@@std@@@2@@std@@@std@@QBE?AU?$_Wrap_alloc@V?$allocator@U?$_Tree_node@U?$pair@$$CBMPAVFlightClass@@@std@@PAX@std@@@std@@@2@XZ ; std::_Tree_alloc<0,std::_Tree_base_types<std::pair<float const ,FlightClass *>,std::allocator<std::pair<float const ,FlightClass *> > > >::_Getal
	mov	ecx, eax
	call	?deallocate@?$_Wrap_alloc@V?$allocator@U?$_Tree_node@U?$pair@$$CBMPAVFlightClass@@@std@@PAX@std@@@std@@@std@@QAEXPAU?$_Tree_node@U?$pair@$$CBMPAVFlightClass@@@std@@PAX@2@I@Z ; std::_Wrap_alloc<std::allocator<std::_Tree_node<std::pair<float const ,FlightClass *>,void *> > >::deallocate

; 1500 : 
; 1501 : 		if (0 < this->_Mysize)

	mov	edx, DWORD PTR _this$[ebp]
	cmp	DWORD PTR [edx+4], 0
	jbe	SHORT $LN1@erase

; 1502 : 			--this->_Mysize;

	mov	eax, DWORD PTR _this$[ebp]
	mov	ecx, DWORD PTR [eax+4]
	sub	ecx, 1
	mov	edx, DWORD PTR _this$[ebp]
	mov	DWORD PTR [edx+4], ecx
$LN1@erase:

; 1503 : 
; 1504 : 		return (iterator(_Where._Ptr, this));	// return successor iterator

	mov	eax, DWORD PTR _this$[ebp]
	push	eax
	mov	ecx, DWORD PTR __Where$[ebp]
	push	ecx
	mov	ecx, DWORD PTR ___$ReturnUdt$[ebp]
	call	??0?$_Tree_iterator@V?$_Tree_val@U?$_Tree_simple_types@U?$pair@$$CBMPAVFlightClass@@@std@@@std@@@std@@@std@@QAE@PAU?$_Tree_node@U?$pair@$$CBMPAVFlightClass@@@std@@PAX@1@PBV?$_Tree_val@U?$_Tree_simple_types@U?$pair@$$CBMPAVFlightClass@@@std@@@std@@@1@@Z ; std::_Tree_iterator<std::_Tree_val<std::_Tree_simple_types<std::pair<float const ,FlightClass *> > > >::_Tree_iterator<std::_Tree_val<std::_Tree_simple_types<std::pair<float const ,FlightClass *> > > >
	mov	eax, DWORD PTR ___$ReturnUdt$[ebp]
$LN42@erase:

; 1505 : 		}

	pop	esi
	mov	esp, ebp
	pop	ebp
	ret	8
?erase@?$_Tree@V?$_Tmap_traits@MPAVFlightClass@@U?$less@M@std@@V?$allocator@U?$pair@$$CBMPAVFlightClass@@@std@@@3@$0A@@std@@@std@@QAE?AV?$_Tree_iterator@V?$_Tree_val@U?$_Tree_simple_types@U?$pair@$$CBMPAVFlightClass@@@std@@@std@@@std@@@2@V?$_Tree_const_iterator@V?$_Tree_val@U?$_Tree_simple_types@U?$pair@$$CBMPAVFlightClass@@@std@@@std@@@std@@@2@@Z ENDP ; std::_Tree<std::_Tmap_traits<float,FlightClass *,std::less<float>,std::allocator<std::pair<float const ,FlightClass *> >,0> >::erase
_TEXT	ENDS
; Function compile flags: /Odtp
; File c:\program files (x86)\microsoft visual studio 11.0\vc\include\xtree
;	COMDAT ?end@?$_Tree@V?$_Tmap_traits@MPAVFlightClass@@U?$less@M@std@@V?$allocator@U?$pair@$$CBMPAVFlightClass@@@std@@@3@$0A@@std@@@std@@QAE?AV?$_Tree_iterator@V?$_Tree_val@U?$_Tree_simple_types@U?$pair@$$CBMPAVFlightClass@@@std@@@std@@@std@@@2@XZ
_TEXT	SEGMENT
_this$ = -4						; size = 4
___$ReturnUdt$ = 8					; size = 4
?end@?$_Tree@V?$_Tmap_traits@MPAVFlightClass@@U?$less@M@std@@V?$allocator@U?$pair@$$CBMPAVFlightClass@@@std@@@3@$0A@@std@@@std@@QAE?AV?$_Tree_iterator@V?$_Tree_val@U?$_Tree_simple_types@U?$pair@$$CBMPAVFlightClass@@@std@@@std@@@std@@@2@XZ PROC ; std::_Tree<std::_Tmap_traits<float,FlightClass *,std::less<float>,std::allocator<std::pair<float const ,FlightClass *> >,0> >::end, COMDAT
; _this$ = ecx

; 1220 : 		{	// return iterator for end of mutable sequence

	push	ebp
	mov	ebp, esp
	push	ecx
	mov	DWORD PTR _this$[ebp], ecx

; 1221 : 		return (iterator(this->_Myhead, this));

	mov	eax, DWORD PTR _this$[ebp]
	push	eax
	mov	ecx, DWORD PTR _this$[ebp]
	mov	edx, DWORD PTR [ecx]
	push	edx
	mov	ecx, DWORD PTR ___$ReturnUdt$[ebp]
	call	??0?$_Tree_iterator@V?$_Tree_val@U?$_Tree_simple_types@U?$pair@$$CBMPAVFlightClass@@@std@@@std@@@std@@@std@@QAE@PAU?$_Tree_node@U?$pair@$$CBMPAVFlightClass@@@std@@PAX@1@PBV?$_Tree_val@U?$_Tree_simple_types@U?$pair@$$CBMPAVFlightClass@@@std@@@std@@@1@@Z ; std::_Tree_iterator<std::_Tree_val<std::_Tree_simple_types<std::pair<float const ,FlightClass *> > > >::_Tree_iterator<std::_Tree_val<std::_Tree_simple_types<std::pair<float const ,FlightClass *> > > >
	mov	eax, DWORD PTR ___$ReturnUdt$[ebp]

; 1222 : 		}

	mov	esp, ebp
	pop	ebp
	ret	4
?end@?$_Tree@V?$_Tmap_traits@MPAVFlightClass@@U?$less@M@std@@V?$allocator@U?$pair@$$CBMPAVFlightClass@@@std@@@3@$0A@@std@@@std@@QAE?AV?$_Tree_iterator@V?$_Tree_val@U?$_Tree_simple_types@U?$pair@$$CBMPAVFlightClass@@@std@@@std@@@std@@@2@XZ ENDP ; std::_Tree<std::_Tmap_traits<float,FlightClass *,std::less<float>,std::allocator<std::pair<float const ,FlightClass *> >,0> >::end
_TEXT	ENDS
; Function compile flags: /Odtp
; File c:\program files (x86)\microsoft visual studio 11.0\vc\include\xtree
