; Listing generated by Microsoft (R) Optimizing Compiler Version 17.00.51106.1 

	TITLE	C:\Users\Zhitao Li\Documents\Visual Studio 2012\Projects\Freefalcon\FALCLIB\falcent.cpp
	.686P
	.XMM
	include listing.inc
	.model	flat

INCLUDELIB LIBCMT
INCLUDELIB OLDNAMES

PUBLIC	?digits@?$numeric_limits@_W@std@@2HB		; std::numeric_limits<wchar_t>::digits
PUBLIC	?digits10@?$numeric_limits@_W@std@@2HB		; std::numeric_limits<wchar_t>::digits10
PUBLIC	?value@?$integral_constant@_N$00@std@@2_NB	; std::integral_constant<bool,1>::value
PUBLIC	?is_modulo@?$numeric_limits@_N@std@@2_NB	; std::numeric_limits<bool>::is_modulo
PUBLIC	?is_signed@?$numeric_limits@_N@std@@2_NB	; std::numeric_limits<bool>::is_signed
PUBLIC	?digits@?$numeric_limits@_N@std@@2HB		; std::numeric_limits<bool>::digits
PUBLIC	?digits10@?$numeric_limits@_N@std@@2HB		; std::numeric_limits<bool>::digits10
PUBLIC	?is_signed@?$numeric_limits@C@std@@2_NB		; std::numeric_limits<signed char>::is_signed
PUBLIC	?digits@?$numeric_limits@C@std@@2HB		; std::numeric_limits<signed char>::digits
PUBLIC	?digits10@?$numeric_limits@C@std@@2HB		; std::numeric_limits<signed char>::digits10
PUBLIC	?is_signed@?$numeric_limits@E@std@@2_NB		; std::numeric_limits<unsigned char>::is_signed
PUBLIC	?digits@?$numeric_limits@E@std@@2HB		; std::numeric_limits<unsigned char>::digits
PUBLIC	?digits10@?$numeric_limits@E@std@@2HB		; std::numeric_limits<unsigned char>::digits10
PUBLIC	?is_signed@?$numeric_limits@F@std@@2_NB		; std::numeric_limits<short>::is_signed
PUBLIC	?digits@?$numeric_limits@F@std@@2HB		; std::numeric_limits<short>::digits
PUBLIC	?digits10@?$numeric_limits@F@std@@2HB		; std::numeric_limits<short>::digits10
PUBLIC	?is_signed@?$numeric_limits@G@std@@2_NB		; std::numeric_limits<unsigned short>::is_signed
PUBLIC	?digits@?$numeric_limits@G@std@@2HB		; std::numeric_limits<unsigned short>::digits
PUBLIC	?digits10@?$numeric_limits@G@std@@2HB		; std::numeric_limits<unsigned short>::digits10
PUBLIC	?is_signed@?$numeric_limits@H@std@@2_NB		; std::numeric_limits<int>::is_signed
PUBLIC	?value@?$_Sizeof@HU_Nil@std@@U12@U12@U12@U12@U12@U12@@std@@2IB ; std::_Sizeof<int,std::_Nil,std::_Nil,std::_Nil,std::_Nil,std::_Nil,std::_Nil,std::_Nil>::value
PUBLIC	?digits@?$numeric_limits@H@std@@2HB		; std::numeric_limits<int>::digits
PUBLIC	?digits10@?$numeric_limits@H@std@@2HB		; std::numeric_limits<int>::digits10
PUBLIC	?is_signed@?$numeric_limits@I@std@@2_NB		; std::numeric_limits<unsigned int>::is_signed
PUBLIC	?digits@?$numeric_limits@I@std@@2HB		; std::numeric_limits<unsigned int>::digits
PUBLIC	?digits10@?$numeric_limits@I@std@@2HB		; std::numeric_limits<unsigned int>::digits10
PUBLIC	?is_signed@?$numeric_limits@J@std@@2_NB		; std::numeric_limits<long>::is_signed
PUBLIC	?digits@?$numeric_limits@J@std@@2HB		; std::numeric_limits<long>::digits
PUBLIC	?digits10@?$numeric_limits@J@std@@2HB		; std::numeric_limits<long>::digits10
PUBLIC	?is_signed@?$numeric_limits@K@std@@2_NB		; std::numeric_limits<unsigned long>::is_signed
PUBLIC	?digits@?$numeric_limits@K@std@@2HB		; std::numeric_limits<unsigned long>::digits
PUBLIC	?digits10@?$numeric_limits@K@std@@2HB		; std::numeric_limits<unsigned long>::digits10
PUBLIC	?is_signed@?$numeric_limits@_J@std@@2_NB	; std::numeric_limits<__int64>::is_signed
PUBLIC	?digits@?$numeric_limits@_J@std@@2HB		; std::numeric_limits<__int64>::digits
PUBLIC	?digits10@?$numeric_limits@_J@std@@2HB		; std::numeric_limits<__int64>::digits10
PUBLIC	?is_signed@?$numeric_limits@_K@std@@2_NB	; std::numeric_limits<unsigned __int64>::is_signed
PUBLIC	?digits@?$numeric_limits@_K@std@@2HB		; std::numeric_limits<unsigned __int64>::digits
PUBLIC	?digits10@?$numeric_limits@_K@std@@2HB		; std::numeric_limits<unsigned __int64>::digits10
PUBLIC	?digits@?$numeric_limits@M@std@@2HB		; std::numeric_limits<float>::digits
PUBLIC	?digits10@?$numeric_limits@M@std@@2HB		; std::numeric_limits<float>::digits10
PUBLIC	?max_digits10@?$numeric_limits@M@std@@2HB	; std::numeric_limits<float>::max_digits10
PUBLIC	?max_exponent@?$numeric_limits@M@std@@2HB	; std::numeric_limits<float>::max_exponent
PUBLIC	?max_exponent10@?$numeric_limits@M@std@@2HB	; std::numeric_limits<float>::max_exponent10
PUBLIC	?min_exponent@?$numeric_limits@M@std@@2HB	; std::numeric_limits<float>::min_exponent
PUBLIC	?min_exponent10@?$numeric_limits@M@std@@2HB	; std::numeric_limits<float>::min_exponent10
PUBLIC	?value@?$integral_constant@I$0A@@std@@2IB	; std::integral_constant<unsigned int,0>::value
PUBLIC	?digits@?$numeric_limits@N@std@@2HB		; std::numeric_limits<double>::digits
PUBLIC	?digits10@?$numeric_limits@N@std@@2HB		; std::numeric_limits<double>::digits10
PUBLIC	?max_digits10@?$numeric_limits@N@std@@2HB	; std::numeric_limits<double>::max_digits10
PUBLIC	?max_exponent@?$numeric_limits@N@std@@2HB	; std::numeric_limits<double>::max_exponent
PUBLIC	?max_exponent10@?$numeric_limits@N@std@@2HB	; std::numeric_limits<double>::max_exponent10
PUBLIC	?min_exponent@?$numeric_limits@N@std@@2HB	; std::numeric_limits<double>::min_exponent
PUBLIC	?min_exponent10@?$numeric_limits@N@std@@2HB	; std::numeric_limits<double>::min_exponent10
PUBLIC	?digits@?$numeric_limits@O@std@@2HB		; std::numeric_limits<long double>::digits
PUBLIC	?digits10@?$numeric_limits@O@std@@2HB		; std::numeric_limits<long double>::digits10
PUBLIC	?max_digits10@?$numeric_limits@O@std@@2HB	; std::numeric_limits<long double>::max_digits10
PUBLIC	?max_exponent@?$numeric_limits@O@std@@2HB	; std::numeric_limits<long double>::max_exponent
PUBLIC	?max_exponent10@?$numeric_limits@O@std@@2HB	; std::numeric_limits<long double>::max_exponent10
PUBLIC	?min_exponent@?$numeric_limits@O@std@@2HB	; std::numeric_limits<long double>::min_exponent
PUBLIC	?min_exponent10@?$numeric_limits@O@std@@2HB	; std::numeric_limits<long double>::min_exponent10
PUBLIC	?value@?$_Sizeof@U_Nil@std@@U12@U12@U12@U12@U12@U12@U12@@std@@2IB ; std::_Sizeof<std::_Nil,std::_Nil,std::_Nil,std::_Nil,std::_Nil,std::_Nil,std::_Nil,std::_Nil>::value
PUBLIC	?has_denorm@_Num_base@std@@2W4float_denorm_style@2@B ; std::_Num_base::has_denorm
PUBLIC	?has_denorm_loss@_Num_base@std@@2_NB		; std::_Num_base::has_denorm_loss
PUBLIC	?has_infinity@_Num_base@std@@2_NB		; std::_Num_base::has_infinity
PUBLIC	?has_quiet_NaN@_Num_base@std@@2_NB		; std::_Num_base::has_quiet_NaN
PUBLIC	?has_signaling_NaN@_Num_base@std@@2_NB		; std::_Num_base::has_signaling_NaN
PUBLIC	?is_bounded@_Num_base@std@@2_NB			; std::_Num_base::is_bounded
PUBLIC	?is_exact@_Num_base@std@@2_NB			; std::_Num_base::is_exact
PUBLIC	?is_iec559@_Num_base@std@@2_NB			; std::_Num_base::is_iec559
PUBLIC	?is_integer@_Num_base@std@@2_NB			; std::_Num_base::is_integer
PUBLIC	?is_modulo@_Num_base@std@@2_NB			; std::_Num_base::is_modulo
PUBLIC	?is_signed@_Num_base@std@@2_NB			; std::_Num_base::is_signed
PUBLIC	?is_specialized@_Num_base@std@@2_NB		; std::_Num_base::is_specialized
PUBLIC	?tinyness_before@_Num_base@std@@2_NB		; std::_Num_base::tinyness_before
PUBLIC	?traps@_Num_base@std@@2_NB			; std::_Num_base::traps
PUBLIC	?round_style@_Num_base@std@@2W4float_round_style@2@B ; std::_Num_base::round_style
PUBLIC	?digits@_Num_base@std@@2HB			; std::_Num_base::digits
PUBLIC	?digits10@_Num_base@std@@2HB			; std::_Num_base::digits10
PUBLIC	?max_digits10@_Num_base@std@@2HB		; std::_Num_base::max_digits10
PUBLIC	?max_exponent@_Num_base@std@@2HB		; std::_Num_base::max_exponent
PUBLIC	?max_exponent10@_Num_base@std@@2HB		; std::_Num_base::max_exponent10
PUBLIC	?min_exponent@_Num_base@std@@2HB		; std::_Num_base::min_exponent
PUBLIC	?min_exponent10@_Num_base@std@@2HB		; std::_Num_base::min_exponent10
PUBLIC	?radix@_Num_base@std@@2HB			; std::_Num_base::radix
PUBLIC	?is_bounded@_Num_int_base@std@@2_NB		; std::_Num_int_base::is_bounded
PUBLIC	?is_exact@_Num_int_base@std@@2_NB		; std::_Num_int_base::is_exact
PUBLIC	?is_integer@_Num_int_base@std@@2_NB		; std::_Num_int_base::is_integer
PUBLIC	?is_modulo@_Num_int_base@std@@2_NB		; std::_Num_int_base::is_modulo
PUBLIC	?is_specialized@_Num_int_base@std@@2_NB		; std::_Num_int_base::is_specialized
PUBLIC	?radix@_Num_int_base@std@@2HB			; std::_Num_int_base::radix
PUBLIC	?has_denorm@_Num_float_base@std@@2W4float_denorm_style@2@B ; std::_Num_float_base::has_denorm
PUBLIC	?has_denorm_loss@_Num_float_base@std@@2_NB	; std::_Num_float_base::has_denorm_loss
PUBLIC	?SIMDIRTYDATA_INTERVAL@FalconEntity@@2KB	; FalconEntity::SIMDIRTYDATA_INTERVAL
PUBLIC	?CMPDIRTYDATA_INTERVAL@FalconEntity@@2KB	; FalconEntity::CMPDIRTYDATA_INTERVAL
PUBLIC	?has_infinity@_Num_float_base@std@@2_NB		; std::_Num_float_base::has_infinity
PUBLIC	?has_quiet_NaN@_Num_float_base@std@@2_NB	; std::_Num_float_base::has_quiet_NaN
PUBLIC	?has_signaling_NaN@_Num_float_base@std@@2_NB	; std::_Num_float_base::has_signaling_NaN
PUBLIC	?is_bounded@_Num_float_base@std@@2_NB		; std::_Num_float_base::is_bounded
PUBLIC	?is_exact@_Num_float_base@std@@2_NB		; std::_Num_float_base::is_exact
PUBLIC	?is_iec559@_Num_float_base@std@@2_NB		; std::_Num_float_base::is_iec559
PUBLIC	?is_integer@_Num_float_base@std@@2_NB		; std::_Num_float_base::is_integer
PUBLIC	?is_modulo@_Num_float_base@std@@2_NB		; std::_Num_float_base::is_modulo
PUBLIC	?is_signed@_Num_float_base@std@@2_NB		; std::_Num_float_base::is_signed
PUBLIC	?is_specialized@_Num_float_base@std@@2_NB	; std::_Num_float_base::is_specialized
PUBLIC	?tinyness_before@_Num_float_base@std@@2_NB	; std::_Num_float_base::tinyness_before
PUBLIC	?traps@_Num_float_base@std@@2_NB		; std::_Num_float_base::traps
PUBLIC	?round_style@_Num_float_base@std@@2W4float_round_style@2@B ; std::_Num_float_base::round_style
PUBLIC	?radix@_Num_float_base@std@@2HB			; std::_Num_float_base::radix
PUBLIC	?is_signed@?$numeric_limits@D@std@@2_NB		; std::numeric_limits<char>::is_signed
PUBLIC	?digits@?$numeric_limits@D@std@@2HB		; std::numeric_limits<char>::digits
PUBLIC	?digits10@?$numeric_limits@D@std@@2HB		; std::numeric_limits<char>::digits10
PUBLIC	?value@?$integral_constant@_N$0A@@std@@2_NB	; std::integral_constant<bool,0>::value
PUBLIC	?is_signed@?$numeric_limits@_W@std@@2_NB	; std::numeric_limits<wchar_t>::is_signed
;	COMDAT ?is_signed@?$numeric_limits@_W@std@@2_NB
CONST	SEGMENT
?is_signed@?$numeric_limits@_W@std@@2_NB DB 00H		; std::numeric_limits<wchar_t>::is_signed
CONST	ENDS
;	COMDAT ?value@?$integral_constant@_N$0A@@std@@2_NB
CONST	SEGMENT
?value@?$integral_constant@_N$0A@@std@@2_NB DB 00H	; std::integral_constant<bool,0>::value
CONST	ENDS
;	COMDAT ?digits10@?$numeric_limits@D@std@@2HB
CONST	SEGMENT
?digits10@?$numeric_limits@D@std@@2HB DD 02H		; std::numeric_limits<char>::digits10
CONST	ENDS
;	COMDAT ?digits@?$numeric_limits@D@std@@2HB
CONST	SEGMENT
?digits@?$numeric_limits@D@std@@2HB DD 07H		; std::numeric_limits<char>::digits
CONST	ENDS
;	COMDAT ?is_signed@?$numeric_limits@D@std@@2_NB
CONST	SEGMENT
?is_signed@?$numeric_limits@D@std@@2_NB DB 01H		; std::numeric_limits<char>::is_signed
CONST	ENDS
;	COMDAT ?radix@_Num_float_base@std@@2HB
CONST	SEGMENT
?radix@_Num_float_base@std@@2HB DD 02H			; std::_Num_float_base::radix
CONST	ENDS
;	COMDAT ?round_style@_Num_float_base@std@@2W4float_round_style@2@B
CONST	SEGMENT
?round_style@_Num_float_base@std@@2W4float_round_style@2@B DD 01H ; std::_Num_float_base::round_style
CONST	ENDS
;	COMDAT ?traps@_Num_float_base@std@@2_NB
CONST	SEGMENT
?traps@_Num_float_base@std@@2_NB DB 00H			; std::_Num_float_base::traps
CONST	ENDS
;	COMDAT ?tinyness_before@_Num_float_base@std@@2_NB
CONST	SEGMENT
?tinyness_before@_Num_float_base@std@@2_NB DB 01H	; std::_Num_float_base::tinyness_before
CONST	ENDS
;	COMDAT ?is_specialized@_Num_float_base@std@@2_NB
CONST	SEGMENT
?is_specialized@_Num_float_base@std@@2_NB DB 01H	; std::_Num_float_base::is_specialized
CONST	ENDS
;	COMDAT ?is_signed@_Num_float_base@std@@2_NB
CONST	SEGMENT
?is_signed@_Num_float_base@std@@2_NB DB 01H		; std::_Num_float_base::is_signed
CONST	ENDS
;	COMDAT ?is_modulo@_Num_float_base@std@@2_NB
CONST	SEGMENT
?is_modulo@_Num_float_base@std@@2_NB DB 00H		; std::_Num_float_base::is_modulo
CONST	ENDS
;	COMDAT ?is_integer@_Num_float_base@std@@2_NB
CONST	SEGMENT
?is_integer@_Num_float_base@std@@2_NB DB 00H		; std::_Num_float_base::is_integer
CONST	ENDS
;	COMDAT ?is_iec559@_Num_float_base@std@@2_NB
CONST	SEGMENT
?is_iec559@_Num_float_base@std@@2_NB DB 01H		; std::_Num_float_base::is_iec559
CONST	ENDS
;	COMDAT ?is_exact@_Num_float_base@std@@2_NB
CONST	SEGMENT
?is_exact@_Num_float_base@std@@2_NB DB 00H		; std::_Num_float_base::is_exact
CONST	ENDS
;	COMDAT ?is_bounded@_Num_float_base@std@@2_NB
CONST	SEGMENT
?is_bounded@_Num_float_base@std@@2_NB DB 01H		; std::_Num_float_base::is_bounded
CONST	ENDS
;	COMDAT ?has_signaling_NaN@_Num_float_base@std@@2_NB
CONST	SEGMENT
?has_signaling_NaN@_Num_float_base@std@@2_NB DB 01H	; std::_Num_float_base::has_signaling_NaN
CONST	ENDS
;	COMDAT ?has_quiet_NaN@_Num_float_base@std@@2_NB
CONST	SEGMENT
?has_quiet_NaN@_Num_float_base@std@@2_NB DB 01H		; std::_Num_float_base::has_quiet_NaN
CONST	ENDS
;	COMDAT ?has_infinity@_Num_float_base@std@@2_NB
CONST	SEGMENT
?has_infinity@_Num_float_base@std@@2_NB DB 01H		; std::_Num_float_base::has_infinity
CONST	ENDS
;	COMDAT ?CMPDIRTYDATA_INTERVAL@FalconEntity@@2KB
CONST	SEGMENT
?CMPDIRTYDATA_INTERVAL@FalconEntity@@2KB DD 0c8H	; FalconEntity::CMPDIRTYDATA_INTERVAL
CONST	ENDS
;	COMDAT ?SIMDIRTYDATA_INTERVAL@FalconEntity@@2KB
CONST	SEGMENT
?SIMDIRTYDATA_INTERVAL@FalconEntity@@2KB DD 0c8H	; FalconEntity::SIMDIRTYDATA_INTERVAL
CONST	ENDS
;	COMDAT ?has_denorm_loss@_Num_float_base@std@@2_NB
CONST	SEGMENT
?has_denorm_loss@_Num_float_base@std@@2_NB DB 01H	; std::_Num_float_base::has_denorm_loss
CONST	ENDS
;	COMDAT ?has_denorm@_Num_float_base@std@@2W4float_denorm_style@2@B
CONST	SEGMENT
?has_denorm@_Num_float_base@std@@2W4float_denorm_style@2@B DD 01H ; std::_Num_float_base::has_denorm
CONST	ENDS
;	COMDAT ?radix@_Num_int_base@std@@2HB
CONST	SEGMENT
?radix@_Num_int_base@std@@2HB DD 02H			; std::_Num_int_base::radix
CONST	ENDS
;	COMDAT ?is_specialized@_Num_int_base@std@@2_NB
CONST	SEGMENT
?is_specialized@_Num_int_base@std@@2_NB DB 01H		; std::_Num_int_base::is_specialized
CONST	ENDS
;	COMDAT ?is_modulo@_Num_int_base@std@@2_NB
CONST	SEGMENT
?is_modulo@_Num_int_base@std@@2_NB DB 01H		; std::_Num_int_base::is_modulo
CONST	ENDS
;	COMDAT ?is_integer@_Num_int_base@std@@2_NB
CONST	SEGMENT
?is_integer@_Num_int_base@std@@2_NB DB 01H		; std::_Num_int_base::is_integer
CONST	ENDS
CONST	SEGMENT
_L_2	DD	03f317218r			; 0.693147
CONST	ENDS
;	COMDAT ?is_exact@_Num_int_base@std@@2_NB
CONST	SEGMENT
?is_exact@_Num_int_base@std@@2_NB DB 01H		; std::_Num_int_base::is_exact
CONST	ENDS
;	COMDAT ?is_bounded@_Num_int_base@std@@2_NB
CONST	SEGMENT
?is_bounded@_Num_int_base@std@@2_NB DB 01H		; std::_Num_int_base::is_bounded
CONST	ENDS
;	COMDAT ?radix@_Num_base@std@@2HB
CONST	SEGMENT
?radix@_Num_base@std@@2HB DD 00H			; std::_Num_base::radix
CONST	ENDS
;	COMDAT ?min_exponent10@_Num_base@std@@2HB
CONST	SEGMENT
?min_exponent10@_Num_base@std@@2HB DD 00H		; std::_Num_base::min_exponent10
CONST	ENDS
;	COMDAT ?min_exponent@_Num_base@std@@2HB
CONST	SEGMENT
?min_exponent@_Num_base@std@@2HB DD 00H			; std::_Num_base::min_exponent
CONST	ENDS
;	COMDAT ?max_exponent10@_Num_base@std@@2HB
CONST	SEGMENT
?max_exponent10@_Num_base@std@@2HB DD 00H		; std::_Num_base::max_exponent10
CONST	ENDS
;	COMDAT ?max_exponent@_Num_base@std@@2HB
CONST	SEGMENT
?max_exponent@_Num_base@std@@2HB DD 00H			; std::_Num_base::max_exponent
CONST	ENDS
;	COMDAT ?max_digits10@_Num_base@std@@2HB
CONST	SEGMENT
?max_digits10@_Num_base@std@@2HB DD 00H			; std::_Num_base::max_digits10
CONST	ENDS
;	COMDAT ?digits10@_Num_base@std@@2HB
CONST	SEGMENT
?digits10@_Num_base@std@@2HB DD 00H			; std::_Num_base::digits10
CONST	ENDS
;	COMDAT ?digits@_Num_base@std@@2HB
CONST	SEGMENT
?digits@_Num_base@std@@2HB DD 00H			; std::_Num_base::digits
CONST	ENDS
;	COMDAT ?round_style@_Num_base@std@@2W4float_round_style@2@B
CONST	SEGMENT
?round_style@_Num_base@std@@2W4float_round_style@2@B DD 00H ; std::_Num_base::round_style
CONST	ENDS
;	COMDAT ?traps@_Num_base@std@@2_NB
CONST	SEGMENT
?traps@_Num_base@std@@2_NB DB 00H			; std::_Num_base::traps
CONST	ENDS
;	COMDAT ?tinyness_before@_Num_base@std@@2_NB
CONST	SEGMENT
?tinyness_before@_Num_base@std@@2_NB DB 00H		; std::_Num_base::tinyness_before
CONST	ENDS
;	COMDAT ?is_specialized@_Num_base@std@@2_NB
CONST	SEGMENT
?is_specialized@_Num_base@std@@2_NB DB 00H		; std::_Num_base::is_specialized
CONST	ENDS
;	COMDAT ?is_signed@_Num_base@std@@2_NB
CONST	SEGMENT
?is_signed@_Num_base@std@@2_NB DB 00H			; std::_Num_base::is_signed
CONST	ENDS
;	COMDAT ?is_modulo@_Num_base@std@@2_NB
CONST	SEGMENT
?is_modulo@_Num_base@std@@2_NB DB 00H			; std::_Num_base::is_modulo
CONST	ENDS
;	COMDAT ?is_integer@_Num_base@std@@2_NB
CONST	SEGMENT
?is_integer@_Num_base@std@@2_NB DB 00H			; std::_Num_base::is_integer
CONST	ENDS
;	COMDAT ?is_iec559@_Num_base@std@@2_NB
CONST	SEGMENT
?is_iec559@_Num_base@std@@2_NB DB 00H			; std::_Num_base::is_iec559
CONST	ENDS
;	COMDAT ?is_exact@_Num_base@std@@2_NB
CONST	SEGMENT
?is_exact@_Num_base@std@@2_NB DB 00H			; std::_Num_base::is_exact
CONST	ENDS
;	COMDAT ?is_bounded@_Num_base@std@@2_NB
CONST	SEGMENT
?is_bounded@_Num_base@std@@2_NB DB 00H			; std::_Num_base::is_bounded
CONST	ENDS
;	COMDAT ?has_signaling_NaN@_Num_base@std@@2_NB
CONST	SEGMENT
?has_signaling_NaN@_Num_base@std@@2_NB DB 00H		; std::_Num_base::has_signaling_NaN
CONST	ENDS
;	COMDAT ?has_quiet_NaN@_Num_base@std@@2_NB
CONST	SEGMENT
?has_quiet_NaN@_Num_base@std@@2_NB DB 00H		; std::_Num_base::has_quiet_NaN
CONST	ENDS
;	COMDAT ?has_infinity@_Num_base@std@@2_NB
CONST	SEGMENT
?has_infinity@_Num_base@std@@2_NB DB 00H		; std::_Num_base::has_infinity
CONST	ENDS
;	COMDAT ?has_denorm_loss@_Num_base@std@@2_NB
CONST	SEGMENT
?has_denorm_loss@_Num_base@std@@2_NB DB 00H		; std::_Num_base::has_denorm_loss
CONST	ENDS
;	COMDAT ?has_denorm@_Num_base@std@@2W4float_denorm_style@2@B
CONST	SEGMENT
?has_denorm@_Num_base@std@@2W4float_denorm_style@2@B DD 00H ; std::_Num_base::has_denorm
CONST	ENDS
;	COMDAT ?value@?$_Sizeof@U_Nil@std@@U12@U12@U12@U12@U12@U12@U12@@std@@2IB
CONST	SEGMENT
?value@?$_Sizeof@U_Nil@std@@U12@U12@U12@U12@U12@U12@U12@@std@@2IB DD 00H ; std::_Sizeof<std::_Nil,std::_Nil,std::_Nil,std::_Nil,std::_Nil,std::_Nil,std::_Nil,std::_Nil>::value
CONST	ENDS
;	COMDAT ?min_exponent10@?$numeric_limits@O@std@@2HB
CONST	SEGMENT
?min_exponent10@?$numeric_limits@O@std@@2HB DD 0fffffecdH ; std::numeric_limits<long double>::min_exponent10
CONST	ENDS
;	COMDAT ?min_exponent@?$numeric_limits@O@std@@2HB
CONST	SEGMENT
?min_exponent@?$numeric_limits@O@std@@2HB DD 0fffffc03H	; std::numeric_limits<long double>::min_exponent
CONST	ENDS
;	COMDAT ?max_exponent10@?$numeric_limits@O@std@@2HB
CONST	SEGMENT
?max_exponent10@?$numeric_limits@O@std@@2HB DD 0134H	; std::numeric_limits<long double>::max_exponent10
CONST	ENDS
;	COMDAT ?max_exponent@?$numeric_limits@O@std@@2HB
CONST	SEGMENT
?max_exponent@?$numeric_limits@O@std@@2HB DD 0400H	; std::numeric_limits<long double>::max_exponent
CONST	ENDS
;	COMDAT ?max_digits10@?$numeric_limits@O@std@@2HB
CONST	SEGMENT
?max_digits10@?$numeric_limits@O@std@@2HB DD 011H	; std::numeric_limits<long double>::max_digits10
CONST	ENDS
;	COMDAT ?digits10@?$numeric_limits@O@std@@2HB
CONST	SEGMENT
?digits10@?$numeric_limits@O@std@@2HB DD 0fH		; std::numeric_limits<long double>::digits10
CONST	ENDS
;	COMDAT ?digits@?$numeric_limits@O@std@@2HB
CONST	SEGMENT
?digits@?$numeric_limits@O@std@@2HB DD 035H		; std::numeric_limits<long double>::digits
CONST	ENDS
;	COMDAT ?min_exponent10@?$numeric_limits@N@std@@2HB
CONST	SEGMENT
?min_exponent10@?$numeric_limits@N@std@@2HB DD 0fffffecdH ; std::numeric_limits<double>::min_exponent10
CONST	ENDS
;	COMDAT ?min_exponent@?$numeric_limits@N@std@@2HB
CONST	SEGMENT
?min_exponent@?$numeric_limits@N@std@@2HB DD 0fffffc03H	; std::numeric_limits<double>::min_exponent
CONST	ENDS
;	COMDAT ?max_exponent10@?$numeric_limits@N@std@@2HB
CONST	SEGMENT
?max_exponent10@?$numeric_limits@N@std@@2HB DD 0134H	; std::numeric_limits<double>::max_exponent10
CONST	ENDS
;	COMDAT ?max_exponent@?$numeric_limits@N@std@@2HB
CONST	SEGMENT
?max_exponent@?$numeric_limits@N@std@@2HB DD 0400H	; std::numeric_limits<double>::max_exponent
CONST	ENDS
;	COMDAT ?max_digits10@?$numeric_limits@N@std@@2HB
CONST	SEGMENT
?max_digits10@?$numeric_limits@N@std@@2HB DD 011H	; std::numeric_limits<double>::max_digits10
CONST	ENDS
;	COMDAT ?digits10@?$numeric_limits@N@std@@2HB
CONST	SEGMENT
?digits10@?$numeric_limits@N@std@@2HB DD 0fH		; std::numeric_limits<double>::digits10
CONST	ENDS
;	COMDAT ?digits@?$numeric_limits@N@std@@2HB
CONST	SEGMENT
?digits@?$numeric_limits@N@std@@2HB DD 035H		; std::numeric_limits<double>::digits
CONST	ENDS
;	COMDAT ?value@?$integral_constant@I$0A@@std@@2IB
CONST	SEGMENT
?value@?$integral_constant@I$0A@@std@@2IB DD 00H	; std::integral_constant<unsigned int,0>::value
CONST	ENDS
;	COMDAT ?min_exponent10@?$numeric_limits@M@std@@2HB
CONST	SEGMENT
?min_exponent10@?$numeric_limits@M@std@@2HB DD 0ffffffdbH ; std::numeric_limits<float>::min_exponent10
CONST	ENDS
;	COMDAT ?min_exponent@?$numeric_limits@M@std@@2HB
CONST	SEGMENT
?min_exponent@?$numeric_limits@M@std@@2HB DD 0ffffff83H	; std::numeric_limits<float>::min_exponent
CONST	ENDS
;	COMDAT ?max_exponent10@?$numeric_limits@M@std@@2HB
CONST	SEGMENT
?max_exponent10@?$numeric_limits@M@std@@2HB DD 026H	; std::numeric_limits<float>::max_exponent10
CONST	ENDS
;	COMDAT ?max_exponent@?$numeric_limits@M@std@@2HB
CONST	SEGMENT
?max_exponent@?$numeric_limits@M@std@@2HB DD 080H	; std::numeric_limits<float>::max_exponent
CONST	ENDS
;	COMDAT ?max_digits10@?$numeric_limits@M@std@@2HB
CONST	SEGMENT
?max_digits10@?$numeric_limits@M@std@@2HB DD 09H	; std::numeric_limits<float>::max_digits10
CONST	ENDS
;	COMDAT ?digits10@?$numeric_limits@M@std@@2HB
CONST	SEGMENT
?digits10@?$numeric_limits@M@std@@2HB DD 06H		; std::numeric_limits<float>::digits10
CONST	ENDS
;	COMDAT ?digits@?$numeric_limits@M@std@@2HB
CONST	SEGMENT
?digits@?$numeric_limits@M@std@@2HB DD 018H		; std::numeric_limits<float>::digits
CONST	ENDS
;	COMDAT ?digits10@?$numeric_limits@_K@std@@2HB
CONST	SEGMENT
?digits10@?$numeric_limits@_K@std@@2HB DD 013H		; std::numeric_limits<unsigned __int64>::digits10
CONST	ENDS
;	COMDAT ?digits@?$numeric_limits@_K@std@@2HB
CONST	SEGMENT
?digits@?$numeric_limits@_K@std@@2HB DD 040H		; std::numeric_limits<unsigned __int64>::digits
CONST	ENDS
;	COMDAT ?is_signed@?$numeric_limits@_K@std@@2_NB
CONST	SEGMENT
?is_signed@?$numeric_limits@_K@std@@2_NB DB 00H		; std::numeric_limits<unsigned __int64>::is_signed
CONST	ENDS
;	COMDAT ?digits10@?$numeric_limits@_J@std@@2HB
CONST	SEGMENT
?digits10@?$numeric_limits@_J@std@@2HB DD 012H		; std::numeric_limits<__int64>::digits10
CONST	ENDS
;	COMDAT ?digits@?$numeric_limits@_J@std@@2HB
CONST	SEGMENT
?digits@?$numeric_limits@_J@std@@2HB DD 03fH		; std::numeric_limits<__int64>::digits
CONST	ENDS
;	COMDAT ?is_signed@?$numeric_limits@_J@std@@2_NB
CONST	SEGMENT
?is_signed@?$numeric_limits@_J@std@@2_NB DB 01H		; std::numeric_limits<__int64>::is_signed
CONST	ENDS
;	COMDAT ?digits10@?$numeric_limits@K@std@@2HB
CONST	SEGMENT
?digits10@?$numeric_limits@K@std@@2HB DD 09H		; std::numeric_limits<unsigned long>::digits10
CONST	ENDS
;	COMDAT ?digits@?$numeric_limits@K@std@@2HB
CONST	SEGMENT
?digits@?$numeric_limits@K@std@@2HB DD 020H		; std::numeric_limits<unsigned long>::digits
CONST	ENDS
;	COMDAT ?is_signed@?$numeric_limits@K@std@@2_NB
CONST	SEGMENT
?is_signed@?$numeric_limits@K@std@@2_NB DB 00H		; std::numeric_limits<unsigned long>::is_signed
CONST	ENDS
;	COMDAT ?digits10@?$numeric_limits@J@std@@2HB
CONST	SEGMENT
?digits10@?$numeric_limits@J@std@@2HB DD 09H		; std::numeric_limits<long>::digits10
CONST	ENDS
;	COMDAT ?digits@?$numeric_limits@J@std@@2HB
CONST	SEGMENT
?digits@?$numeric_limits@J@std@@2HB DD 01fH		; std::numeric_limits<long>::digits
CONST	ENDS
;	COMDAT ?is_signed@?$numeric_limits@J@std@@2_NB
CONST	SEGMENT
?is_signed@?$numeric_limits@J@std@@2_NB DB 01H		; std::numeric_limits<long>::is_signed
CONST	ENDS
;	COMDAT ?digits10@?$numeric_limits@I@std@@2HB
CONST	SEGMENT
?digits10@?$numeric_limits@I@std@@2HB DD 09H		; std::numeric_limits<unsigned int>::digits10
CONST	ENDS
;	COMDAT ?digits@?$numeric_limits@I@std@@2HB
CONST	SEGMENT
?digits@?$numeric_limits@I@std@@2HB DD 020H		; std::numeric_limits<unsigned int>::digits
CONST	ENDS
;	COMDAT ?is_signed@?$numeric_limits@I@std@@2_NB
CONST	SEGMENT
?is_signed@?$numeric_limits@I@std@@2_NB DB 00H		; std::numeric_limits<unsigned int>::is_signed
CONST	ENDS
;	COMDAT ?digits10@?$numeric_limits@H@std@@2HB
CONST	SEGMENT
?digits10@?$numeric_limits@H@std@@2HB DD 09H		; std::numeric_limits<int>::digits10
CONST	ENDS
;	COMDAT ?digits@?$numeric_limits@H@std@@2HB
CONST	SEGMENT
?digits@?$numeric_limits@H@std@@2HB DD 01fH		; std::numeric_limits<int>::digits
CONST	ENDS
;	COMDAT ?value@?$_Sizeof@HU_Nil@std@@U12@U12@U12@U12@U12@U12@@std@@2IB
CONST	SEGMENT
?value@?$_Sizeof@HU_Nil@std@@U12@U12@U12@U12@U12@U12@@std@@2IB DD 01H ; std::_Sizeof<int,std::_Nil,std::_Nil,std::_Nil,std::_Nil,std::_Nil,std::_Nil,std::_Nil>::value
CONST	ENDS
;	COMDAT ?is_signed@?$numeric_limits@H@std@@2_NB
CONST	SEGMENT
?is_signed@?$numeric_limits@H@std@@2_NB DB 01H		; std::numeric_limits<int>::is_signed
CONST	ENDS
;	COMDAT ?digits10@?$numeric_limits@G@std@@2HB
CONST	SEGMENT
?digits10@?$numeric_limits@G@std@@2HB DD 04H		; std::numeric_limits<unsigned short>::digits10
CONST	ENDS
;	COMDAT ?digits@?$numeric_limits@G@std@@2HB
CONST	SEGMENT
?digits@?$numeric_limits@G@std@@2HB DD 010H		; std::numeric_limits<unsigned short>::digits
CONST	ENDS
;	COMDAT ?is_signed@?$numeric_limits@G@std@@2_NB
CONST	SEGMENT
?is_signed@?$numeric_limits@G@std@@2_NB DB 00H		; std::numeric_limits<unsigned short>::is_signed
CONST	ENDS
;	COMDAT ?digits10@?$numeric_limits@F@std@@2HB
CONST	SEGMENT
?digits10@?$numeric_limits@F@std@@2HB DD 04H		; std::numeric_limits<short>::digits10
CONST	ENDS
;	COMDAT ?digits@?$numeric_limits@F@std@@2HB
CONST	SEGMENT
?digits@?$numeric_limits@F@std@@2HB DD 0fH		; std::numeric_limits<short>::digits
CONST	ENDS
;	COMDAT ?is_signed@?$numeric_limits@F@std@@2_NB
CONST	SEGMENT
?is_signed@?$numeric_limits@F@std@@2_NB DB 01H		; std::numeric_limits<short>::is_signed
CONST	ENDS
;	COMDAT ?digits10@?$numeric_limits@E@std@@2HB
CONST	SEGMENT
?digits10@?$numeric_limits@E@std@@2HB DD 02H		; std::numeric_limits<unsigned char>::digits10
CONST	ENDS
;	COMDAT ?digits@?$numeric_limits@E@std@@2HB
CONST	SEGMENT
?digits@?$numeric_limits@E@std@@2HB DD 08H		; std::numeric_limits<unsigned char>::digits
CONST	ENDS
;	COMDAT ?is_signed@?$numeric_limits@E@std@@2_NB
CONST	SEGMENT
?is_signed@?$numeric_limits@E@std@@2_NB DB 00H		; std::numeric_limits<unsigned char>::is_signed
CONST	ENDS
;	COMDAT ?digits10@?$numeric_limits@C@std@@2HB
CONST	SEGMENT
?digits10@?$numeric_limits@C@std@@2HB DD 02H		; std::numeric_limits<signed char>::digits10
CONST	ENDS
;	COMDAT ?digits@?$numeric_limits@C@std@@2HB
CONST	SEGMENT
?digits@?$numeric_limits@C@std@@2HB DD 07H		; std::numeric_limits<signed char>::digits
CONST	ENDS
;	COMDAT ?is_signed@?$numeric_limits@C@std@@2_NB
CONST	SEGMENT
?is_signed@?$numeric_limits@C@std@@2_NB DB 01H		; std::numeric_limits<signed char>::is_signed
CONST	ENDS
;	COMDAT ?digits10@?$numeric_limits@_N@std@@2HB
CONST	SEGMENT
?digits10@?$numeric_limits@_N@std@@2HB DD 00H		; std::numeric_limits<bool>::digits10
CONST	ENDS
;	COMDAT ?digits@?$numeric_limits@_N@std@@2HB
CONST	SEGMENT
?digits@?$numeric_limits@_N@std@@2HB DD 01H		; std::numeric_limits<bool>::digits
CONST	ENDS
;	COMDAT ?is_signed@?$numeric_limits@_N@std@@2_NB
CONST	SEGMENT
?is_signed@?$numeric_limits@_N@std@@2_NB DB 00H		; std::numeric_limits<bool>::is_signed
CONST	ENDS
;	COMDAT ?is_modulo@?$numeric_limits@_N@std@@2_NB
CONST	SEGMENT
?is_modulo@?$numeric_limits@_N@std@@2_NB DB 00H		; std::numeric_limits<bool>::is_modulo
CONST	ENDS
;	COMDAT ?value@?$integral_constant@_N$00@std@@2_NB
CONST	SEGMENT
?value@?$integral_constant@_N$00@std@@2_NB DB 01H	; std::integral_constant<bool,1>::value
CONST	ENDS
;	COMDAT ?digits10@?$numeric_limits@_W@std@@2HB
CONST	SEGMENT
?digits10@?$numeric_limits@_W@std@@2HB DD 04H		; std::numeric_limits<wchar_t>::digits10
CONST	ENDS
;	COMDAT ?digits@?$numeric_limits@_W@std@@2HB
CONST	SEGMENT
?digits@?$numeric_limits@_W@std@@2HB DD 010H		; std::numeric_limits<wchar_t>::digits
CONST	ENDS
PUBLIC	?SetYPRDelta@VuEntity@@QAEXMMM@Z		; VuEntity::SetYPRDelta
PUBLIC	?Id@VuEntity@@QBE?AVVU_ID@@XZ			; VuEntity::Id
PUBLIC	?SetSendCreate@VuEntity@@QAEXW4VU_SEND_TYPE@1@@Z ; VuEntity::SetSendCreate
PUBLIC	?OwnerId@VuEntity@@QBE?AVVU_ID@@XZ		; VuEntity::OwnerId
PUBLIC	?VuState@VuEntity@@QBE?AW4VU_MEM@@XZ		; VuEntity::VuState
PUBLIC	?Type@VuEntity@@QBEGXZ				; VuEntity::Type
PUBLIC	?XPos@VuEntity@@QBEMXZ				; VuEntity::XPos
PUBLIC	?YPos@VuEntity@@QBEMXZ				; VuEntity::YPos
PUBLIC	??2@YAPAXIPAX@Z					; operator new
PUBLIC	??3@YAXPAX0@Z					; operator delete
PUBLIC	?length@?$char_traits@D@std@@SAIPBD@Z		; std::char_traits<char>::length
PUBLIC	?copy@?$char_traits@D@std@@SAPADPADPBDI@Z	; std::char_traits<char>::copy
PUBLIC	?move@?$char_traits@D@std@@SAPADPADPBDI@Z	; std::char_traits<char>::move
PUBLIC	?assign@?$char_traits@D@std@@SAXAADABD@Z	; std::char_traits<char>::assign
PUBLIC	??0logic_error@std@@QAE@PBD@Z			; std::logic_error::logic_error
PUBLIC	??1logic_error@std@@UAE@XZ			; std::logic_error::~logic_error
PUBLIC	??0logic_error@std@@QAE@ABV01@@Z		; std::logic_error::logic_error
PUBLIC	??_Glogic_error@std@@UAEPAXI@Z			; std::logic_error::`scalar deleting destructor'
PUBLIC	??0?$allocator@D@std@@QAE@XZ			; std::allocator<char>::allocator<char>
PUBLIC	?deallocate@?$allocator@D@std@@QAEXPADI@Z	; std::allocator<char>::deallocate
PUBLIC	?allocate@?$allocator@D@std@@QAEPADI@Z		; std::allocator<char>::allocate
PUBLIC	?max_size@?$allocator@D@std@@QBEIXZ		; std::allocator<char>::max_size
PUBLIC	?max_size@?$allocator_traits@V?$allocator@D@std@@@std@@SAIABV?$allocator@D@2@@Z ; std::allocator_traits<std::allocator<char> >::max_size
PUBLIC	??0?$_Wrap_alloc@V?$allocator@D@std@@@std@@QAE@XZ ; std::_Wrap_alloc<std::allocator<char> >::_Wrap_alloc<std::allocator<char> >
PUBLIC	?allocate@?$_Wrap_alloc@V?$allocator@D@std@@@std@@QAEPADI@Z ; std::_Wrap_alloc<std::allocator<char> >::allocate
PUBLIC	?deallocate@?$_Wrap_alloc@V?$allocator@D@std@@@std@@QAEXPADI@Z ; std::_Wrap_alloc<std::allocator<char> >::deallocate
PUBLIC	?max_size@?$_Wrap_alloc@V?$allocator@D@std@@@std@@QBEIXZ ; std::_Wrap_alloc<std::allocator<char> >::max_size
PUBLIC	??0?$_String_val@U?$_Simple_types@D@std@@@std@@QAE@XZ ; std::_String_val<std::_Simple_types<char> >::_String_val<std::_Simple_types<char> >
PUBLIC	?_Myptr@?$_String_val@U?$_Simple_types@D@std@@@std@@QAEPADXZ ; std::_String_val<std::_Simple_types<char> >::_Myptr
PUBLIC	?_Myptr@?$_String_val@U?$_Simple_types@D@std@@@std@@QBEPBDXZ ; std::_String_val<std::_Simple_types<char> >::_Myptr
PUBLIC	??0?$_String_alloc@$0A@U?$_String_base_types@DV?$allocator@D@std@@@std@@@std@@QAE@ABV?$allocator@D@1@@Z ; std::_String_alloc<0,std::_String_base_types<char,std::allocator<char> > >::_String_alloc<0,std::_String_base_types<char,std::allocator<char> > >
PUBLIC	?_Getal@?$_String_alloc@$0A@U?$_String_base_types@DV?$allocator@D@std@@@std@@@std@@QBE?AU?$_Wrap_alloc@V?$allocator@D@std@@@2@XZ ; std::_String_alloc<0,std::_String_base_types<char,std::allocator<char> > >::_Getal
PUBLIC	??0?$basic_string@DU?$char_traits@D@std@@V?$allocator@D@2@@std@@QAE@PBD@Z ; std::basic_string<char,std::char_traits<char>,std::allocator<char> >::basic_string<char,std::char_traits<char>,std::allocator<char> >
PUBLIC	??1?$basic_string@DU?$char_traits@D@std@@V?$allocator@D@2@@std@@QAE@XZ ; std::basic_string<char,std::char_traits<char>,std::allocator<char> >::~basic_string<char,std::char_traits<char>,std::allocator<char> >
PUBLIC	?assign@?$basic_string@DU?$char_traits@D@std@@V?$allocator@D@2@@std@@QAEAAV12@ABV12@II@Z ; std::basic_string<char,std::char_traits<char>,std::allocator<char> >::assign
PUBLIC	?assign@?$basic_string@DU?$char_traits@D@std@@V?$allocator@D@2@@std@@QAEAAV12@PBDI@Z ; std::basic_string<char,std::char_traits<char>,std::allocator<char> >::assign
PUBLIC	?assign@?$basic_string@DU?$char_traits@D@std@@V?$allocator@D@2@@std@@QAEAAV12@PBD@Z ; std::basic_string<char,std::char_traits<char>,std::allocator<char> >::assign
PUBLIC	?erase@?$basic_string@DU?$char_traits@D@std@@V?$allocator@D@2@@std@@QAEAAV12@I@Z ; std::basic_string<char,std::char_traits<char>,std::allocator<char> >::erase
PUBLIC	?erase@?$basic_string@DU?$char_traits@D@std@@V?$allocator@D@2@@std@@QAEAAV12@II@Z ; std::basic_string<char,std::char_traits<char>,std::allocator<char> >::erase
PUBLIC	?c_str@?$basic_string@DU?$char_traits@D@std@@V?$allocator@D@2@@std@@QBEPBDXZ ; std::basic_string<char,std::char_traits<char>,std::allocator<char> >::c_str
PUBLIC	?size@?$basic_string@DU?$char_traits@D@std@@V?$allocator@D@2@@std@@QBEIXZ ; std::basic_string<char,std::char_traits<char>,std::allocator<char> >::size
PUBLIC	?max_size@?$basic_string@DU?$char_traits@D@std@@V?$allocator@D@2@@std@@QBEIXZ ; std::basic_string<char,std::char_traits<char>,std::allocator<char> >::max_size
PUBLIC	?_Copy@?$basic_string@DU?$char_traits@D@std@@V?$allocator@D@2@@std@@QAEXII@Z ; std::basic_string<char,std::char_traits<char>,std::allocator<char> >::_Copy
PUBLIC	?_Eos@?$basic_string@DU?$char_traits@D@std@@V?$allocator@D@2@@std@@QAEXI@Z ; std::basic_string<char,std::char_traits<char>,std::allocator<char> >::_Eos
PUBLIC	?_Grow@?$basic_string@DU?$char_traits@D@std@@V?$allocator@D@2@@std@@QAE_NI_N@Z ; std::basic_string<char,std::char_traits<char>,std::allocator<char> >::_Grow
PUBLIC	?_Inside@?$basic_string@DU?$char_traits@D@std@@V?$allocator@D@2@@std@@QAE_NPBD@Z ; std::basic_string<char,std::char_traits<char>,std::allocator<char> >::_Inside
PUBLIC	?_Tidy@?$basic_string@DU?$char_traits@D@std@@V?$allocator@D@2@@std@@QAEX_NI@Z ; std::basic_string<char,std::char_traits<char>,std::allocator<char> >::_Tidy
PUBLIC	?_Xlen@?$basic_string@DU?$char_traits@D@std@@V?$allocator@D@2@@std@@QBEXXZ ; std::basic_string<char,std::char_traits<char>,std::allocator<char> >::_Xlen
PUBLIC	?_Xran@?$basic_string@DU?$char_traits@D@std@@V?$allocator@D@2@@std@@QBEXXZ ; std::basic_string<char,std::char_traits<char>,std::allocator<char> >::_Xran
PUBLIC	??0out_of_range@std@@QAE@ABV?$basic_string@DU?$char_traits@D@std@@V?$allocator@D@2@@1@@Z ; std::out_of_range::out_of_range
PUBLIC	??1out_of_range@std@@UAE@XZ			; std::out_of_range::~out_of_range
PUBLIC	??0out_of_range@std@@QAE@ABV01@@Z		; std::out_of_range::out_of_range
PUBLIC	??_Gout_of_range@std@@UAEPAXI@Z			; std::out_of_range::`scalar deleting destructor'
PUBLIC	??B?$VuBin@VVuSessionEntity@@@@QBE_NXZ		; VuBin<VuSessionEntity>::operator bool
PUBLIC	?get@?$VuBin@VVuSessionEntity@@@@QBEPAVVuSessionEntity@@XZ ; VuBin<VuSessionEntity>::get
PUBLIC	?RequestReliableTransmit@VuMessage@@QAEXXZ	; VuMessage::RequestReliableTransmit
PUBLIC	?RequestOutOfBandTransmit@VuMessage@@QAEXXZ	; VuMessage::RequestOutOfBandTransmit
PUBLIC	?calc_dirty_bucket@FalconEntity@@CAHH@Z		; FalconEntity::calc_dirty_bucket
PUBLIC	??0FalconEntity@@QAE@GK@Z			; FalconEntity::FalconEntity
PUBLIC	??0FalconEntity@@QAE@PAPAEPAJ@Z			; FalconEntity::FalconEntity
PUBLIC	??0FalconEntity@@QAE@PAU_iobuf@@@Z		; FalconEntity::FalconEntity
PUBLIC	?Save@FalconEntity@@UAEHPAPAE@Z			; FalconEntity::Save
PUBLIC	?Save@FalconEntity@@UAEHPAU_iobuf@@@Z		; FalconEntity::Save
PUBLIC	?SaveSize@FalconEntity@@UAEHXZ			; FalconEntity::SaveSize
PUBLIC	??1FalconEntity@@UAE@XZ				; FalconEntity::~FalconEntity
PUBLIC	?InitData@FalconEntity@@UAEXXZ			; FalconEntity::InitData
PUBLIC	?CleanupData@FalconEntity@@UAEXXZ		; FalconEntity::CleanupData
PUBLIC	?RemovalCallback@FalconEntity@@UAEHXZ		; FalconEntity::RemovalCallback
PUBLIC	?InitLocalData@FalconEntity@@AAEXXZ		; FalconEntity::InitLocalData
PUBLIC	?CleanupLocalData@FalconEntity@@AAEXXZ		; FalconEntity::CleanupLocalData
PUBLIC	?IsSimBase@FalconEntity@@UAE_NXZ		; FalconEntity::IsSimBase
PUBLIC	?IsCampBase@FalconEntity@@UAE_NXZ		; FalconEntity::IsCampBase
PUBLIC	?IsSetFalcFlag@FalconEntity@@QAEHH@Z		; FalconEntity::IsSetFalcFlag
PUBLIC	?IsPlayer@FalconEntity@@QAEHXZ			; FalconEntity::IsPlayer
PUBLIC	?GetDomain@FalconEntity@@UAEEXZ			; FalconEntity::GetDomain
PUBLIC	?GetRadarMode@FalconEntity@@UAEHXZ		; FalconEntity::GetRadarMode
PUBLIC	?SetRadarMode@FalconEntity@@UAEXE@Z		; FalconEntity::SetRadarMode
PUBLIC	?ReturnToSearch@FalconEntity@@UAEXXZ		; FalconEntity::ReturnToSearch
PUBLIC	?SetSearchMode@FalconEntity@@UAEXE@Z		; FalconEntity::SetSearchMode
PUBLIC	?CombatClass@FalconEntity@@UAEHXZ		; FalconEntity::CombatClass
PUBLIC	?OnGround@FalconEntity@@UAEHXZ			; FalconEntity::OnGround
PUBLIC	?HasEntity@FalconEntity@@UBEHPAVVuEntity@@@Z	; FalconEntity::HasEntity
PUBLIC	?IsMissile@FalconEntity@@UAEHXZ			; FalconEntity::IsMissile
PUBLIC	?IsLauncher@FalconEntity@@UAEHXZ		; FalconEntity::IsLauncher
PUBLIC	?IsBomb@FalconEntity@@UAEHXZ			; FalconEntity::IsBomb
PUBLIC	?IsGun@FalconEntity@@UAEHXZ			; FalconEntity::IsGun
PUBLIC	?IsMover@FalconEntity@@UAEHXZ			; FalconEntity::IsMover
PUBLIC	?IsVehicle@FalconEntity@@UAEHXZ			; FalconEntity::IsVehicle
PUBLIC	?IsStatic@FalconEntity@@UAEHXZ			; FalconEntity::IsStatic
PUBLIC	?IsHelicopter@FalconEntity@@UAEHXZ		; FalconEntity::IsHelicopter
PUBLIC	?IsEject@FalconEntity@@UAEHXZ			; FalconEntity::IsEject
PUBLIC	?IsAirplane@FalconEntity@@UAEHXZ		; FalconEntity::IsAirplane
PUBLIC	?IsGroundVehicle@FalconEntity@@UAEHXZ		; FalconEntity::IsGroundVehicle
PUBLIC	?IsShip@FalconEntity@@UAEHXZ			; FalconEntity::IsShip
PUBLIC	?IsWeapon@FalconEntity@@UAEHXZ			; FalconEntity::IsWeapon
PUBLIC	?IsExploding@FalconEntity@@UAEHXZ		; FalconEntity::IsExploding
PUBLIC	?IsDead@FalconEntity@@UAEHXZ			; FalconEntity::IsDead
PUBLIC	?IsEmitting@FalconEntity@@UAEHXZ		; FalconEntity::IsEmitting
PUBLIC	?GetMovementType@FalconEntity@@UAE?AW4MoveType@@XZ ; FalconEntity::GetMovementType
PUBLIC	?IsUnit@FalconEntity@@UAEHXZ			; FalconEntity::IsUnit
PUBLIC	?IsObjective@FalconEntity@@UAEHXZ		; FalconEntity::IsObjective
PUBLIC	?IsBattalion@FalconEntity@@UAEHXZ		; FalconEntity::IsBattalion
PUBLIC	?IsBrigade@FalconEntity@@UAEHXZ			; FalconEntity::IsBrigade
PUBLIC	?IsFlight@FalconEntity@@UBEHXZ			; FalconEntity::IsFlight
PUBLIC	?IsSquadron@FalconEntity@@UAEHXZ		; FalconEntity::IsSquadron
PUBLIC	?IsPackage@FalconEntity@@UAEHXZ			; FalconEntity::IsPackage
PUBLIC	?IsTeam@FalconEntity@@UAEHXZ			; FalconEntity::IsTeam
PUBLIC	?IsTaskForce@FalconEntity@@UAEHXZ		; FalconEntity::IsTaskForce
PUBLIC	?IsSPJamming@FalconEntity@@UAEHXZ		; FalconEntity::IsSPJamming
PUBLIC	?IsAreaJamming@FalconEntity@@UAEHXZ		; FalconEntity::IsAreaJamming
PUBLIC	?HasSPJamming@FalconEntity@@UAEHXZ		; FalconEntity::HasSPJamming
PUBLIC	?HasAreaJamming@FalconEntity@@UAEHXZ		; FalconEntity::HasAreaJamming
PUBLIC	?GetRCSFactor@FalconEntity@@UAEMXZ		; FalconEntity::GetRCSFactor
PUBLIC	?GetIRFactor@FalconEntity@@UAEMXZ		; FalconEntity::GetIRFactor
PUBLIC	?GetRadarType@FalconEntity@@UAEHXZ		; FalconEntity::GetRadarType
PUBLIC	?GetDamageModifiers@FalconEntity@@UAEPAEXZ	; FalconEntity::GetDamageModifiers
PUBLIC	?GetLocation@FalconEntity@@QBEXPAF0@Z		; FalconEntity::GetLocation
PUBLIC	?SetOwner@FalconEntity@@QAEXPAVFalconSessionEntity@@@Z ; FalconEntity::SetOwner
PUBLIC	?SetOwner@FalconEntity@@QAEXVVU_ID@@@Z		; FalconEntity::SetOwner
PUBLIC	?DoFullUpdate@FalconEntity@@QAEXXZ		; FalconEntity::DoFullUpdate
PUBLIC	?ClearDirty@FalconEntity@@QAEXXZ		; FalconEntity::ClearDirty
PUBLIC	?MakeDirty@FalconEntity@@QAEXW4Dirty_Class@@W4Dirtyness@@@Z ; FalconEntity::MakeDirty
PUBLIC	?GetDirty@FalconEntity@@QBEHXZ			; FalconEntity::GetDirty
PUBLIC	?EncodeDirty@FalconEntity@@QAEHPAPAE@Z		; FalconEntity::EncodeDirty
PUBLIC	?DecodeDirty@FalconEntity@@QAEXPAPAEPAJ@Z	; FalconEntity::DecodeDirty
PUBLIC	?DoSimDirtyData@FalconEntity@@SAXK@Z		; FalconEntity::DoSimDirtyData
PUBLIC	?DoCampaignDirtyData@FalconEntity@@SAXK@Z	; FalconEntity::DoCampaignDirtyData
PUBLIC	?MakeFlagsDirty@FalconEntity@@QAEXXZ		; FalconEntity::MakeFlagsDirty
PUBLIC	?MakeFalconEntityDirty@FalconEntity@@QAEXW4Dirty_Falcon_Entity@@W4Dirtyness@@@Z ; FalconEntity::MakeFalconEntityDirty
PUBLIC	?SetAQUIREtimer@FalconEntity@@UAEXK@Z		; FalconEntity::SetAQUIREtimer
PUBLIC	?SetSEARCHtimer@FalconEntity@@UAEXK@Z		; FalconEntity::SetSEARCHtimer
PUBLIC	?SetStepSearchMode@FalconEntity@@UAEXE@Z	; FalconEntity::SetStepSearchMode
PUBLIC	?GetAQUIREtimer@FalconEntity@@UAEKXZ		; FalconEntity::GetAQUIREtimer
PUBLIC	?GetSEARCHtimer@FalconEntity@@UAEKXZ		; FalconEntity::GetSEARCHtimer
PUBLIC	??_GFalconEntity@@UAEPAXI@Z			; FalconEntity::`scalar deleting destructor'
PUBLIC	??0SpotEntity@@QAE@G@Z				; SpotEntity::SpotEntity
PUBLIC	??0SpotEntity@@QAE@PAPAEPAJ@Z			; SpotEntity::SpotEntity
PUBLIC	?GetVt@SpotEntity@@UBEMXZ			; SpotEntity::GetVt
PUBLIC	?GetKias@SpotEntity@@UBEMXZ			; SpotEntity::GetKias
PUBLIC	?Sleep@SpotEntity@@UAEHXZ			; SpotEntity::Sleep
PUBLIC	?Wake@SpotEntity@@UAEHXZ			; SpotEntity::Wake
PUBLIC	?GetCampID@SpotEntity@@UAEFXZ			; SpotEntity::GetCampID
PUBLIC	?GetTeam@SpotEntity@@UAEEXZ			; SpotEntity::GetTeam
PUBLIC	?GetCountry@SpotEntity@@UAEEXZ			; SpotEntity::GetCountry
PUBLIC	??1SpotEntity@@UAE@XZ				; SpotEntity::~SpotEntity
PUBLIC	??_GSpotEntity@@UAEPAXI@Z			; SpotEntity::`scalar deleting destructor'
PUBLIC	??0InvalidBufferException@@QAE@ABV?$basic_string@DU?$char_traits@D@std@@V?$allocator@D@2@@std@@@Z ; InvalidBufferException::InvalidBufferException
PUBLIC	??1InvalidBufferException@@UAE@XZ		; InvalidBufferException::~InvalidBufferException
PUBLIC	??0InvalidBufferException@@QAE@ABV0@@Z		; InvalidBufferException::InvalidBufferException
PUBLIC	??_GInvalidBufferException@@UAEPAXI@Z		; InvalidBufferException::`scalar deleting destructor'
PUBLIC	?memcpychk@@YAXPAXPAPAEIPAJ@Z			; memcpychk
PUBLIC	?GetGame@FalconSessionEntity@@QAEPAVFalconGameEntity@@XZ ; FalconSessionEntity::GetGame
PUBLIC	??0F4ScopeLock@@QAE@PAUF4CSECTIONHANDLE@@@Z	; F4ScopeLock::F4ScopeLock
PUBLIC	??1F4ScopeLock@@QAE@XZ				; F4ScopeLock::~F4ScopeLock
PUBLIC	??$destroy@PAD@?$_Wrap_alloc@V?$allocator@D@std@@@std@@QAEXPAPAD@Z ; std::_Wrap_alloc<std::allocator<char> >::destroy<char *>
PUBLIC	??$addressof@D@std@@YAPADAAD@Z			; std::addressof<char>
PUBLIC	??$construct@PADAAPAD@?$_Wrap_alloc@V?$allocator@D@std@@@std@@QAEXPAPADAAPAD@Z ; std::_Wrap_alloc<std::allocator<char> >::construct<char *,char * &>
PUBLIC	??$_Allocate@D@std@@YAPADIPAD@Z			; std::_Allocate<char>
PUBLIC	??$destroy@PAD@?$allocator_traits@V?$allocator@D@std@@@std@@SAXAAV?$allocator@D@1@PAPAD@Z ; std::allocator_traits<std::allocator<char> >::destroy<char *>
PUBLIC	??$forward@AAPAD@std@@YAAAPADAAPAD@Z		; std::forward<char * &>
PUBLIC	??$construct@PADAAPAD@?$allocator_traits@V?$allocator@D@std@@@std@@SAXAAV?$allocator@D@1@PAPADAAPAD@Z ; std::allocator_traits<std::allocator<char> >::construct<char *,char * &>
PUBLIC	??$destroy@PAD@?$allocator@D@std@@QAEXPAPAD@Z	; std::allocator<char>::destroy<char *>
PUBLIC	??$construct@PADAAPAD@?$allocator@D@std@@QAEXPAPADAAPAD@Z ; std::allocator<char>::construct<char *,char * &>
PUBLIC	??_7logic_error@std@@6B@			; std::logic_error::`vftable'
PUBLIC	??_7out_of_range@std@@6B@			; std::out_of_range::`vftable'
PUBLIC	??_7FalconEntity@@6B@				; FalconEntity::`vftable'
PUBLIC	??_7SpotEntity@@6B@				; SpotEntity::`vftable'
PUBLIC	??_7InvalidBufferException@@6B@			; InvalidBufferException::`vftable'
PUBLIC	??_C@_0CI@MPKJAHJH@Trying?5to?5write?5?$CFlu?5bytes?5to?5?$CFld@ ; `string'
PUBLIC	__TI4?AVInvalidBufferException@@
PUBLIC	__CTA4?AVInvalidBufferException@@
PUBLIC	??_R0?AVInvalidBufferException@@@8		; InvalidBufferException `RTTI Type Descriptor'
PUBLIC	__CT??_R0?AVInvalidBufferException@@@8??0InvalidBufferException@@QAE@ABV0@@Z12
PUBLIC	??_R0?AVout_of_range@std@@@8			; std::out_of_range `RTTI Type Descriptor'
PUBLIC	__CT??_R0?AVout_of_range@std@@@8??0out_of_range@std@@QAE@ABV01@@Z12
PUBLIC	??_R0?AVlogic_error@std@@@8			; std::logic_error `RTTI Type Descriptor'
PUBLIC	__CT??_R0?AVlogic_error@std@@@8??0logic_error@std@@QAE@ABV01@@Z12
PUBLIC	??_R0?AVexception@std@@@8			; std::exception `RTTI Type Descriptor'
PUBLIC	__CT??_R0?AVexception@std@@@8??0exception@std@@QAE@ABV01@@Z12
PUBLIC	??_C@_0BA@JFNIOLAK@string?5too?5long?$AA@	; `string'
PUBLIC	??_C@_0BI@CFPLBAOH@invalid?5string?5position?$AA@ ; `string'
PUBLIC	??_R1A@?0A@EA@exception@std@@8			; std::exception::`RTTI Base Class Descriptor at (0,-1,0,64)'
PUBLIC	??_R3exception@std@@8				; std::exception::`RTTI Class Hierarchy Descriptor'
PUBLIC	??_R2exception@std@@8				; std::exception::`RTTI Base Class Array'
PUBLIC	??_R4logic_error@std@@6B@			; std::logic_error::`RTTI Complete Object Locator'
PUBLIC	??_R3logic_error@std@@8				; std::logic_error::`RTTI Class Hierarchy Descriptor'
PUBLIC	??_R2logic_error@std@@8				; std::logic_error::`RTTI Base Class Array'
PUBLIC	??_R1A@?0A@EA@logic_error@std@@8		; std::logic_error::`RTTI Base Class Descriptor at (0,-1,0,64)'
PUBLIC	??_R4out_of_range@std@@6B@			; std::out_of_range::`RTTI Complete Object Locator'
PUBLIC	??_R3out_of_range@std@@8			; std::out_of_range::`RTTI Class Hierarchy Descriptor'
PUBLIC	??_R2out_of_range@std@@8			; std::out_of_range::`RTTI Base Class Array'
PUBLIC	??_R1A@?0A@EA@out_of_range@std@@8		; std::out_of_range::`RTTI Base Class Descriptor at (0,-1,0,64)'
PUBLIC	??_R4FalconEntity@@6B@				; FalconEntity::`RTTI Complete Object Locator'
PUBLIC	??_R0?AVFalconEntity@@@8			; FalconEntity `RTTI Type Descriptor'
PUBLIC	??_R3FalconEntity@@8				; FalconEntity::`RTTI Class Hierarchy Descriptor'
PUBLIC	??_R2FalconEntity@@8				; FalconEntity::`RTTI Base Class Array'
PUBLIC	??_R1A@?0A@EA@FalconEntity@@8			; FalconEntity::`RTTI Base Class Descriptor at (0,-1,0,64)'
PUBLIC	??_R1A@?0A@EA@VuEntity@@8			; VuEntity::`RTTI Base Class Descriptor at (0,-1,0,64)'
PUBLIC	??_R0?AVVuEntity@@@8				; VuEntity `RTTI Type Descriptor'
PUBLIC	??_R3VuEntity@@8				; VuEntity::`RTTI Class Hierarchy Descriptor'
PUBLIC	??_R2VuEntity@@8				; VuEntity::`RTTI Base Class Array'
PUBLIC	??_R4SpotEntity@@6B@				; SpotEntity::`RTTI Complete Object Locator'
PUBLIC	??_R0?AVSpotEntity@@@8				; SpotEntity `RTTI Type Descriptor'
PUBLIC	??_R3SpotEntity@@8				; SpotEntity::`RTTI Class Hierarchy Descriptor'
PUBLIC	??_R2SpotEntity@@8				; SpotEntity::`RTTI Base Class Array'
PUBLIC	??_R1A@?0A@EA@SpotEntity@@8			; SpotEntity::`RTTI Base Class Descriptor at (0,-1,0,64)'
PUBLIC	??_R4InvalidBufferException@@6B@		; InvalidBufferException::`RTTI Complete Object Locator'
PUBLIC	??_R3InvalidBufferException@@8			; InvalidBufferException::`RTTI Class Hierarchy Descriptor'
PUBLIC	??_R2InvalidBufferException@@8			; InvalidBufferException::`RTTI Base Class Array'
PUBLIC	??_R1A@?0A@EA@InvalidBufferException@@8		; InvalidBufferException::`RTTI Base Class Descriptor at (0,-1,0,64)'
PUBLIC	__real@00000000
EXTRN	__purecall:PROC
EXTRN	??2@YAPAXI@Z:PROC				; operator new
EXTRN	??3@YAXPAX@Z:PROC				; operator delete
EXTRN	_memcpy:PROC
EXTRN	_strlen:PROC
EXTRN	_memmove:PROC
EXTRN	_fread:PROC
EXTRN	_fwrite:PROC
EXTRN	_sprintf:PROC
EXTRN	??0VuEntity@@QAE@GK@Z:PROC			; VuEntity::VuEntity
EXTRN	??0VuEntity@@QAE@PAPAEPAJ@Z:PROC		; VuEntity::VuEntity
EXTRN	??0VuEntity@@QAE@PAU_iobuf@@@Z:PROC		; VuEntity::VuEntity
EXTRN	?IsLocal@VuEntity@@QBEEXZ:PROC			; VuEntity::IsLocal
EXTRN	?CustomCollisionCheck@VuEntity@@UAEEPAV1@M@Z:PROC ; VuEntity::CustomCollisionCheck
EXTRN	?TerrainCollisionCheck@VuEntity@@UAEEXZ:PROC	; VuEntity::TerrainCollisionCheck
EXTRN	?IsTarget@VuEntity@@UAEEXZ:PROC			; VuEntity::IsTarget
EXTRN	?IsSession@VuEntity@@UAEEXZ:PROC		; VuEntity::IsSession
EXTRN	?IsGroup@VuEntity@@UAEEXZ:PROC			; VuEntity::IsGroup
EXTRN	?IsGame@VuEntity@@UAEEXZ:PROC			; VuEntity::IsGame
EXTRN	?IsCamera@VuEntity@@UBEEXZ:PROC			; VuEntity::IsCamera
EXTRN	?SaveSize@VuEntity@@UAEHXZ:PROC			; VuEntity::SaveSize
EXTRN	?Save@VuEntity@@UAEHPAPAE@Z:PROC		; VuEntity::Save
EXTRN	?Save@VuEntity@@UAEHPAU_iobuf@@@Z:PROC		; VuEntity::Save
EXTRN	?Handle@VuEntity@@UAEHPAVVuErrorMessage@@@Z:PROC ; VuEntity::Handle
EXTRN	?Handle@VuEntity@@UAEHPAVVuPushRequest@@@Z:PROC	; VuEntity::Handle
EXTRN	?Handle@VuEntity@@UAEHPAVVuPullRequest@@@Z:PROC	; VuEntity::Handle
EXTRN	?Handle@VuEntity@@UAEHPAVVuEvent@@@Z:PROC	; VuEntity::Handle
EXTRN	?Handle@VuEntity@@UAEHPAVVuFullUpdateEvent@@@Z:PROC ; VuEntity::Handle
EXTRN	?Handle@VuEntity@@UAEHPAVVuPositionUpdateEvent@@@Z:PROC ; VuEntity::Handle
EXTRN	?Handle@VuEntity@@UAEHPAVVuEntityCollisionEvent@@@Z:PROC ; VuEntity::Handle
EXTRN	?Handle@VuEntity@@UAEHPAVVuTransferEvent@@@Z:PROC ; VuEntity::Handle
EXTRN	?Handle@VuEntity@@UAEHPAVVuSessionEvent@@@Z:PROC ; VuEntity::Handle
EXTRN	??1VuEntity@@MAE@XZ:PROC			; VuEntity::~VuEntity
EXTRN	?InsertionCallback@VuEntity@@MAEHXZ:PROC	; VuEntity::InsertionCallback
EXTRN	??0exception@std@@QAE@ABQBD@Z:PROC		; std::exception::exception
EXTRN	??0exception@std@@QAE@ABV01@@Z:PROC		; std::exception::exception
EXTRN	??1exception@std@@UAE@XZ:PROC			; std::exception::~exception
EXTRN	?what@exception@std@@UBEPBDXZ:PROC		; std::exception::what
EXTRN	??_U@YAPAXI@Z:PROC				; operator new[]
EXTRN	?_Xbad_alloc@std@@YAXXZ:PROC			; std::_Xbad_alloc
EXTRN	?_Xlength_error@std@@YAXPBD@Z:PROC		; std::_Xlength_error
EXTRN	?_Xout_of_range@std@@YAXPBD@Z:PROC		; std::_Xout_of_range
EXTRN	??_Elogic_error@std@@UAEPAXI@Z:PROC		; std::logic_error::`vector deleting destructor'
EXTRN	??_Eout_of_range@std@@UAEPAXI@Z:PROC		; std::out_of_range::`vector deleting destructor'
EXTRN	??0VuFullUpdateEvent@@QAE@PAVVuEntity@@PAVVuTargetEntity@@E@Z:PROC ; VuFullUpdateEvent::VuFullUpdateEvent
EXTRN	?Game@VuSessionEntity@@QAEPAVVuGameEntity@@XZ:PROC ; VuSessionEntity::Game
EXTRN	?PostVuMessage@VuMessageQueue@@SAHPAVVuMessage@@@Z:PROC ; VuMessageQueue::PostVuMessage
EXTRN	??_EFalconEntity@@UAEPAXI@Z:PROC		; FalconEntity::`vector deleting destructor'
EXTRN	??_ESpotEntity@@UAEPAXI@Z:PROC			; SpotEntity::`vector deleting destructor'
EXTRN	?WriteDirty@SimBaseClass@@QAEXPAPAE@Z:PROC	; SimBaseClass::WriteDirty
EXTRN	?ReadDirty@SimBaseClass@@QAEXPAPAEPAJ@Z:PROC	; SimBaseClass::ReadDirty
EXTRN	?WriteDirty@AircraftClass@@QAEXPAPAE@Z:PROC	; AircraftClass::WriteDirty
EXTRN	?ReadDirty@AircraftClass@@QAEXPAPAEPAJ@Z:PROC	; AircraftClass::ReadDirty
EXTRN	?ForcedInsert@TailInsertList@@QAEHPAVVuEntity@@@Z:PROC ; TailInsertList::ForcedInsert
EXTRN	?PopHead@TailInsertList@@QAEPAVVuEntity@@XZ:PROC ; TailInsertList::PopHead
EXTRN	?FalconSendMessage@@YAXPAVVuMessage@@H@Z:PROC	; FalconSendMessage
EXTRN	??_EInvalidBufferException@@UAEPAXI@Z:PROC	; InvalidBufferException::`vector deleting destructor'
EXTRN	?GetIdFromNamespace@@YAKAAVIdNamespace@@@Z:PROC	; GetIdFromNamespace
EXTRN	?WriteDirty@CampBaseClass@@QAEXPAPAE@Z:PROC	; CampBaseClass::WriteDirty
EXTRN	?ReadDirty@CampBaseClass@@QAEXPAPAEPAJ@Z:PROC	; CampBaseClass::ReadDirty
EXTRN	_F4EnterCriticalSection:PROC
EXTRN	_F4LeaveCriticalSection:PROC
EXTRN	?WriteDirty@UnitClass@@QAEXPAPAE@Z:PROC		; UnitClass::WriteDirty
EXTRN	?ReadDirty@UnitClass@@QAEXPAPAEPAJ@Z:PROC	; UnitClass::ReadDirty
EXTRN	?WriteDirty@ObjectiveClass@@QAEXPAPAE@Z:PROC	; ObjectiveClass::WriteDirty
EXTRN	?ReadDirty@ObjectiveClass@@QAEXPAPAEPAJ@Z:PROC	; ObjectiveClass::ReadDirty
EXTRN	?ConvertSimToGrid@@YAXPAUvector@@PAF1@Z:PROC	; ConvertSimToGrid
EXTRN	??0CampDirtyData@@QAE@VVU_ID@@PAVVuTargetEntity@@E@Z:PROC ; CampDirtyData::CampDirtyData
EXTRN	??0SimDirtyData@@QAE@VVU_ID@@PAVVuTargetEntity@@E@Z:PROC ; SimDirtyData::SimDirtyData
EXTRN	?WriteDirty@FlightClass@@QAEXPAPAE@Z:PROC	; FlightClass::WriteDirty
EXTRN	?ReadDirty@FlightClass@@QAEXPAPAEPAJ@Z:PROC	; FlightClass::ReadDirty
EXTRN	?WriteDirty@SquadronClass@@QAEXPAPAE@Z:PROC	; SquadronClass::WriteDirty
EXTRN	?ReadDirty@SquadronClass@@QAEXPAPAEPAJ@Z:PROC	; SquadronClass::ReadDirty
EXTRN	?WriteDirty@PackageClass@@QAEXPAPAE@Z:PROC	; PackageClass::WriteDirty
EXTRN	?ReadDirty@PackageClass@@QAEXPAPAEPAJ@Z:PROC	; PackageClass::ReadDirty
EXTRN	?WriteDirty@GroundUnitClass@@QAEXPAPAE@Z:PROC	; GroundUnitClass::WriteDirty
EXTRN	?ReadDirty@GroundUnitClass@@QAEXPAPAEPAJ@Z:PROC	; GroundUnitClass::ReadDirty
EXTRN	?WriteDirty@BattalionClass@@QAEXPAPAE@Z:PROC	; BattalionClass::WriteDirty
EXTRN	?ReadDirty@BattalionClass@@QAEXPAPAEPAJ@Z:PROC	; BattalionClass::ReadDirty
EXTRN	?WriteDirty@TeamClass@@QAEXPAPAE@Z:PROC		; TeamClass::WriteDirty
EXTRN	?ReadDirty@TeamClass@@QAEXPAPAEPAJ@Z:PROC	; TeamClass::ReadDirty
EXTRN	@__security_check_cookie@4:PROC
EXTRN	__CxxThrowException@8:PROC
EXTRN	___CxxFrameHandler3:PROC
EXTRN	?vuLocalSessionEntity@@3V?$VuBin@VVuSessionEntity@@@@A:DWORD ; vuLocalSessionEntity
EXTRN	?Falcon4ClassTable@@3PAUFalcon4EntityClassType@@A:DWORD ; Falcon4ClassTable
EXTRN	??_7type_info@@6B@:QWORD			; type_info::`vftable'
EXTRN	?VolatileNS@@3VIdNamespace@@A:BYTE		; VolatileNS
EXTRN	?DefaultDamageMods@@3PAEA:BYTE			; DefaultDamageMods
EXTRN	?TheCampaign@@3VCampaignClass@@A:BYTE		; TheCampaign
EXTRN	?gCampDataVersion@@3HA:DWORD			; gCampDataVersion
EXTRN	?campDirtyBuckets@@3PAPAVTailInsertList@@A:BYTE	; campDirtyBuckets
EXTRN	?simDirtyBuckets@@3PAPAVTailInsertList@@A:BYTE	; simDirtyBuckets
EXTRN	?campDirtyMutexes@@3PAPAUF4CSECTIONHANDLE@@A:BYTE ; campDirtyMutexes
EXTRN	?simDirtyMutexes@@3PAPAUF4CSECTIONHANDLE@@A:BYTE ; simDirtyMutexes
EXTRN	___security_cookie:DWORD
EXTRN	__fltused:DWORD
_BSS	SEGMENT
_piecewise_construct DB 01H DUP (?)
_allocator_arg DB 01H DUP (?)
_BSS	ENDS
;	COMDAT ?lastSent@?1??DoCampaignDirtyData@FalconEntity@@SAXK@Z@4KA
_BSS	SEGMENT
?lastSent@?1??DoCampaignDirtyData@FalconEntity@@SAXK@Z@4KA DD 01H DUP (?) ; `FalconEntity::DoCampaignDirtyData'::`2'::lastSent
_BSS	ENDS
;	COMDAT ?lastSent@?4??DoSimDirtyData@FalconEntity@@SAXK@Z@4KA
_BSS	SEGMENT
?lastSent@?4??DoSimDirtyData@FalconEntity@@SAXK@Z@4KA DD 01H DUP (?) ; `FalconEntity::DoSimDirtyData'::`5'::lastSent
_BSS	ENDS
CRT$XCU	SEGMENT
_piecewise_construct$initializer$ DD FLAT:??__Epiecewise_construct@std@@YAXXZ
CRT$XCU	ENDS
;	COMDAT __real@00000000
CONST	SEGMENT
__real@00000000 DD 000000000r			; 0
CONST	ENDS
;	COMDAT ??_R1A@?0A@EA@InvalidBufferException@@8
rdata$r	SEGMENT
??_R1A@?0A@EA@InvalidBufferException@@8 DD FLAT:??_R0?AVInvalidBufferException@@@8 ; InvalidBufferException::`RTTI Base Class Descriptor at (0,-1,0,64)'
	DD	03H
	DD	00H
	DD	0ffffffffH
	DD	00H
	DD	040H
	DD	FLAT:??_R3InvalidBufferException@@8
rdata$r	ENDS
;	COMDAT ??_R2InvalidBufferException@@8
rdata$r	SEGMENT
??_R2InvalidBufferException@@8 DD FLAT:??_R1A@?0A@EA@InvalidBufferException@@8 ; InvalidBufferException::`RTTI Base Class Array'
	DD	FLAT:??_R1A@?0A@EA@out_of_range@std@@8
	DD	FLAT:??_R1A@?0A@EA@logic_error@std@@8
	DD	FLAT:??_R1A@?0A@EA@exception@std@@8
rdata$r	ENDS
;	COMDAT ??_R3InvalidBufferException@@8
rdata$r	SEGMENT
??_R3InvalidBufferException@@8 DD 00H			; InvalidBufferException::`RTTI Class Hierarchy Descriptor'
	DD	00H
	DD	04H
	DD	FLAT:??_R2InvalidBufferException@@8
rdata$r	ENDS
;	COMDAT ??_R4InvalidBufferException@@6B@
rdata$r	SEGMENT
??_R4InvalidBufferException@@6B@ DD 00H			; InvalidBufferException::`RTTI Complete Object Locator'
	DD	00H
	DD	00H
	DD	FLAT:??_R0?AVInvalidBufferException@@@8
	DD	FLAT:??_R3InvalidBufferException@@8
rdata$r	ENDS
;	COMDAT ??_R1A@?0A@EA@SpotEntity@@8
rdata$r	SEGMENT
??_R1A@?0A@EA@SpotEntity@@8 DD FLAT:??_R0?AVSpotEntity@@@8 ; SpotEntity::`RTTI Base Class Descriptor at (0,-1,0,64)'
	DD	02H
	DD	00H
	DD	0ffffffffH
	DD	00H
	DD	040H
	DD	FLAT:??_R3SpotEntity@@8
rdata$r	ENDS
;	COMDAT ??_R2SpotEntity@@8
rdata$r	SEGMENT
??_R2SpotEntity@@8 DD FLAT:??_R1A@?0A@EA@SpotEntity@@8	; SpotEntity::`RTTI Base Class Array'
	DD	FLAT:??_R1A@?0A@EA@FalconEntity@@8
	DD	FLAT:??_R1A@?0A@EA@VuEntity@@8
rdata$r	ENDS
;	COMDAT ??_R3SpotEntity@@8
rdata$r	SEGMENT
??_R3SpotEntity@@8 DD 00H				; SpotEntity::`RTTI Class Hierarchy Descriptor'
	DD	00H
	DD	03H
	DD	FLAT:??_R2SpotEntity@@8
rdata$r	ENDS
;	COMDAT ??_R0?AVSpotEntity@@@8
_DATA	SEGMENT
??_R0?AVSpotEntity@@@8 DD FLAT:??_7type_info@@6B@	; SpotEntity `RTTI Type Descriptor'
	DD	00H
	DB	'.?AVSpotEntity@@', 00H
_DATA	ENDS
;	COMDAT ??_R4SpotEntity@@6B@
rdata$r	SEGMENT
??_R4SpotEntity@@6B@ DD 00H				; SpotEntity::`RTTI Complete Object Locator'
	DD	00H
	DD	00H
	DD	FLAT:??_R0?AVSpotEntity@@@8
	DD	FLAT:??_R3SpotEntity@@8
rdata$r	ENDS
;	COMDAT ??_R2VuEntity@@8
rdata$r	SEGMENT
??_R2VuEntity@@8 DD FLAT:??_R1A@?0A@EA@VuEntity@@8	; VuEntity::`RTTI Base Class Array'
rdata$r	ENDS
;	COMDAT ??_R3VuEntity@@8
rdata$r	SEGMENT
??_R3VuEntity@@8 DD 00H					; VuEntity::`RTTI Class Hierarchy Descriptor'
	DD	00H
	DD	01H
	DD	FLAT:??_R2VuEntity@@8
rdata$r	ENDS
;	COMDAT ??_R0?AVVuEntity@@@8
_DATA	SEGMENT
??_R0?AVVuEntity@@@8 DD FLAT:??_7type_info@@6B@		; VuEntity `RTTI Type Descriptor'
	DD	00H
	DB	'.?AVVuEntity@@', 00H
_DATA	ENDS
;	COMDAT ??_R1A@?0A@EA@VuEntity@@8
rdata$r	SEGMENT
??_R1A@?0A@EA@VuEntity@@8 DD FLAT:??_R0?AVVuEntity@@@8	; VuEntity::`RTTI Base Class Descriptor at (0,-1,0,64)'
	DD	00H
	DD	00H
	DD	0ffffffffH
	DD	00H
	DD	040H
	DD	FLAT:??_R3VuEntity@@8
rdata$r	ENDS
;	COMDAT ??_R1A@?0A@EA@FalconEntity@@8
rdata$r	SEGMENT
??_R1A@?0A@EA@FalconEntity@@8 DD FLAT:??_R0?AVFalconEntity@@@8 ; FalconEntity::`RTTI Base Class Descriptor at (0,-1,0,64)'
	DD	01H
	DD	00H
	DD	0ffffffffH
	DD	00H
	DD	040H
	DD	FLAT:??_R3FalconEntity@@8
rdata$r	ENDS
;	COMDAT ??_R2FalconEntity@@8
rdata$r	SEGMENT
??_R2FalconEntity@@8 DD FLAT:??_R1A@?0A@EA@FalconEntity@@8 ; FalconEntity::`RTTI Base Class Array'
	DD	FLAT:??_R1A@?0A@EA@VuEntity@@8
rdata$r	ENDS
;	COMDAT ??_R3FalconEntity@@8
rdata$r	SEGMENT
??_R3FalconEntity@@8 DD 00H				; FalconEntity::`RTTI Class Hierarchy Descriptor'
	DD	00H
	DD	02H
	DD	FLAT:??_R2FalconEntity@@8
rdata$r	ENDS
;	COMDAT ??_R0?AVFalconEntity@@@8
_DATA	SEGMENT
??_R0?AVFalconEntity@@@8 DD FLAT:??_7type_info@@6B@	; FalconEntity `RTTI Type Descriptor'
	DD	00H
	DB	'.?AVFalconEntity@@', 00H
_DATA	ENDS
;	COMDAT ??_R4FalconEntity@@6B@
rdata$r	SEGMENT
??_R4FalconEntity@@6B@ DD 00H				; FalconEntity::`RTTI Complete Object Locator'
	DD	00H
	DD	00H
	DD	FLAT:??_R0?AVFalconEntity@@@8
	DD	FLAT:??_R3FalconEntity@@8
rdata$r	ENDS
;	COMDAT ??_R1A@?0A@EA@out_of_range@std@@8
rdata$r	SEGMENT
??_R1A@?0A@EA@out_of_range@std@@8 DD FLAT:??_R0?AVout_of_range@std@@@8 ; std::out_of_range::`RTTI Base Class Descriptor at (0,-1,0,64)'
	DD	02H
	DD	00H
	DD	0ffffffffH
	DD	00H
	DD	040H
	DD	FLAT:??_R3out_of_range@std@@8
rdata$r	ENDS
;	COMDAT ??_R2out_of_range@std@@8
rdata$r	SEGMENT
??_R2out_of_range@std@@8 DD FLAT:??_R1A@?0A@EA@out_of_range@std@@8 ; std::out_of_range::`RTTI Base Class Array'
	DD	FLAT:??_R1A@?0A@EA@logic_error@std@@8
	DD	FLAT:??_R1A@?0A@EA@exception@std@@8
rdata$r	ENDS
;	COMDAT ??_R3out_of_range@std@@8
rdata$r	SEGMENT
??_R3out_of_range@std@@8 DD 00H				; std::out_of_range::`RTTI Class Hierarchy Descriptor'
	DD	00H
	DD	03H
	DD	FLAT:??_R2out_of_range@std@@8
rdata$r	ENDS
;	COMDAT ??_R4out_of_range@std@@6B@
rdata$r	SEGMENT
??_R4out_of_range@std@@6B@ DD 00H			; std::out_of_range::`RTTI Complete Object Locator'
	DD	00H
	DD	00H
	DD	FLAT:??_R0?AVout_of_range@std@@@8
	DD	FLAT:??_R3out_of_range@std@@8
rdata$r	ENDS
;	COMDAT ??_R1A@?0A@EA@logic_error@std@@8
rdata$r	SEGMENT
??_R1A@?0A@EA@logic_error@std@@8 DD FLAT:??_R0?AVlogic_error@std@@@8 ; std::logic_error::`RTTI Base Class Descriptor at (0,-1,0,64)'
	DD	01H
	DD	00H
	DD	0ffffffffH
	DD	00H
	DD	040H
	DD	FLAT:??_R3logic_error@std@@8
rdata$r	ENDS
;	COMDAT ??_R2logic_error@std@@8
rdata$r	SEGMENT
??_R2logic_error@std@@8 DD FLAT:??_R1A@?0A@EA@logic_error@std@@8 ; std::logic_error::`RTTI Base Class Array'
	DD	FLAT:??_R1A@?0A@EA@exception@std@@8
rdata$r	ENDS
;	COMDAT ??_R3logic_error@std@@8
rdata$r	SEGMENT
??_R3logic_error@std@@8 DD 00H				; std::logic_error::`RTTI Class Hierarchy Descriptor'
	DD	00H
	DD	02H
	DD	FLAT:??_R2logic_error@std@@8
rdata$r	ENDS
;	COMDAT ??_R4logic_error@std@@6B@
rdata$r	SEGMENT
??_R4logic_error@std@@6B@ DD 00H			; std::logic_error::`RTTI Complete Object Locator'
	DD	00H
	DD	00H
	DD	FLAT:??_R0?AVlogic_error@std@@@8
	DD	FLAT:??_R3logic_error@std@@8
rdata$r	ENDS
;	COMDAT ??_R2exception@std@@8
rdata$r	SEGMENT
??_R2exception@std@@8 DD FLAT:??_R1A@?0A@EA@exception@std@@8 ; std::exception::`RTTI Base Class Array'
rdata$r	ENDS
;	COMDAT ??_R3exception@std@@8
rdata$r	SEGMENT
??_R3exception@std@@8 DD 00H				; std::exception::`RTTI Class Hierarchy Descriptor'
	DD	00H
	DD	01H
	DD	FLAT:??_R2exception@std@@8
rdata$r	ENDS
;	COMDAT ??_R1A@?0A@EA@exception@std@@8
rdata$r	SEGMENT
??_R1A@?0A@EA@exception@std@@8 DD FLAT:??_R0?AVexception@std@@@8 ; std::exception::`RTTI Base Class Descriptor at (0,-1,0,64)'
	DD	00H
	DD	00H
	DD	0ffffffffH
	DD	00H
	DD	040H
	DD	FLAT:??_R3exception@std@@8
rdata$r	ENDS
;	COMDAT ??_C@_0BI@CFPLBAOH@invalid?5string?5position?$AA@
CONST	SEGMENT
??_C@_0BI@CFPLBAOH@invalid?5string?5position?$AA@ DB 'invalid string posi'
	DB	'tion', 00H					; `string'
CONST	ENDS
;	COMDAT ??_C@_0BA@JFNIOLAK@string?5too?5long?$AA@
CONST	SEGMENT
??_C@_0BA@JFNIOLAK@string?5too?5long?$AA@ DB 'string too long', 00H ; `string'
CONST	ENDS
;	COMDAT __CT??_R0?AVexception@std@@@8??0exception@std@@QAE@ABV01@@Z12
xdata$x	SEGMENT
__CT??_R0?AVexception@std@@@8??0exception@std@@QAE@ABV01@@Z12 DD 00H
	DD	FLAT:??_R0?AVexception@std@@@8
	DD	00H
	DD	0ffffffffH
	ORG $+4
	DD	0cH
	DD	FLAT:??0exception@std@@QAE@ABV01@@Z
xdata$x	ENDS
;	COMDAT ??_R0?AVexception@std@@@8
_DATA	SEGMENT
??_R0?AVexception@std@@@8 DD FLAT:??_7type_info@@6B@	; std::exception `RTTI Type Descriptor'
	DD	00H
	DB	'.?AVexception@std@@', 00H
_DATA	ENDS
;	COMDAT __CT??_R0?AVlogic_error@std@@@8??0logic_error@std@@QAE@ABV01@@Z12
xdata$x	SEGMENT
__CT??_R0?AVlogic_error@std@@@8??0logic_error@std@@QAE@ABV01@@Z12 DD 00H
	DD	FLAT:??_R0?AVlogic_error@std@@@8
	DD	00H
	DD	0ffffffffH
	ORG $+4
	DD	0cH
	DD	FLAT:??0logic_error@std@@QAE@ABV01@@Z
xdata$x	ENDS
;	COMDAT ??_R0?AVlogic_error@std@@@8
_DATA	SEGMENT
??_R0?AVlogic_error@std@@@8 DD FLAT:??_7type_info@@6B@	; std::logic_error `RTTI Type Descriptor'
	DD	00H
	DB	'.?AVlogic_error@std@@', 00H
_DATA	ENDS
;	COMDAT __CT??_R0?AVout_of_range@std@@@8??0out_of_range@std@@QAE@ABV01@@Z12
xdata$x	SEGMENT
__CT??_R0?AVout_of_range@std@@@8??0out_of_range@std@@QAE@ABV01@@Z12 DD 00H
	DD	FLAT:??_R0?AVout_of_range@std@@@8
	DD	00H
	DD	0ffffffffH
	ORG $+4
	DD	0cH
	DD	FLAT:??0out_of_range@std@@QAE@ABV01@@Z
xdata$x	ENDS
;	COMDAT ??_R0?AVout_of_range@std@@@8
_DATA	SEGMENT
??_R0?AVout_of_range@std@@@8 DD FLAT:??_7type_info@@6B@	; std::out_of_range `RTTI Type Descriptor'
	DD	00H
	DB	'.?AVout_of_range@std@@', 00H
_DATA	ENDS
;	COMDAT __CT??_R0?AVInvalidBufferException@@@8??0InvalidBufferException@@QAE@ABV0@@Z12
xdata$x	SEGMENT
__CT??_R0?AVInvalidBufferException@@@8??0InvalidBufferException@@QAE@ABV0@@Z12 DD 00H
	DD	FLAT:??_R0?AVInvalidBufferException@@@8
	DD	00H
	DD	0ffffffffH
	ORG $+4
	DD	0cH
	DD	FLAT:??0InvalidBufferException@@QAE@ABV0@@Z
xdata$x	ENDS
;	COMDAT ??_R0?AVInvalidBufferException@@@8
_DATA	SEGMENT
??_R0?AVInvalidBufferException@@@8 DD FLAT:??_7type_info@@6B@ ; InvalidBufferException `RTTI Type Descriptor'
	DD	00H
	DB	'.?AVInvalidBufferException@@', 00H
_DATA	ENDS
;	COMDAT __CTA4?AVInvalidBufferException@@
xdata$x	SEGMENT
__CTA4?AVInvalidBufferException@@ DD 04H
	DD	FLAT:__CT??_R0?AVInvalidBufferException@@@8??0InvalidBufferException@@QAE@ABV0@@Z12
	DD	FLAT:__CT??_R0?AVout_of_range@std@@@8??0out_of_range@std@@QAE@ABV01@@Z12
	DD	FLAT:__CT??_R0?AVlogic_error@std@@@8??0logic_error@std@@QAE@ABV01@@Z12
	DD	FLAT:__CT??_R0?AVexception@std@@@8??0exception@std@@QAE@ABV01@@Z12
xdata$x	ENDS
;	COMDAT __TI4?AVInvalidBufferException@@
xdata$x	SEGMENT
__TI4?AVInvalidBufferException@@ DD 00H
	DD	FLAT:??1InvalidBufferException@@UAE@XZ
	DD	00H
	DD	FLAT:__CTA4?AVInvalidBufferException@@
xdata$x	ENDS
;	COMDAT ??_C@_0CI@MPKJAHJH@Trying?5to?5write?5?$CFlu?5bytes?5to?5?$CFld@
CONST	SEGMENT
??_C@_0CI@MPKJAHJH@Trying?5to?5write?5?$CFlu?5bytes?5to?5?$CFld@ DB 'Tryi'
	DB	'ng to write %lu bytes to %ld buffer', 00H	; `string'
CONST	ENDS
;	COMDAT ??_7InvalidBufferException@@6B@
CONST	SEGMENT
??_7InvalidBufferException@@6B@ DD FLAT:??_R4InvalidBufferException@@6B@ ; InvalidBufferException::`vftable'
	DD	FLAT:??_EInvalidBufferException@@UAEPAXI@Z
	DD	FLAT:?what@exception@std@@UBEPBDXZ
CONST	ENDS
;	COMDAT ??_7SpotEntity@@6B@
CONST	SEGMENT
??_7SpotEntity@@6B@ DD FLAT:??_R4SpotEntity@@6B@	; SpotEntity::`vftable'
	DD	FLAT:?CustomCollisionCheck@VuEntity@@UAEEPAV1@M@Z
	DD	FLAT:?TerrainCollisionCheck@VuEntity@@UAEEXZ
	DD	FLAT:?IsTarget@VuEntity@@UAEEXZ
	DD	FLAT:?IsSession@VuEntity@@UAEEXZ
	DD	FLAT:?IsGroup@VuEntity@@UAEEXZ
	DD	FLAT:?IsGame@VuEntity@@UAEEXZ
	DD	FLAT:?IsCamera@VuEntity@@UBEEXZ
	DD	FLAT:?SaveSize@FalconEntity@@UAEHXZ
	DD	FLAT:?Save@FalconEntity@@UAEHPAU_iobuf@@@Z
	DD	FLAT:?Save@FalconEntity@@UAEHPAPAE@Z
	DD	FLAT:?Handle@VuEntity@@UAEHPAVVuSessionEvent@@@Z
	DD	FLAT:?Handle@VuEntity@@UAEHPAVVuTransferEvent@@@Z
	DD	FLAT:?Handle@VuEntity@@UAEHPAVVuEntityCollisionEvent@@@Z
	DD	FLAT:?Handle@VuEntity@@UAEHPAVVuPositionUpdateEvent@@@Z
	DD	FLAT:?Handle@VuEntity@@UAEHPAVVuFullUpdateEvent@@@Z
	DD	FLAT:?Handle@VuEntity@@UAEHPAVVuEvent@@@Z
	DD	FLAT:?Handle@VuEntity@@UAEHPAVVuPullRequest@@@Z
	DD	FLAT:?Handle@VuEntity@@UAEHPAVVuPushRequest@@@Z
	DD	FLAT:?Handle@VuEntity@@UAEHPAVVuErrorMessage@@@Z
	DD	FLAT:??_ESpotEntity@@UAEPAXI@Z
	DD	FLAT:?InsertionCallback@VuEntity@@MAEHXZ
	DD	FLAT:?RemovalCallback@FalconEntity@@UAEHXZ
	DD	FLAT:?InitData@FalconEntity@@UAEXXZ
	DD	FLAT:?CleanupData@FalconEntity@@UAEXXZ
	DD	FLAT:?IsSimBase@FalconEntity@@UAE_NXZ
	DD	FLAT:?IsCampBase@FalconEntity@@UAE_NXZ
	DD	FLAT:?Wake@SpotEntity@@UAEHXZ
	DD	FLAT:?Sleep@SpotEntity@@UAEHXZ
	DD	FLAT:?GetCampID@SpotEntity@@UAEFXZ
	DD	FLAT:?GetTeam@SpotEntity@@UAEEXZ
	DD	FLAT:?GetCountry@SpotEntity@@UAEEXZ
	DD	FLAT:?GetDomain@FalconEntity@@UAEEXZ
	DD	FLAT:?GetRadarMode@FalconEntity@@UAEHXZ
	DD	FLAT:?SetRadarMode@FalconEntity@@UAEXE@Z
	DD	FLAT:?ReturnToSearch@FalconEntity@@UAEXXZ
	DD	FLAT:?SetSearchMode@FalconEntity@@UAEXE@Z
	DD	FLAT:?CombatClass@FalconEntity@@UAEHXZ
	DD	FLAT:?OnGround@FalconEntity@@UAEHXZ
	DD	FLAT:?HasEntity@FalconEntity@@UBEHPAVVuEntity@@@Z
	DD	FLAT:?IsMissile@FalconEntity@@UAEHXZ
	DD	FLAT:?IsLauncher@FalconEntity@@UAEHXZ
	DD	FLAT:?IsBomb@FalconEntity@@UAEHXZ
	DD	FLAT:?IsGun@FalconEntity@@UAEHXZ
	DD	FLAT:?IsMover@FalconEntity@@UAEHXZ
	DD	FLAT:?IsVehicle@FalconEntity@@UAEHXZ
	DD	FLAT:?IsStatic@FalconEntity@@UAEHXZ
	DD	FLAT:?IsHelicopter@FalconEntity@@UAEHXZ
	DD	FLAT:?IsEject@FalconEntity@@UAEHXZ
	DD	FLAT:?IsAirplane@FalconEntity@@UAEHXZ
	DD	FLAT:?IsGroundVehicle@FalconEntity@@UAEHXZ
	DD	FLAT:?IsShip@FalconEntity@@UAEHXZ
	DD	FLAT:?IsWeapon@FalconEntity@@UAEHXZ
	DD	FLAT:?IsExploding@FalconEntity@@UAEHXZ
	DD	FLAT:?IsDead@FalconEntity@@UAEHXZ
	DD	FLAT:?IsEmitting@FalconEntity@@UAEHXZ
	DD	FLAT:?GetVt@SpotEntity@@UBEMXZ
	DD	FLAT:?GetKias@SpotEntity@@UBEMXZ
	DD	FLAT:?GetMovementType@FalconEntity@@UAE?AW4MoveType@@XZ
	DD	FLAT:?IsUnit@FalconEntity@@UAEHXZ
	DD	FLAT:?IsObjective@FalconEntity@@UAEHXZ
	DD	FLAT:?IsBattalion@FalconEntity@@UAEHXZ
	DD	FLAT:?IsBrigade@FalconEntity@@UAEHXZ
	DD	FLAT:?IsFlight@FalconEntity@@UBEHXZ
	DD	FLAT:?IsSquadron@FalconEntity@@UAEHXZ
	DD	FLAT:?IsPackage@FalconEntity@@UAEHXZ
	DD	FLAT:?IsTeam@FalconEntity@@UAEHXZ
	DD	FLAT:?IsTaskForce@FalconEntity@@UAEHXZ
	DD	FLAT:?IsSPJamming@FalconEntity@@UAEHXZ
	DD	FLAT:?IsAreaJamming@FalconEntity@@UAEHXZ
	DD	FLAT:?HasSPJamming@FalconEntity@@UAEHXZ
	DD	FLAT:?HasAreaJamming@FalconEntity@@UAEHXZ
	DD	FLAT:?GetRCSFactor@FalconEntity@@UAEMXZ
	DD	FLAT:?GetIRFactor@FalconEntity@@UAEMXZ
	DD	FLAT:?GetRadarType@FalconEntity@@UAEHXZ
	DD	FLAT:?GetDamageModifiers@FalconEntity@@UAEPAEXZ
	DD	FLAT:?SetAQUIREtimer@FalconEntity@@UAEXK@Z
	DD	FLAT:?SetSEARCHtimer@FalconEntity@@UAEXK@Z
	DD	FLAT:?SetStepSearchMode@FalconEntity@@UAEXE@Z
	DD	FLAT:?GetAQUIREtimer@FalconEntity@@UAEKXZ
	DD	FLAT:?GetSEARCHtimer@FalconEntity@@UAEKXZ
CONST	ENDS
;	COMDAT ??_7FalconEntity@@6B@
CONST	SEGMENT
??_7FalconEntity@@6B@ DD FLAT:??_R4FalconEntity@@6B@	; FalconEntity::`vftable'
	DD	FLAT:?CustomCollisionCheck@VuEntity@@UAEEPAV1@M@Z
	DD	FLAT:?TerrainCollisionCheck@VuEntity@@UAEEXZ
	DD	FLAT:?IsTarget@VuEntity@@UAEEXZ
	DD	FLAT:?IsSession@VuEntity@@UAEEXZ
	DD	FLAT:?IsGroup@VuEntity@@UAEEXZ
	DD	FLAT:?IsGame@VuEntity@@UAEEXZ
	DD	FLAT:?IsCamera@VuEntity@@UBEEXZ
	DD	FLAT:?SaveSize@FalconEntity@@UAEHXZ
	DD	FLAT:?Save@FalconEntity@@UAEHPAU_iobuf@@@Z
	DD	FLAT:?Save@FalconEntity@@UAEHPAPAE@Z
	DD	FLAT:?Handle@VuEntity@@UAEHPAVVuSessionEvent@@@Z
	DD	FLAT:?Handle@VuEntity@@UAEHPAVVuTransferEvent@@@Z
	DD	FLAT:?Handle@VuEntity@@UAEHPAVVuEntityCollisionEvent@@@Z
	DD	FLAT:?Handle@VuEntity@@UAEHPAVVuPositionUpdateEvent@@@Z
	DD	FLAT:?Handle@VuEntity@@UAEHPAVVuFullUpdateEvent@@@Z
	DD	FLAT:?Handle@VuEntity@@UAEHPAVVuEvent@@@Z
	DD	FLAT:?Handle@VuEntity@@UAEHPAVVuPullRequest@@@Z
	DD	FLAT:?Handle@VuEntity@@UAEHPAVVuPushRequest@@@Z
	DD	FLAT:?Handle@VuEntity@@UAEHPAVVuErrorMessage@@@Z
	DD	FLAT:??_EFalconEntity@@UAEPAXI@Z
	DD	FLAT:?InsertionCallback@VuEntity@@MAEHXZ
	DD	FLAT:?RemovalCallback@FalconEntity@@UAEHXZ
	DD	FLAT:?InitData@FalconEntity@@UAEXXZ
	DD	FLAT:?CleanupData@FalconEntity@@UAEXXZ
	DD	FLAT:?IsSimBase@FalconEntity@@UAE_NXZ
	DD	FLAT:?IsCampBase@FalconEntity@@UAE_NXZ
	DD	FLAT:__purecall
	DD	FLAT:__purecall
	DD	FLAT:__purecall
	DD	FLAT:__purecall
	DD	FLAT:__purecall
	DD	FLAT:?GetDomain@FalconEntity@@UAEEXZ
	DD	FLAT:?GetRadarMode@FalconEntity@@UAEHXZ
	DD	FLAT:?SetRadarMode@FalconEntity@@UAEXE@Z
	DD	FLAT:?ReturnToSearch@FalconEntity@@UAEXXZ
	DD	FLAT:?SetSearchMode@FalconEntity@@UAEXE@Z
	DD	FLAT:?CombatClass@FalconEntity@@UAEHXZ
	DD	FLAT:?OnGround@FalconEntity@@UAEHXZ
	DD	FLAT:?HasEntity@FalconEntity@@UBEHPAVVuEntity@@@Z
	DD	FLAT:?IsMissile@FalconEntity@@UAEHXZ
	DD	FLAT:?IsLauncher@FalconEntity@@UAEHXZ
	DD	FLAT:?IsBomb@FalconEntity@@UAEHXZ
	DD	FLAT:?IsGun@FalconEntity@@UAEHXZ
	DD	FLAT:?IsMover@FalconEntity@@UAEHXZ
	DD	FLAT:?IsVehicle@FalconEntity@@UAEHXZ
	DD	FLAT:?IsStatic@FalconEntity@@UAEHXZ
	DD	FLAT:?IsHelicopter@FalconEntity@@UAEHXZ
	DD	FLAT:?IsEject@FalconEntity@@UAEHXZ
	DD	FLAT:?IsAirplane@FalconEntity@@UAEHXZ
	DD	FLAT:?IsGroundVehicle@FalconEntity@@UAEHXZ
	DD	FLAT:?IsShip@FalconEntity@@UAEHXZ
	DD	FLAT:?IsWeapon@FalconEntity@@UAEHXZ
	DD	FLAT:?IsExploding@FalconEntity@@UAEHXZ
	DD	FLAT:?IsDead@FalconEntity@@UAEHXZ
	DD	FLAT:?IsEmitting@FalconEntity@@UAEHXZ
	DD	FLAT:__purecall
	DD	FLAT:__purecall
	DD	FLAT:?GetMovementType@FalconEntity@@UAE?AW4MoveType@@XZ
	DD	FLAT:?IsUnit@FalconEntity@@UAEHXZ
	DD	FLAT:?IsObjective@FalconEntity@@UAEHXZ
	DD	FLAT:?IsBattalion@FalconEntity@@UAEHXZ
	DD	FLAT:?IsBrigade@FalconEntity@@UAEHXZ
	DD	FLAT:?IsFlight@FalconEntity@@UBEHXZ
	DD	FLAT:?IsSquadron@FalconEntity@@UAEHXZ
	DD	FLAT:?IsPackage@FalconEntity@@UAEHXZ
	DD	FLAT:?IsTeam@FalconEntity@@UAEHXZ
	DD	FLAT:?IsTaskForce@FalconEntity@@UAEHXZ
	DD	FLAT:?IsSPJamming@FalconEntity@@UAEHXZ
	DD	FLAT:?IsAreaJamming@FalconEntity@@UAEHXZ
	DD	FLAT:?HasSPJamming@FalconEntity@@UAEHXZ
	DD	FLAT:?HasAreaJamming@FalconEntity@@UAEHXZ
	DD	FLAT:?GetRCSFactor@FalconEntity@@UAEMXZ
	DD	FLAT:?GetIRFactor@FalconEntity@@UAEMXZ
	DD	FLAT:?GetRadarType@FalconEntity@@UAEHXZ
	DD	FLAT:?GetDamageModifiers@FalconEntity@@UAEPAEXZ
	DD	FLAT:?SetAQUIREtimer@FalconEntity@@UAEXK@Z
	DD	FLAT:?SetSEARCHtimer@FalconEntity@@UAEXK@Z
	DD	FLAT:?SetStepSearchMode@FalconEntity@@UAEXE@Z
	DD	FLAT:?GetAQUIREtimer@FalconEntity@@UAEKXZ
	DD	FLAT:?GetSEARCHtimer@FalconEntity@@UAEKXZ
CONST	ENDS
;	COMDAT ??_7out_of_range@std@@6B@
CONST	SEGMENT
??_7out_of_range@std@@6B@ DD FLAT:??_R4out_of_range@std@@6B@ ; std::out_of_range::`vftable'
	DD	FLAT:??_Eout_of_range@std@@UAEPAXI@Z
	DD	FLAT:?what@exception@std@@UBEPBDXZ
CONST	ENDS
;	COMDAT ??_7logic_error@std@@6B@
CONST	SEGMENT
??_7logic_error@std@@6B@ DD FLAT:??_R4logic_error@std@@6B@ ; std::logic_error::`vftable'
	DD	FLAT:??_Elogic_error@std@@UAEPAXI@Z
	DD	FLAT:?what@exception@std@@UBEPBDXZ
CONST	ENDS
;	COMDAT xdata$x
xdata$x	SEGMENT
__unwindtable$??$construct@PADAAPAD@?$allocator@D@std@@QAEXPAPADAAPAD@Z DD 0ffffffffH
	DD	FLAT:__unwindfunclet$??$construct@PADAAPAD@?$allocator@D@std@@QAEXPAPADAAPAD@Z$0
__ehfuncinfo$??$construct@PADAAPAD@?$allocator@D@std@@QAEXPAPADAAPAD@Z DD 019930522H
	DD	01H
	DD	FLAT:__unwindtable$??$construct@PADAAPAD@?$allocator@D@std@@QAEXPAPADAAPAD@Z
	DD	2 DUP(00H)
	DD	2 DUP(00H)
	DD	00H
	DD	01H
xdata$x	ENDS
;	COMDAT xdata$x
xdata$x	SEGMENT
__unwindtable$?memcpychk@@YAXPAXPAPAEIPAJ@Z DD 0ffffffffH
	DD	FLAT:__unwindfunclet$?memcpychk@@YAXPAXPAPAEIPAJ@Z$0
__ehfuncinfo$?memcpychk@@YAXPAXPAPAEIPAJ@Z DD 019930522H
	DD	01H
	DD	FLAT:__unwindtable$?memcpychk@@YAXPAXPAPAEIPAJ@Z
	DD	2 DUP(00H)
	DD	2 DUP(00H)
	DD	00H
	DD	01H
xdata$x	ENDS
xdata$x	SEGMENT
__unwindtable$??0SpotEntity@@QAE@PAPAEPAJ@Z DD 0ffffffffH
	DD	FLAT:__unwindfunclet$??0SpotEntity@@QAE@PAPAEPAJ@Z$0
__unwindtable$??0SpotEntity@@QAE@G@Z DD 0ffffffffH
	DD	FLAT:__unwindfunclet$??0SpotEntity@@QAE@G@Z$0
__unwindtable$?DoFullUpdate@FalconEntity@@QAEXXZ DD 0ffffffffH
	DD	FLAT:__unwindfunclet$?DoFullUpdate@FalconEntity@@QAEXXZ$0
__unwindtable$??1FalconEntity@@UAE@XZ DD 0ffffffffH
	DD	FLAT:__unwindfunclet$??1FalconEntity@@UAE@XZ$0
__unwindtable$??0FalconEntity@@QAE@PAU_iobuf@@@Z DD 0ffffffffH
	DD	FLAT:__unwindfunclet$??0FalconEntity@@QAE@PAU_iobuf@@@Z$0
__unwindtable$??0FalconEntity@@QAE@PAPAEPAJ@Z DD 0ffffffffH
	DD	FLAT:__unwindfunclet$??0FalconEntity@@QAE@PAPAEPAJ@Z$0
__unwindtable$??0FalconEntity@@QAE@GK@Z DD 0ffffffffH
	DD	FLAT:__unwindfunclet$??0FalconEntity@@QAE@GK@Z$0
__unwindtable$?DoCampaignDirtyData@FalconEntity@@SAXK@Z DD 0ffffffffH
	DD	FLAT:__unwindfunclet$?DoCampaignDirtyData@FalconEntity@@SAXK@Z$0
	DD	00H
	DD	FLAT:__unwindfunclet$?DoCampaignDirtyData@FalconEntity@@SAXK@Z$1
__unwindtable$?DoSimDirtyData@FalconEntity@@SAXK@Z DD 0ffffffffH
	DD	FLAT:__unwindfunclet$?DoSimDirtyData@FalconEntity@@SAXK@Z$0
	DD	00H
	DD	FLAT:__unwindfunclet$?DoSimDirtyData@FalconEntity@@SAXK@Z$1
__unwindtable$?MakeDirty@FalconEntity@@QAEXW4Dirty_Class@@W4Dirtyness@@@Z DD 0ffffffffH
	DD	FLAT:__unwindfunclet$?MakeDirty@FalconEntity@@QAEXW4Dirty_Class@@W4Dirtyness@@@Z$0
	DD	0ffffffffH
	DD	FLAT:__unwindfunclet$?MakeDirty@FalconEntity@@QAEXW4Dirty_Class@@W4Dirtyness@@@Z$1
__ehfuncinfo$??0SpotEntity@@QAE@PAPAEPAJ@Z DD 019930522H
	DD	01H
	DD	FLAT:__unwindtable$??0SpotEntity@@QAE@PAPAEPAJ@Z
	DD	2 DUP(00H)
	DD	2 DUP(00H)
	DD	00H
	DD	01H
__ehfuncinfo$??0SpotEntity@@QAE@G@Z DD 019930522H
	DD	01H
	DD	FLAT:__unwindtable$??0SpotEntity@@QAE@G@Z
	DD	2 DUP(00H)
	DD	2 DUP(00H)
	DD	00H
	DD	01H
__ehfuncinfo$?DoCampaignDirtyData@FalconEntity@@SAXK@Z DD 019930522H
	DD	02H
	DD	FLAT:__unwindtable$?DoCampaignDirtyData@FalconEntity@@SAXK@Z
	DD	2 DUP(00H)
	DD	2 DUP(00H)
	DD	00H
	DD	01H
__ehfuncinfo$?DoSimDirtyData@FalconEntity@@SAXK@Z DD 019930522H
	DD	02H
	DD	FLAT:__unwindtable$?DoSimDirtyData@FalconEntity@@SAXK@Z
	DD	2 DUP(00H)
	DD	2 DUP(00H)
	DD	00H
	DD	01H
__ehfuncinfo$?MakeDirty@FalconEntity@@QAEXW4Dirty_Class@@W4Dirtyness@@@Z DD 019930522H
	DD	02H
	DD	FLAT:__unwindtable$?MakeDirty@FalconEntity@@QAEXW4Dirty_Class@@W4Dirtyness@@@Z
	DD	2 DUP(00H)
	DD	2 DUP(00H)
	DD	00H
	DD	01H
__ehfuncinfo$?DoFullUpdate@FalconEntity@@QAEXXZ DD 019930522H
	DD	01H
	DD	FLAT:__unwindtable$?DoFullUpdate@FalconEntity@@QAEXXZ
	DD	2 DUP(00H)
	DD	2 DUP(00H)
	DD	00H
	DD	01H
__ehfuncinfo$??1FalconEntity@@UAE@XZ DD 019930522H
	DD	01H
	DD	FLAT:__unwindtable$??1FalconEntity@@UAE@XZ
	DD	2 DUP(00H)
	DD	2 DUP(00H)
	DD	00H
	DD	01H
__ehfuncinfo$??0FalconEntity@@QAE@PAU_iobuf@@@Z DD 019930522H
	DD	01H
	DD	FLAT:__unwindtable$??0FalconEntity@@QAE@PAU_iobuf@@@Z
	DD	2 DUP(00H)
	DD	2 DUP(00H)
	DD	00H
	DD	01H
__ehfuncinfo$??0FalconEntity@@QAE@PAPAEPAJ@Z DD 019930522H
	DD	01H
	DD	FLAT:__unwindtable$??0FalconEntity@@QAE@PAPAEPAJ@Z
	DD	2 DUP(00H)
	DD	2 DUP(00H)
	DD	00H
	DD	01H
__ehfuncinfo$??0FalconEntity@@QAE@GK@Z DD 019930522H
	DD	01H
	DD	FLAT:__unwindtable$??0FalconEntity@@QAE@GK@Z
	DD	2 DUP(00H)
	DD	2 DUP(00H)
	DD	00H
	DD	01H
xdata$x	ENDS
;	COMDAT xdata$x
xdata$x	SEGMENT
__catchsym$?_Copy@?$basic_string@DU?$char_traits@D@std@@V?$allocator@D@2@@std@@QAEXII@Z$5 DD 040H
	DD	00H
	DD	00H
	DD	FLAT:__catch$?_Copy@?$basic_string@DU?$char_traits@D@std@@V?$allocator@D@2@@std@@QAEXII@Z$0
__catchsym$?_Copy@?$basic_string@DU?$char_traits@D@std@@V?$allocator@D@2@@std@@QAEXII@Z$4 DD 040H
	DD	00H
	DD	00H
	DD	FLAT:__catch$?_Copy@?$basic_string@DU?$char_traits@D@std@@V?$allocator@D@2@@std@@QAEXII@Z$1
__unwindtable$?_Copy@?$basic_string@DU?$char_traits@D@std@@V?$allocator@D@2@@std@@QAEXII@Z DD 0ffffffffH
	DD	00H
	DD	0ffffffffH
	DD	00H
	DD	01H
	DD	00H
	DD	01H
	DD	00H
__ehfuncinfo$?_Copy@?$basic_string@DU?$char_traits@D@std@@V?$allocator@D@2@@std@@QAEXII@Z DD 019930522H
	DD	04H
	DD	FLAT:__unwindtable$?_Copy@?$basic_string@DU?$char_traits@D@std@@V?$allocator@D@2@@std@@QAEXII@Z
	DD	02H
	DD	FLAT:__tryblocktable$?_Copy@?$basic_string@DU?$char_traits@D@std@@V?$allocator@D@2@@std@@QAEXII@Z
	DD	2 DUP(00H)
	DD	00H
	DD	01H
__tryblocktable$?_Copy@?$basic_string@DU?$char_traits@D@std@@V?$allocator@D@2@@std@@QAEXII@Z DD 02H
	DD	02H
	DD	03H
	DD	01H
	DD	FLAT:__catchsym$?_Copy@?$basic_string@DU?$char_traits@D@std@@V?$allocator@D@2@@std@@QAEXII@Z$4
	DD	00H
	DD	00H
	DD	03H
	DD	01H
	DD	FLAT:__catchsym$?_Copy@?$basic_string@DU?$char_traits@D@std@@V?$allocator@D@2@@std@@QAEXII@Z$5
xdata$x	ENDS
CRT$XCU	SEGMENT
_allocator_arg$initializer$ DD FLAT:??__Eallocator_arg@std@@YAXXZ
CRT$XCU	ENDS
; Function compile flags: /Odtp
; File c:\program files (x86)\microsoft visual studio 11.0\vc\include\xmemory0
;	COMDAT ??$construct@PADAAPAD@?$allocator@D@std@@QAEXPAPADAAPAD@Z
_TEXT	SEGMENT
$T2 = -28						; size = 4
_this$ = -24						; size = 4
tv73 = -20						; size = 4
$T3 = -16						; size = 4
__$EHRec$ = -12						; size = 12
__Ptr$ = 8						; size = 4
__V0$ = 12						; size = 4
??$construct@PADAAPAD@?$allocator@D@std@@QAEXPAPADAAPAD@Z PROC ; std::allocator<char>::construct<char *,char * &>, COMDAT
; _this$ = ecx

; 617  : _VARIADIC_EXPAND_0X(_ALLOC_MEMBER_CONSTRUCT, , , , )

	push	ebp
	mov	ebp, esp
	push	-1
	push	__ehhandler$??$construct@PADAAPAD@?$allocator@D@std@@QAEXPAPADAAPAD@Z
	mov	eax, DWORD PTR fs:0
	push	eax
	sub	esp, 16					; 00000010H
	mov	eax, DWORD PTR ___security_cookie
	xor	eax, ebp
	push	eax
	lea	eax, DWORD PTR __$EHRec$[ebp]
	mov	DWORD PTR fs:0, eax
	mov	DWORD PTR _this$[ebp], ecx
	mov	eax, DWORD PTR __Ptr$[ebp]
	push	eax
	push	4
	call	??2@YAPAXIPAX@Z				; operator new
	add	esp, 8
	mov	DWORD PTR $T3[ebp], eax
	mov	DWORD PTR __$EHRec$[ebp+8], 0
	cmp	DWORD PTR $T3[ebp], 0
	je	SHORT $LN3@construct
	mov	ecx, DWORD PTR __V0$[ebp]
	push	ecx
	call	??$forward@AAPAD@std@@YAAAPADAAPAD@Z	; std::forward<char * &>
	add	esp, 4
	mov	edx, DWORD PTR $T3[ebp]
	mov	eax, DWORD PTR [eax]
	mov	DWORD PTR [edx], eax
	mov	ecx, DWORD PTR $T3[ebp]
	mov	DWORD PTR tv73[ebp], ecx
	jmp	SHORT $LN4@construct
$LN3@construct:
	mov	DWORD PTR tv73[ebp], 0
$LN4@construct:
	mov	edx, DWORD PTR tv73[ebp]
	mov	DWORD PTR $T2[ebp], edx
	mov	DWORD PTR __$EHRec$[ebp+8], -1
	mov	ecx, DWORD PTR __$EHRec$[ebp]
	mov	DWORD PTR fs:0, ecx
	pop	ecx
	mov	esp, ebp
	pop	ebp
	ret	8
_TEXT	ENDS
;	COMDAT text$x
text$x	SEGMENT
__unwindfunclet$??$construct@PADAAPAD@?$allocator@D@std@@QAEXPAPADAAPAD@Z$0:
	mov	eax, DWORD PTR __Ptr$[ebp]
	push	eax
	mov	eax, DWORD PTR $T3[ebp]
	push	eax
	call	??3@YAXPAX0@Z				; operator delete
	add	esp, 8
	ret	0
__ehhandler$??$construct@PADAAPAD@?$allocator@D@std@@QAEXPAPADAAPAD@Z:
	mov	edx, DWORD PTR [esp+8]
	lea	eax, DWORD PTR [edx+12]
	mov	ecx, DWORD PTR [edx-20]
	xor	ecx, eax
	call	@__security_check_cookie@4
	mov	eax, OFFSET __ehfuncinfo$??$construct@PADAAPAD@?$allocator@D@std@@QAEXPAPADAAPAD@Z
	jmp	___CxxFrameHandler3
text$x	ENDS
??$construct@PADAAPAD@?$allocator@D@std@@QAEXPAPADAAPAD@Z ENDP ; std::allocator<char>::construct<char *,char * &>
; Function compile flags: /Odtp
; File c:\program files (x86)\microsoft visual studio 11.0\vc\include\xmemory0
;	COMDAT ??$destroy@PAD@?$allocator@D@std@@QAEXPAPAD@Z
_TEXT	SEGMENT
_this$ = -4						; size = 4
__Ptr$ = 8						; size = 4
??$destroy@PAD@?$allocator@D@std@@QAEXPAPAD@Z PROC	; std::allocator<char>::destroy<char *>, COMDAT
; _this$ = ecx

; 621  : 		void destroy(_Uty *_Ptr)

	push	ebp
	mov	ebp, esp
	push	ecx
	mov	DWORD PTR _this$[ebp], ecx

; 622  : 		{	// destroy object at _Ptr
; 623  : 		_Ptr->~_Uty();
; 624  : 		}

	mov	esp, ebp
	pop	ebp
	ret	4
??$destroy@PAD@?$allocator@D@std@@QAEXPAPAD@Z ENDP	; std::allocator<char>::destroy<char *>
_TEXT	ENDS
; Function compile flags: /Odtp
; File c:\program files (x86)\microsoft visual studio 11.0\vc\include\xmemory0
;	COMDAT ??$construct@PADAAPAD@?$allocator_traits@V?$allocator@D@std@@@std@@SAXAAV?$allocator@D@1@PAPADAAPAD@Z
_TEXT	SEGMENT
__Al$ = 8						; size = 4
__Ptr$ = 12						; size = 4
__V0$ = 16						; size = 4
??$construct@PADAAPAD@?$allocator_traits@V?$allocator@D@std@@@std@@SAXAAV?$allocator@D@1@PAPADAAPAD@Z PROC ; std::allocator_traits<std::allocator<char> >::construct<char *,char * &>, COMDAT

; 751  : _VARIADIC_EXPAND_0X(_ALLOC_TRAITS_SPECIAL_CONSTRUCT, , , , )

	push	ebp
	mov	ebp, esp
	mov	eax, DWORD PTR __V0$[ebp]
	push	eax
	call	??$forward@AAPAD@std@@YAAAPADAAPAD@Z	; std::forward<char * &>
	add	esp, 4
	push	eax
	mov	ecx, DWORD PTR __Ptr$[ebp]
	push	ecx
	mov	ecx, DWORD PTR __Al$[ebp]
	call	??$construct@PADAAPAD@?$allocator@D@std@@QAEXPAPADAAPAD@Z ; std::allocator<char>::construct<char *,char * &>
	pop	ebp
	ret	0
??$construct@PADAAPAD@?$allocator_traits@V?$allocator@D@std@@@std@@SAXAAV?$allocator@D@1@PAPADAAPAD@Z ENDP ; std::allocator_traits<std::allocator<char> >::construct<char *,char * &>
_TEXT	ENDS
; Function compile flags: /Odtp
; File c:\program files (x86)\microsoft visual studio 11.0\vc\include\type_traits
;	COMDAT ??$forward@AAPAD@std@@YAAAPADAAPAD@Z
_TEXT	SEGMENT
__Arg$ = 8						; size = 4
??$forward@AAPAD@std@@YAAAPADAAPAD@Z PROC		; std::forward<char * &>, COMDAT

; 1775 : 	{	// forward an lvalue

	push	ebp
	mov	ebp, esp

; 1776 : 	return (static_cast<_Ty&&>(_Arg));

	mov	eax, DWORD PTR __Arg$[ebp]

; 1777 : 	}

	pop	ebp
	ret	0
??$forward@AAPAD@std@@YAAAPADAAPAD@Z ENDP		; std::forward<char * &>
_TEXT	ENDS
; Function compile flags: /Odtp
; File c:\program files (x86)\microsoft visual studio 11.0\vc\include\xmemory0
;	COMDAT ??$destroy@PAD@?$allocator_traits@V?$allocator@D@std@@@std@@SAXAAV?$allocator@D@1@PAPAD@Z
_TEXT	SEGMENT
__Al$ = 8						; size = 4
__Ptr$ = 12						; size = 4
??$destroy@PAD@?$allocator_traits@V?$allocator@D@std@@@std@@SAXAAV?$allocator@D@1@PAPAD@Z PROC ; std::allocator_traits<std::allocator<char> >::destroy<char *>, COMDAT

; 755  : 		static void destroy(_Alloc& _Al, _Uty *_Ptr)

	push	ebp
	mov	ebp, esp

; 756  : 		{	// destroy object at _Ptr
; 757  : 		_Al.destroy(_Ptr);

	mov	eax, DWORD PTR __Ptr$[ebp]
	push	eax
	mov	ecx, DWORD PTR __Al$[ebp]
	call	??$destroy@PAD@?$allocator@D@std@@QAEXPAPAD@Z ; std::allocator<char>::destroy<char *>

; 758  : 		}

	pop	ebp
	ret	0
??$destroy@PAD@?$allocator_traits@V?$allocator@D@std@@@std@@SAXAAV?$allocator@D@1@PAPAD@Z ENDP ; std::allocator_traits<std::allocator<char> >::destroy<char *>
_TEXT	ENDS
; Function compile flags: /Odtp
; File c:\program files (x86)\microsoft visual studio 11.0\vc\include\xmemory0
;	COMDAT ??$_Allocate@D@std@@YAPADIPAD@Z
_TEXT	SEGMENT
__Ptr$ = -4						; size = 4
__Count$ = 8						; size = 4
___formal$ = 12						; size = 4
??$_Allocate@D@std@@YAPADIPAD@Z PROC			; std::_Allocate<char>, COMDAT

; 22   : 	{	// allocate storage for _Count elements of type _Ty

	push	ebp
	mov	ebp, esp
	push	ecx

; 23   : 	void *_Ptr = 0;

	mov	DWORD PTR __Ptr$[ebp], 0

; 24   : 
; 25   : 	if (_Count == 0)

	cmp	DWORD PTR __Count$[ebp], 0
	jne	SHORT $LN4@Allocate

; 26   : 		;
; 27   : 	else if (((size_t)(-1) / sizeof (_Ty) < _Count)

	jmp	SHORT $LN3@Allocate
$LN4@Allocate:

; 28   : 		|| (_Ptr = ::operator new(_Count * sizeof (_Ty))) == 0)

	cmp	DWORD PTR __Count$[ebp], -1
	ja	SHORT $LN1@Allocate
	mov	eax, DWORD PTR __Count$[ebp]
	push	eax
	call	??2@YAPAXI@Z				; operator new
	add	esp, 4
	mov	DWORD PTR __Ptr$[ebp], eax
	cmp	DWORD PTR __Ptr$[ebp], 0
	jne	SHORT $LN3@Allocate
$LN1@Allocate:

; 29   : 		_Xbad_alloc();	// report no memory

	call	?_Xbad_alloc@std@@YAXXZ			; std::_Xbad_alloc
$LN3@Allocate:

; 30   : 
; 31   : 	return ((_Ty *)_Ptr);

	mov	eax, DWORD PTR __Ptr$[ebp]
$LN6@Allocate:

; 32   : 	}

	mov	esp, ebp
	pop	ebp
	ret	0
??$_Allocate@D@std@@YAPADIPAD@Z ENDP			; std::_Allocate<char>
_TEXT	ENDS
; Function compile flags: /Odtp
; File c:\program files (x86)\microsoft visual studio 11.0\vc\include\xmemory0
;	COMDAT ??$construct@PADAAPAD@?$_Wrap_alloc@V?$allocator@D@std@@@std@@QAEXPAPADAAPAD@Z
_TEXT	SEGMENT
_this$ = -4						; size = 4
__Ptr$ = 8						; size = 4
__V0$ = 12						; size = 4
??$construct@PADAAPAD@?$_Wrap_alloc@V?$allocator@D@std@@@std@@QAEXPAPADAAPAD@Z PROC ; std::_Wrap_alloc<std::allocator<char> >::construct<char *,char * &>, COMDAT
; _this$ = ecx

; 903  : _VARIADIC_EXPAND_0X(_WRAP_ALLOC_CONSTRUCT, , , , )

	push	ebp
	mov	ebp, esp
	push	ecx
	mov	DWORD PTR _this$[ebp], ecx
	mov	eax, DWORD PTR __V0$[ebp]
	push	eax
	call	??$forward@AAPAD@std@@YAAAPADAAPAD@Z	; std::forward<char * &>
	add	esp, 4
	push	eax
	mov	ecx, DWORD PTR __Ptr$[ebp]
	push	ecx
	mov	edx, DWORD PTR _this$[ebp]
	push	edx
	call	??$construct@PADAAPAD@?$allocator_traits@V?$allocator@D@std@@@std@@SAXAAV?$allocator@D@1@PAPADAAPAD@Z ; std::allocator_traits<std::allocator<char> >::construct<char *,char * &>
	add	esp, 12					; 0000000cH
	mov	esp, ebp
	pop	ebp
	ret	8
??$construct@PADAAPAD@?$_Wrap_alloc@V?$allocator@D@std@@@std@@QAEXPAPADAAPAD@Z ENDP ; std::_Wrap_alloc<std::allocator<char> >::construct<char *,char * &>
_TEXT	ENDS
; Function compile flags: /Odtp
; File c:\program files (x86)\microsoft visual studio 11.0\vc\include\xstddef
;	COMDAT ??$addressof@D@std@@YAPADAAD@Z
_TEXT	SEGMENT
__Val$ = 8						; size = 4
??$addressof@D@std@@YAPADAAD@Z PROC			; std::addressof<char>, COMDAT

; 85   : 	{	// return address of _Val

	push	ebp
	mov	ebp, esp

; 86   : 	return (reinterpret_cast<_Ty *>(
; 87   : 		(&const_cast<char&>(
; 88   : 		reinterpret_cast<const volatile char&>(_Val)))));

	mov	eax, DWORD PTR __Val$[ebp]

; 89   : 	}

	pop	ebp
	ret	0
??$addressof@D@std@@YAPADAAD@Z ENDP			; std::addressof<char>
_TEXT	ENDS
; Function compile flags: /Odtp
; File c:\program files (x86)\microsoft visual studio 11.0\vc\include\xmemory0
;	COMDAT ??$destroy@PAD@?$_Wrap_alloc@V?$allocator@D@std@@@std@@QAEXPAPAD@Z
_TEXT	SEGMENT
_this$ = -4						; size = 4
__Ptr$ = 8						; size = 4
??$destroy@PAD@?$_Wrap_alloc@V?$allocator@D@std@@@std@@QAEXPAPAD@Z PROC ; std::_Wrap_alloc<std::allocator<char> >::destroy<char *>, COMDAT
; _this$ = ecx

; 907  : 		void destroy(_Ty *_Ptr)

	push	ebp
	mov	ebp, esp
	push	ecx
	mov	DWORD PTR _this$[ebp], ecx

; 908  : 		{	// destroy object at _Ptr
; 909  : 		_Mytraits::destroy(*this, _Ptr);

	mov	eax, DWORD PTR __Ptr$[ebp]
	push	eax
	mov	ecx, DWORD PTR _this$[ebp]
	push	ecx
	call	??$destroy@PAD@?$allocator_traits@V?$allocator@D@std@@@std@@SAXAAV?$allocator@D@1@PAPAD@Z ; std::allocator_traits<std::allocator<char> >::destroy<char *>
	add	esp, 8

; 910  : 		}

	mov	esp, ebp
	pop	ebp
	ret	4
??$destroy@PAD@?$_Wrap_alloc@V?$allocator@D@std@@@std@@QAEXPAPAD@Z ENDP ; std::_Wrap_alloc<std::allocator<char> >::destroy<char *>
_TEXT	ENDS
; Function compile flags: /Odtp
; File c:\users\zhitao li\documents\visual studio 2012\projects\freefalcon\falclib\include\f4thread.h
;	COMDAT ??1F4ScopeLock@@QAE@XZ
_TEXT	SEGMENT
_this$ = -4						; size = 4
??1F4ScopeLock@@QAE@XZ PROC				; F4ScopeLock::~F4ScopeLock, COMDAT
; _this$ = ecx

; 119  : 	~F4ScopeLock(){

	push	ebp
	mov	ebp, esp
	push	ecx
	mov	DWORD PTR _this$[ebp], ecx

; 120  : 		if (mutex != 0){

	mov	eax, DWORD PTR _this$[ebp]
	cmp	DWORD PTR [eax], 0
	je	SHORT $LN2@F4ScopeLoc

; 121  : 			F4LeaveCriticalSection(mutex);

	mov	ecx, DWORD PTR _this$[ebp]
	mov	edx, DWORD PTR [ecx]
	push	edx
	call	_F4LeaveCriticalSection
	add	esp, 4
$LN2@F4ScopeLoc:

; 122  : 		}	
; 123  : 	}

	mov	esp, ebp
	pop	ebp
	ret	0
??1F4ScopeLock@@QAE@XZ ENDP				; F4ScopeLock::~F4ScopeLock
_TEXT	ENDS
; Function compile flags: /Odtp
; File c:\users\zhitao li\documents\visual studio 2012\projects\freefalcon\falclib\include\f4thread.h
;	COMDAT ??0F4ScopeLock@@QAE@PAUF4CSECTIONHANDLE@@@Z
_TEXT	SEGMENT
_this$ = -4						; size = 4
_mutex$ = 8						; size = 4
??0F4ScopeLock@@QAE@PAUF4CSECTIONHANDLE@@@Z PROC	; F4ScopeLock::F4ScopeLock, COMDAT
; _this$ = ecx

; 113  : 	F4ScopeLock(F4CSECTIONHANDLE *mutex) : mutex(mutex){

	push	ebp
	mov	ebp, esp
	push	ecx
	mov	DWORD PTR _this$[ebp], ecx
	mov	eax, DWORD PTR _this$[ebp]
	mov	ecx, DWORD PTR _mutex$[ebp]
	mov	DWORD PTR [eax], ecx

; 114  : 		if (mutex != 0){

	cmp	DWORD PTR _mutex$[ebp], 0
	je	SHORT $LN2@F4ScopeLoc

; 115  : 			F4EnterCriticalSection(mutex);

	mov	edx, DWORD PTR _mutex$[ebp]
	push	edx
	call	_F4EnterCriticalSection
	add	esp, 4
$LN2@F4ScopeLoc:

; 116  : 		}	
; 117  : 	}

	mov	eax, DWORD PTR _this$[ebp]
	mov	esp, ebp
	pop	ebp
	ret	4
??0F4ScopeLock@@QAE@PAUF4CSECTIONHANDLE@@@Z ENDP	; F4ScopeLock::F4ScopeLock
_TEXT	ENDS
; Function compile flags: /Odtp
; File c:\users\zhitao li\documents\visual studio 2012\projects\freefalcon\falclib\include\falcsess.h
;	COMDAT ?GetGame@FalconSessionEntity@@QAEPAVFalconGameEntity@@XZ
_TEXT	SEGMENT
_this$ = -4						; size = 4
?GetGame@FalconSessionEntity@@QAEPAVFalconGameEntity@@XZ PROC ; FalconSessionEntity::GetGame, COMDAT
; _this$ = ecx

; 154  : 	FalconGameEntity* GetGame (void)              { return (FalconGameEntity*)VuSessionEntity::Game(); }

	push	ebp
	mov	ebp, esp
	push	ecx
	mov	DWORD PTR _this$[ebp], ecx
	mov	ecx, DWORD PTR _this$[ebp]
	call	?Game@VuSessionEntity@@QAEPAVVuGameEntity@@XZ ; VuSessionEntity::Game
	mov	esp, ebp
	pop	ebp
	ret	0
?GetGame@FalconSessionEntity@@QAEPAVFalconGameEntity@@XZ ENDP ; FalconSessionEntity::GetGame
_TEXT	ENDS
; Function compile flags: /Odtp
; File c:\users\zhitao li\documents\visual studio 2012\projects\freefalcon\falclib\include\invalidbufferexception.h
;	COMDAT ?memcpychk@@YAXPAXPAPAEIPAJ@Z
_TEXT	SEGMENT
$T2 = -152						; size = 12
_s$3 = -140						; size = 24
_err$4 = -116						; size = 100
__$ArrayPad$ = -16					; size = 4
__$EHRec$ = -12						; size = 12
_dst$ = 8						; size = 4
_src$ = 12						; size = 4
_size$ = 16						; size = 4
_rem$ = 20						; size = 4
?memcpychk@@YAXPAXPAPAEIPAJ@Z PROC			; memcpychk, COMDAT

; 25   : inline void memcpychk(void *dst, VU_BYTE **src, size_t size, long *rem){

	push	ebp
	mov	ebp, esp
	push	-1
	push	__ehhandler$?memcpychk@@YAXPAXPAPAEIPAJ@Z
	mov	eax, DWORD PTR fs:0
	push	eax
	sub	esp, 140				; 0000008cH
	mov	eax, DWORD PTR ___security_cookie
	xor	eax, ebp
	mov	DWORD PTR __$ArrayPad$[ebp], eax
	push	eax
	lea	eax, DWORD PTR __$EHRec$[ebp]
	mov	DWORD PTR fs:0, eax

; 26   : 	if ((size_t)*rem < size){

	mov	eax, DWORD PTR _rem$[ebp]
	mov	ecx, DWORD PTR [eax]
	cmp	ecx, DWORD PTR _size$[ebp]
	jae	SHORT $LN1@memcpychk

; 27   : 		char err[100];
; 28   : 		sprintf(err, "Trying to write %lu bytes to %ld buffer", static_cast<unsigned long>(size), *rem);

	mov	edx, DWORD PTR _rem$[ebp]
	mov	eax, DWORD PTR [edx]
	push	eax
	mov	ecx, DWORD PTR _size$[ebp]
	push	ecx
	push	OFFSET ??_C@_0CI@MPKJAHJH@Trying?5to?5write?5?$CFlu?5bytes?5to?5?$CFld@
	lea	edx, DWORD PTR _err$4[ebp]
	push	edx
	call	_sprintf
	add	esp, 16					; 00000010H

; 29   : 		std::string s(err);

	lea	eax, DWORD PTR _err$4[ebp]
	push	eax
	lea	ecx, DWORD PTR _s$3[ebp]
	call	??0?$basic_string@DU?$char_traits@D@std@@V?$allocator@D@2@@std@@QAE@PBD@Z ; std::basic_string<char,std::char_traits<char>,std::allocator<char> >::basic_string<char,std::char_traits<char>,std::allocator<char> >
	mov	DWORD PTR __$EHRec$[ebp+8], 0

; 30   : 		throw InvalidBufferException(s);

	lea	ecx, DWORD PTR _s$3[ebp]
	push	ecx
	lea	ecx, DWORD PTR $T2[ebp]
	call	??0InvalidBufferException@@QAE@ABV?$basic_string@DU?$char_traits@D@std@@V?$allocator@D@2@@std@@@Z ; InvalidBufferException::InvalidBufferException
	push	OFFSET __TI4?AVInvalidBufferException@@
	lea	edx, DWORD PTR $T2[ebp]
	push	edx
	call	__CxxThrowException@8

; 31   : 	}

	mov	DWORD PTR __$EHRec$[ebp+8], -1
	lea	ecx, DWORD PTR _s$3[ebp]
	call	??1?$basic_string@DU?$char_traits@D@std@@V?$allocator@D@2@@std@@QAE@XZ ; std::basic_string<char,std::char_traits<char>,std::allocator<char> >::~basic_string<char,std::char_traits<char>,std::allocator<char> >
$LN1@memcpychk:

; 32   : 	memcpy(dst, *src, size);

	mov	eax, DWORD PTR _size$[ebp]
	push	eax
	mov	ecx, DWORD PTR _src$[ebp]
	mov	edx, DWORD PTR [ecx]
	push	edx
	mov	eax, DWORD PTR _dst$[ebp]
	push	eax
	call	_memcpy
	add	esp, 12					; 0000000cH

; 33   : 	*rem -= size;

	mov	ecx, DWORD PTR _rem$[ebp]
	mov	edx, DWORD PTR [ecx]
	sub	edx, DWORD PTR _size$[ebp]
	mov	eax, DWORD PTR _rem$[ebp]
	mov	DWORD PTR [eax], edx

; 34   : 	*src += size;

	mov	ecx, DWORD PTR _src$[ebp]
	mov	edx, DWORD PTR [ecx]
	add	edx, DWORD PTR _size$[ebp]
	mov	eax, DWORD PTR _src$[ebp]
	mov	DWORD PTR [eax], edx
$LN3@memcpychk:

; 35   : }

	mov	ecx, DWORD PTR __$EHRec$[ebp]
	mov	DWORD PTR fs:0, ecx
	pop	ecx
	mov	ecx, DWORD PTR __$ArrayPad$[ebp]
	xor	ecx, ebp
	call	@__security_check_cookie@4
	mov	esp, ebp
	pop	ebp
	ret	0
_TEXT	ENDS
;	COMDAT text$x
text$x	SEGMENT
__unwindfunclet$?memcpychk@@YAXPAXPAPAEIPAJ@Z$0:
	lea	ecx, DWORD PTR _s$3[ebp]
	jmp	??1?$basic_string@DU?$char_traits@D@std@@V?$allocator@D@2@@std@@QAE@XZ ; std::basic_string<char,std::char_traits<char>,std::allocator<char> >::~basic_string<char,std::char_traits<char>,std::allocator<char> >
__ehhandler$?memcpychk@@YAXPAXPAPAEIPAJ@Z:
	mov	edx, DWORD PTR [esp+8]
	lea	eax, DWORD PTR [edx+12]
	mov	ecx, DWORD PTR [edx-144]
	xor	ecx, eax
	call	@__security_check_cookie@4
	mov	ecx, DWORD PTR [edx-4]
	xor	ecx, eax
	call	@__security_check_cookie@4
	mov	eax, OFFSET __ehfuncinfo$?memcpychk@@YAXPAXPAPAEIPAJ@Z
	jmp	___CxxFrameHandler3
text$x	ENDS
?memcpychk@@YAXPAXPAPAEIPAJ@Z ENDP			; memcpychk
; Function compile flags: /Odtp
;	COMDAT ??_GInvalidBufferException@@UAEPAXI@Z
_TEXT	SEGMENT
_this$ = -4						; size = 4
___flags$ = 8						; size = 4
??_GInvalidBufferException@@UAEPAXI@Z PROC		; InvalidBufferException::`scalar deleting destructor', COMDAT
; _this$ = ecx
	push	ebp
	mov	ebp, esp
	push	ecx
	mov	DWORD PTR _this$[ebp], ecx
	mov	ecx, DWORD PTR _this$[ebp]
	call	??1InvalidBufferException@@UAE@XZ
	mov	eax, DWORD PTR ___flags$[ebp]
	and	eax, 1
	je	SHORT $LN1@scalar
	mov	ecx, DWORD PTR _this$[ebp]
	push	ecx
	call	??3@YAXPAX@Z				; operator delete
	add	esp, 4
$LN1@scalar:
	mov	eax, DWORD PTR _this$[ebp]
	mov	esp, ebp
	pop	ebp
	ret	4
??_GInvalidBufferException@@UAEPAXI@Z ENDP		; InvalidBufferException::`scalar deleting destructor'
_TEXT	ENDS
; Function compile flags: /Odtp
;	COMDAT ??0InvalidBufferException@@QAE@ABV0@@Z
_TEXT	SEGMENT
_this$ = -4						; size = 4
___that$ = 8						; size = 4
??0InvalidBufferException@@QAE@ABV0@@Z PROC		; InvalidBufferException::InvalidBufferException, COMDAT
; _this$ = ecx
	push	ebp
	mov	ebp, esp
	push	ecx
	mov	DWORD PTR _this$[ebp], ecx
	mov	eax, DWORD PTR ___that$[ebp]
	push	eax
	mov	ecx, DWORD PTR _this$[ebp]
	call	??0out_of_range@std@@QAE@ABV01@@Z
	mov	ecx, DWORD PTR _this$[ebp]
	mov	DWORD PTR [ecx], OFFSET ??_7InvalidBufferException@@6B@
	mov	eax, DWORD PTR _this$[ebp]
	mov	esp, ebp
	pop	ebp
	ret	4
??0InvalidBufferException@@QAE@ABV0@@Z ENDP		; InvalidBufferException::InvalidBufferException
_TEXT	ENDS
; Function compile flags: /Odtp
;	COMDAT ??1InvalidBufferException@@UAE@XZ
_TEXT	SEGMENT
_this$ = -4						; size = 4
??1InvalidBufferException@@UAE@XZ PROC			; InvalidBufferException::~InvalidBufferException, COMDAT
; _this$ = ecx
	push	ebp
	mov	ebp, esp
	push	ecx
	mov	DWORD PTR _this$[ebp], ecx
	mov	ecx, DWORD PTR _this$[ebp]
	call	??1out_of_range@std@@UAE@XZ
	mov	esp, ebp
	pop	ebp
	ret	0
??1InvalidBufferException@@UAE@XZ ENDP			; InvalidBufferException::~InvalidBufferException
_TEXT	ENDS
; Function compile flags: /Odtp
; File c:\users\zhitao li\documents\visual studio 2012\projects\freefalcon\falclib\include\invalidbufferexception.h
;	COMDAT ??0InvalidBufferException@@QAE@ABV?$basic_string@DU?$char_traits@D@std@@V?$allocator@D@2@@std@@@Z
_TEXT	SEGMENT
_this$ = -4						; size = 4
_msg$ = 8						; size = 4
??0InvalidBufferException@@QAE@ABV?$basic_string@DU?$char_traits@D@std@@V?$allocator@D@2@@std@@@Z PROC ; InvalidBufferException::InvalidBufferException, COMDAT
; _this$ = ecx

; 19   : 	InvalidBufferException(const std::string &msg) : out_of_range(msg){}

	push	ebp
	mov	ebp, esp
	push	ecx
	mov	DWORD PTR _this$[ebp], ecx
	mov	eax, DWORD PTR _msg$[ebp]
	push	eax
	mov	ecx, DWORD PTR _this$[ebp]
	call	??0out_of_range@std@@QAE@ABV?$basic_string@DU?$char_traits@D@std@@V?$allocator@D@2@@1@@Z ; std::out_of_range::out_of_range
	mov	ecx, DWORD PTR _this$[ebp]
	mov	DWORD PTR [ecx], OFFSET ??_7InvalidBufferException@@6B@
	mov	eax, DWORD PTR _this$[ebp]
	mov	esp, ebp
	pop	ebp
	ret	4
??0InvalidBufferException@@QAE@ABV?$basic_string@DU?$char_traits@D@std@@V?$allocator@D@2@@std@@@Z ENDP ; InvalidBufferException::InvalidBufferException
_TEXT	ENDS
; Function compile flags: /Odtp
;	COMDAT ??_GSpotEntity@@UAEPAXI@Z
_TEXT	SEGMENT
_this$ = -4						; size = 4
___flags$ = 8						; size = 4
??_GSpotEntity@@UAEPAXI@Z PROC				; SpotEntity::`scalar deleting destructor', COMDAT
; _this$ = ecx
	push	ebp
	mov	ebp, esp
	push	ecx
	mov	DWORD PTR _this$[ebp], ecx
	mov	ecx, DWORD PTR _this$[ebp]
	call	??1SpotEntity@@UAE@XZ
	mov	eax, DWORD PTR ___flags$[ebp]
	and	eax, 1
	je	SHORT $LN1@scalar
	mov	ecx, DWORD PTR _this$[ebp]
	push	ecx
	call	??3@YAXPAX@Z				; operator delete
	add	esp, 4
$LN1@scalar:
	mov	eax, DWORD PTR _this$[ebp]
	mov	esp, ebp
	pop	ebp
	ret	4
??_GSpotEntity@@UAEPAXI@Z ENDP				; SpotEntity::`scalar deleting destructor'
_TEXT	ENDS
; Function compile flags: /Odtp
;	COMDAT ??1SpotEntity@@UAE@XZ
_TEXT	SEGMENT
_this$ = -4						; size = 4
??1SpotEntity@@UAE@XZ PROC				; SpotEntity::~SpotEntity, COMDAT
; _this$ = ecx
	push	ebp
	mov	ebp, esp
	push	ecx
	mov	DWORD PTR _this$[ebp], ecx
	mov	ecx, DWORD PTR _this$[ebp]
	call	??1FalconEntity@@UAE@XZ			; FalconEntity::~FalconEntity
	mov	esp, ebp
	pop	ebp
	ret	0
??1SpotEntity@@UAE@XZ ENDP				; SpotEntity::~SpotEntity
_TEXT	ENDS
; Function compile flags: /Odtp
; File c:\users\zhitao li\documents\visual studio 2012\projects\freefalcon\falclib\include\falcent.h
;	COMDAT ?GetCountry@SpotEntity@@UAEEXZ
_TEXT	SEGMENT
_this$ = -4						; size = 4
?GetCountry@SpotEntity@@UAEEXZ PROC			; SpotEntity::GetCountry, COMDAT
; _this$ = ecx

; 224  : 	uchar GetCountry(){ return 0; }

	push	ebp
	mov	ebp, esp
	push	ecx
	mov	DWORD PTR _this$[ebp], ecx
	xor	al, al
	mov	esp, ebp
	pop	ebp
	ret	0
?GetCountry@SpotEntity@@UAEEXZ ENDP			; SpotEntity::GetCountry
_TEXT	ENDS
; Function compile flags: /Odtp
; File c:\users\zhitao li\documents\visual studio 2012\projects\freefalcon\falclib\include\falcent.h
;	COMDAT ?GetTeam@SpotEntity@@UAEEXZ
_TEXT	SEGMENT
_this$ = -4						; size = 4
?GetTeam@SpotEntity@@UAEEXZ PROC			; SpotEntity::GetTeam, COMDAT
; _this$ = ecx

; 223  : 	uchar GetTeam()   { return 0; }

	push	ebp
	mov	ebp, esp
	push	ecx
	mov	DWORD PTR _this$[ebp], ecx
	xor	al, al
	mov	esp, ebp
	pop	ebp
	ret	0
?GetTeam@SpotEntity@@UAEEXZ ENDP			; SpotEntity::GetTeam
_TEXT	ENDS
; Function compile flags: /Odtp
; File c:\users\zhitao li\documents\visual studio 2012\projects\freefalcon\falclib\include\falcent.h
;	COMDAT ?GetCampID@SpotEntity@@UAEFXZ
_TEXT	SEGMENT
_this$ = -4						; size = 4
?GetCampID@SpotEntity@@UAEFXZ PROC			; SpotEntity::GetCampID, COMDAT
; _this$ = ecx

; 222  : 	short GetCampID() { return 0; }

	push	ebp
	mov	ebp, esp
	push	ecx
	mov	DWORD PTR _this$[ebp], ecx
	xor	eax, eax
	mov	esp, ebp
	pop	ebp
	ret	0
?GetCampID@SpotEntity@@UAEFXZ ENDP			; SpotEntity::GetCampID
_TEXT	ENDS
; Function compile flags: /Odtp
; File c:\users\zhitao li\documents\visual studio 2012\projects\freefalcon\falclib\include\falcent.h
;	COMDAT ?Wake@SpotEntity@@UAEHXZ
_TEXT	SEGMENT
_this$ = -4						; size = 4
?Wake@SpotEntity@@UAEHXZ PROC				; SpotEntity::Wake, COMDAT
; _this$ = ecx

; 221  : 	virtual int Wake ()       { return 0; }

	push	ebp
	mov	ebp, esp
	push	ecx
	mov	DWORD PTR _this$[ebp], ecx
	xor	eax, eax
	mov	esp, ebp
	pop	ebp
	ret	0
?Wake@SpotEntity@@UAEHXZ ENDP				; SpotEntity::Wake
_TEXT	ENDS
; Function compile flags: /Odtp
; File c:\users\zhitao li\documents\visual studio 2012\projects\freefalcon\falclib\include\falcent.h
;	COMDAT ?Sleep@SpotEntity@@UAEHXZ
_TEXT	SEGMENT
_this$ = -4						; size = 4
?Sleep@SpotEntity@@UAEHXZ PROC				; SpotEntity::Sleep, COMDAT
; _this$ = ecx

; 220  : 	virtual int Sleep ()      { return 0; }

	push	ebp
	mov	ebp, esp
	push	ecx
	mov	DWORD PTR _this$[ebp], ecx
	xor	eax, eax
	mov	esp, ebp
	pop	ebp
	ret	0
?Sleep@SpotEntity@@UAEHXZ ENDP				; SpotEntity::Sleep
_TEXT	ENDS
; Function compile flags: /Odtp
; File c:\users\zhitao li\documents\visual studio 2012\projects\freefalcon\falclib\include\falcent.h
;	COMDAT ?GetKias@SpotEntity@@UBEMXZ
_TEXT	SEGMENT
_this$ = -4						; size = 4
?GetKias@SpotEntity@@UBEMXZ PROC			; SpotEntity::GetKias, COMDAT
; _this$ = ecx

; 219  : 	virtual float GetKias() const { return 0; }

	push	ebp
	mov	ebp, esp
	push	ecx
	mov	DWORD PTR _this$[ebp], ecx
	fldz
	mov	esp, ebp
	pop	ebp
	ret	0
?GetKias@SpotEntity@@UBEMXZ ENDP			; SpotEntity::GetKias
_TEXT	ENDS
; Function compile flags: /Odtp
; File c:\users\zhitao li\documents\visual studio 2012\projects\freefalcon\falclib\include\falcent.h
;	COMDAT ?GetVt@SpotEntity@@UBEMXZ
_TEXT	SEGMENT
_this$ = -4						; size = 4
?GetVt@SpotEntity@@UBEMXZ PROC				; SpotEntity::GetVt, COMDAT
; _this$ = ecx

; 218  : 	virtual float GetVt() const { return 0; }

	push	ebp
	mov	ebp, esp
	push	ecx
	mov	DWORD PTR _this$[ebp], ecx
	fldz
	mov	esp, ebp
	pop	ebp
	ret	0
?GetVt@SpotEntity@@UBEMXZ ENDP				; SpotEntity::GetVt
_TEXT	ENDS
; Function compile flags: /Odtp
; File c:\users\zhitao li\documents\visual studio 2012\projects\freefalcon\falclib\falcent.cpp
_TEXT	SEGMENT
_this$ = -16						; size = 4
__$EHRec$ = -12						; size = 12
_data$ = 8						; size = 4
_rem$ = 12						; size = 4
??0SpotEntity@@QAE@PAPAEPAJ@Z PROC			; SpotEntity::SpotEntity
; _this$ = ecx

; 528  : SpotEntity::SpotEntity (VU_BYTE ** data, long *rem) : FalconEntity(data, rem){

	push	ebp
	mov	ebp, esp
	push	-1
	push	__ehhandler$??0SpotEntity@@QAE@PAPAEPAJ@Z
	mov	eax, DWORD PTR fs:0
	push	eax
	push	ecx
	mov	eax, DWORD PTR ___security_cookie
	xor	eax, ebp
	push	eax
	lea	eax, DWORD PTR __$EHRec$[ebp]
	mov	DWORD PTR fs:0, eax
	mov	DWORD PTR _this$[ebp], ecx
	mov	eax, DWORD PTR _rem$[ebp]
	push	eax
	mov	ecx, DWORD PTR _data$[ebp]
	push	ecx
	mov	ecx, DWORD PTR _this$[ebp]
	call	??0FalconEntity@@QAE@PAPAEPAJ@Z		; FalconEntity::FalconEntity
	mov	DWORD PTR __$EHRec$[ebp+8], 0
	mov	edx, DWORD PTR _this$[ebp]
	mov	DWORD PTR [edx], OFFSET ??_7SpotEntity@@6B@

; 529  : 	SetYPRDelta(0,0,0);

	push	ecx
	movss	xmm0, DWORD PTR __real@00000000
	movss	DWORD PTR [esp], xmm0
	push	ecx
	movss	xmm0, DWORD PTR __real@00000000
	movss	DWORD PTR [esp], xmm0
	push	ecx
	movss	xmm0, DWORD PTR __real@00000000
	movss	DWORD PTR [esp], xmm0
	mov	ecx, DWORD PTR _this$[ebp]
	call	?SetYPRDelta@VuEntity@@QAEXMMM@Z	; VuEntity::SetYPRDelta

; 530  : }

	mov	DWORD PTR __$EHRec$[ebp+8], -1
	mov	eax, DWORD PTR _this$[ebp]
	mov	ecx, DWORD PTR __$EHRec$[ebp]
	mov	DWORD PTR fs:0, ecx
	pop	ecx
	mov	esp, ebp
	pop	ebp
	ret	8
_TEXT	ENDS
text$x	SEGMENT
__unwindfunclet$??0SpotEntity@@QAE@PAPAEPAJ@Z$0:
	mov	ecx, DWORD PTR _this$[ebp]
	jmp	??1FalconEntity@@UAE@XZ			; FalconEntity::~FalconEntity
__ehhandler$??0SpotEntity@@QAE@PAPAEPAJ@Z:
	mov	edx, DWORD PTR [esp+8]
	lea	eax, DWORD PTR [edx+12]
	mov	ecx, DWORD PTR [edx-8]
	xor	ecx, eax
	call	@__security_check_cookie@4
	mov	eax, OFFSET __ehfuncinfo$??0SpotEntity@@QAE@PAPAEPAJ@Z
	jmp	___CxxFrameHandler3
text$x	ENDS
??0SpotEntity@@QAE@PAPAEPAJ@Z ENDP			; SpotEntity::SpotEntity
; Function compile flags: /Odtp
; File c:\users\zhitao li\documents\visual studio 2012\projects\freefalcon\falclib\falcent.cpp
_TEXT	SEGMENT
_this$ = -16						; size = 4
__$EHRec$ = -12						; size = 12
_type$ = 8						; size = 2
??0SpotEntity@@QAE@G@Z PROC				; SpotEntity::SpotEntity
; _this$ = ecx

; 522  : SpotEntity::SpotEntity (ushort type) : FalconEntity(type, GetIdFromNamespace(VolatileNS)){

	push	ebp
	mov	ebp, esp
	push	-1
	push	__ehhandler$??0SpotEntity@@QAE@G@Z
	mov	eax, DWORD PTR fs:0
	push	eax
	push	ecx
	mov	eax, DWORD PTR ___security_cookie
	xor	eax, ebp
	push	eax
	lea	eax, DWORD PTR __$EHRec$[ebp]
	mov	DWORD PTR fs:0, eax
	mov	DWORD PTR _this$[ebp], ecx
	push	OFFSET ?VolatileNS@@3VIdNamespace@@A	; VolatileNS
	call	?GetIdFromNamespace@@YAKAAVIdNamespace@@@Z ; GetIdFromNamespace
	add	esp, 4
	push	eax
	movzx	eax, WORD PTR _type$[ebp]
	push	eax
	mov	ecx, DWORD PTR _this$[ebp]
	call	??0FalconEntity@@QAE@GK@Z		; FalconEntity::FalconEntity
	mov	DWORD PTR __$EHRec$[ebp+8], 0
	mov	ecx, DWORD PTR _this$[ebp]
	mov	DWORD PTR [ecx], OFFSET ??_7SpotEntity@@6B@

; 523  : 	// spotentities are sent oob
; 524  : 	SetSendCreate(VuEntity::VU_SC_SEND_OOB);

	push	2
	mov	ecx, DWORD PTR _this$[ebp]
	call	?SetSendCreate@VuEntity@@QAEXW4VU_SEND_TYPE@1@@Z ; VuEntity::SetSendCreate

; 525  : 	SetYPRDelta(0,0, 0);

	push	ecx
	movss	xmm0, DWORD PTR __real@00000000
	movss	DWORD PTR [esp], xmm0
	push	ecx
	movss	xmm0, DWORD PTR __real@00000000
	movss	DWORD PTR [esp], xmm0
	push	ecx
	movss	xmm0, DWORD PTR __real@00000000
	movss	DWORD PTR [esp], xmm0
	mov	ecx, DWORD PTR _this$[ebp]
	call	?SetYPRDelta@VuEntity@@QAEXMMM@Z	; VuEntity::SetYPRDelta

; 526  : }

	mov	DWORD PTR __$EHRec$[ebp+8], -1
	mov	eax, DWORD PTR _this$[ebp]
	mov	ecx, DWORD PTR __$EHRec$[ebp]
	mov	DWORD PTR fs:0, ecx
	pop	ecx
	mov	esp, ebp
	pop	ebp
	ret	4
_TEXT	ENDS
text$x	SEGMENT
__unwindfunclet$??0SpotEntity@@QAE@G@Z$0:
	mov	ecx, DWORD PTR _this$[ebp]
	jmp	??1FalconEntity@@UAE@XZ			; FalconEntity::~FalconEntity
__ehhandler$??0SpotEntity@@QAE@G@Z:
	mov	edx, DWORD PTR [esp+8]
	lea	eax, DWORD PTR [edx+12]
	mov	ecx, DWORD PTR [edx-8]
	xor	ecx, eax
	call	@__security_check_cookie@4
	mov	eax, OFFSET __ehfuncinfo$??0SpotEntity@@QAE@G@Z
	jmp	___CxxFrameHandler3
text$x	ENDS
??0SpotEntity@@QAE@G@Z ENDP				; SpotEntity::SpotEntity
; Function compile flags: /Odtp
;	COMDAT ??_GFalconEntity@@UAEPAXI@Z
_TEXT	SEGMENT
_this$ = -4						; size = 4
___flags$ = 8						; size = 4
??_GFalconEntity@@UAEPAXI@Z PROC			; FalconEntity::`scalar deleting destructor', COMDAT
; _this$ = ecx
	push	ebp
	mov	ebp, esp
	push	ecx
	mov	DWORD PTR _this$[ebp], ecx
	mov	ecx, DWORD PTR _this$[ebp]
	call	??1FalconEntity@@UAE@XZ			; FalconEntity::~FalconEntity
	mov	eax, DWORD PTR ___flags$[ebp]
	and	eax, 1
	je	SHORT $LN1@scalar
	mov	ecx, DWORD PTR _this$[ebp]
	push	ecx
	call	??3@YAXPAX@Z				; operator delete
	add	esp, 4
$LN1@scalar:
	mov	eax, DWORD PTR _this$[ebp]
	mov	esp, ebp
	pop	ebp
	ret	4
??_GFalconEntity@@UAEPAXI@Z ENDP			; FalconEntity::`scalar deleting destructor'
_TEXT	ENDS
; Function compile flags: /Odtp
; File c:\users\zhitao li\documents\visual studio 2012\projects\freefalcon\falclib\include\falcent.h
;	COMDAT ?GetSEARCHtimer@FalconEntity@@UAEKXZ
_TEXT	SEGMENT
_this$ = -4						; size = 4
?GetSEARCHtimer@FalconEntity@@UAEKXZ PROC		; FalconEntity::GetSEARCHtimer, COMDAT
; _this$ = ecx

; 198  : 	virtual VU_TIME GetSEARCHtimer(void)				{ return 0; };

	push	ebp
	mov	ebp, esp
	push	ecx
	mov	DWORD PTR _this$[ebp], ecx
	xor	eax, eax
	mov	esp, ebp
	pop	ebp
	ret	0
?GetSEARCHtimer@FalconEntity@@UAEKXZ ENDP		; FalconEntity::GetSEARCHtimer
_TEXT	ENDS
; Function compile flags: /Odtp
; File c:\users\zhitao li\documents\visual studio 2012\projects\freefalcon\falclib\include\falcent.h
;	COMDAT ?GetAQUIREtimer@FalconEntity@@UAEKXZ
_TEXT	SEGMENT
_this$ = -4						; size = 4
?GetAQUIREtimer@FalconEntity@@UAEKXZ PROC		; FalconEntity::GetAQUIREtimer, COMDAT
; _this$ = ecx

; 197  : 	virtual VU_TIME GetAQUIREtimer(void)				{ return 0; };

	push	ebp
	mov	ebp, esp
	push	ecx
	mov	DWORD PTR _this$[ebp], ecx
	xor	eax, eax
	mov	esp, ebp
	pop	ebp
	ret	0
?GetAQUIREtimer@FalconEntity@@UAEKXZ ENDP		; FalconEntity::GetAQUIREtimer
_TEXT	ENDS
; Function compile flags: /Odtp
; File c:\users\zhitao li\documents\visual studio 2012\projects\freefalcon\falclib\include\falcent.h
;	COMDAT ?SetStepSearchMode@FalconEntity@@UAEXE@Z
_TEXT	SEGMENT
_this$ = -4						; size = 4
___formal$ = 8						; size = 1
?SetStepSearchMode@FalconEntity@@UAEXE@Z PROC		; FalconEntity::SetStepSearchMode, COMDAT
; _this$ = ecx

; 196  : 	virtual void SetStepSearchMode(uchar)					{ };

	push	ebp
	mov	ebp, esp
	push	ecx
	mov	DWORD PTR _this$[ebp], ecx
	mov	esp, ebp
	pop	ebp
	ret	4
?SetStepSearchMode@FalconEntity@@UAEXE@Z ENDP		; FalconEntity::SetStepSearchMode
_TEXT	ENDS
; Function compile flags: /Odtp
; File c:\users\zhitao li\documents\visual studio 2012\projects\freefalcon\falclib\include\falcent.h
;	COMDAT ?SetSEARCHtimer@FalconEntity@@UAEXK@Z
_TEXT	SEGMENT
_this$ = -4						; size = 4
_newTime$ = 8						; size = 4
?SetSEARCHtimer@FalconEntity@@UAEXK@Z PROC		; FalconEntity::SetSEARCHtimer, COMDAT
; _this$ = ecx

; 194  : 	virtual void SetSEARCHtimer(VU_TIME newTime)		{ };

	push	ebp
	mov	ebp, esp
	push	ecx
	mov	DWORD PTR _this$[ebp], ecx
	mov	esp, ebp
	pop	ebp
	ret	4
?SetSEARCHtimer@FalconEntity@@UAEXK@Z ENDP		; FalconEntity::SetSEARCHtimer
_TEXT	ENDS
; Function compile flags: /Odtp
; File c:\users\zhitao li\documents\visual studio 2012\projects\freefalcon\falclib\include\falcent.h
;	COMDAT ?SetAQUIREtimer@FalconEntity@@UAEXK@Z
_TEXT	SEGMENT
_this$ = -4						; size = 4
_newTime$ = 8						; size = 4
?SetAQUIREtimer@FalconEntity@@UAEXK@Z PROC		; FalconEntity::SetAQUIREtimer, COMDAT
; _this$ = ecx

; 193  : 	virtual void SetAQUIREtimer(VU_TIME newTime)		{ };

	push	ebp
	mov	ebp, esp
	push	ecx
	mov	DWORD PTR _this$[ebp], ecx
	mov	esp, ebp
	pop	ebp
	ret	4
?SetAQUIREtimer@FalconEntity@@UAEXK@Z ENDP		; FalconEntity::SetAQUIREtimer
_TEXT	ENDS
; Function compile flags: /Odtp
; File c:\users\zhitao li\documents\visual studio 2012\projects\freefalcon\falclib\falcent.cpp
_TEXT	SEGMENT
_this$ = -4						; size = 4
_bits$ = 8						; size = 4
_score$ = 12						; size = 4
?MakeFalconEntityDirty@FalconEntity@@QAEXW4Dirty_Falcon_Entity@@W4Dirtyness@@@Z PROC ; FalconEntity::MakeFalconEntityDirty
; _this$ = ecx

; 501  : void FalconEntity::MakeFalconEntityDirty (Dirty_Falcon_Entity bits, Dirtyness score) {

	push	ebp
	mov	ebp, esp
	push	ecx
	mov	DWORD PTR _this$[ebp], ecx

; 502  : 	if ((!IsLocal()) || (VuState() != VU_MEM_ACTIVE)){

	mov	ecx, DWORD PTR _this$[ebp]
	call	?IsLocal@VuEntity@@QBEEXZ		; VuEntity::IsLocal
	movzx	eax, al
	test	eax, eax
	je	SHORT $LN1@MakeFalcon
	mov	ecx, DWORD PTR _this$[ebp]
	call	?VuState@VuEntity@@QBE?AW4VU_MEM@@XZ	; VuEntity::VuState
	cmp	eax, 3
	je	SHORT $LN2@MakeFalcon
$LN1@MakeFalcon:

; 503  : 		return;

	jmp	SHORT $LN3@MakeFalcon
$LN2@MakeFalcon:

; 504  : 	}
; 505  : 
; 506  : 	dirty_falcent |= bits;

	mov	ecx, DWORD PTR _this$[ebp]
	mov	edx, DWORD PTR [ecx+124]
	or	edx, DWORD PTR _bits$[ebp]
	mov	eax, DWORD PTR _this$[ebp]
	mov	DWORD PTR [eax+124], edx

; 507  : 
; 508  : 	MakeDirty (DIRTY_FALCON_ENTITY, score);

	mov	ecx, DWORD PTR _score$[ebp]
	push	ecx
	push	1
	mov	ecx, DWORD PTR _this$[ebp]
	call	?MakeDirty@FalconEntity@@QAEXW4Dirty_Class@@W4Dirtyness@@@Z ; FalconEntity::MakeDirty
$LN3@MakeFalcon:

; 509  : }

	mov	esp, ebp
	pop	ebp
	ret	8
?MakeFalconEntityDirty@FalconEntity@@QAEXW4Dirty_Falcon_Entity@@W4Dirtyness@@@Z ENDP ; FalconEntity::MakeFalconEntityDirty
_TEXT	ENDS
; Function compile flags: /Odtp
; File c:\users\zhitao li\documents\visual studio 2012\projects\freefalcon\falclib\falcent.cpp
_TEXT	SEGMENT
_this$ = -4						; size = 4
?MakeFlagsDirty@FalconEntity@@QAEXXZ PROC		; FalconEntity::MakeFlagsDirty
; _this$ = ecx

; 496  : void FalconEntity::MakeFlagsDirty (void) {

	push	ebp
	mov	ebp, esp
	push	ecx
	mov	DWORD PTR _this$[ebp], ecx

; 497  : 	//MakeFalconEntityDirty (DIRTY_FALCON_FLAGS, DDP[148].priority);
; 498  : 	MakeFalconEntityDirty (DIRTY_FALCON_FLAGS, SEND_RELIABLEANDOOB);

	push	268435456				; 10000000H
	push	1
	mov	ecx, DWORD PTR _this$[ebp]
	call	?MakeFalconEntityDirty@FalconEntity@@QAEXW4Dirty_Falcon_Entity@@W4Dirtyness@@@Z ; FalconEntity::MakeFalconEntityDirty

; 499  : }

	mov	esp, ebp
	pop	ebp
	ret	0
?MakeFlagsDirty@FalconEntity@@QAEXXZ ENDP		; FalconEntity::MakeFlagsDirty
_TEXT	ENDS
; Function compile flags: /Odtp
; File c:\users\zhitao li\documents\visual studio 2012\projects\freefalcon\falclib\falcent.cpp
_TEXT	SEGMENT
$T2 = -1104						; size = 8
$T3 = -1096						; size = 4
_bufptr$ = -1092					; size = 4
_lock$4 = -1088						; size = 4
$T5 = -1084						; size = 4
tv164 = -1080						; size = 4
tv153 = -1076						; size = 4
tv182 = -1072						; size = 4
$T6 = -1068						; size = 4
_bufSize$7 = -1064					; size = 4
_toSend$ = -1060					; size = 4
_campDirtyMsg$8 = -1056					; size = 4
_current$9 = -1052					; size = 4
_bucket$10 = -1048					; size = 4
_sent$11 = -1041					; size = 1
_buffer$ = -1040					; size = 1024
__$ArrayPad$ = -16					; size = 4
__$EHRec$ = -12						; size = 12
_realTime$ = 8						; size = 4
?DoCampaignDirtyData@FalconEntity@@SAXK@Z PROC		; FalconEntity::DoCampaignDirtyData

; 361  : void FalconEntity::DoCampaignDirtyData(VU_TIME realTime) {

	push	ebp
	mov	ebp, esp
	push	-1
	push	__ehhandler$?DoCampaignDirtyData@FalconEntity@@SAXK@Z
	mov	eax, DWORD PTR fs:0
	push	eax
	sub	esp, 1092				; 00000444H
	mov	eax, DWORD PTR ___security_cookie
	xor	eax, ebp
	mov	DWORD PTR __$ArrayPad$[ebp], eax
	push	eax
	lea	eax, DWORD PTR __$EHRec$[ebp]
	mov	DWORD PTR fs:0, eax

; 362  : 	static VU_TIME lastSent = 0;
; 363  : 	if (!(TheCampaign.Flags & CAMP_LOADED) || ((realTime - lastSent) < SIMDIRTYDATA_INTERVAL)){

	mov	eax, DWORD PTR ?TheCampaign@@3VCampaignClass@@A+64
	and	eax, 2
	je	SHORT $LN10@DoCampaign
	mov	ecx, DWORD PTR _realTime$[ebp]
	sub	ecx, DWORD PTR ?lastSent@?1??DoCampaignDirtyData@FalconEntity@@SAXK@Z@4KA
	cmp	ecx, 200				; 000000c8H
	jae	SHORT $LN11@DoCampaign
$LN10@DoCampaign:

; 364  : 		return;

	jmp	$LN12@DoCampaign
$LN11@DoCampaign:

; 365  : 	}
; 366  : 	lastSent = realTime;

	mov	edx, DWORD PTR _realTime$[ebp]
	mov	DWORD PTR ?lastSent@?1??DoCampaignDirtyData@FalconEntity@@SAXK@Z@4KA, edx

; 367  : 
; 368  : 	//a buffer for encoding decoding stuff, usually small, but theres a big one > 512
; 369  : 	unsigned char buffer[1024];
; 370  : 	//pointers to the buffer above
; 371  : 	unsigned char *bufptr;
; 372  : 
; 373  : 	// max number of sends to do on this run
; 374  : 	int toSend = 16;

	mov	DWORD PTR _toSend$[ebp], 16		; 00000010H

; 375  : 
; 376  : 	// run all buckets
; 377  : 	for (int bucket = MAX_DIRTY_BUCKETS - 1; (bucket >= 0); --bucket){

	mov	DWORD PTR _bucket$10[ebp], 8
	jmp	SHORT $LN9@DoCampaign
$LN8@DoCampaign:
	mov	eax, DWORD PTR _bucket$10[ebp]
	sub	eax, 1
	mov	DWORD PTR _bucket$10[ebp], eax
$LN9@DoCampaign:
	cmp	DWORD PTR _bucket$10[ebp], 0
	jl	$LN12@DoCampaign

; 378  : 		// send at least one from each bucket
; 379  : 		bool sent = false;

	mov	BYTE PTR _sent$11[ebp], 0

; 380  : 		F4ScopeLock lock(campDirtyMutexes[bucket]);

	mov	ecx, DWORD PTR _bucket$10[ebp]
	mov	edx, DWORD PTR ?campDirtyMutexes@@3PAPAUF4CSECTIONHANDLE@@A[ecx*4]
	push	edx
	lea	ecx, DWORD PTR _lock$4[ebp]
	call	??0F4ScopeLock@@QAE@PAUF4CSECTIONHANDLE@@@Z ; F4ScopeLock::F4ScopeLock
	mov	DWORD PTR __$EHRec$[ebp+8], 0
$LN6@DoCampaign:

; 381  : #if USE_VU_COLL_FOR_DIRTY
; 382  : 		FalconEntity *current;
; 383  : 		while ((current = static_cast<FalconEntity*>(campDirtyBuckets[bucket]->PopHead())) != NULL)

	mov	eax, DWORD PTR _bucket$10[ebp]
	mov	ecx, DWORD PTR ?campDirtyBuckets@@3PAPAVTailInsertList@@A[eax*4]
	call	?PopHead@TailInsertList@@QAEPAVVuEntity@@XZ ; TailInsertList::PopHead
	mov	DWORD PTR _current$9[ebp], eax
	cmp	DWORD PTR _current$9[ebp], 0
	je	$LN5@DoCampaign

; 384  : #else
; 385  : 		while (!campDirtyBuckets[bucket]->empty())
; 386  : #endif
; 387  : 		{
; 388  : 			//bucket 7 and 8 are OOB(out of band), the others must respect bw
; 389  : 			if ((bucket < 7) && (toSend < 0) && (sent)){

	cmp	DWORD PTR _bucket$10[ebp], 7
	jge	SHORT $LN4@DoCampaign
	cmp	DWORD PTR _toSend$[ebp], 0
	jge	SHORT $LN4@DoCampaign
	movzx	ecx, BYTE PTR _sent$11[ebp]
	test	ecx, ecx
	je	SHORT $LN4@DoCampaign

; 390  : 				break;

	jmp	$LN5@DoCampaign
$LN4@DoCampaign:

; 391  : 			}
; 392  : #if !USE_VU_COLL_FOR_DIRTY
; 393  : 			FalconEntityBin current(campDirtyBuckets[bucket]->front());
; 394  : 			campDirtyBuckets[bucket]->pop_front();
; 395  : #endif
; 396  : 			// can happen if inserted multiple times
; 397  : 			if ((current->dirty_classes == 0) || (current->GetDirty() == 0)){

	mov	edx, DWORD PTR _current$9[ebp]
	cmp	DWORD PTR [edx+128], 0
	je	SHORT $LN2@DoCampaign
	mov	ecx, DWORD PTR _current$9[ebp]
	call	?GetDirty@FalconEntity@@QBEHXZ		; FalconEntity::GetDirty
	test	eax, eax
	jne	SHORT $LN3@DoCampaign
$LN2@DoCampaign:

; 398  : 				continue;

	jmp	SHORT $LN6@DoCampaign
$LN3@DoCampaign:

; 399  : 			}
; 400  : 
; 401  : 			// encode and clear dirty to send message
; 402  : 			bufptr = buffer;

	lea	eax, DWORD PTR _buffer$[ebp]
	mov	DWORD PTR _bufptr$[ebp], eax

; 403  : 			long bufSize = static_cast<long>(current->EncodeDirty(&bufptr));

	lea	ecx, DWORD PTR _bufptr$[ebp]
	push	ecx
	mov	ecx, DWORD PTR _current$9[ebp]
	call	?EncodeDirty@FalconEntity@@QAEHPAPAE@Z	; FalconEntity::EncodeDirty
	mov	DWORD PTR _bufSize$7[ebp], eax

; 404  : 			CampDirtyData *campDirtyMsg;
; 405  : 			campDirtyMsg = new CampDirtyData (current->Id(), FalconLocalGame, FALSE);

	push	56					; 00000038H
	call	??2@YAPAXI@Z				; operator new
	add	esp, 4
	mov	DWORD PTR $T6[ebp], eax
	mov	BYTE PTR __$EHRec$[ebp+8], 1
	cmp	DWORD PTR $T6[ebp], 0
	je	SHORT $LN16@DoCampaign
	mov	ecx, OFFSET ?vuLocalSessionEntity@@3V?$VuBin@VVuSessionEntity@@@@A ; vuLocalSessionEntity
	call	??B?$VuBin@VVuSessionEntity@@@@QBE_NXZ	; VuBin<VuSessionEntity>::operator bool
	movzx	edx, al
	test	edx, edx
	je	SHORT $LN14@DoCampaign
	mov	ecx, OFFSET ?vuLocalSessionEntity@@3V?$VuBin@VVuSessionEntity@@@@A ; vuLocalSessionEntity
	call	?get@?$VuBin@VVuSessionEntity@@@@QBEPAVVuSessionEntity@@XZ ; VuBin<VuSessionEntity>::get
	mov	ecx, eax
	call	?GetGame@FalconSessionEntity@@QAEPAVFalconGameEntity@@XZ ; FalconSessionEntity::GetGame
	mov	DWORD PTR tv153[ebp], eax
	jmp	SHORT $LN15@DoCampaign
$LN14@DoCampaign:
	mov	DWORD PTR tv153[ebp], 0
$LN15@DoCampaign:
	push	0
	mov	eax, DWORD PTR tv153[ebp]
	push	eax
	lea	ecx, DWORD PTR $T2[ebp]
	push	ecx
	mov	ecx, DWORD PTR _current$9[ebp]
	call	?Id@VuEntity@@QBE?AVVU_ID@@XZ		; VuEntity::Id
	mov	edx, DWORD PTR [eax+4]
	push	edx
	mov	eax, DWORD PTR [eax]
	push	eax
	mov	ecx, DWORD PTR $T6[ebp]
	call	??0CampDirtyData@@QAE@VVU_ID@@PAVVuTargetEntity@@E@Z ; CampDirtyData::CampDirtyData
	mov	DWORD PTR tv164[ebp], eax
	jmp	SHORT $LN17@DoCampaign
$LN16@DoCampaign:
	mov	DWORD PTR tv164[ebp], 0
$LN17@DoCampaign:
	mov	ecx, DWORD PTR tv164[ebp]
	mov	DWORD PTR $T5[ebp], ecx
	mov	BYTE PTR __$EHRec$[ebp+8], 0
	mov	edx, DWORD PTR $T5[ebp]
	mov	DWORD PTR _campDirtyMsg$8[ebp], edx

; 406  : 			campDirtyMsg->dataBlock.size = static_cast<int>(bufSize);

	mov	eax, DWORD PTR _campDirtyMsg$8[ebp]
	mov	ecx, DWORD PTR _bufSize$7[ebp]
	mov	DWORD PTR [eax+48], ecx

; 407  : 			campDirtyMsg->dataBlock.data = new VU_BYTE[bufSize];

	mov	edx, DWORD PTR _bufSize$7[ebp]
	push	edx
	call	??_U@YAPAXI@Z				; operator new[]
	add	esp, 4
	mov	DWORD PTR $T3[ebp], eax
	mov	eax, DWORD PTR _campDirtyMsg$8[ebp]
	mov	ecx, DWORD PTR $T3[ebp]
	mov	DWORD PTR [eax+52], ecx

; 408  : 			memcpy(campDirtyMsg->dataBlock.data, buffer, bufSize);

	mov	edx, DWORD PTR _bufSize$7[ebp]
	push	edx
	lea	eax, DWORD PTR _buffer$[ebp]
	push	eax
	mov	ecx, DWORD PTR _campDirtyMsg$8[ebp]
	mov	edx, DWORD PTR [ecx+52]
	push	edx
	call	_memcpy
	add	esp, 12					; 0000000cH

; 409  : 			if (bucket >= 7){ campDirtyMsg->RequestOutOfBandTransmit(); }

	cmp	DWORD PTR _bucket$10[ebp], 7
	jl	SHORT $LN1@DoCampaign
	mov	ecx, DWORD PTR _campDirtyMsg$8[ebp]
	call	?RequestOutOfBandTransmit@VuMessage@@QAEXXZ ; VuMessage::RequestOutOfBandTransmit
$LN1@DoCampaign:

; 410  : 			FalconSendMessage(campDirtyMsg, bucket >= 6);

	cmp	DWORD PTR _bucket$10[ebp], 6
	jl	SHORT $LN18@DoCampaign
	mov	DWORD PTR tv182[ebp], 1
	jmp	SHORT $LN19@DoCampaign
$LN18@DoCampaign:
	mov	DWORD PTR tv182[ebp], 0
$LN19@DoCampaign:
	mov	eax, DWORD PTR tv182[ebp]
	push	eax
	mov	ecx, DWORD PTR _campDirtyMsg$8[ebp]
	push	ecx
	call	?FalconSendMessage@@YAXPAVVuMessage@@H@Z ; FalconSendMessage
	add	esp, 8

; 411  : 			current->ClearDirty();

	mov	ecx, DWORD PTR _current$9[ebp]
	call	?ClearDirty@FalconEntity@@QAEXXZ	; FalconEntity::ClearDirty

; 412  : 			--toSend;

	mov	edx, DWORD PTR _toSend$[ebp]
	sub	edx, 1
	mov	DWORD PTR _toSend$[ebp], edx

; 413  : 			sent = true;

	mov	BYTE PTR _sent$11[ebp], 1

; 414  : 		}

	jmp	$LN6@DoCampaign
$LN5@DoCampaign:

; 415  : 	}

	mov	DWORD PTR __$EHRec$[ebp+8], -1
	lea	ecx, DWORD PTR _lock$4[ebp]
	call	??1F4ScopeLock@@QAE@XZ			; F4ScopeLock::~F4ScopeLock
	jmp	$LN8@DoCampaign
$LN12@DoCampaign:

; 416  : }

	mov	ecx, DWORD PTR __$EHRec$[ebp]
	mov	DWORD PTR fs:0, ecx
	pop	ecx
	mov	ecx, DWORD PTR __$ArrayPad$[ebp]
	xor	ecx, ebp
	call	@__security_check_cookie@4
	mov	esp, ebp
	pop	ebp
	ret	0
_TEXT	ENDS
text$x	SEGMENT
__unwindfunclet$?DoCampaignDirtyData@FalconEntity@@SAXK@Z$0:
	lea	ecx, DWORD PTR _lock$4[ebp]
	jmp	??1F4ScopeLock@@QAE@XZ			; F4ScopeLock::~F4ScopeLock
__unwindfunclet$?DoCampaignDirtyData@FalconEntity@@SAXK@Z$1:
	mov	eax, DWORD PTR $T6[ebp]
	push	eax
	call	??3@YAXPAX@Z				; operator delete
	pop	ecx
	ret	0
__ehhandler$?DoCampaignDirtyData@FalconEntity@@SAXK@Z:
	mov	edx, DWORD PTR [esp+8]
	lea	eax, DWORD PTR [edx+12]
	mov	ecx, DWORD PTR [edx-1096]
	xor	ecx, eax
	call	@__security_check_cookie@4
	mov	ecx, DWORD PTR [edx-4]
	xor	ecx, eax
	call	@__security_check_cookie@4
	mov	eax, OFFSET __ehfuncinfo$?DoCampaignDirtyData@FalconEntity@@SAXK@Z
	jmp	___CxxFrameHandler3
text$x	ENDS
?DoCampaignDirtyData@FalconEntity@@SAXK@Z ENDP		; FalconEntity::DoCampaignDirtyData
; Function compile flags: /Odtp
; File c:\users\zhitao li\documents\visual studio 2012\projects\freefalcon\falclib\falcent.cpp
_TEXT	SEGMENT
$T2 = -208						; size = 8
$T3 = -200						; size = 4
_bufptr$ = -196						; size = 4
_lock$4 = -192						; size = 4
$T5 = -188						; size = 4
tv165 = -184						; size = 4
tv154 = -180						; size = 4
tv183 = -176						; size = 4
$T6 = -172						; size = 4
_bufSize$7 = -168					; size = 4
_toSend$ = -164						; size = 4
_simDirtyData$8 = -160					; size = 4
_current$9 = -156					; size = 4
_bucket$10 = -152					; size = 4
_sent$11 = -145						; size = 1
_buffer$ = -144						; size = 128
__$ArrayPad$ = -16					; size = 4
__$EHRec$ = -12						; size = 12
_realTime$ = 8						; size = 4
?DoSimDirtyData@FalconEntity@@SAXK@Z PROC		; FalconEntity::DoSimDirtyData

; 422  : void FalconEntity::DoSimDirtyData(VU_TIME realTime) {

	push	ebp
	mov	ebp, esp
	push	-1
	push	__ehhandler$?DoSimDirtyData@FalconEntity@@SAXK@Z
	mov	eax, DWORD PTR fs:0
	push	eax
	sub	esp, 196				; 000000c4H
	mov	eax, DWORD PTR ___security_cookie
	xor	eax, ebp
	mov	DWORD PTR __$ArrayPad$[ebp], eax
	push	eax
	lea	eax, DWORD PTR __$EHRec$[ebp]
	mov	DWORD PTR fs:0, eax

; 423  : 	// only do if initialized
; 424  : 	if (!(TheCampaign.Flags & CAMP_LOADED) || (simDirtyBuckets == NULL)){

	mov	eax, DWORD PTR ?TheCampaign@@3VCampaignClass@@A+64
	and	eax, 2
	je	SHORT $LN11@DoSimDirty
	mov	ecx, OFFSET ?simDirtyBuckets@@3PAPAVTailInsertList@@A ; simDirtyBuckets
	test	ecx, ecx
	jne	SHORT $LN12@DoSimDirty
$LN11@DoSimDirty:

; 425  : 		return;

	jmp	$LN13@DoSimDirty
$LN12@DoSimDirty:

; 426  : 	}
; 427  : 
; 428  : 	// last time we sent sim dirty data
; 429  : 	static VU_TIME lastSent = 0;
; 430  : 	if ((realTime - lastSent) < SIMDIRTYDATA_INTERVAL){

	mov	edx, DWORD PTR _realTime$[ebp]
	sub	edx, DWORD PTR ?lastSent@?4??DoSimDirtyData@FalconEntity@@SAXK@Z@4KA
	cmp	edx, 200				; 000000c8H
	jae	SHORT $LN10@DoSimDirty

; 431  : 		return;

	jmp	$LN13@DoSimDirty
$LN10@DoSimDirty:

; 432  : 	}
; 433  : 	lastSent = realTime;

	mov	eax, DWORD PTR _realTime$[ebp]
	mov	DWORD PTR ?lastSent@?4??DoSimDirtyData@FalconEntity@@SAXK@Z@4KA, eax

; 434  : 
; 435  : 	//a buffer for encoding decoding stuff (biggest I seen was around 32)
; 436  : 	unsigned char buffer[128];
; 437  : 	//pointer to the buffer above
; 438  : 	unsigned char *bufptr;
; 439  : 
; 440  : 	// max number of sends to do
; 441  : 	// but we send at least one on each bucket
; 442  : 	int toSend = 30;

	mov	DWORD PTR _toSend$[ebp], 30		; 0000001eH

; 443  : 
; 444  : 	//now we go through all buckets while can send. Send at least one per bucket
; 445  : 	for (int bucket = MAX_DIRTY_BUCKETS - 1; (bucket >= 0); bucket --){

	mov	DWORD PTR _bucket$10[ebp], 8
	jmp	SHORT $LN9@DoSimDirty
$LN8@DoSimDirty:
	mov	ecx, DWORD PTR _bucket$10[ebp]
	sub	ecx, 1
	mov	DWORD PTR _bucket$10[ebp], ecx
$LN9@DoSimDirty:
	cmp	DWORD PTR _bucket$10[ebp], 0
	jl	$LN13@DoSimDirty

; 446  : 		bool sent = false;

	mov	BYTE PTR _sent$11[ebp], 0

; 447  : 		F4ScopeLock lock(simDirtyMutexes[bucket]);

	mov	edx, DWORD PTR _bucket$10[ebp]
	mov	eax, DWORD PTR ?simDirtyMutexes@@3PAPAUF4CSECTIONHANDLE@@A[edx*4]
	push	eax
	lea	ecx, DWORD PTR _lock$4[ebp]
	call	??0F4ScopeLock@@QAE@PAUF4CSECTIONHANDLE@@@Z ; F4ScopeLock::F4ScopeLock
	mov	DWORD PTR __$EHRec$[ebp+8], 0
$LN6@DoSimDirty:

; 448  : #if USE_VU_COLL_FOR_DIRTY
; 449  : 		FalconEntity *current;
; 450  : 		while ((current = static_cast<FalconEntity*>(simDirtyBuckets[bucket]->PopHead())) != NULL)

	mov	ecx, DWORD PTR _bucket$10[ebp]
	mov	ecx, DWORD PTR ?simDirtyBuckets@@3PAPAVTailInsertList@@A[ecx*4]
	call	?PopHead@TailInsertList@@QAEPAVVuEntity@@XZ ; TailInsertList::PopHead
	mov	DWORD PTR _current$9[ebp], eax
	cmp	DWORD PTR _current$9[ebp], 0
	je	$LN5@DoSimDirty

; 451  : #else
; 452  : 		while (!simDirtyBuckets[bucket]->empty())
; 453  : #endif
; 454  : 		{
; 455  : 			//bucket 7 and 8 are OOB (out of band), others must respect limit
; 456  : 			if ((bucket < 7) && (toSend < 0) && (sent)){

	cmp	DWORD PTR _bucket$10[ebp], 7
	jge	SHORT $LN4@DoSimDirty
	cmp	DWORD PTR _toSend$[ebp], 0
	jge	SHORT $LN4@DoSimDirty
	movzx	edx, BYTE PTR _sent$11[ebp]
	test	edx, edx
	je	SHORT $LN4@DoSimDirty

; 457  : 				break;

	jmp	$LN5@DoSimDirty
$LN4@DoSimDirty:

; 458  : 			}
; 459  : 
; 460  : #if !USE_VU_COLL_FOR_DIRTY
; 461  : 			// get the entity in FIFO fashion
; 462  : 			FalconEntityBin current(simDirtyBuckets[bucket]->front());
; 463  : 			simDirtyBuckets[bucket]->pop_front();
; 464  : #endif
; 465  : 
; 466  : 			// discard non dirty entities, can happen if it was inserted more than once
; 467  : 			if ((current->dirty_classes == 0) || (current->GetDirty() == 0)){

	mov	eax, DWORD PTR _current$9[ebp]
	cmp	DWORD PTR [eax+128], 0
	je	SHORT $LN2@DoSimDirty
	mov	ecx, DWORD PTR _current$9[ebp]
	call	?GetDirty@FalconEntity@@QBEHXZ		; FalconEntity::GetDirty
	test	eax, eax
	jne	SHORT $LN3@DoSimDirty
$LN2@DoSimDirty:

; 468  : 				continue;

	jmp	SHORT $LN6@DoSimDirty
$LN3@DoSimDirty:

; 469  : 			}
; 470  : 
; 471  : 			//point to the buffer
; 472  : 			bufptr = buffer;

	lea	ecx, DWORD PTR _buffer$[ebp]
	mov	DWORD PTR _bufptr$[ebp], ecx

; 473  : 
; 474  : 			// encode and clear dirtyness to send dirty message
; 475  : 			long bufSize = static_cast<long>(current->EncodeDirty(&bufptr));					

	lea	edx, DWORD PTR _bufptr$[ebp]
	push	edx
	mov	ecx, DWORD PTR _current$9[ebp]
	call	?EncodeDirty@FalconEntity@@QAEHPAPAE@Z	; FalconEntity::EncodeDirty
	mov	DWORD PTR _bufSize$7[ebp], eax

; 476  : 			SimDirtyData *simDirtyData;
; 477  : 			simDirtyData = new SimDirtyData(current->Id(), FalconLocalGame, FALSE);

	push	56					; 00000038H
	call	??2@YAPAXI@Z				; operator new
	add	esp, 4
	mov	DWORD PTR $T6[ebp], eax
	mov	BYTE PTR __$EHRec$[ebp+8], 1
	cmp	DWORD PTR $T6[ebp], 0
	je	SHORT $LN17@DoSimDirty
	mov	ecx, OFFSET ?vuLocalSessionEntity@@3V?$VuBin@VVuSessionEntity@@@@A ; vuLocalSessionEntity
	call	??B?$VuBin@VVuSessionEntity@@@@QBE_NXZ	; VuBin<VuSessionEntity>::operator bool
	movzx	eax, al
	test	eax, eax
	je	SHORT $LN15@DoSimDirty
	mov	ecx, OFFSET ?vuLocalSessionEntity@@3V?$VuBin@VVuSessionEntity@@@@A ; vuLocalSessionEntity
	call	?get@?$VuBin@VVuSessionEntity@@@@QBEPAVVuSessionEntity@@XZ ; VuBin<VuSessionEntity>::get
	mov	ecx, eax
	call	?GetGame@FalconSessionEntity@@QAEPAVFalconGameEntity@@XZ ; FalconSessionEntity::GetGame
	mov	DWORD PTR tv154[ebp], eax
	jmp	SHORT $LN16@DoSimDirty
$LN15@DoSimDirty:
	mov	DWORD PTR tv154[ebp], 0
$LN16@DoSimDirty:
	push	0
	mov	ecx, DWORD PTR tv154[ebp]
	push	ecx
	lea	edx, DWORD PTR $T2[ebp]
	push	edx
	mov	ecx, DWORD PTR _current$9[ebp]
	call	?Id@VuEntity@@QBE?AVVU_ID@@XZ		; VuEntity::Id
	mov	ecx, DWORD PTR [eax+4]
	push	ecx
	mov	edx, DWORD PTR [eax]
	push	edx
	mov	ecx, DWORD PTR $T6[ebp]
	call	??0SimDirtyData@@QAE@VVU_ID@@PAVVuTargetEntity@@E@Z ; SimDirtyData::SimDirtyData
	mov	DWORD PTR tv165[ebp], eax
	jmp	SHORT $LN18@DoSimDirty
$LN17@DoSimDirty:
	mov	DWORD PTR tv165[ebp], 0
$LN18@DoSimDirty:
	mov	eax, DWORD PTR tv165[ebp]
	mov	DWORD PTR $T5[ebp], eax
	mov	BYTE PTR __$EHRec$[ebp+8], 0
	mov	ecx, DWORD PTR $T5[ebp]
	mov	DWORD PTR _simDirtyData$8[ebp], ecx

; 478  : 			simDirtyData->dataBlock.size = static_cast<int>(bufSize);

	mov	edx, DWORD PTR _simDirtyData$8[ebp]
	mov	eax, DWORD PTR _bufSize$7[ebp]
	mov	DWORD PTR [edx+48], eax

; 479  : 			simDirtyData->dataBlock.data = new VU_BYTE[bufSize];

	mov	ecx, DWORD PTR _bufSize$7[ebp]
	push	ecx
	call	??_U@YAPAXI@Z				; operator new[]
	add	esp, 4
	mov	DWORD PTR $T3[ebp], eax
	mov	edx, DWORD PTR _simDirtyData$8[ebp]
	mov	eax, DWORD PTR $T3[ebp]
	mov	DWORD PTR [edx+52], eax

; 480  : 			memcpy(simDirtyData->dataBlock.data, buffer, bufSize);

	mov	ecx, DWORD PTR _bufSize$7[ebp]
	push	ecx
	lea	edx, DWORD PTR _buffer$[ebp]
	push	edx
	mov	eax, DWORD PTR _simDirtyData$8[ebp]
	mov	ecx, DWORD PTR [eax+52]
	push	ecx
	call	_memcpy
	add	esp, 12					; 0000000cH

; 481  : 			if (bucket >= 7){

	cmp	DWORD PTR _bucket$10[ebp], 7
	jl	SHORT $LN1@DoSimDirty

; 482  : 				simDirtyData->RequestOutOfBandTransmit();

	mov	ecx, DWORD PTR _simDirtyData$8[ebp]
	call	?RequestOutOfBandTransmit@VuMessage@@QAEXXZ ; VuMessage::RequestOutOfBandTransmit
$LN1@DoSimDirty:

; 483  : 			}
; 484  : 			//send the message
; 485  : 			FalconSendMessage(simDirtyData, bucket >= 6);

	cmp	DWORD PTR _bucket$10[ebp], 6
	jl	SHORT $LN19@DoSimDirty
	mov	DWORD PTR tv183[ebp], 1
	jmp	SHORT $LN20@DoSimDirty
$LN19@DoSimDirty:
	mov	DWORD PTR tv183[ebp], 0
$LN20@DoSimDirty:
	mov	edx, DWORD PTR tv183[ebp]
	push	edx
	mov	eax, DWORD PTR _simDirtyData$8[ebp]
	push	eax
	call	?FalconSendMessage@@YAXPAVVuMessage@@H@Z ; FalconSendMessage
	add	esp, 8

; 486  : 			current->ClearDirty();

	mov	ecx, DWORD PTR _current$9[ebp]
	call	?ClearDirty@FalconEntity@@QAEXXZ	; FalconEntity::ClearDirty

; 487  : 			toSend--;

	mov	ecx, DWORD PTR _toSend$[ebp]
	sub	ecx, 1
	mov	DWORD PTR _toSend$[ebp], ecx

; 488  : 			sent = true;

	mov	BYTE PTR _sent$11[ebp], 1

; 489  : 		}

	jmp	$LN6@DoSimDirty
$LN5@DoSimDirty:

; 490  : 	}

	mov	DWORD PTR __$EHRec$[ebp+8], -1
	lea	ecx, DWORD PTR _lock$4[ebp]
	call	??1F4ScopeLock@@QAE@XZ			; F4ScopeLock::~F4ScopeLock
	jmp	$LN8@DoSimDirty
$LN13@DoSimDirty:

; 491  : }

	mov	ecx, DWORD PTR __$EHRec$[ebp]
	mov	DWORD PTR fs:0, ecx
	pop	ecx
	mov	ecx, DWORD PTR __$ArrayPad$[ebp]
	xor	ecx, ebp
	call	@__security_check_cookie@4
	mov	esp, ebp
	pop	ebp
	ret	0
_TEXT	ENDS
text$x	SEGMENT
__unwindfunclet$?DoSimDirtyData@FalconEntity@@SAXK@Z$0:
	lea	ecx, DWORD PTR _lock$4[ebp]
	jmp	??1F4ScopeLock@@QAE@XZ			; F4ScopeLock::~F4ScopeLock
__unwindfunclet$?DoSimDirtyData@FalconEntity@@SAXK@Z$1:
	mov	eax, DWORD PTR $T6[ebp]
	push	eax
	call	??3@YAXPAX@Z				; operator delete
	pop	ecx
	ret	0
__ehhandler$?DoSimDirtyData@FalconEntity@@SAXK@Z:
	mov	edx, DWORD PTR [esp+8]
	lea	eax, DWORD PTR [edx+12]
	mov	ecx, DWORD PTR [edx-200]
	xor	ecx, eax
	call	@__security_check_cookie@4
	mov	ecx, DWORD PTR [edx-4]
	xor	ecx, eax
	call	@__security_check_cookie@4
	mov	eax, OFFSET __ehfuncinfo$?DoSimDirtyData@FalconEntity@@SAXK@Z
	jmp	___CxxFrameHandler3
text$x	ENDS
?DoSimDirtyData@FalconEntity@@SAXK@Z ENDP		; FalconEntity::DoSimDirtyData
; Function compile flags: /Odtp
; File c:\users\zhitao li\documents\visual studio 2012\projects\freefalcon\falclib\falcent.cpp
_TEXT	SEGMENT
_this$ = -8						; size = 4
_bits$ = -4						; size = 2
_stream$ = 8						; size = 4
_rem$ = 12						; size = 4
?DecodeDirty@FalconEntity@@QAEXPAPAEPAJ@Z PROC		; FalconEntity::DecodeDirty
; _this$ = ecx

; 303  : void FalconEntity::DecodeDirty (unsigned char **stream, long *rem){

	push	ebp
	mov	ebp, esp
	sub	esp, 8
	mov	DWORD PTR _this$[ebp], ecx

; 304  : 
; 305  : 	short bits;
; 306  : 
; 307  : 	//read bits and update count
; 308  : 	memcpychk(&bits, stream, sizeof(short), rem);

	mov	eax, DWORD PTR _rem$[ebp]
	push	eax
	push	2
	mov	ecx, DWORD PTR _stream$[ebp]
	push	ecx
	lea	edx, DWORD PTR _bits$[ebp]
	push	edx
	call	?memcpychk@@YAXPAXPAPAEIPAJ@Z		; memcpychk
	add	esp, 16					; 00000010H

; 309  : 
; 310  : 	if (bits & DIRTY_FALCON_ENTITY)	{		

	movsx	eax, WORD PTR _bits$[ebp]
	and	eax, 1
	je	SHORT $LN12@DecodeDirt

; 311  : 		memcpychk(&falconFlags, stream, sizeof(uchar), rem);

	mov	ecx, DWORD PTR _rem$[ebp]
	push	ecx
	push	1
	mov	edx, DWORD PTR _stream$[ebp]
	push	edx
	mov	eax, DWORD PTR _this$[ebp]
	add	eax, 136				; 00000088H
	push	eax
	call	?memcpychk@@YAXPAXPAPAEIPAJ@Z		; memcpychk
	add	esp, 16					; 00000010H
$LN12@DecodeDirt:

; 312  : 	}
; 313  : 
; 314  : 	if (bits & DIRTY_CAMPAIGN_BASE)	{

	movsx	ecx, WORD PTR _bits$[ebp]
	and	ecx, 2
	je	SHORT $LN11@DecodeDirt

; 315  : 		((CampBaseClass*)this)->ReadDirty (stream, rem);

	mov	edx, DWORD PTR _rem$[ebp]
	push	edx
	mov	eax, DWORD PTR _stream$[ebp]
	push	eax
	mov	ecx, DWORD PTR _this$[ebp]
	call	?ReadDirty@CampBaseClass@@QAEXPAPAEPAJ@Z ; CampBaseClass::ReadDirty
$LN11@DecodeDirt:

; 316  : 	}
; 317  : 
; 318  : 	if (bits & DIRTY_OBJECTIVE)	{

	movsx	ecx, WORD PTR _bits$[ebp]
	and	ecx, 4
	je	SHORT $LN10@DecodeDirt

; 319  : 		((ObjectiveClass*)this)->ReadDirty(stream, rem);

	mov	edx, DWORD PTR _rem$[ebp]
	push	edx
	mov	eax, DWORD PTR _stream$[ebp]
	push	eax
	mov	ecx, DWORD PTR _this$[ebp]
	call	?ReadDirty@ObjectiveClass@@QAEXPAPAEPAJ@Z ; ObjectiveClass::ReadDirty
$LN10@DecodeDirt:

; 320  : 	}
; 321  : 
; 322  : 	if (bits & DIRTY_UNIT)	{

	movsx	ecx, WORD PTR _bits$[ebp]
	and	ecx, 8
	je	SHORT $LN9@DecodeDirt

; 323  : 		((UnitClass*)this)->ReadDirty (stream, rem);

	mov	edx, DWORD PTR _rem$[ebp]
	push	edx
	mov	eax, DWORD PTR _stream$[ebp]
	push	eax
	mov	ecx, DWORD PTR _this$[ebp]
	call	?ReadDirty@UnitClass@@QAEXPAPAEPAJ@Z	; UnitClass::ReadDirty
$LN9@DecodeDirt:

; 324  : 	}
; 325  : 
; 326  : 	if (bits & DIRTY_PACKAGE)	{

	movsx	ecx, WORD PTR _bits$[ebp]
	and	ecx, 16					; 00000010H
	je	SHORT $LN8@DecodeDirt

; 327  : 		((PackageClass*)this)->ReadDirty (stream, rem);

	mov	edx, DWORD PTR _rem$[ebp]
	push	edx
	mov	eax, DWORD PTR _stream$[ebp]
	push	eax
	mov	ecx, DWORD PTR _this$[ebp]
	call	?ReadDirty@PackageClass@@QAEXPAPAEPAJ@Z	; PackageClass::ReadDirty
$LN8@DecodeDirt:

; 328  : 	}
; 329  : 
; 330  : 	if (bits & DIRTY_SQUADRON)	{

	movsx	ecx, WORD PTR _bits$[ebp]
	and	ecx, 32					; 00000020H
	je	SHORT $LN7@DecodeDirt

; 331  : 		((SquadronClass*)this)->ReadDirty (stream, rem);

	mov	edx, DWORD PTR _rem$[ebp]
	push	edx
	mov	eax, DWORD PTR _stream$[ebp]
	push	eax
	mov	ecx, DWORD PTR _this$[ebp]
	call	?ReadDirty@SquadronClass@@QAEXPAPAEPAJ@Z ; SquadronClass::ReadDirty
$LN7@DecodeDirt:

; 332  : 	}
; 333  : 
; 334  : 	if (bits & DIRTY_FLIGHT)	{

	movsx	ecx, WORD PTR _bits$[ebp]
	and	ecx, 64					; 00000040H
	je	SHORT $LN6@DecodeDirt

; 335  : 		((FlightClass*)this)->ReadDirty (stream, rem);

	mov	edx, DWORD PTR _rem$[ebp]
	push	edx
	mov	eax, DWORD PTR _stream$[ebp]
	push	eax
	mov	ecx, DWORD PTR _this$[ebp]
	call	?ReadDirty@FlightClass@@QAEXPAPAEPAJ@Z	; FlightClass::ReadDirty
$LN6@DecodeDirt:

; 336  : 	}
; 337  : 
; 338  : 	if (bits & DIRTY_GROUND_UNIT)	{

	movsx	ecx, WORD PTR _bits$[ebp]
	and	ecx, 128				; 00000080H
	je	SHORT $LN5@DecodeDirt

; 339  : 		((GroundUnitClass*)this)->ReadDirty (stream, rem);

	mov	edx, DWORD PTR _rem$[ebp]
	push	edx
	mov	eax, DWORD PTR _stream$[ebp]
	push	eax
	mov	ecx, DWORD PTR _this$[ebp]
	call	?ReadDirty@GroundUnitClass@@QAEXPAPAEPAJ@Z ; GroundUnitClass::ReadDirty
$LN5@DecodeDirt:

; 340  : 	}
; 341  : 
; 342  : 	if (bits & DIRTY_BATTALION)	{

	movsx	ecx, WORD PTR _bits$[ebp]
	and	ecx, 256				; 00000100H
	je	SHORT $LN4@DecodeDirt

; 343  : 		((BattalionClass*)this)->ReadDirty (stream, rem);

	mov	edx, DWORD PTR _rem$[ebp]
	push	edx
	mov	eax, DWORD PTR _stream$[ebp]
	push	eax
	mov	ecx, DWORD PTR _this$[ebp]
	call	?ReadDirty@BattalionClass@@QAEXPAPAEPAJ@Z ; BattalionClass::ReadDirty
$LN4@DecodeDirt:

; 344  : 	}
; 345  : 
; 346  : 	if (bits & DIRTY_TEAM) {

	movsx	ecx, WORD PTR _bits$[ebp]
	and	ecx, 512				; 00000200H
	je	SHORT $LN3@DecodeDirt

; 347  : 		((TeamClass*)this)->ReadDirty (stream, rem);

	mov	edx, DWORD PTR _rem$[ebp]
	push	edx
	mov	eax, DWORD PTR _stream$[ebp]
	push	eax
	mov	ecx, DWORD PTR _this$[ebp]
	call	?ReadDirty@TeamClass@@QAEXPAPAEPAJ@Z	; TeamClass::ReadDirty
$LN3@DecodeDirt:

; 348  : 	}
; 349  : 
; 350  : 	if (bits & DIRTY_SIM_BASE)	{

	movsx	ecx, WORD PTR _bits$[ebp]
	and	ecx, 1024				; 00000400H
	je	SHORT $LN2@DecodeDirt

; 351  : 		((SimBaseClass*)this)->ReadDirty (stream, rem);

	mov	edx, DWORD PTR _rem$[ebp]
	push	edx
	mov	eax, DWORD PTR _stream$[ebp]
	push	eax
	mov	ecx, DWORD PTR _this$[ebp]
	call	?ReadDirty@SimBaseClass@@QAEXPAPAEPAJ@Z	; SimBaseClass::ReadDirty
$LN2@DecodeDirt:

; 352  : 	}
; 353  : 
; 354  : 	if (bits & DIRTY_AIRCRAFT){

	movsx	ecx, WORD PTR _bits$[ebp]
	and	ecx, 2048				; 00000800H
	je	SHORT $LN13@DecodeDirt

; 355  : 		((AircraftClass*)this)->ReadDirty(stream, rem);

	mov	edx, DWORD PTR _rem$[ebp]
	push	edx
	mov	eax, DWORD PTR _stream$[ebp]
	push	eax
	mov	ecx, DWORD PTR _this$[ebp]
	call	?ReadDirty@AircraftClass@@QAEXPAPAEPAJ@Z ; AircraftClass::ReadDirty
$LN13@DecodeDirt:

; 356  : 	}
; 357  : }

	mov	esp, ebp
	pop	ebp
	ret	8
?DecodeDirty@FalconEntity@@QAEXPAPAEPAJ@Z ENDP		; FalconEntity::DecodeDirty
_TEXT	ENDS
; Function compile flags: /Odtp
; File c:\users\zhitao li\documents\visual studio 2012\projects\freefalcon\falclib\falcent.cpp
_TEXT	SEGMENT
_start$ = -8						; size = 4
_this$ = -4						; size = 4
_stream$ = 8						; size = 4
?EncodeDirty@FalconEntity@@QAEHPAPAE@Z PROC		; FalconEntity::EncodeDirty
; _this$ = ecx

; 236  : int FalconEntity::EncodeDirty (unsigned char **stream) {

	push	ebp
	mov	ebp, esp
	sub	esp, 8
	mov	DWORD PTR _this$[ebp], ecx

; 237  : 	uchar *start;
; 238  : 
; 239  : 	start = *stream;

	mov	eax, DWORD PTR _stream$[ebp]
	mov	ecx, DWORD PTR [eax]
	mov	DWORD PTR _start$[ebp], ecx

; 240  : 
; 241  : 	//	MonoPrint ("SendDirty %08x%08x %08x\n", Id(), dirty_classes);
; 242  : 
; 243  : 	*(short*)*stream = (short)dirty_classes;

	mov	edx, DWORD PTR _stream$[ebp]
	mov	eax, DWORD PTR [edx]
	mov	ecx, DWORD PTR _this$[ebp]
	mov	dx, WORD PTR [ecx+128]
	mov	WORD PTR [eax], dx

; 244  : 	*stream += sizeof (short);

	mov	eax, DWORD PTR _stream$[ebp]
	mov	ecx, DWORD PTR [eax]
	add	ecx, 2
	mov	edx, DWORD PTR _stream$[ebp]
	mov	DWORD PTR [edx], ecx

; 245  : 
; 246  : 	if (dirty_classes & DIRTY_FALCON_ENTITY) 	{

	mov	eax, DWORD PTR _this$[ebp]
	mov	ecx, DWORD PTR [eax+128]
	and	ecx, 1
	je	SHORT $LN12@EncodeDirt

; 247  : 		*(uchar *)(*stream) = falconFlags;

	mov	edx, DWORD PTR _stream$[ebp]
	mov	eax, DWORD PTR [edx]
	mov	ecx, DWORD PTR _this$[ebp]
	mov	dl, BYTE PTR [ecx+136]
	mov	BYTE PTR [eax], dl

; 248  : 		*stream += sizeof (uchar);

	mov	eax, DWORD PTR _stream$[ebp]
	mov	ecx, DWORD PTR [eax]
	add	ecx, 1
	mov	edx, DWORD PTR _stream$[ebp]
	mov	DWORD PTR [edx], ecx
$LN12@EncodeDirt:

; 249  : 	}
; 250  : 
; 251  : 	if (dirty_classes & DIRTY_CAMPAIGN_BASE)	{

	mov	eax, DWORD PTR _this$[ebp]
	mov	ecx, DWORD PTR [eax+128]
	and	ecx, 2
	je	SHORT $LN11@EncodeDirt

; 252  : 		((CampBaseClass*)this)->WriteDirty (stream);

	mov	edx, DWORD PTR _stream$[ebp]
	push	edx
	mov	ecx, DWORD PTR _this$[ebp]
	call	?WriteDirty@CampBaseClass@@QAEXPAPAE@Z	; CampBaseClass::WriteDirty
$LN11@EncodeDirt:

; 253  : 	}
; 254  : 
; 255  : 	if (dirty_classes & DIRTY_OBJECTIVE)	{

	mov	eax, DWORD PTR _this$[ebp]
	mov	ecx, DWORD PTR [eax+128]
	and	ecx, 4
	je	SHORT $LN10@EncodeDirt

; 256  : 		((ObjectiveClass*)this)->WriteDirty (stream);

	mov	edx, DWORD PTR _stream$[ebp]
	push	edx
	mov	ecx, DWORD PTR _this$[ebp]
	call	?WriteDirty@ObjectiveClass@@QAEXPAPAE@Z	; ObjectiveClass::WriteDirty
$LN10@EncodeDirt:

; 257  : 	}
; 258  : 
; 259  : 	if (dirty_classes & DIRTY_UNIT)	{

	mov	eax, DWORD PTR _this$[ebp]
	mov	ecx, DWORD PTR [eax+128]
	and	ecx, 8
	je	SHORT $LN9@EncodeDirt

; 260  : 		((UnitClass*)this)->WriteDirty (stream);

	mov	edx, DWORD PTR _stream$[ebp]
	push	edx
	mov	ecx, DWORD PTR _this$[ebp]
	call	?WriteDirty@UnitClass@@QAEXPAPAE@Z	; UnitClass::WriteDirty
$LN9@EncodeDirt:

; 261  : 	}
; 262  : 
; 263  : 	if (dirty_classes & DIRTY_PACKAGE)	{

	mov	eax, DWORD PTR _this$[ebp]
	mov	ecx, DWORD PTR [eax+128]
	and	ecx, 16					; 00000010H
	je	SHORT $LN8@EncodeDirt

; 264  : 		((PackageClass*)this)->WriteDirty (stream);

	mov	edx, DWORD PTR _stream$[ebp]
	push	edx
	mov	ecx, DWORD PTR _this$[ebp]
	call	?WriteDirty@PackageClass@@QAEXPAPAE@Z	; PackageClass::WriteDirty
$LN8@EncodeDirt:

; 265  : 	}
; 266  : 
; 267  : 	if (dirty_classes & DIRTY_SQUADRON)	{

	mov	eax, DWORD PTR _this$[ebp]
	mov	ecx, DWORD PTR [eax+128]
	and	ecx, 32					; 00000020H
	je	SHORT $LN7@EncodeDirt

; 268  : 		((SquadronClass*)this)->WriteDirty (stream);

	mov	edx, DWORD PTR _stream$[ebp]
	push	edx
	mov	ecx, DWORD PTR _this$[ebp]
	call	?WriteDirty@SquadronClass@@QAEXPAPAE@Z	; SquadronClass::WriteDirty
$LN7@EncodeDirt:

; 269  : 	}
; 270  : 
; 271  : 	if (dirty_classes & DIRTY_FLIGHT)	{

	mov	eax, DWORD PTR _this$[ebp]
	mov	ecx, DWORD PTR [eax+128]
	and	ecx, 64					; 00000040H
	je	SHORT $LN6@EncodeDirt

; 272  : 		((FlightClass*)this)->WriteDirty (stream);

	mov	edx, DWORD PTR _stream$[ebp]
	push	edx
	mov	ecx, DWORD PTR _this$[ebp]
	call	?WriteDirty@FlightClass@@QAEXPAPAE@Z	; FlightClass::WriteDirty
$LN6@EncodeDirt:

; 273  : 	}
; 274  : 
; 275  : 	if (dirty_classes & DIRTY_GROUND_UNIT)	{

	mov	eax, DWORD PTR _this$[ebp]
	mov	ecx, DWORD PTR [eax+128]
	and	ecx, 128				; 00000080H
	je	SHORT $LN5@EncodeDirt

; 276  : 		((GroundUnitClass*)this)->WriteDirty (stream);

	mov	edx, DWORD PTR _stream$[ebp]
	push	edx
	mov	ecx, DWORD PTR _this$[ebp]
	call	?WriteDirty@GroundUnitClass@@QAEXPAPAE@Z ; GroundUnitClass::WriteDirty
$LN5@EncodeDirt:

; 277  : 	}
; 278  : 
; 279  : 	if (dirty_classes & DIRTY_BATTALION)	{

	mov	eax, DWORD PTR _this$[ebp]
	mov	ecx, DWORD PTR [eax+128]
	and	ecx, 256				; 00000100H
	je	SHORT $LN4@EncodeDirt

; 280  : 		((BattalionClass*)this)->WriteDirty (stream);

	mov	edx, DWORD PTR _stream$[ebp]
	push	edx
	mov	ecx, DWORD PTR _this$[ebp]
	call	?WriteDirty@BattalionClass@@QAEXPAPAE@Z	; BattalionClass::WriteDirty
$LN4@EncodeDirt:

; 281  : 	}
; 282  : 
; 283  : 	if (dirty_classes & DIRTY_TEAM)	{

	mov	eax, DWORD PTR _this$[ebp]
	mov	ecx, DWORD PTR [eax+128]
	and	ecx, 512				; 00000200H
	je	SHORT $LN3@EncodeDirt

; 284  : 		((TeamClass*)this)->WriteDirty (stream);

	mov	edx, DWORD PTR _stream$[ebp]
	push	edx
	mov	ecx, DWORD PTR _this$[ebp]
	call	?WriteDirty@TeamClass@@QAEXPAPAE@Z	; TeamClass::WriteDirty
$LN3@EncodeDirt:

; 285  : 	}
; 286  : 
; 287  : 	if (dirty_classes & DIRTY_SIM_BASE)	{

	mov	eax, DWORD PTR _this$[ebp]
	mov	ecx, DWORD PTR [eax+128]
	and	ecx, 1024				; 00000400H
	je	SHORT $LN2@EncodeDirt

; 288  : 		((SimBaseClass*)this)->WriteDirty (stream);

	mov	edx, DWORD PTR _stream$[ebp]
	push	edx
	mov	ecx, DWORD PTR _this$[ebp]
	call	?WriteDirty@SimBaseClass@@QAEXPAPAE@Z	; SimBaseClass::WriteDirty
$LN2@EncodeDirt:

; 289  : 	}
; 290  : 
; 291  : 	if (dirty_classes & DIRTY_AIRCRAFT){

	mov	eax, DWORD PTR _this$[ebp]
	mov	ecx, DWORD PTR [eax+128]
	and	ecx, 2048				; 00000800H
	je	SHORT $LN1@EncodeDirt

; 292  : 		((AircraftClass*)this)->WriteDirty(stream);

	mov	edx, DWORD PTR _stream$[ebp]
	push	edx
	mov	ecx, DWORD PTR _this$[ebp]
	call	?WriteDirty@AircraftClass@@QAEXPAPAE@Z	; AircraftClass::WriteDirty
$LN1@EncodeDirt:

; 293  : 	}
; 294  : 
; 295  : 	return *stream - start;

	mov	eax, DWORD PTR _stream$[ebp]
	mov	eax, DWORD PTR [eax]
	sub	eax, DWORD PTR _start$[ebp]

; 296  : }

	mov	esp, ebp
	pop	ebp
	ret	4
?EncodeDirty@FalconEntity@@QAEHPAPAE@Z ENDP		; FalconEntity::EncodeDirty
_TEXT	ENDS
; Function compile flags: /Odtp
; File c:\users\zhitao li\documents\visual studio 2012\projects\freefalcon\falclib\include\falcent.h
;	COMDAT ?GetDirty@FalconEntity@@QBEHXZ
_TEXT	SEGMENT
_this$ = -4						; size = 4
?GetDirty@FalconEntity@@QBEHXZ PROC			; FalconEntity::GetDirty, COMDAT
; _this$ = ecx

; 178  : 	int GetDirty() const { return dirty_score; }

	push	ebp
	mov	ebp, esp
	push	ecx
	mov	DWORD PTR _this$[ebp], ecx
	mov	eax, DWORD PTR _this$[ebp]
	mov	eax, DWORD PTR [eax+132]
	mov	esp, ebp
	pop	ebp
	ret	0
?GetDirty@FalconEntity@@QBEHXZ ENDP			; FalconEntity::GetDirty
_TEXT	ENDS
; Function compile flags: /Odtp
; File c:\users\zhitao li\documents\visual studio 2012\projects\freefalcon\falclib\falcent.cpp
_TEXT	SEGMENT
_lock$2 = -28						; size = 4
_lock$3 = -24						; size = 4
_bin$ = -20						; size = 4
_this$ = -16						; size = 4
__$EHRec$ = -12						; size = 12
_bits$ = 8						; size = 4
_score$ = 12						; size = 4
?MakeDirty@FalconEntity@@QAEXW4Dirty_Class@@W4Dirtyness@@@Z PROC ; FalconEntity::MakeDirty
; _this$ = ecx

; 194  : void FalconEntity::MakeDirty (Dirty_Class bits, Dirtyness score) {

	push	ebp
	mov	ebp, esp
	push	-1
	push	__ehhandler$?MakeDirty@FalconEntity@@QAEXW4Dirty_Class@@W4Dirtyness@@@Z
	mov	eax, DWORD PTR fs:0
	push	eax
	sub	esp, 16					; 00000010H
	mov	eax, DWORD PTR ___security_cookie
	xor	eax, ebp
	push	eax
	lea	eax, DWORD PTR __$EHRec$[ebp]
	mov	DWORD PTR fs:0, eax
	mov	DWORD PTR _this$[ebp], ecx

; 195  : 	dirty_classes |= bits;

	mov	eax, DWORD PTR _this$[ebp]
	mov	ecx, DWORD PTR [eax+128]
	or	ecx, DWORD PTR _bits$[ebp]
	mov	edx, DWORD PTR _this$[ebp]
	mov	DWORD PTR [edx+128], ecx

; 196  : 
; 197  : 	// sfr: for player entities, always send reliable and immediatelly
; 198  : 	if (IsPlayer()){

	mov	ecx, DWORD PTR _this$[ebp]
	call	?IsPlayer@FalconEntity@@QAEHXZ		; FalconEntity::IsPlayer
	test	eax, eax
	je	SHORT $LN5@MakeDirty

; 199  : 		score = SEND_RELIABLEANDOOB;

	mov	DWORD PTR _score$[ebp], 268435456	; 10000000H
$LN5@MakeDirty:

; 200  : 	}
; 201  : 
; 202  : 	// send only local units which are active (in DB) and if the unit is more dirty than currently is
; 203  : 	if (
; 204  : 		(!IsLocal()) || 
; 205  : 		(VuState() != VU_MEM_ACTIVE) || 
; 206  : 		(score <= dirty_score) || 
; 207  : 		!(TheCampaign.Flags & CAMP_LOADED)
; 208  : 	){

	mov	ecx, DWORD PTR _this$[ebp]
	call	?IsLocal@VuEntity@@QBEEXZ		; VuEntity::IsLocal
	movzx	eax, al
	test	eax, eax
	je	SHORT $LN3@MakeDirty
	mov	ecx, DWORD PTR _this$[ebp]
	call	?VuState@VuEntity@@QBE?AW4VU_MEM@@XZ	; VuEntity::VuState
	cmp	eax, 3
	jne	SHORT $LN3@MakeDirty
	mov	ecx, DWORD PTR _this$[ebp]
	mov	edx, DWORD PTR _score$[ebp]
	cmp	edx, DWORD PTR [ecx+132]
	jle	SHORT $LN3@MakeDirty
	mov	eax, DWORD PTR ?TheCampaign@@3VCampaignClass@@A+64
	and	eax, 2
	jne	SHORT $LN4@MakeDirty
$LN3@MakeDirty:

; 209  : 		return;

	jmp	$LN6@MakeDirty
$LN4@MakeDirty:

; 210  : 	}
; 211  : 
; 212  : 	dirty_score = score;

	mov	ecx, DWORD PTR _this$[ebp]
	mov	edx, DWORD PTR _score$[ebp]
	mov	DWORD PTR [ecx+132], edx

; 213  : 	int bin = calc_dirty_bucket(score);

	mov	eax, DWORD PTR _score$[ebp]
	push	eax
	call	?calc_dirty_bucket@FalconEntity@@CAHH@Z	; FalconEntity::calc_dirty_bucket
	add	esp, 4
	mov	DWORD PTR _bin$[ebp], eax

; 214  : 	if (IsSimBase()){

	mov	ecx, DWORD PTR _this$[ebp]
	mov	edx, DWORD PTR [ecx]
	mov	ecx, DWORD PTR _this$[ebp]
	mov	eax, DWORD PTR [edx+96]
	call	eax
	movzx	ecx, al
	test	ecx, ecx
	je	SHORT $LN2@MakeDirty

; 215  : 		F4ScopeLock lock(simDirtyMutexes[bin]);

	mov	edx, DWORD PTR _bin$[ebp]
	mov	eax, DWORD PTR ?simDirtyMutexes@@3PAPAUF4CSECTIONHANDLE@@A[edx*4]
	push	eax
	lea	ecx, DWORD PTR _lock$3[ebp]
	call	??0F4ScopeLock@@QAE@PAUF4CSECTIONHANDLE@@@Z ; F4ScopeLock::F4ScopeLock
	mov	DWORD PTR __$EHRec$[ebp+8], 0

; 216  : #if USE_VU_COLL_FOR_DIRTY
; 217  : 		simDirtyBuckets[bin]->ForcedInsert(this);

	mov	ecx, DWORD PTR _this$[ebp]
	push	ecx
	mov	edx, DWORD PTR _bin$[ebp]
	mov	ecx, DWORD PTR ?simDirtyBuckets@@3PAPAVTailInsertList@@A[edx*4]
	call	?ForcedInsert@TailInsertList@@QAEHPAVVuEntity@@@Z ; TailInsertList::ForcedInsert

; 218  : #else
; 219  : 		simDirtyBuckets[bin]->push_back(FalconEntityBin(this));
; 220  : #endif
; 221  : 	}

	mov	DWORD PTR __$EHRec$[ebp+8], -1
	lea	ecx, DWORD PTR _lock$3[ebp]
	call	??1F4ScopeLock@@QAE@XZ			; F4ScopeLock::~F4ScopeLock

; 222  : 	else {

	jmp	SHORT $LN6@MakeDirty
$LN2@MakeDirty:

; 223  : 		F4ScopeLock lock(campDirtyMutexes[bin]);

	mov	eax, DWORD PTR _bin$[ebp]
	mov	ecx, DWORD PTR ?campDirtyMutexes@@3PAPAUF4CSECTIONHANDLE@@A[eax*4]
	push	ecx
	lea	ecx, DWORD PTR _lock$2[ebp]
	call	??0F4ScopeLock@@QAE@PAUF4CSECTIONHANDLE@@@Z ; F4ScopeLock::F4ScopeLock
	mov	DWORD PTR __$EHRec$[ebp+8], 1

; 224  : #if USE_VU_COLL_FOR_DIRTY
; 225  : 		campDirtyBuckets[bin]->ForcedInsert(this);

	mov	edx, DWORD PTR _this$[ebp]
	push	edx
	mov	eax, DWORD PTR _bin$[ebp]
	mov	ecx, DWORD PTR ?campDirtyBuckets@@3PAPAVTailInsertList@@A[eax*4]
	call	?ForcedInsert@TailInsertList@@QAEHPAVVuEntity@@@Z ; TailInsertList::ForcedInsert

; 226  : #else
; 227  : 		campDirtyBuckets[bin]->push_back(FalconEntityBin(this));		
; 228  : #endif
; 229  : 	}

	mov	DWORD PTR __$EHRec$[ebp+8], -1
	lea	ecx, DWORD PTR _lock$2[ebp]
	call	??1F4ScopeLock@@QAE@XZ			; F4ScopeLock::~F4ScopeLock
$LN6@MakeDirty:

; 230  : }

	mov	ecx, DWORD PTR __$EHRec$[ebp]
	mov	DWORD PTR fs:0, ecx
	pop	ecx
	mov	esp, ebp
	pop	ebp
	ret	8
_TEXT	ENDS
text$x	SEGMENT
__unwindfunclet$?MakeDirty@FalconEntity@@QAEXW4Dirty_Class@@W4Dirtyness@@@Z$0:
	lea	ecx, DWORD PTR _lock$3[ebp]
	jmp	??1F4ScopeLock@@QAE@XZ			; F4ScopeLock::~F4ScopeLock
__unwindfunclet$?MakeDirty@FalconEntity@@QAEXW4Dirty_Class@@W4Dirtyness@@@Z$1:
	lea	ecx, DWORD PTR _lock$2[ebp]
	jmp	??1F4ScopeLock@@QAE@XZ			; F4ScopeLock::~F4ScopeLock
__ehhandler$?MakeDirty@FalconEntity@@QAEXW4Dirty_Class@@W4Dirtyness@@@Z:
	mov	edx, DWORD PTR [esp+8]
	lea	eax, DWORD PTR [edx+12]
	mov	ecx, DWORD PTR [edx-20]
	xor	ecx, eax
	call	@__security_check_cookie@4
	mov	eax, OFFSET __ehfuncinfo$?MakeDirty@FalconEntity@@QAEXW4Dirty_Class@@W4Dirtyness@@@Z
	jmp	___CxxFrameHandler3
text$x	ENDS
?MakeDirty@FalconEntity@@QAEXW4Dirty_Class@@W4Dirtyness@@@Z ENDP ; FalconEntity::MakeDirty
; Function compile flags: /Odtp
; File c:\users\zhitao li\documents\visual studio 2012\projects\freefalcon\falclib\falcent.cpp
_TEXT	SEGMENT
_this$ = -4						; size = 4
?ClearDirty@FalconEntity@@QAEXXZ PROC			; FalconEntity::ClearDirty
; _this$ = ecx

; 173  : void FalconEntity::ClearDirty (void){

	push	ebp
	mov	ebp, esp
	push	ecx
	mov	DWORD PTR _this$[ebp], ecx

; 174  : 	// dodirtydata removes it from lists nows
; 175  : 	dirty_classes = 0;

	mov	eax, DWORD PTR _this$[ebp]
	mov	DWORD PTR [eax+128], 0

; 176  : 	dirty_score = 0;

	mov	ecx, DWORD PTR _this$[ebp]
	mov	DWORD PTR [ecx+132], 0

; 177  : #if 0
; 178  : 	//sfr: old
; 179  : 	int bin;
; 180  : 	VuEnterCriticalSection ();
; 181  : 	bin = calc_dirty_bucket ();
; 182  : 	assert((bin >= 0) && (bin < MAX_DIRTY_BUCKETS));
; 183  : 	dirty_classes = 0;
; 184  : 	dirty_score = 0;
; 185  : 	DirtyBucket[bin]->Remove(this);
; 186  : 	VuExitCriticalSection();
; 187  : #endif
; 188  : }

	mov	esp, ebp
	pop	ebp
	ret	0
?ClearDirty@FalconEntity@@QAEXXZ ENDP			; FalconEntity::ClearDirty
_TEXT	ENDS
; Function compile flags: /Odtp
; File c:\users\zhitao li\documents\visual studio 2012\projects\freefalcon\falclib\falcent.cpp
_TEXT	SEGMENT
$T2 = -36						; size = 4
_this$ = -32						; size = 4
_event$ = -28						; size = 4
tv130 = -24						; size = 4
$T3 = -20						; size = 4
tv90 = -16						; size = 4
__$EHRec$ = -12						; size = 12
?DoFullUpdate@FalconEntity@@QAEXXZ PROC			; FalconEntity::DoFullUpdate
; _this$ = ecx

; 119  : void FalconEntity::DoFullUpdate (void) {

	push	ebp
	mov	ebp, esp
	push	-1
	push	__ehhandler$?DoFullUpdate@FalconEntity@@QAEXXZ
	mov	eax, DWORD PTR fs:0
	push	eax
	sub	esp, 24					; 00000018H
	mov	eax, DWORD PTR ___security_cookie
	xor	eax, ebp
	push	eax
	lea	eax, DWORD PTR __$EHRec$[ebp]
	mov	DWORD PTR fs:0, eax
	mov	DWORD PTR _this$[ebp], ecx

; 120  : 	VuEvent *event = new VuFullUpdateEvent(this, FalconLocalGame);

	push	68					; 00000044H
	call	??2@YAPAXI@Z				; operator new
	add	esp, 4
	mov	DWORD PTR $T3[ebp], eax
	mov	DWORD PTR __$EHRec$[ebp+8], 0
	cmp	DWORD PTR $T3[ebp], 0
	je	SHORT $LN5@DoFullUpda
	mov	ecx, OFFSET ?vuLocalSessionEntity@@3V?$VuBin@VVuSessionEntity@@@@A ; vuLocalSessionEntity
	call	??B?$VuBin@VVuSessionEntity@@@@QBE_NXZ	; VuBin<VuSessionEntity>::operator bool
	movzx	eax, al
	test	eax, eax
	je	SHORT $LN3@DoFullUpda
	mov	ecx, OFFSET ?vuLocalSessionEntity@@3V?$VuBin@VVuSessionEntity@@@@A ; vuLocalSessionEntity
	call	?get@?$VuBin@VVuSessionEntity@@@@QBEPAVVuSessionEntity@@XZ ; VuBin<VuSessionEntity>::get
	mov	ecx, eax
	call	?GetGame@FalconSessionEntity@@QAEPAVFalconGameEntity@@XZ ; FalconSessionEntity::GetGame
	mov	DWORD PTR tv90[ebp], eax
	jmp	SHORT $LN4@DoFullUpda
$LN3@DoFullUpda:
	mov	DWORD PTR tv90[ebp], 0
$LN4@DoFullUpda:
	push	0
	mov	ecx, DWORD PTR tv90[ebp]
	push	ecx
	mov	edx, DWORD PTR _this$[ebp]
	push	edx
	mov	ecx, DWORD PTR $T3[ebp]
	call	??0VuFullUpdateEvent@@QAE@PAVVuEntity@@PAVVuTargetEntity@@E@Z ; VuFullUpdateEvent::VuFullUpdateEvent
	mov	DWORD PTR tv130[ebp], eax
	jmp	SHORT $LN6@DoFullUpda
$LN5@DoFullUpda:
	mov	DWORD PTR tv130[ebp], 0
$LN6@DoFullUpda:
	mov	eax, DWORD PTR tv130[ebp]
	mov	DWORD PTR $T2[ebp], eax
	mov	DWORD PTR __$EHRec$[ebp+8], -1
	mov	ecx, DWORD PTR $T2[ebp]
	mov	DWORD PTR _event$[ebp], ecx

; 121  : 	event->RequestReliableTransmit ();

	mov	ecx, DWORD PTR _event$[ebp]
	call	?RequestReliableTransmit@VuMessage@@QAEXXZ ; VuMessage::RequestReliableTransmit

; 122  : 	VuMessageQueue::PostVuMessage(event);

	mov	edx, DWORD PTR _event$[ebp]
	push	edx
	call	?PostVuMessage@VuMessageQueue@@SAHPAVVuMessage@@@Z ; VuMessageQueue::PostVuMessage
	add	esp, 4

; 123  : }

	mov	ecx, DWORD PTR __$EHRec$[ebp]
	mov	DWORD PTR fs:0, ecx
	pop	ecx
	mov	esp, ebp
	pop	ebp
	ret	0
_TEXT	ENDS
text$x	SEGMENT
__unwindfunclet$?DoFullUpdate@FalconEntity@@QAEXXZ$0:
	mov	eax, DWORD PTR $T3[ebp]
	push	eax
	call	??3@YAXPAX@Z				; operator delete
	pop	ecx
	ret	0
__ehhandler$?DoFullUpdate@FalconEntity@@QAEXXZ:
	mov	edx, DWORD PTR [esp+8]
	lea	eax, DWORD PTR [edx+12]
	mov	ecx, DWORD PTR [edx-28]
	xor	ecx, eax
	call	@__security_check_cookie@4
	mov	eax, OFFSET __ehfuncinfo$?DoFullUpdate@FalconEntity@@QAEXXZ
	jmp	___CxxFrameHandler3
text$x	ENDS
?DoFullUpdate@FalconEntity@@QAEXXZ ENDP			; FalconEntity::DoFullUpdate
; Function compile flags: /Odtp
; File c:\users\zhitao li\documents\visual studio 2012\projects\freefalcon\falclib\falcent.cpp
_TEXT	SEGMENT
_this$ = -4						; size = 4
_sessionId$ = 8						; size = 8
?SetOwner@FalconEntity@@QAEXVVU_ID@@@Z PROC		; FalconEntity::SetOwner
; _this$ = ecx

; 114  : void FalconEntity::SetOwner (VU_ID sessionId) {

	push	ebp
	mov	ebp, esp
	push	ecx
	mov	DWORD PTR _this$[ebp], ecx

; 115  : 	// Set the owner to session
; 116  : 	share_.ownerId_ = sessionId;

	mov	eax, DWORD PTR _this$[ebp]
	mov	ecx, DWORD PTR _sessionId$[ebp]
	mov	DWORD PTR [eax+20], ecx
	mov	edx, DWORD PTR _sessionId$[ebp+4]
	mov	DWORD PTR [eax+24], edx

; 117  : }

	mov	esp, ebp
	pop	ebp
	ret	8
?SetOwner@FalconEntity@@QAEXVVU_ID@@@Z ENDP		; FalconEntity::SetOwner
_TEXT	ENDS
; Function compile flags: /Odtp
; File c:\users\zhitao li\documents\visual studio 2012\projects\freefalcon\falclib\falcent.cpp
_TEXT	SEGMENT
$T1 = -12						; size = 8
_this$ = -4						; size = 4
_session$ = 8						; size = 4
?SetOwner@FalconEntity@@QAEXPAVFalconSessionEntity@@@Z PROC ; FalconEntity::SetOwner
; _this$ = ecx

; 109  : void FalconEntity::SetOwner (FalconSessionEntity* session) {

	push	ebp
	mov	ebp, esp
	sub	esp, 12					; 0000000cH
	mov	DWORD PTR _this$[ebp], ecx

; 110  : 	// Set the owner to session
; 111  : 	share_.ownerId_ = session->OwnerId();

	lea	eax, DWORD PTR $T1[ebp]
	push	eax
	mov	ecx, DWORD PTR _session$[ebp]
	call	?OwnerId@VuEntity@@QBE?AVVU_ID@@XZ	; VuEntity::OwnerId
	mov	ecx, DWORD PTR [eax]
	mov	edx, DWORD PTR [eax+4]
	mov	eax, DWORD PTR _this$[ebp]
	mov	DWORD PTR [eax+20], ecx
	mov	DWORD PTR [eax+24], edx

; 112  : }

	mov	esp, ebp
	pop	ebp
	ret	4
?SetOwner@FalconEntity@@QAEXPAVFalconSessionEntity@@@Z ENDP ; FalconEntity::SetOwner
_TEXT	ENDS
; Function compile flags: /Odtp
; File c:\users\zhitao li\documents\visual studio 2012\projects\freefalcon\falclib\falcent.cpp
_TEXT	SEGMENT
_this$ = -20						; size = 4
_v$ = -16						; size = 12
__$ArrayPad$ = -4					; size = 4
_x$ = 8							; size = 4
_y$ = 12						; size = 4
?GetLocation@FalconEntity@@QBEXPAF0@Z PROC		; FalconEntity::GetLocation
; _this$ = ecx

; 100  : void FalconEntity::GetLocation (GridIndex* x, GridIndex* y) const {

	push	ebp
	mov	ebp, esp
	sub	esp, 20					; 00000014H
	mov	eax, DWORD PTR ___security_cookie
	xor	eax, ebp
	mov	DWORD PTR __$ArrayPad$[ebp], eax
	mov	DWORD PTR _this$[ebp], ecx

; 101  : 	::vector v;
; 102  : 
; 103  : 	v.x = XPos();

	mov	ecx, DWORD PTR _this$[ebp]
	call	?XPos@VuEntity@@QBEMXZ			; VuEntity::XPos
	fstp	DWORD PTR _v$[ebp]

; 104  : 	v.y = YPos();

	mov	ecx, DWORD PTR _this$[ebp]
	call	?YPos@VuEntity@@QBEMXZ			; VuEntity::YPos
	fstp	DWORD PTR _v$[ebp+4]

; 105  : 	v.z = 0.0F;

	movss	xmm0, DWORD PTR __real@00000000
	movss	DWORD PTR _v$[ebp+8], xmm0

; 106  : 	ConvertSimToGrid(&v,x,y);

	mov	eax, DWORD PTR _y$[ebp]
	push	eax
	mov	ecx, DWORD PTR _x$[ebp]
	push	ecx
	lea	edx, DWORD PTR _v$[ebp]
	push	edx
	call	?ConvertSimToGrid@@YAXPAUvector@@PAF1@Z	; ConvertSimToGrid
	add	esp, 12					; 0000000cH

; 107  : }

	mov	ecx, DWORD PTR __$ArrayPad$[ebp]
	xor	ecx, ebp
	call	@__security_check_cookie@4
	mov	esp, ebp
	pop	ebp
	ret	8
?GetLocation@FalconEntity@@QBEXPAF0@Z ENDP		; FalconEntity::GetLocation
_TEXT	ENDS
; Function compile flags: /Odtp
; File c:\users\zhitao li\documents\visual studio 2012\projects\freefalcon\falclib\falcent.cpp
_TEXT	SEGMENT
_this$ = -4						; size = 4
?GetDamageModifiers@FalconEntity@@UAEPAEXZ PROC		; FalconEntity::GetDamageModifiers
; _this$ = ecx

; 96   : uchar* FalconEntity::GetDamageModifiers (void) {

	push	ebp
	mov	ebp, esp
	push	ecx
	mov	DWORD PTR _this$[ebp], ecx

; 97   : 	return DefaultDamageMods; 

	mov	eax, OFFSET ?DefaultDamageMods@@3PAEA	; DefaultDamageMods

; 98   : }

	mov	esp, ebp
	pop	ebp
	ret	0
?GetDamageModifiers@FalconEntity@@UAEPAEXZ ENDP		; FalconEntity::GetDamageModifiers
_TEXT	ENDS
; Function compile flags: /Odtp
; File c:\users\zhitao li\documents\visual studio 2012\projects\freefalcon\falclib\falcent.cpp
_TEXT	SEGMENT
_this$ = -4						; size = 4
?GetRadarType@FalconEntity@@UAEHXZ PROC			; FalconEntity::GetRadarType
; _this$ = ecx

; 493  : int FalconEntity::GetRadarType(void) {

	push	ebp
	mov	ebp, esp
	push	ecx
	mov	DWORD PTR _this$[ebp], ecx

; 494  : 	return RDR_NO_RADAR;

	xor	eax, eax

; 495  : }

	mov	esp, ebp
	pop	ebp
	ret	0
?GetRadarType@FalconEntity@@UAEHXZ ENDP			; FalconEntity::GetRadarType
_TEXT	ENDS
; Function compile flags: /Odtp
; File c:\users\zhitao li\documents\visual studio 2012\projects\freefalcon\falclib\include\falcent.h
;	COMDAT ?GetIRFactor@FalconEntity@@UAEMXZ
_TEXT	SEGMENT
_this$ = -4						; size = 4
?GetIRFactor@FalconEntity@@UAEMXZ PROC			; FalconEntity::GetIRFactor, COMDAT
; _this$ = ecx

; 164  : 	virtual float GetIRFactor (void)			{ return 0.0f; }

	push	ebp
	mov	ebp, esp
	push	ecx
	mov	DWORD PTR _this$[ebp], ecx
	fldz
	mov	esp, ebp
	pop	ebp
	ret	0
?GetIRFactor@FalconEntity@@UAEMXZ ENDP			; FalconEntity::GetIRFactor
_TEXT	ENDS
; Function compile flags: /Odtp
; File c:\users\zhitao li\documents\visual studio 2012\projects\freefalcon\falclib\include\falcent.h
;	COMDAT ?GetRCSFactor@FalconEntity@@UAEMXZ
_TEXT	SEGMENT
_this$ = -4						; size = 4
?GetRCSFactor@FalconEntity@@UAEMXZ PROC			; FalconEntity::GetRCSFactor, COMDAT
; _this$ = ecx

; 163  : 	virtual float GetRCSFactor (void)			{ return 0.0f; }

	push	ebp
	mov	ebp, esp
	push	ecx
	mov	DWORD PTR _this$[ebp], ecx
	fldz
	mov	esp, ebp
	pop	ebp
	ret	0
?GetRCSFactor@FalconEntity@@UAEMXZ ENDP			; FalconEntity::GetRCSFactor
_TEXT	ENDS
; Function compile flags: /Odtp
; File c:\users\zhitao li\documents\visual studio 2012\projects\freefalcon\falclib\include\falcent.h
;	COMDAT ?HasAreaJamming@FalconEntity@@UAEHXZ
_TEXT	SEGMENT
_this$ = -4						; size = 4
?HasAreaJamming@FalconEntity@@UAEHXZ PROC		; FalconEntity::HasAreaJamming, COMDAT
; _this$ = ecx

; 162  : 	virtual int HasAreaJamming (void)			{ return FALSE; }

	push	ebp
	mov	ebp, esp
	push	ecx
	mov	DWORD PTR _this$[ebp], ecx
	xor	eax, eax
	mov	esp, ebp
	pop	ebp
	ret	0
?HasAreaJamming@FalconEntity@@UAEHXZ ENDP		; FalconEntity::HasAreaJamming
_TEXT	ENDS
; Function compile flags: /Odtp
; File c:\users\zhitao li\documents\visual studio 2012\projects\freefalcon\falclib\include\falcent.h
;	COMDAT ?HasSPJamming@FalconEntity@@UAEHXZ
_TEXT	SEGMENT
_this$ = -4						; size = 4
?HasSPJamming@FalconEntity@@UAEHXZ PROC			; FalconEntity::HasSPJamming, COMDAT
; _this$ = ecx

; 161  : 	virtual int HasSPJamming (void)				{ return FALSE; }

	push	ebp
	mov	ebp, esp
	push	ecx
	mov	DWORD PTR _this$[ebp], ecx
	xor	eax, eax
	mov	esp, ebp
	pop	ebp
	ret	0
?HasSPJamming@FalconEntity@@UAEHXZ ENDP			; FalconEntity::HasSPJamming
_TEXT	ENDS
; Function compile flags: /Odtp
; File c:\users\zhitao li\documents\visual studio 2012\projects\freefalcon\falclib\include\falcent.h
;	COMDAT ?IsAreaJamming@FalconEntity@@UAEHXZ
_TEXT	SEGMENT
_this$ = -4						; size = 4
?IsAreaJamming@FalconEntity@@UAEHXZ PROC		; FalconEntity::IsAreaJamming, COMDAT
; _this$ = ecx

; 160  : 	virtual int IsAreaJamming (void)            { return FALSE; }

	push	ebp
	mov	ebp, esp
	push	ecx
	mov	DWORD PTR _this$[ebp], ecx
	xor	eax, eax
	mov	esp, ebp
	pop	ebp
	ret	0
?IsAreaJamming@FalconEntity@@UAEHXZ ENDP		; FalconEntity::IsAreaJamming
_TEXT	ENDS
; Function compile flags: /Odtp
; File c:\users\zhitao li\documents\visual studio 2012\projects\freefalcon\falclib\include\falcent.h
;	COMDAT ?IsSPJamming@FalconEntity@@UAEHXZ
_TEXT	SEGMENT
_this$ = -4						; size = 4
?IsSPJamming@FalconEntity@@UAEHXZ PROC			; FalconEntity::IsSPJamming, COMDAT
; _this$ = ecx

; 159  : 	virtual int IsSPJamming (void)				{ return FALSE; }

	push	ebp
	mov	ebp, esp
	push	ecx
	mov	DWORD PTR _this$[ebp], ecx
	xor	eax, eax
	mov	esp, ebp
	pop	ebp
	ret	0
?IsSPJamming@FalconEntity@@UAEHXZ ENDP			; FalconEntity::IsSPJamming
_TEXT	ENDS
; Function compile flags: /Odtp
; File c:\users\zhitao li\documents\visual studio 2012\projects\freefalcon\falclib\include\falcent.h
;	COMDAT ?IsTaskForce@FalconEntity@@UAEHXZ
_TEXT	SEGMENT
_this$ = -4						; size = 4
?IsTaskForce@FalconEntity@@UAEHXZ PROC			; FalconEntity::IsTaskForce, COMDAT
; _this$ = ecx

; 158  : 	virtual int IsTaskForce (void)				{ return FALSE; }

	push	ebp
	mov	ebp, esp
	push	ecx
	mov	DWORD PTR _this$[ebp], ecx
	xor	eax, eax
	mov	esp, ebp
	pop	ebp
	ret	0
?IsTaskForce@FalconEntity@@UAEHXZ ENDP			; FalconEntity::IsTaskForce
_TEXT	ENDS
; Function compile flags: /Odtp
; File c:\users\zhitao li\documents\visual studio 2012\projects\freefalcon\falclib\include\falcent.h
;	COMDAT ?IsTeam@FalconEntity@@UAEHXZ
_TEXT	SEGMENT
_this$ = -4						; size = 4
?IsTeam@FalconEntity@@UAEHXZ PROC			; FalconEntity::IsTeam, COMDAT
; _this$ = ecx

; 157  : 	virtual int IsTeam (void)					{ return FALSE; }

	push	ebp
	mov	ebp, esp
	push	ecx
	mov	DWORD PTR _this$[ebp], ecx
	xor	eax, eax
	mov	esp, ebp
	pop	ebp
	ret	0
?IsTeam@FalconEntity@@UAEHXZ ENDP			; FalconEntity::IsTeam
_TEXT	ENDS
; Function compile flags: /Odtp
; File c:\users\zhitao li\documents\visual studio 2012\projects\freefalcon\falclib\include\falcent.h
;	COMDAT ?IsPackage@FalconEntity@@UAEHXZ
_TEXT	SEGMENT
_this$ = -4						; size = 4
?IsPackage@FalconEntity@@UAEHXZ PROC			; FalconEntity::IsPackage, COMDAT
; _this$ = ecx

; 156  : 	virtual int IsPackage (void)				{ return FALSE; }

	push	ebp
	mov	ebp, esp
	push	ecx
	mov	DWORD PTR _this$[ebp], ecx
	xor	eax, eax
	mov	esp, ebp
	pop	ebp
	ret	0
?IsPackage@FalconEntity@@UAEHXZ ENDP			; FalconEntity::IsPackage
_TEXT	ENDS
; Function compile flags: /Odtp
; File c:\users\zhitao li\documents\visual studio 2012\projects\freefalcon\falclib\include\falcent.h
;	COMDAT ?IsSquadron@FalconEntity@@UAEHXZ
_TEXT	SEGMENT
_this$ = -4						; size = 4
?IsSquadron@FalconEntity@@UAEHXZ PROC			; FalconEntity::IsSquadron, COMDAT
; _this$ = ecx

; 155  : 	virtual int IsSquadron (void)				{ return FALSE; }

	push	ebp
	mov	ebp, esp
	push	ecx
	mov	DWORD PTR _this$[ebp], ecx
	xor	eax, eax
	mov	esp, ebp
	pop	ebp
	ret	0
?IsSquadron@FalconEntity@@UAEHXZ ENDP			; FalconEntity::IsSquadron
_TEXT	ENDS
; Function compile flags: /Odtp
; File c:\users\zhitao li\documents\visual studio 2012\projects\freefalcon\falclib\include\falcent.h
;	COMDAT ?IsFlight@FalconEntity@@UBEHXZ
_TEXT	SEGMENT
_this$ = -4						; size = 4
?IsFlight@FalconEntity@@UBEHXZ PROC			; FalconEntity::IsFlight, COMDAT
; _this$ = ecx

; 154  : 	virtual int IsFlight() const				{ return FALSE; }

	push	ebp
	mov	ebp, esp
	push	ecx
	mov	DWORD PTR _this$[ebp], ecx
	xor	eax, eax
	mov	esp, ebp
	pop	ebp
	ret	0
?IsFlight@FalconEntity@@UBEHXZ ENDP			; FalconEntity::IsFlight
_TEXT	ENDS
; Function compile flags: /Odtp
; File c:\users\zhitao li\documents\visual studio 2012\projects\freefalcon\falclib\include\falcent.h
;	COMDAT ?IsBrigade@FalconEntity@@UAEHXZ
_TEXT	SEGMENT
_this$ = -4						; size = 4
?IsBrigade@FalconEntity@@UAEHXZ PROC			; FalconEntity::IsBrigade, COMDAT
; _this$ = ecx

; 153  : 	virtual int IsBrigade (void)				{ return FALSE; }

	push	ebp
	mov	ebp, esp
	push	ecx
	mov	DWORD PTR _this$[ebp], ecx
	xor	eax, eax
	mov	esp, ebp
	pop	ebp
	ret	0
?IsBrigade@FalconEntity@@UAEHXZ ENDP			; FalconEntity::IsBrigade
_TEXT	ENDS
; Function compile flags: /Odtp
; File c:\users\zhitao li\documents\visual studio 2012\projects\freefalcon\falclib\include\falcent.h
;	COMDAT ?IsBattalion@FalconEntity@@UAEHXZ
_TEXT	SEGMENT
_this$ = -4						; size = 4
?IsBattalion@FalconEntity@@UAEHXZ PROC			; FalconEntity::IsBattalion, COMDAT
; _this$ = ecx

; 152  : 	virtual int IsBattalion (void)				{ return FALSE; }

	push	ebp
	mov	ebp, esp
	push	ecx
	mov	DWORD PTR _this$[ebp], ecx
	xor	eax, eax
	mov	esp, ebp
	pop	ebp
	ret	0
?IsBattalion@FalconEntity@@UAEHXZ ENDP			; FalconEntity::IsBattalion
_TEXT	ENDS
; Function compile flags: /Odtp
; File c:\users\zhitao li\documents\visual studio 2012\projects\freefalcon\falclib\include\falcent.h
;	COMDAT ?IsObjective@FalconEntity@@UAEHXZ
_TEXT	SEGMENT
_this$ = -4						; size = 4
?IsObjective@FalconEntity@@UAEHXZ PROC			; FalconEntity::IsObjective, COMDAT
; _this$ = ecx

; 151  : 	virtual int IsObjective (void)				{ return FALSE; }

	push	ebp
	mov	ebp, esp
	push	ecx
	mov	DWORD PTR _this$[ebp], ecx
	xor	eax, eax
	mov	esp, ebp
	pop	ebp
	ret	0
?IsObjective@FalconEntity@@UAEHXZ ENDP			; FalconEntity::IsObjective
_TEXT	ENDS
; Function compile flags: /Odtp
; File c:\users\zhitao li\documents\visual studio 2012\projects\freefalcon\falclib\include\falcent.h
;	COMDAT ?IsUnit@FalconEntity@@UAEHXZ
_TEXT	SEGMENT
_this$ = -4						; size = 4
?IsUnit@FalconEntity@@UAEHXZ PROC			; FalconEntity::IsUnit, COMDAT
; _this$ = ecx

; 150  : 	virtual int IsUnit (void)					{ return FALSE; }

	push	ebp
	mov	ebp, esp
	push	ecx
	mov	DWORD PTR _this$[ebp], ecx
	xor	eax, eax
	mov	esp, ebp
	pop	ebp
	ret	0
?IsUnit@FalconEntity@@UAEHXZ ENDP			; FalconEntity::IsUnit
_TEXT	ENDS
; Function compile flags: /Odtp
; File c:\users\zhitao li\documents\visual studio 2012\projects\freefalcon\falclib\include\falcent.h
;	COMDAT ?GetMovementType@FalconEntity@@UAE?AW4MoveType@@XZ
_TEXT	SEGMENT
_this$ = -4						; size = 4
?GetMovementType@FalconEntity@@UAE?AW4MoveType@@XZ PROC	; FalconEntity::GetMovementType, COMDAT
; _this$ = ecx

; 149  : 	virtual MoveType GetMovementType (void)		{ return NoMove; }

	push	ebp
	mov	ebp, esp
	push	ecx
	mov	DWORD PTR _this$[ebp], ecx
	xor	eax, eax
	mov	esp, ebp
	pop	ebp
	ret	0
?GetMovementType@FalconEntity@@UAE?AW4MoveType@@XZ ENDP	; FalconEntity::GetMovementType
_TEXT	ENDS
; Function compile flags: /Odtp
; File c:\users\zhitao li\documents\visual studio 2012\projects\freefalcon\falclib\include\falcent.h
;	COMDAT ?IsEmitting@FalconEntity@@UAEHXZ
_TEXT	SEGMENT
_this$ = -4						; size = 4
?IsEmitting@FalconEntity@@UAEHXZ PROC			; FalconEntity::IsEmitting, COMDAT
; _this$ = ecx

; 145  : 	virtual int IsEmitting (void)				{ return FALSE; }

	push	ebp
	mov	ebp, esp
	push	ecx
	mov	DWORD PTR _this$[ebp], ecx
	xor	eax, eax
	mov	esp, ebp
	pop	ebp
	ret	0
?IsEmitting@FalconEntity@@UAEHXZ ENDP			; FalconEntity::IsEmitting
_TEXT	ENDS
; Function compile flags: /Odtp
; File c:\users\zhitao li\documents\visual studio 2012\projects\freefalcon\falclib\include\falcent.h
;	COMDAT ?IsDead@FalconEntity@@UAEHXZ
_TEXT	SEGMENT
_this$ = -4						; size = 4
?IsDead@FalconEntity@@UAEHXZ PROC			; FalconEntity::IsDead, COMDAT
; _this$ = ecx

; 144  : 	virtual int IsDead (void)					{ return FALSE; }

	push	ebp
	mov	ebp, esp
	push	ecx
	mov	DWORD PTR _this$[ebp], ecx
	xor	eax, eax
	mov	esp, ebp
	pop	ebp
	ret	0
?IsDead@FalconEntity@@UAEHXZ ENDP			; FalconEntity::IsDead
_TEXT	ENDS
; Function compile flags: /Odtp
; File c:\users\zhitao li\documents\visual studio 2012\projects\freefalcon\falclib\include\falcent.h
;	COMDAT ?IsExploding@FalconEntity@@UAEHXZ
_TEXT	SEGMENT
_this$ = -4						; size = 4
?IsExploding@FalconEntity@@UAEHXZ PROC			; FalconEntity::IsExploding, COMDAT
; _this$ = ecx

; 143  : 	virtual int IsExploding (void)				{ return FALSE; }

	push	ebp
	mov	ebp, esp
	push	ecx
	mov	DWORD PTR _this$[ebp], ecx
	xor	eax, eax
	mov	esp, ebp
	pop	ebp
	ret	0
?IsExploding@FalconEntity@@UAEHXZ ENDP			; FalconEntity::IsExploding
_TEXT	ENDS
; Function compile flags: /Odtp
; File c:\users\zhitao li\documents\visual studio 2012\projects\freefalcon\falclib\include\falcent.h
;	COMDAT ?IsWeapon@FalconEntity@@UAEHXZ
_TEXT	SEGMENT
_this$ = -4						; size = 4
?IsWeapon@FalconEntity@@UAEHXZ PROC			; FalconEntity::IsWeapon, COMDAT
; _this$ = ecx

; 142  : 	virtual int IsWeapon (void)   				{ return FALSE; }

	push	ebp
	mov	ebp, esp
	push	ecx
	mov	DWORD PTR _this$[ebp], ecx
	xor	eax, eax
	mov	esp, ebp
	pop	ebp
	ret	0
?IsWeapon@FalconEntity@@UAEHXZ ENDP			; FalconEntity::IsWeapon
_TEXT	ENDS
; Function compile flags: /Odtp
; File c:\users\zhitao li\documents\visual studio 2012\projects\freefalcon\falclib\include\falcent.h
;	COMDAT ?IsShip@FalconEntity@@UAEHXZ
_TEXT	SEGMENT
_this$ = -4						; size = 4
?IsShip@FalconEntity@@UAEHXZ PROC			; FalconEntity::IsShip, COMDAT
; _this$ = ecx

; 141  : 	virtual int IsShip (void) 			        { return FALSE; }

	push	ebp
	mov	ebp, esp
	push	ecx
	mov	DWORD PTR _this$[ebp], ecx
	xor	eax, eax
	mov	esp, ebp
	pop	ebp
	ret	0
?IsShip@FalconEntity@@UAEHXZ ENDP			; FalconEntity::IsShip
_TEXT	ENDS
; Function compile flags: /Odtp
; File c:\users\zhitao li\documents\visual studio 2012\projects\freefalcon\falclib\include\falcent.h
;	COMDAT ?IsGroundVehicle@FalconEntity@@UAEHXZ
_TEXT	SEGMENT
_this$ = -4						; size = 4
?IsGroundVehicle@FalconEntity@@UAEHXZ PROC		; FalconEntity::IsGroundVehicle, COMDAT
; _this$ = ecx

; 140  : 	virtual int IsGroundVehicle (void) 			{ return FALSE; }

	push	ebp
	mov	ebp, esp
	push	ecx
	mov	DWORD PTR _this$[ebp], ecx
	xor	eax, eax
	mov	esp, ebp
	pop	ebp
	ret	0
?IsGroundVehicle@FalconEntity@@UAEHXZ ENDP		; FalconEntity::IsGroundVehicle
_TEXT	ENDS
; Function compile flags: /Odtp
; File c:\users\zhitao li\documents\visual studio 2012\projects\freefalcon\falclib\include\falcent.h
;	COMDAT ?IsAirplane@FalconEntity@@UAEHXZ
_TEXT	SEGMENT
_this$ = -4						; size = 4
?IsAirplane@FalconEntity@@UAEHXZ PROC			; FalconEntity::IsAirplane, COMDAT
; _this$ = ecx

; 139  : 	virtual int IsAirplane (void)	   			{ return FALSE; }

	push	ebp
	mov	ebp, esp
	push	ecx
	mov	DWORD PTR _this$[ebp], ecx
	xor	eax, eax
	mov	esp, ebp
	pop	ebp
	ret	0
?IsAirplane@FalconEntity@@UAEHXZ ENDP			; FalconEntity::IsAirplane
_TEXT	ENDS
; Function compile flags: /Odtp
; File c:\users\zhitao li\documents\visual studio 2012\projects\freefalcon\falclib\include\falcent.h
;	COMDAT ?IsEject@FalconEntity@@UAEHXZ
_TEXT	SEGMENT
_this$ = -4						; size = 4
?IsEject@FalconEntity@@UAEHXZ PROC			; FalconEntity::IsEject, COMDAT
; _this$ = ecx

; 138  : 	virtual int IsEject (void)					{ return FALSE; }

	push	ebp
	mov	ebp, esp
	push	ecx
	mov	DWORD PTR _this$[ebp], ecx
	xor	eax, eax
	mov	esp, ebp
	pop	ebp
	ret	0
?IsEject@FalconEntity@@UAEHXZ ENDP			; FalconEntity::IsEject
_TEXT	ENDS
; Function compile flags: /Odtp
; File c:\users\zhitao li\documents\visual studio 2012\projects\freefalcon\falclib\include\falcent.h
;	COMDAT ?IsHelicopter@FalconEntity@@UAEHXZ
_TEXT	SEGMENT
_this$ = -4						; size = 4
?IsHelicopter@FalconEntity@@UAEHXZ PROC			; FalconEntity::IsHelicopter, COMDAT
; _this$ = ecx

; 137  : 	virtual int IsHelicopter (void)				{ return FALSE; }

	push	ebp
	mov	ebp, esp
	push	ecx
	mov	DWORD PTR _this$[ebp], ecx
	xor	eax, eax
	mov	esp, ebp
	pop	ebp
	ret	0
?IsHelicopter@FalconEntity@@UAEHXZ ENDP			; FalconEntity::IsHelicopter
_TEXT	ENDS
; Function compile flags: /Odtp
; File c:\users\zhitao li\documents\visual studio 2012\projects\freefalcon\falclib\include\falcent.h
;	COMDAT ?IsStatic@FalconEntity@@UAEHXZ
_TEXT	SEGMENT
_this$ = -4						; size = 4
?IsStatic@FalconEntity@@UAEHXZ PROC			; FalconEntity::IsStatic, COMDAT
; _this$ = ecx

; 136  : 	virtual int IsStatic (void)					{ return FALSE; }

	push	ebp
	mov	ebp, esp
	push	ecx
	mov	DWORD PTR _this$[ebp], ecx
	xor	eax, eax
	mov	esp, ebp
	pop	ebp
	ret	0
?IsStatic@FalconEntity@@UAEHXZ ENDP			; FalconEntity::IsStatic
_TEXT	ENDS
; Function compile flags: /Odtp
; File c:\users\zhitao li\documents\visual studio 2012\projects\freefalcon\falclib\include\falcent.h
;	COMDAT ?IsVehicle@FalconEntity@@UAEHXZ
_TEXT	SEGMENT
_this$ = -4						; size = 4
?IsVehicle@FalconEntity@@UAEHXZ PROC			; FalconEntity::IsVehicle, COMDAT
; _this$ = ecx

; 135  : 	virtual int IsVehicle (void)				{ return FALSE; }

	push	ebp
	mov	ebp, esp
	push	ecx
	mov	DWORD PTR _this$[ebp], ecx
	xor	eax, eax
	mov	esp, ebp
	pop	ebp
	ret	0
?IsVehicle@FalconEntity@@UAEHXZ ENDP			; FalconEntity::IsVehicle
_TEXT	ENDS
; Function compile flags: /Odtp
; File c:\users\zhitao li\documents\visual studio 2012\projects\freefalcon\falclib\include\falcent.h
;	COMDAT ?IsMover@FalconEntity@@UAEHXZ
_TEXT	SEGMENT
_this$ = -4						; size = 4
?IsMover@FalconEntity@@UAEHXZ PROC			; FalconEntity::IsMover, COMDAT
; _this$ = ecx

; 134  : 	virtual int IsMover (void)					{ return FALSE; }

	push	ebp
	mov	ebp, esp
	push	ecx
	mov	DWORD PTR _this$[ebp], ecx
	xor	eax, eax
	mov	esp, ebp
	pop	ebp
	ret	0
?IsMover@FalconEntity@@UAEHXZ ENDP			; FalconEntity::IsMover
_TEXT	ENDS
; Function compile flags: /Odtp
; File c:\users\zhitao li\documents\visual studio 2012\projects\freefalcon\falclib\include\falcent.h
;	COMDAT ?IsGun@FalconEntity@@UAEHXZ
_TEXT	SEGMENT
_this$ = -4						; size = 4
?IsGun@FalconEntity@@UAEHXZ PROC			; FalconEntity::IsGun, COMDAT
; _this$ = ecx

; 133  : 	virtual int IsGun (void)					{ return FALSE; }

	push	ebp
	mov	ebp, esp
	push	ecx
	mov	DWORD PTR _this$[ebp], ecx
	xor	eax, eax
	mov	esp, ebp
	pop	ebp
	ret	0
?IsGun@FalconEntity@@UAEHXZ ENDP			; FalconEntity::IsGun
_TEXT	ENDS
; Function compile flags: /Odtp
; File c:\users\zhitao li\documents\visual studio 2012\projects\freefalcon\falclib\include\falcent.h
;	COMDAT ?IsBomb@FalconEntity@@UAEHXZ
_TEXT	SEGMENT
_this$ = -4						; size = 4
?IsBomb@FalconEntity@@UAEHXZ PROC			; FalconEntity::IsBomb, COMDAT
; _this$ = ecx

; 132  : 	virtual int IsBomb (void)					{ return FALSE; }

	push	ebp
	mov	ebp, esp
	push	ecx
	mov	DWORD PTR _this$[ebp], ecx
	xor	eax, eax
	mov	esp, ebp
	pop	ebp
	ret	0
?IsBomb@FalconEntity@@UAEHXZ ENDP			; FalconEntity::IsBomb
_TEXT	ENDS
; Function compile flags: /Odtp
; File c:\users\zhitao li\documents\visual studio 2012\projects\freefalcon\falclib\include\falcent.h
;	COMDAT ?IsLauncher@FalconEntity@@UAEHXZ
_TEXT	SEGMENT
_this$ = -4						; size = 4
?IsLauncher@FalconEntity@@UAEHXZ PROC			; FalconEntity::IsLauncher, COMDAT
; _this$ = ecx

; 131  : 	virtual int IsLauncher (void)               { return FALSE; } // MLR 3/4/2004 - rocket pods

	push	ebp
	mov	ebp, esp
	push	ecx
	mov	DWORD PTR _this$[ebp], ecx
	xor	eax, eax
	mov	esp, ebp
	pop	ebp
	ret	0
?IsLauncher@FalconEntity@@UAEHXZ ENDP			; FalconEntity::IsLauncher
_TEXT	ENDS
; Function compile flags: /Odtp
; File c:\users\zhitao li\documents\visual studio 2012\projects\freefalcon\falclib\include\falcent.h
;	COMDAT ?IsMissile@FalconEntity@@UAEHXZ
_TEXT	SEGMENT
_this$ = -4						; size = 4
?IsMissile@FalconEntity@@UAEHXZ PROC			; FalconEntity::IsMissile, COMDAT
; _this$ = ecx

; 130  : 	virtual int IsMissile (void)				{ return FALSE; }

	push	ebp
	mov	ebp, esp
	push	ecx
	mov	DWORD PTR _this$[ebp], ecx
	xor	eax, eax
	mov	esp, ebp
	pop	ebp
	ret	0
?IsMissile@FalconEntity@@UAEHXZ ENDP			; FalconEntity::IsMissile
_TEXT	ENDS
; Function compile flags: /Odtp
; File c:\users\zhitao li\documents\visual studio 2012\projects\freefalcon\falclib\include\falcent.h
;	COMDAT ?HasEntity@FalconEntity@@UBEHPAVVuEntity@@@Z
_TEXT	SEGMENT
_this$ = -8						; size = 4
tv69 = -4						; size = 4
_e$ = 8							; size = 4
?HasEntity@FalconEntity@@UBEHPAVVuEntity@@@Z PROC	; FalconEntity::HasEntity, COMDAT
; _this$ = ecx

; 129  : 	virtual int HasEntity(VuEntity *e) const    { return this == e; } // sfr: added for new driver

	push	ebp
	mov	ebp, esp
	sub	esp, 8
	mov	DWORD PTR _this$[ebp], ecx
	mov	eax, DWORD PTR _this$[ebp]
	cmp	eax, DWORD PTR _e$[ebp]
	jne	SHORT $LN3@HasEntity
	mov	DWORD PTR tv69[ebp], 1
	jmp	SHORT $LN4@HasEntity
$LN3@HasEntity:
	mov	DWORD PTR tv69[ebp], 0
$LN4@HasEntity:
	mov	eax, DWORD PTR tv69[ebp]
	mov	esp, ebp
	pop	ebp
	ret	4
?HasEntity@FalconEntity@@UBEHPAVVuEntity@@@Z ENDP	; FalconEntity::HasEntity
_TEXT	ENDS
; Function compile flags: /Odtp
; File c:\users\zhitao li\documents\visual studio 2012\projects\freefalcon\falclib\include\falcent.h
;	COMDAT ?OnGround@FalconEntity@@UAEHXZ
_TEXT	SEGMENT
_this$ = -4						; size = 4
?OnGround@FalconEntity@@UAEHXZ PROC			; FalconEntity::OnGround, COMDAT
; _this$ = ecx

; 128  : 	virtual int OnGround (void)					{ return FALSE; }

	push	ebp
	mov	ebp, esp
	push	ecx
	mov	DWORD PTR _this$[ebp], ecx
	xor	eax, eax
	mov	esp, ebp
	pop	ebp
	ret	0
?OnGround@FalconEntity@@UAEHXZ ENDP			; FalconEntity::OnGround
_TEXT	ENDS
; Function compile flags: /Odtp
; File c:\users\zhitao li\documents\visual studio 2012\projects\freefalcon\falclib\include\falcent.h
;	COMDAT ?CombatClass@FalconEntity@@UAEHXZ
_TEXT	SEGMENT
_this$ = -4						; size = 4
?CombatClass@FalconEntity@@UAEHXZ PROC			; FalconEntity::CombatClass, COMDAT
; _this$ = ecx

; 127  : 	virtual int CombatClass (void)				{ return 999; } // 2002-02-25 ADDED BY S.G. No combat class for non flight or non aircraft class

	push	ebp
	mov	ebp, esp
	push	ecx
	mov	DWORD PTR _this$[ebp], ecx
	mov	eax, 999				; 000003e7H
	mov	esp, ebp
	pop	ebp
	ret	0
?CombatClass@FalconEntity@@UAEHXZ ENDP			; FalconEntity::CombatClass
_TEXT	ENDS
; Function compile flags: /Odtp
; File c:\users\zhitao li\documents\visual studio 2012\projects\freefalcon\falclib\include\falcent.h
;	COMDAT ?SetSearchMode@FalconEntity@@UAEXE@Z
_TEXT	SEGMENT
_this$ = -4						; size = 4
___formal$ = 8						; size = 1
?SetSearchMode@FalconEntity@@UAEXE@Z PROC		; FalconEntity::SetSearchMode, COMDAT
; _this$ = ecx

; 126  : 	virtual void SetSearchMode (uchar)		{};

	push	ebp
	mov	ebp, esp
	push	ecx
	mov	DWORD PTR _this$[ebp], ecx
	mov	esp, ebp
	pop	ebp
	ret	4
?SetSearchMode@FalconEntity@@UAEXE@Z ENDP		; FalconEntity::SetSearchMode
_TEXT	ENDS
; Function compile flags: /Odtp
; File c:\users\zhitao li\documents\visual studio 2012\projects\freefalcon\falclib\include\falcent.h
;	COMDAT ?ReturnToSearch@FalconEntity@@UAEXXZ
_TEXT	SEGMENT
_this$ = -4						; size = 4
?ReturnToSearch@FalconEntity@@UAEXXZ PROC		; FalconEntity::ReturnToSearch, COMDAT
; _this$ = ecx

; 124  : 	virtual void ReturnToSearch (void)			{};

	push	ebp
	mov	ebp, esp
	push	ecx
	mov	DWORD PTR _this$[ebp], ecx
	mov	esp, ebp
	pop	ebp
	ret	0
?ReturnToSearch@FalconEntity@@UAEXXZ ENDP		; FalconEntity::ReturnToSearch
_TEXT	ENDS
; Function compile flags: /Odtp
; File c:\users\zhitao li\documents\visual studio 2012\projects\freefalcon\falclib\include\falcent.h
;	COMDAT ?SetRadarMode@FalconEntity@@UAEXE@Z
_TEXT	SEGMENT
_this$ = -4						; size = 4
___formal$ = 8						; size = 1
?SetRadarMode@FalconEntity@@UAEXE@Z PROC		; FalconEntity::SetRadarMode, COMDAT
; _this$ = ecx

; 123  : 	virtual void SetRadarMode (uchar)		{};

	push	ebp
	mov	ebp, esp
	push	ecx
	mov	DWORD PTR _this$[ebp], ecx
	mov	esp, ebp
	pop	ebp
	ret	4
?SetRadarMode@FalconEntity@@UAEXE@Z ENDP		; FalconEntity::SetRadarMode
_TEXT	ENDS
; Function compile flags: /Odtp
; File c:\users\zhitao li\documents\visual studio 2012\projects\freefalcon\falclib\include\falcent.h
;	COMDAT ?GetRadarMode@FalconEntity@@UAEHXZ
_TEXT	SEGMENT
_this$ = -4						; size = 4
?GetRadarMode@FalconEntity@@UAEHXZ PROC			; FalconEntity::GetRadarMode, COMDAT
; _this$ = ecx

; 121  : 	virtual int GetRadarMode (void)				{ return FEC_RADAR_OFF; }

	push	ebp
	mov	ebp, esp
	push	ecx
	mov	DWORD PTR _this$[ebp], ecx
	xor	eax, eax
	mov	esp, ebp
	pop	ebp
	ret	0
?GetRadarMode@FalconEntity@@UAEHXZ ENDP			; FalconEntity::GetRadarMode
_TEXT	ENDS
; Function compile flags: /Odtp
; File c:\users\zhitao li\documents\visual studio 2012\projects\freefalcon\falclib\falcent.cpp
_TEXT	SEGMENT
_this$ = -4						; size = 4
?GetDomain@FalconEntity@@UAEEXZ PROC			; FalconEntity::GetDomain
; _this$ = ecx

; 92   : uchar FalconEntity::GetDomain (void) {

	push	ebp
	mov	ebp, esp
	push	ecx
	mov	DWORD PTR _this$[ebp], ecx

; 93   : 	return Falcon4ClassTable[Type()-VU_LAST_ENTITY_TYPE].vuClassData.classInfo_[VU_DOMAIN];

	mov	ecx, DWORD PTR _this$[ebp]
	call	?Type@VuEntity@@QBEGXZ			; VuEntity::Type
	movzx	eax, ax
	sub	eax, 100				; 00000064H
	imul	eax, 81					; 00000051H
	add	eax, DWORD PTR ?Falcon4ClassTable@@3PAUFalcon4EntityClassType@@A ; Falcon4ClassTable
	mov	ecx, 1
	imul	ecx, 0
	mov	al, BYTE PTR [eax+ecx+8]

; 94   : }

	mov	esp, ebp
	pop	ebp
	ret	0
?GetDomain@FalconEntity@@UAEEXZ ENDP			; FalconEntity::GetDomain
_TEXT	ENDS
; Function compile flags: /Odtp
; File c:\users\zhitao li\documents\visual studio 2012\projects\freefalcon\falclib\include\falcent.h
;	COMDAT ?IsPlayer@FalconEntity@@QAEHXZ
_TEXT	SEGMENT
_this$ = -4						; size = 4
?IsPlayer@FalconEntity@@QAEHXZ PROC			; FalconEntity::IsPlayer, COMDAT
; _this$ = ecx

; 113  : 	int IsPlayer (void)							{ return IsSetFalcFlag(FEC_HASPLAYERS); };

	push	ebp
	mov	ebp, esp
	push	ecx
	mov	DWORD PTR _this$[ebp], ecx
	push	4
	mov	ecx, DWORD PTR _this$[ebp]
	call	?IsSetFalcFlag@FalconEntity@@QAEHH@Z	; FalconEntity::IsSetFalcFlag
	mov	esp, ebp
	pop	ebp
	ret	0
?IsPlayer@FalconEntity@@QAEHXZ ENDP			; FalconEntity::IsPlayer
_TEXT	ENDS
; Function compile flags: /Odtp
; File c:\users\zhitao li\documents\visual studio 2012\projects\freefalcon\falclib\include\falcent.h
;	COMDAT ?IsSetFalcFlag@FalconEntity@@QAEHH@Z
_TEXT	SEGMENT
_this$ = -4						; size = 4
_flag$ = 8						; size = 4
?IsSetFalcFlag@FalconEntity@@QAEHH@Z PROC		; FalconEntity::IsSetFalcFlag, COMDAT
; _this$ = ecx

; 112  : 	int IsSetFalcFlag (int flag)				{ return falconFlags & flag; };

	push	ebp
	mov	ebp, esp
	push	ecx
	mov	DWORD PTR _this$[ebp], ecx
	mov	eax, DWORD PTR _this$[ebp]
	movzx	eax, BYTE PTR [eax+136]
	and	eax, DWORD PTR _flag$[ebp]
	mov	esp, ebp
	pop	ebp
	ret	4
?IsSetFalcFlag@FalconEntity@@QAEHH@Z ENDP		; FalconEntity::IsSetFalcFlag
_TEXT	ENDS
; Function compile flags: /Odtp
; File c:\users\zhitao li\documents\visual studio 2012\projects\freefalcon\falclib\include\falcent.h
;	COMDAT ?IsCampBase@FalconEntity@@UAE_NXZ
_TEXT	SEGMENT
_this$ = -4						; size = 4
?IsCampBase@FalconEntity@@UAE_NXZ PROC			; FalconEntity::IsCampBase, COMDAT
; _this$ = ecx

; 99   : 	virtual bool IsCampBase() { return false; }

	push	ebp
	mov	ebp, esp
	push	ecx
	mov	DWORD PTR _this$[ebp], ecx
	xor	al, al
	mov	esp, ebp
	pop	ebp
	ret	0
?IsCampBase@FalconEntity@@UAE_NXZ ENDP			; FalconEntity::IsCampBase
_TEXT	ENDS
; Function compile flags: /Odtp
; File c:\users\zhitao li\documents\visual studio 2012\projects\freefalcon\falclib\include\falcent.h
;	COMDAT ?IsSimBase@FalconEntity@@UAE_NXZ
_TEXT	SEGMENT
_this$ = -4						; size = 4
?IsSimBase@FalconEntity@@UAE_NXZ PROC			; FalconEntity::IsSimBase, COMDAT
; _this$ = ecx

; 98   : 	virtual bool IsSimBase() { return false; }

	push	ebp
	mov	ebp, esp
	push	ecx
	mov	DWORD PTR _this$[ebp], ecx
	xor	al, al
	mov	esp, ebp
	pop	ebp
	ret	0
?IsSimBase@FalconEntity@@UAE_NXZ ENDP			; FalconEntity::IsSimBase
_TEXT	ENDS
; Function compile flags: /Odtp
; File c:\users\zhitao li\documents\visual studio 2012\projects\freefalcon\falclib\falcent.cpp
_TEXT	SEGMENT
_this$ = -4						; size = 4
?CleanupLocalData@FalconEntity@@AAEXXZ PROC		; FalconEntity::CleanupLocalData
; _this$ = ecx

; 66   : void FalconEntity::CleanupLocalData(){

	push	ebp
	mov	ebp, esp
	push	ecx
	mov	DWORD PTR _this$[ebp], ecx

; 67   : 	// nothing to do here
; 68   : }

	mov	esp, ebp
	pop	ebp
	ret	0
?CleanupLocalData@FalconEntity@@AAEXXZ ENDP		; FalconEntity::CleanupLocalData
_TEXT	ENDS
; Function compile flags: /Odtp
; File c:\users\zhitao li\documents\visual studio 2012\projects\freefalcon\falclib\falcent.cpp
_TEXT	SEGMENT
_this$ = -4						; size = 4
?InitLocalData@FalconEntity@@AAEXXZ PROC		; FalconEntity::InitLocalData
; _this$ = ecx

; 53   : void FalconEntity::InitLocalData(){

	push	ebp
	mov	ebp, esp
	push	ecx
	mov	DWORD PTR _this$[ebp], ecx

; 54   : 	falconType = 0;

	mov	eax, DWORD PTR _this$[ebp]
	mov	BYTE PTR [eax+137], 0

; 55   : 	falconFlags = 0;

	mov	ecx, DWORD PTR _this$[ebp]
	mov	BYTE PTR [ecx+136], 0

; 56   : 	dirty_falcent = 0;

	mov	edx, DWORD PTR _this$[ebp]
	mov	DWORD PTR [edx+124], 0

; 57   : 	dirty_classes = 0;

	mov	eax, DWORD PTR _this$[ebp]
	mov	DWORD PTR [eax+128], 0

; 58   : 	dirty_score = 0;

	mov	ecx, DWORD PTR _this$[ebp]
	mov	DWORD PTR [ecx+132], 0

; 59   : 	feLocalFlags = 0;

	mov	edx, DWORD PTR _this$[ebp]
	mov	DWORD PTR [edx+140], 0

; 60   : }

	mov	esp, ebp
	pop	ebp
	ret	0
?InitLocalData@FalconEntity@@AAEXXZ ENDP		; FalconEntity::InitLocalData
_TEXT	ENDS
; Function compile flags: /Odtp
; File c:\users\zhitao li\documents\visual studio 2012\projects\freefalcon\falclib\falcent.cpp
_TEXT	SEGMENT
_this$ = -4						; size = 4
?RemovalCallback@FalconEntity@@UAEHXZ PROC		; FalconEntity::RemovalCallback
; _this$ = ecx

; 512  : VU_ERRCODE FalconEntity::RemovalCallback(){

	push	ebp
	mov	ebp, esp
	push	ecx
	mov	DWORD PTR _this$[ebp], ecx

; 513  : 	//CleanupData();
; 514  : 	return VU_SUCCESS;

	mov	eax, 1

; 515  : }

	mov	esp, ebp
	pop	ebp
	ret	0
?RemovalCallback@FalconEntity@@UAEHXZ ENDP		; FalconEntity::RemovalCallback
_TEXT	ENDS
; Function compile flags: /Odtp
; File c:\users\zhitao li\documents\visual studio 2012\projects\freefalcon\falclib\falcent.cpp
_TEXT	SEGMENT
_this$ = -4						; size = 4
?CleanupData@FalconEntity@@UAEXXZ PROC			; FalconEntity::CleanupData
; _this$ = ecx

; 62   : void FalconEntity::CleanupData(){

	push	ebp
	mov	ebp, esp
	push	ecx
	mov	DWORD PTR _this$[ebp], ecx

; 63   : 	CleanupLocalData();

	mov	ecx, DWORD PTR _this$[ebp]
	call	?CleanupLocalData@FalconEntity@@AAEXXZ	; FalconEntity::CleanupLocalData

; 64   : }

	mov	esp, ebp
	pop	ebp
	ret	0
?CleanupData@FalconEntity@@UAEXXZ ENDP			; FalconEntity::CleanupData
_TEXT	ENDS
; Function compile flags: /Odtp
; File c:\users\zhitao li\documents\visual studio 2012\projects\freefalcon\falclib\falcent.cpp
_TEXT	SEGMENT
_this$ = -4						; size = 4
?InitData@FalconEntity@@UAEXXZ PROC			; FalconEntity::InitData
; _this$ = ecx

; 49   : void FalconEntity::InitData(){

	push	ebp
	mov	ebp, esp
	push	ecx
	mov	DWORD PTR _this$[ebp], ecx

; 50   : 	InitLocalData();

	mov	ecx, DWORD PTR _this$[ebp]
	call	?InitLocalData@FalconEntity@@AAEXXZ	; FalconEntity::InitLocalData

; 51   : }

	mov	esp, ebp
	pop	ebp
	ret	0
?InitData@FalconEntity@@UAEXXZ ENDP			; FalconEntity::InitData
_TEXT	ENDS
; Function compile flags: /Odtp
; File c:\users\zhitao li\documents\visual studio 2012\projects\freefalcon\falclib\falcent.cpp
_TEXT	SEGMENT
_this$ = -16						; size = 4
__$EHRec$ = -12						; size = 12
??1FalconEntity@@UAE@XZ PROC				; FalconEntity::~FalconEntity
; _this$ = ecx

; 45   : FalconEntity::~FalconEntity(void) {

	push	ebp
	mov	ebp, esp
	push	-1
	push	__ehhandler$??1FalconEntity@@UAE@XZ
	mov	eax, DWORD PTR fs:0
	push	eax
	push	ecx
	mov	eax, DWORD PTR ___security_cookie
	xor	eax, ebp
	push	eax
	lea	eax, DWORD PTR __$EHRec$[ebp]
	mov	DWORD PTR fs:0, eax
	mov	DWORD PTR _this$[ebp], ecx
	mov	eax, DWORD PTR _this$[ebp]
	mov	DWORD PTR [eax], OFFSET ??_7FalconEntity@@6B@
	mov	DWORD PTR __$EHRec$[ebp+8], 0

; 46   : 	CleanupLocalData();

	mov	ecx, DWORD PTR _this$[ebp]
	call	?CleanupLocalData@FalconEntity@@AAEXXZ	; FalconEntity::CleanupLocalData

; 47   : }

	mov	DWORD PTR __$EHRec$[ebp+8], -1
	mov	ecx, DWORD PTR _this$[ebp]
	call	??1VuEntity@@MAE@XZ			; VuEntity::~VuEntity
	mov	ecx, DWORD PTR __$EHRec$[ebp]
	mov	DWORD PTR fs:0, ecx
	pop	ecx
	mov	esp, ebp
	pop	ebp
	ret	0
_TEXT	ENDS
text$x	SEGMENT
__unwindfunclet$??1FalconEntity@@UAE@XZ$0:
	mov	ecx, DWORD PTR _this$[ebp]
	jmp	??1VuEntity@@MAE@XZ			; VuEntity::~VuEntity
__ehhandler$??1FalconEntity@@UAE@XZ:
	mov	edx, DWORD PTR [esp+8]
	lea	eax, DWORD PTR [edx+12]
	mov	ecx, DWORD PTR [edx-8]
	xor	ecx, eax
	call	@__security_check_cookie@4
	mov	eax, OFFSET __ehfuncinfo$??1FalconEntity@@UAE@XZ
	jmp	___CxxFrameHandler3
text$x	ENDS
??1FalconEntity@@UAE@XZ ENDP				; FalconEntity::~FalconEntity
; Function compile flags: /Odtp
; File c:\users\zhitao li\documents\visual studio 2012\projects\freefalcon\falclib\falcent.cpp
_TEXT	SEGMENT
_this$ = -4						; size = 4
?SaveSize@FalconEntity@@UAEHXZ PROC			; FalconEntity::SaveSize
; _this$ = ecx

; 87   : int FalconEntity::SaveSize(void) {

	push	ebp
	mov	ebp, esp
	push	ecx
	mov	DWORD PTR _this$[ebp], ecx

; 88   : 	return VuEntity::SaveSize() + sizeof (falconType) + sizeof (uchar);

	mov	ecx, DWORD PTR _this$[ebp]
	call	?SaveSize@VuEntity@@UAEHXZ		; VuEntity::SaveSize
	add	eax, 2

; 89   : 	//   return VuEntity::SaveSize();
; 90   : }

	mov	esp, ebp
	pop	ebp
	ret	0
?SaveSize@FalconEntity@@UAEHXZ ENDP			; FalconEntity::SaveSize
_TEXT	ENDS
; Function compile flags: /Odtp
; File c:\users\zhitao li\documents\visual studio 2012\projects\freefalcon\falclib\falcent.cpp
_TEXT	SEGMENT
_this$ = -8						; size = 4
_saveSize$ = -4						; size = 4
_filePtr$ = 8						; size = 4
?Save@FalconEntity@@UAEHPAU_iobuf@@@Z PROC		; FalconEntity::Save
; _this$ = ecx

; 79   : int FalconEntity::Save(FILE* filePtr) {

	push	ebp
	mov	ebp, esp
	sub	esp, 8
	mov	DWORD PTR _this$[ebp], ecx

; 80   : 	int saveSize = VuEntity::Save (filePtr);

	mov	eax, DWORD PTR _filePtr$[ebp]
	push	eax
	mov	ecx, DWORD PTR _this$[ebp]
	call	?Save@VuEntity@@UAEHPAU_iobuf@@@Z	; VuEntity::Save
	mov	DWORD PTR _saveSize$[ebp], eax

; 81   : 
; 82   : 	fwrite (&falconType, sizeof (falconType), 1, filePtr);	saveSize += sizeof (falconType);

	mov	ecx, DWORD PTR _filePtr$[ebp]
	push	ecx
	push	1
	push	1
	mov	edx, DWORD PTR _this$[ebp]
	add	edx, 137				; 00000089H
	push	edx
	call	_fwrite
	add	esp, 16					; 00000010H
	mov	eax, DWORD PTR _saveSize$[ebp]
	add	eax, 1
	mov	DWORD PTR _saveSize$[ebp], eax

; 83   : 	fwrite (&falconFlags, sizeof (uchar), 1, filePtr);		saveSize += sizeof (uchar);

	mov	ecx, DWORD PTR _filePtr$[ebp]
	push	ecx
	push	1
	push	1
	mov	edx, DWORD PTR _this$[ebp]
	add	edx, 136				; 00000088H
	push	edx
	call	_fwrite
	add	esp, 16					; 00000010H
	mov	eax, DWORD PTR _saveSize$[ebp]
	add	eax, 1
	mov	DWORD PTR _saveSize$[ebp], eax

; 84   : 	return (saveSize);

	mov	eax, DWORD PTR _saveSize$[ebp]

; 85   : }

	mov	esp, ebp
	pop	ebp
	ret	4
?Save@FalconEntity@@UAEHPAU_iobuf@@@Z ENDP		; FalconEntity::Save
_TEXT	ENDS
; Function compile flags: /Odtp
; File c:\users\zhitao li\documents\visual studio 2012\projects\freefalcon\falclib\falcent.cpp
_TEXT	SEGMENT
_this$ = -8						; size = 4
_saveSize$ = -4						; size = 4
_stream$ = 8						; size = 4
?Save@FalconEntity@@UAEHPAPAE@Z PROC			; FalconEntity::Save
; _this$ = ecx

; 71   : int FalconEntity::Save(VU_BYTE** stream) {

	push	ebp
	mov	ebp, esp
	sub	esp, 8
	mov	DWORD PTR _this$[ebp], ecx

; 72   : 	int saveSize = VuEntity::Save (stream);

	mov	eax, DWORD PTR _stream$[ebp]
	push	eax
	mov	ecx, DWORD PTR _this$[ebp]
	call	?Save@VuEntity@@UAEHPAPAE@Z		; VuEntity::Save
	mov	DWORD PTR _saveSize$[ebp], eax

; 73   : 
; 74   : 	memcpy (*stream, &falconType, sizeof (falconType));		*stream += sizeof (falconType);		saveSize += sizeof (falconType);	

	push	1
	mov	ecx, DWORD PTR _this$[ebp]
	add	ecx, 137				; 00000089H
	push	ecx
	mov	edx, DWORD PTR _stream$[ebp]
	mov	eax, DWORD PTR [edx]
	push	eax
	call	_memcpy
	add	esp, 12					; 0000000cH
	mov	ecx, DWORD PTR _stream$[ebp]
	mov	edx, DWORD PTR [ecx]
	add	edx, 1
	mov	eax, DWORD PTR _stream$[ebp]
	mov	DWORD PTR [eax], edx
	mov	ecx, DWORD PTR _saveSize$[ebp]
	add	ecx, 1
	mov	DWORD PTR _saveSize$[ebp], ecx

; 75   : 	memcpy (*stream, &falconFlags, sizeof (uchar));			*stream += sizeof (uchar);			saveSize += sizeof (uchar);

	push	1
	mov	edx, DWORD PTR _this$[ebp]
	add	edx, 136				; 00000088H
	push	edx
	mov	eax, DWORD PTR _stream$[ebp]
	mov	ecx, DWORD PTR [eax]
	push	ecx
	call	_memcpy
	add	esp, 12					; 0000000cH
	mov	edx, DWORD PTR _stream$[ebp]
	mov	eax, DWORD PTR [edx]
	add	eax, 1
	mov	ecx, DWORD PTR _stream$[ebp]
	mov	DWORD PTR [ecx], eax
	mov	edx, DWORD PTR _saveSize$[ebp]
	add	edx, 1
	mov	DWORD PTR _saveSize$[ebp], edx

; 76   : 	return (saveSize);

	mov	eax, DWORD PTR _saveSize$[ebp]

; 77   : }

	mov	esp, ebp
	pop	ebp
	ret	4
?Save@FalconEntity@@UAEHPAPAE@Z ENDP			; FalconEntity::Save
_TEXT	ENDS
; Function compile flags: /Odtp
; File c:\users\zhitao li\documents\visual studio 2012\projects\freefalcon\falclib\falcent.cpp
_TEXT	SEGMENT
_this$ = -16						; size = 4
__$EHRec$ = -12						; size = 12
_filePtr$ = 8						; size = 4
??0FalconEntity@@QAE@PAU_iobuf@@@Z PROC			; FalconEntity::FalconEntity
; _this$ = ecx

; 37   : FalconEntity::FalconEntity(FILE* filePtr) : VuEntity (filePtr) {

	push	ebp
	mov	ebp, esp
	push	-1
	push	__ehhandler$??0FalconEntity@@QAE@PAU_iobuf@@@Z
	mov	eax, DWORD PTR fs:0
	push	eax
	push	ecx
	mov	eax, DWORD PTR ___security_cookie
	xor	eax, ebp
	push	eax
	lea	eax, DWORD PTR __$EHRec$[ebp]
	mov	DWORD PTR fs:0, eax
	mov	DWORD PTR _this$[ebp], ecx
	mov	eax, DWORD PTR _filePtr$[ebp]
	push	eax
	mov	ecx, DWORD PTR _this$[ebp]
	call	??0VuEntity@@QAE@PAU_iobuf@@@Z		; VuEntity::VuEntity
	mov	DWORD PTR __$EHRec$[ebp+8], 0
	mov	ecx, DWORD PTR _this$[ebp]
	mov	DWORD PTR [ecx], OFFSET ??_7FalconEntity@@6B@

; 38   : 	InitLocalData();

	mov	ecx, DWORD PTR _this$[ebp]
	call	?InitLocalData@FalconEntity@@AAEXXZ	; FalconEntity::InitLocalData

; 39   : 	fread (&falconType, sizeof (falconType), 1, filePtr);

	mov	edx, DWORD PTR _filePtr$[ebp]
	push	edx
	push	1
	push	1
	mov	eax, DWORD PTR _this$[ebp]
	add	eax, 137				; 00000089H
	push	eax
	call	_fread
	add	esp, 16					; 00000010H

; 40   : 	if (gCampDataVersion >= 32){

	cmp	DWORD PTR ?gCampDataVersion@@3HA, 32	; gCampDataVersion, 00000020H
	jl	SHORT $LN2@FalconEnti

; 41   : 		fread (&falconFlags, sizeof (uchar), 1, filePtr);

	mov	ecx, DWORD PTR _filePtr$[ebp]
	push	ecx
	push	1
	push	1
	mov	edx, DWORD PTR _this$[ebp]
	add	edx, 136				; 00000088H
	push	edx
	call	_fread
	add	esp, 16					; 00000010H
$LN2@FalconEnti:

; 42   : 	}
; 43   : }

	mov	DWORD PTR __$EHRec$[ebp+8], -1
	mov	eax, DWORD PTR _this$[ebp]
	mov	ecx, DWORD PTR __$EHRec$[ebp]
	mov	DWORD PTR fs:0, ecx
	pop	ecx
	mov	esp, ebp
	pop	ebp
	ret	4
_TEXT	ENDS
text$x	SEGMENT
__unwindfunclet$??0FalconEntity@@QAE@PAU_iobuf@@@Z$0:
	mov	ecx, DWORD PTR _this$[ebp]
	jmp	??1VuEntity@@MAE@XZ			; VuEntity::~VuEntity
__ehhandler$??0FalconEntity@@QAE@PAU_iobuf@@@Z:
	mov	edx, DWORD PTR [esp+8]
	lea	eax, DWORD PTR [edx+12]
	mov	ecx, DWORD PTR [edx-8]
	xor	ecx, eax
	call	@__security_check_cookie@4
	mov	eax, OFFSET __ehfuncinfo$??0FalconEntity@@QAE@PAU_iobuf@@@Z
	jmp	___CxxFrameHandler3
text$x	ENDS
??0FalconEntity@@QAE@PAU_iobuf@@@Z ENDP			; FalconEntity::FalconEntity
; Function compile flags: /Odtp
; File c:\users\zhitao li\documents\visual studio 2012\projects\freefalcon\falclib\falcent.cpp
_TEXT	SEGMENT
_this$ = -16						; size = 4
__$EHRec$ = -12						; size = 12
_stream$ = 8						; size = 4
_rem$ = 12						; size = 4
??0FalconEntity@@QAE@PAPAEPAJ@Z PROC			; FalconEntity::FalconEntity
; _this$ = ecx

; 29   : FalconEntity::FalconEntity(VU_BYTE** stream, long *rem) : VuEntity (stream, rem) {

	push	ebp
	mov	ebp, esp
	push	-1
	push	__ehhandler$??0FalconEntity@@QAE@PAPAEPAJ@Z
	mov	eax, DWORD PTR fs:0
	push	eax
	push	ecx
	mov	eax, DWORD PTR ___security_cookie
	xor	eax, ebp
	push	eax
	lea	eax, DWORD PTR __$EHRec$[ebp]
	mov	DWORD PTR fs:0, eax
	mov	DWORD PTR _this$[ebp], ecx
	mov	eax, DWORD PTR _rem$[ebp]
	push	eax
	mov	ecx, DWORD PTR _stream$[ebp]
	push	ecx
	mov	ecx, DWORD PTR _this$[ebp]
	call	??0VuEntity@@QAE@PAPAEPAJ@Z		; VuEntity::VuEntity
	mov	DWORD PTR __$EHRec$[ebp+8], 0
	mov	edx, DWORD PTR _this$[ebp]
	mov	DWORD PTR [edx], OFFSET ??_7FalconEntity@@6B@

; 30   : 	InitLocalData();

	mov	ecx, DWORD PTR _this$[ebp]
	call	?InitLocalData@FalconEntity@@AAEXXZ	; FalconEntity::InitLocalData

; 31   : 	memcpychk(&falconType, stream, sizeof (falconType), rem);

	mov	eax, DWORD PTR _rem$[ebp]
	push	eax
	push	1
	mov	ecx, DWORD PTR _stream$[ebp]
	push	ecx
	mov	edx, DWORD PTR _this$[ebp]
	add	edx, 137				; 00000089H
	push	edx
	call	?memcpychk@@YAXPAXPAPAEIPAJ@Z		; memcpychk
	add	esp, 16					; 00000010H

; 32   : 	if (gCampDataVersion >= 32)	{

	cmp	DWORD PTR ?gCampDataVersion@@3HA, 32	; gCampDataVersion, 00000020H
	jl	SHORT $LN2@FalconEnti

; 33   : 		memcpychk(&falconFlags, stream, sizeof (uchar), rem);

	mov	eax, DWORD PTR _rem$[ebp]
	push	eax
	push	1
	mov	ecx, DWORD PTR _stream$[ebp]
	push	ecx
	mov	edx, DWORD PTR _this$[ebp]
	add	edx, 136				; 00000088H
	push	edx
	call	?memcpychk@@YAXPAXPAPAEIPAJ@Z		; memcpychk
	add	esp, 16					; 00000010H
$LN2@FalconEnti:

; 34   : 	}
; 35   : }

	mov	DWORD PTR __$EHRec$[ebp+8], -1
	mov	eax, DWORD PTR _this$[ebp]
	mov	ecx, DWORD PTR __$EHRec$[ebp]
	mov	DWORD PTR fs:0, ecx
	pop	ecx
	mov	esp, ebp
	pop	ebp
	ret	8
_TEXT	ENDS
text$x	SEGMENT
__unwindfunclet$??0FalconEntity@@QAE@PAPAEPAJ@Z$0:
	mov	ecx, DWORD PTR _this$[ebp]
	jmp	??1VuEntity@@MAE@XZ			; VuEntity::~VuEntity
__ehhandler$??0FalconEntity@@QAE@PAPAEPAJ@Z:
	mov	edx, DWORD PTR [esp+8]
	lea	eax, DWORD PTR [edx+12]
	mov	ecx, DWORD PTR [edx-8]
	xor	ecx, eax
	call	@__security_check_cookie@4
	mov	eax, OFFSET __ehfuncinfo$??0FalconEntity@@QAE@PAPAEPAJ@Z
	jmp	___CxxFrameHandler3
text$x	ENDS
??0FalconEntity@@QAE@PAPAEPAJ@Z ENDP			; FalconEntity::FalconEntity
; Function compile flags: /Odtp
; File c:\users\zhitao li\documents\visual studio 2012\projects\freefalcon\falclib\falcent.cpp
_TEXT	SEGMENT
_this$ = -16						; size = 4
__$EHRec$ = -12						; size = 12
_type$ = 8						; size = 2
_eid$ = 12						; size = 4
??0FalconEntity@@QAE@GK@Z PROC				; FalconEntity::FalconEntity
; _this$ = ecx

; 25   : FalconEntity::FalconEntity(ushort type, VU_ID_NUMBER eid) : VuEntity(type, eid){

	push	ebp
	mov	ebp, esp
	push	-1
	push	__ehhandler$??0FalconEntity@@QAE@GK@Z
	mov	eax, DWORD PTR fs:0
	push	eax
	push	ecx
	mov	eax, DWORD PTR ___security_cookie
	xor	eax, ebp
	push	eax
	lea	eax, DWORD PTR __$EHRec$[ebp]
	mov	DWORD PTR fs:0, eax
	mov	DWORD PTR _this$[ebp], ecx
	mov	eax, DWORD PTR _eid$[ebp]
	push	eax
	movzx	ecx, WORD PTR _type$[ebp]
	push	ecx
	mov	ecx, DWORD PTR _this$[ebp]
	call	??0VuEntity@@QAE@GK@Z			; VuEntity::VuEntity
	mov	DWORD PTR __$EHRec$[ebp+8], 0
	mov	edx, DWORD PTR _this$[ebp]
	mov	DWORD PTR [edx], OFFSET ??_7FalconEntity@@6B@

; 26   : 	InitLocalData();

	mov	ecx, DWORD PTR _this$[ebp]
	call	?InitLocalData@FalconEntity@@AAEXXZ	; FalconEntity::InitLocalData

; 27   : }

	mov	DWORD PTR __$EHRec$[ebp+8], -1
	mov	eax, DWORD PTR _this$[ebp]
	mov	ecx, DWORD PTR __$EHRec$[ebp]
	mov	DWORD PTR fs:0, ecx
	pop	ecx
	mov	esp, ebp
	pop	ebp
	ret	8
_TEXT	ENDS
text$x	SEGMENT
__unwindfunclet$??0FalconEntity@@QAE@GK@Z$0:
	mov	ecx, DWORD PTR _this$[ebp]
	jmp	??1VuEntity@@MAE@XZ			; VuEntity::~VuEntity
__ehhandler$??0FalconEntity@@QAE@GK@Z:
	mov	edx, DWORD PTR [esp+8]
	lea	eax, DWORD PTR [edx+12]
	mov	ecx, DWORD PTR [edx-8]
	xor	ecx, eax
	call	@__security_check_cookie@4
	mov	eax, OFFSET __ehfuncinfo$??0FalconEntity@@QAE@GK@Z
	jmp	___CxxFrameHandler3
text$x	ENDS
??0FalconEntity@@QAE@GK@Z ENDP				; FalconEntity::FalconEntity
; Function compile flags: /Odtp
; File c:\users\zhitao li\documents\visual studio 2012\projects\freefalcon\falclib\falcent.cpp
_TEXT	SEGMENT
_ds$ = -8						; size = 4
_bin$ = -4						; size = 4
_dirty_score$ = 8					; size = 4
?calc_dirty_bucket@FalconEntity@@CAHH@Z PROC		; FalconEntity::calc_dirty_bucket

; 125  : int FalconEntity::calc_dirty_bucket(int dirty_score) {

	push	ebp
	mov	ebp, esp
	sub	esp, 8

; 126  : 	int ds = dirty_score; //just for debugging

	mov	eax, DWORD PTR _dirty_score$[ebp]
	mov	DWORD PTR _ds$[ebp], eax

; 127  : 
; 128  : 	if (dirty_score == 0) {

	cmp	DWORD PTR _dirty_score$[ebp], 0
	jne	SHORT $LN3@calc_dirty

; 129  : 		return -1;

	or	eax, -1
	jmp	SHORT $LN4@calc_dirty
$LN3@calc_dirty:

; 130  : 	}
; 131  : 	// sfr : new
; 132  : 	int bin = 0;

	mov	DWORD PTR _bin$[ebp], 0
$LN2@calc_dirty:

; 133  : 	while ((dirty_score & 0x1) == 0){ ++bin; dirty_score >>= 4; }

	mov	ecx, DWORD PTR _dirty_score$[ebp]
	and	ecx, 1
	jne	SHORT $LN1@calc_dirty
	mov	edx, DWORD PTR _bin$[ebp]
	add	edx, 1
	mov	DWORD PTR _bin$[ebp], edx
	mov	eax, DWORD PTR _dirty_score$[ebp]
	sar	eax, 4
	mov	DWORD PTR _dirty_score$[ebp], eax
	jmp	SHORT $LN2@calc_dirty
$LN1@calc_dirty:

; 134  : 	return bin;

	mov	eax, DWORD PTR _bin$[ebp]
$LN4@calc_dirty:

; 135  : 
; 136  : #if 0
; 137  : 	// sfr: old
; 138  : 	else if (dirty_score <= SEND_EVENTUALLY) {
; 139  : 		return 1;
; 140  : 	}
; 141  : 	else if (dirty_score <= SEND_SOMETIME) {
; 142  : 		return 2;
; 143  : 	}
; 144  : 	else if (dirty_score <= SEND_LATER)	{
; 145  : 		return 3;
; 146  : 	}
; 147  : 	else if (dirty_score <= SEND_SOON) {
; 148  : 		return 4;
; 149  : 	}
; 150  : 	else if (dirty_score <= SEND_NOW) {
; 151  : 		return 5;
; 152  : 	}
; 153  : 	else if (dirty_score <= SEND_RELIABLE) {
; 154  : 		return 6;
; 155  : 	}
; 156  : 	else if (dirty_score <= SEND_OOB) {
; 157  : 		return 7;
; 158  : 	}
; 159  : 	else if (dirty_score > SEND_OOB) {
; 160  : 		return 8;
; 161  : 	}
; 162  : 	else	{
; 163  : 		ShiAssert("This can't happen at all...");
; 164  : 		return 0;
; 165  : 	}
; 166  : #endif
; 167  : }

	mov	esp, ebp
	pop	ebp
	ret	0
?calc_dirty_bucket@FalconEntity@@CAHH@Z ENDP		; FalconEntity::calc_dirty_bucket
_TEXT	ENDS
; Function compile flags: /Odtp
; File c:\users\zhitao li\documents\visual studio 2012\projects\freefalcon\vu2\include\vuevent.h
;	COMDAT ?RequestOutOfBandTransmit@VuMessage@@QAEXXZ
_TEXT	SEGMENT
_this$ = -4						; size = 4
?RequestOutOfBandTransmit@VuMessage@@QAEXXZ PROC	; VuMessage::RequestOutOfBandTransmit, COMDAT
; _this$ = ecx

; 181  : 	void RequestOutOfBandTransmit() { flags_ |= VU_OUT_OF_BAND_MSG_FLAG; }

	push	ebp
	mov	ebp, esp
	push	ecx
	mov	DWORD PTR _this$[ebp], ecx
	mov	eax, DWORD PTR _this$[ebp]
	movzx	ecx, BYTE PTR [eax+6]
	or	ecx, 2
	mov	edx, DWORD PTR _this$[ebp]
	mov	BYTE PTR [edx+6], cl
	mov	esp, ebp
	pop	ebp
	ret	0
?RequestOutOfBandTransmit@VuMessage@@QAEXXZ ENDP	; VuMessage::RequestOutOfBandTransmit
_TEXT	ENDS
; Function compile flags: /Odtp
; File c:\users\zhitao li\documents\visual studio 2012\projects\freefalcon\vu2\include\vuevent.h
;	COMDAT ?RequestReliableTransmit@VuMessage@@QAEXXZ
_TEXT	SEGMENT
_this$ = -4						; size = 4
?RequestReliableTransmit@VuMessage@@QAEXXZ PROC		; VuMessage::RequestReliableTransmit, COMDAT
; _this$ = ecx

; 180  : 	void RequestReliableTransmit() { flags_ |= VU_RELIABLE_MSG_FLAG; }

	push	ebp
	mov	ebp, esp
	push	ecx
	mov	DWORD PTR _this$[ebp], ecx
	mov	eax, DWORD PTR _this$[ebp]
	movzx	ecx, BYTE PTR [eax+6]
	or	ecx, 8
	mov	edx, DWORD PTR _this$[ebp]
	mov	BYTE PTR [edx+6], cl
	mov	esp, ebp
	pop	ebp
	ret	0
?RequestReliableTransmit@VuMessage@@QAEXXZ ENDP		; VuMessage::RequestReliableTransmit
_TEXT	ENDS
; Function compile flags: /Odtp
; File c:\users\zhitao li\documents\visual studio 2012\projects\freefalcon\vu2\include\vu_templates.h
;	COMDAT ?get@?$VuBin@VVuSessionEntity@@@@QBEPAVVuSessionEntity@@XZ
_TEXT	SEGMENT
_this$ = -4						; size = 4
?get@?$VuBin@VVuSessionEntity@@@@QBEPAVVuSessionEntity@@XZ PROC ; VuBin<VuSessionEntity>::get, COMDAT
; _this$ = ecx

; 55   : 	E *get() const{

	push	ebp
	mov	ebp, esp
	push	ecx
	mov	DWORD PTR _this$[ebp], ecx

; 56   : 		return e;

	mov	eax, DWORD PTR _this$[ebp]
	mov	eax, DWORD PTR [eax]

; 57   : 	}

	mov	esp, ebp
	pop	ebp
	ret	0
?get@?$VuBin@VVuSessionEntity@@@@QBEPAVVuSessionEntity@@XZ ENDP ; VuBin<VuSessionEntity>::get
_TEXT	ENDS
; Function compile flags: /Odtp
; File c:\users\zhitao li\documents\visual studio 2012\projects\freefalcon\vu2\include\vu_templates.h
;	COMDAT ??B?$VuBin@VVuSessionEntity@@@@QBE_NXZ
_TEXT	SEGMENT
_this$ = -8						; size = 4
tv66 = -4						; size = 4
??B?$VuBin@VVuSessionEntity@@@@QBE_NXZ PROC		; VuBin<VuSessionEntity>::operator bool, COMDAT
; _this$ = ecx

; 40   : 	operator bool() const{

	push	ebp
	mov	ebp, esp
	sub	esp, 8
	mov	DWORD PTR _this$[ebp], ecx

; 41   : 		return e != NULL;

	mov	eax, DWORD PTR _this$[ebp]
	cmp	DWORD PTR [eax], 0
	je	SHORT $LN3@operator
	mov	DWORD PTR tv66[ebp], 1
	jmp	SHORT $LN4@operator
$LN3@operator:
	mov	DWORD PTR tv66[ebp], 0
$LN4@operator:
	mov	al, BYTE PTR tv66[ebp]

; 42   : 	}

	mov	esp, ebp
	pop	ebp
	ret	0
??B?$VuBin@VVuSessionEntity@@@@QBE_NXZ ENDP		; VuBin<VuSessionEntity>::operator bool
_TEXT	ENDS
; Function compile flags: /Odtp
;	COMDAT ??_Gout_of_range@std@@UAEPAXI@Z
_TEXT	SEGMENT
_this$ = -4						; size = 4
___flags$ = 8						; size = 4
??_Gout_of_range@std@@UAEPAXI@Z PROC			; std::out_of_range::`scalar deleting destructor', COMDAT
; _this$ = ecx
	push	ebp
	mov	ebp, esp
	push	ecx
	mov	DWORD PTR _this$[ebp], ecx
	mov	ecx, DWORD PTR _this$[ebp]
	call	??1out_of_range@std@@UAE@XZ
	mov	eax, DWORD PTR ___flags$[ebp]
	and	eax, 1
	je	SHORT $LN1@scalar
	mov	ecx, DWORD PTR _this$[ebp]
	push	ecx
	call	??3@YAXPAX@Z				; operator delete
	add	esp, 4
$LN1@scalar:
	mov	eax, DWORD PTR _this$[ebp]
	mov	esp, ebp
	pop	ebp
	ret	4
??_Gout_of_range@std@@UAEPAXI@Z ENDP			; std::out_of_range::`scalar deleting destructor'
_TEXT	ENDS
; Function compile flags: /Odtp
;	COMDAT ??0out_of_range@std@@QAE@ABV01@@Z
_TEXT	SEGMENT
_this$ = -4						; size = 4
___that$ = 8						; size = 4
??0out_of_range@std@@QAE@ABV01@@Z PROC			; std::out_of_range::out_of_range, COMDAT
; _this$ = ecx
	push	ebp
	mov	ebp, esp
	push	ecx
	mov	DWORD PTR _this$[ebp], ecx
	mov	eax, DWORD PTR ___that$[ebp]
	push	eax
	mov	ecx, DWORD PTR _this$[ebp]
	call	??0logic_error@std@@QAE@ABV01@@Z
	mov	ecx, DWORD PTR _this$[ebp]
	mov	DWORD PTR [ecx], OFFSET ??_7out_of_range@std@@6B@
	mov	eax, DWORD PTR _this$[ebp]
	mov	esp, ebp
	pop	ebp
	ret	4
??0out_of_range@std@@QAE@ABV01@@Z ENDP			; std::out_of_range::out_of_range
_TEXT	ENDS
; Function compile flags: /Odtp
;	COMDAT ??1out_of_range@std@@UAE@XZ
_TEXT	SEGMENT
_this$ = -4						; size = 4
??1out_of_range@std@@UAE@XZ PROC			; std::out_of_range::~out_of_range, COMDAT
; _this$ = ecx
	push	ebp
	mov	ebp, esp
	push	ecx
	mov	DWORD PTR _this$[ebp], ecx
	mov	ecx, DWORD PTR _this$[ebp]
	call	??1logic_error@std@@UAE@XZ
	mov	esp, ebp
	pop	ebp
	ret	0
??1out_of_range@std@@UAE@XZ ENDP			; std::out_of_range::~out_of_range
_TEXT	ENDS
; Function compile flags: /Odtp
; File c:\program files (x86)\microsoft visual studio 11.0\vc\include\stdexcept
;	COMDAT ??0out_of_range@std@@QAE@ABV?$basic_string@DU?$char_traits@D@std@@V?$allocator@D@2@@1@@Z
_TEXT	SEGMENT
_this$ = -4						; size = 4
__Message$ = 8						; size = 4
??0out_of_range@std@@QAE@ABV?$basic_string@DU?$char_traits@D@std@@V?$allocator@D@2@@1@@Z PROC ; std::out_of_range::out_of_range, COMDAT
; _this$ = ecx

; 145  : 		{	// construct from message string

	push	ebp
	mov	ebp, esp
	push	ecx
	mov	DWORD PTR _this$[ebp], ecx
	mov	ecx, DWORD PTR __Message$[ebp]
	call	?c_str@?$basic_string@DU?$char_traits@D@std@@V?$allocator@D@2@@std@@QBEPBDXZ ; std::basic_string<char,std::char_traits<char>,std::allocator<char> >::c_str
	push	eax
	mov	ecx, DWORD PTR _this$[ebp]
	call	??0logic_error@std@@QAE@PBD@Z		; std::logic_error::logic_error
	mov	eax, DWORD PTR _this$[ebp]
	mov	DWORD PTR [eax], OFFSET ??_7out_of_range@std@@6B@

; 146  : 		}

	mov	eax, DWORD PTR _this$[ebp]
	mov	esp, ebp
	pop	ebp
	ret	4
??0out_of_range@std@@QAE@ABV?$basic_string@DU?$char_traits@D@std@@V?$allocator@D@2@@1@@Z ENDP ; std::out_of_range::out_of_range
_TEXT	ENDS
; Function compile flags: /Odtp
; File c:\program files (x86)\microsoft visual studio 11.0\vc\include\xstring
;	COMDAT ?_Xran@?$basic_string@DU?$char_traits@D@std@@V?$allocator@D@2@@std@@QBEXXZ
_TEXT	SEGMENT
_this$ = -4						; size = 4
?_Xran@?$basic_string@DU?$char_traits@D@std@@V?$allocator@D@2@@std@@QBEXXZ PROC ; std::basic_string<char,std::char_traits<char>,std::allocator<char> >::_Xran, COMDAT
; _this$ = ecx

; 2275 : 		{	// report an out_of_range error

	push	ebp
	mov	ebp, esp
	push	ecx
	mov	DWORD PTR _this$[ebp], ecx

; 2276 : 		_Xout_of_range("invalid string position");

	push	OFFSET ??_C@_0BI@CFPLBAOH@invalid?5string?5position?$AA@
	call	?_Xout_of_range@std@@YAXPBD@Z		; std::_Xout_of_range
$LN2@Xran:

; 2277 : 		}

	mov	esp, ebp
	pop	ebp
	ret	0
?_Xran@?$basic_string@DU?$char_traits@D@std@@V?$allocator@D@2@@std@@QBEXXZ ENDP ; std::basic_string<char,std::char_traits<char>,std::allocator<char> >::_Xran
_TEXT	ENDS
; Function compile flags: /Odtp
; File c:\program files (x86)\microsoft visual studio 11.0\vc\include\xstring
;	COMDAT ?_Xlen@?$basic_string@DU?$char_traits@D@std@@V?$allocator@D@2@@std@@QBEXXZ
_TEXT	SEGMENT
_this$ = -4						; size = 4
?_Xlen@?$basic_string@DU?$char_traits@D@std@@V?$allocator@D@2@@std@@QBEXXZ PROC ; std::basic_string<char,std::char_traits<char>,std::allocator<char> >::_Xlen, COMDAT
; _this$ = ecx

; 2270 : 		{	// report a length_error

	push	ebp
	mov	ebp, esp
	push	ecx
	mov	DWORD PTR _this$[ebp], ecx

; 2271 : 		_Xlength_error("string too long");

	push	OFFSET ??_C@_0BA@JFNIOLAK@string?5too?5long?$AA@
	call	?_Xlength_error@std@@YAXPBD@Z		; std::_Xlength_error
$LN2@Xlen:

; 2272 : 		}

	mov	esp, ebp
	pop	ebp
	ret	0
?_Xlen@?$basic_string@DU?$char_traits@D@std@@V?$allocator@D@2@@std@@QBEXXZ ENDP ; std::basic_string<char,std::char_traits<char>,std::allocator<char> >::_Xlen
_TEXT	ENDS
; Function compile flags: /Odtp
; File c:\program files (x86)\microsoft visual studio 11.0\vc\include\xstring
;	COMDAT ?_Tidy@?$basic_string@DU?$char_traits@D@std@@V?$allocator@D@2@@std@@QAEX_NI@Z
_TEXT	SEGMENT
__Ptr$1 = -12						; size = 4
_this$ = -8						; size = 4
$T2 = -2						; size = 1
$T3 = -1						; size = 1
__Built$ = 8						; size = 1
__Newsize$ = 12						; size = 4
?_Tidy@?$basic_string@DU?$char_traits@D@std@@V?$allocator@D@2@@std@@QAEX_NI@Z PROC ; std::basic_string<char,std::char_traits<char>,std::allocator<char> >::_Tidy, COMDAT
; _this$ = ecx

; 2253 : 		{	// initialize buffer, deallocating any storage

	push	ebp
	mov	ebp, esp
	sub	esp, 12					; 0000000cH
	mov	DWORD PTR _this$[ebp], ecx

; 2254 : 		if (!_Built)

	movzx	eax, BYTE PTR __Built$[ebp]
	test	eax, eax
	jne	SHORT $LN4@Tidy
	jmp	SHORT $LN3@Tidy
$LN4@Tidy:

; 2255 : 			;
; 2256 : 		else if (this->_BUF_SIZE <= this->_Myres)

	mov	ecx, DWORD PTR _this$[ebp]
	cmp	DWORD PTR [ecx+20], 16			; 00000010H
	jb	SHORT $LN3@Tidy

; 2257 : 			{	// copy any leftovers to small buffer and deallocate
; 2258 : 			pointer _Ptr = this->_Bx._Ptr;

	mov	edx, DWORD PTR _this$[ebp]
	mov	eax, DWORD PTR [edx]
	mov	DWORD PTR __Ptr$1[ebp], eax

; 2259 : 			this->_Getal().destroy(&this->_Bx._Ptr);

	mov	ecx, DWORD PTR _this$[ebp]
	push	ecx
	lea	edx, DWORD PTR $T3[ebp]
	push	edx
	mov	ecx, DWORD PTR _this$[ebp]
	call	?_Getal@?$_String_alloc@$0A@U?$_String_base_types@DV?$allocator@D@std@@@std@@@std@@QBE?AU?$_Wrap_alloc@V?$allocator@D@std@@@2@XZ ; std::_String_alloc<0,std::_String_base_types<char,std::allocator<char> > >::_Getal
	mov	ecx, eax
	call	??$destroy@PAD@?$_Wrap_alloc@V?$allocator@D@std@@@std@@QAEXPAPAD@Z ; std::_Wrap_alloc<std::allocator<char> >::destroy<char *>

; 2260 : 			if (0 < _Newsize)

	cmp	DWORD PTR __Newsize$[ebp], 0
	jbe	SHORT $LN1@Tidy

; 2261 : 				_Traits::copy(this->_Bx._Buf,
; 2262 : 					_STD addressof(*_Ptr), _Newsize);

	mov	eax, DWORD PTR __Newsize$[ebp]
	push	eax
	mov	ecx, DWORD PTR __Ptr$1[ebp]
	push	ecx
	call	??$addressof@D@std@@YAPADAAD@Z		; std::addressof<char>
	add	esp, 4
	push	eax
	mov	edx, DWORD PTR _this$[ebp]
	push	edx
	call	?copy@?$char_traits@D@std@@SAPADPADPBDI@Z ; std::char_traits<char>::copy
	add	esp, 12					; 0000000cH
$LN1@Tidy:

; 2263 : 			this->_Getal().deallocate(_Ptr, this->_Myres + 1);

	mov	eax, DWORD PTR _this$[ebp]
	mov	ecx, DWORD PTR [eax+20]
	add	ecx, 1
	push	ecx
	mov	edx, DWORD PTR __Ptr$1[ebp]
	push	edx
	lea	eax, DWORD PTR $T2[ebp]
	push	eax
	mov	ecx, DWORD PTR _this$[ebp]
	call	?_Getal@?$_String_alloc@$0A@U?$_String_base_types@DV?$allocator@D@std@@@std@@@std@@QBE?AU?$_Wrap_alloc@V?$allocator@D@std@@@2@XZ ; std::_String_alloc<0,std::_String_base_types<char,std::allocator<char> > >::_Getal
	mov	ecx, eax
	call	?deallocate@?$_Wrap_alloc@V?$allocator@D@std@@@std@@QAEXPADI@Z ; std::_Wrap_alloc<std::allocator<char> >::deallocate
$LN3@Tidy:

; 2264 : 			}
; 2265 : 		this->_Myres = this->_BUF_SIZE - 1;

	mov	ecx, DWORD PTR _this$[ebp]
	mov	DWORD PTR [ecx+20], 15			; 0000000fH

; 2266 : 		_Eos(_Newsize);

	mov	edx, DWORD PTR __Newsize$[ebp]
	push	edx
	mov	ecx, DWORD PTR _this$[ebp]
	call	?_Eos@?$basic_string@DU?$char_traits@D@std@@V?$allocator@D@2@@std@@QAEXI@Z ; std::basic_string<char,std::char_traits<char>,std::allocator<char> >::_Eos

; 2267 : 		}

	mov	esp, ebp
	pop	ebp
	ret	8
?_Tidy@?$basic_string@DU?$char_traits@D@std@@V?$allocator@D@2@@std@@QAEX_NI@Z ENDP ; std::basic_string<char,std::char_traits<char>,std::allocator<char> >::_Tidy
_TEXT	ENDS
; Function compile flags: /Odtp
; File c:\program files (x86)\microsoft visual studio 11.0\vc\include\xstring
;	COMDAT ?_Inside@?$basic_string@DU?$char_traits@D@std@@V?$allocator@D@2@@std@@QAE_NPBD@Z
_TEXT	SEGMENT
_this$ = -4						; size = 4
__Ptr$ = 8						; size = 4
?_Inside@?$basic_string@DU?$char_traits@D@std@@V?$allocator@D@2@@std@@QAE_NPBD@Z PROC ; std::basic_string<char,std::char_traits<char>,std::allocator<char> >::_Inside, COMDAT
; _this$ = ecx

; 2237 : 		{	// test if _Ptr points inside string

	push	ebp
	mov	ebp, esp
	push	ecx
	mov	DWORD PTR _this$[ebp], ecx

; 2238 : 		if (_Ptr == 0 || _Ptr < this->_Myptr()
; 2239 : 			|| this->_Myptr() + this->_Mysize <= _Ptr)

	cmp	DWORD PTR __Ptr$[ebp], 0
	je	SHORT $LN2@Inside
	mov	ecx, DWORD PTR _this$[ebp]
	call	?_Myptr@?$_String_val@U?$_Simple_types@D@std@@@std@@QAEPADXZ ; std::_String_val<std::_Simple_types<char> >::_Myptr
	cmp	DWORD PTR __Ptr$[ebp], eax
	jb	SHORT $LN2@Inside
	mov	ecx, DWORD PTR _this$[ebp]
	call	?_Myptr@?$_String_val@U?$_Simple_types@D@std@@@std@@QAEPADXZ ; std::_String_val<std::_Simple_types<char> >::_Myptr
	mov	ecx, DWORD PTR _this$[ebp]
	add	eax, DWORD PTR [ecx+16]
	cmp	eax, DWORD PTR __Ptr$[ebp]
	ja	SHORT $LN3@Inside
$LN2@Inside:

; 2240 : 			return (false);	// don't ask

	xor	al, al
	jmp	SHORT $LN4@Inside

; 2241 : 		else

	jmp	SHORT $LN4@Inside
$LN3@Inside:

; 2242 : 			return (true);

	mov	al, 1
$LN4@Inside:

; 2243 : 		}

	mov	esp, ebp
	pop	ebp
	ret	4
?_Inside@?$basic_string@DU?$char_traits@D@std@@V?$allocator@D@2@@std@@QAE_NPBD@Z ENDP ; std::basic_string<char,std::char_traits<char>,std::allocator<char> >::_Inside
_TEXT	ENDS
; Function compile flags: /Odtp
; File c:\program files (x86)\microsoft visual studio 11.0\vc\include\xstring
;	COMDAT ?_Grow@?$basic_string@DU?$char_traits@D@std@@V?$allocator@D@2@@std@@QAE_NI_N@Z
_TEXT	SEGMENT
tv136 = -12						; size = 4
tv129 = -8						; size = 4
_this$ = -4						; size = 4
__Newsize$ = 8						; size = 4
__Trim$ = 12						; size = 1
?_Grow@?$basic_string@DU?$char_traits@D@std@@V?$allocator@D@2@@std@@QAE_NI_N@Z PROC ; std::basic_string<char,std::char_traits<char>,std::allocator<char> >::_Grow, COMDAT
; _this$ = ecx

; 2223 : 		{	// ensure buffer is big enough, trim to size if _Trim is true

	push	ebp
	mov	ebp, esp
	sub	esp, 12					; 0000000cH
	mov	DWORD PTR _this$[ebp], ecx

; 2224 : 		if (max_size() < _Newsize)

	mov	ecx, DWORD PTR _this$[ebp]
	call	?max_size@?$basic_string@DU?$char_traits@D@std@@V?$allocator@D@2@@std@@QBEIXZ ; std::basic_string<char,std::char_traits<char>,std::allocator<char> >::max_size
	cmp	eax, DWORD PTR __Newsize$[ebp]
	jae	SHORT $LN6@Grow

; 2225 : 			_Xlen();	// result too long

	mov	ecx, DWORD PTR _this$[ebp]
	call	?_Xlen@?$basic_string@DU?$char_traits@D@std@@V?$allocator@D@2@@std@@QBEXXZ ; std::basic_string<char,std::char_traits<char>,std::allocator<char> >::_Xlen
$LN6@Grow:

; 2226 : 		if (this->_Myres < _Newsize)

	mov	eax, DWORD PTR _this$[ebp]
	mov	ecx, DWORD PTR [eax+20]
	cmp	ecx, DWORD PTR __Newsize$[ebp]
	jae	SHORT $LN5@Grow

; 2227 : 			_Copy(_Newsize, this->_Mysize);	// reallocate to grow

	mov	edx, DWORD PTR _this$[ebp]
	mov	eax, DWORD PTR [edx+16]
	push	eax
	mov	ecx, DWORD PTR __Newsize$[ebp]
	push	ecx
	mov	ecx, DWORD PTR _this$[ebp]
	call	?_Copy@?$basic_string@DU?$char_traits@D@std@@V?$allocator@D@2@@std@@QAEXII@Z ; std::basic_string<char,std::char_traits<char>,std::allocator<char> >::_Copy
	jmp	SHORT $LN4@Grow
$LN5@Grow:

; 2228 : 		else if (_Trim && _Newsize < this->_BUF_SIZE)

	movzx	edx, BYTE PTR __Trim$[ebp]
	test	edx, edx
	je	SHORT $LN3@Grow
	cmp	DWORD PTR __Newsize$[ebp], 16		; 00000010H
	jae	SHORT $LN3@Grow

; 2229 : 			_Tidy(true,	// copy and deallocate if trimming to small string
; 2230 : 				_Newsize < this->_Mysize ? _Newsize : this->_Mysize);

	mov	eax, DWORD PTR _this$[ebp]
	mov	ecx, DWORD PTR __Newsize$[ebp]
	cmp	ecx, DWORD PTR [eax+16]
	jae	SHORT $LN9@Grow
	mov	edx, DWORD PTR __Newsize$[ebp]
	mov	DWORD PTR tv129[ebp], edx
	jmp	SHORT $LN10@Grow
$LN9@Grow:
	mov	eax, DWORD PTR _this$[ebp]
	mov	ecx, DWORD PTR [eax+16]
	mov	DWORD PTR tv129[ebp], ecx
$LN10@Grow:
	mov	edx, DWORD PTR tv129[ebp]
	push	edx
	push	1
	mov	ecx, DWORD PTR _this$[ebp]
	call	?_Tidy@?$basic_string@DU?$char_traits@D@std@@V?$allocator@D@2@@std@@QAEX_NI@Z ; std::basic_string<char,std::char_traits<char>,std::allocator<char> >::_Tidy
	jmp	SHORT $LN4@Grow
$LN3@Grow:

; 2231 : 		else if (_Newsize == 0)

	cmp	DWORD PTR __Newsize$[ebp], 0
	jne	SHORT $LN4@Grow

; 2232 : 			_Eos(0);	// new size is zero, just null terminate

	push	0
	mov	ecx, DWORD PTR _this$[ebp]
	call	?_Eos@?$basic_string@DU?$char_traits@D@std@@V?$allocator@D@2@@std@@QAEXI@Z ; std::basic_string<char,std::char_traits<char>,std::allocator<char> >::_Eos
$LN4@Grow:

; 2233 : 		return (0 < _Newsize);	// return true only if more work to do

	cmp	DWORD PTR __Newsize$[ebp], 0
	jbe	SHORT $LN11@Grow
	mov	DWORD PTR tv136[ebp], 1
	jmp	SHORT $LN12@Grow
$LN11@Grow:
	mov	DWORD PTR tv136[ebp], 0
$LN12@Grow:
	mov	al, BYTE PTR tv136[ebp]
$LN8@Grow:

; 2234 : 		}

	mov	esp, ebp
	pop	ebp
	ret	8
?_Grow@?$basic_string@DU?$char_traits@D@std@@V?$allocator@D@2@@std@@QAE_NI_N@Z ENDP ; std::basic_string<char,std::char_traits<char>,std::allocator<char> >::_Grow
_TEXT	ENDS
; Function compile flags: /Odtp
; File c:\program files (x86)\microsoft visual studio 11.0\vc\include\xstring
;	COMDAT ?_Eos@?$basic_string@DU?$char_traits@D@std@@V?$allocator@D@2@@std@@QAEXI@Z
_TEXT	SEGMENT
_this$ = -8						; size = 4
$T1 = -1						; size = 1
__Newsize$ = 8						; size = 4
?_Eos@?$basic_string@DU?$char_traits@D@std@@V?$allocator@D@2@@std@@QAEXI@Z PROC ; std::basic_string<char,std::char_traits<char>,std::allocator<char> >::_Eos, COMDAT
; _this$ = ecx

; 2217 : 		{	// set new length and null terminator

	push	ebp
	mov	ebp, esp
	sub	esp, 8
	mov	DWORD PTR _this$[ebp], ecx

; 2218 : 		_Traits::assign(this->_Myptr()[this->_Mysize = _Newsize], _Elem());

	mov	BYTE PTR $T1[ebp], 0
	mov	eax, DWORD PTR _this$[ebp]
	mov	ecx, DWORD PTR __Newsize$[ebp]
	mov	DWORD PTR [eax+16], ecx
	lea	edx, DWORD PTR $T1[ebp]
	push	edx
	mov	ecx, DWORD PTR _this$[ebp]
	call	?_Myptr@?$_String_val@U?$_Simple_types@D@std@@@std@@QAEPADXZ ; std::_String_val<std::_Simple_types<char> >::_Myptr
	add	eax, DWORD PTR __Newsize$[ebp]
	push	eax
	call	?assign@?$char_traits@D@std@@SAXAADABD@Z ; std::char_traits<char>::assign
	add	esp, 8

; 2219 : 		}

	mov	esp, ebp
	pop	ebp
	ret	4
?_Eos@?$basic_string@DU?$char_traits@D@std@@V?$allocator@D@2@@std@@QAEXI@Z ENDP ; std::basic_string<char,std::char_traits<char>,std::allocator<char> >::_Eos
_TEXT	ENDS
; Function compile flags: /Odtp
; File c:\program files (x86)\microsoft visual studio 11.0\vc\include\xstring
;	COMDAT ?_Copy@?$basic_string@DU?$char_traits@D@std@@V?$allocator@D@2@@std@@QAEXII@Z
_TEXT	SEGMENT
tv205 = -48						; size = 4
tv204 = -44						; size = 4
tv203 = -40						; size = 4
tv202 = -36						; size = 4
__Ptr$ = -32						; size = 4
__Newres$ = -28						; size = 4
_this$ = -24						; size = 4
$T2 = -19						; size = 1
$T3 = -18						; size = 1
$T4 = -17						; size = 1
__$EHRec$ = -16						; size = 16
__Newsize$ = 8						; size = 4
__Oldlen$ = 12						; size = 4
?_Copy@?$basic_string@DU?$char_traits@D@std@@V?$allocator@D@2@@std@@QAEXII@Z PROC ; std::basic_string<char,std::char_traits<char>,std::allocator<char> >::_Copy, COMDAT
; _this$ = ecx

; 2182 : 		{	// copy _Oldlen elements to newly allocated buffer

	push	ebp
	mov	ebp, esp
	push	-1
	push	__ehhandler$?_Copy@?$basic_string@DU?$char_traits@D@std@@V?$allocator@D@2@@std@@QAEXII@Z
	mov	eax, DWORD PTR fs:0
	push	eax
	push	ecx
	sub	esp, 32					; 00000020H
	push	ebx
	push	esi
	push	edi
	mov	eax, DWORD PTR ___security_cookie
	xor	eax, ebp
	push	eax
	lea	eax, DWORD PTR __$EHRec$[ebp+4]
	mov	DWORD PTR fs:0, eax
	mov	DWORD PTR __$EHRec$[ebp], esp
	mov	DWORD PTR _this$[ebp], ecx

; 2183 : 		size_type _Newres = _Newsize | this->_ALLOC_MASK;

	mov	eax, DWORD PTR __Newsize$[ebp]
	or	eax, 15					; 0000000fH
	mov	DWORD PTR __Newres$[ebp], eax

; 2184 : 		if (max_size() < _Newres)

	mov	ecx, DWORD PTR _this$[ebp]
	call	?max_size@?$basic_string@DU?$char_traits@D@std@@V?$allocator@D@2@@std@@QBEIXZ ; std::basic_string<char,std::char_traits<char>,std::allocator<char> >::max_size
	cmp	eax, DWORD PTR __Newres$[ebp]
	jae	SHORT $LN9@Copy

; 2185 : 			_Newres = _Newsize;	// undo roundup if too big

	mov	ecx, DWORD PTR __Newsize$[ebp]
	mov	DWORD PTR __Newres$[ebp], ecx
	jmp	SHORT $LN8@Copy
$LN9@Copy:

; 2186 : 		else if (this->_Myres / 2 <= _Newres / 3)

	mov	eax, DWORD PTR __Newres$[ebp]
	xor	edx, edx
	mov	ecx, 3
	div	ecx
	mov	edx, DWORD PTR _this$[ebp]
	mov	ecx, DWORD PTR [edx+20]
	shr	ecx, 1
	cmp	ecx, eax
	ja	SHORT $LN7@Copy
	jmp	SHORT $LN8@Copy
$LN7@Copy:

; 2187 : 			;
; 2188 : 		else if (this->_Myres <= max_size() - this->_Myres / 2)

	mov	edx, DWORD PTR _this$[ebp]
	mov	esi, DWORD PTR [edx+20]
	shr	esi, 1
	mov	ecx, DWORD PTR _this$[ebp]
	call	?max_size@?$basic_string@DU?$char_traits@D@std@@V?$allocator@D@2@@std@@QBEIXZ ; std::basic_string<char,std::char_traits<char>,std::allocator<char> >::max_size
	sub	eax, esi
	mov	ecx, DWORD PTR _this$[ebp]
	cmp	DWORD PTR [ecx+20], eax
	ja	SHORT $LN5@Copy

; 2189 : 			_Newres = this->_Myres
; 2190 : 				+ this->_Myres / 2;	// grow exponentially if possible

	mov	edx, DWORD PTR _this$[ebp]
	mov	eax, DWORD PTR [edx+20]
	shr	eax, 1
	mov	ecx, DWORD PTR _this$[ebp]
	add	eax, DWORD PTR [ecx+20]
	mov	DWORD PTR __Newres$[ebp], eax

; 2191 : 		else

	jmp	SHORT $LN8@Copy
$LN5@Copy:

; 2192 : 			_Newres = max_size();	// settle for max_size()

	mov	ecx, DWORD PTR _this$[ebp]
	call	?max_size@?$basic_string@DU?$char_traits@D@std@@V?$allocator@D@2@@std@@QBEIXZ ; std::basic_string<char,std::char_traits<char>,std::allocator<char> >::max_size
	mov	DWORD PTR __Newres$[ebp], eax
$LN8@Copy:

; 2193 : 
; 2194 : 		_Elem *_Ptr;
; 2195 : 		_TRY_BEGIN

	mov	DWORD PTR __$EHRec$[ebp+12], 0

; 2196 : 			_Ptr = this->_Getal().allocate(_Newres + 1);

	lea	edx, DWORD PTR $T4[ebp]
	push	edx
	mov	ecx, DWORD PTR _this$[ebp]
	call	?_Getal@?$_String_alloc@$0A@U?$_String_base_types@DV?$allocator@D@std@@@std@@@std@@QBE?AU?$_Wrap_alloc@V?$allocator@D@std@@@2@XZ ; std::_String_alloc<0,std::_String_base_types<char,std::allocator<char> > >::_Getal
	mov	DWORD PTR tv202[ebp], eax
	mov	eax, DWORD PTR __Newres$[ebp]
	add	eax, 1
	push	eax
	mov	ecx, DWORD PTR tv202[ebp]
	call	?allocate@?$_Wrap_alloc@V?$allocator@D@std@@@std@@QAEPADI@Z ; std::_Wrap_alloc<std::allocator<char> >::allocate
	mov	DWORD PTR tv203[ebp], eax
	mov	ecx, DWORD PTR tv203[ebp]
	mov	DWORD PTR __Ptr$[ebp], ecx
	jmp	SHORT $LN12@Copy
__catch$?_Copy@?$basic_string@DU?$char_traits@D@std@@V?$allocator@D@2@@std@@QAEXII@Z$0:

; 2197 : 		_CATCH_ALL

	mov	DWORD PTR __$EHRec$[ebp], esp

; 2198 : 			_Newres = _Newsize;	// allocation failed, undo roundup and retry

	mov	edx, DWORD PTR __Newsize$[ebp]
	mov	DWORD PTR __Newres$[ebp], edx

; 2199 : 			_TRY_BEGIN

	mov	BYTE PTR __$EHRec$[ebp+12], 2

; 2200 : 				_Ptr = this->_Getal().allocate(_Newres + 1);

	lea	eax, DWORD PTR $T3[ebp]
	push	eax
	mov	ecx, DWORD PTR _this$[ebp]
	call	?_Getal@?$_String_alloc@$0A@U?$_String_base_types@DV?$allocator@D@std@@@std@@@std@@QBE?AU?$_Wrap_alloc@V?$allocator@D@std@@@2@XZ ; std::_String_alloc<0,std::_String_base_types<char,std::allocator<char> > >::_Getal
	mov	DWORD PTR tv204[ebp], eax
	mov	ecx, DWORD PTR __Newres$[ebp]
	add	ecx, 1
	push	ecx
	mov	ecx, DWORD PTR tv204[ebp]
	call	?allocate@?$_Wrap_alloc@V?$allocator@D@std@@@std@@QAEPADI@Z ; std::_Wrap_alloc<std::allocator<char> >::allocate
	mov	DWORD PTR tv205[ebp], eax
	mov	edx, DWORD PTR tv205[ebp]
	mov	DWORD PTR __Ptr$[ebp], edx
	jmp	SHORT $LN14@Copy
__catch$?_Copy@?$basic_string@DU?$char_traits@D@std@@V?$allocator@D@2@@std@@QAEXII@Z$1:

; 2201 : 			_CATCH_ALL
; 2202 : 			_Tidy(true);	// failed again, discard storage and reraise

	push	0
	push	1
	mov	ecx, DWORD PTR _this$[ebp]
	call	?_Tidy@?$basic_string@DU?$char_traits@D@std@@V?$allocator@D@2@@std@@QAEX_NI@Z ; std::basic_string<char,std::char_traits<char>,std::allocator<char> >::_Tidy

; 2203 : 			_RERAISE;

	push	0
	push	0
	call	__CxxThrowException@8

; 2204 : 			_CATCH_END

	mov	eax, $LN17@Copy
	ret	0
$LN14@Copy:
	mov	DWORD PTR __$EHRec$[ebp+12], 1
	jmp	SHORT __tryend$?_Copy@?$basic_string@DU?$char_traits@D@std@@V?$allocator@D@2@@std@@QAEXII@Z$2
$LN17@Copy:
	mov	DWORD PTR __$EHRec$[ebp+12], 1
__tryend$?_Copy@?$basic_string@DU?$char_traits@D@std@@V?$allocator@D@2@@std@@QAEXII@Z$2:

; 2205 : 		_CATCH_END

	mov	eax, $LN19@Copy
	ret	0
$LN12@Copy:
	mov	DWORD PTR __$EHRec$[ebp+12], -1
	jmp	SHORT __tryend$?_Copy@?$basic_string@DU?$char_traits@D@std@@V?$allocator@D@2@@std@@QAEXII@Z$3
$LN19@Copy:
	mov	DWORD PTR __$EHRec$[ebp+12], -1
__tryend$?_Copy@?$basic_string@DU?$char_traits@D@std@@V?$allocator@D@2@@std@@QAEXII@Z$3:

; 2206 : 
; 2207 : 		if (0 < _Oldlen)

	cmp	DWORD PTR __Oldlen$[ebp], 0
	jbe	SHORT $LN1@Copy

; 2208 : 			_Traits::copy(_Ptr, this->_Myptr(),
; 2209 : 				_Oldlen);	// copy existing elements

	mov	eax, DWORD PTR __Oldlen$[ebp]
	push	eax
	mov	ecx, DWORD PTR _this$[ebp]
	call	?_Myptr@?$_String_val@U?$_Simple_types@D@std@@@std@@QAEPADXZ ; std::_String_val<std::_Simple_types<char> >::_Myptr
	push	eax
	mov	ecx, DWORD PTR __Ptr$[ebp]
	push	ecx
	call	?copy@?$char_traits@D@std@@SAPADPADPBDI@Z ; std::char_traits<char>::copy
	add	esp, 12					; 0000000cH
$LN1@Copy:

; 2210 : 		_Tidy(true);

	push	0
	push	1
	mov	ecx, DWORD PTR _this$[ebp]
	call	?_Tidy@?$basic_string@DU?$char_traits@D@std@@V?$allocator@D@2@@std@@QAEX_NI@Z ; std::basic_string<char,std::char_traits<char>,std::allocator<char> >::_Tidy

; 2211 : 		this->_Getal().construct(&this->_Bx._Ptr, _Ptr);

	lea	edx, DWORD PTR __Ptr$[ebp]
	push	edx
	mov	eax, DWORD PTR _this$[ebp]
	push	eax
	lea	ecx, DWORD PTR $T2[ebp]
	push	ecx
	mov	ecx, DWORD PTR _this$[ebp]
	call	?_Getal@?$_String_alloc@$0A@U?$_String_base_types@DV?$allocator@D@std@@@std@@@std@@QBE?AU?$_Wrap_alloc@V?$allocator@D@std@@@2@XZ ; std::_String_alloc<0,std::_String_base_types<char,std::allocator<char> > >::_Getal
	mov	ecx, eax
	call	??$construct@PADAAPAD@?$_Wrap_alloc@V?$allocator@D@std@@@std@@QAEXPAPADAAPAD@Z ; std::_Wrap_alloc<std::allocator<char> >::construct<char *,char * &>

; 2212 : 		this->_Myres = _Newres;

	mov	edx, DWORD PTR _this$[ebp]
	mov	eax, DWORD PTR __Newres$[ebp]
	mov	DWORD PTR [edx+20], eax

; 2213 : 		_Eos(_Oldlen);

	mov	ecx, DWORD PTR __Oldlen$[ebp]
	push	ecx
	mov	ecx, DWORD PTR _this$[ebp]
	call	?_Eos@?$basic_string@DU?$char_traits@D@std@@V?$allocator@D@2@@std@@QAEXI@Z ; std::basic_string<char,std::char_traits<char>,std::allocator<char> >::_Eos
$LN11@Copy:

; 2214 : 		}

	mov	ecx, DWORD PTR __$EHRec$[ebp+4]
	mov	DWORD PTR fs:0, ecx
	pop	ecx
	pop	edi
	pop	esi
	pop	ebx
	mov	esp, ebp
	pop	ebp
	ret	8
_TEXT	ENDS
;	COMDAT text$x
text$x	SEGMENT
__ehhandler$?_Copy@?$basic_string@DU?$char_traits@D@std@@V?$allocator@D@2@@std@@QAEXII@Z:
	mov	edx, DWORD PTR [esp+8]
	lea	eax, DWORD PTR [edx+12]
	mov	ecx, DWORD PTR [edx-52]
	xor	ecx, eax
	call	@__security_check_cookie@4
	mov	eax, OFFSET __ehfuncinfo$?_Copy@?$basic_string@DU?$char_traits@D@std@@V?$allocator@D@2@@std@@QAEXII@Z
	jmp	___CxxFrameHandler3
text$x	ENDS
?_Copy@?$basic_string@DU?$char_traits@D@std@@V?$allocator@D@2@@std@@QAEXII@Z ENDP ; std::basic_string<char,std::char_traits<char>,std::allocator<char> >::_Copy
; Function compile flags: /Odtp
; File c:\program files (x86)\microsoft visual studio 11.0\vc\include\xstring
;	COMDAT ?max_size@?$basic_string@DU?$char_traits@D@std@@V?$allocator@D@2@@std@@QBEIXZ
_TEXT	SEGMENT
_this$ = -16						; size = 4
tv75 = -12						; size = 4
__Num$ = -8						; size = 4
$T1 = -1						; size = 1
?max_size@?$basic_string@DU?$char_traits@D@std@@V?$allocator@D@2@@std@@QBEIXZ PROC ; std::basic_string<char,std::char_traits<char>,std::allocator<char> >::max_size, COMDAT
; _this$ = ecx

; 1737 : 		{	// return maximum possible length of sequence

	push	ebp
	mov	ebp, esp
	sub	esp, 16					; 00000010H
	mov	DWORD PTR _this$[ebp], ecx

; 1738 : 		size_type _Num = this->_Getal().max_size();

	lea	eax, DWORD PTR $T1[ebp]
	push	eax
	mov	ecx, DWORD PTR _this$[ebp]
	call	?_Getal@?$_String_alloc@$0A@U?$_String_base_types@DV?$allocator@D@std@@@std@@@std@@QBE?AU?$_Wrap_alloc@V?$allocator@D@std@@@2@XZ ; std::_String_alloc<0,std::_String_base_types<char,std::allocator<char> > >::_Getal
	mov	ecx, eax
	call	?max_size@?$_Wrap_alloc@V?$allocator@D@std@@@std@@QBEIXZ ; std::_Wrap_alloc<std::allocator<char> >::max_size
	mov	DWORD PTR __Num$[ebp], eax

; 1739 : 		return (_Num <= 1 ? 1 : _Num - 1);

	cmp	DWORD PTR __Num$[ebp], 1
	ja	SHORT $LN3@max_size
	mov	DWORD PTR tv75[ebp], 1
	jmp	SHORT $LN4@max_size
$LN3@max_size:
	mov	ecx, DWORD PTR __Num$[ebp]
	sub	ecx, 1
	mov	DWORD PTR tv75[ebp], ecx
$LN4@max_size:
	mov	eax, DWORD PTR tv75[ebp]

; 1740 : 		}

	mov	esp, ebp
	pop	ebp
	ret	0
?max_size@?$basic_string@DU?$char_traits@D@std@@V?$allocator@D@2@@std@@QBEIXZ ENDP ; std::basic_string<char,std::char_traits<char>,std::allocator<char> >::max_size
_TEXT	ENDS
; Function compile flags: /Odtp
; File c:\program files (x86)\microsoft visual studio 11.0\vc\include\xstring
;	COMDAT ?size@?$basic_string@DU?$char_traits@D@std@@V?$allocator@D@2@@std@@QBEIXZ
_TEXT	SEGMENT
_this$ = -4						; size = 4
?size@?$basic_string@DU?$char_traits@D@std@@V?$allocator@D@2@@std@@QBEIXZ PROC ; std::basic_string<char,std::char_traits<char>,std::allocator<char> >::size, COMDAT
; _this$ = ecx

; 1732 : 		{	// return length of sequence

	push	ebp
	mov	ebp, esp
	push	ecx
	mov	DWORD PTR _this$[ebp], ecx

; 1733 : 		return (this->_Mysize);

	mov	eax, DWORD PTR _this$[ebp]
	mov	eax, DWORD PTR [eax+16]

; 1734 : 		}

	mov	esp, ebp
	pop	ebp
	ret	0
?size@?$basic_string@DU?$char_traits@D@std@@V?$allocator@D@2@@std@@QBEIXZ ENDP ; std::basic_string<char,std::char_traits<char>,std::allocator<char> >::size
_TEXT	ENDS
; Function compile flags: /Odtp
; File c:\program files (x86)\microsoft visual studio 11.0\vc\include\xstring
;	COMDAT ?c_str@?$basic_string@DU?$char_traits@D@std@@V?$allocator@D@2@@std@@QBEPBDXZ
_TEXT	SEGMENT
_this$ = -4						; size = 4
?c_str@?$basic_string@DU?$char_traits@D@std@@V?$allocator@D@2@@std@@QBEPBDXZ PROC ; std::basic_string<char,std::char_traits<char>,std::allocator<char> >::c_str, COMDAT
; _this$ = ecx

; 1717 : 		{	// return pointer to null-terminated nonmutable array

	push	ebp
	mov	ebp, esp
	push	ecx
	mov	DWORD PTR _this$[ebp], ecx

; 1718 : 		return (this->_Myptr());

	mov	ecx, DWORD PTR _this$[ebp]
	call	?_Myptr@?$_String_val@U?$_Simple_types@D@std@@@std@@QBEPBDXZ ; std::_String_val<std::_Simple_types<char> >::_Myptr

; 1719 : 		}

	mov	esp, ebp
	pop	ebp
	ret	0
?c_str@?$basic_string@DU?$char_traits@D@std@@V?$allocator@D@2@@std@@QBEPBDXZ ENDP ; std::basic_string<char,std::char_traits<char>,std::allocator<char> >::c_str
_TEXT	ENDS
; Function compile flags: /Odtp
; File c:\program files (x86)\microsoft visual studio 11.0\vc\include\xstring
;	COMDAT ?erase@?$basic_string@DU?$char_traits@D@std@@V?$allocator@D@2@@std@@QAEAAV12@II@Z
_TEXT	SEGMENT
__Newsize$1 = -12					; size = 4
__Ptr$2 = -8						; size = 4
_this$ = -4						; size = 4
__Off$ = 8						; size = 4
__Count$ = 12						; size = 4
?erase@?$basic_string@DU?$char_traits@D@std@@V?$allocator@D@2@@std@@QAEAAV12@II@Z PROC ; std::basic_string<char,std::char_traits<char>,std::allocator<char> >::erase, COMDAT
; _this$ = ecx

; 1317 : 		{	// erase elements [_Off, _Off + _Count)

	push	ebp
	mov	ebp, esp
	sub	esp, 12					; 0000000cH
	mov	DWORD PTR _this$[ebp], ecx

; 1318 : 		if (this->_Mysize < _Off)

	mov	eax, DWORD PTR _this$[ebp]
	mov	ecx, DWORD PTR [eax+16]
	cmp	ecx, DWORD PTR __Off$[ebp]
	jae	SHORT $LN4@erase

; 1319 : 			_Xran();	// _Off off end

	mov	ecx, DWORD PTR _this$[ebp]
	call	?_Xran@?$basic_string@DU?$char_traits@D@std@@V?$allocator@D@2@@std@@QBEXXZ ; std::basic_string<char,std::char_traits<char>,std::allocator<char> >::_Xran
$LN4@erase:

; 1320 : 		if (this->_Mysize - _Off <= _Count)

	mov	edx, DWORD PTR _this$[ebp]
	mov	eax, DWORD PTR [edx+16]
	sub	eax, DWORD PTR __Off$[ebp]
	cmp	eax, DWORD PTR __Count$[ebp]
	ja	SHORT $LN3@erase

; 1321 : 			_Eos(_Off);	// erase elements [_Off, ...)

	mov	ecx, DWORD PTR __Off$[ebp]
	push	ecx
	mov	ecx, DWORD PTR _this$[ebp]
	call	?_Eos@?$basic_string@DU?$char_traits@D@std@@V?$allocator@D@2@@std@@QAEXI@Z ; std::basic_string<char,std::char_traits<char>,std::allocator<char> >::_Eos
	jmp	SHORT $LN2@erase
$LN3@erase:

; 1322 : 		else if (0 < _Count)

	cmp	DWORD PTR __Count$[ebp], 0
	jbe	SHORT $LN2@erase

; 1323 : 			{	// move elements down
; 1324 : 			value_type *_Ptr = this->_Myptr() + _Off;

	mov	ecx, DWORD PTR _this$[ebp]
	call	?_Myptr@?$_String_val@U?$_Simple_types@D@std@@@std@@QAEPADXZ ; std::_String_val<std::_Simple_types<char> >::_Myptr
	add	eax, DWORD PTR __Off$[ebp]
	mov	DWORD PTR __Ptr$2[ebp], eax

; 1325 : 			size_type _Newsize = this->_Mysize - _Count;

	mov	edx, DWORD PTR _this$[ebp]
	mov	eax, DWORD PTR [edx+16]
	sub	eax, DWORD PTR __Count$[ebp]
	mov	DWORD PTR __Newsize$1[ebp], eax

; 1326 : 			_Traits::move(_Ptr, _Ptr + _Count, _Newsize - _Off);

	mov	ecx, DWORD PTR __Newsize$1[ebp]
	sub	ecx, DWORD PTR __Off$[ebp]
	push	ecx
	mov	edx, DWORD PTR __Ptr$2[ebp]
	add	edx, DWORD PTR __Count$[ebp]
	push	edx
	mov	eax, DWORD PTR __Ptr$2[ebp]
	push	eax
	call	?move@?$char_traits@D@std@@SAPADPADPBDI@Z ; std::char_traits<char>::move
	add	esp, 12					; 0000000cH

; 1327 : 			_Eos(_Newsize);

	mov	ecx, DWORD PTR __Newsize$1[ebp]
	push	ecx
	mov	ecx, DWORD PTR _this$[ebp]
	call	?_Eos@?$basic_string@DU?$char_traits@D@std@@V?$allocator@D@2@@std@@QAEXI@Z ; std::basic_string<char,std::char_traits<char>,std::allocator<char> >::_Eos
$LN2@erase:

; 1328 : 			}
; 1329 : 		return (*this);

	mov	eax, DWORD PTR _this$[ebp]
$LN6@erase:

; 1330 : 		}

	mov	esp, ebp
	pop	ebp
	ret	8
?erase@?$basic_string@DU?$char_traits@D@std@@V?$allocator@D@2@@std@@QAEAAV12@II@Z ENDP ; std::basic_string<char,std::char_traits<char>,std::allocator<char> >::erase
_TEXT	ENDS
; Function compile flags: /Odtp
; File c:\program files (x86)\microsoft visual studio 11.0\vc\include\xstring
;	COMDAT ?erase@?$basic_string@DU?$char_traits@D@std@@V?$allocator@D@2@@std@@QAEAAV12@I@Z
_TEXT	SEGMENT
_this$ = -4						; size = 4
__Off$ = 8						; size = 4
?erase@?$basic_string@DU?$char_traits@D@std@@V?$allocator@D@2@@std@@QAEAAV12@I@Z PROC ; std::basic_string<char,std::char_traits<char>,std::allocator<char> >::erase, COMDAT
; _this$ = ecx

; 1309 : 		{	// erase elements [_Off, ...)

	push	ebp
	mov	ebp, esp
	push	ecx
	mov	DWORD PTR _this$[ebp], ecx

; 1310 : 		if (this->_Mysize < _Off)

	mov	eax, DWORD PTR _this$[ebp]
	mov	ecx, DWORD PTR [eax+16]
	cmp	ecx, DWORD PTR __Off$[ebp]
	jae	SHORT $LN1@erase

; 1311 : 			_Xran();	// _Off off end

	mov	ecx, DWORD PTR _this$[ebp]
	call	?_Xran@?$basic_string@DU?$char_traits@D@std@@V?$allocator@D@2@@std@@QBEXXZ ; std::basic_string<char,std::char_traits<char>,std::allocator<char> >::_Xran
$LN1@erase:

; 1312 : 		_Eos(_Off);

	mov	edx, DWORD PTR __Off$[ebp]
	push	edx
	mov	ecx, DWORD PTR _this$[ebp]
	call	?_Eos@?$basic_string@DU?$char_traits@D@std@@V?$allocator@D@2@@std@@QAEXI@Z ; std::basic_string<char,std::char_traits<char>,std::allocator<char> >::_Eos

; 1313 : 		return (*this);

	mov	eax, DWORD PTR _this$[ebp]
$LN3@erase:

; 1314 : 		}

	mov	esp, ebp
	pop	ebp
	ret	4
?erase@?$basic_string@DU?$char_traits@D@std@@V?$allocator@D@2@@std@@QAEAAV12@I@Z ENDP ; std::basic_string<char,std::char_traits<char>,std::allocator<char> >::erase
_TEXT	ENDS
; Function compile flags: /Odtp
; File c:\program files (x86)\microsoft visual studio 11.0\vc\include\xstring
;	COMDAT ?assign@?$basic_string@DU?$char_traits@D@std@@V?$allocator@D@2@@std@@QAEAAV12@PBD@Z
_TEXT	SEGMENT
_this$ = -4						; size = 4
__Ptr$ = 8						; size = 4
?assign@?$basic_string@DU?$char_traits@D@std@@V?$allocator@D@2@@std@@QAEAAV12@PBD@Z PROC ; std::basic_string<char,std::char_traits<char>,std::allocator<char> >::assign, COMDAT
; _this$ = ecx

; 1142 : 		{	// assign [_Ptr, <null>)

	push	ebp
	mov	ebp, esp
	push	ecx
	mov	DWORD PTR _this$[ebp], ecx

; 1143 : 		_DEBUG_POINTER(_Ptr);
; 1144 : 		return (assign(_Ptr, _Traits::length(_Ptr)));

	mov	eax, DWORD PTR __Ptr$[ebp]
	push	eax
	call	?length@?$char_traits@D@std@@SAIPBD@Z	; std::char_traits<char>::length
	add	esp, 4
	push	eax
	mov	ecx, DWORD PTR __Ptr$[ebp]
	push	ecx
	mov	ecx, DWORD PTR _this$[ebp]
	call	?assign@?$basic_string@DU?$char_traits@D@std@@V?$allocator@D@2@@std@@QAEAAV12@PBDI@Z ; std::basic_string<char,std::char_traits<char>,std::allocator<char> >::assign

; 1145 : 		}

	mov	esp, ebp
	pop	ebp
	ret	4
?assign@?$basic_string@DU?$char_traits@D@std@@V?$allocator@D@2@@std@@QAEAAV12@PBD@Z ENDP ; std::basic_string<char,std::char_traits<char>,std::allocator<char> >::assign
_TEXT	ENDS
; Function compile flags: /Odtp
; File c:\program files (x86)\microsoft visual studio 11.0\vc\include\xstring
;	COMDAT ?assign@?$basic_string@DU?$char_traits@D@std@@V?$allocator@D@2@@std@@QAEAAV12@PBDI@Z
_TEXT	SEGMENT
_this$ = -4						; size = 4
__Ptr$ = 8						; size = 4
__Count$ = 12						; size = 4
?assign@?$basic_string@DU?$char_traits@D@std@@V?$allocator@D@2@@std@@QAEAAV12@PBDI@Z PROC ; std::basic_string<char,std::char_traits<char>,std::allocator<char> >::assign, COMDAT
; _this$ = ecx

; 1123 : 		{	// assign [_Ptr, _Ptr + _Count)

	push	ebp
	mov	ebp, esp
	push	ecx
	mov	DWORD PTR _this$[ebp], ecx

; 1124 :  #if _ITERATOR_DEBUG_LEVEL == 2
; 1125 : 		if (_Count != 0)
; 1126 : 			_DEBUG_POINTER(_Ptr);
; 1127 :  #endif /* _ITERATOR_DEBUG_LEVEL == 2 */
; 1128 : 
; 1129 : 		if (_Inside(_Ptr))

	mov	eax, DWORD PTR __Ptr$[ebp]
	push	eax
	mov	ecx, DWORD PTR _this$[ebp]
	call	?_Inside@?$basic_string@DU?$char_traits@D@std@@V?$allocator@D@2@@std@@QAE_NPBD@Z ; std::basic_string<char,std::char_traits<char>,std::allocator<char> >::_Inside
	movzx	ecx, al
	test	ecx, ecx
	je	SHORT $LN2@assign

; 1130 : 			return (assign(*this,
; 1131 : 				_Ptr - this->_Myptr(), _Count));	// substring

	mov	edx, DWORD PTR __Count$[ebp]
	push	edx
	mov	ecx, DWORD PTR _this$[ebp]
	call	?_Myptr@?$_String_val@U?$_Simple_types@D@std@@@std@@QAEPADXZ ; std::_String_val<std::_Simple_types<char> >::_Myptr
	mov	ecx, DWORD PTR __Ptr$[ebp]
	sub	ecx, eax
	push	ecx
	mov	edx, DWORD PTR _this$[ebp]
	push	edx
	mov	ecx, DWORD PTR _this$[ebp]
	call	?assign@?$basic_string@DU?$char_traits@D@std@@V?$allocator@D@2@@std@@QAEAAV12@ABV12@II@Z ; std::basic_string<char,std::char_traits<char>,std::allocator<char> >::assign
	jmp	SHORT $LN3@assign
$LN2@assign:

; 1132 : 
; 1133 : 		if (_Grow(_Count))

	push	0
	mov	eax, DWORD PTR __Count$[ebp]
	push	eax
	mov	ecx, DWORD PTR _this$[ebp]
	call	?_Grow@?$basic_string@DU?$char_traits@D@std@@V?$allocator@D@2@@std@@QAE_NI_N@Z ; std::basic_string<char,std::char_traits<char>,std::allocator<char> >::_Grow
	movzx	ecx, al
	test	ecx, ecx
	je	SHORT $LN1@assign

; 1134 : 			{	// make room and assign new stuff
; 1135 : 			_Traits::copy(this->_Myptr(), _Ptr, _Count);

	mov	edx, DWORD PTR __Count$[ebp]
	push	edx
	mov	eax, DWORD PTR __Ptr$[ebp]
	push	eax
	mov	ecx, DWORD PTR _this$[ebp]
	call	?_Myptr@?$_String_val@U?$_Simple_types@D@std@@@std@@QAEPADXZ ; std::_String_val<std::_Simple_types<char> >::_Myptr
	push	eax
	call	?copy@?$char_traits@D@std@@SAPADPADPBDI@Z ; std::char_traits<char>::copy
	add	esp, 12					; 0000000cH

; 1136 : 			_Eos(_Count);

	mov	ecx, DWORD PTR __Count$[ebp]
	push	ecx
	mov	ecx, DWORD PTR _this$[ebp]
	call	?_Eos@?$basic_string@DU?$char_traits@D@std@@V?$allocator@D@2@@std@@QAEXI@Z ; std::basic_string<char,std::char_traits<char>,std::allocator<char> >::_Eos
$LN1@assign:

; 1137 : 			}
; 1138 : 		return (*this);

	mov	eax, DWORD PTR _this$[ebp]
$LN3@assign:

; 1139 : 		}

	mov	esp, ebp
	pop	ebp
	ret	8
?assign@?$basic_string@DU?$char_traits@D@std@@V?$allocator@D@2@@std@@QAEAAV12@PBDI@Z ENDP ; std::basic_string<char,std::char_traits<char>,std::allocator<char> >::assign
_TEXT	ENDS
; Function compile flags: /Odtp
; File c:\program files (x86)\microsoft visual studio 11.0\vc\include\xstring
;	COMDAT ?assign@?$basic_string@DU?$char_traits@D@std@@V?$allocator@D@2@@std@@QAEAAV12@ABV12@II@Z
_TEXT	SEGMENT
__Num$ = -8						; size = 4
_this$ = -4						; size = 4
__Right$ = 8						; size = 4
__Roff$ = 12						; size = 4
__Count$ = 16						; size = 4
?assign@?$basic_string@DU?$char_traits@D@std@@V?$allocator@D@2@@std@@QAEAAV12@ABV12@II@Z PROC ; std::basic_string<char,std::char_traits<char>,std::allocator<char> >::assign, COMDAT
; _this$ = ecx

; 1104 : 		{	// assign _Right [_Roff, _Roff + _Count)

	push	ebp
	mov	ebp, esp
	sub	esp, 8
	mov	DWORD PTR _this$[ebp], ecx

; 1105 : 		if (_Right.size() < _Roff)

	mov	ecx, DWORD PTR __Right$[ebp]
	call	?size@?$basic_string@DU?$char_traits@D@std@@V?$allocator@D@2@@std@@QBEIXZ ; std::basic_string<char,std::char_traits<char>,std::allocator<char> >::size
	cmp	eax, DWORD PTR __Roff$[ebp]
	jae	SHORT $LN5@assign

; 1106 : 			_Xran();	// _Roff off end

	mov	ecx, DWORD PTR _this$[ebp]
	call	?_Xran@?$basic_string@DU?$char_traits@D@std@@V?$allocator@D@2@@std@@QBEXXZ ; std::basic_string<char,std::char_traits<char>,std::allocator<char> >::_Xran
$LN5@assign:

; 1107 : 		size_type _Num = _Right.size() - _Roff;

	mov	ecx, DWORD PTR __Right$[ebp]
	call	?size@?$basic_string@DU?$char_traits@D@std@@V?$allocator@D@2@@std@@QBEIXZ ; std::basic_string<char,std::char_traits<char>,std::allocator<char> >::size
	sub	eax, DWORD PTR __Roff$[ebp]
	mov	DWORD PTR __Num$[ebp], eax

; 1108 : 		if (_Count < _Num)

	mov	eax, DWORD PTR __Count$[ebp]
	cmp	eax, DWORD PTR __Num$[ebp]
	jae	SHORT $LN4@assign

; 1109 : 			_Num = _Count;	// trim _Num to size

	mov	ecx, DWORD PTR __Count$[ebp]
	mov	DWORD PTR __Num$[ebp], ecx
$LN4@assign:

; 1110 : 
; 1111 : 		if (this == &_Right)

	mov	edx, DWORD PTR _this$[ebp]
	cmp	edx, DWORD PTR __Right$[ebp]
	jne	SHORT $LN3@assign

; 1112 : 			erase((size_type)(_Roff + _Num)), erase(0, _Roff);	// substring

	mov	eax, DWORD PTR __Roff$[ebp]
	add	eax, DWORD PTR __Num$[ebp]
	push	eax
	mov	ecx, DWORD PTR _this$[ebp]
	call	?erase@?$basic_string@DU?$char_traits@D@std@@V?$allocator@D@2@@std@@QAEAAV12@I@Z ; std::basic_string<char,std::char_traits<char>,std::allocator<char> >::erase
	mov	ecx, DWORD PTR __Roff$[ebp]
	push	ecx
	push	0
	mov	ecx, DWORD PTR _this$[ebp]
	call	?erase@?$basic_string@DU?$char_traits@D@std@@V?$allocator@D@2@@std@@QAEAAV12@II@Z ; std::basic_string<char,std::char_traits<char>,std::allocator<char> >::erase
	jmp	SHORT $LN2@assign
$LN3@assign:

; 1113 : 		else if (_Grow(_Num))

	push	0
	mov	edx, DWORD PTR __Num$[ebp]
	push	edx
	mov	ecx, DWORD PTR _this$[ebp]
	call	?_Grow@?$basic_string@DU?$char_traits@D@std@@V?$allocator@D@2@@std@@QAE_NI_N@Z ; std::basic_string<char,std::char_traits<char>,std::allocator<char> >::_Grow
	movzx	eax, al
	test	eax, eax
	je	SHORT $LN2@assign

; 1114 : 			{	// make room and assign new stuff
; 1115 : 			_Traits::copy(this->_Myptr(),
; 1116 : 				_Right._Myptr() + _Roff, _Num);

	mov	ecx, DWORD PTR __Num$[ebp]
	push	ecx
	mov	ecx, DWORD PTR __Right$[ebp]
	call	?_Myptr@?$_String_val@U?$_Simple_types@D@std@@@std@@QBEPBDXZ ; std::_String_val<std::_Simple_types<char> >::_Myptr
	add	eax, DWORD PTR __Roff$[ebp]
	push	eax
	mov	ecx, DWORD PTR _this$[ebp]
	call	?_Myptr@?$_String_val@U?$_Simple_types@D@std@@@std@@QAEPADXZ ; std::_String_val<std::_Simple_types<char> >::_Myptr
	push	eax
	call	?copy@?$char_traits@D@std@@SAPADPADPBDI@Z ; std::char_traits<char>::copy
	add	esp, 12					; 0000000cH

; 1117 : 			_Eos(_Num);

	mov	edx, DWORD PTR __Num$[ebp]
	push	edx
	mov	ecx, DWORD PTR _this$[ebp]
	call	?_Eos@?$basic_string@DU?$char_traits@D@std@@V?$allocator@D@2@@std@@QAEXI@Z ; std::basic_string<char,std::char_traits<char>,std::allocator<char> >::_Eos
$LN2@assign:

; 1118 : 			}
; 1119 : 		return (*this);

	mov	eax, DWORD PTR _this$[ebp]
$LN7@assign:

; 1120 : 		}

	mov	esp, ebp
	pop	ebp
	ret	12					; 0000000cH
?assign@?$basic_string@DU?$char_traits@D@std@@V?$allocator@D@2@@std@@QAEAAV12@ABV12@II@Z ENDP ; std::basic_string<char,std::char_traits<char>,std::allocator<char> >::assign
_TEXT	ENDS
; Function compile flags: /Odtp
; File c:\program files (x86)\microsoft visual studio 11.0\vc\include\xstring
;	COMDAT ??1?$basic_string@DU?$char_traits@D@std@@V?$allocator@D@2@@std@@QAE@XZ
_TEXT	SEGMENT
_this$ = -4						; size = 4
??1?$basic_string@DU?$char_traits@D@std@@V?$allocator@D@2@@std@@QAE@XZ PROC ; std::basic_string<char,std::char_traits<char>,std::allocator<char> >::~basic_string<char,std::char_traits<char>,std::allocator<char> >, COMDAT
; _this$ = ecx

; 963  : 		{	// destroy the string

	push	ebp
	mov	ebp, esp
	push	ecx
	mov	DWORD PTR _this$[ebp], ecx

; 964  : 		_Tidy(true);

	push	0
	push	1
	mov	ecx, DWORD PTR _this$[ebp]
	call	?_Tidy@?$basic_string@DU?$char_traits@D@std@@V?$allocator@D@2@@std@@QAEX_NI@Z ; std::basic_string<char,std::char_traits<char>,std::allocator<char> >::_Tidy

; 965  : 		}

	mov	esp, ebp
	pop	ebp
	ret	0
??1?$basic_string@DU?$char_traits@D@std@@V?$allocator@D@2@@std@@QAE@XZ ENDP ; std::basic_string<char,std::char_traits<char>,std::allocator<char> >::~basic_string<char,std::char_traits<char>,std::allocator<char> >
_TEXT	ENDS
; Function compile flags: /Odtp
; File c:\program files (x86)\microsoft visual studio 11.0\vc\include\xstring
;	COMDAT ??0?$basic_string@DU?$char_traits@D@std@@V?$allocator@D@2@@std@@QAE@PBD@Z
_TEXT	SEGMENT
_this$ = -8						; size = 4
$T1 = -1						; size = 1
__Ptr$ = 8						; size = 4
??0?$basic_string@DU?$char_traits@D@std@@V?$allocator@D@2@@std@@QAE@PBD@Z PROC ; std::basic_string<char,std::char_traits<char>,std::allocator<char> >::basic_string<char,std::char_traits<char>,std::allocator<char> >, COMDAT
; _this$ = ecx

; 791  : 		{	// construct from [_Ptr, <null>)

	push	ebp
	mov	ebp, esp
	sub	esp, 8
	mov	DWORD PTR _this$[ebp], ecx
	lea	ecx, DWORD PTR $T1[ebp]
	call	??0?$allocator@D@std@@QAE@XZ		; std::allocator<char>::allocator<char>
	push	eax
	mov	ecx, DWORD PTR _this$[ebp]
	call	??0?$_String_alloc@$0A@U?$_String_base_types@DV?$allocator@D@std@@@std@@@std@@QAE@ABV?$allocator@D@1@@Z ; std::_String_alloc<0,std::_String_base_types<char,std::allocator<char> > >::_String_alloc<0,std::_String_base_types<char,std::allocator<char> > >

; 792  : 		_Tidy();

	push	0
	push	0
	mov	ecx, DWORD PTR _this$[ebp]
	call	?_Tidy@?$basic_string@DU?$char_traits@D@std@@V?$allocator@D@2@@std@@QAEX_NI@Z ; std::basic_string<char,std::char_traits<char>,std::allocator<char> >::_Tidy

; 793  : 		assign(_Ptr);

	mov	eax, DWORD PTR __Ptr$[ebp]
	push	eax
	mov	ecx, DWORD PTR _this$[ebp]
	call	?assign@?$basic_string@DU?$char_traits@D@std@@V?$allocator@D@2@@std@@QAEAAV12@PBD@Z ; std::basic_string<char,std::char_traits<char>,std::allocator<char> >::assign

; 794  : 		}

	mov	eax, DWORD PTR _this$[ebp]
	mov	esp, ebp
	pop	ebp
	ret	4
??0?$basic_string@DU?$char_traits@D@std@@V?$allocator@D@2@@std@@QAE@PBD@Z ENDP ; std::basic_string<char,std::char_traits<char>,std::allocator<char> >::basic_string<char,std::char_traits<char>,std::allocator<char> >
_TEXT	ENDS
; Function compile flags: /Odtp
; File c:\program files (x86)\microsoft visual studio 11.0\vc\include\xstring
;	COMDAT ?_Getal@?$_String_alloc@$0A@U?$_String_base_types@DV?$allocator@D@std@@@std@@@std@@QBE?AU?$_Wrap_alloc@V?$allocator@D@std@@@2@XZ
_TEXT	SEGMENT
_this$ = -4						; size = 4
___$ReturnUdt$ = 8					; size = 4
?_Getal@?$_String_alloc@$0A@U?$_String_base_types@DV?$allocator@D@std@@@std@@@std@@QBE?AU?$_Wrap_alloc@V?$allocator@D@std@@@2@XZ PROC ; std::_String_alloc<0,std::_String_base_types<char,std::allocator<char> > >::_Getal, COMDAT
; _this$ = ecx

; 688  : 		{	// get reference to allocator

	push	ebp
	mov	ebp, esp
	push	ecx
	mov	DWORD PTR _this$[ebp], ecx

; 689  : 		return (_Alty());

	mov	ecx, DWORD PTR ___$ReturnUdt$[ebp]
	call	??0?$_Wrap_alloc@V?$allocator@D@std@@@std@@QAE@XZ ; std::_Wrap_alloc<std::allocator<char> >::_Wrap_alloc<std::allocator<char> >
	mov	eax, DWORD PTR ___$ReturnUdt$[ebp]

; 690  : 		}

	mov	esp, ebp
	pop	ebp
	ret	4
?_Getal@?$_String_alloc@$0A@U?$_String_base_types@DV?$allocator@D@std@@@std@@@std@@QBE?AU?$_Wrap_alloc@V?$allocator@D@std@@@2@XZ ENDP ; std::_String_alloc<0,std::_String_base_types<char,std::allocator<char> > >::_Getal
_TEXT	ENDS
; Function compile flags: /Odtp
; File c:\program files (x86)\microsoft visual studio 11.0\vc\include\xstring
;	COMDAT ??0?$_String_alloc@$0A@U?$_String_base_types@DV?$allocator@D@std@@@std@@@std@@QAE@ABV?$allocator@D@1@@Z
_TEXT	SEGMENT
_this$ = -4						; size = 4
___formal$ = 8						; size = 4
??0?$_String_alloc@$0A@U?$_String_base_types@DV?$allocator@D@std@@@std@@@std@@QAE@ABV?$allocator@D@1@@Z PROC ; std::_String_alloc<0,std::_String_base_types<char,std::allocator<char> > >::_String_alloc<0,std::_String_base_types<char,std::allocator<char> > >, COMDAT
; _this$ = ecx

; 635  : 	_String_alloc(const _Alloc& = _Alloc())

	push	ebp
	mov	ebp, esp
	push	ecx
	mov	DWORD PTR _this$[ebp], ecx
	mov	ecx, DWORD PTR _this$[ebp]
	call	??0?$_String_val@U?$_Simple_types@D@std@@@std@@QAE@XZ ; std::_String_val<std::_Simple_types<char> >::_String_val<std::_Simple_types<char> >

; 636  : 		{	// construct allocator from _Al
; 637  : 		}

	mov	eax, DWORD PTR _this$[ebp]
	mov	esp, ebp
	pop	ebp
	ret	4
??0?$_String_alloc@$0A@U?$_String_base_types@DV?$allocator@D@std@@@std@@@std@@QAE@ABV?$allocator@D@1@@Z ENDP ; std::_String_alloc<0,std::_String_base_types<char,std::allocator<char> > >::_String_alloc<0,std::_String_base_types<char,std::allocator<char> > >
_TEXT	ENDS
; Function compile flags: /Odtp
; File c:\program files (x86)\microsoft visual studio 11.0\vc\include\xstring
;	COMDAT ?_Myptr@?$_String_val@U?$_Simple_types@D@std@@@std@@QBEPBDXZ
_TEXT	SEGMENT
tv72 = -8						; size = 4
_this$ = -4						; size = 4
?_Myptr@?$_String_val@U?$_Simple_types@D@std@@@std@@QBEPBDXZ PROC ; std::_String_val<std::_Simple_types<char> >::_Myptr, COMDAT
; _this$ = ecx

; 521  : 		{	// determine current pointer to buffer for nonmutable string

	push	ebp
	mov	ebp, esp
	sub	esp, 8
	mov	DWORD PTR _this$[ebp], ecx

; 522  : 		return (this->_BUF_SIZE <= this->_Myres
; 523  : 			? _STD addressof(*this->_Bx._Ptr)
; 524  : 			: this->_Bx._Buf);

	mov	eax, DWORD PTR _this$[ebp]
	cmp	DWORD PTR [eax+20], 16			; 00000010H
	jb	SHORT $LN3@Myptr
	mov	ecx, DWORD PTR _this$[ebp]
	mov	edx, DWORD PTR [ecx]
	push	edx
	call	??$addressof@D@std@@YAPADAAD@Z		; std::addressof<char>
	add	esp, 4
	mov	DWORD PTR tv72[ebp], eax
	jmp	SHORT $LN4@Myptr
$LN3@Myptr:
	mov	eax, DWORD PTR _this$[ebp]
	mov	DWORD PTR tv72[ebp], eax
$LN4@Myptr:
	mov	eax, DWORD PTR tv72[ebp]

; 525  : 		}

	mov	esp, ebp
	pop	ebp
	ret	0
?_Myptr@?$_String_val@U?$_Simple_types@D@std@@@std@@QBEPBDXZ ENDP ; std::_String_val<std::_Simple_types<char> >::_Myptr
_TEXT	ENDS
; Function compile flags: /Odtp
; File c:\program files (x86)\microsoft visual studio 11.0\vc\include\xstring
;	COMDAT ?_Myptr@?$_String_val@U?$_Simple_types@D@std@@@std@@QAEPADXZ
_TEXT	SEGMENT
tv72 = -8						; size = 4
_this$ = -4						; size = 4
?_Myptr@?$_String_val@U?$_Simple_types@D@std@@@std@@QAEPADXZ PROC ; std::_String_val<std::_Simple_types<char> >::_Myptr, COMDAT
; _this$ = ecx

; 514  : 		{	// determine current pointer to buffer for mutable string

	push	ebp
	mov	ebp, esp
	sub	esp, 8
	mov	DWORD PTR _this$[ebp], ecx

; 515  : 		return (this->_BUF_SIZE <= this->_Myres
; 516  : 			? _STD addressof(*this->_Bx._Ptr)
; 517  : 			: this->_Bx._Buf);

	mov	eax, DWORD PTR _this$[ebp]
	cmp	DWORD PTR [eax+20], 16			; 00000010H
	jb	SHORT $LN3@Myptr
	mov	ecx, DWORD PTR _this$[ebp]
	mov	edx, DWORD PTR [ecx]
	push	edx
	call	??$addressof@D@std@@YAPADAAD@Z		; std::addressof<char>
	add	esp, 4
	mov	DWORD PTR tv72[ebp], eax
	jmp	SHORT $LN4@Myptr
$LN3@Myptr:
	mov	eax, DWORD PTR _this$[ebp]
	mov	DWORD PTR tv72[ebp], eax
$LN4@Myptr:
	mov	eax, DWORD PTR tv72[ebp]

; 518  : 		}

	mov	esp, ebp
	pop	ebp
	ret	0
?_Myptr@?$_String_val@U?$_Simple_types@D@std@@@std@@QAEPADXZ ENDP ; std::_String_val<std::_Simple_types<char> >::_Myptr
_TEXT	ENDS
; Function compile flags: /Odtp
; File c:\program files (x86)\microsoft visual studio 11.0\vc\include\xstring
;	COMDAT ??0?$_String_val@U?$_Simple_types@D@std@@@std@@QAE@XZ
_TEXT	SEGMENT
_this$ = -4						; size = 4
??0?$_String_val@U?$_Simple_types@D@std@@@std@@QAE@XZ PROC ; std::_String_val<std::_Simple_types<char> >::_String_val<std::_Simple_types<char> >, COMDAT
; _this$ = ecx

; 496  : 	_String_val()

	push	ebp
	mov	ebp, esp
	push	ecx
	mov	DWORD PTR _this$[ebp], ecx

; 497  : 		{	// initialize values
; 498  : 		_Mysize = 0;

	mov	eax, DWORD PTR _this$[ebp]
	mov	DWORD PTR [eax+16], 0

; 499  : 		_Myres = 0;

	mov	ecx, DWORD PTR _this$[ebp]
	mov	DWORD PTR [ecx+20], 0

; 500  : 		}

	mov	eax, DWORD PTR _this$[ebp]
	mov	esp, ebp
	pop	ebp
	ret	0
??0?$_String_val@U?$_Simple_types@D@std@@@std@@QAE@XZ ENDP ; std::_String_val<std::_Simple_types<char> >::_String_val<std::_Simple_types<char> >
_TEXT	ENDS
; Function compile flags: /Odtp
; File c:\program files (x86)\microsoft visual studio 11.0\vc\include\xmemory0
;	COMDAT ?max_size@?$_Wrap_alloc@V?$allocator@D@std@@@std@@QBEIXZ
_TEXT	SEGMENT
_this$ = -4						; size = 4
?max_size@?$_Wrap_alloc@V?$allocator@D@std@@@std@@QBEIXZ PROC ; std::_Wrap_alloc<std::allocator<char> >::max_size, COMDAT
; _this$ = ecx

; 913  : 		{	// get maximum size

	push	ebp
	mov	ebp, esp
	push	ecx
	mov	DWORD PTR _this$[ebp], ecx

; 914  : 		return (_Mytraits::max_size(*this));

	mov	eax, DWORD PTR _this$[ebp]
	push	eax
	call	?max_size@?$allocator_traits@V?$allocator@D@std@@@std@@SAIABV?$allocator@D@2@@Z ; std::allocator_traits<std::allocator<char> >::max_size
	add	esp, 4

; 915  : 		}

	mov	esp, ebp
	pop	ebp
	ret	0
?max_size@?$_Wrap_alloc@V?$allocator@D@std@@@std@@QBEIXZ ENDP ; std::_Wrap_alloc<std::allocator<char> >::max_size
_TEXT	ENDS
; Function compile flags: /Odtp
; File c:\program files (x86)\microsoft visual studio 11.0\vc\include\xmemory0
;	COMDAT ?deallocate@?$_Wrap_alloc@V?$allocator@D@std@@@std@@QAEXPADI@Z
_TEXT	SEGMENT
_this$ = -4						; size = 4
__Ptr$ = 8						; size = 4
__Count$ = 12						; size = 4
?deallocate@?$_Wrap_alloc@V?$allocator@D@std@@@std@@QAEXPADI@Z PROC ; std::_Wrap_alloc<std::allocator<char> >::deallocate, COMDAT
; _this$ = ecx

; 886  : 		{	// deallocate object at _Ptr, ignore size

	push	ebp
	mov	ebp, esp
	push	ecx
	mov	DWORD PTR _this$[ebp], ecx

; 887  : 		_Mybase::deallocate(_Ptr, _Count);

	mov	eax, DWORD PTR __Count$[ebp]
	push	eax
	mov	ecx, DWORD PTR __Ptr$[ebp]
	push	ecx
	mov	ecx, DWORD PTR _this$[ebp]
	call	?deallocate@?$allocator@D@std@@QAEXPADI@Z ; std::allocator<char>::deallocate

; 888  : 		}

	mov	esp, ebp
	pop	ebp
	ret	8
?deallocate@?$_Wrap_alloc@V?$allocator@D@std@@@std@@QAEXPADI@Z ENDP ; std::_Wrap_alloc<std::allocator<char> >::deallocate
_TEXT	ENDS
; Function compile flags: /Odtp
; File c:\program files (x86)\microsoft visual studio 11.0\vc\include\xmemory0
;	COMDAT ?allocate@?$_Wrap_alloc@V?$allocator@D@std@@@std@@QAEPADI@Z
_TEXT	SEGMENT
_this$ = -4						; size = 4
__Count$ = 8						; size = 4
?allocate@?$_Wrap_alloc@V?$allocator@D@std@@@std@@QAEPADI@Z PROC ; std::_Wrap_alloc<std::allocator<char> >::allocate, COMDAT
; _this$ = ecx

; 875  : 		{	// allocate array of _Count elements

	push	ebp
	mov	ebp, esp
	push	ecx
	mov	DWORD PTR _this$[ebp], ecx

; 876  : 		return (_Mybase::allocate(_Count));

	mov	eax, DWORD PTR __Count$[ebp]
	push	eax
	mov	ecx, DWORD PTR _this$[ebp]
	call	?allocate@?$allocator@D@std@@QAEPADI@Z	; std::allocator<char>::allocate

; 877  : 		}

	mov	esp, ebp
	pop	ebp
	ret	4
?allocate@?$_Wrap_alloc@V?$allocator@D@std@@@std@@QAEPADI@Z ENDP ; std::_Wrap_alloc<std::allocator<char> >::allocate
_TEXT	ENDS
; Function compile flags: /Odtp
; File c:\program files (x86)\microsoft visual studio 11.0\vc\include\xmemory0
;	COMDAT ??0?$_Wrap_alloc@V?$allocator@D@std@@@std@@QAE@XZ
_TEXT	SEGMENT
_this$ = -4						; size = 4
??0?$_Wrap_alloc@V?$allocator@D@std@@@std@@QAE@XZ PROC	; std::_Wrap_alloc<std::allocator<char> >::_Wrap_alloc<std::allocator<char> >, COMDAT
; _this$ = ecx

; 830  : 		{	// construct default allocator (do nothing)

	push	ebp
	mov	ebp, esp
	push	ecx
	mov	DWORD PTR _this$[ebp], ecx
	mov	ecx, DWORD PTR _this$[ebp]
	call	??0?$allocator@D@std@@QAE@XZ		; std::allocator<char>::allocator<char>

; 831  : 		}

	mov	eax, DWORD PTR _this$[ebp]
	mov	esp, ebp
	pop	ebp
	ret	0
??0?$_Wrap_alloc@V?$allocator@D@std@@@std@@QAE@XZ ENDP	; std::_Wrap_alloc<std::allocator<char> >::_Wrap_alloc<std::allocator<char> >
_TEXT	ENDS
; Function compile flags: /Odtp
; File c:\program files (x86)\microsoft visual studio 11.0\vc\include\xmemory0
;	COMDAT ?max_size@?$allocator_traits@V?$allocator@D@std@@@std@@SAIABV?$allocator@D@2@@Z
_TEXT	SEGMENT
__Al$ = 8						; size = 4
?max_size@?$allocator_traits@V?$allocator@D@std@@@std@@SAIABV?$allocator@D@2@@Z PROC ; std::allocator_traits<std::allocator<char> >::max_size, COMDAT

; 761  : 		{	// get maximum size

	push	ebp
	mov	ebp, esp

; 762  : 		return (_Al.max_size());

	mov	ecx, DWORD PTR __Al$[ebp]
	call	?max_size@?$allocator@D@std@@QBEIXZ	; std::allocator<char>::max_size

; 763  : 		}

	pop	ebp
	ret	0
?max_size@?$allocator_traits@V?$allocator@D@std@@@std@@SAIABV?$allocator@D@2@@Z ENDP ; std::allocator_traits<std::allocator<char> >::max_size
_TEXT	ENDS
; Function compile flags: /Odtp
; File c:\program files (x86)\microsoft visual studio 11.0\vc\include\xmemory0
;	COMDAT ?max_size@?$allocator@D@std@@QBEIXZ
_TEXT	SEGMENT
_this$ = -4						; size = 4
?max_size@?$allocator@D@std@@QBEIXZ PROC		; std::allocator<char>::max_size, COMDAT
; _this$ = ecx

; 627  : 		{	// estimate maximum array size

	push	ebp
	mov	ebp, esp
	push	ecx
	mov	DWORD PTR _this$[ebp], ecx

; 628  : 		return ((size_t)(-1) / sizeof (_Ty));

	or	eax, -1

; 629  : 		}

	mov	esp, ebp
	pop	ebp
	ret	0
?max_size@?$allocator@D@std@@QBEIXZ ENDP		; std::allocator<char>::max_size
_TEXT	ENDS
; Function compile flags: /Odtp
; File c:\program files (x86)\microsoft visual studio 11.0\vc\include\xmemory0
;	COMDAT ?allocate@?$allocator@D@std@@QAEPADI@Z
_TEXT	SEGMENT
_this$ = -4						; size = 4
__Count$ = 8						; size = 4
?allocate@?$allocator@D@std@@QAEPADI@Z PROC		; std::allocator<char>::allocate, COMDAT
; _this$ = ecx

; 590  : 		{	// allocate array of _Count elements

	push	ebp
	mov	ebp, esp
	push	ecx
	mov	DWORD PTR _this$[ebp], ecx

; 591  : 		return (_Allocate(_Count, (pointer)0));

	push	0
	mov	eax, DWORD PTR __Count$[ebp]
	push	eax
	call	??$_Allocate@D@std@@YAPADIPAD@Z		; std::_Allocate<char>
	add	esp, 8

; 592  : 		}

	mov	esp, ebp
	pop	ebp
	ret	4
?allocate@?$allocator@D@std@@QAEPADI@Z ENDP		; std::allocator<char>::allocate
_TEXT	ENDS
; Function compile flags: /Odtp
; File c:\program files (x86)\microsoft visual studio 11.0\vc\include\xmemory0
;	COMDAT ?deallocate@?$allocator@D@std@@QAEXPADI@Z
_TEXT	SEGMENT
_this$ = -4						; size = 4
__Ptr$ = 8						; size = 4
___formal$ = 12						; size = 4
?deallocate@?$allocator@D@std@@QAEXPADI@Z PROC		; std::allocator<char>::deallocate, COMDAT
; _this$ = ecx

; 585  : 		{	// deallocate object at _Ptr, ignore size

	push	ebp
	mov	ebp, esp
	push	ecx
	mov	DWORD PTR _this$[ebp], ecx

; 586  : 		::operator delete(_Ptr);

	mov	eax, DWORD PTR __Ptr$[ebp]
	push	eax
	call	??3@YAXPAX@Z				; operator delete
	add	esp, 4

; 587  : 		}

	mov	esp, ebp
	pop	ebp
	ret	8
?deallocate@?$allocator@D@std@@QAEXPADI@Z ENDP		; std::allocator<char>::deallocate
_TEXT	ENDS
; Function compile flags: /Odtp
; File c:\program files (x86)\microsoft visual studio 11.0\vc\include\xmemory0
;	COMDAT ??0?$allocator@D@std@@QAE@XZ
_TEXT	SEGMENT
_this$ = -4						; size = 4
??0?$allocator@D@std@@QAE@XZ PROC			; std::allocator<char>::allocator<char>, COMDAT
; _this$ = ecx

; 565  : 	allocator() _THROW0()

	push	ebp
	mov	ebp, esp
	push	ecx
	mov	DWORD PTR _this$[ebp], ecx

; 566  : 		{	// construct default allocator (do nothing)
; 567  : 		}

	mov	eax, DWORD PTR _this$[ebp]
	mov	esp, ebp
	pop	ebp
	ret	0
??0?$allocator@D@std@@QAE@XZ ENDP			; std::allocator<char>::allocator<char>
_TEXT	ENDS
; Function compile flags: /Odtp
;	COMDAT ??_Glogic_error@std@@UAEPAXI@Z
_TEXT	SEGMENT
_this$ = -4						; size = 4
___flags$ = 8						; size = 4
??_Glogic_error@std@@UAEPAXI@Z PROC			; std::logic_error::`scalar deleting destructor', COMDAT
; _this$ = ecx
	push	ebp
	mov	ebp, esp
	push	ecx
	mov	DWORD PTR _this$[ebp], ecx
	mov	ecx, DWORD PTR _this$[ebp]
	call	??1logic_error@std@@UAE@XZ
	mov	eax, DWORD PTR ___flags$[ebp]
	and	eax, 1
	je	SHORT $LN1@scalar
	mov	ecx, DWORD PTR _this$[ebp]
	push	ecx
	call	??3@YAXPAX@Z				; operator delete
	add	esp, 4
$LN1@scalar:
	mov	eax, DWORD PTR _this$[ebp]
	mov	esp, ebp
	pop	ebp
	ret	4
??_Glogic_error@std@@UAEPAXI@Z ENDP			; std::logic_error::`scalar deleting destructor'
_TEXT	ENDS
; Function compile flags: /Odtp
;	COMDAT ??0logic_error@std@@QAE@ABV01@@Z
_TEXT	SEGMENT
_this$ = -4						; size = 4
___that$ = 8						; size = 4
??0logic_error@std@@QAE@ABV01@@Z PROC			; std::logic_error::logic_error, COMDAT
; _this$ = ecx
	push	ebp
	mov	ebp, esp
	push	ecx
	mov	DWORD PTR _this$[ebp], ecx
	mov	eax, DWORD PTR ___that$[ebp]
	push	eax
	mov	ecx, DWORD PTR _this$[ebp]
	call	??0exception@std@@QAE@ABV01@@Z		; std::exception::exception
	mov	ecx, DWORD PTR _this$[ebp]
	mov	DWORD PTR [ecx], OFFSET ??_7logic_error@std@@6B@
	mov	eax, DWORD PTR _this$[ebp]
	mov	esp, ebp
	pop	ebp
	ret	4
??0logic_error@std@@QAE@ABV01@@Z ENDP			; std::logic_error::logic_error
_TEXT	ENDS
; Function compile flags: /Odtp
;	COMDAT ??1logic_error@std@@UAE@XZ
_TEXT	SEGMENT
_this$ = -4						; size = 4
??1logic_error@std@@UAE@XZ PROC				; std::logic_error::~logic_error, COMDAT
; _this$ = ecx
	push	ebp
	mov	ebp, esp
	push	ecx
	mov	DWORD PTR _this$[ebp], ecx
	mov	ecx, DWORD PTR _this$[ebp]
	call	??1exception@std@@UAE@XZ		; std::exception::~exception
	mov	esp, ebp
	pop	ebp
	ret	0
??1logic_error@std@@UAE@XZ ENDP				; std::logic_error::~logic_error
_TEXT	ENDS
; Function compile flags: /Odtp
; File c:\program files (x86)\microsoft visual studio 11.0\vc\include\stdexcept
;	COMDAT ??0logic_error@std@@QAE@PBD@Z
_TEXT	SEGMENT
_this$ = -4						; size = 4
__Message$ = 8						; size = 4
??0logic_error@std@@QAE@PBD@Z PROC			; std::logic_error::logic_error, COMDAT
; _this$ = ecx

; 38   : 		{	// construct from message string

	push	ebp
	mov	ebp, esp
	push	ecx
	mov	DWORD PTR _this$[ebp], ecx
	lea	eax, DWORD PTR __Message$[ebp]
	push	eax
	mov	ecx, DWORD PTR _this$[ebp]
	call	??0exception@std@@QAE@ABQBD@Z		; std::exception::exception
	mov	ecx, DWORD PTR _this$[ebp]
	mov	DWORD PTR [ecx], OFFSET ??_7logic_error@std@@6B@

; 39   : 		}

	mov	eax, DWORD PTR _this$[ebp]
	mov	esp, ebp
	pop	ebp
	ret	4
??0logic_error@std@@QAE@PBD@Z ENDP			; std::logic_error::logic_error
_TEXT	ENDS
; Function compile flags: /Odtp
; File c:\program files (x86)\microsoft visual studio 11.0\vc\include\xutility
;	COMDAT ??__Eallocator_arg@std@@YAXXZ
text$yc	SEGMENT
$T1 = -1						; size = 1
??__Eallocator_arg@std@@YAXXZ PROC			; std::`dynamic initializer for 'allocator_arg'', COMDAT

; 3644 : const allocator_arg_t allocator_arg = allocator_arg_t();

	push	ebp
	mov	ebp, esp
	push	ecx
	xor	eax, eax
	mov	BYTE PTR $T1[ebp], al
	mov	esp, ebp
	pop	ebp
	ret	0
??__Eallocator_arg@std@@YAXXZ ENDP			; std::`dynamic initializer for 'allocator_arg''
text$yc	ENDS
; Function compile flags: /Odtp
; File c:\program files (x86)\microsoft visual studio 11.0\vc\include\utility
;	COMDAT ??__Epiecewise_construct@std@@YAXXZ
text$yc	SEGMENT
$T1 = -1						; size = 1
??__Epiecewise_construct@std@@YAXXZ PROC		; std::`dynamic initializer for 'piecewise_construct'', COMDAT

; 65   : 	piecewise_construct_t();

	push	ebp
	mov	ebp, esp
	push	ecx
	xor	eax, eax
	mov	BYTE PTR $T1[ebp], al
	mov	esp, ebp
	pop	ebp
	ret	0
??__Epiecewise_construct@std@@YAXXZ ENDP		; std::`dynamic initializer for 'piecewise_construct''
text$yc	ENDS
; Function compile flags: /Odtp
; File c:\program files (x86)\microsoft visual studio 11.0\vc\include\iosfwd
;	COMDAT ?assign@?$char_traits@D@std@@SAXAADABD@Z
_TEXT	SEGMENT
__Left$ = 8						; size = 4
__Right$ = 12						; size = 4
?assign@?$char_traits@D@std@@SAXAADABD@Z PROC		; std::char_traits<char>::assign, COMDAT

; 563  : 		{	// assign an element

	push	ebp
	mov	ebp, esp

; 564  : 		_Left = _Right;

	mov	eax, DWORD PTR __Left$[ebp]
	mov	ecx, DWORD PTR __Right$[ebp]
	mov	dl, BYTE PTR [ecx]
	mov	BYTE PTR [eax], dl

; 565  : 		}

	pop	ebp
	ret	0
?assign@?$char_traits@D@std@@SAXAADABD@Z ENDP		; std::char_traits<char>::assign
_TEXT	ENDS
; Function compile flags: /Odtp
; File c:\program files (x86)\microsoft visual studio 11.0\vc\include\iosfwd
;	COMDAT ?move@?$char_traits@D@std@@SAPADPADPBDI@Z
_TEXT	SEGMENT
tv69 = -4						; size = 4
__First1$ = 8						; size = 4
__First2$ = 12						; size = 4
__Count$ = 16						; size = 4
?move@?$char_traits@D@std@@SAPADPADPBDI@Z PROC		; std::char_traits<char>::move, COMDAT

; 551  : 		{	// copy [_First2, _First2 + _Count) to [_First1, ...)

	push	ebp
	mov	ebp, esp
	push	ecx

; 552  : 		return (_Count == 0 ? _First1
; 553  : 			: (_Elem *)_CSTD memmove(_First1, _First2, _Count));

	cmp	DWORD PTR __Count$[ebp], 0
	jne	SHORT $LN3@move
	mov	eax, DWORD PTR __First1$[ebp]
	mov	DWORD PTR tv69[ebp], eax
	jmp	SHORT $LN4@move
$LN3@move:
	mov	ecx, DWORD PTR __Count$[ebp]
	push	ecx
	mov	edx, DWORD PTR __First2$[ebp]
	push	edx
	mov	eax, DWORD PTR __First1$[ebp]
	push	eax
	call	_memmove
	add	esp, 12					; 0000000cH
	mov	DWORD PTR tv69[ebp], eax
$LN4@move:
	mov	eax, DWORD PTR tv69[ebp]

; 554  : 		}

	mov	esp, ebp
	pop	ebp
	ret	0
?move@?$char_traits@D@std@@SAPADPADPBDI@Z ENDP		; std::char_traits<char>::move
_TEXT	ENDS
; Function compile flags: /Odtp
; File c:\program files (x86)\microsoft visual studio 11.0\vc\include\iosfwd
;	COMDAT ?copy@?$char_traits@D@std@@SAPADPADPBDI@Z
_TEXT	SEGMENT
tv69 = -4						; size = 4
__First1$ = 8						; size = 4
__First2$ = 12						; size = 4
__Count$ = 16						; size = 4
?copy@?$char_traits@D@std@@SAPADPADPBDI@Z PROC		; std::char_traits<char>::copy, COMDAT

; 528  : 		{	// copy [_First2, _First2 + _Count) to [_First1, ...)

	push	ebp
	mov	ebp, esp
	push	ecx

; 529  : 		return (_Count == 0 ? _First1
; 530  : 			: (_Elem *)_CSTD memcpy(_First1, _First2, _Count));

	cmp	DWORD PTR __Count$[ebp], 0
	jne	SHORT $LN3@copy
	mov	eax, DWORD PTR __First1$[ebp]
	mov	DWORD PTR tv69[ebp], eax
	jmp	SHORT $LN4@copy
$LN3@copy:
	mov	ecx, DWORD PTR __Count$[ebp]
	push	ecx
	mov	edx, DWORD PTR __First2$[ebp]
	push	edx
	mov	eax, DWORD PTR __First1$[ebp]
	push	eax
	call	_memcpy
	add	esp, 12					; 0000000cH
	mov	DWORD PTR tv69[ebp], eax
$LN4@copy:
	mov	eax, DWORD PTR tv69[ebp]

; 531  : 		}

	mov	esp, ebp
	pop	ebp
	ret	0
?copy@?$char_traits@D@std@@SAPADPADPBDI@Z ENDP		; std::char_traits<char>::copy
_TEXT	ENDS
; Function compile flags: /Odtp
; File c:\program files (x86)\microsoft visual studio 11.0\vc\include\iosfwd
;	COMDAT ?length@?$char_traits@D@std@@SAIPBD@Z
_TEXT	SEGMENT
tv68 = -4						; size = 4
__First$ = 8						; size = 4
?length@?$char_traits@D@std@@SAIPBD@Z PROC		; std::char_traits<char>::length, COMDAT

; 521  : 		{	// find length of null-terminated string

	push	ebp
	mov	ebp, esp
	push	ecx

; 522  : 		return (*_First == 0 ? 0
; 523  : 			: _CSTD strlen(_First));

	mov	eax, DWORD PTR __First$[ebp]
	movsx	ecx, BYTE PTR [eax]
	test	ecx, ecx
	jne	SHORT $LN3@length
	mov	DWORD PTR tv68[ebp], 0
	jmp	SHORT $LN4@length
$LN3@length:
	mov	edx, DWORD PTR __First$[ebp]
	push	edx
	call	_strlen
	add	esp, 4
	mov	DWORD PTR tv68[ebp], eax
$LN4@length:
	mov	eax, DWORD PTR tv68[ebp]

; 524  : 		}

	mov	esp, ebp
	pop	ebp
	ret	0
?length@?$char_traits@D@std@@SAIPBD@Z ENDP		; std::char_traits<char>::length
_TEXT	ENDS
; Function compile flags: /Odtp
; File c:\program files (x86)\microsoft visual studio 11.0\vc\include\new
;	COMDAT ??3@YAXPAX0@Z
_TEXT	SEGMENT
___formal$ = 8						; size = 4
___formal$ = 12						; size = 4
??3@YAXPAX0@Z PROC					; operator delete, COMDAT

; 64   : 	{	// delete if placement new fails

	push	ebp
	mov	ebp, esp

; 65   : 	}

	pop	ebp
	ret	0
??3@YAXPAX0@Z ENDP					; operator delete
_TEXT	ENDS
; Function compile flags: /Odtp
; File c:\program files (x86)\microsoft visual studio 11.0\vc\include\new
;	COMDAT ??2@YAPAXIPAX@Z
_TEXT	SEGMENT
___formal$ = 8						; size = 4
__Where$ = 12						; size = 4
??2@YAPAXIPAX@Z PROC					; operator new, COMDAT

; 59   : 	{	// construct array with placement at _Where

	push	ebp
	mov	ebp, esp

; 60   : 	return (_Where);

	mov	eax, DWORD PTR __Where$[ebp]

; 61   : 	}

	pop	ebp
	ret	0
??2@YAPAXIPAX@Z ENDP					; operator new
_TEXT	ENDS
; Function compile flags: /Odtp
; File c:\users\zhitao li\documents\visual studio 2012\projects\freefalcon\vu2\include\vuentity.h
;	COMDAT ?YPos@VuEntity@@QBEMXZ
_TEXT	SEGMENT
_this$ = -4						; size = 4
?YPos@VuEntity@@QBEMXZ PROC				; VuEntity::YPos, COMDAT
; _this$ = ecx

; 159  : 	BIG_SCALAR YPos()	const { return pos_.y_; }

	push	ebp
	mov	ebp, esp
	push	ecx
	mov	DWORD PTR _this$[ebp], ecx
	mov	eax, DWORD PTR _this$[ebp]
	fld	DWORD PTR [eax+40]
	mov	esp, ebp
	pop	ebp
	ret	0
?YPos@VuEntity@@QBEMXZ ENDP				; VuEntity::YPos
_TEXT	ENDS
; Function compile flags: /Odtp
; File c:\users\zhitao li\documents\visual studio 2012\projects\freefalcon\vu2\include\vuentity.h
;	COMDAT ?XPos@VuEntity@@QBEMXZ
_TEXT	SEGMENT
_this$ = -4						; size = 4
?XPos@VuEntity@@QBEMXZ PROC				; VuEntity::XPos, COMDAT
; _this$ = ecx

; 158  : 	BIG_SCALAR XPos() const { return pos_.x_; }

	push	ebp
	mov	ebp, esp
	push	ecx
	mov	DWORD PTR _this$[ebp], ecx
	mov	eax, DWORD PTR _this$[ebp]
	fld	DWORD PTR [eax+36]
	mov	esp, ebp
	pop	ebp
	ret	0
?XPos@VuEntity@@QBEMXZ ENDP				; VuEntity::XPos
_TEXT	ENDS
; Function compile flags: /Odtp
; File c:\users\zhitao li\documents\visual studio 2012\projects\freefalcon\vu2\include\vuentity.h
;	COMDAT ?Type@VuEntity@@QBEGXZ
_TEXT	SEGMENT
_this$ = -4						; size = 4
?Type@VuEntity@@QBEGXZ PROC				; VuEntity::Type, COMDAT
; _this$ = ecx

; 154  : 	ushort Type() const       { return share_.entityType_; }

	push	ebp
	mov	ebp, esp
	push	ecx
	mov	DWORD PTR _this$[ebp], ecx
	mov	eax, DWORD PTR _this$[ebp]
	mov	ax, WORD PTR [eax+4]
	mov	esp, ebp
	pop	ebp
	ret	0
?Type@VuEntity@@QBEGXZ ENDP				; VuEntity::Type
_TEXT	ENDS
; Function compile flags: /Odtp
; File c:\users\zhitao li\documents\visual studio 2012\projects\freefalcon\vu2\include\vuentity.h
;	COMDAT ?VuState@VuEntity@@QBE?AW4VU_MEM@@XZ
_TEXT	SEGMENT
_this$ = -4						; size = 4
?VuState@VuEntity@@QBE?AW4VU_MEM@@XZ PROC		; VuEntity::VuState, COMDAT
; _this$ = ecx

; 153  : 	VU_MEM VuState() const    { return vuState_; }

	push	ebp
	mov	ebp, esp
	push	ecx
	mov	DWORD PTR _this$[ebp], ecx
	mov	eax, DWORD PTR _this$[ebp]
	mov	eax, DWORD PTR [eax+92]
	mov	esp, ebp
	pop	ebp
	ret	0
?VuState@VuEntity@@QBE?AW4VU_MEM@@XZ ENDP		; VuEntity::VuState
_TEXT	ENDS
; Function compile flags: /Odtp
; File c:\users\zhitao li\documents\visual studio 2012\projects\freefalcon\vu2\include\vuentity.h
;	COMDAT ?OwnerId@VuEntity@@QBE?AVVU_ID@@XZ
_TEXT	SEGMENT
_this$ = -4						; size = 4
___$ReturnUdt$ = 8					; size = 4
?OwnerId@VuEntity@@QBE?AVVU_ID@@XZ PROC			; VuEntity::OwnerId, COMDAT
; _this$ = ecx

; 152  : 	VU_ID OwnerId() const     { return share_.ownerId_; }

	push	ebp
	mov	ebp, esp
	push	ecx
	mov	DWORD PTR _this$[ebp], ecx
	mov	eax, DWORD PTR _this$[ebp]
	mov	ecx, DWORD PTR [eax+20]
	mov	edx, DWORD PTR [eax+24]
	mov	eax, DWORD PTR ___$ReturnUdt$[ebp]
	mov	DWORD PTR [eax], ecx
	mov	DWORD PTR [eax+4], edx
	mov	eax, DWORD PTR ___$ReturnUdt$[ebp]
	mov	esp, ebp
	pop	ebp
	ret	4
?OwnerId@VuEntity@@QBE?AVVU_ID@@XZ ENDP			; VuEntity::OwnerId
_TEXT	ENDS
; Function compile flags: /Odtp
; File c:\users\zhitao li\documents\visual studio 2012\projects\freefalcon\vu2\include\vuentity.h
;	COMDAT ?SetSendCreate@VuEntity@@QAEXW4VU_SEND_TYPE@1@@Z
_TEXT	SEGMENT
_this$ = -4						; size = 4
_sc$ = 8						; size = 4
?SetSendCreate@VuEntity@@QAEXW4VU_SEND_TYPE@1@@Z PROC	; VuEntity::SetSendCreate, COMDAT
; _this$ = ecx

; 148  : 	void SetSendCreate(VU_SEND_TYPE sc) { share_.flags_.breakdown_.sendCreate_ = sc; }

	push	ebp
	mov	ebp, esp
	push	ecx
	mov	DWORD PTR _this$[ebp], ecx
	mov	eax, DWORD PTR _sc$[ebp]
	and	eax, 3
	shl	eax, 6
	mov	ecx, DWORD PTR _this$[ebp]
	mov	edx, DWORD PTR [ecx+8]
	and	edx, -193				; ffffff3fH
	or	edx, eax
	mov	eax, DWORD PTR _this$[ebp]
	mov	DWORD PTR [eax+8], edx
	mov	esp, ebp
	pop	ebp
	ret	4
?SetSendCreate@VuEntity@@QAEXW4VU_SEND_TYPE@1@@Z ENDP	; VuEntity::SetSendCreate
_TEXT	ENDS
; Function compile flags: /Odtp
; File c:\users\zhitao li\documents\visual studio 2012\projects\freefalcon\vu2\include\vuentity.h
;	COMDAT ?Id@VuEntity@@QBE?AVVU_ID@@XZ
_TEXT	SEGMENT
_this$ = -4						; size = 4
___$ReturnUdt$ = 8					; size = 4
?Id@VuEntity@@QBE?AVVU_ID@@XZ PROC			; VuEntity::Id, COMDAT
; _this$ = ecx

; 131  : 	VU_ID Id() const	{ return share_.id_; }

	push	ebp
	mov	ebp, esp
	push	ecx
	mov	DWORD PTR _this$[ebp], ecx
	mov	eax, DWORD PTR _this$[ebp]
	mov	ecx, DWORD PTR [eax+12]
	mov	edx, DWORD PTR [eax+16]
	mov	eax, DWORD PTR ___$ReturnUdt$[ebp]
	mov	DWORD PTR [eax], ecx
	mov	DWORD PTR [eax+4], edx
	mov	eax, DWORD PTR ___$ReturnUdt$[ebp]
	mov	esp, ebp
	pop	ebp
	ret	4
?Id@VuEntity@@QBE?AVVU_ID@@XZ ENDP			; VuEntity::Id
_TEXT	ENDS
; Function compile flags: /Odtp
; File c:\users\zhitao li\documents\visual studio 2012\projects\freefalcon\vu2\include\vuentity.h
;	COMDAT ?SetYPRDelta@VuEntity@@QAEXMMM@Z
_TEXT	SEGMENT
_this$ = -4						; size = 4
_dyaw$ = 8						; size = 4
_dpitch$ = 12						; size = 4
_droll$ = 16						; size = 4
?SetYPRDelta@VuEntity@@QAEXMMM@Z PROC			; VuEntity::SetYPRDelta, COMDAT
; _this$ = ecx

; 116  : 	void SetYPRDelta(SM_SCALAR dyaw, SM_SCALAR dpitch,SM_SCALAR droll){ 

	push	ebp
	mov	ebp, esp
	push	ecx
	mov	DWORD PTR _this$[ebp], ecx

; 117  : 		orient_.dyaw_ = dyaw; orient_.dpitch_ = dpitch; orient_.droll_=droll; 

	mov	eax, DWORD PTR _this$[ebp]
	movss	xmm0, DWORD PTR _dyaw$[ebp]
	movss	DWORD PTR [eax+72], xmm0
	mov	ecx, DWORD PTR _this$[ebp]
	movss	xmm0, DWORD PTR _dpitch$[ebp]
	movss	DWORD PTR [ecx+76], xmm0
	mov	edx, DWORD PTR _this$[ebp]
	movss	xmm0, DWORD PTR _droll$[ebp]
	movss	DWORD PTR [edx+80], xmm0

; 118  : 	}

	mov	esp, ebp
	pop	ebp
	ret	12					; 0000000cH
?SetYPRDelta@VuEntity@@QAEXMMM@Z ENDP			; VuEntity::SetYPRDelta
_TEXT	ENDS
END
