; Listing generated by Microsoft (R) Optimizing Compiler Version 17.00.51106.1 

	TITLE	C:\Users\Zhitao Li\Documents\Visual Studio 2012\Projects\Freefalcon\FALCLIB\FalcSess.cpp
	.686P
	.XMM
	include listing.inc
	.model	flat

INCLUDELIB LIBCMT
INCLUDELIB OLDNAMES

PUBLIC	?boolalpha@?$_Iosb@H@std@@2W4_Fmtflags@12@B	; std::_Iosb<int>::boolalpha
PUBLIC	?digits@?$numeric_limits@_W@std@@2HB		; std::numeric_limits<wchar_t>::digits
PUBLIC	?_Stdio@?$_Iosb@H@std@@2W4_Fmtflags@12@B	; std::_Iosb<int>::_Stdio
PUBLIC	?digits10@?$numeric_limits@_W@std@@2HB		; std::numeric_limits<wchar_t>::digits10
PUBLIC	?adjustfield@?$_Iosb@H@std@@2W4_Fmtflags@12@B	; std::_Iosb<int>::adjustfield
PUBLIC	?value@?$integral_constant@_N$00@std@@2_NB	; std::integral_constant<bool,1>::value
PUBLIC	?basefield@?$_Iosb@H@std@@2W4_Fmtflags@12@B	; std::_Iosb<int>::basefield
PUBLIC	?floatfield@?$_Iosb@H@std@@2W4_Fmtflags@12@B	; std::_Iosb<int>::floatfield
PUBLIC	?goodbit@?$_Iosb@H@std@@2W4_Iostate@12@B	; std::_Iosb<int>::goodbit
PUBLIC	?eofbit@?$_Iosb@H@std@@2W4_Iostate@12@B		; std::_Iosb<int>::eofbit
PUBLIC	?failbit@?$_Iosb@H@std@@2W4_Iostate@12@B	; std::_Iosb<int>::failbit
PUBLIC	?badbit@?$_Iosb@H@std@@2W4_Iostate@12@B		; std::_Iosb<int>::badbit
PUBLIC	?_Hardfail@?$_Iosb@H@std@@2W4_Iostate@12@B	; std::_Iosb<int>::_Hardfail
PUBLIC	?in@?$_Iosb@H@std@@2W4_Openmode@12@B		; std::_Iosb<int>::in
PUBLIC	?out@?$_Iosb@H@std@@2W4_Openmode@12@B		; std::_Iosb<int>::out
PUBLIC	?is_modulo@?$numeric_limits@_N@std@@2_NB	; std::numeric_limits<bool>::is_modulo
PUBLIC	?ate@?$_Iosb@H@std@@2W4_Openmode@12@B		; std::_Iosb<int>::ate
PUBLIC	?is_signed@?$numeric_limits@_N@std@@2_NB	; std::numeric_limits<bool>::is_signed
PUBLIC	?app@?$_Iosb@H@std@@2W4_Openmode@12@B		; std::_Iosb<int>::app
PUBLIC	?digits@?$numeric_limits@_N@std@@2HB		; std::numeric_limits<bool>::digits
PUBLIC	?trunc@?$_Iosb@H@std@@2W4_Openmode@12@B		; std::_Iosb<int>::trunc
PUBLIC	?digits10@?$numeric_limits@_N@std@@2HB		; std::numeric_limits<bool>::digits10
PUBLIC	?_Nocreate@?$_Iosb@H@std@@2W4_Openmode@12@B	; std::_Iosb<int>::_Nocreate
PUBLIC	?_Noreplace@?$_Iosb@H@std@@2W4_Openmode@12@B	; std::_Iosb<int>::_Noreplace
PUBLIC	?binary@?$_Iosb@H@std@@2W4_Openmode@12@B	; std::_Iosb<int>::binary
PUBLIC	?beg@?$_Iosb@H@std@@2W4_Seekdir@12@B		; std::_Iosb<int>::beg
PUBLIC	?cur@?$_Iosb@H@std@@2W4_Seekdir@12@B		; std::_Iosb<int>::cur
PUBLIC	?end@?$_Iosb@H@std@@2W4_Seekdir@12@B		; std::_Iosb<int>::end
PUBLIC	?is_signed@?$numeric_limits@C@std@@2_NB		; std::numeric_limits<signed char>::is_signed
PUBLIC	?digits@?$numeric_limits@C@std@@2HB		; std::numeric_limits<signed char>::digits
PUBLIC	?digits10@?$numeric_limits@C@std@@2HB		; std::numeric_limits<signed char>::digits10
PUBLIC	?_Stream_err@failure@ios_base@std@@0W4io_errc@43@B ; std::ios_base::failure::_Stream_err
PUBLIC	?is_signed@?$numeric_limits@E@std@@2_NB		; std::numeric_limits<unsigned char>::is_signed
PUBLIC	?digits@?$numeric_limits@E@std@@2HB		; std::numeric_limits<unsigned char>::digits
PUBLIC	?digits10@?$numeric_limits@E@std@@2HB		; std::numeric_limits<unsigned char>::digits10
PUBLIC	?is_signed@?$numeric_limits@F@std@@2_NB		; std::numeric_limits<short>::is_signed
PUBLIC	?digits@?$numeric_limits@F@std@@2HB		; std::numeric_limits<short>::digits
PUBLIC	?digits10@?$numeric_limits@F@std@@2HB		; std::numeric_limits<short>::digits10
PUBLIC	?is_signed@?$numeric_limits@G@std@@2_NB		; std::numeric_limits<unsigned short>::is_signed
PUBLIC	?digits@?$numeric_limits@G@std@@2HB		; std::numeric_limits<unsigned short>::digits
PUBLIC	?digits10@?$numeric_limits@G@std@@2HB		; std::numeric_limits<unsigned short>::digits10
PUBLIC	?is_signed@?$numeric_limits@H@std@@2_NB		; std::numeric_limits<int>::is_signed
PUBLIC	?value@?$_Sizeof@HU_Nil@std@@U12@U12@U12@U12@U12@U12@@std@@2IB ; std::_Sizeof<int,std::_Nil,std::_Nil,std::_Nil,std::_Nil,std::_Nil,std::_Nil,std::_Nil>::value
PUBLIC	?digits@?$numeric_limits@H@std@@2HB		; std::numeric_limits<int>::digits
PUBLIC	?digits10@?$numeric_limits@H@std@@2HB		; std::numeric_limits<int>::digits10
PUBLIC	?is_signed@?$numeric_limits@I@std@@2_NB		; std::numeric_limits<unsigned int>::is_signed
PUBLIC	?digits@?$numeric_limits@I@std@@2HB		; std::numeric_limits<unsigned int>::digits
PUBLIC	?digits10@?$numeric_limits@I@std@@2HB		; std::numeric_limits<unsigned int>::digits10
PUBLIC	?is_signed@?$numeric_limits@J@std@@2_NB		; std::numeric_limits<long>::is_signed
PUBLIC	?digits@?$numeric_limits@J@std@@2HB		; std::numeric_limits<long>::digits
PUBLIC	?digits10@?$numeric_limits@J@std@@2HB		; std::numeric_limits<long>::digits10
PUBLIC	?is_signed@?$numeric_limits@K@std@@2_NB		; std::numeric_limits<unsigned long>::is_signed
PUBLIC	?digits@?$numeric_limits@K@std@@2HB		; std::numeric_limits<unsigned long>::digits
PUBLIC	?digits10@?$numeric_limits@K@std@@2HB		; std::numeric_limits<unsigned long>::digits10
PUBLIC	?is_signed@?$numeric_limits@_J@std@@2_NB	; std::numeric_limits<__int64>::is_signed
PUBLIC	?digits@?$numeric_limits@_J@std@@2HB		; std::numeric_limits<__int64>::digits
PUBLIC	?digits10@?$numeric_limits@_J@std@@2HB		; std::numeric_limits<__int64>::digits10
PUBLIC	?collate@?$_Locbase@H@std@@2HB			; std::_Locbase<int>::collate
PUBLIC	?ctype@?$_Locbase@H@std@@2HB			; std::_Locbase<int>::ctype
PUBLIC	?monetary@?$_Locbase@H@std@@2HB			; std::_Locbase<int>::monetary
PUBLIC	?numeric@?$_Locbase@H@std@@2HB			; std::_Locbase<int>::numeric
PUBLIC	?time@?$_Locbase@H@std@@2HB			; std::_Locbase<int>::time
PUBLIC	?messages@?$_Locbase@H@std@@2HB			; std::_Locbase<int>::messages
PUBLIC	?all@?$_Locbase@H@std@@2HB			; std::_Locbase<int>::all
PUBLIC	?none@?$_Locbase@H@std@@2HB			; std::_Locbase<int>::none
PUBLIC	?is_signed@?$numeric_limits@_K@std@@2_NB	; std::numeric_limits<unsigned __int64>::is_signed
PUBLIC	?digits@?$numeric_limits@_K@std@@2HB		; std::numeric_limits<unsigned __int64>::digits
PUBLIC	?digits10@?$numeric_limits@_K@std@@2HB		; std::numeric_limits<unsigned __int64>::digits10
PUBLIC	?digits@?$numeric_limits@M@std@@2HB		; std::numeric_limits<float>::digits
PUBLIC	?digits10@?$numeric_limits@M@std@@2HB		; std::numeric_limits<float>::digits10
PUBLIC	?max_digits10@?$numeric_limits@M@std@@2HB	; std::numeric_limits<float>::max_digits10
PUBLIC	?max_exponent@?$numeric_limits@M@std@@2HB	; std::numeric_limits<float>::max_exponent
PUBLIC	?max_exponent10@?$numeric_limits@M@std@@2HB	; std::numeric_limits<float>::max_exponent10
PUBLIC	?min_exponent@?$numeric_limits@M@std@@2HB	; std::numeric_limits<float>::min_exponent
PUBLIC	?min_exponent10@?$numeric_limits@M@std@@2HB	; std::numeric_limits<float>::min_exponent10
PUBLIC	?value@?$integral_constant@I$0A@@std@@2IB	; std::integral_constant<unsigned int,0>::value
PUBLIC	?digits@?$numeric_limits@N@std@@2HB		; std::numeric_limits<double>::digits
PUBLIC	?digits10@?$numeric_limits@N@std@@2HB		; std::numeric_limits<double>::digits10
PUBLIC	?max_digits10@?$numeric_limits@N@std@@2HB	; std::numeric_limits<double>::max_digits10
PUBLIC	?table_size@?$ctype@D@std@@2IB			; std::ctype<char>::table_size
PUBLIC	?max_exponent@?$numeric_limits@N@std@@2HB	; std::numeric_limits<double>::max_exponent
PUBLIC	?max_exponent10@?$numeric_limits@N@std@@2HB	; std::numeric_limits<double>::max_exponent10
PUBLIC	?min_exponent@?$numeric_limits@N@std@@2HB	; std::numeric_limits<double>::min_exponent
PUBLIC	?min_exponent10@?$numeric_limits@N@std@@2HB	; std::numeric_limits<double>::min_exponent10
PUBLIC	?digits@?$numeric_limits@O@std@@2HB		; std::numeric_limits<long double>::digits
PUBLIC	?digits10@?$numeric_limits@O@std@@2HB		; std::numeric_limits<long double>::digits10
PUBLIC	?max_digits10@?$numeric_limits@O@std@@2HB	; std::numeric_limits<long double>::max_digits10
PUBLIC	?max_exponent@?$numeric_limits@O@std@@2HB	; std::numeric_limits<long double>::max_exponent
PUBLIC	?max_exponent10@?$numeric_limits@O@std@@2HB	; std::numeric_limits<long double>::max_exponent10
PUBLIC	?min_exponent@?$numeric_limits@O@std@@2HB	; std::numeric_limits<long double>::min_exponent
PUBLIC	?min_exponent10@?$numeric_limits@O@std@@2HB	; std::numeric_limits<long double>::min_exponent10
PUBLIC	?value@?$_Sizeof@U_Nil@std@@U12@U12@U12@U12@U12@U12@U12@@std@@2IB ; std::_Sizeof<std::_Nil,std::_Nil,std::_Nil,std::_Nil,std::_Nil,std::_Nil,std::_Nil,std::_Nil>::value
PUBLIC	?has_denorm@_Num_base@std@@2W4float_denorm_style@2@B ; std::_Num_base::has_denorm
PUBLIC	?has_denorm_loss@_Num_base@std@@2_NB		; std::_Num_base::has_denorm_loss
PUBLIC	?has_infinity@_Num_base@std@@2_NB		; std::_Num_base::has_infinity
PUBLIC	?has_quiet_NaN@_Num_base@std@@2_NB		; std::_Num_base::has_quiet_NaN
PUBLIC	?has_signaling_NaN@_Num_base@std@@2_NB		; std::_Num_base::has_signaling_NaN
PUBLIC	?is_bounded@_Num_base@std@@2_NB			; std::_Num_base::is_bounded
PUBLIC	?is_exact@_Num_base@std@@2_NB			; std::_Num_base::is_exact
PUBLIC	?is_iec559@_Num_base@std@@2_NB			; std::_Num_base::is_iec559
PUBLIC	?is_integer@_Num_base@std@@2_NB			; std::_Num_base::is_integer
PUBLIC	?is_modulo@_Num_base@std@@2_NB			; std::_Num_base::is_modulo
PUBLIC	?is_signed@_Num_base@std@@2_NB			; std::_Num_base::is_signed
PUBLIC	?is_specialized@_Num_base@std@@2_NB		; std::_Num_base::is_specialized
PUBLIC	?tinyness_before@_Num_base@std@@2_NB		; std::_Num_base::tinyness_before
PUBLIC	?traps@_Num_base@std@@2_NB			; std::_Num_base::traps
PUBLIC	?round_style@_Num_base@std@@2W4float_round_style@2@B ; std::_Num_base::round_style
PUBLIC	?digits@_Num_base@std@@2HB			; std::_Num_base::digits
PUBLIC	?digits10@_Num_base@std@@2HB			; std::_Num_base::digits10
PUBLIC	?max_digits10@_Num_base@std@@2HB		; std::_Num_base::max_digits10
PUBLIC	?max_exponent@_Num_base@std@@2HB		; std::_Num_base::max_exponent
PUBLIC	?max_exponent10@_Num_base@std@@2HB		; std::_Num_base::max_exponent10
PUBLIC	?min_exponent@_Num_base@std@@2HB		; std::_Num_base::min_exponent
PUBLIC	?min_exponent10@_Num_base@std@@2HB		; std::_Num_base::min_exponent10
PUBLIC	?radix@_Num_base@std@@2HB			; std::_Num_base::radix
PUBLIC	?is_bounded@_Num_int_base@std@@2_NB		; std::_Num_int_base::is_bounded
PUBLIC	?is_exact@_Num_int_base@std@@2_NB		; std::_Num_int_base::is_exact
PUBLIC	?is_integer@_Num_int_base@std@@2_NB		; std::_Num_int_base::is_integer
PUBLIC	?is_modulo@_Num_int_base@std@@2_NB		; std::_Num_int_base::is_modulo
PUBLIC	?is_specialized@_Num_int_base@std@@2_NB		; std::_Num_int_base::is_specialized
PUBLIC	?radix@_Num_int_base@std@@2HB			; std::_Num_int_base::radix
PUBLIC	?has_denorm@_Num_float_base@std@@2W4float_denorm_style@2@B ; std::_Num_float_base::has_denorm
PUBLIC	?has_denorm_loss@_Num_float_base@std@@2_NB	; std::_Num_float_base::has_denorm_loss
PUBLIC	?SIMDIRTYDATA_INTERVAL@FalconEntity@@2KB	; FalconEntity::SIMDIRTYDATA_INTERVAL
PUBLIC	?CMPDIRTYDATA_INTERVAL@FalconEntity@@2KB	; FalconEntity::CMPDIRTYDATA_INTERVAL
PUBLIC	?has_infinity@_Num_float_base@std@@2_NB		; std::_Num_float_base::has_infinity
PUBLIC	?has_quiet_NaN@_Num_float_base@std@@2_NB	; std::_Num_float_base::has_quiet_NaN
PUBLIC	?has_signaling_NaN@_Num_float_base@std@@2_NB	; std::_Num_float_base::has_signaling_NaN
PUBLIC	?is_bounded@_Num_float_base@std@@2_NB		; std::_Num_float_base::is_bounded
PUBLIC	?is_exact@_Num_float_base@std@@2_NB		; std::_Num_float_base::is_exact
PUBLIC	?is_iec559@_Num_float_base@std@@2_NB		; std::_Num_float_base::is_iec559
PUBLIC	?is_integer@_Num_float_base@std@@2_NB		; std::_Num_float_base::is_integer
PUBLIC	?is_modulo@_Num_float_base@std@@2_NB		; std::_Num_float_base::is_modulo
PUBLIC	?is_signed@_Num_float_base@std@@2_NB		; std::_Num_float_base::is_signed
PUBLIC	?is_specialized@_Num_float_base@std@@2_NB	; std::_Num_float_base::is_specialized
PUBLIC	?tinyness_before@_Num_float_base@std@@2_NB	; std::_Num_float_base::tinyness_before
PUBLIC	?traps@_Num_float_base@std@@2_NB		; std::_Num_float_base::traps
PUBLIC	?round_style@_Num_float_base@std@@2W4float_round_style@2@B ; std::_Num_float_base::round_style
PUBLIC	?radix@_Num_float_base@std@@2HB			; std::_Num_float_base::radix
PUBLIC	?skipws@?$_Iosb@H@std@@2W4_Fmtflags@12@B	; std::_Iosb<int>::skipws
PUBLIC	?unitbuf@?$_Iosb@H@std@@2W4_Fmtflags@12@B	; std::_Iosb<int>::unitbuf
PUBLIC	?uppercase@?$_Iosb@H@std@@2W4_Fmtflags@12@B	; std::_Iosb<int>::uppercase
PUBLIC	?is_signed@?$numeric_limits@D@std@@2_NB		; std::numeric_limits<char>::is_signed
PUBLIC	?showbase@?$_Iosb@H@std@@2W4_Fmtflags@12@B	; std::_Iosb<int>::showbase
PUBLIC	?digits@?$numeric_limits@D@std@@2HB		; std::numeric_limits<char>::digits
PUBLIC	?showpoint@?$_Iosb@H@std@@2W4_Fmtflags@12@B	; std::_Iosb<int>::showpoint
PUBLIC	?digits10@?$numeric_limits@D@std@@2HB		; std::numeric_limits<char>::digits10
PUBLIC	?showpos@?$_Iosb@H@std@@2W4_Fmtflags@12@B	; std::_Iosb<int>::showpos
PUBLIC	?left@?$_Iosb@H@std@@2W4_Fmtflags@12@B		; std::_Iosb<int>::left
PUBLIC	?right@?$_Iosb@H@std@@2W4_Fmtflags@12@B		; std::_Iosb<int>::right
PUBLIC	?internal@?$_Iosb@H@std@@2W4_Fmtflags@12@B	; std::_Iosb<int>::internal
PUBLIC	?dec@?$_Iosb@H@std@@2W4_Fmtflags@12@B		; std::_Iosb<int>::dec
PUBLIC	?oct@?$_Iosb@H@std@@2W4_Fmtflags@12@B		; std::_Iosb<int>::oct
PUBLIC	?hex@?$_Iosb@H@std@@2W4_Fmtflags@12@B		; std::_Iosb<int>::hex
PUBLIC	?scientific@?$_Iosb@H@std@@2W4_Fmtflags@12@B	; std::_Iosb<int>::scientific
PUBLIC	?value@?$integral_constant@_N$0A@@std@@2_NB	; std::integral_constant<bool,0>::value
PUBLIC	?fixed@?$_Iosb@H@std@@2W4_Fmtflags@12@B		; std::_Iosb<int>::fixed
PUBLIC	?hexfloat@?$_Iosb@H@std@@2W4_Fmtflags@12@B	; std::_Iosb<int>::hexfloat
PUBLIC	?is_signed@?$numeric_limits@_W@std@@2_NB	; std::numeric_limits<wchar_t>::is_signed
;	COMDAT ?is_signed@?$numeric_limits@_W@std@@2_NB
CONST	SEGMENT
?is_signed@?$numeric_limits@_W@std@@2_NB DB 00H		; std::numeric_limits<wchar_t>::is_signed
CONST	ENDS
;	COMDAT ?hexfloat@?$_Iosb@H@std@@2W4_Fmtflags@12@B
CONST	SEGMENT
?hexfloat@?$_Iosb@H@std@@2W4_Fmtflags@12@B DD 03000H	; std::_Iosb<int>::hexfloat
CONST	ENDS
;	COMDAT ?fixed@?$_Iosb@H@std@@2W4_Fmtflags@12@B
CONST	SEGMENT
?fixed@?$_Iosb@H@std@@2W4_Fmtflags@12@B DD 02000H	; std::_Iosb<int>::fixed
CONST	ENDS
;	COMDAT ?value@?$integral_constant@_N$0A@@std@@2_NB
CONST	SEGMENT
?value@?$integral_constant@_N$0A@@std@@2_NB DB 00H	; std::integral_constant<bool,0>::value
CONST	ENDS
;	COMDAT ?scientific@?$_Iosb@H@std@@2W4_Fmtflags@12@B
CONST	SEGMENT
?scientific@?$_Iosb@H@std@@2W4_Fmtflags@12@B DD 01000H	; std::_Iosb<int>::scientific
CONST	ENDS
;	COMDAT ?hex@?$_Iosb@H@std@@2W4_Fmtflags@12@B
CONST	SEGMENT
?hex@?$_Iosb@H@std@@2W4_Fmtflags@12@B DD 0800H		; std::_Iosb<int>::hex
CONST	ENDS
;	COMDAT ?oct@?$_Iosb@H@std@@2W4_Fmtflags@12@B
CONST	SEGMENT
?oct@?$_Iosb@H@std@@2W4_Fmtflags@12@B DD 0400H		; std::_Iosb<int>::oct
CONST	ENDS
;	COMDAT ?dec@?$_Iosb@H@std@@2W4_Fmtflags@12@B
CONST	SEGMENT
?dec@?$_Iosb@H@std@@2W4_Fmtflags@12@B DD 0200H		; std::_Iosb<int>::dec
CONST	ENDS
;	COMDAT ?internal@?$_Iosb@H@std@@2W4_Fmtflags@12@B
CONST	SEGMENT
?internal@?$_Iosb@H@std@@2W4_Fmtflags@12@B DD 0100H	; std::_Iosb<int>::internal
CONST	ENDS
;	COMDAT ?right@?$_Iosb@H@std@@2W4_Fmtflags@12@B
CONST	SEGMENT
?right@?$_Iosb@H@std@@2W4_Fmtflags@12@B DD 080H		; std::_Iosb<int>::right
CONST	ENDS
;	COMDAT ?left@?$_Iosb@H@std@@2W4_Fmtflags@12@B
CONST	SEGMENT
?left@?$_Iosb@H@std@@2W4_Fmtflags@12@B DD 040H		; std::_Iosb<int>::left
CONST	ENDS
;	COMDAT ?showpos@?$_Iosb@H@std@@2W4_Fmtflags@12@B
CONST	SEGMENT
?showpos@?$_Iosb@H@std@@2W4_Fmtflags@12@B DD 020H	; std::_Iosb<int>::showpos
CONST	ENDS
;	COMDAT ?digits10@?$numeric_limits@D@std@@2HB
CONST	SEGMENT
?digits10@?$numeric_limits@D@std@@2HB DD 02H		; std::numeric_limits<char>::digits10
CONST	ENDS
;	COMDAT ?showpoint@?$_Iosb@H@std@@2W4_Fmtflags@12@B
CONST	SEGMENT
?showpoint@?$_Iosb@H@std@@2W4_Fmtflags@12@B DD 010H	; std::_Iosb<int>::showpoint
CONST	ENDS
;	COMDAT ?digits@?$numeric_limits@D@std@@2HB
CONST	SEGMENT
?digits@?$numeric_limits@D@std@@2HB DD 07H		; std::numeric_limits<char>::digits
CONST	ENDS
;	COMDAT ?showbase@?$_Iosb@H@std@@2W4_Fmtflags@12@B
CONST	SEGMENT
?showbase@?$_Iosb@H@std@@2W4_Fmtflags@12@B DD 08H	; std::_Iosb<int>::showbase
CONST	ENDS
;	COMDAT ?is_signed@?$numeric_limits@D@std@@2_NB
CONST	SEGMENT
?is_signed@?$numeric_limits@D@std@@2_NB DB 01H		; std::numeric_limits<char>::is_signed
CONST	ENDS
;	COMDAT ?uppercase@?$_Iosb@H@std@@2W4_Fmtflags@12@B
CONST	SEGMENT
?uppercase@?$_Iosb@H@std@@2W4_Fmtflags@12@B DD 04H	; std::_Iosb<int>::uppercase
CONST	ENDS
;	COMDAT ?unitbuf@?$_Iosb@H@std@@2W4_Fmtflags@12@B
CONST	SEGMENT
?unitbuf@?$_Iosb@H@std@@2W4_Fmtflags@12@B DD 02H	; std::_Iosb<int>::unitbuf
CONST	ENDS
;	COMDAT ?skipws@?$_Iosb@H@std@@2W4_Fmtflags@12@B
CONST	SEGMENT
?skipws@?$_Iosb@H@std@@2W4_Fmtflags@12@B DD 01H		; std::_Iosb<int>::skipws
CONST	ENDS
;	COMDAT ?radix@_Num_float_base@std@@2HB
CONST	SEGMENT
?radix@_Num_float_base@std@@2HB DD 02H			; std::_Num_float_base::radix
CONST	ENDS
;	COMDAT ?round_style@_Num_float_base@std@@2W4float_round_style@2@B
CONST	SEGMENT
?round_style@_Num_float_base@std@@2W4float_round_style@2@B DD 01H ; std::_Num_float_base::round_style
CONST	ENDS
;	COMDAT ?traps@_Num_float_base@std@@2_NB
CONST	SEGMENT
?traps@_Num_float_base@std@@2_NB DB 00H			; std::_Num_float_base::traps
CONST	ENDS
;	COMDAT ?tinyness_before@_Num_float_base@std@@2_NB
CONST	SEGMENT
?tinyness_before@_Num_float_base@std@@2_NB DB 01H	; std::_Num_float_base::tinyness_before
CONST	ENDS
;	COMDAT ?is_specialized@_Num_float_base@std@@2_NB
CONST	SEGMENT
?is_specialized@_Num_float_base@std@@2_NB DB 01H	; std::_Num_float_base::is_specialized
CONST	ENDS
;	COMDAT ?is_signed@_Num_float_base@std@@2_NB
CONST	SEGMENT
?is_signed@_Num_float_base@std@@2_NB DB 01H		; std::_Num_float_base::is_signed
CONST	ENDS
;	COMDAT ?is_modulo@_Num_float_base@std@@2_NB
CONST	SEGMENT
?is_modulo@_Num_float_base@std@@2_NB DB 00H		; std::_Num_float_base::is_modulo
CONST	ENDS
;	COMDAT ?is_integer@_Num_float_base@std@@2_NB
CONST	SEGMENT
?is_integer@_Num_float_base@std@@2_NB DB 00H		; std::_Num_float_base::is_integer
CONST	ENDS
;	COMDAT ?is_iec559@_Num_float_base@std@@2_NB
CONST	SEGMENT
?is_iec559@_Num_float_base@std@@2_NB DB 01H		; std::_Num_float_base::is_iec559
CONST	ENDS
;	COMDAT ?is_exact@_Num_float_base@std@@2_NB
CONST	SEGMENT
?is_exact@_Num_float_base@std@@2_NB DB 00H		; std::_Num_float_base::is_exact
CONST	ENDS
;	COMDAT ?is_bounded@_Num_float_base@std@@2_NB
CONST	SEGMENT
?is_bounded@_Num_float_base@std@@2_NB DB 01H		; std::_Num_float_base::is_bounded
CONST	ENDS
;	COMDAT ?has_signaling_NaN@_Num_float_base@std@@2_NB
CONST	SEGMENT
?has_signaling_NaN@_Num_float_base@std@@2_NB DB 01H	; std::_Num_float_base::has_signaling_NaN
CONST	ENDS
;	COMDAT ?has_quiet_NaN@_Num_float_base@std@@2_NB
CONST	SEGMENT
?has_quiet_NaN@_Num_float_base@std@@2_NB DB 01H		; std::_Num_float_base::has_quiet_NaN
CONST	ENDS
;	COMDAT ?has_infinity@_Num_float_base@std@@2_NB
CONST	SEGMENT
?has_infinity@_Num_float_base@std@@2_NB DB 01H		; std::_Num_float_base::has_infinity
CONST	ENDS
;	COMDAT ?CMPDIRTYDATA_INTERVAL@FalconEntity@@2KB
CONST	SEGMENT
?CMPDIRTYDATA_INTERVAL@FalconEntity@@2KB DD 0c8H	; FalconEntity::CMPDIRTYDATA_INTERVAL
CONST	ENDS
;	COMDAT ?SIMDIRTYDATA_INTERVAL@FalconEntity@@2KB
CONST	SEGMENT
?SIMDIRTYDATA_INTERVAL@FalconEntity@@2KB DD 0c8H	; FalconEntity::SIMDIRTYDATA_INTERVAL
CONST	ENDS
;	COMDAT ?has_denorm_loss@_Num_float_base@std@@2_NB
CONST	SEGMENT
?has_denorm_loss@_Num_float_base@std@@2_NB DB 01H	; std::_Num_float_base::has_denorm_loss
CONST	ENDS
;	COMDAT ?has_denorm@_Num_float_base@std@@2W4float_denorm_style@2@B
CONST	SEGMENT
?has_denorm@_Num_float_base@std@@2W4float_denorm_style@2@B DD 01H ; std::_Num_float_base::has_denorm
CONST	ENDS
;	COMDAT ?radix@_Num_int_base@std@@2HB
CONST	SEGMENT
?radix@_Num_int_base@std@@2HB DD 02H			; std::_Num_int_base::radix
CONST	ENDS
;	COMDAT ?is_specialized@_Num_int_base@std@@2_NB
CONST	SEGMENT
?is_specialized@_Num_int_base@std@@2_NB DB 01H		; std::_Num_int_base::is_specialized
CONST	ENDS
;	COMDAT ?is_modulo@_Num_int_base@std@@2_NB
CONST	SEGMENT
?is_modulo@_Num_int_base@std@@2_NB DB 01H		; std::_Num_int_base::is_modulo
CONST	ENDS
;	COMDAT ?is_integer@_Num_int_base@std@@2_NB
CONST	SEGMENT
?is_integer@_Num_int_base@std@@2_NB DB 01H		; std::_Num_int_base::is_integer
CONST	ENDS
CONST	SEGMENT
_L_2	DD	03f317218r			; 0.693147
CONST	ENDS
;	COMDAT ?is_exact@_Num_int_base@std@@2_NB
CONST	SEGMENT
?is_exact@_Num_int_base@std@@2_NB DB 01H		; std::_Num_int_base::is_exact
CONST	ENDS
;	COMDAT ?is_bounded@_Num_int_base@std@@2_NB
CONST	SEGMENT
?is_bounded@_Num_int_base@std@@2_NB DB 01H		; std::_Num_int_base::is_bounded
CONST	ENDS
;	COMDAT ?radix@_Num_base@std@@2HB
CONST	SEGMENT
?radix@_Num_base@std@@2HB DD 00H			; std::_Num_base::radix
CONST	ENDS
;	COMDAT ?min_exponent10@_Num_base@std@@2HB
CONST	SEGMENT
?min_exponent10@_Num_base@std@@2HB DD 00H		; std::_Num_base::min_exponent10
CONST	ENDS
;	COMDAT ?min_exponent@_Num_base@std@@2HB
CONST	SEGMENT
?min_exponent@_Num_base@std@@2HB DD 00H			; std::_Num_base::min_exponent
CONST	ENDS
;	COMDAT ?max_exponent10@_Num_base@std@@2HB
CONST	SEGMENT
?max_exponent10@_Num_base@std@@2HB DD 00H		; std::_Num_base::max_exponent10
CONST	ENDS
;	COMDAT ?max_exponent@_Num_base@std@@2HB
CONST	SEGMENT
?max_exponent@_Num_base@std@@2HB DD 00H			; std::_Num_base::max_exponent
CONST	ENDS
;	COMDAT ?max_digits10@_Num_base@std@@2HB
CONST	SEGMENT
?max_digits10@_Num_base@std@@2HB DD 00H			; std::_Num_base::max_digits10
CONST	ENDS
;	COMDAT ?digits10@_Num_base@std@@2HB
CONST	SEGMENT
?digits10@_Num_base@std@@2HB DD 00H			; std::_Num_base::digits10
CONST	ENDS
;	COMDAT ?digits@_Num_base@std@@2HB
CONST	SEGMENT
?digits@_Num_base@std@@2HB DD 00H			; std::_Num_base::digits
CONST	ENDS
;	COMDAT ?round_style@_Num_base@std@@2W4float_round_style@2@B
CONST	SEGMENT
?round_style@_Num_base@std@@2W4float_round_style@2@B DD 00H ; std::_Num_base::round_style
CONST	ENDS
;	COMDAT ?traps@_Num_base@std@@2_NB
CONST	SEGMENT
?traps@_Num_base@std@@2_NB DB 00H			; std::_Num_base::traps
CONST	ENDS
;	COMDAT ?tinyness_before@_Num_base@std@@2_NB
CONST	SEGMENT
?tinyness_before@_Num_base@std@@2_NB DB 00H		; std::_Num_base::tinyness_before
CONST	ENDS
;	COMDAT ?is_specialized@_Num_base@std@@2_NB
CONST	SEGMENT
?is_specialized@_Num_base@std@@2_NB DB 00H		; std::_Num_base::is_specialized
CONST	ENDS
;	COMDAT ?is_signed@_Num_base@std@@2_NB
CONST	SEGMENT
?is_signed@_Num_base@std@@2_NB DB 00H			; std::_Num_base::is_signed
CONST	ENDS
;	COMDAT ?is_modulo@_Num_base@std@@2_NB
CONST	SEGMENT
?is_modulo@_Num_base@std@@2_NB DB 00H			; std::_Num_base::is_modulo
CONST	ENDS
;	COMDAT ?is_integer@_Num_base@std@@2_NB
CONST	SEGMENT
?is_integer@_Num_base@std@@2_NB DB 00H			; std::_Num_base::is_integer
CONST	ENDS
;	COMDAT ?is_iec559@_Num_base@std@@2_NB
CONST	SEGMENT
?is_iec559@_Num_base@std@@2_NB DB 00H			; std::_Num_base::is_iec559
CONST	ENDS
;	COMDAT ?is_exact@_Num_base@std@@2_NB
CONST	SEGMENT
?is_exact@_Num_base@std@@2_NB DB 00H			; std::_Num_base::is_exact
CONST	ENDS
;	COMDAT ?is_bounded@_Num_base@std@@2_NB
CONST	SEGMENT
?is_bounded@_Num_base@std@@2_NB DB 00H			; std::_Num_base::is_bounded
CONST	ENDS
;	COMDAT ?has_signaling_NaN@_Num_base@std@@2_NB
CONST	SEGMENT
?has_signaling_NaN@_Num_base@std@@2_NB DB 00H		; std::_Num_base::has_signaling_NaN
CONST	ENDS
;	COMDAT ?has_quiet_NaN@_Num_base@std@@2_NB
CONST	SEGMENT
?has_quiet_NaN@_Num_base@std@@2_NB DB 00H		; std::_Num_base::has_quiet_NaN
CONST	ENDS
;	COMDAT ?has_infinity@_Num_base@std@@2_NB
CONST	SEGMENT
?has_infinity@_Num_base@std@@2_NB DB 00H		; std::_Num_base::has_infinity
CONST	ENDS
;	COMDAT ?has_denorm_loss@_Num_base@std@@2_NB
CONST	SEGMENT
?has_denorm_loss@_Num_base@std@@2_NB DB 00H		; std::_Num_base::has_denorm_loss
CONST	ENDS
;	COMDAT ?has_denorm@_Num_base@std@@2W4float_denorm_style@2@B
CONST	SEGMENT
?has_denorm@_Num_base@std@@2W4float_denorm_style@2@B DD 00H ; std::_Num_base::has_denorm
CONST	ENDS
;	COMDAT ?value@?$_Sizeof@U_Nil@std@@U12@U12@U12@U12@U12@U12@U12@@std@@2IB
CONST	SEGMENT
?value@?$_Sizeof@U_Nil@std@@U12@U12@U12@U12@U12@U12@U12@@std@@2IB DD 00H ; std::_Sizeof<std::_Nil,std::_Nil,std::_Nil,std::_Nil,std::_Nil,std::_Nil,std::_Nil,std::_Nil>::value
CONST	ENDS
;	COMDAT ?min_exponent10@?$numeric_limits@O@std@@2HB
CONST	SEGMENT
?min_exponent10@?$numeric_limits@O@std@@2HB DD 0fffffecdH ; std::numeric_limits<long double>::min_exponent10
CONST	ENDS
;	COMDAT ?min_exponent@?$numeric_limits@O@std@@2HB
CONST	SEGMENT
?min_exponent@?$numeric_limits@O@std@@2HB DD 0fffffc03H	; std::numeric_limits<long double>::min_exponent
CONST	ENDS
;	COMDAT ?max_exponent10@?$numeric_limits@O@std@@2HB
CONST	SEGMENT
?max_exponent10@?$numeric_limits@O@std@@2HB DD 0134H	; std::numeric_limits<long double>::max_exponent10
CONST	ENDS
;	COMDAT ?max_exponent@?$numeric_limits@O@std@@2HB
CONST	SEGMENT
?max_exponent@?$numeric_limits@O@std@@2HB DD 0400H	; std::numeric_limits<long double>::max_exponent
CONST	ENDS
;	COMDAT ?max_digits10@?$numeric_limits@O@std@@2HB
CONST	SEGMENT
?max_digits10@?$numeric_limits@O@std@@2HB DD 011H	; std::numeric_limits<long double>::max_digits10
CONST	ENDS
;	COMDAT ?digits10@?$numeric_limits@O@std@@2HB
CONST	SEGMENT
?digits10@?$numeric_limits@O@std@@2HB DD 0fH		; std::numeric_limits<long double>::digits10
CONST	ENDS
;	COMDAT ?digits@?$numeric_limits@O@std@@2HB
CONST	SEGMENT
?digits@?$numeric_limits@O@std@@2HB DD 035H		; std::numeric_limits<long double>::digits
CONST	ENDS
;	COMDAT ?min_exponent10@?$numeric_limits@N@std@@2HB
CONST	SEGMENT
?min_exponent10@?$numeric_limits@N@std@@2HB DD 0fffffecdH ; std::numeric_limits<double>::min_exponent10
CONST	ENDS
;	COMDAT ?min_exponent@?$numeric_limits@N@std@@2HB
CONST	SEGMENT
?min_exponent@?$numeric_limits@N@std@@2HB DD 0fffffc03H	; std::numeric_limits<double>::min_exponent
CONST	ENDS
;	COMDAT ?max_exponent10@?$numeric_limits@N@std@@2HB
CONST	SEGMENT
?max_exponent10@?$numeric_limits@N@std@@2HB DD 0134H	; std::numeric_limits<double>::max_exponent10
CONST	ENDS
;	COMDAT ?max_exponent@?$numeric_limits@N@std@@2HB
CONST	SEGMENT
?max_exponent@?$numeric_limits@N@std@@2HB DD 0400H	; std::numeric_limits<double>::max_exponent
CONST	ENDS
;	COMDAT ?table_size@?$ctype@D@std@@2IB
CONST	SEGMENT
?table_size@?$ctype@D@std@@2IB DD 0100H			; std::ctype<char>::table_size
CONST	ENDS
;	COMDAT ?max_digits10@?$numeric_limits@N@std@@2HB
CONST	SEGMENT
?max_digits10@?$numeric_limits@N@std@@2HB DD 011H	; std::numeric_limits<double>::max_digits10
CONST	ENDS
;	COMDAT ?digits10@?$numeric_limits@N@std@@2HB
CONST	SEGMENT
?digits10@?$numeric_limits@N@std@@2HB DD 0fH		; std::numeric_limits<double>::digits10
CONST	ENDS
;	COMDAT ?digits@?$numeric_limits@N@std@@2HB
CONST	SEGMENT
?digits@?$numeric_limits@N@std@@2HB DD 035H		; std::numeric_limits<double>::digits
CONST	ENDS
;	COMDAT ?value@?$integral_constant@I$0A@@std@@2IB
CONST	SEGMENT
?value@?$integral_constant@I$0A@@std@@2IB DD 00H	; std::integral_constant<unsigned int,0>::value
CONST	ENDS
;	COMDAT ?min_exponent10@?$numeric_limits@M@std@@2HB
CONST	SEGMENT
?min_exponent10@?$numeric_limits@M@std@@2HB DD 0ffffffdbH ; std::numeric_limits<float>::min_exponent10
CONST	ENDS
;	COMDAT ?min_exponent@?$numeric_limits@M@std@@2HB
CONST	SEGMENT
?min_exponent@?$numeric_limits@M@std@@2HB DD 0ffffff83H	; std::numeric_limits<float>::min_exponent
CONST	ENDS
;	COMDAT ?max_exponent10@?$numeric_limits@M@std@@2HB
CONST	SEGMENT
?max_exponent10@?$numeric_limits@M@std@@2HB DD 026H	; std::numeric_limits<float>::max_exponent10
CONST	ENDS
;	COMDAT ?max_exponent@?$numeric_limits@M@std@@2HB
CONST	SEGMENT
?max_exponent@?$numeric_limits@M@std@@2HB DD 080H	; std::numeric_limits<float>::max_exponent
CONST	ENDS
;	COMDAT ?max_digits10@?$numeric_limits@M@std@@2HB
CONST	SEGMENT
?max_digits10@?$numeric_limits@M@std@@2HB DD 09H	; std::numeric_limits<float>::max_digits10
CONST	ENDS
;	COMDAT ?digits10@?$numeric_limits@M@std@@2HB
CONST	SEGMENT
?digits10@?$numeric_limits@M@std@@2HB DD 06H		; std::numeric_limits<float>::digits10
CONST	ENDS
;	COMDAT ?digits@?$numeric_limits@M@std@@2HB
CONST	SEGMENT
?digits@?$numeric_limits@M@std@@2HB DD 018H		; std::numeric_limits<float>::digits
CONST	ENDS
;	COMDAT ?digits10@?$numeric_limits@_K@std@@2HB
CONST	SEGMENT
?digits10@?$numeric_limits@_K@std@@2HB DD 013H		; std::numeric_limits<unsigned __int64>::digits10
CONST	ENDS
;	COMDAT ?digits@?$numeric_limits@_K@std@@2HB
CONST	SEGMENT
?digits@?$numeric_limits@_K@std@@2HB DD 040H		; std::numeric_limits<unsigned __int64>::digits
CONST	ENDS
;	COMDAT ?is_signed@?$numeric_limits@_K@std@@2_NB
CONST	SEGMENT
?is_signed@?$numeric_limits@_K@std@@2_NB DB 00H		; std::numeric_limits<unsigned __int64>::is_signed
CONST	ENDS
;	COMDAT ?none@?$_Locbase@H@std@@2HB
CONST	SEGMENT
?none@?$_Locbase@H@std@@2HB DD 00H			; std::_Locbase<int>::none
CONST	ENDS
;	COMDAT ?all@?$_Locbase@H@std@@2HB
CONST	SEGMENT
?all@?$_Locbase@H@std@@2HB DD 03fH			; std::_Locbase<int>::all
CONST	ENDS
;	COMDAT ?messages@?$_Locbase@H@std@@2HB
CONST	SEGMENT
?messages@?$_Locbase@H@std@@2HB DD 020H			; std::_Locbase<int>::messages
CONST	ENDS
;	COMDAT ?time@?$_Locbase@H@std@@2HB
CONST	SEGMENT
?time@?$_Locbase@H@std@@2HB DD 010H			; std::_Locbase<int>::time
CONST	ENDS
;	COMDAT ?numeric@?$_Locbase@H@std@@2HB
CONST	SEGMENT
?numeric@?$_Locbase@H@std@@2HB DD 08H			; std::_Locbase<int>::numeric
CONST	ENDS
;	COMDAT ?monetary@?$_Locbase@H@std@@2HB
CONST	SEGMENT
?monetary@?$_Locbase@H@std@@2HB DD 04H			; std::_Locbase<int>::monetary
CONST	ENDS
;	COMDAT ?ctype@?$_Locbase@H@std@@2HB
CONST	SEGMENT
?ctype@?$_Locbase@H@std@@2HB DD 02H			; std::_Locbase<int>::ctype
CONST	ENDS
;	COMDAT ?collate@?$_Locbase@H@std@@2HB
CONST	SEGMENT
?collate@?$_Locbase@H@std@@2HB DD 01H			; std::_Locbase<int>::collate
CONST	ENDS
;	COMDAT ?digits10@?$numeric_limits@_J@std@@2HB
CONST	SEGMENT
?digits10@?$numeric_limits@_J@std@@2HB DD 012H		; std::numeric_limits<__int64>::digits10
CONST	ENDS
;	COMDAT ?digits@?$numeric_limits@_J@std@@2HB
CONST	SEGMENT
?digits@?$numeric_limits@_J@std@@2HB DD 03fH		; std::numeric_limits<__int64>::digits
CONST	ENDS
;	COMDAT ?is_signed@?$numeric_limits@_J@std@@2_NB
CONST	SEGMENT
?is_signed@?$numeric_limits@_J@std@@2_NB DB 01H		; std::numeric_limits<__int64>::is_signed
CONST	ENDS
;	COMDAT ?digits10@?$numeric_limits@K@std@@2HB
CONST	SEGMENT
?digits10@?$numeric_limits@K@std@@2HB DD 09H		; std::numeric_limits<unsigned long>::digits10
CONST	ENDS
;	COMDAT ?digits@?$numeric_limits@K@std@@2HB
CONST	SEGMENT
?digits@?$numeric_limits@K@std@@2HB DD 020H		; std::numeric_limits<unsigned long>::digits
CONST	ENDS
;	COMDAT ?is_signed@?$numeric_limits@K@std@@2_NB
CONST	SEGMENT
?is_signed@?$numeric_limits@K@std@@2_NB DB 00H		; std::numeric_limits<unsigned long>::is_signed
CONST	ENDS
;	COMDAT ?digits10@?$numeric_limits@J@std@@2HB
CONST	SEGMENT
?digits10@?$numeric_limits@J@std@@2HB DD 09H		; std::numeric_limits<long>::digits10
CONST	ENDS
;	COMDAT ?digits@?$numeric_limits@J@std@@2HB
CONST	SEGMENT
?digits@?$numeric_limits@J@std@@2HB DD 01fH		; std::numeric_limits<long>::digits
CONST	ENDS
;	COMDAT ?is_signed@?$numeric_limits@J@std@@2_NB
CONST	SEGMENT
?is_signed@?$numeric_limits@J@std@@2_NB DB 01H		; std::numeric_limits<long>::is_signed
CONST	ENDS
;	COMDAT ?digits10@?$numeric_limits@I@std@@2HB
CONST	SEGMENT
?digits10@?$numeric_limits@I@std@@2HB DD 09H		; std::numeric_limits<unsigned int>::digits10
CONST	ENDS
;	COMDAT ?digits@?$numeric_limits@I@std@@2HB
CONST	SEGMENT
?digits@?$numeric_limits@I@std@@2HB DD 020H		; std::numeric_limits<unsigned int>::digits
CONST	ENDS
;	COMDAT ?is_signed@?$numeric_limits@I@std@@2_NB
CONST	SEGMENT
?is_signed@?$numeric_limits@I@std@@2_NB DB 00H		; std::numeric_limits<unsigned int>::is_signed
CONST	ENDS
;	COMDAT ?digits10@?$numeric_limits@H@std@@2HB
CONST	SEGMENT
?digits10@?$numeric_limits@H@std@@2HB DD 09H		; std::numeric_limits<int>::digits10
CONST	ENDS
;	COMDAT ?digits@?$numeric_limits@H@std@@2HB
CONST	SEGMENT
?digits@?$numeric_limits@H@std@@2HB DD 01fH		; std::numeric_limits<int>::digits
CONST	ENDS
;	COMDAT ?value@?$_Sizeof@HU_Nil@std@@U12@U12@U12@U12@U12@U12@@std@@2IB
CONST	SEGMENT
?value@?$_Sizeof@HU_Nil@std@@U12@U12@U12@U12@U12@U12@@std@@2IB DD 01H ; std::_Sizeof<int,std::_Nil,std::_Nil,std::_Nil,std::_Nil,std::_Nil,std::_Nil,std::_Nil>::value
CONST	ENDS
;	COMDAT ?is_signed@?$numeric_limits@H@std@@2_NB
CONST	SEGMENT
?is_signed@?$numeric_limits@H@std@@2_NB DB 01H		; std::numeric_limits<int>::is_signed
CONST	ENDS
;	COMDAT ?digits10@?$numeric_limits@G@std@@2HB
CONST	SEGMENT
?digits10@?$numeric_limits@G@std@@2HB DD 04H		; std::numeric_limits<unsigned short>::digits10
CONST	ENDS
;	COMDAT ?digits@?$numeric_limits@G@std@@2HB
CONST	SEGMENT
?digits@?$numeric_limits@G@std@@2HB DD 010H		; std::numeric_limits<unsigned short>::digits
CONST	ENDS
;	COMDAT ?is_signed@?$numeric_limits@G@std@@2_NB
CONST	SEGMENT
?is_signed@?$numeric_limits@G@std@@2_NB DB 00H		; std::numeric_limits<unsigned short>::is_signed
CONST	ENDS
;	COMDAT ?digits10@?$numeric_limits@F@std@@2HB
CONST	SEGMENT
?digits10@?$numeric_limits@F@std@@2HB DD 04H		; std::numeric_limits<short>::digits10
CONST	ENDS
;	COMDAT ?digits@?$numeric_limits@F@std@@2HB
CONST	SEGMENT
?digits@?$numeric_limits@F@std@@2HB DD 0fH		; std::numeric_limits<short>::digits
CONST	ENDS
;	COMDAT ?is_signed@?$numeric_limits@F@std@@2_NB
CONST	SEGMENT
?is_signed@?$numeric_limits@F@std@@2_NB DB 01H		; std::numeric_limits<short>::is_signed
CONST	ENDS
;	COMDAT ?digits10@?$numeric_limits@E@std@@2HB
CONST	SEGMENT
?digits10@?$numeric_limits@E@std@@2HB DD 02H		; std::numeric_limits<unsigned char>::digits10
CONST	ENDS
;	COMDAT ?digits@?$numeric_limits@E@std@@2HB
CONST	SEGMENT
?digits@?$numeric_limits@E@std@@2HB DD 08H		; std::numeric_limits<unsigned char>::digits
CONST	ENDS
;	COMDAT ?is_signed@?$numeric_limits@E@std@@2_NB
CONST	SEGMENT
?is_signed@?$numeric_limits@E@std@@2_NB DB 00H		; std::numeric_limits<unsigned char>::is_signed
CONST	ENDS
;	COMDAT ?_Stream_err@failure@ios_base@std@@0W4io_errc@43@B
CONST	SEGMENT
?_Stream_err@failure@ios_base@std@@0W4io_errc@43@B DD 01H ; std::ios_base::failure::_Stream_err
CONST	ENDS
;	COMDAT ?digits10@?$numeric_limits@C@std@@2HB
CONST	SEGMENT
?digits10@?$numeric_limits@C@std@@2HB DD 02H		; std::numeric_limits<signed char>::digits10
CONST	ENDS
;	COMDAT ?digits@?$numeric_limits@C@std@@2HB
CONST	SEGMENT
?digits@?$numeric_limits@C@std@@2HB DD 07H		; std::numeric_limits<signed char>::digits
CONST	ENDS
;	COMDAT ?is_signed@?$numeric_limits@C@std@@2_NB
CONST	SEGMENT
?is_signed@?$numeric_limits@C@std@@2_NB DB 01H		; std::numeric_limits<signed char>::is_signed
CONST	ENDS
;	COMDAT ?end@?$_Iosb@H@std@@2W4_Seekdir@12@B
CONST	SEGMENT
?end@?$_Iosb@H@std@@2W4_Seekdir@12@B DD 02H		; std::_Iosb<int>::end
CONST	ENDS
;	COMDAT ?cur@?$_Iosb@H@std@@2W4_Seekdir@12@B
CONST	SEGMENT
?cur@?$_Iosb@H@std@@2W4_Seekdir@12@B DD 01H		; std::_Iosb<int>::cur
CONST	ENDS
;	COMDAT ?beg@?$_Iosb@H@std@@2W4_Seekdir@12@B
CONST	SEGMENT
?beg@?$_Iosb@H@std@@2W4_Seekdir@12@B DD 00H		; std::_Iosb<int>::beg
CONST	ENDS
;	COMDAT ?binary@?$_Iosb@H@std@@2W4_Openmode@12@B
CONST	SEGMENT
?binary@?$_Iosb@H@std@@2W4_Openmode@12@B DD 020H	; std::_Iosb<int>::binary
CONST	ENDS
;	COMDAT ?_Noreplace@?$_Iosb@H@std@@2W4_Openmode@12@B
CONST	SEGMENT
?_Noreplace@?$_Iosb@H@std@@2W4_Openmode@12@B DD 080H	; std::_Iosb<int>::_Noreplace
CONST	ENDS
;	COMDAT ?_Nocreate@?$_Iosb@H@std@@2W4_Openmode@12@B
CONST	SEGMENT
?_Nocreate@?$_Iosb@H@std@@2W4_Openmode@12@B DD 040H	; std::_Iosb<int>::_Nocreate
CONST	ENDS
;	COMDAT ?digits10@?$numeric_limits@_N@std@@2HB
CONST	SEGMENT
?digits10@?$numeric_limits@_N@std@@2HB DD 00H		; std::numeric_limits<bool>::digits10
CONST	ENDS
;	COMDAT ?trunc@?$_Iosb@H@std@@2W4_Openmode@12@B
CONST	SEGMENT
?trunc@?$_Iosb@H@std@@2W4_Openmode@12@B DD 010H		; std::_Iosb<int>::trunc
CONST	ENDS
;	COMDAT ?digits@?$numeric_limits@_N@std@@2HB
CONST	SEGMENT
?digits@?$numeric_limits@_N@std@@2HB DD 01H		; std::numeric_limits<bool>::digits
CONST	ENDS
;	COMDAT ?app@?$_Iosb@H@std@@2W4_Openmode@12@B
CONST	SEGMENT
?app@?$_Iosb@H@std@@2W4_Openmode@12@B DD 08H		; std::_Iosb<int>::app
CONST	ENDS
;	COMDAT ?is_signed@?$numeric_limits@_N@std@@2_NB
CONST	SEGMENT
?is_signed@?$numeric_limits@_N@std@@2_NB DB 00H		; std::numeric_limits<bool>::is_signed
CONST	ENDS
;	COMDAT ?ate@?$_Iosb@H@std@@2W4_Openmode@12@B
CONST	SEGMENT
?ate@?$_Iosb@H@std@@2W4_Openmode@12@B DD 04H		; std::_Iosb<int>::ate
CONST	ENDS
;	COMDAT ?is_modulo@?$numeric_limits@_N@std@@2_NB
CONST	SEGMENT
?is_modulo@?$numeric_limits@_N@std@@2_NB DB 00H		; std::numeric_limits<bool>::is_modulo
CONST	ENDS
;	COMDAT ?out@?$_Iosb@H@std@@2W4_Openmode@12@B
CONST	SEGMENT
?out@?$_Iosb@H@std@@2W4_Openmode@12@B DD 02H		; std::_Iosb<int>::out
CONST	ENDS
;	COMDAT ?in@?$_Iosb@H@std@@2W4_Openmode@12@B
CONST	SEGMENT
?in@?$_Iosb@H@std@@2W4_Openmode@12@B DD 01H		; std::_Iosb<int>::in
CONST	ENDS
;	COMDAT ?_Hardfail@?$_Iosb@H@std@@2W4_Iostate@12@B
CONST	SEGMENT
?_Hardfail@?$_Iosb@H@std@@2W4_Iostate@12@B DD 010H	; std::_Iosb<int>::_Hardfail
CONST	ENDS
;	COMDAT ?badbit@?$_Iosb@H@std@@2W4_Iostate@12@B
CONST	SEGMENT
?badbit@?$_Iosb@H@std@@2W4_Iostate@12@B DD 04H		; std::_Iosb<int>::badbit
CONST	ENDS
;	COMDAT ?failbit@?$_Iosb@H@std@@2W4_Iostate@12@B
CONST	SEGMENT
?failbit@?$_Iosb@H@std@@2W4_Iostate@12@B DD 02H		; std::_Iosb<int>::failbit
CONST	ENDS
;	COMDAT ?eofbit@?$_Iosb@H@std@@2W4_Iostate@12@B
CONST	SEGMENT
?eofbit@?$_Iosb@H@std@@2W4_Iostate@12@B DD 01H		; std::_Iosb<int>::eofbit
CONST	ENDS
;	COMDAT ?goodbit@?$_Iosb@H@std@@2W4_Iostate@12@B
CONST	SEGMENT
?goodbit@?$_Iosb@H@std@@2W4_Iostate@12@B DD 00H		; std::_Iosb<int>::goodbit
CONST	ENDS
;	COMDAT ?floatfield@?$_Iosb@H@std@@2W4_Fmtflags@12@B
CONST	SEGMENT
?floatfield@?$_Iosb@H@std@@2W4_Fmtflags@12@B DD 03000H	; std::_Iosb<int>::floatfield
CONST	ENDS
;	COMDAT ?basefield@?$_Iosb@H@std@@2W4_Fmtflags@12@B
CONST	SEGMENT
?basefield@?$_Iosb@H@std@@2W4_Fmtflags@12@B DD 0e00H	; std::_Iosb<int>::basefield
CONST	ENDS
;	COMDAT ?value@?$integral_constant@_N$00@std@@2_NB
CONST	SEGMENT
?value@?$integral_constant@_N$00@std@@2_NB DB 01H	; std::integral_constant<bool,1>::value
CONST	ENDS
;	COMDAT ?adjustfield@?$_Iosb@H@std@@2W4_Fmtflags@12@B
CONST	SEGMENT
?adjustfield@?$_Iosb@H@std@@2W4_Fmtflags@12@B DD 01c0H	; std::_Iosb<int>::adjustfield
CONST	ENDS
;	COMDAT ?digits10@?$numeric_limits@_W@std@@2HB
CONST	SEGMENT
?digits10@?$numeric_limits@_W@std@@2HB DD 04H		; std::numeric_limits<wchar_t>::digits10
CONST	ENDS
;	COMDAT ?_Stdio@?$_Iosb@H@std@@2W4_Fmtflags@12@B
CONST	SEGMENT
?_Stdio@?$_Iosb@H@std@@2W4_Fmtflags@12@B DD 08000H	; std::_Iosb<int>::_Stdio
CONST	ENDS
;	COMDAT ?digits@?$numeric_limits@_W@std@@2HB
CONST	SEGMENT
?digits@?$numeric_limits@_W@std@@2HB DD 010H		; std::numeric_limits<wchar_t>::digits
CONST	ENDS
;	COMDAT ?boolalpha@?$_Iosb@H@std@@2W4_Fmtflags@12@B
CONST	SEGMENT
?boolalpha@?$_Iosb@H@std@@2W4_Fmtflags@12@B DD 04000H	; std::_Iosb<int>::boolalpha
CONST	ENDS
PUBLIC	??_H@YGXPAXIHP6EPAX0@Z@Z			; `vector constructor iterator'
PUBLIC	_fabsf
PUBLIC	?fabs@@YAMM@Z					; fabs
PUBLIC	??0VU_SESSION_ID@@QAE@K@Z			; VU_SESSION_ID::VU_SESSION_ID
PUBLIC	??8VU_SESSION_ID@@QBEHABV0@@Z			; VU_SESSION_ID::operator==
PUBLIC	??0VU_ID@@QAE@XZ				; VU_ID::VU_ID
PUBLIC	??8VU_ID@@QBE_NABV0@@Z				; VU_ID::operator==
PUBLIC	??9VU_ID@@QBE_NABV0@@Z				; VU_ID::operator!=
PUBLIC	?Id@VuEntity@@QBE?AVVU_ID@@XZ			; VuEntity::Id
PUBLIC	?XPos@VuEntity@@QBEMXZ				; VuEntity::XPos
PUBLIC	?YPos@VuEntity@@QBEMXZ				; VuEntity::YPos
PUBLIC	?XDelta@VuEntity@@QBEMXZ			; VuEntity::XDelta
PUBLIC	?YDelta@VuEntity@@QBEMXZ			; VuEntity::YDelta
PUBLIC	?EntityType@VuEntity@@QBEPAUVuEntityType@@XZ	; VuEntity::EntityType
PUBLIC	??2@YAPAXIPAX@Z					; operator new
PUBLIC	??3@YAXPAX0@Z					; operator delete
PUBLIC	?length@?$char_traits@D@std@@SAIPBD@Z		; std::char_traits<char>::length
PUBLIC	?copy@?$char_traits@D@std@@SAPADPADPBDI@Z	; std::char_traits<char>::copy
PUBLIC	?move@?$char_traits@D@std@@SAPADPADPBDI@Z	; std::char_traits<char>::move
PUBLIC	?assign@?$char_traits@D@std@@SAXAADABD@Z	; std::char_traits<char>::assign
PUBLIC	?_Adopt@_Iterator_base0@std@@QAEXPBX@Z		; std::_Iterator_base0::_Adopt
PUBLIC	??0logic_error@std@@QAE@PBD@Z			; std::logic_error::logic_error
PUBLIC	??1logic_error@std@@UAE@XZ			; std::logic_error::~logic_error
PUBLIC	??0logic_error@std@@QAE@ABV01@@Z		; std::logic_error::logic_error
PUBLIC	??_Glogic_error@std@@UAEPAXI@Z			; std::logic_error::`scalar deleting destructor'
PUBLIC	??0?$allocator@D@std@@QAE@XZ			; std::allocator<char>::allocator<char>
PUBLIC	?deallocate@?$allocator@D@std@@QAEXPADI@Z	; std::allocator<char>::deallocate
PUBLIC	?allocate@?$allocator@D@std@@QAEPADI@Z		; std::allocator<char>::allocate
PUBLIC	?max_size@?$allocator@D@std@@QBEIXZ		; std::allocator<char>::max_size
PUBLIC	?max_size@?$allocator_traits@V?$allocator@D@std@@@std@@SAIABV?$allocator@D@2@@Z ; std::allocator_traits<std::allocator<char> >::max_size
PUBLIC	??0?$_Wrap_alloc@V?$allocator@D@std@@@std@@QAE@XZ ; std::_Wrap_alloc<std::allocator<char> >::_Wrap_alloc<std::allocator<char> >
PUBLIC	?allocate@?$_Wrap_alloc@V?$allocator@D@std@@@std@@QAEPADI@Z ; std::_Wrap_alloc<std::allocator<char> >::allocate
PUBLIC	?deallocate@?$_Wrap_alloc@V?$allocator@D@std@@@std@@QAEXPADI@Z ; std::_Wrap_alloc<std::allocator<char> >::deallocate
PUBLIC	?max_size@?$_Wrap_alloc@V?$allocator@D@std@@@std@@QBEIXZ ; std::_Wrap_alloc<std::allocator<char> >::max_size
PUBLIC	??0?$_String_val@U?$_Simple_types@D@std@@@std@@QAE@XZ ; std::_String_val<std::_Simple_types<char> >::_String_val<std::_Simple_types<char> >
PUBLIC	?_Myptr@?$_String_val@U?$_Simple_types@D@std@@@std@@QAEPADXZ ; std::_String_val<std::_Simple_types<char> >::_Myptr
PUBLIC	?_Myptr@?$_String_val@U?$_Simple_types@D@std@@@std@@QBEPBDXZ ; std::_String_val<std::_Simple_types<char> >::_Myptr
PUBLIC	??0?$_String_alloc@$0A@U?$_String_base_types@DV?$allocator@D@std@@@std@@@std@@QAE@ABV?$allocator@D@1@@Z ; std::_String_alloc<0,std::_String_base_types<char,std::allocator<char> > >::_String_alloc<0,std::_String_base_types<char,std::allocator<char> > >
PUBLIC	?_Getal@?$_String_alloc@$0A@U?$_String_base_types@DV?$allocator@D@std@@@std@@@std@@QBE?AU?$_Wrap_alloc@V?$allocator@D@std@@@2@XZ ; std::_String_alloc<0,std::_String_base_types<char,std::allocator<char> > >::_Getal
PUBLIC	??0?$basic_string@DU?$char_traits@D@std@@V?$allocator@D@2@@std@@QAE@PBD@Z ; std::basic_string<char,std::char_traits<char>,std::allocator<char> >::basic_string<char,std::char_traits<char>,std::allocator<char> >
PUBLIC	??1?$basic_string@DU?$char_traits@D@std@@V?$allocator@D@2@@std@@QAE@XZ ; std::basic_string<char,std::char_traits<char>,std::allocator<char> >::~basic_string<char,std::char_traits<char>,std::allocator<char> >
PUBLIC	?assign@?$basic_string@DU?$char_traits@D@std@@V?$allocator@D@2@@std@@QAEAAV12@ABV12@II@Z ; std::basic_string<char,std::char_traits<char>,std::allocator<char> >::assign
PUBLIC	?assign@?$basic_string@DU?$char_traits@D@std@@V?$allocator@D@2@@std@@QAEAAV12@PBDI@Z ; std::basic_string<char,std::char_traits<char>,std::allocator<char> >::assign
PUBLIC	?assign@?$basic_string@DU?$char_traits@D@std@@V?$allocator@D@2@@std@@QAEAAV12@PBD@Z ; std::basic_string<char,std::char_traits<char>,std::allocator<char> >::assign
PUBLIC	?erase@?$basic_string@DU?$char_traits@D@std@@V?$allocator@D@2@@std@@QAEAAV12@I@Z ; std::basic_string<char,std::char_traits<char>,std::allocator<char> >::erase
PUBLIC	?erase@?$basic_string@DU?$char_traits@D@std@@V?$allocator@D@2@@std@@QAEAAV12@II@Z ; std::basic_string<char,std::char_traits<char>,std::allocator<char> >::erase
PUBLIC	?c_str@?$basic_string@DU?$char_traits@D@std@@V?$allocator@D@2@@std@@QBEPBDXZ ; std::basic_string<char,std::char_traits<char>,std::allocator<char> >::c_str
PUBLIC	?size@?$basic_string@DU?$char_traits@D@std@@V?$allocator@D@2@@std@@QBEIXZ ; std::basic_string<char,std::char_traits<char>,std::allocator<char> >::size
PUBLIC	?max_size@?$basic_string@DU?$char_traits@D@std@@V?$allocator@D@2@@std@@QBEIXZ ; std::basic_string<char,std::char_traits<char>,std::allocator<char> >::max_size
PUBLIC	?_Copy@?$basic_string@DU?$char_traits@D@std@@V?$allocator@D@2@@std@@QAEXII@Z ; std::basic_string<char,std::char_traits<char>,std::allocator<char> >::_Copy
PUBLIC	?_Eos@?$basic_string@DU?$char_traits@D@std@@V?$allocator@D@2@@std@@QAEXI@Z ; std::basic_string<char,std::char_traits<char>,std::allocator<char> >::_Eos
PUBLIC	?_Grow@?$basic_string@DU?$char_traits@D@std@@V?$allocator@D@2@@std@@QAE_NI_N@Z ; std::basic_string<char,std::char_traits<char>,std::allocator<char> >::_Grow
PUBLIC	?_Inside@?$basic_string@DU?$char_traits@D@std@@V?$allocator@D@2@@std@@QAE_NPBD@Z ; std::basic_string<char,std::char_traits<char>,std::allocator<char> >::_Inside
PUBLIC	?_Tidy@?$basic_string@DU?$char_traits@D@std@@V?$allocator@D@2@@std@@QAEX_NI@Z ; std::basic_string<char,std::char_traits<char>,std::allocator<char> >::_Tidy
PUBLIC	?_Xlen@?$basic_string@DU?$char_traits@D@std@@V?$allocator@D@2@@std@@QBEXXZ ; std::basic_string<char,std::char_traits<char>,std::allocator<char> >::_Xlen
PUBLIC	?_Xran@?$basic_string@DU?$char_traits@D@std@@V?$allocator@D@2@@std@@QBEXXZ ; std::basic_string<char,std::char_traits<char>,std::allocator<char> >::_Xran
PUBLIC	??0out_of_range@std@@QAE@ABV?$basic_string@DU?$char_traits@D@std@@V?$allocator@D@2@@1@@Z ; std::out_of_range::out_of_range
PUBLIC	??1out_of_range@std@@UAE@XZ			; std::out_of_range::~out_of_range
PUBLIC	??0out_of_range@std@@QAE@ABV01@@Z		; std::out_of_range::out_of_range
PUBLIC	??_Gout_of_range@std@@UAEPAXI@Z			; std::out_of_range::`scalar deleting destructor'
PUBLIC	??B?$VuBin@VVuSessionEntity@@@@QBE_NXZ		; VuBin<VuSessionEntity>::operator bool
PUBLIC	?get@?$VuBin@VVuSessionEntity@@@@QBEPAVVuSessionEntity@@XZ ; VuBin<VuSessionEntity>::get
PUBLIC	?RequestReliableTransmit@VuMessage@@QAEXXZ	; VuMessage::RequestReliableTransmit
PUBLIC	?get@?$VuBin@VVuEntity@@@@QBEPAVVuEntity@@XZ	; VuBin<VuEntity>::get
PUBLIC	?CameraCount@VuSessionEntity@@QBEHXZ		; VuSessionEntity::CameraCount
PUBLIC	?size@?$vector@V?$VuBin@VVuEntity@@@@V?$allocator@V?$VuBin@VVuEntity@@@@@std@@@std@@QBEIXZ ; std::vector<VuBin<VuEntity>,std::allocator<VuBin<VuEntity> > >::size
PUBLIC	?Callsign@LogBookData@@QAEPADXZ			; LogBookData::Callsign
PUBLIC	?AceFactor@LogBookData@@QAEMXZ			; LogBookData::AceFactor
PUBLIC	??0?$VuBin@VSquadronClass@@@@QAE@PAVSquadronClass@@@Z ; VuBin<SquadronClass>::VuBin<SquadronClass>
PUBLIC	??1?$VuBin@VSquadronClass@@@@QAE@XZ		; VuBin<SquadronClass>::~VuBin<SquadronClass>
PUBLIC	??8?$VuBin@VSquadronClass@@@@QBE_NABV0@@Z	; VuBin<SquadronClass>::operator==
PUBLIC	??9?$VuBin@VSquadronClass@@@@QBE_NABV0@@Z	; VuBin<SquadronClass>::operator!=
PUBLIC	??B?$VuBin@VSquadronClass@@@@QBE_NXZ		; VuBin<SquadronClass>::operator bool
PUBLIC	??C?$VuBin@VSquadronClass@@@@QBEPAVSquadronClass@@XZ ; VuBin<SquadronClass>::operator->
PUBLIC	?get@?$VuBin@VSquadronClass@@@@QBEPAVSquadronClass@@XZ ; VuBin<SquadronClass>::get
PUBLIC	?reset@?$VuBin@VSquadronClass@@@@QAEXPAVSquadronClass@@@Z ; VuBin<SquadronClass>::reset
PUBLIC	??0?$VuBin@VFlightClass@@@@QAE@PAVFlightClass@@@Z ; VuBin<FlightClass>::VuBin<FlightClass>
PUBLIC	??1?$VuBin@VFlightClass@@@@QAE@XZ		; VuBin<FlightClass>::~VuBin<FlightClass>
PUBLIC	??8?$VuBin@VFlightClass@@@@QBE_NABV0@@Z		; VuBin<FlightClass>::operator==
PUBLIC	??9?$VuBin@VFlightClass@@@@QBE_NABV0@@Z		; VuBin<FlightClass>::operator!=
PUBLIC	??B?$VuBin@VFlightClass@@@@QBE_NXZ		; VuBin<FlightClass>::operator bool
PUBLIC	??C?$VuBin@VFlightClass@@@@QBEPAVFlightClass@@XZ ; VuBin<FlightClass>::operator->
PUBLIC	?get@?$VuBin@VFlightClass@@@@QBEPAVFlightClass@@XZ ; VuBin<FlightClass>::get
PUBLIC	?reset@?$VuBin@VFlightClass@@@@QAEXPAVFlightClass@@@Z ; VuBin<FlightClass>::reset
PUBLIC	??0?$VuBin@VFalconEntity@@@@QAE@PAVFalconEntity@@@Z ; VuBin<FalconEntity>::VuBin<FalconEntity>
PUBLIC	??0?$VuBin@VFalconEntity@@@@QAE@ABV0@@Z		; VuBin<FalconEntity>::VuBin<FalconEntity>
PUBLIC	??1?$VuBin@VFalconEntity@@@@QAE@XZ		; VuBin<FalconEntity>::~VuBin<FalconEntity>
PUBLIC	??8?$VuBin@VFalconEntity@@@@QBE_NABV0@@Z	; VuBin<FalconEntity>::operator==
PUBLIC	??9?$VuBin@VFalconEntity@@@@QBE_NABV0@@Z	; VuBin<FalconEntity>::operator!=
PUBLIC	??B?$VuBin@VFalconEntity@@@@QBE_NXZ		; VuBin<FalconEntity>::operator bool
PUBLIC	??C?$VuBin@VFalconEntity@@@@QBEPAVFalconEntity@@XZ ; VuBin<FalconEntity>::operator->
PUBLIC	?get@?$VuBin@VFalconEntity@@@@QBEPAVFalconEntity@@XZ ; VuBin<FalconEntity>::get
PUBLIC	?reset@?$VuBin@VFalconEntity@@@@QAEXPAVFalconEntity@@@Z ; VuBin<FalconEntity>::reset
PUBLIC	??_G?$VuBin@VFalconEntity@@@@QAEPAXI@Z		; VuBin<FalconEntity>::`scalar deleting destructor'
PUBLIC	??0?$allocator@V?$VuBin@VFalconEntity@@@@@std@@QAE@XZ ; std::allocator<VuBin<FalconEntity> >::allocator<VuBin<FalconEntity> >
PUBLIC	??0?$allocator@U?$_List_node@V?$VuBin@VFalconEntity@@@@PAX@std@@@std@@QAE@XZ ; std::allocator<std::_List_node<VuBin<FalconEntity>,void *> >::allocator<std::_List_node<VuBin<FalconEntity>,void *> >
PUBLIC	?deallocate@?$allocator@U?$_List_node@V?$VuBin@VFalconEntity@@@@PAX@std@@@std@@QAEXPAU?$_List_node@V?$VuBin@VFalconEntity@@@@PAX@2@I@Z ; std::allocator<std::_List_node<VuBin<FalconEntity>,void *> >::deallocate
PUBLIC	?allocate@?$allocator@U?$_List_node@V?$VuBin@VFalconEntity@@@@PAX@std@@@std@@QAEPAU?$_List_node@V?$VuBin@VFalconEntity@@@@PAX@2@I@Z ; std::allocator<std::_List_node<VuBin<FalconEntity>,void *> >::allocate
PUBLIC	?max_size@?$allocator@U?$_List_node@V?$VuBin@VFalconEntity@@@@PAX@std@@@std@@QBEIXZ ; std::allocator<std::_List_node<VuBin<FalconEntity>,void *> >::max_size
PUBLIC	?max_size@?$allocator_traits@V?$allocator@U?$_List_node@V?$VuBin@VFalconEntity@@@@PAX@std@@@std@@@std@@SAIABV?$allocator@U?$_List_node@V?$VuBin@VFalconEntity@@@@PAX@std@@@2@@Z ; std::allocator_traits<std::allocator<std::_List_node<VuBin<FalconEntity>,void *> > >::max_size
PUBLIC	??0?$_Wrap_alloc@V?$allocator@U?$_List_node@V?$VuBin@VFalconEntity@@@@PAX@std@@@std@@@std@@QAE@XZ ; std::_Wrap_alloc<std::allocator<std::_List_node<VuBin<FalconEntity>,void *> > >::_Wrap_alloc<std::allocator<std::_List_node<VuBin<FalconEntity>,void *> > >
PUBLIC	?allocate@?$_Wrap_alloc@V?$allocator@U?$_List_node@V?$VuBin@VFalconEntity@@@@PAX@std@@@std@@@std@@QAEPAU?$_List_node@V?$VuBin@VFalconEntity@@@@PAX@2@I@Z ; std::_Wrap_alloc<std::allocator<std::_List_node<VuBin<FalconEntity>,void *> > >::allocate
PUBLIC	?deallocate@?$_Wrap_alloc@V?$allocator@U?$_List_node@V?$VuBin@VFalconEntity@@@@PAX@std@@@std@@@std@@QAEXPAU?$_List_node@V?$VuBin@VFalconEntity@@@@PAX@2@I@Z ; std::_Wrap_alloc<std::allocator<std::_List_node<VuBin<FalconEntity>,void *> > >::deallocate
PUBLIC	?max_size@?$_Wrap_alloc@V?$allocator@U?$_List_node@V?$VuBin@VFalconEntity@@@@PAX@std@@@std@@@std@@QBEIXZ ; std::_Wrap_alloc<std::allocator<std::_List_node<VuBin<FalconEntity>,void *> > >::max_size
PUBLIC	??0?$_List_val@U?$_List_simple_types@V?$VuBin@VFalconEntity@@@@@std@@@std@@QAE@XZ ; std::_List_val<std::_List_simple_types<VuBin<FalconEntity> > >::_List_val<std::_List_simple_types<VuBin<FalconEntity> > >
PUBLIC	?_Nextnode@?$_List_val@U?$_List_simple_types@V?$VuBin@VFalconEntity@@@@@std@@@std@@SAAAPAU?$_List_node@V?$VuBin@VFalconEntity@@@@PAX@2@PAU32@@Z ; std::_List_val<std::_List_simple_types<VuBin<FalconEntity> > >::_Nextnode
PUBLIC	?_Prevnode@?$_List_val@U?$_List_simple_types@V?$VuBin@VFalconEntity@@@@@std@@@std@@SAAAPAU?$_List_node@V?$VuBin@VFalconEntity@@@@PAX@2@PAU32@@Z ; std::_List_val<std::_List_simple_types<VuBin<FalconEntity> > >::_Prevnode
PUBLIC	?_Myval@?$_List_val@U?$_List_simple_types@V?$VuBin@VFalconEntity@@@@@std@@@std@@SAAAV?$VuBin@VFalconEntity@@@@PAU?$_List_node@V?$VuBin@VFalconEntity@@@@PAX@2@@Z ; std::_List_val<std::_List_simple_types<VuBin<FalconEntity> > >::_Myval
PUBLIC	??0?$_List_alloc@$0A@U?$_List_base_types@V?$VuBin@VFalconEntity@@@@V?$allocator@V?$VuBin@VFalconEntity@@@@@std@@@std@@@std@@QAE@ABV?$allocator@V?$VuBin@VFalconEntity@@@@@1@@Z ; std::_List_alloc<0,std::_List_base_types<VuBin<FalconEntity>,std::allocator<VuBin<FalconEntity> > > >::_List_alloc<0,std::_List_base_types<VuBin<FalconEntity>,std::allocator<VuBin<FalconEntity> > > >
PUBLIC	??1?$_List_alloc@$0A@U?$_List_base_types@V?$VuBin@VFalconEntity@@@@V?$allocator@V?$VuBin@VFalconEntity@@@@@std@@@std@@@std@@QAE@XZ ; std::_List_alloc<0,std::_List_base_types<VuBin<FalconEntity>,std::allocator<VuBin<FalconEntity> > > >::~_List_alloc<0,std::_List_base_types<VuBin<FalconEntity>,std::allocator<VuBin<FalconEntity> > > >
PUBLIC	?_Buyheadnode@?$_List_alloc@$0A@U?$_List_base_types@V?$VuBin@VFalconEntity@@@@V?$allocator@V?$VuBin@VFalconEntity@@@@@std@@@std@@@std@@QAEPAU?$_List_node@V?$VuBin@VFalconEntity@@@@PAX@2@XZ ; std::_List_alloc<0,std::_List_base_types<VuBin<FalconEntity>,std::allocator<VuBin<FalconEntity> > > >::_Buyheadnode
PUBLIC	?_Freeheadnode@?$_List_alloc@$0A@U?$_List_base_types@V?$VuBin@VFalconEntity@@@@V?$allocator@V?$VuBin@VFalconEntity@@@@@std@@@std@@@std@@QAEXPAU?$_List_node@V?$VuBin@VFalconEntity@@@@PAX@2@@Z ; std::_List_alloc<0,std::_List_base_types<VuBin<FalconEntity>,std::allocator<VuBin<FalconEntity> > > >::_Freeheadnode
PUBLIC	?_Buynode0@?$_List_alloc@$0A@U?$_List_base_types@V?$VuBin@VFalconEntity@@@@V?$allocator@V?$VuBin@VFalconEntity@@@@@std@@@std@@@std@@QAEPAU?$_List_node@V?$VuBin@VFalconEntity@@@@PAX@2@PAU32@0@Z ; std::_List_alloc<0,std::_List_base_types<VuBin<FalconEntity>,std::allocator<VuBin<FalconEntity> > > >::_Buynode0
PUBLIC	?_Getal@?$_List_alloc@$0A@U?$_List_base_types@V?$VuBin@VFalconEntity@@@@V?$allocator@V?$VuBin@VFalconEntity@@@@@std@@@std@@@std@@QBE?AU?$_Wrap_alloc@V?$allocator@U?$_List_node@V?$VuBin@VFalconEntity@@@@PAX@std@@@std@@@2@XZ ; std::_List_alloc<0,std::_List_base_types<VuBin<FalconEntity>,std::allocator<VuBin<FalconEntity> > > >::_Getal
PUBLIC	??0?$_List_buy@V?$VuBin@VFalconEntity@@@@V?$allocator@V?$VuBin@VFalconEntity@@@@@std@@@std@@QAE@ABV?$allocator@V?$VuBin@VFalconEntity@@@@@1@@Z ; std::_List_buy<VuBin<FalconEntity>,std::allocator<VuBin<FalconEntity> > >::_List_buy<VuBin<FalconEntity>,std::allocator<VuBin<FalconEntity> > >
PUBLIC	?_Freenode@?$_List_buy@V?$VuBin@VFalconEntity@@@@V?$allocator@V?$VuBin@VFalconEntity@@@@@std@@@std@@QAEXPAU?$_List_node@V?$VuBin@VFalconEntity@@@@PAX@2@@Z ; std::_List_buy<VuBin<FalconEntity>,std::allocator<VuBin<FalconEntity> > >::_Freenode
PUBLIC	??1?$_List_buy@V?$VuBin@VFalconEntity@@@@V?$allocator@V?$VuBin@VFalconEntity@@@@@std@@@std@@QAE@XZ ; std::_List_buy<VuBin<FalconEntity>,std::allocator<VuBin<FalconEntity> > >::~_List_buy<VuBin<FalconEntity>,std::allocator<VuBin<FalconEntity> > >
PUBLIC	??0?$list@V?$VuBin@VFalconEntity@@@@V?$allocator@V?$VuBin@VFalconEntity@@@@@std@@@std@@QAE@XZ ; std::list<VuBin<FalconEntity>,std::allocator<VuBin<FalconEntity> > >::list<VuBin<FalconEntity>,std::allocator<VuBin<FalconEntity> > >
PUBLIC	?push_back@?$list@V?$VuBin@VFalconEntity@@@@V?$allocator@V?$VuBin@VFalconEntity@@@@@std@@@std@@QAEX$$QAV?$VuBin@VFalconEntity@@@@@Z ; std::list<VuBin<FalconEntity>,std::allocator<VuBin<FalconEntity> > >::push_back
PUBLIC	??1?$list@V?$VuBin@VFalconEntity@@@@V?$allocator@V?$VuBin@VFalconEntity@@@@@std@@@std@@QAE@XZ ; std::list<VuBin<FalconEntity>,std::allocator<VuBin<FalconEntity> > >::~list<VuBin<FalconEntity>,std::allocator<VuBin<FalconEntity> > >
PUBLIC	?begin@?$list@V?$VuBin@VFalconEntity@@@@V?$allocator@V?$VuBin@VFalconEntity@@@@@std@@@std@@QAE?AV?$_List_iterator@V?$_List_val@U?$_List_simple_types@V?$VuBin@VFalconEntity@@@@@std@@@std@@@2@XZ ; std::list<VuBin<FalconEntity>,std::allocator<VuBin<FalconEntity> > >::begin
PUBLIC	?begin@?$list@V?$VuBin@VFalconEntity@@@@V?$allocator@V?$VuBin@VFalconEntity@@@@@std@@@std@@QBE?AV?$_List_const_iterator@V?$_List_val@U?$_List_simple_types@V?$VuBin@VFalconEntity@@@@@std@@@std@@@2@XZ ; std::list<VuBin<FalconEntity>,std::allocator<VuBin<FalconEntity> > >::begin
PUBLIC	?end@?$list@V?$VuBin@VFalconEntity@@@@V?$allocator@V?$VuBin@VFalconEntity@@@@@std@@@std@@QAE?AV?$_List_iterator@V?$_List_val@U?$_List_simple_types@V?$VuBin@VFalconEntity@@@@@std@@@std@@@2@XZ ; std::list<VuBin<FalconEntity>,std::allocator<VuBin<FalconEntity> > >::end
PUBLIC	?end@?$list@V?$VuBin@VFalconEntity@@@@V?$allocator@V?$VuBin@VFalconEntity@@@@@std@@@std@@QBE?AV?$_List_const_iterator@V?$_List_val@U?$_List_simple_types@V?$VuBin@VFalconEntity@@@@@std@@@std@@@2@XZ ; std::list<VuBin<FalconEntity>,std::allocator<VuBin<FalconEntity> > >::end
PUBLIC	?_Unchecked_end@?$list@V?$VuBin@VFalconEntity@@@@V?$allocator@V?$VuBin@VFalconEntity@@@@@std@@@std@@QAE?AV?$_List_unchecked_iterator@V?$_List_val@U?$_List_simple_types@V?$VuBin@VFalconEntity@@@@@std@@@std@@@2@XZ ; std::list<VuBin<FalconEntity>,std::allocator<VuBin<FalconEntity> > >::_Unchecked_end
PUBLIC	?_Make_iter@?$list@V?$VuBin@VFalconEntity@@@@V?$allocator@V?$VuBin@VFalconEntity@@@@@std@@@std@@QBE?AV?$_List_iterator@V?$_List_val@U?$_List_simple_types@V?$VuBin@VFalconEntity@@@@@std@@@std@@@2@V?$_List_const_iterator@V?$_List_val@U?$_List_simple_types@V?$VuBin@VFalconEntity@@@@@std@@@std@@@2@@Z ; std::list<VuBin<FalconEntity>,std::allocator<VuBin<FalconEntity> > >::_Make_iter
PUBLIC	?size@?$list@V?$VuBin@VFalconEntity@@@@V?$allocator@V?$VuBin@VFalconEntity@@@@@std@@@std@@QBEIXZ ; std::list<VuBin<FalconEntity>,std::allocator<VuBin<FalconEntity> > >::size
PUBLIC	?max_size@?$list@V?$VuBin@VFalconEntity@@@@V?$allocator@V?$VuBin@VFalconEntity@@@@@std@@@std@@QBEIXZ ; std::list<VuBin<FalconEntity>,std::allocator<VuBin<FalconEntity> > >::max_size
PUBLIC	?erase@?$list@V?$VuBin@VFalconEntity@@@@V?$allocator@V?$VuBin@VFalconEntity@@@@@std@@@std@@QAE?AV?$_List_iterator@V?$_List_val@U?$_List_simple_types@V?$VuBin@VFalconEntity@@@@@std@@@std@@@2@V?$_List_const_iterator@V?$_List_val@U?$_List_simple_types@V?$VuBin@VFalconEntity@@@@@std@@@std@@@2@@Z ; std::list<VuBin<FalconEntity>,std::allocator<VuBin<FalconEntity> > >::erase
PUBLIC	?clear@?$list@V?$VuBin@VFalconEntity@@@@V?$allocator@V?$VuBin@VFalconEntity@@@@@std@@@std@@QAEXXZ ; std::list<VuBin<FalconEntity>,std::allocator<VuBin<FalconEntity> > >::clear
PUBLIC	?_Tidy@?$list@V?$VuBin@VFalconEntity@@@@V?$allocator@V?$VuBin@VFalconEntity@@@@@std@@@std@@QAEXXZ ; std::list<VuBin<FalconEntity>,std::allocator<VuBin<FalconEntity> > >::_Tidy
PUBLIC	?_Incsize@?$list@V?$VuBin@VFalconEntity@@@@V?$allocator@V?$VuBin@VFalconEntity@@@@@std@@@std@@QAEXI@Z ; std::list<VuBin<FalconEntity>,std::allocator<VuBin<FalconEntity> > >::_Incsize
PUBLIC	??0FalconSessionEntity@@QAE@KPAD@Z		; FalconSessionEntity::FalconSessionEntity
PUBLIC	??0FalconSessionEntity@@QAE@PAPAEPAJ@Z		; FalconSessionEntity::FalconSessionEntity
PUBLIC	??0FalconSessionEntity@@QAE@PAU_iobuf@@@Z	; FalconSessionEntity::FalconSessionEntity
PUBLIC	?InsertionCallback@FalconSessionEntity@@UAEHXZ	; FalconSessionEntity::InsertionCallback
PUBLIC	??1FalconSessionEntity@@UAE@XZ			; FalconSessionEntity::~FalconSessionEntity
PUBLIC	?SaveSize@FalconSessionEntity@@UAEHXZ		; FalconSessionEntity::SaveSize
PUBLIC	?Save@FalconSessionEntity@@UAEHPAPAE@Z		; FalconSessionEntity::Save
PUBLIC	?Save@FalconSessionEntity@@UAEHPAU_iobuf@@@Z	; FalconSessionEntity::Save
PUBLIC	?DoFullUpdate@FalconSessionEntity@@QAEXXZ	; FalconSessionEntity::DoFullUpdate
PUBLIC	?GetTeam@FalconSessionEntity@@QAEEXZ		; FalconSessionEntity::GetTeam
PUBLIC	?GetGame@FalconSessionEntity@@QAEPAVFalconGameEntity@@XZ ; FalconSessionEntity::GetGame
PUBLIC	?SetPlayerName@FalconSessionEntity@@QAEXPAD@Z	; FalconSessionEntity::SetPlayerName
PUBLIC	?SetPlayerCallsign@FalconSessionEntity@@QAEXPAD@Z ; FalconSessionEntity::SetPlayerCallsign
PUBLIC	?SetPlayerSquadron@FalconSessionEntity@@QAEXPAVSquadronClass@@@Z ; FalconSessionEntity::SetPlayerSquadron
PUBLIC	?SetPlayerSquadronID@FalconSessionEntity@@QAEXVVU_ID@@@Z ; FalconSessionEntity::SetPlayerSquadronID
PUBLIC	?SetPlayerFlight@FalconSessionEntity@@QAEXPAVFlightClass@@@Z ; FalconSessionEntity::SetPlayerFlight
PUBLIC	?SetPlayerFlightID@FalconSessionEntity@@QAEXVVU_ID@@@Z ; FalconSessionEntity::SetPlayerFlightID
PUBLIC	?SetPlayerEntity@FalconSessionEntity@@QAEXPAVFalconEntity@@@Z ; FalconSessionEntity::SetPlayerEntity
PUBLIC	?SetPlayerEntityID@FalconSessionEntity@@QAEXVVU_ID@@@Z ; FalconSessionEntity::SetPlayerEntityID
PUBLIC	?UpdatePlayer@FalconSessionEntity@@QAEXXZ	; FalconSessionEntity::UpdatePlayer
PUBLIC	?SetAceFactor@FalconSessionEntity@@QAEXM@Z	; FalconSessionEntity::SetAceFactor
PUBLIC	?SetInitAceFactor@FalconSessionEntity@@QAEXM@Z	; FalconSessionEntity::SetInitAceFactor
PUBLIC	?SetCountry@FalconSessionEntity@@QAEXE@Z	; FalconSessionEntity::SetCountry
PUBLIC	?SetAircraftNum@FalconSessionEntity@@QAEXE@Z	; FalconSessionEntity::SetAircraftNum
PUBLIC	?SetPilotSlot@FalconSessionEntity@@QAEXE@Z	; FalconSessionEntity::SetPilotSlot
PUBLIC	?SetFlyState@FalconSessionEntity@@QAEXE@Z	; FalconSessionEntity::SetFlyState
PUBLIC	?SetReqCompression@FalconSessionEntity@@QAEXF@Z	; FalconSessionEntity::SetReqCompression
PUBLIC	?SetAssignedAircraftNum@FalconSessionEntity@@QAEXE@Z ; FalconSessionEntity::SetAssignedAircraftNum
PUBLIC	?SetAssignedPilotSlot@FalconSessionEntity@@QAEXE@Z ; FalconSessionEntity::SetAssignedPilotSlot
PUBLIC	?SetAssignedPlayerFlight@FalconSessionEntity@@QAEXPAVFlightClass@@@Z ; FalconSessionEntity::SetAssignedPlayerFlight
PUBLIC	?SetAceFactorKill@FalconSessionEntity@@QAEXM@Z	; FalconSessionEntity::SetAceFactorKill
PUBLIC	?SetAceFactorDeath@FalconSessionEntity@@QAEXM@Z	; FalconSessionEntity::SetAceFactorDeath
PUBLIC	?InSessionBubble@FalconSessionEntity@@QAEHPAVFalconEntity@@M@Z ; FalconSessionEntity::InSessionBubble
PUBLIC	?Handle@FalconSessionEntity@@UAEHPAVVuFullUpdateEvent@@@Z ; FalconSessionEntity::Handle
PUBLIC	?AddToFineInterest@FalconSessionEntity@@QAE_NPAVFalconEntity@@_N@Z ; FalconSessionEntity::AddToFineInterest
PUBLIC	?RemoveFromFineInterest@FalconSessionEntity@@QAE_NPBVFalconEntity@@_N@Z ; FalconSessionEntity::RemoveFromFineInterest
PUBLIC	?ClearFineInterest@FalconSessionEntity@@QAEX_N@Z ; FalconSessionEntity::ClearFineInterest
PUBLIC	?HasFineInterest@FalconSessionEntity@@QBE_NPBVFalconEntity@@@Z ; FalconSessionEntity::HasFineInterest
PUBLIC	??_GFalconSessionEntity@@UAEPAXI@Z		; FalconSessionEntity::`scalar deleting destructor'
PUBLIC	??0InvalidBufferException@@QAE@ABV?$basic_string@DU?$char_traits@D@std@@V?$allocator@D@2@@std@@@Z ; InvalidBufferException::InvalidBufferException
PUBLIC	??1InvalidBufferException@@UAE@XZ		; InvalidBufferException::~InvalidBufferException
PUBLIC	??0InvalidBufferException@@QAE@ABV0@@Z		; InvalidBufferException::InvalidBufferException
PUBLIC	??_GInvalidBufferException@@UAEPAXI@Z		; InvalidBufferException::`scalar deleting destructor'
PUBLIC	?memcpychk@@YAXPAXPAPAEIPAJ@Z			; memcpychk
PUBLIC	?GetOwner@CampBaseClass@@QAEEXZ			; CampBaseClass::GetOwner
PUBLIC	?CampEnterCriticalSection@@YAXXZ		; CampEnterCriticalSection
PUBLIC	?CampLeaveCriticalSection@@YAXXZ		; CampLeaveCriticalSection
PUBLIC	??0id@locale@std@@QAE@I@Z			; std::locale::id::id
PUBLIC	?generic_category@std@@YAABVerror_category@1@XZ	; std::generic_category
PUBLIC	?system_category@std@@YAABVerror_category@1@XZ	; std::system_category
PUBLIC	??0error_category@std@@QAE@XZ			; std::error_category::error_category
PUBLIC	??1error_category@std@@UAE@XZ			; std::error_category::~error_category
PUBLIC	?default_error_condition@error_category@std@@UBE?AVerror_condition@2@H@Z ; std::error_category::default_error_condition
PUBLIC	?equivalent@error_category@std@@UBE_NHABVerror_condition@2@@Z ; std::error_category::equivalent
PUBLIC	?equivalent@error_category@std@@UBE_NABVerror_code@2@H@Z ; std::error_category::equivalent
PUBLIC	??8error_category@std@@QBE_NABV01@@Z		; std::error_category::operator==
PUBLIC	??_Gerror_category@std@@UAEPAXI@Z		; std::error_category::`scalar deleting destructor'
PUBLIC	?value@error_code@std@@QBEHXZ			; std::error_code::value
PUBLIC	?category@error_code@std@@QBEABVerror_category@2@XZ ; std::error_code::category
PUBLIC	??0error_condition@std@@QAE@HABVerror_category@1@@Z ; std::error_condition::error_condition
PUBLIC	?value@error_condition@std@@QBEHXZ		; std::error_condition::value
PUBLIC	?category@error_condition@std@@QBEABVerror_category@2@XZ ; std::error_condition::category
PUBLIC	??8error_condition@std@@QBE_NABV01@@Z		; std::error_condition::operator==
PUBLIC	??0_Generic_error_category@std@@QAE@XZ		; std::_Generic_error_category::_Generic_error_category
PUBLIC	?name@_Generic_error_category@std@@UBEPBDXZ	; std::_Generic_error_category::name
PUBLIC	?message@_Generic_error_category@std@@UBE?AV?$basic_string@DU?$char_traits@D@std@@V?$allocator@D@2@@2@H@Z ; std::_Generic_error_category::message
PUBLIC	??1_Generic_error_category@std@@UAE@XZ		; std::_Generic_error_category::~_Generic_error_category
PUBLIC	??_G_Generic_error_category@std@@UAEPAXI@Z	; std::_Generic_error_category::`scalar deleting destructor'
PUBLIC	??0_Iostream_error_category@std@@QAE@XZ		; std::_Iostream_error_category::_Iostream_error_category
PUBLIC	?name@_Iostream_error_category@std@@UBEPBDXZ	; std::_Iostream_error_category::name
PUBLIC	?message@_Iostream_error_category@std@@UBE?AV?$basic_string@DU?$char_traits@D@std@@V?$allocator@D@2@@2@H@Z ; std::_Iostream_error_category::message
PUBLIC	??1_Iostream_error_category@std@@UAE@XZ		; std::_Iostream_error_category::~_Iostream_error_category
PUBLIC	??_G_Iostream_error_category@std@@UAEPAXI@Z	; std::_Iostream_error_category::`scalar deleting destructor'
PUBLIC	??0_System_error_category@std@@QAE@XZ		; std::_System_error_category::_System_error_category
PUBLIC	?name@_System_error_category@std@@UBEPBDXZ	; std::_System_error_category::name
PUBLIC	?message@_System_error_category@std@@UBE?AV?$basic_string@DU?$char_traits@D@std@@V?$allocator@D@2@@2@H@Z ; std::_System_error_category::message
PUBLIC	?default_error_condition@_System_error_category@std@@UBE?AVerror_condition@2@H@Z ; std::_System_error_category::default_error_condition
PUBLIC	??1_System_error_category@std@@UAE@XZ		; std::_System_error_category::~_System_error_category
PUBLIC	??_G_System_error_category@std@@UAEPAXI@Z	; std::_System_error_category::`scalar deleting destructor'
PUBLIC	??0?$_List_unchecked_const_iterator@V?$_List_val@U?$_List_simple_types@V?$VuBin@VFalconEntity@@@@@std@@@std@@U_Iterator_base0@2@@std@@QAE@XZ ; std::_List_unchecked_const_iterator<std::_List_val<std::_List_simple_types<VuBin<FalconEntity> > >,std::_Iterator_base0>::_List_unchecked_const_iterator<std::_List_val<std::_List_simple_types<VuBin<FalconEntity> > >,std::_Iterator_base0>
PUBLIC	??0?$_List_unchecked_const_iterator@V?$_List_val@U?$_List_simple_types@V?$VuBin@VFalconEntity@@@@@std@@@std@@U_Iterator_base0@2@@std@@QAE@PAU?$_List_node@V?$VuBin@VFalconEntity@@@@PAX@1@PBV?$_List_val@U?$_List_simple_types@V?$VuBin@VFalconEntity@@@@@std@@@1@@Z ; std::_List_unchecked_const_iterator<std::_List_val<std::_List_simple_types<VuBin<FalconEntity> > >,std::_Iterator_base0>::_List_unchecked_const_iterator<std::_List_val<std::_List_simple_types<VuBin<FalconEntity> > >,std::_Iterator_base0>
PUBLIC	??D?$_List_unchecked_const_iterator@V?$_List_val@U?$_List_simple_types@V?$VuBin@VFalconEntity@@@@@std@@@std@@U_Iterator_base0@2@@std@@QBEABV?$VuBin@VFalconEntity@@@@XZ ; std::_List_unchecked_const_iterator<std::_List_val<std::_List_simple_types<VuBin<FalconEntity> > >,std::_Iterator_base0>::operator*
PUBLIC	??C?$_List_unchecked_const_iterator@V?$_List_val@U?$_List_simple_types@V?$VuBin@VFalconEntity@@@@@std@@@std@@U_Iterator_base0@2@@std@@QBEPBV?$VuBin@VFalconEntity@@@@XZ ; std::_List_unchecked_const_iterator<std::_List_val<std::_List_simple_types<VuBin<FalconEntity> > >,std::_Iterator_base0>::operator->
PUBLIC	?_Mynode@?$_List_unchecked_const_iterator@V?$_List_val@U?$_List_simple_types@V?$VuBin@VFalconEntity@@@@@std@@@std@@U_Iterator_base0@2@@std@@QBEPAU?$_List_node@V?$VuBin@VFalconEntity@@@@PAX@2@XZ ; std::_List_unchecked_const_iterator<std::_List_val<std::_List_simple_types<VuBin<FalconEntity> > >,std::_Iterator_base0>::_Mynode
PUBLIC	??0?$_List_const_iterator@V?$_List_val@U?$_List_simple_types@V?$VuBin@VFalconEntity@@@@@std@@@std@@@std@@QAE@XZ ; std::_List_const_iterator<std::_List_val<std::_List_simple_types<VuBin<FalconEntity> > > >::_List_const_iterator<std::_List_val<std::_List_simple_types<VuBin<FalconEntity> > > >
PUBLIC	??0?$_List_const_iterator@V?$_List_val@U?$_List_simple_types@V?$VuBin@VFalconEntity@@@@@std@@@std@@@std@@QAE@PAU?$_List_node@V?$VuBin@VFalconEntity@@@@PAX@1@PBV?$_List_val@U?$_List_simple_types@V?$VuBin@VFalconEntity@@@@@std@@@1@@Z ; std::_List_const_iterator<std::_List_val<std::_List_simple_types<VuBin<FalconEntity> > > >::_List_const_iterator<std::_List_val<std::_List_simple_types<VuBin<FalconEntity> > > >
PUBLIC	??D?$_List_const_iterator@V?$_List_val@U?$_List_simple_types@V?$VuBin@VFalconEntity@@@@@std@@@std@@@std@@QBEABV?$VuBin@VFalconEntity@@@@XZ ; std::_List_const_iterator<std::_List_val<std::_List_simple_types<VuBin<FalconEntity> > > >::operator*
PUBLIC	??E?$_List_const_iterator@V?$_List_val@U?$_List_simple_types@V?$VuBin@VFalconEntity@@@@@std@@@std@@@std@@QAEAAV01@XZ ; std::_List_const_iterator<std::_List_val<std::_List_simple_types<VuBin<FalconEntity> > > >::operator++
PUBLIC	??E?$_List_const_iterator@V?$_List_val@U?$_List_simple_types@V?$VuBin@VFalconEntity@@@@@std@@@std@@@std@@QAE?AV01@H@Z ; std::_List_const_iterator<std::_List_val<std::_List_simple_types<VuBin<FalconEntity> > > >::operator++
PUBLIC	??8?$_List_const_iterator@V?$_List_val@U?$_List_simple_types@V?$VuBin@VFalconEntity@@@@@std@@@std@@@std@@QBE_NABV01@@Z ; std::_List_const_iterator<std::_List_val<std::_List_simple_types<VuBin<FalconEntity> > > >::operator==
PUBLIC	??9?$_List_const_iterator@V?$_List_val@U?$_List_simple_types@V?$VuBin@VFalconEntity@@@@@std@@@std@@@std@@QBE_NABV01@@Z ; std::_List_const_iterator<std::_List_val<std::_List_simple_types<VuBin<FalconEntity> > > >::operator!=
PUBLIC	??0?$_List_iterator@V?$_List_val@U?$_List_simple_types@V?$VuBin@VFalconEntity@@@@@std@@@std@@@std@@QAE@XZ ; std::_List_iterator<std::_List_val<std::_List_simple_types<VuBin<FalconEntity> > > >::_List_iterator<std::_List_val<std::_List_simple_types<VuBin<FalconEntity> > > >
PUBLIC	??0?$_List_iterator@V?$_List_val@U?$_List_simple_types@V?$VuBin@VFalconEntity@@@@@std@@@std@@@std@@QAE@PAU?$_List_node@V?$VuBin@VFalconEntity@@@@PAX@1@PBV?$_List_val@U?$_List_simple_types@V?$VuBin@VFalconEntity@@@@@std@@@1@@Z ; std::_List_iterator<std::_List_val<std::_List_simple_types<VuBin<FalconEntity> > > >::_List_iterator<std::_List_val<std::_List_simple_types<VuBin<FalconEntity> > > >
PUBLIC	??D?$_List_iterator@V?$_List_val@U?$_List_simple_types@V?$VuBin@VFalconEntity@@@@@std@@@std@@@std@@QBEAAV?$VuBin@VFalconEntity@@@@XZ ; std::_List_iterator<std::_List_val<std::_List_simple_types<VuBin<FalconEntity> > > >::operator*
PUBLIC	??C?$_List_iterator@V?$_List_val@U?$_List_simple_types@V?$VuBin@VFalconEntity@@@@@std@@@std@@@std@@QBEPAV?$VuBin@VFalconEntity@@@@XZ ; std::_List_iterator<std::_List_val<std::_List_simple_types<VuBin<FalconEntity> > > >::operator->
PUBLIC	??E?$_List_iterator@V?$_List_val@U?$_List_simple_types@V?$VuBin@VFalconEntity@@@@@std@@@std@@@std@@QAEAAV01@XZ ; std::_List_iterator<std::_List_val<std::_List_simple_types<VuBin<FalconEntity> > > >::operator++
PUBLIC	??$?8VFalconEntity@@@@YA_NPBXABV?$VuBin@VFalconEntity@@@@@Z ; operator==<FalconEntity>
PUBLIC	??$?9VSquadronClass@@@@YA_NPBXABV?$VuBin@VSquadronClass@@@@@Z ; operator!=<SquadronClass>
PUBLIC	??$?9VFlightClass@@@@YA_NPBXABV?$VuBin@VFlightClass@@@@@Z ; operator!=<FlightClass>
PUBLIC	??$?9VFalconEntity@@@@YA_NPBXABV?$VuBin@VFalconEntity@@@@@Z ; operator!=<FalconEntity>
PUBLIC	??0?$_List_unchecked_iterator@V?$_List_val@U?$_List_simple_types@V?$VuBin@VFalconEntity@@@@@std@@@std@@@std@@QAE@PAU?$_List_node@V?$VuBin@VFalconEntity@@@@PAX@1@PBV?$_List_val@U?$_List_simple_types@V?$VuBin@VFalconEntity@@@@@std@@@1@@Z ; std::_List_unchecked_iterator<std::_List_val<std::_List_simple_types<VuBin<FalconEntity> > > >::_List_unchecked_iterator<std::_List_val<std::_List_simple_types<VuBin<FalconEntity> > > >
PUBLIC	??$forward@V?$VuBin@VFalconEntity@@@@@std@@YA$$QAV?$VuBin@VFalconEntity@@@@AAV1@@Z ; std::forward<VuBin<FalconEntity> >
PUBLIC	??$_Insert@V?$VuBin@VFalconEntity@@@@@?$list@V?$VuBin@VFalconEntity@@@@V?$allocator@V?$VuBin@VFalconEntity@@@@@std@@@std@@QAEXV?$_List_unchecked_const_iterator@V?$_List_val@U?$_List_simple_types@V?$VuBin@VFalconEntity@@@@@std@@@std@@U_Iterator_base0@2@@1@$$QAV?$VuBin@VFalconEntity@@@@@Z ; std::list<VuBin<FalconEntity>,std::allocator<VuBin<FalconEntity> > >::_Insert<VuBin<FalconEntity> >
PUBLIC	?pointer_to@?$pointer_traits@PAV?$VuBin@VFalconEntity@@@@@std@@SAPAV?$VuBin@VFalconEntity@@@@AAV3@@Z ; std::pointer_traits<VuBin<FalconEntity> *>::pointer_to
PUBLIC	?pointer_to@?$pointer_traits@PBV?$VuBin@VFalconEntity@@@@@std@@SAPBV?$VuBin@VFalconEntity@@@@ABV3@@Z ; std::pointer_traits<VuBin<FalconEntity> const *>::pointer_to
PUBLIC	??$construct@PADAAPAD@?$_Wrap_alloc@V?$allocator@D@std@@@std@@QAEXPAPADAAPAD@Z ; std::_Wrap_alloc<std::allocator<char> >::construct<char *,char * &>
PUBLIC	??$destroy@PAD@?$_Wrap_alloc@V?$allocator@D@std@@@std@@QAEXPAPAD@Z ; std::_Wrap_alloc<std::allocator<char> >::destroy<char *>
PUBLIC	??$addressof@D@std@@YAPADAAD@Z			; std::addressof<char>
PUBLIC	??$addressof@PAU?$_List_node@V?$VuBin@VFalconEntity@@@@PAX@std@@@std@@YAPAPAU?$_List_node@V?$VuBin@VFalconEntity@@@@PAX@0@AAPAU10@@Z ; std::addressof<std::_List_node<VuBin<FalconEntity>,void *> *>
PUBLIC	??$destroy@PAU?$_List_node@V?$VuBin@VFalconEntity@@@@PAX@std@@@?$_Wrap_alloc@V?$allocator@U?$_List_node@V?$VuBin@VFalconEntity@@@@PAX@std@@@std@@@std@@QAEXPAPAU?$_List_node@V?$VuBin@VFalconEntity@@@@PAX@1@@Z ; std::_Wrap_alloc<std::allocator<std::_List_node<VuBin<FalconEntity>,void *> > >::destroy<std::_List_node<VuBin<FalconEntity>,void *> *>
PUBLIC	??$addressof@V?$VuBin@VFalconEntity@@@@@std@@YAPAV?$VuBin@VFalconEntity@@@@AAV1@@Z ; std::addressof<VuBin<FalconEntity> >
PUBLIC	??$destroy@V?$VuBin@VFalconEntity@@@@@?$_Wrap_alloc@V?$allocator@U?$_List_node@V?$VuBin@VFalconEntity@@@@PAX@std@@@std@@@std@@QAEXPAV?$VuBin@VFalconEntity@@@@@Z ; std::_Wrap_alloc<std::allocator<std::_List_node<VuBin<FalconEntity>,void *> > >::destroy<VuBin<FalconEntity> >
PUBLIC	??$addressof@$$CBV?$VuBin@VFalconEntity@@@@@std@@YAPBV?$VuBin@VFalconEntity@@@@ABV1@@Z ; std::addressof<VuBin<FalconEntity> const >
PUBLIC	??$construct@PAU?$_List_node@V?$VuBin@VFalconEntity@@@@PAX@std@@AAPAU12@@?$_Wrap_alloc@V?$allocator@U?$_List_node@V?$VuBin@VFalconEntity@@@@PAX@std@@@std@@@std@@QAEXPAPAU?$_List_node@V?$VuBin@VFalconEntity@@@@PAX@1@AAPAU21@@Z ; std::_Wrap_alloc<std::allocator<std::_List_node<VuBin<FalconEntity>,void *> > >::construct<std::_List_node<VuBin<FalconEntity>,void *> *,std::_List_node<VuBin<FalconEntity>,void *> * &>
PUBLIC	??$_Allocate@D@std@@YAPADIPAD@Z			; std::_Allocate<char>
PUBLIC	??$_Allocate@U?$_List_node@V?$VuBin@VFalconEntity@@@@PAX@std@@@std@@YAPAU?$_List_node@V?$VuBin@VFalconEntity@@@@PAX@0@IPAU10@@Z ; std::_Allocate<std::_List_node<VuBin<FalconEntity>,void *> >
PUBLIC	??$_Buynode@V?$VuBin@VFalconEntity@@@@@?$_List_buy@V?$VuBin@VFalconEntity@@@@V?$allocator@V?$VuBin@VFalconEntity@@@@@std@@@std@@QAEPAU?$_List_node@V?$VuBin@VFalconEntity@@@@PAX@1@PAU21@0$$QAV?$VuBin@VFalconEntity@@@@@Z ; std::_List_buy<VuBin<FalconEntity>,std::allocator<VuBin<FalconEntity> > >::_Buynode<VuBin<FalconEntity> >
PUBLIC	??$forward@AAPAD@std@@YAAAPADAAPAD@Z		; std::forward<char * &>
PUBLIC	??$construct@PADAAPAD@?$allocator_traits@V?$allocator@D@std@@@std@@SAXAAV?$allocator@D@1@PAPADAAPAD@Z ; std::allocator_traits<std::allocator<char> >::construct<char *,char * &>
PUBLIC	??$destroy@PAD@?$allocator_traits@V?$allocator@D@std@@@std@@SAXAAV?$allocator@D@1@PAPAD@Z ; std::allocator_traits<std::allocator<char> >::destroy<char *>
PUBLIC	??$destroy@PAU?$_List_node@V?$VuBin@VFalconEntity@@@@PAX@std@@@?$allocator_traits@V?$allocator@U?$_List_node@V?$VuBin@VFalconEntity@@@@PAX@std@@@std@@@std@@SAXAAV?$allocator@U?$_List_node@V?$VuBin@VFalconEntity@@@@PAX@std@@@1@PAPAU?$_List_node@V?$VuBin@VFalconEntity@@@@PAX@1@@Z ; std::allocator_traits<std::allocator<std::_List_node<VuBin<FalconEntity>,void *> > >::destroy<std::_List_node<VuBin<FalconEntity>,void *> *>
PUBLIC	??$destroy@V?$VuBin@VFalconEntity@@@@@?$allocator_traits@V?$allocator@U?$_List_node@V?$VuBin@VFalconEntity@@@@PAX@std@@@std@@@std@@SAXAAV?$allocator@U?$_List_node@V?$VuBin@VFalconEntity@@@@PAX@std@@@1@PAV?$VuBin@VFalconEntity@@@@@Z ; std::allocator_traits<std::allocator<std::_List_node<VuBin<FalconEntity>,void *> > >::destroy<VuBin<FalconEntity> >
PUBLIC	??$forward@AAPAU?$_List_node@V?$VuBin@VFalconEntity@@@@PAX@std@@@std@@YAAAPAU?$_List_node@V?$VuBin@VFalconEntity@@@@PAX@0@AAPAU10@@Z ; std::forward<std::_List_node<VuBin<FalconEntity>,void *> * &>
PUBLIC	??$construct@PAU?$_List_node@V?$VuBin@VFalconEntity@@@@PAX@std@@AAPAU12@@?$allocator_traits@V?$allocator@U?$_List_node@V?$VuBin@VFalconEntity@@@@PAX@std@@@std@@@std@@SAXAAV?$allocator@U?$_List_node@V?$VuBin@VFalconEntity@@@@PAX@std@@@1@PAPAU?$_List_node@V?$VuBin@VFalconEntity@@@@PAX@1@AAPAU31@@Z ; std::allocator_traits<std::allocator<std::_List_node<VuBin<FalconEntity>,void *> > >::construct<std::_List_node<VuBin<FalconEntity>,void *> *,std::_List_node<VuBin<FalconEntity>,void *> * &>
PUBLIC	??$construct@V?$VuBin@VFalconEntity@@@@V1@@?$_Wrap_alloc@V?$allocator@U?$_List_node@V?$VuBin@VFalconEntity@@@@PAX@std@@@std@@@std@@QAEXPAV?$VuBin@VFalconEntity@@@@$$QAV2@@Z ; std::_Wrap_alloc<std::allocator<std::_List_node<VuBin<FalconEntity>,void *> > >::construct<VuBin<FalconEntity>,VuBin<FalconEntity> >
PUBLIC	??$construct@PADAAPAD@?$allocator@D@std@@QAEXPAPADAAPAD@Z ; std::allocator<char>::construct<char *,char * &>
PUBLIC	??$destroy@PAD@?$allocator@D@std@@QAEXPAPAD@Z	; std::allocator<char>::destroy<char *>
PUBLIC	??$destroy@PAU?$_List_node@V?$VuBin@VFalconEntity@@@@PAX@std@@@?$allocator@U?$_List_node@V?$VuBin@VFalconEntity@@@@PAX@std@@@std@@QAEXPAPAU?$_List_node@V?$VuBin@VFalconEntity@@@@PAX@1@@Z ; std::allocator<std::_List_node<VuBin<FalconEntity>,void *> >::destroy<std::_List_node<VuBin<FalconEntity>,void *> *>
PUBLIC	??$destroy@V?$VuBin@VFalconEntity@@@@@?$allocator@U?$_List_node@V?$VuBin@VFalconEntity@@@@PAX@std@@@std@@QAEXPAV?$VuBin@VFalconEntity@@@@@Z ; std::allocator<std::_List_node<VuBin<FalconEntity>,void *> >::destroy<VuBin<FalconEntity> >
PUBLIC	??$construct@PAU?$_List_node@V?$VuBin@VFalconEntity@@@@PAX@std@@AAPAU12@@?$allocator@U?$_List_node@V?$VuBin@VFalconEntity@@@@PAX@std@@@std@@QAEXPAPAU?$_List_node@V?$VuBin@VFalconEntity@@@@PAX@1@AAPAU21@@Z ; std::allocator<std::_List_node<VuBin<FalconEntity>,void *> >::construct<std::_List_node<VuBin<FalconEntity>,void *> *,std::_List_node<VuBin<FalconEntity>,void *> * &>
PUBLIC	??$construct@V?$VuBin@VFalconEntity@@@@V1@@?$allocator_traits@V?$allocator@U?$_List_node@V?$VuBin@VFalconEntity@@@@PAX@std@@@std@@@std@@SAXAAV?$allocator@U?$_List_node@V?$VuBin@VFalconEntity@@@@PAX@std@@@1@PAV?$VuBin@VFalconEntity@@@@$$QAV3@@Z ; std::allocator_traits<std::allocator<std::_List_node<VuBin<FalconEntity>,void *> > >::construct<VuBin<FalconEntity>,VuBin<FalconEntity> >
PUBLIC	??$construct@V?$VuBin@VFalconEntity@@@@V1@@?$allocator@U?$_List_node@V?$VuBin@VFalconEntity@@@@PAX@std@@@std@@QAEXPAV?$VuBin@VFalconEntity@@@@$$QAV2@@Z ; std::allocator<std::_List_node<VuBin<FalconEntity>,void *> >::construct<VuBin<FalconEntity>,VuBin<FalconEntity> >
PUBLIC	??_7logic_error@std@@6B@			; std::logic_error::`vftable'
PUBLIC	??_7out_of_range@std@@6B@			; std::out_of_range::`vftable'
PUBLIC	??_7FalconSessionEntity@@6B@			; FalconSessionEntity::`vftable'
PUBLIC	??_7InvalidBufferException@@6B@			; InvalidBufferException::`vftable'
PUBLIC	??_C@_0CI@MPKJAHJH@Trying?5to?5write?5?$CFlu?5bytes?5to?5?$CFld@ ; `string'
PUBLIC	__TI4?AVInvalidBufferException@@
PUBLIC	__CTA4?AVInvalidBufferException@@
PUBLIC	??_R0?AVInvalidBufferException@@@8		; InvalidBufferException `RTTI Type Descriptor'
PUBLIC	__CT??_R0?AVInvalidBufferException@@@8??0InvalidBufferException@@QAE@ABV0@@Z12
PUBLIC	??_R0?AVout_of_range@std@@@8			; std::out_of_range `RTTI Type Descriptor'
PUBLIC	__CT??_R0?AVout_of_range@std@@@8??0out_of_range@std@@QAE@ABV01@@Z12
PUBLIC	??_R0?AVlogic_error@std@@@8			; std::logic_error `RTTI Type Descriptor'
PUBLIC	__CT??_R0?AVlogic_error@std@@@8??0logic_error@std@@QAE@ABV01@@Z12
PUBLIC	??_R0?AVexception@std@@@8			; std::exception `RTTI Type Descriptor'
PUBLIC	__CT??_R0?AVexception@std@@@8??0exception@std@@QAE@ABV01@@Z12
PUBLIC	??_7error_category@std@@6B@			; std::error_category::`vftable'
PUBLIC	??_7_Generic_error_category@std@@6B@		; std::_Generic_error_category::`vftable'
PUBLIC	??_C@_07DCLBNMLN@generic?$AA@			; `string'
PUBLIC	??_C@_0O@BFJCFAAK@unknown?5error?$AA@		; `string'
PUBLIC	??_7_Iostream_error_category@std@@6B@		; std::_Iostream_error_category::`vftable'
PUBLIC	??_C@_08LLGCOLLL@iostream?$AA@			; `string'
PUBLIC	??_C@_0BG@PADBLCHM@iostream?5stream?5error?$AA@	; `string'
PUBLIC	??_7_System_error_category@std@@6B@		; std::_System_error_category::`vftable'
PUBLIC	??_C@_06FHFOAHML@system?$AA@			; `string'
PUBLIC	?_Generic_object@?$_Error_objects@H@std@@2V_Generic_error_category@2@A ; std::_Error_objects<int>::_Generic_object
PUBLIC	?_Iostream_object@?$_Error_objects@H@std@@2V_Iostream_error_category@2@A ; std::_Error_objects<int>::_Iostream_object
PUBLIC	?_System_object@?$_Error_objects@H@std@@2V_System_error_category@2@A ; std::_Error_objects<int>::_System_object
PUBLIC	?id@?$num_put@DV?$back_insert_iterator@V?$basic_string@DU?$char_traits@D@std@@V?$allocator@D@2@@std@@@std@@@std@@2V0locale@2@A ; std::num_put<char,std::back_insert_iterator<std::basic_string<char,std::char_traits<char>,std::allocator<char> > > >::id
PUBLIC	?id@?$num_put@_WV?$back_insert_iterator@V?$basic_string@_WU?$char_traits@_W@std@@V?$allocator@_W@2@@std@@@std@@@std@@2V0locale@2@A ; std::num_put<wchar_t,std::back_insert_iterator<std::basic_string<wchar_t,std::char_traits<wchar_t>,std::allocator<wchar_t> > > >::id
PUBLIC	??_C@_0DG@OLKGBOGL@FalconSessionEntity?3?5This?5functi@ ; `string'
PUBLIC	??_C@_0CM@MMKBEKHO@Invalid?5Session?5Info?5?$CFd?3?$CFd?5?$CFd?3?$CFd@ ; `string'
PUBLIC	??_C@_0CA@NCOMDAPC@Flight?5is?5not?5found?5?3?5?$CF08x?$CF08x?6?$AA@ ; `string'
PUBLIC	?id@?$numpunct@D@std@@2V0locale@2@A		; std::numpunct<char>::id
PUBLIC	?id@?$numpunct@_W@std@@2V0locale@2@A		; std::numpunct<wchar_t>::id
PUBLIC	??_C@_0BI@CFPLBAOH@invalid?5string?5position?$AA@ ; `string'
PUBLIC	??_C@_0BA@JFNIOLAK@string?5too?5long?$AA@	; `string'
PUBLIC	??_C@_0BB@MOGOBHAF@list?$DMT?$DO?5too?5long?$AA@ ; `string'
PUBLIC	??_R1A@?0A@EA@exception@std@@8			; std::exception::`RTTI Base Class Descriptor at (0,-1,0,64)'
PUBLIC	??_R3exception@std@@8				; std::exception::`RTTI Class Hierarchy Descriptor'
PUBLIC	??_R2exception@std@@8				; std::exception::`RTTI Base Class Array'
PUBLIC	??_R4logic_error@std@@6B@			; std::logic_error::`RTTI Complete Object Locator'
PUBLIC	??_R3logic_error@std@@8				; std::logic_error::`RTTI Class Hierarchy Descriptor'
PUBLIC	??_R2logic_error@std@@8				; std::logic_error::`RTTI Base Class Array'
PUBLIC	??_R1A@?0A@EA@logic_error@std@@8		; std::logic_error::`RTTI Base Class Descriptor at (0,-1,0,64)'
PUBLIC	??_R4out_of_range@std@@6B@			; std::out_of_range::`RTTI Complete Object Locator'
PUBLIC	??_R3out_of_range@std@@8			; std::out_of_range::`RTTI Class Hierarchy Descriptor'
PUBLIC	??_R2out_of_range@std@@8			; std::out_of_range::`RTTI Base Class Array'
PUBLIC	??_R1A@?0A@EA@out_of_range@std@@8		; std::out_of_range::`RTTI Base Class Descriptor at (0,-1,0,64)'
PUBLIC	??_R4FalconSessionEntity@@6B@			; FalconSessionEntity::`RTTI Complete Object Locator'
PUBLIC	??_R0?AVFalconSessionEntity@@@8			; FalconSessionEntity `RTTI Type Descriptor'
PUBLIC	??_R3FalconSessionEntity@@8			; FalconSessionEntity::`RTTI Class Hierarchy Descriptor'
PUBLIC	??_R2FalconSessionEntity@@8			; FalconSessionEntity::`RTTI Base Class Array'
PUBLIC	??_R1A@?0A@EA@FalconSessionEntity@@8		; FalconSessionEntity::`RTTI Base Class Descriptor at (0,-1,0,64)'
PUBLIC	??_R1A@?0A@EA@VuSessionEntity@@8		; VuSessionEntity::`RTTI Base Class Descriptor at (0,-1,0,64)'
PUBLIC	??_R0?AVVuSessionEntity@@@8			; VuSessionEntity `RTTI Type Descriptor'
PUBLIC	??_R3VuSessionEntity@@8				; VuSessionEntity::`RTTI Class Hierarchy Descriptor'
PUBLIC	??_R2VuSessionEntity@@8				; VuSessionEntity::`RTTI Base Class Array'
PUBLIC	??_R1A@?0A@EA@VuTargetEntity@@8			; VuTargetEntity::`RTTI Base Class Descriptor at (0,-1,0,64)'
PUBLIC	??_R0?AVVuTargetEntity@@@8			; VuTargetEntity `RTTI Type Descriptor'
PUBLIC	??_R3VuTargetEntity@@8				; VuTargetEntity::`RTTI Class Hierarchy Descriptor'
PUBLIC	??_R2VuTargetEntity@@8				; VuTargetEntity::`RTTI Base Class Array'
PUBLIC	??_R1A@?0A@EA@VuEntity@@8			; VuEntity::`RTTI Base Class Descriptor at (0,-1,0,64)'
PUBLIC	??_R0?AVVuEntity@@@8				; VuEntity `RTTI Type Descriptor'
PUBLIC	??_R3VuEntity@@8				; VuEntity::`RTTI Class Hierarchy Descriptor'
PUBLIC	??_R2VuEntity@@8				; VuEntity::`RTTI Base Class Array'
PUBLIC	??_R4InvalidBufferException@@6B@		; InvalidBufferException::`RTTI Complete Object Locator'
PUBLIC	??_R3InvalidBufferException@@8			; InvalidBufferException::`RTTI Class Hierarchy Descriptor'
PUBLIC	??_R2InvalidBufferException@@8			; InvalidBufferException::`RTTI Base Class Array'
PUBLIC	??_R1A@?0A@EA@InvalidBufferException@@8		; InvalidBufferException::`RTTI Base Class Descriptor at (0,-1,0,64)'
PUBLIC	??_R4error_category@std@@6B@			; std::error_category::`RTTI Complete Object Locator'
PUBLIC	??_R0?AVerror_category@std@@@8			; std::error_category `RTTI Type Descriptor'
PUBLIC	??_R3error_category@std@@8			; std::error_category::`RTTI Class Hierarchy Descriptor'
PUBLIC	??_R2error_category@std@@8			; std::error_category::`RTTI Base Class Array'
PUBLIC	??_R1A@?0A@EA@error_category@std@@8		; std::error_category::`RTTI Base Class Descriptor at (0,-1,0,64)'
PUBLIC	??_R4_Generic_error_category@std@@6B@		; std::_Generic_error_category::`RTTI Complete Object Locator'
PUBLIC	??_R0?AV_Generic_error_category@std@@@8		; std::_Generic_error_category `RTTI Type Descriptor'
PUBLIC	??_R3_Generic_error_category@std@@8		; std::_Generic_error_category::`RTTI Class Hierarchy Descriptor'
PUBLIC	??_R2_Generic_error_category@std@@8		; std::_Generic_error_category::`RTTI Base Class Array'
PUBLIC	??_R1A@?0A@EA@_Generic_error_category@std@@8	; std::_Generic_error_category::`RTTI Base Class Descriptor at (0,-1,0,64)'
PUBLIC	??_R4_Iostream_error_category@std@@6B@		; std::_Iostream_error_category::`RTTI Complete Object Locator'
PUBLIC	??_R0?AV_Iostream_error_category@std@@@8	; std::_Iostream_error_category `RTTI Type Descriptor'
PUBLIC	??_R3_Iostream_error_category@std@@8		; std::_Iostream_error_category::`RTTI Class Hierarchy Descriptor'
PUBLIC	??_R2_Iostream_error_category@std@@8		; std::_Iostream_error_category::`RTTI Base Class Array'
PUBLIC	??_R1A@?0A@EA@_Iostream_error_category@std@@8	; std::_Iostream_error_category::`RTTI Base Class Descriptor at (0,-1,0,64)'
PUBLIC	??_R4_System_error_category@std@@6B@		; std::_System_error_category::`RTTI Complete Object Locator'
PUBLIC	??_R0?AV_System_error_category@std@@@8		; std::_System_error_category `RTTI Type Descriptor'
PUBLIC	??_R3_System_error_category@std@@8		; std::_System_error_category::`RTTI Class Hierarchy Descriptor'
PUBLIC	??_R2_System_error_category@std@@8		; std::_System_error_category::`RTTI Base Class Array'
PUBLIC	??_R1A@?0A@EA@_System_error_category@std@@8	; std::_System_error_category::`RTTI Base Class Descriptor at (0,-1,0,64)'
PUBLIC	__real@3c23d70a
PUBLIC	__real@3f800000
PUBLIC	__real@3fe0000000000000
EXTRN	__purecall:PROC
EXTRN	??2@YAPAXI@Z:PROC				; operator new
EXTRN	??3@YAXPAX@Z:PROC				; operator delete
EXTRN	_atexit:PROC
EXTRN	_exp:PROC
EXTRN	_fabs:PROC
EXTRN	_log:PROC
EXTRN	_memcpy:PROC
EXTRN	_memset:PROC
EXTRN	_strcpy:PROC
EXTRN	_strcmp:PROC
EXTRN	_strlen:PROC
EXTRN	_memmove:PROC
EXTRN	__imp__GetTickCount@0:PROC
EXTRN	_sprintf:PROC
EXTRN	?VuReferenceEntity@@YAHPAVVuEntity@@@Z:PROC	; VuReferenceEntity
EXTRN	?VuDeReferenceEntity@@YAHPAVVuEntity@@@Z:PROC	; VuDeReferenceEntity
EXTRN	?SetEntityType@VuEntity@@QAEXG@Z:PROC		; VuEntity::SetEntityType
EXTRN	?IsLocal@VuEntity@@QBEEXZ:PROC			; VuEntity::IsLocal
EXTRN	?CustomCollisionCheck@VuEntity@@UAEEPAV1@M@Z:PROC ; VuEntity::CustomCollisionCheck
EXTRN	?TerrainCollisionCheck@VuEntity@@UAEEXZ:PROC	; VuEntity::TerrainCollisionCheck
EXTRN	?IsGroup@VuEntity@@UAEEXZ:PROC			; VuEntity::IsGroup
EXTRN	?IsGame@VuEntity@@UAEEXZ:PROC			; VuEntity::IsGame
EXTRN	?IsCamera@VuEntity@@UBEEXZ:PROC			; VuEntity::IsCamera
EXTRN	?Handle@VuEntity@@UAEHPAVVuErrorMessage@@@Z:PROC ; VuEntity::Handle
EXTRN	?Handle@VuEntity@@UAEHPAVVuPushRequest@@@Z:PROC	; VuEntity::Handle
EXTRN	?Handle@VuEntity@@UAEHPAVVuPullRequest@@@Z:PROC	; VuEntity::Handle
EXTRN	?Handle@VuEntity@@UAEHPAVVuPositionUpdateEvent@@@Z:PROC ; VuEntity::Handle
EXTRN	?Handle@VuEntity@@UAEHPAVVuEntityCollisionEvent@@@Z:PROC ; VuEntity::Handle
EXTRN	?Handle@VuEntity@@UAEHPAVVuTransferEvent@@@Z:PROC ; VuEntity::Handle
EXTRN	??0exception@std@@QAE@ABQBD@Z:PROC		; std::exception::exception
EXTRN	??0exception@std@@QAE@ABV01@@Z:PROC		; std::exception::exception
EXTRN	??1exception@std@@UAE@XZ:PROC			; std::exception::~exception
EXTRN	?what@exception@std@@UBEPBDXZ:PROC		; std::exception::what
EXTRN	??_V@YAXPAX@Z:PROC				; operator delete[]
EXTRN	??_U@YAPAXI@Z:PROC				; operator new[]
EXTRN	?_Xbad_alloc@std@@YAXXZ:PROC			; std::_Xbad_alloc
EXTRN	?_Xlength_error@std@@YAXPBD@Z:PROC		; std::_Xlength_error
EXTRN	?_Xout_of_range@std@@YAXPBD@Z:PROC		; std::_Xout_of_range
EXTRN	??_Elogic_error@std@@UAEPAXI@Z:PROC		; std::logic_error::`vector deleting destructor'
EXTRN	??_Eout_of_range@std@@UAEPAXI@Z:PROC		; std::out_of_range::`vector deleting destructor'
EXTRN	?Find@VuDatabase@@QBEPAVVuEntity@@VVU_ID@@@Z:PROC ; VuDatabase::Find
EXTRN	??0VuGetRequest@@QAE@VVU_ID@@PAVVuTargetEntity@@@Z:PROC ; VuGetRequest::VuGetRequest
EXTRN	??0VuFullUpdateEvent@@QAE@PAVVuEntity@@PAVVuTargetEntity@@E@Z:PROC ; VuFullUpdateEvent::VuFullUpdateEvent
EXTRN	?IsTarget@VuTargetEntity@@UAEEXZ:PROC		; VuTargetEntity::IsTarget
EXTRN	?SetDirty@VuTargetEntity@@QAEXXZ:PROC		; VuTargetEntity::SetDirty
EXTRN	?ClearDirty@VuTargetEntity@@QAEXXZ:PROC		; VuTargetEntity::ClearDirty
EXTRN	??0VuSessionEntity@@QAE@KPBD@Z:PROC		; VuSessionEntity::VuSessionEntity
EXTRN	??0VuSessionEntity@@QAE@PAPAEPAJ@Z:PROC		; VuSessionEntity::VuSessionEntity
EXTRN	??0VuSessionEntity@@QAE@PAU_iobuf@@@Z:PROC	; VuSessionEntity::VuSessionEntity
EXTRN	??1VuSessionEntity@@UAE@XZ:PROC			; VuSessionEntity::~VuSessionEntity
EXTRN	?SaveSize@VuSessionEntity@@UAEHXZ:PROC		; VuSessionEntity::SaveSize
EXTRN	?Save@VuSessionEntity@@UAEHPAPAE@Z:PROC		; VuSessionEntity::Save
EXTRN	?Game@VuSessionEntity@@QAEPAVVuGameEntity@@XZ:PROC ; VuSessionEntity::Game
EXTRN	?JoinGame@VuSessionEntity@@QAEHPAVVuGameEntity@@@Z:PROC ; VuSessionEntity::JoinGame
EXTRN	?IsSession@VuSessionEntity@@UAEEXZ:PROC		; VuSessionEntity::IsSession
EXTRN	?HasTarget@VuSessionEntity@@UAEEVVU_ID@@@Z:PROC	; VuSessionEntity::HasTarget
EXTRN	?InTarget@VuSessionEntity@@UAEEVVU_ID@@@Z:PROC	; VuSessionEntity::InTarget
EXTRN	?ForwardingTarget@VuSessionEntity@@UAEPAVVuTargetEntity@@PAVVuMessage@@@Z:PROC ; VuSessionEntity::ForwardingTarget
EXTRN	?GetCameraEntity@VuSessionEntity@@QBEPAVVuEntity@@E@Z:PROC ; VuSessionEntity::GetCameraEntity
EXTRN	?AttachCamera@VuSessionEntity@@QAEHPAVVuEntity@@_N@Z:PROC ; VuSessionEntity::AttachCamera
EXTRN	?ClearCameras@VuSessionEntity@@QAEX_N@Z:PROC	; VuSessionEntity::ClearCameras
EXTRN	?Handle@VuSessionEntity@@UAEHPAVVuEvent@@@Z:PROC ; VuSessionEntity::Handle
EXTRN	?Handle@VuSessionEntity@@UAEHPAVVuFullUpdateEvent@@@Z:PROC ; VuSessionEntity::Handle
EXTRN	?Handle@VuSessionEntity@@UAEHPAVVuSessionEvent@@@Z:PROC ; VuSessionEntity::Handle
EXTRN	?InsertionCallback@VuSessionEntity@@MAEHXZ:PROC	; VuSessionEntity::InsertionCallback
EXTRN	?RemovalCallback@VuSessionEntity@@MAEHXZ:PROC	; VuSessionEntity::RemovalCallback
EXTRN	?PostVuMessage@VuMessageQueue@@SAHPAVVuMessage@@@Z:PROC ; VuMessageQueue::PostVuMessage
EXTRN	?NameWRank@LogBookData@@QAEPADXZ:PROC		; LogBookData::NameWRank
EXTRN	?GetTeam@@YAEE@Z:PROC				; GetTeam
EXTRN	??_EFalconSessionEntity@@UAEPAXI@Z:PROC		; FalconSessionEntity::`vector deleting destructor'
EXTRN	_MonoPrint:PROC
EXTRN	?FalconSendMessage@@YAXPAVVuMessage@@H@Z:PROC	; FalconSendMessage
EXTRN	??_EInvalidBufferException@@UAEPAXI@Z:PROC	; InvalidBufferException::`vector deleting destructor'
EXTRN	_F4EnterCriticalSection:PROC
EXTRN	_F4LeaveCriticalSection:PROC
EXTRN	?ResyncTimes@@YAXXZ:PROC			; ResyncTimes
EXTRN	?Add@CommsQueue@@QAEXFVVU_ID@@0@Z:PROC		; CommsQueue::Add
EXTRN	?CheckPlayerStatus@GameManagerClass@@QAEHPAVFalconEntity@@@Z:PROC ; GameManagerClass::CheckPlayerStatus
EXTRN	??_Eerror_category@std@@UAEPAXI@Z:PROC		; std::error_category::`vector deleting destructor'
EXTRN	?_Syserror_map@std@@YAPBDH@Z:PROC		; std::_Syserror_map
EXTRN	?_Winerror_map@std@@YAPBDH@Z:PROC		; std::_Winerror_map
EXTRN	??_E_Generic_error_category@std@@UAEPAXI@Z:PROC	; std::_Generic_error_category::`vector deleting destructor'
EXTRN	??_E_Iostream_error_category@std@@UAEPAXI@Z:PROC ; std::_Iostream_error_category::`vector deleting destructor'
EXTRN	??_E_System_error_category@std@@UAEPAXI@Z:PROC	; std::_System_error_category::`vector deleting destructor'
EXTRN	?SetTimeCompression@@YAXH@Z:PROC		; SetTimeCompression
EXTRN	?SetLabel@@YAXPAVSimBaseClass@@@Z:PROC		; SetLabel
EXTRN	?CheckForNewPlayer@@YAXPAVFalconSessionEntity@@@Z:PROC ; CheckForNewPlayer
EXTRN	?UI_Refresh@@YAXXZ:PROC				; UI_Refresh
EXTRN	@__security_check_cookie@4:PROC
EXTRN	__CxxThrowException@8:PROC
EXTRN	___CxxFrameHandler3:PROC
EXTRN	?vuDatabase@@3PAVVuDatabase@@A:DWORD		; vuDatabase
EXTRN	?vuLocalSessionEntity@@3V?$VuBin@VVuSessionEntity@@@@A:DWORD ; vuLocalSessionEntity
EXTRN	?vuGlobalGroup@@3PAVVuGlobalGroup@@A:DWORD	; vuGlobalGroup
EXTRN	?vuNullId@@3VVU_ID@@A:QWORD			; vuNullId
EXTRN	?FalconNullId@@3VVU_ID@@A:QWORD			; FalconNullId
EXTRN	?LogBook@@3VLogBookData@@A:BYTE			; LogBook
EXTRN	??_7type_info@@6B@:QWORD			; type_info::`vftable'
EXTRN	?campCritical@@3PAUF4CSECTIONHANDLE@@A:DWORD	; campCritical
EXTRN	?gUICommsQ@@3PAVCommsQueue@@A:DWORD		; gUICommsQ
EXTRN	?GameManager@@3VGameManagerClass@@A:BYTE	; GameManager
EXTRN	?gCompressTillTime@@3KA:DWORD			; gCompressTillTime
EXTRN	?F4SessionType@@3HA:DWORD			; F4SessionType
EXTRN	?gGameType@@3HA:DWORD				; gGameType
EXTRN	___security_cookie:DWORD
EXTRN	__fltused:DWORD
_BSS	SEGMENT
_piecewise_construct DB 01H DUP (?)
_allocator_arg DB 01H DUP (?)
_BSS	ENDS
;	COMDAT ?_Generic_object@?$_Error_objects@H@std@@2V_Generic_error_category@2@A
_BSS	SEGMENT
?_Generic_object@?$_Error_objects@H@std@@2V_Generic_error_category@2@A DD 01H DUP (?) ; std::_Error_objects<int>::_Generic_object
_BSS	ENDS
;	COMDAT ?_Iostream_object@?$_Error_objects@H@std@@2V_Iostream_error_category@2@A
_BSS	SEGMENT
?_Iostream_object@?$_Error_objects@H@std@@2V_Iostream_error_category@2@A DD 01H DUP (?) ; std::_Error_objects<int>::_Iostream_object
_BSS	ENDS
;	COMDAT ?_System_object@?$_Error_objects@H@std@@2V_System_error_category@2@A
_BSS	SEGMENT
?_System_object@?$_Error_objects@H@std@@2V_System_error_category@2@A DD 01H DUP (?) ; std::_Error_objects<int>::_System_object
_BSS	ENDS
;	COMDAT ?id@?$num_put@DV?$back_insert_iterator@V?$basic_string@DU?$char_traits@D@std@@V?$allocator@D@2@@std@@@std@@@std@@2V0locale@2@A
_BSS	SEGMENT
?id@?$num_put@DV?$back_insert_iterator@V?$basic_string@DU?$char_traits@D@std@@V?$allocator@D@2@@std@@@std@@@std@@2V0locale@2@A DD 01H DUP (?) ; std::num_put<char,std::back_insert_iterator<std::basic_string<char,std::char_traits<char>,std::allocator<char> > > >::id
_BSS	ENDS
;	COMDAT ?id@?$num_put@_WV?$back_insert_iterator@V?$basic_string@_WU?$char_traits@_W@std@@V?$allocator@_W@2@@std@@@std@@@std@@2V0locale@2@A
_BSS	SEGMENT
?id@?$num_put@_WV?$back_insert_iterator@V?$basic_string@_WU?$char_traits@_W@std@@V?$allocator@_W@2@@std@@@std@@@std@@2V0locale@2@A DD 01H DUP (?) ; std::num_put<wchar_t,std::back_insert_iterator<std::basic_string<wchar_t,std::char_traits<wchar_t>,std::allocator<wchar_t> > > >::id
_BSS	ENDS
;	COMDAT ?now@?4??UpdatePlayer@FalconSessionEntity@@QAEXXZ@4HA
_BSS	SEGMENT
?now@?4??UpdatePlayer@FalconSessionEntity@@QAEXXZ@4HA DD 01H DUP (?) ; `FalconSessionEntity::UpdatePlayer'::`5'::now
_BSS	ENDS
;	COMDAT ?last_time@?4??UpdatePlayer@FalconSessionEntity@@QAEXXZ@4HA
_BSS	SEGMENT
?last_time@?4??UpdatePlayer@FalconSessionEntity@@QAEXXZ@4HA DD 01H DUP (?) ; `FalconSessionEntity::UpdatePlayer'::`5'::last_time
_BSS	ENDS
;	COMDAT ?id@?$numpunct@D@std@@2V0locale@2@A
_BSS	SEGMENT
?id@?$numpunct@D@std@@2V0locale@2@A DD 01H DUP (?)	; std::numpunct<char>::id
_BSS	ENDS
;	COMDAT ?id@?$numpunct@_W@std@@2V0locale@2@A
_BSS	SEGMENT
?id@?$numpunct@_W@std@@2V0locale@2@A DD 01H DUP (?)	; std::numpunct<wchar_t>::id
_BSS	ENDS
CRT$XCU	SEGMENT
_piecewise_construct$initializer$ DD FLAT:??__Epiecewise_construct@std@@YAXXZ
CRT$XCU	ENDS
;	COMDAT __real@3fe0000000000000
CONST	SEGMENT
__real@3fe0000000000000 DQ 03fe0000000000000r	; 0.5
CONST	ENDS
;	COMDAT __real@3f800000
CONST	SEGMENT
__real@3f800000 DD 03f800000r			; 1
CONST	ENDS
;	COMDAT __real@3c23d70a
CONST	SEGMENT
__real@3c23d70a DD 03c23d70ar			; 0.01
CONST	ENDS
;	COMDAT ??_R1A@?0A@EA@_System_error_category@std@@8
rdata$r	SEGMENT
??_R1A@?0A@EA@_System_error_category@std@@8 DD FLAT:??_R0?AV_System_error_category@std@@@8 ; std::_System_error_category::`RTTI Base Class Descriptor at (0,-1,0,64)'
	DD	02H
	DD	00H
	DD	0ffffffffH
	DD	00H
	DD	040H
	DD	FLAT:??_R3_System_error_category@std@@8
rdata$r	ENDS
;	COMDAT ??_R2_System_error_category@std@@8
rdata$r	SEGMENT
??_R2_System_error_category@std@@8 DD FLAT:??_R1A@?0A@EA@_System_error_category@std@@8 ; std::_System_error_category::`RTTI Base Class Array'
	DD	FLAT:??_R1A@?0A@EA@_Generic_error_category@std@@8
	DD	FLAT:??_R1A@?0A@EA@error_category@std@@8
rdata$r	ENDS
;	COMDAT ??_R3_System_error_category@std@@8
rdata$r	SEGMENT
??_R3_System_error_category@std@@8 DD 00H		; std::_System_error_category::`RTTI Class Hierarchy Descriptor'
	DD	00H
	DD	03H
	DD	FLAT:??_R2_System_error_category@std@@8
rdata$r	ENDS
;	COMDAT ??_R0?AV_System_error_category@std@@@8
_DATA	SEGMENT
??_R0?AV_System_error_category@std@@@8 DD FLAT:??_7type_info@@6B@ ; std::_System_error_category `RTTI Type Descriptor'
	DD	00H
	DB	'.?AV_System_error_category@std@@', 00H
_DATA	ENDS
;	COMDAT ??_R4_System_error_category@std@@6B@
rdata$r	SEGMENT
??_R4_System_error_category@std@@6B@ DD 00H		; std::_System_error_category::`RTTI Complete Object Locator'
	DD	00H
	DD	00H
	DD	FLAT:??_R0?AV_System_error_category@std@@@8
	DD	FLAT:??_R3_System_error_category@std@@8
rdata$r	ENDS
;	COMDAT ??_R1A@?0A@EA@_Iostream_error_category@std@@8
rdata$r	SEGMENT
??_R1A@?0A@EA@_Iostream_error_category@std@@8 DD FLAT:??_R0?AV_Iostream_error_category@std@@@8 ; std::_Iostream_error_category::`RTTI Base Class Descriptor at (0,-1,0,64)'
	DD	02H
	DD	00H
	DD	0ffffffffH
	DD	00H
	DD	040H
	DD	FLAT:??_R3_Iostream_error_category@std@@8
rdata$r	ENDS
;	COMDAT ??_R2_Iostream_error_category@std@@8
rdata$r	SEGMENT
??_R2_Iostream_error_category@std@@8 DD FLAT:??_R1A@?0A@EA@_Iostream_error_category@std@@8 ; std::_Iostream_error_category::`RTTI Base Class Array'
	DD	FLAT:??_R1A@?0A@EA@_Generic_error_category@std@@8
	DD	FLAT:??_R1A@?0A@EA@error_category@std@@8
rdata$r	ENDS
;	COMDAT ??_R3_Iostream_error_category@std@@8
rdata$r	SEGMENT
??_R3_Iostream_error_category@std@@8 DD 00H		; std::_Iostream_error_category::`RTTI Class Hierarchy Descriptor'
	DD	00H
	DD	03H
	DD	FLAT:??_R2_Iostream_error_category@std@@8
rdata$r	ENDS
;	COMDAT ??_R0?AV_Iostream_error_category@std@@@8
_DATA	SEGMENT
??_R0?AV_Iostream_error_category@std@@@8 DD FLAT:??_7type_info@@6B@ ; std::_Iostream_error_category `RTTI Type Descriptor'
	DD	00H
	DB	'.?AV_Iostream_error_category@std@@', 00H
_DATA	ENDS
;	COMDAT ??_R4_Iostream_error_category@std@@6B@
rdata$r	SEGMENT
??_R4_Iostream_error_category@std@@6B@ DD 00H		; std::_Iostream_error_category::`RTTI Complete Object Locator'
	DD	00H
	DD	00H
	DD	FLAT:??_R0?AV_Iostream_error_category@std@@@8
	DD	FLAT:??_R3_Iostream_error_category@std@@8
rdata$r	ENDS
;	COMDAT ??_R1A@?0A@EA@_Generic_error_category@std@@8
rdata$r	SEGMENT
??_R1A@?0A@EA@_Generic_error_category@std@@8 DD FLAT:??_R0?AV_Generic_error_category@std@@@8 ; std::_Generic_error_category::`RTTI Base Class Descriptor at (0,-1,0,64)'
	DD	01H
	DD	00H
	DD	0ffffffffH
	DD	00H
	DD	040H
	DD	FLAT:??_R3_Generic_error_category@std@@8
rdata$r	ENDS
;	COMDAT ??_R2_Generic_error_category@std@@8
rdata$r	SEGMENT
??_R2_Generic_error_category@std@@8 DD FLAT:??_R1A@?0A@EA@_Generic_error_category@std@@8 ; std::_Generic_error_category::`RTTI Base Class Array'
	DD	FLAT:??_R1A@?0A@EA@error_category@std@@8
rdata$r	ENDS
;	COMDAT ??_R3_Generic_error_category@std@@8
rdata$r	SEGMENT
??_R3_Generic_error_category@std@@8 DD 00H		; std::_Generic_error_category::`RTTI Class Hierarchy Descriptor'
	DD	00H
	DD	02H
	DD	FLAT:??_R2_Generic_error_category@std@@8
rdata$r	ENDS
;	COMDAT ??_R0?AV_Generic_error_category@std@@@8
_DATA	SEGMENT
??_R0?AV_Generic_error_category@std@@@8 DD FLAT:??_7type_info@@6B@ ; std::_Generic_error_category `RTTI Type Descriptor'
	DD	00H
	DB	'.?AV_Generic_error_category@std@@', 00H
_DATA	ENDS
;	COMDAT ??_R4_Generic_error_category@std@@6B@
rdata$r	SEGMENT
??_R4_Generic_error_category@std@@6B@ DD 00H		; std::_Generic_error_category::`RTTI Complete Object Locator'
	DD	00H
	DD	00H
	DD	FLAT:??_R0?AV_Generic_error_category@std@@@8
	DD	FLAT:??_R3_Generic_error_category@std@@8
rdata$r	ENDS
;	COMDAT ??_R1A@?0A@EA@error_category@std@@8
rdata$r	SEGMENT
??_R1A@?0A@EA@error_category@std@@8 DD FLAT:??_R0?AVerror_category@std@@@8 ; std::error_category::`RTTI Base Class Descriptor at (0,-1,0,64)'
	DD	00H
	DD	00H
	DD	0ffffffffH
	DD	00H
	DD	040H
	DD	FLAT:??_R3error_category@std@@8
rdata$r	ENDS
;	COMDAT ??_R2error_category@std@@8
rdata$r	SEGMENT
??_R2error_category@std@@8 DD FLAT:??_R1A@?0A@EA@error_category@std@@8 ; std::error_category::`RTTI Base Class Array'
rdata$r	ENDS
;	COMDAT ??_R3error_category@std@@8
rdata$r	SEGMENT
??_R3error_category@std@@8 DD 00H			; std::error_category::`RTTI Class Hierarchy Descriptor'
	DD	00H
	DD	01H
	DD	FLAT:??_R2error_category@std@@8
rdata$r	ENDS
;	COMDAT ??_R0?AVerror_category@std@@@8
_DATA	SEGMENT
??_R0?AVerror_category@std@@@8 DD FLAT:??_7type_info@@6B@ ; std::error_category `RTTI Type Descriptor'
	DD	00H
	DB	'.?AVerror_category@std@@', 00H
_DATA	ENDS
;	COMDAT ??_R4error_category@std@@6B@
rdata$r	SEGMENT
??_R4error_category@std@@6B@ DD 00H			; std::error_category::`RTTI Complete Object Locator'
	DD	00H
	DD	00H
	DD	FLAT:??_R0?AVerror_category@std@@@8
	DD	FLAT:??_R3error_category@std@@8
rdata$r	ENDS
;	COMDAT ??_R1A@?0A@EA@InvalidBufferException@@8
rdata$r	SEGMENT
??_R1A@?0A@EA@InvalidBufferException@@8 DD FLAT:??_R0?AVInvalidBufferException@@@8 ; InvalidBufferException::`RTTI Base Class Descriptor at (0,-1,0,64)'
	DD	03H
	DD	00H
	DD	0ffffffffH
	DD	00H
	DD	040H
	DD	FLAT:??_R3InvalidBufferException@@8
rdata$r	ENDS
;	COMDAT ??_R2InvalidBufferException@@8
rdata$r	SEGMENT
??_R2InvalidBufferException@@8 DD FLAT:??_R1A@?0A@EA@InvalidBufferException@@8 ; InvalidBufferException::`RTTI Base Class Array'
	DD	FLAT:??_R1A@?0A@EA@out_of_range@std@@8
	DD	FLAT:??_R1A@?0A@EA@logic_error@std@@8
	DD	FLAT:??_R1A@?0A@EA@exception@std@@8
rdata$r	ENDS
;	COMDAT ??_R3InvalidBufferException@@8
rdata$r	SEGMENT
??_R3InvalidBufferException@@8 DD 00H			; InvalidBufferException::`RTTI Class Hierarchy Descriptor'
	DD	00H
	DD	04H
	DD	FLAT:??_R2InvalidBufferException@@8
rdata$r	ENDS
;	COMDAT ??_R4InvalidBufferException@@6B@
rdata$r	SEGMENT
??_R4InvalidBufferException@@6B@ DD 00H			; InvalidBufferException::`RTTI Complete Object Locator'
	DD	00H
	DD	00H
	DD	FLAT:??_R0?AVInvalidBufferException@@@8
	DD	FLAT:??_R3InvalidBufferException@@8
rdata$r	ENDS
;	COMDAT ??_R2VuEntity@@8
rdata$r	SEGMENT
??_R2VuEntity@@8 DD FLAT:??_R1A@?0A@EA@VuEntity@@8	; VuEntity::`RTTI Base Class Array'
rdata$r	ENDS
;	COMDAT ??_R3VuEntity@@8
rdata$r	SEGMENT
??_R3VuEntity@@8 DD 00H					; VuEntity::`RTTI Class Hierarchy Descriptor'
	DD	00H
	DD	01H
	DD	FLAT:??_R2VuEntity@@8
rdata$r	ENDS
;	COMDAT ??_R0?AVVuEntity@@@8
_DATA	SEGMENT
??_R0?AVVuEntity@@@8 DD FLAT:??_7type_info@@6B@		; VuEntity `RTTI Type Descriptor'
	DD	00H
	DB	'.?AVVuEntity@@', 00H
_DATA	ENDS
;	COMDAT ??_R1A@?0A@EA@VuEntity@@8
rdata$r	SEGMENT
??_R1A@?0A@EA@VuEntity@@8 DD FLAT:??_R0?AVVuEntity@@@8	; VuEntity::`RTTI Base Class Descriptor at (0,-1,0,64)'
	DD	00H
	DD	00H
	DD	0ffffffffH
	DD	00H
	DD	040H
	DD	FLAT:??_R3VuEntity@@8
rdata$r	ENDS
;	COMDAT ??_R2VuTargetEntity@@8
rdata$r	SEGMENT
??_R2VuTargetEntity@@8 DD FLAT:??_R1A@?0A@EA@VuTargetEntity@@8 ; VuTargetEntity::`RTTI Base Class Array'
	DD	FLAT:??_R1A@?0A@EA@VuEntity@@8
rdata$r	ENDS
;	COMDAT ??_R3VuTargetEntity@@8
rdata$r	SEGMENT
??_R3VuTargetEntity@@8 DD 00H				; VuTargetEntity::`RTTI Class Hierarchy Descriptor'
	DD	00H
	DD	02H
	DD	FLAT:??_R2VuTargetEntity@@8
rdata$r	ENDS
;	COMDAT ??_R0?AVVuTargetEntity@@@8
_DATA	SEGMENT
??_R0?AVVuTargetEntity@@@8 DD FLAT:??_7type_info@@6B@	; VuTargetEntity `RTTI Type Descriptor'
	DD	00H
	DB	'.?AVVuTargetEntity@@', 00H
_DATA	ENDS
;	COMDAT ??_R1A@?0A@EA@VuTargetEntity@@8
rdata$r	SEGMENT
??_R1A@?0A@EA@VuTargetEntity@@8 DD FLAT:??_R0?AVVuTargetEntity@@@8 ; VuTargetEntity::`RTTI Base Class Descriptor at (0,-1,0,64)'
	DD	01H
	DD	00H
	DD	0ffffffffH
	DD	00H
	DD	040H
	DD	FLAT:??_R3VuTargetEntity@@8
rdata$r	ENDS
;	COMDAT ??_R2VuSessionEntity@@8
rdata$r	SEGMENT
??_R2VuSessionEntity@@8 DD FLAT:??_R1A@?0A@EA@VuSessionEntity@@8 ; VuSessionEntity::`RTTI Base Class Array'
	DD	FLAT:??_R1A@?0A@EA@VuTargetEntity@@8
	DD	FLAT:??_R1A@?0A@EA@VuEntity@@8
rdata$r	ENDS
;	COMDAT ??_R3VuSessionEntity@@8
rdata$r	SEGMENT
??_R3VuSessionEntity@@8 DD 00H				; VuSessionEntity::`RTTI Class Hierarchy Descriptor'
	DD	00H
	DD	03H
	DD	FLAT:??_R2VuSessionEntity@@8
rdata$r	ENDS
;	COMDAT ??_R0?AVVuSessionEntity@@@8
_DATA	SEGMENT
??_R0?AVVuSessionEntity@@@8 DD FLAT:??_7type_info@@6B@	; VuSessionEntity `RTTI Type Descriptor'
	DD	00H
	DB	'.?AVVuSessionEntity@@', 00H
_DATA	ENDS
;	COMDAT ??_R1A@?0A@EA@VuSessionEntity@@8
rdata$r	SEGMENT
??_R1A@?0A@EA@VuSessionEntity@@8 DD FLAT:??_R0?AVVuSessionEntity@@@8 ; VuSessionEntity::`RTTI Base Class Descriptor at (0,-1,0,64)'
	DD	02H
	DD	00H
	DD	0ffffffffH
	DD	00H
	DD	040H
	DD	FLAT:??_R3VuSessionEntity@@8
rdata$r	ENDS
;	COMDAT ??_R1A@?0A@EA@FalconSessionEntity@@8
rdata$r	SEGMENT
??_R1A@?0A@EA@FalconSessionEntity@@8 DD FLAT:??_R0?AVFalconSessionEntity@@@8 ; FalconSessionEntity::`RTTI Base Class Descriptor at (0,-1,0,64)'
	DD	03H
	DD	00H
	DD	0ffffffffH
	DD	00H
	DD	040H
	DD	FLAT:??_R3FalconSessionEntity@@8
rdata$r	ENDS
;	COMDAT ??_R2FalconSessionEntity@@8
rdata$r	SEGMENT
??_R2FalconSessionEntity@@8 DD FLAT:??_R1A@?0A@EA@FalconSessionEntity@@8 ; FalconSessionEntity::`RTTI Base Class Array'
	DD	FLAT:??_R1A@?0A@EA@VuSessionEntity@@8
	DD	FLAT:??_R1A@?0A@EA@VuTargetEntity@@8
	DD	FLAT:??_R1A@?0A@EA@VuEntity@@8
rdata$r	ENDS
;	COMDAT ??_R3FalconSessionEntity@@8
rdata$r	SEGMENT
??_R3FalconSessionEntity@@8 DD 00H			; FalconSessionEntity::`RTTI Class Hierarchy Descriptor'
	DD	00H
	DD	04H
	DD	FLAT:??_R2FalconSessionEntity@@8
rdata$r	ENDS
;	COMDAT ??_R0?AVFalconSessionEntity@@@8
_DATA	SEGMENT
??_R0?AVFalconSessionEntity@@@8 DD FLAT:??_7type_info@@6B@ ; FalconSessionEntity `RTTI Type Descriptor'
	DD	00H
	DB	'.?AVFalconSessionEntity@@', 00H
_DATA	ENDS
;	COMDAT ??_R4FalconSessionEntity@@6B@
rdata$r	SEGMENT
??_R4FalconSessionEntity@@6B@ DD 00H			; FalconSessionEntity::`RTTI Complete Object Locator'
	DD	00H
	DD	00H
	DD	FLAT:??_R0?AVFalconSessionEntity@@@8
	DD	FLAT:??_R3FalconSessionEntity@@8
rdata$r	ENDS
;	COMDAT ??_R1A@?0A@EA@out_of_range@std@@8
rdata$r	SEGMENT
??_R1A@?0A@EA@out_of_range@std@@8 DD FLAT:??_R0?AVout_of_range@std@@@8 ; std::out_of_range::`RTTI Base Class Descriptor at (0,-1,0,64)'
	DD	02H
	DD	00H
	DD	0ffffffffH
	DD	00H
	DD	040H
	DD	FLAT:??_R3out_of_range@std@@8
rdata$r	ENDS
;	COMDAT ??_R2out_of_range@std@@8
rdata$r	SEGMENT
??_R2out_of_range@std@@8 DD FLAT:??_R1A@?0A@EA@out_of_range@std@@8 ; std::out_of_range::`RTTI Base Class Array'
	DD	FLAT:??_R1A@?0A@EA@logic_error@std@@8
	DD	FLAT:??_R1A@?0A@EA@exception@std@@8
rdata$r	ENDS
;	COMDAT ??_R3out_of_range@std@@8
rdata$r	SEGMENT
??_R3out_of_range@std@@8 DD 00H				; std::out_of_range::`RTTI Class Hierarchy Descriptor'
	DD	00H
	DD	03H
	DD	FLAT:??_R2out_of_range@std@@8
rdata$r	ENDS
;	COMDAT ??_R4out_of_range@std@@6B@
rdata$r	SEGMENT
??_R4out_of_range@std@@6B@ DD 00H			; std::out_of_range::`RTTI Complete Object Locator'
	DD	00H
	DD	00H
	DD	FLAT:??_R0?AVout_of_range@std@@@8
	DD	FLAT:??_R3out_of_range@std@@8
rdata$r	ENDS
;	COMDAT ??_R1A@?0A@EA@logic_error@std@@8
rdata$r	SEGMENT
??_R1A@?0A@EA@logic_error@std@@8 DD FLAT:??_R0?AVlogic_error@std@@@8 ; std::logic_error::`RTTI Base Class Descriptor at (0,-1,0,64)'
	DD	01H
	DD	00H
	DD	0ffffffffH
	DD	00H
	DD	040H
	DD	FLAT:??_R3logic_error@std@@8
rdata$r	ENDS
;	COMDAT ??_R2logic_error@std@@8
rdata$r	SEGMENT
??_R2logic_error@std@@8 DD FLAT:??_R1A@?0A@EA@logic_error@std@@8 ; std::logic_error::`RTTI Base Class Array'
	DD	FLAT:??_R1A@?0A@EA@exception@std@@8
rdata$r	ENDS
;	COMDAT ??_R3logic_error@std@@8
rdata$r	SEGMENT
??_R3logic_error@std@@8 DD 00H				; std::logic_error::`RTTI Class Hierarchy Descriptor'
	DD	00H
	DD	02H
	DD	FLAT:??_R2logic_error@std@@8
rdata$r	ENDS
;	COMDAT ??_R4logic_error@std@@6B@
rdata$r	SEGMENT
??_R4logic_error@std@@6B@ DD 00H			; std::logic_error::`RTTI Complete Object Locator'
	DD	00H
	DD	00H
	DD	FLAT:??_R0?AVlogic_error@std@@@8
	DD	FLAT:??_R3logic_error@std@@8
rdata$r	ENDS
;	COMDAT ??_R2exception@std@@8
rdata$r	SEGMENT
??_R2exception@std@@8 DD FLAT:??_R1A@?0A@EA@exception@std@@8 ; std::exception::`RTTI Base Class Array'
rdata$r	ENDS
;	COMDAT ??_R3exception@std@@8
rdata$r	SEGMENT
??_R3exception@std@@8 DD 00H				; std::exception::`RTTI Class Hierarchy Descriptor'
	DD	00H
	DD	01H
	DD	FLAT:??_R2exception@std@@8
rdata$r	ENDS
;	COMDAT ??_R1A@?0A@EA@exception@std@@8
rdata$r	SEGMENT
??_R1A@?0A@EA@exception@std@@8 DD FLAT:??_R0?AVexception@std@@@8 ; std::exception::`RTTI Base Class Descriptor at (0,-1,0,64)'
	DD	00H
	DD	00H
	DD	0ffffffffH
	DD	00H
	DD	040H
	DD	FLAT:??_R3exception@std@@8
rdata$r	ENDS
;	COMDAT ??_C@_0BB@MOGOBHAF@list?$DMT?$DO?5too?5long?$AA@
CONST	SEGMENT
??_C@_0BB@MOGOBHAF@list?$DMT?$DO?5too?5long?$AA@ DB 'list<T> too long', 00H ; `string'
CONST	ENDS
;	COMDAT ??_C@_0BA@JFNIOLAK@string?5too?5long?$AA@
CONST	SEGMENT
??_C@_0BA@JFNIOLAK@string?5too?5long?$AA@ DB 'string too long', 00H ; `string'
CONST	ENDS
;	COMDAT ??_C@_0BI@CFPLBAOH@invalid?5string?5position?$AA@
CONST	SEGMENT
??_C@_0BI@CFPLBAOH@invalid?5string?5position?$AA@ DB 'invalid string posi'
	DB	'tion', 00H					; `string'
CONST	ENDS
;	COMDAT ??_C@_0CA@NCOMDAPC@Flight?5is?5not?5found?5?3?5?$CF08x?$CF08x?6?$AA@
CONST	SEGMENT
??_C@_0CA@NCOMDAPC@Flight?5is?5not?5found?5?3?5?$CF08x?$CF08x?6?$AA@ DB 'F'
	DB	'light is not found : %08x%08x', 0aH, 00H	; `string'
CONST	ENDS
;	COMDAT ??_C@_0CM@MMKBEKHO@Invalid?5Session?5Info?5?$CFd?3?$CFd?5?$CFd?3?$CFd@
CONST	SEGMENT
??_C@_0CM@MMKBEKHO@Invalid?5Session?5Info?5?$CFd?3?$CFd?5?$CFd?3?$CFd@ DB 'I'
	DB	'nvalid Session Info %d:%d %d:%d %08x:%08x', 0aH, 00H ; `string'
CONST	ENDS
;	COMDAT ??_C@_0DG@OLKGBOGL@FalconSessionEntity?3?5This?5functi@
CONST	SEGMENT
??_C@_0DG@OLKGBOGL@FalconSessionEntity?3?5This?5functi@ DB 'FalconSession'
	DB	'Entity: This function is not supported!', 0aH, 00H ; `string'
CONST	ENDS
;	COMDAT ??_C@_06FHFOAHML@system?$AA@
CONST	SEGMENT
??_C@_06FHFOAHML@system?$AA@ DB 'system', 00H		; `string'
CONST	ENDS
;	COMDAT ??_7_System_error_category@std@@6B@
CONST	SEGMENT
??_7_System_error_category@std@@6B@ DD FLAT:??_R4_System_error_category@std@@6B@ ; std::_System_error_category::`vftable'
	DD	FLAT:??_E_System_error_category@std@@UAEPAXI@Z
	DD	FLAT:?name@_System_error_category@std@@UBEPBDXZ
	DD	FLAT:?message@_System_error_category@std@@UBE?AV?$basic_string@DU?$char_traits@D@std@@V?$allocator@D@2@@2@H@Z
	DD	FLAT:?default_error_condition@_System_error_category@std@@UBE?AVerror_condition@2@H@Z
	DD	FLAT:?equivalent@error_category@std@@UBE_NABVerror_code@2@H@Z
	DD	FLAT:?equivalent@error_category@std@@UBE_NHABVerror_condition@2@@Z
CONST	ENDS
;	COMDAT ??_C@_0BG@PADBLCHM@iostream?5stream?5error?$AA@
CONST	SEGMENT
??_C@_0BG@PADBLCHM@iostream?5stream?5error?$AA@ DB 'iostream stream error'
	DB	00H						; `string'
CONST	ENDS
;	COMDAT ??_C@_08LLGCOLLL@iostream?$AA@
CONST	SEGMENT
??_C@_08LLGCOLLL@iostream?$AA@ DB 'iostream', 00H	; `string'
CONST	ENDS
;	COMDAT ??_7_Iostream_error_category@std@@6B@
CONST	SEGMENT
??_7_Iostream_error_category@std@@6B@ DD FLAT:??_R4_Iostream_error_category@std@@6B@ ; std::_Iostream_error_category::`vftable'
	DD	FLAT:??_E_Iostream_error_category@std@@UAEPAXI@Z
	DD	FLAT:?name@_Iostream_error_category@std@@UBEPBDXZ
	DD	FLAT:?message@_Iostream_error_category@std@@UBE?AV?$basic_string@DU?$char_traits@D@std@@V?$allocator@D@2@@2@H@Z
	DD	FLAT:?default_error_condition@error_category@std@@UBE?AVerror_condition@2@H@Z
	DD	FLAT:?equivalent@error_category@std@@UBE_NABVerror_code@2@H@Z
	DD	FLAT:?equivalent@error_category@std@@UBE_NHABVerror_condition@2@@Z
CONST	ENDS
;	COMDAT ??_C@_0O@BFJCFAAK@unknown?5error?$AA@
CONST	SEGMENT
??_C@_0O@BFJCFAAK@unknown?5error?$AA@ DB 'unknown error', 00H ; `string'
CONST	ENDS
;	COMDAT ??_C@_07DCLBNMLN@generic?$AA@
CONST	SEGMENT
??_C@_07DCLBNMLN@generic?$AA@ DB 'generic', 00H		; `string'
CONST	ENDS
;	COMDAT ??_7_Generic_error_category@std@@6B@
CONST	SEGMENT
??_7_Generic_error_category@std@@6B@ DD FLAT:??_R4_Generic_error_category@std@@6B@ ; std::_Generic_error_category::`vftable'
	DD	FLAT:??_E_Generic_error_category@std@@UAEPAXI@Z
	DD	FLAT:?name@_Generic_error_category@std@@UBEPBDXZ
	DD	FLAT:?message@_Generic_error_category@std@@UBE?AV?$basic_string@DU?$char_traits@D@std@@V?$allocator@D@2@@2@H@Z
	DD	FLAT:?default_error_condition@error_category@std@@UBE?AVerror_condition@2@H@Z
	DD	FLAT:?equivalent@error_category@std@@UBE_NABVerror_code@2@H@Z
	DD	FLAT:?equivalent@error_category@std@@UBE_NHABVerror_condition@2@@Z
CONST	ENDS
;	COMDAT ??_7error_category@std@@6B@
CONST	SEGMENT
??_7error_category@std@@6B@ DD FLAT:??_R4error_category@std@@6B@ ; std::error_category::`vftable'
	DD	FLAT:??_Eerror_category@std@@UAEPAXI@Z
	DD	FLAT:__purecall
	DD	FLAT:__purecall
	DD	FLAT:?default_error_condition@error_category@std@@UBE?AVerror_condition@2@H@Z
	DD	FLAT:?equivalent@error_category@std@@UBE_NABVerror_code@2@H@Z
	DD	FLAT:?equivalent@error_category@std@@UBE_NHABVerror_condition@2@@Z
CONST	ENDS
;	COMDAT __CT??_R0?AVexception@std@@@8??0exception@std@@QAE@ABV01@@Z12
xdata$x	SEGMENT
__CT??_R0?AVexception@std@@@8??0exception@std@@QAE@ABV01@@Z12 DD 00H
	DD	FLAT:??_R0?AVexception@std@@@8
	DD	00H
	DD	0ffffffffH
	ORG $+4
	DD	0cH
	DD	FLAT:??0exception@std@@QAE@ABV01@@Z
xdata$x	ENDS
;	COMDAT ??_R0?AVexception@std@@@8
_DATA	SEGMENT
??_R0?AVexception@std@@@8 DD FLAT:??_7type_info@@6B@	; std::exception `RTTI Type Descriptor'
	DD	00H
	DB	'.?AVexception@std@@', 00H
_DATA	ENDS
;	COMDAT __CT??_R0?AVlogic_error@std@@@8??0logic_error@std@@QAE@ABV01@@Z12
xdata$x	SEGMENT
__CT??_R0?AVlogic_error@std@@@8??0logic_error@std@@QAE@ABV01@@Z12 DD 00H
	DD	FLAT:??_R0?AVlogic_error@std@@@8
	DD	00H
	DD	0ffffffffH
	ORG $+4
	DD	0cH
	DD	FLAT:??0logic_error@std@@QAE@ABV01@@Z
xdata$x	ENDS
;	COMDAT ??_R0?AVlogic_error@std@@@8
_DATA	SEGMENT
??_R0?AVlogic_error@std@@@8 DD FLAT:??_7type_info@@6B@	; std::logic_error `RTTI Type Descriptor'
	DD	00H
	DB	'.?AVlogic_error@std@@', 00H
_DATA	ENDS
;	COMDAT __CT??_R0?AVout_of_range@std@@@8??0out_of_range@std@@QAE@ABV01@@Z12
xdata$x	SEGMENT
__CT??_R0?AVout_of_range@std@@@8??0out_of_range@std@@QAE@ABV01@@Z12 DD 00H
	DD	FLAT:??_R0?AVout_of_range@std@@@8
	DD	00H
	DD	0ffffffffH
	ORG $+4
	DD	0cH
	DD	FLAT:??0out_of_range@std@@QAE@ABV01@@Z
xdata$x	ENDS
;	COMDAT ??_R0?AVout_of_range@std@@@8
_DATA	SEGMENT
??_R0?AVout_of_range@std@@@8 DD FLAT:??_7type_info@@6B@	; std::out_of_range `RTTI Type Descriptor'
	DD	00H
	DB	'.?AVout_of_range@std@@', 00H
_DATA	ENDS
;	COMDAT __CT??_R0?AVInvalidBufferException@@@8??0InvalidBufferException@@QAE@ABV0@@Z12
xdata$x	SEGMENT
__CT??_R0?AVInvalidBufferException@@@8??0InvalidBufferException@@QAE@ABV0@@Z12 DD 00H
	DD	FLAT:??_R0?AVInvalidBufferException@@@8
	DD	00H
	DD	0ffffffffH
	ORG $+4
	DD	0cH
	DD	FLAT:??0InvalidBufferException@@QAE@ABV0@@Z
xdata$x	ENDS
;	COMDAT ??_R0?AVInvalidBufferException@@@8
_DATA	SEGMENT
??_R0?AVInvalidBufferException@@@8 DD FLAT:??_7type_info@@6B@ ; InvalidBufferException `RTTI Type Descriptor'
	DD	00H
	DB	'.?AVInvalidBufferException@@', 00H
_DATA	ENDS
;	COMDAT __CTA4?AVInvalidBufferException@@
xdata$x	SEGMENT
__CTA4?AVInvalidBufferException@@ DD 04H
	DD	FLAT:__CT??_R0?AVInvalidBufferException@@@8??0InvalidBufferException@@QAE@ABV0@@Z12
	DD	FLAT:__CT??_R0?AVout_of_range@std@@@8??0out_of_range@std@@QAE@ABV01@@Z12
	DD	FLAT:__CT??_R0?AVlogic_error@std@@@8??0logic_error@std@@QAE@ABV01@@Z12
	DD	FLAT:__CT??_R0?AVexception@std@@@8??0exception@std@@QAE@ABV01@@Z12
xdata$x	ENDS
;	COMDAT __TI4?AVInvalidBufferException@@
xdata$x	SEGMENT
__TI4?AVInvalidBufferException@@ DD 00H
	DD	FLAT:??1InvalidBufferException@@UAE@XZ
	DD	00H
	DD	FLAT:__CTA4?AVInvalidBufferException@@
xdata$x	ENDS
;	COMDAT ??_C@_0CI@MPKJAHJH@Trying?5to?5write?5?$CFlu?5bytes?5to?5?$CFld@
CONST	SEGMENT
??_C@_0CI@MPKJAHJH@Trying?5to?5write?5?$CFlu?5bytes?5to?5?$CFld@ DB 'Tryi'
	DB	'ng to write %lu bytes to %ld buffer', 00H	; `string'
CONST	ENDS
;	COMDAT ??_7InvalidBufferException@@6B@
CONST	SEGMENT
??_7InvalidBufferException@@6B@ DD FLAT:??_R4InvalidBufferException@@6B@ ; InvalidBufferException::`vftable'
	DD	FLAT:??_EInvalidBufferException@@UAEPAXI@Z
	DD	FLAT:?what@exception@std@@UBEPBDXZ
CONST	ENDS
;	COMDAT ??_7FalconSessionEntity@@6B@
CONST	SEGMENT
??_7FalconSessionEntity@@6B@ DD FLAT:??_R4FalconSessionEntity@@6B@ ; FalconSessionEntity::`vftable'
	DD	FLAT:?CustomCollisionCheck@VuEntity@@UAEEPAV1@M@Z
	DD	FLAT:?TerrainCollisionCheck@VuEntity@@UAEEXZ
	DD	FLAT:?IsTarget@VuTargetEntity@@UAEEXZ
	DD	FLAT:?IsSession@VuSessionEntity@@UAEEXZ
	DD	FLAT:?IsGroup@VuEntity@@UAEEXZ
	DD	FLAT:?IsGame@VuEntity@@UAEEXZ
	DD	FLAT:?IsCamera@VuEntity@@UBEEXZ
	DD	FLAT:?SaveSize@FalconSessionEntity@@UAEHXZ
	DD	FLAT:?Save@FalconSessionEntity@@UAEHPAU_iobuf@@@Z
	DD	FLAT:?Save@FalconSessionEntity@@UAEHPAPAE@Z
	DD	FLAT:?Handle@VuSessionEntity@@UAEHPAVVuSessionEvent@@@Z
	DD	FLAT:?Handle@VuEntity@@UAEHPAVVuTransferEvent@@@Z
	DD	FLAT:?Handle@VuEntity@@UAEHPAVVuEntityCollisionEvent@@@Z
	DD	FLAT:?Handle@VuEntity@@UAEHPAVVuPositionUpdateEvent@@@Z
	DD	FLAT:?Handle@FalconSessionEntity@@UAEHPAVVuFullUpdateEvent@@@Z
	DD	FLAT:?Handle@VuSessionEntity@@UAEHPAVVuEvent@@@Z
	DD	FLAT:?Handle@VuEntity@@UAEHPAVVuPullRequest@@@Z
	DD	FLAT:?Handle@VuEntity@@UAEHPAVVuPushRequest@@@Z
	DD	FLAT:?Handle@VuEntity@@UAEHPAVVuErrorMessage@@@Z
	DD	FLAT:??_EFalconSessionEntity@@UAEPAXI@Z
	DD	FLAT:?InsertionCallback@FalconSessionEntity@@UAEHXZ
	DD	FLAT:?RemovalCallback@VuSessionEntity@@MAEHXZ
	DD	FLAT:?HasTarget@VuSessionEntity@@UAEEVVU_ID@@@Z
	DD	FLAT:?InTarget@VuSessionEntity@@UAEEVVU_ID@@@Z
	DD	FLAT:?ForwardingTarget@VuSessionEntity@@UAEPAVVuTargetEntity@@PAVVuMessage@@@Z
CONST	ENDS
;	COMDAT ??_7out_of_range@std@@6B@
CONST	SEGMENT
??_7out_of_range@std@@6B@ DD FLAT:??_R4out_of_range@std@@6B@ ; std::out_of_range::`vftable'
	DD	FLAT:??_Eout_of_range@std@@UAEPAXI@Z
	DD	FLAT:?what@exception@std@@UBEPBDXZ
CONST	ENDS
;	COMDAT ??_7logic_error@std@@6B@
CONST	SEGMENT
??_7logic_error@std@@6B@ DD FLAT:??_R4logic_error@std@@6B@ ; std::logic_error::`vftable'
	DD	FLAT:??_Elogic_error@std@@UAEPAXI@Z
	DD	FLAT:?what@exception@std@@UBEPBDXZ
CONST	ENDS
;	COMDAT xdata$x
xdata$x	SEGMENT
__unwindtable$??$construct@V?$VuBin@VFalconEntity@@@@V1@@?$allocator@U?$_List_node@V?$VuBin@VFalconEntity@@@@PAX@std@@@std@@QAEXPAV?$VuBin@VFalconEntity@@@@$$QAV2@@Z DD 0ffffffffH
	DD	FLAT:__unwindfunclet$??$construct@V?$VuBin@VFalconEntity@@@@V1@@?$allocator@U?$_List_node@V?$VuBin@VFalconEntity@@@@PAX@std@@@std@@QAEXPAV?$VuBin@VFalconEntity@@@@$$QAV2@@Z$0
__ehfuncinfo$??$construct@V?$VuBin@VFalconEntity@@@@V1@@?$allocator@U?$_List_node@V?$VuBin@VFalconEntity@@@@PAX@std@@@std@@QAEXPAV?$VuBin@VFalconEntity@@@@$$QAV2@@Z DD 019930522H
	DD	01H
	DD	FLAT:__unwindtable$??$construct@V?$VuBin@VFalconEntity@@@@V1@@?$allocator@U?$_List_node@V?$VuBin@VFalconEntity@@@@PAX@std@@@std@@QAEXPAV?$VuBin@VFalconEntity@@@@$$QAV2@@Z
	DD	2 DUP(00H)
	DD	2 DUP(00H)
	DD	00H
	DD	01H
xdata$x	ENDS
;	COMDAT xdata$x
xdata$x	SEGMENT
__unwindtable$??$construct@PAU?$_List_node@V?$VuBin@VFalconEntity@@@@PAX@std@@AAPAU12@@?$allocator@U?$_List_node@V?$VuBin@VFalconEntity@@@@PAX@std@@@std@@QAEXPAPAU?$_List_node@V?$VuBin@VFalconEntity@@@@PAX@1@AAPAU21@@Z DD 0ffffffffH
	DD	FLAT:__unwindfunclet$??$construct@PAU?$_List_node@V?$VuBin@VFalconEntity@@@@PAX@std@@AAPAU12@@?$allocator@U?$_List_node@V?$VuBin@VFalconEntity@@@@PAX@std@@@std@@QAEXPAPAU?$_List_node@V?$VuBin@VFalconEntity@@@@PAX@1@AAPAU21@@Z$0
__ehfuncinfo$??$construct@PAU?$_List_node@V?$VuBin@VFalconEntity@@@@PAX@std@@AAPAU12@@?$allocator@U?$_List_node@V?$VuBin@VFalconEntity@@@@PAX@std@@@std@@QAEXPAPAU?$_List_node@V?$VuBin@VFalconEntity@@@@PAX@1@AAPAU21@@Z DD 019930522H
	DD	01H
	DD	FLAT:__unwindtable$??$construct@PAU?$_List_node@V?$VuBin@VFalconEntity@@@@PAX@std@@AAPAU12@@?$allocator@U?$_List_node@V?$VuBin@VFalconEntity@@@@PAX@std@@@std@@QAEXPAPAU?$_List_node@V?$VuBin@VFalconEntity@@@@PAX@1@AAPAU21@@Z
	DD	2 DUP(00H)
	DD	2 DUP(00H)
	DD	00H
	DD	01H
xdata$x	ENDS
;	COMDAT xdata$x
xdata$x	SEGMENT
__unwindtable$??$construct@PADAAPAD@?$allocator@D@std@@QAEXPAPADAAPAD@Z DD 0ffffffffH
	DD	FLAT:__unwindfunclet$??$construct@PADAAPAD@?$allocator@D@std@@QAEXPAPADAAPAD@Z$0
__ehfuncinfo$??$construct@PADAAPAD@?$allocator@D@std@@QAEXPAPADAAPAD@Z DD 019930522H
	DD	01H
	DD	FLAT:__unwindtable$??$construct@PADAAPAD@?$allocator@D@std@@QAEXPAPADAAPAD@Z
	DD	2 DUP(00H)
	DD	2 DUP(00H)
	DD	00H
	DD	01H
xdata$x	ENDS
;	COMDAT xdata$x
xdata$x	SEGMENT
__catchsym$??$_Buynode@V?$VuBin@VFalconEntity@@@@@?$_List_buy@V?$VuBin@VFalconEntity@@@@V?$allocator@V?$VuBin@VFalconEntity@@@@@std@@@std@@QAEPAU?$_List_node@V?$VuBin@VFalconEntity@@@@PAX@1@PAU21@0$$QAV?$VuBin@VFalconEntity@@@@@Z$2 DD 040H
	DD	00H
	DD	00H
	DD	FLAT:__catch$??$_Buynode@V?$VuBin@VFalconEntity@@@@@?$_List_buy@V?$VuBin@VFalconEntity@@@@V?$allocator@V?$VuBin@VFalconEntity@@@@@std@@@std@@QAEPAU?$_List_node@V?$VuBin@VFalconEntity@@@@PAX@1@PAU21@0$$QAV?$VuBin@VFalconEntity@@@@@Z$0
__unwindtable$??$_Buynode@V?$VuBin@VFalconEntity@@@@@?$_List_buy@V?$VuBin@VFalconEntity@@@@V?$allocator@V?$VuBin@VFalconEntity@@@@@std@@@std@@QAEPAU?$_List_node@V?$VuBin@VFalconEntity@@@@PAX@1@PAU21@0$$QAV?$VuBin@VFalconEntity@@@@@Z DD 0ffffffffH
	DD	00H
	DD	0ffffffffH
	DD	00H
__tryblocktable$??$_Buynode@V?$VuBin@VFalconEntity@@@@@?$_List_buy@V?$VuBin@VFalconEntity@@@@V?$allocator@V?$VuBin@VFalconEntity@@@@@std@@@std@@QAEPAU?$_List_node@V?$VuBin@VFalconEntity@@@@PAX@1@PAU21@0$$QAV?$VuBin@VFalconEntity@@@@@Z DD 00H
	DD	00H
	DD	01H
	DD	01H
	DD	FLAT:__catchsym$??$_Buynode@V?$VuBin@VFalconEntity@@@@@?$_List_buy@V?$VuBin@VFalconEntity@@@@V?$allocator@V?$VuBin@VFalconEntity@@@@@std@@@std@@QAEPAU?$_List_node@V?$VuBin@VFalconEntity@@@@PAX@1@PAU21@0$$QAV?$VuBin@VFalconEntity@@@@@Z$2
__ehfuncinfo$??$_Buynode@V?$VuBin@VFalconEntity@@@@@?$_List_buy@V?$VuBin@VFalconEntity@@@@V?$allocator@V?$VuBin@VFalconEntity@@@@@std@@@std@@QAEPAU?$_List_node@V?$VuBin@VFalconEntity@@@@PAX@1@PAU21@0$$QAV?$VuBin@VFalconEntity@@@@@Z DD 019930522H
	DD	02H
	DD	FLAT:__unwindtable$??$_Buynode@V?$VuBin@VFalconEntity@@@@@?$_List_buy@V?$VuBin@VFalconEntity@@@@V?$allocator@V?$VuBin@VFalconEntity@@@@@std@@@std@@QAEPAU?$_List_node@V?$VuBin@VFalconEntity@@@@PAX@1@PAU21@0$$QAV?$VuBin@VFalconEntity@@@@@Z
	DD	01H
	DD	FLAT:__tryblocktable$??$_Buynode@V?$VuBin@VFalconEntity@@@@@?$_List_buy@V?$VuBin@VFalconEntity@@@@V?$allocator@V?$VuBin@VFalconEntity@@@@@std@@@std@@QAEPAU?$_List_node@V?$VuBin@VFalconEntity@@@@PAX@1@PAU21@0$$QAV?$VuBin@VFalconEntity@@@@@Z
	DD	2 DUP(00H)
	DD	00H
	DD	01H
xdata$x	ENDS
;	COMDAT xdata$x
xdata$x	SEGMENT
__unwindtable$?memcpychk@@YAXPAXPAPAEIPAJ@Z DD 0ffffffffH
	DD	FLAT:__unwindfunclet$?memcpychk@@YAXPAXPAPAEIPAJ@Z$0
__ehfuncinfo$?memcpychk@@YAXPAXPAPAEIPAJ@Z DD 019930522H
	DD	01H
	DD	FLAT:__unwindtable$?memcpychk@@YAXPAXPAPAEIPAJ@Z
	DD	2 DUP(00H)
	DD	2 DUP(00H)
	DD	00H
	DD	01H
xdata$x	ENDS
xdata$x	SEGMENT
__unwindtable$?AddToFineInterest@FalconSessionEntity@@QAE_NPAVFalconEntity@@_N@Z DD 0ffffffffH
	DD	FLAT:__unwindfunclet$?AddToFineInterest@FalconSessionEntity@@QAE_NPAVFalconEntity@@_N@Z$0
__unwindtable$?UpdatePlayer@FalconSessionEntity@@QAEXXZ DD 0ffffffffH
	DD	FLAT:__unwindfunclet$?UpdatePlayer@FalconSessionEntity@@QAEXXZ$0
__unwindtable$?DoFullUpdate@FalconSessionEntity@@QAEXXZ DD 0ffffffffH
	DD	FLAT:__unwindfunclet$?DoFullUpdate@FalconSessionEntity@@QAEXXZ$0
__unwindtable$?Save@FalconSessionEntity@@UAEHPAPAE@Z DD 0ffffffffH
	DD	FLAT:__unwindfunclet$?Save@FalconSessionEntity@@UAEHPAPAE@Z$0
__unwindtable$??0FalconSessionEntity@@QAE@PAU_iobuf@@@Z DD 0ffffffffH
	DD	FLAT:__unwindfunclet$??0FalconSessionEntity@@QAE@PAU_iobuf@@@Z$0
	DD	00H
	DD	FLAT:__unwindfunclet$??0FalconSessionEntity@@QAE@PAU_iobuf@@@Z$1
	DD	01H
	DD	FLAT:__unwindfunclet$??0FalconSessionEntity@@QAE@PAU_iobuf@@@Z$2
	DD	02H
	DD	FLAT:__unwindfunclet$??0FalconSessionEntity@@QAE@PAU_iobuf@@@Z$3
__ehfuncinfo$?AddToFineInterest@FalconSessionEntity@@QAE_NPAVFalconEntity@@_N@Z DD 019930522H
	DD	01H
	DD	FLAT:__unwindtable$?AddToFineInterest@FalconSessionEntity@@QAE_NPAVFalconEntity@@_N@Z
	DD	2 DUP(00H)
	DD	2 DUP(00H)
	DD	00H
	DD	01H
__ehfuncinfo$?UpdatePlayer@FalconSessionEntity@@QAEXXZ DD 019930522H
	DD	01H
	DD	FLAT:__unwindtable$?UpdatePlayer@FalconSessionEntity@@QAEXXZ
	DD	2 DUP(00H)
	DD	2 DUP(00H)
	DD	00H
	DD	01H
__ehfuncinfo$?DoFullUpdate@FalconSessionEntity@@QAEXXZ DD 019930522H
	DD	01H
	DD	FLAT:__unwindtable$?DoFullUpdate@FalconSessionEntity@@QAEXXZ
	DD	2 DUP(00H)
	DD	2 DUP(00H)
	DD	00H
	DD	01H
__ehfuncinfo$?Save@FalconSessionEntity@@UAEHPAPAE@Z DD 019930522H
	DD	01H
	DD	FLAT:__unwindtable$?Save@FalconSessionEntity@@UAEHPAPAE@Z
	DD	2 DUP(00H)
	DD	2 DUP(00H)
	DD	00H
	DD	01H
__ehfuncinfo$??1FalconSessionEntity@@UAE@XZ DD 019930522H
	DD	05H
	DD	FLAT:__unwindtable$??1FalconSessionEntity@@UAE@XZ
	DD	2 DUP(00H)
	DD	2 DUP(00H)
	DD	00H
	DD	01H
__ehfuncinfo$??0FalconSessionEntity@@QAE@PAU_iobuf@@@Z DD 019930522H
	DD	04H
	DD	FLAT:__unwindtable$??0FalconSessionEntity@@QAE@PAU_iobuf@@@Z
	DD	2 DUP(00H)
	DD	2 DUP(00H)
	DD	00H
	DD	01H
__ehfuncinfo$??0FalconSessionEntity@@QAE@PAPAEPAJ@Z DD 019930522H
	DD	06H
	DD	FLAT:__unwindtable$??0FalconSessionEntity@@QAE@PAPAEPAJ@Z
	DD	2 DUP(00H)
	DD	2 DUP(00H)
	DD	00H
	DD	01H
__ehfuncinfo$??0FalconSessionEntity@@QAE@KPAD@Z DD 019930522H
	DD	05H
	DD	FLAT:__unwindtable$??0FalconSessionEntity@@QAE@KPAD@Z
	DD	2 DUP(00H)
	DD	2 DUP(00H)
	DD	00H
	DD	01H
__unwindtable$??1FalconSessionEntity@@UAE@XZ DD 0ffffffffH
	DD	FLAT:__unwindfunclet$??1FalconSessionEntity@@UAE@XZ$0
	DD	00H
	DD	FLAT:__unwindfunclet$??1FalconSessionEntity@@UAE@XZ$1
	DD	01H
	DD	FLAT:__unwindfunclet$??1FalconSessionEntity@@UAE@XZ$2
	DD	02H
	DD	FLAT:__unwindfunclet$??1FalconSessionEntity@@UAE@XZ$3
	DD	03H
	DD	FLAT:__unwindfunclet$??1FalconSessionEntity@@UAE@XZ$4
__unwindtable$??0FalconSessionEntity@@QAE@KPAD@Z DD 0ffffffffH
	DD	FLAT:__unwindfunclet$??0FalconSessionEntity@@QAE@KPAD@Z$0
	DD	00H
	DD	FLAT:__unwindfunclet$??0FalconSessionEntity@@QAE@KPAD@Z$1
	DD	01H
	DD	FLAT:__unwindfunclet$??0FalconSessionEntity@@QAE@KPAD@Z$2
	DD	02H
	DD	FLAT:__unwindfunclet$??0FalconSessionEntity@@QAE@KPAD@Z$3
	DD	03H
	DD	FLAT:__unwindfunclet$??0FalconSessionEntity@@QAE@KPAD@Z$4
__unwindtable$??0FalconSessionEntity@@QAE@PAPAEPAJ@Z DD 0ffffffffH
	DD	FLAT:__unwindfunclet$??0FalconSessionEntity@@QAE@PAPAEPAJ@Z$0
	DD	00H
	DD	FLAT:__unwindfunclet$??0FalconSessionEntity@@QAE@PAPAEPAJ@Z$1
	DD	01H
	DD	FLAT:__unwindfunclet$??0FalconSessionEntity@@QAE@PAPAEPAJ@Z$2
	DD	02H
	DD	FLAT:__unwindfunclet$??0FalconSessionEntity@@QAE@PAPAEPAJ@Z$3
	DD	03H
	DD	FLAT:__unwindfunclet$??0FalconSessionEntity@@QAE@PAPAEPAJ@Z$4
	DD	04H
	DD	FLAT:__unwindfunclet$??0FalconSessionEntity@@QAE@PAPAEPAJ@Z$5
xdata$x	ENDS
;	COMDAT xdata$x
xdata$x	SEGMENT
__catchsym$?_Buynode0@?$_List_alloc@$0A@U?$_List_base_types@V?$VuBin@VFalconEntity@@@@V?$allocator@V?$VuBin@VFalconEntity@@@@@std@@@std@@@std@@QAEPAU?$_List_node@V?$VuBin@VFalconEntity@@@@PAX@2@PAU32@0@Z$2 DD 040H
	DD	00H
	DD	00H
	DD	FLAT:__catch$?_Buynode0@?$_List_alloc@$0A@U?$_List_base_types@V?$VuBin@VFalconEntity@@@@V?$allocator@V?$VuBin@VFalconEntity@@@@@std@@@std@@@std@@QAEPAU?$_List_node@V?$VuBin@VFalconEntity@@@@PAX@2@PAU32@0@Z$0
__unwindtable$?_Buynode0@?$_List_alloc@$0A@U?$_List_base_types@V?$VuBin@VFalconEntity@@@@V?$allocator@V?$VuBin@VFalconEntity@@@@@std@@@std@@@std@@QAEPAU?$_List_node@V?$VuBin@VFalconEntity@@@@PAX@2@PAU32@0@Z DD 0ffffffffH
	DD	00H
	DD	0ffffffffH
	DD	00H
__tryblocktable$?_Buynode0@?$_List_alloc@$0A@U?$_List_base_types@V?$VuBin@VFalconEntity@@@@V?$allocator@V?$VuBin@VFalconEntity@@@@@std@@@std@@@std@@QAEPAU?$_List_node@V?$VuBin@VFalconEntity@@@@PAX@2@PAU32@0@Z DD 00H
	DD	00H
	DD	01H
	DD	01H
	DD	FLAT:__catchsym$?_Buynode0@?$_List_alloc@$0A@U?$_List_base_types@V?$VuBin@VFalconEntity@@@@V?$allocator@V?$VuBin@VFalconEntity@@@@@std@@@std@@@std@@QAEPAU?$_List_node@V?$VuBin@VFalconEntity@@@@PAX@2@PAU32@0@Z$2
__ehfuncinfo$?_Buynode0@?$_List_alloc@$0A@U?$_List_base_types@V?$VuBin@VFalconEntity@@@@V?$allocator@V?$VuBin@VFalconEntity@@@@@std@@@std@@@std@@QAEPAU?$_List_node@V?$VuBin@VFalconEntity@@@@PAX@2@PAU32@0@Z DD 019930522H
	DD	02H
	DD	FLAT:__unwindtable$?_Buynode0@?$_List_alloc@$0A@U?$_List_base_types@V?$VuBin@VFalconEntity@@@@V?$allocator@V?$VuBin@VFalconEntity@@@@@std@@@std@@@std@@QAEPAU?$_List_node@V?$VuBin@VFalconEntity@@@@PAX@2@PAU32@0@Z
	DD	01H
	DD	FLAT:__tryblocktable$?_Buynode0@?$_List_alloc@$0A@U?$_List_base_types@V?$VuBin@VFalconEntity@@@@V?$allocator@V?$VuBin@VFalconEntity@@@@@std@@@std@@@std@@QAEPAU?$_List_node@V?$VuBin@VFalconEntity@@@@PAX@2@PAU32@0@Z
	DD	2 DUP(00H)
	DD	00H
	DD	01H
xdata$x	ENDS
;	COMDAT xdata$x
xdata$x	SEGMENT
__catchsym$?_Copy@?$basic_string@DU?$char_traits@D@std@@V?$allocator@D@2@@std@@QAEXII@Z$5 DD 040H
	DD	00H
	DD	00H
	DD	FLAT:__catch$?_Copy@?$basic_string@DU?$char_traits@D@std@@V?$allocator@D@2@@std@@QAEXII@Z$0
__catchsym$?_Copy@?$basic_string@DU?$char_traits@D@std@@V?$allocator@D@2@@std@@QAEXII@Z$4 DD 040H
	DD	00H
	DD	00H
	DD	FLAT:__catch$?_Copy@?$basic_string@DU?$char_traits@D@std@@V?$allocator@D@2@@std@@QAEXII@Z$1
__unwindtable$?_Copy@?$basic_string@DU?$char_traits@D@std@@V?$allocator@D@2@@std@@QAEXII@Z DD 0ffffffffH
	DD	00H
	DD	0ffffffffH
	DD	00H
	DD	01H
	DD	00H
	DD	01H
	DD	00H
__ehfuncinfo$?_Copy@?$basic_string@DU?$char_traits@D@std@@V?$allocator@D@2@@std@@QAEXII@Z DD 019930522H
	DD	04H
	DD	FLAT:__unwindtable$?_Copy@?$basic_string@DU?$char_traits@D@std@@V?$allocator@D@2@@std@@QAEXII@Z
	DD	02H
	DD	FLAT:__tryblocktable$?_Copy@?$basic_string@DU?$char_traits@D@std@@V?$allocator@D@2@@std@@QAEXII@Z
	DD	2 DUP(00H)
	DD	00H
	DD	01H
__tryblocktable$?_Copy@?$basic_string@DU?$char_traits@D@std@@V?$allocator@D@2@@std@@QAEXII@Z DD 02H
	DD	02H
	DD	03H
	DD	01H
	DD	FLAT:__catchsym$?_Copy@?$basic_string@DU?$char_traits@D@std@@V?$allocator@D@2@@std@@QAEXII@Z$4
	DD	00H
	DD	00H
	DD	03H
	DD	01H
	DD	FLAT:__catchsym$?_Copy@?$basic_string@DU?$char_traits@D@std@@V?$allocator@D@2@@std@@QAEXII@Z$5
xdata$x	ENDS
CRT$XCU	SEGMENT
_allocator_arg$initializer$ DD FLAT:??__Eallocator_arg@std@@YAXXZ
CRT$XCU	ENDS
;	COMDAT CRT$XCU
CRT$XCU	SEGMENT
?_Generic_object$initializer$@?$_Error_objects@H@std@@2P6AXXZA DD FLAT:??__E?_Generic_object@?$_Error_objects@H@std@@2V_Generic_error_category@2@A@@YAXXZ ; std::_Error_objects<int>::_Generic_object$initializer$
CRT$XCU	ENDS
;	COMDAT CRT$XCU
CRT$XCU	SEGMENT
?_Iostream_object$initializer$@?$_Error_objects@H@std@@2P6AXXZA DD FLAT:??__E?_Iostream_object@?$_Error_objects@H@std@@2V_Iostream_error_category@2@A@@YAXXZ ; std::_Error_objects<int>::_Iostream_object$initializer$
CRT$XCU	ENDS
;	COMDAT CRT$XCU
CRT$XCU	SEGMENT
?_System_object$initializer$@?$_Error_objects@H@std@@2P6AXXZA DD FLAT:??__E?_System_object@?$_Error_objects@H@std@@2V_System_error_category@2@A@@YAXXZ ; std::_Error_objects<int>::_System_object$initializer$
CRT$XCU	ENDS
;	COMDAT CRT$XCU
CRT$XCU	SEGMENT
?id$initializer$@?$num_put@DV?$back_insert_iterator@V?$basic_string@DU?$char_traits@D@std@@V?$allocator@D@2@@std@@@std@@@std@@2P6AXXZA DD FLAT:??__E?id@?$num_put@DV?$back_insert_iterator@V?$basic_string@DU?$char_traits@D@std@@V?$allocator@D@2@@std@@@std@@@std@@2V0locale@2@A@@YAXXZ ; std::num_put<char,std::back_insert_iterator<std::basic_string<char,std::char_traits<char>,std::allocator<char> > > >::id$initializer$
CRT$XCU	ENDS
;	COMDAT CRT$XCU
CRT$XCU	SEGMENT
?id$initializer$@?$num_put@_WV?$back_insert_iterator@V?$basic_string@_WU?$char_traits@_W@std@@V?$allocator@_W@2@@std@@@std@@@std@@2P6AXXZA DD FLAT:??__E?id@?$num_put@_WV?$back_insert_iterator@V?$basic_string@_WU?$char_traits@_W@std@@V?$allocator@_W@2@@std@@@std@@@std@@2V0locale@2@A@@YAXXZ ; std::num_put<wchar_t,std::back_insert_iterator<std::basic_string<wchar_t,std::char_traits<wchar_t>,std::allocator<wchar_t> > > >::id$initializer$
CRT$XCU	ENDS
;	COMDAT CRT$XCU
CRT$XCU	SEGMENT
?id$initializer$@?$numpunct@D@std@@2P6AXXZA DD FLAT:??__E?id@?$numpunct@D@std@@2V0locale@2@A@@YAXXZ ; std::numpunct<char>::id$initializer$
CRT$XCU	ENDS
;	COMDAT CRT$XCU
CRT$XCU	SEGMENT
?id$initializer$@?$numpunct@_W@std@@2P6AXXZA DD FLAT:??__E?id@?$numpunct@_W@std@@2V0locale@2@A@@YAXXZ ; std::numpunct<wchar_t>::id$initializer$
CRT$XCU	ENDS
; Function compile flags: /Odtp
; File c:\program files (x86)\microsoft visual studio 11.0\vc\include\xmemory0
;	COMDAT ??$construct@V?$VuBin@VFalconEntity@@@@V1@@?$allocator@U?$_List_node@V?$VuBin@VFalconEntity@@@@PAX@std@@@std@@QAEXPAV?$VuBin@VFalconEntity@@@@$$QAV2@@Z
_TEXT	SEGMENT
$T2 = -28						; size = 4
_this$ = -24						; size = 4
tv76 = -20						; size = 4
$T3 = -16						; size = 4
__$EHRec$ = -12						; size = 12
__Ptr$ = 8						; size = 4
__V0$ = 12						; size = 4
??$construct@V?$VuBin@VFalconEntity@@@@V1@@?$allocator@U?$_List_node@V?$VuBin@VFalconEntity@@@@PAX@std@@@std@@QAEXPAV?$VuBin@VFalconEntity@@@@$$QAV2@@Z PROC ; std::allocator<std::_List_node<VuBin<FalconEntity>,void *> >::construct<VuBin<FalconEntity>,VuBin<FalconEntity> >, COMDAT
; _this$ = ecx

; 617  : _VARIADIC_EXPAND_0X(_ALLOC_MEMBER_CONSTRUCT, , , , )

	push	ebp
	mov	ebp, esp
	push	-1
	push	__ehhandler$??$construct@V?$VuBin@VFalconEntity@@@@V1@@?$allocator@U?$_List_node@V?$VuBin@VFalconEntity@@@@PAX@std@@@std@@QAEXPAV?$VuBin@VFalconEntity@@@@$$QAV2@@Z
	mov	eax, DWORD PTR fs:0
	push	eax
	sub	esp, 16					; 00000010H
	mov	eax, DWORD PTR ___security_cookie
	xor	eax, ebp
	push	eax
	lea	eax, DWORD PTR __$EHRec$[ebp]
	mov	DWORD PTR fs:0, eax
	mov	DWORD PTR _this$[ebp], ecx
	mov	eax, DWORD PTR __Ptr$[ebp]
	push	eax
	push	4
	call	??2@YAPAXIPAX@Z				; operator new
	add	esp, 8
	mov	DWORD PTR $T3[ebp], eax
	mov	DWORD PTR __$EHRec$[ebp+8], 0
	cmp	DWORD PTR $T3[ebp], 0
	je	SHORT $LN3@construct
	mov	ecx, DWORD PTR __V0$[ebp]
	push	ecx
	call	??$forward@V?$VuBin@VFalconEntity@@@@@std@@YA$$QAV?$VuBin@VFalconEntity@@@@AAV1@@Z ; std::forward<VuBin<FalconEntity> >
	add	esp, 4
	push	eax
	mov	ecx, DWORD PTR $T3[ebp]
	call	??0?$VuBin@VFalconEntity@@@@QAE@ABV0@@Z	; VuBin<FalconEntity>::VuBin<FalconEntity>
	mov	DWORD PTR tv76[ebp], eax
	jmp	SHORT $LN4@construct
$LN3@construct:
	mov	DWORD PTR tv76[ebp], 0
$LN4@construct:
	mov	edx, DWORD PTR tv76[ebp]
	mov	DWORD PTR $T2[ebp], edx
	mov	DWORD PTR __$EHRec$[ebp+8], -1
	mov	ecx, DWORD PTR __$EHRec$[ebp]
	mov	DWORD PTR fs:0, ecx
	pop	ecx
	mov	esp, ebp
	pop	ebp
	ret	8
_TEXT	ENDS
;	COMDAT text$x
text$x	SEGMENT
__unwindfunclet$??$construct@V?$VuBin@VFalconEntity@@@@V1@@?$allocator@U?$_List_node@V?$VuBin@VFalconEntity@@@@PAX@std@@@std@@QAEXPAV?$VuBin@VFalconEntity@@@@$$QAV2@@Z$0:
	mov	eax, DWORD PTR __Ptr$[ebp]
	push	eax
	mov	eax, DWORD PTR $T3[ebp]
	push	eax
	call	??3@YAXPAX0@Z				; operator delete
	add	esp, 8
	ret	0
__ehhandler$??$construct@V?$VuBin@VFalconEntity@@@@V1@@?$allocator@U?$_List_node@V?$VuBin@VFalconEntity@@@@PAX@std@@@std@@QAEXPAV?$VuBin@VFalconEntity@@@@$$QAV2@@Z:
	mov	edx, DWORD PTR [esp+8]
	lea	eax, DWORD PTR [edx+12]
	mov	ecx, DWORD PTR [edx-20]
	xor	ecx, eax
	call	@__security_check_cookie@4
	mov	eax, OFFSET __ehfuncinfo$??$construct@V?$VuBin@VFalconEntity@@@@V1@@?$allocator@U?$_List_node@V?$VuBin@VFalconEntity@@@@PAX@std@@@std@@QAEXPAV?$VuBin@VFalconEntity@@@@$$QAV2@@Z
	jmp	___CxxFrameHandler3
text$x	ENDS
??$construct@V?$VuBin@VFalconEntity@@@@V1@@?$allocator@U?$_List_node@V?$VuBin@VFalconEntity@@@@PAX@std@@@std@@QAEXPAV?$VuBin@VFalconEntity@@@@$$QAV2@@Z ENDP ; std::allocator<std::_List_node<VuBin<FalconEntity>,void *> >::construct<VuBin<FalconEntity>,VuBin<FalconEntity> >
; Function compile flags: /Odtp
; File c:\program files (x86)\microsoft visual studio 11.0\vc\include\xmemory0
;	COMDAT ??$construct@V?$VuBin@VFalconEntity@@@@V1@@?$allocator_traits@V?$allocator@U?$_List_node@V?$VuBin@VFalconEntity@@@@PAX@std@@@std@@@std@@SAXAAV?$allocator@U?$_List_node@V?$VuBin@VFalconEntity@@@@PAX@std@@@1@PAV?$VuBin@VFalconEntity@@@@$$QAV3@@Z
_TEXT	SEGMENT
__Al$ = 8						; size = 4
__Ptr$ = 12						; size = 4
__V0$ = 16						; size = 4
??$construct@V?$VuBin@VFalconEntity@@@@V1@@?$allocator_traits@V?$allocator@U?$_List_node@V?$VuBin@VFalconEntity@@@@PAX@std@@@std@@@std@@SAXAAV?$allocator@U?$_List_node@V?$VuBin@VFalconEntity@@@@PAX@std@@@1@PAV?$VuBin@VFalconEntity@@@@$$QAV3@@Z PROC ; std::allocator_traits<std::allocator<std::_List_node<VuBin<FalconEntity>,void *> > >::construct<VuBin<FalconEntity>,VuBin<FalconEntity> >, COMDAT

; 751  : _VARIADIC_EXPAND_0X(_ALLOC_TRAITS_SPECIAL_CONSTRUCT, , , , )

	push	ebp
	mov	ebp, esp
	mov	eax, DWORD PTR __V0$[ebp]
	push	eax
	call	??$forward@V?$VuBin@VFalconEntity@@@@@std@@YA$$QAV?$VuBin@VFalconEntity@@@@AAV1@@Z ; std::forward<VuBin<FalconEntity> >
	add	esp, 4
	push	eax
	mov	ecx, DWORD PTR __Ptr$[ebp]
	push	ecx
	mov	ecx, DWORD PTR __Al$[ebp]
	call	??$construct@V?$VuBin@VFalconEntity@@@@V1@@?$allocator@U?$_List_node@V?$VuBin@VFalconEntity@@@@PAX@std@@@std@@QAEXPAV?$VuBin@VFalconEntity@@@@$$QAV2@@Z ; std::allocator<std::_List_node<VuBin<FalconEntity>,void *> >::construct<VuBin<FalconEntity>,VuBin<FalconEntity> >
	pop	ebp
	ret	0
??$construct@V?$VuBin@VFalconEntity@@@@V1@@?$allocator_traits@V?$allocator@U?$_List_node@V?$VuBin@VFalconEntity@@@@PAX@std@@@std@@@std@@SAXAAV?$allocator@U?$_List_node@V?$VuBin@VFalconEntity@@@@PAX@std@@@1@PAV?$VuBin@VFalconEntity@@@@$$QAV3@@Z ENDP ; std::allocator_traits<std::allocator<std::_List_node<VuBin<FalconEntity>,void *> > >::construct<VuBin<FalconEntity>,VuBin<FalconEntity> >
_TEXT	ENDS
; Function compile flags: /Odtp
; File c:\program files (x86)\microsoft visual studio 11.0\vc\include\xmemory0
;	COMDAT ??$construct@PAU?$_List_node@V?$VuBin@VFalconEntity@@@@PAX@std@@AAPAU12@@?$allocator@U?$_List_node@V?$VuBin@VFalconEntity@@@@PAX@std@@@std@@QAEXPAPAU?$_List_node@V?$VuBin@VFalconEntity@@@@PAX@1@AAPAU21@@Z
_TEXT	SEGMENT
$T2 = -28						; size = 4
_this$ = -24						; size = 4
tv73 = -20						; size = 4
$T3 = -16						; size = 4
__$EHRec$ = -12						; size = 12
__Ptr$ = 8						; size = 4
__V0$ = 12						; size = 4
??$construct@PAU?$_List_node@V?$VuBin@VFalconEntity@@@@PAX@std@@AAPAU12@@?$allocator@U?$_List_node@V?$VuBin@VFalconEntity@@@@PAX@std@@@std@@QAEXPAPAU?$_List_node@V?$VuBin@VFalconEntity@@@@PAX@1@AAPAU21@@Z PROC ; std::allocator<std::_List_node<VuBin<FalconEntity>,void *> >::construct<std::_List_node<VuBin<FalconEntity>,void *> *,std::_List_node<VuBin<FalconEntity>,void *> * &>, COMDAT
; _this$ = ecx

; 617  : _VARIADIC_EXPAND_0X(_ALLOC_MEMBER_CONSTRUCT, , , , )

	push	ebp
	mov	ebp, esp
	push	-1
	push	__ehhandler$??$construct@PAU?$_List_node@V?$VuBin@VFalconEntity@@@@PAX@std@@AAPAU12@@?$allocator@U?$_List_node@V?$VuBin@VFalconEntity@@@@PAX@std@@@std@@QAEXPAPAU?$_List_node@V?$VuBin@VFalconEntity@@@@PAX@1@AAPAU21@@Z
	mov	eax, DWORD PTR fs:0
	push	eax
	sub	esp, 16					; 00000010H
	mov	eax, DWORD PTR ___security_cookie
	xor	eax, ebp
	push	eax
	lea	eax, DWORD PTR __$EHRec$[ebp]
	mov	DWORD PTR fs:0, eax
	mov	DWORD PTR _this$[ebp], ecx
	mov	eax, DWORD PTR __Ptr$[ebp]
	push	eax
	push	4
	call	??2@YAPAXIPAX@Z				; operator new
	add	esp, 8
	mov	DWORD PTR $T3[ebp], eax
	mov	DWORD PTR __$EHRec$[ebp+8], 0
	cmp	DWORD PTR $T3[ebp], 0
	je	SHORT $LN3@construct
	mov	ecx, DWORD PTR __V0$[ebp]
	push	ecx
	call	??$forward@AAPAU?$_List_node@V?$VuBin@VFalconEntity@@@@PAX@std@@@std@@YAAAPAU?$_List_node@V?$VuBin@VFalconEntity@@@@PAX@0@AAPAU10@@Z ; std::forward<std::_List_node<VuBin<FalconEntity>,void *> * &>
	add	esp, 4
	mov	edx, DWORD PTR $T3[ebp]
	mov	eax, DWORD PTR [eax]
	mov	DWORD PTR [edx], eax
	mov	ecx, DWORD PTR $T3[ebp]
	mov	DWORD PTR tv73[ebp], ecx
	jmp	SHORT $LN4@construct
$LN3@construct:
	mov	DWORD PTR tv73[ebp], 0
$LN4@construct:
	mov	edx, DWORD PTR tv73[ebp]
	mov	DWORD PTR $T2[ebp], edx
	mov	DWORD PTR __$EHRec$[ebp+8], -1
	mov	ecx, DWORD PTR __$EHRec$[ebp]
	mov	DWORD PTR fs:0, ecx
	pop	ecx
	mov	esp, ebp
	pop	ebp
	ret	8
_TEXT	ENDS
;	COMDAT text$x
text$x	SEGMENT
__unwindfunclet$??$construct@PAU?$_List_node@V?$VuBin@VFalconEntity@@@@PAX@std@@AAPAU12@@?$allocator@U?$_List_node@V?$VuBin@VFalconEntity@@@@PAX@std@@@std@@QAEXPAPAU?$_List_node@V?$VuBin@VFalconEntity@@@@PAX@1@AAPAU21@@Z$0:
	mov	eax, DWORD PTR __Ptr$[ebp]
	push	eax
	mov	eax, DWORD PTR $T3[ebp]
	push	eax
	call	??3@YAXPAX0@Z				; operator delete
	add	esp, 8
	ret	0
__ehhandler$??$construct@PAU?$_List_node@V?$VuBin@VFalconEntity@@@@PAX@std@@AAPAU12@@?$allocator@U?$_List_node@V?$VuBin@VFalconEntity@@@@PAX@std@@@std@@QAEXPAPAU?$_List_node@V?$VuBin@VFalconEntity@@@@PAX@1@AAPAU21@@Z:
	mov	edx, DWORD PTR [esp+8]
	lea	eax, DWORD PTR [edx+12]
	mov	ecx, DWORD PTR [edx-20]
	xor	ecx, eax
	call	@__security_check_cookie@4
	mov	eax, OFFSET __ehfuncinfo$??$construct@PAU?$_List_node@V?$VuBin@VFalconEntity@@@@PAX@std@@AAPAU12@@?$allocator@U?$_List_node@V?$VuBin@VFalconEntity@@@@PAX@std@@@std@@QAEXPAPAU?$_List_node@V?$VuBin@VFalconEntity@@@@PAX@1@AAPAU21@@Z
	jmp	___CxxFrameHandler3
text$x	ENDS
??$construct@PAU?$_List_node@V?$VuBin@VFalconEntity@@@@PAX@std@@AAPAU12@@?$allocator@U?$_List_node@V?$VuBin@VFalconEntity@@@@PAX@std@@@std@@QAEXPAPAU?$_List_node@V?$VuBin@VFalconEntity@@@@PAX@1@AAPAU21@@Z ENDP ; std::allocator<std::_List_node<VuBin<FalconEntity>,void *> >::construct<std::_List_node<VuBin<FalconEntity>,void *> *,std::_List_node<VuBin<FalconEntity>,void *> * &>
; Function compile flags: /Odtp
; File c:\program files (x86)\microsoft visual studio 11.0\vc\include\xmemory0
;	COMDAT ??$destroy@V?$VuBin@VFalconEntity@@@@@?$allocator@U?$_List_node@V?$VuBin@VFalconEntity@@@@PAX@std@@@std@@QAEXPAV?$VuBin@VFalconEntity@@@@@Z
_TEXT	SEGMENT
_this$ = -4						; size = 4
__Ptr$ = 8						; size = 4
??$destroy@V?$VuBin@VFalconEntity@@@@@?$allocator@U?$_List_node@V?$VuBin@VFalconEntity@@@@PAX@std@@@std@@QAEXPAV?$VuBin@VFalconEntity@@@@@Z PROC ; std::allocator<std::_List_node<VuBin<FalconEntity>,void *> >::destroy<VuBin<FalconEntity> >, COMDAT
; _this$ = ecx

; 621  : 		void destroy(_Uty *_Ptr)

	push	ebp
	mov	ebp, esp
	push	ecx
	mov	DWORD PTR _this$[ebp], ecx

; 622  : 		{	// destroy object at _Ptr
; 623  : 		_Ptr->~_Uty();

	push	0
	mov	ecx, DWORD PTR __Ptr$[ebp]
	call	??_G?$VuBin@VFalconEntity@@@@QAEPAXI@Z

; 624  : 		}

	mov	esp, ebp
	pop	ebp
	ret	4
??$destroy@V?$VuBin@VFalconEntity@@@@@?$allocator@U?$_List_node@V?$VuBin@VFalconEntity@@@@PAX@std@@@std@@QAEXPAV?$VuBin@VFalconEntity@@@@@Z ENDP ; std::allocator<std::_List_node<VuBin<FalconEntity>,void *> >::destroy<VuBin<FalconEntity> >
_TEXT	ENDS
; Function compile flags: /Odtp
; File c:\program files (x86)\microsoft visual studio 11.0\vc\include\xmemory0
;	COMDAT ??$destroy@PAU?$_List_node@V?$VuBin@VFalconEntity@@@@PAX@std@@@?$allocator@U?$_List_node@V?$VuBin@VFalconEntity@@@@PAX@std@@@std@@QAEXPAPAU?$_List_node@V?$VuBin@VFalconEntity@@@@PAX@1@@Z
_TEXT	SEGMENT
_this$ = -4						; size = 4
__Ptr$ = 8						; size = 4
??$destroy@PAU?$_List_node@V?$VuBin@VFalconEntity@@@@PAX@std@@@?$allocator@U?$_List_node@V?$VuBin@VFalconEntity@@@@PAX@std@@@std@@QAEXPAPAU?$_List_node@V?$VuBin@VFalconEntity@@@@PAX@1@@Z PROC ; std::allocator<std::_List_node<VuBin<FalconEntity>,void *> >::destroy<std::_List_node<VuBin<FalconEntity>,void *> *>, COMDAT
; _this$ = ecx

; 621  : 		void destroy(_Uty *_Ptr)

	push	ebp
	mov	ebp, esp
	push	ecx
	mov	DWORD PTR _this$[ebp], ecx

; 622  : 		{	// destroy object at _Ptr
; 623  : 		_Ptr->~_Uty();
; 624  : 		}

	mov	esp, ebp
	pop	ebp
	ret	4
??$destroy@PAU?$_List_node@V?$VuBin@VFalconEntity@@@@PAX@std@@@?$allocator@U?$_List_node@V?$VuBin@VFalconEntity@@@@PAX@std@@@std@@QAEXPAPAU?$_List_node@V?$VuBin@VFalconEntity@@@@PAX@1@@Z ENDP ; std::allocator<std::_List_node<VuBin<FalconEntity>,void *> >::destroy<std::_List_node<VuBin<FalconEntity>,void *> *>
_TEXT	ENDS
; Function compile flags: /Odtp
; File c:\program files (x86)\microsoft visual studio 11.0\vc\include\xmemory0
;	COMDAT ??$destroy@PAD@?$allocator@D@std@@QAEXPAPAD@Z
_TEXT	SEGMENT
_this$ = -4						; size = 4
__Ptr$ = 8						; size = 4
??$destroy@PAD@?$allocator@D@std@@QAEXPAPAD@Z PROC	; std::allocator<char>::destroy<char *>, COMDAT
; _this$ = ecx

; 621  : 		void destroy(_Uty *_Ptr)

	push	ebp
	mov	ebp, esp
	push	ecx
	mov	DWORD PTR _this$[ebp], ecx

; 622  : 		{	// destroy object at _Ptr
; 623  : 		_Ptr->~_Uty();
; 624  : 		}

	mov	esp, ebp
	pop	ebp
	ret	4
??$destroy@PAD@?$allocator@D@std@@QAEXPAPAD@Z ENDP	; std::allocator<char>::destroy<char *>
_TEXT	ENDS
; Function compile flags: /Odtp
; File c:\program files (x86)\microsoft visual studio 11.0\vc\include\xmemory0
;	COMDAT ??$construct@PADAAPAD@?$allocator@D@std@@QAEXPAPADAAPAD@Z
_TEXT	SEGMENT
$T2 = -28						; size = 4
_this$ = -24						; size = 4
tv73 = -20						; size = 4
$T3 = -16						; size = 4
__$EHRec$ = -12						; size = 12
__Ptr$ = 8						; size = 4
__V0$ = 12						; size = 4
??$construct@PADAAPAD@?$allocator@D@std@@QAEXPAPADAAPAD@Z PROC ; std::allocator<char>::construct<char *,char * &>, COMDAT
; _this$ = ecx

; 617  : _VARIADIC_EXPAND_0X(_ALLOC_MEMBER_CONSTRUCT, , , , )

	push	ebp
	mov	ebp, esp
	push	-1
	push	__ehhandler$??$construct@PADAAPAD@?$allocator@D@std@@QAEXPAPADAAPAD@Z
	mov	eax, DWORD PTR fs:0
	push	eax
	sub	esp, 16					; 00000010H
	mov	eax, DWORD PTR ___security_cookie
	xor	eax, ebp
	push	eax
	lea	eax, DWORD PTR __$EHRec$[ebp]
	mov	DWORD PTR fs:0, eax
	mov	DWORD PTR _this$[ebp], ecx
	mov	eax, DWORD PTR __Ptr$[ebp]
	push	eax
	push	4
	call	??2@YAPAXIPAX@Z				; operator new
	add	esp, 8
	mov	DWORD PTR $T3[ebp], eax
	mov	DWORD PTR __$EHRec$[ebp+8], 0
	cmp	DWORD PTR $T3[ebp], 0
	je	SHORT $LN3@construct
	mov	ecx, DWORD PTR __V0$[ebp]
	push	ecx
	call	??$forward@AAPAD@std@@YAAAPADAAPAD@Z	; std::forward<char * &>
	add	esp, 4
	mov	edx, DWORD PTR $T3[ebp]
	mov	eax, DWORD PTR [eax]
	mov	DWORD PTR [edx], eax
	mov	ecx, DWORD PTR $T3[ebp]
	mov	DWORD PTR tv73[ebp], ecx
	jmp	SHORT $LN4@construct
$LN3@construct:
	mov	DWORD PTR tv73[ebp], 0
$LN4@construct:
	mov	edx, DWORD PTR tv73[ebp]
	mov	DWORD PTR $T2[ebp], edx
	mov	DWORD PTR __$EHRec$[ebp+8], -1
	mov	ecx, DWORD PTR __$EHRec$[ebp]
	mov	DWORD PTR fs:0, ecx
	pop	ecx
	mov	esp, ebp
	pop	ebp
	ret	8
_TEXT	ENDS
;	COMDAT text$x
text$x	SEGMENT
__unwindfunclet$??$construct@PADAAPAD@?$allocator@D@std@@QAEXPAPADAAPAD@Z$0:
	mov	eax, DWORD PTR __Ptr$[ebp]
	push	eax
	mov	eax, DWORD PTR $T3[ebp]
	push	eax
	call	??3@YAXPAX0@Z				; operator delete
	add	esp, 8
	ret	0
__ehhandler$??$construct@PADAAPAD@?$allocator@D@std@@QAEXPAPADAAPAD@Z:
	mov	edx, DWORD PTR [esp+8]
	lea	eax, DWORD PTR [edx+12]
	mov	ecx, DWORD PTR [edx-20]
	xor	ecx, eax
	call	@__security_check_cookie@4
	mov	eax, OFFSET __ehfuncinfo$??$construct@PADAAPAD@?$allocator@D@std@@QAEXPAPADAAPAD@Z
	jmp	___CxxFrameHandler3
text$x	ENDS
??$construct@PADAAPAD@?$allocator@D@std@@QAEXPAPADAAPAD@Z ENDP ; std::allocator<char>::construct<char *,char * &>
; Function compile flags: /Odtp
; File c:\program files (x86)\microsoft visual studio 11.0\vc\include\xmemory0
;	COMDAT ??__E?id@?$numpunct@_W@std@@2V0locale@2@A@@YAXXZ
text$yc	SEGMENT
??__E?id@?$numpunct@_W@std@@2V0locale@2@A@@YAXXZ PROC	; `dynamic initializer for 'std::numpunct<wchar_t>::id'', COMDAT

; 627  : 		{	// estimate maximum array size

	push	ebp
	mov	ebp, esp
	push	0
	mov	ecx, OFFSET ?id@?$numpunct@_W@std@@2V0locale@2@A ; std::numpunct<wchar_t>::id
	call	??0id@locale@std@@QAE@I@Z		; std::locale::id::id
	pop	ebp
	ret	0
??__E?id@?$numpunct@_W@std@@2V0locale@2@A@@YAXXZ ENDP	; `dynamic initializer for 'std::numpunct<wchar_t>::id''
text$yc	ENDS
; Function compile flags: /Odtp
; File c:\program files (x86)\microsoft visual studio 11.0\vc\include\xmemory0
;	COMDAT ??__E?id@?$numpunct@D@std@@2V0locale@2@A@@YAXXZ
text$yc	SEGMENT
??__E?id@?$numpunct@D@std@@2V0locale@2@A@@YAXXZ PROC	; `dynamic initializer for 'std::numpunct<char>::id'', COMDAT

; 627  : 		{	// estimate maximum array size

	push	ebp
	mov	ebp, esp
	push	0
	mov	ecx, OFFSET ?id@?$numpunct@D@std@@2V0locale@2@A ; std::numpunct<char>::id
	call	??0id@locale@std@@QAE@I@Z		; std::locale::id::id
	pop	ebp
	ret	0
??__E?id@?$numpunct@D@std@@2V0locale@2@A@@YAXXZ ENDP	; `dynamic initializer for 'std::numpunct<char>::id''
text$yc	ENDS
; Function compile flags: /Odtp
; File c:\program files (x86)\microsoft visual studio 11.0\vc\include\xmemory0
;	COMDAT ??$construct@V?$VuBin@VFalconEntity@@@@V1@@?$_Wrap_alloc@V?$allocator@U?$_List_node@V?$VuBin@VFalconEntity@@@@PAX@std@@@std@@@std@@QAEXPAV?$VuBin@VFalconEntity@@@@$$QAV2@@Z
_TEXT	SEGMENT
_this$ = -4						; size = 4
__Ptr$ = 8						; size = 4
__V0$ = 12						; size = 4
??$construct@V?$VuBin@VFalconEntity@@@@V1@@?$_Wrap_alloc@V?$allocator@U?$_List_node@V?$VuBin@VFalconEntity@@@@PAX@std@@@std@@@std@@QAEXPAV?$VuBin@VFalconEntity@@@@$$QAV2@@Z PROC ; std::_Wrap_alloc<std::allocator<std::_List_node<VuBin<FalconEntity>,void *> > >::construct<VuBin<FalconEntity>,VuBin<FalconEntity> >, COMDAT
; _this$ = ecx

; 903  : _VARIADIC_EXPAND_0X(_WRAP_ALLOC_CONSTRUCT, , , , )

	push	ebp
	mov	ebp, esp
	push	ecx
	mov	DWORD PTR _this$[ebp], ecx
	mov	eax, DWORD PTR __V0$[ebp]
	push	eax
	call	??$forward@V?$VuBin@VFalconEntity@@@@@std@@YA$$QAV?$VuBin@VFalconEntity@@@@AAV1@@Z ; std::forward<VuBin<FalconEntity> >
	add	esp, 4
	push	eax
	mov	ecx, DWORD PTR __Ptr$[ebp]
	push	ecx
	mov	edx, DWORD PTR _this$[ebp]
	push	edx
	call	??$construct@V?$VuBin@VFalconEntity@@@@V1@@?$allocator_traits@V?$allocator@U?$_List_node@V?$VuBin@VFalconEntity@@@@PAX@std@@@std@@@std@@SAXAAV?$allocator@U?$_List_node@V?$VuBin@VFalconEntity@@@@PAX@std@@@1@PAV?$VuBin@VFalconEntity@@@@$$QAV3@@Z ; std::allocator_traits<std::allocator<std::_List_node<VuBin<FalconEntity>,void *> > >::construct<VuBin<FalconEntity>,VuBin<FalconEntity> >
	add	esp, 12					; 0000000cH
	mov	esp, ebp
	pop	ebp
	ret	8
??$construct@V?$VuBin@VFalconEntity@@@@V1@@?$_Wrap_alloc@V?$allocator@U?$_List_node@V?$VuBin@VFalconEntity@@@@PAX@std@@@std@@@std@@QAEXPAV?$VuBin@VFalconEntity@@@@$$QAV2@@Z ENDP ; std::_Wrap_alloc<std::allocator<std::_List_node<VuBin<FalconEntity>,void *> > >::construct<VuBin<FalconEntity>,VuBin<FalconEntity> >
_TEXT	ENDS
; Function compile flags: /Odtp
; File c:\program files (x86)\microsoft visual studio 11.0\vc\include\xmemory0
;	COMDAT ??__E?id@?$num_put@_WV?$back_insert_iterator@V?$basic_string@_WU?$char_traits@_W@std@@V?$allocator@_W@2@@std@@@std@@@std@@2V0locale@2@A@@YAXXZ
text$yc	SEGMENT
??__E?id@?$num_put@_WV?$back_insert_iterator@V?$basic_string@_WU?$char_traits@_W@std@@V?$allocator@_W@2@@std@@@std@@@std@@2V0locale@2@A@@YAXXZ PROC ; `dynamic initializer for 'std::num_put<wchar_t,std::back_insert_iterator<std::basic_string<wchar_t,std::char_traits<wchar_t>,std::allocator<wchar_t> > > >::id'', COMDAT

; 627  : 		{	// estimate maximum array size

	push	ebp
	mov	ebp, esp
	push	0
	mov	ecx, OFFSET ?id@?$num_put@_WV?$back_insert_iterator@V?$basic_string@_WU?$char_traits@_W@std@@V?$allocator@_W@2@@std@@@std@@@std@@2V0locale@2@A ; std::num_put<wchar_t,std::back_insert_iterator<std::basic_string<wchar_t,std::char_traits<wchar_t>,std::allocator<wchar_t> > > >::id
	call	??0id@locale@std@@QAE@I@Z		; std::locale::id::id
	pop	ebp
	ret	0
??__E?id@?$num_put@_WV?$back_insert_iterator@V?$basic_string@_WU?$char_traits@_W@std@@V?$allocator@_W@2@@std@@@std@@@std@@2V0locale@2@A@@YAXXZ ENDP ; `dynamic initializer for 'std::num_put<wchar_t,std::back_insert_iterator<std::basic_string<wchar_t,std::char_traits<wchar_t>,std::allocator<wchar_t> > > >::id''
text$yc	ENDS
; Function compile flags: /Odtp
; File c:\program files (x86)\microsoft visual studio 11.0\vc\include\xmemory0
;	COMDAT ??__E?id@?$num_put@DV?$back_insert_iterator@V?$basic_string@DU?$char_traits@D@std@@V?$allocator@D@2@@std@@@std@@@std@@2V0locale@2@A@@YAXXZ
text$yc	SEGMENT
??__E?id@?$num_put@DV?$back_insert_iterator@V?$basic_string@DU?$char_traits@D@std@@V?$allocator@D@2@@std@@@std@@@std@@2V0locale@2@A@@YAXXZ PROC ; `dynamic initializer for 'std::num_put<char,std::back_insert_iterator<std::basic_string<char,std::char_traits<char>,std::allocator<char> > > >::id'', COMDAT

; 627  : 		{	// estimate maximum array size

	push	ebp
	mov	ebp, esp
	push	0
	mov	ecx, OFFSET ?id@?$num_put@DV?$back_insert_iterator@V?$basic_string@DU?$char_traits@D@std@@V?$allocator@D@2@@std@@@std@@@std@@2V0locale@2@A ; std::num_put<char,std::back_insert_iterator<std::basic_string<char,std::char_traits<char>,std::allocator<char> > > >::id
	call	??0id@locale@std@@QAE@I@Z		; std::locale::id::id
	pop	ebp
	ret	0
??__E?id@?$num_put@DV?$back_insert_iterator@V?$basic_string@DU?$char_traits@D@std@@V?$allocator@D@2@@std@@@std@@@std@@2V0locale@2@A@@YAXXZ ENDP ; `dynamic initializer for 'std::num_put<char,std::back_insert_iterator<std::basic_string<char,std::char_traits<char>,std::allocator<char> > > >::id''
text$yc	ENDS
; Function compile flags: /Odtp
; File c:\program files (x86)\microsoft visual studio 11.0\vc\include\xmemory0
;	COMDAT ??$construct@PAU?$_List_node@V?$VuBin@VFalconEntity@@@@PAX@std@@AAPAU12@@?$allocator_traits@V?$allocator@U?$_List_node@V?$VuBin@VFalconEntity@@@@PAX@std@@@std@@@std@@SAXAAV?$allocator@U?$_List_node@V?$VuBin@VFalconEntity@@@@PAX@std@@@1@PAPAU?$_List_node@V?$VuBin@VFalconEntity@@@@PAX@1@AAPAU31@@Z
_TEXT	SEGMENT
__Al$ = 8						; size = 4
__Ptr$ = 12						; size = 4
__V0$ = 16						; size = 4
??$construct@PAU?$_List_node@V?$VuBin@VFalconEntity@@@@PAX@std@@AAPAU12@@?$allocator_traits@V?$allocator@U?$_List_node@V?$VuBin@VFalconEntity@@@@PAX@std@@@std@@@std@@SAXAAV?$allocator@U?$_List_node@V?$VuBin@VFalconEntity@@@@PAX@std@@@1@PAPAU?$_List_node@V?$VuBin@VFalconEntity@@@@PAX@1@AAPAU31@@Z PROC ; std::allocator_traits<std::allocator<std::_List_node<VuBin<FalconEntity>,void *> > >::construct<std::_List_node<VuBin<FalconEntity>,void *> *,std::_List_node<VuBin<FalconEntity>,void *> * &>, COMDAT

; 751  : _VARIADIC_EXPAND_0X(_ALLOC_TRAITS_SPECIAL_CONSTRUCT, , , , )

	push	ebp
	mov	ebp, esp
	mov	eax, DWORD PTR __V0$[ebp]
	push	eax
	call	??$forward@AAPAU?$_List_node@V?$VuBin@VFalconEntity@@@@PAX@std@@@std@@YAAAPAU?$_List_node@V?$VuBin@VFalconEntity@@@@PAX@0@AAPAU10@@Z ; std::forward<std::_List_node<VuBin<FalconEntity>,void *> * &>
	add	esp, 4
	push	eax
	mov	ecx, DWORD PTR __Ptr$[ebp]
	push	ecx
	mov	ecx, DWORD PTR __Al$[ebp]
	call	??$construct@PAU?$_List_node@V?$VuBin@VFalconEntity@@@@PAX@std@@AAPAU12@@?$allocator@U?$_List_node@V?$VuBin@VFalconEntity@@@@PAX@std@@@std@@QAEXPAPAU?$_List_node@V?$VuBin@VFalconEntity@@@@PAX@1@AAPAU21@@Z ; std::allocator<std::_List_node<VuBin<FalconEntity>,void *> >::construct<std::_List_node<VuBin<FalconEntity>,void *> *,std::_List_node<VuBin<FalconEntity>,void *> * &>
	pop	ebp
	ret	0
??$construct@PAU?$_List_node@V?$VuBin@VFalconEntity@@@@PAX@std@@AAPAU12@@?$allocator_traits@V?$allocator@U?$_List_node@V?$VuBin@VFalconEntity@@@@PAX@std@@@std@@@std@@SAXAAV?$allocator@U?$_List_node@V?$VuBin@VFalconEntity@@@@PAX@std@@@1@PAPAU?$_List_node@V?$VuBin@VFalconEntity@@@@PAX@1@AAPAU31@@Z ENDP ; std::allocator_traits<std::allocator<std::_List_node<VuBin<FalconEntity>,void *> > >::construct<std::_List_node<VuBin<FalconEntity>,void *> *,std::_List_node<VuBin<FalconEntity>,void *> * &>
_TEXT	ENDS
; Function compile flags: /Odtp
; File c:\program files (x86)\microsoft visual studio 11.0\vc\include\type_traits
;	COMDAT ??$forward@AAPAU?$_List_node@V?$VuBin@VFalconEntity@@@@PAX@std@@@std@@YAAAPAU?$_List_node@V?$VuBin@VFalconEntity@@@@PAX@0@AAPAU10@@Z
_TEXT	SEGMENT
__Arg$ = 8						; size = 4
??$forward@AAPAU?$_List_node@V?$VuBin@VFalconEntity@@@@PAX@std@@@std@@YAAAPAU?$_List_node@V?$VuBin@VFalconEntity@@@@PAX@0@AAPAU10@@Z PROC ; std::forward<std::_List_node<VuBin<FalconEntity>,void *> * &>, COMDAT

; 1775 : 	{	// forward an lvalue

	push	ebp
	mov	ebp, esp

; 1776 : 	return (static_cast<_Ty&&>(_Arg));

	mov	eax, DWORD PTR __Arg$[ebp]

; 1777 : 	}

	pop	ebp
	ret	0
??$forward@AAPAU?$_List_node@V?$VuBin@VFalconEntity@@@@PAX@std@@@std@@YAAAPAU?$_List_node@V?$VuBin@VFalconEntity@@@@PAX@0@AAPAU10@@Z ENDP ; std::forward<std::_List_node<VuBin<FalconEntity>,void *> * &>
_TEXT	ENDS
; Function compile flags: /Odtp
; File c:\program files (x86)\microsoft visual studio 11.0\vc\include\xmemory0
;	COMDAT ??$destroy@V?$VuBin@VFalconEntity@@@@@?$allocator_traits@V?$allocator@U?$_List_node@V?$VuBin@VFalconEntity@@@@PAX@std@@@std@@@std@@SAXAAV?$allocator@U?$_List_node@V?$VuBin@VFalconEntity@@@@PAX@std@@@1@PAV?$VuBin@VFalconEntity@@@@@Z
_TEXT	SEGMENT
__Al$ = 8						; size = 4
__Ptr$ = 12						; size = 4
??$destroy@V?$VuBin@VFalconEntity@@@@@?$allocator_traits@V?$allocator@U?$_List_node@V?$VuBin@VFalconEntity@@@@PAX@std@@@std@@@std@@SAXAAV?$allocator@U?$_List_node@V?$VuBin@VFalconEntity@@@@PAX@std@@@1@PAV?$VuBin@VFalconEntity@@@@@Z PROC ; std::allocator_traits<std::allocator<std::_List_node<VuBin<FalconEntity>,void *> > >::destroy<VuBin<FalconEntity> >, COMDAT

; 755  : 		static void destroy(_Alloc& _Al, _Uty *_Ptr)

	push	ebp
	mov	ebp, esp

; 756  : 		{	// destroy object at _Ptr
; 757  : 		_Al.destroy(_Ptr);

	mov	eax, DWORD PTR __Ptr$[ebp]
	push	eax
	mov	ecx, DWORD PTR __Al$[ebp]
	call	??$destroy@V?$VuBin@VFalconEntity@@@@@?$allocator@U?$_List_node@V?$VuBin@VFalconEntity@@@@PAX@std@@@std@@QAEXPAV?$VuBin@VFalconEntity@@@@@Z ; std::allocator<std::_List_node<VuBin<FalconEntity>,void *> >::destroy<VuBin<FalconEntity> >

; 758  : 		}

	pop	ebp
	ret	0
??$destroy@V?$VuBin@VFalconEntity@@@@@?$allocator_traits@V?$allocator@U?$_List_node@V?$VuBin@VFalconEntity@@@@PAX@std@@@std@@@std@@SAXAAV?$allocator@U?$_List_node@V?$VuBin@VFalconEntity@@@@PAX@std@@@1@PAV?$VuBin@VFalconEntity@@@@@Z ENDP ; std::allocator_traits<std::allocator<std::_List_node<VuBin<FalconEntity>,void *> > >::destroy<VuBin<FalconEntity> >
_TEXT	ENDS
; Function compile flags: /Odtp
; File c:\program files (x86)\microsoft visual studio 11.0\vc\include\xmemory0
;	COMDAT ??$destroy@PAU?$_List_node@V?$VuBin@VFalconEntity@@@@PAX@std@@@?$allocator_traits@V?$allocator@U?$_List_node@V?$VuBin@VFalconEntity@@@@PAX@std@@@std@@@std@@SAXAAV?$allocator@U?$_List_node@V?$VuBin@VFalconEntity@@@@PAX@std@@@1@PAPAU?$_List_node@V?$VuBin@VFalconEntity@@@@PAX@1@@Z
_TEXT	SEGMENT
__Al$ = 8						; size = 4
__Ptr$ = 12						; size = 4
??$destroy@PAU?$_List_node@V?$VuBin@VFalconEntity@@@@PAX@std@@@?$allocator_traits@V?$allocator@U?$_List_node@V?$VuBin@VFalconEntity@@@@PAX@std@@@std@@@std@@SAXAAV?$allocator@U?$_List_node@V?$VuBin@VFalconEntity@@@@PAX@std@@@1@PAPAU?$_List_node@V?$VuBin@VFalconEntity@@@@PAX@1@@Z PROC ; std::allocator_traits<std::allocator<std::_List_node<VuBin<FalconEntity>,void *> > >::destroy<std::_List_node<VuBin<FalconEntity>,void *> *>, COMDAT

; 755  : 		static void destroy(_Alloc& _Al, _Uty *_Ptr)

	push	ebp
	mov	ebp, esp

; 756  : 		{	// destroy object at _Ptr
; 757  : 		_Al.destroy(_Ptr);

	mov	eax, DWORD PTR __Ptr$[ebp]
	push	eax
	mov	ecx, DWORD PTR __Al$[ebp]
	call	??$destroy@PAU?$_List_node@V?$VuBin@VFalconEntity@@@@PAX@std@@@?$allocator@U?$_List_node@V?$VuBin@VFalconEntity@@@@PAX@std@@@std@@QAEXPAPAU?$_List_node@V?$VuBin@VFalconEntity@@@@PAX@1@@Z ; std::allocator<std::_List_node<VuBin<FalconEntity>,void *> >::destroy<std::_List_node<VuBin<FalconEntity>,void *> *>

; 758  : 		}

	pop	ebp
	ret	0
??$destroy@PAU?$_List_node@V?$VuBin@VFalconEntity@@@@PAX@std@@@?$allocator_traits@V?$allocator@U?$_List_node@V?$VuBin@VFalconEntity@@@@PAX@std@@@std@@@std@@SAXAAV?$allocator@U?$_List_node@V?$VuBin@VFalconEntity@@@@PAX@std@@@1@PAPAU?$_List_node@V?$VuBin@VFalconEntity@@@@PAX@1@@Z ENDP ; std::allocator_traits<std::allocator<std::_List_node<VuBin<FalconEntity>,void *> > >::destroy<std::_List_node<VuBin<FalconEntity>,void *> *>
_TEXT	ENDS
; Function compile flags: /Odtp
; File c:\program files (x86)\microsoft visual studio 11.0\vc\include\xmemory0
;	COMDAT ??$destroy@PAD@?$allocator_traits@V?$allocator@D@std@@@std@@SAXAAV?$allocator@D@1@PAPAD@Z
_TEXT	SEGMENT
__Al$ = 8						; size = 4
__Ptr$ = 12						; size = 4
??$destroy@PAD@?$allocator_traits@V?$allocator@D@std@@@std@@SAXAAV?$allocator@D@1@PAPAD@Z PROC ; std::allocator_traits<std::allocator<char> >::destroy<char *>, COMDAT

; 755  : 		static void destroy(_Alloc& _Al, _Uty *_Ptr)

	push	ebp
	mov	ebp, esp

; 756  : 		{	// destroy object at _Ptr
; 757  : 		_Al.destroy(_Ptr);

	mov	eax, DWORD PTR __Ptr$[ebp]
	push	eax
	mov	ecx, DWORD PTR __Al$[ebp]
	call	??$destroy@PAD@?$allocator@D@std@@QAEXPAPAD@Z ; std::allocator<char>::destroy<char *>

; 758  : 		}

	pop	ebp
	ret	0
??$destroy@PAD@?$allocator_traits@V?$allocator@D@std@@@std@@SAXAAV?$allocator@D@1@PAPAD@Z ENDP ; std::allocator_traits<std::allocator<char> >::destroy<char *>
_TEXT	ENDS
; Function compile flags: /Odtp
; File c:\program files (x86)\microsoft visual studio 11.0\vc\include\xmemory0
;	COMDAT ??$construct@PADAAPAD@?$allocator_traits@V?$allocator@D@std@@@std@@SAXAAV?$allocator@D@1@PAPADAAPAD@Z
_TEXT	SEGMENT
__Al$ = 8						; size = 4
__Ptr$ = 12						; size = 4
__V0$ = 16						; size = 4
??$construct@PADAAPAD@?$allocator_traits@V?$allocator@D@std@@@std@@SAXAAV?$allocator@D@1@PAPADAAPAD@Z PROC ; std::allocator_traits<std::allocator<char> >::construct<char *,char * &>, COMDAT

; 751  : _VARIADIC_EXPAND_0X(_ALLOC_TRAITS_SPECIAL_CONSTRUCT, , , , )

	push	ebp
	mov	ebp, esp
	mov	eax, DWORD PTR __V0$[ebp]
	push	eax
	call	??$forward@AAPAD@std@@YAAAPADAAPAD@Z	; std::forward<char * &>
	add	esp, 4
	push	eax
	mov	ecx, DWORD PTR __Ptr$[ebp]
	push	ecx
	mov	ecx, DWORD PTR __Al$[ebp]
	call	??$construct@PADAAPAD@?$allocator@D@std@@QAEXPAPADAAPAD@Z ; std::allocator<char>::construct<char *,char * &>
	pop	ebp
	ret	0
??$construct@PADAAPAD@?$allocator_traits@V?$allocator@D@std@@@std@@SAXAAV?$allocator@D@1@PAPADAAPAD@Z ENDP ; std::allocator_traits<std::allocator<char> >::construct<char *,char * &>
_TEXT	ENDS
; Function compile flags: /Odtp
; File c:\program files (x86)\microsoft visual studio 11.0\vc\include\type_traits
;	COMDAT ??$forward@AAPAD@std@@YAAAPADAAPAD@Z
_TEXT	SEGMENT
__Arg$ = 8						; size = 4
??$forward@AAPAD@std@@YAAAPADAAPAD@Z PROC		; std::forward<char * &>, COMDAT

; 1775 : 	{	// forward an lvalue

	push	ebp
	mov	ebp, esp

; 1776 : 	return (static_cast<_Ty&&>(_Arg));

	mov	eax, DWORD PTR __Arg$[ebp]

; 1777 : 	}

	pop	ebp
	ret	0
??$forward@AAPAD@std@@YAAAPADAAPAD@Z ENDP		; std::forward<char * &>
_TEXT	ENDS
; Function compile flags: /Odtp
; File c:\program files (x86)\microsoft visual studio 11.0\vc\include\list
;	COMDAT ??$_Buynode@V?$VuBin@VFalconEntity@@@@@?$_List_buy@V?$VuBin@VFalconEntity@@@@V?$allocator@V?$VuBin@VFalconEntity@@@@@std@@@std@@QAEPAU?$_List_node@V?$VuBin@VFalconEntity@@@@PAX@1@PAU21@0$$QAV?$VuBin@VFalconEntity@@@@@Z
_TEXT	SEGMENT
tv135 = -40						; size = 4
tv134 = -36						; size = 4
tv133 = -32						; size = 4
__Pnode$ = -28						; size = 4
_this$ = -24						; size = 4
$T2 = -18						; size = 1
$T3 = -17						; size = 1
__$EHRec$ = -16						; size = 16
__Next$ = 8						; size = 4
__Prev$ = 12						; size = 4
__V0$ = 16						; size = 4
??$_Buynode@V?$VuBin@VFalconEntity@@@@@?$_List_buy@V?$VuBin@VFalconEntity@@@@V?$allocator@V?$VuBin@VFalconEntity@@@@@std@@@std@@QAEPAU?$_List_node@V?$VuBin@VFalconEntity@@@@PAX@1@PAU21@0$$QAV?$VuBin@VFalconEntity@@@@@Z PROC ; std::_List_buy<VuBin<FalconEntity>,std::allocator<VuBin<FalconEntity> > >::_Buynode<VuBin<FalconEntity> >, COMDAT
; _this$ = ecx

; 850  : _VARIADIC_EXPAND_0X(_LIST_BUYNODE, , , , )

	push	ebp
	mov	ebp, esp
	push	-1
	push	__ehhandler$??$_Buynode@V?$VuBin@VFalconEntity@@@@@?$_List_buy@V?$VuBin@VFalconEntity@@@@V?$allocator@V?$VuBin@VFalconEntity@@@@@std@@@std@@QAEPAU?$_List_node@V?$VuBin@VFalconEntity@@@@PAX@1@PAU21@0$$QAV?$VuBin@VFalconEntity@@@@@Z
	mov	eax, DWORD PTR fs:0
	push	eax
	push	ecx
	sub	esp, 24					; 00000018H
	push	ebx
	push	esi
	push	edi
	mov	eax, DWORD PTR ___security_cookie
	xor	eax, ebp
	push	eax
	lea	eax, DWORD PTR __$EHRec$[ebp+4]
	mov	DWORD PTR fs:0, eax
	mov	DWORD PTR __$EHRec$[ebp], esp
	mov	DWORD PTR _this$[ebp], ecx
	mov	eax, DWORD PTR __Prev$[ebp]
	push	eax
	mov	ecx, DWORD PTR __Next$[ebp]
	push	ecx
	mov	ecx, DWORD PTR _this$[ebp]
	call	?_Buynode0@?$_List_alloc@$0A@U?$_List_base_types@V?$VuBin@VFalconEntity@@@@V?$allocator@V?$VuBin@VFalconEntity@@@@@std@@@std@@@std@@QAEPAU?$_List_node@V?$VuBin@VFalconEntity@@@@PAX@2@PAU32@0@Z ; std::_List_alloc<0,std::_List_base_types<VuBin<FalconEntity>,std::allocator<VuBin<FalconEntity> > > >::_Buynode0
	mov	DWORD PTR __Pnode$[ebp], eax
	mov	DWORD PTR __$EHRec$[ebp+12], 0
	mov	edx, DWORD PTR __V0$[ebp]
	push	edx
	call	??$forward@V?$VuBin@VFalconEntity@@@@@std@@YA$$QAV?$VuBin@VFalconEntity@@@@AAV1@@Z ; std::forward<VuBin<FalconEntity> >
	add	esp, 4
	mov	DWORD PTR tv133[ebp], eax
	mov	eax, DWORD PTR __Pnode$[ebp]
	push	eax
	call	?_Myval@?$_List_val@U?$_List_simple_types@V?$VuBin@VFalconEntity@@@@@std@@@std@@SAAAV?$VuBin@VFalconEntity@@@@PAU?$_List_node@V?$VuBin@VFalconEntity@@@@PAX@2@@Z ; std::_List_val<std::_List_simple_types<VuBin<FalconEntity> > >::_Myval
	add	esp, 4
	mov	DWORD PTR tv134[ebp], eax
	lea	ecx, DWORD PTR $T3[ebp]
	push	ecx
	mov	ecx, DWORD PTR _this$[ebp]
	call	?_Getal@?$_List_alloc@$0A@U?$_List_base_types@V?$VuBin@VFalconEntity@@@@V?$allocator@V?$VuBin@VFalconEntity@@@@@std@@@std@@@std@@QBE?AU?$_Wrap_alloc@V?$allocator@U?$_List_node@V?$VuBin@VFalconEntity@@@@PAX@std@@@std@@@2@XZ ; std::_List_alloc<0,std::_List_base_types<VuBin<FalconEntity>,std::allocator<VuBin<FalconEntity> > > >::_Getal
	mov	DWORD PTR tv135[ebp], eax
	mov	edx, DWORD PTR tv133[ebp]
	push	edx
	mov	eax, DWORD PTR tv134[ebp]
	push	eax
	call	??$addressof@V?$VuBin@VFalconEntity@@@@@std@@YAPAV?$VuBin@VFalconEntity@@@@AAV1@@Z ; std::addressof<VuBin<FalconEntity> >
	add	esp, 4
	push	eax
	mov	ecx, DWORD PTR tv135[ebp]
	call	??$construct@V?$VuBin@VFalconEntity@@@@V1@@?$_Wrap_alloc@V?$allocator@U?$_List_node@V?$VuBin@VFalconEntity@@@@PAX@std@@@std@@@std@@QAEXPAV?$VuBin@VFalconEntity@@@@$$QAV2@@Z ; std::_Wrap_alloc<std::allocator<std::_List_node<VuBin<FalconEntity>,void *> > >::construct<VuBin<FalconEntity>,VuBin<FalconEntity> >
	jmp	SHORT $LN4@Buynode
__catch$??$_Buynode@V?$VuBin@VFalconEntity@@@@@?$_List_buy@V?$VuBin@VFalconEntity@@@@V?$allocator@V?$VuBin@VFalconEntity@@@@@std@@@std@@QAEPAU?$_List_node@V?$VuBin@VFalconEntity@@@@PAX@1@PAU21@0$$QAV?$VuBin@VFalconEntity@@@@@Z$0:
	push	1
	mov	ecx, DWORD PTR __Pnode$[ebp]
	push	ecx
	lea	edx, DWORD PTR $T2[ebp]
	push	edx
	mov	ecx, DWORD PTR _this$[ebp]
	call	?_Getal@?$_List_alloc@$0A@U?$_List_base_types@V?$VuBin@VFalconEntity@@@@V?$allocator@V?$VuBin@VFalconEntity@@@@@std@@@std@@@std@@QBE?AU?$_Wrap_alloc@V?$allocator@U?$_List_node@V?$VuBin@VFalconEntity@@@@PAX@std@@@std@@@2@XZ ; std::_List_alloc<0,std::_List_base_types<VuBin<FalconEntity>,std::allocator<VuBin<FalconEntity> > > >::_Getal
	mov	ecx, eax
	call	?deallocate@?$_Wrap_alloc@V?$allocator@U?$_List_node@V?$VuBin@VFalconEntity@@@@PAX@std@@@std@@@std@@QAEXPAU?$_List_node@V?$VuBin@VFalconEntity@@@@PAX@2@I@Z ; std::_Wrap_alloc<std::allocator<std::_List_node<VuBin<FalconEntity>,void *> > >::deallocate
	push	0
	push	0
	call	__CxxThrowException@8
	mov	eax, $LN7@Buynode
	ret	0
$LN4@Buynode:
	mov	DWORD PTR __$EHRec$[ebp+12], -1
	jmp	SHORT __tryend$??$_Buynode@V?$VuBin@VFalconEntity@@@@@?$_List_buy@V?$VuBin@VFalconEntity@@@@V?$allocator@V?$VuBin@VFalconEntity@@@@@std@@@std@@QAEPAU?$_List_node@V?$VuBin@VFalconEntity@@@@PAX@1@PAU21@0$$QAV?$VuBin@VFalconEntity@@@@@Z$1
$LN7@Buynode:
	mov	DWORD PTR __$EHRec$[ebp+12], -1
__tryend$??$_Buynode@V?$VuBin@VFalconEntity@@@@@?$_List_buy@V?$VuBin@VFalconEntity@@@@V?$allocator@V?$VuBin@VFalconEntity@@@@@std@@@std@@QAEPAU?$_List_node@V?$VuBin@VFalconEntity@@@@PAX@1@PAU21@0$$QAV?$VuBin@VFalconEntity@@@@@Z$1:
	mov	eax, DWORD PTR __Pnode$[ebp]
$LN3@Buynode:
	mov	ecx, DWORD PTR __$EHRec$[ebp+4]
	mov	DWORD PTR fs:0, ecx
	pop	ecx
	pop	edi
	pop	esi
	pop	ebx
	mov	esp, ebp
	pop	ebp
	ret	12					; 0000000cH
_TEXT	ENDS
;	COMDAT text$x
text$x	SEGMENT
__ehhandler$??$_Buynode@V?$VuBin@VFalconEntity@@@@@?$_List_buy@V?$VuBin@VFalconEntity@@@@V?$allocator@V?$VuBin@VFalconEntity@@@@@std@@@std@@QAEPAU?$_List_node@V?$VuBin@VFalconEntity@@@@PAX@1@PAU21@0$$QAV?$VuBin@VFalconEntity@@@@@Z:
	mov	edx, DWORD PTR [esp+8]
	lea	eax, DWORD PTR [edx+12]
	mov	ecx, DWORD PTR [edx-44]
	xor	ecx, eax
	call	@__security_check_cookie@4
	mov	eax, OFFSET __ehfuncinfo$??$_Buynode@V?$VuBin@VFalconEntity@@@@@?$_List_buy@V?$VuBin@VFalconEntity@@@@V?$allocator@V?$VuBin@VFalconEntity@@@@@std@@@std@@QAEPAU?$_List_node@V?$VuBin@VFalconEntity@@@@PAX@1@PAU21@0$$QAV?$VuBin@VFalconEntity@@@@@Z
	jmp	___CxxFrameHandler3
text$x	ENDS
??$_Buynode@V?$VuBin@VFalconEntity@@@@@?$_List_buy@V?$VuBin@VFalconEntity@@@@V?$allocator@V?$VuBin@VFalconEntity@@@@@std@@@std@@QAEPAU?$_List_node@V?$VuBin@VFalconEntity@@@@PAX@1@PAU21@0$$QAV?$VuBin@VFalconEntity@@@@@Z ENDP ; std::_List_buy<VuBin<FalconEntity>,std::allocator<VuBin<FalconEntity> > >::_Buynode<VuBin<FalconEntity> >
; Function compile flags: /Odtp
;	COMDAT ??__F?_System_object@?$_Error_objects@H@std@@2V_System_error_category@2@A@@YAXXZ
text$yd	SEGMENT
??__F?_System_object@?$_Error_objects@H@std@@2V_System_error_category@2@A@@YAXXZ PROC ; `dynamic atexit destructor for 'std::_Error_objects<int>::_System_object'', COMDAT
	push	ebp
	mov	ebp, esp
	mov	ecx, OFFSET ?_System_object@?$_Error_objects@H@std@@2V_System_error_category@2@A ; std::_Error_objects<int>::_System_object
	call	??1_System_error_category@std@@UAE@XZ
	pop	ebp
	ret	0
??__F?_System_object@?$_Error_objects@H@std@@2V_System_error_category@2@A@@YAXXZ ENDP ; `dynamic atexit destructor for 'std::_Error_objects<int>::_System_object''
text$yd	ENDS
; Function compile flags: /Odtp
; File c:\program files (x86)\microsoft visual studio 11.0\vc\include\xmemory0
;	COMDAT ??__E?_System_object@?$_Error_objects@H@std@@2V_System_error_category@2@A@@YAXXZ
text$yc	SEGMENT
??__E?_System_object@?$_Error_objects@H@std@@2V_System_error_category@2@A@@YAXXZ PROC ; `dynamic initializer for 'std::_Error_objects<int>::_System_object'', COMDAT

; 627  : 		{	// estimate maximum array size

	push	ebp
	mov	ebp, esp
	mov	ecx, OFFSET ?_System_object@?$_Error_objects@H@std@@2V_System_error_category@2@A ; std::_Error_objects<int>::_System_object
	call	??0_System_error_category@std@@QAE@XZ	; std::_System_error_category::_System_error_category
	push	OFFSET ??__F?_System_object@?$_Error_objects@H@std@@2V_System_error_category@2@A@@YAXXZ ; `dynamic atexit destructor for 'std::_Error_objects<int>::_System_object''
	call	_atexit
	add	esp, 4
	pop	ebp
	ret	0
??__E?_System_object@?$_Error_objects@H@std@@2V_System_error_category@2@A@@YAXXZ ENDP ; `dynamic initializer for 'std::_Error_objects<int>::_System_object''
text$yc	ENDS
; Function compile flags: /Odtp
;	COMDAT ??__F?_Iostream_object@?$_Error_objects@H@std@@2V_Iostream_error_category@2@A@@YAXXZ
text$yd	SEGMENT
??__F?_Iostream_object@?$_Error_objects@H@std@@2V_Iostream_error_category@2@A@@YAXXZ PROC ; `dynamic atexit destructor for 'std::_Error_objects<int>::_Iostream_object'', COMDAT
	push	ebp
	mov	ebp, esp
	mov	ecx, OFFSET ?_Iostream_object@?$_Error_objects@H@std@@2V_Iostream_error_category@2@A ; std::_Error_objects<int>::_Iostream_object
	call	??1_Iostream_error_category@std@@UAE@XZ
	pop	ebp
	ret	0
??__F?_Iostream_object@?$_Error_objects@H@std@@2V_Iostream_error_category@2@A@@YAXXZ ENDP ; `dynamic atexit destructor for 'std::_Error_objects<int>::_Iostream_object''
text$yd	ENDS
; Function compile flags: /Odtp
; File c:\program files (x86)\microsoft visual studio 11.0\vc\include\xmemory0
;	COMDAT ??__E?_Iostream_object@?$_Error_objects@H@std@@2V_Iostream_error_category@2@A@@YAXXZ
text$yc	SEGMENT
??__E?_Iostream_object@?$_Error_objects@H@std@@2V_Iostream_error_category@2@A@@YAXXZ PROC ; `dynamic initializer for 'std::_Error_objects<int>::_Iostream_object'', COMDAT

; 627  : 		{	// estimate maximum array size

	push	ebp
	mov	ebp, esp
	mov	ecx, OFFSET ?_Iostream_object@?$_Error_objects@H@std@@2V_Iostream_error_category@2@A ; std::_Error_objects<int>::_Iostream_object
	call	??0_Iostream_error_category@std@@QAE@XZ	; std::_Iostream_error_category::_Iostream_error_category
	push	OFFSET ??__F?_Iostream_object@?$_Error_objects@H@std@@2V_Iostream_error_category@2@A@@YAXXZ ; `dynamic atexit destructor for 'std::_Error_objects<int>::_Iostream_object''
	call	_atexit
	add	esp, 4
	pop	ebp
	ret	0
??__E?_Iostream_object@?$_Error_objects@H@std@@2V_Iostream_error_category@2@A@@YAXXZ ENDP ; `dynamic initializer for 'std::_Error_objects<int>::_Iostream_object''
text$yc	ENDS
; Function compile flags: /Odtp
;	COMDAT ??__F?_Generic_object@?$_Error_objects@H@std@@2V_Generic_error_category@2@A@@YAXXZ
text$yd	SEGMENT
??__F?_Generic_object@?$_Error_objects@H@std@@2V_Generic_error_category@2@A@@YAXXZ PROC ; `dynamic atexit destructor for 'std::_Error_objects<int>::_Generic_object'', COMDAT
	push	ebp
	mov	ebp, esp
	mov	ecx, OFFSET ?_Generic_object@?$_Error_objects@H@std@@2V_Generic_error_category@2@A ; std::_Error_objects<int>::_Generic_object
	call	??1_Generic_error_category@std@@UAE@XZ
	pop	ebp
	ret	0
??__F?_Generic_object@?$_Error_objects@H@std@@2V_Generic_error_category@2@A@@YAXXZ ENDP ; `dynamic atexit destructor for 'std::_Error_objects<int>::_Generic_object''
text$yd	ENDS
; Function compile flags: /Odtp
; File c:\program files (x86)\microsoft visual studio 11.0\vc\include\xmemory0
;	COMDAT ??__E?_Generic_object@?$_Error_objects@H@std@@2V_Generic_error_category@2@A@@YAXXZ
text$yc	SEGMENT
??__E?_Generic_object@?$_Error_objects@H@std@@2V_Generic_error_category@2@A@@YAXXZ PROC ; `dynamic initializer for 'std::_Error_objects<int>::_Generic_object'', COMDAT

; 627  : 		{	// estimate maximum array size

	push	ebp
	mov	ebp, esp
	mov	ecx, OFFSET ?_Generic_object@?$_Error_objects@H@std@@2V_Generic_error_category@2@A ; std::_Error_objects<int>::_Generic_object
	call	??0_Generic_error_category@std@@QAE@XZ	; std::_Generic_error_category::_Generic_error_category
	push	OFFSET ??__F?_Generic_object@?$_Error_objects@H@std@@2V_Generic_error_category@2@A@@YAXXZ ; `dynamic atexit destructor for 'std::_Error_objects<int>::_Generic_object''
	call	_atexit
	add	esp, 4
	pop	ebp
	ret	0
??__E?_Generic_object@?$_Error_objects@H@std@@2V_Generic_error_category@2@A@@YAXXZ ENDP ; `dynamic initializer for 'std::_Error_objects<int>::_Generic_object''
text$yc	ENDS
; Function compile flags: /Odtp
; File c:\program files (x86)\microsoft visual studio 11.0\vc\include\xmemory0
;	COMDAT ??$_Allocate@U?$_List_node@V?$VuBin@VFalconEntity@@@@PAX@std@@@std@@YAPAU?$_List_node@V?$VuBin@VFalconEntity@@@@PAX@0@IPAU10@@Z
_TEXT	SEGMENT
__Ptr$ = -4						; size = 4
__Count$ = 8						; size = 4
___formal$ = 12						; size = 4
??$_Allocate@U?$_List_node@V?$VuBin@VFalconEntity@@@@PAX@std@@@std@@YAPAU?$_List_node@V?$VuBin@VFalconEntity@@@@PAX@0@IPAU10@@Z PROC ; std::_Allocate<std::_List_node<VuBin<FalconEntity>,void *> >, COMDAT

; 22   : 	{	// allocate storage for _Count elements of type _Ty

	push	ebp
	mov	ebp, esp
	push	ecx

; 23   : 	void *_Ptr = 0;

	mov	DWORD PTR __Ptr$[ebp], 0

; 24   : 
; 25   : 	if (_Count == 0)

	cmp	DWORD PTR __Count$[ebp], 0
	jne	SHORT $LN4@Allocate

; 26   : 		;
; 27   : 	else if (((size_t)(-1) / sizeof (_Ty) < _Count)

	jmp	SHORT $LN3@Allocate
$LN4@Allocate:

; 28   : 		|| (_Ptr = ::operator new(_Count * sizeof (_Ty))) == 0)

	cmp	DWORD PTR __Count$[ebp], 357913941	; 15555555H
	ja	SHORT $LN1@Allocate
	mov	eax, DWORD PTR __Count$[ebp]
	imul	eax, 12					; 0000000cH
	push	eax
	call	??2@YAPAXI@Z				; operator new
	add	esp, 4
	mov	DWORD PTR __Ptr$[ebp], eax
	cmp	DWORD PTR __Ptr$[ebp], 0
	jne	SHORT $LN3@Allocate
$LN1@Allocate:

; 29   : 		_Xbad_alloc();	// report no memory

	call	?_Xbad_alloc@std@@YAXXZ			; std::_Xbad_alloc
$LN3@Allocate:

; 30   : 
; 31   : 	return ((_Ty *)_Ptr);

	mov	eax, DWORD PTR __Ptr$[ebp]
$LN6@Allocate:

; 32   : 	}

	mov	esp, ebp
	pop	ebp
	ret	0
??$_Allocate@U?$_List_node@V?$VuBin@VFalconEntity@@@@PAX@std@@@std@@YAPAU?$_List_node@V?$VuBin@VFalconEntity@@@@PAX@0@IPAU10@@Z ENDP ; std::_Allocate<std::_List_node<VuBin<FalconEntity>,void *> >
_TEXT	ENDS
; Function compile flags: /Odtp
; File c:\program files (x86)\microsoft visual studio 11.0\vc\include\xmemory0
;	COMDAT ??$_Allocate@D@std@@YAPADIPAD@Z
_TEXT	SEGMENT
__Ptr$ = -4						; size = 4
__Count$ = 8						; size = 4
___formal$ = 12						; size = 4
??$_Allocate@D@std@@YAPADIPAD@Z PROC			; std::_Allocate<char>, COMDAT

; 22   : 	{	// allocate storage for _Count elements of type _Ty

	push	ebp
	mov	ebp, esp
	push	ecx

; 23   : 	void *_Ptr = 0;

	mov	DWORD PTR __Ptr$[ebp], 0

; 24   : 
; 25   : 	if (_Count == 0)

	cmp	DWORD PTR __Count$[ebp], 0
	jne	SHORT $LN4@Allocate

; 26   : 		;
; 27   : 	else if (((size_t)(-1) / sizeof (_Ty) < _Count)

	jmp	SHORT $LN3@Allocate
$LN4@Allocate:

; 28   : 		|| (_Ptr = ::operator new(_Count * sizeof (_Ty))) == 0)

	cmp	DWORD PTR __Count$[ebp], -1
	ja	SHORT $LN1@Allocate
	mov	eax, DWORD PTR __Count$[ebp]
	push	eax
	call	??2@YAPAXI@Z				; operator new
	add	esp, 4
	mov	DWORD PTR __Ptr$[ebp], eax
	cmp	DWORD PTR __Ptr$[ebp], 0
	jne	SHORT $LN3@Allocate
$LN1@Allocate:

; 29   : 		_Xbad_alloc();	// report no memory

	call	?_Xbad_alloc@std@@YAXXZ			; std::_Xbad_alloc
$LN3@Allocate:

; 30   : 
; 31   : 	return ((_Ty *)_Ptr);

	mov	eax, DWORD PTR __Ptr$[ebp]
$LN6@Allocate:

; 32   : 	}

	mov	esp, ebp
	pop	ebp
	ret	0
??$_Allocate@D@std@@YAPADIPAD@Z ENDP			; std::_Allocate<char>
_TEXT	ENDS
; Function compile flags: /Odtp
; File c:\program files (x86)\microsoft visual studio 11.0\vc\include\xmemory0
;	COMDAT ??$construct@PAU?$_List_node@V?$VuBin@VFalconEntity@@@@PAX@std@@AAPAU12@@?$_Wrap_alloc@V?$allocator@U?$_List_node@V?$VuBin@VFalconEntity@@@@PAX@std@@@std@@@std@@QAEXPAPAU?$_List_node@V?$VuBin@VFalconEntity@@@@PAX@1@AAPAU21@@Z
_TEXT	SEGMENT
_this$ = -4						; size = 4
__Ptr$ = 8						; size = 4
__V0$ = 12						; size = 4
??$construct@PAU?$_List_node@V?$VuBin@VFalconEntity@@@@PAX@std@@AAPAU12@@?$_Wrap_alloc@V?$allocator@U?$_List_node@V?$VuBin@VFalconEntity@@@@PAX@std@@@std@@@std@@QAEXPAPAU?$_List_node@V?$VuBin@VFalconEntity@@@@PAX@1@AAPAU21@@Z PROC ; std::_Wrap_alloc<std::allocator<std::_List_node<VuBin<FalconEntity>,void *> > >::construct<std::_List_node<VuBin<FalconEntity>,void *> *,std::_List_node<VuBin<FalconEntity>,void *> * &>, COMDAT
; _this$ = ecx

; 903  : _VARIADIC_EXPAND_0X(_WRAP_ALLOC_CONSTRUCT, , , , )

	push	ebp
	mov	ebp, esp
	push	ecx
	mov	DWORD PTR _this$[ebp], ecx
	mov	eax, DWORD PTR __V0$[ebp]
	push	eax
	call	??$forward@AAPAU?$_List_node@V?$VuBin@VFalconEntity@@@@PAX@std@@@std@@YAAAPAU?$_List_node@V?$VuBin@VFalconEntity@@@@PAX@0@AAPAU10@@Z ; std::forward<std::_List_node<VuBin<FalconEntity>,void *> * &>
	add	esp, 4
	push	eax
	mov	ecx, DWORD PTR __Ptr$[ebp]
	push	ecx
	mov	edx, DWORD PTR _this$[ebp]
	push	edx
	call	??$construct@PAU?$_List_node@V?$VuBin@VFalconEntity@@@@PAX@std@@AAPAU12@@?$allocator_traits@V?$allocator@U?$_List_node@V?$VuBin@VFalconEntity@@@@PAX@std@@@std@@@std@@SAXAAV?$allocator@U?$_List_node@V?$VuBin@VFalconEntity@@@@PAX@std@@@1@PAPAU?$_List_node@V?$VuBin@VFalconEntity@@@@PAX@1@AAPAU31@@Z ; std::allocator_traits<std::allocator<std::_List_node<VuBin<FalconEntity>,void *> > >::construct<std::_List_node<VuBin<FalconEntity>,void *> *,std::_List_node<VuBin<FalconEntity>,void *> * &>
	add	esp, 12					; 0000000cH
	mov	esp, ebp
	pop	ebp
	ret	8
??$construct@PAU?$_List_node@V?$VuBin@VFalconEntity@@@@PAX@std@@AAPAU12@@?$_Wrap_alloc@V?$allocator@U?$_List_node@V?$VuBin@VFalconEntity@@@@PAX@std@@@std@@@std@@QAEXPAPAU?$_List_node@V?$VuBin@VFalconEntity@@@@PAX@1@AAPAU21@@Z ENDP ; std::_Wrap_alloc<std::allocator<std::_List_node<VuBin<FalconEntity>,void *> > >::construct<std::_List_node<VuBin<FalconEntity>,void *> *,std::_List_node<VuBin<FalconEntity>,void *> * &>
_TEXT	ENDS
; Function compile flags: /Odtp
; File c:\program files (x86)\microsoft visual studio 11.0\vc\include\xstddef
;	COMDAT ??$addressof@$$CBV?$VuBin@VFalconEntity@@@@@std@@YAPBV?$VuBin@VFalconEntity@@@@ABV1@@Z
_TEXT	SEGMENT
__Val$ = 8						; size = 4
??$addressof@$$CBV?$VuBin@VFalconEntity@@@@@std@@YAPBV?$VuBin@VFalconEntity@@@@ABV1@@Z PROC ; std::addressof<VuBin<FalconEntity> const >, COMDAT

; 85   : 	{	// return address of _Val

	push	ebp
	mov	ebp, esp

; 86   : 	return (reinterpret_cast<_Ty *>(
; 87   : 		(&const_cast<char&>(
; 88   : 		reinterpret_cast<const volatile char&>(_Val)))));

	mov	eax, DWORD PTR __Val$[ebp]

; 89   : 	}

	pop	ebp
	ret	0
??$addressof@$$CBV?$VuBin@VFalconEntity@@@@@std@@YAPBV?$VuBin@VFalconEntity@@@@ABV1@@Z ENDP ; std::addressof<VuBin<FalconEntity> const >
_TEXT	ENDS
; Function compile flags: /Odtp
; File c:\program files (x86)\microsoft visual studio 11.0\vc\include\xmemory0
;	COMDAT ??$destroy@V?$VuBin@VFalconEntity@@@@@?$_Wrap_alloc@V?$allocator@U?$_List_node@V?$VuBin@VFalconEntity@@@@PAX@std@@@std@@@std@@QAEXPAV?$VuBin@VFalconEntity@@@@@Z
_TEXT	SEGMENT
_this$ = -4						; size = 4
__Ptr$ = 8						; size = 4
??$destroy@V?$VuBin@VFalconEntity@@@@@?$_Wrap_alloc@V?$allocator@U?$_List_node@V?$VuBin@VFalconEntity@@@@PAX@std@@@std@@@std@@QAEXPAV?$VuBin@VFalconEntity@@@@@Z PROC ; std::_Wrap_alloc<std::allocator<std::_List_node<VuBin<FalconEntity>,void *> > >::destroy<VuBin<FalconEntity> >, COMDAT
; _this$ = ecx

; 907  : 		void destroy(_Ty *_Ptr)

	push	ebp
	mov	ebp, esp
	push	ecx
	mov	DWORD PTR _this$[ebp], ecx

; 908  : 		{	// destroy object at _Ptr
; 909  : 		_Mytraits::destroy(*this, _Ptr);

	mov	eax, DWORD PTR __Ptr$[ebp]
	push	eax
	mov	ecx, DWORD PTR _this$[ebp]
	push	ecx
	call	??$destroy@V?$VuBin@VFalconEntity@@@@@?$allocator_traits@V?$allocator@U?$_List_node@V?$VuBin@VFalconEntity@@@@PAX@std@@@std@@@std@@SAXAAV?$allocator@U?$_List_node@V?$VuBin@VFalconEntity@@@@PAX@std@@@1@PAV?$VuBin@VFalconEntity@@@@@Z ; std::allocator_traits<std::allocator<std::_List_node<VuBin<FalconEntity>,void *> > >::destroy<VuBin<FalconEntity> >
	add	esp, 8

; 910  : 		}

	mov	esp, ebp
	pop	ebp
	ret	4
??$destroy@V?$VuBin@VFalconEntity@@@@@?$_Wrap_alloc@V?$allocator@U?$_List_node@V?$VuBin@VFalconEntity@@@@PAX@std@@@std@@@std@@QAEXPAV?$VuBin@VFalconEntity@@@@@Z ENDP ; std::_Wrap_alloc<std::allocator<std::_List_node<VuBin<FalconEntity>,void *> > >::destroy<VuBin<FalconEntity> >
_TEXT	ENDS
; Function compile flags: /Odtp
; File c:\program files (x86)\microsoft visual studio 11.0\vc\include\xstddef
;	COMDAT ??$addressof@V?$VuBin@VFalconEntity@@@@@std@@YAPAV?$VuBin@VFalconEntity@@@@AAV1@@Z
_TEXT	SEGMENT
__Val$ = 8						; size = 4
??$addressof@V?$VuBin@VFalconEntity@@@@@std@@YAPAV?$VuBin@VFalconEntity@@@@AAV1@@Z PROC ; std::addressof<VuBin<FalconEntity> >, COMDAT

; 85   : 	{	// return address of _Val

	push	ebp
	mov	ebp, esp

; 86   : 	return (reinterpret_cast<_Ty *>(
; 87   : 		(&const_cast<char&>(
; 88   : 		reinterpret_cast<const volatile char&>(_Val)))));

	mov	eax, DWORD PTR __Val$[ebp]

; 89   : 	}

	pop	ebp
	ret	0
??$addressof@V?$VuBin@VFalconEntity@@@@@std@@YAPAV?$VuBin@VFalconEntity@@@@AAV1@@Z ENDP ; std::addressof<VuBin<FalconEntity> >
_TEXT	ENDS
; Function compile flags: /Odtp
; File c:\program files (x86)\microsoft visual studio 11.0\vc\include\xmemory0
;	COMDAT ??$destroy@PAU?$_List_node@V?$VuBin@VFalconEntity@@@@PAX@std@@@?$_Wrap_alloc@V?$allocator@U?$_List_node@V?$VuBin@VFalconEntity@@@@PAX@std@@@std@@@std@@QAEXPAPAU?$_List_node@V?$VuBin@VFalconEntity@@@@PAX@1@@Z
_TEXT	SEGMENT
_this$ = -4						; size = 4
__Ptr$ = 8						; size = 4
??$destroy@PAU?$_List_node@V?$VuBin@VFalconEntity@@@@PAX@std@@@?$_Wrap_alloc@V?$allocator@U?$_List_node@V?$VuBin@VFalconEntity@@@@PAX@std@@@std@@@std@@QAEXPAPAU?$_List_node@V?$VuBin@VFalconEntity@@@@PAX@1@@Z PROC ; std::_Wrap_alloc<std::allocator<std::_List_node<VuBin<FalconEntity>,void *> > >::destroy<std::_List_node<VuBin<FalconEntity>,void *> *>, COMDAT
; _this$ = ecx

; 907  : 		void destroy(_Ty *_Ptr)

	push	ebp
	mov	ebp, esp
	push	ecx
	mov	DWORD PTR _this$[ebp], ecx

; 908  : 		{	// destroy object at _Ptr
; 909  : 		_Mytraits::destroy(*this, _Ptr);

	mov	eax, DWORD PTR __Ptr$[ebp]
	push	eax
	mov	ecx, DWORD PTR _this$[ebp]
	push	ecx
	call	??$destroy@PAU?$_List_node@V?$VuBin@VFalconEntity@@@@PAX@std@@@?$allocator_traits@V?$allocator@U?$_List_node@V?$VuBin@VFalconEntity@@@@PAX@std@@@std@@@std@@SAXAAV?$allocator@U?$_List_node@V?$VuBin@VFalconEntity@@@@PAX@std@@@1@PAPAU?$_List_node@V?$VuBin@VFalconEntity@@@@PAX@1@@Z ; std::allocator_traits<std::allocator<std::_List_node<VuBin<FalconEntity>,void *> > >::destroy<std::_List_node<VuBin<FalconEntity>,void *> *>
	add	esp, 8

; 910  : 		}

	mov	esp, ebp
	pop	ebp
	ret	4
??$destroy@PAU?$_List_node@V?$VuBin@VFalconEntity@@@@PAX@std@@@?$_Wrap_alloc@V?$allocator@U?$_List_node@V?$VuBin@VFalconEntity@@@@PAX@std@@@std@@@std@@QAEXPAPAU?$_List_node@V?$VuBin@VFalconEntity@@@@PAX@1@@Z ENDP ; std::_Wrap_alloc<std::allocator<std::_List_node<VuBin<FalconEntity>,void *> > >::destroy<std::_List_node<VuBin<FalconEntity>,void *> *>
_TEXT	ENDS
; Function compile flags: /Odtp
; File c:\program files (x86)\microsoft visual studio 11.0\vc\include\xstddef
;	COMDAT ??$addressof@PAU?$_List_node@V?$VuBin@VFalconEntity@@@@PAX@std@@@std@@YAPAPAU?$_List_node@V?$VuBin@VFalconEntity@@@@PAX@0@AAPAU10@@Z
_TEXT	SEGMENT
__Val$ = 8						; size = 4
??$addressof@PAU?$_List_node@V?$VuBin@VFalconEntity@@@@PAX@std@@@std@@YAPAPAU?$_List_node@V?$VuBin@VFalconEntity@@@@PAX@0@AAPAU10@@Z PROC ; std::addressof<std::_List_node<VuBin<FalconEntity>,void *> *>, COMDAT

; 85   : 	{	// return address of _Val

	push	ebp
	mov	ebp, esp

; 86   : 	return (reinterpret_cast<_Ty *>(
; 87   : 		(&const_cast<char&>(
; 88   : 		reinterpret_cast<const volatile char&>(_Val)))));

	mov	eax, DWORD PTR __Val$[ebp]

; 89   : 	}

	pop	ebp
	ret	0
??$addressof@PAU?$_List_node@V?$VuBin@VFalconEntity@@@@PAX@std@@@std@@YAPAPAU?$_List_node@V?$VuBin@VFalconEntity@@@@PAX@0@AAPAU10@@Z ENDP ; std::addressof<std::_List_node<VuBin<FalconEntity>,void *> *>
_TEXT	ENDS
; Function compile flags: /Odtp
; File c:\program files (x86)\microsoft visual studio 11.0\vc\include\xstddef
;	COMDAT ??$addressof@D@std@@YAPADAAD@Z
_TEXT	SEGMENT
__Val$ = 8						; size = 4
??$addressof@D@std@@YAPADAAD@Z PROC			; std::addressof<char>, COMDAT

; 85   : 	{	// return address of _Val

	push	ebp
	mov	ebp, esp

; 86   : 	return (reinterpret_cast<_Ty *>(
; 87   : 		(&const_cast<char&>(
; 88   : 		reinterpret_cast<const volatile char&>(_Val)))));

	mov	eax, DWORD PTR __Val$[ebp]

; 89   : 	}

	pop	ebp
	ret	0
??$addressof@D@std@@YAPADAAD@Z ENDP			; std::addressof<char>
_TEXT	ENDS
; Function compile flags: /Odtp
; File c:\program files (x86)\microsoft visual studio 11.0\vc\include\xmemory0
;	COMDAT ??$destroy@PAD@?$_Wrap_alloc@V?$allocator@D@std@@@std@@QAEXPAPAD@Z
_TEXT	SEGMENT
_this$ = -4						; size = 4
__Ptr$ = 8						; size = 4
??$destroy@PAD@?$_Wrap_alloc@V?$allocator@D@std@@@std@@QAEXPAPAD@Z PROC ; std::_Wrap_alloc<std::allocator<char> >::destroy<char *>, COMDAT
; _this$ = ecx

; 907  : 		void destroy(_Ty *_Ptr)

	push	ebp
	mov	ebp, esp
	push	ecx
	mov	DWORD PTR _this$[ebp], ecx

; 908  : 		{	// destroy object at _Ptr
; 909  : 		_Mytraits::destroy(*this, _Ptr);

	mov	eax, DWORD PTR __Ptr$[ebp]
	push	eax
	mov	ecx, DWORD PTR _this$[ebp]
	push	ecx
	call	??$destroy@PAD@?$allocator_traits@V?$allocator@D@std@@@std@@SAXAAV?$allocator@D@1@PAPAD@Z ; std::allocator_traits<std::allocator<char> >::destroy<char *>
	add	esp, 8

; 910  : 		}

	mov	esp, ebp
	pop	ebp
	ret	4
??$destroy@PAD@?$_Wrap_alloc@V?$allocator@D@std@@@std@@QAEXPAPAD@Z ENDP ; std::_Wrap_alloc<std::allocator<char> >::destroy<char *>
_TEXT	ENDS
; Function compile flags: /Odtp
; File c:\program files (x86)\microsoft visual studio 11.0\vc\include\xmemory0
;	COMDAT ??$construct@PADAAPAD@?$_Wrap_alloc@V?$allocator@D@std@@@std@@QAEXPAPADAAPAD@Z
_TEXT	SEGMENT
_this$ = -4						; size = 4
__Ptr$ = 8						; size = 4
__V0$ = 12						; size = 4
??$construct@PADAAPAD@?$_Wrap_alloc@V?$allocator@D@std@@@std@@QAEXPAPADAAPAD@Z PROC ; std::_Wrap_alloc<std::allocator<char> >::construct<char *,char * &>, COMDAT
; _this$ = ecx

; 903  : _VARIADIC_EXPAND_0X(_WRAP_ALLOC_CONSTRUCT, , , , )

	push	ebp
	mov	ebp, esp
	push	ecx
	mov	DWORD PTR _this$[ebp], ecx
	mov	eax, DWORD PTR __V0$[ebp]
	push	eax
	call	??$forward@AAPAD@std@@YAAAPADAAPAD@Z	; std::forward<char * &>
	add	esp, 4
	push	eax
	mov	ecx, DWORD PTR __Ptr$[ebp]
	push	ecx
	mov	edx, DWORD PTR _this$[ebp]
	push	edx
	call	??$construct@PADAAPAD@?$allocator_traits@V?$allocator@D@std@@@std@@SAXAAV?$allocator@D@1@PAPADAAPAD@Z ; std::allocator_traits<std::allocator<char> >::construct<char *,char * &>
	add	esp, 12					; 0000000cH
	mov	esp, ebp
	pop	ebp
	ret	8
??$construct@PADAAPAD@?$_Wrap_alloc@V?$allocator@D@std@@@std@@QAEXPAPADAAPAD@Z ENDP ; std::_Wrap_alloc<std::allocator<char> >::construct<char *,char * &>
_TEXT	ENDS
; Function compile flags: /Odtp
; File c:\program files (x86)\microsoft visual studio 11.0\vc\include\xmemory0
;	COMDAT ?pointer_to@?$pointer_traits@PBV?$VuBin@VFalconEntity@@@@@std@@SAPBV?$VuBin@VFalconEntity@@@@ABV3@@Z
_TEXT	SEGMENT
__Val$ = 8						; size = 4
?pointer_to@?$pointer_traits@PBV?$VuBin@VFalconEntity@@@@@std@@SAPBV?$VuBin@VFalconEntity@@@@ABV3@@Z PROC ; std::pointer_traits<VuBin<FalconEntity> const *>::pointer_to, COMDAT

; 232  : 		{	// convert raw reference to pointer

	push	ebp
	mov	ebp, esp

; 233  : 		return (_STD addressof(_Val));

	mov	eax, DWORD PTR __Val$[ebp]
	push	eax
	call	??$addressof@$$CBV?$VuBin@VFalconEntity@@@@@std@@YAPBV?$VuBin@VFalconEntity@@@@ABV1@@Z ; std::addressof<VuBin<FalconEntity> const >
	add	esp, 4

; 234  : 		}

	pop	ebp
	ret	0
?pointer_to@?$pointer_traits@PBV?$VuBin@VFalconEntity@@@@@std@@SAPBV?$VuBin@VFalconEntity@@@@ABV3@@Z ENDP ; std::pointer_traits<VuBin<FalconEntity> const *>::pointer_to
_TEXT	ENDS
; Function compile flags: /Odtp
; File c:\program files (x86)\microsoft visual studio 11.0\vc\include\xmemory0
;	COMDAT ?pointer_to@?$pointer_traits@PAV?$VuBin@VFalconEntity@@@@@std@@SAPAV?$VuBin@VFalconEntity@@@@AAV3@@Z
_TEXT	SEGMENT
__Val$ = 8						; size = 4
?pointer_to@?$pointer_traits@PAV?$VuBin@VFalconEntity@@@@@std@@SAPAV?$VuBin@VFalconEntity@@@@AAV3@@Z PROC ; std::pointer_traits<VuBin<FalconEntity> *>::pointer_to, COMDAT

; 232  : 		{	// convert raw reference to pointer

	push	ebp
	mov	ebp, esp

; 233  : 		return (_STD addressof(_Val));

	mov	eax, DWORD PTR __Val$[ebp]
	push	eax
	call	??$addressof@V?$VuBin@VFalconEntity@@@@@std@@YAPAV?$VuBin@VFalconEntity@@@@AAV1@@Z ; std::addressof<VuBin<FalconEntity> >
	add	esp, 4

; 234  : 		}

	pop	ebp
	ret	0
?pointer_to@?$pointer_traits@PAV?$VuBin@VFalconEntity@@@@@std@@SAPAV?$VuBin@VFalconEntity@@@@AAV3@@Z ENDP ; std::pointer_traits<VuBin<FalconEntity> *>::pointer_to
_TEXT	ENDS
; Function compile flags: /Odtp
; File c:\program files (x86)\microsoft visual studio 11.0\vc\include\list
;	COMDAT ??$_Insert@V?$VuBin@VFalconEntity@@@@@?$list@V?$VuBin@VFalconEntity@@@@V?$allocator@V?$VuBin@VFalconEntity@@@@@std@@@std@@QAEXV?$_List_unchecked_const_iterator@V?$_List_val@U?$_List_simple_types@V?$VuBin@VFalconEntity@@@@@std@@@std@@U_Iterator_base0@2@@1@$$QAV?$VuBin@VFalconEntity@@@@@Z
_TEXT	SEGMENT
_this$ = -12						; size = 4
__Newnode$ = -8						; size = 4
__Pnode$ = -4						; size = 4
__Where$ = 8						; size = 4
__V0$ = 12						; size = 4
??$_Insert@V?$VuBin@VFalconEntity@@@@@?$list@V?$VuBin@VFalconEntity@@@@V?$allocator@V?$VuBin@VFalconEntity@@@@@std@@@std@@QAEXV?$_List_unchecked_const_iterator@V?$_List_val@U?$_List_simple_types@V?$VuBin@VFalconEntity@@@@@std@@@std@@U_Iterator_base0@2@@1@$$QAV?$VuBin@VFalconEntity@@@@@Z PROC ; std::list<VuBin<FalconEntity>,std::allocator<VuBin<FalconEntity> > >::_Insert<VuBin<FalconEntity> >, COMDAT
; _this$ = ecx

; 1086 : _VARIADIC_EXPAND_0X(_LIST_EMPLACE_INSERT, , , , )

	push	ebp
	mov	ebp, esp
	sub	esp, 12					; 0000000cH
	mov	DWORD PTR _this$[ebp], ecx
	lea	ecx, DWORD PTR __Where$[ebp]
	call	?_Mynode@?$_List_unchecked_const_iterator@V?$_List_val@U?$_List_simple_types@V?$VuBin@VFalconEntity@@@@@std@@@std@@U_Iterator_base0@2@@std@@QBEPAU?$_List_node@V?$VuBin@VFalconEntity@@@@PAX@2@XZ ; std::_List_unchecked_const_iterator<std::_List_val<std::_List_simple_types<VuBin<FalconEntity> > >,std::_Iterator_base0>::_Mynode
	mov	DWORD PTR __Pnode$[ebp], eax
	mov	eax, DWORD PTR __V0$[ebp]
	push	eax
	call	??$forward@V?$VuBin@VFalconEntity@@@@@std@@YA$$QAV?$VuBin@VFalconEntity@@@@AAV1@@Z ; std::forward<VuBin<FalconEntity> >
	add	esp, 4
	push	eax
	mov	ecx, DWORD PTR __Pnode$[ebp]
	push	ecx
	call	?_Prevnode@?$_List_val@U?$_List_simple_types@V?$VuBin@VFalconEntity@@@@@std@@@std@@SAAAPAU?$_List_node@V?$VuBin@VFalconEntity@@@@PAX@2@PAU32@@Z ; std::_List_val<std::_List_simple_types<VuBin<FalconEntity> > >::_Prevnode
	add	esp, 4
	mov	edx, DWORD PTR [eax]
	push	edx
	mov	eax, DWORD PTR __Pnode$[ebp]
	push	eax
	mov	ecx, DWORD PTR _this$[ebp]
	call	??$_Buynode@V?$VuBin@VFalconEntity@@@@@?$_List_buy@V?$VuBin@VFalconEntity@@@@V?$allocator@V?$VuBin@VFalconEntity@@@@@std@@@std@@QAEPAU?$_List_node@V?$VuBin@VFalconEntity@@@@PAX@1@PAU21@0$$QAV?$VuBin@VFalconEntity@@@@@Z ; std::_List_buy<VuBin<FalconEntity>,std::allocator<VuBin<FalconEntity> > >::_Buynode<VuBin<FalconEntity> >
	mov	DWORD PTR __Newnode$[ebp], eax
	push	1
	mov	ecx, DWORD PTR _this$[ebp]
	call	?_Incsize@?$list@V?$VuBin@VFalconEntity@@@@V?$allocator@V?$VuBin@VFalconEntity@@@@@std@@@std@@QAEXI@Z ; std::list<VuBin<FalconEntity>,std::allocator<VuBin<FalconEntity> > >::_Incsize
	mov	ecx, DWORD PTR __Pnode$[ebp]
	push	ecx
	call	?_Prevnode@?$_List_val@U?$_List_simple_types@V?$VuBin@VFalconEntity@@@@@std@@@std@@SAAAPAU?$_List_node@V?$VuBin@VFalconEntity@@@@PAX@2@PAU32@@Z ; std::_List_val<std::_List_simple_types<VuBin<FalconEntity> > >::_Prevnode
	add	esp, 4
	mov	edx, DWORD PTR __Newnode$[ebp]
	mov	DWORD PTR [eax], edx
	mov	eax, DWORD PTR __Newnode$[ebp]
	push	eax
	call	?_Prevnode@?$_List_val@U?$_List_simple_types@V?$VuBin@VFalconEntity@@@@@std@@@std@@SAAAPAU?$_List_node@V?$VuBin@VFalconEntity@@@@PAX@2@PAU32@@Z ; std::_List_val<std::_List_simple_types<VuBin<FalconEntity> > >::_Prevnode
	add	esp, 4
	mov	ecx, DWORD PTR [eax]
	push	ecx
	call	?_Nextnode@?$_List_val@U?$_List_simple_types@V?$VuBin@VFalconEntity@@@@@std@@@std@@SAAAPAU?$_List_node@V?$VuBin@VFalconEntity@@@@PAX@2@PAU32@@Z ; std::_List_val<std::_List_simple_types<VuBin<FalconEntity> > >::_Nextnode
	add	esp, 4
	mov	edx, DWORD PTR __Newnode$[ebp]
	mov	DWORD PTR [eax], edx
	mov	esp, ebp
	pop	ebp
	ret	8
??$_Insert@V?$VuBin@VFalconEntity@@@@@?$list@V?$VuBin@VFalconEntity@@@@V?$allocator@V?$VuBin@VFalconEntity@@@@@std@@@std@@QAEXV?$_List_unchecked_const_iterator@V?$_List_val@U?$_List_simple_types@V?$VuBin@VFalconEntity@@@@@std@@@std@@U_Iterator_base0@2@@1@$$QAV?$VuBin@VFalconEntity@@@@@Z ENDP ; std::list<VuBin<FalconEntity>,std::allocator<VuBin<FalconEntity> > >::_Insert<VuBin<FalconEntity> >
_TEXT	ENDS
; Function compile flags: /Odtp
; File c:\program files (x86)\microsoft visual studio 11.0\vc\include\type_traits
;	COMDAT ??$forward@V?$VuBin@VFalconEntity@@@@@std@@YA$$QAV?$VuBin@VFalconEntity@@@@AAV1@@Z
_TEXT	SEGMENT
__Arg$ = 8						; size = 4
??$forward@V?$VuBin@VFalconEntity@@@@@std@@YA$$QAV?$VuBin@VFalconEntity@@@@AAV1@@Z PROC ; std::forward<VuBin<FalconEntity> >, COMDAT

; 1775 : 	{	// forward an lvalue

	push	ebp
	mov	ebp, esp

; 1776 : 	return (static_cast<_Ty&&>(_Arg));

	mov	eax, DWORD PTR __Arg$[ebp]

; 1777 : 	}

	pop	ebp
	ret	0
??$forward@V?$VuBin@VFalconEntity@@@@@std@@YA$$QAV?$VuBin@VFalconEntity@@@@AAV1@@Z ENDP ; std::forward<VuBin<FalconEntity> >
_TEXT	ENDS
; Function compile flags: /Odtp
; File c:\program files (x86)\microsoft visual studio 11.0\vc\include\list
;	COMDAT ??0?$_List_unchecked_iterator@V?$_List_val@U?$_List_simple_types@V?$VuBin@VFalconEntity@@@@@std@@@std@@@std@@QAE@PAU?$_List_node@V?$VuBin@VFalconEntity@@@@PAX@1@PBV?$_List_val@U?$_List_simple_types@V?$VuBin@VFalconEntity@@@@@std@@@1@@Z
_TEXT	SEGMENT
_this$ = -4						; size = 4
__Pnode$ = 8						; size = 4
__Plist$ = 12						; size = 4
??0?$_List_unchecked_iterator@V?$_List_val@U?$_List_simple_types@V?$VuBin@VFalconEntity@@@@@std@@@std@@@std@@QAE@PAU?$_List_node@V?$VuBin@VFalconEntity@@@@PAX@1@PBV?$_List_val@U?$_List_simple_types@V?$VuBin@VFalconEntity@@@@@std@@@1@@Z PROC ; std::_List_unchecked_iterator<std::_List_val<std::_List_simple_types<VuBin<FalconEntity> > > >::_List_unchecked_iterator<std::_List_val<std::_List_simple_types<VuBin<FalconEntity> > > >, COMDAT
; _this$ = ecx

; 124  : 		{	// construct with node pointer _Pnode

	push	ebp
	mov	ebp, esp
	push	ecx
	mov	DWORD PTR _this$[ebp], ecx
	mov	eax, DWORD PTR __Plist$[ebp]
	push	eax
	mov	ecx, DWORD PTR __Pnode$[ebp]
	push	ecx
	mov	ecx, DWORD PTR _this$[ebp]
	call	??0?$_List_unchecked_const_iterator@V?$_List_val@U?$_List_simple_types@V?$VuBin@VFalconEntity@@@@@std@@@std@@U_Iterator_base0@2@@std@@QAE@PAU?$_List_node@V?$VuBin@VFalconEntity@@@@PAX@1@PBV?$_List_val@U?$_List_simple_types@V?$VuBin@VFalconEntity@@@@@std@@@1@@Z ; std::_List_unchecked_const_iterator<std::_List_val<std::_List_simple_types<VuBin<FalconEntity> > >,std::_Iterator_base0>::_List_unchecked_const_iterator<std::_List_val<std::_List_simple_types<VuBin<FalconEntity> > >,std::_Iterator_base0>

; 125  : 		}

	mov	eax, DWORD PTR _this$[ebp]
	mov	esp, ebp
	pop	ebp
	ret	8
??0?$_List_unchecked_iterator@V?$_List_val@U?$_List_simple_types@V?$VuBin@VFalconEntity@@@@@std@@@std@@@std@@QAE@PAU?$_List_node@V?$VuBin@VFalconEntity@@@@PAX@1@PBV?$_List_val@U?$_List_simple_types@V?$VuBin@VFalconEntity@@@@@std@@@1@@Z ENDP ; std::_List_unchecked_iterator<std::_List_val<std::_List_simple_types<VuBin<FalconEntity> > > >::_List_unchecked_iterator<std::_List_val<std::_List_simple_types<VuBin<FalconEntity> > > >
_TEXT	ENDS
; Function compile flags: /Odtp
; File c:\users\zhitao li\documents\visual studio 2012\projects\freefalcon\vu2\include\vu_templates.h
;	COMDAT ??$?9VFalconEntity@@@@YA_NPBXABV?$VuBin@VFalconEntity@@@@@Z
_TEXT	SEGMENT
tv67 = -4						; size = 4
_le$ = 8						; size = 4
_re$ = 12						; size = 4
??$?9VFalconEntity@@@@YA_NPBXABV?$VuBin@VFalconEntity@@@@@Z PROC ; operator!=<FalconEntity>, COMDAT

; 74   : template <class E> bool operator!=(const void* le, const VuBin<E> &re){ return ((void*)re.get()) != le; }

	push	ebp
	mov	ebp, esp
	push	ecx
	mov	ecx, DWORD PTR _re$[ebp]
	call	?get@?$VuBin@VFalconEntity@@@@QBEPAVFalconEntity@@XZ ; VuBin<FalconEntity>::get
	cmp	eax, DWORD PTR _le$[ebp]
	je	SHORT $LN3@operator
	mov	DWORD PTR tv67[ebp], 1
	jmp	SHORT $LN4@operator
$LN3@operator:
	mov	DWORD PTR tv67[ebp], 0
$LN4@operator:
	mov	al, BYTE PTR tv67[ebp]
	mov	esp, ebp
	pop	ebp
	ret	0
??$?9VFalconEntity@@@@YA_NPBXABV?$VuBin@VFalconEntity@@@@@Z ENDP ; operator!=<FalconEntity>
_TEXT	ENDS
; Function compile flags: /Odtp
; File c:\users\zhitao li\documents\visual studio 2012\projects\freefalcon\vu2\include\vu_templates.h
;	COMDAT ??$?9VFlightClass@@@@YA_NPBXABV?$VuBin@VFlightClass@@@@@Z
_TEXT	SEGMENT
tv67 = -4						; size = 4
_le$ = 8						; size = 4
_re$ = 12						; size = 4
??$?9VFlightClass@@@@YA_NPBXABV?$VuBin@VFlightClass@@@@@Z PROC ; operator!=<FlightClass>, COMDAT

; 74   : template <class E> bool operator!=(const void* le, const VuBin<E> &re){ return ((void*)re.get()) != le; }

	push	ebp
	mov	ebp, esp
	push	ecx
	mov	ecx, DWORD PTR _re$[ebp]
	call	?get@?$VuBin@VFlightClass@@@@QBEPAVFlightClass@@XZ ; VuBin<FlightClass>::get
	cmp	eax, DWORD PTR _le$[ebp]
	je	SHORT $LN3@operator
	mov	DWORD PTR tv67[ebp], 1
	jmp	SHORT $LN4@operator
$LN3@operator:
	mov	DWORD PTR tv67[ebp], 0
$LN4@operator:
	mov	al, BYTE PTR tv67[ebp]
	mov	esp, ebp
	pop	ebp
	ret	0
??$?9VFlightClass@@@@YA_NPBXABV?$VuBin@VFlightClass@@@@@Z ENDP ; operator!=<FlightClass>
_TEXT	ENDS
; Function compile flags: /Odtp
; File c:\users\zhitao li\documents\visual studio 2012\projects\freefalcon\vu2\include\vu_templates.h
;	COMDAT ??$?9VSquadronClass@@@@YA_NPBXABV?$VuBin@VSquadronClass@@@@@Z
_TEXT	SEGMENT
tv67 = -4						; size = 4
_le$ = 8						; size = 4
_re$ = 12						; size = 4
??$?9VSquadronClass@@@@YA_NPBXABV?$VuBin@VSquadronClass@@@@@Z PROC ; operator!=<SquadronClass>, COMDAT

; 74   : template <class E> bool operator!=(const void* le, const VuBin<E> &re){ return ((void*)re.get()) != le; }

	push	ebp
	mov	ebp, esp
	push	ecx
	mov	ecx, DWORD PTR _re$[ebp]
	call	?get@?$VuBin@VSquadronClass@@@@QBEPAVSquadronClass@@XZ ; VuBin<SquadronClass>::get
	cmp	eax, DWORD PTR _le$[ebp]
	je	SHORT $LN3@operator
	mov	DWORD PTR tv67[ebp], 1
	jmp	SHORT $LN4@operator
$LN3@operator:
	mov	DWORD PTR tv67[ebp], 0
$LN4@operator:
	mov	al, BYTE PTR tv67[ebp]
	mov	esp, ebp
	pop	ebp
	ret	0
??$?9VSquadronClass@@@@YA_NPBXABV?$VuBin@VSquadronClass@@@@@Z ENDP ; operator!=<SquadronClass>
_TEXT	ENDS
; Function compile flags: /Odtp
; File c:\users\zhitao li\documents\visual studio 2012\projects\freefalcon\vu2\include\vu_templates.h
;	COMDAT ??$?8VFalconEntity@@@@YA_NPBXABV?$VuBin@VFalconEntity@@@@@Z
_TEXT	SEGMENT
tv67 = -4						; size = 4
_le$ = 8						; size = 4
_re$ = 12						; size = 4
??$?8VFalconEntity@@@@YA_NPBXABV?$VuBin@VFalconEntity@@@@@Z PROC ; operator==<FalconEntity>, COMDAT

; 72   : template <class E> bool operator==(const void* le, const VuBin<E> &re){ return ((void*)re.get()) == le; }

	push	ebp
	mov	ebp, esp
	push	ecx
	mov	ecx, DWORD PTR _re$[ebp]
	call	?get@?$VuBin@VFalconEntity@@@@QBEPAVFalconEntity@@XZ ; VuBin<FalconEntity>::get
	cmp	eax, DWORD PTR _le$[ebp]
	jne	SHORT $LN3@operator
	mov	DWORD PTR tv67[ebp], 1
	jmp	SHORT $LN4@operator
$LN3@operator:
	mov	DWORD PTR tv67[ebp], 0
$LN4@operator:
	mov	al, BYTE PTR tv67[ebp]
	mov	esp, ebp
	pop	ebp
	ret	0
??$?8VFalconEntity@@@@YA_NPBXABV?$VuBin@VFalconEntity@@@@@Z ENDP ; operator==<FalconEntity>
_TEXT	ENDS
; Function compile flags: /Odtp
; File c:\program files (x86)\microsoft visual studio 11.0\vc\include\list
;	COMDAT ??E?$_List_iterator@V?$_List_val@U?$_List_simple_types@V?$VuBin@VFalconEntity@@@@@std@@@std@@@std@@QAEAAV01@XZ
_TEXT	SEGMENT
_this$ = -4						; size = 4
??E?$_List_iterator@V?$_List_val@U?$_List_simple_types@V?$VuBin@VFalconEntity@@@@@std@@@std@@@std@@QAEAAV01@XZ PROC ; std::_List_iterator<std::_List_val<std::_List_simple_types<VuBin<FalconEntity> > > >::operator++, COMDAT
; _this$ = ecx

; 372  : 		{	// preincrement

	push	ebp
	mov	ebp, esp
	push	ecx
	mov	DWORD PTR _this$[ebp], ecx

; 373  : 		++(*(_Mybase *)this);

	mov	ecx, DWORD PTR _this$[ebp]
	call	??E?$_List_const_iterator@V?$_List_val@U?$_List_simple_types@V?$VuBin@VFalconEntity@@@@@std@@@std@@@std@@QAEAAV01@XZ ; std::_List_const_iterator<std::_List_val<std::_List_simple_types<VuBin<FalconEntity> > > >::operator++

; 374  : 		return (*this);

	mov	eax, DWORD PTR _this$[ebp]

; 375  : 		}

	mov	esp, ebp
	pop	ebp
	ret	0
??E?$_List_iterator@V?$_List_val@U?$_List_simple_types@V?$VuBin@VFalconEntity@@@@@std@@@std@@@std@@QAEAAV01@XZ ENDP ; std::_List_iterator<std::_List_val<std::_List_simple_types<VuBin<FalconEntity> > > >::operator++
_TEXT	ENDS
; Function compile flags: /Odtp
; File c:\program files (x86)\microsoft visual studio 11.0\vc\include\list
;	COMDAT ??C?$_List_iterator@V?$_List_val@U?$_List_simple_types@V?$VuBin@VFalconEntity@@@@@std@@@std@@@std@@QBEPAV?$VuBin@VFalconEntity@@@@XZ
_TEXT	SEGMENT
_this$ = -4						; size = 4
??C?$_List_iterator@V?$_List_val@U?$_List_simple_types@V?$VuBin@VFalconEntity@@@@@std@@@std@@@std@@QBEPAV?$VuBin@VFalconEntity@@@@XZ PROC ; std::_List_iterator<std::_List_val<std::_List_simple_types<VuBin<FalconEntity> > > >::operator->, COMDAT
; _this$ = ecx

; 367  : 		{	// return pointer to class object

	push	ebp
	mov	ebp, esp
	push	ecx
	mov	DWORD PTR _this$[ebp], ecx

; 368  : 		return (_STD pointer_traits<pointer>::pointer_to(**this));

	mov	ecx, DWORD PTR _this$[ebp]
	call	??D?$_List_iterator@V?$_List_val@U?$_List_simple_types@V?$VuBin@VFalconEntity@@@@@std@@@std@@@std@@QBEAAV?$VuBin@VFalconEntity@@@@XZ ; std::_List_iterator<std::_List_val<std::_List_simple_types<VuBin<FalconEntity> > > >::operator*
	push	eax
	call	?pointer_to@?$pointer_traits@PAV?$VuBin@VFalconEntity@@@@@std@@SAPAV?$VuBin@VFalconEntity@@@@AAV3@@Z ; std::pointer_traits<VuBin<FalconEntity> *>::pointer_to
	add	esp, 4

; 369  : 		}

	mov	esp, ebp
	pop	ebp
	ret	0
??C?$_List_iterator@V?$_List_val@U?$_List_simple_types@V?$VuBin@VFalconEntity@@@@@std@@@std@@@std@@QBEPAV?$VuBin@VFalconEntity@@@@XZ ENDP ; std::_List_iterator<std::_List_val<std::_List_simple_types<VuBin<FalconEntity> > > >::operator->
_TEXT	ENDS
; Function compile flags: /Odtp
; File c:\program files (x86)\microsoft visual studio 11.0\vc\include\list
;	COMDAT ??D?$_List_iterator@V?$_List_val@U?$_List_simple_types@V?$VuBin@VFalconEntity@@@@@std@@@std@@@std@@QBEAAV?$VuBin@VFalconEntity@@@@XZ
_TEXT	SEGMENT
_this$ = -4						; size = 4
??D?$_List_iterator@V?$_List_val@U?$_List_simple_types@V?$VuBin@VFalconEntity@@@@@std@@@std@@@std@@QBEAAV?$VuBin@VFalconEntity@@@@XZ PROC ; std::_List_iterator<std::_List_val<std::_List_simple_types<VuBin<FalconEntity> > > >::operator*, COMDAT
; _this$ = ecx

; 362  : 		{	// return designated value

	push	ebp
	mov	ebp, esp
	push	ecx
	mov	DWORD PTR _this$[ebp], ecx

; 363  : 		return ((reference)**(_Mybase *)this);

	mov	ecx, DWORD PTR _this$[ebp]
	call	??D?$_List_const_iterator@V?$_List_val@U?$_List_simple_types@V?$VuBin@VFalconEntity@@@@@std@@@std@@@std@@QBEABV?$VuBin@VFalconEntity@@@@XZ ; std::_List_const_iterator<std::_List_val<std::_List_simple_types<VuBin<FalconEntity> > > >::operator*

; 364  : 		}

	mov	esp, ebp
	pop	ebp
	ret	0
??D?$_List_iterator@V?$_List_val@U?$_List_simple_types@V?$VuBin@VFalconEntity@@@@@std@@@std@@@std@@QBEAAV?$VuBin@VFalconEntity@@@@XZ ENDP ; std::_List_iterator<std::_List_val<std::_List_simple_types<VuBin<FalconEntity> > > >::operator*
_TEXT	ENDS
; Function compile flags: /Odtp
; File c:\program files (x86)\microsoft visual studio 11.0\vc\include\list
;	COMDAT ??0?$_List_iterator@V?$_List_val@U?$_List_simple_types@V?$VuBin@VFalconEntity@@@@@std@@@std@@@std@@QAE@PAU?$_List_node@V?$VuBin@VFalconEntity@@@@PAX@1@PBV?$_List_val@U?$_List_simple_types@V?$VuBin@VFalconEntity@@@@@std@@@1@@Z
_TEXT	SEGMENT
_this$ = -4						; size = 4
__Pnode$ = 8						; size = 4
__Plist$ = 12						; size = 4
??0?$_List_iterator@V?$_List_val@U?$_List_simple_types@V?$VuBin@VFalconEntity@@@@@std@@@std@@@std@@QAE@PAU?$_List_node@V?$VuBin@VFalconEntity@@@@PAX@1@PBV?$_List_val@U?$_List_simple_types@V?$VuBin@VFalconEntity@@@@@std@@@1@@Z PROC ; std::_List_iterator<std::_List_val<std::_List_simple_types<VuBin<FalconEntity> > > >::_List_iterator<std::_List_val<std::_List_simple_types<VuBin<FalconEntity> > > >, COMDAT
; _this$ = ecx

; 345  : 		{	// construct with node pointer _Pnode

	push	ebp
	mov	ebp, esp
	push	ecx
	mov	DWORD PTR _this$[ebp], ecx
	mov	eax, DWORD PTR __Plist$[ebp]
	push	eax
	mov	ecx, DWORD PTR __Pnode$[ebp]
	push	ecx
	mov	ecx, DWORD PTR _this$[ebp]
	call	??0?$_List_const_iterator@V?$_List_val@U?$_List_simple_types@V?$VuBin@VFalconEntity@@@@@std@@@std@@@std@@QAE@PAU?$_List_node@V?$VuBin@VFalconEntity@@@@PAX@1@PBV?$_List_val@U?$_List_simple_types@V?$VuBin@VFalconEntity@@@@@std@@@1@@Z ; std::_List_const_iterator<std::_List_val<std::_List_simple_types<VuBin<FalconEntity> > > >::_List_const_iterator<std::_List_val<std::_List_simple_types<VuBin<FalconEntity> > > >

; 346  : 		}

	mov	eax, DWORD PTR _this$[ebp]
	mov	esp, ebp
	pop	ebp
	ret	8
??0?$_List_iterator@V?$_List_val@U?$_List_simple_types@V?$VuBin@VFalconEntity@@@@@std@@@std@@@std@@QAE@PAU?$_List_node@V?$VuBin@VFalconEntity@@@@PAX@1@PBV?$_List_val@U?$_List_simple_types@V?$VuBin@VFalconEntity@@@@@std@@@1@@Z ENDP ; std::_List_iterator<std::_List_val<std::_List_simple_types<VuBin<FalconEntity> > > >::_List_iterator<std::_List_val<std::_List_simple_types<VuBin<FalconEntity> > > >
_TEXT	ENDS
; Function compile flags: /Odtp
; File c:\program files (x86)\microsoft visual studio 11.0\vc\include\list
;	COMDAT ??0?$_List_iterator@V?$_List_val@U?$_List_simple_types@V?$VuBin@VFalconEntity@@@@@std@@@std@@@std@@QAE@XZ
_TEXT	SEGMENT
_this$ = -4						; size = 4
??0?$_List_iterator@V?$_List_val@U?$_List_simple_types@V?$VuBin@VFalconEntity@@@@@std@@@std@@@std@@QAE@XZ PROC ; std::_List_iterator<std::_List_val<std::_List_simple_types<VuBin<FalconEntity> > > >::_List_iterator<std::_List_val<std::_List_simple_types<VuBin<FalconEntity> > > >, COMDAT
; _this$ = ecx

; 339  : 	_List_iterator()

	push	ebp
	mov	ebp, esp
	push	ecx
	mov	DWORD PTR _this$[ebp], ecx
	mov	ecx, DWORD PTR _this$[ebp]
	call	??0?$_List_const_iterator@V?$_List_val@U?$_List_simple_types@V?$VuBin@VFalconEntity@@@@@std@@@std@@@std@@QAE@XZ ; std::_List_const_iterator<std::_List_val<std::_List_simple_types<VuBin<FalconEntity> > > >::_List_const_iterator<std::_List_val<std::_List_simple_types<VuBin<FalconEntity> > > >

; 340  : 		{	// construct with null node
; 341  : 		}

	mov	eax, DWORD PTR _this$[ebp]
	mov	esp, ebp
	pop	ebp
	ret	0
??0?$_List_iterator@V?$_List_val@U?$_List_simple_types@V?$VuBin@VFalconEntity@@@@@std@@@std@@@std@@QAE@XZ ENDP ; std::_List_iterator<std::_List_val<std::_List_simple_types<VuBin<FalconEntity> > > >::_List_iterator<std::_List_val<std::_List_simple_types<VuBin<FalconEntity> > > >
_TEXT	ENDS
; Function compile flags: /Odtp
; File c:\program files (x86)\microsoft visual studio 11.0\vc\include\list
;	COMDAT ??9?$_List_const_iterator@V?$_List_val@U?$_List_simple_types@V?$VuBin@VFalconEntity@@@@@std@@@std@@@std@@QBE_NABV01@@Z
_TEXT	SEGMENT
_this$ = -8						; size = 4
tv69 = -4						; size = 4
__Right$ = 8						; size = 4
??9?$_List_const_iterator@V?$_List_val@U?$_List_simple_types@V?$VuBin@VFalconEntity@@@@@std@@@std@@@std@@QBE_NABV01@@Z PROC ; std::_List_const_iterator<std::_List_val<std::_List_simple_types<VuBin<FalconEntity> > > >::operator!=, COMDAT
; _this$ = ecx

; 302  : 		{	// test for iterator inequality

	push	ebp
	mov	ebp, esp
	sub	esp, 8
	mov	DWORD PTR _this$[ebp], ecx

; 303  : 		return (!(*this == _Right));

	mov	eax, DWORD PTR __Right$[ebp]
	push	eax
	mov	ecx, DWORD PTR _this$[ebp]
	call	??8?$_List_const_iterator@V?$_List_val@U?$_List_simple_types@V?$VuBin@VFalconEntity@@@@@std@@@std@@@std@@QBE_NABV01@@Z ; std::_List_const_iterator<std::_List_val<std::_List_simple_types<VuBin<FalconEntity> > > >::operator==
	movzx	ecx, al
	test	ecx, ecx
	jne	SHORT $LN3@operator
	mov	DWORD PTR tv69[ebp], 1
	jmp	SHORT $LN4@operator
$LN3@operator:
	mov	DWORD PTR tv69[ebp], 0
$LN4@operator:
	mov	al, BYTE PTR tv69[ebp]

; 304  : 		}

	mov	esp, ebp
	pop	ebp
	ret	4
??9?$_List_const_iterator@V?$_List_val@U?$_List_simple_types@V?$VuBin@VFalconEntity@@@@@std@@@std@@@std@@QBE_NABV01@@Z ENDP ; std::_List_const_iterator<std::_List_val<std::_List_simple_types<VuBin<FalconEntity> > > >::operator!=
_TEXT	ENDS
; Function compile flags: /Odtp
; File c:\program files (x86)\microsoft visual studio 11.0\vc\include\list
;	COMDAT ??8?$_List_const_iterator@V?$_List_val@U?$_List_simple_types@V?$VuBin@VFalconEntity@@@@@std@@@std@@@std@@QBE_NABV01@@Z
_TEXT	SEGMENT
_this$ = -8						; size = 4
tv75 = -4						; size = 4
__Right$ = 8						; size = 4
??8?$_List_const_iterator@V?$_List_val@U?$_List_simple_types@V?$VuBin@VFalconEntity@@@@@std@@@std@@@std@@QBE_NABV01@@Z PROC ; std::_List_const_iterator<std::_List_val<std::_List_simple_types<VuBin<FalconEntity> > > >::operator==, COMDAT
; _this$ = ecx

; 284  : 		{	// test for iterator equality

	push	ebp
	mov	ebp, esp
	sub	esp, 8
	mov	DWORD PTR _this$[ebp], ecx

; 285  :  #if _ITERATOR_DEBUG_LEVEL == 2
; 286  : 		if (this->_Getcont() == 0
; 287  : 			|| this->_Getcont() != _Right._Getcont())
; 288  : 			{	// report error
; 289  : 			_DEBUG_ERROR("list iterators incompatible");
; 290  : 			_SCL_SECURE_INVALID_ARGUMENT;
; 291  : 			}
; 292  : 
; 293  :  #elif _ITERATOR_DEBUG_LEVEL == 1
; 294  : 		_SCL_SECURE_VALIDATE(this->_Getcont() != 0
; 295  : 			&& this->_Getcont() == _Right._Getcont());
; 296  :  #endif /* _ITERATOR_DEBUG_LEVEL */
; 297  : 
; 298  : 		return (this->_Ptr == _Right._Ptr);

	mov	eax, DWORD PTR _this$[ebp]
	mov	ecx, DWORD PTR __Right$[ebp]
	mov	edx, DWORD PTR [eax]
	cmp	edx, DWORD PTR [ecx]
	jne	SHORT $LN3@operator
	mov	DWORD PTR tv75[ebp], 1
	jmp	SHORT $LN4@operator
$LN3@operator:
	mov	DWORD PTR tv75[ebp], 0
$LN4@operator:
	mov	al, BYTE PTR tv75[ebp]

; 299  : 		}

	mov	esp, ebp
	pop	ebp
	ret	4
??8?$_List_const_iterator@V?$_List_val@U?$_List_simple_types@V?$VuBin@VFalconEntity@@@@@std@@@std@@@std@@QBE_NABV01@@Z ENDP ; std::_List_const_iterator<std::_List_val<std::_List_simple_types<VuBin<FalconEntity> > > >::operator==
_TEXT	ENDS
; Function compile flags: /Odtp
; File c:\program files (x86)\microsoft visual studio 11.0\vc\include\list
;	COMDAT ??E?$_List_const_iterator@V?$_List_val@U?$_List_simple_types@V?$VuBin@VFalconEntity@@@@@std@@@std@@@std@@QAE?AV01@H@Z
_TEXT	SEGMENT
__Tmp$ = -8						; size = 4
_this$ = -4						; size = 4
___$ReturnUdt$ = 8					; size = 4
___formal$ = 12						; size = 4
??E?$_List_const_iterator@V?$_List_val@U?$_List_simple_types@V?$VuBin@VFalconEntity@@@@@std@@@std@@@std@@QAE?AV01@H@Z PROC ; std::_List_const_iterator<std::_List_val<std::_List_simple_types<VuBin<FalconEntity> > > >::operator++, COMDAT
; _this$ = ecx

; 245  : 		{	// postincrement

	push	ebp
	mov	ebp, esp
	sub	esp, 8
	mov	DWORD PTR _this$[ebp], ecx

; 246  : 		_Myiter _Tmp = *this;

	mov	eax, DWORD PTR _this$[ebp]
	mov	ecx, DWORD PTR [eax]
	mov	DWORD PTR __Tmp$[ebp], ecx

; 247  : 		++*this;

	mov	ecx, DWORD PTR _this$[ebp]
	call	??E?$_List_const_iterator@V?$_List_val@U?$_List_simple_types@V?$VuBin@VFalconEntity@@@@@std@@@std@@@std@@QAEAAV01@XZ ; std::_List_const_iterator<std::_List_val<std::_List_simple_types<VuBin<FalconEntity> > > >::operator++

; 248  : 		return (_Tmp);

	mov	edx, DWORD PTR ___$ReturnUdt$[ebp]
	mov	eax, DWORD PTR __Tmp$[ebp]
	mov	DWORD PTR [edx], eax
	mov	eax, DWORD PTR ___$ReturnUdt$[ebp]

; 249  : 		}

	mov	esp, ebp
	pop	ebp
	ret	8
??E?$_List_const_iterator@V?$_List_val@U?$_List_simple_types@V?$VuBin@VFalconEntity@@@@@std@@@std@@@std@@QAE?AV01@H@Z ENDP ; std::_List_const_iterator<std::_List_val<std::_List_simple_types<VuBin<FalconEntity> > > >::operator++
_TEXT	ENDS
; Function compile flags: /Odtp
; File c:\program files (x86)\microsoft visual studio 11.0\vc\include\list
;	COMDAT ??E?$_List_const_iterator@V?$_List_val@U?$_List_simple_types@V?$VuBin@VFalconEntity@@@@@std@@@std@@@std@@QAEAAV01@XZ
_TEXT	SEGMENT
_this$ = -4						; size = 4
??E?$_List_const_iterator@V?$_List_val@U?$_List_simple_types@V?$VuBin@VFalconEntity@@@@@std@@@std@@@std@@QAEAAV01@XZ PROC ; std::_List_const_iterator<std::_List_val<std::_List_simple_types<VuBin<FalconEntity> > > >::operator++, COMDAT
; _this$ = ecx

; 224  : 		{	// preincrement

	push	ebp
	mov	ebp, esp
	push	ecx
	mov	DWORD PTR _this$[ebp], ecx

; 225  :  #if _ITERATOR_DEBUG_LEVEL == 2
; 226  : 		if (this->_Getcont() == 0
; 227  : 			|| this->_Ptr == 0
; 228  : 			|| this->_Ptr == ((_Mylist *)this->_Getcont())->_Myhead)
; 229  : 			{	// report error
; 230  : 			_DEBUG_ERROR("list iterator not incrementable");
; 231  : 			_SCL_SECURE_OUT_OF_RANGE;
; 232  : 			}
; 233  : 
; 234  :  #elif _ITERATOR_DEBUG_LEVEL == 1
; 235  : 		_SCL_SECURE_VALIDATE(this->_Getcont() != 0 && this->_Ptr != 0);
; 236  : 		_SCL_SECURE_VALIDATE_RANGE(this->_Ptr !=
; 237  : 			((_Mylist *)this->_Getcont())->_Myhead);
; 238  :  #endif /* _ITERATOR_DEBUG_LEVEL */
; 239  : 
; 240  : 		this->_Ptr = _Mylist::_Nextnode(this->_Ptr);

	mov	eax, DWORD PTR _this$[ebp]
	mov	ecx, DWORD PTR [eax]
	push	ecx
	call	?_Nextnode@?$_List_val@U?$_List_simple_types@V?$VuBin@VFalconEntity@@@@@std@@@std@@SAAAPAU?$_List_node@V?$VuBin@VFalconEntity@@@@PAX@2@PAU32@@Z ; std::_List_val<std::_List_simple_types<VuBin<FalconEntity> > >::_Nextnode
	add	esp, 4
	mov	edx, DWORD PTR _this$[ebp]
	mov	eax, DWORD PTR [eax]
	mov	DWORD PTR [edx], eax

; 241  : 		return (*this);

	mov	eax, DWORD PTR _this$[ebp]

; 242  : 		}

	mov	esp, ebp
	pop	ebp
	ret	0
??E?$_List_const_iterator@V?$_List_val@U?$_List_simple_types@V?$VuBin@VFalconEntity@@@@@std@@@std@@@std@@QAEAAV01@XZ ENDP ; std::_List_const_iterator<std::_List_val<std::_List_simple_types<VuBin<FalconEntity> > > >::operator++
_TEXT	ENDS
; Function compile flags: /Odtp
; File c:\program files (x86)\microsoft visual studio 11.0\vc\include\list
;	COMDAT ??D?$_List_const_iterator@V?$_List_val@U?$_List_simple_types@V?$VuBin@VFalconEntity@@@@@std@@@std@@@std@@QBEABV?$VuBin@VFalconEntity@@@@XZ
_TEXT	SEGMENT
_this$ = -4						; size = 4
??D?$_List_const_iterator@V?$_List_val@U?$_List_simple_types@V?$VuBin@VFalconEntity@@@@@std@@@std@@@std@@QBEABV?$VuBin@VFalconEntity@@@@XZ PROC ; std::_List_const_iterator<std::_List_val<std::_List_simple_types<VuBin<FalconEntity> > > >::operator*, COMDAT
; _this$ = ecx

; 204  : 		{	// return designated value

	push	ebp
	mov	ebp, esp
	push	ecx
	mov	DWORD PTR _this$[ebp], ecx

; 205  :  #if _ITERATOR_DEBUG_LEVEL == 2
; 206  : 		if (this->_Getcont() == 0
; 207  : 			|| this->_Ptr == 0
; 208  : 			|| this->_Ptr == ((_Mylist *)this->_Getcont())->_Myhead)
; 209  : 			{	// report error
; 210  : 			_DEBUG_ERROR("list iterator not dereferencable");
; 211  : 			_SCL_SECURE_OUT_OF_RANGE;
; 212  : 			}
; 213  : 
; 214  :  #elif _ITERATOR_DEBUG_LEVEL == 1
; 215  : 		_SCL_SECURE_VALIDATE(this->_Getcont() != 0 && this->_Ptr != 0);
; 216  : 		_SCL_SECURE_VALIDATE_RANGE(this->_Ptr !=
; 217  : 			((_Mylist *)this->_Getcont())->_Myhead);
; 218  :  #endif /* _ITERATOR_DEBUG_LEVEL */
; 219  : 
; 220  : 		return (_Mylist::_Myval(this->_Ptr));

	mov	eax, DWORD PTR _this$[ebp]
	mov	ecx, DWORD PTR [eax]
	push	ecx
	call	?_Myval@?$_List_val@U?$_List_simple_types@V?$VuBin@VFalconEntity@@@@@std@@@std@@SAAAV?$VuBin@VFalconEntity@@@@PAU?$_List_node@V?$VuBin@VFalconEntity@@@@PAX@2@@Z ; std::_List_val<std::_List_simple_types<VuBin<FalconEntity> > >::_Myval
	add	esp, 4

; 221  : 		}

	mov	esp, ebp
	pop	ebp
	ret	0
??D?$_List_const_iterator@V?$_List_val@U?$_List_simple_types@V?$VuBin@VFalconEntity@@@@@std@@@std@@@std@@QBEABV?$VuBin@VFalconEntity@@@@XZ ENDP ; std::_List_const_iterator<std::_List_val<std::_List_simple_types<VuBin<FalconEntity> > > >::operator*
_TEXT	ENDS
; Function compile flags: /Odtp
; File c:\program files (x86)\microsoft visual studio 11.0\vc\include\list
;	COMDAT ??0?$_List_const_iterator@V?$_List_val@U?$_List_simple_types@V?$VuBin@VFalconEntity@@@@@std@@@std@@@std@@QAE@PAU?$_List_node@V?$VuBin@VFalconEntity@@@@PAX@1@PBV?$_List_val@U?$_List_simple_types@V?$VuBin@VFalconEntity@@@@@std@@@1@@Z
_TEXT	SEGMENT
_this$ = -4						; size = 4
__Pnode$ = 8						; size = 4
__Plist$ = 12						; size = 4
??0?$_List_const_iterator@V?$_List_val@U?$_List_simple_types@V?$VuBin@VFalconEntity@@@@@std@@@std@@@std@@QAE@PAU?$_List_node@V?$VuBin@VFalconEntity@@@@PAX@1@PBV?$_List_val@U?$_List_simple_types@V?$VuBin@VFalconEntity@@@@@std@@@1@@Z PROC ; std::_List_const_iterator<std::_List_val<std::_List_simple_types<VuBin<FalconEntity> > > >::_List_const_iterator<std::_List_val<std::_List_simple_types<VuBin<FalconEntity> > > >, COMDAT
; _this$ = ecx

; 187  : 		{	// construct with node pointer _Pnode

	push	ebp
	mov	ebp, esp
	push	ecx
	mov	DWORD PTR _this$[ebp], ecx
	mov	eax, DWORD PTR __Plist$[ebp]
	push	eax
	mov	ecx, DWORD PTR __Pnode$[ebp]
	push	ecx
	mov	ecx, DWORD PTR _this$[ebp]
	call	??0?$_List_unchecked_const_iterator@V?$_List_val@U?$_List_simple_types@V?$VuBin@VFalconEntity@@@@@std@@@std@@U_Iterator_base0@2@@std@@QAE@PAU?$_List_node@V?$VuBin@VFalconEntity@@@@PAX@1@PBV?$_List_val@U?$_List_simple_types@V?$VuBin@VFalconEntity@@@@@std@@@1@@Z ; std::_List_unchecked_const_iterator<std::_List_val<std::_List_simple_types<VuBin<FalconEntity> > >,std::_Iterator_base0>::_List_unchecked_const_iterator<std::_List_val<std::_List_simple_types<VuBin<FalconEntity> > >,std::_Iterator_base0>

; 188  : 		}

	mov	eax, DWORD PTR _this$[ebp]
	mov	esp, ebp
	pop	ebp
	ret	8
??0?$_List_const_iterator@V?$_List_val@U?$_List_simple_types@V?$VuBin@VFalconEntity@@@@@std@@@std@@@std@@QAE@PAU?$_List_node@V?$VuBin@VFalconEntity@@@@PAX@1@PBV?$_List_val@U?$_List_simple_types@V?$VuBin@VFalconEntity@@@@@std@@@1@@Z ENDP ; std::_List_const_iterator<std::_List_val<std::_List_simple_types<VuBin<FalconEntity> > > >::_List_const_iterator<std::_List_val<std::_List_simple_types<VuBin<FalconEntity> > > >
_TEXT	ENDS
; Function compile flags: /Odtp
; File c:\program files (x86)\microsoft visual studio 11.0\vc\include\list
;	COMDAT ??0?$_List_const_iterator@V?$_List_val@U?$_List_simple_types@V?$VuBin@VFalconEntity@@@@@std@@@std@@@std@@QAE@XZ
_TEXT	SEGMENT
_this$ = -4						; size = 4
??0?$_List_const_iterator@V?$_List_val@U?$_List_simple_types@V?$VuBin@VFalconEntity@@@@@std@@@std@@@std@@QAE@XZ PROC ; std::_List_const_iterator<std::_List_val<std::_List_simple_types<VuBin<FalconEntity> > > >::_List_const_iterator<std::_List_val<std::_List_simple_types<VuBin<FalconEntity> > > >, COMDAT
; _this$ = ecx

; 182  : 		{	// construct with null node pointer

	push	ebp
	mov	ebp, esp
	push	ecx
	mov	DWORD PTR _this$[ebp], ecx
	mov	ecx, DWORD PTR _this$[ebp]
	call	??0?$_List_unchecked_const_iterator@V?$_List_val@U?$_List_simple_types@V?$VuBin@VFalconEntity@@@@@std@@@std@@U_Iterator_base0@2@@std@@QAE@XZ ; std::_List_unchecked_const_iterator<std::_List_val<std::_List_simple_types<VuBin<FalconEntity> > >,std::_Iterator_base0>::_List_unchecked_const_iterator<std::_List_val<std::_List_simple_types<VuBin<FalconEntity> > >,std::_Iterator_base0>

; 183  : 		}

	mov	eax, DWORD PTR _this$[ebp]
	mov	esp, ebp
	pop	ebp
	ret	0
??0?$_List_const_iterator@V?$_List_val@U?$_List_simple_types@V?$VuBin@VFalconEntity@@@@@std@@@std@@@std@@QAE@XZ ENDP ; std::_List_const_iterator<std::_List_val<std::_List_simple_types<VuBin<FalconEntity> > > >::_List_const_iterator<std::_List_val<std::_List_simple_types<VuBin<FalconEntity> > > >
_TEXT	ENDS
; Function compile flags: /Odtp
; File c:\program files (x86)\microsoft visual studio 11.0\vc\include\list
;	COMDAT ?_Mynode@?$_List_unchecked_const_iterator@V?$_List_val@U?$_List_simple_types@V?$VuBin@VFalconEntity@@@@@std@@@std@@U_Iterator_base0@2@@std@@QBEPAU?$_List_node@V?$VuBin@VFalconEntity@@@@PAX@2@XZ
_TEXT	SEGMENT
_this$ = -4						; size = 4
?_Mynode@?$_List_unchecked_const_iterator@V?$_List_val@U?$_List_simple_types@V?$VuBin@VFalconEntity@@@@@std@@@std@@U_Iterator_base0@2@@std@@QBEPAU?$_List_node@V?$VuBin@VFalconEntity@@@@PAX@2@XZ PROC ; std::_List_unchecked_const_iterator<std::_List_val<std::_List_simple_types<VuBin<FalconEntity> > >,std::_Iterator_base0>::_Mynode, COMDAT
; _this$ = ecx

; 95   : 		{	// return node pointer

	push	ebp
	mov	ebp, esp
	push	ecx
	mov	DWORD PTR _this$[ebp], ecx

; 96   : 		return (_Ptr);

	mov	eax, DWORD PTR _this$[ebp]
	mov	eax, DWORD PTR [eax]

; 97   : 		}

	mov	esp, ebp
	pop	ebp
	ret	0
?_Mynode@?$_List_unchecked_const_iterator@V?$_List_val@U?$_List_simple_types@V?$VuBin@VFalconEntity@@@@@std@@@std@@U_Iterator_base0@2@@std@@QBEPAU?$_List_node@V?$VuBin@VFalconEntity@@@@PAX@2@XZ ENDP ; std::_List_unchecked_const_iterator<std::_List_val<std::_List_simple_types<VuBin<FalconEntity> > >,std::_Iterator_base0>::_Mynode
_TEXT	ENDS
; Function compile flags: /Odtp
; File c:\program files (x86)\microsoft visual studio 11.0\vc\include\list
;	COMDAT ??C?$_List_unchecked_const_iterator@V?$_List_val@U?$_List_simple_types@V?$VuBin@VFalconEntity@@@@@std@@@std@@U_Iterator_base0@2@@std@@QBEPBV?$VuBin@VFalconEntity@@@@XZ
_TEXT	SEGMENT
_this$ = -4						; size = 4
??C?$_List_unchecked_const_iterator@V?$_List_val@U?$_List_simple_types@V?$VuBin@VFalconEntity@@@@@std@@@std@@U_Iterator_base0@2@@std@@QBEPBV?$VuBin@VFalconEntity@@@@XZ PROC ; std::_List_unchecked_const_iterator<std::_List_val<std::_List_simple_types<VuBin<FalconEntity> > >,std::_Iterator_base0>::operator->, COMDAT
; _this$ = ecx

; 54   : 		{	// return pointer to class object

	push	ebp
	mov	ebp, esp
	push	ecx
	mov	DWORD PTR _this$[ebp], ecx

; 55   : 		return (_STD pointer_traits<pointer>::pointer_to(**this));

	mov	ecx, DWORD PTR _this$[ebp]
	call	??D?$_List_unchecked_const_iterator@V?$_List_val@U?$_List_simple_types@V?$VuBin@VFalconEntity@@@@@std@@@std@@U_Iterator_base0@2@@std@@QBEABV?$VuBin@VFalconEntity@@@@XZ ; std::_List_unchecked_const_iterator<std::_List_val<std::_List_simple_types<VuBin<FalconEntity> > >,std::_Iterator_base0>::operator*
	push	eax
	call	?pointer_to@?$pointer_traits@PBV?$VuBin@VFalconEntity@@@@@std@@SAPBV?$VuBin@VFalconEntity@@@@ABV3@@Z ; std::pointer_traits<VuBin<FalconEntity> const *>::pointer_to
	add	esp, 4

; 56   : 		}

	mov	esp, ebp
	pop	ebp
	ret	0
??C?$_List_unchecked_const_iterator@V?$_List_val@U?$_List_simple_types@V?$VuBin@VFalconEntity@@@@@std@@@std@@U_Iterator_base0@2@@std@@QBEPBV?$VuBin@VFalconEntity@@@@XZ ENDP ; std::_List_unchecked_const_iterator<std::_List_val<std::_List_simple_types<VuBin<FalconEntity> > >,std::_Iterator_base0>::operator->
_TEXT	ENDS
; Function compile flags: /Odtp
; File c:\program files (x86)\microsoft visual studio 11.0\vc\include\list
;	COMDAT ??D?$_List_unchecked_const_iterator@V?$_List_val@U?$_List_simple_types@V?$VuBin@VFalconEntity@@@@@std@@@std@@U_Iterator_base0@2@@std@@QBEABV?$VuBin@VFalconEntity@@@@XZ
_TEXT	SEGMENT
_this$ = -4						; size = 4
??D?$_List_unchecked_const_iterator@V?$_List_val@U?$_List_simple_types@V?$VuBin@VFalconEntity@@@@@std@@@std@@U_Iterator_base0@2@@std@@QBEABV?$VuBin@VFalconEntity@@@@XZ PROC ; std::_List_unchecked_const_iterator<std::_List_val<std::_List_simple_types<VuBin<FalconEntity> > >,std::_Iterator_base0>::operator*, COMDAT
; _this$ = ecx

; 49   : 		{	// return designated value

	push	ebp
	mov	ebp, esp
	push	ecx
	mov	DWORD PTR _this$[ebp], ecx

; 50   : 		return (_Mylist::_Myval(_Ptr));

	mov	eax, DWORD PTR _this$[ebp]
	mov	ecx, DWORD PTR [eax]
	push	ecx
	call	?_Myval@?$_List_val@U?$_List_simple_types@V?$VuBin@VFalconEntity@@@@@std@@@std@@SAAAV?$VuBin@VFalconEntity@@@@PAU?$_List_node@V?$VuBin@VFalconEntity@@@@PAX@2@@Z ; std::_List_val<std::_List_simple_types<VuBin<FalconEntity> > >::_Myval
	add	esp, 4

; 51   : 		}

	mov	esp, ebp
	pop	ebp
	ret	0
??D?$_List_unchecked_const_iterator@V?$_List_val@U?$_List_simple_types@V?$VuBin@VFalconEntity@@@@@std@@@std@@U_Iterator_base0@2@@std@@QBEABV?$VuBin@VFalconEntity@@@@XZ ENDP ; std::_List_unchecked_const_iterator<std::_List_val<std::_List_simple_types<VuBin<FalconEntity> > >,std::_Iterator_base0>::operator*
_TEXT	ENDS
; Function compile flags: /Odtp
; File c:\program files (x86)\microsoft visual studio 11.0\vc\include\list
;	COMDAT ??0?$_List_unchecked_const_iterator@V?$_List_val@U?$_List_simple_types@V?$VuBin@VFalconEntity@@@@@std@@@std@@U_Iterator_base0@2@@std@@QAE@PAU?$_List_node@V?$VuBin@VFalconEntity@@@@PAX@1@PBV?$_List_val@U?$_List_simple_types@V?$VuBin@VFalconEntity@@@@@std@@@1@@Z
_TEXT	SEGMENT
_this$ = -4						; size = 4
__Pnode$ = 8						; size = 4
__Plist$ = 12						; size = 4
??0?$_List_unchecked_const_iterator@V?$_List_val@U?$_List_simple_types@V?$VuBin@VFalconEntity@@@@@std@@@std@@U_Iterator_base0@2@@std@@QAE@PAU?$_List_node@V?$VuBin@VFalconEntity@@@@PAX@1@PBV?$_List_val@U?$_List_simple_types@V?$VuBin@VFalconEntity@@@@@std@@@1@@Z PROC ; std::_List_unchecked_const_iterator<std::_List_val<std::_List_simple_types<VuBin<FalconEntity> > >,std::_Iterator_base0>::_List_unchecked_const_iterator<std::_List_val<std::_List_simple_types<VuBin<FalconEntity> > >,std::_Iterator_base0>, COMDAT
; _this$ = ecx

; 44   : 		{	// construct with node pointer _Pnode

	push	ebp
	mov	ebp, esp
	push	ecx
	mov	DWORD PTR _this$[ebp], ecx
	mov	eax, DWORD PTR _this$[ebp]
	mov	ecx, DWORD PTR __Pnode$[ebp]
	mov	DWORD PTR [eax], ecx

; 45   : 		this->_Adopt(_Plist);

	mov	edx, DWORD PTR __Plist$[ebp]
	push	edx
	mov	ecx, DWORD PTR _this$[ebp]
	call	?_Adopt@_Iterator_base0@std@@QAEXPBX@Z	; std::_Iterator_base0::_Adopt

; 46   : 		}

	mov	eax, DWORD PTR _this$[ebp]
	mov	esp, ebp
	pop	ebp
	ret	8
??0?$_List_unchecked_const_iterator@V?$_List_val@U?$_List_simple_types@V?$VuBin@VFalconEntity@@@@@std@@@std@@U_Iterator_base0@2@@std@@QAE@PAU?$_List_node@V?$VuBin@VFalconEntity@@@@PAX@1@PBV?$_List_val@U?$_List_simple_types@V?$VuBin@VFalconEntity@@@@@std@@@1@@Z ENDP ; std::_List_unchecked_const_iterator<std::_List_val<std::_List_simple_types<VuBin<FalconEntity> > >,std::_Iterator_base0>::_List_unchecked_const_iterator<std::_List_val<std::_List_simple_types<VuBin<FalconEntity> > >,std::_Iterator_base0>
_TEXT	ENDS
; Function compile flags: /Odtp
; File c:\program files (x86)\microsoft visual studio 11.0\vc\include\list
;	COMDAT ??0?$_List_unchecked_const_iterator@V?$_List_val@U?$_List_simple_types@V?$VuBin@VFalconEntity@@@@@std@@@std@@U_Iterator_base0@2@@std@@QAE@XZ
_TEXT	SEGMENT
_this$ = -4						; size = 4
??0?$_List_unchecked_const_iterator@V?$_List_val@U?$_List_simple_types@V?$VuBin@VFalconEntity@@@@@std@@@std@@U_Iterator_base0@2@@std@@QAE@XZ PROC ; std::_List_unchecked_const_iterator<std::_List_val<std::_List_simple_types<VuBin<FalconEntity> > >,std::_Iterator_base0>::_List_unchecked_const_iterator<std::_List_val<std::_List_simple_types<VuBin<FalconEntity> > >,std::_Iterator_base0>, COMDAT
; _this$ = ecx

; 39   : 		{	// construct with null node pointer

	push	ebp
	mov	ebp, esp
	push	ecx
	mov	DWORD PTR _this$[ebp], ecx
	mov	eax, DWORD PTR _this$[ebp]
	mov	DWORD PTR [eax], 0

; 40   : 		}

	mov	eax, DWORD PTR _this$[ebp]
	mov	esp, ebp
	pop	ebp
	ret	0
??0?$_List_unchecked_const_iterator@V?$_List_val@U?$_List_simple_types@V?$VuBin@VFalconEntity@@@@@std@@@std@@U_Iterator_base0@2@@std@@QAE@XZ ENDP ; std::_List_unchecked_const_iterator<std::_List_val<std::_List_simple_types<VuBin<FalconEntity> > >,std::_Iterator_base0>::_List_unchecked_const_iterator<std::_List_val<std::_List_simple_types<VuBin<FalconEntity> > >,std::_Iterator_base0>
_TEXT	ENDS
; Function compile flags: /Odtp
;	COMDAT ??_G_System_error_category@std@@UAEPAXI@Z
_TEXT	SEGMENT
_this$ = -4						; size = 4
___flags$ = 8						; size = 4
??_G_System_error_category@std@@UAEPAXI@Z PROC		; std::_System_error_category::`scalar deleting destructor', COMDAT
; _this$ = ecx
	push	ebp
	mov	ebp, esp
	push	ecx
	mov	DWORD PTR _this$[ebp], ecx
	mov	ecx, DWORD PTR _this$[ebp]
	call	??1_System_error_category@std@@UAE@XZ
	mov	eax, DWORD PTR ___flags$[ebp]
	and	eax, 1
	je	SHORT $LN1@scalar
	mov	ecx, DWORD PTR _this$[ebp]
	push	ecx
	call	??3@YAXPAX@Z				; operator delete
	add	esp, 4
$LN1@scalar:
	mov	eax, DWORD PTR _this$[ebp]
	mov	esp, ebp
	pop	ebp
	ret	4
??_G_System_error_category@std@@UAEPAXI@Z ENDP		; std::_System_error_category::`scalar deleting destructor'
_TEXT	ENDS
; Function compile flags: /Odtp
;	COMDAT ??1_System_error_category@std@@UAE@XZ
_TEXT	SEGMENT
_this$ = -4						; size = 4
??1_System_error_category@std@@UAE@XZ PROC		; std::_System_error_category::~_System_error_category, COMDAT
; _this$ = ecx
	push	ebp
	mov	ebp, esp
	push	ecx
	mov	DWORD PTR _this$[ebp], ecx
	mov	ecx, DWORD PTR _this$[ebp]
	call	??1_Generic_error_category@std@@UAE@XZ
	mov	esp, ebp
	pop	ebp
	ret	0
??1_System_error_category@std@@UAE@XZ ENDP		; std::_System_error_category::~_System_error_category
_TEXT	ENDS
; Function compile flags: /Odtp
; File c:\program files (x86)\microsoft visual studio 11.0\vc\include\system_error
;	COMDAT ?default_error_condition@_System_error_category@std@@UBE?AVerror_condition@2@H@Z
_TEXT	SEGMENT
_this$ = -4						; size = 4
___$ReturnUdt$ = 8					; size = 4
__Errval$ = 12						; size = 4
?default_error_condition@_System_error_category@std@@UBE?AVerror_condition@2@H@Z PROC ; std::_System_error_category::default_error_condition, COMDAT
; _this$ = ecx

; 641  : 		{	// make error_condition for error code (generic if possible)

	push	ebp
	mov	ebp, esp
	push	ecx
	mov	DWORD PTR _this$[ebp], ecx

; 642  : 		if (_Syserror_map(_Errval))

	mov	eax, DWORD PTR __Errval$[ebp]
	push	eax
	call	?_Syserror_map@std@@YAPBDH@Z		; std::_Syserror_map
	add	esp, 4
	test	eax, eax
	je	SHORT $LN2@default_er

; 643  : 			return (error_condition(_Errval, generic_category()));

	call	?generic_category@std@@YAABVerror_category@1@XZ ; std::generic_category
	push	eax
	mov	ecx, DWORD PTR __Errval$[ebp]
	push	ecx
	mov	ecx, DWORD PTR ___$ReturnUdt$[ebp]
	call	??0error_condition@std@@QAE@HABVerror_category@1@@Z ; std::error_condition::error_condition
	mov	eax, DWORD PTR ___$ReturnUdt$[ebp]
	jmp	SHORT $LN3@default_er

; 644  : 		else

	jmp	SHORT $LN3@default_er
$LN2@default_er:

; 645  : 			return (error_condition(_Errval, system_category()));

	call	?system_category@std@@YAABVerror_category@1@XZ ; std::system_category
	push	eax
	mov	edx, DWORD PTR __Errval$[ebp]
	push	edx
	mov	ecx, DWORD PTR ___$ReturnUdt$[ebp]
	call	??0error_condition@std@@QAE@HABVerror_category@1@@Z ; std::error_condition::error_condition
	mov	eax, DWORD PTR ___$ReturnUdt$[ebp]
$LN3@default_er:

; 646  : 		}

	mov	esp, ebp
	pop	ebp
	ret	8
?default_error_condition@_System_error_category@std@@UBE?AVerror_condition@2@H@Z ENDP ; std::_System_error_category::default_error_condition
_TEXT	ENDS
; Function compile flags: /Odtp
; File c:\program files (x86)\microsoft visual studio 11.0\vc\include\system_error
;	COMDAT ?message@_System_error_category@std@@UBE?AV?$basic_string@DU?$char_traits@D@std@@V?$allocator@D@2@@2@H@Z
_TEXT	SEGMENT
_this$ = -16						; size = 4
$T1 = -12						; size = 4
tv69 = -8						; size = 4
__Name$ = -4						; size = 4
___$ReturnUdt$ = 8					; size = 4
__Errcode$ = 12						; size = 4
?message@_System_error_category@std@@UBE?AV?$basic_string@DU?$char_traits@D@std@@V?$allocator@D@2@@2@H@Z PROC ; std::_System_error_category::message, COMDAT
; _this$ = ecx

; 634  : 		{	// convert to name of error

	push	ebp
	mov	ebp, esp
	sub	esp, 16					; 00000010H
	mov	DWORD PTR _this$[ebp], ecx
	mov	DWORD PTR $T1[ebp], 0

; 635  : 		const char *_Name = _Winerror_map(_Errcode);

	mov	eax, DWORD PTR __Errcode$[ebp]
	push	eax
	call	?_Winerror_map@std@@YAPBDH@Z		; std::_Winerror_map
	add	esp, 4
	mov	DWORD PTR __Name$[ebp], eax

; 636  : 		return (string(_Name != 0 ? _Name : "unknown error"));

	cmp	DWORD PTR __Name$[ebp], 0
	je	SHORT $LN3@message
	mov	ecx, DWORD PTR __Name$[ebp]
	mov	DWORD PTR tv69[ebp], ecx
	jmp	SHORT $LN4@message
$LN3@message:
	mov	DWORD PTR tv69[ebp], OFFSET ??_C@_0O@BFJCFAAK@unknown?5error?$AA@
$LN4@message:
	mov	edx, DWORD PTR tv69[ebp]
	push	edx
	mov	ecx, DWORD PTR ___$ReturnUdt$[ebp]
	call	??0?$basic_string@DU?$char_traits@D@std@@V?$allocator@D@2@@std@@QAE@PBD@Z ; std::basic_string<char,std::char_traits<char>,std::allocator<char> >::basic_string<char,std::char_traits<char>,std::allocator<char> >
	mov	eax, DWORD PTR $T1[ebp]
	or	eax, 1
	mov	DWORD PTR $T1[ebp], eax
	mov	eax, DWORD PTR ___$ReturnUdt$[ebp]

; 637  : 		}

	mov	esp, ebp
	pop	ebp
	ret	8
?message@_System_error_category@std@@UBE?AV?$basic_string@DU?$char_traits@D@std@@V?$allocator@D@2@@2@H@Z ENDP ; std::_System_error_category::message
_TEXT	ENDS
; Function compile flags: /Odtp
; File c:\program files (x86)\microsoft visual studio 11.0\vc\include\system_error
;	COMDAT ?name@_System_error_category@std@@UBEPBDXZ
_TEXT	SEGMENT
_this$ = -4						; size = 4
?name@_System_error_category@std@@UBEPBDXZ PROC		; std::_System_error_category::name, COMDAT
; _this$ = ecx

; 629  : 		{	// get name of category

	push	ebp
	mov	ebp, esp
	push	ecx
	mov	DWORD PTR _this$[ebp], ecx

; 630  : 		return ("system");

	mov	eax, OFFSET ??_C@_06FHFOAHML@system?$AA@

; 631  : 		}

	mov	esp, ebp
	pop	ebp
	ret	0
?name@_System_error_category@std@@UBEPBDXZ ENDP		; std::_System_error_category::name
_TEXT	ENDS
; Function compile flags: /Odtp
; File c:\program files (x86)\microsoft visual studio 11.0\vc\include\system_error
;	COMDAT ??0_System_error_category@std@@QAE@XZ
_TEXT	SEGMENT
_this$ = -4						; size = 4
??0_System_error_category@std@@QAE@XZ PROC		; std::_System_error_category::_System_error_category, COMDAT
; _this$ = ecx

; 624  : 	_System_error_category()

	push	ebp
	mov	ebp, esp
	push	ecx
	mov	DWORD PTR _this$[ebp], ecx
	mov	ecx, DWORD PTR _this$[ebp]
	call	??0_Generic_error_category@std@@QAE@XZ	; std::_Generic_error_category::_Generic_error_category
	mov	eax, DWORD PTR _this$[ebp]
	mov	DWORD PTR [eax], OFFSET ??_7_System_error_category@std@@6B@

; 625  : 		{	// default constructor
; 626  : 		}

	mov	eax, DWORD PTR _this$[ebp]
	mov	esp, ebp
	pop	ebp
	ret	0
??0_System_error_category@std@@QAE@XZ ENDP		; std::_System_error_category::_System_error_category
_TEXT	ENDS
; Function compile flags: /Odtp
;	COMDAT ??_G_Iostream_error_category@std@@UAEPAXI@Z
_TEXT	SEGMENT
_this$ = -4						; size = 4
___flags$ = 8						; size = 4
??_G_Iostream_error_category@std@@UAEPAXI@Z PROC	; std::_Iostream_error_category::`scalar deleting destructor', COMDAT
; _this$ = ecx
	push	ebp
	mov	ebp, esp
	push	ecx
	mov	DWORD PTR _this$[ebp], ecx
	mov	ecx, DWORD PTR _this$[ebp]
	call	??1_Iostream_error_category@std@@UAE@XZ
	mov	eax, DWORD PTR ___flags$[ebp]
	and	eax, 1
	je	SHORT $LN1@scalar
	mov	ecx, DWORD PTR _this$[ebp]
	push	ecx
	call	??3@YAXPAX@Z				; operator delete
	add	esp, 4
$LN1@scalar:
	mov	eax, DWORD PTR _this$[ebp]
	mov	esp, ebp
	pop	ebp
	ret	4
??_G_Iostream_error_category@std@@UAEPAXI@Z ENDP	; std::_Iostream_error_category::`scalar deleting destructor'
_TEXT	ENDS
; Function compile flags: /Odtp
;	COMDAT ??1_Iostream_error_category@std@@UAE@XZ
_TEXT	SEGMENT
_this$ = -4						; size = 4
??1_Iostream_error_category@std@@UAE@XZ PROC		; std::_Iostream_error_category::~_Iostream_error_category, COMDAT
; _this$ = ecx
	push	ebp
	mov	ebp, esp
	push	ecx
	mov	DWORD PTR _this$[ebp], ecx
	mov	ecx, DWORD PTR _this$[ebp]
	call	??1_Generic_error_category@std@@UAE@XZ
	mov	esp, ebp
	pop	ebp
	ret	0
??1_Iostream_error_category@std@@UAE@XZ ENDP		; std::_Iostream_error_category::~_Iostream_error_category
_TEXT	ENDS
; Function compile flags: /Odtp
; File c:\program files (x86)\microsoft visual studio 11.0\vc\include\system_error
;	COMDAT ?message@_Iostream_error_category@std@@UBE?AV?$basic_string@DU?$char_traits@D@std@@V?$allocator@D@2@@2@H@Z
_TEXT	SEGMENT
_this$ = -8						; size = 4
$T1 = -4						; size = 4
___$ReturnUdt$ = 8					; size = 4
__Errcode$ = 12						; size = 4
?message@_Iostream_error_category@std@@UBE?AV?$basic_string@DU?$char_traits@D@std@@V?$allocator@D@2@@2@H@Z PROC ; std::_Iostream_error_category::message, COMDAT
; _this$ = ecx

; 611  : 		{	// convert to name of error

	push	ebp
	mov	ebp, esp
	sub	esp, 8
	mov	DWORD PTR _this$[ebp], ecx
	mov	DWORD PTR $T1[ebp], 0

; 612  : 		if (_Errcode == (int)io_errc::stream)

	cmp	DWORD PTR __Errcode$[ebp], 1
	jne	SHORT $LN2@message

; 613  : 			return ("iostream stream error");

	push	OFFSET ??_C@_0BG@PADBLCHM@iostream?5stream?5error?$AA@
	mov	ecx, DWORD PTR ___$ReturnUdt$[ebp]
	call	??0?$basic_string@DU?$char_traits@D@std@@V?$allocator@D@2@@std@@QAE@PBD@Z ; std::basic_string<char,std::char_traits<char>,std::allocator<char> >::basic_string<char,std::char_traits<char>,std::allocator<char> >
	mov	eax, DWORD PTR $T1[ebp]
	or	eax, 1
	mov	DWORD PTR $T1[ebp], eax
	mov	eax, DWORD PTR ___$ReturnUdt$[ebp]
	jmp	SHORT $LN3@message

; 614  : 		else

	jmp	SHORT $LN3@message
$LN2@message:

; 615  : 			return (_Generic_error_category::message(_Errcode));

	mov	ecx, DWORD PTR __Errcode$[ebp]
	push	ecx
	mov	edx, DWORD PTR ___$ReturnUdt$[ebp]
	push	edx
	mov	ecx, DWORD PTR _this$[ebp]
	call	?message@_Generic_error_category@std@@UBE?AV?$basic_string@DU?$char_traits@D@std@@V?$allocator@D@2@@2@H@Z ; std::_Generic_error_category::message
	mov	eax, DWORD PTR $T1[ebp]
	or	eax, 1
	mov	DWORD PTR $T1[ebp], eax
	mov	eax, DWORD PTR ___$ReturnUdt$[ebp]
$LN3@message:

; 616  : 		}

	mov	esp, ebp
	pop	ebp
	ret	8
?message@_Iostream_error_category@std@@UBE?AV?$basic_string@DU?$char_traits@D@std@@V?$allocator@D@2@@2@H@Z ENDP ; std::_Iostream_error_category::message
_TEXT	ENDS
; Function compile flags: /Odtp
; File c:\program files (x86)\microsoft visual studio 11.0\vc\include\system_error
;	COMDAT ?name@_Iostream_error_category@std@@UBEPBDXZ
_TEXT	SEGMENT
_this$ = -4						; size = 4
?name@_Iostream_error_category@std@@UBEPBDXZ PROC	; std::_Iostream_error_category::name, COMDAT
; _this$ = ecx

; 606  : 		{	// get name of category

	push	ebp
	mov	ebp, esp
	push	ecx
	mov	DWORD PTR _this$[ebp], ecx

; 607  : 		return ("iostream");

	mov	eax, OFFSET ??_C@_08LLGCOLLL@iostream?$AA@

; 608  : 		}

	mov	esp, ebp
	pop	ebp
	ret	0
?name@_Iostream_error_category@std@@UBEPBDXZ ENDP	; std::_Iostream_error_category::name
_TEXT	ENDS
; Function compile flags: /Odtp
; File c:\program files (x86)\microsoft visual studio 11.0\vc\include\system_error
;	COMDAT ??0_Iostream_error_category@std@@QAE@XZ
_TEXT	SEGMENT
_this$ = -4						; size = 4
??0_Iostream_error_category@std@@QAE@XZ PROC		; std::_Iostream_error_category::_Iostream_error_category, COMDAT
; _this$ = ecx

; 601  : 	_Iostream_error_category()

	push	ebp
	mov	ebp, esp
	push	ecx
	mov	DWORD PTR _this$[ebp], ecx
	mov	ecx, DWORD PTR _this$[ebp]
	call	??0_Generic_error_category@std@@QAE@XZ	; std::_Generic_error_category::_Generic_error_category
	mov	eax, DWORD PTR _this$[ebp]
	mov	DWORD PTR [eax], OFFSET ??_7_Iostream_error_category@std@@6B@

; 602  : 		{	// default constructor
; 603  : 		}

	mov	eax, DWORD PTR _this$[ebp]
	mov	esp, ebp
	pop	ebp
	ret	0
??0_Iostream_error_category@std@@QAE@XZ ENDP		; std::_Iostream_error_category::_Iostream_error_category
_TEXT	ENDS
; Function compile flags: /Odtp
;	COMDAT ??_G_Generic_error_category@std@@UAEPAXI@Z
_TEXT	SEGMENT
_this$ = -4						; size = 4
___flags$ = 8						; size = 4
??_G_Generic_error_category@std@@UAEPAXI@Z PROC		; std::_Generic_error_category::`scalar deleting destructor', COMDAT
; _this$ = ecx
	push	ebp
	mov	ebp, esp
	push	ecx
	mov	DWORD PTR _this$[ebp], ecx
	mov	ecx, DWORD PTR _this$[ebp]
	call	??1_Generic_error_category@std@@UAE@XZ
	mov	eax, DWORD PTR ___flags$[ebp]
	and	eax, 1
	je	SHORT $LN1@scalar
	mov	ecx, DWORD PTR _this$[ebp]
	push	ecx
	call	??3@YAXPAX@Z				; operator delete
	add	esp, 4
$LN1@scalar:
	mov	eax, DWORD PTR _this$[ebp]
	mov	esp, ebp
	pop	ebp
	ret	4
??_G_Generic_error_category@std@@UAEPAXI@Z ENDP		; std::_Generic_error_category::`scalar deleting destructor'
_TEXT	ENDS
; Function compile flags: /Odtp
;	COMDAT ??1_Generic_error_category@std@@UAE@XZ
_TEXT	SEGMENT
_this$ = -4						; size = 4
??1_Generic_error_category@std@@UAE@XZ PROC		; std::_Generic_error_category::~_Generic_error_category, COMDAT
; _this$ = ecx
	push	ebp
	mov	ebp, esp
	push	ecx
	mov	DWORD PTR _this$[ebp], ecx
	mov	ecx, DWORD PTR _this$[ebp]
	call	??1error_category@std@@UAE@XZ		; std::error_category::~error_category
	mov	esp, ebp
	pop	ebp
	ret	0
??1_Generic_error_category@std@@UAE@XZ ENDP		; std::_Generic_error_category::~_Generic_error_category
_TEXT	ENDS
; Function compile flags: /Odtp
; File c:\program files (x86)\microsoft visual studio 11.0\vc\include\system_error
;	COMDAT ?message@_Generic_error_category@std@@UBE?AV?$basic_string@DU?$char_traits@D@std@@V?$allocator@D@2@@2@H@Z
_TEXT	SEGMENT
_this$ = -16						; size = 4
$T1 = -12						; size = 4
tv69 = -8						; size = 4
__Name$ = -4						; size = 4
___$ReturnUdt$ = 8					; size = 4
__Errcode$ = 12						; size = 4
?message@_Generic_error_category@std@@UBE?AV?$basic_string@DU?$char_traits@D@std@@V?$allocator@D@2@@2@H@Z PROC ; std::_Generic_error_category::message, COMDAT
; _this$ = ecx

; 590  : 		{	// convert to name of error

	push	ebp
	mov	ebp, esp
	sub	esp, 16					; 00000010H
	mov	DWORD PTR _this$[ebp], ecx
	mov	DWORD PTR $T1[ebp], 0

; 591  : 		const char *_Name = _Syserror_map(_Errcode);

	mov	eax, DWORD PTR __Errcode$[ebp]
	push	eax
	call	?_Syserror_map@std@@YAPBDH@Z		; std::_Syserror_map
	add	esp, 4
	mov	DWORD PTR __Name$[ebp], eax

; 592  : 		return (string(_Name != 0 ? _Name : "unknown error"));

	cmp	DWORD PTR __Name$[ebp], 0
	je	SHORT $LN3@message
	mov	ecx, DWORD PTR __Name$[ebp]
	mov	DWORD PTR tv69[ebp], ecx
	jmp	SHORT $LN4@message
$LN3@message:
	mov	DWORD PTR tv69[ebp], OFFSET ??_C@_0O@BFJCFAAK@unknown?5error?$AA@
$LN4@message:
	mov	edx, DWORD PTR tv69[ebp]
	push	edx
	mov	ecx, DWORD PTR ___$ReturnUdt$[ebp]
	call	??0?$basic_string@DU?$char_traits@D@std@@V?$allocator@D@2@@std@@QAE@PBD@Z ; std::basic_string<char,std::char_traits<char>,std::allocator<char> >::basic_string<char,std::char_traits<char>,std::allocator<char> >
	mov	eax, DWORD PTR $T1[ebp]
	or	eax, 1
	mov	DWORD PTR $T1[ebp], eax
	mov	eax, DWORD PTR ___$ReturnUdt$[ebp]

; 593  : 		}

	mov	esp, ebp
	pop	ebp
	ret	8
?message@_Generic_error_category@std@@UBE?AV?$basic_string@DU?$char_traits@D@std@@V?$allocator@D@2@@2@H@Z ENDP ; std::_Generic_error_category::message
_TEXT	ENDS
; Function compile flags: /Odtp
; File c:\program files (x86)\microsoft visual studio 11.0\vc\include\system_error
;	COMDAT ?name@_Generic_error_category@std@@UBEPBDXZ
_TEXT	SEGMENT
_this$ = -4						; size = 4
?name@_Generic_error_category@std@@UBEPBDXZ PROC	; std::_Generic_error_category::name, COMDAT
; _this$ = ecx

; 585  : 		{	// get name of category

	push	ebp
	mov	ebp, esp
	push	ecx
	mov	DWORD PTR _this$[ebp], ecx

; 586  : 		return ("generic");

	mov	eax, OFFSET ??_C@_07DCLBNMLN@generic?$AA@

; 587  : 		}

	mov	esp, ebp
	pop	ebp
	ret	0
?name@_Generic_error_category@std@@UBEPBDXZ ENDP	; std::_Generic_error_category::name
_TEXT	ENDS
; Function compile flags: /Odtp
; File c:\program files (x86)\microsoft visual studio 11.0\vc\include\system_error
;	COMDAT ??0_Generic_error_category@std@@QAE@XZ
_TEXT	SEGMENT
_this$ = -4						; size = 4
??0_Generic_error_category@std@@QAE@XZ PROC		; std::_Generic_error_category::_Generic_error_category, COMDAT
; _this$ = ecx

; 580  : 	_Generic_error_category()

	push	ebp
	mov	ebp, esp
	push	ecx
	mov	DWORD PTR _this$[ebp], ecx
	mov	ecx, DWORD PTR _this$[ebp]
	call	??0error_category@std@@QAE@XZ		; std::error_category::error_category
	mov	eax, DWORD PTR _this$[ebp]
	mov	DWORD PTR [eax], OFFSET ??_7_Generic_error_category@std@@6B@

; 581  : 		{	// default constructor
; 582  : 		}

	mov	eax, DWORD PTR _this$[ebp]
	mov	esp, ebp
	pop	ebp
	ret	0
??0_Generic_error_category@std@@QAE@XZ ENDP		; std::_Generic_error_category::_Generic_error_category
_TEXT	ENDS
; Function compile flags: /Odtp
; File c:\program files (x86)\microsoft visual studio 11.0\vc\include\system_error
;	COMDAT ??8error_condition@std@@QBE_NABV01@@Z
_TEXT	SEGMENT
tv78 = -8						; size = 4
_this$ = -4						; size = 4
__Right$ = 8						; size = 4
??8error_condition@std@@QBE_NABV01@@Z PROC		; std::error_condition::operator==, COMDAT
; _this$ = ecx

; 376  : 		{	// test if *this == _Right

	push	ebp
	mov	ebp, esp
	sub	esp, 8
	push	esi
	mov	DWORD PTR _this$[ebp], ecx

; 377  : 		return (category() == _Right.category()
; 378  : 			&& value() == _Right.value());

	mov	ecx, DWORD PTR __Right$[ebp]
	call	?category@error_condition@std@@QBEABVerror_category@2@XZ ; std::error_condition::category
	push	eax
	mov	ecx, DWORD PTR _this$[ebp]
	call	?category@error_condition@std@@QBEABVerror_category@2@XZ ; std::error_condition::category
	mov	ecx, eax
	call	??8error_category@std@@QBE_NABV01@@Z	; std::error_category::operator==
	movzx	eax, al
	test	eax, eax
	je	SHORT $LN3@operator
	mov	ecx, DWORD PTR _this$[ebp]
	call	?value@error_condition@std@@QBEHXZ	; std::error_condition::value
	mov	esi, eax
	mov	ecx, DWORD PTR __Right$[ebp]
	call	?value@error_condition@std@@QBEHXZ	; std::error_condition::value
	cmp	esi, eax
	jne	SHORT $LN3@operator
	mov	DWORD PTR tv78[ebp], 1
	jmp	SHORT $LN4@operator
$LN3@operator:
	mov	DWORD PTR tv78[ebp], 0
$LN4@operator:
	mov	al, BYTE PTR tv78[ebp]

; 379  : 		}

	pop	esi
	mov	esp, ebp
	pop	ebp
	ret	4
??8error_condition@std@@QBE_NABV01@@Z ENDP		; std::error_condition::operator==
_TEXT	ENDS
; Function compile flags: /Odtp
; File c:\program files (x86)\microsoft visual studio 11.0\vc\include\system_error
;	COMDAT ?category@error_condition@std@@QBEABVerror_category@2@XZ
_TEXT	SEGMENT
_this$ = -4						; size = 4
?category@error_condition@std@@QBEABVerror_category@2@XZ PROC ; std::error_condition::category, COMDAT
; _this$ = ecx

; 354  : 		{	// get category

	push	ebp
	mov	ebp, esp
	push	ecx
	mov	DWORD PTR _this$[ebp], ecx

; 355  : 		return (*_Mycat);

	mov	eax, DWORD PTR _this$[ebp]
	mov	eax, DWORD PTR [eax+4]

; 356  : 		}

	mov	esp, ebp
	pop	ebp
	ret	0
?category@error_condition@std@@QBEABVerror_category@2@XZ ENDP ; std::error_condition::category
_TEXT	ENDS
; Function compile flags: /Odtp
; File c:\program files (x86)\microsoft visual studio 11.0\vc\include\system_error
;	COMDAT ?value@error_condition@std@@QBEHXZ
_TEXT	SEGMENT
_this$ = -4						; size = 4
?value@error_condition@std@@QBEHXZ PROC			; std::error_condition::value, COMDAT
; _this$ = ecx

; 349  : 		{	// get error code

	push	ebp
	mov	ebp, esp
	push	ecx
	mov	DWORD PTR _this$[ebp], ecx

; 350  : 		return (_Myval);

	mov	eax, DWORD PTR _this$[ebp]
	mov	eax, DWORD PTR [eax]

; 351  : 		}

	mov	esp, ebp
	pop	ebp
	ret	0
?value@error_condition@std@@QBEHXZ ENDP			; std::error_condition::value
_TEXT	ENDS
; Function compile flags: /Odtp
; File c:\program files (x86)\microsoft visual studio 11.0\vc\include\system_error
;	COMDAT ??0error_condition@std@@QAE@HABVerror_category@1@@Z
_TEXT	SEGMENT
_this$ = -4						; size = 4
__Val$ = 8						; size = 4
__Cat$ = 12						; size = 4
??0error_condition@std@@QAE@HABVerror_category@1@@Z PROC ; std::error_condition::error_condition, COMDAT
; _this$ = ecx

; 316  : 		{	// construct from error code and category

	push	ebp
	mov	ebp, esp
	push	ecx
	mov	DWORD PTR _this$[ebp], ecx
	mov	eax, DWORD PTR _this$[ebp]
	mov	ecx, DWORD PTR __Val$[ebp]
	mov	DWORD PTR [eax], ecx
	mov	edx, DWORD PTR _this$[ebp]
	mov	eax, DWORD PTR __Cat$[ebp]
	mov	DWORD PTR [edx+4], eax

; 317  : 		}

	mov	eax, DWORD PTR _this$[ebp]
	mov	esp, ebp
	pop	ebp
	ret	8
??0error_condition@std@@QAE@HABVerror_category@1@@Z ENDP ; std::error_condition::error_condition
_TEXT	ENDS
; Function compile flags: /Odtp
; File c:\program files (x86)\microsoft visual studio 11.0\vc\include\system_error
;	COMDAT ?category@error_code@std@@QBEABVerror_category@2@XZ
_TEXT	SEGMENT
_this$ = -4						; size = 4
?category@error_code@std@@QBEABVerror_category@2@XZ PROC ; std::error_code::category, COMDAT
; _this$ = ecx

; 256  : 		{	// get category

	push	ebp
	mov	ebp, esp
	push	ecx
	mov	DWORD PTR _this$[ebp], ecx

; 257  : 		return (*_Mycat);

	mov	eax, DWORD PTR _this$[ebp]
	mov	eax, DWORD PTR [eax+4]

; 258  : 		}

	mov	esp, ebp
	pop	ebp
	ret	0
?category@error_code@std@@QBEABVerror_category@2@XZ ENDP ; std::error_code::category
_TEXT	ENDS
; Function compile flags: /Odtp
; File c:\program files (x86)\microsoft visual studio 11.0\vc\include\system_error
