; Listing generated by Microsoft (R) Optimizing Compiler Version 17.00.51106.1 

	TITLE	C:\Users\Zhitao Li\Documents\Visual Studio 2012\Projects\Freefalcon\FALCLIB\falcmem.cpp
	.686P
	.XMM
	include listing.inc
	.model	flat

INCLUDELIB LIBCMT
INCLUDELIB OLDNAMES

PUBLIC	??0falcon4LeakCheck@@QAE@XZ			; falcon4LeakCheck::falcon4LeakCheck
PUBLIC	??1falcon4LeakCheck@@UAE@XZ			; falcon4LeakCheck::~falcon4LeakCheck
PUBLIC	??_Gfalcon4LeakCheck@@UAEPAXI@Z			; falcon4LeakCheck::`scalar deleting destructor'
PUBLIC	??_7falcon4LeakCheck@@6B@			; falcon4LeakCheck::`vftable'
PUBLIC	??_R4falcon4LeakCheck@@6B@			; falcon4LeakCheck::`RTTI Complete Object Locator'
PUBLIC	??_R0?AVfalcon4LeakCheck@@@8			; falcon4LeakCheck `RTTI Type Descriptor'
PUBLIC	??_R3falcon4LeakCheck@@8			; falcon4LeakCheck::`RTTI Class Hierarchy Descriptor'
PUBLIC	??_R2falcon4LeakCheck@@8			; falcon4LeakCheck::`RTTI Base Class Array'
PUBLIC	??_R1A@?0A@EA@falcon4LeakCheck@@8		; falcon4LeakCheck::`RTTI Base Class Descriptor at (0,-1,0,64)'
EXTRN	??3@YAXPAX@Z:PROC				; operator delete
EXTRN	??_Efalcon4LeakCheck@@UAEPAXI@Z:PROC		; falcon4LeakCheck::`vector deleting destructor'
EXTRN	??_7type_info@@6B@:QWORD			; type_info::`vftable'
;	COMDAT ??_R1A@?0A@EA@falcon4LeakCheck@@8
rdata$r	SEGMENT
??_R1A@?0A@EA@falcon4LeakCheck@@8 DD FLAT:??_R0?AVfalcon4LeakCheck@@@8 ; falcon4LeakCheck::`RTTI Base Class Descriptor at (0,-1,0,64)'
	DD	00H
	DD	00H
	DD	0ffffffffH
	DD	00H
	DD	040H
	DD	FLAT:??_R3falcon4LeakCheck@@8
rdata$r	ENDS
;	COMDAT ??_R2falcon4LeakCheck@@8
rdata$r	SEGMENT
??_R2falcon4LeakCheck@@8 DD FLAT:??_R1A@?0A@EA@falcon4LeakCheck@@8 ; falcon4LeakCheck::`RTTI Base Class Array'
rdata$r	ENDS
;	COMDAT ??_R3falcon4LeakCheck@@8
rdata$r	SEGMENT
??_R3falcon4LeakCheck@@8 DD 00H				; falcon4LeakCheck::`RTTI Class Hierarchy Descriptor'
	DD	00H
	DD	01H
	DD	FLAT:??_R2falcon4LeakCheck@@8
rdata$r	ENDS
;	COMDAT ??_R0?AVfalcon4LeakCheck@@@8
_DATA	SEGMENT
??_R0?AVfalcon4LeakCheck@@@8 DD FLAT:??_7type_info@@6B@	; falcon4LeakCheck `RTTI Type Descriptor'
	DD	00H
	DB	'.?AVfalcon4LeakCheck@@', 00H
_DATA	ENDS
;	COMDAT ??_R4falcon4LeakCheck@@6B@
rdata$r	SEGMENT
??_R4falcon4LeakCheck@@6B@ DD 00H			; falcon4LeakCheck::`RTTI Complete Object Locator'
	DD	00H
	DD	00H
	DD	FLAT:??_R0?AVfalcon4LeakCheck@@@8
	DD	FLAT:??_R3falcon4LeakCheck@@8
rdata$r	ENDS
;	COMDAT ??_7falcon4LeakCheck@@6B@
CONST	SEGMENT
??_7falcon4LeakCheck@@6B@ DD FLAT:??_R4falcon4LeakCheck@@6B@ ; falcon4LeakCheck::`vftable'
	DD	FLAT:??_Efalcon4LeakCheck@@UAEPAXI@Z
CONST	ENDS
; Function compile flags: /Odtp
;	COMDAT ??_Gfalcon4LeakCheck@@UAEPAXI@Z
_TEXT	SEGMENT
_this$ = -4						; size = 4
___flags$ = 8						; size = 4
??_Gfalcon4LeakCheck@@UAEPAXI@Z PROC			; falcon4LeakCheck::`scalar deleting destructor', COMDAT
; _this$ = ecx
	push	ebp
	mov	ebp, esp
	push	ecx
	mov	DWORD PTR _this$[ebp], ecx
	mov	ecx, DWORD PTR _this$[ebp]
	call	??1falcon4LeakCheck@@UAE@XZ		; falcon4LeakCheck::~falcon4LeakCheck
	mov	eax, DWORD PTR ___flags$[ebp]
	and	eax, 1
	je	SHORT $LN1@scalar
	mov	ecx, DWORD PTR _this$[ebp]
	push	ecx
	call	??3@YAXPAX@Z				; operator delete
	add	esp, 4
$LN1@scalar:
	mov	eax, DWORD PTR _this$[ebp]
	mov	esp, ebp
	pop	ebp
	ret	4
??_Gfalcon4LeakCheck@@UAEPAXI@Z ENDP			; falcon4LeakCheck::`scalar deleting destructor'
_TEXT	ENDS
; Function compile flags: /Odtp
; File c:\users\zhitao li\documents\visual studio 2012\projects\freefalcon\falclib\falcmem.cpp
_TEXT	SEGMENT
_this$ = -4						; size = 4
??1falcon4LeakCheck@@UAE@XZ PROC			; falcon4LeakCheck::~falcon4LeakCheck
; _this$ = ecx

; 36   : {

	push	ebp
	mov	ebp, esp
	push	ecx
	mov	DWORD PTR _this$[ebp], ecx
	mov	eax, DWORD PTR _this$[ebp]
	mov	DWORD PTR [eax], OFFSET ??_7falcon4LeakCheck@@6B@

; 37   : #ifdef USE_HEAPAGENT
; 38   :   dbgMemSetCheckpoint(MAIN_DEINIT_CHECK_POINT);
; 39   :   if (lastErrorFn)
; 40   :   {
; 41   :      dbgMemReportLeakage(NULL,MAIN_INIT_CHECK_POINT,MAIN_DEINIT_CHECK_POINT);
; 42   :      MemSetErrorHandler(lastErrorFn);
; 43   :   }
; 44   :   dbgMemSetDefaultErrorOutput(DBGMEM_OUTPUT_FILE,"leak.log");
; 45   :   dbgMemReportLeakage(NULL,MAIN_INIT_CHECK_POINT,MAIN_DEINIT_CHECK_POINT);
; 46   : #endif
; 47   : }

	mov	esp, ebp
	pop	ebp
	ret	0
??1falcon4LeakCheck@@UAE@XZ ENDP			; falcon4LeakCheck::~falcon4LeakCheck
_TEXT	ENDS
; Function compile flags: /Odtp
; File c:\users\zhitao li\documents\visual studio 2012\projects\freefalcon\falclib\falcmem.cpp
_TEXT	SEGMENT
_this$ = -4						; size = 4
??0falcon4LeakCheck@@QAE@XZ PROC			; falcon4LeakCheck::falcon4LeakCheck
; _this$ = ecx

; 26   : {

	push	ebp
	mov	ebp, esp
	push	ecx
	mov	DWORD PTR _this$[ebp], ecx
	mov	eax, DWORD PTR _this$[ebp]
	mov	DWORD PTR [eax], OFFSET ??_7falcon4LeakCheck@@6B@

; 27   : #ifdef USE_HEAPAGENT
; 28   :   lastErrorFn = MemSetErrorHandler(errPrint);
; 29   : //  dbgMemSetStackChecking (DBGMEM_STACK_CHECK_RETURN);
; 30   :   dbgMemSetGuardSize(dbgMemGuardSize);
; 31   :   dbgMemSetCheckpoint(MAIN_INIT_CHECK_POINT);
; 32   : #endif
; 33   : }

	mov	eax, DWORD PTR _this$[ebp]
	mov	esp, ebp
	pop	ebp
	ret	0
??0falcon4LeakCheck@@QAE@XZ ENDP			; falcon4LeakCheck::falcon4LeakCheck
_TEXT	ENDS
END
