; Listing generated by Microsoft (R) Optimizing Compiler Version 17.00.51106.1 

	TITLE	C:\Users\Zhitao Li\Documents\Visual Studio 2012\Projects\Freefalcon\FALCLIB\mesgstr.cpp
	.686P
	.XMM
	include listing.inc
	.model	flat

INCLUDELIB LIBCMT
INCLUDELIB OLDNAMES

PUBLIC	?TheEventStrings@@3PAPADA			; TheEventStrings
PUBLIC	??_C@_0O@PJOPIMHG@Bullet?5Damage?$AA@		; `string'
PUBLIC	??_C@_0P@KDLOMAPI@Missile?5Damage?$AA@		; `string'
PUBLIC	??_C@_0BB@FGFCIIFG@Collision?5Damage?$AA@	; `string'
PUBLIC	??_C@_0M@PAGCNKPN@Bomb?5Damage?$AA@		; `string'
PUBLIC	??_C@_0L@HLPKBNIH@FOD?5Damage?$AA@		; `string'
PUBLIC	??_C@_0M@NKMHFILJ@Damage?5Type?$AA@		; `string'
PUBLIC	??_C@_0O@EGKFOIAA@Damage?5Amount?$AA@		; `string'
PUBLIC	??_C@_0BH@INPCAOIG@Damaged?5entity?8s?5VU_ID?$AA@ ; `string'
PUBLIC	??_C@_0BI@GEFEGHFG@Damaged?5entity?8s?5CampID?$AA@ ; `string'
PUBLIC	??_C@_0BL@CNNLPJBG@Damaged?5pilot?8s?5ID?0?5if?5any?$AA@ ; `string'
PUBLIC	??_C@_0CD@EOELANJP@Damaged?5entity?8s?5description?5ind@ ; `string'
PUBLIC	??_C@_0BG@CJGBHACE@Damaged?5entity?8s?5side?$AA@ ; `string'
PUBLIC	??_C@_0BG@NIANFDCK@Firing?5entity?8s?5VU_ID?$AA@ ; `string'
PUBLIC	??_C@_0BH@LLGBHHMI@Firing?5entity?8s?5CampID?$AA@ ; `string'
PUBLIC	??_C@_0BK@MGCHLKEB@Firing?5pilot?8s?5ID?0?5if?5any?$AA@ ; `string'
PUBLIC	??_C@_0CB@FCLEPALJ@Firing?5entity?8s?5descripton?5index@ ; `string'
PUBLIC	??_C@_0BF@NDBKPDJD@Firing?5entity?8s?5side?$AA@	; `string'
PUBLIC	??_C@_0BI@ONCFAOJL@Fired?5weapon?8s?5WeaponID?$AA@ ; `string'
PUBLIC	??_C@_0BJ@JLHMIABE@Fired?5weapon?8s?5Unique?5ID?$AA@ ; `string'
PUBLIC	??_C@_03HBDMKMPF@Gun?$AA@			; `string'
PUBLIC	??_C@_0BD@HPJGBBJH@Long?5Range?5Missile?$AA@	; `string'
PUBLIC	??_C@_0BF@MLBFBOIM@Medium?5Range?5Missile?$AA@	; `string'
PUBLIC	??_C@_0BE@FCJGAFDK@Short?5Range?5Missile?$AA@	; `string'
PUBLIC	??_C@_04GPGPLFMI@Bomb?$AA@			; `string'
PUBLIC	??_C@_0BH@KKPPMEC@Anti?9Radiation?5Missile?$AA@	; `string'
PUBLIC	??_C@_0BD@BJPNKCAP@Air?9Ground?5Missile?$AA@	; `string'
PUBLIC	??_C@_06BIIBKNDG@Rocket?$AA@			; `string'
PUBLIC	??_C@_0O@PAOGDIFK@Recon?5Picture?$AA@		; `string'
PUBLIC	??_C@_0BF@IFAHPLCE@Type?5of?5Weapon?5fired?$AA@	; `string'
PUBLIC	??_C@_0BB@NHKGIGJA@Target?5entity?5ID?$AA@	; `string'
PUBLIC	??_C@_0BF@PEFBHKMI@Shooting?5entity?8s?5ID?$AA@	; `string'
PUBLIC	??_C@_0BD@BDLMIBFH@Up?5to?58?5weapon?5Ids?$AA@	; `string'
PUBLIC	??_C@_0BF@KNNBLOLB@Up?5to?5255?5shots?5each?$AA@ ; `string'
PUBLIC	??_C@_0BO@HOHCLNJ@target?8s?5slot?0?5or?5255?5if?5none?$AA@ ; `string'
PUBLIC	??_C@_0BM@EEDLGHFF@size?5of?5the?5following?5block?$AA@ ; `string'
PUBLIC	??_C@_0BD@LPICCLDD@Current?5state?5data?$AA@	; `string'
PUBLIC	??_C@_0BL@MPJEDPCL@We?8re?5about?5to?5be?5attacked?$AA@ ; `string'
PUBLIC	??_C@_0BK@OHNKGGBO@Someone?8s?5shooting?5at?5us?4?$AA@ ; `string'
PUBLIC	??_C@_0CF@OAJFDLIN@Enemy?5visual?5detector?5has?5spotte@ ; `string'
PUBLIC	??_C@_0BL@DDPJBJL@Enemy?5radar?5has?5spotted?5us?$AA@ ; `string'
PUBLIC	??_C@_0BM@PCHBDCCH@Repair?5vehicles?5or?5features?$AA@ ; `string'
PUBLIC	??_C@_0BI@PBAIONAG@Reaggregate?5this?5entity?$AA@ ; `string'
PUBLIC	??_C@_0BI@DOFOMAGL@Deaggregate?5this?5entity?$AA@ ; `string'
PUBLIC	??_C@_0O@IEJMGIHG@Who?5sent?5this?$AA@		; `string'
PUBLIC	??_C@_0BA@LDAKHNGG@Message?5content?$AA@	; `string'
PUBLIC	??_C@_0O@DBCHEMFP@Generic?5Data1?$AA@		; `string'
PUBLIC	??_C@_0O@BKAKBPJM@Generic?5Data2?$AA@		; `string'
PUBLIC	??_C@_0O@DBBCONN@Generic?5Data3?$AA@		; `string'
PUBLIC	??_C@_00CNPNBAHC@?$AA@				; `string'
PUBLIC	??_C@_0BD@CALALIOO@Size?5of?5data?5block?$AA@	; `string'
PUBLIC	??_C@_0BA@JBABDILJ@The?5actual?5data?$AA@	; `string'
PUBLIC	??_C@_0BM@IJGKFLIC@Detach?5a?5number?5of?5vehicles?$AA@ ; `string'
PUBLIC	??_C@_0BH@KHMPCOAI@Add?5Supplies?5to?5a?5unit?$AA@ ; `string'
PUBLIC	??_C@_0L@ECAFKPPF@New?5orders?$AA@		; `string'
PUBLIC	??_C@_0BK@LFAIHFNO@A?5Mission?5request?5was?5met?$AA@ ; `string'
PUBLIC	??_C@_0O@NFMLIDKE@Schedule?5Unit?$AA@		; `string'
PUBLIC	??_C@_0BH@NGALHFFJ@Set?5number?5of?5vehicles?$AA@ ; `string'
PUBLIC	??_C@_0BD@NDINBGHH@Activate?5this?5unit?$AA@	; `string'
PUBLIC	??_C@_0BE@CCDFOGEM@Fire?5support?5orders?$AA@	; `string'
PUBLIC	??_C@_0BL@NPMOLGLD@Objective?5has?5been?5capture?$AA@ ; `string'
PUBLIC	??_C@_0CA@FDGDNJOL@Reset?5this?5obj?8s?5supply?5traffic?$AA@ ; `string'
PUBLIC	??_C@_0BP@CAAEAPDB@Reset?5this?5obj?8s?5supply?5losses?$AA@ ; `string'
PUBLIC	??_C@_0M@OGDENIND@Who?5it?8s?5to?$AA@		; `string'
PUBLIC	??_C@_07BEIHKDLJ@Message?$AA@			; `string'
PUBLIC	??_C@_0N@DEINLCNI@Their?5orders?$AA@		; `string'
PUBLIC	??_C@_0BC@BLCGEHKG@Primary?5Objective?$AA@	; `string'
PUBLIC	??_C@_0BE@ELHOKOCG@Secondary?5Objective?$AA@	; `string'
PUBLIC	??_C@_0P@HHIHMHDG@Real?5Objective?$AA@		; `string'
PUBLIC	??_C@_0BH@PKKOMEEC@Session?5sending?5status?$AA@ ; `string'
PUBLIC	??_C@_0CA@CIDOLIME@The?5info?5requested?0?5in?5a?5stream?$AA@ ; `string'
PUBLIC	??_C@_0BK@PFKKLCCH@Master?8s?5time?5when?5posted?$AA@ ; `string'
PUBLIC	??_C@_0BL@CMLPEJME@Slave?8s?5time?5when?5received?$AA@ ; `string'
PUBLIC	??_C@_0BJ@CDADPNOJ@Slave?8s?5time?5when?5posted?$AA@ ; `string'
PUBLIC	??_C@_0BL@JMJKCMJK@Who?5sent?5this?5?$CIeither?5way?$CJ?$AA@ ; `string'
PUBLIC	??_C@_0BH@MOPCIDPH@Guess?5at?5delivery?5time?$AA@ ; `string'
PUBLIC	??_C@_0BK@KHKAMPBM@Master?8s?5time?5compression?$AA@ ; `string'
PUBLIC	??_C@_0BD@PLAKHMMM@Enemy?5unit?5Spotted?$AA@	; `string'
PUBLIC	??_C@_0BJ@ECALIGDD@Rebuild?5GTO?0?5ATO?0?5or?5NTO?$AA@ ; `string'
PUBLIC	??_C@_0BE@LPJLMFBD@Redo?5planning?5stage?$AA@	; `string'
PUBLIC	??_C@_0BH@IGJPDEMC@Entity?5sending?5message?$AA@ ; `string'
PUBLIC	??_C@_0BB@FMDIJJI@Tasker?5receiving?$AA@	; `string'
PUBLIC	??_C@_0P@NDKDMAIN@Team?5receiving?$AA@		; `string'
PUBLIC	??_C@_0N@BIKOHCEH@Message?5Type?$AA@		; `string'
PUBLIC	??_C@_0M@MBIOJKCH@Extra?5Data1?$AA@		; `string'
PUBLIC	??_C@_0M@OKKDMJOE@Extra?5Data2?$AA@		; `string'
PUBLIC	??_C@_0BL@GHLFNODH@Extra?5Data3?5?$CIfake?5pointer?$CJ?$AA@ ; `string'
PUBLIC	??_C@_0BL@OCODOEFO@New?5aircraft?5are?5available?$AA@ ; `string'
PUBLIC	??_C@_0BJ@FGIEPKJP@Player?5request?3?5aircraft?$AA@ ; `string'
PUBLIC	??_C@_0BI@NJBKCPOE@Player?5request?3?5mission?$AA@ ; `string'
PUBLIC	??_C@_0BI@EFJMMNBL@Player?5requested?5divert?$AA@ ; `string'
PUBLIC	??_C@_0BC@LKAMJEDP@Mission?5Completed?$AA@	; `string'
PUBLIC	??_C@_0BG@PEPEKANN@Mark?5schedule?5as?5used?$AA@ ; `string'
PUBLIC	??_C@_0BO@JPPKNPLC@This?5airbase?5has?5been?5damaged?$AA@ ; `string'
PUBLIC	??_C@_0CB@LOKGEMBP@Requesting?5Artillery?1CAS?5support@ ; `string'
PUBLIC	??_C@_0BJ@ILDPNLIC@Requesting?5Engineer?5unit?$AA@ ; `string'
PUBLIC	??_C@_0BL@BKLBJFCD@Requesting?5Air?5Defense?1CAP?$AA@ ; `string'
PUBLIC	??_C@_0BK@IHCAGIDP@Enemy?5being?5acted?5against?$AA@ ; `string'
PUBLIC	??_C@_0BB@HKJGHMPA@Relations?5change?$AA@	; `string'
PUBLIC	??_C@_0BA@DFJMAAAG@New?5Team?5member?$AA@	; `string'
PUBLIC	??_C@_0BH@OBBCPGCO@Shift?5inititive?5values?$AA@ ; `string'
PUBLIC	??_C@_0P@MEOMBBCA@Acting?5country?$AA@		; `string'
PUBLIC	??_C@_05BFLDNJLF@Data1?$AA@			; `string'
PUBLIC	??_C@_05DOJOIKHG@Data2?$AA@			; `string'
PUBLIC	??_C@_09MEMOOCLC@Go?5Spread?$AA@		; `string'
PUBLIC	??_C@_08MEHMOMHF@Go?5Wedge?$AA@			; `string'
PUBLIC	??_C@_08HMKKLDDI@Go?5Trail?$AA@			; `string'
PUBLIC	??_C@_09NBFPMHOH@Go?5Ladder?$AA@		; `string'
PUBLIC	??_C@_08KMDJGFDB@Go?5Stack?$AA@			; `string'
PUBLIC	??_C@_0M@MJANDNCJ@Go?5Res?5Cell?$AA@		; `string'
PUBLIC	??_C@_06EOCMBGKI@Go?5Box?$AA@			; `string'
PUBLIC	??_C@_0N@CLJAHGHM@Go?5Arrowhead?$AA@		; `string'
PUBLIC	??_C@_0O@DIKEJDHB@Go?5Fluid?5Four?$AA@		; `string'
PUBLIC	??_C@_0BB@OMJMDMAF@Attack?5My?5Target?$AA@	; `string'
PUBLIC	??_C@_0N@DEKHGDAE@Assign?5Group?$AA@		; `string'
PUBLIC	??_C@_0L@PPGOBBOB@Go?5Shooter?$AA@		; `string'
PUBLIC	??_C@_08OKJMHLLF@Go?5Cover?$AA@			; `string'
PUBLIC	??_C@_0N@IEJNAEGK@Weapons?5Hold?$AA@		; `string'
PUBLIC	??_C@_0N@IPBEDPIH@Weapons?5Free?$AA@		; `string'
PUBLIC	??_C@_0M@LONEHBHP@Break?5Right?$AA@		; `string'
PUBLIC	??_C@_0L@PKLKHLGG@Break?5Left?$AA@		; `string'
PUBLIC	??_C@_0N@FEHJHNAJ@Clear?5My?5Six?$AA@		; `string'
PUBLIC	??_C@_0P@KLIPCDHP@Check?5Your?5Six?$AA@		; `string'
PUBLIC	??_C@_05FPHDCJDM@Pince?$AA@			; `string'
PUBLIC	??_C@_08LMBMOLCO@Posthole?$AA@			; `string'
PUBLIC	??_C@_08IJDOPOCG@Chainsaw?$AA@			; `string'
PUBLIC	??_C@_04DGGEBHIF@Flex?$AA@			; `string'
PUBLIC	??_C@_06ICFPHIMJ@Rejoin?$AA@			; `string'
PUBLIC	??_C@_0P@PCEMHBDO@Resume?5Mission?$AA@		; `string'
PUBLIC	??_C@_0BK@BBEJHKHA@Search?5for?5Ground?5Targets?$AA@ ; `string'
PUBLIC	??_C@_0BH@OHAKDPFI@Search?5for?5Air?5Targets?$AA@ ; `string'
PUBLIC	??_C@_08EJCHBFNM@Kick?5Out?$AA@			; `string'
PUBLIC	??_C@_08DNENOAKK@Close?5Up?$AA@			; `string'
PUBLIC	??_C@_0CB@PMEKMMCC@Toggle?5Formation?5Left?1Right?5Side@ ; `string'
PUBLIC	??_C@_07BNMCGEDO@Step?5Up?$AA@			; `string'
PUBLIC	??_C@_09PECAGCPJ@Step?5Down?$AA@		; `string'
PUBLIC	??_C@_0N@EGGFPOPE@Say?5Position?$AA@		; `string'
PUBLIC	??_C@_0L@HKNONIOF@Say?5Status?$AA@		; `string'
PUBLIC	??_C@_0L@CKLBGBOI@Say?5Damage?$AA@		; `string'
PUBLIC	??_C@_08DMDCHGCO@Say?5Fuel?$AA@			; `string'
PUBLIC	??_C@_0O@ILEKNCPC@Weapons?5Check?$AA@		; `string'
PUBLIC	??_C@_0P@JGKEIBKP@Return?5to?5Base?$AA@		; `string'
PUBLIC	??_C@_0N@CNELNLHF@Wingman?5Free?$AA@		; `string'
PUBLIC	??_C@_0BF@LDFIANEJ@Move?5up?5in?5formation?$AA@	; `string'
PUBLIC	??_C@_0BB@OPDDHGLG@Radar?5to?5Standby?$AA@	; `string'
PUBLIC	??_C@_0P@LDCBGJKG@Activate?5Radar?$AA@		; `string'
PUBLIC	??_C@_0M@BLMILAPH@Buddy?5Spike?$AA@		; `string'
PUBLIC	??_C@_05OCCNKNFB@Skate?$AA@			; `string'
PUBLIC	??_C@_0BH@NACFCBCK@Run?5Single?9Side?5Offset?$AA@ ; `string'
PUBLIC	??_C@_0O@ONLEHOLM@Turn?5On?5Smoke?$AA@		; `string'
PUBLIC	??_C@_0P@JCFGPIBP@Turn?5Off?5Smoke?$AA@		; `string'
PUBLIC	??_C@_06OOAGKFHG@Raygun?$AA@			; `string'
PUBLIC	??_C@_05EEKOPFHH@Joker?$AA@			; `string'
PUBLIC	??_C@_05OMILMKPK@Bingo?$AA@			; `string'
PUBLIC	??_C@_05CFEMNELC@Fumes?$AA@			; `string'
PUBLIC	??_C@_08IBGPHGNM@Flameout?$AA@			; `string'
PUBLIC	??_C@_0BH@GBNMNJPM@Total?5Wingman?5Messages?$AA@ ; `string'
PUBLIC	??_C@_0BH@IBNBFEDL@Object?5Sending?5Message?$AA@ ; `string'
PUBLIC	??_C@_0BH@CCNDPOMG@Unit?5Receiving?5Message?$AA@ ; `string'
PUBLIC	??_C@_07FFLLKOAD@Command?$AA@			; `string'
PUBLIC	??_C@_0L@LBBPJOGP@New?5target?$AA@		; `string'
PUBLIC	??_C@_0BE@CKOLJILN@A?1C?5Sending?5Message?$AA@	; `string'
PUBLIC	??_C@_08CNLMPBDL@New?5Mode?$AA@			; `string'
PUBLIC	??_C@_0BH@KEMCFE@Team?5receiving?5request?$AA@	; `string'
PUBLIC	??_C@_0BG@NMJFMIMO@The?5request?5structure?$AA@	; `string'
PUBLIC	??_C@_0BN@OOFHMCBH@Data?5associated?5with?5mission?$AA@ ; `string'
PUBLIC	??_C@_0M@HBHGKIND@Temperature?$AA@		; `string'
PUBLIC	??_C@_0BB@LBEHMNKG@New?5wind?5Heading?$AA@	; `string'
PUBLIC	??_C@_0P@BNIHEAJO@New?5wind?5Speed?$AA@		; `string'
PUBLIC	??_C@_08CPFDLLBI@X?5Offset?$AA@			; `string'
PUBLIC	??_C@_08DICIKPFL@Y?5Offset?$AA@			; `string'
PUBLIC	??_C@_0BL@PJKHOMM@How?5much?5data?5we?8re?5sendng?$AA@ ; `string'
PUBLIC	??_C@_0BJ@EKBBKANA@Which?5map?5edge?5to?5add?5to?$AA@ ; `string'
PUBLIC	??_C@_0BL@KOCFLMGN@Cloud?5cover?5or?5cloud?5level?$AA@ ; `string'
PUBLIC	??_C@_0BG@LJAHJKDP@Pointer?5to?5cloud?5data?$AA@ ; `string'
PUBLIC	??_C@_0BB@LKFCGACP@Not?5finished?5yet?$AA@	; `string'
PUBLIC	??_C@_04NIFFMPNM@Kill?$AA@			; `string'
PUBLIC	??_C@_0BC@IHCNKKIA@Exceeded?5max?5time?$AA@	; `string'
PUBLIC	??_C@_07DNBAAOEN@No?5Kill?$AA@			; `string'
PUBLIC	??_C@_06OAMBFIKP@Missed?$AA@			; `string'
PUBLIC	??_C@_0BH@EGEKEPIC@Exceeded?5Field?5Of?5View?$AA@ ; `string'
PUBLIC	??_C@_0BH@LEJIMCOO@Exceeded?5Gimbal?5Limits?$AA@ ; `string'
PUBLIC	??_C@_0P@CEABDDD@Hit?5the?5ground?$AA@		; `string'
PUBLIC	??_C@_0BC@KCLLNDGG@Reached?5min?5speed?$AA@	; `string'
PUBLIC	??_C@_0BG@OPIHBBNJ@Exceeded?5battery?5life?$AA@	; `string'
PUBLIC	??_C@_0BE@CFHKGLLB@Dead?5entity?8s?5VU_ID?$AA@	; `string'
PUBLIC	??_C@_0BI@CFGMAJFM@Dead?5pilot?8s?5ID?0?5if?5any?$AA@ ; `string'
PUBLIC	??_C@_0BM@OLBALGJL@Dead?5entity?8s?5campaign?5slot?$AA@ ; `string'
PUBLIC	??_C@_0CA@KFNHIBGP@Dead?5entity?8s?5description?5index?$AA@ ; `string'
PUBLIC	??_C@_0BD@MGNLBCIJ@Dead?5entity?8s?5side?$AA@	; `string'
PUBLIC	??_C@_0BO@KEPFFMJM@Firing?5entity?8s?5campaign?5slot?$AA@ ; `string'
PUBLIC	??_C@_0P@GDAGAOMA@Missile?5Result?$AA@		; `string'
PUBLIC	??_C@_05BCJADJIF@Wilco?$AA@			; `string'
PUBLIC	??_C@_0BB@NGGHEGCD@Unable?5to?5comply?$AA@	; `string'
PUBLIC	??_C@_0BF@EHBBBBFN@Judy?5?$CIAWACS?5shut?5up?$CJ?$AA@ ; `string'
PUBLIC	??_C@_0BA@HEIPGHOF@Request?5picture?$AA@	; `string'
PUBLIC	??_C@_0N@OGIIDACJ@Request?5help?$AA@		; `string'
PUBLIC	??_C@_0P@PBJLFHLA@Request?5relief?$AA@		; `string'
PUBLIC	??_C@_0BH@ELPGOALB@Request?5divert?5mission?$AA@ ; `string'
PUBLIC	??_C@_0BH@FCGGLCKP@Request?5rescue?5chopper?$AA@ ; `string'
PUBLIC	??_C@_08FIKBCOMP@Check?5in?$AA@			; `string'
PUBLIC	??_C@_09HFMINBLA@Check?5out?$AA@		; `string'
PUBLIC	??_C@_0BF@PBCLLKDB@Vector?5to?5home?5plate?$AA@	; `string'
PUBLIC	??_C@_0BH@ILNFHEPE@Vector?5to?5divert?5field?$AA@ ; `string'
PUBLIC	??_C@_0BB@JIHEBDNG@Vector?5to?5tanker?$AA@	; `string'
PUBLIC	??_C@_0BC@NKPJHHPI@Vector?5to?5package?$AA@	; `string'
PUBLIC	??_C@_0BJ@KBFGPOBB@Vector?5to?5nearest?5threat?$AA@ ; `string'
PUBLIC	??_C@_0BB@CBOIHBGL@Vector?5to?5target?$AA@	; `string'
PUBLIC	??_C@_0BG@NFJBFCC@Plays?5PictureBRA?5call?$AA@	; `string'
PUBLIC	??_C@_0CB@GLKEFMGB@Campaign?5ordered?5a?5mission?5abort@ ; `string'
PUBLIC	??_C@_0BP@JBKOBFGF@Campaign?5is?5sending?5assistance?$AA@ ; `string'
PUBLIC	??_C@_0BP@BLDEGOAH@Flight?5is?5at?5the?5contact?5point?$AA@ ; `string'
PUBLIC	??_C@_0BP@LIAJMHEN@Flight?8s?5patrol?5period?5is?5over?$AA@ ; `string'
PUBLIC	??_C@_0CC@MOJLOLNB@Flight?8s?5patrol?5has?5been?5relieve@ ; `string'
PUBLIC	??_C@_0CA@LDPBGFJJ@Flight?5ordered?5to?5cover?5another?$AA@ ; `string'
PUBLIC	??_C@_0CC@FNAHMDJH@Flight?5ordered?5to?5intercept?5enem@ ; `string'
PUBLIC	??_C@_0CB@NHFKDMPJ@Flight?5ordered?5to?5hit?5ground?5veh@ ; `string'
PUBLIC	??_C@_0BJ@ELDBJOCA@Any?5other?5type?5of?5divert?$AA@ ; `string'
PUBLIC	??_C@_0BI@LOHNALAP@Requested?5divert?5denied?$AA@ ; `string'
PUBLIC	??_C@_0BP@PPKECIMN@Go?5back?5to?5what?5you?5were?5doing?$AA@ ; `string'
PUBLIC	??_C@_0BH@OBIJPKLF@A?5flight?5has?5taken?5off?$AA@ ; `string'
PUBLIC	??_C@_0CA@EKHAJPLF@Course?5correction?5for?5intercept?$AA@ ; `string'
PUBLIC	??_C@_0CL@CGNEDADN@A?5friendly?5UNIT?5is?5engaged?5?$CIair?5@ ; `string'
PUBLIC	??_C@_07PAEDNLMB@Declare?$AA@			; `string'
PUBLIC	??_C@_0BA@GGIIBFLL@A?1C?5making?5call?$AA@	; `string'
PUBLIC	??_C@_0L@GOLIPNAK@On?5Station?$AA@		; `string'
PUBLIC	??_C@_0M@FGEGOHEG@Will?5Comply?$AA@		; `string'
PUBLIC	??_C@_0BA@LGMPFINL@Ready?5to?5attack?$AA@	; `string'
PUBLIC	??_C@_0BI@MGKLEENL@Notify?5we?8re?5on?5station?$AA@ ; `string'
PUBLIC	??_C@_0BJ@FIOAECKA@Notify?5we?8re?5off?5station?$AA@ ; `string'
PUBLIC	??_C@_0N@NPEFECOK@Request?5Mark?$AA@		; `string'
PUBLIC	??_C@_0P@IBJMDHAD@Request?5Target?$AA@		; `string'
PUBLIC	??_C@_0M@GNEDGABB@Request?5BDA?$AA@		; `string'
PUBLIC	??_C@_0BF@FPOANOEP@Request?5FAC?5Location?$AA@	; `string'
PUBLIC	??_C@_0BC@POEHHJMI@Request?5FAC?5Tacan?$AA@	; `string'
PUBLIC	??_C@_0L@FJFHFCBM@Hold?5At?5CP?$AA@		; `string'
PUBLIC	??_C@_0L@FEBFFPCI@FAC?5Sitrep?$AA@		; `string'
PUBLIC	??_C@_0O@NHCDMOIN@Target?5Marked?$AA@		; `string'
PUBLIC	??_C@_0BA@DMBPPEEC@Attack?5Briefing?$AA@	; `string'
PUBLIC	??_C@_0BF@ECCPGBAI@No?5Targets?5Available?$AA@	; `string'
PUBLIC	??_C@_0BG@NLHBABMJ@Ground?5Target?5Bearing?$AA@	; `string'
PUBLIC	??_C@_0BG@LOEGCJID@Bomb?5Damage?5Assesment?$AA@	; `string'
PUBLIC	??_C@_0O@JDLNBKCA@Target?5Missed?$AA@		; `string'
PUBLIC	??_C@_0BF@CKAKNHJC@Attacking?5Friendlies?$AA@	; `string'
PUBLIC	??_C@_0BF@MDAHAANH@Can?5flight?5re?9attack?$AA@	; `string'
PUBLIC	??_C@_0BM@PKJNKCFN@Target?5is?5hardend?5artillery?$AA@ ; `string'
PUBLIC	??_C@_0L@GBHIEMHN@Doors?5Open?$AA@		; `string'
PUBLIC	??_C@_0BF@ECCGCKOM@Scud?5Launch?5Detected?$AA@	; `string'
PUBLIC	??_C@_08HJHPADDB@Clear?5LZ?$AA@			; `string'
PUBLIC	??_C@_0BD@PFECKCEO@Attack?5this?5target?$AA@	; `string'
PUBLIC	??_C@_0L@MJOHGJEG@Send?5Helos?$AA@		; `string'
PUBLIC	??_C@_09MNHFKPOO@Target?5Id?$AA@		; `string'
PUBLIC	??_C@_06GAKHDKCP@Data?51?$AA@			; `string'
PUBLIC	??_C@_06ELIKGJOM@Data?52?$AA@			; `string'
PUBLIC	??_C@_06FCJBFIKN@Data?53?$AA@			; `string'
PUBLIC	??_C@_0BA@HELJDLFN@Request?5Landing?$AA@	; `string'
PUBLIC	??_C@_0BH@IDOCHLGI@Declaring?5an?5Emergency?$AA@ ; `string'
PUBLIC	??_C@_07DGOBJIAC@Inbound?$AA@			; `string'
PUBLIC	??_C@_0BA@IECJJGOF@Request?5Takeoff?$AA@	; `string'
PUBLIC	??_C@_0N@INBEFAEN@Request?5Taxi?$AA@		; `string'
PUBLIC	??_C@_0BP@FEECOCNG@tell?5ATC?5when?5you?5change?5modes?$AA@ ; `string'
PUBLIC	??_C@_0BI@OAEHFKD@current?5status?5of?5plane?$AA@ ; `string'
PUBLIC	??_C@_0BM@MOEABOOG@Campaign?5units?5are?5fighting?$AA@ ; `string'
PUBLIC	??_C@_0BN@MPFNEFME@Camp?5Entity?5has?5taken?5losses?$AA@ ; `string'
PUBLIC	??_C@_0CB@MDGOLLEO@A?5unit?5is?5withdrawing?5or?5aborted@ ; `string'
PUBLIC	??_C@_0BF@JPOCIAJJ@A?5unit?5was?5destroyed?$AA@	; `string'
PUBLIC	??_C@_0BH@CJKDHPHB@A?5new?5unit?5has?5arrived?$AA@ ; `string'
PUBLIC	??_C@_0BK@LEJNDIBH@An?5objective?5was?5captured?$AA@ ; `string'
PUBLIC	??_C@_0BN@LMOLKLFL@A?5country?5has?5switched?5teams?$AA@ ; `string'
PUBLIC	??_C@_0BL@LEKDCMDC@A?5triggered?5event?5happened?$AA@ ; `string'
PUBLIC	??_C@_0L@JDPBPIKC@Event?5Type?$AA@		; `string'
PUBLIC	??_C@_05BOOEKJH@Flags?$AA@			; `string'
PUBLIC	??_C@_0BL@CMAAAOAG@What?5team?5this?5pertains?5to?$AA@ ; `string'
PUBLIC	??_C@_0BK@JDANDPPK@Size?5of?5string?5to?5follow?3?$AA@ ; `string'
PUBLIC	??_C@_0BH@DICODLMF@Location?5of?5this?5event?$AA@ ; `string'
PUBLIC	??_C@_0BL@CLDPEIOC@Vu?5ids?5of?5entitys?5envolved?$AA@ ; `string'
PUBLIC	??_C@_0BK@KJDNAJPC@Text?5ids?5of?5input?5strings?$AA@ ; `string'
PUBLIC	??_C@_0L@OAKJCDPB@Who?5Landed?$AA@		; `string'
PUBLIC	??_C@_0BH@GFMCJOMF@Landed?5entity?8s?5CampID?$AA@ ; `string'
PUBLIC	??_C@_0BC@FCILABHK@Landed?5pilot?8s?5ID?$AA@	; `string'
PUBLIC	??_C@_0BO@FGFFMPK@Landed?5entity?8s?5campaign?5slot?$AA@ ; `string'
PUBLIC	??_C@_0CC@JHMCAGLD@Landed?5entity?8s?5description?5inde@ ; `string'
PUBLIC	??_C@_0O@FOECLJCC@Landing?5Grade?$AA@		; `string'
PUBLIC	??_C@_0BL@JBBHECD@Lander?8s?5strength?5?$CI0?9100?$CF?$CJ?$AA@ ; `string'
PUBLIC	??_C@_0BI@DIGLGJLC@Lander?8s?5remaining?5fuel?$AA@ ; `string'
PUBLIC	??_C@_0O@NJPKNKPB@Owning?5Entity?$AA@		; `string'
PUBLIC	??_C@_0P@NNGPKNHG@Number?5of?5Dofs?$AA@		; `string'
PUBLIC	??_C@_0BD@GDEPFMIK@Number?5of?5Switches?$AA@	; `string'
PUBLIC	??_C@_0BD@MIIJBDDJ@Degrees?5of?5Freedom?$AA@	; `string'
PUBLIC	??_C@_08NNJNFNMB@DOF?5Type?$AA@			; `string'
PUBLIC	??_C@_0M@HIANBPBG@Switch?5Data?$AA@		; `string'
PUBLIC	??_C@_0L@LOFJIMAE@Extra?5Data?$AA@		; `string'
PUBLIC	??_C@_0BL@IFEGNMPM@Entity?5who?8s?5data?5you?5need?$AA@ ; `string'
PUBLIC	??_C@_06BNDFMADG@On?1Off?$AA@			; `string'
PUBLIC	??_C@_0O@OCAOBLMH@The?5game?8s?5Id?$AA@		; `string'
PUBLIC	??_C@_0CG@EBHPHJHI@get?5slot?0?5leave?5slot?0?5change?5cal@ ; `string'
PUBLIC	??_C@_0N@NNEKHCMP@Type?5of?5game?$AA@		; `string'
PUBLIC	??_C@_0P@LAMKBGHO@Team?5requested?$AA@		; `string'
PUBLIC	??_C@_0BP@EFBFGIFJ@Current?5slot?5occupied?5?$CIif?5any?$CJ?$AA@ ; `string'
PUBLIC	??_C@_0BG@JIKGPH@Slot?5we?8re?5asking?5for?$AA@	; `string'
PUBLIC	??_C@_0BH@IAOIHPA@Skill?5we?8re?5asking?5for?$AA@ ; `string'
PUBLIC	??_C@_0BG@PLHPGNCI@Type?5we?8re?5asking?5for?$AA@ ; `string'
PUBLIC	??_C@_0BD@OBOMFCBL@Session?5responding?$AA@	; `string'
PUBLIC	??_C@_0BB@GPJIEAME@Sessions?5game?5Id?$AA@	; `string'
PUBLIC	??_C@_09MHINMAAC@Host?8s?5ID?$AA@		; `string'
PUBLIC	??_C@_0BK@FEKLGALN@The?5result?5of?5our?5request?$AA@ ; `string'
PUBLIC	??_C@_0M@OOLFKJGP@Team?5we?5got?$AA@		; `string'
PUBLIC	??_C@_0M@PPMKLKPM@Slot?5we?5got?$AA@		; `string'
PUBLIC	??_C@_0BC@LFCADIBH@Pilot?5slot?5we?5got?$AA@	; `string'
PUBLIC	??_C@_0BD@JHOEAHAO@Pilot?5skill?5we?5got?$AA@	; `string'
PUBLIC	??_C@_0BH@HNJFPFFE@Who?5the?5message?5is?5for?$AA@ ; `string'
PUBLIC	??_C@_0P@GFKODIOC@Message?5length?$AA@		; `string'
PUBLIC	??_C@_0M@EJHHBNCK@Effect?5type?$AA@		; `string'
PUBLIC	??_C@_0BF@JBKEKJHH@Visual?5id?0?5if?5needed?$AA@ ; `string'
PUBLIC	??_C@_0BI@CKHLOOEJ@Location?5of?5this?5effect?$AA@ ; `string'
PUBLIC	??_C@_0CD@LCOKKEAE@Velocity?5of?5this?5effect?0?5if?5need@ ; `string'
PUBLIC	??_C@_0BH@GCJOMHAN@The?5requesting?5session?$AA@ ; `string'
PUBLIC	??_C@_0CB@JHPNOEAM@What?5we?5still?5need?5from?5the?5host@ ; `string'
PUBLIC	??_C@_0BH@CNOEMGJJ@Player?5sending?5message?$AA@ ; `string'
PUBLIC	??_C@_0N@DGMBFDBK@Message?5size?$AA@		; `string'
PUBLIC	??_C@_0BJ@JMJDBPPO@Message?5buffer?5?$CI_TCHARs?$CJ?$AA@ ; `string'
PUBLIC	??_C@_0N@CBMGJAAB@Request?5Fuel?$AA@		; `string'
PUBLIC	??_C@_0BD@BJGKDOIA@Ready?5To?5Take?5Fuel?$AA@	; `string'
PUBLIC	??_C@_0P@FJHLPILA@Done?5Refueling?$AA@		; `string'
PUBLIC	??_C@_0N@FIPLAEED@Pumping?5Fuel?$AA@		; `string'
PUBLIC	??_C@_09KLAFDHCE@BreakAway?$AA@			; `string'
PUBLIC	??_C@_0BF@JDCCEKOJ@Clear?5to?5Pre?9contact?$AA@	; `string'
PUBLIC	??_C@_0BB@IOKDJNJI@Clear?5to?5Contact?$AA@	; `string'
PUBLIC	??_C@_09HLNJEJKM@Stabalize?$AA@			; `string'
PUBLIC	??_C@_0N@NNDOIPOM@Boom?5Command?$AA@		; `string'
PUBLIC	??_C@_0L@CMGJAGDM@Disconnect?$AA@		; `string'
PUBLIC	??_C@_0BF@GDHNHCBI@Tanker?5entering?5turn?$AA@	; `string'
PUBLIC	??_C@_0BH@LODIBCLH@Position?5in?5wait?5queue?$AA@ ; `string'
PUBLIC	??_C@_0N@JPMNOHKN@Radio?5Data?51?$AA@		; `string'
PUBLIC	??_C@_0N@LEOALEGO@Radio?5Data?52?$AA@		; `string'
PUBLIC	??_C@_0BH@PJFGFHON@Ejecting?5plane?8s?5VU_ID?$AA@ ; `string'
PUBLIC	??_C@_0BH@HDDENAAG@Ejecting?5pilot?8s?5VU_ID?$AA@ ; `string'
PUBLIC	??_C@_0BK@FLDCDAMA@Ejecting?5Camp?5entity?8s?5id?$AA@ ; `string'
PUBLIC	??_C@_0BJ@HDCLMHAH@Eject?5pilot?8s?5ID?0?5if?5any?$AA@ ; `string'
PUBLIC	??_C@_0CE@HHNOAADE@Ejecting?5entity?8s?5description?5in@ ; `string'
PUBLIC	??_C@_0BH@INIGBCLJ@Ejecting?5entity?8s?5side?$AA@ ; `string'
PUBLIC	??_C@_0BN@OFNODJAE@Ejector?8s?5strength?5?$CI0?9?$DO100?$CF?$CJ?$AA@ ; `string'
PUBLIC	??_C@_0BK@KHAJOJCO@Ejector?8s?5remainging?5fuel?$AA@ ; `string'
PUBLIC	??_C@_0O@GBFGHJFC@Type?5of?5track?$AA@		; `string'
PUBLIC	??_C@_0BI@CIHCNDEM@VU?5Id?5of?5tracked?5object?$AA@ ; `string'
PUBLIC	??_C@_0BD@KEJFEGHE@Deaggregation?5data?$AA@	; `string'
PUBLIC	??_C@_0M@OMPEOGHP@Status?5data?$AA@		; `string'
PUBLIC	??_C@_0BH@BJICAMHI@Camp?5Data?5Message?5Type?$AA@ ; `string'
PUBLIC	??_C@_0L@NKNMMNBA@Message?5id?$AA@		; `string'
PUBLIC	??_C@_0BC@PMBEANJA@Who?8s?5saying?5this?$AA@	; `string'
PUBLIC	??_C@_0BI@FLIOFHJP@Who?5this?5message?5is?5for?$AA@ ; `string'
PUBLIC	??_C@_0BE@OHGOBELB@Voice?5ID?5of?5speaker?$AA@	; `string'
PUBLIC	??_C@_0BF@KLGHEDF@?$CD?5of?5evals?5to?5follow?$AA@ ; `string'
PUBLIC	??_C@_0M@EBEEMOJK@Eval?5values?$AA@		; `string'
PUBLIC	??_C@_0BL@FGNFHDNK@ID?5of?5message?5we?8re?5saying?$AA@ ; `string'
PUBLIC	??_C@_0CD@CGEABFFI@Time?5to?5start?5playing?5this?5messa@ ; `string'
PUBLIC	??_C@_0DJ@PPDLDCOI@Player?5Callsign?0?5since?5this?5migh@ ; `string'
PUBLIC	??_C@_0BI@PJMADOOL@In?5dogfght?$IF?5Player?5team?$AA@ ; `string'
PUBLIC	??_C@_0CA@MBBKDIJP@in?5Dogfight?$IFPlayer?5slot?5in?5team?$AA@ ; `string'
PUBLIC	??_C@_0BJ@FFFMLFJO@What?5the?5player?5is?5doing?$AA@ ; `string'
PUBLIC	??_C@_0BD@MHIOHHOK@Object?5Designating?$AA@	; `string'
PUBLIC	??_C@_0BC@HJPMLLGO@Object?5Designated?$AA@	; `string'
PUBLIC	??_C@_09FIEMHPNO@On?5or?5Off?$AA@		; `string'
PUBLIC	??_C@_0BK@BIODBDOD@Id?5of?5ATC?5sending?5message?$AA@ ; `string'
PUBLIC	??_C@_0N@HEKANIJP@Command?5Type?$AA@		; `string'
PUBLIC	??_C@_0BF@HIBNJNGI@time?5to?5land?1takeoff?$AA@	; `string'
PUBLIC	??_C@_0O@PAELLJJJ@Runway?5to?5use?$AA@		; `string'
PUBLIC	??_C@_0BA@ICEOLLIA@plane?5to?5follow?$AA@	; `string'
PUBLIC	??_C@_0CG@MLGIBPFO@number?5of?5data?5link?5points?5being@ ; `string'
PUBLIC	??_C@_0CA@FKPLEMJL@classtable?5index?5for?5the?5target?$AA@ ; `string'
PUBLIC	??_C@_0CA@NAPEHNAE@classtable?5index?5for?5the?5threat?$AA@ ; `string'
PUBLIC	??_C@_0BI@CPOOKEID@type?5of?5data?5link?5point?$AA@ ; `string'
PUBLIC	??_C@_0BM@CFKLEGLL@x?5coord?5of?5data?5link?5points?$AA@ ; `string'
PUBLIC	??_C@_0BM@CEBOLLKG@y?5coord?5of?5data?5link?5points?$AA@ ; `string'
PUBLIC	??_C@_0BM@CGMALMIB@z?5coord?5of?5data?5link?5points?$AA@ ; `string'
PUBLIC	??_C@_0BA@FIJNGJHP@desired?5arrival?$AA@	; `string'
PUBLIC	??_C@_0P@NOKBFOBN@Who?5needs?5data?$AA@		; `string'
PUBLIC	??_C@_0BC@LHEOJCLJ@New?5position?5data?$AA@	; `string'
PUBLIC	??_C@_0BL@EPPCCNOP@Whoever?5want?8s?5yer?5logbook?$AA@ ; `string'
PUBLIC	??_C@_0BB@FPMILJJM@The?5logbook?5data?$AA@	; `string'
PUBLIC	??_C@_0CJ@MEIELMCL@Flags?5used?5to?5tell?5if?5there?5is?5m@ ; `string'
PUBLIC	??_C@_0BD@OLCJCJKM@Use?5this?5as?5a?5type?$AA@	; `string'
PUBLIC	??_C@_0BM@KKOEMGOC@index?5into?5which?5seg?5we?5got?$AA@ ; `string'
PUBLIC	??_C@_0BD@BIOCJFFC@Size?5of?5this?5chunk?$AA@	; `string'
PUBLIC	??_C@_0N@PPBGKOJL@overall?5size?$AA@		; `string'
PUBLIC	??_C@_0P@GNNPFLE@the?5data?5block?$AA@		; `string'
PUBLIC	??_C@_0BL@ENEIKCAH@Size?5of?5shit?5we?8re?5sending?$AA@ ; `string'
PUBLIC	??_C@_09CGKCDHIO@The?5shit?4?$AA@		; `string'
PUBLIC	??_C@_0BA@HEIIIJGJ@Type?5of?5message?$AA@	; `string'
PUBLIC	??_C@_0N@KJLNEDCN@The?5event?5ID?$AA@		; `string'
PUBLIC	??_C@_0CC@KPGGOMCL@It?8s?5triggered?5status?5?$CIon?5or?5off@ ; `string'
PUBLIC	??_C@_0BI@POBJAIDG@Session?5Sending?5Message?$AA@ ; `string'
PUBLIC	??_C@_0BA@INPOOLDP@Type?5of?5Message?$AA@	; `string'
PUBLIC	??_C@_0BI@DOFHNDNM@Value?5needed?5to?5be?5sent?$AA@ ; `string'
PUBLIC	??_C@_0P@MBNLFLBN@Damage?5Message?$AA@		; `string'
PUBLIC	??_C@_0M@CIEAKKNH@Weapon?5Fire?$AA@		; `string'
PUBLIC	??_C@_0BD@PEOHHNFO@Campaign?5Weap?5Fire?$AA@	; `string'
PUBLIC	??_C@_0N@CCJJDLFE@Camp?5Message?$AA@		; `string'
PUBLIC	??_C@_0BB@GKOBOHAI@Sim?5Camp?5Message?$AA@	; `string'
PUBLIC	??_C@_0N@PNNNAONK@Unit?5Message?$AA@		; `string'
PUBLIC	??_C@_0BC@NNHMFDMB@Objective?5Message?$AA@	; `string'
PUBLIC	??_C@_0BA@FKGDAPKN@Unit?5Assignment?$AA@	; `string'
PUBLIC	??_C@_0BD@CCBEGIFC@Send?5Campaign?5data?$AA@	; `string'
PUBLIC	??_C@_0P@MPFEECCC@Timing?5Message?$AA@		; `string'
PUBLIC	??_C@_0BF@NAFLIOCF@Camp?5Tasking?5Message?$AA@	; `string'
PUBLIC	??_C@_0BE@OHDFCJFL@Air?5Tasking?5Message?$AA@	; `string'
PUBLIC	??_C@_0BE@JPHNPFI@Gnd?5Tasking?5Message?$AA@	; `string'
PUBLIC	??_C@_0BG@JIJHLJGP@Naval?5Tasking?5Message?$AA@	; `string'
PUBLIC	??_C@_0N@DAKBDIDG@Team?5Message?$AA@		; `string'
PUBLIC	??_C@_0L@LMDOMJOF@WingmanMsg?$AA@		; `string'
PUBLIC	??_C@_0BD@MJGAOEEL@Air?5AI?5Mode?5Change?$AA@	; `string'
PUBLIC	??_C@_0BA@IENJBNLO@Mission?5Request?$AA@	; `string'
PUBLIC	??_C@_0P@LFIHOFHC@Divert?5Message?$AA@		; `string'
PUBLIC	??_C@_0BE@KMCFGOID@Wind?5Change?5Message?$AA@	; `string'
PUBLIC	??_C@_0BA@MNAIHDDL@Weather?5Message?$AA@	; `string'
PUBLIC	??_C@_0BA@BCJKIBHH@Missile?5Endgame?$AA@	; `string'
PUBLIC	??_C@_08IOIKBOFH@AWACSMsg?$AA@			; `string'
PUBLIC	??_C@_0M@DFJEFAIA@FAC?5Message?$AA@		; `string'
PUBLIC	??_C@_06BNNGJNLN@ATCMsg?$AA@			; `string'
PUBLIC	??_C@_0O@FGBKNDIB@Death?5Message?$AA@		; `string'
PUBLIC	??_C@_0BH@FADFIPJD@Campaign?5Event?5Message?$AA@ ; `string'
PUBLIC	??_C@_0BA@GABIJANA@Landing?5Message?$AA@	; `string'
PUBLIC	??_C@_0BE@MDNDMEDD@Control?5Surface?5Msg?$AA@	; `string'
PUBLIC	??_C@_0BA@FLKPIAHJ@Sim?5Data?5Toggle?$AA@	; `string'
PUBLIC	??_C@_0BG@BDDEONPP@Request?5Dogfight?5Info?$AA@	; `string'
PUBLIC	??_C@_0BD@DAMDMDPC@Send?5Dogfight?5Info?$AA@	; `string'
PUBLIC	??_C@_0BG@ENPOMMPL@Request?5Aircraft?5Slot?$AA@	; `string'
PUBLIC	??_C@_0BD@KDGNJKCO@Send?5aircraft?5Slot?$AA@	; `string'
PUBLIC	??_C@_0BG@GPBFCFCA@Graphics?5Text?5Display?$AA@	; `string'
PUBLIC	??_C@_0BA@KOGPCEOG@Add?5SFX?5Message?$AA@	; `string'
PUBLIC	??_C@_0BF@IMCCMEPD@Send?5Persistant?5List?$AA@	; `string'
PUBLIC	??_C@_0BE@DCKMFIKO@Send?5Objective?5Data?$AA@	; `string'
PUBLIC	??_C@_0P@PMCPDEHI@Send?5Unit?5Data?$AA@		; `string'
PUBLIC	??_C@_0BG@MACCGJFL@Request?5Campaign?5Data?$AA@	; `string'
PUBLIC	??_C@_0BC@DBKINDFL@Send?5Chat?5Message?$AA@	; `string'
PUBLIC	??_C@_09GFBMAIAF@TankerMsg?$AA@			; `string'
PUBLIC	??_C@_0O@FFDMGMJD@Eject?5Message?$AA@		; `string'
PUBLIC	??_C@_0BE@CAPFILEK@Radar?5Track?5Message?$AA@	; `string'
PUBLIC	??_C@_0BC@HFCJPILO@Camp?5Data?5Message?$AA@	; `string'
PUBLIC	??_C@_0BD@PLGEHLGG@Voice?5Data?5Message?$AA@	; `string'
PUBLIC	??_C@_0BG@BELLCADA@Radio?5Chatter?5Message?$AA@	; `string'
PUBLIC	??_C@_0BG@KOLKHIAI@Player?5Enter?1Exit?5Sim?$AA@ ; `string'
PUBLIC	??_C@_0BE@MCNJFIPP@Laser?5Designate?5Msg?$AA@	; `string'
PUBLIC	??_C@_0M@NPJBNMDM@ATC?5Command?$AA@		; `string'
PUBLIC	??_C@_0BC@FFLGCPCI@Data?5Link?5Message?$AA@	; `string'
PUBLIC	??_C@_0P@JMMFOFOD@Request?5Object?$AA@		; `string'
PUBLIC	??_C@_0BB@BPLCCPEI@Regeneration?5Msg?$AA@	; `string'
PUBLIC	??_C@_0BA@ENFJOIP@Request?5Logbook?$AA@		; `string'
PUBLIC	??_C@_0N@PPGNELAI@Send?5Logbook?$AA@		; `string'
PUBLIC	??_C@_0L@NCCKMNJA@Send?5Image?$AA@		; `string'
PUBLIC	??_C@_0BE@PLBAJHIC@Flight?5Plan?5Message?$AA@	; `string'
PUBLIC	??_C@_0P@GCKDGEH@Sim?5Dirty?5Data?$AA@		; `string'
PUBLIC	??_C@_0BA@LEFCGFAC@Camp?5Dirty?5Data?$AA@	; `string'
PUBLIC	??_C@_0BA@OHHEADDM@Camp?5Event?5Data?$AA@	; `string'
PUBLIC	??_C@_0N@INFFCJFP@Send?5VC?5data?$AA@		; `string'
PUBLIC	??_C@_0BA@HFLMNOEN@Send?5UI?5Message?$AA@	; `string'
PUBLIC	??_C@_0BC@EABNPDHI@Send?5Eval?5Message?$AA@	; `string'
;	COMDAT ??_C@_0BC@EABNPDHI@Send?5Eval?5Message?$AA@
CONST	SEGMENT
??_C@_0BC@EABNPDHI@Send?5Eval?5Message?$AA@ DB 'Send Eval Message', 00H ; `string'
CONST	ENDS
;	COMDAT ??_C@_0BA@HFLMNOEN@Send?5UI?5Message?$AA@
CONST	SEGMENT
??_C@_0BA@HFLMNOEN@Send?5UI?5Message?$AA@ DB 'Send UI Message', 00H ; `string'
CONST	ENDS
;	COMDAT ??_C@_0N@INFFCJFP@Send?5VC?5data?$AA@
CONST	SEGMENT
??_C@_0N@INFFCJFP@Send?5VC?5data?$AA@ DB 'Send VC data', 00H ; `string'
CONST	ENDS
;	COMDAT ??_C@_0BA@OHHEADDM@Camp?5Event?5Data?$AA@
CONST	SEGMENT
??_C@_0BA@OHHEADDM@Camp?5Event?5Data?$AA@ DB 'Camp Event Data', 00H ; `string'
CONST	ENDS
;	COMDAT ??_C@_0BA@LEFCGFAC@Camp?5Dirty?5Data?$AA@
CONST	SEGMENT
??_C@_0BA@LEFCGFAC@Camp?5Dirty?5Data?$AA@ DB 'Camp Dirty Data', 00H ; `string'
CONST	ENDS
;	COMDAT ??_C@_0P@GCKDGEH@Sim?5Dirty?5Data?$AA@
CONST	SEGMENT
??_C@_0P@GCKDGEH@Sim?5Dirty?5Data?$AA@ DB 'Sim Dirty Data', 00H ; `string'
CONST	ENDS
;	COMDAT ??_C@_0BE@PLBAJHIC@Flight?5Plan?5Message?$AA@
CONST	SEGMENT
??_C@_0BE@PLBAJHIC@Flight?5Plan?5Message?$AA@ DB 'Flight Plan Message', 00H ; `string'
CONST	ENDS
;	COMDAT ??_C@_0L@NCCKMNJA@Send?5Image?$AA@
CONST	SEGMENT
??_C@_0L@NCCKMNJA@Send?5Image?$AA@ DB 'Send Image', 00H	; `string'
CONST	ENDS
;	COMDAT ??_C@_0N@PPGNELAI@Send?5Logbook?$AA@
CONST	SEGMENT
??_C@_0N@PPGNELAI@Send?5Logbook?$AA@ DB 'Send Logbook', 00H ; `string'
CONST	ENDS
;	COMDAT ??_C@_0BA@ENFJOIP@Request?5Logbook?$AA@
CONST	SEGMENT
??_C@_0BA@ENFJOIP@Request?5Logbook?$AA@ DB 'Request Logbook', 00H ; `string'
CONST	ENDS
;	COMDAT ??_C@_0BB@BPLCCPEI@Regeneration?5Msg?$AA@
CONST	SEGMENT
??_C@_0BB@BPLCCPEI@Regeneration?5Msg?$AA@ DB 'Regeneration Msg', 00H ; `string'
CONST	ENDS
;	COMDAT ??_C@_0P@JMMFOFOD@Request?5Object?$AA@
CONST	SEGMENT
??_C@_0P@JMMFOFOD@Request?5Object?$AA@ DB 'Request Object', 00H ; `string'
CONST	ENDS
;	COMDAT ??_C@_0BC@FFLGCPCI@Data?5Link?5Message?$AA@
CONST	SEGMENT
??_C@_0BC@FFLGCPCI@Data?5Link?5Message?$AA@ DB 'Data Link Message', 00H ; `string'
CONST	ENDS
;	COMDAT ??_C@_0M@NPJBNMDM@ATC?5Command?$AA@
CONST	SEGMENT
??_C@_0M@NPJBNMDM@ATC?5Command?$AA@ DB 'ATC Command', 00H ; `string'
CONST	ENDS
;	COMDAT ??_C@_0BE@MCNJFIPP@Laser?5Designate?5Msg?$AA@
CONST	SEGMENT
??_C@_0BE@MCNJFIPP@Laser?5Designate?5Msg?$AA@ DB 'Laser Designate Msg', 00H ; `string'
CONST	ENDS
;	COMDAT ??_C@_0BG@KOLKHIAI@Player?5Enter?1Exit?5Sim?$AA@
CONST	SEGMENT
??_C@_0BG@KOLKHIAI@Player?5Enter?1Exit?5Sim?$AA@ DB 'Player Enter/Exit Si'
	DB	'm', 00H					; `string'
CONST	ENDS
;	COMDAT ??_C@_0BG@BELLCADA@Radio?5Chatter?5Message?$AA@
CONST	SEGMENT
??_C@_0BG@BELLCADA@Radio?5Chatter?5Message?$AA@ DB 'Radio Chatter Message'
	DB	00H						; `string'
CONST	ENDS
;	COMDAT ??_C@_0BD@PLGEHLGG@Voice?5Data?5Message?$AA@
CONST	SEGMENT
??_C@_0BD@PLGEHLGG@Voice?5Data?5Message?$AA@ DB 'Voice Data Message', 00H ; `string'
CONST	ENDS
;	COMDAT ??_C@_0BC@HFCJPILO@Camp?5Data?5Message?$AA@
CONST	SEGMENT
??_C@_0BC@HFCJPILO@Camp?5Data?5Message?$AA@ DB 'Camp Data Message', 00H ; `string'
CONST	ENDS
;	COMDAT ??_C@_0BE@CAPFILEK@Radar?5Track?5Message?$AA@
CONST	SEGMENT
??_C@_0BE@CAPFILEK@Radar?5Track?5Message?$AA@ DB 'Radar Track Message', 00H ; `string'
CONST	ENDS
;	COMDAT ??_C@_0O@FFDMGMJD@Eject?5Message?$AA@
CONST	SEGMENT
??_C@_0O@FFDMGMJD@Eject?5Message?$AA@ DB 'Eject Message', 00H ; `string'
CONST	ENDS
;	COMDAT ??_C@_09GFBMAIAF@TankerMsg?$AA@
CONST	SEGMENT
??_C@_09GFBMAIAF@TankerMsg?$AA@ DB 'TankerMsg', 00H	; `string'
CONST	ENDS
;	COMDAT ??_C@_0BC@DBKINDFL@Send?5Chat?5Message?$AA@
CONST	SEGMENT
??_C@_0BC@DBKINDFL@Send?5Chat?5Message?$AA@ DB 'Send Chat Message', 00H ; `string'
CONST	ENDS
;	COMDAT ??_C@_0BG@MACCGJFL@Request?5Campaign?5Data?$AA@
CONST	SEGMENT
??_C@_0BG@MACCGJFL@Request?5Campaign?5Data?$AA@ DB 'Request Campaign Data'
	DB	00H						; `string'
CONST	ENDS
;	COMDAT ??_C@_0P@PMCPDEHI@Send?5Unit?5Data?$AA@
CONST	SEGMENT
??_C@_0P@PMCPDEHI@Send?5Unit?5Data?$AA@ DB 'Send Unit Data', 00H ; `string'
CONST	ENDS
;	COMDAT ??_C@_0BE@DCKMFIKO@Send?5Objective?5Data?$AA@
CONST	SEGMENT
??_C@_0BE@DCKMFIKO@Send?5Objective?5Data?$AA@ DB 'Send Objective Data', 00H ; `string'
CONST	ENDS
;	COMDAT ??_C@_0BF@IMCCMEPD@Send?5Persistant?5List?$AA@
CONST	SEGMENT
??_C@_0BF@IMCCMEPD@Send?5Persistant?5List?$AA@ DB 'Send Persistant List', 00H ; `string'
CONST	ENDS
;	COMDAT ??_C@_0BA@KOGPCEOG@Add?5SFX?5Message?$AA@
CONST	SEGMENT
??_C@_0BA@KOGPCEOG@Add?5SFX?5Message?$AA@ DB 'Add SFX Message', 00H ; `string'
CONST	ENDS
;	COMDAT ??_C@_0BG@GPBFCFCA@Graphics?5Text?5Display?$AA@
CONST	SEGMENT
??_C@_0BG@GPBFCFCA@Graphics?5Text?5Display?$AA@ DB 'Graphics Text Display'
	DB	00H						; `string'
CONST	ENDS
;	COMDAT ??_C@_0BD@KDGNJKCO@Send?5aircraft?5Slot?$AA@
CONST	SEGMENT
??_C@_0BD@KDGNJKCO@Send?5aircraft?5Slot?$AA@ DB 'Send aircraft Slot', 00H ; `string'
CONST	ENDS
;	COMDAT ??_C@_0BG@ENPOMMPL@Request?5Aircraft?5Slot?$AA@
CONST	SEGMENT
??_C@_0BG@ENPOMMPL@Request?5Aircraft?5Slot?$AA@ DB 'Request Aircraft Slot'
	DB	00H						; `string'
CONST	ENDS
;	COMDAT ??_C@_0BD@DAMDMDPC@Send?5Dogfight?5Info?$AA@
CONST	SEGMENT
??_C@_0BD@DAMDMDPC@Send?5Dogfight?5Info?$AA@ DB 'Send Dogfight Info', 00H ; `string'
CONST	ENDS
;	COMDAT ??_C@_0BG@BDDEONPP@Request?5Dogfight?5Info?$AA@
CONST	SEGMENT
??_C@_0BG@BDDEONPP@Request?5Dogfight?5Info?$AA@ DB 'Request Dogfight Info'
	DB	00H						; `string'
CONST	ENDS
;	COMDAT ??_C@_0BA@FLKPIAHJ@Sim?5Data?5Toggle?$AA@
CONST	SEGMENT
??_C@_0BA@FLKPIAHJ@Sim?5Data?5Toggle?$AA@ DB 'Sim Data Toggle', 00H ; `string'
CONST	ENDS
;	COMDAT ??_C@_0BE@MDNDMEDD@Control?5Surface?5Msg?$AA@
CONST	SEGMENT
??_C@_0BE@MDNDMEDD@Control?5Surface?5Msg?$AA@ DB 'Control Surface Msg', 00H ; `string'
CONST	ENDS
;	COMDAT ??_C@_0BA@GABIJANA@Landing?5Message?$AA@
CONST	SEGMENT
??_C@_0BA@GABIJANA@Landing?5Message?$AA@ DB 'Landing Message', 00H ; `string'
CONST	ENDS
;	COMDAT ??_C@_0BH@FADFIPJD@Campaign?5Event?5Message?$AA@
CONST	SEGMENT
??_C@_0BH@FADFIPJD@Campaign?5Event?5Message?$AA@ DB 'Campaign Event Messa'
	DB	'ge', 00H					; `string'
CONST	ENDS
;	COMDAT ??_C@_0O@FGBKNDIB@Death?5Message?$AA@
CONST	SEGMENT
??_C@_0O@FGBKNDIB@Death?5Message?$AA@ DB 'Death Message', 00H ; `string'
CONST	ENDS
;	COMDAT ??_C@_06BNNGJNLN@ATCMsg?$AA@
CONST	SEGMENT
??_C@_06BNNGJNLN@ATCMsg?$AA@ DB 'ATCMsg', 00H		; `string'
CONST	ENDS
;	COMDAT ??_C@_0M@DFJEFAIA@FAC?5Message?$AA@
CONST	SEGMENT
??_C@_0M@DFJEFAIA@FAC?5Message?$AA@ DB 'FAC Message', 00H ; `string'
CONST	ENDS
;	COMDAT ??_C@_08IOIKBOFH@AWACSMsg?$AA@
CONST	SEGMENT
??_C@_08IOIKBOFH@AWACSMsg?$AA@ DB 'AWACSMsg', 00H	; `string'
CONST	ENDS
;	COMDAT ??_C@_0BA@BCJKIBHH@Missile?5Endgame?$AA@
CONST	SEGMENT
??_C@_0BA@BCJKIBHH@Missile?5Endgame?$AA@ DB 'Missile Endgame', 00H ; `string'
CONST	ENDS
;	COMDAT ??_C@_0BA@MNAIHDDL@Weather?5Message?$AA@
CONST	SEGMENT
??_C@_0BA@MNAIHDDL@Weather?5Message?$AA@ DB 'Weather Message', 00H ; `string'
CONST	ENDS
;	COMDAT ??_C@_0BE@KMCFGOID@Wind?5Change?5Message?$AA@
CONST	SEGMENT
??_C@_0BE@KMCFGOID@Wind?5Change?5Message?$AA@ DB 'Wind Change Message', 00H ; `string'
CONST	ENDS
;	COMDAT ??_C@_0P@LFIHOFHC@Divert?5Message?$AA@
CONST	SEGMENT
??_C@_0P@LFIHOFHC@Divert?5Message?$AA@ DB 'Divert Message', 00H ; `string'
CONST	ENDS
;	COMDAT ??_C@_0BA@IENJBNLO@Mission?5Request?$AA@
CONST	SEGMENT
??_C@_0BA@IENJBNLO@Mission?5Request?$AA@ DB 'Mission Request', 00H ; `string'
CONST	ENDS
;	COMDAT ??_C@_0BD@MJGAOEEL@Air?5AI?5Mode?5Change?$AA@
CONST	SEGMENT
??_C@_0BD@MJGAOEEL@Air?5AI?5Mode?5Change?$AA@ DB 'Air AI Mode Change', 00H ; `string'
CONST	ENDS
;	COMDAT ??_C@_0L@LMDOMJOF@WingmanMsg?$AA@
CONST	SEGMENT
??_C@_0L@LMDOMJOF@WingmanMsg?$AA@ DB 'WingmanMsg', 00H	; `string'
CONST	ENDS
;	COMDAT ??_C@_0N@DAKBDIDG@Team?5Message?$AA@
CONST	SEGMENT
??_C@_0N@DAKBDIDG@Team?5Message?$AA@ DB 'Team Message', 00H ; `string'
CONST	ENDS
;	COMDAT ??_C@_0BG@JIJHLJGP@Naval?5Tasking?5Message?$AA@
CONST	SEGMENT
??_C@_0BG@JIJHLJGP@Naval?5Tasking?5Message?$AA@ DB 'Naval Tasking Message'
	DB	00H						; `string'
CONST	ENDS
;	COMDAT ??_C@_0BE@JPHNPFI@Gnd?5Tasking?5Message?$AA@
CONST	SEGMENT
??_C@_0BE@JPHNPFI@Gnd?5Tasking?5Message?$AA@ DB 'Gnd Tasking Message', 00H ; `string'
CONST	ENDS
;	COMDAT ??_C@_0BE@OHDFCJFL@Air?5Tasking?5Message?$AA@
CONST	SEGMENT
??_C@_0BE@OHDFCJFL@Air?5Tasking?5Message?$AA@ DB 'Air Tasking Message', 00H ; `string'
CONST	ENDS
;	COMDAT ??_C@_0BF@NAFLIOCF@Camp?5Tasking?5Message?$AA@
CONST	SEGMENT
??_C@_0BF@NAFLIOCF@Camp?5Tasking?5Message?$AA@ DB 'Camp Tasking Message', 00H ; `string'
CONST	ENDS
;	COMDAT ??_C@_0P@MPFEECCC@Timing?5Message?$AA@
CONST	SEGMENT
??_C@_0P@MPFEECCC@Timing?5Message?$AA@ DB 'Timing Message', 00H ; `string'
CONST	ENDS
;	COMDAT ??_C@_0BD@CCBEGIFC@Send?5Campaign?5data?$AA@
CONST	SEGMENT
??_C@_0BD@CCBEGIFC@Send?5Campaign?5data?$AA@ DB 'Send Campaign data', 00H ; `string'
CONST	ENDS
;	COMDAT ??_C@_0BA@FKGDAPKN@Unit?5Assignment?$AA@
CONST	SEGMENT
??_C@_0BA@FKGDAPKN@Unit?5Assignment?$AA@ DB 'Unit Assignment', 00H ; `string'
CONST	ENDS
;	COMDAT ??_C@_0BC@NNHMFDMB@Objective?5Message?$AA@
CONST	SEGMENT
??_C@_0BC@NNHMFDMB@Objective?5Message?$AA@ DB 'Objective Message', 00H ; `string'
CONST	ENDS
;	COMDAT ??_C@_0N@PNNNAONK@Unit?5Message?$AA@
CONST	SEGMENT
??_C@_0N@PNNNAONK@Unit?5Message?$AA@ DB 'Unit Message', 00H ; `string'
CONST	ENDS
;	COMDAT ??_C@_0BB@GKOBOHAI@Sim?5Camp?5Message?$AA@
CONST	SEGMENT
??_C@_0BB@GKOBOHAI@Sim?5Camp?5Message?$AA@ DB 'Sim Camp Message', 00H ; `string'
CONST	ENDS
;	COMDAT ??_C@_0N@CCJJDLFE@Camp?5Message?$AA@
CONST	SEGMENT
??_C@_0N@CCJJDLFE@Camp?5Message?$AA@ DB 'Camp Message', 00H ; `string'
CONST	ENDS
;	COMDAT ??_C@_0BD@PEOHHNFO@Campaign?5Weap?5Fire?$AA@
CONST	SEGMENT
??_C@_0BD@PEOHHNFO@Campaign?5Weap?5Fire?$AA@ DB 'Campaign Weap Fire', 00H ; `string'
CONST	ENDS
;	COMDAT ??_C@_0M@CIEAKKNH@Weapon?5Fire?$AA@
CONST	SEGMENT
??_C@_0M@CIEAKKNH@Weapon?5Fire?$AA@ DB 'Weapon Fire', 00H ; `string'
CONST	ENDS
;	COMDAT ??_C@_0P@MBNLFLBN@Damage?5Message?$AA@
CONST	SEGMENT
??_C@_0P@MBNLFLBN@Damage?5Message?$AA@ DB 'Damage Message', 00H ; `string'
CONST	ENDS
;	COMDAT ??_C@_0BI@DOFHNDNM@Value?5needed?5to?5be?5sent?$AA@
CONST	SEGMENT
??_C@_0BI@DOFHNDNM@Value?5needed?5to?5be?5sent?$AA@ DB 'Value needed to b'
	DB	'e sent', 00H				; `string'
CONST	ENDS
;	COMDAT ??_C@_0BA@INPOOLDP@Type?5of?5Message?$AA@
CONST	SEGMENT
??_C@_0BA@INPOOLDP@Type?5of?5Message?$AA@ DB 'Type of Message', 00H ; `string'
CONST	ENDS
;	COMDAT ??_C@_0BI@POBJAIDG@Session?5Sending?5Message?$AA@
CONST	SEGMENT
??_C@_0BI@POBJAIDG@Session?5Sending?5Message?$AA@ DB 'Session Sending Mes'
	DB	'sage', 00H					; `string'
CONST	ENDS
;	COMDAT ??_C@_0CC@KPGGOMCL@It?8s?5triggered?5status?5?$CIon?5or?5off@
CONST	SEGMENT
??_C@_0CC@KPGGOMCL@It?8s?5triggered?5status?5?$CIon?5or?5off@ DB 'It''s t'
	DB	'riggered status (on or off)', 00H		; `string'
CONST	ENDS
;	COMDAT ??_C@_0N@KJLNEDCN@The?5event?5ID?$AA@
CONST	SEGMENT
??_C@_0N@KJLNEDCN@The?5event?5ID?$AA@ DB 'The event ID', 00H ; `string'
CONST	ENDS
;	COMDAT ??_C@_0BA@HEIIIJGJ@Type?5of?5message?$AA@
CONST	SEGMENT
??_C@_0BA@HEIIIJGJ@Type?5of?5message?$AA@ DB 'Type of message', 00H ; `string'
CONST	ENDS
;	COMDAT ??_C@_09CGKCDHIO@The?5shit?4?$AA@
CONST	SEGMENT
??_C@_09CGKCDHIO@The?5shit?4?$AA@ DB 'The shit.', 00H	; `string'
CONST	ENDS
;	COMDAT ??_C@_0BL@ENEIKCAH@Size?5of?5shit?5we?8re?5sending?$AA@
CONST	SEGMENT
??_C@_0BL@ENEIKCAH@Size?5of?5shit?5we?8re?5sending?$AA@ DB 'Size of shit '
	DB	'we''re sending', 00H			; `string'
CONST	ENDS
;	COMDAT ??_C@_0P@GNNPFLE@the?5data?5block?$AA@
CONST	SEGMENT
??_C@_0P@GNNPFLE@the?5data?5block?$AA@ DB 'the data block', 00H ; `string'
CONST	ENDS
;	COMDAT ??_C@_0N@PPBGKOJL@overall?5size?$AA@
CONST	SEGMENT
??_C@_0N@PPBGKOJL@overall?5size?$AA@ DB 'overall size', 00H ; `string'
CONST	ENDS
;	COMDAT ??_C@_0BD@BIOCJFFC@Size?5of?5this?5chunk?$AA@
CONST	SEGMENT
??_C@_0BD@BIOCJFFC@Size?5of?5this?5chunk?$AA@ DB 'Size of this chunk', 00H ; `string'
CONST	ENDS
;	COMDAT ??_C@_0BM@KKOEMGOC@index?5into?5which?5seg?5we?5got?$AA@
CONST	SEGMENT
??_C@_0BM@KKOEMGOC@index?5into?5which?5seg?5we?5got?$AA@ DB 'index into w'
	DB	'hich seg we got', 00H			; `string'
CONST	ENDS
;	COMDAT ??_C@_0BD@OLCJCJKM@Use?5this?5as?5a?5type?$AA@
CONST	SEGMENT
??_C@_0BD@OLCJCJKM@Use?5this?5as?5a?5type?$AA@ DB 'Use this as a type', 00H ; `string'
CONST	ENDS
;	COMDAT ??_C@_0CJ@MEIELMCL@Flags?5used?5to?5tell?5if?5there?5is?5m@
CONST	SEGMENT
??_C@_0CJ@MEIELMCL@Flags?5used?5to?5tell?5if?5there?5is?5m@ DB 'Flags use'
	DB	'd to tell if there is more data', 00H	; `string'
CONST	ENDS
;	COMDAT ??_C@_0BB@FPMILJJM@The?5logbook?5data?$AA@
CONST	SEGMENT
??_C@_0BB@FPMILJJM@The?5logbook?5data?$AA@ DB 'The logbook data', 00H ; `string'
CONST	ENDS
;	COMDAT ??_C@_0BL@EPPCCNOP@Whoever?5want?8s?5yer?5logbook?$AA@
CONST	SEGMENT
??_C@_0BL@EPPCCNOP@Whoever?5want?8s?5yer?5logbook?$AA@ DB 'Whoever want'''
	DB	's yer logbook', 00H				; `string'
CONST	ENDS
;	COMDAT ??_C@_0BC@LHEOJCLJ@New?5position?5data?$AA@
CONST	SEGMENT
??_C@_0BC@LHEOJCLJ@New?5position?5data?$AA@ DB 'New position data', 00H ; `string'
CONST	ENDS
;	COMDAT ??_C@_0P@NOKBFOBN@Who?5needs?5data?$AA@
CONST	SEGMENT
??_C@_0P@NOKBFOBN@Who?5needs?5data?$AA@ DB 'Who needs data', 00H ; `string'
CONST	ENDS
;	COMDAT ??_C@_0BA@FIJNGJHP@desired?5arrival?$AA@
CONST	SEGMENT
??_C@_0BA@FIJNGJHP@desired?5arrival?$AA@ DB 'desired arrival', 00H ; `string'
CONST	ENDS
;	COMDAT ??_C@_0BM@CGMALMIB@z?5coord?5of?5data?5link?5points?$AA@
CONST	SEGMENT
??_C@_0BM@CGMALMIB@z?5coord?5of?5data?5link?5points?$AA@ DB 'z coord of d'
	DB	'ata link points', 00H			; `string'
CONST	ENDS
;	COMDAT ??_C@_0BM@CEBOLLKG@y?5coord?5of?5data?5link?5points?$AA@
CONST	SEGMENT
??_C@_0BM@CEBOLLKG@y?5coord?5of?5data?5link?5points?$AA@ DB 'y coord of d'
	DB	'ata link points', 00H			; `string'
CONST	ENDS
;	COMDAT ??_C@_0BM@CFKLEGLL@x?5coord?5of?5data?5link?5points?$AA@
CONST	SEGMENT
??_C@_0BM@CFKLEGLL@x?5coord?5of?5data?5link?5points?$AA@ DB 'x coord of d'
	DB	'ata link points', 00H			; `string'
CONST	ENDS
;	COMDAT ??_C@_0BI@CPOOKEID@type?5of?5data?5link?5point?$AA@
CONST	SEGMENT
??_C@_0BI@CPOOKEID@type?5of?5data?5link?5point?$AA@ DB 'type of data link'
	DB	' point', 00H				; `string'
CONST	ENDS
;	COMDAT ??_C@_0CA@NAPEHNAE@classtable?5index?5for?5the?5threat?$AA@
CONST	SEGMENT
??_C@_0CA@NAPEHNAE@classtable?5index?5for?5the?5threat?$AA@ DB 'classtabl'
	DB	'e index for the threat', 00H		; `string'
CONST	ENDS
;	COMDAT ??_C@_0CA@FKPLEMJL@classtable?5index?5for?5the?5target?$AA@
CONST	SEGMENT
??_C@_0CA@FKPLEMJL@classtable?5index?5for?5the?5target?$AA@ DB 'classtabl'
	DB	'e index for the target', 00H		; `string'
CONST	ENDS
;	COMDAT ??_C@_0CG@MLGIBPFO@number?5of?5data?5link?5points?5being@
CONST	SEGMENT
??_C@_0CG@MLGIBPFO@number?5of?5data?5link?5points?5being@ DB 'number of d'
	DB	'ata link points being sent', 00H		; `string'
CONST	ENDS
;	COMDAT ??_C@_0BA@ICEOLLIA@plane?5to?5follow?$AA@
CONST	SEGMENT
??_C@_0BA@ICEOLLIA@plane?5to?5follow?$AA@ DB 'plane to follow', 00H ; `string'
CONST	ENDS
;	COMDAT ??_C@_0O@PAELLJJJ@Runway?5to?5use?$AA@
CONST	SEGMENT
??_C@_0O@PAELLJJJ@Runway?5to?5use?$AA@ DB 'Runway to use', 00H ; `string'
CONST	ENDS
;	COMDAT ??_C@_0BF@HIBNJNGI@time?5to?5land?1takeoff?$AA@
CONST	SEGMENT
??_C@_0BF@HIBNJNGI@time?5to?5land?1takeoff?$AA@ DB 'time to land/takeoff', 00H ; `string'
CONST	ENDS
;	COMDAT ??_C@_0N@HEKANIJP@Command?5Type?$AA@
CONST	SEGMENT
??_C@_0N@HEKANIJP@Command?5Type?$AA@ DB 'Command Type', 00H ; `string'
CONST	ENDS
;	COMDAT ??_C@_0BK@BIODBDOD@Id?5of?5ATC?5sending?5message?$AA@
CONST	SEGMENT
??_C@_0BK@BIODBDOD@Id?5of?5ATC?5sending?5message?$AA@ DB 'Id of ATC sendi'
	DB	'ng message', 00H				; `string'
CONST	ENDS
;	COMDAT ??_C@_09FIEMHPNO@On?5or?5Off?$AA@
CONST	SEGMENT
??_C@_09FIEMHPNO@On?5or?5Off?$AA@ DB 'On or Off', 00H	; `string'
CONST	ENDS
;	COMDAT ??_C@_0BC@HJPMLLGO@Object?5Designated?$AA@
CONST	SEGMENT
??_C@_0BC@HJPMLLGO@Object?5Designated?$AA@ DB 'Object Designated', 00H ; `string'
CONST	ENDS
;	COMDAT ??_C@_0BD@MHIOHHOK@Object?5Designating?$AA@
CONST	SEGMENT
??_C@_0BD@MHIOHHOK@Object?5Designating?$AA@ DB 'Object Designating', 00H ; `string'
CONST	ENDS
;	COMDAT ??_C@_0BJ@FFFMLFJO@What?5the?5player?5is?5doing?$AA@
CONST	SEGMENT
??_C@_0BJ@FFFMLFJO@What?5the?5player?5is?5doing?$AA@ DB 'What the player '
	DB	'is doing', 00H				; `string'
CONST	ENDS
;	COMDAT ??_C@_0CA@MBBKDIJP@in?5Dogfight?$IFPlayer?5slot?5in?5team?$AA@
CONST	SEGMENT
??_C@_0CA@MBBKDIJP@in?5Dogfight?$IFPlayer?5slot?5in?5team?$AA@ DB 'in Dog'
	DB	'fight', 085H, 'Player slot in team', 00H	; `string'
CONST	ENDS
;	COMDAT ??_C@_0BI@PJMADOOL@In?5dogfght?$IF?5Player?5team?$AA@
CONST	SEGMENT
??_C@_0BI@PJMADOOL@In?5dogfght?$IF?5Player?5team?$AA@ DB 'In dogfght', 085H
	DB	' Player team', 00H				; `string'
CONST	ENDS
;	COMDAT ??_C@_0DJ@PPDLDCOI@Player?5Callsign?0?5since?5this?5migh@
CONST	SEGMENT
??_C@_0DJ@PPDLDCOI@Player?5Callsign?0?5since?5this?5migh@ DB 'Player Call'
	DB	'sign, since this might not be available later', 00H ; `string'
CONST	ENDS
;	COMDAT ??_C@_0CD@CGEABFFI@Time?5to?5start?5playing?5this?5messa@
CONST	SEGMENT
??_C@_0CD@CGEABFFI@Time?5to?5start?5playing?5this?5messa@ DB 'Time to sta'
	DB	'rt playing this message', 00H		; `string'
CONST	ENDS
;	COMDAT ??_C@_0BL@FGNFHDNK@ID?5of?5message?5we?8re?5saying?$AA@
CONST	SEGMENT
??_C@_0BL@FGNFHDNK@ID?5of?5message?5we?8re?5saying?$AA@ DB 'ID of message'
	DB	' we''re saying', 00H			; `string'
CONST	ENDS
;	COMDAT ??_C@_0M@EBEEMOJK@Eval?5values?$AA@
CONST	SEGMENT
??_C@_0M@EBEEMOJK@Eval?5values?$AA@ DB 'Eval values', 00H ; `string'
CONST	ENDS
;	COMDAT ??_C@_0BF@KLGHEDF@?$CD?5of?5evals?5to?5follow?$AA@
CONST	SEGMENT
??_C@_0BF@KLGHEDF@?$CD?5of?5evals?5to?5follow?$AA@ DB '# of evals to foll'
	DB	'ow', 00H					; `string'
CONST	ENDS
;	COMDAT ??_C@_0BE@OHGOBELB@Voice?5ID?5of?5speaker?$AA@
CONST	SEGMENT
??_C@_0BE@OHGOBELB@Voice?5ID?5of?5speaker?$AA@ DB 'Voice ID of speaker', 00H ; `string'
CONST	ENDS
;	COMDAT ??_C@_0BI@FLIOFHJP@Who?5this?5message?5is?5for?$AA@
CONST	SEGMENT
??_C@_0BI@FLIOFHJP@Who?5this?5message?5is?5for?$AA@ DB 'Who this message '
	DB	'is for', 00H				; `string'
CONST	ENDS
;	COMDAT ??_C@_0BC@PMBEANJA@Who?8s?5saying?5this?$AA@
CONST	SEGMENT
??_C@_0BC@PMBEANJA@Who?8s?5saying?5this?$AA@ DB 'Who''s saying this', 00H ; `string'
CONST	ENDS
;	COMDAT ??_C@_0L@NKNMMNBA@Message?5id?$AA@
CONST	SEGMENT
??_C@_0L@NKNMMNBA@Message?5id?$AA@ DB 'Message id', 00H	; `string'
CONST	ENDS
;	COMDAT ??_C@_0BH@BJICAMHI@Camp?5Data?5Message?5Type?$AA@
CONST	SEGMENT
??_C@_0BH@BJICAMHI@Camp?5Data?5Message?5Type?$AA@ DB 'Camp Data Message T'
	DB	'ype', 00H					; `string'
CONST	ENDS
;	COMDAT ??_C@_0M@OMPEOGHP@Status?5data?$AA@
CONST	SEGMENT
??_C@_0M@OMPEOGHP@Status?5data?$AA@ DB 'Status data', 00H ; `string'
CONST	ENDS
;	COMDAT ??_C@_0BD@KEJFEGHE@Deaggregation?5data?$AA@
CONST	SEGMENT
??_C@_0BD@KEJFEGHE@Deaggregation?5data?$AA@ DB 'Deaggregation data', 00H ; `string'
CONST	ENDS
;	COMDAT ??_C@_0BI@CIHCNDEM@VU?5Id?5of?5tracked?5object?$AA@
CONST	SEGMENT
??_C@_0BI@CIHCNDEM@VU?5Id?5of?5tracked?5object?$AA@ DB 'VU Id of tracked '
	DB	'object', 00H				; `string'
CONST	ENDS
;	COMDAT ??_C@_0O@GBFGHJFC@Type?5of?5track?$AA@
CONST	SEGMENT
??_C@_0O@GBFGHJFC@Type?5of?5track?$AA@ DB 'Type of track', 00H ; `string'
CONST	ENDS
;	COMDAT ??_C@_0BK@KHAJOJCO@Ejector?8s?5remainging?5fuel?$AA@
CONST	SEGMENT
??_C@_0BK@KHAJOJCO@Ejector?8s?5remainging?5fuel?$AA@ DB 'Ejector''s remai'
	DB	'nging fuel', 00H				; `string'
CONST	ENDS
;	COMDAT ??_C@_0BN@OFNODJAE@Ejector?8s?5strength?5?$CI0?9?$DO100?$CF?$CJ?$AA@
CONST	SEGMENT
??_C@_0BN@OFNODJAE@Ejector?8s?5strength?5?$CI0?9?$DO100?$CF?$CJ?$AA@ DB 'E'
	DB	'jector''s strength (0->100%)', 00H		; `string'
CONST	ENDS
;	COMDAT ??_C@_0BH@INIGBCLJ@Ejecting?5entity?8s?5side?$AA@
CONST	SEGMENT
??_C@_0BH@INIGBCLJ@Ejecting?5entity?8s?5side?$AA@ DB 'Ejecting entity''s '
	DB	'side', 00H					; `string'
CONST	ENDS
;	COMDAT ??_C@_0CE@HHNOAADE@Ejecting?5entity?8s?5description?5in@
CONST	SEGMENT
??_C@_0CE@HHNOAADE@Ejecting?5entity?8s?5description?5in@ DB 'Ejecting ent'
	DB	'ity''s description index', 00H		; `string'
CONST	ENDS
;	COMDAT ??_C@_0BJ@HDCLMHAH@Eject?5pilot?8s?5ID?0?5if?5any?$AA@
CONST	SEGMENT
??_C@_0BJ@HDCLMHAH@Eject?5pilot?8s?5ID?0?5if?5any?$AA@ DB 'Eject pilot''s'
	DB	' ID, if any', 00H				; `string'
CONST	ENDS
;	COMDAT ??_C@_0BK@FLDCDAMA@Ejecting?5Camp?5entity?8s?5id?$AA@
CONST	SEGMENT
??_C@_0BK@FLDCDAMA@Ejecting?5Camp?5entity?8s?5id?$AA@ DB 'Ejecting Camp e'
	DB	'ntity''s id', 00H				; `string'
CONST	ENDS
;	COMDAT ??_C@_0BH@HDDENAAG@Ejecting?5pilot?8s?5VU_ID?$AA@
CONST	SEGMENT
??_C@_0BH@HDDENAAG@Ejecting?5pilot?8s?5VU_ID?$AA@ DB 'Ejecting pilot''s V'
	DB	'U_ID', 00H					; `string'
CONST	ENDS
;	COMDAT ??_C@_0BH@PJFGFHON@Ejecting?5plane?8s?5VU_ID?$AA@
CONST	SEGMENT
??_C@_0BH@PJFGFHON@Ejecting?5plane?8s?5VU_ID?$AA@ DB 'Ejecting plane''s V'
	DB	'U_ID', 00H					; `string'
CONST	ENDS
;	COMDAT ??_C@_0N@LEOALEGO@Radio?5Data?52?$AA@
CONST	SEGMENT
??_C@_0N@LEOALEGO@Radio?5Data?52?$AA@ DB 'Radio Data 2', 00H ; `string'
CONST	ENDS
;	COMDAT ??_C@_0N@JPMNOHKN@Radio?5Data?51?$AA@
CONST	SEGMENT
??_C@_0N@JPMNOHKN@Radio?5Data?51?$AA@ DB 'Radio Data 1', 00H ; `string'
CONST	ENDS
;	COMDAT ??_C@_0BH@LODIBCLH@Position?5in?5wait?5queue?$AA@
CONST	SEGMENT
??_C@_0BH@LODIBCLH@Position?5in?5wait?5queue?$AA@ DB 'Position in wait qu'
	DB	'eue', 00H					; `string'
CONST	ENDS
;	COMDAT ??_C@_0BF@GDHNHCBI@Tanker?5entering?5turn?$AA@
CONST	SEGMENT
??_C@_0BF@GDHNHCBI@Tanker?5entering?5turn?$AA@ DB 'Tanker entering turn', 00H ; `string'
CONST	ENDS
;	COMDAT ??_C@_0L@CMGJAGDM@Disconnect?$AA@
CONST	SEGMENT
??_C@_0L@CMGJAGDM@Disconnect?$AA@ DB 'Disconnect', 00H	; `string'
CONST	ENDS
;	COMDAT ??_C@_0N@NNDOIPOM@Boom?5Command?$AA@
CONST	SEGMENT
??_C@_0N@NNDOIPOM@Boom?5Command?$AA@ DB 'Boom Command', 00H ; `string'
CONST	ENDS
;	COMDAT ??_C@_09HLNJEJKM@Stabalize?$AA@
CONST	SEGMENT
??_C@_09HLNJEJKM@Stabalize?$AA@ DB 'Stabalize', 00H	; `string'
CONST	ENDS
;	COMDAT ??_C@_0BB@IOKDJNJI@Clear?5to?5Contact?$AA@
CONST	SEGMENT
??_C@_0BB@IOKDJNJI@Clear?5to?5Contact?$AA@ DB 'Clear to Contact', 00H ; `string'
CONST	ENDS
;	COMDAT ??_C@_0BF@JDCCEKOJ@Clear?5to?5Pre?9contact?$AA@
CONST	SEGMENT
??_C@_0BF@JDCCEKOJ@Clear?5to?5Pre?9contact?$AA@ DB 'Clear to Pre-contact', 00H ; `string'
CONST	ENDS
;	COMDAT ??_C@_09KLAFDHCE@BreakAway?$AA@
CONST	SEGMENT
??_C@_09KLAFDHCE@BreakAway?$AA@ DB 'BreakAway', 00H	; `string'
CONST	ENDS
;	COMDAT ??_C@_0N@FIPLAEED@Pumping?5Fuel?$AA@
CONST	SEGMENT
??_C@_0N@FIPLAEED@Pumping?5Fuel?$AA@ DB 'Pumping Fuel', 00H ; `string'
CONST	ENDS
;	COMDAT ??_C@_0P@FJHLPILA@Done?5Refueling?$AA@
CONST	SEGMENT
??_C@_0P@FJHLPILA@Done?5Refueling?$AA@ DB 'Done Refueling', 00H ; `string'
CONST	ENDS
;	COMDAT ??_C@_0BD@BJGKDOIA@Ready?5To?5Take?5Fuel?$AA@
CONST	SEGMENT
??_C@_0BD@BJGKDOIA@Ready?5To?5Take?5Fuel?$AA@ DB 'Ready To Take Fuel', 00H ; `string'
CONST	ENDS
;	COMDAT ??_C@_0N@CBMGJAAB@Request?5Fuel?$AA@
CONST	SEGMENT
??_C@_0N@CBMGJAAB@Request?5Fuel?$AA@ DB 'Request Fuel', 00H ; `string'
CONST	ENDS
;	COMDAT ??_C@_0BJ@JMJDBPPO@Message?5buffer?5?$CI_TCHARs?$CJ?$AA@
CONST	SEGMENT
??_C@_0BJ@JMJDBPPO@Message?5buffer?5?$CI_TCHARs?$CJ?$AA@ DB 'Message buff'
	DB	'er (_TCHARs)', 00H				; `string'
CONST	ENDS
;	COMDAT ??_C@_0N@DGMBFDBK@Message?5size?$AA@
CONST	SEGMENT
??_C@_0N@DGMBFDBK@Message?5size?$AA@ DB 'Message size', 00H ; `string'
CONST	ENDS
;	COMDAT ??_C@_0BH@CNOEMGJJ@Player?5sending?5message?$AA@
CONST	SEGMENT
??_C@_0BH@CNOEMGJJ@Player?5sending?5message?$AA@ DB 'Player sending messa'
	DB	'ge', 00H					; `string'
CONST	ENDS
;	COMDAT ??_C@_0CB@JHPNOEAM@What?5we?5still?5need?5from?5the?5host@
CONST	SEGMENT
??_C@_0CB@JHPNOEAM@What?5we?5still?5need?5from?5the?5host@ DB 'What we st'
	DB	'ill need from the host', 00H		; `string'
CONST	ENDS
;	COMDAT ??_C@_0BH@GCJOMHAN@The?5requesting?5session?$AA@
CONST	SEGMENT
??_C@_0BH@GCJOMHAN@The?5requesting?5session?$AA@ DB 'The requesting sessi'
	DB	'on', 00H					; `string'
CONST	ENDS
;	COMDAT ??_C@_0CD@LCOKKEAE@Velocity?5of?5this?5effect?0?5if?5need@
CONST	SEGMENT
??_C@_0CD@LCOKKEAE@Velocity?5of?5this?5effect?0?5if?5need@ DB 'Velocity o'
	DB	'f this effect, if needed', 00H		; `string'
CONST	ENDS
;	COMDAT ??_C@_0BI@CKHLOOEJ@Location?5of?5this?5effect?$AA@
CONST	SEGMENT
??_C@_0BI@CKHLOOEJ@Location?5of?5this?5effect?$AA@ DB 'Location of this e'
	DB	'ffect', 00H					; `string'
CONST	ENDS
;	COMDAT ??_C@_0BF@JBKEKJHH@Visual?5id?0?5if?5needed?$AA@
CONST	SEGMENT
??_C@_0BF@JBKEKJHH@Visual?5id?0?5if?5needed?$AA@ DB 'Visual id, if needed'
	DB	00H						; `string'
CONST	ENDS
;	COMDAT ??_C@_0M@EJHHBNCK@Effect?5type?$AA@
CONST	SEGMENT
??_C@_0M@EJHHBNCK@Effect?5type?$AA@ DB 'Effect type', 00H ; `string'
CONST	ENDS
;	COMDAT ??_C@_0P@GFKODIOC@Message?5length?$AA@
CONST	SEGMENT
??_C@_0P@GFKODIOC@Message?5length?$AA@ DB 'Message length', 00H ; `string'
CONST	ENDS
;	COMDAT ??_C@_0BH@HNJFPFFE@Who?5the?5message?5is?5for?$AA@
CONST	SEGMENT
??_C@_0BH@HNJFPFFE@Who?5the?5message?5is?5for?$AA@ DB 'Who the message is'
	DB	' for', 00H					; `string'
CONST	ENDS
;	COMDAT ??_C@_0BD@JHOEAHAO@Pilot?5skill?5we?5got?$AA@
CONST	SEGMENT
??_C@_0BD@JHOEAHAO@Pilot?5skill?5we?5got?$AA@ DB 'Pilot skill we got', 00H ; `string'
CONST	ENDS
;	COMDAT ??_C@_0BC@LFCADIBH@Pilot?5slot?5we?5got?$AA@
CONST	SEGMENT
??_C@_0BC@LFCADIBH@Pilot?5slot?5we?5got?$AA@ DB 'Pilot slot we got', 00H ; `string'
CONST	ENDS
;	COMDAT ??_C@_0M@PPMKLKPM@Slot?5we?5got?$AA@
CONST	SEGMENT
??_C@_0M@PPMKLKPM@Slot?5we?5got?$AA@ DB 'Slot we got', 00H ; `string'
CONST	ENDS
;	COMDAT ??_C@_0M@OOLFKJGP@Team?5we?5got?$AA@
CONST	SEGMENT
??_C@_0M@OOLFKJGP@Team?5we?5got?$AA@ DB 'Team we got', 00H ; `string'
CONST	ENDS
;	COMDAT ??_C@_0BK@FEKLGALN@The?5result?5of?5our?5request?$AA@
CONST	SEGMENT
??_C@_0BK@FEKLGALN@The?5result?5of?5our?5request?$AA@ DB 'The result of o'
	DB	'ur request', 00H				; `string'
CONST	ENDS
;	COMDAT ??_C@_09MHINMAAC@Host?8s?5ID?$AA@
CONST	SEGMENT
??_C@_09MHINMAAC@Host?8s?5ID?$AA@ DB 'Host''s ID', 00H	; `string'
CONST	ENDS
;	COMDAT ??_C@_0BB@GPJIEAME@Sessions?5game?5Id?$AA@
CONST	SEGMENT
??_C@_0BB@GPJIEAME@Sessions?5game?5Id?$AA@ DB 'Sessions game Id', 00H ; `string'
CONST	ENDS
;	COMDAT ??_C@_0BD@OBOMFCBL@Session?5responding?$AA@
CONST	SEGMENT
??_C@_0BD@OBOMFCBL@Session?5responding?$AA@ DB 'Session responding', 00H ; `string'
CONST	ENDS
;	COMDAT ??_C@_0BG@PLHPGNCI@Type?5we?8re?5asking?5for?$AA@
CONST	SEGMENT
??_C@_0BG@PLHPGNCI@Type?5we?8re?5asking?5for?$AA@ DB 'Type we''re asking '
	DB	'for', 00H					; `string'
CONST	ENDS
;	COMDAT ??_C@_0BH@IAOIHPA@Skill?5we?8re?5asking?5for?$AA@
CONST	SEGMENT
??_C@_0BH@IAOIHPA@Skill?5we?8re?5asking?5for?$AA@ DB 'Skill we''re asking'
	DB	' for', 00H					; `string'
CONST	ENDS
;	COMDAT ??_C@_0BG@JIKGPH@Slot?5we?8re?5asking?5for?$AA@
CONST	SEGMENT
??_C@_0BG@JIKGPH@Slot?5we?8re?5asking?5for?$AA@ DB 'Slot we''re asking fo'
	DB	'r', 00H					; `string'
CONST	ENDS
;	COMDAT ??_C@_0BP@EFBFGIFJ@Current?5slot?5occupied?5?$CIif?5any?$CJ?$AA@
CONST	SEGMENT
??_C@_0BP@EFBFGIFJ@Current?5slot?5occupied?5?$CIif?5any?$CJ?$AA@ DB 'Curr'
	DB	'ent slot occupied (if any)', 00H		; `string'
CONST	ENDS
;	COMDAT ??_C@_0P@LAMKBGHO@Team?5requested?$AA@
CONST	SEGMENT
??_C@_0P@LAMKBGHO@Team?5requested?$AA@ DB 'Team requested', 00H ; `string'
CONST	ENDS
;	COMDAT ??_C@_0N@NNEKHCMP@Type?5of?5game?$AA@
CONST	SEGMENT
??_C@_0N@NNEKHCMP@Type?5of?5game?$AA@ DB 'Type of game', 00H ; `string'
CONST	ENDS
;	COMDAT ??_C@_0CG@EBHPHJHI@get?5slot?0?5leave?5slot?0?5change?5cal@
CONST	SEGMENT
??_C@_0CG@EBHPHJHI@get?5slot?0?5leave?5slot?0?5change?5cal@ DB 'get slot,'
	DB	' leave slot, change callsign', 00H		; `string'
CONST	ENDS
;	COMDAT ??_C@_0O@OCAOBLMH@The?5game?8s?5Id?$AA@
CONST	SEGMENT
??_C@_0O@OCAOBLMH@The?5game?8s?5Id?$AA@ DB 'The game''s Id', 00H ; `string'
CONST	ENDS
;	COMDAT ??_C@_06BNDFMADG@On?1Off?$AA@
CONST	SEGMENT
??_C@_06BNDFMADG@On?1Off?$AA@ DB 'On/Off', 00H		; `string'
CONST	ENDS
;	COMDAT ??_C@_0BL@IFEGNMPM@Entity?5who?8s?5data?5you?5need?$AA@
CONST	SEGMENT
??_C@_0BL@IFEGNMPM@Entity?5who?8s?5data?5you?5need?$AA@ DB 'Entity who''s'
	DB	' data you need', 00H			; `string'
CONST	ENDS
;	COMDAT ??_C@_0L@LOFJIMAE@Extra?5Data?$AA@
CONST	SEGMENT
??_C@_0L@LOFJIMAE@Extra?5Data?$AA@ DB 'Extra Data', 00H	; `string'
CONST	ENDS
;	COMDAT ??_C@_0M@HIANBPBG@Switch?5Data?$AA@
CONST	SEGMENT
??_C@_0M@HIANBPBG@Switch?5Data?$AA@ DB 'Switch Data', 00H ; `string'
CONST	ENDS
;	COMDAT ??_C@_08NNJNFNMB@DOF?5Type?$AA@
CONST	SEGMENT
??_C@_08NNJNFNMB@DOF?5Type?$AA@ DB 'DOF Type', 00H	; `string'
CONST	ENDS
;	COMDAT ??_C@_0BD@MIIJBDDJ@Degrees?5of?5Freedom?$AA@
CONST	SEGMENT
??_C@_0BD@MIIJBDDJ@Degrees?5of?5Freedom?$AA@ DB 'Degrees of Freedom', 00H ; `string'
CONST	ENDS
;	COMDAT ??_C@_0BD@GDEPFMIK@Number?5of?5Switches?$AA@
CONST	SEGMENT
??_C@_0BD@GDEPFMIK@Number?5of?5Switches?$AA@ DB 'Number of Switches', 00H ; `string'
CONST	ENDS
;	COMDAT ??_C@_0P@NNGPKNHG@Number?5of?5Dofs?$AA@
CONST	SEGMENT
??_C@_0P@NNGPKNHG@Number?5of?5Dofs?$AA@ DB 'Number of Dofs', 00H ; `string'
CONST	ENDS
;	COMDAT ??_C@_0O@NJPKNKPB@Owning?5Entity?$AA@
CONST	SEGMENT
??_C@_0O@NJPKNKPB@Owning?5Entity?$AA@ DB 'Owning Entity', 00H ; `string'
CONST	ENDS
;	COMDAT ??_C@_0BI@DIGLGJLC@Lander?8s?5remaining?5fuel?$AA@
CONST	SEGMENT
??_C@_0BI@DIGLGJLC@Lander?8s?5remaining?5fuel?$AA@ DB 'Lander''s remainin'
	DB	'g fuel', 00H				; `string'
CONST	ENDS
;	COMDAT ??_C@_0BL@JBBHECD@Lander?8s?5strength?5?$CI0?9100?$CF?$CJ?$AA@
CONST	SEGMENT
??_C@_0BL@JBBHECD@Lander?8s?5strength?5?$CI0?9100?$CF?$CJ?$AA@ DB 'Lander'
	DB	'''s strength (0-100%)', 00H			; `string'
CONST	ENDS
;	COMDAT ??_C@_0O@FOECLJCC@Landing?5Grade?$AA@
CONST	SEGMENT
??_C@_0O@FOECLJCC@Landing?5Grade?$AA@ DB 'Landing Grade', 00H ; `string'
CONST	ENDS
;	COMDAT ??_C@_0CC@JHMCAGLD@Landed?5entity?8s?5description?5inde@
CONST	SEGMENT
??_C@_0CC@JHMCAGLD@Landed?5entity?8s?5description?5inde@ DB 'Landed entit'
	DB	'y''s description index', 00H		; `string'
CONST	ENDS
;	COMDAT ??_C@_0BO@FGFFMPK@Landed?5entity?8s?5campaign?5slot?$AA@
CONST	SEGMENT
??_C@_0BO@FGFFMPK@Landed?5entity?8s?5campaign?5slot?$AA@ DB 'Landed entit'
	DB	'y''s campaign slot', 00H			; `string'
CONST	ENDS
;	COMDAT ??_C@_0BC@FCILABHK@Landed?5pilot?8s?5ID?$AA@
CONST	SEGMENT
??_C@_0BC@FCILABHK@Landed?5pilot?8s?5ID?$AA@ DB 'Landed pilot''s ID', 00H ; `string'
CONST	ENDS
;	COMDAT ??_C@_0BH@GFMCJOMF@Landed?5entity?8s?5CampID?$AA@
CONST	SEGMENT
??_C@_0BH@GFMCJOMF@Landed?5entity?8s?5CampID?$AA@ DB 'Landed entity''s Ca'
	DB	'mpID', 00H					; `string'
CONST	ENDS
;	COMDAT ??_C@_0L@OAKJCDPB@Who?5Landed?$AA@
CONST	SEGMENT
??_C@_0L@OAKJCDPB@Who?5Landed?$AA@ DB 'Who Landed', 00H	; `string'
CONST	ENDS
;	COMDAT ??_C@_0BK@KJDNAJPC@Text?5ids?5of?5input?5strings?$AA@
CONST	SEGMENT
??_C@_0BK@KJDNAJPC@Text?5ids?5of?5input?5strings?$AA@ DB 'Text ids of inp'
	DB	'ut strings', 00H				; `string'
CONST	ENDS
;	COMDAT ??_C@_0BL@CLDPEIOC@Vu?5ids?5of?5entitys?5envolved?$AA@
CONST	SEGMENT
??_C@_0BL@CLDPEIOC@Vu?5ids?5of?5entitys?5envolved?$AA@ DB 'Vu ids of enti'
	DB	'tys envolved', 00H				; `string'
CONST	ENDS
;	COMDAT ??_C@_0BH@DICODLMF@Location?5of?5this?5event?$AA@
CONST	SEGMENT
??_C@_0BH@DICODLMF@Location?5of?5this?5event?$AA@ DB 'Location of this ev'
	DB	'ent', 00H					; `string'
CONST	ENDS
;	COMDAT ??_C@_0BK@JDANDPPK@Size?5of?5string?5to?5follow?3?$AA@
CONST	SEGMENT
??_C@_0BK@JDANDPPK@Size?5of?5string?5to?5follow?3?$AA@ DB 'Size of string'
	DB	' to follow:', 00H				; `string'
CONST	ENDS
;	COMDAT ??_C@_0BL@CMAAAOAG@What?5team?5this?5pertains?5to?$AA@
CONST	SEGMENT
??_C@_0BL@CMAAAOAG@What?5team?5this?5pertains?5to?$AA@ DB 'What team this'
	DB	' pertains to', 00H				; `string'
CONST	ENDS
;	COMDAT ??_C@_05BOOEKJH@Flags?$AA@
CONST	SEGMENT
??_C@_05BOOEKJH@Flags?$AA@ DB 'Flags', 00H		; `string'
CONST	ENDS
;	COMDAT ??_C@_0L@JDPBPIKC@Event?5Type?$AA@
CONST	SEGMENT
??_C@_0L@JDPBPIKC@Event?5Type?$AA@ DB 'Event Type', 00H	; `string'
CONST	ENDS
;	COMDAT ??_C@_0BL@LEKDCMDC@A?5triggered?5event?5happened?$AA@
CONST	SEGMENT
??_C@_0BL@LEKDCMDC@A?5triggered?5event?5happened?$AA@ DB 'A triggered eve'
	DB	'nt happened', 00H				; `string'
CONST	ENDS
;	COMDAT ??_C@_0BN@LMOLKLFL@A?5country?5has?5switched?5teams?$AA@
CONST	SEGMENT
??_C@_0BN@LMOLKLFL@A?5country?5has?5switched?5teams?$AA@ DB 'A country ha'
	DB	's switched teams', 00H			; `string'
CONST	ENDS
;	COMDAT ??_C@_0BK@LEJNDIBH@An?5objective?5was?5captured?$AA@
CONST	SEGMENT
??_C@_0BK@LEJNDIBH@An?5objective?5was?5captured?$AA@ DB 'An objective was'
	DB	' captured', 00H				; `string'
CONST	ENDS
;	COMDAT ??_C@_0BH@CJKDHPHB@A?5new?5unit?5has?5arrived?$AA@
CONST	SEGMENT
??_C@_0BH@CJKDHPHB@A?5new?5unit?5has?5arrived?$AA@ DB 'A new unit has arr'
	DB	'ived', 00H					; `string'
CONST	ENDS
;	COMDAT ??_C@_0BF@JPOCIAJJ@A?5unit?5was?5destroyed?$AA@
CONST	SEGMENT
??_C@_0BF@JPOCIAJJ@A?5unit?5was?5destroyed?$AA@ DB 'A unit was destroyed', 00H ; `string'
CONST	ENDS
;	COMDAT ??_C@_0CB@MDGOLLEO@A?5unit?5is?5withdrawing?5or?5aborted@
CONST	SEGMENT
??_C@_0CB@MDGOLLEO@A?5unit?5is?5withdrawing?5or?5aborted@ DB 'A unit is w'
	DB	'ithdrawing or aborted', 00H			; `string'
CONST	ENDS
;	COMDAT ??_C@_0BN@MPFNEFME@Camp?5Entity?5has?5taken?5losses?$AA@
CONST	SEGMENT
??_C@_0BN@MPFNEFME@Camp?5Entity?5has?5taken?5losses?$AA@ DB 'Camp Entity '
	DB	'has taken losses', 00H			; `string'
CONST	ENDS
;	COMDAT ??_C@_0BM@MOEABOOG@Campaign?5units?5are?5fighting?$AA@
CONST	SEGMENT
??_C@_0BM@MOEABOOG@Campaign?5units?5are?5fighting?$AA@ DB 'Campaign units'
	DB	' are fighting', 00H				; `string'
CONST	ENDS
;	COMDAT ??_C@_0BI@OAEHFKD@current?5status?5of?5plane?$AA@
CONST	SEGMENT
??_C@_0BI@OAEHFKD@current?5status?5of?5plane?$AA@ DB 'current status of p'
	DB	'lane', 00H					; `string'
CONST	ENDS
;	COMDAT ??_C@_0BP@FEECOCNG@tell?5ATC?5when?5you?5change?5modes?$AA@
CONST	SEGMENT
??_C@_0BP@FEECOCNG@tell?5ATC?5when?5you?5change?5modes?$AA@ DB 'tell ATC '
	DB	'when you change modes', 00H			; `string'
CONST	ENDS
;	COMDAT ??_C@_0N@INBEFAEN@Request?5Taxi?$AA@
CONST	SEGMENT
??_C@_0N@INBEFAEN@Request?5Taxi?$AA@ DB 'Request Taxi', 00H ; `string'
CONST	ENDS
;	COMDAT ??_C@_0BA@IECJJGOF@Request?5Takeoff?$AA@
CONST	SEGMENT
??_C@_0BA@IECJJGOF@Request?5Takeoff?$AA@ DB 'Request Takeoff', 00H ; `string'
CONST	ENDS
;	COMDAT ??_C@_07DGOBJIAC@Inbound?$AA@
CONST	SEGMENT
??_C@_07DGOBJIAC@Inbound?$AA@ DB 'Inbound', 00H		; `string'
CONST	ENDS
;	COMDAT ??_C@_0BH@IDOCHLGI@Declaring?5an?5Emergency?$AA@
CONST	SEGMENT
??_C@_0BH@IDOCHLGI@Declaring?5an?5Emergency?$AA@ DB 'Declaring an Emergen'
	DB	'cy', 00H					; `string'
CONST	ENDS
;	COMDAT ??_C@_0BA@HELJDLFN@Request?5Landing?$AA@
CONST	SEGMENT
??_C@_0BA@HELJDLFN@Request?5Landing?$AA@ DB 'Request Landing', 00H ; `string'
CONST	ENDS
;	COMDAT ??_C@_06FCJBFIKN@Data?53?$AA@
CONST	SEGMENT
??_C@_06FCJBFIKN@Data?53?$AA@ DB 'Data 3', 00H		; `string'
CONST	ENDS
;	COMDAT ??_C@_06ELIKGJOM@Data?52?$AA@
CONST	SEGMENT
??_C@_06ELIKGJOM@Data?52?$AA@ DB 'Data 2', 00H		; `string'
CONST	ENDS
;	COMDAT ??_C@_06GAKHDKCP@Data?51?$AA@
CONST	SEGMENT
??_C@_06GAKHDKCP@Data?51?$AA@ DB 'Data 1', 00H		; `string'
CONST	ENDS
;	COMDAT ??_C@_09MNHFKPOO@Target?5Id?$AA@
CONST	SEGMENT
??_C@_09MNHFKPOO@Target?5Id?$AA@ DB 'Target Id', 00H	; `string'
CONST	ENDS
;	COMDAT ??_C@_0L@MJOHGJEG@Send?5Helos?$AA@
CONST	SEGMENT
??_C@_0L@MJOHGJEG@Send?5Helos?$AA@ DB 'Send Helos', 00H	; `string'
CONST	ENDS
;	COMDAT ??_C@_0BD@PFECKCEO@Attack?5this?5target?$AA@
CONST	SEGMENT
??_C@_0BD@PFECKCEO@Attack?5this?5target?$AA@ DB 'Attack this target', 00H ; `string'
CONST	ENDS
;	COMDAT ??_C@_08HJHPADDB@Clear?5LZ?$AA@
CONST	SEGMENT
??_C@_08HJHPADDB@Clear?5LZ?$AA@ DB 'Clear LZ', 00H	; `string'
CONST	ENDS
;	COMDAT ??_C@_0BF@ECCGCKOM@Scud?5Launch?5Detected?$AA@
CONST	SEGMENT
??_C@_0BF@ECCGCKOM@Scud?5Launch?5Detected?$AA@ DB 'Scud Launch Detected', 00H ; `string'
CONST	ENDS
;	COMDAT ??_C@_0L@GBHIEMHN@Doors?5Open?$AA@
CONST	SEGMENT
??_C@_0L@GBHIEMHN@Doors?5Open?$AA@ DB 'Doors Open', 00H	; `string'
CONST	ENDS
;	COMDAT ??_C@_0BM@PKJNKCFN@Target?5is?5hardend?5artillery?$AA@
CONST	SEGMENT
??_C@_0BM@PKJNKCFN@Target?5is?5hardend?5artillery?$AA@ DB 'Target is hard'
	DB	'end artillery', 00H				; `string'
CONST	ENDS
;	COMDAT ??_C@_0BF@MDAHAANH@Can?5flight?5re?9attack?$AA@
CONST	SEGMENT
??_C@_0BF@MDAHAANH@Can?5flight?5re?9attack?$AA@ DB 'Can flight re-attack', 00H ; `string'
CONST	ENDS
;	COMDAT ??_C@_0BF@CKAKNHJC@Attacking?5Friendlies?$AA@
CONST	SEGMENT
??_C@_0BF@CKAKNHJC@Attacking?5Friendlies?$AA@ DB 'Attacking Friendlies', 00H ; `string'
CONST	ENDS
;	COMDAT ??_C@_0O@JDLNBKCA@Target?5Missed?$AA@
CONST	SEGMENT
??_C@_0O@JDLNBKCA@Target?5Missed?$AA@ DB 'Target Missed', 00H ; `string'
CONST	ENDS
;	COMDAT ??_C@_0BG@LOEGCJID@Bomb?5Damage?5Assesment?$AA@
CONST	SEGMENT
??_C@_0BG@LOEGCJID@Bomb?5Damage?5Assesment?$AA@ DB 'Bomb Damage Assesment'
	DB	00H						; `string'
CONST	ENDS
;	COMDAT ??_C@_0BG@NLHBABMJ@Ground?5Target?5Bearing?$AA@
CONST	SEGMENT
??_C@_0BG@NLHBABMJ@Ground?5Target?5Bearing?$AA@ DB 'Ground Target Bearing'
	DB	00H						; `string'
CONST	ENDS
;	COMDAT ??_C@_0BF@ECCPGBAI@No?5Targets?5Available?$AA@
CONST	SEGMENT
??_C@_0BF@ECCPGBAI@No?5Targets?5Available?$AA@ DB 'No Targets Available', 00H ; `string'
CONST	ENDS
;	COMDAT ??_C@_0BA@DMBPPEEC@Attack?5Briefing?$AA@
CONST	SEGMENT
??_C@_0BA@DMBPPEEC@Attack?5Briefing?$AA@ DB 'Attack Briefing', 00H ; `string'
CONST	ENDS
;	COMDAT ??_C@_0O@NHCDMOIN@Target?5Marked?$AA@
CONST	SEGMENT
??_C@_0O@NHCDMOIN@Target?5Marked?$AA@ DB 'Target Marked', 00H ; `string'
CONST	ENDS
;	COMDAT ??_C@_0L@FEBFFPCI@FAC?5Sitrep?$AA@
CONST	SEGMENT
??_C@_0L@FEBFFPCI@FAC?5Sitrep?$AA@ DB 'FAC Sitrep', 00H	; `string'
CONST	ENDS
;	COMDAT ??_C@_0L@FJFHFCBM@Hold?5At?5CP?$AA@
CONST	SEGMENT
??_C@_0L@FJFHFCBM@Hold?5At?5CP?$AA@ DB 'Hold At CP', 00H ; `string'
CONST	ENDS
;	COMDAT ??_C@_0BC@POEHHJMI@Request?5FAC?5Tacan?$AA@
CONST	SEGMENT
??_C@_0BC@POEHHJMI@Request?5FAC?5Tacan?$AA@ DB 'Request FAC Tacan', 00H ; `string'
CONST	ENDS
;	COMDAT ??_C@_0BF@FPOANOEP@Request?5FAC?5Location?$AA@
CONST	SEGMENT
??_C@_0BF@FPOANOEP@Request?5FAC?5Location?$AA@ DB 'Request FAC Location', 00H ; `string'
CONST	ENDS
;	COMDAT ??_C@_0M@GNEDGABB@Request?5BDA?$AA@
CONST	SEGMENT
??_C@_0M@GNEDGABB@Request?5BDA?$AA@ DB 'Request BDA', 00H ; `string'
CONST	ENDS
;	COMDAT ??_C@_0P@IBJMDHAD@Request?5Target?$AA@
CONST	SEGMENT
??_C@_0P@IBJMDHAD@Request?5Target?$AA@ DB 'Request Target', 00H ; `string'
CONST	ENDS
;	COMDAT ??_C@_0N@NPEFECOK@Request?5Mark?$AA@
CONST	SEGMENT
??_C@_0N@NPEFECOK@Request?5Mark?$AA@ DB 'Request Mark', 00H ; `string'
CONST	ENDS
;	COMDAT ??_C@_0BJ@FIOAECKA@Notify?5we?8re?5off?5station?$AA@
CONST	SEGMENT
??_C@_0BJ@FIOAECKA@Notify?5we?8re?5off?5station?$AA@ DB 'Notify we''re of'
	DB	'f station', 00H				; `string'
CONST	ENDS
;	COMDAT ??_C@_0BI@MGKLEENL@Notify?5we?8re?5on?5station?$AA@
CONST	SEGMENT
??_C@_0BI@MGKLEENL@Notify?5we?8re?5on?5station?$AA@ DB 'Notify we''re on '
	DB	'station', 00H				; `string'
CONST	ENDS
;	COMDAT ??_C@_0BA@LGMPFINL@Ready?5to?5attack?$AA@
CONST	SEGMENT
??_C@_0BA@LGMPFINL@Ready?5to?5attack?$AA@ DB 'Ready to attack', 00H ; `string'
CONST	ENDS
;	COMDAT ??_C@_0M@FGEGOHEG@Will?5Comply?$AA@
CONST	SEGMENT
??_C@_0M@FGEGOHEG@Will?5Comply?$AA@ DB 'Will Comply', 00H ; `string'
CONST	ENDS
;	COMDAT ??_C@_0L@GOLIPNAK@On?5Station?$AA@
CONST	SEGMENT
??_C@_0L@GOLIPNAK@On?5Station?$AA@ DB 'On Station', 00H	; `string'
CONST	ENDS
;	COMDAT ??_C@_0BA@GGIIBFLL@A?1C?5making?5call?$AA@
CONST	SEGMENT
??_C@_0BA@GGIIBFLL@A?1C?5making?5call?$AA@ DB 'A/C making call', 00H ; `string'
CONST	ENDS
;	COMDAT ??_C@_07PAEDNLMB@Declare?$AA@
CONST	SEGMENT
??_C@_07PAEDNLMB@Declare?$AA@ DB 'Declare', 00H		; `string'
CONST	ENDS
;	COMDAT ??_C@_0CL@CGNEDADN@A?5friendly?5UNIT?5is?5engaged?5?$CIair?5@
CONST	SEGMENT
??_C@_0CL@CGNEDADN@A?5friendly?5UNIT?5is?5engaged?5?$CIair?5@ DB 'A frien'
	DB	'dly UNIT is engaged (air or ground)', 00H	; `string'
CONST	ENDS
;	COMDAT ??_C@_0CA@EKHAJPLF@Course?5correction?5for?5intercept?$AA@
CONST	SEGMENT
??_C@_0CA@EKHAJPLF@Course?5correction?5for?5intercept?$AA@ DB 'Course cor'
	DB	'rection for intercept', 00H			; `string'
CONST	ENDS
;	COMDAT ??_C@_0BH@OBIJPKLF@A?5flight?5has?5taken?5off?$AA@
CONST	SEGMENT
??_C@_0BH@OBIJPKLF@A?5flight?5has?5taken?5off?$AA@ DB 'A flight has taken'
	DB	' off', 00H					; `string'
CONST	ENDS
;	COMDAT ??_C@_0BP@PPKECIMN@Go?5back?5to?5what?5you?5were?5doing?$AA@
CONST	SEGMENT
??_C@_0BP@PPKECIMN@Go?5back?5to?5what?5you?5were?5doing?$AA@ DB 'Go back '
	DB	'to what you were doing', 00H		; `string'
CONST	ENDS
;	COMDAT ??_C@_0BI@LOHNALAP@Requested?5divert?5denied?$AA@
CONST	SEGMENT
??_C@_0BI@LOHNALAP@Requested?5divert?5denied?$AA@ DB 'Requested divert de'
	DB	'nied', 00H					; `string'
CONST	ENDS
;	COMDAT ??_C@_0BJ@ELDBJOCA@Any?5other?5type?5of?5divert?$AA@
CONST	SEGMENT
??_C@_0BJ@ELDBJOCA@Any?5other?5type?5of?5divert?$AA@ DB 'Any other type o'
	DB	'f divert', 00H				; `string'
CONST	ENDS
;	COMDAT ??_C@_0CB@NHFKDMPJ@Flight?5ordered?5to?5hit?5ground?5veh@
CONST	SEGMENT
??_C@_0CB@NHFKDMPJ@Flight?5ordered?5to?5hit?5ground?5veh@ DB 'Flight orde'
	DB	'red to hit ground veh', 00H			; `string'
CONST	ENDS
;	COMDAT ??_C@_0CC@FNAHMDJH@Flight?5ordered?5to?5intercept?5enem@
CONST	SEGMENT
??_C@_0CC@FNAHMDJH@Flight?5ordered?5to?5intercept?5enem@ DB 'Flight order'
	DB	'ed to intercept enemy', 00H			; `string'
CONST	ENDS
;	COMDAT ??_C@_0CA@LDPBGFJJ@Flight?5ordered?5to?5cover?5another?$AA@
CONST	SEGMENT
??_C@_0CA@LDPBGFJJ@Flight?5ordered?5to?5cover?5another?$AA@ DB 'Flight or'
	DB	'dered to cover another', 00H		; `string'
CONST	ENDS
;	COMDAT ??_C@_0CC@MOJLOLNB@Flight?8s?5patrol?5has?5been?5relieve@
CONST	SEGMENT
??_C@_0CC@MOJLOLNB@Flight?8s?5patrol?5has?5been?5relieve@ DB 'Flight''s p'
	DB	'atrol has been relieved', 00H		; `string'
CONST	ENDS
;	COMDAT ??_C@_0BP@LIAJMHEN@Flight?8s?5patrol?5period?5is?5over?$AA@
CONST	SEGMENT
??_C@_0BP@LIAJMHEN@Flight?8s?5patrol?5period?5is?5over?$AA@ DB 'Flight''s'
	DB	' patrol period is over', 00H		; `string'
CONST	ENDS
;	COMDAT ??_C@_0BP@BLDEGOAH@Flight?5is?5at?5the?5contact?5point?$AA@
CONST	SEGMENT
??_C@_0BP@BLDEGOAH@Flight?5is?5at?5the?5contact?5point?$AA@ DB 'Flight is'
	DB	' at the contact point', 00H			; `string'
CONST	ENDS
;	COMDAT ??_C@_0BP@JBKOBFGF@Campaign?5is?5sending?5assistance?$AA@
CONST	SEGMENT
??_C@_0BP@JBKOBFGF@Campaign?5is?5sending?5assistance?$AA@ DB 'Campaign is'
	DB	' sending assistance', 00H			; `string'
CONST	ENDS
;	COMDAT ??_C@_0CB@GLKEFMGB@Campaign?5ordered?5a?5mission?5abort@
CONST	SEGMENT
??_C@_0CB@GLKEFMGB@Campaign?5ordered?5a?5mission?5abort@ DB 'Campaign ord'
	DB	'ered a mission abort', 00H			; `string'
CONST	ENDS
;	COMDAT ??_C@_0BG@NFJBFCC@Plays?5PictureBRA?5call?$AA@
CONST	SEGMENT
??_C@_0BG@NFJBFCC@Plays?5PictureBRA?5call?$AA@ DB 'Plays PictureBRA call', 00H ; `string'
CONST	ENDS
;	COMDAT ??_C@_0BB@CBOIHBGL@Vector?5to?5target?$AA@
CONST	SEGMENT
??_C@_0BB@CBOIHBGL@Vector?5to?5target?$AA@ DB 'Vector to target', 00H ; `string'
CONST	ENDS
;	COMDAT ??_C@_0BJ@KBFGPOBB@Vector?5to?5nearest?5threat?$AA@
CONST	SEGMENT
??_C@_0BJ@KBFGPOBB@Vector?5to?5nearest?5threat?$AA@ DB 'Vector to nearest'
	DB	' threat', 00H				; `string'
CONST	ENDS
;	COMDAT ??_C@_0BC@NKPJHHPI@Vector?5to?5package?$AA@
CONST	SEGMENT
??_C@_0BC@NKPJHHPI@Vector?5to?5package?$AA@ DB 'Vector to package', 00H ; `string'
CONST	ENDS
;	COMDAT ??_C@_0BB@JIHEBDNG@Vector?5to?5tanker?$AA@
CONST	SEGMENT
??_C@_0BB@JIHEBDNG@Vector?5to?5tanker?$AA@ DB 'Vector to tanker', 00H ; `string'
CONST	ENDS
;	COMDAT ??_C@_0BH@ILNFHEPE@Vector?5to?5divert?5field?$AA@
CONST	SEGMENT
??_C@_0BH@ILNFHEPE@Vector?5to?5divert?5field?$AA@ DB 'Vector to divert fi'
	DB	'eld', 00H					; `string'
CONST	ENDS
;	COMDAT ??_C@_0BF@PBCLLKDB@Vector?5to?5home?5plate?$AA@
CONST	SEGMENT
??_C@_0BF@PBCLLKDB@Vector?5to?5home?5plate?$AA@ DB 'Vector to home plate', 00H ; `string'
CONST	ENDS
;	COMDAT ??_C@_09HFMINBLA@Check?5out?$AA@
CONST	SEGMENT
??_C@_09HFMINBLA@Check?5out?$AA@ DB 'Check out', 00H	; `string'
CONST	ENDS
;	COMDAT ??_C@_08FIKBCOMP@Check?5in?$AA@
CONST	SEGMENT
??_C@_08FIKBCOMP@Check?5in?$AA@ DB 'Check in', 00H	; `string'
CONST	ENDS
;	COMDAT ??_C@_0BH@FCGGLCKP@Request?5rescue?5chopper?$AA@
CONST	SEGMENT
??_C@_0BH@FCGGLCKP@Request?5rescue?5chopper?$AA@ DB 'Request rescue chopp'
	DB	'er', 00H					; `string'
CONST	ENDS
;	COMDAT ??_C@_0BH@ELPGOALB@Request?5divert?5mission?$AA@
CONST	SEGMENT
??_C@_0BH@ELPGOALB@Request?5divert?5mission?$AA@ DB 'Request divert missi'
	DB	'on', 00H					; `string'
CONST	ENDS
;	COMDAT ??_C@_0P@PBJLFHLA@Request?5relief?$AA@
CONST	SEGMENT
??_C@_0P@PBJLFHLA@Request?5relief?$AA@ DB 'Request relief', 00H ; `string'
CONST	ENDS
;	COMDAT ??_C@_0N@OGIIDACJ@Request?5help?$AA@
CONST	SEGMENT
??_C@_0N@OGIIDACJ@Request?5help?$AA@ DB 'Request help', 00H ; `string'
CONST	ENDS
;	COMDAT ??_C@_0BA@HEIPGHOF@Request?5picture?$AA@
CONST	SEGMENT
??_C@_0BA@HEIPGHOF@Request?5picture?$AA@ DB 'Request picture', 00H ; `string'
CONST	ENDS
;	COMDAT ??_C@_0BF@EHBBBBFN@Judy?5?$CIAWACS?5shut?5up?$CJ?$AA@
CONST	SEGMENT
??_C@_0BF@EHBBBBFN@Judy?5?$CIAWACS?5shut?5up?$CJ?$AA@ DB 'Judy (AWACS shu'
	DB	't up)', 00H					; `string'
CONST	ENDS
;	COMDAT ??_C@_0BB@NGGHEGCD@Unable?5to?5comply?$AA@
CONST	SEGMENT
??_C@_0BB@NGGHEGCD@Unable?5to?5comply?$AA@ DB 'Unable to comply', 00H ; `string'
CONST	ENDS
;	COMDAT ??_C@_05BCJADJIF@Wilco?$AA@
CONST	SEGMENT
??_C@_05BCJADJIF@Wilco?$AA@ DB 'Wilco', 00H		; `string'
CONST	ENDS
;	COMDAT ??_C@_0P@GDAGAOMA@Missile?5Result?$AA@
CONST	SEGMENT
??_C@_0P@GDAGAOMA@Missile?5Result?$AA@ DB 'Missile Result', 00H ; `string'
CONST	ENDS
;	COMDAT ??_C@_0BO@KEPFFMJM@Firing?5entity?8s?5campaign?5slot?$AA@
CONST	SEGMENT
??_C@_0BO@KEPFFMJM@Firing?5entity?8s?5campaign?5slot?$AA@ DB 'Firing enti'
	DB	'ty''s campaign slot', 00H			; `string'
CONST	ENDS
;	COMDAT ??_C@_0BD@MGNLBCIJ@Dead?5entity?8s?5side?$AA@
CONST	SEGMENT
??_C@_0BD@MGNLBCIJ@Dead?5entity?8s?5side?$AA@ DB 'Dead entity''s side', 00H ; `string'
CONST	ENDS
;	COMDAT ??_C@_0CA@KFNHIBGP@Dead?5entity?8s?5description?5index?$AA@
CONST	SEGMENT
??_C@_0CA@KFNHIBGP@Dead?5entity?8s?5description?5index?$AA@ DB 'Dead enti'
	DB	'ty''s description index', 00H		; `string'
CONST	ENDS
;	COMDAT ??_C@_0BM@OLBALGJL@Dead?5entity?8s?5campaign?5slot?$AA@
CONST	SEGMENT
??_C@_0BM@OLBALGJL@Dead?5entity?8s?5campaign?5slot?$AA@ DB 'Dead entity'''
	DB	's campaign slot', 00H			; `string'
CONST	ENDS
;	COMDAT ??_C@_0BI@CFGMAJFM@Dead?5pilot?8s?5ID?0?5if?5any?$AA@
CONST	SEGMENT
??_C@_0BI@CFGMAJFM@Dead?5pilot?8s?5ID?0?5if?5any?$AA@ DB 'Dead pilot''s I'
	DB	'D, if any', 00H				; `string'
CONST	ENDS
;	COMDAT ??_C@_0BE@CFHKGLLB@Dead?5entity?8s?5VU_ID?$AA@
CONST	SEGMENT
??_C@_0BE@CFHKGLLB@Dead?5entity?8s?5VU_ID?$AA@ DB 'Dead entity''s VU_ID', 00H ; `string'
CONST	ENDS
;	COMDAT ??_C@_0BG@OPIHBBNJ@Exceeded?5battery?5life?$AA@
CONST	SEGMENT
??_C@_0BG@OPIHBBNJ@Exceeded?5battery?5life?$AA@ DB 'Exceeded battery life'
	DB	00H						; `string'
CONST	ENDS
;	COMDAT ??_C@_0BC@KCLLNDGG@Reached?5min?5speed?$AA@
CONST	SEGMENT
??_C@_0BC@KCLLNDGG@Reached?5min?5speed?$AA@ DB 'Reached min speed', 00H ; `string'
CONST	ENDS
;	COMDAT ??_C@_0P@CEABDDD@Hit?5the?5ground?$AA@
CONST	SEGMENT
??_C@_0P@CEABDDD@Hit?5the?5ground?$AA@ DB 'Hit the ground', 00H ; `string'
CONST	ENDS
;	COMDAT ??_C@_0BH@LEJIMCOO@Exceeded?5Gimbal?5Limits?$AA@
CONST	SEGMENT
??_C@_0BH@LEJIMCOO@Exceeded?5Gimbal?5Limits?$AA@ DB 'Exceeded Gimbal Limi'
	DB	'ts', 00H					; `string'
CONST	ENDS
;	COMDAT ??_C@_0BH@EGEKEPIC@Exceeded?5Field?5Of?5View?$AA@
CONST	SEGMENT
??_C@_0BH@EGEKEPIC@Exceeded?5Field?5Of?5View?$AA@ DB 'Exceeded Field Of V'
	DB	'iew', 00H					; `string'
CONST	ENDS
;	COMDAT ??_C@_06OAMBFIKP@Missed?$AA@
CONST	SEGMENT
??_C@_06OAMBFIKP@Missed?$AA@ DB 'Missed', 00H		; `string'
CONST	ENDS
;	COMDAT ??_C@_07DNBAAOEN@No?5Kill?$AA@
CONST	SEGMENT
??_C@_07DNBAAOEN@No?5Kill?$AA@ DB 'No Kill', 00H	; `string'
CONST	ENDS
;	COMDAT ??_C@_0BC@IHCNKKIA@Exceeded?5max?5time?$AA@
CONST	SEGMENT
??_C@_0BC@IHCNKKIA@Exceeded?5max?5time?$AA@ DB 'Exceeded max time', 00H ; `string'
CONST	ENDS
;	COMDAT ??_C@_04NIFFMPNM@Kill?$AA@
CONST	SEGMENT
??_C@_04NIFFMPNM@Kill?$AA@ DB 'Kill', 00H		; `string'
CONST	ENDS
;	COMDAT ??_C@_0BB@LKFCGACP@Not?5finished?5yet?$AA@
CONST	SEGMENT
??_C@_0BB@LKFCGACP@Not?5finished?5yet?$AA@ DB 'Not finished yet', 00H ; `string'
CONST	ENDS
;	COMDAT ??_C@_0BG@LJAHJKDP@Pointer?5to?5cloud?5data?$AA@
CONST	SEGMENT
??_C@_0BG@LJAHJKDP@Pointer?5to?5cloud?5data?$AA@ DB 'Pointer to cloud dat'
	DB	'a', 00H					; `string'
CONST	ENDS
;	COMDAT ??_C@_0BL@KOCFLMGN@Cloud?5cover?5or?5cloud?5level?$AA@
CONST	SEGMENT
??_C@_0BL@KOCFLMGN@Cloud?5cover?5or?5cloud?5level?$AA@ DB 'Cloud cover or'
	DB	' cloud level', 00H				; `string'
CONST	ENDS
;	COMDAT ??_C@_0BJ@EKBBKANA@Which?5map?5edge?5to?5add?5to?$AA@
CONST	SEGMENT
??_C@_0BJ@EKBBKANA@Which?5map?5edge?5to?5add?5to?$AA@ DB 'Which map edge '
	DB	'to add to', 00H				; `string'
CONST	ENDS
;	COMDAT ??_C@_0BL@PJKHOMM@How?5much?5data?5we?8re?5sendng?$AA@
CONST	SEGMENT
??_C@_0BL@PJKHOMM@How?5much?5data?5we?8re?5sendng?$AA@ DB 'How much data '
	DB	'we''re sendng', 00H				; `string'
CONST	ENDS
;	COMDAT ??_C@_08DICIKPFL@Y?5Offset?$AA@
CONST	SEGMENT
??_C@_08DICIKPFL@Y?5Offset?$AA@ DB 'Y Offset', 00H	; `string'
CONST	ENDS
;	COMDAT ??_C@_08CPFDLLBI@X?5Offset?$AA@
CONST	SEGMENT
??_C@_08CPFDLLBI@X?5Offset?$AA@ DB 'X Offset', 00H	; `string'
CONST	ENDS
;	COMDAT ??_C@_0P@BNIHEAJO@New?5wind?5Speed?$AA@
CONST	SEGMENT
??_C@_0P@BNIHEAJO@New?5wind?5Speed?$AA@ DB 'New wind Speed', 00H ; `string'
CONST	ENDS
;	COMDAT ??_C@_0BB@LBEHMNKG@New?5wind?5Heading?$AA@
CONST	SEGMENT
??_C@_0BB@LBEHMNKG@New?5wind?5Heading?$AA@ DB 'New wind Heading', 00H ; `string'
CONST	ENDS
;	COMDAT ??_C@_0M@HBHGKIND@Temperature?$AA@
CONST	SEGMENT
??_C@_0M@HBHGKIND@Temperature?$AA@ DB 'Temperature', 00H ; `string'
CONST	ENDS
;	COMDAT ??_C@_0BN@OOFHMCBH@Data?5associated?5with?5mission?$AA@
CONST	SEGMENT
??_C@_0BN@OOFHMCBH@Data?5associated?5with?5mission?$AA@ DB 'Data associat'
	DB	'ed with mission', 00H			; `string'
CONST	ENDS
;	COMDAT ??_C@_0BG@NMJFMIMO@The?5request?5structure?$AA@
CONST	SEGMENT
??_C@_0BG@NMJFMIMO@The?5request?5structure?$AA@ DB 'The request structure'
	DB	00H						; `string'
CONST	ENDS
;	COMDAT ??_C@_0BH@KEMCFE@Team?5receiving?5request?$AA@
CONST	SEGMENT
??_C@_0BH@KEMCFE@Team?5receiving?5request?$AA@ DB 'Team receiving request'
	DB	00H						; `string'
CONST	ENDS
;	COMDAT ??_C@_08CNLMPBDL@New?5Mode?$AA@
CONST	SEGMENT
??_C@_08CNLMPBDL@New?5Mode?$AA@ DB 'New Mode', 00H	; `string'
CONST	ENDS
;	COMDAT ??_C@_0BE@CKOLJILN@A?1C?5Sending?5Message?$AA@
CONST	SEGMENT
??_C@_0BE@CKOLJILN@A?1C?5Sending?5Message?$AA@ DB 'A/C Sending Message', 00H ; `string'
CONST	ENDS
;	COMDAT ??_C@_0L@LBBPJOGP@New?5target?$AA@
CONST	SEGMENT
??_C@_0L@LBBPJOGP@New?5target?$AA@ DB 'New target', 00H	; `string'
CONST	ENDS
;	COMDAT ??_C@_07FFLLKOAD@Command?$AA@
CONST	SEGMENT
??_C@_07FFLLKOAD@Command?$AA@ DB 'Command', 00H		; `string'
CONST	ENDS
;	COMDAT ??_C@_0BH@CCNDPOMG@Unit?5Receiving?5Message?$AA@
CONST	SEGMENT
??_C@_0BH@CCNDPOMG@Unit?5Receiving?5Message?$AA@ DB 'Unit Receiving Messa'
	DB	'ge', 00H					; `string'
CONST	ENDS
;	COMDAT ??_C@_0BH@IBNBFEDL@Object?5Sending?5Message?$AA@
CONST	SEGMENT
??_C@_0BH@IBNBFEDL@Object?5Sending?5Message?$AA@ DB 'Object Sending Messa'
	DB	'ge', 00H					; `string'
CONST	ENDS
;	COMDAT ??_C@_0BH@GBNMNJPM@Total?5Wingman?5Messages?$AA@
CONST	SEGMENT
??_C@_0BH@GBNMNJPM@Total?5Wingman?5Messages?$AA@ DB 'Total Wingman Messag'
	DB	'es', 00H					; `string'
CONST	ENDS
;	COMDAT ??_C@_08IBGPHGNM@Flameout?$AA@
CONST	SEGMENT
??_C@_08IBGPHGNM@Flameout?$AA@ DB 'Flameout', 00H	; `string'
CONST	ENDS
;	COMDAT ??_C@_05CFEMNELC@Fumes?$AA@
CONST	SEGMENT
??_C@_05CFEMNELC@Fumes?$AA@ DB 'Fumes', 00H		; `string'
CONST	ENDS
;	COMDAT ??_C@_05OMILMKPK@Bingo?$AA@
CONST	SEGMENT
??_C@_05OMILMKPK@Bingo?$AA@ DB 'Bingo', 00H		; `string'
CONST	ENDS
;	COMDAT ??_C@_05EEKOPFHH@Joker?$AA@
CONST	SEGMENT
??_C@_05EEKOPFHH@Joker?$AA@ DB 'Joker', 00H		; `string'
CONST	ENDS
;	COMDAT ??_C@_06OOAGKFHG@Raygun?$AA@
CONST	SEGMENT
??_C@_06OOAGKFHG@Raygun?$AA@ DB 'Raygun', 00H		; `string'
CONST	ENDS
;	COMDAT ??_C@_0P@JCFGPIBP@Turn?5Off?5Smoke?$AA@
CONST	SEGMENT
??_C@_0P@JCFGPIBP@Turn?5Off?5Smoke?$AA@ DB 'Turn Off Smoke', 00H ; `string'
CONST	ENDS
;	COMDAT ??_C@_0O@ONLEHOLM@Turn?5On?5Smoke?$AA@
CONST	SEGMENT
??_C@_0O@ONLEHOLM@Turn?5On?5Smoke?$AA@ DB 'Turn On Smoke', 00H ; `string'
CONST	ENDS
;	COMDAT ??_C@_0BH@NACFCBCK@Run?5Single?9Side?5Offset?$AA@
CONST	SEGMENT
??_C@_0BH@NACFCBCK@Run?5Single?9Side?5Offset?$AA@ DB 'Run Single-Side Off'
	DB	'set', 00H					; `string'
CONST	ENDS
;	COMDAT ??_C@_05OCCNKNFB@Skate?$AA@
CONST	SEGMENT
??_C@_05OCCNKNFB@Skate?$AA@ DB 'Skate', 00H		; `string'
CONST	ENDS
;	COMDAT ??_C@_0M@BLMILAPH@Buddy?5Spike?$AA@
CONST	SEGMENT
??_C@_0M@BLMILAPH@Buddy?5Spike?$AA@ DB 'Buddy Spike', 00H ; `string'
CONST	ENDS
;	COMDAT ??_C@_0P@LDCBGJKG@Activate?5Radar?$AA@
CONST	SEGMENT
??_C@_0P@LDCBGJKG@Activate?5Radar?$AA@ DB 'Activate Radar', 00H ; `string'
CONST	ENDS
;	COMDAT ??_C@_0BB@OPDDHGLG@Radar?5to?5Standby?$AA@
CONST	SEGMENT
??_C@_0BB@OPDDHGLG@Radar?5to?5Standby?$AA@ DB 'Radar to Standby', 00H ; `string'
CONST	ENDS
;	COMDAT ??_C@_0BF@LDFIANEJ@Move?5up?5in?5formation?$AA@
CONST	SEGMENT
??_C@_0BF@LDFIANEJ@Move?5up?5in?5formation?$AA@ DB 'Move up in formation', 00H ; `string'
CONST	ENDS
;	COMDAT ??_C@_0N@CNELNLHF@Wingman?5Free?$AA@
CONST	SEGMENT
??_C@_0N@CNELNLHF@Wingman?5Free?$AA@ DB 'Wingman Free', 00H ; `string'
CONST	ENDS
;	COMDAT ??_C@_0P@JGKEIBKP@Return?5to?5Base?$AA@
CONST	SEGMENT
??_C@_0P@JGKEIBKP@Return?5to?5Base?$AA@ DB 'Return to Base', 00H ; `string'
CONST	ENDS
;	COMDAT ??_C@_0O@ILEKNCPC@Weapons?5Check?$AA@
CONST	SEGMENT
??_C@_0O@ILEKNCPC@Weapons?5Check?$AA@ DB 'Weapons Check', 00H ; `string'
CONST	ENDS
;	COMDAT ??_C@_08DMDCHGCO@Say?5Fuel?$AA@
CONST	SEGMENT
??_C@_08DMDCHGCO@Say?5Fuel?$AA@ DB 'Say Fuel', 00H	; `string'
CONST	ENDS
;	COMDAT ??_C@_0L@CKLBGBOI@Say?5Damage?$AA@
CONST	SEGMENT
??_C@_0L@CKLBGBOI@Say?5Damage?$AA@ DB 'Say Damage', 00H	; `string'
CONST	ENDS
;	COMDAT ??_C@_0L@HKNONIOF@Say?5Status?$AA@
CONST	SEGMENT
??_C@_0L@HKNONIOF@Say?5Status?$AA@ DB 'Say Status', 00H	; `string'
CONST	ENDS
;	COMDAT ??_C@_0N@EGGFPOPE@Say?5Position?$AA@
CONST	SEGMENT
??_C@_0N@EGGFPOPE@Say?5Position?$AA@ DB 'Say Position', 00H ; `string'
CONST	ENDS
;	COMDAT ??_C@_09PECAGCPJ@Step?5Down?$AA@
CONST	SEGMENT
??_C@_09PECAGCPJ@Step?5Down?$AA@ DB 'Step Down', 00H	; `string'
CONST	ENDS
;	COMDAT ??_C@_07BNMCGEDO@Step?5Up?$AA@
CONST	SEGMENT
??_C@_07BNMCGEDO@Step?5Up?$AA@ DB 'Step Up', 00H	; `string'
CONST	ENDS
;	COMDAT ??_C@_0CB@PMEKMMCC@Toggle?5Formation?5Left?1Right?5Side@
CONST	SEGMENT
??_C@_0CB@PMEKMMCC@Toggle?5Formation?5Left?1Right?5Side@ DB 'Toggle Forma'
	DB	'tion Left/Right Side', 00H			; `string'
CONST	ENDS
;	COMDAT ??_C@_08DNENOAKK@Close?5Up?$AA@
CONST	SEGMENT
??_C@_08DNENOAKK@Close?5Up?$AA@ DB 'Close Up', 00H	; `string'
CONST	ENDS
;	COMDAT ??_C@_08EJCHBFNM@Kick?5Out?$AA@
CONST	SEGMENT
??_C@_08EJCHBFNM@Kick?5Out?$AA@ DB 'Kick Out', 00H	; `string'
CONST	ENDS
;	COMDAT ??_C@_0BH@OHAKDPFI@Search?5for?5Air?5Targets?$AA@
CONST	SEGMENT
??_C@_0BH@OHAKDPFI@Search?5for?5Air?5Targets?$AA@ DB 'Search for Air Targ'
	DB	'ets', 00H					; `string'
CONST	ENDS
;	COMDAT ??_C@_0BK@BBEJHKHA@Search?5for?5Ground?5Targets?$AA@
CONST	SEGMENT
??_C@_0BK@BBEJHKHA@Search?5for?5Ground?5Targets?$AA@ DB 'Search for Groun'
	DB	'd Targets', 00H				; `string'
CONST	ENDS
;	COMDAT ??_C@_0P@PCEMHBDO@Resume?5Mission?$AA@
CONST	SEGMENT
??_C@_0P@PCEMHBDO@Resume?5Mission?$AA@ DB 'Resume Mission', 00H ; `string'
CONST	ENDS
;	COMDAT ??_C@_06ICFPHIMJ@Rejoin?$AA@
CONST	SEGMENT
??_C@_06ICFPHIMJ@Rejoin?$AA@ DB 'Rejoin', 00H		; `string'
CONST	ENDS
;	COMDAT ??_C@_04DGGEBHIF@Flex?$AA@
CONST	SEGMENT
??_C@_04DGGEBHIF@Flex?$AA@ DB 'Flex', 00H		; `string'
CONST	ENDS
;	COMDAT ??_C@_08IJDOPOCG@Chainsaw?$AA@
CONST	SEGMENT
??_C@_08IJDOPOCG@Chainsaw?$AA@ DB 'Chainsaw', 00H	; `string'
CONST	ENDS
;	COMDAT ??_C@_08LMBMOLCO@Posthole?$AA@
CONST	SEGMENT
??_C@_08LMBMOLCO@Posthole?$AA@ DB 'Posthole', 00H	; `string'
CONST	ENDS
;	COMDAT ??_C@_05FPHDCJDM@Pince?$AA@
CONST	SEGMENT
??_C@_05FPHDCJDM@Pince?$AA@ DB 'Pince', 00H		; `string'
CONST	ENDS
;	COMDAT ??_C@_0P@KLIPCDHP@Check?5Your?5Six?$AA@
CONST	SEGMENT
??_C@_0P@KLIPCDHP@Check?5Your?5Six?$AA@ DB 'Check Your Six', 00H ; `string'
CONST	ENDS
;	COMDAT ??_C@_0N@FEHJHNAJ@Clear?5My?5Six?$AA@
CONST	SEGMENT
??_C@_0N@FEHJHNAJ@Clear?5My?5Six?$AA@ DB 'Clear My Six', 00H ; `string'
CONST	ENDS
;	COMDAT ??_C@_0L@PKLKHLGG@Break?5Left?$AA@
CONST	SEGMENT
??_C@_0L@PKLKHLGG@Break?5Left?$AA@ DB 'Break Left', 00H	; `string'
CONST	ENDS
;	COMDAT ??_C@_0M@LONEHBHP@Break?5Right?$AA@
CONST	SEGMENT
??_C@_0M@LONEHBHP@Break?5Right?$AA@ DB 'Break Right', 00H ; `string'
CONST	ENDS
;	COMDAT ??_C@_0N@IPBEDPIH@Weapons?5Free?$AA@
CONST	SEGMENT
??_C@_0N@IPBEDPIH@Weapons?5Free?$AA@ DB 'Weapons Free', 00H ; `string'
CONST	ENDS
;	COMDAT ??_C@_0N@IEJNAEGK@Weapons?5Hold?$AA@
CONST	SEGMENT
??_C@_0N@IEJNAEGK@Weapons?5Hold?$AA@ DB 'Weapons Hold', 00H ; `string'
CONST	ENDS
;	COMDAT ??_C@_08OKJMHLLF@Go?5Cover?$AA@
CONST	SEGMENT
??_C@_08OKJMHLLF@Go?5Cover?$AA@ DB 'Go Cover', 00H	; `string'
CONST	ENDS
;	COMDAT ??_C@_0L@PPGOBBOB@Go?5Shooter?$AA@
CONST	SEGMENT
??_C@_0L@PPGOBBOB@Go?5Shooter?$AA@ DB 'Go Shooter', 00H	; `string'
CONST	ENDS
;	COMDAT ??_C@_0N@DEKHGDAE@Assign?5Group?$AA@
CONST	SEGMENT
??_C@_0N@DEKHGDAE@Assign?5Group?$AA@ DB 'Assign Group', 00H ; `string'
CONST	ENDS
;	COMDAT ??_C@_0BB@OMJMDMAF@Attack?5My?5Target?$AA@
CONST	SEGMENT
??_C@_0BB@OMJMDMAF@Attack?5My?5Target?$AA@ DB 'Attack My Target', 00H ; `string'
CONST	ENDS
;	COMDAT ??_C@_0O@DIKEJDHB@Go?5Fluid?5Four?$AA@
CONST	SEGMENT
??_C@_0O@DIKEJDHB@Go?5Fluid?5Four?$AA@ DB 'Go Fluid Four', 00H ; `string'
CONST	ENDS
;	COMDAT ??_C@_0N@CLJAHGHM@Go?5Arrowhead?$AA@
CONST	SEGMENT
??_C@_0N@CLJAHGHM@Go?5Arrowhead?$AA@ DB 'Go Arrowhead', 00H ; `string'
CONST	ENDS
;	COMDAT ??_C@_06EOCMBGKI@Go?5Box?$AA@
CONST	SEGMENT
??_C@_06EOCMBGKI@Go?5Box?$AA@ DB 'Go Box', 00H		; `string'
CONST	ENDS
;	COMDAT ??_C@_0M@MJANDNCJ@Go?5Res?5Cell?$AA@
CONST	SEGMENT
??_C@_0M@MJANDNCJ@Go?5Res?5Cell?$AA@ DB 'Go Res Cell', 00H ; `string'
CONST	ENDS
;	COMDAT ??_C@_08KMDJGFDB@Go?5Stack?$AA@
CONST	SEGMENT
??_C@_08KMDJGFDB@Go?5Stack?$AA@ DB 'Go Stack', 00H	; `string'
CONST	ENDS
;	COMDAT ??_C@_09NBFPMHOH@Go?5Ladder?$AA@
CONST	SEGMENT
??_C@_09NBFPMHOH@Go?5Ladder?$AA@ DB 'Go Ladder', 00H	; `string'
CONST	ENDS
;	COMDAT ??_C@_08HMKKLDDI@Go?5Trail?$AA@
CONST	SEGMENT
??_C@_08HMKKLDDI@Go?5Trail?$AA@ DB 'Go Trail', 00H	; `string'
CONST	ENDS
;	COMDAT ??_C@_08MEHMOMHF@Go?5Wedge?$AA@
CONST	SEGMENT
??_C@_08MEHMOMHF@Go?5Wedge?$AA@ DB 'Go Wedge', 00H	; `string'
CONST	ENDS
;	COMDAT ??_C@_09MEMOOCLC@Go?5Spread?$AA@
CONST	SEGMENT
??_C@_09MEMOOCLC@Go?5Spread?$AA@ DB 'Go Spread', 00H	; `string'
CONST	ENDS
;	COMDAT ??_C@_05DOJOIKHG@Data2?$AA@
CONST	SEGMENT
??_C@_05DOJOIKHG@Data2?$AA@ DB 'Data2', 00H		; `string'
CONST	ENDS
;	COMDAT ??_C@_05BFLDNJLF@Data1?$AA@
CONST	SEGMENT
??_C@_05BFLDNJLF@Data1?$AA@ DB 'Data1', 00H		; `string'
CONST	ENDS
;	COMDAT ??_C@_0P@MEOMBBCA@Acting?5country?$AA@
CONST	SEGMENT
??_C@_0P@MEOMBBCA@Acting?5country?$AA@ DB 'Acting country', 00H ; `string'
CONST	ENDS
;	COMDAT ??_C@_0BH@OBBCPGCO@Shift?5inititive?5values?$AA@
CONST	SEGMENT
??_C@_0BH@OBBCPGCO@Shift?5inititive?5values?$AA@ DB 'Shift inititive valu'
	DB	'es', 00H					; `string'
CONST	ENDS
;	COMDAT ??_C@_0BA@DFJMAAAG@New?5Team?5member?$AA@
CONST	SEGMENT
??_C@_0BA@DFJMAAAG@New?5Team?5member?$AA@ DB 'New Team member', 00H ; `string'
CONST	ENDS
;	COMDAT ??_C@_0BB@HKJGHMPA@Relations?5change?$AA@
CONST	SEGMENT
??_C@_0BB@HKJGHMPA@Relations?5change?$AA@ DB 'Relations change', 00H ; `string'
CONST	ENDS
;	COMDAT ??_C@_0BK@IHCAGIDP@Enemy?5being?5acted?5against?$AA@
CONST	SEGMENT
??_C@_0BK@IHCAGIDP@Enemy?5being?5acted?5against?$AA@ DB 'Enemy being acte'
	DB	'd against', 00H				; `string'
CONST	ENDS
;	COMDAT ??_C@_0BL@BKLBJFCD@Requesting?5Air?5Defense?1CAP?$AA@
CONST	SEGMENT
??_C@_0BL@BKLBJFCD@Requesting?5Air?5Defense?1CAP?$AA@ DB 'Requesting Air '
	DB	'Defense/CAP', 00H				; `string'
CONST	ENDS
;	COMDAT ??_C@_0BJ@ILDPNLIC@Requesting?5Engineer?5unit?$AA@
CONST	SEGMENT
??_C@_0BJ@ILDPNLIC@Requesting?5Engineer?5unit?$AA@ DB 'Requesting Enginee'
	DB	'r unit', 00H				; `string'
CONST	ENDS
;	COMDAT ??_C@_0CB@LOKGEMBP@Requesting?5Artillery?1CAS?5support@
CONST	SEGMENT
??_C@_0CB@LOKGEMBP@Requesting?5Artillery?1CAS?5support@ DB 'Requesting Ar'
	DB	'tillery/CAS support', 00H			; `string'
CONST	ENDS
;	COMDAT ??_C@_0BO@JPPKNPLC@This?5airbase?5has?5been?5damaged?$AA@
CONST	SEGMENT
??_C@_0BO@JPPKNPLC@This?5airbase?5has?5been?5damaged?$AA@ DB 'This airbas'
	DB	'e has been damaged', 00H			; `string'
CONST	ENDS
;	COMDAT ??_C@_0BG@PEPEKANN@Mark?5schedule?5as?5used?$AA@
CONST	SEGMENT
??_C@_0BG@PEPEKANN@Mark?5schedule?5as?5used?$AA@ DB 'Mark schedule as use'
	DB	'd', 00H					; `string'
CONST	ENDS
;	COMDAT ??_C@_0BC@LKAMJEDP@Mission?5Completed?$AA@
CONST	SEGMENT
??_C@_0BC@LKAMJEDP@Mission?5Completed?$AA@ DB 'Mission Completed', 00H ; `string'
CONST	ENDS
;	COMDAT ??_C@_0BI@EFJMMNBL@Player?5requested?5divert?$AA@
CONST	SEGMENT
??_C@_0BI@EFJMMNBL@Player?5requested?5divert?$AA@ DB 'Player requested di'
	DB	'vert', 00H					; `string'
CONST	ENDS
;	COMDAT ??_C@_0BI@NJBKCPOE@Player?5request?3?5mission?$AA@
CONST	SEGMENT
??_C@_0BI@NJBKCPOE@Player?5request?3?5mission?$AA@ DB 'Player request: mi'
	DB	'ssion', 00H					; `string'
CONST	ENDS
;	COMDAT ??_C@_0BJ@FGIEPKJP@Player?5request?3?5aircraft?$AA@
CONST	SEGMENT
??_C@_0BJ@FGIEPKJP@Player?5request?3?5aircraft?$AA@ DB 'Player request: a'
	DB	'ircraft', 00H				; `string'
CONST	ENDS
;	COMDAT ??_C@_0BL@OCODOEFO@New?5aircraft?5are?5available?$AA@
CONST	SEGMENT
??_C@_0BL@OCODOEFO@New?5aircraft?5are?5available?$AA@ DB 'New aircraft ar'
	DB	'e available', 00H				; `string'
CONST	ENDS
;	COMDAT ??_C@_0BL@GHLFNODH@Extra?5Data3?5?$CIfake?5pointer?$CJ?$AA@
CONST	SEGMENT
??_C@_0BL@GHLFNODH@Extra?5Data3?5?$CIfake?5pointer?$CJ?$AA@ DB 'Extra Dat'
	DB	'a3 (fake pointer)', 00H			; `string'
CONST	ENDS
;	COMDAT ??_C@_0M@OKKDMJOE@Extra?5Data2?$AA@
CONST	SEGMENT
??_C@_0M@OKKDMJOE@Extra?5Data2?$AA@ DB 'Extra Data2', 00H ; `string'
CONST	ENDS
;	COMDAT ??_C@_0M@MBIOJKCH@Extra?5Data1?$AA@
CONST	SEGMENT
??_C@_0M@MBIOJKCH@Extra?5Data1?$AA@ DB 'Extra Data1', 00H ; `string'
CONST	ENDS
;	COMDAT ??_C@_0N@BIKOHCEH@Message?5Type?$AA@
CONST	SEGMENT
??_C@_0N@BIKOHCEH@Message?5Type?$AA@ DB 'Message Type', 00H ; `string'
CONST	ENDS
;	COMDAT ??_C@_0P@NDKDMAIN@Team?5receiving?$AA@
CONST	SEGMENT
??_C@_0P@NDKDMAIN@Team?5receiving?$AA@ DB 'Team receiving', 00H ; `string'
CONST	ENDS
;	COMDAT ??_C@_0BB@FMDIJJI@Tasker?5receiving?$AA@
CONST	SEGMENT
??_C@_0BB@FMDIJJI@Tasker?5receiving?$AA@ DB 'Tasker receiving', 00H ; `string'
CONST	ENDS
;	COMDAT ??_C@_0BH@IGJPDEMC@Entity?5sending?5message?$AA@
CONST	SEGMENT
??_C@_0BH@IGJPDEMC@Entity?5sending?5message?$AA@ DB 'Entity sending messa'
	DB	'ge', 00H					; `string'
CONST	ENDS
;	COMDAT ??_C@_0BE@LPJLMFBD@Redo?5planning?5stage?$AA@
CONST	SEGMENT
??_C@_0BE@LPJLMFBD@Redo?5planning?5stage?$AA@ DB 'Redo planning stage', 00H ; `string'
CONST	ENDS
;	COMDAT ??_C@_0BJ@ECALIGDD@Rebuild?5GTO?0?5ATO?0?5or?5NTO?$AA@
CONST	SEGMENT
??_C@_0BJ@ECALIGDD@Rebuild?5GTO?0?5ATO?0?5or?5NTO?$AA@ DB 'Rebuild GTO, A'
	DB	'TO, or NTO', 00H				; `string'
CONST	ENDS
;	COMDAT ??_C@_0BD@PLAKHMMM@Enemy?5unit?5Spotted?$AA@
CONST	SEGMENT
??_C@_0BD@PLAKHMMM@Enemy?5unit?5Spotted?$AA@ DB 'Enemy unit Spotted', 00H ; `string'
CONST	ENDS
;	COMDAT ??_C@_0BK@KHKAMPBM@Master?8s?5time?5compression?$AA@
CONST	SEGMENT
??_C@_0BK@KHKAMPBM@Master?8s?5time?5compression?$AA@ DB 'Master''s time c'
	DB	'ompression', 00H				; `string'
CONST	ENDS
;	COMDAT ??_C@_0BH@MOPCIDPH@Guess?5at?5delivery?5time?$AA@
CONST	SEGMENT
??_C@_0BH@MOPCIDPH@Guess?5at?5delivery?5time?$AA@ DB 'Guess at delivery t'
	DB	'ime', 00H					; `string'
CONST	ENDS
;	COMDAT ??_C@_0BL@JMJKCMJK@Who?5sent?5this?5?$CIeither?5way?$CJ?$AA@
CONST	SEGMENT
??_C@_0BL@JMJKCMJK@Who?5sent?5this?5?$CIeither?5way?$CJ?$AA@ DB 'Who sent'
	DB	' this (either way)', 00H			; `string'
CONST	ENDS
;	COMDAT ??_C@_0BJ@CDADPNOJ@Slave?8s?5time?5when?5posted?$AA@
CONST	SEGMENT
??_C@_0BJ@CDADPNOJ@Slave?8s?5time?5when?5posted?$AA@ DB 'Slave''s time wh'
	DB	'en posted', 00H				; `string'
CONST	ENDS
;	COMDAT ??_C@_0BL@CMLPEJME@Slave?8s?5time?5when?5received?$AA@
CONST	SEGMENT
??_C@_0BL@CMLPEJME@Slave?8s?5time?5when?5received?$AA@ DB 'Slave''s time '
	DB	'when received', 00H				; `string'
CONST	ENDS
;	COMDAT ??_C@_0BK@PFKKLCCH@Master?8s?5time?5when?5posted?$AA@
CONST	SEGMENT
??_C@_0BK@PFKKLCCH@Master?8s?5time?5when?5posted?$AA@ DB 'Master''s time '
	DB	'when posted', 00H				; `string'
CONST	ENDS
;	COMDAT ??_C@_0CA@CIDOLIME@The?5info?5requested?0?5in?5a?5stream?$AA@
CONST	SEGMENT
??_C@_0CA@CIDOLIME@The?5info?5requested?0?5in?5a?5stream?$AA@ DB 'The inf'
	DB	'o requested, in a stream', 00H		; `string'
CONST	ENDS
;	COMDAT ??_C@_0BH@PKKOMEEC@Session?5sending?5status?$AA@
CONST	SEGMENT
??_C@_0BH@PKKOMEEC@Session?5sending?5status?$AA@ DB 'Session sending stat'
	DB	'us', 00H					; `string'
CONST	ENDS
;	COMDAT ??_C@_0P@HHIHMHDG@Real?5Objective?$AA@
CONST	SEGMENT
??_C@_0P@HHIHMHDG@Real?5Objective?$AA@ DB 'Real Objective', 00H ; `string'
CONST	ENDS
;	COMDAT ??_C@_0BE@ELHOKOCG@Secondary?5Objective?$AA@
CONST	SEGMENT
??_C@_0BE@ELHOKOCG@Secondary?5Objective?$AA@ DB 'Secondary Objective', 00H ; `string'
CONST	ENDS
;	COMDAT ??_C@_0BC@BLCGEHKG@Primary?5Objective?$AA@
CONST	SEGMENT
??_C@_0BC@BLCGEHKG@Primary?5Objective?$AA@ DB 'Primary Objective', 00H ; `string'
CONST	ENDS
;	COMDAT ??_C@_0N@DEINLCNI@Their?5orders?$AA@
CONST	SEGMENT
??_C@_0N@DEINLCNI@Their?5orders?$AA@ DB 'Their orders', 00H ; `string'
CONST	ENDS
;	COMDAT ??_C@_07BEIHKDLJ@Message?$AA@
CONST	SEGMENT
??_C@_07BEIHKDLJ@Message?$AA@ DB 'Message', 00H		; `string'
CONST	ENDS
;	COMDAT ??_C@_0M@OGDENIND@Who?5it?8s?5to?$AA@
CONST	SEGMENT
??_C@_0M@OGDENIND@Who?5it?8s?5to?$AA@ DB 'Who it''s to', 00H ; `string'
CONST	ENDS
;	COMDAT ??_C@_0BP@CAAEAPDB@Reset?5this?5obj?8s?5supply?5losses?$AA@
CONST	SEGMENT
??_C@_0BP@CAAEAPDB@Reset?5this?5obj?8s?5supply?5losses?$AA@ DB 'Reset thi'
	DB	's obj''s supply losses', 00H		; `string'
CONST	ENDS
;	COMDAT ??_C@_0CA@FDGDNJOL@Reset?5this?5obj?8s?5supply?5traffic?$AA@
CONST	SEGMENT
??_C@_0CA@FDGDNJOL@Reset?5this?5obj?8s?5supply?5traffic?$AA@ DB 'Reset th'
	DB	'is obj''s supply traffic', 00H		; `string'
CONST	ENDS
;	COMDAT ??_C@_0BL@NPMOLGLD@Objective?5has?5been?5capture?$AA@
CONST	SEGMENT
??_C@_0BL@NPMOLGLD@Objective?5has?5been?5capture?$AA@ DB 'Objective has b'
	DB	'een capture', 00H				; `string'
CONST	ENDS
;	COMDAT ??_C@_0BE@CCDFOGEM@Fire?5support?5orders?$AA@
CONST	SEGMENT
??_C@_0BE@CCDFOGEM@Fire?5support?5orders?$AA@ DB 'Fire support orders', 00H ; `string'
CONST	ENDS
;	COMDAT ??_C@_0BD@NDINBGHH@Activate?5this?5unit?$AA@
CONST	SEGMENT
??_C@_0BD@NDINBGHH@Activate?5this?5unit?$AA@ DB 'Activate this unit', 00H ; `string'
CONST	ENDS
;	COMDAT ??_C@_0BH@NGALHFFJ@Set?5number?5of?5vehicles?$AA@
CONST	SEGMENT
??_C@_0BH@NGALHFFJ@Set?5number?5of?5vehicles?$AA@ DB 'Set number of vehic'
	DB	'les', 00H					; `string'
CONST	ENDS
;	COMDAT ??_C@_0O@NFMLIDKE@Schedule?5Unit?$AA@
CONST	SEGMENT
??_C@_0O@NFMLIDKE@Schedule?5Unit?$AA@ DB 'Schedule Unit', 00H ; `string'
CONST	ENDS
;	COMDAT ??_C@_0BK@LFAIHFNO@A?5Mission?5request?5was?5met?$AA@
CONST	SEGMENT
??_C@_0BK@LFAIHFNO@A?5Mission?5request?5was?5met?$AA@ DB 'A Mission reque'
	DB	'st was met', 00H				; `string'
CONST	ENDS
;	COMDAT ??_C@_0L@ECAFKPPF@New?5orders?$AA@
CONST	SEGMENT
??_C@_0L@ECAFKPPF@New?5orders?$AA@ DB 'New orders', 00H	; `string'
CONST	ENDS
;	COMDAT ??_C@_0BH@KHMPCOAI@Add?5Supplies?5to?5a?5unit?$AA@
CONST	SEGMENT
??_C@_0BH@KHMPCOAI@Add?5Supplies?5to?5a?5unit?$AA@ DB 'Add Supplies to a '
	DB	'unit', 00H					; `string'
CONST	ENDS
;	COMDAT ??_C@_0BM@IJGKFLIC@Detach?5a?5number?5of?5vehicles?$AA@
CONST	SEGMENT
??_C@_0BM@IJGKFLIC@Detach?5a?5number?5of?5vehicles?$AA@ DB 'Detach a numb'
	DB	'er of vehicles', 00H			; `string'
CONST	ENDS
;	COMDAT ??_C@_0BA@JBABDILJ@The?5actual?5data?$AA@
CONST	SEGMENT
??_C@_0BA@JBABDILJ@The?5actual?5data?$AA@ DB 'The actual data', 00H ; `string'
CONST	ENDS
;	COMDAT ??_C@_0BD@CALALIOO@Size?5of?5data?5block?$AA@
CONST	SEGMENT
??_C@_0BD@CALALIOO@Size?5of?5data?5block?$AA@ DB 'Size of data block', 00H ; `string'
CONST	ENDS
;	COMDAT ??_C@_00CNPNBAHC@?$AA@
CONST	SEGMENT
??_C@_00CNPNBAHC@?$AA@ DB 00H				; `string'
CONST	ENDS
;	COMDAT ??_C@_0O@DBBCONN@Generic?5Data3?$AA@
CONST	SEGMENT
??_C@_0O@DBBCONN@Generic?5Data3?$AA@ DB 'Generic Data3', 00H ; `string'
CONST	ENDS
;	COMDAT ??_C@_0O@BKAKBPJM@Generic?5Data2?$AA@
CONST	SEGMENT
??_C@_0O@BKAKBPJM@Generic?5Data2?$AA@ DB 'Generic Data2', 00H ; `string'
CONST	ENDS
;	COMDAT ??_C@_0O@DBCHEMFP@Generic?5Data1?$AA@
CONST	SEGMENT
??_C@_0O@DBCHEMFP@Generic?5Data1?$AA@ DB 'Generic Data1', 00H ; `string'
CONST	ENDS
;	COMDAT ??_C@_0BA@LDAKHNGG@Message?5content?$AA@
CONST	SEGMENT
??_C@_0BA@LDAKHNGG@Message?5content?$AA@ DB 'Message content', 00H ; `string'
CONST	ENDS
;	COMDAT ??_C@_0O@IEJMGIHG@Who?5sent?5this?$AA@
CONST	SEGMENT
??_C@_0O@IEJMGIHG@Who?5sent?5this?$AA@ DB 'Who sent this', 00H ; `string'
CONST	ENDS
;	COMDAT ??_C@_0BI@DOFOMAGL@Deaggregate?5this?5entity?$AA@
CONST	SEGMENT
??_C@_0BI@DOFOMAGL@Deaggregate?5this?5entity?$AA@ DB 'Deaggregate this en'
	DB	'tity', 00H					; `string'
CONST	ENDS
;	COMDAT ??_C@_0BI@PBAIONAG@Reaggregate?5this?5entity?$AA@
CONST	SEGMENT
??_C@_0BI@PBAIONAG@Reaggregate?5this?5entity?$AA@ DB 'Reaggregate this en'
	DB	'tity', 00H					; `string'
CONST	ENDS
;	COMDAT ??_C@_0BM@PCHBDCCH@Repair?5vehicles?5or?5features?$AA@
CONST	SEGMENT
??_C@_0BM@PCHBDCCH@Repair?5vehicles?5or?5features?$AA@ DB 'Repair vehicle'
	DB	's or features', 00H				; `string'
CONST	ENDS
;	COMDAT ??_C@_0BL@DDPJBJL@Enemy?5radar?5has?5spotted?5us?$AA@
CONST	SEGMENT
??_C@_0BL@DDPJBJL@Enemy?5radar?5has?5spotted?5us?$AA@ DB 'Enemy radar has'
	DB	' spotted us', 00H				; `string'
CONST	ENDS
;	COMDAT ??_C@_0CF@OAJFDLIN@Enemy?5visual?5detector?5has?5spotte@
CONST	SEGMENT
??_C@_0CF@OAJFDLIN@Enemy?5visual?5detector?5has?5spotte@ DB 'Enemy visual'
	DB	' detector has spotted us', 00H		; `string'
CONST	ENDS
;	COMDAT ??_C@_0BK@OHNKGGBO@Someone?8s?5shooting?5at?5us?4?$AA@
CONST	SEGMENT
??_C@_0BK@OHNKGGBO@Someone?8s?5shooting?5at?5us?4?$AA@ DB 'Someone''s sho'
	DB	'oting at us.', 00H				; `string'
CONST	ENDS
;	COMDAT ??_C@_0BL@MPJEDPCL@We?8re?5about?5to?5be?5attacked?$AA@
CONST	SEGMENT
??_C@_0BL@MPJEDPCL@We?8re?5about?5to?5be?5attacked?$AA@ DB 'We''re about '
	DB	'to be attacked', 00H			; `string'
CONST	ENDS
;	COMDAT ??_C@_0BD@LPICCLDD@Current?5state?5data?$AA@
CONST	SEGMENT
??_C@_0BD@LPICCLDD@Current?5state?5data?$AA@ DB 'Current state data', 00H ; `string'
CONST	ENDS
;	COMDAT ??_C@_0BM@EEDLGHFF@size?5of?5the?5following?5block?$AA@
CONST	SEGMENT
??_C@_0BM@EEDLGHFF@size?5of?5the?5following?5block?$AA@ DB 'size of the f'
	DB	'ollowing block', 00H			; `string'
CONST	ENDS
;	COMDAT ??_C@_0BO@HOHCLNJ@target?8s?5slot?0?5or?5255?5if?5none?$AA@
CONST	SEGMENT
??_C@_0BO@HOHCLNJ@target?8s?5slot?0?5or?5255?5if?5none?$AA@ DB 'target''s'
	DB	' slot, or 255 if none', 00H			; `string'
CONST	ENDS
;	COMDAT ??_C@_0BF@KNNBLOLB@Up?5to?5255?5shots?5each?$AA@
CONST	SEGMENT
??_C@_0BF@KNNBLOLB@Up?5to?5255?5shots?5each?$AA@ DB 'Up to 255 shots each'
	DB	00H						; `string'
CONST	ENDS
;	COMDAT ??_C@_0BD@BDLMIBFH@Up?5to?58?5weapon?5Ids?$AA@
CONST	SEGMENT
??_C@_0BD@BDLMIBFH@Up?5to?58?5weapon?5Ids?$AA@ DB 'Up to 8 weapon Ids', 00H ; `string'
CONST	ENDS
;	COMDAT ??_C@_0BF@PEFBHKMI@Shooting?5entity?8s?5ID?$AA@
CONST	SEGMENT
??_C@_0BF@PEFBHKMI@Shooting?5entity?8s?5ID?$AA@ DB 'Shooting entity''s ID'
	DB	00H						; `string'
CONST	ENDS
;	COMDAT ??_C@_0BB@NHKGIGJA@Target?5entity?5ID?$AA@
CONST	SEGMENT
??_C@_0BB@NHKGIGJA@Target?5entity?5ID?$AA@ DB 'Target entity ID', 00H ; `string'
CONST	ENDS
;	COMDAT ??_C@_0BF@IFAHPLCE@Type?5of?5Weapon?5fired?$AA@
CONST	SEGMENT
??_C@_0BF@IFAHPLCE@Type?5of?5Weapon?5fired?$AA@ DB 'Type of Weapon fired', 00H ; `string'
CONST	ENDS
;	COMDAT ??_C@_0O@PAOGDIFK@Recon?5Picture?$AA@
CONST	SEGMENT
??_C@_0O@PAOGDIFK@Recon?5Picture?$AA@ DB 'Recon Picture', 00H ; `string'
CONST	ENDS
;	COMDAT ??_C@_06BIIBKNDG@Rocket?$AA@
CONST	SEGMENT
??_C@_06BIIBKNDG@Rocket?$AA@ DB 'Rocket', 00H		; `string'
CONST	ENDS
;	COMDAT ??_C@_0BD@BJPNKCAP@Air?9Ground?5Missile?$AA@
CONST	SEGMENT
??_C@_0BD@BJPNKCAP@Air?9Ground?5Missile?$AA@ DB 'Air-Ground Missile', 00H ; `string'
CONST	ENDS
;	COMDAT ??_C@_0BH@KKPPMEC@Anti?9Radiation?5Missile?$AA@
CONST	SEGMENT
??_C@_0BH@KKPPMEC@Anti?9Radiation?5Missile?$AA@ DB 'Anti-Radiation Missil'
	DB	'e', 00H					; `string'
CONST	ENDS
;	COMDAT ??_C@_04GPGPLFMI@Bomb?$AA@
CONST	SEGMENT
??_C@_04GPGPLFMI@Bomb?$AA@ DB 'Bomb', 00H		; `string'
CONST	ENDS
;	COMDAT ??_C@_0BE@FCJGAFDK@Short?5Range?5Missile?$AA@
CONST	SEGMENT
??_C@_0BE@FCJGAFDK@Short?5Range?5Missile?$AA@ DB 'Short Range Missile', 00H ; `string'
CONST	ENDS
;	COMDAT ??_C@_0BF@MLBFBOIM@Medium?5Range?5Missile?$AA@
CONST	SEGMENT
??_C@_0BF@MLBFBOIM@Medium?5Range?5Missile?$AA@ DB 'Medium Range Missile', 00H ; `string'
CONST	ENDS
;	COMDAT ??_C@_0BD@HPJGBBJH@Long?5Range?5Missile?$AA@
CONST	SEGMENT
??_C@_0BD@HPJGBBJH@Long?5Range?5Missile?$AA@ DB 'Long Range Missile', 00H ; `string'
CONST	ENDS
;	COMDAT ??_C@_03HBDMKMPF@Gun?$AA@
CONST	SEGMENT
??_C@_03HBDMKMPF@Gun?$AA@ DB 'Gun', 00H			; `string'
CONST	ENDS
;	COMDAT ??_C@_0BJ@JLHMIABE@Fired?5weapon?8s?5Unique?5ID?$AA@
CONST	SEGMENT
??_C@_0BJ@JLHMIABE@Fired?5weapon?8s?5Unique?5ID?$AA@ DB 'Fired weapon''s '
	DB	'Unique ID', 00H				; `string'
CONST	ENDS
;	COMDAT ??_C@_0BI@ONCFAOJL@Fired?5weapon?8s?5WeaponID?$AA@
CONST	SEGMENT
??_C@_0BI@ONCFAOJL@Fired?5weapon?8s?5WeaponID?$AA@ DB 'Fired weapon''s We'
	DB	'aponID', 00H				; `string'
CONST	ENDS
;	COMDAT ??_C@_0BF@NDBKPDJD@Firing?5entity?8s?5side?$AA@
CONST	SEGMENT
??_C@_0BF@NDBKPDJD@Firing?5entity?8s?5side?$AA@ DB 'Firing entity''s side'
	DB	00H						; `string'
CONST	ENDS
;	COMDAT ??_C@_0CB@FCLEPALJ@Firing?5entity?8s?5descripton?5index@
CONST	SEGMENT
??_C@_0CB@FCLEPALJ@Firing?5entity?8s?5descripton?5index@ DB 'Firing entit'
	DB	'y''s descripton index', 00H			; `string'
CONST	ENDS
;	COMDAT ??_C@_0BK@MGCHLKEB@Firing?5pilot?8s?5ID?0?5if?5any?$AA@
CONST	SEGMENT
??_C@_0BK@MGCHLKEB@Firing?5pilot?8s?5ID?0?5if?5any?$AA@ DB 'Firing pilot'''
	DB	's ID, if any', 00H				; `string'
CONST	ENDS
;	COMDAT ??_C@_0BH@LLGBHHMI@Firing?5entity?8s?5CampID?$AA@
CONST	SEGMENT
??_C@_0BH@LLGBHHMI@Firing?5entity?8s?5CampID?$AA@ DB 'Firing entity''s Ca'
	DB	'mpID', 00H					; `string'
CONST	ENDS
;	COMDAT ??_C@_0BG@NIANFDCK@Firing?5entity?8s?5VU_ID?$AA@
CONST	SEGMENT
??_C@_0BG@NIANFDCK@Firing?5entity?8s?5VU_ID?$AA@ DB 'Firing entity''s VU_'
	DB	'ID', 00H					; `string'
CONST	ENDS
;	COMDAT ??_C@_0BG@CJGBHACE@Damaged?5entity?8s?5side?$AA@
CONST	SEGMENT
??_C@_0BG@CJGBHACE@Damaged?5entity?8s?5side?$AA@ DB 'Damaged entity''s si'
	DB	'de', 00H					; `string'
CONST	ENDS
;	COMDAT ??_C@_0CD@EOELANJP@Damaged?5entity?8s?5description?5ind@
CONST	SEGMENT
??_C@_0CD@EOELANJP@Damaged?5entity?8s?5description?5ind@ DB 'Damaged enti'
	DB	'ty''s description index', 00H		; `string'
CONST	ENDS
;	COMDAT ??_C@_0BL@CNNLPJBG@Damaged?5pilot?8s?5ID?0?5if?5any?$AA@
CONST	SEGMENT
??_C@_0BL@CNNLPJBG@Damaged?5pilot?8s?5ID?0?5if?5any?$AA@ DB 'Damaged pilo'
	DB	't''s ID, if any', 00H			; `string'
CONST	ENDS
;	COMDAT ??_C@_0BI@GEFEGHFG@Damaged?5entity?8s?5CampID?$AA@
CONST	SEGMENT
??_C@_0BI@GEFEGHFG@Damaged?5entity?8s?5CampID?$AA@ DB 'Damaged entity''s '
	DB	'CampID', 00H				; `string'
CONST	ENDS
;	COMDAT ??_C@_0BH@INPCAOIG@Damaged?5entity?8s?5VU_ID?$AA@
CONST	SEGMENT
??_C@_0BH@INPCAOIG@Damaged?5entity?8s?5VU_ID?$AA@ DB 'Damaged entity''s V'
	DB	'U_ID', 00H					; `string'
CONST	ENDS
;	COMDAT ??_C@_0O@EGKFOIAA@Damage?5Amount?$AA@
CONST	SEGMENT
??_C@_0O@EGKFOIAA@Damage?5Amount?$AA@ DB 'Damage Amount', 00H ; `string'
CONST	ENDS
;	COMDAT ??_C@_0M@NKMHFILJ@Damage?5Type?$AA@
CONST	SEGMENT
??_C@_0M@NKMHFILJ@Damage?5Type?$AA@ DB 'Damage Type', 00H ; `string'
CONST	ENDS
;	COMDAT ??_C@_0L@HLPKBNIH@FOD?5Damage?$AA@
CONST	SEGMENT
??_C@_0L@HLPKBNIH@FOD?5Damage?$AA@ DB 'FOD Damage', 00H	; `string'
CONST	ENDS
;	COMDAT ??_C@_0M@PAGCNKPN@Bomb?5Damage?$AA@
CONST	SEGMENT
??_C@_0M@PAGCNKPN@Bomb?5Damage?$AA@ DB 'Bomb Damage', 00H ; `string'
CONST	ENDS
;	COMDAT ??_C@_0BB@FGFCIIFG@Collision?5Damage?$AA@
CONST	SEGMENT
??_C@_0BB@FGFCIIFG@Collision?5Damage?$AA@ DB 'Collision Damage', 00H ; `string'
CONST	ENDS
;	COMDAT ??_C@_0P@KDLOMAPI@Missile?5Damage?$AA@
CONST	SEGMENT
??_C@_0P@KDLOMAPI@Missile?5Damage?$AA@ DB 'Missile Damage', 00H ; `string'
CONST	ENDS
;	COMDAT ??_C@_0O@PJOPIMHG@Bullet?5Damage?$AA@
CONST	SEGMENT
??_C@_0O@PJOPIMHG@Bullet?5Damage?$AA@ DB 'Bullet Damage', 00H ; `string'
CONST	ENDS
_DATA	SEGMENT
?TheEventStrings@@3PAPADA DD FLAT:??_C@_0O@PJOPIMHG@Bullet?5Damage?$AA@ ; TheEventStrings
	DD	FLAT:??_C@_0P@KDLOMAPI@Missile?5Damage?$AA@
	DD	FLAT:??_C@_0BB@FGFCIIFG@Collision?5Damage?$AA@
	DD	FLAT:??_C@_0M@PAGCNKPN@Bomb?5Damage?$AA@
	DD	FLAT:??_C@_0L@HLPKBNIH@FOD?5Damage?$AA@
	DD	FLAT:??_C@_0M@NKMHFILJ@Damage?5Type?$AA@
	DD	FLAT:??_C@_0O@EGKFOIAA@Damage?5Amount?$AA@
	DD	FLAT:??_C@_0BH@INPCAOIG@Damaged?5entity?8s?5VU_ID?$AA@
	DD	FLAT:??_C@_0BI@GEFEGHFG@Damaged?5entity?8s?5CampID?$AA@
	DD	FLAT:??_C@_0BL@CNNLPJBG@Damaged?5pilot?8s?5ID?0?5if?5any?$AA@
	DD	FLAT:??_C@_0CD@EOELANJP@Damaged?5entity?8s?5description?5ind@
	DD	FLAT:??_C@_0BG@CJGBHACE@Damaged?5entity?8s?5side?$AA@
	DD	FLAT:??_C@_0BG@NIANFDCK@Firing?5entity?8s?5VU_ID?$AA@
	DD	FLAT:??_C@_0BH@LLGBHHMI@Firing?5entity?8s?5CampID?$AA@
	DD	FLAT:??_C@_0BK@MGCHLKEB@Firing?5pilot?8s?5ID?0?5if?5any?$AA@
	DD	FLAT:??_C@_0CB@FCLEPALJ@Firing?5entity?8s?5descripton?5index@
	DD	FLAT:??_C@_0BF@NDBKPDJD@Firing?5entity?8s?5side?$AA@
	DD	FLAT:??_C@_0BI@ONCFAOJL@Fired?5weapon?8s?5WeaponID?$AA@
	DD	FLAT:??_C@_0BJ@JLHMIABE@Fired?5weapon?8s?5Unique?5ID?$AA@
	DD	FLAT:??_C@_03HBDMKMPF@Gun?$AA@
	DD	FLAT:??_C@_0BD@HPJGBBJH@Long?5Range?5Missile?$AA@
	DD	FLAT:??_C@_0BF@MLBFBOIM@Medium?5Range?5Missile?$AA@
	DD	FLAT:??_C@_0BE@FCJGAFDK@Short?5Range?5Missile?$AA@
	DD	FLAT:??_C@_04GPGPLFMI@Bomb?$AA@
	DD	FLAT:??_C@_0BH@KKPPMEC@Anti?9Radiation?5Missile?$AA@
	DD	FLAT:??_C@_0BD@BJPNKCAP@Air?9Ground?5Missile?$AA@
	DD	FLAT:??_C@_06BIIBKNDG@Rocket?$AA@
	DD	FLAT:??_C@_0O@PAOGDIFK@Recon?5Picture?$AA@
	DD	FLAT:??_C@_0BF@IFAHPLCE@Type?5of?5Weapon?5fired?$AA@
	DD	FLAT:??_C@_0BG@NIANFDCK@Firing?5entity?8s?5VU_ID?$AA@
	DD	FLAT:??_C@_0BH@LLGBHHMI@Firing?5entity?8s?5CampID?$AA@
	DD	FLAT:??_C@_0BK@MGCHLKEB@Firing?5pilot?8s?5ID?0?5if?5any?$AA@
	DD	FLAT:??_C@_0CB@FCLEPALJ@Firing?5entity?8s?5descripton?5index@
	DD	FLAT:??_C@_0BF@NDBKPDJD@Firing?5entity?8s?5side?$AA@
	DD	FLAT:??_C@_0BI@ONCFAOJL@Fired?5weapon?8s?5WeaponID?$AA@
	DD	FLAT:??_C@_0BJ@JLHMIABE@Fired?5weapon?8s?5Unique?5ID?$AA@
	DD	FLAT:??_C@_0BB@NHKGIGJA@Target?5entity?5ID?$AA@
	DD	FLAT:??_C@_0BF@PEFBHKMI@Shooting?5entity?8s?5ID?$AA@
	DD	FLAT:??_C@_0BD@BDLMIBFH@Up?5to?58?5weapon?5Ids?$AA@
	DD	FLAT:??_C@_0BF@KNNBLOLB@Up?5to?5255?5shots?5each?$AA@
	DD	FLAT:??_C@_0BO@HOHCLNJ@target?8s?5slot?0?5or?5255?5if?5none?$AA@
	DD	FLAT:??_C@_0BM@EEDLGHFF@size?5of?5the?5following?5block?$AA@
	DD	FLAT:??_C@_0BD@LPICCLDD@Current?5state?5data?$AA@
	DD	FLAT:??_C@_0BL@MPJEDPCL@We?8re?5about?5to?5be?5attacked?$AA@
	DD	FLAT:??_C@_0BK@OHNKGGBO@Someone?8s?5shooting?5at?5us?4?$AA@
	DD	FLAT:??_C@_0CF@OAJFDLIN@Enemy?5visual?5detector?5has?5spotte@
	DD	FLAT:??_C@_0BL@DDPJBJL@Enemy?5radar?5has?5spotted?5us?$AA@
	DD	FLAT:??_C@_0BM@PCHBDCCH@Repair?5vehicles?5or?5features?$AA@
	DD	FLAT:??_C@_0BI@PBAIONAG@Reaggregate?5this?5entity?$AA@
	DD	FLAT:??_C@_0BI@DOFOMAGL@Deaggregate?5this?5entity?$AA@
	DD	FLAT:??_C@_0O@IEJMGIHG@Who?5sent?5this?$AA@
	DD	FLAT:??_C@_0BA@LDAKHNGG@Message?5content?$AA@
	DD	FLAT:??_C@_0O@DBCHEMFP@Generic?5Data1?$AA@
	DD	FLAT:??_C@_0O@BKAKBPJM@Generic?5Data2?$AA@
	DD	FLAT:??_C@_0O@DBBCONN@Generic?5Data3?$AA@
	DD	FLAT:??_C@_00CNPNBAHC@?$AA@
	DD	FLAT:??_C@_00CNPNBAHC@?$AA@
	DD	FLAT:??_C@_00CNPNBAHC@?$AA@
	DD	FLAT:??_C@_00CNPNBAHC@?$AA@
	DD	FLAT:??_C@_00CNPNBAHC@?$AA@
	DD	FLAT:??_C@_00CNPNBAHC@?$AA@
	DD	FLAT:??_C@_00CNPNBAHC@?$AA@
	DD	FLAT:??_C@_0O@IEJMGIHG@Who?5sent?5this?$AA@
	DD	FLAT:??_C@_0BA@LDAKHNGG@Message?5content?$AA@
	DD	FLAT:??_C@_0BD@CALALIOO@Size?5of?5data?5block?$AA@
	DD	FLAT:??_C@_0BA@JBABDILJ@The?5actual?5data?$AA@
	DD	FLAT:??_C@_0BM@IJGKFLIC@Detach?5a?5number?5of?5vehicles?$AA@
	DD	FLAT:??_C@_0BH@KHMPCOAI@Add?5Supplies?5to?5a?5unit?$AA@
	DD	FLAT:??_C@_0L@ECAFKPPF@New?5orders?$AA@
	DD	FLAT:??_C@_0BK@LFAIHFNO@A?5Mission?5request?5was?5met?$AA@
	DD	FLAT:??_C@_0O@NFMLIDKE@Schedule?5Unit?$AA@
	DD	FLAT:??_C@_0O@NFMLIDKE@Schedule?5Unit?$AA@
	DD	FLAT:??_C@_0BH@NGALHFFJ@Set?5number?5of?5vehicles?$AA@
	DD	FLAT:??_C@_0BD@NDINBGHH@Activate?5this?5unit?$AA@
	DD	FLAT:??_C@_0BE@CCDFOGEM@Fire?5support?5orders?$AA@
	DD	FLAT:??_C@_00CNPNBAHC@?$AA@
	DD	FLAT:??_C@_00CNPNBAHC@?$AA@
	DD	FLAT:??_C@_00CNPNBAHC@?$AA@
	DD	FLAT:??_C@_0O@IEJMGIHG@Who?5sent?5this?$AA@
	DD	FLAT:??_C@_0BA@LDAKHNGG@Message?5content?$AA@
	DD	FLAT:??_C@_0O@DBCHEMFP@Generic?5Data1?$AA@
	DD	FLAT:??_C@_0O@BKAKBPJM@Generic?5Data2?$AA@
	DD	FLAT:??_C@_0O@DBBCONN@Generic?5Data3?$AA@
	DD	FLAT:??_C@_0BL@NPMOLGLD@Objective?5has?5been?5capture?$AA@
	DD	FLAT:??_C@_0CA@FDGDNJOL@Reset?5this?5obj?8s?5supply?5traffic?$AA@
	DD	FLAT:??_C@_0BP@CAAEAPDB@Reset?5this?5obj?8s?5supply?5losses?$AA@
	DD	FLAT:??_C@_0O@IEJMGIHG@Who?5sent?5this?$AA@
	DD	FLAT:??_C@_0M@OGDENIND@Who?5it?8s?5to?$AA@
	DD	FLAT:??_C@_07BEIHKDLJ@Message?$AA@
	DD	FLAT:??_C@_0O@DBCHEMFP@Generic?5Data1?$AA@
	DD	FLAT:??_C@_0O@BKAKBPJM@Generic?5Data2?$AA@
	DD	FLAT:??_C@_0O@DBBCONN@Generic?5Data3?$AA@
	DD	FLAT:??_C@_0N@DEINLCNI@Their?5orders?$AA@
	DD	FLAT:??_C@_0BC@BLCGEHKG@Primary?5Objective?$AA@
	DD	FLAT:??_C@_0BE@ELHOKOCG@Secondary?5Objective?$AA@
	DD	FLAT:??_C@_0P@HHIHMHDG@Real?5Objective?$AA@
	DD	FLAT:??_C@_0BH@PKKOMEEC@Session?5sending?5status?$AA@
	DD	FLAT:??_C@_0BM@EEDLGHFF@size?5of?5the?5following?5block?$AA@
	DD	FLAT:??_C@_0CA@CIDOLIME@The?5info?5requested?0?5in?5a?5stream?$AA@
	DD	FLAT:??_C@_0BK@PFKKLCCH@Master?8s?5time?5when?5posted?$AA@
	DD	FLAT:??_C@_0BL@CMLPEJME@Slave?8s?5time?5when?5received?$AA@
	DD	FLAT:??_C@_0BJ@CDADPNOJ@Slave?8s?5time?5when?5posted?$AA@
	DD	FLAT:??_C@_0BL@JMJKCMJK@Who?5sent?5this?5?$CIeither?5way?$CJ?$AA@
	DD	FLAT:??_C@_0BH@MOPCIDPH@Guess?5at?5delivery?5time?$AA@
	DD	FLAT:??_C@_0BK@KHKAMPBM@Master?8s?5time?5compression?$AA@
	DD	FLAT:??_C@_0BD@PLAKHMMM@Enemy?5unit?5Spotted?$AA@
	DD	FLAT:??_C@_0BJ@ECALIGDD@Rebuild?5GTO?0?5ATO?0?5or?5NTO?$AA@
	DD	FLAT:??_C@_0BE@LPJLMFBD@Redo?5planning?5stage?$AA@
	DD	FLAT:??_C@_0BH@IGJPDEMC@Entity?5sending?5message?$AA@
	DD	FLAT:??_C@_0BB@FMDIJJI@Tasker?5receiving?$AA@
	DD	FLAT:??_C@_0P@NDKDMAIN@Team?5receiving?$AA@
	DD	FLAT:??_C@_0N@BIKOHCEH@Message?5Type?$AA@
	DD	FLAT:??_C@_0M@MBIOJKCH@Extra?5Data1?$AA@
	DD	FLAT:??_C@_0M@OKKDMJOE@Extra?5Data2?$AA@
	DD	FLAT:??_C@_0BL@GHLFNODH@Extra?5Data3?5?$CIfake?5pointer?$CJ?$AA@
	DD	FLAT:??_C@_0BL@OCODOEFO@New?5aircraft?5are?5available?$AA@
	DD	FLAT:??_C@_0BJ@FGIEPKJP@Player?5request?3?5aircraft?$AA@
	DD	FLAT:??_C@_0BI@NJBKCPOE@Player?5request?3?5mission?$AA@
	DD	FLAT:??_C@_0BI@EFJMMNBL@Player?5requested?5divert?$AA@
	DD	FLAT:??_C@_0BC@LKAMJEDP@Mission?5Completed?$AA@
	DD	FLAT:??_C@_0BG@PEPEKANN@Mark?5schedule?5as?5used?$AA@
	DD	FLAT:??_C@_0BO@JPPKNPLC@This?5airbase?5has?5been?5damaged?$AA@
	DD	FLAT:??_C@_0BH@IGJPDEMC@Entity?5sending?5message?$AA@
	DD	FLAT:??_C@_0BB@FMDIJJI@Tasker?5receiving?$AA@
	DD	FLAT:??_C@_0P@NDKDMAIN@Team?5receiving?$AA@
	DD	FLAT:??_C@_0N@BIKOHCEH@Message?5Type?$AA@
	DD	FLAT:??_C@_0M@MBIOJKCH@Extra?5Data1?$AA@
	DD	FLAT:??_C@_0M@OKKDMJOE@Extra?5Data2?$AA@
	DD	FLAT:??_C@_0BL@GHLFNODH@Extra?5Data3?5?$CIfake?5pointer?$CJ?$AA@
	DD	FLAT:??_C@_0CB@LOKGEMBP@Requesting?5Artillery?1CAS?5support@
	DD	FLAT:??_C@_0BJ@ILDPNLIC@Requesting?5Engineer?5unit?$AA@
	DD	FLAT:??_C@_0BL@BKLBJFCD@Requesting?5Air?5Defense?1CAP?$AA@
	DD	FLAT:??_C@_0BH@IGJPDEMC@Entity?5sending?5message?$AA@
	DD	FLAT:??_C@_0BB@FMDIJJI@Tasker?5receiving?$AA@
	DD	FLAT:??_C@_0P@NDKDMAIN@Team?5receiving?$AA@
	DD	FLAT:??_C@_0N@BIKOHCEH@Message?5Type?$AA@
	DD	FLAT:??_C@_0M@MBIOJKCH@Extra?5Data1?$AA@
	DD	FLAT:??_C@_0M@OKKDMJOE@Extra?5Data2?$AA@
	DD	FLAT:??_C@_0BK@IHCAGIDP@Enemy?5being?5acted?5against?$AA@
	DD	FLAT:??_C@_0CB@LOKGEMBP@Requesting?5Artillery?1CAS?5support@
	DD	FLAT:??_C@_0BH@IGJPDEMC@Entity?5sending?5message?$AA@
	DD	FLAT:??_C@_0BB@FMDIJJI@Tasker?5receiving?$AA@
	DD	FLAT:??_C@_0P@NDKDMAIN@Team?5receiving?$AA@
	DD	FLAT:??_C@_0N@BIKOHCEH@Message?5Type?$AA@
	DD	FLAT:??_C@_0M@MBIOJKCH@Extra?5Data1?$AA@
	DD	FLAT:??_C@_0M@OKKDMJOE@Extra?5Data2?$AA@
	DD	FLAT:??_C@_0BK@IHCAGIDP@Enemy?5being?5acted?5against?$AA@
	DD	FLAT:??_C@_0BB@HKJGHMPA@Relations?5change?$AA@
	DD	FLAT:??_C@_0BA@DFJMAAAG@New?5Team?5member?$AA@
	DD	FLAT:??_C@_0BH@OBBCPGCO@Shift?5inititive?5values?$AA@
	DD	FLAT:??_C@_0BH@IGJPDEMC@Entity?5sending?5message?$AA@
	DD	FLAT:??_C@_0P@NDKDMAIN@Team?5receiving?$AA@
	DD	FLAT:??_C@_0N@BIKOHCEH@Message?5Type?$AA@
	DD	FLAT:??_C@_0P@MEOMBBCA@Acting?5country?$AA@
	DD	FLAT:??_C@_05BFLDNJLF@Data1?$AA@
	DD	FLAT:??_C@_05DOJOIKHG@Data2?$AA@
	DD	FLAT:??_C@_09MEMOOCLC@Go?5Spread?$AA@
	DD	FLAT:??_C@_08MEHMOMHF@Go?5Wedge?$AA@
	DD	FLAT:??_C@_08HMKKLDDI@Go?5Trail?$AA@
	DD	FLAT:??_C@_09NBFPMHOH@Go?5Ladder?$AA@
	DD	FLAT:??_C@_08KMDJGFDB@Go?5Stack?$AA@
	DD	FLAT:??_C@_0M@MJANDNCJ@Go?5Res?5Cell?$AA@
	DD	FLAT:??_C@_06EOCMBGKI@Go?5Box?$AA@
	DD	FLAT:??_C@_0N@CLJAHGHM@Go?5Arrowhead?$AA@
	DD	FLAT:??_C@_0O@DIKEJDHB@Go?5Fluid?5Four?$AA@
	DD	FLAT:??_C@_0BB@OMJMDMAF@Attack?5My?5Target?$AA@
	DD	FLAT:??_C@_0N@DEKHGDAE@Assign?5Group?$AA@
	DD	FLAT:??_C@_0L@PPGOBBOB@Go?5Shooter?$AA@
	DD	FLAT:??_C@_08OKJMHLLF@Go?5Cover?$AA@
	DD	FLAT:??_C@_0N@IEJNAEGK@Weapons?5Hold?$AA@
	DD	FLAT:??_C@_0N@IPBEDPIH@Weapons?5Free?$AA@
	DD	FLAT:??_C@_0M@LONEHBHP@Break?5Right?$AA@
	DD	FLAT:??_C@_0L@PKLKHLGG@Break?5Left?$AA@
	DD	FLAT:??_C@_0N@FEHJHNAJ@Clear?5My?5Six?$AA@
	DD	FLAT:??_C@_0P@KLIPCDHP@Check?5Your?5Six?$AA@
	DD	FLAT:??_C@_05FPHDCJDM@Pince?$AA@
	DD	FLAT:??_C@_08LMBMOLCO@Posthole?$AA@
	DD	FLAT:??_C@_08IJDOPOCG@Chainsaw?$AA@
	DD	FLAT:??_C@_04DGGEBHIF@Flex?$AA@
	DD	FLAT:??_C@_06ICFPHIMJ@Rejoin?$AA@
	DD	FLAT:??_C@_0P@PCEMHBDO@Resume?5Mission?$AA@
	DD	FLAT:??_C@_0BK@BBEJHKHA@Search?5for?5Ground?5Targets?$AA@
	DD	FLAT:??_C@_0BH@OHAKDPFI@Search?5for?5Air?5Targets?$AA@
	DD	FLAT:??_C@_08EJCHBFNM@Kick?5Out?$AA@
	DD	FLAT:??_C@_08DNENOAKK@Close?5Up?$AA@
	DD	FLAT:??_C@_0CB@PMEKMMCC@Toggle?5Formation?5Left?1Right?5Side@
	DD	FLAT:??_C@_07BNMCGEDO@Step?5Up?$AA@
	DD	FLAT:??_C@_09PECAGCPJ@Step?5Down?$AA@
	DD	FLAT:??_C@_0N@EGGFPOPE@Say?5Position?$AA@
	DD	FLAT:??_C@_0L@HKNONIOF@Say?5Status?$AA@
	DD	FLAT:??_C@_0L@CKLBGBOI@Say?5Damage?$AA@
	DD	FLAT:??_C@_08DMDCHGCO@Say?5Fuel?$AA@
	DD	FLAT:??_C@_0O@ILEKNCPC@Weapons?5Check?$AA@
	DD	FLAT:??_C@_0P@JGKEIBKP@Return?5to?5Base?$AA@
	DD	FLAT:??_C@_0N@CNELNLHF@Wingman?5Free?$AA@
	DD	FLAT:??_C@_0BF@LDFIANEJ@Move?5up?5in?5formation?$AA@
	DD	FLAT:??_C@_0BB@OPDDHGLG@Radar?5to?5Standby?$AA@
	DD	FLAT:??_C@_0P@LDCBGJKG@Activate?5Radar?$AA@
	DD	FLAT:??_C@_0M@BLMILAPH@Buddy?5Spike?$AA@
	DD	FLAT:??_C@_05OCCNKNFB@Skate?$AA@
	DD	FLAT:??_C@_0BH@NACFCBCK@Run?5Single?9Side?5Offset?$AA@
	DD	FLAT:??_C@_0O@ONLEHOLM@Turn?5On?5Smoke?$AA@
	DD	FLAT:??_C@_0P@JCFGPIBP@Turn?5Off?5Smoke?$AA@
	DD	FLAT:??_C@_06OOAGKFHG@Raygun?$AA@
	DD	FLAT:??_C@_05EEKOPFHH@Joker?$AA@
	DD	FLAT:??_C@_05OMILMKPK@Bingo?$AA@
	DD	FLAT:??_C@_05CFEMNELC@Fumes?$AA@
	DD	FLAT:??_C@_08IBGPHGNM@Flameout?$AA@
	DD	FLAT:??_C@_0BH@GBNMNJPM@Total?5Wingman?5Messages?$AA@
	DD	FLAT:??_C@_0BH@IBNBFEDL@Object?5Sending?5Message?$AA@
	DD	FLAT:??_C@_0BH@CCNDPOMG@Unit?5Receiving?5Message?$AA@
	DD	FLAT:??_C@_07FFLLKOAD@Command?$AA@
	DD	FLAT:??_C@_0L@LBBPJOGP@New?5target?$AA@
	DD	FLAT:??_C@_0BE@CKOLJILN@A?1C?5Sending?5Message?$AA@
	DD	FLAT:??_C@_08CNLMPBDL@New?5Mode?$AA@
	DD	FLAT:??_C@_0BH@KEMCFE@Team?5receiving?5request?$AA@
	DD	FLAT:??_C@_0BG@NMJFMIMO@The?5request?5structure?$AA@
	DD	FLAT:??_C@_0BN@OOFHMCBH@Data?5associated?5with?5mission?$AA@
	DD	FLAT:??_C@_00CNPNBAHC@?$AA@
	DD	FLAT:??_C@_00CNPNBAHC@?$AA@
	DD	FLAT:??_C@_00CNPNBAHC@?$AA@
	DD	FLAT:??_C@_00CNPNBAHC@?$AA@
	DD	FLAT:??_C@_00CNPNBAHC@?$AA@
	DD	FLAT:??_C@_00CNPNBAHC@?$AA@
	DD	FLAT:??_C@_00CNPNBAHC@?$AA@
	DD	FLAT:??_C@_0M@HBHGKIND@Temperature?$AA@
	DD	FLAT:??_C@_0BB@LBEHMNKG@New?5wind?5Heading?$AA@
	DD	FLAT:??_C@_0P@BNIHEAJO@New?5wind?5Speed?$AA@
	DD	FLAT:??_C@_08CPFDLLBI@X?5Offset?$AA@
	DD	FLAT:??_C@_08DICIKPFL@Y?5Offset?$AA@
	DD	FLAT:??_C@_0BL@PJKHOMM@How?5much?5data?5we?8re?5sendng?$AA@
	DD	FLAT:??_C@_0BJ@EKBBKANA@Which?5map?5edge?5to?5add?5to?$AA@
	DD	FLAT:??_C@_0BL@KOCFLMGN@Cloud?5cover?5or?5cloud?5level?$AA@
	DD	FLAT:??_C@_0BG@LJAHJKDP@Pointer?5to?5cloud?5data?$AA@
	DD	FLAT:??_C@_0BB@LKFCGACP@Not?5finished?5yet?$AA@
	DD	FLAT:??_C@_04NIFFMPNM@Kill?$AA@
	DD	FLAT:??_C@_0BC@IHCNKKIA@Exceeded?5max?5time?$AA@
	DD	FLAT:??_C@_07DNBAAOEN@No?5Kill?$AA@
	DD	FLAT:??_C@_06OAMBFIKP@Missed?$AA@
	DD	FLAT:??_C@_0BH@EGEKEPIC@Exceeded?5Field?5Of?5View?$AA@
	DD	FLAT:??_C@_0BH@LEJIMCOO@Exceeded?5Gimbal?5Limits?$AA@
	DD	FLAT:??_C@_0P@CEABDDD@Hit?5the?5ground?$AA@
	DD	FLAT:??_C@_0BC@KCLLNDGG@Reached?5min?5speed?$AA@
	DD	FLAT:??_C@_0BG@OPIHBBNJ@Exceeded?5battery?5life?$AA@
	DD	FLAT:??_C@_0BE@CFHKGLLB@Dead?5entity?8s?5VU_ID?$AA@
	DD	FLAT:??_C@_0BI@GEFEGHFG@Damaged?5entity?8s?5CampID?$AA@
	DD	FLAT:??_C@_0BI@CFGMAJFM@Dead?5pilot?8s?5ID?0?5if?5any?$AA@
	DD	FLAT:??_C@_0BM@OLBALGJL@Dead?5entity?8s?5campaign?5slot?$AA@
	DD	FLAT:??_C@_0CA@KFNHIBGP@Dead?5entity?8s?5description?5index?$AA@
	DD	FLAT:??_C@_0BD@MGNLBCIJ@Dead?5entity?8s?5side?$AA@
	DD	FLAT:??_C@_0BG@NIANFDCK@Firing?5entity?8s?5VU_ID?$AA@
	DD	FLAT:??_C@_0BH@LLGBHHMI@Firing?5entity?8s?5CampID?$AA@
	DD	FLAT:??_C@_0BK@MGCHLKEB@Firing?5pilot?8s?5ID?0?5if?5any?$AA@
	DD	FLAT:??_C@_0BO@KEPFFMJM@Firing?5entity?8s?5campaign?5slot?$AA@
	DD	FLAT:??_C@_0CB@FCLEPALJ@Firing?5entity?8s?5descripton?5index@
	DD	FLAT:??_C@_0BF@NDBKPDJD@Firing?5entity?8s?5side?$AA@
	DD	FLAT:??_C@_0P@GDAGAOMA@Missile?5Result?$AA@
	DD	FLAT:??_C@_0BJ@JLHMIABE@Fired?5weapon?8s?5Unique?5ID?$AA@
	DD	FLAT:??_C@_05BCJADJIF@Wilco?$AA@
	DD	FLAT:??_C@_0BB@NGGHEGCD@Unable?5to?5comply?$AA@
	DD	FLAT:??_C@_0BF@EHBBBBFN@Judy?5?$CIAWACS?5shut?5up?$CJ?$AA@
	DD	FLAT:??_C@_0BA@HEIPGHOF@Request?5picture?$AA@
	DD	FLAT:??_C@_0N@OGIIDACJ@Request?5help?$AA@
	DD	FLAT:??_C@_0P@PBJLFHLA@Request?5relief?$AA@
	DD	FLAT:??_C@_0BH@ELPGOALB@Request?5divert?5mission?$AA@
	DD	FLAT:??_C@_0BH@FCGGLCKP@Request?5rescue?5chopper?$AA@
	DD	FLAT:??_C@_08FIKBCOMP@Check?5in?$AA@
	DD	FLAT:??_C@_09HFMINBLA@Check?5out?$AA@
	DD	FLAT:??_C@_0BF@PBCLLKDB@Vector?5to?5home?5plate?$AA@
	DD	FLAT:??_C@_0BH@ILNFHEPE@Vector?5to?5divert?5field?$AA@
	DD	FLAT:??_C@_0BB@JIHEBDNG@Vector?5to?5tanker?$AA@
	DD	FLAT:??_C@_0BC@NKPJHHPI@Vector?5to?5package?$AA@
	DD	FLAT:??_C@_0BJ@KBFGPOBB@Vector?5to?5nearest?5threat?$AA@
	DD	FLAT:??_C@_0BB@CBOIHBGL@Vector?5to?5target?$AA@
	DD	FLAT:??_C@_0BG@NFJBFCC@Plays?5PictureBRA?5call?$AA@
	DD	FLAT:??_C@_0CB@GLKEFMGB@Campaign?5ordered?5a?5mission?5abort@
	DD	FLAT:??_C@_0BP@JBKOBFGF@Campaign?5is?5sending?5assistance?$AA@
	DD	FLAT:??_C@_0BP@BLDEGOAH@Flight?5is?5at?5the?5contact?5point?$AA@
	DD	FLAT:??_C@_0BP@LIAJMHEN@Flight?8s?5patrol?5period?5is?5over?$AA@
	DD	FLAT:??_C@_0CC@MOJLOLNB@Flight?8s?5patrol?5has?5been?5relieve@
	DD	FLAT:??_C@_0CA@LDPBGFJJ@Flight?5ordered?5to?5cover?5another?$AA@
	DD	FLAT:??_C@_0CC@FNAHMDJH@Flight?5ordered?5to?5intercept?5enem@
	DD	FLAT:??_C@_0CB@NHFKDMPJ@Flight?5ordered?5to?5hit?5ground?5veh@
	DD	FLAT:??_C@_0BJ@ELDBJOCA@Any?5other?5type?5of?5divert?$AA@
	DD	FLAT:??_C@_0BI@LOHNALAP@Requested?5divert?5denied?$AA@
	DD	FLAT:??_C@_0BP@PPKECIMN@Go?5back?5to?5what?5you?5were?5doing?$AA@
	DD	FLAT:??_C@_0BH@OBIJPKLF@A?5flight?5has?5taken?5off?$AA@
	DD	FLAT:??_C@_0CA@EKHAJPLF@Course?5correction?5for?5intercept?$AA@
	DD	FLAT:??_C@_0CL@CGNEDADN@A?5friendly?5UNIT?5is?5engaged?5?$CIair?5@
	DD	FLAT:??_C@_07PAEDNLMB@Declare?$AA@
	DD	FLAT:??_C@_0BA@GGIIBFLL@A?1C?5making?5call?$AA@
	DD	FLAT:??_C@_0N@BIKOHCEH@Message?5Type?$AA@
	DD	FLAT:??_C@_0L@GOLIPNAK@On?5Station?$AA@
	DD	FLAT:??_C@_0M@FGEGOHEG@Will?5Comply?$AA@
	DD	FLAT:??_C@_0BB@NGGHEGCD@Unable?5to?5comply?$AA@
	DD	FLAT:??_C@_0BA@LGMPFINL@Ready?5to?5attack?$AA@
	DD	FLAT:??_C@_0BI@MGKLEENL@Notify?5we?8re?5on?5station?$AA@
	DD	FLAT:??_C@_0BJ@FIOAECKA@Notify?5we?8re?5off?5station?$AA@
	DD	FLAT:??_C@_0N@NPEFECOK@Request?5Mark?$AA@
	DD	FLAT:??_C@_0P@IBJMDHAD@Request?5Target?$AA@
	DD	FLAT:??_C@_0M@GNEDGABB@Request?5BDA?$AA@
	DD	FLAT:??_C@_0BF@FPOANOEP@Request?5FAC?5Location?$AA@
	DD	FLAT:??_C@_0BC@POEHHJMI@Request?5FAC?5Tacan?$AA@
	DD	FLAT:??_C@_0L@FJFHFCBM@Hold?5At?5CP?$AA@
	DD	FLAT:??_C@_0L@FEBFFPCI@FAC?5Sitrep?$AA@
	DD	FLAT:??_C@_0O@NHCDMOIN@Target?5Marked?$AA@
	DD	FLAT:??_C@_0BA@DMBPPEEC@Attack?5Briefing?$AA@
	DD	FLAT:??_C@_0BF@ECCPGBAI@No?5Targets?5Available?$AA@
	DD	FLAT:??_C@_0BG@NLHBABMJ@Ground?5Target?5Bearing?$AA@
	DD	FLAT:??_C@_0BG@LOEGCJID@Bomb?5Damage?5Assesment?$AA@
	DD	FLAT:??_C@_0O@JDLNBKCA@Target?5Missed?$AA@
	DD	FLAT:??_C@_0BF@CKAKNHJC@Attacking?5Friendlies?$AA@
	DD	FLAT:??_C@_0BF@MDAHAANH@Can?5flight?5re?9attack?$AA@
	DD	FLAT:??_C@_0BM@PKJNKCFN@Target?5is?5hardend?5artillery?$AA@
	DD	FLAT:??_C@_0L@GBHIEMHN@Doors?5Open?$AA@
	DD	FLAT:??_C@_0BF@ECCGCKOM@Scud?5Launch?5Detected?$AA@
	DD	FLAT:??_C@_08HJHPADDB@Clear?5LZ?$AA@
	DD	FLAT:??_C@_0BD@PFECKCEO@Attack?5this?5target?$AA@
	DD	FLAT:??_C@_0L@MJOHGJEG@Send?5Helos?$AA@
	DD	FLAT:??_C@_0BA@GGIIBFLL@A?1C?5making?5call?$AA@
	DD	FLAT:??_C@_0N@BIKOHCEH@Message?5Type?$AA@
	DD	FLAT:??_C@_09MNHFKPOO@Target?5Id?$AA@
	DD	FLAT:??_C@_06GAKHDKCP@Data?51?$AA@
	DD	FLAT:??_C@_06ELIKGJOM@Data?52?$AA@
	DD	FLAT:??_C@_06FCJBFIKN@Data?53?$AA@
	DD	FLAT:??_C@_0BA@HELJDLFN@Request?5Landing?$AA@
	DD	FLAT:??_C@_0BH@IDOCHLGI@Declaring?5an?5Emergency?$AA@
	DD	FLAT:??_C@_07DGOBJIAC@Inbound?$AA@
	DD	FLAT:??_C@_0BA@IECJJGOF@Request?5Takeoff?$AA@
	DD	FLAT:??_C@_0N@INBEFAEN@Request?5Taxi?$AA@
	DD	FLAT:??_C@_0BP@FEECOCNG@tell?5ATC?5when?5you?5change?5modes?$AA@
	DD	FLAT:??_C@_0BA@GGIIBFLL@A?1C?5making?5call?$AA@
	DD	FLAT:??_C@_0N@BIKOHCEH@Message?5Type?$AA@
	DD	FLAT:??_C@_0BI@OAEHFKD@current?5status?5of?5plane?$AA@
	DD	FLAT:??_C@_0BE@CFHKGLLB@Dead?5entity?8s?5VU_ID?$AA@
	DD	FLAT:??_C@_0BI@GEFEGHFG@Damaged?5entity?8s?5CampID?$AA@
	DD	FLAT:??_C@_0BI@CFGMAJFM@Dead?5pilot?8s?5ID?0?5if?5any?$AA@
	DD	FLAT:??_C@_0CA@KFNHIBGP@Dead?5entity?8s?5description?5index?$AA@
	DD	FLAT:??_C@_0BD@MGNLBCIJ@Dead?5entity?8s?5side?$AA@
	DD	FLAT:??_C@_0BG@NIANFDCK@Firing?5entity?8s?5VU_ID?$AA@
	DD	FLAT:??_C@_0BH@LLGBHHMI@Firing?5entity?8s?5CampID?$AA@
	DD	FLAT:??_C@_0BK@MGCHLKEB@Firing?5pilot?8s?5ID?0?5if?5any?$AA@
	DD	FLAT:??_C@_0CB@FCLEPALJ@Firing?5entity?8s?5descripton?5index@
	DD	FLAT:??_C@_0BF@NDBKPDJD@Firing?5entity?8s?5side?$AA@
	DD	FLAT:??_C@_0BI@ONCFAOJL@Fired?5weapon?8s?5WeaponID?$AA@
	DD	FLAT:??_C@_0BJ@JLHMIABE@Fired?5weapon?8s?5Unique?5ID?$AA@
	DD	FLAT:??_C@_0BM@MOEABOOG@Campaign?5units?5are?5fighting?$AA@
	DD	FLAT:??_C@_0BN@MPFNEFME@Camp?5Entity?5has?5taken?5losses?$AA@
	DD	FLAT:??_C@_0CB@MDGOLLEO@A?5unit?5is?5withdrawing?5or?5aborted@
	DD	FLAT:??_C@_0BF@JPOCIAJJ@A?5unit?5was?5destroyed?$AA@
	DD	FLAT:??_C@_0BH@CJKDHPHB@A?5new?5unit?5has?5arrived?$AA@
	DD	FLAT:??_C@_0BK@LEJNDIBH@An?5objective?5was?5captured?$AA@
	DD	FLAT:??_C@_0BN@LMOLKLFL@A?5country?5has?5switched?5teams?$AA@
	DD	FLAT:??_C@_0BL@LEKDCMDC@A?5triggered?5event?5happened?$AA@
	DD	FLAT:??_C@_0L@JDPBPIKC@Event?5Type?$AA@
	DD	FLAT:??_C@_05BOOEKJH@Flags?$AA@
	DD	FLAT:??_C@_0BL@CMAAAOAG@What?5team?5this?5pertains?5to?$AA@
	DD	FLAT:??_C@_0BK@JDANDPPK@Size?5of?5string?5to?5follow?3?$AA@
	DD	FLAT:??_C@_0BH@DICODLMF@Location?5of?5this?5event?$AA@
	DD	FLAT:??_C@_00CNPNBAHC@?$AA@
	DD	FLAT:??_C@_0BL@CLDPEIOC@Vu?5ids?5of?5entitys?5envolved?$AA@
	DD	FLAT:??_C@_0BK@KJDNAJPC@Text?5ids?5of?5input?5strings?$AA@
	DD	FLAT:??_C@_0L@OAKJCDPB@Who?5Landed?$AA@
	DD	FLAT:??_C@_0BH@GFMCJOMF@Landed?5entity?8s?5CampID?$AA@
	DD	FLAT:??_C@_0BC@FCILABHK@Landed?5pilot?8s?5ID?$AA@
	DD	FLAT:??_C@_0BO@FGFFMPK@Landed?5entity?8s?5campaign?5slot?$AA@
	DD	FLAT:??_C@_0CC@JHMCAGLD@Landed?5entity?8s?5description?5inde@
	DD	FLAT:??_C@_0O@FOECLJCC@Landing?5Grade?$AA@
	DD	FLAT:??_C@_0BL@JBBHECD@Lander?8s?5strength?5?$CI0?9100?$CF?$CJ?$AA@
	DD	FLAT:??_C@_0BI@DIGLGJLC@Lander?8s?5remaining?5fuel?$AA@
	DD	FLAT:??_C@_0O@NJPKNKPB@Owning?5Entity?$AA@
	DD	FLAT:??_C@_0P@NNGPKNHG@Number?5of?5Dofs?$AA@
	DD	FLAT:??_C@_0BD@GDEPFMIK@Number?5of?5Switches?$AA@
	DD	FLAT:??_C@_0BD@MIIJBDDJ@Degrees?5of?5Freedom?$AA@
	DD	FLAT:??_C@_08NNJNFNMB@DOF?5Type?$AA@
	DD	FLAT:??_C@_0M@HIANBPBG@Switch?5Data?$AA@
	DD	FLAT:??_C@_0L@LOFJIMAE@Extra?5Data?$AA@
	DD	FLAT:??_C@_0BL@IFEGNMPM@Entity?5who?8s?5data?5you?5need?$AA@
	DD	FLAT:??_C@_06BNDFMADG@On?1Off?$AA@
	DD	FLAT:??_C@_00CNPNBAHC@?$AA@
	DD	FLAT:??_C@_00CNPNBAHC@?$AA@
	DD	FLAT:??_C@_0O@OCAOBLMH@The?5game?8s?5Id?$AA@
	DD	FLAT:??_C@_00CNPNBAHC@?$AA@
	DD	FLAT:??_C@_00CNPNBAHC@?$AA@
	DD	FLAT:??_C@_0CG@EBHPHJHI@get?5slot?0?5leave?5slot?0?5change?5cal@
	DD	FLAT:??_C@_0N@NNEKHCMP@Type?5of?5game?$AA@
	DD	FLAT:??_C@_0P@LAMKBGHO@Team?5requested?$AA@
	DD	FLAT:??_C@_0BP@EFBFGIFJ@Current?5slot?5occupied?5?$CIif?5any?$CJ?$AA@
	DD	FLAT:??_C@_0BG@JIKGPH@Slot?5we?8re?5asking?5for?$AA@
	DD	FLAT:??_C@_0BH@IAOIHPA@Skill?5we?8re?5asking?5for?$AA@
	DD	FLAT:??_C@_0BG@PLHPGNCI@Type?5we?8re?5asking?5for?$AA@
	DD	FLAT:??_C@_0BD@OBOMFCBL@Session?5responding?$AA@
	DD	FLAT:??_C@_0BB@GPJIEAME@Sessions?5game?5Id?$AA@
	DD	FLAT:??_C@_09MHINMAAC@Host?8s?5ID?$AA@
	DD	FLAT:??_C@_0BK@FEKLGALN@The?5result?5of?5our?5request?$AA@
	DD	FLAT:??_C@_0N@NNEKHCMP@Type?5of?5game?$AA@
	DD	FLAT:??_C@_0M@OOLFKJGP@Team?5we?5got?$AA@
	DD	FLAT:??_C@_0M@PPMKLKPM@Slot?5we?5got?$AA@
	DD	FLAT:??_C@_0BC@LFCADIBH@Pilot?5slot?5we?5got?$AA@
	DD	FLAT:??_C@_0BD@JHOEAHAO@Pilot?5skill?5we?5got?$AA@
	DD	FLAT:??_C@_0BH@HNJFPFFE@Who?5the?5message?5is?5for?$AA@
	DD	FLAT:??_C@_0P@GFKODIOC@Message?5length?$AA@
	DD	FLAT:??_C@_07BEIHKDLJ@Message?$AA@
	DD	FLAT:??_C@_0M@EJHHBNCK@Effect?5type?$AA@
	DD	FLAT:??_C@_0BF@JBKEKJHH@Visual?5id?0?5if?5needed?$AA@
	DD	FLAT:??_C@_00CNPNBAHC@?$AA@
	DD	FLAT:??_C@_00CNPNBAHC@?$AA@
	DD	FLAT:??_C@_0BI@CKHLOOEJ@Location?5of?5this?5effect?$AA@
	DD	FLAT:??_C@_00CNPNBAHC@?$AA@
	DD	FLAT:??_C@_00CNPNBAHC@?$AA@
	DD	FLAT:??_C@_0CD@LCOKKEAE@Velocity?5of?5this?5effect?0?5if?5need@
	DD	FLAT:??_C@_00CNPNBAHC@?$AA@
	DD	FLAT:??_C@_00CNPNBAHC@?$AA@
	DD	FLAT:??_C@_00CNPNBAHC@?$AA@
	DD	FLAT:??_C@_0BA@JBABDILJ@The?5actual?5data?$AA@
	DD	FLAT:??_C@_00CNPNBAHC@?$AA@
	DD	FLAT:??_C@_00CNPNBAHC@?$AA@
	DD	FLAT:??_C@_00CNPNBAHC@?$AA@
	DD	FLAT:??_C@_00CNPNBAHC@?$AA@
	DD	FLAT:??_C@_00CNPNBAHC@?$AA@
	DD	FLAT:??_C@_0BA@JBABDILJ@The?5actual?5data?$AA@
	DD	FLAT:??_C@_00CNPNBAHC@?$AA@
	DD	FLAT:??_C@_00CNPNBAHC@?$AA@
	DD	FLAT:??_C@_00CNPNBAHC@?$AA@
	DD	FLAT:??_C@_00CNPNBAHC@?$AA@
	DD	FLAT:??_C@_00CNPNBAHC@?$AA@
	DD	FLAT:??_C@_0BA@JBABDILJ@The?5actual?5data?$AA@
	DD	FLAT:??_C@_0BH@GCJOMHAN@The?5requesting?5session?$AA@
	DD	FLAT:??_C@_0CB@JHPNOEAM@What?5we?5still?5need?5from?5the?5host@
	DD	FLAT:??_C@_0BH@CNOEMGJJ@Player?5sending?5message?$AA@
	DD	FLAT:??_C@_0N@DGMBFDBK@Message?5size?$AA@
	DD	FLAT:??_C@_0BJ@JMJDBPPO@Message?5buffer?5?$CI_TCHARs?$CJ?$AA@
	DD	FLAT:??_C@_0N@CBMGJAAB@Request?5Fuel?$AA@
	DD	FLAT:??_C@_0BD@BJGKDOIA@Ready?5To?5Take?5Fuel?$AA@
	DD	FLAT:??_C@_0P@FJHLPILA@Done?5Refueling?$AA@
	DD	FLAT:??_C@_0N@FIPLAEED@Pumping?5Fuel?$AA@
	DD	FLAT:??_C@_09KLAFDHCE@BreakAway?$AA@
	DD	FLAT:??_C@_0BF@JDCCEKOJ@Clear?5to?5Pre?9contact?$AA@
	DD	FLAT:??_C@_0BB@IOKDJNJI@Clear?5to?5Contact?$AA@
	DD	FLAT:??_C@_09HLNJEJKM@Stabalize?$AA@
	DD	FLAT:??_C@_0N@NNDOIPOM@Boom?5Command?$AA@
	DD	FLAT:??_C@_0L@CMGJAGDM@Disconnect?$AA@
	DD	FLAT:??_C@_0BF@GDHNHCBI@Tanker?5entering?5turn?$AA@
	DD	FLAT:??_C@_0BH@LODIBCLH@Position?5in?5wait?5queue?$AA@
	DD	FLAT:??_C@_0BA@GGIIBFLL@A?1C?5making?5call?$AA@
	DD	FLAT:??_C@_0N@BIKOHCEH@Message?5Type?$AA@
	DD	FLAT:??_C@_0N@JPMNOHKN@Radio?5Data?51?$AA@
	DD	FLAT:??_C@_0N@LEOALEGO@Radio?5Data?52?$AA@
	DD	FLAT:??_C@_0BH@PJFGFHON@Ejecting?5plane?8s?5VU_ID?$AA@
	DD	FLAT:??_C@_0BH@HDDENAAG@Ejecting?5pilot?8s?5VU_ID?$AA@
	DD	FLAT:??_C@_0BK@FLDCDAMA@Ejecting?5Camp?5entity?8s?5id?$AA@
	DD	FLAT:??_C@_0BJ@HDCLMHAH@Eject?5pilot?8s?5ID?0?5if?5any?$AA@
	DD	FLAT:??_C@_0CE@HHNOAADE@Ejecting?5entity?8s?5description?5in@
	DD	FLAT:??_C@_0BH@INIGBCLJ@Ejecting?5entity?8s?5side?$AA@
	DD	FLAT:??_C@_0BN@OFNODJAE@Ejector?8s?5strength?5?$CI0?9?$DO100?$CF?$CJ?$AA@
	DD	FLAT:??_C@_0BK@KHAJOJCO@Ejector?8s?5remainging?5fuel?$AA@
	DD	FLAT:??_C@_00CNPNBAHC@?$AA@
	DD	FLAT:??_C@_00CNPNBAHC@?$AA@
	DD	FLAT:??_C@_00CNPNBAHC@?$AA@
	DD	FLAT:??_C@_00CNPNBAHC@?$AA@
	DD	FLAT:??_C@_00CNPNBAHC@?$AA@
	DD	FLAT:??_C@_00CNPNBAHC@?$AA@
	DD	FLAT:??_C@_0O@GBFGHJFC@Type?5of?5track?$AA@
	DD	FLAT:??_C@_0BI@CIHCNDEM@VU?5Id?5of?5tracked?5object?$AA@
	DD	FLAT:??_C@_0BD@KEJFEGHE@Deaggregation?5data?$AA@
	DD	FLAT:??_C@_00CNPNBAHC@?$AA@
	DD	FLAT:??_C@_00CNPNBAHC@?$AA@
	DD	FLAT:??_C@_0M@OMPEOGHP@Status?5data?$AA@
	DD	FLAT:??_C@_0BH@BJICAMHI@Camp?5Data?5Message?5Type?$AA@
	DD	FLAT:??_C@_0BD@CALALIOO@Size?5of?5data?5block?$AA@
	DD	FLAT:??_C@_0BA@JBABDILJ@The?5actual?5data?$AA@
	DD	FLAT:??_C@_0L@NKNMMNBA@Message?5id?$AA@
	DD	FLAT:??_C@_0BD@CALALIOO@Size?5of?5data?5block?$AA@
	DD	FLAT:??_C@_0BA@JBABDILJ@The?5actual?5data?$AA@
	DD	FLAT:??_C@_0BC@PMBEANJA@Who?8s?5saying?5this?$AA@
	DD	FLAT:??_C@_0BI@FLIOFHJP@Who?5this?5message?5is?5for?$AA@
	DD	FLAT:??_C@_0BE@OHGOBELB@Voice?5ID?5of?5speaker?$AA@
	DD	FLAT:??_C@_0BF@KLGHEDF@?$CD?5of?5evals?5to?5follow?$AA@
	DD	FLAT:??_C@_0M@EBEEMOJK@Eval?5values?$AA@
	DD	FLAT:??_C@_0BL@FGNFHDNK@ID?5of?5message?5we?8re?5saying?$AA@
	DD	FLAT:??_C@_0CD@CGEABFFI@Time?5to?5start?5playing?5this?5messa@
	DD	FLAT:??_C@_0DJ@PPDLDCOI@Player?5Callsign?0?5since?5this?5migh@
	DD	FLAT:??_C@_0BI@PJMADOOL@In?5dogfght?$IF?5Player?5team?$AA@
	DD	FLAT:??_C@_0CA@MBBKDIJP@in?5Dogfight?$IFPlayer?5slot?5in?5team?$AA@
	DD	FLAT:??_C@_0BJ@FFFMLFJO@What?5the?5player?5is?5doing?$AA@
	DD	FLAT:??_C@_0BD@MHIOHHOK@Object?5Designating?$AA@
	DD	FLAT:??_C@_0BC@HJPMLLGO@Object?5Designated?$AA@
	DD	FLAT:??_C@_09FIEMHPNO@On?5or?5Off?$AA@
	DD	FLAT:??_C@_00CNPNBAHC@?$AA@
	DD	FLAT:??_C@_00CNPNBAHC@?$AA@
	DD	FLAT:??_C@_00CNPNBAHC@?$AA@
	DD	FLAT:??_C@_00CNPNBAHC@?$AA@
	DD	FLAT:??_C@_00CNPNBAHC@?$AA@
	DD	FLAT:??_C@_00CNPNBAHC@?$AA@
	DD	FLAT:??_C@_00CNPNBAHC@?$AA@
	DD	FLAT:??_C@_00CNPNBAHC@?$AA@
	DD	FLAT:??_C@_00CNPNBAHC@?$AA@
	DD	FLAT:??_C@_00CNPNBAHC@?$AA@
	DD	FLAT:??_C@_00CNPNBAHC@?$AA@
	DD	FLAT:??_C@_00CNPNBAHC@?$AA@
	DD	FLAT:??_C@_00CNPNBAHC@?$AA@
	DD	FLAT:??_C@_00CNPNBAHC@?$AA@
	DD	FLAT:??_C@_00CNPNBAHC@?$AA@
	DD	FLAT:??_C@_00CNPNBAHC@?$AA@
	DD	FLAT:??_C@_00CNPNBAHC@?$AA@
	DD	FLAT:??_C@_00CNPNBAHC@?$AA@
	DD	FLAT:??_C@_00CNPNBAHC@?$AA@
	DD	FLAT:??_C@_00CNPNBAHC@?$AA@
	DD	FLAT:??_C@_00CNPNBAHC@?$AA@
	DD	FLAT:??_C@_00CNPNBAHC@?$AA@
	DD	FLAT:??_C@_00CNPNBAHC@?$AA@
	DD	FLAT:??_C@_00CNPNBAHC@?$AA@
	DD	FLAT:??_C@_0BK@BIODBDOD@Id?5of?5ATC?5sending?5message?$AA@
	DD	FLAT:??_C@_0N@HEKANIJP@Command?5Type?$AA@
	DD	FLAT:??_C@_0BF@HIBNJNGI@time?5to?5land?1takeoff?$AA@
	DD	FLAT:??_C@_0O@PAELLJJJ@Runway?5to?5use?$AA@
	DD	FLAT:??_C@_0BA@ICEOLLIA@plane?5to?5follow?$AA@
	DD	FLAT:??_C@_00CNPNBAHC@?$AA@
	DD	FLAT:??_C@_00CNPNBAHC@?$AA@
	DD	FLAT:??_C@_00CNPNBAHC@?$AA@
	DD	FLAT:??_C@_00CNPNBAHC@?$AA@
	DD	FLAT:??_C@_00CNPNBAHC@?$AA@
	DD	FLAT:??_C@_0CG@MLGIBPFO@number?5of?5data?5link?5points?5being@
	DD	FLAT:??_C@_0CA@FKPLEMJL@classtable?5index?5for?5the?5target?$AA@
	DD	FLAT:??_C@_0CA@NAPEHNAE@classtable?5index?5for?5the?5threat?$AA@
	DD	FLAT:??_C@_0BI@CPOOKEID@type?5of?5data?5link?5point?$AA@
	DD	FLAT:??_C@_0BM@CFKLEGLL@x?5coord?5of?5data?5link?5points?$AA@
	DD	FLAT:??_C@_0BM@CEBOLLKG@y?5coord?5of?5data?5link?5points?$AA@
	DD	FLAT:??_C@_0BM@CGMALMIB@z?5coord?5of?5data?5link?5points?$AA@
	DD	FLAT:??_C@_0BA@FIJNGJHP@desired?5arrival?$AA@
	DD	FLAT:??_C@_0P@NOKBFOBN@Who?5needs?5data?$AA@
	DD	FLAT:??_C@_0BC@LHEOJCLJ@New?5position?5data?$AA@
	DD	FLAT:??_C@_00CNPNBAHC@?$AA@
	DD	FLAT:??_C@_00CNPNBAHC@?$AA@
	DD	FLAT:??_C@_00CNPNBAHC@?$AA@
	DD	FLAT:??_C@_0BL@EPPCCNOP@Whoever?5want?8s?5yer?5logbook?$AA@
	DD	FLAT:??_C@_0BB@FPMILJJM@The?5logbook?5data?$AA@
	DD	FLAT:??_C@_0CJ@MEIELMCL@Flags?5used?5to?5tell?5if?5there?5is?5m@
	DD	FLAT:??_C@_0BD@OLCJCJKM@Use?5this?5as?5a?5type?$AA@
	DD	FLAT:??_C@_0BM@KKOEMGOC@index?5into?5which?5seg?5we?5got?$AA@
	DD	FLAT:??_C@_0BD@BIOCJFFC@Size?5of?5this?5chunk?$AA@
	DD	FLAT:??_C@_0N@PPBGKOJL@overall?5size?$AA@
	DD	FLAT:??_C@_0P@GNNPFLE@the?5data?5block?$AA@
	DD	FLAT:??_C@_0BL@ENEIKCAH@Size?5of?5shit?5we?8re?5sending?$AA@
	DD	FLAT:??_C@_09CGKCDHIO@The?5shit?4?$AA@
	DD	FLAT:??_C@_0BL@ENEIKCAH@Size?5of?5shit?5we?8re?5sending?$AA@
	DD	FLAT:??_C@_09CGKCDHIO@The?5shit?4?$AA@
	DD	FLAT:??_C@_0BL@ENEIKCAH@Size?5of?5shit?5we?8re?5sending?$AA@
	DD	FLAT:??_C@_09CGKCDHIO@The?5shit?4?$AA@
	DD	FLAT:??_C@_00CNPNBAHC@?$AA@
	DD	FLAT:??_C@_00CNPNBAHC@?$AA@
	DD	FLAT:??_C@_0BA@HEIIIJGJ@Type?5of?5message?$AA@
	DD	FLAT:??_C@_0N@KJLNEDCN@The?5event?5ID?$AA@
	DD	FLAT:??_C@_0CC@KPGGOMCL@It?8s?5triggered?5status?5?$CIon?5or?5off@
	DD	FLAT:??_C@_0BH@PKKOMEEC@Session?5sending?5status?$AA@
	DD	FLAT:??_C@_0BM@EEDLGHFF@size?5of?5the?5following?5block?$AA@
	DD	FLAT:??_C@_0CA@CIDOLIME@The?5info?5requested?0?5in?5a?5stream?$AA@
	DD	FLAT:??_C@_0BI@POBJAIDG@Session?5Sending?5Message?$AA@
	DD	FLAT:??_C@_0BA@INPOOLDP@Type?5of?5Message?$AA@
	DD	FLAT:??_C@_0BI@DOFHNDNM@Value?5needed?5to?5be?5sent?$AA@
	DD	FLAT:??_C@_00CNPNBAHC@?$AA@
	DD	FLAT:??_C@_00CNPNBAHC@?$AA@
	DD	FLAT:??_C@_00CNPNBAHC@?$AA@
	DD	FLAT:??_C@_00CNPNBAHC@?$AA@
	DD	FLAT:??_C@_00CNPNBAHC@?$AA@
	DD	FLAT:??_C@_0BA@HEIIIJGJ@Type?5of?5message?$AA@
	DD	FLAT:??_C@_0BM@EEDLGHFF@size?5of?5the?5following?5block?$AA@
	DD	FLAT:??_C@_0P@MBNLFLBN@Damage?5Message?$AA@
	DD	FLAT:??_C@_0M@CIEAKKNH@Weapon?5Fire?$AA@
	DD	FLAT:??_C@_0BD@PEOHHNFO@Campaign?5Weap?5Fire?$AA@
	DD	FLAT:??_C@_0N@CCJJDLFE@Camp?5Message?$AA@
	DD	FLAT:??_C@_0BB@GKOBOHAI@Sim?5Camp?5Message?$AA@
	DD	FLAT:??_C@_0N@PNNNAONK@Unit?5Message?$AA@
	DD	FLAT:??_C@_0BC@NNHMFDMB@Objective?5Message?$AA@
	DD	FLAT:??_C@_0BA@FKGDAPKN@Unit?5Assignment?$AA@
	DD	FLAT:??_C@_0BD@CCBEGIFC@Send?5Campaign?5data?$AA@
	DD	FLAT:??_C@_0P@MPFEECCC@Timing?5Message?$AA@
	DD	FLAT:??_C@_0BF@NAFLIOCF@Camp?5Tasking?5Message?$AA@
	DD	FLAT:??_C@_0BE@OHDFCJFL@Air?5Tasking?5Message?$AA@
	DD	FLAT:??_C@_0BE@JPHNPFI@Gnd?5Tasking?5Message?$AA@
	DD	FLAT:??_C@_0BG@JIJHLJGP@Naval?5Tasking?5Message?$AA@
	DD	FLAT:??_C@_0N@DAKBDIDG@Team?5Message?$AA@
	DD	FLAT:??_C@_0L@LMDOMJOF@WingmanMsg?$AA@
	DD	FLAT:??_C@_0BD@MJGAOEEL@Air?5AI?5Mode?5Change?$AA@
	DD	FLAT:??_C@_0BA@IENJBNLO@Mission?5Request?$AA@
	DD	FLAT:??_C@_0P@LFIHOFHC@Divert?5Message?$AA@
	DD	FLAT:??_C@_0BE@KMCFGOID@Wind?5Change?5Message?$AA@
	DD	FLAT:??_C@_0BA@MNAIHDDL@Weather?5Message?$AA@
	DD	FLAT:??_C@_0BA@BCJKIBHH@Missile?5Endgame?$AA@
	DD	FLAT:??_C@_08IOIKBOFH@AWACSMsg?$AA@
	DD	FLAT:??_C@_0M@DFJEFAIA@FAC?5Message?$AA@
	DD	FLAT:??_C@_06BNNGJNLN@ATCMsg?$AA@
	DD	FLAT:??_C@_0O@FGBKNDIB@Death?5Message?$AA@
	DD	FLAT:??_C@_0BH@FADFIPJD@Campaign?5Event?5Message?$AA@
	DD	FLAT:??_C@_0BA@GABIJANA@Landing?5Message?$AA@
	DD	FLAT:??_C@_0BE@MDNDMEDD@Control?5Surface?5Msg?$AA@
	DD	FLAT:??_C@_0BA@FLKPIAHJ@Sim?5Data?5Toggle?$AA@
	DD	FLAT:??_C@_0BG@BDDEONPP@Request?5Dogfight?5Info?$AA@
	DD	FLAT:??_C@_0BD@DAMDMDPC@Send?5Dogfight?5Info?$AA@
	DD	FLAT:??_C@_0BG@ENPOMMPL@Request?5Aircraft?5Slot?$AA@
	DD	FLAT:??_C@_0BD@KDGNJKCO@Send?5aircraft?5Slot?$AA@
	DD	FLAT:??_C@_0BG@GPBFCFCA@Graphics?5Text?5Display?$AA@
	DD	FLAT:??_C@_0BA@KOGPCEOG@Add?5SFX?5Message?$AA@
	DD	FLAT:??_C@_0BF@IMCCMEPD@Send?5Persistant?5List?$AA@
	DD	FLAT:??_C@_0BE@DCKMFIKO@Send?5Objective?5Data?$AA@
	DD	FLAT:??_C@_0P@PMCPDEHI@Send?5Unit?5Data?$AA@
	DD	FLAT:??_C@_0BG@MACCGJFL@Request?5Campaign?5Data?$AA@
	DD	FLAT:??_C@_0BC@DBKINDFL@Send?5Chat?5Message?$AA@
	DD	FLAT:??_C@_09GFBMAIAF@TankerMsg?$AA@
	DD	FLAT:??_C@_0O@FFDMGMJD@Eject?5Message?$AA@
	DD	FLAT:??_C@_0BE@CAPFILEK@Radar?5Track?5Message?$AA@
	DD	FLAT:??_C@_0BC@HFCJPILO@Camp?5Data?5Message?$AA@
	DD	FLAT:??_C@_0BD@PLGEHLGG@Voice?5Data?5Message?$AA@
	DD	FLAT:??_C@_0BG@BELLCADA@Radio?5Chatter?5Message?$AA@
	DD	FLAT:??_C@_0BG@KOLKHIAI@Player?5Enter?1Exit?5Sim?$AA@
	DD	FLAT:??_C@_0BE@MCNJFIPP@Laser?5Designate?5Msg?$AA@
	DD	FLAT:??_C@_0M@NPJBNMDM@ATC?5Command?$AA@
	DD	FLAT:??_C@_0BC@FFLGCPCI@Data?5Link?5Message?$AA@
	DD	FLAT:??_C@_0P@JMMFOFOD@Request?5Object?$AA@
	DD	FLAT:??_C@_0BB@BPLCCPEI@Regeneration?5Msg?$AA@
	DD	FLAT:??_C@_0BA@ENFJOIP@Request?5Logbook?$AA@
	DD	FLAT:??_C@_0N@PPGNELAI@Send?5Logbook?$AA@
	DD	FLAT:??_C@_0L@NCCKMNJA@Send?5Image?$AA@
	DD	FLAT:??_C@_0BE@PLBAJHIC@Flight?5Plan?5Message?$AA@
	DD	FLAT:??_C@_0P@GCKDGEH@Sim?5Dirty?5Data?$AA@
	DD	FLAT:??_C@_0BA@LEFCGFAC@Camp?5Dirty?5Data?$AA@
	DD	FLAT:??_C@_0BA@OHHEADDM@Camp?5Event?5Data?$AA@
	DD	FLAT:??_C@_0N@INFFCJFP@Send?5VC?5data?$AA@
	DD	FLAT:??_C@_0BA@HFLMNOEN@Send?5UI?5Message?$AA@
	DD	FLAT:??_C@_0BC@EABNPDHI@Send?5Eval?5Message?$AA@
_DATA	ENDS
END
