; Listing generated by Microsoft (R) Optimizing Compiler Version 17.00.51106.1 

	TITLE	C:\Users\Zhitao Li\Documents\Visual Studio 2012\Projects\Freefalcon\FALCLIB\MsgSrc\RequestSimMoverPosition.cpp
	.686P
	.XMM
	include listing.inc
	.model	flat

INCLUDELIB LIBCMT
INCLUDELIB OLDNAMES

PUBLIC	?is_signed@?$numeric_limits@_W@std@@2_NB	; std::numeric_limits<wchar_t>::is_signed
PUBLIC	?digits@?$numeric_limits@_W@std@@2HB		; std::numeric_limits<wchar_t>::digits
PUBLIC	?digits10@?$numeric_limits@_W@std@@2HB		; std::numeric_limits<wchar_t>::digits10
PUBLIC	?value@?$integral_constant@_N$00@std@@2_NB	; std::integral_constant<bool,1>::value
PUBLIC	?is_modulo@?$numeric_limits@_N@std@@2_NB	; std::numeric_limits<bool>::is_modulo
PUBLIC	?is_signed@?$numeric_limits@_N@std@@2_NB	; std::numeric_limits<bool>::is_signed
PUBLIC	?digits@?$numeric_limits@_N@std@@2HB		; std::numeric_limits<bool>::digits
PUBLIC	?digits10@?$numeric_limits@_N@std@@2HB		; std::numeric_limits<bool>::digits10
PUBLIC	?is_signed@?$numeric_limits@C@std@@2_NB		; std::numeric_limits<signed char>::is_signed
PUBLIC	?digits@?$numeric_limits@C@std@@2HB		; std::numeric_limits<signed char>::digits
PUBLIC	?digits10@?$numeric_limits@C@std@@2HB		; std::numeric_limits<signed char>::digits10
PUBLIC	?is_signed@?$numeric_limits@E@std@@2_NB		; std::numeric_limits<unsigned char>::is_signed
PUBLIC	?digits@?$numeric_limits@E@std@@2HB		; std::numeric_limits<unsigned char>::digits
PUBLIC	?digits10@?$numeric_limits@E@std@@2HB		; std::numeric_limits<unsigned char>::digits10
PUBLIC	?is_signed@?$numeric_limits@F@std@@2_NB		; std::numeric_limits<short>::is_signed
PUBLIC	?digits@?$numeric_limits@F@std@@2HB		; std::numeric_limits<short>::digits
PUBLIC	?digits10@?$numeric_limits@F@std@@2HB		; std::numeric_limits<short>::digits10
PUBLIC	?is_signed@?$numeric_limits@G@std@@2_NB		; std::numeric_limits<unsigned short>::is_signed
PUBLIC	?digits@?$numeric_limits@G@std@@2HB		; std::numeric_limits<unsigned short>::digits
PUBLIC	?digits10@?$numeric_limits@G@std@@2HB		; std::numeric_limits<unsigned short>::digits10
PUBLIC	?is_signed@?$numeric_limits@H@std@@2_NB		; std::numeric_limits<int>::is_signed
PUBLIC	?value@?$_Sizeof@HU_Nil@std@@U12@U12@U12@U12@U12@U12@@std@@2IB ; std::_Sizeof<int,std::_Nil,std::_Nil,std::_Nil,std::_Nil,std::_Nil,std::_Nil,std::_Nil>::value
PUBLIC	?digits@?$numeric_limits@H@std@@2HB		; std::numeric_limits<int>::digits
PUBLIC	?digits10@?$numeric_limits@H@std@@2HB		; std::numeric_limits<int>::digits10
PUBLIC	?is_signed@?$numeric_limits@I@std@@2_NB		; std::numeric_limits<unsigned int>::is_signed
PUBLIC	?digits@?$numeric_limits@I@std@@2HB		; std::numeric_limits<unsigned int>::digits
PUBLIC	?digits10@?$numeric_limits@I@std@@2HB		; std::numeric_limits<unsigned int>::digits10
PUBLIC	?is_signed@?$numeric_limits@J@std@@2_NB		; std::numeric_limits<long>::is_signed
PUBLIC	?digits@?$numeric_limits@J@std@@2HB		; std::numeric_limits<long>::digits
PUBLIC	?digits10@?$numeric_limits@J@std@@2HB		; std::numeric_limits<long>::digits10
PUBLIC	?is_signed@?$numeric_limits@K@std@@2_NB		; std::numeric_limits<unsigned long>::is_signed
PUBLIC	?digits@?$numeric_limits@K@std@@2HB		; std::numeric_limits<unsigned long>::digits
PUBLIC	?digits10@?$numeric_limits@K@std@@2HB		; std::numeric_limits<unsigned long>::digits10
PUBLIC	?is_signed@?$numeric_limits@_J@std@@2_NB	; std::numeric_limits<__int64>::is_signed
PUBLIC	?digits@?$numeric_limits@_J@std@@2HB		; std::numeric_limits<__int64>::digits
PUBLIC	?digits10@?$numeric_limits@_J@std@@2HB		; std::numeric_limits<__int64>::digits10
PUBLIC	?is_signed@?$numeric_limits@_K@std@@2_NB	; std::numeric_limits<unsigned __int64>::is_signed
PUBLIC	?digits@?$numeric_limits@_K@std@@2HB		; std::numeric_limits<unsigned __int64>::digits
PUBLIC	?digits10@?$numeric_limits@_K@std@@2HB		; std::numeric_limits<unsigned __int64>::digits10
PUBLIC	?digits@?$numeric_limits@M@std@@2HB		; std::numeric_limits<float>::digits
PUBLIC	?digits10@?$numeric_limits@M@std@@2HB		; std::numeric_limits<float>::digits10
PUBLIC	?max_digits10@?$numeric_limits@M@std@@2HB	; std::numeric_limits<float>::max_digits10
PUBLIC	?max_exponent@?$numeric_limits@M@std@@2HB	; std::numeric_limits<float>::max_exponent
PUBLIC	?max_exponent10@?$numeric_limits@M@std@@2HB	; std::numeric_limits<float>::max_exponent10
PUBLIC	?min_exponent@?$numeric_limits@M@std@@2HB	; std::numeric_limits<float>::min_exponent
PUBLIC	?min_exponent10@?$numeric_limits@M@std@@2HB	; std::numeric_limits<float>::min_exponent10
PUBLIC	?value@?$integral_constant@I$0A@@std@@2IB	; std::integral_constant<unsigned int,0>::value
PUBLIC	?digits@?$numeric_limits@N@std@@2HB		; std::numeric_limits<double>::digits
PUBLIC	?digits10@?$numeric_limits@N@std@@2HB		; std::numeric_limits<double>::digits10
PUBLIC	?max_digits10@?$numeric_limits@N@std@@2HB	; std::numeric_limits<double>::max_digits10
PUBLIC	?max_exponent@?$numeric_limits@N@std@@2HB	; std::numeric_limits<double>::max_exponent
PUBLIC	?max_exponent10@?$numeric_limits@N@std@@2HB	; std::numeric_limits<double>::max_exponent10
PUBLIC	?min_exponent@?$numeric_limits@N@std@@2HB	; std::numeric_limits<double>::min_exponent
PUBLIC	?min_exponent10@?$numeric_limits@N@std@@2HB	; std::numeric_limits<double>::min_exponent10
PUBLIC	?digits@?$numeric_limits@O@std@@2HB		; std::numeric_limits<long double>::digits
PUBLIC	?digits10@?$numeric_limits@O@std@@2HB		; std::numeric_limits<long double>::digits10
PUBLIC	?max_digits10@?$numeric_limits@O@std@@2HB	; std::numeric_limits<long double>::max_digits10
PUBLIC	?max_exponent@?$numeric_limits@O@std@@2HB	; std::numeric_limits<long double>::max_exponent
PUBLIC	?max_exponent10@?$numeric_limits@O@std@@2HB	; std::numeric_limits<long double>::max_exponent10
PUBLIC	?min_exponent@?$numeric_limits@O@std@@2HB	; std::numeric_limits<long double>::min_exponent
PUBLIC	?min_exponent10@?$numeric_limits@O@std@@2HB	; std::numeric_limits<long double>::min_exponent10
PUBLIC	?value@?$_Sizeof@U_Nil@std@@U12@U12@U12@U12@U12@U12@U12@@std@@2IB ; std::_Sizeof<std::_Nil,std::_Nil,std::_Nil,std::_Nil,std::_Nil,std::_Nil,std::_Nil,std::_Nil>::value
PUBLIC	?has_denorm@_Num_base@std@@2W4float_denorm_style@2@B ; std::_Num_base::has_denorm
PUBLIC	?has_denorm_loss@_Num_base@std@@2_NB		; std::_Num_base::has_denorm_loss
PUBLIC	?has_infinity@_Num_base@std@@2_NB		; std::_Num_base::has_infinity
PUBLIC	?has_quiet_NaN@_Num_base@std@@2_NB		; std::_Num_base::has_quiet_NaN
PUBLIC	?has_signaling_NaN@_Num_base@std@@2_NB		; std::_Num_base::has_signaling_NaN
PUBLIC	?is_bounded@_Num_base@std@@2_NB			; std::_Num_base::is_bounded
PUBLIC	?is_exact@_Num_base@std@@2_NB			; std::_Num_base::is_exact
PUBLIC	?is_iec559@_Num_base@std@@2_NB			; std::_Num_base::is_iec559
PUBLIC	?is_integer@_Num_base@std@@2_NB			; std::_Num_base::is_integer
PUBLIC	?is_modulo@_Num_base@std@@2_NB			; std::_Num_base::is_modulo
PUBLIC	?is_signed@_Num_base@std@@2_NB			; std::_Num_base::is_signed
PUBLIC	?is_specialized@_Num_base@std@@2_NB		; std::_Num_base::is_specialized
PUBLIC	?tinyness_before@_Num_base@std@@2_NB		; std::_Num_base::tinyness_before
PUBLIC	?traps@_Num_base@std@@2_NB			; std::_Num_base::traps
PUBLIC	?round_style@_Num_base@std@@2W4float_round_style@2@B ; std::_Num_base::round_style
PUBLIC	?digits@_Num_base@std@@2HB			; std::_Num_base::digits
PUBLIC	?digits10@_Num_base@std@@2HB			; std::_Num_base::digits10
PUBLIC	?max_digits10@_Num_base@std@@2HB		; std::_Num_base::max_digits10
PUBLIC	?max_exponent@_Num_base@std@@2HB		; std::_Num_base::max_exponent
PUBLIC	?max_exponent10@_Num_base@std@@2HB		; std::_Num_base::max_exponent10
PUBLIC	?min_exponent@_Num_base@std@@2HB		; std::_Num_base::min_exponent
PUBLIC	?min_exponent10@_Num_base@std@@2HB		; std::_Num_base::min_exponent10
PUBLIC	?radix@_Num_base@std@@2HB			; std::_Num_base::radix
PUBLIC	?is_bounded@_Num_int_base@std@@2_NB		; std::_Num_int_base::is_bounded
PUBLIC	?is_exact@_Num_int_base@std@@2_NB		; std::_Num_int_base::is_exact
PUBLIC	?is_integer@_Num_int_base@std@@2_NB		; std::_Num_int_base::is_integer
PUBLIC	?is_modulo@_Num_int_base@std@@2_NB		; std::_Num_int_base::is_modulo
PUBLIC	?is_specialized@_Num_int_base@std@@2_NB		; std::_Num_int_base::is_specialized
PUBLIC	?radix@_Num_int_base@std@@2HB			; std::_Num_int_base::radix
PUBLIC	?has_denorm@_Num_float_base@std@@2W4float_denorm_style@2@B ; std::_Num_float_base::has_denorm
PUBLIC	?has_denorm_loss@_Num_float_base@std@@2_NB	; std::_Num_float_base::has_denorm_loss
PUBLIC	?SIMDIRTYDATA_INTERVAL@FalconEntity@@2KB	; FalconEntity::SIMDIRTYDATA_INTERVAL
PUBLIC	?CMPDIRTYDATA_INTERVAL@FalconEntity@@2KB	; FalconEntity::CMPDIRTYDATA_INTERVAL
PUBLIC	?has_infinity@_Num_float_base@std@@2_NB		; std::_Num_float_base::has_infinity
PUBLIC	?has_quiet_NaN@_Num_float_base@std@@2_NB	; std::_Num_float_base::has_quiet_NaN
PUBLIC	?has_signaling_NaN@_Num_float_base@std@@2_NB	; std::_Num_float_base::has_signaling_NaN
PUBLIC	?is_bounded@_Num_float_base@std@@2_NB		; std::_Num_float_base::is_bounded
PUBLIC	?is_exact@_Num_float_base@std@@2_NB		; std::_Num_float_base::is_exact
PUBLIC	?is_iec559@_Num_float_base@std@@2_NB		; std::_Num_float_base::is_iec559
PUBLIC	?is_integer@_Num_float_base@std@@2_NB		; std::_Num_float_base::is_integer
PUBLIC	?is_modulo@_Num_float_base@std@@2_NB		; std::_Num_float_base::is_modulo
PUBLIC	?is_signed@_Num_float_base@std@@2_NB		; std::_Num_float_base::is_signed
PUBLIC	?is_specialized@_Num_float_base@std@@2_NB	; std::_Num_float_base::is_specialized
PUBLIC	?tinyness_before@_Num_float_base@std@@2_NB	; std::_Num_float_base::tinyness_before
PUBLIC	?traps@_Num_float_base@std@@2_NB		; std::_Num_float_base::traps
PUBLIC	?round_style@_Num_float_base@std@@2W4float_round_style@2@B ; std::_Num_float_base::round_style
PUBLIC	?radix@_Num_float_base@std@@2HB			; std::_Num_float_base::radix
PUBLIC	?is_signed@?$numeric_limits@D@std@@2_NB		; std::numeric_limits<char>::is_signed
PUBLIC	?digits@?$numeric_limits@D@std@@2HB		; std::numeric_limits<char>::digits
PUBLIC	?digits10@?$numeric_limits@D@std@@2HB		; std::numeric_limits<char>::digits10
PUBLIC	?value@?$integral_constant@_N$0A@@std@@2_NB	; std::integral_constant<bool,0>::value
;	COMDAT ?value@?$integral_constant@_N$0A@@std@@2_NB
CONST	SEGMENT
?value@?$integral_constant@_N$0A@@std@@2_NB DB 00H	; std::integral_constant<bool,0>::value
CONST	ENDS
;	COMDAT ?digits10@?$numeric_limits@D@std@@2HB
CONST	SEGMENT
?digits10@?$numeric_limits@D@std@@2HB DD 02H		; std::numeric_limits<char>::digits10
CONST	ENDS
;	COMDAT ?digits@?$numeric_limits@D@std@@2HB
CONST	SEGMENT
?digits@?$numeric_limits@D@std@@2HB DD 07H		; std::numeric_limits<char>::digits
CONST	ENDS
;	COMDAT ?is_signed@?$numeric_limits@D@std@@2_NB
CONST	SEGMENT
?is_signed@?$numeric_limits@D@std@@2_NB DB 01H		; std::numeric_limits<char>::is_signed
CONST	ENDS
;	COMDAT ?radix@_Num_float_base@std@@2HB
CONST	SEGMENT
?radix@_Num_float_base@std@@2HB DD 02H			; std::_Num_float_base::radix
CONST	ENDS
;	COMDAT ?round_style@_Num_float_base@std@@2W4float_round_style@2@B
CONST	SEGMENT
?round_style@_Num_float_base@std@@2W4float_round_style@2@B DD 01H ; std::_Num_float_base::round_style
CONST	ENDS
;	COMDAT ?traps@_Num_float_base@std@@2_NB
CONST	SEGMENT
?traps@_Num_float_base@std@@2_NB DB 00H			; std::_Num_float_base::traps
CONST	ENDS
;	COMDAT ?tinyness_before@_Num_float_base@std@@2_NB
CONST	SEGMENT
?tinyness_before@_Num_float_base@std@@2_NB DB 01H	; std::_Num_float_base::tinyness_before
CONST	ENDS
;	COMDAT ?is_specialized@_Num_float_base@std@@2_NB
CONST	SEGMENT
?is_specialized@_Num_float_base@std@@2_NB DB 01H	; std::_Num_float_base::is_specialized
CONST	ENDS
;	COMDAT ?is_signed@_Num_float_base@std@@2_NB
CONST	SEGMENT
?is_signed@_Num_float_base@std@@2_NB DB 01H		; std::_Num_float_base::is_signed
CONST	ENDS
;	COMDAT ?is_modulo@_Num_float_base@std@@2_NB
CONST	SEGMENT
?is_modulo@_Num_float_base@std@@2_NB DB 00H		; std::_Num_float_base::is_modulo
CONST	ENDS
;	COMDAT ?is_integer@_Num_float_base@std@@2_NB
CONST	SEGMENT
?is_integer@_Num_float_base@std@@2_NB DB 00H		; std::_Num_float_base::is_integer
CONST	ENDS
;	COMDAT ?is_iec559@_Num_float_base@std@@2_NB
CONST	SEGMENT
?is_iec559@_Num_float_base@std@@2_NB DB 01H		; std::_Num_float_base::is_iec559
CONST	ENDS
;	COMDAT ?is_exact@_Num_float_base@std@@2_NB
CONST	SEGMENT
?is_exact@_Num_float_base@std@@2_NB DB 00H		; std::_Num_float_base::is_exact
CONST	ENDS
;	COMDAT ?is_bounded@_Num_float_base@std@@2_NB
CONST	SEGMENT
?is_bounded@_Num_float_base@std@@2_NB DB 01H		; std::_Num_float_base::is_bounded
CONST	ENDS
;	COMDAT ?has_signaling_NaN@_Num_float_base@std@@2_NB
CONST	SEGMENT
?has_signaling_NaN@_Num_float_base@std@@2_NB DB 01H	; std::_Num_float_base::has_signaling_NaN
CONST	ENDS
;	COMDAT ?has_quiet_NaN@_Num_float_base@std@@2_NB
CONST	SEGMENT
?has_quiet_NaN@_Num_float_base@std@@2_NB DB 01H		; std::_Num_float_base::has_quiet_NaN
CONST	ENDS
;	COMDAT ?has_infinity@_Num_float_base@std@@2_NB
CONST	SEGMENT
?has_infinity@_Num_float_base@std@@2_NB DB 01H		; std::_Num_float_base::has_infinity
CONST	ENDS
;	COMDAT ?CMPDIRTYDATA_INTERVAL@FalconEntity@@2KB
CONST	SEGMENT
?CMPDIRTYDATA_INTERVAL@FalconEntity@@2KB DD 0c8H	; FalconEntity::CMPDIRTYDATA_INTERVAL
CONST	ENDS
;	COMDAT ?SIMDIRTYDATA_INTERVAL@FalconEntity@@2KB
CONST	SEGMENT
?SIMDIRTYDATA_INTERVAL@FalconEntity@@2KB DD 0c8H	; FalconEntity::SIMDIRTYDATA_INTERVAL
CONST	ENDS
;	COMDAT ?has_denorm_loss@_Num_float_base@std@@2_NB
CONST	SEGMENT
?has_denorm_loss@_Num_float_base@std@@2_NB DB 01H	; std::_Num_float_base::has_denorm_loss
CONST	ENDS
;	COMDAT ?has_denorm@_Num_float_base@std@@2W4float_denorm_style@2@B
CONST	SEGMENT
?has_denorm@_Num_float_base@std@@2W4float_denorm_style@2@B DD 01H ; std::_Num_float_base::has_denorm
CONST	ENDS
;	COMDAT ?radix@_Num_int_base@std@@2HB
CONST	SEGMENT
?radix@_Num_int_base@std@@2HB DD 02H			; std::_Num_int_base::radix
CONST	ENDS
;	COMDAT ?is_specialized@_Num_int_base@std@@2_NB
CONST	SEGMENT
?is_specialized@_Num_int_base@std@@2_NB DB 01H		; std::_Num_int_base::is_specialized
CONST	ENDS
;	COMDAT ?is_modulo@_Num_int_base@std@@2_NB
CONST	SEGMENT
?is_modulo@_Num_int_base@std@@2_NB DB 01H		; std::_Num_int_base::is_modulo
CONST	ENDS
;	COMDAT ?is_integer@_Num_int_base@std@@2_NB
CONST	SEGMENT
?is_integer@_Num_int_base@std@@2_NB DB 01H		; std::_Num_int_base::is_integer
CONST	ENDS
CONST	SEGMENT
_L_2	DD	03f317218r			; 0.693147
CONST	ENDS
;	COMDAT ?is_exact@_Num_int_base@std@@2_NB
CONST	SEGMENT
?is_exact@_Num_int_base@std@@2_NB DB 01H		; std::_Num_int_base::is_exact
CONST	ENDS
;	COMDAT ?is_bounded@_Num_int_base@std@@2_NB
CONST	SEGMENT
?is_bounded@_Num_int_base@std@@2_NB DB 01H		; std::_Num_int_base::is_bounded
CONST	ENDS
;	COMDAT ?radix@_Num_base@std@@2HB
CONST	SEGMENT
?radix@_Num_base@std@@2HB DD 00H			; std::_Num_base::radix
CONST	ENDS
;	COMDAT ?min_exponent10@_Num_base@std@@2HB
CONST	SEGMENT
?min_exponent10@_Num_base@std@@2HB DD 00H		; std::_Num_base::min_exponent10
CONST	ENDS
;	COMDAT ?min_exponent@_Num_base@std@@2HB
CONST	SEGMENT
?min_exponent@_Num_base@std@@2HB DD 00H			; std::_Num_base::min_exponent
CONST	ENDS
;	COMDAT ?max_exponent10@_Num_base@std@@2HB
CONST	SEGMENT
?max_exponent10@_Num_base@std@@2HB DD 00H		; std::_Num_base::max_exponent10
CONST	ENDS
;	COMDAT ?max_exponent@_Num_base@std@@2HB
CONST	SEGMENT
?max_exponent@_Num_base@std@@2HB DD 00H			; std::_Num_base::max_exponent
CONST	ENDS
;	COMDAT ?max_digits10@_Num_base@std@@2HB
CONST	SEGMENT
?max_digits10@_Num_base@std@@2HB DD 00H			; std::_Num_base::max_digits10
CONST	ENDS
;	COMDAT ?digits10@_Num_base@std@@2HB
CONST	SEGMENT
?digits10@_Num_base@std@@2HB DD 00H			; std::_Num_base::digits10
CONST	ENDS
;	COMDAT ?digits@_Num_base@std@@2HB
CONST	SEGMENT
?digits@_Num_base@std@@2HB DD 00H			; std::_Num_base::digits
CONST	ENDS
;	COMDAT ?round_style@_Num_base@std@@2W4float_round_style@2@B
CONST	SEGMENT
?round_style@_Num_base@std@@2W4float_round_style@2@B DD 00H ; std::_Num_base::round_style
CONST	ENDS
;	COMDAT ?traps@_Num_base@std@@2_NB
CONST	SEGMENT
?traps@_Num_base@std@@2_NB DB 00H			; std::_Num_base::traps
CONST	ENDS
;	COMDAT ?tinyness_before@_Num_base@std@@2_NB
CONST	SEGMENT
?tinyness_before@_Num_base@std@@2_NB DB 00H		; std::_Num_base::tinyness_before
CONST	ENDS
;	COMDAT ?is_specialized@_Num_base@std@@2_NB
CONST	SEGMENT
?is_specialized@_Num_base@std@@2_NB DB 00H		; std::_Num_base::is_specialized
CONST	ENDS
;	COMDAT ?is_signed@_Num_base@std@@2_NB
CONST	SEGMENT
?is_signed@_Num_base@std@@2_NB DB 00H			; std::_Num_base::is_signed
CONST	ENDS
;	COMDAT ?is_modulo@_Num_base@std@@2_NB
CONST	SEGMENT
?is_modulo@_Num_base@std@@2_NB DB 00H			; std::_Num_base::is_modulo
CONST	ENDS
;	COMDAT ?is_integer@_Num_base@std@@2_NB
CONST	SEGMENT
?is_integer@_Num_base@std@@2_NB DB 00H			; std::_Num_base::is_integer
CONST	ENDS
;	COMDAT ?is_iec559@_Num_base@std@@2_NB
CONST	SEGMENT
?is_iec559@_Num_base@std@@2_NB DB 00H			; std::_Num_base::is_iec559
CONST	ENDS
;	COMDAT ?is_exact@_Num_base@std@@2_NB
CONST	SEGMENT
?is_exact@_Num_base@std@@2_NB DB 00H			; std::_Num_base::is_exact
CONST	ENDS
;	COMDAT ?is_bounded@_Num_base@std@@2_NB
CONST	SEGMENT
?is_bounded@_Num_base@std@@2_NB DB 00H			; std::_Num_base::is_bounded
CONST	ENDS
;	COMDAT ?has_signaling_NaN@_Num_base@std@@2_NB
CONST	SEGMENT
?has_signaling_NaN@_Num_base@std@@2_NB DB 00H		; std::_Num_base::has_signaling_NaN
CONST	ENDS
;	COMDAT ?has_quiet_NaN@_Num_base@std@@2_NB
CONST	SEGMENT
?has_quiet_NaN@_Num_base@std@@2_NB DB 00H		; std::_Num_base::has_quiet_NaN
CONST	ENDS
;	COMDAT ?has_infinity@_Num_base@std@@2_NB
CONST	SEGMENT
?has_infinity@_Num_base@std@@2_NB DB 00H		; std::_Num_base::has_infinity
CONST	ENDS
;	COMDAT ?has_denorm_loss@_Num_base@std@@2_NB
CONST	SEGMENT
?has_denorm_loss@_Num_base@std@@2_NB DB 00H		; std::_Num_base::has_denorm_loss
CONST	ENDS
;	COMDAT ?has_denorm@_Num_base@std@@2W4float_denorm_style@2@B
CONST	SEGMENT
?has_denorm@_Num_base@std@@2W4float_denorm_style@2@B DD 00H ; std::_Num_base::has_denorm
CONST	ENDS
;	COMDAT ?value@?$_Sizeof@U_Nil@std@@U12@U12@U12@U12@U12@U12@U12@@std@@2IB
CONST	SEGMENT
?value@?$_Sizeof@U_Nil@std@@U12@U12@U12@U12@U12@U12@U12@@std@@2IB DD 00H ; std::_Sizeof<std::_Nil,std::_Nil,std::_Nil,std::_Nil,std::_Nil,std::_Nil,std::_Nil,std::_Nil>::value
CONST	ENDS
;	COMDAT ?min_exponent10@?$numeric_limits@O@std@@2HB
CONST	SEGMENT
?min_exponent10@?$numeric_limits@O@std@@2HB DD 0fffffecdH ; std::numeric_limits<long double>::min_exponent10
CONST	ENDS
;	COMDAT ?min_exponent@?$numeric_limits@O@std@@2HB
CONST	SEGMENT
?min_exponent@?$numeric_limits@O@std@@2HB DD 0fffffc03H	; std::numeric_limits<long double>::min_exponent
CONST	ENDS
;	COMDAT ?max_exponent10@?$numeric_limits@O@std@@2HB
CONST	SEGMENT
?max_exponent10@?$numeric_limits@O@std@@2HB DD 0134H	; std::numeric_limits<long double>::max_exponent10
CONST	ENDS
;	COMDAT ?max_exponent@?$numeric_limits@O@std@@2HB
CONST	SEGMENT
?max_exponent@?$numeric_limits@O@std@@2HB DD 0400H	; std::numeric_limits<long double>::max_exponent
CONST	ENDS
;	COMDAT ?max_digits10@?$numeric_limits@O@std@@2HB
CONST	SEGMENT
?max_digits10@?$numeric_limits@O@std@@2HB DD 011H	; std::numeric_limits<long double>::max_digits10
CONST	ENDS
;	COMDAT ?digits10@?$numeric_limits@O@std@@2HB
CONST	SEGMENT
?digits10@?$numeric_limits@O@std@@2HB DD 0fH		; std::numeric_limits<long double>::digits10
CONST	ENDS
;	COMDAT ?digits@?$numeric_limits@O@std@@2HB
CONST	SEGMENT
?digits@?$numeric_limits@O@std@@2HB DD 035H		; std::numeric_limits<long double>::digits
CONST	ENDS
;	COMDAT ?min_exponent10@?$numeric_limits@N@std@@2HB
CONST	SEGMENT
?min_exponent10@?$numeric_limits@N@std@@2HB DD 0fffffecdH ; std::numeric_limits<double>::min_exponent10
CONST	ENDS
;	COMDAT ?min_exponent@?$numeric_limits@N@std@@2HB
CONST	SEGMENT
?min_exponent@?$numeric_limits@N@std@@2HB DD 0fffffc03H	; std::numeric_limits<double>::min_exponent
CONST	ENDS
;	COMDAT ?max_exponent10@?$numeric_limits@N@std@@2HB
CONST	SEGMENT
?max_exponent10@?$numeric_limits@N@std@@2HB DD 0134H	; std::numeric_limits<double>::max_exponent10
CONST	ENDS
;	COMDAT ?max_exponent@?$numeric_limits@N@std@@2HB
CONST	SEGMENT
?max_exponent@?$numeric_limits@N@std@@2HB DD 0400H	; std::numeric_limits<double>::max_exponent
CONST	ENDS
;	COMDAT ?max_digits10@?$numeric_limits@N@std@@2HB
CONST	SEGMENT
?max_digits10@?$numeric_limits@N@std@@2HB DD 011H	; std::numeric_limits<double>::max_digits10
CONST	ENDS
;	COMDAT ?digits10@?$numeric_limits@N@std@@2HB
CONST	SEGMENT
?digits10@?$numeric_limits@N@std@@2HB DD 0fH		; std::numeric_limits<double>::digits10
CONST	ENDS
;	COMDAT ?digits@?$numeric_limits@N@std@@2HB
CONST	SEGMENT
?digits@?$numeric_limits@N@std@@2HB DD 035H		; std::numeric_limits<double>::digits
CONST	ENDS
;	COMDAT ?value@?$integral_constant@I$0A@@std@@2IB
CONST	SEGMENT
?value@?$integral_constant@I$0A@@std@@2IB DD 00H	; std::integral_constant<unsigned int,0>::value
CONST	ENDS
;	COMDAT ?min_exponent10@?$numeric_limits@M@std@@2HB
CONST	SEGMENT
?min_exponent10@?$numeric_limits@M@std@@2HB DD 0ffffffdbH ; std::numeric_limits<float>::min_exponent10
CONST	ENDS
;	COMDAT ?min_exponent@?$numeric_limits@M@std@@2HB
CONST	SEGMENT
?min_exponent@?$numeric_limits@M@std@@2HB DD 0ffffff83H	; std::numeric_limits<float>::min_exponent
CONST	ENDS
;	COMDAT ?max_exponent10@?$numeric_limits@M@std@@2HB
CONST	SEGMENT
?max_exponent10@?$numeric_limits@M@std@@2HB DD 026H	; std::numeric_limits<float>::max_exponent10
CONST	ENDS
;	COMDAT ?max_exponent@?$numeric_limits@M@std@@2HB
CONST	SEGMENT
?max_exponent@?$numeric_limits@M@std@@2HB DD 080H	; std::numeric_limits<float>::max_exponent
CONST	ENDS
;	COMDAT ?max_digits10@?$numeric_limits@M@std@@2HB
CONST	SEGMENT
?max_digits10@?$numeric_limits@M@std@@2HB DD 09H	; std::numeric_limits<float>::max_digits10
CONST	ENDS
;	COMDAT ?digits10@?$numeric_limits@M@std@@2HB
CONST	SEGMENT
?digits10@?$numeric_limits@M@std@@2HB DD 06H		; std::numeric_limits<float>::digits10
CONST	ENDS
;	COMDAT ?digits@?$numeric_limits@M@std@@2HB
CONST	SEGMENT
?digits@?$numeric_limits@M@std@@2HB DD 018H		; std::numeric_limits<float>::digits
CONST	ENDS
;	COMDAT ?digits10@?$numeric_limits@_K@std@@2HB
CONST	SEGMENT
?digits10@?$numeric_limits@_K@std@@2HB DD 013H		; std::numeric_limits<unsigned __int64>::digits10
CONST	ENDS
;	COMDAT ?digits@?$numeric_limits@_K@std@@2HB
CONST	SEGMENT
?digits@?$numeric_limits@_K@std@@2HB DD 040H		; std::numeric_limits<unsigned __int64>::digits
CONST	ENDS
;	COMDAT ?is_signed@?$numeric_limits@_K@std@@2_NB
CONST	SEGMENT
?is_signed@?$numeric_limits@_K@std@@2_NB DB 00H		; std::numeric_limits<unsigned __int64>::is_signed
CONST	ENDS
;	COMDAT ?digits10@?$numeric_limits@_J@std@@2HB
CONST	SEGMENT
?digits10@?$numeric_limits@_J@std@@2HB DD 012H		; std::numeric_limits<__int64>::digits10
CONST	ENDS
;	COMDAT ?digits@?$numeric_limits@_J@std@@2HB
CONST	SEGMENT
?digits@?$numeric_limits@_J@std@@2HB DD 03fH		; std::numeric_limits<__int64>::digits
CONST	ENDS
;	COMDAT ?is_signed@?$numeric_limits@_J@std@@2_NB
CONST	SEGMENT
?is_signed@?$numeric_limits@_J@std@@2_NB DB 01H		; std::numeric_limits<__int64>::is_signed
CONST	ENDS
;	COMDAT ?digits10@?$numeric_limits@K@std@@2HB
CONST	SEGMENT
?digits10@?$numeric_limits@K@std@@2HB DD 09H		; std::numeric_limits<unsigned long>::digits10
CONST	ENDS
;	COMDAT ?digits@?$numeric_limits@K@std@@2HB
CONST	SEGMENT
?digits@?$numeric_limits@K@std@@2HB DD 020H		; std::numeric_limits<unsigned long>::digits
CONST	ENDS
;	COMDAT ?is_signed@?$numeric_limits@K@std@@2_NB
CONST	SEGMENT
?is_signed@?$numeric_limits@K@std@@2_NB DB 00H		; std::numeric_limits<unsigned long>::is_signed
CONST	ENDS
;	COMDAT ?digits10@?$numeric_limits@J@std@@2HB
CONST	SEGMENT
?digits10@?$numeric_limits@J@std@@2HB DD 09H		; std::numeric_limits<long>::digits10
CONST	ENDS
;	COMDAT ?digits@?$numeric_limits@J@std@@2HB
CONST	SEGMENT
?digits@?$numeric_limits@J@std@@2HB DD 01fH		; std::numeric_limits<long>::digits
CONST	ENDS
;	COMDAT ?is_signed@?$numeric_limits@J@std@@2_NB
CONST	SEGMENT
?is_signed@?$numeric_limits@J@std@@2_NB DB 01H		; std::numeric_limits<long>::is_signed
CONST	ENDS
;	COMDAT ?digits10@?$numeric_limits@I@std@@2HB
CONST	SEGMENT
?digits10@?$numeric_limits@I@std@@2HB DD 09H		; std::numeric_limits<unsigned int>::digits10
CONST	ENDS
;	COMDAT ?digits@?$numeric_limits@I@std@@2HB
CONST	SEGMENT
?digits@?$numeric_limits@I@std@@2HB DD 020H		; std::numeric_limits<unsigned int>::digits
CONST	ENDS
;	COMDAT ?is_signed@?$numeric_limits@I@std@@2_NB
CONST	SEGMENT
?is_signed@?$numeric_limits@I@std@@2_NB DB 00H		; std::numeric_limits<unsigned int>::is_signed
CONST	ENDS
;	COMDAT ?digits10@?$numeric_limits@H@std@@2HB
CONST	SEGMENT
?digits10@?$numeric_limits@H@std@@2HB DD 09H		; std::numeric_limits<int>::digits10
CONST	ENDS
;	COMDAT ?digits@?$numeric_limits@H@std@@2HB
CONST	SEGMENT
?digits@?$numeric_limits@H@std@@2HB DD 01fH		; std::numeric_limits<int>::digits
CONST	ENDS
;	COMDAT ?value@?$_Sizeof@HU_Nil@std@@U12@U12@U12@U12@U12@U12@@std@@2IB
CONST	SEGMENT
?value@?$_Sizeof@HU_Nil@std@@U12@U12@U12@U12@U12@U12@@std@@2IB DD 01H ; std::_Sizeof<int,std::_Nil,std::_Nil,std::_Nil,std::_Nil,std::_Nil,std::_Nil,std::_Nil>::value
CONST	ENDS
;	COMDAT ?is_signed@?$numeric_limits@H@std@@2_NB
CONST	SEGMENT
?is_signed@?$numeric_limits@H@std@@2_NB DB 01H		; std::numeric_limits<int>::is_signed
CONST	ENDS
;	COMDAT ?digits10@?$numeric_limits@G@std@@2HB
CONST	SEGMENT
?digits10@?$numeric_limits@G@std@@2HB DD 04H		; std::numeric_limits<unsigned short>::digits10
CONST	ENDS
;	COMDAT ?digits@?$numeric_limits@G@std@@2HB
CONST	SEGMENT
?digits@?$numeric_limits@G@std@@2HB DD 010H		; std::numeric_limits<unsigned short>::digits
CONST	ENDS
;	COMDAT ?is_signed@?$numeric_limits@G@std@@2_NB
CONST	SEGMENT
?is_signed@?$numeric_limits@G@std@@2_NB DB 00H		; std::numeric_limits<unsigned short>::is_signed
CONST	ENDS
;	COMDAT ?digits10@?$numeric_limits@F@std@@2HB
CONST	SEGMENT
?digits10@?$numeric_limits@F@std@@2HB DD 04H		; std::numeric_limits<short>::digits10
CONST	ENDS
;	COMDAT ?digits@?$numeric_limits@F@std@@2HB
CONST	SEGMENT
?digits@?$numeric_limits@F@std@@2HB DD 0fH		; std::numeric_limits<short>::digits
CONST	ENDS
;	COMDAT ?is_signed@?$numeric_limits@F@std@@2_NB
CONST	SEGMENT
?is_signed@?$numeric_limits@F@std@@2_NB DB 01H		; std::numeric_limits<short>::is_signed
CONST	ENDS
;	COMDAT ?digits10@?$numeric_limits@E@std@@2HB
CONST	SEGMENT
?digits10@?$numeric_limits@E@std@@2HB DD 02H		; std::numeric_limits<unsigned char>::digits10
CONST	ENDS
;	COMDAT ?digits@?$numeric_limits@E@std@@2HB
CONST	SEGMENT
?digits@?$numeric_limits@E@std@@2HB DD 08H		; std::numeric_limits<unsigned char>::digits
CONST	ENDS
;	COMDAT ?is_signed@?$numeric_limits@E@std@@2_NB
CONST	SEGMENT
?is_signed@?$numeric_limits@E@std@@2_NB DB 00H		; std::numeric_limits<unsigned char>::is_signed
CONST	ENDS
;	COMDAT ?digits10@?$numeric_limits@C@std@@2HB
CONST	SEGMENT
?digits10@?$numeric_limits@C@std@@2HB DD 02H		; std::numeric_limits<signed char>::digits10
CONST	ENDS
;	COMDAT ?digits@?$numeric_limits@C@std@@2HB
CONST	SEGMENT
?digits@?$numeric_limits@C@std@@2HB DD 07H		; std::numeric_limits<signed char>::digits
CONST	ENDS
;	COMDAT ?is_signed@?$numeric_limits@C@std@@2_NB
CONST	SEGMENT
?is_signed@?$numeric_limits@C@std@@2_NB DB 01H		; std::numeric_limits<signed char>::is_signed
CONST	ENDS
;	COMDAT ?digits10@?$numeric_limits@_N@std@@2HB
CONST	SEGMENT
?digits10@?$numeric_limits@_N@std@@2HB DD 00H		; std::numeric_limits<bool>::digits10
CONST	ENDS
;	COMDAT ?digits@?$numeric_limits@_N@std@@2HB
CONST	SEGMENT
?digits@?$numeric_limits@_N@std@@2HB DD 01H		; std::numeric_limits<bool>::digits
CONST	ENDS
;	COMDAT ?is_signed@?$numeric_limits@_N@std@@2_NB
CONST	SEGMENT
?is_signed@?$numeric_limits@_N@std@@2_NB DB 00H		; std::numeric_limits<bool>::is_signed
CONST	ENDS
;	COMDAT ?is_modulo@?$numeric_limits@_N@std@@2_NB
CONST	SEGMENT
?is_modulo@?$numeric_limits@_N@std@@2_NB DB 00H		; std::numeric_limits<bool>::is_modulo
CONST	ENDS
;	COMDAT ?value@?$integral_constant@_N$00@std@@2_NB
CONST	SEGMENT
?value@?$integral_constant@_N$00@std@@2_NB DB 01H	; std::integral_constant<bool,1>::value
CONST	ENDS
;	COMDAT ?digits10@?$numeric_limits@_W@std@@2HB
CONST	SEGMENT
?digits10@?$numeric_limits@_W@std@@2HB DD 04H		; std::numeric_limits<wchar_t>::digits10
CONST	ENDS
;	COMDAT ?digits@?$numeric_limits@_W@std@@2HB
CONST	SEGMENT
?digits@?$numeric_limits@_W@std@@2HB DD 010H		; std::numeric_limits<wchar_t>::digits
CONST	ENDS
;	COMDAT ?is_signed@?$numeric_limits@_W@std@@2_NB
CONST	SEGMENT
?is_signed@?$numeric_limits@_W@std@@2_NB DB 00H		; std::numeric_limits<wchar_t>::is_signed
CONST	ENDS
PUBLIC	?Id@VuEntity@@QBE?AVVU_ID@@XZ			; VuEntity::Id
PUBLIC	?Entity@VuMessage@@QBEPAVVuEntity@@XZ		; VuMessage::Entity
PUBLIC	?RequestReliableTransmit@VuMessage@@QAEXXZ	; VuMessage::RequestReliableTransmit
PUBLIC	?RequestOutOfBandTransmit@VuMessage@@QAEXXZ	; VuMessage::RequestOutOfBandTransmit
PUBLIC	?get@?$VuBin@VVuEntity@@@@QBEPAVVuEntity@@XZ	; VuBin<VuEntity>::get
PUBLIC	??0RequestSimMoverPosition@@QAE@PAVSimMoverClass@@VVU_ID@@@Z ; RequestSimMoverPosition::RequestSimMoverPosition
PUBLIC	??0RequestSimMoverPosition@@QAE@VVU_ID@@0@Z	; RequestSimMoverPosition::RequestSimMoverPosition
PUBLIC	??1RequestSimMoverPosition@@UAE@XZ		; RequestSimMoverPosition::~RequestSimMoverPosition
PUBLIC	?Size@RequestSimMoverPosition@@UBEHXZ		; RequestSimMoverPosition::Size
PUBLIC	?Decode@RequestSimMoverPosition@@UAEHPAPAEPAJ@Z	; RequestSimMoverPosition::Decode
PUBLIC	?Encode@RequestSimMoverPosition@@UAEHPAPAE@Z	; RequestSimMoverPosition::Encode
PUBLIC	?Process@RequestSimMoverPosition@@MAEHE@Z	; RequestSimMoverPosition::Process
PUBLIC	??_GRequestSimMoverPosition@@UAEPAXI@Z		; RequestSimMoverPosition::`scalar deleting destructor'
PUBLIC	??_7RequestSimMoverPosition@@6B@		; RequestSimMoverPosition::`vftable'
PUBLIC	??_R4RequestSimMoverPosition@@6B@		; RequestSimMoverPosition::`RTTI Complete Object Locator'
PUBLIC	??_R0?AVRequestSimMoverPosition@@@8		; RequestSimMoverPosition `RTTI Type Descriptor'
PUBLIC	??_R3RequestSimMoverPosition@@8			; RequestSimMoverPosition::`RTTI Class Hierarchy Descriptor'
PUBLIC	??_R2RequestSimMoverPosition@@8			; RequestSimMoverPosition::`RTTI Base Class Array'
PUBLIC	??_R1A@?0A@EA@RequestSimMoverPosition@@8	; RequestSimMoverPosition::`RTTI Base Class Descriptor at (0,-1,0,64)'
PUBLIC	??_R1A@?0A@EA@FalconEvent@@8			; FalconEvent::`RTTI Base Class Descriptor at (0,-1,0,64)'
PUBLIC	??_R0?AVFalconEvent@@@8				; FalconEvent `RTTI Type Descriptor'
PUBLIC	??_R3FalconEvent@@8				; FalconEvent::`RTTI Class Hierarchy Descriptor'
PUBLIC	??_R2FalconEvent@@8				; FalconEvent::`RTTI Base Class Array'
PUBLIC	??_R1A@?0A@EA@VuMessage@@8			; VuMessage::`RTTI Base Class Descriptor at (0,-1,0,64)'
PUBLIC	??_R0?AVVuMessage@@@8				; VuMessage `RTTI Type Descriptor'
PUBLIC	??_R3VuMessage@@8				; VuMessage::`RTTI Class Hierarchy Descriptor'
PUBLIC	??_R2VuMessage@@8				; VuMessage::`RTTI Base Class Array'
EXTRN	??2@YAPAXI@Z:PROC				; operator new
EXTRN	??3@YAXPAX@Z:PROC				; operator delete
EXTRN	?Find@VuDatabase@@QBEPAVVuEntity@@VVU_ID@@@Z:PROC ; VuDatabase::Find
EXTRN	?DoSend@VuMessage@@UAEEXZ:PROC			; VuMessage::DoSend
EXTRN	?Size@FalconEvent@@UBEHXZ:PROC			; FalconEvent::Size
EXTRN	?Decode@FalconEvent@@UAEHPAPAEPAJ@Z:PROC	; FalconEvent::Decode
EXTRN	?Encode@FalconEvent@@UAEHPAPAE@Z:PROC		; FalconEvent::Encode
EXTRN	??0FalconEvent@@IAE@EW4HandlingThread@0@VVU_ID@@PAVVuTargetEntity@@E@Z:PROC ; FalconEvent::FalconEvent
EXTRN	??0FalconEvent@@IAE@EW4HandlingThread@0@VVU_ID@@1@Z:PROC ; FalconEvent::FalconEvent
EXTRN	??1FalconEvent@@MAE@XZ:PROC			; FalconEvent::~FalconEvent
EXTRN	?Activate@FalconEvent@@MAEHPAVVuEntity@@@Z:PROC	; FalconEvent::Activate
EXTRN	?LocalSize@FalconEvent@@EBEHXZ:PROC		; FalconEvent::LocalSize
EXTRN	?FalconSendMessage@@YAXPAVVuMessage@@H@Z:PROC	; FalconSendMessage
EXTRN	??_ERequestSimMoverPosition@@UAEPAXI@Z:PROC	; RequestSimMoverPosition::`vector deleting destructor'
EXTRN	??0SendSimMoverPosition@@QAE@PAVSimMoverClass@@PAVVuTargetEntity@@@Z:PROC ; SendSimMoverPosition::SendSimMoverPosition
EXTRN	@__security_check_cookie@4:PROC
EXTRN	___CxxFrameHandler3:PROC
EXTRN	?vuDatabase@@3PAVVuDatabase@@A:DWORD		; vuDatabase
EXTRN	??_7type_info@@6B@:QWORD			; type_info::`vftable'
EXTRN	___security_cookie:DWORD
_BSS	SEGMENT
_piecewise_construct DB 01H DUP (?)
_allocator_arg DB 01H DUP (?)
_BSS	ENDS
CRT$XCU	SEGMENT
_piecewise_construct$initializer$ DD FLAT:??__Epiecewise_construct@std@@YAXXZ
CRT$XCU	ENDS
;	COMDAT ??_R2VuMessage@@8
rdata$r	SEGMENT
??_R2VuMessage@@8 DD FLAT:??_R1A@?0A@EA@VuMessage@@8	; VuMessage::`RTTI Base Class Array'
rdata$r	ENDS
;	COMDAT ??_R3VuMessage@@8
rdata$r	SEGMENT
??_R3VuMessage@@8 DD 00H				; VuMessage::`RTTI Class Hierarchy Descriptor'
	DD	00H
	DD	01H
	DD	FLAT:??_R2VuMessage@@8
rdata$r	ENDS
;	COMDAT ??_R0?AVVuMessage@@@8
_DATA	SEGMENT
??_R0?AVVuMessage@@@8 DD FLAT:??_7type_info@@6B@	; VuMessage `RTTI Type Descriptor'
	DD	00H
	DB	'.?AVVuMessage@@', 00H
_DATA	ENDS
;	COMDAT ??_R1A@?0A@EA@VuMessage@@8
rdata$r	SEGMENT
??_R1A@?0A@EA@VuMessage@@8 DD FLAT:??_R0?AVVuMessage@@@8 ; VuMessage::`RTTI Base Class Descriptor at (0,-1,0,64)'
	DD	00H
	DD	00H
	DD	0ffffffffH
	DD	00H
	DD	040H
	DD	FLAT:??_R3VuMessage@@8
rdata$r	ENDS
;	COMDAT ??_R2FalconEvent@@8
rdata$r	SEGMENT
??_R2FalconEvent@@8 DD FLAT:??_R1A@?0A@EA@FalconEvent@@8 ; FalconEvent::`RTTI Base Class Array'
	DD	FLAT:??_R1A@?0A@EA@VuMessage@@8
rdata$r	ENDS
;	COMDAT ??_R3FalconEvent@@8
rdata$r	SEGMENT
??_R3FalconEvent@@8 DD 00H				; FalconEvent::`RTTI Class Hierarchy Descriptor'
	DD	00H
	DD	02H
	DD	FLAT:??_R2FalconEvent@@8
rdata$r	ENDS
;	COMDAT ??_R0?AVFalconEvent@@@8
_DATA	SEGMENT
??_R0?AVFalconEvent@@@8 DD FLAT:??_7type_info@@6B@	; FalconEvent `RTTI Type Descriptor'
	DD	00H
	DB	'.?AVFalconEvent@@', 00H
_DATA	ENDS
;	COMDAT ??_R1A@?0A@EA@FalconEvent@@8
rdata$r	SEGMENT
??_R1A@?0A@EA@FalconEvent@@8 DD FLAT:??_R0?AVFalconEvent@@@8 ; FalconEvent::`RTTI Base Class Descriptor at (0,-1,0,64)'
	DD	01H
	DD	00H
	DD	0ffffffffH
	DD	00H
	DD	040H
	DD	FLAT:??_R3FalconEvent@@8
rdata$r	ENDS
;	COMDAT ??_R1A@?0A@EA@RequestSimMoverPosition@@8
rdata$r	SEGMENT
??_R1A@?0A@EA@RequestSimMoverPosition@@8 DD FLAT:??_R0?AVRequestSimMoverPosition@@@8 ; RequestSimMoverPosition::`RTTI Base Class Descriptor at (0,-1,0,64)'
	DD	02H
	DD	00H
	DD	0ffffffffH
	DD	00H
	DD	040H
	DD	FLAT:??_R3RequestSimMoverPosition@@8
rdata$r	ENDS
;	COMDAT ??_R2RequestSimMoverPosition@@8
rdata$r	SEGMENT
??_R2RequestSimMoverPosition@@8 DD FLAT:??_R1A@?0A@EA@RequestSimMoverPosition@@8 ; RequestSimMoverPosition::`RTTI Base Class Array'
	DD	FLAT:??_R1A@?0A@EA@FalconEvent@@8
	DD	FLAT:??_R1A@?0A@EA@VuMessage@@8
rdata$r	ENDS
;	COMDAT ??_R3RequestSimMoverPosition@@8
rdata$r	SEGMENT
??_R3RequestSimMoverPosition@@8 DD 00H			; RequestSimMoverPosition::`RTTI Class Hierarchy Descriptor'
	DD	00H
	DD	03H
	DD	FLAT:??_R2RequestSimMoverPosition@@8
rdata$r	ENDS
;	COMDAT ??_R0?AVRequestSimMoverPosition@@@8
_DATA	SEGMENT
??_R0?AVRequestSimMoverPosition@@@8 DD FLAT:??_7type_info@@6B@ ; RequestSimMoverPosition `RTTI Type Descriptor'
	DD	00H
	DB	'.?AVRequestSimMoverPosition@@', 00H
_DATA	ENDS
;	COMDAT ??_R4RequestSimMoverPosition@@6B@
rdata$r	SEGMENT
??_R4RequestSimMoverPosition@@6B@ DD 00H		; RequestSimMoverPosition::`RTTI Complete Object Locator'
	DD	00H
	DD	00H
	DD	FLAT:??_R0?AVRequestSimMoverPosition@@@8
	DD	FLAT:??_R3RequestSimMoverPosition@@8
rdata$r	ENDS
;	COMDAT ??_7RequestSimMoverPosition@@6B@
CONST	SEGMENT
??_7RequestSimMoverPosition@@6B@ DD FLAT:??_R4RequestSimMoverPosition@@6B@ ; RequestSimMoverPosition::`vftable'
	DD	FLAT:??_ERequestSimMoverPosition@@UAEPAXI@Z
	DD	FLAT:?Size@RequestSimMoverPosition@@UBEHXZ
	DD	FLAT:?DoSend@VuMessage@@UAEEXZ
	DD	FLAT:?Activate@FalconEvent@@MAEHPAVVuEntity@@@Z
	DD	FLAT:?Process@RequestSimMoverPosition@@MAEHE@Z
	DD	FLAT:?Encode@RequestSimMoverPosition@@UAEHPAPAE@Z
	DD	FLAT:?Decode@RequestSimMoverPosition@@UAEHPAPAEPAJ@Z
	DD	FLAT:?LocalSize@FalconEvent@@EBEHXZ
CONST	ENDS
xdata$x	SEGMENT
__unwindtable$?Process@RequestSimMoverPosition@@MAEHE@Z DD 0ffffffffH
	DD	FLAT:__unwindfunclet$?Process@RequestSimMoverPosition@@MAEHE@Z$0
__unwindtable$??0RequestSimMoverPosition@@QAE@PAVSimMoverClass@@VVU_ID@@@Z DD 0ffffffffH
	DD	FLAT:__unwindfunclet$??0RequestSimMoverPosition@@QAE@PAVSimMoverClass@@VVU_ID@@@Z$0
__ehfuncinfo$?Process@RequestSimMoverPosition@@MAEHE@Z DD 019930522H
	DD	01H
	DD	FLAT:__unwindtable$?Process@RequestSimMoverPosition@@MAEHE@Z
	DD	2 DUP(00H)
	DD	2 DUP(00H)
	DD	00H
	DD	01H
__ehfuncinfo$??0RequestSimMoverPosition@@QAE@PAVSimMoverClass@@VVU_ID@@@Z DD 019930522H
	DD	01H
	DD	FLAT:__unwindtable$??0RequestSimMoverPosition@@QAE@PAVSimMoverClass@@VVU_ID@@@Z
	DD	2 DUP(00H)
	DD	2 DUP(00H)
	DD	00H
	DD	01H
xdata$x	ENDS
CRT$XCU	SEGMENT
_allocator_arg$initializer$ DD FLAT:??__Eallocator_arg@std@@YAXXZ
CRT$XCU	ENDS
; Function compile flags: /Odtp
;	COMDAT ??_GRequestSimMoverPosition@@UAEPAXI@Z
_TEXT	SEGMENT
_this$ = -4						; size = 4
___flags$ = 8						; size = 4
??_GRequestSimMoverPosition@@UAEPAXI@Z PROC		; RequestSimMoverPosition::`scalar deleting destructor', COMDAT
; _this$ = ecx
	push	ebp
	mov	ebp, esp
	push	ecx
	mov	DWORD PTR _this$[ebp], ecx
	mov	ecx, DWORD PTR _this$[ebp]
	call	??1RequestSimMoverPosition@@UAE@XZ	; RequestSimMoverPosition::~RequestSimMoverPosition
	mov	eax, DWORD PTR ___flags$[ebp]
	and	eax, 1
	je	SHORT $LN1@scalar
	mov	ecx, DWORD PTR _this$[ebp]
	push	ecx
	call	??3@YAXPAX@Z				; operator delete
	add	esp, 4
$LN1@scalar:
	mov	eax, DWORD PTR _this$[ebp]
	mov	esp, ebp
	pop	ebp
	ret	4
??_GRequestSimMoverPosition@@UAEPAXI@Z ENDP		; RequestSimMoverPosition::`scalar deleting destructor'
_TEXT	ENDS
; Function compile flags: /Odtp
; File c:\users\zhitao li\documents\visual studio 2012\projects\freefalcon\falclib\msgsrc\requestsimmoverposition.cpp
_TEXT	SEGMENT
_sup$ = -40						; size = 4
$T2 = -36						; size = 4
tv134 = -32						; size = 4
$T3 = -28						; size = 4
_mover$ = -24						; size = 4
_sender$ = -20						; size = 4
_this$ = -16						; size = 4
__$EHRec$ = -12						; size = 12
_autodisp$ = 8						; size = 1
?Process@RequestSimMoverPosition@@MAEHE@Z PROC		; RequestSimMoverPosition::Process
; _this$ = ecx

; 36   : int RequestSimMoverPosition::Process(uchar autodisp){

	push	ebp
	mov	ebp, esp
	push	-1
	push	__ehhandler$?Process@RequestSimMoverPosition@@MAEHE@Z
	mov	eax, DWORD PTR fs:0
	push	eax
	sub	esp, 28					; 0000001cH
	mov	eax, DWORD PTR ___security_cookie
	xor	eax, ebp
	push	eax
	lea	eax, DWORD PTR __$EHRec$[ebp]
	mov	DWORD PTR fs:0, eax
	mov	DWORD PTR _this$[ebp], ecx

; 37   : 	if (autodisp){

	movzx	eax, BYTE PTR _autodisp$[ebp]
	test	eax, eax
	je	SHORT $LN3@Process

; 38   : 		return 0;

	xor	eax, eax
	jmp	$LN4@Process
$LN3@Process:

; 39   : 	}
; 40   : 
; 41   : 	SimMoverClass *mover = static_cast<SimMoverClass *>(this->Entity());

	mov	ecx, DWORD PTR _this$[ebp]
	call	?Entity@VuMessage@@QBEPAVVuEntity@@XZ	; VuMessage::Entity
	mov	DWORD PTR _mover$[ebp], eax

; 42   : 	if (mover == NULL){

	cmp	DWORD PTR _mover$[ebp], 0
	jne	SHORT $LN2@Process

; 43   : 		return 0;

	xor	eax, eax
	jmp	SHORT $LN4@Process
$LN2@Process:

; 44   : 	}
; 45   : 
; 46   : 	VuTargetEntity *sender = static_cast<VuTargetEntity*>(vuDatabase->Find(sender_));

	mov	ecx, DWORD PTR _this$[ebp]
	mov	edx, DWORD PTR [ecx+12]
	push	edx
	mov	eax, DWORD PTR [ecx+8]
	push	eax
	mov	ecx, DWORD PTR ?vuDatabase@@3PAVVuDatabase@@A ; vuDatabase
	call	?Find@VuDatabase@@QBEPAVVuEntity@@VVU_ID@@@Z ; VuDatabase::Find
	mov	DWORD PTR _sender$[ebp], eax

; 47   : 	if (sender == NULL){

	cmp	DWORD PTR _sender$[ebp], 0
	jne	SHORT $LN1@Process

; 48   : 		return 0;

	xor	eax, eax
	jmp	SHORT $LN4@Process
$LN1@Process:

; 49   : 	}
; 50   : 
; 51   : 	FalconEvent *sup = new SendSimMoverPosition(mover, sender);

	push	96					; 00000060H
	call	??2@YAPAXI@Z				; operator new
	add	esp, 4
	mov	DWORD PTR $T3[ebp], eax
	mov	DWORD PTR __$EHRec$[ebp+8], 0
	cmp	DWORD PTR $T3[ebp], 0
	je	SHORT $LN6@Process
	mov	ecx, DWORD PTR _sender$[ebp]
	push	ecx
	mov	edx, DWORD PTR _mover$[ebp]
	push	edx
	mov	ecx, DWORD PTR $T3[ebp]
	call	??0SendSimMoverPosition@@QAE@PAVSimMoverClass@@PAVVuTargetEntity@@@Z ; SendSimMoverPosition::SendSimMoverPosition
	mov	DWORD PTR tv134[ebp], eax
	jmp	SHORT $LN7@Process
$LN6@Process:
	mov	DWORD PTR tv134[ebp], 0
$LN7@Process:
	mov	eax, DWORD PTR tv134[ebp]
	mov	DWORD PTR $T2[ebp], eax
	mov	DWORD PTR __$EHRec$[ebp+8], -1
	mov	ecx, DWORD PTR $T2[ebp]
	mov	DWORD PTR _sup$[ebp], ecx

; 52   : 	FalconSendMessage(sup, true);

	push	1
	mov	edx, DWORD PTR _sup$[ebp]
	push	edx
	call	?FalconSendMessage@@YAXPAVVuMessage@@H@Z ; FalconSendMessage
	add	esp, 8

; 53   : 	return 0;

	xor	eax, eax
$LN4@Process:

; 54   : }

	mov	ecx, DWORD PTR __$EHRec$[ebp]
	mov	DWORD PTR fs:0, ecx
	pop	ecx
	mov	esp, ebp
	pop	ebp
	ret	4
_TEXT	ENDS
text$x	SEGMENT
__unwindfunclet$?Process@RequestSimMoverPosition@@MAEHE@Z$0:
	mov	eax, DWORD PTR $T3[ebp]
	push	eax
	call	??3@YAXPAX@Z				; operator delete
	pop	ecx
	ret	0
__ehhandler$?Process@RequestSimMoverPosition@@MAEHE@Z:
	mov	edx, DWORD PTR [esp+8]
	lea	eax, DWORD PTR [edx+12]
	mov	ecx, DWORD PTR [edx-32]
	xor	ecx, eax
	call	@__security_check_cookie@4
	mov	eax, OFFSET __ehfuncinfo$?Process@RequestSimMoverPosition@@MAEHE@Z
	jmp	___CxxFrameHandler3
text$x	ENDS
?Process@RequestSimMoverPosition@@MAEHE@Z ENDP		; RequestSimMoverPosition::Process
; Function compile flags: /Odtp
; File c:\users\zhitao li\documents\visual studio 2012\projects\freefalcon\falclib\msgsrc\requestsimmoverposition.cpp
_TEXT	SEGMENT
_this$ = -4						; size = 4
_buf$ = 8						; size = 4
?Encode@RequestSimMoverPosition@@UAEHPAPAE@Z PROC	; RequestSimMoverPosition::Encode
; _this$ = ecx

; 32   : int RequestSimMoverPosition::Encode (VU_BYTE **buf){

	push	ebp
	mov	ebp, esp
	push	ecx
	mov	DWORD PTR _this$[ebp], ecx

; 33   : 	return FalconEvent::Encode(buf);

	mov	eax, DWORD PTR _buf$[ebp]
	push	eax
	mov	ecx, DWORD PTR _this$[ebp]
	call	?Encode@FalconEvent@@UAEHPAPAE@Z	; FalconEvent::Encode

; 34   : }

	mov	esp, ebp
	pop	ebp
	ret	4
?Encode@RequestSimMoverPosition@@UAEHPAPAE@Z ENDP	; RequestSimMoverPosition::Encode
_TEXT	ENDS
; Function compile flags: /Odtp
; File c:\users\zhitao li\documents\visual studio 2012\projects\freefalcon\falclib\msgsrc\requestsimmoverposition.cpp
_TEXT	SEGMENT
_this$ = -4						; size = 4
_buf$ = 8						; size = 4
_rem$ = 12						; size = 4
?Decode@RequestSimMoverPosition@@UAEHPAPAEPAJ@Z PROC	; RequestSimMoverPosition::Decode
; _this$ = ecx

; 28   : int RequestSimMoverPosition::Decode (VU_BYTE **buf, long *rem){

	push	ebp
	mov	ebp, esp
	push	ecx
	mov	DWORD PTR _this$[ebp], ecx

; 29   : 	return FalconEvent::Decode(buf, rem);

	mov	eax, DWORD PTR _rem$[ebp]
	push	eax
	mov	ecx, DWORD PTR _buf$[ebp]
	push	ecx
	mov	ecx, DWORD PTR _this$[ebp]
	call	?Decode@FalconEvent@@UAEHPAPAEPAJ@Z	; FalconEvent::Decode

; 30   : }

	mov	esp, ebp
	pop	ebp
	ret	8
?Decode@RequestSimMoverPosition@@UAEHPAPAEPAJ@Z ENDP	; RequestSimMoverPosition::Decode
_TEXT	ENDS
; Function compile flags: /Odtp
; File c:\users\zhitao li\documents\visual studio 2012\projects\freefalcon\falclib\msgsrc\requestsimmoverposition.cpp
_TEXT	SEGMENT
_this$ = -4						; size = 4
?Size@RequestSimMoverPosition@@UBEHXZ PROC		; RequestSimMoverPosition::Size
; _this$ = ecx

; 24   : int RequestSimMoverPosition::Size() const {

	push	ebp
	mov	ebp, esp
	push	ecx
	mov	DWORD PTR _this$[ebp], ecx

; 25   : 	return FalconEvent::Size();

	mov	ecx, DWORD PTR _this$[ebp]
	call	?Size@FalconEvent@@UBEHXZ		; FalconEvent::Size

; 26   : }

	mov	esp, ebp
	pop	ebp
	ret	0
?Size@RequestSimMoverPosition@@UBEHXZ ENDP		; RequestSimMoverPosition::Size
_TEXT	ENDS
; Function compile flags: /Odtp
; File c:\users\zhitao li\documents\visual studio 2012\projects\freefalcon\falclib\msgsrc\requestsimmoverposition.cpp
_TEXT	SEGMENT
_this$ = -4						; size = 4
??1RequestSimMoverPosition@@UAE@XZ PROC			; RequestSimMoverPosition::~RequestSimMoverPosition
; _this$ = ecx

; 21   : RequestSimMoverPosition::~RequestSimMoverPosition(){

	push	ebp
	mov	ebp, esp
	push	ecx
	mov	DWORD PTR _this$[ebp], ecx
	mov	eax, DWORD PTR _this$[ebp]
	mov	DWORD PTR [eax], OFFSET ??_7RequestSimMoverPosition@@6B@

; 22   : }

	mov	ecx, DWORD PTR _this$[ebp]
	call	??1FalconEvent@@MAE@XZ			; FalconEvent::~FalconEvent
	mov	esp, ebp
	pop	ebp
	ret	0
??1RequestSimMoverPosition@@UAE@XZ ENDP			; RequestSimMoverPosition::~RequestSimMoverPosition
_TEXT	ENDS
; Function compile flags: /Odtp
; File c:\users\zhitao li\documents\visual studio 2012\projects\freefalcon\falclib\msgsrc\requestsimmoverposition.cpp
_TEXT	SEGMENT
_this$ = -4						; size = 4
_senderID$ = 8						; size = 8
_targetID$ = 16						; size = 8
??0RequestSimMoverPosition@@QAE@VVU_ID@@0@Z PROC	; RequestSimMoverPosition::RequestSimMoverPosition
; _this$ = ecx

; 18   : {

	push	ebp
	mov	ebp, esp
	push	ecx
	mov	DWORD PTR _this$[ebp], ecx
	mov	eax, DWORD PTR _targetID$[ebp+4]
	push	eax
	mov	ecx, DWORD PTR _targetID$[ebp]
	push	ecx
	mov	edx, DWORD PTR _senderID$[ebp+4]
	push	edx
	mov	eax, DWORD PTR _senderID$[ebp]
	push	eax
	push	1
	push	88					; 00000058H
	mov	ecx, DWORD PTR _this$[ebp]
	call	??0FalconEvent@@IAE@EW4HandlingThread@0@VVU_ID@@1@Z ; FalconEvent::FalconEvent
	mov	ecx, DWORD PTR _this$[ebp]
	mov	DWORD PTR [ecx], OFFSET ??_7RequestSimMoverPosition@@6B@

; 19   : }

	mov	eax, DWORD PTR _this$[ebp]
	mov	esp, ebp
	pop	ebp
	ret	16					; 00000010H
??0RequestSimMoverPosition@@QAE@VVU_ID@@0@Z ENDP	; RequestSimMoverPosition::RequestSimMoverPosition
_TEXT	ENDS
; Function compile flags: /Odtp
; File c:\users\zhitao li\documents\visual studio 2012\projects\freefalcon\falclib\msgsrc\requestsimmoverposition.cpp
_TEXT	SEGMENT
$T2 = -24						; size = 8
_this$ = -16						; size = 4
__$EHRec$ = -12						; size = 12
_mover$ = 8						; size = 4
_target$ = 12						; size = 8
??0RequestSimMoverPosition@@QAE@PAVSimMoverClass@@VVU_ID@@@Z PROC ; RequestSimMoverPosition::RequestSimMoverPosition
; _this$ = ecx

; 10   : {

	push	ebp
	mov	ebp, esp
	push	-1
	push	__ehhandler$??0RequestSimMoverPosition@@QAE@PAVSimMoverClass@@VVU_ID@@@Z
	mov	eax, DWORD PTR fs:0
	push	eax
	sub	esp, 12					; 0000000cH
	mov	eax, DWORD PTR ___security_cookie
	xor	eax, ebp
	push	eax
	lea	eax, DWORD PTR __$EHRec$[ebp]
	mov	DWORD PTR fs:0, eax
	mov	DWORD PTR _this$[ebp], ecx
	push	0
	mov	eax, DWORD PTR _target$[ebp+4]
	push	eax
	mov	ecx, DWORD PTR _target$[ebp]
	push	ecx
	mov	ecx, DWORD PTR ?vuDatabase@@3PAVVuDatabase@@A ; vuDatabase
	call	?Find@VuDatabase@@QBEPAVVuEntity@@VVU_ID@@@Z ; VuDatabase::Find
	push	eax
	lea	edx, DWORD PTR $T2[ebp]
	push	edx
	mov	ecx, DWORD PTR _mover$[ebp]
	call	?Id@VuEntity@@QBE?AVVU_ID@@XZ		; VuEntity::Id
	mov	ecx, DWORD PTR [eax+4]
	push	ecx
	mov	edx, DWORD PTR [eax]
	push	edx
	push	1
	push	88					; 00000058H
	mov	ecx, DWORD PTR _this$[ebp]
	call	??0FalconEvent@@IAE@EW4HandlingThread@0@VVU_ID@@PAVVuTargetEntity@@E@Z ; FalconEvent::FalconEvent
	mov	DWORD PTR __$EHRec$[ebp+8], 0
	mov	eax, DWORD PTR _this$[ebp]
	mov	DWORD PTR [eax], OFFSET ??_7RequestSimMoverPosition@@6B@

; 11   : 	// this is always reliable and OOB
; 12   : 	RequestReliableTransmit();

	mov	ecx, DWORD PTR _this$[ebp]
	call	?RequestReliableTransmit@VuMessage@@QAEXXZ ; VuMessage::RequestReliableTransmit

; 13   : 	RequestOutOfBandTransmit();

	mov	ecx, DWORD PTR _this$[ebp]
	call	?RequestOutOfBandTransmit@VuMessage@@QAEXXZ ; VuMessage::RequestOutOfBandTransmit

; 14   : }

	mov	DWORD PTR __$EHRec$[ebp+8], -1
	mov	eax, DWORD PTR _this$[ebp]
	mov	ecx, DWORD PTR __$EHRec$[ebp]
	mov	DWORD PTR fs:0, ecx
	pop	ecx
	mov	esp, ebp
	pop	ebp
	ret	12					; 0000000cH
_TEXT	ENDS
text$x	SEGMENT
__unwindfunclet$??0RequestSimMoverPosition@@QAE@PAVSimMoverClass@@VVU_ID@@@Z$0:
	mov	ecx, DWORD PTR _this$[ebp]
	jmp	??1FalconEvent@@MAE@XZ			; FalconEvent::~FalconEvent
__ehhandler$??0RequestSimMoverPosition@@QAE@PAVSimMoverClass@@VVU_ID@@@Z:
	mov	edx, DWORD PTR [esp+8]
	lea	eax, DWORD PTR [edx+12]
	mov	ecx, DWORD PTR [edx-16]
	xor	ecx, eax
	call	@__security_check_cookie@4
	mov	eax, OFFSET __ehfuncinfo$??0RequestSimMoverPosition@@QAE@PAVSimMoverClass@@VVU_ID@@@Z
	jmp	___CxxFrameHandler3
text$x	ENDS
??0RequestSimMoverPosition@@QAE@PAVSimMoverClass@@VVU_ID@@@Z ENDP ; RequestSimMoverPosition::RequestSimMoverPosition
; Function compile flags: /Odtp
; File c:\users\zhitao li\documents\visual studio 2012\projects\freefalcon\vu2\include\vu_templates.h
;	COMDAT ?get@?$VuBin@VVuEntity@@@@QBEPAVVuEntity@@XZ
_TEXT	SEGMENT
_this$ = -4						; size = 4
?get@?$VuBin@VVuEntity@@@@QBEPAVVuEntity@@XZ PROC	; VuBin<VuEntity>::get, COMDAT
; _this$ = ecx

; 55   : 	E *get() const{

	push	ebp
	mov	ebp, esp
	push	ecx
	mov	DWORD PTR _this$[ebp], ecx

; 56   : 		return e;

	mov	eax, DWORD PTR _this$[ebp]
	mov	eax, DWORD PTR [eax]

; 57   : 	}

	mov	esp, ebp
	pop	ebp
	ret	0
?get@?$VuBin@VVuEntity@@@@QBEPAVVuEntity@@XZ ENDP	; VuBin<VuEntity>::get
_TEXT	ENDS
; Function compile flags: /Odtp
; File c:\users\zhitao li\documents\visual studio 2012\projects\freefalcon\vu2\include\vuevent.h
;	COMDAT ?RequestOutOfBandTransmit@VuMessage@@QAEXXZ
_TEXT	SEGMENT
_this$ = -4						; size = 4
?RequestOutOfBandTransmit@VuMessage@@QAEXXZ PROC	; VuMessage::RequestOutOfBandTransmit, COMDAT
; _this$ = ecx

; 181  : 	void RequestOutOfBandTransmit() { flags_ |= VU_OUT_OF_BAND_MSG_FLAG; }

	push	ebp
	mov	ebp, esp
	push	ecx
	mov	DWORD PTR _this$[ebp], ecx
	mov	eax, DWORD PTR _this$[ebp]
	movzx	ecx, BYTE PTR [eax+6]
	or	ecx, 2
	mov	edx, DWORD PTR _this$[ebp]
	mov	BYTE PTR [edx+6], cl
	mov	esp, ebp
	pop	ebp
	ret	0
?RequestOutOfBandTransmit@VuMessage@@QAEXXZ ENDP	; VuMessage::RequestOutOfBandTransmit
_TEXT	ENDS
; Function compile flags: /Odtp
; File c:\users\zhitao li\documents\visual studio 2012\projects\freefalcon\vu2\include\vuevent.h
;	COMDAT ?RequestReliableTransmit@VuMessage@@QAEXXZ
_TEXT	SEGMENT
_this$ = -4						; size = 4
?RequestReliableTransmit@VuMessage@@QAEXXZ PROC		; VuMessage::RequestReliableTransmit, COMDAT
; _this$ = ecx

; 180  : 	void RequestReliableTransmit() { flags_ |= VU_RELIABLE_MSG_FLAG; }

	push	ebp
	mov	ebp, esp
	push	ecx
	mov	DWORD PTR _this$[ebp], ecx
	mov	eax, DWORD PTR _this$[ebp]
	movzx	ecx, BYTE PTR [eax+6]
	or	ecx, 8
	mov	edx, DWORD PTR _this$[ebp]
	mov	BYTE PTR [edx+6], cl
	mov	esp, ebp
	pop	ebp
	ret	0
?RequestReliableTransmit@VuMessage@@QAEXXZ ENDP		; VuMessage::RequestReliableTransmit
_TEXT	ENDS
; Function compile flags: /Odtp
; File c:\users\zhitao li\documents\visual studio 2012\projects\freefalcon\vu2\include\vuevent.h
;	COMDAT ?Entity@VuMessage@@QBEPAVVuEntity@@XZ
_TEXT	SEGMENT
_this$ = -4						; size = 4
?Entity@VuMessage@@QBEPAVVuEntity@@XZ PROC		; VuMessage::Entity, COMDAT
; _this$ = ecx

; 159  : 	VuEntity *Entity() const { return ent_.get(); }

	push	ebp
	mov	ebp, esp
	push	ecx
	mov	DWORD PTR _this$[ebp], ecx
	mov	ecx, DWORD PTR _this$[ebp]
	add	ecx, 40					; 00000028H
	call	?get@?$VuBin@VVuEntity@@@@QBEPAVVuEntity@@XZ ; VuBin<VuEntity>::get
	mov	esp, ebp
	pop	ebp
	ret	0
?Entity@VuMessage@@QBEPAVVuEntity@@XZ ENDP		; VuMessage::Entity
_TEXT	ENDS
; Function compile flags: /Odtp
; File c:\program files (x86)\microsoft visual studio 11.0\vc\include\xutility
;	COMDAT ??__Eallocator_arg@std@@YAXXZ
text$yc	SEGMENT
$T1 = -1						; size = 1
??__Eallocator_arg@std@@YAXXZ PROC			; std::`dynamic initializer for 'allocator_arg'', COMDAT

; 3644 : const allocator_arg_t allocator_arg = allocator_arg_t();

	push	ebp
	mov	ebp, esp
	push	ecx
	xor	eax, eax
	mov	BYTE PTR $T1[ebp], al
	mov	esp, ebp
	pop	ebp
	ret	0
??__Eallocator_arg@std@@YAXXZ ENDP			; std::`dynamic initializer for 'allocator_arg''
text$yc	ENDS
; Function compile flags: /Odtp
; File c:\program files (x86)\microsoft visual studio 11.0\vc\include\utility
;	COMDAT ??__Epiecewise_construct@std@@YAXXZ
text$yc	SEGMENT
$T1 = -1						; size = 1
??__Epiecewise_construct@std@@YAXXZ PROC		; std::`dynamic initializer for 'piecewise_construct'', COMDAT

; 65   : 	piecewise_construct_t();

	push	ebp
	mov	ebp, esp
	push	ecx
	xor	eax, eax
	mov	BYTE PTR $T1[ebp], al
	mov	esp, ebp
	pop	ebp
	ret	0
??__Epiecewise_construct@std@@YAXXZ ENDP		; std::`dynamic initializer for 'piecewise_construct''
text$yc	ENDS
; Function compile flags: /Odtp
; File c:\users\zhitao li\documents\visual studio 2012\projects\freefalcon\vu2\include\vuentity.h
;	COMDAT ?Id@VuEntity@@QBE?AVVU_ID@@XZ
_TEXT	SEGMENT
_this$ = -4						; size = 4
___$ReturnUdt$ = 8					; size = 4
?Id@VuEntity@@QBE?AVVU_ID@@XZ PROC			; VuEntity::Id, COMDAT
; _this$ = ecx

; 131  : 	VU_ID Id() const	{ return share_.id_; }

	push	ebp
	mov	ebp, esp
	push	ecx
	mov	DWORD PTR _this$[ebp], ecx
	mov	eax, DWORD PTR _this$[ebp]
	mov	ecx, DWORD PTR [eax+12]
	mov	edx, DWORD PTR [eax+16]
	mov	eax, DWORD PTR ___$ReturnUdt$[ebp]
	mov	DWORD PTR [eax], ecx
	mov	DWORD PTR [eax+4], edx
	mov	eax, DWORD PTR ___$ReturnUdt$[ebp]
	mov	esp, ebp
	pop	ebp
	ret	4
?Id@VuEntity@@QBE?AVVU_ID@@XZ ENDP			; VuEntity::Id
_TEXT	ENDS
END
