; Listing generated by Microsoft (R) Optimizing Compiler Version 17.00.51106.1 

	TITLE	C:\Users\Zhitao Li\Documents\Visual Studio 2012\Projects\Freefalcon\UI\SRC\dogfight\dfscores.cpp
	.686P
	.XMM
	include listing.inc
	.model	flat

INCLUDELIB LIBCMT
INCLUDELIB OLDNAMES

PUBLIC	?is_signed@?$numeric_limits@K@std@@2_NB		; std::numeric_limits<unsigned long>::is_signed
PUBLIC	?digits@?$numeric_limits@K@std@@2HB		; std::numeric_limits<unsigned long>::digits
PUBLIC	?digits10@?$numeric_limits@K@std@@2HB		; std::numeric_limits<unsigned long>::digits10
PUBLIC	?is_signed@?$numeric_limits@_J@std@@2_NB	; std::numeric_limits<__int64>::is_signed
PUBLIC	?digits@?$numeric_limits@_J@std@@2HB		; std::numeric_limits<__int64>::digits
PUBLIC	?digits10@?$numeric_limits@_J@std@@2HB		; std::numeric_limits<__int64>::digits10
PUBLIC	?is_signed@?$numeric_limits@_K@std@@2_NB	; std::numeric_limits<unsigned __int64>::is_signed
PUBLIC	?digits@?$numeric_limits@_K@std@@2HB		; std::numeric_limits<unsigned __int64>::digits
PUBLIC	?digits10@?$numeric_limits@_K@std@@2HB		; std::numeric_limits<unsigned __int64>::digits10
PUBLIC	?digits@?$numeric_limits@M@std@@2HB		; std::numeric_limits<float>::digits
PUBLIC	?digits10@?$numeric_limits@M@std@@2HB		; std::numeric_limits<float>::digits10
PUBLIC	?max_digits10@?$numeric_limits@M@std@@2HB	; std::numeric_limits<float>::max_digits10
PUBLIC	?max_exponent@?$numeric_limits@M@std@@2HB	; std::numeric_limits<float>::max_exponent
PUBLIC	?max_exponent10@?$numeric_limits@M@std@@2HB	; std::numeric_limits<float>::max_exponent10
PUBLIC	?min_exponent@?$numeric_limits@M@std@@2HB	; std::numeric_limits<float>::min_exponent
PUBLIC	?min_exponent10@?$numeric_limits@M@std@@2HB	; std::numeric_limits<float>::min_exponent10
PUBLIC	?value@?$integral_constant@I$0A@@std@@2IB	; std::integral_constant<unsigned int,0>::value
PUBLIC	?digits@?$numeric_limits@N@std@@2HB		; std::numeric_limits<double>::digits
PUBLIC	?digits10@?$numeric_limits@N@std@@2HB		; std::numeric_limits<double>::digits10
PUBLIC	?max_digits10@?$numeric_limits@N@std@@2HB	; std::numeric_limits<double>::max_digits10
PUBLIC	?max_exponent@?$numeric_limits@N@std@@2HB	; std::numeric_limits<double>::max_exponent
PUBLIC	?max_exponent10@?$numeric_limits@N@std@@2HB	; std::numeric_limits<double>::max_exponent10
PUBLIC	?min_exponent@?$numeric_limits@N@std@@2HB	; std::numeric_limits<double>::min_exponent
PUBLIC	?min_exponent10@?$numeric_limits@N@std@@2HB	; std::numeric_limits<double>::min_exponent10
PUBLIC	?digits@?$numeric_limits@O@std@@2HB		; std::numeric_limits<long double>::digits
PUBLIC	?digits10@?$numeric_limits@O@std@@2HB		; std::numeric_limits<long double>::digits10
PUBLIC	?max_digits10@?$numeric_limits@O@std@@2HB	; std::numeric_limits<long double>::max_digits10
PUBLIC	?max_exponent@?$numeric_limits@O@std@@2HB	; std::numeric_limits<long double>::max_exponent
PUBLIC	?max_exponent10@?$numeric_limits@O@std@@2HB	; std::numeric_limits<long double>::max_exponent10
PUBLIC	?min_exponent@?$numeric_limits@O@std@@2HB	; std::numeric_limits<long double>::min_exponent
PUBLIC	?min_exponent10@?$numeric_limits@O@std@@2HB	; std::numeric_limits<long double>::min_exponent10
PUBLIC	?skipws@?$_Iosb@H@std@@2W4_Fmtflags@12@B	; std::_Iosb<int>::skipws
PUBLIC	?unitbuf@?$_Iosb@H@std@@2W4_Fmtflags@12@B	; std::_Iosb<int>::unitbuf
PUBLIC	?uppercase@?$_Iosb@H@std@@2W4_Fmtflags@12@B	; std::_Iosb<int>::uppercase
PUBLIC	?showbase@?$_Iosb@H@std@@2W4_Fmtflags@12@B	; std::_Iosb<int>::showbase
PUBLIC	?showpoint@?$_Iosb@H@std@@2W4_Fmtflags@12@B	; std::_Iosb<int>::showpoint
PUBLIC	?showpos@?$_Iosb@H@std@@2W4_Fmtflags@12@B	; std::_Iosb<int>::showpos
PUBLIC	?left@?$_Iosb@H@std@@2W4_Fmtflags@12@B		; std::_Iosb<int>::left
PUBLIC	?right@?$_Iosb@H@std@@2W4_Fmtflags@12@B		; std::_Iosb<int>::right
PUBLIC	?internal@?$_Iosb@H@std@@2W4_Fmtflags@12@B	; std::_Iosb<int>::internal
PUBLIC	?dec@?$_Iosb@H@std@@2W4_Fmtflags@12@B		; std::_Iosb<int>::dec
PUBLIC	?oct@?$_Iosb@H@std@@2W4_Fmtflags@12@B		; std::_Iosb<int>::oct
PUBLIC	?hex@?$_Iosb@H@std@@2W4_Fmtflags@12@B		; std::_Iosb<int>::hex
PUBLIC	?scientific@?$_Iosb@H@std@@2W4_Fmtflags@12@B	; std::_Iosb<int>::scientific
PUBLIC	?fixed@?$_Iosb@H@std@@2W4_Fmtflags@12@B		; std::_Iosb<int>::fixed
PUBLIC	?hexfloat@?$_Iosb@H@std@@2W4_Fmtflags@12@B	; std::_Iosb<int>::hexfloat
PUBLIC	?boolalpha@?$_Iosb@H@std@@2W4_Fmtflags@12@B	; std::_Iosb<int>::boolalpha
PUBLIC	?_Stdio@?$_Iosb@H@std@@2W4_Fmtflags@12@B	; std::_Iosb<int>::_Stdio
PUBLIC	?adjustfield@?$_Iosb@H@std@@2W4_Fmtflags@12@B	; std::_Iosb<int>::adjustfield
PUBLIC	?basefield@?$_Iosb@H@std@@2W4_Fmtflags@12@B	; std::_Iosb<int>::basefield
PUBLIC	?floatfield@?$_Iosb@H@std@@2W4_Fmtflags@12@B	; std::_Iosb<int>::floatfield
PUBLIC	?goodbit@?$_Iosb@H@std@@2W4_Iostate@12@B	; std::_Iosb<int>::goodbit
PUBLIC	?eofbit@?$_Iosb@H@std@@2W4_Iostate@12@B		; std::_Iosb<int>::eofbit
PUBLIC	?failbit@?$_Iosb@H@std@@2W4_Iostate@12@B	; std::_Iosb<int>::failbit
PUBLIC	?badbit@?$_Iosb@H@std@@2W4_Iostate@12@B		; std::_Iosb<int>::badbit
PUBLIC	?_Hardfail@?$_Iosb@H@std@@2W4_Iostate@12@B	; std::_Iosb<int>::_Hardfail
PUBLIC	?in@?$_Iosb@H@std@@2W4_Openmode@12@B		; std::_Iosb<int>::in
PUBLIC	?out@?$_Iosb@H@std@@2W4_Openmode@12@B		; std::_Iosb<int>::out
PUBLIC	?ate@?$_Iosb@H@std@@2W4_Openmode@12@B		; std::_Iosb<int>::ate
PUBLIC	?app@?$_Iosb@H@std@@2W4_Openmode@12@B		; std::_Iosb<int>::app
PUBLIC	?trunc@?$_Iosb@H@std@@2W4_Openmode@12@B		; std::_Iosb<int>::trunc
PUBLIC	?_Nocreate@?$_Iosb@H@std@@2W4_Openmode@12@B	; std::_Iosb<int>::_Nocreate
PUBLIC	?_Noreplace@?$_Iosb@H@std@@2W4_Openmode@12@B	; std::_Iosb<int>::_Noreplace
PUBLIC	?binary@?$_Iosb@H@std@@2W4_Openmode@12@B	; std::_Iosb<int>::binary
PUBLIC	?beg@?$_Iosb@H@std@@2W4_Seekdir@12@B		; std::_Iosb<int>::beg
PUBLIC	?cur@?$_Iosb@H@std@@2W4_Seekdir@12@B		; std::_Iosb<int>::cur
PUBLIC	?end@?$_Iosb@H@std@@2W4_Seekdir@12@B		; std::_Iosb<int>::end
PUBLIC	?value@?$_Sizeof@U_Nil@std@@U12@U12@U12@U12@U12@U12@U12@@std@@2IB ; std::_Sizeof<std::_Nil,std::_Nil,std::_Nil,std::_Nil,std::_Nil,std::_Nil,std::_Nil,std::_Nil>::value
PUBLIC	?_Stream_err@failure@ios_base@std@@0W4io_errc@43@B ; std::ios_base::failure::_Stream_err
PUBLIC	?has_denorm@_Num_base@std@@2W4float_denorm_style@2@B ; std::_Num_base::has_denorm
PUBLIC	?has_denorm_loss@_Num_base@std@@2_NB		; std::_Num_base::has_denorm_loss
PUBLIC	?has_infinity@_Num_base@std@@2_NB		; std::_Num_base::has_infinity
PUBLIC	?has_quiet_NaN@_Num_base@std@@2_NB		; std::_Num_base::has_quiet_NaN
PUBLIC	?has_signaling_NaN@_Num_base@std@@2_NB		; std::_Num_base::has_signaling_NaN
PUBLIC	?is_bounded@_Num_base@std@@2_NB			; std::_Num_base::is_bounded
PUBLIC	?is_exact@_Num_base@std@@2_NB			; std::_Num_base::is_exact
PUBLIC	?is_iec559@_Num_base@std@@2_NB			; std::_Num_base::is_iec559
PUBLIC	?is_integer@_Num_base@std@@2_NB			; std::_Num_base::is_integer
PUBLIC	?is_modulo@_Num_base@std@@2_NB			; std::_Num_base::is_modulo
PUBLIC	?is_signed@_Num_base@std@@2_NB			; std::_Num_base::is_signed
PUBLIC	?is_specialized@_Num_base@std@@2_NB		; std::_Num_base::is_specialized
PUBLIC	?tinyness_before@_Num_base@std@@2_NB		; std::_Num_base::tinyness_before
PUBLIC	?traps@_Num_base@std@@2_NB			; std::_Num_base::traps
PUBLIC	?round_style@_Num_base@std@@2W4float_round_style@2@B ; std::_Num_base::round_style
PUBLIC	?digits@_Num_base@std@@2HB			; std::_Num_base::digits
PUBLIC	?digits10@_Num_base@std@@2HB			; std::_Num_base::digits10
PUBLIC	?max_digits10@_Num_base@std@@2HB		; std::_Num_base::max_digits10
PUBLIC	?max_exponent@_Num_base@std@@2HB		; std::_Num_base::max_exponent
PUBLIC	?max_exponent10@_Num_base@std@@2HB		; std::_Num_base::max_exponent10
PUBLIC	?min_exponent@_Num_base@std@@2HB		; std::_Num_base::min_exponent
PUBLIC	?min_exponent10@_Num_base@std@@2HB		; std::_Num_base::min_exponent10
PUBLIC	?radix@_Num_base@std@@2HB			; std::_Num_base::radix
PUBLIC	?TeamTotals@@3PAY02FA				; TeamTotals
PUBLIC	?TeamUsed@@3PAFA				; TeamUsed
PUBLIC	?TeamRank@@3PAFA				; TeamRank
PUBLIC	?SortedPilotList@@3PAVPilotSortClass@@A		; SortedPilotList
PUBLIC	?DFTeamNameStrIDs@@3PAJA			; DFTeamNameStrIDs
PUBLIC	?DFTeamColors@@3PAKA				; DFTeamColors
PUBLIC	?is_bounded@_Num_int_base@std@@2_NB		; std::_Num_int_base::is_bounded
PUBLIC	?is_exact@_Num_int_base@std@@2_NB		; std::_Num_int_base::is_exact
PUBLIC	?is_integer@_Num_int_base@std@@2_NB		; std::_Num_int_base::is_integer
PUBLIC	?is_modulo@_Num_int_base@std@@2_NB		; std::_Num_int_base::is_modulo
PUBLIC	?is_specialized@_Num_int_base@std@@2_NB		; std::_Num_int_base::is_specialized
PUBLIC	?radix@_Num_int_base@std@@2HB			; std::_Num_int_base::radix
PUBLIC	?has_denorm@_Num_float_base@std@@2W4float_denorm_style@2@B ; std::_Num_float_base::has_denorm
PUBLIC	?has_denorm_loss@_Num_float_base@std@@2_NB	; std::_Num_float_base::has_denorm_loss
PUBLIC	?SIMDIRTYDATA_INTERVAL@FalconEntity@@2KB	; FalconEntity::SIMDIRTYDATA_INTERVAL
PUBLIC	?CMPDIRTYDATA_INTERVAL@FalconEntity@@2KB	; FalconEntity::CMPDIRTYDATA_INTERVAL
PUBLIC	?has_infinity@_Num_float_base@std@@2_NB		; std::_Num_float_base::has_infinity
PUBLIC	?has_quiet_NaN@_Num_float_base@std@@2_NB	; std::_Num_float_base::has_quiet_NaN
PUBLIC	?has_signaling_NaN@_Num_float_base@std@@2_NB	; std::_Num_float_base::has_signaling_NaN
PUBLIC	?is_bounded@_Num_float_base@std@@2_NB		; std::_Num_float_base::is_bounded
PUBLIC	?is_exact@_Num_float_base@std@@2_NB		; std::_Num_float_base::is_exact
PUBLIC	?is_iec559@_Num_float_base@std@@2_NB		; std::_Num_float_base::is_iec559
PUBLIC	?is_integer@_Num_float_base@std@@2_NB		; std::_Num_float_base::is_integer
PUBLIC	?is_modulo@_Num_float_base@std@@2_NB		; std::_Num_float_base::is_modulo
PUBLIC	?is_signed@_Num_float_base@std@@2_NB		; std::_Num_float_base::is_signed
PUBLIC	?is_specialized@_Num_float_base@std@@2_NB	; std::_Num_float_base::is_specialized
PUBLIC	?tinyness_before@_Num_float_base@std@@2_NB	; std::_Num_float_base::tinyness_before
PUBLIC	?traps@_Num_float_base@std@@2_NB		; std::_Num_float_base::traps
PUBLIC	?round_style@_Num_float_base@std@@2W4float_round_style@2@B ; std::_Num_float_base::round_style
PUBLIC	?radix@_Num_float_base@std@@2HB			; std::_Num_float_base::radix
PUBLIC	?is_signed@?$numeric_limits@D@std@@2_NB		; std::numeric_limits<char>::is_signed
PUBLIC	?digits@?$numeric_limits@D@std@@2HB		; std::numeric_limits<char>::digits
PUBLIC	?digits10@?$numeric_limits@D@std@@2HB		; std::numeric_limits<char>::digits10
PUBLIC	?collate@?$_Locbase@H@std@@2HB			; std::_Locbase<int>::collate
PUBLIC	?is_signed@?$numeric_limits@_W@std@@2_NB	; std::numeric_limits<wchar_t>::is_signed
PUBLIC	?ctype@?$_Locbase@H@std@@2HB			; std::_Locbase<int>::ctype
PUBLIC	?monetary@?$_Locbase@H@std@@2HB			; std::_Locbase<int>::monetary
PUBLIC	?digits@?$numeric_limits@_W@std@@2HB		; std::numeric_limits<wchar_t>::digits
PUBLIC	?numeric@?$_Locbase@H@std@@2HB			; std::_Locbase<int>::numeric
PUBLIC	?time@?$_Locbase@H@std@@2HB			; std::_Locbase<int>::time
PUBLIC	?digits10@?$numeric_limits@_W@std@@2HB		; std::numeric_limits<wchar_t>::digits10
PUBLIC	?messages@?$_Locbase@H@std@@2HB			; std::_Locbase<int>::messages
PUBLIC	?all@?$_Locbase@H@std@@2HB			; std::_Locbase<int>::all
PUBLIC	?none@?$_Locbase@H@std@@2HB			; std::_Locbase<int>::none
PUBLIC	?is_modulo@?$numeric_limits@_N@std@@2_NB	; std::numeric_limits<bool>::is_modulo
PUBLIC	?is_signed@?$numeric_limits@_N@std@@2_NB	; std::numeric_limits<bool>::is_signed
PUBLIC	?digits@?$numeric_limits@_N@std@@2HB		; std::numeric_limits<bool>::digits
PUBLIC	?digits10@?$numeric_limits@_N@std@@2HB		; std::numeric_limits<bool>::digits10
PUBLIC	?is_signed@?$numeric_limits@C@std@@2_NB		; std::numeric_limits<signed char>::is_signed
PUBLIC	?digits@?$numeric_limits@C@std@@2HB		; std::numeric_limits<signed char>::digits
PUBLIC	?digits10@?$numeric_limits@C@std@@2HB		; std::numeric_limits<signed char>::digits10
PUBLIC	?is_signed@?$numeric_limits@E@std@@2_NB		; std::numeric_limits<unsigned char>::is_signed
PUBLIC	?value@?$integral_constant@_N$0A@@std@@2_NB	; std::integral_constant<bool,0>::value
PUBLIC	?digits@?$numeric_limits@E@std@@2HB		; std::numeric_limits<unsigned char>::digits
PUBLIC	?digits10@?$numeric_limits@E@std@@2HB		; std::numeric_limits<unsigned char>::digits10
PUBLIC	?table_size@?$ctype@D@std@@2IB			; std::ctype<char>::table_size
PUBLIC	?value@?$integral_constant@_N$00@std@@2_NB	; std::integral_constant<bool,1>::value
PUBLIC	?is_signed@?$numeric_limits@F@std@@2_NB		; std::numeric_limits<short>::is_signed
PUBLIC	?digits@?$numeric_limits@F@std@@2HB		; std::numeric_limits<short>::digits
PUBLIC	?digits10@?$numeric_limits@F@std@@2HB		; std::numeric_limits<short>::digits10
PUBLIC	?is_signed@?$numeric_limits@G@std@@2_NB		; std::numeric_limits<unsigned short>::is_signed
PUBLIC	?digits@?$numeric_limits@G@std@@2HB		; std::numeric_limits<unsigned short>::digits
PUBLIC	?digits10@?$numeric_limits@G@std@@2HB		; std::numeric_limits<unsigned short>::digits10
PUBLIC	?is_signed@?$numeric_limits@H@std@@2_NB		; std::numeric_limits<int>::is_signed
PUBLIC	?value@?$_Sizeof@HU_Nil@std@@U12@U12@U12@U12@U12@U12@@std@@2IB ; std::_Sizeof<int,std::_Nil,std::_Nil,std::_Nil,std::_Nil,std::_Nil,std::_Nil,std::_Nil>::value
PUBLIC	?digits@?$numeric_limits@H@std@@2HB		; std::numeric_limits<int>::digits
PUBLIC	?digits10@?$numeric_limits@H@std@@2HB		; std::numeric_limits<int>::digits10
PUBLIC	?is_signed@?$numeric_limits@I@std@@2_NB		; std::numeric_limits<unsigned int>::is_signed
PUBLIC	?digits@?$numeric_limits@I@std@@2HB		; std::numeric_limits<unsigned int>::digits
PUBLIC	?digits10@?$numeric_limits@I@std@@2HB		; std::numeric_limits<unsigned int>::digits10
PUBLIC	?is_signed@?$numeric_limits@J@std@@2_NB		; std::numeric_limits<long>::is_signed
PUBLIC	?digits@?$numeric_limits@J@std@@2HB		; std::numeric_limits<long>::digits
PUBLIC	?digits10@?$numeric_limits@J@std@@2HB		; std::numeric_limits<long>::digits10
_BSS	SEGMENT
?TeamTotals@@3PAY02FA DW 0fH DUP (?)			; TeamTotals
	ALIGN	4

?TeamUsed@@3PAFA DW 05H DUP (?)				; TeamUsed
	ALIGN	4

?TeamRank@@3PAFA DW 05H DUP (?)				; TeamRank
	ALIGN	4

?SortedPilotList@@3PAVPilotSortClass@@A DD 01H DUP (?)	; SortedPilotList
_BSS	ENDS
;	COMDAT ?digits10@?$numeric_limits@J@std@@2HB
CONST	SEGMENT
?digits10@?$numeric_limits@J@std@@2HB DD 09H		; std::numeric_limits<long>::digits10
CONST	ENDS
;	COMDAT ?digits@?$numeric_limits@J@std@@2HB
CONST	SEGMENT
?digits@?$numeric_limits@J@std@@2HB DD 01fH		; std::numeric_limits<long>::digits
CONST	ENDS
;	COMDAT ?is_signed@?$numeric_limits@J@std@@2_NB
CONST	SEGMENT
?is_signed@?$numeric_limits@J@std@@2_NB DB 01H		; std::numeric_limits<long>::is_signed
CONST	ENDS
;	COMDAT ?digits10@?$numeric_limits@I@std@@2HB
CONST	SEGMENT
?digits10@?$numeric_limits@I@std@@2HB DD 09H		; std::numeric_limits<unsigned int>::digits10
CONST	ENDS
;	COMDAT ?digits@?$numeric_limits@I@std@@2HB
CONST	SEGMENT
?digits@?$numeric_limits@I@std@@2HB DD 020H		; std::numeric_limits<unsigned int>::digits
CONST	ENDS
;	COMDAT ?is_signed@?$numeric_limits@I@std@@2_NB
CONST	SEGMENT
?is_signed@?$numeric_limits@I@std@@2_NB DB 00H		; std::numeric_limits<unsigned int>::is_signed
CONST	ENDS
;	COMDAT ?digits10@?$numeric_limits@H@std@@2HB
CONST	SEGMENT
?digits10@?$numeric_limits@H@std@@2HB DD 09H		; std::numeric_limits<int>::digits10
CONST	ENDS
;	COMDAT ?digits@?$numeric_limits@H@std@@2HB
CONST	SEGMENT
?digits@?$numeric_limits@H@std@@2HB DD 01fH		; std::numeric_limits<int>::digits
CONST	ENDS
;	COMDAT ?value@?$_Sizeof@HU_Nil@std@@U12@U12@U12@U12@U12@U12@@std@@2IB
CONST	SEGMENT
?value@?$_Sizeof@HU_Nil@std@@U12@U12@U12@U12@U12@U12@@std@@2IB DD 01H ; std::_Sizeof<int,std::_Nil,std::_Nil,std::_Nil,std::_Nil,std::_Nil,std::_Nil,std::_Nil>::value
CONST	ENDS
;	COMDAT ?is_signed@?$numeric_limits@H@std@@2_NB
CONST	SEGMENT
?is_signed@?$numeric_limits@H@std@@2_NB DB 01H		; std::numeric_limits<int>::is_signed
CONST	ENDS
;	COMDAT ?digits10@?$numeric_limits@G@std@@2HB
CONST	SEGMENT
?digits10@?$numeric_limits@G@std@@2HB DD 04H		; std::numeric_limits<unsigned short>::digits10
CONST	ENDS
;	COMDAT ?digits@?$numeric_limits@G@std@@2HB
CONST	SEGMENT
?digits@?$numeric_limits@G@std@@2HB DD 010H		; std::numeric_limits<unsigned short>::digits
CONST	ENDS
;	COMDAT ?is_signed@?$numeric_limits@G@std@@2_NB
CONST	SEGMENT
?is_signed@?$numeric_limits@G@std@@2_NB DB 00H		; std::numeric_limits<unsigned short>::is_signed
CONST	ENDS
;	COMDAT ?digits10@?$numeric_limits@F@std@@2HB
CONST	SEGMENT
?digits10@?$numeric_limits@F@std@@2HB DD 04H		; std::numeric_limits<short>::digits10
CONST	ENDS
;	COMDAT ?digits@?$numeric_limits@F@std@@2HB
CONST	SEGMENT
?digits@?$numeric_limits@F@std@@2HB DD 0fH		; std::numeric_limits<short>::digits
CONST	ENDS
;	COMDAT ?is_signed@?$numeric_limits@F@std@@2_NB
CONST	SEGMENT
?is_signed@?$numeric_limits@F@std@@2_NB DB 01H		; std::numeric_limits<short>::is_signed
CONST	ENDS
;	COMDAT ?value@?$integral_constant@_N$00@std@@2_NB
CONST	SEGMENT
?value@?$integral_constant@_N$00@std@@2_NB DB 01H	; std::integral_constant<bool,1>::value
CONST	ENDS
;	COMDAT ?table_size@?$ctype@D@std@@2IB
CONST	SEGMENT
?table_size@?$ctype@D@std@@2IB DD 0100H			; std::ctype<char>::table_size
CONST	ENDS
;	COMDAT ?digits10@?$numeric_limits@E@std@@2HB
CONST	SEGMENT
?digits10@?$numeric_limits@E@std@@2HB DD 02H		; std::numeric_limits<unsigned char>::digits10
CONST	ENDS
;	COMDAT ?digits@?$numeric_limits@E@std@@2HB
CONST	SEGMENT
?digits@?$numeric_limits@E@std@@2HB DD 08H		; std::numeric_limits<unsigned char>::digits
CONST	ENDS
;	COMDAT ?value@?$integral_constant@_N$0A@@std@@2_NB
CONST	SEGMENT
?value@?$integral_constant@_N$0A@@std@@2_NB DB 00H	; std::integral_constant<bool,0>::value
CONST	ENDS
;	COMDAT ?is_signed@?$numeric_limits@E@std@@2_NB
CONST	SEGMENT
?is_signed@?$numeric_limits@E@std@@2_NB DB 00H		; std::numeric_limits<unsigned char>::is_signed
CONST	ENDS
;	COMDAT ?digits10@?$numeric_limits@C@std@@2HB
CONST	SEGMENT
?digits10@?$numeric_limits@C@std@@2HB DD 02H		; std::numeric_limits<signed char>::digits10
CONST	ENDS
;	COMDAT ?digits@?$numeric_limits@C@std@@2HB
CONST	SEGMENT
?digits@?$numeric_limits@C@std@@2HB DD 07H		; std::numeric_limits<signed char>::digits
CONST	ENDS
;	COMDAT ?is_signed@?$numeric_limits@C@std@@2_NB
CONST	SEGMENT
?is_signed@?$numeric_limits@C@std@@2_NB DB 01H		; std::numeric_limits<signed char>::is_signed
CONST	ENDS
CONST	SEGMENT
_L_2	DD	03f317218r			; 0.693147
CONST	ENDS
;	COMDAT ?digits10@?$numeric_limits@_N@std@@2HB
CONST	SEGMENT
?digits10@?$numeric_limits@_N@std@@2HB DD 00H		; std::numeric_limits<bool>::digits10
CONST	ENDS
;	COMDAT ?digits@?$numeric_limits@_N@std@@2HB
CONST	SEGMENT
?digits@?$numeric_limits@_N@std@@2HB DD 01H		; std::numeric_limits<bool>::digits
CONST	ENDS
;	COMDAT ?is_signed@?$numeric_limits@_N@std@@2_NB
CONST	SEGMENT
?is_signed@?$numeric_limits@_N@std@@2_NB DB 00H		; std::numeric_limits<bool>::is_signed
CONST	ENDS
;	COMDAT ?is_modulo@?$numeric_limits@_N@std@@2_NB
CONST	SEGMENT
?is_modulo@?$numeric_limits@_N@std@@2_NB DB 00H		; std::numeric_limits<bool>::is_modulo
CONST	ENDS
;	COMDAT ?none@?$_Locbase@H@std@@2HB
CONST	SEGMENT
?none@?$_Locbase@H@std@@2HB DD 00H			; std::_Locbase<int>::none
CONST	ENDS
;	COMDAT ?all@?$_Locbase@H@std@@2HB
CONST	SEGMENT
?all@?$_Locbase@H@std@@2HB DD 03fH			; std::_Locbase<int>::all
CONST	ENDS
;	COMDAT ?messages@?$_Locbase@H@std@@2HB
CONST	SEGMENT
?messages@?$_Locbase@H@std@@2HB DD 020H			; std::_Locbase<int>::messages
CONST	ENDS
;	COMDAT ?digits10@?$numeric_limits@_W@std@@2HB
CONST	SEGMENT
?digits10@?$numeric_limits@_W@std@@2HB DD 04H		; std::numeric_limits<wchar_t>::digits10
CONST	ENDS
;	COMDAT ?time@?$_Locbase@H@std@@2HB
CONST	SEGMENT
?time@?$_Locbase@H@std@@2HB DD 010H			; std::_Locbase<int>::time
CONST	ENDS
;	COMDAT ?numeric@?$_Locbase@H@std@@2HB
CONST	SEGMENT
?numeric@?$_Locbase@H@std@@2HB DD 08H			; std::_Locbase<int>::numeric
CONST	ENDS
;	COMDAT ?digits@?$numeric_limits@_W@std@@2HB
CONST	SEGMENT
?digits@?$numeric_limits@_W@std@@2HB DD 010H		; std::numeric_limits<wchar_t>::digits
CONST	ENDS
;	COMDAT ?monetary@?$_Locbase@H@std@@2HB
CONST	SEGMENT
?monetary@?$_Locbase@H@std@@2HB DD 04H			; std::_Locbase<int>::monetary
CONST	ENDS
;	COMDAT ?ctype@?$_Locbase@H@std@@2HB
CONST	SEGMENT
?ctype@?$_Locbase@H@std@@2HB DD 02H			; std::_Locbase<int>::ctype
CONST	ENDS
;	COMDAT ?is_signed@?$numeric_limits@_W@std@@2_NB
CONST	SEGMENT
?is_signed@?$numeric_limits@_W@std@@2_NB DB 00H		; std::numeric_limits<wchar_t>::is_signed
CONST	ENDS
;	COMDAT ?collate@?$_Locbase@H@std@@2HB
CONST	SEGMENT
?collate@?$_Locbase@H@std@@2HB DD 01H			; std::_Locbase<int>::collate
CONST	ENDS
;	COMDAT ?digits10@?$numeric_limits@D@std@@2HB
CONST	SEGMENT
?digits10@?$numeric_limits@D@std@@2HB DD 02H		; std::numeric_limits<char>::digits10
CONST	ENDS
;	COMDAT ?digits@?$numeric_limits@D@std@@2HB
CONST	SEGMENT
?digits@?$numeric_limits@D@std@@2HB DD 07H		; std::numeric_limits<char>::digits
CONST	ENDS
;	COMDAT ?is_signed@?$numeric_limits@D@std@@2_NB
CONST	SEGMENT
?is_signed@?$numeric_limits@D@std@@2_NB DB 01H		; std::numeric_limits<char>::is_signed
CONST	ENDS
;	COMDAT ?radix@_Num_float_base@std@@2HB
CONST	SEGMENT
?radix@_Num_float_base@std@@2HB DD 02H			; std::_Num_float_base::radix
CONST	ENDS
;	COMDAT ?round_style@_Num_float_base@std@@2W4float_round_style@2@B
CONST	SEGMENT
?round_style@_Num_float_base@std@@2W4float_round_style@2@B DD 01H ; std::_Num_float_base::round_style
CONST	ENDS
;	COMDAT ?traps@_Num_float_base@std@@2_NB
CONST	SEGMENT
?traps@_Num_float_base@std@@2_NB DB 00H			; std::_Num_float_base::traps
CONST	ENDS
;	COMDAT ?tinyness_before@_Num_float_base@std@@2_NB
CONST	SEGMENT
?tinyness_before@_Num_float_base@std@@2_NB DB 01H	; std::_Num_float_base::tinyness_before
CONST	ENDS
;	COMDAT ?is_specialized@_Num_float_base@std@@2_NB
CONST	SEGMENT
?is_specialized@_Num_float_base@std@@2_NB DB 01H	; std::_Num_float_base::is_specialized
CONST	ENDS
;	COMDAT ?is_signed@_Num_float_base@std@@2_NB
CONST	SEGMENT
?is_signed@_Num_float_base@std@@2_NB DB 01H		; std::_Num_float_base::is_signed
CONST	ENDS
;	COMDAT ?is_modulo@_Num_float_base@std@@2_NB
CONST	SEGMENT
?is_modulo@_Num_float_base@std@@2_NB DB 00H		; std::_Num_float_base::is_modulo
CONST	ENDS
;	COMDAT ?is_integer@_Num_float_base@std@@2_NB
CONST	SEGMENT
?is_integer@_Num_float_base@std@@2_NB DB 00H		; std::_Num_float_base::is_integer
CONST	ENDS
;	COMDAT ?is_iec559@_Num_float_base@std@@2_NB
CONST	SEGMENT
?is_iec559@_Num_float_base@std@@2_NB DB 01H		; std::_Num_float_base::is_iec559
CONST	ENDS
;	COMDAT ?is_exact@_Num_float_base@std@@2_NB
CONST	SEGMENT
?is_exact@_Num_float_base@std@@2_NB DB 00H		; std::_Num_float_base::is_exact
CONST	ENDS
;	COMDAT ?is_bounded@_Num_float_base@std@@2_NB
CONST	SEGMENT
?is_bounded@_Num_float_base@std@@2_NB DB 01H		; std::_Num_float_base::is_bounded
CONST	ENDS
;	COMDAT ?has_signaling_NaN@_Num_float_base@std@@2_NB
CONST	SEGMENT
?has_signaling_NaN@_Num_float_base@std@@2_NB DB 01H	; std::_Num_float_base::has_signaling_NaN
CONST	ENDS
;	COMDAT ?has_quiet_NaN@_Num_float_base@std@@2_NB
CONST	SEGMENT
?has_quiet_NaN@_Num_float_base@std@@2_NB DB 01H		; std::_Num_float_base::has_quiet_NaN
CONST	ENDS
;	COMDAT ?has_infinity@_Num_float_base@std@@2_NB
CONST	SEGMENT
?has_infinity@_Num_float_base@std@@2_NB DB 01H		; std::_Num_float_base::has_infinity
CONST	ENDS
;	COMDAT ?CMPDIRTYDATA_INTERVAL@FalconEntity@@2KB
CONST	SEGMENT
?CMPDIRTYDATA_INTERVAL@FalconEntity@@2KB DD 0c8H	; FalconEntity::CMPDIRTYDATA_INTERVAL
CONST	ENDS
;	COMDAT ?SIMDIRTYDATA_INTERVAL@FalconEntity@@2KB
CONST	SEGMENT
?SIMDIRTYDATA_INTERVAL@FalconEntity@@2KB DD 0c8H	; FalconEntity::SIMDIRTYDATA_INTERVAL
CONST	ENDS
;	COMDAT ?has_denorm_loss@_Num_float_base@std@@2_NB
CONST	SEGMENT
?has_denorm_loss@_Num_float_base@std@@2_NB DB 01H	; std::_Num_float_base::has_denorm_loss
CONST	ENDS
;	COMDAT ?has_denorm@_Num_float_base@std@@2W4float_denorm_style@2@B
CONST	SEGMENT
?has_denorm@_Num_float_base@std@@2W4float_denorm_style@2@B DD 01H ; std::_Num_float_base::has_denorm
CONST	ENDS
;	COMDAT ?radix@_Num_int_base@std@@2HB
CONST	SEGMENT
?radix@_Num_int_base@std@@2HB DD 02H			; std::_Num_int_base::radix
CONST	ENDS
;	COMDAT ?is_specialized@_Num_int_base@std@@2_NB
CONST	SEGMENT
?is_specialized@_Num_int_base@std@@2_NB DB 01H		; std::_Num_int_base::is_specialized
CONST	ENDS
;	COMDAT ?is_modulo@_Num_int_base@std@@2_NB
CONST	SEGMENT
?is_modulo@_Num_int_base@std@@2_NB DB 01H		; std::_Num_int_base::is_modulo
CONST	ENDS
;	COMDAT ?is_integer@_Num_int_base@std@@2_NB
CONST	SEGMENT
?is_integer@_Num_int_base@std@@2_NB DB 01H		; std::_Num_int_base::is_integer
CONST	ENDS
;	COMDAT ?is_exact@_Num_int_base@std@@2_NB
CONST	SEGMENT
?is_exact@_Num_int_base@std@@2_NB DB 01H		; std::_Num_int_base::is_exact
CONST	ENDS
;	COMDAT ?is_bounded@_Num_int_base@std@@2_NB
CONST	SEGMENT
?is_bounded@_Num_int_base@std@@2_NB DB 01H		; std::_Num_int_base::is_bounded
CONST	ENDS
_DATA	SEGMENT
?DFTeamNameStrIDs@@3PAJA DD 00H				; DFTeamNameStrIDs
	DD	0cH
	DD	01dH
	DD	01eH
	DD	01fH
?DFTeamColors@@3PAKA DD 0ffffffH			; DFTeamColors
	DD	02303c1H
	DD	0918316H
	DD	0ffffffH
	DD	03c0e8H
_DATA	ENDS
;	COMDAT ?radix@_Num_base@std@@2HB
CONST	SEGMENT
?radix@_Num_base@std@@2HB DD 00H			; std::_Num_base::radix
CONST	ENDS
;	COMDAT ?min_exponent10@_Num_base@std@@2HB
CONST	SEGMENT
?min_exponent10@_Num_base@std@@2HB DD 00H		; std::_Num_base::min_exponent10
CONST	ENDS
;	COMDAT ?min_exponent@_Num_base@std@@2HB
CONST	SEGMENT
?min_exponent@_Num_base@std@@2HB DD 00H			; std::_Num_base::min_exponent
CONST	ENDS
;	COMDAT ?max_exponent10@_Num_base@std@@2HB
CONST	SEGMENT
?max_exponent10@_Num_base@std@@2HB DD 00H		; std::_Num_base::max_exponent10
CONST	ENDS
;	COMDAT ?max_exponent@_Num_base@std@@2HB
CONST	SEGMENT
?max_exponent@_Num_base@std@@2HB DD 00H			; std::_Num_base::max_exponent
CONST	ENDS
;	COMDAT ?max_digits10@_Num_base@std@@2HB
CONST	SEGMENT
?max_digits10@_Num_base@std@@2HB DD 00H			; std::_Num_base::max_digits10
CONST	ENDS
;	COMDAT ?digits10@_Num_base@std@@2HB
CONST	SEGMENT
?digits10@_Num_base@std@@2HB DD 00H			; std::_Num_base::digits10
CONST	ENDS
;	COMDAT ?digits@_Num_base@std@@2HB
CONST	SEGMENT
?digits@_Num_base@std@@2HB DD 00H			; std::_Num_base::digits
CONST	ENDS
;	COMDAT ?round_style@_Num_base@std@@2W4float_round_style@2@B
CONST	SEGMENT
?round_style@_Num_base@std@@2W4float_round_style@2@B DD 00H ; std::_Num_base::round_style
CONST	ENDS
;	COMDAT ?traps@_Num_base@std@@2_NB
CONST	SEGMENT
?traps@_Num_base@std@@2_NB DB 00H			; std::_Num_base::traps
CONST	ENDS
;	COMDAT ?tinyness_before@_Num_base@std@@2_NB
CONST	SEGMENT
?tinyness_before@_Num_base@std@@2_NB DB 00H		; std::_Num_base::tinyness_before
CONST	ENDS
;	COMDAT ?is_specialized@_Num_base@std@@2_NB
CONST	SEGMENT
?is_specialized@_Num_base@std@@2_NB DB 00H		; std::_Num_base::is_specialized
CONST	ENDS
;	COMDAT ?is_signed@_Num_base@std@@2_NB
CONST	SEGMENT
?is_signed@_Num_base@std@@2_NB DB 00H			; std::_Num_base::is_signed
CONST	ENDS
;	COMDAT ?is_modulo@_Num_base@std@@2_NB
CONST	SEGMENT
?is_modulo@_Num_base@std@@2_NB DB 00H			; std::_Num_base::is_modulo
CONST	ENDS
;	COMDAT ?is_integer@_Num_base@std@@2_NB
CONST	SEGMENT
?is_integer@_Num_base@std@@2_NB DB 00H			; std::_Num_base::is_integer
CONST	ENDS
;	COMDAT ?is_iec559@_Num_base@std@@2_NB
CONST	SEGMENT
?is_iec559@_Num_base@std@@2_NB DB 00H			; std::_Num_base::is_iec559
CONST	ENDS
;	COMDAT ?is_exact@_Num_base@std@@2_NB
CONST	SEGMENT
?is_exact@_Num_base@std@@2_NB DB 00H			; std::_Num_base::is_exact
CONST	ENDS
;	COMDAT ?is_bounded@_Num_base@std@@2_NB
CONST	SEGMENT
?is_bounded@_Num_base@std@@2_NB DB 00H			; std::_Num_base::is_bounded
CONST	ENDS
;	COMDAT ?has_signaling_NaN@_Num_base@std@@2_NB
CONST	SEGMENT
?has_signaling_NaN@_Num_base@std@@2_NB DB 00H		; std::_Num_base::has_signaling_NaN
CONST	ENDS
;	COMDAT ?has_quiet_NaN@_Num_base@std@@2_NB
CONST	SEGMENT
?has_quiet_NaN@_Num_base@std@@2_NB DB 00H		; std::_Num_base::has_quiet_NaN
CONST	ENDS
;	COMDAT ?has_infinity@_Num_base@std@@2_NB
CONST	SEGMENT
?has_infinity@_Num_base@std@@2_NB DB 00H		; std::_Num_base::has_infinity
CONST	ENDS
;	COMDAT ?has_denorm_loss@_Num_base@std@@2_NB
CONST	SEGMENT
?has_denorm_loss@_Num_base@std@@2_NB DB 00H		; std::_Num_base::has_denorm_loss
CONST	ENDS
;	COMDAT ?has_denorm@_Num_base@std@@2W4float_denorm_style@2@B
CONST	SEGMENT
?has_denorm@_Num_base@std@@2W4float_denorm_style@2@B DD 00H ; std::_Num_base::has_denorm
CONST	ENDS
;	COMDAT ?_Stream_err@failure@ios_base@std@@0W4io_errc@43@B
CONST	SEGMENT
?_Stream_err@failure@ios_base@std@@0W4io_errc@43@B DD 01H ; std::ios_base::failure::_Stream_err
CONST	ENDS
;	COMDAT ?value@?$_Sizeof@U_Nil@std@@U12@U12@U12@U12@U12@U12@U12@@std@@2IB
CONST	SEGMENT
?value@?$_Sizeof@U_Nil@std@@U12@U12@U12@U12@U12@U12@U12@@std@@2IB DD 00H ; std::_Sizeof<std::_Nil,std::_Nil,std::_Nil,std::_Nil,std::_Nil,std::_Nil,std::_Nil,std::_Nil>::value
CONST	ENDS
;	COMDAT ?end@?$_Iosb@H@std@@2W4_Seekdir@12@B
CONST	SEGMENT
?end@?$_Iosb@H@std@@2W4_Seekdir@12@B DD 02H		; std::_Iosb<int>::end
CONST	ENDS
;	COMDAT ?cur@?$_Iosb@H@std@@2W4_Seekdir@12@B
CONST	SEGMENT
?cur@?$_Iosb@H@std@@2W4_Seekdir@12@B DD 01H		; std::_Iosb<int>::cur
CONST	ENDS
;	COMDAT ?beg@?$_Iosb@H@std@@2W4_Seekdir@12@B
CONST	SEGMENT
?beg@?$_Iosb@H@std@@2W4_Seekdir@12@B DD 00H		; std::_Iosb<int>::beg
CONST	ENDS
;	COMDAT ?binary@?$_Iosb@H@std@@2W4_Openmode@12@B
CONST	SEGMENT
?binary@?$_Iosb@H@std@@2W4_Openmode@12@B DD 020H	; std::_Iosb<int>::binary
CONST	ENDS
;	COMDAT ?_Noreplace@?$_Iosb@H@std@@2W4_Openmode@12@B
CONST	SEGMENT
?_Noreplace@?$_Iosb@H@std@@2W4_Openmode@12@B DD 080H	; std::_Iosb<int>::_Noreplace
CONST	ENDS
;	COMDAT ?_Nocreate@?$_Iosb@H@std@@2W4_Openmode@12@B
CONST	SEGMENT
?_Nocreate@?$_Iosb@H@std@@2W4_Openmode@12@B DD 040H	; std::_Iosb<int>::_Nocreate
CONST	ENDS
;	COMDAT ?trunc@?$_Iosb@H@std@@2W4_Openmode@12@B
CONST	SEGMENT
?trunc@?$_Iosb@H@std@@2W4_Openmode@12@B DD 010H		; std::_Iosb<int>::trunc
CONST	ENDS
;	COMDAT ?app@?$_Iosb@H@std@@2W4_Openmode@12@B
CONST	SEGMENT
?app@?$_Iosb@H@std@@2W4_Openmode@12@B DD 08H		; std::_Iosb<int>::app
CONST	ENDS
;	COMDAT ?ate@?$_Iosb@H@std@@2W4_Openmode@12@B
CONST	SEGMENT
?ate@?$_Iosb@H@std@@2W4_Openmode@12@B DD 04H		; std::_Iosb<int>::ate
CONST	ENDS
;	COMDAT ?out@?$_Iosb@H@std@@2W4_Openmode@12@B
CONST	SEGMENT
?out@?$_Iosb@H@std@@2W4_Openmode@12@B DD 02H		; std::_Iosb<int>::out
CONST	ENDS
;	COMDAT ?in@?$_Iosb@H@std@@2W4_Openmode@12@B
CONST	SEGMENT
?in@?$_Iosb@H@std@@2W4_Openmode@12@B DD 01H		; std::_Iosb<int>::in
CONST	ENDS
;	COMDAT ?_Hardfail@?$_Iosb@H@std@@2W4_Iostate@12@B
CONST	SEGMENT
?_Hardfail@?$_Iosb@H@std@@2W4_Iostate@12@B DD 010H	; std::_Iosb<int>::_Hardfail
CONST	ENDS
;	COMDAT ?badbit@?$_Iosb@H@std@@2W4_Iostate@12@B
CONST	SEGMENT
?badbit@?$_Iosb@H@std@@2W4_Iostate@12@B DD 04H		; std::_Iosb<int>::badbit
CONST	ENDS
;	COMDAT ?failbit@?$_Iosb@H@std@@2W4_Iostate@12@B
CONST	SEGMENT
?failbit@?$_Iosb@H@std@@2W4_Iostate@12@B DD 02H		; std::_Iosb<int>::failbit
CONST	ENDS
;	COMDAT ?eofbit@?$_Iosb@H@std@@2W4_Iostate@12@B
CONST	SEGMENT
?eofbit@?$_Iosb@H@std@@2W4_Iostate@12@B DD 01H		; std::_Iosb<int>::eofbit
CONST	ENDS
;	COMDAT ?goodbit@?$_Iosb@H@std@@2W4_Iostate@12@B
CONST	SEGMENT
?goodbit@?$_Iosb@H@std@@2W4_Iostate@12@B DD 00H		; std::_Iosb<int>::goodbit
CONST	ENDS
;	COMDAT ?floatfield@?$_Iosb@H@std@@2W4_Fmtflags@12@B
CONST	SEGMENT
?floatfield@?$_Iosb@H@std@@2W4_Fmtflags@12@B DD 03000H	; std::_Iosb<int>::floatfield
CONST	ENDS
;	COMDAT ?basefield@?$_Iosb@H@std@@2W4_Fmtflags@12@B
CONST	SEGMENT
?basefield@?$_Iosb@H@std@@2W4_Fmtflags@12@B DD 0e00H	; std::_Iosb<int>::basefield
CONST	ENDS
;	COMDAT ?adjustfield@?$_Iosb@H@std@@2W4_Fmtflags@12@B
CONST	SEGMENT
?adjustfield@?$_Iosb@H@std@@2W4_Fmtflags@12@B DD 01c0H	; std::_Iosb<int>::adjustfield
CONST	ENDS
;	COMDAT ?_Stdio@?$_Iosb@H@std@@2W4_Fmtflags@12@B
CONST	SEGMENT
?_Stdio@?$_Iosb@H@std@@2W4_Fmtflags@12@B DD 08000H	; std::_Iosb<int>::_Stdio
CONST	ENDS
;	COMDAT ?boolalpha@?$_Iosb@H@std@@2W4_Fmtflags@12@B
CONST	SEGMENT
?boolalpha@?$_Iosb@H@std@@2W4_Fmtflags@12@B DD 04000H	; std::_Iosb<int>::boolalpha
CONST	ENDS
;	COMDAT ?hexfloat@?$_Iosb@H@std@@2W4_Fmtflags@12@B
CONST	SEGMENT
?hexfloat@?$_Iosb@H@std@@2W4_Fmtflags@12@B DD 03000H	; std::_Iosb<int>::hexfloat
CONST	ENDS
;	COMDAT ?fixed@?$_Iosb@H@std@@2W4_Fmtflags@12@B
CONST	SEGMENT
?fixed@?$_Iosb@H@std@@2W4_Fmtflags@12@B DD 02000H	; std::_Iosb<int>::fixed
CONST	ENDS
;	COMDAT ?scientific@?$_Iosb@H@std@@2W4_Fmtflags@12@B
CONST	SEGMENT
?scientific@?$_Iosb@H@std@@2W4_Fmtflags@12@B DD 01000H	; std::_Iosb<int>::scientific
CONST	ENDS
;	COMDAT ?hex@?$_Iosb@H@std@@2W4_Fmtflags@12@B
CONST	SEGMENT
?hex@?$_Iosb@H@std@@2W4_Fmtflags@12@B DD 0800H		; std::_Iosb<int>::hex
CONST	ENDS
;	COMDAT ?oct@?$_Iosb@H@std@@2W4_Fmtflags@12@B
CONST	SEGMENT
?oct@?$_Iosb@H@std@@2W4_Fmtflags@12@B DD 0400H		; std::_Iosb<int>::oct
CONST	ENDS
;	COMDAT ?dec@?$_Iosb@H@std@@2W4_Fmtflags@12@B
CONST	SEGMENT
?dec@?$_Iosb@H@std@@2W4_Fmtflags@12@B DD 0200H		; std::_Iosb<int>::dec
CONST	ENDS
;	COMDAT ?internal@?$_Iosb@H@std@@2W4_Fmtflags@12@B
CONST	SEGMENT
?internal@?$_Iosb@H@std@@2W4_Fmtflags@12@B DD 0100H	; std::_Iosb<int>::internal
CONST	ENDS
;	COMDAT ?right@?$_Iosb@H@std@@2W4_Fmtflags@12@B
CONST	SEGMENT
?right@?$_Iosb@H@std@@2W4_Fmtflags@12@B DD 080H		; std::_Iosb<int>::right
CONST	ENDS
;	COMDAT ?left@?$_Iosb@H@std@@2W4_Fmtflags@12@B
CONST	SEGMENT
?left@?$_Iosb@H@std@@2W4_Fmtflags@12@B DD 040H		; std::_Iosb<int>::left
CONST	ENDS
;	COMDAT ?showpos@?$_Iosb@H@std@@2W4_Fmtflags@12@B
CONST	SEGMENT
?showpos@?$_Iosb@H@std@@2W4_Fmtflags@12@B DD 020H	; std::_Iosb<int>::showpos
CONST	ENDS
;	COMDAT ?showpoint@?$_Iosb@H@std@@2W4_Fmtflags@12@B
CONST	SEGMENT
?showpoint@?$_Iosb@H@std@@2W4_Fmtflags@12@B DD 010H	; std::_Iosb<int>::showpoint
CONST	ENDS
;	COMDAT ?showbase@?$_Iosb@H@std@@2W4_Fmtflags@12@B
CONST	SEGMENT
?showbase@?$_Iosb@H@std@@2W4_Fmtflags@12@B DD 08H	; std::_Iosb<int>::showbase
CONST	ENDS
;	COMDAT ?uppercase@?$_Iosb@H@std@@2W4_Fmtflags@12@B
CONST	SEGMENT
?uppercase@?$_Iosb@H@std@@2W4_Fmtflags@12@B DD 04H	; std::_Iosb<int>::uppercase
CONST	ENDS
;	COMDAT ?unitbuf@?$_Iosb@H@std@@2W4_Fmtflags@12@B
CONST	SEGMENT
?unitbuf@?$_Iosb@H@std@@2W4_Fmtflags@12@B DD 02H	; std::_Iosb<int>::unitbuf
CONST	ENDS
;	COMDAT ?skipws@?$_Iosb@H@std@@2W4_Fmtflags@12@B
CONST	SEGMENT
?skipws@?$_Iosb@H@std@@2W4_Fmtflags@12@B DD 01H		; std::_Iosb<int>::skipws
CONST	ENDS
;	COMDAT ?min_exponent10@?$numeric_limits@O@std@@2HB
CONST	SEGMENT
?min_exponent10@?$numeric_limits@O@std@@2HB DD 0fffffecdH ; std::numeric_limits<long double>::min_exponent10
CONST	ENDS
;	COMDAT ?min_exponent@?$numeric_limits@O@std@@2HB
CONST	SEGMENT
?min_exponent@?$numeric_limits@O@std@@2HB DD 0fffffc03H	; std::numeric_limits<long double>::min_exponent
CONST	ENDS
;	COMDAT ?max_exponent10@?$numeric_limits@O@std@@2HB
CONST	SEGMENT
?max_exponent10@?$numeric_limits@O@std@@2HB DD 0134H	; std::numeric_limits<long double>::max_exponent10
CONST	ENDS
;	COMDAT ?max_exponent@?$numeric_limits@O@std@@2HB
CONST	SEGMENT
?max_exponent@?$numeric_limits@O@std@@2HB DD 0400H	; std::numeric_limits<long double>::max_exponent
CONST	ENDS
;	COMDAT ?max_digits10@?$numeric_limits@O@std@@2HB
CONST	SEGMENT
?max_digits10@?$numeric_limits@O@std@@2HB DD 011H	; std::numeric_limits<long double>::max_digits10
CONST	ENDS
;	COMDAT ?digits10@?$numeric_limits@O@std@@2HB
CONST	SEGMENT
?digits10@?$numeric_limits@O@std@@2HB DD 0fH		; std::numeric_limits<long double>::digits10
CONST	ENDS
;	COMDAT ?digits@?$numeric_limits@O@std@@2HB
CONST	SEGMENT
?digits@?$numeric_limits@O@std@@2HB DD 035H		; std::numeric_limits<long double>::digits
CONST	ENDS
;	COMDAT ?min_exponent10@?$numeric_limits@N@std@@2HB
CONST	SEGMENT
?min_exponent10@?$numeric_limits@N@std@@2HB DD 0fffffecdH ; std::numeric_limits<double>::min_exponent10
CONST	ENDS
;	COMDAT ?min_exponent@?$numeric_limits@N@std@@2HB
CONST	SEGMENT
?min_exponent@?$numeric_limits@N@std@@2HB DD 0fffffc03H	; std::numeric_limits<double>::min_exponent
CONST	ENDS
;	COMDAT ?max_exponent10@?$numeric_limits@N@std@@2HB
CONST	SEGMENT
?max_exponent10@?$numeric_limits@N@std@@2HB DD 0134H	; std::numeric_limits<double>::max_exponent10
CONST	ENDS
;	COMDAT ?max_exponent@?$numeric_limits@N@std@@2HB
CONST	SEGMENT
?max_exponent@?$numeric_limits@N@std@@2HB DD 0400H	; std::numeric_limits<double>::max_exponent
CONST	ENDS
;	COMDAT ?max_digits10@?$numeric_limits@N@std@@2HB
CONST	SEGMENT
?max_digits10@?$numeric_limits@N@std@@2HB DD 011H	; std::numeric_limits<double>::max_digits10
CONST	ENDS
;	COMDAT ?digits10@?$numeric_limits@N@std@@2HB
CONST	SEGMENT
?digits10@?$numeric_limits@N@std@@2HB DD 0fH		; std::numeric_limits<double>::digits10
CONST	ENDS
;	COMDAT ?digits@?$numeric_limits@N@std@@2HB
CONST	SEGMENT
?digits@?$numeric_limits@N@std@@2HB DD 035H		; std::numeric_limits<double>::digits
CONST	ENDS
;	COMDAT ?value@?$integral_constant@I$0A@@std@@2IB
CONST	SEGMENT
?value@?$integral_constant@I$0A@@std@@2IB DD 00H	; std::integral_constant<unsigned int,0>::value
CONST	ENDS
;	COMDAT ?min_exponent10@?$numeric_limits@M@std@@2HB
CONST	SEGMENT
?min_exponent10@?$numeric_limits@M@std@@2HB DD 0ffffffdbH ; std::numeric_limits<float>::min_exponent10
CONST	ENDS
;	COMDAT ?min_exponent@?$numeric_limits@M@std@@2HB
CONST	SEGMENT
?min_exponent@?$numeric_limits@M@std@@2HB DD 0ffffff83H	; std::numeric_limits<float>::min_exponent
CONST	ENDS
;	COMDAT ?max_exponent10@?$numeric_limits@M@std@@2HB
CONST	SEGMENT
?max_exponent10@?$numeric_limits@M@std@@2HB DD 026H	; std::numeric_limits<float>::max_exponent10
CONST	ENDS
;	COMDAT ?max_exponent@?$numeric_limits@M@std@@2HB
CONST	SEGMENT
?max_exponent@?$numeric_limits@M@std@@2HB DD 080H	; std::numeric_limits<float>::max_exponent
CONST	ENDS
;	COMDAT ?max_digits10@?$numeric_limits@M@std@@2HB
CONST	SEGMENT
?max_digits10@?$numeric_limits@M@std@@2HB DD 09H	; std::numeric_limits<float>::max_digits10
CONST	ENDS
;	COMDAT ?digits10@?$numeric_limits@M@std@@2HB
CONST	SEGMENT
?digits10@?$numeric_limits@M@std@@2HB DD 06H		; std::numeric_limits<float>::digits10
CONST	ENDS
;	COMDAT ?digits@?$numeric_limits@M@std@@2HB
CONST	SEGMENT
?digits@?$numeric_limits@M@std@@2HB DD 018H		; std::numeric_limits<float>::digits
CONST	ENDS
;	COMDAT ?digits10@?$numeric_limits@_K@std@@2HB
CONST	SEGMENT
?digits10@?$numeric_limits@_K@std@@2HB DD 013H		; std::numeric_limits<unsigned __int64>::digits10
CONST	ENDS
;	COMDAT ?digits@?$numeric_limits@_K@std@@2HB
CONST	SEGMENT
?digits@?$numeric_limits@_K@std@@2HB DD 040H		; std::numeric_limits<unsigned __int64>::digits
CONST	ENDS
;	COMDAT ?is_signed@?$numeric_limits@_K@std@@2_NB
CONST	SEGMENT
?is_signed@?$numeric_limits@_K@std@@2_NB DB 00H		; std::numeric_limits<unsigned __int64>::is_signed
CONST	ENDS
;	COMDAT ?digits10@?$numeric_limits@_J@std@@2HB
CONST	SEGMENT
?digits10@?$numeric_limits@_J@std@@2HB DD 012H		; std::numeric_limits<__int64>::digits10
CONST	ENDS
;	COMDAT ?digits@?$numeric_limits@_J@std@@2HB
CONST	SEGMENT
?digits@?$numeric_limits@_J@std@@2HB DD 03fH		; std::numeric_limits<__int64>::digits
CONST	ENDS
;	COMDAT ?is_signed@?$numeric_limits@_J@std@@2_NB
CONST	SEGMENT
?is_signed@?$numeric_limits@_J@std@@2_NB DB 01H		; std::numeric_limits<__int64>::is_signed
CONST	ENDS
;	COMDAT ?digits10@?$numeric_limits@K@std@@2HB
CONST	SEGMENT
?digits10@?$numeric_limits@K@std@@2HB DD 09H		; std::numeric_limits<unsigned long>::digits10
CONST	ENDS
;	COMDAT ?digits@?$numeric_limits@K@std@@2HB
CONST	SEGMENT
?digits@?$numeric_limits@K@std@@2HB DD 020H		; std::numeric_limits<unsigned long>::digits
CONST	ENDS
;	COMDAT ?is_signed@?$numeric_limits@K@std@@2_NB
CONST	SEGMENT
?is_signed@?$numeric_limits@K@std@@2_NB DB 00H		; std::numeric_limits<unsigned long>::is_signed
CONST	ENDS
PUBLIC	__tcsclen
PUBLIC	??2@YAPAXIPAX@Z					; operator new
PUBLIC	??3@YAXPAX0@Z					; operator delete
PUBLIC	?length@?$char_traits@D@std@@SAIPBD@Z		; std::char_traits<char>::length
PUBLIC	?copy@?$char_traits@D@std@@SAPADPADPBDI@Z	; std::char_traits<char>::copy
PUBLIC	?move@?$char_traits@D@std@@SAPADPADPBDI@Z	; std::char_traits<char>::move
PUBLIC	?assign@?$char_traits@D@std@@SAXAADABD@Z	; std::char_traits<char>::assign
PUBLIC	??0?$allocator@D@std@@QAE@XZ			; std::allocator<char>::allocator<char>
PUBLIC	?deallocate@?$allocator@D@std@@QAEXPADI@Z	; std::allocator<char>::deallocate
PUBLIC	?allocate@?$allocator@D@std@@QAEPADI@Z		; std::allocator<char>::allocate
PUBLIC	?max_size@?$allocator@D@std@@QBEIXZ		; std::allocator<char>::max_size
PUBLIC	?max_size@?$allocator_traits@V?$allocator@D@std@@@std@@SAIABV?$allocator@D@2@@Z ; std::allocator_traits<std::allocator<char> >::max_size
PUBLIC	??0?$_Wrap_alloc@V?$allocator@D@std@@@std@@QAE@XZ ; std::_Wrap_alloc<std::allocator<char> >::_Wrap_alloc<std::allocator<char> >
PUBLIC	?allocate@?$_Wrap_alloc@V?$allocator@D@std@@@std@@QAEPADI@Z ; std::_Wrap_alloc<std::allocator<char> >::allocate
PUBLIC	?deallocate@?$_Wrap_alloc@V?$allocator@D@std@@@std@@QAEXPADI@Z ; std::_Wrap_alloc<std::allocator<char> >::deallocate
PUBLIC	?max_size@?$_Wrap_alloc@V?$allocator@D@std@@@std@@QBEIXZ ; std::_Wrap_alloc<std::allocator<char> >::max_size
PUBLIC	??0?$_String_val@U?$_Simple_types@D@std@@@std@@QAE@XZ ; std::_String_val<std::_Simple_types<char> >::_String_val<std::_Simple_types<char> >
PUBLIC	?_Myptr@?$_String_val@U?$_Simple_types@D@std@@@std@@QAEPADXZ ; std::_String_val<std::_Simple_types<char> >::_Myptr
PUBLIC	?_Myptr@?$_String_val@U?$_Simple_types@D@std@@@std@@QBEPBDXZ ; std::_String_val<std::_Simple_types<char> >::_Myptr
PUBLIC	??0?$_String_alloc@$0A@U?$_String_base_types@DV?$allocator@D@std@@@std@@@std@@QAE@ABV?$allocator@D@1@@Z ; std::_String_alloc<0,std::_String_base_types<char,std::allocator<char> > >::_String_alloc<0,std::_String_base_types<char,std::allocator<char> > >
PUBLIC	?_Getal@?$_String_alloc@$0A@U?$_String_base_types@DV?$allocator@D@std@@@std@@@std@@QBE?AU?$_Wrap_alloc@V?$allocator@D@std@@@2@XZ ; std::_String_alloc<0,std::_String_base_types<char,std::allocator<char> > >::_Getal
PUBLIC	??0?$basic_string@DU?$char_traits@D@std@@V?$allocator@D@2@@std@@QAE@PBD@Z ; std::basic_string<char,std::char_traits<char>,std::allocator<char> >::basic_string<char,std::char_traits<char>,std::allocator<char> >
PUBLIC	?assign@?$basic_string@DU?$char_traits@D@std@@V?$allocator@D@2@@std@@QAEAAV12@ABV12@II@Z ; std::basic_string<char,std::char_traits<char>,std::allocator<char> >::assign
PUBLIC	?assign@?$basic_string@DU?$char_traits@D@std@@V?$allocator@D@2@@std@@QAEAAV12@PBDI@Z ; std::basic_string<char,std::char_traits<char>,std::allocator<char> >::assign
PUBLIC	?assign@?$basic_string@DU?$char_traits@D@std@@V?$allocator@D@2@@std@@QAEAAV12@PBD@Z ; std::basic_string<char,std::char_traits<char>,std::allocator<char> >::assign
PUBLIC	?erase@?$basic_string@DU?$char_traits@D@std@@V?$allocator@D@2@@std@@QAEAAV12@I@Z ; std::basic_string<char,std::char_traits<char>,std::allocator<char> >::erase
PUBLIC	?erase@?$basic_string@DU?$char_traits@D@std@@V?$allocator@D@2@@std@@QAEAAV12@II@Z ; std::basic_string<char,std::char_traits<char>,std::allocator<char> >::erase
PUBLIC	?size@?$basic_string@DU?$char_traits@D@std@@V?$allocator@D@2@@std@@QBEIXZ ; std::basic_string<char,std::char_traits<char>,std::allocator<char> >::size
PUBLIC	?max_size@?$basic_string@DU?$char_traits@D@std@@V?$allocator@D@2@@std@@QBEIXZ ; std::basic_string<char,std::char_traits<char>,std::allocator<char> >::max_size
PUBLIC	?_Copy@?$basic_string@DU?$char_traits@D@std@@V?$allocator@D@2@@std@@QAEXII@Z ; std::basic_string<char,std::char_traits<char>,std::allocator<char> >::_Copy
PUBLIC	?_Eos@?$basic_string@DU?$char_traits@D@std@@V?$allocator@D@2@@std@@QAEXI@Z ; std::basic_string<char,std::char_traits<char>,std::allocator<char> >::_Eos
PUBLIC	?_Grow@?$basic_string@DU?$char_traits@D@std@@V?$allocator@D@2@@std@@QAE_NI_N@Z ; std::basic_string<char,std::char_traits<char>,std::allocator<char> >::_Grow
PUBLIC	?_Inside@?$basic_string@DU?$char_traits@D@std@@V?$allocator@D@2@@std@@QAE_NPBD@Z ; std::basic_string<char,std::char_traits<char>,std::allocator<char> >::_Inside
PUBLIC	?_Tidy@?$basic_string@DU?$char_traits@D@std@@V?$allocator@D@2@@std@@QAEX_NI@Z ; std::basic_string<char,std::char_traits<char>,std::allocator<char> >::_Tidy
PUBLIC	?_Xlen@?$basic_string@DU?$char_traits@D@std@@V?$allocator@D@2@@std@@QBEXXZ ; std::basic_string<char,std::char_traits<char>,std::allocator<char> >::_Xlen
PUBLIC	?_Xran@?$basic_string@DU?$char_traits@D@std@@V?$allocator@D@2@@std@@QBEXXZ ; std::basic_string<char,std::char_traits<char>,std::allocator<char> >::_Xran
PUBLIC	?get@?$VuBin@VVuSessionEntity@@@@QBEPAVVuSessionEntity@@XZ ; VuBin<VuSessionEntity>::get
PUBLIC	?GetCountry@FalconSessionEntity@@QBEEXZ		; FalconSessionEntity::GetCountry
PUBLIC	??0id@locale@std@@QAE@I@Z			; std::locale::id::id
PUBLIC	?generic_category@std@@YAABVerror_category@1@XZ	; std::generic_category
PUBLIC	?system_category@std@@YAABVerror_category@1@XZ	; std::system_category
PUBLIC	??0error_category@std@@QAE@XZ			; std::error_category::error_category
PUBLIC	??1error_category@std@@UAE@XZ			; std::error_category::~error_category
PUBLIC	?default_error_condition@error_category@std@@UBE?AVerror_condition@2@H@Z ; std::error_category::default_error_condition
PUBLIC	?equivalent@error_category@std@@UBE_NHABVerror_condition@2@@Z ; std::error_category::equivalent
PUBLIC	?equivalent@error_category@std@@UBE_NABVerror_code@2@H@Z ; std::error_category::equivalent
PUBLIC	??8error_category@std@@QBE_NABV01@@Z		; std::error_category::operator==
PUBLIC	??_Gerror_category@std@@UAEPAXI@Z		; std::error_category::`scalar deleting destructor'
PUBLIC	?value@error_code@std@@QBEHXZ			; std::error_code::value
PUBLIC	?category@error_code@std@@QBEABVerror_category@2@XZ ; std::error_code::category
PUBLIC	??0error_condition@std@@QAE@HABVerror_category@1@@Z ; std::error_condition::error_condition
PUBLIC	?value@error_condition@std@@QBEHXZ		; std::error_condition::value
PUBLIC	?category@error_condition@std@@QBEABVerror_category@2@XZ ; std::error_condition::category
PUBLIC	??8error_condition@std@@QBE_NABV01@@Z		; std::error_condition::operator==
PUBLIC	??0_Generic_error_category@std@@QAE@XZ		; std::_Generic_error_category::_Generic_error_category
PUBLIC	?name@_Generic_error_category@std@@UBEPBDXZ	; std::_Generic_error_category::name
PUBLIC	?message@_Generic_error_category@std@@UBE?AV?$basic_string@DU?$char_traits@D@std@@V?$allocator@D@2@@2@H@Z ; std::_Generic_error_category::message
PUBLIC	??1_Generic_error_category@std@@UAE@XZ		; std::_Generic_error_category::~_Generic_error_category
PUBLIC	??_G_Generic_error_category@std@@UAEPAXI@Z	; std::_Generic_error_category::`scalar deleting destructor'
PUBLIC	??0_Iostream_error_category@std@@QAE@XZ		; std::_Iostream_error_category::_Iostream_error_category
PUBLIC	?name@_Iostream_error_category@std@@UBEPBDXZ	; std::_Iostream_error_category::name
PUBLIC	?message@_Iostream_error_category@std@@UBE?AV?$basic_string@DU?$char_traits@D@std@@V?$allocator@D@2@@2@H@Z ; std::_Iostream_error_category::message
PUBLIC	??1_Iostream_error_category@std@@UAE@XZ		; std::_Iostream_error_category::~_Iostream_error_category
PUBLIC	??_G_Iostream_error_category@std@@UAEPAXI@Z	; std::_Iostream_error_category::`scalar deleting destructor'
PUBLIC	??0_System_error_category@std@@QAE@XZ		; std::_System_error_category::_System_error_category
PUBLIC	?name@_System_error_category@std@@UBEPBDXZ	; std::_System_error_category::name
PUBLIC	?message@_System_error_category@std@@UBE?AV?$basic_string@DU?$char_traits@D@std@@V?$allocator@D@2@@2@H@Z ; std::_System_error_category::message
PUBLIC	?default_error_condition@_System_error_category@std@@UBE?AVerror_condition@2@H@Z ; std::_System_error_category::default_error_condition
PUBLIC	??1_System_error_category@std@@UAE@XZ		; std::_System_error_category::~_System_error_category
PUBLIC	??_G_System_error_category@std@@UAEPAXI@Z	; std::_System_error_category::`scalar deleting destructor'
PUBLIC	?PlaySoundA@C_Sound@@QAEHJ@Z			; C_Sound::PlaySoundA
PUBLIC	?SetClient@C_Base@@QAEXF@Z			; C_Base::SetClient
PUBLIC	?SetLocalFlag@DogfightClass@@QAEXH@Z		; DogfightClass::SetLocalFlag
PUBLIC	?GetGameType@DogfightClass@@QAE?AW4DogfightType@@XZ ; DogfightClass::GetGameType
PUBLIC	??0PilotSortClass@@QAE@PAVPilotDataClass@@@Z	; PilotSortClass::PilotSortClass
PUBLIC	?TallyTeamKills@@YAXXZ				; TallyTeamKills
PUBLIC	?AddtoSortedList@@YAXPAVPilotDataClass@@H@Z	; AddtoSortedList
PUBLIC	?ClearSortedPilotList@@YAXXZ			; ClearSortedPilotList
PUBLIC	?FigureOutHowIDid@@YAJXZ			; FigureOutHowIDid
PUBLIC	?PlayDogfightBite@@YAXXZ			; PlayDogfightBite
PUBLIC	?DisplayDogfightResults@@YAXXZ			; DisplayDogfightResults
PUBLIC	?SaveDogfightResults@@YAXPAD@Z			; SaveDogfightResults
PUBLIC	??$construct@PADAAPAD@?$_Wrap_alloc@V?$allocator@D@std@@@std@@QAEXPAPADAAPAD@Z ; std::_Wrap_alloc<std::allocator<char> >::construct<char *,char * &>
PUBLIC	??$destroy@PAD@?$_Wrap_alloc@V?$allocator@D@std@@@std@@QAEXPAPAD@Z ; std::_Wrap_alloc<std::allocator<char> >::destroy<char *>
PUBLIC	??$addressof@D@std@@YAPADAAD@Z			; std::addressof<char>
PUBLIC	??$_Allocate@D@std@@YAPADIPAD@Z			; std::_Allocate<char>
PUBLIC	??$forward@AAPAD@std@@YAAAPADAAPAD@Z		; std::forward<char * &>
PUBLIC	??$construct@PADAAPAD@?$allocator_traits@V?$allocator@D@std@@@std@@SAXAAV?$allocator@D@1@PAPADAAPAD@Z ; std::allocator_traits<std::allocator<char> >::construct<char *,char * &>
PUBLIC	??$destroy@PAD@?$allocator_traits@V?$allocator@D@std@@@std@@SAXAAV?$allocator@D@1@PAPAD@Z ; std::allocator_traits<std::allocator<char> >::destroy<char *>
PUBLIC	??$construct@PADAAPAD@?$allocator@D@std@@QAEXPAPADAAPAD@Z ; std::allocator<char>::construct<char *,char * &>
PUBLIC	??$destroy@PAD@?$allocator@D@std@@QAEXPAPAD@Z	; std::allocator<char>::destroy<char *>
PUBLIC	??_7error_category@std@@6B@			; std::error_category::`vftable'
PUBLIC	??_7_Generic_error_category@std@@6B@		; std::_Generic_error_category::`vftable'
PUBLIC	??_C@_07DCLBNMLN@generic?$AA@			; `string'
PUBLIC	??_C@_0O@BFJCFAAK@unknown?5error?$AA@		; `string'
PUBLIC	??_7_Iostream_error_category@std@@6B@		; std::_Iostream_error_category::`vftable'
PUBLIC	??_C@_08LLGCOLLL@iostream?$AA@			; `string'
PUBLIC	??_C@_0BG@PADBLCHM@iostream?5stream?5error?$AA@	; `string'
PUBLIC	??_7_System_error_category@std@@6B@		; std::_System_error_category::`vftable'
PUBLIC	??_C@_06FHFOAHML@system?$AA@			; `string'
PUBLIC	?_Generic_object@?$_Error_objects@H@std@@2V_Generic_error_category@2@A ; std::_Error_objects<int>::_Generic_object
PUBLIC	?_Iostream_object@?$_Error_objects@H@std@@2V_Iostream_error_category@2@A ; std::_Error_objects<int>::_Iostream_object
PUBLIC	?_System_object@?$_Error_objects@H@std@@2V_System_error_category@2@A ; std::_Error_objects<int>::_System_object
PUBLIC	?id@?$num_put@DV?$back_insert_iterator@V?$basic_string@DU?$char_traits@D@std@@V?$allocator@D@2@@std@@@std@@@std@@2V0locale@2@A ; std::num_put<char,std::back_insert_iterator<std::basic_string<char,std::char_traits<char>,std::allocator<char> > > >::id
PUBLIC	?id@?$num_put@_WV?$back_insert_iterator@V?$basic_string@_WU?$char_traits@_W@std@@V?$allocator@_W@2@@std@@@std@@@std@@2V0locale@2@A ; std::num_put<wchar_t,std::back_insert_iterator<std::basic_string<wchar_t,std::char_traits<wchar_t>,std::allocator<wchar_t> > > >::id
PUBLIC	??_C@_03GNGPFOOL@?$CF1d?$AA@			; `string'
PUBLIC	??_C@_07EGHPGJND@?$CF1d?1?$CF1d?$AA@		; `string'
PUBLIC	?id@?$numpunct@D@std@@2V0locale@2@A		; std::numpunct<char>::id
PUBLIC	?id@?$numpunct@_W@std@@2V0locale@2@A		; std::numpunct<wchar_t>::id
PUBLIC	??_C@_0BI@CFPLBAOH@invalid?5string?5position?$AA@ ; `string'
PUBLIC	??_C@_0BA@JFNIOLAK@string?5too?5long?$AA@	; `string'
PUBLIC	??_R4error_category@std@@6B@			; std::error_category::`RTTI Complete Object Locator'
PUBLIC	??_R0?AVerror_category@std@@@8			; std::error_category `RTTI Type Descriptor'
PUBLIC	??_R3error_category@std@@8			; std::error_category::`RTTI Class Hierarchy Descriptor'
PUBLIC	??_R2error_category@std@@8			; std::error_category::`RTTI Base Class Array'
PUBLIC	??_R1A@?0A@EA@error_category@std@@8		; std::error_category::`RTTI Base Class Descriptor at (0,-1,0,64)'
PUBLIC	??_R4_Generic_error_category@std@@6B@		; std::_Generic_error_category::`RTTI Complete Object Locator'
PUBLIC	??_R0?AV_Generic_error_category@std@@@8		; std::_Generic_error_category `RTTI Type Descriptor'
PUBLIC	??_R3_Generic_error_category@std@@8		; std::_Generic_error_category::`RTTI Class Hierarchy Descriptor'
PUBLIC	??_R2_Generic_error_category@std@@8		; std::_Generic_error_category::`RTTI Base Class Array'
PUBLIC	??_R1A@?0A@EA@_Generic_error_category@std@@8	; std::_Generic_error_category::`RTTI Base Class Descriptor at (0,-1,0,64)'
PUBLIC	??_R4_Iostream_error_category@std@@6B@		; std::_Iostream_error_category::`RTTI Complete Object Locator'
PUBLIC	??_R0?AV_Iostream_error_category@std@@@8	; std::_Iostream_error_category `RTTI Type Descriptor'
PUBLIC	??_R3_Iostream_error_category@std@@8		; std::_Iostream_error_category::`RTTI Class Hierarchy Descriptor'
PUBLIC	??_R2_Iostream_error_category@std@@8		; std::_Iostream_error_category::`RTTI Base Class Array'
PUBLIC	??_R1A@?0A@EA@_Iostream_error_category@std@@8	; std::_Iostream_error_category::`RTTI Base Class Descriptor at (0,-1,0,64)'
PUBLIC	??_R4_System_error_category@std@@6B@		; std::_System_error_category::`RTTI Complete Object Locator'
PUBLIC	??_R0?AV_System_error_category@std@@@8		; std::_System_error_category `RTTI Type Descriptor'
PUBLIC	??_R3_System_error_category@std@@8		; std::_System_error_category::`RTTI Class Hierarchy Descriptor'
PUBLIC	??_R2_System_error_category@std@@8		; std::_System_error_category::`RTTI Base Class Array'
PUBLIC	??_R1A@?0A@EA@_System_error_category@std@@8	; std::_System_error_category::`RTTI Base Class Descriptor at (0,-1,0,64)'
EXTRN	__purecall:PROC
EXTRN	??2@YAPAXI@Z:PROC				; operator new
EXTRN	??3@YAXPAX@Z:PROC				; operator delete
EXTRN	_atexit:PROC
EXTRN	_memcpy:PROC
EXTRN	_memset:PROC
EXTRN	_strlen:PROC
EXTRN	_memmove:PROC
EXTRN	__mbslen:PROC
EXTRN	_sprintf:PROC
EXTRN	?_Xbad_alloc@std@@YAXXZ:PROC			; std::_Xbad_alloc
EXTRN	?_Xlength_error@std@@YAXPBD@Z:PROC		; std::_Xlength_error
EXTRN	?_Xout_of_range@std@@YAXPBD@Z:PROC		; std::_Xout_of_range
EXTRN	??_Eerror_category@std@@UAEPAXI@Z:PROC		; std::error_category::`vector deleting destructor'
EXTRN	?_Syserror_map@std@@YAPBDH@Z:PROC		; std::_Syserror_map
EXTRN	?_Winerror_map@std@@YAPBDH@Z:PROC		; std::_Winerror_map
EXTRN	??_E_Generic_error_category@std@@UAEPAXI@Z:PROC	; std::_Generic_error_category::`vector deleting destructor'
EXTRN	??_E_Iostream_error_category@std@@UAEPAXI@Z:PROC ; std::_Iostream_error_category::`vector deleting destructor'
EXTRN	??_E_System_error_category@std@@UAEPAXI@Z:PROC	; std::_System_error_category::`vector deleting destructor'
EXTRN	?GetHeight@C_Font@@QAEHJ@Z:PROC			; C_Font::GetHeight
EXTRN	?GetSound@C_Sound@@QAEPAVSOUND_RES@@J@Z:PROC	; C_Sound::GetSound
EXTRN	?PlaySoundA@C_Sound@@QAEHPAVSOUND_RES@@@Z:PROC	; C_Sound::PlaySoundA
EXTRN	?GetString@C_String@@QAEPADJ@Z:PROC		; C_String::GetString
EXTRN	?Pick@C_SoundBite@@QAEJJ@Z:PROC			; C_SoundBite::Pick
EXTRN	??0C_Text@@QAE@XZ:PROC				; C_Text::C_Text
EXTRN	?SetFGColor@C_Text@@QAEXK@Z:PROC		; C_Text::SetFGColor
EXTRN	?SetFixedWidth@C_Text@@QAEXJ@Z:PROC		; C_Text::SetFixedWidth
EXTRN	?ScanClientAreas@C_Window@@QAEXXZ:PROC		; C_Window::ScanClientAreas
EXTRN	?AddControl@C_Window@@QAEXPAVC_Base@@@Z:PROC	; C_Window::AddControl
EXTRN	?EnableCluster@C_Window@@QAEXJ@Z:PROC		; C_Window::EnableCluster
EXTRN	?DisableCluster@C_Window@@QAEXJ@Z:PROC		; C_Window::DisableCluster
EXTRN	?FindWindowA@C_Handler@@QAEPAVC_Window@@J@Z:PROC ; C_Handler::FindWindowA
EXTRN	?GetTeamKills@MissionEvaluationClass@@QAEXPAF@Z:PROC ; MissionEvaluationClass::GetTeamKills
EXTRN	?GetTeamDeaths@MissionEvaluationClass@@QAEXPAF@Z:PROC ; MissionEvaluationClass::GetTeamDeaths
EXTRN	?GetTeamScore@MissionEvaluationClass@@QAEXPAF@Z:PROC ; MissionEvaluationClass::GetTeamScore
EXTRN	@__security_check_cookie@4:PROC
EXTRN	__CxxThrowException@8:PROC
EXTRN	___CxxFrameHandler3:PROC
EXTRN	?vuLocalSessionEntity@@3V?$VuBin@VVuSessionEntity@@@@A:DWORD ; vuLocalSessionEntity
EXTRN	??_7type_info@@6B@:QWORD			; type_info::`vftable'
EXTRN	?gFontList@@3PAVC_Font@@A:DWORD			; gFontList
EXTRN	?gSoundMgr@@3PAVC_Sound@@A:DWORD		; gSoundMgr
EXTRN	?gStringMgr@@3PAVC_String@@A:DWORD		; gStringMgr
EXTRN	?SimDogfight@@3VDogfightClass@@A:BYTE		; SimDogfight
EXTRN	?TheCampaign@@3VCampaignClass@@A:BYTE		; TheCampaign
EXTRN	?gMainHandler@@3PAVC_Handler@@A:DWORD		; gMainHandler
EXTRN	?gDogfightBites@@3PAVC_SoundBite@@A:DWORD	; gDogfightBites
EXTRN	___security_cookie:DWORD
_BSS	SEGMENT
_piecewise_construct DB 01H DUP (?)
	ALIGN	4

_allocator_arg DB 01H DUP (?)
_BSS	ENDS
;	COMDAT ?_Generic_object@?$_Error_objects@H@std@@2V_Generic_error_category@2@A
_BSS	SEGMENT
?_Generic_object@?$_Error_objects@H@std@@2V_Generic_error_category@2@A DD 01H DUP (?) ; std::_Error_objects<int>::_Generic_object
_BSS	ENDS
;	COMDAT ?_Iostream_object@?$_Error_objects@H@std@@2V_Iostream_error_category@2@A
_BSS	SEGMENT
?_Iostream_object@?$_Error_objects@H@std@@2V_Iostream_error_category@2@A DD 01H DUP (?) ; std::_Error_objects<int>::_Iostream_object
_BSS	ENDS
;	COMDAT ?_System_object@?$_Error_objects@H@std@@2V_System_error_category@2@A
_BSS	SEGMENT
?_System_object@?$_Error_objects@H@std@@2V_System_error_category@2@A DD 01H DUP (?) ; std::_Error_objects<int>::_System_object
_BSS	ENDS
;	COMDAT ?id@?$num_put@DV?$back_insert_iterator@V?$basic_string@DU?$char_traits@D@std@@V?$allocator@D@2@@std@@@std@@@std@@2V0locale@2@A
_BSS	SEGMENT
?id@?$num_put@DV?$back_insert_iterator@V?$basic_string@DU?$char_traits@D@std@@V?$allocator@D@2@@std@@@std@@@std@@2V0locale@2@A DD 01H DUP (?) ; std::num_put<char,std::back_insert_iterator<std::basic_string<char,std::char_traits<char>,std::allocator<char> > > >::id
_BSS	ENDS
;	COMDAT ?id@?$num_put@_WV?$back_insert_iterator@V?$basic_string@_WU?$char_traits@_W@std@@V?$allocator@_W@2@@std@@@std@@@std@@2V0locale@2@A
_BSS	SEGMENT
?id@?$num_put@_WV?$back_insert_iterator@V?$basic_string@_WU?$char_traits@_W@std@@V?$allocator@_W@2@@std@@@std@@@std@@2V0locale@2@A DD 01H DUP (?) ; std::num_put<wchar_t,std::back_insert_iterator<std::basic_string<wchar_t,std::char_traits<wchar_t>,std::allocator<wchar_t> > > >::id
_BSS	ENDS
;	COMDAT ?id@?$numpunct@D@std@@2V0locale@2@A
_BSS	SEGMENT
?id@?$numpunct@D@std@@2V0locale@2@A DD 01H DUP (?)	; std::numpunct<char>::id
_BSS	ENDS
;	COMDAT ?id@?$numpunct@_W@std@@2V0locale@2@A
_BSS	SEGMENT
?id@?$numpunct@_W@std@@2V0locale@2@A DD 01H DUP (?)	; std::numpunct<wchar_t>::id
_BSS	ENDS
CRT$XCU	SEGMENT
_piecewise_construct$initializer$ DD FLAT:??__Epiecewise_construct@std@@YAXXZ
CRT$XCU	ENDS
;	COMDAT ??_R1A@?0A@EA@_System_error_category@std@@8
rdata$r	SEGMENT
??_R1A@?0A@EA@_System_error_category@std@@8 DD FLAT:??_R0?AV_System_error_category@std@@@8 ; std::_System_error_category::`RTTI Base Class Descriptor at (0,-1,0,64)'
	DD	02H
	DD	00H
	DD	0ffffffffH
	DD	00H
	DD	040H
	DD	FLAT:??_R3_System_error_category@std@@8
rdata$r	ENDS
;	COMDAT ??_R2_System_error_category@std@@8
rdata$r	SEGMENT
??_R2_System_error_category@std@@8 DD FLAT:??_R1A@?0A@EA@_System_error_category@std@@8 ; std::_System_error_category::`RTTI Base Class Array'
	DD	FLAT:??_R1A@?0A@EA@_Generic_error_category@std@@8
	DD	FLAT:??_R1A@?0A@EA@error_category@std@@8
rdata$r	ENDS
;	COMDAT ??_R3_System_error_category@std@@8
rdata$r	SEGMENT
??_R3_System_error_category@std@@8 DD 00H		; std::_System_error_category::`RTTI Class Hierarchy Descriptor'
	DD	00H
	DD	03H
	DD	FLAT:??_R2_System_error_category@std@@8
rdata$r	ENDS
;	COMDAT ??_R0?AV_System_error_category@std@@@8
_DATA	SEGMENT
??_R0?AV_System_error_category@std@@@8 DD FLAT:??_7type_info@@6B@ ; std::_System_error_category `RTTI Type Descriptor'
	DD	00H
	DB	'.?AV_System_error_category@std@@', 00H
_DATA	ENDS
;	COMDAT ??_R4_System_error_category@std@@6B@
rdata$r	SEGMENT
??_R4_System_error_category@std@@6B@ DD 00H		; std::_System_error_category::`RTTI Complete Object Locator'
	DD	00H
	DD	00H
	DD	FLAT:??_R0?AV_System_error_category@std@@@8
	DD	FLAT:??_R3_System_error_category@std@@8
rdata$r	ENDS
;	COMDAT ??_R1A@?0A@EA@_Iostream_error_category@std@@8
rdata$r	SEGMENT
??_R1A@?0A@EA@_Iostream_error_category@std@@8 DD FLAT:??_R0?AV_Iostream_error_category@std@@@8 ; std::_Iostream_error_category::`RTTI Base Class Descriptor at (0,-1,0,64)'
	DD	02H
	DD	00H
	DD	0ffffffffH
	DD	00H
	DD	040H
	DD	FLAT:??_R3_Iostream_error_category@std@@8
rdata$r	ENDS
;	COMDAT ??_R2_Iostream_error_category@std@@8
rdata$r	SEGMENT
??_R2_Iostream_error_category@std@@8 DD FLAT:??_R1A@?0A@EA@_Iostream_error_category@std@@8 ; std::_Iostream_error_category::`RTTI Base Class Array'
	DD	FLAT:??_R1A@?0A@EA@_Generic_error_category@std@@8
	DD	FLAT:??_R1A@?0A@EA@error_category@std@@8
rdata$r	ENDS
;	COMDAT ??_R3_Iostream_error_category@std@@8
rdata$r	SEGMENT
??_R3_Iostream_error_category@std@@8 DD 00H		; std::_Iostream_error_category::`RTTI Class Hierarchy Descriptor'
	DD	00H
	DD	03H
	DD	FLAT:??_R2_Iostream_error_category@std@@8
rdata$r	ENDS
;	COMDAT ??_R0?AV_Iostream_error_category@std@@@8
_DATA	SEGMENT
??_R0?AV_Iostream_error_category@std@@@8 DD FLAT:??_7type_info@@6B@ ; std::_Iostream_error_category `RTTI Type Descriptor'
	DD	00H
	DB	'.?AV_Iostream_error_category@std@@', 00H
_DATA	ENDS
;	COMDAT ??_R4_Iostream_error_category@std@@6B@
rdata$r	SEGMENT
??_R4_Iostream_error_category@std@@6B@ DD 00H		; std::_Iostream_error_category::`RTTI Complete Object Locator'
	DD	00H
	DD	00H
	DD	FLAT:??_R0?AV_Iostream_error_category@std@@@8
	DD	FLAT:??_R3_Iostream_error_category@std@@8
rdata$r	ENDS
;	COMDAT ??_R1A@?0A@EA@_Generic_error_category@std@@8
rdata$r	SEGMENT
??_R1A@?0A@EA@_Generic_error_category@std@@8 DD FLAT:??_R0?AV_Generic_error_category@std@@@8 ; std::_Generic_error_category::`RTTI Base Class Descriptor at (0,-1,0,64)'
	DD	01H
	DD	00H
	DD	0ffffffffH
	DD	00H
	DD	040H
	DD	FLAT:??_R3_Generic_error_category@std@@8
rdata$r	ENDS
;	COMDAT ??_R2_Generic_error_category@std@@8
rdata$r	SEGMENT
??_R2_Generic_error_category@std@@8 DD FLAT:??_R1A@?0A@EA@_Generic_error_category@std@@8 ; std::_Generic_error_category::`RTTI Base Class Array'
	DD	FLAT:??_R1A@?0A@EA@error_category@std@@8
rdata$r	ENDS
;	COMDAT ??_R3_Generic_error_category@std@@8
rdata$r	SEGMENT
??_R3_Generic_error_category@std@@8 DD 00H		; std::_Generic_error_category::`RTTI Class Hierarchy Descriptor'
	DD	00H
	DD	02H
	DD	FLAT:??_R2_Generic_error_category@std@@8
rdata$r	ENDS
;	COMDAT ??_R0?AV_Generic_error_category@std@@@8
_DATA	SEGMENT
??_R0?AV_Generic_error_category@std@@@8 DD FLAT:??_7type_info@@6B@ ; std::_Generic_error_category `RTTI Type Descriptor'
	DD	00H
	DB	'.?AV_Generic_error_category@std@@', 00H
_DATA	ENDS
;	COMDAT ??_R4_Generic_error_category@std@@6B@
rdata$r	SEGMENT
??_R4_Generic_error_category@std@@6B@ DD 00H		; std::_Generic_error_category::`RTTI Complete Object Locator'
	DD	00H
	DD	00H
	DD	FLAT:??_R0?AV_Generic_error_category@std@@@8
	DD	FLAT:??_R3_Generic_error_category@std@@8
rdata$r	ENDS
;	COMDAT ??_R1A@?0A@EA@error_category@std@@8
rdata$r	SEGMENT
??_R1A@?0A@EA@error_category@std@@8 DD FLAT:??_R0?AVerror_category@std@@@8 ; std::error_category::`RTTI Base Class Descriptor at (0,-1,0,64)'
	DD	00H
	DD	00H
	DD	0ffffffffH
	DD	00H
	DD	040H
	DD	FLAT:??_R3error_category@std@@8
rdata$r	ENDS
;	COMDAT ??_R2error_category@std@@8
rdata$r	SEGMENT
??_R2error_category@std@@8 DD FLAT:??_R1A@?0A@EA@error_category@std@@8 ; std::error_category::`RTTI Base Class Array'
rdata$r	ENDS
;	COMDAT ??_R3error_category@std@@8
rdata$r	SEGMENT
??_R3error_category@std@@8 DD 00H			; std::error_category::`RTTI Class Hierarchy Descriptor'
	DD	00H
	DD	01H
	DD	FLAT:??_R2error_category@std@@8
rdata$r	ENDS
;	COMDAT ??_R0?AVerror_category@std@@@8
_DATA	SEGMENT
??_R0?AVerror_category@std@@@8 DD FLAT:??_7type_info@@6B@ ; std::error_category `RTTI Type Descriptor'
	DD	00H
	DB	'.?AVerror_category@std@@', 00H
_DATA	ENDS
;	COMDAT ??_R4error_category@std@@6B@
rdata$r	SEGMENT
??_R4error_category@std@@6B@ DD 00H			; std::error_category::`RTTI Complete Object Locator'
	DD	00H
	DD	00H
	DD	FLAT:??_R0?AVerror_category@std@@@8
	DD	FLAT:??_R3error_category@std@@8
rdata$r	ENDS
;	COMDAT ??_C@_0BA@JFNIOLAK@string?5too?5long?$AA@
CONST	SEGMENT
??_C@_0BA@JFNIOLAK@string?5too?5long?$AA@ DB 'string too long', 00H ; `string'
CONST	ENDS
;	COMDAT ??_C@_0BI@CFPLBAOH@invalid?5string?5position?$AA@
CONST	SEGMENT
??_C@_0BI@CFPLBAOH@invalid?5string?5position?$AA@ DB 'invalid string posi'
	DB	'tion', 00H					; `string'
CONST	ENDS
;	COMDAT ??_C@_07EGHPGJND@?$CF1d?1?$CF1d?$AA@
CONST	SEGMENT
??_C@_07EGHPGJND@?$CF1d?1?$CF1d?$AA@ DB '%1d/%1d', 00H	; `string'
CONST	ENDS
;	COMDAT ??_C@_03GNGPFOOL@?$CF1d?$AA@
CONST	SEGMENT
??_C@_03GNGPFOOL@?$CF1d?$AA@ DB '%1d', 00H		; `string'
CONST	ENDS
;	COMDAT ??_C@_06FHFOAHML@system?$AA@
CONST	SEGMENT
??_C@_06FHFOAHML@system?$AA@ DB 'system', 00H		; `string'
CONST	ENDS
;	COMDAT ??_7_System_error_category@std@@6B@
CONST	SEGMENT
??_7_System_error_category@std@@6B@ DD FLAT:??_R4_System_error_category@std@@6B@ ; std::_System_error_category::`vftable'
	DD	FLAT:??_E_System_error_category@std@@UAEPAXI@Z
	DD	FLAT:?name@_System_error_category@std@@UBEPBDXZ
	DD	FLAT:?message@_System_error_category@std@@UBE?AV?$basic_string@DU?$char_traits@D@std@@V?$allocator@D@2@@2@H@Z
	DD	FLAT:?default_error_condition@_System_error_category@std@@UBE?AVerror_condition@2@H@Z
	DD	FLAT:?equivalent@error_category@std@@UBE_NABVerror_code@2@H@Z
	DD	FLAT:?equivalent@error_category@std@@UBE_NHABVerror_condition@2@@Z
CONST	ENDS
;	COMDAT ??_C@_0BG@PADBLCHM@iostream?5stream?5error?$AA@
CONST	SEGMENT
??_C@_0BG@PADBLCHM@iostream?5stream?5error?$AA@ DB 'iostream stream error'
	DB	00H						; `string'
CONST	ENDS
;	COMDAT ??_C@_08LLGCOLLL@iostream?$AA@
CONST	SEGMENT
??_C@_08LLGCOLLL@iostream?$AA@ DB 'iostream', 00H	; `string'
CONST	ENDS
;	COMDAT ??_7_Iostream_error_category@std@@6B@
CONST	SEGMENT
??_7_Iostream_error_category@std@@6B@ DD FLAT:??_R4_Iostream_error_category@std@@6B@ ; std::_Iostream_error_category::`vftable'
	DD	FLAT:??_E_Iostream_error_category@std@@UAEPAXI@Z
	DD	FLAT:?name@_Iostream_error_category@std@@UBEPBDXZ
	DD	FLAT:?message@_Iostream_error_category@std@@UBE?AV?$basic_string@DU?$char_traits@D@std@@V?$allocator@D@2@@2@H@Z
	DD	FLAT:?default_error_condition@error_category@std@@UBE?AVerror_condition@2@H@Z
	DD	FLAT:?equivalent@error_category@std@@UBE_NABVerror_code@2@H@Z
	DD	FLAT:?equivalent@error_category@std@@UBE_NHABVerror_condition@2@@Z
CONST	ENDS
;	COMDAT ??_C@_0O@BFJCFAAK@unknown?5error?$AA@
CONST	SEGMENT
??_C@_0O@BFJCFAAK@unknown?5error?$AA@ DB 'unknown error', 00H ; `string'
CONST	ENDS
;	COMDAT ??_C@_07DCLBNMLN@generic?$AA@
CONST	SEGMENT
??_C@_07DCLBNMLN@generic?$AA@ DB 'generic', 00H		; `string'
CONST	ENDS
;	COMDAT ??_7_Generic_error_category@std@@6B@
CONST	SEGMENT
??_7_Generic_error_category@std@@6B@ DD FLAT:??_R4_Generic_error_category@std@@6B@ ; std::_Generic_error_category::`vftable'
	DD	FLAT:??_E_Generic_error_category@std@@UAEPAXI@Z
	DD	FLAT:?name@_Generic_error_category@std@@UBEPBDXZ
	DD	FLAT:?message@_Generic_error_category@std@@UBE?AV?$basic_string@DU?$char_traits@D@std@@V?$allocator@D@2@@2@H@Z
	DD	FLAT:?default_error_condition@error_category@std@@UBE?AVerror_condition@2@H@Z
	DD	FLAT:?equivalent@error_category@std@@UBE_NABVerror_code@2@H@Z
	DD	FLAT:?equivalent@error_category@std@@UBE_NHABVerror_condition@2@@Z
CONST	ENDS
;	COMDAT ??_7error_category@std@@6B@
CONST	SEGMENT
??_7error_category@std@@6B@ DD FLAT:??_R4error_category@std@@6B@ ; std::error_category::`vftable'
	DD	FLAT:??_Eerror_category@std@@UAEPAXI@Z
	DD	FLAT:__purecall
	DD	FLAT:__purecall
	DD	FLAT:?default_error_condition@error_category@std@@UBE?AVerror_condition@2@H@Z
	DD	FLAT:?equivalent@error_category@std@@UBE_NABVerror_code@2@H@Z
	DD	FLAT:?equivalent@error_category@std@@UBE_NHABVerror_condition@2@@Z
CONST	ENDS
;	COMDAT xdata$x
xdata$x	SEGMENT
__unwindtable$??$construct@PADAAPAD@?$allocator@D@std@@QAEXPAPADAAPAD@Z DD 0ffffffffH
	DD	FLAT:__unwindfunclet$??$construct@PADAAPAD@?$allocator@D@std@@QAEXPAPADAAPAD@Z$0
__ehfuncinfo$??$construct@PADAAPAD@?$allocator@D@std@@QAEXPAPADAAPAD@Z DD 019930522H
	DD	01H
	DD	FLAT:__unwindtable$??$construct@PADAAPAD@?$allocator@D@std@@QAEXPAPADAAPAD@Z
	DD	2 DUP(00H)
	DD	2 DUP(00H)
	DD	00H
	DD	01H
xdata$x	ENDS
xdata$x	SEGMENT
__unwindtable$?AddtoSortedList@@YAXPAVPilotDataClass@@H@Z DD 0ffffffffH
	DD	FLAT:__unwindfunclet$?AddtoSortedList@@YAXPAVPilotDataClass@@H@Z$0
__ehfuncinfo$?DisplayDogfightResults@@YAXXZ DD 019930522H
	DD	06H
	DD	FLAT:__unwindtable$?DisplayDogfightResults@@YAXXZ
	DD	2 DUP(00H)
	DD	2 DUP(00H)
	DD	00H
	DD	01H
__ehfuncinfo$?AddtoSortedList@@YAXPAVPilotDataClass@@H@Z DD 019930522H
	DD	01H
	DD	FLAT:__unwindtable$?AddtoSortedList@@YAXPAVPilotDataClass@@H@Z
	DD	2 DUP(00H)
	DD	2 DUP(00H)
	DD	00H
	DD	01H
__unwindtable$?DisplayDogfightResults@@YAXXZ DD 0ffffffffH
	DD	FLAT:__unwindfunclet$?DisplayDogfightResults@@YAXXZ$0
	DD	0ffffffffH
	DD	FLAT:__unwindfunclet$?DisplayDogfightResults@@YAXXZ$1
	DD	0ffffffffH
	DD	FLAT:__unwindfunclet$?DisplayDogfightResults@@YAXXZ$2
	DD	0ffffffffH
	DD	FLAT:__unwindfunclet$?DisplayDogfightResults@@YAXXZ$3
	DD	0ffffffffH
	DD	FLAT:__unwindfunclet$?DisplayDogfightResults@@YAXXZ$4
	DD	0ffffffffH
	DD	FLAT:__unwindfunclet$?DisplayDogfightResults@@YAXXZ$5
xdata$x	ENDS
;	COMDAT xdata$x
xdata$x	SEGMENT
__catchsym$?_Copy@?$basic_string@DU?$char_traits@D@std@@V?$allocator@D@2@@std@@QAEXII@Z$5 DD 040H
	DD	00H
	DD	00H
	DD	FLAT:__catch$?_Copy@?$basic_string@DU?$char_traits@D@std@@V?$allocator@D@2@@std@@QAEXII@Z$0
__catchsym$?_Copy@?$basic_string@DU?$char_traits@D@std@@V?$allocator@D@2@@std@@QAEXII@Z$4 DD 040H
	DD	00H
	DD	00H
	DD	FLAT:__catch$?_Copy@?$basic_string@DU?$char_traits@D@std@@V?$allocator@D@2@@std@@QAEXII@Z$1
__unwindtable$?_Copy@?$basic_string@DU?$char_traits@D@std@@V?$allocator@D@2@@std@@QAEXII@Z DD 0ffffffffH
	DD	00H
	DD	0ffffffffH
	DD	00H
	DD	01H
	DD	00H
	DD	01H
	DD	00H
__ehfuncinfo$?_Copy@?$basic_string@DU?$char_traits@D@std@@V?$allocator@D@2@@std@@QAEXII@Z DD 019930522H
	DD	04H
	DD	FLAT:__unwindtable$?_Copy@?$basic_string@DU?$char_traits@D@std@@V?$allocator@D@2@@std@@QAEXII@Z
	DD	02H
	DD	FLAT:__tryblocktable$?_Copy@?$basic_string@DU?$char_traits@D@std@@V?$allocator@D@2@@std@@QAEXII@Z
	DD	2 DUP(00H)
	DD	00H
	DD	01H
__tryblocktable$?_Copy@?$basic_string@DU?$char_traits@D@std@@V?$allocator@D@2@@std@@QAEXII@Z DD 02H
	DD	02H
	DD	03H
	DD	01H
	DD	FLAT:__catchsym$?_Copy@?$basic_string@DU?$char_traits@D@std@@V?$allocator@D@2@@std@@QAEXII@Z$4
	DD	00H
	DD	00H
	DD	03H
	DD	01H
	DD	FLAT:__catchsym$?_Copy@?$basic_string@DU?$char_traits@D@std@@V?$allocator@D@2@@std@@QAEXII@Z$5
xdata$x	ENDS
CRT$XCU	SEGMENT
_allocator_arg$initializer$ DD FLAT:??__Eallocator_arg@std@@YAXXZ
CRT$XCU	ENDS
;	COMDAT CRT$XCU
CRT$XCU	SEGMENT
?_Generic_object$initializer$@?$_Error_objects@H@std@@2P6AXXZA DD FLAT:??__E?_Generic_object@?$_Error_objects@H@std@@2V_Generic_error_category@2@A@@YAXXZ ; std::_Error_objects<int>::_Generic_object$initializer$
CRT$XCU	ENDS
;	COMDAT CRT$XCU
CRT$XCU	SEGMENT
?_Iostream_object$initializer$@?$_Error_objects@H@std@@2P6AXXZA DD FLAT:??__E?_Iostream_object@?$_Error_objects@H@std@@2V_Iostream_error_category@2@A@@YAXXZ ; std::_Error_objects<int>::_Iostream_object$initializer$
CRT$XCU	ENDS
;	COMDAT CRT$XCU
CRT$XCU	SEGMENT
?_System_object$initializer$@?$_Error_objects@H@std@@2P6AXXZA DD FLAT:??__E?_System_object@?$_Error_objects@H@std@@2V_System_error_category@2@A@@YAXXZ ; std::_Error_objects<int>::_System_object$initializer$
CRT$XCU	ENDS
;	COMDAT CRT$XCU
CRT$XCU	SEGMENT
?id$initializer$@?$num_put@DV?$back_insert_iterator@V?$basic_string@DU?$char_traits@D@std@@V?$allocator@D@2@@std@@@std@@@std@@2P6AXXZA DD FLAT:??__E?id@?$num_put@DV?$back_insert_iterator@V?$basic_string@DU?$char_traits@D@std@@V?$allocator@D@2@@std@@@std@@@std@@2V0locale@2@A@@YAXXZ ; std::num_put<char,std::back_insert_iterator<std::basic_string<char,std::char_traits<char>,std::allocator<char> > > >::id$initializer$
CRT$XCU	ENDS
;	COMDAT CRT$XCU
CRT$XCU	SEGMENT
?id$initializer$@?$num_put@_WV?$back_insert_iterator@V?$basic_string@_WU?$char_traits@_W@std@@V?$allocator@_W@2@@std@@@std@@@std@@2P6AXXZA DD FLAT:??__E?id@?$num_put@_WV?$back_insert_iterator@V?$basic_string@_WU?$char_traits@_W@std@@V?$allocator@_W@2@@std@@@std@@@std@@2V0locale@2@A@@YAXXZ ; std::num_put<wchar_t,std::back_insert_iterator<std::basic_string<wchar_t,std::char_traits<wchar_t>,std::allocator<wchar_t> > > >::id$initializer$
CRT$XCU	ENDS
;	COMDAT CRT$XCU
CRT$XCU	SEGMENT
?id$initializer$@?$numpunct@D@std@@2P6AXXZA DD FLAT:??__E?id@?$numpunct@D@std@@2V0locale@2@A@@YAXXZ ; std::numpunct<char>::id$initializer$
CRT$XCU	ENDS
;	COMDAT CRT$XCU
CRT$XCU	SEGMENT
?id$initializer$@?$numpunct@_W@std@@2P6AXXZA DD FLAT:??__E?id@?$numpunct@_W@std@@2V0locale@2@A@@YAXXZ ; std::numpunct<wchar_t>::id$initializer$
CRT$XCU	ENDS
; Function compile flags: /Odtp
; File c:\program files (x86)\microsoft visual studio 11.0\vc\include\xmemory0
;	COMDAT ??$destroy@PAD@?$allocator@D@std@@QAEXPAPAD@Z
_TEXT	SEGMENT
_this$ = -4						; size = 4
__Ptr$ = 8						; size = 4
??$destroy@PAD@?$allocator@D@std@@QAEXPAPAD@Z PROC	; std::allocator<char>::destroy<char *>, COMDAT
; _this$ = ecx

; 621  : 		void destroy(_Uty *_Ptr)

	push	ebp
	mov	ebp, esp
	push	ecx
	mov	DWORD PTR _this$[ebp], ecx

; 622  : 		{	// destroy object at _Ptr
; 623  : 		_Ptr->~_Uty();
; 624  : 		}

	mov	esp, ebp
	pop	ebp
	ret	4
??$destroy@PAD@?$allocator@D@std@@QAEXPAPAD@Z ENDP	; std::allocator<char>::destroy<char *>
_TEXT	ENDS
; Function compile flags: /Odtp
; File c:\program files (x86)\microsoft visual studio 11.0\vc\include\xmemory0
;	COMDAT ??$construct@PADAAPAD@?$allocator@D@std@@QAEXPAPADAAPAD@Z
_TEXT	SEGMENT
$T2 = -28						; size = 4
_this$ = -24						; size = 4
tv73 = -20						; size = 4
$T3 = -16						; size = 4
__$EHRec$ = -12						; size = 12
__Ptr$ = 8						; size = 4
__V0$ = 12						; size = 4
??$construct@PADAAPAD@?$allocator@D@std@@QAEXPAPADAAPAD@Z PROC ; std::allocator<char>::construct<char *,char * &>, COMDAT
; _this$ = ecx

; 617  : _VARIADIC_EXPAND_0X(_ALLOC_MEMBER_CONSTRUCT, , , , )

	push	ebp
	mov	ebp, esp
	push	-1
	push	__ehhandler$??$construct@PADAAPAD@?$allocator@D@std@@QAEXPAPADAAPAD@Z
	mov	eax, DWORD PTR fs:0
	push	eax
	sub	esp, 16					; 00000010H
	mov	eax, DWORD PTR ___security_cookie
	xor	eax, ebp
	push	eax
	lea	eax, DWORD PTR __$EHRec$[ebp]
	mov	DWORD PTR fs:0, eax
	mov	DWORD PTR _this$[ebp], ecx
	mov	eax, DWORD PTR __Ptr$[ebp]
	push	eax
	push	4
	call	??2@YAPAXIPAX@Z				; operator new
	add	esp, 8
	mov	DWORD PTR $T3[ebp], eax
	mov	DWORD PTR __$EHRec$[ebp+8], 0
	cmp	DWORD PTR $T3[ebp], 0
	je	SHORT $LN3@construct
	mov	ecx, DWORD PTR __V0$[ebp]
	push	ecx
	call	??$forward@AAPAD@std@@YAAAPADAAPAD@Z	; std::forward<char * &>
	add	esp, 4
	mov	edx, DWORD PTR $T3[ebp]
	mov	eax, DWORD PTR [eax]
	mov	DWORD PTR [edx], eax
	mov	ecx, DWORD PTR $T3[ebp]
	mov	DWORD PTR tv73[ebp], ecx
	jmp	SHORT $LN4@construct
$LN3@construct:
	mov	DWORD PTR tv73[ebp], 0
$LN4@construct:
	mov	edx, DWORD PTR tv73[ebp]
	mov	DWORD PTR $T2[ebp], edx
	mov	DWORD PTR __$EHRec$[ebp+8], -1
	mov	ecx, DWORD PTR __$EHRec$[ebp]
	mov	DWORD PTR fs:0, ecx
	pop	ecx
	mov	esp, ebp
	pop	ebp
	ret	8
_TEXT	ENDS
;	COMDAT text$x
text$x	SEGMENT
__unwindfunclet$??$construct@PADAAPAD@?$allocator@D@std@@QAEXPAPADAAPAD@Z$0:
	mov	eax, DWORD PTR __Ptr$[ebp]
	push	eax
	mov	eax, DWORD PTR $T3[ebp]
	push	eax
	call	??3@YAXPAX0@Z				; operator delete
	add	esp, 8
	ret	0
__ehhandler$??$construct@PADAAPAD@?$allocator@D@std@@QAEXPAPADAAPAD@Z:
	mov	edx, DWORD PTR [esp+8]
	lea	eax, DWORD PTR [edx+12]
	mov	ecx, DWORD PTR [edx-20]
	xor	ecx, eax
	call	@__security_check_cookie@4
	mov	eax, OFFSET __ehfuncinfo$??$construct@PADAAPAD@?$allocator@D@std@@QAEXPAPADAAPAD@Z
	jmp	___CxxFrameHandler3
text$x	ENDS
??$construct@PADAAPAD@?$allocator@D@std@@QAEXPAPADAAPAD@Z ENDP ; std::allocator<char>::construct<char *,char * &>
; Function compile flags: /Odtp
; File c:\program files (x86)\microsoft visual studio 11.0\vc\include\xlocnum
;	COMDAT ??__E?id@?$numpunct@_W@std@@2V0locale@2@A@@YAXXZ
text$yc	SEGMENT
??__E?id@?$numpunct@_W@std@@2V0locale@2@A@@YAXXZ PROC	; `dynamic initializer for 'std::numpunct<wchar_t>::id'', COMDAT

; 155  : 		void _Getvals(wchar_t, const lconv *_Ptr, _Locinfo::_Cvtvec)

	push	ebp
	mov	ebp, esp
	push	0
	mov	ecx, OFFSET ?id@?$numpunct@_W@std@@2V0locale@2@A ; std::numpunct<wchar_t>::id
	call	??0id@locale@std@@QAE@I@Z		; std::locale::id::id
	pop	ebp
	ret	0
??__E?id@?$numpunct@_W@std@@2V0locale@2@A@@YAXXZ ENDP	; `dynamic initializer for 'std::numpunct<wchar_t>::id''
text$yc	ENDS
; Function compile flags: /Odtp
; File c:\program files (x86)\microsoft visual studio 11.0\vc\include\xlocnum
;	COMDAT ??__E?id@?$numpunct@D@std@@2V0locale@2@A@@YAXXZ
text$yc	SEGMENT
??__E?id@?$numpunct@D@std@@2V0locale@2@A@@YAXXZ PROC	; `dynamic initializer for 'std::numpunct<char>::id'', COMDAT

; 155  : 		void _Getvals(wchar_t, const lconv *_Ptr, _Locinfo::_Cvtvec)

	push	ebp
	mov	ebp, esp
	push	0
	mov	ecx, OFFSET ?id@?$numpunct@D@std@@2V0locale@2@A ; std::numpunct<char>::id
	call	??0id@locale@std@@QAE@I@Z		; std::locale::id::id
	pop	ebp
	ret	0
??__E?id@?$numpunct@D@std@@2V0locale@2@A@@YAXXZ ENDP	; `dynamic initializer for 'std::numpunct<char>::id''
text$yc	ENDS
; Function compile flags: /Odtp
; File c:\program files (x86)\microsoft visual studio 11.0\vc\include\xlocnum
;	COMDAT ??__E?id@?$num_put@_WV?$back_insert_iterator@V?$basic_string@_WU?$char_traits@_W@std@@V?$allocator@_W@2@@std@@@std@@@std@@2V0locale@2@A@@YAXXZ
text$yc	SEGMENT
??__E?id@?$num_put@_WV?$back_insert_iterator@V?$basic_string@_WU?$char_traits@_W@std@@V?$allocator@_W@2@@std@@@std@@@std@@2V0locale@2@A@@YAXXZ PROC ; `dynamic initializer for 'std::num_put<wchar_t,std::back_insert_iterator<std::basic_string<wchar_t,std::char_traits<wchar_t>,std::allocator<wchar_t> > > >::id'', COMDAT

; 155  : 		void _Getvals(wchar_t, const lconv *_Ptr, _Locinfo::_Cvtvec)

	push	ebp
	mov	ebp, esp
	push	0
	mov	ecx, OFFSET ?id@?$num_put@_WV?$back_insert_iterator@V?$basic_string@_WU?$char_traits@_W@std@@V?$allocator@_W@2@@std@@@std@@@std@@2V0locale@2@A ; std::num_put<wchar_t,std::back_insert_iterator<std::basic_string<wchar_t,std::char_traits<wchar_t>,std::allocator<wchar_t> > > >::id
	call	??0id@locale@std@@QAE@I@Z		; std::locale::id::id
	pop	ebp
	ret	0
??__E?id@?$num_put@_WV?$back_insert_iterator@V?$basic_string@_WU?$char_traits@_W@std@@V?$allocator@_W@2@@std@@@std@@@std@@2V0locale@2@A@@YAXXZ ENDP ; `dynamic initializer for 'std::num_put<wchar_t,std::back_insert_iterator<std::basic_string<wchar_t,std::char_traits<wchar_t>,std::allocator<wchar_t> > > >::id''
text$yc	ENDS
; Function compile flags: /Odtp
; File c:\program files (x86)\microsoft visual studio 11.0\vc\include\xlocnum
;	COMDAT ??__E?id@?$num_put@DV?$back_insert_iterator@V?$basic_string@DU?$char_traits@D@std@@V?$allocator@D@2@@std@@@std@@@std@@2V0locale@2@A@@YAXXZ
text$yc	SEGMENT
??__E?id@?$num_put@DV?$back_insert_iterator@V?$basic_string@DU?$char_traits@D@std@@V?$allocator@D@2@@std@@@std@@@std@@2V0locale@2@A@@YAXXZ PROC ; `dynamic initializer for 'std::num_put<char,std::back_insert_iterator<std::basic_string<char,std::char_traits<char>,std::allocator<char> > > >::id'', COMDAT

; 155  : 		void _Getvals(wchar_t, const lconv *_Ptr, _Locinfo::_Cvtvec)

	push	ebp
	mov	ebp, esp
	push	0
	mov	ecx, OFFSET ?id@?$num_put@DV?$back_insert_iterator@V?$basic_string@DU?$char_traits@D@std@@V?$allocator@D@2@@std@@@std@@@std@@2V0locale@2@A ; std::num_put<char,std::back_insert_iterator<std::basic_string<char,std::char_traits<char>,std::allocator<char> > > >::id
	call	??0id@locale@std@@QAE@I@Z		; std::locale::id::id
	pop	ebp
	ret	0
??__E?id@?$num_put@DV?$back_insert_iterator@V?$basic_string@DU?$char_traits@D@std@@V?$allocator@D@2@@std@@@std@@@std@@2V0locale@2@A@@YAXXZ ENDP ; `dynamic initializer for 'std::num_put<char,std::back_insert_iterator<std::basic_string<char,std::char_traits<char>,std::allocator<char> > > >::id''
text$yc	ENDS
; Function compile flags: /Odtp
; File c:\program files (x86)\microsoft visual studio 11.0\vc\include\xmemory0
;	COMDAT ??$destroy@PAD@?$allocator_traits@V?$allocator@D@std@@@std@@SAXAAV?$allocator@D@1@PAPAD@Z
_TEXT	SEGMENT
__Al$ = 8						; size = 4
__Ptr$ = 12						; size = 4
??$destroy@PAD@?$allocator_traits@V?$allocator@D@std@@@std@@SAXAAV?$allocator@D@1@PAPAD@Z PROC ; std::allocator_traits<std::allocator<char> >::destroy<char *>, COMDAT

; 755  : 		static void destroy(_Alloc& _Al, _Uty *_Ptr)

	push	ebp
	mov	ebp, esp

; 756  : 		{	// destroy object at _Ptr
; 757  : 		_Al.destroy(_Ptr);

	mov	eax, DWORD PTR __Ptr$[ebp]
	push	eax
	mov	ecx, DWORD PTR __Al$[ebp]
	call	??$destroy@PAD@?$allocator@D@std@@QAEXPAPAD@Z ; std::allocator<char>::destroy<char *>

; 758  : 		}

	pop	ebp
	ret	0
??$destroy@PAD@?$allocator_traits@V?$allocator@D@std@@@std@@SAXAAV?$allocator@D@1@PAPAD@Z ENDP ; std::allocator_traits<std::allocator<char> >::destroy<char *>
_TEXT	ENDS
; Function compile flags: /Odtp
; File c:\program files (x86)\microsoft visual studio 11.0\vc\include\xmemory0
;	COMDAT ??$construct@PADAAPAD@?$allocator_traits@V?$allocator@D@std@@@std@@SAXAAV?$allocator@D@1@PAPADAAPAD@Z
_TEXT	SEGMENT
__Al$ = 8						; size = 4
__Ptr$ = 12						; size = 4
__V0$ = 16						; size = 4
??$construct@PADAAPAD@?$allocator_traits@V?$allocator@D@std@@@std@@SAXAAV?$allocator@D@1@PAPADAAPAD@Z PROC ; std::allocator_traits<std::allocator<char> >::construct<char *,char * &>, COMDAT

; 751  : _VARIADIC_EXPAND_0X(_ALLOC_TRAITS_SPECIAL_CONSTRUCT, , , , )

	push	ebp
	mov	ebp, esp
	mov	eax, DWORD PTR __V0$[ebp]
	push	eax
	call	??$forward@AAPAD@std@@YAAAPADAAPAD@Z	; std::forward<char * &>
	add	esp, 4
	push	eax
	mov	ecx, DWORD PTR __Ptr$[ebp]
	push	ecx
	mov	ecx, DWORD PTR __Al$[ebp]
	call	??$construct@PADAAPAD@?$allocator@D@std@@QAEXPAPADAAPAD@Z ; std::allocator<char>::construct<char *,char * &>
	pop	ebp
	ret	0
??$construct@PADAAPAD@?$allocator_traits@V?$allocator@D@std@@@std@@SAXAAV?$allocator@D@1@PAPADAAPAD@Z ENDP ; std::allocator_traits<std::allocator<char> >::construct<char *,char * &>
_TEXT	ENDS
; Function compile flags: /Odtp
; File c:\program files (x86)\microsoft visual studio 11.0\vc\include\type_traits
;	COMDAT ??$forward@AAPAD@std@@YAAAPADAAPAD@Z
_TEXT	SEGMENT
__Arg$ = 8						; size = 4
??$forward@AAPAD@std@@YAAAPADAAPAD@Z PROC		; std::forward<char * &>, COMDAT

; 1775 : 	{	// forward an lvalue

	push	ebp
	mov	ebp, esp

; 1776 : 	return (static_cast<_Ty&&>(_Arg));

	mov	eax, DWORD PTR __Arg$[ebp]

; 1777 : 	}

	pop	ebp
	ret	0
??$forward@AAPAD@std@@YAAAPADAAPAD@Z ENDP		; std::forward<char * &>
_TEXT	ENDS
; Function compile flags: /Odtp
;	COMDAT ??__F?_System_object@?$_Error_objects@H@std@@2V_System_error_category@2@A@@YAXXZ
text$yd	SEGMENT
??__F?_System_object@?$_Error_objects@H@std@@2V_System_error_category@2@A@@YAXXZ PROC ; `dynamic atexit destructor for 'std::_Error_objects<int>::_System_object'', COMDAT
	push	ebp
	mov	ebp, esp
	mov	ecx, OFFSET ?_System_object@?$_Error_objects@H@std@@2V_System_error_category@2@A ; std::_Error_objects<int>::_System_object
	call	??1_System_error_category@std@@UAE@XZ
	pop	ebp
	ret	0
??__F?_System_object@?$_Error_objects@H@std@@2V_System_error_category@2@A@@YAXXZ ENDP ; `dynamic atexit destructor for 'std::_Error_objects<int>::_System_object''
text$yd	ENDS
; Function compile flags: /Odtp
; File c:\program files (x86)\microsoft visual studio 11.0\vc\include\xmemory0
;	COMDAT ??__E?_System_object@?$_Error_objects@H@std@@2V_System_error_category@2@A@@YAXXZ
text$yc	SEGMENT
??__E?_System_object@?$_Error_objects@H@std@@2V_System_error_category@2@A@@YAXXZ PROC ; `dynamic initializer for 'std::_Error_objects<int>::_System_object'', COMDAT

; 627  : 		{	// estimate maximum array size

	push	ebp
	mov	ebp, esp
	mov	ecx, OFFSET ?_System_object@?$_Error_objects@H@std@@2V_System_error_category@2@A ; std::_Error_objects<int>::_System_object
	call	??0_System_error_category@std@@QAE@XZ	; std::_System_error_category::_System_error_category
	push	OFFSET ??__F?_System_object@?$_Error_objects@H@std@@2V_System_error_category@2@A@@YAXXZ ; `dynamic atexit destructor for 'std::_Error_objects<int>::_System_object''
	call	_atexit
	add	esp, 4
	pop	ebp
	ret	0
??__E?_System_object@?$_Error_objects@H@std@@2V_System_error_category@2@A@@YAXXZ ENDP ; `dynamic initializer for 'std::_Error_objects<int>::_System_object''
text$yc	ENDS
; Function compile flags: /Odtp
;	COMDAT ??__F?_Iostream_object@?$_Error_objects@H@std@@2V_Iostream_error_category@2@A@@YAXXZ
text$yd	SEGMENT
??__F?_Iostream_object@?$_Error_objects@H@std@@2V_Iostream_error_category@2@A@@YAXXZ PROC ; `dynamic atexit destructor for 'std::_Error_objects<int>::_Iostream_object'', COMDAT
	push	ebp
	mov	ebp, esp
	mov	ecx, OFFSET ?_Iostream_object@?$_Error_objects@H@std@@2V_Iostream_error_category@2@A ; std::_Error_objects<int>::_Iostream_object
	call	??1_Iostream_error_category@std@@UAE@XZ
	pop	ebp
	ret	0
??__F?_Iostream_object@?$_Error_objects@H@std@@2V_Iostream_error_category@2@A@@YAXXZ ENDP ; `dynamic atexit destructor for 'std::_Error_objects<int>::_Iostream_object''
text$yd	ENDS
; Function compile flags: /Odtp
; File c:\program files (x86)\microsoft visual studio 11.0\vc\include\xmemory0
;	COMDAT ??__E?_Iostream_object@?$_Error_objects@H@std@@2V_Iostream_error_category@2@A@@YAXXZ
text$yc	SEGMENT
??__E?_Iostream_object@?$_Error_objects@H@std@@2V_Iostream_error_category@2@A@@YAXXZ PROC ; `dynamic initializer for 'std::_Error_objects<int>::_Iostream_object'', COMDAT

; 627  : 		{	// estimate maximum array size

	push	ebp
	mov	ebp, esp
	mov	ecx, OFFSET ?_Iostream_object@?$_Error_objects@H@std@@2V_Iostream_error_category@2@A ; std::_Error_objects<int>::_Iostream_object
	call	??0_Iostream_error_category@std@@QAE@XZ	; std::_Iostream_error_category::_Iostream_error_category
	push	OFFSET ??__F?_Iostream_object@?$_Error_objects@H@std@@2V_Iostream_error_category@2@A@@YAXXZ ; `dynamic atexit destructor for 'std::_Error_objects<int>::_Iostream_object''
	call	_atexit
	add	esp, 4
	pop	ebp
	ret	0
??__E?_Iostream_object@?$_Error_objects@H@std@@2V_Iostream_error_category@2@A@@YAXXZ ENDP ; `dynamic initializer for 'std::_Error_objects<int>::_Iostream_object''
text$yc	ENDS
; Function compile flags: /Odtp
;	COMDAT ??__F?_Generic_object@?$_Error_objects@H@std@@2V_Generic_error_category@2@A@@YAXXZ
text$yd	SEGMENT
??__F?_Generic_object@?$_Error_objects@H@std@@2V_Generic_error_category@2@A@@YAXXZ PROC ; `dynamic atexit destructor for 'std::_Error_objects<int>::_Generic_object'', COMDAT
	push	ebp
	mov	ebp, esp
	mov	ecx, OFFSET ?_Generic_object@?$_Error_objects@H@std@@2V_Generic_error_category@2@A ; std::_Error_objects<int>::_Generic_object
	call	??1_Generic_error_category@std@@UAE@XZ
	pop	ebp
	ret	0
??__F?_Generic_object@?$_Error_objects@H@std@@2V_Generic_error_category@2@A@@YAXXZ ENDP ; `dynamic atexit destructor for 'std::_Error_objects<int>::_Generic_object''
text$yd	ENDS
; Function compile flags: /Odtp
; File c:\program files (x86)\microsoft visual studio 11.0\vc\include\xmemory0
;	COMDAT ??__E?_Generic_object@?$_Error_objects@H@std@@2V_Generic_error_category@2@A@@YAXXZ
text$yc	SEGMENT
??__E?_Generic_object@?$_Error_objects@H@std@@2V_Generic_error_category@2@A@@YAXXZ PROC ; `dynamic initializer for 'std::_Error_objects<int>::_Generic_object'', COMDAT

; 627  : 		{	// estimate maximum array size

	push	ebp
	mov	ebp, esp
	mov	ecx, OFFSET ?_Generic_object@?$_Error_objects@H@std@@2V_Generic_error_category@2@A ; std::_Error_objects<int>::_Generic_object
	call	??0_Generic_error_category@std@@QAE@XZ	; std::_Generic_error_category::_Generic_error_category
	push	OFFSET ??__F?_Generic_object@?$_Error_objects@H@std@@2V_Generic_error_category@2@A@@YAXXZ ; `dynamic atexit destructor for 'std::_Error_objects<int>::_Generic_object''
	call	_atexit
	add	esp, 4
	pop	ebp
	ret	0
??__E?_Generic_object@?$_Error_objects@H@std@@2V_Generic_error_category@2@A@@YAXXZ ENDP ; `dynamic initializer for 'std::_Error_objects<int>::_Generic_object''
text$yc	ENDS
; Function compile flags: /Odtp
; File c:\program files (x86)\microsoft visual studio 11.0\vc\include\xmemory0
;	COMDAT ??$_Allocate@D@std@@YAPADIPAD@Z
_TEXT	SEGMENT
__Ptr$ = -4						; size = 4
__Count$ = 8						; size = 4
___formal$ = 12						; size = 4
??$_Allocate@D@std@@YAPADIPAD@Z PROC			; std::_Allocate<char>, COMDAT

; 22   : 	{	// allocate storage for _Count elements of type _Ty

	push	ebp
	mov	ebp, esp
	push	ecx

; 23   : 	void *_Ptr = 0;

	mov	DWORD PTR __Ptr$[ebp], 0

; 24   : 
; 25   : 	if (_Count == 0)

	cmp	DWORD PTR __Count$[ebp], 0
	jne	SHORT $LN4@Allocate

; 26   : 		;
; 27   : 	else if (((size_t)(-1) / sizeof (_Ty) < _Count)

	jmp	SHORT $LN3@Allocate
$LN4@Allocate:

; 28   : 		|| (_Ptr = ::operator new(_Count * sizeof (_Ty))) == 0)

	cmp	DWORD PTR __Count$[ebp], -1
	ja	SHORT $LN1@Allocate
	mov	eax, DWORD PTR __Count$[ebp]
	push	eax
	call	??2@YAPAXI@Z				; operator new
	add	esp, 4
	mov	DWORD PTR __Ptr$[ebp], eax
	cmp	DWORD PTR __Ptr$[ebp], 0
	jne	SHORT $LN3@Allocate
$LN1@Allocate:

; 29   : 		_Xbad_alloc();	// report no memory

	call	?_Xbad_alloc@std@@YAXXZ			; std::_Xbad_alloc
$LN3@Allocate:

; 30   : 
; 31   : 	return ((_Ty *)_Ptr);

	mov	eax, DWORD PTR __Ptr$[ebp]
$LN6@Allocate:

; 32   : 	}

	mov	esp, ebp
	pop	ebp
	ret	0
??$_Allocate@D@std@@YAPADIPAD@Z ENDP			; std::_Allocate<char>
_TEXT	ENDS
; Function compile flags: /Odtp
; File c:\program files (x86)\microsoft visual studio 11.0\vc\include\xstddef
;	COMDAT ??$addressof@D@std@@YAPADAAD@Z
_TEXT	SEGMENT
__Val$ = 8						; size = 4
??$addressof@D@std@@YAPADAAD@Z PROC			; std::addressof<char>, COMDAT

; 85   : 	{	// return address of _Val

	push	ebp
	mov	ebp, esp

; 86   : 	return (reinterpret_cast<_Ty *>(
; 87   : 		(&const_cast<char&>(
; 88   : 		reinterpret_cast<const volatile char&>(_Val)))));

	mov	eax, DWORD PTR __Val$[ebp]

; 89   : 	}

	pop	ebp
	ret	0
??$addressof@D@std@@YAPADAAD@Z ENDP			; std::addressof<char>
_TEXT	ENDS
; Function compile flags: /Odtp
; File c:\program files (x86)\microsoft visual studio 11.0\vc\include\xmemory0
;	COMDAT ??$destroy@PAD@?$_Wrap_alloc@V?$allocator@D@std@@@std@@QAEXPAPAD@Z
_TEXT	SEGMENT
_this$ = -4						; size = 4
__Ptr$ = 8						; size = 4
??$destroy@PAD@?$_Wrap_alloc@V?$allocator@D@std@@@std@@QAEXPAPAD@Z PROC ; std::_Wrap_alloc<std::allocator<char> >::destroy<char *>, COMDAT
; _this$ = ecx

; 907  : 		void destroy(_Ty *_Ptr)

	push	ebp
	mov	ebp, esp
	push	ecx
	mov	DWORD PTR _this$[ebp], ecx

; 908  : 		{	// destroy object at _Ptr
; 909  : 		_Mytraits::destroy(*this, _Ptr);

	mov	eax, DWORD PTR __Ptr$[ebp]
	push	eax
	mov	ecx, DWORD PTR _this$[ebp]
	push	ecx
	call	??$destroy@PAD@?$allocator_traits@V?$allocator@D@std@@@std@@SAXAAV?$allocator@D@1@PAPAD@Z ; std::allocator_traits<std::allocator<char> >::destroy<char *>
	add	esp, 8

; 910  : 		}

	mov	esp, ebp
	pop	ebp
	ret	4
??$destroy@PAD@?$_Wrap_alloc@V?$allocator@D@std@@@std@@QAEXPAPAD@Z ENDP ; std::_Wrap_alloc<std::allocator<char> >::destroy<char *>
_TEXT	ENDS
; Function compile flags: /Odtp
; File c:\program files (x86)\microsoft visual studio 11.0\vc\include\xmemory0
;	COMDAT ??$construct@PADAAPAD@?$_Wrap_alloc@V?$allocator@D@std@@@std@@QAEXPAPADAAPAD@Z
_TEXT	SEGMENT
_this$ = -4						; size = 4
__Ptr$ = 8						; size = 4
__V0$ = 12						; size = 4
??$construct@PADAAPAD@?$_Wrap_alloc@V?$allocator@D@std@@@std@@QAEXPAPADAAPAD@Z PROC ; std::_Wrap_alloc<std::allocator<char> >::construct<char *,char * &>, COMDAT
; _this$ = ecx

; 903  : _VARIADIC_EXPAND_0X(_WRAP_ALLOC_CONSTRUCT, , , , )

	push	ebp
	mov	ebp, esp
	push	ecx
	mov	DWORD PTR _this$[ebp], ecx
	mov	eax, DWORD PTR __V0$[ebp]
	push	eax
	call	??$forward@AAPAD@std@@YAAAPADAAPAD@Z	; std::forward<char * &>
	add	esp, 4
	push	eax
	mov	ecx, DWORD PTR __Ptr$[ebp]
	push	ecx
	mov	edx, DWORD PTR _this$[ebp]
	push	edx
	call	??$construct@PADAAPAD@?$allocator_traits@V?$allocator@D@std@@@std@@SAXAAV?$allocator@D@1@PAPADAAPAD@Z ; std::allocator_traits<std::allocator<char> >::construct<char *,char * &>
	add	esp, 12					; 0000000cH
	mov	esp, ebp
	pop	ebp
	ret	8
??$construct@PADAAPAD@?$_Wrap_alloc@V?$allocator@D@std@@@std@@QAEXPAPADAAPAD@Z ENDP ; std::_Wrap_alloc<std::allocator<char> >::construct<char *,char * &>
_TEXT	ENDS
; Function compile flags: /Odtp
; File c:\users\zhitao li\documents\visual studio 2012\projects\freefalcon\ui\src\dogfight\dfscores.cpp
_TEXT	SEGMENT
___formal$ = 8						; size = 4
?SaveDogfightResults@@YAXPAD@Z PROC			; SaveDogfightResults

; 489  : {

	push	ebp
	mov	ebp, esp

; 490  : }

	pop	ebp
	ret	0
?SaveDogfightResults@@YAXPAD@Z ENDP			; SaveDogfightResults
_TEXT	ENDS
; Function compile flags: /Odtp
; File c:\users\zhitao li\documents\visual studio 2012\projects\freefalcon\ui\src\dogfight\dfscores.cpp
_TEXT	SEGMENT
$T2 = -216						; size = 4
$T3 = -212						; size = 4
$T4 = -208						; size = 4
$T5 = -204						; size = 4
_kills$ = -200						; size = 4
$T6 = -196						; size = 4
$T7 = -192						; size = 4
_human_only$ = -188					; size = 4
$T8 = -184						; size = 4
tv419 = -180						; size = 4
tv257 = -176						; size = 4
_ShowTeams$ = -172					; size = 4
tv177 = -168						; size = 4
$T9 = -164						; size = 4
tv494 = -160						; size = 4
$T10 = -156						; size = 4
$T11 = -152						; size = 4
$T12 = -148						; size = 4
tv577 = -144						; size = 4
$T13 = -140						; size = 4
tv343 = -136						; size = 4
_PlayerClient$ = -132					; size = 4
_pilot_data$ = -128					; size = 4
_flight_data$ = -124					; size = 4
_j$ = -120						; size = 4
_cur$ = -116						; size = 4
_Y$ = -112						; size = 4
_win$ = -108						; size = 4
_i$ = -104						; size = 4
_txt$ = -100						; size = 4
_buffer$ = -96						; size = 80
__$ArrayPad$ = -16					; size = 4
__$EHRec$ = -12						; size = 12
?DisplayDogfightResults@@YAXXZ PROC			; DisplayDogfightResults

; 310  : {

	push	ebp
	mov	ebp, esp
	push	-1
	push	__ehhandler$?DisplayDogfightResults@@YAXXZ
	mov	eax, DWORD PTR fs:0
	push	eax
	sub	esp, 204				; 000000ccH
	mov	eax, DWORD PTR ___security_cookie
	xor	eax, ebp
	mov	DWORD PTR __$ArrayPad$[ebp], eax
	push	eax
	lea	eax, DWORD PTR __$EHRec$[ebp]
	mov	DWORD PTR fs:0, eax

; 311  : 	C_Window	*win;
; 312  : 	C_Text		*txt;
; 313  : 	int			Y,i,j,kills,human_only=0;

	mov	DWORD PTR _human_only$[ebp], 0

; 314  : 	BOOL		ShowTeams;
; 315  : 	long		PlayerClient;
; 316  : 	_TCHAR		buffer[80];
; 317  : 	PilotSortClass		*cur;
; 318  : 	FlightDataClass		*flight_data;
; 319  : 	PilotDataClass		*pilot_data;
; 320  : 
; 321  : 	for(i=0;i<MAX_DOGFIGHT_TEAMS;i++)

	mov	DWORD PTR _i$[ebp], 0
	jmp	SHORT $LN27@DisplayDog
$LN26@DisplayDog:
	mov	eax, DWORD PTR _i$[ebp]
	add	eax, 1
	mov	DWORD PTR _i$[ebp], eax
$LN27@DisplayDog:
	cmp	DWORD PTR _i$[ebp], 5
	jge	SHORT $LN25@DisplayDog

; 322  : 		TeamRank[i]=static_cast<short>(i);

	mov	ecx, DWORD PTR _i$[ebp]
	mov	dx, WORD PTR _i$[ebp]
	mov	WORD PTR ?TeamRank@@3PAFA[ecx*2], dx
	jmp	SHORT $LN26@DisplayDog
$LN25@DisplayDog:

; 323  : 
; 324  : 	// Tally Kills
; 325  : 	TallyTeamKills();

	call	?TallyTeamKills@@YAXXZ			; TallyTeamKills

; 326  : 
; 327  : 	for(i=1;i<MAX_DOGFIGHT_TEAMS;i++) // Bubble sort :)

	mov	DWORD PTR _i$[ebp], 1
	jmp	SHORT $LN24@DisplayDog
$LN23@DisplayDog:
	mov	eax, DWORD PTR _i$[ebp]
	add	eax, 1
	mov	DWORD PTR _i$[ebp], eax
$LN24@DisplayDog:
	cmp	DWORD PTR _i$[ebp], 5
	jge	$LN22@DisplayDog

; 328  : 		for(j=0;j<i;j++)

	mov	DWORD PTR _j$[ebp], 0
	jmp	SHORT $LN21@DisplayDog
$LN20@DisplayDog:
	mov	ecx, DWORD PTR _j$[ebp]
	add	ecx, 1
	mov	DWORD PTR _j$[ebp], ecx
$LN21@DisplayDog:
	mov	edx, DWORD PTR _j$[ebp]
	cmp	edx, DWORD PTR _i$[ebp]
	jge	SHORT $LN19@DisplayDog

; 329  : 			if(TeamTotals[TeamRank[j]][2] < TeamTotals[TeamRank[i]][2])

	mov	eax, DWORD PTR _j$[ebp]
	movsx	ecx, WORD PTR ?TeamRank@@3PAFA[eax*2]
	imul	ecx, 6
	mov	edx, 2
	shl	edx, 1
	movsx	eax, WORD PTR ?TeamTotals@@3PAY02FA[ecx+edx]
	mov	ecx, DWORD PTR _i$[ebp]
	movsx	edx, WORD PTR ?TeamRank@@3PAFA[ecx*2]
	imul	edx, 6
	mov	ecx, 2
	shl	ecx, 1
	movsx	edx, WORD PTR ?TeamTotals@@3PAY02FA[edx+ecx]
	cmp	eax, edx
	jge	SHORT $LN18@DisplayDog

; 330  : 			{
; 331  : 				Y=TeamRank[i];

	mov	eax, DWORD PTR _i$[ebp]
	movsx	ecx, WORD PTR ?TeamRank@@3PAFA[eax*2]
	mov	DWORD PTR _Y$[ebp], ecx

; 332  : 				TeamRank[i]=TeamRank[j];

	mov	edx, DWORD PTR _i$[ebp]
	mov	eax, DWORD PTR _j$[ebp]
	mov	cx, WORD PTR ?TeamRank@@3PAFA[eax*2]
	mov	WORD PTR ?TeamRank@@3PAFA[edx*2], cx

; 333  : 				TeamRank[j]=static_cast<short>(Y);

	mov	edx, DWORD PTR _j$[ebp]
	mov	ax, WORD PTR _Y$[ebp]
	mov	WORD PTR ?TeamRank@@3PAFA[edx*2], ax
$LN18@DisplayDog:

; 334  : 			}
; 335  : 
; 336  : 	if(SimDogfight.GetGameType() == dog_Furball)

	jmp	$LN20@DisplayDog
$LN19@DisplayDog:
	jmp	$LN23@DisplayDog
$LN22@DisplayDog:
	mov	ecx, OFFSET ?SimDogfight@@3VDogfightClass@@A ; SimDogfight
	call	?GetGameType@DogfightClass@@QAE?AW4DogfightType@@XZ ; DogfightClass::GetGameType
	test	eax, eax
	jne	SHORT $LN17@DisplayDog

; 337  : 	{
; 338  : 		ShowTeams=FALSE;

	mov	DWORD PTR _ShowTeams$[ebp], 0

; 339  : 		PlayerClient=4;

	mov	DWORD PTR _PlayerClient$[ebp], 4

; 340  : 	}
; 341  : 	else

	jmp	SHORT $LN16@DisplayDog
$LN17@DisplayDog:

; 342  : 	{
; 343  : 		ShowTeams=TRUE;

	mov	DWORD PTR _ShowTeams$[ebp], 1

; 344  : 		PlayerClient=3;

	mov	DWORD PTR _PlayerClient$[ebp], 3
$LN16@DisplayDog:

; 345  : 	}
; 346  : 
; 347  : 	// Sort
; 348  : 	win=gMainHandler->FindWindow(DF_DBRF_WIN);

	push	21070					; 0000524eH
	mov	ecx, DWORD PTR ?gMainHandler@@3PAVC_Handler@@A ; gMainHandler
	call	?FindWindowA@C_Handler@@QAEPAVC_Window@@J@Z ; C_Handler::FindWindowA
	mov	DWORD PTR _win$[ebp], eax

; 349  : 	if(win)

	cmp	DWORD PTR _win$[ebp], 0
	je	$LN15@DisplayDog

; 350  : 	{
; 351  : 		// Build a pilot list sorted by score from the MissionEvaluator.
; 352  : 		flight_data = TheCampaign.MissionEvaluator->flight_data;

	mov	ecx, DWORD PTR ?TheCampaign@@3VCampaignClass@@A+324
	mov	edx, DWORD PTR [ecx+204]
	mov	DWORD PTR _flight_data$[ebp], edx
$LN14@DisplayDog:

; 353  : 		while (flight_data)

	cmp	DWORD PTR _flight_data$[ebp], 0
	je	SHORT $LN13@DisplayDog

; 354  : 			{
; 355  : 			pilot_data = flight_data->pilot_list;

	mov	eax, DWORD PTR _flight_data$[ebp]
	mov	ecx, DWORD PTR [eax+152]
	mov	DWORD PTR _pilot_data$[ebp], ecx
$LN12@DisplayDog:

; 356  : 			while (pilot_data)

	cmp	DWORD PTR _pilot_data$[ebp], 0
	je	SHORT $LN11@DisplayDog

; 357  : 				{
; 358  : 				if (!human_only || pilot_data->pilot_flags & PFLAG_PLAYER_CONTROLLED)

	cmp	DWORD PTR _human_only$[ebp], 0
	je	SHORT $LN9@DisplayDog
	mov	edx, DWORD PTR _pilot_data$[ebp]
	movzx	eax, BYTE PTR [edx+64]
	and	eax, 1
	je	SHORT $LN10@DisplayDog
$LN9@DisplayDog:

; 359  : 					{
; 360  : 					AddtoSortedList(pilot_data,flight_data->flight_team);

	mov	ecx, DWORD PTR _flight_data$[ebp]
	movzx	edx, BYTE PTR [ecx+60]
	push	edx
	mov	eax, DWORD PTR _pilot_data$[ebp]
	push	eax
	call	?AddtoSortedList@@YAXPAVPilotDataClass@@H@Z ; AddtoSortedList
	add	esp, 8

; 361  : 					TeamUsed[flight_data->flight_team] = 1;

	mov	ecx, DWORD PTR _flight_data$[ebp]
	movzx	edx, BYTE PTR [ecx+60]
	mov	eax, 1
	mov	WORD PTR ?TeamUsed@@3PAFA[edx*2], ax
$LN10@DisplayDog:

; 362  : 					}
; 363  : 				pilot_data = pilot_data->next_pilot;

	mov	ecx, DWORD PTR _pilot_data$[ebp]
	mov	edx, DWORD PTR [ecx+444]
	mov	DWORD PTR _pilot_data$[ebp], edx

; 364  : 				}

	jmp	SHORT $LN12@DisplayDog
$LN11@DisplayDog:

; 365  : 			flight_data = flight_data->next_flight;

	mov	eax, DWORD PTR _flight_data$[ebp]
	mov	ecx, DWORD PTR [eax+164]
	mov	DWORD PTR _flight_data$[ebp], ecx

; 366  : 			}

	jmp	SHORT $LN14@DisplayDog
$LN13@DisplayDog:

; 367  : 
; 368  : 		if(ShowTeams)

	cmp	DWORD PTR _ShowTeams$[ebp], 0
	je	$LN8@DisplayDog

; 369  : 		{
; 370  : 			win->DisableCluster(200);

	push	200					; 000000c8H
	mov	ecx, DWORD PTR _win$[ebp]
	call	?DisableCluster@C_Window@@QAEXJ@Z	; C_Window::DisableCluster

; 371  : 			win->EnableCluster(100);

	push	100					; 00000064H
	mov	ecx, DWORD PTR _win$[ebp]
	call	?EnableCluster@C_Window@@QAEXJ@Z	; C_Window::EnableCluster

; 372  : 			// Display Team scores
; 373  : 			Y=0;

	mov	DWORD PTR _Y$[ebp], 0

; 374  : 			for(i=0;i<MAX_DOGFIGHT_TEAMS;i++)

	mov	DWORD PTR _i$[ebp], 0
	jmp	SHORT $LN7@DisplayDog
$LN6@DisplayDog:
	mov	edx, DWORD PTR _i$[ebp]
	add	edx, 1
	mov	DWORD PTR _i$[ebp], edx
$LN7@DisplayDog:
	cmp	DWORD PTR _i$[ebp], 5
	jge	$LN5@DisplayDog

; 375  : 			{
; 376  : 				if(TeamUsed[TeamRank[i]])

	mov	eax, DWORD PTR _i$[ebp]
	movsx	ecx, WORD PTR ?TeamRank@@3PAFA[eax*2]
	movsx	edx, WORD PTR ?TeamUsed@@3PAFA[ecx*2]
	test	edx, edx
	je	$LN4@DisplayDog

; 377  : 				{
; 378  : 					txt=new C_Text;

	push	76					; 0000004cH
	call	??2@YAPAXI@Z				; operator new
	add	esp, 4
	mov	DWORD PTR $T10[ebp], eax
	mov	DWORD PTR __$EHRec$[ebp+8], 0
	cmp	DWORD PTR $T10[ebp], 0
	je	SHORT $LN30@DisplayDog
	mov	ecx, DWORD PTR $T10[ebp]
	call	??0C_Text@@QAE@XZ			; C_Text::C_Text
	mov	DWORD PTR tv177[ebp], eax
	jmp	SHORT $LN31@DisplayDog
$LN30@DisplayDog:
	mov	DWORD PTR tv177[ebp], 0
$LN31@DisplayDog:
	mov	eax, DWORD PTR tv177[ebp]
	mov	DWORD PTR $T2[ebp], eax
	mov	DWORD PTR __$EHRec$[ebp+8], -1
	mov	ecx, DWORD PTR $T2[ebp]
	mov	DWORD PTR _txt$[ebp], ecx

; 379  : 					txt->Setup(C_DONT_CARE,C_TYPE_LEFT);

	push	44					; 0000002cH
	push	-2					; fffffffeH
	mov	edx, DWORD PTR _txt$[ebp]
	mov	eax, DWORD PTR [edx]
	mov	ecx, DWORD PTR _txt$[ebp]
	mov	edx, DWORD PTR [eax+248]
	call	edx

; 380  : 					txt->SetText(gStringMgr->GetString(DFTeamNameStrIDs[TeamRank[i]]));

	mov	eax, DWORD PTR _i$[ebp]
	movsx	ecx, WORD PTR ?TeamRank@@3PAFA[eax*2]
	mov	edx, DWORD PTR ?DFTeamNameStrIDs@@3PAJA[ecx*4]
	push	edx
	mov	ecx, DWORD PTR ?gStringMgr@@3PAVC_String@@A ; gStringMgr
	call	?GetString@C_String@@QAEPADJ@Z		; C_String::GetString
	push	eax
	mov	eax, DWORD PTR _txt$[ebp]
	mov	edx, DWORD PTR [eax]
	mov	ecx, DWORD PTR _txt$[ebp]
	mov	eax, DWORD PTR [edx+256]
	call	eax

; 381  : 					txt->SetXY(0,Y);

	mov	ecx, DWORD PTR _Y$[ebp]
	push	ecx
	push	0
	mov	edx, DWORD PTR _txt$[ebp]
	mov	eax, DWORD PTR [edx]
	mov	ecx, DWORD PTR _txt$[ebp]
	mov	edx, DWORD PTR [eax+32]
	call	edx

; 382  : 					txt->SetFGColor(DFTeamColors[TeamRank[i]]);

	mov	eax, DWORD PTR _i$[ebp]
	movsx	ecx, WORD PTR ?TeamRank@@3PAFA[eax*2]
	mov	edx, DWORD PTR ?DFTeamColors@@3PAKA[ecx*4]
	push	edx
	mov	ecx, DWORD PTR _txt$[ebp]
	call	?SetFGColor@C_Text@@QAEXK@Z		; C_Text::SetFGColor

; 383  : 					txt->SetFont(win->Font_);

	mov	eax, DWORD PTR _win$[ebp]
	mov	ecx, DWORD PTR [eax+108]
	push	ecx
	mov	edx, DWORD PTR _txt$[ebp]
	mov	eax, DWORD PTR [edx]
	mov	ecx, DWORD PTR _txt$[ebp]
	mov	edx, DWORD PTR [eax+68]
	call	edx

; 384  : 					txt->SetClient(2);

	push	2
	mov	ecx, DWORD PTR _txt$[ebp]
	call	?SetClient@C_Base@@QAEXF@Z		; C_Base::SetClient

; 385  : 					txt->SetFlagBitOn(C_BIT_LEFT);

	push	32					; 00000020H
	mov	eax, DWORD PTR _txt$[ebp]
	mov	edx, DWORD PTR [eax]
	mov	ecx, DWORD PTR _txt$[ebp]
	mov	eax, DWORD PTR [edx+8]
	call	eax

; 386  : 					win->AddControl(txt);

	mov	ecx, DWORD PTR _txt$[ebp]
	push	ecx
	mov	ecx, DWORD PTR _win$[ebp]
	call	?AddControl@C_Window@@QAEXPAVC_Base@@@Z	; C_Window::AddControl

; 387  : 
; 388  : 					_stprintf(buffer,"%1d",TeamTotals[TeamRank[i]][2]);

	mov	edx, DWORD PTR _i$[ebp]
	movsx	eax, WORD PTR ?TeamRank@@3PAFA[edx*2]
	imul	eax, 6
	mov	ecx, 2
	shl	ecx, 1
	movsx	edx, WORD PTR ?TeamTotals@@3PAY02FA[eax+ecx]
	push	edx
	push	OFFSET ??_C@_03GNGPFOOL@?$CF1d?$AA@
	lea	eax, DWORD PTR _buffer$[ebp]
	push	eax
	call	_sprintf
	add	esp, 12					; 0000000cH

; 389  : 
; 390  : 					txt=new C_Text;

	push	76					; 0000004cH
	call	??2@YAPAXI@Z				; operator new
	add	esp, 4
	mov	DWORD PTR $T12[ebp], eax
	mov	DWORD PTR __$EHRec$[ebp+8], 1
	cmp	DWORD PTR $T12[ebp], 0
	je	SHORT $LN32@DisplayDog
	mov	ecx, DWORD PTR $T12[ebp]
	call	??0C_Text@@QAE@XZ			; C_Text::C_Text
	mov	DWORD PTR tv257[ebp], eax
	jmp	SHORT $LN33@DisplayDog
$LN32@DisplayDog:
	mov	DWORD PTR tv257[ebp], 0
$LN33@DisplayDog:
	mov	ecx, DWORD PTR tv257[ebp]
	mov	DWORD PTR $T6[ebp], ecx
	mov	DWORD PTR __$EHRec$[ebp+8], -1
	mov	edx, DWORD PTR $T6[ebp]
	mov	DWORD PTR _txt$[ebp], edx

; 391  : 					txt->Setup(C_DONT_CARE,C_TYPE_RIGHT);

	push	46					; 0000002eH
	push	-2					; fffffffeH
	mov	eax, DWORD PTR _txt$[ebp]
	mov	edx, DWORD PTR [eax]
	mov	ecx, DWORD PTR _txt$[ebp]
	mov	eax, DWORD PTR [edx+248]
	call	eax

; 392  : 					txt->SetFixedWidth(_tcsclen(buffer)+1);

	lea	ecx, DWORD PTR _buffer$[ebp]
	push	ecx
	call	__tcsclen
	add	esp, 4
	add	eax, 1
	push	eax
	mov	ecx, DWORD PTR _txt$[ebp]
	call	?SetFixedWidth@C_Text@@QAEXJ@Z		; C_Text::SetFixedWidth

; 393  : 					txt->SetText(buffer);

	lea	edx, DWORD PTR _buffer$[ebp]
	push	edx
	mov	eax, DWORD PTR _txt$[ebp]
	mov	edx, DWORD PTR [eax]
	mov	ecx, DWORD PTR _txt$[ebp]
	mov	eax, DWORD PTR [edx+256]
	call	eax

; 394  : 					txt->SetXY(140,Y);

	mov	ecx, DWORD PTR _Y$[ebp]
	push	ecx
	push	140					; 0000008cH
	mov	edx, DWORD PTR _txt$[ebp]
	mov	eax, DWORD PTR [edx]
	mov	ecx, DWORD PTR _txt$[ebp]
	mov	edx, DWORD PTR [eax+32]
	call	edx

; 395  : 					txt->SetFGColor(DFTeamColors[TeamRank[i]]);

	mov	eax, DWORD PTR _i$[ebp]
	movsx	ecx, WORD PTR ?TeamRank@@3PAFA[eax*2]
	mov	edx, DWORD PTR ?DFTeamColors@@3PAKA[ecx*4]
	push	edx
	mov	ecx, DWORD PTR _txt$[ebp]
	call	?SetFGColor@C_Text@@QAEXK@Z		; C_Text::SetFGColor

; 396  : 					txt->SetFont(win->Font_);

	mov	eax, DWORD PTR _win$[ebp]
	mov	ecx, DWORD PTR [eax+108]
	push	ecx
	mov	edx, DWORD PTR _txt$[ebp]
	mov	eax, DWORD PTR [edx]
	mov	ecx, DWORD PTR _txt$[ebp]
	mov	edx, DWORD PTR [eax+68]
	call	edx

; 397  : 					txt->SetClient(2);

	push	2
	mov	ecx, DWORD PTR _txt$[ebp]
	call	?SetClient@C_Base@@QAEXF@Z		; C_Base::SetClient

; 398  : 					txt->SetFlagBitOn(C_BIT_RIGHT);

	push	64					; 00000040H
	mov	eax, DWORD PTR _txt$[ebp]
	mov	edx, DWORD PTR [eax]
	mov	ecx, DWORD PTR _txt$[ebp]
	mov	eax, DWORD PTR [edx+8]
	call	eax

; 399  : 					win->AddControl(txt);

	mov	ecx, DWORD PTR _txt$[ebp]
	push	ecx
	mov	ecx, DWORD PTR _win$[ebp]
	call	?AddControl@C_Window@@QAEXPAVC_Base@@@Z	; C_Window::AddControl

; 400  : 
; 401  : 					_stprintf(buffer,"%1d/%1d", TeamTotals[TeamRank[i]][0],TeamTotals[TeamRank[i]][1]);

	mov	edx, DWORD PTR _i$[ebp]
	movsx	eax, WORD PTR ?TeamRank@@3PAFA[edx*2]
	imul	eax, 6
	mov	ecx, 2
	shl	ecx, 0
	movsx	edx, WORD PTR ?TeamTotals@@3PAY02FA[eax+ecx]
	push	edx
	mov	eax, DWORD PTR _i$[ebp]
	movsx	ecx, WORD PTR ?TeamRank@@3PAFA[eax*2]
	imul	ecx, 6
	mov	edx, 2
	imul	edx, 0
	movsx	eax, WORD PTR ?TeamTotals@@3PAY02FA[ecx+edx]
	push	eax
	push	OFFSET ??_C@_07EGHPGJND@?$CF1d?1?$CF1d?$AA@
	lea	ecx, DWORD PTR _buffer$[ebp]
	push	ecx
	call	_sprintf
	add	esp, 16					; 00000010H

; 402  : 
; 403  : 					txt=new C_Text;

	push	76					; 0000004cH
	call	??2@YAPAXI@Z				; operator new
	add	esp, 4
	mov	DWORD PTR $T8[ebp], eax
	mov	DWORD PTR __$EHRec$[ebp+8], 2
	cmp	DWORD PTR $T8[ebp], 0
	je	SHORT $LN34@DisplayDog
	mov	ecx, DWORD PTR $T8[ebp]
	call	??0C_Text@@QAE@XZ			; C_Text::C_Text
	mov	DWORD PTR tv343[ebp], eax
	jmp	SHORT $LN35@DisplayDog
$LN34@DisplayDog:
	mov	DWORD PTR tv343[ebp], 0
$LN35@DisplayDog:
	mov	edx, DWORD PTR tv343[ebp]
	mov	DWORD PTR $T3[ebp], edx
	mov	DWORD PTR __$EHRec$[ebp+8], -1
	mov	eax, DWORD PTR $T3[ebp]
	mov	DWORD PTR _txt$[ebp], eax

; 404  : 					txt->Setup(C_DONT_CARE,C_TYPE_CENTER);

	push	45					; 0000002dH
	push	-2					; fffffffeH
	mov	ecx, DWORD PTR _txt$[ebp]
	mov	edx, DWORD PTR [ecx]
	mov	ecx, DWORD PTR _txt$[ebp]
	mov	eax, DWORD PTR [edx+248]
	call	eax

; 405  : 					txt->SetFixedWidth(_tcsclen(buffer)+1);

	lea	ecx, DWORD PTR _buffer$[ebp]
	push	ecx
	call	__tcsclen
	add	esp, 4
	add	eax, 1
	push	eax
	mov	ecx, DWORD PTR _txt$[ebp]
	call	?SetFixedWidth@C_Text@@QAEXJ@Z		; C_Text::SetFixedWidth

; 406  : 					txt->SetText(buffer);

	lea	edx, DWORD PTR _buffer$[ebp]
	push	edx
	mov	eax, DWORD PTR _txt$[ebp]
	mov	edx, DWORD PTR [eax]
	mov	ecx, DWORD PTR _txt$[ebp]
	mov	eax, DWORD PTR [edx+256]
	call	eax

; 407  : 					txt->SetXY(200,Y);

	mov	ecx, DWORD PTR _Y$[ebp]
	push	ecx
	push	200					; 000000c8H
	mov	edx, DWORD PTR _txt$[ebp]
	mov	eax, DWORD PTR [edx]
	mov	ecx, DWORD PTR _txt$[ebp]
	mov	edx, DWORD PTR [eax+32]
	call	edx

; 408  : 					txt->SetFGColor(DFTeamColors[TeamRank[i]]);

	mov	eax, DWORD PTR _i$[ebp]
	movsx	ecx, WORD PTR ?TeamRank@@3PAFA[eax*2]
	mov	edx, DWORD PTR ?DFTeamColors@@3PAKA[ecx*4]
	push	edx
	mov	ecx, DWORD PTR _txt$[ebp]
	call	?SetFGColor@C_Text@@QAEXK@Z		; C_Text::SetFGColor

; 409  : 					txt->SetFont(win->Font_);

	mov	eax, DWORD PTR _win$[ebp]
	mov	ecx, DWORD PTR [eax+108]
	push	ecx
	mov	edx, DWORD PTR _txt$[ebp]
	mov	eax, DWORD PTR [edx]
	mov	ecx, DWORD PTR _txt$[ebp]
	mov	edx, DWORD PTR [eax+68]
	call	edx

; 410  : 					txt->SetClient(2);

	push	2
	mov	ecx, DWORD PTR _txt$[ebp]
	call	?SetClient@C_Base@@QAEXF@Z		; C_Base::SetClient

; 411  : 					txt->SetFlagBitOn(C_BIT_HCENTER);

	push	512					; 00000200H
	mov	eax, DWORD PTR _txt$[ebp]
	mov	edx, DWORD PTR [eax]
	mov	ecx, DWORD PTR _txt$[ebp]
	mov	eax, DWORD PTR [edx+8]
	call	eax

; 412  : 					win->AddControl(txt);

	mov	ecx, DWORD PTR _txt$[ebp]
	push	ecx
	mov	ecx, DWORD PTR _win$[ebp]
	call	?AddControl@C_Window@@QAEXPAVC_Base@@@Z	; C_Window::AddControl

; 413  : 
; 414  : 					Y+=gFontList->GetHeight(win->Font_);

	mov	edx, DWORD PTR _win$[ebp]
	mov	eax, DWORD PTR [edx+108]
	push	eax
	mov	ecx, DWORD PTR ?gFontList@@3PAVC_Font@@A ; gFontList
	call	?GetHeight@C_Font@@QAEHJ@Z		; C_Font::GetHeight
	add	eax, DWORD PTR _Y$[ebp]
	mov	DWORD PTR _Y$[ebp], eax
$LN4@DisplayDog:

; 415  : 				}
; 416  : 			}

	jmp	$LN6@DisplayDog
$LN5@DisplayDog:

; 417  : 		}
; 418  : 		else

	jmp	SHORT $LN3@DisplayDog
$LN8@DisplayDog:

; 419  : 		{
; 420  : 			win->DisableCluster(100);

	push	100					; 00000064H
	mov	ecx, DWORD PTR _win$[ebp]
	call	?DisableCluster@C_Window@@QAEXJ@Z	; C_Window::DisableCluster

; 421  : 			win->EnableCluster(200);

	push	200					; 000000c8H
	mov	ecx, DWORD PTR _win$[ebp]
	call	?EnableCluster@C_Window@@QAEXJ@Z	; C_Window::EnableCluster
$LN3@DisplayDog:

; 422  : 		}
; 423  : 
; 424  : 		// Show individual scores
; 425  : 		Y = 0;

	mov	DWORD PTR _Y$[ebp], 0

; 426  : 		cur = SortedPilotList;

	mov	ecx, DWORD PTR ?SortedPilotList@@3PAVPilotSortClass@@A ; SortedPilotList
	mov	DWORD PTR _cur$[ebp], ecx
$LN2@DisplayDog:

; 427  : 		while (cur)

	cmp	DWORD PTR _cur$[ebp], 0
	je	$LN1@DisplayDog

; 428  : 			{
; 429  : 			// Add all the text she-it
; 430  : 			txt=new C_Text;

	push	76					; 0000004cH
	call	??2@YAPAXI@Z				; operator new
	add	esp, 4
	mov	DWORD PTR $T9[ebp], eax
	mov	DWORD PTR __$EHRec$[ebp+8], 3
	cmp	DWORD PTR $T9[ebp], 0
	je	SHORT $LN36@DisplayDog
	mov	ecx, DWORD PTR $T9[ebp]
	call	??0C_Text@@QAE@XZ			; C_Text::C_Text
	mov	DWORD PTR tv419[ebp], eax
	jmp	SHORT $LN37@DisplayDog
$LN36@DisplayDog:
	mov	DWORD PTR tv419[ebp], 0
$LN37@DisplayDog:
	mov	edx, DWORD PTR tv419[ebp]
	mov	DWORD PTR $T5[ebp], edx
	mov	DWORD PTR __$EHRec$[ebp+8], -1
	mov	eax, DWORD PTR $T5[ebp]
	mov	DWORD PTR _txt$[ebp], eax

; 431  : 			txt->Setup(C_DONT_CARE,C_TYPE_LEFT);

	push	44					; 0000002cH
	push	-2					; fffffffeH
	mov	ecx, DWORD PTR _txt$[ebp]
	mov	edx, DWORD PTR [ecx]
	mov	ecx, DWORD PTR _txt$[ebp]
	mov	eax, DWORD PTR [edx+248]
	call	eax

; 432  : 			txt->SetFixedWidth(_tcsclen(cur->pilot_data->pilot_name)+1);

	mov	ecx, DWORD PTR _cur$[ebp]
	mov	edx, DWORD PTR [ecx+4]
	push	edx
	call	__tcsclen
	add	esp, 4
	add	eax, 1
	push	eax
	mov	ecx, DWORD PTR _txt$[ebp]
	call	?SetFixedWidth@C_Text@@QAEXJ@Z		; C_Text::SetFixedWidth

; 433  : 			txt->SetText(cur->pilot_data->pilot_name);

	mov	eax, DWORD PTR _cur$[ebp]
	mov	ecx, DWORD PTR [eax+4]
	push	ecx
	mov	edx, DWORD PTR _txt$[ebp]
	mov	eax, DWORD PTR [edx]
	mov	ecx, DWORD PTR _txt$[ebp]
	mov	edx, DWORD PTR [eax+256]
	call	edx

; 434  : 			txt->SetXY(0,Y);

	mov	eax, DWORD PTR _Y$[ebp]
	push	eax
	push	0
	mov	ecx, DWORD PTR _txt$[ebp]
	mov	edx, DWORD PTR [ecx]
	mov	ecx, DWORD PTR _txt$[ebp]
	mov	eax, DWORD PTR [edx+32]
	call	eax

; 435  : 			txt->SetFGColor(DFTeamColors[cur->team]);

	mov	ecx, DWORD PTR _cur$[ebp]
	movsx	edx, WORD PTR [ecx]
	mov	eax, DWORD PTR ?DFTeamColors@@3PAKA[edx*4]
	push	eax
	mov	ecx, DWORD PTR _txt$[ebp]
	call	?SetFGColor@C_Text@@QAEXK@Z		; C_Text::SetFGColor

; 436  : 			txt->SetFont(win->Font_);

	mov	ecx, DWORD PTR _win$[ebp]
	mov	edx, DWORD PTR [ecx+108]
	push	edx
	mov	eax, DWORD PTR _txt$[ebp]
	mov	edx, DWORD PTR [eax]
	mov	ecx, DWORD PTR _txt$[ebp]
	mov	eax, DWORD PTR [edx+68]
	call	eax

; 437  : 			txt->SetClient(static_cast<short>(PlayerClient));

	movzx	ecx, WORD PTR _PlayerClient$[ebp]
	push	ecx
	mov	ecx, DWORD PTR _txt$[ebp]
	call	?SetClient@C_Base@@QAEXF@Z		; C_Base::SetClient

; 438  : 			txt->SetFlagBitOn(C_BIT_LEFT);

	push	32					; 00000020H
	mov	edx, DWORD PTR _txt$[ebp]
	mov	eax, DWORD PTR [edx]
	mov	ecx, DWORD PTR _txt$[ebp]
	mov	edx, DWORD PTR [eax+8]
	call	edx

; 439  : 			win->AddControl(txt);

	mov	eax, DWORD PTR _txt$[ebp]
	push	eax
	mov	ecx, DWORD PTR _win$[ebp]
	call	?AddControl@C_Window@@QAEXPAVC_Base@@@Z	; C_Window::AddControl

; 440  : 			
; 441  : 			_stprintf(buffer,"%1d",cur->pilot_data->score);

	mov	ecx, DWORD PTR _cur$[ebp]
	mov	edx, DWORD PTR [ecx+4]
	movsx	eax, WORD PTR [edx+78]
	push	eax
	push	OFFSET ??_C@_03GNGPFOOL@?$CF1d?$AA@
	lea	ecx, DWORD PTR _buffer$[ebp]
	push	ecx
	call	_sprintf
	add	esp, 12					; 0000000cH

; 442  : 
; 443  : 			txt=new C_Text;

	push	76					; 0000004cH
	call	??2@YAPAXI@Z				; operator new
	add	esp, 4
	mov	DWORD PTR $T11[ebp], eax
	mov	DWORD PTR __$EHRec$[ebp+8], 4
	cmp	DWORD PTR $T11[ebp], 0
	je	SHORT $LN38@DisplayDog
	mov	ecx, DWORD PTR $T11[ebp]
	call	??0C_Text@@QAE@XZ			; C_Text::C_Text
	mov	DWORD PTR tv494[ebp], eax
	jmp	SHORT $LN39@DisplayDog
$LN38@DisplayDog:
	mov	DWORD PTR tv494[ebp], 0
$LN39@DisplayDog:
	mov	edx, DWORD PTR tv494[ebp]
	mov	DWORD PTR $T7[ebp], edx
	mov	DWORD PTR __$EHRec$[ebp+8], -1
	mov	eax, DWORD PTR $T7[ebp]
	mov	DWORD PTR _txt$[ebp], eax

; 444  : 			txt->Setup(C_DONT_CARE,C_TYPE_RIGHT);

	push	46					; 0000002eH
	push	-2					; fffffffeH
	mov	ecx, DWORD PTR _txt$[ebp]
	mov	edx, DWORD PTR [ecx]
	mov	ecx, DWORD PTR _txt$[ebp]
	mov	eax, DWORD PTR [edx+248]
	call	eax

; 445  : 			txt->SetFixedWidth(_tcsclen(buffer)+1);

	lea	ecx, DWORD PTR _buffer$[ebp]
	push	ecx
	call	__tcsclen
	add	esp, 4
	add	eax, 1
	push	eax
	mov	ecx, DWORD PTR _txt$[ebp]
	call	?SetFixedWidth@C_Text@@QAEXJ@Z		; C_Text::SetFixedWidth

; 446  : 			txt->SetText(buffer);

	lea	edx, DWORD PTR _buffer$[ebp]
	push	edx
	mov	eax, DWORD PTR _txt$[ebp]
	mov	edx, DWORD PTR [eax]
	mov	ecx, DWORD PTR _txt$[ebp]
	mov	eax, DWORD PTR [edx+256]
	call	eax

; 447  : 			txt->SetXY(140,Y);

	mov	ecx, DWORD PTR _Y$[ebp]
	push	ecx
	push	140					; 0000008cH
	mov	edx, DWORD PTR _txt$[ebp]
	mov	eax, DWORD PTR [edx]
	mov	ecx, DWORD PTR _txt$[ebp]
	mov	edx, DWORD PTR [eax+32]
	call	edx

; 448  : 			txt->SetFGColor(DFTeamColors[cur->team]);

	mov	eax, DWORD PTR _cur$[ebp]
	movsx	ecx, WORD PTR [eax]
	mov	edx, DWORD PTR ?DFTeamColors@@3PAKA[ecx*4]
	push	edx
	mov	ecx, DWORD PTR _txt$[ebp]
	call	?SetFGColor@C_Text@@QAEXK@Z		; C_Text::SetFGColor

; 449  : 			txt->SetFont(win->Font_);

	mov	eax, DWORD PTR _win$[ebp]
	mov	ecx, DWORD PTR [eax+108]
	push	ecx
	mov	edx, DWORD PTR _txt$[ebp]
	mov	eax, DWORD PTR [edx]
	mov	ecx, DWORD PTR _txt$[ebp]
	mov	edx, DWORD PTR [eax+68]
	call	edx

; 450  : 			txt->SetClient(static_cast<short>(PlayerClient));

	movzx	eax, WORD PTR _PlayerClient$[ebp]
	push	eax
	mov	ecx, DWORD PTR _txt$[ebp]
	call	?SetClient@C_Base@@QAEXF@Z		; C_Base::SetClient

; 451  : 			txt->SetFlagBitOn(C_BIT_RIGHT);

	push	64					; 00000040H
	mov	ecx, DWORD PTR _txt$[ebp]
	mov	edx, DWORD PTR [ecx]
	mov	ecx, DWORD PTR _txt$[ebp]
	mov	eax, DWORD PTR [edx+8]
	call	eax

; 452  : 			win->AddControl(txt);

	mov	ecx, DWORD PTR _txt$[ebp]
	push	ecx
	mov	ecx, DWORD PTR _win$[ebp]
	call	?AddControl@C_Window@@QAEXPAVC_Base@@@Z	; C_Window::AddControl

; 453  : 		
; 454  : 			kills = cur->pilot_data->aa_kills;

	mov	edx, DWORD PTR _cur$[ebp]
	mov	eax, DWORD PTR [edx+4]
	movzx	ecx, BYTE PTR [eax+67]
	mov	DWORD PTR _kills$[ebp], ecx

; 455  : 
; 456  : //			for (i=0,kills=0;i<MAX_DOGFIGHT_TEAMS;i++)
; 457  : //				kills += cur->pilot_data->kills[i][VS_AI] + cur->pilot_data->kills[i][VS_HUMAN];
; 458  : 
; 459  : 			_stprintf(buffer,"%1d/%1d", kills, cur->pilot_data->deaths[VS_AI] + cur->pilot_data->deaths[VS_HUMAN]);

	mov	edx, DWORD PTR _cur$[ebp]
	mov	eax, DWORD PTR [edx+4]
	mov	ecx, 2
	imul	ecx, 0
	movsx	edx, WORD PTR [eax+ecx+74]
	mov	eax, DWORD PTR _cur$[ebp]
	mov	ecx, DWORD PTR [eax+4]
	mov	eax, 2
	shl	eax, 0
	movsx	ecx, WORD PTR [ecx+eax+74]
	add	edx, ecx
	push	edx
	mov	edx, DWORD PTR _kills$[ebp]
	push	edx
	push	OFFSET ??_C@_07EGHPGJND@?$CF1d?1?$CF1d?$AA@
	lea	eax, DWORD PTR _buffer$[ebp]
	push	eax
	call	_sprintf
	add	esp, 16					; 00000010H

; 460  : 
; 461  : 			txt=new C_Text;

	push	76					; 0000004cH
	call	??2@YAPAXI@Z				; operator new
	add	esp, 4
	mov	DWORD PTR $T13[ebp], eax
	mov	DWORD PTR __$EHRec$[ebp+8], 5
	cmp	DWORD PTR $T13[ebp], 0
	je	SHORT $LN40@DisplayDog
	mov	ecx, DWORD PTR $T13[ebp]
	call	??0C_Text@@QAE@XZ			; C_Text::C_Text
	mov	DWORD PTR tv577[ebp], eax
	jmp	SHORT $LN41@DisplayDog
$LN40@DisplayDog:
	mov	DWORD PTR tv577[ebp], 0
$LN41@DisplayDog:
	mov	ecx, DWORD PTR tv577[ebp]
	mov	DWORD PTR $T4[ebp], ecx
	mov	DWORD PTR __$EHRec$[ebp+8], -1
	mov	edx, DWORD PTR $T4[ebp]
	mov	DWORD PTR _txt$[ebp], edx

; 462  : 			txt->Setup(C_DONT_CARE,C_TYPE_CENTER);

	push	45					; 0000002dH
	push	-2					; fffffffeH
	mov	eax, DWORD PTR _txt$[ebp]
	mov	edx, DWORD PTR [eax]
	mov	ecx, DWORD PTR _txt$[ebp]
	mov	eax, DWORD PTR [edx+248]
	call	eax

; 463  : 			txt->SetFixedWidth(_tcsclen(buffer)+1);

	lea	ecx, DWORD PTR _buffer$[ebp]
	push	ecx
	call	__tcsclen
	add	esp, 4
	add	eax, 1
	push	eax
	mov	ecx, DWORD PTR _txt$[ebp]
	call	?SetFixedWidth@C_Text@@QAEXJ@Z		; C_Text::SetFixedWidth

; 464  : 			txt->SetText(buffer);

	lea	edx, DWORD PTR _buffer$[ebp]
	push	edx
	mov	eax, DWORD PTR _txt$[ebp]
	mov	edx, DWORD PTR [eax]
	mov	ecx, DWORD PTR _txt$[ebp]
	mov	eax, DWORD PTR [edx+256]
	call	eax

; 465  : 			txt->SetXY(200,Y);

	mov	ecx, DWORD PTR _Y$[ebp]
	push	ecx
	push	200					; 000000c8H
	mov	edx, DWORD PTR _txt$[ebp]
	mov	eax, DWORD PTR [edx]
	mov	ecx, DWORD PTR _txt$[ebp]
	mov	edx, DWORD PTR [eax+32]
	call	edx

; 466  : 			txt->SetFGColor(DFTeamColors[cur->team]);

	mov	eax, DWORD PTR _cur$[ebp]
	movsx	ecx, WORD PTR [eax]
	mov	edx, DWORD PTR ?DFTeamColors@@3PAKA[ecx*4]
	push	edx
	mov	ecx, DWORD PTR _txt$[ebp]
	call	?SetFGColor@C_Text@@QAEXK@Z		; C_Text::SetFGColor

; 467  : 			txt->SetFont(win->Font_);

	mov	eax, DWORD PTR _win$[ebp]
	mov	ecx, DWORD PTR [eax+108]
	push	ecx
	mov	edx, DWORD PTR _txt$[ebp]
	mov	eax, DWORD PTR [edx]
	mov	ecx, DWORD PTR _txt$[ebp]
	mov	edx, DWORD PTR [eax+68]
	call	edx

; 468  : 			txt->SetClient(static_cast<short>(PlayerClient));

	movzx	eax, WORD PTR _PlayerClient$[ebp]
	push	eax
	mov	ecx, DWORD PTR _txt$[ebp]
	call	?SetClient@C_Base@@QAEXF@Z		; C_Base::SetClient

; 469  : 			txt->SetFlagBitOn(C_BIT_HCENTER);

	push	512					; 00000200H
	mov	ecx, DWORD PTR _txt$[ebp]
	mov	edx, DWORD PTR [ecx]
	mov	ecx, DWORD PTR _txt$[ebp]
	mov	eax, DWORD PTR [edx+8]
	call	eax

; 470  : 			win->AddControl(txt);

	mov	ecx, DWORD PTR _txt$[ebp]
	push	ecx
	mov	ecx, DWORD PTR _win$[ebp]
	call	?AddControl@C_Window@@QAEXPAVC_Base@@@Z	; C_Window::AddControl

; 471  : 
; 472  : 			Y += gFontList->GetHeight(win->Font_);

	mov	edx, DWORD PTR _win$[ebp]
	mov	eax, DWORD PTR [edx+108]
	push	eax
	mov	ecx, DWORD PTR ?gFontList@@3PAVC_Font@@A ; gFontList
	call	?GetHeight@C_Font@@QAEHJ@Z		; C_Font::GetHeight
	add	eax, DWORD PTR _Y$[ebp]
	mov	DWORD PTR _Y$[ebp], eax

; 473  : 
; 474  : 			cur = cur->next;

	mov	ecx, DWORD PTR _cur$[ebp]
	mov	edx, DWORD PTR [ecx+8]
	mov	DWORD PTR _cur$[ebp], edx

; 475  : 			}		

	jmp	$LN2@DisplayDog
$LN1@DisplayDog:

; 476  : 
; 477  : 		win->ScanClientAreas();

	mov	ecx, DWORD PTR _win$[ebp]
	call	?ScanClientAreas@C_Window@@QAEXXZ	; C_Window::ScanClientAreas

; 478  : 
; 479  : 		// Play the bite and clean up our lists
; 480  : 		PlayDogfightBite();

	call	?PlayDogfightBite@@YAXXZ		; PlayDogfightBite

; 481  : 		ClearSortedPilotList();

	call	?ClearSortedPilotList@@YAXXZ		; ClearSortedPilotList
$LN15@DisplayDog:

; 482  : 	}
; 483  : 
; 484  : 	// Tell the dogfight manager it's ok to clear the scores
; 485  : 	SimDogfight.SetLocalFlag(DF_VIEWED_SCORES);

	push	1
	mov	ecx, OFFSET ?SimDogfight@@3VDogfightClass@@A ; SimDogfight
	call	?SetLocalFlag@DogfightClass@@QAEXH@Z	; DogfightClass::SetLocalFlag

; 486  : }

	mov	ecx, DWORD PTR __$EHRec$[ebp]
	mov	DWORD PTR fs:0, ecx
	pop	ecx
	mov	ecx, DWORD PTR __$ArrayPad$[ebp]
	xor	ecx, ebp
	call	@__security_check_cookie@4
	mov	esp, ebp
	pop	ebp
	ret	0
_TEXT	ENDS
text$x	SEGMENT
__unwindfunclet$?DisplayDogfightResults@@YAXXZ$0:
	mov	eax, DWORD PTR $T10[ebp]
	push	eax
	call	??3@YAXPAX@Z				; operator delete
	pop	ecx
	ret	0
__unwindfunclet$?DisplayDogfightResults@@YAXXZ$1:
	mov	eax, DWORD PTR $T12[ebp]
	push	eax
	call	??3@YAXPAX@Z				; operator delete
	pop	ecx
	ret	0
__unwindfunclet$?DisplayDogfightResults@@YAXXZ$2:
	mov	eax, DWORD PTR $T8[ebp]
	push	eax
	call	??3@YAXPAX@Z				; operator delete
	pop	ecx
	ret	0
__unwindfunclet$?DisplayDogfightResults@@YAXXZ$3:
	mov	eax, DWORD PTR $T9[ebp]
	push	eax
	call	??3@YAXPAX@Z				; operator delete
	pop	ecx
	ret	0
__unwindfunclet$?DisplayDogfightResults@@YAXXZ$4:
	mov	eax, DWORD PTR $T11[ebp]
	push	eax
	call	??3@YAXPAX@Z				; operator delete
	pop	ecx
	ret	0
__unwindfunclet$?DisplayDogfightResults@@YAXXZ$5:
	mov	eax, DWORD PTR $T13[ebp]
	push	eax
	call	??3@YAXPAX@Z				; operator delete
	pop	ecx
	ret	0
__ehhandler$?DisplayDogfightResults@@YAXXZ:
	mov	edx, DWORD PTR [esp+8]
	lea	eax, DWORD PTR [edx+12]
	mov	ecx, DWORD PTR [edx-208]
	xor	ecx, eax
	call	@__security_check_cookie@4
	mov	ecx, DWORD PTR [edx-4]
	xor	ecx, eax
	call	@__security_check_cookie@4
	mov	eax, OFFSET __ehfuncinfo$?DisplayDogfightResults@@YAXXZ
	jmp	___CxxFrameHandler3
text$x	ENDS
?DisplayDogfightResults@@YAXXZ ENDP			; DisplayDogfightResults
; Function compile flags: /Odtp
; File c:\users\zhitao li\documents\visual studio 2012\projects\freefalcon\ui\src\dogfight\dfscores.cpp
_TEXT	SEGMENT
_HowIDid$ = -8						; size = 4
_SoundID$ = -4						; size = 4
?PlayDogfightBite@@YAXXZ PROC				; PlayDogfightBite

; 248  : {

	push	ebp
	mov	ebp, esp
	sub	esp, 8

; 249  : 	long SoundID;
; 250  : 	long HowIDid;
; 251  : 
; 252  : 	HowIDid=FigureOutHowIDid();

	call	?FigureOutHowIDid@@YAJXZ		; FigureOutHowIDid
	mov	DWORD PTR _HowIDid$[ebp], eax

; 253  : 	if(HowIDid & (_FIRST_PLACE_ | _MOST_KILLS_) && SimDogfight.GetGameType() != dog_Furball)

	mov	eax, DWORD PTR _HowIDid$[ebp]
	and	eax, 17					; 00000011H
	je	SHORT $LN26@PlayDogfig
	mov	ecx, OFFSET ?SimDogfight@@3VDogfightClass@@A ; SimDogfight
	call	?GetGameType@DogfightClass@@QAE?AW4DogfightType@@XZ ; DogfightClass::GetGameType
	test	eax, eax
	je	SHORT $LN26@PlayDogfig

; 254  : 	{
; 255  : 		SoundID=gDogfightBites->Pick(DF5);

	push	450025					; 0006dde9H
	mov	ecx, DWORD PTR ?gDogfightBites@@3PAVC_SoundBite@@A ; gDogfightBites
	call	?Pick@C_SoundBite@@QAEJJ@Z		; C_SoundBite::Pick
	mov	DWORD PTR _SoundID$[ebp], eax

; 256  : 		if(SoundID)

	cmp	DWORD PTR _SoundID$[ebp], 0
	je	SHORT $LN25@PlayDogfig

; 257  : 			gSoundMgr->PlaySound(SoundID);

	mov	ecx, DWORD PTR _SoundID$[ebp]
	push	ecx
	mov	ecx, DWORD PTR ?gSoundMgr@@3PAVC_Sound@@A ; gSoundMgr
	call	?PlaySoundA@C_Sound@@QAEHJ@Z		; C_Sound::PlaySoundA
$LN25@PlayDogfig:

; 258  : 	}

	jmp	$LN27@PlayDogfig
$LN26@PlayDogfig:

; 259  : 	else if(HowIDid & _FIRST_PLACE_)

	mov	edx, DWORD PTR _HowIDid$[ebp]
	and	edx, 1
	je	SHORT $LN23@PlayDogfig

; 260  : 	{
; 261  : 		SoundID=gDogfightBites->Pick(DF1);

	push	450015					; 0006dddfH
	mov	ecx, DWORD PTR ?gDogfightBites@@3PAVC_SoundBite@@A ; gDogfightBites
	call	?Pick@C_SoundBite@@QAEJJ@Z		; C_SoundBite::Pick
	mov	DWORD PTR _SoundID$[ebp], eax

; 262  : 		if(SoundID)

	cmp	DWORD PTR _SoundID$[ebp], 0
	je	SHORT $LN22@PlayDogfig

; 263  : 			gSoundMgr->PlaySound(SoundID);

	mov	eax, DWORD PTR _SoundID$[ebp]
	push	eax
	mov	ecx, DWORD PTR ?gSoundMgr@@3PAVC_Sound@@A ; gSoundMgr
	call	?PlaySoundA@C_Sound@@QAEHJ@Z		; C_Sound::PlaySoundA
$LN22@PlayDogfig:

; 264  : 	}

	jmp	$LN27@PlayDogfig
$LN23@PlayDogfig:

; 265  : 	else if((HowIDid & _MOST_KILLS_) && SimDogfight.GetGameType() != dog_Furball)

	mov	ecx, DWORD PTR _HowIDid$[ebp]
	and	ecx, 16					; 00000010H
	je	SHORT $LN20@PlayDogfig
	mov	ecx, OFFSET ?SimDogfight@@3VDogfightClass@@A ; SimDogfight
	call	?GetGameType@DogfightClass@@QAE?AW4DogfightType@@XZ ; DogfightClass::GetGameType
	test	eax, eax
	je	SHORT $LN20@PlayDogfig

; 266  : 	{
; 267  : 		SoundID=gDogfightBites->Pick(DF6);

	push	450027					; 0006ddebH
	mov	ecx, DWORD PTR ?gDogfightBites@@3PAVC_SoundBite@@A ; gDogfightBites
	call	?Pick@C_SoundBite@@QAEJJ@Z		; C_SoundBite::Pick
	mov	DWORD PTR _SoundID$[ebp], eax

; 268  : 		if(SoundID)

	cmp	DWORD PTR _SoundID$[ebp], 0
	je	SHORT $LN19@PlayDogfig

; 269  : 			gSoundMgr->PlaySound(SoundID);

	mov	edx, DWORD PTR _SoundID$[ebp]
	push	edx
	mov	ecx, DWORD PTR ?gSoundMgr@@3PAVC_Sound@@A ; gSoundMgr
	call	?PlaySoundA@C_Sound@@QAEHJ@Z		; C_Sound::PlaySoundA
$LN19@PlayDogfig:

; 270  : 	}

	jmp	$LN27@PlayDogfig
$LN20@PlayDogfig:

; 271  : 	else if(HowIDid & _SECOND_PLACE_)

	mov	eax, DWORD PTR _HowIDid$[ebp]
	and	eax, 2
	je	SHORT $LN17@PlayDogfig

; 272  : 	{
; 273  : 		SoundID=gDogfightBites->Pick(DF2);

	push	450019					; 0006dde3H
	mov	ecx, DWORD PTR ?gDogfightBites@@3PAVC_SoundBite@@A ; gDogfightBites
	call	?Pick@C_SoundBite@@QAEJJ@Z		; C_SoundBite::Pick
	mov	DWORD PTR _SoundID$[ebp], eax

; 274  : 		if(SoundID)

	cmp	DWORD PTR _SoundID$[ebp], 0
	je	SHORT $LN16@PlayDogfig

; 275  : 			gSoundMgr->PlaySound(SoundID);

	mov	ecx, DWORD PTR _SoundID$[ebp]
	push	ecx
	mov	ecx, DWORD PTR ?gSoundMgr@@3PAVC_Sound@@A ; gSoundMgr
	call	?PlaySoundA@C_Sound@@QAEHJ@Z		; C_Sound::PlaySoundA
$LN16@PlayDogfig:

; 276  : 	}

	jmp	$LN27@PlayDogfig
$LN17@PlayDogfig:

; 277  : 	else if(HowIDid & _THIRD_PLACE_)

	mov	edx, DWORD PTR _HowIDid$[ebp]
	and	edx, 4
	je	SHORT $LN14@PlayDogfig

; 278  : 	{
; 279  : 		SoundID=gDogfightBites->Pick(DF3);

	push	450021					; 0006dde5H
	mov	ecx, DWORD PTR ?gDogfightBites@@3PAVC_SoundBite@@A ; gDogfightBites
	call	?Pick@C_SoundBite@@QAEJJ@Z		; C_SoundBite::Pick
	mov	DWORD PTR _SoundID$[ebp], eax

; 280  : 		if(SoundID)

	cmp	DWORD PTR _SoundID$[ebp], 0
	je	SHORT $LN13@PlayDogfig

; 281  : 			gSoundMgr->PlaySound(SoundID);

	mov	eax, DWORD PTR _SoundID$[ebp]
	push	eax
	mov	ecx, DWORD PTR ?gSoundMgr@@3PAVC_Sound@@A ; gSoundMgr
	call	?PlaySoundA@C_Sound@@QAEHJ@Z		; C_Sound::PlaySoundA
$LN13@PlayDogfig:

; 282  : 	}

	jmp	$LN27@PlayDogfig
$LN14@PlayDogfig:

; 283  : 	else if(HowIDid & _LAST_PLACE_)

	mov	ecx, DWORD PTR _HowIDid$[ebp]
	and	ecx, 8
	je	SHORT $LN11@PlayDogfig

; 284  : 	{
; 285  : 		SoundID=gDogfightBites->Pick(DF4);

	push	450023					; 0006dde7H
	mov	ecx, DWORD PTR ?gDogfightBites@@3PAVC_SoundBite@@A ; gDogfightBites
	call	?Pick@C_SoundBite@@QAEJJ@Z		; C_SoundBite::Pick
	mov	DWORD PTR _SoundID$[ebp], eax

; 286  : 		if(SoundID)

	cmp	DWORD PTR _SoundID$[ebp], 0
	je	SHORT $LN10@PlayDogfig

; 287  : 			gSoundMgr->PlaySound(SoundID);

	mov	edx, DWORD PTR _SoundID$[ebp]
	push	edx
	mov	ecx, DWORD PTR ?gSoundMgr@@3PAVC_Sound@@A ; gSoundMgr
	call	?PlaySoundA@C_Sound@@QAEHJ@Z		; C_Sound::PlaySoundA
$LN10@PlayDogfig:

; 288  : 	}

	jmp	$LN27@PlayDogfig
$LN11@PlayDogfig:

; 289  : 	else if(HowIDid & _MOST_FRAGS_)

	mov	eax, DWORD PTR _HowIDid$[ebp]
	and	eax, 64					; 00000040H
	je	SHORT $LN8@PlayDogfig

; 290  : 	{
; 291  : 		SoundID=gDogfightBites->Pick(DF8);

	push	450031					; 0006ddefH
	mov	ecx, DWORD PTR ?gDogfightBites@@3PAVC_SoundBite@@A ; gDogfightBites
	call	?Pick@C_SoundBite@@QAEJJ@Z		; C_SoundBite::Pick
	mov	DWORD PTR _SoundID$[ebp], eax

; 292  : 		if(SoundID)

	cmp	DWORD PTR _SoundID$[ebp], 0
	je	SHORT $LN7@PlayDogfig

; 293  : 			gSoundMgr->PlaySound(SoundID);

	mov	ecx, DWORD PTR _SoundID$[ebp]
	push	ecx
	mov	ecx, DWORD PTR ?gSoundMgr@@3PAVC_Sound@@A ; gSoundMgr
	call	?PlaySoundA@C_Sound@@QAEHJ@Z		; C_Sound::PlaySoundA
$LN7@PlayDogfig:

; 294  : 	}

	jmp	SHORT $LN27@PlayDogfig
$LN8@PlayDogfig:

; 295  : 	else if(HowIDid & _FEWEST_KILLS_)

	mov	edx, DWORD PTR _HowIDid$[ebp]
	and	edx, 32					; 00000020H
	je	SHORT $LN5@PlayDogfig

; 296  : 	{
; 297  : 		SoundID=gDogfightBites->Pick(DF7);

	push	450029					; 0006ddedH
	mov	ecx, DWORD PTR ?gDogfightBites@@3PAVC_SoundBite@@A ; gDogfightBites
	call	?Pick@C_SoundBite@@QAEJJ@Z		; C_SoundBite::Pick
	mov	DWORD PTR _SoundID$[ebp], eax

; 298  : 		if(SoundID)

	cmp	DWORD PTR _SoundID$[ebp], 0
	je	SHORT $LN4@PlayDogfig

; 299  : 			gSoundMgr->PlaySound(SoundID);

	mov	eax, DWORD PTR _SoundID$[ebp]
	push	eax
	mov	ecx, DWORD PTR ?gSoundMgr@@3PAVC_Sound@@A ; gSoundMgr
	call	?PlaySoundA@C_Sound@@QAEHJ@Z		; C_Sound::PlaySoundA
$LN4@PlayDogfig:

; 300  : 	}

	jmp	SHORT $LN27@PlayDogfig
$LN5@PlayDogfig:

; 301  : 	else if(HowIDid & _MOST_DEATHS_)

	mov	ecx, DWORD PTR _HowIDid$[ebp]
	and	ecx, 128				; 00000080H
	je	SHORT $LN27@PlayDogfig

; 302  : 	{
; 303  : 		SoundID=gDogfightBites->Pick(DF9);

	push	450032					; 0006ddf0H
	mov	ecx, DWORD PTR ?gDogfightBites@@3PAVC_SoundBite@@A ; gDogfightBites
	call	?Pick@C_SoundBite@@QAEJJ@Z		; C_SoundBite::Pick
	mov	DWORD PTR _SoundID$[ebp], eax

; 304  : 		if(SoundID)

	cmp	DWORD PTR _SoundID$[ebp], 0
	je	SHORT $LN27@PlayDogfig

; 305  : 			gSoundMgr->PlaySound(SoundID);

	mov	edx, DWORD PTR _SoundID$[ebp]
	push	edx
	mov	ecx, DWORD PTR ?gSoundMgr@@3PAVC_Sound@@A ; gSoundMgr
	call	?PlaySoundA@C_Sound@@QAEHJ@Z		; C_Sound::PlaySoundA
$LN27@PlayDogfig:

; 306  : 	}
; 307  : }

	mov	esp, ebp
	pop	ebp
	ret	0
?PlayDogfightBite@@YAXXZ ENDP				; PlayDogfightBite
_TEXT	ENDS
; Function compile flags: /Odtp
; File c:\users\zhitao li\documents\visual studio 2012\projects\freefalcon\ui\src\dogfight\dfscores.cpp
_TEXT	SEGMENT
_MostFrags$ = -60					; size = 4
_MFrags$ = -56						; size = 4
_LKills$ = -52						; size = 4
_MDeaths$ = -48						; size = 4
_MKills$ = -44						; size = 4
_MostDeaths$ = -40					; size = 4
_LeastKills$ = -36					; size = 4
_MostKills$ = -32					; size = 4
_team$ = -28						; size = 4
_kills$ = -24						; size = 4
_player$ = -20						; size = 4
_cur$ = -16						; size = 4
_HowIDid$ = -12						; size = 4
_playerrank$ = -8					; size = 2
_place$ = -4						; size = 2
?FigureOutHowIDid@@YAJXZ PROC				; FigureOutHowIDid

; 140  : 	{

	push	ebp
	mov	ebp, esp
	sub	esp, 60					; 0000003cH

; 141  : 	long			HowIDid = 0;

	mov	DWORD PTR _HowIDid$[ebp], 0

; 142  : 	short			place=0,playerrank=0;

	xor	eax, eax
	mov	WORD PTR _place$[ebp], ax
	xor	ecx, ecx
	mov	WORD PTR _playerrank$[ebp], cx

; 143  : 	int				team=0,kills=0;

	mov	DWORD PTR _team$[ebp], 0
	mov	DWORD PTR _kills$[ebp], 0

; 144  : 	int				MostKills=0,LeastKills=0,MostDeaths=0,MostFrags=0;

	mov	DWORD PTR _MostKills$[ebp], 0
	mov	DWORD PTR _LeastKills$[ebp], 0
	mov	DWORD PTR _MostDeaths$[ebp], 0
	mov	DWORD PTR _MostFrags$[ebp], 0

; 145  : 	PilotSortClass	*cur=NULL,*player=NULL,*MKills=NULL,*LKills=NULL,*MDeaths=NULL,*MFrags=NULL;

	mov	DWORD PTR _cur$[ebp], 0
	mov	DWORD PTR _player$[ebp], 0
	mov	DWORD PTR _MKills$[ebp], 0
	mov	DWORD PTR _LKills$[ebp], 0
	mov	DWORD PTR _MDeaths$[ebp], 0
	mov	DWORD PTR _MFrags$[ebp], 0

; 146  : 
; 147  : 	team=FalconLocalSession->GetCountry();

	mov	ecx, OFFSET ?vuLocalSessionEntity@@3V?$VuBin@VVuSessionEntity@@@@A ; vuLocalSessionEntity
	call	?get@?$VuBin@VVuSessionEntity@@@@QBEPAVVuSessionEntity@@XZ ; VuBin<VuSessionEntity>::get
	mov	ecx, eax
	call	?GetCountry@FalconSessionEntity@@QBEEXZ	; FalconSessionEntity::GetCountry
	movzx	edx, al
	mov	DWORD PTR _team$[ebp], edx

; 148  : 
; 149  : 	MostKills=-1;

	mov	DWORD PTR _MostKills$[ebp], -1

; 150  : 	MostDeaths=-1;

	mov	DWORD PTR _MostDeaths$[ebp], -1

; 151  : 	LeastKills=10000;

	mov	DWORD PTR _LeastKills$[ebp], 10000	; 00002710H

; 152  : 	MostFrags=-1;

	mov	DWORD PTR _MostFrags$[ebp], -1

; 153  : 	MKills=NULL;

	mov	DWORD PTR _MKills$[ebp], 0

; 154  : 	MDeaths=NULL;

	mov	DWORD PTR _MDeaths$[ebp], 0

; 155  : 	LKills=NULL;

	mov	DWORD PTR _LKills$[ebp], 0

; 156  : 	MFrags=NULL;

	mov	DWORD PTR _MFrags$[ebp], 0

; 157  : 
; 158  : 	cur=SortedPilotList;

	mov	eax, DWORD PTR ?SortedPilotList@@3PAVPilotSortClass@@A ; SortedPilotList
	mov	DWORD PTR _cur$[ebp], eax

; 159  : 	place=0;

	xor	ecx, ecx
	mov	WORD PTR _place$[ebp], cx
$LN24@FigureOutH:

; 160  : 	while(cur)

	cmp	DWORD PTR _cur$[ebp], 0
	je	$LN23@FigureOutH

; 161  : 		{
; 162  : 		if(cur->pilot_data == TheCampaign.MissionEvaluator->player_pilot)

	mov	edx, DWORD PTR _cur$[ebp]
	mov	eax, DWORD PTR ?TheCampaign@@3VCampaignClass@@A+324
	mov	ecx, DWORD PTR [edx+4]
	cmp	ecx, DWORD PTR [eax+16]
	jne	SHORT $LN22@FigureOutH

; 163  : 			{
; 164  : 			playerrank=place;

	mov	dx, WORD PTR _place$[ebp]
	mov	WORD PTR _playerrank$[ebp], dx

; 165  : 			player=cur;

	mov	eax, DWORD PTR _cur$[ebp]
	mov	DWORD PTR _player$[ebp], eax
$LN22@FigureOutH:

; 166  : 			}
; 167  : 
; 168  : 		kills = cur->pilot_data->aa_kills;

	mov	ecx, DWORD PTR _cur$[ebp]
	mov	edx, DWORD PTR [ecx+4]
	movzx	eax, BYTE PTR [edx+67]
	mov	DWORD PTR _kills$[ebp], eax

; 169  : 
; 170  : /*		for(i=0;i<MAX_DOGFIGHT_TEAMS;i++)
; 171  : 			{
; 172  : 			if(i != cur->team)
; 173  : 				kills += cur->pilot_data->kills[i][VS_AI] + cur->pilot_data->kills[i][VS_HUMAN];
; 174  : 			}
; 175  : */
; 176  : 
; 177  : 		if(kills > MostKills)

	mov	ecx, DWORD PTR _kills$[ebp]
	cmp	ecx, DWORD PTR _MostKills$[ebp]
	jle	SHORT $LN21@FigureOutH

; 178  : 			{
; 179  : 			MKills=cur;

	mov	edx, DWORD PTR _cur$[ebp]
	mov	DWORD PTR _MKills$[ebp], edx

; 180  : 			MostKills=kills;

	mov	eax, DWORD PTR _kills$[ebp]
	mov	DWORD PTR _MostKills$[ebp], eax
$LN21@FigureOutH:

; 181  : 			}
; 182  : 		if(kills < LeastKills)

	mov	ecx, DWORD PTR _kills$[ebp]
	cmp	ecx, DWORD PTR _LeastKills$[ebp]
	jge	SHORT $LN20@FigureOutH

; 183  : 			{
; 184  : 			LKills=cur;

	mov	edx, DWORD PTR _cur$[ebp]
	mov	DWORD PTR _LKills$[ebp], edx

; 185  : 			LeastKills=kills;

	mov	eax, DWORD PTR _kills$[ebp]
	mov	DWORD PTR _LeastKills$[ebp], eax
$LN20@FigureOutH:

; 186  : 			}
; 187  : /*
; 188  : 		if((cur->pilot_data->kills[cur->team][VS_AI] + cur->pilot_data->kills[cur->team][VS_HUMAN]) > MostFrags)
; 189  : 			{
; 190  : 			MFrags = cur;
; 191  : 			MostFrags = cur->pilot_data->kills[cur->team][VS_AI] + cur->pilot_data->kills[cur->team][VS_HUMAN];
; 192  : 			}
; 193  : */
; 194  : 		if((cur->pilot_data->deaths[VS_AI] + cur->pilot_data->deaths[VS_HUMAN]) > MostDeaths)

	mov	ecx, DWORD PTR _cur$[ebp]
	mov	edx, DWORD PTR [ecx+4]
	mov	eax, 2
	imul	eax, 0
	movsx	ecx, WORD PTR [edx+eax+74]
	mov	edx, DWORD PTR _cur$[ebp]
	mov	eax, DWORD PTR [edx+4]
	mov	edx, 2
	shl	edx, 0
	movsx	eax, WORD PTR [eax+edx+74]
	add	ecx, eax
	cmp	ecx, DWORD PTR _MostDeaths$[ebp]
	jle	SHORT $LN19@FigureOutH

; 195  : 			{
; 196  : 			MDeaths = cur;

	mov	ecx, DWORD PTR _cur$[ebp]
	mov	DWORD PTR _MDeaths$[ebp], ecx

; 197  : 			MostDeaths = cur->pilot_data->deaths[VS_AI] + cur->pilot_data->deaths[VS_HUMAN];

	mov	edx, DWORD PTR _cur$[ebp]
	mov	eax, DWORD PTR [edx+4]
	mov	ecx, 2
	imul	ecx, 0
	movsx	edx, WORD PTR [eax+ecx+74]
	mov	eax, DWORD PTR _cur$[ebp]
	mov	ecx, DWORD PTR [eax+4]
	mov	eax, 2
	shl	eax, 0
	movsx	ecx, WORD PTR [ecx+eax+74]
	add	edx, ecx
	mov	DWORD PTR _MostDeaths$[ebp], edx
$LN19@FigureOutH:

; 198  : 			}
; 199  : 		cur=cur->next;

	mov	edx, DWORD PTR _cur$[ebp]
	mov	eax, DWORD PTR [edx+8]
	mov	DWORD PTR _cur$[ebp], eax

; 200  : 		place++;

	mov	cx, WORD PTR _place$[ebp]
	add	cx, 1
	mov	WORD PTR _place$[ebp], cx

; 201  : 		}

	jmp	$LN24@FigureOutH
$LN23@FigureOutH:

; 202  : 
; 203  : 	if(player == MKills)

	mov	edx, DWORD PTR _player$[ebp]
	cmp	edx, DWORD PTR _MKills$[ebp]
	jne	SHORT $LN18@FigureOutH

; 204  : 		HowIDid |= _MOST_KILLS_;

	mov	eax, DWORD PTR _HowIDid$[ebp]
	or	eax, 16					; 00000010H
	mov	DWORD PTR _HowIDid$[ebp], eax
$LN18@FigureOutH:

; 205  : 	if(player == MDeaths)

	mov	ecx, DWORD PTR _player$[ebp]
	cmp	ecx, DWORD PTR _MDeaths$[ebp]
	jne	SHORT $LN17@FigureOutH

; 206  : 		HowIDid |= _MOST_DEATHS_;

	mov	edx, DWORD PTR _HowIDid$[ebp]
	or	edx, 128				; 00000080H
	mov	DWORD PTR _HowIDid$[ebp], edx
$LN17@FigureOutH:

; 207  : 	if(player == MFrags)

	mov	eax, DWORD PTR _player$[ebp]
	cmp	eax, DWORD PTR _MFrags$[ebp]
	jne	SHORT $LN16@FigureOutH

; 208  : 		HowIDid |= _MOST_FRAGS_;

	mov	ecx, DWORD PTR _HowIDid$[ebp]
	or	ecx, 64					; 00000040H
	mov	DWORD PTR _HowIDid$[ebp], ecx
$LN16@FigureOutH:

; 209  : 	if(player == LKills)

	mov	edx, DWORD PTR _player$[ebp]
	cmp	edx, DWORD PTR _LKills$[ebp]
	jne	SHORT $LN15@FigureOutH

; 210  : 		HowIDid |= _FEWEST_KILLS_;

	mov	eax, DWORD PTR _HowIDid$[ebp]
	or	eax, 32					; 00000020H
	mov	DWORD PTR _HowIDid$[ebp], eax
$LN15@FigureOutH:

; 211  : 
; 212  : 	if(SimDogfight.GetGameType() != dog_Furball)

	mov	ecx, OFFSET ?SimDogfight@@3VDogfightClass@@A ; SimDogfight
	call	?GetGameType@DogfightClass@@QAE?AW4DogfightType@@XZ ; DogfightClass::GetGameType
	test	eax, eax
	je	$LN14@FigureOutH

; 213  : 		{
; 214  : 		if(TeamRank[0] == team && TeamUsed[1])

	mov	ecx, 2
	imul	ecx, 0
	movsx	edx, WORD PTR ?TeamRank@@3PAFA[ecx]
	cmp	edx, DWORD PTR _team$[ebp]
	jne	SHORT $LN13@FigureOutH
	mov	eax, 2
	shl	eax, 0
	movsx	ecx, WORD PTR ?TeamUsed@@3PAFA[eax]
	test	ecx, ecx
	je	SHORT $LN13@FigureOutH

; 215  : 			HowIDid |= _FIRST_PLACE_;

	mov	edx, DWORD PTR _HowIDid$[ebp]
	or	edx, 1
	mov	DWORD PTR _HowIDid$[ebp], edx

; 216  : 		else

	jmp	SHORT $LN12@FigureOutH
$LN13@FigureOutH:

; 217  : 			HowIDid |= _LAST_PLACE_;

	mov	eax, DWORD PTR _HowIDid$[ebp]
	or	eax, 8
	mov	DWORD PTR _HowIDid$[ebp], eax
$LN12@FigureOutH:

; 218  : 		if(TeamRank[1] == team && TeamUsed[2])

	mov	ecx, 2
	shl	ecx, 0
	movsx	edx, WORD PTR ?TeamRank@@3PAFA[ecx]
	cmp	edx, DWORD PTR _team$[ebp]
	jne	SHORT $LN11@FigureOutH
	mov	eax, 2
	shl	eax, 1
	movsx	ecx, WORD PTR ?TeamUsed@@3PAFA[eax]
	test	ecx, ecx
	je	SHORT $LN11@FigureOutH

; 219  : 			HowIDid |= _SECOND_PLACE_;

	mov	edx, DWORD PTR _HowIDid$[ebp]
	or	edx, 2
	mov	DWORD PTR _HowIDid$[ebp], edx

; 220  : 		else

	jmp	SHORT $LN10@FigureOutH
$LN11@FigureOutH:

; 221  : 			HowIDid |= _LAST_PLACE_;

	mov	eax, DWORD PTR _HowIDid$[ebp]
	or	eax, 8
	mov	DWORD PTR _HowIDid$[ebp], eax
$LN10@FigureOutH:

; 222  : 		if(TeamRank[2] == team && TeamUsed[3])

	mov	ecx, 2
	shl	ecx, 1
	movsx	edx, WORD PTR ?TeamRank@@3PAFA[ecx]
	cmp	edx, DWORD PTR _team$[ebp]
	jne	SHORT $LN9@FigureOutH
	mov	eax, 2
	imul	eax, 3
	movsx	ecx, WORD PTR ?TeamUsed@@3PAFA[eax]
	test	ecx, ecx
	je	SHORT $LN9@FigureOutH

; 223  : 			HowIDid |= _THIRD_PLACE_;

	mov	edx, DWORD PTR _HowIDid$[ebp]
	or	edx, 4
	mov	DWORD PTR _HowIDid$[ebp], edx

; 224  : 		else

	jmp	SHORT $LN8@FigureOutH
$LN9@FigureOutH:

; 225  : 			HowIDid |= _LAST_PLACE_;

	mov	eax, DWORD PTR _HowIDid$[ebp]
	or	eax, 8
	mov	DWORD PTR _HowIDid$[ebp], eax
$LN8@FigureOutH:

; 226  : 		if(TeamRank[3] == team)

	mov	ecx, 2
	imul	ecx, 3
	movsx	edx, WORD PTR ?TeamRank@@3PAFA[ecx]
	cmp	edx, DWORD PTR _team$[ebp]
	jne	SHORT $LN7@FigureOutH

; 227  : 			HowIDid |= _LAST_PLACE_;

	mov	eax, DWORD PTR _HowIDid$[ebp]
	or	eax, 8
	mov	DWORD PTR _HowIDid$[ebp], eax
$LN7@FigureOutH:

; 228  : 		}
; 229  : 	else

	jmp	SHORT $LN6@FigureOutH
$LN14@FigureOutH:

; 230  : 		{
; 231  : 		if(player && !player->next)

	cmp	DWORD PTR _player$[ebp], 0
	je	SHORT $LN5@FigureOutH
	mov	ecx, DWORD PTR _player$[ebp]
	cmp	DWORD PTR [ecx+8], 0
	jne	SHORT $LN5@FigureOutH

; 232  : 			place=_LAST_PLACE_;

	mov	edx, 8
	mov	WORD PTR _place$[ebp], dx

; 233  : 		else

	jmp	SHORT $LN6@FigureOutH
$LN5@FigureOutH:

; 234  : 			{
; 235  : 			if(!playerrank)

	movsx	eax, WORD PTR _playerrank$[ebp]
	test	eax, eax
	jne	SHORT $LN3@FigureOutH

; 236  : 				HowIDid |= _FIRST_PLACE_;

	mov	ecx, DWORD PTR _HowIDid$[ebp]
	or	ecx, 1
	mov	DWORD PTR _HowIDid$[ebp], ecx
$LN3@FigureOutH:

; 237  : 			if(playerrank == 1)

	movsx	edx, WORD PTR _playerrank$[ebp]
	cmp	edx, 1
	jne	SHORT $LN2@FigureOutH

; 238  : 				HowIDid |= _SECOND_PLACE_;

	mov	eax, DWORD PTR _HowIDid$[ebp]
	or	eax, 2
	mov	DWORD PTR _HowIDid$[ebp], eax
$LN2@FigureOutH:

; 239  : 			if(playerrank == 2)

	movsx	ecx, WORD PTR _playerrank$[ebp]
	cmp	ecx, 2
	jne	SHORT $LN6@FigureOutH

; 240  : 				HowIDid |= _THIRD_PLACE_;

	mov	edx, DWORD PTR _HowIDid$[ebp]
	or	edx, 4
	mov	DWORD PTR _HowIDid$[ebp], edx
$LN6@FigureOutH:

; 241  : 			}
; 242  : 		}
; 243  : 
; 244  : 	return(HowIDid);

	mov	eax, DWORD PTR _HowIDid$[ebp]

; 245  : 	}

	mov	esp, ebp
	pop	ebp
	ret	0
?FigureOutHowIDid@@YAJXZ ENDP				; FigureOutHowIDid
_TEXT	ENDS
; Function compile flags: /Odtp
; File c:\users\zhitao li\documents\visual studio 2012\projects\freefalcon\ui\src\dogfight\dfscores.cpp
_TEXT	SEGMENT
$T1 = -12						; size = 4
_last$ = -8						; size = 4
_cur$ = -4						; size = 4
?ClearSortedPilotList@@YAXXZ PROC			; ClearSortedPilotList

; 126  : 	{

	push	ebp
	mov	ebp, esp
	sub	esp, 12					; 0000000cH

; 127  : 	PilotSortClass *cur,*last;
; 128  : 
; 129  : 	cur=SortedPilotList;

	mov	eax, DWORD PTR ?SortedPilotList@@3PAVPilotSortClass@@A ; SortedPilotList
	mov	DWORD PTR _cur$[ebp], eax
$LN2@ClearSorte:

; 130  : 	while(cur)

	cmp	DWORD PTR _cur$[ebp], 0
	je	SHORT $LN1@ClearSorte

; 131  : 	{
; 132  : 		last=cur;

	mov	ecx, DWORD PTR _cur$[ebp]
	mov	DWORD PTR _last$[ebp], ecx

; 133  : 		cur=cur->next;

	mov	edx, DWORD PTR _cur$[ebp]
	mov	eax, DWORD PTR [edx+8]
	mov	DWORD PTR _cur$[ebp], eax

; 134  : 		delete last;

	mov	ecx, DWORD PTR _last$[ebp]
	mov	DWORD PTR $T1[ebp], ecx
	mov	edx, DWORD PTR $T1[ebp]
	push	edx
	call	??3@YAXPAX@Z				; operator delete
	add	esp, 4

; 135  : 	}

	jmp	SHORT $LN2@ClearSorte
$LN1@ClearSorte:

; 136  : 	SortedPilotList=NULL;

	mov	DWORD PTR ?SortedPilotList@@3PAVPilotSortClass@@A, 0 ; SortedPilotList

; 137  : 	}

	mov	esp, ebp
	pop	ebp
	ret	0
?ClearSortedPilotList@@YAXXZ ENDP			; ClearSortedPilotList
_TEXT	ENDS
; Function compile flags: /Odtp
; File c:\users\zhitao li\documents\visual studio 2012\projects\freefalcon\ui\src\dogfight\dfscores.cpp
_TEXT	SEGMENT
$T2 = -36						; size = 4
tv72 = -32						; size = 4
$T3 = -28						; size = 4
_last$ = -24						; size = 4
_newone$ = -20						; size = 4
_cur$ = -16						; size = 4
__$EHRec$ = -12						; size = 12
_pilot_ptr$ = 8						; size = 4
_team$ = 12						; size = 4
?AddtoSortedList@@YAXPAVPilotDataClass@@H@Z PROC	; AddtoSortedList

; 100  : 	{

	push	ebp
	mov	ebp, esp
	push	-1
	push	__ehhandler$?AddtoSortedList@@YAXPAVPilotDataClass@@H@Z
	mov	eax, DWORD PTR fs:0
	push	eax
	sub	esp, 24					; 00000018H
	mov	eax, DWORD PTR ___security_cookie
	xor	eax, ebp
	push	eax
	lea	eax, DWORD PTR __$EHRec$[ebp]
	mov	DWORD PTR fs:0, eax

; 101  : 	PilotSortClass	*cur,*last=NULL,*newone;

	mov	DWORD PTR _last$[ebp], 0

; 102  : 
; 103  : 	newone = new PilotSortClass(pilot_ptr);

	push	12					; 0000000cH
	call	??2@YAPAXI@Z				; operator new
	add	esp, 4
	mov	DWORD PTR $T3[ebp], eax
	mov	DWORD PTR __$EHRec$[ebp+8], 0
	cmp	DWORD PTR $T3[ebp], 0
	je	SHORT $LN7@AddtoSorte
	mov	eax, DWORD PTR _pilot_ptr$[ebp]
	push	eax
	mov	ecx, DWORD PTR $T3[ebp]
	call	??0PilotSortClass@@QAE@PAVPilotDataClass@@@Z ; PilotSortClass::PilotSortClass
	mov	DWORD PTR tv72[ebp], eax
	jmp	SHORT $LN8@AddtoSorte
$LN7@AddtoSorte:
	mov	DWORD PTR tv72[ebp], 0
$LN8@AddtoSorte:
	mov	ecx, DWORD PTR tv72[ebp]
	mov	DWORD PTR $T2[ebp], ecx
	mov	DWORD PTR __$EHRec$[ebp+8], -1
	mov	edx, DWORD PTR $T2[ebp]
	mov	DWORD PTR _newone$[ebp], edx

; 104  : 	newone->team = static_cast<short>(team);

	mov	eax, DWORD PTR _newone$[ebp]
	mov	cx, WORD PTR _team$[ebp]
	mov	WORD PTR [eax], cx

; 105  : 
; 106  : 	cur = SortedPilotList;

	mov	edx, DWORD PTR ?SortedPilotList@@3PAVPilotSortClass@@A ; SortedPilotList
	mov	DWORD PTR _cur$[ebp], edx
$LN4@AddtoSorte:

; 107  : 	while (cur && cur->pilot_data->score > pilot_ptr->score)

	cmp	DWORD PTR _cur$[ebp], 0
	je	SHORT $LN3@AddtoSorte
	mov	eax, DWORD PTR _cur$[ebp]
	mov	ecx, DWORD PTR [eax+4]
	movsx	edx, WORD PTR [ecx+78]
	mov	eax, DWORD PTR _pilot_ptr$[ebp]
	movsx	ecx, WORD PTR [eax+78]
	cmp	edx, ecx
	jle	SHORT $LN3@AddtoSorte

; 108  : 		{
; 109  : 		last = cur;

	mov	edx, DWORD PTR _cur$[ebp]
	mov	DWORD PTR _last$[ebp], edx

; 110  : 		cur = cur->next;

	mov	eax, DWORD PTR _cur$[ebp]
	mov	ecx, DWORD PTR [eax+8]
	mov	DWORD PTR _cur$[ebp], ecx

; 111  : 		}

	jmp	SHORT $LN4@AddtoSorte
$LN3@AddtoSorte:

; 112  : 
; 113  : 	if (last)

	cmp	DWORD PTR _last$[ebp], 0
	je	SHORT $LN2@AddtoSorte

; 114  : 		{
; 115  : 		newone->next = cur;

	mov	edx, DWORD PTR _newone$[ebp]
	mov	eax, DWORD PTR _cur$[ebp]
	mov	DWORD PTR [edx+8], eax

; 116  : 		last->next = newone;

	mov	ecx, DWORD PTR _last$[ebp]
	mov	edx, DWORD PTR _newone$[ebp]
	mov	DWORD PTR [ecx+8], edx

; 117  : 		}
; 118  : 	else

	jmp	SHORT $LN5@AddtoSorte
$LN2@AddtoSorte:

; 119  : 		{
; 120  : 		newone->next = SortedPilotList;

	mov	eax, DWORD PTR _newone$[ebp]
	mov	ecx, DWORD PTR ?SortedPilotList@@3PAVPilotSortClass@@A ; SortedPilotList
	mov	DWORD PTR [eax+8], ecx

; 121  : 		SortedPilotList = newone;

	mov	edx, DWORD PTR _newone$[ebp]
	mov	DWORD PTR ?SortedPilotList@@3PAVPilotSortClass@@A, edx ; SortedPilotList
$LN5@AddtoSorte:

; 122  : 		}
; 123  : 	}

	mov	ecx, DWORD PTR __$EHRec$[ebp]
	mov	DWORD PTR fs:0, ecx
	pop	ecx
	mov	esp, ebp
	pop	ebp
	ret	0
_TEXT	ENDS
text$x	SEGMENT
__unwindfunclet$?AddtoSortedList@@YAXPAVPilotDataClass@@H@Z$0:
	mov	eax, DWORD PTR $T3[ebp]
	push	eax
	call	??3@YAXPAX@Z				; operator delete
	pop	ecx
	ret	0
__ehhandler$?AddtoSortedList@@YAXPAVPilotDataClass@@H@Z:
	mov	edx, DWORD PTR [esp+8]
	lea	eax, DWORD PTR [edx+12]
	mov	ecx, DWORD PTR [edx-28]
	xor	ecx, eax
	call	@__security_check_cookie@4
	mov	eax, OFFSET __ehfuncinfo$?AddtoSortedList@@YAXPAVPilotDataClass@@H@Z
	jmp	___CxxFrameHandler3
text$x	ENDS
?AddtoSortedList@@YAXPAVPilotDataClass@@H@Z ENDP	; AddtoSortedList
; Function compile flags: /Odtp
; File c:\users\zhitao li\documents\visual studio 2012\projects\freefalcon\ui\src\dogfight\dfscores.cpp
_TEXT	SEGMENT
_i$ = -44						; size = 4
_score$ = -40						; size = 10
_deaths$ = -28						; size = 10
_kills$ = -16						; size = 10
__$ArrayPad$ = -4					; size = 4
?TallyTeamKills@@YAXXZ PROC				; TallyTeamKills

; 77   : 	{

	push	ebp
	mov	ebp, esp
	sub	esp, 44					; 0000002cH
	mov	eax, DWORD PTR ___security_cookie
	xor	eax, ebp
	mov	DWORD PTR __$ArrayPad$[ebp], eax

; 78   : 	int		i;
; 79   : 	short	kills[MAX_DOGFIGHT_TEAMS];
; 80   : 	short	deaths[MAX_DOGFIGHT_TEAMS];
; 81   : 	short	score[MAX_DOGFIGHT_TEAMS];
; 82   : 
; 83   : 	memset(TeamTotals,0,sizeof(short)*MAX_DOGFIGHT_TEAMS*3);

	push	30					; 0000001eH
	push	0
	push	OFFSET ?TeamTotals@@3PAY02FA		; TeamTotals
	call	_memset
	add	esp, 12					; 0000000cH

; 84   : 	memset(TeamUsed,0,sizeof(short)*MAX_DOGFIGHT_TEAMS);

	push	10					; 0000000aH
	push	0
	push	OFFSET ?TeamUsed@@3PAFA			; TeamUsed
	call	_memset
	add	esp, 12					; 0000000cH

; 85   : 
; 86   : 	TheCampaign.MissionEvaluator->GetTeamKills(kills);

	lea	eax, DWORD PTR _kills$[ebp]
	push	eax
	mov	ecx, DWORD PTR ?TheCampaign@@3VCampaignClass@@A+324
	call	?GetTeamKills@MissionEvaluationClass@@QAEXPAF@Z ; MissionEvaluationClass::GetTeamKills

; 87   : 	TheCampaign.MissionEvaluator->GetTeamDeaths(deaths);

	lea	ecx, DWORD PTR _deaths$[ebp]
	push	ecx
	mov	ecx, DWORD PTR ?TheCampaign@@3VCampaignClass@@A+324
	call	?GetTeamDeaths@MissionEvaluationClass@@QAEXPAF@Z ; MissionEvaluationClass::GetTeamDeaths

; 88   : 	TheCampaign.MissionEvaluator->GetTeamScore(score);

	lea	edx, DWORD PTR _score$[ebp]
	push	edx
	mov	ecx, DWORD PTR ?TheCampaign@@3VCampaignClass@@A+324
	call	?GetTeamScore@MissionEvaluationClass@@QAEXPAF@Z ; MissionEvaluationClass::GetTeamScore

; 89   : 
; 90   : 	// Tally Kills (AI & Human)
; 91   : 	for(i=0;i<MAX_DOGFIGHT_TEAMS;i++)

	mov	DWORD PTR _i$[ebp], 0
	jmp	SHORT $LN3@TallyTeamK
$LN2@TallyTeamK:
	mov	eax, DWORD PTR _i$[ebp]
	add	eax, 1
	mov	DWORD PTR _i$[ebp], eax
$LN3@TallyTeamK:
	cmp	DWORD PTR _i$[ebp], 5
	jge	SHORT $LN4@TallyTeamK

; 92   : 		{
; 93   : 		TeamTotals[i][0] = kills[i];

	mov	ecx, DWORD PTR _i$[ebp]
	imul	ecx, 6
	mov	edx, 2
	imul	edx, 0
	mov	eax, DWORD PTR _i$[ebp]
	mov	ax, WORD PTR _kills$[ebp+eax*2]
	mov	WORD PTR ?TeamTotals@@3PAY02FA[ecx+edx], ax

; 94   : 		TeamTotals[i][1] = deaths[i];

	mov	ecx, DWORD PTR _i$[ebp]
	imul	ecx, 6
	mov	edx, 2
	shl	edx, 0
	mov	eax, DWORD PTR _i$[ebp]
	mov	ax, WORD PTR _deaths$[ebp+eax*2]
	mov	WORD PTR ?TeamTotals@@3PAY02FA[ecx+edx], ax

; 95   : 		TeamTotals[i][2] = score[i];

	mov	ecx, DWORD PTR _i$[ebp]
	imul	ecx, 6
	mov	edx, 2
	shl	edx, 1
	mov	eax, DWORD PTR _i$[ebp]
	mov	ax, WORD PTR _score$[ebp+eax*2]
	mov	WORD PTR ?TeamTotals@@3PAY02FA[ecx+edx], ax

; 96   : 		}

	jmp	SHORT $LN2@TallyTeamK
$LN4@TallyTeamK:

; 97   : 	}

	mov	ecx, DWORD PTR __$ArrayPad$[ebp]
	xor	ecx, ebp
	call	@__security_check_cookie@4
	mov	esp, ebp
	pop	ebp
	ret	0
?TallyTeamKills@@YAXXZ ENDP				; TallyTeamKills
_TEXT	ENDS
; Function compile flags: /Odtp
; File c:\users\zhitao li\documents\visual studio 2012\projects\freefalcon\campaign\include\misseval.h
;	COMDAT ??0PilotSortClass@@QAE@PAVPilotDataClass@@@Z
_TEXT	SEGMENT
_this$ = -4						; size = 4
_pilot_ptr$ = 8						; size = 4
??0PilotSortClass@@QAE@PAVPilotDataClass@@@Z PROC	; PilotSortClass::PilotSortClass, COMDAT
; _this$ = ecx

; 327  : 				PilotSortClass(PilotDataClass *pilot_ptr)	{ pilot_data = pilot_ptr; next = NULL; };

	push	ebp
	mov	ebp, esp
	push	ecx
	mov	DWORD PTR _this$[ebp], ecx
	mov	eax, DWORD PTR _this$[ebp]
	mov	ecx, DWORD PTR _pilot_ptr$[ebp]
	mov	DWORD PTR [eax+4], ecx
	mov	edx, DWORD PTR _this$[ebp]
	mov	DWORD PTR [edx+8], 0
	mov	eax, DWORD PTR _this$[ebp]
	mov	esp, ebp
	pop	ebp
	ret	4
??0PilotSortClass@@QAE@PAVPilotDataClass@@@Z ENDP	; PilotSortClass::PilotSortClass
_TEXT	ENDS
; Function compile flags: /Odtp
; File c:\users\zhitao li\documents\visual studio 2012\projects\freefalcon\campaign\include\dogfight.h
;	COMDAT ?GetGameType@DogfightClass@@QAE?AW4DogfightType@@XZ
_TEXT	SEGMENT
_this$ = -4						; size = 4
?GetGameType@DogfightClass@@QAE?AW4DogfightType@@XZ PROC ; DogfightClass::GetGameType, COMDAT
; _this$ = ecx

; 90   : 		DogfightType GetGameType (void)					{ return gameType; };

	push	ebp
	mov	ebp, esp
	push	ecx
	mov	DWORD PTR _this$[ebp], ecx
	mov	eax, DWORD PTR _this$[ebp]
	mov	eax, DWORD PTR [eax]
	mov	esp, ebp
	pop	ebp
	ret	0
?GetGameType@DogfightClass@@QAE?AW4DogfightType@@XZ ENDP ; DogfightClass::GetGameType
_TEXT	ENDS
; Function compile flags: /Odtp
; File c:\users\zhitao li\documents\visual studio 2012\projects\freefalcon\campaign\include\dogfight.h
;	COMDAT ?SetLocalFlag@DogfightClass@@QAEXH@Z
_TEXT	SEGMENT
_this$ = -4						; size = 4
_flag$ = 8						; size = 4
?SetLocalFlag@DogfightClass@@QAEXH@Z PROC		; DogfightClass::SetLocalFlag, COMDAT
; _this$ = ecx

; 86   : 		void SetLocalFlag (int flag)					{ localFlags |= flag;};

	push	ebp
	mov	ebp, esp
	push	ecx
	mov	DWORD PTR _this$[ebp], ecx
	mov	eax, DWORD PTR _this$[ebp]
	movsx	ecx, WORD PTR [eax+42]
	or	ecx, DWORD PTR _flag$[ebp]
	mov	edx, DWORD PTR _this$[ebp]
	mov	WORD PTR [edx+42], cx
	mov	esp, ebp
	pop	ebp
	ret	4
?SetLocalFlag@DogfightClass@@QAEXH@Z ENDP		; DogfightClass::SetLocalFlag
_TEXT	ENDS
; Function compile flags: /Odtp
; File c:\users\zhitao li\documents\visual studio 2012\projects\freefalcon\ui95\cbase.h
;	COMDAT ?SetClient@C_Base@@QAEXF@Z
_TEXT	SEGMENT
_this$ = -4						; size = 4
_client$ = 8						; size = 2
?SetClient@C_Base@@QAEXF@Z PROC				; C_Base::SetClient, COMDAT
; _this$ = ecx

; 98   : 		void SetClient(short client)							{ Client_=client; }

	push	ebp
	mov	ebp, esp
	push	ecx
	mov	DWORD PTR _this$[ebp], ecx
	mov	eax, DWORD PTR _this$[ebp]
	mov	cx, WORD PTR _client$[ebp]
	mov	WORD PTR [eax+40], cx
	mov	esp, ebp
	pop	ebp
	ret	4
?SetClient@C_Base@@QAEXF@Z ENDP				; C_Base::SetClient
_TEXT	ENDS
; Function compile flags: /Odtp
; File c:\users\zhitao li\documents\visual studio 2012\projects\freefalcon\ui95\csoundrc.h
;	COMDAT ?PlaySoundA@C_Sound@@QAEHJ@Z
_TEXT	SEGMENT
_this$ = -4						; size = 4
_ID$ = 8						; size = 4
?PlaySoundA@C_Sound@@QAEHJ@Z PROC			; C_Sound::PlaySoundA, COMDAT
; _this$ = ecx

; 79   : 		BOOL PlaySound(long ID) { return(PlaySound(GetSound(ID))); }

	push	ebp
	mov	ebp, esp
	push	ecx
	mov	DWORD PTR _this$[ebp], ecx
	mov	eax, DWORD PTR _ID$[ebp]
	push	eax
	mov	ecx, DWORD PTR _this$[ebp]
	call	?GetSound@C_Sound@@QAEPAVSOUND_RES@@J@Z	; C_Sound::GetSound
	push	eax
	mov	ecx, DWORD PTR _this$[ebp]
	call	?PlaySoundA@C_Sound@@QAEHPAVSOUND_RES@@@Z ; C_Sound::PlaySoundA
	mov	esp, ebp
	pop	ebp
	ret	4
?PlaySoundA@C_Sound@@QAEHJ@Z ENDP			; C_Sound::PlaySoundA
_TEXT	ENDS
; Function compile flags: /Odtp
;	COMDAT ??_G_System_error_category@std@@UAEPAXI@Z
_TEXT	SEGMENT
_this$ = -4						; size = 4
___flags$ = 8						; size = 4
??_G_System_error_category@std@@UAEPAXI@Z PROC		; std::_System_error_category::`scalar deleting destructor', COMDAT
; _this$ = ecx
	push	ebp
	mov	ebp, esp
	push	ecx
	mov	DWORD PTR _this$[ebp], ecx
	mov	ecx, DWORD PTR _this$[ebp]
	call	??1_System_error_category@std@@UAE@XZ
	mov	eax, DWORD PTR ___flags$[ebp]
	and	eax, 1
	je	SHORT $LN1@scalar
	mov	ecx, DWORD PTR _this$[ebp]
	push	ecx
	call	??3@YAXPAX@Z				; operator delete
	add	esp, 4
$LN1@scalar:
	mov	eax, DWORD PTR _this$[ebp]
	mov	esp, ebp
	pop	ebp
	ret	4
??_G_System_error_category@std@@UAEPAXI@Z ENDP		; std::_System_error_category::`scalar deleting destructor'
_TEXT	ENDS
; Function compile flags: /Odtp
;	COMDAT ??1_System_error_category@std@@UAE@XZ
_TEXT	SEGMENT
_this$ = -4						; size = 4
??1_System_error_category@std@@UAE@XZ PROC		; std::_System_error_category::~_System_error_category, COMDAT
; _this$ = ecx
	push	ebp
	mov	ebp, esp
	push	ecx
	mov	DWORD PTR _this$[ebp], ecx
	mov	ecx, DWORD PTR _this$[ebp]
	call	??1_Generic_error_category@std@@UAE@XZ
	mov	esp, ebp
	pop	ebp
	ret	0
??1_System_error_category@std@@UAE@XZ ENDP		; std::_System_error_category::~_System_error_category
_TEXT	ENDS
; Function compile flags: /Odtp
; File c:\program files (x86)\microsoft visual studio 11.0\vc\include\system_error
;	COMDAT ?default_error_condition@_System_error_category@std@@UBE?AVerror_condition@2@H@Z
_TEXT	SEGMENT
_this$ = -4						; size = 4
___$ReturnUdt$ = 8					; size = 4
__Errval$ = 12						; size = 4
?default_error_condition@_System_error_category@std@@UBE?AVerror_condition@2@H@Z PROC ; std::_System_error_category::default_error_condition, COMDAT
; _this$ = ecx

; 641  : 		{	// make error_condition for error code (generic if possible)

	push	ebp
	mov	ebp, esp
	push	ecx
	mov	DWORD PTR _this$[ebp], ecx

; 642  : 		if (_Syserror_map(_Errval))

	mov	eax, DWORD PTR __Errval$[ebp]
	push	eax
	call	?_Syserror_map@std@@YAPBDH@Z		; std::_Syserror_map
	add	esp, 4
	test	eax, eax
	je	SHORT $LN2@default_er

; 643  : 			return (error_condition(_Errval, generic_category()));

	call	?generic_category@std@@YAABVerror_category@1@XZ ; std::generic_category
	push	eax
	mov	ecx, DWORD PTR __Errval$[ebp]
	push	ecx
	mov	ecx, DWORD PTR ___$ReturnUdt$[ebp]
	call	??0error_condition@std@@QAE@HABVerror_category@1@@Z ; std::error_condition::error_condition
	mov	eax, DWORD PTR ___$ReturnUdt$[ebp]
	jmp	SHORT $LN3@default_er

; 644  : 		else

	jmp	SHORT $LN3@default_er
$LN2@default_er:

; 645  : 			return (error_condition(_Errval, system_category()));

	call	?system_category@std@@YAABVerror_category@1@XZ ; std::system_category
	push	eax
	mov	edx, DWORD PTR __Errval$[ebp]
	push	edx
	mov	ecx, DWORD PTR ___$ReturnUdt$[ebp]
	call	??0error_condition@std@@QAE@HABVerror_category@1@@Z ; std::error_condition::error_condition
	mov	eax, DWORD PTR ___$ReturnUdt$[ebp]
$LN3@default_er:

; 646  : 		}

	mov	esp, ebp
	pop	ebp
	ret	8
?default_error_condition@_System_error_category@std@@UBE?AVerror_condition@2@H@Z ENDP ; std::_System_error_category::default_error_condition
_TEXT	ENDS
; Function compile flags: /Odtp
; File c:\program files (x86)\microsoft visual studio 11.0\vc\include\system_error
;	COMDAT ?message@_System_error_category@std@@UBE?AV?$basic_string@DU?$char_traits@D@std@@V?$allocator@D@2@@2@H@Z
_TEXT	SEGMENT
_this$ = -16						; size = 4
$T1 = -12						; size = 4
tv69 = -8						; size = 4
__Name$ = -4						; size = 4
___$ReturnUdt$ = 8					; size = 4
__Errcode$ = 12						; size = 4
?message@_System_error_category@std@@UBE?AV?$basic_string@DU?$char_traits@D@std@@V?$allocator@D@2@@2@H@Z PROC ; std::_System_error_category::message, COMDAT
; _this$ = ecx

; 634  : 		{	// convert to name of error

	push	ebp
	mov	ebp, esp
	sub	esp, 16					; 00000010H
	mov	DWORD PTR _this$[ebp], ecx
	mov	DWORD PTR $T1[ebp], 0

; 635  : 		const char *_Name = _Winerror_map(_Errcode);

	mov	eax, DWORD PTR __Errcode$[ebp]
	push	eax
	call	?_Winerror_map@std@@YAPBDH@Z		; std::_Winerror_map
	add	esp, 4
	mov	DWORD PTR __Name$[ebp], eax

; 636  : 		return (string(_Name != 0 ? _Name : "unknown error"));

	cmp	DWORD PTR __Name$[ebp], 0
	je	SHORT $LN3@message
	mov	ecx, DWORD PTR __Name$[ebp]
	mov	DWORD PTR tv69[ebp], ecx
	jmp	SHORT $LN4@message
$LN3@message:
	mov	DWORD PTR tv69[ebp], OFFSET ??_C@_0O@BFJCFAAK@unknown?5error?$AA@
$LN4@message:
	mov	edx, DWORD PTR tv69[ebp]
	push	edx
	mov	ecx, DWORD PTR ___$ReturnUdt$[ebp]
	call	??0?$basic_string@DU?$char_traits@D@std@@V?$allocator@D@2@@std@@QAE@PBD@Z ; std::basic_string<char,std::char_traits<char>,std::allocator<char> >::basic_string<char,std::char_traits<char>,std::allocator<char> >
	mov	eax, DWORD PTR $T1[ebp]
	or	eax, 1
	mov	DWORD PTR $T1[ebp], eax
	mov	eax, DWORD PTR ___$ReturnUdt$[ebp]

; 637  : 		}

	mov	esp, ebp
	pop	ebp
	ret	8
?message@_System_error_category@std@@UBE?AV?$basic_string@DU?$char_traits@D@std@@V?$allocator@D@2@@2@H@Z ENDP ; std::_System_error_category::message
_TEXT	ENDS
; Function compile flags: /Odtp
; File c:\program files (x86)\microsoft visual studio 11.0\vc\include\system_error
;	COMDAT ?name@_System_error_category@std@@UBEPBDXZ
_TEXT	SEGMENT
_this$ = -4						; size = 4
?name@_System_error_category@std@@UBEPBDXZ PROC		; std::_System_error_category::name, COMDAT
; _this$ = ecx

; 629  : 		{	// get name of category

	push	ebp
	mov	ebp, esp
	push	ecx
	mov	DWORD PTR _this$[ebp], ecx

; 630  : 		return ("system");

	mov	eax, OFFSET ??_C@_06FHFOAHML@system?$AA@

; 631  : 		}

	mov	esp, ebp
	pop	ebp
	ret	0
?name@_System_error_category@std@@UBEPBDXZ ENDP		; std::_System_error_category::name
_TEXT	ENDS
; Function compile flags: /Odtp
; File c:\program files (x86)\microsoft visual studio 11.0\vc\include\system_error
;	COMDAT ??0_System_error_category@std@@QAE@XZ
_TEXT	SEGMENT
_this$ = -4						; size = 4
??0_System_error_category@std@@QAE@XZ PROC		; std::_System_error_category::_System_error_category, COMDAT
; _this$ = ecx

; 624  : 	_System_error_category()

	push	ebp
	mov	ebp, esp
	push	ecx
	mov	DWORD PTR _this$[ebp], ecx
	mov	ecx, DWORD PTR _this$[ebp]
	call	??0_Generic_error_category@std@@QAE@XZ	; std::_Generic_error_category::_Generic_error_category
	mov	eax, DWORD PTR _this$[ebp]
	mov	DWORD PTR [eax], OFFSET ??_7_System_error_category@std@@6B@

; 625  : 		{	// default constructor
; 626  : 		}

	mov	eax, DWORD PTR _this$[ebp]
	mov	esp, ebp
	pop	ebp
	ret	0
??0_System_error_category@std@@QAE@XZ ENDP		; std::_System_error_category::_System_error_category
_TEXT	ENDS
; Function compile flags: /Odtp
;	COMDAT ??_G_Iostream_error_category@std@@UAEPAXI@Z
_TEXT	SEGMENT
_this$ = -4						; size = 4
___flags$ = 8						; size = 4
??_G_Iostream_error_category@std@@UAEPAXI@Z PROC	; std::_Iostream_error_category::`scalar deleting destructor', COMDAT
; _this$ = ecx
	push	ebp
	mov	ebp, esp
	push	ecx
	mov	DWORD PTR _this$[ebp], ecx
	mov	ecx, DWORD PTR _this$[ebp]
	call	??1_Iostream_error_category@std@@UAE@XZ
	mov	eax, DWORD PTR ___flags$[ebp]
	and	eax, 1
	je	SHORT $LN1@scalar
	mov	ecx, DWORD PTR _this$[ebp]
	push	ecx
	call	??3@YAXPAX@Z				; operator delete
	add	esp, 4
$LN1@scalar:
	mov	eax, DWORD PTR _this$[ebp]
	mov	esp, ebp
	pop	ebp
	ret	4
??_G_Iostream_error_category@std@@UAEPAXI@Z ENDP	; std::_Iostream_error_category::`scalar deleting destructor'
_TEXT	ENDS
; Function compile flags: /Odtp
;	COMDAT ??1_Iostream_error_category@std@@UAE@XZ
_TEXT	SEGMENT
_this$ = -4						; size = 4
??1_Iostream_error_category@std@@UAE@XZ PROC		; std::_Iostream_error_category::~_Iostream_error_category, COMDAT
; _this$ = ecx
	push	ebp
	mov	ebp, esp
	push	ecx
	mov	DWORD PTR _this$[ebp], ecx
	mov	ecx, DWORD PTR _this$[ebp]
	call	??1_Generic_error_category@std@@UAE@XZ
	mov	esp, ebp
	pop	ebp
	ret	0
??1_Iostream_error_category@std@@UAE@XZ ENDP		; std::_Iostream_error_category::~_Iostream_error_category
_TEXT	ENDS
; Function compile flags: /Odtp
; File c:\program files (x86)\microsoft visual studio 11.0\vc\include\system_error
;	COMDAT ?message@_Iostream_error_category@std@@UBE?AV?$basic_string@DU?$char_traits@D@std@@V?$allocator@D@2@@2@H@Z
_TEXT	SEGMENT
_this$ = -8						; size = 4
$T1 = -4						; size = 4
___$ReturnUdt$ = 8					; size = 4
__Errcode$ = 12						; size = 4
?message@_Iostream_error_category@std@@UBE?AV?$basic_string@DU?$char_traits@D@std@@V?$allocator@D@2@@2@H@Z PROC ; std::_Iostream_error_category::message, COMDAT
; _this$ = ecx

; 611  : 		{	// convert to name of error

	push	ebp
	mov	ebp, esp
	sub	esp, 8
	mov	DWORD PTR _this$[ebp], ecx
	mov	DWORD PTR $T1[ebp], 0

; 612  : 		if (_Errcode == (int)io_errc::stream)

	cmp	DWORD PTR __Errcode$[ebp], 1
	jne	SHORT $LN2@message

; 613  : 			return ("iostream stream error");

	push	OFFSET ??_C@_0BG@PADBLCHM@iostream?5stream?5error?$AA@
	mov	ecx, DWORD PTR ___$ReturnUdt$[ebp]
	call	??0?$basic_string@DU?$char_traits@D@std@@V?$allocator@D@2@@std@@QAE@PBD@Z ; std::basic_string<char,std::char_traits<char>,std::allocator<char> >::basic_string<char,std::char_traits<char>,std::allocator<char> >
	mov	eax, DWORD PTR $T1[ebp]
	or	eax, 1
	mov	DWORD PTR $T1[ebp], eax
	mov	eax, DWORD PTR ___$ReturnUdt$[ebp]
	jmp	SHORT $LN3@message

; 614  : 		else

	jmp	SHORT $LN3@message
$LN2@message:

; 615  : 			return (_Generic_error_category::message(_Errcode));

	mov	ecx, DWORD PTR __Errcode$[ebp]
	push	ecx
	mov	edx, DWORD PTR ___$ReturnUdt$[ebp]
	push	edx
	mov	ecx, DWORD PTR _this$[ebp]
	call	?message@_Generic_error_category@std@@UBE?AV?$basic_string@DU?$char_traits@D@std@@V?$allocator@D@2@@2@H@Z ; std::_Generic_error_category::message
	mov	eax, DWORD PTR $T1[ebp]
	or	eax, 1
	mov	DWORD PTR $T1[ebp], eax
	mov	eax, DWORD PTR ___$ReturnUdt$[ebp]
$LN3@message:

; 616  : 		}

	mov	esp, ebp
	pop	ebp
	ret	8
?message@_Iostream_error_category@std@@UBE?AV?$basic_string@DU?$char_traits@D@std@@V?$allocator@D@2@@2@H@Z ENDP ; std::_Iostream_error_category::message
_TEXT	ENDS
; Function compile flags: /Odtp
; File c:\program files (x86)\microsoft visual studio 11.0\vc\include\system_error
;	COMDAT ?name@_Iostream_error_category@std@@UBEPBDXZ
_TEXT	SEGMENT
_this$ = -4						; size = 4
?name@_Iostream_error_category@std@@UBEPBDXZ PROC	; std::_Iostream_error_category::name, COMDAT
; _this$ = ecx

; 606  : 		{	// get name of category

	push	ebp
	mov	ebp, esp
	push	ecx
	mov	DWORD PTR _this$[ebp], ecx

; 607  : 		return ("iostream");

	mov	eax, OFFSET ??_C@_08LLGCOLLL@iostream?$AA@

; 608  : 		}

	mov	esp, ebp
	pop	ebp
	ret	0
?name@_Iostream_error_category@std@@UBEPBDXZ ENDP	; std::_Iostream_error_category::name
_TEXT	ENDS
; Function compile flags: /Odtp
; File c:\program files (x86)\microsoft visual studio 11.0\vc\include\system_error
;	COMDAT ??0_Iostream_error_category@std@@QAE@XZ
_TEXT	SEGMENT
_this$ = -4						; size = 4
??0_Iostream_error_category@std@@QAE@XZ PROC		; std::_Iostream_error_category::_Iostream_error_category, COMDAT
; _this$ = ecx

; 601  : 	_Iostream_error_category()

	push	ebp
	mov	ebp, esp
	push	ecx
	mov	DWORD PTR _this$[ebp], ecx
	mov	ecx, DWORD PTR _this$[ebp]
	call	??0_Generic_error_category@std@@QAE@XZ	; std::_Generic_error_category::_Generic_error_category
	mov	eax, DWORD PTR _this$[ebp]
	mov	DWORD PTR [eax], OFFSET ??_7_Iostream_error_category@std@@6B@

; 602  : 		{	// default constructor
; 603  : 		}

	mov	eax, DWORD PTR _this$[ebp]
	mov	esp, ebp
	pop	ebp
	ret	0
??0_Iostream_error_category@std@@QAE@XZ ENDP		; std::_Iostream_error_category::_Iostream_error_category
_TEXT	ENDS
; Function compile flags: /Odtp
;	COMDAT ??_G_Generic_error_category@std@@UAEPAXI@Z
_TEXT	SEGMENT
_this$ = -4						; size = 4
___flags$ = 8						; size = 4
??_G_Generic_error_category@std@@UAEPAXI@Z PROC		; std::_Generic_error_category::`scalar deleting destructor', COMDAT
; _this$ = ecx
	push	ebp
	mov	ebp, esp
	push	ecx
	mov	DWORD PTR _this$[ebp], ecx
	mov	ecx, DWORD PTR _this$[ebp]
	call	??1_Generic_error_category@std@@UAE@XZ
	mov	eax, DWORD PTR ___flags$[ebp]
	and	eax, 1
	je	SHORT $LN1@scalar
	mov	ecx, DWORD PTR _this$[ebp]
	push	ecx
	call	??3@YAXPAX@Z				; operator delete
	add	esp, 4
$LN1@scalar:
	mov	eax, DWORD PTR _this$[ebp]
	mov	esp, ebp
	pop	ebp
	ret	4
??_G_Generic_error_category@std@@UAEPAXI@Z ENDP		; std::_Generic_error_category::`scalar deleting destructor'
_TEXT	ENDS
; Function compile flags: /Odtp
;	COMDAT ??1_Generic_error_category@std@@UAE@XZ
_TEXT	SEGMENT
_this$ = -4						; size = 4
??1_Generic_error_category@std@@UAE@XZ PROC		; std::_Generic_error_category::~_Generic_error_category, COMDAT
; _this$ = ecx
	push	ebp
	mov	ebp, esp
	push	ecx
	mov	DWORD PTR _this$[ebp], ecx
	mov	ecx, DWORD PTR _this$[ebp]
	call	??1error_category@std@@UAE@XZ		; std::error_category::~error_category
	mov	esp, ebp
	pop	ebp
	ret	0
??1_Generic_error_category@std@@UAE@XZ ENDP		; std::_Generic_error_category::~_Generic_error_category
_TEXT	ENDS
; Function compile flags: /Odtp
; File c:\program files (x86)\microsoft visual studio 11.0\vc\include\system_error
;	COMDAT ?message@_Generic_error_category@std@@UBE?AV?$basic_string@DU?$char_traits@D@std@@V?$allocator@D@2@@2@H@Z
_TEXT	SEGMENT
_this$ = -16						; size = 4
$T1 = -12						; size = 4
tv69 = -8						; size = 4
__Name$ = -4						; size = 4
___$ReturnUdt$ = 8					; size = 4
__Errcode$ = 12						; size = 4
?message@_Generic_error_category@std@@UBE?AV?$basic_string@DU?$char_traits@D@std@@V?$allocator@D@2@@2@H@Z PROC ; std::_Generic_error_category::message, COMDAT
; _this$ = ecx

; 590  : 		{	// convert to name of error

	push	ebp
	mov	ebp, esp
	sub	esp, 16					; 00000010H
	mov	DWORD PTR _this$[ebp], ecx
	mov	DWORD PTR $T1[ebp], 0

; 591  : 		const char *_Name = _Syserror_map(_Errcode);

	mov	eax, DWORD PTR __Errcode$[ebp]
	push	eax
	call	?_Syserror_map@std@@YAPBDH@Z		; std::_Syserror_map
	add	esp, 4
	mov	DWORD PTR __Name$[ebp], eax

; 592  : 		return (string(_Name != 0 ? _Name : "unknown error"));

	cmp	DWORD PTR __Name$[ebp], 0
	je	SHORT $LN3@message
	mov	ecx, DWORD PTR __Name$[ebp]
	mov	DWORD PTR tv69[ebp], ecx
	jmp	SHORT $LN4@message
$LN3@message:
	mov	DWORD PTR tv69[ebp], OFFSET ??_C@_0O@BFJCFAAK@unknown?5error?$AA@
$LN4@message:
	mov	edx, DWORD PTR tv69[ebp]
	push	edx
	mov	ecx, DWORD PTR ___$ReturnUdt$[ebp]
	call	??0?$basic_string@DU?$char_traits@D@std@@V?$allocator@D@2@@std@@QAE@PBD@Z ; std::basic_string<char,std::char_traits<char>,std::allocator<char> >::basic_string<char,std::char_traits<char>,std::allocator<char> >
	mov	eax, DWORD PTR $T1[ebp]
	or	eax, 1
	mov	DWORD PTR $T1[ebp], eax
	mov	eax, DWORD PTR ___$ReturnUdt$[ebp]

; 593  : 		}

	mov	esp, ebp
	pop	ebp
	ret	8
?message@_Generic_error_category@std@@UBE?AV?$basic_string@DU?$char_traits@D@std@@V?$allocator@D@2@@2@H@Z ENDP ; std::_Generic_error_category::message
_TEXT	ENDS
; Function compile flags: /Odtp
; File c:\program files (x86)\microsoft visual studio 11.0\vc\include\system_error
;	COMDAT ?name@_Generic_error_category@std@@UBEPBDXZ
_TEXT	SEGMENT
_this$ = -4						; size = 4
?name@_Generic_error_category@std@@UBEPBDXZ PROC	; std::_Generic_error_category::name, COMDAT
; _this$ = ecx

; 585  : 		{	// get name of category

	push	ebp
	mov	ebp, esp
	push	ecx
	mov	DWORD PTR _this$[ebp], ecx

; 586  : 		return ("generic");

	mov	eax, OFFSET ??_C@_07DCLBNMLN@generic?$AA@

; 587  : 		}

	mov	esp, ebp
	pop	ebp
	ret	0
?name@_Generic_error_category@std@@UBEPBDXZ ENDP	; std::_Generic_error_category::name
_TEXT	ENDS
; Function compile flags: /Odtp
; File c:\program files (x86)\microsoft visual studio 11.0\vc\include\system_error
;	COMDAT ??0_Generic_error_category@std@@QAE@XZ
_TEXT	SEGMENT
_this$ = -4						; size = 4
??0_Generic_error_category@std@@QAE@XZ PROC		; std::_Generic_error_category::_Generic_error_category, COMDAT
; _this$ = ecx

; 580  : 	_Generic_error_category()

	push	ebp
	mov	ebp, esp
	push	ecx
	mov	DWORD PTR _this$[ebp], ecx
	mov	ecx, DWORD PTR _this$[ebp]
	call	??0error_category@std@@QAE@XZ		; std::error_category::error_category
	mov	eax, DWORD PTR _this$[ebp]
	mov	DWORD PTR [eax], OFFSET ??_7_Generic_error_category@std@@6B@

; 581  : 		{	// default constructor
; 582  : 		}

	mov	eax, DWORD PTR _this$[ebp]
	mov	esp, ebp
	pop	ebp
	ret	0
??0_Generic_error_category@std@@QAE@XZ ENDP		; std::_Generic_error_category::_Generic_error_category
_TEXT	ENDS
; Function compile flags: /Odtp
; File c:\program files (x86)\microsoft visual studio 11.0\vc\include\system_error
;	COMDAT ??8error_condition@std@@QBE_NABV01@@Z
_TEXT	SEGMENT
tv78 = -8						; size = 4
_this$ = -4						; size = 4
__Right$ = 8						; size = 4
??8error_condition@std@@QBE_NABV01@@Z PROC		; std::error_condition::operator==, COMDAT
; _this$ = ecx

; 376  : 		{	// test if *this == _Right

	push	ebp
	mov	ebp, esp
	sub	esp, 8
	push	esi
	mov	DWORD PTR _this$[ebp], ecx

; 377  : 		return (category() == _Right.category()
; 378  : 			&& value() == _Right.value());

	mov	ecx, DWORD PTR __Right$[ebp]
	call	?category@error_condition@std@@QBEABVerror_category@2@XZ ; std::error_condition::category
	push	eax
	mov	ecx, DWORD PTR _this$[ebp]
	call	?category@error_condition@std@@QBEABVerror_category@2@XZ ; std::error_condition::category
	mov	ecx, eax
	call	??8error_category@std@@QBE_NABV01@@Z	; std::error_category::operator==
	movzx	eax, al
	test	eax, eax
	je	SHORT $LN3@operator
	mov	ecx, DWORD PTR _this$[ebp]
	call	?value@error_condition@std@@QBEHXZ	; std::error_condition::value
	mov	esi, eax
	mov	ecx, DWORD PTR __Right$[ebp]
	call	?value@error_condition@std@@QBEHXZ	; std::error_condition::value
	cmp	esi, eax
	jne	SHORT $LN3@operator
	mov	DWORD PTR tv78[ebp], 1
	jmp	SHORT $LN4@operator
$LN3@operator:
	mov	DWORD PTR tv78[ebp], 0
$LN4@operator:
	mov	al, BYTE PTR tv78[ebp]

; 379  : 		}

	pop	esi
	mov	esp, ebp
	pop	ebp
	ret	4
??8error_condition@std@@QBE_NABV01@@Z ENDP		; std::error_condition::operator==
_TEXT	ENDS
; Function compile flags: /Odtp
; File c:\program files (x86)\microsoft visual studio 11.0\vc\include\system_error
;	COMDAT ?category@error_condition@std@@QBEABVerror_category@2@XZ
_TEXT	SEGMENT
_this$ = -4						; size = 4
?category@error_condition@std@@QBEABVerror_category@2@XZ PROC ; std::error_condition::category, COMDAT
; _this$ = ecx

; 354  : 		{	// get category

	push	ebp
	mov	ebp, esp
	push	ecx
	mov	DWORD PTR _this$[ebp], ecx

; 355  : 		return (*_Mycat);

	mov	eax, DWORD PTR _this$[ebp]
	mov	eax, DWORD PTR [eax+4]

; 356  : 		}

	mov	esp, ebp
	pop	ebp
	ret	0
?category@error_condition@std@@QBEABVerror_category@2@XZ ENDP ; std::error_condition::category
_TEXT	ENDS
; Function compile flags: /Odtp
; File c:\program files (x86)\microsoft visual studio 11.0\vc\include\system_error
;	COMDAT ?value@error_condition@std@@QBEHXZ
_TEXT	SEGMENT
_this$ = -4						; size = 4
?value@error_condition@std@@QBEHXZ PROC			; std::error_condition::value, COMDAT
; _this$ = ecx

; 349  : 		{	// get error code

	push	ebp
	mov	ebp, esp
	push	ecx
	mov	DWORD PTR _this$[ebp], ecx

; 350  : 		return (_Myval);

	mov	eax, DWORD PTR _this$[ebp]
	mov	eax, DWORD PTR [eax]

; 351  : 		}

	mov	esp, ebp
	pop	ebp
	ret	0
?value@error_condition@std@@QBEHXZ ENDP			; std::error_condition::value
_TEXT	ENDS
; Function compile flags: /Odtp
; File c:\program files (x86)\microsoft visual studio 11.0\vc\include\system_error
;	COMDAT ??0error_condition@std@@QAE@HABVerror_category@1@@Z
_TEXT	SEGMENT
_this$ = -4						; size = 4
__Val$ = 8						; size = 4
__Cat$ = 12						; size = 4
??0error_condition@std@@QAE@HABVerror_category@1@@Z PROC ; std::error_condition::error_condition, COMDAT
; _this$ = ecx

; 316  : 		{	// construct from error code and category

	push	ebp
	mov	ebp, esp
	push	ecx
	mov	DWORD PTR _this$[ebp], ecx
	mov	eax, DWORD PTR _this$[ebp]
	mov	ecx, DWORD PTR __Val$[ebp]
	mov	DWORD PTR [eax], ecx
	mov	edx, DWORD PTR _this$[ebp]
	mov	eax, DWORD PTR __Cat$[ebp]
	mov	DWORD PTR [edx+4], eax

; 317  : 		}

	mov	eax, DWORD PTR _this$[ebp]
	mov	esp, ebp
	pop	ebp
	ret	8
??0error_condition@std@@QAE@HABVerror_category@1@@Z ENDP ; std::error_condition::error_condition
_TEXT	ENDS
; Function compile flags: /Odtp
; File c:\program files (x86)\microsoft visual studio 11.0\vc\include\system_error
;	COMDAT ?category@error_code@std@@QBEABVerror_category@2@XZ
_TEXT	SEGMENT
_this$ = -4						; size = 4
?category@error_code@std@@QBEABVerror_category@2@XZ PROC ; std::error_code::category, COMDAT
; _this$ = ecx

; 256  : 		{	// get category

	push	ebp
	mov	ebp, esp
	push	ecx
	mov	DWORD PTR _this$[ebp], ecx

; 257  : 		return (*_Mycat);

	mov	eax, DWORD PTR _this$[ebp]
	mov	eax, DWORD PTR [eax+4]

; 258  : 		}

	mov	esp, ebp
	pop	ebp
	ret	0
?category@error_code@std@@QBEABVerror_category@2@XZ ENDP ; std::error_code::category
_TEXT	ENDS
; Function compile flags: /Odtp
; File c:\program files (x86)\microsoft visual studio 11.0\vc\include\system_error
;	COMDAT ?value@error_code@std@@QBEHXZ
_TEXT	SEGMENT
_this$ = -4						; size = 4
?value@error_code@std@@QBEHXZ PROC			; std::error_code::value, COMDAT
; _this$ = ecx

; 251  : 		{	// get error code

	push	ebp
	mov	ebp, esp
	push	ecx
	mov	DWORD PTR _this$[ebp], ecx

; 252  : 		return (_Myval);

	mov	eax, DWORD PTR _this$[ebp]
	mov	eax, DWORD PTR [eax]

; 253  : 		}

	mov	esp, ebp
	pop	ebp
	ret	0
?value@error_code@std@@QBEHXZ ENDP			; std::error_code::value
_TEXT	ENDS
; Function compile flags: /Odtp
;	COMDAT ??_Gerror_category@std@@UAEPAXI@Z
_TEXT	SEGMENT
_this$ = -4						; size = 4
___flags$ = 8						; size = 4
??_Gerror_category@std@@UAEPAXI@Z PROC			; std::error_category::`scalar deleting destructor', COMDAT
; _this$ = ecx
	push	ebp
	mov	ebp, esp
	push	ecx
	mov	DWORD PTR _this$[ebp], ecx
	mov	ecx, DWORD PTR _this$[ebp]
	call	??1error_category@std@@UAE@XZ		; std::error_category::~error_category
	mov	eax, DWORD PTR ___flags$[ebp]
	and	eax, 1
	je	SHORT $LN1@scalar
	mov	ecx, DWORD PTR _this$[ebp]
	push	ecx
	call	??3@YAXPAX@Z				; operator delete
	add	esp, 4
$LN1@scalar:
	mov	eax, DWORD PTR _this$[ebp]
	mov	esp, ebp
	pop	ebp
	ret	4
??_Gerror_category@std@@UAEPAXI@Z ENDP			; std::error_category::`scalar deleting destructor'
_TEXT	ENDS
; Function compile flags: /Odtp
; File c:\program files (x86)\microsoft visual studio 11.0\vc\include\system_error
;	COMDAT ??8error_category@std@@QBE_NABV01@@Z
_TEXT	SEGMENT
_this$ = -8						; size = 4
tv65 = -4						; size = 4
__Right$ = 8						; size = 4
??8error_category@std@@QBE_NABV01@@Z PROC		; std::error_category::operator==, COMDAT
; _this$ = ecx

; 184  : 		{	// compare categories for equality

	push	ebp
	mov	ebp, esp
	sub	esp, 8
	mov	DWORD PTR _this$[ebp], ecx

; 185  : 		return (this == &_Right);

	mov	eax, DWORD PTR _this$[ebp]
	cmp	eax, DWORD PTR __Right$[ebp]
	jne	SHORT $LN3@operator
	mov	DWORD PTR tv65[ebp], 1
	jmp	SHORT $LN4@operator
$LN3@operator:
	mov	DWORD PTR tv65[ebp], 0
$LN4@operator:
	mov	al, BYTE PTR tv65[ebp]

; 186  : 		}

	mov	esp, ebp
	pop	ebp
	ret	4
??8error_category@std@@QBE_NABV01@@Z ENDP		; std::error_category::operator==
_TEXT	ENDS
; Function compile flags: /Odtp
; File c:\program files (x86)\microsoft visual studio 11.0\vc\include\system_error
;	COMDAT ?equivalent@error_category@std@@UBE_NABVerror_code@2@H@Z
_TEXT	SEGMENT
_this$ = -8						; size = 4
tv74 = -4						; size = 4
__Code$ = 8						; size = 4
__Errval$ = 12						; size = 4
?equivalent@error_category@std@@UBE_NABVerror_code@2@H@Z PROC ; std::error_category::equivalent, COMDAT
; _this$ = ecx

; 415  : 	{	// test if conditions same for this category

	push	ebp
	mov	ebp, esp
	sub	esp, 8
	mov	DWORD PTR _this$[ebp], ecx

; 416  : 	return (*this == _Code.category() && _Code.value() == _Errval);

	mov	ecx, DWORD PTR __Code$[ebp]
	call	?category@error_code@std@@QBEABVerror_category@2@XZ ; std::error_code::category
	push	eax
	mov	ecx, DWORD PTR _this$[ebp]
	call	??8error_category@std@@QBE_NABV01@@Z	; std::error_category::operator==
	movzx	eax, al
	test	eax, eax
	je	SHORT $LN3@equivalent
	mov	ecx, DWORD PTR __Code$[ebp]
	call	?value@error_code@std@@QBEHXZ		; std::error_code::value
	cmp	eax, DWORD PTR __Errval$[ebp]
	jne	SHORT $LN3@equivalent
	mov	DWORD PTR tv74[ebp], 1
	jmp	SHORT $LN4@equivalent
$LN3@equivalent:
	mov	DWORD PTR tv74[ebp], 0
$LN4@equivalent:
	mov	al, BYTE PTR tv74[ebp]

; 417  : 	}

	mov	esp, ebp
	pop	ebp
	ret	8
?equivalent@error_category@std@@UBE_NABVerror_code@2@H@Z ENDP ; std::error_category::equivalent
_TEXT	ENDS
; Function compile flags: /Odtp
; File c:\program files (x86)\microsoft visual studio 11.0\vc\include\system_error
;	COMDAT ?equivalent@error_category@std@@UBE_NHABVerror_condition@2@@Z
_TEXT	SEGMENT
$T1 = -12						; size = 8
_this$ = -4						; size = 4
__Errval$ = 8						; size = 4
__Cond$ = 12						; size = 4
?equivalent@error_category@std@@UBE_NHABVerror_condition@2@@Z PROC ; std::error_category::equivalent, COMDAT
; _this$ = ecx

; 408  : 	{	// test if error code same condition

	push	ebp
	mov	ebp, esp
	sub	esp, 12					; 0000000cH
	mov	DWORD PTR _this$[ebp], ecx

; 409  : 	return (default_error_condition(_Errval) == _Cond);

	mov	eax, DWORD PTR __Cond$[ebp]
	push	eax
	mov	ecx, DWORD PTR __Errval$[ebp]
	push	ecx
	lea	edx, DWORD PTR $T1[ebp]
	push	edx
	mov	eax, DWORD PTR _this$[ebp]
	mov	edx, DWORD PTR [eax]
	mov	ecx, DWORD PTR _this$[ebp]
	mov	eax, DWORD PTR [edx+12]
	call	eax
	mov	ecx, eax
	call	??8error_condition@std@@QBE_NABV01@@Z	; std::error_condition::operator==

; 410  : 	}

	mov	esp, ebp
	pop	ebp
	ret	8
?equivalent@error_category@std@@UBE_NHABVerror_condition@2@@Z ENDP ; std::error_category::equivalent
_TEXT	ENDS
; Function compile flags: /Odtp
; File c:\program files (x86)\microsoft visual studio 11.0\vc\include\system_error
;	COMDAT ?default_error_condition@error_category@std@@UBE?AVerror_condition@2@H@Z
_TEXT	SEGMENT
_this$ = -4						; size = 4
___$ReturnUdt$ = 8					; size = 4
__Errval$ = 12						; size = 4
?default_error_condition@error_category@std@@UBE?AVerror_condition@2@H@Z PROC ; std::error_category::default_error_condition, COMDAT
; _this$ = ecx

; 401  : 	{	// make error_condition for error code

	push	ebp
	mov	ebp, esp
	push	ecx
	mov	DWORD PTR _this$[ebp], ecx

; 402  : 	return (error_condition(_Errval, *this));

	mov	eax, DWORD PTR _this$[ebp]
	push	eax
	mov	ecx, DWORD PTR __Errval$[ebp]
	push	ecx
	mov	ecx, DWORD PTR ___$ReturnUdt$[ebp]
	call	??0error_condition@std@@QAE@HABVerror_category@1@@Z ; std::error_condition::error_condition
	mov	eax, DWORD PTR ___$ReturnUdt$[ebp]

; 403  : 	}

	mov	esp, ebp
	pop	ebp
	ret	8
?default_error_condition@error_category@std@@UBE?AVerror_condition@2@H@Z ENDP ; std::error_category::default_error_condition
_TEXT	ENDS
; Function compile flags: /Odtp
; File c:\program files (x86)\microsoft visual studio 11.0\vc\include\system_error
;	COMDAT ??1error_category@std@@UAE@XZ
_TEXT	SEGMENT
_this$ = -4						; size = 4
??1error_category@std@@UAE@XZ PROC			; std::error_category::~error_category, COMDAT
; _this$ = ecx

; 167  : 		{	// destroy the object

	push	ebp
	mov	ebp, esp
	push	ecx
	mov	DWORD PTR _this$[ebp], ecx
	mov	eax, DWORD PTR _this$[ebp]
	mov	DWORD PTR [eax], OFFSET ??_7error_category@std@@6B@

; 168  : 		}

	mov	esp, ebp
	pop	ebp
	ret	0
??1error_category@std@@UAE@XZ ENDP			; std::error_category::~error_category
_TEXT	ENDS
; Function compile flags: /Odtp
; File c:\program files (x86)\microsoft visual studio 11.0\vc\include\system_error
;	COMDAT ??0error_category@std@@QAE@XZ
_TEXT	SEGMENT
_this$ = -4						; size = 4
??0error_category@std@@QAE@XZ PROC			; std::error_category::error_category, COMDAT
; _this$ = ecx

; 162  : 	error_category()

	push	ebp
	mov	ebp, esp
	push	ecx
	mov	DWORD PTR _this$[ebp], ecx
	mov	eax, DWORD PTR _this$[ebp]
	mov	DWORD PTR [eax], OFFSET ??_7error_category@std@@6B@

; 163  : 		{	// default constructor
; 164  : 		}

	mov	eax, DWORD PTR _this$[ebp]
	mov	esp, ebp
	pop	ebp
	ret	0
??0error_category@std@@QAE@XZ ENDP			; std::error_category::error_category
_TEXT	ENDS
; Function compile flags: /Odtp
; File c:\program files (x86)\microsoft visual studio 11.0\vc\include\system_error
;	COMDAT ?system_category@std@@YAABVerror_category@1@XZ
_TEXT	SEGMENT
?system_category@std@@YAABVerror_category@1@XZ PROC	; std::system_category, COMDAT

; 679  : 	{	// get system_category

	push	ebp
	mov	ebp, esp

; 680  : 	return (_Error_objects<int>::_System_object);

	mov	eax, OFFSET ?_System_object@?$_Error_objects@H@std@@2V_System_error_category@2@A ; std::_Error_objects<int>::_System_object

; 681  : 	}

	pop	ebp
	ret	0
?system_category@std@@YAABVerror_category@1@XZ ENDP	; std::system_category
_TEXT	ENDS
; Function compile flags: /Odtp
; File c:\program files (x86)\microsoft visual studio 11.0\vc\include\system_error
;	COMDAT ?generic_category@std@@YAABVerror_category@1@XZ
_TEXT	SEGMENT
?generic_category@std@@YAABVerror_category@1@XZ PROC	; std::generic_category, COMDAT

; 669  : 	{	// get generic_category

	push	ebp
	mov	ebp, esp

; 670  : 	return (_Error_objects<int>::_Generic_object);

	mov	eax, OFFSET ?_Generic_object@?$_Error_objects@H@std@@2V_Generic_error_category@2@A ; std::_Error_objects<int>::_Generic_object

; 671  : 	}

	pop	ebp
	ret	0
?generic_category@std@@YAABVerror_category@1@XZ ENDP	; std::generic_category
_TEXT	ENDS
; Function compile flags: /Odtp
; File c:\program files (x86)\microsoft visual studio 11.0\vc\include\xlocale
;	COMDAT ??0id@locale@std@@QAE@I@Z
_TEXT	SEGMENT
_this$ = -4						; size = 4
__Val$ = 8						; size = 4
??0id@locale@std@@QAE@I@Z PROC				; std::locale::id::id, COMDAT
; _this$ = ecx

; 74   : 			{	// construct with specified stamp value

	push	ebp
	mov	ebp, esp
	push	ecx
	mov	DWORD PTR _this$[ebp], ecx
	mov	eax, DWORD PTR _this$[ebp]
	mov	ecx, DWORD PTR __Val$[ebp]
	mov	DWORD PTR [eax], ecx

; 75   : 			}

	mov	eax, DWORD PTR _this$[ebp]
	mov	esp, ebp
	pop	ebp
	ret	4
??0id@locale@std@@QAE@I@Z ENDP				; std::locale::id::id
_TEXT	ENDS
; Function compile flags: /Odtp
; File c:\users\zhitao li\documents\visual studio 2012\projects\freefalcon\falclib\include\falcsess.h
;	COMDAT ?GetCountry@FalconSessionEntity@@QBEEXZ
_TEXT	SEGMENT
_this$ = -4						; size = 4
?GetCountry@FalconSessionEntity@@QBEEXZ PROC		; FalconSessionEntity::GetCountry, COMDAT
; _this$ = ecx

; 144  : 	uchar GetCountry (void) const                 { return country; }

	push	ebp
	mov	ebp, esp
	push	ecx
	mov	DWORD PTR _this$[ebp], ecx
	mov	eax, DWORD PTR _this$[ebp]
	mov	al, BYTE PTR [eax+510]
	mov	esp, ebp
	pop	ebp
	ret	0
?GetCountry@FalconSessionEntity@@QBEEXZ ENDP		; FalconSessionEntity::GetCountry
_TEXT	ENDS
; Function compile flags: /Odtp
; File c:\users\zhitao li\documents\visual studio 2012\projects\freefalcon\vu2\include\vu_templates.h
;	COMDAT ?get@?$VuBin@VVuSessionEntity@@@@QBEPAVVuSessionEntity@@XZ
_TEXT	SEGMENT
_this$ = -4						; size = 4
?get@?$VuBin@VVuSessionEntity@@@@QBEPAVVuSessionEntity@@XZ PROC ; VuBin<VuSessionEntity>::get, COMDAT
; _this$ = ecx

; 55   : 	E *get() const{

	push	ebp
	mov	ebp, esp
	push	ecx
	mov	DWORD PTR _this$[ebp], ecx

; 56   : 		return e;

	mov	eax, DWORD PTR _this$[ebp]
	mov	eax, DWORD PTR [eax]

; 57   : 	}

	mov	esp, ebp
	pop	ebp
	ret	0
?get@?$VuBin@VVuSessionEntity@@@@QBEPAVVuSessionEntity@@XZ ENDP ; VuBin<VuSessionEntity>::get
_TEXT	ENDS
; Function compile flags: /Odtp
; File c:\program files (x86)\microsoft visual studio 11.0\vc\include\xstring
;	COMDAT ?_Xran@?$basic_string@DU?$char_traits@D@std@@V?$allocator@D@2@@std@@QBEXXZ
_TEXT	SEGMENT
_this$ = -4						; size = 4
?_Xran@?$basic_string@DU?$char_traits@D@std@@V?$allocator@D@2@@std@@QBEXXZ PROC ; std::basic_string<char,std::char_traits<char>,std::allocator<char> >::_Xran, COMDAT
; _this$ = ecx

; 2275 : 		{	// report an out_of_range error

	push	ebp
	mov	ebp, esp
	push	ecx
	mov	DWORD PTR _this$[ebp], ecx

; 2276 : 		_Xout_of_range("invalid string position");

	push	OFFSET ??_C@_0BI@CFPLBAOH@invalid?5string?5position?$AA@
	call	?_Xout_of_range@std@@YAXPBD@Z		; std::_Xout_of_range
$LN2@Xran:

; 2277 : 		}

	mov	esp, ebp
	pop	ebp
	ret	0
?_Xran@?$basic_string@DU?$char_traits@D@std@@V?$allocator@D@2@@std@@QBEXXZ ENDP ; std::basic_string<char,std::char_traits<char>,std::allocator<char> >::_Xran
_TEXT	ENDS
; Function compile flags: /Odtp
; File c:\program files (x86)\microsoft visual studio 11.0\vc\include\xstring
;	COMDAT ?_Xlen@?$basic_string@DU?$char_traits@D@std@@V?$allocator@D@2@@std@@QBEXXZ
_TEXT	SEGMENT
_this$ = -4						; size = 4
?_Xlen@?$basic_string@DU?$char_traits@D@std@@V?$allocator@D@2@@std@@QBEXXZ PROC ; std::basic_string<char,std::char_traits<char>,std::allocator<char> >::_Xlen, COMDAT
; _this$ = ecx

; 2270 : 		{	// report a length_error

	push	ebp
	mov	ebp, esp
	push	ecx
	mov	DWORD PTR _this$[ebp], ecx

; 2271 : 		_Xlength_error("string too long");

	push	OFFSET ??_C@_0BA@JFNIOLAK@string?5too?5long?$AA@
	call	?_Xlength_error@std@@YAXPBD@Z		; std::_Xlength_error
$LN2@Xlen:

; 2272 : 		}

	mov	esp, ebp
	pop	ebp
	ret	0
?_Xlen@?$basic_string@DU?$char_traits@D@std@@V?$allocator@D@2@@std@@QBEXXZ ENDP ; std::basic_string<char,std::char_traits<char>,std::allocator<char> >::_Xlen
_TEXT	ENDS
; Function compile flags: /Odtp
; File c:\program files (x86)\microsoft visual studio 11.0\vc\include\xstring
;	COMDAT ?_Tidy@?$basic_string@DU?$char_traits@D@std@@V?$allocator@D@2@@std@@QAEX_NI@Z
_TEXT	SEGMENT
__Ptr$1 = -12						; size = 4
_this$ = -8						; size = 4
$T2 = -2						; size = 1
$T3 = -1						; size = 1
__Built$ = 8						; size = 1
__Newsize$ = 12						; size = 4
?_Tidy@?$basic_string@DU?$char_traits@D@std@@V?$allocator@D@2@@std@@QAEX_NI@Z PROC ; std::basic_string<char,std::char_traits<char>,std::allocator<char> >::_Tidy, COMDAT
; _this$ = ecx

; 2253 : 		{	// initialize buffer, deallocating any storage

	push	ebp
	mov	ebp, esp
	sub	esp, 12					; 0000000cH
	mov	DWORD PTR _this$[ebp], ecx

; 2254 : 		if (!_Built)

	movzx	eax, BYTE PTR __Built$[ebp]
	test	eax, eax
	jne	SHORT $LN4@Tidy
	jmp	SHORT $LN3@Tidy
$LN4@Tidy:

; 2255 : 			;
; 2256 : 		else if (this->_BUF_SIZE <= this->_Myres)

	mov	ecx, DWORD PTR _this$[ebp]
	cmp	DWORD PTR [ecx+20], 16			; 00000010H
	jb	SHORT $LN3@Tidy

; 2257 : 			{	// copy any leftovers to small buffer and deallocate
; 2258 : 			pointer _Ptr = this->_Bx._Ptr;

	mov	edx, DWORD PTR _this$[ebp]
	mov	eax, DWORD PTR [edx]
	mov	DWORD PTR __Ptr$1[ebp], eax

; 2259 : 			this->_Getal().destroy(&this->_Bx._Ptr);

	mov	ecx, DWORD PTR _this$[ebp]
	push	ecx
	lea	edx, DWORD PTR $T3[ebp]
	push	edx
	mov	ecx, DWORD PTR _this$[ebp]
	call	?_Getal@?$_String_alloc@$0A@U?$_String_base_types@DV?$allocator@D@std@@@std@@@std@@QBE?AU?$_Wrap_alloc@V?$allocator@D@std@@@2@XZ ; std::_String_alloc<0,std::_String_base_types<char,std::allocator<char> > >::_Getal
	mov	ecx, eax
	call	??$destroy@PAD@?$_Wrap_alloc@V?$allocator@D@std@@@std@@QAEXPAPAD@Z ; std::_Wrap_alloc<std::allocator<char> >::destroy<char *>

; 2260 : 			if (0 < _Newsize)

	cmp	DWORD PTR __Newsize$[ebp], 0
	jbe	SHORT $LN1@Tidy

; 2261 : 				_Traits::copy(this->_Bx._Buf,
; 2262 : 					_STD addressof(*_Ptr), _Newsize);

	mov	eax, DWORD PTR __Newsize$[ebp]
	push	eax
	mov	ecx, DWORD PTR __Ptr$1[ebp]
	push	ecx
	call	??$addressof@D@std@@YAPADAAD@Z		; std::addressof<char>
	add	esp, 4
	push	eax
	mov	edx, DWORD PTR _this$[ebp]
	push	edx
	call	?copy@?$char_traits@D@std@@SAPADPADPBDI@Z ; std::char_traits<char>::copy
	add	esp, 12					; 0000000cH
$LN1@Tidy:

; 2263 : 			this->_Getal().deallocate(_Ptr, this->_Myres + 1);

	mov	eax, DWORD PTR _this$[ebp]
	mov	ecx, DWORD PTR [eax+20]
	add	ecx, 1
	push	ecx
	mov	edx, DWORD PTR __Ptr$1[ebp]
	push	edx
	lea	eax, DWORD PTR $T2[ebp]
	push	eax
	mov	ecx, DWORD PTR _this$[ebp]
	call	?_Getal@?$_String_alloc@$0A@U?$_String_base_types@DV?$allocator@D@std@@@std@@@std@@QBE?AU?$_Wrap_alloc@V?$allocator@D@std@@@2@XZ ; std::_String_alloc<0,std::_String_base_types<char,std::allocator<char> > >::_Getal
	mov	ecx, eax
	call	?deallocate@?$_Wrap_alloc@V?$allocator@D@std@@@std@@QAEXPADI@Z ; std::_Wrap_alloc<std::allocator<char> >::deallocate
$LN3@Tidy:

; 2264 : 			}
; 2265 : 		this->_Myres = this->_BUF_SIZE - 1;

	mov	ecx, DWORD PTR _this$[ebp]
	mov	DWORD PTR [ecx+20], 15			; 0000000fH

; 2266 : 		_Eos(_Newsize);

	mov	edx, DWORD PTR __Newsize$[ebp]
	push	edx
	mov	ecx, DWORD PTR _this$[ebp]
	call	?_Eos@?$basic_string@DU?$char_traits@D@std@@V?$allocator@D@2@@std@@QAEXI@Z ; std::basic_string<char,std::char_traits<char>,std::allocator<char> >::_Eos

; 2267 : 		}

	mov	esp, ebp
	pop	ebp
	ret	8
?_Tidy@?$basic_string@DU?$char_traits@D@std@@V?$allocator@D@2@@std@@QAEX_NI@Z ENDP ; std::basic_string<char,std::char_traits<char>,std::allocator<char> >::_Tidy
_TEXT	ENDS
; Function compile flags: /Odtp
; File c:\program files (x86)\microsoft visual studio 11.0\vc\include\xstring
;	COMDAT ?_Inside@?$basic_string@DU?$char_traits@D@std@@V?$allocator@D@2@@std@@QAE_NPBD@Z
_TEXT	SEGMENT
_this$ = -4						; size = 4
__Ptr$ = 8						; size = 4
?_Inside@?$basic_string@DU?$char_traits@D@std@@V?$allocator@D@2@@std@@QAE_NPBD@Z PROC ; std::basic_string<char,std::char_traits<char>,std::allocator<char> >::_Inside, COMDAT
; _this$ = ecx

; 2237 : 		{	// test if _Ptr points inside string

	push	ebp
	mov	ebp, esp
	push	ecx
	mov	DWORD PTR _this$[ebp], ecx

; 2238 : 		if (_Ptr == 0 || _Ptr < this->_Myptr()
; 2239 : 			|| this->_Myptr() + this->_Mysize <= _Ptr)

	cmp	DWORD PTR __Ptr$[ebp], 0
	je	SHORT $LN2@Inside
	mov	ecx, DWORD PTR _this$[ebp]
	call	?_Myptr@?$_String_val@U?$_Simple_types@D@std@@@std@@QAEPADXZ ; std::_String_val<std::_Simple_types<char> >::_Myptr
	cmp	DWORD PTR __Ptr$[ebp], eax
	jb	SHORT $LN2@Inside
	mov	ecx, DWORD PTR _this$[ebp]
	call	?_Myptr@?$_String_val@U?$_Simple_types@D@std@@@std@@QAEPADXZ ; std::_String_val<std::_Simple_types<char> >::_Myptr
	mov	ecx, DWORD PTR _this$[ebp]
	add	eax, DWORD PTR [ecx+16]
	cmp	eax, DWORD PTR __Ptr$[ebp]
	ja	SHORT $LN3@Inside
$LN2@Inside:

; 2240 : 			return (false);	// don't ask

	xor	al, al
	jmp	SHORT $LN4@Inside

; 2241 : 		else

	jmp	SHORT $LN4@Inside
$LN3@Inside:

; 2242 : 			return (true);

	mov	al, 1
$LN4@Inside:

; 2243 : 		}

	mov	esp, ebp
	pop	ebp
	ret	4
?_Inside@?$basic_string@DU?$char_traits@D@std@@V?$allocator@D@2@@std@@QAE_NPBD@Z ENDP ; std::basic_string<char,std::char_traits<char>,std::allocator<char> >::_Inside
_TEXT	ENDS
; Function compile flags: /Odtp
; File c:\program files (x86)\microsoft visual studio 11.0\vc\include\xstring
;	COMDAT ?_Grow@?$basic_string@DU?$char_traits@D@std@@V?$allocator@D@2@@std@@QAE_NI_N@Z
_TEXT	SEGMENT
tv136 = -12						; size = 4
tv129 = -8						; size = 4
_this$ = -4						; size = 4
__Newsize$ = 8						; size = 4
__Trim$ = 12						; size = 1
?_Grow@?$basic_string@DU?$char_traits@D@std@@V?$allocator@D@2@@std@@QAE_NI_N@Z PROC ; std::basic_string<char,std::char_traits<char>,std::allocator<char> >::_Grow, COMDAT
; _this$ = ecx

; 2223 : 		{	// ensure buffer is big enough, trim to size if _Trim is true

	push	ebp
	mov	ebp, esp
	sub	esp, 12					; 0000000cH
	mov	DWORD PTR _this$[ebp], ecx

; 2224 : 		if (max_size() < _Newsize)

	mov	ecx, DWORD PTR _this$[ebp]
	call	?max_size@?$basic_string@DU?$char_traits@D@std@@V?$allocator@D@2@@std@@QBEIXZ ; std::basic_string<char,std::char_traits<char>,std::allocator<char> >::max_size
	cmp	eax, DWORD PTR __Newsize$[ebp]
	jae	SHORT $LN6@Grow

; 2225 : 			_Xlen();	// result too long

	mov	ecx, DWORD PTR _this$[ebp]
	call	?_Xlen@?$basic_string@DU?$char_traits@D@std@@V?$allocator@D@2@@std@@QBEXXZ ; std::basic_string<char,std::char_traits<char>,std::allocator<char> >::_Xlen
$LN6@Grow:

; 2226 : 		if (this->_Myres < _Newsize)

	mov	eax, DWORD PTR _this$[ebp]
	mov	ecx, DWORD PTR [eax+20]
	cmp	ecx, DWORD PTR __Newsize$[ebp]
	jae	SHORT $LN5@Grow

; 2227 : 			_Copy(_Newsize, this->_Mysize);	// reallocate to grow

	mov	edx, DWORD PTR _this$[ebp]
	mov	eax, DWORD PTR [edx+16]
	push	eax
	mov	ecx, DWORD PTR __Newsize$[ebp]
	push	ecx
	mov	ecx, DWORD PTR _this$[ebp]
	call	?_Copy@?$basic_string@DU?$char_traits@D@std@@V?$allocator@D@2@@std@@QAEXII@Z ; std::basic_string<char,std::char_traits<char>,std::allocator<char> >::_Copy
	jmp	SHORT $LN4@Grow
$LN5@Grow:

; 2228 : 		else if (_Trim && _Newsize < this->_BUF_SIZE)

	movzx	edx, BYTE PTR __Trim$[ebp]
	test	edx, edx
	je	SHORT $LN3@Grow
	cmp	DWORD PTR __Newsize$[ebp], 16		; 00000010H
	jae	SHORT $LN3@Grow

; 2229 : 			_Tidy(true,	// copy and deallocate if trimming to small string
; 2230 : 				_Newsize < this->_Mysize ? _Newsize : this->_Mysize);

	mov	eax, DWORD PTR _this$[ebp]
	mov	ecx, DWORD PTR __Newsize$[ebp]
	cmp	ecx, DWORD PTR [eax+16]
	jae	SHORT $LN9@Grow
	mov	edx, DWORD PTR __Newsize$[ebp]
	mov	DWORD PTR tv129[ebp], edx
	jmp	SHORT $LN10@Grow
$LN9@Grow:
	mov	eax, DWORD PTR _this$[ebp]
	mov	ecx, DWORD PTR [eax+16]
	mov	DWORD PTR tv129[ebp], ecx
$LN10@Grow:
	mov	edx, DWORD PTR tv129[ebp]
	push	edx
	push	1
	mov	ecx, DWORD PTR _this$[ebp]
	call	?_Tidy@?$basic_string@DU?$char_traits@D@std@@V?$allocator@D@2@@std@@QAEX_NI@Z ; std::basic_string<char,std::char_traits<char>,std::allocator<char> >::_Tidy
	jmp	SHORT $LN4@Grow
$LN3@Grow:

; 2231 : 		else if (_Newsize == 0)

	cmp	DWORD PTR __Newsize$[ebp], 0
	jne	SHORT $LN4@Grow

; 2232 : 			_Eos(0);	// new size is zero, just null terminate

	push	0
	mov	ecx, DWORD PTR _this$[ebp]
	call	?_Eos@?$basic_string@DU?$char_traits@D@std@@V?$allocator@D@2@@std@@QAEXI@Z ; std::basic_string<char,std::char_traits<char>,std::allocator<char> >::_Eos
$LN4@Grow:

; 2233 : 		return (0 < _Newsize);	// return true only if more work to do

	cmp	DWORD PTR __Newsize$[ebp], 0
	jbe	SHORT $LN11@Grow
	mov	DWORD PTR tv136[ebp], 1
	jmp	SHORT $LN12@Grow
$LN11@Grow:
	mov	DWORD PTR tv136[ebp], 0
$LN12@Grow:
	mov	al, BYTE PTR tv136[ebp]
$LN8@Grow:

; 2234 : 		}

	mov	esp, ebp
	pop	ebp
	ret	8
?_Grow@?$basic_string@DU?$char_traits@D@std@@V?$allocator@D@2@@std@@QAE_NI_N@Z ENDP ; std::basic_string<char,std::char_traits<char>,std::allocator<char> >::_Grow
_TEXT	ENDS
; Function compile flags: /Odtp
; File c:\program files (x86)\microsoft visual studio 11.0\vc\include\xstring
;	COMDAT ?_Eos@?$basic_string@DU?$char_traits@D@std@@V?$allocator@D@2@@std@@QAEXI@Z
_TEXT	SEGMENT
_this$ = -8						; size = 4
$T1 = -1						; size = 1
__Newsize$ = 8						; size = 4
?_Eos@?$basic_string@DU?$char_traits@D@std@@V?$allocator@D@2@@std@@QAEXI@Z PROC ; std::basic_string<char,std::char_traits<char>,std::allocator<char> >::_Eos, COMDAT
; _this$ = ecx

; 2217 : 		{	// set new length and null terminator

	push	ebp
	mov	ebp, esp
	sub	esp, 8
	mov	DWORD PTR _this$[ebp], ecx

; 2218 : 		_Traits::assign(this->_Myptr()[this->_Mysize = _Newsize], _Elem());

	mov	BYTE PTR $T1[ebp], 0
	mov	eax, DWORD PTR _this$[ebp]
	mov	ecx, DWORD PTR __Newsize$[ebp]
	mov	DWORD PTR [eax+16], ecx
	lea	edx, DWORD PTR $T1[ebp]
	push	edx
	mov	ecx, DWORD PTR _this$[ebp]
	call	?_Myptr@?$_String_val@U?$_Simple_types@D@std@@@std@@QAEPADXZ ; std::_String_val<std::_Simple_types<char> >::_Myptr
	add	eax, DWORD PTR __Newsize$[ebp]
	push	eax
	call	?assign@?$char_traits@D@std@@SAXAADABD@Z ; std::char_traits<char>::assign
	add	esp, 8

; 2219 : 		}

	mov	esp, ebp
	pop	ebp
	ret	4
?_Eos@?$basic_string@DU?$char_traits@D@std@@V?$allocator@D@2@@std@@QAEXI@Z ENDP ; std::basic_string<char,std::char_traits<char>,std::allocator<char> >::_Eos
_TEXT	ENDS
; Function compile flags: /Odtp
; File c:\program files (x86)\microsoft visual studio 11.0\vc\include\xstring
;	COMDAT ?_Copy@?$basic_string@DU?$char_traits@D@std@@V?$allocator@D@2@@std@@QAEXII@Z
_TEXT	SEGMENT
tv205 = -48						; size = 4
tv204 = -44						; size = 4
tv203 = -40						; size = 4
tv202 = -36						; size = 4
__Ptr$ = -32						; size = 4
__Newres$ = -28						; size = 4
_this$ = -24						; size = 4
$T2 = -19						; size = 1
$T3 = -18						; size = 1
$T4 = -17						; size = 1
__$EHRec$ = -16						; size = 16
__Newsize$ = 8						; size = 4
__Oldlen$ = 12						; size = 4
?_Copy@?$basic_string@DU?$char_traits@D@std@@V?$allocator@D@2@@std@@QAEXII@Z PROC ; std::basic_string<char,std::char_traits<char>,std::allocator<char> >::_Copy, COMDAT
; _this$ = ecx

; 2182 : 		{	// copy _Oldlen elements to newly allocated buffer

	push	ebp
	mov	ebp, esp
	push	-1
	push	__ehhandler$?_Copy@?$basic_string@DU?$char_traits@D@std@@V?$allocator@D@2@@std@@QAEXII@Z
	mov	eax, DWORD PTR fs:0
	push	eax
	push	ecx
	sub	esp, 32					; 00000020H
	push	ebx
	push	esi
	push	edi
	mov	eax, DWORD PTR ___security_cookie
	xor	eax, ebp
	push	eax
	lea	eax, DWORD PTR __$EHRec$[ebp+4]
	mov	DWORD PTR fs:0, eax
	mov	DWORD PTR __$EHRec$[ebp], esp
	mov	DWORD PTR _this$[ebp], ecx

; 2183 : 		size_type _Newres = _Newsize | this->_ALLOC_MASK;

	mov	eax, DWORD PTR __Newsize$[ebp]
	or	eax, 15					; 0000000fH
	mov	DWORD PTR __Newres$[ebp], eax

; 2184 : 		if (max_size() < _Newres)

	mov	ecx, DWORD PTR _this$[ebp]
	call	?max_size@?$basic_string@DU?$char_traits@D@std@@V?$allocator@D@2@@std@@QBEIXZ ; std::basic_string<char,std::char_traits<char>,std::allocator<char> >::max_size
	cmp	eax, DWORD PTR __Newres$[ebp]
	jae	SHORT $LN9@Copy

; 2185 : 			_Newres = _Newsize;	// undo roundup if too big

	mov	ecx, DWORD PTR __Newsize$[ebp]
	mov	DWORD PTR __Newres$[ebp], ecx
	jmp	SHORT $LN8@Copy
$LN9@Copy:

; 2186 : 		else if (this->_Myres / 2 <= _Newres / 3)

	mov	eax, DWORD PTR __Newres$[ebp]
	xor	edx, edx
	mov	ecx, 3
	div	ecx
	mov	edx, DWORD PTR _this$[ebp]
	mov	ecx, DWORD PTR [edx+20]
	shr	ecx, 1
	cmp	ecx, eax
	ja	SHORT $LN7@Copy
	jmp	SHORT $LN8@Copy
$LN7@Copy:

; 2187 : 			;
; 2188 : 		else if (this->_Myres <= max_size() - this->_Myres / 2)

	mov	edx, DWORD PTR _this$[ebp]
	mov	esi, DWORD PTR [edx+20]
	shr	esi, 1
	mov	ecx, DWORD PTR _this$[ebp]
	call	?max_size@?$basic_string@DU?$char_traits@D@std@@V?$allocator@D@2@@std@@QBEIXZ ; std::basic_string<char,std::char_traits<char>,std::allocator<char> >::max_size
	sub	eax, esi
	mov	ecx, DWORD PTR _this$[ebp]
	cmp	DWORD PTR [ecx+20], eax
	ja	SHORT $LN5@Copy

; 2189 : 			_Newres = this->_Myres
; 2190 : 				+ this->_Myres / 2;	// grow exponentially if possible

	mov	edx, DWORD PTR _this$[ebp]
	mov	eax, DWORD PTR [edx+20]
	shr	eax, 1
	mov	ecx, DWORD PTR _this$[ebp]
	add	eax, DWORD PTR [ecx+20]
	mov	DWORD PTR __Newres$[ebp], eax

; 2191 : 		else

	jmp	SHORT $LN8@Copy
$LN5@Copy:

; 2192 : 			_Newres = max_size();	// settle for max_size()

	mov	ecx, DWORD PTR _this$[ebp]
	call	?max_size@?$basic_string@DU?$char_traits@D@std@@V?$allocator@D@2@@std@@QBEIXZ ; std::basic_string<char,std::char_traits<char>,std::allocator<char> >::max_size
	mov	DWORD PTR __Newres$[ebp], eax
$LN8@Copy:

; 2193 : 
; 2194 : 		_Elem *_Ptr;
; 2195 : 		_TRY_BEGIN

	mov	DWORD PTR __$EHRec$[ebp+12], 0

; 2196 : 			_Ptr = this->_Getal().allocate(_Newres + 1);

	lea	edx, DWORD PTR $T4[ebp]
	push	edx
	mov	ecx, DWORD PTR _this$[ebp]
	call	?_Getal@?$_String_alloc@$0A@U?$_String_base_types@DV?$allocator@D@std@@@std@@@std@@QBE?AU?$_Wrap_alloc@V?$allocator@D@std@@@2@XZ ; std::_String_alloc<0,std::_String_base_types<char,std::allocator<char> > >::_Getal
	mov	DWORD PTR tv202[ebp], eax
	mov	eax, DWORD PTR __Newres$[ebp]
	add	eax, 1
	push	eax
	mov	ecx, DWORD PTR tv202[ebp]
	call	?allocate@?$_Wrap_alloc@V?$allocator@D@std@@@std@@QAEPADI@Z ; std::_Wrap_alloc<std::allocator<char> >::allocate
	mov	DWORD PTR tv203[ebp], eax
	mov	ecx, DWORD PTR tv203[ebp]
	mov	DWORD PTR __Ptr$[ebp], ecx
	jmp	SHORT $LN12@Copy
__catch$?_Copy@?$basic_string@DU?$char_traits@D@std@@V?$allocator@D@2@@std@@QAEXII@Z$0:

; 2197 : 		_CATCH_ALL

	mov	DWORD PTR __$EHRec$[ebp], esp

; 2198 : 			_Newres = _Newsize;	// allocation failed, undo roundup and retry

	mov	edx, DWORD PTR __Newsize$[ebp]
	mov	DWORD PTR __Newres$[ebp], edx

; 2199 : 			_TRY_BEGIN

	mov	BYTE PTR __$EHRec$[ebp+12], 2

; 2200 : 				_Ptr = this->_Getal().allocate(_Newres + 1);

	lea	eax, DWORD PTR $T3[ebp]
	push	eax
	mov	ecx, DWORD PTR _this$[ebp]
	call	?_Getal@?$_String_alloc@$0A@U?$_String_base_types@DV?$allocator@D@std@@@std@@@std@@QBE?AU?$_Wrap_alloc@V?$allocator@D@std@@@2@XZ ; std::_String_alloc<0,std::_String_base_types<char,std::allocator<char> > >::_Getal
	mov	DWORD PTR tv204[ebp], eax
	mov	ecx, DWORD PTR __Newres$[ebp]
	add	ecx, 1
	push	ecx
	mov	ecx, DWORD PTR tv204[ebp]
	call	?allocate@?$_Wrap_alloc@V?$allocator@D@std@@@std@@QAEPADI@Z ; std::_Wrap_alloc<std::allocator<char> >::allocate
	mov	DWORD PTR tv205[ebp], eax
	mov	edx, DWORD PTR tv205[ebp]
	mov	DWORD PTR __Ptr$[ebp], edx
	jmp	SHORT $LN14@Copy
__catch$?_Copy@?$basic_string@DU?$char_traits@D@std@@V?$allocator@D@2@@std@@QAEXII@Z$1:

; 2201 : 			_CATCH_ALL
; 2202 : 			_Tidy(true);	// failed again, discard storage and reraise

	push	0
	push	1
	mov	ecx, DWORD PTR _this$[ebp]
	call	?_Tidy@?$basic_string@DU?$char_traits@D@std@@V?$allocator@D@2@@std@@QAEX_NI@Z ; std::basic_string<char,std::char_traits<char>,std::allocator<char> >::_Tidy

; 2203 : 			_RERAISE;

	push	0
	push	0
	call	__CxxThrowException@8

; 2204 : 			_CATCH_END

	mov	eax, $LN17@Copy
	ret	0
$LN14@Copy:
	mov	DWORD PTR __$EHRec$[ebp+12], 1
	jmp	SHORT __tryend$?_Copy@?$basic_string@DU?$char_traits@D@std@@V?$allocator@D@2@@std@@QAEXII@Z$2
$LN17@Copy:
	mov	DWORD PTR __$EHRec$[ebp+12], 1
__tryend$?_Copy@?$basic_string@DU?$char_traits@D@std@@V?$allocator@D@2@@std@@QAEXII@Z$2:

; 2205 : 		_CATCH_END

	mov	eax, $LN19@Copy
	ret	0
$LN12@Copy:
	mov	DWORD PTR __$EHRec$[ebp+12], -1
	jmp	SHORT __tryend$?_Copy@?$basic_string@DU?$char_traits@D@std@@V?$allocator@D@2@@std@@QAEXII@Z$3
$LN19@Copy:
	mov	DWORD PTR __$EHRec$[ebp+12], -1
__tryend$?_Copy@?$basic_string@DU?$char_traits@D@std@@V?$allocator@D@2@@std@@QAEXII@Z$3:

; 2206 : 
; 2207 : 		if (0 < _Oldlen)

	cmp	DWORD PTR __Oldlen$[ebp], 0
	jbe	SHORT $LN1@Copy

; 2208 : 			_Traits::copy(_Ptr, this->_Myptr(),
; 2209 : 				_Oldlen);	// copy existing elements

	mov	eax, DWORD PTR __Oldlen$[ebp]
	push	eax
	mov	ecx, DWORD PTR _this$[ebp]
	call	?_Myptr@?$_String_val@U?$_Simple_types@D@std@@@std@@QAEPADXZ ; std::_String_val<std::_Simple_types<char> >::_Myptr
	push	eax
	mov	ecx, DWORD PTR __Ptr$[ebp]
	push	ecx
	call	?copy@?$char_traits@D@std@@SAPADPADPBDI@Z ; std::char_traits<char>::copy
	add	esp, 12					; 0000000cH
$LN1@Copy:

; 2210 : 		_Tidy(true);

	push	0
	push	1
	mov	ecx, DWORD PTR _this$[ebp]
	call	?_Tidy@?$basic_string@DU?$char_traits@D@std@@V?$allocator@D@2@@std@@QAEX_NI@Z ; std::basic_string<char,std::char_traits<char>,std::allocator<char> >::_Tidy

; 2211 : 		this->_Getal().construct(&this->_Bx._Ptr, _Ptr);

	lea	edx, DWORD PTR __Ptr$[ebp]
	push	edx
	mov	eax, DWORD PTR _this$[ebp]
	push	eax
	lea	ecx, DWORD PTR $T2[ebp]
	push	ecx
	mov	ecx, DWORD PTR _this$[ebp]
	call	?_Getal@?$_String_alloc@$0A@U?$_String_base_types@DV?$allocator@D@std@@@std@@@std@@QBE?AU?$_Wrap_alloc@V?$allocator@D@std@@@2@XZ ; std::_String_alloc<0,std::_String_base_types<char,std::allocator<char> > >::_Getal
	mov	ecx, eax
	call	??$construct@PADAAPAD@?$_Wrap_alloc@V?$allocator@D@std@@@std@@QAEXPAPADAAPAD@Z ; std::_Wrap_alloc<std::allocator<char> >::construct<char *,char * &>

; 2212 : 		this->_Myres = _Newres;

	mov	edx, DWORD PTR _this$[ebp]
	mov	eax, DWORD PTR __Newres$[ebp]
	mov	DWORD PTR [edx+20], eax

; 2213 : 		_Eos(_Oldlen);

	mov	ecx, DWORD PTR __Oldlen$[ebp]
	push	ecx
	mov	ecx, DWORD PTR _this$[ebp]
	call	?_Eos@?$basic_string@DU?$char_traits@D@std@@V?$allocator@D@2@@std@@QAEXI@Z ; std::basic_string<char,std::char_traits<char>,std::allocator<char> >::_Eos
$LN11@Copy:

; 2214 : 		}

	mov	ecx, DWORD PTR __$EHRec$[ebp+4]
	mov	DWORD PTR fs:0, ecx
	pop	ecx
	pop	edi
	pop	esi
	pop	ebx
	mov	esp, ebp
	pop	ebp
	ret	8
_TEXT	ENDS
;	COMDAT text$x
text$x	SEGMENT
__ehhandler$?_Copy@?$basic_string@DU?$char_traits@D@std@@V?$allocator@D@2@@std@@QAEXII@Z:
	mov	edx, DWORD PTR [esp+8]
	lea	eax, DWORD PTR [edx+12]
	mov	ecx, DWORD PTR [edx-52]
	xor	ecx, eax
	call	@__security_check_cookie@4
	mov	eax, OFFSET __ehfuncinfo$?_Copy@?$basic_string@DU?$char_traits@D@std@@V?$allocator@D@2@@std@@QAEXII@Z
	jmp	___CxxFrameHandler3
text$x	ENDS
?_Copy@?$basic_string@DU?$char_traits@D@std@@V?$allocator@D@2@@std@@QAEXII@Z ENDP ; std::basic_string<char,std::char_traits<char>,std::allocator<char> >::_Copy
; Function compile flags: /Odtp
; File c:\program files (x86)\microsoft visual studio 11.0\vc\include\xstring
;	COMDAT ?max_size@?$basic_string@DU?$char_traits@D@std@@V?$allocator@D@2@@std@@QBEIXZ
_TEXT	SEGMENT
_this$ = -16						; size = 4
tv75 = -12						; size = 4
__Num$ = -8						; size = 4
$T1 = -1						; size = 1
?max_size@?$basic_string@DU?$char_traits@D@std@@V?$allocator@D@2@@std@@QBEIXZ PROC ; std::basic_string<char,std::char_traits<char>,std::allocator<char> >::max_size, COMDAT
; _this$ = ecx

; 1737 : 		{	// return maximum possible length of sequence

	push	ebp
	mov	ebp, esp
	sub	esp, 16					; 00000010H
	mov	DWORD PTR _this$[ebp], ecx

; 1738 : 		size_type _Num = this->_Getal().max_size();

	lea	eax, DWORD PTR $T1[ebp]
	push	eax
	mov	ecx, DWORD PTR _this$[ebp]
	call	?_Getal@?$_String_alloc@$0A@U?$_String_base_types@DV?$allocator@D@std@@@std@@@std@@QBE?AU?$_Wrap_alloc@V?$allocator@D@std@@@2@XZ ; std::_String_alloc<0,std::_String_base_types<char,std::allocator<char> > >::_Getal
	mov	ecx, eax
	call	?max_size@?$_Wrap_alloc@V?$allocator@D@std@@@std@@QBEIXZ ; std::_Wrap_alloc<std::allocator<char> >::max_size
	mov	DWORD PTR __Num$[ebp], eax

; 1739 : 		return (_Num <= 1 ? 1 : _Num - 1);

	cmp	DWORD PTR __Num$[ebp], 1
	ja	SHORT $LN3@max_size
	mov	DWORD PTR tv75[ebp], 1
	jmp	SHORT $LN4@max_size
$LN3@max_size:
	mov	ecx, DWORD PTR __Num$[ebp]
	sub	ecx, 1
	mov	DWORD PTR tv75[ebp], ecx
$LN4@max_size:
	mov	eax, DWORD PTR tv75[ebp]

; 1740 : 		}

	mov	esp, ebp
	pop	ebp
	ret	0
?max_size@?$basic_string@DU?$char_traits@D@std@@V?$allocator@D@2@@std@@QBEIXZ ENDP ; std::basic_string<char,std::char_traits<char>,std::allocator<char> >::max_size
_TEXT	ENDS
; Function compile flags: /Odtp
; File c:\program files (x86)\microsoft visual studio 11.0\vc\include\xstring
;	COMDAT ?size@?$basic_string@DU?$char_traits@D@std@@V?$allocator@D@2@@std@@QBEIXZ
_TEXT	SEGMENT
_this$ = -4						; size = 4
?size@?$basic_string@DU?$char_traits@D@std@@V?$allocator@D@2@@std@@QBEIXZ PROC ; std::basic_string<char,std::char_traits<char>,std::allocator<char> >::size, COMDAT
; _this$ = ecx

; 1732 : 		{	// return length of sequence

	push	ebp
	mov	ebp, esp
	push	ecx
	mov	DWORD PTR _this$[ebp], ecx

; 1733 : 		return (this->_Mysize);

	mov	eax, DWORD PTR _this$[ebp]
	mov	eax, DWORD PTR [eax+16]

; 1734 : 		}

	mov	esp, ebp
	pop	ebp
	ret	0
?size@?$basic_string@DU?$char_traits@D@std@@V?$allocator@D@2@@std@@QBEIXZ ENDP ; std::basic_string<char,std::char_traits<char>,std::allocator<char> >::size
_TEXT	ENDS
; Function compile flags: /Odtp
; File c:\program files (x86)\microsoft visual studio 11.0\vc\include\xstring
;	COMDAT ?erase@?$basic_string@DU?$char_traits@D@std@@V?$allocator@D@2@@std@@QAEAAV12@II@Z
_TEXT	SEGMENT
__Newsize$1 = -12					; size = 4
__Ptr$2 = -8						; size = 4
_this$ = -4						; size = 4
__Off$ = 8						; size = 4
__Count$ = 12						; size = 4
?erase@?$basic_string@DU?$char_traits@D@std@@V?$allocator@D@2@@std@@QAEAAV12@II@Z PROC ; std::basic_string<char,std::char_traits<char>,std::allocator<char> >::erase, COMDAT
; _this$ = ecx

; 1317 : 		{	// erase elements [_Off, _Off + _Count)

	push	ebp
	mov	ebp, esp
	sub	esp, 12					; 0000000cH
	mov	DWORD PTR _this$[ebp], ecx

; 1318 : 		if (this->_Mysize < _Off)

	mov	eax, DWORD PTR _this$[ebp]
	mov	ecx, DWORD PTR [eax+16]
	cmp	ecx, DWORD PTR __Off$[ebp]
	jae	SHORT $LN4@erase

; 1319 : 			_Xran();	// _Off off end

	mov	ecx, DWORD PTR _this$[ebp]
	call	?_Xran@?$basic_string@DU?$char_traits@D@std@@V?$allocator@D@2@@std@@QBEXXZ ; std::basic_string<char,std::char_traits<char>,std::allocator<char> >::_Xran
$LN4@erase:

; 1320 : 		if (this->_Mysize - _Off <= _Count)

	mov	edx, DWORD PTR _this$[ebp]
	mov	eax, DWORD PTR [edx+16]
	sub	eax, DWORD PTR __Off$[ebp]
	cmp	eax, DWORD PTR __Count$[ebp]
	ja	SHORT $LN3@erase

; 1321 : 			_Eos(_Off);	// erase elements [_Off, ...)

	mov	ecx, DWORD PTR __Off$[ebp]
	push	ecx
	mov	ecx, DWORD PTR _this$[ebp]
	call	?_Eos@?$basic_string@DU?$char_traits@D@std@@V?$allocator@D@2@@std@@QAEXI@Z ; std::basic_string<char,std::char_traits<char>,std::allocator<char> >::_Eos
	jmp	SHORT $LN2@erase
$LN3@erase:

; 1322 : 		else if (0 < _Count)

	cmp	DWORD PTR __Count$[ebp], 0
	jbe	SHORT $LN2@erase

; 1323 : 			{	// move elements down
; 1324 : 			value_type *_Ptr = this->_Myptr() + _Off;

	mov	ecx, DWORD PTR _this$[ebp]
	call	?_Myptr@?$_String_val@U?$_Simple_types@D@std@@@std@@QAEPADXZ ; std::_String_val<std::_Simple_types<char> >::_Myptr
	add	eax, DWORD PTR __Off$[ebp]
	mov	DWORD PTR __Ptr$2[ebp], eax

; 1325 : 			size_type _Newsize = this->_Mysize - _Count;

	mov	edx, DWORD PTR _this$[ebp]
	mov	eax, DWORD PTR [edx+16]
	sub	eax, DWORD PTR __Count$[ebp]
	mov	DWORD PTR __Newsize$1[ebp], eax

; 1326 : 			_Traits::move(_Ptr, _Ptr + _Count, _Newsize - _Off);

	mov	ecx, DWORD PTR __Newsize$1[ebp]
	sub	ecx, DWORD PTR __Off$[ebp]
	push	ecx
	mov	edx, DWORD PTR __Ptr$2[ebp]
	add	edx, DWORD PTR __Count$[ebp]
	push	edx
	mov	eax, DWORD PTR __Ptr$2[ebp]
	push	eax
	call	?move@?$char_traits@D@std@@SAPADPADPBDI@Z ; std::char_traits<char>::move
	add	esp, 12					; 0000000cH

; 1327 : 			_Eos(_Newsize);

	mov	ecx, DWORD PTR __Newsize$1[ebp]
	push	ecx
	mov	ecx, DWORD PTR _this$[ebp]
	call	?_Eos@?$basic_string@DU?$char_traits@D@std@@V?$allocator@D@2@@std@@QAEXI@Z ; std::basic_string<char,std::char_traits<char>,std::allocator<char> >::_Eos
$LN2@erase:

; 1328 : 			}
; 1329 : 		return (*this);

	mov	eax, DWORD PTR _this$[ebp]
$LN6@erase:

; 1330 : 		}

	mov	esp, ebp
	pop	ebp
	ret	8
?erase@?$basic_string@DU?$char_traits@D@std@@V?$allocator@D@2@@std@@QAEAAV12@II@Z ENDP ; std::basic_string<char,std::char_traits<char>,std::allocator<char> >::erase
_TEXT	ENDS
; Function compile flags: /Odtp
; File c:\program files (x86)\microsoft visual studio 11.0\vc\include\xstring
;	COMDAT ?erase@?$basic_string@DU?$char_traits@D@std@@V?$allocator@D@2@@std@@QAEAAV12@I@Z
_TEXT	SEGMENT
_this$ = -4						; size = 4
__Off$ = 8						; size = 4
?erase@?$basic_string@DU?$char_traits@D@std@@V?$allocator@D@2@@std@@QAEAAV12@I@Z PROC ; std::basic_string<char,std::char_traits<char>,std::allocator<char> >::erase, COMDAT
; _this$ = ecx

; 1309 : 		{	// erase elements [_Off, ...)

	push	ebp
	mov	ebp, esp
	push	ecx
	mov	DWORD PTR _this$[ebp], ecx

; 1310 : 		if (this->_Mysize < _Off)

	mov	eax, DWORD PTR _this$[ebp]
	mov	ecx, DWORD PTR [eax+16]
	cmp	ecx, DWORD PTR __Off$[ebp]
	jae	SHORT $LN1@erase

; 1311 : 			_Xran();	// _Off off end

	mov	ecx, DWORD PTR _this$[ebp]
	call	?_Xran@?$basic_string@DU?$char_traits@D@std@@V?$allocator@D@2@@std@@QBEXXZ ; std::basic_string<char,std::char_traits<char>,std::allocator<char> >::_Xran
$LN1@erase:

; 1312 : 		_Eos(_Off);

	mov	edx, DWORD PTR __Off$[ebp]
	push	edx
	mov	ecx, DWORD PTR _this$[ebp]
	call	?_Eos@?$basic_string@DU?$char_traits@D@std@@V?$allocator@D@2@@std@@QAEXI@Z ; std::basic_string<char,std::char_traits<char>,std::allocator<char> >::_Eos

; 1313 : 		return (*this);

	mov	eax, DWORD PTR _this$[ebp]
$LN3@erase:

; 1314 : 		}

	mov	esp, ebp
	pop	ebp
	ret	4
?erase@?$basic_string@DU?$char_traits@D@std@@V?$allocator@D@2@@std@@QAEAAV12@I@Z ENDP ; std::basic_string<char,std::char_traits<char>,std::allocator<char> >::erase
_TEXT	ENDS
; Function compile flags: /Odtp
; File c:\program files (x86)\microsoft visual studio 11.0\vc\include\xstring
;	COMDAT ?assign@?$basic_string@DU?$char_traits@D@std@@V?$allocator@D@2@@std@@QAEAAV12@PBD@Z
_TEXT	SEGMENT
_this$ = -4						; size = 4
__Ptr$ = 8						; size = 4
?assign@?$basic_string@DU?$char_traits@D@std@@V?$allocator@D@2@@std@@QAEAAV12@PBD@Z PROC ; std::basic_string<char,std::char_traits<char>,std::allocator<char> >::assign, COMDAT
; _this$ = ecx

; 1142 : 		{	// assign [_Ptr, <null>)

	push	ebp
	mov	ebp, esp
	push	ecx
	mov	DWORD PTR _this$[ebp], ecx

; 1143 : 		_DEBUG_POINTER(_Ptr);
; 1144 : 		return (assign(_Ptr, _Traits::length(_Ptr)));

	mov	eax, DWORD PTR __Ptr$[ebp]
	push	eax
	call	?length@?$char_traits@D@std@@SAIPBD@Z	; std::char_traits<char>::length
	add	esp, 4
	push	eax
	mov	ecx, DWORD PTR __Ptr$[ebp]
	push	ecx
	mov	ecx, DWORD PTR _this$[ebp]
	call	?assign@?$basic_string@DU?$char_traits@D@std@@V?$allocator@D@2@@std@@QAEAAV12@PBDI@Z ; std::basic_string<char,std::char_traits<char>,std::allocator<char> >::assign

; 1145 : 		}

	mov	esp, ebp
	pop	ebp
	ret	4
?assign@?$basic_string@DU?$char_traits@D@std@@V?$allocator@D@2@@std@@QAEAAV12@PBD@Z ENDP ; std::basic_string<char,std::char_traits<char>,std::allocator<char> >::assign
_TEXT	ENDS
; Function compile flags: /Odtp
; File c:\program files (x86)\microsoft visual studio 11.0\vc\include\xstring
;	COMDAT ?assign@?$basic_string@DU?$char_traits@D@std@@V?$allocator@D@2@@std@@QAEAAV12@PBDI@Z
_TEXT	SEGMENT
_this$ = -4						; size = 4
__Ptr$ = 8						; size = 4
__Count$ = 12						; size = 4
?assign@?$basic_string@DU?$char_traits@D@std@@V?$allocator@D@2@@std@@QAEAAV12@PBDI@Z PROC ; std::basic_string<char,std::char_traits<char>,std::allocator<char> >::assign, COMDAT
; _this$ = ecx

; 1123 : 		{	// assign [_Ptr, _Ptr + _Count)

	push	ebp
	mov	ebp, esp
	push	ecx
	mov	DWORD PTR _this$[ebp], ecx

; 1124 :  #if _ITERATOR_DEBUG_LEVEL == 2
; 1125 : 		if (_Count != 0)
; 1126 : 			_DEBUG_POINTER(_Ptr);
; 1127 :  #endif /* _ITERATOR_DEBUG_LEVEL == 2 */
; 1128 : 
; 1129 : 		if (_Inside(_Ptr))

	mov	eax, DWORD PTR __Ptr$[ebp]
	push	eax
	mov	ecx, DWORD PTR _this$[ebp]
	call	?_Inside@?$basic_string@DU?$char_traits@D@std@@V?$allocator@D@2@@std@@QAE_NPBD@Z ; std::basic_string<char,std::char_traits<char>,std::allocator<char> >::_Inside
	movzx	ecx, al
	test	ecx, ecx
	je	SHORT $LN2@assign

; 1130 : 			return (assign(*this,
; 1131 : 				_Ptr - this->_Myptr(), _Count));	// substring

	mov	edx, DWORD PTR __Count$[ebp]
	push	edx
	mov	ecx, DWORD PTR _this$[ebp]
	call	?_Myptr@?$_String_val@U?$_Simple_types@D@std@@@std@@QAEPADXZ ; std::_String_val<std::_Simple_types<char> >::_Myptr
	mov	ecx, DWORD PTR __Ptr$[ebp]
	sub	ecx, eax
	push	ecx
	mov	edx, DWORD PTR _this$[ebp]
	push	edx
	mov	ecx, DWORD PTR _this$[ebp]
	call	?assign@?$basic_string@DU?$char_traits@D@std@@V?$allocator@D@2@@std@@QAEAAV12@ABV12@II@Z ; std::basic_string<char,std::char_traits<char>,std::allocator<char> >::assign
	jmp	SHORT $LN3@assign
$LN2@assign:

; 1132 : 
; 1133 : 		if (_Grow(_Count))

	push	0
	mov	eax, DWORD PTR __Count$[ebp]
	push	eax
	mov	ecx, DWORD PTR _this$[ebp]
	call	?_Grow@?$basic_string@DU?$char_traits@D@std@@V?$allocator@D@2@@std@@QAE_NI_N@Z ; std::basic_string<char,std::char_traits<char>,std::allocator<char> >::_Grow
	movzx	ecx, al
	test	ecx, ecx
	je	SHORT $LN1@assign

; 1134 : 			{	// make room and assign new stuff
; 1135 : 			_Traits::copy(this->_Myptr(), _Ptr, _Count);

	mov	edx, DWORD PTR __Count$[ebp]
	push	edx
	mov	eax, DWORD PTR __Ptr$[ebp]
	push	eax
	mov	ecx, DWORD PTR _this$[ebp]
	call	?_Myptr@?$_String_val@U?$_Simple_types@D@std@@@std@@QAEPADXZ ; std::_String_val<std::_Simple_types<char> >::_Myptr
	push	eax
	call	?copy@?$char_traits@D@std@@SAPADPADPBDI@Z ; std::char_traits<char>::copy
	add	esp, 12					; 0000000cH

; 1136 : 			_Eos(_Count);

	mov	ecx, DWORD PTR __Count$[ebp]
	push	ecx
	mov	ecx, DWORD PTR _this$[ebp]
	call	?_Eos@?$basic_string@DU?$char_traits@D@std@@V?$allocator@D@2@@std@@QAEXI@Z ; std::basic_string<char,std::char_traits<char>,std::allocator<char> >::_Eos
$LN1@assign:

; 1137 : 			}
; 1138 : 		return (*this);

	mov	eax, DWORD PTR _this$[ebp]
$LN3@assign:

; 1139 : 		}

	mov	esp, ebp
	pop	ebp
	ret	8
?assign@?$basic_string@DU?$char_traits@D@std@@V?$allocator@D@2@@std@@QAEAAV12@PBDI@Z ENDP ; std::basic_string<char,std::char_traits<char>,std::allocator<char> >::assign
_TEXT	ENDS
; Function compile flags: /Odtp
; File c:\program files (x86)\microsoft visual studio 11.0\vc\include\xstring
;	COMDAT ?assign@?$basic_string@DU?$char_traits@D@std@@V?$allocator@D@2@@std@@QAEAAV12@ABV12@II@Z
_TEXT	SEGMENT
__Num$ = -8						; size = 4
_this$ = -4						; size = 4
__Right$ = 8						; size = 4
__Roff$ = 12						; size = 4
__Count$ = 16						; size = 4
?assign@?$basic_string@DU?$char_traits@D@std@@V?$allocator@D@2@@std@@QAEAAV12@ABV12@II@Z PROC ; std::basic_string<char,std::char_traits<char>,std::allocator<char> >::assign, COMDAT
; _this$ = ecx

; 1104 : 		{	// assign _Right [_Roff, _Roff + _Count)

	push	ebp
	mov	ebp, esp
	sub	esp, 8
	mov	DWORD PTR _this$[ebp], ecx

; 1105 : 		if (_Right.size() < _Roff)

	mov	ecx, DWORD PTR __Right$[ebp]
	call	?size@?$basic_string@DU?$char_traits@D@std@@V?$allocator@D@2@@std@@QBEIXZ ; std::basic_string<char,std::char_traits<char>,std::allocator<char> >::size
	cmp	eax, DWORD PTR __Roff$[ebp]
	jae	SHORT $LN5@assign

; 1106 : 			_Xran();	// _Roff off end

	mov	ecx, DWORD PTR _this$[ebp]
	call	?_Xran@?$basic_string@DU?$char_traits@D@std@@V?$allocator@D@2@@std@@QBEXXZ ; std::basic_string<char,std::char_traits<char>,std::allocator<char> >::_Xran
$LN5@assign:

; 1107 : 		size_type _Num = _Right.size() - _Roff;

	mov	ecx, DWORD PTR __Right$[ebp]
	call	?size@?$basic_string@DU?$char_traits@D@std@@V?$allocator@D@2@@std@@QBEIXZ ; std::basic_string<char,std::char_traits<char>,std::allocator<char> >::size
	sub	eax, DWORD PTR __Roff$[ebp]
	mov	DWORD PTR __Num$[ebp], eax

; 1108 : 		if (_Count < _Num)

	mov	eax, DWORD PTR __Count$[ebp]
	cmp	eax, DWORD PTR __Num$[ebp]
	jae	SHORT $LN4@assign

; 1109 : 			_Num = _Count;	// trim _Num to size

	mov	ecx, DWORD PTR __Count$[ebp]
	mov	DWORD PTR __Num$[ebp], ecx
$LN4@assign:

; 1110 : 
; 1111 : 		if (this == &_Right)

	mov	edx, DWORD PTR _this$[ebp]
	cmp	edx, DWORD PTR __Right$[ebp]
	jne	SHORT $LN3@assign

; 1112 : 			erase((size_type)(_Roff + _Num)), erase(0, _Roff);	// substring

	mov	eax, DWORD PTR __Roff$[ebp]
	add	eax, DWORD PTR __Num$[ebp]
	push	eax
	mov	ecx, DWORD PTR _this$[ebp]
	call	?erase@?$basic_string@DU?$char_traits@D@std@@V?$allocator@D@2@@std@@QAEAAV12@I@Z ; std::basic_string<char,std::char_traits<char>,std::allocator<char> >::erase
	mov	ecx, DWORD PTR __Roff$[ebp]
	push	ecx
	push	0
	mov	ecx, DWORD PTR _this$[ebp]
	call	?erase@?$basic_string@DU?$char_traits@D@std@@V?$allocator@D@2@@std@@QAEAAV12@II@Z ; std::basic_string<char,std::char_traits<char>,std::allocator<char> >::erase
	jmp	SHORT $LN2@assign
$LN3@assign:

; 1113 : 		else if (_Grow(_Num))

	push	0
	mov	edx, DWORD PTR __Num$[ebp]
	push	edx
	mov	ecx, DWORD PTR _this$[ebp]
	call	?_Grow@?$basic_string@DU?$char_traits@D@std@@V?$allocator@D@2@@std@@QAE_NI_N@Z ; std::basic_string<char,std::char_traits<char>,std::allocator<char> >::_Grow
	movzx	eax, al
	test	eax, eax
	je	SHORT $LN2@assign

; 1114 : 			{	// make room and assign new stuff
; 1115 : 			_Traits::copy(this->_Myptr(),
; 1116 : 				_Right._Myptr() + _Roff, _Num);

	mov	ecx, DWORD PTR __Num$[ebp]
	push	ecx
	mov	ecx, DWORD PTR __Right$[ebp]
	call	?_Myptr@?$_String_val@U?$_Simple_types@D@std@@@std@@QBEPBDXZ ; std::_String_val<std::_Simple_types<char> >::_Myptr
	add	eax, DWORD PTR __Roff$[ebp]
	push	eax
	mov	ecx, DWORD PTR _this$[ebp]
	call	?_Myptr@?$_String_val@U?$_Simple_types@D@std@@@std@@QAEPADXZ ; std::_String_val<std::_Simple_types<char> >::_Myptr
	push	eax
	call	?copy@?$char_traits@D@std@@SAPADPADPBDI@Z ; std::char_traits<char>::copy
	add	esp, 12					; 0000000cH

; 1117 : 			_Eos(_Num);

	mov	edx, DWORD PTR __Num$[ebp]
	push	edx
	mov	ecx, DWORD PTR _this$[ebp]
	call	?_Eos@?$basic_string@DU?$char_traits@D@std@@V?$allocator@D@2@@std@@QAEXI@Z ; std::basic_string<char,std::char_traits<char>,std::allocator<char> >::_Eos
$LN2@assign:

; 1118 : 			}
; 1119 : 		return (*this);

	mov	eax, DWORD PTR _this$[ebp]
$LN7@assign:

; 1120 : 		}

	mov	esp, ebp
	pop	ebp
	ret	12					; 0000000cH
?assign@?$basic_string@DU?$char_traits@D@std@@V?$allocator@D@2@@std@@QAEAAV12@ABV12@II@Z ENDP ; std::basic_string<char,std::char_traits<char>,std::allocator<char> >::assign
_TEXT	ENDS
; Function compile flags: /Odtp
; File c:\program files (x86)\microsoft visual studio 11.0\vc\include\xstring
;	COMDAT ??0?$basic_string@DU?$char_traits@D@std@@V?$allocator@D@2@@std@@QAE@PBD@Z
_TEXT	SEGMENT
_this$ = -8						; size = 4
$T1 = -1						; size = 1
__Ptr$ = 8						; size = 4
??0?$basic_string@DU?$char_traits@D@std@@V?$allocator@D@2@@std@@QAE@PBD@Z PROC ; std::basic_string<char,std::char_traits<char>,std::allocator<char> >::basic_string<char,std::char_traits<char>,std::allocator<char> >, COMDAT
; _this$ = ecx

; 791  : 		{	// construct from [_Ptr, <null>)

	push	ebp
	mov	ebp, esp
	sub	esp, 8
	mov	DWORD PTR _this$[ebp], ecx
	lea	ecx, DWORD PTR $T1[ebp]
	call	??0?$allocator@D@std@@QAE@XZ		; std::allocator<char>::allocator<char>
	push	eax
	mov	ecx, DWORD PTR _this$[ebp]
	call	??0?$_String_alloc@$0A@U?$_String_base_types@DV?$allocator@D@std@@@std@@@std@@QAE@ABV?$allocator@D@1@@Z ; std::_String_alloc<0,std::_String_base_types<char,std::allocator<char> > >::_String_alloc<0,std::_String_base_types<char,std::allocator<char> > >

; 792  : 		_Tidy();

	push	0
	push	0
	mov	ecx, DWORD PTR _this$[ebp]
	call	?_Tidy@?$basic_string@DU?$char_traits@D@std@@V?$allocator@D@2@@std@@QAEX_NI@Z ; std::basic_string<char,std::char_traits<char>,std::allocator<char> >::_Tidy

; 793  : 		assign(_Ptr);

	mov	eax, DWORD PTR __Ptr$[ebp]
	push	eax
	mov	ecx, DWORD PTR _this$[ebp]
	call	?assign@?$basic_string@DU?$char_traits@D@std@@V?$allocator@D@2@@std@@QAEAAV12@PBD@Z ; std::basic_string<char,std::char_traits<char>,std::allocator<char> >::assign

; 794  : 		}

	mov	eax, DWORD PTR _this$[ebp]
	mov	esp, ebp
	pop	ebp
	ret	4
??0?$basic_string@DU?$char_traits@D@std@@V?$allocator@D@2@@std@@QAE@PBD@Z ENDP ; std::basic_string<char,std::char_traits<char>,std::allocator<char> >::basic_string<char,std::char_traits<char>,std::allocator<char> >
_TEXT	ENDS
; Function compile flags: /Odtp
; File c:\program files (x86)\microsoft visual studio 11.0\vc\include\xstring
;	COMDAT ?_Getal@?$_String_alloc@$0A@U?$_String_base_types@DV?$allocator@D@std@@@std@@@std@@QBE?AU?$_Wrap_alloc@V?$allocator@D@std@@@2@XZ
_TEXT	SEGMENT
_this$ = -4						; size = 4
___$ReturnUdt$ = 8					; size = 4
?_Getal@?$_String_alloc@$0A@U?$_String_base_types@DV?$allocator@D@std@@@std@@@std@@QBE?AU?$_Wrap_alloc@V?$allocator@D@std@@@2@XZ PROC ; std::_String_alloc<0,std::_String_base_types<char,std::allocator<char> > >::_Getal, COMDAT
; _this$ = ecx

; 688  : 		{	// get reference to allocator

	push	ebp
	mov	ebp, esp
	push	ecx
	mov	DWORD PTR _this$[ebp], ecx

; 689  : 		return (_Alty());

	mov	ecx, DWORD PTR ___$ReturnUdt$[ebp]
	call	??0?$_Wrap_alloc@V?$allocator@D@std@@@std@@QAE@XZ ; std::_Wrap_alloc<std::allocator<char> >::_Wrap_alloc<std::allocator<char> >
	mov	eax, DWORD PTR ___$ReturnUdt$[ebp]

; 690  : 		}

	mov	esp, ebp
	pop	ebp
	ret	4
?_Getal@?$_String_alloc@$0A@U?$_String_base_types@DV?$allocator@D@std@@@std@@@std@@QBE?AU?$_Wrap_alloc@V?$allocator@D@std@@@2@XZ ENDP ; std::_String_alloc<0,std::_String_base_types<char,std::allocator<char> > >::_Getal
_TEXT	ENDS
; Function compile flags: /Odtp
; File c:\program files (x86)\microsoft visual studio 11.0\vc\include\xstring
;	COMDAT ??0?$_String_alloc@$0A@U?$_String_base_types@DV?$allocator@D@std@@@std@@@std@@QAE@ABV?$allocator@D@1@@Z
_TEXT	SEGMENT
_this$ = -4						; size = 4
___formal$ = 8						; size = 4
??0?$_String_alloc@$0A@U?$_String_base_types@DV?$allocator@D@std@@@std@@@std@@QAE@ABV?$allocator@D@1@@Z PROC ; std::_String_alloc<0,std::_String_base_types<char,std::allocator<char> > >::_String_alloc<0,std::_String_base_types<char,std::allocator<char> > >, COMDAT
; _this$ = ecx

; 635  : 	_String_alloc(const _Alloc& = _Alloc())

	push	ebp
	mov	ebp, esp
	push	ecx
	mov	DWORD PTR _this$[ebp], ecx
	mov	ecx, DWORD PTR _this$[ebp]
	call	??0?$_String_val@U?$_Simple_types@D@std@@@std@@QAE@XZ ; std::_String_val<std::_Simple_types<char> >::_String_val<std::_Simple_types<char> >

; 636  : 		{	// construct allocator from _Al
; 637  : 		}

	mov	eax, DWORD PTR _this$[ebp]
	mov	esp, ebp
	pop	ebp
	ret	4
??0?$_String_alloc@$0A@U?$_String_base_types@DV?$allocator@D@std@@@std@@@std@@QAE@ABV?$allocator@D@1@@Z ENDP ; std::_String_alloc<0,std::_String_base_types<char,std::allocator<char> > >::_String_alloc<0,std::_String_base_types<char,std::allocator<char> > >
_TEXT	ENDS
; Function compile flags: /Odtp
; File c:\program files (x86)\microsoft visual studio 11.0\vc\include\xstring
;	COMDAT ?_Myptr@?$_String_val@U?$_Simple_types@D@std@@@std@@QBEPBDXZ
_TEXT	SEGMENT
tv72 = -8						; size = 4
_this$ = -4						; size = 4
?_Myptr@?$_String_val@U?$_Simple_types@D@std@@@std@@QBEPBDXZ PROC ; std::_String_val<std::_Simple_types<char> >::_Myptr, COMDAT
; _this$ = ecx

; 521  : 		{	// determine current pointer to buffer for nonmutable string

	push	ebp
	mov	ebp, esp
	sub	esp, 8
	mov	DWORD PTR _this$[ebp], ecx

; 522  : 		return (this->_BUF_SIZE <= this->_Myres
; 523  : 			? _STD addressof(*this->_Bx._Ptr)
; 524  : 			: this->_Bx._Buf);

	mov	eax, DWORD PTR _this$[ebp]
	cmp	DWORD PTR [eax+20], 16			; 00000010H
	jb	SHORT $LN3@Myptr
	mov	ecx, DWORD PTR _this$[ebp]
	mov	edx, DWORD PTR [ecx]
	push	edx
	call	??$addressof@D@std@@YAPADAAD@Z		; std::addressof<char>
	add	esp, 4
	mov	DWORD PTR tv72[ebp], eax
	jmp	SHORT $LN4@Myptr
$LN3@Myptr:
	mov	eax, DWORD PTR _this$[ebp]
	mov	DWORD PTR tv72[ebp], eax
$LN4@Myptr:
	mov	eax, DWORD PTR tv72[ebp]

; 525  : 		}

	mov	esp, ebp
	pop	ebp
	ret	0
?_Myptr@?$_String_val@U?$_Simple_types@D@std@@@std@@QBEPBDXZ ENDP ; std::_String_val<std::_Simple_types<char> >::_Myptr
_TEXT	ENDS
; Function compile flags: /Odtp
; File c:\program files (x86)\microsoft visual studio 11.0\vc\include\xstring
;	COMDAT ?_Myptr@?$_String_val@U?$_Simple_types@D@std@@@std@@QAEPADXZ
_TEXT	SEGMENT
tv72 = -8						; size = 4
_this$ = -4						; size = 4
?_Myptr@?$_String_val@U?$_Simple_types@D@std@@@std@@QAEPADXZ PROC ; std::_String_val<std::_Simple_types<char> >::_Myptr, COMDAT
; _this$ = ecx

; 514  : 		{	// determine current pointer to buffer for mutable string

	push	ebp
	mov	ebp, esp
	sub	esp, 8
	mov	DWORD PTR _this$[ebp], ecx

; 515  : 		return (this->_BUF_SIZE <= this->_Myres
; 516  : 			? _STD addressof(*this->_Bx._Ptr)
; 517  : 			: this->_Bx._Buf);

	mov	eax, DWORD PTR _this$[ebp]
	cmp	DWORD PTR [eax+20], 16			; 00000010H
	jb	SHORT $LN3@Myptr
	mov	ecx, DWORD PTR _this$[ebp]
	mov	edx, DWORD PTR [ecx]
	push	edx
	call	??$addressof@D@std@@YAPADAAD@Z		; std::addressof<char>
	add	esp, 4
	mov	DWORD PTR tv72[ebp], eax
	jmp	SHORT $LN4@Myptr
$LN3@Myptr:
	mov	eax, DWORD PTR _this$[ebp]
	mov	DWORD PTR tv72[ebp], eax
$LN4@Myptr:
	mov	eax, DWORD PTR tv72[ebp]

; 518  : 		}

	mov	esp, ebp
	pop	ebp
	ret	0
?_Myptr@?$_String_val@U?$_Simple_types@D@std@@@std@@QAEPADXZ ENDP ; std::_String_val<std::_Simple_types<char> >::_Myptr
_TEXT	ENDS
; Function compile flags: /Odtp
; File c:\program files (x86)\microsoft visual studio 11.0\vc\include\xstring
;	COMDAT ??0?$_String_val@U?$_Simple_types@D@std@@@std@@QAE@XZ
_TEXT	SEGMENT
_this$ = -4						; size = 4
??0?$_String_val@U?$_Simple_types@D@std@@@std@@QAE@XZ PROC ; std::_String_val<std::_Simple_types<char> >::_String_val<std::_Simple_types<char> >, COMDAT
; _this$ = ecx

; 496  : 	_String_val()

	push	ebp
	mov	ebp, esp
	push	ecx
	mov	DWORD PTR _this$[ebp], ecx

; 497  : 		{	// initialize values
; 498  : 		_Mysize = 0;

	mov	eax, DWORD PTR _this$[ebp]
	mov	DWORD PTR [eax+16], 0

; 499  : 		_Myres = 0;

	mov	ecx, DWORD PTR _this$[ebp]
	mov	DWORD PTR [ecx+20], 0

; 500  : 		}

	mov	eax, DWORD PTR _this$[ebp]
	mov	esp, ebp
	pop	ebp
	ret	0
??0?$_String_val@U?$_Simple_types@D@std@@@std@@QAE@XZ ENDP ; std::_String_val<std::_Simple_types<char> >::_String_val<std::_Simple_types<char> >
_TEXT	ENDS
; Function compile flags: /Odtp
; File c:\program files (x86)\microsoft visual studio 11.0\vc\include\xmemory0
;	COMDAT ?max_size@?$_Wrap_alloc@V?$allocator@D@std@@@std@@QBEIXZ
_TEXT	SEGMENT
_this$ = -4						; size = 4
?max_size@?$_Wrap_alloc@V?$allocator@D@std@@@std@@QBEIXZ PROC ; std::_Wrap_alloc<std::allocator<char> >::max_size, COMDAT
; _this$ = ecx

; 913  : 		{	// get maximum size

	push	ebp
	mov	ebp, esp
	push	ecx
	mov	DWORD PTR _this$[ebp], ecx

; 914  : 		return (_Mytraits::max_size(*this));

	mov	eax, DWORD PTR _this$[ebp]
	push	eax
	call	?max_size@?$allocator_traits@V?$allocator@D@std@@@std@@SAIABV?$allocator@D@2@@Z ; std::allocator_traits<std::allocator<char> >::max_size
	add	esp, 4

; 915  : 		}

	mov	esp, ebp
	pop	ebp
	ret	0
?max_size@?$_Wrap_alloc@V?$allocator@D@std@@@std@@QBEIXZ ENDP ; std::_Wrap_alloc<std::allocator<char> >::max_size
_TEXT	ENDS
; Function compile flags: /Odtp
; File c:\program files (x86)\microsoft visual studio 11.0\vc\include\xmemory0
;	COMDAT ?deallocate@?$_Wrap_alloc@V?$allocator@D@std@@@std@@QAEXPADI@Z
_TEXT	SEGMENT
_this$ = -4						; size = 4
__Ptr$ = 8						; size = 4
__Count$ = 12						; size = 4
?deallocate@?$_Wrap_alloc@V?$allocator@D@std@@@std@@QAEXPADI@Z PROC ; std::_Wrap_alloc<std::allocator<char> >::deallocate, COMDAT
; _this$ = ecx

; 886  : 		{	// deallocate object at _Ptr, ignore size

	push	ebp
	mov	ebp, esp
	push	ecx
	mov	DWORD PTR _this$[ebp], ecx

; 887  : 		_Mybase::deallocate(_Ptr, _Count);

	mov	eax, DWORD PTR __Count$[ebp]
	push	eax
	mov	ecx, DWORD PTR __Ptr$[ebp]
	push	ecx
	mov	ecx, DWORD PTR _this$[ebp]
	call	?deallocate@?$allocator@D@std@@QAEXPADI@Z ; std::allocator<char>::deallocate

; 888  : 		}

	mov	esp, ebp
	pop	ebp
	ret	8
?deallocate@?$_Wrap_alloc@V?$allocator@D@std@@@std@@QAEXPADI@Z ENDP ; std::_Wrap_alloc<std::allocator<char> >::deallocate
_TEXT	ENDS
; Function compile flags: /Odtp
; File c:\program files (x86)\microsoft visual studio 11.0\vc\include\xmemory0
;	COMDAT ?allocate@?$_Wrap_alloc@V?$allocator@D@std@@@std@@QAEPADI@Z
_TEXT	SEGMENT
_this$ = -4						; size = 4
__Count$ = 8						; size = 4
?allocate@?$_Wrap_alloc@V?$allocator@D@std@@@std@@QAEPADI@Z PROC ; std::_Wrap_alloc<std::allocator<char> >::allocate, COMDAT
; _this$ = ecx

; 875  : 		{	// allocate array of _Count elements

	push	ebp
	mov	ebp, esp
	push	ecx
	mov	DWORD PTR _this$[ebp], ecx

; 876  : 		return (_Mybase::allocate(_Count));

	mov	eax, DWORD PTR __Count$[ebp]
	push	eax
	mov	ecx, DWORD PTR _this$[ebp]
	call	?allocate@?$allocator@D@std@@QAEPADI@Z	; std::allocator<char>::allocate

; 877  : 		}

	mov	esp, ebp
	pop	ebp
	ret	4
?allocate@?$_Wrap_alloc@V?$allocator@D@std@@@std@@QAEPADI@Z ENDP ; std::_Wrap_alloc<std::allocator<char> >::allocate
_TEXT	ENDS
; Function compile flags: /Odtp
; File c:\program files (x86)\microsoft visual studio 11.0\vc\include\xmemory0
;	COMDAT ??0?$_Wrap_alloc@V?$allocator@D@std@@@std@@QAE@XZ
_TEXT	SEGMENT
_this$ = -4						; size = 4
??0?$_Wrap_alloc@V?$allocator@D@std@@@std@@QAE@XZ PROC	; std::_Wrap_alloc<std::allocator<char> >::_Wrap_alloc<std::allocator<char> >, COMDAT
; _this$ = ecx

; 830  : 		{	// construct default allocator (do nothing)

	push	ebp
	mov	ebp, esp
	push	ecx
	mov	DWORD PTR _this$[ebp], ecx
	mov	ecx, DWORD PTR _this$[ebp]
	call	??0?$allocator@D@std@@QAE@XZ		; std::allocator<char>::allocator<char>

; 831  : 		}

	mov	eax, DWORD PTR _this$[ebp]
	mov	esp, ebp
	pop	ebp
	ret	0
??0?$_Wrap_alloc@V?$allocator@D@std@@@std@@QAE@XZ ENDP	; std::_Wrap_alloc<std::allocator<char> >::_Wrap_alloc<std::allocator<char> >
_TEXT	ENDS
; Function compile flags: /Odtp
; File c:\program files (x86)\microsoft visual studio 11.0\vc\include\xmemory0
;	COMDAT ?max_size@?$allocator_traits@V?$allocator@D@std@@@std@@SAIABV?$allocator@D@2@@Z
_TEXT	SEGMENT
__Al$ = 8						; size = 4
?max_size@?$allocator_traits@V?$allocator@D@std@@@std@@SAIABV?$allocator@D@2@@Z PROC ; std::allocator_traits<std::allocator<char> >::max_size, COMDAT

; 761  : 		{	// get maximum size

	push	ebp
	mov	ebp, esp

; 762  : 		return (_Al.max_size());

	mov	ecx, DWORD PTR __Al$[ebp]
	call	?max_size@?$allocator@D@std@@QBEIXZ	; std::allocator<char>::max_size

; 763  : 		}

	pop	ebp
	ret	0
?max_size@?$allocator_traits@V?$allocator@D@std@@@std@@SAIABV?$allocator@D@2@@Z ENDP ; std::allocator_traits<std::allocator<char> >::max_size
_TEXT	ENDS
; Function compile flags: /Odtp
; File c:\program files (x86)\microsoft visual studio 11.0\vc\include\xmemory0
;	COMDAT ?max_size@?$allocator@D@std@@QBEIXZ
_TEXT	SEGMENT
_this$ = -4						; size = 4
?max_size@?$allocator@D@std@@QBEIXZ PROC		; std::allocator<char>::max_size, COMDAT
; _this$ = ecx

; 627  : 		{	// estimate maximum array size

	push	ebp
	mov	ebp, esp
	push	ecx
	mov	DWORD PTR _this$[ebp], ecx

; 628  : 		return ((size_t)(-1) / sizeof (_Ty));

	or	eax, -1

; 629  : 		}

	mov	esp, ebp
	pop	ebp
	ret	0
?max_size@?$allocator@D@std@@QBEIXZ ENDP		; std::allocator<char>::max_size
_TEXT	ENDS
; Function compile flags: /Odtp
; File c:\program files (x86)\microsoft visual studio 11.0\vc\include\xmemory0
;	COMDAT ?allocate@?$allocator@D@std@@QAEPADI@Z
_TEXT	SEGMENT
_this$ = -4						; size = 4
__Count$ = 8						; size = 4
?allocate@?$allocator@D@std@@QAEPADI@Z PROC		; std::allocator<char>::allocate, COMDAT
; _this$ = ecx

; 590  : 		{	// allocate array of _Count elements

	push	ebp
	mov	ebp, esp
	push	ecx
	mov	DWORD PTR _this$[ebp], ecx

; 591  : 		return (_Allocate(_Count, (pointer)0));

	push	0
	mov	eax, DWORD PTR __Count$[ebp]
	push	eax
	call	??$_Allocate@D@std@@YAPADIPAD@Z		; std::_Allocate<char>
	add	esp, 8

; 592  : 		}

	mov	esp, ebp
	pop	ebp
	ret	4
?allocate@?$allocator@D@std@@QAEPADI@Z ENDP		; std::allocator<char>::allocate
_TEXT	ENDS
; Function compile flags: /Odtp
; File c:\program files (x86)\microsoft visual studio 11.0\vc\include\xmemory0
;	COMDAT ?deallocate@?$allocator@D@std@@QAEXPADI@Z
_TEXT	SEGMENT
_this$ = -4						; size = 4
__Ptr$ = 8						; size = 4
___formal$ = 12						; size = 4
?deallocate@?$allocator@D@std@@QAEXPADI@Z PROC		; std::allocator<char>::deallocate, COMDAT
; _this$ = ecx

; 585  : 		{	// deallocate object at _Ptr, ignore size

	push	ebp
	mov	ebp, esp
	push	ecx
	mov	DWORD PTR _this$[ebp], ecx

; 586  : 		::operator delete(_Ptr);

	mov	eax, DWORD PTR __Ptr$[ebp]
	push	eax
	call	??3@YAXPAX@Z				; operator delete
	add	esp, 4

; 587  : 		}

	mov	esp, ebp
	pop	ebp
	ret	8
?deallocate@?$allocator@D@std@@QAEXPADI@Z ENDP		; std::allocator<char>::deallocate
_TEXT	ENDS
; Function compile flags: /Odtp
; File c:\program files (x86)\microsoft visual studio 11.0\vc\include\xmemory0
;	COMDAT ??0?$allocator@D@std@@QAE@XZ
_TEXT	SEGMENT
_this$ = -4						; size = 4
??0?$allocator@D@std@@QAE@XZ PROC			; std::allocator<char>::allocator<char>, COMDAT
; _this$ = ecx

; 565  : 	allocator() _THROW0()

	push	ebp
	mov	ebp, esp
	push	ecx
	mov	DWORD PTR _this$[ebp], ecx

; 566  : 		{	// construct default allocator (do nothing)
; 567  : 		}

	mov	eax, DWORD PTR _this$[ebp]
	mov	esp, ebp
	pop	ebp
	ret	0
??0?$allocator@D@std@@QAE@XZ ENDP			; std::allocator<char>::allocator<char>
_TEXT	ENDS
; Function compile flags: /Odtp
; File c:\program files (x86)\microsoft visual studio 11.0\vc\include\xutility
;	COMDAT ??__Eallocator_arg@std@@YAXXZ
text$yc	SEGMENT
$T1 = -1						; size = 1
??__Eallocator_arg@std@@YAXXZ PROC			; std::`dynamic initializer for 'allocator_arg'', COMDAT

; 3644 : const allocator_arg_t allocator_arg = allocator_arg_t();

	push	ebp
	mov	ebp, esp
	push	ecx
	xor	eax, eax
	mov	BYTE PTR $T1[ebp], al
	mov	esp, ebp
	pop	ebp
	ret	0
??__Eallocator_arg@std@@YAXXZ ENDP			; std::`dynamic initializer for 'allocator_arg''
text$yc	ENDS
; Function compile flags: /Odtp
; File c:\program files (x86)\microsoft visual studio 11.0\vc\include\utility
;	COMDAT ??__Epiecewise_construct@std@@YAXXZ
text$yc	SEGMENT
$T1 = -1						; size = 1
??__Epiecewise_construct@std@@YAXXZ PROC		; std::`dynamic initializer for 'piecewise_construct'', COMDAT

; 65   : 	piecewise_construct_t();

	push	ebp
	mov	ebp, esp
	push	ecx
	xor	eax, eax
	mov	BYTE PTR $T1[ebp], al
	mov	esp, ebp
	pop	ebp
	ret	0
??__Epiecewise_construct@std@@YAXXZ ENDP		; std::`dynamic initializer for 'piecewise_construct''
text$yc	ENDS
; Function compile flags: /Odtp
; File c:\program files (x86)\microsoft visual studio 11.0\vc\include\iosfwd
;	COMDAT ?assign@?$char_traits@D@std@@SAXAADABD@Z
_TEXT	SEGMENT
__Left$ = 8						; size = 4
__Right$ = 12						; size = 4
?assign@?$char_traits@D@std@@SAXAADABD@Z PROC		; std::char_traits<char>::assign, COMDAT

; 563  : 		{	// assign an element

	push	ebp
	mov	ebp, esp

; 564  : 		_Left = _Right;

	mov	eax, DWORD PTR __Left$[ebp]
	mov	ecx, DWORD PTR __Right$[ebp]
	mov	dl, BYTE PTR [ecx]
	mov	BYTE PTR [eax], dl

; 565  : 		}

	pop	ebp
	ret	0
?assign@?$char_traits@D@std@@SAXAADABD@Z ENDP		; std::char_traits<char>::assign
_TEXT	ENDS
; Function compile flags: /Odtp
; File c:\program files (x86)\microsoft visual studio 11.0\vc\include\iosfwd
;	COMDAT ?move@?$char_traits@D@std@@SAPADPADPBDI@Z
_TEXT	SEGMENT
tv69 = -4						; size = 4
__First1$ = 8						; size = 4
__First2$ = 12						; size = 4
__Count$ = 16						; size = 4
?move@?$char_traits@D@std@@SAPADPADPBDI@Z PROC		; std::char_traits<char>::move, COMDAT

; 551  : 		{	// copy [_First2, _First2 + _Count) to [_First1, ...)

	push	ebp
	mov	ebp, esp
	push	ecx

; 552  : 		return (_Count == 0 ? _First1
; 553  : 			: (_Elem *)_CSTD memmove(_First1, _First2, _Count));

	cmp	DWORD PTR __Count$[ebp], 0
	jne	SHORT $LN3@move
	mov	eax, DWORD PTR __First1$[ebp]
	mov	DWORD PTR tv69[ebp], eax
	jmp	SHORT $LN4@move
$LN3@move:
	mov	ecx, DWORD PTR __Count$[ebp]
	push	ecx
	mov	edx, DWORD PTR __First2$[ebp]
	push	edx
	mov	eax, DWORD PTR __First1$[ebp]
	push	eax
	call	_memmove
	add	esp, 12					; 0000000cH
	mov	DWORD PTR tv69[ebp], eax
$LN4@move:
	mov	eax, DWORD PTR tv69[ebp]

; 554  : 		}

	mov	esp, ebp
	pop	ebp
	ret	0
?move@?$char_traits@D@std@@SAPADPADPBDI@Z ENDP		; std::char_traits<char>::move
_TEXT	ENDS
; Function compile flags: /Odtp
; File c:\program files (x86)\microsoft visual studio 11.0\vc\include\iosfwd
;	COMDAT ?copy@?$char_traits@D@std@@SAPADPADPBDI@Z
_TEXT	SEGMENT
tv69 = -4						; size = 4
__First1$ = 8						; size = 4
__First2$ = 12						; size = 4
__Count$ = 16						; size = 4
?copy@?$char_traits@D@std@@SAPADPADPBDI@Z PROC		; std::char_traits<char>::copy, COMDAT

; 528  : 		{	// copy [_First2, _First2 + _Count) to [_First1, ...)

	push	ebp
	mov	ebp, esp
	push	ecx

; 529  : 		return (_Count == 0 ? _First1
; 530  : 			: (_Elem *)_CSTD memcpy(_First1, _First2, _Count));

	cmp	DWORD PTR __Count$[ebp], 0
	jne	SHORT $LN3@copy
	mov	eax, DWORD PTR __First1$[ebp]
	mov	DWORD PTR tv69[ebp], eax
	jmp	SHORT $LN4@copy
$LN3@copy:
	mov	ecx, DWORD PTR __Count$[ebp]
	push	ecx
	mov	edx, DWORD PTR __First2$[ebp]
	push	edx
	mov	eax, DWORD PTR __First1$[ebp]
	push	eax
	call	_memcpy
	add	esp, 12					; 0000000cH
	mov	DWORD PTR tv69[ebp], eax
$LN4@copy:
	mov	eax, DWORD PTR tv69[ebp]

; 531  : 		}

	mov	esp, ebp
	pop	ebp
	ret	0
?copy@?$char_traits@D@std@@SAPADPADPBDI@Z ENDP		; std::char_traits<char>::copy
_TEXT	ENDS
; Function compile flags: /Odtp
; File c:\program files (x86)\microsoft visual studio 11.0\vc\include\iosfwd
;	COMDAT ?length@?$char_traits@D@std@@SAIPBD@Z
_TEXT	SEGMENT
tv68 = -4						; size = 4
__First$ = 8						; size = 4
?length@?$char_traits@D@std@@SAIPBD@Z PROC		; std::char_traits<char>::length, COMDAT

; 521  : 		{	// find length of null-terminated string

	push	ebp
	mov	ebp, esp
	push	ecx

; 522  : 		return (*_First == 0 ? 0
; 523  : 			: _CSTD strlen(_First));

	mov	eax, DWORD PTR __First$[ebp]
	movsx	ecx, BYTE PTR [eax]
	test	ecx, ecx
	jne	SHORT $LN3@length
	mov	DWORD PTR tv68[ebp], 0
	jmp	SHORT $LN4@length
$LN3@length:
	mov	edx, DWORD PTR __First$[ebp]
	push	edx
	call	_strlen
	add	esp, 4
	mov	DWORD PTR tv68[ebp], eax
$LN4@length:
	mov	eax, DWORD PTR tv68[ebp]

; 524  : 		}

	mov	esp, ebp
	pop	ebp
	ret	0
?length@?$char_traits@D@std@@SAIPBD@Z ENDP		; std::char_traits<char>::length
_TEXT	ENDS
; Function compile flags: /Odtp
; File c:\program files (x86)\microsoft visual studio 11.0\vc\include\new
;	COMDAT ??3@YAXPAX0@Z
_TEXT	SEGMENT
___formal$ = 8						; size = 4
___formal$ = 12						; size = 4
??3@YAXPAX0@Z PROC					; operator delete, COMDAT

; 64   : 	{	// delete if placement new fails

	push	ebp
	mov	ebp, esp

; 65   : 	}

	pop	ebp
	ret	0
??3@YAXPAX0@Z ENDP					; operator delete
_TEXT	ENDS
; Function compile flags: /Odtp
; File c:\program files (x86)\microsoft visual studio 11.0\vc\include\new
;	COMDAT ??2@YAPAXIPAX@Z
_TEXT	SEGMENT
___formal$ = 8						; size = 4
__Where$ = 12						; size = 4
??2@YAPAXIPAX@Z PROC					; operator new, COMDAT

; 59   : 	{	// construct array with placement at _Where

	push	ebp
	mov	ebp, esp

; 60   : 	return (_Where);

	mov	eax, DWORD PTR __Where$[ebp]

; 61   : 	}

	pop	ebp
	ret	0
??2@YAPAXIPAX@Z ENDP					; operator new
_TEXT	ENDS
; Function compile flags: /Odtp
; File c:\program files (x86)\microsoft visual studio 11.0\vc\include\tchar.h
;	COMDAT __tcsclen
_TEXT	SEGMENT
__String$ = 8						; size = 4
__tcsclen PROC						; COMDAT

; 1748 : {

	push	ebp
	mov	ebp, esp

; 1749 :     return _mbslen((const unsigned char *)_String);

	mov	eax, DWORD PTR __String$[ebp]
	push	eax
	call	__mbslen
	add	esp, 4

; 1750 : }

	pop	ebp
	ret	0
__tcsclen ENDP
_TEXT	ENDS
END
