; Listing generated by Microsoft (R) Optimizing Compiler Version 17.00.51106.1 

	TITLE	C:\Users\Zhitao Li\Documents\Visual Studio 2012\Projects\Freefalcon\codelib\resources\reslib\src\resmgr.c
	.686P
	.XMM
	include listing.inc
	.model	flat

INCLUDELIB LIBCMT
INCLUDELIB OLDNAMES

PUBLIC	_RES_ERR_OR_MSGS
PUBLIC	??_C@_0BC@BAKIAKOF@Not?5enough?5memory?$AA@	; `string'
PUBLIC	??_C@_0BE@LKCLELBC@Incorrect?5parameter?$AA@	; `string'
PUBLIC	??_C@_0P@BEENDNPK@Path?5not?5found?$AA@		; `string'
PUBLIC	??_C@_0BN@DNMGFDAK@File?5sharing?5?$CInetwork?5error?$CJ?$AA@ ; `string'
PUBLIC	??_C@_0BP@DEOHHFOO@There?5is?5no?5matching?5cd?5number?$AA@ ; `string'
PUBLIC	??_C@_0BE@KMOBFGNI@File?5already?5closed?$AA@	; `string'
PUBLIC	??_C@_0P@DBCHBMCI@File?5not?5found?$AA@		; `string'
PUBLIC	??_C@_0BH@MIFJGKOA@Can?8t?5attrib?5directory?$AA@ ; `string'
PUBLIC	??_C@_0BC@HHNHIHPB@Can?8t?5attrib?5file?$AA@	; `string'
PUBLIC	??_C@_0BJ@PLCFHEH@Directory?5already?5exists?$AA@ ; `string'
PUBLIC	??_C@_0BA@CJBACOOL@Not?5a?5directory?$AA@	; `string'
PUBLIC	??_C@_0BB@IABAONNM@Could?5not?5delete?$AA@	; `string'
PUBLIC	??_C@_0BL@DIIOCEOH@Could?5not?5change?5directory?$AA@ ; `string'
PUBLIC	??_C@_0BI@PLCOOFMO@Must?5create?5search?5path?$AA@ ; `string'
PUBLIC	??_C@_0BH@NCOJHDNK@Could?5not?5spawn?5thread?$AA@ ; `string'
PUBLIC	??_C@_0BE@LONNMHBH@Could?5not?5open?5file?$AA@	; `string'
PUBLIC	??_C@_0BF@EOEHJNMJ@Problem?5reading?5file?$AA@	; `string'
PUBLIC	??_C@_0BF@LGIFEKAE@Problem?5writing?5file?$AA@	; `string'
PUBLIC	??_C@_0CF@JGABHBLI@System?5path?5has?5not?5been?5created@ ; `string'
PUBLIC	??_C@_0BL@HFOBOEIA@Cannot?5interpret?5file?1path?$AA@ ; `string'
PUBLIC	??_C@_0BA@LHLFIPNL@Unknown?5archive?$AA@	; `string'
PUBLIC	??_C@_0BE@INBJMKGG@Too?5many?5open?5files?$AA@	; `string'
PUBLIC	??_C@_0BE@JICGOOKO@Illegal?5file?5handle?$AA@	; `string'
PUBLIC	??_C@_0BD@JGOCCEAF@Cannot?5delete?5file?$AA@	; `string'
PUBLIC	??_C@_0BJ@CDJCFEPH@Cannot?5open?5archive?5file?$AA@ ; `string'
PUBLIC	??_C@_0BF@PBLFINPE@Corrupt?5archive?5file?$AA@	; `string'
PUBLIC	??_C@_0O@NIPGCINC@Unknown?5error?$AA@		; `string'
PUBLIC	??_C@_0CB@GJGCMPE@Directory?5already?5in?5search?5path@ ; `string'
PUBLIC	??_C@_0DB@EMOKBBOG@Destination?5directory?5not?5known?5@ ; `string'
PUBLIC	??_C@_0BL@EOMEJANG@Cannot?5write?5to?5an?5archive?$AA@ ; `string'
PUBLIC	??_C@_0BN@LNHOKABC@Unsupported?5compression?5type?$AA@ ; `string'
PUBLIC	??_C@_0BF@EPOHEPPD@Too?5many?5directories?$AA@	; `string'
PUBLIC	_RES_ERR_COUNT
PUBLIC	_RES_DEBUG_FLAG
PUBLIC	_RES_DEBUG_LOGGING
PUBLIC	_RES_DEBUG_OPEN_LOG
PUBLIC	_RES_DEBUG_FILE
PUBLIC	_GLOBAL_HASH_TABLE
PUBLIC	_FILE_HANDLES
PUBLIC	_RESMGR_INIT
PUBLIC	_GLOBAL_PATH_LIST
PUBLIC	_RES_DEVICES
PUBLIC	_GLOBAL_VOLUME_MASK
PUBLIC	_GLOBAL_SEARCH_INDEX
_BSS	SEGMENT
_RES_DEBUG_LOGGING DD 01H DUP (?)
_RES_DEBUG_OPEN_LOG DD 01H DUP (?)
_GLOCK	DD	01H DUP (?)
_GLOBAL_HASH_TABLE DD 01H DUP (?)
_FILE_HANDLES DD 01H DUP (?)
_BSS	ENDS
_DATA	SEGMENT
COMM	_RES_CALLBACK:DWORD:0aH
_DATA	ENDS
_BSS	SEGMENT
_ARCHIVE_LIST DD 01H DUP (?)
_OPEN_DIR_LIST DD 01H DUP (?)
_BSS	ENDS
_DATA	SEGMENT
COMM	_RES_PATH:DWORD:011H
COMM	_GLOBAL_SEARCH_PATH:DWORD:0faH
COMM	_GLOBAL_INIT_PATH:BYTE:0104H
COMM	_GLOBAL_CURRENT_PATH:BYTE:0104H
_DATA	ENDS
_BSS	SEGMENT
_RESMGR_INIT DD	01H DUP (?)
_GLOBAL_PATH_LIST DD 01H DUP (?)
_RES_DEVICES DD	01H DUP (?)
_BSS	ENDS
_DATA	SEGMENT
COMM	_GLOBAL_INIT_DRIVE:DWORD
COMM	_GLOBAL_CURRENT_DRIVE:DWORD
COMM	_GLOBAL_CURRENT_CD:DWORD
_DATA	ENDS
_BSS	SEGMENT
_GLOBAL_VOLUME_MASK DD 01H DUP (?)
_GLOBAL_SEARCH_INDEX DD 01H DUP (?)
_BSS	ENDS
_DATA	SEGMENT
COMM	_GLOBAL_CD_DEVICE:DWORD
COMM	_RES_DEBUG_ERRNO:DWORD
_DATA	ENDS
;	COMDAT ??_C@_0BF@EPOHEPPD@Too?5many?5directories?$AA@
CONST	SEGMENT
??_C@_0BF@EPOHEPPD@Too?5many?5directories?$AA@ DB 'Too many directories', 00H ; `string'
CONST	ENDS
;	COMDAT ??_C@_0BN@LNHOKABC@Unsupported?5compression?5type?$AA@
CONST	SEGMENT
??_C@_0BN@LNHOKABC@Unsupported?5compression?5type?$AA@ DB 'Unsupported co'
	DB	'mpression type', 00H			; `string'
CONST	ENDS
;	COMDAT ??_C@_0BL@EOMEJANG@Cannot?5write?5to?5an?5archive?$AA@
CONST	SEGMENT
??_C@_0BL@EOMEJANG@Cannot?5write?5to?5an?5archive?$AA@ DB 'Cannot write t'
	DB	'o an archive', 00H				; `string'
CONST	ENDS
;	COMDAT ??_C@_0DB@EMOKBBOG@Destination?5directory?5not?5known?5@
CONST	SEGMENT
??_C@_0DB@EMOKBBOG@Destination?5directory?5not?5known?5@ DB 'Destination '
	DB	'directory not known (must add first)', 00H	; `string'
CONST	ENDS
;	COMDAT ??_C@_0CB@GJGCMPE@Directory?5already?5in?5search?5path@
CONST	SEGMENT
??_C@_0CB@GJGCMPE@Directory?5already?5in?5search?5path@ DB 'Directory alr'
	DB	'eady in search path', 00H			; `string'
CONST	ENDS
;	COMDAT ??_C@_0O@NIPGCINC@Unknown?5error?$AA@
CONST	SEGMENT
??_C@_0O@NIPGCINC@Unknown?5error?$AA@ DB 'Unknown error', 00H ; `string'
CONST	ENDS
;	COMDAT ??_C@_0BF@PBLFINPE@Corrupt?5archive?5file?$AA@
CONST	SEGMENT
??_C@_0BF@PBLFINPE@Corrupt?5archive?5file?$AA@ DB 'Corrupt archive file', 00H ; `string'
CONST	ENDS
;	COMDAT ??_C@_0BJ@CDJCFEPH@Cannot?5open?5archive?5file?$AA@
CONST	SEGMENT
??_C@_0BJ@CDJCFEPH@Cannot?5open?5archive?5file?$AA@ DB 'Cannot open archi'
	DB	've file', 00H				; `string'
CONST	ENDS
;	COMDAT ??_C@_0BD@JGOCCEAF@Cannot?5delete?5file?$AA@
CONST	SEGMENT
??_C@_0BD@JGOCCEAF@Cannot?5delete?5file?$AA@ DB 'Cannot delete file', 00H ; `string'
CONST	ENDS
;	COMDAT ??_C@_0BE@JICGOOKO@Illegal?5file?5handle?$AA@
CONST	SEGMENT
??_C@_0BE@JICGOOKO@Illegal?5file?5handle?$AA@ DB 'Illegal file handle', 00H ; `string'
CONST	ENDS
;	COMDAT ??_C@_0BE@INBJMKGG@Too?5many?5open?5files?$AA@
CONST	SEGMENT
??_C@_0BE@INBJMKGG@Too?5many?5open?5files?$AA@ DB 'Too many open files', 00H ; `string'
CONST	ENDS
;	COMDAT ??_C@_0BA@LHLFIPNL@Unknown?5archive?$AA@
CONST	SEGMENT
??_C@_0BA@LHLFIPNL@Unknown?5archive?$AA@ DB 'Unknown archive', 00H ; `string'
CONST	ENDS
;	COMDAT ??_C@_0BL@HFOBOEIA@Cannot?5interpret?5file?1path?$AA@
CONST	SEGMENT
??_C@_0BL@HFOBOEIA@Cannot?5interpret?5file?1path?$AA@ DB 'Cannot interpre'
	DB	't file/path', 00H				; `string'
CONST	ENDS
;	COMDAT ??_C@_0CF@JGABHBLI@System?5path?5has?5not?5been?5created@
CONST	SEGMENT
??_C@_0CF@JGABHBLI@System?5path?5has?5not?5been?5created@ DB 'System path'
	DB	' has not been created yet', 00H		; `string'
CONST	ENDS
;	COMDAT ??_C@_0BF@LGIFEKAE@Problem?5writing?5file?$AA@
CONST	SEGMENT
??_C@_0BF@LGIFEKAE@Problem?5writing?5file?$AA@ DB 'Problem writing file', 00H ; `string'
CONST	ENDS
;	COMDAT ??_C@_0BF@EOEHJNMJ@Problem?5reading?5file?$AA@
CONST	SEGMENT
??_C@_0BF@EOEHJNMJ@Problem?5reading?5file?$AA@ DB 'Problem reading file', 00H ; `string'
CONST	ENDS
;	COMDAT ??_C@_0BE@LONNMHBH@Could?5not?5open?5file?$AA@
CONST	SEGMENT
??_C@_0BE@LONNMHBH@Could?5not?5open?5file?$AA@ DB 'Could not open file', 00H ; `string'
CONST	ENDS
;	COMDAT ??_C@_0BH@NCOJHDNK@Could?5not?5spawn?5thread?$AA@
CONST	SEGMENT
??_C@_0BH@NCOJHDNK@Could?5not?5spawn?5thread?$AA@ DB 'Could not spawn thr'
	DB	'ead', 00H					; `string'
CONST	ENDS
;	COMDAT ??_C@_0BI@PLCOOFMO@Must?5create?5search?5path?$AA@
CONST	SEGMENT
??_C@_0BI@PLCOOFMO@Must?5create?5search?5path?$AA@ DB 'Must create search'
	DB	' path', 00H					; `string'
CONST	ENDS
;	COMDAT ??_C@_0BL@DIIOCEOH@Could?5not?5change?5directory?$AA@
CONST	SEGMENT
??_C@_0BL@DIIOCEOH@Could?5not?5change?5directory?$AA@ DB 'Could not chang'
	DB	'e directory', 00H				; `string'
CONST	ENDS
;	COMDAT ??_C@_0BB@IABAONNM@Could?5not?5delete?$AA@
CONST	SEGMENT
??_C@_0BB@IABAONNM@Could?5not?5delete?$AA@ DB 'Could not delete', 00H ; `string'
CONST	ENDS
;	COMDAT ??_C@_0BA@CJBACOOL@Not?5a?5directory?$AA@
CONST	SEGMENT
??_C@_0BA@CJBACOOL@Not?5a?5directory?$AA@ DB 'Not a directory', 00H ; `string'
CONST	ENDS
;	COMDAT ??_C@_0BJ@PLCFHEH@Directory?5already?5exists?$AA@
CONST	SEGMENT
??_C@_0BJ@PLCFHEH@Directory?5already?5exists?$AA@ DB 'Directory already e'
	DB	'xists', 00H					; `string'
CONST	ENDS
;	COMDAT ??_C@_0BC@HHNHIHPB@Can?8t?5attrib?5file?$AA@
CONST	SEGMENT
??_C@_0BC@HHNHIHPB@Can?8t?5attrib?5file?$AA@ DB 'Can''t attrib file', 00H ; `string'
CONST	ENDS
;	COMDAT ??_C@_0BH@MIFJGKOA@Can?8t?5attrib?5directory?$AA@
CONST	SEGMENT
??_C@_0BH@MIFJGKOA@Can?8t?5attrib?5directory?$AA@ DB 'Can''t attrib direc'
	DB	'tory', 00H					; `string'
CONST	ENDS
;	COMDAT ??_C@_0P@DBCHBMCI@File?5not?5found?$AA@
CONST	SEGMENT
??_C@_0P@DBCHBMCI@File?5not?5found?$AA@ DB 'File not found', 00H ; `string'
CONST	ENDS
;	COMDAT ??_C@_0BE@KMOBFGNI@File?5already?5closed?$AA@
CONST	SEGMENT
??_C@_0BE@KMOBFGNI@File?5already?5closed?$AA@ DB 'File already closed', 00H ; `string'
CONST	ENDS
;	COMDAT ??_C@_0BP@DEOHHFOO@There?5is?5no?5matching?5cd?5number?$AA@
CONST	SEGMENT
??_C@_0BP@DEOHHFOO@There?5is?5no?5matching?5cd?5number?$AA@ DB 'There is '
	DB	'no matching cd number', 00H			; `string'
CONST	ENDS
;	COMDAT ??_C@_0BN@DNMGFDAK@File?5sharing?5?$CInetwork?5error?$CJ?$AA@
CONST	SEGMENT
??_C@_0BN@DNMGFDAK@File?5sharing?5?$CInetwork?5error?$CJ?$AA@ DB 'File sh'
	DB	'aring (network error)', 00H			; `string'
CONST	ENDS
;	COMDAT ??_C@_0P@BEENDNPK@Path?5not?5found?$AA@
CONST	SEGMENT
??_C@_0P@BEENDNPK@Path?5not?5found?$AA@ DB 'Path not found', 00H ; `string'
CONST	ENDS
;	COMDAT ??_C@_0BE@LKCLELBC@Incorrect?5parameter?$AA@
CONST	SEGMENT
??_C@_0BE@LKCLELBC@Incorrect?5parameter?$AA@ DB 'Incorrect parameter', 00H ; `string'
CONST	ENDS
;	COMDAT ??_C@_0BC@BAKIAKOF@Not?5enough?5memory?$AA@
CONST	SEGMENT
??_C@_0BC@BAKIAKOF@Not?5enough?5memory?$AA@ DB 'Not enough memory', 00H ; `string'
CONST	ENDS
_DATA	SEGMENT
_RES_ERR_OR_MSGS DD FLAT:??_C@_0BC@BAKIAKOF@Not?5enough?5memory?$AA@
	DD	FLAT:??_C@_0BE@LKCLELBC@Incorrect?5parameter?$AA@
	DD	FLAT:??_C@_0P@BEENDNPK@Path?5not?5found?$AA@
	DD	FLAT:??_C@_0BN@DNMGFDAK@File?5sharing?5?$CInetwork?5error?$CJ?$AA@
	DD	FLAT:??_C@_0BP@DEOHHFOO@There?5is?5no?5matching?5cd?5number?$AA@
	DD	FLAT:??_C@_0BE@KMOBFGNI@File?5already?5closed?$AA@
	DD	FLAT:??_C@_0P@DBCHBMCI@File?5not?5found?$AA@
	DD	FLAT:??_C@_0BH@MIFJGKOA@Can?8t?5attrib?5directory?$AA@
	DD	FLAT:??_C@_0BC@HHNHIHPB@Can?8t?5attrib?5file?$AA@
	DD	FLAT:??_C@_0BJ@PLCFHEH@Directory?5already?5exists?$AA@
	DD	FLAT:??_C@_0BA@CJBACOOL@Not?5a?5directory?$AA@
	DD	FLAT:??_C@_0BB@IABAONNM@Could?5not?5delete?$AA@
	DD	FLAT:??_C@_0BL@DIIOCEOH@Could?5not?5change?5directory?$AA@
	DD	FLAT:??_C@_0BI@PLCOOFMO@Must?5create?5search?5path?$AA@
	DD	FLAT:??_C@_0BH@NCOJHDNK@Could?5not?5spawn?5thread?$AA@
	DD	FLAT:??_C@_0BE@LONNMHBH@Could?5not?5open?5file?$AA@
	DD	FLAT:??_C@_0BF@EOEHJNMJ@Problem?5reading?5file?$AA@
	DD	FLAT:??_C@_0BF@LGIFEKAE@Problem?5writing?5file?$AA@
	DD	FLAT:??_C@_0CF@JGABHBLI@System?5path?5has?5not?5been?5created@
	DD	FLAT:??_C@_0BL@HFOBOEIA@Cannot?5interpret?5file?1path?$AA@
	DD	FLAT:??_C@_0BA@LHLFIPNL@Unknown?5archive?$AA@
	DD	FLAT:??_C@_0BE@INBJMKGG@Too?5many?5open?5files?$AA@
	DD	FLAT:??_C@_0BE@JICGOOKO@Illegal?5file?5handle?$AA@
	DD	FLAT:??_C@_0BD@JGOCCEAF@Cannot?5delete?5file?$AA@
	DD	FLAT:??_C@_0BJ@CDJCFEPH@Cannot?5open?5archive?5file?$AA@
	DD	FLAT:??_C@_0BF@PBLFINPE@Corrupt?5archive?5file?$AA@
	DD	FLAT:??_C@_0O@NIPGCINC@Unknown?5error?$AA@
	DD	FLAT:??_C@_0CB@GJGCMPE@Directory?5already?5in?5search?5path@
	DD	FLAT:??_C@_0DB@EMOKBBOG@Destination?5directory?5not?5known?5@
	DD	FLAT:??_C@_0BL@EOMEJANG@Cannot?5write?5to?5an?5archive?$AA@
	DD	FLAT:??_C@_0BN@LNHOKABC@Unsupported?5compression?5type?$AA@
	DD	FLAT:??_C@_0BF@EPOHEPPD@Too?5many?5directories?$AA@
_RES_ERR_COUNT DD 020H
_RES_DEBUG_FLAG DD 01H
_RES_DEBUG_FILE DD 0ffffffffH
_resmgr_version DB '[Version] ResMgr version 2.0', 00H
_DATA	ENDS
PUBLIC	__filbuf
PUBLIC	_ResInit
PUBLIC	_ResExit
PUBLIC	_ResMountCD
PUBLIC	_ResDismountCD
PUBLIC	_ResCheckMedia
PUBLIC	_ResDevice
PUBLIC	_ResPurge
PUBLIC	_ResAttach
PUBLIC	_ResDetach
PUBLIC	_ResOpenFile
PUBLIC	_ResSizeFile
PUBLIC	_ResReadFile
PUBLIC	_ResLoadFile
PUBLIC	_ResUnloadFile
PUBLIC	_ResCloseFile
PUBLIC	_ResWriteFile
PUBLIC	_ResDeleteFile
PUBLIC	_ResModifyFile
PUBLIC	_ResTellFile
PUBLIC	_ResSeekFile
PUBLIC	_ResStatusFile
PUBLIC	_ResExtractFile
PUBLIC	_ResFOpen
PUBLIC	_ResFClose
PUBLIC	_ResFTell
PUBLIC	_ResFRead
PUBLIC	_ResFSeek
PUBLIC	_ResMakeDirectory
PUBLIC	_ResDeleteDirectory
PUBLIC	_ResOpenDirectory
PUBLIC	_ResReadDirectory
PUBLIC	_ResCloseDirectory
PUBLIC	_ResExistFile
PUBLIC	_ResExistDirectory
PUBLIC	_ResSetDirectory
PUBLIC	_ResGetDirectory
PUBLIC	_ResCountDirectory
PUBLIC	_ResWhereIs
PUBLIC	_ResWhichCD
PUBLIC	_ResWriteTOC
PUBLIC	_ResSetCallback
PUBLIC	_ResGetCallback
PUBLIC	_ResAssignPath
PUBLIC	_ResBuildPathname
PUBLIC	_ResGetPath
PUBLIC	_ResCreatePath
PUBLIC	_ResAddPath
PUBLIC	_ResGetArchive
PUBLIC	_ResAsynchRead
PUBLIC	_ResAsynchWrite
PUBLIC	_ResDbg
PUBLIC	_ResDbgLogOpen
PUBLIC	_ResDbgLogClose
PUBLIC	_ResDbgPrintf
PUBLIC	_ResDbgLogPause
PUBLIC	_ResDbgDump
PUBLIC	_dbg_analyze_hash
PUBLIC	_dbg_print
PUBLIC	_dbg_dir
PUBLIC	_dbg_device
PUBLIC	__say_error
PUBLIC	_asynch_write
PUBLIC	_asynch_read
PUBLIC	_hash
PUBLIC	_hash_resize
PUBLIC	_hash_delete
PUBLIC	_hash_destroy
PUBLIC	_hash_purge
PUBLIC	_hash_create
PUBLIC	_hash_find
PUBLIC	_hash_add
PUBLIC	_hash_find_table
PUBLIC	_hash_strcpy
PUBLIC	_get_handle
PUBLIC	_split_path
PUBLIC	_shut_down
PUBLIC	_res_fullpath
PUBLIC	_res_detach_ex
PUBLIC	_sort_path
PUBLIC	_get_dir_index
PUBLIC	_hash_copy
PUBLIC	??_C@_03GIOIKFCO@C?3?2?$AA@			; `string'
PUBLIC	??_C@_0N@OMEJCDNJ@src?2resmgr?4c?$AA@		; `string'
PUBLIC	??_C@_07FLKJDOFF@ResInit?$AA@			; `string'
PUBLIC	??_C@_07CIFAGBMG@unknown?$AA@			; `string'
PUBLIC	??_C@_0M@CPHMKFFF@multithread?$AA@		; `string'
PUBLIC	??_C@_0BN@IAPPECNM@ResCheckMedia?5?$CIuse?5ordinals?$CJ?$AA@ ; `string'
PUBLIC	??_C@_09IPANOAMB@ResAttach?$AA@			; `string'
PUBLIC	??_C@_09BPGFBLJK@ResDevice?$AA@			; `string'
PUBLIC	??_C@_09BFLPBOFI@ResDetach?$AA@			; `string'
PUBLIC	??_C@_0M@OGEGBBAK@ResOpenFile?$AA@		; `string'
PUBLIC	??_C@_0BB@EDJDNCBI@ResOpen?5?9?5create?$AA@	; `string'
PUBLIC	??_C@_04HDOCAJNK@?$CFs?$CFs?$AA@		; `string'
PUBLIC	??_C@_01CLKCMJKC@?5?$AA@			; `string'
PUBLIC	??_C@_07DNABHHOL@Inflate?$AA@			; `string'
PUBLIC	??_C@_0M@DEBHJGIL@ResSizeFile?$AA@		; `string'
PUBLIC	??_C@_0M@NKEGIMBG@ResReadFile?$AA@		; `string'
PUBLIC	??_C@_0M@CPIEAJDN@ResLoadFile?$AA@		; `string'
PUBLIC	??_C@_0O@KLAMIEJI@ResUnloadFile?$AA@		; `string'
PUBLIC	??_C@_0N@MFBOIEDA@ResCloseFile?$AA@		; `string'
PUBLIC	??_C@_08OOOIBLGC@set?5size?$AA@			; `string'
PUBLIC	??_C@_0N@IMJBALEI@ResWriteFile?$AA@		; `string'
PUBLIC	??_C@_0O@FDOOBIGA@ResDeleteFile?$AA@		; `string'
PUBLIC	??_C@_0O@FHKDEOHM@ResModifyFile?$AA@		; `string'
PUBLIC	??_C@_0BB@LJPCDDOA@ResMakeDirectory?$AA@	; `string'
PUBLIC	??_C@_06BNHEIDIH@?$CFs?2?$CK?4?$CK?$AA@		; `string'
PUBLIC	??_C@_01LFCBOECM@?4?$AA@			; `string'
PUBLIC	??_C@_02DJGKEECL@?4?4?$AA@			; `string'
PUBLIC	??_C@_05BMGBEOOC@?$CFs?2?$CFs?$AA@		; `string'
PUBLIC	??_C@_0BB@PLBNNMEI@ResOpenDirectory?$AA@	; `string'
PUBLIC	??_C@_0BB@GCNEOGEN@ResReadDirectory?$AA@	; `string'
PUBLIC	??_C@_0BC@EGBEGFJA@ResCloseDirectory?$AA@	; `string'
PUBLIC	??_C@_0N@DHMJDPLD@ResExistFile?$AA@		; `string'
PUBLIC	??_C@_0BC@NEGNMGMD@ResExistDirectory?$AA@	; `string'
PUBLIC	??_C@_0M@CENIBGDB@ResTellFile?$AA@		; `string'
PUBLIC	??_C@_0M@MICEAOJD@ResSeekFile?$AA@		; `string'
PUBLIC	??_C@_0BA@OJNFJCCI@ResSetDirectory?$AA@		; `string'
PUBLIC	??_C@_0BA@JNGLFOGE@ResGetDirectory?$AA@		; `string'
PUBLIC	??_C@_0O@COOJBPCO@ResStatusFile?$AA@		; `string'
PUBLIC	??_C@_0P@PADJMKNI@ResSetCallback?$AA@		; `string'
PUBLIC	??_C@_0P@PPCHBMFL@ResGetCallback?$AA@		; `string'
PUBLIC	??_C@_06JGBJPOPP@Global?$AA@			; `string'
PUBLIC	??_C@_0L@GLEIDJF@ResAddPath?$AA@		; `string'
PUBLIC	??_C@_0CF@CKADNGLC@You?5must?5first?5call?5ResCreatePat@ ; `string'
PUBLIC	??_C@_04BDGLLBHF@?2?$CFs?2?$AA@			; `string'
PUBLIC	??_C@_0BB@KDLJIOGI@ResBuildPathname?$AA@	; `string'
PUBLIC	??_C@_0BC@EJOCHHKO@ResCountDirectory?$AA@	; `string'
PUBLIC	??_C@_0O@JNKBGNLK@ResAssignPath?$AA@		; `string'
PUBLIC	??_C@_0M@CHANDFDP@Assign?5path?$AA@		; `string'
PUBLIC	??_C@_0O@GDKGMDJD@ResAsynchRead?$AA@		; `string'
PUBLIC	??_C@_0P@CKHAKKGB@ResAsynchWrite?$AA@		; `string'
PUBLIC	??_C@_0L@GFEJONIC@ResExtract?$AA@		; `string'
PUBLIC	??_C@_08KJEBKLNA@ResPurge?$AA@			; `string'
PUBLIC	??_C@_08NNCGCPFP@ResFOpen?$AA@			; `string'
PUBLIC	??_C@_0BC@CPGLDEPP@ResFOpen?5?9?5create?$AA@	; `string'
PUBLIC	??_C@_09EKBCJPBH@ResFClose?$AA@			; `string'
PUBLIC	??_C@_05BILPOFMK@ftell?$AA@			; `string'
PUBLIC	??_C@_07HNDGCFOP@_filbuf?$AA@			; `string'
PUBLIC	??_C@_0BH@IMBIDIIM@_filbuf?5internal?5error?$AA@ ; `string'
PUBLIC	??_C@_05OKAPJEJC@fseek?$AA@			; `string'
PUBLIC	??_C@_0M@CIGDFLFE@hash_create?$AA@		; `string'
PUBLIC	??_C@_08KMLNCKGK@hash_add?$AA@			; `string'
PUBLIC	??_C@_0M@NHJDJJMK@hash_resize?$AA@		; `string'
PUBLIC	??_C@_0BI@KKHIDFIG@Resource?5Manager?5Error?$CB?$AA@ ; `string'
PUBLIC	??_C@_03BBKEAIF@?$DP?$DP?$DP?$AA@		; `string'
PUBLIC	??_C@_0CP@MDMMLIAJ@Tried?5to?5open?5read?9only?5file?5?$CI?$CFs@ ; `string'
PUBLIC	??_C@_0DJ@PDPAPLDJ@Create?5flag?5specified?0?5but?5filen@ ; `string'
PUBLIC	??_C@_0BO@EMKGDOO@File?5or?5path?5not?5found?4?5?$CI?$CFs?$CJ?4?$AA@ ; `string'
PUBLIC	??_C@_0BM@HGBGFIMO@?$CFs?5?$CI?$CFs?$CJ?6?6?6File?3?5?$CFs?6Line?3?5?$CFd?$AA@ ; `string'
PUBLIC	??_C@_0DP@KAFHBHNB@Unknown?5error?5encountered?5with?5f@ ; `string'
PUBLIC	??_C@_05ENKMGHII@?$CF?917s?$AA@			; `string'
PUBLIC	??_C@_0L@DMPNKCFM@size?3?5?$CF5d?5?$AA@		; `string'
PUBLIC	??_C@_0M@HDGDGLCH@csize?3?5?$CF5d?5?$AA@	; `string'
PUBLIC	??_C@_0N@MCEGBKEA@method?3?5?$CF1d?5?$AA@	; `string'
PUBLIC	??_C@_01DGKLNCNG@R?$AA@				; `string'
PUBLIC	??_C@_01IGIGCIAN@H?$AA@				; `string'
PUBLIC	??_C@_01CPLAODJH@S?$AA@				; `string'
PUBLIC	??_C@_01FHEEJDEE@A?$AA@				; `string'
PUBLIC	??_C@_07GCALBCF@?7?7?$DMDIR?$DO?$AA@		; `string'
PUBLIC	??_C@_07NLJMJJCA@?7?7?5?5?5?5?5?$AA@		; `string'
PUBLIC	??_C@_01EEMJAFIK@?6?$AA@			; `string'
PUBLIC	??_C@_03MINKAKBA@c?3?2?$AA@			; `string'
PUBLIC	__real@3f59999a
PUBLIC	__real@3f933333
PUBLIC	__real@3fe999999999999a
PUBLIC	__real@3feb333333333333
PUBLIC	__real@3ff2666666666666
EXTRN	___report_rangecheckfailure:PROC
EXTRN	_toupper:PROC
EXTRN	_memcmp:PROC
EXTRN	_memcpy:PROC
EXTRN	_memset:PROC
EXTRN	_strcpy:PROC
EXTRN	_strcmp:PROC
EXTRN	_strlen:PROC
EXTRN	_strchr:PROC
EXTRN	_strncpy:PROC
EXTRN	_strstr:PROC
EXTRN	_strdup:PROC
EXTRN	_stricmp:PROC
EXTRN	_strnicmp:PROC
EXTRN	__imp__GetDriveTypeA@4:PROC
EXTRN	__imp__GetLogicalDrives@0:PROC
EXTRN	__imp__DebugBreak@0:PROC
EXTRN	__imp__CloseHandle@4:PROC
EXTRN	__imp__ReleaseMutex@4:PROC
EXTRN	__imp__WaitForSingleObject@8:PROC
EXTRN	__imp__CreateMutexA@12:PROC
EXTRN	__imp__GetTempPathA@8:PROC
EXTRN	__imp__GetVolumeInformationA@32:PROC
EXTRN	__imp__MessageBoxA@16:PROC
EXTRN	_ListAppend:PROC
EXTRN	_ListAppendEnd:PROC
EXTRN	_ListCatenate:PROC
EXTRN	_ListNth:PROC
EXTRN	_ListRemove:PROC
EXTRN	_ListDestroy:PROC
EXTRN	__errno:PROC
EXTRN	_free:PROC
EXTRN	_malloc:PROC
EXTRN	_realloc:PROC
EXTRN	__fileno:PROC
EXTRN	_printf:PROC
EXTRN	_remove:PROC
EXTRN	_sprintf:PROC
EXTRN	_vsprintf:PROC
EXTRN	__lock_file:PROC
EXTRN	__unlock_file:PROC
EXTRN	__close:PROC
EXTRN	__commit:PROC
EXTRN	__findclose:PROC
EXTRN	__lseek:PROC
EXTRN	__read:PROC
EXTRN	__write:PROC
EXTRN	__findfirst64i32:PROC
EXTRN	__findnext64i32:PROC
EXTRN	__open:PROC
EXTRN	_chmod:PROC
EXTRN	_lseek:PROC
EXTRN	__getcwd:PROC
EXTRN	__getdcwd:PROC
EXTRN	__chdir:PROC
EXTRN	__mkdir:PROC
EXTRN	__rmdir:PROC
EXTRN	__chdrive:PROC
EXTRN	__getdrive:PROC
EXTRN	__beginthread:PROC
EXTRN	_inflate:PROC
EXTRN	_inflate_free:PROC
EXTRN	__getstream:PROC
EXTRN	__openfile:PROC
EXTRN	__getbuf:PROC
EXTRN	__flush:PROC
EXTRN	_archive_create:PROC
EXTRN	_process_local_file_hdr:PROC
EXTRN	__freebuf:PROC
EXTRN	@__security_check_cookie@4:PROC
EXTRN	_memset:PROC
EXTRN	___security_cookie:DWORD
EXTRN	__fltused:DWORD
_BSS	SEGMENT
_RES_GLOBAL_HWND DD 01H DUP (?)
_BSS	ENDS
;	COMDAT __real@3ff2666666666666
CONST	SEGMENT
__real@3ff2666666666666 DQ 03ff2666666666666r	; 1.15
CONST	ENDS
;	COMDAT __real@3feb333333333333
CONST	SEGMENT
__real@3feb333333333333 DQ 03feb333333333333r	; 0.85
CONST	ENDS
;	COMDAT __real@3fe999999999999a
CONST	SEGMENT
__real@3fe999999999999a DQ 03fe999999999999ar	; 0.8
CONST	ENDS
;	COMDAT __real@3f933333
CONST	SEGMENT
__real@3f933333 DD 03f933333r			; 1.15
CONST	ENDS
;	COMDAT __real@3f59999a
CONST	SEGMENT
__real@3f59999a DD 03f59999ar			; 0.85
CONST	ENDS
;	COMDAT ??_C@_03MINKAKBA@c?3?2?$AA@
CONST	SEGMENT
??_C@_03MINKAKBA@c?3?2?$AA@ DB 'c:\', 00H		; `string'
CONST	ENDS
;	COMDAT ??_C@_01EEMJAFIK@?6?$AA@
CONST	SEGMENT
??_C@_01EEMJAFIK@?6?$AA@ DB 0aH, 00H			; `string'
CONST	ENDS
;	COMDAT ??_C@_07NLJMJJCA@?7?7?5?5?5?5?5?$AA@
CONST	SEGMENT
??_C@_07NLJMJJCA@?7?7?5?5?5?5?5?$AA@ DB 09H, 09H, '     ', 00H ; `string'
CONST	ENDS
;	COMDAT ??_C@_07GCALBCF@?7?7?$DMDIR?$DO?$AA@
CONST	SEGMENT
??_C@_07GCALBCF@?7?7?$DMDIR?$DO?$AA@ DB 09H, 09H, '<DIR>', 00H ; `string'
CONST	ENDS
;	COMDAT ??_C@_01FHEEJDEE@A?$AA@
CONST	SEGMENT
??_C@_01FHEEJDEE@A?$AA@ DB 'A', 00H			; `string'
CONST	ENDS
;	COMDAT ??_C@_01CPLAODJH@S?$AA@
CONST	SEGMENT
??_C@_01CPLAODJH@S?$AA@ DB 'S', 00H			; `string'
CONST	ENDS
;	COMDAT ??_C@_01IGIGCIAN@H?$AA@
CONST	SEGMENT
??_C@_01IGIGCIAN@H?$AA@ DB 'H', 00H			; `string'
CONST	ENDS
;	COMDAT ??_C@_01DGKLNCNG@R?$AA@
CONST	SEGMENT
??_C@_01DGKLNCNG@R?$AA@ DB 'R', 00H			; `string'
CONST	ENDS
;	COMDAT ??_C@_0N@MCEGBKEA@method?3?5?$CF1d?5?$AA@
CONST	SEGMENT
??_C@_0N@MCEGBKEA@method?3?5?$CF1d?5?$AA@ DB 'method: %1d ', 00H ; `string'
CONST	ENDS
;	COMDAT ??_C@_0M@HDGDGLCH@csize?3?5?$CF5d?5?$AA@
CONST	SEGMENT
??_C@_0M@HDGDGLCH@csize?3?5?$CF5d?5?$AA@ DB 'csize: %5d ', 00H ; `string'
CONST	ENDS
;	COMDAT ??_C@_0L@DMPNKCFM@size?3?5?$CF5d?5?$AA@
CONST	SEGMENT
??_C@_0L@DMPNKCFM@size?3?5?$CF5d?5?$AA@ DB 'size: %5d ', 00H ; `string'
CONST	ENDS
;	COMDAT ??_C@_05ENKMGHII@?$CF?917s?$AA@
CONST	SEGMENT
??_C@_05ENKMGHII@?$CF?917s?$AA@ DB '%-17s', 00H		; `string'
CONST	ENDS
;	COMDAT ??_C@_0DP@KAFHBHNB@Unknown?5error?5encountered?5with?5f@
CONST	SEGMENT
??_C@_0DP@KAFHBHNB@Unknown?5error?5encountered?5with?5f@ DB 'Unknown erro'
	DB	'r encountered with file. (%s)', 0aH, 0aH, 0aH, 'File: %s', 0aH
	DB	'Line: %d', 0aH, 00H				; `string'
CONST	ENDS
;	COMDAT ??_C@_0BM@HGBGFIMO@?$CFs?5?$CI?$CFs?$CJ?6?6?6File?3?5?$CFs?6Line?3?5?$CFd?$AA@
CONST	SEGMENT
??_C@_0BM@HGBGFIMO@?$CFs?5?$CI?$CFs?$CJ?6?6?6File?3?5?$CFs?6Line?3?5?$CFd?$AA@ DB '%'
	DB	's (%s)', 0aH, 0aH, 0aH, 'File: %s', 0aH, 'Line: %d', 00H ; `string'
CONST	ENDS
;	COMDAT ??_C@_0BO@EMKGDOO@File?5or?5path?5not?5found?4?5?$CI?$CFs?$CJ?4?$AA@
CONST	SEGMENT
??_C@_0BO@EMKGDOO@File?5or?5path?5not?5found?4?5?$CI?$CFs?$CJ?4?$AA@ DB 'F'
	DB	'ile or path not found. (%s).', 00H		; `string'
CONST	ENDS
;	COMDAT ??_C@_0DJ@PDPAPLDJ@Create?5flag?5specified?0?5but?5filen@
CONST	SEGMENT
??_C@_0DJ@PDPAPLDJ@Create?5flag?5specified?0?5but?5filen@ DB 'Create flag'
	DB	' specified, but filename (%s) already exists.', 00H ; `string'
CONST	ENDS
;	COMDAT ??_C@_0CP@MDMMLIAJ@Tried?5to?5open?5read?9only?5file?5?$CI?$CFs@
CONST	SEGMENT
??_C@_0CP@MDMMLIAJ@Tried?5to?5open?5read?9only?5file?5?$CI?$CFs@ DB 'Trie'
	DB	'd to open read-only file (%s) for writing.', 00H ; `string'
CONST	ENDS
;	COMDAT ??_C@_03BBKEAIF@?$DP?$DP?$DP?$AA@
CONST	SEGMENT
??_C@_03BBKEAIF@?$DP?$DP?$DP?$AA@ DB '???', 00H		; `string'
CONST	ENDS
;	COMDAT ??_C@_0BI@KKHIDFIG@Resource?5Manager?5Error?$CB?$AA@
CONST	SEGMENT
??_C@_0BI@KKHIDFIG@Resource?5Manager?5Error?$CB?$AA@ DB 'Resource Manager'
	DB	' Error!', 00H				; `string'
CONST	ENDS
;	COMDAT ??_C@_0M@NHJDJJMK@hash_resize?$AA@
CONST	SEGMENT
??_C@_0M@NHJDJJMK@hash_resize?$AA@ DB 'hash_resize', 00H ; `string'
CONST	ENDS
;	COMDAT ??_C@_08KMLNCKGK@hash_add?$AA@
CONST	SEGMENT
??_C@_08KMLNCKGK@hash_add?$AA@ DB 'hash_add', 00H	; `string'
CONST	ENDS
;	COMDAT ??_C@_0M@CIGDFLFE@hash_create?$AA@
CONST	SEGMENT
??_C@_0M@CIGDFLFE@hash_create?$AA@ DB 'hash_create', 00H ; `string'
CONST	ENDS
;	COMDAT ??_C@_05OKAPJEJC@fseek?$AA@
CONST	SEGMENT
??_C@_05OKAPJEJC@fseek?$AA@ DB 'fseek', 00H		; `string'
CONST	ENDS
;	COMDAT ??_C@_0BH@IMBIDIIM@_filbuf?5internal?5error?$AA@
CONST	SEGMENT
??_C@_0BH@IMBIDIIM@_filbuf?5internal?5error?$AA@ DB '_filbuf internal err'
	DB	'or', 00H					; `string'
CONST	ENDS
;	COMDAT ??_C@_07HNDGCFOP@_filbuf?$AA@
CONST	SEGMENT
??_C@_07HNDGCFOP@_filbuf?$AA@ DB '_filbuf', 00H		; `string'
CONST	ENDS
;	COMDAT ??_C@_05BILPOFMK@ftell?$AA@
CONST	SEGMENT
??_C@_05BILPOFMK@ftell?$AA@ DB 'ftell', 00H		; `string'
CONST	ENDS
;	COMDAT ??_C@_09EKBCJPBH@ResFClose?$AA@
CONST	SEGMENT
??_C@_09EKBCJPBH@ResFClose?$AA@ DB 'ResFClose', 00H	; `string'
CONST	ENDS
;	COMDAT ??_C@_0BC@CPGLDEPP@ResFOpen?5?9?5create?$AA@
CONST	SEGMENT
??_C@_0BC@CPGLDEPP@ResFOpen?5?9?5create?$AA@ DB 'ResFOpen - create', 00H ; `string'
CONST	ENDS
;	COMDAT ??_C@_08NNCGCPFP@ResFOpen?$AA@
CONST	SEGMENT
??_C@_08NNCGCPFP@ResFOpen?$AA@ DB 'ResFOpen', 00H	; `string'
CONST	ENDS
;	COMDAT ??_C@_08KJEBKLNA@ResPurge?$AA@
CONST	SEGMENT
??_C@_08KJEBKLNA@ResPurge?$AA@ DB 'ResPurge', 00H	; `string'
CONST	ENDS
;	COMDAT ??_C@_0L@GFEJONIC@ResExtract?$AA@
CONST	SEGMENT
??_C@_0L@GFEJONIC@ResExtract?$AA@ DB 'ResExtract', 00H	; `string'
CONST	ENDS
;	COMDAT ??_C@_0P@CKHAKKGB@ResAsynchWrite?$AA@
CONST	SEGMENT
??_C@_0P@CKHAKKGB@ResAsynchWrite?$AA@ DB 'ResAsynchWrite', 00H ; `string'
CONST	ENDS
;	COMDAT ??_C@_0O@GDKGMDJD@ResAsynchRead?$AA@
CONST	SEGMENT
??_C@_0O@GDKGMDJD@ResAsynchRead?$AA@ DB 'ResAsynchRead', 00H ; `string'
CONST	ENDS
;	COMDAT ??_C@_0M@CHANDFDP@Assign?5path?$AA@
CONST	SEGMENT
??_C@_0M@CHANDFDP@Assign?5path?$AA@ DB 'Assign path', 00H ; `string'
CONST	ENDS
;	COMDAT ??_C@_0O@JNKBGNLK@ResAssignPath?$AA@
CONST	SEGMENT
??_C@_0O@JNKBGNLK@ResAssignPath?$AA@ DB 'ResAssignPath', 00H ; `string'
CONST	ENDS
;	COMDAT ??_C@_0BC@EJOCHHKO@ResCountDirectory?$AA@
CONST	SEGMENT
??_C@_0BC@EJOCHHKO@ResCountDirectory?$AA@ DB 'ResCountDirectory', 00H ; `string'
CONST	ENDS
;	COMDAT ??_C@_0BB@KDLJIOGI@ResBuildPathname?$AA@
CONST	SEGMENT
??_C@_0BB@KDLJIOGI@ResBuildPathname?$AA@ DB 'ResBuildPathname', 00H ; `string'
CONST	ENDS
;	COMDAT ??_C@_04BDGLLBHF@?2?$CFs?2?$AA@
CONST	SEGMENT
??_C@_04BDGLLBHF@?2?$CFs?2?$AA@ DB '\%s\', 00H		; `string'
CONST	ENDS
;	COMDAT ??_C@_0CF@CKADNGLC@You?5must?5first?5call?5ResCreatePat@
CONST	SEGMENT
??_C@_0CF@CKADNGLC@You?5must?5first?5call?5ResCreatePat@ DB 'You must fir'
	DB	'st call ResCreatePath()', 0aH, 00H		; `string'
CONST	ENDS
;	COMDAT ??_C@_0L@GLEIDJF@ResAddPath?$AA@
CONST	SEGMENT
??_C@_0L@GLEIDJF@ResAddPath?$AA@ DB 'ResAddPath', 00H	; `string'
CONST	ENDS
;	COMDAT ??_C@_06JGBJPOPP@Global?$AA@
CONST	SEGMENT
??_C@_06JGBJPOPP@Global?$AA@ DB 'Global', 00H		; `string'
CONST	ENDS
;	COMDAT ??_C@_0P@PPCHBMFL@ResGetCallback?$AA@
CONST	SEGMENT
??_C@_0P@PPCHBMFL@ResGetCallback?$AA@ DB 'ResGetCallback', 00H ; `string'
CONST	ENDS
;	COMDAT ??_C@_0P@PADJMKNI@ResSetCallback?$AA@
CONST	SEGMENT
??_C@_0P@PADJMKNI@ResSetCallback?$AA@ DB 'ResSetCallback', 00H ; `string'
CONST	ENDS
;	COMDAT ??_C@_0O@COOJBPCO@ResStatusFile?$AA@
CONST	SEGMENT
??_C@_0O@COOJBPCO@ResStatusFile?$AA@ DB 'ResStatusFile', 00H ; `string'
CONST	ENDS
;	COMDAT ??_C@_0BA@JNGLFOGE@ResGetDirectory?$AA@
CONST	SEGMENT
??_C@_0BA@JNGLFOGE@ResGetDirectory?$AA@ DB 'ResGetDirectory', 00H ; `string'
CONST	ENDS
;	COMDAT ??_C@_0BA@OJNFJCCI@ResSetDirectory?$AA@
CONST	SEGMENT
??_C@_0BA@OJNFJCCI@ResSetDirectory?$AA@ DB 'ResSetDirectory', 00H ; `string'
CONST	ENDS
;	COMDAT ??_C@_0M@MICEAOJD@ResSeekFile?$AA@
CONST	SEGMENT
??_C@_0M@MICEAOJD@ResSeekFile?$AA@ DB 'ResSeekFile', 00H ; `string'
CONST	ENDS
;	COMDAT ??_C@_0M@CENIBGDB@ResTellFile?$AA@
CONST	SEGMENT
??_C@_0M@CENIBGDB@ResTellFile?$AA@ DB 'ResTellFile', 00H ; `string'
CONST	ENDS
;	COMDAT ??_C@_0BC@NEGNMGMD@ResExistDirectory?$AA@
CONST	SEGMENT
??_C@_0BC@NEGNMGMD@ResExistDirectory?$AA@ DB 'ResExistDirectory', 00H ; `string'
CONST	ENDS
;	COMDAT ??_C@_0N@DHMJDPLD@ResExistFile?$AA@
CONST	SEGMENT
??_C@_0N@DHMJDPLD@ResExistFile?$AA@ DB 'ResExistFile', 00H ; `string'
CONST	ENDS
;	COMDAT ??_C@_0BC@EGBEGFJA@ResCloseDirectory?$AA@
CONST	SEGMENT
??_C@_0BC@EGBEGFJA@ResCloseDirectory?$AA@ DB 'ResCloseDirectory', 00H ; `string'
CONST	ENDS
;	COMDAT ??_C@_0BB@GCNEOGEN@ResReadDirectory?$AA@
CONST	SEGMENT
??_C@_0BB@GCNEOGEN@ResReadDirectory?$AA@ DB 'ResReadDirectory', 00H ; `string'
CONST	ENDS
;	COMDAT ??_C@_0BB@PLBNNMEI@ResOpenDirectory?$AA@
CONST	SEGMENT
??_C@_0BB@PLBNNMEI@ResOpenDirectory?$AA@ DB 'ResOpenDirectory', 00H ; `string'
CONST	ENDS
;	COMDAT ??_C@_05BMGBEOOC@?$CFs?2?$CFs?$AA@
CONST	SEGMENT
??_C@_05BMGBEOOC@?$CFs?2?$CFs?$AA@ DB '%s\%s', 00H	; `string'
CONST	ENDS
;	COMDAT ??_C@_02DJGKEECL@?4?4?$AA@
CONST	SEGMENT
??_C@_02DJGKEECL@?4?4?$AA@ DB '..', 00H			; `string'
CONST	ENDS
;	COMDAT ??_C@_01LFCBOECM@?4?$AA@
CONST	SEGMENT
??_C@_01LFCBOECM@?4?$AA@ DB '.', 00H			; `string'
CONST	ENDS
;	COMDAT ??_C@_06BNHEIDIH@?$CFs?2?$CK?4?$CK?$AA@
CONST	SEGMENT
??_C@_06BNHEIDIH@?$CFs?2?$CK?4?$CK?$AA@ DB '%s\*.*', 00H ; `string'
CONST	ENDS
;	COMDAT ??_C@_0BB@LJPCDDOA@ResMakeDirectory?$AA@
CONST	SEGMENT
??_C@_0BB@LJPCDDOA@ResMakeDirectory?$AA@ DB 'ResMakeDirectory', 00H ; `string'
CONST	ENDS
;	COMDAT ??_C@_0O@FHKDEOHM@ResModifyFile?$AA@
CONST	SEGMENT
??_C@_0O@FHKDEOHM@ResModifyFile?$AA@ DB 'ResModifyFile', 00H ; `string'
CONST	ENDS
;	COMDAT ??_C@_0O@FDOOBIGA@ResDeleteFile?$AA@
CONST	SEGMENT
??_C@_0O@FDOOBIGA@ResDeleteFile?$AA@ DB 'ResDeleteFile', 00H ; `string'
CONST	ENDS
;	COMDAT ??_C@_0N@IMJBALEI@ResWriteFile?$AA@
CONST	SEGMENT
??_C@_0N@IMJBALEI@ResWriteFile?$AA@ DB 'ResWriteFile', 00H ; `string'
CONST	ENDS
;	COMDAT ??_C@_08OOOIBLGC@set?5size?$AA@
CONST	SEGMENT
??_C@_08OOOIBLGC@set?5size?$AA@ DB 'set size', 00H	; `string'
CONST	ENDS
;	COMDAT ??_C@_0N@MFBOIEDA@ResCloseFile?$AA@
CONST	SEGMENT
??_C@_0N@MFBOIEDA@ResCloseFile?$AA@ DB 'ResCloseFile', 00H ; `string'
CONST	ENDS
;	COMDAT ??_C@_0O@KLAMIEJI@ResUnloadFile?$AA@
CONST	SEGMENT
??_C@_0O@KLAMIEJI@ResUnloadFile?$AA@ DB 'ResUnloadFile', 00H ; `string'
CONST	ENDS
;	COMDAT ??_C@_0M@CPIEAJDN@ResLoadFile?$AA@
CONST	SEGMENT
??_C@_0M@CPIEAJDN@ResLoadFile?$AA@ DB 'ResLoadFile', 00H ; `string'
CONST	ENDS
;	COMDAT ??_C@_0M@NKEGIMBG@ResReadFile?$AA@
CONST	SEGMENT
??_C@_0M@NKEGIMBG@ResReadFile?$AA@ DB 'ResReadFile', 00H ; `string'
CONST	ENDS
;	COMDAT ??_C@_0M@DEBHJGIL@ResSizeFile?$AA@
CONST	SEGMENT
??_C@_0M@DEBHJGIL@ResSizeFile?$AA@ DB 'ResSizeFile', 00H ; `string'
CONST	ENDS
;	COMDAT ??_C@_07DNABHHOL@Inflate?$AA@
CONST	SEGMENT
??_C@_07DNABHHOL@Inflate?$AA@ DB 'Inflate', 00H		; `string'
CONST	ENDS
;	COMDAT ??_C@_01CLKCMJKC@?5?$AA@
CONST	SEGMENT
??_C@_01CLKCMJKC@?5?$AA@ DB ' ', 00H			; `string'
CONST	ENDS
;	COMDAT ??_C@_04HDOCAJNK@?$CFs?$CFs?$AA@
CONST	SEGMENT
??_C@_04HDOCAJNK@?$CFs?$CFs?$AA@ DB '%s%s', 00H		; `string'
CONST	ENDS
;	COMDAT ??_C@_0BB@EDJDNCBI@ResOpen?5?9?5create?$AA@
CONST	SEGMENT
??_C@_0BB@EDJDNCBI@ResOpen?5?9?5create?$AA@ DB 'ResOpen - create', 00H ; `string'
CONST	ENDS
;	COMDAT ??_C@_0M@OGEGBBAK@ResOpenFile?$AA@
CONST	SEGMENT
??_C@_0M@OGEGBBAK@ResOpenFile?$AA@ DB 'ResOpenFile', 00H ; `string'
CONST	ENDS
;	COMDAT ??_C@_09BFLPBOFI@ResDetach?$AA@
CONST	SEGMENT
??_C@_09BFLPBOFI@ResDetach?$AA@ DB 'ResDetach', 00H	; `string'
CONST	ENDS
;	COMDAT ??_C@_09BPGFBLJK@ResDevice?$AA@
CONST	SEGMENT
??_C@_09BPGFBLJK@ResDevice?$AA@ DB 'ResDevice', 00H	; `string'
CONST	ENDS
;	COMDAT ??_C@_09IPANOAMB@ResAttach?$AA@
CONST	SEGMENT
??_C@_09IPANOAMB@ResAttach?$AA@ DB 'ResAttach', 00H	; `string'
CONST	ENDS
;	COMDAT ??_C@_0BN@IAPPECNM@ResCheckMedia?5?$CIuse?5ordinals?$CJ?$AA@
CONST	SEGMENT
??_C@_0BN@IAPPECNM@ResCheckMedia?5?$CIuse?5ordinals?$CJ?$AA@ DB 'ResCheck'
	DB	'Media (use ordinals)', 00H			; `string'
CONST	ENDS
;	COMDAT ??_C@_0M@CPHMKFFF@multithread?$AA@
CONST	SEGMENT
??_C@_0M@CPHMKFFF@multithread?$AA@ DB 'multithread', 00H ; `string'
CONST	ENDS
;	COMDAT ??_C@_07CIFAGBMG@unknown?$AA@
CONST	SEGMENT
??_C@_07CIFAGBMG@unknown?$AA@ DB 'unknown', 00H		; `string'
CONST	ENDS
;	COMDAT ??_C@_07FLKJDOFF@ResInit?$AA@
CONST	SEGMENT
??_C@_07FLKJDOFF@ResInit?$AA@ DB 'ResInit', 00H		; `string'
CONST	ENDS
;	COMDAT ??_C@_0N@OMEJCDNJ@src?2resmgr?4c?$AA@
CONST	SEGMENT
??_C@_0N@OMEJCDNJ@src?2resmgr?4c?$AA@ DB 'src\resmgr.c', 00H ; `string'
CONST	ENDS
;	COMDAT ??_C@_03GIOIKFCO@C?3?2?$AA@
CONST	SEGMENT
??_C@_03GIOIKFCO@C?3?2?$AA@ DB 'C:\', 00H		; `string'
CONST	ENDS
; Function compile flags: /Odtp
; File c:\users\zhitao li\documents\visual studio 2012\projects\freefalcon\codelib\resources\reslib\src\resmgr.c
_TEXT	SEGMENT
_dst$ = 8						; size = 4
_src$ = 12						; size = 4
_hash_copy PROC

; 6618 : {

	push	ebp
	mov	ebp, esp

; 6619 :     if( dst -> attrib ) {

	mov	eax, DWORD PTR _dst$[ebp]
	cmp	DWORD PTR [eax+28], 0
	je	SHORT $LN4@hash_copy
$LN3@hash_copy:

; 6620 :         while( dst -> next )                        /* go to the end of the list                    */

	mov	ecx, DWORD PTR _dst$[ebp]
	cmp	DWORD PTR [ecx+44], 0
	je	SHORT $LN2@hash_copy

; 6621 :             dst = dst -> next;

	mov	edx, DWORD PTR _dst$[ebp]
	mov	eax, DWORD PTR [edx+44]
	mov	DWORD PTR _dst$[ebp], eax
	jmp	SHORT $LN3@hash_copy
$LN2@hash_copy:

; 6622 : 
; 6623 : 		#ifdef USE_SH_POOLS
; 6624 :         dst -> next = (HASH_ENTRY *)MemAllocPtr( gResmgrMemPool, sizeof(HASH_ENTRY), 0 );
; 6625 : 		#else
; 6626 :         dst -> next = (HASH_ENTRY *)MemMalloc( sizeof(HASH_ENTRY), "Hash entry" );

	push	48					; 00000030H
	call	_malloc
	add	esp, 4
	mov	ecx, DWORD PTR _dst$[ebp]
	mov	DWORD PTR [ecx+44], eax

; 6627 : 		#endif
; 6628 : 		if(dst->next) memset(dst->next, 0, sizeof(HASH_ENTRY));	// OW BC

	mov	edx, DWORD PTR _dst$[ebp]
	cmp	DWORD PTR [edx+44], 0
	je	SHORT $LN1@hash_copy
	push	48					; 00000030H
	push	0
	mov	eax, DWORD PTR _dst$[ebp]
	mov	ecx, DWORD PTR [eax+44]
	push	ecx
	call	_memset
	add	esp, 12					; 0000000cH
$LN1@hash_copy:

; 6629 :         dst = dst -> next;

	mov	edx, DWORD PTR _dst$[ebp]
	mov	eax, DWORD PTR [edx+44]
	mov	DWORD PTR _dst$[ebp], eax
$LN4@hash_copy:

; 6630 :     }
; 6631 : 
; 6632 :     dst -> name   = src -> name;

	mov	ecx, DWORD PTR _dst$[ebp]
	mov	edx, DWORD PTR _src$[ebp]
	mov	eax, DWORD PTR [edx]
	mov	DWORD PTR [ecx], eax

; 6633 :     dst -> offset = src -> offset;

	mov	ecx, DWORD PTR _dst$[ebp]
	mov	edx, DWORD PTR _src$[ebp]
	mov	eax, DWORD PTR [edx+4]
	mov	DWORD PTR [ecx+4], eax

; 6634 :     dst -> size   = src -> size;

	mov	ecx, DWORD PTR _dst$[ebp]
	mov	edx, DWORD PTR _src$[ebp]
	mov	eax, DWORD PTR [edx+8]
	mov	DWORD PTR [ecx+8], eax

; 6635 :     dst -> csize  = src -> csize;

	mov	ecx, DWORD PTR _dst$[ebp]
	mov	edx, DWORD PTR _src$[ebp]
	mov	eax, DWORD PTR [edx+12]
	mov	DWORD PTR [ecx+12], eax

; 6636 :     dst -> method = src -> method;

	mov	ecx, DWORD PTR _dst$[ebp]
	mov	edx, DWORD PTR _src$[ebp]
	mov	ax, WORD PTR [edx+16]
	mov	WORD PTR [ecx+16], ax

; 6637 :     dst -> volume = src -> volume;

	mov	ecx, DWORD PTR _dst$[ebp]
	mov	edx, DWORD PTR _src$[ebp]
	mov	al, BYTE PTR [edx+36]
	mov	BYTE PTR [ecx+36], al

; 6638 :     dst -> directory = src -> directory;

	mov	ecx, DWORD PTR _dst$[ebp]
	mov	edx, DWORD PTR _src$[ebp]
	mov	eax, DWORD PTR [edx+32]
	mov	DWORD PTR [ecx+32], eax

; 6639 :     dst -> file_position = src -> file_position;

	mov	ecx, DWORD PTR _dst$[ebp]
	mov	edx, DWORD PTR _src$[ebp]
	mov	eax, DWORD PTR [edx+20]
	mov	DWORD PTR [ecx+20], eax

; 6640 :     dst -> archive = src -> archive;

	mov	ecx, DWORD PTR _dst$[ebp]
	mov	edx, DWORD PTR _src$[ebp]
	mov	eax, DWORD PTR [edx+24]
	mov	DWORD PTR [ecx+24], eax

; 6641 :     dst -> attrib = src -> attrib;

	mov	ecx, DWORD PTR _dst$[ebp]
	mov	edx, DWORD PTR _src$[ebp]
	mov	eax, DWORD PTR [edx+28]
	mov	DWORD PTR [ecx+28], eax

; 6642 :     dst -> dir    = src -> dir;

	mov	ecx, DWORD PTR _dst$[ebp]
	mov	edx, DWORD PTR _src$[ebp]
	mov	eax, DWORD PTR [edx+40]
	mov	DWORD PTR [ecx+40], eax

; 6643 :     dst -> next   = NULL;

	mov	ecx, DWORD PTR _dst$[ebp]
	mov	DWORD PTR [ecx+44], 0

; 6644 : }

	pop	ebp
	ret	0
_hash_copy ENDP
_TEXT	ENDS
; Function compile flags: /Odtp
; File c:\users\zhitao li\documents\visual studio 2012\projects\freefalcon\codelib\resources\reslib\src\resmgr.c
_TEXT	SEGMENT
_dir_index$ = -4					; size = 4
_path$ = 8						; size = 4
_get_dir_index PROC

; 6143 : {

	push	ebp
	mov	ebp, esp
	push	ecx

; 6144 :     int dir_index;
; 6145 : 
; 6146 :     for( dir_index = 0; dir_index < GLOBAL_SEARCH_INDEX; dir_index++ ) {

	mov	DWORD PTR _dir_index$[ebp], 0
	jmp	SHORT $LN4@get_dir_in
$LN3@get_dir_in:
	mov	eax, DWORD PTR _dir_index$[ebp]
	add	eax, 1
	mov	DWORD PTR _dir_index$[ebp], eax
$LN4@get_dir_in:
	mov	ecx, DWORD PTR _dir_index$[ebp]
	cmp	ecx, DWORD PTR _GLOBAL_SEARCH_INDEX
	jge	SHORT $LN2@get_dir_in

; 6147 :         if( !stricmp( path, GLOBAL_SEARCH_PATH[ dir_index ] )) 

	mov	edx, DWORD PTR _dir_index$[ebp]
	mov	eax, DWORD PTR _GLOBAL_SEARCH_PATH[edx*4]
	push	eax
	mov	ecx, DWORD PTR _path$[ebp]
	push	ecx
	call	_stricmp
	add	esp, 8
	test	eax, eax
	jne	SHORT $LN1@get_dir_in

; 6148 :             return( dir_index );

	mov	eax, DWORD PTR _dir_index$[ebp]
	jmp	SHORT $LN5@get_dir_in
$LN1@get_dir_in:

; 6149 :     }

	jmp	SHORT $LN3@get_dir_in
$LN2@get_dir_in:

; 6150 : 
; 6151 :     return( -1 );

	or	eax, -1
$LN5@get_dir_in:

; 6152 : }

	mov	esp, ebp
	pop	ebp
	ret	0
_get_dir_index ENDP
_TEXT	ENDS
; Function compile flags: /Odtp
; File c:\users\zhitao li\documents\visual studio 2012\projects\freefalcon\codelib\resources\reslib\src\resmgr.c
_TEXT	SEGMENT
_hd_list$ = -20						; size = 4
_cd_list$ = -16						; size = 4
_ht$ = -12						; size = 4
_list$ = -8						; size = 4
_cd_id$ = -1						; size = 1
_sort_path PROC

; 6193 : {

	push	ebp
	mov	ebp, esp
	sub	esp, 20					; 00000014H
	push	esi

; 6194 :     char   cd_id;
; 6195 : 
; 6196 :     HASH_TABLE * ht;
; 6197 : 
; 6198 :     LIST * hd_list = NULL,

	mov	DWORD PTR _hd_list$[ebp], 0

; 6199 :          * cd_list = NULL;

	mov	DWORD PTR _cd_list$[ebp], 0

; 6200 : 
; 6201 :     LIST * list;
; 6202 : 
; 6203 :     cd_id = (char)(GLOBAL_CD_DEVICE + 'A');

	mov	eax, DWORD PTR _GLOBAL_CD_DEVICE
	add	eax, 65					; 00000041H
	mov	BYTE PTR _cd_id$[ebp], al

; 6204 :     
; 6205 :     /* ugly - look at the first character in the pathname to
; 6206 :        determine which volume is referenced.  If this volume
; 6207 :        is the CD-drive, subjigate this to the cd list.  The
; 6208 :        new search path is hard-drive list + cd list. */
; 6209 : 
; 6210 :     for( list = GLOBAL_PATH_LIST; list; list = list -> next ) {

	mov	ecx, DWORD PTR _GLOBAL_PATH_LIST
	mov	DWORD PTR _list$[ebp], ecx
	jmp	SHORT $LN5@sort_path
$LN4@sort_path:
	mov	edx, DWORD PTR _list$[ebp]
	mov	eax, DWORD PTR [edx+8]
	mov	DWORD PTR _list$[ebp], eax
$LN5@sort_path:
	cmp	DWORD PTR _list$[ebp], 0
	je	SHORT $LN3@sort_path

; 6211 : 
; 6212 :         ht = (HASH_TABLE *)list -> node;

	mov	ecx, DWORD PTR _list$[ebp]
	mov	edx, DWORD PTR [ecx]
	mov	DWORD PTR _ht$[ebp], edx

; 6213 : 
; 6214 :         if( cd_id == toupper( ht -> name[0] ))

	movsx	esi, BYTE PTR _cd_id$[ebp]
	mov	eax, 1
	imul	eax, 0
	mov	ecx, DWORD PTR _ht$[ebp]
	mov	edx, DWORD PTR [ecx+8]
	movsx	eax, BYTE PTR [edx+eax]
	push	eax
	call	_toupper
	add	esp, 4
	cmp	esi, eax
	jne	SHORT $LN2@sort_path

; 6215 :             cd_list = LIST_APPEND_END( cd_list, ht );

	mov	ecx, DWORD PTR _ht$[ebp]
	push	ecx
	mov	edx, DWORD PTR _cd_list$[ebp]
	push	edx
	call	_ListAppendEnd
	add	esp, 8
	mov	DWORD PTR _cd_list$[ebp], eax

; 6216 :         else

	jmp	SHORT $LN1@sort_path
$LN2@sort_path:

; 6217 :             hd_list = LIST_APPEND_END( hd_list, ht );

	mov	eax, DWORD PTR _ht$[ebp]
	push	eax
	mov	ecx, DWORD PTR _hd_list$[ebp]
	push	ecx
	call	_ListAppendEnd
	add	esp, 8
	mov	DWORD PTR _hd_list$[ebp], eax
$LN1@sort_path:

; 6218 :     }

	jmp	SHORT $LN4@sort_path
$LN3@sort_path:

; 6219 : 
; 6220 :     LIST_DESTROY( GLOBAL_PATH_LIST, NULL );

	push	0
	mov	edx, DWORD PTR _GLOBAL_PATH_LIST
	push	edx
	call	_ListDestroy
	add	esp, 8

; 6221 : 
; 6222 :     GLOBAL_PATH_LIST = LIST_CATENATE( hd_list, cd_list );

	mov	eax, DWORD PTR _cd_list$[ebp]
	push	eax
	mov	ecx, DWORD PTR _hd_list$[ebp]
	push	ecx
	call	_ListCatenate
	add	esp, 8
	mov	DWORD PTR _GLOBAL_PATH_LIST, eax

; 6223 : }

	pop	esi
	mov	esp, ebp
	pop	ebp
	ret	0
_sort_path ENDP
_TEXT	ENDS
; Function compile flags: /Odtp
; File c:\users\zhitao li\documents\visual studio 2012\projects\freefalcon\codelib\resources\reslib\src\resmgr.c
_TEXT	SEGMENT
_table$ = -12						; size = 4
_entry$ = -8						; size = 4
_i$ = -4						; size = 4
_archive$ = 8						; size = 4
_res_detach_ex PROC

; 6240 : {

	push	ebp
	mov	ebp, esp
	sub	esp, 12					; 0000000cH

; 6241 :     HASH_ENTRY * entry;
; 6242 : 
; 6243 :     int i;
; 6244 : 
; 6245 : #if( !RES_USE_FLAT_MODEL )
; 6246 :     HASH_TABLE * table;
; 6247 : 
; 6248 :     for( i=0; i<archive -> num_entries; i++ ) {

	mov	DWORD PTR _i$[ebp], 0
	jmp	SHORT $LN5@res_detach
$LN4@res_detach:
	mov	eax, DWORD PTR _i$[ebp]
	add	eax, 1
	mov	DWORD PTR _i$[ebp], eax
$LN5@res_detach:
	mov	ecx, DWORD PTR _archive$[ebp]
	mov	edx, DWORD PTR _i$[ebp]
	cmp	edx, DWORD PTR [ecx+256]
	jge	SHORT $LN3@res_detach

; 6249 :         entry = hash_find_table( &archive -> name[i], &table );

	lea	eax, DWORD PTR _table$[ebp]
	push	eax
	mov	ecx, DWORD PTR _archive$[ebp]
	add	ecx, DWORD PTR _i$[ebp]
	push	ecx
	call	_hash_find_table
	add	esp, 8
	mov	DWORD PTR _entry$[ebp], eax

; 6250 : 
; 6251 :         if( !entry ) {

	cmp	DWORD PTR _entry$[ebp], 0
	jne	SHORT $LN2@res_detach

; 6252 :             SAY_ERROR( RES_ERR_FILE_NOT_FOUND, &archive -> name[i] );

	push	OFFSET ??_C@_0N@OMEJCDNJ@src?2resmgr?4c?$AA@
	push	6252					; 0000186cH
	mov	edx, DWORD PTR _archive$[ebp]
	add	edx, DWORD PTR _i$[ebp]
	push	edx
	push	-4993					; ffffec7fH
	call	__say_error
	add	esp, 16					; 00000010H

; 6253 :             continue;

	jmp	SHORT $LN4@res_detach
$LN2@res_detach:

; 6254 :         }
; 6255 : 
; 6256 :         if( ((ARCHIVE*)entry -> archive) -> os_handle ==             archive -> os_handle ) /* make sure the entry wasn't overridden */

	mov	eax, DWORD PTR _entry$[ebp]
	mov	ecx, DWORD PTR [eax+24]
	mov	edx, DWORD PTR _archive$[ebp]
	mov	eax, DWORD PTR [ecx+260]
	cmp	eax, DWORD PTR [edx+260]
	jne	SHORT $LN1@res_detach

; 6257 : 
; 6258 :             hash_delete( entry, table );

	mov	ecx, DWORD PTR _table$[ebp]
	push	ecx
	mov	edx, DWORD PTR _entry$[ebp]
	push	edx
	call	_hash_delete
	add	esp, 8
$LN1@res_detach:

; 6259 :     }

	jmp	SHORT $LN4@res_detach
$LN3@res_detach:

; 6260 : #else
; 6261 :     for( i=0; i<archive -> num_entries; i++ ) {
; 6262 :         entry = hash_find( &archive -> name[i], GLOBAL_HASH_TABLE );
; 6263 :         if( !entry ) {
; 6264 :             SAY_ERROR( RES_ERR_FILE_NOT_FOUND, &archive -> name[i] );
; 6265 :             continue;
; 6266 :         }
; 6267 : 
; 6268 :         if( ((ARCHIVE *)entry -> archive) -> os_handle == archive -> os_handle ) /* make sure the entry wasn't overridden */
; 6269 :             hash_delete( entry, GLOBAL_HASH_TABLE );
; 6270 :     }
; 6271 : #endif /* !USE_FLAT_MODEL */
; 6272 : 
; 6273 :     _close( archive -> os_handle );

	mov	eax, DWORD PTR _archive$[ebp]
	mov	ecx, DWORD PTR [eax+260]
	push	ecx
	call	__close
	add	esp, 4

; 6274 : 
; 6275 :     DESTROY_LOCK( archive -> lock );

	mov	edx, DWORD PTR _archive$[ebp]
	mov	eax, DWORD PTR [edx+276]
	push	eax
	call	DWORD PTR __imp__CloseHandle@4

; 6276 : 
; 6277 : 	#ifdef USE_SH_POOLS
; 6278 :     MemFreePtr( archive );
; 6279 : 	#else
; 6280 :     MemFree( archive );

	mov	ecx, DWORD PTR _archive$[ebp]
	push	ecx
	call	_free
	add	esp, 4

; 6281 : 	#endif
; 6282 : }

	mov	esp, ebp
	pop	ebp
	ret	0
_res_detach_ex ENDP
_TEXT	ENDS
; Function compile flags: /Odtp
; File c:\users\zhitao li\documents\visual studio 2012\projects\freefalcon\codelib\resources\reslib\src\resmgr.c
_TEXT	SEGMENT
_colon$ = -556						; size = 4
_len$ = -552						; size = 4
$T1 = -548						; size = 4
$T2 = -544						; size = 4
_chop$ = -540						; size = 4
_drive$ = -536						; size = 4
_i$ = -532						; size = 4
_rel$ = -528						; size = 4
_tmp_buffer$ = -524					; size = 260
_current_path$ = -264					; size = 260
__$ArrayPad$ = -4					; size = 4
_abs_buffer$ = 8					; size = 4
_rel_buffer$ = 12					; size = 4
_maxlen$ = 16						; size = 4
_res_fullpath PROC

; 7601 : {

	push	ebp
	mov	ebp, esp
	sub	esp, 556				; 0000022cH
	mov	eax, DWORD PTR ___security_cookie
	xor	eax, ebp
	mov	DWORD PTR __$ArrayPad$[ebp], eax

; 7602 : #if( RES_USE_FULLPATH )
; 7603 : 
; 7604 :     char  * colon;
; 7605 :     char  * rel;
; 7606 : 
; 7607 :     char    drive[4];
; 7608 :     char    tmp_buffer[ _MAX_PATH ];
; 7609 :     char    current_path[ _MAX_PATH ];
; 7610 : 
; 7611 :     int     chop = 0,

	mov	DWORD PTR _chop$[ebp], 0

; 7612 :             len,
; 7613 :             i;
; 7614 : 
; 7615 : 	maxlen;
; 7616 : 
; 7617 :     if( !GLOBAL_PATH_LIST )

	cmp	DWORD PTR _GLOBAL_PATH_LIST, 0
	jne	SHORT $LN16@res_fullpa

; 7618 :         strcpy( current_path, "c:\\" );

	push	OFFSET ??_C@_03MINKAKBA@c?3?2?$AA@
	lea	eax, DWORD PTR _current_path$[ebp]
	push	eax
	call	_strcpy
	add	esp, 8

; 7619 :     else

	jmp	SHORT $LN15@res_fullpa
$LN16@res_fullpa:

; 7620 :         strcpy( current_path, ((HASH_TABLE *)(GLOBAL_PATH_LIST -> node)) -> name );

	mov	ecx, DWORD PTR _GLOBAL_PATH_LIST
	mov	edx, DWORD PTR [ecx]
	mov	eax, DWORD PTR [edx+8]
	push	eax
	lea	ecx, DWORD PTR _current_path$[ebp]
	push	ecx
	call	_strcpy
	add	esp, 8
$LN15@res_fullpa:

; 7621 : 
; 7622 :     rel = (char *)rel_buffer;

	mov	edx, DWORD PTR _rel_buffer$[ebp]
	mov	DWORD PTR _rel$[ebp], edx

; 7623 : 
; 7624 :     colon = strchr( rel, ASCII_COLON );

	push	58					; 0000003aH
	mov	eax, DWORD PTR _rel$[ebp]
	push	eax
	call	_strchr
	add	esp, 8
	mov	DWORD PTR _colon$[ebp], eax

; 7625 : 
; 7626 :     if( colon ) {

	cmp	DWORD PTR _colon$[ebp], 0
	je	$LN14@res_fullpa

; 7627 :         if( rel_buffer[1] != ASCII_COLON ) {

	mov	ecx, 1
	shl	ecx, 0
	mov	edx, DWORD PTR _rel_buffer$[ebp]
	movsx	eax, BYTE PTR [edx+ecx]
	cmp	eax, 58					; 0000003aH
	je	SHORT $LN13@res_fullpa

; 7628 :             *abs_buffer = 0x00;

	mov	ecx, DWORD PTR _abs_buffer$[ebp]
	mov	BYTE PTR [ecx], 0

; 7629 :             return( NULL );

	xor	eax, eax
	jmp	$LN18@res_fullpa
$LN13@res_fullpa:

; 7630 :         }
; 7631 : 
; 7632 :         if( !strstr( rel_buffer, ".." ))

	push	OFFSET ??_C@_02DJGKEECL@?4?4?$AA@
	mov	edx, DWORD PTR _rel_buffer$[ebp]
	push	edx
	call	_strstr
	add	esp, 8
	test	eax, eax
	jne	SHORT $LN12@res_fullpa

; 7633 :             return( strcpy( abs_buffer, rel_buffer ));

	mov	eax, DWORD PTR _rel_buffer$[ebp]
	push	eax
	mov	ecx, DWORD PTR _abs_buffer$[ebp]
	push	ecx
	call	_strcpy
	add	esp, 8
	jmp	$LN18@res_fullpa
$LN12@res_fullpa:

; 7634 :         
; 7635 :         strncpy( drive, rel_buffer, 2 );

	push	2
	mov	edx, DWORD PTR _rel_buffer$[ebp]
	push	edx
	lea	eax, DWORD PTR _drive$[ebp]
	push	eax
	call	_strncpy
	add	esp, 12					; 0000000cH

; 7636 :         drive[2] = ASCII_BACKSLASH;

	mov	ecx, 1
	shl	ecx, 1
	mov	BYTE PTR _drive$[ebp+ecx], 92		; 0000005cH

; 7637 :         drive[3] = 0x00;

	mov	edx, 1
	imul	edx, 3
	mov	DWORD PTR $T2[ebp], edx
	cmp	DWORD PTR $T2[ebp], 4
	jae	SHORT $LN19@res_fullpa
	jmp	SHORT $LN20@res_fullpa
$LN19@res_fullpa:
	call	___report_rangecheckfailure
$LN20@res_fullpa:
	mov	eax, DWORD PTR $T2[ebp]
	mov	BYTE PTR _drive$[ebp+eax], 0

; 7638 : 
; 7639 :         rel += 2;

	mov	ecx, DWORD PTR _rel$[ebp]
	add	ecx, 2
	mov	DWORD PTR _rel$[ebp], ecx

; 7640 :     }
; 7641 :     else {

	jmp	$LN11@res_fullpa
$LN14@res_fullpa:

; 7642 :         strncpy( drive, current_path, 2 );

	push	2
	lea	edx, DWORD PTR _current_path$[ebp]
	push	edx
	lea	eax, DWORD PTR _drive$[ebp]
	push	eax
	call	_strncpy
	add	esp, 12					; 0000000cH

; 7643 :         drive[2] = ASCII_BACKSLASH;

	mov	ecx, 1
	shl	ecx, 1
	mov	BYTE PTR _drive$[ebp+ecx], 92		; 0000005cH

; 7644 :         drive[3] = 0x00;

	mov	edx, 1
	imul	edx, 3
	mov	DWORD PTR $T1[ebp], edx
	cmp	DWORD PTR $T1[ebp], 4
	jae	SHORT $LN21@res_fullpa
	jmp	SHORT $LN22@res_fullpa
$LN21@res_fullpa:
	call	___report_rangecheckfailure
$LN22@res_fullpa:
	mov	eax, DWORD PTR $T1[ebp]
	mov	BYTE PTR _drive$[ebp+eax], 0

; 7645 : 
; 7646 :         if( rel_buffer[0] == ASCII_BACKSLASH ) {

	mov	ecx, 1
	imul	ecx, 0
	mov	edx, DWORD PTR _rel_buffer$[ebp]
	movsx	eax, BYTE PTR [edx+ecx]
	cmp	eax, 92					; 0000005cH
	jne	SHORT $LN11@res_fullpa

; 7647 :             sprintf( abs_buffer, "%s%s", drive, &rel_buffer[1] );

	mov	ecx, 1
	shl	ecx, 0
	add	ecx, DWORD PTR _rel_buffer$[ebp]
	push	ecx
	lea	edx, DWORD PTR _drive$[ebp]
	push	edx
	push	OFFSET ??_C@_04HDOCAJNK@?$CFs?$CFs?$AA@
	mov	eax, DWORD PTR _abs_buffer$[ebp]
	push	eax
	call	_sprintf
	add	esp, 16					; 00000010H

; 7648 :             return( abs_buffer );       

	mov	eax, DWORD PTR _abs_buffer$[ebp]
	jmp	$LN18@res_fullpa
$LN11@res_fullpa:

; 7649 :         }
; 7650 :     }
; 7651 : 
; 7652 :     if( *rel == ASCII_BACKSLASH ) {

	mov	ecx, DWORD PTR _rel$[ebp]
	movsx	edx, BYTE PTR [ecx]
	cmp	edx, 92					; 0000005cH
	jne	SHORT $LN8@res_fullpa

; 7653 :         sprintf( abs_buffer, "%s%s", drive, rel );

	mov	eax, DWORD PTR _rel$[ebp]
	push	eax
	lea	ecx, DWORD PTR _drive$[ebp]
	push	ecx
	push	OFFSET ??_C@_04HDOCAJNK@?$CFs?$CFs?$AA@
	mov	edx, DWORD PTR _abs_buffer$[ebp]
	push	edx
	call	_sprintf
	add	esp, 16					; 00000010H

; 7654 :         return( abs_buffer );

	mov	eax, DWORD PTR _abs_buffer$[ebp]
	jmp	$LN18@res_fullpa
$LN8@res_fullpa:

; 7655 :     }    
; 7656 : 
; 7657 :     while( !memcmp( rel, "..", 3 )) {

	push	3
	push	OFFSET ??_C@_02DJGKEECL@?4?4?$AA@
	mov	eax, DWORD PTR _rel$[ebp]
	push	eax
	call	_memcmp
	add	esp, 12					; 0000000cH
	test	eax, eax
	jne	SHORT $LN7@res_fullpa

; 7658 :         chop++;

	mov	ecx, DWORD PTR _chop$[ebp]
	add	ecx, 1
	mov	DWORD PTR _chop$[ebp], ecx

; 7659 :         rel += 2;

	mov	edx, DWORD PTR _rel$[ebp]
	add	edx, 2
	mov	DWORD PTR _rel$[ebp], edx

; 7660 :         if( *rel == ASCII_BACKSLASH )

	mov	eax, DWORD PTR _rel$[ebp]
	movsx	ecx, BYTE PTR [eax]
	cmp	ecx, 92					; 0000005cH
	jne	SHORT $LN6@res_fullpa

; 7661 :             //*rel++;
; 7662 :             (*rel) = (*rel) + 1; //Pu239

	mov	edx, DWORD PTR _rel$[ebp]
	movsx	eax, BYTE PTR [edx]
	add	eax, 1
	mov	ecx, DWORD PTR _rel$[ebp]
	mov	BYTE PTR [ecx], al
$LN6@res_fullpa:

; 7663 :     }

	jmp	SHORT $LN8@res_fullpa
$LN7@res_fullpa:

; 7664 : 
; 7665 :     len = strlen( current_path ) - 2;

	lea	edx, DWORD PTR _current_path$[ebp]
	push	edx
	call	_strlen
	add	esp, 4
	sub	eax, 2
	mov	DWORD PTR _len$[ebp], eax

; 7666 : 
; 7667 :     for( i=len; i && chop; i-- )

	mov	eax, DWORD PTR _len$[ebp]
	mov	DWORD PTR _i$[ebp], eax
	jmp	SHORT $LN5@res_fullpa
$LN4@res_fullpa:
	mov	ecx, DWORD PTR _i$[ebp]
	sub	ecx, 1
	mov	DWORD PTR _i$[ebp], ecx
$LN5@res_fullpa:
	cmp	DWORD PTR _i$[ebp], 0
	je	SHORT $LN3@res_fullpa
	cmp	DWORD PTR _chop$[ebp], 0
	je	SHORT $LN3@res_fullpa

; 7668 :         if( current_path[i] == ASCII_BACKSLASH )

	mov	edx, DWORD PTR _i$[ebp]
	movsx	eax, BYTE PTR _current_path$[ebp+edx]
	cmp	eax, 92					; 0000005cH
	jne	SHORT $LN2@res_fullpa

; 7669 :             chop--;

	mov	ecx, DWORD PTR _chop$[ebp]
	sub	ecx, 1
	mov	DWORD PTR _chop$[ebp], ecx
$LN2@res_fullpa:

; 7670 : 
; 7671 :     if( !i ) 

	jmp	SHORT $LN4@res_fullpa
$LN3@res_fullpa:
	cmp	DWORD PTR _i$[ebp], 0
	jne	SHORT $LN1@res_fullpa

; 7672 :         i=1;

	mov	DWORD PTR _i$[ebp], 1
$LN1@res_fullpa:

; 7673 : 
; 7674 :     strncpy( tmp_buffer, current_path, i+2 );

	mov	edx, DWORD PTR _i$[ebp]
	add	edx, 2
	push	edx
	lea	eax, DWORD PTR _current_path$[ebp]
	push	eax
	lea	ecx, DWORD PTR _tmp_buffer$[ebp]
	push	ecx
	call	_strncpy
	add	esp, 12					; 0000000cH

; 7675 : 
; 7676 :     strcpy( &tmp_buffer[i+2], rel );

	mov	edx, DWORD PTR _rel$[ebp]
	push	edx
	mov	eax, DWORD PTR _i$[ebp]
	lea	ecx, DWORD PTR _tmp_buffer$[ebp+eax+2]
	push	ecx
	call	_strcpy
	add	esp, 8

; 7677 : 
; 7678 :     return( strcpy( abs_buffer, tmp_buffer ));

	lea	edx, DWORD PTR _tmp_buffer$[ebp]
	push	edx
	mov	eax, DWORD PTR _abs_buffer$[ebp]
	push	eax
	call	_strcpy
	add	esp, 8
$LN18@res_fullpa:

; 7679 : 
; 7680 : #else
; 7681 : 
; 7682 :     return( _fullpath( abs_path, rel_path, maxlen ));
; 7683 : 
; 7684 : #endif
; 7685 : }

	mov	ecx, DWORD PTR __$ArrayPad$[ebp]
	xor	ecx, ebp
	call	@__security_check_cookie@4
	mov	esp, ebp
	pop	ebp
	ret	0
_res_fullpath ENDP
_TEXT	ENDS
; Function compile flags: /Odtp
; File c:\users\zhitao li\documents\visual studio 2012\projects\freefalcon\codelib\resources\reslib\src\resmgr.c
_TEXT	SEGMENT
_dir$1 = -12						; size = 4
_list$ = -8						; size = 4
_index$ = -4						; size = 4
_shut_down PROC

; 6019 : {

	push	ebp
	mov	ebp, esp
	sub	esp, 12					; 0000000cH

; 6020 :     LIST    * list;
; 6021 :     int       index;
; 6022 : 
; 6023 :     /* Reset system paths.  The paths were stored with strdup, so we
; 6024 :        free them here. */
; 6025 : 
; 6026 :     for( index=0; index<RES_DIR_LAST; index++ )

	mov	DWORD PTR _index$[ebp], 0
	jmp	SHORT $LN27@shut_down
$LN26@shut_down:
	mov	eax, DWORD PTR _index$[ebp]
	add	eax, 1
	mov	DWORD PTR _index$[ebp], eax
$LN27@shut_down:
	cmp	DWORD PTR _index$[ebp], 17		; 00000011H
	jge	SHORT $LN25@shut_down

; 6027 :         if( RES_PATH[ index ] )

	mov	ecx, DWORD PTR _index$[ebp]
	cmp	DWORD PTR _RES_PATH[ecx*4], 0
	je	SHORT $LN24@shut_down

; 6028 : 			#ifdef USE_SH_POOLS
; 6029 :             MemFreePtr( RES_PATH[ index ] );
; 6030 : 			#else
; 6031 :             MemFree( RES_PATH[ index ] );

	mov	edx, DWORD PTR _index$[ebp]
	mov	eax, DWORD PTR _RES_PATH[edx*4]
	push	eax
	call	_free
	add	esp, 4
$LN24@shut_down:

; 6032 : 			#endif
; 6033 : 
; 6034 :     if( GLOBAL_SEARCH_INDEX ) 

	jmp	SHORT $LN26@shut_down
$LN25@shut_down:
	cmp	DWORD PTR _GLOBAL_SEARCH_INDEX, 0
	je	SHORT $LN23@shut_down

; 6035 :         for( index=0; index<GLOBAL_SEARCH_INDEX; index++ )

	mov	DWORD PTR _index$[ebp], 0
	jmp	SHORT $LN22@shut_down
$LN21@shut_down:
	mov	ecx, DWORD PTR _index$[ebp]
	add	ecx, 1
	mov	DWORD PTR _index$[ebp], ecx
$LN22@shut_down:
	mov	edx, DWORD PTR _index$[ebp]
	cmp	edx, DWORD PTR _GLOBAL_SEARCH_INDEX
	jge	SHORT $LN23@shut_down

; 6036 : 			#ifdef USE_SH_POOLS
; 6037 :             MemFreePtr( GLOBAL_SEARCH_PATH[ index ] );
; 6038 : 			#else
; 6039 :             MemFree( GLOBAL_SEARCH_PATH[ index ] );

	mov	eax, DWORD PTR _index$[ebp]
	mov	ecx, DWORD PTR _GLOBAL_SEARCH_PATH[eax*4]
	push	ecx
	call	_free
	add	esp, 4
	jmp	SHORT $LN21@shut_down
$LN23@shut_down:

; 6040 : 			#endif
; 6041 : 
; 6042 :     memset( GLOBAL_SEARCH_PATH, 0, sizeof(GLOBAL_SEARCH_PATH));

	push	1000					; 000003e8H
	push	0
	push	OFFSET _GLOBAL_SEARCH_PATH
	call	_memset
	add	esp, 12					; 0000000cH

; 6043 :     GLOBAL_SEARCH_INDEX = 0;

	mov	DWORD PTR _GLOBAL_SEARCH_INDEX, 0

; 6044 : 
; 6045 :     memset( RES_PATH, 0, sizeof(char*) * RES_DIR_LAST );   /* reset system paths */

	push	68					; 00000044H
	push	0
	push	OFFSET _RES_PATH
	call	_memset
	add	esp, 12					; 0000000cH

; 6046 : 
; 6047 : 
; 6048 :     /* If there are any files that are still open (regardless of whether the
; 6049 :        media has been ejected by the user or not) allocations will still 
; 6050 :        exist.  Close any of them here. */
; 6051 : 
; 6052 :     if( FILE_HANDLES ) { /* close any open file handles, clear for heck of it */

	cmp	DWORD PTR _FILE_HANDLES, 0
	je	SHORT $LN19@shut_down

; 6053 :         for( index = 0; index < MAX_FILE_HANDLES; index++ )

	mov	DWORD PTR _index$[ebp], 0
	jmp	SHORT $LN18@shut_down
$LN17@shut_down:
	mov	edx, DWORD PTR _index$[ebp]
	add	edx, 1
	mov	DWORD PTR _index$[ebp], edx
$LN18@shut_down:
	cmp	DWORD PTR _index$[ebp], 256		; 00000100H
	jge	SHORT $LN16@shut_down

; 6054 :             if( FILE_HANDLES[ index ].os_handle != -1 )

	mov	eax, DWORD PTR _index$[ebp]
	imul	eax, 52					; 00000034H
	mov	ecx, DWORD PTR _FILE_HANDLES
	cmp	DWORD PTR [ecx+eax], -1
	je	SHORT $LN15@shut_down

; 6055 :                 ResCloseFile( index );

	mov	edx, DWORD PTR _index$[ebp]
	push	edx
	call	_ResCloseFile
	add	esp, 4
$LN15@shut_down:

; 6056 : 
; 6057 : 		#ifdef USE_SH_POOLS
; 6058 :         MemFreePtr( FILE_HANDLES );
; 6059 : 		#else
; 6060 :         MemFree( FILE_HANDLES );

	jmp	SHORT $LN17@shut_down
$LN16@shut_down:
	mov	eax, DWORD PTR _FILE_HANDLES
	push	eax
	call	_free
	add	esp, 4

; 6061 : 		#endif
; 6062 : 
; 6063 :         FILE_HANDLES = NULL;

	mov	DWORD PTR _FILE_HANDLES, 0
$LN19@shut_down:

; 6064 :     }
; 6065 : 
; 6066 : 
; 6067 :     /* If there are any archive files that haven't been closed, do
; 6068 :        so now. */
; 6069 : 
; 6070 :     if( ARCHIVE_LIST ) {

	cmp	DWORD PTR _ARCHIVE_LIST, 0
	je	SHORT $LN14@shut_down

; 6071 :         for( list = ARCHIVE_LIST; list; list = list -> next )

	mov	ecx, DWORD PTR _ARCHIVE_LIST
	mov	DWORD PTR _list$[ebp], ecx
	jmp	SHORT $LN13@shut_down
$LN12@shut_down:
	mov	edx, DWORD PTR _list$[ebp]
	mov	eax, DWORD PTR [edx+8]
	mov	DWORD PTR _list$[ebp], eax
$LN13@shut_down:
	cmp	DWORD PTR _list$[ebp], 0
	je	SHORT $LN11@shut_down

; 6072 :             res_detach_ex((ARCHIVE *)list -> node );

	mov	ecx, DWORD PTR _list$[ebp]
	mov	edx, DWORD PTR [ecx]
	push	edx
	call	_res_detach_ex
	add	esp, 4
	jmp	SHORT $LN12@shut_down
$LN11@shut_down:

; 6073 : 
; 6074 :         LIST_DESTROY( ARCHIVE_LIST, NULL );

	push	0
	mov	eax, DWORD PTR _ARCHIVE_LIST
	push	eax
	call	_ListDestroy
	add	esp, 8

; 6075 :             
; 6076 :         //UGGH! --> Why won't this compile? LIST_DESTROY( ARCHIVE_LIST, res_detach_ex );
; 6077 : 
; 6078 :         ARCHIVE_LIST = NULL;

	mov	DWORD PTR _ARCHIVE_LIST, 0

; 6079 : 
; 6080 :         inflate_free(); 

	call	_inflate_free
$LN14@shut_down:

; 6081 :     }
; 6082 : 
; 6083 : #if( RES_DEBUG_VERSION )
; 6084 :     /* If you've called any ResOpenDirectory()'s without calling the 
; 6085 :        destructor ResCloseDirectory, the debug version takes care of
; 6086 :        it for you.  Do this using the Release version and you'll 
; 6087 :        leak.                                                            */
; 6088 : 
; 6089 :     if( OPEN_DIR_LIST ) {

	cmp	DWORD PTR _OPEN_DIR_LIST, 0
	je	SHORT $LN10@shut_down

; 6090 :         RES_DIR * dir;
; 6091 : 
; 6092 :         for( list = OPEN_DIR_LIST; list; list = list -> next ) {

	mov	ecx, DWORD PTR _OPEN_DIR_LIST
	mov	DWORD PTR _list$[ebp], ecx
	jmp	SHORT $LN9@shut_down
$LN8@shut_down:
	mov	edx, DWORD PTR _list$[ebp]
	mov	eax, DWORD PTR [edx+8]
	mov	DWORD PTR _list$[ebp], eax
$LN9@shut_down:
	cmp	DWORD PTR _list$[ebp], 0
	je	SHORT $LN7@shut_down

; 6093 :             dir = (RES_DIR *)list -> node;

	mov	ecx, DWORD PTR _list$[ebp]
	mov	edx, DWORD PTR [ecx]
	mov	DWORD PTR _dir$1[ebp], edx

; 6094 :             ResCloseDirectory( dir );

	mov	eax, DWORD PTR _dir$1[ebp]
	push	eax
	call	_ResCloseDirectory
	add	esp, 4

; 6095 :             IF_LOG( LOG( "directory leak prevented: %s\n", dir -> name ));
; 6096 :         }

	jmp	SHORT $LN8@shut_down
$LN7@shut_down:

; 6097 : 
; 6098 :         LIST_DESTROY( OPEN_DIR_LIST, NULL );

	push	0
	mov	ecx, DWORD PTR _OPEN_DIR_LIST
	push	ecx
	call	_ListDestroy
	add	esp, 8

; 6099 :         OPEN_DIR_LIST = NULL;

	mov	DWORD PTR _OPEN_DIR_LIST, 0
$LN10@shut_down:

; 6100 :     }
; 6101 : #endif /* RES_DEBUG_VERSION */
; 6102 : 
; 6103 :     if( RES_DEVICES )

	cmp	DWORD PTR _RES_DEVICES, 0
	je	SHORT $LN6@shut_down

; 6104 : 		#ifdef USE_SH_POOLS
; 6105 :         MemFreePtr( RES_DEVICES );
; 6106 : 		#else
; 6107 :         MemFree( RES_DEVICES );

	mov	edx, DWORD PTR _RES_DEVICES
	push	edx
	call	_free
	add	esp, 4
$LN6@shut_down:

; 6108 : 		#endif
; 6109 : 
; 6110 :     RES_DEVICES = NULL;

	mov	DWORD PTR _RES_DEVICES, 0

; 6111 : 
; 6112 :     if( GLOBAL_PATH_LIST ) {

	cmp	DWORD PTR _GLOBAL_PATH_LIST, 0
	je	SHORT $LN5@shut_down

; 6113 :         for( list = GLOBAL_PATH_LIST; list; list = list -> next )

	mov	eax, DWORD PTR _GLOBAL_PATH_LIST
	mov	DWORD PTR _list$[ebp], eax
	jmp	SHORT $LN4@shut_down
$LN3@shut_down:
	mov	ecx, DWORD PTR _list$[ebp]
	mov	edx, DWORD PTR [ecx+8]
	mov	DWORD PTR _list$[ebp], edx
$LN4@shut_down:
	cmp	DWORD PTR _list$[ebp], 0
	je	SHORT $LN2@shut_down

; 6114 :             hash_destroy((HASH_TABLE *)list -> node );

	mov	eax, DWORD PTR _list$[ebp]
	mov	ecx, DWORD PTR [eax]
	push	ecx
	call	_hash_destroy
	add	esp, 4
	jmp	SHORT $LN3@shut_down
$LN2@shut_down:

; 6115 : 
; 6116 :         LIST_DESTROY( GLOBAL_PATH_LIST, NULL );

	push	0
	mov	edx, DWORD PTR _GLOBAL_PATH_LIST
	push	edx
	call	_ListDestroy
	add	esp, 8

; 6117 :         GLOBAL_PATH_LIST = NULL;

	mov	DWORD PTR _GLOBAL_PATH_LIST, 0
$LN5@shut_down:

; 6118 :     }
; 6119 :   
; 6120 :     if( GLOBAL_HASH_TABLE ) {

	cmp	DWORD PTR _GLOBAL_HASH_TABLE, 0
	je	SHORT $LN28@shut_down

; 6121 :         hash_destroy( GLOBAL_HASH_TABLE );

	mov	eax, DWORD PTR _GLOBAL_HASH_TABLE
	push	eax
	call	_hash_destroy
	add	esp, 4

; 6122 :         GLOBAL_HASH_TABLE = NULL;

	mov	DWORD PTR _GLOBAL_HASH_TABLE, 0
$LN28@shut_down:

; 6123 :     }
; 6124 : }

	mov	esp, ebp
	pop	ebp
	ret	0
_shut_down ENDP
_TEXT	ENDS
; Function compile flags: /Odtp
; File c:\users\zhitao li\documents\visual studio 2012\projects\freefalcon\codelib\resources\reslib\src\resmgr.c
_TEXT	SEGMENT
_len$ = -276						; size = 4
$T1 = -272						; size = 4
_i$ = -268						; size = 4
_fullpath$ = -264					; size = 260
__$ArrayPad$ = -4					; size = 4
_in_name$ = 8						; size = 4
_out_filename$ = 12					; size = 4
_out_dirpath$ = 16					; size = 4
_split_path PROC

; 7274 : {

	push	ebp
	mov	ebp, esp
	sub	esp, 276				; 00000114H
	mov	eax, DWORD PTR ___security_cookie
	xor	eax, ebp
	mov	DWORD PTR __$ArrayPad$[ebp], eax

; 7275 :     char fullpath[ _MAX_PATH ];
; 7276 :     int  len,
; 7277 :          i;
; 7278 : 
; 7279 :     if( res_fullpath( fullpath, in_name, _MAX_PATH ) == NULL )

	push	260					; 00000104H
	mov	eax, DWORD PTR _in_name$[ebp]
	push	eax
	lea	ecx, DWORD PTR _fullpath$[ebp]
	push	ecx
	call	_res_fullpath
	add	esp, 12					; 0000000cH
	test	eax, eax
	jne	SHORT $LN12@split_path

; 7280 :     {
; 7281 :         if( out_filename ) *out_filename = '\0';

	cmp	DWORD PTR _out_filename$[ebp], 0
	je	SHORT $LN11@split_path
	mov	edx, DWORD PTR _out_filename$[ebp]
	mov	BYTE PTR [edx], 0
$LN11@split_path:

; 7282 :         if( out_dirpath  ) *out_dirpath = '\0';

	cmp	DWORD PTR _out_dirpath$[ebp], 0
	je	SHORT $LN10@split_path
	mov	eax, DWORD PTR _out_dirpath$[ebp]
	mov	BYTE PTR [eax], 0
$LN10@split_path:

; 7283 :         return;

	jmp	$LN14@split_path
$LN12@split_path:

; 7284 :     }
; 7285 : 
; 7286 :     len = strlen( fullpath );

	lea	ecx, DWORD PTR _fullpath$[ebp]
	push	ecx
	call	_strlen
	add	esp, 4
	mov	DWORD PTR _len$[ebp], eax

; 7287 : 
; 7288 :     for( i=len; i>=0; i-- ) {

	mov	edx, DWORD PTR _len$[ebp]
	mov	DWORD PTR _i$[ebp], edx
	jmp	SHORT $LN9@split_path
$LN8@split_path:
	mov	eax, DWORD PTR _i$[ebp]
	sub	eax, 1
	mov	DWORD PTR _i$[ebp], eax
$LN9@split_path:
	cmp	DWORD PTR _i$[ebp], 0
	jl	$LN7@split_path

; 7289 :         if(( fullpath[i] == ASCII_BACKSLASH ) ||
; 7290 :            ( fullpath[i] == ASCII_COLON ))

	mov	ecx, DWORD PTR _i$[ebp]
	movsx	edx, BYTE PTR _fullpath$[ebp+ecx]
	cmp	edx, 92					; 0000005cH
	je	SHORT $LN5@split_path
	mov	eax, DWORD PTR _i$[ebp]
	movsx	ecx, BYTE PTR _fullpath$[ebp+eax]
	cmp	ecx, 58					; 0000003aH
	jne	SHORT $LN6@split_path
$LN5@split_path:

; 7291 :         {
; 7292 :             if( out_filename ) strcpy( out_filename, &fullpath[i+1] );

	cmp	DWORD PTR _out_filename$[ebp], 0
	je	SHORT $LN4@split_path
	mov	edx, DWORD PTR _i$[ebp]
	lea	eax, DWORD PTR _fullpath$[ebp+edx+1]
	push	eax
	mov	ecx, DWORD PTR _out_filename$[ebp]
	push	ecx
	call	_strcpy
	add	esp, 8
$LN4@split_path:

; 7293 :             fullpath[i+1] = 0x00;

	mov	edx, DWORD PTR _i$[ebp]
	add	edx, 1
	mov	DWORD PTR $T1[ebp], edx
	cmp	DWORD PTR $T1[ebp], 260			; 00000104H
	jae	SHORT $LN15@split_path
	jmp	SHORT $LN16@split_path
$LN15@split_path:
	call	___report_rangecheckfailure
$LN16@split_path:
	mov	eax, DWORD PTR $T1[ebp]
	mov	BYTE PTR _fullpath$[ebp+eax], 0

; 7294 :             if( out_dirpath  ) strcpy( out_dirpath, fullpath );

	cmp	DWORD PTR _out_dirpath$[ebp], 0
	je	SHORT $LN3@split_path
	lea	ecx, DWORD PTR _fullpath$[ebp]
	push	ecx
	mov	edx, DWORD PTR _out_dirpath$[ebp]
	push	edx
	call	_strcpy
	add	esp, 8
$LN3@split_path:

; 7295 :             return;

	jmp	SHORT $LN14@split_path
$LN6@split_path:

; 7296 :         }
; 7297 :     }

	jmp	$LN8@split_path
$LN7@split_path:

; 7298 : 
; 7299 :     if( out_filename ) strcpy( out_filename, fullpath );

	cmp	DWORD PTR _out_filename$[ebp], 0
	je	SHORT $LN2@split_path
	lea	eax, DWORD PTR _fullpath$[ebp]
	push	eax
	mov	ecx, DWORD PTR _out_filename$[ebp]
	push	ecx
	call	_strcpy
	add	esp, 8
$LN2@split_path:

; 7300 :     if( out_dirpath  ) *out_dirpath = '\0';

	cmp	DWORD PTR _out_dirpath$[ebp], 0
	je	SHORT $LN14@split_path
	mov	edx, DWORD PTR _out_dirpath$[ebp]
	mov	BYTE PTR [edx], 0
$LN14@split_path:

; 7301 : }

	mov	ecx, DWORD PTR __$ArrayPad$[ebp]
	xor	ecx, ebp
	call	@__security_check_cookie@4
	mov	esp, ebp
	pop	ebp
	ret	0
_split_path ENDP
_TEXT	ENDS
; Function compile flags: /Odtp
; File c:\users\zhitao li\documents\visual studio 2012\projects\freefalcon\codelib\resources\reslib\src\resmgr.c
_TEXT	SEGMENT
_i$ = -4						; size = 4
_get_handle PROC

; 7242 : {

	push	ebp
	mov	ebp, esp
	push	ecx

; 7243 :     int i;
; 7244 : 
; 7245 :     for( i=0; i<MAX_FILE_HANDLES; i++ )

	mov	DWORD PTR _i$[ebp], 0
	jmp	SHORT $LN4@get_handle
$LN3@get_handle:
	mov	eax, DWORD PTR _i$[ebp]
	add	eax, 1
	mov	DWORD PTR _i$[ebp], eax
$LN4@get_handle:
	cmp	DWORD PTR _i$[ebp], 256			; 00000100H
	jge	SHORT $LN2@get_handle

; 7246 :         if( FILE_HANDLES[i].os_handle == -1 )

	mov	ecx, DWORD PTR _i$[ebp]
	imul	ecx, 52					; 00000034H
	mov	edx, DWORD PTR _FILE_HANDLES
	cmp	DWORD PTR [edx+ecx], -1
	jne	SHORT $LN1@get_handle

; 7247 :             return(i);

	mov	eax, DWORD PTR _i$[ebp]
	jmp	SHORT $LN5@get_handle
$LN1@get_handle:

; 7248 : 
; 7249 :     return( -1 );

	jmp	SHORT $LN3@get_handle
$LN2@get_handle:
	or	eax, -1
$LN5@get_handle:

; 7250 : }

	mov	esp, ebp
	pop	ebp
	ret	0
_get_handle ENDP
_TEXT	ENDS
; Function compile flags: /Odtp
; File c:\users\zhitao li\documents\visual studio 2012\projects\freefalcon\codelib\resources\reslib\src\resmgr.c
_TEXT	SEGMENT
_ptr_out$ = -12						; size = 4
_string_space$ = -8					; size = 4
_size$ = -4						; size = 4
_hsh$ = 8						; size = 4
_string$ = 12						; size = 4
_hash_strcpy PROC

; 6475 : {

	push	ebp
	mov	ebp, esp
	sub	esp, 12					; 0000000cH

; 6476 :     char * string_space;
; 6477 :     char * ptr_out;
; 6478 :     int    size;
; 6479 : 
; 6480 :     ptr_out = hsh -> ptr_in;

	mov	eax, DWORD PTR _hsh$[ebp]
	mov	ecx, DWORD PTR [eax+12]
	mov	DWORD PTR _ptr_out$[ebp], ecx

; 6481 : 
; 6482 :     strcpy( hsh -> ptr_in, string );

	mov	edx, DWORD PTR _string$[ebp]
	push	edx
	mov	eax, DWORD PTR _hsh$[ebp]
	mov	ecx, DWORD PTR [eax+12]
	push	ecx
	call	_strcpy
	add	esp, 8

; 6483 : 
; 6484 :     hsh -> ptr_in += strlen( string );

	mov	edx, DWORD PTR _string$[ebp]
	push	edx
	call	_strlen
	add	esp, 4
	mov	ecx, DWORD PTR _hsh$[ebp]
	add	eax, DWORD PTR [ecx+12]
	mov	edx, DWORD PTR _hsh$[ebp]
	mov	DWORD PTR [edx+12], eax

; 6485 :     *hsh -> ptr_in = '\0'; /*safety*/

	mov	eax, DWORD PTR _hsh$[ebp]
	mov	ecx, DWORD PTR [eax+12]
	mov	BYTE PTR [ecx], 0

; 6486 :     hsh -> ptr_in++;

	mov	edx, DWORD PTR _hsh$[ebp]
	mov	eax, DWORD PTR [edx+12]
	add	eax, 1
	mov	ecx, DWORD PTR _hsh$[ebp]
	mov	DWORD PTR [ecx+12], eax

; 6487 : 
; 6488 :     if( hsh -> ptr_in > hsh -> ptr_end ) {

	mov	edx, DWORD PTR _hsh$[ebp]
	mov	eax, DWORD PTR _hsh$[ebp]
	mov	ecx, DWORD PTR [edx+12]
	cmp	ecx, DWORD PTR [eax+16]
	jbe	SHORT $LN1@hash_strcp

; 6489 :         size = HASH_TABLE_SIZE * MAX_FILENAME;

	mov	DWORD PTR _size$[ebp], 1740		; 000006ccH

; 6490 : 
; 6491 : 		#ifdef USE_SH_POOLS
; 6492 : 		string_space = (char *)MemAllocPtr( gResmgrMemPool, size, 0 );
; 6493 : 		#else
; 6494 : 		string_space = (char *)MemMalloc( size, "Strings" );

	mov	edx, DWORD PTR _size$[ebp]
	push	edx
	call	_malloc
	add	esp, 4
	mov	DWORD PTR _string_space$[ebp], eax

; 6495 : 		#endif
; 6496 : 
; 6497 :         hsh -> str_list = LIST_APPEND( hsh -> str_list, string_space );

	mov	eax, DWORD PTR _string_space$[ebp]
	push	eax
	mov	ecx, DWORD PTR _hsh$[ebp]
	mov	edx, DWORD PTR [ecx+20]
	push	edx
	call	_ListAppend
	add	esp, 8
	mov	ecx, DWORD PTR _hsh$[ebp]
	mov	DWORD PTR [ecx+20], eax

; 6498 :         hsh -> ptr_in = string_space;

	mov	edx, DWORD PTR _hsh$[ebp]
	mov	eax, DWORD PTR _string_space$[ebp]
	mov	DWORD PTR [edx+12], eax

; 6499 : 
; 6500 :         size = (int)((float)STRING_SAFETY_SIZE * (float)size);

	cvtsi2ss xmm0, DWORD PTR _size$[ebp]
	mulss	xmm0, DWORD PTR __real@3f59999a
	cvttss2si ecx, xmm0
	mov	DWORD PTR _size$[ebp], ecx

; 6501 :         hsh -> ptr_end = string_space + size;

	mov	edx, DWORD PTR _string_space$[ebp]
	add	edx, DWORD PTR _size$[ebp]
	mov	eax, DWORD PTR _hsh$[ebp]
	mov	DWORD PTR [eax+16], edx
$LN1@hash_strcp:

; 6502 :     }
; 6503 : 
; 6504 :     return( ptr_out );

	mov	eax, DWORD PTR _ptr_out$[ebp]

; 6505 : }

	mov	esp, ebp
	pop	ebp
	ret	0
_hash_strcpy ENDP
_TEXT	ENDS
; Function compile flags: /Odtp
; File c:\users\zhitao li\documents\visual studio 2012\projects\freefalcon\codelib\resources\reslib\src\resmgr.c
_TEXT	SEGMENT
$T1 = -560						; size = 4
$T2 = -556						; size = 4
_path_used$ = -552					; size = 4
_wild_path$ = -548					; size = 4
_len$ = -544						; size = 4
_ht$ = -540						; size = 4
_i$ = -536						; size = 4
_list$ = -532						; size = 4
_wild_len$ = -528					; size = 4
_entry$ = -524						; size = 4
_filename$ = -520					; size = 256
_fullpath$ = -264					; size = 260
__$ArrayPad$ = -4					; size = 4
_name$ = 8						; size = 4
_table$ = 12						; size = 4
_hash_find_table PROC

; 7011 : {

	push	ebp
	mov	ebp, esp
	sub	esp, 560				; 00000230H
	mov	eax, DWORD PTR ___security_cookie
	xor	eax, ebp
	mov	DWORD PTR __$ArrayPad$[ebp], eax

; 7012 :     int  path_used = FALSE,

	mov	DWORD PTR _path_used$[ebp], 0

; 7013 :           wild_path = FALSE;

	mov	DWORD PTR _wild_path$[ebp], 0

; 7014 : 
; 7015 :     HASH_TABLE * ht = NULL;

	mov	DWORD PTR _ht$[ebp], 0

; 7016 : 
; 7017 : 
; 7018 :     int  wild_len=0,

	mov	DWORD PTR _wild_len$[ebp], 0

; 7019 :          len=0,

	mov	DWORD PTR _len$[ebp], 0

; 7020 :          i;
; 7021 : 
; 7022 :     char fullpath[ _MAX_PATH ]={0},

	mov	BYTE PTR _fullpath$[ebp], 0
	push	259					; 00000103H
	push	0
	lea	eax, DWORD PTR _fullpath$[ebp+1]
	push	eax
	call	_memset
	add	esp, 12					; 0000000cH

; 7023 :          filename[ _MAX_FNAME ]={0};

	mov	BYTE PTR _filename$[ebp], 0
	push	255					; 000000ffH
	push	0
	lea	ecx, DWORD PTR _filename$[ebp+1]
	push	ecx
	call	_memset
	add	esp, 12					; 0000000cH

; 7024 : 
; 7025 :     HASH_ENTRY * entry=NULL;

	mov	DWORD PTR _entry$[ebp], 0

; 7026 : 
; 7027 : #if( !RES_USE_FLAT_MODEL )
; 7028 :     LIST       * list=NULL;

	mov	DWORD PTR _list$[ebp], 0

; 7029 : #endif /* !RES_USE_FLAT_MODEL */
; 7030 : 
; 7031 :     if( !GLOBAL_HASH_TABLE )

	cmp	DWORD PTR _GLOBAL_HASH_TABLE, 0
	jne	SHORT $LN38@hash_find_

; 7032 :         return( NULL );

	xor	eax, eax
	jmp	$LN40@hash_find_
$LN38@hash_find_:

; 7033 : 
; 7034 : 
; 7035 : #if( RES_WILDCARD_PATHS )       
; 7036 : 
; 7037 :     /* wildcard directory */
; 7038 : 
; 7039 : 
; 7040 :     /* wild carding a directory means that you can specify a neo-absolute path.  Where
; 7041 :        an absolute path is really a shortcut to typing a path relative to your current
; 7042 :        working directory, wildcarding a path allows you to specify a branch from a directory
; 7043 :        tree, and that you want to look for files in a file in all directories that have
; 7044 :        the same branch.  For instance,
; 7045 : 
; 7046 :             given this:   
; 7047 : 
; 7048 :                 *\objects\foo.dat
; 7049 : 
; 7050 :             all of these would be found:
; 7051 :     
; 7052 :                 c:\game\install\objects\foo.dat
; 7053 :                 f:\objects\foo.dat
; 7054 :                 <archive>\data\objects\foo.dat
; 7055 : 
; 7056 :         Obviously this is primarily to find files that can be found on multiple volumes,
; 7057 :         rather than multiple locations on one volume.  The other way of doing this would
; 7058 :         have been to simply leave the volume identifier out of the hash lookup function.
; 7059 :         This however, would have made it impossible to explicitly specify a volume to
; 7060 :         differentiate between two files. */
; 7061 : 
; 7062 : 
; 7063 :     /* It may not be a good idea to implement this here (at a point so low in the code).  
; 7064 :        I haven't made up my mind yet whether this should be done at a higher level 
; 7065 :        (like the way unix expands argv[] wildcards) or whether it should be so 
; 7066 :        cancerously ingrained here.  For now, here it goes. */
; 7067 : 
; 7068 :     if( name[0] == ASCII_ASTERISK ) {

	mov	edx, 1
	imul	edx, 0
	mov	eax, DWORD PTR _name$[ebp]
	movsx	ecx, BYTE PTR [eax+edx]
	cmp	ecx, 42					; 0000002aH
	jne	$LN37@hash_find_

; 7069 : 
; 7070 :         /* strip the filename out of 'name' and then stuff what path information we 
; 7071 :            do have into fullpath.  'wild_len' is the number of characters that we will
; 7072 :            compare of each of the directory entries in our search path with the path 
; 7073 :            we have here. */
; 7074 : 
; 7075 :         wild_path = TRUE;

	mov	DWORD PTR _wild_path$[ebp], 1

; 7076 :         path_used = TRUE;

	mov	DWORD PTR _path_used$[ebp], 1

; 7077 : 
; 7078 :         name++;

	mov	edx, DWORD PTR _name$[ebp]
	add	edx, 1
	mov	DWORD PTR _name$[ebp], edx

; 7079 :         strcpy( fullpath, name );

	mov	eax, DWORD PTR _name$[ebp]
	push	eax
	lea	ecx, DWORD PTR _fullpath$[ebp]
	push	ecx
	call	_strcpy
	add	esp, 8

; 7080 :         wild_len = strlen(name);

	mov	edx, DWORD PTR _name$[ebp]
	push	edx
	call	_strlen
	add	esp, 4
	mov	DWORD PTR _wild_len$[ebp], eax
	jmp	SHORT $LN36@hash_find_
$LN35@hash_find_:

; 7081 :         for( wild_len; (name[wild_len] != ASCII_BACKSLASH) && wild_len; wild_len-- ) ;

	mov	eax, DWORD PTR _wild_len$[ebp]
	sub	eax, 1
	mov	DWORD PTR _wild_len$[ebp], eax
$LN36@hash_find_:
	mov	ecx, DWORD PTR _name$[ebp]
	add	ecx, DWORD PTR _wild_len$[ebp]
	movsx	edx, BYTE PTR [ecx]
	cmp	edx, 92					; 0000005cH
	je	SHORT $LN34@hash_find_
	cmp	DWORD PTR _wild_len$[ebp], 0
	je	SHORT $LN34@hash_find_
	jmp	SHORT $LN35@hash_find_
$LN34@hash_find_:

; 7082 : 
; 7083 :         if( wild_len ) {

	cmp	DWORD PTR _wild_len$[ebp], 0
	je	SHORT $LN33@hash_find_

; 7084 :             strcpy( filename, &name[ wild_len + 1 ] );

	mov	eax, DWORD PTR _wild_len$[ebp]
	mov	ecx, DWORD PTR _name$[ebp]
	lea	edx, DWORD PTR [ecx+eax+1]
	push	edx
	lea	eax, DWORD PTR _filename$[ebp]
	push	eax
	call	_strcpy
	add	esp, 8

; 7085 :             fullpath[wild_len + 1] = 0x00;

	mov	ecx, DWORD PTR _wild_len$[ebp]
	add	ecx, 1
	mov	DWORD PTR $T1[ebp], ecx
	cmp	DWORD PTR $T1[ebp], 260			; 00000104H
	jae	SHORT $LN41@hash_find_
	jmp	SHORT $LN42@hash_find_
$LN41@hash_find_:
	call	___report_rangecheckfailure
$LN42@hash_find_:
	mov	edx, DWORD PTR $T1[ebp]
	mov	BYTE PTR _fullpath$[ebp+edx], 0

; 7086 :         }
; 7087 :         else

	jmp	SHORT $LN37@hash_find_
$LN33@hash_find_:

; 7088 :             return( NULL ); /* improper use of wildcard directory! */

	xor	eax, eax
	jmp	$LN40@hash_find_
$LN37@hash_find_:

; 7089 :     }
; 7090 : 
; 7091 : #endif /* RES_WILDCARD_PATHS */
; 7092 : 
; 7093 :     /* check to see if a directory name is specified */
; 7094 : 
; 7095 :     if( !wild_path && (strchr( name, ASCII_BACKSLASH ) || (name[0] == ASCII_DOT))) {

	cmp	DWORD PTR _wild_path$[ebp], 0
	jne	$LN31@hash_find_
	push	92					; 0000005cH
	mov	eax, DWORD PTR _name$[ebp]
	push	eax
	call	_strchr
	add	esp, 8
	test	eax, eax
	jne	SHORT $LN30@hash_find_
	mov	ecx, 1
	imul	ecx, 0
	mov	edx, DWORD PTR _name$[ebp]
	movsx	eax, BYTE PTR [edx+ecx]
	cmp	eax, 46					; 0000002eH
	jne	$LN31@hash_find_
$LN30@hash_find_:

; 7096 :         /* utterly non-portable */
; 7097 :         /* create a full path name from what could be a partial path */
; 7098 :         if( res_fullpath( fullpath, name, _MAX_PATH ) == NULL ) {

	push	260					; 00000104H
	mov	ecx, DWORD PTR _name$[ebp]
	push	ecx
	lea	edx, DWORD PTR _fullpath$[ebp]
	push	edx
	call	_res_fullpath
	add	esp, 12					; 0000000cH
	test	eax, eax
	jne	SHORT $LN29@hash_find_

; 7099 :             SAY_ERROR( RES_ERR_CANT_INTERPRET, name );

	push	OFFSET ??_C@_0N@OMEJCDNJ@src?2resmgr?4c?$AA@
	push	7099					; 00001bbbH
	mov	eax, DWORD PTR _name$[ebp]
	push	eax
	push	-4980					; ffffec8cH
	call	__say_error
	add	esp, 16					; 00000010H

; 7100 :             return( NULL );

	xor	eax, eax
	jmp	$LN40@hash_find_
$LN29@hash_find_:

; 7101 :         }
; 7102 : 
; 7103 :         /* split the full path name into components */
; 7104 : 
; 7105 :         len = strlen( fullpath );

	lea	ecx, DWORD PTR _fullpath$[ebp]
	push	ecx
	call	_strlen
	add	esp, 4
	mov	DWORD PTR _len$[ebp], eax

; 7106 :         for( i=len; i>=0; i-- ) {

	mov	edx, DWORD PTR _len$[ebp]
	mov	DWORD PTR _i$[ebp], edx
	jmp	SHORT $LN28@hash_find_
$LN27@hash_find_:
	mov	eax, DWORD PTR _i$[ebp]
	sub	eax, 1
	mov	DWORD PTR _i$[ebp], eax
$LN28@hash_find_:
	cmp	DWORD PTR _i$[ebp], 0
	jl	SHORT $LN26@hash_find_

; 7107 :             if( fullpath[i] == ASCII_BACKSLASH ) {

	mov	ecx, DWORD PTR _i$[ebp]
	movsx	edx, BYTE PTR _fullpath$[ebp+ecx]
	cmp	edx, 92					; 0000005cH
	jne	SHORT $LN25@hash_find_

; 7108 :                 strcpy( filename, &fullpath[i+1] );

	mov	eax, DWORD PTR _i$[ebp]
	lea	ecx, DWORD PTR _fullpath$[ebp+eax+1]
	push	ecx
	lea	edx, DWORD PTR _filename$[ebp]
	push	edx
	call	_strcpy
	add	esp, 8

; 7109 :                 fullpath[i+1] = 0x00;

	mov	eax, DWORD PTR _i$[ebp]
	add	eax, 1
	mov	DWORD PTR $T2[ebp], eax
	cmp	DWORD PTR $T2[ebp], 260			; 00000104H
	jae	SHORT $LN43@hash_find_
	jmp	SHORT $LN44@hash_find_
$LN43@hash_find_:
	call	___report_rangecheckfailure
$LN44@hash_find_:
	mov	ecx, DWORD PTR $T2[ebp]
	mov	BYTE PTR _fullpath$[ebp+ecx], 0

; 7110 :                 break;

	jmp	SHORT $LN26@hash_find_
$LN25@hash_find_:

; 7111 :             }
; 7112 :         }

	jmp	SHORT $LN27@hash_find_
$LN26@hash_find_:

; 7113 : 
; 7114 : #if( RES_USE_FLAT_MODEL )
; 7115 :         if( filename[0] == 0x00 ) {
; 7116 :             SAY_ERROR( RES_ERR_CANT_INTERPRET, name );
; 7117 :             if( table )
; 7118 :                 *table = NULL;
; 7119 : 
; 7120 :             return( NULL );
; 7121 :         }
; 7122 : #endif /* RES_USE_FLAT_MODEL */
; 7123 : 
; 7124 :         path_used = TRUE;

	mov	DWORD PTR _path_used$[ebp], 1
$LN31@hash_find_:

; 7125 :     }
; 7126 : 
; 7127 : #if( !RES_USE_FLAT_MODEL ) /* HIERARCHICAL MODEL */
; 7128 : 
; 7129 :     if( path_used ) {

	cmp	DWORD PTR _path_used$[ebp], 0
	je	$LN24@hash_find_

; 7130 : 
; 7131 : #if( RES_WILDCARD_PATHS )       
; 7132 :         if( wild_path ) {

	cmp	DWORD PTR _wild_path$[ebp], 0
	je	$LN23@hash_find_

; 7133 : 
; 7134 :             for( list = GLOBAL_PATH_LIST; list; list = list -> next ) {

	mov	edx, DWORD PTR _GLOBAL_PATH_LIST
	mov	DWORD PTR _list$[ebp], edx
	jmp	SHORT $LN22@hash_find_
$LN21@hash_find_:
	mov	eax, DWORD PTR _list$[ebp]
	mov	ecx, DWORD PTR [eax+8]
	mov	DWORD PTR _list$[ebp], ecx
$LN22@hash_find_:
	cmp	DWORD PTR _list$[ebp], 0
	je	$LN20@hash_find_

; 7135 : 
; 7136 :                 ht = (HASH_TABLE *)list -> node;

	mov	edx, DWORD PTR _list$[ebp]
	mov	eax, DWORD PTR [edx]
	mov	DWORD PTR _ht$[ebp], eax

; 7137 : 
; 7138 :                 len = strlen( ht -> name );

	mov	ecx, DWORD PTR _ht$[ebp]
	mov	edx, DWORD PTR [ecx+8]
	push	edx
	call	_strlen
	add	esp, 4
	mov	DWORD PTR _len$[ebp], eax

; 7139 : 
; 7140 :                 if( wild_len > len )

	mov	eax, DWORD PTR _wild_len$[ebp]
	cmp	eax, DWORD PTR _len$[ebp]
	jle	SHORT $LN19@hash_find_

; 7141 :                     continue;

	jmp	SHORT $LN21@hash_find_
$LN19@hash_find_:

; 7142 : 
; 7143 :                 if( !strnicmp( &ht -> name[ len - wild_len - 1 ], fullpath, wild_len )) {

	mov	ecx, DWORD PTR _wild_len$[ebp]
	push	ecx
	lea	edx, DWORD PTR _fullpath$[ebp]
	push	edx
	mov	eax, DWORD PTR _len$[ebp]
	sub	eax, DWORD PTR _wild_len$[ebp]
	mov	ecx, DWORD PTR _ht$[ebp]
	mov	edx, DWORD PTR [ecx+8]
	lea	eax, DWORD PTR [edx+eax-1]
	push	eax
	call	_strnicmp
	add	esp, 12					; 0000000cH
	test	eax, eax
	jne	SHORT $LN18@hash_find_

; 7144 :                     entry = hash_find( filename, ht );

	mov	ecx, DWORD PTR _ht$[ebp]
	push	ecx
	lea	edx, DWORD PTR _filename$[ebp]
	push	edx
	call	_hash_find
	add	esp, 8
	mov	DWORD PTR _entry$[ebp], eax

; 7145 : 
; 7146 :                     if( table )

	cmp	DWORD PTR _table$[ebp], 0
	je	SHORT $LN17@hash_find_

; 7147 :                         *table = ht;

	mov	eax, DWORD PTR _table$[ebp]
	mov	ecx, DWORD PTR _ht$[ebp]
	mov	DWORD PTR [eax], ecx
$LN17@hash_find_:

; 7148 : 
; 7149 :                     if( entry ) 

	cmp	DWORD PTR _entry$[ebp], 0
	je	SHORT $LN18@hash_find_

; 7150 :                         return( entry );

	mov	eax, DWORD PTR _entry$[ebp]
	jmp	$LN40@hash_find_
$LN18@hash_find_:

; 7151 :                 }
; 7152 : 
; 7153 :             }

	jmp	$LN21@hash_find_
$LN20@hash_find_:

; 7154 : 
; 7155 :             if( table )

	cmp	DWORD PTR _table$[ebp], 0
	je	SHORT $LN15@hash_find_

; 7156 :                 *table = NULL;

	mov	edx, DWORD PTR _table$[ebp]
	mov	DWORD PTR [edx], 0
$LN15@hash_find_:

; 7157 :         
; 7158 :             return( NULL );

	xor	eax, eax
	jmp	$LN40@hash_find_

; 7159 :         }
; 7160 :         else {

	jmp	SHORT $LN14@hash_find_
$LN23@hash_find_:

; 7161 : #endif /* RES_WILDCARD_PATHS */
; 7162 : 
; 7163 :             entry = hash_find( fullpath, GLOBAL_HASH_TABLE );

	mov	eax, DWORD PTR _GLOBAL_HASH_TABLE
	push	eax
	lea	ecx, DWORD PTR _fullpath$[ebp]
	push	ecx
	call	_hash_find
	add	esp, 8
	mov	DWORD PTR _entry$[ebp], eax

; 7164 : 
; 7165 :             if( entry ) {

	cmp	DWORD PTR _entry$[ebp], 0
	je	SHORT $LN13@hash_find_

; 7166 :                 if( entry -> dir ) {        

	mov	edx, DWORD PTR _entry$[ebp]
	cmp	DWORD PTR [edx+40], 0
	je	SHORT $LN12@hash_find_

; 7167 :                     if( table )

	cmp	DWORD PTR _table$[ebp], 0
	je	SHORT $LN11@hash_find_

; 7168 :                         *table = (HASH_TABLE * )entry -> dir;

	mov	eax, DWORD PTR _table$[ebp]
	mov	ecx, DWORD PTR _entry$[ebp]
	mov	edx, DWORD PTR [ecx+40]
	mov	DWORD PTR [eax], edx
$LN11@hash_find_:

; 7169 : 
; 7170 :                     return( hash_find( filename, (HASH_TABLE * )entry -> dir ));

	mov	eax, DWORD PTR _entry$[ebp]
	mov	ecx, DWORD PTR [eax+40]
	push	ecx
	lea	edx, DWORD PTR _filename$[ebp]
	push	edx
	call	_hash_find
	add	esp, 8
	jmp	$LN40@hash_find_
$LN12@hash_find_:

; 7171 :                 }
; 7172 :             }
; 7173 :             else {

	jmp	SHORT $LN14@hash_find_
$LN13@hash_find_:

; 7174 :                 if( table )

	cmp	DWORD PTR _table$[ebp], 0
	je	SHORT $LN9@hash_find_

; 7175 :                     *table = NULL;

	mov	eax, DWORD PTR _table$[ebp]
	mov	DWORD PTR [eax], 0
$LN9@hash_find_:

; 7176 : 
; 7177 :                 return( NULL );

	xor	eax, eax
	jmp	$LN40@hash_find_
$LN14@hash_find_:

; 7178 :             }
; 7179 :         }
; 7180 : 
; 7181 :     }
; 7182 :     else { /* path_used == FALSE */

	jmp	SHORT $LN8@hash_find_
$LN24@hash_find_:

; 7183 : 
; 7184 :         /* look in order */
; 7185 :         for( list = GLOBAL_PATH_LIST; list; list = list -> next ) {

	mov	ecx, DWORD PTR _GLOBAL_PATH_LIST
	mov	DWORD PTR _list$[ebp], ecx
	jmp	SHORT $LN7@hash_find_
$LN6@hash_find_:
	mov	edx, DWORD PTR _list$[ebp]
	mov	eax, DWORD PTR [edx+8]
	mov	DWORD PTR _list$[ebp], eax
$LN7@hash_find_:
	cmp	DWORD PTR _list$[ebp], 0
	je	SHORT $LN5@hash_find_

; 7186 :             entry = hash_find( name, (HASH_TABLE *)list -> node );

	mov	ecx, DWORD PTR _list$[ebp]
	mov	edx, DWORD PTR [ecx]
	push	edx
	mov	eax, DWORD PTR _name$[ebp]
	push	eax
	call	_hash_find
	add	esp, 8
	mov	DWORD PTR _entry$[ebp], eax

; 7187 : 
; 7188 :             if( entry ) {

	cmp	DWORD PTR _entry$[ebp], 0
	je	SHORT $LN4@hash_find_

; 7189 :                 if( table )

	cmp	DWORD PTR _table$[ebp], 0
	je	SHORT $LN3@hash_find_

; 7190 :                     *table = (HASH_TABLE *)list -> node;

	mov	ecx, DWORD PTR _table$[ebp]
	mov	edx, DWORD PTR _list$[ebp]
	mov	eax, DWORD PTR [edx]
	mov	DWORD PTR [ecx], eax
$LN3@hash_find_:

; 7191 : 
; 7192 :                 return( entry );

	mov	eax, DWORD PTR _entry$[ebp]
	jmp	SHORT $LN40@hash_find_
$LN4@hash_find_:

; 7193 :             }
; 7194 :         }

	jmp	SHORT $LN6@hash_find_
$LN5@hash_find_:

; 7195 : 
; 7196 :         if( table )

	cmp	DWORD PTR _table$[ebp], 0
	je	SHORT $LN2@hash_find_

; 7197 :             *table = NULL;

	mov	ecx, DWORD PTR _table$[ebp]
	mov	DWORD PTR [ecx], 0
$LN2@hash_find_:

; 7198 : 
; 7199 :         return( NULL );

	xor	eax, eax
	jmp	SHORT $LN40@hash_find_
$LN8@hash_find_:

; 7200 :     }
; 7201 : #else /* !RES_USE_FLAT_MODEL */
; 7202 : 
; 7203 :     if( path_used )
; 7204 :         entry = hash_find( filename, GLOBAL_HASH_TABLE );
; 7205 :     else
; 7206 :         entry = hash_find( name, GLOBAL_HASH_TABLE );
; 7207 : 
; 7208 :     if( !entry ) {
; 7209 :         if( table )
; 7210 :             *table = NULL;
; 7211 :     }
; 7212 :     else
; 7213 :         if( table )
; 7214 :             *table = GLOBAL_HASH_TABLE;
; 7215 : 
; 7216 :     return( entry );
; 7217 : #endif
; 7218 : 
; 7219 :     if( table )

	cmp	DWORD PTR _table$[ebp], 0
	je	SHORT $LN1@hash_find_

; 7220 :         *table = NULL;

	mov	edx, DWORD PTR _table$[ebp]
	mov	DWORD PTR [edx], 0
$LN1@hash_find_:

; 7221 : 
; 7222 :     return( NULL );

	xor	eax, eax
$LN40@hash_find_:

; 7223 : }   

	mov	ecx, DWORD PTR __$ArrayPad$[ebp]
	xor	ecx, ebp
	call	@__security_check_cookie@4
	mov	esp, ebp
	pop	ebp
	ret	0
_hash_find_table ENDP
_TEXT	ENDS
; Function compile flags: /Odtp
; File c:\users\zhitao li\documents\visual studio 2012\projects\freefalcon\codelib\resources\reslib\src\resmgr.c
_TEXT	SEGMENT
_ratio$1 = -12						; size = 4
_hash_val$ = -8						; size = 4
_entry$ = -4						; size = 4
_data$ = 8						; size = 4
_hsh$ = 12						; size = 4
_hash_add PROC

; 6521 : {

	push	ebp
	mov	ebp, esp
	sub	esp, 12					; 0000000cH

; 6522 :     int   hash_val;    
; 6523 : 
; 6524 :     HASH_ENTRY * entry=NULL;

	mov	DWORD PTR _entry$[ebp], 0

; 6525 : 
; 6526 : 
; 6527 :     /* If we need to do a resize, we want to do it when there
; 6528 :        are no HASH_ENTRY pointers being used.  Currently, the
; 6529 :        HASH_TABLE is NOT being checked for a lock before 
; 6530 :        a resize is performed.  This is not safe. */
; 6531 : 
; 6532 :     /* Resize before searching (and returning) a HASH_ENTRY ptr */
; 6533 : 
; 6534 : 	if(hsh -> num_entries)

	mov	eax, DWORD PTR _hsh$[ebp]
	cmp	DWORD PTR [eax+4], 0
	je	SHORT $LN6@hash_add

; 6535 : 	{
; 6536 : 		/* efficiency ratio of the hash table (entries/num slots)   */
; 6537 : 		float ratio = ((float)hsh -> table_size / (float)hsh -> num_entries );

	mov	ecx, DWORD PTR _hsh$[ebp]
	cvtsi2ss xmm0, DWORD PTR [ecx]
	mov	edx, DWORD PTR _hsh$[ebp]
	cvtsi2ss xmm1, DWORD PTR [edx+4]
	divss	xmm0, xmm1
	movss	DWORD PTR _ratio$1[ebp], xmm0

; 6538 : 
; 6539 : 		if( ratio < HASH_MINIMAL_RATIO )

	cvtss2sd xmm0, DWORD PTR _ratio$1[ebp]
	movsd	xmm1, QWORD PTR __real@3fe999999999999a
	comisd	xmm1, xmm0
	jbe	SHORT $LN6@hash_add

; 6540 : 			hash_resize( hsh );             /* WARNING: THIS IS STILL NOT THREAD SAFE! */

	mov	eax, DWORD PTR _hsh$[ebp]
	push	eax
	call	_hash_resize
	add	esp, 4
$LN6@hash_add:

; 6541 : 	}
; 6542 : 
; 6543 :     hash_val = hash( data -> name, hsh -> table_size );

	mov	ecx, DWORD PTR _hsh$[ebp]
	mov	edx, DWORD PTR [ecx]
	push	edx
	mov	eax, DWORD PTR _data$[ebp]
	add	eax, 36					; 00000024H
	push	eax
	call	_hash
	add	esp, 8
	mov	DWORD PTR _hash_val$[ebp], eax

; 6544 : 
; 6545 :     if( hsh -> table[ hash_val ].attrib ) {   /* an entry already exists here                    */

	mov	ecx, DWORD PTR _hash_val$[ebp]
	imul	ecx, 48					; 00000030H
	mov	edx, DWORD PTR _hsh$[ebp]
	mov	eax, DWORD PTR [edx+24]
	cmp	DWORD PTR [eax+ecx+28], 0
	je	SHORT $LN5@hash_add

; 6546 : #if( RES_USE_FLAT_MODEL )
; 6547 :         entry = hash_find( data -> name, hsh );
; 6548 : 
; 6549 :         if( entry ) {/* override automatically if this is the flat model */
; 6550 :             IF_LOG( LOG( "Override %s\n", data -> name ));
; 6551 : 
; 6552 :             entry -> name = hash_strcpy( hsh, data -> name );
; 6553 :             entry -> offset = 0;
; 6554 :             entry -> size = data -> size;
; 6555 :             entry -> attrib = data -> attrib | FORCE_BIT; /* FORCE_BIT ensures the field will be non-zero */
; 6556 :             /* entry -> next stays the same         */
; 6557 :             /* hsh -> num_entries stays the same    */
; 6558 :             return( entry );
; 6559 :         }
; 6560 : #endif /* RES_USE_FLAT_MODEL */
; 6561 : 
; 6562 :         entry = &hsh -> table[ hash_val ];

	mov	ecx, DWORD PTR _hash_val$[ebp]
	imul	ecx, 48					; 00000030H
	mov	edx, DWORD PTR _hsh$[ebp]
	add	ecx, DWORD PTR [edx+24]
	mov	DWORD PTR _entry$[ebp], ecx
$LN4@hash_add:

; 6563 : 
; 6564 :         while( entry -> next )                        /* go to the end of the list                    */

	mov	eax, DWORD PTR _entry$[ebp]
	cmp	DWORD PTR [eax+44], 0
	je	SHORT $LN3@hash_add

; 6565 :             entry = entry -> next;

	mov	ecx, DWORD PTR _entry$[ebp]
	mov	edx, DWORD PTR [ecx+44]
	mov	DWORD PTR _entry$[ebp], edx
	jmp	SHORT $LN4@hash_add
$LN3@hash_add:

; 6566 : 
; 6567 : 		#ifdef USE_SH_POOLS
; 6568 :         entry -> next = (HASH_ENTRY *)MemAllocPtr( gResmgrMemPool, sizeof(HASH_ENTRY), 0 );
; 6569 : 		#else
; 6570 :         entry -> next = (HASH_ENTRY *)MemMalloc( sizeof(HASH_ENTRY), "Hash entry" );

	push	48					; 00000030H
	call	_malloc
	add	esp, 4
	mov	ecx, DWORD PTR _entry$[ebp]
	mov	DWORD PTR [ecx+44], eax

; 6571 : 		#endif
; 6572 : 
; 6573 :         if( !entry -> next ) {                        /* malloc failed                                */ 

	mov	edx, DWORD PTR _entry$[ebp]
	cmp	DWORD PTR [edx+44], 0
	jne	SHORT $LN2@hash_add

; 6574 :             SAY_ERROR( RES_ERR_NO_MEMORY, "hash_add" );

	push	OFFSET ??_C@_0N@OMEJCDNJ@src?2resmgr?4c?$AA@
	push	6574					; 000019aeH
	push	OFFSET ??_C@_08KMLNCKGK@hash_add?$AA@
	push	-4999					; ffffec79H
	call	__say_error
	add	esp, 16					; 00000010H

; 6575 :             return( NULL );

	xor	eax, eax
	jmp	$LN8@hash_add
$LN2@hash_add:

; 6576 :         }
; 6577 : 
; 6578 : 		memset(entry ->next, 0, sizeof(HASH_ENTRY));	// OW BC

	push	48					; 00000030H
	push	0
	mov	eax, DWORD PTR _entry$[ebp]
	mov	ecx, DWORD PTR [eax+44]
	push	ecx
	call	_memset
	add	esp, 12					; 0000000cH

; 6579 : 
; 6580 :         entry = entry -> next;

	mov	edx, DWORD PTR _entry$[ebp]
	mov	eax, DWORD PTR [edx+44]
	mov	DWORD PTR _entry$[ebp], eax

; 6581 :     }
; 6582 :     else {

	jmp	SHORT $LN1@hash_add
$LN5@hash_add:

; 6583 :         entry = &hsh -> table[ hash_val ];

	mov	ecx, DWORD PTR _hash_val$[ebp]
	imul	ecx, 48					; 00000030H
	mov	edx, DWORD PTR _hsh$[ebp]
	add	ecx, DWORD PTR [edx+24]
	mov	DWORD PTR _entry$[ebp], ecx
$LN1@hash_add:

; 6584 :     }
; 6585 : 
; 6586 :     entry -> name = hash_strcpy( hsh, data -> name );

	mov	eax, DWORD PTR _data$[ebp]
	add	eax, 36					; 00000024H
	push	eax
	mov	ecx, DWORD PTR _hsh$[ebp]
	push	ecx
	call	_hash_strcpy
	add	esp, 8
	mov	edx, DWORD PTR _entry$[ebp]
	mov	DWORD PTR [edx], eax

; 6587 :     entry -> offset = 0;

	mov	eax, DWORD PTR _entry$[ebp]
	mov	DWORD PTR [eax+4], 0

; 6588 :     entry -> size = data -> size;

	mov	ecx, DWORD PTR _entry$[ebp]
	mov	edx, DWORD PTR _data$[ebp]
	mov	eax, DWORD PTR [edx+32]
	mov	DWORD PTR [ecx+8], eax

; 6589 :     entry -> attrib = data -> attrib | FORCE_BIT; /* FORCE_BIT ensures the field will be non-zero */

	mov	ecx, DWORD PTR _data$[ebp]
	mov	edx, DWORD PTR [ecx]
	or	edx, -2147483648			; 80000000H
	mov	eax, DWORD PTR _entry$[ebp]
	mov	DWORD PTR [eax+28], edx

; 6590 :     entry -> next = NULL;

	mov	ecx, DWORD PTR _entry$[ebp]
	mov	DWORD PTR [ecx+44], 0

; 6591 :     entry -> archive = -1; // Changed on AUG30th  [KBR]

	mov	edx, DWORD PTR _entry$[ebp]
	mov	DWORD PTR [edx+24], -1

; 6592 : #if( !RES_USE_FLAT_MODEL )
; 6593 :     entry -> dir = NULL;

	mov	eax, DWORD PTR _entry$[ebp]
	mov	DWORD PTR [eax+40], 0

; 6594 : #endif /* !RES_USE_FLAT_MODEL */
; 6595 : 
; 6596 :     hsh -> num_entries++;

	mov	ecx, DWORD PTR _hsh$[ebp]
	mov	edx, DWORD PTR [ecx+4]
	add	edx, 1
	mov	eax, DWORD PTR _hsh$[ebp]
	mov	DWORD PTR [eax+4], edx

; 6597 : 
; 6598 :     return( entry );

	mov	eax, DWORD PTR _entry$[ebp]
$LN8@hash_add:

; 6599 : }

	mov	esp, ebp
	pop	ebp
	ret	0
_hash_add ENDP
_TEXT	ENDS
; Function compile flags: /Odtp
; File c:\users\zhitao li\documents\visual studio 2012\projects\freefalcon\codelib\resources\reslib\src\resmgr.c
_TEXT	SEGMENT
_entry$ = -8						; size = 4
_hash_val$ = -4						; size = 4
_name$ = 8						; size = 4
_hsh$ = 12						; size = 4
_hash_find PROC

; 6775 : {

	push	ebp
	mov	ebp, esp
	sub	esp, 8

; 6776 :     int hash_val;
; 6777 :     HASH_ENTRY * entry;
; 6778 :     
; 6779 :     if( !GLOBAL_HASH_TABLE )

	cmp	DWORD PTR _GLOBAL_HASH_TABLE, 0
	jne	SHORT $LN8@hash_find

; 6780 :         return( NULL );

	xor	eax, eax
	jmp	$LN9@hash_find
$LN8@hash_find:

; 6781 : 
; 6782 :     hash_val = hash( name, hsh -> table_size );             /* calc the hash value for the given string */

	mov	eax, DWORD PTR _hsh$[ebp]
	mov	ecx, DWORD PTR [eax]
	push	ecx
	mov	edx, DWORD PTR _name$[ebp]
	push	edx
	call	_hash
	add	esp, 8
	mov	DWORD PTR _hash_val$[ebp], eax

; 6783 : 
; 6784 :     if( !hsh -> table[ hash_val ].attrib )                  /* no hash entry found                        */

	mov	eax, DWORD PTR _hash_val$[ebp]
	imul	eax, 48					; 00000030H
	mov	ecx, DWORD PTR _hsh$[ebp]
	mov	edx, DWORD PTR [ecx+24]
	cmp	DWORD PTR [edx+eax+28], 0
	jne	SHORT $LN7@hash_find

; 6785 :         return( NULL );                    

	xor	eax, eax
	jmp	$LN9@hash_find
$LN7@hash_find:

; 6786 : 
; 6787 :     if( hsh -> table[ hash_val ].next == NULL )

	mov	eax, DWORD PTR _hash_val$[ebp]
	imul	eax, 48					; 00000030H
	mov	ecx, DWORD PTR _hsh$[ebp]
	mov	edx, DWORD PTR [ecx+24]
	cmp	DWORD PTR [edx+eax+44], 0
	jne	SHORT $LN6@hash_find

; 6788 :         if( !stricmp( hsh -> table[ hash_val ].name, name ))

	mov	eax, DWORD PTR _name$[ebp]
	push	eax
	mov	ecx, DWORD PTR _hash_val$[ebp]
	imul	ecx, 48					; 00000030H
	mov	edx, DWORD PTR _hsh$[ebp]
	mov	eax, DWORD PTR [edx+24]
	mov	ecx, DWORD PTR [eax+ecx]
	push	ecx
	call	_stricmp
	add	esp, 8
	test	eax, eax
	jne	SHORT $LN6@hash_find

; 6789 :             return( &hsh -> table[ hash_val ] );            /* just one entry found in the hash position */

	mov	eax, DWORD PTR _hash_val$[ebp]
	imul	eax, 48					; 00000030H
	mov	edx, DWORD PTR _hsh$[ebp]
	add	eax, DWORD PTR [edx+24]
	jmp	SHORT $LN9@hash_find
$LN6@hash_find:

; 6790 : 
; 6791 :                                                             /* found imperfect hash entry                    */
; 6792 :     for( entry = &hsh -> table[ hash_val ]; entry; entry = entry -> next )

	mov	eax, DWORD PTR _hash_val$[ebp]
	imul	eax, 48					; 00000030H
	mov	ecx, DWORD PTR _hsh$[ebp]
	add	eax, DWORD PTR [ecx+24]
	mov	DWORD PTR _entry$[ebp], eax
	jmp	SHORT $LN4@hash_find
$LN3@hash_find:
	mov	edx, DWORD PTR _entry$[ebp]
	mov	eax, DWORD PTR [edx+44]
	mov	DWORD PTR _entry$[ebp], eax
$LN4@hash_find:
	cmp	DWORD PTR _entry$[ebp], 0
	je	SHORT $LN2@hash_find

; 6793 :         if( !stricmp( entry -> name, name ))

	mov	ecx, DWORD PTR _name$[ebp]
	push	ecx
	mov	edx, DWORD PTR _entry$[ebp]
	mov	eax, DWORD PTR [edx]
	push	eax
	call	_stricmp
	add	esp, 8
	test	eax, eax
	jne	SHORT $LN1@hash_find

; 6794 :             return( entry );                                /* assumes only one occurrence of a given name    */

	mov	eax, DWORD PTR _entry$[ebp]
	jmp	SHORT $LN9@hash_find
$LN1@hash_find:

; 6795 : 
; 6796 :     return( NULL );                                         /* not found                                    */

	jmp	SHORT $LN3@hash_find
$LN2@hash_find:
	xor	eax, eax
$LN9@hash_find:

; 6797 : }

	mov	esp, ebp
	pop	ebp
	ret	0
_hash_find ENDP
_TEXT	ENDS
; Function compile flags: /Odtp
; File c:\users\zhitao li\documents\visual studio 2012\projects\freefalcon\codelib\resources\reslib\src\resmgr.c
_TEXT	SEGMENT
_sizeb$ = -12						; size = 4
_string_space$ = -8					; size = 4
_hsh$ = -4						; size = 4
_size$ = 8						; size = 4
_name$ = 12						; size = 4
_hash_create PROC

; 6348 : {

	push	ebp
	mov	ebp, esp
	sub	esp, 12					; 0000000cH

; 6349 :     HASH_TABLE * hsh;
; 6350 :     char * string_space;
; 6351 :     int    sizeb;
; 6352 : 
; 6353 : 	#ifdef USE_SH_POOLS
; 6354 :     hsh = (HASH_TABLE *)MemAllocPtr( gResmgrMemPool, sizeof(HASH_TABLE), 0 );
; 6355 : 	#else
; 6356 :     hsh = (HASH_TABLE *)MemMalloc( sizeof(HASH_TABLE), "Hash wrapper" );

	push	28					; 0000001cH
	call	_malloc
	add	esp, 4
	mov	DWORD PTR _hsh$[ebp], eax

; 6357 : 	#endif
; 6358 : 
; 6359 :     if( !hsh ) {

	cmp	DWORD PTR _hsh$[ebp], 0
	jne	SHORT $LN3@hash_creat

; 6360 :         SAY_ERROR( RES_ERR_NO_MEMORY, "hash_create" );

	push	OFFSET ??_C@_0N@OMEJCDNJ@src?2resmgr?4c?$AA@
	push	6360					; 000018d8H
	push	OFFSET ??_C@_0M@CIGDFLFE@hash_create?$AA@
	push	-4999					; ffffec79H
	call	__say_error
	add	esp, 16					; 00000010H

; 6361 :         return( NULL );

	xor	eax, eax
	jmp	$LN4@hash_creat
$LN3@hash_creat:

; 6362 :     }
; 6363 :     
; 6364 : 	#ifdef USE_SH_POOLS
; 6365 :     hsh -> table = (HASH_ENTRY *)MemAllocPtr( gResmgrMemPool, size * sizeof(HASH_ENTRY), 0 );
; 6366 : 	#else
; 6367 :     hsh -> table = (HASH_ENTRY *)MemMalloc( size * sizeof(HASH_ENTRY), name );

	mov	eax, DWORD PTR _size$[ebp]
	imul	eax, 48					; 00000030H
	push	eax
	call	_malloc
	add	esp, 4
	mov	ecx, DWORD PTR _hsh$[ebp]
	mov	DWORD PTR [ecx+24], eax

; 6368 : 	#endif
; 6369 : 
; 6370 :     if( !hsh -> table ) {

	mov	edx, DWORD PTR _hsh$[ebp]
	cmp	DWORD PTR [edx+24], 0
	jne	SHORT $LN2@hash_creat

; 6371 :         SAY_ERROR( RES_ERR_NO_MEMORY, "hash_create" );

	push	OFFSET ??_C@_0N@OMEJCDNJ@src?2resmgr?4c?$AA@
	push	6371					; 000018e3H
	push	OFFSET ??_C@_0M@CIGDFLFE@hash_create?$AA@
	push	-4999					; ffffec79H
	call	__say_error
	add	esp, 16					; 00000010H

; 6372 :         return( NULL );

	xor	eax, eax
	jmp	$LN4@hash_creat
$LN2@hash_creat:

; 6373 :     }
; 6374 :     memset( hsh -> table, 0, size * sizeof(HASH_ENTRY));

	mov	eax, DWORD PTR _size$[ebp]
	imul	eax, 48					; 00000030H
	push	eax
	push	0
	mov	ecx, DWORD PTR _hsh$[ebp]
	mov	edx, DWORD PTR [ecx+24]
	push	edx
	call	_memset
	add	esp, 12					; 0000000cH

; 6375 : 
; 6376 :     sizeb = size * MAX_FILENAME;

	mov	eax, DWORD PTR _size$[ebp]
	imul	eax, 60					; 0000003cH
	mov	DWORD PTR _sizeb$[ebp], eax

; 6377 : 
; 6378 : 	#ifdef USE_SH_POOLS
; 6379 :     string_space = (char *)MemAllocPtr( gResmgrMemPool, sizeb, 0 );
; 6380 : 	#else
; 6381 :     string_space = (char *)MemMalloc( sizeb, "Strings" );

	mov	ecx, DWORD PTR _sizeb$[ebp]
	push	ecx
	call	_malloc
	add	esp, 4
	mov	DWORD PTR _string_space$[ebp], eax

; 6382 : 	#endif
; 6383 : 
; 6384 :     if( !string_space ) {

	cmp	DWORD PTR _string_space$[ebp], 0
	jne	SHORT $LN1@hash_creat

; 6385 :         SAY_ERROR( RES_ERR_NO_MEMORY, "hash_create" );

	push	OFFSET ??_C@_0N@OMEJCDNJ@src?2resmgr?4c?$AA@
	push	6385					; 000018f1H
	push	OFFSET ??_C@_0M@CIGDFLFE@hash_create?$AA@
	push	-4999					; ffffec79H
	call	__say_error
	add	esp, 16					; 00000010H

; 6386 :         return( NULL );

	xor	eax, eax
	jmp	SHORT $LN4@hash_creat
$LN1@hash_creat:

; 6387 :     }
; 6388 : 
; 6389 :     hsh -> table_size = size;

	mov	edx, DWORD PTR _hsh$[ebp]
	mov	eax, DWORD PTR _size$[ebp]
	mov	DWORD PTR [edx], eax

; 6390 :     hsh -> num_entries = 0;

	mov	ecx, DWORD PTR _hsh$[ebp]
	mov	DWORD PTR [ecx+4], 0

; 6391 :     hsh -> ptr_in = string_space;

	mov	edx, DWORD PTR _hsh$[ebp]
	mov	eax, DWORD PTR _string_space$[ebp]
	mov	DWORD PTR [edx+12], eax

; 6392 : 
; 6393 :     size = (int)(STRING_SAFETY_SIZE * (float)sizeb); /* safety buffer on string pool */

	cvtsi2ss xmm0, DWORD PTR _sizeb$[ebp]
	cvtss2sd xmm0, xmm0
	mulsd	xmm0, QWORD PTR __real@3feb333333333333
	cvttsd2si ecx, xmm0
	mov	DWORD PTR _size$[ebp], ecx

; 6394 :     hsh -> ptr_end = string_space + size;

	mov	edx, DWORD PTR _string_space$[ebp]
	add	edx, DWORD PTR _size$[ebp]
	mov	eax, DWORD PTR _hsh$[ebp]
	mov	DWORD PTR [eax+16], edx

; 6395 :     hsh -> str_list = NULL;

	mov	ecx, DWORD PTR _hsh$[ebp]
	mov	DWORD PTR [ecx+20], 0

; 6396 :     hsh -> str_list = LIST_APPEND( hsh->str_list, string_space );

	mov	edx, DWORD PTR _string_space$[ebp]
	push	edx
	mov	eax, DWORD PTR _hsh$[ebp]
	mov	ecx, DWORD PTR [eax+20]
	push	ecx
	call	_ListAppend
	add	esp, 8
	mov	edx, DWORD PTR _hsh$[ebp]
	mov	DWORD PTR [edx+20], eax

; 6397 : 
; 6398 :     hsh -> name = hash_strcpy( hsh, name );

	mov	eax, DWORD PTR _name$[ebp]
	push	eax
	mov	ecx, DWORD PTR _hsh$[ebp]
	push	ecx
	call	_hash_strcpy
	add	esp, 8
	mov	edx, DWORD PTR _hsh$[ebp]
	mov	DWORD PTR [edx+8], eax

; 6399 : 
; 6400 :     return( hsh );

	mov	eax, DWORD PTR _hsh$[ebp]
$LN4@hash_creat:

; 6401 : }

	mov	esp, ebp
	pop	ebp
	ret	0
_hash_create ENDP
_TEXT	ENDS
; Function compile flags: /Odtp
; File c:\users\zhitao li\documents\visual studio 2012\projects\freefalcon\codelib\resources\reslib\src\resmgr.c
_TEXT	SEGMENT
_index$ = -16						; size = 4
_curr$ = -12						; size = 4
_prev$ = -8						; size = 4
_entry$ = -4						; size = 4
_hsh$ = 8						; size = 4
_archive$ = 12						; size = 4
_volume$ = 16						; size = 4
_directory$ = 20					; size = 4
_filename$ = 24						; size = 4
_hash_purge PROC

; 6896 : {

	push	ebp
	mov	ebp, esp
	sub	esp, 16					; 00000010H

; 6897 :     int index;
; 6898 : 
; 6899 :     HASH_ENTRY * entry,
; 6900 :                * prev,
; 6901 :                * curr;
; 6902 : 
; 6903 :     if( archive ) {
; 6904 :         IF_LOG( LOG( "purging entries from archive %d\n", *archive ));
; 6905 :     }
; 6906 : 
; 6907 :     if( volume ) {
; 6908 :         IF_LOG( LOG( "purging entries from volume %d\n", *volume ));
; 6909 :     }
; 6910 : 
; 6911 :     if( directory ) {
; 6912 :         IF_LOG( LOG( "purging entries from directory %d\n", *directory ));
; 6913 :     }
; 6914 : 
; 6915 :     if( filename ) {
; 6916 :         IF_LOG( LOG( "purging entries named %s\n", filename ));
; 6917 :     }
; 6918 : 
; 6919 :     for( index = 0; index < hsh -> table_size; index++ ) {

	mov	DWORD PTR _index$[ebp], 0
	jmp	SHORT $LN24@hash_purge
$LN23@hash_purge:
	mov	eax, DWORD PTR _index$[ebp]
	add	eax, 1
	mov	DWORD PTR _index$[ebp], eax
$LN24@hash_purge:
	mov	ecx, DWORD PTR _hsh$[ebp]
	mov	edx, DWORD PTR _index$[ebp]
	cmp	edx, DWORD PTR [ecx]
	jge	$LN29@hash_purge

; 6920 :         entry = &hsh -> table[ index ];

	mov	eax, DWORD PTR _index$[ebp]
	imul	eax, 48					; 00000030H
	mov	ecx, DWORD PTR _hsh$[ebp]
	add	eax, DWORD PTR [ecx+24]
	mov	DWORD PTR _entry$[ebp], eax

; 6921 : 
; 6922 :         if( !entry -> attrib )

	mov	edx, DWORD PTR _entry$[ebp]
	cmp	DWORD PTR [edx+28], 0
	jne	SHORT $LN21@hash_purge

; 6923 :             continue; /* empty hash entry */

	jmp	SHORT $LN23@hash_purge
$LN21@hash_purge:

; 6924 :             
; 6925 :         if( entry -> next ) {

	mov	eax, DWORD PTR _entry$[ebp]
	cmp	DWORD PTR [eax+44], 0
	je	$LN20@hash_purge

; 6926 :             prev = entry;

	mov	ecx, DWORD PTR _entry$[ebp]
	mov	DWORD PTR _prev$[ebp], ecx

; 6927 :             curr = entry -> next;

	mov	edx, DWORD PTR _entry$[ebp]
	mov	eax, DWORD PTR [edx+44]
	mov	DWORD PTR _curr$[ebp], eax
$LN19@hash_purge:

; 6928 : 
; 6929 :             while( curr ) {

	cmp	DWORD PTR _curr$[ebp], 0
	je	$LN20@hash_purge

; 6930 :                 if( (volume && (curr -> volume == *volume)) ||
; 6931 :                     (archive && (curr -> archive == *archive)) ||
; 6932 :                     (directory && (curr -> directory == *directory)) ||
; 6933 :                     (filename && !strcmp(entry -> name, filename)) )

	cmp	DWORD PTR _volume$[ebp], 0
	je	SHORT $LN15@hash_purge
	mov	ecx, DWORD PTR _curr$[ebp]
	movsx	edx, BYTE PTR [ecx+36]
	mov	eax, DWORD PTR _volume$[ebp]
	movsx	ecx, BYTE PTR [eax]
	cmp	edx, ecx
	je	SHORT $LN16@hash_purge
$LN15@hash_purge:
	cmp	DWORD PTR _archive$[ebp], 0
	je	SHORT $LN14@hash_purge
	mov	edx, DWORD PTR _archive$[ebp]
	movsx	eax, BYTE PTR [edx]
	mov	ecx, DWORD PTR _curr$[ebp]
	cmp	DWORD PTR [ecx+24], eax
	je	SHORT $LN16@hash_purge
$LN14@hash_purge:
	cmp	DWORD PTR _directory$[ebp], 0
	je	SHORT $LN13@hash_purge
	mov	edx, DWORD PTR _curr$[ebp]
	mov	eax, DWORD PTR _directory$[ebp]
	mov	ecx, DWORD PTR [edx+32]
	cmp	ecx, DWORD PTR [eax]
	je	SHORT $LN16@hash_purge
$LN13@hash_purge:
	cmp	DWORD PTR _filename$[ebp], 0
	je	SHORT $LN17@hash_purge
	mov	edx, DWORD PTR _filename$[ebp]
	push	edx
	mov	eax, DWORD PTR _entry$[ebp]
	mov	ecx, DWORD PTR [eax]
	push	ecx
	call	_strcmp
	add	esp, 8
	test	eax, eax
	jne	SHORT $LN17@hash_purge
$LN16@hash_purge:

; 6934 :                 {
; 6935 :                     if( curr -> dir )

	mov	edx, DWORD PTR _curr$[ebp]
	cmp	DWORD PTR [edx+40], 0
	je	SHORT $LN12@hash_purge

; 6936 :                         hash_destroy((HASH_TABLE*)prev -> dir );

	mov	eax, DWORD PTR _prev$[ebp]
	mov	ecx, DWORD PTR [eax+40]
	push	ecx
	call	_hash_destroy
	add	esp, 4
$LN12@hash_purge:

; 6937 :                
; 6938 :                     prev -> next = curr -> next;

	mov	edx, DWORD PTR _prev$[ebp]
	mov	eax, DWORD PTR _curr$[ebp]
	mov	ecx, DWORD PTR [eax+44]
	mov	DWORD PTR [edx+44], ecx

; 6939 : 
; 6940 : 					#ifdef USE_SH_POOLS
; 6941 : 					MemFreePtr( curr );
; 6942 : 					#else
; 6943 : 					MemFree( curr );

	mov	edx, DWORD PTR _curr$[ebp]
	push	edx
	call	_free
	add	esp, 4

; 6944 : 					#endif
; 6945 :                 }
; 6946 :                 else

	jmp	SHORT $LN11@hash_purge
$LN17@hash_purge:

; 6947 :                     prev = curr;

	mov	eax, DWORD PTR _curr$[ebp]
	mov	DWORD PTR _prev$[ebp], eax
$LN11@hash_purge:

; 6948 : 
; 6949 :                 curr = prev -> next;

	mov	ecx, DWORD PTR _prev$[ebp]
	mov	edx, DWORD PTR [ecx+44]
	mov	DWORD PTR _curr$[ebp], edx

; 6950 :             }

	jmp	$LN19@hash_purge
$LN20@hash_purge:

; 6951 :         }
; 6952 :             
; 6953 :         if( (volume && (entry -> volume == *volume)) ||
; 6954 :             (archive && (entry -> archive == *archive)) ||
; 6955 :             (directory && (entry -> directory == *directory)) ||
; 6956 :             (filename && !strcmp(entry -> name, filename)) )

	cmp	DWORD PTR _volume$[ebp], 0
	je	SHORT $LN8@hash_purge
	mov	eax, DWORD PTR _entry$[ebp]
	movsx	ecx, BYTE PTR [eax+36]
	mov	edx, DWORD PTR _volume$[ebp]
	movsx	eax, BYTE PTR [edx]
	cmp	ecx, eax
	je	SHORT $LN9@hash_purge
$LN8@hash_purge:
	cmp	DWORD PTR _archive$[ebp], 0
	je	SHORT $LN7@hash_purge
	mov	ecx, DWORD PTR _archive$[ebp]
	movsx	edx, BYTE PTR [ecx]
	mov	eax, DWORD PTR _entry$[ebp]
	cmp	DWORD PTR [eax+24], edx
	je	SHORT $LN9@hash_purge
$LN7@hash_purge:
	cmp	DWORD PTR _directory$[ebp], 0
	je	SHORT $LN6@hash_purge
	mov	ecx, DWORD PTR _entry$[ebp]
	mov	edx, DWORD PTR _directory$[ebp]
	mov	eax, DWORD PTR [ecx+32]
	cmp	eax, DWORD PTR [edx]
	je	SHORT $LN9@hash_purge
$LN6@hash_purge:
	cmp	DWORD PTR _filename$[ebp], 0
	je	$LN10@hash_purge
	mov	ecx, DWORD PTR _filename$[ebp]
	push	ecx
	mov	edx, DWORD PTR _entry$[ebp]
	mov	eax, DWORD PTR [edx]
	push	eax
	call	_strcmp
	add	esp, 8
	test	eax, eax
	jne	$LN10@hash_purge
$LN9@hash_purge:

; 6957 :         {
; 6958 :             if( entry -> dir ) {

	mov	ecx, DWORD PTR _entry$[ebp]
	cmp	DWORD PTR [ecx+40], 0
	je	SHORT $LN5@hash_purge

; 6959 :                 hash_destroy((HASH_TABLE *)entry -> dir);

	mov	edx, DWORD PTR _entry$[ebp]
	mov	eax, DWORD PTR [edx+40]
	push	eax
	call	_hash_destroy
	add	esp, 4

; 6960 :                 entry -> dir = NULL;

	mov	ecx, DWORD PTR _entry$[ebp]
	mov	DWORD PTR [ecx+40], 0
$LN5@hash_purge:

; 6961 :             }
; 6962 : 
; 6963 :             if( entry -> next ) {

	mov	edx, DWORD PTR _entry$[ebp]
	cmp	DWORD PTR [edx+44], 0
	je	SHORT $LN4@hash_purge

; 6964 :                 prev = entry -> next;

	mov	eax, DWORD PTR _entry$[ebp]
	mov	ecx, DWORD PTR [eax+44]
	mov	DWORD PTR _prev$[ebp], ecx

; 6965 : 
; 6966 :                 memcpy( entry, prev, sizeof(HASH_ENTRY));

	push	48					; 00000030H
	mov	edx, DWORD PTR _prev$[ebp]
	push	edx
	mov	eax, DWORD PTR _entry$[ebp]
	push	eax
	call	_memcpy
	add	esp, 12					; 0000000cH

; 6967 : 
; 6968 :                 if( prev -> dir )

	mov	ecx, DWORD PTR _prev$[ebp]
	cmp	DWORD PTR [ecx+40], 0
	je	SHORT $LN3@hash_purge

; 6969 :                    hash_destroy((HASH_TABLE *)prev -> dir ); // navio: (408)328-0630

	mov	edx, DWORD PTR _prev$[ebp]
	mov	eax, DWORD PTR [edx+40]
	push	eax
	call	_hash_destroy
	add	esp, 4
$LN3@hash_purge:

; 6970 : 
; 6971 :                 entry -> next = prev -> next;

	mov	ecx, DWORD PTR _entry$[ebp]
	mov	edx, DWORD PTR _prev$[ebp]
	mov	eax, DWORD PTR [edx+44]
	mov	DWORD PTR [ecx+44], eax

; 6972 : 
; 6973 : 				#ifdef USE_SH_POOLS
; 6974 : 				MemFreePtr( prev );
; 6975 : 				#else
; 6976 : 				MemFree( prev );

	mov	ecx, DWORD PTR _prev$[ebp]
	push	ecx
	call	_free
	add	esp, 4

; 6977 : 				#endif
; 6978 :             }
; 6979 :             else {

	jmp	SHORT $LN10@hash_purge
$LN4@hash_purge:

; 6980 :                 entry -> attrib = 0;

	mov	edx, DWORD PTR _entry$[ebp]
	mov	DWORD PTR [edx+28], 0

; 6981 : 
; 6982 :                 if( entry -> dir ) {

	mov	eax, DWORD PTR _entry$[ebp]
	cmp	DWORD PTR [eax+40], 0
	je	SHORT $LN10@hash_purge

; 6983 :                     hash_destroy((HASH_TABLE *) entry -> dir );

	mov	ecx, DWORD PTR _entry$[ebp]
	mov	edx, DWORD PTR [ecx+40]
	push	edx
	call	_hash_destroy
	add	esp, 4

; 6984 :                     entry -> dir = NULL;

	mov	eax, DWORD PTR _entry$[ebp]
	mov	DWORD PTR [eax+40], 0
$LN10@hash_purge:

; 6985 :                 }
; 6986 :             }
; 6987 :         }
; 6988 :     }

	jmp	$LN23@hash_purge
$LN29@hash_purge:

; 6989 : }

	mov	esp, ebp
	pop	ebp
	ret	0
_hash_purge ENDP
_TEXT	ENDS
; Function compile flags: /Odtp
; File c:\users\zhitao li\documents\visual studio 2012\projects\freefalcon\codelib\resources\reslib\src\resmgr.c
_TEXT	SEGMENT
_entry$ = -16						; size = 4
_prev$ = -12						; size = 4
_curr$ = -8						; size = 4
_index$ = -4						; size = 4
_hsh$ = 8						; size = 4
_hash_destroy PROC

; 6418 : {

	push	ebp
	mov	ebp, esp
	sub	esp, 16					; 00000010H

; 6419 :     int index;
; 6420 :     HASH_ENTRY * entry,
; 6421 :                * prev,
; 6422 :                * curr;
; 6423 : 
; 6424 :     for( index=0; index < hsh -> table_size; index++ ) {

	mov	DWORD PTR _index$[ebp], 0
	jmp	SHORT $LN6@hash_destr
$LN5@hash_destr:
	mov	eax, DWORD PTR _index$[ebp]
	add	eax, 1
	mov	DWORD PTR _index$[ebp], eax
$LN6@hash_destr:
	mov	ecx, DWORD PTR _hsh$[ebp]
	mov	edx, DWORD PTR _index$[ebp]
	cmp	edx, DWORD PTR [ecx]
	jge	SHORT $LN4@hash_destr

; 6425 :         entry = &hsh -> table[index];

	mov	eax, DWORD PTR _index$[ebp]
	imul	eax, 48					; 00000030H
	mov	ecx, DWORD PTR _hsh$[ebp]
	add	eax, DWORD PTR [ecx+24]
	mov	DWORD PTR _entry$[ebp], eax

; 6426 : 
; 6427 :         entry -> attrib = 0;

	mov	edx, DWORD PTR _entry$[ebp]
	mov	DWORD PTR [edx+28], 0

; 6428 : 
; 6429 :         if( !entry -> next )

	mov	eax, DWORD PTR _entry$[ebp]
	cmp	DWORD PTR [eax+44], 0
	jne	SHORT $LN3@hash_destr

; 6430 :             continue;

	jmp	SHORT $LN5@hash_destr
$LN3@hash_destr:

; 6431 : 
; 6432 :         prev = entry -> next;

	mov	ecx, DWORD PTR _entry$[ebp]
	mov	edx, DWORD PTR [ecx+44]
	mov	DWORD PTR _prev$[ebp], edx

; 6433 :         curr = prev -> next;

	mov	eax, DWORD PTR _prev$[ebp]
	mov	ecx, DWORD PTR [eax+44]
	mov	DWORD PTR _curr$[ebp], ecx
$LN2@hash_destr:

; 6434 : 
; 6435 :         while( curr ) {

	cmp	DWORD PTR _curr$[ebp], 0
	je	SHORT $LN1@hash_destr

; 6436 : 			#ifdef USE_SH_POOLS
; 6437 : 			MemFreePtr( prev );
; 6438 : 			#else
; 6439 : 			MemFree( prev );

	mov	edx, DWORD PTR _prev$[ebp]
	push	edx
	call	_free
	add	esp, 4

; 6440 : 			#endif
; 6441 : 
; 6442 :             prev = curr;

	mov	eax, DWORD PTR _curr$[ebp]
	mov	DWORD PTR _prev$[ebp], eax

; 6443 :             curr = curr -> next;

	mov	ecx, DWORD PTR _curr$[ebp]
	mov	edx, DWORD PTR [ecx+44]
	mov	DWORD PTR _curr$[ebp], edx

; 6444 :         }

	jmp	SHORT $LN2@hash_destr
$LN1@hash_destr:

; 6445 : 
; 6446 : 		#ifdef USE_SH_POOLS
; 6447 : 		MemFreePtr( prev );
; 6448 : 		#else
; 6449 : 		MemFree( prev );

	mov	eax, DWORD PTR _prev$[ebp]
	push	eax
	call	_free
	add	esp, 4

; 6450 : 		#endif
; 6451 :     }

	jmp	SHORT $LN5@hash_destr
$LN4@hash_destr:

; 6452 : 
; 6453 : #if( RES_DEBUG_VERSION )
; 6454 :     hsh -> num_entries = 0;

	mov	ecx, DWORD PTR _hsh$[ebp]
	mov	DWORD PTR [ecx+4], 0

; 6455 :     hsh -> table_size = 0;

	mov	edx, DWORD PTR _hsh$[ebp]
	mov	DWORD PTR [edx], 0

; 6456 : #endif
; 6457 : 
; 6458 : 	#ifdef USE_SH_POOLS
; 6459 :     LIST_DESTROY(hsh->str_list, free);
; 6460 : 	#else
; 6461 :     LIST_DESTROY(hsh->str_list, MemFreePtr);

	push	OFFSET _free
	mov	eax, DWORD PTR _hsh$[ebp]
	mov	ecx, DWORD PTR [eax+20]
	push	ecx
	call	_ListDestroy
	add	esp, 8

; 6462 : 	#endif
; 6463 : 
; 6464 : 	#ifdef USE_SH_POOLS
; 6465 :     MemFreePtr( hsh -> table );
; 6466 :     MemFreePtr( hsh );
; 6467 : 	#else
; 6468 :     MemFree( hsh -> table );

	mov	edx, DWORD PTR _hsh$[ebp]
	mov	eax, DWORD PTR [edx+24]
	push	eax
	call	_free
	add	esp, 4

; 6469 :     MemFree( hsh );

	mov	ecx, DWORD PTR _hsh$[ebp]
	push	ecx
	call	_free
	add	esp, 4

; 6470 : 	#endif
; 6471 : }

	mov	esp, ebp
	pop	ebp
	ret	0
_hash_destroy ENDP
_TEXT	ENDS
; Function compile flags: /Odtp
; File c:\users\zhitao li\documents\visual studio 2012\projects\freefalcon\codelib\resources\reslib\src\resmgr.c
_TEXT	SEGMENT
_prev$ = -12						; size = 4
_i$ = -8						; size = 4
_entry$ = -4						; size = 4
_hash_entry$ = 8					; size = 4
_hsh$ = 12						; size = 4
_hash_delete PROC

; 6815 : {

	push	ebp
	mov	ebp, esp
	sub	esp, 12					; 0000000cH

; 6816 :     int i;
; 6817 :     
; 6818 :     HASH_ENTRY * entry,
; 6819 :                * prev;
; 6820 : 
; 6821 :     if( hash_entry -> dir )

	mov	eax, DWORD PTR _hash_entry$[ebp]
	cmp	DWORD PTR [eax+40], 0
	je	SHORT $LN11@hash_delet

; 6822 :         hash_destroy((HASH_TABLE *)hash_entry -> dir );

	mov	ecx, DWORD PTR _hash_entry$[ebp]
	mov	edx, DWORD PTR [ecx+40]
	push	edx
	call	_hash_destroy
	add	esp, 4
$LN11@hash_delet:

; 6823 : 
; 6824 :     for( i=0; i<hsh -> table_size; i++ ) {

	mov	DWORD PTR _i$[ebp], 0
	jmp	SHORT $LN10@hash_delet
$LN9@hash_delet:
	mov	eax, DWORD PTR _i$[ebp]
	add	eax, 1
	mov	DWORD PTR _i$[ebp], eax
$LN10@hash_delet:
	mov	ecx, DWORD PTR _hsh$[ebp]
	mov	edx, DWORD PTR _i$[ebp]
	cmp	edx, DWORD PTR [ecx]
	jge	$LN8@hash_delet

; 6825 :         entry = &hsh -> table[i];

	mov	eax, DWORD PTR _i$[ebp]
	imul	eax, 48					; 00000030H
	mov	ecx, DWORD PTR _hsh$[ebp]
	add	eax, DWORD PTR [ecx+24]
	mov	DWORD PTR _entry$[ebp], eax

; 6826 : 
; 6827 :         if( entry == hash_entry ) {

	mov	edx, DWORD PTR _entry$[ebp]
	cmp	edx, DWORD PTR _hash_entry$[ebp]
	jne	SHORT $LN7@hash_delet

; 6828 :             if( hash_entry -> next ) {              /* pop the chain of hash collisions */

	mov	eax, DWORD PTR _hash_entry$[ebp]
	cmp	DWORD PTR [eax+44], 0
	je	SHORT $LN6@hash_delet

; 6829 :                 entry = hash_entry -> next;

	mov	ecx, DWORD PTR _hash_entry$[ebp]
	mov	edx, DWORD PTR [ecx+44]
	mov	DWORD PTR _entry$[ebp], edx

; 6830 : 
; 6831 :                 memcpy( hash_entry, entry, sizeof( HASH_ENTRY ));

	push	48					; 00000030H
	mov	eax, DWORD PTR _entry$[ebp]
	push	eax
	mov	ecx, DWORD PTR _hash_entry$[ebp]
	push	ecx
	call	_memcpy
	add	esp, 12					; 0000000cH

; 6832 : 
; 6833 : 				#ifdef USE_SH_POOLS
; 6834 :                 MemFreePtr( entry );
; 6835 : 				#else
; 6836 :                 MemFree( entry );

	mov	edx, DWORD PTR _entry$[ebp]
	push	edx
	call	_free
	add	esp, 4

; 6837 : 				#endif
; 6838 :                 hsh -> num_entries--;

	mov	eax, DWORD PTR _hsh$[ebp]
	mov	ecx, DWORD PTR [eax+4]
	sub	ecx, 1
	mov	edx, DWORD PTR _hsh$[ebp]
	mov	DWORD PTR [edx+4], ecx

; 6839 :             }
; 6840 :             else

	jmp	SHORT $LN5@hash_delet
$LN6@hash_delet:

; 6841 :             {
; 6842 :                 entry -> attrib = 0;                /* no chain to pop.  just flag this entry as being empty */

	mov	eax, DWORD PTR _entry$[ebp]
	mov	DWORD PTR [eax+28], 0

; 6843 :                 hsh -> num_entries--;

	mov	ecx, DWORD PTR _hsh$[ebp]
	mov	edx, DWORD PTR [ecx+4]
	sub	edx, 1
	mov	eax, DWORD PTR _hsh$[ebp]
	mov	DWORD PTR [eax+4], edx
$LN5@hash_delet:

; 6844 :             }
; 6845 : 
; 6846 :             return( TRUE );

	mov	eax, 1
	jmp	SHORT $LN12@hash_delet
$LN7@hash_delet:

; 6847 :         }
; 6848 : 
; 6849 :         if( entry -> next ) {                       /* look for hash entry on a chain */

	mov	ecx, DWORD PTR _entry$[ebp]
	cmp	DWORD PTR [ecx+44], 0
	je	SHORT $LN4@hash_delet

; 6850 :             prev = entry;

	mov	edx, DWORD PTR _entry$[ebp]
	mov	DWORD PTR _prev$[ebp], edx

; 6851 :             entry = entry -> next;

	mov	eax, DWORD PTR _entry$[ebp]
	mov	ecx, DWORD PTR [eax+44]
	mov	DWORD PTR _entry$[ebp], ecx
$LN3@hash_delet:

; 6852 : 
; 6853 :             while( entry ) {

	cmp	DWORD PTR _entry$[ebp], 0
	je	SHORT $LN4@hash_delet

; 6854 :                 if( entry == hash_entry ) {

	mov	edx, DWORD PTR _entry$[ebp]
	cmp	edx, DWORD PTR _hash_entry$[ebp]
	jne	SHORT $LN1@hash_delet

; 6855 :                     prev -> next = entry -> next;   /* cut from chain */

	mov	eax, DWORD PTR _prev$[ebp]
	mov	ecx, DWORD PTR _entry$[ebp]
	mov	edx, DWORD PTR [ecx+44]
	mov	DWORD PTR [eax+44], edx

; 6856 : 
; 6857 : 					#ifdef USE_SH_POOLS
; 6858 : 					MemFreePtr( entry );
; 6859 : 					#else
; 6860 : 					MemFree( entry );

	mov	eax, DWORD PTR _entry$[ebp]
	push	eax
	call	_free
	add	esp, 4

; 6861 : 					#endif
; 6862 :                     hsh -> num_entries--;

	mov	ecx, DWORD PTR _hsh$[ebp]
	mov	edx, DWORD PTR [ecx+4]
	sub	edx, 1
	mov	eax, DWORD PTR _hsh$[ebp]
	mov	DWORD PTR [eax+4], edx

; 6863 : 
; 6864 :                     return( TRUE );

	mov	eax, 1
	jmp	SHORT $LN12@hash_delet
$LN1@hash_delet:

; 6865 :                 }
; 6866 : 
; 6867 :                 prev = entry;

	mov	ecx, DWORD PTR _entry$[ebp]
	mov	DWORD PTR _prev$[ebp], ecx

; 6868 :                 entry = entry -> next;

	mov	edx, DWORD PTR _entry$[ebp]
	mov	eax, DWORD PTR [edx+44]
	mov	DWORD PTR _entry$[ebp], eax

; 6869 :             }

	jmp	SHORT $LN3@hash_delet
$LN4@hash_delet:

; 6870 :         }
; 6871 :     }    

	jmp	$LN9@hash_delet
$LN8@hash_delet:

; 6872 : 
; 6873 :     return( FALSE );

	xor	eax, eax
$LN12@hash_delet:

; 6874 : }

	mov	esp, ebp
	pop	ebp
	ret	0
_hash_delete ENDP
_TEXT	ENDS
; Function compile flags: /Odtp
; File c:\users\zhitao li\documents\visual studio 2012\projects\freefalcon\codelib\resources\reslib\src\resmgr.c
_TEXT	SEGMENT
_val$ = -28						; size = 4
_entry$ = -24						; size = 4
_size$ = -20						; size = 4
_prev$ = -16						; size = 4
_dst$ = -12						; size = 4
_i$ = -8						; size = 4
_src$ = -4						; size = 4
_hsh$ = 8						; size = 4
_hash_resize PROC

; 6665 : {

	push	ebp
	mov	ebp, esp
	sub	esp, 28					; 0000001cH

; 6666 :     int size;
; 6667 :     int i, val;
; 6668 : 
; 6669 :     HASH_ENTRY * entry;
; 6670 :     HASH_ENTRY * src,
; 6671 :                * dst,
; 6672 :                * prev;
; 6673 : 
; 6674 :     IF_LOG( LOG( "resizing hash table %s\n", hsh -> name ));
; 6675 : 
; 6676 :     /* calc the size of the new hash table  */
; 6677 :     size = (int)((float)hsh -> num_entries * HASH_OPTIMAL_RATIO);

	mov	eax, DWORD PTR _hsh$[ebp]
	cvtsi2ss xmm0, DWORD PTR [eax+4]
	cvtss2sd xmm0, xmm0
	mulsd	xmm0, QWORD PTR __real@3ff2666666666666
	cvttsd2si ecx, xmm0
	mov	DWORD PTR _size$[ebp], ecx

; 6678 : 
; 6679 :     /* create the new hash entries          */
; 6680 : 
; 6681 : 	#ifdef USE_SH_POOLS
; 6682 :     entry = (HASH_ENTRY *)MemAllocPtr( gResmgrMemPool, size * sizeof( HASH_ENTRY ), 0 );
; 6683 : 	#else
; 6684 :     entry = (HASH_ENTRY *)MemMalloc( size * sizeof( HASH_ENTRY ), "Hash resized" );

	mov	edx, DWORD PTR _size$[ebp]
	imul	edx, 48					; 00000030H
	push	edx
	call	_malloc
	add	esp, 4
	mov	DWORD PTR _entry$[ebp], eax

; 6685 : 	#endif
; 6686 : 
; 6687 :     if( !entry ) {

	cmp	DWORD PTR _entry$[ebp], 0
	jne	SHORT $LN15@hash_resiz

; 6688 :         SAY_ERROR( RES_ERR_NO_MEMORY, "hash_resize" );

	push	OFFSET ??_C@_0N@OMEJCDNJ@src?2resmgr?4c?$AA@
	push	6688					; 00001a20H
	push	OFFSET ??_C@_0M@NHJDJJMK@hash_resize?$AA@
	push	-4999					; ffffec79H
	call	__say_error
	add	esp, 16					; 00000010H

; 6689 :         return( FALSE );

	xor	eax, eax
	jmp	$LN16@hash_resiz
$LN15@hash_resiz:

; 6690 :     }
; 6691 : 
; 6692 :     memset( entry, 0, size * sizeof(HASH_ENTRY));

	mov	eax, DWORD PTR _size$[ebp]
	imul	eax, 48					; 00000030H
	push	eax
	push	0
	mov	ecx, DWORD PTR _entry$[ebp]
	push	ecx
	call	_memset
	add	esp, 12					; 0000000cH

; 6693 : 
; 6694 :     /* we have to rehash ALL of the entries in the old table into the new table */
; 6695 : 
; 6696 :     for( i=0; i<hsh -> table_size; i++ ) {

	mov	DWORD PTR _i$[ebp], 0
	jmp	SHORT $LN14@hash_resiz
$LN13@hash_resiz:
	mov	edx, DWORD PTR _i$[ebp]
	add	edx, 1
	mov	DWORD PTR _i$[ebp], edx
$LN14@hash_resiz:
	mov	eax, DWORD PTR _hsh$[ebp]
	mov	ecx, DWORD PTR _i$[ebp]
	cmp	ecx, DWORD PTR [eax]
	jge	$LN12@hash_resiz

; 6697 :         src = &hsh -> table[i];

	mov	edx, DWORD PTR _i$[ebp]
	imul	edx, 48					; 00000030H
	mov	eax, DWORD PTR _hsh$[ebp]
	add	edx, DWORD PTR [eax+24]
	mov	DWORD PTR _src$[ebp], edx

; 6698 : 
; 6699 :         if( src -> attrib ) {

	mov	ecx, DWORD PTR _src$[ebp]
	cmp	DWORD PTR [ecx+28], 0
	je	SHORT $LN11@hash_resiz

; 6700 :             val = hash( src -> name, size );

	mov	edx, DWORD PTR _size$[ebp]
	push	edx
	mov	eax, DWORD PTR _src$[ebp]
	mov	ecx, DWORD PTR [eax]
	push	ecx
	call	_hash
	add	esp, 8
	mov	DWORD PTR _val$[ebp], eax

; 6701 :             dst = &entry[ val ];

	mov	edx, DWORD PTR _val$[ebp]
	imul	edx, 48					; 00000030H
	add	edx, DWORD PTR _entry$[ebp]
	mov	DWORD PTR _dst$[ebp], edx

; 6702 :             hash_copy( dst, src );

	mov	eax, DWORD PTR _src$[ebp]
	push	eax
	mov	ecx, DWORD PTR _dst$[ebp]
	push	ecx
	call	_hash_copy
	add	esp, 8
$LN11@hash_resiz:

; 6703 :         }
; 6704 : 
; 6705 :         if( src -> next ) {

	mov	edx, DWORD PTR _src$[ebp]
	cmp	DWORD PTR [edx+44], 0
	je	SHORT $LN7@hash_resiz

; 6706 :             for( src = src -> next; src; src = src -> next ) {

	mov	eax, DWORD PTR _src$[ebp]
	mov	ecx, DWORD PTR [eax+44]
	mov	DWORD PTR _src$[ebp], ecx
	jmp	SHORT $LN9@hash_resiz
$LN8@hash_resiz:
	mov	edx, DWORD PTR _src$[ebp]
	mov	eax, DWORD PTR [edx+44]
	mov	DWORD PTR _src$[ebp], eax
$LN9@hash_resiz:
	cmp	DWORD PTR _src$[ebp], 0
	je	SHORT $LN7@hash_resiz

; 6707 :                 val = hash( src -> name, size );

	mov	ecx, DWORD PTR _size$[ebp]
	push	ecx
	mov	edx, DWORD PTR _src$[ebp]
	mov	eax, DWORD PTR [edx]
	push	eax
	call	_hash
	add	esp, 8
	mov	DWORD PTR _val$[ebp], eax

; 6708 :                 dst = &entry[ val ];

	mov	ecx, DWORD PTR _val$[ebp]
	imul	ecx, 48					; 00000030H
	add	ecx, DWORD PTR _entry$[ebp]
	mov	DWORD PTR _dst$[ebp], ecx

; 6709 :                 hash_copy( dst, src );

	mov	edx, DWORD PTR _src$[ebp]
	push	edx
	mov	eax, DWORD PTR _dst$[ebp]
	push	eax
	call	_hash_copy
	add	esp, 8

; 6710 :             }        

	jmp	SHORT $LN8@hash_resiz
$LN7@hash_resiz:

; 6711 :         }
; 6712 :     }

	jmp	$LN13@hash_resiz
$LN12@hash_resiz:

; 6713 : 
; 6714 :     for( i=0; i<hsh -> table_size; i++ ) {

	mov	DWORD PTR _i$[ebp], 0
	jmp	SHORT $LN6@hash_resiz
$LN5@hash_resiz:
	mov	ecx, DWORD PTR _i$[ebp]
	add	ecx, 1
	mov	DWORD PTR _i$[ebp], ecx
$LN6@hash_resiz:
	mov	edx, DWORD PTR _hsh$[ebp]
	mov	eax, DWORD PTR _i$[ebp]
	cmp	eax, DWORD PTR [edx]
	jge	SHORT $LN4@hash_resiz

; 6715 :         src = &hsh -> table[i];

	mov	ecx, DWORD PTR _i$[ebp]
	imul	ecx, 48					; 00000030H
	mov	edx, DWORD PTR _hsh$[ebp]
	add	ecx, DWORD PTR [edx+24]
	mov	DWORD PTR _src$[ebp], ecx

; 6716 : 
; 6717 :         src -> attrib = 0;

	mov	eax, DWORD PTR _src$[ebp]
	mov	DWORD PTR [eax+28], 0

; 6718 : 
; 6719 :         if( !src -> next )

	mov	ecx, DWORD PTR _src$[ebp]
	cmp	DWORD PTR [ecx+44], 0
	jne	SHORT $LN3@hash_resiz

; 6720 :             continue;

	jmp	SHORT $LN5@hash_resiz
$LN3@hash_resiz:

; 6721 : 
; 6722 :         prev = src -> next;

	mov	edx, DWORD PTR _src$[ebp]
	mov	eax, DWORD PTR [edx+44]
	mov	DWORD PTR _prev$[ebp], eax

; 6723 :         dst = prev -> next;

	mov	ecx, DWORD PTR _prev$[ebp]
	mov	edx, DWORD PTR [ecx+44]
	mov	DWORD PTR _dst$[ebp], edx
$LN2@hash_resiz:

; 6724 : 
; 6725 :         while( dst ) {

	cmp	DWORD PTR _dst$[ebp], 0
	je	SHORT $LN1@hash_resiz

; 6726 :             prev -> next = NULL;

	mov	eax, DWORD PTR _prev$[ebp]
	mov	DWORD PTR [eax+44], 0

; 6727 : 
; 6728 : 			#ifdef USE_SH_POOLS
; 6729 : 			MemFreePtr( prev );
; 6730 : 			#else
; 6731 : 			MemFree( prev );

	mov	ecx, DWORD PTR _prev$[ebp]
	push	ecx
	call	_free
	add	esp, 4

; 6732 : 			#endif
; 6733 : 
; 6734 :             prev = dst;

	mov	edx, DWORD PTR _dst$[ebp]
	mov	DWORD PTR _prev$[ebp], edx

; 6735 :             dst = dst -> next;

	mov	eax, DWORD PTR _dst$[ebp]
	mov	ecx, DWORD PTR [eax+44]
	mov	DWORD PTR _dst$[ebp], ecx

; 6736 :         }

	jmp	SHORT $LN2@hash_resiz
$LN1@hash_resiz:

; 6737 : 
; 6738 : 		#ifdef USE_SH_POOLS
; 6739 : 		MemFreePtr( prev );
; 6740 : 		#else
; 6741 : 		MemFree( prev );

	mov	edx, DWORD PTR _prev$[ebp]
	push	edx
	call	_free
	add	esp, 4

; 6742 : 		#endif
; 6743 : 
; 6744 :         src -> next = NULL;

	mov	eax, DWORD PTR _src$[ebp]
	mov	DWORD PTR [eax+44], 0

; 6745 :     }

	jmp	$LN5@hash_resiz
$LN4@hash_resiz:

; 6746 : 
; 6747 : 	#ifdef USE_SH_POOLS
; 6748 : 	MemFreePtr( hsh->table );
; 6749 : 	#else
; 6750 : 	MemFree( hsh->table );

	mov	ecx, DWORD PTR _hsh$[ebp]
	mov	edx, DWORD PTR [ecx+24]
	push	edx
	call	_free
	add	esp, 4

; 6751 : 	#endif
; 6752 : 
; 6753 :     hsh -> table_size = size;

	mov	eax, DWORD PTR _hsh$[ebp]
	mov	ecx, DWORD PTR _size$[ebp]
	mov	DWORD PTR [eax], ecx

; 6754 :     hsh -> table = entry;

	mov	edx, DWORD PTR _hsh$[ebp]
	mov	eax, DWORD PTR _entry$[ebp]
	mov	DWORD PTR [edx+24], eax

; 6755 : 
; 6756 :     return( TRUE );

	mov	eax, 1
$LN16@hash_resiz:

; 6757 : }

	mov	esp, ebp
	pop	ebp
	ret	0
_hash_resize ENDP
_TEXT	ENDS
; Function compile flags: /Odtp
; File c:\users\zhitao li\documents\visual studio 2012\projects\freefalcon\codelib\resources\reslib\src\resmgr.c
_TEXT	SEGMENT
_i$ = -12						; size = 4
_res$ = -8						; size = 4
_pos$ = -4						; size = 4
_string$ = 8						; size = 4
_size$ = 12						; size = 4
_hash	PROC

; 6300 : {

	push	ebp
	mov	ebp, esp
	sub	esp, 12					; 0000000cH

; 6301 :     int i;
; 6302 : 
; 6303 : #if( USE_SEDGEWICK )
; 6304 :     for( i = 0; *string != '\0'; string++ )
; 6305 :         i = (HASH_CONST * i + (toupper(*string))) % size;
; 6306 : #   error   DO NOT USE SEDGEWICK - RH
; 6307 : #endif
; 6308 : 
; 6309 : #if( USE_AFU )
; 6310 :     int  res = 0;

	mov	DWORD PTR _res$[ebp], 0

; 6311 :     int  pos = 1;

	mov	DWORD PTR _pos$[ebp], 1
$LN2@hash:

; 6312 : 
; 6313 :     while( *string ) {

	mov	eax, DWORD PTR _string$[ebp]
	movsx	ecx, BYTE PTR [eax]
	test	ecx, ecx
	je	SHORT $LN1@hash

; 6314 :       res += toupper(*string) * pos;

	mov	edx, DWORD PTR _string$[ebp]
	movsx	eax, BYTE PTR [edx]
	push	eax
	call	_toupper
	add	esp, 4
	imul	eax, DWORD PTR _pos$[ebp]
	add	eax, DWORD PTR _res$[ebp]
	mov	DWORD PTR _res$[ebp], eax

; 6315 : 
; 6316 :       pos++;

	mov	ecx, DWORD PTR _pos$[ebp]
	add	ecx, 1
	mov	DWORD PTR _pos$[ebp], ecx

; 6317 :       string++;

	mov	edx, DWORD PTR _string$[ebp]
	add	edx, 1
	mov	DWORD PTR _string$[ebp], edx

; 6318 :     }

	jmp	SHORT $LN2@hash
$LN1@hash:

; 6319 : 
; 6320 :     i = ( res & 0xffffff ) % size;

	mov	eax, DWORD PTR _res$[ebp]
	and	eax, 16777215				; 00ffffffH
	cdq
	idiv	DWORD PTR _size$[ebp]
	mov	DWORD PTR _i$[ebp], edx

; 6321 : #endif
; 6322 : 
; 6323 :     return(i);

	mov	eax, DWORD PTR _i$[ebp]

; 6324 : }

	mov	esp, ebp
	pop	ebp
	ret	0
_hash	ENDP
_TEXT	ENDS
; Function compile flags: /Odtp
; File c:\users\zhitao li\documents\visual studio 2012\projects\freefalcon\codelib\resources\reslib\src\resmgr.c
_TEXT	SEGMENT
_data$ = -4						; size = 4
_thread_data$ = 8					; size = 4
_asynch_read PROC

; 5979 : {

	push	ebp
	mov	ebp, esp
	push	ecx

; 5980 :    ASYNCH_DATA * data;
; 5981 : 
; 5982 :    data = (ASYNCH_DATA *)thread_data;

	mov	eax, DWORD PTR _thread_data$[ebp]
	mov	DWORD PTR _data$[ebp], eax

; 5983 : 
; 5984 :    _read( data->file, data->buffer, data->size );

	mov	ecx, DWORD PTR _data$[ebp]
	mov	edx, DWORD PTR [ecx+8]
	push	edx
	mov	eax, DWORD PTR _data$[ebp]
	mov	ecx, DWORD PTR [eax+4]
	push	ecx
	mov	edx, DWORD PTR _data$[ebp]
	mov	eax, DWORD PTR [edx]
	push	eax
	call	__read
	add	esp, 12					; 0000000cH

; 5985 : 
; 5986 :    if( data->callback )

	mov	ecx, DWORD PTR _data$[ebp]
	cmp	DWORD PTR [ecx+12], 0
	je	SHORT $LN1@asynch_rea

; 5987 :       (*(data->callback))(data->file);

	mov	edx, DWORD PTR _data$[ebp]
	mov	eax, DWORD PTR [edx]
	push	eax
	mov	ecx, DWORD PTR _data$[ebp]
	mov	edx, DWORD PTR [ecx+12]
	call	edx
	add	esp, 4
$LN1@asynch_rea:

; 5988 : 
; 5989 : 	#ifdef USE_SH_POOLS
; 5990 :     MemFreePtr(data);
; 5991 : 	#else
; 5992 :     MemFree(data);

	mov	eax, DWORD PTR _data$[ebp]
	push	eax
	call	_free
	add	esp, 4

; 5993 : 	#endif
; 5994 : 
; 5995 :    IF_LOG( LOG( "Read thread exited." ));
; 5996 : }

	mov	esp, ebp
	pop	ebp
	ret	0
_asynch_read ENDP
_TEXT	ENDS
; Function compile flags: /Odtp
; File c:\users\zhitao li\documents\visual studio 2012\projects\freefalcon\codelib\resources\reslib\src\resmgr.c
_TEXT	SEGMENT
_check$ = -8						; size = 4
_data$ = -4						; size = 4
_thread_data$ = 8					; size = 4
_asynch_write PROC

; 5943 : {

	push	ebp
	mov	ebp, esp
	sub	esp, 8

; 5944 :    int check;
; 5945 :    ASYNCH_DATA * data;
; 5946 : 
; 5947 :    data = (ASYNCH_DATA *)thread_data;

	mov	eax, DWORD PTR _thread_data$[ebp]
	mov	DWORD PTR _data$[ebp], eax

; 5948 : 
; 5949 :    check = _write( data->file, data->buffer, data->size );

	mov	ecx, DWORD PTR _data$[ebp]
	mov	edx, DWORD PTR [ecx+8]
	push	edx
	mov	eax, DWORD PTR _data$[ebp]
	mov	ecx, DWORD PTR [eax+4]
	push	ecx
	mov	edx, DWORD PTR _data$[ebp]
	mov	eax, DWORD PTR [edx]
	push	eax
	call	__write
	add	esp, 12					; 0000000cH
	mov	DWORD PTR _check$[ebp], eax

; 5950 : 
; 5951 :    if( data->callback )

	mov	ecx, DWORD PTR _data$[ebp]
	cmp	DWORD PTR [ecx+12], 0
	je	SHORT $LN1@asynch_wri

; 5952 :       (*(data->callback))(data->file);

	mov	edx, DWORD PTR _data$[ebp]
	mov	eax, DWORD PTR [edx]
	push	eax
	mov	ecx, DWORD PTR _data$[ebp]
	mov	edx, DWORD PTR [ecx+12]
	call	edx
	add	esp, 4
$LN1@asynch_wri:

; 5953 : 
; 5954 : 	#ifdef USE_SH_POOLS
; 5955 :     MemFreePtr(data);
; 5956 : 	#else
; 5957 :     MemFree(data);

	mov	eax, DWORD PTR _data$[ebp]
	push	eax
	call	_free
	add	esp, 4

; 5958 : 	#endif
; 5959 : 
; 5960 :    IF_LOG( LOG( "Write thread exited." ));
; 5961 : }

	mov	esp, ebp
	pop	ebp
	ret	0
_asynch_write ENDP
_TEXT	ENDS
; Function compile flags: /Odtp
; File c:\users\zhitao li\documents\visual studio 2012\projects\freefalcon\codelib\resources\reslib\src\resmgr.c
_TEXT	SEGMENT
_err_code$ = -300					; size = 4
_blank$ = -296						; size = 4
_retval$ = -292						; size = 4
tv75 = -288						; size = 4
_buffer$ = -284						; size = 255
_title$ = -28						; size = 24
__$ArrayPad$ = -4					; size = 4
_error$ = 8						; size = 4
_msg$ = 12						; size = 4
_line$ = 16						; size = 4
_filename$ = 20						; size = 4
__say_error PROC

; 7320 : {

	push	ebp
	mov	ebp, esp
	sub	esp, 300				; 0000012cH
	mov	eax, DWORD PTR ___security_cookie
	xor	eax, ebp
	mov	DWORD PTR __$ArrayPad$[ebp], eax

; 7321 :     int err_code;
; 7322 :     char buffer[ 255 ];
; 7323 :     char title[] = "Resource Manager Error!";

	mov	eax, DWORD PTR ??_C@_0BI@KKHIDFIG@Resource?5Manager?5Error?$CB?$AA@
	mov	DWORD PTR _title$[ebp], eax
	mov	ecx, DWORD PTR ??_C@_0BI@KKHIDFIG@Resource?5Manager?5Error?$CB?$AA@+4
	mov	DWORD PTR _title$[ebp+4], ecx
	mov	edx, DWORD PTR ??_C@_0BI@KKHIDFIG@Resource?5Manager?5Error?$CB?$AA@+8
	mov	DWORD PTR _title$[ebp+8], edx
	mov	eax, DWORD PTR ??_C@_0BI@KKHIDFIG@Resource?5Manager?5Error?$CB?$AA@+12
	mov	DWORD PTR _title$[ebp+12], eax
	mov	ecx, DWORD PTR ??_C@_0BI@KKHIDFIG@Resource?5Manager?5Error?$CB?$AA@+16
	mov	DWORD PTR _title$[ebp+16], ecx
	mov	edx, DWORD PTR ??_C@_0BI@KKHIDFIG@Resource?5Manager?5Error?$CB?$AA@+20
	mov	DWORD PTR _title$[ebp+20], edx

; 7324 :     char blank[] = "???";

	mov	eax, DWORD PTR ??_C@_03BBKEAIF@?$DP?$DP?$DP?$AA@
	mov	DWORD PTR _blank$[ebp], eax

; 7325 :     int  retval = 1;

	mov	DWORD PTR _retval$[ebp], 1

; 7326 : 
; 7327 :     IF_LOG( LOG( "ERROR (line: %d  file: %s):\n", line, filename ));
; 7328 : 
; 7329 :     if( !msg )

	cmp	DWORD PTR _msg$[ebp], 0
	jne	SHORT $LN11@say_error

; 7330 :         msg = blank;

	lea	ecx, DWORD PTR _blank$[ebp]
	mov	DWORD PTR _msg$[ebp], ecx
$LN11@say_error:

; 7331 : 
; 7332 :     RES_DEBUG_ERRNO = error;    /* set the equiv. of an errno */

	mov	edx, DWORD PTR _error$[ebp]
	mov	DWORD PTR _RES_DEBUG_ERRNO, edx

; 7333 :     err_code = error;

	mov	eax, DWORD PTR _error$[ebp]
	mov	DWORD PTR _err_code$[ebp], eax

; 7334 : 
; 7335 :     switch( error ) {

	mov	ecx, DWORD PTR _error$[ebp]
	mov	DWORD PTR tv75[ebp], ecx
	cmp	DWORD PTR tv75[ebp], 2
	je	SHORT $LN6@say_error
	cmp	DWORD PTR tv75[ebp], 13			; 0000000dH
	je	SHORT $LN8@say_error
	cmp	DWORD PTR tv75[ebp], 17			; 00000011H
	je	SHORT $LN7@say_error
	jmp	SHORT $LN5@say_error
$LN8@say_error:

; 7336 :         /* from erno.h */
; 7337 : 
; 7338 :         case EACCES:
; 7339 :             sprintf( buffer, "Tried to open read-only file (%s) for writing.", msg );

	mov	edx, DWORD PTR _msg$[ebp]
	push	edx
	push	OFFSET ??_C@_0CP@MDMMLIAJ@Tried?5to?5open?5read?9only?5file?5?$CI?$CFs@
	lea	eax, DWORD PTR _buffer$[ebp]
	push	eax
	call	_sprintf
	add	esp, 12					; 0000000cH

; 7340 :             break;

	jmp	$LN9@say_error
$LN7@say_error:

; 7341 : 
; 7342 :         case EEXIST:
; 7343 :             sprintf( buffer, "Create flag specified, but filename (%s) already exists.", msg );

	mov	ecx, DWORD PTR _msg$[ebp]
	push	ecx
	push	OFFSET ??_C@_0DJ@PDPAPLDJ@Create?5flag?5specified?0?5but?5filen@
	lea	edx, DWORD PTR _buffer$[ebp]
	push	edx
	call	_sprintf
	add	esp, 12					; 0000000cH

; 7344 :             break;

	jmp	$LN9@say_error
$LN6@say_error:

; 7345 : 
; 7346 :         case ENOENT:
; 7347 :             sprintf( buffer, "File or path not found. (%s).", msg );

	mov	eax, DWORD PTR _msg$[ebp]
	push	eax
	push	OFFSET ??_C@_0BO@EMKGDOO@File?5or?5path?5not?5found?4?5?$CI?$CFs?$CJ?4?$AA@
	lea	ecx, DWORD PTR _buffer$[ebp]
	push	ecx
	call	_sprintf
	add	esp, 12					; 0000000cH

; 7348 :             break;

	jmp	SHORT $LN9@say_error
$LN5@say_error:

; 7349 : 
; 7350 :         default:    /* an error that is specific to this file */
; 7351 :             if( (error > RES_ERR_FIRST_ERROR) && (error < RES_ERR_LAST_ERROR) ) {

	cmp	DWORD PTR _error$[ebp], -5000		; ffffec78H
	jle	SHORT $LN4@say_error
	cmp	DWORD PTR _error$[ebp], -4967		; ffffec99H
	jge	SHORT $LN4@say_error

; 7352 :                 /* error values run from -5000 up, so error will always be negative,
; 7353 :                    and so will (RES_ERR_OR_FIRST+1).  We want to normalize this to 
; 7354 :                    0,1,2,3... */
; 7355 : 
; 7356 :                 error = error + (-RES_ERR_FIRST_ERROR - 1);

	mov	edx, DWORD PTR _error$[ebp]
	add	edx, 4999				; 00001387H
	mov	DWORD PTR _error$[ebp], edx

; 7357 : 
; 7358 :                 sprintf( buffer, "%s (%s)\n\n\nFile: %s\nLine: %d",  RES_ERR_OR_MSGS[ error ], msg, filename, line );

	mov	eax, DWORD PTR _line$[ebp]
	push	eax
	mov	ecx, DWORD PTR _filename$[ebp]
	push	ecx
	mov	edx, DWORD PTR _msg$[ebp]
	push	edx
	mov	eax, DWORD PTR _error$[ebp]
	mov	ecx, DWORD PTR _RES_ERR_OR_MSGS[eax*4]
	push	ecx
	push	OFFSET ??_C@_0BM@HGBGFIMO@?$CFs?5?$CI?$CFs?$CJ?6?6?6File?3?5?$CFs?6Line?3?5?$CFd?$AA@
	lea	edx, DWORD PTR _buffer$[ebp]
	push	edx
	call	_sprintf
	add	esp, 24					; 00000018H

; 7359 :             }
; 7360 :             else {

	jmp	SHORT $LN9@say_error
$LN4@say_error:

; 7361 :                 sprintf( buffer, "Unknown error encountered with file. (%s)\n\n\nFile: %s\nLine: %d\n", msg, filename, line );

	mov	eax, DWORD PTR _line$[ebp]
	push	eax
	mov	ecx, DWORD PTR _filename$[ebp]
	push	ecx
	mov	edx, DWORD PTR _msg$[ebp]
	push	edx
	push	OFFSET ??_C@_0DP@KAFHBHNB@Unknown?5error?5encountered?5with?5f@
	lea	eax, DWORD PTR _buffer$[ebp]
	push	eax
	call	_sprintf
	add	esp, 20					; 00000014H
$LN9@say_error:

; 7362 :             }
; 7363 :     }
; 7364 : 
; 7365 :     IF_LOG( LOG( "---> %s\n", buffer ));
; 7366 : 
; 7367 :     SHOULD_I_CALL_WITH( CALLBACK_ERROR, err_code, retval );

	mov	ecx, 4
	shl	ecx, 3
	cmp	DWORD PTR _RES_CALLBACK[ecx], 0
	je	SHORT $LN2@say_error
	mov	edx, DWORD PTR _err_code$[ebp]
	push	edx
	mov	eax, 4
	shl	eax, 3
	mov	ecx, DWORD PTR _RES_CALLBACK[eax]
	call	ecx
	add	esp, 4
	mov	DWORD PTR _retval$[ebp], eax
$LN2@say_error:

; 7368 : 
; 7369 : //    MessageBox( NULL, buffer, title, MB_OK | MB_ICONEXCLAMATION );
; 7370 : 
; 7371 :     if( !retval )

	cmp	DWORD PTR _retval$[ebp], 0
	jne	SHORT $LN12@say_error

; 7372 :         MessageBox( RES_GLOBAL_HWND, buffer, title, MB_OK | MB_ICONEXCLAMATION );

	push	48					; 00000030H
	lea	edx, DWORD PTR _title$[ebp]
	push	edx
	lea	eax, DWORD PTR _buffer$[ebp]
	push	eax
	mov	ecx, DWORD PTR _RES_GLOBAL_HWND
	push	ecx
	call	DWORD PTR __imp__MessageBoxA@16
$LN12@say_error:

; 7373 : }

	mov	ecx, DWORD PTR __$ArrayPad$[ebp]
	xor	ecx, ebp
	call	@__security_check_cookie@4
	mov	esp, ebp
	pop	ebp
	ret	0
__say_error ENDP
_TEXT	ENDS
; Function compile flags: /Odtp
; File c:\users\zhitao li\documents\visual studio 2012\projects\freefalcon\codelib\resources\reslib\src\resmgr.c
_TEXT	SEGMENT
tv66 = -4						; size = 4
_dev$ = 8						; size = 4
_dbg_device PROC

; 7425 : {

	push	ebp
	mov	ebp, esp
	push	ecx

; 7426 :     IF_LOG( LOG( "Drive letter:  %c\n", dev -> letter  ));
; 7427 :     IF_LOG( LOG( "Volume name:   %s\n", dev -> name ));
; 7428 :     IF_LOG( LOG( "Serial num:    %x-%x\n", HI_WORD(dev->serial), LO_WORD(dev -> serial)));
; 7429 :     IF_LOG( LOG( "Type:          [%d] ", dev -> type ));
; 7430 : 
; 7431 :     switch( dev -> type ) {

	mov	eax, DWORD PTR _dev$[ebp]
	movsx	ecx, BYTE PTR [eax+1]
	mov	DWORD PTR tv66[ebp], ecx

; 7432 :         case 1:                    IF_LOG( LOG( "The root directory does not exist.\n" )); break;
; 7433 :         case DRIVE_REMOVABLE:    IF_LOG( LOG( "The drive can be removed from the drive.\n" )); break;
; 7434 :         case DRIVE_FIXED:        IF_LOG( LOG( "The disk cannot be removed from the drive.\n" )); break;
; 7435 :         case DRIVE_REMOTE:        IF_LOG( LOG( "The drive is a remote (network) drive.\n" )); break;
; 7436 :         case DRIVE_CDROM:        IF_LOG( LOG( "The drive is a CD-ROM drive.\n" )); break;
; 7437 :         case DRIVE_RAMDISK:        IF_LOG( LOG( "The drive is a RAM disk.\n" )); break;
; 7438 :             
; 7439 :         case 0:
; 7440 :         default:                IF_LOG( LOG( "The drive type cannot be determined.\n" ));
; 7441 :     }
; 7442 :            
; 7443 :     IF_LOG( LOG( "----------------\n" ));
; 7444 : }

	mov	esp, ebp
	pop	ebp
	ret	0
_dbg_device ENDP
_TEXT	ENDS
; Function compile flags: /Odtp
; File c:\users\zhitao li\documents\visual studio 2012\projects\freefalcon\codelib\resources\reslib\src\resmgr.c
_TEXT	SEGMENT
_hits$ = -16						; size = 4
_entry$ = -12						; size = 4
_count$ = -8						; size = 4
_i$ = -4						; size = 4
_hsh$ = 8						; size = 4
_dbg_dir PROC

; 7512 : {

	push	ebp
	mov	ebp, esp
	sub	esp, 16					; 00000010H

; 7513 :     int i,
; 7514 :         count,
; 7515 :         hits = 0;

	mov	DWORD PTR _hits$[ebp], 0

; 7516 : 
; 7517 :     HASH_ENTRY * entry;
; 7518 : 
; 7519 :     count = 0;

	mov	DWORD PTR _count$[ebp], 0

; 7520 : 
; 7521 :     IF_LOG( LOG( "\n\n" ));
; 7522 : 
; 7523 :     for( i=0; i<hsh->table_size; i++ ) {

	mov	DWORD PTR _i$[ebp], 0
	jmp	SHORT $LN10@dbg_dir
$LN9@dbg_dir:
	mov	eax, DWORD PTR _i$[ebp]
	add	eax, 1
	mov	DWORD PTR _i$[ebp], eax
$LN10@dbg_dir:
	mov	ecx, DWORD PTR _hsh$[ebp]
	mov	edx, DWORD PTR _i$[ebp]
	cmp	edx, DWORD PTR [ecx]
	jge	$LN11@dbg_dir

; 7524 :         if( hsh -> table[i].next ) {

	mov	eax, DWORD PTR _i$[ebp]
	imul	eax, 48					; 00000030H
	mov	ecx, DWORD PTR _hsh$[ebp]
	mov	edx, DWORD PTR [ecx+24]
	cmp	DWORD PTR [edx+eax+44], 0
	je	SHORT $LN7@dbg_dir

; 7525 :             hits++;

	mov	eax, DWORD PTR _hits$[ebp]
	add	eax, 1
	mov	DWORD PTR _hits$[ebp], eax

; 7526 :             entry = &hsh -> table[i];

	mov	ecx, DWORD PTR _i$[ebp]
	imul	ecx, 48					; 00000030H
	mov	edx, DWORD PTR _hsh$[ebp]
	add	ecx, DWORD PTR [edx+24]
	mov	DWORD PTR _entry$[ebp], ecx
$LN6@dbg_dir:

; 7527 : 
; 7528 :             while( entry ) {

	cmp	DWORD PTR _entry$[ebp], 0
	je	SHORT $LN5@dbg_dir

; 7529 :                 IF_LOG( LOG( "%-14s ", entry -> name ));
; 7530 :                 count++;

	mov	eax, DWORD PTR _count$[ebp]
	add	eax, 1
	mov	DWORD PTR _count$[ebp], eax

; 7531 :                 if( !(count % 4)) IF_LOG( LOG( "\n" ));

	mov	ecx, DWORD PTR _count$[ebp]
	and	ecx, -2147483645			; 80000003H
	jns	SHORT $LN13@dbg_dir
	dec	ecx
	or	ecx, -4					; fffffffcH
	inc	ecx
$LN13@dbg_dir:

; 7532 :            
; 7533 :                 entry = entry -> next;

	mov	edx, DWORD PTR _entry$[ebp]
	mov	eax, DWORD PTR [edx+44]
	mov	DWORD PTR _entry$[ebp], eax

; 7534 :             }

	jmp	SHORT $LN6@dbg_dir
$LN5@dbg_dir:

; 7535 :         }
; 7536 :         else

	jmp	SHORT $LN3@dbg_dir
$LN7@dbg_dir:

; 7537 :             if( hsh -> table[i].attrib ) {

	mov	ecx, DWORD PTR _i$[ebp]
	imul	ecx, 48					; 00000030H
	mov	edx, DWORD PTR _hsh$[ebp]
	mov	eax, DWORD PTR [edx+24]
	cmp	DWORD PTR [eax+ecx+28], 0
	je	SHORT $LN3@dbg_dir

; 7538 :                 IF_LOG( LOG( "%-14s ", hsh -> table[i].name ));
; 7539 :                 count++;

	mov	ecx, DWORD PTR _count$[ebp]
	add	ecx, 1
	mov	DWORD PTR _count$[ebp], ecx

; 7540 :                 if( !(count % 4)) IF_LOG( LOG( "\n" ));

	mov	edx, DWORD PTR _count$[ebp]
	and	edx, -2147483645			; 80000003H
	jns	SHORT $LN14@dbg_dir
	dec	edx
	or	edx, -4					; fffffffcH
	inc	edx
$LN14@dbg_dir:
$LN3@dbg_dir:

; 7541 :             }
; 7542 :     }

	jmp	$LN9@dbg_dir
$LN11@dbg_dir:

; 7543 : 
; 7544 :     IF_LOG( LOG( "\n\n" ));
; 7545 : }

	mov	esp, ebp
	pop	ebp
	ret	0
_dbg_dir ENDP
_TEXT	ENDS
; Function compile flags: /Odtp
; File c:\users\zhitao li\documents\visual studio 2012\projects\freefalcon\codelib\resources\reslib\src\resmgr.c
_TEXT	SEGMENT
_attrib$ = -4						; size = 4
_data$ = 8						; size = 4
_dbg_print PROC

; 7390 : {

	push	ebp
	mov	ebp, esp
	push	ecx

; 7391 :     int attrib;
; 7392 : 
; 7393 :     attrib = data -> attrib;

	mov	eax, DWORD PTR _data$[ebp]
	mov	ecx, DWORD PTR [eax+28]
	mov	DWORD PTR _attrib$[ebp], ecx

; 7394 :     
; 7395 :     printf( "%-17s", data -> name );

	mov	edx, DWORD PTR _data$[ebp]
	mov	eax, DWORD PTR [edx]
	push	eax
	push	OFFSET ??_C@_05ENKMGHII@?$CF?917s?$AA@
	call	_printf
	add	esp, 8

; 7396 :     printf( "size: %5d ", data -> size );

	mov	ecx, DWORD PTR _data$[ebp]
	mov	edx, DWORD PTR [ecx+8]
	push	edx
	push	OFFSET ??_C@_0L@DMPNKCFM@size?3?5?$CF5d?5?$AA@
	call	_printf
	add	esp, 8

; 7397 :     printf( "csize: %5d ", data -> csize );

	mov	eax, DWORD PTR _data$[ebp]
	mov	ecx, DWORD PTR [eax+12]
	push	ecx
	push	OFFSET ??_C@_0M@HDGDGLCH@csize?3?5?$CF5d?5?$AA@
	call	_printf
	add	esp, 8

; 7398 :     printf( "method: %1d ", data -> method );

	mov	edx, DWORD PTR _data$[ebp]
	movsx	eax, WORD PTR [edx+16]
	push	eax
	push	OFFSET ??_C@_0N@MCEGBKEA@method?3?5?$CF1d?5?$AA@
	call	_printf
	add	esp, 8

; 7399 : 
; 7400 :     if( attrib & _A_RDONLY )  printf( "R" );   else   printf( " " );

	mov	ecx, DWORD PTR _attrib$[ebp]
	and	ecx, 1
	je	SHORT $LN10@dbg_print
	push	OFFSET ??_C@_01DGKLNCNG@R?$AA@
	call	_printf
	add	esp, 4
	jmp	SHORT $LN9@dbg_print
$LN10@dbg_print:
	push	OFFSET ??_C@_01CLKCMJKC@?5?$AA@
	call	_printf
	add	esp, 4
$LN9@dbg_print:

; 7401 :     if( attrib & _A_HIDDEN )  printf( "H" );   else   printf( " " );

	mov	edx, DWORD PTR _attrib$[ebp]
	and	edx, 2
	je	SHORT $LN8@dbg_print
	push	OFFSET ??_C@_01IGIGCIAN@H?$AA@
	call	_printf
	add	esp, 4
	jmp	SHORT $LN7@dbg_print
$LN8@dbg_print:
	push	OFFSET ??_C@_01CLKCMJKC@?5?$AA@
	call	_printf
	add	esp, 4
$LN7@dbg_print:

; 7402 :     if( attrib & _A_SYSTEM )  printf( "S" );   else   printf( " " );

	mov	eax, DWORD PTR _attrib$[ebp]
	and	eax, 4
	je	SHORT $LN6@dbg_print
	push	OFFSET ??_C@_01CPLAODJH@S?$AA@
	call	_printf
	add	esp, 4
	jmp	SHORT $LN5@dbg_print
$LN6@dbg_print:
	push	OFFSET ??_C@_01CLKCMJKC@?5?$AA@
	call	_printf
	add	esp, 4
$LN5@dbg_print:

; 7403 :     if( attrib & _A_ARCH )    printf( "A" );   else   printf( " " );

	mov	ecx, DWORD PTR _attrib$[ebp]
	and	ecx, 32					; 00000020H
	je	SHORT $LN4@dbg_print
	push	OFFSET ??_C@_01FHEEJDEE@A?$AA@
	call	_printf
	add	esp, 4
	jmp	SHORT $LN3@dbg_print
$LN4@dbg_print:
	push	OFFSET ??_C@_01CLKCMJKC@?5?$AA@
	call	_printf
	add	esp, 4
$LN3@dbg_print:

; 7404 : 
; 7405 :     if( attrib & _A_SUBDIR )  printf( "\t\t<DIR>" );  else  printf( "\t\t     " );

	mov	edx, DWORD PTR _attrib$[ebp]
	and	edx, 16					; 00000010H
	je	SHORT $LN2@dbg_print
	push	OFFSET ??_C@_07GCALBCF@?7?7?$DMDIR?$DO?$AA@
	call	_printf
	add	esp, 4
	jmp	SHORT $LN1@dbg_print
$LN2@dbg_print:
	push	OFFSET ??_C@_07NLJMJJCA@?7?7?5?5?5?5?5?$AA@
	call	_printf
	add	esp, 4
$LN1@dbg_print:

; 7406 : 
; 7407 :     printf( "\n" );

	push	OFFSET ??_C@_01EEMJAFIK@?6?$AA@
	call	_printf
	add	esp, 4

; 7408 : }

	mov	esp, ebp
	pop	ebp
	ret	0
_dbg_print ENDP
_TEXT	ENDS
; Function compile flags: /Odtp
; File c:\users\zhitao li\documents\visual studio 2012\projects\freefalcon\codelib\resources\reslib\src\resmgr.c
_TEXT	SEGMENT
_max_len$ = -20						; size = 4
_hits$ = -16						; size = 4
_entry$ = -12						; size = 4
_len$ = -8						; size = 4
_i$ = -4						; size = 4
_hsh$ = 8						; size = 4
_dbg_analyze_hash PROC

; 7460 : {

	push	ebp
	mov	ebp, esp
	sub	esp, 20					; 00000014H

; 7461 :     int i,
; 7462 :         len,
; 7463 :         max_len,
; 7464 :         hits = 0;

	mov	DWORD PTR _hits$[ebp], 0

; 7465 : 
; 7466 :     HASH_ENTRY * entry;
; 7467 : 
; 7468 :     IF_LOG( LOG( "Table name............. %s\n", hsh -> name ));
; 7469 :     IF_LOG( LOG( "Hash size.............. %d\n", hsh -> table_size ));
; 7470 :     IF_LOG( LOG( "Num entries............ %d\n", hsh -> num_entries ));
; 7471 :     IF_LOG( LOG( "Ratio.................. %-3.0f%%\n", ((float)hsh -> table_size / (float)hsh -> num_entries)*100.0));
; 7472 : 
; 7473 :     max_len = 0;

	mov	DWORD PTR _max_len$[ebp], 0

; 7474 : 
; 7475 :     for( i=0; i<hsh->table_size; i++ ) {

	mov	DWORD PTR _i$[ebp], 0
	jmp	SHORT $LN7@dbg_analyz
$LN6@dbg_analyz:
	mov	eax, DWORD PTR _i$[ebp]
	add	eax, 1
	mov	DWORD PTR _i$[ebp], eax
$LN7@dbg_analyz:
	mov	ecx, DWORD PTR _hsh$[ebp]
	mov	edx, DWORD PTR _i$[ebp]
	cmp	edx, DWORD PTR [ecx]
	jge	SHORT $LN8@dbg_analyz

; 7476 :         if( hsh -> table[i].next ) {

	mov	eax, DWORD PTR _i$[ebp]
	imul	eax, 48					; 00000030H
	mov	ecx, DWORD PTR _hsh$[ebp]
	mov	edx, DWORD PTR [ecx+24]
	cmp	DWORD PTR [edx+eax+44], 0
	je	SHORT $LN4@dbg_analyz

; 7477 :             hits++;

	mov	eax, DWORD PTR _hits$[ebp]
	add	eax, 1
	mov	DWORD PTR _hits$[ebp], eax

; 7478 :             entry = &hsh -> table[i];

	mov	ecx, DWORD PTR _i$[ebp]
	imul	ecx, 48					; 00000030H
	mov	edx, DWORD PTR _hsh$[ebp]
	add	ecx, DWORD PTR [edx+24]
	mov	DWORD PTR _entry$[ebp], ecx

; 7479 :             len = 0;

	mov	DWORD PTR _len$[ebp], 0
$LN3@dbg_analyz:

; 7480 : 
; 7481 :             while( entry ) {

	cmp	DWORD PTR _entry$[ebp], 0
	je	SHORT $LN2@dbg_analyz

; 7482 :                 entry = entry -> next;

	mov	eax, DWORD PTR _entry$[ebp]
	mov	ecx, DWORD PTR [eax+44]
	mov	DWORD PTR _entry$[ebp], ecx

; 7483 :                 len++;

	mov	edx, DWORD PTR _len$[ebp]
	add	edx, 1
	mov	DWORD PTR _len$[ebp], edx

; 7484 :             }

	jmp	SHORT $LN3@dbg_analyz
$LN2@dbg_analyz:

; 7485 : 
; 7486 :             if( len > max_len ) 

	mov	eax, DWORD PTR _len$[ebp]
	cmp	eax, DWORD PTR _max_len$[ebp]
	jle	SHORT $LN4@dbg_analyz

; 7487 :                 max_len = len;

	mov	ecx, DWORD PTR _len$[ebp]
	mov	DWORD PTR _max_len$[ebp], ecx
$LN4@dbg_analyz:

; 7488 :         }
; 7489 :     }

	jmp	SHORT $LN6@dbg_analyz
$LN8@dbg_analyz:

; 7490 : 
; 7491 :     IF_LOG( LOG( "Hash collisions........ %d\n", hits ));
; 7492 :     IF_LOG( LOG( "Hash peformance........ %-3.0f%%\n", (1.0 - ((float)hits/(float)hsh->num_entries))*100.0));
; 7493 :     IF_LOG( LOG( "Maximum chain length... %d\n", max_len ));
; 7494 : }

	mov	esp, ebp
	pop	ebp
	ret	0
_dbg_analyze_hash ENDP
_TEXT	ENDS
; Function compile flags: /Odtp
; File c:\users\zhitao li\documents\visual studio 2012\projects\freefalcon\codelib\resources\reslib\src\resmgr.c
_TEXT	SEGMENT
tv76 = -20						; size = 4
_table$ = -16						; size = 4
_i$ = -12						; size = 4
_dev$ = -8						; size = 4
_list$ = -4						; size = 4
_ResDbgDump PROC

; 5875 : {

	push	ebp
	mov	ebp, esp
	sub	esp, 20					; 00000014H

; 5876 :     HASH_TABLE   * table;
; 5877 :     DEVICE_ENTRY * dev;
; 5878 :     LIST         * list;
; 5879 :     int            i;
; 5880 : 
; 5881 :     if( RES_DEBUG_LOGGING && RES_DEBUG_OPEN_LOG ) {

	cmp	DWORD PTR _RES_DEBUG_LOGGING, 0
	je	$LN10@ResDbgDump
	cmp	DWORD PTR _RES_DEBUG_OPEN_LOG, 0
	je	$LN10@ResDbgDump

; 5882 : 
; 5883 :         IF_LOG( LOG( "\n\n-------------\n" ));
; 5884 :         IF_LOG( LOG( "Statistics...\n" ));
; 5885 :         IF_LOG( LOG( "-------------\n" ));
; 5886 : 
; 5887 :         for( list = GLOBAL_PATH_LIST; list; list = list -> next ) {

	mov	eax, DWORD PTR _GLOBAL_PATH_LIST
	mov	DWORD PTR _list$[ebp], eax
	jmp	SHORT $LN8@ResDbgDump
$LN7@ResDbgDump:
	mov	ecx, DWORD PTR _list$[ebp]
	mov	edx, DWORD PTR [ecx+8]
	mov	DWORD PTR _list$[ebp], edx
$LN8@ResDbgDump:
	cmp	DWORD PTR _list$[ebp], 0
	je	SHORT $LN6@ResDbgDump

; 5888 :             table = (HASH_TABLE *)list -> node;

	mov	eax, DWORD PTR _list$[ebp]
	mov	ecx, DWORD PTR [eax]
	mov	DWORD PTR _table$[ebp], ecx

; 5889 : 
; 5890 :             dbg_analyze_hash( table );

	mov	edx, DWORD PTR _table$[ebp]
	push	edx
	call	_dbg_analyze_hash
	add	esp, 4

; 5891 :             dbg_dir( table );

	mov	eax, DWORD PTR _table$[ebp]
	push	eax
	call	_dbg_dir
	add	esp, 4

; 5892 :         }

	jmp	SHORT $LN7@ResDbgDump
$LN6@ResDbgDump:

; 5893 : 
; 5894 :         dev = RES_DEVICES;

	mov	ecx, DWORD PTR _RES_DEVICES
	mov	DWORD PTR _dev$[ebp], ecx

; 5895 : 
; 5896 :         for( i=0; i<MAX_DEVICES; i++ )

	mov	DWORD PTR _i$[ebp], 0
	jmp	SHORT $LN5@ResDbgDump
$LN4@ResDbgDump:
	mov	edx, DWORD PTR _i$[ebp]
	add	edx, 1
	mov	DWORD PTR _i$[ebp], edx
$LN5@ResDbgDump:
	cmp	DWORD PTR _i$[ebp], 26			; 0000001aH
	jge	SHORT $LN10@ResDbgDump

; 5897 :             if( dev -> serial )

	mov	eax, DWORD PTR _dev$[ebp]
	cmp	DWORD PTR [eax+36], 0
	je	SHORT $LN2@ResDbgDump

; 5898 :                 dbg_device( dev++ );

	mov	ecx, DWORD PTR _dev$[ebp]
	mov	DWORD PTR tv76[ebp], ecx
	mov	edx, DWORD PTR tv76[ebp]
	push	edx
	call	_dbg_device
	add	esp, 4
	mov	eax, DWORD PTR _dev$[ebp]
	add	eax, 40					; 00000028H
	mov	DWORD PTR _dev$[ebp], eax
$LN2@ResDbgDump:

; 5899 :    }

	jmp	SHORT $LN4@ResDbgDump
$LN10@ResDbgDump:

; 5900 :    else
; 5901 :       IF_LOG( LOG( "Either no open log file, or event logging paused.\n" ));
; 5902 : }

	mov	esp, ebp
	pop	ebp
	ret	0
_ResDbgDump ENDP
_TEXT	ENDS
; Function compile flags: /Odtp
; File c:\users\zhitao li\documents\visual studio 2012\projects\freefalcon\codelib\resources\reslib\src\resmgr.c
_TEXT	SEGMENT
_on$ = 8						; size = 4
_ResDbgLogPause PROC

; 5856 : {

	push	ebp
	mov	ebp, esp

; 5857 :     RES_DEBUG_LOGGING = on;

	mov	eax, DWORD PTR _on$[ebp]
	mov	DWORD PTR _RES_DEBUG_LOGGING, eax

; 5858 : }

	pop	ebp
	ret	0
_ResDbgLogPause ENDP
_TEXT	ENDS
; Function compile flags: /Odtp
; File c:\users\zhitao li\documents\visual studio 2012\projects\freefalcon\codelib\resources\reslib\src\resmgr.c
_TEXT	SEGMENT
_length$ = -268						; size = 4
_data$ = -264						; size = 4
_buffer$ = -260						; size = 255
__$ArrayPad$ = -4					; size = 4
_msg$ = 8						; size = 4
_ResDbgPrintf PROC

; 5821 : {

	push	ebp
	mov	ebp, esp
	sub	esp, 268				; 0000010cH
	mov	eax, DWORD PTR ___security_cookie
	xor	eax, ebp
	mov	DWORD PTR __$ArrayPad$[ebp], eax

; 5822 :    va_list data;                            /* c sucks                      */
; 5823 :    char buffer[255];
; 5824 :    int length;
; 5825 : 
; 5826 :    va_start( data, msg );                   /* init variable args           */

	lea	eax, DWORD PTR _msg$[ebp+4]
	mov	DWORD PTR _data$[ebp], eax

; 5827 : 
; 5828 :    length = vsprintf( buffer, msg, data );

	mov	ecx, DWORD PTR _data$[ebp]
	push	ecx
	mov	edx, DWORD PTR _msg$[ebp]
	push	edx
	lea	eax, DWORD PTR _buffer$[ebp]
	push	eax
	call	_vsprintf
	add	esp, 12					; 0000000cH
	mov	DWORD PTR _length$[ebp], eax

; 5829 : 
; 5830 :    if( RES_DEBUG_OPEN_LOG && RES_DEBUG_LOGGING )

	cmp	DWORD PTR _RES_DEBUG_OPEN_LOG, 0
	je	SHORT $LN1@ResDbgPrin
	cmp	DWORD PTR _RES_DEBUG_LOGGING, 0
	je	SHORT $LN1@ResDbgPrin

; 5831 :       _write( RES_DEBUG_FILE, buffer, length );

	mov	ecx, DWORD PTR _length$[ebp]
	push	ecx
	lea	edx, DWORD PTR _buffer$[ebp]
	push	edx
	mov	eax, DWORD PTR _RES_DEBUG_FILE
	push	eax
	call	__write
	add	esp, 12					; 0000000cH
$LN1@ResDbgPrin:

; 5832 : 
; 5833 : #ifdef RES_DEBUG_STDIO 
; 5834 :    RES_DEBUG_STDIO( buffer, length );       /* external func for dumping text msg's to the console */
; 5835 : #endif /*RES_DEBUG_STDIO */
; 5836 : 
; 5837 :    va_end( data );                          /* reset variable args          */

	mov	DWORD PTR _data$[ebp], 0

; 5838 : }

	mov	ecx, DWORD PTR __$ArrayPad$[ebp]
	xor	ecx, ebp
	call	@__security_check_cookie@4
	mov	esp, ebp
	pop	ebp
	ret	0
_ResDbgPrintf ENDP
_TEXT	ENDS
; Function compile flags: /Odtp
; File c:\users\zhitao li\documents\visual studio 2012\projects\freefalcon\codelib\resources\reslib\src\resmgr.c
_TEXT	SEGMENT
_ResDbgLogClose PROC

; 5797 : {

	push	ebp
	mov	ebp, esp

; 5798 :     if( RES_DEBUG_OPEN_LOG )

	cmp	DWORD PTR _RES_DEBUG_OPEN_LOG, 0
	je	SHORT $LN1@ResDbgLogC

; 5799 :         _close( RES_DEBUG_FILE );

	mov	eax, DWORD PTR _RES_DEBUG_FILE
	push	eax
	call	__close
	add	esp, 4
$LN1@ResDbgLogC:

; 5800 : 
; 5801 :     RES_DEBUG_OPEN_LOG = FALSE;

	mov	DWORD PTR _RES_DEBUG_OPEN_LOG, 0

; 5802 : 
; 5803 :     RES_DEBUG_LOGGING = FALSE;

	mov	DWORD PTR _RES_DEBUG_LOGGING, 0

; 5804 : }

	pop	ebp
	ret	0
_ResDbgLogClose ENDP
_TEXT	ENDS
; Function compile flags: /Odtp
; File c:\users\zhitao li\documents\visual studio 2012\projects\freefalcon\codelib\resources\reslib\src\resmgr.c
_TEXT	SEGMENT
_filename$ = 8						; size = 4
_ResDbgLogOpen PROC

; 5757 : {

	push	ebp
	mov	ebp, esp

; 5758 :     if( RES_DEBUG_LOGGING )

	cmp	DWORD PTR _RES_DEBUG_LOGGING, 0
	je	SHORT $LN2@ResDbgLogO

; 5759 :         ResDbgLogClose();

	call	_ResDbgLogClose
$LN2@ResDbgLogO:

; 5760 : 
; 5761 :     /* there is actually a third parameter to open() (MSVC just doesn't admit it) 
; 5762 :        octal 666 ensures that stack-crap won't accidently create this file as
; 5763 :        read-only.  Thank to Roger Fujii for this fix! */
; 5764 : 
; 5765 :     RES_DEBUG_FILE = _open( filename, _O_RDWR | _O_CREAT | _O_TEXT, 0x1b6 /* Choked on O666L and O666 */ );

	push	438					; 000001b6H
	push	16642					; 00004102H
	mov	eax, DWORD PTR _filename$[ebp]
	push	eax
	call	__open
	add	esp, 12					; 0000000cH
	mov	DWORD PTR _RES_DEBUG_FILE, eax

; 5766 : 
; 5767 :     if( RES_DEBUG_FILE == -1 ) {

	cmp	DWORD PTR _RES_DEBUG_FILE, -1
	jne	SHORT $LN1@ResDbgLogO

; 5768 :         SAY_ERROR( RES_ERR_COULDNT_OPEN_FILE, filename );

	push	OFFSET ??_C@_0N@OMEJCDNJ@src?2resmgr?4c?$AA@
	push	5768					; 00001688H
	mov	ecx, DWORD PTR _filename$[ebp]
	push	ecx
	push	-4984					; ffffec88H
	call	__say_error
	add	esp, 16					; 00000010H

; 5769 :         RES_DEBUG_OPEN_LOG = FALSE;

	mov	DWORD PTR _RES_DEBUG_OPEN_LOG, 0

; 5770 :         RES_DEBUG_LOGGING = FALSE;

	mov	DWORD PTR _RES_DEBUG_LOGGING, 0

; 5771 :         return( FALSE );

	xor	eax, eax
	jmp	SHORT $LN3@ResDbgLogO
$LN1@ResDbgLogO:

; 5772 :     }
; 5773 : 
; 5774 :     RES_DEBUG_OPEN_LOG = TRUE;

	mov	DWORD PTR _RES_DEBUG_OPEN_LOG, 1

; 5775 :     RES_DEBUG_LOGGING = TRUE;

	mov	DWORD PTR _RES_DEBUG_LOGGING, 1

; 5776 : 
; 5777 :     IF_DEBUG( LOG( "Log file opened.\n\n" ));
; 5778 : 
; 5779 :     return( TRUE );

	mov	eax, 1
$LN3@ResDbgLogO:

; 5780 : }

	pop	ebp
	ret	0
_ResDbgLogOpen ENDP
_TEXT	ENDS
; Function compile flags: /Odtp
; File c:\users\zhitao li\documents\visual studio 2012\projects\freefalcon\codelib\resources\reslib\src\resmgr.c
_TEXT	SEGMENT
_on$ = 8						; size = 4
_ResDbg	PROC

; 5738 : {

	push	ebp
	mov	ebp, esp

; 5739 :    RES_DEBUG_FLAG = on;

	mov	eax, DWORD PTR _on$[ebp]
	mov	DWORD PTR _RES_DEBUG_FLAG, eax

; 5740 : }

	pop	ebp
	ret	0
_ResDbg	ENDP
_TEXT	ENDS
; Function compile flags: /Odtp
; File c:\users\zhitao li\documents\visual studio 2012\projects\freefalcon\codelib\resources\reslib\src\resmgr.c
_TEXT	SEGMENT
_thread_id$ = -8					; size = 4
_data$ = -4						; size = 4
_file$ = 8						; size = 4
_buffer$ = 12						; size = 4
_callback$ = 16						; size = 4
_ResAsynchWrite PROC

; 4065 : {

	push	ebp
	mov	ebp, esp
	sub	esp, 8

; 4066 :     ASYNCH_DATA * data;
; 4067 :     int thread_id;
; 4068 : 
; 4069 : #if( RES_DEBUG_PARAMS )
; 4070 :     if( !buffer || (file < 0) || (file > MAX_FILE_HANDLES) ) {

	cmp	DWORD PTR _buffer$[ebp], 0
	je	SHORT $LN3@ResAsynchW
	cmp	DWORD PTR _file$[ebp], 0
	jl	SHORT $LN3@ResAsynchW
	cmp	DWORD PTR _file$[ebp], 256		; 00000100H
	jle	SHORT $LN4@ResAsynchW
$LN3@ResAsynchW:

; 4071 :         SAY_ERROR( RES_ERR_INCORRECT_PARAMETER, "ResAsynchWrite" );

	push	OFFSET ??_C@_0N@OMEJCDNJ@src?2resmgr?4c?$AA@
	push	4071					; 00000fe7H
	push	OFFSET ??_C@_0P@CKHAKKGB@ResAsynchWrite?$AA@
	push	-4998					; ffffec7aH
	call	__say_error
	add	esp, 16					; 00000010H

; 4072 :         return( FALSE );

	xor	eax, eax
	jmp	$LN5@ResAsynchW
$LN4@ResAsynchW:

; 4073 :     }
; 4074 : #endif
; 4075 : 
; 4076 :     IF_LOG( LOG( "asynch write %s\n", FILE_HANDLES[file].filename ));
; 4077 : 
; 4078 : 	#ifdef USE_SH_POOLS
; 4079 :     data = (ASYNCH_DATA *)MemAllocPtr( gResmgrMemPool, sizeof( ASYNCH_DATA ), 0 );
; 4080 : 	#else
; 4081 :     data = (ASYNCH_DATA *)MemMalloc( sizeof( ASYNCH_DATA ), "Asynch data" );

	push	16					; 00000010H
	call	_malloc
	add	esp, 4
	mov	DWORD PTR _data$[ebp], eax

; 4082 : 	#endif
; 4083 : 
; 4084 :     if( !data ) {

	cmp	DWORD PTR _data$[ebp], 0
	jne	SHORT $LN2@ResAsynchW

; 4085 :         SAY_ERROR( RES_ERR_NO_MEMORY, NULL );

	push	OFFSET ??_C@_0N@OMEJCDNJ@src?2resmgr?4c?$AA@
	push	4085					; 00000ff5H
	push	0
	push	-4999					; ffffec79H
	call	__say_error
	add	esp, 16					; 00000010H

; 4086 :         return( FALSE );

	xor	eax, eax
	jmp	SHORT $LN5@ResAsynchW
$LN2@ResAsynchW:

; 4087 :     }
; 4088 : 
; 4089 :     data -> file = file;

	mov	eax, DWORD PTR _data$[ebp]
	mov	ecx, DWORD PTR _file$[ebp]
	mov	DWORD PTR [eax], ecx

; 4090 :     data -> buffer = buffer;

	mov	edx, DWORD PTR _data$[ebp]
	mov	eax, DWORD PTR _buffer$[ebp]
	mov	DWORD PTR [edx+4], eax

; 4091 :     data -> callback = callback;

	mov	ecx, DWORD PTR _data$[ebp]
	mov	edx, DWORD PTR _callback$[ebp]
	mov	DWORD PTR [ecx+12], edx

; 4092 :  
; 4093 :     thread_id = _beginthread( asynch_write, 128 /*stack size*/, (void *)(data));

	mov	eax, DWORD PTR _data$[ebp]
	push	eax
	push	128					; 00000080H
	push	OFFSET _asynch_write
	call	__beginthread
	add	esp, 12					; 0000000cH
	mov	DWORD PTR _thread_id$[ebp], eax

; 4094 : 
; 4095 : //SetThreadPriority( thread_id, THREAD_PRIORITY_LOWEST );
; 4096 : //#error PROTOTYPE THIS!
; 4097 : 
; 4098 : 
; 4099 :     if( thread_id == -1 ) {

	cmp	DWORD PTR _thread_id$[ebp], -1
	jne	SHORT $LN1@ResAsynchW

; 4100 :         SAY_ERROR( RES_ERR_COULDNT_SPAWN_THREAD, NULL );

	push	OFFSET ??_C@_0N@OMEJCDNJ@src?2resmgr?4c?$AA@
	push	4100					; 00001004H
	push	0
	push	-4985					; ffffec87H
	call	__say_error
	add	esp, 16					; 00000010H

; 4101 :         return( FALSE );

	xor	eax, eax
	jmp	SHORT $LN5@ResAsynchW
$LN1@ResAsynchW:

; 4102 :     }
; 4103 : 
; 4104 :     IF_DEBUG( LOG( "Write thread (%d) spawned.", thread_id ));
; 4105 :     return( TRUE );

	mov	eax, 1
$LN5@ResAsynchW:

; 4106 : }

	mov	esp, ebp
	pop	ebp
	ret	0
_ResAsynchWrite ENDP
_TEXT	ENDS
; Function compile flags: /Odtp
; File c:\users\zhitao li\documents\visual studio 2012\projects\freefalcon\codelib\resources\reslib\src\resmgr.c
_TEXT	SEGMENT
_thread_id$ = -8					; size = 4
_data$ = -4						; size = 4
_file$ = 8						; size = 4
_buffer$ = 12						; size = 4
_callback$ = 16						; size = 4
_ResAsynchRead PROC

; 3994 : {

	push	ebp
	mov	ebp, esp
	sub	esp, 8

; 3995 :     ASYNCH_DATA * data;
; 3996 :     int thread_id;
; 3997 : 
; 3998 : #if( RES_DEBUG_PARAMS )   
; 3999 :     if( !buffer || (file < 0) || (file > MAX_FILE_HANDLES) ) {

	cmp	DWORD PTR _buffer$[ebp], 0
	je	SHORT $LN3@ResAsynchR
	cmp	DWORD PTR _file$[ebp], 0
	jl	SHORT $LN3@ResAsynchR
	cmp	DWORD PTR _file$[ebp], 256		; 00000100H
	jle	SHORT $LN4@ResAsynchR
$LN3@ResAsynchR:

; 4000 :         SAY_ERROR( RES_ERR_INCORRECT_PARAMETER, "ResAsynchRead" );

	push	OFFSET ??_C@_0N@OMEJCDNJ@src?2resmgr?4c?$AA@
	push	4000					; 00000fa0H
	push	OFFSET ??_C@_0O@GDKGMDJD@ResAsynchRead?$AA@
	push	-4998					; ffffec7aH
	call	__say_error
	add	esp, 16					; 00000010H

; 4001 :         return( FALSE );

	xor	eax, eax
	jmp	$LN5@ResAsynchR
$LN4@ResAsynchR:

; 4002 :     }
; 4003 : #endif
; 4004 : 
; 4005 :     IF_LOG( LOG( "asynch read %s\n", FILE_HANDLES[file].filename ));
; 4006 : 
; 4007 : 	#ifdef USE_SH_POOLS
; 4008 :     data = (ASYNCH_DATA *)MemAllocPtr( gResmgrMemPool, sizeof( ASYNCH_DATA ), 0 );
; 4009 : 	#else
; 4010 :     data = (ASYNCH_DATA *)MemMalloc( sizeof( ASYNCH_DATA ), "Asynch data" );

	push	16					; 00000010H
	call	_malloc
	add	esp, 4
	mov	DWORD PTR _data$[ebp], eax

; 4011 : 	#endif
; 4012 : 
; 4013 :     if( !data ) {

	cmp	DWORD PTR _data$[ebp], 0
	jne	SHORT $LN2@ResAsynchR

; 4014 :         SAY_ERROR( RES_ERR_NO_MEMORY, NULL );

	push	OFFSET ??_C@_0N@OMEJCDNJ@src?2resmgr?4c?$AA@
	push	4014					; 00000faeH
	push	0
	push	-4999					; ffffec79H
	call	__say_error
	add	esp, 16					; 00000010H

; 4015 :         return( FALSE );

	xor	eax, eax
	jmp	SHORT $LN5@ResAsynchR
$LN2@ResAsynchR:

; 4016 :     }
; 4017 : 
; 4018 :     data -> file = file;

	mov	eax, DWORD PTR _data$[ebp]
	mov	ecx, DWORD PTR _file$[ebp]
	mov	DWORD PTR [eax], ecx

; 4019 :     data -> buffer = buffer;

	mov	edx, DWORD PTR _data$[ebp]
	mov	eax, DWORD PTR _buffer$[ebp]
	mov	DWORD PTR [edx+4], eax

; 4020 :     data -> callback = callback;

	mov	ecx, DWORD PTR _data$[ebp]
	mov	edx, DWORD PTR _callback$[ebp]
	mov	DWORD PTR [ecx+12], edx

; 4021 : 
; 4022 :     thread_id = _beginthread( asynch_read, 128 /*stack size*/, (void *)(data));

	mov	eax, DWORD PTR _data$[ebp]
	push	eax
	push	128					; 00000080H
	push	OFFSET _asynch_read
	call	__beginthread
	add	esp, 12					; 0000000cH
	mov	DWORD PTR _thread_id$[ebp], eax

; 4023 : 
; 4024 :     if( thread_id == -1 ) {

	cmp	DWORD PTR _thread_id$[ebp], -1
	jne	SHORT $LN1@ResAsynchR

; 4025 :         SAY_ERROR( RES_ERR_COULDNT_SPAWN_THREAD, NULL );

	push	OFFSET ??_C@_0N@OMEJCDNJ@src?2resmgr?4c?$AA@
	push	4025					; 00000fb9H
	push	0
	push	-4985					; ffffec87H
	call	__say_error
	add	esp, 16					; 00000010H

; 4026 :         return( FALSE );

	xor	eax, eax
	jmp	SHORT $LN5@ResAsynchR
$LN1@ResAsynchR:

; 4027 :     }
; 4028 :     return( TRUE );

	mov	eax, 1
$LN5@ResAsynchR:

; 4029 : }

	mov	esp, ebp
	pop	ebp
	ret	0
_ResAsynchRead ENDP
_TEXT	ENDS
; Function compile flags: /Odtp
; File c:\users\zhitao li\documents\visual studio 2012\projects\freefalcon\codelib\resources\reslib\src\resmgr.c
_TEXT	SEGMENT
_archive$ = -8						; size = 4
_list$ = -4						; size = 4
_handle$ = 8						; size = 4
_buffer$ = 12						; size = 4
_ResGetArchive PROC

; 2934 : {

	push	ebp
	mov	ebp, esp
	sub	esp, 8

; 2935 :     ARCHIVE    * archive=NULL;

	mov	DWORD PTR _archive$[ebp], 0

; 2936 :     LIST       * list=NULL;

	mov	DWORD PTR _list$[ebp], 0

; 2937 : 
; 2938 : #if( RES_DEBUG_PARAMS )
; 2939 :     if( !ARCHIVE_LIST ) {

	cmp	DWORD PTR _ARCHIVE_LIST, 0
	jne	SHORT $LN6@ResGetArch

; 2940 :         *buffer = 0x00;

	mov	eax, DWORD PTR _buffer$[ebp]
	mov	BYTE PTR [eax], 0

; 2941 :         return(0);

	xor	eax, eax
	jmp	SHORT $LN7@ResGetArch
$LN6@ResGetArch:

; 2942 :     }
; 2943 : #endif /* RES_DEBUG_PARAMS */
; 2944 : 
; 2945 :     /* using the handle, search the list for the structure */
; 2946 : 
; 2947 :     for( list = ARCHIVE_LIST; list; list = list -> next ) {

	mov	ecx, DWORD PTR _ARCHIVE_LIST
	mov	DWORD PTR _list$[ebp], ecx
	jmp	SHORT $LN5@ResGetArch
$LN4@ResGetArch:
	mov	edx, DWORD PTR _list$[ebp]
	mov	eax, DWORD PTR [edx+8]
	mov	DWORD PTR _list$[ebp], eax
$LN5@ResGetArch:
	cmp	DWORD PTR _list$[ebp], 0
	je	SHORT $LN3@ResGetArch

; 2948 :         archive = (ARCHIVE *)list -> node;

	mov	ecx, DWORD PTR _list$[ebp]
	mov	edx, DWORD PTR [ecx]
	mov	DWORD PTR _archive$[ebp], edx

; 2949 : 
; 2950 :         if( archive -> os_handle == handle )

	mov	eax, DWORD PTR _archive$[ebp]
	mov	ecx, DWORD PTR [eax+260]
	cmp	ecx, DWORD PTR _handle$[ebp]
	jne	SHORT $LN2@ResGetArch

; 2951 :             break;

	jmp	SHORT $LN3@ResGetArch
$LN2@ResGetArch:

; 2952 :     }

	jmp	SHORT $LN4@ResGetArch
$LN3@ResGetArch:

; 2953 : 
; 2954 :     if( !list ) { /* couldn't find it, may already have been closed - or handle is incorrect */

	cmp	DWORD PTR _list$[ebp], 0
	jne	SHORT $LN1@ResGetArch

; 2955 :         *buffer = 0x00;

	mov	edx, DWORD PTR _buffer$[ebp]
	mov	BYTE PTR [edx], 0

; 2956 :         return(0);

	xor	eax, eax
	jmp	SHORT $LN7@ResGetArch
$LN1@ResGetArch:

; 2957 :     }
; 2958 : 
; 2959 :     strcpy( buffer, archive -> name );

	mov	eax, DWORD PTR _archive$[ebp]
	push	eax
	mov	ecx, DWORD PTR _buffer$[ebp]
	push	ecx
	call	_strcpy
	add	esp, 8

; 2960 : 
; 2961 :     return( strlen(buffer));

	mov	edx, DWORD PTR _buffer$[ebp]
	push	edx
	call	_strlen
	add	esp, 4
$LN7@ResGetArch:

; 2962 : }

	mov	esp, ebp
	pop	ebp
	ret	0
_ResGetArchive ENDP
_TEXT	ENDS
; Function compile flags: /Odtp
; File c:\users\zhitao li\documents\visual studio 2012\projects\freefalcon\codelib\resources\reslib\src\resmgr.c
_TEXT	SEGMENT
_ln$1 = -1160						; size = 4
tv147 = -1156						; size = 4
_currentDrive$ = -1152					; size = 4
$T2 = -1148						; size = 4
$T3 = -1144						; size = 4
_full_yet$ = -1140					; size = 4
_directory$ = -1136					; size = 4
_retval$ = -1132					; size = 4
_dir_was$ = -1128					; size = 4
_filecount$ = -1124					; size = 4
_done$ = -1120						; size = 4
_refresh$ = -1116					; size = 4
_idx$4 = -1112						; size = 4
_count$ = -1108						; size = 4
_local_table$ = -1104					; size = 4
_file_data$ = -1100					; size = 4
_vol_was$ = -1093					; size = 1
_filenum$ = -1092					; size = 4
_length$ = -1088					; size = 4
_entry$ = -1084						; size = 4
_data$ = -1080						; size = 296
_currentPath$ = -784					; size = 260
_buffer$ = -524						; size = 260
_tmp_path$ = -264					; size = 260
__$ArrayPad$ = -4					; size = 4
_path$ = 8						; size = 4
_recurse$ = 12						; size = 4
_ResAddPath PROC

; 3334 : {

	push	ebp
	mov	ebp, esp
	sub	esp, 1160				; 00000488H
	mov	eax, DWORD PTR ___security_cookie
	xor	eax, ebp
	mov	DWORD PTR __$ArrayPad$[ebp], eax

; 3335 :     struct _finddata_t data;
; 3336 : 
; 3337 :     int  length=0,

	mov	DWORD PTR _length$[ebp], 0

; 3338 :          count=0,

	mov	DWORD PTR _count$[ebp], 0

; 3339 :          done=0,

	mov	DWORD PTR _done$[ebp], 0

; 3340 :          refresh = FALSE,

	mov	DWORD PTR _refresh$[ebp], 0

; 3341 :          full_yet = FALSE,

	mov	DWORD PTR _full_yet$[ebp], 0

; 3342 :          retval = TRUE,

	mov	DWORD PTR _retval$[ebp], 1

; 3343 :          filenum=0, filecount=0;

	mov	DWORD PTR _filenum$[ebp], 0
	mov	DWORD PTR _filecount$[ebp], 0

; 3344 : 
; 3345 :     long directory=0;

	mov	DWORD PTR _directory$[ebp], 0

; 3346 :     
; 3347 :     char tmp_path[ _MAX_PATH ]={0};

	mov	BYTE PTR _tmp_path$[ebp], 0
	push	259					; 00000103H
	push	0
	lea	eax, DWORD PTR _tmp_path$[ebp+1]
	push	eax
	call	_memset
	add	esp, 12					; 0000000cH

; 3348 :     char buffer[ _MAX_PATH ]={0};

	mov	BYTE PTR _buffer$[ebp], 0
	push	259					; 00000103H
	push	0
	lea	ecx, DWORD PTR _buffer$[ebp+1]
	push	ecx
	call	_memset
	add	esp, 12					; 0000000cH

; 3349 : 
; 3350 :     HASH_TABLE * local_table=NULL;

	mov	DWORD PTR _local_table$[ebp], 0

; 3351 :     HASH_ENTRY * entry=NULL;

	mov	DWORD PTR _entry$[ebp], 0

; 3352 : 
; 3353 :     char vol_was=0;

	mov	BYTE PTR _vol_was$[ebp], 0

; 3354 :     int  dir_was=0;

	mov	DWORD PTR _dir_was$[ebp], 0

; 3355 : 
; 3356 :     struct _finddata_t  *file_data=NULL;

	mov	DWORD PTR _file_data$[ebp], 0

; 3357 : 
; 3358 :     int currentDrive;
; 3359 :     char currentPath[ _MAX_PATH];
; 3360 : 
; 3361 :     /* Save original drive/path.*/
; 3362 :      currentDrive = _getdrive();

	call	__getdrive
	mov	DWORD PTR _currentDrive$[ebp], eax

; 3363 :     _getdcwd( currentDrive,currentPath, _MAX_PATH );

	push	260					; 00000104H
	lea	edx, DWORD PTR _currentPath$[ebp]
	push	edx
	mov	eax, DWORD PTR _currentDrive$[ebp]
	push	eax
	call	__getdcwd
	add	esp, 12					; 0000000cH

; 3364 : 
; 3365 : 
; 3366 : 
; 3367 : #ifdef RES_NO_REPEATED_ADDPATHS
; 3368 :             if ( get_dir_index( path ) != -1 ) 

	mov	ecx, DWORD PTR _path$[ebp]
	push	ecx
	call	_get_dir_index
	add	esp, 4
	cmp	eax, -1
	je	SHORT $LN41@ResAddPath

; 3369 :             {
; 3370 :                  return TRUE;

	mov	eax, 1
	jmp	$LN42@ResAddPath
$LN41@ResAddPath:

; 3371 :             }
; 3372 : #endif
; 3373 : 
; 3374 :     IF_LOG( LOG( "adding path: %s\n", path ));
; 3375 : 
; 3376 : #if( RES_DEBUG_PARAMS )
; 3377 :     if( !path ) {

	cmp	DWORD PTR _path$[ebp], 0
	jne	SHORT $LN40@ResAddPath

; 3378 :         SAY_ERROR( RES_ERR_INCORRECT_PARAMETER, "ResAddPath" );

	push	OFFSET ??_C@_0N@OMEJCDNJ@src?2resmgr?4c?$AA@
	push	3378					; 00000d32H
	push	OFFSET ??_C@_0L@GLEIDJF@ResAddPath?$AA@
	push	-4998					; ffffec7aH
	call	__say_error
	add	esp, 16					; 00000010H

; 3379 :         return( FALSE );

	xor	eax, eax
	jmp	$LN42@ResAddPath
$LN40@ResAddPath:

; 3380 :     }
; 3381 : 
; 3382 :     if( !GLOBAL_HASH_TABLE ) {

	cmp	DWORD PTR _GLOBAL_HASH_TABLE, 0
	jne	SHORT $LN39@ResAddPath

; 3383 :         printf( "You must first call ResCreatePath()\n" );

	push	OFFSET ??_C@_0CF@CKADNGLC@You?5must?5first?5call?5ResCreatePat@
	call	_printf
	add	esp, 4

; 3384 :         return( FALSE );

	xor	eax, eax
	jmp	$LN42@ResAddPath
$LN39@ResAddPath:

; 3385 :     }
; 3386 : #endif /* RES_DEBUG_VERSON */
; 3387 :     
; 3388 : #if( RES_DEBUG_VERSION )
; 3389 : 
; 3390 :     if( GLOBAL_SEARCH_INDEX >= (MAX_DIRECTORIES-1)) {

	cmp	DWORD PTR _GLOBAL_SEARCH_INDEX, 249	; 000000f9H
	jl	SHORT $LN38@ResAddPath

; 3391 :           assert(!"Exceeded MAX_DIRECTORIES as defined in omni.h");
; 3392 : //        SAY_ERROR( RES_ERR_TOO_MANY_DIRECTORIES, "ResAddPath" );
; 3393 :         return( FALSE );

	xor	eax, eax
	jmp	$LN42@ResAddPath
$LN38@ResAddPath:

; 3394 :     }
; 3395 : #endif
; 3396 : 
; 3397 : 
; 3398 : 
; 3399 : 
; 3400 :     /* The hash index must be determined from hashing the full pathname */
; 3401 : 
; 3402 :     res_fullpath( tmp_path, path, (_MAX_PATH - 2));  /* non-portable */

	push	258					; 00000102H
	mov	edx, DWORD PTR _path$[ebp]
	push	edx
	lea	eax, DWORD PTR _tmp_path$[ebp]
	push	eax
	call	_res_fullpath
	add	esp, 12					; 0000000cH

; 3403 : 
; 3404 : #if( !RES_USE_FLAT_MODEL )
; 3405 :     entry = hash_find( tmp_path, GLOBAL_HASH_TABLE );

	mov	ecx, DWORD PTR _GLOBAL_HASH_TABLE
	push	ecx
	lea	edx, DWORD PTR _tmp_path$[ebp]
	push	edx
	call	_hash_find
	add	esp, 8
	mov	DWORD PTR _entry$[ebp], eax

; 3406 : 
; 3407 :     if( entry )

	cmp	DWORD PTR _entry$[ebp], 0
	je	SHORT $LN37@ResAddPath

; 3408 :         refresh = TRUE;

	mov	DWORD PTR _refresh$[ebp], 1
$LN37@ResAddPath:

; 3409 : #endif
; 3410 : 
; 3411 :     /* we need a trailing backslash */
; 3412 : 
; 3413 :     length = strlen( tmp_path );

	lea	eax, DWORD PTR _tmp_path$[ebp]
	push	eax
	call	_strlen
	add	esp, 4
	mov	DWORD PTR _length$[ebp], eax

; 3414 : 
; 3415 :     if( tmp_path[ length-1 ] != ASCII_BACKSLASH ) {

	mov	ecx, DWORD PTR _length$[ebp]
	movsx	edx, BYTE PTR _tmp_path$[ebp+ecx-1]
	cmp	edx, 92					; 0000005cH
	je	SHORT $LN36@ResAddPath

; 3416 :         tmp_path[ length++ ] = ASCII_BACKSLASH;

	mov	eax, DWORD PTR _length$[ebp]
	mov	BYTE PTR _tmp_path$[ebp+eax], 92	; 0000005cH
	mov	ecx, DWORD PTR _length$[ebp]
	add	ecx, 1
	mov	DWORD PTR _length$[ebp], ecx

; 3417 :         tmp_path[ length ] = '\0';

	mov	edx, DWORD PTR _length$[ebp]
	mov	DWORD PTR $T2[ebp], edx
	cmp	DWORD PTR $T2[ebp], 260			; 00000104H
	jae	SHORT $LN44@ResAddPath
	jmp	SHORT $LN45@ResAddPath
$LN44@ResAddPath:
	call	___report_rangecheckfailure
$LN45@ResAddPath:
	mov	eax, DWORD PTR $T2[ebp]
	mov	BYTE PTR _tmp_path$[ebp+eax], 0
$LN36@ResAddPath:

; 3418 :     }
; 3419 : 
; 3420 :     /* the size of the hash table for this directory will be defined by
; 3421 :        the macro HASH_OPTIMAL_RATIO times the number of files in the 
; 3422 :        directory (a small price to pay) */
; 3423 : 
; 3424 :     filecount = count = ResCountDirectory( tmp_path, &file_data);

	lea	ecx, DWORD PTR _file_data$[ebp]
	push	ecx
	lea	edx, DWORD PTR _tmp_path$[ebp]
	push	edx
	call	_ResCountDirectory
	add	esp, 8
	mov	DWORD PTR _count$[ebp], eax
	mov	eax, DWORD PTR _count$[ebp]
	mov	DWORD PTR _filecount$[ebp], eax

; 3425 :     if(count == -1)

	cmp	DWORD PTR _count$[ebp], -1
	jne	SHORT $LN35@ResAddPath

; 3426 :       {
; 3427 : 		#ifdef USE_SH_POOLS
; 3428 :         if(file_data) MemFreePtr(file_data);
; 3429 : 		#else
; 3430 :         if(file_data) MemFree(file_data);

	cmp	DWORD PTR _file_data$[ebp], 0
	je	SHORT $LN34@ResAddPath
	mov	ecx, DWORD PTR _file_data$[ebp]
	push	ecx
	call	_free
	add	esp, 4
$LN34@ResAddPath:

; 3431 : 		#endif
; 3432 :         return FALSE;

	xor	eax, eax
	jmp	$LN42@ResAddPath
$LN35@ResAddPath:

; 3433 :       }
; 3434 : 
; 3435 :     count = (int)((float)count * (float)(HASH_OPTIMAL_RATIO));

	cvtsi2ss xmm0, DWORD PTR _count$[ebp]
	mulss	xmm0, DWORD PTR __real@3f933333
	cvttss2si edx, xmm0
	mov	DWORD PTR _count$[ebp], edx

; 3436 : 
; 3437 :     count = MAX( count, 10 ); /* minimum of 10 entries set aside for a directory */

	cmp	DWORD PTR _count$[ebp], 10		; 0000000aH
	jle	SHORT $LN46@ResAddPath
	mov	eax, DWORD PTR _count$[ebp]
	mov	DWORD PTR tv147[ebp], eax
	jmp	SHORT $LN47@ResAddPath
$LN46@ResAddPath:
	mov	DWORD PTR tv147[ebp], 10		; 0000000aH
$LN47@ResAddPath:
	mov	ecx, DWORD PTR tv147[ebp]
	mov	DWORD PTR _count$[ebp], ecx

; 3438 : 
; 3439 :     strcpy( buffer, tmp_path );

	lea	edx, DWORD PTR _tmp_path$[ebp]
	push	edx
	lea	eax, DWORD PTR _buffer$[ebp]
	push	eax
	call	_strcpy
	add	esp, 8

; 3440 : 
; 3441 :     length = strlen( tmp_path );    /* append wildcard to the filename (*.*) */

	lea	ecx, DWORD PTR _tmp_path$[ebp]
	push	ecx
	call	_strlen
	add	esp, 4
	mov	DWORD PTR _length$[ebp], eax

; 3442 :     tmp_path[ length++ ] = ASCII_ASTERISK;

	mov	edx, DWORD PTR _length$[ebp]
	mov	BYTE PTR _tmp_path$[ebp+edx], 42	; 0000002aH
	mov	eax, DWORD PTR _length$[ebp]
	add	eax, 1
	mov	DWORD PTR _length$[ebp], eax

; 3443 :     tmp_path[ length++ ] = ASCII_PERIOD;

	mov	ecx, DWORD PTR _length$[ebp]
	mov	BYTE PTR _tmp_path$[ebp+ecx], 46	; 0000002eH
	mov	edx, DWORD PTR _length$[ebp]
	add	edx, 1
	mov	DWORD PTR _length$[ebp], edx

; 3444 :     tmp_path[ length++ ] = ASCII_ASTERISK;

	mov	eax, DWORD PTR _length$[ebp]
	mov	BYTE PTR _tmp_path$[ebp+eax], 42	; 0000002aH
	mov	ecx, DWORD PTR _length$[ebp]
	add	ecx, 1
	mov	DWORD PTR _length$[ebp], ecx

; 3445 :     tmp_path[ length ]   = '\0';

	mov	edx, DWORD PTR _length$[ebp]
	mov	DWORD PTR $T3[ebp], edx
	cmp	DWORD PTR $T3[ebp], 260			; 00000104H
	jae	SHORT $LN48@ResAddPath
	jmp	SHORT $LN49@ResAddPath
$LN48@ResAddPath:
	call	___report_rangecheckfailure
$LN49@ResAddPath:
	mov	eax, DWORD PTR $T3[ebp]
	mov	BYTE PTR _tmp_path$[ebp+eax], 0

; 3446 : 
; 3447 : #if( !RES_USE_FLAT_MODEL )
; 3448 : 
; 3449 :     /* for the hierarchical model, we create a new hash table for the directory to
; 3450 :        be added.  Then we insert a hashed entry into the GLOBAL_HASH_TABLE which
; 3451 :        points to this new table. */
; 3452 : 
; 3453 : #if 1
; 3454 :     memcpy(&data,file_data,sizeof(struct _finddata_t));

	push	296					; 00000128H
	mov	ecx, DWORD PTR _file_data$[ebp]
	push	ecx
	lea	edx, DWORD PTR _data$[ebp]
	push	edx
	call	_memcpy
	add	esp, 12					; 0000000cH

; 3455 : #else
; 3456 :     directory = _findfirst( tmp_path, &data );      /* make sure it exists                              */
; 3457 :     if( directory == -1 ) {
; 3458 :         SAY_ERROR( RES_ERR_PATH_NOT_FOUND, tmp_path );
; 3459 :         return( FALSE );
; 3460 :     }
; 3461 :     _findclose( directory );
; 3462 :     
; 3463 : #endif
; 3464 : 
; 3465 :     if( !entry || !entry -> dir )

	cmp	DWORD PTR _entry$[ebp], 0
	je	SHORT $LN32@ResAddPath
	mov	eax, DWORD PTR _entry$[ebp]
	cmp	DWORD PTR [eax+40], 0
	jne	SHORT $LN33@ResAddPath
$LN32@ResAddPath:

; 3466 :         local_table = hash_create( count, buffer ); /* create a new table                               */

	lea	ecx, DWORD PTR _buffer$[ebp]
	push	ecx
	mov	edx, DWORD PTR _count$[ebp]
	push	edx
	call	_hash_create
	add	esp, 8
	mov	DWORD PTR _local_table$[ebp], eax

; 3467 :     else

	jmp	SHORT $LN30@ResAddPath
$LN33@ResAddPath:

; 3468 :         if( entry )

	cmp	DWORD PTR _entry$[ebp], 0
	je	SHORT $LN30@ResAddPath

; 3469 :             local_table = entry -> dir;

	mov	eax, DWORD PTR _entry$[ebp]
	mov	ecx, DWORD PTR [eax+40]
	mov	DWORD PTR _local_table$[ebp], ecx
$LN30@ResAddPath:

; 3470 :     
; 3471 :     if( !local_table )

	cmp	DWORD PTR _local_table$[ebp], 0
	jne	SHORT $LN29@ResAddPath

; 3472 :         return( FALSE );

	xor	eax, eax
	jmp	$LN42@ResAddPath
$LN29@ResAddPath:

; 3473 : 
; 3474 :     strcpy( data.name, buffer );                    /* insert a dummy entry into the global hash table  */

	lea	edx, DWORD PTR _buffer$[ebp]
	push	edx
	lea	eax, DWORD PTR _data$[ebp+36]
	push	eax
	call	_strcpy
	add	esp, 8

; 3475 :     data.attrib = _A_SUBDIR | (unsigned int)FORCE_BIT;

	mov	DWORD PTR _data$[ebp], -2147483632	; 80000010H

; 3476 :     data.time_create = 0;

	xorpd	xmm0, xmm0
	movlpd	QWORD PTR _data$[ebp+8], xmm0

; 3477 :     data.time_access = 0;

	xorpd	xmm0, xmm0
	movlpd	QWORD PTR _data$[ebp+16], xmm0

; 3478 :     data.size = 0;

	mov	DWORD PTR _data$[ebp+32], 0

; 3479 : 
; 3480 :     if( !entry )

	cmp	DWORD PTR _entry$[ebp], 0
	jne	SHORT $LN28@ResAddPath

; 3481 :         entry = hash_add( &data, GLOBAL_HASH_TABLE );

	mov	ecx, DWORD PTR _GLOBAL_HASH_TABLE
	push	ecx
	lea	edx, DWORD PTR _data$[ebp]
	push	edx
	call	_hash_add
	add	esp, 8
	mov	DWORD PTR _entry$[ebp], eax
$LN28@ResAddPath:

; 3482 : 
; 3483 :     if( !entry )

	cmp	DWORD PTR _entry$[ebp], 0
	jne	SHORT $LN27@ResAddPath

; 3484 :         return( FALSE );

	xor	eax, eax
	jmp	$LN42@ResAddPath
$LN27@ResAddPath:

; 3485 : 
; 3486 :     if( !entry -> dir )

	mov	eax, DWORD PTR _entry$[ebp]
	cmp	DWORD PTR [eax+40], 0
	jne	SHORT $LN26@ResAddPath

; 3487 :         entry -> dir = local_table;

	mov	ecx, DWORD PTR _entry$[ebp]
	mov	edx, DWORD PTR _local_table$[ebp]
	mov	DWORD PTR [ecx+40], edx
$LN26@ResAddPath:

; 3488 : 
; 3489 :     if( !refresh ) {

	cmp	DWORD PTR _refresh$[ebp], 0
	jne	$LN25@ResAddPath

; 3490 :         entry -> offset = 0;

	mov	eax, DWORD PTR _entry$[ebp]
	mov	DWORD PTR [eax+4], 0

; 3491 :         entry -> csize  = 0;

	mov	ecx, DWORD PTR _entry$[ebp]
	mov	DWORD PTR [ecx+12], 0

; 3492 :         entry -> method = 0;

	xor	edx, edx
	mov	eax, DWORD PTR _entry$[ebp]
	mov	WORD PTR [eax+16], dx

; 3493 :         entry -> archive = -1;

	mov	ecx, DWORD PTR _entry$[ebp]
	mov	DWORD PTR [ecx+24], -1

; 3494 :         entry -> file_position = -1;

	mov	edx, DWORD PTR _entry$[ebp]
	mov	DWORD PTR [edx+20], -1

; 3495 :         entry -> volume = (char)(toupper(tmp_path[0]) - 'A');

	mov	eax, 1
	imul	eax, 0
	movsx	ecx, BYTE PTR _tmp_path$[ebp+eax]
	push	ecx
	call	_toupper
	add	esp, 4
	sub	eax, 65					; 00000041H
	mov	edx, DWORD PTR _entry$[ebp]
	mov	BYTE PTR [edx+36], al

; 3496 :         entry -> directory = GLOBAL_SEARCH_INDEX;

	mov	eax, DWORD PTR _entry$[ebp]
	mov	ecx, DWORD PTR _GLOBAL_SEARCH_INDEX
	mov	DWORD PTR [eax+32], ecx

; 3497 : 
; 3498 :         GLOBAL_PATH_LIST = LIST_APPEND( GLOBAL_PATH_LIST, local_table );

	mov	edx, DWORD PTR _local_table$[ebp]
	push	edx
	mov	eax, DWORD PTR _GLOBAL_PATH_LIST
	push	eax
	call	_ListAppend
	add	esp, 8
	mov	DWORD PTR _GLOBAL_PATH_LIST, eax
$LN25@ResAddPath:

; 3499 :     }
; 3500 : #else
; 3501 :     local_table = GLOBAL_HASH_TABLE;                /* flat mode - all entries go into the root         */
; 3502 : #endif  /* !RES_USE_FLAT_MODEL */
; 3503 : 
; 3504 :     /* enter the files into the local hash table, keeping count of the total 
; 3505 :        number of entries. */
; 3506 : 
; 3507 :     done = 0;

	mov	DWORD PTR _done$[ebp], 0

; 3508 : 
; 3509 :     vol_was = (char)(toupper(tmp_path[0]) - 'A');

	mov	ecx, 1
	imul	ecx, 0
	movsx	edx, BYTE PTR _tmp_path$[ebp+ecx]
	push	edx
	call	_toupper
	add	esp, 4
	sub	eax, 65					; 00000041H
	mov	BYTE PTR _vol_was$[ebp], al

; 3510 : 
; 3511 : 
; 3512 : 
; 3513 :     if( !refresh ) {

	cmp	DWORD PTR _refresh$[ebp], 0
	jne	SHORT $LN24@ResAddPath

; 3514 :         dir_was = GLOBAL_SEARCH_INDEX;

	mov	eax, DWORD PTR _GLOBAL_SEARCH_INDEX
	mov	DWORD PTR _dir_was$[ebp], eax

; 3515 : 
; 3516 :         GLOBAL_SEARCH_PATH[ GLOBAL_SEARCH_INDEX++ ] = MemStrDup( buffer );

	lea	ecx, DWORD PTR _buffer$[ebp]
	push	ecx
	call	_strdup
	add	esp, 4
	mov	edx, DWORD PTR _GLOBAL_SEARCH_INDEX
	mov	DWORD PTR _GLOBAL_SEARCH_PATH[edx*4], eax
	mov	eax, DWORD PTR _GLOBAL_SEARCH_INDEX
	add	eax, 1
	mov	DWORD PTR _GLOBAL_SEARCH_INDEX, eax

; 3517 :         
; 3518 :         strcpy( GLOBAL_CURRENT_PATH, buffer );

	lea	ecx, DWORD PTR _buffer$[ebp]
	push	ecx
	push	OFFSET _GLOBAL_CURRENT_PATH
	call	_strcpy
	add	esp, 8

; 3519 :     }
; 3520 :     else 

	jmp	SHORT $LN23@ResAddPath
$LN24@ResAddPath:

; 3521 :         dir_was = get_dir_index( path );

	mov	edx, DWORD PTR _path$[ebp]
	push	edx
	call	_get_dir_index
	add	esp, 4
	mov	DWORD PTR _dir_was$[ebp], eax
$LN23@ResAddPath:

; 3522 :     
; 3523 : //    if( _chdir( buffer ))        // GFG MAY 05 / 98
; 3524 : //        SAY_ERROR( errno, "ResAddPath" );
; 3525 : 
; 3526 : #if 1
; 3527 :     memcpy(&data,file_data,sizeof(struct _finddata_t));

	push	296					; 00000128H
	mov	eax, DWORD PTR _file_data$[ebp]
	push	eax
	lea	ecx, DWORD PTR _data$[ebp]
	push	ecx
	call	_memcpy
	add	esp, 12					; 0000000cH

; 3528 :     directory = 1;

	mov	DWORD PTR _directory$[ebp], 1

; 3529 :     filenum = 0;

	mov	DWORD PTR _filenum$[ebp], 0

; 3530 : #else
; 3531 :     directory = _findfirst( tmp_path, &data );
; 3532 : #endif
; 3533 :     if( directory != -1 ) {

	cmp	DWORD PTR _directory$[ebp], -1
	je	$LN20@ResAddPath
$LN50@ResAddPath:

; 3534 :         /* integral volume id & path index */
; 3535 : 
; 3536 :         while( !done ) {

	cmp	DWORD PTR _done$[ebp], 0
	jne	$LN20@ResAddPath

; 3537 : 
; 3538 :             /* don't add directories to the hash table,
; 3539 :                ResTreeAdd is used to recurse directories */
; 3540 : 
; 3541 :             if( !(data.attrib & _A_SUBDIR)) {

	mov	edx, DWORD PTR _data$[ebp]
	and	edx, 16					; 00000010H
	jne	$LN19@ResAddPath

; 3542 : 
; 3543 :                    /* Reject empty files before calling hash_add.  This
; 3544 :                       allows file creation to still be able to use hash_add. */
; 3545 : 
; 3546 : #if( RES_REJECT_EMPTY_FILES )
; 3547 :                    if( data.size == 0 ) {
; 3548 :                        IF_LOG( LOG( "empty file rejected: %s\n", data.name ));
; 3549 : #if 1 
; 3550 :                        if(filenum < filecount-1)
; 3551 :                        {
; 3552 :                            filenum++;
; 3553 :                            memcpy(&data,file_data+filenum,sizeof(struct _finddata_t));
; 3554 :                        }
; 3555 :                        else
; 3556 :                            done = filenum;
; 3557 : 
; 3558 : #else
; 3559 :                        done = _findnext( directory, &data );
; 3560 : #endif
; 3561 :                        continue;
; 3562 :                    }
; 3563 : #endif /* !RES_ALLOW_EMPTY_FILES */
; 3564 : 
; 3565 :                if( refresh ) {

	cmp	DWORD PTR _refresh$[ebp], 0
	je	$LN18@ResAddPath

; 3566 :                    if( hash_find( data.name, local_table )) {

	mov	eax, DWORD PTR _local_table$[ebp]
	push	eax
	lea	ecx, DWORD PTR _data$[ebp+36]
	push	ecx
	call	_hash_find
	add	esp, 8
	test	eax, eax
	je	SHORT $LN17@ResAddPath

; 3567 : #if 1
; 3568 :                        if(filenum < filecount-1)

	mov	edx, DWORD PTR _filecount$[ebp]
	sub	edx, 1
	cmp	DWORD PTR _filenum$[ebp], edx
	jge	SHORT $LN16@ResAddPath

; 3569 :                        {
; 3570 :                            filenum++;

	mov	eax, DWORD PTR _filenum$[ebp]
	add	eax, 1
	mov	DWORD PTR _filenum$[ebp], eax

; 3571 :                            memcpy(&data,file_data+filenum,sizeof(struct _finddata_t));

	push	296					; 00000128H
	mov	ecx, DWORD PTR _filenum$[ebp]
	imul	ecx, 296				; 00000128H
	add	ecx, DWORD PTR _file_data$[ebp]
	push	ecx
	lea	edx, DWORD PTR _data$[ebp]
	push	edx
	call	_memcpy
	add	esp, 12					; 0000000cH

; 3572 :                        }
; 3573 :                        else

	jmp	SHORT $LN15@ResAddPath
$LN16@ResAddPath:

; 3574 :                            done = filenum;

	mov	eax, DWORD PTR _filenum$[ebp]
	mov	DWORD PTR _done$[ebp], eax
$LN15@ResAddPath:

; 3575 : 
; 3576 : #else
; 3577 : 
; 3578 :                        done = _findnext( directory, &data );
; 3579 : #endif
; 3580 :                        continue;

	jmp	$LN50@ResAddPath
$LN17@ResAddPath:

; 3581 :                    }
; 3582 : 
; 3583 :                     entry = hash_find( data.name, local_table );

	mov	ecx, DWORD PTR _local_table$[ebp]
	push	ecx
	lea	edx, DWORD PTR _data$[ebp+36]
	push	edx
	call	_hash_find
	add	esp, 8
	mov	DWORD PTR _entry$[ebp], eax

; 3584 : 
; 3585 :                    if( !entry )

	cmp	DWORD PTR _entry$[ebp], 0
	jne	SHORT $LN14@ResAddPath

; 3586 :                       entry = hash_add( &data, local_table );

	mov	eax, DWORD PTR _local_table$[ebp]
	push	eax
	lea	ecx, DWORD PTR _data$[ebp]
	push	ecx
	call	_hash_add
	add	esp, 8
	mov	DWORD PTR _entry$[ebp], eax
$LN14@ResAddPath:

; 3587 : 
; 3588 :                    if( entry ) {

	cmp	DWORD PTR _entry$[ebp], 0
	je	SHORT $LN13@ResAddPath

; 3589 :                       entry -> size = data.size;

	mov	edx, DWORD PTR _entry$[ebp]
	mov	eax, DWORD PTR _data$[ebp+32]
	mov	DWORD PTR [edx+8], eax

; 3590 :                       entry -> attrib = data.attrib | FORCE_BIT;

	mov	ecx, DWORD PTR _data$[ebp]
	or	ecx, -2147483648			; 80000000H
	mov	edx, DWORD PTR _entry$[ebp]
	mov	DWORD PTR [edx+28], ecx
$LN13@ResAddPath:

; 3591 :                    }
; 3592 :                } 
; 3593 :                else {

	jmp	SHORT $LN12@ResAddPath
$LN18@ResAddPath:

; 3594 :                    entry = hash_add( &data, local_table );

	mov	eax, DWORD PTR _local_table$[ebp]
	push	eax
	lea	ecx, DWORD PTR _data$[ebp]
	push	ecx
	call	_hash_add
	add	esp, 8
	mov	DWORD PTR _entry$[ebp], eax
$LN12@ResAddPath:

; 3595 :                }
; 3596 : 
; 3597 : 
; 3598 :                if( entry ) { /* empty files may be rejected from hash_add */

	cmp	DWORD PTR _entry$[ebp], 0
	je	SHORT $LN11@ResAddPath

; 3599 : 
; 3600 :                     IF_LOG( LOG( "add: %s\n", entry -> name ));
; 3601 : 
; 3602 :                     entry -> offset = 0;

	mov	edx, DWORD PTR _entry$[ebp]
	mov	DWORD PTR [edx+4], 0

; 3603 :                     entry -> csize  = 0;

	mov	eax, DWORD PTR _entry$[ebp]
	mov	DWORD PTR [eax+12], 0

; 3604 :                     entry -> method = 0;

	xor	ecx, ecx
	mov	edx, DWORD PTR _entry$[ebp]
	mov	WORD PTR [edx+16], cx

; 3605 :                     entry -> volume = vol_was;

	mov	eax, DWORD PTR _entry$[ebp]
	mov	cl, BYTE PTR _vol_was$[ebp]
	mov	BYTE PTR [eax+36], cl

; 3606 :                     entry -> directory = dir_was;

	mov	edx, DWORD PTR _entry$[ebp]
	mov	eax, DWORD PTR _dir_was$[ebp]
	mov	DWORD PTR [edx+32], eax

; 3607 :                     entry -> archive = -1;

	mov	ecx, DWORD PTR _entry$[ebp]
	mov	DWORD PTR [ecx+24], -1

; 3608 :                     entry -> file_position = -1;

	mov	edx, DWORD PTR _entry$[ebp]
	mov	DWORD PTR [edx+20], -1
$LN11@ResAddPath:

; 3609 :                }
; 3610 :             }
; 3611 :             else {    /* if we want to add an entire directory tree, recurse is TRUE */

	jmp	$LN4@ResAddPath
$LN19@ResAddPath:

; 3612 :                 if( recurse && !full_yet ) {

	cmp	DWORD PTR _recurse$[ebp], 0
	je	$LN4@ResAddPath
	cmp	DWORD PTR _full_yet$[ebp], 0
	jne	$LN4@ResAddPath

; 3613 :                     if( strcmp( data.name, "." ) && strcmp( data.name, ".." )) {

	push	OFFSET ??_C@_01LFCBOECM@?4?$AA@
	lea	eax, DWORD PTR _data$[ebp+36]
	push	eax
	call	_strcmp
	add	esp, 8
	test	eax, eax
	je	$LN4@ResAddPath
	push	OFFSET ??_C@_02DJGKEECL@?4?4?$AA@
	lea	ecx, DWORD PTR _data$[ebp+36]
	push	ecx
	call	_strcmp
	add	esp, 8
	test	eax, eax
	je	$LN4@ResAddPath

; 3614 :                         int idx, ln;
; 3615 : 
; 3616 :                         ln = strlen( tmp_path );

	lea	edx, DWORD PTR _tmp_path$[ebp]
	push	edx
	call	_strlen
	add	esp, 4
	mov	DWORD PTR _ln$1[ebp], eax

; 3617 : 
; 3618 :                         for( idx=ln-1; idx, tmp_path[idx] != ASCII_BACKSLASH; idx-- ) ;

	mov	eax, DWORD PTR _ln$1[ebp]
	sub	eax, 1
	mov	DWORD PTR _idx$4[ebp], eax
	jmp	SHORT $LN7@ResAddPath
$LN6@ResAddPath:
	mov	ecx, DWORD PTR _idx$4[ebp]
	sub	ecx, 1
	mov	DWORD PTR _idx$4[ebp], ecx
$LN7@ResAddPath:
	mov	edx, DWORD PTR _idx$4[ebp]
	movsx	eax, BYTE PTR _tmp_path$[ebp+edx]
	cmp	eax, 92					; 0000005cH
	je	SHORT $LN5@ResAddPath
	jmp	SHORT $LN6@ResAddPath
$LN5@ResAddPath:

; 3619 : 
; 3620 :                         strncpy( buffer, tmp_path, idx );

	mov	ecx, DWORD PTR _idx$4[ebp]
	push	ecx
	lea	edx, DWORD PTR _tmp_path$[ebp]
	push	edx
	lea	eax, DWORD PTR _buffer$[ebp]
	push	eax
	call	_strncpy
	add	esp, 12					; 0000000cH

; 3621 :                         sprintf( &buffer[idx], "\\%s\\", data.name );

	lea	ecx, DWORD PTR _data$[ebp+36]
	push	ecx
	push	OFFSET ??_C@_04BDGLLBHF@?2?$CFs?2?$AA@
	mov	edx, DWORD PTR _idx$4[ebp]
	lea	eax, DWORD PTR _buffer$[ebp+edx]
	push	eax
	call	_sprintf
	add	esp, 12					; 0000000cH

; 3622 : 
; 3623 :                         if( !ResAddPath( buffer, TRUE )) { /* Recursively call this function. */

	push	1
	lea	ecx, DWORD PTR _buffer$[ebp]
	push	ecx
	call	_ResAddPath
	add	esp, 8
	test	eax, eax
	jne	SHORT $LN4@ResAddPath

; 3624 :                             full_yet = TRUE;               /* We want to continue adding this directory, and THEN */

	mov	DWORD PTR _full_yet$[ebp], 1

; 3625 :                             retval = FALSE;                /* trickle up a return flag.                           */

	mov	DWORD PTR _retval$[ebp], 0
$LN4@ResAddPath:

; 3626 :                         }
; 3627 :                     }
; 3628 :                 }
; 3629 :             }
; 3630 : #if 1
; 3631 :                        if(filenum < filecount-1)

	mov	edx, DWORD PTR _filecount$[ebp]
	sub	edx, 1
	cmp	DWORD PTR _filenum$[ebp], edx
	jge	SHORT $LN3@ResAddPath

; 3632 :                        {
; 3633 :                            filenum++;

	mov	eax, DWORD PTR _filenum$[ebp]
	add	eax, 1
	mov	DWORD PTR _filenum$[ebp], eax

; 3634 :                            memcpy(&data,file_data+filenum,sizeof(struct _finddata_t));

	push	296					; 00000128H
	mov	ecx, DWORD PTR _filenum$[ebp]
	imul	ecx, 296				; 00000128H
	add	ecx, DWORD PTR _file_data$[ebp]
	push	ecx
	lea	edx, DWORD PTR _data$[ebp]
	push	edx
	call	_memcpy
	add	esp, 12					; 0000000cH

; 3635 :                        }
; 3636 :                        else

	jmp	SHORT $LN2@ResAddPath
$LN3@ResAddPath:

; 3637 :                            done = filenum;

	mov	eax, DWORD PTR _filenum$[ebp]
	mov	DWORD PTR _done$[ebp], eax
$LN2@ResAddPath:

; 3638 : 
; 3639 : #else
; 3640 : 
; 3641 :             done = _findnext( directory, &data );
; 3642 : #endif
; 3643 : 
; 3644 :         }

	jmp	$LN50@ResAddPath
$LN20@ResAddPath:

; 3645 : 
; 3646 : #if 0        
; 3647 :         _findclose( directory ); /* done! */
; 3648 : #endif
; 3649 : 
; 3650 :     }
; 3651 : 
; 3652 :     sort_path();

	call	_sort_path

; 3653 : 
; 3654 :     if(file_data)

	cmp	DWORD PTR _file_data$[ebp], 0
	je	SHORT $LN1@ResAddPath

; 3655 :     {
; 3656 : 		#ifdef USE_SH_POOLS
; 3657 :         MemFreePtr(file_data);
; 3658 : 		#else
; 3659 :         MemFree(file_data);

	mov	ecx, DWORD PTR _file_data$[ebp]
	push	ecx
	call	_free
	add	esp, 4

; 3660 : 		#endif
; 3661 :         file_data = NULL;

	mov	DWORD PTR _file_data$[ebp], 0
$LN1@ResAddPath:

; 3662 :     }
; 3663 : 
; 3664 :     /* Restore original drive.*/  // GFG MAY 05 /98
; 3665 :     _chdrive( currentDrive );

	mov	edx, DWORD PTR _currentDrive$[ebp]
	push	edx
	call	__chdrive
	add	esp, 4

; 3666 :     _chdir  ( currentPath  );

	lea	eax, DWORD PTR _currentPath$[ebp]
	push	eax
	call	__chdir
	add	esp, 4

; 3667 : 
; 3668 : 
; 3669 :     return( retval );

	mov	eax, DWORD PTR _retval$[ebp]
$LN42@ResAddPath:

; 3670 : }

	mov	ecx, DWORD PTR __$ArrayPad$[ebp]
	xor	ecx, ebp
	call	@__security_check_cookie@4
	mov	esp, ebp
	pop	ebp
	ret	0
_ResAddPath ENDP
_TEXT	ENDS
; Function compile flags: /Odtp
; File c:\users\zhitao li\documents\visual studio 2012\projects\freefalcon\codelib\resources\reslib\src\resmgr.c
_TEXT	SEGMENT
_list$ = -4						; size = 4
_path$ = 8						; size = 4
_recurse$ = 12						; size = 4
_ResCreatePath PROC

; 3262 : {

	push	ebp
	mov	ebp, esp
	push	ecx

; 3263 :     LIST * list;
; 3264 : 
; 3265 : #if( RES_DEBUG_VERSON )
; 3266 :     if( !path ) {
; 3267 :         SAY_ERROR( RES_ERR_INCORRECT_PARAMETER, "ResCreatePath" );
; 3268 :         return( FALSE );
; 3269 :     }
; 3270 : #endif /* RES_DEBUG_VERSON */
; 3271 : #if (RES_MULTITHREAD)
; 3272 : 	REQUEST_LOCK(GLOCK);

	push	-1
	mov	eax, DWORD PTR _GLOCK
	push	eax
	call	DWORD PTR __imp__WaitForSingleObject@8

; 3273 : #endif
; 3274 : 
; 3275 :     IF_LOG( LOG( "create path: %s\n", path ));
; 3276 : 
; 3277 :     if( GLOBAL_HASH_TABLE )

	cmp	DWORD PTR _GLOBAL_HASH_TABLE, 0
	je	SHORT $LN6@ResCreateP

; 3278 :         hash_destroy( GLOBAL_HASH_TABLE );

	mov	ecx, DWORD PTR _GLOBAL_HASH_TABLE
	push	ecx
	call	_hash_destroy
	add	esp, 4
$LN6@ResCreateP:

; 3279 : 
; 3280 :     if( GLOBAL_PATH_LIST ) {

	cmp	DWORD PTR _GLOBAL_PATH_LIST, 0
	je	SHORT $LN5@ResCreateP

; 3281 :         for( list = GLOBAL_PATH_LIST; list; list = list -> next ) {

	mov	edx, DWORD PTR _GLOBAL_PATH_LIST
	mov	DWORD PTR _list$[ebp], edx
	jmp	SHORT $LN4@ResCreateP
$LN3@ResCreateP:
	mov	eax, DWORD PTR _list$[ebp]
	mov	ecx, DWORD PTR [eax+8]
	mov	DWORD PTR _list$[ebp], ecx
$LN4@ResCreateP:
	cmp	DWORD PTR _list$[ebp], 0
	je	SHORT $LN2@ResCreateP

; 3282 : #if( RES_USE_FLAT_MODEL )
; 3283 : 			#ifdef USE_SH_POOLS
; 3284 :             MemFreePtr( list -> node );
; 3285 : 			#else
; 3286 :             MemFree( list -> node );
; 3287 : 			#endif
; 3288 : #else
; 3289 :             hash_destroy( (HASH_TABLE *)list -> node );

	mov	edx, DWORD PTR _list$[ebp]
	mov	eax, DWORD PTR [edx]
	push	eax
	call	_hash_destroy
	add	esp, 4

; 3290 : #endif /* RES_USE_FLAT_MODEL */     
; 3291 :         }

	jmp	SHORT $LN3@ResCreateP
$LN2@ResCreateP:

; 3292 : 
; 3293 :         LIST_DESTROY( GLOBAL_PATH_LIST, NULL );

	push	0
	mov	ecx, DWORD PTR _GLOBAL_PATH_LIST
	push	ecx
	call	_ListDestroy
	add	esp, 8
$LN5@ResCreateP:

; 3294 :     }
; 3295 : 
; 3296 :     GLOBAL_PATH_LIST = NULL;

	mov	DWORD PTR _GLOBAL_PATH_LIST, 0

; 3297 : 
; 3298 :     GLOBAL_HASH_TABLE = hash_create( HASH_TABLE_SIZE, "Global" );

	push	OFFSET ??_C@_06JGBJPOPP@Global?$AA@
	push	29					; 0000001dH
	call	_hash_create
	add	esp, 8
	mov	DWORD PTR _GLOBAL_HASH_TABLE, eax

; 3299 : #if (RES_MULTITHREAD)
; 3300 : 	RELEASE_LOCK(GLOCK);

	mov	edx, DWORD PTR _GLOCK
	push	edx
	call	DWORD PTR __imp__ReleaseMutex@4

; 3301 : #endif
; 3302 : 
; 3303 :     if( !GLOBAL_HASH_TABLE )

	cmp	DWORD PTR _GLOBAL_HASH_TABLE, 0
	jne	SHORT $LN1@ResCreateP

; 3304 :         return( FALSE );

	xor	eax, eax
	jmp	SHORT $LN7@ResCreateP
$LN1@ResCreateP:

; 3305 : 
; 3306 :     return( ResAddPath( path, recurse ));

	mov	eax, DWORD PTR _recurse$[ebp]
	push	eax
	mov	ecx, DWORD PTR _path$[ebp]
	push	ecx
	call	_ResAddPath
	add	esp, 8
$LN7@ResCreateP:

; 3307 : }

	mov	esp, ebp
	pop	ebp
	ret	0
_ResCreatePath ENDP
_TEXT	ENDS
; Function compile flags: /Odtp
; File c:\users\zhitao li\documents\visual studio 2012\projects\freefalcon\codelib\resources\reslib\src\resmgr.c
_TEXT	SEGMENT
tv78 = -12						; size = 4
_check$ = -8						; size = 4
_list$ = -4						; size = 4
_idx$ = 8						; size = 4
_buffer$ = 12						; size = 4
_ResGetPath PROC

; 2897 : {

	push	ebp
	mov	ebp, esp
	sub	esp, 12					; 0000000cH

; 2898 :     LIST * list;
; 2899 :     char * check = NULL;

	mov	DWORD PTR _check$[ebp], 0

; 2900 : 
; 2901 : #if( RES_DEBUG_PARAMS )
; 2902 :     if( !buffer || idx < 0 ) {

	cmp	DWORD PTR _buffer$[ebp], 0
	je	SHORT $LN3@ResGetPath
	cmp	DWORD PTR _idx$[ebp], 0
	jge	SHORT $LN4@ResGetPath
$LN3@ResGetPath:

; 2903 :         return( 0 );

	xor	eax, eax
	jmp	SHORT $LN5@ResGetPath
$LN4@ResGetPath:

; 2904 :     }
; 2905 : #endif /* RES_DEBUG_PARAMS */
; 2906 : 
; 2907 :     list = LIST_NTH( GLOBAL_PATH_LIST, idx );

	mov	eax, DWORD PTR _idx$[ebp]
	push	eax
	mov	ecx, DWORD PTR _GLOBAL_PATH_LIST
	push	ecx
	call	_ListNth
	add	esp, 8
	mov	DWORD PTR _list$[ebp], eax

; 2908 : 
; 2909 :     if( list ) 

	cmp	DWORD PTR _list$[ebp], 0
	je	SHORT $LN2@ResGetPath

; 2910 :         check = strcpy( buffer, ((HASH_TABLE *)(list -> node)) -> name );

	mov	edx, DWORD PTR _list$[ebp]
	mov	eax, DWORD PTR [edx]
	mov	ecx, DWORD PTR [eax+8]
	push	ecx
	mov	edx, DWORD PTR _buffer$[ebp]
	push	edx
	call	_strcpy
	add	esp, 8
	mov	DWORD PTR _check$[ebp], eax

; 2911 :     else

	jmp	SHORT $LN1@ResGetPath
$LN2@ResGetPath:

; 2912 :         *buffer = 0x00;

	mov	eax, DWORD PTR _buffer$[ebp]
	mov	BYTE PTR [eax], 0
$LN1@ResGetPath:

; 2913 : 
; 2914 :     return( check ? strlen(buffer) : 0 );

	cmp	DWORD PTR _check$[ebp], 0
	je	SHORT $LN7@ResGetPath
	mov	ecx, DWORD PTR _buffer$[ebp]
	push	ecx
	call	_strlen
	add	esp, 4
	mov	DWORD PTR tv78[ebp], eax
	jmp	SHORT $LN8@ResGetPath
$LN7@ResGetPath:
	mov	DWORD PTR tv78[ebp], 0
$LN8@ResGetPath:
	mov	eax, DWORD PTR tv78[ebp]
$LN5@ResGetPath:

; 2915 : }

	mov	esp, ebp
	pop	ebp
	ret	0
_ResGetPath ENDP
_TEXT	ENDS
; Function compile flags: /Odtp
; File c:\users\zhitao li\documents\visual studio 2012\projects\freefalcon\codelib\resources\reslib\src\resmgr.c
_TEXT	SEGMENT
$T1 = -284						; size = 4
$T2 = -280						; size = 4
$T3 = -276						; size = 4
_ptr$ = -272						; size = 4
_len$ = -268						; size = 4
_tmp$ = -264						; size = 260
__$ArrayPad$ = -4					; size = 4
_index$ = 8						; size = 4
_path_in$ = 12						; size = 4
_path_out$ = 16						; size = 4
_ResBuildPathname PROC

; 3701 : {

	push	ebp
	mov	ebp, esp
	sub	esp, 284				; 0000011cH
	mov	eax, DWORD PTR ___security_cookie
	xor	eax, ebp
	mov	DWORD PTR __$ArrayPad$[ebp], eax

; 3702 :     char tmp[ _MAX_PATH ]={0};

	mov	BYTE PTR _tmp$[ebp], 0
	push	259					; 00000103H
	push	0
	lea	eax, DWORD PTR _tmp$[ebp+1]
	push	eax
	call	_memset
	add	esp, 12					; 0000000cH

; 3703 :     int  len=0;

	mov	DWORD PTR _len$[ebp], 0

; 3704 :     char * ptr=NULL;

	mov	DWORD PTR _ptr$[ebp], 0

; 3705 :     
; 3706 : #if( RES_DEBUG_PARAMS )
; 3707 :     if((index < RES_DIR_NONE)  ||
; 3708 :        (index >= RES_DIR_LAST) ||
; 3709 :        ( !path_out )) 

	cmp	DWORD PTR _index$[ebp], 0
	jl	SHORT $LN13@ResBuildPa
	cmp	DWORD PTR _index$[ebp], 17		; 00000011H
	jge	SHORT $LN13@ResBuildPa
	cmp	DWORD PTR _path_out$[ebp], 0
	jne	SHORT $LN14@ResBuildPa
$LN13@ResBuildPa:

; 3710 :     {
; 3711 :         SAY_ERROR( RES_ERR_INCORRECT_PARAMETER, "ResBuildPathname" );

	push	OFFSET ??_C@_0N@OMEJCDNJ@src?2resmgr?4c?$AA@
	push	3711					; 00000e7fH
	push	OFFSET ??_C@_0BB@KDLJIOGI@ResBuildPathname?$AA@
	push	-4998					; ffffec7aH
	call	__say_error
	add	esp, 16					; 00000010H

; 3712 :         return( -1 );

	or	eax, -1
	jmp	$LN16@ResBuildPa
$LN14@ResBuildPa:

; 3713 :     }
; 3714 : 
; 3715 : 
; 3716 :     if(( index != RES_DIR_NONE ) && ( RES_PATH[ index ] == NULL )) {

	cmp	DWORD PTR _index$[ebp], 0
	je	SHORT $LN12@ResBuildPa
	mov	ecx, DWORD PTR _index$[ebp]
	cmp	DWORD PTR _RES_PATH[ecx*4], 0
	jne	SHORT $LN12@ResBuildPa

; 3717 :         SAY_ERROR( RES_ERR_NO_SYSTEM_PATH, "ResBuildPathname" );

	push	OFFSET ??_C@_0N@OMEJCDNJ@src?2resmgr?4c?$AA@
	push	3717					; 00000e85H
	push	OFFSET ??_C@_0BB@KDLJIOGI@ResBuildPathname?$AA@
	push	-4981					; ffffec8bH
	call	__say_error
	add	esp, 16					; 00000010H

; 3718 :         *path_out = '\0';

	mov	edx, DWORD PTR _path_out$[ebp]
	mov	BYTE PTR [edx], 0

; 3719 :         return( -1 );

	or	eax, -1
	jmp	$LN16@ResBuildPa
$LN12@ResBuildPa:

; 3720 :     }
; 3721 :     
; 3722 : #endif /* RES_DEBUG_PARAMS */
; 3723 : 
; 3724 : 
; 3725 :     /* path_in is optional, but, of course without it you get the same 
; 3726 :        effect as strcpy( path_out, RES_PATH[ index ]) */
; 3727 : 
; 3728 :     if( path_in ) {

	cmp	DWORD PTR _path_in$[ebp], 0
	je	$LN11@ResBuildPa

; 3729 :         if( index != RES_DIR_NONE )                    /* since all these end with a slash  */

	cmp	DWORD PTR _index$[ebp], 0
	je	SHORT $LN10@ResBuildPa
$LN9@ResBuildPa:

; 3730 :             while( *path_in == ASCII_BACKSLASH )    /* trim leading backslashes             */

	mov	eax, DWORD PTR _path_in$[ebp]
	movsx	ecx, BYTE PTR [eax]
	cmp	ecx, 92					; 0000005cH
	jne	SHORT $LN10@ResBuildPa

; 3731 :                 path_in++;

	mov	edx, DWORD PTR _path_in$[ebp]
	add	edx, 1
	mov	DWORD PTR _path_in$[ebp], edx
	jmp	SHORT $LN9@ResBuildPa
$LN10@ResBuildPa:

; 3732 : 
; 3733 :         strcpy( tmp, path_in );

	mov	eax, DWORD PTR _path_in$[ebp]
	push	eax
	lea	ecx, DWORD PTR _tmp$[ebp]
	push	ecx
	call	_strcpy
	add	esp, 8

; 3734 :         ptr = tmp;

	lea	edx, DWORD PTR _tmp$[ebp]
	mov	DWORD PTR _ptr$[ebp], edx
$LN7@ResBuildPa:

; 3735 : 
; 3736 :         while( *ptr ) {

	mov	eax, DWORD PTR _ptr$[ebp]
	movsx	ecx, BYTE PTR [eax]
	test	ecx, ecx
	je	SHORT $LN6@ResBuildPa

; 3737 :             if( *ptr == ASCII_FORESLASH )    /* substitute backslash for forward slashes */

	mov	edx, DWORD PTR _ptr$[ebp]
	movsx	eax, BYTE PTR [edx]
	cmp	eax, 47					; 0000002fH
	jne	SHORT $LN5@ResBuildPa

; 3738 :                 *ptr = ASCII_BACKSLASH;

	mov	ecx, DWORD PTR _ptr$[ebp]
	mov	BYTE PTR [ecx], 92			; 0000005cH
$LN5@ResBuildPa:

; 3739 : 
; 3740 :             *ptr = (char)(toupper( *ptr ));         /* force to upper case */

	mov	edx, DWORD PTR _ptr$[ebp]
	movsx	eax, BYTE PTR [edx]
	push	eax
	call	_toupper
	add	esp, 4
	mov	ecx, DWORD PTR _ptr$[ebp]
	mov	BYTE PTR [ecx], al

; 3741 : 
; 3742 :             ptr++;

	mov	edx, DWORD PTR _ptr$[ebp]
	add	edx, 1
	mov	DWORD PTR _ptr$[ebp], edx

; 3743 :         }

	jmp	SHORT $LN7@ResBuildPa
$LN6@ResBuildPa:

; 3744 : 
; 3745 :         /* trailing backslash */
; 3746 : 
; 3747 :         len = strlen( tmp );

	lea	eax, DWORD PTR _tmp$[ebp]
	push	eax
	call	_strlen
	add	esp, 4
	mov	DWORD PTR _len$[ebp], eax

; 3748 : 
; 3749 :         if( len && (tmp[len-1] != ASCII_BACKSLASH)) {

	cmp	DWORD PTR _len$[ebp], 0
	je	SHORT $LN4@ResBuildPa
	mov	ecx, DWORD PTR _len$[ebp]
	movsx	edx, BYTE PTR _tmp$[ebp+ecx-1]
	cmp	edx, 92					; 0000005cH
	je	SHORT $LN4@ResBuildPa

; 3750 :             tmp[len++] = ASCII_BACKSLASH;

	mov	eax, DWORD PTR _len$[ebp]
	mov	BYTE PTR _tmp$[ebp+eax], 92		; 0000005cH
	mov	ecx, DWORD PTR _len$[ebp]
	add	ecx, 1
	mov	DWORD PTR _len$[ebp], ecx

; 3751 :             tmp[len] = '\0';

	mov	edx, DWORD PTR _len$[ebp]
	mov	DWORD PTR $T3[ebp], edx
	cmp	DWORD PTR $T3[ebp], 260			; 00000104H
	jae	SHORT $LN17@ResBuildPa
	jmp	SHORT $LN18@ResBuildPa
$LN17@ResBuildPa:
	call	___report_rangecheckfailure
$LN18@ResBuildPa:
	mov	eax, DWORD PTR $T3[ebp]
	mov	BYTE PTR _tmp$[ebp+eax], 0
$LN4@ResBuildPa:

; 3752 :         }
; 3753 :     }
; 3754 :     else {

	jmp	SHORT $LN3@ResBuildPa
$LN11@ResBuildPa:

; 3755 :         tmp[0] = '\0';

	mov	ecx, 1
	imul	ecx, 0
	mov	DWORD PTR $T1[ebp], ecx
	cmp	DWORD PTR $T1[ebp], 260			; 00000104H
	jae	SHORT $LN19@ResBuildPa
	jmp	SHORT $LN20@ResBuildPa
$LN19@ResBuildPa:
	call	___report_rangecheckfailure
$LN20@ResBuildPa:
	mov	edx, DWORD PTR $T1[ebp]
	mov	BYTE PTR _tmp$[ebp+edx], 0

; 3756 :         tmp[1] = '\0';

	mov	DWORD PTR $T2[ebp], 1
	cmp	DWORD PTR $T2[ebp], 260			; 00000104H
	jae	SHORT $LN21@ResBuildPa
	jmp	SHORT $LN22@ResBuildPa
$LN21@ResBuildPa:
	call	___report_rangecheckfailure
$LN22@ResBuildPa:
	mov	eax, DWORD PTR $T2[ebp]
	mov	BYTE PTR _tmp$[ebp+eax], 0
$LN3@ResBuildPa:

; 3757 :     }
; 3758 : 
; 3759 : 
; 3760 :     /* if there is a system path index */
; 3761 : 
; 3762 :     if( index != RES_DIR_NONE )

	cmp	DWORD PTR _index$[ebp], 0
	je	SHORT $LN2@ResBuildPa

; 3763 :         sprintf( path_out, "%s%s", RES_PATH[ index ], tmp );

	lea	ecx, DWORD PTR _tmp$[ebp]
	push	ecx
	mov	edx, DWORD PTR _index$[ebp]
	mov	eax, DWORD PTR _RES_PATH[edx*4]
	push	eax
	push	OFFSET ??_C@_04HDOCAJNK@?$CFs?$CFs?$AA@
	mov	ecx, DWORD PTR _path_out$[ebp]
	push	ecx
	call	_sprintf
	add	esp, 16					; 00000010H

; 3764 :     else

	jmp	SHORT $LN1@ResBuildPa
$LN2@ResBuildPa:

; 3765 :         strcpy( path_out, tmp );

	lea	edx, DWORD PTR _tmp$[ebp]
	push	edx
	mov	eax, DWORD PTR _path_out$[ebp]
	push	eax
	call	_strcpy
	add	esp, 8
$LN1@ResBuildPa:

; 3766 : 
; 3767 :     return( len );

	mov	eax, DWORD PTR _len$[ebp]
$LN16@ResBuildPa:

; 3768 : }

	mov	ecx, DWORD PTR __$ArrayPad$[ebp]
	xor	ecx, ebp
	call	@__security_check_cookie@4
	mov	esp, ebp
	pop	ebp
	ret	0
_ResBuildPathname ENDP
_TEXT	ENDS
; Function compile flags: /Odtp
; File c:\users\zhitao li\documents\visual studio 2012\projects\freefalcon\codelib\resources\reslib\src\resmgr.c
_TEXT	SEGMENT
_len$ = -8						; size = 4
_ptr$ = -4						; size = 4
_index$ = 8						; size = 4
_path$ = 12						; size = 4
_ResAssignPath PROC

; 3909 : {

	push	ebp
	mov	ebp, esp
	sub	esp, 8

; 3910 :     char * ptr;
; 3911 :     int len;
; 3912 : 
; 3913 : #if( RES_DEBUG_PARAMS )
; 3914 :     if(( index <= RES_DIR_NONE ) ||
; 3915 :        ( index >= RES_DIR_LAST ) ||
; 3916 :        ( !path ))

	cmp	DWORD PTR _index$[ebp], 0
	jle	SHORT $LN6@ResAssignP
	cmp	DWORD PTR _index$[ebp], 17		; 00000011H
	jge	SHORT $LN6@ResAssignP
	cmp	DWORD PTR _path$[ebp], 0
	jne	SHORT $LN7@ResAssignP
$LN6@ResAssignP:

; 3917 :     {
; 3918 :         SAY_ERROR( RES_ERR_INCORRECT_PARAMETER, "ResAssignPath" );

	push	OFFSET ??_C@_0N@OMEJCDNJ@src?2resmgr?4c?$AA@
	push	3918					; 00000f4eH
	push	OFFSET ??_C@_0O@JNKBGNLK@ResAssignPath?$AA@
	push	-4998					; ffffec7aH
	call	__say_error
	add	esp, 16					; 00000010H

; 3919 :         return;

	jmp	$LN8@ResAssignP
$LN7@ResAssignP:

; 3920 :     }
; 3921 : #endif /* RES_DEBUG_PARAMS */
; 3922 : 
; 3923 :     if( RES_PATH[ index ] )

	mov	eax, DWORD PTR _index$[ebp]
	cmp	DWORD PTR _RES_PATH[eax*4], 0
	je	SHORT $LN5@ResAssignP

; 3924 : 		#ifdef USE_SH_POOLS
; 3925 :         MemFreePtr( RES_PATH[ index ] );
; 3926 : 		#else
; 3927 :         MemFree( RES_PATH[ index ] );

	mov	ecx, DWORD PTR _index$[ebp]
	mov	edx, DWORD PTR _RES_PATH[ecx*4]
	push	edx
	call	_free
	add	esp, 4
$LN5@ResAssignP:

; 3928 : 		#endif
; 3929 : 
; 3930 : 	#ifdef USE_SH_POOLS
; 3931 :     ptr = (char *)MemAllocPtr( gResmgrMemPool, _MAX_PATH, 0 );
; 3932 : 	#else
; 3933 :     ptr = (char *)MemMalloc( _MAX_PATH, path );

	push	260					; 00000104H
	call	_malloc
	add	esp, 4
	mov	DWORD PTR _ptr$[ebp], eax

; 3934 : 	#endif
; 3935 :     if( !ptr ) {

	cmp	DWORD PTR _ptr$[ebp], 0
	jne	SHORT $LN3@ResAssignP

; 3936 :         SAY_ERROR( RES_ERR_NO_MEMORY, "Assign path" );

	push	OFFSET ??_C@_0N@OMEJCDNJ@src?2resmgr?4c?$AA@
	push	3936					; 00000f60H
	push	OFFSET ??_C@_0M@CHANDFDP@Assign?5path?$AA@
	push	-4999					; ffffec79H
	call	__say_error
	add	esp, 16					; 00000010H

; 3937 :         return;

	jmp	SHORT $LN8@ResAssignP
$LN3@ResAssignP:

; 3938 :     }
; 3939 : 
; 3940 :     /* All of the pathnames within the RES_PATH array should end with
; 3941 :        a backslash, therefore, we want to trim any leading backslashes
; 3942 :        from the path here. */
; 3943 :     
; 3944 :     while( *path == ASCII_BACKSLASH )

	mov	eax, DWORD PTR _path$[ebp]
	movsx	ecx, BYTE PTR [eax]
	cmp	ecx, 92					; 0000005cH
	jne	SHORT $LN2@ResAssignP

; 3945 :         path++;

	mov	edx, DWORD PTR _path$[ebp]
	add	edx, 1
	mov	DWORD PTR _path$[ebp], edx
	jmp	SHORT $LN3@ResAssignP
$LN2@ResAssignP:

; 3946 : 
; 3947 :     strcpy( ptr, path );

	mov	eax, DWORD PTR _path$[ebp]
	push	eax
	mov	ecx, DWORD PTR _ptr$[ebp]
	push	ecx
	call	_strcpy
	add	esp, 8

; 3948 : 
; 3949 :     len = strlen( ptr );

	mov	edx, DWORD PTR _ptr$[ebp]
	push	edx
	call	_strlen
	add	esp, 4
	mov	DWORD PTR _len$[ebp], eax

; 3950 :     if( len && ( ptr[ len-1 ] != ASCII_BACKSLASH )) {

	cmp	DWORD PTR _len$[ebp], 0
	je	SHORT $LN1@ResAssignP
	mov	eax, DWORD PTR _ptr$[ebp]
	add	eax, DWORD PTR _len$[ebp]
	movsx	ecx, BYTE PTR [eax-1]
	cmp	ecx, 92					; 0000005cH
	je	SHORT $LN1@ResAssignP

; 3951 :         ptr[len++] = ASCII_BACKSLASH;

	mov	edx, DWORD PTR _ptr$[ebp]
	add	edx, DWORD PTR _len$[ebp]
	mov	BYTE PTR [edx], 92			; 0000005cH
	mov	eax, DWORD PTR _len$[ebp]
	add	eax, 1
	mov	DWORD PTR _len$[ebp], eax

; 3952 :         ptr[len] = '\0';

	mov	ecx, DWORD PTR _ptr$[ebp]
	add	ecx, DWORD PTR _len$[ebp]
	mov	BYTE PTR [ecx], 0
$LN1@ResAssignP:

; 3953 :     }
; 3954 : 
; 3955 :     RES_PATH[ index ] = ptr;

	mov	edx, DWORD PTR _index$[ebp]
	mov	eax, DWORD PTR _ptr$[ebp]
	mov	DWORD PTR _RES_PATH[edx*4], eax
$LN8@ResAssignP:

; 3956 : 
; 3957 :     IF_LOG( LOG( "assign: %s [%d]\n", ptr, index ));
; 3958 : }

	mov	esp, ebp
	pop	ebp
	ret	0
_ResAssignPath ENDP
_TEXT	ENDS
; Function compile flags: /Odtp
; File c:\users\zhitao li\documents\visual studio 2012\projects\freefalcon\codelib\resources\reslib\src\resmgr.c
_TEXT	SEGMENT
_which$ = 8						; size = 4
_ResGetCallback PROC

; 3228 : {

	push	ebp
	mov	ebp, esp

; 3229 : #if( RES_DEBUG_PARAMS )
; 3230 :    if((which < 0) || (which >= NUMBER_OF_CALLBACKS)) {

	cmp	DWORD PTR _which$[ebp], 0
	jl	SHORT $LN1@ResGetCall
	cmp	DWORD PTR _which$[ebp], 10		; 0000000aH
	jl	SHORT $LN2@ResGetCall
$LN1@ResGetCall:

; 3231 :       SAY_ERROR( RES_ERR_INCORRECT_PARAMETER, "ResGetCallback" );

	push	OFFSET ??_C@_0N@OMEJCDNJ@src?2resmgr?4c?$AA@
	push	3231					; 00000c9fH
	push	OFFSET ??_C@_0P@PPCHBMFL@ResGetCallback?$AA@
	push	-4998					; ffffec7aH
	call	__say_error
	add	esp, 16					; 00000010H

; 3232 :       return( NULL );

	xor	eax, eax
	jmp	SHORT $LN3@ResGetCall
$LN2@ResGetCall:

; 3233 :    }
; 3234 : #endif /* RES_DEBUG_PARAMS */
; 3235 : 
; 3236 :    IF_LOG( LOG( "get callback: %d\n", which ));
; 3237 : 
; 3238 :    return( RES_CALLBACK[ which ] );

	mov	eax, DWORD PTR _which$[ebp]
	mov	eax, DWORD PTR _RES_CALLBACK[eax*4]
$LN3@ResGetCall:

; 3239 : }

	pop	ebp
	ret	0
_ResGetCallback ENDP
_TEXT	ENDS
; Function compile flags: /Odtp
; File c:\users\zhitao li\documents\visual studio 2012\projects\freefalcon\codelib\resources\reslib\src\resmgr.c
_TEXT	SEGMENT
_old_ptr$ = -4						; size = 4
_which$ = 8						; size = 4
_func$ = 12						; size = 4
_ResSetCallback PROC

; 3193 : {

	push	ebp
	mov	ebp, esp
	push	ecx

; 3194 :    PFI old_ptr;
; 3195 : 
; 3196 : #if( RES_DEBUG_PARAMS )
; 3197 :    if(( which < 0 ) || ( which >=  NUMBER_OF_CALLBACKS )) {

	cmp	DWORD PTR _which$[ebp], 0
	jl	SHORT $LN1@ResSetCall
	cmp	DWORD PTR _which$[ebp], 10		; 0000000aH
	jl	SHORT $LN2@ResSetCall
$LN1@ResSetCall:

; 3198 :       SAY_ERROR( RES_ERR_INCORRECT_PARAMETER, "ResSetCallback" );

	push	OFFSET ??_C@_0N@OMEJCDNJ@src?2resmgr?4c?$AA@
	push	3198					; 00000c7eH
	push	OFFSET ??_C@_0P@PADJMKNI@ResSetCallback?$AA@
	push	-4998					; ffffec7aH
	call	__say_error
	add	esp, 16					; 00000010H

; 3199 :       return( NULL );

	xor	eax, eax
	jmp	SHORT $LN3@ResSetCall
$LN2@ResSetCall:

; 3200 :    }
; 3201 : #endif /* RES_DEBUG_PARAMS */
; 3202 : 
; 3203 :    old_ptr = RES_CALLBACK[ which ];

	mov	eax, DWORD PTR _which$[ebp]
	mov	ecx, DWORD PTR _RES_CALLBACK[eax*4]
	mov	DWORD PTR _old_ptr$[ebp], ecx

; 3204 :    RES_CALLBACK[ which ] = func;

	mov	edx, DWORD PTR _which$[ebp]
	mov	eax, DWORD PTR _func$[ebp]
	mov	DWORD PTR _RES_CALLBACK[edx*4], eax

; 3205 : 
; 3206 :    IF_LOG( LOG( "set callback: %d\n", which ));
; 3207 : 
; 3208 :    return( old_ptr );

	mov	eax, DWORD PTR _old_ptr$[ebp]
$LN3@ResSetCall:

; 3209 : }

	mov	esp, ebp
	pop	ebp
	ret	0
_ResSetCallback ENDP
_TEXT	ENDS
; Function compile flags: /Odtp
; File c:\users\zhitao li\documents\visual studio 2012\projects\freefalcon\codelib\resources\reslib\src\resmgr.c
_TEXT	SEGMENT
_filename$ = 8						; size = 4
_ResWriteTOC PROC

; 3096 : {

	push	ebp
	mov	ebp, esp

; 3097 : 	filename;
; 3098 : 
; 3099 :     IF_LOG( LOG( "write t.o.c.: %s\n", filename ));
; 3100 :     
; 3101 : 	return( FALSE );

	xor	eax, eax

; 3102 : }

	pop	ebp
	ret	0
_ResWriteTOC ENDP
_TEXT	ENDS
; Function compile flags: /Odtp
; File c:\users\zhitao li\documents\visual studio 2012\projects\freefalcon\codelib\resources\reslib\src\resmgr.c
_TEXT	SEGMENT
_ResWhichCD PROC

; 3073 : {

	push	ebp
	mov	ebp, esp

; 3074 :     IF_LOG( LOG( "which cd: %d\n", GLOBAL_CURRENT_CD ));
; 3075 :     return( GLOBAL_CURRENT_CD );

	mov	eax, DWORD PTR _GLOBAL_CURRENT_CD

; 3076 : }

	pop	ebp
	ret	0
_ResWhichCD ENDP
_TEXT	ENDS
; Function compile flags: /Odtp
; File c:\users\zhitao li\documents\visual studio 2012\projects\freefalcon\codelib\resources\reslib\src\resmgr.c
_TEXT	SEGMENT
_type$ = -12						; size = 4
_entry$ = -8						; size = 4
_retval$ = -4						; size = 4
_filename$ = 8						; size = 4
_path$ = 12						; size = 4
_ResWhereIs PROC

; 2995 : {

	push	ebp
	mov	ebp, esp
	sub	esp, 12					; 0000000cH

; 2996 :     HASH_ENTRY * entry;
; 2997 : 
; 2998 :     int retval = 0,

	mov	DWORD PTR _retval$[ebp], 0

; 2999 :         type;
; 3000 : 
; 3001 : #if( RES_DEBUG_PARAMS )
; 3002 :     if( !filename ) {

	cmp	DWORD PTR _filename$[ebp], 0
	jne	SHORT $LN8@ResWhereIs

; 3003 :         SAY_ERROR( RES_ERR_INCORRECT_PARAMETER, "ResGetDirectory" );

	push	OFFSET ??_C@_0N@OMEJCDNJ@src?2resmgr?4c?$AA@
	push	3003					; 00000bbbH
	push	OFFSET ??_C@_0BA@JNGLFOGE@ResGetDirectory?$AA@
	push	-4998					; ffffec7aH
	call	__say_error
	add	esp, 16					; 00000010H

; 3004 :         return( -1 );

	or	eax, -1
	jmp	$LN9@ResWhereIs
$LN8@ResWhereIs:

; 3005 :     }
; 3006 : #endif
; 3007 : #if (RES_MULTITHREAD)
; 3008 : 	REQUEST_LOCK(GLOCK);

	push	-1
	mov	eax, DWORD PTR _GLOCK
	push	eax
	call	DWORD PTR __imp__WaitForSingleObject@8

; 3009 : #endif
; 3010 : 
; 3011 : #if( !RES_USE_FLAT_MODEL )
; 3012 :     entry = hash_find_table( filename, NULL );

	push	0
	mov	ecx, DWORD PTR _filename$[ebp]
	push	ecx
	call	_hash_find_table
	add	esp, 8
	mov	DWORD PTR _entry$[ebp], eax

; 3013 : #else /* flat model */
; 3014 : //    entry = hash_find( file, GLOBAL_HASH_TABLE );  /* GFG  31/01/98 */
; 3015 :     entry = hash_find( filename, GLOBAL_HASH_TABLE );
; 3016 : #endif /* !RES_USE_FLAT_MODEL */
; 3017 : 
; 3018 :     if( !entry )

	cmp	DWORD PTR _entry$[ebp], 0
	jne	SHORT $LN7@ResWhereIs

; 3019 : 	{
; 3020 : #if (RES_MULTITHREAD)
; 3021 :   	    RELEASE_LOCK(GLOCK);

	mov	edx, DWORD PTR _GLOCK
	push	edx
	call	DWORD PTR __imp__ReleaseMutex@4

; 3022 : #endif
; 3023 :         return( -1 );

	or	eax, -1
	jmp	$LN9@ResWhereIs
$LN7@ResWhereIs:

; 3024 : 	}
; 3025 :     if( entry -> archive != -1 )

	mov	eax, DWORD PTR _entry$[ebp]
	cmp	DWORD PTR [eax+24], -1
	je	SHORT $LN6@ResWhereIs

; 3026 :         retval |= RES_ARCHIVE;

	mov	ecx, DWORD PTR _retval$[ebp]
	or	ecx, 524288				; 00080000H
	mov	DWORD PTR _retval$[ebp], ecx
$LN6@ResWhereIs:

; 3027 : 
; 3028 :     type = RES_DEVICES[ entry -> volume ].type;

	mov	edx, DWORD PTR _entry$[ebp]
	movsx	eax, BYTE PTR [edx+36]
	imul	eax, 40					; 00000028H
	mov	ecx, DWORD PTR _RES_DEVICES
	movsx	edx, BYTE PTR [ecx+eax+1]
	mov	DWORD PTR _type$[ebp], edx

; 3029 : 
; 3030 :     if( type == DRIVE_CDROM ) {

	cmp	DWORD PTR _type$[ebp], 5
	jne	SHORT $LN5@ResWhereIs

; 3031 :         retval |= RES_CD;

	mov	eax, DWORD PTR _retval$[ebp]
	or	eax, 131072				; 00020000H
	mov	DWORD PTR _retval$[ebp], eax

; 3032 :         retval |= RES_DEVICES[ entry -> volume ].id;

	mov	ecx, DWORD PTR _entry$[ebp]
	movsx	edx, BYTE PTR [ecx+36]
	imul	edx, 40					; 00000028H
	mov	eax, DWORD PTR _RES_DEVICES
	movsx	ecx, BYTE PTR [eax+edx+34]
	or	ecx, DWORD PTR _retval$[ebp]
	mov	DWORD PTR _retval$[ebp], ecx
$LN5@ResWhereIs:

; 3033 :     }
; 3034 : 
; 3035 :     if( type == DRIVE_REMOTE ) 

	cmp	DWORD PTR _type$[ebp], 4
	jne	SHORT $LN4@ResWhereIs

; 3036 :         retval |= RES_NET;

	mov	edx, DWORD PTR _retval$[ebp]
	or	edx, 262144				; 00040000H
	mov	DWORD PTR _retval$[ebp], edx
$LN4@ResWhereIs:

; 3037 : 
; 3038 :     if( type == DRIVE_FIXED ) 

	cmp	DWORD PTR _type$[ebp], 3
	jne	SHORT $LN3@ResWhereIs

; 3039 :         retval |= RES_HD;

	mov	eax, DWORD PTR _retval$[ebp]
	or	eax, 65536				; 00010000H
	mov	DWORD PTR _retval$[ebp], eax
$LN3@ResWhereIs:

; 3040 : 
; 3041 :     if( type == DRIVE_REMOVABLE ) 

	cmp	DWORD PTR _type$[ebp], 2
	jne	SHORT $LN2@ResWhereIs

; 3042 :         retval |= RES_FLOPPY;

	mov	ecx, DWORD PTR _retval$[ebp]
	or	ecx, 1048576				; 00100000H
	mov	DWORD PTR _retval$[ebp], ecx
$LN2@ResWhereIs:

; 3043 :     
; 3044 :     if( path )

	cmp	DWORD PTR _path$[ebp], 0
	je	SHORT $LN1@ResWhereIs

; 3045 :         strcpy( path, GLOBAL_SEARCH_PATH[ entry -> directory ]);

	mov	edx, DWORD PTR _entry$[ebp]
	mov	eax, DWORD PTR [edx+32]
	mov	ecx, DWORD PTR _GLOBAL_SEARCH_PATH[eax*4]
	push	ecx
	mov	edx, DWORD PTR _path$[ebp]
	push	edx
	call	_strcpy
	add	esp, 8
$LN1@ResWhereIs:

; 3046 : 
; 3047 :     IF_LOG( LOG( "where is: %s\n", filename ));
; 3048 : #if (RES_MULTITHREAD)
; 3049 : 	RELEASE_LOCK(GLOCK);

	mov	eax, DWORD PTR _GLOCK
	push	eax
	call	DWORD PTR __imp__ReleaseMutex@4

; 3050 : #endif
; 3051 : 
; 3052 :     return( retval );

	mov	eax, DWORD PTR _retval$[ebp]
$LN9@ResWhereIs:

; 3053 : }

	mov	esp, ebp
	pop	ebp
	ret	0
_ResWhereIs ENDP
_TEXT	ENDS
; Function compile flags: /Odtp
; File c:\users\zhitao li\documents\visual studio 2012\projects\freefalcon\codelib\resources\reslib\src\resmgr.c
_TEXT	SEGMENT
_ret$ = -292						; size = 4
$T1 = -288						; size = 4
_dir$ = -284						; size = 4
_data_count$ = -280					; size = 4
_count$ = -276						; size = 4
_data$ = -272						; size = 4
_len$ = -268						; size = 4
_fullpath$ = -264					; size = 260
__$ArrayPad$ = -4					; size = 4
_path$ = 8						; size = 4
_file_data$ = 12					; size = 4
_ResCountDirectory PROC

; 3788 : {

	push	ebp
	mov	ebp, esp
	sub	esp, 292				; 00000124H
	mov	eax, DWORD PTR ___security_cookie
	xor	eax, ebp
	mov	DWORD PTR __$ArrayPad$[ebp], eax

; 3789 : //    HASH_ENTRY * entry=NULL;
; 3790 : 
; 3791 :     char fullpath[ _MAX_PATH ];
; 3792 : 
; 3793 : //    struct _finddata_t data;
; 3794 :     struct _finddata_t *data;
; 3795 : 
; 3796 :     int dir,
; 3797 :         len,
; 3798 :         count = -1,

	mov	DWORD PTR _count$[ebp], -1

; 3799 :         data_count = 0,

	mov	DWORD PTR _data_count$[ebp], 0

; 3800 :         ret;
; 3801 : 
; 3802 : 
; 3803 :     IF_LOG( LOG( "count: %s\n", path ));
; 3804 : 
; 3805 : #if( RES_DEBUG_PARAMS )
; 3806 :     if( !path ) {

	cmp	DWORD PTR _path$[ebp], 0
	jne	SHORT $LN9@ResCountDi

; 3807 :         SAY_ERROR( RES_ERR_INCORRECT_PARAMETER, "ResCountDirectory" );

	push	OFFSET ??_C@_0N@OMEJCDNJ@src?2resmgr?4c?$AA@
	push	3807					; 00000edfH
	push	OFFSET ??_C@_0BC@EJOCHHKO@ResCountDirectory?$AA@
	push	-4998					; ffffec7aH
	call	__say_error
	add	esp, 16					; 00000010H

; 3808 :         return( -1 );

	or	eax, -1
	jmp	$LN11@ResCountDi
$LN9@ResCountDi:

; 3809 :     }
; 3810 : #endif /* RES_DEBUG_PARAMS */
; 3811 : 
; 3812 : 
; 3813 : 
; 3814 :     /* we need to make sure we have an absolute (full) path */
; 3815 :     
; 3816 :     res_fullpath( fullpath, path, (_MAX_PATH - 3));

	push	257					; 00000101H
	mov	eax, DWORD PTR _path$[ebp]
	push	eax
	lea	ecx, DWORD PTR _fullpath$[ebp]
	push	ecx
	call	_res_fullpath
	add	esp, 12					; 0000000cH

; 3817 : 
; 3818 : #if( !RES_USE_FLAT_MODEL )
; 3819 : 
; 3820 : #if 0
; 3821 :     entry = hash_find( fullpath, GLOBAL_HASH_TABLE );
; 3822 : 
; 3823 :     if( entry && entry -> dir )
; 3824 :         return( ((HASH_TABLE *)entry -> dir) -> num_entries );
; 3825 : #endif
; 3826 : 
; 3827 : #endif /* RES_USE_FLAT_MODEL */
; 3828 : 
; 3829 :     /* add a wildcard to the end of the path */
; 3830 : 
; 3831 :     len = strlen( fullpath );

	lea	edx, DWORD PTR _fullpath$[ebp]
	push	edx
	call	_strlen
	add	esp, 4
	mov	DWORD PTR _len$[ebp], eax

; 3832 :     fullpath[ len++ ] = ASCII_ASTERISK;

	mov	eax, DWORD PTR _len$[ebp]
	mov	BYTE PTR _fullpath$[ebp+eax], 42	; 0000002aH
	mov	ecx, DWORD PTR _len$[ebp]
	add	ecx, 1
	mov	DWORD PTR _len$[ebp], ecx

; 3833 :     fullpath[ len++ ] = ASCII_PERIOD;

	mov	edx, DWORD PTR _len$[ebp]
	mov	BYTE PTR _fullpath$[ebp+edx], 46	; 0000002eH
	mov	eax, DWORD PTR _len$[ebp]
	add	eax, 1
	mov	DWORD PTR _len$[ebp], eax

; 3834 :     fullpath[ len++ ] = ASCII_ASTERISK;

	mov	ecx, DWORD PTR _len$[ebp]
	mov	BYTE PTR _fullpath$[ebp+ecx], 42	; 0000002aH
	mov	edx, DWORD PTR _len$[ebp]
	add	edx, 1
	mov	DWORD PTR _len$[ebp], edx

; 3835 :     fullpath[ len ] = '\0';

	mov	eax, DWORD PTR _len$[ebp]
	mov	DWORD PTR $T1[ebp], eax
	cmp	DWORD PTR $T1[ebp], 260			; 00000104H
	jae	SHORT $LN12@ResCountDi
	jmp	SHORT $LN13@ResCountDi
$LN12@ResCountDi:
	call	___report_rangecheckfailure
$LN13@ResCountDi:
	mov	ecx, DWORD PTR $T1[ebp]
	mov	BYTE PTR _fullpath$[ebp+ecx], 0

; 3836 : 
; 3837 :     data_count = RES_INIT_DIRECTORY_SIZE;

	mov	DWORD PTR _data_count$[ebp], 8

; 3838 : 	#ifdef USE_SH_POOLS
; 3839 :     *file_data = data = MemAllocPtr( gResmgrMemPool, data_count * sizeof(struct _finddata_t), 0);
; 3840 : 	#else
; 3841 :     *file_data = data = MemMalloc(data_count * sizeof(struct _finddata_t),"ResCountDirectory");

	mov	edx, DWORD PTR _data_count$[ebp]
	imul	edx, 296				; 00000128H
	push	edx
	call	_malloc
	add	esp, 4
	mov	DWORD PTR _data$[ebp], eax
	mov	eax, DWORD PTR _file_data$[ebp]
	mov	ecx, DWORD PTR _data$[ebp]
	mov	DWORD PTR [eax], ecx

; 3842 : 	#endif
; 3843 :     if( ! data)

	cmp	DWORD PTR _data$[ebp], 0
	jne	SHORT $LN8@ResCountDi

; 3844 :     {
; 3845 :         SAY_ERROR( RES_ERR_NO_MEMORY, "ResCountDirectory" );

	push	OFFSET ??_C@_0N@OMEJCDNJ@src?2resmgr?4c?$AA@
	push	3845					; 00000f05H
	push	OFFSET ??_C@_0BC@EJOCHHKO@ResCountDirectory?$AA@
	push	-4999					; ffffec79H
	call	__say_error
	add	esp, 16					; 00000010H

; 3846 :         return (-1);

	or	eax, -1
	jmp	$LN11@ResCountDi
$LN8@ResCountDi:

; 3847 :     }
; 3848 : 
; 3849 : 
; 3850 :     /* try to open the directory */
; 3851 : 
; 3852 : //    dir = _findfirst( fullpath, &data );
; 3853 :     dir = _findfirst( fullpath, data );

	mov	edx, DWORD PTR _data$[ebp]
	push	edx
	lea	eax, DWORD PTR _fullpath$[ebp]
	push	eax
	call	__findfirst64i32
	add	esp, 8
	mov	DWORD PTR _dir$[ebp], eax

; 3854 : 
; 3855 :     if( dir != -1 ) {

	cmp	DWORD PTR _dir$[ebp], -1
	je	$LN1@ResCountDi

; 3856 :         count = 1;

	mov	DWORD PTR _count$[ebp], 1
$LN6@ResCountDi:

; 3857 :         
; 3858 :         do
; 3859 :         {
; 3860 :             if(count >= data_count )

	mov	ecx, DWORD PTR _count$[ebp]
	cmp	ecx, DWORD PTR _data_count$[ebp]
	jl	SHORT $LN3@ResCountDi

; 3861 :             {
; 3862 :                data_count += RES_INIT_DIRECTORY_SIZE;

	mov	edx, DWORD PTR _data_count$[ebp]
	add	edx, 8
	mov	DWORD PTR _data_count$[ebp], edx

; 3863 : 			   #ifdef USE_SH_POOLS
; 3864 :                *file_data =  MemReAllocPtr(*file_data,data_count * sizeof(struct _finddata_t),0);
; 3865 : 			   #else
; 3866 :                *file_data =  MemRealloc(*file_data,data_count * sizeof(struct _finddata_t));

	mov	eax, DWORD PTR _data_count$[ebp]
	imul	eax, 296				; 00000128H
	push	eax
	mov	ecx, DWORD PTR _file_data$[ebp]
	mov	edx, DWORD PTR [ecx]
	push	edx
	call	_realloc
	add	esp, 8
	mov	ecx, DWORD PTR _file_data$[ebp]
	mov	DWORD PTR [ecx], eax

; 3867 : 			   #endif
; 3868 :                data = *file_data + (count-1);

	mov	edx, DWORD PTR _count$[ebp]
	sub	edx, 1
	imul	edx, 296				; 00000128H
	mov	eax, DWORD PTR _file_data$[ebp]
	add	edx, DWORD PTR [eax]
	mov	DWORD PTR _data$[ebp], edx
$LN3@ResCountDi:

; 3869 :             }
; 3870 :             data++;

	mov	ecx, DWORD PTR _data$[ebp]
	add	ecx, 296				; 00000128H
	mov	DWORD PTR _data$[ebp], ecx

; 3871 :             ret =  _findnext( dir, data );

	mov	edx, DWORD PTR _data$[ebp]
	push	edx
	mov	eax, DWORD PTR _dir$[ebp]
	push	eax
	call	__findnext64i32
	add	esp, 8
	mov	DWORD PTR _ret$[ebp], eax

; 3872 :             if (!ret)

	cmp	DWORD PTR _ret$[ebp], 0
	jne	SHORT $LN5@ResCountDi

; 3873 :             {
; 3874 :             count++;

	mov	ecx, DWORD PTR _count$[ebp]
	add	ecx, 1
	mov	DWORD PTR _count$[ebp], ecx
$LN5@ResCountDi:

; 3875 :             }
; 3876 :         }while( !ret);   

	cmp	DWORD PTR _ret$[ebp], 0
	je	$LN6@ResCountDi

; 3877 : 
; 3878 : 
; 3879 :         _findclose( dir );

	mov	edx, DWORD PTR _dir$[ebp]
	push	edx
	call	__findclose
	add	esp, 4
$LN1@ResCountDi:

; 3880 :     }
; 3881 :     else {
; 3882 :         IF_LOG( LOG( "Could not open directory %s\n", fullpath ));
; 3883 :     }
; 3884 : 
; 3885 :     return( count );

	mov	eax, DWORD PTR _count$[ebp]
$LN11@ResCountDi:

; 3886 : }

	mov	ecx, DWORD PTR __$ArrayPad$[ebp]
	xor	ecx, ebp
	call	@__security_check_cookie@4
	mov	esp, ebp
	pop	ebp
	ret	0
_ResCountDirectory ENDP
_TEXT	ENDS
; Function compile flags: /Odtp
; File c:\users\zhitao li\documents\visual studio 2012\projects\freefalcon\codelib\resources\reslib\src\resmgr.c
_TEXT	SEGMENT
_check$ = -4						; size = 4
_buffer$ = 8						; size = 4
_ResGetDirectory PROC

; 2853 : {

	push	ebp
	mov	ebp, esp
	push	ecx

; 2854 :     char * check;
; 2855 : 
; 2856 : #if( RES_DEBUG_PARAMS )
; 2857 :     if( !buffer ) {

	cmp	DWORD PTR _buffer$[ebp], 0
	jne	SHORT $LN3@ResGetDire

; 2858 :         SAY_ERROR( RES_ERR_INCORRECT_PARAMETER, "ResGetDirectory" );

	push	OFFSET ??_C@_0N@OMEJCDNJ@src?2resmgr?4c?$AA@
	push	2858					; 00000b2aH
	push	OFFSET ??_C@_0BA@JNGLFOGE@ResGetDirectory?$AA@
	push	-4998					; ffffec7aH
	call	__say_error
	add	esp, 16					; 00000010H

; 2859 :         return(0);

	xor	eax, eax
	jmp	SHORT $LN4@ResGetDire
$LN3@ResGetDire:

; 2860 :     }
; 2861 : 
; 2862 :     if( !GLOBAL_PATH_LIST ) {

	cmp	DWORD PTR _GLOBAL_PATH_LIST, 0
	jne	SHORT $LN2@ResGetDire

; 2863 :         SAY_ERROR(  RES_ERR_MUST_CREATE_PATH, "ResSetDirectory" );

	push	OFFSET ??_C@_0N@OMEJCDNJ@src?2resmgr?4c?$AA@
	push	2863					; 00000b2fH
	push	OFFSET ??_C@_0BA@OJNFJCCI@ResSetDirectory?$AA@
	push	-4986					; ffffec86H
	call	__say_error
	add	esp, 16					; 00000010H

; 2864 :         return(0);

	xor	eax, eax
	jmp	SHORT $LN4@ResGetDire
$LN2@ResGetDire:

; 2865 :     }
; 2866 : #endif
; 2867 : 
; 2868 : #if( !RES_USE_FLAT_MODEL )
; 2869 :     check = strcpy( buffer, ((HASH_TABLE *)(GLOBAL_PATH_LIST -> node)) -> name );

	mov	eax, DWORD PTR _GLOBAL_PATH_LIST
	mov	ecx, DWORD PTR [eax]
	mov	edx, DWORD PTR [ecx+8]
	push	edx
	mov	eax, DWORD PTR _buffer$[ebp]
	push	eax
	call	_strcpy
	add	esp, 8
	mov	DWORD PTR _check$[ebp], eax

; 2870 : #else
; 2871 :     check = strcpy( buffer, GLOBAL_CURRENT_PATH );
; 2872 : #endif /* !RES_USE_FLAT_MODEL */
; 2873 : 
; 2874 :     IF_LOG( LOG( "get dir: %s\n", buffer ));
; 2875 : 
; 2876 :     if( check )

	cmp	DWORD PTR _check$[ebp], 0
	je	SHORT $LN1@ResGetDire

; 2877 :         return( strlen( buffer ));

	mov	ecx, DWORD PTR _buffer$[ebp]
	push	ecx
	call	_strlen
	add	esp, 4
	jmp	SHORT $LN4@ResGetDire
$LN1@ResGetDire:

; 2878 : 
; 2879 :     return( 0 );    /* nothing was copied into buffer */

	xor	eax, eax
$LN4@ResGetDire:

; 2880 : }

	mov	esp, ebp
	pop	ebp
	ret	0
_ResGetDirectory ENDP
_TEXT	ENDS
; Function compile flags: /Odtp
; File c:\users\zhitao li\documents\visual studio 2012\projects\freefalcon\codelib\resources\reslib\src\resmgr.c
_TEXT	SEGMENT
$T1 = -276						; size = 4
_entry$ = -272						; size = 4
_len$ = -268						; size = 4
_full$ = -264						; size = 260
__$ArrayPad$ = -4					; size = 4
_pathname$ = 8						; size = 4
_ResSetDirectory PROC

; 2762 : {

	push	ebp
	mov	ebp, esp
	sub	esp, 276				; 00000114H
	mov	eax, DWORD PTR ___security_cookie
	xor	eax, ebp
	mov	DWORD PTR __$ArrayPad$[ebp], eax

; 2763 :     HASH_ENTRY * entry;
; 2764 : #if( RES_COERCE_FILENAMES )
; 2765 :     char full[_MAX_PATH];
; 2766 :     int  len;
; 2767 : #endif 
; 2768 : 
; 2769 : #if( RES_DEBUG_PARAMS )
; 2770 :     if( !pathname || !(*pathname)) {

	cmp	DWORD PTR _pathname$[ebp], 0
	je	SHORT $LN5@ResSetDire
	mov	eax, DWORD PTR _pathname$[ebp]
	movsx	ecx, BYTE PTR [eax]
	test	ecx, ecx
	jne	SHORT $LN6@ResSetDire
$LN5@ResSetDire:

; 2771 :         SAY_ERROR( RES_ERR_INCORRECT_PARAMETER, "ResSetDirectory" );

	push	OFFSET ??_C@_0N@OMEJCDNJ@src?2resmgr?4c?$AA@
	push	2771					; 00000ad3H
	push	OFFSET ??_C@_0BA@OJNFJCCI@ResSetDirectory?$AA@
	push	-4998					; ffffec7aH
	call	__say_error
	add	esp, 16					; 00000010H

; 2772 :         return( FALSE );

	xor	eax, eax
	jmp	$LN8@ResSetDire
$LN6@ResSetDire:

; 2773 :     }
; 2774 : 
; 2775 :     if( !GLOBAL_PATH_LIST ) {

	cmp	DWORD PTR _GLOBAL_PATH_LIST, 0
	jne	SHORT $LN4@ResSetDire

; 2776 :         SAY_ERROR( RES_ERR_MUST_CREATE_PATH, "ResSetDirectory" );

	push	OFFSET ??_C@_0N@OMEJCDNJ@src?2resmgr?4c?$AA@
	push	2776					; 00000ad8H
	push	OFFSET ??_C@_0BA@OJNFJCCI@ResSetDirectory?$AA@
	push	-4986					; ffffec86H
	call	__say_error
	add	esp, 16					; 00000010H

; 2777 :         return( FALSE );

	xor	eax, eax
	jmp	$LN8@ResSetDire
$LN4@ResSetDire:

; 2778 :     }
; 2779 : #endif
; 2780 : 
; 2781 : #if( RES_COERCE_FILENAMES )
; 2782 :     res_fullpath( full, pathname, ( _MAX_PATH - 2 ));

	push	258					; 00000102H
	mov	edx, DWORD PTR _pathname$[ebp]
	push	edx
	lea	eax, DWORD PTR _full$[ebp]
	push	eax
	call	_res_fullpath
	add	esp, 12					; 0000000cH

; 2783 :     
; 2784 :     len = strlen( full );

	lea	ecx, DWORD PTR _full$[ebp]
	push	ecx
	call	_strlen
	add	esp, 4
	mov	DWORD PTR _len$[ebp], eax

; 2785 : 
; 2786 :     if( full[len-1] != ASCII_BACKSLASH ) {

	mov	edx, DWORD PTR _len$[ebp]
	movsx	eax, BYTE PTR _full$[ebp+edx-1]
	cmp	eax, 92					; 0000005cH
	je	SHORT $LN3@ResSetDire

; 2787 :         full[len++] = ASCII_BACKSLASH;

	mov	ecx, DWORD PTR _len$[ebp]
	mov	BYTE PTR _full$[ebp+ecx], 92		; 0000005cH
	mov	edx, DWORD PTR _len$[ebp]
	add	edx, 1
	mov	DWORD PTR _len$[ebp], edx

; 2788 :         full[len++] = '\0';

	mov	eax, DWORD PTR _len$[ebp]
	mov	DWORD PTR $T1[ebp], eax
	mov	ecx, DWORD PTR _len$[ebp]
	add	ecx, 1
	mov	DWORD PTR _len$[ebp], ecx
	cmp	DWORD PTR $T1[ebp], 260			; 00000104H
	jae	SHORT $LN9@ResSetDire
	jmp	SHORT $LN10@ResSetDire
$LN9@ResSetDire:
	call	___report_rangecheckfailure
$LN10@ResSetDire:
	mov	edx, DWORD PTR $T1[ebp]
	mov	BYTE PTR _full$[ebp+edx], 0
$LN3@ResSetDire:

; 2789 :     }
; 2790 : 
; 2791 :     pathname = full;

	lea	eax, DWORD PTR _full$[ebp]
	mov	DWORD PTR _pathname$[ebp], eax

; 2792 : #endif /* RES_COERCE_FILENAMES */
; 2793 : 
; 2794 :     entry = hash_find( pathname, GLOBAL_HASH_TABLE );

	mov	ecx, DWORD PTR _GLOBAL_HASH_TABLE
	push	ecx
	mov	edx, DWORD PTR _pathname$[ebp]
	push	edx
	call	_hash_find
	add	esp, 8
	mov	DWORD PTR _entry$[ebp], eax

; 2795 : 
; 2796 :     if( !entry || !entry -> dir ) {

	cmp	DWORD PTR _entry$[ebp], 0
	je	SHORT $LN1@ResSetDire
	mov	eax, DWORD PTR _entry$[ebp]
	cmp	DWORD PTR [eax+40], 0
	jne	SHORT $LN2@ResSetDire
$LN1@ResSetDire:

; 2797 :         SAY_ERROR( RES_ERR_PATH_NOT_FOUND, pathname );

	push	OFFSET ??_C@_0N@OMEJCDNJ@src?2resmgr?4c?$AA@
	push	2797					; 00000aedH
	mov	ecx, DWORD PTR _pathname$[ebp]
	push	ecx
	push	-4997					; ffffec7bH
	call	__say_error
	add	esp, 16					; 00000010H

; 2798 :         return( FALSE );

	xor	eax, eax
	jmp	SHORT $LN8@ResSetDire
$LN2@ResSetDire:

; 2799 :     }
; 2800 : 
; 2801 :     sort_path();    /* sort path BEFORE forcing one of the entries

	call	_sort_path

; 2802 :                        to the top.  Since we subjigate all of the 
; 2803 :                        paths that are based on the CD, this allows
; 2804 :                        the caller to force a CD path to be on top
; 2805 :                        of the search path.  All of the other CD
; 2806 :                        paths, however, are still at the bottom. */
; 2807 : 
; 2808 : #if( !RES_USE_FLAT_MODEL )
; 2809 :     /* Force to the head of the list */
; 2810 :     GLOBAL_PATH_LIST = LIST_REMOVE( GLOBAL_PATH_LIST, entry -> dir );

	mov	edx, DWORD PTR _entry$[ebp]
	mov	eax, DWORD PTR [edx+40]
	push	eax
	mov	ecx, DWORD PTR _GLOBAL_PATH_LIST
	push	ecx
	call	_ListRemove
	add	esp, 8
	mov	DWORD PTR _GLOBAL_PATH_LIST, eax

; 2811 :     GLOBAL_PATH_LIST = LIST_APPEND( GLOBAL_PATH_LIST, entry -> dir );

	mov	edx, DWORD PTR _entry$[ebp]
	mov	eax, DWORD PTR [edx+40]
	push	eax
	mov	ecx, DWORD PTR _GLOBAL_PATH_LIST
	push	ecx
	call	_ListAppend
	add	esp, 8
	mov	DWORD PTR _GLOBAL_PATH_LIST, eax

; 2812 : #endif /* RES_USE_FLAT_MODEL */
; 2813 : 
; 2814 :     strcpy( GLOBAL_CURRENT_PATH, pathname );

	mov	edx, DWORD PTR _pathname$[ebp]
	push	edx
	push	OFFSET _GLOBAL_CURRENT_PATH
	call	_strcpy
	add	esp, 8

; 2815 : 
; 2816 :     /* If we allow alias attach points ('fake' directories to 
; 2817 :        attach archive's onto) we should disable the error 
; 2818 :        reporting. */
; 2819 : 
; 2820 : 
; 2821 : #if 0   // GFG May 05/98
; 2822 : #if( !RES_ALLOW_ALIAS )
; 2823 :     if( _chdir( pathname )) {
; 2824 :         SAY_ERROR( errno, "ResSetDirectory" );
; 2825 :     }
; 2826 : #else
; 2827 :     _chdir( pathname );
; 2828 : #endif
; 2829 : #endif
; 2830 : 
; 2831 :     GLOBAL_CURRENT_DRIVE = pathname[0];

	mov	eax, 1
	imul	eax, 0
	mov	ecx, DWORD PTR _pathname$[ebp]
	movsx	edx, BYTE PTR [ecx+eax]
	mov	DWORD PTR _GLOBAL_CURRENT_DRIVE, edx

; 2832 : 
; 2833 :     IF_LOG( LOG( "set dir: %s\n", pathname ));
; 2834 :     return( TRUE ); 

	mov	eax, 1
$LN8@ResSetDire:

; 2835 : }

	mov	ecx, DWORD PTR __$ArrayPad$[ebp]
	xor	ecx, ebp
	call	@__security_check_cookie@4
	mov	esp, ebp
	pop	ebp
	ret	0
_ResSetDirectory ENDP
_TEXT	ENDS
; Function compile flags: /Odtp
; File c:\users\zhitao li\documents\visual studio 2012\projects\freefalcon\codelib\resources\reslib\src\resmgr.c
_TEXT	SEGMENT
$T1 = -272						; size = 4
_len$ = -268						; size = 4
_path$ = -264						; size = 260
__$ArrayPad$ = -4					; size = 4
_pathname$ = 8						; size = 4
_ResExistDirectory PROC

; 2602 : {

	push	ebp
	mov	ebp, esp
	sub	esp, 272				; 00000110H
	mov	eax, DWORD PTR ___security_cookie
	xor	eax, ebp
	mov	DWORD PTR __$ArrayPad$[ebp], eax

; 2603 :     char path[_MAX_PATH];
; 2604 :     int len;
; 2605 : 
; 2606 : #if( RES_DEBUG_PARAMS )
; 2607 :     if( !pathname ) {

	cmp	DWORD PTR _pathname$[ebp], 0
	jne	SHORT $LN2@ResExistDi

; 2608 :         SAY_ERROR( RES_ERR_INCORRECT_PARAMETER, "ResExistDirectory" );

	push	OFFSET ??_C@_0N@OMEJCDNJ@src?2resmgr?4c?$AA@
	push	2608					; 00000a30H
	push	OFFSET ??_C@_0BC@NEGNMGMD@ResExistDirectory?$AA@
	push	-4998					; ffffec7aH
	call	__say_error
	add	esp, 16					; 00000010H

; 2609 :         return( FALSE );

	xor	eax, eax
	jmp	$LN4@ResExistDi
$LN2@ResExistDi:

; 2610 :     }
; 2611 : #endif
; 2612 : 
; 2613 :     res_fullpath( path, pathname, _MAX_PATH );

	push	260					; 00000104H
	mov	eax, DWORD PTR _pathname$[ebp]
	push	eax
	lea	ecx, DWORD PTR _path$[ebp]
	push	ecx
	call	_res_fullpath
	add	esp, 12					; 0000000cH

; 2614 : 
; 2615 : #if( RES_COERCE_FILENAMES )
; 2616 :     len = strlen(path);

	lea	edx, DWORD PTR _path$[ebp]
	push	edx
	call	_strlen
	add	esp, 4
	mov	DWORD PTR _len$[ebp], eax

; 2617 :     if( path[len-1] != ASCII_BACKSLASH ) {

	mov	eax, DWORD PTR _len$[ebp]
	movsx	ecx, BYTE PTR _path$[ebp+eax-1]
	cmp	ecx, 92					; 0000005cH
	je	SHORT $LN1@ResExistDi

; 2618 :         path[len++] = ASCII_BACKSLASH;

	mov	edx, DWORD PTR _len$[ebp]
	mov	BYTE PTR _path$[ebp+edx], 92		; 0000005cH
	mov	eax, DWORD PTR _len$[ebp]
	add	eax, 1
	mov	DWORD PTR _len$[ebp], eax

; 2619 :         path[len] = 0x00;

	mov	ecx, DWORD PTR _len$[ebp]
	mov	DWORD PTR $T1[ebp], ecx
	cmp	DWORD PTR $T1[ebp], 260			; 00000104H
	jae	SHORT $LN5@ResExistDi
	jmp	SHORT $LN6@ResExistDi
$LN5@ResExistDi:
	call	___report_rangecheckfailure
$LN6@ResExistDi:
	mov	edx, DWORD PTR $T1[ebp]
	mov	BYTE PTR _path$[ebp+edx], 0
$LN1@ResExistDi:

; 2620 :     }
; 2621 : #endif /* RES_COERCE_FILENAMES */
; 2622 : 
; 2623 :     IF_LOG( LOG( "exist dir: %s\n", pathname ));
; 2624 : 
; 2625 :     return((int)hash_find(path, GLOBAL_HASH_TABLE));

	mov	eax, DWORD PTR _GLOBAL_HASH_TABLE
	push	eax
	lea	ecx, DWORD PTR _path$[ebp]
	push	ecx
	call	_hash_find
	add	esp, 8
$LN4@ResExistDi:

; 2626 : }

	mov	ecx, DWORD PTR __$ArrayPad$[ebp]
	xor	ecx, ebp
	call	@__security_check_cookie@4
	mov	esp, ebp
	pop	ebp
	ret	0
_ResExistDirectory ENDP
_TEXT	ENDS
; Function compile flags: /Odtp
; File c:\users\zhitao li\documents\visual studio 2012\projects\freefalcon\codelib\resources\reslib\src\resmgr.c
_TEXT	SEGMENT
_entry$ = -4						; size = 4
_name$ = 8						; size = 4
_ResExistFile PROC

; 2556 : {

	push	ebp
	mov	ebp, esp
	push	ecx

; 2557 :     HASH_ENTRY * entry;
; 2558 : 
; 2559 : #if( RES_DEBUG_PARAMS )
; 2560 :     if( !name ) {

	cmp	DWORD PTR _name$[ebp], 0
	jne	SHORT $LN2@ResExistFi

; 2561 :        SAY_ERROR( RES_ERR_INCORRECT_PARAMETER, "ResExistFile" );

	push	OFFSET ??_C@_0N@OMEJCDNJ@src?2resmgr?4c?$AA@
	push	2561					; 00000a01H
	push	OFFSET ??_C@_0N@DHMJDPLD@ResExistFile?$AA@
	push	-4998					; ffffec7aH
	call	__say_error
	add	esp, 16					; 00000010H

; 2562 :        return( FALSE );

	xor	eax, eax
	jmp	SHORT $LN3@ResExistFi
$LN2@ResExistFi:

; 2563 :     }
; 2564 : #endif
; 2565 : #if (RES_MULTITHREAD)
; 2566 : 	REQUEST_LOCK(GLOCK);

	push	-1
	mov	eax, DWORD PTR _GLOCK
	push	eax
	call	DWORD PTR __imp__WaitForSingleObject@8

; 2567 : #endif
; 2568 : 
; 2569 :    IF_LOG( LOG( "exist file: %s\n", name ));
; 2570 : 
; 2571 : #if( !RES_USE_FLAT_MODEL )
; 2572 :     entry = hash_find_table( name, NULL );

	push	0
	mov	ecx, DWORD PTR _name$[ebp]
	push	ecx
	call	_hash_find_table
	add	esp, 8
	mov	DWORD PTR _entry$[ebp], eax

; 2573 : #else /* flat model */
; 2574 :     entry = hash_find( name, GLOBAL_HASH_TABLE );
; 2575 : #endif
; 2576 : 
; 2577 : #if (RES_MULTITHREAD)
; 2578 : 	RELEASE_LOCK(GLOCK);

	mov	edx, DWORD PTR _GLOCK
	push	edx
	call	DWORD PTR __imp__ReleaseMutex@4

; 2579 : #endif
; 2580 : 
; 2581 :     if( entry )

	cmp	DWORD PTR _entry$[ebp], 0
	je	SHORT $LN1@ResExistFi

; 2582 :         return( TRUE );

	mov	eax, 1
	jmp	SHORT $LN3@ResExistFi
$LN1@ResExistFi:

; 2583 : 
; 2584 :     return( FALSE );

	xor	eax, eax
$LN3@ResExistFi:

; 2585 : }

	mov	esp, ebp
	pop	ebp
	ret	0
_ResExistFile ENDP
_TEXT	ENDS
; Function compile flags: /Odtp
; File c:\users\zhitao li\documents\visual studio 2012\projects\freefalcon\codelib\resources\reslib\src\resmgr.c
_TEXT	SEGMENT
_dir$ = 8						; size = 4
_ResCloseDirectory PROC

; 2520 : {

	push	ebp
	mov	ebp, esp

; 2521 : #if( RES_DEBUG_PARAMS )
; 2522 :     if( !dir ) {

	cmp	DWORD PTR _dir$[ebp], 0
	jne	SHORT $LN1@ResCloseDi

; 2523 :         SAY_ERROR( RES_ERR_INCORRECT_PARAMETER, "ResCloseDirectory" );

	push	OFFSET ??_C@_0N@OMEJCDNJ@src?2resmgr?4c?$AA@
	push	2523					; 000009dbH
	push	OFFSET ??_C@_0BC@EGBEGFJA@ResCloseDirectory?$AA@
	push	-4998					; ffffec7aH
	call	__say_error
	add	esp, 16					; 00000010H

; 2524 :         return;

	jmp	SHORT $LN2@ResCloseDi
$LN1@ResCloseDi:

; 2525 :     }
; 2526 : #endif /* RES_DEBUG_PARAMS */
; 2527 : 
; 2528 :     IF_LOG( LOG( "closedir: %s\n", dir -> name ));
; 2529 : 
; 2530 : 	#ifdef USE_SH_POOLS
; 2531 :     MemFreePtr( dir );
; 2532 : 	#else
; 2533 :     MemFree( dir );

	mov	eax, DWORD PTR _dir$[ebp]
	push	eax
	call	_free
	add	esp, 4

; 2534 : 	#endif
; 2535 : 
; 2536 : #if( RES_DEBUG_VERSION )
; 2537 :     OPEN_DIR_LIST = LIST_REMOVE( OPEN_DIR_LIST, dir );

	mov	ecx, DWORD PTR _dir$[ebp]
	push	ecx
	mov	edx, DWORD PTR _OPEN_DIR_LIST
	push	edx
	call	_ListRemove
	add	esp, 8
	mov	DWORD PTR _OPEN_DIR_LIST, eax
$LN2@ResCloseDi:

; 2538 : #endif
; 2539 : }

	pop	ebp
	ret	0
_ResCloseDirectory ENDP
_TEXT	ENDS
; Function compile flags: /Odtp
; File c:\users\zhitao li\documents\visual studio 2012\projects\freefalcon\codelib\resources\reslib\src\resmgr.c
_TEXT	SEGMENT
tv79 = -4						; size = 4
_dir$ = 8						; size = 4
_ResReadDirectory PROC

; 2488 : {

	push	ebp
	mov	ebp, esp
	push	ecx

; 2489 : #if( RES_DEBUG_PARAMS )
; 2490 :     if( !dir ) {

	cmp	DWORD PTR _dir$[ebp], 0
	jne	SHORT $LN2@ResReadDir

; 2491 :         SAY_ERROR( RES_ERR_INCORRECT_PARAMETER, "ResReadDirectory" );

	push	OFFSET ??_C@_0N@OMEJCDNJ@src?2resmgr?4c?$AA@
	push	2491					; 000009bbH
	push	OFFSET ??_C@_0BB@GCNEOGEN@ResReadDirectory?$AA@
	push	-4998					; ffffec7aH
	call	__say_error
	add	esp, 16					; 00000010H

; 2492 :         return( NULL );

	xor	eax, eax
	jmp	SHORT $LN3@ResReadDir
$LN2@ResReadDir:

; 2493 :     }
; 2494 : #endif /* RES_DEBUG_PARAMS */
; 2495 :    
; 2496 : 
; 2497 :     IF_LOG( LOG( "readdir: %s\n", dir -> name ));
; 2498 : 
; 2499 :     if( dir -> current >= dir -> num_entries ) 

	mov	eax, DWORD PTR _dir$[ebp]
	mov	ecx, DWORD PTR _dir$[ebp]
	mov	edx, DWORD PTR [eax]
	cmp	edx, DWORD PTR [ecx+4]
	jl	SHORT $LN1@ResReadDir

; 2500 :         return( NULL );

	xor	eax, eax
	jmp	SHORT $LN3@ResReadDir
$LN1@ResReadDir:

; 2501 : 
; 2502 :     return((char *)(dir -> filenames[ dir -> current++ ]));

	mov	eax, DWORD PTR _dir$[ebp]
	mov	ecx, DWORD PTR [eax]
	mov	edx, DWORD PTR _dir$[ebp]
	mov	eax, DWORD PTR [edx+8]
	mov	ecx, DWORD PTR [eax+ecx*4]
	mov	DWORD PTR tv79[ebp], ecx
	mov	edx, DWORD PTR _dir$[ebp]
	mov	eax, DWORD PTR [edx]
	add	eax, 1
	mov	ecx, DWORD PTR _dir$[ebp]
	mov	DWORD PTR [ecx], eax
	mov	eax, DWORD PTR tv79[ebp]
$LN3@ResReadDir:

; 2503 : }

	mov	esp, ebp
	pop	ebp
	ret	0
_ResReadDirectory ENDP
_TEXT	ENDS
; Function compile flags: /Odtp
; File c:\users\zhitao li\documents\visual studio 2012\projects\freefalcon\codelib\resources\reslib\src\resmgr.c
_TEXT	SEGMENT
_i$ = -288						; size = 4
_hsh$ = -284						; size = 4
_size$ = -280						; size = 4
_index$ = -276						; size = 4
_entry$ = -272						; size = 4
_dir$ = -268						; size = 4
_dirpath$ = -264					; size = 260
__$ArrayPad$ = -4					; size = 4
_pathname$ = 8						; size = 4
_ResOpenDirectory PROC

; 2393 : {

	push	ebp
	mov	ebp, esp
	sub	esp, 288				; 00000120H
	mov	eax, DWORD PTR ___security_cookie
	xor	eax, ebp
	mov	DWORD PTR __$ArrayPad$[ebp], eax

; 2394 : //    int count = 0;
; 2395 : 
; 2396 : #if( !RES_USE_FLAT_MODEL )
; 2397 : 
; 2398 :     HASH_TABLE * hsh;
; 2399 :     HASH_ENTRY * entry;
; 2400 :     RES_DIR    * dir;
; 2401 :     size_t       size;
; 2402 :     char         dirpath[_MAX_PATH];
; 2403 :     int          index, i;
; 2404 : 
; 2405 : #if( RES_DEBUG_PARAMS )
; 2406 :     if( !GLOBAL_SEARCH_INDEX )

	cmp	DWORD PTR _GLOBAL_SEARCH_INDEX, 0
	jne	SHORT $LN12@ResOpenDir

; 2407 :         return( NULL );

	xor	eax, eax
	jmp	$LN13@ResOpenDir
$LN12@ResOpenDir:

; 2408 : #endif
; 2409 : 
; 2410 :     IF_LOG( LOG( "opendir: %s\n", pathname ));
; 2411 : 
; 2412 :     res_fullpath( dirpath, pathname, _MAX_PATH );

	push	260					; 00000104H
	mov	eax, DWORD PTR _pathname$[ebp]
	push	eax
	lea	ecx, DWORD PTR _dirpath$[ebp]
	push	ecx
	call	_res_fullpath
	add	esp, 12					; 0000000cH

; 2413 : 
; 2414 :     entry = hash_find( dirpath, GLOBAL_HASH_TABLE );

	mov	edx, DWORD PTR _GLOBAL_HASH_TABLE
	push	edx
	lea	eax, DWORD PTR _dirpath$[ebp]
	push	eax
	call	_hash_find
	add	esp, 8
	mov	DWORD PTR _entry$[ebp], eax

; 2415 : 
; 2416 :     if( entry && entry -> dir ) {

	cmp	DWORD PTR _entry$[ebp], 0
	je	$LN11@ResOpenDir
	mov	ecx, DWORD PTR _entry$[ebp]
	cmp	DWORD PTR [ecx+40], 0
	je	$LN11@ResOpenDir

; 2417 :         hsh = (HASH_TABLE *)entry -> dir;

	mov	edx, DWORD PTR _entry$[ebp]
	mov	eax, DWORD PTR [edx+40]
	mov	DWORD PTR _hsh$[ebp], eax

; 2418 : 
; 2419 :         size = sizeof( RES_DIR );

	mov	DWORD PTR _size$[ebp], 24		; 00000018H

; 2420 :         size += sizeof(char *) * (hsh -> num_entries);

	mov	ecx, DWORD PTR _hsh$[ebp]
	mov	edx, DWORD PTR [ecx+4]
	mov	eax, DWORD PTR _size$[ebp]
	lea	ecx, DWORD PTR [eax+edx*4]
	mov	DWORD PTR _size$[ebp], ecx

; 2421 :         size += MAX_FILENAME * (hsh -> num_entries + 12);

	mov	edx, DWORD PTR _hsh$[ebp]
	mov	eax, DWORD PTR [edx+4]
	add	eax, 12					; 0000000cH
	imul	eax, 60					; 0000003cH
	add	eax, DWORD PTR _size$[ebp]
	mov	DWORD PTR _size$[ebp], eax

; 2422 : 
; 2423 : 		#ifdef USE_SH_POOLS
; 2424 :         dir = (RES_DIR *)MemAllocPtr( gResmgrMemPool, size, 0 );
; 2425 : 		#else
; 2426 :         dir = (RES_DIR *)MemMalloc( size, "RES_DIR" );

	mov	ecx, DWORD PTR _size$[ebp]
	push	ecx
	call	_malloc
	add	esp, 4
	mov	DWORD PTR _dir$[ebp], eax

; 2427 : 		#endif
; 2428 :     
; 2429 :         dir -> filenames = (char**)((char*)dir + sizeof( RES_DIR ));

	mov	edx, DWORD PTR _dir$[ebp]
	add	edx, 24					; 00000018H
	mov	eax, DWORD PTR _dir$[ebp]
	mov	DWORD PTR [eax+8], edx

; 2430 :         dir -> string_pool = (char*)dir + sizeof( RES_DIR ) + (sizeof(char *) * (hsh -> num_entries));

	mov	ecx, DWORD PTR _hsh$[ebp]
	mov	edx, DWORD PTR [ecx+4]
	mov	eax, DWORD PTR _dir$[ebp]
	lea	ecx, DWORD PTR [eax+edx*4+24]
	mov	edx, DWORD PTR _dir$[ebp]
	mov	DWORD PTR [edx+12], ecx

; 2431 : 
; 2432 :         if( !dir -> filenames || !dir -> string_pool ) {

	mov	eax, DWORD PTR _dir$[ebp]
	cmp	DWORD PTR [eax+8], 0
	je	SHORT $LN9@ResOpenDir
	mov	ecx, DWORD PTR _dir$[ebp]
	cmp	DWORD PTR [ecx+12], 0
	jne	SHORT $LN10@ResOpenDir
$LN9@ResOpenDir:

; 2433 :             SAY_ERROR( RES_ERR_NO_MEMORY, "ResOpenDirectory" );

	push	OFFSET ??_C@_0N@OMEJCDNJ@src?2resmgr?4c?$AA@
	push	2433					; 00000981H
	push	OFFSET ??_C@_0BB@PLBNNMEI@ResOpenDirectory?$AA@
	push	-4999					; ffffec79H
	call	__say_error
	add	esp, 16					; 00000010H

; 2434 :             return( NULL );

	xor	eax, eax
	jmp	$LN13@ResOpenDir
$LN10@ResOpenDir:

; 2435 :         }
; 2436 : 
; 2437 :         dir -> string_ptr = dir -> string_pool;

	mov	edx, DWORD PTR _dir$[ebp]
	mov	eax, DWORD PTR _dir$[ebp]
	mov	ecx, DWORD PTR [eax+12]
	mov	DWORD PTR [edx+16], ecx

; 2438 : 
; 2439 :         RES_STRING_SET( dir -> name, entry -> name, dir -> string_ptr );

	mov	edx, DWORD PTR _entry$[ebp]
	mov	eax, DWORD PTR [edx]
	push	eax
	mov	ecx, DWORD PTR _dir$[ebp]
	mov	edx, DWORD PTR [ecx+16]
	push	edx
	call	_strcpy
	add	esp, 8
	mov	eax, DWORD PTR _dir$[ebp]
	mov	ecx, DWORD PTR _dir$[ebp]
	mov	edx, DWORD PTR [ecx+16]
	mov	DWORD PTR [eax+20], edx
	mov	eax, DWORD PTR _entry$[ebp]
	mov	ecx, DWORD PTR [eax]
	push	ecx
	call	_strlen
	add	esp, 4
	mov	edx, DWORD PTR _dir$[ebp]
	mov	ecx, DWORD PTR [edx+16]
	lea	edx, DWORD PTR [eax+ecx+1]
	mov	eax, DWORD PTR _dir$[ebp]
	mov	DWORD PTR [eax+16], edx

; 2440 : 
; 2441 :         index = 0;

	mov	DWORD PTR _index$[ebp], 0

; 2442 : 
; 2443 :         for( i = 0; i < hsh->table_size; i++ ) {

	mov	DWORD PTR _i$[ebp], 0
	jmp	SHORT $LN8@ResOpenDir
$LN7@ResOpenDir:
	mov	ecx, DWORD PTR _i$[ebp]
	add	ecx, 1
	mov	DWORD PTR _i$[ebp], ecx
$LN8@ResOpenDir:
	mov	edx, DWORD PTR _hsh$[ebp]
	mov	eax, DWORD PTR _i$[ebp]
	cmp	eax, DWORD PTR [edx]
	jge	$LN6@ResOpenDir

; 2444 :             entry = &hsh -> table[i];

	mov	ecx, DWORD PTR _i$[ebp]
	imul	ecx, 48					; 00000030H
	mov	edx, DWORD PTR _hsh$[ebp]
	add	ecx, DWORD PTR [edx+24]
	mov	DWORD PTR _entry$[ebp], ecx

; 2445 : 
; 2446 :             if( entry -> next ) {

	mov	eax, DWORD PTR _entry$[ebp]
	cmp	DWORD PTR [eax+44], 0
	je	$LN5@ResOpenDir
$LN4@ResOpenDir:

; 2447 :                 while( entry ) {

	cmp	DWORD PTR _entry$[ebp], 0
	je	$LN3@ResOpenDir

; 2448 :                     RES_STRING_SET( dir -> filenames[ index++ ], entry -> name, dir -> string_ptr );

	mov	ecx, DWORD PTR _entry$[ebp]
	mov	edx, DWORD PTR [ecx]
	push	edx
	mov	eax, DWORD PTR _dir$[ebp]
	mov	ecx, DWORD PTR [eax+16]
	push	ecx
	call	_strcpy
	add	esp, 8
	mov	edx, DWORD PTR _dir$[ebp]
	mov	eax, DWORD PTR [edx+8]
	mov	ecx, DWORD PTR _index$[ebp]
	mov	edx, DWORD PTR _dir$[ebp]
	mov	edx, DWORD PTR [edx+16]
	mov	DWORD PTR [eax+ecx*4], edx
	mov	eax, DWORD PTR _index$[ebp]
	add	eax, 1
	mov	DWORD PTR _index$[ebp], eax
	mov	ecx, DWORD PTR _entry$[ebp]
	mov	edx, DWORD PTR [ecx]
	push	edx
	call	_strlen
	add	esp, 4
	mov	ecx, DWORD PTR _dir$[ebp]
	mov	edx, DWORD PTR [ecx+16]
	lea	eax, DWORD PTR [eax+edx+1]
	mov	ecx, DWORD PTR _dir$[ebp]
	mov	DWORD PTR [ecx+16], eax

; 2449 :                     entry = entry -> next;

	mov	edx, DWORD PTR _entry$[ebp]
	mov	eax, DWORD PTR [edx+44]
	mov	DWORD PTR _entry$[ebp], eax

; 2450 :                 }

	jmp	$LN4@ResOpenDir
$LN3@ResOpenDir:

; 2451 :             }
; 2452 :             else {

	jmp	SHORT $LN2@ResOpenDir
$LN5@ResOpenDir:

; 2453 :                 if( entry -> attrib ) {

	mov	ecx, DWORD PTR _entry$[ebp]
	cmp	DWORD PTR [ecx+28], 0
	je	SHORT $LN2@ResOpenDir

; 2454 :                     RES_STRING_SET( dir -> filenames[ index++ ], entry -> name, dir -> string_ptr );

	mov	edx, DWORD PTR _entry$[ebp]
	mov	eax, DWORD PTR [edx]
	push	eax
	mov	ecx, DWORD PTR _dir$[ebp]
	mov	edx, DWORD PTR [ecx+16]
	push	edx
	call	_strcpy
	add	esp, 8
	mov	eax, DWORD PTR _dir$[ebp]
