; Listing generated by Microsoft (R) Optimizing Compiler Version 13.10.6030 

	TITLE	.\UI\SRC\F4Config.cpp
	.386P
include listing.inc
if @Version gt 510
.model FLAT
else
_TEXT	SEGMENT PARA USE32 PUBLIC 'CODE'
_TEXT	ENDS
_DATA	SEGMENT DWORD USE32 PUBLIC 'DATA'
_DATA	ENDS
CONST	SEGMENT DWORD USE32 PUBLIC 'CONST'
CONST	ENDS
_BSS	SEGMENT PARA USE32 PUBLIC 'BSS'
_BSS	ENDS
$$SYMBOLS	SEGMENT BYTE USE32 'DEBSYM'
$$SYMBOLS	ENDS
$$TYPES	SEGMENT BYTE USE32 'DEBTYP'
$$TYPES	ENDS
_TLS	SEGMENT DWORD USE32 PUBLIC 'TLS'
_TLS	ENDS
;	COMDAT ??_C@_0M@JPAFGJIM@UseDxEngine?$AA@
CONST	SEGMENT DWORD USE32 PUBLIC 'CONST'
CONST	ENDS
;	COMDAT ??_C@_0BO@DAPABCLA@ForceDXMultiThreadedCoopLevel?$AA@
CONST	SEGMENT DWORD USE32 PUBLIC 'CONST'
CONST	ENDS
;	COMDAT ??_C@_0BD@HODIAADD@EnableABRelocation?$AA@
CONST	SEGMENT DWORD USE32 PUBLIC 'CONST'
CONST	ENDS
;	COMDAT ??_C@_0BI@BOBAJFBO@EnableWeatherExtensions?$AA@
CONST	SEGMENT DWORD USE32 PUBLIC 'CONST'
CONST	ENDS
;	COMDAT ??_C@_0BB@KJIICHEI@EnableWindsAloft?$AA@
CONST	SEGMENT DWORD USE32 PUBLIC 'CONST'
CONST	ENDS
;	COMDAT ??_C@_0BM@GJGBPECN@EnableNonPersistentTextures?$AA@
CONST	SEGMENT DWORD USE32 PUBLIC 'CONST'
CONST	ENDS
;	COMDAT ??_C@_0BM@JAEBPNKM@EnableStaticTerrainTextures?$AA@
CONST	SEGMENT DWORD USE32 PUBLIC 'CONST'
CONST	ENDS
;	COMDAT ??_C@_0BJ@GCBHCKKF@CheckBltStatusBeforeFlip?$AA@
CONST	SEGMENT DWORD USE32 PUBLIC 'CONST'
CONST	ENDS
;	COMDAT ??_C@_0N@FDDNNIFL@EnableUplink?$AA@
CONST	SEGMENT DWORD USE32 PUBLIC 'CONST'
CONST	ENDS
;	COMDAT ??_C@_0P@BANNOFHF@EnableColorMfd?$AA@
CONST	SEGMENT DWORD USE32 PUBLIC 'CONST'
CONST	ENDS
;	COMDAT ??_C@_0BB@FDCIBLC@NewDamageEffects?$AA@
CONST	SEGMENT DWORD USE32 PUBLIC 'CONST'
CONST	ENDS
;	COMDAT ??_C@_0BE@DJEKHMNK@DisableFunkyChicken?$AA@
CONST	SEGMENT DWORD USE32 PUBLIC 'CONST'
CONST	ENDS
;	COMDAT ??_C@_0N@OMNJEGIN@SmartScaling?$AA@
CONST	SEGMENT DWORD USE32 PUBLIC 'CONST'
CONST	ENDS
;	COMDAT ??_C@_0BB@HNJOIELK@FloatingBullseye?$AA@
CONST	SEGMENT DWORD USE32 PUBLIC 'CONST'
CONST	ENDS
;	COMDAT ??_C@_0BP@ODHMDFMO@DisableCrashEjectCourtMartials?$AA@
CONST	SEGMENT DWORD USE32 PUBLIC 'CONST'
CONST	ENDS
;	COMDAT ??_C@_0N@IFIEFKLK@ShowMipUsage?$AA@
CONST	SEGMENT DWORD USE32 PUBLIC 'CONST'
CONST	ENDS
;	COMDAT ??_C@_0O@BMIPOBNN@SmartCombatAP?$AA@
CONST	SEGMENT DWORD USE32 PUBLIC 'CONST'
CONST	ENDS
;	COMDAT ??_C@_0L@GEDKMKJF@NoRPMOnHUD?$AA@
CONST	SEGMENT DWORD USE32 PUBLIC 'CONST'
CONST	ENDS
;	COMDAT ??_C@_0O@KJLIAAOE@CATIIIDefault?$AA@
CONST	SEGMENT DWORD USE32 PUBLIC 'CONST'
CONST	ENDS
;	COMDAT ??_C@_0O@LHCANHGH@EPAFRadarCues?$AA@
CONST	SEGMENT DWORD USE32 PUBLIC 'CONST'
CONST	ENDS
;	COMDAT ??_C@_0BB@BFNFPBBE@RadarJamChevrons?$AA@
CONST	SEGMENT DWORD USE32 PUBLIC 'CONST'
CONST	ENDS
;	COMDAT ??_C@_0N@BJINEENB@AWACSSupport?$AA@
CONST	SEGMENT DWORD USE32 PUBLIC 'CONST'
CONST	ENDS
;	COMDAT ??_C@_0O@PPICECCN@AWACSRequired?$AA@
CONST	SEGMENT DWORD USE32 PUBLIC 'CONST'
CONST	ENDS
;	COMDAT ??_C@_0L@GMOBHLIP@Use3dSound?$AA@
CONST	SEGMENT DWORD USE32 PUBLIC 'CONST'
CONST	ENDS
;	COMDAT ??_C@_0M@KOMOMOBH@OldSoundAlg?$AA@
CONST	SEGMENT DWORD USE32 PUBLIC 'CONST'
CONST	ENDS
;	COMDAT ??_C@_0BB@FKIOKAEF@MultiEngineSound?$AA@
CONST	SEGMENT DWORD USE32 PUBLIC 'CONST'
CONST	ENDS
;	COMDAT ??_C@_0BA@NFEMLIIE@MFDHighContrast?$AA@
CONST	SEGMENT DWORD USE32 PUBLIC 'CONST'
CONST	ENDS
;	COMDAT ??_C@_0L@PMCMMNDA@IFlyMirage?$AA@
CONST	SEGMENT DWORD USE32 PUBLIC 'CONST'
CONST	ENDS
;	COMDAT ??_C@_09HCDILKPH@PowerGrid?$AA@
CONST	SEGMENT DWORD USE32 PUBLIC 'CONST'
CONST	ENDS
;	COMDAT ??_C@_0P@LILDLBPI@UseMappedFiles?$AA@
CONST	SEGMENT DWORD USE32 PUBLIC 'CONST'
CONST	ENDS
;	COMDAT ??_C@_05HIBBLBMA@NewFm?$AA@
CONST	SEGMENT DWORD USE32 PUBLIC 'CONST'
CONST	ENDS
;	COMDAT ??_C@_0BD@JAHCDCFJ@RealisticAttrition?$AA@
CONST	SEGMENT DWORD USE32 PUBLIC 'CONST'
CONST	ENDS
;	COMDAT ??_C@_0N@EMDJPEPI@GreyScaleMFD?$AA@
CONST	SEGMENT DWORD USE32 PUBLIC 'CONST'
CONST	ENDS
;	COMDAT ??_C@_06DNMIJEHJ@IFFRWR?$AA@
CONST	SEGMENT DWORD USE32 PUBLIC 'CONST'
CONST	ENDS
;	COMDAT ??_C@_09EDDKFAHB@3dCockpit?$AA@
CONST	SEGMENT DWORD USE32 PUBLIC 'CONST'
CONST	ENDS
;	COMDAT ??_C@_03FOMBOACJ@RWR?$AA@
CONST	SEGMENT DWORD USE32 PUBLIC 'CONST'
CONST	ENDS
;	COMDAT ??_C@_09JBONLPAM@BrightHUD?$AA@
CONST	SEGMENT DWORD USE32 PUBLIC 'CONST'
CONST	ENDS
;	COMDAT ??_C@_09JEGBIAG@3dMFDLeft?$AA@
CONST	SEGMENT DWORD USE32 PUBLIC 'CONST'
CONST	ENDS
;	COMDAT ??_C@_0L@PDJFOMEE@3dMFDRight?$AA@
CONST	SEGMENT DWORD USE32 PUBLIC 'CONST'
CONST	ENDS
;	COMDAT ??_C@_0BD@PHPIFOFB@3dDynamicPilotHead?$AA@
CONST	SEGMENT DWORD USE32 PUBLIC 'CONST'
CONST	ENDS
;	COMDAT ??_C@_0BA@JPCCLLAP@SimpleFMUpdates?$AA@
CONST	SEGMENT DWORD USE32 PUBLIC 'CONST'
CONST	ENDS
;	COMDAT ??_C@_0O@LOMJEIDE@NoMFDsIn1View?$AA@
CONST	SEGMENT DWORD USE32 PUBLIC 'CONST'
CONST	ENDS
;	COMDAT ??_C@_06LGMEBDBC@Server?$AA@
CONST	SEGMENT DWORD USE32 PUBLIC 'CONST'
CONST	ENDS
;	COMDAT ??_C@_0O@PMMAFHAM@ServerHostAll?$AA@
CONST	SEGMENT DWORD USE32 PUBLIC 'CONST'
CONST	ENDS
;	COMDAT ??_C@_09NHIOLBMG@LogEvents?$AA@
CONST	SEGMENT DWORD USE32 PUBLIC 'CONST'
CONST	ENDS
;	COMDAT ??_C@_08MKJAIDGB@VoiceCom?$AA@
CONST	SEGMENT DWORD USE32 PUBLIC 'CONST'
CONST	ENDS
;	COMDAT ??_C@_05BFIPGPFD@woeir?$AA@
CONST	SEGMENT DWORD USE32 PUBLIC 'CONST'
CONST	ENDS
;	COMDAT ??_C@_03JIJHNLG@MLU?$AA@
CONST	SEGMENT DWORD USE32 PUBLIC 'CONST'
CONST	ENDS
;	COMDAT ??_C@_03OKJDCOKF@IFF?$AA@
CONST	SEGMENT DWORD USE32 PUBLIC 'CONST'
CONST	ENDS
;	COMDAT ??_C@_03NDDFJJAJ@INS?$AA@
CONST	SEGMENT DWORD USE32 PUBLIC 'CONST'
CONST	ENDS
;	COMDAT ??_C@_0BE@LKGLBJDK@RP5DataCompatiblity?$AA@
CONST	SEGMENT DWORD USE32 PUBLIC 'CONST'
CONST	ENDS
;	COMDAT ??_C@_0L@JOJBNFBI@ModuleList?$AA@
CONST	SEGMENT DWORD USE32 PUBLIC 'CONST'
CONST	ENDS
;	COMDAT ??_C@_07FMFJLGFM@HiResUI?$AA@
CONST	SEGMENT DWORD USE32 PUBLIC 'CONST'
CONST	ENDS
;	COMDAT ??_C@_09GNPGNAEB@AWACSFuel?$AA@
CONST	SEGMENT DWORD USE32 PUBLIC 'CONST'
CONST	ENDS
;	COMDAT ??_C@_0O@JFLNFGBA@FullScreenNVG?$AA@
CONST	SEGMENT DWORD USE32 PUBLIC 'CONST'
CONST	ENDS
;	COMDAT ??_C@_0M@FFNMDFFK@LogUiErrors?$AA@
CONST	SEGMENT DWORD USE32 PUBLIC 'CONST'
CONST	ENDS
;	COMDAT ??_C@_0BK@HHNBHFID@LoadoutSquadStoreResupply?$AA@
CONST	SEGMENT DWORD USE32 PUBLIC 'CONST'
CONST	ENDS
;	COMDAT ??_C@_0N@CENADPFP@DisplayTrees?$AA@
CONST	SEGMENT DWORD USE32 PUBLIC 'CONST'
CONST	ENDS
;	COMDAT ??_C@_0M@JOHNLPA@RequestHelp?$AA@
CONST	SEGMENT DWORD USE32 PUBLIC 'CONST'
CONST	ENDS
;	COMDAT ??_C@_0M@NIHNMLI@LightsKC135?$AA@
CONST	SEGMENT DWORD USE32 PUBLIC 'CONST'
CONST	ENDS
;	COMDAT ??_C@_0BA@NFJPGAEE@AddACSizeVisual?$AA@
CONST	SEGMENT DWORD USE32 PUBLIC 'CONST'
CONST	ENDS
;	COMDAT ??_C@_0M@PBBBGNFE@NewRackData?$AA@
CONST	SEGMENT DWORD USE32 PUBLIC 'CONST'
CONST	ENDS
;	COMDAT ??_C@_0M@IOPCONON@BMSRackData?$AA@
CONST	SEGMENT DWORD USE32 PUBLIC 'CONST'
CONST	ENDS
;	COMDAT ??_C@_0L@MNBONOJP@HelosReloc?$AA@
CONST	SEGMENT DWORD USE32 PUBLIC 'CONST'
CONST	ENDS
;	COMDAT ??_C@_09NPFDHEPC@ShowFlaps?$AA@
CONST	SEGMENT DWORD USE32 PUBLIC 'CONST'
CONST	ENDS
;	COMDAT ??_C@_0M@MMINDMLE@SlowButSafe?$AA@
CONST	SEGMENT DWORD USE32 PUBLIC 'CONST'
CONST	ENDS
;	COMDAT ??_C@_0L@KLNHFOAF@NewPadlock?$AA@
CONST	SEGMENT DWORD USE32 PUBLIC 'CONST'
CONST	ENDS
;	COMDAT ??_C@_0P@KNDOKDNJ@NoPadlockBoxes?$AA@
CONST	SEGMENT DWORD USE32 PUBLIC 'CONST'
CONST	ENDS
;	COMDAT ??_C@_0BC@MAHCILAL@PitchLimiterForAI?$AA@
CONST	SEGMENT DWORD USE32 PUBLIC 'CONST'
CONST	ENDS
;	COMDAT ??_C@_0P@LEGDLLNM@MissionACIcons?$AA@
CONST	SEGMENT DWORD USE32 PUBLIC 'CONST'
CONST	ENDS
;	COMDAT ??_C@_0BA@GLLFDLGP@EnableMfdColors?$AA@
CONST	SEGMENT DWORD USE32 PUBLIC 'CONST'
CONST	ENDS
;	COMDAT ??_C@_0O@MIMBHKJI@EnableMfdSize?$AA@
CONST	SEGMENT DWORD USE32 PUBLIC 'CONST'
CONST	ENDS
;	COMDAT ??_C@_0BE@EPNOGHNI@AIRefuelInComplexAF?$AA@
CONST	SEGMENT DWORD USE32 PUBLIC 'CONST'
CONST	ENDS
;	COMDAT ??_C@_0L@MBGAPEKL@NewAcmiHud?$AA@
CONST	SEGMENT DWORD USE32 PUBLIC 'CONST'
CONST	ENDS
;	COMDAT ??_C@_0BA@EFBALDAB@AWACSBackground?$AA@
CONST	SEGMENT DWORD USE32 PUBLIC 'CONST'
CONST	ENDS
;	COMDAT ??_C@_08MHEBNPF@MavFixes?$AA@
CONST	SEGMENT DWORD USE32 PUBLIC 'CONST'
CONST	ENDS
;	COMDAT ??_C@_08EOPBLIOM@LgbFixes?$AA@
CONST	SEGMENT DWORD USE32 PUBLIC 'CONST'
CONST	ENDS
;	COMDAT ??_C@_0BD@KOEGGDKO@FallingHeadingTape?$AA@
CONST	SEGMENT DWORD USE32 PUBLIC 'CONST'
CONST	ENDS
;	COMDAT ??_C@_0O@JHIMBKBM@NewRefuelHelp?$AA@
CONST	SEGMENT DWORD USE32 PUBLIC 'CONST'
CONST	ENDS
;	COMDAT ??_C@_0BB@NLPJDECN@OtherGroundCheck?$AA@
CONST	SEGMENT DWORD USE32 PUBLIC 'CONST'
CONST	ENDS
;	COMDAT ??_C@_0BC@BBIMDAFF@Limit2DRadarFight?$AA@
CONST	SEGMENT DWORD USE32 PUBLIC 'CONST'
CONST	ENDS
;	COMDAT ??_C@_0BL@IDAGFGKL@AdvancedGroundChooseWeapon?$AA@
CONST	SEGMENT DWORD USE32 PUBLIC 'CONST'
CONST	ENDS
;	COMDAT ??_C@_08MEFGJPBP@TFRFixes?$AA@
CONST	SEGMENT DWORD USE32 PUBLIC 'CONST'
CONST	ENDS
;	COMDAT ??_C@_06DOMAHNHD@AIGloc?$AA@
CONST	SEGMENT DWORD USE32 PUBLIC 'CONST'
CONST	ENDS
;	COMDAT ??_C@_0BH@DHPHDCBG@CalibrateTFR_PitchCtrl?$AA@
CONST	SEGMENT DWORD USE32 PUBLIC 'CONST'
CONST	ENDS
;	COMDAT ??_C@_09CCBPHLOF@LantDebug?$AA@
CONST	SEGMENT DWORD USE32 PUBLIC 'CONST'
CONST	ENDS
;	COMDAT ??_C@_0P@HDGMLBIK@UseNewCanEnage?$AA@
CONST	SEGMENT DWORD USE32 PUBLIC 'CONST'
CONST	ENDS
;	COMDAT ??_C@_0BC@MNDEGEPH@MPStartRestricted?$AA@
CONST	SEGMENT DWORD USE32 PUBLIC 'CONST'
CONST	ENDS
;	COMDAT ??_C@_0BB@HNDLNA@UseSkillForFlaks?$AA@
CONST	SEGMENT DWORD USE32 PUBLIC 'CONST'
CONST	ENDS
;	COMDAT ??_C@_0BB@GJHIHGJG@ToggleAAAGunFlag?$AA@
CONST	SEGMENT DWORD USE32 PUBLIC 'CONST'
CONST	ENDS
;	COMDAT ??_C@_0P@BHCMJLKD@UseTankerTrack?$AA@
CONST	SEGMENT DWORD USE32 PUBLIC 'CONST'
CONST	ENDS
;	COMDAT ??_C@_0BJ@CLIPICFC@UseComplexBVRForPlayerAI?$AA@
CONST	SEGMENT DWORD USE32 PUBLIC 'CONST'
CONST	ENDS
;	COMDAT ??_C@_0N@LCONHMAD@FuelUseVtDot?$AA@
CONST	SEGMENT DWORD USE32 PUBLIC 'CONST'
CONST	ENDS
;	COMDAT ??_C@_0BG@JHJCJKBA@FuelLimitBecauseVtDot?$AA@
CONST	SEGMENT DWORD USE32 PUBLIC 'CONST'
CONST	ENDS
;	COMDAT ??_C@_0BK@PNDABNIL@UseAggresiveIncompleteA2G?$AA@
CONST	SEGMENT DWORD USE32 PUBLIC 'CONST'
CONST	ENDS
;	COMDAT ??_C@_0P@IFBNLFCA@NewPitchLadder?$AA@
CONST	SEGMENT DWORD USE32 PUBLIC 'CONST'
CONST	ENDS
;	COMDAT ??_C@_0N@EAJHDDIH@AddIngressWP?$AA@
CONST	SEGMENT DWORD USE32 PUBLIC 'CONST'
CONST	ENDS
;	COMDAT ??_C@_0BA@OCBOHBEA@TankerWaypoints?$AA@
CONST	SEGMENT DWORD USE32 PUBLIC 'CONST'
CONST	ENDS
;	COMDAT ??_C@_0M@MLCLHDON@PutAIToBoom?$AA@
CONST	SEGMENT DWORD USE32 PUBLIC 'CONST'
CONST	ENDS
;	COMDAT ??_C@_0N@CMBBACE@OldStackDump?$AA@
CONST	SEGMENT DWORD USE32 PUBLIC 'CONST'
CONST	ENDS
;	COMDAT ??_C@_0M@LPBECEEF@TankerFMFix?$AA@
CONST	SEGMENT DWORD USE32 PUBLIC 'CONST'
CONST	ENDS
;	COMDAT ??_C@_0N@FADECMI@AGRadarFixes?$AA@
CONST	SEGMENT DWORD USE32 PUBLIC 'CONST'
CONST	ENDS
;	COMDAT ??_C@_0O@JLJNJCMO@LookCloserFix?$AA@
CONST	SEGMENT DWORD USE32 PUBLIC 'CONST'
CONST	ENDS
;	COMDAT ??_C@_0BA@FFPNCKHA@AnyWaypointTask?$AA@
CONST	SEGMENT DWORD USE32 PUBLIC 'CONST'
CONST	ENDS
;	COMDAT ??_C@_0M@BOACOPCD@FFCenterFix?$AA@
CONST	SEGMENT DWORD USE32 PUBLIC 'CONST'
CONST	ENDS
;	COMDAT ??_C@_0BB@EOMIEJNL@CockpitAutoScale?$AA@
CONST	SEGMENT DWORD USE32 PUBLIC 'CONST'
CONST	ENDS
;	COMDAT ??_C@_0BI@NGFEJIBD@3DClickableCockpitDebug?$AA@
CONST	SEGMENT DWORD USE32 PUBLIC 'CONST'
CONST	ENDS
;	COMDAT ??_C@_0BC@OLFADGNI@3DRTTCockpitDebug?$AA@
CONST	SEGMENT DWORD USE32 PUBLIC 'CONST'
CONST	ENDS
;	COMDAT ??_C@_0BI@LGLKLFDB@3DClickableCursorChange?$AA@
CONST	SEGMENT DWORD USE32 PUBLIC 'CONST'
CONST	ENDS
;	COMDAT ??_C@_0O@POKCJEBG@DEDSpacingFix?$AA@
CONST	SEGMENT DWORD USE32 PUBLIC 'CONST'
CONST	ENDS
;	COMDAT ??_C@_0N@BCEEDNO@ReconLatLong?$AA@
CONST	SEGMENT DWORD USE32 PUBLIC 'CONST'
CONST	ENDS
;	COMDAT ??_C@_09CJLDLDD@RatioHack?$AA@
CONST	SEGMENT DWORD USE32 PUBLIC 'CONST'
CONST	ENDS
;	COMDAT ??_C@_0BD@PNLHFGBB@PrecisionWaypoints?$AA@
CONST	SEGMENT DWORD USE32 PUBLIC 'CONST'
CONST	ENDS
;	COMDAT ??_C@_0BA@OBMNLAKJ@SmallerBullseye?$AA@
CONST	SEGMENT DWORD USE32 PUBLIC 'CONST'
CONST	ENDS
;	COMDAT ??_C@_0P@JFEFEAKN@AutoScaleFonts?$AA@
CONST	SEGMENT DWORD USE32 PUBLIC 'CONST'
CONST	ENDS
;	COMDAT ??_C@_0BF@GPDDPCBB@EnableRandomFailures?$AA@
CONST	SEGMENT DWORD USE32 PUBLIC 'CONST'
CONST	ENDS
;	COMDAT ??_C@_0BA@OOLLLJDM@2DPitWingFOVFix?$AA@
CONST	SEGMENT DWORD USE32 PUBLIC 'CONST'
CONST	ENDS
;	COMDAT ??_C@_0BA@OJJCMMHA@OldFontTexelFix?$AA@
CONST	SEGMENT DWORD USE32 PUBLIC 'CONST'
CONST	ENDS
;	COMDAT ??_C@_0M@NGBMIBBH@Filter2DPit?$AA@
CONST	SEGMENT DWORD USE32 PUBLIC 'CONST'
CONST	ENDS
;	COMDAT ??_C@_08EDEADKDH@CrackFix?$AA@
CONST	SEGMENT DWORD USE32 PUBLIC 'CONST'
CONST	ENDS
;	COMDAT ??_C@_0BB@KFIBFEKH@ResizeUsesResMgr?$AA@
CONST	SEGMENT DWORD USE32 PUBLIC 'CONST'
CONST	ENDS
;	COMDAT ??_C@_0BA@NIMIGMAE@PadlockHudColor?$AA@
CONST	SEGMENT DWORD USE32 PUBLIC 'CONST'
CONST	ENDS
;	COMDAT ??_C@_0BC@NDOBAMEH@CheckFeatureIndex?$AA@
CONST	SEGMENT DWORD USE32 PUBLIC 'CONST'
CONST	ENDS
;	COMDAT ??_C@_0M@BKJLMPFC@MachAsiDial?$AA@
CONST	SEGMENT DWORD USE32 PUBLIC 'CONST'
CONST	ENDS
;	COMDAT ??_C@_0N@JDDAGMMH@New2DTrackIR?$AA@
CONST	SEGMENT DWORD USE32 PUBLIC 'CONST'
CONST	ENDS
;	COMDAT ??_C@_0M@HPAJJJKH@Sync2D3DPit?$AA@
CONST	SEGMENT DWORD USE32 PUBLIC 'CONST'
CONST	ENDS
;	COMDAT ??_C@_0L@GLPDEGIL@LowBwVoice?$AA@
CONST	SEGMENT DWORD USE32 PUBLIC 'CONST'
CONST	ENDS
;	COMDAT ??_C@_0O@OBLODPNM@AGTargetWPFix?$AA@
CONST	SEGMENT DWORD USE32 PUBLIC 'CONST'
CONST	ENDS
;	COMDAT ??_C@_0BA@HCEBKICP@BombNumLoopOnly?$AA@
CONST	SEGMENT DWORD USE32 PUBLIC 'CONST'
CONST	ENDS
;	COMDAT ??_C@_0BC@NCKOLEGB@AlwaysAnisotropic?$AA@
CONST	SEGMENT DWORD USE32 PUBLIC 'CONST'
CONST	ENDS
;	COMDAT ??_C@_0BC@FIMBFGHK@NoAAAEventRecords?$AA@
CONST	SEGMENT DWORD USE32 PUBLIC 'CONST'
CONST	ENDS
;	COMDAT ??_C@_0BD@JCCBLOJD@ActivateDebugStuff?$AA@
CONST	SEGMENT DWORD USE32 PUBLIC 'CONST'
CONST	ENDS
;	COMDAT ??_C@_0BF@LMKIJKDL@ActivateMissileDebug?$AA@
CONST	SEGMENT DWORD USE32 PUBLIC 'CONST'
CONST	ENDS
;	COMDAT ??_C@_0BD@LNALKBHL@NewSensorPrecision?$AA@
CONST	SEGMENT DWORD USE32 PUBLIC 'CONST'
CONST	ENDS
;	COMDAT ??_C@_0L@BNLFLHLJ@AGNoBVRWVR?$AA@
CONST	SEGMENT DWORD USE32 PUBLIC 'CONST'
CONST	ENDS
;	COMDAT ??_C@_0BA@MIHHENE@TO_LDG_LightFix?$AA@
CONST	SEGMENT DWORD USE32 PUBLIC 'CONST'
CONST	ENDS
;	COMDAT ??_C@_0BF@IPGINMJE@AppendToBriefingFile?$AA@
CONST	SEGMENT DWORD USE32 PUBLIC 'CONST'
CONST	ENDS
;	COMDAT ??_C@_0L@MBDOGONP@DarkHudFix?$AA@
CONST	SEGMENT DWORD USE32 PUBLIC 'CONST'
CONST	ENDS
;	COMDAT ??_C@_06KCOHPJHE@RQDFix?$AA@
CONST	SEGMENT DWORD USE32 PUBLIC 'CONST'
CONST	ENDS
;	COMDAT ??_C@_0P@HALBPCMP@ACPlayerCTDFix?$AA@
CONST	SEGMENT DWORD USE32 PUBLIC 'CONST'
CONST	ENDS
;	COMDAT ??_C@_0N@FLGDBIIB@CheckForMode?$AA@
CONST	SEGMENT DWORD USE32 PUBLIC 'CONST'
CONST	ENDS
;	COMDAT ??_C@_0O@BPCJMHGI@AllowOverload?$AA@
CONST	SEGMENT DWORD USE32 PUBLIC 'CONST'
CONST	ENDS
;	COMDAT ??_C@_0BE@EJFCLLNL@UseDefinedGunDomain?$AA@
CONST	SEGMENT DWORD USE32 PUBLIC 'CONST'
CONST	ENDS
;	COMDAT ??_C@_0P@PODBGMK@LabelRadialFix?$AA@
CONST	SEGMENT DWORD USE32 PUBLIC 'CONST'
CONST	ENDS
;	COMDAT ??_C@_0BC@MCFNANOH@LabelShowDistance?$AA@
CONST	SEGMENT DWORD USE32 PUBLIC 'CONST'
CONST	ENDS
;	COMDAT ??_C@_0BC@BFLCFKFJ@SetWaypointNumFix?$AA@
CONST	SEGMENT DWORD USE32 PUBLIC 'CONST'
CONST	ENDS
;	COMDAT ??_C@_0BB@FNGCFHBD@EmptyFilenameFix?$AA@
CONST	SEGMENT DWORD USE32 PUBLIC 'CONST'
CONST	ENDS
;	COMDAT ??_C@_0BB@MDDAFMNM@RebuildbobbleFix?$AA@
CONST	SEGMENT DWORD USE32 PUBLIC 'CONST'
CONST	ENDS
;	COMDAT ??_C@_05NLHHIMJF@MPFix?$AA@
CONST	SEGMENT DWORD USE32 PUBLIC 'CONST'
CONST	ENDS
;	COMDAT ??_C@_06GNMOEEDG@MPFix2?$AA@
CONST	SEGMENT DWORD USE32 PUBLIC 'CONST'
CONST	ENDS
;	COMDAT ??_C@_06HENFHFHH@MPFix3?$AA@
CONST	SEGMENT DWORD USE32 PUBLIC 'CONST'
CONST	ENDS
;	COMDAT ??_C@_06DLJEODLA@MPFix4?$AA@
CONST	SEGMENT DWORD USE32 PUBLIC 'CONST'
CONST	ENDS
;	COMDAT ??_C@_0BC@MPPGCPH@ExitCampSelectFix?$AA@
CONST	SEGMENT DWORD USE32 PUBLIC 'CONST'
CONST	ENDS
;	COMDAT ??_C@_0BC@KADNOGMI@CampSavedMenuHack?$AA@
CONST	SEGMENT DWORD USE32 PUBLIC 'CONST'
CONST	ENDS
;	COMDAT ??_C@_0BF@MPAIMHGE@EmergencyJettisonFix?$AA@
CONST	SEGMENT DWORD USE32 PUBLIC 'CONST'
CONST	ENDS
;	COMDAT ??_C@_0P@BNHDBBJD@OldSamActivity?$AA@
CONST	SEGMENT DWORD USE32 PUBLIC 'CONST'
CONST	ENDS
;	COMDAT ??_C@_0O@EPBBDKGP@FireOntheMove?$AA@
CONST	SEGMENT DWORD USE32 PUBLIC 'CONST'
CONST	ENDS
;	COMDAT ??_C@_0BA@DCMLMHIC@SAM2D3DHandover?$AA@
CONST	SEGMENT DWORD USE32 PUBLIC 'CONST'
CONST	ENDS
;	COMDAT ??_C@_07POPACGNO@MavFix2?$AA@
CONST	SEGMENT DWORD USE32 PUBLIC 'CONST'
CONST	ENDS
;	COMDAT ??_C@_0BG@CCDGAFHB@DisableMissileEngGlow?$AA@
CONST	SEGMENT DWORD USE32 PUBLIC 'CONST'
CONST	ENDS
;	COMDAT ??_C@_06PKNIHIOC@HUDFix?$AA@
CONST	SEGMENT DWORD USE32 PUBLIC 'CONST'
CONST	ENDS
;	COMDAT ??_C@_0BD@IEKFPDMB@SMSPylonLoadingFix?$AA@
CONST	SEGMENT DWORD USE32 PUBLIC 'CONST'
CONST	ENDS
;	COMDAT ??_C@_0M@GJBGJBPG@LargeStrike?$AA@
CONST	SEGMENT DWORD USE32 PUBLIC 'CONST'
CONST	ENDS
;	COMDAT ??_C@_0N@DNANAGMB@TakeoffSound?$AA@
CONST	SEGMENT DWORD USE32 PUBLIC 'CONST'
CONST	ENDS
;	COMDAT ??_C@_08BNNIANJF@Scramble?$AA@
CONST	SEGMENT DWORD USE32 PUBLIC 'CONST'
CONST	ENDS
;	COMDAT ??_C@_06FMJLOEBN@hudAOA?$AA@
CONST	SEGMENT DWORD USE32 PUBLIC 'CONST'
CONST	ENDS
;	COMDAT ??_C@_09NPEAAMPE@LensFlare?$AA@
CONST	SEGMENT DWORD USE32 PUBLIC 'CONST'
CONST	ENDS
;	COMDAT ??_C@_0BE@EEPCKBHI@DisableHighFartiles?$AA@
CONST	SEGMENT DWORD USE32 PUBLIC 'CONST'
CONST	ENDS
;	COMDAT ??_C@_0N@GCFLLIPN@noRadStutter?$AA@
CONST	SEGMENT DWORD USE32 PUBLIC 'CONST'
CONST	ENDS
;	COMDAT ??_C@_0BE@LADJIFHB@RollLinkedNWSRudder?$AA@
CONST	SEGMENT DWORD USE32 PUBLIC 'CONST'
CONST	ENDS
;	COMDAT ??_C@_0BH@OCMLJDFA@EnableGRCursorBullseye?$AA@
CONST	SEGMENT DWORD USE32 PUBLIC 'CONST'
CONST	ENDS
;	COMDAT ??_C@_09JIIKAKDF@BriefHTML?$AA@
CONST	SEGMENT DWORD USE32 PUBLIC 'CONST'
CONST	ENDS
;	COMDAT ??_C@_0BB@PLIBOKCI@RealisticMavTime?$AA@
CONST	SEGMENT DWORD USE32 PUBLIC 'CONST'
CONST	ENDS
;	COMDAT ??_C@_0N@IMJCLHBO@newAMRAAMdlz?$AA@
CONST	SEGMENT DWORD USE32 PUBLIC 'CONST'
CONST	ENDS
;	COMDAT ??_C@_0BG@IBCBAPOO@EnableDisplacementCam?$AA@
CONST	SEGMENT DWORD USE32 PUBLIC 'CONST'
CONST	ENDS
;	COMDAT ??_C@_0P@ILOPFFFD@AntElevKnobFix?$AA@
CONST	SEGMENT DWORD USE32 PUBLIC 'CONST'
CONST	ENDS
;	COMDAT ??_C@_0BD@IFOBHKPB@PilotEntertainment?$AA@
CONST	SEGMENT DWORD USE32 PUBLIC 'CONST'
CONST	ENDS
;	COMDAT ??_C@_0M@PAHFHAJ@RollInertia?$AA@
CONST	SEGMENT DWORD USE32 PUBLIC 'CONST'
CONST	ENDS
;	COMDAT ??_C@_0BB@LHKHGDJK@ACMIRecordMsgOff?$AA@
CONST	SEGMENT DWORD USE32 PUBLIC 'CONST'
CONST	ENDS
;	COMDAT ??_C@_0BE@FEADJIHO@UseAnalogIdleCutoff?$AA@
CONST	SEGMENT DWORD USE32 PUBLIC 'CONST'
CONST	ENDS
;	COMDAT ??_C@_0BD@FOGMLOLH@WeaponPickleDelays?$AA@
CONST	SEGMENT DWORD USE32 PUBLIC 'CONST'
CONST	ENDS
;	COMDAT ??_C@_0L@DOGDBHOJ@HsdStptFix?$AA@
CONST	SEGMENT DWORD USE32 PUBLIC 'CONST'
CONST	ENDS
;	COMDAT ??_C@_0L@DHDGAL@F4CommsMTU?$AA@
CONST	SEGMENT DWORD USE32 PUBLIC 'CONST'
CONST	ENDS
;	COMDAT ??_C@_0M@FOFODPOK@UseNew3dpit?$AA@
CONST	SEGMENT DWORD USE32 PUBLIC 'CONST'
CONST	ENDS
;	COMDAT ??_C@_0N@IICFPPI@StartIn3Dpit?$AA@
CONST	SEGMENT DWORD USE32 PUBLIC 'CONST'
CONST	ENDS
;	COMDAT ??_C@_0BA@CIIDEAB@UseNewSmoothing?$AA@
CONST	SEGMENT DWORD USE32 PUBLIC 'CONST'
CONST	ENDS
;	COMDAT ??_C@_0BC@OOAJHEFL@DisplayAxisValues?$AA@
CONST	SEGMENT DWORD USE32 PUBLIC 'CONST'
CONST	ENDS
;	COMDAT ??_C@_0BP@JECNDJKC@WeaponLaunchUsesDrawPointerPos?$AA@
CONST	SEGMENT DWORD USE32 PUBLIC 'CONST'
CONST	ENDS
;	COMDAT ??_C@_0BA@MOKNEEC@WeaponStepToGun?$AA@
CONST	SEGMENT DWORD USE32 PUBLIC 'CONST'
CONST	ENDS
;	COMDAT ??_C@_04KIBBIEFM@Turb?$AA@
CONST	SEGMENT DWORD USE32 PUBLIC 'CONST'
CONST	ENDS
;	COMDAT ??_C@_0P@LNEMBMEJ@SoundSonicBoom?$AA@
CONST	SEGMENT DWORD USE32 PUBLIC 'CONST'
CONST	ENDS
;	COMDAT ??_C@_0BD@FKGNBI@DisableCommsBorder?$AA@
CONST	SEGMENT DWORD USE32 PUBLIC 'CONST'
CONST	ENDS
;	COMDAT ??_C@_08OMPBCCDL@EcmOnHud?$AA@
CONST	SEGMENT DWORD USE32 PUBLIC 'CONST'
CONST	ENDS
;	COMDAT ??_C@_0L@CCPAPEIP@BrakeOnHud?$AA@
CONST	SEGMENT DWORD USE32 PUBLIC 'CONST'
CONST	ENDS
;	COMDAT ??_C@_09MEFGCLMD@GearOnHud?$AA@
CONST	SEGMENT DWORD USE32 PUBLIC 'CONST'
CONST	ENDS
;	COMDAT ??_C@_0P@PIGHAJFO@WakeTurbulence?$AA@
CONST	SEGMENT DWORD USE32 PUBLIC 'CONST'
CONST	ENDS
;	COMDAT ??_C@_0BD@ELLMAKPG@DrawWakeTurbulence?$AA@
CONST	SEGMENT DWORD USE32 PUBLIC 'CONST'
CONST	ENDS
;	COMDAT ??_C@_0N@KJGHMHPH@OldDustTrail?$AA@
CONST	SEGMENT DWORD USE32 PUBLIC 'CONST'
CONST	ENDS
;	COMDAT ??_C@_0M@IADPJOPC@HearThunder?$AA@
CONST	SEGMENT DWORD USE32 PUBLIC 'CONST'
CONST	ENDS
;	COMDAT ??_C@_07BNPFHFPE@HighSFX?$AA@
CONST	SEGMENT DWORD USE32 PUBLIC 'CONST'
CONST	ENDS
;	COMDAT ??_C@_0L@JNAKJINM@AllHaveIFF?$AA@
CONST	SEGMENT DWORD USE32 PUBLIC 'CONST'
CONST	ENDS
;	COMDAT ??_C@_08EIPMJHIH@UseRC135?$AA@
CONST	SEGMENT DWORD USE32 PUBLIC 'CONST'
CONST	ENDS
;	COMDAT ??_C@_05PMLDJAMG@FFDBC?$AA@
CONST	SEGMENT DWORD USE32 PUBLIC 'CONST'
CONST	ENDS
;	COMDAT ??_C@_0BA@FDKAMOEE@ExtViewOnGround?$AA@
CONST	SEGMENT DWORD USE32 PUBLIC 'CONST'
CONST	ENDS
;	COMDAT ??_C@_0O@MHKFAEHF@UnlimitedAmmo?$AA@
CONST	SEGMENT DWORD USE32 PUBLIC 'CONST'
CONST	ENDS
;	COMDAT ??_C@_0O@CHHOKHGC@AnimPilotHead?$AA@
CONST	SEGMENT DWORD USE32 PUBLIC 'CONST'
CONST	ENDS
;	COMDAT ??_C@_0N@JEEMHINL@ThrottleMode?$AA@
CONST	SEGMENT DWORD USE32 PUBLIC 'CONST'
CONST	ENDS
;	COMDAT ??_C@_0P@PKPJCMAG@PadlockBoxSize?$AA@
CONST	SEGMENT DWORD USE32 PUBLIC 'CONST'
CONST	ENDS
;	COMDAT ??_C@_0M@OIEGAJL@PadlockMode?$AA@
CONST	SEGMENT DWORD USE32 PUBLIC 'CONST'
CONST	ENDS
;	COMDAT ??_C@_0BG@DGMIDNBE@NumDefaultHatSwitches?$AA@
CONST	SEGMENT DWORD USE32 PUBLIC 'CONST'
CONST	ENDS
;	COMDAT ??_C@_0P@HBJABLEG@NearLabelLimit?$AA@
CONST	SEGMENT DWORD USE32 PUBLIC 'CONST'
CONST	ENDS
;	COMDAT ??_C@_0BO@NFAKIFJA@percentage_available_aircraft?$AA@
CONST	SEGMENT DWORD USE32 PUBLIC 'CONST'
CONST	ENDS
;	COMDAT ??_C@_0BL@HHNOONGM@minimum_available_aircraft?$AA@
CONST	SEGMENT DWORD USE32 PUBLIC 'CONST'
CONST	ENDS
;	COMDAT ??_C@_0BB@GLGCMOJA@MasterServerPort?$AA@
CONST	SEGMENT DWORD USE32 PUBLIC 'CONST'
CONST	ENDS
;	COMDAT ??_C@_0P@KHAPOGMN@MaxVertexSpace?$AA@
CONST	SEGMENT DWORD USE32 PUBLIC 'CONST'
CONST	ENDS
;	COMDAT ??_C@_0BC@OJMFKPAE@FlightVisualBonus?$AA@
CONST	SEGMENT DWORD USE32 PUBLIC 'CONST'
CONST	ENDS
;	COMDAT ??_C@_0P@BHMGPDNL@RelocationWait?$AA@
CONST	SEGMENT DWORD USE32 PUBLIC 'CONST'
CONST	ENDS
;	COMDAT ??_C@_0BB@HDONENA@LoadoutTimeLimit?$AA@
CONST	SEGMENT DWORD USE32 PUBLIC 'CONST'
CONST	ENDS
;	COMDAT ??_C@_04FEDKBIAK@Year?$AA@
CONST	SEGMENT DWORD USE32 PUBLIC 'CONST'
CONST	ENDS
;	COMDAT ??_C@_03HNCFIMCB@Day?$AA@
CONST	SEGMENT DWORD USE32 PUBLIC 'CONST'
CONST	ENDS
;	COMDAT ??_C@_0N@IKEBFFGA@AirbaseReloc?$AA@
CONST	SEGMENT DWORD USE32 PUBLIC 'CONST'
CONST	ENDS
;	COMDAT ??_C@_0N@MHCLNKMJ@NoPlayerPlay?$AA@
CONST	SEGMENT DWORD USE32 PUBLIC 'CONST'
CONST	ENDS
;	COMDAT ??_C@_09FGOEEEEK@DeagTimer?$AA@
CONST	SEGMENT DWORD USE32 PUBLIC 'CONST'
CONST	ENDS
;	COMDAT ??_C@_09HMFELFOF@ReagTimer?$AA@
CONST	SEGMENT DWORD USE32 PUBLIC 'CONST'
CONST	ENDS
;	COMDAT ??_C@_08FPMLDCGP@RNESpeed?$AA@
CONST	SEGMENT DWORD USE32 PUBLIC 'CONST'
CONST	ENDS
;	COMDAT ??_C@_0BC@GIFJIKNA@TargetSpotTimeout?$AA@
CONST	SEGMENT DWORD USE32 PUBLIC 'CONST'
CONST	ENDS
;	COMDAT ??_C@_0N@LEGJNLKP@MaxUIRefresh?$AA@
CONST	SEGMENT DWORD USE32 PUBLIC 'CONST'
CONST	ENDS
;	COMDAT ??_C@_0BB@OOABCAOK@UnidentifiedInUI?$AA@
CONST	SEGMENT DWORD USE32 PUBLIC 'CONST'
CONST	ENDS
;	COMDAT ??_C@_0BF@LHIAOEBH@lookAroundWaterTiles?$AA@
CONST	SEGMENT DWORD USE32 PUBLIC 'CONST'
CONST	ENDS
;	COMDAT ??_C@_0BD@GBJHLJHD@FFEffectAutoCenter?$AA@
CONST	SEGMENT DWORD USE32 PUBLIC 'CONST'
CONST	ENDS
;	COMDAT ??_C@_0M@IJAJMFNL@MPStartTime?$AA@
CONST	SEGMENT DWORD USE32 PUBLIC 'CONST'
CONST	ENDS
;	COMDAT ??_C@_0BC@BEKMPFMH@LowestSkillForGCI?$AA@
CONST	SEGMENT DWORD USE32 PUBLIC 'CONST'
CONST	ENDS
;	COMDAT ??_C@_0BG@OBDGHLPB@AIVisualRetentionTime?$AA@
CONST	SEGMENT DWORD USE32 PUBLIC 'CONST'
CONST	ENDS
;	COMDAT ??_C@_0BH@OEGFBPFK@AIVisualRetentionSkill?$AA@
CONST	SEGMENT DWORD USE32 PUBLIC 'CONST'
CONST	ENDS
;	COMDAT ??_C@_0BH@FCDDJIHB@MaxSimTimeAcceleration?$AA@
CONST	SEGMENT DWORD USE32 PUBLIC 'CONST'
CONST	ENDS
;	COMDAT ??_C@_0BA@EJKNBDPB@LowDetailFactor?$AA@
CONST	SEGMENT DWORD USE32 PUBLIC 'CONST'
CONST	ENDS
;	COMDAT ??_C@_0BB@KJMKAMHO@NoWPRefuelNeeded?$AA@
CONST	SEGMENT DWORD USE32 PUBLIC 'CONST'
CONST	ENDS
;	COMDAT ??_C@_0N@GJAHMAJ@AirbaseCheck?$AA@
CONST	SEGMENT DWORD USE32 PUBLIC 'CONST'
CONST	ENDS
;	COMDAT ??_C@_0P@PLNKDCEP@FogRenderState?$AA@
CONST	SEGMENT DWORD USE32 PUBLIC 'CONST'
CONST	ENDS
;	COMDAT ??_C@_0L@GBPCGGLI@MissileFix?$AA@
CONST	SEGMENT DWORD USE32 PUBLIC 'CONST'
CONST	ENDS
;	COMDAT ??_C@_0BB@PCHAINIF@SkipWaypointTime?$AA@
CONST	SEGMENT DWORD USE32 PUBLIC 'CONST'
CONST	ENDS
;	COMDAT ??_C@_0BB@OGAGDFIL@GroundAttackTime?$AA@
CONST	SEGMENT DWORD USE32 PUBLIC 'CONST'
CONST	ENDS
;	COMDAT ??_C@_0P@BFLIKJHI@SeadAttackTime?$AA@
CONST	SEGMENT DWORD USE32 PUBLIC 'CONST'
CONST	ENDS
;	COMDAT ??_C@_0BB@KDGPFNKD@StrikeAttackTime?$AA@
CONST	SEGMENT DWORD USE32 PUBLIC 'CONST'
CONST	ENDS
;	COMDAT ??_C@_0O@GKFNPKAD@CASAttackTime?$AA@
CONST	SEGMENT DWORD USE32 PUBLIC 'CONST'
CONST	ENDS
;	COMDAT ??_C@_0BF@FELAILAJ@AIshootLookShootTime?$AA@
CONST	SEGMENT DWORD USE32 PUBLIC 'CONST'
CONST	ENDS
;	COMDAT ??_C@_06OKKPCIIP@GfxFix?$AA@
CONST	SEGMENT DWORD USE32 PUBLIC 'CONST'
CONST	ENDS
;	COMDAT ??_C@_0BA@OMKLHKAN@ATCTaxiOrderFix?$AA@
CONST	SEGMENT DWORD USE32 PUBLIC 'CONST'
CONST	ENDS
;	COMDAT ??_C@_0BA@GMGKOKBG@DFRegenerateFix?$AA@
CONST	SEGMENT DWORD USE32 PUBLIC 'CONST'
CONST	ENDS
;	COMDAT ??_C@_0P@LHGNNLM@BWMaxDeltaTime?$AA@
CONST	SEGMENT DWORD USE32 PUBLIC 'CONST'
CONST	ENDS
;	COMDAT ??_C@_0BB@NPHLGFKD@BWCheckDeltaTime?$AA@
CONST	SEGMENT DWORD USE32 PUBLIC 'CONST'
CONST	ENDS
;	COMDAT ??_C@_0P@CEAGODDN@VUMaxDeltaTime?$AA@
CONST	SEGMENT DWORD USE32 PUBLIC 'CONST'
CONST	ENDS
;	COMDAT ??_C@_0BH@DOIILFGN@ACMIOptionsPopupHiResX?$AA@
CONST	SEGMENT DWORD USE32 PUBLIC 'CONST'
CONST	ENDS
;	COMDAT ??_C@_0BH@CHJDIECM@ACMIOptionsPopupHiResY?$AA@
CONST	SEGMENT DWORD USE32 PUBLIC 'CONST'
CONST	ENDS
;	COMDAT ??_C@_0BI@KDMPCIJN@ACMIOptionsPopupLowResX?$AA@
CONST	SEGMENT DWORD USE32 PUBLIC 'CONST'
CONST	ENDS
;	COMDAT ??_C@_0BI@LKNEBJNM@ACMIOptionsPopupLowResY?$AA@
CONST	SEGMENT DWORD USE32 PUBLIC 'CONST'
CONST	ENDS
;	COMDAT ??_C@_0BC@MDEFACBF@ChooseBullseyeFix?$AA@
CONST	SEGMENT DWORD USE32 PUBLIC 'CONST'
CONST	ENDS
;	COMDAT ??_C@_0P@MDOLEFIA@SoundSwitchFix?$AA@
CONST	SEGMENT DWORD USE32 PUBLIC 'CONST'
CONST	ENDS
;	COMDAT ??_C@_0M@GJLEKKKF@PrintToFile?$AA@
CONST	SEGMENT DWORD USE32 PUBLIC 'CONST'
CONST	ENDS
;	COMDAT ??_C@_0P@CEFOJMIA@SessionTimeout?$AA@
CONST	SEGMENT DWORD USE32 PUBLIC 'CONST'
CONST	ENDS
;	COMDAT ??_C@_0BC@GCKILAAB@SessionUpdateRate?$AA@
CONST	SEGMENT DWORD USE32 PUBLIC 'CONST'
CONST	ENDS
;	COMDAT ??_C@_0BF@PGHGLIAA@MaxInterceptDistance?$AA@
CONST	SEGMENT DWORD USE32 PUBLIC 'CONST'
CONST	ENDS
;	COMDAT ??_C@_0BC@POKKFCBC@TrackIRSampleFreq?$AA@
CONST	SEGMENT DWORD USE32 PUBLIC 'CONST'
CONST	ENDS
;	COMDAT ??_C@_0O@FGJJJKBN@SoundUpdatems?$AA@
CONST	SEGMENT DWORD USE32 PUBLIC 'CONST'
CONST	ENDS
;	COMDAT ??_C@_0BC@OMLJLFBC@NumberOfSubTitles?$AA@
CONST	SEGMENT DWORD USE32 PUBLIC 'CONST'
CONST	ENDS
;	COMDAT ??_C@_0M@DAGHONMO@SubTitleTTL?$AA@
CONST	SEGMENT DWORD USE32 PUBLIC 'CONST'
CONST	ENDS
;	COMDAT ??_C@_0BB@PNDBKKFB@WinAmpInitVolume?$AA@
CONST	SEGMENT DWORD USE32 PUBLIC 'CONST'
CONST	ENDS
;	COMDAT ??_C@_0O@NPKMGOBK@DynamicVoices?$AA@
CONST	SEGMENT DWORD USE32 PUBLIC 'CONST'
CONST	ENDS
;	COMDAT ??_C@_0O@NCDBNCFB@IdleCutoffPad?$AA@
CONST	SEGMENT DWORD USE32 PUBLIC 'CONST'
CONST	ENDS
;	COMDAT ??_C@_0BA@DJKECLPD@SaturationSmall?$AA@
CONST	SEGMENT DWORD USE32 PUBLIC 'CONST'
CONST	ENDS
;	COMDAT ??_C@_0BB@MDKFJACE@SaturationMedium?$AA@
CONST	SEGMENT DWORD USE32 PUBLIC 'CONST'
CONST	ENDS
;	COMDAT ??_C@_0BA@JBOPNKGF@SaturationLarge?$AA@
CONST	SEGMENT DWORD USE32 PUBLIC 'CONST'
CONST	ENDS
;	COMDAT ??_C@_0O@KIIOJHIB@DeadzoneSmall?$AA@
CONST	SEGMENT DWORD USE32 PUBLIC 'CONST'
CONST	ENDS
;	COMDAT ??_C@_0P@HNDPKKII@DeadzoneMedium?$AA@
CONST	SEGMENT DWORD USE32 PUBLIC 'CONST'
CONST	ENDS
;	COMDAT ??_C@_0O@MFGGBH@DeadzoneLarge?$AA@
CONST	SEGMENT DWORD USE32 PUBLIC 'CONST'
CONST	ENDS
;	COMDAT ??_C@_0N@PKJOOHMG@DeadzoneHuge?$AA@
CONST	SEGMENT DWORD USE32 PUBLIC 'CONST'
CONST	ENDS
;	COMDAT ??_C@_0BB@DPPDNALN@MouseLookSensMax?$AA@
CONST	SEGMENT DWORD USE32 PUBLIC 'CONST'
CONST	ENDS
;	COMDAT ??_C@_0BB@CNHIDENC@MouseLookSensMin?$AA@
CONST	SEGMENT DWORD USE32 PUBLIC 'CONST'
CONST	ENDS
;	COMDAT ??_C@_0BC@GBFOMJAG@MouseWheelSensMax?$AA@
CONST	SEGMENT DWORD USE32 PUBLIC 'CONST'
CONST	ENDS
;	COMDAT ??_C@_0BC@HDNFCNGJ@MouseWheelSensMin?$AA@
CONST	SEGMENT DWORD USE32 PUBLIC 'CONST'
CONST	ENDS
;	COMDAT ??_C@_0O@NFJLJAKC@KeyPOVSensMax?$AA@
CONST	SEGMENT DWORD USE32 PUBLIC 'CONST'
CONST	ENDS
;	COMDAT ??_C@_0O@MHBAHEMN@KeyPOVSensMin?$AA@
CONST	SEGMENT DWORD USE32 PUBLIC 'CONST'
CONST	ENDS
;	COMDAT ??_C@_0P@GNKPBIOL@3DHeadPanRange?$AA@
CONST	SEGMENT DWORD USE32 PUBLIC 'CONST'
CONST	ENDS
;	COMDAT ??_C@_0BA@NHGHLIF@3DHeadTiltRange?$AA@
CONST	SEGMENT DWORD USE32 PUBLIC 'CONST'
CONST	ENDS
;	COMDAT ??_C@_07PDCPCPDK@6DOFTIR?$AA@
CONST	SEGMENT DWORD USE32 PUBLIC 'CONST'
CONST	ENDS
;	COMDAT ??_C@_0O@DLBHIEAA@NewFPSCounter?$AA@
CONST	SEGMENT DWORD USE32 PUBLIC 'CONST'
CONST	ENDS
;	COMDAT ??_C@_0BH@PNFFGKBC@ForceCockpitResolution?$AA@
CONST	SEGMENT DWORD USE32 PUBLIC 'CONST'
CONST	ENDS
;	COMDAT ??_C@_0BA@HOAINIJF@Show2DPitErrors?$AA@
CONST	SEGMENT DWORD USE32 PUBLIC 'CONST'
CONST	ENDS
;	COMDAT ??_C@_08JDFPFCBJ@MiniDump?$AA@
CONST	SEGMENT DWORD USE32 PUBLIC 'CONST'
CONST	ENDS
;	COMDAT ??_C@_0BD@JKCPJMDO@HybridPitModeDelay?$AA@
CONST	SEGMENT DWORD USE32 PUBLIC 'CONST'
CONST	ENDS
;	COMDAT ??_C@_0BF@BADABAHI@MPPowerXmitThreshold?$AA@
CONST	SEGMENT DWORD USE32 PUBLIC 'CONST'
CONST	ENDS
;	COMDAT ??_C@_0P@HIPEPHEP@TaxiLaunchTime?$AA@
CONST	SEGMENT DWORD USE32 PUBLIC 'CONST'
CONST	ENDS
;	COMDAT ??_C@_0BA@LMPMHGII@ChatterInterval?$AA@
CONST	SEGMENT DWORD USE32 PUBLIC 'CONST'
CONST	ENDS
;	COMDAT ??_C@_0N@NBNJFGAM@SfxLODCutoff?$AA@
CONST	SEGMENT DWORD USE32 PUBLIC 'CONST'
CONST	ENDS
;	COMDAT ??_C@_0BB@NKPNPJBI@SfxLODDistCutoff?$AA@
CONST	SEGMENT DWORD USE32 PUBLIC 'CONST'
CONST	ENDS
;	COMDAT ??_C@_0BA@GNKPEALA@SfxLODTotCutoff?$AA@
CONST	SEGMENT DWORD USE32 PUBLIC 'CONST'
CONST	ENDS
;	COMDAT ??_C@_0BA@PICMABDM@PSPurgeInterval?$AA@
CONST	SEGMENT DWORD USE32 PUBLIC 'CONST'
CONST	ENDS
;	COMDAT ??_C@_09OEMGMJFE@PSKillFPS?$AA@
CONST	SEGMENT DWORD USE32 PUBLIC 'CONST'
CONST	ENDS
;	COMDAT ??_C@_0P@KDJJLDGL@CriticalPullup?$AA@
CONST	SEGMENT DWORD USE32 PUBLIC 'CONST'
CONST	ENDS
;	COMDAT ??_C@_0BB@BAMOFHBN@MasterServerName?$AA@
CONST	SEGMENT DWORD USE32 PUBLIC 'CONST'
CONST	ENDS
;	COMDAT ??_C@_0L@FFDIDHBB@ServerName?$AA@
CONST	SEGMENT DWORD USE32 PUBLIC 'CONST'
CONST	ENDS
;	COMDAT ??_C@_0P@MHEEONCC@ServerLocation?$AA@
CONST	SEGMENT DWORD USE32 PUBLIC 'CONST'
CONST	ENDS
;	COMDAT ??_C@_0M@KBDHJKCN@ServerAdmin?$AA@
CONST	SEGMENT DWORD USE32 PUBLIC 'CONST'
CONST	ENDS
;	COMDAT ??_C@_0BB@EOHHPIIJ@ServerAdminEmail?$AA@
CONST	SEGMENT DWORD USE32 PUBLIC 'CONST'
CONST	ENDS
;	COMDAT ??_C@_0M@FFMOFINI@VoiceHostIP?$AA@
CONST	SEGMENT DWORD USE32 PUBLIC 'CONST'
CONST	ENDS
;	COMDAT ??_C@_09MJLNAICC@WorldName?$AA@
CONST	SEGMENT DWORD USE32 PUBLIC 'CONST'
CONST	ENDS
;	COMDAT ??_C@_0BB@ODGOONIN@ScrollUpFunction?$AA@
CONST	SEGMENT DWORD USE32 PUBLIC 'CONST'
CONST	ENDS
;	COMDAT ??_C@_0BD@KCPLNEFD@ScrollDownFunction?$AA@
CONST	SEGMENT DWORD USE32 PUBLIC 'CONST'
CONST	ENDS
;	COMDAT ??_C@_0BF@ENPLHFJO@MiddleButtonFunction?$AA@
CONST	SEGMENT DWORD USE32 PUBLIC 'CONST'
CONST	ENDS
;	COMDAT ??_C@_0P@KLPABIGK@RadioflightCol?$AA@
CONST	SEGMENT DWORD USE32 PUBLIC 'CONST'
CONST	ENDS
;	COMDAT ??_C@_0BC@BKNHMKDB@RadiotoPackageCol?$AA@
CONST	SEGMENT DWORD USE32 PUBLIC 'CONST'
CONST	ENDS
;	COMDAT ??_C@_0BG@BFOAJCCP@RadioToFromPackageCol?$AA@
CONST	SEGMENT DWORD USE32 PUBLIC 'CONST'
CONST	ENDS
;	COMDAT ??_C@_0N@MNAFDBEN@RadioTeamCol?$AA@
CONST	SEGMENT DWORD USE32 PUBLIC 'CONST'
CONST	ENDS
;	COMDAT ??_C@_0BC@NLHCNFHA@RadioProximityCol?$AA@
CONST	SEGMENT DWORD USE32 PUBLIC 'CONST'
CONST	ENDS
;	COMDAT ??_C@_0O@GPIMDEIH@RadioWorldCol?$AA@
CONST	SEGMENT DWORD USE32 PUBLIC 'CONST'
CONST	ENDS
;	COMDAT ??_C@_0O@MMJGBEAP@RadioTowerCol?$AA@
CONST	SEGMENT DWORD USE32 PUBLIC 'CONST'
CONST	ENDS
;	COMDAT ??_C@_0BB@DJIHGFP@RadioStandardCol?$AA@
CONST	SEGMENT DWORD USE32 PUBLIC 'CONST'
CONST	ENDS
;	COMDAT ??_C@_0L@ONEGGIPE@MipLodBias?$AA@
CONST	SEGMENT DWORD USE32 PUBLIC 'CONST'
CONST	ENDS
;	COMDAT ??_C@_0P@GOJJLPFA@CloudMinHeight?$AA@
CONST	SEGMENT DWORD USE32 PUBLIC 'CONST'
CONST	ENDS
;	COMDAT ??_C@_0L@GCODLODD@RadarScale?$AA@
CONST	SEGMENT DWORD USE32 PUBLIC 'CONST'
CONST	ENDS
;	COMDAT ??_C@_0M@DFLBEBEO@CursorSpeed?$AA@
CONST	SEGMENT DWORD USE32 PUBLIC 'CONST'
CONST	ENDS
;	COMDAT ??_C@_0BA@FMLGGGHE@MinCloudWeather?$AA@
CONST	SEGMENT DWORD USE32 PUBLIC 'CONST'
CONST	ENDS
;	COMDAT ??_C@_0BF@MPFEJIJO@CloudThicknessFactor?$AA@
CONST	SEGMENT DWORD USE32 PUBLIC 'CONST'
CONST	ENDS
;	COMDAT ??_C@_0BD@JCPAPJKM@DragDilutionFactor?$AA@
CONST	SEGMENT DWORD USE32 PUBLIC 'CONST'
CONST	ENDS
;	COMDAT ??_C@_0L@CHNOPJNO@dwPorthost?$AA@
CONST	SEGMENT DWORD USE32 PUBLIC 'CONST'
CONST	ENDS
;	COMDAT ??_C@_0N@JEKGEGKC@dwPortclient?$AA@
CONST	SEGMENT DWORD USE32 PUBLIC 'CONST'
CONST	ENDS
;	COMDAT ??_C@_0BI@DFMLHJAO@FormationBurnerDistance?$AA@
CONST	SEGMENT DWORD USE32 PUBLIC 'CONST'
CONST	ENDS
;	COMDAT ??_C@_0BF@FFOFDJFN@PadlockBreakDistance?$AA@
CONST	SEGMENT DWORD USE32 PUBLIC 'CONST'
CONST	ENDS
;	COMDAT ??_C@_0O@PENCKKIE@AFRudderRight?$AA@
CONST	SEGMENT DWORD USE32 PUBLIC 'CONST'
CONST	ENDS
;	COMDAT ??_C@_0N@CDMEMBAC@AFRudderLeft?$AA@
CONST	SEGMENT DWORD USE32 PUBLIC 'CONST'
CONST	ENDS
;	COMDAT ??_C@_0P@HGBEIHPP@AFThrottleDown?$AA@
CONST	SEGMENT DWORD USE32 PUBLIC 'CONST'
CONST	ENDS
;	COMDAT ??_C@_0N@POBODBK@AFThrottleUp?$AA@
CONST	SEGMENT DWORD USE32 PUBLIC 'CONST'
CONST	ENDS
;	COMDAT ??_C@_0O@IFGNNACM@AFAileronLeft?$AA@
CONST	SEGMENT DWORD USE32 PUBLIC 'CONST'
CONST	ENDS
;	COMDAT ??_C@_0P@CIKCAOFK@AFAileronRight?$AA@
CONST	SEGMENT DWORD USE32 PUBLIC 'CONST'
CONST	ENDS
;	COMDAT ??_C@_0P@IJJJJHDF@AFElevatorDown?$AA@
CONST	SEGMENT DWORD USE32 PUBLIC 'CONST'
CONST	ENDS
;	COMDAT ??_C@_0N@HNKPPLEM@AFElevatorUp?$AA@
CONST	SEGMENT DWORD USE32 PUBLIC 'CONST'
CONST	ENDS
;	COMDAT ??_C@_0BA@KJIPIPMF@rollStickOffset?$AA@
CONST	SEGMENT DWORD USE32 PUBLIC 'CONST'
CONST	ENDS
;	COMDAT ??_C@_0BB@FICIAJKM@pitchStickOffset?$AA@
CONST	SEGMENT DWORD USE32 PUBLIC 'CONST'
CONST	ENDS
;	COMDAT ??_C@_0N@FABDEEJB@rudderOffset?$AA@
CONST	SEGMENT DWORD USE32 PUBLIC 'CONST'
CONST	ENDS
;	COMDAT ??_C@_0BG@LEDDHCJK@VisualNormalizeFactor?$AA@
CONST	SEGMENT DWORD USE32 PUBLIC 'CONST'
CONST	ENDS
;	COMDAT ??_C@_0M@HMHGGILP@RecoveryAOA?$AA@
CONST	SEGMENT DWORD USE32 PUBLIC 'CONST'
CONST	ENDS
;	COMDAT ??_C@_0BL@DEOMNHOC@clientbwforupdatesmodifyer?$AA@
CONST	SEGMENT DWORD USE32 PUBLIC 'CONST'
CONST	ENDS
;	COMDAT ??_C@_0BJ@GKGMNJMA@hostbwforupdatesmodifyer?$AA@
CONST	SEGMENT DWORD USE32 PUBLIC 'CONST'
CONST	ENDS
;	COMDAT ??_C@_0BA@KOOBOEEN@MfdTransparency?$AA@
CONST	SEGMENT DWORD USE32 PUBLIC 'CONST'
CONST	ENDS
;	COMDAT ??_C@_06NLNJGJLD@MfdRed?$AA@
CONST	SEGMENT DWORD USE32 PUBLIC 'CONST'
CONST	ENDS
;	COMDAT ??_C@_07EKDFLFPC@MfdBlue?$AA@
CONST	SEGMENT DWORD USE32 PUBLIC 'CONST'
CONST	ENDS
;	COMDAT ??_C@_08HHIDAPGD@MfdGreen?$AA@
CONST	SEGMENT DWORD USE32 PUBLIC 'CONST'
CONST	ENDS
;	COMDAT ??_C@_0L@LBBFEKPB@Mfd_p_Size?$AA@
CONST	SEGMENT DWORD USE32 PUBLIC 'CONST'
CONST	ENDS
;	COMDAT ??_C@_0L@KHPPPOPB@PullupTime?$AA@
CONST	SEGMENT DWORD USE32 PUBLIC 'CONST'
CONST	ENDS
;	COMDAT ??_C@_0BA@LLGLGMPB@GALookAheadTime?$AA@
CONST	SEGMENT DWORD USE32 PUBLIC 'CONST'
CONST	ENDS
;	COMDAT ??_C@_08ODNOBHDK@AIMinAlt?$AA@
CONST	SEGMENT DWORD USE32 PUBLIC 'CONST'
CONST	ENDS
;	COMDAT ??_C@_0L@NKEPIKEE@AIMinWPAlt?$AA@
CONST	SEGMENT DWORD USE32 PUBLIC 'CONST'
CONST	ENDS
;	COMDAT ??_C@_0M@IFINGKIN@GApStickFac?$AA@
CONST	SEGMENT DWORD USE32 PUBLIC 'CONST'
CONST	ENDS
;	COMDAT ??_C@_0P@OFAJLNCA@AIHarmMaxRange?$AA@
CONST	SEGMENT DWORD USE32 PUBLIC 'CONST'
CONST	ENDS
;	COMDAT ??_C@_0P@OBGILEBK@AIJSOWMaxRange?$AA@
CONST	SEGMENT DWORD USE32 PUBLIC 'CONST'
CONST	ENDS
;	COMDAT ??_C@_0O@KJHCKPDO@AGFlyoutRange?$AA@
CONST	SEGMENT DWORD USE32 PUBLIC 'CONST'
CONST	ENDS
;	COMDAT ??_C@_0BC@NAAFJGGM@AGSlowFlyoutRange?$AA@
CONST	SEGMENT DWORD USE32 PUBLIC 'CONST'
CONST	ENDS
;	COMDAT ??_C@_0BB@BCCCLNHN@AGSlowMoverSpeed?$AA@
CONST	SEGMENT DWORD USE32 PUBLIC 'CONST'
CONST	ENDS
;	COMDAT ??_C@_0O@OAAGLKIA@AIRefuelRange?$AA@
CONST	SEGMENT DWORD USE32 PUBLIC 'CONST'
CONST	ENDS
;	COMDAT ??_C@_0M@MCKGGKKA@IdentFactor?$AA@
CONST	SEGMENT DWORD USE32 PUBLIC 'CONST'
CONST	ENDS
;	COMDAT ??_C@_0BJ@KNLCJMEH@AIDropStoreLauncherRange?$AA@
CONST	SEGMENT DWORD USE32 PUBLIC 'CONST'
CONST	ENDS
;	COMDAT ??_C@_0BD@MECFIJPF@BiasFactorForFlaks?$AA@
CONST	SEGMENT DWORD USE32 PUBLIC 'CONST'
CONST	ENDS
;	COMDAT ??_C@_0BF@DKGNKGPO@TracerAccuracyFactor?$AA@
CONST	SEGMENT DWORD USE32 PUBLIC 'CONST'
CONST	ENDS
;	COMDAT ??_C@_0N@OBNPGPBG@TankerRStick?$AA@
CONST	SEGMENT DWORD USE32 PUBLIC 'CONST'
CONST	ENDS
;	COMDAT ??_C@_0N@HGEAHODP@TankerPStick?$AA@
CONST	SEGMENT DWORD USE32 PUBLIC 'CONST'
CONST	ENDS
;	COMDAT ??_C@_0BC@GLLJDCDL@TankerTrackFactor?$AA@
CONST	SEGMENT DWORD USE32 PUBLIC 'CONST'
CONST	ENDS
;	COMDAT ??_C@_0BG@CFPOCOIM@TankerHeadsupDistance?$AA@
CONST	SEGMENT DWORD USE32 PUBLIC 'CONST'
CONST	ENDS
;	COMDAT ??_C@_0BF@KPDHEJEF@TankerBackupDistance?$AA@
CONST	SEGMENT DWORD USE32 PUBLIC 'CONST'
CONST	ENDS
;	COMDAT ??_C@_0BH@KJIDKIDP@HeadingStabilizeFactor?$AA@
CONST	SEGMENT DWORD USE32 PUBLIC 'CONST'
CONST	ENDS
;	COMDAT ??_C@_0BC@EMJHNOBD@RocketPitchFactor?$AA@
CONST	SEGMENT DWORD USE32 PUBLIC 'CONST'
CONST	ENDS
;	COMDAT ??_C@_0BA@KENKLNKB@RocketPitchCorr?$AA@
CONST	SEGMENT DWORD USE32 PUBLIC 'CONST'
CONST	ENDS
;	COMDAT ??_C@_0N@EHFPFCKH@FuelBaseProp?$AA@
CONST	SEGMENT DWORD USE32 PUBLIC 'CONST'
CONST	ENDS
;	COMDAT ??_C@_0N@DJALJPLO@FuelMultProp?$AA@
CONST	SEGMENT DWORD USE32 PUBLIC 'CONST'
CONST	ENDS
;	COMDAT ??_C@_0N@BDNNDFKA@FuelTimeStep?$AA@
CONST	SEGMENT DWORD USE32 PUBLIC 'CONST'
CONST	ENDS
;	COMDAT ??_C@_0L@PNHJNCFN@FuelVtClip?$AA@
CONST	SEGMENT DWORD USE32 PUBLIC 'CONST'
CONST	ENDS
;	COMDAT ??_C@_0O@HFBIHDPF@FuelVtDotMult?$AA@
CONST	SEGMENT DWORD USE32 PUBLIC 'CONST'
CONST	ENDS
;	COMDAT ??_C@_0O@LLEELFDJ@AIRefuelSpeed?$AA@
CONST	SEGMENT DWORD USE32 PUBLIC 'CONST'
CONST	ENDS
;	COMDAT ??_C@_0BM@NNJBGOBI@SearchSimTargetFromRangeSqr?$AA@
CONST	SEGMENT DWORD USE32 PUBLIC 'CONST'
CONST	ENDS
;	COMDAT ??_C@_0BD@ENPPPAKF@NukeStrengthFactor?$AA@
CONST	SEGMENT DWORD USE32 PUBLIC 'CONST'
CONST	ENDS
;	COMDAT ??_C@_0O@KONPLMCF@NukeDamageMod?$AA@
CONST	SEGMENT DWORD USE32 PUBLIC 'CONST'
CONST	ENDS
;	COMDAT ??_C@_0BB@NLAABPAE@NukeDamageRadius?$AA@
CONST	SEGMENT DWORD USE32 PUBLIC 'CONST'
CONST	ENDS
;	COMDAT ??_C@_0L@BDCEENFH@ClimbRatio?$AA@
CONST	SEGMENT DWORD USE32 PUBLIC 'CONST'
CONST	ENDS
;	COMDAT ??_C@_0N@OGHANHBN@HotNoseAngle?$AA@
CONST	SEGMENT DWORD USE32 PUBLIC 'CONST'
CONST	ENDS
;	COMDAT ??_C@_0M@EOBCFMCI@MaxMARNoIdA?$AA@
CONST	SEGMENT DWORD USE32 PUBLIC 'CONST'
CONST	ENDS
;	COMDAT ??_C@_0O@MPBLALFI@MinMARNoId5kA?$AA@
CONST	SEGMENT DWORD USE32 PUBLIC 'CONST'
CONST	ENDS
;	COMDAT ??_C@_0P@JFPPHJDD@MinMARNoId18kA?$AA@
CONST	SEGMENT DWORD USE32 PUBLIC 'CONST'
CONST	ENDS
;	COMDAT ??_C@_0P@NCFPADOD@MinMARNoId28kA?$AA@
CONST	SEGMENT DWORD USE32 PUBLIC 'CONST'
CONST	ENDS
;	COMDAT ??_C@_0M@GFDPAPOL@MaxMARNoIdB?$AA@
CONST	SEGMENT DWORD USE32 PUBLIC 'CONST'
CONST	ENDS
;	COMDAT ??_C@_0O@OEDGFIJL@MinMARNoId5kB?$AA@
CONST	SEGMENT DWORD USE32 PUBLIC 'CONST'
CONST	ENDS
;	COMDAT ??_C@_0P@LONCCKPA@MinMARNoId18kB?$AA@
CONST	SEGMENT DWORD USE32 PUBLIC 'CONST'
CONST	ENDS
;	COMDAT ??_C@_0P@PJHCFACA@MinMARNoId28kB?$AA@
CONST	SEGMENT DWORD USE32 PUBLIC 'CONST'
CONST	ENDS
;	COMDAT ??_C@_0M@OMFHCOEA@MinMARNoIdC?$AA@
CONST	SEGMENT DWORD USE32 PUBLIC 'CONST'
CONST	ENDS
;	COMDAT ??_C@_0BE@NODEDAOM@WaypointBurnerDelta?$AA@
CONST	SEGMENT DWORD USE32 PUBLIC 'CONST'
CONST	ENDS
;	COMDAT ??_C@_0BA@NFKBHKAB@GroundImpactMod?$AA@
CONST	SEGMENT DWORD USE32 PUBLIC 'CONST'
CONST	ENDS
;	COMDAT ??_C@_0BE@LAJDGBGE@BombMissileAltitude?$AA@
CONST	SEGMENT DWORD USE32 PUBLIC 'CONST'
CONST	ENDS
;	COMDAT ??_C@_0M@LBFEPFMD@GMTMaxSpeed?$AA@
CONST	SEGMENT DWORD USE32 PUBLIC 'CONST'
CONST	ENDS
;	COMDAT ??_C@_0M@GGLPEHIC@GMTMinSpeed?$AA@
CONST	SEGMENT DWORD USE32 PUBLIC 'CONST'
CONST	ENDS
;	COMDAT ??_C@_0BD@GDGDFHHB@ReconCameraHalfFOV?$AA@
CONST	SEGMENT DWORD USE32 PUBLIC 'CONST'
CONST	ENDS
;	COMDAT ??_C@_0BC@BEFPPKGH@ReconCameraOffset?$AA@
CONST	SEGMENT DWORD USE32 PUBLIC 'CONST'
CONST	ENDS
;	COMDAT ??_C@_09LHMJEDNK@EXPfactor?$AA@
CONST	SEGMENT DWORD USE32 PUBLIC 'CONST'
CONST	ENDS
;	COMDAT ??_C@_0L@CFJNNFKM@DBS1factor?$AA@
CONST	SEGMENT DWORD USE32 PUBLIC 'CONST'
CONST	ENDS
;	COMDAT ??_C@_0L@KLBCNCEP@DBS2factor?$AA@
CONST	SEGMENT DWORD USE32 PUBLIC 'CONST'
CONST	ENDS
;	COMDAT ??_C@_0M@HCAMNHLA@HUDonlySize?$AA@
CONST	SEGMENT DWORD USE32 PUBLIC 'CONST'
CONST	ENDS
;	COMDAT ??_C@_0M@BBGNEEGP@ePropFactor?$AA@
CONST	SEGMENT DWORD USE32 PUBLIC 'CONST'
CONST	ENDS
;	COMDAT ??_C@_0BC@GENAKAAM@SunPadlockTimeout?$AA@
CONST	SEGMENT DWORD USE32 PUBLIC 'CONST'
CONST	ENDS
;	COMDAT ??_C@_0BG@KOFNPFKA@CarrierStartTolerance?$AA@
CONST	SEGMENT DWORD USE32 PUBLIC 'CONST'
CONST	ENDS
;	COMDAT ??_C@_0N@JBEBILFN@BombTimeStep?$AA@
CONST	SEGMENT DWORD USE32 PUBLIC 'CONST'
CONST	ENDS
;	COMDAT ??_C@_0BD@PEMKEBN@HighDragGravFactor?$AA@
CONST	SEGMENT DWORD USE32 PUBLIC 'CONST'
CONST	ENDS
;	COMDAT ??_C@_0M@PKLMHCDM@TgtDZFactor?$AA@
CONST	SEGMENT DWORD USE32 PUBLIC 'CONST'
CONST	ENDS
;	COMDAT ??_C@_0BJ@FJFHDHFK@SSoffsetManeuverPoints1a?$AA@
CONST	SEGMENT DWORD USE32 PUBLIC 'CONST'
CONST	ENDS
;	COMDAT ??_C@_0BJ@HCHKGEJJ@SSoffsetManeuverPoints1b?$AA@
CONST	SEGMENT DWORD USE32 PUBLIC 'CONST'
CONST	ENDS
;	COMDAT ??_C@_0BJ@FLBBIJAD@SSoffsetManeuverPoints2a?$AA@
CONST	SEGMENT DWORD USE32 PUBLIC 'CONST'
CONST	ENDS
;	COMDAT ??_C@_0BJ@HADMNKMA@SSoffsetManeuverPoints2b?$AA@
CONST	SEGMENT DWORD USE32 PUBLIC 'CONST'
CONST	ENDS
;	COMDAT ??_C@_0BG@KLNGCBDP@PinceManeuverPoints1a?$AA@
CONST	SEGMENT DWORD USE32 PUBLIC 'CONST'
CONST	ENDS
;	COMDAT ??_C@_0BG@IAPLHCPM@PinceManeuverPoints1b?$AA@
CONST	SEGMENT DWORD USE32 PUBLIC 'CONST'
CONST	ENDS
;	COMDAT ??_C@_0BG@KJJAJPGG@PinceManeuverPoints2a?$AA@
CONST	SEGMENT DWORD USE32 PUBLIC 'CONST'
CONST	ENDS
;	COMDAT ??_C@_0BG@ICLNMMKF@PinceManeuverPoints2b?$AA@
CONST	SEGMENT DWORD USE32 PUBLIC 'CONST'
CONST	ENDS
;	COMDAT ??_C@_0BF@NJKJAHLP@LethalRadiusModifier?$AA@
CONST	SEGMENT DWORD USE32 PUBLIC 'CONST'
CONST	ENDS
;	COMDAT ??_C@_0M@NGOBOFMI@RAPDistance?$AA@
CONST	SEGMENT DWORD USE32 PUBLIC 'CONST'
CONST	ENDS
;	COMDAT ??_C@_0N@CJLPELA@MoverVrValue?$AA@
CONST	SEGMENT DWORD USE32 PUBLIC 'CONST'
CONST	ENDS
;	COMDAT ??_C@_0BC@IJAOOMGF@MinBwForOtherData?$AA@
CONST	SEGMENT DWORD USE32 PUBLIC 'CONST'
CONST	ENDS
;	COMDAT ??_C@_0BO@LFGMKNFF@clientbwforupdatesmodifyerMIN?$AA@
CONST	SEGMENT DWORD USE32 PUBLIC 'CONST'
CONST	ENDS
;	COMDAT ??_C@_0BO@KHOHEJDK@clientbwforupdatesmodifyerMAX?$AA@
CONST	SEGMENT DWORD USE32 PUBLIC 'CONST'
CONST	ENDS
;	COMDAT ??_C@_0BD@MALECBAH@ReliablemsgwaitMAX?$AA@
CONST	SEGMENT DWORD USE32 PUBLIC 'CONST'
CONST	ENDS
;	COMDAT ??_C@_0N@NAPLKIBH@FOVIncrement?$AA@
CONST	SEGMENT DWORD USE32 PUBLIC 'CONST'
CONST	ENDS
;	COMDAT ??_C@_0M@JBLAJECP@MavEXPLevel?$AA@
CONST	SEGMENT DWORD USE32 PUBLIC 'CONST'
CONST	ENDS
;	COMDAT ??_C@_0M@LNJDKFOC@MavFOVLevel?$AA@
CONST	SEGMENT DWORD USE32 PUBLIC 'CONST'
CONST	ENDS
;	COMDAT ??_C@_0BF@PGIPJNBK@MouseLookSensitivity?$AA@
CONST	SEGMENT DWORD USE32 PUBLIC 'CONST'
CONST	ENDS
;	COMDAT ??_C@_0L@BCHDPCCN@DefaultFOV?$AA@
CONST	SEGMENT DWORD USE32 PUBLIC 'CONST'
CONST	ENDS
;	COMDAT ??_C@_0O@HFNKOAFG@HSDSymbolSize?$AA@
CONST	SEGMENT DWORD USE32 PUBLIC 'CONST'
CONST	ENDS
;	COMDAT ??_C@_0O@GIOEDCPP@TIRMinimumFOV?$AA@
CONST	SEGMENT DWORD USE32 PUBLIC 'CONST'
CONST	ENDS
;	COMDAT ??_C@_0O@KEOJEJPA@TIRMaximumFOV?$AA@
CONST	SEGMENT DWORD USE32 PUBLIC 'CONST'
CONST	ENDS
;	COMDAT ??_C@_0L@GCHOBIC@MinimumFOV?$AA@
CONST	SEGMENT DWORD USE32 PUBLIC 'CONST'
CONST	ENDS
;	COMDAT ??_C@_0L@MKCKJKIN@MaximumFOV?$AA@
CONST	SEGMENT DWORD USE32 PUBLIC 'CONST'
CONST	ENDS
;	COMDAT ??_C@_09NJJENEAM@NarrowFOV?$AA@
CONST	SEGMENT DWORD USE32 PUBLIC 'CONST'
CONST	ENDS
;	COMDAT ??_C@_0M@GHCKEGJG@WideviewFOV?$AA@
CONST	SEGMENT DWORD USE32 PUBLIC 'CONST'
CONST	ENDS
;	COMDAT ??_C@_0BI@FMEAPPJH@MeanTimeBetweenFailures?$AA@
CONST	SEGMENT DWORD USE32 PUBLIC 'CONST'
CONST	ENDS
;	COMDAT ??_C@_08HCADMPAB@JDAMLift?$AA@
CONST	SEGMENT DWORD USE32 PUBLIC 'CONST'
CONST	ENDS
;	COMDAT ??_C@_0P@GDJJDGLJ@AIJSOWmaxRange?$AA@
CONST	SEGMENT DWORD USE32 PUBLIC 'CONST'
CONST	ENDS
;	COMDAT ??_C@_0N@HMLLBJDB@ButtonScaler?$AA@
CONST	SEGMENT DWORD USE32 PUBLIC 'CONST'
CONST	ENDS
;	COMDAT ??_C@_0O@CKLOIBOL@ButtonZScaler?$AA@
CONST	SEGMENT DWORD USE32 PUBLIC 'CONST'
CONST	ENDS
;	COMDAT ??_C@_0BE@JPHFPFGF@HybridPitThreshold1?$AA@
CONST	SEGMENT DWORD USE32 PUBLIC 'CONST'
CONST	ENDS
;	COMDAT ??_C@_0BE@LEFIKGKG@HybridPitThreshold2?$AA@
CONST	SEGMENT DWORD USE32 PUBLIC 'CONST'
CONST	ENDS
;	COMDAT ??_C@_0BD@IMEOAOCN@TIR2DYawPercentage?$AA@
CONST	SEGMENT DWORD USE32 PUBLIC 'CONST'
CONST	ENDS
;	COMDAT ??_C@_0BF@MAJIPNPO@TIR2DPitchPercentage?$AA@
CONST	SEGMENT DWORD USE32 PUBLIC 'CONST'
CONST	ENDS
;	COMDAT ??_C@_0BD@KOOACBJM@DBS1ScanRateFactor?$AA@
CONST	SEGMENT DWORD USE32 PUBLIC 'CONST'
CONST	ENDS
;	COMDAT ??_C@_0BD@IHCIJFGO@DBS2ScanRateFactor?$AA@
CONST	SEGMENT DWORD USE32 PUBLIC 'CONST'
CONST	ENDS
;	COMDAT ??_C@_0L@BAADMPGH@A2GJDAMAlt?$AA@
CONST	SEGMENT DWORD USE32 PUBLIC 'CONST'
CONST	ENDS
;	COMDAT ??_C@_0L@KCCAIDHE@A2GJSOWAlt?$AA@
CONST	SEGMENT DWORD USE32 PUBLIC 'CONST'
CONST	ENDS
;	COMDAT ??_C@_0L@IMIMIECG@A2GHarmAlt?$AA@
CONST	SEGMENT DWORD USE32 PUBLIC 'CONST'
CONST	ENDS
;	COMDAT ??_C@_09DHOGLBLI@A2GAGMAlt?$AA@
CONST	SEGMENT DWORD USE32 PUBLIC 'CONST'
CONST	ENDS
;	COMDAT ??_C@_09FEGLMJHC@A2GGBUAlt?$AA@
CONST	SEGMENT DWORD USE32 PUBLIC 'CONST'
CONST	ENDS
;	COMDAT ??_C@_0N@IKBNFLCE@A2GDumbHDAlt?$AA@
CONST	SEGMENT DWORD USE32 PUBLIC 'CONST'
CONST	ENDS
;	COMDAT ??_C@_0O@CHIMHFMN@A2GClusterAlt?$AA@
CONST	SEGMENT DWORD USE32 PUBLIC 'CONST'
CONST	ENDS
;	COMDAT ??_C@_0N@BBIMBJDC@A2GDumbLDAlt?$AA@
CONST	SEGMENT DWORD USE32 PUBLIC 'CONST'
CONST	ENDS
;	COMDAT ??_C@_0BC@GIKIJCBL@A2GGenericBombAlt?$AA@
CONST	SEGMENT DWORD USE32 PUBLIC 'CONST'
CONST	ENDS
;	COMDAT ??_C@_0BA@DJABIMNG@A2GGunRocketAlt?$AA@
CONST	SEGMENT DWORD USE32 PUBLIC 'CONST'
CONST	ENDS
;	COMDAT ??_C@_0N@PAIKOJBB@A2GCameraAlt?$AA@
CONST	SEGMENT DWORD USE32 PUBLIC 'CONST'
CONST	ENDS
;	COMDAT ??_C@_0BA@ONACHLMA@TexDetailFactor?$AA@
CONST	SEGMENT DWORD USE32 PUBLIC 'CONST'
CONST	ENDS
;	COMDAT ??_C@_0BE@DPBDKIPN@ACMIAnimRecordTimer?$AA@
CONST	SEGMENT DWORD USE32 PUBLIC 'CONST'
CONST	ENDS
;	COMDAT ??_C@_09PKKNBDAC@dpitStart?$AA@
CONST	SEGMENT DWORD USE32 PUBLIC 'CONST'
CONST	ENDS
;	COMDAT ??_C@_08MNOOJLLD@dpitStop?$AA@
CONST	SEGMENT DWORD USE32 PUBLIC 'CONST'
CONST	ENDS
;	COMDAT ??_C@_09DMIPKIB@TaxiEarly?$AA@
CONST	SEGMENT DWORD USE32 PUBLIC 'CONST'
CONST	ENDS
;	COMDAT ??_C@_0BB@DJHJJKBM@Dyn_Head_TiltMul?$AA@
CONST	SEGMENT DWORD USE32 PUBLIC 'CONST'
CONST	ENDS
;	COMDAT ??_C@_0BF@HPHNHMMB@Dyn_Head_TiltRndGMul?$AA@
CONST	SEGMENT DWORD USE32 PUBLIC 'CONST'
CONST	ENDS
;	COMDAT ??_C@_0BB@MMFGHKOC@Dyn_Head_RollMul?$AA@
CONST	SEGMENT DWORD USE32 PUBLIC 'CONST'
CONST	ENDS
;	COMDAT ??_C@_0BA@GAKKKMJF@Dyn_Head_PanMul?$AA@
CONST	SEGMENT DWORD USE32 PUBLIC 'CONST'
CONST	ENDS
;	COMDAT ??_C@_0BF@DBOCHCNH@Dyn_Head_TiltRateMul?$AA@
CONST	SEGMENT DWORD USE32 PUBLIC 'CONST'
CONST	ENDS
;	COMDAT ??_C@_0BG@BGGOJMCN@Dyn_Head_TiltGRateMul?$AA@
CONST	SEGMENT DWORD USE32 PUBLIC 'CONST'
CONST	ENDS
;	COMDAT ??_C@_0BC@HJLMHIJP@Dyn_Head_RollRate?$AA@
CONST	SEGMENT DWORD USE32 PUBLIC 'CONST'
CONST	ENDS
;	COMDAT ??_C@_0BB@LHHBGANG@Dyn_Head_PanRate?$AA@
CONST	SEGMENT DWORD USE32 PUBLIC 'CONST'
CONST	ENDS
;	COMDAT ??_C@_0BB@BIPFDKEL@PilotActInterval?$AA@
CONST	SEGMENT DWORD USE32 PUBLIC 'CONST'
CONST	ENDS
;	COMDAT ??_C@_0BC@KOBEG@PilotHeadMoveRate?$AA@
CONST	SEGMENT DWORD USE32 PUBLIC 'CONST'
CONST	ENDS
;	COMDAT ??_C@_0L@HAGHJODN@3DHeadTilt?$AA@
CONST	SEGMENT DWORD USE32 PUBLIC 'CONST'
CONST	ENDS
;	COMDAT ??_C@_08IKLJBNLF@3DPitFOV?$AA@
CONST	SEGMENT DWORD USE32 PUBLIC 'CONST'
CONST	ENDS
;	COMDAT ??_C@_02CBLDBPFN@?1?1?$AA@
CONST	SEGMENT DWORD USE32 PUBLIC 'CONST'
CONST	ENDS
;	COMDAT ??_C@_0M@DNHMOHFM@set?5?$CFs?5?$CC?$CFs?$CC?$AA@
CONST	SEGMENT DWORD USE32 PUBLIC 'CONST'
CONST	ENDS
;	COMDAT ??_C@_03BLLIKMOB@g_s?$AA@
CONST	SEGMENT DWORD USE32 PUBLIC 'CONST'
CONST	ENDS
;	COMDAT ??_C@_01BJJEKLCA@?$CC?$AA@
CONST	SEGMENT DWORD USE32 PUBLIC 'CONST'
CONST	ENDS
;	COMDAT ??_C@_09LEFICCIB@set?5?$CFs?5?$CFf?$AA@
CONST	SEGMENT DWORD USE32 PUBLIC 'CONST'
CONST	ENDS
;	COMDAT ??_C@_03CMANEKPF@g_f?$AA@
CONST	SEGMENT DWORD USE32 PUBLIC 'CONST'
CONST	ENDS
;	COMDAT ??_C@_09IGGOEAAD@set?5?$CFs?5?$CFd?$AA@
CONST	SEGMENT DWORD USE32 PUBLIC 'CONST'
CONST	ENDS
;	COMDAT ??_C@_03EIGBIPPB@g_b?$AA@
CONST	SEGMENT DWORD USE32 PUBLIC 'CONST'
CONST	ENDS
;	COMDAT ??_C@_03OENEMAPN@g_n?$AA@
CONST	SEGMENT DWORD USE32 PUBLIC 'CONST'
CONST	ENDS
;	COMDAT ??_C@_0P@DBIJLJDH@?$CFs?2FFViper?4cfg?$AA@
CONST	SEGMENT DWORD USE32 PUBLIC 'CONST'
CONST	ENDS
;	COMDAT ??_C@_01KDCPPGHE@r?$AA@
CONST	SEGMENT DWORD USE32 PUBLIC 'CONST'
CONST	ENDS
;	COMDAT ??_C@_0M@CDPDOELO@FFViper?4cfg?$AA@
CONST	SEGMENT DWORD USE32 PUBLIC 'CONST'
CONST	ENDS
;	COMDAT ??_C@_0BC@IEDJFDGD@FFViperServer?4cfg?$AA@
CONST	SEGMENT DWORD USE32 PUBLIC 'CONST'
CONST	ENDS
;	COMDAT _IsEqualGUID
_TEXT	SEGMENT PARA USE32 PUBLIC 'CODE'
_TEXT	ENDS
;	COMDAT _==
_TEXT	SEGMENT PARA USE32 PUBLIC 'CODE'
_TEXT	ENDS
;	COMDAT ?ParseFalcon4Config@@YAXPAU_iobuf@@@Z
_TEXT	SEGMENT PARA USE32 PUBLIC 'CODE'
_TEXT	ENDS
;	COMDAT ?ReadFalcon4Config@@YAXXZ
_TEXT	SEGMENT PARA USE32 PUBLIC 'CODE'
_TEXT	ENDS
;	COMDAT ?CheckID@?$ConfigOption@_N@@QAE_NPAD@Z
_TEXT	SEGMENT PARA USE32 PUBLIC 'CODE'
_TEXT	ENDS
;	COMDAT ?CheckID@?$ConfigOption@H@@QAE_NPAD@Z
_TEXT	SEGMENT PARA USE32 PUBLIC 'CODE'
_TEXT	ENDS
;	COMDAT ?CheckID@?$ConfigOption@D@@QAE_NPAD@Z
_TEXT	SEGMENT PARA USE32 PUBLIC 'CODE'
_TEXT	ENDS
;	COMDAT ?CheckID@?$ConfigOption@M@@QAE_NPAD@Z
_TEXT	SEGMENT PARA USE32 PUBLIC 'CODE'
_TEXT	ENDS
sxdata	SEGMENT DWORD USE32 'SXDATA'
sxdata	ENDS
FLAT	GROUP _DATA, CONST, _BSS
	ASSUME	CS: FLAT, DS: FLAT, SS: FLAT
endif

INCLUDELIB LIBCMT
INCLUDELIB OLDNAMES

PUBLIC	??_C@_0BB@PLIBOKCI@RealisticMavTime?$AA@	; `string'
PUBLIC	??_C@_0N@IMJCLHBO@newAMRAAMdlz?$AA@		; `string'
PUBLIC	??_C@_0BG@IBCBAPOO@EnableDisplacementCam?$AA@	; `string'
PUBLIC	??_C@_0P@ILOPFFFD@AntElevKnobFix?$AA@		; `string'
PUBLIC	??_C@_0BD@IFOBHKPB@PilotEntertainment?$AA@	; `string'
PUBLIC	??_C@_0M@PAHFHAJ@RollInertia?$AA@		; `string'
PUBLIC	??_C@_0BB@LHKHGDJK@ACMIRecordMsgOff?$AA@	; `string'
PUBLIC	??_C@_0BE@FEADJIHO@UseAnalogIdleCutoff?$AA@	; `string'
PUBLIC	??_C@_0BD@FOGMLOLH@WeaponPickleDelays?$AA@	; `string'
PUBLIC	??_C@_0L@DOGDBHOJ@HsdStptFix?$AA@		; `string'
PUBLIC	??_C@_0L@DHDGAL@F4CommsMTU?$AA@			; `string'
PUBLIC	??_C@_0M@FOFODPOK@UseNew3dpit?$AA@		; `string'
PUBLIC	??_C@_0N@IICFPPI@StartIn3Dpit?$AA@		; `string'
PUBLIC	??_C@_0BA@CIIDEAB@UseNewSmoothing?$AA@		; `string'
PUBLIC	??_C@_0BC@OOAJHEFL@DisplayAxisValues?$AA@	; `string'
PUBLIC	??_C@_0BP@JECNDJKC@WeaponLaunchUsesDrawPointerPos?$AA@ ; `string'
PUBLIC	??_C@_0BA@MOKNEEC@WeaponStepToGun?$AA@		; `string'
PUBLIC	??_C@_04KIBBIEFM@Turb?$AA@			; `string'
PUBLIC	??_C@_0P@LNEMBMEJ@SoundSonicBoom?$AA@		; `string'
PUBLIC	??_C@_0BD@FKGNBI@DisableCommsBorder?$AA@	; `string'
PUBLIC	??_C@_08OMPBCCDL@EcmOnHud?$AA@			; `string'
PUBLIC	??_C@_0L@CCPAPEIP@BrakeOnHud?$AA@		; `string'
PUBLIC	??_C@_09MEFGCLMD@GearOnHud?$AA@			; `string'
PUBLIC	??_C@_0P@PIGHAJFO@WakeTurbulence?$AA@		; `string'
PUBLIC	??_C@_0BD@ELLMAKPG@DrawWakeTurbulence?$AA@	; `string'
PUBLIC	??_C@_0N@KJGHMHPH@OldDustTrail?$AA@		; `string'
PUBLIC	??_C@_0M@IADPJOPC@HearThunder?$AA@		; `string'
PUBLIC	??_C@_07BNPFHFPE@HighSFX?$AA@			; `string'
PUBLIC	??_C@_0L@JNAKJINM@AllHaveIFF?$AA@		; `string'
PUBLIC	??_C@_08EIPMJHIH@UseRC135?$AA@			; `string'
PUBLIC	??_C@_05PMLDJAMG@FFDBC?$AA@			; `string'
PUBLIC	??_C@_0BA@FDKAMOEE@ExtViewOnGround?$AA@		; `string'
PUBLIC	??_C@_0O@MHKFAEHF@UnlimitedAmmo?$AA@		; `string'
PUBLIC	??_C@_0O@CHHOKHGC@AnimPilotHead?$AA@		; `string'
PUBLIC	??_C@_0N@JEEMHINL@ThrottleMode?$AA@		; `string'
PUBLIC	??_C@_0P@PKPJCMAG@PadlockBoxSize?$AA@		; `string'
PUBLIC	??_C@_0M@OIEGAJL@PadlockMode?$AA@		; `string'
PUBLIC	??_C@_0BG@DGMIDNBE@NumDefaultHatSwitches?$AA@	; `string'
PUBLIC	??_C@_0P@HBJABLEG@NearLabelLimit?$AA@		; `string'
PUBLIC	??_C@_0BO@NFAKIFJA@percentage_available_aircraft?$AA@ ; `string'
PUBLIC	??_C@_0BL@HHNOONGM@minimum_available_aircraft?$AA@ ; `string'
PUBLIC	??_C@_0BB@GLGCMOJA@MasterServerPort?$AA@	; `string'
PUBLIC	??_C@_0P@KHAPOGMN@MaxVertexSpace?$AA@		; `string'
PUBLIC	??_C@_0BC@OJMFKPAE@FlightVisualBonus?$AA@	; `string'
PUBLIC	??_C@_0P@BHMGPDNL@RelocationWait?$AA@		; `string'
PUBLIC	??_C@_0BB@HDONENA@LoadoutTimeLimit?$AA@		; `string'
PUBLIC	??_C@_04FEDKBIAK@Year?$AA@			; `string'
PUBLIC	??_C@_03HNCFIMCB@Day?$AA@			; `string'
PUBLIC	??_C@_0N@IKEBFFGA@AirbaseReloc?$AA@		; `string'
PUBLIC	??_C@_0N@MHCLNKMJ@NoPlayerPlay?$AA@		; `string'
PUBLIC	??_C@_09FGOEEEEK@DeagTimer?$AA@			; `string'
PUBLIC	??_C@_09HMFELFOF@ReagTimer?$AA@			; `string'
PUBLIC	??_C@_08FPMLDCGP@RNESpeed?$AA@			; `string'
PUBLIC	??_C@_0BC@GIFJIKNA@TargetSpotTimeout?$AA@	; `string'
PUBLIC	??_C@_0N@LEGJNLKP@MaxUIRefresh?$AA@		; `string'
PUBLIC	??_C@_0BB@OOABCAOK@UnidentifiedInUI?$AA@	; `string'
PUBLIC	??_C@_0BF@LHIAOEBH@lookAroundWaterTiles?$AA@	; `string'
PUBLIC	??_C@_0BD@GBJHLJHD@FFEffectAutoCenter?$AA@	; `string'
PUBLIC	??_C@_0M@IJAJMFNL@MPStartTime?$AA@		; `string'
PUBLIC	??_C@_0BC@BEKMPFMH@LowestSkillForGCI?$AA@	; `string'
PUBLIC	??_C@_0BG@OBDGHLPB@AIVisualRetentionTime?$AA@	; `string'
PUBLIC	??_C@_0BH@OEGFBPFK@AIVisualRetentionSkill?$AA@	; `string'
PUBLIC	??_C@_0BH@FCDDJIHB@MaxSimTimeAcceleration?$AA@	; `string'
PUBLIC	??_C@_0BA@EJKNBDPB@LowDetailFactor?$AA@		; `string'
PUBLIC	??_C@_0BB@KJMKAMHO@NoWPRefuelNeeded?$AA@	; `string'
PUBLIC	??_C@_0N@GJAHMAJ@AirbaseCheck?$AA@		; `string'
PUBLIC	??_C@_0P@PLNKDCEP@FogRenderState?$AA@		; `string'
PUBLIC	??_C@_0L@GBPCGGLI@MissileFix?$AA@		; `string'
PUBLIC	??_C@_0BB@PCHAINIF@SkipWaypointTime?$AA@	; `string'
PUBLIC	??_C@_0BB@OGAGDFIL@GroundAttackTime?$AA@	; `string'
PUBLIC	??_C@_0P@BFLIKJHI@SeadAttackTime?$AA@		; `string'
PUBLIC	??_C@_0BB@KDGPFNKD@StrikeAttackTime?$AA@	; `string'
PUBLIC	??_C@_0O@GKFNPKAD@CASAttackTime?$AA@		; `string'
PUBLIC	??_C@_0BF@FELAILAJ@AIshootLookShootTime?$AA@	; `string'
PUBLIC	??_C@_06OKKPCIIP@GfxFix?$AA@			; `string'
PUBLIC	??_C@_0BA@OMKLHKAN@ATCTaxiOrderFix?$AA@		; `string'
PUBLIC	??_C@_0BA@GMGKOKBG@DFRegenerateFix?$AA@		; `string'
PUBLIC	??_C@_0P@LHGNNLM@BWMaxDeltaTime?$AA@		; `string'
PUBLIC	??_C@_0BB@NPHLGFKD@BWCheckDeltaTime?$AA@	; `string'
PUBLIC	??_C@_0P@CEAGODDN@VUMaxDeltaTime?$AA@		; `string'
PUBLIC	??_C@_0BH@DOIILFGN@ACMIOptionsPopupHiResX?$AA@	; `string'
PUBLIC	??_C@_0BH@CHJDIECM@ACMIOptionsPopupHiResY?$AA@	; `string'
PUBLIC	??_C@_0BI@KDMPCIJN@ACMIOptionsPopupLowResX?$AA@	; `string'
PUBLIC	??_C@_0BI@LKNEBJNM@ACMIOptionsPopupLowResY?$AA@	; `string'
PUBLIC	??_C@_0BC@MDEFACBF@ChooseBullseyeFix?$AA@	; `string'
PUBLIC	??_C@_0P@MDOLEFIA@SoundSwitchFix?$AA@		; `string'
PUBLIC	??_C@_0M@GJLEKKKF@PrintToFile?$AA@		; `string'
PUBLIC	??_C@_0P@CEFOJMIA@SessionTimeout?$AA@		; `string'
PUBLIC	??_C@_0BC@GCKILAAB@SessionUpdateRate?$AA@	; `string'
PUBLIC	??_C@_0BF@PGHGLIAA@MaxInterceptDistance?$AA@	; `string'
PUBLIC	??_C@_0BC@POKKFCBC@TrackIRSampleFreq?$AA@	; `string'
PUBLIC	??_C@_0O@FGJJJKBN@SoundUpdatems?$AA@		; `string'
PUBLIC	??_C@_0BC@OMLJLFBC@NumberOfSubTitles?$AA@	; `string'
PUBLIC	??_C@_0M@DAGHONMO@SubTitleTTL?$AA@		; `string'
PUBLIC	??_C@_0BB@PNDBKKFB@WinAmpInitVolume?$AA@	; `string'
PUBLIC	??_C@_0O@NPKMGOBK@DynamicVoices?$AA@		; `string'
PUBLIC	??_C@_0O@NCDBNCFB@IdleCutoffPad?$AA@		; `string'
PUBLIC	??_C@_0BA@DJKECLPD@SaturationSmall?$AA@		; `string'
PUBLIC	??_C@_0BB@MDKFJACE@SaturationMedium?$AA@	; `string'
PUBLIC	??_C@_0BA@JBOPNKGF@SaturationLarge?$AA@		; `string'
PUBLIC	??_C@_0O@KIIOJHIB@DeadzoneSmall?$AA@		; `string'
PUBLIC	??_C@_0P@HNDPKKII@DeadzoneMedium?$AA@		; `string'
PUBLIC	??_C@_0O@MFGGBH@DeadzoneLarge?$AA@		; `string'
PUBLIC	??_C@_0N@PKJOOHMG@DeadzoneHuge?$AA@		; `string'
PUBLIC	??_C@_0BB@DPPDNALN@MouseLookSensMax?$AA@	; `string'
PUBLIC	??_C@_0BB@CNHIDENC@MouseLookSensMin?$AA@	; `string'
PUBLIC	??_C@_0BC@GBFOMJAG@MouseWheelSensMax?$AA@	; `string'
PUBLIC	??_C@_0BC@HDNFCNGJ@MouseWheelSensMin?$AA@	; `string'
PUBLIC	??_C@_0O@NFJLJAKC@KeyPOVSensMax?$AA@		; `string'
PUBLIC	??_C@_0O@MHBAHEMN@KeyPOVSensMin?$AA@		; `string'
PUBLIC	??_C@_0P@GNKPBIOL@3DHeadPanRange?$AA@		; `string'
PUBLIC	??_C@_0BA@NHGHLIF@3DHeadTiltRange?$AA@		; `string'
PUBLIC	??_C@_07PDCPCPDK@6DOFTIR?$AA@			; `string'
PUBLIC	??_C@_0O@DLBHIEAA@NewFPSCounter?$AA@		; `string'
PUBLIC	??_C@_0BH@PNFFGKBC@ForceCockpitResolution?$AA@	; `string'
PUBLIC	??_C@_0BA@HOAINIJF@Show2DPitErrors?$AA@		; `string'
PUBLIC	??_C@_08JDFPFCBJ@MiniDump?$AA@			; `string'
PUBLIC	??_C@_0BD@JKCPJMDO@HybridPitModeDelay?$AA@	; `string'
PUBLIC	??_C@_0BF@BADABAHI@MPPowerXmitThreshold?$AA@	; `string'
PUBLIC	??_C@_0P@HIPEPHEP@TaxiLaunchTime?$AA@		; `string'
PUBLIC	??_C@_0BA@LMPMHGII@ChatterInterval?$AA@		; `string'
PUBLIC	??_C@_0N@NBNJFGAM@SfxLODCutoff?$AA@		; `string'
PUBLIC	??_C@_0BB@NKPNPJBI@SfxLODDistCutoff?$AA@	; `string'
PUBLIC	??_C@_0BA@GNKPEALA@SfxLODTotCutoff?$AA@		; `string'
PUBLIC	??_C@_0BA@PICMABDM@PSPurgeInterval?$AA@		; `string'
PUBLIC	??_C@_09OEMGMJFE@PSKillFPS?$AA@			; `string'
PUBLIC	??_C@_0P@KDJJLDGL@CriticalPullup?$AA@		; `string'
PUBLIC	??_C@_0BB@BAMOFHBN@MasterServerName?$AA@	; `string'
PUBLIC	??_C@_0L@FFDIDHBB@ServerName?$AA@		; `string'
PUBLIC	??_C@_0P@MHEEONCC@ServerLocation?$AA@		; `string'
PUBLIC	??_C@_0M@KBDHJKCN@ServerAdmin?$AA@		; `string'
PUBLIC	??_C@_0BB@EOHHPIIJ@ServerAdminEmail?$AA@	; `string'
PUBLIC	??_C@_0M@FFMOFINI@VoiceHostIP?$AA@		; `string'
PUBLIC	??_C@_09MJLNAICC@WorldName?$AA@			; `string'
PUBLIC	??_C@_0BB@ODGOONIN@ScrollUpFunction?$AA@	; `string'
PUBLIC	??_C@_0BD@KCPLNEFD@ScrollDownFunction?$AA@	; `string'
PUBLIC	??_C@_0BF@ENPLHFJO@MiddleButtonFunction?$AA@	; `string'
PUBLIC	??_C@_0P@KLPABIGK@RadioflightCol?$AA@		; `string'
PUBLIC	??_C@_0BC@BKNHMKDB@RadiotoPackageCol?$AA@	; `string'
PUBLIC	??_C@_0BG@BFOAJCCP@RadioToFromPackageCol?$AA@	; `string'
PUBLIC	??_C@_0N@MNAFDBEN@RadioTeamCol?$AA@		; `string'
PUBLIC	??_C@_0BC@NLHCNFHA@RadioProximityCol?$AA@	; `string'
PUBLIC	??_C@_0O@GPIMDEIH@RadioWorldCol?$AA@		; `string'
PUBLIC	??_C@_0O@MMJGBEAP@RadioTowerCol?$AA@		; `string'
PUBLIC	??_C@_0BB@DJIHGFP@RadioStandardCol?$AA@		; `string'
PUBLIC	??_C@_0L@ONEGGIPE@MipLodBias?$AA@		; `string'
PUBLIC	??_C@_0P@GOJJLPFA@CloudMinHeight?$AA@		; `string'
PUBLIC	??_C@_0L@GCODLODD@RadarScale?$AA@		; `string'
PUBLIC	??_C@_0M@DFLBEBEO@CursorSpeed?$AA@		; `string'
PUBLIC	??_C@_0BA@FMLGGGHE@MinCloudWeather?$AA@		; `string'
PUBLIC	??_C@_0BF@MPFEJIJO@CloudThicknessFactor?$AA@	; `string'
PUBLIC	??_C@_0BD@JCPAPJKM@DragDilutionFactor?$AA@	; `string'
PUBLIC	??_C@_0L@CHNOPJNO@dwPorthost?$AA@		; `string'
PUBLIC	??_C@_0N@JEKGEGKC@dwPortclient?$AA@		; `string'
PUBLIC	??_C@_0BI@DFMLHJAO@FormationBurnerDistance?$AA@	; `string'
PUBLIC	??_C@_0BF@FFOFDJFN@PadlockBreakDistance?$AA@	; `string'
PUBLIC	??_C@_0O@PENCKKIE@AFRudderRight?$AA@		; `string'
PUBLIC	??_C@_0N@CDMEMBAC@AFRudderLeft?$AA@		; `string'
PUBLIC	??_C@_0P@HGBEIHPP@AFThrottleDown?$AA@		; `string'
PUBLIC	??_C@_0N@POBODBK@AFThrottleUp?$AA@		; `string'
PUBLIC	??_C@_0O@IFGNNACM@AFAileronLeft?$AA@		; `string'
PUBLIC	??_C@_0P@CIKCAOFK@AFAileronRight?$AA@		; `string'
PUBLIC	??_C@_0P@IJJJJHDF@AFElevatorDown?$AA@		; `string'
PUBLIC	??_C@_0N@HNKPPLEM@AFElevatorUp?$AA@		; `string'
PUBLIC	??_C@_0BA@KJIPIPMF@rollStickOffset?$AA@		; `string'
PUBLIC	??_C@_0BB@FICIAJKM@pitchStickOffset?$AA@	; `string'
PUBLIC	??_C@_0N@FABDEEJB@rudderOffset?$AA@		; `string'
PUBLIC	??_C@_0BG@LEDDHCJK@VisualNormalizeFactor?$AA@	; `string'
PUBLIC	??_C@_0M@HMHGGILP@RecoveryAOA?$AA@		; `string'
PUBLIC	??_C@_0BL@DEOMNHOC@clientbwforupdatesmodifyer?$AA@ ; `string'
PUBLIC	??_C@_0BJ@GKGMNJMA@hostbwforupdatesmodifyer?$AA@ ; `string'
PUBLIC	??_C@_0BA@KOOBOEEN@MfdTransparency?$AA@		; `string'
PUBLIC	??_C@_06NLNJGJLD@MfdRed?$AA@			; `string'
PUBLIC	??_C@_07EKDFLFPC@MfdBlue?$AA@			; `string'
PUBLIC	??_C@_08HHIDAPGD@MfdGreen?$AA@			; `string'
PUBLIC	??_C@_0L@LBBFEKPB@Mfd_p_Size?$AA@		; `string'
PUBLIC	??_C@_0L@KHPPPOPB@PullupTime?$AA@		; `string'
PUBLIC	??_C@_0BA@LLGLGMPB@GALookAheadTime?$AA@		; `string'
PUBLIC	??_C@_08ODNOBHDK@AIMinAlt?$AA@			; `string'
PUBLIC	??_C@_0L@NKEPIKEE@AIMinWPAlt?$AA@		; `string'
PUBLIC	??_C@_0M@IFINGKIN@GApStickFac?$AA@		; `string'
PUBLIC	??_C@_0P@OFAJLNCA@AIHarmMaxRange?$AA@		; `string'
PUBLIC	??_C@_0P@OBGILEBK@AIJSOWMaxRange?$AA@		; `string'
PUBLIC	??_C@_0O@KJHCKPDO@AGFlyoutRange?$AA@		; `string'
PUBLIC	??_C@_0BC@NAAFJGGM@AGSlowFlyoutRange?$AA@	; `string'
PUBLIC	??_C@_0BB@BCCCLNHN@AGSlowMoverSpeed?$AA@	; `string'
PUBLIC	??_C@_0O@OAAGLKIA@AIRefuelRange?$AA@		; `string'
PUBLIC	??_C@_0M@MCKGGKKA@IdentFactor?$AA@		; `string'
PUBLIC	??_C@_0BJ@KNLCJMEH@AIDropStoreLauncherRange?$AA@ ; `string'
PUBLIC	??_C@_0BD@MECFIJPF@BiasFactorForFlaks?$AA@	; `string'
PUBLIC	??_C@_0BF@DKGNKGPO@TracerAccuracyFactor?$AA@	; `string'
PUBLIC	??_C@_0N@OBNPGPBG@TankerRStick?$AA@		; `string'
PUBLIC	??_C@_0N@HGEAHODP@TankerPStick?$AA@		; `string'
PUBLIC	??_C@_0BC@GLLJDCDL@TankerTrackFactor?$AA@	; `string'
PUBLIC	??_C@_0BG@CFPOCOIM@TankerHeadsupDistance?$AA@	; `string'
PUBLIC	??_C@_0BF@KPDHEJEF@TankerBackupDistance?$AA@	; `string'
PUBLIC	??_C@_0BH@KJIDKIDP@HeadingStabilizeFactor?$AA@	; `string'
PUBLIC	??_C@_0BC@EMJHNOBD@RocketPitchFactor?$AA@	; `string'
PUBLIC	??_C@_0BA@KENKLNKB@RocketPitchCorr?$AA@		; `string'
PUBLIC	??_C@_0N@EHFPFCKH@FuelBaseProp?$AA@		; `string'
PUBLIC	??_C@_0N@DJALJPLO@FuelMultProp?$AA@		; `string'
PUBLIC	??_C@_0N@BDNNDFKA@FuelTimeStep?$AA@		; `string'
PUBLIC	??_C@_0L@PNHJNCFN@FuelVtClip?$AA@		; `string'
PUBLIC	??_C@_0O@HFBIHDPF@FuelVtDotMult?$AA@		; `string'
PUBLIC	??_C@_0O@LLEELFDJ@AIRefuelSpeed?$AA@		; `string'
PUBLIC	??_C@_0BM@NNJBGOBI@SearchSimTargetFromRangeSqr?$AA@ ; `string'
PUBLIC	??_C@_0BD@ENPPPAKF@NukeStrengthFactor?$AA@	; `string'
PUBLIC	??_C@_0O@KONPLMCF@NukeDamageMod?$AA@		; `string'
PUBLIC	??_C@_0BB@NLAABPAE@NukeDamageRadius?$AA@	; `string'
PUBLIC	??_C@_0L@BDCEENFH@ClimbRatio?$AA@		; `string'
PUBLIC	??_C@_0N@OGHANHBN@HotNoseAngle?$AA@		; `string'
PUBLIC	??_C@_0M@EOBCFMCI@MaxMARNoIdA?$AA@		; `string'
PUBLIC	??_C@_0O@MPBLALFI@MinMARNoId5kA?$AA@		; `string'
PUBLIC	??_C@_0P@JFPPHJDD@MinMARNoId18kA?$AA@		; `string'
PUBLIC	??_C@_0P@NCFPADOD@MinMARNoId28kA?$AA@		; `string'
PUBLIC	??_C@_0M@GFDPAPOL@MaxMARNoIdB?$AA@		; `string'
PUBLIC	??_C@_0O@OEDGFIJL@MinMARNoId5kB?$AA@		; `string'
PUBLIC	??_C@_0P@LONCCKPA@MinMARNoId18kB?$AA@		; `string'
PUBLIC	??_C@_0P@PJHCFACA@MinMARNoId28kB?$AA@		; `string'
PUBLIC	??_C@_0M@OMFHCOEA@MinMARNoIdC?$AA@		; `string'
PUBLIC	??_C@_0BE@NODEDAOM@WaypointBurnerDelta?$AA@	; `string'
PUBLIC	??_C@_0BA@NFKBHKAB@GroundImpactMod?$AA@		; `string'
PUBLIC	??_C@_0BE@LAJDGBGE@BombMissileAltitude?$AA@	; `string'
PUBLIC	??_C@_0M@LBFEPFMD@GMTMaxSpeed?$AA@		; `string'
PUBLIC	??_C@_0M@GGLPEHIC@GMTMinSpeed?$AA@		; `string'
PUBLIC	??_C@_0BD@GDGDFHHB@ReconCameraHalfFOV?$AA@	; `string'
PUBLIC	??_C@_0BC@BEFPPKGH@ReconCameraOffset?$AA@	; `string'
PUBLIC	??_C@_09LHMJEDNK@EXPfactor?$AA@			; `string'
PUBLIC	??_C@_0L@CFJNNFKM@DBS1factor?$AA@		; `string'
PUBLIC	??_C@_0L@KLBCNCEP@DBS2factor?$AA@		; `string'
PUBLIC	??_C@_0M@HCAMNHLA@HUDonlySize?$AA@		; `string'
PUBLIC	??_C@_0M@BBGNEEGP@ePropFactor?$AA@		; `string'
PUBLIC	??_C@_0BC@GENAKAAM@SunPadlockTimeout?$AA@	; `string'
PUBLIC	??_C@_0BG@KOFNPFKA@CarrierStartTolerance?$AA@	; `string'
PUBLIC	??_C@_0N@JBEBILFN@BombTimeStep?$AA@		; `string'
PUBLIC	??_C@_0BD@PEMKEBN@HighDragGravFactor?$AA@	; `string'
PUBLIC	??_C@_0M@PKLMHCDM@TgtDZFactor?$AA@		; `string'
PUBLIC	??_C@_0BJ@FJFHDHFK@SSoffsetManeuverPoints1a?$AA@ ; `string'
PUBLIC	??_C@_0BJ@HCHKGEJJ@SSoffsetManeuverPoints1b?$AA@ ; `string'
PUBLIC	??_C@_0BJ@FLBBIJAD@SSoffsetManeuverPoints2a?$AA@ ; `string'
PUBLIC	??_C@_0BJ@HADMNKMA@SSoffsetManeuverPoints2b?$AA@ ; `string'
PUBLIC	??_C@_0BG@KLNGCBDP@PinceManeuverPoints1a?$AA@	; `string'
PUBLIC	??_C@_0BG@IAPLHCPM@PinceManeuverPoints1b?$AA@	; `string'
PUBLIC	??_C@_0BG@KJJAJPGG@PinceManeuverPoints2a?$AA@	; `string'
PUBLIC	??_C@_0BG@ICLNMMKF@PinceManeuverPoints2b?$AA@	; `string'
PUBLIC	??_C@_0BF@NJKJAHLP@LethalRadiusModifier?$AA@	; `string'
PUBLIC	??_C@_0M@NGOBOFMI@RAPDistance?$AA@		; `string'
PUBLIC	??_C@_0N@CJLPELA@MoverVrValue?$AA@		; `string'
PUBLIC	??_C@_0BC@IJAOOMGF@MinBwForOtherData?$AA@	; `string'
PUBLIC	??_C@_0BO@LFGMKNFF@clientbwforupdatesmodifyerMIN?$AA@ ; `string'
PUBLIC	??_C@_0BO@KHOHEJDK@clientbwforupdatesmodifyerMAX?$AA@ ; `string'
PUBLIC	??_C@_0BD@MALECBAH@ReliablemsgwaitMAX?$AA@	; `string'
PUBLIC	??_C@_0N@NAPLKIBH@FOVIncrement?$AA@		; `string'
PUBLIC	??_C@_0M@JBLAJECP@MavEXPLevel?$AA@		; `string'
PUBLIC	??_C@_0M@LNJDKFOC@MavFOVLevel?$AA@		; `string'
PUBLIC	??_C@_0BF@PGIPJNBK@MouseLookSensitivity?$AA@	; `string'
PUBLIC	??_C@_0L@BCHDPCCN@DefaultFOV?$AA@		; `string'
PUBLIC	??_C@_0O@HFNKOAFG@HSDSymbolSize?$AA@		; `string'
PUBLIC	??_C@_0O@GIOEDCPP@TIRMinimumFOV?$AA@		; `string'
PUBLIC	??_C@_0O@KEOJEJPA@TIRMaximumFOV?$AA@		; `string'
PUBLIC	??_C@_0L@GCHOBIC@MinimumFOV?$AA@		; `string'
PUBLIC	??_C@_0L@MKCKJKIN@MaximumFOV?$AA@		; `string'
PUBLIC	??_C@_09NJJENEAM@NarrowFOV?$AA@			; `string'
PUBLIC	??_C@_0M@GHCKEGJG@WideviewFOV?$AA@		; `string'
PUBLIC	??_C@_0BI@FMEAPPJH@MeanTimeBetweenFailures?$AA@	; `string'
PUBLIC	??_C@_08HCADMPAB@JDAMLift?$AA@			; `string'
PUBLIC	??_C@_0P@GDJJDGLJ@AIJSOWmaxRange?$AA@		; `string'
PUBLIC	??_C@_0N@HMLLBJDB@ButtonScaler?$AA@		; `string'
PUBLIC	??_C@_0O@CKLOIBOL@ButtonZScaler?$AA@		; `string'
PUBLIC	??_C@_0BE@JPHFPFGF@HybridPitThreshold1?$AA@	; `string'
PUBLIC	??_C@_0BE@LEFIKGKG@HybridPitThreshold2?$AA@	; `string'
PUBLIC	??_C@_0BD@IMEOAOCN@TIR2DYawPercentage?$AA@	; `string'
PUBLIC	??_C@_0BF@MAJIPNPO@TIR2DPitchPercentage?$AA@	; `string'
PUBLIC	??_C@_0BD@KOOACBJM@DBS1ScanRateFactor?$AA@	; `string'
PUBLIC	??_C@_0BD@IHCIJFGO@DBS2ScanRateFactor?$AA@	; `string'
PUBLIC	??_C@_0L@BAADMPGH@A2GJDAMAlt?$AA@		; `string'
PUBLIC	??_C@_0L@KCCAIDHE@A2GJSOWAlt?$AA@		; `string'
PUBLIC	??_C@_0L@IMIMIECG@A2GHarmAlt?$AA@		; `string'
PUBLIC	??_C@_09DHOGLBLI@A2GAGMAlt?$AA@			; `string'
PUBLIC	??_C@_09FEGLMJHC@A2GGBUAlt?$AA@			; `string'
PUBLIC	??_C@_0N@IKBNFLCE@A2GDumbHDAlt?$AA@		; `string'
PUBLIC	??_C@_0O@CHIMHFMN@A2GClusterAlt?$AA@		; `string'
PUBLIC	??_C@_0N@BBIMBJDC@A2GDumbLDAlt?$AA@		; `string'
PUBLIC	??_C@_0BC@GIKIJCBL@A2GGenericBombAlt?$AA@	; `string'
PUBLIC	??_C@_0BA@DJABIMNG@A2GGunRocketAlt?$AA@		; `string'
PUBLIC	??_C@_0N@PAIKOJBB@A2GCameraAlt?$AA@		; `string'
PUBLIC	??_C@_0BA@ONACHLMA@TexDetailFactor?$AA@		; `string'
PUBLIC	??_C@_0BE@DPBDKIPN@ACMIAnimRecordTimer?$AA@	; `string'
PUBLIC	??_C@_09PKKNBDAC@dpitStart?$AA@			; `string'
PUBLIC	??_C@_08MNOOJLLD@dpitStop?$AA@			; `string'
PUBLIC	??_C@_09DMIPKIB@TaxiEarly?$AA@			; `string'
PUBLIC	??_C@_0BB@DJHJJKBM@Dyn_Head_TiltMul?$AA@	; `string'
PUBLIC	??_C@_0BF@HPHNHMMB@Dyn_Head_TiltRndGMul?$AA@	; `string'
PUBLIC	??_C@_0BB@MMFGHKOC@Dyn_Head_RollMul?$AA@	; `string'
PUBLIC	??_C@_0BA@GAKKKMJF@Dyn_Head_PanMul?$AA@		; `string'
PUBLIC	??_C@_0BF@DBOCHCNH@Dyn_Head_TiltRateMul?$AA@	; `string'
PUBLIC	??_C@_0BG@BGGOJMCN@Dyn_Head_TiltGRateMul?$AA@	; `string'
PUBLIC	??_C@_0BC@HJLMHIJP@Dyn_Head_RollRate?$AA@	; `string'
PUBLIC	??_C@_0BB@LHHBGANG@Dyn_Head_PanRate?$AA@	; `string'
PUBLIC	??_C@_0BB@BIPFDKEL@PilotActInterval?$AA@	; `string'
PUBLIC	??_C@_0BC@KOBEG@PilotHeadMoveRate?$AA@		; `string'
PUBLIC	??_C@_0L@HAGHJODN@3DHeadTilt?$AA@		; `string'
PUBLIC	_g_nBWMaxDeltaTime
PUBLIC	??_C@_08IKLJBNLF@3DPitFOV?$AA@			; `string'
PUBLIC	_g_nBWCheckDeltaTime
PUBLIC	?g_bWakeTurbulence@@3_NA			; g_bWakeTurbulence
PUBLIC	?g_bDrawWakeTurbulence@@3_NA			; g_bDrawWakeTurbulence
PUBLIC	?g_bWeaponLaunchUsesDrawPointerPos@@3_NA	; g_bWeaponLaunchUsesDrawPointerPos
PUBLIC	?g_bExtViewOnGround@@3_NA			; g_bExtViewOnGround
PUBLIC	?g_bForceDXMultiThreadedCoopLevel@@3_NA		; g_bForceDXMultiThreadedCoopLevel
PUBLIC	?g_nThrottleMode@@3HA				; g_nThrottleMode
PUBLIC	?g_bEnableABRelocation@@3_NA			; g_bEnableABRelocation
PUBLIC	?g_bEnableWeatherExtensions@@3_NA		; g_bEnableWeatherExtensions
PUBLIC	?g_bEnableWindsAloft@@3_NA			; g_bEnableWindsAloft
PUBLIC	?g_bEnableColorMfd@@3_NA			; g_bEnableColorMfd
PUBLIC	?g_bEPAFRadarCues@@3_NA				; g_bEPAFRadarCues
PUBLIC	?g_bRadarJamChevrons@@3_NA			; g_bRadarJamChevrons
PUBLIC	?g_bAWACSSupport@@3_NA				; g_bAWACSSupport
PUBLIC	?g_bAWACSRequired@@3_NA				; g_bAWACSRequired
PUBLIC	?g_bAWACSBackground@@3_NA			; g_bAWACSBackground
PUBLIC	?g_bMLU@@3_NA					; g_bMLU
PUBLIC	?g_bServer@@3_NA				; g_bServer
PUBLIC	?g_bServerHostAll@@3_NA				; g_bServerHostAll
PUBLIC	?g_bLogEvents@@3_NA				; g_bLogEvents
PUBLIC	?g_bVoiceCom@@3_NA				; g_bVoiceCom
PUBLIC	?g_bwoeir@@3_NA					; g_bwoeir
PUBLIC	?g_nPadlockBoxSize@@3HA				; g_nPadlockBoxSize
PUBLIC	?g_nDeagTimer@@3HA				; g_nDeagTimer
PUBLIC	?g_nReagTimer@@3HA				; g_nReagTimer
PUBLIC	?g_bShowFlaps@@3_NA				; g_bShowFlaps
PUBLIC	?g_bLowBwVoice@@3_NA				; g_bLowBwVoice
PUBLIC	?clientbwforupdatesmodifyer@@3MA		; clientbwforupdatesmodifyer
PUBLIC	?hostbwforupdatesmodifyer@@3MA			; hostbwforupdatesmodifyer
PUBLIC	?g_nMaxUIRefresh@@3HA				; g_nMaxUIRefresh
PUBLIC	?g_nUnidentifiedInUI@@3HA			; g_nUnidentifiedInUI
PUBLIC	?g_fIdentFactor@@3MA				; g_fIdentFactor
PUBLIC	?g_bLimit2DRadarFight@@3_NA			; g_bLimit2DRadarFight
PUBLIC	?g_bAdvancedGroundChooseWeapon@@3_NA		; g_bAdvancedGroundChooseWeapon
PUBLIC	?g_bUseNewCanEnage@@3_NA			; g_bUseNewCanEnage
PUBLIC	?g_nLowestSkillForGCI@@3HA			; g_nLowestSkillForGCI
PUBLIC	?g_nAIVisualRetentionTime@@3HA			; g_nAIVisualRetentionTime
PUBLIC	?g_nAIVisualRetentionSkill@@3HA			; g_nAIVisualRetentionSkill
PUBLIC	?g_fBiasFactorForFlaks@@3MA			; g_fBiasFactorForFlaks
PUBLIC	?g_bUseSkillForFlaks@@3_NA			; g_bUseSkillForFlaks
PUBLIC	?g_fTracerAccuracyFactor@@3MA			; g_fTracerAccuracyFactor
PUBLIC	?g_bToggleAAAGunFlag@@3_NA			; g_bToggleAAAGunFlag
PUBLIC	?g_bUseComplexBVRForPlayerAI@@3_NA		; g_bUseComplexBVRForPlayerAI
PUBLIC	?g_fFuelBaseProp@@3MA				; g_fFuelBaseProp
PUBLIC	?g_fFuelMultProp@@3MA				; g_fFuelMultProp
PUBLIC	?g_fFuelTimeStep@@3MA				; g_fFuelTimeStep
PUBLIC	?g_bFuelUseVtDot@@3_NA				; g_bFuelUseVtDot
PUBLIC	?g_fFuelVtClip@@3MA				; g_fFuelVtClip
PUBLIC	?g_fFuelVtDotMult@@3MA				; g_fFuelVtDotMult
PUBLIC	?g_bFuelLimitBecauseVtDot@@3_NA			; g_bFuelLimitBecauseVtDot
PUBLIC	?g_fSearchSimTargetFromRangeSqr@@3MA		; g_fSearchSimTargetFromRangeSqr
PUBLIC	?g_bUseAggresiveIncompleteA2G@@3_NA		; g_bUseAggresiveIncompleteA2G
PUBLIC	?g_fHotNoseAngle@@3MA				; g_fHotNoseAngle
PUBLIC	?g_fMaxMARNoIdA@@3MA				; g_fMaxMARNoIdA
PUBLIC	?g_fMinMARNoId5kA@@3MA				; g_fMinMARNoId5kA
PUBLIC	?g_fMinMARNoId18kA@@3MA				; g_fMinMARNoId18kA
PUBLIC	?g_fMinMARNoId28kA@@3MA				; g_fMinMARNoId28kA
PUBLIC	?g_fMaxMARNoIdB@@3MA				; g_fMaxMARNoIdB
PUBLIC	?g_fMinMARNoId5kB@@3MA				; g_fMinMARNoId5kB
PUBLIC	?g_fMinMARNoId18kB@@3MA				; g_fMinMARNoId18kB
PUBLIC	?g_fMinMARNoId28kB@@3MA				; g_fMinMARNoId28kB
PUBLIC	?g_fMinMARNoIdC@@3MA				; g_fMinMARNoIdC
PUBLIC	?g_bOldStackDump@@3_NA				; g_bOldStackDump
PUBLIC	?g_fSSoffsetManeuverPoints1a@@3MA		; g_fSSoffsetManeuverPoints1a
PUBLIC	?g_fSSoffsetManeuverPoints1b@@3MA		; g_fSSoffsetManeuverPoints1b
PUBLIC	?g_fSSoffsetManeuverPoints2a@@3MA		; g_fSSoffsetManeuverPoints2a
PUBLIC	?g_fSSoffsetManeuverPoints2b@@3MA		; g_fSSoffsetManeuverPoints2b
PUBLIC	?g_fPinceManeuverPoints1a@@3MA			; g_fPinceManeuverPoints1a
PUBLIC	?g_fPinceManeuverPoints1b@@3MA			; g_fPinceManeuverPoints1b
PUBLIC	?g_fPinceManeuverPoints2a@@3MA			; g_fPinceManeuverPoints2a
PUBLIC	?g_fPinceManeuverPoints2b@@3MA			; g_fPinceManeuverPoints2b
PUBLIC	?g_bUseDefinedGunDomain@@3_NA			; g_bUseDefinedGunDomain
PUBLIC	?g_nPadlockMode@@3HA				; g_nPadlockMode
PUBLIC	?g_nAirbaseReloc@@3HA				; g_nAirbaseReloc
PUBLIC	?g_bPitchLimiterForAI@@3_NA			; g_bPitchLimiterForAI
PUBLIC	?g_nTargetSpotTimeout@@3HA			; g_nTargetSpotTimeout
PUBLIC	?g_bRP5Comp@@3_NA				; g_bRP5Comp
PUBLIC	?g_bEnableNonPersistentTextures@@3_NA		; g_bEnableNonPersistentTextures
PUBLIC	?g_bEnableStaticTerrainTextures@@3_NA		; g_bEnableStaticTerrainTextures
PUBLIC	?g_bCheckBltStatusBeforeFlip@@3_NA		; g_bCheckBltStatusBeforeFlip
PUBLIC	?g_bForceSoftwareGUI@@3_NA			; g_bForceSoftwareGUI
PUBLIC	?g_bShowMipUsage@@3_NA				; g_bShowMipUsage
PUBLIC	?g_bUse3dSound@@3_NA				; g_bUse3dSound
PUBLIC	?g_bOldSoundAlg@@3_NA				; g_bOldSoundAlg
PUBLIC	?g_nDynamicVoices@@3HA				; g_nDynamicVoices
PUBLIC	?g_bSoundSonicBoom@@3_NA			; g_bSoundSonicBoom
PUBLIC	?g_bMultiEngineSound@@3_NA			; g_bMultiEngineSound
PUBLIC	?g_bMFDHighContrast@@3_NA			; g_bMFDHighContrast
PUBLIC	?g_bPowerGrid@@3_NA				; g_bPowerGrid
PUBLIC	?g_bUseMappedFiles@@3_NA			; g_bUseMappedFiles
PUBLIC	?g_bNewRackData@@3_NA				; g_bNewRackData
PUBLIC	?g_bBMSRackData@@3_NA				; g_bBMSRackData
PUBLIC	?g_bNewAcmiHud@@3_NA				; g_bNewAcmiHud
PUBLIC	?g_nLowDetailFactor@@3HA			; g_nLowDetailFactor
PUBLIC	?g_fHUDonlySize@@3MA				; g_fHUDonlySize
PUBLIC	?g_fMipLodBias@@3MA				; g_fMipLodBias
PUBLIC	?g_fCloudMinHeight@@3MA				; g_fCloudMinHeight
PUBLIC	?g_fRadarScale@@3MA				; g_fRadarScale
PUBLIC	?g_fCursorSpeed@@3MA				; g_fCursorSpeed
PUBLIC	?g_fMinCloudWeather@@3MA			; g_fMinCloudWeather
PUBLIC	?g_fCloudThicknessFactor@@3MA			; g_fCloudThicknessFactor
PUBLIC	?g_fdwPortclient@@3MA				; g_fdwPortclient
PUBLIC	?g_fdwPorthost@@3MA				; g_fdwPorthost
PUBLIC	?g_bEnableUplink@@3_NA				; g_bEnableUplink
PUBLIC	?g_strMasterServerName@@3PADA			; g_strMasterServerName
PUBLIC	?g_nMasterServerPort@@3HA			; g_nMasterServerPort
PUBLIC	?g_strServerName@@3PADA				; g_strServerName
PUBLIC	?g_strServerLocation@@3PADA			; g_strServerLocation
PUBLIC	?g_strServerAdmin@@3PADA			; g_strServerAdmin
PUBLIC	?g_strServerAdminEmail@@3PADA			; g_strServerAdminEmail
PUBLIC	?g_strVoiceHostIP@@3PADA			; g_strVoiceHostIP
PUBLIC	?g_strWorldName@@3PADA				; g_strWorldName
PUBLIC	?g_strScrollUpFunction@@3PADA			; g_strScrollUpFunction
PUBLIC	?g_strScrollDownFunction@@3PADA			; g_strScrollDownFunction
PUBLIC	?g_strMiddleButtonFunction@@3PADA		; g_strMiddleButtonFunction
PUBLIC	?g_nNearLabelLimit@@3HA				; g_nNearLabelLimit
PUBLIC	?g_nACMIOptionsPopupHiResX@@3HA			; g_nACMIOptionsPopupHiResX
PUBLIC	?g_nACMIOptionsPopupHiResY@@3HA			; g_nACMIOptionsPopupHiResY
PUBLIC	?g_nACMIOptionsPopupLowResX@@3HA		; g_nACMIOptionsPopupLowResX
PUBLIC	?g_nACMIOptionsPopupLowResY@@3HA		; g_nACMIOptionsPopupLowResY
PUBLIC	?g_nMaxSimTimeAcceleration@@3HA			; g_nMaxSimTimeAcceleration
PUBLIC	?g_bMPStartRestricted@@3_NA			; g_bMPStartRestricted
PUBLIC	?g_nMPStartTime@@3HA				; g_nMPStartTime
PUBLIC	?g_nTaxiLaunchTime@@3HA				; g_nTaxiLaunchTime
PUBLIC	?g_nFFEffectAutoCenter@@3HA			; g_nFFEffectAutoCenter
PUBLIC	?g_bMissionACIcons@@3_NA			; g_bMissionACIcons
PUBLIC	?g_fRecoveryAOA@@3MA				; g_fRecoveryAOA
PUBLIC	?g_nRNESpeed@@3HA				; g_nRNESpeed
PUBLIC	?g_bSlowButSafe@@3_NA				; g_bSlowButSafe
PUBLIC	?g_fCarrierStartTolerance@@3MA			; g_fCarrierStartTolerance
PUBLIC	?g_bNewDamageEffects@@3_NA			; g_bNewDamageEffects
PUBLIC	?g_bDisableFunkyChicken@@3_NA			; g_bDisableFunkyChicken
PUBLIC	?g_bSmartScaling@@3_NA				; g_bSmartScaling
PUBLIC	?g_bFloatingBullseye@@3_NA			; g_bFloatingBullseye
PUBLIC	?g_bDisableCrashEjectCourtMartials@@3_NA	; g_bDisableCrashEjectCourtMartials
PUBLIC	?g_bSmartCombatAP@@3_NA				; g_bSmartCombatAP
PUBLIC	?g_fDragDilutionFactor@@3MA			; g_fDragDilutionFactor
PUBLIC	?g_bRealisticAttrition@@3_NA			; g_bRealisticAttrition
PUBLIC	?g_bIFFRWR@@3_NA				; g_bIFFRWR
PUBLIC	?g_nRelocationWait@@3HA				; g_nRelocationWait
PUBLIC	?g_nLoadoutTimeLimit@@3HA			; g_nLoadoutTimeLimit
PUBLIC	?g_fLatitude@@3MA				; g_fLatitude
PUBLIC	?g_nYear@@3HA					; g_nYear
PUBLIC	?g_nDay@@3HA					; g_nDay
PUBLIC	?g_bSimpleFMUpdates@@3_NA			; g_bSimpleFMUpdates
PUBLIC	?g_b3dDynamicPilotHead@@3_NA			; g_b3dDynamicPilotHead
PUBLIC	?g_b3dCockpit@@3_NA				; g_b3dCockpit
PUBLIC	?g_b3dMFDLeft@@3_NA				; g_b3dMFDLeft
PUBLIC	?g_b3dMFDRight@@3_NA				; g_b3dMFDRight
PUBLIC	?g_bRWR@@3_NA					; g_bRWR
PUBLIC	?g_bBrightHUD@@3_NA				; g_bBrightHUD
PUBLIC	?g_nNoPlayerPlay@@3HA				; g_nNoPlayerPlay
PUBLIC	?g_bModuleList@@3_NA				; g_bModuleList
PUBLIC	?g_npercentage_available_aircraft@@3HA		; g_npercentage_available_aircraft
PUBLIC	?g_nminimum_available_aircraft@@3HA		; g_nminimum_available_aircraft
PUBLIC	?g_nMaxVertexSpace@@3HA				; g_nMaxVertexSpace
PUBLIC	?g_nMinTacanChannel@@3HA			; g_nMinTacanChannel
PUBLIC	?g_nFlightVisualBonus@@3HA			; g_nFlightVisualBonus
PUBLIC	?g_nChatterInterval@@3HA			; g_nChatterInterval
PUBLIC	?g_nSfxLODCutoff@@3HA				; g_nSfxLODCutoff
PUBLIC	?g_nSfxLODDistCutoff@@3HA			; g_nSfxLODDistCutoff
PUBLIC	?g_nSfxLODTotCutoff@@3HA			; g_nSfxLODTotCutoff
PUBLIC	?g_nPSPurgeInterval@@3HA			; g_nPSPurgeInterval
PUBLIC	?g_bOldDustTrail@@3_NA				; g_bOldDustTrail
PUBLIC	?g_bHearThunder@@3_NA				; g_bHearThunder
PUBLIC	?g_nPSKillFPS@@3HA				; g_nPSKillFPS
PUBLIC	?g_bHighSFX@@3_NA				; g_bHighSFX
PUBLIC	?g_bAllHaveIFF@@3_NA				; g_bAllHaveIFF
PUBLIC	?g_bAnimPilotHead@@3_NA				; g_bAnimPilotHead
PUBLIC	?g_fPilotActInterval@@3MA			; g_fPilotActInterval
PUBLIC	?g_fPilotHeadMoveRate@@3MA			; g_fPilotHeadMoveRate
PUBLIC	?g_bUseRC135@@3_NA				; g_bUseRC135
PUBLIC	?g_bFFDBC@@3_NA					; g_bFFDBC
PUBLIC	?g_bCATIIIDefault@@3_NA				; g_bCATIIIDefault
PUBLIC	?g_bRealisticAvionics@@3_NA			; g_bRealisticAvionics
PUBLIC	?g_bIFlyMirage@@3_NA				; g_bIFlyMirage
PUBLIC	?g_bNoMFDsIn1View@@3_NA				; g_bNoMFDsIn1View
PUBLIC	?g_bGreyScaleMFD@@3_NA				; g_bGreyScaleMFD
PUBLIC	?g_bGreyMFD@@3_NA				; g_bGreyMFD
PUBLIC	?g_bIFF@@3_NA					; g_bIFF
PUBLIC	?g_bINS@@3_NA					; g_bINS
PUBLIC	?g_bNoRPMOnHud@@3_NA				; g_bNoRPMOnHud
PUBLIC	?g_bNoPadlockBoxes@@3_NA			; g_bNoPadlockBoxes
PUBLIC	?g_bFallingHeadingTape@@3_NA			; g_bFallingHeadingTape
PUBLIC	?g_bTFRFixes@@3_NA				; g_bTFRFixes
PUBLIC	?g_bCalibrateTFR_PitchCtrl@@3_NA		; g_bCalibrateTFR_PitchCtrl
PUBLIC	?g_bLantDebug@@3_NA				; g_bLantDebug
PUBLIC	?g_bNewPitchLadder@@3_NA			; g_bNewPitchLadder
PUBLIC	?g_fGroundImpactMod@@3MA			; g_fGroundImpactMod
PUBLIC	?g_bAGRadarFixes@@3_NA				; g_bAGRadarFixes
PUBLIC	?g_fGMTMinSpeed@@3MA				; g_fGMTMinSpeed
PUBLIC	?g_fGMTMaxSpeed@@3MA				; g_fGMTMaxSpeed
PUBLIC	?g_fReconCameraHalfFOV@@3MA			; g_fReconCameraHalfFOV
PUBLIC	?g_fReconCameraOffset@@3MA			; g_fReconCameraOffset
PUBLIC	?g_fBombTimeStep@@3MA				; g_fBombTimeStep
PUBLIC	?g_bBombNumLoopOnly@@3_NA			; g_bBombNumLoopOnly
PUBLIC	?g_fHighDragGravFactor@@3MA			; g_fHighDragGravFactor
PUBLIC	?g_bTO_LDG_LightFix@@3_NA			; g_bTO_LDG_LightFix
PUBLIC	?g_bNewFm@@3_NA					; g_bNewFm
PUBLIC	?g_bAIRefuelInComplexAF@@3_NA			; g_bAIRefuelInComplexAF
PUBLIC	?g_fFormationBurnerDistance@@3MA		; g_fFormationBurnerDistance
PUBLIC	?g_bHiResUI@@3_NA				; g_bHiResUI
PUBLIC	?g_bAWACSFuel@@3_NA				; g_bAWACSFuel
PUBLIC	?g_bFullScreenNVG@@3_NA				; g_bFullScreenNVG
PUBLIC	?g_bLogUiErrors@@3_NA				; g_bLogUiErrors
PUBLIC	?g_bLoadoutSquadStoreResupply@@3_NA		; g_bLoadoutSquadStoreResupply
PUBLIC	?g_bDisplayTrees@@3_NA				; g_bDisplayTrees
PUBLIC	?g_bRequestHelp@@3_NA				; g_bRequestHelp
PUBLIC	?g_bLightsKC135@@3_NA				; g_bLightsKC135
PUBLIC	?g_fPadlockBreakDistance@@3MA			; g_fPadlockBreakDistance
PUBLIC	?g_bOldSamActivity@@3_NA			; g_bOldSamActivity
PUBLIC	?g_bFireOntheMove@@3_NA				; g_bFireOntheMove
PUBLIC	?g_fAFRudderRight@@3MA				; g_fAFRudderRight
PUBLIC	?g_fAFRudderLeft@@3MA				; g_fAFRudderLeft
PUBLIC	?g_fAFThrottleDown@@3MA				; g_fAFThrottleDown
PUBLIC	?g_fAFThrottleUp@@3MA				; g_fAFThrottleUp
PUBLIC	?g_fAFAileronLeft@@3MA				; g_fAFAileronLeft
PUBLIC	?g_fAFAileronRight@@3MA				; g_fAFAileronRight
PUBLIC	?g_fAFElevatorDown@@3MA				; g_fAFElevatorDown
PUBLIC	?g_fAFElevatorUp@@3MA				; g_fAFElevatorUp
PUBLIC	?g_frollStickOffset@@3MA			; g_frollStickOffset
PUBLIC	?g_fpitchStickOffset@@3MA			; g_fpitchStickOffset
PUBLIC	?g_frudderOffset@@3MA				; g_frudderOffset
PUBLIC	?g_bRollLinkedNWSRudder@@3_NA			; g_bRollLinkedNWSRudder
PUBLIC	?g_bEnableGRCursorBullseye@@3_NA		; g_bEnableGRCursorBullseye
PUBLIC	?g_bEnableFCCSubNavCycle@@3_NA			; g_bEnableFCCSubNavCycle
PUBLIC	?g_bDisableCommsBorder@@3_NA			; g_bDisableCommsBorder
PUBLIC	?g_bEcmOnHud@@3_NA				; g_bEcmOnHud
PUBLIC	?g_bBrakeOnHud@@3_NA				; g_bBrakeOnHud
PUBLIC	?g_bGearOnHud@@3_NA				; g_bGearOnHud
PUBLIC	?g_bAddACSizeVisual@@3_NA			; g_bAddACSizeVisual
PUBLIC	?g_fVisualNormalizeFactor@@3MA			; g_fVisualNormalizeFactor
PUBLIC	?g_bHelosReloc@@3_NA				; g_bHelosReloc
PUBLIC	?g_bNewPadlock@@3_NA				; g_bNewPadlock
PUBLIC	?g_nlookAroundWaterTiles@@3HA			; g_nlookAroundWaterTiles
PUBLIC	?g_fPullupTime@@3MA				; g_fPullupTime
PUBLIC	?g_fGALookAheadTime@@3MA			; g_fGALookAheadTime
PUBLIC	?g_nCriticalPullup@@3HA				; g_nCriticalPullup
PUBLIC	?g_fAIMinWPAlt@@3MA				; g_fAIMinWPAlt
PUBLIC	?g_fAIMinAlt@@3MA				; g_fAIMinAlt
PUBLIC	?g_fGApStickFac@@3MA				; g_fGApStickFac
PUBLIC	?g_fAIHarmMaxRange@@3MA				; g_fAIHarmMaxRange
PUBLIC	?g_fAIJSOWMaxRange@@3MA				; g_fAIJSOWMaxRange
PUBLIC	?g_fRocketPitchFactor@@3MA			; g_fRocketPitchFactor
PUBLIC	?g_fRocketPitchCorr@@3MA			; g_fRocketPitchCorr
PUBLIC	?g_fAGFlyoutRange@@3MA				; g_fAGFlyoutRange
PUBLIC	?g_fAGSlowFlyoutRange@@3MA			; g_fAGSlowFlyoutRange
PUBLIC	?g_fAGSlowMoverSpeed@@3MA			; g_fAGSlowMoverSpeed
PUBLIC	?g_fAIRefuelRange@@3MA				; g_fAIRefuelRange
PUBLIC	?g_bNewRefuelHelp@@3_NA				; g_bNewRefuelHelp
PUBLIC	?g_bOtherGroundCheck@@3_NA			; g_bOtherGroundCheck
PUBLIC	?g_bAIGloc@@3_NA				; g_bAIGloc
PUBLIC	?g_fAIDropStoreLauncherRange@@3MA		; g_fAIDropStoreLauncherRange
PUBLIC	?g_nAirbaseCheck@@3HA				; g_nAirbaseCheck
PUBLIC	?g_bUseTankerTrack@@3_NA			; g_bUseTankerTrack
PUBLIC	?g_fTankerRStick@@3MA				; g_fTankerRStick
PUBLIC	?g_fTankerPStick@@3MA				; g_fTankerPStick
PUBLIC	?g_fTankerTrackFactor@@3MA			; g_fTankerTrackFactor
PUBLIC	?g_fTankerHeadsupDistance@@3MA			; g_fTankerHeadsupDistance
PUBLIC	?g_fTankerBackupDistance@@3MA			; g_fTankerBackupDistance
PUBLIC	?g_fHeadingStabilizeFactor@@3MA			; g_fHeadingStabilizeFactor
PUBLIC	?g_fAIRefuelSpeed@@3MA				; g_fAIRefuelSpeed
PUBLIC	?g_fClimbRatio@@3MA				; g_fClimbRatio
PUBLIC	?g_fNukeStrengthFactor@@3MA			; g_fNukeStrengthFactor
PUBLIC	?g_fNukeDamageMod@@3MA				; g_fNukeDamageMod
PUBLIC	?g_fNukeDamageRadius@@3MA			; g_fNukeDamageRadius
PUBLIC	?g_nNoWPRefuelNeeded@@3HA			; g_nNoWPRefuelNeeded
PUBLIC	?g_bAddIngressWP@@3_NA				; g_bAddIngressWP
PUBLIC	?g_bTankerWaypoints@@3_NA			; g_bTankerWaypoints
PUBLIC	?g_bPutAIToBoom@@3_NA				; g_bPutAIToBoom
PUBLIC	?g_fWaypointBurnerDelta@@3MA			; g_fWaypointBurnerDelta
PUBLIC	?g_nSkipWaypointTime@@3HA			; g_nSkipWaypointTime
PUBLIC	?g_bLookCloserFix@@3_NA				; g_bLookCloserFix
PUBLIC	?g_fMavEXPLevel@@3MA				; g_fMavEXPLevel
PUBLIC	?g_fMavFOVLevel@@3MA				; g_fMavFOVLevel
PUBLIC	?g_bAnyWaypointTask@@3_NA			; g_bAnyWaypointTask
PUBLIC	?g_bFFCenterFix@@3_NA				; g_bFFCenterFix
PUBLIC	?g_bCockpitAutoScale@@3_NA			; g_bCockpitAutoScale
PUBLIC	?g_fMouseLookSensitivity@@3MA			; g_fMouseLookSensitivity
PUBLIC	?g_b3DClickableCockpitDebug@@3_NA		; g_b3DClickableCockpitDebug
PUBLIC	?g_b3DRTTCockpitDebug@@3_NA			; g_b3DRTTCockpitDebug
PUBLIC	?g_b3DClickableCursorChange@@3_NA		; g_b3DClickableCursorChange
PUBLIC	?g_bDEDSpacingFix@@3_NA				; g_bDEDSpacingFix
PUBLIC	?g_nForceCockpitResolution@@3HA			; g_nForceCockpitResolution
PUBLIC	?g_n3DHeadPanRange@@3HA				; g_n3DHeadPanRange
PUBLIC	?g_n3DHeadTiltRange@@3HA			; g_n3DHeadTiltRange
PUBLIC	?g_bReconLatLong@@3_NA				; g_bReconLatLong
PUBLIC	?g_bRatioHack@@3_NA				; g_bRatioHack
PUBLIC	?g_bPrecisionWaypoints@@3_NA			; g_bPrecisionWaypoints
PUBLIC	?g_bSmallerBullseye@@3_NA			; g_bSmallerBullseye
PUBLIC	?g_bRealisticMavTime@@3_NA			; g_bRealisticMavTime
PUBLIC	?g_bnewAMRAAMdlz@@3_NA				; g_bnewAMRAAMdlz
PUBLIC	?g_bMLUM2TAinHUD@@3_NA				; g_bMLUM2TAinHUD
PUBLIC	?g_fHSDSymbolSize@@3MA				; g_fHSDSymbolSize
PUBLIC	?g_bAutoScaleFonts@@3_NA			; g_bAutoScaleFonts
PUBLIC	?g_n6DOFTIR@@3HA				; g_n6DOFTIR
PUBLIC	?g_fTIRMinimumFOV@@3MA				; g_fTIRMinimumFOV
PUBLIC	?g_fTIRMaximumFOV@@3MA				; g_fTIRMaximumFOV
PUBLIC	?g_fMinimumFOV@@3MA				; g_fMinimumFOV
PUBLIC	?g_fMaximumFOV@@3MA				; g_fMaximumFOV
PUBLIC	?g_fDefaultFOV@@3MA				; g_fDefaultFOV
PUBLIC	?g_fFOVIncrement@@3MA				; g_fFOVIncrement
PUBLIC	?g_fNarrowFOV@@3MA				; g_fNarrowFOV
PUBLIC	?g_fWideviewFOV@@3MA				; g_fWideviewFOV
PUBLIC	?g_fMeanTimeBetweenFailures@@3MA		; g_fMeanTimeBetweenFailures
PUBLIC	?g_bEnableRandomFailures@@3_NA			; g_bEnableRandomFailures
PUBLIC	?g_b2DPitWingFOVFix@@3_NA			; g_b2DPitWingFOVFix
PUBLIC	?g_fJDAMLift@@3MA				; g_fJDAMLift
PUBLIC	?g_fAIJSOWmaxRange@@3MA				; g_fAIJSOWmaxRange
PUBLIC	?g_bOldFontTexelFix@@3_NA			; g_bOldFontTexelFix
PUBLIC	?g_nShow2DPitErrors@@3HA			; g_nShow2DPitErrors
PUBLIC	?g_bFilter2DPit@@3_NA				; g_bFilter2DPit
PUBLIC	?g_nNewFPSCounter@@3HA				; g_nNewFPSCounter
PUBLIC	?g_bCrackFix@@3_NA				; g_bCrackFix
PUBLIC	?g_bResizeUsesResMgr@@3_NA			; g_bResizeUsesResMgr
PUBLIC	?g_bPadlockHudColor@@3_NA			; g_bPadlockHudColor
PUBLIC	?g_nMiniDump@@3HA				; g_nMiniDump
PUBLIC	?g_bCheckFeatureIndex@@3_NA			; g_bCheckFeatureIndex
PUBLIC	?g_bMachAsiDial@@3_NA				; g_bMachAsiDial
PUBLIC	?g_bNew2DTrackIR@@3_NA				; g_bNew2DTrackIR
PUBLIC	?g_bSync2D3DPit@@3_NA				; g_bSync2D3DPit
PUBLIC	?g_fHybridPitThreshold1@@3MA			; g_fHybridPitThreshold1
PUBLIC	?g_fHybridPitThreshold2@@3MA			; g_fHybridPitThreshold2
PUBLIC	?g_nHybridPitModeDelay@@3HA			; g_nHybridPitModeDelay
PUBLIC	?g_fEXPfactor@@3MA				; g_fEXPfactor
PUBLIC	?g_fDBS1factor@@3MA				; g_fDBS1factor
PUBLIC	?g_fDBS2factor@@3MA				; g_fDBS2factor
PUBLIC	?g_fePropFactor@@3MA				; g_fePropFactor
PUBLIC	?g_fSunPadlockTimeout@@3MA			; g_fSunPadlockTimeout
PUBLIC	?g_nGroundAttackTime@@3HA			; g_nGroundAttackTime
PUBLIC	?g_nSeadAttackTime@@3HA				; g_nSeadAttackTime
PUBLIC	?g_nStrikeAttackTime@@3HA			; g_nStrikeAttackTime
PUBLIC	?g_nCASAttackTime@@3HA				; g_nCASAttackTime
PUBLIC	?g_nAIshootLookShootTime@@3HA			; g_nAIshootLookShootTime
PUBLIC	?g_bAGTargetWPFix@@3_NA				; g_bAGTargetWPFix
PUBLIC	?g_bAlwaysAnisotropic@@3_NA			; g_bAlwaysAnisotropic
PUBLIC	?g_fTgtDZFactor@@3MA				; g_fTgtDZFactor
PUBLIC	?g_bNoAAAEventRecords@@3_NA			; g_bNoAAAEventRecords
PUBLIC	?g_nATCTaxiOrderFix@@3HA			; g_nATCTaxiOrderFix
PUBLIC	?g_bEmergencyJettisonFix@@3_NA			; g_bEmergencyJettisonFix
PUBLIC	?g_fDBS1ScanRateFactor@@3MA			; g_fDBS1ScanRateFactor
PUBLIC	?g_fDBS2ScanRateFactor@@3MA			; g_fDBS2ScanRateFactor
PUBLIC	?g_bACMIRecordMsgOff@@3_NA			; g_bACMIRecordMsgOff
PUBLIC	?g_bF4CommsMTU@@3_NA				; g_bF4CommsMTU
PUBLIC	?g_nTrackIRSampleFreq@@3HA			; g_nTrackIRSampleFreq
PUBLIC	?g_fTIR2DPitchPercentage@@3MA			; g_fTIR2DPitchPercentage
PUBLIC	?g_fTIR2DYawPercentage@@3MA			; g_fTIR2DYawPercentage
PUBLIC	?g_nNumberOfSubTitles@@3HA			; g_nNumberOfSubTitles
PUBLIC	?g_nSubTitleTTL@@3HA				; g_nSubTitleTTL
PUBLIC	?g_strRadioflightCol@@3PADA			; g_strRadioflightCol
PUBLIC	?g_strRadiotoPackageCol@@3PADA			; g_strRadiotoPackageCol
PUBLIC	?g_strRadioToFromPackageCol@@3PADA		; g_strRadioToFromPackageCol
PUBLIC	?g_strRadioTeamCol@@3PADA			; g_strRadioTeamCol
PUBLIC	?g_strRadioProximityCol@@3PADA			; g_strRadioProximityCol
PUBLIC	?g_strRadioWorldCol@@3PADA			; g_strRadioWorldCol
PUBLIC	?g_strRadioTowerCol@@3PADA			; g_strRadioTowerCol
PUBLIC	?g_strRadioStandardCol@@3PADA			; g_strRadioStandardCol
PUBLIC	?g_bEnableDisplacementCam@@3_NA			; g_bEnableDisplacementCam
PUBLIC	?g_nSaturationSmall@@3HA			; g_nSaturationSmall
PUBLIC	?g_nSaturationMedium@@3HA			; g_nSaturationMedium
PUBLIC	?g_nSaturationLarge@@3HA			; g_nSaturationLarge
PUBLIC	?g_nDeadzoneSmall@@3HA				; g_nDeadzoneSmall
PUBLIC	?g_nDeadzoneMedium@@3HA				; g_nDeadzoneMedium
PUBLIC	?g_nDeadzoneLarge@@3HA				; g_nDeadzoneLarge
PUBLIC	?g_nDeadzoneHuge@@3HA				; g_nDeadzoneHuge
PUBLIC	?g_nMouseLookSensMax@@3HA			; g_nMouseLookSensMax
PUBLIC	?g_nMouseLookSensMin@@3HA			; g_nMouseLookSensMin
PUBLIC	?g_nMouseWheelSensMax@@3HA			; g_nMouseWheelSensMax
PUBLIC	?g_nMouseWheelSensMin@@3HA			; g_nMouseWheelSensMin
PUBLIC	?g_nKeyPOVSensMax@@3HA				; g_nKeyPOVSensMax
PUBLIC	?g_nKeyPOVSensMin@@3HA				; g_nKeyPOVSensMin
PUBLIC	?g_bUseNewSmoothing@@3_NA			; g_bUseNewSmoothing
PUBLIC	?g_bDisplayAxisValues@@3_NA			; g_bDisplayAxisValues
PUBLIC	?g_bPilotEntertainment@@3_NA			; g_bPilotEntertainment
PUBLIC	?g_nWinAmpInitVolume@@3HA			; g_nWinAmpInitVolume
PUBLIC	?g_nVUMaxDeltaTime@@3HA				; g_nVUMaxDeltaTime
PUBLIC	?g_bCampSavedMenuHack@@3_NA			; g_bCampSavedMenuHack
PUBLIC	?g_bActivateDebugStuff@@3_NA			; g_bActivateDebugStuff
PUBLIC	?g_bActivateMissileDebug@@3_NA			; g_bActivateMissileDebug
PUBLIC	?g_fMoverVrValue@@3MA				; g_fMoverVrValue
PUBLIC	?g_bEmptyFilenameFix@@3_NA			; g_bEmptyFilenameFix
PUBLIC	?g_fRAPDistance@@3MA				; g_fRAPDistance
PUBLIC	?g_bLabelRadialFix@@3_NA			; g_bLabelRadialFix
PUBLIC	?g_bLabelShowDistance@@3_NA			; g_bLabelShowDistance
PUBLIC	?g_bCheckForMode@@3_NA				; g_bCheckForMode
PUBLIC	?g_bRQDFix@@3_NA				; g_bRQDFix
PUBLIC	?g_nSessionTimeout@@3HA				; g_nSessionTimeout
PUBLIC	?g_nSessionUpdateRate@@3HA			; g_nSessionUpdateRate
PUBLIC	?g_nMaxInterceptDistance@@3HA			; g_nMaxInterceptDistance
PUBLIC	?g_bNewSensorPrecision@@3_NA			; g_bNewSensorPrecision
PUBLIC	?g_bSAM2D3DHandover@@3_NA			; g_bSAM2D3DHandover
PUBLIC	?g_nChooseBullseyeFix@@3HA			; g_nChooseBullseyeFix
PUBLIC	?g_nSoundSwitchFix@@3HA				; g_nSoundSwitchFix
PUBLIC	?g_nDFRegenerateFix@@3HA			; g_nDFRegenerateFix
PUBLIC	?g_bAllowOverload@@3_NA				; g_bAllowOverload
PUBLIC	?g_bACPlayerCTDFix@@3_NA			; g_bACPlayerCTDFix
PUBLIC	?g_bSetWaypointNumFix@@3_NA			; g_bSetWaypointNumFix
PUBLIC	?g_fLethalRadiusModifier@@3MA			; g_fLethalRadiusModifier
PUBLIC	?g_nMissileFix@@3HA				; g_nMissileFix
PUBLIC	?g_bDarkHudFix@@3_NA				; g_bDarkHudFix
PUBLIC	?g_fBombMissileAltitude@@3MA			; g_fBombMissileAltitude
PUBLIC	?g_nFogRenderState@@3HA				; g_nFogRenderState
PUBLIC	?g_bTankerFMFix@@3_NA				; g_bTankerFMFix
PUBLIC	?g_bAppendToBriefingFile@@3_NA			; g_bAppendToBriefingFile
PUBLIC	?g_nPrintToFile@@3HA				; g_nPrintToFile
PUBLIC	?g_nGfxFix@@3HA					; g_nGfxFix
PUBLIC	?g_bExitCampSelectFix@@3_NA			; g_bExitCampSelectFix
PUBLIC	?g_bAGNoBVRWVR@@3_NA				; g_bAGNoBVRWVR
PUBLIC	?gFuelState@@3KA				; gFuelState
PUBLIC	?g_nShowDebugLabels@@3HA			; g_nShowDebugLabels
PUBLIC	?g_nMaxDebugLabel@@3HA				; g_nMaxDebugLabel
PUBLIC	?g_bEnableMfdColors@@3_NA			; g_bEnableMfdColors
PUBLIC	?g_fMfdTransparency@@3MA			; g_fMfdTransparency
PUBLIC	?g_fMfdRed@@3MA					; g_fMfdRed
PUBLIC	?g_fMfdGreen@@3MA				; g_fMfdGreen
PUBLIC	?g_fMfdBlue@@3MA				; g_fMfdBlue
PUBLIC	?g_bEnableMfdSize@@3_NA				; g_bEnableMfdSize
PUBLIC	?g_fMfd_p_Size@@3MA				; g_fMfd_p_Size
PUBLIC	?g_bMavFixes@@3_NA				; g_bMavFixes
PUBLIC	?g_bMavFix2@@3_NA				; g_bMavFix2
PUBLIC	?g_bLgbFixes@@3_NA				; g_bLgbFixes
PUBLIC	?g_brebuildbobbleFix@@3_NA			; g_brebuildbobbleFix
PUBLIC	?g_bMPFix@@3_NA					; g_bMPFix
PUBLIC	?g_bMPFix2@@3_NA				; g_bMPFix2
PUBLIC	?g_bMPFix3@@3_NA				; g_bMPFix3
PUBLIC	?g_bMPFix4@@3_NA				; g_bMPFix4
PUBLIC	?g_nMPPowerXmitThreshold@@3HA			; g_nMPPowerXmitThreshold
PUBLIC	?MinBwForOtherData@@3MA				; MinBwForOtherData
PUBLIC	?g_fclientbwforupdatesmodifyerMAX@@3MA		; g_fclientbwforupdatesmodifyerMAX
PUBLIC	?g_fclientbwforupdatesmodifyerMIN@@3MA		; g_fclientbwforupdatesmodifyerMIN
PUBLIC	?g_fReliablemsgwaitMAX@@3MA			; g_fReliablemsgwaitMAX
PUBLIC	?g_bDisableMissleEngGlow@@3_NA			; g_bDisableMissleEngGlow
PUBLIC	?g_bSMSPylonLoadingFix@@3_NA			; g_bSMSPylonLoadingFix
PUBLIC	?g_bWeaponStepToGun@@3_NA			; g_bWeaponStepToGun
PUBLIC	?g_bEnableDopplerSound@@3_NA			; g_bEnableDopplerSound
PUBLIC	?g_fSoundDopplerFactor@@3MA			; g_fSoundDopplerFactor
PUBLIC	?g_fSoundRolloffFactor@@3MA			; g_fSoundRolloffFactor
PUBLIC	?g_bSoundDistanceEffect@@3_NA			; g_bSoundDistanceEffect
PUBLIC	?g_nSoundUpdateMS@@3HA				; g_nSoundUpdateMS
PUBLIC	?g_bNewEngineSounds@@3_NA			; g_bNewEngineSounds
PUBLIC	?g_bSoundHearVMSExternal@@3_NA			; g_bSoundHearVMSExternal
PUBLIC	?g_fACMIAnimRecordTimer@@3MA			; g_fACMIAnimRecordTimer
PUBLIC	?g_bHUDFix@@3_NA				; g_bHUDFix
PUBLIC	?g_bLargeStrike@@3_NA				; g_bLargeStrike
PUBLIC	?g_bTakeoffSound@@3_NA				; g_bTakeoffSound
PUBLIC	?g_bTurb@@3_NA					; g_bTurb
PUBLIC	?g_fA2GJDAMAlt@@3MA				; g_fA2GJDAMAlt
PUBLIC	?g_fA2GJSOWAlt@@3MA				; g_fA2GJSOWAlt
PUBLIC	?g_fA2GHarmAlt@@3MA				; g_fA2GHarmAlt
PUBLIC	?g_fA2GAGMAlt@@3MA				; g_fA2GAGMAlt
PUBLIC	?g_fA2GGBUAlt@@3MA				; g_fA2GGBUAlt
PUBLIC	?g_fA2GDumbHDAlt@@3MA				; g_fA2GDumbHDAlt
PUBLIC	?g_fA2GClusterAlt@@3MA				; g_fA2GClusterAlt
PUBLIC	?g_fA2GDumbLDAlt@@3MA				; g_fA2GDumbLDAlt
PUBLIC	?g_fA2GGenericBombAlt@@3MA			; g_fA2GGenericBombAlt
PUBLIC	?g_fA2GGunRocketAlt@@3MA			; g_fA2GGunRocketAlt
PUBLIC	?g_fA2GCameraAlt@@3MA				; g_fA2GCameraAlt
PUBLIC	?g_bScramble@@3_NA				; g_bScramble
PUBLIC	?g_bhudAOA@@3_NA				; g_bhudAOA
PUBLIC	?g_bnoRadStutter@@3_NA				; g_bnoRadStutter
PUBLIC	?g_bRollInertia@@3_NA				; g_bRollInertia
PUBLIC	?g_bLensFlare@@3_NA				; g_bLensFlare
PUBLIC	?g_bDisableHighFartiles@@3_NA			; g_bDisableHighFartiles
PUBLIC	?g_fTexDetailFactor@@3MA			; g_fTexDetailFactor
PUBLIC	?g_bBriefHTML@@3_NA				; g_bBriefHTML
PUBLIC	?g_bAntElevKnobFix@@3_NA			; g_bAntElevKnobFix
PUBLIC	?g_bUseAnalogIdleCutoff@@3_NA			; g_bUseAnalogIdleCutoff
PUBLIC	?g_nIdleCutoffPad@@3HA				; g_nIdleCutoffPad
PUBLIC	?g_bWeaponPickleDelays@@3_NA			; g_bWeaponPickleDelays
PUBLIC	?g_bHsdStptFix@@3_NA				; g_bHsdStptFix
PUBLIC	?g_bUnlimitedAmmo@@3_NA				; g_bUnlimitedAmmo
PUBLIC	?g_bUseNew3dpit@@3_NA				; g_bUseNew3dpit
PUBLIC	?g_bStartIn3Dpit@@3_NA				; g_bStartIn3Dpit
PUBLIC	?g_f3DHeadTilt@@3MA				; g_f3DHeadTilt
PUBLIC	?g_f3DPitFOV@@3MA				; g_f3DPitFOV
PUBLIC	?g_fButtonScaler@@3MA				; g_fButtonScaler
PUBLIC	?g_fButtonZScaler@@3MA				; g_fButtonZScaler
PUBLIC	?g_fDyn_Head_TiltMul@@3MA			; g_fDyn_Head_TiltMul
PUBLIC	?g_fDyn_Head_TiltRndGMul@@3MA			; g_fDyn_Head_TiltRndGMul
PUBLIC	?g_fDyn_Head_RollMul@@3MA			; g_fDyn_Head_RollMul
PUBLIC	?g_fDyn_Head_PanMul@@3MA			; g_fDyn_Head_PanMul
PUBLIC	?g_fDyn_Head_TiltRateMul@@3MA			; g_fDyn_Head_TiltRateMul
PUBLIC	?g_fDyn_Head_TiltGRateMul@@3MA			; g_fDyn_Head_TiltGRateMul
PUBLIC	?g_fDyn_Head_RollRate@@3MA			; g_fDyn_Head_RollRate
PUBLIC	?g_fDyn_Head_PanRate@@3MA			; g_fDyn_Head_PanRate
PUBLIC	?g_fdpitStart@@3MA				; g_fdpitStart
PUBLIC	?g_fdpitStop@@3MA				; g_fdpitStop
PUBLIC	?g_fTaxiEarly@@3MA				; g_fTaxiEarly
PUBLIC	?g_bUse_DX_Engine@@3_NA				; g_bUse_DX_Engine
PUBLIC	??_C@_0M@JPAFGJIM@UseDxEngine?$AA@		; `string'
PUBLIC	??_C@_0BO@DAPABCLA@ForceDXMultiThreadedCoopLevel?$AA@ ; `string'
PUBLIC	??_C@_0BD@HODIAADD@EnableABRelocation?$AA@	; `string'
PUBLIC	??_C@_0BI@BOBAJFBO@EnableWeatherExtensions?$AA@	; `string'
PUBLIC	??_C@_0BB@KJIICHEI@EnableWindsAloft?$AA@	; `string'
PUBLIC	??_C@_0BM@GJGBPECN@EnableNonPersistentTextures?$AA@ ; `string'
PUBLIC	??_C@_0BM@JAEBPNKM@EnableStaticTerrainTextures?$AA@ ; `string'
PUBLIC	??_C@_0BJ@GCBHCKKF@CheckBltStatusBeforeFlip?$AA@ ; `string'
PUBLIC	??_C@_0N@FDDNNIFL@EnableUplink?$AA@		; `string'
PUBLIC	??_C@_0P@BANNOFHF@EnableColorMfd?$AA@		; `string'
PUBLIC	??_C@_0BB@FDCIBLC@NewDamageEffects?$AA@		; `string'
PUBLIC	??_C@_0BE@DJEKHMNK@DisableFunkyChicken?$AA@	; `string'
PUBLIC	??_C@_0N@OMNJEGIN@SmartScaling?$AA@		; `string'
PUBLIC	??_C@_0BB@HNJOIELK@FloatingBullseye?$AA@	; `string'
PUBLIC	??_C@_0BP@ODHMDFMO@DisableCrashEjectCourtMartials?$AA@ ; `string'
PUBLIC	??_C@_0N@IFIEFKLK@ShowMipUsage?$AA@		; `string'
PUBLIC	??_C@_0O@BMIPOBNN@SmartCombatAP?$AA@		; `string'
PUBLIC	??_C@_0L@GEDKMKJF@NoRPMOnHUD?$AA@		; `string'
PUBLIC	??_C@_0O@KJLIAAOE@CATIIIDefault?$AA@		; `string'
PUBLIC	??_C@_0O@LHCANHGH@EPAFRadarCues?$AA@		; `string'
PUBLIC	??_C@_0BB@BFNFPBBE@RadarJamChevrons?$AA@	; `string'
PUBLIC	??_C@_0N@BJINEENB@AWACSSupport?$AA@		; `string'
PUBLIC	??_C@_0O@PPICECCN@AWACSRequired?$AA@		; `string'
PUBLIC	??_C@_0L@GMOBHLIP@Use3dSound?$AA@		; `string'
PUBLIC	??_C@_0M@KOMOMOBH@OldSoundAlg?$AA@		; `string'
PUBLIC	??_C@_0BB@FKIOKAEF@MultiEngineSound?$AA@	; `string'
PUBLIC	??_C@_0BA@NFEMLIIE@MFDHighContrast?$AA@		; `string'
PUBLIC	??_C@_0L@PMCMMNDA@IFlyMirage?$AA@		; `string'
PUBLIC	??_C@_09HCDILKPH@PowerGrid?$AA@			; `string'
PUBLIC	??_C@_0P@LILDLBPI@UseMappedFiles?$AA@		; `string'
PUBLIC	??_C@_05HIBBLBMA@NewFm?$AA@			; `string'
PUBLIC	??_C@_0BD@JAHCDCFJ@RealisticAttrition?$AA@	; `string'
PUBLIC	??_C@_0N@EMDJPEPI@GreyScaleMFD?$AA@		; `string'
PUBLIC	??_C@_06DNMIJEHJ@IFFRWR?$AA@			; `string'
PUBLIC	??_C@_09EDDKFAHB@3dCockpit?$AA@			; `string'
PUBLIC	??_C@_03FOMBOACJ@RWR?$AA@			; `string'
PUBLIC	??_C@_09JBONLPAM@BrightHUD?$AA@			; `string'
PUBLIC	??_C@_09JEGBIAG@3dMFDLeft?$AA@			; `string'
PUBLIC	??_C@_0L@PDJFOMEE@3dMFDRight?$AA@		; `string'
PUBLIC	??_C@_0BD@PHPIFOFB@3dDynamicPilotHead?$AA@	; `string'
PUBLIC	??_C@_0BA@JPCCLLAP@SimpleFMUpdates?$AA@		; `string'
PUBLIC	??_C@_0O@LOMJEIDE@NoMFDsIn1View?$AA@		; `string'
PUBLIC	??_C@_06LGMEBDBC@Server?$AA@			; `string'
PUBLIC	??_C@_0O@PMMAFHAM@ServerHostAll?$AA@		; `string'
PUBLIC	??_C@_09NHIOLBMG@LogEvents?$AA@			; `string'
PUBLIC	??_C@_08MKJAIDGB@VoiceCom?$AA@			; `string'
PUBLIC	??_C@_05BFIPGPFD@woeir?$AA@			; `string'
PUBLIC	??_C@_03JIJHNLG@MLU?$AA@			; `string'
PUBLIC	??_C@_03OKJDCOKF@IFF?$AA@			; `string'
PUBLIC	??_C@_03NDDFJJAJ@INS?$AA@			; `string'
PUBLIC	??_C@_0BE@LKGLBJDK@RP5DataCompatiblity?$AA@	; `string'
PUBLIC	??_C@_0L@JOJBNFBI@ModuleList?$AA@		; `string'
PUBLIC	??_C@_07FMFJLGFM@HiResUI?$AA@			; `string'
PUBLIC	??_C@_09GNPGNAEB@AWACSFuel?$AA@			; `string'
PUBLIC	??_C@_0O@JFLNFGBA@FullScreenNVG?$AA@		; `string'
PUBLIC	??_C@_0M@FFNMDFFK@LogUiErrors?$AA@		; `string'
PUBLIC	??_C@_0BK@HHNBHFID@LoadoutSquadStoreResupply?$AA@ ; `string'
PUBLIC	??_C@_0N@CENADPFP@DisplayTrees?$AA@		; `string'
PUBLIC	??_C@_0M@JOHNLPA@RequestHelp?$AA@		; `string'
PUBLIC	??_C@_0M@NIHNMLI@LightsKC135?$AA@		; `string'
PUBLIC	??_C@_0BA@NFJPGAEE@AddACSizeVisual?$AA@		; `string'
PUBLIC	??_C@_0M@PBBBGNFE@NewRackData?$AA@		; `string'
PUBLIC	??_C@_0M@IOPCONON@BMSRackData?$AA@		; `string'
PUBLIC	??_C@_0L@MNBONOJP@HelosReloc?$AA@		; `string'
PUBLIC	??_C@_09NPFDHEPC@ShowFlaps?$AA@			; `string'
PUBLIC	??_C@_0M@MMINDMLE@SlowButSafe?$AA@		; `string'
PUBLIC	??_C@_0L@KLNHFOAF@NewPadlock?$AA@		; `string'
PUBLIC	??_C@_0P@KNDOKDNJ@NoPadlockBoxes?$AA@		; `string'
PUBLIC	??_C@_0BC@MAHCILAL@PitchLimiterForAI?$AA@	; `string'
PUBLIC	??_C@_0P@LEGDLLNM@MissionACIcons?$AA@		; `string'
PUBLIC	??_C@_0BA@GLLFDLGP@EnableMfdColors?$AA@		; `string'
PUBLIC	??_C@_0O@MIMBHKJI@EnableMfdSize?$AA@		; `string'
PUBLIC	??_C@_0BE@EPNOGHNI@AIRefuelInComplexAF?$AA@	; `string'
PUBLIC	??_C@_0L@MBGAPEKL@NewAcmiHud?$AA@		; `string'
PUBLIC	??_C@_0BA@EFBALDAB@AWACSBackground?$AA@		; `string'
PUBLIC	??_C@_08MHEBNPF@MavFixes?$AA@			; `string'
PUBLIC	??_C@_08EOPBLIOM@LgbFixes?$AA@			; `string'
PUBLIC	??_C@_0BD@KOEGGDKO@FallingHeadingTape?$AA@	; `string'
PUBLIC	??_C@_0O@JHIMBKBM@NewRefuelHelp?$AA@		; `string'
PUBLIC	??_C@_0BB@NLPJDECN@OtherGroundCheck?$AA@	; `string'
PUBLIC	??_C@_0BC@BBIMDAFF@Limit2DRadarFight?$AA@	; `string'
PUBLIC	??_C@_0BL@IDAGFGKL@AdvancedGroundChooseWeapon?$AA@ ; `string'
PUBLIC	??_C@_08MEFGJPBP@TFRFixes?$AA@			; `string'
PUBLIC	??_C@_06DOMAHNHD@AIGloc?$AA@			; `string'
PUBLIC	??_C@_0BH@DHPHDCBG@CalibrateTFR_PitchCtrl?$AA@	; `string'
PUBLIC	??_C@_09CCBPHLOF@LantDebug?$AA@			; `string'
PUBLIC	??_C@_0P@HDGMLBIK@UseNewCanEnage?$AA@		; `string'
PUBLIC	??_C@_0BC@MNDEGEPH@MPStartRestricted?$AA@	; `string'
PUBLIC	??_C@_0BB@HNDLNA@UseSkillForFlaks?$AA@		; `string'
PUBLIC	??_C@_0BB@GJHIHGJG@ToggleAAAGunFlag?$AA@	; `string'
PUBLIC	??_C@_0P@BHCMJLKD@UseTankerTrack?$AA@		; `string'
PUBLIC	??_C@_0BJ@CLIPICFC@UseComplexBVRForPlayerAI?$AA@ ; `string'
PUBLIC	??_C@_0N@LCONHMAD@FuelUseVtDot?$AA@		; `string'
PUBLIC	??_C@_0BG@JHJCJKBA@FuelLimitBecauseVtDot?$AA@	; `string'
PUBLIC	??_C@_0BK@PNDABNIL@UseAggresiveIncompleteA2G?$AA@ ; `string'
PUBLIC	??_C@_0P@IFBNLFCA@NewPitchLadder?$AA@		; `string'
PUBLIC	??_C@_0N@EAJHDDIH@AddIngressWP?$AA@		; `string'
PUBLIC	??_C@_0BA@OCBOHBEA@TankerWaypoints?$AA@		; `string'
PUBLIC	??_C@_0M@MLCLHDON@PutAIToBoom?$AA@		; `string'
PUBLIC	??_C@_0N@CMBBACE@OldStackDump?$AA@		; `string'
PUBLIC	??_C@_0M@LPBECEEF@TankerFMFix?$AA@		; `string'
PUBLIC	??_C@_0N@FADECMI@AGRadarFixes?$AA@		; `string'
PUBLIC	??_C@_0O@JLJNJCMO@LookCloserFix?$AA@		; `string'
PUBLIC	??_C@_0BA@FFPNCKHA@AnyWaypointTask?$AA@		; `string'
PUBLIC	??_C@_0M@BOACOPCD@FFCenterFix?$AA@		; `string'
PUBLIC	??_C@_0BB@EOMIEJNL@CockpitAutoScale?$AA@	; `string'
PUBLIC	??_C@_0BI@NGFEJIBD@3DClickableCockpitDebug?$AA@	; `string'
PUBLIC	??_C@_0BC@OLFADGNI@3DRTTCockpitDebug?$AA@	; `string'
PUBLIC	??_C@_0BI@LGLKLFDB@3DClickableCursorChange?$AA@	; `string'
PUBLIC	??_C@_0O@POKCJEBG@DEDSpacingFix?$AA@		; `string'
PUBLIC	??_C@_0N@BCEEDNO@ReconLatLong?$AA@		; `string'
PUBLIC	??_C@_09CJLDLDD@RatioHack?$AA@			; `string'
PUBLIC	??_C@_0BD@PNLHFGBB@PrecisionWaypoints?$AA@	; `string'
PUBLIC	??_C@_0BA@OBMNLAKJ@SmallerBullseye?$AA@		; `string'
PUBLIC	??_C@_0P@JFEFEAKN@AutoScaleFonts?$AA@		; `string'
PUBLIC	??_C@_0BF@GPDDPCBB@EnableRandomFailures?$AA@	; `string'
PUBLIC	??_C@_0BA@OOLLLJDM@2DPitWingFOVFix?$AA@		; `string'
PUBLIC	??_C@_0BA@OJJCMMHA@OldFontTexelFix?$AA@		; `string'
PUBLIC	??_C@_0M@NGBMIBBH@Filter2DPit?$AA@		; `string'
PUBLIC	??_C@_08EDEADKDH@CrackFix?$AA@			; `string'
PUBLIC	??_C@_0BB@KFIBFEKH@ResizeUsesResMgr?$AA@	; `string'
PUBLIC	??_C@_0BA@NIMIGMAE@PadlockHudColor?$AA@		; `string'
PUBLIC	??_C@_0BC@NDOBAMEH@CheckFeatureIndex?$AA@	; `string'
PUBLIC	??_C@_0M@BKJLMPFC@MachAsiDial?$AA@		; `string'
PUBLIC	??_C@_0N@JDDAGMMH@New2DTrackIR?$AA@		; `string'
PUBLIC	??_C@_0M@HPAJJJKH@Sync2D3DPit?$AA@		; `string'
PUBLIC	??_C@_0L@GLPDEGIL@LowBwVoice?$AA@		; `string'
PUBLIC	??_C@_0O@OBLODPNM@AGTargetWPFix?$AA@		; `string'
PUBLIC	??_C@_0BA@HCEBKICP@BombNumLoopOnly?$AA@		; `string'
PUBLIC	??_C@_0BC@NCKOLEGB@AlwaysAnisotropic?$AA@	; `string'
PUBLIC	??_C@_0BC@FIMBFGHK@NoAAAEventRecords?$AA@	; `string'
PUBLIC	??_C@_0BD@JCCBLOJD@ActivateDebugStuff?$AA@	; `string'
PUBLIC	??_C@_0BF@LMKIJKDL@ActivateMissileDebug?$AA@	; `string'
PUBLIC	??_C@_0BD@LNALKBHL@NewSensorPrecision?$AA@	; `string'
PUBLIC	??_C@_0L@BNLFLHLJ@AGNoBVRWVR?$AA@		; `string'
PUBLIC	??_C@_0BA@MIHHENE@TO_LDG_LightFix?$AA@		; `string'
PUBLIC	??_C@_0BF@IPGINMJE@AppendToBriefingFile?$AA@	; `string'
PUBLIC	??_C@_0L@MBDOGONP@DarkHudFix?$AA@		; `string'
PUBLIC	??_C@_06KCOHPJHE@RQDFix?$AA@			; `string'
PUBLIC	??_C@_0P@HALBPCMP@ACPlayerCTDFix?$AA@		; `string'
PUBLIC	??_C@_0N@FLGDBIIB@CheckForMode?$AA@		; `string'
PUBLIC	??_C@_0O@BPCJMHGI@AllowOverload?$AA@		; `string'
PUBLIC	??_C@_0BE@EJFCLLNL@UseDefinedGunDomain?$AA@	; `string'
PUBLIC	??_C@_0P@PODBGMK@LabelRadialFix?$AA@		; `string'
PUBLIC	??_C@_0BC@MCFNANOH@LabelShowDistance?$AA@	; `string'
PUBLIC	??_C@_0BC@BFLCFKFJ@SetWaypointNumFix?$AA@	; `string'
PUBLIC	??_C@_0BB@FNGCFHBD@EmptyFilenameFix?$AA@	; `string'
PUBLIC	??_C@_0BB@MDDAFMNM@RebuildbobbleFix?$AA@	; `string'
PUBLIC	??_C@_05NLHHIMJF@MPFix?$AA@			; `string'
PUBLIC	??_C@_06GNMOEEDG@MPFix2?$AA@			; `string'
PUBLIC	??_C@_06HENFHFHH@MPFix3?$AA@			; `string'
PUBLIC	??_C@_06DLJEODLA@MPFix4?$AA@			; `string'
PUBLIC	??_C@_0BC@MPPGCPH@ExitCampSelectFix?$AA@	; `string'
PUBLIC	??_C@_0BC@KADNOGMI@CampSavedMenuHack?$AA@	; `string'
PUBLIC	??_C@_0BF@MPAIMHGE@EmergencyJettisonFix?$AA@	; `string'
PUBLIC	??_C@_0P@BNHDBBJD@OldSamActivity?$AA@		; `string'
PUBLIC	??_C@_0O@EPBBDKGP@FireOntheMove?$AA@		; `string'
PUBLIC	??_C@_0BA@DCMLMHIC@SAM2D3DHandover?$AA@		; `string'
PUBLIC	??_C@_07POPACGNO@MavFix2?$AA@			; `string'
PUBLIC	??_C@_0BG@CCDGAFHB@DisableMissileEngGlow?$AA@	; `string'
PUBLIC	??_C@_06PKNIHIOC@HUDFix?$AA@			; `string'
PUBLIC	??_C@_0BD@IEKFPDMB@SMSPylonLoadingFix?$AA@	; `string'
PUBLIC	??_C@_0M@GJBGJBPG@LargeStrike?$AA@		; `string'
PUBLIC	??_C@_0N@DNANAGMB@TakeoffSound?$AA@		; `string'
PUBLIC	??_C@_08BNNIANJF@Scramble?$AA@			; `string'
PUBLIC	??_C@_06FMJLOEBN@hudAOA?$AA@			; `string'
PUBLIC	??_C@_09NPEAAMPE@LensFlare?$AA@			; `string'
PUBLIC	??_C@_0BE@EEPCKBHI@DisableHighFartiles?$AA@	; `string'
PUBLIC	??_C@_0N@GCFLLIPN@noRadStutter?$AA@		; `string'
PUBLIC	??_C@_0BE@LADJIFHB@RollLinkedNWSRudder?$AA@	; `string'
PUBLIC	??_C@_0BH@OCMLJDFA@EnableGRCursorBullseye?$AA@	; `string'
PUBLIC	??_C@_09JIIKAKDF@BriefHTML?$AA@			; `string'
EXTRN	?NumHats@@3HA:DWORD				; NumHats
_BSS	SEGMENT
?g_bDrawWakeTurbulence@@3_NA DB 01H DUP (?)		; g_bDrawWakeTurbulence
	ALIGN	4

?g_bWeaponLaunchUsesDrawPointerPos@@3_NA DB 01H DUP (?)	; g_bWeaponLaunchUsesDrawPointerPos
	ALIGN	4

?g_bExtViewOnGround@@3_NA DB 01H DUP (?)		; g_bExtViewOnGround
	ALIGN	4

?g_nThrottleMode@@3HA DD 01H DUP (?)			; g_nThrottleMode
?g_bEnableABRelocation@@3_NA DB 01H DUP (?)		; g_bEnableABRelocation
	ALIGN	4

?g_bEnableWindsAloft@@3_NA DB 01H DUP (?)		; g_bEnableWindsAloft
	ALIGN	4

?g_bEPAFRadarCues@@3_NA DB 01H DUP (?)			; g_bEPAFRadarCues
	ALIGN	4

?g_bRadarJamChevrons@@3_NA DB 01H DUP (?)		; g_bRadarJamChevrons
	ALIGN	4

?g_bAWACSSupport@@3_NA DB 01H DUP (?)			; g_bAWACSSupport
	ALIGN	4

?g_bAWACSRequired@@3_NA DB 01H DUP (?)			; g_bAWACSRequired
	ALIGN	4

?g_bAWACSBackground@@3_NA DB 01H DUP (?)		; g_bAWACSBackground
	ALIGN	4

?g_bMLU@@3_NA DB 01H DUP (?)				; g_bMLU
	ALIGN	4

?g_bServer@@3_NA DB 01H DUP (?)				; g_bServer
	ALIGN	4

?g_bServerHostAll@@3_NA DB 01H DUP (?)			; g_bServerHostAll
	ALIGN	4

?g_bLogEvents@@3_NA DB 01H DUP (?)			; g_bLogEvents
	ALIGN	4

?g_bwoeir@@3_NA DB 01H DUP (?)				; g_bwoeir
	ALIGN	4

?g_nDeagTimer@@3HA DD 01H DUP (?)			; g_nDeagTimer
?g_nReagTimer@@3HA DD 01H DUP (?)			; g_nReagTimer
?g_bShowFlaps@@3_NA DB 01H DUP (?)			; g_bShowFlaps
	ALIGN	4

?g_bLowBwVoice@@3_NA DB 01H DUP (?)			; g_bLowBwVoice
	ALIGN	4

?g_bToggleAAAGunFlag@@3_NA DB 01H DUP (?)		; g_bToggleAAAGunFlag
	ALIGN	4

?g_bUseComplexBVRForPlayerAI@@3_NA DB 01H DUP (?)	; g_bUseComplexBVRForPlayerAI
	ALIGN	4

?g_bOldStackDump@@3_NA DB 01H DUP (?)			; g_bOldStackDump
	ALIGN	4

?g_bUseDefinedGunDomain@@3_NA DB 01H DUP (?)		; g_bUseDefinedGunDomain
	ALIGN	4

?g_bEnableNonPersistentTextures@@3_NA DB 01H DUP (?)	; g_bEnableNonPersistentTextures
	ALIGN	4

?g_bEnableStaticTerrainTextures@@3_NA DB 01H DUP (?)	; g_bEnableStaticTerrainTextures
	ALIGN	4

?g_bForceSoftwareGUI@@3_NA DB 01H DUP (?)		; g_bForceSoftwareGUI
	ALIGN	4

?g_bShowMipUsage@@3_NA DB 01H DUP (?)			; g_bShowMipUsage
	ALIGN	4

?g_bUse3dSound@@3_NA DB 01H DUP (?)			; g_bUse3dSound
	ALIGN	4

?g_bMFDHighContrast@@3_NA DB 01H DUP (?)		; g_bMFDHighContrast
	ALIGN	4

?g_bUseMappedFiles@@3_NA DB 01H DUP (?)			; g_bUseMappedFiles
	ALIGN	4

?g_bBMSRackData@@3_NA DB 01H DUP (?)			; g_bBMSRackData
	ALIGN	4

?g_nLowDetailFactor@@3HA DD 01H DUP (?)			; g_nLowDetailFactor
?g_fHUDonlySize@@3MA DD 01H DUP (?)			; g_fHUDonlySize
?g_fMipLodBias@@3MA DD 01H DUP (?)			; g_fMipLodBias
?g_bEnableUplink@@3_NA DB 01H DUP (?)			; g_bEnableUplink
	ALIGN	4

?g_strMasterServerName@@3PADA DB 040H DUP (?)		; g_strMasterServerName
?g_nMasterServerPort@@3HA DD 01H DUP (?)		; g_nMasterServerPort
?g_strServerName@@3PADA DB 040H DUP (?)			; g_strServerName
?g_strServerLocation@@3PADA DB 040H DUP (?)		; g_strServerLocation
?g_strServerAdmin@@3PADA DB 040H DUP (?)		; g_strServerAdmin
?g_strServerAdminEmail@@3PADA DB 040H DUP (?)		; g_strServerAdminEmail
?g_strVoiceHostIP@@3PADA DB 040H DUP (?)		; g_strVoiceHostIP
?g_bMPStartRestricted@@3_NA DB 01H DUP (?)		; g_bMPStartRestricted
	ALIGN	4

?g_bSlowButSafe@@3_NA DB 01H DUP (?)			; g_bSlowButSafe
	ALIGN	4

?g_bSmartScaling@@3_NA DB 01H DUP (?)			; g_bSmartScaling
	ALIGN	4

?g_bFloatingBullseye@@3_NA DB 01H DUP (?)		; g_bFloatingBullseye
	ALIGN	4

?g_bRealisticAttrition@@3_NA DB 01H DUP (?)		; g_bRealisticAttrition
	ALIGN	4

?g_bIFFRWR@@3_NA DB 01H DUP (?)				; g_bIFFRWR
	ALIGN	4

?g_bSimpleFMUpdates@@3_NA DB 01H DUP (?)		; g_bSimpleFMUpdates
	ALIGN	4

?g_b3dDynamicPilotHead@@3_NA DB 01H DUP (?)		; g_b3dDynamicPilotHead
	ALIGN	4

?g_bBrightHUD@@3_NA DB 01H DUP (?)			; g_bBrightHUD
	ALIGN	4

?g_bModuleList@@3_NA DB 01H DUP (?)			; g_bModuleList
	ALIGN	4

?g_bOldDustTrail@@3_NA DB 01H DUP (?)			; g_bOldDustTrail
	ALIGN	4

?g_nPSKillFPS@@3HA DD 01H DUP (?)			; g_nPSKillFPS
?g_bHighSFX@@3_NA DB 01H DUP (?)			; g_bHighSFX
	ALIGN	4

?g_bAllHaveIFF@@3_NA DB 01H DUP (?)			; g_bAllHaveIFF
	ALIGN	4

?g_bUseRC135@@3_NA DB 01H DUP (?)			; g_bUseRC135
	ALIGN	4

?g_bFFDBC@@3_NA DB 01H DUP (?)				; g_bFFDBC
	ALIGN	4

?g_bCATIIIDefault@@3_NA DB 01H DUP (?)			; g_bCATIIIDefault
	ALIGN	4

?g_bIFlyMirage@@3_NA DB 01H DUP (?)			; g_bIFlyMirage
	ALIGN	4

?g_bNoMFDsIn1View@@3_NA DB 01H DUP (?)			; g_bNoMFDsIn1View
	ALIGN	4

?g_bGreyScaleMFD@@3_NA DB 01H DUP (?)			; g_bGreyScaleMFD
	ALIGN	4

?g_bNoPadlockBoxes@@3_NA DB 01H DUP (?)			; g_bNoPadlockBoxes
	ALIGN	4

?g_bFallingHeadingTape@@3_NA DB 01H DUP (?)		; g_bFallingHeadingTape
	ALIGN	4

?g_bCalibrateTFR_PitchCtrl@@3_NA DB 01H DUP (?)		; g_bCalibrateTFR_PitchCtrl
	ALIGN	4

?g_bLantDebug@@3_NA DB 01H DUP (?)			; g_bLantDebug
	ALIGN	4

?g_fGroundImpactMod@@3MA DD 01H DUP (?)			; g_fGroundImpactMod
?g_bAIRefuelInComplexAF@@3_NA DB 01H DUP (?)		; g_bAIRefuelInComplexAF
	ALIGN	4

?g_bAWACSFuel@@3_NA DB 01H DUP (?)			; g_bAWACSFuel
	ALIGN	4

?g_bLogUiErrors@@3_NA DB 01H DUP (?)			; g_bLogUiErrors
	ALIGN	4

?g_bDisplayTrees@@3_NA DB 01H DUP (?)			; g_bDisplayTrees
	ALIGN	4

?g_bOldSamActivity@@3_NA DB 01H DUP (?)			; g_bOldSamActivity
	ALIGN	4

?g_bFireOntheMove@@3_NA DB 01H DUP (?)			; g_bFireOntheMove
	ALIGN	4

?g_frollStickOffset@@3MA DD 01H DUP (?)			; g_frollStickOffset
?g_bEnableGRCursorBullseye@@3_NA DB 01H DUP (?)		; g_bEnableGRCursorBullseye
	ALIGN	4

?g_bEnableFCCSubNavCycle@@3_NA DB 01H DUP (?)		; g_bEnableFCCSubNavCycle
	ALIGN	4

?g_bDisableCommsBorder@@3_NA DB 01H DUP (?)		; g_bDisableCommsBorder
	ALIGN	4

?g_bEcmOnHud@@3_NA DB 01H DUP (?)			; g_bEcmOnHud
	ALIGN	4

?g_bBrakeOnHud@@3_NA DB 01H DUP (?)			; g_bBrakeOnHud
	ALIGN	4

?g_bGearOnHud@@3_NA DB 01H DUP (?)			; g_bGearOnHud
	ALIGN	4

?g_bOtherGroundCheck@@3_NA DB 01H DUP (?)		; g_bOtherGroundCheck
	ALIGN	4

?g_bAIGloc@@3_NA DB 01H DUP (?)				; g_bAIGloc
	ALIGN	4

?g_bFFCenterFix@@3_NA DB 01H DUP (?)			; g_bFFCenterFix
	ALIGN	4

?g_b3DClickableCockpitDebug@@3_NA DB 01H DUP (?)	; g_b3DClickableCockpitDebug
	ALIGN	4

?g_b3DRTTCockpitDebug@@3_NA DB 01H DUP (?)		; g_b3DRTTCockpitDebug
	ALIGN	4

?g_nForceCockpitResolution@@3HA DD 01H DUP (?)		; g_nForceCockpitResolution
?g_n3DHeadPanRange@@3HA DD 01H DUP (?)			; g_n3DHeadPanRange
?g_bPrecisionWaypoints@@3_NA DB 01H DUP (?)		; g_bPrecisionWaypoints
	ALIGN	4

?g_bSmallerBullseye@@3_NA DB 01H DUP (?)		; g_bSmallerBullseye
	ALIGN	4

?g_bRealisticMavTime@@3_NA DB 01H DUP (?)		; g_bRealisticMavTime
	ALIGN	4

?g_bnewAMRAAMdlz@@3_NA DB 01H DUP (?)			; g_bnewAMRAAMdlz
	ALIGN	4

?g_bMLUM2TAinHUD@@3_NA DB 01H DUP (?)			; g_bMLUM2TAinHUD
	ALIGN	4

?g_n6DOFTIR@@3HA DD 01H DUP (?)				; g_n6DOFTIR
?g_fWideviewFOV@@3MA DD 01H DUP (?)			; g_fWideviewFOV
?g_fMeanTimeBetweenFailures@@3MA DD 01H DUP (?)		; g_fMeanTimeBetweenFailures
?g_bEnableRandomFailures@@3_NA DB 01H DUP (?)		; g_bEnableRandomFailures
	ALIGN	4

?g_bOldFontTexelFix@@3_NA DB 01H DUP (?)		; g_bOldFontTexelFix
	ALIGN	4

?g_nShow2DPitErrors@@3HA DD 01H DUP (?)			; g_nShow2DPitErrors
?g_bCrackFix@@3_NA DB 01H DUP (?)			; g_bCrackFix
	ALIGN	4

?g_bResizeUsesResMgr@@3_NA DB 01H DUP (?)		; g_bResizeUsesResMgr
	ALIGN	4

?g_nMiniDump@@3HA DD 01H DUP (?)			; g_nMiniDump
?g_bCheckFeatureIndex@@3_NA DB 01H DUP (?)		; g_bCheckFeatureIndex
	ALIGN	4

?g_bMachAsiDial@@3_NA DB 01H DUP (?)			; g_bMachAsiDial
	ALIGN	4

?g_bSync2D3DPit@@3_NA DB 01H DUP (?)			; g_bSync2D3DPit
	ALIGN	4

?g_bAGTargetWPFix@@3_NA DB 01H DUP (?)			; g_bAGTargetWPFix
	ALIGN	4

?g_bAlwaysAnisotropic@@3_NA DB 01H DUP (?)		; g_bAlwaysAnisotropic
	ALIGN	4

?g_fTgtDZFactor@@3MA DD 01H DUP (?)			; g_fTgtDZFactor
?g_bNoAAAEventRecords@@3_NA DB 01H DUP (?)		; g_bNoAAAEventRecords
	ALIGN	4

?g_nATCTaxiOrderFix@@3HA DD 01H DUP (?)			; g_nATCTaxiOrderFix
?g_bF4CommsMTU@@3_NA DB 01H DUP (?)			; g_bF4CommsMTU
	ALIGN	4

?g_strRadioflightCol@@3PADA DB 040H DUP (?)		; g_strRadioflightCol
?g_strRadiotoPackageCol@@3PADA DB 040H DUP (?)		; g_strRadiotoPackageCol
?g_strRadioToFromPackageCol@@3PADA DB 040H DUP (?)	; g_strRadioToFromPackageCol
?g_strRadioTeamCol@@3PADA DB 040H DUP (?)		; g_strRadioTeamCol
?g_strRadioProximityCol@@3PADA DB 040H DUP (?)		; g_strRadioProximityCol
?g_strRadioWorldCol@@3PADA DB 040H DUP (?)		; g_strRadioWorldCol
?g_strRadioTowerCol@@3PADA DB 040H DUP (?)		; g_strRadioTowerCol
?g_strRadioStandardCol@@3PADA DB 040H DUP (?)		; g_strRadioStandardCol
?g_bEnableDisplacementCam@@3_NA DB 01H DUP (?)		; g_bEnableDisplacementCam
	ALIGN	4

?g_bUseNewSmoothing@@3_NA DB 01H DUP (?)		; g_bUseNewSmoothing
	ALIGN	4

?g_bDisplayAxisValues@@3_NA DB 01H DUP (?)		; g_bDisplayAxisValues
	ALIGN	4

?g_bPilotEntertainment@@3_NA DB 01H DUP (?)		; g_bPilotEntertainment
	ALIGN	4

?g_bActivateDebugStuff@@3_NA DB 01H DUP (?)		; g_bActivateDebugStuff
	ALIGN	4

?g_bActivateMissileDebug@@3_NA DB 01H DUP (?)		; g_bActivateMissileDebug
	ALIGN	4

?g_bLabelShowDistance@@3_NA DB 01H DUP (?)		; g_bLabelShowDistance
	ALIGN	4

?g_bSAM2D3DHandover@@3_NA DB 01H DUP (?)		; g_bSAM2D3DHandover
	ALIGN	4

?g_nChooseBullseyeFix@@3HA DD 01H DUP (?)		; g_nChooseBullseyeFix
?g_bSetWaypointNumFix@@3_NA DB 01H DUP (?)		; g_bSetWaypointNumFix
	ALIGN	4

?g_bAppendToBriefingFile@@3_NA DB 01H DUP (?)		; g_bAppendToBriefingFile
	ALIGN	4

?g_nPrintToFile@@3HA DD 01H DUP (?)			; g_nPrintToFile
?g_nGfxFix@@3HA DD 01H DUP (?)				; g_nGfxFix
?g_bAGNoBVRWVR@@3_NA DB 01H DUP (?)			; g_bAGNoBVRWVR
	ALIGN	4

?gFuelState@@3KA DD 01H DUP (?)				; gFuelState
?g_nShowDebugLabels@@3HA DD 01H DUP (?)			; g_nShowDebugLabels
?g_fMfdRed@@3MA DD 01H DUP (?)				; g_fMfdRed
?g_fMfdBlue@@3MA DD 01H DUP (?)				; g_fMfdBlue
?g_bMavFix2@@3_NA DB 01H DUP (?)			; g_bMavFix2
	ALIGN	4

?g_bSMSPylonLoadingFix@@3_NA DB 01H DUP (?)		; g_bSMSPylonLoadingFix
	ALIGN	4

?g_bWeaponStepToGun@@3_NA DB 01H DUP (?)		; g_bWeaponStepToGun
	ALIGN	4

?g_bEnableDopplerSound@@3_NA DB 01H DUP (?)		; g_bEnableDopplerSound
	ALIGN	4

?g_bSoundDistanceEffect@@3_NA DB 01H DUP (?)		; g_bSoundDistanceEffect
	ALIGN	4

?g_bNewEngineSounds@@3_NA DB 01H DUP (?)		; g_bNewEngineSounds
	ALIGN	4

?g_bLargeStrike@@3_NA DB 01H DUP (?)			; g_bLargeStrike
	ALIGN	4

?g_bTakeoffSound@@3_NA DB 01H DUP (?)			; g_bTakeoffSound
	ALIGN	4

?g_bUseAnalogIdleCutoff@@3_NA DB 01H DUP (?)		; g_bUseAnalogIdleCutoff
	ALIGN	4

?g_bUnlimitedAmmo@@3_NA DB 01H DUP (?)			; g_bUnlimitedAmmo
	ALIGN	4

?g_bUseNew3dpit@@3_NA DB 01H DUP (?)			; g_bUseNew3dpit
	ALIGN	4

?g_bStartIn3Dpit@@3_NA DB 01H DUP (?)			; g_bStartIn3Dpit
_BSS	ENDS
_DATA	SEGMENT
?g_bWakeTurbulence@@3_NA DB 01H				; g_bWakeTurbulence
?g_bForceDXMultiThreadedCoopLevel@@3_NA DB 01H		; g_bForceDXMultiThreadedCoopLevel
?g_bEnableWeatherExtensions@@3_NA DB 01H		; g_bEnableWeatherExtensions
?g_bEnableColorMfd@@3_NA DB 01H				; g_bEnableColorMfd
?g_bVoiceCom@@3_NA DB 01H				; g_bVoiceCom
	ORG $+3
?g_nPadlockBoxSize@@3HA DD 02H				; g_nPadlockBoxSize
?clientbwforupdatesmodifyer@@3MA DD 03f333333r	; 0.7	; clientbwforupdatesmodifyer
?hostbwforupdatesmodifyer@@3MA DD 03f333333r	; 0.7	; hostbwforupdatesmodifyer
?g_nMaxUIRefresh@@3HA DD 010H				; g_nMaxUIRefresh
?g_nUnidentifiedInUI@@3HA DD 01H			; g_nUnidentifiedInUI
?g_fIdentFactor@@3MA DD 03f400000r		; 0.75	; g_fIdentFactor
?g_bLimit2DRadarFight@@3_NA DB 01H			; g_bLimit2DRadarFight
?g_bAdvancedGroundChooseWeapon@@3_NA DB 01H		; g_bAdvancedGroundChooseWeapon
?g_bUseNewCanEnage@@3_NA DB 01H				; g_bUseNewCanEnage
	ORG $+1
?g_nLowestSkillForGCI@@3HA DD 03H			; g_nLowestSkillForGCI
?g_nAIVisualRetentionTime@@3HA DD 05dc0H		; g_nAIVisualRetentionTime
?g_nAIVisualRetentionSkill@@3HA DD 07d0H		; g_nAIVisualRetentionSkill
?g_fBiasFactorForFlaks@@3MA DD 047c35000r	; 100000 ; g_fBiasFactorForFlaks
?g_bUseSkillForFlaks@@3_NA DB 01H			; g_bUseSkillForFlaks
	ORG $+3
?g_fTracerAccuracyFactor@@3MA DD 03dcccccdr	; 0.1	; g_fTracerAccuracyFactor
?g_fFuelBaseProp@@3MA DD 042c80000r		; 100	; g_fFuelBaseProp
?g_fFuelMultProp@@3MA DD 03c03126fr		; 0.008	; g_fFuelMultProp
?g_fFuelTimeStep@@3MA DD 03a83126fr		; 0.001	; g_fFuelTimeStep
?g_bFuelUseVtDot@@3_NA DB 01H				; g_bFuelUseVtDot
	ORG $+3
?g_fFuelVtClip@@3MA DD 040a00000r		; 5	; g_fFuelVtClip
?g_fFuelVtDotMult@@3MA DD 040a00000r		; 5	; g_fFuelVtDotMult
?g_bFuelLimitBecauseVtDot@@3_NA DB 01H			; g_bFuelLimitBecauseVtDot
	ORG $+3
?g_fSearchSimTargetFromRangeSqr@@3MA DD 0505c0ff8r ; 1.47681e+010 ; g_fSearchSimTargetFromRangeSqr
?g_bUseAggresiveIncompleteA2G@@3_NA DB 01H		; g_bUseAggresiveIncompleteA2G
	ORG $+3
?g_fHotNoseAngle@@3MA DD 042480000r		; 50	; g_fHotNoseAngle
?g_fMaxMARNoIdA@@3MA DD 041200000r		; 10	; g_fMaxMARNoIdA
?g_fMinMARNoId5kA@@3MA DD 040a00000r		; 5	; g_fMinMARNoId5kA
?g_fMinMARNoId18kA@@3MA DD 041400000r		; 12	; g_fMinMARNoId18kA
?g_fMinMARNoId28kA@@3MA DD 041880000r		; 17	; g_fMinMARNoId28kA
?g_fMaxMARNoIdB@@3MA DD 040a00000r		; 5	; g_fMaxMARNoIdB
?g_fMinMARNoId5kB@@3MA DD 040400000r		; 3	; g_fMinMARNoId5kB
?g_fMinMARNoId18kB@@3MA DD 040a00000r		; 5	; g_fMinMARNoId18kB
?g_fMinMARNoId28kB@@3MA DD 041000000r		; 8	; g_fMinMARNoId28kB
?g_fMinMARNoIdC@@3MA DD 040a00000r		; 5	; g_fMinMARNoIdC
?g_fSSoffsetManeuverPoints1a@@3MA DD 040a00000r	; 5	; g_fSSoffsetManeuverPoints1a
?g_fSSoffsetManeuverPoints1b@@3MA DD 040a00000r	; 5	; g_fSSoffsetManeuverPoints1b
?g_fSSoffsetManeuverPoints2a@@3MA DD 040800000r	; 4	; g_fSSoffsetManeuverPoints2a
?g_fSSoffsetManeuverPoints2b@@3MA DD 040a00000r	; 5	; g_fSSoffsetManeuverPoints2b
?g_fPinceManeuverPoints1a@@3MA DD 040a00000r	; 5	; g_fPinceManeuverPoints1a
?g_fPinceManeuverPoints1b@@3MA DD 040a00000r	; 5	; g_fPinceManeuverPoints1b
?g_fPinceManeuverPoints2a@@3MA DD 040800000r	; 4	; g_fPinceManeuverPoints2a
?g_fPinceManeuverPoints2b@@3MA DD 040a00000r	; 5	; g_fPinceManeuverPoints2b
?g_nPadlockMode@@3HA DD 0eH				; g_nPadlockMode
?g_nAirbaseReloc@@3HA DD 02H				; g_nAirbaseReloc
?g_bPitchLimiterForAI@@3_NA DB 01H			; g_bPitchLimiterForAI
	ORG $+3
?g_nTargetSpotTimeout@@3HA DD 01d4c0H			; g_nTargetSpotTimeout
?g_bRP5Comp@@3_NA DB 01H				; g_bRP5Comp
?g_bCheckBltStatusBeforeFlip@@3_NA DB 01H		; g_bCheckBltStatusBeforeFlip
?g_bOldSoundAlg@@3_NA DB 01H				; g_bOldSoundAlg
	ORG $+1
?g_nDynamicVoices@@3HA DD 010H				; g_nDynamicVoices
?g_bSoundSonicBoom@@3_NA DB 01H				; g_bSoundSonicBoom
?g_bMultiEngineSound@@3_NA DB 01H			; g_bMultiEngineSound
?g_bPowerGrid@@3_NA DB 01H				; g_bPowerGrid
?g_bNewRackData@@3_NA DB 01H				; g_bNewRackData
?g_bNewAcmiHud@@3_NA DB 01H				; g_bNewAcmiHud
	ORG $+3
?g_fCloudMinHeight@@3MA DD 0bf800000r		; -1	; g_fCloudMinHeight
?g_fRadarScale@@3MA DD 03f800000r		; 1	; g_fRadarScale
?g_fCursorSpeed@@3MA DD 03f800000r		; 1	; g_fCursorSpeed
?g_fMinCloudWeather@@3MA DD 044bb8000r		; 1500	; g_fMinCloudWeather
?g_fCloudThicknessFactor@@3MA DD 0457a0000r	; 4000	; g_fCloudThicknessFactor
?g_fdwPortclient@@3MA DD 045379000r		; 2937	; g_fdwPortclient
?g_fdwPorthost@@3MA DD 045378000r		; 2936	; g_fdwPorthost
	ORG $+4
?g_strWorldName@@3PADA DB 'FFVIPER', 00H		; g_strWorldName
	ORG $+56
?g_strScrollUpFunction@@3PADA DB 'FOVDecrease', 00H	; g_strScrollUpFunction
	ORG $+52
?g_strScrollDownFunction@@3PADA DB 'FOVIncrease', 00H	; g_strScrollDownFunction
	ORG $+52
?g_strMiddleButtonFunction@@3PADA DB 'FOVDefault', 00H	; g_strMiddleButtonFunction
	ORG $+53
?g_nNearLabelLimit@@3HA DD 014H				; g_nNearLabelLimit
?g_nACMIOptionsPopupHiResX@@3HA DD 029aH		; g_nACMIOptionsPopupHiResX
?g_nACMIOptionsPopupHiResY@@3HA DD 0245H		; g_nACMIOptionsPopupHiResY
?g_nACMIOptionsPopupLowResX@@3HA DD 01f4H		; g_nACMIOptionsPopupLowResX
?g_nACMIOptionsPopupLowResY@@3HA DD 01f4H		; g_nACMIOptionsPopupLowResY
?g_nMaxSimTimeAcceleration@@3HA DD 040H			; g_nMaxSimTimeAcceleration
?g_nMPStartTime@@3HA DD 05H				; g_nMPStartTime
?g_nTaxiLaunchTime@@3HA DD 02H				; g_nTaxiLaunchTime
?g_nFFEffectAutoCenter@@3HA DD 0ffffffffH		; g_nFFEffectAutoCenter
?g_bMissionACIcons@@3_NA DB 01H				; g_bMissionACIcons
	ORG $+3
?g_fRecoveryAOA@@3MA DD 0420c0000r		; 35	; g_fRecoveryAOA
?g_nRNESpeed@@3HA DD 01H				; g_nRNESpeed
?g_fCarrierStartTolerance@@3MA DD 041a00000r	; 20	; g_fCarrierStartTolerance
?g_bNewDamageEffects@@3_NA DB 01H			; g_bNewDamageEffects
?g_bDisableFunkyChicken@@3_NA DB 01H			; g_bDisableFunkyChicken
?g_bDisableCrashEjectCourtMartials@@3_NA DB 01H		; g_bDisableCrashEjectCourtMartials
?g_bSmartCombatAP@@3_NA DB 01H				; g_bSmartCombatAP
?g_fDragDilutionFactor@@3MA DD 03f800000r	; 1	; g_fDragDilutionFactor
?g_nRelocationWait@@3HA DD 03H				; g_nRelocationWait
?g_nLoadoutTimeLimit@@3HA DD 078H			; g_nLoadoutTimeLimit
?g_fLatitude@@3MA DD 042180000r			; 38	; g_fLatitude
?g_nYear@@3HA DD 07d4H					; g_nYear
?g_nDay@@3HA DD	087H					; g_nDay
?g_b3dCockpit@@3_NA DB 01H				; g_b3dCockpit
?g_b3dMFDLeft@@3_NA DB 01H				; g_b3dMFDLeft
?g_b3dMFDRight@@3_NA DB 01H				; g_b3dMFDRight
?g_bRWR@@3_NA DB 01H					; g_bRWR
?g_nNoPlayerPlay@@3HA DD 02H				; g_nNoPlayerPlay
?g_npercentage_available_aircraft@@3HA DD 04bH		; g_npercentage_available_aircraft
?g_nminimum_available_aircraft@@3HA DD 04H		; g_nminimum_available_aircraft
?g_nMaxVertexSpace@@3HA DD 0ffffffffH			; g_nMaxVertexSpace
?g_nMinTacanChannel@@3HA DD 046H			; g_nMinTacanChannel
?g_nFlightVisualBonus@@3HA DD 01H			; g_nFlightVisualBonus
?g_nChatterInterval@@3HA DD 05H				; g_nChatterInterval
?g_nSfxLODCutoff@@3HA DD 0320H				; g_nSfxLODCutoff
?g_nSfxLODDistCutoff@@3HA DD 01770H			; g_nSfxLODDistCutoff
?g_nSfxLODTotCutoff@@3HA DD 01f40H			; g_nSfxLODTotCutoff
?g_nPSPurgeInterval@@3HA DD 0ea60H			; g_nPSPurgeInterval
?g_bHearThunder@@3_NA DB 01H				; g_bHearThunder
?g_bAnimPilotHead@@3_NA DB 01H				; g_bAnimPilotHead
	ORG $+2
?g_fPilotActInterval@@3MA DD 03f000000r		; 0.5	; g_fPilotActInterval
?g_fPilotHeadMoveRate@@3MA DD 042480000r	; 50	; g_fPilotHeadMoveRate
?g_bRealisticAvionics@@3_NA DB 01H			; g_bRealisticAvionics
?g_bGreyMFD@@3_NA DB 01H				; g_bGreyMFD
?g_bIFF@@3_NA DB 01H					; g_bIFF
?g_bINS@@3_NA DB 01H					; g_bINS
?g_bNoRPMOnHud@@3_NA DB 01H				; g_bNoRPMOnHud
?g_bTFRFixes@@3_NA DB 01H				; g_bTFRFixes
?g_bNewPitchLadder@@3_NA DB 01H				; g_bNewPitchLadder
?g_bAGRadarFixes@@3_NA DB 01H				; g_bAGRadarFixes
?g_fGMTMinSpeed@@3MA DD 040400000r		; 3	; g_fGMTMinSpeed
?g_fGMTMaxSpeed@@3MA DD 042c80000r		; 100	; g_fGMTMaxSpeed
?g_fReconCameraHalfFOV@@3MA DD 041066666r	; 8.4	; g_fReconCameraHalfFOV
?g_fReconCameraOffset@@3MA DD 0c1000000r	; -8	; g_fReconCameraOffset
?g_fBombTimeStep@@3MA DD 03d4ccccdr		; 0.05	; g_fBombTimeStep
?g_bBombNumLoopOnly@@3_NA DB 01H			; g_bBombNumLoopOnly
	ORG $+3
?g_fHighDragGravFactor@@3MA DD 03f266666r	; 0.65	; g_fHighDragGravFactor
?g_bTO_LDG_LightFix@@3_NA DB 01H			; g_bTO_LDG_LightFix
?g_bNewFm@@3_NA DB 01H					; g_bNewFm
	ORG $+2
?g_fFormationBurnerDistance@@3MA DD 041200000r	; 10	; g_fFormationBurnerDistance
?g_bHiResUI@@3_NA DB 01H				; g_bHiResUI
?g_bFullScreenNVG@@3_NA DB 01H				; g_bFullScreenNVG
?g_bLoadoutSquadStoreResupply@@3_NA DB 01H		; g_bLoadoutSquadStoreResupply
?g_bRequestHelp@@3_NA DB 01H				; g_bRequestHelp
?g_bLightsKC135@@3_NA DB 01H				; g_bLightsKC135
	ORG $+3
?g_fPadlockBreakDistance@@3MA DD 040c00000r	; 6	; g_fPadlockBreakDistance
?g_fAFRudderRight@@3MA DD 03fc00000r		; 1.5	; g_fAFRudderRight
?g_fAFRudderLeft@@3MA DD 03fc00000r		; 1.5	; g_fAFRudderLeft
?g_fAFThrottleDown@@3MA DD 03cf5c28fr		; 0.03	; g_fAFThrottleDown
?g_fAFThrottleUp@@3MA DD 03cf5c28fr		; 0.03	; g_fAFThrottleUp
?g_fAFAileronLeft@@3MA DD 040c00000r		; 6	; g_fAFAileronLeft
?g_fAFAileronRight@@3MA DD 040c00000r		; 6	; g_fAFAileronRight
?g_fAFElevatorDown@@3MA DD 040400000r		; 3	; g_fAFElevatorDown
?g_fAFElevatorUp@@3MA DD 040400000r		; 3	; g_fAFElevatorUp
?g_fpitchStickOffset@@3MA DD 03f666666r		; 0.9	; g_fpitchStickOffset
?g_frudderOffset@@3MA DD 03f666666r		; 0.9	; g_frudderOffset
?g_bRollLinkedNWSRudder@@3_NA DB 01H			; g_bRollLinkedNWSRudder
?g_bAddACSizeVisual@@3_NA DB 01H			; g_bAddACSizeVisual
	ORG $+2
?g_fVisualNormalizeFactor@@3MA DD 042200000r	; 40	; g_fVisualNormalizeFactor
?g_bHelosReloc@@3_NA DB 01H				; g_bHelosReloc
?g_bNewPadlock@@3_NA DB 01H				; g_bNewPadlock
	ORG $+2
?g_nlookAroundWaterTiles@@3HA DD 02H			; g_nlookAroundWaterTiles
?g_fPullupTime@@3MA DD 03e4ccccdr		; 0.2	; g_fPullupTime
?g_fGALookAheadTime@@3MA DD 041200000r		; 10	; g_fGALookAheadTime
?g_nCriticalPullup@@3HA DD 03H				; g_nCriticalPullup
?g_fAIMinWPAlt@@3MA DD 043480000r		; 200	; g_fAIMinWPAlt
?g_fAIMinAlt@@3MA DD 043480000r			; 200	; g_fAIMinAlt
?g_fGApStickFac@@3MA DD 03e800000r		; 0.25	; g_fGApStickFac
?g_fAIHarmMaxRange@@3MA DD 042480000r		; 50	; g_fAIHarmMaxRange
?g_fAIJSOWMaxRange@@3MA DD 041f00000r		; 30	; g_fAIJSOWMaxRange
?g_fRocketPitchFactor@@3MA DD 0bf000000r	; -0.5	; g_fRocketPitchFactor
?g_fRocketPitchCorr@@3MA DD 03fc00000r		; 1.5	; g_fRocketPitchCorr
?g_fAGFlyoutRange@@3MA DD 041000000r		; 8	; g_fAGFlyoutRange
?g_fAGSlowFlyoutRange@@3MA DD 040800000r	; 4	; g_fAGSlowFlyoutRange
?g_fAGSlowMoverSpeed@@3MA DD 043870000r		; 270	; g_fAGSlowMoverSpeed
?g_fAIRefuelRange@@3MA DD 041200000r		; 10	; g_fAIRefuelRange
?g_bNewRefuelHelp@@3_NA DB 01H				; g_bNewRefuelHelp
	ORG $+3
?g_fAIDropStoreLauncherRange@@3MA DD 041200000r	; 10	; g_fAIDropStoreLauncherRange
?g_nAirbaseCheck@@3HA DD 01eH				; g_nAirbaseCheck
?g_bUseTankerTrack@@3_NA DB 01H				; g_bUseTankerTrack
	ORG $+3
?g_fTankerRStick@@3MA DD 03e4ccccdr		; 0.2	; g_fTankerRStick
?g_fTankerPStick@@3MA DD 03c23d70ar		; 0.01	; g_fTankerPStick
?g_fTankerTrackFactor@@3MA DD 03f000000r	; 0.5	; g_fTankerTrackFactor
?g_fTankerHeadsupDistance@@3MA DD 040200000r	; 2.5	; g_fTankerHeadsupDistance
?g_fTankerBackupDistance@@3MA DD 040400000r	; 3	; g_fTankerBackupDistance
?g_fHeadingStabilizeFactor@@3MA DD 03b83126fr	; 0.004	; g_fHeadingStabilizeFactor
?g_fAIRefuelSpeed@@3MA DD 03f800000r		; 1	; g_fAIRefuelSpeed
?g_fClimbRatio@@3MA DD 03e99999ar		; 0.3	; g_fClimbRatio
?g_fNukeStrengthFactor@@3MA DD 03e4ccccdr	; 0.2	; g_fNukeStrengthFactor
?g_fNukeDamageMod@@3MA DD 0461c4000r		; 10000	; g_fNukeDamageMod
?g_fNukeDamageRadius@@3MA DD 041200000r		; 10	; g_fNukeDamageRadius
?g_nNoWPRefuelNeeded@@3HA DD 07d0H			; g_nNoWPRefuelNeeded
?g_bAddIngressWP@@3_NA DB 01H				; g_bAddIngressWP
?g_bTankerWaypoints@@3_NA DB 01H			; g_bTankerWaypoints
?g_bPutAIToBoom@@3_NA DB 01H				; g_bPutAIToBoom
	ORG $+1
?g_fWaypointBurnerDelta@@3MA DD 0442f0000r	; 700	; g_fWaypointBurnerDelta
?g_nSkipWaypointTime@@3HA DD 07530H			; g_nSkipWaypointTime
?g_bLookCloserFix@@3_NA DB 01H				; g_bLookCloserFix
	ORG $+3
?g_fMavEXPLevel@@3MA DD 040400000r		; 3	; g_fMavEXPLevel
?g_fMavFOVLevel@@3MA DD 040c00000r		; 6	; g_fMavFOVLevel
?g_bAnyWaypointTask@@3_NA DB 01H			; g_bAnyWaypointTask
?g_bCockpitAutoScale@@3_NA DB 01H			; g_bCockpitAutoScale
	ORG $+2
?g_fMouseLookSensitivity@@3MA DD 03f000000r	; 0.5	; g_fMouseLookSensitivity
?g_b3DClickableCursorChange@@3_NA DB 01H		; g_b3DClickableCursorChange
?g_bDEDSpacingFix@@3_NA DB 01H				; g_bDEDSpacingFix
	ORG $+2
?g_n3DHeadTiltRange@@3HA DD 01H				; g_n3DHeadTiltRange
?g_bReconLatLong@@3_NA DB 01H				; g_bReconLatLong
?g_bRatioHack@@3_NA DB 01H				; g_bRatioHack
	ORG $+2
?g_fHSDSymbolSize@@3MA DD 03d4ccccdr		; 0.05	; g_fHSDSymbolSize
?g_bAutoScaleFonts@@3_NA DB 01H				; g_bAutoScaleFonts
	ORG $+3
?g_fTIRMinimumFOV@@3MA DD 040a00000r		; 5	; g_fTIRMinimumFOV
?g_fTIRMaximumFOV@@3MA DD 042c80000r		; 100	; g_fTIRMaximumFOV
?g_fMinimumFOV@@3MA DD 040a00000r		; 5	; g_fMinimumFOV
?g_fMaximumFOV@@3MA DD 042c80000r		; 100	; g_fMaximumFOV
?g_fDefaultFOV@@3MA DD 042820000r		; 65	; g_fDefaultFOV
?g_fFOVIncrement@@3MA DD 040a00000r		; 5	; g_fFOVIncrement
?g_fNarrowFOV@@3MA DD 041a00000r		; 20	; g_fNarrowFOV
?g_b2DPitWingFOVFix@@3_NA DB 01H			; g_b2DPitWingFOVFix
	ORG $+3
?g_fJDAMLift@@3MA DD 041ff3333r			; 31.9	; g_fJDAMLift
?g_fAIJSOWmaxRange@@3MA DD 042200000r		; 40	; g_fAIJSOWmaxRange
?g_bFilter2DPit@@3_NA DB 01H				; g_bFilter2DPit
	ORG $+3
?g_nNewFPSCounter@@3HA DD 01H				; g_nNewFPSCounter
?g_bPadlockHudColor@@3_NA DB 01H			; g_bPadlockHudColor
?g_bNew2DTrackIR@@3_NA DB 01H				; g_bNew2DTrackIR
	ORG $+2
?g_fHybridPitThreshold1@@3MA DD 041200000r	; 10	; g_fHybridPitThreshold1
?g_fHybridPitThreshold2@@3MA DD 040200000r	; 2.5	; g_fHybridPitThreshold2
?g_nHybridPitModeDelay@@3HA DD 03e8H			; g_nHybridPitModeDelay
?g_fEXPfactor@@3MA DD 03f000000r		; 0.5	; g_fEXPfactor
?g_fDBS1factor@@3MA DD 03f400000r		; 0.75	; g_fDBS1factor
?g_fDBS2factor@@3MA DD 03f59999ar		; 0.85	; g_fDBS2factor
?g_fePropFactor@@3MA DD 042200000r		; 40	; g_fePropFactor
?g_fSunPadlockTimeout@@3MA DD 03fc00000r	; 1.5	; g_fSunPadlockTimeout
?g_nGroundAttackTime@@3HA DD 06H			; g_nGroundAttackTime
?g_nSeadAttackTime@@3HA DD 04H				; g_nSeadAttackTime
?g_nStrikeAttackTime@@3HA DD 06H			; g_nStrikeAttackTime
?g_nCASAttackTime@@3HA DD 06H				; g_nCASAttackTime
?g_nAIshootLookShootTime@@3HA DD 02dH			; g_nAIshootLookShootTime
?g_bEmergencyJettisonFix@@3_NA DB 01H			; g_bEmergencyJettisonFix
	ORG $+3
?g_fDBS1ScanRateFactor@@3MA DD 03e800000r	; 0.25	; g_fDBS1ScanRateFactor
?g_fDBS2ScanRateFactor@@3MA DD 03d4ccccdr	; 0.05	; g_fDBS2ScanRateFactor
?g_bACMIRecordMsgOff@@3_NA DB 01H			; g_bACMIRecordMsgOff
	ORG $+3
?g_nTrackIRSampleFreq@@3HA DD 0200H			; g_nTrackIRSampleFreq
?g_fTIR2DPitchPercentage@@3MA DD 03f333333r	; 0.7	; g_fTIR2DPitchPercentage
?g_fTIR2DYawPercentage@@3MA DD 03f333333r	; 0.7	; g_fTIR2DYawPercentage
?g_nNumberOfSubTitles@@3HA DD 0aH			; g_nNumberOfSubTitles
?g_nSubTitleTTL@@3HA DD 02710H				; g_nSubTitleTTL
?g_nSaturationSmall@@3HA DD 0251cH			; g_nSaturationSmall
?g_nSaturationMedium@@3HA DD 02328H			; g_nSaturationMedium
?g_nSaturationLarge@@3HA DD 02134H			; g_nSaturationLarge
?g_nDeadzoneSmall@@3HA DD 064H				; g_nDeadzoneSmall
?g_nDeadzoneMedium@@3HA DD 01f4H			; g_nDeadzoneMedium
?g_nDeadzoneLarge@@3HA DD 03e8H				; g_nDeadzoneLarge
?g_nDeadzoneHuge@@3HA DD 07d0H				; g_nDeadzoneHuge
?g_nMouseLookSensMax@@3HA DD 06a4H			; g_nMouseLookSensMax
?g_nMouseLookSensMin@@3HA DD 0c8H			; g_nMouseLookSensMin
?g_nMouseWheelSensMax@@3HA DD 0aH			; g_nMouseWheelSensMax
?g_nMouseWheelSensMin@@3HA DD 01H			; g_nMouseWheelSensMin
?g_nKeyPOVSensMax@@3HA DD 0b4H				; g_nKeyPOVSensMax
?g_nKeyPOVSensMin@@3HA DD 01eH				; g_nKeyPOVSensMin
?g_nWinAmpInitVolume@@3HA DD 0ccH			; g_nWinAmpInitVolume
_g_nBWMaxDeltaTime DD 01H
_g_nBWCheckDeltaTime DD 01388H
?g_nVUMaxDeltaTime@@3HA DD 01388H			; g_nVUMaxDeltaTime
?g_bCampSavedMenuHack@@3_NA DB 01H			; g_bCampSavedMenuHack
	ORG $+3
?g_fMoverVrValue@@3MA DD 043e10000r		; 450	; g_fMoverVrValue
?g_bEmptyFilenameFix@@3_NA DB 01H			; g_bEmptyFilenameFix
	ORG $+3
?g_fRAPDistance@@3MA DD 040400000r		; 3	; g_fRAPDistance
?g_bLabelRadialFix@@3_NA DB 01H				; g_bLabelRadialFix
?g_bCheckForMode@@3_NA DB 01H				; g_bCheckForMode
?g_bRQDFix@@3_NA DB 01H					; g_bRQDFix
	ORG $+1
?g_nSessionTimeout@@3HA DD 01eH				; g_nSessionTimeout
?g_nSessionUpdateRate@@3HA DD 0fH			; g_nSessionUpdateRate
?g_nMaxInterceptDistance@@3HA DD 03cH			; g_nMaxInterceptDistance
?g_bNewSensorPrecision@@3_NA DB 01H			; g_bNewSensorPrecision
	ORG $+3
?g_nSoundSwitchFix@@3HA DD 03H				; g_nSoundSwitchFix
?g_nDFRegenerateFix@@3HA DD 03H				; g_nDFRegenerateFix
?g_bAllowOverload@@3_NA DB 01H				; g_bAllowOverload
?g_bACPlayerCTDFix@@3_NA DB 01H				; g_bACPlayerCTDFix
	ORG $+2
?g_fLethalRadiusModifier@@3MA DD 03fc00000r	; 1.5	; g_fLethalRadiusModifier
?g_nMissileFix@@3HA DD 07fH				; g_nMissileFix
?g_bDarkHudFix@@3_NA DB 01H				; g_bDarkHudFix
	ORG $+3
?g_fBombMissileAltitude@@3MA DD 0464b2000r	; 13000	; g_fBombMissileAltitude
?g_nFogRenderState@@3HA DD 01H				; g_nFogRenderState
?g_bTankerFMFix@@3_NA DB 01H				; g_bTankerFMFix
?g_bExitCampSelectFix@@3_NA DB 01H			; g_bExitCampSelectFix
	ORG $+2
?g_nMaxDebugLabel@@3HA DD 040000000H			; g_nMaxDebugLabel
?g_bEnableMfdColors@@3_NA DB 01H			; g_bEnableMfdColors
	ORG $+3
?g_fMfdTransparency@@3MA DD 042480000r		; 50	; g_fMfdTransparency
?g_fMfdGreen@@3MA DD 041f00000r			; 30	; g_fMfdGreen
?g_bEnableMfdSize@@3_NA DB 01H				; g_bEnableMfdSize
	ORG $+3
?g_fMfd_p_Size@@3MA DD 042b40000r		; 90	; g_fMfd_p_Size
?g_bMavFixes@@3_NA DB 01H				; g_bMavFixes
?g_bLgbFixes@@3_NA DB 01H				; g_bLgbFixes
?g_brebuildbobbleFix@@3_NA DB 01H			; g_brebuildbobbleFix
?g_bMPFix@@3_NA DB 01H					; g_bMPFix
?g_bMPFix2@@3_NA DB 01H					; g_bMPFix2
?g_bMPFix3@@3_NA DB 01H					; g_bMPFix3
?g_bMPFix4@@3_NA DB 01H					; g_bMPFix4
	ORG $+1
?g_nMPPowerXmitThreshold@@3HA DD 01H			; g_nMPPowerXmitThreshold
?MinBwForOtherData@@3MA DD 0447a0000r		; 1000	; MinBwForOtherData
?g_fclientbwforupdatesmodifyerMAX@@3MA DD 03f4ccccdr ; 0.8 ; g_fclientbwforupdatesmodifyerMAX
?g_fclientbwforupdatesmodifyerMIN@@3MA DD 03f333333r ; 0.7 ; g_fclientbwforupdatesmodifyerMIN
?g_fReliablemsgwaitMAX@@3MA DD 0476a6000r	; 60000	; g_fReliablemsgwaitMAX
?g_bDisableMissleEngGlow@@3_NA DB 01H			; g_bDisableMissleEngGlow
	ORG $+3
?g_fSoundDopplerFactor@@3MA DD 03f800000r	; 1	; g_fSoundDopplerFactor
?g_fSoundRolloffFactor@@3MA DD 03f800000r	; 1	; g_fSoundRolloffFactor
?g_nSoundUpdateMS@@3HA DD 032H				; g_nSoundUpdateMS
?g_bSoundHearVMSExternal@@3_NA DB 01H			; g_bSoundHearVMSExternal
	ORG $+3
?g_fACMIAnimRecordTimer@@3MA DD 03dcccccdr	; 0.1	; g_fACMIAnimRecordTimer
?g_bHUDFix@@3_NA DB 01H					; g_bHUDFix
?g_bTurb@@3_NA DB 01H					; g_bTurb
	ORG $+2
?g_fA2GJDAMAlt@@3MA DD 0469c4000r		; 20000	; g_fA2GJDAMAlt
?g_fA2GJSOWAlt@@3MA DD 046c35000r		; 25000	; g_fA2GJSOWAlt
?g_fA2GHarmAlt@@3MA DD 0469c4000r		; 20000	; g_fA2GHarmAlt
?g_fA2GAGMAlt@@3MA DD 0457a0000r		; 4000	; g_fA2GAGMAlt
?g_fA2GGBUAlt@@3MA DD 0464b2000r		; 13000	; g_fA2GGBUAlt
?g_fA2GDumbHDAlt@@3MA DD 0437a0000r		; 250	; g_fA2GDumbHDAlt
?g_fA2GClusterAlt@@3MA DD 0459c4000r		; 5000	; g_fA2GClusterAlt
?g_fA2GDumbLDAlt@@3MA DD 046c35000r		; 25000	; g_fA2GDumbLDAlt
?g_fA2GGenericBombAlt@@3MA DD 0466a6000r	; 15000	; g_fA2GGenericBombAlt
?g_fA2GGunRocketAlt@@3MA DD 0447a0000r		; 1000	; g_fA2GGunRocketAlt
?g_fA2GCameraAlt@@3MA DD 045dac000r		; 7000	; g_fA2GCameraAlt
?g_bScramble@@3_NA DB 01H				; g_bScramble
?g_bhudAOA@@3_NA DB 01H					; g_bhudAOA
?g_bnoRadStutter@@3_NA DB 01H				; g_bnoRadStutter
?g_bRollInertia@@3_NA DB 01H				; g_bRollInertia
?g_bLensFlare@@3_NA DB 01H				; g_bLensFlare
?g_bDisableHighFartiles@@3_NA DB 01H			; g_bDisableHighFartiles
	ORG $+2
?g_fTexDetailFactor@@3MA DD 040000000r		; 2	; g_fTexDetailFactor
?g_bBriefHTML@@3_NA DB 01H				; g_bBriefHTML
?g_bAntElevKnobFix@@3_NA DB 01H				; g_bAntElevKnobFix
	ORG $+2
?g_nIdleCutoffPad@@3HA DD 01f4H				; g_nIdleCutoffPad
?g_bWeaponPickleDelays@@3_NA DB 01H			; g_bWeaponPickleDelays
?g_bHsdStptFix@@3_NA DB 01H				; g_bHsdStptFix
	ORG $+2
?g_f3DHeadTilt@@3MA DD 041700000r		; 15	; g_f3DHeadTilt
?g_f3DPitFOV@@3MA DD 042700000r			; 60	; g_f3DPitFOV
?g_fButtonScaler@@3MA DD 04263999ar		; 56.9	; g_fButtonScaler
?g_fButtonZScaler@@3MA DD 04263999ar		; 56.9	; g_fButtonZScaler
?g_fDyn_Head_TiltMul@@3MA DD 03f800000r		; 1	; g_fDyn_Head_TiltMul
?g_fDyn_Head_TiltRndGMul@@3MA DD 03f800000r	; 1	; g_fDyn_Head_TiltRndGMul
?g_fDyn_Head_RollMul@@3MA DD 03f800000r		; 1	; g_fDyn_Head_RollMul
?g_fDyn_Head_PanMul@@3MA DD 03f800000r		; 1	; g_fDyn_Head_PanMul
?g_fDyn_Head_TiltRateMul@@3MA DD 03f800000r	; 1	; g_fDyn_Head_TiltRateMul
?g_fDyn_Head_TiltGRateMul@@3MA DD 03f000000r	; 0.5	; g_fDyn_Head_TiltGRateMul
?g_fDyn_Head_RollRate@@3MA DD 040000000r	; 2	; g_fDyn_Head_RollRate
?g_fDyn_Head_PanRate@@3MA DD 03f800000r		; 1	; g_fDyn_Head_PanRate
?g_fdpitStart@@3MA DD 043c00000r		; 384	; g_fdpitStart
?g_fdpitStop@@3MA DD 044e10000r			; 1800	; g_fdpitStop
?g_fTaxiEarly@@3MA DD 042960000r		; 75	; g_fTaxiEarly
?g_bUse_DX_Engine@@3_NA DB 01H				; g_bUse_DX_Engine
_DATA	ENDS
;	COMDAT ??_C@_0M@JPAFGJIM@UseDxEngine?$AA@
CONST	SEGMENT
??_C@_0M@JPAFGJIM@UseDxEngine?$AA@ DB 'UseDxEngine', 00H ; `string'
CONST	ENDS
;	COMDAT ??_C@_0BO@DAPABCLA@ForceDXMultiThreadedCoopLevel?$AA@
CONST	SEGMENT
??_C@_0BO@DAPABCLA@ForceDXMultiThreadedCoopLevel?$AA@ DB 'ForceDXMultiThr'
	DB	'eadedCoopLevel', 00H			; `string'
CONST	ENDS
;	COMDAT ??_C@_0BD@HODIAADD@EnableABRelocation?$AA@
CONST	SEGMENT
??_C@_0BD@HODIAADD@EnableABRelocation?$AA@ DB 'EnableABRelocation', 00H ; `string'
CONST	ENDS
;	COMDAT ??_C@_0BI@BOBAJFBO@EnableWeatherExtensions?$AA@
CONST	SEGMENT
??_C@_0BI@BOBAJFBO@EnableWeatherExtensions?$AA@ DB 'EnableWeatherExtensio'
	DB	'ns', 00H					; `string'
CONST	ENDS
;	COMDAT ??_C@_0BB@KJIICHEI@EnableWindsAloft?$AA@
CONST	SEGMENT
??_C@_0BB@KJIICHEI@EnableWindsAloft?$AA@ DB 'EnableWindsAloft', 00H ; `string'
CONST	ENDS
;	COMDAT ??_C@_0BM@GJGBPECN@EnableNonPersistentTextures?$AA@
CONST	SEGMENT
??_C@_0BM@GJGBPECN@EnableNonPersistentTextures?$AA@ DB 'EnableNonPersiste'
	DB	'ntTextures', 00H				; `string'
CONST	ENDS
;	COMDAT ??_C@_0BM@JAEBPNKM@EnableStaticTerrainTextures?$AA@
CONST	SEGMENT
??_C@_0BM@JAEBPNKM@EnableStaticTerrainTextures?$AA@ DB 'EnableStaticTerra'
	DB	'inTextures', 00H				; `string'
CONST	ENDS
;	COMDAT ??_C@_0BJ@GCBHCKKF@CheckBltStatusBeforeFlip?$AA@
CONST	SEGMENT
??_C@_0BJ@GCBHCKKF@CheckBltStatusBeforeFlip?$AA@ DB 'CheckBltStatusBefore'
	DB	'Flip', 00H					; `string'
CONST	ENDS
;	COMDAT ??_C@_0N@FDDNNIFL@EnableUplink?$AA@
CONST	SEGMENT
??_C@_0N@FDDNNIFL@EnableUplink?$AA@ DB 'EnableUplink', 00H ; `string'
CONST	ENDS
;	COMDAT ??_C@_0P@BANNOFHF@EnableColorMfd?$AA@
CONST	SEGMENT
??_C@_0P@BANNOFHF@EnableColorMfd?$AA@ DB 'EnableColorMfd', 00H ; `string'
CONST	ENDS
;	COMDAT ??_C@_0BB@FDCIBLC@NewDamageEffects?$AA@
CONST	SEGMENT
??_C@_0BB@FDCIBLC@NewDamageEffects?$AA@ DB 'NewDamageEffects', 00H ; `string'
CONST	ENDS
;	COMDAT ??_C@_0BE@DJEKHMNK@DisableFunkyChicken?$AA@
CONST	SEGMENT
??_C@_0BE@DJEKHMNK@DisableFunkyChicken?$AA@ DB 'DisableFunkyChicken', 00H ; `string'
CONST	ENDS
;	COMDAT ??_C@_0N@OMNJEGIN@SmartScaling?$AA@
CONST	SEGMENT
??_C@_0N@OMNJEGIN@SmartScaling?$AA@ DB 'SmartScaling', 00H ; `string'
CONST	ENDS
;	COMDAT ??_C@_0BB@HNJOIELK@FloatingBullseye?$AA@
CONST	SEGMENT
??_C@_0BB@HNJOIELK@FloatingBullseye?$AA@ DB 'FloatingBullseye', 00H ; `string'
CONST	ENDS
;	COMDAT ??_C@_0BP@ODHMDFMO@DisableCrashEjectCourtMartials?$AA@
CONST	SEGMENT
??_C@_0BP@ODHMDFMO@DisableCrashEjectCourtMartials?$AA@ DB 'DisableCrashEj'
	DB	'ectCourtMartials', 00H			; `string'
CONST	ENDS
;	COMDAT ??_C@_0N@IFIEFKLK@ShowMipUsage?$AA@
CONST	SEGMENT
??_C@_0N@IFIEFKLK@ShowMipUsage?$AA@ DB 'ShowMipUsage', 00H ; `string'
CONST	ENDS
;	COMDAT ??_C@_0O@BMIPOBNN@SmartCombatAP?$AA@
CONST	SEGMENT
??_C@_0O@BMIPOBNN@SmartCombatAP?$AA@ DB 'SmartCombatAP', 00H ; `string'
CONST	ENDS
;	COMDAT ??_C@_0L@GEDKMKJF@NoRPMOnHUD?$AA@
CONST	SEGMENT
??_C@_0L@GEDKMKJF@NoRPMOnHUD?$AA@ DB 'NoRPMOnHUD', 00H	; `string'
CONST	ENDS
;	COMDAT ??_C@_0O@KJLIAAOE@CATIIIDefault?$AA@
CONST	SEGMENT
??_C@_0O@KJLIAAOE@CATIIIDefault?$AA@ DB 'CATIIIDefault', 00H ; `string'
CONST	ENDS
;	COMDAT ??_C@_0O@LHCANHGH@EPAFRadarCues?$AA@
CONST	SEGMENT
??_C@_0O@LHCANHGH@EPAFRadarCues?$AA@ DB 'EPAFRadarCues', 00H ; `string'
CONST	ENDS
;	COMDAT ??_C@_0BB@BFNFPBBE@RadarJamChevrons?$AA@
CONST	SEGMENT
??_C@_0BB@BFNFPBBE@RadarJamChevrons?$AA@ DB 'RadarJamChevrons', 00H ; `string'
CONST	ENDS
;	COMDAT ??_C@_0N@BJINEENB@AWACSSupport?$AA@
CONST	SEGMENT
??_C@_0N@BJINEENB@AWACSSupport?$AA@ DB 'AWACSSupport', 00H ; `string'
CONST	ENDS
;	COMDAT ??_C@_0O@PPICECCN@AWACSRequired?$AA@
CONST	SEGMENT
??_C@_0O@PPICECCN@AWACSRequired?$AA@ DB 'AWACSRequired', 00H ; `string'
CONST	ENDS
;	COMDAT ??_C@_0L@GMOBHLIP@Use3dSound?$AA@
CONST	SEGMENT
??_C@_0L@GMOBHLIP@Use3dSound?$AA@ DB 'Use3dSound', 00H	; `string'
CONST	ENDS
;	COMDAT ??_C@_0M@KOMOMOBH@OldSoundAlg?$AA@
CONST	SEGMENT
??_C@_0M@KOMOMOBH@OldSoundAlg?$AA@ DB 'OldSoundAlg', 00H ; `string'
CONST	ENDS
;	COMDAT ??_C@_0BB@FKIOKAEF@MultiEngineSound?$AA@
CONST	SEGMENT
??_C@_0BB@FKIOKAEF@MultiEngineSound?$AA@ DB 'MultiEngineSound', 00H ; `string'
CONST	ENDS
;	COMDAT ??_C@_0BA@NFEMLIIE@MFDHighContrast?$AA@
CONST	SEGMENT
??_C@_0BA@NFEMLIIE@MFDHighContrast?$AA@ DB 'MFDHighContrast', 00H ; `string'
CONST	ENDS
;	COMDAT ??_C@_0L@PMCMMNDA@IFlyMirage?$AA@
CONST	SEGMENT
??_C@_0L@PMCMMNDA@IFlyMirage?$AA@ DB 'IFlyMirage', 00H	; `string'
CONST	ENDS
;	COMDAT ??_C@_09HCDILKPH@PowerGrid?$AA@
CONST	SEGMENT
??_C@_09HCDILKPH@PowerGrid?$AA@ DB 'PowerGrid', 00H	; `string'
CONST	ENDS
;	COMDAT ??_C@_0P@LILDLBPI@UseMappedFiles?$AA@
CONST	SEGMENT
??_C@_0P@LILDLBPI@UseMappedFiles?$AA@ DB 'UseMappedFiles', 00H ; `string'
CONST	ENDS
;	COMDAT ??_C@_05HIBBLBMA@NewFm?$AA@
CONST	SEGMENT
??_C@_05HIBBLBMA@NewFm?$AA@ DB 'NewFm', 00H		; `string'
CONST	ENDS
;	COMDAT ??_C@_0BD@JAHCDCFJ@RealisticAttrition?$AA@
CONST	SEGMENT
??_C@_0BD@JAHCDCFJ@RealisticAttrition?$AA@ DB 'RealisticAttrition', 00H ; `string'
CONST	ENDS
;	COMDAT ??_C@_0N@EMDJPEPI@GreyScaleMFD?$AA@
CONST	SEGMENT
??_C@_0N@EMDJPEPI@GreyScaleMFD?$AA@ DB 'GreyScaleMFD', 00H ; `string'
CONST	ENDS
;	COMDAT ??_C@_06DNMIJEHJ@IFFRWR?$AA@
CONST	SEGMENT
??_C@_06DNMIJEHJ@IFFRWR?$AA@ DB 'IFFRWR', 00H		; `string'
CONST	ENDS
;	COMDAT ??_C@_09EDDKFAHB@3dCockpit?$AA@
CONST	SEGMENT
??_C@_09EDDKFAHB@3dCockpit?$AA@ DB '3dCockpit', 00H	; `string'
CONST	ENDS
;	COMDAT ??_C@_03FOMBOACJ@RWR?$AA@
CONST	SEGMENT
??_C@_03FOMBOACJ@RWR?$AA@ DB 'RWR', 00H			; `string'
CONST	ENDS
;	COMDAT ??_C@_09JBONLPAM@BrightHUD?$AA@
CONST	SEGMENT
??_C@_09JBONLPAM@BrightHUD?$AA@ DB 'BrightHUD', 00H	; `string'
CONST	ENDS
;	COMDAT ??_C@_09JEGBIAG@3dMFDLeft?$AA@
CONST	SEGMENT
??_C@_09JEGBIAG@3dMFDLeft?$AA@ DB '3dMFDLeft', 00H	; `string'
CONST	ENDS
;	COMDAT ??_C@_0L@PDJFOMEE@3dMFDRight?$AA@
CONST	SEGMENT
??_C@_0L@PDJFOMEE@3dMFDRight?$AA@ DB '3dMFDRight', 00H	; `string'
CONST	ENDS
;	COMDAT ??_C@_0BD@PHPIFOFB@3dDynamicPilotHead?$AA@
CONST	SEGMENT
??_C@_0BD@PHPIFOFB@3dDynamicPilotHead?$AA@ DB '3dDynamicPilotHead', 00H ; `string'
CONST	ENDS
;	COMDAT ??_C@_0BA@JPCCLLAP@SimpleFMUpdates?$AA@
CONST	SEGMENT
??_C@_0BA@JPCCLLAP@SimpleFMUpdates?$AA@ DB 'SimpleFMUpdates', 00H ; `string'
CONST	ENDS
;	COMDAT ??_C@_0O@LOMJEIDE@NoMFDsIn1View?$AA@
CONST	SEGMENT
??_C@_0O@LOMJEIDE@NoMFDsIn1View?$AA@ DB 'NoMFDsIn1View', 00H ; `string'
CONST	ENDS
;	COMDAT ??_C@_06LGMEBDBC@Server?$AA@
CONST	SEGMENT
??_C@_06LGMEBDBC@Server?$AA@ DB 'Server', 00H		; `string'
CONST	ENDS
;	COMDAT ??_C@_0O@PMMAFHAM@ServerHostAll?$AA@
CONST	SEGMENT
??_C@_0O@PMMAFHAM@ServerHostAll?$AA@ DB 'ServerHostAll', 00H ; `string'
CONST	ENDS
;	COMDAT ??_C@_09NHIOLBMG@LogEvents?$AA@
CONST	SEGMENT
??_C@_09NHIOLBMG@LogEvents?$AA@ DB 'LogEvents', 00H	; `string'
CONST	ENDS
;	COMDAT ??_C@_08MKJAIDGB@VoiceCom?$AA@
CONST	SEGMENT
??_C@_08MKJAIDGB@VoiceCom?$AA@ DB 'VoiceCom', 00H	; `string'
CONST	ENDS
;	COMDAT ??_C@_05BFIPGPFD@woeir?$AA@
CONST	SEGMENT
??_C@_05BFIPGPFD@woeir?$AA@ DB 'woeir', 00H		; `string'
CONST	ENDS
;	COMDAT ??_C@_03JIJHNLG@MLU?$AA@
CONST	SEGMENT
??_C@_03JIJHNLG@MLU?$AA@ DB 'MLU', 00H			; `string'
CONST	ENDS
;	COMDAT ??_C@_03OKJDCOKF@IFF?$AA@
CONST	SEGMENT
??_C@_03OKJDCOKF@IFF?$AA@ DB 'IFF', 00H			; `string'
CONST	ENDS
;	COMDAT ??_C@_03NDDFJJAJ@INS?$AA@
CONST	SEGMENT
??_C@_03NDDFJJAJ@INS?$AA@ DB 'INS', 00H			; `string'
CONST	ENDS
;	COMDAT ??_C@_0BE@LKGLBJDK@RP5DataCompatiblity?$AA@
CONST	SEGMENT
??_C@_0BE@LKGLBJDK@RP5DataCompatiblity?$AA@ DB 'RP5DataCompatiblity', 00H ; `string'
CONST	ENDS
;	COMDAT ??_C@_0L@JOJBNFBI@ModuleList?$AA@
CONST	SEGMENT
??_C@_0L@JOJBNFBI@ModuleList?$AA@ DB 'ModuleList', 00H	; `string'
CONST	ENDS
;	COMDAT ??_C@_07FMFJLGFM@HiResUI?$AA@
CONST	SEGMENT
??_C@_07FMFJLGFM@HiResUI?$AA@ DB 'HiResUI', 00H		; `string'
CONST	ENDS
;	COMDAT ??_C@_09GNPGNAEB@AWACSFuel?$AA@
CONST	SEGMENT
??_C@_09GNPGNAEB@AWACSFuel?$AA@ DB 'AWACSFuel', 00H	; `string'
CONST	ENDS
;	COMDAT ??_C@_0O@JFLNFGBA@FullScreenNVG?$AA@
CONST	SEGMENT
??_C@_0O@JFLNFGBA@FullScreenNVG?$AA@ DB 'FullScreenNVG', 00H ; `string'
CONST	ENDS
;	COMDAT ??_C@_0M@FFNMDFFK@LogUiErrors?$AA@
CONST	SEGMENT
??_C@_0M@FFNMDFFK@LogUiErrors?$AA@ DB 'LogUiErrors', 00H ; `string'
CONST	ENDS
;	COMDAT ??_C@_0BK@HHNBHFID@LoadoutSquadStoreResupply?$AA@
CONST	SEGMENT
??_C@_0BK@HHNBHFID@LoadoutSquadStoreResupply?$AA@ DB 'LoadoutSquadStoreRe'
	DB	'supply', 00H				; `string'
CONST	ENDS
;	COMDAT ??_C@_0N@CENADPFP@DisplayTrees?$AA@
CONST	SEGMENT
??_C@_0N@CENADPFP@DisplayTrees?$AA@ DB 'DisplayTrees', 00H ; `string'
CONST	ENDS
;	COMDAT ??_C@_0M@JOHNLPA@RequestHelp?$AA@
CONST	SEGMENT
??_C@_0M@JOHNLPA@RequestHelp?$AA@ DB 'RequestHelp', 00H	; `string'
CONST	ENDS
;	COMDAT ??_C@_0M@NIHNMLI@LightsKC135?$AA@
CONST	SEGMENT
??_C@_0M@NIHNMLI@LightsKC135?$AA@ DB 'LightsKC135', 00H	; `string'
CONST	ENDS
;	COMDAT ??_C@_0BA@NFJPGAEE@AddACSizeVisual?$AA@
CONST	SEGMENT
??_C@_0BA@NFJPGAEE@AddACSizeVisual?$AA@ DB 'AddACSizeVisual', 00H ; `string'
CONST	ENDS
;	COMDAT ??_C@_0M@PBBBGNFE@NewRackData?$AA@
CONST	SEGMENT
??_C@_0M@PBBBGNFE@NewRackData?$AA@ DB 'NewRackData', 00H ; `string'
CONST	ENDS
;	COMDAT ??_C@_0M@IOPCONON@BMSRackData?$AA@
CONST	SEGMENT
??_C@_0M@IOPCONON@BMSRackData?$AA@ DB 'BMSRackData', 00H ; `string'
CONST	ENDS
;	COMDAT ??_C@_0L@MNBONOJP@HelosReloc?$AA@
CONST	SEGMENT
??_C@_0L@MNBONOJP@HelosReloc?$AA@ DB 'HelosReloc', 00H	; `string'
CONST	ENDS
;	COMDAT ??_C@_09NPFDHEPC@ShowFlaps?$AA@
CONST	SEGMENT
??_C@_09NPFDHEPC@ShowFlaps?$AA@ DB 'ShowFlaps', 00H	; `string'
CONST	ENDS
;	COMDAT ??_C@_0M@MMINDMLE@SlowButSafe?$AA@
CONST	SEGMENT
??_C@_0M@MMINDMLE@SlowButSafe?$AA@ DB 'SlowButSafe', 00H ; `string'
CONST	ENDS
;	COMDAT ??_C@_0L@KLNHFOAF@NewPadlock?$AA@
CONST	SEGMENT
??_C@_0L@KLNHFOAF@NewPadlock?$AA@ DB 'NewPadlock', 00H	; `string'
CONST	ENDS
;	COMDAT ??_C@_0P@KNDOKDNJ@NoPadlockBoxes?$AA@
CONST	SEGMENT
??_C@_0P@KNDOKDNJ@NoPadlockBoxes?$AA@ DB 'NoPadlockBoxes', 00H ; `string'
CONST	ENDS
;	COMDAT ??_C@_0BC@MAHCILAL@PitchLimiterForAI?$AA@
CONST	SEGMENT
??_C@_0BC@MAHCILAL@PitchLimiterForAI?$AA@ DB 'PitchLimiterForAI', 00H ; `string'
CONST	ENDS
;	COMDAT ??_C@_0P@LEGDLLNM@MissionACIcons?$AA@
CONST	SEGMENT
??_C@_0P@LEGDLLNM@MissionACIcons?$AA@ DB 'MissionACIcons', 00H ; `string'
CONST	ENDS
;	COMDAT ??_C@_0BA@GLLFDLGP@EnableMfdColors?$AA@
CONST	SEGMENT
??_C@_0BA@GLLFDLGP@EnableMfdColors?$AA@ DB 'EnableMfdColors', 00H ; `string'
CONST	ENDS
;	COMDAT ??_C@_0O@MIMBHKJI@EnableMfdSize?$AA@
CONST	SEGMENT
??_C@_0O@MIMBHKJI@EnableMfdSize?$AA@ DB 'EnableMfdSize', 00H ; `string'
CONST	ENDS
;	COMDAT ??_C@_0BE@EPNOGHNI@AIRefuelInComplexAF?$AA@
CONST	SEGMENT
??_C@_0BE@EPNOGHNI@AIRefuelInComplexAF?$AA@ DB 'AIRefuelInComplexAF', 00H ; `string'
CONST	ENDS
;	COMDAT ??_C@_0L@MBGAPEKL@NewAcmiHud?$AA@
CONST	SEGMENT
??_C@_0L@MBGAPEKL@NewAcmiHud?$AA@ DB 'NewAcmiHud', 00H	; `string'
CONST	ENDS
;	COMDAT ??_C@_0BA@EFBALDAB@AWACSBackground?$AA@
CONST	SEGMENT
??_C@_0BA@EFBALDAB@AWACSBackground?$AA@ DB 'AWACSBackground', 00H ; `string'
CONST	ENDS
;	COMDAT ??_C@_08MHEBNPF@MavFixes?$AA@
CONST	SEGMENT
??_C@_08MHEBNPF@MavFixes?$AA@ DB 'MavFixes', 00H	; `string'
CONST	ENDS
;	COMDAT ??_C@_08EOPBLIOM@LgbFixes?$AA@
CONST	SEGMENT
??_C@_08EOPBLIOM@LgbFixes?$AA@ DB 'LgbFixes', 00H	; `string'
CONST	ENDS
;	COMDAT ??_C@_0BD@KOEGGDKO@FallingHeadingTape?$AA@
CONST	SEGMENT
??_C@_0BD@KOEGGDKO@FallingHeadingTape?$AA@ DB 'FallingHeadingTape', 00H ; `string'
CONST	ENDS
;	COMDAT ??_C@_0O@JHIMBKBM@NewRefuelHelp?$AA@
CONST	SEGMENT
??_C@_0O@JHIMBKBM@NewRefuelHelp?$AA@ DB 'NewRefuelHelp', 00H ; `string'
CONST	ENDS
;	COMDAT ??_C@_0BB@NLPJDECN@OtherGroundCheck?$AA@
CONST	SEGMENT
??_C@_0BB@NLPJDECN@OtherGroundCheck?$AA@ DB 'OtherGroundCheck', 00H ; `string'
CONST	ENDS
;	COMDAT ??_C@_0BC@BBIMDAFF@Limit2DRadarFight?$AA@
CONST	SEGMENT
??_C@_0BC@BBIMDAFF@Limit2DRadarFight?$AA@ DB 'Limit2DRadarFight', 00H ; `string'
CONST	ENDS
;	COMDAT ??_C@_0BL@IDAGFGKL@AdvancedGroundChooseWeapon?$AA@
CONST	SEGMENT
??_C@_0BL@IDAGFGKL@AdvancedGroundChooseWeapon?$AA@ DB 'AdvancedGroundChoo'
	DB	'seWeapon', 00H				; `string'
CONST	ENDS
;	COMDAT ??_C@_08MEFGJPBP@TFRFixes?$AA@
CONST	SEGMENT
??_C@_08MEFGJPBP@TFRFixes?$AA@ DB 'TFRFixes', 00H	; `string'
CONST	ENDS
;	COMDAT ??_C@_06DOMAHNHD@AIGloc?$AA@
CONST	SEGMENT
??_C@_06DOMAHNHD@AIGloc?$AA@ DB 'AIGloc', 00H		; `string'
CONST	ENDS
;	COMDAT ??_C@_0BH@DHPHDCBG@CalibrateTFR_PitchCtrl?$AA@
CONST	SEGMENT
??_C@_0BH@DHPHDCBG@CalibrateTFR_PitchCtrl?$AA@ DB 'CalibrateTFR_PitchCtrl'
	DB	00H						; `string'
CONST	ENDS
;	COMDAT ??_C@_09CCBPHLOF@LantDebug?$AA@
CONST	SEGMENT
??_C@_09CCBPHLOF@LantDebug?$AA@ DB 'LantDebug', 00H	; `string'
CONST	ENDS
;	COMDAT ??_C@_0P@HDGMLBIK@UseNewCanEnage?$AA@
CONST	SEGMENT
??_C@_0P@HDGMLBIK@UseNewCanEnage?$AA@ DB 'UseNewCanEnage', 00H ; `string'
CONST	ENDS
;	COMDAT ??_C@_0BC@MNDEGEPH@MPStartRestricted?$AA@
CONST	SEGMENT
??_C@_0BC@MNDEGEPH@MPStartRestricted?$AA@ DB 'MPStartRestricted', 00H ; `string'
CONST	ENDS
;	COMDAT ??_C@_0BB@HNDLNA@UseSkillForFlaks?$AA@
CONST	SEGMENT
??_C@_0BB@HNDLNA@UseSkillForFlaks?$AA@ DB 'UseSkillForFlaks', 00H ; `string'
CONST	ENDS
;	COMDAT ??_C@_0BB@GJHIHGJG@ToggleAAAGunFlag?$AA@
CONST	SEGMENT
??_C@_0BB@GJHIHGJG@ToggleAAAGunFlag?$AA@ DB 'ToggleAAAGunFlag', 00H ; `string'
CONST	ENDS
;	COMDAT ??_C@_0P@BHCMJLKD@UseTankerTrack?$AA@
CONST	SEGMENT
??_C@_0P@BHCMJLKD@UseTankerTrack?$AA@ DB 'UseTankerTrack', 00H ; `string'
CONST	ENDS
;	COMDAT ??_C@_0BJ@CLIPICFC@UseComplexBVRForPlayerAI?$AA@
CONST	SEGMENT
??_C@_0BJ@CLIPICFC@UseComplexBVRForPlayerAI?$AA@ DB 'UseComplexBVRForPlay'
	DB	'erAI', 00H					; `string'
CONST	ENDS
;	COMDAT ??_C@_0N@LCONHMAD@FuelUseVtDot?$AA@
CONST	SEGMENT
??_C@_0N@LCONHMAD@FuelUseVtDot?$AA@ DB 'FuelUseVtDot', 00H ; `string'
CONST	ENDS
;	COMDAT ??_C@_0BG@JHJCJKBA@FuelLimitBecauseVtDot?$AA@
CONST	SEGMENT
??_C@_0BG@JHJCJKBA@FuelLimitBecauseVtDot?$AA@ DB 'FuelLimitBecauseVtDot', 00H ; `string'
CONST	ENDS
;	COMDAT ??_C@_0BK@PNDABNIL@UseAggresiveIncompleteA2G?$AA@
CONST	SEGMENT
??_C@_0BK@PNDABNIL@UseAggresiveIncompleteA2G?$AA@ DB 'UseAggresiveIncompl'
	DB	'eteA2G', 00H				; `string'
CONST	ENDS
;	COMDAT ??_C@_0P@IFBNLFCA@NewPitchLadder?$AA@
CONST	SEGMENT
??_C@_0P@IFBNLFCA@NewPitchLadder?$AA@ DB 'NewPitchLadder', 00H ; `string'
CONST	ENDS
;	COMDAT ??_C@_0N@EAJHDDIH@AddIngressWP?$AA@
CONST	SEGMENT
??_C@_0N@EAJHDDIH@AddIngressWP?$AA@ DB 'AddIngressWP', 00H ; `string'
CONST	ENDS
;	COMDAT ??_C@_0BA@OCBOHBEA@TankerWaypoints?$AA@
CONST	SEGMENT
??_C@_0BA@OCBOHBEA@TankerWaypoints?$AA@ DB 'TankerWaypoints', 00H ; `string'
CONST	ENDS
;	COMDAT ??_C@_0M@MLCLHDON@PutAIToBoom?$AA@
CONST	SEGMENT
??_C@_0M@MLCLHDON@PutAIToBoom?$AA@ DB 'PutAIToBoom', 00H ; `string'
CONST	ENDS
;	COMDAT ??_C@_0N@CMBBACE@OldStackDump?$AA@
CONST	SEGMENT
??_C@_0N@CMBBACE@OldStackDump?$AA@ DB 'OldStackDump', 00H ; `string'
CONST	ENDS
;	COMDAT ??_C@_0M@LPBECEEF@TankerFMFix?$AA@
CONST	SEGMENT
??_C@_0M@LPBECEEF@TankerFMFix?$AA@ DB 'TankerFMFix', 00H ; `string'
CONST	ENDS
;	COMDAT ??_C@_0N@FADECMI@AGRadarFixes?$AA@
CONST	SEGMENT
??_C@_0N@FADECMI@AGRadarFixes?$AA@ DB 'AGRadarFixes', 00H ; `string'
CONST	ENDS
;	COMDAT ??_C@_0O@JLJNJCMO@LookCloserFix?$AA@
CONST	SEGMENT
??_C@_0O@JLJNJCMO@LookCloserFix?$AA@ DB 'LookCloserFix', 00H ; `string'
CONST	ENDS
;	COMDAT ??_C@_0BA@FFPNCKHA@AnyWaypointTask?$AA@
CONST	SEGMENT
??_C@_0BA@FFPNCKHA@AnyWaypointTask?$AA@ DB 'AnyWaypointTask', 00H ; `string'
CONST	ENDS
;	COMDAT ??_C@_0M@BOACOPCD@FFCenterFix?$AA@
CONST	SEGMENT
??_C@_0M@BOACOPCD@FFCenterFix?$AA@ DB 'FFCenterFix', 00H ; `string'
CONST	ENDS
;	COMDAT ??_C@_0BB@EOMIEJNL@CockpitAutoScale?$AA@
CONST	SEGMENT
??_C@_0BB@EOMIEJNL@CockpitAutoScale?$AA@ DB 'CockpitAutoScale', 00H ; `string'
CONST	ENDS
;	COMDAT ??_C@_0BI@NGFEJIBD@3DClickableCockpitDebug?$AA@
CONST	SEGMENT
??_C@_0BI@NGFEJIBD@3DClickableCockpitDebug?$AA@ DB '3DClickableCockpitDeb'
	DB	'ug', 00H					; `string'
CONST	ENDS
;	COMDAT ??_C@_0BC@OLFADGNI@3DRTTCockpitDebug?$AA@
CONST	SEGMENT
??_C@_0BC@OLFADGNI@3DRTTCockpitDebug?$AA@ DB '3DRTTCockpitDebug', 00H ; `string'
CONST	ENDS
;	COMDAT ??_C@_0BI@LGLKLFDB@3DClickableCursorChange?$AA@
CONST	SEGMENT
??_C@_0BI@LGLKLFDB@3DClickableCursorChange?$AA@ DB '3DClickableCursorChan'
	DB	'ge', 00H					; `string'
CONST	ENDS
;	COMDAT ??_C@_0O@POKCJEBG@DEDSpacingFix?$AA@
CONST	SEGMENT
??_C@_0O@POKCJEBG@DEDSpacingFix?$AA@ DB 'DEDSpacingFix', 00H ; `string'
CONST	ENDS
;	COMDAT ??_C@_0N@BCEEDNO@ReconLatLong?$AA@
CONST	SEGMENT
??_C@_0N@BCEEDNO@ReconLatLong?$AA@ DB 'ReconLatLong', 00H ; `string'
CONST	ENDS
;	COMDAT ??_C@_09CJLDLDD@RatioHack?$AA@
CONST	SEGMENT
??_C@_09CJLDLDD@RatioHack?$AA@ DB 'RatioHack', 00H	; `string'
CONST	ENDS
;	COMDAT ??_C@_0BD@PNLHFGBB@PrecisionWaypoints?$AA@
CONST	SEGMENT
??_C@_0BD@PNLHFGBB@PrecisionWaypoints?$AA@ DB 'PrecisionWaypoints', 00H ; `string'
CONST	ENDS
;	COMDAT ??_C@_0BA@OBMNLAKJ@SmallerBullseye?$AA@
CONST	SEGMENT
??_C@_0BA@OBMNLAKJ@SmallerBullseye?$AA@ DB 'SmallerBullseye', 00H ; `string'
CONST	ENDS
;	COMDAT ??_C@_0P@JFEFEAKN@AutoScaleFonts?$AA@
CONST	SEGMENT
??_C@_0P@JFEFEAKN@AutoScaleFonts?$AA@ DB 'AutoScaleFonts', 00H ; `string'
CONST	ENDS
;	COMDAT ??_C@_0BF@GPDDPCBB@EnableRandomFailures?$AA@
CONST	SEGMENT
??_C@_0BF@GPDDPCBB@EnableRandomFailures?$AA@ DB 'EnableRandomFailures', 00H ; `string'
CONST	ENDS
;	COMDAT ??_C@_0BA@OOLLLJDM@2DPitWingFOVFix?$AA@
CONST	SEGMENT
??_C@_0BA@OOLLLJDM@2DPitWingFOVFix?$AA@ DB '2DPitWingFOVFix', 00H ; `string'
CONST	ENDS
;	COMDAT ??_C@_0BA@OJJCMMHA@OldFontTexelFix?$AA@
CONST	SEGMENT
??_C@_0BA@OJJCMMHA@OldFontTexelFix?$AA@ DB 'OldFontTexelFix', 00H ; `string'
CONST	ENDS
;	COMDAT ??_C@_0M@NGBMIBBH@Filter2DPit?$AA@
CONST	SEGMENT
??_C@_0M@NGBMIBBH@Filter2DPit?$AA@ DB 'Filter2DPit', 00H ; `string'
CONST	ENDS
;	COMDAT ??_C@_08EDEADKDH@CrackFix?$AA@
CONST	SEGMENT
??_C@_08EDEADKDH@CrackFix?$AA@ DB 'CrackFix', 00H	; `string'
CONST	ENDS
;	COMDAT ??_C@_0BB@KFIBFEKH@ResizeUsesResMgr?$AA@
CONST	SEGMENT
??_C@_0BB@KFIBFEKH@ResizeUsesResMgr?$AA@ DB 'ResizeUsesResMgr', 00H ; `string'
CONST	ENDS
;	COMDAT ??_C@_0BA@NIMIGMAE@PadlockHudColor?$AA@
CONST	SEGMENT
??_C@_0BA@NIMIGMAE@PadlockHudColor?$AA@ DB 'PadlockHudColor', 00H ; `string'
CONST	ENDS
;	COMDAT ??_C@_0BC@NDOBAMEH@CheckFeatureIndex?$AA@
CONST	SEGMENT
??_C@_0BC@NDOBAMEH@CheckFeatureIndex?$AA@ DB 'CheckFeatureIndex', 00H ; `string'
CONST	ENDS
;	COMDAT ??_C@_0M@BKJLMPFC@MachAsiDial?$AA@
CONST	SEGMENT
??_C@_0M@BKJLMPFC@MachAsiDial?$AA@ DB 'MachAsiDial', 00H ; `string'
CONST	ENDS
;	COMDAT ??_C@_0N@JDDAGMMH@New2DTrackIR?$AA@
CONST	SEGMENT
??_C@_0N@JDDAGMMH@New2DTrackIR?$AA@ DB 'New2DTrackIR', 00H ; `string'
CONST	ENDS
;	COMDAT ??_C@_0M@HPAJJJKH@Sync2D3DPit?$AA@
CONST	SEGMENT
??_C@_0M@HPAJJJKH@Sync2D3DPit?$AA@ DB 'Sync2D3DPit', 00H ; `string'
CONST	ENDS
;	COMDAT ??_C@_0L@GLPDEGIL@LowBwVoice?$AA@
CONST	SEGMENT
??_C@_0L@GLPDEGIL@LowBwVoice?$AA@ DB 'LowBwVoice', 00H	; `string'
CONST	ENDS
;	COMDAT ??_C@_0O@OBLODPNM@AGTargetWPFix?$AA@
CONST	SEGMENT
??_C@_0O@OBLODPNM@AGTargetWPFix?$AA@ DB 'AGTargetWPFix', 00H ; `string'
CONST	ENDS
;	COMDAT ??_C@_0BA@HCEBKICP@BombNumLoopOnly?$AA@
CONST	SEGMENT
??_C@_0BA@HCEBKICP@BombNumLoopOnly?$AA@ DB 'BombNumLoopOnly', 00H ; `string'
CONST	ENDS
;	COMDAT ??_C@_0BC@NCKOLEGB@AlwaysAnisotropic?$AA@
CONST	SEGMENT
??_C@_0BC@NCKOLEGB@AlwaysAnisotropic?$AA@ DB 'AlwaysAnisotropic', 00H ; `string'
CONST	ENDS
;	COMDAT ??_C@_0BC@FIMBFGHK@NoAAAEventRecords?$AA@
CONST	SEGMENT
??_C@_0BC@FIMBFGHK@NoAAAEventRecords?$AA@ DB 'NoAAAEventRecords', 00H ; `string'
CONST	ENDS
;	COMDAT ??_C@_0BD@JCCBLOJD@ActivateDebugStuff?$AA@
CONST	SEGMENT
??_C@_0BD@JCCBLOJD@ActivateDebugStuff?$AA@ DB 'ActivateDebugStuff', 00H ; `string'
CONST	ENDS
;	COMDAT ??_C@_0BF@LMKIJKDL@ActivateMissileDebug?$AA@
CONST	SEGMENT
??_C@_0BF@LMKIJKDL@ActivateMissileDebug?$AA@ DB 'ActivateMissileDebug', 00H ; `string'
CONST	ENDS
;	COMDAT ??_C@_0BD@LNALKBHL@NewSensorPrecision?$AA@
CONST	SEGMENT
??_C@_0BD@LNALKBHL@NewSensorPrecision?$AA@ DB 'NewSensorPrecision', 00H ; `string'
CONST	ENDS
;	COMDAT ??_C@_0L@BNLFLHLJ@AGNoBVRWVR?$AA@
CONST	SEGMENT
??_C@_0L@BNLFLHLJ@AGNoBVRWVR?$AA@ DB 'AGNoBVRWVR', 00H	; `string'
CONST	ENDS
;	COMDAT ??_C@_0BA@MIHHENE@TO_LDG_LightFix?$AA@
CONST	SEGMENT
??_C@_0BA@MIHHENE@TO_LDG_LightFix?$AA@ DB 'TO_LDG_LightFix', 00H ; `string'
CONST	ENDS
;	COMDAT ??_C@_0BF@IPGINMJE@AppendToBriefingFile?$AA@
CONST	SEGMENT
??_C@_0BF@IPGINMJE@AppendToBriefingFile?$AA@ DB 'AppendToBriefingFile', 00H ; `string'
CONST	ENDS
;	COMDAT ??_C@_0L@MBDOGONP@DarkHudFix?$AA@
CONST	SEGMENT
??_C@_0L@MBDOGONP@DarkHudFix?$AA@ DB 'DarkHudFix', 00H	; `string'
CONST	ENDS
;	COMDAT ??_C@_06KCOHPJHE@RQDFix?$AA@
CONST	SEGMENT
??_C@_06KCOHPJHE@RQDFix?$AA@ DB 'RQDFix', 00H		; `string'
CONST	ENDS
;	COMDAT ??_C@_0P@HALBPCMP@ACPlayerCTDFix?$AA@
CONST	SEGMENT
??_C@_0P@HALBPCMP@ACPlayerCTDFix?$AA@ DB 'ACPlayerCTDFix', 00H ; `string'
CONST	ENDS
;	COMDAT ??_C@_0N@FLGDBIIB@CheckForMode?$AA@
CONST	SEGMENT
??_C@_0N@FLGDBIIB@CheckForMode?$AA@ DB 'CheckForMode', 00H ; `string'
CONST	ENDS
;	COMDAT ??_C@_0O@BPCJMHGI@AllowOverload?$AA@
CONST	SEGMENT
??_C@_0O@BPCJMHGI@AllowOverload?$AA@ DB 'AllowOverload', 00H ; `string'
CONST	ENDS
;	COMDAT ??_C@_0BE@EJFCLLNL@UseDefinedGunDomain?$AA@
CONST	SEGMENT
??_C@_0BE@EJFCLLNL@UseDefinedGunDomain?$AA@ DB 'UseDefinedGunDomain', 00H ; `string'
CONST	ENDS
;	COMDAT ??_C@_0P@PODBGMK@LabelRadialFix?$AA@
CONST	SEGMENT
??_C@_0P@PODBGMK@LabelRadialFix?$AA@ DB 'LabelRadialFix', 00H ; `string'
CONST	ENDS
;	COMDAT ??_C@_0BC@MCFNANOH@LabelShowDistance?$AA@
CONST	SEGMENT
??_C@_0BC@MCFNANOH@LabelShowDistance?$AA@ DB 'LabelShowDistance', 00H ; `string'
CONST	ENDS
;	COMDAT ??_C@_0BC@BFLCFKFJ@SetWaypointNumFix?$AA@
CONST	SEGMENT
??_C@_0BC@BFLCFKFJ@SetWaypointNumFix?$AA@ DB 'SetWaypointNumFix', 00H ; `string'
CONST	ENDS
;	COMDAT ??_C@_0BB@FNGCFHBD@EmptyFilenameFix?$AA@
CONST	SEGMENT
??_C@_0BB@FNGCFHBD@EmptyFilenameFix?$AA@ DB 'EmptyFilenameFix', 00H ; `string'
CONST	ENDS
;	COMDAT ??_C@_0BB@MDDAFMNM@RebuildbobbleFix?$AA@
CONST	SEGMENT
??_C@_0BB@MDDAFMNM@RebuildbobbleFix?$AA@ DB 'RebuildbobbleFix', 00H ; `string'
CONST	ENDS
;	COMDAT ??_C@_05NLHHIMJF@MPFix?$AA@
CONST	SEGMENT
??_C@_05NLHHIMJF@MPFix?$AA@ DB 'MPFix', 00H		; `string'
CONST	ENDS
;	COMDAT ??_C@_06GNMOEEDG@MPFix2?$AA@
CONST	SEGMENT
??_C@_06GNMOEEDG@MPFix2?$AA@ DB 'MPFix2', 00H		; `string'
CONST	ENDS
;	COMDAT ??_C@_06HENFHFHH@MPFix3?$AA@
CONST	SEGMENT
??_C@_06HENFHFHH@MPFix3?$AA@ DB 'MPFix3', 00H		; `string'
CONST	ENDS
;	COMDAT ??_C@_06DLJEODLA@MPFix4?$AA@
CONST	SEGMENT
??_C@_06DLJEODLA@MPFix4?$AA@ DB 'MPFix4', 00H		; `string'
CONST	ENDS
;	COMDAT ??_C@_0BC@MPPGCPH@ExitCampSelectFix?$AA@
CONST	SEGMENT
??_C@_0BC@MPPGCPH@ExitCampSelectFix?$AA@ DB 'ExitCampSelectFix', 00H ; `string'
CONST	ENDS
;	COMDAT ??_C@_0BC@KADNOGMI@CampSavedMenuHack?$AA@
CONST	SEGMENT
??_C@_0BC@KADNOGMI@CampSavedMenuHack?$AA@ DB 'CampSavedMenuHack', 00H ; `string'
CONST	ENDS
;	COMDAT ??_C@_0BF@MPAIMHGE@EmergencyJettisonFix?$AA@
CONST	SEGMENT
??_C@_0BF@MPAIMHGE@EmergencyJettisonFix?$AA@ DB 'EmergencyJettisonFix', 00H ; `string'
CONST	ENDS
;	COMDAT ??_C@_0P@BNHDBBJD@OldSamActivity?$AA@
CONST	SEGMENT
??_C@_0P@BNHDBBJD@OldSamActivity?$AA@ DB 'OldSamActivity', 00H ; `string'
CONST	ENDS
;	COMDAT ??_C@_0O@EPBBDKGP@FireOntheMove?$AA@
CONST	SEGMENT
??_C@_0O@EPBBDKGP@FireOntheMove?$AA@ DB 'FireOntheMove', 00H ; `string'
CONST	ENDS
;	COMDAT ??_C@_0BA@DCMLMHIC@SAM2D3DHandover?$AA@
CONST	SEGMENT
??_C@_0BA@DCMLMHIC@SAM2D3DHandover?$AA@ DB 'SAM2D3DHandover', 00H ; `string'
CONST	ENDS
;	COMDAT ??_C@_07POPACGNO@MavFix2?$AA@
CONST	SEGMENT
??_C@_07POPACGNO@MavFix2?$AA@ DB 'MavFix2', 00H		; `string'
CONST	ENDS
;	COMDAT ??_C@_0BG@CCDGAFHB@DisableMissileEngGlow?$AA@
CONST	SEGMENT
??_C@_0BG@CCDGAFHB@DisableMissileEngGlow?$AA@ DB 'DisableMissileEngGlow', 00H ; `string'
CONST	ENDS
;	COMDAT ??_C@_06PKNIHIOC@HUDFix?$AA@
CONST	SEGMENT
??_C@_06PKNIHIOC@HUDFix?$AA@ DB 'HUDFix', 00H		; `string'
CONST	ENDS
;	COMDAT ??_C@_0BD@IEKFPDMB@SMSPylonLoadingFix?$AA@
CONST	SEGMENT
??_C@_0BD@IEKFPDMB@SMSPylonLoadingFix?$AA@ DB 'SMSPylonLoadingFix', 00H ; `string'
CONST	ENDS
;	COMDAT ??_C@_0M@GJBGJBPG@LargeStrike?$AA@
CONST	SEGMENT
??_C@_0M@GJBGJBPG@LargeStrike?$AA@ DB 'LargeStrike', 00H ; `string'
CONST	ENDS
;	COMDAT ??_C@_0N@DNANAGMB@TakeoffSound?$AA@
CONST	SEGMENT
??_C@_0N@DNANAGMB@TakeoffSound?$AA@ DB 'TakeoffSound', 00H ; `string'
CONST	ENDS
;	COMDAT ??_C@_08BNNIANJF@Scramble?$AA@
CONST	SEGMENT
??_C@_08BNNIANJF@Scramble?$AA@ DB 'Scramble', 00H	; `string'
CONST	ENDS
;	COMDAT ??_C@_06FMJLOEBN@hudAOA?$AA@
CONST	SEGMENT
??_C@_06FMJLOEBN@hudAOA?$AA@ DB 'hudAOA', 00H		; `string'
CONST	ENDS
;	COMDAT ??_C@_09NPEAAMPE@LensFlare?$AA@
CONST	SEGMENT
??_C@_09NPEAAMPE@LensFlare?$AA@ DB 'LensFlare', 00H	; `string'
CONST	ENDS
;	COMDAT ??_C@_0BE@EEPCKBHI@DisableHighFartiles?$AA@
CONST	SEGMENT
??_C@_0BE@EEPCKBHI@DisableHighFartiles?$AA@ DB 'DisableHighFartiles', 00H ; `string'
CONST	ENDS
;	COMDAT ??_C@_0N@GCFLLIPN@noRadStutter?$AA@
CONST	SEGMENT
??_C@_0N@GCFLLIPN@noRadStutter?$AA@ DB 'noRadStutter', 00H ; `string'
CONST	ENDS
;	COMDAT ??_C@_0BE@LADJIFHB@RollLinkedNWSRudder?$AA@
CONST	SEGMENT
??_C@_0BE@LADJIFHB@RollLinkedNWSRudder?$AA@ DB 'RollLinkedNWSRudder', 00H ; `string'
CONST	ENDS
;	COMDAT ??_C@_0BH@OCMLJDFA@EnableGRCursorBullseye?$AA@
CONST	SEGMENT
??_C@_0BH@OCMLJDFA@EnableGRCursorBullseye?$AA@ DB 'EnableGRCursorBullseye'
	DB	00H						; `string'
CONST	ENDS
;	COMDAT ??_C@_09JIIKAKDF@BriefHTML?$AA@
CONST	SEGMENT
??_C@_09JIIKAKDF@BriefHTML?$AA@ DB 'BriefHTML', 00H	; `string'
CONST	ENDS
;	COMDAT ??_C@_0BB@PLIBOKCI@RealisticMavTime?$AA@
CONST	SEGMENT
??_C@_0BB@PLIBOKCI@RealisticMavTime?$AA@ DB 'RealisticMavTime', 00H ; `string'
CONST	ENDS
;	COMDAT ??_C@_0N@IMJCLHBO@newAMRAAMdlz?$AA@
CONST	SEGMENT
??_C@_0N@IMJCLHBO@newAMRAAMdlz?$AA@ DB 'newAMRAAMdlz', 00H ; `string'
CONST	ENDS
;	COMDAT ??_C@_0BG@IBCBAPOO@EnableDisplacementCam?$AA@
CONST	SEGMENT
??_C@_0BG@IBCBAPOO@EnableDisplacementCam?$AA@ DB 'EnableDisplacementCam', 00H ; `string'
CONST	ENDS
;	COMDAT ??_C@_0P@ILOPFFFD@AntElevKnobFix?$AA@
CONST	SEGMENT
??_C@_0P@ILOPFFFD@AntElevKnobFix?$AA@ DB 'AntElevKnobFix', 00H ; `string'
CONST	ENDS
;	COMDAT ??_C@_0BD@IFOBHKPB@PilotEntertainment?$AA@
CONST	SEGMENT
??_C@_0BD@IFOBHKPB@PilotEntertainment?$AA@ DB 'PilotEntertainment', 00H ; `string'
CONST	ENDS
;	COMDAT ??_C@_0M@PAHFHAJ@RollInertia?$AA@
CONST	SEGMENT
??_C@_0M@PAHFHAJ@RollInertia?$AA@ DB 'RollInertia', 00H	; `string'
CONST	ENDS
;	COMDAT ??_C@_0BB@LHKHGDJK@ACMIRecordMsgOff?$AA@
CONST	SEGMENT
??_C@_0BB@LHKHGDJK@ACMIRecordMsgOff?$AA@ DB 'ACMIRecordMsgOff', 00H ; `string'
CONST	ENDS
;	COMDAT ??_C@_0BE@FEADJIHO@UseAnalogIdleCutoff?$AA@
CONST	SEGMENT
??_C@_0BE@FEADJIHO@UseAnalogIdleCutoff?$AA@ DB 'UseAnalogIdleCutoff', 00H ; `string'
CONST	ENDS
;	COMDAT ??_C@_0BD@FOGMLOLH@WeaponPickleDelays?$AA@
CONST	SEGMENT
??_C@_0BD@FOGMLOLH@WeaponPickleDelays?$AA@ DB 'WeaponPickleDelays', 00H ; `string'
CONST	ENDS
;	COMDAT ??_C@_0L@DOGDBHOJ@HsdStptFix?$AA@
CONST	SEGMENT
??_C@_0L@DOGDBHOJ@HsdStptFix?$AA@ DB 'HsdStptFix', 00H	; `string'
CONST	ENDS
;	COMDAT ??_C@_0L@DHDGAL@F4CommsMTU?$AA@
CONST	SEGMENT
??_C@_0L@DHDGAL@F4CommsMTU?$AA@ DB 'F4CommsMTU', 00H	; `string'
CONST	ENDS
;	COMDAT ??_C@_0M@FOFODPOK@UseNew3dpit?$AA@
CONST	SEGMENT
??_C@_0M@FOFODPOK@UseNew3dpit?$AA@ DB 'UseNew3dpit', 00H ; `string'
CONST	ENDS
;	COMDAT ??_C@_0N@IICFPPI@StartIn3Dpit?$AA@
CONST	SEGMENT
??_C@_0N@IICFPPI@StartIn3Dpit?$AA@ DB 'StartIn3Dpit', 00H ; `string'
CONST	ENDS
;	COMDAT ??_C@_0BA@CIIDEAB@UseNewSmoothing?$AA@
CONST	SEGMENT
??_C@_0BA@CIIDEAB@UseNewSmoothing?$AA@ DB 'UseNewSmoothing', 00H ; `string'
CONST	ENDS
;	COMDAT ??_C@_0BC@OOAJHEFL@DisplayAxisValues?$AA@
CONST	SEGMENT
??_C@_0BC@OOAJHEFL@DisplayAxisValues?$AA@ DB 'DisplayAxisValues', 00H ; `string'
CONST	ENDS
;	COMDAT ??_C@_0BP@JECNDJKC@WeaponLaunchUsesDrawPointerPos?$AA@
CONST	SEGMENT
??_C@_0BP@JECNDJKC@WeaponLaunchUsesDrawPointerPos?$AA@ DB 'WeaponLaunchUs'
	DB	'esDrawPointerPos', 00H			; `string'
CONST	ENDS
;	COMDAT ??_C@_0BA@MOKNEEC@WeaponStepToGun?$AA@
CONST	SEGMENT
??_C@_0BA@MOKNEEC@WeaponStepToGun?$AA@ DB 'WeaponStepToGun', 00H ; `string'
CONST	ENDS
;	COMDAT ??_C@_04KIBBIEFM@Turb?$AA@
CONST	SEGMENT
??_C@_04KIBBIEFM@Turb?$AA@ DB 'Turb', 00H		; `string'
CONST	ENDS
;	COMDAT ??_C@_0P@LNEMBMEJ@SoundSonicBoom?$AA@
CONST	SEGMENT
??_C@_0P@LNEMBMEJ@SoundSonicBoom?$AA@ DB 'SoundSonicBoom', 00H ; `string'
CONST	ENDS
;	COMDAT ??_C@_0BD@FKGNBI@DisableCommsBorder?$AA@
CONST	SEGMENT
??_C@_0BD@FKGNBI@DisableCommsBorder?$AA@ DB 'DisableCommsBorder', 00H ; `string'
CONST	ENDS
;	COMDAT ??_C@_08OMPBCCDL@EcmOnHud?$AA@
CONST	SEGMENT
??_C@_08OMPBCCDL@EcmOnHud?$AA@ DB 'EcmOnHud', 00H	; `string'
CONST	ENDS
;	COMDAT ??_C@_0L@CCPAPEIP@BrakeOnHud?$AA@
CONST	SEGMENT
??_C@_0L@CCPAPEIP@BrakeOnHud?$AA@ DB 'BrakeOnHud', 00H	; `string'
CONST	ENDS
;	COMDAT ??_C@_09MEFGCLMD@GearOnHud?$AA@
CONST	SEGMENT
??_C@_09MEFGCLMD@GearOnHud?$AA@ DB 'GearOnHud', 00H	; `string'
CONST	ENDS
;	COMDAT ??_C@_0P@PIGHAJFO@WakeTurbulence?$AA@
CONST	SEGMENT
??_C@_0P@PIGHAJFO@WakeTurbulence?$AA@ DB 'WakeTurbulence', 00H ; `string'
CONST	ENDS
;	COMDAT ??_C@_0BD@ELLMAKPG@DrawWakeTurbulence?$AA@
CONST	SEGMENT
??_C@_0BD@ELLMAKPG@DrawWakeTurbulence?$AA@ DB 'DrawWakeTurbulence', 00H ; `string'
CONST	ENDS
;	COMDAT ??_C@_0N@KJGHMHPH@OldDustTrail?$AA@
CONST	SEGMENT
??_C@_0N@KJGHMHPH@OldDustTrail?$AA@ DB 'OldDustTrail', 00H ; `string'
CONST	ENDS
;	COMDAT ??_C@_0M@IADPJOPC@HearThunder?$AA@
CONST	SEGMENT
??_C@_0M@IADPJOPC@HearThunder?$AA@ DB 'HearThunder', 00H ; `string'
CONST	ENDS
;	COMDAT ??_C@_07BNPFHFPE@HighSFX?$AA@
CONST	SEGMENT
??_C@_07BNPFHFPE@HighSFX?$AA@ DB 'HighSFX', 00H		; `string'
CONST	ENDS
;	COMDAT ??_C@_0L@JNAKJINM@AllHaveIFF?$AA@
CONST	SEGMENT
??_C@_0L@JNAKJINM@AllHaveIFF?$AA@ DB 'AllHaveIFF', 00H	; `string'
CONST	ENDS
;	COMDAT ??_C@_08EIPMJHIH@UseRC135?$AA@
CONST	SEGMENT
??_C@_08EIPMJHIH@UseRC135?$AA@ DB 'UseRC135', 00H	; `string'
CONST	ENDS
;	COMDAT ??_C@_05PMLDJAMG@FFDBC?$AA@
CONST	SEGMENT
??_C@_05PMLDJAMG@FFDBC?$AA@ DB 'FFDBC', 00H		; `string'
CONST	ENDS
;	COMDAT ??_C@_0BA@FDKAMOEE@ExtViewOnGround?$AA@
CONST	SEGMENT
??_C@_0BA@FDKAMOEE@ExtViewOnGround?$AA@ DB 'ExtViewOnGround', 00H ; `string'
CONST	ENDS
;	COMDAT ??_C@_0O@MHKFAEHF@UnlimitedAmmo?$AA@
CONST	SEGMENT
??_C@_0O@MHKFAEHF@UnlimitedAmmo?$AA@ DB 'UnlimitedAmmo', 00H ; `string'
CONST	ENDS
;	COMDAT ??_C@_0O@CHHOKHGC@AnimPilotHead?$AA@
CONST	SEGMENT
??_C@_0O@CHHOKHGC@AnimPilotHead?$AA@ DB 'AnimPilotHead', 00H ; `string'
CONST	ENDS
_DATA	SEGMENT
	ORG $+7
_BoolOpts DD	FLAT:??_C@_0M@JPAFGJIM@UseDxEngine?$AA@
	DD	FLAT:?g_bUse_DX_Engine@@3_NA
	DD	FLAT:??_C@_0BO@DAPABCLA@ForceDXMultiThreadedCoopLevel?$AA@
	DD	FLAT:?g_bForceDXMultiThreadedCoopLevel@@3_NA
	DD	FLAT:??_C@_0BD@HODIAADD@EnableABRelocation?$AA@
	DD	FLAT:?g_bEnableABRelocation@@3_NA
	DD	FLAT:??_C@_0BI@BOBAJFBO@EnableWeatherExtensions?$AA@
	DD	FLAT:?g_bEnableWeatherExtensions@@3_NA
	DD	FLAT:??_C@_0BB@KJIICHEI@EnableWindsAloft?$AA@
	DD	FLAT:?g_bEnableWindsAloft@@3_NA
	DD	FLAT:??_C@_0BM@GJGBPECN@EnableNonPersistentTextures?$AA@
	DD	FLAT:?g_bEnableNonPersistentTextures@@3_NA
	DD	FLAT:??_C@_0BM@JAEBPNKM@EnableStaticTerrainTextures?$AA@
	DD	FLAT:?g_bEnableStaticTerrainTextures@@3_NA
	DD	FLAT:??_C@_0BJ@GCBHCKKF@CheckBltStatusBeforeFlip?$AA@
	DD	FLAT:?g_bCheckBltStatusBeforeFlip@@3_NA
	DD	FLAT:??_C@_0N@FDDNNIFL@EnableUplink?$AA@
	DD	FLAT:?g_bEnableUplink@@3_NA
	DD	FLAT:??_C@_0P@BANNOFHF@EnableColorMfd?$AA@
	DD	FLAT:?g_bEnableColorMfd@@3_NA
	DD	FLAT:??_C@_0BB@FDCIBLC@NewDamageEffects?$AA@
	DD	FLAT:?g_bNewDamageEffects@@3_NA
	DD	FLAT:??_C@_0BE@DJEKHMNK@DisableFunkyChicken?$AA@
	DD	FLAT:?g_bDisableFunkyChicken@@3_NA
	DD	FLAT:??_C@_0N@OMNJEGIN@SmartScaling?$AA@
	DD	FLAT:?g_bSmartScaling@@3_NA
	DD	FLAT:??_C@_0BB@HNJOIELK@FloatingBullseye?$AA@
	DD	FLAT:?g_bFloatingBullseye@@3_NA
	DD	FLAT:??_C@_0BP@ODHMDFMO@DisableCrashEjectCourtMartials?$AA@
	DD	FLAT:?g_bDisableCrashEjectCourtMartials@@3_NA
	DD	FLAT:??_C@_0N@IFIEFKLK@ShowMipUsage?$AA@
	DD	FLAT:?g_bShowMipUsage@@3_NA
	DD	FLAT:??_C@_0O@BMIPOBNN@SmartCombatAP?$AA@
	DD	FLAT:?g_bSmartCombatAP@@3_NA
	DD	FLAT:??_C@_0L@GEDKMKJF@NoRPMOnHUD?$AA@
	DD	FLAT:?g_bNoRPMOnHud@@3_NA
	DD	FLAT:??_C@_0O@KJLIAAOE@CATIIIDefault?$AA@
	DD	FLAT:?g_bCATIIIDefault@@3_NA
	DD	FLAT:??_C@_0O@LHCANHGH@EPAFRadarCues?$AA@
	DD	FLAT:?g_bEPAFRadarCues@@3_NA
	DD	FLAT:??_C@_0BB@BFNFPBBE@RadarJamChevrons?$AA@
	DD	FLAT:?g_bRadarJamChevrons@@3_NA
	DD	FLAT:??_C@_0N@BJINEENB@AWACSSupport?$AA@
	DD	FLAT:?g_bAWACSSupport@@3_NA
	DD	FLAT:??_C@_0O@PPICECCN@AWACSRequired?$AA@
	DD	FLAT:?g_bAWACSRequired@@3_NA
	DD	FLAT:??_C@_0L@GMOBHLIP@Use3dSound?$AA@
	DD	FLAT:?g_bUse3dSound@@3_NA
	DD	FLAT:??_C@_0M@KOMOMOBH@OldSoundAlg?$AA@
	DD	FLAT:?g_bOldSoundAlg@@3_NA
	DD	FLAT:??_C@_0BB@FKIOKAEF@MultiEngineSound?$AA@
	DD	FLAT:?g_bMultiEngineSound@@3_NA
	DD	FLAT:??_C@_0BA@NFEMLIIE@MFDHighContrast?$AA@
	DD	FLAT:?g_bMFDHighContrast@@3_NA
	DD	FLAT:??_C@_0L@PMCMMNDA@IFlyMirage?$AA@
	DD	FLAT:?g_bIFlyMirage@@3_NA
	DD	FLAT:??_C@_09HCDILKPH@PowerGrid?$AA@
	DD	FLAT:?g_bPowerGrid@@3_NA
	DD	FLAT:??_C@_0P@LILDLBPI@UseMappedFiles?$AA@
	DD	FLAT:?g_bUseMappedFiles@@3_NA
	DD	FLAT:??_C@_05HIBBLBMA@NewFm?$AA@
	DD	FLAT:?g_bNewFm@@3_NA
	DD	FLAT:??_C@_0BD@JAHCDCFJ@RealisticAttrition?$AA@
	DD	FLAT:?g_bRealisticAttrition@@3_NA
	DD	FLAT:??_C@_0N@EMDJPEPI@GreyScaleMFD?$AA@
	DD	FLAT:?g_bGreyScaleMFD@@3_NA
	DD	FLAT:??_C@_06DNMIJEHJ@IFFRWR?$AA@
	DD	FLAT:?g_bIFFRWR@@3_NA
	DD	FLAT:??_C@_09EDDKFAHB@3dCockpit?$AA@
	DD	FLAT:?g_b3dCockpit@@3_NA
	DD	FLAT:??_C@_03FOMBOACJ@RWR?$AA@
	DD	FLAT:?g_bRWR@@3_NA
	DD	FLAT:??_C@_09JBONLPAM@BrightHUD?$AA@
	DD	FLAT:?g_bBrightHUD@@3_NA
	DD	FLAT:??_C@_09JEGBIAG@3dMFDLeft?$AA@
	DD	FLAT:?g_b3dMFDLeft@@3_NA
	DD	FLAT:??_C@_0L@PDJFOMEE@3dMFDRight?$AA@
	DD	FLAT:?g_b3dMFDRight@@3_NA
	DD	FLAT:??_C@_0BD@PHPIFOFB@3dDynamicPilotHead?$AA@
	DD	FLAT:?g_b3dDynamicPilotHead@@3_NA
	DD	FLAT:??_C@_0BA@JPCCLLAP@SimpleFMUpdates?$AA@
	DD	FLAT:?g_bSimpleFMUpdates@@3_NA
	DD	FLAT:??_C@_0O@LOMJEIDE@NoMFDsIn1View?$AA@
	DD	FLAT:?g_bNoMFDsIn1View@@3_NA
	DD	FLAT:??_C@_06LGMEBDBC@Server?$AA@
	DD	FLAT:?g_bServer@@3_NA
	DD	FLAT:??_C@_0O@PMMAFHAM@ServerHostAll?$AA@
	DD	FLAT:?g_bServerHostAll@@3_NA
	DD	FLAT:??_C@_09NHIOLBMG@LogEvents?$AA@
	DD	FLAT:?g_bLogEvents@@3_NA
	DD	FLAT:??_C@_08MKJAIDGB@VoiceCom?$AA@
	DD	FLAT:?g_bVoiceCom@@3_NA
	DD	FLAT:??_C@_05BFIPGPFD@woeir?$AA@
	DD	FLAT:?g_bwoeir@@3_NA
	DD	FLAT:??_C@_03JIJHNLG@MLU?$AA@
	DD	FLAT:?g_bMLU@@3_NA
	DD	FLAT:??_C@_03OKJDCOKF@IFF?$AA@
	DD	FLAT:?g_bIFF@@3_NA
	DD	FLAT:??_C@_03NDDFJJAJ@INS?$AA@
	DD	FLAT:?g_bINS@@3_NA
	DD	FLAT:??_C@_0BE@LKGLBJDK@RP5DataCompatiblity?$AA@
	DD	FLAT:?g_bRP5Comp@@3_NA
	DD	FLAT:??_C@_0L@JOJBNFBI@ModuleList?$AA@
	DD	FLAT:?g_bModuleList@@3_NA
	DD	FLAT:??_C@_07FMFJLGFM@HiResUI?$AA@
	DD	FLAT:?g_bHiResUI@@3_NA
	DD	FLAT:??_C@_09GNPGNAEB@AWACSFuel?$AA@
	DD	FLAT:?g_bAWACSFuel@@3_NA
	DD	FLAT:??_C@_0O@JFLNFGBA@FullScreenNVG?$AA@
	DD	FLAT:?g_bFullScreenNVG@@3_NA
	DD	FLAT:??_C@_0M@FFNMDFFK@LogUiErrors?$AA@
	DD	FLAT:?g_bLogUiErrors@@3_NA
	DD	FLAT:??_C@_0BK@HHNBHFID@LoadoutSquadStoreResupply?$AA@
	DD	FLAT:?g_bLoadoutSquadStoreResupply@@3_NA
	DD	FLAT:??_C@_0N@CENADPFP@DisplayTrees?$AA@
	DD	FLAT:?g_bDisplayTrees@@3_NA
	DD	FLAT:??_C@_0M@JOHNLPA@RequestHelp?$AA@
	DD	FLAT:?g_bRequestHelp@@3_NA
	DD	FLAT:??_C@_0M@NIHNMLI@LightsKC135?$AA@
	DD	FLAT:?g_bLightsKC135@@3_NA
	DD	FLAT:??_C@_0BA@NFJPGAEE@AddACSizeVisual?$AA@
	DD	FLAT:?g_bAddACSizeVisual@@3_NA
	DD	FLAT:??_C@_0M@PBBBGNFE@NewRackData?$AA@
	DD	FLAT:?g_bNewRackData@@3_NA
	DD	FLAT:??_C@_0M@IOPCONON@BMSRackData?$AA@
	DD	FLAT:?g_bBMSRackData@@3_NA
	DD	FLAT:??_C@_0L@MNBONOJP@HelosReloc?$AA@
	DD	FLAT:?g_bHelosReloc@@3_NA
	DD	FLAT:??_C@_09NPFDHEPC@ShowFlaps?$AA@
	DD	FLAT:?g_bShowFlaps@@3_NA
	DD	FLAT:??_C@_0M@MMINDMLE@SlowButSafe?$AA@
	DD	FLAT:?g_bSlowButSafe@@3_NA
	DD	FLAT:??_C@_0L@KLNHFOAF@NewPadlock?$AA@
	DD	FLAT:?g_bNewPadlock@@3_NA
	DD	FLAT:??_C@_0P@KNDOKDNJ@NoPadlockBoxes?$AA@
	DD	FLAT:?g_bNoPadlockBoxes@@3_NA
	DD	FLAT:??_C@_0BC@MAHCILAL@PitchLimiterForAI?$AA@
	DD	FLAT:?g_bPitchLimiterForAI@@3_NA
	DD	FLAT:??_C@_0P@LEGDLLNM@MissionACIcons?$AA@
	DD	FLAT:?g_bMissionACIcons@@3_NA
	DD	FLAT:??_C@_0BA@GLLFDLGP@EnableMfdColors?$AA@
	DD	FLAT:?g_bEnableMfdColors@@3_NA
	DD	FLAT:??_C@_0O@MIMBHKJI@EnableMfdSize?$AA@
	DD	FLAT:?g_bEnableMfdSize@@3_NA
	DD	FLAT:??_C@_0BE@EPNOGHNI@AIRefuelInComplexAF?$AA@
	DD	FLAT:?g_bAIRefuelInComplexAF@@3_NA
	DD	FLAT:??_C@_0L@MBGAPEKL@NewAcmiHud?$AA@
	DD	FLAT:?g_bNewAcmiHud@@3_NA
	DD	FLAT:??_C@_0BA@EFBALDAB@AWACSBackground?$AA@
	DD	FLAT:?g_bAWACSBackground@@3_NA
	DD	FLAT:??_C@_08MHEBNPF@MavFixes?$AA@
	DD	FLAT:?g_bMavFixes@@3_NA
	DD	FLAT:??_C@_08EOPBLIOM@LgbFixes?$AA@
	DD	FLAT:?g_bLgbFixes@@3_NA
	DD	FLAT:??_C@_0BD@KOEGGDKO@FallingHeadingTape?$AA@
	DD	FLAT:?g_bFallingHeadingTape@@3_NA
	DD	FLAT:??_C@_0O@JHIMBKBM@NewRefuelHelp?$AA@
	DD	FLAT:?g_bNewRefuelHelp@@3_NA
	DD	FLAT:??_C@_0BB@NLPJDECN@OtherGroundCheck?$AA@
	DD	FLAT:?g_bOtherGroundCheck@@3_NA
	DD	FLAT:??_C@_0BC@BBIMDAFF@Limit2DRadarFight?$AA@
	DD	FLAT:?g_bLimit2DRadarFight@@3_NA
	DD	FLAT:??_C@_0BL@IDAGFGKL@AdvancedGroundChooseWeapon?$AA@
	DD	FLAT:?g_bAdvancedGroundChooseWeapon@@3_NA
	DD	FLAT:??_C@_08MEFGJPBP@TFRFixes?$AA@
	DD	FLAT:?g_bTFRFixes@@3_NA
	DD	FLAT:??_C@_06DOMAHNHD@AIGloc?$AA@
	DD	FLAT:?g_bAIGloc@@3_NA
	DD	FLAT:??_C@_0BH@DHPHDCBG@CalibrateTFR_PitchCtrl?$AA@
	DD	FLAT:?g_bCalibrateTFR_PitchCtrl@@3_NA
	DD	FLAT:??_C@_09CCBPHLOF@LantDebug?$AA@
	DD	FLAT:?g_bLantDebug@@3_NA
	DD	FLAT:??_C@_0P@HDGMLBIK@UseNewCanEnage?$AA@
	DD	FLAT:?g_bUseNewCanEnage@@3_NA
	DD	FLAT:??_C@_0BC@MNDEGEPH@MPStartRestricted?$AA@
	DD	FLAT:?g_bMPStartRestricted@@3_NA
	DD	FLAT:??_C@_0BB@HNDLNA@UseSkillForFlaks?$AA@
	DD	FLAT:?g_bUseSkillForFlaks@@3_NA
	DD	FLAT:??_C@_0BB@GJHIHGJG@ToggleAAAGunFlag?$AA@
	DD	FLAT:?g_bToggleAAAGunFlag@@3_NA
	DD	FLAT:??_C@_0P@BHCMJLKD@UseTankerTrack?$AA@
	DD	FLAT:?g_bUseTankerTrack@@3_NA
	DD	FLAT:??_C@_0BJ@CLIPICFC@UseComplexBVRForPlayerAI?$AA@
	DD	FLAT:?g_bUseComplexBVRForPlayerAI@@3_NA
	DD	FLAT:??_C@_0N@LCONHMAD@FuelUseVtDot?$AA@
	DD	FLAT:?g_bFuelUseVtDot@@3_NA
	DD	FLAT:??_C@_0BG@JHJCJKBA@FuelLimitBecauseVtDot?$AA@
	DD	FLAT:?g_bFuelLimitBecauseVtDot@@3_NA
	DD	FLAT:??_C@_0BK@PNDABNIL@UseAggresiveIncompleteA2G?$AA@
	DD	FLAT:?g_bUseAggresiveIncompleteA2G@@3_NA
	DD	FLAT:??_C@_0P@IFBNLFCA@NewPitchLadder?$AA@
	DD	FLAT:?g_bNewPitchLadder@@3_NA
	DD	FLAT:??_C@_0N@EAJHDDIH@AddIngressWP?$AA@
	DD	FLAT:?g_bAddIngressWP@@3_NA
	DD	FLAT:??_C@_0BA@OCBOHBEA@TankerWaypoints?$AA@
	DD	FLAT:?g_bTankerWaypoints@@3_NA
	DD	FLAT:??_C@_0M@MLCLHDON@PutAIToBoom?$AA@
	DD	FLAT:?g_bPutAIToBoom@@3_NA
	DD	FLAT:??_C@_0N@CMBBACE@OldStackDump?$AA@
	DD	FLAT:?g_bOldStackDump@@3_NA
	DD	FLAT:??_C@_0M@LPBECEEF@TankerFMFix?$AA@
	DD	FLAT:?g_bTankerFMFix@@3_NA
	DD	FLAT:??_C@_0N@FADECMI@AGRadarFixes?$AA@
	DD	FLAT:?g_bAGRadarFixes@@3_NA
	DD	FLAT:??_C@_0O@JLJNJCMO@LookCloserFix?$AA@
	DD	FLAT:?g_bLookCloserFix@@3_NA
	DD	FLAT:??_C@_0BA@FFPNCKHA@AnyWaypointTask?$AA@
	DD	FLAT:?g_bAnyWaypointTask@@3_NA
	DD	FLAT:??_C@_0M@BOACOPCD@FFCenterFix?$AA@
	DD	FLAT:?g_bFFCenterFix@@3_NA
	DD	FLAT:??_C@_0BB@EOMIEJNL@CockpitAutoScale?$AA@
	DD	FLAT:?g_bCockpitAutoScale@@3_NA
	DD	FLAT:??_C@_0BI@NGFEJIBD@3DClickableCockpitDebug?$AA@
	DD	FLAT:?g_b3DClickableCockpitDebug@@3_NA
	DD	FLAT:??_C@_0BC@OLFADGNI@3DRTTCockpitDebug?$AA@
	DD	FLAT:?g_b3DRTTCockpitDebug@@3_NA
	DD	FLAT:??_C@_0BI@LGLKLFDB@3DClickableCursorChange?$AA@
	DD	FLAT:?g_b3DClickableCursorChange@@3_NA
	DD	FLAT:??_C@_0O@POKCJEBG@DEDSpacingFix?$AA@
	DD	FLAT:?g_bDEDSpacingFix@@3_NA
	DD	FLAT:??_C@_0N@BCEEDNO@ReconLatLong?$AA@
	DD	FLAT:?g_bReconLatLong@@3_NA
	DD	FLAT:??_C@_09CJLDLDD@RatioHack?$AA@
	DD	FLAT:?g_bRatioHack@@3_NA
	DD	FLAT:??_C@_0BD@PNLHFGBB@PrecisionWaypoints?$AA@
	DD	FLAT:?g_bPrecisionWaypoints@@3_NA
	DD	FLAT:??_C@_0BA@OBMNLAKJ@SmallerBullseye?$AA@
	DD	FLAT:?g_bSmallerBullseye@@3_NA
	DD	FLAT:??_C@_0P@JFEFEAKN@AutoScaleFonts?$AA@
	DD	FLAT:?g_bAutoScaleFonts@@3_NA
	DD	FLAT:??_C@_0BF@GPDDPCBB@EnableRandomFailures?$AA@
	DD	FLAT:?g_bEnableRandomFailures@@3_NA
	DD	FLAT:??_C@_0BA@OOLLLJDM@2DPitWingFOVFix?$AA@
	DD	FLAT:?g_b2DPitWingFOVFix@@3_NA
	DD	FLAT:??_C@_0BA@OJJCMMHA@OldFontTexelFix?$AA@
	DD	FLAT:?g_bOldFontTexelFix@@3_NA
	DD	FLAT:??_C@_0M@NGBMIBBH@Filter2DPit?$AA@
	DD	FLAT:?g_bFilter2DPit@@3_NA
	DD	FLAT:??_C@_08EDEADKDH@CrackFix?$AA@
	DD	FLAT:?g_bCrackFix@@3_NA
	DD	FLAT:??_C@_0BB@KFIBFEKH@ResizeUsesResMgr?$AA@
	DD	FLAT:?g_bResizeUsesResMgr@@3_NA
	DD	FLAT:??_C@_0BA@NIMIGMAE@PadlockHudColor?$AA@
	DD	FLAT:?g_bPadlockHudColor@@3_NA
	DD	FLAT:??_C@_0BC@NDOBAMEH@CheckFeatureIndex?$AA@
	DD	FLAT:?g_bCheckFeatureIndex@@3_NA
	DD	FLAT:??_C@_0M@BKJLMPFC@MachAsiDial?$AA@
	DD	FLAT:?g_bMachAsiDial@@3_NA
	DD	FLAT:??_C@_0N@JDDAGMMH@New2DTrackIR?$AA@
	DD	FLAT:?g_bNew2DTrackIR@@3_NA
	DD	FLAT:??_C@_0M@HPAJJJKH@Sync2D3DPit?$AA@
	DD	FLAT:?g_bSync2D3DPit@@3_NA
	DD	FLAT:??_C@_0L@GLPDEGIL@LowBwVoice?$AA@
	DD	FLAT:?g_bLowBwVoice@@3_NA
	DD	FLAT:??_C@_0O@OBLODPNM@AGTargetWPFix?$AA@
	DD	FLAT:?g_bAGTargetWPFix@@3_NA
	DD	FLAT:??_C@_0BA@HCEBKICP@BombNumLoopOnly?$AA@
	DD	FLAT:?g_bBombNumLoopOnly@@3_NA
	DD	FLAT:??_C@_0BC@NCKOLEGB@AlwaysAnisotropic?$AA@
	DD	FLAT:?g_bAlwaysAnisotropic@@3_NA
	DD	FLAT:??_C@_0BC@FIMBFGHK@NoAAAEventRecords?$AA@
	DD	FLAT:?g_bNoAAAEventRecords@@3_NA
	DD	FLAT:??_C@_0BD@JCCBLOJD@ActivateDebugStuff?$AA@
	DD	FLAT:?g_bActivateDebugStuff@@3_NA
	DD	FLAT:??_C@_0BF@LMKIJKDL@ActivateMissileDebug?$AA@
	DD	FLAT:?g_bActivateMissileDebug@@3_NA
	DD	FLAT:??_C@_0BD@LNALKBHL@NewSensorPrecision?$AA@
	DD	FLAT:?g_bNewSensorPrecision@@3_NA
	DD	FLAT:??_C@_0L@BNLFLHLJ@AGNoBVRWVR?$AA@
	DD	FLAT:?g_bAGNoBVRWVR@@3_NA
	DD	FLAT:??_C@_0BA@MIHHENE@TO_LDG_LightFix?$AA@
	DD	FLAT:?g_bTO_LDG_LightFix@@3_NA
	DD	FLAT:??_C@_0BF@IPGINMJE@AppendToBriefingFile?$AA@
	DD	FLAT:?g_bAppendToBriefingFile@@3_NA
	DD	FLAT:??_C@_0L@MBDOGONP@DarkHudFix?$AA@
	DD	FLAT:?g_bDarkHudFix@@3_NA
	DD	FLAT:??_C@_06KCOHPJHE@RQDFix?$AA@
	DD	FLAT:?g_bRQDFix@@3_NA
	DD	FLAT:??_C@_0P@HALBPCMP@ACPlayerCTDFix?$AA@
	DD	FLAT:?g_bACPlayerCTDFix@@3_NA
	DD	FLAT:??_C@_0N@FLGDBIIB@CheckForMode?$AA@
	DD	FLAT:?g_bCheckForMode@@3_NA
	DD	FLAT:??_C@_0O@BPCJMHGI@AllowOverload?$AA@
	DD	FLAT:?g_bAllowOverload@@3_NA
	DD	FLAT:??_C@_0BE@EJFCLLNL@UseDefinedGunDomain?$AA@
	DD	FLAT:?g_bUseDefinedGunDomain@@3_NA
	DD	FLAT:??_C@_0P@PODBGMK@LabelRadialFix?$AA@
	DD	FLAT:?g_bLabelRadialFix@@3_NA
	DD	FLAT:??_C@_0BC@MCFNANOH@LabelShowDistance?$AA@
	DD	FLAT:?g_bLabelShowDistance@@3_NA
	DD	FLAT:??_C@_0BC@BFLCFKFJ@SetWaypointNumFix?$AA@
	DD	FLAT:?g_bSetWaypointNumFix@@3_NA
	DD	FLAT:??_C@_0BB@FNGCFHBD@EmptyFilenameFix?$AA@
	DD	FLAT:?g_bEmptyFilenameFix@@3_NA
	DD	FLAT:??_C@_0BB@MDDAFMNM@RebuildbobbleFix?$AA@
	DD	FLAT:?g_brebuildbobbleFix@@3_NA
	DD	FLAT:??_C@_05NLHHIMJF@MPFix?$AA@
	DD	FLAT:?g_bMPFix@@3_NA
	DD	FLAT:??_C@_06GNMOEEDG@MPFix2?$AA@
	DD	FLAT:?g_bMPFix2@@3_NA
	DD	FLAT:??_C@_06HENFHFHH@MPFix3?$AA@
	DD	FLAT:?g_bMPFix3@@3_NA
	DD	FLAT:??_C@_06DLJEODLA@MPFix4?$AA@
	DD	FLAT:?g_bMPFix4@@3_NA
	DD	FLAT:??_C@_0BC@MPPGCPH@ExitCampSelectFix?$AA@
	DD	FLAT:?g_bExitCampSelectFix@@3_NA
	DD	FLAT:??_C@_0BC@KADNOGMI@CampSavedMenuHack?$AA@
	DD	FLAT:?g_bCampSavedMenuHack@@3_NA
	DD	FLAT:??_C@_0BF@MPAIMHGE@EmergencyJettisonFix?$AA@
	DD	FLAT:?g_bEmergencyJettisonFix@@3_NA
	DD	FLAT:??_C@_0P@BNHDBBJD@OldSamActivity?$AA@
	DD	FLAT:?g_bOldSamActivity@@3_NA
	DD	FLAT:??_C@_0O@EPBBDKGP@FireOntheMove?$AA@
	DD	FLAT:?g_bFireOntheMove@@3_NA
	DD	FLAT:??_C@_0BA@DCMLMHIC@SAM2D3DHandover?$AA@
	DD	FLAT:?g_bSAM2D3DHandover@@3_NA
	DD	FLAT:??_C@_07POPACGNO@MavFix2?$AA@
	DD	FLAT:?g_bMavFix2@@3_NA
	DD	FLAT:??_C@_0BG@CCDGAFHB@DisableMissileEngGlow?$AA@
	DD	FLAT:?g_bDisableMissleEngGlow@@3_NA
	DD	FLAT:??_C@_06PKNIHIOC@HUDFix?$AA@
	DD	FLAT:?g_bHUDFix@@3_NA
	DD	FLAT:??_C@_0BD@IEKFPDMB@SMSPylonLoadingFix?$AA@
	DD	FLAT:?g_bSMSPylonLoadingFix@@3_NA
	DD	FLAT:??_C@_0M@GJBGJBPG@LargeStrike?$AA@
	DD	FLAT:?g_bLargeStrike@@3_NA
	DD	FLAT:??_C@_0N@DNANAGMB@TakeoffSound?$AA@
	DD	FLAT:?g_bTakeoffSound@@3_NA
	DD	FLAT:??_C@_08BNNIANJF@Scramble?$AA@
	DD	FLAT:?g_bScramble@@3_NA
	DD	FLAT:??_C@_06FMJLOEBN@hudAOA?$AA@
	DD	FLAT:?g_bhudAOA@@3_NA
	DD	FLAT:??_C@_09NPEAAMPE@LensFlare?$AA@
	DD	FLAT:?g_bLensFlare@@3_NA
	DD	FLAT:??_C@_0BE@EEPCKBHI@DisableHighFartiles?$AA@
	DD	FLAT:?g_bDisableHighFartiles@@3_NA
	DD	FLAT:??_C@_0N@GCFLLIPN@noRadStutter?$AA@
	DD	FLAT:?g_bnoRadStutter@@3_NA
	DD	FLAT:??_C@_0BE@LADJIFHB@RollLinkedNWSRudder?$AA@
	DD	FLAT:?g_bRollLinkedNWSRudder@@3_NA
	DD	FLAT:??_C@_0BH@OCMLJDFA@EnableGRCursorBullseye?$AA@
	DD	FLAT:?g_bEnableGRCursorBullseye@@3_NA
	DD	FLAT:??_C@_09JIIKAKDF@BriefHTML?$AA@
	DD	FLAT:?g_bBriefHTML@@3_NA
	DD	FLAT:??_C@_0BB@PLIBOKCI@RealisticMavTime?$AA@
	DD	FLAT:?g_bRealisticMavTime@@3_NA
	DD	FLAT:??_C@_0N@IMJCLHBO@newAMRAAMdlz?$AA@
	DD	FLAT:?g_bnewAMRAAMdlz@@3_NA
	DD	FLAT:??_C@_0BG@IBCBAPOO@EnableDisplacementCam?$AA@
	DD	FLAT:?g_bEnableDisplacementCam@@3_NA
	DD	FLAT:??_C@_0P@ILOPFFFD@AntElevKnobFix?$AA@
	DD	FLAT:?g_bAntElevKnobFix@@3_NA
	DD	FLAT:??_C@_0BD@IFOBHKPB@PilotEntertainment?$AA@
	DD	FLAT:?g_bPilotEntertainment@@3_NA
	DD	FLAT:??_C@_0M@PAHFHAJ@RollInertia?$AA@
	DD	FLAT:?g_bRollInertia@@3_NA
	DD	FLAT:??_C@_0BB@LHKHGDJK@ACMIRecordMsgOff?$AA@
	DD	FLAT:?g_bACMIRecordMsgOff@@3_NA
	DD	FLAT:??_C@_0BE@FEADJIHO@UseAnalogIdleCutoff?$AA@
	DD	FLAT:?g_bUseAnalogIdleCutoff@@3_NA
	DD	FLAT:??_C@_0BD@FOGMLOLH@WeaponPickleDelays?$AA@
	DD	FLAT:?g_bWeaponPickleDelays@@3_NA
	DD	FLAT:??_C@_0L@DOGDBHOJ@HsdStptFix?$AA@
	DD	FLAT:?g_bHsdStptFix@@3_NA
	DD	FLAT:??_C@_0L@DHDGAL@F4CommsMTU?$AA@
	DD	FLAT:?g_bF4CommsMTU@@3_NA
	DD	FLAT:??_C@_0M@FOFODPOK@UseNew3dpit?$AA@
	DD	FLAT:?g_bUseNew3dpit@@3_NA
	DD	FLAT:??_C@_0N@IICFPPI@StartIn3Dpit?$AA@
	DD	FLAT:?g_bStartIn3Dpit@@3_NA
	DD	FLAT:??_C@_0BA@CIIDEAB@UseNewSmoothing?$AA@
	DD	FLAT:?g_bUseNewSmoothing@@3_NA
	DD	FLAT:??_C@_0BC@OOAJHEFL@DisplayAxisValues?$AA@
	DD	FLAT:?g_bDisplayAxisValues@@3_NA
	DD	FLAT:??_C@_0BP@JECNDJKC@WeaponLaunchUsesDrawPointerPos?$AA@
	DD	FLAT:?g_bWeaponLaunchUsesDrawPointerPos@@3_NA
	DD	FLAT:??_C@_0BA@CIIDEAB@UseNewSmoothing?$AA@
	DD	FLAT:?g_bUseNewSmoothing@@3_NA
	DD	FLAT:??_C@_0BC@OOAJHEFL@DisplayAxisValues?$AA@
	DD	FLAT:?g_bDisplayAxisValues@@3_NA
	DD	FLAT:??_C@_0BA@MOKNEEC@WeaponStepToGun?$AA@
	DD	FLAT:?g_bWeaponStepToGun@@3_NA
	DD	FLAT:??_C@_04KIBBIEFM@Turb?$AA@
	DD	FLAT:?g_bTurb@@3_NA
	DD	FLAT:??_C@_0P@LNEMBMEJ@SoundSonicBoom?$AA@
	DD	FLAT:?g_bSoundSonicBoom@@3_NA
	DD	FLAT:??_C@_0BD@FKGNBI@DisableCommsBorder?$AA@
	DD	FLAT:?g_bDisableCommsBorder@@3_NA
	DD	FLAT:??_C@_08OMPBCCDL@EcmOnHud?$AA@
	DD	FLAT:?g_bEcmOnHud@@3_NA
	DD	FLAT:??_C@_0L@CCPAPEIP@BrakeOnHud?$AA@
	DD	FLAT:?g_bBrakeOnHud@@3_NA
	DD	FLAT:??_C@_09MEFGCLMD@GearOnHud?$AA@
	DD	FLAT:?g_bGearOnHud@@3_NA
	DD	FLAT:??_C@_0P@PIGHAJFO@WakeTurbulence?$AA@
	DD	FLAT:?g_bWakeTurbulence@@3_NA
	DD	FLAT:??_C@_0BD@ELLMAKPG@DrawWakeTurbulence?$AA@
	DD	FLAT:?g_bDrawWakeTurbulence@@3_NA
	DD	FLAT:??_C@_0N@KJGHMHPH@OldDustTrail?$AA@
	DD	FLAT:?g_bOldDustTrail@@3_NA
	DD	FLAT:??_C@_0M@IADPJOPC@HearThunder?$AA@
	DD	FLAT:?g_bHearThunder@@3_NA
	DD	FLAT:??_C@_07BNPFHFPE@HighSFX?$AA@
	DD	FLAT:?g_bHighSFX@@3_NA
	DD	FLAT:??_C@_0L@JNAKJINM@AllHaveIFF?$AA@
	DD	FLAT:?g_bAllHaveIFF@@3_NA
	DD	FLAT:??_C@_08EIPMJHIH@UseRC135?$AA@
	DD	FLAT:?g_bUseRC135@@3_NA
	DD	FLAT:??_C@_05PMLDJAMG@FFDBC?$AA@
	DD	FLAT:?g_bFFDBC@@3_NA
	DD	FLAT:??_C@_0BA@FDKAMOEE@ExtViewOnGround?$AA@
	DD	FLAT:?g_bExtViewOnGround@@3_NA
	DD	FLAT:??_C@_0O@MHKFAEHF@UnlimitedAmmo?$AA@
	DD	FLAT:?g_bUnlimitedAmmo@@3_NA
	DD	FLAT:??_C@_0O@CHHOKHGC@AnimPilotHead?$AA@
	DD	FLAT:?g_bAnimPilotHead@@3_NA
	DD	00H
	DD	00H
_DATA	ENDS
;	COMDAT ??_C@_0N@JEEMHINL@ThrottleMode?$AA@
CONST	SEGMENT
??_C@_0N@JEEMHINL@ThrottleMode?$AA@ DB 'ThrottleMode', 00H ; `string'
CONST	ENDS
;	COMDAT ??_C@_0P@PKPJCMAG@PadlockBoxSize?$AA@
CONST	SEGMENT
??_C@_0P@PKPJCMAG@PadlockBoxSize?$AA@ DB 'PadlockBoxSize', 00H ; `string'
CONST	ENDS
;	COMDAT ??_C@_0M@OIEGAJL@PadlockMode?$AA@
CONST	SEGMENT
??_C@_0M@OIEGAJL@PadlockMode?$AA@ DB 'PadlockMode', 00H	; `string'
CONST	ENDS
;	COMDAT ??_C@_0BG@DGMIDNBE@NumDefaultHatSwitches?$AA@
CONST	SEGMENT
??_C@_0BG@DGMIDNBE@NumDefaultHatSwitches?$AA@ DB 'NumDefaultHatSwitches', 00H ; `string'
CONST	ENDS
;	COMDAT ??_C@_0P@HBJABLEG@NearLabelLimit?$AA@
CONST	SEGMENT
??_C@_0P@HBJABLEG@NearLabelLimit?$AA@ DB 'NearLabelLimit', 00H ; `string'
CONST	ENDS
;	COMDAT ??_C@_0BO@NFAKIFJA@percentage_available_aircraft?$AA@
CONST	SEGMENT
??_C@_0BO@NFAKIFJA@percentage_available_aircraft?$AA@ DB 'percentage_avai'
	DB	'lable_aircraft', 00H			; `string'
CONST	ENDS
;	COMDAT ??_C@_0BL@HHNOONGM@minimum_available_aircraft?$AA@
CONST	SEGMENT
??_C@_0BL@HHNOONGM@minimum_available_aircraft?$AA@ DB 'minimum_available_'
	DB	'aircraft', 00H				; `string'
CONST	ENDS
;	COMDAT ??_C@_0BB@GLGCMOJA@MasterServerPort?$AA@
CONST	SEGMENT
??_C@_0BB@GLGCMOJA@MasterServerPort?$AA@ DB 'MasterServerPort', 00H ; `string'
CONST	ENDS
;	COMDAT ??_C@_0P@KHAPOGMN@MaxVertexSpace?$AA@
CONST	SEGMENT
??_C@_0P@KHAPOGMN@MaxVertexSpace?$AA@ DB 'MaxVertexSpace', 00H ; `string'
CONST	ENDS
;	COMDAT ??_C@_0BC@OJMFKPAE@FlightVisualBonus?$AA@
CONST	SEGMENT
??_C@_0BC@OJMFKPAE@FlightVisualBonus?$AA@ DB 'FlightVisualBonus', 00H ; `string'
CONST	ENDS
;	COMDAT ??_C@_0P@BHMGPDNL@RelocationWait?$AA@
CONST	SEGMENT
??_C@_0P@BHMGPDNL@RelocationWait?$AA@ DB 'RelocationWait', 00H ; `string'
CONST	ENDS
;	COMDAT ??_C@_0BB@HDONENA@LoadoutTimeLimit?$AA@
CONST	SEGMENT
??_C@_0BB@HDONENA@LoadoutTimeLimit?$AA@ DB 'LoadoutTimeLimit', 00H ; `string'
CONST	ENDS
;	COMDAT ??_C@_04FEDKBIAK@Year?$AA@
CONST	SEGMENT
??_C@_04FEDKBIAK@Year?$AA@ DB 'Year', 00H		; `string'
CONST	ENDS
;	COMDAT ??_C@_03HNCFIMCB@Day?$AA@
CONST	SEGMENT
??_C@_03HNCFIMCB@Day?$AA@ DB 'Day', 00H			; `string'
CONST	ENDS
;	COMDAT ??_C@_0N@IKEBFFGA@AirbaseReloc?$AA@
CONST	SEGMENT
??_C@_0N@IKEBFFGA@AirbaseReloc?$AA@ DB 'AirbaseReloc', 00H ; `string'
CONST	ENDS
;	COMDAT ??_C@_0N@MHCLNKMJ@NoPlayerPlay?$AA@
CONST	SEGMENT
??_C@_0N@MHCLNKMJ@NoPlayerPlay?$AA@ DB 'NoPlayerPlay', 00H ; `string'
CONST	ENDS
;	COMDAT ??_C@_09FGOEEEEK@DeagTimer?$AA@
CONST	SEGMENT
??_C@_09FGOEEEEK@DeagTimer?$AA@ DB 'DeagTimer', 00H	; `string'
CONST	ENDS
;	COMDAT ??_C@_09HMFELFOF@ReagTimer?$AA@
CONST	SEGMENT
??_C@_09HMFELFOF@ReagTimer?$AA@ DB 'ReagTimer', 00H	; `string'
CONST	ENDS
;	COMDAT ??_C@_08FPMLDCGP@RNESpeed?$AA@
CONST	SEGMENT
??_C@_08FPMLDCGP@RNESpeed?$AA@ DB 'RNESpeed', 00H	; `string'
CONST	ENDS
;	COMDAT ??_C@_0BC@GIFJIKNA@TargetSpotTimeout?$AA@
CONST	SEGMENT
??_C@_0BC@GIFJIKNA@TargetSpotTimeout?$AA@ DB 'TargetSpotTimeout', 00H ; `string'
CONST	ENDS
;	COMDAT ??_C@_0N@LEGJNLKP@MaxUIRefresh?$AA@
CONST	SEGMENT
??_C@_0N@LEGJNLKP@MaxUIRefresh?$AA@ DB 'MaxUIRefresh', 00H ; `string'
CONST	ENDS
;	COMDAT ??_C@_0BB@OOABCAOK@UnidentifiedInUI?$AA@
CONST	SEGMENT
??_C@_0BB@OOABCAOK@UnidentifiedInUI?$AA@ DB 'UnidentifiedInUI', 00H ; `string'
CONST	ENDS
;	COMDAT ??_C@_0BF@LHIAOEBH@lookAroundWaterTiles?$AA@
CONST	SEGMENT
??_C@_0BF@LHIAOEBH@lookAroundWaterTiles?$AA@ DB 'lookAroundWaterTiles', 00H ; `string'
CONST	ENDS
;	COMDAT ??_C@_0BD@GBJHLJHD@FFEffectAutoCenter?$AA@
CONST	SEGMENT
??_C@_0BD@GBJHLJHD@FFEffectAutoCenter?$AA@ DB 'FFEffectAutoCenter', 00H ; `string'
CONST	ENDS
;	COMDAT ??_C@_0M@IJAJMFNL@MPStartTime?$AA@
CONST	SEGMENT
??_C@_0M@IJAJMFNL@MPStartTime?$AA@ DB 'MPStartTime', 00H ; `string'
CONST	ENDS
;	COMDAT ??_C@_0BC@BEKMPFMH@LowestSkillForGCI?$AA@
CONST	SEGMENT
??_C@_0BC@BEKMPFMH@LowestSkillForGCI?$AA@ DB 'LowestSkillForGCI', 00H ; `string'
CONST	ENDS
;	COMDAT ??_C@_0BG@OBDGHLPB@AIVisualRetentionTime?$AA@
CONST	SEGMENT
??_C@_0BG@OBDGHLPB@AIVisualRetentionTime?$AA@ DB 'AIVisualRetentionTime', 00H ; `string'
CONST	ENDS
;	COMDAT ??_C@_0BH@OEGFBPFK@AIVisualRetentionSkill?$AA@
CONST	SEGMENT
??_C@_0BH@OEGFBPFK@AIVisualRetentionSkill?$AA@ DB 'AIVisualRetentionSkill'
	DB	00H						; `string'
CONST	ENDS
;	COMDAT ??_C@_0BH@FCDDJIHB@MaxSimTimeAcceleration?$AA@
CONST	SEGMENT
??_C@_0BH@FCDDJIHB@MaxSimTimeAcceleration?$AA@ DB 'MaxSimTimeAcceleration'
	DB	00H						; `string'
CONST	ENDS
;	COMDAT ??_C@_0BA@EJKNBDPB@LowDetailFactor?$AA@
CONST	SEGMENT
??_C@_0BA@EJKNBDPB@LowDetailFactor?$AA@ DB 'LowDetailFactor', 00H ; `string'
CONST	ENDS
;	COMDAT ??_C@_0BB@KJMKAMHO@NoWPRefuelNeeded?$AA@
CONST	SEGMENT
??_C@_0BB@KJMKAMHO@NoWPRefuelNeeded?$AA@ DB 'NoWPRefuelNeeded', 00H ; `string'
CONST	ENDS
;	COMDAT ??_C@_0N@GJAHMAJ@AirbaseCheck?$AA@
CONST	SEGMENT
??_C@_0N@GJAHMAJ@AirbaseCheck?$AA@ DB 'AirbaseCheck', 00H ; `string'
CONST	ENDS
;	COMDAT ??_C@_0P@PLNKDCEP@FogRenderState?$AA@
CONST	SEGMENT
??_C@_0P@PLNKDCEP@FogRenderState?$AA@ DB 'FogRenderState', 00H ; `string'
CONST	ENDS
;	COMDAT ??_C@_0L@GBPCGGLI@MissileFix?$AA@
CONST	SEGMENT
??_C@_0L@GBPCGGLI@MissileFix?$AA@ DB 'MissileFix', 00H	; `string'
CONST	ENDS
;	COMDAT ??_C@_0BB@PCHAINIF@SkipWaypointTime?$AA@
CONST	SEGMENT
??_C@_0BB@PCHAINIF@SkipWaypointTime?$AA@ DB 'SkipWaypointTime', 00H ; `string'
CONST	ENDS
;	COMDAT ??_C@_0BB@OGAGDFIL@GroundAttackTime?$AA@
CONST	SEGMENT
??_C@_0BB@OGAGDFIL@GroundAttackTime?$AA@ DB 'GroundAttackTime', 00H ; `string'
CONST	ENDS
;	COMDAT ??_C@_0P@BFLIKJHI@SeadAttackTime?$AA@
CONST	SEGMENT
??_C@_0P@BFLIKJHI@SeadAttackTime?$AA@ DB 'SeadAttackTime', 00H ; `string'
CONST	ENDS
;	COMDAT ??_C@_0BB@KDGPFNKD@StrikeAttackTime?$AA@
CONST	SEGMENT
??_C@_0BB@KDGPFNKD@StrikeAttackTime?$AA@ DB 'StrikeAttackTime', 00H ; `string'
CONST	ENDS
;	COMDAT ??_C@_0O@GKFNPKAD@CASAttackTime?$AA@
CONST	SEGMENT
??_C@_0O@GKFNPKAD@CASAttackTime?$AA@ DB 'CASAttackTime', 00H ; `string'
CONST	ENDS
;	COMDAT ??_C@_0BF@FELAILAJ@AIshootLookShootTime?$AA@
CONST	SEGMENT
??_C@_0BF@FELAILAJ@AIshootLookShootTime?$AA@ DB 'AIshootLookShootTime', 00H ; `string'
CONST	ENDS
;	COMDAT ??_C@_06OKKPCIIP@GfxFix?$AA@
CONST	SEGMENT
??_C@_06OKKPCIIP@GfxFix?$AA@ DB 'GfxFix', 00H		; `string'
CONST	ENDS
;	COMDAT ??_C@_0BA@OMKLHKAN@ATCTaxiOrderFix?$AA@
CONST	SEGMENT
??_C@_0BA@OMKLHKAN@ATCTaxiOrderFix?$AA@ DB 'ATCTaxiOrderFix', 00H ; `string'
CONST	ENDS
;	COMDAT ??_C@_0BA@GMGKOKBG@DFRegenerateFix?$AA@
CONST	SEGMENT
??_C@_0BA@GMGKOKBG@DFRegenerateFix?$AA@ DB 'DFRegenerateFix', 00H ; `string'
CONST	ENDS
;	COMDAT ??_C@_0P@LHGNNLM@BWMaxDeltaTime?$AA@
CONST	SEGMENT
??_C@_0P@LHGNNLM@BWMaxDeltaTime?$AA@ DB 'BWMaxDeltaTime', 00H ; `string'
CONST	ENDS
;	COMDAT ??_C@_0BB@NPHLGFKD@BWCheckDeltaTime?$AA@
CONST	SEGMENT
??_C@_0BB@NPHLGFKD@BWCheckDeltaTime?$AA@ DB 'BWCheckDeltaTime', 00H ; `string'
CONST	ENDS
;	COMDAT ??_C@_0P@CEAGODDN@VUMaxDeltaTime?$AA@
CONST	SEGMENT
??_C@_0P@CEAGODDN@VUMaxDeltaTime?$AA@ DB 'VUMaxDeltaTime', 00H ; `string'
CONST	ENDS
;	COMDAT ??_C@_0BH@DOIILFGN@ACMIOptionsPopupHiResX?$AA@
CONST	SEGMENT
??_C@_0BH@DOIILFGN@ACMIOptionsPopupHiResX?$AA@ DB 'ACMIOptionsPopupHiResX'
	DB	00H						; `string'
CONST	ENDS
;	COMDAT ??_C@_0BH@CHJDIECM@ACMIOptionsPopupHiResY?$AA@
CONST	SEGMENT
??_C@_0BH@CHJDIECM@ACMIOptionsPopupHiResY?$AA@ DB 'ACMIOptionsPopupHiResY'
	DB	00H						; `string'
CONST	ENDS
;	COMDAT ??_C@_0BI@KDMPCIJN@ACMIOptionsPopupLowResX?$AA@
CONST	SEGMENT
??_C@_0BI@KDMPCIJN@ACMIOptionsPopupLowResX?$AA@ DB 'ACMIOptionsPopupLowRe'
	DB	'sX', 00H					; `string'
CONST	ENDS
;	COMDAT ??_C@_0BI@LKNEBJNM@ACMIOptionsPopupLowResY?$AA@
CONST	SEGMENT
??_C@_0BI@LKNEBJNM@ACMIOptionsPopupLowResY?$AA@ DB 'ACMIOptionsPopupLowRe'
	DB	'sY', 00H					; `string'
CONST	ENDS
;	COMDAT ??_C@_0BC@MDEFACBF@ChooseBullseyeFix?$AA@
CONST	SEGMENT
??_C@_0BC@MDEFACBF@ChooseBullseyeFix?$AA@ DB 'ChooseBullseyeFix', 00H ; `string'
CONST	ENDS
;	COMDAT ??_C@_0P@MDOLEFIA@SoundSwitchFix?$AA@
CONST	SEGMENT
??_C@_0P@MDOLEFIA@SoundSwitchFix?$AA@ DB 'SoundSwitchFix', 00H ; `string'
CONST	ENDS
;	COMDAT ??_C@_0M@GJLEKKKF@PrintToFile?$AA@
CONST	SEGMENT
??_C@_0M@GJLEKKKF@PrintToFile?$AA@ DB 'PrintToFile', 00H ; `string'
CONST	ENDS
;	COMDAT ??_C@_0P@CEFOJMIA@SessionTimeout?$AA@
CONST	SEGMENT
??_C@_0P@CEFOJMIA@SessionTimeout?$AA@ DB 'SessionTimeout', 00H ; `string'
CONST	ENDS
;	COMDAT ??_C@_0BC@GCKILAAB@SessionUpdateRate?$AA@
CONST	SEGMENT
??_C@_0BC@GCKILAAB@SessionUpdateRate?$AA@ DB 'SessionUpdateRate', 00H ; `string'
CONST	ENDS
;	COMDAT ??_C@_0BF@PGHGLIAA@MaxInterceptDistance?$AA@
CONST	SEGMENT
??_C@_0BF@PGHGLIAA@MaxInterceptDistance?$AA@ DB 'MaxInterceptDistance', 00H ; `string'
CONST	ENDS
;	COMDAT ??_C@_0BC@POKKFCBC@TrackIRSampleFreq?$AA@
CONST	SEGMENT
??_C@_0BC@POKKFCBC@TrackIRSampleFreq?$AA@ DB 'TrackIRSampleFreq', 00H ; `string'
CONST	ENDS
;	COMDAT ??_C@_0O@FGJJJKBN@SoundUpdatems?$AA@
CONST	SEGMENT
??_C@_0O@FGJJJKBN@SoundUpdatems?$AA@ DB 'SoundUpdatems', 00H ; `string'
CONST	ENDS
;	COMDAT ??_C@_0BC@OMLJLFBC@NumberOfSubTitles?$AA@
CONST	SEGMENT
??_C@_0BC@OMLJLFBC@NumberOfSubTitles?$AA@ DB 'NumberOfSubTitles', 00H ; `string'
CONST	ENDS
;	COMDAT ??_C@_0M@DAGHONMO@SubTitleTTL?$AA@
CONST	SEGMENT
??_C@_0M@DAGHONMO@SubTitleTTL?$AA@ DB 'SubTitleTTL', 00H ; `string'
CONST	ENDS
;	COMDAT ??_C@_0BB@PNDBKKFB@WinAmpInitVolume?$AA@
CONST	SEGMENT
??_C@_0BB@PNDBKKFB@WinAmpInitVolume?$AA@ DB 'WinAmpInitVolume', 00H ; `string'
CONST	ENDS
;	COMDAT ??_C@_0O@NPKMGOBK@DynamicVoices?$AA@
CONST	SEGMENT
??_C@_0O@NPKMGOBK@DynamicVoices?$AA@ DB 'DynamicVoices', 00H ; `string'
CONST	ENDS
;	COMDAT ??_C@_0O@NCDBNCFB@IdleCutoffPad?$AA@
CONST	SEGMENT
??_C@_0O@NCDBNCFB@IdleCutoffPad?$AA@ DB 'IdleCutoffPad', 00H ; `string'
CONST	ENDS
;	COMDAT ??_C@_0BA@DJKECLPD@SaturationSmall?$AA@
CONST	SEGMENT
??_C@_0BA@DJKECLPD@SaturationSmall?$AA@ DB 'SaturationSmall', 00H ; `string'
CONST	ENDS
;	COMDAT ??_C@_0BB@MDKFJACE@SaturationMedium?$AA@
CONST	SEGMENT
??_C@_0BB@MDKFJACE@SaturationMedium?$AA@ DB 'SaturationMedium', 00H ; `string'
CONST	ENDS
;	COMDAT ??_C@_0BA@JBOPNKGF@SaturationLarge?$AA@
CONST	SEGMENT
??_C@_0BA@JBOPNKGF@SaturationLarge?$AA@ DB 'SaturationLarge', 00H ; `string'
CONST	ENDS
;	COMDAT ??_C@_0O@KIIOJHIB@DeadzoneSmall?$AA@
CONST	SEGMENT
??_C@_0O@KIIOJHIB@DeadzoneSmall?$AA@ DB 'DeadzoneSmall', 00H ; `string'
CONST	ENDS
;	COMDAT ??_C@_0P@HNDPKKII@DeadzoneMedium?$AA@
CONST	SEGMENT
??_C@_0P@HNDPKKII@DeadzoneMedium?$AA@ DB 'DeadzoneMedium', 00H ; `string'
CONST	ENDS
;	COMDAT ??_C@_0O@MFGGBH@DeadzoneLarge?$AA@
CONST	SEGMENT
??_C@_0O@MFGGBH@DeadzoneLarge?$AA@ DB 'DeadzoneLarge', 00H ; `string'
CONST	ENDS
;	COMDAT ??_C@_0N@PKJOOHMG@DeadzoneHuge?$AA@
CONST	SEGMENT
??_C@_0N@PKJOOHMG@DeadzoneHuge?$AA@ DB 'DeadzoneHuge', 00H ; `string'
CONST	ENDS
;	COMDAT ??_C@_0BB@DPPDNALN@MouseLookSensMax?$AA@
CONST	SEGMENT
??_C@_0BB@DPPDNALN@MouseLookSensMax?$AA@ DB 'MouseLookSensMax', 00H ; `string'
CONST	ENDS
;	COMDAT ??_C@_0BB@CNHIDENC@MouseLookSensMin?$AA@
CONST	SEGMENT
??_C@_0BB@CNHIDENC@MouseLookSensMin?$AA@ DB 'MouseLookSensMin', 00H ; `string'
CONST	ENDS
;	COMDAT ??_C@_0BC@GBFOMJAG@MouseWheelSensMax?$AA@
CONST	SEGMENT
??_C@_0BC@GBFOMJAG@MouseWheelSensMax?$AA@ DB 'MouseWheelSensMax', 00H ; `string'
CONST	ENDS
;	COMDAT ??_C@_0BC@HDNFCNGJ@MouseWheelSensMin?$AA@
CONST	SEGMENT
??_C@_0BC@HDNFCNGJ@MouseWheelSensMin?$AA@ DB 'MouseWheelSensMin', 00H ; `string'
CONST	ENDS
;	COMDAT ??_C@_0O@NFJLJAKC@KeyPOVSensMax?$AA@
CONST	SEGMENT
??_C@_0O@NFJLJAKC@KeyPOVSensMax?$AA@ DB 'KeyPOVSensMax', 00H ; `string'
CONST	ENDS
;	COMDAT ??_C@_0O@MHBAHEMN@KeyPOVSensMin?$AA@
CONST	SEGMENT
??_C@_0O@MHBAHEMN@KeyPOVSensMin?$AA@ DB 'KeyPOVSensMin', 00H ; `string'
CONST	ENDS
;	COMDAT ??_C@_0P@GNKPBIOL@3DHeadPanRange?$AA@
CONST	SEGMENT
??_C@_0P@GNKPBIOL@3DHeadPanRange?$AA@ DB '3DHeadPanRange', 00H ; `string'
CONST	ENDS
;	COMDAT ??_C@_0BA@NHGHLIF@3DHeadTiltRange?$AA@
CONST	SEGMENT
??_C@_0BA@NHGHLIF@3DHeadTiltRange?$AA@ DB '3DHeadTiltRange', 00H ; `string'
CONST	ENDS
;	COMDAT ??_C@_07PDCPCPDK@6DOFTIR?$AA@
CONST	SEGMENT
??_C@_07PDCPCPDK@6DOFTIR?$AA@ DB '6DOFTIR', 00H		; `string'
CONST	ENDS
;	COMDAT ??_C@_0O@DLBHIEAA@NewFPSCounter?$AA@
CONST	SEGMENT
??_C@_0O@DLBHIEAA@NewFPSCounter?$AA@ DB 'NewFPSCounter', 00H ; `string'
CONST	ENDS
;	COMDAT ??_C@_0BH@PNFFGKBC@ForceCockpitResolution?$AA@
CONST	SEGMENT
??_C@_0BH@PNFFGKBC@ForceCockpitResolution?$AA@ DB 'ForceCockpitResolution'
	DB	00H						; `string'
CONST	ENDS
;	COMDAT ??_C@_0BA@HOAINIJF@Show2DPitErrors?$AA@
CONST	SEGMENT
??_C@_0BA@HOAINIJF@Show2DPitErrors?$AA@ DB 'Show2DPitErrors', 00H ; `string'
CONST	ENDS
;	COMDAT ??_C@_08JDFPFCBJ@MiniDump?$AA@
CONST	SEGMENT
??_C@_08JDFPFCBJ@MiniDump?$AA@ DB 'MiniDump', 00H	; `string'
CONST	ENDS
;	COMDAT ??_C@_0BD@JKCPJMDO@HybridPitModeDelay?$AA@
CONST	SEGMENT
??_C@_0BD@JKCPJMDO@HybridPitModeDelay?$AA@ DB 'HybridPitModeDelay', 00H ; `string'
CONST	ENDS
;	COMDAT ??_C@_0BF@BADABAHI@MPPowerXmitThreshold?$AA@
CONST	SEGMENT
??_C@_0BF@BADABAHI@MPPowerXmitThreshold?$AA@ DB 'MPPowerXmitThreshold', 00H ; `string'
CONST	ENDS
;	COMDAT ??_C@_0P@HIPEPHEP@TaxiLaunchTime?$AA@
CONST	SEGMENT
??_C@_0P@HIPEPHEP@TaxiLaunchTime?$AA@ DB 'TaxiLaunchTime', 00H ; `string'
CONST	ENDS
;	COMDAT ??_C@_0BA@LMPMHGII@ChatterInterval?$AA@
CONST	SEGMENT
??_C@_0BA@LMPMHGII@ChatterInterval?$AA@ DB 'ChatterInterval', 00H ; `string'
CONST	ENDS
;	COMDAT ??_C@_0N@NBNJFGAM@SfxLODCutoff?$AA@
CONST	SEGMENT
??_C@_0N@NBNJFGAM@SfxLODCutoff?$AA@ DB 'SfxLODCutoff', 00H ; `string'
CONST	ENDS
;	COMDAT ??_C@_0BB@NKPNPJBI@SfxLODDistCutoff?$AA@
CONST	SEGMENT
??_C@_0BB@NKPNPJBI@SfxLODDistCutoff?$AA@ DB 'SfxLODDistCutoff', 00H ; `string'
CONST	ENDS
;	COMDAT ??_C@_0BA@GNKPEALA@SfxLODTotCutoff?$AA@
CONST	SEGMENT
??_C@_0BA@GNKPEALA@SfxLODTotCutoff?$AA@ DB 'SfxLODTotCutoff', 00H ; `string'
CONST	ENDS
;	COMDAT ??_C@_0BA@PICMABDM@PSPurgeInterval?$AA@
CONST	SEGMENT
??_C@_0BA@PICMABDM@PSPurgeInterval?$AA@ DB 'PSPurgeInterval', 00H ; `string'
CONST	ENDS
;	COMDAT ??_C@_09OEMGMJFE@PSKillFPS?$AA@
CONST	SEGMENT
??_C@_09OEMGMJFE@PSKillFPS?$AA@ DB 'PSKillFPS', 00H	; `string'
CONST	ENDS
;	COMDAT ??_C@_0P@KDJJLDGL@CriticalPullup?$AA@
CONST	SEGMENT
??_C@_0P@KDJJLDGL@CriticalPullup?$AA@ DB 'CriticalPullup', 00H ; `string'
CONST	ENDS
_DATA	SEGMENT
_IntOpts DD	FLAT:??_C@_0N@JEEMHINL@ThrottleMode?$AA@
	DD	FLAT:?g_nThrottleMode@@3HA
	DD	FLAT:??_C@_0P@PKPJCMAG@PadlockBoxSize?$AA@
	DD	FLAT:?g_nPadlockBoxSize@@3HA
	DD	FLAT:??_C@_0M@OIEGAJL@PadlockMode?$AA@
	DD	FLAT:?g_nPadlockMode@@3HA
	DD	FLAT:??_C@_0BG@DGMIDNBE@NumDefaultHatSwitches?$AA@
	DD	FLAT:?NumHats@@3HA
	DD	FLAT:??_C@_0P@HBJABLEG@NearLabelLimit?$AA@
	DD	FLAT:?g_nNearLabelLimit@@3HA
	DD	FLAT:??_C@_0BO@NFAKIFJA@percentage_available_aircraft?$AA@
	DD	FLAT:?g_npercentage_available_aircraft@@3HA
	DD	FLAT:??_C@_0BL@HHNOONGM@minimum_available_aircraft?$AA@
	DD	FLAT:?g_nminimum_available_aircraft@@3HA
	DD	FLAT:??_C@_0BB@GLGCMOJA@MasterServerPort?$AA@
	DD	FLAT:?g_nMasterServerPort@@3HA
	DD	FLAT:??_C@_0P@KHAPOGMN@MaxVertexSpace?$AA@
	DD	FLAT:?g_nMaxVertexSpace@@3HA
	DD	FLAT:??_C@_0BC@OJMFKPAE@FlightVisualBonus?$AA@
	DD	FLAT:?g_nFlightVisualBonus@@3HA
	DD	FLAT:??_C@_0P@BHMGPDNL@RelocationWait?$AA@
	DD	FLAT:?g_nRelocationWait@@3HA
	DD	FLAT:??_C@_0BB@HDONENA@LoadoutTimeLimit?$AA@
	DD	FLAT:?g_nLoadoutTimeLimit@@3HA
	DD	FLAT:??_C@_04FEDKBIAK@Year?$AA@
	DD	FLAT:?g_nYear@@3HA
	DD	FLAT:??_C@_03HNCFIMCB@Day?$AA@
	DD	FLAT:?g_nDay@@3HA
	DD	FLAT:??_C@_0N@IKEBFFGA@AirbaseReloc?$AA@
	DD	FLAT:?g_nAirbaseReloc@@3HA
	DD	FLAT:??_C@_0N@MHCLNKMJ@NoPlayerPlay?$AA@
	DD	FLAT:?g_nNoPlayerPlay@@3HA
	DD	FLAT:??_C@_09FGOEEEEK@DeagTimer?$AA@
	DD	FLAT:?g_nDeagTimer@@3HA
	DD	FLAT:??_C@_09HMFELFOF@ReagTimer?$AA@
	DD	FLAT:?g_nReagTimer@@3HA
	DD	FLAT:??_C@_08FPMLDCGP@RNESpeed?$AA@
	DD	FLAT:?g_nRNESpeed@@3HA
	DD	FLAT:??_C@_0BC@GIFJIKNA@TargetSpotTimeout?$AA@
	DD	FLAT:?g_nTargetSpotTimeout@@3HA
	DD	FLAT:??_C@_0N@LEGJNLKP@MaxUIRefresh?$AA@
	DD	FLAT:?g_nMaxUIRefresh@@3HA
	DD	FLAT:??_C@_0BB@OOABCAOK@UnidentifiedInUI?$AA@
	DD	FLAT:?g_nUnidentifiedInUI@@3HA
	DD	FLAT:??_C@_0BF@LHIAOEBH@lookAroundWaterTiles?$AA@
	DD	FLAT:?g_nlookAroundWaterTiles@@3HA
	DD	FLAT:??_C@_0BD@GBJHLJHD@FFEffectAutoCenter?$AA@
	DD	FLAT:?g_nFFEffectAutoCenter@@3HA
	DD	FLAT:??_C@_0M@IJAJMFNL@MPStartTime?$AA@
	DD	FLAT:?g_nMPStartTime@@3HA
	DD	FLAT:??_C@_0BC@BEKMPFMH@LowestSkillForGCI?$AA@
	DD	FLAT:?g_nLowestSkillForGCI@@3HA
	DD	FLAT:??_C@_0BG@OBDGHLPB@AIVisualRetentionTime?$AA@
	DD	FLAT:?g_nAIVisualRetentionTime@@3HA
	DD	FLAT:??_C@_0BH@OEGFBPFK@AIVisualRetentionSkill?$AA@
	DD	FLAT:?g_nAIVisualRetentionSkill@@3HA
	DD	FLAT:??_C@_0BH@FCDDJIHB@MaxSimTimeAcceleration?$AA@
	DD	FLAT:?g_nMaxSimTimeAcceleration@@3HA
	DD	FLAT:??_C@_0BA@EJKNBDPB@LowDetailFactor?$AA@
	DD	FLAT:?g_nLowDetailFactor@@3HA
	DD	FLAT:??_C@_0BB@KJMKAMHO@NoWPRefuelNeeded?$AA@
	DD	FLAT:?g_nNoWPRefuelNeeded@@3HA
	DD	FLAT:??_C@_0N@GJAHMAJ@AirbaseCheck?$AA@
	DD	FLAT:?g_nAirbaseCheck@@3HA
	DD	FLAT:??_C@_0P@PLNKDCEP@FogRenderState?$AA@
	DD	FLAT:?g_nFogRenderState@@3HA
	DD	FLAT:??_C@_0L@GBPCGGLI@MissileFix?$AA@
	DD	FLAT:?g_nMissileFix@@3HA
	DD	FLAT:??_C@_0BB@PCHAINIF@SkipWaypointTime?$AA@
	DD	FLAT:?g_nSkipWaypointTime@@3HA
	DD	FLAT:??_C@_0BB@OGAGDFIL@GroundAttackTime?$AA@
	DD	FLAT:?g_nGroundAttackTime@@3HA
	DD	FLAT:??_C@_0P@BFLIKJHI@SeadAttackTime?$AA@
	DD	FLAT:?g_nSeadAttackTime@@3HA
	DD	FLAT:??_C@_0BB@KDGPFNKD@StrikeAttackTime?$AA@
	DD	FLAT:?g_nStrikeAttackTime@@3HA
	DD	FLAT:??_C@_0O@GKFNPKAD@CASAttackTime?$AA@
	DD	FLAT:?g_nCASAttackTime@@3HA
	DD	FLAT:??_C@_0BF@FELAILAJ@AIshootLookShootTime?$AA@
	DD	FLAT:?g_nAIshootLookShootTime@@3HA
	DD	FLAT:??_C@_06OKKPCIIP@GfxFix?$AA@
	DD	FLAT:?g_nGfxFix@@3HA
	DD	FLAT:??_C@_0BA@OMKLHKAN@ATCTaxiOrderFix?$AA@
	DD	FLAT:?g_nATCTaxiOrderFix@@3HA
	DD	FLAT:??_C@_0BA@GMGKOKBG@DFRegenerateFix?$AA@
	DD	FLAT:?g_nDFRegenerateFix@@3HA
	DD	FLAT:??_C@_0P@LHGNNLM@BWMaxDeltaTime?$AA@
	DD	FLAT:_g_nBWMaxDeltaTime
	DD	FLAT:??_C@_0BB@NPHLGFKD@BWCheckDeltaTime?$AA@
	DD	FLAT:_g_nBWCheckDeltaTime
	DD	FLAT:??_C@_0P@CEAGODDN@VUMaxDeltaTime?$AA@
	DD	FLAT:?g_nVUMaxDeltaTime@@3HA
	DD	FLAT:??_C@_0BH@DOIILFGN@ACMIOptionsPopupHiResX?$AA@
	DD	FLAT:?g_nACMIOptionsPopupHiResX@@3HA
	DD	FLAT:??_C@_0BH@CHJDIECM@ACMIOptionsPopupHiResY?$AA@
	DD	FLAT:?g_nACMIOptionsPopupHiResY@@3HA
	DD	FLAT:??_C@_0BI@KDMPCIJN@ACMIOptionsPopupLowResX?$AA@
	DD	FLAT:?g_nACMIOptionsPopupLowResX@@3HA
	DD	FLAT:??_C@_0BI@LKNEBJNM@ACMIOptionsPopupLowResY?$AA@
	DD	FLAT:?g_nACMIOptionsPopupLowResY@@3HA
	DD	FLAT:??_C@_0BC@MDEFACBF@ChooseBullseyeFix?$AA@
	DD	FLAT:?g_nChooseBullseyeFix@@3HA
	DD	FLAT:??_C@_0P@MDOLEFIA@SoundSwitchFix?$AA@
	DD	FLAT:?g_nSoundSwitchFix@@3HA
	DD	FLAT:??_C@_0M@GJLEKKKF@PrintToFile?$AA@
	DD	FLAT:?g_nPrintToFile@@3HA
	DD	FLAT:??_C@_0P@CEFOJMIA@SessionTimeout?$AA@
	DD	FLAT:?g_nSessionTimeout@@3HA
	DD	FLAT:??_C@_0BC@GCKILAAB@SessionUpdateRate?$AA@
	DD	FLAT:?g_nSessionUpdateRate@@3HA
	DD	FLAT:??_C@_0BF@PGHGLIAA@MaxInterceptDistance?$AA@
	DD	FLAT:?g_nMaxInterceptDistance@@3HA
	DD	FLAT:??_C@_0BC@POKKFCBC@TrackIRSampleFreq?$AA@
	DD	FLAT:?g_nTrackIRSampleFreq@@3HA
	DD	FLAT:??_C@_0O@FGJJJKBN@SoundUpdatems?$AA@
	DD	FLAT:?g_nSoundUpdateMS@@3HA
	DD	FLAT:??_C@_0BC@OMLJLFBC@NumberOfSubTitles?$AA@
	DD	FLAT:?g_nNumberOfSubTitles@@3HA
	DD	FLAT:??_C@_0M@DAGHONMO@SubTitleTTL?$AA@
	DD	FLAT:?g_nSubTitleTTL@@3HA
	DD	FLAT:??_C@_0BB@PNDBKKFB@WinAmpInitVolume?$AA@
	DD	FLAT:?g_nWinAmpInitVolume@@3HA
	DD	FLAT:??_C@_0O@NPKMGOBK@DynamicVoices?$AA@
	DD	FLAT:?g_nDynamicVoices@@3HA
	DD	FLAT:??_C@_0O@NCDBNCFB@IdleCutoffPad?$AA@
	DD	FLAT:?g_nIdleCutoffPad@@3HA
	DD	FLAT:??_C@_0BA@DJKECLPD@SaturationSmall?$AA@
	DD	FLAT:?g_nSaturationSmall@@3HA
	DD	FLAT:??_C@_0BB@MDKFJACE@SaturationMedium?$AA@
	DD	FLAT:?g_nSaturationMedium@@3HA
	DD	FLAT:??_C@_0BA@JBOPNKGF@SaturationLarge?$AA@
	DD	FLAT:?g_nSaturationLarge@@3HA
	DD	FLAT:??_C@_0O@KIIOJHIB@DeadzoneSmall?$AA@
	DD	FLAT:?g_nDeadzoneSmall@@3HA
	DD	FLAT:??_C@_0P@HNDPKKII@DeadzoneMedium?$AA@
	DD	FLAT:?g_nDeadzoneMedium@@3HA
	DD	FLAT:??_C@_0O@MFGGBH@DeadzoneLarge?$AA@
	DD	FLAT:?g_nDeadzoneLarge@@3HA
	DD	FLAT:??_C@_0N@PKJOOHMG@DeadzoneHuge?$AA@
	DD	FLAT:?g_nDeadzoneHuge@@3HA
	DD	FLAT:??_C@_0BB@DPPDNALN@MouseLookSensMax?$AA@
	DD	FLAT:?g_nMouseLookSensMax@@3HA
	DD	FLAT:??_C@_0BB@CNHIDENC@MouseLookSensMin?$AA@
	DD	FLAT:?g_nMouseLookSensMin@@3HA
	DD	FLAT:??_C@_0BC@GBFOMJAG@MouseWheelSensMax?$AA@
	DD	FLAT:?g_nMouseWheelSensMax@@3HA
	DD	FLAT:??_C@_0BC@HDNFCNGJ@MouseWheelSensMin?$AA@
	DD	FLAT:?g_nMouseWheelSensMin@@3HA
	DD	FLAT:??_C@_0O@NFJLJAKC@KeyPOVSensMax?$AA@
	DD	FLAT:?g_nKeyPOVSensMax@@3HA
	DD	FLAT:??_C@_0O@MHBAHEMN@KeyPOVSensMin?$AA@
	DD	FLAT:?g_nKeyPOVSensMin@@3HA
	DD	FLAT:??_C@_0P@GNKPBIOL@3DHeadPanRange?$AA@
	DD	FLAT:?g_n3DHeadPanRange@@3HA
	DD	FLAT:??_C@_0BA@NHGHLIF@3DHeadTiltRange?$AA@
	DD	FLAT:?g_n3DHeadTiltRange@@3HA
	DD	FLAT:??_C@_07PDCPCPDK@6DOFTIR?$AA@
	DD	FLAT:?g_n6DOFTIR@@3HA
	DD	FLAT:??_C@_0O@DLBHIEAA@NewFPSCounter?$AA@
	DD	FLAT:?g_nNewFPSCounter@@3HA
	DD	FLAT:??_C@_0BH@PNFFGKBC@ForceCockpitResolution?$AA@
	DD	FLAT:?g_nForceCockpitResolution@@3HA
	DD	FLAT:??_C@_0BA@HOAINIJF@Show2DPitErrors?$AA@
	DD	FLAT:?g_nShow2DPitErrors@@3HA
	DD	FLAT:??_C@_08JDFPFCBJ@MiniDump?$AA@
	DD	FLAT:?g_nMiniDump@@3HA
	DD	FLAT:??_C@_0BD@JKCPJMDO@HybridPitModeDelay?$AA@
	DD	FLAT:?g_nHybridPitModeDelay@@3HA
	DD	FLAT:??_C@_0BF@BADABAHI@MPPowerXmitThreshold?$AA@
	DD	FLAT:?g_nMPPowerXmitThreshold@@3HA
	DD	FLAT:??_C@_0P@HIPEPHEP@TaxiLaunchTime?$AA@
	DD	FLAT:?g_nTaxiLaunchTime@@3HA
	DD	FLAT:??_C@_0BA@LMPMHGII@ChatterInterval?$AA@
	DD	FLAT:?g_nChatterInterval@@3HA
	DD	FLAT:??_C@_0N@NBNJFGAM@SfxLODCutoff?$AA@
	DD	FLAT:?g_nSfxLODCutoff@@3HA
	DD	FLAT:??_C@_0BB@NKPNPJBI@SfxLODDistCutoff?$AA@
	DD	FLAT:?g_nSfxLODDistCutoff@@3HA
	DD	FLAT:??_C@_0BA@GNKPEALA@SfxLODTotCutoff?$AA@
	DD	FLAT:?g_nSfxLODTotCutoff@@3HA
	DD	FLAT:??_C@_0BA@PICMABDM@PSPurgeInterval?$AA@
	DD	FLAT:?g_nPSPurgeInterval@@3HA
	DD	FLAT:??_C@_09OEMGMJFE@PSKillFPS?$AA@
	DD	FLAT:?g_nPSKillFPS@@3HA
	DD	FLAT:??_C@_0P@KDJJLDGL@CriticalPullup?$AA@
	DD	FLAT:?g_nCriticalPullup@@3HA
	DD	00H
	DD	00H
_DATA	ENDS
;	COMDAT ??_C@_0BB@BAMOFHBN@MasterServerName?$AA@
CONST	SEGMENT
??_C@_0BB@BAMOFHBN@MasterServerName?$AA@ DB 'MasterServerName', 00H ; `string'
CONST	ENDS
;	COMDAT ??_C@_0L@FFDIDHBB@ServerName?$AA@
CONST	SEGMENT
??_C@_0L@FFDIDHBB@ServerName?$AA@ DB 'ServerName', 00H	; `string'
CONST	ENDS
;	COMDAT ??_C@_0P@MHEEONCC@ServerLocation?$AA@
CONST	SEGMENT
??_C@_0P@MHEEONCC@ServerLocation?$AA@ DB 'ServerLocation', 00H ; `string'
CONST	ENDS
;	COMDAT ??_C@_0M@KBDHJKCN@ServerAdmin?$AA@
CONST	SEGMENT
??_C@_0M@KBDHJKCN@ServerAdmin?$AA@ DB 'ServerAdmin', 00H ; `string'
CONST	ENDS
;	COMDAT ??_C@_0BB@EOHHPIIJ@ServerAdminEmail?$AA@
CONST	SEGMENT
??_C@_0BB@EOHHPIIJ@ServerAdminEmail?$AA@ DB 'ServerAdminEmail', 00H ; `string'
CONST	ENDS
;	COMDAT ??_C@_0M@FFMOFINI@VoiceHostIP?$AA@
CONST	SEGMENT
??_C@_0M@FFMOFINI@VoiceHostIP?$AA@ DB 'VoiceHostIP', 00H ; `string'
CONST	ENDS
;	COMDAT ??_C@_09MJLNAICC@WorldName?$AA@
CONST	SEGMENT
??_C@_09MJLNAICC@WorldName?$AA@ DB 'WorldName', 00H	; `string'
CONST	ENDS
;	COMDAT ??_C@_0BB@ODGOONIN@ScrollUpFunction?$AA@
CONST	SEGMENT
??_C@_0BB@ODGOONIN@ScrollUpFunction?$AA@ DB 'ScrollUpFunction', 00H ; `string'
CONST	ENDS
;	COMDAT ??_C@_0BD@KCPLNEFD@ScrollDownFunction?$AA@
CONST	SEGMENT
??_C@_0BD@KCPLNEFD@ScrollDownFunction?$AA@ DB 'ScrollDownFunction', 00H ; `string'
CONST	ENDS
;	COMDAT ??_C@_0BF@ENPLHFJO@MiddleButtonFunction?$AA@
CONST	SEGMENT
??_C@_0BF@ENPLHFJO@MiddleButtonFunction?$AA@ DB 'MiddleButtonFunction', 00H ; `string'
CONST	ENDS
;	COMDAT ??_C@_0P@KLPABIGK@RadioflightCol?$AA@
CONST	SEGMENT
??_C@_0P@KLPABIGK@RadioflightCol?$AA@ DB 'RadioflightCol', 00H ; `string'
CONST	ENDS
;	COMDAT ??_C@_0BC@BKNHMKDB@RadiotoPackageCol?$AA@
CONST	SEGMENT
??_C@_0BC@BKNHMKDB@RadiotoPackageCol?$AA@ DB 'RadiotoPackageCol', 00H ; `string'
CONST	ENDS
;	COMDAT ??_C@_0BG@BFOAJCCP@RadioToFromPackageCol?$AA@
CONST	SEGMENT
??_C@_0BG@BFOAJCCP@RadioToFromPackageCol?$AA@ DB 'RadioToFromPackageCol', 00H ; `string'
CONST	ENDS
;	COMDAT ??_C@_0N@MNAFDBEN@RadioTeamCol?$AA@
CONST	SEGMENT
??_C@_0N@MNAFDBEN@RadioTeamCol?$AA@ DB 'RadioTeamCol', 00H ; `string'
CONST	ENDS
;	COMDAT ??_C@_0BC@NLHCNFHA@RadioProximityCol?$AA@
CONST	SEGMENT
??_C@_0BC@NLHCNFHA@RadioProximityCol?$AA@ DB 'RadioProximityCol', 00H ; `string'
CONST	ENDS
;	COMDAT ??_C@_0O@GPIMDEIH@RadioWorldCol?$AA@
CONST	SEGMENT
??_C@_0O@GPIMDEIH@RadioWorldCol?$AA@ DB 'RadioWorldCol', 00H ; `string'
CONST	ENDS
;	COMDAT ??_C@_0O@MMJGBEAP@RadioTowerCol?$AA@
CONST	SEGMENT
??_C@_0O@MMJGBEAP@RadioTowerCol?$AA@ DB 'RadioTowerCol', 00H ; `string'
CONST	ENDS
;	COMDAT ??_C@_0BB@DJIHGFP@RadioStandardCol?$AA@
CONST	SEGMENT
??_C@_0BB@DJIHGFP@RadioStandardCol?$AA@ DB 'RadioStandardCol', 00H ; `string'
CONST	ENDS
_DATA	SEGMENT
_StringOpts DD	FLAT:??_C@_0BB@BAMOFHBN@MasterServerName?$AA@
	DD	FLAT:?g_strMasterServerName@@3PADA
	DD	FLAT:??_C@_0L@FFDIDHBB@ServerName?$AA@
	DD	FLAT:?g_strServerName@@3PADA
	DD	FLAT:??_C@_0P@MHEEONCC@ServerLocation?$AA@
	DD	FLAT:?g_strServerLocation@@3PADA
	DD	FLAT:??_C@_0M@KBDHJKCN@ServerAdmin?$AA@
	DD	FLAT:?g_strServerAdmin@@3PADA
	DD	FLAT:??_C@_0BB@EOHHPIIJ@ServerAdminEmail?$AA@
	DD	FLAT:?g_strServerAdminEmail@@3PADA
	DD	FLAT:??_C@_0M@FFMOFINI@VoiceHostIP?$AA@
	DD	FLAT:?g_strVoiceHostIP@@3PADA
	DD	FLAT:??_C@_09MJLNAICC@WorldName?$AA@
	DD	FLAT:?g_strWorldName@@3PADA
	DD	FLAT:??_C@_0BB@ODGOONIN@ScrollUpFunction?$AA@
	DD	FLAT:?g_strScrollUpFunction@@3PADA
	DD	FLAT:??_C@_0BD@KCPLNEFD@ScrollDownFunction?$AA@
	DD	FLAT:?g_strScrollDownFunction@@3PADA
	DD	FLAT:??_C@_0BF@ENPLHFJO@MiddleButtonFunction?$AA@
	DD	FLAT:?g_strMiddleButtonFunction@@3PADA
	DD	FLAT:??_C@_0P@KLPABIGK@RadioflightCol?$AA@
	DD	FLAT:?g_strRadioflightCol@@3PADA
	DD	FLAT:??_C@_0BC@BKNHMKDB@RadiotoPackageCol?$AA@
	DD	FLAT:?g_strRadiotoPackageCol@@3PADA
	DD	FLAT:??_C@_0BG@BFOAJCCP@RadioToFromPackageCol?$AA@
	DD	FLAT:?g_strRadioToFromPackageCol@@3PADA
	DD	FLAT:??_C@_0N@MNAFDBEN@RadioTeamCol?$AA@
	DD	FLAT:?g_strRadioTeamCol@@3PADA
	DD	FLAT:??_C@_0BC@NLHCNFHA@RadioProximityCol?$AA@
	DD	FLAT:?g_strRadioProximityCol@@3PADA
	DD	FLAT:??_C@_0O@GPIMDEIH@RadioWorldCol?$AA@
	DD	FLAT:?g_strRadioWorldCol@@3PADA
	DD	FLAT:??_C@_0O@MMJGBEAP@RadioTowerCol?$AA@
	DD	FLAT:?g_strRadioTowerCol@@3PADA
	DD	FLAT:??_C@_0BB@DJIHGFP@RadioStandardCol?$AA@
	DD	FLAT:?g_strRadioStandardCol@@3PADA
	DD	00H
	DD	00H
_DATA	ENDS
;	COMDAT ??_C@_0L@ONEGGIPE@MipLodBias?$AA@
CONST	SEGMENT
??_C@_0L@ONEGGIPE@MipLodBias?$AA@ DB 'MipLodBias', 00H	; `string'
CONST	ENDS
;	COMDAT ??_C@_0P@GOJJLPFA@CloudMinHeight?$AA@
CONST	SEGMENT
??_C@_0P@GOJJLPFA@CloudMinHeight?$AA@ DB 'CloudMinHeight', 00H ; `string'
CONST	ENDS
;	COMDAT ??_C@_0L@GCODLODD@RadarScale?$AA@
CONST	SEGMENT
??_C@_0L@GCODLODD@RadarScale?$AA@ DB 'RadarScale', 00H	; `string'
CONST	ENDS
;	COMDAT ??_C@_0M@DFLBEBEO@CursorSpeed?$AA@
CONST	SEGMENT
??_C@_0M@DFLBEBEO@CursorSpeed?$AA@ DB 'CursorSpeed', 00H ; `string'
CONST	ENDS
;	COMDAT ??_C@_0BA@FMLGGGHE@MinCloudWeather?$AA@
CONST	SEGMENT
??_C@_0BA@FMLGGGHE@MinCloudWeather?$AA@ DB 'MinCloudWeather', 00H ; `string'
CONST	ENDS
;	COMDAT ??_C@_0BF@MPFEJIJO@CloudThicknessFactor?$AA@
CONST	SEGMENT
??_C@_0BF@MPFEJIJO@CloudThicknessFactor?$AA@ DB 'CloudThicknessFactor', 00H ; `string'
CONST	ENDS
;	COMDAT ??_C@_0BD@JCPAPJKM@DragDilutionFactor?$AA@
CONST	SEGMENT
??_C@_0BD@JCPAPJKM@DragDilutionFactor?$AA@ DB 'DragDilutionFactor', 00H ; `string'
CONST	ENDS
;	COMDAT ??_C@_0L@CHNOPJNO@dwPorthost?$AA@
CONST	SEGMENT
??_C@_0L@CHNOPJNO@dwPorthost?$AA@ DB 'dwPorthost', 00H	; `string'
CONST	ENDS
;	COMDAT ??_C@_0N@JEKGEGKC@dwPortclient?$AA@
CONST	SEGMENT
??_C@_0N@JEKGEGKC@dwPortclient?$AA@ DB 'dwPortclient', 00H ; `string'
CONST	ENDS
;	COMDAT ??_C@_0BI@DFMLHJAO@FormationBurnerDistance?$AA@
CONST	SEGMENT
??_C@_0BI@DFMLHJAO@FormationBurnerDistance?$AA@ DB 'FormationBurnerDistan'
	DB	'ce', 00H					; `string'
CONST	ENDS
;	COMDAT ??_C@_0BF@FFOFDJFN@PadlockBreakDistance?$AA@
CONST	SEGMENT
??_C@_0BF@FFOFDJFN@PadlockBreakDistance?$AA@ DB 'PadlockBreakDistance', 00H ; `string'
CONST	ENDS
;	COMDAT ??_C@_0O@PENCKKIE@AFRudderRight?$AA@
CONST	SEGMENT
??_C@_0O@PENCKKIE@AFRudderRight?$AA@ DB 'AFRudderRight', 00H ; `string'
CONST	ENDS
;	COMDAT ??_C@_0N@CDMEMBAC@AFRudderLeft?$AA@
CONST	SEGMENT
??_C@_0N@CDMEMBAC@AFRudderLeft?$AA@ DB 'AFRudderLeft', 00H ; `string'
CONST	ENDS
;	COMDAT ??_C@_0P@HGBEIHPP@AFThrottleDown?$AA@
CONST	SEGMENT
??_C@_0P@HGBEIHPP@AFThrottleDown?$AA@ DB 'AFThrottleDown', 00H ; `string'
CONST	ENDS
;	COMDAT ??_C@_0N@POBODBK@AFThrottleUp?$AA@
CONST	SEGMENT
??_C@_0N@POBODBK@AFThrottleUp?$AA@ DB 'AFThrottleUp', 00H ; `string'
CONST	ENDS
;	COMDAT ??_C@_0O@IFGNNACM@AFAileronLeft?$AA@
CONST	SEGMENT
??_C@_0O@IFGNNACM@AFAileronLeft?$AA@ DB 'AFAileronLeft', 00H ; `string'
CONST	ENDS
;	COMDAT ??_C@_0P@CIKCAOFK@AFAileronRight?$AA@
CONST	SEGMENT
??_C@_0P@CIKCAOFK@AFAileronRight?$AA@ DB 'AFAileronRight', 00H ; `string'
CONST	ENDS
;	COMDAT ??_C@_0P@IJJJJHDF@AFElevatorDown?$AA@
CONST	SEGMENT
??_C@_0P@IJJJJHDF@AFElevatorDown?$AA@ DB 'AFElevatorDown', 00H ; `string'
CONST	ENDS
;	COMDAT ??_C@_0N@HNKPPLEM@AFElevatorUp?$AA@
CONST	SEGMENT
??_C@_0N@HNKPPLEM@AFElevatorUp?$AA@ DB 'AFElevatorUp', 00H ; `string'
CONST	ENDS
;	COMDAT ??_C@_0BA@KJIPIPMF@rollStickOffset?$AA@
CONST	SEGMENT
??_C@_0BA@KJIPIPMF@rollStickOffset?$AA@ DB 'rollStickOffset', 00H ; `string'
CONST	ENDS
;	COMDAT ??_C@_0BB@FICIAJKM@pitchStickOffset?$AA@
CONST	SEGMENT
??_C@_0BB@FICIAJKM@pitchStickOffset?$AA@ DB 'pitchStickOffset', 00H ; `string'
CONST	ENDS
;	COMDAT ??_C@_0N@FABDEEJB@rudderOffset?$AA@
CONST	SEGMENT
??_C@_0N@FABDEEJB@rudderOffset?$AA@ DB 'rudderOffset', 00H ; `string'
CONST	ENDS
;	COMDAT ??_C@_0BG@LEDDHCJK@VisualNormalizeFactor?$AA@
CONST	SEGMENT
??_C@_0BG@LEDDHCJK@VisualNormalizeFactor?$AA@ DB 'VisualNormalizeFactor', 00H ; `string'
CONST	ENDS
;	COMDAT ??_C@_0M@HMHGGILP@RecoveryAOA?$AA@
CONST	SEGMENT
??_C@_0M@HMHGGILP@RecoveryAOA?$AA@ DB 'RecoveryAOA', 00H ; `string'
CONST	ENDS
;	COMDAT ??_C@_0BL@DEOMNHOC@clientbwforupdatesmodifyer?$AA@
CONST	SEGMENT
??_C@_0BL@DEOMNHOC@clientbwforupdatesmodifyer?$AA@ DB 'clientbwforupdates'
	DB	'modifyer', 00H				; `string'
CONST	ENDS
;	COMDAT ??_C@_0BJ@GKGMNJMA@hostbwforupdatesmodifyer?$AA@
CONST	SEGMENT
??_C@_0BJ@GKGMNJMA@hostbwforupdatesmodifyer?$AA@ DB 'hostbwforupdatesmodi'
	DB	'fyer', 00H					; `string'
CONST	ENDS
;	COMDAT ??_C@_0BA@KOOBOEEN@MfdTransparency?$AA@
CONST	SEGMENT
??_C@_0BA@KOOBOEEN@MfdTransparency?$AA@ DB 'MfdTransparency', 00H ; `string'
CONST	ENDS
;	COMDAT ??_C@_06NLNJGJLD@MfdRed?$AA@
CONST	SEGMENT
??_C@_06NLNJGJLD@MfdRed?$AA@ DB 'MfdRed', 00H		; `string'
CONST	ENDS
;	COMDAT ??_C@_07EKDFLFPC@MfdBlue?$AA@
CONST	SEGMENT
??_C@_07EKDFLFPC@MfdBlue?$AA@ DB 'MfdBlue', 00H		; `string'
CONST	ENDS
;	COMDAT ??_C@_08HHIDAPGD@MfdGreen?$AA@
CONST	SEGMENT
??_C@_08HHIDAPGD@MfdGreen?$AA@ DB 'MfdGreen', 00H	; `string'
CONST	ENDS
;	COMDAT ??_C@_0L@LBBFEKPB@Mfd_p_Size?$AA@
CONST	SEGMENT
??_C@_0L@LBBFEKPB@Mfd_p_Size?$AA@ DB 'Mfd_p_Size', 00H	; `string'
CONST	ENDS
;	COMDAT ??_C@_0L@KHPPPOPB@PullupTime?$AA@
CONST	SEGMENT
??_C@_0L@KHPPPOPB@PullupTime?$AA@ DB 'PullupTime', 00H	; `string'
CONST	ENDS
;	COMDAT ??_C@_0BA@LLGLGMPB@GALookAheadTime?$AA@
CONST	SEGMENT
??_C@_0BA@LLGLGMPB@GALookAheadTime?$AA@ DB 'GALookAheadTime', 00H ; `string'
CONST	ENDS
;	COMDAT ??_C@_08ODNOBHDK@AIMinAlt?$AA@
CONST	SEGMENT
??_C@_08ODNOBHDK@AIMinAlt?$AA@ DB 'AIMinAlt', 00H	; `string'
CONST	ENDS
;	COMDAT ??_C@_0L@NKEPIKEE@AIMinWPAlt?$AA@
CONST	SEGMENT
??_C@_0L@NKEPIKEE@AIMinWPAlt?$AA@ DB 'AIMinWPAlt', 00H	; `string'
CONST	ENDS
;	COMDAT ??_C@_0M@IFINGKIN@GApStickFac?$AA@
CONST	SEGMENT
??_C@_0M@IFINGKIN@GApStickFac?$AA@ DB 'GApStickFac', 00H ; `string'
CONST	ENDS
;	COMDAT ??_C@_0P@OFAJLNCA@AIHarmMaxRange?$AA@
CONST	SEGMENT
??_C@_0P@OFAJLNCA@AIHarmMaxRange?$AA@ DB 'AIHarmMaxRange', 00H ; `string'
CONST	ENDS
;	COMDAT ??_C@_0P@OBGILEBK@AIJSOWMaxRange?$AA@
CONST	SEGMENT
??_C@_0P@OBGILEBK@AIJSOWMaxRange?$AA@ DB 'AIJSOWMaxRange', 00H ; `string'
CONST	ENDS
;	COMDAT ??_C@_0O@KJHCKPDO@AGFlyoutRange?$AA@
CONST	SEGMENT
??_C@_0O@KJHCKPDO@AGFlyoutRange?$AA@ DB 'AGFlyoutRange', 00H ; `string'
CONST	ENDS
;	COMDAT ??_C@_0BC@NAAFJGGM@AGSlowFlyoutRange?$AA@
CONST	SEGMENT
??_C@_0BC@NAAFJGGM@AGSlowFlyoutRange?$AA@ DB 'AGSlowFlyoutRange', 00H ; `string'
CONST	ENDS
;	COMDAT ??_C@_0BB@BCCCLNHN@AGSlowMoverSpeed?$AA@
CONST	SEGMENT
??_C@_0BB@BCCCLNHN@AGSlowMoverSpeed?$AA@ DB 'AGSlowMoverSpeed', 00H ; `string'
CONST	ENDS
;	COMDAT ??_C@_0O@OAAGLKIA@AIRefuelRange?$AA@
CONST	SEGMENT
??_C@_0O@OAAGLKIA@AIRefuelRange?$AA@ DB 'AIRefuelRange', 00H ; `string'
CONST	ENDS
;	COMDAT ??_C@_0M@MCKGGKKA@IdentFactor?$AA@
CONST	SEGMENT
??_C@_0M@MCKGGKKA@IdentFactor?$AA@ DB 'IdentFactor', 00H ; `string'
CONST	ENDS
;	COMDAT ??_C@_0BJ@KNLCJMEH@AIDropStoreLauncherRange?$AA@
CONST	SEGMENT
??_C@_0BJ@KNLCJMEH@AIDropStoreLauncherRange?$AA@ DB 'AIDropStoreLauncherR'
	DB	'ange', 00H					; `string'
CONST	ENDS
;	COMDAT ??_C@_0BD@MECFIJPF@BiasFactorForFlaks?$AA@
CONST	SEGMENT
??_C@_0BD@MECFIJPF@BiasFactorForFlaks?$AA@ DB 'BiasFactorForFlaks', 00H ; `string'
CONST	ENDS
;	COMDAT ??_C@_0BF@DKGNKGPO@TracerAccuracyFactor?$AA@
CONST	SEGMENT
??_C@_0BF@DKGNKGPO@TracerAccuracyFactor?$AA@ DB 'TracerAccuracyFactor', 00H ; `string'
CONST	ENDS
;	COMDAT ??_C@_0N@OBNPGPBG@TankerRStick?$AA@
CONST	SEGMENT
??_C@_0N@OBNPGPBG@TankerRStick?$AA@ DB 'TankerRStick', 00H ; `string'
CONST	ENDS
;	COMDAT ??_C@_0N@HGEAHODP@TankerPStick?$AA@
CONST	SEGMENT
??_C@_0N@HGEAHODP@TankerPStick?$AA@ DB 'TankerPStick', 00H ; `string'
CONST	ENDS
;	COMDAT ??_C@_0BC@GLLJDCDL@TankerTrackFactor?$AA@
CONST	SEGMENT
??_C@_0BC@GLLJDCDL@TankerTrackFactor?$AA@ DB 'TankerTrackFactor', 00H ; `string'
CONST	ENDS
;	COMDAT ??_C@_0BG@CFPOCOIM@TankerHeadsupDistance?$AA@
CONST	SEGMENT
??_C@_0BG@CFPOCOIM@TankerHeadsupDistance?$AA@ DB 'TankerHeadsupDistance', 00H ; `string'
CONST	ENDS
;	COMDAT ??_C@_0BF@KPDHEJEF@TankerBackupDistance?$AA@
CONST	SEGMENT
??_C@_0BF@KPDHEJEF@TankerBackupDistance?$AA@ DB 'TankerBackupDistance', 00H ; `string'
CONST	ENDS
;	COMDAT ??_C@_0BH@KJIDKIDP@HeadingStabilizeFactor?$AA@
CONST	SEGMENT
??_C@_0BH@KJIDKIDP@HeadingStabilizeFactor?$AA@ DB 'HeadingStabilizeFactor'
	DB	00H						; `string'
CONST	ENDS
;	COMDAT ??_C@_0BC@EMJHNOBD@RocketPitchFactor?$AA@
CONST	SEGMENT
??_C@_0BC@EMJHNOBD@RocketPitchFactor?$AA@ DB 'RocketPitchFactor', 00H ; `string'
CONST	ENDS
;	COMDAT ??_C@_0BA@KENKLNKB@RocketPitchCorr?$AA@
CONST	SEGMENT
??_C@_0BA@KENKLNKB@RocketPitchCorr?$AA@ DB 'RocketPitchCorr', 00H ; `string'
CONST	ENDS
;	COMDAT ??_C@_0N@EHFPFCKH@FuelBaseProp?$AA@
CONST	SEGMENT
??_C@_0N@EHFPFCKH@FuelBaseProp?$AA@ DB 'FuelBaseProp', 00H ; `string'
CONST	ENDS
;	COMDAT ??_C@_0N@DJALJPLO@FuelMultProp?$AA@
CONST	SEGMENT
??_C@_0N@DJALJPLO@FuelMultProp?$AA@ DB 'FuelMultProp', 00H ; `string'
CONST	ENDS
;	COMDAT ??_C@_0N@BDNNDFKA@FuelTimeStep?$AA@
CONST	SEGMENT
??_C@_0N@BDNNDFKA@FuelTimeStep?$AA@ DB 'FuelTimeStep', 00H ; `string'
CONST	ENDS
;	COMDAT ??_C@_0L@PNHJNCFN@FuelVtClip?$AA@
CONST	SEGMENT
??_C@_0L@PNHJNCFN@FuelVtClip?$AA@ DB 'FuelVtClip', 00H	; `string'
CONST	ENDS
;	COMDAT ??_C@_0O@HFBIHDPF@FuelVtDotMult?$AA@
CONST	SEGMENT
??_C@_0O@HFBIHDPF@FuelVtDotMult?$AA@ DB 'FuelVtDotMult', 00H ; `string'
CONST	ENDS
;	COMDAT ??_C@_0O@LLEELFDJ@AIRefuelSpeed?$AA@
CONST	SEGMENT
??_C@_0O@LLEELFDJ@AIRefuelSpeed?$AA@ DB 'AIRefuelSpeed', 00H ; `string'
CONST	ENDS
;	COMDAT ??_C@_0BM@NNJBGOBI@SearchSimTargetFromRangeSqr?$AA@
CONST	SEGMENT
??_C@_0BM@NNJBGOBI@SearchSimTargetFromRangeSqr?$AA@ DB 'SearchSimTargetFr'
	DB	'omRangeSqr', 00H				; `string'
CONST	ENDS
;	COMDAT ??_C@_0BD@ENPPPAKF@NukeStrengthFactor?$AA@
CONST	SEGMENT
??_C@_0BD@ENPPPAKF@NukeStrengthFactor?$AA@ DB 'NukeStrengthFactor', 00H ; `string'
CONST	ENDS
;	COMDAT ??_C@_0O@KONPLMCF@NukeDamageMod?$AA@
CONST	SEGMENT
??_C@_0O@KONPLMCF@NukeDamageMod?$AA@ DB 'NukeDamageMod', 00H ; `string'
CONST	ENDS
;	COMDAT ??_C@_0BB@NLAABPAE@NukeDamageRadius?$AA@
CONST	SEGMENT
??_C@_0BB@NLAABPAE@NukeDamageRadius?$AA@ DB 'NukeDamageRadius', 00H ; `string'
CONST	ENDS
;	COMDAT ??_C@_0L@BDCEENFH@ClimbRatio?$AA@
CONST	SEGMENT
??_C@_0L@BDCEENFH@ClimbRatio?$AA@ DB 'ClimbRatio', 00H	; `string'
CONST	ENDS
;	COMDAT ??_C@_0N@OGHANHBN@HotNoseAngle?$AA@
CONST	SEGMENT
??_C@_0N@OGHANHBN@HotNoseAngle?$AA@ DB 'HotNoseAngle', 00H ; `string'
CONST	ENDS
;	COMDAT ??_C@_0M@EOBCFMCI@MaxMARNoIdA?$AA@
CONST	SEGMENT
??_C@_0M@EOBCFMCI@MaxMARNoIdA?$AA@ DB 'MaxMARNoIdA', 00H ; `string'
CONST	ENDS
;	COMDAT ??_C@_0O@MPBLALFI@MinMARNoId5kA?$AA@
CONST	SEGMENT
??_C@_0O@MPBLALFI@MinMARNoId5kA?$AA@ DB 'MinMARNoId5kA', 00H ; `string'
CONST	ENDS
;	COMDAT ??_C@_0P@JFPPHJDD@MinMARNoId18kA?$AA@
CONST	SEGMENT
??_C@_0P@JFPPHJDD@MinMARNoId18kA?$AA@ DB 'MinMARNoId18kA', 00H ; `string'
CONST	ENDS
;	COMDAT ??_C@_0P@NCFPADOD@MinMARNoId28kA?$AA@
CONST	SEGMENT
??_C@_0P@NCFPADOD@MinMARNoId28kA?$AA@ DB 'MinMARNoId28kA', 00H ; `string'
CONST	ENDS
;	COMDAT ??_C@_0M@GFDPAPOL@MaxMARNoIdB?$AA@
CONST	SEGMENT
??_C@_0M@GFDPAPOL@MaxMARNoIdB?$AA@ DB 'MaxMARNoIdB', 00H ; `string'
CONST	ENDS
;	COMDAT ??_C@_0O@OEDGFIJL@MinMARNoId5kB?$AA@
CONST	SEGMENT
??_C@_0O@OEDGFIJL@MinMARNoId5kB?$AA@ DB 'MinMARNoId5kB', 00H ; `string'
CONST	ENDS
;	COMDAT ??_C@_0P@LONCCKPA@MinMARNoId18kB?$AA@
CONST	SEGMENT
??_C@_0P@LONCCKPA@MinMARNoId18kB?$AA@ DB 'MinMARNoId18kB', 00H ; `string'
CONST	ENDS
;	COMDAT ??_C@_0P@PJHCFACA@MinMARNoId28kB?$AA@
CONST	SEGMENT
??_C@_0P@PJHCFACA@MinMARNoId28kB?$AA@ DB 'MinMARNoId28kB', 00H ; `string'
CONST	ENDS
;	COMDAT ??_C@_0M@OMFHCOEA@MinMARNoIdC?$AA@
CONST	SEGMENT
??_C@_0M@OMFHCOEA@MinMARNoIdC?$AA@ DB 'MinMARNoIdC', 00H ; `string'
CONST	ENDS
;	COMDAT ??_C@_0BE@NODEDAOM@WaypointBurnerDelta?$AA@
CONST	SEGMENT
??_C@_0BE@NODEDAOM@WaypointBurnerDelta?$AA@ DB 'WaypointBurnerDelta', 00H ; `string'
CONST	ENDS
;	COMDAT ??_C@_0BA@NFKBHKAB@GroundImpactMod?$AA@
CONST	SEGMENT
??_C@_0BA@NFKBHKAB@GroundImpactMod?$AA@ DB 'GroundImpactMod', 00H ; `string'
CONST	ENDS
;	COMDAT ??_C@_0BE@LAJDGBGE@BombMissileAltitude?$AA@
CONST	SEGMENT
??_C@_0BE@LAJDGBGE@BombMissileAltitude?$AA@ DB 'BombMissileAltitude', 00H ; `string'
CONST	ENDS
;	COMDAT ??_C@_0M@LBFEPFMD@GMTMaxSpeed?$AA@
CONST	SEGMENT
??_C@_0M@LBFEPFMD@GMTMaxSpeed?$AA@ DB 'GMTMaxSpeed', 00H ; `string'
CONST	ENDS
;	COMDAT ??_C@_0M@GGLPEHIC@GMTMinSpeed?$AA@
CONST	SEGMENT
??_C@_0M@GGLPEHIC@GMTMinSpeed?$AA@ DB 'GMTMinSpeed', 00H ; `string'
CONST	ENDS
;	COMDAT ??_C@_0BD@GDGDFHHB@ReconCameraHalfFOV?$AA@
CONST	SEGMENT
??_C@_0BD@GDGDFHHB@ReconCameraHalfFOV?$AA@ DB 'ReconCameraHalfFOV', 00H ; `string'
CONST	ENDS
;	COMDAT ??_C@_0BC@BEFPPKGH@ReconCameraOffset?$AA@
CONST	SEGMENT
??_C@_0BC@BEFPPKGH@ReconCameraOffset?$AA@ DB 'ReconCameraOffset', 00H ; `string'
CONST	ENDS
;	COMDAT ??_C@_09LHMJEDNK@EXPfactor?$AA@
CONST	SEGMENT
??_C@_09LHMJEDNK@EXPfactor?$AA@ DB 'EXPfactor', 00H	; `string'
CONST	ENDS
;	COMDAT ??_C@_0L@CFJNNFKM@DBS1factor?$AA@
CONST	SEGMENT
??_C@_0L@CFJNNFKM@DBS1factor?$AA@ DB 'DBS1factor', 00H	; `string'
CONST	ENDS
;	COMDAT ??_C@_0L@KLBCNCEP@DBS2factor?$AA@
CONST	SEGMENT
??_C@_0L@KLBCNCEP@DBS2factor?$AA@ DB 'DBS2factor', 00H	; `string'
CONST	ENDS
;	COMDAT ??_C@_0M@HCAMNHLA@HUDonlySize?$AA@
CONST	SEGMENT
??_C@_0M@HCAMNHLA@HUDonlySize?$AA@ DB 'HUDonlySize', 00H ; `string'
CONST	ENDS
;	COMDAT ??_C@_0M@BBGNEEGP@ePropFactor?$AA@
CONST	SEGMENT
??_C@_0M@BBGNEEGP@ePropFactor?$AA@ DB 'ePropFactor', 00H ; `string'
CONST	ENDS
;	COMDAT ??_C@_0BC@GENAKAAM@SunPadlockTimeout?$AA@
CONST	SEGMENT
??_C@_0BC@GENAKAAM@SunPadlockTimeout?$AA@ DB 'SunPadlockTimeout', 00H ; `string'
CONST	ENDS
;	COMDAT ??_C@_0BG@KOFNPFKA@CarrierStartTolerance?$AA@
CONST	SEGMENT
??_C@_0BG@KOFNPFKA@CarrierStartTolerance?$AA@ DB 'CarrierStartTolerance', 00H ; `string'
CONST	ENDS
;	COMDAT ??_C@_0N@JBEBILFN@BombTimeStep?$AA@
CONST	SEGMENT
??_C@_0N@JBEBILFN@BombTimeStep?$AA@ DB 'BombTimeStep', 00H ; `string'
CONST	ENDS
;	COMDAT ??_C@_0BD@PEMKEBN@HighDragGravFactor?$AA@
CONST	SEGMENT
??_C@_0BD@PEMKEBN@HighDragGravFactor?$AA@ DB 'HighDragGravFactor', 00H ; `string'
CONST	ENDS
;	COMDAT ??_C@_0M@PKLMHCDM@TgtDZFactor?$AA@
CONST	SEGMENT
??_C@_0M@PKLMHCDM@TgtDZFactor?$AA@ DB 'TgtDZFactor', 00H ; `string'
CONST	ENDS
;	COMDAT ??_C@_0BJ@FJFHDHFK@SSoffsetManeuverPoints1a?$AA@
CONST	SEGMENT
??_C@_0BJ@FJFHDHFK@SSoffsetManeuverPoints1a?$AA@ DB 'SSoffsetManeuverPoin'
	DB	'ts1a', 00H					; `string'
CONST	ENDS
;	COMDAT ??_C@_0BJ@HCHKGEJJ@SSoffsetManeuverPoints1b?$AA@
CONST	SEGMENT
??_C@_0BJ@HCHKGEJJ@SSoffsetManeuverPoints1b?$AA@ DB 'SSoffsetManeuverPoin'
	DB	'ts1b', 00H					; `string'
CONST	ENDS
;	COMDAT ??_C@_0BJ@FLBBIJAD@SSoffsetManeuverPoints2a?$AA@
CONST	SEGMENT
??_C@_0BJ@FLBBIJAD@SSoffsetManeuverPoints2a?$AA@ DB 'SSoffsetManeuverPoin'
	DB	'ts2a', 00H					; `string'
CONST	ENDS
;	COMDAT ??_C@_0BJ@HADMNKMA@SSoffsetManeuverPoints2b?$AA@
CONST	SEGMENT
??_C@_0BJ@HADMNKMA@SSoffsetManeuverPoints2b?$AA@ DB 'SSoffsetManeuverPoin'
	DB	'ts2b', 00H					; `string'
CONST	ENDS
;	COMDAT ??_C@_0BG@KLNGCBDP@PinceManeuverPoints1a?$AA@
CONST	SEGMENT
??_C@_0BG@KLNGCBDP@PinceManeuverPoints1a?$AA@ DB 'PinceManeuverPoints1a', 00H ; `string'
CONST	ENDS
;	COMDAT ??_C@_0BG@IAPLHCPM@PinceManeuverPoints1b?$AA@
CONST	SEGMENT
??_C@_0BG@IAPLHCPM@PinceManeuverPoints1b?$AA@ DB 'PinceManeuverPoints1b', 00H ; `string'
CONST	ENDS
;	COMDAT ??_C@_0BG@KJJAJPGG@PinceManeuverPoints2a?$AA@
CONST	SEGMENT
??_C@_0BG@KJJAJPGG@PinceManeuverPoints2a?$AA@ DB 'PinceManeuverPoints2a', 00H ; `string'
CONST	ENDS
;	COMDAT ??_C@_0BG@ICLNMMKF@PinceManeuverPoints2b?$AA@
CONST	SEGMENT
??_C@_0BG@ICLNMMKF@PinceManeuverPoints2b?$AA@ DB 'PinceManeuverPoints2b', 00H ; `string'
CONST	ENDS
;	COMDAT ??_C@_0BF@NJKJAHLP@LethalRadiusModifier?$AA@
CONST	SEGMENT
??_C@_0BF@NJKJAHLP@LethalRadiusModifier?$AA@ DB 'LethalRadiusModifier', 00H ; `string'
CONST	ENDS
;	COMDAT ??_C@_0M@NGOBOFMI@RAPDistance?$AA@
CONST	SEGMENT
??_C@_0M@NGOBOFMI@RAPDistance?$AA@ DB 'RAPDistance', 00H ; `string'
CONST	ENDS
;	COMDAT ??_C@_0N@CJLPELA@MoverVrValue?$AA@
CONST	SEGMENT
??_C@_0N@CJLPELA@MoverVrValue?$AA@ DB 'MoverVrValue', 00H ; `string'
CONST	ENDS
;	COMDAT ??_C@_0BC@IJAOOMGF@MinBwForOtherData?$AA@
CONST	SEGMENT
??_C@_0BC@IJAOOMGF@MinBwForOtherData?$AA@ DB 'MinBwForOtherData', 00H ; `string'
CONST	ENDS
;	COMDAT ??_C@_0BO@LFGMKNFF@clientbwforupdatesmodifyerMIN?$AA@
CONST	SEGMENT
??_C@_0BO@LFGMKNFF@clientbwforupdatesmodifyerMIN?$AA@ DB 'clientbwforupda'
	DB	'tesmodifyerMIN', 00H			; `string'
CONST	ENDS
;	COMDAT ??_C@_0BO@KHOHEJDK@clientbwforupdatesmodifyerMAX?$AA@
CONST	SEGMENT
??_C@_0BO@KHOHEJDK@clientbwforupdatesmodifyerMAX?$AA@ DB 'clientbwforupda'
	DB	'tesmodifyerMAX', 00H			; `string'
CONST	ENDS
;	COMDAT ??_C@_0BD@MALECBAH@ReliablemsgwaitMAX?$AA@
CONST	SEGMENT
??_C@_0BD@MALECBAH@ReliablemsgwaitMAX?$AA@ DB 'ReliablemsgwaitMAX', 00H ; `string'
CONST	ENDS
;	COMDAT ??_C@_0N@NAPLKIBH@FOVIncrement?$AA@
CONST	SEGMENT
??_C@_0N@NAPLKIBH@FOVIncrement?$AA@ DB 'FOVIncrement', 00H ; `string'
CONST	ENDS
;	COMDAT ??_C@_0M@JBLAJECP@MavEXPLevel?$AA@
CONST	SEGMENT
??_C@_0M@JBLAJECP@MavEXPLevel?$AA@ DB 'MavEXPLevel', 00H ; `string'
CONST	ENDS
;	COMDAT ??_C@_0M@LNJDKFOC@MavFOVLevel?$AA@
CONST	SEGMENT
??_C@_0M@LNJDKFOC@MavFOVLevel?$AA@ DB 'MavFOVLevel', 00H ; `string'
CONST	ENDS
;	COMDAT ??_C@_0BF@PGIPJNBK@MouseLookSensitivity?$AA@
CONST	SEGMENT
??_C@_0BF@PGIPJNBK@MouseLookSensitivity?$AA@ DB 'MouseLookSensitivity', 00H ; `string'
CONST	ENDS
;	COMDAT ??_C@_0L@BCHDPCCN@DefaultFOV?$AA@
CONST	SEGMENT
??_C@_0L@BCHDPCCN@DefaultFOV?$AA@ DB 'DefaultFOV', 00H	; `string'
CONST	ENDS
;	COMDAT ??_C@_0O@HFNKOAFG@HSDSymbolSize?$AA@
CONST	SEGMENT
??_C@_0O@HFNKOAFG@HSDSymbolSize?$AA@ DB 'HSDSymbolSize', 00H ; `string'
CONST	ENDS
;	COMDAT ??_C@_0O@GIOEDCPP@TIRMinimumFOV?$AA@
CONST	SEGMENT
??_C@_0O@GIOEDCPP@TIRMinimumFOV?$AA@ DB 'TIRMinimumFOV', 00H ; `string'
CONST	ENDS
;	COMDAT ??_C@_0O@KEOJEJPA@TIRMaximumFOV?$AA@
CONST	SEGMENT
??_C@_0O@KEOJEJPA@TIRMaximumFOV?$AA@ DB 'TIRMaximumFOV', 00H ; `string'
CONST	ENDS
;	COMDAT ??_C@_0L@GCHOBIC@MinimumFOV?$AA@
CONST	SEGMENT
??_C@_0L@GCHOBIC@MinimumFOV?$AA@ DB 'MinimumFOV', 00H	; `string'
CONST	ENDS
;	COMDAT ??_C@_0L@MKCKJKIN@MaximumFOV?$AA@
CONST	SEGMENT
??_C@_0L@MKCKJKIN@MaximumFOV?$AA@ DB 'MaximumFOV', 00H	; `string'
CONST	ENDS
;	COMDAT ??_C@_09NJJENEAM@NarrowFOV?$AA@
CONST	SEGMENT
??_C@_09NJJENEAM@NarrowFOV?$AA@ DB 'NarrowFOV', 00H	; `string'
CONST	ENDS
;	COMDAT ??_C@_0M@GHCKEGJG@WideviewFOV?$AA@
CONST	SEGMENT
??_C@_0M@GHCKEGJG@WideviewFOV?$AA@ DB 'WideviewFOV', 00H ; `string'
CONST	ENDS
;	COMDAT ??_C@_0BI@FMEAPPJH@MeanTimeBetweenFailures?$AA@
CONST	SEGMENT
??_C@_0BI@FMEAPPJH@MeanTimeBetweenFailures?$AA@ DB 'MeanTimeBetweenFailur'
	DB	'es', 00H					; `string'
CONST	ENDS
;	COMDAT ??_C@_08HCADMPAB@JDAMLift?$AA@
CONST	SEGMENT
??_C@_08HCADMPAB@JDAMLift?$AA@ DB 'JDAMLift', 00H	; `string'
CONST	ENDS
;	COMDAT ??_C@_0P@GDJJDGLJ@AIJSOWmaxRange?$AA@
CONST	SEGMENT
??_C@_0P@GDJJDGLJ@AIJSOWmaxRange?$AA@ DB 'AIJSOWmaxRange', 00H ; `string'
CONST	ENDS
;	COMDAT ??_C@_0N@HMLLBJDB@ButtonScaler?$AA@
CONST	SEGMENT
??_C@_0N@HMLLBJDB@ButtonScaler?$AA@ DB 'ButtonScaler', 00H ; `string'
CONST	ENDS
;	COMDAT ??_C@_0O@CKLOIBOL@ButtonZScaler?$AA@
CONST	SEGMENT
??_C@_0O@CKLOIBOL@ButtonZScaler?$AA@ DB 'ButtonZScaler', 00H ; `string'
CONST	ENDS
;	COMDAT ??_C@_0BE@JPHFPFGF@HybridPitThreshold1?$AA@
CONST	SEGMENT
??_C@_0BE@JPHFPFGF@HybridPitThreshold1?$AA@ DB 'HybridPitThreshold1', 00H ; `string'
CONST	ENDS
;	COMDAT ??_C@_0BE@LEFIKGKG@HybridPitThreshold2?$AA@
CONST	SEGMENT
??_C@_0BE@LEFIKGKG@HybridPitThreshold2?$AA@ DB 'HybridPitThreshold2', 00H ; `string'
CONST	ENDS
;	COMDAT ??_C@_0BD@IMEOAOCN@TIR2DYawPercentage?$AA@
CONST	SEGMENT
??_C@_0BD@IMEOAOCN@TIR2DYawPercentage?$AA@ DB 'TIR2DYawPercentage', 00H ; `string'
CONST	ENDS
;	COMDAT ??_C@_0BF@MAJIPNPO@TIR2DPitchPercentage?$AA@
CONST	SEGMENT
??_C@_0BF@MAJIPNPO@TIR2DPitchPercentage?$AA@ DB 'TIR2DPitchPercentage', 00H ; `string'
CONST	ENDS
;	COMDAT ??_C@_0BD@KOOACBJM@DBS1ScanRateFactor?$AA@
CONST	SEGMENT
??_C@_0BD@KOOACBJM@DBS1ScanRateFactor?$AA@ DB 'DBS1ScanRateFactor', 00H ; `string'
CONST	ENDS
;	COMDAT ??_C@_0BD@IHCIJFGO@DBS2ScanRateFactor?$AA@
CONST	SEGMENT
??_C@_0BD@IHCIJFGO@DBS2ScanRateFactor?$AA@ DB 'DBS2ScanRateFactor', 00H ; `string'
CONST	ENDS
;	COMDAT ??_C@_0L@BAADMPGH@A2GJDAMAlt?$AA@
CONST	SEGMENT
??_C@_0L@BAADMPGH@A2GJDAMAlt?$AA@ DB 'A2GJDAMAlt', 00H	; `string'
CONST	ENDS
;	COMDAT ??_C@_0L@KCCAIDHE@A2GJSOWAlt?$AA@
CONST	SEGMENT
??_C@_0L@KCCAIDHE@A2GJSOWAlt?$AA@ DB 'A2GJSOWAlt', 00H	; `string'
CONST	ENDS
;	COMDAT ??_C@_0L@IMIMIECG@A2GHarmAlt?$AA@
CONST	SEGMENT
??_C@_0L@IMIMIECG@A2GHarmAlt?$AA@ DB 'A2GHarmAlt', 00H	; `string'
CONST	ENDS
;	COMDAT ??_C@_09DHOGLBLI@A2GAGMAlt?$AA@
CONST	SEGMENT
??_C@_09DHOGLBLI@A2GAGMAlt?$AA@ DB 'A2GAGMAlt', 00H	; `string'
CONST	ENDS
;	COMDAT ??_C@_09FEGLMJHC@A2GGBUAlt?$AA@
CONST	SEGMENT
??_C@_09FEGLMJHC@A2GGBUAlt?$AA@ DB 'A2GGBUAlt', 00H	; `string'
CONST	ENDS
;	COMDAT ??_C@_0N@IKBNFLCE@A2GDumbHDAlt?$AA@
CONST	SEGMENT
??_C@_0N@IKBNFLCE@A2GDumbHDAlt?$AA@ DB 'A2GDumbHDAlt', 00H ; `string'
CONST	ENDS
;	COMDAT ??_C@_0O@CHIMHFMN@A2GClusterAlt?$AA@
CONST	SEGMENT
??_C@_0O@CHIMHFMN@A2GClusterAlt?$AA@ DB 'A2GClusterAlt', 00H ; `string'
CONST	ENDS
;	COMDAT ??_C@_0N@BBIMBJDC@A2GDumbLDAlt?$AA@
CONST	SEGMENT
??_C@_0N@BBIMBJDC@A2GDumbLDAlt?$AA@ DB 'A2GDumbLDAlt', 00H ; `string'
CONST	ENDS
;	COMDAT ??_C@_0BC@GIKIJCBL@A2GGenericBombAlt?$AA@
CONST	SEGMENT
??_C@_0BC@GIKIJCBL@A2GGenericBombAlt?$AA@ DB 'A2GGenericBombAlt', 00H ; `string'
CONST	ENDS
;	COMDAT ??_C@_0BA@DJABIMNG@A2GGunRocketAlt?$AA@
CONST	SEGMENT
??_C@_0BA@DJABIMNG@A2GGunRocketAlt?$AA@ DB 'A2GGunRocketAlt', 00H ; `string'
CONST	ENDS
;	COMDAT ??_C@_0N@PAIKOJBB@A2GCameraAlt?$AA@
CONST	SEGMENT
??_C@_0N@PAIKOJBB@A2GCameraAlt?$AA@ DB 'A2GCameraAlt', 00H ; `string'
CONST	ENDS
;	COMDAT ??_C@_0BA@ONACHLMA@TexDetailFactor?$AA@
CONST	SEGMENT
??_C@_0BA@ONACHLMA@TexDetailFactor?$AA@ DB 'TexDetailFactor', 00H ; `string'
CONST	ENDS
;	COMDAT ??_C@_0BE@DPBDKIPN@ACMIAnimRecordTimer?$AA@
CONST	SEGMENT
??_C@_0BE@DPBDKIPN@ACMIAnimRecordTimer?$AA@ DB 'ACMIAnimRecordTimer', 00H ; `string'
CONST	ENDS
;	COMDAT ??_C@_09PKKNBDAC@dpitStart?$AA@
CONST	SEGMENT
??_C@_09PKKNBDAC@dpitStart?$AA@ DB 'dpitStart', 00H	; `string'
CONST	ENDS
;	COMDAT ??_C@_08MNOOJLLD@dpitStop?$AA@
CONST	SEGMENT
??_C@_08MNOOJLLD@dpitStop?$AA@ DB 'dpitStop', 00H	; `string'
CONST	ENDS
;	COMDAT ??_C@_09DMIPKIB@TaxiEarly?$AA@
CONST	SEGMENT
??_C@_09DMIPKIB@TaxiEarly?$AA@ DB 'TaxiEarly', 00H	; `string'
CONST	ENDS
;	COMDAT ??_C@_0BB@DJHJJKBM@Dyn_Head_TiltMul?$AA@
CONST	SEGMENT
??_C@_0BB@DJHJJKBM@Dyn_Head_TiltMul?$AA@ DB 'Dyn_Head_TiltMul', 00H ; `string'
CONST	ENDS
;	COMDAT ??_C@_0BF@HPHNHMMB@Dyn_Head_TiltRndGMul?$AA@
CONST	SEGMENT
??_C@_0BF@HPHNHMMB@Dyn_Head_TiltRndGMul?$AA@ DB 'Dyn_Head_TiltRndGMul', 00H ; `string'
CONST	ENDS
;	COMDAT ??_C@_0BB@MMFGHKOC@Dyn_Head_RollMul?$AA@
CONST	SEGMENT
??_C@_0BB@MMFGHKOC@Dyn_Head_RollMul?$AA@ DB 'Dyn_Head_RollMul', 00H ; `string'
CONST	ENDS
;	COMDAT ??_C@_0BA@GAKKKMJF@Dyn_Head_PanMul?$AA@
CONST	SEGMENT
??_C@_0BA@GAKKKMJF@Dyn_Head_PanMul?$AA@ DB 'Dyn_Head_PanMul', 00H ; `string'
CONST	ENDS
;	COMDAT ??_C@_0BF@DBOCHCNH@Dyn_Head_TiltRateMul?$AA@
CONST	SEGMENT
??_C@_0BF@DBOCHCNH@Dyn_Head_TiltRateMul?$AA@ DB 'Dyn_Head_TiltRateMul', 00H ; `string'
CONST	ENDS
;	COMDAT ??_C@_0BG@BGGOJMCN@Dyn_Head_TiltGRateMul?$AA@
CONST	SEGMENT
??_C@_0BG@BGGOJMCN@Dyn_Head_TiltGRateMul?$AA@ DB 'Dyn_Head_TiltGRateMul', 00H ; `string'
CONST	ENDS
;	COMDAT ??_C@_0BC@HJLMHIJP@Dyn_Head_RollRate?$AA@
CONST	SEGMENT
??_C@_0BC@HJLMHIJP@Dyn_Head_RollRate?$AA@ DB 'Dyn_Head_RollRate', 00H ; `string'
CONST	ENDS
;	COMDAT ??_C@_0BB@LHHBGANG@Dyn_Head_PanRate?$AA@
CONST	SEGMENT
??_C@_0BB@LHHBGANG@Dyn_Head_PanRate?$AA@ DB 'Dyn_Head_PanRate', 00H ; `string'
CONST	ENDS
;	COMDAT ??_C@_0BB@BIPFDKEL@PilotActInterval?$AA@
CONST	SEGMENT
??_C@_0BB@BIPFDKEL@PilotActInterval?$AA@ DB 'PilotActInterval', 00H ; `string'
CONST	ENDS
;	COMDAT ??_C@_0BC@KOBEG@PilotHeadMoveRate?$AA@
CONST	SEGMENT
??_C@_0BC@KOBEG@PilotHeadMoveRate?$AA@ DB 'PilotHeadMoveRate', 00H ; `string'
CONST	ENDS
;	COMDAT ??_C@_0L@HAGHJODN@3DHeadTilt?$AA@
CONST	SEGMENT
??_C@_0L@HAGHJODN@3DHeadTilt?$AA@ DB '3DHeadTilt', 00H	; `string'
CONST	ENDS
;	COMDAT ??_C@_08IKLJBNLF@3DPitFOV?$AA@
CONST	SEGMENT
??_C@_08IKLJBNLF@3DPitFOV?$AA@ DB '3DPitFOV', 00H	; `string'
CONST	ENDS
_DATA	SEGMENT
_FloatOpts DD	FLAT:??_C@_0L@ONEGGIPE@MipLodBias?$AA@
	DD	FLAT:?g_fMipLodBias@@3MA
	DD	FLAT:??_C@_0P@GOJJLPFA@CloudMinHeight?$AA@
	DD	FLAT:?g_fCloudMinHeight@@3MA
	DD	FLAT:??_C@_0L@GCODLODD@RadarScale?$AA@
	DD	FLAT:?g_fRadarScale@@3MA
	DD	FLAT:??_C@_0M@DFLBEBEO@CursorSpeed?$AA@
	DD	FLAT:?g_fCursorSpeed@@3MA
	DD	FLAT:??_C@_0BA@FMLGGGHE@MinCloudWeather?$AA@
	DD	FLAT:?g_fMinCloudWeather@@3MA
	DD	FLAT:??_C@_0BF@MPFEJIJO@CloudThicknessFactor?$AA@
	DD	FLAT:?g_fCloudThicknessFactor@@3MA
	DD	FLAT:??_C@_0BD@JCPAPJKM@DragDilutionFactor?$AA@
	DD	FLAT:?g_fDragDilutionFactor@@3MA
	DD	FLAT:??_C@_0L@CHNOPJNO@dwPorthost?$AA@
	DD	FLAT:?g_fdwPorthost@@3MA
	DD	FLAT:??_C@_0N@JEKGEGKC@dwPortclient?$AA@
	DD	FLAT:?g_fdwPortclient@@3MA
	DD	FLAT:??_C@_0BI@DFMLHJAO@FormationBurnerDistance?$AA@
	DD	FLAT:?g_fFormationBurnerDistance@@3MA
	DD	FLAT:??_C@_0BF@FFOFDJFN@PadlockBreakDistance?$AA@
	DD	FLAT:?g_fPadlockBreakDistance@@3MA
	DD	FLAT:??_C@_0O@PENCKKIE@AFRudderRight?$AA@
	DD	FLAT:?g_fAFRudderRight@@3MA
	DD	FLAT:??_C@_0N@CDMEMBAC@AFRudderLeft?$AA@
	DD	FLAT:?g_fAFRudderLeft@@3MA
	DD	FLAT:??_C@_0P@HGBEIHPP@AFThrottleDown?$AA@
	DD	FLAT:?g_fAFThrottleDown@@3MA
	DD	FLAT:??_C@_0N@POBODBK@AFThrottleUp?$AA@
	DD	FLAT:?g_fAFThrottleUp@@3MA
	DD	FLAT:??_C@_0O@IFGNNACM@AFAileronLeft?$AA@
	DD	FLAT:?g_fAFAileronLeft@@3MA
	DD	FLAT:??_C@_0P@CIKCAOFK@AFAileronRight?$AA@
	DD	FLAT:?g_fAFAileronRight@@3MA
	DD	FLAT:??_C@_0P@IJJJJHDF@AFElevatorDown?$AA@
	DD	FLAT:?g_fAFElevatorDown@@3MA
	DD	FLAT:??_C@_0N@HNKPPLEM@AFElevatorUp?$AA@
	DD	FLAT:?g_fAFElevatorUp@@3MA
	DD	FLAT:??_C@_0BA@KJIPIPMF@rollStickOffset?$AA@
	DD	FLAT:?g_frollStickOffset@@3MA
	DD	FLAT:??_C@_0BB@FICIAJKM@pitchStickOffset?$AA@
	DD	FLAT:?g_fpitchStickOffset@@3MA
	DD	FLAT:??_C@_0N@FABDEEJB@rudderOffset?$AA@
	DD	FLAT:?g_frudderOffset@@3MA
	DD	FLAT:??_C@_0BG@LEDDHCJK@VisualNormalizeFactor?$AA@
	DD	FLAT:?g_fVisualNormalizeFactor@@3MA
	DD	FLAT:??_C@_0M@HMHGGILP@RecoveryAOA?$AA@
	DD	FLAT:?g_fRecoveryAOA@@3MA
	DD	FLAT:??_C@_0BL@DEOMNHOC@clientbwforupdatesmodifyer?$AA@
	DD	FLAT:?clientbwforupdatesmodifyer@@3MA
	DD	FLAT:??_C@_0BJ@GKGMNJMA@hostbwforupdatesmodifyer?$AA@
	DD	FLAT:?hostbwforupdatesmodifyer@@3MA
	DD	FLAT:??_C@_0BA@KOOBOEEN@MfdTransparency?$AA@
	DD	FLAT:?g_fMfdTransparency@@3MA
	DD	FLAT:??_C@_06NLNJGJLD@MfdRed?$AA@
	DD	FLAT:?g_fMfdRed@@3MA
	DD	FLAT:??_C@_07EKDFLFPC@MfdBlue?$AA@
	DD	FLAT:?g_fMfdBlue@@3MA
	DD	FLAT:??_C@_08HHIDAPGD@MfdGreen?$AA@
	DD	FLAT:?g_fMfdGreen@@3MA
	DD	FLAT:??_C@_0L@LBBFEKPB@Mfd_p_Size?$AA@
	DD	FLAT:?g_fMfd_p_Size@@3MA
	DD	FLAT:??_C@_0L@KHPPPOPB@PullupTime?$AA@
	DD	FLAT:?g_fPullupTime@@3MA
	DD	FLAT:??_C@_0BA@LLGLGMPB@GALookAheadTime?$AA@
	DD	FLAT:?g_fGALookAheadTime@@3MA
	DD	FLAT:??_C@_08ODNOBHDK@AIMinAlt?$AA@
	DD	FLAT:?g_fAIMinAlt@@3MA
	DD	FLAT:??_C@_0L@NKEPIKEE@AIMinWPAlt?$AA@
	DD	FLAT:?g_fAIMinWPAlt@@3MA
	DD	FLAT:??_C@_0M@IFINGKIN@GApStickFac?$AA@
	DD	FLAT:?g_fGApStickFac@@3MA
	DD	FLAT:??_C@_0P@OFAJLNCA@AIHarmMaxRange?$AA@
	DD	FLAT:?g_fAIHarmMaxRange@@3MA
	DD	FLAT:??_C@_0P@OBGILEBK@AIJSOWMaxRange?$AA@
	DD	FLAT:?g_fAIJSOWMaxRange@@3MA
	DD	FLAT:??_C@_0O@KJHCKPDO@AGFlyoutRange?$AA@
	DD	FLAT:?g_fAGFlyoutRange@@3MA
	DD	FLAT:??_C@_0BC@NAAFJGGM@AGSlowFlyoutRange?$AA@
	DD	FLAT:?g_fAGSlowFlyoutRange@@3MA
	DD	FLAT:??_C@_0BB@BCCCLNHN@AGSlowMoverSpeed?$AA@
	DD	FLAT:?g_fAGSlowMoverSpeed@@3MA
	DD	FLAT:??_C@_0O@OAAGLKIA@AIRefuelRange?$AA@
	DD	FLAT:?g_fAIRefuelRange@@3MA
	DD	FLAT:??_C@_0M@MCKGGKKA@IdentFactor?$AA@
	DD	FLAT:?g_fIdentFactor@@3MA
	DD	FLAT:??_C@_0BJ@KNLCJMEH@AIDropStoreLauncherRange?$AA@
	DD	FLAT:?g_fAIDropStoreLauncherRange@@3MA
	DD	FLAT:??_C@_0BD@MECFIJPF@BiasFactorForFlaks?$AA@
	DD	FLAT:?g_fBiasFactorForFlaks@@3MA
	DD	FLAT:??_C@_0BF@DKGNKGPO@TracerAccuracyFactor?$AA@
	DD	FLAT:?g_fTracerAccuracyFactor@@3MA
	DD	FLAT:??_C@_0N@OBNPGPBG@TankerRStick?$AA@
	DD	FLAT:?g_fTankerRStick@@3MA
	DD	FLAT:??_C@_0N@HGEAHODP@TankerPStick?$AA@
	DD	FLAT:?g_fTankerPStick@@3MA
	DD	FLAT:??_C@_0BC@GLLJDCDL@TankerTrackFactor?$AA@
	DD	FLAT:?g_fTankerTrackFactor@@3MA
	DD	FLAT:??_C@_0BG@CFPOCOIM@TankerHeadsupDistance?$AA@
	DD	FLAT:?g_fTankerHeadsupDistance@@3MA
	DD	FLAT:??_C@_0BF@KPDHEJEF@TankerBackupDistance?$AA@
	DD	FLAT:?g_fTankerBackupDistance@@3MA
	DD	FLAT:??_C@_0BH@KJIDKIDP@HeadingStabilizeFactor?$AA@
	DD	FLAT:?g_fHeadingStabilizeFactor@@3MA
	DD	FLAT:??_C@_0BC@EMJHNOBD@RocketPitchFactor?$AA@
	DD	FLAT:?g_fRocketPitchFactor@@3MA
	DD	FLAT:??_C@_0BA@KENKLNKB@RocketPitchCorr?$AA@
	DD	FLAT:?g_fRocketPitchCorr@@3MA
	DD	FLAT:??_C@_0N@EHFPFCKH@FuelBaseProp?$AA@
	DD	FLAT:?g_fFuelBaseProp@@3MA
	DD	FLAT:??_C@_0N@DJALJPLO@FuelMultProp?$AA@
	DD	FLAT:?g_fFuelMultProp@@3MA
	DD	FLAT:??_C@_0N@BDNNDFKA@FuelTimeStep?$AA@
	DD	FLAT:?g_fFuelTimeStep@@3MA
	DD	FLAT:??_C@_0L@PNHJNCFN@FuelVtClip?$AA@
	DD	FLAT:?g_fFuelVtClip@@3MA
	DD	FLAT:??_C@_0O@HFBIHDPF@FuelVtDotMult?$AA@
	DD	FLAT:?g_fFuelVtDotMult@@3MA
	DD	FLAT:??_C@_0O@LLEELFDJ@AIRefuelSpeed?$AA@
	DD	FLAT:?g_fAIRefuelSpeed@@3MA
	DD	FLAT:??_C@_0BM@NNJBGOBI@SearchSimTargetFromRangeSqr?$AA@
	DD	FLAT:?g_fSearchSimTargetFromRangeSqr@@3MA
	DD	FLAT:??_C@_0BD@ENPPPAKF@NukeStrengthFactor?$AA@
	DD	FLAT:?g_fNukeStrengthFactor@@3MA
	DD	FLAT:??_C@_0O@KONPLMCF@NukeDamageMod?$AA@
	DD	FLAT:?g_fNukeDamageMod@@3MA
	DD	FLAT:??_C@_0BB@NLAABPAE@NukeDamageRadius?$AA@
	DD	FLAT:?g_fNukeDamageRadius@@3MA
	DD	FLAT:??_C@_0L@BDCEENFH@ClimbRatio?$AA@
	DD	FLAT:?g_fClimbRatio@@3MA
	DD	FLAT:??_C@_0N@OGHANHBN@HotNoseAngle?$AA@
	DD	FLAT:?g_fHotNoseAngle@@3MA
	DD	FLAT:??_C@_0M@EOBCFMCI@MaxMARNoIdA?$AA@
	DD	FLAT:?g_fMaxMARNoIdA@@3MA
	DD	FLAT:??_C@_0O@MPBLALFI@MinMARNoId5kA?$AA@
	DD	FLAT:?g_fMinMARNoId5kA@@3MA
	DD	FLAT:??_C@_0P@JFPPHJDD@MinMARNoId18kA?$AA@
	DD	FLAT:?g_fMinMARNoId18kA@@3MA
	DD	FLAT:??_C@_0P@NCFPADOD@MinMARNoId28kA?$AA@
	DD	FLAT:?g_fMinMARNoId28kA@@3MA
	DD	FLAT:??_C@_0M@GFDPAPOL@MaxMARNoIdB?$AA@
	DD	FLAT:?g_fMaxMARNoIdB@@3MA
	DD	FLAT:??_C@_0O@OEDGFIJL@MinMARNoId5kB?$AA@
	DD	FLAT:?g_fMinMARNoId5kB@@3MA
	DD	FLAT:??_C@_0P@LONCCKPA@MinMARNoId18kB?$AA@
	DD	FLAT:?g_fMinMARNoId18kB@@3MA
	DD	FLAT:??_C@_0P@PJHCFACA@MinMARNoId28kB?$AA@
	DD	FLAT:?g_fMinMARNoId28kB@@3MA
	DD	FLAT:??_C@_0M@OMFHCOEA@MinMARNoIdC?$AA@
	DD	FLAT:?g_fMinMARNoIdC@@3MA
	DD	FLAT:??_C@_0BE@NODEDAOM@WaypointBurnerDelta?$AA@
	DD	FLAT:?g_fWaypointBurnerDelta@@3MA
	DD	FLAT:??_C@_0BA@NFKBHKAB@GroundImpactMod?$AA@
	DD	FLAT:?g_fGroundImpactMod@@3MA
	DD	FLAT:??_C@_0BE@LAJDGBGE@BombMissileAltitude?$AA@
	DD	FLAT:?g_fBombMissileAltitude@@3MA
	DD	FLAT:??_C@_0M@LBFEPFMD@GMTMaxSpeed?$AA@
	DD	FLAT:?g_fGMTMaxSpeed@@3MA
	DD	FLAT:??_C@_0M@GGLPEHIC@GMTMinSpeed?$AA@
	DD	FLAT:?g_fGMTMinSpeed@@3MA
	DD	FLAT:??_C@_0BD@GDGDFHHB@ReconCameraHalfFOV?$AA@
	DD	FLAT:?g_fReconCameraHalfFOV@@3MA
	DD	FLAT:??_C@_0BC@BEFPPKGH@ReconCameraOffset?$AA@
	DD	FLAT:?g_fReconCameraOffset@@3MA
	DD	FLAT:??_C@_09LHMJEDNK@EXPfactor?$AA@
	DD	FLAT:?g_fEXPfactor@@3MA
	DD	FLAT:??_C@_0L@CFJNNFKM@DBS1factor?$AA@
	DD	FLAT:?g_fDBS1factor@@3MA
	DD	FLAT:??_C@_0L@KLBCNCEP@DBS2factor?$AA@
	DD	FLAT:?g_fDBS2factor@@3MA
	DD	FLAT:??_C@_0M@HCAMNHLA@HUDonlySize?$AA@
	DD	FLAT:?g_fHUDonlySize@@3MA
	DD	FLAT:??_C@_0M@BBGNEEGP@ePropFactor?$AA@
	DD	FLAT:?g_fePropFactor@@3MA
	DD	FLAT:??_C@_0BC@GENAKAAM@SunPadlockTimeout?$AA@
	DD	FLAT:?g_fSunPadlockTimeout@@3MA
	DD	FLAT:??_C@_0BG@KOFNPFKA@CarrierStartTolerance?$AA@
	DD	FLAT:?g_fCarrierStartTolerance@@3MA
	DD	FLAT:??_C@_0N@JBEBILFN@BombTimeStep?$AA@
	DD	FLAT:?g_fBombTimeStep@@3MA
	DD	FLAT:??_C@_0BD@PEMKEBN@HighDragGravFactor?$AA@
	DD	FLAT:?g_fHighDragGravFactor@@3MA
	DD	FLAT:??_C@_0M@PKLMHCDM@TgtDZFactor?$AA@
	DD	FLAT:?g_fTgtDZFactor@@3MA
	DD	FLAT:??_C@_0BJ@FJFHDHFK@SSoffsetManeuverPoints1a?$AA@
	DD	FLAT:?g_fSSoffsetManeuverPoints1a@@3MA
	DD	FLAT:??_C@_0BJ@HCHKGEJJ@SSoffsetManeuverPoints1b?$AA@
	DD	FLAT:?g_fSSoffsetManeuverPoints1b@@3MA
	DD	FLAT:??_C@_0BJ@FLBBIJAD@SSoffsetManeuverPoints2a?$AA@
	DD	FLAT:?g_fSSoffsetManeuverPoints2a@@3MA
	DD	FLAT:??_C@_0BJ@HADMNKMA@SSoffsetManeuverPoints2b?$AA@
	DD	FLAT:?g_fSSoffsetManeuverPoints2b@@3MA
	DD	FLAT:??_C@_0BG@KLNGCBDP@PinceManeuverPoints1a?$AA@
	DD	FLAT:?g_fPinceManeuverPoints1a@@3MA
	DD	FLAT:??_C@_0BG@IAPLHCPM@PinceManeuverPoints1b?$AA@
	DD	FLAT:?g_fPinceManeuverPoints1b@@3MA
	DD	FLAT:??_C@_0BG@KJJAJPGG@PinceManeuverPoints2a?$AA@
	DD	FLAT:?g_fPinceManeuverPoints2a@@3MA
	DD	FLAT:??_C@_0BG@ICLNMMKF@PinceManeuverPoints2b?$AA@
	DD	FLAT:?g_fPinceManeuverPoints2b@@3MA
	DD	FLAT:??_C@_0BF@NJKJAHLP@LethalRadiusModifier?$AA@
	DD	FLAT:?g_fLethalRadiusModifier@@3MA
	DD	FLAT:??_C@_0M@NGOBOFMI@RAPDistance?$AA@
	DD	FLAT:?g_fRAPDistance@@3MA
	DD	FLAT:??_C@_0N@CJLPELA@MoverVrValue?$AA@
	DD	FLAT:?g_fMoverVrValue@@3MA
	DD	FLAT:??_C@_0BC@IJAOOMGF@MinBwForOtherData?$AA@
	DD	FLAT:?MinBwForOtherData@@3MA
	DD	FLAT:??_C@_0BO@LFGMKNFF@clientbwforupdatesmodifyerMIN?$AA@
	DD	FLAT:?g_fclientbwforupdatesmodifyerMIN@@3MA
	DD	FLAT:??_C@_0BO@KHOHEJDK@clientbwforupdatesmodifyerMAX?$AA@
	DD	FLAT:?g_fclientbwforupdatesmodifyerMAX@@3MA
	DD	FLAT:??_C@_0BD@MALECBAH@ReliablemsgwaitMAX?$AA@
	DD	FLAT:?g_fReliablemsgwaitMAX@@3MA
	DD	FLAT:??_C@_0N@NAPLKIBH@FOVIncrement?$AA@
	DD	FLAT:?g_fFOVIncrement@@3MA
	DD	FLAT:??_C@_0M@JBLAJECP@MavEXPLevel?$AA@
	DD	FLAT:?g_fMavEXPLevel@@3MA
	DD	FLAT:??_C@_0M@LNJDKFOC@MavFOVLevel?$AA@
	DD	FLAT:?g_fMavFOVLevel@@3MA
	DD	FLAT:??_C@_0BF@PGIPJNBK@MouseLookSensitivity?$AA@
	DD	FLAT:?g_fMouseLookSensitivity@@3MA
	DD	FLAT:??_C@_0L@BCHDPCCN@DefaultFOV?$AA@
	DD	FLAT:?g_fDefaultFOV@@3MA
	DD	FLAT:??_C@_0O@HFNKOAFG@HSDSymbolSize?$AA@
	DD	FLAT:?g_fHSDSymbolSize@@3MA
	DD	FLAT:??_C@_0O@GIOEDCPP@TIRMinimumFOV?$AA@
	DD	FLAT:?g_fTIRMinimumFOV@@3MA
	DD	FLAT:??_C@_0O@KEOJEJPA@TIRMaximumFOV?$AA@
	DD	FLAT:?g_fTIRMaximumFOV@@3MA
	DD	FLAT:??_C@_0L@GCHOBIC@MinimumFOV?$AA@
	DD	FLAT:?g_fMinimumFOV@@3MA
	DD	FLAT:??_C@_0L@MKCKJKIN@MaximumFOV?$AA@
	DD	FLAT:?g_fMaximumFOV@@3MA
	DD	FLAT:??_C@_09NJJENEAM@NarrowFOV?$AA@
	DD	FLAT:?g_fNarrowFOV@@3MA
	DD	FLAT:??_C@_0M@GHCKEGJG@WideviewFOV?$AA@
	DD	FLAT:?g_fWideviewFOV@@3MA
	DD	FLAT:??_C@_0BI@FMEAPPJH@MeanTimeBetweenFailures?$AA@
	DD	FLAT:?g_fMeanTimeBetweenFailures@@3MA
	DD	FLAT:??_C@_08HCADMPAB@JDAMLift?$AA@
	DD	FLAT:?g_fJDAMLift@@3MA
	DD	FLAT:??_C@_0P@GDJJDGLJ@AIJSOWmaxRange?$AA@
	DD	FLAT:?g_fAIJSOWmaxRange@@3MA
	DD	FLAT:??_C@_0N@HMLLBJDB@ButtonScaler?$AA@
	DD	FLAT:?g_fButtonScaler@@3MA
	DD	FLAT:??_C@_0O@CKLOIBOL@ButtonZScaler?$AA@
	DD	FLAT:?g_fButtonZScaler@@3MA
	DD	FLAT:??_C@_0BE@JPHFPFGF@HybridPitThreshold1?$AA@
	DD	FLAT:?g_fHybridPitThreshold1@@3MA
	DD	FLAT:??_C@_0BE@LEFIKGKG@HybridPitThreshold2?$AA@
	DD	FLAT:?g_fHybridPitThreshold2@@3MA
	DD	FLAT:??_C@_0BD@IMEOAOCN@TIR2DYawPercentage?$AA@
	DD	FLAT:?g_fTIR2DYawPercentage@@3MA
	DD	FLAT:??_C@_0BF@MAJIPNPO@TIR2DPitchPercentage?$AA@
	DD	FLAT:?g_fTIR2DPitchPercentage@@3MA
	DD	FLAT:??_C@_0BD@KOOACBJM@DBS1ScanRateFactor?$AA@
	DD	FLAT:?g_fDBS1ScanRateFactor@@3MA
	DD	FLAT:??_C@_0BD@IHCIJFGO@DBS2ScanRateFactor?$AA@
	DD	FLAT:?g_fDBS2ScanRateFactor@@3MA
	DD	FLAT:??_C@_0L@BAADMPGH@A2GJDAMAlt?$AA@
	DD	FLAT:?g_fA2GJDAMAlt@@3MA
	DD	FLAT:??_C@_0L@KCCAIDHE@A2GJSOWAlt?$AA@
	DD	FLAT:?g_fA2GJSOWAlt@@3MA
	DD	FLAT:??_C@_0L@IMIMIECG@A2GHarmAlt?$AA@
	DD	FLAT:?g_fA2GHarmAlt@@3MA
	DD	FLAT:??_C@_09DHOGLBLI@A2GAGMAlt?$AA@
	DD	FLAT:?g_fA2GAGMAlt@@3MA
	DD	FLAT:??_C@_09FEGLMJHC@A2GGBUAlt?$AA@
	DD	FLAT:?g_fA2GGBUAlt@@3MA
	DD	FLAT:??_C@_0N@IKBNFLCE@A2GDumbHDAlt?$AA@
	DD	FLAT:?g_fA2GDumbHDAlt@@3MA
	DD	FLAT:??_C@_0O@CHIMHFMN@A2GClusterAlt?$AA@
	DD	FLAT:?g_fA2GClusterAlt@@3MA
	DD	FLAT:??_C@_0N@BBIMBJDC@A2GDumbLDAlt?$AA@
	DD	FLAT:?g_fA2GDumbLDAlt@@3MA
	DD	FLAT:??_C@_0BC@GIKIJCBL@A2GGenericBombAlt?$AA@
	DD	FLAT:?g_fA2GGenericBombAlt@@3MA
	DD	FLAT:??_C@_0BA@DJABIMNG@A2GGunRocketAlt?$AA@
	DD	FLAT:?g_fA2GGunRocketAlt@@3MA
	DD	FLAT:??_C@_0N@PAIKOJBB@A2GCameraAlt?$AA@
	DD	FLAT:?g_fA2GCameraAlt@@3MA
	DD	FLAT:??_C@_0BA@ONACHLMA@TexDetailFactor?$AA@
	DD	FLAT:?g_fTexDetailFactor@@3MA
	DD	FLAT:??_C@_0BE@DPBDKIPN@ACMIAnimRecordTimer?$AA@
	DD	FLAT:?g_fACMIAnimRecordTimer@@3MA
	DD	FLAT:??_C@_09PKKNBDAC@dpitStart?$AA@
	DD	FLAT:?g_fdpitStart@@3MA
	DD	FLAT:??_C@_08MNOOJLLD@dpitStop?$AA@
	DD	FLAT:?g_fdpitStop@@3MA
	DD	FLAT:??_C@_09DMIPKIB@TaxiEarly?$AA@
	DD	FLAT:?g_fTaxiEarly@@3MA
	DD	FLAT:??_C@_0BB@DJHJJKBM@Dyn_Head_TiltMul?$AA@
	DD	FLAT:?g_fDyn_Head_TiltMul@@3MA
	DD	FLAT:??_C@_0BF@HPHNHMMB@Dyn_Head_TiltRndGMul?$AA@
	DD	FLAT:?g_fDyn_Head_TiltRndGMul@@3MA
	DD	FLAT:??_C@_0BB@MMFGHKOC@Dyn_Head_RollMul?$AA@
	DD	FLAT:?g_fDyn_Head_RollMul@@3MA
	DD	FLAT:??_C@_0BA@GAKKKMJF@Dyn_Head_PanMul?$AA@
	DD	FLAT:?g_fDyn_Head_PanMul@@3MA
	DD	FLAT:??_C@_0BF@DBOCHCNH@Dyn_Head_TiltRateMul?$AA@
	DD	FLAT:?g_fDyn_Head_TiltRateMul@@3MA
	DD	FLAT:??_C@_0BG@BGGOJMCN@Dyn_Head_TiltGRateMul?$AA@
	DD	FLAT:?g_fDyn_Head_TiltGRateMul@@3MA
	DD	FLAT:??_C@_0BC@HJLMHIJP@Dyn_Head_RollRate?$AA@
	DD	FLAT:?g_fDyn_Head_RollRate@@3MA
	DD	FLAT:??_C@_0BB@LHHBGANG@Dyn_Head_PanRate?$AA@
	DD	FLAT:?g_fDyn_Head_PanRate@@3MA
	DD	FLAT:??_C@_0BB@BIPFDKEL@PilotActInterval?$AA@
	DD	FLAT:?g_fPilotActInterval@@3MA
	DD	FLAT:??_C@_0BC@KOBEG@PilotHeadMoveRate?$AA@
	DD	FLAT:?g_fPilotHeadMoveRate@@3MA
	DD	FLAT:??_C@_0L@HAGHJODN@3DHeadTilt?$AA@
	DD	FLAT:?g_f3DHeadTilt@@3MA
	DD	FLAT:??_C@_08IKLJBNLF@3DPitFOV?$AA@
	DD	FLAT:?g_f3DPitFOV@@3MA
	DD	00H
	DD	00H
_DATA	ENDS
PUBLIC	?CheckID@?$ConfigOption@_N@@QAE_NPAD@Z		; ConfigOption<bool>::CheckID
EXTRN	_stricmp:NEAR
; Function compile flags: /Ogtpy
; File f:\projects\freefalcon\ui\src\f4config.cpp
;	COMDAT ?CheckID@?$ConfigOption@_N@@QAE_NPAD@Z
_TEXT	SEGMENT
_str$ = 8						; size = 4
?CheckID@?$ConfigOption@_N@@QAE_NPAD@Z PROC NEAR	; ConfigOption<bool>::CheckID, COMDAT
; _this$ = ecx

; 15   : 	bool CheckID(char *str) { return stricmp(&str[3], Name) == 0; }

	mov	eax, DWORD PTR [ecx]
	mov	ecx, DWORD PTR _str$[esp-4]
	push	eax
	add	ecx, 3
	push	ecx
	call	_stricmp
	add	esp, 8
	neg	eax
	sbb	eax, eax
	inc	eax
	ret	4
?CheckID@?$ConfigOption@_N@@QAE_NPAD@Z ENDP		; ConfigOption<bool>::CheckID
_TEXT	ENDS
PUBLIC	?CheckID@?$ConfigOption@H@@QAE_NPAD@Z		; ConfigOption<int>::CheckID
; Function compile flags: /Ogtpy
;	COMDAT ?CheckID@?$ConfigOption@H@@QAE_NPAD@Z
_TEXT	SEGMENT
_str$ = 8						; size = 4
?CheckID@?$ConfigOption@H@@QAE_NPAD@Z PROC NEAR		; ConfigOption<int>::CheckID, COMDAT
; _this$ = ecx

; 15   : 	bool CheckID(char *str) { return stricmp(&str[3], Name) == 0; }

	mov	eax, DWORD PTR [ecx]
	mov	ecx, DWORD PTR _str$[esp-4]
	push	eax
	add	ecx, 3
	push	ecx
	call	_stricmp
	add	esp, 8
	neg	eax
	sbb	eax, eax
	inc	eax
	ret	4
?CheckID@?$ConfigOption@H@@QAE_NPAD@Z ENDP		; ConfigOption<int>::CheckID
_TEXT	ENDS
PUBLIC	?CheckID@?$ConfigOption@D@@QAE_NPAD@Z		; ConfigOption<char>::CheckID
; Function compile flags: /Ogtpy
;	COMDAT ?CheckID@?$ConfigOption@D@@QAE_NPAD@Z
_TEXT	SEGMENT
_str$ = 8						; size = 4
?CheckID@?$ConfigOption@D@@QAE_NPAD@Z PROC NEAR		; ConfigOption<char>::CheckID, COMDAT
; _this$ = ecx

; 15   : 	bool CheckID(char *str) { return stricmp(&str[3], Name) == 0; }

	mov	eax, DWORD PTR [ecx]
	mov	ecx, DWORD PTR _str$[esp-4]
	push	eax
	add	ecx, 3
	push	ecx
	call	_stricmp
	add	esp, 8
	neg	eax
	sbb	eax, eax
	inc	eax
	ret	4
?CheckID@?$ConfigOption@D@@QAE_NPAD@Z ENDP		; ConfigOption<char>::CheckID
_TEXT	ENDS
PUBLIC	?CheckID@?$ConfigOption@M@@QAE_NPAD@Z		; ConfigOption<float>::CheckID
; Function compile flags: /Ogtpy
;	COMDAT ?CheckID@?$ConfigOption@M@@QAE_NPAD@Z
_TEXT	SEGMENT
_str$ = 8						; size = 4
?CheckID@?$ConfigOption@M@@QAE_NPAD@Z PROC NEAR		; ConfigOption<float>::CheckID, COMDAT
; _this$ = ecx

; 15   : 	bool CheckID(char *str) { return stricmp(&str[3], Name) == 0; }

	mov	eax, DWORD PTR [ecx]
	mov	ecx, DWORD PTR _str$[esp-4]
	push	eax
	add	ecx, 3
	push	ecx
	call	_stricmp
	add	esp, 8
	neg	eax
	sbb	eax, eax
	inc	eax
	ret	4
?CheckID@?$ConfigOption@M@@QAE_NPAD@Z ENDP		; ConfigOption<float>::CheckID
_TEXT	ENDS
PUBLIC	?ParseFalcon4Config@@YAXPAU_iobuf@@@Z		; ParseFalcon4Config
PUBLIC	??_C@_02CBLDBPFN@?1?1?$AA@			; `string'
PUBLIC	??_C@_0M@DNHMOHFM@set?5?$CFs?5?$CC?$CFs?$CC?$AA@ ; `string'
PUBLIC	??_C@_03BLLIKMOB@g_s?$AA@			; `string'
PUBLIC	??_C@_01BJJEKLCA@?$CC?$AA@			; `string'
PUBLIC	??_C@_09LEFICCIB@set?5?$CFs?5?$CFf?$AA@		; `string'
PUBLIC	??_C@_03CMANEKPF@g_f?$AA@			; `string'
PUBLIC	??_C@_09IGGOEAAD@set?5?$CFs?5?$CFd?$AA@		; `string'
PUBLIC	??_C@_03EIGBIPPB@g_b?$AA@			; `string'
PUBLIC	??_C@_03OENEMAPN@g_n?$AA@			; `string'
EXTRN	_strncpy:NEAR
EXTRN	_strstr:NEAR
EXTRN	_fgets:NEAR
EXTRN	_sscanf:NEAR
EXTRN	___security_cookie:DWORD
EXTRN	@__security_check_cookie@4:NEAR
EXTRN	__fltused:NEAR
;	COMDAT ??_C@_02CBLDBPFN@?1?1?$AA@
CONST	SEGMENT
??_C@_02CBLDBPFN@?1?1?$AA@ DB '//', 00H			; `string'
CONST	ENDS
;	COMDAT ??_C@_0M@DNHMOHFM@set?5?$CFs?5?$CC?$CFs?$CC?$AA@
CONST	SEGMENT
??_C@_0M@DNHMOHFM@set?5?$CFs?5?$CC?$CFs?$CC?$AA@ DB 'set %s "%s"', 00H ; `string'
CONST	ENDS
;	COMDAT ??_C@_03BLLIKMOB@g_s?$AA@
CONST	SEGMENT
??_C@_03BLLIKMOB@g_s?$AA@ DB 'g_s', 00H			; `string'
CONST	ENDS
;	COMDAT ??_C@_09LEFICCIB@set?5?$CFs?5?$CFf?$AA@
CONST	SEGMENT
??_C@_09LEFICCIB@set?5?$CFs?5?$CFf?$AA@ DB 'set %s %f', 00H ; `string'
CONST	ENDS
;	COMDAT ??_C@_03CMANEKPF@g_f?$AA@
CONST	SEGMENT
??_C@_03CMANEKPF@g_f?$AA@ DB 'g_f', 00H			; `string'
CONST	ENDS
;	COMDAT ??_C@_09IGGOEAAD@set?5?$CFs?5?$CFd?$AA@
CONST	SEGMENT
??_C@_09IGGOEAAD@set?5?$CFs?5?$CFd?$AA@ DB 'set %s %d', 00H ; `string'
CONST	ENDS
;	COMDAT ??_C@_03EIGBIPPB@g_b?$AA@
CONST	SEGMENT
??_C@_03EIGBIPPB@g_b?$AA@ DB 'g_b', 00H			; `string'
CONST	ENDS
;	COMDAT ??_C@_01BJJEKLCA@?$CC?$AA@
CONST	SEGMENT
??_C@_01BJJEKLCA@?$CC?$AA@ DB '"', 00H			; `string'
CONST	ENDS
;	COMDAT ??_C@_03OENEMAPN@g_n?$AA@
CONST	SEGMENT
??_C@_03OENEMAPN@g_n?$AA@ DB 'g_n', 00H			; `string'
; Function compile flags: /Ogtpy
CONST	ENDS
;	COMDAT ?ParseFalcon4Config@@YAXPAU_iobuf@@@Z
_TEXT	SEGMENT
_nIntVal$ = -780					; size = 4
_fFloatVal$ = -776					; size = 4
_strID$ = -772						; size = 256
_strLine$ = -516					; size = 256
_strVal$ = -260						; size = 256
__$ArrayPad$ = -4					; size = 4
__$ReturnAddr$ = 4					; size = 4
_file$ = 8						; size = 4
?ParseFalcon4Config@@YAXPAU_iobuf@@@Z PROC NEAR		; ParseFalcon4Config, COMDAT

; 1302 : {

	sub	esp, 780				; 0000030cH
	mov	eax, DWORD PTR ___security_cookie
	xor	eax, esp
	push	ebx
	mov	ebx, DWORD PTR _file$[esp+780]
	push	esi
	mov	DWORD PTR __$ArrayPad$[esp+788], eax
	push	edi
	npad	2
$NextLine$31070:

; 1303 : 	char strLine[0x100];
; 1304 : 	char strID[0x100];
; 1305 : 	int nIntVal;
; 1306 : 	float fFloatVal;
; 1307 : 	char strVal[0x100];
; 1308 : 	// float nFloatVal;
; 1309 : 
; 1310 : 	NextLine:
; 1311 : 	while(fgets(strLine, sizeof(strLine) / sizeof(strLine[0]), file))

	push	ebx
	lea	eax, DWORD PTR _strLine$[esp+796]
	push	256					; 00000100H
	push	eax
	call	_fgets
	add	esp, 12					; 0000000cH
	test	eax, eax
	je	$L31073

; 1312 : 	{
