; Listing generated by Microsoft (R) Optimizing Compiler Version 17.00.51106.1 

	TITLE	C:\Users\Zhitao Li\Documents\Visual Studio 2012\Projects\Freefalcon\SIM\OTWDRIVE\External.cpp
	.686P
	.XMM
	include listing.inc
	.model	flat

INCLUDELIB LIBCMT
INCLUDELIB OLDNAMES

PUBLIC	?digits@?$numeric_limits@N@std@@2HB		; std::numeric_limits<double>::digits
PUBLIC	?digits10@?$numeric_limits@N@std@@2HB		; std::numeric_limits<double>::digits10
PUBLIC	?max_digits10@?$numeric_limits@N@std@@2HB	; std::numeric_limits<double>::max_digits10
PUBLIC	?max_exponent@?$numeric_limits@N@std@@2HB	; std::numeric_limits<double>::max_exponent
PUBLIC	?max_exponent10@?$numeric_limits@N@std@@2HB	; std::numeric_limits<double>::max_exponent10
PUBLIC	?min_exponent@?$numeric_limits@N@std@@2HB	; std::numeric_limits<double>::min_exponent
PUBLIC	?min_exponent10@?$numeric_limits@N@std@@2HB	; std::numeric_limits<double>::min_exponent10
PUBLIC	?digits@?$numeric_limits@O@std@@2HB		; std::numeric_limits<long double>::digits
PUBLIC	?digits10@?$numeric_limits@O@std@@2HB		; std::numeric_limits<long double>::digits10
PUBLIC	?max_digits10@?$numeric_limits@O@std@@2HB	; std::numeric_limits<long double>::max_digits10
PUBLIC	?max_exponent@?$numeric_limits@O@std@@2HB	; std::numeric_limits<long double>::max_exponent
PUBLIC	?max_exponent10@?$numeric_limits@O@std@@2HB	; std::numeric_limits<long double>::max_exponent10
PUBLIC	?min_exponent@?$numeric_limits@O@std@@2HB	; std::numeric_limits<long double>::min_exponent
PUBLIC	?min_exponent10@?$numeric_limits@O@std@@2HB	; std::numeric_limits<long double>::min_exponent10
PUBLIC	?value@?$_Sizeof@U_Nil@std@@U12@U12@U12@U12@U12@U12@U12@@std@@2IB ; std::_Sizeof<std::_Nil,std::_Nil,std::_Nil,std::_Nil,std::_Nil,std::_Nil,std::_Nil,std::_Nil>::value
PUBLIC	?skipws@?$_Iosb@H@std@@2W4_Fmtflags@12@B	; std::_Iosb<int>::skipws
PUBLIC	?unitbuf@?$_Iosb@H@std@@2W4_Fmtflags@12@B	; std::_Iosb<int>::unitbuf
PUBLIC	?uppercase@?$_Iosb@H@std@@2W4_Fmtflags@12@B	; std::_Iosb<int>::uppercase
PUBLIC	?showbase@?$_Iosb@H@std@@2W4_Fmtflags@12@B	; std::_Iosb<int>::showbase
PUBLIC	?showpoint@?$_Iosb@H@std@@2W4_Fmtflags@12@B	; std::_Iosb<int>::showpoint
PUBLIC	?showpos@?$_Iosb@H@std@@2W4_Fmtflags@12@B	; std::_Iosb<int>::showpos
PUBLIC	?left@?$_Iosb@H@std@@2W4_Fmtflags@12@B		; std::_Iosb<int>::left
PUBLIC	?right@?$_Iosb@H@std@@2W4_Fmtflags@12@B		; std::_Iosb<int>::right
PUBLIC	?internal@?$_Iosb@H@std@@2W4_Fmtflags@12@B	; std::_Iosb<int>::internal
PUBLIC	?dec@?$_Iosb@H@std@@2W4_Fmtflags@12@B		; std::_Iosb<int>::dec
PUBLIC	?oct@?$_Iosb@H@std@@2W4_Fmtflags@12@B		; std::_Iosb<int>::oct
PUBLIC	?hex@?$_Iosb@H@std@@2W4_Fmtflags@12@B		; std::_Iosb<int>::hex
PUBLIC	?scientific@?$_Iosb@H@std@@2W4_Fmtflags@12@B	; std::_Iosb<int>::scientific
PUBLIC	?fixed@?$_Iosb@H@std@@2W4_Fmtflags@12@B		; std::_Iosb<int>::fixed
PUBLIC	?hexfloat@?$_Iosb@H@std@@2W4_Fmtflags@12@B	; std::_Iosb<int>::hexfloat
PUBLIC	?boolalpha@?$_Iosb@H@std@@2W4_Fmtflags@12@B	; std::_Iosb<int>::boolalpha
PUBLIC	?_Stdio@?$_Iosb@H@std@@2W4_Fmtflags@12@B	; std::_Iosb<int>::_Stdio
PUBLIC	?adjustfield@?$_Iosb@H@std@@2W4_Fmtflags@12@B	; std::_Iosb<int>::adjustfield
PUBLIC	?basefield@?$_Iosb@H@std@@2W4_Fmtflags@12@B	; std::_Iosb<int>::basefield
PUBLIC	?floatfield@?$_Iosb@H@std@@2W4_Fmtflags@12@B	; std::_Iosb<int>::floatfield
PUBLIC	?goodbit@?$_Iosb@H@std@@2W4_Iostate@12@B	; std::_Iosb<int>::goodbit
PUBLIC	?eofbit@?$_Iosb@H@std@@2W4_Iostate@12@B		; std::_Iosb<int>::eofbit
PUBLIC	?failbit@?$_Iosb@H@std@@2W4_Iostate@12@B	; std::_Iosb<int>::failbit
PUBLIC	?has_denorm@_Num_base@std@@2W4float_denorm_style@2@B ; std::_Num_base::has_denorm
PUBLIC	?badbit@?$_Iosb@H@std@@2W4_Iostate@12@B		; std::_Iosb<int>::badbit
PUBLIC	?has_denorm_loss@_Num_base@std@@2_NB		; std::_Num_base::has_denorm_loss
PUBLIC	?_Hardfail@?$_Iosb@H@std@@2W4_Iostate@12@B	; std::_Iosb<int>::_Hardfail
PUBLIC	?has_infinity@_Num_base@std@@2_NB		; std::_Num_base::has_infinity
PUBLIC	?has_quiet_NaN@_Num_base@std@@2_NB		; std::_Num_base::has_quiet_NaN
PUBLIC	?in@?$_Iosb@H@std@@2W4_Openmode@12@B		; std::_Iosb<int>::in
PUBLIC	?out@?$_Iosb@H@std@@2W4_Openmode@12@B		; std::_Iosb<int>::out
PUBLIC	?has_signaling_NaN@_Num_base@std@@2_NB		; std::_Num_base::has_signaling_NaN
PUBLIC	?ate@?$_Iosb@H@std@@2W4_Openmode@12@B		; std::_Iosb<int>::ate
PUBLIC	?is_bounded@_Num_base@std@@2_NB			; std::_Num_base::is_bounded
PUBLIC	?is_exact@_Num_base@std@@2_NB			; std::_Num_base::is_exact
PUBLIC	?app@?$_Iosb@H@std@@2W4_Openmode@12@B		; std::_Iosb<int>::app
PUBLIC	?is_iec559@_Num_base@std@@2_NB			; std::_Num_base::is_iec559
PUBLIC	?trunc@?$_Iosb@H@std@@2W4_Openmode@12@B		; std::_Iosb<int>::trunc
PUBLIC	?_Nocreate@?$_Iosb@H@std@@2W4_Openmode@12@B	; std::_Iosb<int>::_Nocreate
PUBLIC	?is_integer@_Num_base@std@@2_NB			; std::_Num_base::is_integer
PUBLIC	?_Noreplace@?$_Iosb@H@std@@2W4_Openmode@12@B	; std::_Iosb<int>::_Noreplace
PUBLIC	?is_modulo@_Num_base@std@@2_NB			; std::_Num_base::is_modulo
PUBLIC	?is_signed@_Num_base@std@@2_NB			; std::_Num_base::is_signed
PUBLIC	?binary@?$_Iosb@H@std@@2W4_Openmode@12@B	; std::_Iosb<int>::binary
PUBLIC	?is_specialized@_Num_base@std@@2_NB		; std::_Num_base::is_specialized
PUBLIC	?beg@?$_Iosb@H@std@@2W4_Seekdir@12@B		; std::_Iosb<int>::beg
PUBLIC	?tinyness_before@_Num_base@std@@2_NB		; std::_Num_base::tinyness_before
PUBLIC	?cur@?$_Iosb@H@std@@2W4_Seekdir@12@B		; std::_Iosb<int>::cur
PUBLIC	?traps@_Num_base@std@@2_NB			; std::_Num_base::traps
PUBLIC	?end@?$_Iosb@H@std@@2W4_Seekdir@12@B		; std::_Iosb<int>::end
PUBLIC	?round_style@_Num_base@std@@2W4float_round_style@2@B ; std::_Num_base::round_style
PUBLIC	?digits@_Num_base@std@@2HB			; std::_Num_base::digits
PUBLIC	?digits10@_Num_base@std@@2HB			; std::_Num_base::digits10
PUBLIC	?max_digits10@_Num_base@std@@2HB		; std::_Num_base::max_digits10
PUBLIC	?max_exponent@_Num_base@std@@2HB		; std::_Num_base::max_exponent
PUBLIC	?max_exponent10@_Num_base@std@@2HB		; std::_Num_base::max_exponent10
PUBLIC	?min_exponent@_Num_base@std@@2HB		; std::_Num_base::min_exponent
PUBLIC	?min_exponent10@_Num_base@std@@2HB		; std::_Num_base::min_exponent10
PUBLIC	?radix@_Num_base@std@@2HB			; std::_Num_base::radix
PUBLIC	?_Stream_err@failure@ios_base@std@@0W4io_errc@43@B ; std::ios_base::failure::_Stream_err
PUBLIC	?is_bounded@_Num_int_base@std@@2_NB		; std::_Num_int_base::is_bounded
PUBLIC	?is_exact@_Num_int_base@std@@2_NB		; std::_Num_int_base::is_exact
PUBLIC	?is_integer@_Num_int_base@std@@2_NB		; std::_Num_int_base::is_integer
PUBLIC	?is_modulo@_Num_int_base@std@@2_NB		; std::_Num_int_base::is_modulo
PUBLIC	?is_specialized@_Num_int_base@std@@2_NB		; std::_Num_int_base::is_specialized
PUBLIC	?radix@_Num_int_base@std@@2HB			; std::_Num_int_base::radix
PUBLIC	?has_denorm@_Num_float_base@std@@2W4float_denorm_style@2@B ; std::_Num_float_base::has_denorm
PUBLIC	?has_denorm_loss@_Num_float_base@std@@2_NB	; std::_Num_float_base::has_denorm_loss
PUBLIC	?has_infinity@_Num_float_base@std@@2_NB		; std::_Num_float_base::has_infinity
PUBLIC	?has_quiet_NaN@_Num_float_base@std@@2_NB	; std::_Num_float_base::has_quiet_NaN
PUBLIC	?has_signaling_NaN@_Num_float_base@std@@2_NB	; std::_Num_float_base::has_signaling_NaN
PUBLIC	?is_bounded@_Num_float_base@std@@2_NB		; std::_Num_float_base::is_bounded
PUBLIC	?is_exact@_Num_float_base@std@@2_NB		; std::_Num_float_base::is_exact
PUBLIC	?is_iec559@_Num_float_base@std@@2_NB		; std::_Num_float_base::is_iec559
PUBLIC	?is_integer@_Num_float_base@std@@2_NB		; std::_Num_float_base::is_integer
PUBLIC	?is_modulo@_Num_float_base@std@@2_NB		; std::_Num_float_base::is_modulo
PUBLIC	?is_signed@_Num_float_base@std@@2_NB		; std::_Num_float_base::is_signed
PUBLIC	?is_specialized@_Num_float_base@std@@2_NB	; std::_Num_float_base::is_specialized
PUBLIC	?tinyness_before@_Num_float_base@std@@2_NB	; std::_Num_float_base::tinyness_before
PUBLIC	?traps@_Num_float_base@std@@2_NB		; std::_Num_float_base::traps
PUBLIC	?round_style@_Num_float_base@std@@2W4float_round_style@2@B ; std::_Num_float_base::round_style
PUBLIC	?radix@_Num_float_base@std@@2HB			; std::_Num_float_base::radix
PUBLIC	?is_signed@?$numeric_limits@D@std@@2_NB		; std::numeric_limits<char>::is_signed
PUBLIC	?digits@?$numeric_limits@D@std@@2HB		; std::numeric_limits<char>::digits
PUBLIC	?digits10@?$numeric_limits@D@std@@2HB		; std::numeric_limits<char>::digits10
PUBLIC	?value@?$integral_constant@_N$0A@@std@@2_NB	; std::integral_constant<bool,0>::value
PUBLIC	?is_signed@?$numeric_limits@_W@std@@2_NB	; std::numeric_limits<wchar_t>::is_signed
PUBLIC	?digits@?$numeric_limits@_W@std@@2HB		; std::numeric_limits<wchar_t>::digits
PUBLIC	?digits10@?$numeric_limits@_W@std@@2HB		; std::numeric_limits<wchar_t>::digits10
PUBLIC	?value@?$integral_constant@_N$00@std@@2_NB	; std::integral_constant<bool,1>::value
PUBLIC	?is_modulo@?$numeric_limits@_N@std@@2_NB	; std::numeric_limits<bool>::is_modulo
PUBLIC	?is_signed@?$numeric_limits@_N@std@@2_NB	; std::numeric_limits<bool>::is_signed
PUBLIC	?digits@?$numeric_limits@_N@std@@2HB		; std::numeric_limits<bool>::digits
PUBLIC	?digits10@?$numeric_limits@_N@std@@2HB		; std::numeric_limits<bool>::digits10
PUBLIC	?is_signed@?$numeric_limits@C@std@@2_NB		; std::numeric_limits<signed char>::is_signed
PUBLIC	?digits@?$numeric_limits@C@std@@2HB		; std::numeric_limits<signed char>::digits
PUBLIC	?digits10@?$numeric_limits@C@std@@2HB		; std::numeric_limits<signed char>::digits10
PUBLIC	?is_signed@?$numeric_limits@E@std@@2_NB		; std::numeric_limits<unsigned char>::is_signed
PUBLIC	?digits@?$numeric_limits@E@std@@2HB		; std::numeric_limits<unsigned char>::digits
PUBLIC	?digits10@?$numeric_limits@E@std@@2HB		; std::numeric_limits<unsigned char>::digits10
PUBLIC	?collate@?$_Locbase@H@std@@2HB			; std::_Locbase<int>::collate
PUBLIC	?ctype@?$_Locbase@H@std@@2HB			; std::_Locbase<int>::ctype
PUBLIC	?monetary@?$_Locbase@H@std@@2HB			; std::_Locbase<int>::monetary
PUBLIC	?numeric@?$_Locbase@H@std@@2HB			; std::_Locbase<int>::numeric
PUBLIC	?time@?$_Locbase@H@std@@2HB			; std::_Locbase<int>::time
PUBLIC	?messages@?$_Locbase@H@std@@2HB			; std::_Locbase<int>::messages
PUBLIC	?all@?$_Locbase@H@std@@2HB			; std::_Locbase<int>::all
PUBLIC	?is_signed@?$numeric_limits@F@std@@2_NB		; std::numeric_limits<short>::is_signed
PUBLIC	?SIMDIRTYDATA_INTERVAL@FalconEntity@@2KB	; FalconEntity::SIMDIRTYDATA_INTERVAL
PUBLIC	?none@?$_Locbase@H@std@@2HB			; std::_Locbase<int>::none
PUBLIC	?CMPDIRTYDATA_INTERVAL@FalconEntity@@2KB	; FalconEntity::CMPDIRTYDATA_INTERVAL
PUBLIC	?digits@?$numeric_limits@F@std@@2HB		; std::numeric_limits<short>::digits
PUBLIC	?digits10@?$numeric_limits@F@std@@2HB		; std::numeric_limits<short>::digits10
PUBLIC	?is_signed@?$numeric_limits@G@std@@2_NB		; std::numeric_limits<unsigned short>::is_signed
PUBLIC	?digits@?$numeric_limits@G@std@@2HB		; std::numeric_limits<unsigned short>::digits
PUBLIC	?digits10@?$numeric_limits@G@std@@2HB		; std::numeric_limits<unsigned short>::digits10
PUBLIC	?is_signed@?$numeric_limits@H@std@@2_NB		; std::numeric_limits<int>::is_signed
PUBLIC	?value@?$_Sizeof@HU_Nil@std@@U12@U12@U12@U12@U12@U12@@std@@2IB ; std::_Sizeof<int,std::_Nil,std::_Nil,std::_Nil,std::_Nil,std::_Nil,std::_Nil,std::_Nil>::value
PUBLIC	?digits@?$numeric_limits@H@std@@2HB		; std::numeric_limits<int>::digits
PUBLIC	?digits10@?$numeric_limits@H@std@@2HB		; std::numeric_limits<int>::digits10
PUBLIC	?table_size@?$ctype@D@std@@2IB			; std::ctype<char>::table_size
PUBLIC	?is_signed@?$numeric_limits@I@std@@2_NB		; std::numeric_limits<unsigned int>::is_signed
PUBLIC	?digits@?$numeric_limits@I@std@@2HB		; std::numeric_limits<unsigned int>::digits
PUBLIC	?digits10@?$numeric_limits@I@std@@2HB		; std::numeric_limits<unsigned int>::digits10
PUBLIC	?is_signed@?$numeric_limits@J@std@@2_NB		; std::numeric_limits<long>::is_signed
PUBLIC	?digits@?$numeric_limits@J@std@@2HB		; std::numeric_limits<long>::digits
PUBLIC	?digits10@?$numeric_limits@J@std@@2HB		; std::numeric_limits<long>::digits10
PUBLIC	?is_signed@?$numeric_limits@K@std@@2_NB		; std::numeric_limits<unsigned long>::is_signed
PUBLIC	?digits@?$numeric_limits@K@std@@2HB		; std::numeric_limits<unsigned long>::digits
PUBLIC	?digits10@?$numeric_limits@K@std@@2HB		; std::numeric_limits<unsigned long>::digits10
PUBLIC	?is_signed@?$numeric_limits@_J@std@@2_NB	; std::numeric_limits<__int64>::is_signed
PUBLIC	?digits@?$numeric_limits@_J@std@@2HB		; std::numeric_limits<__int64>::digits
PUBLIC	?digits10@?$numeric_limits@_J@std@@2HB		; std::numeric_limits<__int64>::digits10
PUBLIC	?is_signed@?$numeric_limits@_K@std@@2_NB	; std::numeric_limits<unsigned __int64>::is_signed
PUBLIC	?digits@?$numeric_limits@_K@std@@2HB		; std::numeric_limits<unsigned __int64>::digits
PUBLIC	?digits10@?$numeric_limits@_K@std@@2HB		; std::numeric_limits<unsigned __int64>::digits10
PUBLIC	?digits@?$numeric_limits@M@std@@2HB		; std::numeric_limits<float>::digits
PUBLIC	?digits10@?$numeric_limits@M@std@@2HB		; std::numeric_limits<float>::digits10
PUBLIC	?max_digits10@?$numeric_limits@M@std@@2HB	; std::numeric_limits<float>::max_digits10
PUBLIC	?max_exponent@?$numeric_limits@M@std@@2HB	; std::numeric_limits<float>::max_exponent
PUBLIC	?max_exponent10@?$numeric_limits@M@std@@2HB	; std::numeric_limits<float>::max_exponent10
PUBLIC	?min_exponent@?$numeric_limits@M@std@@2HB	; std::numeric_limits<float>::min_exponent
PUBLIC	?min_exponent10@?$numeric_limits@M@std@@2HB	; std::numeric_limits<float>::min_exponent10
PUBLIC	?value@?$integral_constant@I$0A@@std@@2IB	; std::integral_constant<unsigned int,0>::value
;	COMDAT ?value@?$integral_constant@I$0A@@std@@2IB
CONST	SEGMENT
?value@?$integral_constant@I$0A@@std@@2IB DD 00H	; std::integral_constant<unsigned int,0>::value
CONST	ENDS
;	COMDAT ?min_exponent10@?$numeric_limits@M@std@@2HB
CONST	SEGMENT
?min_exponent10@?$numeric_limits@M@std@@2HB DD 0ffffffdbH ; std::numeric_limits<float>::min_exponent10
CONST	ENDS
;	COMDAT ?min_exponent@?$numeric_limits@M@std@@2HB
CONST	SEGMENT
?min_exponent@?$numeric_limits@M@std@@2HB DD 0ffffff83H	; std::numeric_limits<float>::min_exponent
CONST	ENDS
;	COMDAT ?max_exponent10@?$numeric_limits@M@std@@2HB
CONST	SEGMENT
?max_exponent10@?$numeric_limits@M@std@@2HB DD 026H	; std::numeric_limits<float>::max_exponent10
CONST	ENDS
;	COMDAT ?max_exponent@?$numeric_limits@M@std@@2HB
CONST	SEGMENT
?max_exponent@?$numeric_limits@M@std@@2HB DD 080H	; std::numeric_limits<float>::max_exponent
CONST	ENDS
;	COMDAT ?max_digits10@?$numeric_limits@M@std@@2HB
CONST	SEGMENT
?max_digits10@?$numeric_limits@M@std@@2HB DD 09H	; std::numeric_limits<float>::max_digits10
CONST	ENDS
;	COMDAT ?digits10@?$numeric_limits@M@std@@2HB
CONST	SEGMENT
?digits10@?$numeric_limits@M@std@@2HB DD 06H		; std::numeric_limits<float>::digits10
CONST	ENDS
;	COMDAT ?digits@?$numeric_limits@M@std@@2HB
CONST	SEGMENT
?digits@?$numeric_limits@M@std@@2HB DD 018H		; std::numeric_limits<float>::digits
CONST	ENDS
;	COMDAT ?digits10@?$numeric_limits@_K@std@@2HB
CONST	SEGMENT
?digits10@?$numeric_limits@_K@std@@2HB DD 013H		; std::numeric_limits<unsigned __int64>::digits10
CONST	ENDS
;	COMDAT ?digits@?$numeric_limits@_K@std@@2HB
CONST	SEGMENT
?digits@?$numeric_limits@_K@std@@2HB DD 040H		; std::numeric_limits<unsigned __int64>::digits
CONST	ENDS
;	COMDAT ?is_signed@?$numeric_limits@_K@std@@2_NB
CONST	SEGMENT
?is_signed@?$numeric_limits@_K@std@@2_NB DB 00H		; std::numeric_limits<unsigned __int64>::is_signed
CONST	ENDS
;	COMDAT ?digits10@?$numeric_limits@_J@std@@2HB
CONST	SEGMENT
?digits10@?$numeric_limits@_J@std@@2HB DD 012H		; std::numeric_limits<__int64>::digits10
CONST	ENDS
;	COMDAT ?digits@?$numeric_limits@_J@std@@2HB
CONST	SEGMENT
?digits@?$numeric_limits@_J@std@@2HB DD 03fH		; std::numeric_limits<__int64>::digits
CONST	ENDS
;	COMDAT ?is_signed@?$numeric_limits@_J@std@@2_NB
CONST	SEGMENT
?is_signed@?$numeric_limits@_J@std@@2_NB DB 01H		; std::numeric_limits<__int64>::is_signed
CONST	ENDS
;	COMDAT ?digits10@?$numeric_limits@K@std@@2HB
CONST	SEGMENT
?digits10@?$numeric_limits@K@std@@2HB DD 09H		; std::numeric_limits<unsigned long>::digits10
CONST	ENDS
;	COMDAT ?digits@?$numeric_limits@K@std@@2HB
CONST	SEGMENT
?digits@?$numeric_limits@K@std@@2HB DD 020H		; std::numeric_limits<unsigned long>::digits
CONST	ENDS
;	COMDAT ?is_signed@?$numeric_limits@K@std@@2_NB
CONST	SEGMENT
?is_signed@?$numeric_limits@K@std@@2_NB DB 00H		; std::numeric_limits<unsigned long>::is_signed
CONST	ENDS
;	COMDAT ?digits10@?$numeric_limits@J@std@@2HB
CONST	SEGMENT
?digits10@?$numeric_limits@J@std@@2HB DD 09H		; std::numeric_limits<long>::digits10
CONST	ENDS
;	COMDAT ?digits@?$numeric_limits@J@std@@2HB
CONST	SEGMENT
?digits@?$numeric_limits@J@std@@2HB DD 01fH		; std::numeric_limits<long>::digits
CONST	ENDS
;	COMDAT ?is_signed@?$numeric_limits@J@std@@2_NB
CONST	SEGMENT
?is_signed@?$numeric_limits@J@std@@2_NB DB 01H		; std::numeric_limits<long>::is_signed
CONST	ENDS
;	COMDAT ?digits10@?$numeric_limits@I@std@@2HB
CONST	SEGMENT
?digits10@?$numeric_limits@I@std@@2HB DD 09H		; std::numeric_limits<unsigned int>::digits10
CONST	ENDS
;	COMDAT ?digits@?$numeric_limits@I@std@@2HB
CONST	SEGMENT
?digits@?$numeric_limits@I@std@@2HB DD 020H		; std::numeric_limits<unsigned int>::digits
CONST	ENDS
;	COMDAT ?is_signed@?$numeric_limits@I@std@@2_NB
CONST	SEGMENT
?is_signed@?$numeric_limits@I@std@@2_NB DB 00H		; std::numeric_limits<unsigned int>::is_signed
CONST	ENDS
;	COMDAT ?table_size@?$ctype@D@std@@2IB
CONST	SEGMENT
?table_size@?$ctype@D@std@@2IB DD 0100H			; std::ctype<char>::table_size
CONST	ENDS
;	COMDAT ?digits10@?$numeric_limits@H@std@@2HB
CONST	SEGMENT
?digits10@?$numeric_limits@H@std@@2HB DD 09H		; std::numeric_limits<int>::digits10
CONST	ENDS
;	COMDAT ?digits@?$numeric_limits@H@std@@2HB
CONST	SEGMENT
?digits@?$numeric_limits@H@std@@2HB DD 01fH		; std::numeric_limits<int>::digits
CONST	ENDS
;	COMDAT ?value@?$_Sizeof@HU_Nil@std@@U12@U12@U12@U12@U12@U12@@std@@2IB
CONST	SEGMENT
?value@?$_Sizeof@HU_Nil@std@@U12@U12@U12@U12@U12@U12@@std@@2IB DD 01H ; std::_Sizeof<int,std::_Nil,std::_Nil,std::_Nil,std::_Nil,std::_Nil,std::_Nil,std::_Nil>::value
CONST	ENDS
;	COMDAT ?is_signed@?$numeric_limits@H@std@@2_NB
CONST	SEGMENT
?is_signed@?$numeric_limits@H@std@@2_NB DB 01H		; std::numeric_limits<int>::is_signed
CONST	ENDS
;	COMDAT ?digits10@?$numeric_limits@G@std@@2HB
CONST	SEGMENT
?digits10@?$numeric_limits@G@std@@2HB DD 04H		; std::numeric_limits<unsigned short>::digits10
CONST	ENDS
;	COMDAT ?digits@?$numeric_limits@G@std@@2HB
CONST	SEGMENT
?digits@?$numeric_limits@G@std@@2HB DD 010H		; std::numeric_limits<unsigned short>::digits
CONST	ENDS
;	COMDAT ?is_signed@?$numeric_limits@G@std@@2_NB
CONST	SEGMENT
?is_signed@?$numeric_limits@G@std@@2_NB DB 00H		; std::numeric_limits<unsigned short>::is_signed
CONST	ENDS
;	COMDAT ?digits10@?$numeric_limits@F@std@@2HB
CONST	SEGMENT
?digits10@?$numeric_limits@F@std@@2HB DD 04H		; std::numeric_limits<short>::digits10
CONST	ENDS
;	COMDAT ?digits@?$numeric_limits@F@std@@2HB
CONST	SEGMENT
?digits@?$numeric_limits@F@std@@2HB DD 0fH		; std::numeric_limits<short>::digits
CONST	ENDS
;	COMDAT ?CMPDIRTYDATA_INTERVAL@FalconEntity@@2KB
CONST	SEGMENT
?CMPDIRTYDATA_INTERVAL@FalconEntity@@2KB DD 0c8H	; FalconEntity::CMPDIRTYDATA_INTERVAL
CONST	ENDS
;	COMDAT ?none@?$_Locbase@H@std@@2HB
CONST	SEGMENT
?none@?$_Locbase@H@std@@2HB DD 00H			; std::_Locbase<int>::none
CONST	ENDS
;	COMDAT ?SIMDIRTYDATA_INTERVAL@FalconEntity@@2KB
CONST	SEGMENT
?SIMDIRTYDATA_INTERVAL@FalconEntity@@2KB DD 0c8H	; FalconEntity::SIMDIRTYDATA_INTERVAL
CONST	ENDS
;	COMDAT ?is_signed@?$numeric_limits@F@std@@2_NB
CONST	SEGMENT
?is_signed@?$numeric_limits@F@std@@2_NB DB 01H		; std::numeric_limits<short>::is_signed
CONST	ENDS
;	COMDAT ?all@?$_Locbase@H@std@@2HB
CONST	SEGMENT
?all@?$_Locbase@H@std@@2HB DD 03fH			; std::_Locbase<int>::all
CONST	ENDS
;	COMDAT ?messages@?$_Locbase@H@std@@2HB
CONST	SEGMENT
?messages@?$_Locbase@H@std@@2HB DD 020H			; std::_Locbase<int>::messages
CONST	ENDS
;	COMDAT ?time@?$_Locbase@H@std@@2HB
CONST	SEGMENT
?time@?$_Locbase@H@std@@2HB DD 010H			; std::_Locbase<int>::time
CONST	ENDS
;	COMDAT ?numeric@?$_Locbase@H@std@@2HB
CONST	SEGMENT
?numeric@?$_Locbase@H@std@@2HB DD 08H			; std::_Locbase<int>::numeric
CONST	ENDS
;	COMDAT ?monetary@?$_Locbase@H@std@@2HB
CONST	SEGMENT
?monetary@?$_Locbase@H@std@@2HB DD 04H			; std::_Locbase<int>::monetary
CONST	ENDS
;	COMDAT ?ctype@?$_Locbase@H@std@@2HB
CONST	SEGMENT
?ctype@?$_Locbase@H@std@@2HB DD 02H			; std::_Locbase<int>::ctype
CONST	ENDS
;	COMDAT ?collate@?$_Locbase@H@std@@2HB
CONST	SEGMENT
?collate@?$_Locbase@H@std@@2HB DD 01H			; std::_Locbase<int>::collate
CONST	ENDS
;	COMDAT ?digits10@?$numeric_limits@E@std@@2HB
CONST	SEGMENT
?digits10@?$numeric_limits@E@std@@2HB DD 02H		; std::numeric_limits<unsigned char>::digits10
CONST	ENDS
;	COMDAT ?digits@?$numeric_limits@E@std@@2HB
CONST	SEGMENT
?digits@?$numeric_limits@E@std@@2HB DD 08H		; std::numeric_limits<unsigned char>::digits
CONST	ENDS
;	COMDAT ?is_signed@?$numeric_limits@E@std@@2_NB
CONST	SEGMENT
?is_signed@?$numeric_limits@E@std@@2_NB DB 00H		; std::numeric_limits<unsigned char>::is_signed
CONST	ENDS
;	COMDAT ?digits10@?$numeric_limits@C@std@@2HB
CONST	SEGMENT
?digits10@?$numeric_limits@C@std@@2HB DD 02H		; std::numeric_limits<signed char>::digits10
CONST	ENDS
;	COMDAT ?digits@?$numeric_limits@C@std@@2HB
CONST	SEGMENT
?digits@?$numeric_limits@C@std@@2HB DD 07H		; std::numeric_limits<signed char>::digits
CONST	ENDS
;	COMDAT ?is_signed@?$numeric_limits@C@std@@2_NB
CONST	SEGMENT
?is_signed@?$numeric_limits@C@std@@2_NB DB 01H		; std::numeric_limits<signed char>::is_signed
CONST	ENDS
;	COMDAT ?digits10@?$numeric_limits@_N@std@@2HB
CONST	SEGMENT
?digits10@?$numeric_limits@_N@std@@2HB DD 00H		; std::numeric_limits<bool>::digits10
CONST	ENDS
;	COMDAT ?digits@?$numeric_limits@_N@std@@2HB
CONST	SEGMENT
?digits@?$numeric_limits@_N@std@@2HB DD 01H		; std::numeric_limits<bool>::digits
CONST	ENDS
;	COMDAT ?is_signed@?$numeric_limits@_N@std@@2_NB
CONST	SEGMENT
?is_signed@?$numeric_limits@_N@std@@2_NB DB 00H		; std::numeric_limits<bool>::is_signed
CONST	ENDS
;	COMDAT ?is_modulo@?$numeric_limits@_N@std@@2_NB
CONST	SEGMENT
?is_modulo@?$numeric_limits@_N@std@@2_NB DB 00H		; std::numeric_limits<bool>::is_modulo
CONST	ENDS
;	COMDAT ?value@?$integral_constant@_N$00@std@@2_NB
CONST	SEGMENT
?value@?$integral_constant@_N$00@std@@2_NB DB 01H	; std::integral_constant<bool,1>::value
CONST	ENDS
;	COMDAT ?digits10@?$numeric_limits@_W@std@@2HB
CONST	SEGMENT
?digits10@?$numeric_limits@_W@std@@2HB DD 04H		; std::numeric_limits<wchar_t>::digits10
CONST	ENDS
;	COMDAT ?digits@?$numeric_limits@_W@std@@2HB
CONST	SEGMENT
?digits@?$numeric_limits@_W@std@@2HB DD 010H		; std::numeric_limits<wchar_t>::digits
CONST	ENDS
;	COMDAT ?is_signed@?$numeric_limits@_W@std@@2_NB
CONST	SEGMENT
?is_signed@?$numeric_limits@_W@std@@2_NB DB 00H		; std::numeric_limits<wchar_t>::is_signed
CONST	ENDS
;	COMDAT ?value@?$integral_constant@_N$0A@@std@@2_NB
CONST	SEGMENT
?value@?$integral_constant@_N$0A@@std@@2_NB DB 00H	; std::integral_constant<bool,0>::value
CONST	ENDS
;	COMDAT ?digits10@?$numeric_limits@D@std@@2HB
CONST	SEGMENT
?digits10@?$numeric_limits@D@std@@2HB DD 02H		; std::numeric_limits<char>::digits10
CONST	ENDS
;	COMDAT ?digits@?$numeric_limits@D@std@@2HB
CONST	SEGMENT
?digits@?$numeric_limits@D@std@@2HB DD 07H		; std::numeric_limits<char>::digits
CONST	ENDS
;	COMDAT ?is_signed@?$numeric_limits@D@std@@2_NB
CONST	SEGMENT
?is_signed@?$numeric_limits@D@std@@2_NB DB 01H		; std::numeric_limits<char>::is_signed
CONST	ENDS
;	COMDAT ?radix@_Num_float_base@std@@2HB
CONST	SEGMENT
?radix@_Num_float_base@std@@2HB DD 02H			; std::_Num_float_base::radix
CONST	ENDS
;	COMDAT ?round_style@_Num_float_base@std@@2W4float_round_style@2@B
CONST	SEGMENT
?round_style@_Num_float_base@std@@2W4float_round_style@2@B DD 01H ; std::_Num_float_base::round_style
CONST	ENDS
;	COMDAT ?traps@_Num_float_base@std@@2_NB
CONST	SEGMENT
?traps@_Num_float_base@std@@2_NB DB 00H			; std::_Num_float_base::traps
CONST	ENDS
;	COMDAT ?tinyness_before@_Num_float_base@std@@2_NB
CONST	SEGMENT
?tinyness_before@_Num_float_base@std@@2_NB DB 01H	; std::_Num_float_base::tinyness_before
CONST	ENDS
;	COMDAT ?is_specialized@_Num_float_base@std@@2_NB
CONST	SEGMENT
?is_specialized@_Num_float_base@std@@2_NB DB 01H	; std::_Num_float_base::is_specialized
CONST	ENDS
;	COMDAT ?is_signed@_Num_float_base@std@@2_NB
CONST	SEGMENT
?is_signed@_Num_float_base@std@@2_NB DB 01H		; std::_Num_float_base::is_signed
CONST	ENDS
;	COMDAT ?is_modulo@_Num_float_base@std@@2_NB
CONST	SEGMENT
?is_modulo@_Num_float_base@std@@2_NB DB 00H		; std::_Num_float_base::is_modulo
CONST	ENDS
;	COMDAT ?is_integer@_Num_float_base@std@@2_NB
CONST	SEGMENT
?is_integer@_Num_float_base@std@@2_NB DB 00H		; std::_Num_float_base::is_integer
CONST	ENDS
;	COMDAT ?is_iec559@_Num_float_base@std@@2_NB
CONST	SEGMENT
?is_iec559@_Num_float_base@std@@2_NB DB 01H		; std::_Num_float_base::is_iec559
CONST	ENDS
;	COMDAT ?is_exact@_Num_float_base@std@@2_NB
CONST	SEGMENT
?is_exact@_Num_float_base@std@@2_NB DB 00H		; std::_Num_float_base::is_exact
CONST	ENDS
;	COMDAT ?is_bounded@_Num_float_base@std@@2_NB
CONST	SEGMENT
?is_bounded@_Num_float_base@std@@2_NB DB 01H		; std::_Num_float_base::is_bounded
CONST	ENDS
;	COMDAT ?has_signaling_NaN@_Num_float_base@std@@2_NB
CONST	SEGMENT
?has_signaling_NaN@_Num_float_base@std@@2_NB DB 01H	; std::_Num_float_base::has_signaling_NaN
CONST	ENDS
;	COMDAT ?has_quiet_NaN@_Num_float_base@std@@2_NB
CONST	SEGMENT
?has_quiet_NaN@_Num_float_base@std@@2_NB DB 01H		; std::_Num_float_base::has_quiet_NaN
CONST	ENDS
;	COMDAT ?has_infinity@_Num_float_base@std@@2_NB
CONST	SEGMENT
?has_infinity@_Num_float_base@std@@2_NB DB 01H		; std::_Num_float_base::has_infinity
CONST	ENDS
;	COMDAT ?has_denorm_loss@_Num_float_base@std@@2_NB
CONST	SEGMENT
?has_denorm_loss@_Num_float_base@std@@2_NB DB 01H	; std::_Num_float_base::has_denorm_loss
CONST	ENDS
;	COMDAT ?has_denorm@_Num_float_base@std@@2W4float_denorm_style@2@B
CONST	SEGMENT
?has_denorm@_Num_float_base@std@@2W4float_denorm_style@2@B DD 01H ; std::_Num_float_base::has_denorm
CONST	ENDS
;	COMDAT ?radix@_Num_int_base@std@@2HB
CONST	SEGMENT
?radix@_Num_int_base@std@@2HB DD 02H			; std::_Num_int_base::radix
CONST	ENDS
;	COMDAT ?is_specialized@_Num_int_base@std@@2_NB
CONST	SEGMENT
?is_specialized@_Num_int_base@std@@2_NB DB 01H		; std::_Num_int_base::is_specialized
CONST	ENDS
;	COMDAT ?is_modulo@_Num_int_base@std@@2_NB
CONST	SEGMENT
?is_modulo@_Num_int_base@std@@2_NB DB 01H		; std::_Num_int_base::is_modulo
CONST	ENDS
;	COMDAT ?is_integer@_Num_int_base@std@@2_NB
CONST	SEGMENT
?is_integer@_Num_int_base@std@@2_NB DB 01H		; std::_Num_int_base::is_integer
CONST	ENDS
;	COMDAT ?is_exact@_Num_int_base@std@@2_NB
CONST	SEGMENT
?is_exact@_Num_int_base@std@@2_NB DB 01H		; std::_Num_int_base::is_exact
CONST	ENDS
;	COMDAT ?is_bounded@_Num_int_base@std@@2_NB
CONST	SEGMENT
?is_bounded@_Num_int_base@std@@2_NB DB 01H		; std::_Num_int_base::is_bounded
CONST	ENDS
;	COMDAT ?_Stream_err@failure@ios_base@std@@0W4io_errc@43@B
CONST	SEGMENT
?_Stream_err@failure@ios_base@std@@0W4io_errc@43@B DD 01H ; std::ios_base::failure::_Stream_err
CONST	ENDS
;	COMDAT ?radix@_Num_base@std@@2HB
CONST	SEGMENT
?radix@_Num_base@std@@2HB DD 00H			; std::_Num_base::radix
CONST	ENDS
;	COMDAT ?min_exponent10@_Num_base@std@@2HB
CONST	SEGMENT
?min_exponent10@_Num_base@std@@2HB DD 00H		; std::_Num_base::min_exponent10
CONST	ENDS
;	COMDAT ?min_exponent@_Num_base@std@@2HB
CONST	SEGMENT
?min_exponent@_Num_base@std@@2HB DD 00H			; std::_Num_base::min_exponent
CONST	ENDS
;	COMDAT ?max_exponent10@_Num_base@std@@2HB
CONST	SEGMENT
?max_exponent10@_Num_base@std@@2HB DD 00H		; std::_Num_base::max_exponent10
CONST	ENDS
;	COMDAT ?max_exponent@_Num_base@std@@2HB
CONST	SEGMENT
?max_exponent@_Num_base@std@@2HB DD 00H			; std::_Num_base::max_exponent
CONST	ENDS
;	COMDAT ?max_digits10@_Num_base@std@@2HB
CONST	SEGMENT
?max_digits10@_Num_base@std@@2HB DD 00H			; std::_Num_base::max_digits10
CONST	ENDS
;	COMDAT ?digits10@_Num_base@std@@2HB
CONST	SEGMENT
?digits10@_Num_base@std@@2HB DD 00H			; std::_Num_base::digits10
CONST	ENDS
;	COMDAT ?digits@_Num_base@std@@2HB
CONST	SEGMENT
?digits@_Num_base@std@@2HB DD 00H			; std::_Num_base::digits
CONST	ENDS
;	COMDAT ?round_style@_Num_base@std@@2W4float_round_style@2@B
CONST	SEGMENT
?round_style@_Num_base@std@@2W4float_round_style@2@B DD 00H ; std::_Num_base::round_style
CONST	ENDS
;	COMDAT ?end@?$_Iosb@H@std@@2W4_Seekdir@12@B
CONST	SEGMENT
?end@?$_Iosb@H@std@@2W4_Seekdir@12@B DD 02H		; std::_Iosb<int>::end
CONST	ENDS
;	COMDAT ?traps@_Num_base@std@@2_NB
CONST	SEGMENT
?traps@_Num_base@std@@2_NB DB 00H			; std::_Num_base::traps
CONST	ENDS
;	COMDAT ?cur@?$_Iosb@H@std@@2W4_Seekdir@12@B
CONST	SEGMENT
?cur@?$_Iosb@H@std@@2W4_Seekdir@12@B DD 01H		; std::_Iosb<int>::cur
CONST	ENDS
;	COMDAT ?tinyness_before@_Num_base@std@@2_NB
CONST	SEGMENT
?tinyness_before@_Num_base@std@@2_NB DB 00H		; std::_Num_base::tinyness_before
CONST	ENDS
;	COMDAT ?beg@?$_Iosb@H@std@@2W4_Seekdir@12@B
CONST	SEGMENT
?beg@?$_Iosb@H@std@@2W4_Seekdir@12@B DD 00H		; std::_Iosb<int>::beg
CONST	ENDS
;	COMDAT ?is_specialized@_Num_base@std@@2_NB
CONST	SEGMENT
?is_specialized@_Num_base@std@@2_NB DB 00H		; std::_Num_base::is_specialized
CONST	ENDS
;	COMDAT ?binary@?$_Iosb@H@std@@2W4_Openmode@12@B
CONST	SEGMENT
?binary@?$_Iosb@H@std@@2W4_Openmode@12@B DD 020H	; std::_Iosb<int>::binary
CONST	ENDS
;	COMDAT ?is_signed@_Num_base@std@@2_NB
CONST	SEGMENT
?is_signed@_Num_base@std@@2_NB DB 00H			; std::_Num_base::is_signed
CONST	ENDS
;	COMDAT ?is_modulo@_Num_base@std@@2_NB
CONST	SEGMENT
?is_modulo@_Num_base@std@@2_NB DB 00H			; std::_Num_base::is_modulo
CONST	ENDS
;	COMDAT ?_Noreplace@?$_Iosb@H@std@@2W4_Openmode@12@B
CONST	SEGMENT
?_Noreplace@?$_Iosb@H@std@@2W4_Openmode@12@B DD 080H	; std::_Iosb<int>::_Noreplace
CONST	ENDS
;	COMDAT ?is_integer@_Num_base@std@@2_NB
CONST	SEGMENT
?is_integer@_Num_base@std@@2_NB DB 00H			; std::_Num_base::is_integer
CONST	ENDS
;	COMDAT ?_Nocreate@?$_Iosb@H@std@@2W4_Openmode@12@B
CONST	SEGMENT
?_Nocreate@?$_Iosb@H@std@@2W4_Openmode@12@B DD 040H	; std::_Iosb<int>::_Nocreate
CONST	ENDS
;	COMDAT ?trunc@?$_Iosb@H@std@@2W4_Openmode@12@B
CONST	SEGMENT
?trunc@?$_Iosb@H@std@@2W4_Openmode@12@B DD 010H		; std::_Iosb<int>::trunc
CONST	ENDS
;	COMDAT ?is_iec559@_Num_base@std@@2_NB
CONST	SEGMENT
?is_iec559@_Num_base@std@@2_NB DB 00H			; std::_Num_base::is_iec559
CONST	ENDS
;	COMDAT ?app@?$_Iosb@H@std@@2W4_Openmode@12@B
CONST	SEGMENT
?app@?$_Iosb@H@std@@2W4_Openmode@12@B DD 08H		; std::_Iosb<int>::app
CONST	ENDS
;	COMDAT ?is_exact@_Num_base@std@@2_NB
CONST	SEGMENT
?is_exact@_Num_base@std@@2_NB DB 00H			; std::_Num_base::is_exact
CONST	ENDS
;	COMDAT ?is_bounded@_Num_base@std@@2_NB
CONST	SEGMENT
?is_bounded@_Num_base@std@@2_NB DB 00H			; std::_Num_base::is_bounded
CONST	ENDS
;	COMDAT ?ate@?$_Iosb@H@std@@2W4_Openmode@12@B
CONST	SEGMENT
?ate@?$_Iosb@H@std@@2W4_Openmode@12@B DD 04H		; std::_Iosb<int>::ate
CONST	ENDS
;	COMDAT ?has_signaling_NaN@_Num_base@std@@2_NB
CONST	SEGMENT
?has_signaling_NaN@_Num_base@std@@2_NB DB 00H		; std::_Num_base::has_signaling_NaN
CONST	ENDS
;	COMDAT ?out@?$_Iosb@H@std@@2W4_Openmode@12@B
CONST	SEGMENT
?out@?$_Iosb@H@std@@2W4_Openmode@12@B DD 02H		; std::_Iosb<int>::out
CONST	ENDS
;	COMDAT ?in@?$_Iosb@H@std@@2W4_Openmode@12@B
CONST	SEGMENT
?in@?$_Iosb@H@std@@2W4_Openmode@12@B DD 01H		; std::_Iosb<int>::in
CONST	ENDS
;	COMDAT ?has_quiet_NaN@_Num_base@std@@2_NB
CONST	SEGMENT
?has_quiet_NaN@_Num_base@std@@2_NB DB 00H		; std::_Num_base::has_quiet_NaN
CONST	ENDS
;	COMDAT ?has_infinity@_Num_base@std@@2_NB
CONST	SEGMENT
?has_infinity@_Num_base@std@@2_NB DB 00H		; std::_Num_base::has_infinity
CONST	ENDS
;	COMDAT ?_Hardfail@?$_Iosb@H@std@@2W4_Iostate@12@B
CONST	SEGMENT
?_Hardfail@?$_Iosb@H@std@@2W4_Iostate@12@B DD 010H	; std::_Iosb<int>::_Hardfail
CONST	ENDS
;	COMDAT ?has_denorm_loss@_Num_base@std@@2_NB
CONST	SEGMENT
?has_denorm_loss@_Num_base@std@@2_NB DB 00H		; std::_Num_base::has_denorm_loss
CONST	ENDS
;	COMDAT ?badbit@?$_Iosb@H@std@@2W4_Iostate@12@B
CONST	SEGMENT
?badbit@?$_Iosb@H@std@@2W4_Iostate@12@B DD 04H		; std::_Iosb<int>::badbit
CONST	ENDS
;	COMDAT ?has_denorm@_Num_base@std@@2W4float_denorm_style@2@B
CONST	SEGMENT
?has_denorm@_Num_base@std@@2W4float_denorm_style@2@B DD 00H ; std::_Num_base::has_denorm
CONST	ENDS
;	COMDAT ?failbit@?$_Iosb@H@std@@2W4_Iostate@12@B
CONST	SEGMENT
?failbit@?$_Iosb@H@std@@2W4_Iostate@12@B DD 02H		; std::_Iosb<int>::failbit
CONST	ENDS
;	COMDAT ?eofbit@?$_Iosb@H@std@@2W4_Iostate@12@B
CONST	SEGMENT
?eofbit@?$_Iosb@H@std@@2W4_Iostate@12@B DD 01H		; std::_Iosb<int>::eofbit
CONST	ENDS
;	COMDAT ?goodbit@?$_Iosb@H@std@@2W4_Iostate@12@B
CONST	SEGMENT
?goodbit@?$_Iosb@H@std@@2W4_Iostate@12@B DD 00H		; std::_Iosb<int>::goodbit
CONST	ENDS
;	COMDAT ?floatfield@?$_Iosb@H@std@@2W4_Fmtflags@12@B
CONST	SEGMENT
?floatfield@?$_Iosb@H@std@@2W4_Fmtflags@12@B DD 03000H	; std::_Iosb<int>::floatfield
CONST	ENDS
;	COMDAT ?basefield@?$_Iosb@H@std@@2W4_Fmtflags@12@B
CONST	SEGMENT
?basefield@?$_Iosb@H@std@@2W4_Fmtflags@12@B DD 0e00H	; std::_Iosb<int>::basefield
CONST	ENDS
;	COMDAT ?adjustfield@?$_Iosb@H@std@@2W4_Fmtflags@12@B
CONST	SEGMENT
?adjustfield@?$_Iosb@H@std@@2W4_Fmtflags@12@B DD 01c0H	; std::_Iosb<int>::adjustfield
CONST	ENDS
;	COMDAT ?_Stdio@?$_Iosb@H@std@@2W4_Fmtflags@12@B
CONST	SEGMENT
?_Stdio@?$_Iosb@H@std@@2W4_Fmtflags@12@B DD 08000H	; std::_Iosb<int>::_Stdio
CONST	ENDS
;	COMDAT ?boolalpha@?$_Iosb@H@std@@2W4_Fmtflags@12@B
CONST	SEGMENT
?boolalpha@?$_Iosb@H@std@@2W4_Fmtflags@12@B DD 04000H	; std::_Iosb<int>::boolalpha
CONST	ENDS
;	COMDAT ?hexfloat@?$_Iosb@H@std@@2W4_Fmtflags@12@B
CONST	SEGMENT
?hexfloat@?$_Iosb@H@std@@2W4_Fmtflags@12@B DD 03000H	; std::_Iosb<int>::hexfloat
CONST	ENDS
;	COMDAT ?fixed@?$_Iosb@H@std@@2W4_Fmtflags@12@B
CONST	SEGMENT
?fixed@?$_Iosb@H@std@@2W4_Fmtflags@12@B DD 02000H	; std::_Iosb<int>::fixed
CONST	ENDS
;	COMDAT ?scientific@?$_Iosb@H@std@@2W4_Fmtflags@12@B
CONST	SEGMENT
?scientific@?$_Iosb@H@std@@2W4_Fmtflags@12@B DD 01000H	; std::_Iosb<int>::scientific
CONST	ENDS
;	COMDAT ?hex@?$_Iosb@H@std@@2W4_Fmtflags@12@B
CONST	SEGMENT
?hex@?$_Iosb@H@std@@2W4_Fmtflags@12@B DD 0800H		; std::_Iosb<int>::hex
CONST	ENDS
;	COMDAT ?oct@?$_Iosb@H@std@@2W4_Fmtflags@12@B
CONST	SEGMENT
?oct@?$_Iosb@H@std@@2W4_Fmtflags@12@B DD 0400H		; std::_Iosb<int>::oct
CONST	ENDS
;	COMDAT ?dec@?$_Iosb@H@std@@2W4_Fmtflags@12@B
CONST	SEGMENT
?dec@?$_Iosb@H@std@@2W4_Fmtflags@12@B DD 0200H		; std::_Iosb<int>::dec
CONST	ENDS
;	COMDAT ?internal@?$_Iosb@H@std@@2W4_Fmtflags@12@B
CONST	SEGMENT
?internal@?$_Iosb@H@std@@2W4_Fmtflags@12@B DD 0100H	; std::_Iosb<int>::internal
CONST	ENDS
;	COMDAT ?right@?$_Iosb@H@std@@2W4_Fmtflags@12@B
CONST	SEGMENT
?right@?$_Iosb@H@std@@2W4_Fmtflags@12@B DD 080H		; std::_Iosb<int>::right
CONST	ENDS
;	COMDAT ?left@?$_Iosb@H@std@@2W4_Fmtflags@12@B
CONST	SEGMENT
?left@?$_Iosb@H@std@@2W4_Fmtflags@12@B DD 040H		; std::_Iosb<int>::left
CONST	ENDS
;	COMDAT ?showpos@?$_Iosb@H@std@@2W4_Fmtflags@12@B
CONST	SEGMENT
?showpos@?$_Iosb@H@std@@2W4_Fmtflags@12@B DD 020H	; std::_Iosb<int>::showpos
CONST	ENDS
;	COMDAT ?showpoint@?$_Iosb@H@std@@2W4_Fmtflags@12@B
CONST	SEGMENT
?showpoint@?$_Iosb@H@std@@2W4_Fmtflags@12@B DD 010H	; std::_Iosb<int>::showpoint
CONST	ENDS
;	COMDAT ?showbase@?$_Iosb@H@std@@2W4_Fmtflags@12@B
CONST	SEGMENT
?showbase@?$_Iosb@H@std@@2W4_Fmtflags@12@B DD 08H	; std::_Iosb<int>::showbase
CONST	ENDS
;	COMDAT ?uppercase@?$_Iosb@H@std@@2W4_Fmtflags@12@B
CONST	SEGMENT
?uppercase@?$_Iosb@H@std@@2W4_Fmtflags@12@B DD 04H	; std::_Iosb<int>::uppercase
CONST	ENDS
;	COMDAT ?unitbuf@?$_Iosb@H@std@@2W4_Fmtflags@12@B
CONST	SEGMENT
?unitbuf@?$_Iosb@H@std@@2W4_Fmtflags@12@B DD 02H	; std::_Iosb<int>::unitbuf
CONST	ENDS
;	COMDAT ?skipws@?$_Iosb@H@std@@2W4_Fmtflags@12@B
CONST	SEGMENT
?skipws@?$_Iosb@H@std@@2W4_Fmtflags@12@B DD 01H		; std::_Iosb<int>::skipws
CONST	ENDS
;	COMDAT ?value@?$_Sizeof@U_Nil@std@@U12@U12@U12@U12@U12@U12@U12@@std@@2IB
CONST	SEGMENT
?value@?$_Sizeof@U_Nil@std@@U12@U12@U12@U12@U12@U12@U12@@std@@2IB DD 00H ; std::_Sizeof<std::_Nil,std::_Nil,std::_Nil,std::_Nil,std::_Nil,std::_Nil,std::_Nil,std::_Nil>::value
CONST	ENDS
;	COMDAT ?min_exponent10@?$numeric_limits@O@std@@2HB
CONST	SEGMENT
?min_exponent10@?$numeric_limits@O@std@@2HB DD 0fffffecdH ; std::numeric_limits<long double>::min_exponent10
CONST	ENDS
;	COMDAT ?min_exponent@?$numeric_limits@O@std@@2HB
CONST	SEGMENT
?min_exponent@?$numeric_limits@O@std@@2HB DD 0fffffc03H	; std::numeric_limits<long double>::min_exponent
CONST	ENDS
;	COMDAT ?max_exponent10@?$numeric_limits@O@std@@2HB
CONST	SEGMENT
?max_exponent10@?$numeric_limits@O@std@@2HB DD 0134H	; std::numeric_limits<long double>::max_exponent10
CONST	ENDS
;	COMDAT ?max_exponent@?$numeric_limits@O@std@@2HB
CONST	SEGMENT
?max_exponent@?$numeric_limits@O@std@@2HB DD 0400H	; std::numeric_limits<long double>::max_exponent
CONST	ENDS
;	COMDAT ?max_digits10@?$numeric_limits@O@std@@2HB
CONST	SEGMENT
?max_digits10@?$numeric_limits@O@std@@2HB DD 011H	; std::numeric_limits<long double>::max_digits10
CONST	ENDS
CONST	SEGMENT
_NEAR_CLIP DD	03f800000r			; 1
_L_2	DD	03f317218r			; 0.693147
CONST	ENDS
;	COMDAT ?digits10@?$numeric_limits@O@std@@2HB
CONST	SEGMENT
?digits10@?$numeric_limits@O@std@@2HB DD 0fH		; std::numeric_limits<long double>::digits10
CONST	ENDS
;	COMDAT ?digits@?$numeric_limits@O@std@@2HB
CONST	SEGMENT
?digits@?$numeric_limits@O@std@@2HB DD 035H		; std::numeric_limits<long double>::digits
CONST	ENDS
;	COMDAT ?min_exponent10@?$numeric_limits@N@std@@2HB
CONST	SEGMENT
?min_exponent10@?$numeric_limits@N@std@@2HB DD 0fffffecdH ; std::numeric_limits<double>::min_exponent10
CONST	ENDS
;	COMDAT ?min_exponent@?$numeric_limits@N@std@@2HB
CONST	SEGMENT
?min_exponent@?$numeric_limits@N@std@@2HB DD 0fffffc03H	; std::numeric_limits<double>::min_exponent
CONST	ENDS
;	COMDAT ?max_exponent10@?$numeric_limits@N@std@@2HB
CONST	SEGMENT
?max_exponent10@?$numeric_limits@N@std@@2HB DD 0134H	; std::numeric_limits<double>::max_exponent10
CONST	ENDS
;	COMDAT ?max_exponent@?$numeric_limits@N@std@@2HB
CONST	SEGMENT
?max_exponent@?$numeric_limits@N@std@@2HB DD 0400H	; std::numeric_limits<double>::max_exponent
CONST	ENDS
;	COMDAT ?max_digits10@?$numeric_limits@N@std@@2HB
CONST	SEGMENT
?max_digits10@?$numeric_limits@N@std@@2HB DD 011H	; std::numeric_limits<double>::max_digits10
CONST	ENDS
;	COMDAT ?digits10@?$numeric_limits@N@std@@2HB
CONST	SEGMENT
?digits10@?$numeric_limits@N@std@@2HB DD 0fH		; std::numeric_limits<double>::digits10
CONST	ENDS
;	COMDAT ?digits@?$numeric_limits@N@std@@2HB
CONST	SEGMENT
?digits@?$numeric_limits@N@std@@2HB DD 035H		; std::numeric_limits<double>::digits
CONST	ENDS
PUBLIC	_fabsf
PUBLIC	_asinf
PUBLIC	_cosf
PUBLIC	_sinf
PUBLIC	?asin@@YAMM@Z					; asin
PUBLIC	?cos@@YAMM@Z					; cos
PUBLIC	?fabs@@YAMM@Z					; fabs
PUBLIC	?sin@@YAMM@Z					; sin
PUBLIC	?Radius@DrawableObject@@QBEMXZ			; DrawableObject::Radius
PUBLIC	?GetPosition@DrawableObject@@QAEXPAUTpoint@@@Z	; DrawableObject::GetPosition
PUBLIC	?X@DrawableObject@@QBEMXZ			; DrawableObject::X
PUBLIC	?Y@DrawableObject@@QBEMXZ			; DrawableObject::Y
PUBLIC	?Z@DrawableObject@@QBEMXZ			; DrawableObject::Z
PUBLIC	??2@YAPAXIPAX@Z					; operator new
PUBLIC	??3@YAXPAX0@Z					; operator delete
PUBLIC	?length@?$char_traits@D@std@@SAIPBD@Z		; std::char_traits<char>::length
PUBLIC	?copy@?$char_traits@D@std@@SAPADPADPBDI@Z	; std::char_traits<char>::copy
PUBLIC	?move@?$char_traits@D@std@@SAPADPADPBDI@Z	; std::char_traits<char>::move
PUBLIC	?assign@?$char_traits@D@std@@SAXAADABD@Z	; std::char_traits<char>::assign
PUBLIC	??0?$allocator@D@std@@QAE@XZ			; std::allocator<char>::allocator<char>
PUBLIC	?deallocate@?$allocator@D@std@@QAEXPADI@Z	; std::allocator<char>::deallocate
PUBLIC	?allocate@?$allocator@D@std@@QAEPADI@Z		; std::allocator<char>::allocate
PUBLIC	?max_size@?$allocator@D@std@@QBEIXZ		; std::allocator<char>::max_size
PUBLIC	?max_size@?$allocator_traits@V?$allocator@D@std@@@std@@SAIABV?$allocator@D@2@@Z ; std::allocator_traits<std::allocator<char> >::max_size
PUBLIC	??0?$_Wrap_alloc@V?$allocator@D@std@@@std@@QAE@XZ ; std::_Wrap_alloc<std::allocator<char> >::_Wrap_alloc<std::allocator<char> >
PUBLIC	?allocate@?$_Wrap_alloc@V?$allocator@D@std@@@std@@QAEPADI@Z ; std::_Wrap_alloc<std::allocator<char> >::allocate
PUBLIC	?deallocate@?$_Wrap_alloc@V?$allocator@D@std@@@std@@QAEXPADI@Z ; std::_Wrap_alloc<std::allocator<char> >::deallocate
PUBLIC	?max_size@?$_Wrap_alloc@V?$allocator@D@std@@@std@@QBEIXZ ; std::_Wrap_alloc<std::allocator<char> >::max_size
PUBLIC	??0?$_String_val@U?$_Simple_types@D@std@@@std@@QAE@XZ ; std::_String_val<std::_Simple_types<char> >::_String_val<std::_Simple_types<char> >
PUBLIC	?_Myptr@?$_String_val@U?$_Simple_types@D@std@@@std@@QAEPADXZ ; std::_String_val<std::_Simple_types<char> >::_Myptr
PUBLIC	?_Myptr@?$_String_val@U?$_Simple_types@D@std@@@std@@QBEPBDXZ ; std::_String_val<std::_Simple_types<char> >::_Myptr
PUBLIC	??0?$_String_alloc@$0A@U?$_String_base_types@DV?$allocator@D@std@@@std@@@std@@QAE@ABV?$allocator@D@1@@Z ; std::_String_alloc<0,std::_String_base_types<char,std::allocator<char> > >::_String_alloc<0,std::_String_base_types<char,std::allocator<char> > >
PUBLIC	?_Getal@?$_String_alloc@$0A@U?$_String_base_types@DV?$allocator@D@std@@@std@@@std@@QBE?AU?$_Wrap_alloc@V?$allocator@D@std@@@2@XZ ; std::_String_alloc<0,std::_String_base_types<char,std::allocator<char> > >::_Getal
PUBLIC	??0?$basic_string@DU?$char_traits@D@std@@V?$allocator@D@2@@std@@QAE@PBD@Z ; std::basic_string<char,std::char_traits<char>,std::allocator<char> >::basic_string<char,std::char_traits<char>,std::allocator<char> >
PUBLIC	?assign@?$basic_string@DU?$char_traits@D@std@@V?$allocator@D@2@@std@@QAEAAV12@ABV12@II@Z ; std::basic_string<char,std::char_traits<char>,std::allocator<char> >::assign
PUBLIC	?assign@?$basic_string@DU?$char_traits@D@std@@V?$allocator@D@2@@std@@QAEAAV12@PBDI@Z ; std::basic_string<char,std::char_traits<char>,std::allocator<char> >::assign
PUBLIC	?assign@?$basic_string@DU?$char_traits@D@std@@V?$allocator@D@2@@std@@QAEAAV12@PBD@Z ; std::basic_string<char,std::char_traits<char>,std::allocator<char> >::assign
PUBLIC	?erase@?$basic_string@DU?$char_traits@D@std@@V?$allocator@D@2@@std@@QAEAAV12@I@Z ; std::basic_string<char,std::char_traits<char>,std::allocator<char> >::erase
PUBLIC	?erase@?$basic_string@DU?$char_traits@D@std@@V?$allocator@D@2@@std@@QAEAAV12@II@Z ; std::basic_string<char,std::char_traits<char>,std::allocator<char> >::erase
PUBLIC	?size@?$basic_string@DU?$char_traits@D@std@@V?$allocator@D@2@@std@@QBEIXZ ; std::basic_string<char,std::char_traits<char>,std::allocator<char> >::size
PUBLIC	?max_size@?$basic_string@DU?$char_traits@D@std@@V?$allocator@D@2@@std@@QBEIXZ ; std::basic_string<char,std::char_traits<char>,std::allocator<char> >::max_size
PUBLIC	?_Copy@?$basic_string@DU?$char_traits@D@std@@V?$allocator@D@2@@std@@QAEXII@Z ; std::basic_string<char,std::char_traits<char>,std::allocator<char> >::_Copy
PUBLIC	?_Eos@?$basic_string@DU?$char_traits@D@std@@V?$allocator@D@2@@std@@QAEXI@Z ; std::basic_string<char,std::char_traits<char>,std::allocator<char> >::_Eos
PUBLIC	?_Grow@?$basic_string@DU?$char_traits@D@std@@V?$allocator@D@2@@std@@QAE_NI_N@Z ; std::basic_string<char,std::char_traits<char>,std::allocator<char> >::_Grow
PUBLIC	?_Inside@?$basic_string@DU?$char_traits@D@std@@V?$allocator@D@2@@std@@QAE_NPBD@Z ; std::basic_string<char,std::char_traits<char>,std::allocator<char> >::_Inside
PUBLIC	?_Tidy@?$basic_string@DU?$char_traits@D@std@@V?$allocator@D@2@@std@@QAEX_NI@Z ; std::basic_string<char,std::char_traits<char>,std::allocator<char> >::_Tidy
PUBLIC	?_Xlen@?$basic_string@DU?$char_traits@D@std@@V?$allocator@D@2@@std@@QBEXXZ ; std::basic_string<char,std::char_traits<char>,std::allocator<char> >::_Xlen
PUBLIC	?_Xran@?$basic_string@DU?$char_traits@D@std@@V?$allocator@D@2@@std@@QBEXXZ ; std::basic_string<char,std::char_traits<char>,std::allocator<char> >::_Xran
PUBLIC	??0id@locale@std@@QAE@I@Z			; std::locale::id::id
PUBLIC	?generic_category@std@@YAABVerror_category@1@XZ	; std::generic_category
PUBLIC	?system_category@std@@YAABVerror_category@1@XZ	; std::system_category
PUBLIC	??0error_category@std@@QAE@XZ			; std::error_category::error_category
PUBLIC	??1error_category@std@@UAE@XZ			; std::error_category::~error_category
PUBLIC	?default_error_condition@error_category@std@@UBE?AVerror_condition@2@H@Z ; std::error_category::default_error_condition
PUBLIC	?equivalent@error_category@std@@UBE_NHABVerror_condition@2@@Z ; std::error_category::equivalent
PUBLIC	?equivalent@error_category@std@@UBE_NABVerror_code@2@H@Z ; std::error_category::equivalent
PUBLIC	??8error_category@std@@QBE_NABV01@@Z		; std::error_category::operator==
PUBLIC	??_Gerror_category@std@@UAEPAXI@Z		; std::error_category::`scalar deleting destructor'
PUBLIC	?value@error_code@std@@QBEHXZ			; std::error_code::value
PUBLIC	?category@error_code@std@@QBEABVerror_category@2@XZ ; std::error_code::category
PUBLIC	??0error_condition@std@@QAE@HABVerror_category@1@@Z ; std::error_condition::error_condition
PUBLIC	?value@error_condition@std@@QBEHXZ		; std::error_condition::value
PUBLIC	?category@error_condition@std@@QBEABVerror_category@2@XZ ; std::error_condition::category
PUBLIC	??8error_condition@std@@QBE_NABV01@@Z		; std::error_condition::operator==
PUBLIC	??0_Generic_error_category@std@@QAE@XZ		; std::_Generic_error_category::_Generic_error_category
PUBLIC	?name@_Generic_error_category@std@@UBEPBDXZ	; std::_Generic_error_category::name
PUBLIC	?message@_Generic_error_category@std@@UBE?AV?$basic_string@DU?$char_traits@D@std@@V?$allocator@D@2@@2@H@Z ; std::_Generic_error_category::message
PUBLIC	??1_Generic_error_category@std@@UAE@XZ		; std::_Generic_error_category::~_Generic_error_category
PUBLIC	??_G_Generic_error_category@std@@UAEPAXI@Z	; std::_Generic_error_category::`scalar deleting destructor'
PUBLIC	??0_Iostream_error_category@std@@QAE@XZ		; std::_Iostream_error_category::_Iostream_error_category
PUBLIC	?name@_Iostream_error_category@std@@UBEPBDXZ	; std::_Iostream_error_category::name
PUBLIC	?message@_Iostream_error_category@std@@UBE?AV?$basic_string@DU?$char_traits@D@std@@V?$allocator@D@2@@2@H@Z ; std::_Iostream_error_category::message
PUBLIC	??1_Iostream_error_category@std@@UAE@XZ		; std::_Iostream_error_category::~_Iostream_error_category
PUBLIC	??_G_Iostream_error_category@std@@UAEPAXI@Z	; std::_Iostream_error_category::`scalar deleting destructor'
PUBLIC	??0_System_error_category@std@@QAE@XZ		; std::_System_error_category::_System_error_category
PUBLIC	?name@_System_error_category@std@@UBEPBDXZ	; std::_System_error_category::name
PUBLIC	?message@_System_error_category@std@@UBE?AV?$basic_string@DU?$char_traits@D@std@@V?$allocator@D@2@@2@H@Z ; std::_System_error_category::message
PUBLIC	?default_error_condition@_System_error_category@std@@UBE?AVerror_condition@2@H@Z ; std::_System_error_category::default_error_condition
PUBLIC	??1_System_error_category@std@@UAE@XZ		; std::_System_error_category::~_System_error_category
PUBLIC	??_G_System_error_category@std@@UAEPAXI@Z	; std::_System_error_category::`scalar deleting destructor'
PUBLIC	?XPos@VuEntity@@QBEMXZ				; VuEntity::XPos
PUBLIC	?YPos@VuEntity@@QBEMXZ				; VuEntity::YPos
PUBLIC	?ZPos@VuEntity@@QBEMXZ				; VuEntity::ZPos
PUBLIC	?XDelta@VuEntity@@QBEMXZ			; VuEntity::XDelta
PUBLIC	?YDelta@VuEntity@@QBEMXZ			; VuEntity::YDelta
PUBLIC	?ZDelta@VuEntity@@QBEMXZ			; VuEntity::ZDelta
PUBLIC	?Yaw@VuEntity@@QBEMXZ				; VuEntity::Yaw
PUBLIC	?Pitch@VuEntity@@QBEMXZ				; VuEntity::Pitch
PUBLIC	?Roll@VuEntity@@QBEMXZ				; VuEntity::Roll
PUBLIC	?checked_atan2@@YANNN@Z				; checked_atan2
PUBLIC	?IsSetLocalFlag@SimBaseClass@@QBEHH@Z		; SimBaseClass::IsSetLocalFlag
PUBLIC	?MotionOn@SimulationDriver@@QAEHXZ		; SimulationDriver::MotionOn
PUBLIC	?GetMouseLook@PlayerOptionsClass@@QBE_NXZ	; PlayerOptionsClass::GetMouseLook
PUBLIC	??1drawPtrList@@QAE@XZ				; drawPtrList::~drawPtrList
PUBLIC	??_GdrawPtrList@@QAEPAXI@Z			; drawPtrList::`scalar deleting destructor'
PUBLIC	?DisplayInCockpit@OTWDriverClass@@QAEHXZ	; OTWDriverClass::DisplayInCockpit
PUBLIC	?StartEjectCam@OTWDriverClass@@QAEXPAVEjectedPilotClass@@H@Z ; OTWDriverClass::StartEjectCam
PUBLIC	?SetEjectCamChaseMode@OTWDriverClass@@QAEXPAVEjectedPilotClass@@H@Z ; OTWDriverClass::SetEjectCamChaseMode
PUBLIC	?GetDoppler@OTWDriverClass@@QAEMMMMMMM@Z	; OTWDriverClass::GetDoppler
PUBLIC	?SetExternalCameraPosition@OTWDriverClass@@AAEXM@Z ; OTWDriverClass::SetExternalCameraPosition
PUBLIC	?SetFlybyCameraPosition@OTWDriverClass@@AAEXM@Z	; OTWDriverClass::SetFlybyCameraPosition
PUBLIC	?DisplaceTheCamera@OTWDriverClass@@AAEXM@Z	; OTWDriverClass::DisplaceTheCamera
PUBLIC	?ReInitDisplacement@OTWDriverClass@@AAEXPAUCamDisplacement@1@@Z ; OTWDriverClass::ReInitDisplacement
PUBLIC	?toggleDisplaceCamera@OTWDriverClass@@QAEXXZ	; OTWDriverClass::toggleDisplaceCamera
PUBLIC	?BuildExternalNearList@OTWDriverClass@@AAEXXZ	; OTWDriverClass::BuildExternalNearList
PUBLIC	??4?$VuBin@VSimBaseClass@@@@QAEABV0@ABV0@@Z	; VuBin<SimBaseClass>::operator=
PUBLIC	??8?$VuBin@VSimBaseClass@@@@QBE_NABV0@@Z	; VuBin<SimBaseClass>::operator==
PUBLIC	??7?$VuBin@VSimBaseClass@@@@QBE_NXZ		; VuBin<SimBaseClass>::operator!
PUBLIC	??B?$VuBin@VSimBaseClass@@@@QBE_NXZ		; VuBin<SimBaseClass>::operator bool
PUBLIC	??C?$VuBin@VSimBaseClass@@@@QBEPAVSimBaseClass@@XZ ; VuBin<SimBaseClass>::operator->
PUBLIC	?get@?$VuBin@VSimBaseClass@@@@QBEPAVSimBaseClass@@XZ ; VuBin<SimBaseClass>::get
PUBLIC	?reset@?$VuBin@VSimBaseClass@@@@QAEXPAVSimBaseClass@@@Z ; VuBin<SimBaseClass>::reset
PUBLIC	?DrawExternalViewTarget@OTWDriverClass@@AAEXXZ	; OTWDriverClass::DrawExternalViewTarget
PUBLIC	?AnalogIsUsed@SIMLIB_IO_CLASS@@QAE_NW4GameAxis_t@@@Z ; SIMLIB_IO_CLASS::AnalogIsUsed
PUBLIC	?Cos@@YAMM@Z					; Cos
PUBLIC	?FabsF@@YAMM@Z					; FabsF
PUBLIC	??$construct@PADAAPAD@?$_Wrap_alloc@V?$allocator@D@std@@@std@@QAEXPAPADAAPAD@Z ; std::_Wrap_alloc<std::allocator<char> >::construct<char *,char * &>
PUBLIC	??$destroy@PAD@?$_Wrap_alloc@V?$allocator@D@std@@@std@@QAEXPAPAD@Z ; std::_Wrap_alloc<std::allocator<char> >::destroy<char *>
PUBLIC	??$addressof@D@std@@YAPADAAD@Z			; std::addressof<char>
PUBLIC	??$_Allocate@D@std@@YAPADIPAD@Z			; std::_Allocate<char>
PUBLIC	??$forward@AAPAD@std@@YAAAPADAAPAD@Z		; std::forward<char * &>
PUBLIC	??$construct@PADAAPAD@?$allocator_traits@V?$allocator@D@std@@@std@@SAXAAV?$allocator@D@1@PAPADAAPAD@Z ; std::allocator_traits<std::allocator<char> >::construct<char *,char * &>
PUBLIC	??$destroy@PAD@?$allocator_traits@V?$allocator@D@std@@@std@@SAXAAV?$allocator@D@1@PAPAD@Z ; std::allocator_traits<std::allocator<char> >::destroy<char *>
PUBLIC	??$construct@PADAAPAD@?$allocator@D@std@@QAEXPAPADAAPAD@Z ; std::allocator<char>::construct<char *,char * &>
PUBLIC	??$destroy@PAD@?$allocator@D@std@@QAEXPAPAD@Z	; std::allocator<char>::destroy<char *>
PUBLIC	??_7error_category@std@@6B@			; std::error_category::`vftable'
PUBLIC	??_7_Generic_error_category@std@@6B@		; std::_Generic_error_category::`vftable'
PUBLIC	??_C@_07DCLBNMLN@generic?$AA@			; `string'
PUBLIC	??_C@_0O@BFJCFAAK@unknown?5error?$AA@		; `string'
PUBLIC	??_7_Iostream_error_category@std@@6B@		; std::_Iostream_error_category::`vftable'
PUBLIC	??_C@_08LLGCOLLL@iostream?$AA@			; `string'
PUBLIC	??_C@_0BG@PADBLCHM@iostream?5stream?5error?$AA@	; `string'
PUBLIC	??_7_System_error_category@std@@6B@		; std::_System_error_category::`vftable'
PUBLIC	??_C@_06FHFOAHML@system?$AA@			; `string'
PUBLIC	?_Generic_object@?$_Error_objects@H@std@@2V_Generic_error_category@2@A ; std::_Error_objects<int>::_Generic_object
PUBLIC	?_Iostream_object@?$_Error_objects@H@std@@2V_Iostream_error_category@2@A ; std::_Error_objects<int>::_Iostream_object
PUBLIC	?_System_object@?$_Error_objects@H@std@@2V_System_error_category@2@A ; std::_Error_objects<int>::_System_object
PUBLIC	?id@?$num_put@DV?$back_insert_iterator@V?$basic_string@DU?$char_traits@D@std@@V?$allocator@D@2@@std@@@std@@@std@@2V0locale@2@A ; std::num_put<char,std::back_insert_iterator<std::basic_string<char,std::char_traits<char>,std::allocator<char> > > >::id
PUBLIC	?id@?$num_put@_WV?$back_insert_iterator@V?$basic_string@_WU?$char_traits@_W@std@@V?$allocator@_W@2@@std@@@std@@@std@@2V0locale@2@A ; std::num_put<wchar_t,std::back_insert_iterator<std::basic_string<wchar_t,std::char_traits<wchar_t>,std::allocator<wchar_t> > > >::id
PUBLIC	?id@?$numpunct@D@std@@2V0locale@2@A		; std::numpunct<char>::id
PUBLIC	?id@?$numpunct@_W@std@@2V0locale@2@A		; std::numpunct<wchar_t>::id
PUBLIC	??_C@_0BI@CFPLBAOH@invalid?5string?5position?$AA@ ; `string'
PUBLIC	??_C@_0BA@JFNIOLAK@string?5too?5long?$AA@	; `string'
PUBLIC	??_R4error_category@std@@6B@			; std::error_category::`RTTI Complete Object Locator'
PUBLIC	??_R0?AVerror_category@std@@@8			; std::error_category `RTTI Type Descriptor'
PUBLIC	??_R3error_category@std@@8			; std::error_category::`RTTI Class Hierarchy Descriptor'
PUBLIC	??_R2error_category@std@@8			; std::error_category::`RTTI Base Class Array'
PUBLIC	??_R1A@?0A@EA@error_category@std@@8		; std::error_category::`RTTI Base Class Descriptor at (0,-1,0,64)'
PUBLIC	??_R4_Generic_error_category@std@@6B@		; std::_Generic_error_category::`RTTI Complete Object Locator'
PUBLIC	??_R0?AV_Generic_error_category@std@@@8		; std::_Generic_error_category `RTTI Type Descriptor'
PUBLIC	??_R3_Generic_error_category@std@@8		; std::_Generic_error_category::`RTTI Class Hierarchy Descriptor'
PUBLIC	??_R2_Generic_error_category@std@@8		; std::_Generic_error_category::`RTTI Base Class Array'
PUBLIC	??_R1A@?0A@EA@_Generic_error_category@std@@8	; std::_Generic_error_category::`RTTI Base Class Descriptor at (0,-1,0,64)'
PUBLIC	??_R4_Iostream_error_category@std@@6B@		; std::_Iostream_error_category::`RTTI Complete Object Locator'
PUBLIC	??_R0?AV_Iostream_error_category@std@@@8	; std::_Iostream_error_category `RTTI Type Descriptor'
PUBLIC	??_R3_Iostream_error_category@std@@8		; std::_Iostream_error_category::`RTTI Class Hierarchy Descriptor'
PUBLIC	??_R2_Iostream_error_category@std@@8		; std::_Iostream_error_category::`RTTI Base Class Array'
PUBLIC	??_R1A@?0A@EA@_Iostream_error_category@std@@8	; std::_Iostream_error_category::`RTTI Base Class Descriptor at (0,-1,0,64)'
PUBLIC	??_R4_System_error_category@std@@6B@		; std::_System_error_category::`RTTI Complete Object Locator'
PUBLIC	??_R0?AV_System_error_category@std@@@8		; std::_System_error_category `RTTI Type Descriptor'
PUBLIC	??_R3_System_error_category@std@@8		; std::_System_error_category::`RTTI Class Hierarchy Descriptor'
PUBLIC	??_R2_System_error_category@std@@8		; std::_System_error_category::`RTTI Base Class Array'
PUBLIC	??_R1A@?0A@EA@_System_error_category@std@@8	; std::_System_error_category::`RTTI Base Class Descriptor at (0,-1,0,64)'
PUBLIC	__real@00000000
PUBLIC	__real@0000000000000000
PUBLIC	__real@3a83126f
PUBLIC	__real@3c23d70a
PUBLIC	__real@3dcccccd
PUBLIC	__real@3f000000
PUBLIC	__real@3f0ccccd
PUBLIC	__real@3f170a3d
PUBLIC	__real@3f19999a
PUBLIC	__real@3f490fd9
PUBLIC	__real@3f800000
PUBLIC	__real@3fa78d35
PUBLIC	__real@3fc90fd9
PUBLIC	__real@3fc90fdb
PUBLIC	__real@3ff921fb54442d18
PUBLIC	__real@40000000
PUBLIC	__real@400921fb54442d18
PUBLIC	__real@40490fd9
PUBLIC	__real@40800000
PUBLIC	__real@40a00000
PUBLIC	__real@40c90fd9
PUBLIC	__real@41200000
PUBLIC	__real@41a00000
PUBLIC	__real@41c80000
PUBLIC	__real@42200000
PUBLIC	__real@42480000
PUBLIC	__real@43480000
PUBLIC	__real@43fa0000
PUBLIC	__real@44480000
PUBLIC	__real@44610000
PUBLIC	__real@466a6000
PUBLIC	__real@8000000000000000
PUBLIC	__real@bf490fd9
PUBLIC	__real@bf800000
PUBLIC	__real@bfa78d35
PUBLIC	__real@bfc90fd9
PUBLIC	__real@bff921fb54442d18
PUBLIC	__real@c0490fd9
PUBLIC	__real@c2480000
PUBLIC	__real@c2c80000
PUBLIC	__real@c4610000
PUBLIC	__xmm@41f00000000000000000000000000000
PUBLIC	__xmm@80000000800000008000000080000000
EXTRN	__purecall:PROC
EXTRN	??2@YAPAXI@Z:PROC				; operator new
EXTRN	??3@YAXPAX@Z:PROC				; operator delete
EXTRN	_atexit:PROC
EXTRN	_asin:PROC
EXTRN	_atan:PROC
EXTRN	_cos:PROC
EXTRN	_fabs:PROC
EXTRN	_sin:PROC
EXTRN	_rand:PROC
EXTRN	_memcpy:PROC
EXTRN	_strlen:PROC
EXTRN	_memmove:PROC
EXTRN	?GetGroundLevel@TViewPoint@@QAEMMMPAUTpoint@@PAH@Z:PROC ; TViewPoint::GetGroundLevel
EXTRN	?_Xbad_alloc@std@@YAXXZ:PROC			; std::_Xbad_alloc
EXTRN	?_Xlength_error@std@@YAXPBD@Z:PROC		; std::_Xlength_error
EXTRN	?_Xout_of_range@std@@YAXPBD@Z:PROC		; std::_Xout_of_range
EXTRN	??_Eerror_category@std@@UAEPAXI@Z:PROC		; std::error_category::`vector deleting destructor'
EXTRN	?_Syserror_map@std@@YAPBDH@Z:PROC		; std::_Syserror_map
EXTRN	?_Winerror_map@std@@YAPBDH@Z:PROC		; std::_Winerror_map
EXTRN	??_E_Generic_error_category@std@@UAEPAXI@Z:PROC	; std::_Generic_error_category::`vector deleting destructor'
EXTRN	??_E_Iostream_error_category@std@@UAEPAXI@Z:PROC ; std::_Iostream_error_category::`vector deleting destructor'
EXTRN	??_E_System_error_category@std@@UAEPAXI@Z:PROC	; std::_System_error_category::`vector deleting destructor'
EXTRN	?SetCamera@Render3D@@QAEXPBUTpoint@@PBUTrotation@@@Z:PROC ; Render3D::SetCamera
EXTRN	?Update@DrawableBSP@@QAEXPBUTpoint@@PBUTrotation@@@Z:PROC ; DrawableBSP::Update
EXTRN	?SetupVisibility@DrawableBSP@@QAE_NPAVRenderOTW@@@Z:PROC ; DrawableBSP::SetupVisibility
EXTRN	?VuReferenceEntity@@YAHPAVVuEntity@@@Z:PROC	; VuReferenceEntity
EXTRN	?VuDeReferenceEntity@@YAHPAVVuEntity@@@Z:PROC	; VuDeReferenceEntity
EXTRN	??0VuListIterator@@QAE@PAVVuLinkedList@@@Z:PROC	; VuListIterator::VuListIterator
EXTRN	??1VuListIterator@@UAE@XZ:PROC			; VuListIterator::~VuListIterator
EXTRN	?GetFirst@VuListIterator@@QAEPAVVuEntity@@XZ:PROC ; VuListIterator::GetFirst
EXTRN	?GetNext@VuListIterator@@QAEPAVVuEntity@@XZ:PROC ; VuListIterator::GetNext
EXTRN	?PositandOrientSetData@@YAXMMMMMMPAUTpoint@@PAUTrotation@@@Z:PROC ; PositandOrientSetData
EXTRN	?SetOTWDisplayMode@OTWDriverClass@@QAEXW4OTWDisplayMode@1@@Z:PROC ; OTWDriverClass::SetOTWDisplayMode
EXTRN	?GetOTWDisplayMode@OTWDriverClass@@QAE?AW4OTWDisplayMode@1@XZ:PROC ; OTWDriverClass::GetOTWDisplayMode
EXTRN	?GetGroundLevel@OTWDriverClass@@QAEMMMPAUTpoint@@@Z:PROC ; OTWDriverClass::GetGroundLevel
EXTRN	?GetApproxGroundLevel@OTWDriverClass@@QAEMMM@Z:PROC ; OTWDriverClass::GetApproxGroundLevel
EXTRN	?GetAreaFloorAndCeiling@OTWDriverClass@@QAEXPAM0@Z:PROC ; OTWDriverClass::GetAreaFloorAndCeiling
EXTRN	?SetGraphicsOwnship@OTWDriverClass@@QAEXPAVSimBaseClass@@@Z:PROC ; OTWDriverClass::SetGraphicsOwnship
EXTRN	?AddToNearList@OTWDriverClass@@QAEXPAVDrawableObject@@M@Z:PROC ; OTWDriverClass::AddToNearList
EXTRN	?FlushNearList@OTWDriverClass@@QAEXXZ:PROC	; OTWDriverClass::FlushNearList
EXTRN	?UpdateCameraFocus@OTWDriverClass@@QAEXXZ:PROC	; OTWDriverClass::UpdateCameraFocus
EXTRN	?InsertObjectIntoDrawList@OTWDriverClass@@QAEXPAVSimBaseClass@@@Z:PROC ; OTWDriverClass::InsertObjectIntoDrawList
EXTRN	?GetParentAircraft@EjectedPilotClass@@QAEPAVAircraftClass@@XZ:PROC ; EjectedPilotClass::GetParentAircraft
EXTRN	?GetAxisValue@SIMLIB_IO_CLASS@@QAEHW4GameAxis_t@@@Z:PROC ; SIMLIB_IO_CLASS::GetAxisValue
EXTRN	?GetMouseAzim@MouseView@@QAEMXZ:PROC		; MouseView::GetMouseAzim
EXTRN	?GetMouseElev@MouseView@@QAEMXZ:PROC		; MouseView::GetMouseElev
EXTRN	?Compute@MouseView@@QAEXM_N@Z:PROC		; MouseView::Compute
EXTRN	@__security_check_cookie@4:PROC
EXTRN	__CxxThrowException@8:PROC
EXTRN	___CxxFrameHandler3:PROC
EXTRN	?Origin@@3UTpoint@@B:BYTE			; Origin
EXTRN	??_7type_info@@6B@:QWORD			; type_info::`vftable'
EXTRN	?SimLibElapsedTime@@3KA:DWORD			; SimLibElapsedTime
EXTRN	?SimDriver@@3VSimulationDriver@@A:BYTE		; SimDriver
EXTRN	?PlayerOptions@@3VPlayerOptionsClass@@A:BYTE	; PlayerOptions
EXTRN	?IO@@3VSIMLIB_IO_CLASS@@A:BYTE			; IO
EXTRN	?theMouseView@@3VMouseView@@A:BYTE		; theMouseView
EXTRN	?targetCompressionRatio@@3HA:DWORD		; targetCompressionRatio
EXTRN	___security_cookie:DWORD
EXTRN	__fltused:DWORD
_BSS	SEGMENT
_piecewise_construct DB 01H DUP (?)
_allocator_arg DB 01H DUP (?)
_BSS	ENDS
;	COMDAT ?_Generic_object@?$_Error_objects@H@std@@2V_Generic_error_category@2@A
_BSS	SEGMENT
?_Generic_object@?$_Error_objects@H@std@@2V_Generic_error_category@2@A DD 01H DUP (?) ; std::_Error_objects<int>::_Generic_object
_BSS	ENDS
;	COMDAT ?_Iostream_object@?$_Error_objects@H@std@@2V_Iostream_error_category@2@A
_BSS	SEGMENT
?_Iostream_object@?$_Error_objects@H@std@@2V_Iostream_error_category@2@A DD 01H DUP (?) ; std::_Error_objects<int>::_Iostream_object
_BSS	ENDS
;	COMDAT ?_System_object@?$_Error_objects@H@std@@2V_System_error_category@2@A
_BSS	SEGMENT
?_System_object@?$_Error_objects@H@std@@2V_System_error_category@2@A DD 01H DUP (?) ; std::_Error_objects<int>::_System_object
_BSS	ENDS
;	COMDAT ?id@?$num_put@DV?$back_insert_iterator@V?$basic_string@DU?$char_traits@D@std@@V?$allocator@D@2@@std@@@std@@@std@@2V0locale@2@A
_BSS	SEGMENT
?id@?$num_put@DV?$back_insert_iterator@V?$basic_string@DU?$char_traits@D@std@@V?$allocator@D@2@@std@@@std@@@std@@2V0locale@2@A DD 01H DUP (?) ; std::num_put<char,std::back_insert_iterator<std::basic_string<char,std::char_traits<char>,std::allocator<char> > > >::id
_BSS	ENDS
;	COMDAT ?id@?$num_put@_WV?$back_insert_iterator@V?$basic_string@_WU?$char_traits@_W@std@@V?$allocator@_W@2@@std@@@std@@@std@@2V0locale@2@A
_BSS	SEGMENT
?id@?$num_put@_WV?$back_insert_iterator@V?$basic_string@_WU?$char_traits@_W@std@@V?$allocator@_W@2@@std@@@std@@@std@@2V0locale@2@A DD 01H DUP (?) ; std::num_put<wchar_t,std::back_insert_iterator<std::basic_string<wchar_t,std::char_traits<wchar_t>,std::allocator<wchar_t> > > >::id
_BSS	ENDS
;	COMDAT ?SPEED_CLAMP@?1??GetDoppler@OTWDriverClass@@QAEMMMMMMM@Z@4MB
_BSS	SEGMENT
?SPEED_CLAMP@?1??GetDoppler@OTWDriverClass@@QAEMMMMMMM@Z@4MB DD 01H DUP (?) ; `OTWDriverClass::GetDoppler'::`2'::SPEED_CLAMP
_BSS	ENDS
;	COMDAT ?$S1@?1??GetDoppler@OTWDriverClass@@QAEMMMMMMM@Z@4IA
_BSS	SEGMENT
?$S1@?1??GetDoppler@OTWDriverClass@@QAEMMMMMMM@Z@4IA DD 01H DUP (?) ; `OTWDriverClass::GetDoppler'::`2'::$S1
_BSS	ENDS
;	COMDAT ?LODlie@?1??DrawExternalViewTarget@OTWDriverClass@@AAEXXZ@4HA
_BSS	SEGMENT
?LODlie@?1??DrawExternalViewTarget@OTWDriverClass@@AAEXXZ@4HA DD 01H DUP (?) ; `OTWDriverClass::DrawExternalViewTarget'::`2'::LODlie
_BSS	ENDS
;	COMDAT ?id@?$numpunct@D@std@@2V0locale@2@A
_BSS	SEGMENT
?id@?$numpunct@D@std@@2V0locale@2@A DD 01H DUP (?)	; std::numpunct<char>::id
_BSS	ENDS
;	COMDAT ?id@?$numpunct@_W@std@@2V0locale@2@A
_BSS	SEGMENT
?id@?$numpunct@_W@std@@2V0locale@2@A DD 01H DUP (?)	; std::numpunct<wchar_t>::id
_BSS	ENDS
CRT$XCU	SEGMENT
_piecewise_construct$initializer$ DD FLAT:??__Epiecewise_construct@std@@YAXXZ
CRT$XCU	ENDS
;	COMDAT __xmm@80000000800000008000000080000000
CONST	SEGMENT
__xmm@80000000800000008000000080000000 DB 00H, 00H, 00H, 080H, 00H, 00H, 00H
	DB	080H, 00H, 00H, 00H, 080H, 00H, 00H, 00H, 080H
CONST	ENDS
;	COMDAT __xmm@41f00000000000000000000000000000
CONST	SEGMENT
__xmm@41f00000000000000000000000000000 DB 00H, 00H, 00H, 00H, 00H, 00H, 00H
	DB	00H, 00H, 00H, 00H, 00H, 00H, 00H, 0f0H, 'A'
CONST	ENDS
;	COMDAT __real@c4610000
CONST	SEGMENT
__real@c4610000 DD 0c4610000r			; -900
CONST	ENDS
;	COMDAT __real@c2c80000
CONST	SEGMENT
__real@c2c80000 DD 0c2c80000r			; -100
CONST	ENDS
;	COMDAT __real@c2480000
CONST	SEGMENT
__real@c2480000 DD 0c2480000r			; -50
CONST	ENDS
;	COMDAT __real@c0490fd9
CONST	SEGMENT
__real@c0490fd9 DD 0c0490fd9r			; -3.14159
CONST	ENDS
;	COMDAT __real@bff921fb54442d18
CONST	SEGMENT
__real@bff921fb54442d18 DQ 0bff921fb54442d18r	; -1.5708
CONST	ENDS
;	COMDAT __real@bfc90fd9
CONST	SEGMENT
__real@bfc90fd9 DD 0bfc90fd9r			; -1.5708
CONST	ENDS
;	COMDAT __real@bfa78d35
CONST	SEGMENT
__real@bfa78d35 DD 0bfa78d35r			; -1.309
CONST	ENDS
;	COMDAT __real@bf800000
CONST	SEGMENT
__real@bf800000 DD 0bf800000r			; -1
CONST	ENDS
;	COMDAT __real@bf490fd9
CONST	SEGMENT
__real@bf490fd9 DD 0bf490fd9r			; -0.785398
CONST	ENDS
;	COMDAT __real@8000000000000000
CONST	SEGMENT
__real@8000000000000000 DQ 08000000000000000r	; -0
CONST	ENDS
;	COMDAT __real@466a6000
CONST	SEGMENT
__real@466a6000 DD 0466a6000r			; 15000
CONST	ENDS
;	COMDAT __real@44610000
CONST	SEGMENT
__real@44610000 DD 044610000r			; 900
CONST	ENDS
;	COMDAT __real@44480000
CONST	SEGMENT
__real@44480000 DD 044480000r			; 800
CONST	ENDS
;	COMDAT __real@43fa0000
CONST	SEGMENT
__real@43fa0000 DD 043fa0000r			; 500
CONST	ENDS
;	COMDAT __real@43480000
CONST	SEGMENT
__real@43480000 DD 043480000r			; 200
CONST	ENDS
;	COMDAT __real@42480000
CONST	SEGMENT
__real@42480000 DD 042480000r			; 50
CONST	ENDS
;	COMDAT __real@42200000
CONST	SEGMENT
__real@42200000 DD 042200000r			; 40
CONST	ENDS
;	COMDAT __real@41c80000
CONST	SEGMENT
__real@41c80000 DD 041c80000r			; 25
CONST	ENDS
;	COMDAT __real@41a00000
CONST	SEGMENT
__real@41a00000 DD 041a00000r			; 20
CONST	ENDS
;	COMDAT __real@41200000
CONST	SEGMENT
__real@41200000 DD 041200000r			; 10
CONST	ENDS
;	COMDAT __real@40c90fd9
CONST	SEGMENT
__real@40c90fd9 DD 040c90fd9r			; 6.28318
CONST	ENDS
;	COMDAT __real@40a00000
CONST	SEGMENT
__real@40a00000 DD 040a00000r			; 5
CONST	ENDS
;	COMDAT __real@40800000
CONST	SEGMENT
__real@40800000 DD 040800000r			; 4
CONST	ENDS
;	COMDAT __real@40490fd9
CONST	SEGMENT
__real@40490fd9 DD 040490fd9r			; 3.14159
CONST	ENDS
;	COMDAT __real@400921fb54442d18
CONST	SEGMENT
__real@400921fb54442d18 DQ 0400921fb54442d18r	; 3.14159
CONST	ENDS
;	COMDAT __real@40000000
CONST	SEGMENT
__real@40000000 DD 040000000r			; 2
CONST	ENDS
;	COMDAT __real@3ff921fb54442d18
CONST	SEGMENT
__real@3ff921fb54442d18 DQ 03ff921fb54442d18r	; 1.5708
CONST	ENDS
;	COMDAT __real@3fc90fdb
CONST	SEGMENT
__real@3fc90fdb DD 03fc90fdbr			; 1.5708
CONST	ENDS
;	COMDAT __real@3fc90fd9
CONST	SEGMENT
__real@3fc90fd9 DD 03fc90fd9r			; 1.5708
CONST	ENDS
;	COMDAT __real@3fa78d35
CONST	SEGMENT
__real@3fa78d35 DD 03fa78d35r			; 1.309
CONST	ENDS
;	COMDAT __real@3f800000
CONST	SEGMENT
__real@3f800000 DD 03f800000r			; 1
CONST	ENDS
;	COMDAT __real@3f490fd9
CONST	SEGMENT
__real@3f490fd9 DD 03f490fd9r			; 0.785398
CONST	ENDS
;	COMDAT __real@3f19999a
CONST	SEGMENT
__real@3f19999a DD 03f19999ar			; 0.6
CONST	ENDS
;	COMDAT __real@3f170a3d
CONST	SEGMENT
__real@3f170a3d DD 03f170a3dr			; 0.59
CONST	ENDS
;	COMDAT __real@3f0ccccd
CONST	SEGMENT
__real@3f0ccccd DD 03f0ccccdr			; 0.55
CONST	ENDS
;	COMDAT __real@3f000000
CONST	SEGMENT
__real@3f000000 DD 03f000000r			; 0.5
CONST	ENDS
;	COMDAT __real@3dcccccd
CONST	SEGMENT
__real@3dcccccd DD 03dcccccdr			; 0.1
CONST	ENDS
;	COMDAT __real@3c23d70a
CONST	SEGMENT
__real@3c23d70a DD 03c23d70ar			; 0.01
CONST	ENDS
;	COMDAT __real@3a83126f
CONST	SEGMENT
__real@3a83126f DD 03a83126fr			; 0.001
CONST	ENDS
;	COMDAT __real@0000000000000000
CONST	SEGMENT
__real@0000000000000000 DQ 00000000000000000r	; 0
CONST	ENDS
;	COMDAT __real@00000000
CONST	SEGMENT
__real@00000000 DD 000000000r			; 0
CONST	ENDS
;	COMDAT ??_R1A@?0A@EA@_System_error_category@std@@8
rdata$r	SEGMENT
??_R1A@?0A@EA@_System_error_category@std@@8 DD FLAT:??_R0?AV_System_error_category@std@@@8 ; std::_System_error_category::`RTTI Base Class Descriptor at (0,-1,0,64)'
	DD	02H
	DD	00H
	DD	0ffffffffH
	DD	00H
	DD	040H
	DD	FLAT:??_R3_System_error_category@std@@8
rdata$r	ENDS
;	COMDAT ??_R2_System_error_category@std@@8
rdata$r	SEGMENT
??_R2_System_error_category@std@@8 DD FLAT:??_R1A@?0A@EA@_System_error_category@std@@8 ; std::_System_error_category::`RTTI Base Class Array'
	DD	FLAT:??_R1A@?0A@EA@_Generic_error_category@std@@8
	DD	FLAT:??_R1A@?0A@EA@error_category@std@@8
rdata$r	ENDS
;	COMDAT ??_R3_System_error_category@std@@8
rdata$r	SEGMENT
??_R3_System_error_category@std@@8 DD 00H		; std::_System_error_category::`RTTI Class Hierarchy Descriptor'
	DD	00H
	DD	03H
	DD	FLAT:??_R2_System_error_category@std@@8
rdata$r	ENDS
;	COMDAT ??_R0?AV_System_error_category@std@@@8
_DATA	SEGMENT
??_R0?AV_System_error_category@std@@@8 DD FLAT:??_7type_info@@6B@ ; std::_System_error_category `RTTI Type Descriptor'
	DD	00H
	DB	'.?AV_System_error_category@std@@', 00H
_DATA	ENDS
;	COMDAT ??_R4_System_error_category@std@@6B@
rdata$r	SEGMENT
??_R4_System_error_category@std@@6B@ DD 00H		; std::_System_error_category::`RTTI Complete Object Locator'
	DD	00H
	DD	00H
	DD	FLAT:??_R0?AV_System_error_category@std@@@8
	DD	FLAT:??_R3_System_error_category@std@@8
rdata$r	ENDS
;	COMDAT ??_R1A@?0A@EA@_Iostream_error_category@std@@8
rdata$r	SEGMENT
??_R1A@?0A@EA@_Iostream_error_category@std@@8 DD FLAT:??_R0?AV_Iostream_error_category@std@@@8 ; std::_Iostream_error_category::`RTTI Base Class Descriptor at (0,-1,0,64)'
	DD	02H
	DD	00H
	DD	0ffffffffH
	DD	00H
	DD	040H
	DD	FLAT:??_R3_Iostream_error_category@std@@8
rdata$r	ENDS
;	COMDAT ??_R2_Iostream_error_category@std@@8
rdata$r	SEGMENT
??_R2_Iostream_error_category@std@@8 DD FLAT:??_R1A@?0A@EA@_Iostream_error_category@std@@8 ; std::_Iostream_error_category::`RTTI Base Class Array'
	DD	FLAT:??_R1A@?0A@EA@_Generic_error_category@std@@8
	DD	FLAT:??_R1A@?0A@EA@error_category@std@@8
rdata$r	ENDS
;	COMDAT ??_R3_Iostream_error_category@std@@8
rdata$r	SEGMENT
??_R3_Iostream_error_category@std@@8 DD 00H		; std::_Iostream_error_category::`RTTI Class Hierarchy Descriptor'
	DD	00H
	DD	03H
	DD	FLAT:??_R2_Iostream_error_category@std@@8
rdata$r	ENDS
;	COMDAT ??_R0?AV_Iostream_error_category@std@@@8
_DATA	SEGMENT
??_R0?AV_Iostream_error_category@std@@@8 DD FLAT:??_7type_info@@6B@ ; std::_Iostream_error_category `RTTI Type Descriptor'
	DD	00H
	DB	'.?AV_Iostream_error_category@std@@', 00H
_DATA	ENDS
;	COMDAT ??_R4_Iostream_error_category@std@@6B@
rdata$r	SEGMENT
??_R4_Iostream_error_category@std@@6B@ DD 00H		; std::_Iostream_error_category::`RTTI Complete Object Locator'
	DD	00H
	DD	00H
	DD	FLAT:??_R0?AV_Iostream_error_category@std@@@8
	DD	FLAT:??_R3_Iostream_error_category@std@@8
rdata$r	ENDS
;	COMDAT ??_R1A@?0A@EA@_Generic_error_category@std@@8
rdata$r	SEGMENT
??_R1A@?0A@EA@_Generic_error_category@std@@8 DD FLAT:??_R0?AV_Generic_error_category@std@@@8 ; std::_Generic_error_category::`RTTI Base Class Descriptor at (0,-1,0,64)'
	DD	01H
	DD	00H
	DD	0ffffffffH
	DD	00H
	DD	040H
	DD	FLAT:??_R3_Generic_error_category@std@@8
rdata$r	ENDS
;	COMDAT ??_R2_Generic_error_category@std@@8
rdata$r	SEGMENT
??_R2_Generic_error_category@std@@8 DD FLAT:??_R1A@?0A@EA@_Generic_error_category@std@@8 ; std::_Generic_error_category::`RTTI Base Class Array'
	DD	FLAT:??_R1A@?0A@EA@error_category@std@@8
rdata$r	ENDS
;	COMDAT ??_R3_Generic_error_category@std@@8
rdata$r	SEGMENT
??_R3_Generic_error_category@std@@8 DD 00H		; std::_Generic_error_category::`RTTI Class Hierarchy Descriptor'
	DD	00H
	DD	02H
	DD	FLAT:??_R2_Generic_error_category@std@@8
rdata$r	ENDS
;	COMDAT ??_R0?AV_Generic_error_category@std@@@8
_DATA	SEGMENT
??_R0?AV_Generic_error_category@std@@@8 DD FLAT:??_7type_info@@6B@ ; std::_Generic_error_category `RTTI Type Descriptor'
	DD	00H
	DB	'.?AV_Generic_error_category@std@@', 00H
_DATA	ENDS
;	COMDAT ??_R4_Generic_error_category@std@@6B@
rdata$r	SEGMENT
??_R4_Generic_error_category@std@@6B@ DD 00H		; std::_Generic_error_category::`RTTI Complete Object Locator'
	DD	00H
	DD	00H
	DD	FLAT:??_R0?AV_Generic_error_category@std@@@8
	DD	FLAT:??_R3_Generic_error_category@std@@8
rdata$r	ENDS
;	COMDAT ??_R1A@?0A@EA@error_category@std@@8
rdata$r	SEGMENT
??_R1A@?0A@EA@error_category@std@@8 DD FLAT:??_R0?AVerror_category@std@@@8 ; std::error_category::`RTTI Base Class Descriptor at (0,-1,0,64)'
	DD	00H
	DD	00H
	DD	0ffffffffH
	DD	00H
	DD	040H
	DD	FLAT:??_R3error_category@std@@8
rdata$r	ENDS
;	COMDAT ??_R2error_category@std@@8
rdata$r	SEGMENT
??_R2error_category@std@@8 DD FLAT:??_R1A@?0A@EA@error_category@std@@8 ; std::error_category::`RTTI Base Class Array'
rdata$r	ENDS
;	COMDAT ??_R3error_category@std@@8
rdata$r	SEGMENT
??_R3error_category@std@@8 DD 00H			; std::error_category::`RTTI Class Hierarchy Descriptor'
	DD	00H
	DD	01H
	DD	FLAT:??_R2error_category@std@@8
rdata$r	ENDS
;	COMDAT ??_R0?AVerror_category@std@@@8
_DATA	SEGMENT
??_R0?AVerror_category@std@@@8 DD FLAT:??_7type_info@@6B@ ; std::error_category `RTTI Type Descriptor'
	DD	00H
	DB	'.?AVerror_category@std@@', 00H
_DATA	ENDS
;	COMDAT ??_R4error_category@std@@6B@
rdata$r	SEGMENT
??_R4error_category@std@@6B@ DD 00H			; std::error_category::`RTTI Complete Object Locator'
	DD	00H
	DD	00H
	DD	FLAT:??_R0?AVerror_category@std@@@8
	DD	FLAT:??_R3error_category@std@@8
rdata$r	ENDS
;	COMDAT ??_C@_0BA@JFNIOLAK@string?5too?5long?$AA@
CONST	SEGMENT
??_C@_0BA@JFNIOLAK@string?5too?5long?$AA@ DB 'string too long', 00H ; `string'
CONST	ENDS
;	COMDAT ??_C@_0BI@CFPLBAOH@invalid?5string?5position?$AA@
CONST	SEGMENT
??_C@_0BI@CFPLBAOH@invalid?5string?5position?$AA@ DB 'invalid string posi'
	DB	'tion', 00H					; `string'
CONST	ENDS
;	COMDAT ?APPROX_MACH@?1??GetDoppler@OTWDriverClass@@QAEMMMMMMM@Z@4MB
CONST	SEGMENT
?APPROX_MACH@?1??GetDoppler@OTWDriverClass@@QAEMMMMMMM@Z@4MB DD 0447a0000r ; 1000 ; `OTWDriverClass::GetDoppler'::`2'::APPROX_MACH
CONST	ENDS
;	COMDAT ??_C@_06FHFOAHML@system?$AA@
CONST	SEGMENT
??_C@_06FHFOAHML@system?$AA@ DB 'system', 00H		; `string'
CONST	ENDS
;	COMDAT ??_7_System_error_category@std@@6B@
CONST	SEGMENT
??_7_System_error_category@std@@6B@ DD FLAT:??_R4_System_error_category@std@@6B@ ; std::_System_error_category::`vftable'
	DD	FLAT:??_E_System_error_category@std@@UAEPAXI@Z
	DD	FLAT:?name@_System_error_category@std@@UBEPBDXZ
	DD	FLAT:?message@_System_error_category@std@@UBE?AV?$basic_string@DU?$char_traits@D@std@@V?$allocator@D@2@@2@H@Z
	DD	FLAT:?default_error_condition@_System_error_category@std@@UBE?AVerror_condition@2@H@Z
	DD	FLAT:?equivalent@error_category@std@@UBE_NABVerror_code@2@H@Z
	DD	FLAT:?equivalent@error_category@std@@UBE_NHABVerror_condition@2@@Z
CONST	ENDS
;	COMDAT ??_C@_0BG@PADBLCHM@iostream?5stream?5error?$AA@
CONST	SEGMENT
??_C@_0BG@PADBLCHM@iostream?5stream?5error?$AA@ DB 'iostream stream error'
	DB	00H						; `string'
CONST	ENDS
;	COMDAT ??_C@_08LLGCOLLL@iostream?$AA@
CONST	SEGMENT
??_C@_08LLGCOLLL@iostream?$AA@ DB 'iostream', 00H	; `string'
CONST	ENDS
;	COMDAT ??_7_Iostream_error_category@std@@6B@
CONST	SEGMENT
??_7_Iostream_error_category@std@@6B@ DD FLAT:??_R4_Iostream_error_category@std@@6B@ ; std::_Iostream_error_category::`vftable'
	DD	FLAT:??_E_Iostream_error_category@std@@UAEPAXI@Z
	DD	FLAT:?name@_Iostream_error_category@std@@UBEPBDXZ
	DD	FLAT:?message@_Iostream_error_category@std@@UBE?AV?$basic_string@DU?$char_traits@D@std@@V?$allocator@D@2@@2@H@Z
	DD	FLAT:?default_error_condition@error_category@std@@UBE?AVerror_condition@2@H@Z
	DD	FLAT:?equivalent@error_category@std@@UBE_NABVerror_code@2@H@Z
	DD	FLAT:?equivalent@error_category@std@@UBE_NHABVerror_condition@2@@Z
CONST	ENDS
;	COMDAT ??_C@_0O@BFJCFAAK@unknown?5error?$AA@
CONST	SEGMENT
??_C@_0O@BFJCFAAK@unknown?5error?$AA@ DB 'unknown error', 00H ; `string'
CONST	ENDS
;	COMDAT ??_C@_07DCLBNMLN@generic?$AA@
CONST	SEGMENT
??_C@_07DCLBNMLN@generic?$AA@ DB 'generic', 00H		; `string'
CONST	ENDS
;	COMDAT ??_7_Generic_error_category@std@@6B@
CONST	SEGMENT
??_7_Generic_error_category@std@@6B@ DD FLAT:??_R4_Generic_error_category@std@@6B@ ; std::_Generic_error_category::`vftable'
	DD	FLAT:??_E_Generic_error_category@std@@UAEPAXI@Z
	DD	FLAT:?name@_Generic_error_category@std@@UBEPBDXZ
	DD	FLAT:?message@_Generic_error_category@std@@UBE?AV?$basic_string@DU?$char_traits@D@std@@V?$allocator@D@2@@2@H@Z
	DD	FLAT:?default_error_condition@error_category@std@@UBE?AVerror_condition@2@H@Z
	DD	FLAT:?equivalent@error_category@std@@UBE_NABVerror_code@2@H@Z
	DD	FLAT:?equivalent@error_category@std@@UBE_NHABVerror_condition@2@@Z
CONST	ENDS
;	COMDAT ??_7error_category@std@@6B@
CONST	SEGMENT
??_7error_category@std@@6B@ DD FLAT:??_R4error_category@std@@6B@ ; std::error_category::`vftable'
	DD	FLAT:??_Eerror_category@std@@UAEPAXI@Z
	DD	FLAT:__purecall
	DD	FLAT:__purecall
	DD	FLAT:?default_error_condition@error_category@std@@UBE?AVerror_condition@2@H@Z
	DD	FLAT:?equivalent@error_category@std@@UBE_NABVerror_code@2@H@Z
	DD	FLAT:?equivalent@error_category@std@@UBE_NHABVerror_condition@2@@Z
CONST	ENDS
;	COMDAT xdata$x
xdata$x	SEGMENT
__unwindtable$??$construct@PADAAPAD@?$allocator@D@std@@QAEXPAPADAAPAD@Z DD 0ffffffffH
	DD	FLAT:__unwindfunclet$??$construct@PADAAPAD@?$allocator@D@std@@QAEXPAPADAAPAD@Z$0
__ehfuncinfo$??$construct@PADAAPAD@?$allocator@D@std@@QAEXPAPADAAPAD@Z DD 019930522H
	DD	01H
	DD	FLAT:__unwindtable$??$construct@PADAAPAD@?$allocator@D@std@@QAEXPAPADAAPAD@Z
	DD	2 DUP(00H)
	DD	2 DUP(00H)
	DD	00H
	DD	01H
xdata$x	ENDS
xdata$x	SEGMENT
__unwindtable$?BuildExternalNearList@OTWDriverClass@@AAEXXZ DD 0ffffffffH
	DD	FLAT:__unwindfunclet$?BuildExternalNearList@OTWDriverClass@@AAEXXZ$0
__ehfuncinfo$?BuildExternalNearList@OTWDriverClass@@AAEXXZ DD 019930522H
	DD	01H
	DD	FLAT:__unwindtable$?BuildExternalNearList@OTWDriverClass@@AAEXXZ
	DD	2 DUP(00H)
	DD	2 DUP(00H)
	DD	00H
	DD	01H
xdata$x	ENDS
;	COMDAT xdata$x
xdata$x	SEGMENT
__catchsym$?_Copy@?$basic_string@DU?$char_traits@D@std@@V?$allocator@D@2@@std@@QAEXII@Z$5 DD 040H
	DD	00H
	DD	00H
	DD	FLAT:__catch$?_Copy@?$basic_string@DU?$char_traits@D@std@@V?$allocator@D@2@@std@@QAEXII@Z$0
__catchsym$?_Copy@?$basic_string@DU?$char_traits@D@std@@V?$allocator@D@2@@std@@QAEXII@Z$4 DD 040H
	DD	00H
	DD	00H
	DD	FLAT:__catch$?_Copy@?$basic_string@DU?$char_traits@D@std@@V?$allocator@D@2@@std@@QAEXII@Z$1
__unwindtable$?_Copy@?$basic_string@DU?$char_traits@D@std@@V?$allocator@D@2@@std@@QAEXII@Z DD 0ffffffffH
	DD	00H
	DD	0ffffffffH
	DD	00H
	DD	01H
	DD	00H
	DD	01H
	DD	00H
__ehfuncinfo$?_Copy@?$basic_string@DU?$char_traits@D@std@@V?$allocator@D@2@@std@@QAEXII@Z DD 019930522H
	DD	04H
	DD	FLAT:__unwindtable$?_Copy@?$basic_string@DU?$char_traits@D@std@@V?$allocator@D@2@@std@@QAEXII@Z
	DD	02H
	DD	FLAT:__tryblocktable$?_Copy@?$basic_string@DU?$char_traits@D@std@@V?$allocator@D@2@@std@@QAEXII@Z
	DD	2 DUP(00H)
	DD	00H
	DD	01H
__tryblocktable$?_Copy@?$basic_string@DU?$char_traits@D@std@@V?$allocator@D@2@@std@@QAEXII@Z DD 02H
	DD	02H
	DD	03H
	DD	01H
	DD	FLAT:__catchsym$?_Copy@?$basic_string@DU?$char_traits@D@std@@V?$allocator@D@2@@std@@QAEXII@Z$4
	DD	00H
	DD	00H
	DD	03H
	DD	01H
	DD	FLAT:__catchsym$?_Copy@?$basic_string@DU?$char_traits@D@std@@V?$allocator@D@2@@std@@QAEXII@Z$5
xdata$x	ENDS
CRT$XCU	SEGMENT
_allocator_arg$initializer$ DD FLAT:??__Eallocator_arg@std@@YAXXZ
CRT$XCU	ENDS
;	COMDAT CRT$XCU
CRT$XCU	SEGMENT
?_Generic_object$initializer$@?$_Error_objects@H@std@@2P6AXXZA DD FLAT:??__E?_Generic_object@?$_Error_objects@H@std@@2V_Generic_error_category@2@A@@YAXXZ ; std::_Error_objects<int>::_Generic_object$initializer$
CRT$XCU	ENDS
;	COMDAT CRT$XCU
CRT$XCU	SEGMENT
?_Iostream_object$initializer$@?$_Error_objects@H@std@@2P6AXXZA DD FLAT:??__E?_Iostream_object@?$_Error_objects@H@std@@2V_Iostream_error_category@2@A@@YAXXZ ; std::_Error_objects<int>::_Iostream_object$initializer$
CRT$XCU	ENDS
;	COMDAT CRT$XCU
CRT$XCU	SEGMENT
?_System_object$initializer$@?$_Error_objects@H@std@@2P6AXXZA DD FLAT:??__E?_System_object@?$_Error_objects@H@std@@2V_System_error_category@2@A@@YAXXZ ; std::_Error_objects<int>::_System_object$initializer$
CRT$XCU	ENDS
;	COMDAT CRT$XCU
CRT$XCU	SEGMENT
?id$initializer$@?$num_put@DV?$back_insert_iterator@V?$basic_string@DU?$char_traits@D@std@@V?$allocator@D@2@@std@@@std@@@std@@2P6AXXZA DD FLAT:??__E?id@?$num_put@DV?$back_insert_iterator@V?$basic_string@DU?$char_traits@D@std@@V?$allocator@D@2@@std@@@std@@@std@@2V0locale@2@A@@YAXXZ ; std::num_put<char,std::back_insert_iterator<std::basic_string<char,std::char_traits<char>,std::allocator<char> > > >::id$initializer$
CRT$XCU	ENDS
;	COMDAT CRT$XCU
CRT$XCU	SEGMENT
?id$initializer$@?$num_put@_WV?$back_insert_iterator@V?$basic_string@_WU?$char_traits@_W@std@@V?$allocator@_W@2@@std@@@std@@@std@@2P6AXXZA DD FLAT:??__E?id@?$num_put@_WV?$back_insert_iterator@V?$basic_string@_WU?$char_traits@_W@std@@V?$allocator@_W@2@@std@@@std@@@std@@2V0locale@2@A@@YAXXZ ; std::num_put<wchar_t,std::back_insert_iterator<std::basic_string<wchar_t,std::char_traits<wchar_t>,std::allocator<wchar_t> > > >::id$initializer$
CRT$XCU	ENDS
;	COMDAT CRT$XCU
CRT$XCU	SEGMENT
?id$initializer$@?$numpunct@D@std@@2P6AXXZA DD FLAT:??__E?id@?$numpunct@D@std@@2V0locale@2@A@@YAXXZ ; std::numpunct<char>::id$initializer$
CRT$XCU	ENDS
;	COMDAT CRT$XCU
CRT$XCU	SEGMENT
?id$initializer$@?$numpunct@_W@std@@2P6AXXZA DD FLAT:??__E?id@?$numpunct@_W@std@@2V0locale@2@A@@YAXXZ ; std::numpunct<wchar_t>::id$initializer$
CRT$XCU	ENDS
; Function compile flags: /Odtp
; File c:\program files (x86)\microsoft visual studio 11.0\vc\include\xmemory0
;	COMDAT ??$destroy@PAD@?$allocator@D@std@@QAEXPAPAD@Z
_TEXT	SEGMENT
_this$ = -4						; size = 4
__Ptr$ = 8						; size = 4
??$destroy@PAD@?$allocator@D@std@@QAEXPAPAD@Z PROC	; std::allocator<char>::destroy<char *>, COMDAT
; _this$ = ecx

; 621  : 		void destroy(_Uty *_Ptr)

	push	ebp
	mov	ebp, esp
	push	ecx
	mov	DWORD PTR _this$[ebp], ecx

; 622  : 		{	// destroy object at _Ptr
; 623  : 		_Ptr->~_Uty();
; 624  : 		}

	mov	esp, ebp
	pop	ebp
	ret	4
??$destroy@PAD@?$allocator@D@std@@QAEXPAPAD@Z ENDP	; std::allocator<char>::destroy<char *>
_TEXT	ENDS
; Function compile flags: /Odtp
; File c:\program files (x86)\microsoft visual studio 11.0\vc\include\xmemory0
;	COMDAT ??$construct@PADAAPAD@?$allocator@D@std@@QAEXPAPADAAPAD@Z
_TEXT	SEGMENT
$T2 = -28						; size = 4
_this$ = -24						; size = 4
tv73 = -20						; size = 4
$T3 = -16						; size = 4
__$EHRec$ = -12						; size = 12
__Ptr$ = 8						; size = 4
__V0$ = 12						; size = 4
??$construct@PADAAPAD@?$allocator@D@std@@QAEXPAPADAAPAD@Z PROC ; std::allocator<char>::construct<char *,char * &>, COMDAT
; _this$ = ecx

; 617  : _VARIADIC_EXPAND_0X(_ALLOC_MEMBER_CONSTRUCT, , , , )

	push	ebp
	mov	ebp, esp
	push	-1
	push	__ehhandler$??$construct@PADAAPAD@?$allocator@D@std@@QAEXPAPADAAPAD@Z
	mov	eax, DWORD PTR fs:0
	push	eax
	sub	esp, 16					; 00000010H
	mov	eax, DWORD PTR ___security_cookie
	xor	eax, ebp
	push	eax
	lea	eax, DWORD PTR __$EHRec$[ebp]
	mov	DWORD PTR fs:0, eax
	mov	DWORD PTR _this$[ebp], ecx
	mov	eax, DWORD PTR __Ptr$[ebp]
	push	eax
	push	4
	call	??2@YAPAXIPAX@Z				; operator new
	add	esp, 8
	mov	DWORD PTR $T3[ebp], eax
	mov	DWORD PTR __$EHRec$[ebp+8], 0
	cmp	DWORD PTR $T3[ebp], 0
	je	SHORT $LN3@construct
	mov	ecx, DWORD PTR __V0$[ebp]
	push	ecx
	call	??$forward@AAPAD@std@@YAAAPADAAPAD@Z	; std::forward<char * &>
	add	esp, 4
	mov	edx, DWORD PTR $T3[ebp]
	mov	eax, DWORD PTR [eax]
	mov	DWORD PTR [edx], eax
	mov	ecx, DWORD PTR $T3[ebp]
	mov	DWORD PTR tv73[ebp], ecx
	jmp	SHORT $LN4@construct
$LN3@construct:
	mov	DWORD PTR tv73[ebp], 0
$LN4@construct:
	mov	edx, DWORD PTR tv73[ebp]
	mov	DWORD PTR $T2[ebp], edx
	mov	DWORD PTR __$EHRec$[ebp+8], -1
	mov	ecx, DWORD PTR __$EHRec$[ebp]
	mov	DWORD PTR fs:0, ecx
	pop	ecx
	mov	esp, ebp
	pop	ebp
	ret	8
_TEXT	ENDS
;	COMDAT text$x
text$x	SEGMENT
__unwindfunclet$??$construct@PADAAPAD@?$allocator@D@std@@QAEXPAPADAAPAD@Z$0:
	mov	eax, DWORD PTR __Ptr$[ebp]
	push	eax
	mov	eax, DWORD PTR $T3[ebp]
	push	eax
	call	??3@YAXPAX0@Z				; operator delete
	add	esp, 8
	ret	0
__ehhandler$??$construct@PADAAPAD@?$allocator@D@std@@QAEXPAPADAAPAD@Z:
	mov	edx, DWORD PTR [esp+8]
	lea	eax, DWORD PTR [edx+12]
	mov	ecx, DWORD PTR [edx-20]
	xor	ecx, eax
	call	@__security_check_cookie@4
	mov	eax, OFFSET __ehfuncinfo$??$construct@PADAAPAD@?$allocator@D@std@@QAEXPAPADAAPAD@Z
	jmp	___CxxFrameHandler3
text$x	ENDS
??$construct@PADAAPAD@?$allocator@D@std@@QAEXPAPADAAPAD@Z ENDP ; std::allocator<char>::construct<char *,char * &>
; Function compile flags: /Odtp
; File c:\program files (x86)\microsoft visual studio 11.0\vc\include\xlocnum
;	COMDAT ??__E?id@?$numpunct@_W@std@@2V0locale@2@A@@YAXXZ
text$yc	SEGMENT
??__E?id@?$numpunct@_W@std@@2V0locale@2@A@@YAXXZ PROC	; `dynamic initializer for 'std::numpunct<wchar_t>::id'', COMDAT

; 155  : 		void _Getvals(wchar_t, const lconv *_Ptr, _Locinfo::_Cvtvec)

	push	ebp
	mov	ebp, esp
	push	0
	mov	ecx, OFFSET ?id@?$numpunct@_W@std@@2V0locale@2@A ; std::numpunct<wchar_t>::id
	call	??0id@locale@std@@QAE@I@Z		; std::locale::id::id
	pop	ebp
	ret	0
??__E?id@?$numpunct@_W@std@@2V0locale@2@A@@YAXXZ ENDP	; `dynamic initializer for 'std::numpunct<wchar_t>::id''
text$yc	ENDS
; Function compile flags: /Odtp
; File c:\program files (x86)\microsoft visual studio 11.0\vc\include\xlocnum
;	COMDAT ??__E?id@?$numpunct@D@std@@2V0locale@2@A@@YAXXZ
text$yc	SEGMENT
??__E?id@?$numpunct@D@std@@2V0locale@2@A@@YAXXZ PROC	; `dynamic initializer for 'std::numpunct<char>::id'', COMDAT

; 155  : 		void _Getvals(wchar_t, const lconv *_Ptr, _Locinfo::_Cvtvec)

	push	ebp
	mov	ebp, esp
	push	0
	mov	ecx, OFFSET ?id@?$numpunct@D@std@@2V0locale@2@A ; std::numpunct<char>::id
	call	??0id@locale@std@@QAE@I@Z		; std::locale::id::id
	pop	ebp
	ret	0
??__E?id@?$numpunct@D@std@@2V0locale@2@A@@YAXXZ ENDP	; `dynamic initializer for 'std::numpunct<char>::id''
text$yc	ENDS
; Function compile flags: /Odtp
; File c:\program files (x86)\microsoft visual studio 11.0\vc\include\xlocnum
;	COMDAT ??__E?id@?$num_put@_WV?$back_insert_iterator@V?$basic_string@_WU?$char_traits@_W@std@@V?$allocator@_W@2@@std@@@std@@@std@@2V0locale@2@A@@YAXXZ
text$yc	SEGMENT
??__E?id@?$num_put@_WV?$back_insert_iterator@V?$basic_string@_WU?$char_traits@_W@std@@V?$allocator@_W@2@@std@@@std@@@std@@2V0locale@2@A@@YAXXZ PROC ; `dynamic initializer for 'std::num_put<wchar_t,std::back_insert_iterator<std::basic_string<wchar_t,std::char_traits<wchar_t>,std::allocator<wchar_t> > > >::id'', COMDAT

; 155  : 		void _Getvals(wchar_t, const lconv *_Ptr, _Locinfo::_Cvtvec)

	push	ebp
	mov	ebp, esp
	push	0
	mov	ecx, OFFSET ?id@?$num_put@_WV?$back_insert_iterator@V?$basic_string@_WU?$char_traits@_W@std@@V?$allocator@_W@2@@std@@@std@@@std@@2V0locale@2@A ; std::num_put<wchar_t,std::back_insert_iterator<std::basic_string<wchar_t,std::char_traits<wchar_t>,std::allocator<wchar_t> > > >::id
	call	??0id@locale@std@@QAE@I@Z		; std::locale::id::id
	pop	ebp
	ret	0
??__E?id@?$num_put@_WV?$back_insert_iterator@V?$basic_string@_WU?$char_traits@_W@std@@V?$allocator@_W@2@@std@@@std@@@std@@2V0locale@2@A@@YAXXZ ENDP ; `dynamic initializer for 'std::num_put<wchar_t,std::back_insert_iterator<std::basic_string<wchar_t,std::char_traits<wchar_t>,std::allocator<wchar_t> > > >::id''
text$yc	ENDS
; Function compile flags: /Odtp
; File c:\program files (x86)\microsoft visual studio 11.0\vc\include\xlocnum
;	COMDAT ??__E?id@?$num_put@DV?$back_insert_iterator@V?$basic_string@DU?$char_traits@D@std@@V?$allocator@D@2@@std@@@std@@@std@@2V0locale@2@A@@YAXXZ
text$yc	SEGMENT
??__E?id@?$num_put@DV?$back_insert_iterator@V?$basic_string@DU?$char_traits@D@std@@V?$allocator@D@2@@std@@@std@@@std@@2V0locale@2@A@@YAXXZ PROC ; `dynamic initializer for 'std::num_put<char,std::back_insert_iterator<std::basic_string<char,std::char_traits<char>,std::allocator<char> > > >::id'', COMDAT

; 155  : 		void _Getvals(wchar_t, const lconv *_Ptr, _Locinfo::_Cvtvec)

	push	ebp
	mov	ebp, esp
	push	0
	mov	ecx, OFFSET ?id@?$num_put@DV?$back_insert_iterator@V?$basic_string@DU?$char_traits@D@std@@V?$allocator@D@2@@std@@@std@@@std@@2V0locale@2@A ; std::num_put<char,std::back_insert_iterator<std::basic_string<char,std::char_traits<char>,std::allocator<char> > > >::id
	call	??0id@locale@std@@QAE@I@Z		; std::locale::id::id
	pop	ebp
	ret	0
??__E?id@?$num_put@DV?$back_insert_iterator@V?$basic_string@DU?$char_traits@D@std@@V?$allocator@D@2@@std@@@std@@@std@@2V0locale@2@A@@YAXXZ ENDP ; `dynamic initializer for 'std::num_put<char,std::back_insert_iterator<std::basic_string<char,std::char_traits<char>,std::allocator<char> > > >::id''
text$yc	ENDS
; Function compile flags: /Odtp
; File c:\program files (x86)\microsoft visual studio 11.0\vc\include\xmemory0
;	COMDAT ??$destroy@PAD@?$allocator_traits@V?$allocator@D@std@@@std@@SAXAAV?$allocator@D@1@PAPAD@Z
_TEXT	SEGMENT
__Al$ = 8						; size = 4
__Ptr$ = 12						; size = 4
??$destroy@PAD@?$allocator_traits@V?$allocator@D@std@@@std@@SAXAAV?$allocator@D@1@PAPAD@Z PROC ; std::allocator_traits<std::allocator<char> >::destroy<char *>, COMDAT

; 755  : 		static void destroy(_Alloc& _Al, _Uty *_Ptr)

	push	ebp
	mov	ebp, esp

; 756  : 		{	// destroy object at _Ptr
; 757  : 		_Al.destroy(_Ptr);

	mov	eax, DWORD PTR __Ptr$[ebp]
	push	eax
	mov	ecx, DWORD PTR __Al$[ebp]
	call	??$destroy@PAD@?$allocator@D@std@@QAEXPAPAD@Z ; std::allocator<char>::destroy<char *>

; 758  : 		}

	pop	ebp
	ret	0
??$destroy@PAD@?$allocator_traits@V?$allocator@D@std@@@std@@SAXAAV?$allocator@D@1@PAPAD@Z ENDP ; std::allocator_traits<std::allocator<char> >::destroy<char *>
_TEXT	ENDS
; Function compile flags: /Odtp
; File c:\program files (x86)\microsoft visual studio 11.0\vc\include\xmemory0
;	COMDAT ??$construct@PADAAPAD@?$allocator_traits@V?$allocator@D@std@@@std@@SAXAAV?$allocator@D@1@PAPADAAPAD@Z
_TEXT	SEGMENT
__Al$ = 8						; size = 4
__Ptr$ = 12						; size = 4
__V0$ = 16						; size = 4
??$construct@PADAAPAD@?$allocator_traits@V?$allocator@D@std@@@std@@SAXAAV?$allocator@D@1@PAPADAAPAD@Z PROC ; std::allocator_traits<std::allocator<char> >::construct<char *,char * &>, COMDAT

; 751  : _VARIADIC_EXPAND_0X(_ALLOC_TRAITS_SPECIAL_CONSTRUCT, , , , )

	push	ebp
	mov	ebp, esp
	mov	eax, DWORD PTR __V0$[ebp]
	push	eax
	call	??$forward@AAPAD@std@@YAAAPADAAPAD@Z	; std::forward<char * &>
	add	esp, 4
	push	eax
	mov	ecx, DWORD PTR __Ptr$[ebp]
	push	ecx
	mov	ecx, DWORD PTR __Al$[ebp]
	call	??$construct@PADAAPAD@?$allocator@D@std@@QAEXPAPADAAPAD@Z ; std::allocator<char>::construct<char *,char * &>
	pop	ebp
	ret	0
??$construct@PADAAPAD@?$allocator_traits@V?$allocator@D@std@@@std@@SAXAAV?$allocator@D@1@PAPADAAPAD@Z ENDP ; std::allocator_traits<std::allocator<char> >::construct<char *,char * &>
_TEXT	ENDS
; Function compile flags: /Odtp
; File c:\program files (x86)\microsoft visual studio 11.0\vc\include\type_traits
;	COMDAT ??$forward@AAPAD@std@@YAAAPADAAPAD@Z
_TEXT	SEGMENT
__Arg$ = 8						; size = 4
??$forward@AAPAD@std@@YAAAPADAAPAD@Z PROC		; std::forward<char * &>, COMDAT

; 1775 : 	{	// forward an lvalue

	push	ebp
	mov	ebp, esp

; 1776 : 	return (static_cast<_Ty&&>(_Arg));

	mov	eax, DWORD PTR __Arg$[ebp]

; 1777 : 	}

	pop	ebp
	ret	0
??$forward@AAPAD@std@@YAAAPADAAPAD@Z ENDP		; std::forward<char * &>
_TEXT	ENDS
; Function compile flags: /Odtp
;	COMDAT ??__F?_System_object@?$_Error_objects@H@std@@2V_System_error_category@2@A@@YAXXZ
text$yd	SEGMENT
??__F?_System_object@?$_Error_objects@H@std@@2V_System_error_category@2@A@@YAXXZ PROC ; `dynamic atexit destructor for 'std::_Error_objects<int>::_System_object'', COMDAT
	push	ebp
	mov	ebp, esp
	mov	ecx, OFFSET ?_System_object@?$_Error_objects@H@std@@2V_System_error_category@2@A ; std::_Error_objects<int>::_System_object
	call	??1_System_error_category@std@@UAE@XZ
	pop	ebp
	ret	0
??__F?_System_object@?$_Error_objects@H@std@@2V_System_error_category@2@A@@YAXXZ ENDP ; `dynamic atexit destructor for 'std::_Error_objects<int>::_System_object''
text$yd	ENDS
; Function compile flags: /Odtp
; File c:\program files (x86)\microsoft visual studio 11.0\vc\include\xmemory0
;	COMDAT ??__E?_System_object@?$_Error_objects@H@std@@2V_System_error_category@2@A@@YAXXZ
text$yc	SEGMENT
??__E?_System_object@?$_Error_objects@H@std@@2V_System_error_category@2@A@@YAXXZ PROC ; `dynamic initializer for 'std::_Error_objects<int>::_System_object'', COMDAT

; 627  : 		{	// estimate maximum array size

	push	ebp
	mov	ebp, esp
	mov	ecx, OFFSET ?_System_object@?$_Error_objects@H@std@@2V_System_error_category@2@A ; std::_Error_objects<int>::_System_object
	call	??0_System_error_category@std@@QAE@XZ	; std::_System_error_category::_System_error_category
	push	OFFSET ??__F?_System_object@?$_Error_objects@H@std@@2V_System_error_category@2@A@@YAXXZ ; `dynamic atexit destructor for 'std::_Error_objects<int>::_System_object''
	call	_atexit
	add	esp, 4
	pop	ebp
	ret	0
??__E?_System_object@?$_Error_objects@H@std@@2V_System_error_category@2@A@@YAXXZ ENDP ; `dynamic initializer for 'std::_Error_objects<int>::_System_object''
text$yc	ENDS
; Function compile flags: /Odtp
;	COMDAT ??__F?_Iostream_object@?$_Error_objects@H@std@@2V_Iostream_error_category@2@A@@YAXXZ
text$yd	SEGMENT
??__F?_Iostream_object@?$_Error_objects@H@std@@2V_Iostream_error_category@2@A@@YAXXZ PROC ; `dynamic atexit destructor for 'std::_Error_objects<int>::_Iostream_object'', COMDAT
	push	ebp
	mov	ebp, esp
	mov	ecx, OFFSET ?_Iostream_object@?$_Error_objects@H@std@@2V_Iostream_error_category@2@A ; std::_Error_objects<int>::_Iostream_object
	call	??1_Iostream_error_category@std@@UAE@XZ
	pop	ebp
	ret	0
??__F?_Iostream_object@?$_Error_objects@H@std@@2V_Iostream_error_category@2@A@@YAXXZ ENDP ; `dynamic atexit destructor for 'std::_Error_objects<int>::_Iostream_object''
text$yd	ENDS
; Function compile flags: /Odtp
; File c:\program files (x86)\microsoft visual studio 11.0\vc\include\xmemory0
;	COMDAT ??__E?_Iostream_object@?$_Error_objects@H@std@@2V_Iostream_error_category@2@A@@YAXXZ
text$yc	SEGMENT
??__E?_Iostream_object@?$_Error_objects@H@std@@2V_Iostream_error_category@2@A@@YAXXZ PROC ; `dynamic initializer for 'std::_Error_objects<int>::_Iostream_object'', COMDAT

; 627  : 		{	// estimate maximum array size

	push	ebp
	mov	ebp, esp
	mov	ecx, OFFSET ?_Iostream_object@?$_Error_objects@H@std@@2V_Iostream_error_category@2@A ; std::_Error_objects<int>::_Iostream_object
	call	??0_Iostream_error_category@std@@QAE@XZ	; std::_Iostream_error_category::_Iostream_error_category
	push	OFFSET ??__F?_Iostream_object@?$_Error_objects@H@std@@2V_Iostream_error_category@2@A@@YAXXZ ; `dynamic atexit destructor for 'std::_Error_objects<int>::_Iostream_object''
	call	_atexit
	add	esp, 4
	pop	ebp
	ret	0
??__E?_Iostream_object@?$_Error_objects@H@std@@2V_Iostream_error_category@2@A@@YAXXZ ENDP ; `dynamic initializer for 'std::_Error_objects<int>::_Iostream_object''
text$yc	ENDS
; Function compile flags: /Odtp
;	COMDAT ??__F?_Generic_object@?$_Error_objects@H@std@@2V_Generic_error_category@2@A@@YAXXZ
text$yd	SEGMENT
??__F?_Generic_object@?$_Error_objects@H@std@@2V_Generic_error_category@2@A@@YAXXZ PROC ; `dynamic atexit destructor for 'std::_Error_objects<int>::_Generic_object'', COMDAT
	push	ebp
	mov	ebp, esp
	mov	ecx, OFFSET ?_Generic_object@?$_Error_objects@H@std@@2V_Generic_error_category@2@A ; std::_Error_objects<int>::_Generic_object
	call	??1_Generic_error_category@std@@UAE@XZ
	pop	ebp
	ret	0
??__F?_Generic_object@?$_Error_objects@H@std@@2V_Generic_error_category@2@A@@YAXXZ ENDP ; `dynamic atexit destructor for 'std::_Error_objects<int>::_Generic_object''
text$yd	ENDS
; Function compile flags: /Odtp
; File c:\program files (x86)\microsoft visual studio 11.0\vc\include\xmemory0
;	COMDAT ??__E?_Generic_object@?$_Error_objects@H@std@@2V_Generic_error_category@2@A@@YAXXZ
text$yc	SEGMENT
??__E?_Generic_object@?$_Error_objects@H@std@@2V_Generic_error_category@2@A@@YAXXZ PROC ; `dynamic initializer for 'std::_Error_objects<int>::_Generic_object'', COMDAT

; 627  : 		{	// estimate maximum array size

	push	ebp
	mov	ebp, esp
	mov	ecx, OFFSET ?_Generic_object@?$_Error_objects@H@std@@2V_Generic_error_category@2@A ; std::_Error_objects<int>::_Generic_object
	call	??0_Generic_error_category@std@@QAE@XZ	; std::_Generic_error_category::_Generic_error_category
	push	OFFSET ??__F?_Generic_object@?$_Error_objects@H@std@@2V_Generic_error_category@2@A@@YAXXZ ; `dynamic atexit destructor for 'std::_Error_objects<int>::_Generic_object''
	call	_atexit
	add	esp, 4
	pop	ebp
	ret	0
??__E?_Generic_object@?$_Error_objects@H@std@@2V_Generic_error_category@2@A@@YAXXZ ENDP ; `dynamic initializer for 'std::_Error_objects<int>::_Generic_object''
text$yc	ENDS
; Function compile flags: /Odtp
; File c:\program files (x86)\microsoft visual studio 11.0\vc\include\xmemory0
;	COMDAT ??$_Allocate@D@std@@YAPADIPAD@Z
_TEXT	SEGMENT
__Ptr$ = -4						; size = 4
__Count$ = 8						; size = 4
___formal$ = 12						; size = 4
??$_Allocate@D@std@@YAPADIPAD@Z PROC			; std::_Allocate<char>, COMDAT

; 22   : 	{	// allocate storage for _Count elements of type _Ty

	push	ebp
	mov	ebp, esp
	push	ecx

; 23   : 	void *_Ptr = 0;

	mov	DWORD PTR __Ptr$[ebp], 0

; 24   : 
; 25   : 	if (_Count == 0)

	cmp	DWORD PTR __Count$[ebp], 0
	jne	SHORT $LN4@Allocate

; 26   : 		;
; 27   : 	else if (((size_t)(-1) / sizeof (_Ty) < _Count)

	jmp	SHORT $LN3@Allocate
$LN4@Allocate:

; 28   : 		|| (_Ptr = ::operator new(_Count * sizeof (_Ty))) == 0)

	cmp	DWORD PTR __Count$[ebp], -1
	ja	SHORT $LN1@Allocate
	mov	eax, DWORD PTR __Count$[ebp]
	push	eax
	call	??2@YAPAXI@Z				; operator new
	add	esp, 4
	mov	DWORD PTR __Ptr$[ebp], eax
	cmp	DWORD PTR __Ptr$[ebp], 0
	jne	SHORT $LN3@Allocate
$LN1@Allocate:

; 29   : 		_Xbad_alloc();	// report no memory

	call	?_Xbad_alloc@std@@YAXXZ			; std::_Xbad_alloc
$LN3@Allocate:

; 30   : 
; 31   : 	return ((_Ty *)_Ptr);

	mov	eax, DWORD PTR __Ptr$[ebp]
$LN6@Allocate:

; 32   : 	}

	mov	esp, ebp
	pop	ebp
	ret	0
??$_Allocate@D@std@@YAPADIPAD@Z ENDP			; std::_Allocate<char>
_TEXT	ENDS
; Function compile flags: /Odtp
; File c:\program files (x86)\microsoft visual studio 11.0\vc\include\xstddef
;	COMDAT ??$addressof@D@std@@YAPADAAD@Z
_TEXT	SEGMENT
__Val$ = 8						; size = 4
??$addressof@D@std@@YAPADAAD@Z PROC			; std::addressof<char>, COMDAT

; 85   : 	{	// return address of _Val

	push	ebp
	mov	ebp, esp

; 86   : 	return (reinterpret_cast<_Ty *>(
; 87   : 		(&const_cast<char&>(
; 88   : 		reinterpret_cast<const volatile char&>(_Val)))));

	mov	eax, DWORD PTR __Val$[ebp]

; 89   : 	}

	pop	ebp
	ret	0
??$addressof@D@std@@YAPADAAD@Z ENDP			; std::addressof<char>
_TEXT	ENDS
; Function compile flags: /Odtp
; File c:\program files (x86)\microsoft visual studio 11.0\vc\include\xmemory0
;	COMDAT ??$destroy@PAD@?$_Wrap_alloc@V?$allocator@D@std@@@std@@QAEXPAPAD@Z
_TEXT	SEGMENT
_this$ = -4						; size = 4
__Ptr$ = 8						; size = 4
??$destroy@PAD@?$_Wrap_alloc@V?$allocator@D@std@@@std@@QAEXPAPAD@Z PROC ; std::_Wrap_alloc<std::allocator<char> >::destroy<char *>, COMDAT
; _this$ = ecx

; 907  : 		void destroy(_Ty *_Ptr)

	push	ebp
	mov	ebp, esp
	push	ecx
	mov	DWORD PTR _this$[ebp], ecx

; 908  : 		{	// destroy object at _Ptr
; 909  : 		_Mytraits::destroy(*this, _Ptr);

	mov	eax, DWORD PTR __Ptr$[ebp]
	push	eax
	mov	ecx, DWORD PTR _this$[ebp]
	push	ecx
	call	??$destroy@PAD@?$allocator_traits@V?$allocator@D@std@@@std@@SAXAAV?$allocator@D@1@PAPAD@Z ; std::allocator_traits<std::allocator<char> >::destroy<char *>
	add	esp, 8

; 910  : 		}

	mov	esp, ebp
	pop	ebp
	ret	4
??$destroy@PAD@?$_Wrap_alloc@V?$allocator@D@std@@@std@@QAEXPAPAD@Z ENDP ; std::_Wrap_alloc<std::allocator<char> >::destroy<char *>
_TEXT	ENDS
; Function compile flags: /Odtp
; File c:\program files (x86)\microsoft visual studio 11.0\vc\include\xmemory0
;	COMDAT ??$construct@PADAAPAD@?$_Wrap_alloc@V?$allocator@D@std@@@std@@QAEXPAPADAAPAD@Z
_TEXT	SEGMENT
_this$ = -4						; size = 4
__Ptr$ = 8						; size = 4
__V0$ = 12						; size = 4
??$construct@PADAAPAD@?$_Wrap_alloc@V?$allocator@D@std@@@std@@QAEXPAPADAAPAD@Z PROC ; std::_Wrap_alloc<std::allocator<char> >::construct<char *,char * &>, COMDAT
; _this$ = ecx

; 903  : _VARIADIC_EXPAND_0X(_WRAP_ALLOC_CONSTRUCT, , , , )

	push	ebp
	mov	ebp, esp
	push	ecx
	mov	DWORD PTR _this$[ebp], ecx
	mov	eax, DWORD PTR __V0$[ebp]
	push	eax
	call	??$forward@AAPAD@std@@YAAAPADAAPAD@Z	; std::forward<char * &>
	add	esp, 4
	push	eax
	mov	ecx, DWORD PTR __Ptr$[ebp]
	push	ecx
	mov	edx, DWORD PTR _this$[ebp]
	push	edx
	call	??$construct@PADAAPAD@?$allocator_traits@V?$allocator@D@std@@@std@@SAXAAV?$allocator@D@1@PAPADAAPAD@Z ; std::allocator_traits<std::allocator<char> >::construct<char *,char * &>
	add	esp, 12					; 0000000cH
	mov	esp, ebp
	pop	ebp
	ret	8
??$construct@PADAAPAD@?$_Wrap_alloc@V?$allocator@D@std@@@std@@QAEXPAPADAAPAD@Z ENDP ; std::_Wrap_alloc<std::allocator<char> >::construct<char *,char * &>
_TEXT	ENDS
; Function compile flags: /Odtp
; File c:\users\zhitao li\documents\visual studio 2012\projects\freefalcon\graphics\include\fmath.h
;	COMDAT ?FabsF@@YAMM@Z
_TEXT	SEGMENT
_f$ = 8							; size = 4
?FabsF@@YAMM@Z PROC					; FabsF, COMDAT

; 37   : {

	push	ebp
	mov	ebp, esp

; 38   : 	_asm
; 39   : 	{
; 40   : 		fld f;

	fld	DWORD PTR _f$[ebp]

; 41   : 		fabs;

	fabs

; 42   : 		fstp f;

	fstp	DWORD PTR _f$[ebp]

; 43   : 	}
; 44   : 
; 45   : 	return f;

	fld	DWORD PTR _f$[ebp]

; 46   : }

	pop	ebp
	ret	0
?FabsF@@YAMM@Z ENDP					; FabsF
_TEXT	ENDS
; Function compile flags: /Odtp
; File c:\users\zhitao li\documents\visual studio 2012\projects\freefalcon\graphics\include\fmath.h
;	COMDAT ?Cos@@YAMM@Z
_TEXT	SEGMENT
_a$ = 8							; size = 4
?Cos@@YAMM@Z PROC					; Cos, COMDAT

; 25   : {

	push	ebp
	mov	ebp, esp

; 26   : 	_asm
; 27   : 	{
; 28   : 		fld a;

	fld	DWORD PTR _a$[ebp]

; 29   : 		fcos;

	fcos

; 30   : 		fstp a;

	fstp	DWORD PTR _a$[ebp]

; 31   : 	}
; 32   : 
; 33   : 	return a;

	fld	DWORD PTR _a$[ebp]

; 34   : }

	pop	ebp
	ret	0
?Cos@@YAMM@Z ENDP					; Cos
_TEXT	ENDS
; Function compile flags: /Odtp
; File c:\users\zhitao li\documents\visual studio 2012\projects\freefalcon\sim\include\simio.h
;	COMDAT ?AnalogIsUsed@SIMLIB_IO_CLASS@@QAE_NW4GameAxis_t@@@Z
_TEXT	SEGMENT
_this$ = -4						; size = 4
_id$ = 8						; size = 4
?AnalogIsUsed@SIMLIB_IO_CLASS@@QAE_NW4GameAxis_t@@@Z PROC ; SIMLIB_IO_CLASS::AnalogIsUsed, COMDAT
; _this$ = ecx

; 237  : 	bool	AnalogIsUsed(GameAxis_t id) { return ( analog[id].isUsed); };

	push	ebp
	mov	ebp, esp
	push	ecx
	mov	DWORD PTR _this$[ebp], ecx
	mov	eax, DWORD PTR _id$[ebp]
	imul	eax, 28					; 0000001cH
	mov	ecx, DWORD PTR _this$[ebp]
	mov	al, BYTE PTR [ecx+eax+12]
	mov	esp, ebp
	pop	ebp
	ret	4
?AnalogIsUsed@SIMLIB_IO_CLASS@@QAE_NW4GameAxis_t@@@Z ENDP ; SIMLIB_IO_CLASS::AnalogIsUsed
_TEXT	ENDS
; Function compile flags: /Odtp
; File c:\users\zhitao li\documents\visual studio 2012\projects\freefalcon\sim\otwdrive\external.cpp
_TEXT	SEGMENT
_bottom$ = -92						; size = 4
tv292 = -88						; size = 4
tv239 = -84						; size = 4
_top$ = -80						; size = 4
_groundZ$ = -76						; size = 4
$T1 = -72						; size = 4
tv283 = -68						; size = 4
tv159 = -64						; size = 4
$T2 = -60						; size = 4
tv207 = -56						; size = 4
_entry$ = -52						; size = 4
_drawable$ = -48					; size = 4
_this$ = -44						; size = 4
_worldPosition$ = -40					; size = 12
_objOrigin$ = -28					; size = 12
_viewPos$ = -16						; size = 12
__$ArrayPad$ = -4					; size = 4
?DrawExternalViewTarget@OTWDriverClass@@AAEXXZ PROC	; OTWDriverClass::DrawExternalViewTarget
; _this$ = ecx

; 706  : {

	push	ebp
	mov	ebp, esp
	sub	esp, 92					; 0000005cH
	mov	eax, DWORD PTR ___security_cookie
	xor	eax, ebp
	mov	DWORD PTR __$ArrayPad$[ebp], eax
	mov	DWORD PTR _this$[ebp], ecx

; 707  : 	Tpoint			worldPosition;
; 708  : 	Tpoint			viewPos;
; 709  : 	DrawableBSP		*drawable;
; 710  : 	Tpoint			objOrigin = Origin;

	mov	eax, DWORD PTR ?Origin@@3UTpoint@@B
	mov	DWORD PTR _objOrigin$[ebp], eax
	mov	ecx, DWORD PTR ?Origin@@3UTpoint@@B+4
	mov	DWORD PTR _objOrigin$[ebp+4], ecx
	mov	edx, DWORD PTR ?Origin@@3UTpoint@@B+8
	mov	DWORD PTR _objOrigin$[ebp+8], edx

; 711  : 	float 			groundZ, bottom, top;
; 712  : 	drawPtrList		*entry;
; 713  : 	static int		LODlie = 0;				// A way to force an object to update its terrain data every frame.
; 714  : 
; 715  : 	// Make sure we don't get in here when we shouldn't.
; 716  : 	if ( otwPlatform.get() == NULL || otwPlatform->drawPointer == NULL ){

	mov	ecx, DWORD PTR _this$[ebp]
	add	ecx, 32336				; 00007e50H
	call	?get@?$VuBin@VSimBaseClass@@@@QBEPAVSimBaseClass@@XZ ; VuBin<SimBaseClass>::get
	test	eax, eax
	je	SHORT $LN5@DrawExtern
	mov	ecx, DWORD PTR _this$[ebp]
	add	ecx, 32336				; 00007e50H
	call	??C?$VuBin@VSimBaseClass@@@@QBEPAVSimBaseClass@@XZ ; VuBin<SimBaseClass>::operator->
	cmp	DWORD PTR [eax+332], 0
	jne	SHORT $LN6@DrawExtern
$LN5@DrawExtern:

; 717  : 		return;

	jmp	$LN7@DrawExtern
$LN6@DrawExtern:

; 718  : 	}
; 719  : 
; 720  : 	// Get our cast pointer
; 721  : 	drawable = (DrawableBSP*)otwPlatform->drawPointer;

	mov	ecx, DWORD PTR _this$[ebp]
	add	ecx, 32336				; 00007e50H
	call	??C?$VuBin@VSimBaseClass@@@@QBEPAVSimBaseClass@@XZ ; VuBin<SimBaseClass>::operator->
	mov	eax, DWORD PTR [eax+332]
	mov	DWORD PTR _drawable$[ebp], eax

; 722  : 
; 723  : 	// RED - check for visibility stuff
; 724  : 	if(drawable->SetupVisibility( renderer )){

	mov	ecx, DWORD PTR _this$[ebp]
	mov	edx, DWORD PTR [ecx+33576]
	push	edx
	mov	ecx, DWORD PTR _drawable$[ebp]
	call	?SetupVisibility@DrawableBSP@@QAE_NPAVRenderOTW@@@Z ; DrawableBSP::SetupVisibility
	movzx	eax, al
	test	eax, eax
	je	$LN4@DrawExtern

; 725  : 
; 726  : 		// Save the object's real world space position
; 727  : 		drawable->GetPosition( &worldPosition );

	lea	ecx, DWORD PTR _worldPosition$[ebp]
	push	ecx
	mov	ecx, DWORD PTR _drawable$[ebp]
	call	?GetPosition@DrawableObject@@QAEXPAUTpoint@@@Z ; DrawableObject::GetPosition

; 728  : 
; 729  : 		// Save the camera's real world space position
; 730  : 		viewPos.x = focusPoint.x + cameraPos.x;

	mov	edx, DWORD PTR _this$[ebp]
	mov	eax, DWORD PTR _this$[ebp]
	movss	xmm0, DWORD PTR [edx+33428]
	addss	xmm0, DWORD PTR [eax+33440]
	movss	DWORD PTR _viewPos$[ebp], xmm0

; 731  : 		viewPos.y = focusPoint.y + cameraPos.y;

	mov	ecx, DWORD PTR _this$[ebp]
	mov	edx, DWORD PTR _this$[ebp]
	movss	xmm0, DWORD PTR [ecx+33432]
	addss	xmm0, DWORD PTR [edx+33444]
	movss	DWORD PTR _viewPos$[ebp+4], xmm0

; 732  : 		viewPos.z = focusPoint.z + cameraPos.z;

	mov	eax, DWORD PTR _this$[ebp]
	mov	ecx, DWORD PTR _this$[ebp]
	movss	xmm0, DWORD PTR [eax+33436]
	addss	xmm0, DWORD PTR [ecx+33448]
	movss	DWORD PTR _viewPos$[ebp+8], xmm0

; 733  : 
; 734  : 		// NOTE:  The camera position is clamped at 5 feet above ground, so
; 735  : 		// if it would have broken that, it will not be pointing at the object
; 736  : 		// of interest.  In this case we shift the object appropriatly to keep
; 737  : 		// it anchored in the world.
; 738  : 		GetAreaFloorAndCeiling(&bottom, &top);

	lea	edx, DWORD PTR _top$[ebp]
	push	edx
	lea	eax, DWORD PTR _bottom$[ebp]
	push	eax
	mov	ecx, DWORD PTR _this$[ebp]
	call	?GetAreaFloorAndCeiling@OTWDriverClass@@QAEXPAM0@Z ; OTWDriverClass::GetAreaFloorAndCeiling

; 739  : 		if (viewPos.z > top)

	movss	xmm0, DWORD PTR _viewPos$[ebp+8]
	comiss	xmm0, DWORD PTR _top$[ebp]
	jbe	$LN3@DrawExtern

; 740  : 		{
; 741  : 			groundZ = min( viewPos.z, GetGroundLevel(viewPos.x, viewPos.y) - 5.0F );

	push	0
	push	ecx
	movss	xmm0, DWORD PTR _viewPos$[ebp+4]
	movss	DWORD PTR [esp], xmm0
	push	ecx
	movss	xmm0, DWORD PTR _viewPos$[ebp]
	movss	DWORD PTR [esp], xmm0
	mov	ecx, DWORD PTR _this$[ebp]
	call	?GetGroundLevel@OTWDriverClass@@QAEMMMPAUTpoint@@@Z ; OTWDriverClass::GetGroundLevel
	fstp	DWORD PTR tv283[ebp]
	movss	xmm0, DWORD PTR tv283[ebp]
	subss	xmm0, DWORD PTR __real@40a00000
	comiss	xmm0, DWORD PTR _viewPos$[ebp+8]
	jbe	SHORT $LN9@DrawExtern
	movss	xmm0, DWORD PTR _viewPos$[ebp+8]
	movss	DWORD PTR tv159[ebp], xmm0
	jmp	SHORT $LN10@DrawExtern
$LN9@DrawExtern:
	push	0
	push	ecx
	movss	xmm0, DWORD PTR _viewPos$[ebp+4]
	movss	DWORD PTR [esp], xmm0
	push	ecx
	movss	xmm0, DWORD PTR _viewPos$[ebp]
	movss	DWORD PTR [esp], xmm0
	mov	ecx, DWORD PTR _this$[ebp]
	call	?GetGroundLevel@OTWDriverClass@@QAEMMMPAUTpoint@@@Z ; OTWDriverClass::GetGroundLevel
	fstp	DWORD PTR tv292[ebp]
	movss	xmm0, DWORD PTR tv292[ebp]
	subss	xmm0, DWORD PTR __real@40a00000
	movss	DWORD PTR tv159[ebp], xmm0
$LN10@DrawExtern:
	movss	xmm0, DWORD PTR tv159[ebp]
	movss	DWORD PTR _groundZ$[ebp], xmm0

; 742  : 			objOrigin.z = viewPos.z - groundZ;

	movss	xmm0, DWORD PTR _viewPos$[ebp+8]
	subss	xmm0, DWORD PTR _groundZ$[ebp]
	movss	DWORD PTR _objOrigin$[ebp+8], xmm0
$LN3@DrawExtern:

; 743  : 		}
; 744  : 
; 745  : 		// Setup the local coordinate system.
; 746  : 		// This is world space orientation, but with the focusPoint (usually the object) at the origin.
; 747  : 		renderer->SetCamera( &cameraPos, &cameraRot );

	mov	ecx, DWORD PTR _this$[ebp]
	add	ecx, 33452				; 000082acH
	push	ecx
	mov	edx, DWORD PTR _this$[ebp]
	add	edx, 33440				; 000082a0H
	push	edx
	mov	eax, DWORD PTR _this$[ebp]
	mov	ecx, DWORD PTR [eax+33576]
	call	?SetCamera@Render3D@@QAEXPBUTpoint@@PBUTrotation@@@Z ; Render3D::SetCamera

; 748  : 		drawable->Update( &objOrigin, &ownshipRot );

	mov	ecx, DWORD PTR _this$[ebp]
	add	ecx, 33580				; 0000832cH
	push	ecx
	lea	edx, DWORD PTR _objOrigin$[ebp]
	push	edx
	mov	ecx, DWORD PTR _drawable$[ebp]
	call	?Update@DrawableBSP@@QAEXPBUTpoint@@PBUTrotation@@@Z ; DrawableBSP::Update

; 749  : 
; 750  : 		// Draw the object of interest
; 751  : 		drawable->Draw( renderer );

	mov	eax, DWORD PTR _this$[ebp]
	mov	ecx, DWORD PTR [eax+33576]
	push	ecx
	mov	edx, DWORD PTR _drawable$[ebp]
	mov	eax, DWORD PTR [edx]
	mov	ecx, DWORD PTR _drawable$[ebp]
	mov	edx, DWORD PTR [eax+16]
	call	edx

; 752  : 
; 753  : 		// Put the object back into world space
; 754  : 		drawable->Update( &worldPosition, &ownshipRot );

	mov	eax, DWORD PTR _this$[ebp]
	add	eax, 33580				; 0000832cH
	push	eax
	lea	ecx, DWORD PTR _worldPosition$[ebp]
	push	ecx
	mov	ecx, DWORD PTR _drawable$[ebp]
	call	?Update@DrawableBSP@@QAEXPBUTpoint@@PBUTrotation@@@Z ; DrawableBSP::Update

; 755  : 
; 756  : 		// restore camera
; 757  : 		renderer->SetCamera( &viewPos, &cameraRot );

	mov	edx, DWORD PTR _this$[ebp]
	add	edx, 33452				; 000082acH
	push	edx
	lea	eax, DWORD PTR _viewPos$[ebp]
	push	eax
	mov	ecx, DWORD PTR _this$[ebp]
	mov	ecx, DWORD PTR [ecx+33576]
	call	?SetCamera@Render3D@@QAEXPBUTpoint@@PBUTrotation@@@Z ; Render3D::SetCamera
$LN4@DrawExtern:

; 758  : 
; 759  : 	}
; 760  : 	// remove the inhibit
; 761  : 	otwPlatform->drawPointer->SetInhibitFlag( FALSE );

	mov	ecx, DWORD PTR _this$[ebp]
	add	ecx, 32336				; 00007e50H
	call	??C?$VuBin@VSimBaseClass@@@@QBEPAVSimBaseClass@@XZ ; VuBin<SimBaseClass>::operator->
	mov	edx, DWORD PTR [eax+332]
	mov	DWORD PTR tv207[ebp], edx
	push	0
	mov	eax, DWORD PTR tv207[ebp]
	mov	edx, DWORD PTR [eax]
	mov	ecx, DWORD PTR tv207[ebp]
	mov	eax, DWORD PTR [edx+12]
	call	eax
$LN2@DrawExtern:

; 762  : 
; 763  : 
; 764  : 	// Now deal with the objects which were inhibited because they were closer than the object of interest we just drew
; 765  : 	while (nearObjectRoot)

	mov	ecx, DWORD PTR _this$[ebp]
	cmp	DWORD PTR [ecx+32064], 0
	je	$LN1@DrawExtern

; 766  : 	{
; 767  : 		// Get the first entry
; 768  : 		entry = nearObjectRoot;

	mov	edx, DWORD PTR _this$[ebp]
	mov	eax, DWORD PTR [edx+32064]
	mov	DWORD PTR _entry$[ebp], eax

; 769  : 
; 770  : 		// Turn the object back on
; 771  : 		entry->drawPointer->SetInhibitFlag( FALSE );

	push	0
	mov	ecx, DWORD PTR _entry$[ebp]
	mov	edx, DWORD PTR [ecx]
	mov	eax, DWORD PTR _entry$[ebp]
	mov	edx, DWORD PTR [edx]
	mov	ecx, DWORD PTR [eax]
	mov	eax, DWORD PTR [edx+12]
	call	eax

; 772  : 
; 773  : 		// Draw it
; 774  : 		entry->drawPointer->Draw( renderer, LODlie );

	mov	ecx, DWORD PTR ?LODlie@?1??DrawExternalViewTarget@OTWDriverClass@@AAEXXZ@4HA
	push	ecx
	mov	edx, DWORD PTR _this$[ebp]
	mov	eax, DWORD PTR [edx+33576]
	push	eax
	mov	ecx, DWORD PTR _entry$[ebp]
	mov	edx, DWORD PTR [ecx]
	mov	eax, DWORD PTR _entry$[ebp]
	mov	edx, DWORD PTR [edx]
	mov	ecx, DWORD PTR [eax]
	mov	eax, DWORD PTR [edx+20]
	call	eax

; 775  : 
; 776  : 		// Remove it from the list
; 777  : 		nearObjectRoot = nearObjectRoot->next;

	mov	ecx, DWORD PTR _this$[ebp]
	mov	edx, DWORD PTR [ecx+32064]
	mov	eax, DWORD PTR _this$[ebp]
	mov	ecx, DWORD PTR [edx+12]
	mov	DWORD PTR [eax+32064], ecx

; 778  : 		delete entry;

	mov	edx, DWORD PTR _entry$[ebp]
	mov	DWORD PTR $T1[ebp], edx
	mov	eax, DWORD PTR $T1[ebp]
	mov	DWORD PTR $T2[ebp], eax
	cmp	DWORD PTR $T2[ebp], 0
	je	SHORT $LN11@DrawExtern
	push	1
	mov	ecx, DWORD PTR $T2[ebp]
	call	??_GdrawPtrList@@QAEPAXI@Z
	mov	DWORD PTR tv239[ebp], eax
	jmp	SHORT $LN12@DrawExtern
$LN11@DrawExtern:
	mov	DWORD PTR tv239[ebp], 0
$LN12@DrawExtern:

; 779  : 	}

	jmp	$LN2@DrawExtern
$LN1@DrawExtern:
$LN7@DrawExtern:

; 780  : }

	mov	ecx, DWORD PTR __$ArrayPad$[ebp]
	xor	ecx, ebp
	call	@__security_check_cookie@4
	mov	esp, ebp
	pop	ebp
	ret	0
?DrawExternalViewTarget@OTWDriverClass@@AAEXXZ ENDP	; OTWDriverClass::DrawExternalViewTarget
_TEXT	ENDS
; Function compile flags: /Odtp
; File c:\users\zhitao li\documents\visual studio 2012\projects\freefalcon\vu2\include\vu_templates.h
;	COMDAT ?reset@?$VuBin@VSimBaseClass@@@@QAEXPAVSimBaseClass@@@Z
_TEXT	SEGMENT
_this$ = -4						; size = 4
_newe$ = 8						; size = 4
?reset@?$VuBin@VSimBaseClass@@@@QAEXPAVSimBaseClass@@@Z PROC ; VuBin<SimBaseClass>::reset, COMDAT
; _this$ = ecx

; 60   : 	void reset(E *newe = NULL){

	push	ebp
	mov	ebp, esp
	push	ecx
	mov	DWORD PTR _this$[ebp], ecx

; 61   : 		if (newe == e){ return; }

	mov	eax, DWORD PTR _this$[ebp]
	mov	ecx, DWORD PTR _newe$[ebp]
	cmp	ecx, DWORD PTR [eax]
	jne	SHORT $LN1@reset
	jmp	SHORT $LN2@reset
$LN1@reset:

; 62   : 		VuReferenceEntity(newe); // ref new pointer

	mov	edx, DWORD PTR _newe$[ebp]
	push	edx
	call	?VuReferenceEntity@@YAHPAVVuEntity@@@Z	; VuReferenceEntity
	add	esp, 4

; 63   : 		VuDeReferenceEntity(e);  // unref old pointer

	mov	eax, DWORD PTR _this$[ebp]
	mov	ecx, DWORD PTR [eax]
	push	ecx
	call	?VuDeReferenceEntity@@YAHPAVVuEntity@@@Z ; VuDeReferenceEntity
	add	esp, 4

; 64   : 		e = newe;                // get new pointer

	mov	edx, DWORD PTR _this$[ebp]
	mov	eax, DWORD PTR _newe$[ebp]
	mov	DWORD PTR [edx], eax
$LN2@reset:

; 65   : 	}

	mov	esp, ebp
	pop	ebp
	ret	4
?reset@?$VuBin@VSimBaseClass@@@@QAEXPAVSimBaseClass@@@Z ENDP ; VuBin<SimBaseClass>::reset
_TEXT	ENDS
; Function compile flags: /Odtp
; File c:\users\zhitao li\documents\visual studio 2012\projects\freefalcon\vu2\include\vu_templates.h
;	COMDAT ?get@?$VuBin@VSimBaseClass@@@@QBEPAVSimBaseClass@@XZ
_TEXT	SEGMENT
_this$ = -4						; size = 4
?get@?$VuBin@VSimBaseClass@@@@QBEPAVSimBaseClass@@XZ PROC ; VuBin<SimBaseClass>::get, COMDAT
; _this$ = ecx

; 55   : 	E *get() const{

	push	ebp
	mov	ebp, esp
	push	ecx
	mov	DWORD PTR _this$[ebp], ecx

; 56   : 		return e;

	mov	eax, DWORD PTR _this$[ebp]
	mov	eax, DWORD PTR [eax]

; 57   : 	}

	mov	esp, ebp
	pop	ebp
	ret	0
?get@?$VuBin@VSimBaseClass@@@@QBEPAVSimBaseClass@@XZ ENDP ; VuBin<SimBaseClass>::get
_TEXT	ENDS
; Function compile flags: /Odtp
; File c:\users\zhitao li\documents\visual studio 2012\projects\freefalcon\vu2\include\vu_templates.h
;	COMDAT ??C?$VuBin@VSimBaseClass@@@@QBEPAVSimBaseClass@@XZ
_TEXT	SEGMENT
_this$ = -4						; size = 4
??C?$VuBin@VSimBaseClass@@@@QBEPAVSimBaseClass@@XZ PROC	; VuBin<SimBaseClass>::operator->, COMDAT
; _this$ = ecx

; 50   : 	E *operator->() const {

	push	ebp
	mov	ebp, esp
	push	ecx
	mov	DWORD PTR _this$[ebp], ecx

; 51   : 		return e;

	mov	eax, DWORD PTR _this$[ebp]
	mov	eax, DWORD PTR [eax]

; 52   : 	}

	mov	esp, ebp
	pop	ebp
	ret	0
??C?$VuBin@VSimBaseClass@@@@QBEPAVSimBaseClass@@XZ ENDP	; VuBin<SimBaseClass>::operator->
_TEXT	ENDS
; Function compile flags: /Odtp
; File c:\users\zhitao li\documents\visual studio 2012\projects\freefalcon\vu2\include\vu_templates.h
;	COMDAT ??B?$VuBin@VSimBaseClass@@@@QBE_NXZ
_TEXT	SEGMENT
_this$ = -8						; size = 4
tv66 = -4						; size = 4
??B?$VuBin@VSimBaseClass@@@@QBE_NXZ PROC		; VuBin<SimBaseClass>::operator bool, COMDAT
; _this$ = ecx

; 40   : 	operator bool() const{

	push	ebp
	mov	ebp, esp
	sub	esp, 8
	mov	DWORD PTR _this$[ebp], ecx

; 41   : 		return e != NULL;

	mov	eax, DWORD PTR _this$[ebp]
	cmp	DWORD PTR [eax], 0
	je	SHORT $LN3@operator
	mov	DWORD PTR tv66[ebp], 1
	jmp	SHORT $LN4@operator
$LN3@operator:
	mov	DWORD PTR tv66[ebp], 0
$LN4@operator:
	mov	al, BYTE PTR tv66[ebp]

; 42   : 	}

	mov	esp, ebp
	pop	ebp
	ret	0
??B?$VuBin@VSimBaseClass@@@@QBE_NXZ ENDP		; VuBin<SimBaseClass>::operator bool
_TEXT	ENDS
; Function compile flags: /Odtp
; File c:\users\zhitao li\documents\visual studio 2012\projects\freefalcon\vu2\include\vu_templates.h
;	COMDAT ??7?$VuBin@VSimBaseClass@@@@QBE_NXZ
_TEXT	SEGMENT
_this$ = -8						; size = 4
tv66 = -4						; size = 4
??7?$VuBin@VSimBaseClass@@@@QBE_NXZ PROC		; VuBin<SimBaseClass>::operator!, COMDAT
; _this$ = ecx

; 37   : 	bool operator!() const{

	push	ebp
	mov	ebp, esp
	sub	esp, 8
	mov	DWORD PTR _this$[ebp], ecx

; 38   : 		return e == NULL;

	mov	eax, DWORD PTR _this$[ebp]
	cmp	DWORD PTR [eax], 0
	jne	SHORT $LN3@operator
	mov	DWORD PTR tv66[ebp], 1
	jmp	SHORT $LN4@operator
$LN3@operator:
	mov	DWORD PTR tv66[ebp], 0
$LN4@operator:
	mov	al, BYTE PTR tv66[ebp]

; 39   : 	}

	mov	esp, ebp
	pop	ebp
	ret	0
??7?$VuBin@VSimBaseClass@@@@QBE_NXZ ENDP		; VuBin<SimBaseClass>::operator!
_TEXT	ENDS
; Function compile flags: /Odtp
; File c:\users\zhitao li\documents\visual studio 2012\projects\freefalcon\vu2\include\vu_templates.h
;	COMDAT ??8?$VuBin@VSimBaseClass@@@@QBE_NABV0@@Z
_TEXT	SEGMENT
_this$ = -8						; size = 4
tv67 = -4						; size = 4
_rhs$ = 8						; size = 4
??8?$VuBin@VSimBaseClass@@@@QBE_NABV0@@Z PROC		; VuBin<SimBaseClass>::operator==, COMDAT
; _this$ = ecx

; 30   : 	bool operator==(const VuBin &rhs) const{

	push	ebp
	mov	ebp, esp
	sub	esp, 8
	mov	DWORD PTR _this$[ebp], ecx

; 31   : 		return e == rhs.e;

	mov	eax, DWORD PTR _this$[ebp]
	mov	ecx, DWORD PTR _rhs$[ebp]
	mov	edx, DWORD PTR [eax]
	cmp	edx, DWORD PTR [ecx]
	jne	SHORT $LN3@operator
	mov	DWORD PTR tv67[ebp], 1
	jmp	SHORT $LN4@operator
$LN3@operator:
	mov	DWORD PTR tv67[ebp], 0
$LN4@operator:
	mov	al, BYTE PTR tv67[ebp]

; 32   : 	}

	mov	esp, ebp
	pop	ebp
	ret	4
??8?$VuBin@VSimBaseClass@@@@QBE_NABV0@@Z ENDP		; VuBin<SimBaseClass>::operator==
_TEXT	ENDS
; Function compile flags: /Odtp
; File c:\users\zhitao li\documents\visual studio 2012\projects\freefalcon\vu2\include\vu_templates.h
;	COMDAT ??4?$VuBin@VSimBaseClass@@@@QAEABV0@ABV0@@Z
_TEXT	SEGMENT
_this$ = -4						; size = 4
_rhs$ = 8						; size = 4
??4?$VuBin@VSimBaseClass@@@@QAEABV0@ABV0@@Z PROC	; VuBin<SimBaseClass>::operator=, COMDAT
; _this$ = ecx

; 24   : 	const VuBin &operator=(const VuBin &rhs){

	push	ebp
	mov	ebp, esp
	push	ecx
	mov	DWORD PTR _this$[ebp], ecx

; 25   : 		reset(rhs.e);

	mov	eax, DWORD PTR _rhs$[ebp]
	mov	ecx, DWORD PTR [eax]
	push	ecx
	mov	ecx, DWORD PTR _this$[ebp]
	call	?reset@?$VuBin@VSimBaseClass@@@@QAEXPAVSimBaseClass@@@Z ; VuBin<SimBaseClass>::reset

; 26   : 		return *this;

	mov	eax, DWORD PTR _this$[ebp]

; 27   : 	}

	mov	esp, ebp
	pop	ebp
	ret	4
??4?$VuBin@VSimBaseClass@@@@QAEABV0@ABV0@@Z ENDP	; VuBin<SimBaseClass>::operator=
_TEXT	ENDS
; Function compile flags: /Odtp
; File c:\users\zhitao li\documents\visual studio 2012\projects\freefalcon\sim\otwdrive\external.cpp
_TEXT	SEGMENT
_otwDrawWalker$ = -88					; size = 12
tv297 = -76						; size = 4
tv302 = -72						; size = 4
tv307 = -68						; size = 4
tv319 = -64						; size = 4
_referenceDepth$ = -60					; size = 4
tv82 = -56						; size = 4
_depth$ = -52						; size = 4
_dy$ = -48						; size = 4
_dz$ = -44						; size = 4
_dx$ = -40						; size = 4
_theObject$ = -36					; size = 4
_this$ = -32						; size = 4
_wsPos$ = -28						; size = 12
__$ArrayPad$ = -16					; size = 4
__$EHRec$ = -12						; size = 12
?BuildExternalNearList@OTWDriverClass@@AAEXXZ PROC	; OTWDriverClass::BuildExternalNearList
; _this$ = ecx

; 649  : {

	push	ebp
	mov	ebp, esp
	push	-1
	push	__ehhandler$?BuildExternalNearList@OTWDriverClass@@AAEXXZ
	mov	eax, DWORD PTR fs:0
	push	eax
	sub	esp, 76					; 0000004cH
	mov	eax, DWORD PTR ___security_cookie
	xor	eax, ebp
	mov	DWORD PTR __$ArrayPad$[ebp], eax
	push	eax
	lea	eax, DWORD PTR __$EHRec$[ebp]
	mov	DWORD PTR fs:0, eax
	mov	DWORD PTR _this$[ebp], ecx

; 650  : 	SimBaseClass	*theObject;
; 651  : 	Tpoint			wsPos;
; 652  : 	float			referenceDepth;
; 653  : 	float			dx, dy, dz;
; 654  : 	float			depth;
; 655  : 
; 656  : 
; 657  : 	// We rebuild the near list each frame...
; 658  : 	FlushNearList();

	mov	ecx, DWORD PTR _this$[ebp]
	call	?FlushNearList@OTWDriverClass@@QAEXXZ	; OTWDriverClass::FlushNearList

; 659  : 	// Drop out if we have nothing to do...
; 660  : 	if (!SimDriver.objectList || DisplayInCockpit() || !otwPlatform || otwPlatform->OnGround() || !otwPlatform->drawPointer)

	cmp	DWORD PTR ?SimDriver@@3VSimulationDriver@@A, 0
	je	SHORT $LN7@BuildExter
	mov	ecx, DWORD PTR _this$[ebp]
	call	?DisplayInCockpit@OTWDriverClass@@QAEHXZ ; OTWDriverClass::DisplayInCockpit
	test	eax, eax
	jne	SHORT $LN7@BuildExter
	mov	ecx, DWORD PTR _this$[ebp]
	add	ecx, 32336				; 00007e50H
	call	??7?$VuBin@VSimBaseClass@@@@QBE_NXZ	; VuBin<SimBaseClass>::operator!
	movzx	eax, al
	test	eax, eax
	jne	SHORT $LN7@BuildExter
	mov	ecx, DWORD PTR _this$[ebp]
	add	ecx, 32336				; 00007e50H
	call	??C?$VuBin@VSimBaseClass@@@@QBEPAVSimBaseClass@@XZ ; VuBin<SimBaseClass>::operator->
	mov	DWORD PTR tv82[ebp], eax
	mov	ecx, DWORD PTR tv82[ebp]
	mov	edx, DWORD PTR [ecx]
	mov	ecx, DWORD PTR tv82[ebp]
	mov	eax, DWORD PTR [edx+148]
	call	eax
	test	eax, eax
	jne	SHORT $LN7@BuildExter
	mov	ecx, DWORD PTR _this$[ebp]
	add	ecx, 32336				; 00007e50H
	call	??C?$VuBin@VSimBaseClass@@@@QBEPAVSimBaseClass@@XZ ; VuBin<SimBaseClass>::operator->
	cmp	DWORD PTR [eax+332], 0
	jne	SHORT $LN8@BuildExter
$LN7@BuildExter:

; 661  : 		return;

	jmp	$LN9@BuildExter
$LN8@BuildExter:

; 662  : 
; 663  : 	// Compute the real world camera position
; 664  : 	wsPos.x = focusPoint.x + cameraPos.x;

	mov	ecx, DWORD PTR _this$[ebp]
	mov	edx, DWORD PTR _this$[ebp]
	movss	xmm0, DWORD PTR [ecx+33428]
	addss	xmm0, DWORD PTR [edx+33440]
	movss	DWORD PTR _wsPos$[ebp], xmm0

; 665  : 	wsPos.y = focusPoint.y + cameraPos.y;

	mov	eax, DWORD PTR _this$[ebp]
	mov	ecx, DWORD PTR _this$[ebp]
	movss	xmm0, DWORD PTR [eax+33432]
	addss	xmm0, DWORD PTR [ecx+33444]
	movss	DWORD PTR _wsPos$[ebp+4], xmm0

; 666  : 	wsPos.z = focusPoint.z + cameraPos.z;

	mov	edx, DWORD PTR _this$[ebp]
	mov	eax, DWORD PTR _this$[ebp]
	movss	xmm0, DWORD PTR [edx+33436]
	addss	xmm0, DWORD PTR [eax+33448]
	movss	DWORD PTR _wsPos$[ebp+8], xmm0

; 667  : 
; 668  : 	// Figure out the image space depth of the object of attention
; 669  : 	dx		= ownshipPos.x - wsPos.x;

	mov	ecx, DWORD PTR _this$[ebp]
	movss	xmm0, DWORD PTR [ecx+32108]
	subss	xmm0, DWORD PTR _wsPos$[ebp]
	movss	DWORD PTR _dx$[ebp], xmm0

; 670  : 	dy		= ownshipPos.y - wsPos.y;

	mov	edx, DWORD PTR _this$[ebp]
	movss	xmm0, DWORD PTR [edx+32112]
	subss	xmm0, DWORD PTR _wsPos$[ebp+4]
	movss	DWORD PTR _dy$[ebp], xmm0

; 671  : 	dz		= ownshipPos.z - wsPos.z;

	mov	eax, DWORD PTR _this$[ebp]
	movss	xmm0, DWORD PTR [eax+32116]
	subss	xmm0, DWORD PTR _wsPos$[ebp+8]
	movss	DWORD PTR _dz$[ebp], xmm0

; 672  : 	referenceDepth	= (float)fabs( dx*cameraRot.M11 + dy*cameraRot.M21 + dz*cameraRot.M31 );

	mov	ecx, DWORD PTR _this$[ebp]
	movss	xmm0, DWORD PTR _dx$[ebp]
	mulss	xmm0, DWORD PTR [ecx+33452]
	mov	edx, DWORD PTR _this$[ebp]
	movss	xmm1, DWORD PTR _dy$[ebp]
	mulss	xmm1, DWORD PTR [edx+33464]
	addss	xmm0, xmm1
	mov	eax, DWORD PTR _this$[ebp]
	movss	xmm1, DWORD PTR _dz$[ebp]
	mulss	xmm1, DWORD PTR [eax+33476]
	addss	xmm0, xmm1
	push	ecx
	movss	DWORD PTR [esp], xmm0
	call	?fabs@@YAMM@Z				; fabs
	add	esp, 4
	fstp	DWORD PTR _referenceDepth$[ebp]

; 673  : 
; 674  : 
; 675  : 	VuListIterator otwDrawWalker (SimDriver.objectList);

	mov	ecx, DWORD PTR ?SimDriver@@3VSimulationDriver@@A
	push	ecx
	lea	ecx, DWORD PTR _otwDrawWalker$[ebp]
	call	??0VuListIterator@@QAE@PAVVuLinkedList@@@Z ; VuListIterator::VuListIterator
	mov	DWORD PTR __$EHRec$[ebp+8], 0

; 676  : 	// Consider each (sim) vehicle
; 677  : 	for (

	lea	ecx, DWORD PTR _otwDrawWalker$[ebp]
	call	?GetFirst@VuListIterator@@QAEPAVVuEntity@@XZ ; VuListIterator::GetFirst
	mov	DWORD PTR _theObject$[ebp], eax

; 678  : 		theObject = (SimBaseClass*)otwDrawWalker.GetFirst();
; 679  : 		theObject; 

	jmp	SHORT $LN6@BuildExter
$LN5@BuildExter:

; 680  : 		theObject = (SimBaseClass*)otwDrawWalker.GetNext()
; 681  : 	){

	lea	ecx, DWORD PTR _otwDrawWalker$[ebp]
	call	?GetNext@VuListIterator@@QAEPAVVuEntity@@XZ ; VuListIterator::GetNext
	mov	DWORD PTR _theObject$[ebp], eax
$LN6@BuildExter:
	cmp	DWORD PTR _theObject$[ebp], 0
	je	$LN4@BuildExter

; 682  : 		// Skip things on the groud, without draw pointers, hidden, or exploding
; 683  : 		if (theObject->OnGround()					|| 
; 684  : 				theObject->IsSetLocalFlag( IS_HIDDEN )	|| 
; 685  : 				!theObject->drawPointer					|| 
; 686  : 				theObject->IsExploding()				||
; 687  : 				otwPlatform.get() == theObject) {

	mov	edx, DWORD PTR _theObject$[ebp]
	mov	eax, DWORD PTR [edx]
	mov	ecx, DWORD PTR _theObject$[ebp]
	mov	edx, DWORD PTR [eax+148]
	call	edx
	test	eax, eax
	jne	SHORT $LN2@BuildExter
	push	8
	mov	ecx, DWORD PTR _theObject$[ebp]
	call	?IsSetLocalFlag@SimBaseClass@@QBEHH@Z	; SimBaseClass::IsSetLocalFlag
	test	eax, eax
	jne	SHORT $LN2@BuildExter
	mov	eax, DWORD PTR _theObject$[ebp]
	cmp	DWORD PTR [eax+332], 0
	je	SHORT $LN2@BuildExter
	mov	ecx, DWORD PTR _theObject$[ebp]
	mov	edx, DWORD PTR [ecx]
	mov	ecx, DWORD PTR _theObject$[ebp]
	mov	eax, DWORD PTR [edx+208]
	call	eax
	test	eax, eax
	jne	SHORT $LN2@BuildExter
	mov	ecx, DWORD PTR _this$[ebp]
	add	ecx, 32336				; 00007e50H
	call	?get@?$VuBin@VSimBaseClass@@@@QBEPAVSimBaseClass@@XZ ; VuBin<SimBaseClass>::get
	cmp	eax, DWORD PTR _theObject$[ebp]
	jne	SHORT $LN3@BuildExter
$LN2@BuildExter:

; 688  : 			continue;

	jmp	SHORT $LN5@BuildExter
$LN3@BuildExter:

; 689  : 		}
; 690  : 
; 691  : 		// Compute its scene depth
; 692  : 		dx		= theObject->drawPointer->X() - wsPos.x;

	mov	ecx, DWORD PTR _theObject$[ebp]
	mov	ecx, DWORD PTR [ecx+332]
	call	?X@DrawableObject@@QBEMXZ		; DrawableObject::X
	fstp	DWORD PTR tv297[ebp]
	movss	xmm0, DWORD PTR tv297[ebp]
	subss	xmm0, DWORD PTR _wsPos$[ebp]
	movss	DWORD PTR _dx$[ebp], xmm0

; 693  : 		dy		= theObject->drawPointer->Y() - wsPos.y;

	mov	edx, DWORD PTR _theObject$[ebp]
	mov	ecx, DWORD PTR [edx+332]
	call	?Y@DrawableObject@@QBEMXZ		; DrawableObject::Y
	fstp	DWORD PTR tv302[ebp]
	movss	xmm0, DWORD PTR tv302[ebp]
	subss	xmm0, DWORD PTR _wsPos$[ebp+4]
	movss	DWORD PTR _dy$[ebp], xmm0

; 694  : 		dz		= theObject->drawPointer->Z() - wsPos.z;

	mov	eax, DWORD PTR _theObject$[ebp]
	mov	ecx, DWORD PTR [eax+332]
	call	?Z@DrawableObject@@QBEMXZ		; DrawableObject::Z
	fstp	DWORD PTR tv307[ebp]
	movss	xmm0, DWORD PTR tv307[ebp]
	subss	xmm0, DWORD PTR _wsPos$[ebp+8]
	movss	DWORD PTR _dz$[ebp], xmm0

; 695  : 		depth	= dx*cameraRot.M11 + dy*cameraRot.M21 + dz*cameraRot.M31;

	mov	ecx, DWORD PTR _this$[ebp]
	movss	xmm0, DWORD PTR _dx$[ebp]
	mulss	xmm0, DWORD PTR [ecx+33452]
	mov	edx, DWORD PTR _this$[ebp]
	movss	xmm1, DWORD PTR _dy$[ebp]
	mulss	xmm1, DWORD PTR [edx+33464]
	addss	xmm0, xmm1
	mov	eax, DWORD PTR _this$[ebp]
	movss	xmm1, DWORD PTR _dz$[ebp]
	mulss	xmm1, DWORD PTR [eax+33476]
	addss	xmm0, xmm1
	movss	DWORD PTR _depth$[ebp], xmm0

; 696  : 		if (fabs( depth ) < referenceDepth)

	push	ecx
	movss	xmm0, DWORD PTR _depth$[ebp]
	movss	DWORD PTR [esp], xmm0
	call	?fabs@@YAMM@Z				; fabs
	add	esp, 4
	fstp	DWORD PTR tv319[ebp]
	movss	xmm0, DWORD PTR _referenceDepth$[ebp]
	comiss	xmm0, DWORD PTR tv319[ebp]
	jbe	SHORT $LN1@BuildExter

; 697  : 		{
; 698  : 			// Put it into the "near" list for special treatment
; 699  : 			AddToNearList( theObject->drawPointer, depth );					

	push	ecx
	movss	xmm0, DWORD PTR _depth$[ebp]
	movss	DWORD PTR [esp], xmm0
	mov	ecx, DWORD PTR _theObject$[ebp]
	mov	edx, DWORD PTR [ecx+332]
	push	edx
	mov	ecx, DWORD PTR _this$[ebp]
	call	?AddToNearList@OTWDriverClass@@QAEXPAVDrawableObject@@M@Z ; OTWDriverClass::AddToNearList
$LN1@BuildExter:

; 700  : 		}
; 701  : 	}

	jmp	$LN5@BuildExter
$LN4@BuildExter:

; 702  : }

	mov	DWORD PTR __$EHRec$[ebp+8], -1
	lea	ecx, DWORD PTR _otwDrawWalker$[ebp]
	call	??1VuListIterator@@UAE@XZ		; VuListIterator::~VuListIterator
$LN9@BuildExter:
	mov	ecx, DWORD PTR __$EHRec$[ebp]
	mov	DWORD PTR fs:0, ecx
	pop	ecx
	mov	ecx, DWORD PTR __$ArrayPad$[ebp]
	xor	ecx, ebp
	call	@__security_check_cookie@4
	mov	esp, ebp
	pop	ebp
	ret	0
_TEXT	ENDS
text$x	SEGMENT
__unwindfunclet$?BuildExternalNearList@OTWDriverClass@@AAEXXZ$0:
	lea	ecx, DWORD PTR _otwDrawWalker$[ebp]
	jmp	??1VuListIterator@@UAE@XZ		; VuListIterator::~VuListIterator
__ehhandler$?BuildExternalNearList@OTWDriverClass@@AAEXXZ:
	mov	edx, DWORD PTR [esp+8]
	lea	eax, DWORD PTR [edx+12]
	mov	ecx, DWORD PTR [edx-80]
	xor	ecx, eax
	call	@__security_check_cookie@4
	mov	ecx, DWORD PTR [edx-4]
	xor	ecx, eax
	call	@__security_check_cookie@4
	mov	eax, OFFSET __ehfuncinfo$?BuildExternalNearList@OTWDriverClass@@AAEXXZ
	jmp	___CxxFrameHandler3
text$x	ENDS
?BuildExternalNearList@OTWDriverClass@@AAEXXZ ENDP	; OTWDriverClass::BuildExternalNearList
; Function compile flags: /Odtp
; File c:\users\zhitao li\documents\visual studio 2012\projects\freefalcon\sim\otwdrive\external.cpp
_TEXT	SEGMENT
tv68 = -8						; size = 4
_this$ = -4						; size = 4
?toggleDisplaceCamera@OTWDriverClass@@QAEXXZ PROC	; OTWDriverClass::toggleDisplaceCamera
; _this$ = ecx

; 581  : {

	push	ebp
	mov	ebp, esp
	sub	esp, 8
	mov	DWORD PTR _this$[ebp], ecx

; 582  : 	displaceCamera = !displaceCamera;

	mov	eax, DWORD PTR _this$[ebp]
	movzx	ecx, BYTE PTR [eax+32144]
	test	ecx, ecx
	jne	SHORT $LN3@toggleDisp
	mov	DWORD PTR tv68[ebp], 1
	jmp	SHORT $LN4@toggleDisp
$LN3@toggleDisp:
	mov	DWORD PTR tv68[ebp], 0
$LN4@toggleDisp:
	mov	edx, DWORD PTR _this$[ebp]
	mov	al, BYTE PTR tv68[ebp]
	mov	BYTE PTR [edx+32144], al

; 583  : }

	mov	esp, ebp
	pop	ebp
	ret	0
?toggleDisplaceCamera@OTWDriverClass@@QAEXXZ ENDP	; OTWDriverClass::toggleDisplaceCamera
_TEXT	ENDS
; Function compile flags: /Odtp
; File c:\users\zhitao li\documents\visual studio 2012\projects\freefalcon\sim\otwdrive\external.cpp
_TEXT	SEGMENT
_this$ = -4						; size = 4
_theDisp$ = 8						; size = 4
?ReInitDisplacement@OTWDriverClass@@AAEXPAUCamDisplacement@1@@Z PROC ; OTWDriverClass::ReInitDisplacement
; _this$ = ecx

; 555  : {

	push	ebp
	mov	ebp, esp
	push	ecx
	mov	DWORD PTR _this$[ebp], ecx

; 556  : 	ShiAssert(theDisp);
; 557  : 
; 558  : #ifdef USE_WING_SPAN
; 559  : 	// might want to take this as max displacement ?	
; 560  : 	// acft wingspan:
; 561  : 	float theSpan = ((AircraftClass*)otwPlatform)->af->GetAeroData(AeroDataSet::Span)/2;
; 562  : 	if (theSpan < 5)
; 563  : 		theSpan = 5;
; 564  : 
; 565  : 	if (theDisp->direction > 1.F)
; 566  : 		theDisp->maxDispl = theSpan;
; 567  : 	else
; 568  : 		theDisp->maxDispl = -theSpan;
; 569  : 
; 570  : #else
; 571  : 	theDisp->Displ = theDisp->maxDispl;

	mov	eax, DWORD PTR _theDisp$[ebp]
	mov	ecx, DWORD PTR _theDisp$[ebp]
	mov	edx, DWORD PTR [ecx+4]
	mov	DWORD PTR [eax+12], edx

; 572  : #endif
; 573  : 	theDisp->direction *= -1.F;

	mov	eax, DWORD PTR _theDisp$[ebp]
	movss	xmm0, DWORD PTR [eax]
	mulss	xmm0, DWORD PTR __real@bf800000
	mov	ecx, DWORD PTR _theDisp$[ebp]
	movss	DWORD PTR [ecx], xmm0

; 574  : 	theDisp->maxDispl *= -1.F;

	mov	edx, DWORD PTR _theDisp$[ebp]
	movss	xmm0, DWORD PTR [edx+4]
	mulss	xmm0, DWORD PTR __real@bf800000
	mov	eax, DWORD PTR _theDisp$[ebp]
	movss	DWORD PTR [eax+4], xmm0

; 575  : 
; 576  : 	theDisp->scale = 0.1F + ((float)(rand()%4))/4.F;

	call	_rand
	and	eax, -2147483645			; 80000003H
	jns	SHORT $LN3@ReInitDisp
	dec	eax
	or	eax, -4					; fffffffcH
	inc	eax
$LN3@ReInitDisp:
	cvtsi2ss xmm0, eax
	divss	xmm0, DWORD PTR __real@40800000
	addss	xmm0, DWORD PTR __real@3dcccccd
	mov	ecx, DWORD PTR _theDisp$[ebp]
	movss	DWORD PTR [ecx+8], xmm0

; 577  : 
; 578  : }

	mov	esp, ebp
	pop	ebp
	ret	4
?ReInitDisplacement@OTWDriverClass@@AAEXPAUCamDisplacement@1@@Z ENDP ; OTWDriverClass::ReInitDisplacement
_TEXT	ENDS
; Function compile flags: /Odtp
; File c:\users\zhitao li\documents\visual studio 2012\projects\freefalcon\sim\otwdrive\external.cpp
_TEXT	SEGMENT
_dir$1 = -48						; size = 12
tv243 = -36						; size = 4
tv260 = -32						; size = 4
tv236 = -28						; size = 4
_thisFrameScale$2 = -24					; size = 4
_thisFramewobbleDistance$3 = -20			; size = 4
tv223 = -16						; size = 4
tv217 = -12						; size = 4
_i$4 = -8						; size = 4
_this$ = -4						; size = 4
_dT$ = 8						; size = 4
?DisplaceTheCamera@OTWDriverClass@@AAEXM@Z PROC		; OTWDriverClass::DisplaceTheCamera
; _this$ = ecx

; 494  : {

	push	ebp
	mov	ebp, esp
	sub	esp, 48					; 00000030H
	push	esi
	mov	DWORD PTR _this$[ebp], ecx

; 495  : 	Prof(DisplaceTheCamera);
; 496  : 
; 497  : 	if ((!xDir)||(!yDir)||(!zDir))

	mov	eax, DWORD PTR _this$[ebp]
	cmp	DWORD PTR [eax+32128], 0
	je	SHORT $LN7@DisplaceTh
	mov	ecx, DWORD PTR _this$[ebp]
	cmp	DWORD PTR [ecx+32132], 0
	je	SHORT $LN7@DisplaceTh
	mov	edx, DWORD PTR _this$[ebp]
	cmp	DWORD PTR [edx+32136], 0
	jne	SHORT $LN8@DisplaceTh
$LN7@DisplaceTh:

; 498  : 		return;

	jmp	$LN9@DisplaceTh
$LN8@DisplaceTh:

; 499  : 
; 500  : 	// only compute any additional displacement when NOT paused..
; 501  : 	if (targetCompressionRatio && SimDriver.MotionOn())	// Retro 29Feb2004 - hope that takes care of 'FREEZE' state too

	cmp	DWORD PTR ?targetCompressionRatio@@3HA, 0 ; targetCompressionRatio
	je	$LN2@DisplaceTh
	mov	ecx, OFFSET ?SimDriver@@3VSimulationDriver@@A ; SimDriver
	call	?MotionOn@SimulationDriver@@QAEHXZ	; SimulationDriver::MotionOn
	test	eax, eax
	je	$LN2@DisplaceTh

; 502  : 	{
; 503  : 		// have to keep dT in check.. too long (or too short ?) values mess up the movement of the cam..
; 504  : 		// dT is in seconds.. be sure..
; 505  : 		if (dT > 1)

	movss	xmm0, DWORD PTR _dT$[ebp]
	comiss	xmm0, DWORD PTR __real@3f800000
	jbe	SHORT $LN5@DisplaceTh

; 506  : 			dT = 1;

	movss	xmm0, DWORD PTR __real@3f800000
	movss	DWORD PTR _dT$[ebp], xmm0
$LN5@DisplaceTh:

; 507  : 
; 508  : #define NUM_OF_DISPLACEMENT_AXIS 3
; 509  : 		CamDisplacement* dir[NUM_OF_DISPLACEMENT_AXIS] = { xDir, yDir, zDir };

	mov	eax, DWORD PTR _this$[ebp]
	mov	ecx, DWORD PTR [eax+32128]
	mov	DWORD PTR _dir$1[ebp], ecx
	mov	edx, DWORD PTR _this$[ebp]
	mov	eax, DWORD PTR [edx+32132]
	mov	DWORD PTR _dir$1[ebp+4], eax
	mov	ecx, DWORD PTR _this$[ebp]
	mov	edx, DWORD PTR [ecx+32136]
	mov	DWORD PTR _dir$1[ebp+8], edx

; 510  : 		const float thisFramewobbleDistance = cameraDisplacementRate * dT;

	mov	eax, DWORD PTR _this$[ebp]
	movss	xmm0, DWORD PTR [eax+32140]
	mulss	xmm0, DWORD PTR _dT$[ebp]
	movss	DWORD PTR _thisFramewobbleDistance$3[ebp], xmm0

; 511  : 
; 512  : 		for (int i = 0; i < NUM_OF_DISPLACEMENT_AXIS; i++)

	mov	DWORD PTR _i$4[ebp], 0
	jmp	SHORT $LN4@DisplaceTh
$LN3@DisplaceTh:
	mov	ecx, DWORD PTR _i$4[ebp]
	add	ecx, 1
	mov	DWORD PTR _i$4[ebp], ecx
$LN4@DisplaceTh:
	cmp	DWORD PTR _i$4[ebp], 3
	jge	$LN2@DisplaceTh

; 513  : 		{
; 514  : 			/*****************************************************************************/
; 515  : 			// muhahaha... errm..
; 516  : 			// 'scale' scales the movement speed of the cam, it should get slower as it
; 517  : 			// nears its maximum displacement.. for this, I elected to use a cos() function
; 518  : 			// as cos(90) is 0 while cos(0) is 1. So, if our displacement is equal to our
; 519  : 			// max displacement the cos returns 0 (cam moves very slow),  and if our
; 520  : 			// displacement is very small compared to the max displacement I get 1
; 521  : 			// (cam moves normally)
; 522  : 			// the 'offset' at the beginning makes sure that the cam NEVER ceases moving as
; 523  : 			// that would stop our displacement algorighm, and that would be a shame, no ?
; 524  : 			//
; 525  : 			// problem: hmm if maxDispl isnt very big to begin with then the ratio
; 526  : 			// (displ/maxDispl) may not generate sufficient big (or small) changes to the
; 527  : 			// scale in order for the cam not to slow down enough as it nears the 'edges'
; 528  : 			// to be perceived as a 'smooth' direction change.. hmm
; 529  : 			/*****************************************************************************/
; 530  : 			float thisFrameScale = 0.1F + (float)FabsF((dir[i])->scale * Cos(dir[i]->Displ/dir[i]->maxDispl*HALF_PI));

	mov	edx, DWORD PTR _i$4[ebp]
	mov	esi, DWORD PTR _dir$1[ebp+edx*4]
	mov	eax, DWORD PTR _i$4[ebp]
	mov	ecx, DWORD PTR _dir$1[ebp+eax*4]
	mov	edx, DWORD PTR _i$4[ebp]
	mov	eax, DWORD PTR _dir$1[ebp+edx*4]
	movss	xmm0, DWORD PTR [ecx+12]
	divss	xmm0, DWORD PTR [eax+4]
	mulss	xmm0, DWORD PTR __real@3fc90fdb
	push	ecx
	movss	DWORD PTR [esp], xmm0
	call	?Cos@@YAMM@Z				; Cos
	add	esp, 4
	fstp	DWORD PTR tv217[ebp]
	movss	xmm0, DWORD PTR tv217[ebp]
	mulss	xmm0, DWORD PTR [esi+8]
	push	ecx
	movss	DWORD PTR [esp], xmm0
	call	?FabsF@@YAMM@Z				; FabsF
	add	esp, 4
	fstp	DWORD PTR tv223[ebp]
	movss	xmm0, DWORD PTR tv223[ebp]
	addss	xmm0, DWORD PTR __real@3dcccccd
	movss	DWORD PTR _thisFrameScale$2[ebp], xmm0

; 531  : 			(dir[i])->Displ += (thisFramewobbleDistance * thisFrameScale * dir[i]->direction);

	mov	ecx, DWORD PTR _i$4[ebp]
	mov	edx, DWORD PTR _dir$1[ebp+ecx*4]
	movss	xmm0, DWORD PTR _thisFramewobbleDistance$3[ebp]
	mulss	xmm0, DWORD PTR _thisFrameScale$2[ebp]
	mov	eax, DWORD PTR _i$4[ebp]
	mov	ecx, DWORD PTR _dir$1[ebp+eax*4]
	mulss	xmm0, DWORD PTR [ecx]
	addss	xmm0, DWORD PTR [edx+12]
	mov	edx, DWORD PTR _i$4[ebp]
	mov	eax, DWORD PTR _dir$1[ebp+edx*4]
	movss	DWORD PTR [eax+12], xmm0

; 532  : 			if (FabsF((dir[i])->Displ) > FabsF((dir[i])->maxDispl))	// bumped into a limit.. limits are symmetric (duh!)

	mov	ecx, DWORD PTR _i$4[ebp]
	mov	edx, DWORD PTR _dir$1[ebp+ecx*4]
	push	ecx
	movss	xmm0, DWORD PTR [edx+12]
	movss	DWORD PTR [esp], xmm0
	call	?FabsF@@YAMM@Z				; FabsF
	add	esp, 4
	fstp	DWORD PTR tv236[ebp]
	movss	xmm0, DWORD PTR tv236[ebp]
	mov	eax, DWORD PTR _i$4[ebp]
	mov	ecx, DWORD PTR _dir$1[ebp+eax*4]
	push	ecx
	movss	xmm1, DWORD PTR [ecx+4]
	movss	DWORD PTR [esp], xmm1
	movss	DWORD PTR tv260[ebp], xmm0
	call	?FabsF@@YAMM@Z				; FabsF
	add	esp, 4
	fstp	DWORD PTR tv243[ebp]
	movss	xmm0, DWORD PTR tv260[ebp]
	comiss	xmm0, DWORD PTR tv243[ebp]
	jbe	SHORT $LN1@DisplaceTh

; 533  : 			{
; 534  : 				// so now we select a new cam-direction and speed (randomly)
; 535  : 				ReInitDisplacement(dir[i]);

	mov	edx, DWORD PTR _i$4[ebp]
	mov	eax, DWORD PTR _dir$1[ebp+edx*4]
	push	eax
	mov	ecx, DWORD PTR _this$[ebp]
	call	?ReInitDisplacement@OTWDriverClass@@AAEXPAUCamDisplacement@1@@Z ; OTWDriverClass::ReInitDisplacement
$LN1@DisplaceTh:

; 536  : 			}
; 537  : 		}

	jmp	$LN3@DisplaceTh
$LN2@DisplaceTh:

; 538  : 	}
; 539  : 
; 540  : 	// this here chunk is also done when paused, so that we dont snap around when pressing 'p'
; 541  : 	// (== can stays displaced)
; 542  : 	cameraPos.x += xDir->Displ;

	mov	ecx, DWORD PTR _this$[ebp]
	mov	edx, DWORD PTR [ecx+32128]
	mov	eax, DWORD PTR _this$[ebp]
	movss	xmm0, DWORD PTR [eax+33440]
	addss	xmm0, DWORD PTR [edx+12]
	mov	ecx, DWORD PTR _this$[ebp]
	movss	DWORD PTR [ecx+33440], xmm0

; 543  : 	cameraPos.y += yDir->Displ;

	mov	edx, DWORD PTR _this$[ebp]
	mov	eax, DWORD PTR [edx+32132]
	mov	ecx, DWORD PTR _this$[ebp]
	movss	xmm0, DWORD PTR [ecx+33444]
	addss	xmm0, DWORD PTR [eax+12]
	mov	edx, DWORD PTR _this$[ebp]
	movss	DWORD PTR [edx+33444], xmm0

; 544  : 	cameraPos.z += zDir->Displ;

	mov	eax, DWORD PTR _this$[ebp]
	mov	ecx, DWORD PTR [eax+32136]
	mov	edx, DWORD PTR _this$[ebp]
	movss	xmm0, DWORD PTR [edx+33448]
	addss	xmm0, DWORD PTR [ecx+12]
	mov	eax, DWORD PTR _this$[ebp]
	movss	DWORD PTR [eax+33448], xmm0
$LN9@DisplaceTh:

; 545  : }

	pop	esi
	mov	esp, ebp
	pop	ebp
	ret	4
?DisplaceTheCamera@OTWDriverClass@@AAEXM@Z ENDP		; OTWDriverClass::DisplaceTheCamera
_TEXT	ENDS
; Function compile flags: /Odtp
; File c:\users\zhitao li\documents\visual studio 2012\projects\freefalcon\sim\otwdrive\external.cpp
_TEXT	SEGMENT
tv253 = -52						; size = 8
_camYaw$ = -44						; size = 4
_dist$ = -40						; size = 4
_camPitch$ = -36					; size = 4
tv337 = -32						; size = 4
tv249 = -28						; size = 4
_groundHeight$ = -24					; size = 4
_this$ = -20						; size = 4
_dPos$ = -16						; size = 12
__$ArrayPad$ = -4					; size = 4
_dT$ = 8						; size = 4
?SetFlybyCameraPosition@OTWDriverClass@@AAEXM@Z PROC	; OTWDriverClass::SetFlybyCameraPosition
; _this$ = ecx

; 588  : {

	push	ebp
	mov	ebp, esp
	sub	esp, 52					; 00000034H
	mov	eax, DWORD PTR ___security_cookie
	xor	eax, ebp
	mov	DWORD PTR __$ArrayPad$[ebp], eax
	mov	DWORD PTR _this$[ebp], ecx

; 589  : 	Tpoint	dPos;
; 590  : 	float	camYaw, camPitch;
; 591  : 	float	dist;
; 592  : 	float	groundHeight;
; 593  : 
; 594  : 
; 595  : 	// if we're in end flight cinematics, use otwplatform as focus point.
; 596  : 	// otherwise keep same focus point as last available and keep moving
; 597  : 	// the endflightpoint upwards
; 598  : 
; 599  : 	if ( otwPlatform )

	mov	ecx, DWORD PTR _this$[ebp]
	add	ecx, 32336				; 00007e50H
	call	??B?$VuBin@VSimBaseClass@@@@QBE_NXZ	; VuBin<SimBaseClass>::operator bool
	movzx	eax, al
	test	eax, eax
	je	SHORT $LN6@SetFlybyCa

; 600  : 	{
; 601  : 		UpdateCameraFocus();

	mov	ecx, DWORD PTR _this$[ebp]
	call	?UpdateCameraFocus@OTWDriverClass@@QAEXXZ ; OTWDriverClass::UpdateCameraFocus
$LN6@SetFlybyCa:

; 602  : 	}
; 603  : 
; 604  : 	// convert frame loop time to secs from ms
; 605  : 	dT = (float)frameTime * 0.001F;

	mov	ecx, DWORD PTR _this$[ebp]
	mov	edx, DWORD PTR [ecx+33420]
	mov	DWORD PTR tv249[ebp], edx
	cvtsi2sd xmm0, DWORD PTR tv249[ebp]
	mov	eax, DWORD PTR tv249[ebp]
	shr	eax, 31					; 0000001fH
	addsd	xmm0, QWORD PTR __xmm@41f00000000000000000000000000000[eax*8]
	movsd	QWORD PTR tv253[ebp], xmm0
	cvtsd2ss xmm0, QWORD PTR tv253[ebp]
	mulss	xmm0, DWORD PTR __real@3a83126f
	movss	DWORD PTR _dT$[ebp], xmm0

; 606  : 	// clamp dT
; 607  : 	if ( dT < 0.01f )

	movss	xmm0, DWORD PTR __real@3c23d70a
	comiss	xmm0, DWORD PTR _dT$[ebp]
	jbe	SHORT $LN5@SetFlybyCa

; 608  : 		dT = 0.01f;

	movss	xmm0, DWORD PTR __real@3c23d70a
	movss	DWORD PTR _dT$[ebp], xmm0
	jmp	SHORT $LN3@SetFlybyCa
$LN5@SetFlybyCa:

; 609  : 	else if ( dT > 0.5f )

	movss	xmm0, DWORD PTR _dT$[ebp]
	comiss	xmm0, DWORD PTR __real@3f000000
	jbe	SHORT $LN3@SetFlybyCa

; 610  : 		dT = 0.5f;

	movss	xmm0, DWORD PTR __real@3f000000
	movss	DWORD PTR _dT$[ebp], xmm0
$LN3@SetFlybyCa:

; 611  : 	endFlightPoint.x += endFlightVec.x * 40.0f * dT;

	mov	ecx, DWORD PTR _this$[ebp]
	movss	xmm0, DWORD PTR [ecx+33528]
	mulss	xmm0, DWORD PTR __real@42200000
	mulss	xmm0, DWORD PTR _dT$[ebp]
	mov	edx, DWORD PTR _this$[ebp]
	addss	xmm0, DWORD PTR [edx+33516]
	mov	eax, DWORD PTR _this$[ebp]
	movss	DWORD PTR [eax+33516], xmm0

; 612  : 	endFlightPoint.y += endFlightVec.y * 40.0f * dT;

	mov	ecx, DWORD PTR _this$[ebp]
	movss	xmm0, DWORD PTR [ecx+33532]
	mulss	xmm0, DWORD PTR __real@42200000
	mulss	xmm0, DWORD PTR _dT$[ebp]
	mov	edx, DWORD PTR _this$[ebp]
	addss	xmm0, DWORD PTR [edx+33520]
	mov	eax, DWORD PTR _this$[ebp]
	movss	DWORD PTR [eax+33520], xmm0

; 613  : 	endFlightPoint.z += endFlightVec.z * 40.0f * dT;

	mov	ecx, DWORD PTR _this$[ebp]
	movss	xmm0, DWORD PTR [ecx+33536]
	mulss	xmm0, DWORD PTR __real@42200000
	mulss	xmm0, DWORD PTR _dT$[ebp]
	mov	edx, DWORD PTR _this$[ebp]
	addss	xmm0, DWORD PTR [edx+33524]
	mov	eax, DWORD PTR _this$[ebp]
	movss	DWORD PTR [eax+33524], xmm0

; 614  : 
; 615  : 	cameraVel.x = endFlightVec.x * 40.f;  // MLR 12/1/2003 - Set camera velocity

	mov	ecx, DWORD PTR _this$[ebp]
	movss	xmm0, DWORD PTR [ecx+33528]
	mulss	xmm0, DWORD PTR __real@42200000
	mov	edx, DWORD PTR _this$[ebp]
	movss	DWORD PTR [edx+33488], xmm0

; 616  : 	cameraVel.y = endFlightVec.y * 40.f;

	mov	eax, DWORD PTR _this$[ebp]
	movss	xmm0, DWORD PTR [eax+33532]
	mulss	xmm0, DWORD PTR __real@42200000
	mov	ecx, DWORD PTR _this$[ebp]
	movss	DWORD PTR [ecx+33492], xmm0

; 617  : 	cameraVel.z = endFlightVec.z * 40.f;

	mov	edx, DWORD PTR _this$[ebp]
	movss	xmm0, DWORD PTR [edx+33536]
	mulss	xmm0, DWORD PTR __real@42200000
	mov	eax, DWORD PTR _this$[ebp]
	movss	DWORD PTR [eax+33496], xmm0

; 618  : 
; 619  : 	// make sure camera never goes below the ground
; 620  : 	groundHeight = GetApproxGroundLevel(endFlightPoint.x, endFlightPoint.y);

	mov	ecx, DWORD PTR _this$[ebp]
	push	ecx
	movss	xmm0, DWORD PTR [ecx+33520]
	movss	DWORD PTR [esp], xmm0
	mov	edx, DWORD PTR _this$[ebp]
	push	ecx
	movss	xmm0, DWORD PTR [edx+33516]
	movss	DWORD PTR [esp], xmm0
	mov	ecx, DWORD PTR _this$[ebp]
	call	?GetApproxGroundLevel@OTWDriverClass@@QAEMMM@Z ; OTWDriverClass::GetApproxGroundLevel
	fstp	DWORD PTR _groundHeight$[ebp]

; 621  : 	if ( endFlightPoint.z - groundHeight > -100.0f )

	mov	eax, DWORD PTR _this$[ebp]
	movss	xmm0, DWORD PTR [eax+33524]
	subss	xmm0, DWORD PTR _groundHeight$[ebp]
	comiss	xmm0, DWORD PTR __real@c2c80000
	jbe	SHORT $LN1@SetFlybyCa

; 622  : 	{
; 623  : 		groundHeight = viewPoint->GetGroundLevel(endFlightPoint.x, endFlightPoint.y);

	push	0
	push	0
	mov	ecx, DWORD PTR _this$[ebp]
	push	ecx
	movss	xmm0, DWORD PTR [ecx+33520]
	movss	DWORD PTR [esp], xmm0
	mov	edx, DWORD PTR _this$[ebp]
	push	ecx
	movss	xmm0, DWORD PTR [edx+33516]
	movss	DWORD PTR [esp], xmm0
	mov	eax, DWORD PTR _this$[ebp]
	mov	ecx, DWORD PTR [eax+32148]
	call	?GetGroundLevel@TViewPoint@@QAEMMMPAUTpoint@@PAH@Z ; TViewPoint::GetGroundLevel
	fstp	DWORD PTR _groundHeight$[ebp]

; 624  : 		if ( endFlightPoint.z >= groundHeight )

	mov	ecx, DWORD PTR _this$[ebp]
	movss	xmm0, DWORD PTR [ecx+33524]
	comiss	xmm0, DWORD PTR _groundHeight$[ebp]
	jb	SHORT $LN1@SetFlybyCa

; 625  : 			endFlightPoint.z = groundHeight - 5.0f;

	movss	xmm0, DWORD PTR _groundHeight$[ebp]
	subss	xmm0, DWORD PTR __real@40a00000
	mov	edx, DWORD PTR _this$[ebp]
	movss	DWORD PTR [edx+33524], xmm0
$LN1@SetFlybyCa:

; 626  : 	}
; 627  : 
; 628  : 	cameraPos.x = endFlightPoint.x - focusPoint.x;

	mov	eax, DWORD PTR _this$[ebp]
	mov	ecx, DWORD PTR _this$[ebp]
	movss	xmm0, DWORD PTR [eax+33516]
	subss	xmm0, DWORD PTR [ecx+33428]
	mov	edx, DWORD PTR _this$[ebp]
	movss	DWORD PTR [edx+33440], xmm0

; 629  : 	cameraPos.y = endFlightPoint.y - focusPoint.y;

	mov	eax, DWORD PTR _this$[ebp]
	mov	ecx, DWORD PTR _this$[ebp]
	movss	xmm0, DWORD PTR [eax+33520]
	subss	xmm0, DWORD PTR [ecx+33432]
	mov	edx, DWORD PTR _this$[ebp]
	movss	DWORD PTR [edx+33444], xmm0

; 630  : 	cameraPos.z = endFlightPoint.z - focusPoint.z;

	mov	eax, DWORD PTR _this$[ebp]
	mov	ecx, DWORD PTR _this$[ebp]
	movss	xmm0, DWORD PTR [eax+33524]
	subss	xmm0, DWORD PTR [ecx+33436]
	mov	edx, DWORD PTR _this$[ebp]
	movss	DWORD PTR [edx+33448], xmm0

; 631  : 
; 632  : 	// "look at" vector
; 633  : 	dPos.x = -cameraPos.x;

	mov	eax, DWORD PTR _this$[ebp]
	movss	xmm0, DWORD PTR [eax+33440]
	xorps	xmm0, DWORD PTR __xmm@80000000800000008000000080000000
	movss	DWORD PTR _dPos$[ebp], xmm0

; 634  : 	dPos.y = -cameraPos.y;

	mov	ecx, DWORD PTR _this$[ebp]
	movss	xmm0, DWORD PTR [ecx+33444]
	xorps	xmm0, DWORD PTR __xmm@80000000800000008000000080000000
	movss	DWORD PTR _dPos$[ebp+4], xmm0

; 635  : 	dPos.z = -cameraPos.z;

	mov	edx, DWORD PTR _this$[ebp]
	movss	xmm0, DWORD PTR [edx+33448]
	xorps	xmm0, DWORD PTR __xmm@80000000800000008000000080000000
	movss	DWORD PTR _dPos$[ebp+8], xmm0

; 636  : 
; 637  : 	// now get yaw and pitch based on look at vector
; 638  : 	dist = (float)sqrt( dPos.x * dPos.x + dPos.y * dPos.y + dPos.z * dPos.z );

	movss	xmm0, DWORD PTR _dPos$[ebp]
	mulss	xmm0, DWORD PTR _dPos$[ebp]
	movss	xmm1, DWORD PTR _dPos$[ebp+4]
	mulss	xmm1, DWORD PTR _dPos$[ebp+4]
	addss	xmm0, xmm1
	movss	xmm1, DWORD PTR _dPos$[ebp+8]
	mulss	xmm1, DWORD PTR _dPos$[ebp+8]
	addss	xmm0, xmm1
	push	ecx
	movss	DWORD PTR [esp], xmm0
	call	?SqrtSSE@@YAMM@Z			; SqrtSSE
	add	esp, 4
	fstp	DWORD PTR _dist$[ebp]

; 639  : 	camPitch	= (float)-asin( dPos.z/dist );

	movss	xmm0, DWORD PTR _dPos$[ebp+8]
	divss	xmm0, DWORD PTR _dist$[ebp]
	push	ecx
	movss	DWORD PTR [esp], xmm0
	call	?asin@@YAMM@Z				; asin
	add	esp, 4
	fstp	DWORD PTR tv337[ebp]
	movss	xmm0, DWORD PTR tv337[ebp]
	xorps	xmm0, DWORD PTR __xmm@80000000800000008000000080000000
	movss	DWORD PTR _camPitch$[ebp], xmm0

; 640  : 	camYaw		= (float)atan2( dPos.y, dPos.x );

	cvtss2sd xmm0, DWORD PTR _dPos$[ebp]
	sub	esp, 8
	movsd	QWORD PTR [esp], xmm0
	cvtss2sd xmm0, DWORD PTR _dPos$[ebp+4]
	sub	esp, 8
	movsd	QWORD PTR [esp], xmm0
	call	?checked_atan2@@YANNN@Z			; checked_atan2
	add	esp, 16					; 00000010H
	fstp	DWORD PTR _camYaw$[ebp]

; 641  : 
; 642  : 	PositandOrientSetData ( cameraPos.x, cameraPos.y, cameraPos.z,
; 643  : 			camPitch, 0.0f, camYaw,
; 644  : 			&cameraPos, &cameraRot);

	mov	eax, DWORD PTR _this$[ebp]
	add	eax, 33452				; 000082acH
	push	eax
	mov	ecx, DWORD PTR _this$[ebp]
	add	ecx, 33440				; 000082a0H
	push	ecx
	push	ecx
	movss	xmm0, DWORD PTR _camYaw$[ebp]
	movss	DWORD PTR [esp], xmm0
	push	ecx
	movss	xmm0, DWORD PTR __real@00000000
	movss	DWORD PTR [esp], xmm0
	push	ecx
	movss	xmm0, DWORD PTR _camPitch$[ebp]
	movss	DWORD PTR [esp], xmm0
	mov	edx, DWORD PTR _this$[ebp]
	push	ecx
	movss	xmm0, DWORD PTR [edx+33448]
	movss	DWORD PTR [esp], xmm0
	mov	eax, DWORD PTR _this$[ebp]
	push	ecx
	movss	xmm0, DWORD PTR [eax+33444]
	movss	DWORD PTR [esp], xmm0
	mov	ecx, DWORD PTR _this$[ebp]
	push	ecx
	movss	xmm0, DWORD PTR [ecx+33440]
	movss	DWORD PTR [esp], xmm0
	call	?PositandOrientSetData@@YAXMMMMMMPAUTpoint@@PAUTrotation@@@Z ; PositandOrientSetData
	add	esp, 32					; 00000020H

; 645  : }

	mov	ecx, DWORD PTR __$ArrayPad$[ebp]
	xor	ecx, ebp
	call	@__security_check_cookie@4
	mov	esp, ebp
	pop	ebp
	ret	4
?SetFlybyCameraPosition@OTWDriverClass@@AAEXM@Z ENDP	; OTWDriverClass::SetFlybyCameraPosition
_TEXT	ENDS
; Function compile flags: /Odtp
; File c:\users\zhitao li\documents\visual studio 2012\projects\freefalcon\sim\otwdrive\external.cpp
_TEXT	SEGMENT
tv1475 = -276						; size = 8
tv151 = -268						; size = 4
tv1427 = -264						; size = 4
tv1140 = -260						; size = 4
tv1682 = -256						; size = 4
tv1816 = -252						; size = 4
tv1652 = -248						; size = 4
tv1460 = -244						; size = 4
tv1789 = -240						; size = 4
tv1676 = -236						; size = 4
tv1856 = -232						; size = 4
tv1658 = -228						; size = 4
tv1773 = -224						; size = 4
tv1133 = -220						; size = 4
tv1767 = -216						; size = 4
tv1438 = -212						; size = 4
tv1822 = -208						; size = 4
tv1818 = -204						; size = 4
tv1761 = -200						; size = 4
tv1670 = -196						; size = 4
tv1755 = -192						; size = 4
tv1664 = -188						; size = 4
tv1820 = -184						; size = 4
tv1814 = -180						; size = 4
tv1749 = -176						; size = 4
tv1617 = -172						; size = 4
tv1743 = -168						; size = 4
tv1539 = -164						; size = 4
tv1730 = -160						; size = 4
tv1449 = -156						; size = 4
tv1720 = -152						; size = 4
tv1714 = -148						; size = 4
tv1548 = -144						; size = 4
tv354 = -140						; size = 4
tv145 = -136						; size = 4
tv338 = -132						; size = 4
tv640 = -128						; size = 4
tv158 = -124						; size = 4
tv1471 = -120						; size = 4
tv895 = -116						; size = 4
tv561 = -112						; size = 4
_camYaw$ = -108						; size = 4
_groundHeight$ = -104					; size = 4
_dRoll$ = -100						; size = 4
_camPitch$ = -96					; size = 4
_platRoll$ = -92					; size = 4
_cospsi$ = -88						; size = 4
_sintha$ = -84						; size = 4
_sinpsi$ = -80						; size = 4
_costha$ = -76						; size = 4
_dist$ = -72						; size = 4
_this$ = -68						; size = 4
_tilt$ = -64						; size = 36
_newPos$ = -28						; size = 12
_dPos$ = -16						; size = 12
__$ArrayPad$ = -4					; size = 4
_dT$ = 8						; size = 4
?SetExternalCameraPosition@OTWDriverClass@@AAEXM@Z PROC	; OTWDriverClass::SetExternalCameraPosition
; _this$ = ecx

; 103  : {

	push	ebp
	mov	ebp, esp
	sub	esp, 276				; 00000114H
	mov	eax, DWORD PTR ___security_cookie
	xor	eax, ebp
	mov	DWORD PTR __$ArrayPad$[ebp], eax
	mov	DWORD PTR _this$[ebp], ecx

; 104  : 	Trotation	tilt;
; 105  : 	float		costha, sintha, cospsi, sinpsi;
; 106  : 	Tpoint		dPos;
; 107  : 	Tpoint		newPos;
; 108  : 	float		dRoll;
; 109  : 	float		camYaw, camPitch;
; 110  : 	float		dist;
; 111  : 	float		groundHeight;
; 112  : 	float		platRoll;
; 113  : 
; 114  : 	// Display is outside the aircraft....
; 115  : 	ShiAssert( !DisplayInCockpit() );
; 116  : 
; 117  : 	// Retro 17Jan2004
; 118  : 	if ((!actionCameraMode)&&(IO.AnalogIsUsed(AXIS_ZOOM) == true))

	mov	eax, DWORD PTR _this$[ebp]
	cmp	DWORD PTR [eax+33556], 0
	jne	$LN59@SetExterna
	push	20					; 00000014H
	mov	ecx, OFFSET ?IO@@3VSIMLIB_IO_CLASS@@A	; IO
	call	?AnalogIsUsed@SIMLIB_IO_CLASS@@QAE_NW4GameAxis_t@@@Z ; SIMLIB_IO_CLASS::AnalogIsUsed
	movzx	ecx, al
	cmp	ecx, 1
	jne	$LN59@SetExterna

; 119  : 	{
; 120  : 		chaseRange = -IO.GetAxisValue(AXIS_ZOOM)/15000.f * 900.f;

	push	20					; 00000014H
	mov	ecx, OFFSET ?IO@@3VSIMLIB_IO_CLASS@@A	; IO
	call	?GetAxisValue@SIMLIB_IO_CLASS@@QAEHW4GameAxis_t@@@Z ; SIMLIB_IO_CLASS::GetAxisValue
	neg	eax
	cvtsi2ss xmm0, eax
	divss	xmm0, DWORD PTR __real@466a6000
	mulss	xmm0, DWORD PTR __real@44610000
	mov	edx, DWORD PTR _this$[ebp]
	movss	DWORD PTR [edx+32292], xmm0

; 121  : 		if ( otwPlatform && otwPlatform->drawPointer )

	mov	ecx, DWORD PTR _this$[ebp]
	add	ecx, 32336				; 00007e50H
	call	??B?$VuBin@VSimBaseClass@@@@QBE_NXZ	; VuBin<SimBaseClass>::operator bool
	movzx	eax, al
	test	eax, eax
	je	$LN58@SetExterna
	mov	ecx, DWORD PTR _this$[ebp]
	add	ecx, 32336				; 00007e50H
	call	??C?$VuBin@VSimBaseClass@@@@QBEPAVSimBaseClass@@XZ ; VuBin<SimBaseClass>::operator->
	cmp	DWORD PTR [eax+332], 0
	je	$LN58@SetExterna

; 122  : 			// Retro: the "-4.f" is the max displacement (3.f) of the displacementcam with a bit of a buffer ;)
; 123  : 			chaseRange = min (-otwPlatform->drawPointer->Radius()-4.F, chaseRange);

	mov	ecx, DWORD PTR _this$[ebp]
	add	ecx, 32336				; 00007e50H
	call	??C?$VuBin@VSimBaseClass@@@@QBEPAVSimBaseClass@@XZ ; VuBin<SimBaseClass>::operator->
	mov	ecx, DWORD PTR [eax+332]
	call	?Radius@DrawableObject@@QBEMXZ		; DrawableObject::Radius
	fstp	DWORD PTR tv1133[ebp]
	movss	xmm0, DWORD PTR tv1133[ebp]
	xorps	xmm0, DWORD PTR __xmm@80000000800000008000000080000000
	subss	xmm0, DWORD PTR __real@40800000
	mov	ecx, DWORD PTR _this$[ebp]
	movss	xmm1, DWORD PTR [ecx+32292]
	comiss	xmm1, xmm0
	jbe	SHORT $LN62@SetExterna
	mov	ecx, DWORD PTR _this$[ebp]
	add	ecx, 32336				; 00007e50H
	call	??C?$VuBin@VSimBaseClass@@@@QBEPAVSimBaseClass@@XZ ; VuBin<SimBaseClass>::operator->
	mov	ecx, DWORD PTR [eax+332]
	call	?Radius@DrawableObject@@QBEMXZ		; DrawableObject::Radius
	fstp	DWORD PTR tv1140[ebp]
	movss	xmm0, DWORD PTR tv1140[ebp]
	xorps	xmm0, DWORD PTR __xmm@80000000800000008000000080000000
	subss	xmm0, DWORD PTR __real@40800000
	movss	DWORD PTR tv145[ebp], xmm0
	jmp	SHORT $LN63@SetExterna
$LN62@SetExterna:
	mov	edx, DWORD PTR _this$[ebp]
	movss	xmm0, DWORD PTR [edx+32292]
	movss	DWORD PTR tv145[ebp], xmm0
$LN63@SetExterna:
	mov	eax, DWORD PTR _this$[ebp]
	movss	xmm0, DWORD PTR tv145[ebp]
	movss	DWORD PTR [eax+32292], xmm0

; 124  : 		else

	jmp	SHORT $LN65@SetExterna
$LN58@SetExterna:

; 125  : 			min (-50.0F, chaseRange);

	mov	ecx, DWORD PTR _this$[ebp]
	movss	xmm0, DWORD PTR [ecx+32292]
	comiss	xmm0, DWORD PTR __real@c2480000
	jbe	SHORT $LN64@SetExterna
	movss	xmm0, DWORD PTR __real@c2480000
	movss	DWORD PTR tv151[ebp], xmm0
	jmp	SHORT $LN65@SetExterna
$LN64@SetExterna:
	mov	edx, DWORD PTR _this$[ebp]
	movss	xmm0, DWORD PTR [edx+32292]
	movss	DWORD PTR tv151[ebp], xmm0
$LN65@SetExterna:

; 126  : 		chaseRange = max (-900.0F, chaseRange);

	mov	eax, DWORD PTR _this$[ebp]
	movss	xmm0, DWORD PTR __real@c4610000
	comiss	xmm0, DWORD PTR [eax+32292]
	jbe	SHORT $LN66@SetExterna
	movss	xmm0, DWORD PTR __real@c4610000
	movss	DWORD PTR tv158[ebp], xmm0
	jmp	SHORT $LN67@SetExterna
$LN66@SetExterna:
	mov	ecx, DWORD PTR _this$[ebp]
	movss	xmm0, DWORD PTR [ecx+32292]
	movss	DWORD PTR tv158[ebp], xmm0
$LN67@SetExterna:
	mov	edx, DWORD PTR _this$[ebp]
	movss	xmm0, DWORD PTR tv158[ebp]
	movss	DWORD PTR [edx+32292], xmm0
$LN59@SetExterna:

; 127  : 	}
; 128  : 	// Retro ends
; 129  : 
; 130  : 	if (PlayerOptions.GetMouseLook() == true)	// Retro 18Jan2004

	mov	ecx, OFFSET ?PlayerOptions@@3VPlayerOptionsClass@@A ; PlayerOptions
	call	?GetMouseLook@PlayerOptionsClass@@QBE_NXZ ; PlayerOptionsClass::GetMouseLook
	movzx	eax, al
	cmp	eax, 1
	jne	SHORT $LN56@SetExterna

; 131  : 		theMouseView.Compute(slewRate * dT);

	push	0
	mov	ecx, DWORD PTR _this$[ebp]
	movss	xmm0, DWORD PTR [ecx+32304]
	mulss	xmm0, DWORD PTR _dT$[ebp]
	push	ecx
	movss	DWORD PTR [esp], xmm0
	mov	ecx, OFFSET ?theMouseView@@3VMouseView@@A ; theMouseView
	call	?Compute@MouseView@@QAEXM_N@Z		; MouseView::Compute
$LN56@SetExterna:

; 132  : 
; 133  : 	if (!otwPlatform) {

	mov	ecx, DWORD PTR _this$[ebp]
	add	ecx, 32336				; 00007e50H
	call	??7?$VuBin@VSimBaseClass@@@@QBE_NXZ	; VuBin<SimBaseClass>::operator!
	movzx	edx, al
	test	edx, edx
	je	$LN55@SetExterna

; 134  : 
; 135  : 		cameraVel.x=cameraVel.y=cameraVel.z=0; // MLR 12/2/2003 - 

	mov	eax, DWORD PTR _this$[ebp]
	movss	xmm0, DWORD PTR __real@00000000
	movss	DWORD PTR [eax+33496], xmm0
	mov	ecx, DWORD PTR _this$[ebp]
	movss	xmm0, DWORD PTR __real@00000000
	movss	DWORD PTR [ecx+33492], xmm0
	mov	edx, DWORD PTR _this$[ebp]
	movss	xmm0, DWORD PTR __real@00000000
	movss	DWORD PTR [edx+33488], xmm0

; 136  : 
; 137  : 		//Retro_dead 16Jan2004		chaseAz += azDir * slewRate * dT;
; 138  : 		//Retro_dead 16Jan2004		chaseEl += elDir * slewRate * dT;
; 139  : 		// Retro 16Jan2004
; 140  : 		if (PlayerOptions.GetMouseLook() == false)	// Retro 18Jan2004

	mov	ecx, OFFSET ?PlayerOptions@@3VPlayerOptionsClass@@A ; PlayerOptions
	call	?GetMouseLook@PlayerOptionsClass@@QBE_NXZ ; PlayerOptionsClass::GetMouseLook
	movzx	eax, al
	test	eax, eax
	jne	SHORT $LN54@SetExterna

; 141  : 		{
; 142  : 			chaseAz += azDir * slewRate * dT;

	mov	ecx, DWORD PTR _this$[ebp]
	mov	edx, DWORD PTR _this$[ebp]
	movss	xmm0, DWORD PTR [ecx+32296]
	mulss	xmm0, DWORD PTR [edx+32304]
	mulss	xmm0, DWORD PTR _dT$[ebp]
	mov	eax, DWORD PTR _this$[ebp]
	addss	xmm0, DWORD PTR [eax+32284]
	mov	ecx, DWORD PTR _this$[ebp]
	movss	DWORD PTR [ecx+32284], xmm0

; 143  : 			chaseEl += elDir * slewRate * dT;

	mov	edx, DWORD PTR _this$[ebp]
	mov	eax, DWORD PTR _this$[ebp]
	movss	xmm0, DWORD PTR [edx+32300]
	mulss	xmm0, DWORD PTR [eax+32304]
	mulss	xmm0, DWORD PTR _dT$[ebp]
	mov	ecx, DWORD PTR _this$[ebp]
	addss	xmm0, DWORD PTR [ecx+32288]
	mov	edx, DWORD PTR _this$[ebp]
	movss	DWORD PTR [edx+32288], xmm0

; 144  : 		}
; 145  : 		else	// Retro 18Jan2004

	jmp	SHORT $LN53@SetExterna
$LN54@SetExterna:

; 146  : 		{
; 147  : 			chaseAz = theMouseView.GetMouseAzim();

	mov	ecx, OFFSET ?theMouseView@@3VMouseView@@A ; theMouseView
	call	?GetMouseAzim@MouseView@@QAEMXZ		; MouseView::GetMouseAzim
	mov	eax, DWORD PTR _this$[ebp]
	fstp	DWORD PTR [eax+32284]

; 148  : 			chaseEl = theMouseView.GetMouseElev();

	mov	ecx, OFFSET ?theMouseView@@3VMouseView@@A ; theMouseView
	call	?GetMouseElev@MouseView@@QAEMXZ		; MouseView::GetMouseElev
	mov	ecx, DWORD PTR _this$[ebp]
	fstp	DWORD PTR [ecx+32288]
$LN53@SetExterna:

; 149  : 		}
; 150  : 
; 151  : 		// Be around ownship, looking at it
; 152  : 		costha = (float)cos (chaseEl);

	mov	edx, DWORD PTR _this$[ebp]
	push	ecx
	movss	xmm0, DWORD PTR [edx+32288]
	movss	DWORD PTR [esp], xmm0
	call	?cos@@YAMM@Z				; cos
	add	esp, 4
	fstp	DWORD PTR _costha$[ebp]

; 153  : 		sintha = (float)sin (chaseEl);

	mov	eax, DWORD PTR _this$[ebp]
	push	ecx
	movss	xmm0, DWORD PTR [eax+32288]
	movss	DWORD PTR [esp], xmm0
	call	?sin@@YAMM@Z				; sin
	add	esp, 4
	fstp	DWORD PTR _sintha$[ebp]

; 154  : 		cospsi = (float)cos (chaseAz);

	mov	ecx, DWORD PTR _this$[ebp]
	push	ecx
	movss	xmm0, DWORD PTR [ecx+32284]
	movss	DWORD PTR [esp], xmm0
	call	?cos@@YAMM@Z				; cos
	add	esp, 4
	fstp	DWORD PTR _cospsi$[ebp]

; 155  : 		sinpsi = (float)sin (chaseAz);

	mov	edx, DWORD PTR _this$[ebp]
	push	ecx
	movss	xmm0, DWORD PTR [edx+32284]
	movss	DWORD PTR [esp], xmm0
	call	?sin@@YAMM@Z				; sin
	add	esp, 4
	fstp	DWORD PTR _sinpsi$[ebp]

; 156  : 
; 157  : 		tilt.M11 = cospsi*costha;

	movss	xmm0, DWORD PTR _cospsi$[ebp]
	mulss	xmm0, DWORD PTR _costha$[ebp]
	movss	DWORD PTR _tilt$[ebp], xmm0

; 158  : 		tilt.M12 = sinpsi*costha;

	movss	xmm0, DWORD PTR _sinpsi$[ebp]
	mulss	xmm0, DWORD PTR _costha$[ebp]
	movss	DWORD PTR _tilt$[ebp+4], xmm0

; 159  : 		tilt.M13 = -sintha;

	movss	xmm0, DWORD PTR _sintha$[ebp]
	xorps	xmm0, DWORD PTR __xmm@80000000800000008000000080000000
	movss	DWORD PTR _tilt$[ebp+8], xmm0

; 160  : 
; 161  : 		PositandOrientSetData ( chaseRange * tilt.M11, chaseRange * tilt.M12, chaseRange * tilt.M13,
; 162  : 				chaseEl, 0.0F, chaseAz,
; 163  : 				&cameraPos, &cameraRot);

	mov	eax, DWORD PTR _this$[ebp]
	add	eax, 33452				; 000082acH
	push	eax
	mov	ecx, DWORD PTR _this$[ebp]
	add	ecx, 33440				; 000082a0H
	push	ecx
	mov	edx, DWORD PTR _this$[ebp]
	push	ecx
	movss	xmm0, DWORD PTR [edx+32284]
	movss	DWORD PTR [esp], xmm0
	push	ecx
	movss	xmm0, DWORD PTR __real@00000000
	movss	DWORD PTR [esp], xmm0
	mov	eax, DWORD PTR _this$[ebp]
	push	ecx
	movss	xmm0, DWORD PTR [eax+32288]
	movss	DWORD PTR [esp], xmm0
	mov	ecx, DWORD PTR _this$[ebp]
	movss	xmm0, DWORD PTR [ecx+32292]
	mulss	xmm0, DWORD PTR _tilt$[ebp+8]
	push	ecx
	movss	DWORD PTR [esp], xmm0
	mov	edx, DWORD PTR _this$[ebp]
	movss	xmm0, DWORD PTR [edx+32292]
	mulss	xmm0, DWORD PTR _tilt$[ebp+4]
	push	ecx
	movss	DWORD PTR [esp], xmm0
	mov	eax, DWORD PTR _this$[ebp]
	movss	xmm0, DWORD PTR [eax+32292]
	mulss	xmm0, DWORD PTR _tilt$[ebp]
	push	ecx
	movss	DWORD PTR [esp], xmm0
	call	?PositandOrientSetData@@YAXMMMMMMPAUTpoint@@PAUTrotation@@@Z ; PositandOrientSetData
	add	esp, 32					; 00000020H

; 164  : 
; 165  : 		return;

	jmp	$LN60@SetExterna
$LN55@SetExterna:

; 166  : 	}
; 167  : 
; 168  : 
; 169  : 	cameraVel.x=otwPlatform->XDelta(); // MLR 12/2/2003 - 

	mov	ecx, DWORD PTR _this$[ebp]
	add	ecx, 32336				; 00007e50H
	call	??C?$VuBin@VSimBaseClass@@@@QBEPAVSimBaseClass@@XZ ; VuBin<SimBaseClass>::operator->
	mov	ecx, eax
	call	?XDelta@VuEntity@@QBEMXZ		; VuEntity::XDelta
	mov	ecx, DWORD PTR _this$[ebp]
	fstp	DWORD PTR [ecx+33488]

; 170  : 	cameraVel.y=otwPlatform->YDelta();

	mov	ecx, DWORD PTR _this$[ebp]
	add	ecx, 32336				; 00007e50H
	call	??C?$VuBin@VSimBaseClass@@@@QBEPAVSimBaseClass@@XZ ; VuBin<SimBaseClass>::operator->
	mov	ecx, eax
	call	?YDelta@VuEntity@@QBEMXZ		; VuEntity::YDelta
	mov	edx, DWORD PTR _this$[ebp]
	fstp	DWORD PTR [edx+33492]

; 171  : 	cameraVel.z=otwPlatform->ZDelta();

	mov	ecx, DWORD PTR _this$[ebp]
	add	ecx, 32336				; 00007e50H
	call	??C?$VuBin@VSimBaseClass@@@@QBEPAVSimBaseClass@@XZ ; VuBin<SimBaseClass>::operator->
	mov	ecx, eax
	call	?ZDelta@VuEntity@@QBEMXZ		; VuEntity::ZDelta
	mov	eax, DWORD PTR _this$[ebp]
	fstp	DWORD PTR [eax+33496]

; 172  : 
; 173  : 	UpdateCameraFocus();

	mov	ecx, DWORD PTR _this$[ebp]
	call	?UpdateCameraFocus@OTWDriverClass@@QAEXXZ ; OTWDriverClass::UpdateCameraFocus

; 174  : 
; 175  : 	// orbit camera
; 176  : 	if(GetOTWDisplayMode() == ModeOrbit)

	mov	ecx, DWORD PTR _this$[ebp]
	call	?GetOTWDisplayMode@OTWDriverClass@@QAE?AW4OTWDisplayMode@1@XZ ; OTWDriverClass::GetOTWDisplayMode
	cmp	eax, 6
	jne	$LN52@SetExterna

; 177  : 	{
; 178  : 		// absolute position chase mode
; 179  : 		//Retro_dead 16Jan2004		chaseAz += azDir * slewRate * dT;
; 180  : 		//Retro_dead 16Jan2004		chaseEl += elDir * slewRate * dT;
; 181  : 		// Retro 16Jan2004
; 182  : 		if (PlayerOptions.GetMouseLook() == false)	// Retro 18Jan2004

	mov	ecx, OFFSET ?PlayerOptions@@3VPlayerOptionsClass@@A ; PlayerOptions
	call	?GetMouseLook@PlayerOptionsClass@@QBE_NXZ ; PlayerOptionsClass::GetMouseLook
	movzx	ecx, al
	test	ecx, ecx
	jne	SHORT $LN51@SetExterna

; 183  : 		{
; 184  : 			chaseAz += azDir * slewRate * dT;

	mov	edx, DWORD PTR _this$[ebp]
	mov	eax, DWORD PTR _this$[ebp]
	movss	xmm0, DWORD PTR [edx+32296]
	mulss	xmm0, DWORD PTR [eax+32304]
	mulss	xmm0, DWORD PTR _dT$[ebp]
	mov	ecx, DWORD PTR _this$[ebp]
	addss	xmm0, DWORD PTR [ecx+32284]
	mov	edx, DWORD PTR _this$[ebp]
	movss	DWORD PTR [edx+32284], xmm0

; 185  : 			chaseEl += elDir * slewRate * dT;

	mov	eax, DWORD PTR _this$[ebp]
	mov	ecx, DWORD PTR _this$[ebp]
	movss	xmm0, DWORD PTR [eax+32300]
	mulss	xmm0, DWORD PTR [ecx+32304]
	mulss	xmm0, DWORD PTR _dT$[ebp]
	mov	edx, DWORD PTR _this$[ebp]
	addss	xmm0, DWORD PTR [edx+32288]
	mov	eax, DWORD PTR _this$[ebp]
	movss	DWORD PTR [eax+32288], xmm0

; 186  : 		}
; 187  : 		else	// Retro 18Jan2004

	jmp	SHORT $LN50@SetExterna
$LN51@SetExterna:

; 188  : 		{
; 189  : 			chaseAz = theMouseView.GetMouseAzim();

	mov	ecx, OFFSET ?theMouseView@@3VMouseView@@A ; theMouseView
	call	?GetMouseAzim@MouseView@@QAEMXZ		; MouseView::GetMouseAzim
	mov	ecx, DWORD PTR _this$[ebp]
	fstp	DWORD PTR [ecx+32284]

; 190  : 			chaseEl = theMouseView.GetMouseElev();

	mov	ecx, OFFSET ?theMouseView@@3VMouseView@@A ; theMouseView
	call	?GetMouseElev@MouseView@@QAEMXZ		; MouseView::GetMouseElev
	mov	edx, DWORD PTR _this$[ebp]
	fstp	DWORD PTR [edx+32288]
$LN50@SetExterna:

; 191  : 		}
; 192  : 
; 193  : 		// Be around ownship, looking at it
; 194  : 		costha = (float)cos (chaseEl);

	mov	eax, DWORD PTR _this$[ebp]
	push	ecx
	movss	xmm0, DWORD PTR [eax+32288]
	movss	DWORD PTR [esp], xmm0
	call	?cos@@YAMM@Z				; cos
	add	esp, 4
	fstp	DWORD PTR _costha$[ebp]

; 195  : 		sintha = (float)sin (chaseEl);

	mov	ecx, DWORD PTR _this$[ebp]
	push	ecx
	movss	xmm0, DWORD PTR [ecx+32288]
	movss	DWORD PTR [esp], xmm0
	call	?sin@@YAMM@Z				; sin
	add	esp, 4
	fstp	DWORD PTR _sintha$[ebp]

; 196  : 		cospsi = (float)cos (chaseAz);

	mov	edx, DWORD PTR _this$[ebp]
	push	ecx
	movss	xmm0, DWORD PTR [edx+32284]
	movss	DWORD PTR [esp], xmm0
	call	?cos@@YAMM@Z				; cos
	add	esp, 4
	fstp	DWORD PTR _cospsi$[ebp]

; 197  : 		sinpsi = (float)sin (chaseAz);

	mov	eax, DWORD PTR _this$[ebp]
	push	ecx
	movss	xmm0, DWORD PTR [eax+32284]
	movss	DWORD PTR [esp], xmm0
	call	?sin@@YAMM@Z				; sin
	add	esp, 4
	fstp	DWORD PTR _sinpsi$[ebp]

; 198  : 
; 199  : 		tilt.M11 = cospsi*costha;

	movss	xmm0, DWORD PTR _cospsi$[ebp]
	mulss	xmm0, DWORD PTR _costha$[ebp]
	movss	DWORD PTR _tilt$[ebp], xmm0

; 200  : 		tilt.M12 = sinpsi*costha;

	movss	xmm0, DWORD PTR _sinpsi$[ebp]
	mulss	xmm0, DWORD PTR _costha$[ebp]
	movss	DWORD PTR _tilt$[ebp+4], xmm0

; 201  : 		tilt.M13 = -sintha;

	movss	xmm0, DWORD PTR _sintha$[ebp]
	xorps	xmm0, DWORD PTR __xmm@80000000800000008000000080000000
	movss	DWORD PTR _tilt$[ebp+8], xmm0

; 202  : 
; 203  : 		PositandOrientSetData ( chaseRange * tilt.M11, chaseRange * tilt.M12, chaseRange * tilt.M13,
; 204  : 				chaseEl, 0.0F, chaseAz,
; 205  : 				&cameraPos, &cameraRot);

	mov	ecx, DWORD PTR _this$[ebp]
	add	ecx, 33452				; 000082acH
	push	ecx
	mov	edx, DWORD PTR _this$[ebp]
	add	edx, 33440				; 000082a0H
	push	edx
	mov	eax, DWORD PTR _this$[ebp]
	push	ecx
	movss	xmm0, DWORD PTR [eax+32284]
	movss	DWORD PTR [esp], xmm0
	push	ecx
	movss	xmm0, DWORD PTR __real@00000000
	movss	DWORD PTR [esp], xmm0
	mov	ecx, DWORD PTR _this$[ebp]
	push	ecx
	movss	xmm0, DWORD PTR [ecx+32288]
	movss	DWORD PTR [esp], xmm0
	mov	edx, DWORD PTR _this$[ebp]
	movss	xmm0, DWORD PTR [edx+32292]
	mulss	xmm0, DWORD PTR _tilt$[ebp+8]
	push	ecx
	movss	DWORD PTR [esp], xmm0
	mov	eax, DWORD PTR _this$[ebp]
	movss	xmm0, DWORD PTR [eax+32292]
	mulss	xmm0, DWORD PTR _tilt$[ebp+4]
	push	ecx
	movss	DWORD PTR [esp], xmm0
	mov	ecx, DWORD PTR _this$[ebp]
	movss	xmm0, DWORD PTR [ecx+32292]
	mulss	xmm0, DWORD PTR _tilt$[ebp]
	push	ecx
	movss	DWORD PTR [esp], xmm0
	call	?PositandOrientSetData@@YAXMMMMMMPAUTpoint@@PAUTrotation@@@Z ; PositandOrientSetData
	add	esp, 32					; 00000020H

; 206  : 
; 207  : 		// Retro 25Dec2003
; 208  : 		if ((otwPlatform->IsAirplane())&&(displaceCamera)&&(!otwPlatform->OnGround()))

	mov	ecx, DWORD PTR _this$[ebp]
	add	ecx, 32336				; 00007e50H
	call	??C?$VuBin@VSimBaseClass@@@@QBEPAVSimBaseClass@@XZ ; VuBin<SimBaseClass>::operator->
	mov	DWORD PTR tv338[ebp], eax
	mov	edx, DWORD PTR tv338[ebp]
	mov	eax, DWORD PTR [edx]
	mov	ecx, DWORD PTR tv338[ebp]
	mov	edx, DWORD PTR [eax+192]
	call	edx
	test	eax, eax
	je	SHORT $LN49@SetExterna
	mov	eax, DWORD PTR _this$[ebp]
	movzx	ecx, BYTE PTR [eax+32144]
	test	ecx, ecx
	je	SHORT $LN49@SetExterna
	mov	ecx, DWORD PTR _this$[ebp]
	add	ecx, 32336				; 00007e50H
	call	??C?$VuBin@VSimBaseClass@@@@QBEPAVSimBaseClass@@XZ ; VuBin<SimBaseClass>::operator->
	mov	DWORD PTR tv354[ebp], eax
	mov	edx, DWORD PTR tv354[ebp]
	mov	eax, DWORD PTR [edx]
	mov	ecx, DWORD PTR tv354[ebp]
	mov	edx, DWORD PTR [eax+148]
	call	edx
	test	eax, eax
	jne	SHORT $LN49@SetExterna

; 209  : 		{
; 210  : 			DisplaceTheCamera(dT);

	push	ecx
	movss	xmm0, DWORD PTR _dT$[ebp]
	movss	DWORD PTR [esp], xmm0
	mov	ecx, DWORD PTR _this$[ebp]
	call	?DisplaceTheCamera@OTWDriverClass@@AAEXM@Z ; OTWDriverClass::DisplaceTheCamera
$LN49@SetExterna:

; 211  : 		}
; 212  : 		// ..ends
; 213  : 	}

	jmp	$LN2@SetExterna
$LN52@SetExterna:

; 214  : 
; 215  : 	// satellite camera
; 216  : 	else if(GetOTWDisplayMode() == ModeSatellite)

	mov	ecx, DWORD PTR _this$[ebp]
	call	?GetOTWDisplayMode@OTWDriverClass@@QAE?AW4OTWDisplayMode@1@XZ ; OTWDriverClass::GetOTWDisplayMode
	cmp	eax, 14					; 0000000eH
	jne	$LN47@SetExterna

; 217  : 	{
; 218  : 		// absolute position chase mode
; 219  : 		chaseAz += azDir * slewRate * dT;

	mov	eax, DWORD PTR _this$[ebp]
	mov	ecx, DWORD PTR _this$[ebp]
	movss	xmm0, DWORD PTR [eax+32296]
	mulss	xmm0, DWORD PTR [ecx+32304]
	mulss	xmm0, DWORD PTR _dT$[ebp]
	mov	edx, DWORD PTR _this$[ebp]
	addss	xmm0, DWORD PTR [edx+32284]
	mov	eax, DWORD PTR _this$[ebp]
	movss	DWORD PTR [eax+32284], xmm0

; 220  : 		chaseEl += elDir * slewRate * dT;

	mov	ecx, DWORD PTR _this$[ebp]
	mov	edx, DWORD PTR _this$[ebp]
	movss	xmm0, DWORD PTR [ecx+32300]
	mulss	xmm0, DWORD PTR [edx+32304]
	mulss	xmm0, DWORD PTR _dT$[ebp]
	mov	eax, DWORD PTR _this$[ebp]
	addss	xmm0, DWORD PTR [eax+32288]
	mov	ecx, DWORD PTR _this$[ebp]
	movss	DWORD PTR [ecx+32288], xmm0

; 221  : 
; 222  : 		// put limiter or range of allowable adjustable motion.
; 223  : 		// it's supposed to be a satellite!
; 224  : 		if ( chaseEl > 75.0f * DTR )

	mov	edx, DWORD PTR _this$[ebp]
	movss	xmm0, DWORD PTR [edx+32288]
	comiss	xmm0, DWORD PTR __real@3fa78d35
	jbe	SHORT $LN46@SetExterna

; 225  : 			chaseEl = 75.0f * DTR;

	mov	eax, DWORD PTR _this$[ebp]
	movss	xmm0, DWORD PTR __real@3fa78d35
	movss	DWORD PTR [eax+32288], xmm0
	jmp	SHORT $LN44@SetExterna
$LN46@SetExterna:

; 226  : 		else if ( chaseEl < -75.0f * DTR )

	mov	ecx, DWORD PTR _this$[ebp]
	movss	xmm0, DWORD PTR __real@bfa78d35
	comiss	xmm0, DWORD PTR [ecx+32288]
	jbe	SHORT $LN44@SetExterna

; 227  : 			chaseEl = -75.0f * DTR;

	mov	edx, DWORD PTR _this$[ebp]
	movss	xmm0, DWORD PTR __real@bfa78d35
	movss	DWORD PTR [edx+32288], xmm0
$LN44@SetExterna:

; 228  : 
; 229  : 		costha = (float)cos (-90.0f * DTR + chaseEl);

	mov	eax, DWORD PTR _this$[ebp]
	movss	xmm0, DWORD PTR __real@bfc90fd9
	addss	xmm0, DWORD PTR [eax+32288]
	push	ecx
	movss	DWORD PTR [esp], xmm0
	call	?cos@@YAMM@Z				; cos
	add	esp, 4
	fstp	DWORD PTR _costha$[ebp]

; 230  : 		sintha = (float)sin (-90.0f * DTR + chaseEl);

	mov	ecx, DWORD PTR _this$[ebp]
	movss	xmm0, DWORD PTR __real@bfc90fd9
	addss	xmm0, DWORD PTR [ecx+32288]
	push	ecx
	movss	DWORD PTR [esp], xmm0
	call	?sin@@YAMM@Z				; sin
	add	esp, 4
	fstp	DWORD PTR _sintha$[ebp]

; 231  : 		cospsi = (float)cos (chaseAz);

	mov	edx, DWORD PTR _this$[ebp]
	push	ecx
	movss	xmm0, DWORD PTR [edx+32284]
	movss	DWORD PTR [esp], xmm0
	call	?cos@@YAMM@Z				; cos
	add	esp, 4
	fstp	DWORD PTR _cospsi$[ebp]

; 232  : 		sinpsi = (float)sin (chaseAz);

	mov	eax, DWORD PTR _this$[ebp]
	push	ecx
	movss	xmm0, DWORD PTR [eax+32284]
	movss	DWORD PTR [esp], xmm0
	call	?sin@@YAMM@Z				; sin
	add	esp, 4
	fstp	DWORD PTR _sinpsi$[ebp]

; 233  : 
; 234  : 		tilt.M11 = cospsi*costha;

	movss	xmm0, DWORD PTR _cospsi$[ebp]
	mulss	xmm0, DWORD PTR _costha$[ebp]
	movss	DWORD PTR _tilt$[ebp], xmm0

; 235  : 		tilt.M12 = sinpsi*costha;

	movss	xmm0, DWORD PTR _sinpsi$[ebp]
	mulss	xmm0, DWORD PTR _costha$[ebp]
	movss	DWORD PTR _tilt$[ebp+4], xmm0

; 236  : 		tilt.M13 = -sintha;

	movss	xmm0, DWORD PTR _sintha$[ebp]
	xorps	xmm0, DWORD PTR __xmm@80000000800000008000000080000000
	movss	DWORD PTR _tilt$[ebp+8], xmm0

; 237  : 
; 238  : 		PositandOrientSetData (20.0f * chaseRange * tilt.M11,
; 239  : 				20.0f * chaseRange * tilt.M12,
; 240  : 				20.0f * chaseRange * tilt.M13,
; 241  : 				chaseEl - 90.0f * DTR,
; 242  : 				0.0F,
; 243  : 				chaseAz,
; 244  : 				&cameraPos,
; 245  : 				&cameraRot);

	mov	ecx, DWORD PTR _this$[ebp]
	add	ecx, 33452				; 000082acH
	push	ecx
	mov	edx, DWORD PTR _this$[ebp]
	add	edx, 33440				; 000082a0H
	push	edx
	mov	eax, DWORD PTR _this$[ebp]
	push	ecx
	movss	xmm0, DWORD PTR [eax+32284]
	movss	DWORD PTR [esp], xmm0
	push	ecx
	movss	xmm0, DWORD PTR __real@00000000
	movss	DWORD PTR [esp], xmm0
	mov	ecx, DWORD PTR _this$[ebp]
	movss	xmm0, DWORD PTR [ecx+32288]
	subss	xmm0, DWORD PTR __real@3fc90fd9
	push	ecx
	movss	DWORD PTR [esp], xmm0
	mov	edx, DWORD PTR _this$[ebp]
	movss	xmm0, DWORD PTR __real@41a00000
	mulss	xmm0, DWORD PTR [edx+32292]
	mulss	xmm0, DWORD PTR _tilt$[ebp+8]
	push	ecx
	movss	DWORD PTR [esp], xmm0
	mov	eax, DWORD PTR _this$[ebp]
	movss	xmm0, DWORD PTR __real@41a00000
	mulss	xmm0, DWORD PTR [eax+32292]
	mulss	xmm0, DWORD PTR _tilt$[ebp+4]
	push	ecx
	movss	DWORD PTR [esp], xmm0
	mov	ecx, DWORD PTR _this$[ebp]
	movss	xmm0, DWORD PTR __real@41a00000
	mulss	xmm0, DWORD PTR [ecx+32292]
	mulss	xmm0, DWORD PTR _tilt$[ebp]
	push	ecx
	movss	DWORD PTR [esp], xmm0
	call	?PositandOrientSetData@@YAXMMMMMMPAUTpoint@@PAUTrotation@@@Z ; PositandOrientSetData
	add	esp, 32					; 00000020H

; 246  : 
; 247  : 		// PositandOrientSetData (0.0f, 0.0f, chaseRange * 20.0f,
; 248  : 		// 	camPitch, chaseAz, 0.0f,
; 249  : 		// 	&cameraPos, &cameraRot);
; 250  : 
; 251  : 	}
; 252  : 
; 253  : 	// handle various cases of chase camera
; 254  : 	else if( GetOTWDisplayMode() == ModeChase ||

	jmp	$LN2@SetExterna
$LN47@SetExterna:

; 255  : 			(
; 256  : 			 ( GetOTWDisplayMode() == ModeAirFriendly ||
; 257  : 				 GetOTWDisplayMode() == ModeAirEnemy ||
; 258  : 				 GetOTWDisplayMode() == ModeGroundEnemy ||
; 259  : 				 GetOTWDisplayMode() == ModeGroundFriendly ||
; 260  : 				 GetOTWDisplayMode() == ModeTarget ||
; 261  : 				 GetOTWDisplayMode() == ModeTargetToSelf ||
; 262  : 				 GetOTWDisplayMode() == ModeTargetToWeapon ||
; 263  : 				 GetOTWDisplayMode() == ModeIncoming ||
; 264  : 				 GetOTWDisplayMode() == ModeWeapon ) &&
; 265  : 			 (otwTrackPlatform.get() == NULL || otwTrackPlatform == otwPlatform)
; 266  : 			) )

	mov	ecx, DWORD PTR _this$[ebp]
	call	?GetOTWDisplayMode@OTWDriverClass@@QAE?AW4OTWDisplayMode@1@XZ ; OTWDriverClass::GetOTWDisplayMode
	cmp	eax, 7
	je	$LN39@SetExterna
	mov	ecx, DWORD PTR _this$[ebp]
	call	?GetOTWDisplayMode@OTWDriverClass@@QAE?AW4OTWDisplayMode@1@XZ ; OTWDriverClass::GetOTWDisplayMode
	cmp	eax, 8
	je	SHORT $LN40@SetExterna
	mov	ecx, DWORD PTR _this$[ebp]
	call	?GetOTWDisplayMode@OTWDriverClass@@QAE?AW4OTWDisplayMode@1@XZ ; OTWDriverClass::GetOTWDisplayMode
	cmp	eax, 10					; 0000000aH
	je	SHORT $LN40@SetExterna
	mov	ecx, DWORD PTR _this$[ebp]
	call	?GetOTWDisplayMode@OTWDriverClass@@QAE?AW4OTWDisplayMode@1@XZ ; OTWDriverClass::GetOTWDisplayMode
	cmp	eax, 11					; 0000000bH
	je	SHORT $LN40@SetExterna
	mov	ecx, DWORD PTR _this$[ebp]
	call	?GetOTWDisplayMode@OTWDriverClass@@QAE?AW4OTWDisplayMode@1@XZ ; OTWDriverClass::GetOTWDisplayMode
	cmp	eax, 9
	je	SHORT $LN40@SetExterna
	mov	ecx, DWORD PTR _this$[ebp]
	call	?GetOTWDisplayMode@OTWDriverClass@@QAE?AW4OTWDisplayMode@1@XZ ; OTWDriverClass::GetOTWDisplayMode
	cmp	eax, 12					; 0000000cH
	je	SHORT $LN40@SetExterna
	mov	ecx, DWORD PTR _this$[ebp]
	call	?GetOTWDisplayMode@OTWDriverClass@@QAE?AW4OTWDisplayMode@1@XZ ; OTWDriverClass::GetOTWDisplayMode
	cmp	eax, 17					; 00000011H
	je	SHORT $LN40@SetExterna
	mov	ecx, DWORD PTR _this$[ebp]
	call	?GetOTWDisplayMode@OTWDriverClass@@QAE?AW4OTWDisplayMode@1@XZ ; OTWDriverClass::GetOTWDisplayMode
	cmp	eax, 18					; 00000012H
	je	SHORT $LN40@SetExterna
	mov	ecx, DWORD PTR _this$[ebp]
	call	?GetOTWDisplayMode@OTWDriverClass@@QAE?AW4OTWDisplayMode@1@XZ ; OTWDriverClass::GetOTWDisplayMode
	cmp	eax, 15					; 0000000fH
	je	SHORT $LN40@SetExterna
	mov	ecx, DWORD PTR _this$[ebp]
	call	?GetOTWDisplayMode@OTWDriverClass@@QAE?AW4OTWDisplayMode@1@XZ ; OTWDriverClass::GetOTWDisplayMode
	cmp	eax, 13					; 0000000dH
	jne	$LN42@SetExterna
$LN40@SetExterna:
	mov	ecx, DWORD PTR _this$[ebp]
	add	ecx, 32332				; 00007e4cH
	call	?get@?$VuBin@VSimBaseClass@@@@QBEPAVSimBaseClass@@XZ ; VuBin<SimBaseClass>::get
	test	eax, eax
	je	SHORT $LN39@SetExterna
	mov	edx, DWORD PTR _this$[ebp]
	add	edx, 32336				; 00007e50H
	push	edx
	mov	ecx, DWORD PTR _this$[ebp]
	add	ecx, 32332				; 00007e4cH
	call	??8?$VuBin@VSimBaseClass@@@@QBE_NABV0@@Z ; VuBin<SimBaseClass>::operator==
	movzx	eax, al
	test	eax, eax
	je	$LN42@SetExterna
$LN39@SetExterna:

; 267  : 	{
; 268  : 
; 269  : 		// "spring" constants for camera roll and move
; 270  : #define KMOVE			0.59f
; 271  : #define KROLL			0.55f
; 272  : 
; 273  : 		// allow a relative slewing when in chase mode
; 274  : 		chaseAz += azDir * slewRate * dT;

	mov	ecx, DWORD PTR _this$[ebp]
	mov	edx, DWORD PTR _this$[ebp]
	movss	xmm0, DWORD PTR [ecx+32296]
	mulss	xmm0, DWORD PTR [edx+32304]
	mulss	xmm0, DWORD PTR _dT$[ebp]
	mov	eax, DWORD PTR _this$[ebp]
	addss	xmm0, DWORD PTR [eax+32284]
	mov	ecx, DWORD PTR _this$[ebp]
	movss	DWORD PTR [ecx+32284], xmm0

; 275  : 		chaseEl += elDir * slewRate * dT;

	mov	edx, DWORD PTR _this$[ebp]
	mov	eax, DWORD PTR _this$[ebp]
	movss	xmm0, DWORD PTR [edx+32300]
	mulss	xmm0, DWORD PTR [eax+32304]
	mulss	xmm0, DWORD PTR _dT$[ebp]
	mov	ecx, DWORD PTR _this$[ebp]
	addss	xmm0, DWORD PTR [ecx+32288]
	mov	edx, DWORD PTR _this$[ebp]
	movss	DWORD PTR [edx+32288], xmm0

; 276  : 
; 277  : 		// put limiter or range of allowable adjustable motion.
; 278  : 		// it's actually quite disorienting to be in in "chase"
; 279  : 		// when in front of the plane.  Plus, rolling doesn't
; 280  : 		// work well
; 281  : 		if ( chaseAz > 45.0f * DTR )

	mov	eax, DWORD PTR _this$[ebp]
	movss	xmm0, DWORD PTR [eax+32284]
	comiss	xmm0, DWORD PTR __real@3f490fd9
	jbe	SHORT $LN38@SetExterna

; 282  : 			chaseAz = 45.0f * DTR;

	mov	ecx, DWORD PTR _this$[ebp]
	movss	xmm0, DWORD PTR __real@3f490fd9
	movss	DWORD PTR [ecx+32284], xmm0
	jmp	SHORT $LN36@SetExterna
$LN38@SetExterna:

; 283  : 		else if ( chaseAz < -45.0f * DTR )

	mov	edx, DWORD PTR _this$[ebp]
	movss	xmm0, DWORD PTR __real@bf490fd9
	comiss	xmm0, DWORD PTR [edx+32284]
	jbe	SHORT $LN36@SetExterna

; 284  : 			chaseAz = -45.0f * DTR;

	mov	eax, DWORD PTR _this$[ebp]
	movss	xmm0, DWORD PTR __real@bf490fd9
	movss	DWORD PTR [eax+32284], xmm0
$LN36@SetExterna:

; 285  : 		if ( chaseEl > 45.0f * DTR )

	mov	ecx, DWORD PTR _this$[ebp]
	movss	xmm0, DWORD PTR [ecx+32288]
	comiss	xmm0, DWORD PTR __real@3f490fd9
	jbe	SHORT $LN35@SetExterna

; 286  : 			chaseEl = 45.0f * DTR;

	mov	edx, DWORD PTR _this$[ebp]
	movss	xmm0, DWORD PTR __real@3f490fd9
	movss	DWORD PTR [edx+32288], xmm0
	jmp	SHORT $LN33@SetExterna
$LN35@SetExterna:

; 287  : 		else if ( chaseEl < -45.0f * DTR )

	mov	eax, DWORD PTR _this$[ebp]
	movss	xmm0, DWORD PTR __real@bf490fd9
	comiss	xmm0, DWORD PTR [eax+32288]
	jbe	SHORT $LN33@SetExterna

; 288  : 			chaseEl = -45.0f * DTR;

	mov	ecx, DWORD PTR _this$[ebp]
	movss	xmm0, DWORD PTR __real@bf490fd9
	movss	DWORD PTR [ecx+32288], xmm0
$LN33@SetExterna:

; 289  : 
; 290  : 		costha = (float)cos (chaseEl + otwPlatform->Pitch());

	mov	ecx, DWORD PTR _this$[ebp]
	add	ecx, 32336				; 00007e50H
	call	??C?$VuBin@VSimBaseClass@@@@QBEPAVSimBaseClass@@XZ ; VuBin<SimBaseClass>::operator->
	mov	ecx, eax
	call	?Pitch@VuEntity@@QBEMXZ			; VuEntity::Pitch
	fstp	DWORD PTR tv1427[ebp]
	mov	edx, DWORD PTR _this$[ebp]
	movss	xmm0, DWORD PTR tv1427[ebp]
	addss	xmm0, DWORD PTR [edx+32288]
	push	ecx
	movss	DWORD PTR [esp], xmm0
	call	?cos@@YAMM@Z				; cos
	add	esp, 4
	fstp	DWORD PTR _costha$[ebp]

; 291  : 		sintha = (float)sin (chaseEl + otwPlatform->Pitch());

	mov	ecx, DWORD PTR _this$[ebp]
	add	ecx, 32336				; 00007e50H
	call	??C?$VuBin@VSimBaseClass@@@@QBEPAVSimBaseClass@@XZ ; VuBin<SimBaseClass>::operator->
	mov	ecx, eax
	call	?Pitch@VuEntity@@QBEMXZ			; VuEntity::Pitch
	fstp	DWORD PTR tv1438[ebp]
	mov	eax, DWORD PTR _this$[ebp]
	movss	xmm0, DWORD PTR tv1438[ebp]
	addss	xmm0, DWORD PTR [eax+32288]
	push	ecx
	movss	DWORD PTR [esp], xmm0
	call	?sin@@YAMM@Z				; sin
	add	esp, 4
	fstp	DWORD PTR _sintha$[ebp]

; 292  : 		cospsi = (float)cos (chaseAz + otwPlatform->Yaw());

	mov	ecx, DWORD PTR _this$[ebp]
	add	ecx, 32336				; 00007e50H
	call	??C?$VuBin@VSimBaseClass@@@@QBEPAVSimBaseClass@@XZ ; VuBin<SimBaseClass>::operator->
	mov	ecx, eax
	call	?Yaw@VuEntity@@QBEMXZ			; VuEntity::Yaw
	fstp	DWORD PTR tv1449[ebp]
	mov	ecx, DWORD PTR _this$[ebp]
	movss	xmm0, DWORD PTR tv1449[ebp]
	addss	xmm0, DWORD PTR [ecx+32284]
	push	ecx
	movss	DWORD PTR [esp], xmm0
	call	?cos@@YAMM@Z				; cos
	add	esp, 4
	fstp	DWORD PTR _cospsi$[ebp]

; 293  : 		sinpsi = (float)sin (chaseAz + otwPlatform->Yaw());

	mov	ecx, DWORD PTR _this$[ebp]
	add	ecx, 32336				; 00007e50H
	call	??C?$VuBin@VSimBaseClass@@@@QBEPAVSimBaseClass@@XZ ; VuBin<SimBaseClass>::operator->
	mov	ecx, eax
	call	?Yaw@VuEntity@@QBEMXZ			; VuEntity::Yaw
	fstp	DWORD PTR tv1460[ebp]
	mov	edx, DWORD PTR _this$[ebp]
	movss	xmm0, DWORD PTR tv1460[ebp]
	addss	xmm0, DWORD PTR [edx+32284]
	push	ecx
	movss	DWORD PTR [esp], xmm0
	call	?sin@@YAMM@Z				; sin
	add	esp, 4
	fstp	DWORD PTR _sinpsi$[ebp]

; 294  : 
; 295  : 		tilt.M11 = cospsi*costha;

	movss	xmm0, DWORD PTR _cospsi$[ebp]
	mulss	xmm0, DWORD PTR _costha$[ebp]
	movss	DWORD PTR _tilt$[ebp], xmm0

; 296  : 		tilt.M12 = sinpsi*costha;

	movss	xmm0, DWORD PTR _sinpsi$[ebp]
	mulss	xmm0, DWORD PTR _costha$[ebp]
	movss	DWORD PTR _tilt$[ebp+4], xmm0

; 297  : 		tilt.M13 = -sintha;

	movss	xmm0, DWORD PTR _sintha$[ebp]
	xorps	xmm0, DWORD PTR __xmm@80000000800000008000000080000000
	movss	DWORD PTR _tilt$[ebp+8], xmm0

; 298  : 
; 299  : 		// convert frame loop time to secs from ms
; 300  : 		dT = (float)frameTime * 0.001F;

	mov	eax, DWORD PTR _this$[ebp]
	mov	ecx, DWORD PTR [eax+33420]
	mov	DWORD PTR tv1471[ebp], ecx
	cvtsi2sd xmm0, DWORD PTR tv1471[ebp]
	mov	edx, DWORD PTR tv1471[ebp]
	shr	edx, 31					; 0000001fH
	addsd	xmm0, QWORD PTR __xmm@41f00000000000000000000000000000[edx*8]
	movsd	QWORD PTR tv1475[ebp], xmm0
	cvtsd2ss xmm0, QWORD PTR tv1475[ebp]
	mulss	xmm0, DWORD PTR __real@3a83126f
	movss	DWORD PTR _dT$[ebp], xmm0

; 301  : 		// clamp dT
; 302  : 		if ( dT < 0.01f )

	movss	xmm0, DWORD PTR __real@3c23d70a
	comiss	xmm0, DWORD PTR _dT$[ebp]
	jbe	SHORT $LN32@SetExterna

; 303  : 			dT = 0.01f;

	movss	xmm0, DWORD PTR __real@3c23d70a
	movss	DWORD PTR _dT$[ebp], xmm0
	jmp	SHORT $LN30@SetExterna
$LN32@SetExterna:

; 304  : 		else if ( dT > 0.5f )

	movss	xmm0, DWORD PTR _dT$[ebp]
	comiss	xmm0, DWORD PTR __real@3f000000
	jbe	SHORT $LN30@SetExterna

; 305  : 			dT = 0.5f;

	movss	xmm0, DWORD PTR __real@3f000000
	movss	DWORD PTR _dT$[ebp], xmm0
$LN30@SetExterna:

; 306  : 
; 307  : 		// get the position we want the camera to go to
; 308  : 		if ( GetOTWDisplayMode() == ModeWeapon  )

	mov	ecx, DWORD PTR _this$[ebp]
	call	?GetOTWDisplayMode@OTWDriverClass@@QAE?AW4OTWDisplayMode@1@XZ ; OTWDriverClass::GetOTWDisplayMode
	cmp	eax, 13					; 0000000dH
	jne	$LN29@SetExterna

; 309  : 		{
; 310  : 			if ( otwPlatform->IsBomb() )

	mov	ecx, DWORD PTR _this$[ebp]
	add	ecx, 32336				; 00007e50H
	call	??C?$VuBin@VSimBaseClass@@@@QBEPAVSimBaseClass@@XZ ; VuBin<SimBaseClass>::operator->
	mov	DWORD PTR tv561[ebp], eax
	mov	eax, DWORD PTR tv561[ebp]
	mov	edx, DWORD PTR [eax]
	mov	ecx, DWORD PTR tv561[ebp]
	mov	eax, DWORD PTR [edx+164]
	call	eax
	test	eax, eax
	je	SHORT $LN28@SetExterna

; 311  : 			{
; 312  : 				chaseCamPos.x = 0.0f;

	mov	ecx, DWORD PTR _this$[ebp]
	movss	xmm0, DWORD PTR __real@00000000
	movss	DWORD PTR [ecx+32308], xmm0

; 313  : 				chaseCamPos.y = 0.0f;

	mov	edx, DWORD PTR _this$[ebp]
	movss	xmm0, DWORD PTR __real@00000000
	movss	DWORD PTR [edx+32312], xmm0

; 314  : 				chaseCamPos.z = chaseRange * 0.5f;

	mov	eax, DWORD PTR _this$[ebp]
	movss	xmm0, DWORD PTR [eax+32292]
	mulss	xmm0, DWORD PTR __real@3f000000
	mov	ecx, DWORD PTR _this$[ebp]
	movss	DWORD PTR [ecx+32316], xmm0

; 315  : 			}
; 316  : 			else

	jmp	SHORT $LN27@SetExterna
$LN28@SetExterna:

; 317  : 			{
; 318  : 				// chaseCamPos.x = otwPlatform->dmx[0][0] * chaseRange * 0.5f;
; 319  : 				// chaseCamPos.y = otwPlatform->dmx[0][1] * chaseRange * 0.5f;
; 320  : 				// chaseCamPos.z = otwPlatform->dmx[0][2] * chaseRange * 0.5f - 10.0f;
; 321  : 				chaseCamPos.x = tilt.M11 * chaseRange * 0.5f;

	mov	edx, DWORD PTR _this$[ebp]
	movss	xmm0, DWORD PTR _tilt$[ebp]
	mulss	xmm0, DWORD PTR [edx+32292]
	mulss	xmm0, DWORD PTR __real@3f000000
	mov	eax, DWORD PTR _this$[ebp]
	movss	DWORD PTR [eax+32308], xmm0

; 322  : 				chaseCamPos.y = tilt.M12 * chaseRange * 0.5f;

	mov	ecx, DWORD PTR _this$[ebp]
	movss	xmm0, DWORD PTR _tilt$[ebp+4]
	mulss	xmm0, DWORD PTR [ecx+32292]
	mulss	xmm0, DWORD PTR __real@3f000000
	mov	edx, DWORD PTR _this$[ebp]
	movss	DWORD PTR [edx+32312], xmm0

; 323  : 				chaseCamPos.z = tilt.M13 * chaseRange * 0.5f - 10.0f;

	mov	eax, DWORD PTR _this$[ebp]
	movss	xmm0, DWORD PTR _tilt$[ebp+8]
	mulss	xmm0, DWORD PTR [eax+32292]
	mulss	xmm0, DWORD PTR __real@3f000000
	subss	xmm0, DWORD PTR __real@41200000
	mov	ecx, DWORD PTR _this$[ebp]
	movss	DWORD PTR [ecx+32316], xmm0
$LN27@SetExterna:

; 324  : 			}
; 325  : 		}
; 326  : 		else

	jmp	SHORT $LN26@SetExterna
$LN29@SetExterna:

; 327  : 		{
; 328  : 			// chaseCamPos.x = otwPlatform->dmx[0][0] * chaseRange;
; 329  : 			// chaseCamPos.y = otwPlatform->dmx[0][1] * chaseRange;
; 330  : 			// chaseCamPos.z = otwPlatform->dmx[0][2] * chaseRange - 10.0f;
; 331  : 			chaseCamPos.x = tilt.M11 * chaseRange ;

	mov	edx, DWORD PTR _this$[ebp]
	movss	xmm0, DWORD PTR _tilt$[ebp]
	mulss	xmm0, DWORD PTR [edx+32292]
	mov	eax, DWORD PTR _this$[ebp]
	movss	DWORD PTR [eax+32308], xmm0

; 332  : 			chaseCamPos.y = tilt.M12 * chaseRange ;

	mov	ecx, DWORD PTR _this$[ebp]
	movss	xmm0, DWORD PTR _tilt$[ebp+4]
	mulss	xmm0, DWORD PTR [ecx+32292]
	mov	edx, DWORD PTR _this$[ebp]
	movss	DWORD PTR [edx+32312], xmm0

; 333  : 			chaseCamPos.z = tilt.M13 * chaseRange  - 10.0f;

	mov	eax, DWORD PTR _this$[ebp]
	movss	xmm0, DWORD PTR _tilt$[ebp+8]
	mulss	xmm0, DWORD PTR [eax+32292]
	subss	xmm0, DWORD PTR __real@41200000
	mov	ecx, DWORD PTR _this$[ebp]
	movss	DWORD PTR [ecx+32316], xmm0
$LN26@SetExterna:

; 334  : 		}
; 335  : 
; 336  : 		// check ground height of platform -- if near, raise the
; 337  : 		// cam position
; 338  : 		groundHeight = viewPoint->GetGroundLevel(otwPlatform->XPos(), otwPlatform->YPos());

	push	0
	push	0
	mov	ecx, DWORD PTR _this$[ebp]
	add	ecx, 32336				; 00007e50H
	call	??C?$VuBin@VSimBaseClass@@@@QBEPAVSimBaseClass@@XZ ; VuBin<SimBaseClass>::operator->
	mov	ecx, eax
	call	?YPos@VuEntity@@QBEMXZ			; VuEntity::YPos
	push	ecx
	fstp	DWORD PTR [esp]
	mov	ecx, DWORD PTR _this$[ebp]
	add	ecx, 32336				; 00007e50H
	call	??C?$VuBin@VSimBaseClass@@@@QBEPAVSimBaseClass@@XZ ; VuBin<SimBaseClass>::operator->
	mov	ecx, eax
	call	?XPos@VuEntity@@QBEMXZ			; VuEntity::XPos
	push	ecx
	fstp	DWORD PTR [esp]
	mov	edx, DWORD PTR _this$[ebp]
	mov	ecx, DWORD PTR [edx+32148]
	call	?GetGroundLevel@TViewPoint@@QAEMMMPAUTpoint@@PAH@Z ; TViewPoint::GetGroundLevel
	fstp	DWORD PTR _groundHeight$[ebp]

; 339  : 		if ( otwPlatform->IsWeapon() )

	mov	ecx, DWORD PTR _this$[ebp]
	add	ecx, 32336				; 00007e50H
	call	??C?$VuBin@VSimBaseClass@@@@QBEPAVSimBaseClass@@XZ ; VuBin<SimBaseClass>::operator->
	mov	DWORD PTR tv640[ebp], eax
	mov	eax, DWORD PTR tv640[ebp]
	mov	edx, DWORD PTR [eax]
	mov	ecx, DWORD PTR tv640[ebp]
	mov	eax, DWORD PTR [edx+204]
	call	eax
	test	eax, eax
	je	SHORT $LN25@SetExterna

; 340  : 		{
; 341  : 			if ( otwPlatform->ZPos() >= groundHeight - 200.0f )

	mov	ecx, DWORD PTR _this$[ebp]
	add	ecx, 32336				; 00007e50H
	call	??C?$VuBin@VSimBaseClass@@@@QBEPAVSimBaseClass@@XZ ; VuBin<SimBaseClass>::operator->
	mov	ecx, eax
	call	?ZPos@VuEntity@@QBEMXZ			; VuEntity::ZPos
	fstp	DWORD PTR tv1539[ebp]
	movss	xmm0, DWORD PTR tv1539[ebp]
	movss	xmm1, DWORD PTR _groundHeight$[ebp]
	subss	xmm1, DWORD PTR __real@43480000
	comiss	xmm0, xmm1
	jb	SHORT $LN24@SetExterna

; 342  : 				chaseCamPos.z  = groundHeight - 800.0f;

	movss	xmm0, DWORD PTR _groundHeight$[ebp]
	subss	xmm0, DWORD PTR __real@44480000
	mov	ecx, DWORD PTR _this$[ebp]
	movss	DWORD PTR [ecx+32316], xmm0
$LN24@SetExterna:

; 343  : 		}

	jmp	SHORT $LN22@SetExterna
$LN25@SetExterna:

; 344  : 		else if ( otwPlatform->ZPos() >= groundHeight - 20.0f )

	mov	ecx, DWORD PTR _this$[ebp]
	add	ecx, 32336				; 00007e50H
	call	??C?$VuBin@VSimBaseClass@@@@QBEPAVSimBaseClass@@XZ ; VuBin<SimBaseClass>::operator->
	mov	ecx, eax
	call	?ZPos@VuEntity@@QBEMXZ			; VuEntity::ZPos
	fstp	DWORD PTR tv1548[ebp]
	movss	xmm0, DWORD PTR tv1548[ebp]
	movss	xmm1, DWORD PTR _groundHeight$[ebp]
	subss	xmm1, DWORD PTR __real@41a00000
	comiss	xmm0, xmm1
	jb	SHORT $LN22@SetExterna

; 345  : 		{
; 346  : 			chaseCamPos.z -= 50.0f;

	mov	edx, DWORD PTR _this$[ebp]
	movss	xmm0, DWORD PTR [edx+32316]
	subss	xmm0, DWORD PTR __real@42480000
	mov	eax, DWORD PTR _this$[ebp]
	movss	DWORD PTR [eax+32316], xmm0
$LN22@SetExterna:

; 347  : 		}
; 348  : 
; 349  : 		// get the diff between desired and current camera pos
; 350  : 		dPos.x = chaseCamPos.x - cameraPos.x;

	mov	ecx, DWORD PTR _this$[ebp]
	mov	edx, DWORD PTR _this$[ebp]
	movss	xmm0, DWORD PTR [ecx+32308]
	subss	xmm0, DWORD PTR [edx+33440]
	movss	DWORD PTR _dPos$[ebp], xmm0

; 351  : 		dPos.y = chaseCamPos.y - cameraPos.y;

	mov	eax, DWORD PTR _this$[ebp]
	mov	ecx, DWORD PTR _this$[ebp]
	movss	xmm0, DWORD PTR [eax+32312]
	subss	xmm0, DWORD PTR [ecx+33444]
	movss	DWORD PTR _dPos$[ebp+4], xmm0

; 352  : 		dPos.z = chaseCamPos.z - cameraPos.z;

	mov	edx, DWORD PTR _this$[ebp]
	mov	eax, DWORD PTR _this$[ebp]
	movss	xmm0, DWORD PTR [edx+32316]
	subss	xmm0, DWORD PTR [eax+33448]
	movss	DWORD PTR _dPos$[ebp+8], xmm0

; 353  : 
; 354  : 
; 355  : 		// send the camera thataway
; 356  : 		newPos.x = cameraPos.x + dPos.x * dT * KMOVE;

	movss	xmm0, DWORD PTR _dPos$[ebp]
	mulss	xmm0, DWORD PTR _dT$[ebp]
	mulss	xmm0, DWORD PTR __real@3f170a3d
	mov	ecx, DWORD PTR _this$[ebp]
	addss	xmm0, DWORD PTR [ecx+33440]
	movss	DWORD PTR _newPos$[ebp], xmm0

; 357  : 		newPos.y = cameraPos.y + dPos.y * dT * KMOVE;

	movss	xmm0, DWORD PTR _dPos$[ebp+4]
	mulss	xmm0, DWORD PTR _dT$[ebp]
	mulss	xmm0, DWORD PTR __real@3f170a3d
	mov	edx, DWORD PTR _this$[ebp]
	addss	xmm0, DWORD PTR [edx+33444]
	movss	DWORD PTR _newPos$[ebp+4], xmm0

; 358  : 		newPos.z = cameraPos.z + dPos.z * dT * KMOVE;

	movss	xmm0, DWORD PTR _dPos$[ebp+8]
	mulss	xmm0, DWORD PTR _dT$[ebp]
	mulss	xmm0, DWORD PTR __real@3f170a3d
	mov	eax, DWORD PTR _this$[ebp]
	addss	xmm0, DWORD PTR [eax+33448]
	movss	DWORD PTR _newPos$[ebp+8], xmm0

; 359  : 
; 360  : 		// "look at" vector
; 361  : 		dPos.x = -newPos.x;

	movss	xmm0, DWORD PTR _newPos$[ebp]
	xorps	xmm0, DWORD PTR __xmm@80000000800000008000000080000000
	movss	DWORD PTR _dPos$[ebp], xmm0

; 362  : 		dPos.y = -newPos.y;

	movss	xmm0, DWORD PTR _newPos$[ebp+4]
	xorps	xmm0, DWORD PTR __xmm@80000000800000008000000080000000
	movss	DWORD PTR _dPos$[ebp+4], xmm0

; 363  : 		dPos.z = -newPos.z;

	movss	xmm0, DWORD PTR _newPos$[ebp+8]
	xorps	xmm0, DWORD PTR __xmm@80000000800000008000000080000000
	movss	DWORD PTR _dPos$[ebp+8], xmm0

; 364  : 
; 365  : 		// get new camera roll
; 366  : 		// we need to check the quadrant of platform vs cam roll and
; 367  : 		// roll in the direction of the shortest distance
; 368  : 		if ( endFlightTimer == 0 )

	mov	ecx, DWORD PTR _this$[ebp]
	cmp	DWORD PTR [ecx+33540], 0
	jne	SHORT $LN21@SetExterna

; 369  : 			platRoll = otwPlatform->Roll();

	mov	ecx, DWORD PTR _this$[ebp]
	add	ecx, 32336				; 00007e50H
	call	??C?$VuBin@VSimBaseClass@@@@QBEPAVSimBaseClass@@XZ ; VuBin<SimBaseClass>::operator->
	mov	ecx, eax
	call	?Roll@VuEntity@@QBEMXZ			; VuEntity::Roll
	fstp	DWORD PTR _platRoll$[ebp]

; 370  : 		else

	jmp	SHORT $LN20@SetExterna
$LN21@SetExterna:

; 371  : 			platRoll = 0.0f;

	movss	xmm0, DWORD PTR __real@00000000
	movss	DWORD PTR _platRoll$[ebp], xmm0
$LN20@SetExterna:

; 372  : 
; 373  : 		if ( platRoll < -90.0f * DTR && chaseCamRoll > 90.0f * DTR )

	movss	xmm0, DWORD PTR __real@bfc90fd9
	comiss	xmm0, DWORD PTR _platRoll$[ebp]
	jbe	SHORT $LN19@SetExterna
	mov	edx, DWORD PTR _this$[ebp]
	movss	xmm0, DWORD PTR [edx+32320]
	comiss	xmm0, DWORD PTR __real@3fc90fd9
	jbe	SHORT $LN19@SetExterna

; 374  : 		{
; 375  : 			dRoll = platRoll + (360.0f * DTR) - chaseCamRoll;

	movss	xmm0, DWORD PTR _platRoll$[ebp]
	addss	xmm0, DWORD PTR __real@40c90fd9
	mov	eax, DWORD PTR _this$[ebp]
	subss	xmm0, DWORD PTR [eax+32320]
	movss	DWORD PTR _dRoll$[ebp], xmm0
	jmp	SHORT $LN16@SetExterna
$LN19@SetExterna:

; 376  : 		}
; 377  : 		else if ( platRoll > 90.0f * DTR && chaseCamRoll < -90.0f * DTR )

	movss	xmm0, DWORD PTR _platRoll$[ebp]
	comiss	xmm0, DWORD PTR __real@3fc90fd9
	jbe	SHORT $LN17@SetExterna
	mov	ecx, DWORD PTR _this$[ebp]
	movss	xmm0, DWORD PTR __real@bfc90fd9
	comiss	xmm0, DWORD PTR [ecx+32320]
	jbe	SHORT $LN17@SetExterna

; 378  : 		{
; 379  : 			dRoll = platRoll - (360.0f * DTR) - chaseCamRoll;

	movss	xmm0, DWORD PTR _platRoll$[ebp]
	subss	xmm0, DWORD PTR __real@40c90fd9
	mov	edx, DWORD PTR _this$[ebp]
	subss	xmm0, DWORD PTR [edx+32320]
	movss	DWORD PTR _dRoll$[ebp], xmm0

; 380  : 		}
; 381  : 		else // same sign

	jmp	SHORT $LN16@SetExterna
$LN17@SetExterna:

; 382  : 		{
; 383  : 			dRoll = platRoll - chaseCamRoll;

	mov	eax, DWORD PTR _this$[ebp]
	movss	xmm0, DWORD PTR _platRoll$[ebp]
	subss	xmm0, DWORD PTR [eax+32320]
	movss	DWORD PTR _dRoll$[ebp], xmm0
$LN16@SetExterna:

; 384  : 		}
; 385  : 
; 386  : 		// apply roll
; 387  : 		chaseCamRoll += dRoll * dT * KROLL;

	movss	xmm0, DWORD PTR _dRoll$[ebp]
	mulss	xmm0, DWORD PTR _dT$[ebp]
	mulss	xmm0, DWORD PTR __real@3f0ccccd
	mov	ecx, DWORD PTR _this$[ebp]
	addss	xmm0, DWORD PTR [ecx+32320]
	mov	edx, DWORD PTR _this$[ebp]
	movss	DWORD PTR [edx+32320], xmm0

; 388  : 
; 389  : 		// keep chase cam roll with +/- 180
; 390  : 		if ( chaseCamRoll > 180.0f * DTR )

	mov	eax, DWORD PTR _this$[ebp]
	movss	xmm0, DWORD PTR [eax+32320]
	comiss	xmm0, DWORD PTR __real@40490fd9
	jbe	SHORT $LN15@SetExterna

; 391  : 			chaseCamRoll -= 360.0f * DTR;

	mov	ecx, DWORD PTR _this$[ebp]
	movss	xmm0, DWORD PTR [ecx+32320]
	subss	xmm0, DWORD PTR __real@40c90fd9
	mov	edx, DWORD PTR _this$[ebp]
	movss	DWORD PTR [edx+32320], xmm0
	jmp	SHORT $LN13@SetExterna
$LN15@SetExterna:

; 392  : 		else if ( chaseCamRoll < -180.0f * DTR )

	mov	eax, DWORD PTR _this$[ebp]
	movss	xmm0, DWORD PTR __real@c0490fd9
	comiss	xmm0, DWORD PTR [eax+32320]
	jbe	SHORT $LN13@SetExterna

; 393  : 			chaseCamRoll += 360.0f * DTR;

	mov	ecx, DWORD PTR _this$[ebp]
	movss	xmm0, DWORD PTR [ecx+32320]
	addss	xmm0, DWORD PTR __real@40c90fd9
	mov	edx, DWORD PTR _this$[ebp]
	movss	DWORD PTR [edx+32320], xmm0
$LN13@SetExterna:

; 394  : 
; 395  : 		// now get yaw and pitch based on look at vector
; 396  : 		dist = (float)sqrt( dPos.x * dPos.x + dPos.y * dPos.y + dPos.z * dPos.z );

	movss	xmm0, DWORD PTR _dPos$[ebp]
	mulss	xmm0, DWORD PTR _dPos$[ebp]
	movss	xmm1, DWORD PTR _dPos$[ebp+4]
	mulss	xmm1, DWORD PTR _dPos$[ebp+4]
	addss	xmm0, xmm1
	movss	xmm1, DWORD PTR _dPos$[ebp+8]
	mulss	xmm1, DWORD PTR _dPos$[ebp+8]
	addss	xmm0, xmm1
	push	ecx
	movss	DWORD PTR [esp], xmm0
	call	?SqrtSSE@@YAMM@Z			; SqrtSSE
	add	esp, 4
	fstp	DWORD PTR _dist$[ebp]

; 397  : 		camPitch	= (float)-asin( dPos.z/dist );

	movss	xmm0, DWORD PTR _dPos$[ebp+8]
	divss	xmm0, DWORD PTR _dist$[ebp]
	push	ecx
	movss	DWORD PTR [esp], xmm0
	call	?asin@@YAMM@Z				; asin
	add	esp, 4
	fstp	DWORD PTR tv1617[ebp]
	movss	xmm0, DWORD PTR tv1617[ebp]
	xorps	xmm0, DWORD PTR __xmm@80000000800000008000000080000000
	movss	DWORD PTR _camPitch$[ebp], xmm0

; 398  : 		camYaw		= (float)atan2( dPos.y, dPos.x );

	cvtss2sd xmm0, DWORD PTR _dPos$[ebp]
	sub	esp, 8
	movsd	QWORD PTR [esp], xmm0
	cvtss2sd xmm0, DWORD PTR _dPos$[ebp+4]
	sub	esp, 8
	movsd	QWORD PTR [esp], xmm0
	call	?checked_atan2@@YANNN@Z			; checked_atan2
	add	esp, 16					; 00000010H
	fstp	DWORD PTR _camYaw$[ebp]

; 399  : 
; 400  : 		PositandOrientSetData ( newPos.x, newPos.y, newPos.z,
; 401  : 				camPitch, chaseCamRoll, camYaw,
; 402  : 				&cameraPos, &cameraRot);

	mov	eax, DWORD PTR _this$[ebp]
	add	eax, 33452				; 000082acH
	push	eax
	mov	ecx, DWORD PTR _this$[ebp]
	add	ecx, 33440				; 000082a0H
	push	ecx
	push	ecx
	movss	xmm0, DWORD PTR _camYaw$[ebp]
	movss	DWORD PTR [esp], xmm0
	mov	edx, DWORD PTR _this$[ebp]
	push	ecx
	movss	xmm0, DWORD PTR [edx+32320]
	movss	DWORD PTR [esp], xmm0
	push	ecx
	movss	xmm0, DWORD PTR _camPitch$[ebp]
	movss	DWORD PTR [esp], xmm0
	push	ecx
	movss	xmm0, DWORD PTR _newPos$[ebp+8]
	movss	DWORD PTR [esp], xmm0
	push	ecx
	movss	xmm0, DWORD PTR _newPos$[ebp+4]
	movss	DWORD PTR [esp], xmm0
	push	ecx
	movss	xmm0, DWORD PTR _newPos$[ebp]
	movss	DWORD PTR [esp], xmm0
	call	?PositandOrientSetData@@YAXMMMMMMPAUTpoint@@PAUTrotation@@@Z ; PositandOrientSetData
	add	esp, 32					; 00000020H

; 403  : 
; 404  : 
; 405  : 	}
; 406  : 
; 407  : 	// various cameras (with tracked object)
; 408  : 	else if (GetOTWDisplayMode() == ModeWeapon ||

	jmp	$LN2@SetExterna
$LN42@SetExterna:

; 409  : 			GetOTWDisplayMode() == ModeAirFriendly ||
; 410  : 			GetOTWDisplayMode() == ModeAirEnemy ||
; 411  : 			GetOTWDisplayMode() == ModeTarget ||
; 412  : 			GetOTWDisplayMode() == ModeTargetToSelf ||
; 413  : 			GetOTWDisplayMode() == ModeTargetToWeapon ||
; 414  : 			GetOTWDisplayMode() == ModeIncoming ||
; 415  : 			GetOTWDisplayMode() == ModeGroundEnemy ||
; 416  : 			GetOTWDisplayMode() == ModeGroundFriendly )

	mov	ecx, DWORD PTR _this$[ebp]
	call	?GetOTWDisplayMode@OTWDriverClass@@QAE?AW4OTWDisplayMode@1@XZ ; OTWDriverClass::GetOTWDisplayMode
	cmp	eax, 13					; 0000000dH
	je	SHORT $LN10@SetExterna
	mov	ecx, DWORD PTR _this$[ebp]
	call	?GetOTWDisplayMode@OTWDriverClass@@QAE?AW4OTWDisplayMode@1@XZ ; OTWDriverClass::GetOTWDisplayMode
	cmp	eax, 8
	je	SHORT $LN10@SetExterna
	mov	ecx, DWORD PTR _this$[ebp]
	call	?GetOTWDisplayMode@OTWDriverClass@@QAE?AW4OTWDisplayMode@1@XZ ; OTWDriverClass::GetOTWDisplayMode
	cmp	eax, 10					; 0000000aH
	je	SHORT $LN10@SetExterna
	mov	ecx, DWORD PTR _this$[ebp]
	call	?GetOTWDisplayMode@OTWDriverClass@@QAE?AW4OTWDisplayMode@1@XZ ; OTWDriverClass::GetOTWDisplayMode
	cmp	eax, 12					; 0000000cH
	je	SHORT $LN10@SetExterna
	mov	ecx, DWORD PTR _this$[ebp]
	call	?GetOTWDisplayMode@OTWDriverClass@@QAE?AW4OTWDisplayMode@1@XZ ; OTWDriverClass::GetOTWDisplayMode
	cmp	eax, 17					; 00000011H
	je	SHORT $LN10@SetExterna
	mov	ecx, DWORD PTR _this$[ebp]
	call	?GetOTWDisplayMode@OTWDriverClass@@QAE?AW4OTWDisplayMode@1@XZ ; OTWDriverClass::GetOTWDisplayMode
	cmp	eax, 18					; 00000012H
	je	SHORT $LN10@SetExterna
	mov	ecx, DWORD PTR _this$[ebp]
	call	?GetOTWDisplayMode@OTWDriverClass@@QAE?AW4OTWDisplayMode@1@XZ ; OTWDriverClass::GetOTWDisplayMode
	cmp	eax, 15					; 0000000fH
	je	SHORT $LN10@SetExterna
	mov	ecx, DWORD PTR _this$[ebp]
	call	?GetOTWDisplayMode@OTWDriverClass@@QAE?AW4OTWDisplayMode@1@XZ ; OTWDriverClass::GetOTWDisplayMode
	cmp	eax, 11					; 0000000bH
	je	SHORT $LN10@SetExterna
	mov	ecx, DWORD PTR _this$[ebp]
	call	?GetOTWDisplayMode@OTWDriverClass@@QAE?AW4OTWDisplayMode@1@XZ ; OTWDriverClass::GetOTWDisplayMode
	cmp	eax, 9
	jne	$LN11@SetExterna
$LN10@SetExterna:

; 417  : 	{
; 418  : 		// get look-at vector to tracked object
; 419  : 		dPos.x = otwTrackPlatform->XPos() - otwPlatform->XPos();

	mov	ecx, DWORD PTR _this$[ebp]
	add	ecx, 32332				; 00007e4cH
	call	??C?$VuBin@VSimBaseClass@@@@QBEPAVSimBaseClass@@XZ ; VuBin<SimBaseClass>::operator->
	mov	ecx, eax
	call	?XPos@VuEntity@@QBEMXZ			; VuEntity::XPos
	fstp	DWORD PTR tv1652[ebp]
	movss	xmm0, DWORD PTR tv1652[ebp]
	mov	ecx, DWORD PTR _this$[ebp]
	add	ecx, 32336				; 00007e50H
	movss	DWORD PTR tv1814[ebp], xmm0
	call	??C?$VuBin@VSimBaseClass@@@@QBEPAVSimBaseClass@@XZ ; VuBin<SimBaseClass>::operator->
	mov	ecx, eax
	call	?XPos@VuEntity@@QBEMXZ			; VuEntity::XPos
	fstp	DWORD PTR tv1658[ebp]
	movss	xmm0, DWORD PTR tv1814[ebp]
	subss	xmm0, DWORD PTR tv1658[ebp]
	movss	DWORD PTR _dPos$[ebp], xmm0

; 420  : 		dPos.y = otwTrackPlatform->YPos() - otwPlatform->YPos();

	mov	ecx, DWORD PTR _this$[ebp]
	add	ecx, 32332				; 00007e4cH
	call	??C?$VuBin@VSimBaseClass@@@@QBEPAVSimBaseClass@@XZ ; VuBin<SimBaseClass>::operator->
	mov	ecx, eax
	call	?YPos@VuEntity@@QBEMXZ			; VuEntity::YPos
	fstp	DWORD PTR tv1664[ebp]
	movss	xmm0, DWORD PTR tv1664[ebp]
	mov	ecx, DWORD PTR _this$[ebp]
	add	ecx, 32336				; 00007e50H
	movss	DWORD PTR tv1816[ebp], xmm0
	call	??C?$VuBin@VSimBaseClass@@@@QBEPAVSimBaseClass@@XZ ; VuBin<SimBaseClass>::operator->
	mov	ecx, eax
	call	?YPos@VuEntity@@QBEMXZ			; VuEntity::YPos
	fstp	DWORD PTR tv1670[ebp]
	movss	xmm0, DWORD PTR tv1816[ebp]
	subss	xmm0, DWORD PTR tv1670[ebp]
	movss	DWORD PTR _dPos$[ebp+4], xmm0

; 421  : 		dPos.z = otwTrackPlatform->ZPos() - otwPlatform->ZPos();

	mov	ecx, DWORD PTR _this$[ebp]
	add	ecx, 32332				; 00007e4cH
	call	??C?$VuBin@VSimBaseClass@@@@QBEPAVSimBaseClass@@XZ ; VuBin<SimBaseClass>::operator->
	mov	ecx, eax
	call	?ZPos@VuEntity@@QBEMXZ			; VuEntity::ZPos
	fstp	DWORD PTR tv1676[ebp]
	movss	xmm0, DWORD PTR tv1676[ebp]
	mov	ecx, DWORD PTR _this$[ebp]
	add	ecx, 32336				; 00007e50H
	movss	DWORD PTR tv1818[ebp], xmm0
	call	??C?$VuBin@VSimBaseClass@@@@QBEPAVSimBaseClass@@XZ ; VuBin<SimBaseClass>::operator->
	mov	ecx, eax
	call	?ZPos@VuEntity@@QBEMXZ			; VuEntity::ZPos
	fstp	DWORD PTR tv1682[ebp]
	movss	xmm0, DWORD PTR tv1818[ebp]
	subss	xmm0, DWORD PTR tv1682[ebp]
	movss	DWORD PTR _dPos$[ebp+8], xmm0

; 422  : 
; 423  : 		dist = (float)sqrt( dPos.x * dPos.x + dPos.y * dPos.y + dPos.z * dPos.z );

	movss	xmm0, DWORD PTR _dPos$[ebp]
	mulss	xmm0, DWORD PTR _dPos$[ebp]
	movss	xmm1, DWORD PTR _dPos$[ebp+4]
	mulss	xmm1, DWORD PTR _dPos$[ebp+4]
	addss	xmm0, xmm1
	movss	xmm1, DWORD PTR _dPos$[ebp+8]
	mulss	xmm1, DWORD PTR _dPos$[ebp+8]
	addss	xmm0, xmm1
	push	ecx
	movss	DWORD PTR [esp], xmm0
	call	?SqrtSSE@@YAMM@Z			; SqrtSSE
	add	esp, 4
	fstp	DWORD PTR _dist$[ebp]

; 424  : 
; 425  : 		if(dist == 0.0F)

	movss	xmm0, DWORD PTR _dist$[ebp]
	ucomiss	xmm0, DWORD PTR __real@00000000
	lahf
	test	ah, 68					; 00000044H
	jp	SHORT $LN9@SetExterna

; 426  : 			dist = 1.0F;

	movss	xmm0, DWORD PTR __real@3f800000
	movss	DWORD PTR _dist$[ebp], xmm0
$LN9@SetExterna:

; 427  : 
; 428  : 		// place new position along the line of the look-at vector
; 429  : 		// with an upward adjustment
; 430  : 		if (GetOTWDisplayMode() == ModeWeapon )

	mov	ecx, DWORD PTR _this$[ebp]
	call	?GetOTWDisplayMode@OTWDriverClass@@QAE?AW4OTWDisplayMode@1@XZ ; OTWDriverClass::GetOTWDisplayMode
	cmp	eax, 13					; 0000000dH
	jne	SHORT $LN8@SetExterna

; 431  : 		{
; 432  : 			newPos.x = (dPos.x/dist) * chaseRange * 0.5f;

	movss	xmm0, DWORD PTR _dPos$[ebp]
	divss	xmm0, DWORD PTR _dist$[ebp]
	mov	eax, DWORD PTR _this$[ebp]
	mulss	xmm0, DWORD PTR [eax+32292]
	mulss	xmm0, DWORD PTR __real@3f000000
	movss	DWORD PTR _newPos$[ebp], xmm0

; 433  : 			newPos.y = (dPos.y/dist) * chaseRange * 0.5f;

	movss	xmm0, DWORD PTR _dPos$[ebp+4]
	divss	xmm0, DWORD PTR _dist$[ebp]
	mov	ecx, DWORD PTR _this$[ebp]
	mulss	xmm0, DWORD PTR [ecx+32292]
	mulss	xmm0, DWORD PTR __real@3f000000
	movss	DWORD PTR _newPos$[ebp+4], xmm0

; 434  : 			newPos.z = (dPos.z/dist) * chaseRange * 0.5f - 5.0f;

	movss	xmm0, DWORD PTR _dPos$[ebp+8]
	divss	xmm0, DWORD PTR _dist$[ebp]
	mov	edx, DWORD PTR _this$[ebp]
	mulss	xmm0, DWORD PTR [edx+32292]
	mulss	xmm0, DWORD PTR __real@3f000000
	subss	xmm0, DWORD PTR __real@40a00000
	movss	DWORD PTR _newPos$[ebp+8], xmm0

; 435  : 		}
; 436  : 		else

	jmp	$LN5@SetExterna
$LN8@SetExterna:

; 437  : 		{
; 438  : 			if ( otwPlatform->IsGroundVehicle() )

	mov	ecx, DWORD PTR _this$[ebp]
	add	ecx, 32336				; 00007e50H
	call	??C?$VuBin@VSimBaseClass@@@@QBEPAVSimBaseClass@@XZ ; VuBin<SimBaseClass>::operator->
	mov	DWORD PTR tv895[ebp], eax
	mov	eax, DWORD PTR tv895[ebp]
	mov	edx, DWORD PTR [eax]
	mov	ecx, DWORD PTR tv895[ebp]
	mov	eax, DWORD PTR [edx+196]
	call	eax
	test	eax, eax
	je	$LN6@SetExterna

; 439  : 			{
; 440  : 				newPos.x = (dPos.x/dist) * chaseRange * 0.5f;

	movss	xmm0, DWORD PTR _dPos$[ebp]
	divss	xmm0, DWORD PTR _dist$[ebp]
	mov	ecx, DWORD PTR _this$[ebp]
	mulss	xmm0, DWORD PTR [ecx+32292]
	mulss	xmm0, DWORD PTR __real@3f000000
	movss	DWORD PTR _newPos$[ebp], xmm0

; 441  : 				newPos.y = (dPos.y/dist) * chaseRange * 0.5f;

	movss	xmm0, DWORD PTR _dPos$[ebp+4]
	divss	xmm0, DWORD PTR _dist$[ebp]
	mov	edx, DWORD PTR _this$[ebp]
	mulss	xmm0, DWORD PTR [edx+32292]
	mulss	xmm0, DWORD PTR __real@3f000000
	movss	DWORD PTR _newPos$[ebp+4], xmm0

; 442  : 				newPos.z = GetGroundLevel( otwPlatform->XPos() + newPos.x ,
; 443  : 						otwPlatform->YPos() + newPos.y );

	push	0
	mov	ecx, DWORD PTR _this$[ebp]
	add	ecx, 32336				; 00007e50H
	call	??C?$VuBin@VSimBaseClass@@@@QBEPAVSimBaseClass@@XZ ; VuBin<SimBaseClass>::operator->
	mov	ecx, eax
	call	?YPos@VuEntity@@QBEMXZ			; VuEntity::YPos
	fstp	DWORD PTR tv1714[ebp]
	movss	xmm0, DWORD PTR tv1714[ebp]
	addss	xmm0, DWORD PTR _newPos$[ebp+4]
	push	ecx
	movss	DWORD PTR [esp], xmm0
	mov	ecx, DWORD PTR _this$[ebp]
	add	ecx, 32336				; 00007e50H
	call	??C?$VuBin@VSimBaseClass@@@@QBEPAVSimBaseClass@@XZ ; VuBin<SimBaseClass>::operator->
	mov	ecx, eax
	call	?XPos@VuEntity@@QBEMXZ			; VuEntity::XPos
	fstp	DWORD PTR tv1720[ebp]
	movss	xmm0, DWORD PTR tv1720[ebp]
	addss	xmm0, DWORD PTR _newPos$[ebp]
	push	ecx
	movss	DWORD PTR [esp], xmm0
	mov	ecx, DWORD PTR _this$[ebp]
	call	?GetGroundLevel@OTWDriverClass@@QAEMMMPAUTpoint@@@Z ; OTWDriverClass::GetGroundLevel
	fstp	DWORD PTR _newPos$[ebp+8]

; 444  : 				newPos.z -= ( otwPlatform->ZPos() + 5.0f );

	mov	ecx, DWORD PTR _this$[ebp]
	add	ecx, 32336				; 00007e50H
	call	??C?$VuBin@VSimBaseClass@@@@QBEPAVSimBaseClass@@XZ ; VuBin<SimBaseClass>::operator->
	mov	ecx, eax
	call	?ZPos@VuEntity@@QBEMXZ			; VuEntity::ZPos
	fstp	DWORD PTR tv1730[ebp]
	movss	xmm0, DWORD PTR tv1730[ebp]
	addss	xmm0, DWORD PTR __real@40a00000
	movss	xmm1, DWORD PTR _newPos$[ebp+8]
	subss	xmm1, xmm0
	movss	DWORD PTR _newPos$[ebp+8], xmm1

; 445  : 			}
; 446  : 			else

	jmp	SHORT $LN5@SetExterna
$LN6@SetExterna:

; 447  : 			{
; 448  : 				newPos.x = (dPos.x/dist) * chaseRange;

	movss	xmm0, DWORD PTR _dPos$[ebp]
	divss	xmm0, DWORD PTR _dist$[ebp]
	mov	eax, DWORD PTR _this$[ebp]
	mulss	xmm0, DWORD PTR [eax+32292]
	movss	DWORD PTR _newPos$[ebp], xmm0

; 449  : 				newPos.y = (dPos.y/dist) * chaseRange;

	movss	xmm0, DWORD PTR _dPos$[ebp+4]
	divss	xmm0, DWORD PTR _dist$[ebp]
	mov	ecx, DWORD PTR _this$[ebp]
	mulss	xmm0, DWORD PTR [ecx+32292]
	movss	DWORD PTR _newPos$[ebp+4], xmm0

; 450  : 				newPos.z = (dPos.z/dist) * chaseRange - 25.0f;

	movss	xmm0, DWORD PTR _dPos$[ebp+8]
	divss	xmm0, DWORD PTR _dist$[ebp]
	mov	edx, DWORD PTR _this$[ebp]
	mulss	xmm0, DWORD PTR [edx+32292]
	subss	xmm0, DWORD PTR __real@41c80000
	movss	DWORD PTR _newPos$[ebp+8], xmm0
$LN5@SetExterna:

; 451  : 			}
; 452  : 		}
; 453  : 
; 454  : 		// now we need to get the new look-at vector
; 455  : 		dPos.x = otwTrackPlatform->XPos() - (otwPlatform->XPos() + newPos.x);

	mov	ecx, DWORD PTR _this$[ebp]
	add	ecx, 32332				; 00007e4cH
	call	??C?$VuBin@VSimBaseClass@@@@QBEPAVSimBaseClass@@XZ ; VuBin<SimBaseClass>::operator->
	mov	ecx, eax
	call	?XPos@VuEntity@@QBEMXZ			; VuEntity::XPos
	fstp	DWORD PTR tv1743[ebp]
	movss	xmm0, DWORD PTR tv1743[ebp]
	mov	ecx, DWORD PTR _this$[ebp]
	add	ecx, 32336				; 00007e50H
	movss	DWORD PTR tv1820[ebp], xmm0
	call	??C?$VuBin@VSimBaseClass@@@@QBEPAVSimBaseClass@@XZ ; VuBin<SimBaseClass>::operator->
	mov	ecx, eax
	call	?XPos@VuEntity@@QBEMXZ			; VuEntity::XPos
	fstp	DWORD PTR tv1749[ebp]
	movss	xmm0, DWORD PTR tv1749[ebp]
	addss	xmm0, DWORD PTR _newPos$[ebp]
	movss	xmm1, DWORD PTR tv1820[ebp]
	subss	xmm1, xmm0
	movss	DWORD PTR _dPos$[ebp], xmm1

; 456  : 		dPos.y = otwTrackPlatform->YPos() - (otwPlatform->YPos() + newPos.y);

	mov	ecx, DWORD PTR _this$[ebp]
	add	ecx, 32332				; 00007e4cH
	call	??C?$VuBin@VSimBaseClass@@@@QBEPAVSimBaseClass@@XZ ; VuBin<SimBaseClass>::operator->
	mov	ecx, eax
	call	?YPos@VuEntity@@QBEMXZ			; VuEntity::YPos
	fstp	DWORD PTR tv1755[ebp]
	movss	xmm0, DWORD PTR tv1755[ebp]
	mov	ecx, DWORD PTR _this$[ebp]
	add	ecx, 32336				; 00007e50H
	movss	DWORD PTR tv1822[ebp], xmm0
	call	??C?$VuBin@VSimBaseClass@@@@QBEPAVSimBaseClass@@XZ ; VuBin<SimBaseClass>::operator->
	mov	ecx, eax
	call	?YPos@VuEntity@@QBEMXZ			; VuEntity::YPos
	fstp	DWORD PTR tv1761[ebp]
	movss	xmm0, DWORD PTR tv1761[ebp]
	addss	xmm0, DWORD PTR _newPos$[ebp+4]
	movss	xmm1, DWORD PTR tv1822[ebp]
	subss	xmm1, xmm0
	movss	DWORD PTR _dPos$[ebp+4], xmm1

; 457  : 		dPos.z = otwTrackPlatform->ZPos() - (otwPlatform->ZPos() + newPos.z);

	mov	ecx, DWORD PTR _this$[ebp]
	add	ecx, 32332				; 00007e4cH
	call	??C?$VuBin@VSimBaseClass@@@@QBEPAVSimBaseClass@@XZ ; VuBin<SimBaseClass>::operator->
	mov	ecx, eax
	call	?ZPos@VuEntity@@QBEMXZ			; VuEntity::ZPos
	fstp	DWORD PTR tv1767[ebp]
	movss	xmm0, DWORD PTR tv1767[ebp]
	mov	ecx, DWORD PTR _this$[ebp]
	add	ecx, 32336				; 00007e50H
	movss	DWORD PTR tv1856[ebp], xmm0
	call	??C?$VuBin@VSimBaseClass@@@@QBEPAVSimBaseClass@@XZ ; VuBin<SimBaseClass>::operator->
	mov	ecx, eax
	call	?ZPos@VuEntity@@QBEMXZ			; VuEntity::ZPos
	fstp	DWORD PTR tv1773[ebp]
	movss	xmm0, DWORD PTR tv1773[ebp]
	addss	xmm0, DWORD PTR _newPos$[ebp+8]
	movss	xmm1, DWORD PTR tv1856[ebp]
	subss	xmm1, xmm0
	movss	DWORD PTR _dPos$[ebp+8], xmm1

; 458  : 
; 459  : 		// now get yaw and pitch based on look at vector
; 460  : 		dist = (float)sqrt( dPos.x * dPos.x + dPos.y * dPos.y + dPos.z * dPos.z );

	movss	xmm0, DWORD PTR _dPos$[ebp]
	mulss	xmm0, DWORD PTR _dPos$[ebp]
	movss	xmm1, DWORD PTR _dPos$[ebp+4]
	mulss	xmm1, DWORD PTR _dPos$[ebp+4]
	addss	xmm0, xmm1
	movss	xmm1, DWORD PTR _dPos$[ebp+8]
	mulss	xmm1, DWORD PTR _dPos$[ebp+8]
	addss	xmm0, xmm1
	push	ecx
	movss	DWORD PTR [esp], xmm0
	call	?SqrtSSE@@YAMM@Z			; SqrtSSE
	add	esp, 4
	fstp	DWORD PTR _dist$[ebp]

; 461  : 		if(dist == 0.0F)

	movss	xmm0, DWORD PTR _dist$[ebp]
	ucomiss	xmm0, DWORD PTR __real@00000000
	lahf
	test	ah, 68					; 00000044H
	jp	SHORT $LN4@SetExterna

; 462  : 			dist = 1.0F;

	movss	xmm0, DWORD PTR __real@3f800000
	movss	DWORD PTR _dist$[ebp], xmm0
$LN4@SetExterna:

; 463  : 		camPitch	= (float)-asin( dPos.z/dist );

	movss	xmm0, DWORD PTR _dPos$[ebp+8]
	divss	xmm0, DWORD PTR _dist$[ebp]
	push	ecx
	movss	DWORD PTR [esp], xmm0
	call	?asin@@YAMM@Z				; asin
	add	esp, 4
	fstp	DWORD PTR tv1789[ebp]
	movss	xmm0, DWORD PTR tv1789[ebp]
	xorps	xmm0, DWORD PTR __xmm@80000000800000008000000080000000
	movss	DWORD PTR _camPitch$[ebp], xmm0

; 464  : 		camYaw		= (float)atan2( dPos.y, dPos.x );

	cvtss2sd xmm0, DWORD PTR _dPos$[ebp]
	sub	esp, 8
	movsd	QWORD PTR [esp], xmm0
	cvtss2sd xmm0, DWORD PTR _dPos$[ebp+4]
	sub	esp, 8
	movsd	QWORD PTR [esp], xmm0
	call	?checked_atan2@@YANNN@Z			; checked_atan2
	add	esp, 16					; 00000010H
	fstp	DWORD PTR _camYaw$[ebp]

; 465  : 
; 466  : 		// set camera position and matrix
; 467  : 		PositandOrientSetData ( newPos.x, newPos.y, newPos.z,
; 468  : 				camPitch, 0.0f, camYaw,
; 469  : 				&cameraPos, &cameraRot);

	mov	eax, DWORD PTR _this$[ebp]
	add	eax, 33452				; 000082acH
	push	eax
	mov	ecx, DWORD PTR _this$[ebp]
	add	ecx, 33440				; 000082a0H
	push	ecx
	push	ecx
	movss	xmm0, DWORD PTR _camYaw$[ebp]
	movss	DWORD PTR [esp], xmm0
	push	ecx
	movss	xmm0, DWORD PTR __real@00000000
	movss	DWORD PTR [esp], xmm0
	push	ecx
	movss	xmm0, DWORD PTR _camPitch$[ebp]
	movss	DWORD PTR [esp], xmm0
	push	ecx
	movss	xmm0, DWORD PTR _newPos$[ebp+8]
	movss	DWORD PTR [esp], xmm0
	push	ecx
	movss	xmm0, DWORD PTR _newPos$[ebp+4]
	movss	DWORD PTR [esp], xmm0
	push	ecx
	movss	xmm0, DWORD PTR _newPos$[ebp]
	movss	DWORD PTR [esp], xmm0
	call	?PositandOrientSetData@@YAXMMMMMMPAUTpoint@@PAUTrotation@@@Z ; PositandOrientSetData
	add	esp, 32					; 00000020H
	jmp	SHORT $LN2@SetExterna
$LN11@SetExterna:

; 470  : 	}
; 471  : 	else if(GetOTWDisplayMode() == ModeFlyby)

	mov	ecx, DWORD PTR _this$[ebp]
	call	?GetOTWDisplayMode@OTWDriverClass@@QAE?AW4OTWDisplayMode@1@XZ ; OTWDriverClass::GetOTWDisplayMode
	cmp	eax, 16					; 00000010H
	jne	SHORT $LN2@SetExterna

; 472  : 	{
; 473  : 		SetFlybyCameraPosition(dT);

	push	ecx
	movss	xmm0, DWORD PTR _dT$[ebp]
	movss	DWORD PTR [esp], xmm0
	mov	ecx, DWORD PTR _this$[ebp]
	call	?SetFlybyCameraPosition@OTWDriverClass@@AAEXM@Z ; OTWDriverClass::SetFlybyCameraPosition
$LN2@SetExterna:
$LN60@SetExterna:

; 474  : 	}
; 475  : 	else
; 476  : 	{
; 477  : 		// (If we never hit this assert, then the "else if" above could/should
; 478  : 		// become a simple "else".
; 479  : 		// ShiAssert( !"Illegal view mode.  Shouldn't get here.  SCR." );
; 480  : 	}
; 481  : }

	mov	ecx, DWORD PTR __$ArrayPad$[ebp]
	xor	ecx, ebp
	call	@__security_check_cookie@4
	mov	esp, ebp
	pop	ebp
	ret	4
?SetExternalCameraPosition@OTWDriverClass@@AAEXM@Z ENDP	; OTWDriverClass::SetExternalCameraPosition
_TEXT	ENDS
; Function compile flags: /Odtp
; File c:\users\zhitao li\documents\visual studio 2012\projects\freefalcon\sim\otwdrive\external.cpp
_TEXT	SEGMENT
tv274 = -68						; size = 4
tv281 = -64						; size = 4
_objClosure$ = -60					; size = 4
_camClosure$ = -56					; size = 4
_closure$ = -52						; size = 4
_dist$ = -48						; size = 4
_this$ = -44						; size = 4
_camPos$ = -40						; size = 12
_camVec$ = -28						; size = 12
_dPos$ = -16						; size = 12
__$ArrayPad$ = -4					; size = 4
_x$ = 8							; size = 4
_y$ = 12						; size = 4
_z$ = 16						; size = 4
_dx$ = 20						; size = 4
_dy$ = 24						; size = 4
_dz$ = 28						; size = 4
?GetDoppler@OTWDriverClass@@QAEMMMMMMM@Z PROC		; OTWDriverClass::GetDoppler
; _this$ = ecx

; 22   : { // MLR 12/1/2003 - Doppler effects are computed in the FalcSnd project

	push	ebp
	mov	ebp, esp
	sub	esp, 68					; 00000044H
	mov	eax, DWORD PTR ___security_cookie
	xor	eax, ebp
	mov	DWORD PTR __$ArrayPad$[ebp], eax
	mov	DWORD PTR _this$[ebp], ecx

; 23   : 	Tpoint camPos;	// Camera position
; 24   : 	Tpoint camVec;	// Camera (listener) motion vector
; 25   : 	Tpoint dPos;	// Vector from camera to object
; 26   : 	float dist;
; 27   : 	float camClosure, objClosure;
; 28   : 	float closure;
; 29   : 	static const float APPROX_MACH	= 1000.0f;				// Ft/sec.  Use a constant mach approximation
; 30   : 	static const float SPEED_CLAMP	= 0.6f * APPROX_MACH;	// Ft/sec.  Limit the amount of doppler shift applied

	mov	eax, DWORD PTR ?$S1@?1??GetDoppler@OTWDriverClass@@QAEMMMMMMM@Z@4IA
	and	eax, 1
	jne	SHORT $LN8@GetDoppler
	mov	ecx, DWORD PTR ?$S1@?1??GetDoppler@OTWDriverClass@@QAEMMMMMMM@Z@4IA
	or	ecx, 1
	mov	DWORD PTR ?$S1@?1??GetDoppler@OTWDriverClass@@QAEMMMMMMM@Z@4IA, ecx
	movss	xmm0, DWORD PTR __real@3f19999a
	mulss	xmm0, DWORD PTR ?APPROX_MACH@?1??GetDoppler@OTWDriverClass@@QAEMMMMMMM@Z@4MB
	movss	DWORD PTR ?SPEED_CLAMP@?1??GetDoppler@OTWDriverClass@@QAEMMMMMMM@Z@4MB, xmm0
$LN8@GetDoppler:

; 31   : 
; 32   : 
; 33   : 	// This all works fine, but doesn't provide any perceivable benfit right now
; 34   : 	// -- Mostly because "FlyBy" mode doesn't stay in FlyBy mode long enough and
; 35   : 	// in nearly all other views, the sound falls off with distance too fast to
; 36   : 	// hear it anyway.  If any of this changes, we can let this code run.  For
; 37   : 	// now lets not waste cycles.  SCR 12/16/98
; 38   : #if 1
; 39   : 	return 1.0f;

	fld1
	jmp	$LN9@GetDoppler

; 40   : #endif
; 41   : 
; 42   : 
; 43   : 	// Construct the listener's location
; 44   : 	camPos.x = cameraPos.x + focusPoint.x;

	mov	edx, DWORD PTR _this$[ebp]
	mov	eax, DWORD PTR _this$[ebp]
	movss	xmm0, DWORD PTR [edx+33440]
	addss	xmm0, DWORD PTR [eax+33428]
	movss	DWORD PTR _camPos$[ebp], xmm0

; 45   : 	camPos.y = cameraPos.y + focusPoint.y;

	mov	ecx, DWORD PTR _this$[ebp]
	mov	edx, DWORD PTR _this$[ebp]
	movss	xmm0, DWORD PTR [ecx+33444]
	addss	xmm0, DWORD PTR [edx+33432]
	movss	DWORD PTR _camPos$[ebp+4], xmm0

; 46   : 	camPos.z = cameraPos.z + focusPoint.z;

	mov	eax, DWORD PTR _this$[ebp]
	mov	ecx, DWORD PTR _this$[ebp]
	movss	xmm0, DWORD PTR [eax+33448]
	addss	xmm0, DWORD PTR [ecx+33436]
	movss	DWORD PTR _camPos$[ebp+8], xmm0

; 47   : 
; 48   : 	// Construct the vector from the listener to the emitter
; 49   : 	dPos.x = x - camPos.x;

	movss	xmm0, DWORD PTR _x$[ebp]
	subss	xmm0, DWORD PTR _camPos$[ebp]
	movss	DWORD PTR _dPos$[ebp], xmm0

; 50   : 	dPos.y = y - camPos.y;

	movss	xmm0, DWORD PTR _y$[ebp]
	subss	xmm0, DWORD PTR _camPos$[ebp+4]
	movss	DWORD PTR _dPos$[ebp+4], xmm0

; 51   : 	dPos.z = z - camPos.z;

	movss	xmm0, DWORD PTR _z$[ebp]
	subss	xmm0, DWORD PTR _camPos$[ebp+8]
	movss	DWORD PTR _dPos$[ebp+8], xmm0

; 52   : 
; 53   : 	// Normalize the vector toward the emitter (making sure not to take the square root of zero)
; 54   : 	dist = dPos.x * dPos.x + dPos.y * dPos.y + dPos.z * dPos.z;

	movss	xmm0, DWORD PTR _dPos$[ebp]
	mulss	xmm0, DWORD PTR _dPos$[ebp]
	movss	xmm1, DWORD PTR _dPos$[ebp+4]
	mulss	xmm1, DWORD PTR _dPos$[ebp+4]
	addss	xmm0, xmm1
	movss	xmm1, DWORD PTR _dPos$[ebp+8]
	mulss	xmm1, DWORD PTR _dPos$[ebp+8]
	addss	xmm0, xmm1
	movss	DWORD PTR _dist$[ebp], xmm0

; 55   : 	if ( dist < 1.0f )

	movss	xmm0, DWORD PTR __real@3f800000
	comiss	xmm0, DWORD PTR _dist$[ebp]
	jbe	SHORT $LN7@GetDoppler

; 56   : 		return 1.0f;

	fld1
	jmp	$LN9@GetDoppler
$LN7@GetDoppler:

; 57   : 	dist = (float)sqrt( dist );

	push	ecx
	movss	xmm0, DWORD PTR _dist$[ebp]
	movss	DWORD PTR [esp], xmm0
	call	?SqrtSSE@@YAMM@Z			; SqrtSSE
	add	esp, 4
	fstp	DWORD PTR _dist$[ebp]

; 58   : 
; 59   : 	dPos.x /= dist;

	movss	xmm0, DWORD PTR _dPos$[ebp]
	divss	xmm0, DWORD PTR _dist$[ebp]
	movss	DWORD PTR _dPos$[ebp], xmm0

; 60   : 	dPos.y /= dist;

	movss	xmm0, DWORD PTR _dPos$[ebp+4]
	divss	xmm0, DWORD PTR _dist$[ebp]
	movss	DWORD PTR _dPos$[ebp+4], xmm0

; 61   : 	dPos.z /= dist;

	movss	xmm0, DWORD PTR _dPos$[ebp+8]
	divss	xmm0, DWORD PTR _dist$[ebp]
	movss	DWORD PTR _dPos$[ebp+8], xmm0

; 62   : 
; 63   : 	// Decide on the camera's motion vector
; 64   : 	if (otwPlatform.get() == NULL || GetOTWDisplayMode() == ModeFlyby )

	mov	ecx, DWORD PTR _this$[ebp]
	add	ecx, 32336				; 00007e50H
	call	?get@?$VuBin@VSimBaseClass@@@@QBEPAVSimBaseClass@@XZ ; VuBin<SimBaseClass>::get
	test	eax, eax
	je	SHORT $LN5@GetDoppler
	mov	ecx, DWORD PTR _this$[ebp]
	call	?GetOTWDisplayMode@OTWDriverClass@@QAE?AW4OTWDisplayMode@1@XZ ; OTWDriverClass::GetOTWDisplayMode
	cmp	eax, 16					; 00000010H
	jne	SHORT $LN6@GetDoppler
$LN5@GetDoppler:

; 65   : 	{
; 66   : 		camVec.x = 0.0f;

	movss	xmm0, DWORD PTR __real@00000000
	movss	DWORD PTR _camVec$[ebp], xmm0

; 67   : 		camVec.y = 0.0f;

	movss	xmm0, DWORD PTR __real@00000000
	movss	DWORD PTR _camVec$[ebp+4], xmm0

; 68   : 		camVec.z = 0.0f;

	movss	xmm0, DWORD PTR __real@00000000
	movss	DWORD PTR _camVec$[ebp+8], xmm0

; 69   : 		camClosure = 0.0f;

	movss	xmm0, DWORD PTR __real@00000000
	movss	DWORD PTR _camClosure$[ebp], xmm0

; 70   : 	}
; 71   : 	else

	jmp	SHORT $LN4@GetDoppler
$LN6@GetDoppler:

; 72   : 	{
; 73   : 		camVec.x = otwPlatform->XDelta();

	mov	ecx, DWORD PTR _this$[ebp]
	add	ecx, 32336				; 00007e50H
	call	??C?$VuBin@VSimBaseClass@@@@QBEPAVSimBaseClass@@XZ ; VuBin<SimBaseClass>::operator->
	mov	ecx, eax
	call	?XDelta@VuEntity@@QBEMXZ		; VuEntity::XDelta
	fstp	DWORD PTR _camVec$[ebp]

; 74   : 		camVec.y = otwPlatform->YDelta();

	mov	ecx, DWORD PTR _this$[ebp]
	add	ecx, 32336				; 00007e50H
	call	??C?$VuBin@VSimBaseClass@@@@QBEPAVSimBaseClass@@XZ ; VuBin<SimBaseClass>::operator->
	mov	ecx, eax
	call	?YDelta@VuEntity@@QBEMXZ		; VuEntity::YDelta
	fstp	DWORD PTR _camVec$[ebp+4]

; 75   : 		camVec.z = otwPlatform->ZDelta();

	mov	ecx, DWORD PTR _this$[ebp]
	add	ecx, 32336				; 00007e50H
	call	??C?$VuBin@VSimBaseClass@@@@QBEPAVSimBaseClass@@XZ ; VuBin<SimBaseClass>::operator->
	mov	ecx, eax
	call	?ZDelta@VuEntity@@QBEMXZ		; VuEntity::ZDelta
	fstp	DWORD PTR _camVec$[ebp+8]

; 76   : 
; 77   : 		// Camera motion vector dotted with vector toward object
; 78   : 		camClosure = camVec.x * dPos.x + camVec.y * dPos.y + camVec.z * dPos.z;

	movss	xmm0, DWORD PTR _camVec$[ebp]
	mulss	xmm0, DWORD PTR _dPos$[ebp]
	movss	xmm1, DWORD PTR _camVec$[ebp+4]
	mulss	xmm1, DWORD PTR _dPos$[ebp+4]
	addss	xmm0, xmm1
	movss	xmm1, DWORD PTR _camVec$[ebp+8]
	mulss	xmm1, DWORD PTR _dPos$[ebp+8]
	addss	xmm0, xmm1
	movss	DWORD PTR _camClosure$[ebp], xmm0
$LN4@GetDoppler:

; 79   : 	}
; 80   : 
; 81   : 	// Object motion vector dotted with vector toward listener
; 82   : 	objClosure = -dx * dPos.x - dy * dPos.y - dz * dPos.z;

	movss	xmm0, DWORD PTR _dx$[ebp]
	xorps	xmm0, DWORD PTR __xmm@80000000800000008000000080000000
	mulss	xmm0, DWORD PTR _dPos$[ebp]
	movss	xmm1, DWORD PTR _dy$[ebp]
	mulss	xmm1, DWORD PTR _dPos$[ebp+4]
	subss	xmm0, xmm1
	movss	xmm1, DWORD PTR _dz$[ebp]
	mulss	xmm1, DWORD PTR _dPos$[ebp+8]
	subss	xmm0, xmm1
	movss	DWORD PTR _objClosure$[ebp], xmm0

; 83   : 
; 84   : 	// Sum the two closure terms
; 85   : 	closure = camClosure + objClosure;

	movss	xmm0, DWORD PTR _camClosure$[ebp]
	addss	xmm0, DWORD PTR _objClosure$[ebp]
	movss	DWORD PTR _closure$[ebp], xmm0

; 86   : 
; 87   : 	// Clamp the closure value at roughly 1/2 Mach
; 88   : 	if ( fabs(closure) > SPEED_CLAMP ) {

	push	ecx
	movss	xmm0, DWORD PTR _closure$[ebp]
	movss	DWORD PTR [esp], xmm0
	call	?fabs@@YAMM@Z				; fabs
	add	esp, 4
	fstp	DWORD PTR tv274[ebp]
	movss	xmm0, DWORD PTR tv274[ebp]
	comiss	xmm0, DWORD PTR ?SPEED_CLAMP@?1??GetDoppler@OTWDriverClass@@QAEMMMMMMM@Z@4MB
	jbe	SHORT $LN1@GetDoppler

; 89   : 		if ( closure > 0.0f ) {

	movss	xmm0, DWORD PTR _closure$[ebp]
	comiss	xmm0, DWORD PTR __real@00000000
	jbe	SHORT $LN2@GetDoppler

; 90   : 			closure = SPEED_CLAMP;

	movss	xmm0, DWORD PTR ?SPEED_CLAMP@?1??GetDoppler@OTWDriverClass@@QAEMMMMMMM@Z@4MB
	movss	DWORD PTR _closure$[ebp], xmm0

; 91   : 		} else {

	jmp	SHORT $LN1@GetDoppler
$LN2@GetDoppler:

; 92   : 			closure = -SPEED_CLAMP;

	movss	xmm0, DWORD PTR ?SPEED_CLAMP@?1??GetDoppler@OTWDriverClass@@QAEMMMMMMM@Z@4MB
	xorps	xmm0, DWORD PTR __xmm@80000000800000008000000080000000
	movss	DWORD PTR _closure$[ebp], xmm0
$LN1@GetDoppler:

; 93   : 		}
; 94   : 	}
; 95   : 
; 96   : 	return 1.0f + closure/APPROX_MACH;

	movss	xmm0, DWORD PTR _closure$[ebp]
	divss	xmm0, DWORD PTR ?APPROX_MACH@?1??GetDoppler@OTWDriverClass@@QAEMMMMMMM@Z@4MB
	addss	xmm0, DWORD PTR __real@3f800000
	movss	DWORD PTR tv281[ebp], xmm0
	fld	DWORD PTR tv281[ebp]
$LN9@GetDoppler:

; 97   : }

	mov	ecx, DWORD PTR __$ArrayPad$[ebp]
	xor	ecx, ebp
	call	@__security_check_cookie@4
	mov	esp, ebp
	pop	ebp
	ret	24					; 00000018H
?GetDoppler@OTWDriverClass@@QAEMMMMMMM@Z ENDP		; OTWDriverClass::GetDoppler
_TEXT	ENDS
; Function compile flags: /Odtp
; File c:\users\zhitao li\documents\visual studio 2012\projects\freefalcon\sim\otwdrive\external.cpp
_TEXT	SEGMENT
tv357 = -80						; size = 4
tv343 = -76						; size = 4
tv337 = -72						; size = 4
tv355 = -68						; size = 4
tv330 = -64						; size = 4
tv324 = -60						; size = 4
tv353 = -56						; size = 4
tv317 = -52						; size = 4
tv311 = -48						; size = 4
tv351 = -44						; size = 4
tv304 = -40						; size = 4
tv296 = -36						; size = 4
tv349 = -32						; size = 4
tv291 = -28						; size = 4
tv283 = -24						; size = 4
tv347 = -20						; size = 4
tv278 = -16						; size = 4
tv270 = -12						; size = 4
_airCraft$ = -8						; size = 4
_this$ = -4						; size = 4
_ejectedPilot$ = 8					; size = 4
_chaseMode$ = 12					; size = 4
?SetEjectCamChaseMode@OTWDriverClass@@QAEXPAVEjectedPilotClass@@H@Z PROC ; OTWDriverClass::SetEjectCamChaseMode
; _this$ = ecx

; 804  : {

	push	ebp
	mov	ebp, esp
	sub	esp, 80					; 00000050H
	mov	DWORD PTR _this$[ebp], ecx

; 805  : 	SimBaseClass *airCraft;
; 806  : 
; 807  : 	if(otwPlatform.get() == ejectedPilot)

	mov	ecx, DWORD PTR _this$[ebp]
	add	ecx, 32336				; 00007e50H
	call	?get@?$VuBin@VSimBaseClass@@@@QBEPAVSimBaseClass@@XZ ; VuBin<SimBaseClass>::get
	cmp	eax, DWORD PTR _ejectedPilot$[ebp]
	jne	$LN1@SetEjectCa

; 808  : 	{
; 809  : 		airCraft = ejectedPilot->GetParentAircraft();

	mov	ecx, DWORD PTR _ejectedPilot$[ebp]
	call	?GetParentAircraft@EjectedPilotClass@@QAEPAVAircraftClass@@XZ ; EjectedPilotClass::GetParentAircraft
	mov	DWORD PTR _airCraft$[ebp], eax

; 810  : 		/*
; 811  : 			 SetOTWDisplayMode(ModeOrbit);
; 812  : 		 ** edg note: I don't particularly think starting out in 1st person
; 813  : 		 ** and then going to 3rd person is so great.  We'll just do 3rd
; 814  : 		 ** person in orbit mode.
; 815  : 		 */
; 816  : 
; 817  : 		// saveCameraPos = cameraPos;
; 818  : 
; 819  : 		if(chaseMode == 0)

	cmp	DWORD PTR _chaseMode$[ebp], 0
	jne	$LN1@SetEjectCa

; 820  : 		{
; 821  : 			SetOTWDisplayMode(ModeFlyby);

	push	16					; 00000010H
	mov	ecx, DWORD PTR _this$[ebp]
	call	?SetOTWDisplayMode@OTWDriverClass@@QAEXW4OTWDisplayMode@1@@Z ; OTWDriverClass::SetOTWDisplayMode

; 822  : 			flybyTimer = SimLibElapsedTime + 5000;

	mov	eax, DWORD PTR ?SimLibElapsedTime@@3KA	; SimLibElapsedTime
	add	eax, 5000				; 00001388H
	mov	ecx, DWORD PTR _this$[ebp]
	mov	DWORD PTR [ecx+33544], eax

; 823  : 
; 824  : 			if ( airCraft )

	cmp	DWORD PTR _airCraft$[ebp], 0
	je	$LN2@SetEjectCa

; 825  : 			{
; 826  : 				endFlightPoint.x = airCraft->XPos() - airCraft->dmx[2][0] * 500.0f + airCraft->XDelta() * 1.0f;

	mov	ecx, DWORD PTR _airCraft$[ebp]
	call	?XPos@VuEntity@@QBEMXZ			; VuEntity::XPos
	fstp	DWORD PTR tv270[ebp]
	movss	xmm0, DWORD PTR tv270[ebp]
	mov	edx, 12					; 0000000cH
	shl	edx, 1
	mov	eax, DWORD PTR _airCraft$[ebp]
	lea	ecx, DWORD PTR [eax+edx+296]
	mov	edx, 4
	imul	edx, 0
	movss	xmm1, DWORD PTR [ecx+edx]
	mulss	xmm1, DWORD PTR __real@43fa0000
	subss	xmm0, xmm1
	mov	ecx, DWORD PTR _airCraft$[ebp]
	movss	DWORD PTR tv347[ebp], xmm0
	call	?XDelta@VuEntity@@QBEMXZ		; VuEntity::XDelta
	fstp	DWORD PTR tv278[ebp]
	movss	xmm0, DWORD PTR tv278[ebp]
	mulss	xmm0, DWORD PTR __real@3f800000
	movss	xmm1, DWORD PTR tv347[ebp]
	addss	xmm1, xmm0
	mov	eax, DWORD PTR _this$[ebp]
	movss	DWORD PTR [eax+33516], xmm1

; 827  : 				endFlightPoint.y = airCraft->YPos() - airCraft->dmx[2][1] * 500.0f + airCraft->YDelta() * 1.0f;

	mov	ecx, DWORD PTR _airCraft$[ebp]
	call	?YPos@VuEntity@@QBEMXZ			; VuEntity::YPos
	fstp	DWORD PTR tv283[ebp]
	movss	xmm0, DWORD PTR tv283[ebp]
	mov	ecx, 12					; 0000000cH
	shl	ecx, 1
	mov	edx, DWORD PTR _airCraft$[ebp]
	lea	eax, DWORD PTR [edx+ecx+296]
	mov	ecx, 4
	shl	ecx, 0
	movss	xmm1, DWORD PTR [eax+ecx]
	mulss	xmm1, DWORD PTR __real@43fa0000
	subss	xmm0, xmm1
	mov	ecx, DWORD PTR _airCraft$[ebp]
	movss	DWORD PTR tv349[ebp], xmm0
	call	?YDelta@VuEntity@@QBEMXZ		; VuEntity::YDelta
	fstp	DWORD PTR tv291[ebp]
	movss	xmm0, DWORD PTR tv291[ebp]
	mulss	xmm0, DWORD PTR __real@3f800000
	movss	xmm1, DWORD PTR tv349[ebp]
	addss	xmm1, xmm0
	mov	edx, DWORD PTR _this$[ebp]
	movss	DWORD PTR [edx+33520], xmm1

; 828  : 				endFlightPoint.z = airCraft->ZPos() - airCraft->dmx[2][2] * 500.0f + airCraft->ZDelta() * 1.0f;

	mov	ecx, DWORD PTR _airCraft$[ebp]
	call	?ZPos@VuEntity@@QBEMXZ			; VuEntity::ZPos
	fstp	DWORD PTR tv296[ebp]
	movss	xmm0, DWORD PTR tv296[ebp]
	mov	eax, 12					; 0000000cH
	shl	eax, 1
	mov	ecx, DWORD PTR _airCraft$[ebp]
	lea	edx, DWORD PTR [ecx+eax+296]
	mov	eax, 4
	shl	eax, 1
	movss	xmm1, DWORD PTR [edx+eax]
	mulss	xmm1, DWORD PTR __real@43fa0000
	subss	xmm0, xmm1
	mov	ecx, DWORD PTR _airCraft$[ebp]
	movss	DWORD PTR tv351[ebp], xmm0
	call	?ZDelta@VuEntity@@QBEMXZ		; VuEntity::ZDelta
	fstp	DWORD PTR tv304[ebp]
	movss	xmm0, DWORD PTR tv304[ebp]
	mulss	xmm0, DWORD PTR __real@3f800000
	movss	xmm1, DWORD PTR tv351[ebp]
	addss	xmm1, xmm0
	mov	ecx, DWORD PTR _this$[ebp]
	movss	DWORD PTR [ecx+33524], xmm1

; 829  : 			}
; 830  : 			else

	jmp	$LN1@SetEjectCa
$LN2@SetEjectCa:

; 831  : 			{
; 832  : 				endFlightPoint.x = otwPlatform->XPos() + otwPlatform->XDelta() * 2.0f;

	mov	ecx, DWORD PTR _this$[ebp]
	add	ecx, 32336				; 00007e50H
	call	??C?$VuBin@VSimBaseClass@@@@QBEPAVSimBaseClass@@XZ ; VuBin<SimBaseClass>::operator->
	mov	ecx, eax
	call	?XPos@VuEntity@@QBEMXZ			; VuEntity::XPos
	fstp	DWORD PTR tv311[ebp]
	movss	xmm0, DWORD PTR tv311[ebp]
	mov	ecx, DWORD PTR _this$[ebp]
	add	ecx, 32336				; 00007e50H
	movss	DWORD PTR tv353[ebp], xmm0
	call	??C?$VuBin@VSimBaseClass@@@@QBEPAVSimBaseClass@@XZ ; VuBin<SimBaseClass>::operator->
	mov	ecx, eax
	call	?XDelta@VuEntity@@QBEMXZ		; VuEntity::XDelta
	fstp	DWORD PTR tv317[ebp]
	movss	xmm0, DWORD PTR tv317[ebp]
	mulss	xmm0, DWORD PTR __real@40000000
	movss	xmm1, DWORD PTR tv353[ebp]
	addss	xmm1, xmm0
	mov	edx, DWORD PTR _this$[ebp]
	movss	DWORD PTR [edx+33516], xmm1

; 833  : 				endFlightPoint.y = otwPlatform->YPos() + otwPlatform->YDelta() * 2.0f;

	mov	ecx, DWORD PTR _this$[ebp]
	add	ecx, 32336				; 00007e50H
	call	??C?$VuBin@VSimBaseClass@@@@QBEPAVSimBaseClass@@XZ ; VuBin<SimBaseClass>::operator->
	mov	ecx, eax
	call	?YPos@VuEntity@@QBEMXZ			; VuEntity::YPos
	fstp	DWORD PTR tv324[ebp]
	movss	xmm0, DWORD PTR tv324[ebp]
	mov	ecx, DWORD PTR _this$[ebp]
	add	ecx, 32336				; 00007e50H
	movss	DWORD PTR tv355[ebp], xmm0
	call	??C?$VuBin@VSimBaseClass@@@@QBEPAVSimBaseClass@@XZ ; VuBin<SimBaseClass>::operator->
	mov	ecx, eax
	call	?YDelta@VuEntity@@QBEMXZ		; VuEntity::YDelta
	fstp	DWORD PTR tv330[ebp]
	movss	xmm0, DWORD PTR tv330[ebp]
	mulss	xmm0, DWORD PTR __real@40000000
	movss	xmm1, DWORD PTR tv355[ebp]
	addss	xmm1, xmm0
	mov	eax, DWORD PTR _this$[ebp]
	movss	DWORD PTR [eax+33520], xmm1

; 834  : 				endFlightPoint.z = otwPlatform->ZPos() + otwPlatform->ZDelta() * 2.0f;

	mov	ecx, DWORD PTR _this$[ebp]
	add	ecx, 32336				; 00007e50H
	call	??C?$VuBin@VSimBaseClass@@@@QBEPAVSimBaseClass@@XZ ; VuBin<SimBaseClass>::operator->
	mov	ecx, eax
	call	?ZPos@VuEntity@@QBEMXZ			; VuEntity::ZPos
	fstp	DWORD PTR tv337[ebp]
	movss	xmm0, DWORD PTR tv337[ebp]
	mov	ecx, DWORD PTR _this$[ebp]
	add	ecx, 32336				; 00007e50H
	movss	DWORD PTR tv357[ebp], xmm0
	call	??C?$VuBin@VSimBaseClass@@@@QBEPAVSimBaseClass@@XZ ; VuBin<SimBaseClass>::operator->
	mov	ecx, eax
	call	?ZDelta@VuEntity@@QBEMXZ		; VuEntity::ZDelta
	fstp	DWORD PTR tv343[ebp]
	movss	xmm0, DWORD PTR tv343[ebp]
	mulss	xmm0, DWORD PTR __real@40000000
	movss	xmm1, DWORD PTR tv357[ebp]
	addss	xmm1, xmm0
	mov	ecx, DWORD PTR _this$[ebp]
	movss	DWORD PTR [ecx+33524], xmm1
$LN1@SetEjectCa:

; 835  : 			}
; 836  : 		}
; 837  : 		/*
; 838  : 			 else if(chaseMode == 1) {
; 839  : 			 SetOTWDisplayMode(ModeChase);
; 840  : 			 }
; 841  : 			 else if(chaseMode == 2) {
; 842  : 			 SetOTWDisplayMode(ModeOrbit);
; 843  : 			 }
; 844  : 			 else {
; 845  : 		// F4Assert(0);
; 846  : 		SetOTWDisplayMode(ModeChase);
; 847  : 		}
; 848  : 		 */
; 849  : 
; 850  : 		// cameraPos = saveCameraPos;
; 851  : 	}
; 852  : }

	mov	esp, ebp
	pop	ebp
	ret	8
?SetEjectCamChaseMode@OTWDriverClass@@QAEXPAVEjectedPilotClass@@H@Z ENDP ; OTWDriverClass::SetEjectCamChaseMode
_TEXT	ENDS
; Function compile flags: /Odtp
; File c:\users\zhitao li\documents\visual studio 2012\projects\freefalcon\sim\otwdrive\external.cpp
_TEXT	SEGMENT
_this$ = -4						; size = 4
_ejectedPilot$ = 8					; size = 4
_startChaseMode$ = 12					; size = 4
?StartEjectCam@OTWDriverClass@@QAEXPAVEjectedPilotClass@@H@Z PROC ; OTWDriverClass::StartEjectCam
; _this$ = ecx

; 784  : {

	push	ebp
	mov	ebp, esp
	push	ecx
	mov	DWORD PTR _this$[ebp], ecx

; 785  : 	// F4Assert(ejectCam == 0);
; 786  : 	F4Assert(ejectedPilot != NULL);
; 787  : 
; 788  : 	// Set ownship to the ejected pilot
; 789  : 	lastotwPlatform = otwPlatform;

	mov	eax, DWORD PTR _this$[ebp]
	add	eax, 32336				; 00007e50H
	push	eax
	mov	ecx, DWORD PTR _this$[ebp]
	add	ecx, 32340				; 00007e54H
	call	??4?$VuBin@VSimBaseClass@@@@QAEABV0@ABV0@@Z ; VuBin<SimBaseClass>::operator=

; 790  : 	if ( lastotwPlatform ){

	mov	ecx, DWORD PTR _this$[ebp]
	add	ecx, 32340				; 00007e54H
	call	??B?$VuBin@VSimBaseClass@@@@QBE_NXZ	; VuBin<SimBaseClass>::operator bool
	movzx	ecx, al
	test	ecx, ecx
	je	SHORT $LN1@StartEject

; 791  : 		InsertObjectIntoDrawList(lastotwPlatform.get());

	mov	ecx, DWORD PTR _this$[ebp]
	add	ecx, 32340				; 00007e54H
	call	?get@?$VuBin@VSimBaseClass@@@@QBEPAVSimBaseClass@@XZ ; VuBin<SimBaseClass>::get
	push	eax
	mov	ecx, DWORD PTR _this$[ebp]
	call	?InsertObjectIntoDrawList@OTWDriverClass@@QAEXPAVSimBaseClass@@@Z ; OTWDriverClass::InsertObjectIntoDrawList
$LN1@StartEject:

; 792  : 	}
; 793  : 	SetGraphicsOwnship((SimBaseClass*)ejectedPilot);

	mov	edx, DWORD PTR _ejectedPilot$[ebp]
	push	edx
	mov	ecx, DWORD PTR _this$[ebp]
	call	?SetGraphicsOwnship@OTWDriverClass@@QAEXPAVSimBaseClass@@@Z ; OTWDriverClass::SetGraphicsOwnship

; 794  : 
; 795  : 	// edg note: I don't think we need eject cam anymore
; 796  : 	ejectCam = 1;

	mov	eax, DWORD PTR _this$[ebp]
	mov	DWORD PTR [eax+32216], 1

; 797  : 
; 798  : 	// Set us to the cockpit view
; 799  : 	SetEjectCamChaseMode(ejectedPilot, startChaseMode);

	mov	ecx, DWORD PTR _startChaseMode$[ebp]
	push	ecx
	mov	edx, DWORD PTR _ejectedPilot$[ebp]
	push	edx
	mov	ecx, DWORD PTR _this$[ebp]
	call	?SetEjectCamChaseMode@OTWDriverClass@@QAEXPAVEjectedPilotClass@@H@Z ; OTWDriverClass::SetEjectCamChaseMode

; 800  : }

	mov	esp, ebp
	pop	ebp
	ret	8
?StartEjectCam@OTWDriverClass@@QAEXPAVEjectedPilotClass@@H@Z ENDP ; OTWDriverClass::StartEjectCam
_TEXT	ENDS
; Function compile flags: /Odtp
; File c:\users\zhitao li\documents\visual studio 2012\projects\freefalcon\sim\include\otwdrive.h
;	COMDAT ?DisplayInCockpit@OTWDriverClass@@QAEHXZ
_TEXT	SEGMENT
_this$ = -4						; size = 4
?DisplayInCockpit@OTWDriverClass@@QAEHXZ PROC		; OTWDriverClass::DisplayInCockpit, COMDAT
; _this$ = ecx

; 244  : 		inline BOOL DisplayInCockpit( void ){

	push	ebp
	mov	ebp, esp
	push	ecx
	mov	DWORD PTR _this$[ebp], ecx

; 245  : 			if (mOTWDisplayMode >= ModeHud && mOTWDisplayMode <= ModePadlockEFOV )

	mov	eax, DWORD PTR _this$[ebp]
	cmp	DWORD PTR [eax+32328], 1
	jl	SHORT $LN1@DisplayInC
	mov	ecx, DWORD PTR _this$[ebp]
	cmp	DWORD PTR [ecx+32328], 5
	jg	SHORT $LN1@DisplayInC

; 246  : 		  		return TRUE;

	mov	eax, 1
	jmp	SHORT $LN2@DisplayInC
$LN1@DisplayInC:

; 247  : 			return FALSE;

	xor	eax, eax
$LN2@DisplayInC:

; 248  : 		}

	mov	esp, ebp
	pop	ebp
	ret	0
?DisplayInCockpit@OTWDriverClass@@QAEHXZ ENDP		; OTWDriverClass::DisplayInCockpit
_TEXT	ENDS
; Function compile flags: /Odtp
;	COMDAT ??_GdrawPtrList@@QAEPAXI@Z
_TEXT	SEGMENT
_this$ = -4						; size = 4
___flags$ = 8						; size = 4
??_GdrawPtrList@@QAEPAXI@Z PROC				; drawPtrList::`scalar deleting destructor', COMDAT
; _this$ = ecx
	push	ebp
	mov	ebp, esp
	push	ecx
	mov	DWORD PTR _this$[ebp], ecx
	mov	ecx, DWORD PTR _this$[ebp]
	call	??1drawPtrList@@QAE@XZ			; drawPtrList::~drawPtrList
	mov	eax, DWORD PTR ___flags$[ebp]
	and	eax, 1
	je	SHORT $LN1@scalar
	mov	ecx, DWORD PTR _this$[ebp]
	push	ecx
	call	??3@YAXPAX@Z				; operator delete
	add	esp, 4
$LN1@scalar:
	mov	eax, DWORD PTR _this$[ebp]
	mov	esp, ebp
	pop	ebp
	ret	4
??_GdrawPtrList@@QAEPAXI@Z ENDP				; drawPtrList::`scalar deleting destructor'
_TEXT	ENDS
; Function compile flags: /Odtp
; File c:\users\zhitao li\documents\visual studio 2012\projects\freefalcon\sim\include\otwdrive.h
;	COMDAT ??1drawPtrList@@QAE@XZ
_TEXT	SEGMENT
_this$ = -4						; size = 4
??1drawPtrList@@QAE@XZ PROC				; drawPtrList::~drawPtrList, COMDAT
; _this$ = ecx

; 112  : 	~drawPtrList( void )	{};

	push	ebp
	mov	ebp, esp
	push	ecx
	mov	DWORD PTR _this$[ebp], ecx
	mov	esp, ebp
	pop	ebp
	ret	0
??1drawPtrList@@QAE@XZ ENDP				; drawPtrList::~drawPtrList
_TEXT	ENDS
; Function compile flags: /Odtp
; File c:\users\zhitao li\documents\visual studio 2012\projects\freefalcon\falclib\include\playerop.h
;	COMDAT ?GetMouseLook@PlayerOptionsClass@@QBE_NXZ
_TEXT	SEGMENT
_this$ = -4						; size = 4
?GetMouseLook@PlayerOptionsClass@@QBE_NXZ PROC		; PlayerOptionsClass::GetMouseLook, COMDAT
; _this$ = ecx

; 182  : 	bool GetMouseLook(void) const                           { return enableMouseLook; }		// Retro 28Dec2003

	push	ebp
	mov	ebp, esp
	push	ecx
	mov	DWORD PTR _this$[ebp], ecx
	mov	eax, DWORD PTR _this$[ebp]
	mov	al, BYTE PTR [eax+208]
	mov	esp, ebp
	pop	ebp
	ret	0
?GetMouseLook@PlayerOptionsClass@@QBE_NXZ ENDP		; PlayerOptionsClass::GetMouseLook
_TEXT	ENDS
; Function compile flags: /Odtp
; File c:\users\zhitao li\documents\visual studio 2012\projects\freefalcon\sim\include\simdrive.h
;	COMDAT ?MotionOn@SimulationDriver@@QAEHXZ
_TEXT	SEGMENT
_this$ = -4						; size = 4
?MotionOn@SimulationDriver@@QAEHXZ PROC			; SimulationDriver::MotionOn, COMDAT
; _this$ = ecx

; 98   : 	int MotionOn(void) {return motionOn;};

	push	ebp
	mov	ebp, esp
	push	ecx
	mov	DWORD PTR _this$[ebp], ecx
	mov	eax, DWORD PTR _this$[ebp]
	mov	eax, DWORD PTR [eax+352]
	mov	esp, ebp
	pop	ebp
	ret	0
?MotionOn@SimulationDriver@@QAEHXZ ENDP			; SimulationDriver::MotionOn
_TEXT	ENDS
; Function compile flags: /Odtp
; File c:\users\zhitao li\documents\visual studio 2012\projects\freefalcon\sim\include\simbase.h
;	COMDAT ?IsSetLocalFlag@SimBaseClass@@QBEHH@Z
_TEXT	SEGMENT
_this$ = -8						; size = 4
tv68 = -4						; size = 4
_flag$ = 8						; size = 4
?IsSetLocalFlag@SimBaseClass@@QBEHH@Z PROC		; SimBaseClass::IsSetLocalFlag, COMDAT
; _this$ = ecx

; 179  : 	int  IsSetLocalFlag(int flag) const { return ((localFlags & flag) ? TRUE : FALSE); }

	push	ebp
	mov	ebp, esp
	sub	esp, 8
	mov	DWORD PTR _this$[ebp], ecx
	mov	eax, DWORD PTR _this$[ebp]
	movzx	ecx, BYTE PTR [eax+284]
	and	ecx, DWORD PTR _flag$[ebp]
	je	SHORT $LN3@IsSetLocal
	mov	DWORD PTR tv68[ebp], 1
	jmp	SHORT $LN4@IsSetLocal
$LN3@IsSetLocal:
	mov	DWORD PTR tv68[ebp], 0
$LN4@IsSetLocal:
	mov	eax, DWORD PTR tv68[ebp]
	mov	esp, ebp
	pop	ebp
	ret	4
?IsSetLocalFlag@SimBaseClass@@QBEHH@Z ENDP		; SimBaseClass::IsSetLocalFlag
_TEXT	ENDS
; Function compile flags: /Odtp
; File c:\users\zhitao li\documents\visual studio 2012\projects\freefalcon\falclib\include\mltrig.h
;	COMDAT ?checked_atan2@@YANNN@Z
_TEXT	SEGMENT
_z$ = -8						; size = 8
_y$ = 8							; size = 8
_x$ = 16						; size = 8
?checked_atan2@@YANNN@Z PROC				; checked_atan2, COMDAT

; 46   : {

	push	ebp
	mov	ebp, esp
	sub	esp, 8

; 47   : 	double z;
; 48   : 	
; 49   : 	if (x == -0.0)

	movsd	xmm0, QWORD PTR _x$[ebp]
	ucomisd	xmm0, QWORD PTR __real@8000000000000000
	lahf
	test	ah, 68					; 00000044H
	jp	SHORT $LN8@checked_at

; 50   : 		x = 0.0;

	movsd	xmm0, QWORD PTR __real@0000000000000000
	movsd	QWORD PTR _x$[ebp], xmm0
$LN8@checked_at:

; 51   : 	
; 52   : 	if (x != 0)

	movsd	xmm0, QWORD PTR _x$[ebp]
	ucomisd	xmm0, QWORD PTR __real@0000000000000000
	lahf
	test	ah, 68					; 00000044H
	jnp	SHORT $LN7@checked_at

; 53   : 		z = atan(y / x);

	movsd	xmm0, QWORD PTR _y$[ebp]
	divsd	xmm0, QWORD PTR _x$[ebp]
	sub	esp, 8
	movsd	QWORD PTR [esp], xmm0
	call	_atan
	add	esp, 8
	fstp	QWORD PTR _z$[ebp]
	jmp	SHORT $LN4@checked_at
$LN7@checked_at:

; 54   : 	else if (y > 0)

	movsd	xmm0, QWORD PTR _y$[ebp]
	comisd	xmm0, QWORD PTR __real@0000000000000000
	jbe	SHORT $LN5@checked_at

; 55   : 		z = HALF_DPI;

	movsd	xmm0, QWORD PTR __real@3ff921fb54442d18
	movsd	QWORD PTR _z$[ebp], xmm0

; 56   : 	else

	jmp	SHORT $LN4@checked_at
$LN5@checked_at:

; 57   : 		z = -HALF_DPI;

	movsd	xmm0, QWORD PTR __real@bff921fb54442d18
	movsd	QWORD PTR _z$[ebp], xmm0
$LN4@checked_at:

; 58   : 
; 59   : 	if (x < 0)

	movsd	xmm0, QWORD PTR __real@0000000000000000
	comisd	xmm0, QWORD PTR _x$[ebp]
	jbe	SHORT $LN1@checked_at

; 60   : 	{
; 61   : 		if (y < 0)

	movsd	xmm0, QWORD PTR __real@0000000000000000
	comisd	xmm0, QWORD PTR _y$[ebp]
	jbe	SHORT $LN2@checked_at

; 62   : 			z -= DPI;

	movsd	xmm0, QWORD PTR _z$[ebp]
	subsd	xmm0, QWORD PTR __real@400921fb54442d18
	movsd	QWORD PTR _z$[ebp], xmm0

; 63   : 		else

	jmp	SHORT $LN1@checked_at
$LN2@checked_at:

; 64   : 			z += DPI;

	movsd	xmm0, QWORD PTR _z$[ebp]
	addsd	xmm0, QWORD PTR __real@400921fb54442d18
	movsd	QWORD PTR _z$[ebp], xmm0
$LN1@checked_at:

; 65   : 	}
; 66   : 
; 67   : 	return z;

	fld	QWORD PTR _z$[ebp]

; 68   : }

	mov	esp, ebp
	pop	ebp
	ret	0
?checked_atan2@@YANNN@Z ENDP				; checked_atan2
_TEXT	ENDS
; Function compile flags: /Odtp
; File c:\users\zhitao li\documents\visual studio 2012\projects\freefalcon\vu2\include\vuentity.h
;	COMDAT ?Roll@VuEntity@@QBEMXZ
_TEXT	SEGMENT
_this$ = -4						; size = 4
?Roll@VuEntity@@QBEMXZ PROC				; VuEntity::Roll, COMDAT
; _this$ = ecx

; 166  : 	SM_SCALAR Roll() const { return orient_.roll_; }

	push	ebp
	mov	ebp, esp
	push	ecx
	mov	DWORD PTR _this$[ebp], ecx
	mov	eax, DWORD PTR _this$[ebp]
	fld	DWORD PTR [eax+68]
	mov	esp, ebp
	pop	ebp
	ret	0
?Roll@VuEntity@@QBEMXZ ENDP				; VuEntity::Roll
_TEXT	ENDS
; Function compile flags: /Odtp
; File c:\users\zhitao li\documents\visual studio 2012\projects\freefalcon\vu2\include\vuentity.h
;	COMDAT ?Pitch@VuEntity@@QBEMXZ
_TEXT	SEGMENT
_this$ = -4						; size = 4
?Pitch@VuEntity@@QBEMXZ PROC				; VuEntity::Pitch, COMDAT
; _this$ = ecx

; 165  : 	SM_SCALAR Pitch() const { return orient_.pitch_; }

	push	ebp
	mov	ebp, esp
	push	ecx
	mov	DWORD PTR _this$[ebp], ecx
	mov	eax, DWORD PTR _this$[ebp]
	fld	DWORD PTR [eax+64]
	mov	esp, ebp
	pop	ebp
	ret	0
?Pitch@VuEntity@@QBEMXZ ENDP				; VuEntity::Pitch
_TEXT	ENDS
; Function compile flags: /Odtp
; File c:\users\zhitao li\documents\visual studio 2012\projects\freefalcon\vu2\include\vuentity.h
;	COMDAT ?Yaw@VuEntity@@QBEMXZ
_TEXT	SEGMENT
_this$ = -4						; size = 4
?Yaw@VuEntity@@QBEMXZ PROC				; VuEntity::Yaw, COMDAT
; _this$ = ecx

; 164  : 	SM_SCALAR Yaw() const { return orient_.yaw_; }

	push	ebp
	mov	ebp, esp
	push	ecx
	mov	DWORD PTR _this$[ebp], ecx
	mov	eax, DWORD PTR _this$[ebp]
	fld	DWORD PTR [eax+60]
	mov	esp, ebp
	pop	ebp
	ret	0
?Yaw@VuEntity@@QBEMXZ ENDP				; VuEntity::Yaw
_TEXT	ENDS
; Function compile flags: /Odtp
; File c:\users\zhitao li\documents\visual studio 2012\projects\freefalcon\vu2\include\vuentity.h
;	COMDAT ?ZDelta@VuEntity@@QBEMXZ
_TEXT	SEGMENT
_this$ = -4						; size = 4
?ZDelta@VuEntity@@QBEMXZ PROC				; VuEntity::ZDelta, COMDAT
; _this$ = ecx

; 163  : 	SM_SCALAR ZDelta() const { return pos_.dz_; }

	push	ebp
	mov	ebp, esp
	push	ecx
	mov	DWORD PTR _this$[ebp], ecx
	mov	eax, DWORD PTR _this$[ebp]
	fld	DWORD PTR [eax+56]
	mov	esp, ebp
	pop	ebp
	ret	0
?ZDelta@VuEntity@@QBEMXZ ENDP				; VuEntity::ZDelta
_TEXT	ENDS
; Function compile flags: /Odtp
; File c:\users\zhitao li\documents\visual studio 2012\projects\freefalcon\vu2\include\vuentity.h
;	COMDAT ?YDelta@VuEntity@@QBEMXZ
_TEXT	SEGMENT
_this$ = -4						; size = 4
?YDelta@VuEntity@@QBEMXZ PROC				; VuEntity::YDelta, COMDAT
; _this$ = ecx

; 162  : 	SM_SCALAR YDelta() const { return pos_.dy_; }

	push	ebp
	mov	ebp, esp
	push	ecx
	mov	DWORD PTR _this$[ebp], ecx
	mov	eax, DWORD PTR _this$[ebp]
	fld	DWORD PTR [eax+52]
	mov	esp, ebp
	pop	ebp
	ret	0
?YDelta@VuEntity@@QBEMXZ ENDP				; VuEntity::YDelta
_TEXT	ENDS
; Function compile flags: /Odtp
; File c:\users\zhitao li\documents\visual studio 2012\projects\freefalcon\vu2\include\vuentity.h
;	COMDAT ?XDelta@VuEntity@@QBEMXZ
_TEXT	SEGMENT
_this$ = -4						; size = 4
?XDelta@VuEntity@@QBEMXZ PROC				; VuEntity::XDelta, COMDAT
; _this$ = ecx

; 161  : 	SM_SCALAR XDelta() const { return pos_.dx_; }

	push	ebp
	mov	ebp, esp
	push	ecx
	mov	DWORD PTR _this$[ebp], ecx
	mov	eax, DWORD PTR _this$[ebp]
	fld	DWORD PTR [eax+48]
	mov	esp, ebp
	pop	ebp
	ret	0
?XDelta@VuEntity@@QBEMXZ ENDP				; VuEntity::XDelta
_TEXT	ENDS
; Function compile flags: /Odtp
; File c:\users\zhitao li\documents\visual studio 2012\projects\freefalcon\vu2\include\vuentity.h
;	COMDAT ?ZPos@VuEntity@@QBEMXZ
_TEXT	SEGMENT
_this$ = -4						; size = 4
?ZPos@VuEntity@@QBEMXZ PROC				; VuEntity::ZPos, COMDAT
; _this$ = ecx

; 160  : 	BIG_SCALAR ZPos()	const { return pos_.z_; }

	push	ebp
	mov	ebp, esp
	push	ecx
	mov	DWORD PTR _this$[ebp], ecx
	mov	eax, DWORD PTR _this$[ebp]
	fld	DWORD PTR [eax+44]
	mov	esp, ebp
	pop	ebp
	ret	0
?ZPos@VuEntity@@QBEMXZ ENDP				; VuEntity::ZPos
_TEXT	ENDS
; Function compile flags: /Odtp
; File c:\users\zhitao li\documents\visual studio 2012\projects\freefalcon\vu2\include\vuentity.h
;	COMDAT ?YPos@VuEntity@@QBEMXZ
_TEXT	SEGMENT
_this$ = -4						; size = 4
?YPos@VuEntity@@QBEMXZ PROC				; VuEntity::YPos, COMDAT
; _this$ = ecx

; 159  : 	BIG_SCALAR YPos()	const { return pos_.y_; }

	push	ebp
	mov	ebp, esp
	push	ecx
	mov	DWORD PTR _this$[ebp], ecx
	mov	eax, DWORD PTR _this$[ebp]
	fld	DWORD PTR [eax+40]
	mov	esp, ebp
	pop	ebp
	ret	0
?YPos@VuEntity@@QBEMXZ ENDP				; VuEntity::YPos
_TEXT	ENDS
; Function compile flags: /Odtp
; File c:\users\zhitao li\documents\visual studio 2012\projects\freefalcon\vu2\include\vuentity.h
;	COMDAT ?XPos@VuEntity@@QBEMXZ
_TEXT	SEGMENT
_this$ = -4						; size = 4
?XPos@VuEntity@@QBEMXZ PROC				; VuEntity::XPos, COMDAT
; _this$ = ecx

; 158  : 	BIG_SCALAR XPos() const { return pos_.x_; }

	push	ebp
	mov	ebp, esp
	push	ecx
	mov	DWORD PTR _this$[ebp], ecx
	mov	eax, DWORD PTR _this$[ebp]
	fld	DWORD PTR [eax+36]
	mov	esp, ebp
	pop	ebp
	ret	0
?XPos@VuEntity@@QBEMXZ ENDP				; VuEntity::XPos
_TEXT	ENDS
; Function compile flags: /Odtp
;	COMDAT ??_G_System_error_category@std@@UAEPAXI@Z
_TEXT	SEGMENT
_this$ = -4						; size = 4
___flags$ = 8						; size = 4
??_G_System_error_category@std@@UAEPAXI@Z PROC		; std::_System_error_category::`scalar deleting destructor', COMDAT
; _this$ = ecx
	push	ebp
	mov	ebp, esp
	push	ecx
	mov	DWORD PTR _this$[ebp], ecx
	mov	ecx, DWORD PTR _this$[ebp]
	call	??1_System_error_category@std@@UAE@XZ
	mov	eax, DWORD PTR ___flags$[ebp]
	and	eax, 1
	je	SHORT $LN1@scalar
	mov	ecx, DWORD PTR _this$[ebp]
	push	ecx
	call	??3@YAXPAX@Z				; operator delete
	add	esp, 4
$LN1@scalar:
	mov	eax, DWORD PTR _this$[ebp]
	mov	esp, ebp
	pop	ebp
	ret	4
??_G_System_error_category@std@@UAEPAXI@Z ENDP		; std::_System_error_category::`scalar deleting destructor'
_TEXT	ENDS
; Function compile flags: /Odtp
;	COMDAT ??1_System_error_category@std@@UAE@XZ
_TEXT	SEGMENT
_this$ = -4						; size = 4
??1_System_error_category@std@@UAE@XZ PROC		; std::_System_error_category::~_System_error_category, COMDAT
; _this$ = ecx
	push	ebp
	mov	ebp, esp
	push	ecx
	mov	DWORD PTR _this$[ebp], ecx
	mov	ecx, DWORD PTR _this$[ebp]
	call	??1_Generic_error_category@std@@UAE@XZ
	mov	esp, ebp
	pop	ebp
	ret	0
??1_System_error_category@std@@UAE@XZ ENDP		; std::_System_error_category::~_System_error_category
_TEXT	ENDS
; Function compile flags: /Odtp
; File c:\program files (x86)\microsoft visual studio 11.0\vc\include\system_error
;	COMDAT ?default_error_condition@_System_error_category@std@@UBE?AVerror_condition@2@H@Z
_TEXT	SEGMENT
_this$ = -4						; size = 4
___$ReturnUdt$ = 8					; size = 4
__Errval$ = 12						; size = 4
?default_error_condition@_System_error_category@std@@UBE?AVerror_condition@2@H@Z PROC ; std::_System_error_category::default_error_condition, COMDAT
; _this$ = ecx

; 641  : 		{	// make error_condition for error code (generic if possible)

	push	ebp
	mov	ebp, esp
	push	ecx
	mov	DWORD PTR _this$[ebp], ecx

; 642  : 		if (_Syserror_map(_Errval))

	mov	eax, DWORD PTR __Errval$[ebp]
	push	eax
	call	?_Syserror_map@std@@YAPBDH@Z		; std::_Syserror_map
	add	esp, 4
	test	eax, eax
	je	SHORT $LN2@default_er

; 643  : 			return (error_condition(_Errval, generic_category()));

	call	?generic_category@std@@YAABVerror_category@1@XZ ; std::generic_category
	push	eax
	mov	ecx, DWORD PTR __Errval$[ebp]
	push	ecx
	mov	ecx, DWORD PTR ___$ReturnUdt$[ebp]
	call	??0error_condition@std@@QAE@HABVerror_category@1@@Z ; std::error_condition::error_condition
	mov	eax, DWORD PTR ___$ReturnUdt$[ebp]
	jmp	SHORT $LN3@default_er

; 644  : 		else

	jmp	SHORT $LN3@default_er
$LN2@default_er:

; 645  : 			return (error_condition(_Errval, system_category()));

	call	?system_category@std@@YAABVerror_category@1@XZ ; std::system_category
	push	eax
	mov	edx, DWORD PTR __Errval$[ebp]
	push	edx
	mov	ecx, DWORD PTR ___$ReturnUdt$[ebp]
	call	??0error_condition@std@@QAE@HABVerror_category@1@@Z ; std::error_condition::error_condition
	mov	eax, DWORD PTR ___$ReturnUdt$[ebp]
$LN3@default_er:

; 646  : 		}

	mov	esp, ebp
	pop	ebp
	ret	8
?default_error_condition@_System_error_category@std@@UBE?AVerror_condition@2@H@Z ENDP ; std::_System_error_category::default_error_condition
_TEXT	ENDS
; Function compile flags: /Odtp
; File c:\program files (x86)\microsoft visual studio 11.0\vc\include\system_error
;	COMDAT ?message@_System_error_category@std@@UBE?AV?$basic_string@DU?$char_traits@D@std@@V?$allocator@D@2@@2@H@Z
_TEXT	SEGMENT
_this$ = -16						; size = 4
$T1 = -12						; size = 4
tv69 = -8						; size = 4
__Name$ = -4						; size = 4
___$ReturnUdt$ = 8					; size = 4
__Errcode$ = 12						; size = 4
?message@_System_error_category@std@@UBE?AV?$basic_string@DU?$char_traits@D@std@@V?$allocator@D@2@@2@H@Z PROC ; std::_System_error_category::message, COMDAT
; _this$ = ecx

; 634  : 		{	// convert to name of error

	push	ebp
	mov	ebp, esp
	sub	esp, 16					; 00000010H
	mov	DWORD PTR _this$[ebp], ecx
	mov	DWORD PTR $T1[ebp], 0

; 635  : 		const char *_Name = _Winerror_map(_Errcode);

	mov	eax, DWORD PTR __Errcode$[ebp]
	push	eax
	call	?_Winerror_map@std@@YAPBDH@Z		; std::_Winerror_map
	add	esp, 4
	mov	DWORD PTR __Name$[ebp], eax

; 636  : 		return (string(_Name != 0 ? _Name : "unknown error"));

	cmp	DWORD PTR __Name$[ebp], 0
	je	SHORT $LN3@message
	mov	ecx, DWORD PTR __Name$[ebp]
	mov	DWORD PTR tv69[ebp], ecx
	jmp	SHORT $LN4@message
$LN3@message:
	mov	DWORD PTR tv69[ebp], OFFSET ??_C@_0O@BFJCFAAK@unknown?5error?$AA@
$LN4@message:
	mov	edx, DWORD PTR tv69[ebp]
	push	edx
	mov	ecx, DWORD PTR ___$ReturnUdt$[ebp]
	call	??0?$basic_string@DU?$char_traits@D@std@@V?$allocator@D@2@@std@@QAE@PBD@Z ; std::basic_string<char,std::char_traits<char>,std::allocator<char> >::basic_string<char,std::char_traits<char>,std::allocator<char> >
	mov	eax, DWORD PTR $T1[ebp]
	or	eax, 1
	mov	DWORD PTR $T1[ebp], eax
	mov	eax, DWORD PTR ___$ReturnUdt$[ebp]

; 637  : 		}

	mov	esp, ebp
	pop	ebp
	ret	8
?message@_System_error_category@std@@UBE?AV?$basic_string@DU?$char_traits@D@std@@V?$allocator@D@2@@2@H@Z ENDP ; std::_System_error_category::message
_TEXT	ENDS
; Function compile flags: /Odtp
; File c:\program files (x86)\microsoft visual studio 11.0\vc\include\system_error
;	COMDAT ?name@_System_error_category@std@@UBEPBDXZ
_TEXT	SEGMENT
_this$ = -4						; size = 4
?name@_System_error_category@std@@UBEPBDXZ PROC		; std::_System_error_category::name, COMDAT
; _this$ = ecx

; 629  : 		{	// get name of category

	push	ebp
	mov	ebp, esp
	push	ecx
	mov	DWORD PTR _this$[ebp], ecx

; 630  : 		return ("system");

	mov	eax, OFFSET ??_C@_06FHFOAHML@system?$AA@

; 631  : 		}

	mov	esp, ebp
	pop	ebp
	ret	0
?name@_System_error_category@std@@UBEPBDXZ ENDP		; std::_System_error_category::name
_TEXT	ENDS
; Function compile flags: /Odtp
; File c:\program files (x86)\microsoft visual studio 11.0\vc\include\system_error
;	COMDAT ??0_System_error_category@std@@QAE@XZ
_TEXT	SEGMENT
_this$ = -4						; size = 4
??0_System_error_category@std@@QAE@XZ PROC		; std::_System_error_category::_System_error_category, COMDAT
; _this$ = ecx

; 624  : 	_System_error_category()

	push	ebp
	mov	ebp, esp
	push	ecx
	mov	DWORD PTR _this$[ebp], ecx
	mov	ecx, DWORD PTR _this$[ebp]
	call	??0_Generic_error_category@std@@QAE@XZ	; std::_Generic_error_category::_Generic_error_category
	mov	eax, DWORD PTR _this$[ebp]
	mov	DWORD PTR [eax], OFFSET ??_7_System_error_category@std@@6B@

; 625  : 		{	// default constructor
; 626  : 		}

	mov	eax, DWORD PTR _this$[ebp]
	mov	esp, ebp
	pop	ebp
	ret	0
??0_System_error_category@std@@QAE@XZ ENDP		; std::_System_error_category::_System_error_category
_TEXT	ENDS
; Function compile flags: /Odtp
;	COMDAT ??_G_Iostream_error_category@std@@UAEPAXI@Z
_TEXT	SEGMENT
_this$ = -4						; size = 4
___flags$ = 8						; size = 4
??_G_Iostream_error_category@std@@UAEPAXI@Z PROC	; std::_Iostream_error_category::`scalar deleting destructor', COMDAT
; _this$ = ecx
	push	ebp
	mov	ebp, esp
	push	ecx
	mov	DWORD PTR _this$[ebp], ecx
	mov	ecx, DWORD PTR _this$[ebp]
	call	??1_Iostream_error_category@std@@UAE@XZ
	mov	eax, DWORD PTR ___flags$[ebp]
	and	eax, 1
	je	SHORT $LN1@scalar
	mov	ecx, DWORD PTR _this$[ebp]
	push	ecx
	call	??3@YAXPAX@Z				; operator delete
	add	esp, 4
$LN1@scalar:
	mov	eax, DWORD PTR _this$[ebp]
	mov	esp, ebp
	pop	ebp
	ret	4
??_G_Iostream_error_category@std@@UAEPAXI@Z ENDP	; std::_Iostream_error_category::`scalar deleting destructor'
_TEXT	ENDS
; Function compile flags: /Odtp
;	COMDAT ??1_Iostream_error_category@std@@UAE@XZ
_TEXT	SEGMENT
_this$ = -4						; size = 4
??1_Iostream_error_category@std@@UAE@XZ PROC		; std::_Iostream_error_category::~_Iostream_error_category, COMDAT
; _this$ = ecx
	push	ebp
	mov	ebp, esp
	push	ecx
	mov	DWORD PTR _this$[ebp], ecx
	mov	ecx, DWORD PTR _this$[ebp]
	call	??1_Generic_error_category@std@@UAE@XZ
	mov	esp, ebp
	pop	ebp
	ret	0
??1_Iostream_error_category@std@@UAE@XZ ENDP		; std::_Iostream_error_category::~_Iostream_error_category
_TEXT	ENDS
; Function compile flags: /Odtp
; File c:\program files (x86)\microsoft visual studio 11.0\vc\include\system_error
;	COMDAT ?message@_Iostream_error_category@std@@UBE?AV?$basic_string@DU?$char_traits@D@std@@V?$allocator@D@2@@2@H@Z
_TEXT	SEGMENT
_this$ = -8						; size = 4
$T1 = -4						; size = 4
___$ReturnUdt$ = 8					; size = 4
__Errcode$ = 12						; size = 4
?message@_Iostream_error_category@std@@UBE?AV?$basic_string@DU?$char_traits@D@std@@V?$allocator@D@2@@2@H@Z PROC ; std::_Iostream_error_category::message, COMDAT
; _this$ = ecx

; 611  : 		{	// convert to name of error

	push	ebp
	mov	ebp, esp
	sub	esp, 8
	mov	DWORD PTR _this$[ebp], ecx
	mov	DWORD PTR $T1[ebp], 0

; 612  : 		if (_Errcode == (int)io_errc::stream)

	cmp	DWORD PTR __Errcode$[ebp], 1
	jne	SHORT $LN2@message

; 613  : 			return ("iostream stream error");

	push	OFFSET ??_C@_0BG@PADBLCHM@iostream?5stream?5error?$AA@
	mov	ecx, DWORD PTR ___$ReturnUdt$[ebp]
	call	??0?$basic_string@DU?$char_traits@D@std@@V?$allocator@D@2@@std@@QAE@PBD@Z ; std::basic_string<char,std::char_traits<char>,std::allocator<char> >::basic_string<char,std::char_traits<char>,std::allocator<char> >
	mov	eax, DWORD PTR $T1[ebp]
	or	eax, 1
	mov	DWORD PTR $T1[ebp], eax
	mov	eax, DWORD PTR ___$ReturnUdt$[ebp]
	jmp	SHORT $LN3@message

; 614  : 		else

	jmp	SHORT $LN3@message
$LN2@message:

; 615  : 			return (_Generic_error_category::message(_Errcode));

	mov	ecx, DWORD PTR __Errcode$[ebp]
	push	ecx
	mov	edx, DWORD PTR ___$ReturnUdt$[ebp]
	push	edx
	mov	ecx, DWORD PTR _this$[ebp]
	call	?message@_Generic_error_category@std@@UBE?AV?$basic_string@DU?$char_traits@D@std@@V?$allocator@D@2@@2@H@Z ; std::_Generic_error_category::message
	mov	eax, DWORD PTR $T1[ebp]
	or	eax, 1
	mov	DWORD PTR $T1[ebp], eax
	mov	eax, DWORD PTR ___$ReturnUdt$[ebp]
$LN3@message:

; 616  : 		}

	mov	esp, ebp
	pop	ebp
	ret	8
?message@_Iostream_error_category@std@@UBE?AV?$basic_string@DU?$char_traits@D@std@@V?$allocator@D@2@@2@H@Z ENDP ; std::_Iostream_error_category::message
_TEXT	ENDS
; Function compile flags: /Odtp
; File c:\program files (x86)\microsoft visual studio 11.0\vc\include\system_error
;	COMDAT ?name@_Iostream_error_category@std@@UBEPBDXZ
_TEXT	SEGMENT
_this$ = -4						; size = 4
?name@_Iostream_error_category@std@@UBEPBDXZ PROC	; std::_Iostream_error_category::name, COMDAT
; _this$ = ecx

; 606  : 		{	// get name of category

	push	ebp
	mov	ebp, esp
	push	ecx
	mov	DWORD PTR _this$[ebp], ecx

; 607  : 		return ("iostream");

	mov	eax, OFFSET ??_C@_08LLGCOLLL@iostream?$AA@

; 608  : 		}

	mov	esp, ebp
	pop	ebp
	ret	0
?name@_Iostream_error_category@std@@UBEPBDXZ ENDP	; std::_Iostream_error_category::name
_TEXT	ENDS
; Function compile flags: /Odtp
; File c:\program files (x86)\microsoft visual studio 11.0\vc\include\system_error
;	COMDAT ??0_Iostream_error_category@std@@QAE@XZ
_TEXT	SEGMENT
_this$ = -4						; size = 4
??0_Iostream_error_category@std@@QAE@XZ PROC		; std::_Iostream_error_category::_Iostream_error_category, COMDAT
; _this$ = ecx

; 601  : 	_Iostream_error_category()

	push	ebp
	mov	ebp, esp
	push	ecx
	mov	DWORD PTR _this$[ebp], ecx
	mov	ecx, DWORD PTR _this$[ebp]
	call	??0_Generic_error_category@std@@QAE@XZ	; std::_Generic_error_category::_Generic_error_category
	mov	eax, DWORD PTR _this$[ebp]
	mov	DWORD PTR [eax], OFFSET ??_7_Iostream_error_category@std@@6B@

; 602  : 		{	// default constructor
; 603  : 		}

	mov	eax, DWORD PTR _this$[ebp]
	mov	esp, ebp
	pop	ebp
	ret	0
??0_Iostream_error_category@std@@QAE@XZ ENDP		; std::_Iostream_error_category::_Iostream_error_category
_TEXT	ENDS
; Function compile flags: /Odtp
;	COMDAT ??_G_Generic_error_category@std@@UAEPAXI@Z
_TEXT	SEGMENT
_this$ = -4						; size = 4
___flags$ = 8						; size = 4
??_G_Generic_error_category@std@@UAEPAXI@Z PROC		; std::_Generic_error_category::`scalar deleting destructor', COMDAT
; _this$ = ecx
	push	ebp
	mov	ebp, esp
	push	ecx
	mov	DWORD PTR _this$[ebp], ecx
	mov	ecx, DWORD PTR _this$[ebp]
	call	??1_Generic_error_category@std@@UAE@XZ
	mov	eax, DWORD PTR ___flags$[ebp]
	and	eax, 1
	je	SHORT $LN1@scalar
	mov	ecx, DWORD PTR _this$[ebp]
	push	ecx
	call	??3@YAXPAX@Z				; operator delete
	add	esp, 4
$LN1@scalar:
	mov	eax, DWORD PTR _this$[ebp]
	mov	esp, ebp
	pop	ebp
	ret	4
??_G_Generic_error_category@std@@UAEPAXI@Z ENDP		; std::_Generic_error_category::`scalar deleting destructor'
_TEXT	ENDS
; Function compile flags: /Odtp
;	COMDAT ??1_Generic_error_category@std@@UAE@XZ
_TEXT	SEGMENT
_this$ = -4						; size = 4
??1_Generic_error_category@std@@UAE@XZ PROC		; std::_Generic_error_category::~_Generic_error_category, COMDAT
; _this$ = ecx
	push	ebp
	mov	ebp, esp
	push	ecx
	mov	DWORD PTR _this$[ebp], ecx
	mov	ecx, DWORD PTR _this$[ebp]
	call	??1error_category@std@@UAE@XZ		; std::error_category::~error_category
	mov	esp, ebp
	pop	ebp
	ret	0
??1_Generic_error_category@std@@UAE@XZ ENDP		; std::_Generic_error_category::~_Generic_error_category
_TEXT	ENDS
; Function compile flags: /Odtp
; File c:\program files (x86)\microsoft visual studio 11.0\vc\include\system_error
;	COMDAT ?message@_Generic_error_category@std@@UBE?AV?$basic_string@DU?$char_traits@D@std@@V?$allocator@D@2@@2@H@Z
_TEXT	SEGMENT
_this$ = -16						; size = 4
$T1 = -12						; size = 4
tv69 = -8						; size = 4
__Name$ = -4						; size = 4
___$ReturnUdt$ = 8					; size = 4
__Errcode$ = 12						; size = 4
?message@_Generic_error_category@std@@UBE?AV?$basic_string@DU?$char_traits@D@std@@V?$allocator@D@2@@2@H@Z PROC ; std::_Generic_error_category::message, COMDAT
; _this$ = ecx

; 590  : 		{	// convert to name of error

	push	ebp
	mov	ebp, esp
	sub	esp, 16					; 00000010H
	mov	DWORD PTR _this$[ebp], ecx
	mov	DWORD PTR $T1[ebp], 0

; 591  : 		const char *_Name = _Syserror_map(_Errcode);

	mov	eax, DWORD PTR __Errcode$[ebp]
	push	eax
	call	?_Syserror_map@std@@YAPBDH@Z		; std::_Syserror_map
	add	esp, 4
	mov	DWORD PTR __Name$[ebp], eax

; 592  : 		return (string(_Name != 0 ? _Name : "unknown error"));

	cmp	DWORD PTR __Name$[ebp], 0
	je	SHORT $LN3@message
	mov	ecx, DWORD PTR __Name$[ebp]
	mov	DWORD PTR tv69[ebp], ecx
	jmp	SHORT $LN4@message
$LN3@message:
	mov	DWORD PTR tv69[ebp], OFFSET ??_C@_0O@BFJCFAAK@unknown?5error?$AA@
$LN4@message:
	mov	edx, DWORD PTR tv69[ebp]
	push	edx
	mov	ecx, DWORD PTR ___$ReturnUdt$[ebp]
	call	??0?$basic_string@DU?$char_traits@D@std@@V?$allocator@D@2@@std@@QAE@PBD@Z ; std::basic_string<char,std::char_traits<char>,std::allocator<char> >::basic_string<char,std::char_traits<char>,std::allocator<char> >
	mov	eax, DWORD PTR $T1[ebp]
	or	eax, 1
	mov	DWORD PTR $T1[ebp], eax
	mov	eax, DWORD PTR ___$ReturnUdt$[ebp]

; 593  : 		}

	mov	esp, ebp
	pop	ebp
	ret	8
?message@_Generic_error_category@std@@UBE?AV?$basic_string@DU?$char_traits@D@std@@V?$allocator@D@2@@2@H@Z ENDP ; std::_Generic_error_category::message
_TEXT	ENDS
; Function compile flags: /Odtp
; File c:\program files (x86)\microsoft visual studio 11.0\vc\include\system_error
;	COMDAT ?name@_Generic_error_category@std@@UBEPBDXZ
_TEXT	SEGMENT
_this$ = -4						; size = 4
?name@_Generic_error_category@std@@UBEPBDXZ PROC	; std::_Generic_error_category::name, COMDAT
; _this$ = ecx

; 585  : 		{	// get name of category

	push	ebp
	mov	ebp, esp
	push	ecx
	mov	DWORD PTR _this$[ebp], ecx

; 586  : 		return ("generic");

	mov	eax, OFFSET ??_C@_07DCLBNMLN@generic?$AA@

; 587  : 		}

	mov	esp, ebp
	pop	ebp
	ret	0
?name@_Generic_error_category@std@@UBEPBDXZ ENDP	; std::_Generic_error_category::name
_TEXT	ENDS
; Function compile flags: /Odtp
; File c:\program files (x86)\microsoft visual studio 11.0\vc\include\system_error
;	COMDAT ??0_Generic_error_category@std@@QAE@XZ
_TEXT	SEGMENT
_this$ = -4						; size = 4
??0_Generic_error_category@std@@QAE@XZ PROC		; std::_Generic_error_category::_Generic_error_category, COMDAT
; _this$ = ecx

; 580  : 	_Generic_error_category()

	push	ebp
	mov	ebp, esp
	push	ecx
	mov	DWORD PTR _this$[ebp], ecx
	mov	ecx, DWORD PTR _this$[ebp]
	call	??0error_category@std@@QAE@XZ		; std::error_category::error_category
	mov	eax, DWORD PTR _this$[ebp]
	mov	DWORD PTR [eax], OFFSET ??_7_Generic_error_category@std@@6B@

; 581  : 		{	// default constructor
; 582  : 		}

	mov	eax, DWORD PTR _this$[ebp]
	mov	esp, ebp
	pop	ebp
	ret	0
??0_Generic_error_category@std@@QAE@XZ ENDP		; std::_Generic_error_category::_Generic_error_category
_TEXT	ENDS
; Function compile flags: /Odtp
; File c:\program files (x86)\microsoft visual studio 11.0\vc\include\system_error
;	COMDAT ??8error_condition@std@@QBE_NABV01@@Z
_TEXT	SEGMENT
tv78 = -8						; size = 4
_this$ = -4						; size = 4
__Right$ = 8						; size = 4
??8error_condition@std@@QBE_NABV01@@Z PROC		; std::error_condition::operator==, COMDAT
; _this$ = ecx

; 376  : 		{	// test if *this == _Right

	push	ebp
	mov	ebp, esp
	sub	esp, 8
	push	esi
	mov	DWORD PTR _this$[ebp], ecx

; 377  : 		return (category() == _Right.category()
; 378  : 			&& value() == _Right.value());

	mov	ecx, DWORD PTR __Right$[ebp]
	call	?category@error_condition@std@@QBEABVerror_category@2@XZ ; std::error_condition::category
	push	eax
	mov	ecx, DWORD PTR _this$[ebp]
	call	?category@error_condition@std@@QBEABVerror_category@2@XZ ; std::error_condition::category
	mov	ecx, eax
	call	??8error_category@std@@QBE_NABV01@@Z	; std::error_category::operator==
	movzx	eax, al
	test	eax, eax
	je	SHORT $LN3@operator
	mov	ecx, DWORD PTR _this$[ebp]
	call	?value@error_condition@std@@QBEHXZ	; std::error_condition::value
	mov	esi, eax
	mov	ecx, DWORD PTR __Right$[ebp]
	call	?value@error_condition@std@@QBEHXZ	; std::error_condition::value
	cmp	esi, eax
	jne	SHORT $LN3@operator
	mov	DWORD PTR tv78[ebp], 1
	jmp	SHORT $LN4@operator
$LN3@operator:
	mov	DWORD PTR tv78[ebp], 0
$LN4@operator:
	mov	al, BYTE PTR tv78[ebp]

; 379  : 		}

	pop	esi
	mov	esp, ebp
	pop	ebp
	ret	4
??8error_condition@std@@QBE_NABV01@@Z ENDP		; std::error_condition::operator==
_TEXT	ENDS
; Function compile flags: /Odtp
; File c:\program files (x86)\microsoft visual studio 11.0\vc\include\system_error
;	COMDAT ?category@error_condition@std@@QBEABVerror_category@2@XZ
_TEXT	SEGMENT
_this$ = -4						; size = 4
?category@error_condition@std@@QBEABVerror_category@2@XZ PROC ; std::error_condition::category, COMDAT
; _this$ = ecx

; 354  : 		{	// get category

	push	ebp
	mov	ebp, esp
	push	ecx
	mov	DWORD PTR _this$[ebp], ecx

; 355  : 		return (*_Mycat);

	mov	eax, DWORD PTR _this$[ebp]
	mov	eax, DWORD PTR [eax+4]

; 356  : 		}

	mov	esp, ebp
	pop	ebp
	ret	0
?category@error_condition@std@@QBEABVerror_category@2@XZ ENDP ; std::error_condition::category
_TEXT	ENDS
; Function compile flags: /Odtp
; File c:\program files (x86)\microsoft visual studio 11.0\vc\include\system_error
;	COMDAT ?value@error_condition@std@@QBEHXZ
_TEXT	SEGMENT
_this$ = -4						; size = 4
?value@error_condition@std@@QBEHXZ PROC			; std::error_condition::value, COMDAT
; _this$ = ecx

; 349  : 		{	// get error code

	push	ebp
	mov	ebp, esp
	push	ecx
	mov	DWORD PTR _this$[ebp], ecx

; 350  : 		return (_Myval);

	mov	eax, DWORD PTR _this$[ebp]
	mov	eax, DWORD PTR [eax]

; 351  : 		}

	mov	esp, ebp
	pop	ebp
	ret	0
?value@error_condition@std@@QBEHXZ ENDP			; std::error_condition::value
_TEXT	ENDS
; Function compile flags: /Odtp
; File c:\program files (x86)\microsoft visual studio 11.0\vc\include\system_error
;	COMDAT ??0error_condition@std@@QAE@HABVerror_category@1@@Z
_TEXT	SEGMENT
_this$ = -4						; size = 4
__Val$ = 8						; size = 4
__Cat$ = 12						; size = 4
??0error_condition@std@@QAE@HABVerror_category@1@@Z PROC ; std::error_condition::error_condition, COMDAT
; _this$ = ecx

; 316  : 		{	// construct from error code and category

	push	ebp
	mov	ebp, esp
	push	ecx
	mov	DWORD PTR _this$[ebp], ecx
	mov	eax, DWORD PTR _this$[ebp]
	mov	ecx, DWORD PTR __Val$[ebp]
	mov	DWORD PTR [eax], ecx
	mov	edx, DWORD PTR _this$[ebp]
	mov	eax, DWORD PTR __Cat$[ebp]
	mov	DWORD PTR [edx+4], eax

; 317  : 		}

	mov	eax, DWORD PTR _this$[ebp]
	mov	esp, ebp
	pop	ebp
	ret	8
??0error_condition@std@@QAE@HABVerror_category@1@@Z ENDP ; std::error_condition::error_condition
_TEXT	ENDS
; Function compile flags: /Odtp
; File c:\program files (x86)\microsoft visual studio 11.0\vc\include\system_error
;	COMDAT ?category@error_code@std@@QBEABVerror_category@2@XZ
_TEXT	SEGMENT
_this$ = -4						; size = 4
?category@error_code@std@@QBEABVerror_category@2@XZ PROC ; std::error_code::category, COMDAT
; _this$ = ecx

; 256  : 		{	// get category

	push	ebp
	mov	ebp, esp
	push	ecx
	mov	DWORD PTR _this$[ebp], ecx

; 257  : 		return (*_Mycat);

	mov	eax, DWORD PTR _this$[ebp]
	mov	eax, DWORD PTR [eax+4]

; 258  : 		}

	mov	esp, ebp
	pop	ebp
	ret	0
?category@error_code@std@@QBEABVerror_category@2@XZ ENDP ; std::error_code::category
_TEXT	ENDS
; Function compile flags: /Odtp
; File c:\program files (x86)\microsoft visual studio 11.0\vc\include\system_error
;	COMDAT ?value@error_code@std@@QBEHXZ
_TEXT	SEGMENT
_this$ = -4						; size = 4
?value@error_code@std@@QBEHXZ PROC			; std::error_code::value, COMDAT
; _this$ = ecx

; 251  : 		{	// get error code

	push	ebp
	mov	ebp, esp
	push	ecx
	mov	DWORD PTR _this$[ebp], ecx

; 252  : 		return (_Myval);

	mov	eax, DWORD PTR _this$[ebp]
	mov	eax, DWORD PTR [eax]

; 253  : 		}

	mov	esp, ebp
	pop	ebp
	ret	0
?value@error_code@std@@QBEHXZ ENDP			; std::error_code::value
_TEXT	ENDS
; Function compile flags: /Odtp
;	COMDAT ??_Gerror_category@std@@UAEPAXI@Z
_TEXT	SEGMENT
_this$ = -4						; size = 4
___flags$ = 8						; size = 4
??_Gerror_category@std@@UAEPAXI@Z PROC			; std::error_category::`scalar deleting destructor', COMDAT
; _this$ = ecx
	push	ebp
	mov	ebp, esp
	push	ecx
	mov	DWORD PTR _this$[ebp], ecx
	mov	ecx, DWORD PTR _this$[ebp]
	call	??1error_category@std@@UAE@XZ		; std::error_category::~error_category
	mov	eax, DWORD PTR ___flags$[ebp]
	and	eax, 1
	je	SHORT $LN1@scalar
	mov	ecx, DWORD PTR _this$[ebp]
	push	ecx
	call	??3@YAXPAX@Z				; operator delete
	add	esp, 4
$LN1@scalar:
	mov	eax, DWORD PTR _this$[ebp]
	mov	esp, ebp
	pop	ebp
	ret	4
??_Gerror_category@std@@UAEPAXI@Z ENDP			; std::error_category::`scalar deleting destructor'
_TEXT	ENDS
; Function compile flags: /Odtp
; File c:\program files (x86)\microsoft visual studio 11.0\vc\include\system_error
;	COMDAT ??8error_category@std@@QBE_NABV01@@Z
_TEXT	SEGMENT
_this$ = -8						; size = 4
tv65 = -4						; size = 4
__Right$ = 8						; size = 4
??8error_category@std@@QBE_NABV01@@Z PROC		; std::error_category::operator==, COMDAT
; _this$ = ecx

; 184  : 		{	// compare categories for equality

	push	ebp
	mov	ebp, esp
	sub	esp, 8
	mov	DWORD PTR _this$[ebp], ecx

; 185  : 		return (this == &_Right);

	mov	eax, DWORD PTR _this$[ebp]
	cmp	eax, DWORD PTR __Right$[ebp]
	jne	SHORT $LN3@operator
	mov	DWORD PTR tv65[ebp], 1
	jmp	SHORT $LN4@operator
$LN3@operator:
	mov	DWORD PTR tv65[ebp], 0
$LN4@operator:
	mov	al, BYTE PTR tv65[ebp]

; 186  : 		}

	mov	esp, ebp
	pop	ebp
	ret	4
??8error_category@std@@QBE_NABV01@@Z ENDP		; std::error_category::operator==
_TEXT	ENDS
; Function compile flags: /Odtp
; File c:\program files (x86)\microsoft visual studio 11.0\vc\include\system_error
;	COMDAT ?equivalent@error_category@std@@UBE_NABVerror_code@2@H@Z
_TEXT	SEGMENT
_this$ = -8						; size = 4
tv74 = -4						; size = 4
__Code$ = 8						; size = 4
__Errval$ = 12						; size = 4
?equivalent@error_category@std@@UBE_NABVerror_code@2@H@Z PROC ; std::error_category::equivalent, COMDAT
; _this$ = ecx

; 415  : 	{	// test if conditions same for this category

	push	ebp
	mov	ebp, esp
	sub	esp, 8
	mov	DWORD PTR _this$[ebp], ecx

; 416  : 	return (*this == _Code.category() && _Code.value() == _Errval);

	mov	ecx, DWORD PTR __Code$[ebp]
	call	?category@error_code@std@@QBEABVerror_category@2@XZ ; std::error_code::category
	push	eax
	mov	ecx, DWORD PTR _this$[ebp]
	call	??8error_category@std@@QBE_NABV01@@Z	; std::error_category::operator==
	movzx	eax, al
	test	eax, eax
	je	SHORT $LN3@equivalent
	mov	ecx, DWORD PTR __Code$[ebp]
	call	?value@error_code@std@@QBEHXZ		; std::error_code::value
	cmp	eax, DWORD PTR __Errval$[ebp]
	jne	SHORT $LN3@equivalent
	mov	DWORD PTR tv74[ebp], 1
	jmp	SHORT $LN4@equivalent
$LN3@equivalent:
	mov	DWORD PTR tv74[ebp], 0
$LN4@equivalent:
	mov	al, BYTE PTR tv74[ebp]

; 417  : 	}

	mov	esp, ebp
	pop	ebp
	ret	8
?equivalent@error_category@std@@UBE_NABVerror_code@2@H@Z ENDP ; std::error_category::equivalent
_TEXT	ENDS
; Function compile flags: /Odtp
; File c:\program files (x86)\microsoft visual studio 11.0\vc\include\system_error
;	COMDAT ?equivalent@error_category@std@@UBE_NHABVerror_condition@2@@Z
_TEXT	SEGMENT
$T1 = -12						; size = 8
_this$ = -4						; size = 4
__Errval$ = 8						; size = 4
__Cond$ = 12						; size = 4
?equivalent@error_category@std@@UBE_NHABVerror_condition@2@@Z PROC ; std::error_category::equivalent, COMDAT
; _this$ = ecx

; 408  : 	{	// test if error code same condition

	push	ebp
	mov	ebp, esp
	sub	esp, 12					; 0000000cH
	mov	DWORD PTR _this$[ebp], ecx

; 409  : 	return (default_error_condition(_Errval) == _Cond);

	mov	eax, DWORD PTR __Cond$[ebp]
	push	eax
	mov	ecx, DWORD PTR __Errval$[ebp]
	push	ecx
	lea	edx, DWORD PTR $T1[ebp]
	push	edx
	mov	eax, DWORD PTR _this$[ebp]
	mov	edx, DWORD PTR [eax]
	mov	ecx, DWORD PTR _this$[ebp]
	mov	eax, DWORD PTR [edx+12]
	call	eax
	mov	ecx, eax
	call	??8error_condition@std@@QBE_NABV01@@Z	; std::error_condition::operator==

; 410  : 	}

	mov	esp, ebp
	pop	ebp
	ret	8
?equivalent@error_category@std@@UBE_NHABVerror_condition@2@@Z ENDP ; std::error_category::equivalent
_TEXT	ENDS
; Function compile flags: /Odtp
; File c:\program files (x86)\microsoft visual studio 11.0\vc\include\system_error
;	COMDAT ?default_error_condition@error_category@std@@UBE?AVerror_condition@2@H@Z
_TEXT	SEGMENT
_this$ = -4						; size = 4
___$ReturnUdt$ = 8					; size = 4
__Errval$ = 12						; size = 4
?default_error_condition@error_category@std@@UBE?AVerror_condition@2@H@Z PROC ; std::error_category::default_error_condition, COMDAT
; _this$ = ecx

; 401  : 	{	// make error_condition for error code

	push	ebp
	mov	ebp, esp
	push	ecx
	mov	DWORD PTR _this$[ebp], ecx

; 402  : 	return (error_condition(_Errval, *this));

	mov	eax, DWORD PTR _this$[ebp]
	push	eax
	mov	ecx, DWORD PTR __Errval$[ebp]
	push	ecx
	mov	ecx, DWORD PTR ___$ReturnUdt$[ebp]
	call	??0error_condition@std@@QAE@HABVerror_category@1@@Z ; std::error_condition::error_condition
	mov	eax, DWORD PTR ___$ReturnUdt$[ebp]

; 403  : 	}

	mov	esp, ebp
	pop	ebp
	ret	8
?default_error_condition@error_category@std@@UBE?AVerror_condition@2@H@Z ENDP ; std::error_category::default_error_condition
_TEXT	ENDS
; Function compile flags: /Odtp
; File c:\program files (x86)\microsoft visual studio 11.0\vc\include\system_error
;	COMDAT ??1error_category@std@@UAE@XZ
_TEXT	SEGMENT
_this$ = -4						; size = 4
??1error_category@std@@UAE@XZ PROC			; std::error_category::~error_category, COMDAT
; _this$ = ecx

; 167  : 		{	// destroy the object

	push	ebp
	mov	ebp, esp
	push	ecx
	mov	DWORD PTR _this$[ebp], ecx
	mov	eax, DWORD PTR _this$[ebp]
	mov	DWORD PTR [eax], OFFSET ??_7error_category@std@@6B@

; 168  : 		}

	mov	esp, ebp
	pop	ebp
	ret	0
??1error_category@std@@UAE@XZ ENDP			; std::error_category::~error_category
_TEXT	ENDS
; Function compile flags: /Odtp
; File c:\program files (x86)\microsoft visual studio 11.0\vc\include\system_error
;	COMDAT ??0error_category@std@@QAE@XZ
_TEXT	SEGMENT
_this$ = -4						; size = 4
??0error_category@std@@QAE@XZ PROC			; std::error_category::error_category, COMDAT
; _this$ = ecx

; 162  : 	error_category()

	push	ebp
	mov	ebp, esp
	push	ecx
	mov	DWORD PTR _this$[ebp], ecx
	mov	eax, DWORD PTR _this$[ebp]
	mov	DWORD PTR [eax], OFFSET ??_7error_category@std@@6B@

; 163  : 		{	// default constructor
; 164  : 		}

	mov	eax, DWORD PTR _this$[ebp]
	mov	esp, ebp
	pop	ebp
	ret	0
??0error_category@std@@QAE@XZ ENDP			; std::error_category::error_category
_TEXT	ENDS
; Function compile flags: /Odtp
; File c:\program files (x86)\microsoft visual studio 11.0\vc\include\system_error
;	COMDAT ?system_category@std@@YAABVerror_category@1@XZ
_TEXT	SEGMENT
?system_category@std@@YAABVerror_category@1@XZ PROC	; std::system_category, COMDAT

; 679  : 	{	// get system_category

	push	ebp
	mov	ebp, esp

; 680  : 	return (_Error_objects<int>::_System_object);

	mov	eax, OFFSET ?_System_object@?$_Error_objects@H@std@@2V_System_error_category@2@A ; std::_Error_objects<int>::_System_object

; 681  : 	}

	pop	ebp
	ret	0
?system_category@std@@YAABVerror_category@1@XZ ENDP	; std::system_category
_TEXT	ENDS
; Function compile flags: /Odtp
; File c:\program files (x86)\microsoft visual studio 11.0\vc\include\system_error
;	COMDAT ?generic_category@std@@YAABVerror_category@1@XZ
_TEXT	SEGMENT
?generic_category@std@@YAABVerror_category@1@XZ PROC	; std::generic_category, COMDAT

; 669  : 	{	// get generic_category

	push	ebp
	mov	ebp, esp

; 670  : 	return (_Error_objects<int>::_Generic_object);

	mov	eax, OFFSET ?_Generic_object@?$_Error_objects@H@std@@2V_Generic_error_category@2@A ; std::_Error_objects<int>::_Generic_object

; 671  : 	}

	pop	ebp
	ret	0
?generic_category@std@@YAABVerror_category@1@XZ ENDP	; std::generic_category
_TEXT	ENDS
; Function compile flags: /Odtp
; File c:\program files (x86)\microsoft visual studio 11.0\vc\include\xlocale
;	COMDAT ??0id@locale@std@@QAE@I@Z
_TEXT	SEGMENT
_this$ = -4						; size = 4
__Val$ = 8						; size = 4
??0id@locale@std@@QAE@I@Z PROC				; std::locale::id::id, COMDAT
; _this$ = ecx

; 74   : 			{	// construct with specified stamp value

	push	ebp
	mov	ebp, esp
	push	ecx
	mov	DWORD PTR _this$[ebp], ecx
	mov	eax, DWORD PTR _this$[ebp]
	mov	ecx, DWORD PTR __Val$[ebp]
	mov	DWORD PTR [eax], ecx

; 75   : 			}

	mov	eax, DWORD PTR _this$[ebp]
	mov	esp, ebp
	pop	ebp
	ret	4
??0id@locale@std@@QAE@I@Z ENDP				; std::locale::id::id
_TEXT	ENDS
; Function compile flags: /Odtp
; File c:\program files (x86)\microsoft visual studio 11.0\vc\include\xstring
;	COMDAT ?_Xran@?$basic_string@DU?$char_traits@D@std@@V?$allocator@D@2@@std@@QBEXXZ
_TEXT	SEGMENT
_this$ = -4						; size = 4
?_Xran@?$basic_string@DU?$char_traits@D@std@@V?$allocator@D@2@@std@@QBEXXZ PROC ; std::basic_string<char,std::char_traits<char>,std::allocator<char> >::_Xran, COMDAT
; _this$ = ecx

; 2275 : 		{	// report an out_of_range error

	push	ebp
	mov	ebp, esp
	push	ecx
	mov	DWORD PTR _this$[ebp], ecx

; 2276 : 		_Xout_of_range("invalid string position");

	push	OFFSET ??_C@_0BI@CFPLBAOH@invalid?5string?5position?$AA@
	call	?_Xout_of_range@std@@YAXPBD@Z		; std::_Xout_of_range
$LN2@Xran:

; 2277 : 		}

	mov	esp, ebp
	pop	ebp
	ret	0
?_Xran@?$basic_string@DU?$char_traits@D@std@@V?$allocator@D@2@@std@@QBEXXZ ENDP ; std::basic_string<char,std::char_traits<char>,std::allocator<char> >::_Xran
_TEXT	ENDS
; Function compile flags: /Odtp
; File c:\program files (x86)\microsoft visual studio 11.0\vc\include\xstring
;	COMDAT ?_Xlen@?$basic_string@DU?$char_traits@D@std@@V?$allocator@D@2@@std@@QBEXXZ
_TEXT	SEGMENT
_this$ = -4						; size = 4
?_Xlen@?$basic_string@DU?$char_traits@D@std@@V?$allocator@D@2@@std@@QBEXXZ PROC ; std::basic_string<char,std::char_traits<char>,std::allocator<char> >::_Xlen, COMDAT
; _this$ = ecx

; 2270 : 		{	// report a length_error

	push	ebp
	mov	ebp, esp
	push	ecx
	mov	DWORD PTR _this$[ebp], ecx

; 2271 : 		_Xlength_error("string too long");

	push	OFFSET ??_C@_0BA@JFNIOLAK@string?5too?5long?$AA@
	call	?_Xlength_error@std@@YAXPBD@Z		; std::_Xlength_error
$LN2@Xlen:

; 2272 : 		}

	mov	esp, ebp
	pop	ebp
	ret	0
?_Xlen@?$basic_string@DU?$char_traits@D@std@@V?$allocator@D@2@@std@@QBEXXZ ENDP ; std::basic_string<char,std::char_traits<char>,std::allocator<char> >::_Xlen
_TEXT	ENDS
; Function compile flags: /Odtp
; File c:\program files (x86)\microsoft visual studio 11.0\vc\include\xstring
;	COMDAT ?_Tidy@?$basic_string@DU?$char_traits@D@std@@V?$allocator@D@2@@std@@QAEX_NI@Z
_TEXT	SEGMENT
__Ptr$1 = -12						; size = 4
_this$ = -8						; size = 4
$T2 = -2						; size = 1
$T3 = -1						; size = 1
__Built$ = 8						; size = 1
__Newsize$ = 12						; size = 4
?_Tidy@?$basic_string@DU?$char_traits@D@std@@V?$allocator@D@2@@std@@QAEX_NI@Z PROC ; std::basic_string<char,std::char_traits<char>,std::allocator<char> >::_Tidy, COMDAT
; _this$ = ecx

; 2253 : 		{	// initialize buffer, deallocating any storage

	push	ebp
	mov	ebp, esp
	sub	esp, 12					; 0000000cH
	mov	DWORD PTR _this$[ebp], ecx

; 2254 : 		if (!_Built)

	movzx	eax, BYTE PTR __Built$[ebp]
	test	eax, eax
	jne	SHORT $LN4@Tidy
	jmp	SHORT $LN3@Tidy
$LN4@Tidy:

; 2255 : 			;
; 2256 : 		else if (this->_BUF_SIZE <= this->_Myres)

	mov	ecx, DWORD PTR _this$[ebp]
	cmp	DWORD PTR [ecx+20], 16			; 00000010H
	jb	SHORT $LN3@Tidy

; 2257 : 			{	// copy any leftovers to small buffer and deallocate
; 2258 : 			pointer _Ptr = this->_Bx._Ptr;

	mov	edx, DWORD PTR _this$[ebp]
	mov	eax, DWORD PTR [edx]
	mov	DWORD PTR __Ptr$1[ebp], eax

; 2259 : 			this->_Getal().destroy(&this->_Bx._Ptr);

	mov	ecx, DWORD PTR _this$[ebp]
	push	ecx
	lea	edx, DWORD PTR $T3[ebp]
	push	edx
	mov	ecx, DWORD PTR _this$[ebp]
	call	?_Getal@?$_String_alloc@$0A@U?$_String_base_types@DV?$allocator@D@std@@@std@@@std@@QBE?AU?$_Wrap_alloc@V?$allocator@D@std@@@2@XZ ; std::_String_alloc<0,std::_String_base_types<char,std::allocator<char> > >::_Getal
	mov	ecx, eax
	call	??$destroy@PAD@?$_Wrap_alloc@V?$allocator@D@std@@@std@@QAEXPAPAD@Z ; std::_Wrap_alloc<std::allocator<char> >::destroy<char *>

; 2260 : 			if (0 < _Newsize)

	cmp	DWORD PTR __Newsize$[ebp], 0
	jbe	SHORT $LN1@Tidy

; 2261 : 				_Traits::copy(this->_Bx._Buf,
; 2262 : 					_STD addressof(*_Ptr), _Newsize);

	mov	eax, DWORD PTR __Newsize$[ebp]
	push	eax
	mov	ecx, DWORD PTR __Ptr$1[ebp]
	push	ecx
	call	??$addressof@D@std@@YAPADAAD@Z		; std::addressof<char>
	add	esp, 4
	push	eax
	mov	edx, DWORD PTR _this$[ebp]
	push	edx
	call	?copy@?$char_traits@D@std@@SAPADPADPBDI@Z ; std::char_traits<char>::copy
	add	esp, 12					; 0000000cH
$LN1@Tidy:

; 2263 : 			this->_Getal().deallocate(_Ptr, this->_Myres + 1);

	mov	eax, DWORD PTR _this$[ebp]
	mov	ecx, DWORD PTR [eax+20]
	add	ecx, 1
	push	ecx
	mov	edx, DWORD PTR __Ptr$1[ebp]
	push	edx
	lea	eax, DWORD PTR $T2[ebp]
	push	eax
	mov	ecx, DWORD PTR _this$[ebp]
	call	?_Getal@?$_String_alloc@$0A@U?$_String_base_types@DV?$allocator@D@std@@@std@@@std@@QBE?AU?$_Wrap_alloc@V?$allocator@D@std@@@2@XZ ; std::_String_alloc<0,std::_String_base_types<char,std::allocator<char> > >::_Getal
	mov	ecx, eax
	call	?deallocate@?$_Wrap_alloc@V?$allocator@D@std@@@std@@QAEXPADI@Z ; std::_Wrap_alloc<std::allocator<char> >::deallocate
$LN3@Tidy:

; 2264 : 			}
; 2265 : 		this->_Myres = this->_BUF_SIZE - 1;

	mov	ecx, DWORD PTR _this$[ebp]
	mov	DWORD PTR [ecx+20], 15			; 0000000fH

; 2266 : 		_Eos(_Newsize);

	mov	edx, DWORD PTR __Newsize$[ebp]
	push	edx
	mov	ecx, DWORD PTR _this$[ebp]
	call	?_Eos@?$basic_string@DU?$char_traits@D@std@@V?$allocator@D@2@@std@@QAEXI@Z ; std::basic_string<char,std::char_traits<char>,std::allocator<char> >::_Eos

; 2267 : 		}

	mov	esp, ebp
	pop	ebp
	ret	8
?_Tidy@?$basic_string@DU?$char_traits@D@std@@V?$allocator@D@2@@std@@QAEX_NI@Z ENDP ; std::basic_string<char,std::char_traits<char>,std::allocator<char> >::_Tidy
_TEXT	ENDS
; Function compile flags: /Odtp
; File c:\program files (x86)\microsoft visual studio 11.0\vc\include\xstring
;	COMDAT ?_Inside@?$basic_string@DU?$char_traits@D@std@@V?$allocator@D@2@@std@@QAE_NPBD@Z
_TEXT	SEGMENT
_this$ = -4						; size = 4
__Ptr$ = 8						; size = 4
?_Inside@?$basic_string@DU?$char_traits@D@std@@V?$allocator@D@2@@std@@QAE_NPBD@Z PROC ; std::basic_string<char,std::char_traits<char>,std::allocator<char> >::_Inside, COMDAT
; _this$ = ecx

; 2237 : 		{	// test if _Ptr points inside string

	push	ebp
	mov	ebp, esp
	push	ecx
	mov	DWORD PTR _this$[ebp], ecx

; 2238 : 		if (_Ptr == 0 || _Ptr < this->_Myptr()
; 2239 : 			|| this->_Myptr() + this->_Mysize <= _Ptr)

	cmp	DWORD PTR __Ptr$[ebp], 0
	je	SHORT $LN2@Inside
	mov	ecx, DWORD PTR _this$[ebp]
	call	?_Myptr@?$_String_val@U?$_Simple_types@D@std@@@std@@QAEPADXZ ; std::_String_val<std::_Simple_types<char> >::_Myptr
	cmp	DWORD PTR __Ptr$[ebp], eax
	jb	SHORT $LN2@Inside
	mov	ecx, DWORD PTR _this$[ebp]
	call	?_Myptr@?$_String_val@U?$_Simple_types@D@std@@@std@@QAEPADXZ ; std::_String_val<std::_Simple_types<char> >::_Myptr
	mov	ecx, DWORD PTR _this$[ebp]
	add	eax, DWORD PTR [ecx+16]
	cmp	eax, DWORD PTR __Ptr$[ebp]
	ja	SHORT $LN3@Inside
$LN2@Inside:

; 2240 : 			return (false);	// don't ask

	xor	al, al
	jmp	SHORT $LN4@Inside

; 2241 : 		else

	jmp	SHORT $LN4@Inside
$LN3@Inside:

; 2242 : 			return (true);

	mov	al, 1
$LN4@Inside:

; 2243 : 		}

	mov	esp, ebp
	pop	ebp
	ret	4
?_Inside@?$basic_string@DU?$char_traits@D@std@@V?$allocator@D@2@@std@@QAE_NPBD@Z ENDP ; std::basic_string<char,std::char_traits<char>,std::allocator<char> >::_Inside
_TEXT	ENDS
; Function compile flags: /Odtp
; File c:\program files (x86)\microsoft visual studio 11.0\vc\include\xstring
;	COMDAT ?_Grow@?$basic_string@DU?$char_traits@D@std@@V?$allocator@D@2@@std@@QAE_NI_N@Z
_TEXT	SEGMENT
tv136 = -12						; size = 4
tv129 = -8						; size = 4
_this$ = -4						; size = 4
__Newsize$ = 8						; size = 4
__Trim$ = 12						; size = 1
?_Grow@?$basic_string@DU?$char_traits@D@std@@V?$allocator@D@2@@std@@QAE_NI_N@Z PROC ; std::basic_string<char,std::char_traits<char>,std::allocator<char> >::_Grow, COMDAT
; _this$ = ecx

; 2223 : 		{	// ensure buffer is big enough, trim to size if _Trim is true

	push	ebp
	mov	ebp, esp
	sub	esp, 12					; 0000000cH
	mov	DWORD PTR _this$[ebp], ecx

; 2224 : 		if (max_size() < _Newsize)

	mov	ecx, DWORD PTR _this$[ebp]
	call	?max_size@?$basic_string@DU?$char_traits@D@std@@V?$allocator@D@2@@std@@QBEIXZ ; std::basic_string<char,std::char_traits<char>,std::allocator<char> >::max_size
	cmp	eax, DWORD PTR __Newsize$[ebp]
	jae	SHORT $LN6@Grow

; 2225 : 			_Xlen();	// result too long

	mov	ecx, DWORD PTR _this$[ebp]
	call	?_Xlen@?$basic_string@DU?$char_traits@D@std@@V?$allocator@D@2@@std@@QBEXXZ ; std::basic_string<char,std::char_traits<char>,std::allocator<char> >::_Xlen
$LN6@Grow:

; 2226 : 		if (this->_Myres < _Newsize)

	mov	eax, DWORD PTR _this$[ebp]
	mov	ecx, DWORD PTR [eax+20]
	cmp	ecx, DWORD PTR __Newsize$[ebp]
	jae	SHORT $LN5@Grow

; 2227 : 			_Copy(_Newsize, this->_Mysize);	// reallocate to grow

	mov	edx, DWORD PTR _this$[ebp]
	mov	eax, DWORD PTR [edx+16]
	push	eax
	mov	ecx, DWORD PTR __Newsize$[ebp]
	push	ecx
	mov	ecx, DWORD PTR _this$[ebp]
	call	?_Copy@?$basic_string@DU?$char_traits@D@std@@V?$allocator@D@2@@std@@QAEXII@Z ; std::basic_string<char,std::char_traits<char>,std::allocator<char> >::_Copy
	jmp	SHORT $LN4@Grow
$LN5@Grow:

; 2228 : 		else if (_Trim && _Newsize < this->_BUF_SIZE)

	movzx	edx, BYTE PTR __Trim$[ebp]
	test	edx, edx
	je	SHORT $LN3@Grow
	cmp	DWORD PTR __Newsize$[ebp], 16		; 00000010H
	jae	SHORT $LN3@Grow

; 2229 : 			_Tidy(true,	// copy and deallocate if trimming to small string
; 2230 : 				_Newsize < this->_Mysize ? _Newsize : this->_Mysize);

	mov	eax, DWORD PTR _this$[ebp]
	mov	ecx, DWORD PTR __Newsize$[ebp]
	cmp	ecx, DWORD PTR [eax+16]
	jae	SHORT $LN9@Grow
	mov	edx, DWORD PTR __Newsize$[ebp]
	mov	DWORD PTR tv129[ebp], edx
	jmp	SHORT $LN10@Grow
$LN9@Grow:
	mov	eax, DWORD PTR _this$[ebp]
	mov	ecx, DWORD PTR [eax+16]
	mov	DWORD PTR tv129[ebp], ecx
$LN10@Grow:
	mov	edx, DWORD PTR tv129[ebp]
	push	edx
	push	1
	mov	ecx, DWORD PTR _this$[ebp]
	call	?_Tidy@?$basic_string@DU?$char_traits@D@std@@V?$allocator@D@2@@std@@QAEX_NI@Z ; std::basic_string<char,std::char_traits<char>,std::allocator<char> >::_Tidy
	jmp	SHORT $LN4@Grow
$LN3@Grow:

; 2231 : 		else if (_Newsize == 0)

	cmp	DWORD PTR __Newsize$[ebp], 0
	jne	SHORT $LN4@Grow

; 2232 : 			_Eos(0);	// new size is zero, just null terminate

	push	0
	mov	ecx, DWORD PTR _this$[ebp]
	call	?_Eos@?$basic_string@DU?$char_traits@D@std@@V?$allocator@D@2@@std@@QAEXI@Z ; std::basic_string<char,std::char_traits<char>,std::allocator<char> >::_Eos
$LN4@Grow:

; 2233 : 		return (0 < _Newsize);	// return true only if more work to do

	cmp	DWORD PTR __Newsize$[ebp], 0
	jbe	SHORT $LN11@Grow
	mov	DWORD PTR tv136[ebp], 1
	jmp	SHORT $LN12@Grow
$LN11@Grow:
	mov	DWORD PTR tv136[ebp], 0
$LN12@Grow:
	mov	al, BYTE PTR tv136[ebp]
$LN8@Grow:

; 2234 : 		}

	mov	esp, ebp
	pop	ebp
	ret	8
?_Grow@?$basic_string@DU?$char_traits@D@std@@V?$allocator@D@2@@std@@QAE_NI_N@Z ENDP ; std::basic_string<char,std::char_traits<char>,std::allocator<char> >::_Grow
_TEXT	ENDS
; Function compile flags: /Odtp
; File c:\program files (x86)\microsoft visual studio 11.0\vc\include\xstring
;	COMDAT ?_Eos@?$basic_string@DU?$char_traits@D@std@@V?$allocator@D@2@@std@@QAEXI@Z
_TEXT	SEGMENT
_this$ = -8						; size = 4
$T1 = -1						; size = 1
__Newsize$ = 8						; size = 4
?_Eos@?$basic_string@DU?$char_traits@D@std@@V?$allocator@D@2@@std@@QAEXI@Z PROC ; std::basic_string<char,std::char_traits<char>,std::allocator<char> >::_Eos, COMDAT
; _this$ = ecx

; 2217 : 		{	// set new length and null terminator

	push	ebp
	mov	ebp, esp
	sub	esp, 8
	mov	DWORD PTR _this$[ebp], ecx

; 2218 : 		_Traits::assign(this->_Myptr()[this->_Mysize = _Newsize], _Elem());

	mov	BYTE PTR $T1[ebp], 0
	mov	eax, DWORD PTR _this$[ebp]
	mov	ecx, DWORD PTR __Newsize$[ebp]
	mov	DWORD PTR [eax+16], ecx
	lea	edx, DWORD PTR $T1[ebp]
	push	edx
	mov	ecx, DWORD PTR _this$[ebp]
	call	?_Myptr@?$_String_val@U?$_Simple_types@D@std@@@std@@QAEPADXZ ; std::_String_val<std::_Simple_types<char> >::_Myptr
	add	eax, DWORD PTR __Newsize$[ebp]
	push	eax
	call	?assign@?$char_traits@D@std@@SAXAADABD@Z ; std::char_traits<char>::assign
	add	esp, 8

; 2219 : 		}

	mov	esp, ebp
	pop	ebp
	ret	4
?_Eos@?$basic_string@DU?$char_traits@D@std@@V?$allocator@D@2@@std@@QAEXI@Z ENDP ; std::basic_string<char,std::char_traits<char>,std::allocator<char> >::_Eos
_TEXT	ENDS
; Function compile flags: /Odtp
; File c:\program files (x86)\microsoft visual studio 11.0\vc\include\xstring
;	COMDAT ?_Copy@?$basic_string@DU?$char_traits@D@std@@V?$allocator@D@2@@std@@QAEXII@Z
_TEXT	SEGMENT
tv205 = -48						; size = 4
tv204 = -44						; size = 4
tv203 = -40						; size = 4
tv202 = -36						; size = 4
__Ptr$ = -32						; size = 4
__Newres$ = -28						; size = 4
_this$ = -24						; size = 4
$T2 = -19						; size = 1
$T3 = -18						; size = 1
$T4 = -17						; size = 1
__$EHRec$ = -16						; size = 16
__Newsize$ = 8						; size = 4
__Oldlen$ = 12						; size = 4
?_Copy@?$basic_string@DU?$char_traits@D@std@@V?$allocator@D@2@@std@@QAEXII@Z PROC ; std::basic_string<char,std::char_traits<char>,std::allocator<char> >::_Copy, COMDAT
; _this$ = ecx

; 2182 : 		{	// copy _Oldlen elements to newly allocated buffer

	push	ebp
	mov	ebp, esp
	push	-1
	push	__ehhandler$?_Copy@?$basic_string@DU?$char_traits@D@std@@V?$allocator@D@2@@std@@QAEXII@Z
	mov	eax, DWORD PTR fs:0
	push	eax
	push	ecx
	sub	esp, 32					; 00000020H
	push	ebx
	push	esi
	push	edi
	mov	eax, DWORD PTR ___security_cookie
	xor	eax, ebp
	push	eax
	lea	eax, DWORD PTR __$EHRec$[ebp+4]
	mov	DWORD PTR fs:0, eax
	mov	DWORD PTR __$EHRec$[ebp], esp
	mov	DWORD PTR _this$[ebp], ecx

; 2183 : 		size_type _Newres = _Newsize | this->_ALLOC_MASK;

	mov	eax, DWORD PTR __Newsize$[ebp]
	or	eax, 15					; 0000000fH
	mov	DWORD PTR __Newres$[ebp], eax

; 2184 : 		if (max_size() < _Newres)

	mov	ecx, DWORD PTR _this$[ebp]
	call	?max_size@?$basic_string@DU?$char_traits@D@std@@V?$allocator@D@2@@std@@QBEIXZ ; std::basic_string<char,std::char_traits<char>,std::allocator<char> >::max_size
	cmp	eax, DWORD PTR __Newres$[ebp]
	jae	SHORT $LN9@Copy

; 2185 : 			_Newres = _Newsize;	// undo roundup if too big

	mov	ecx, DWORD PTR __Newsize$[ebp]
	mov	DWORD PTR __Newres$[ebp], ecx
	jmp	SHORT $LN8@Copy
$LN9@Copy:

; 2186 : 		else if (this->_Myres / 2 <= _Newres / 3)

	mov	eax, DWORD PTR __Newres$[ebp]
	xor	edx, edx
	mov	ecx, 3
	div	ecx
	mov	edx, DWORD PTR _this$[ebp]
	mov	ecx, DWORD PTR [edx+20]
	shr	ecx, 1
	cmp	ecx, eax
	ja	SHORT $LN7@Copy
	jmp	SHORT $LN8@Copy
$LN7@Copy:

; 2187 : 			;
; 2188 : 		else if (this->_Myres <= max_size() - this->_Myres / 2)

	mov	edx, DWORD PTR _this$[ebp]
	mov	esi, DWORD PTR [edx+20]
	shr	esi, 1
	mov	ecx, DWORD PTR _this$[ebp]
	call	?max_size@?$basic_string@DU?$char_traits@D@std@@V?$allocator@D@2@@std@@QBEIXZ ; std::basic_string<char,std::char_traits<char>,std::allocator<char> >::max_size
	sub	eax, esi
	mov	ecx, DWORD PTR _this$[ebp]
	cmp	DWORD PTR [ecx+20], eax
	ja	SHORT $LN5@Copy

; 2189 : 			_Newres = this->_Myres
; 2190 : 				+ this->_Myres / 2;	// grow exponentially if possible

	mov	edx, DWORD PTR _this$[ebp]
	mov	eax, DWORD PTR [edx+20]
	shr	eax, 1
	mov	ecx, DWORD PTR _this$[ebp]
	add	eax, DWORD PTR [ecx+20]
	mov	DWORD PTR __Newres$[ebp], eax

; 2191 : 		else

	jmp	SHORT $LN8@Copy
$LN5@Copy:

; 2192 : 			_Newres = max_size();	// settle for max_size()

	mov	ecx, DWORD PTR _this$[ebp]
	call	?max_size@?$basic_string@DU?$char_traits@D@std@@V?$allocator@D@2@@std@@QBEIXZ ; std::basic_string<char,std::char_traits<char>,std::allocator<char> >::max_size
	mov	DWORD PTR __Newres$[ebp], eax
$LN8@Copy:

; 2193 : 
; 2194 : 		_Elem *_Ptr;
; 2195 : 		_TRY_BEGIN

	mov	DWORD PTR __$EHRec$[ebp+12], 0

; 2196 : 			_Ptr = this->_Getal().allocate(_Newres + 1);

	lea	edx, DWORD PTR $T4[ebp]
	push	edx
	mov	ecx, DWORD PTR _this$[ebp]
	call	?_Getal@?$_String_alloc@$0A@U?$_String_base_types@DV?$allocator@D@std@@@std@@@std@@QBE?AU?$_Wrap_alloc@V?$allocator@D@std@@@2@XZ ; std::_String_alloc<0,std::_String_base_types<char,std::allocator<char> > >::_Getal
	mov	DWORD PTR tv202[ebp], eax
	mov	eax, DWORD PTR __Newres$[ebp]
	add	eax, 1
	push	eax
	mov	ecx, DWORD PTR tv202[ebp]
	call	?allocate@?$_Wrap_alloc@V?$allocator@D@std@@@std@@QAEPADI@Z ; std::_Wrap_alloc<std::allocator<char> >::allocate
	mov	DWORD PTR tv203[ebp], eax
	mov	ecx, DWORD PTR tv203[ebp]
	mov	DWORD PTR __Ptr$[ebp], ecx
	jmp	SHORT $LN12@Copy
__catch$?_Copy@?$basic_string@DU?$char_traits@D@std@@V?$allocator@D@2@@std@@QAEXII@Z$0:

; 2197 : 		_CATCH_ALL

	mov	DWORD PTR __$EHRec$[ebp], esp

; 2198 : 			_Newres = _Newsize;	// allocation failed, undo roundup and retry

	mov	edx, DWORD PTR __Newsize$[ebp]
	mov	DWORD PTR __Newres$[ebp], edx

; 2199 : 			_TRY_BEGIN

	mov	BYTE PTR __$EHRec$[ebp+12], 2

; 2200 : 				_Ptr = this->_Getal().allocate(_Newres + 1);

	lea	eax, DWORD PTR $T3[ebp]
	push	eax
	mov	ecx, DWORD PTR _this$[ebp]
	call	?_Getal@?$_String_alloc@$0A@U?$_String_base_types@DV?$allocator@D@std@@@std@@@std@@QBE?AU?$_Wrap_alloc@V?$allocator@D@std@@@2@XZ ; std::_String_alloc<0,std::_String_base_types<char,std::allocator<char> > >::_Getal
	mov	DWORD PTR tv204[ebp], eax
	mov	ecx, DWORD PTR __Newres$[ebp]
	add	ecx, 1
	push	ecx
	mov	ecx, DWORD PTR tv204[ebp]
	call	?allocate@?$_Wrap_alloc@V?$allocator@D@std@@@std@@QAEPADI@Z ; std::_Wrap_alloc<std::allocator<char> >::allocate
	mov	DWORD PTR tv205[ebp], eax
	mov	edx, DWORD PTR tv205[ebp]
	mov	DWORD PTR __Ptr$[ebp], edx
	jmp	SHORT $LN14@Copy
__catch$?_Copy@?$basic_string@DU?$char_traits@D@std@@V?$allocator@D@2@@std@@QAEXII@Z$1:

; 2201 : 			_CATCH_ALL
; 2202 : 			_Tidy(true);	// failed again, discard storage and reraise

	push	0
	push	1
	mov	ecx, DWORD PTR _this$[ebp]
	call	?_Tidy@?$basic_string@DU?$char_traits@D@std@@V?$allocator@D@2@@std@@QAEX_NI@Z ; std::basic_string<char,std::char_traits<char>,std::allocator<char> >::_Tidy

; 2203 : 			_RERAISE;

	push	0
	push	0
	call	__CxxThrowException@8

; 2204 : 			_CATCH_END

	mov	eax, $LN17@Copy
	ret	0
$LN14@Copy:
	mov	DWORD PTR __$EHRec$[ebp+12], 1
	jmp	SHORT __tryend$?_Copy@?$basic_string@DU?$char_traits@D@std@@V?$allocator@D@2@@std@@QAEXII@Z$2
$LN17@Copy:
	mov	DWORD PTR __$EHRec$[ebp+12], 1
__tryend$?_Copy@?$basic_string@DU?$char_traits@D@std@@V?$allocator@D@2@@std@@QAEXII@Z$2:

; 2205 : 		_CATCH_END

	mov	eax, $LN19@Copy
	ret	0
$LN12@Copy:
	mov	DWORD PTR __$EHRec$[ebp+12], -1
	jmp	SHORT __tryend$?_Copy@?$basic_string@DU?$char_traits@D@std@@V?$allocator@D@2@@std@@QAEXII@Z$3
$LN19@Copy:
	mov	DWORD PTR __$EHRec$[ebp+12], -1
__tryend$?_Copy@?$basic_string@DU?$char_traits@D@std@@V?$allocator@D@2@@std@@QAEXII@Z$3:

; 2206 : 
; 2207 : 		if (0 < _Oldlen)

	cmp	DWORD PTR __Oldlen$[ebp], 0
	jbe	SHORT $LN1@Copy

; 2208 : 			_Traits::copy(_Ptr, this->_Myptr(),
; 2209 : 				_Oldlen);	// copy existing elements

	mov	eax, DWORD PTR __Oldlen$[ebp]
	push	eax
	mov	ecx, DWORD PTR _this$[ebp]
	call	?_Myptr@?$_String_val@U?$_Simple_types@D@std@@@std@@QAEPADXZ ; std::_String_val<std::_Simple_types<char> >::_Myptr
	push	eax
	mov	ecx, DWORD PTR __Ptr$[ebp]
	push	ecx
	call	?copy@?$char_traits@D@std@@SAPADPADPBDI@Z ; std::char_traits<char>::copy
	add	esp, 12					; 0000000cH
$LN1@Copy:

; 2210 : 		_Tidy(true);

	push	0
	push	1
	mov	ecx, DWORD PTR _this$[ebp]
	call	?_Tidy@?$basic_string@DU?$char_traits@D@std@@V?$allocator@D@2@@std@@QAEX_NI@Z ; std::basic_string<char,std::char_traits<char>,std::allocator<char> >::_Tidy

; 2211 : 		this->_Getal().construct(&this->_Bx._Ptr, _Ptr);

	lea	edx, DWORD PTR __Ptr$[ebp]
	push	edx
	mov	eax, DWORD PTR _this$[ebp]
	push	eax
	lea	ecx, DWORD PTR $T2[ebp]
	push	ecx
	mov	ecx, DWORD PTR _this$[ebp]
	call	?_Getal@?$_String_alloc@$0A@U?$_String_base_types@DV?$allocator@D@std@@@std@@@std@@QBE?AU?$_Wrap_alloc@V?$allocator@D@std@@@2@XZ ; std::_String_alloc<0,std::_String_base_types<char,std::allocator<char> > >::_Getal
	mov	ecx, eax
	call	??$construct@PADAAPAD@?$_Wrap_alloc@V?$allocator@D@std@@@std@@QAEXPAPADAAPAD@Z ; std::_Wrap_alloc<std::allocator<char> >::construct<char *,char * &>

; 2212 : 		this->_Myres = _Newres;

	mov	edx, DWORD PTR _this$[ebp]
	mov	eax, DWORD PTR __Newres$[ebp]
	mov	DWORD PTR [edx+20], eax

; 2213 : 		_Eos(_Oldlen);

	mov	ecx, DWORD PTR __Oldlen$[ebp]
	push	ecx
	mov	ecx, DWORD PTR _this$[ebp]
	call	?_Eos@?$basic_string@DU?$char_traits@D@std@@V?$allocator@D@2@@std@@QAEXI@Z ; std::basic_string<char,std::char_traits<char>,std::allocator<char> >::_Eos
$LN11@Copy:

; 2214 : 		}

	mov	ecx, DWORD PTR __$EHRec$[ebp+4]
	mov	DWORD PTR fs:0, ecx
	pop	ecx
	pop	edi
	pop	esi
	pop	ebx
	mov	esp, ebp
	pop	ebp
	ret	8
_TEXT	ENDS
;	COMDAT text$x
text$x	SEGMENT
__ehhandler$?_Copy@?$basic_string@DU?$char_traits@D@std@@V?$allocator@D@2@@std@@QAEXII@Z:
	mov	edx, DWORD PTR [esp+8]
	lea	eax, DWORD PTR [edx+12]
	mov	ecx, DWORD PTR [edx-52]
	xor	ecx, eax
	call	@__security_check_cookie@4
	mov	eax, OFFSET __ehfuncinfo$?_Copy@?$basic_string@DU?$char_traits@D@std@@V?$allocator@D@2@@std@@QAEXII@Z
	jmp	___CxxFrameHandler3
text$x	ENDS
?_Copy@?$basic_string@DU?$char_traits@D@std@@V?$allocator@D@2@@std@@QAEXII@Z ENDP ; std::basic_string<char,std::char_traits<char>,std::allocator<char> >::_Copy
; Function compile flags: /Odtp
; File c:\program files (x86)\microsoft visual studio 11.0\vc\include\xstring
;	COMDAT ?max_size@?$basic_string@DU?$char_traits@D@std@@V?$allocator@D@2@@std@@QBEIXZ
_TEXT	SEGMENT
_this$ = -16						; size = 4
tv75 = -12						; size = 4
__Num$ = -8						; size = 4
$T1 = -1						; size = 1
?max_size@?$basic_string@DU?$char_traits@D@std@@V?$allocator@D@2@@std@@QBEIXZ PROC ; std::basic_string<char,std::char_traits<char>,std::allocator<char> >::max_size, COMDAT
; _this$ = ecx

; 1737 : 		{	// return maximum possible length of sequence

	push	ebp
	mov	ebp, esp
	sub	esp, 16					; 00000010H
	mov	DWORD PTR _this$[ebp], ecx

; 1738 : 		size_type _Num = this->_Getal().max_size();

	lea	eax, DWORD PTR $T1[ebp]
	push	eax
	mov	ecx, DWORD PTR _this$[ebp]
	call	?_Getal@?$_String_alloc@$0A@U?$_String_base_types@DV?$allocator@D@std@@@std@@@std@@QBE?AU?$_Wrap_alloc@V?$allocator@D@std@@@2@XZ ; std::_String_alloc<0,std::_String_base_types<char,std::allocator<char> > >::_Getal
	mov	ecx, eax
	call	?max_size@?$_Wrap_alloc@V?$allocator@D@std@@@std@@QBEIXZ ; std::_Wrap_alloc<std::allocator<char> >::max_size
	mov	DWORD PTR __Num$[ebp], eax

; 1739 : 		return (_Num <= 1 ? 1 : _Num - 1);

	cmp	DWORD PTR __Num$[ebp], 1
	ja	SHORT $LN3@max_size
	mov	DWORD PTR tv75[ebp], 1
	jmp	SHORT $LN4@max_size
$LN3@max_size:
	mov	ecx, DWORD PTR __Num$[ebp]
	sub	ecx, 1
	mov	DWORD PTR tv75[ebp], ecx
$LN4@max_size:
	mov	eax, DWORD PTR tv75[ebp]

; 1740 : 		}

	mov	esp, ebp
	pop	ebp
	ret	0
?max_size@?$basic_string@DU?$char_traits@D@std@@V?$allocator@D@2@@std@@QBEIXZ ENDP ; std::basic_string<char,std::char_traits<char>,std::allocator<char> >::max_size
_TEXT	ENDS
; Function compile flags: /Odtp
; File c:\program files (x86)\microsoft visual studio 11.0\vc\include\xstring
;	COMDAT ?size@?$basic_string@DU?$char_traits@D@std@@V?$allocator@D@2@@std@@QBEIXZ
_TEXT	SEGMENT
_this$ = -4						; size = 4
?size@?$basic_string@DU?$char_traits@D@std@@V?$allocator@D@2@@std@@QBEIXZ PROC ; std::basic_string<char,std::char_traits<char>,std::allocator<char> >::size, COMDAT
; _this$ = ecx

; 1732 : 		{	// return length of sequence

	push	ebp
	mov	ebp, esp
	push	ecx
	mov	DWORD PTR _this$[ebp], ecx

; 1733 : 		return (this->_Mysize);

	mov	eax, DWORD PTR _this$[ebp]
	mov	eax, DWORD PTR [eax+16]

; 1734 : 		}

	mov	esp, ebp
	pop	ebp
	ret	0
?size@?$basic_string@DU?$char_traits@D@std@@V?$allocator@D@2@@std@@QBEIXZ ENDP ; std::basic_string<char,std::char_traits<char>,std::allocator<char> >::size
_TEXT	ENDS
; Function compile flags: /Odtp
; File c:\program files (x86)\microsoft visual studio 11.0\vc\include\xstring
;	COMDAT ?erase@?$basic_string@DU?$char_traits@D@std@@V?$allocator@D@2@@std@@QAEAAV12@II@Z
_TEXT	SEGMENT
__Newsize$1 = -12					; size = 4
__Ptr$2 = -8						; size = 4
_this$ = -4						; size = 4
__Off$ = 8						; size = 4
__Count$ = 12						; size = 4
?erase@?$basic_string@DU?$char_traits@D@std@@V?$allocator@D@2@@std@@QAEAAV12@II@Z PROC ; std::basic_string<char,std::char_traits<char>,std::allocator<char> >::erase, COMDAT
; _this$ = ecx

; 1317 : 		{	// erase elements [_Off, _Off + _Count)

	push	ebp
	mov	ebp, esp
	sub	esp, 12					; 0000000cH
	mov	DWORD PTR _this$[ebp], ecx

; 1318 : 		if (this->_Mysize < _Off)

	mov	eax, DWORD PTR _this$[ebp]
	mov	ecx, DWORD PTR [eax+16]
	cmp	ecx, DWORD PTR __Off$[ebp]
	jae	SHORT $LN4@erase

; 1319 : 			_Xran();	// _Off off end

	mov	ecx, DWORD PTR _this$[ebp]
	call	?_Xran@?$basic_string@DU?$char_traits@D@std@@V?$allocator@D@2@@std@@QBEXXZ ; std::basic_string<char,std::char_traits<char>,std::allocator<char> >::_Xran
$LN4@erase:

; 1320 : 		if (this->_Mysize - _Off <= _Count)

	mov	edx, DWORD PTR _this$[ebp]
	mov	eax, DWORD PTR [edx+16]
	sub	eax, DWORD PTR __Off$[ebp]
	cmp	eax, DWORD PTR __Count$[ebp]
	ja	SHORT $LN3@erase

; 1321 : 			_Eos(_Off);	// erase elements [_Off, ...)

	mov	ecx, DWORD PTR __Off$[ebp]
	push	ecx
	mov	ecx, DWORD PTR _this$[ebp]
	call	?_Eos@?$basic_string@DU?$char_traits@D@std@@V?$allocator@D@2@@std@@QAEXI@Z ; std::basic_string<char,std::char_traits<char>,std::allocator<char> >::_Eos
	jmp	SHORT $LN2@erase
$LN3@erase:

; 1322 : 		else if (0 < _Count)

	cmp	DWORD PTR __Count$[ebp], 0
	jbe	SHORT $LN2@erase

; 1323 : 			{	// move elements down
; 1324 : 			value_type *_Ptr = this->_Myptr() + _Off;

	mov	ecx, DWORD PTR _this$[ebp]
	call	?_Myptr@?$_String_val@U?$_Simple_types@D@std@@@std@@QAEPADXZ ; std::_String_val<std::_Simple_types<char> >::_Myptr
	add	eax, DWORD PTR __Off$[ebp]
	mov	DWORD PTR __Ptr$2[ebp], eax

; 1325 : 			size_type _Newsize = this->_Mysize - _Count;

	mov	edx, DWORD PTR _this$[ebp]
	mov	eax, DWORD PTR [edx+16]
	sub	eax, DWORD PTR __Count$[ebp]
	mov	DWORD PTR __Newsize$1[ebp], eax

; 1326 : 			_Traits::move(_Ptr, _Ptr + _Count, _Newsize - _Off);

	mov	ecx, DWORD PTR __Newsize$1[ebp]
	sub	ecx, DWORD PTR __Off$[ebp]
	push	ecx
	mov	edx, DWORD PTR __Ptr$2[ebp]
	add	edx, DWORD PTR __Count$[ebp]
	push	edx
	mov	eax, DWORD PTR __Ptr$2[ebp]
	push	eax
	call	?move@?$char_traits@D@std@@SAPADPADPBDI@Z ; std::char_traits<char>::move
	add	esp, 12					; 0000000cH

; 1327 : 			_Eos(_Newsize);

	mov	ecx, DWORD PTR __Newsize$1[ebp]
	push	ecx
	mov	ecx, DWORD PTR _this$[ebp]
	call	?_Eos@?$basic_string@DU?$char_traits@D@std@@V?$allocator@D@2@@std@@QAEXI@Z ; std::basic_string<char,std::char_traits<char>,std::allocator<char> >::_Eos
$LN2@erase:

; 1328 : 			}
; 1329 : 		return (*this);

	mov	eax, DWORD PTR _this$[ebp]
$LN6@erase:

; 1330 : 		}

	mov	esp, ebp
	pop	ebp
	ret	8
?erase@?$basic_string@DU?$char_traits@D@std@@V?$allocator@D@2@@std@@QAEAAV12@II@Z ENDP ; std::basic_string<char,std::char_traits<char>,std::allocator<char> >::erase
_TEXT	ENDS
; Function compile flags: /Odtp
; File c:\program files (x86)\microsoft visual studio 11.0\vc\include\xstring
;	COMDAT ?erase@?$basic_string@DU?$char_traits@D@std@@V?$allocator@D@2@@std@@QAEAAV12@I@Z
_TEXT	SEGMENT
_this$ = -4						; size = 4
__Off$ = 8						; size = 4
?erase@?$basic_string@DU?$char_traits@D@std@@V?$allocator@D@2@@std@@QAEAAV12@I@Z PROC ; std::basic_string<char,std::char_traits<char>,std::allocator<char> >::erase, COMDAT
; _this$ = ecx

; 1309 : 		{	// erase elements [_Off, ...)

	push	ebp
	mov	ebp, esp
	push	ecx
	mov	DWORD PTR _this$[ebp], ecx

; 1310 : 		if (this->_Mysize < _Off)

	mov	eax, DWORD PTR _this$[ebp]
	mov	ecx, DWORD PTR [eax+16]
	cmp	ecx, DWORD PTR __Off$[ebp]
	jae	SHORT $LN1@erase

; 1311 : 			_Xran();	// _Off off end

	mov	ecx, DWORD PTR _this$[ebp]
	call	?_Xran@?$basic_string@DU?$char_traits@D@std@@V?$allocator@D@2@@std@@QBEXXZ ; std::basic_string<char,std::char_traits<char>,std::allocator<char> >::_Xran
$LN1@erase:

; 1312 : 		_Eos(_Off);

	mov	edx, DWORD PTR __Off$[ebp]
	push	edx
	mov	ecx, DWORD PTR _this$[ebp]
	call	?_Eos@?$basic_string@DU?$char_traits@D@std@@V?$allocator@D@2@@std@@QAEXI@Z ; std::basic_string<char,std::char_traits<char>,std::allocator<char> >::_Eos

; 1313 : 		return (*this);

	mov	eax, DWORD PTR _this$[ebp]
$LN3@erase:

; 1314 : 		}

	mov	esp, ebp
	pop	ebp
	ret	4
?erase@?$basic_string@DU?$char_traits@D@std@@V?$allocator@D@2@@std@@QAEAAV12@I@Z ENDP ; std::basic_string<char,std::char_traits<char>,std::allocator<char> >::erase
_TEXT	ENDS
; Function compile flags: /Odtp
; File c:\program files (x86)\microsoft visual studio 11.0\vc\include\xstring
;	COMDAT ?assign@?$basic_string@DU?$char_traits@D@std@@V?$allocator@D@2@@std@@QAEAAV12@PBD@Z
_TEXT	SEGMENT
_this$ = -4						; size = 4
__Ptr$ = 8						; size = 4
?assign@?$basic_string@DU?$char_traits@D@std@@V?$allocator@D@2@@std@@QAEAAV12@PBD@Z PROC ; std::basic_string<char,std::char_traits<char>,std::allocator<char> >::assign, COMDAT
; _this$ = ecx

; 1142 : 		{	// assign [_Ptr, <null>)

	push	ebp
	mov	ebp, esp
	push	ecx
	mov	DWORD PTR _this$[ebp], ecx

; 1143 : 		_DEBUG_POINTER(_Ptr);
; 1144 : 		return (assign(_Ptr, _Traits::length(_Ptr)));

	mov	eax, DWORD PTR __Ptr$[ebp]
	push	eax
	call	?length@?$char_traits@D@std@@SAIPBD@Z	; std::char_traits<char>::length
	add	esp, 4
	push	eax
	mov	ecx, DWORD PTR __Ptr$[ebp]
	push	ecx
	mov	ecx, DWORD PTR _this$[ebp]
	call	?assign@?$basic_string@DU?$char_traits@D@std@@V?$allocator@D@2@@std@@QAEAAV12@PBDI@Z ; std::basic_string<char,std::char_traits<char>,std::allocator<char> >::assign

; 1145 : 		}

	mov	esp, ebp
	pop	ebp
	ret	4
?assign@?$basic_string@DU?$char_traits@D@std@@V?$allocator@D@2@@std@@QAEAAV12@PBD@Z ENDP ; std::basic_string<char,std::char_traits<char>,std::allocator<char> >::assign
_TEXT	ENDS
; Function compile flags: /Odtp
; File c:\program files (x86)\microsoft visual studio 11.0\vc\include\xstring
;	COMDAT ?assign@?$basic_string@DU?$char_traits@D@std@@V?$allocator@D@2@@std@@QAEAAV12@PBDI@Z
_TEXT	SEGMENT
_this$ = -4						; size = 4
__Ptr$ = 8						; size = 4
__Count$ = 12						; size = 4
?assign@?$basic_string@DU?$char_traits@D@std@@V?$allocator@D@2@@std@@QAEAAV12@PBDI@Z PROC ; std::basic_string<char,std::char_traits<char>,std::allocator<char> >::assign, COMDAT
; _this$ = ecx

; 1123 : 		{	// assign [_Ptr, _Ptr + _Count)

	push	ebp
	mov	ebp, esp
	push	ecx
	mov	DWORD PTR _this$[ebp], ecx

; 1124 :  #if _ITERATOR_DEBUG_LEVEL == 2
; 1125 : 		if (_Count != 0)
; 1126 : 			_DEBUG_POINTER(_Ptr);
; 1127 :  #endif /* _ITERATOR_DEBUG_LEVEL == 2 */
; 1128 : 
; 1129 : 		if (_Inside(_Ptr))

	mov	eax, DWORD PTR __Ptr$[ebp]
	push	eax
	mov	ecx, DWORD PTR _this$[ebp]
	call	?_Inside@?$basic_string@DU?$char_traits@D@std@@V?$allocator@D@2@@std@@QAE_NPBD@Z ; std::basic_string<char,std::char_traits<char>,std::allocator<char> >::_Inside
	movzx	ecx, al
	test	ecx, ecx
	je	SHORT $LN2@assign

; 1130 : 			return (assign(*this,
; 1131 : 				_Ptr - this->_Myptr(), _Count));	// substring

	mov	edx, DWORD PTR __Count$[ebp]
	push	edx
	mov	ecx, DWORD PTR _this$[ebp]
	call	?_Myptr@?$_String_val@U?$_Simple_types@D@std@@@std@@QAEPADXZ ; std::_String_val<std::_Simple_types<char> >::_Myptr
	mov	ecx, DWORD PTR __Ptr$[ebp]
	sub	ecx, eax
	push	ecx
	mov	edx, DWORD PTR _this$[ebp]
	push	edx
	mov	ecx, DWORD PTR _this$[ebp]
	call	?assign@?$basic_string@DU?$char_traits@D@std@@V?$allocator@D@2@@std@@QAEAAV12@ABV12@II@Z ; std::basic_string<char,std::char_traits<char>,std::allocator<char> >::assign
	jmp	SHORT $LN3@assign
$LN2@assign:

; 1132 : 
; 1133 : 		if (_Grow(_Count))

	push	0
	mov	eax, DWORD PTR __Count$[ebp]
	push	eax
	mov	ecx, DWORD PTR _this$[ebp]
	call	?_Grow@?$basic_string@DU?$char_traits@D@std@@V?$allocator@D@2@@std@@QAE_NI_N@Z ; std::basic_string<char,std::char_traits<char>,std::allocator<char> >::_Grow
	movzx	ecx, al
	test	ecx, ecx
	je	SHORT $LN1@assign

; 1134 : 			{	// make room and assign new stuff
; 1135 : 			_Traits::copy(this->_Myptr(), _Ptr, _Count);

	mov	edx, DWORD PTR __Count$[ebp]
	push	edx
	mov	eax, DWORD PTR __Ptr$[ebp]
	push	eax
	mov	ecx, DWORD PTR _this$[ebp]
	call	?_Myptr@?$_String_val@U?$_Simple_types@D@std@@@std@@QAEPADXZ ; std::_String_val<std::_Simple_types<char> >::_Myptr
	push	eax
	call	?copy@?$char_traits@D@std@@SAPADPADPBDI@Z ; std::char_traits<char>::copy
	add	esp, 12					; 0000000cH

; 1136 : 			_Eos(_Count);

	mov	ecx, DWORD PTR __Count$[ebp]
	push	ecx
	mov	ecx, DWORD PTR _this$[ebp]
	call	?_Eos@?$basic_string@DU?$char_traits@D@std@@V?$allocator@D@2@@std@@QAEXI@Z ; std::basic_string<char,std::char_traits<char>,std::allocator<char> >::_Eos
$LN1@assign:

; 1137 : 			}
; 1138 : 		return (*this);

	mov	eax, DWORD PTR _this$[ebp]
$LN3@assign:

; 1139 : 		}

	mov	esp, ebp
	pop	ebp
	ret	8
?assign@?$basic_string@DU?$char_traits@D@std@@V?$allocator@D@2@@std@@QAEAAV12@PBDI@Z ENDP ; std::basic_string<char,std::char_traits<char>,std::allocator<char> >::assign
_TEXT	ENDS
; Function compile flags: /Odtp
; File c:\program files (x86)\microsoft visual studio 11.0\vc\include\xstring
;	COMDAT ?assign@?$basic_string@DU?$char_traits@D@std@@V?$allocator@D@2@@std@@QAEAAV12@ABV12@II@Z
_TEXT	SEGMENT
__Num$ = -8						; size = 4
_this$ = -4						; size = 4
__Right$ = 8						; size = 4
__Roff$ = 12						; size = 4
__Count$ = 16						; size = 4
?assign@?$basic_string@DU?$char_traits@D@std@@V?$allocator@D@2@@std@@QAEAAV12@ABV12@II@Z PROC ; std::basic_string<char,std::char_traits<char>,std::allocator<char> >::assign, COMDAT
; _this$ = ecx

; 1104 : 		{	// assign _Right [_Roff, _Roff + _Count)

	push	ebp
	mov	ebp, esp
	sub	esp, 8
	mov	DWORD PTR _this$[ebp], ecx

; 1105 : 		if (_Right.size() < _Roff)

	mov	ecx, DWORD PTR __Right$[ebp]
	call	?size@?$basic_string@DU?$char_traits@D@std@@V?$allocator@D@2@@std@@QBEIXZ ; std::basic_string<char,std::char_traits<char>,std::allocator<char> >::size
	cmp	eax, DWORD PTR __Roff$[ebp]
	jae	SHORT $LN5@assign

; 1106 : 			_Xran();	// _Roff off end

	mov	ecx, DWORD PTR _this$[ebp]
	call	?_Xran@?$basic_string@DU?$char_traits@D@std@@V?$allocator@D@2@@std@@QBEXXZ ; std::basic_string<char,std::char_traits<char>,std::allocator<char> >::_Xran
$LN5@assign:

; 1107 : 		size_type _Num = _Right.size() - _Roff;

	mov	ecx, DWORD PTR __Right$[ebp]
	call	?size@?$basic_string@DU?$char_traits@D@std@@V?$allocator@D@2@@std@@QBEIXZ ; std::basic_string<char,std::char_traits<char>,std::allocator<char> >::size
	sub	eax, DWORD PTR __Roff$[ebp]
	mov	DWORD PTR __Num$[ebp], eax

; 1108 : 		if (_Count < _Num)

	mov	eax, DWORD PTR __Count$[ebp]
	cmp	eax, DWORD PTR __Num$[ebp]
	jae	SHORT $LN4@assign

; 1109 : 			_Num = _Count;	// trim _Num to size

	mov	ecx, DWORD PTR __Count$[ebp]
	mov	DWORD PTR __Num$[ebp], ecx
$LN4@assign:

; 1110 : 
; 1111 : 		if (this == &_Right)

	mov	edx, DWORD PTR _this$[ebp]
	cmp	edx, DWORD PTR __Right$[ebp]
	jne	SHORT $LN3@assign

; 1112 : 			erase((size_type)(_Roff + _Num)), erase(0, _Roff);	// substring

	mov	eax, DWORD PTR __Roff$[ebp]
	add	eax, DWORD PTR __Num$[ebp]
	push	eax
	mov	ecx, DWORD PTR _this$[ebp]
	call	?erase@?$basic_string@DU?$char_traits@D@std@@V?$allocator@D@2@@std@@QAEAAV12@I@Z ; std::basic_string<char,std::char_traits<char>,std::allocator<char> >::erase
	mov	ecx, DWORD PTR __Roff$[ebp]
	push	ecx
	push	0
	mov	ecx, DWORD PTR _this$[ebp]
	call	?erase@?$basic_string@DU?$char_traits@D@std@@V?$allocator@D@2@@std@@QAEAAV12@II@Z ; std::basic_string<char,std::char_traits<char>,std::allocator<char> >::erase
	jmp	SHORT $LN2@assign
$LN3@assign:

; 1113 : 		else if (_Grow(_Num))

	push	0
	mov	edx, DWORD PTR __Num$[ebp]
	push	edx
	mov	ecx, DWORD PTR _this$[ebp]
	call	?_Grow@?$basic_string@DU?$char_traits@D@std@@V?$allocator@D@2@@std@@QAE_NI_N@Z ; std::basic_string<char,std::char_traits<char>,std::allocator<char> >::_Grow
	movzx	eax, al
	test	eax, eax
	je	SHORT $LN2@assign

; 1114 : 			{	// make room and assign new stuff
; 1115 : 			_Traits::copy(this->_Myptr(),
; 1116 : 				_Right._Myptr() + _Roff, _Num);

	mov	ecx, DWORD PTR __Num$[ebp]
	push	ecx
	mov	ecx, DWORD PTR __Right$[ebp]
	call	?_Myptr@?$_String_val@U?$_Simple_types@D@std@@@std@@QBEPBDXZ ; std::_String_val<std::_Simple_types<char> >::_Myptr
	add	eax, DWORD PTR __Roff$[ebp]
	push	eax
	mov	ecx, DWORD PTR _this$[ebp]
	call	?_Myptr@?$_String_val@U?$_Simple_types@D@std@@@std@@QAEPADXZ ; std::_String_val<std::_Simple_types<char> >::_Myptr
	push	eax
	call	?copy@?$char_traits@D@std@@SAPADPADPBDI@Z ; std::char_traits<char>::copy
	add	esp, 12					; 0000000cH

; 1117 : 			_Eos(_Num);

	mov	edx, DWORD PTR __Num$[ebp]
	push	edx
	mov	ecx, DWORD PTR _this$[ebp]
	call	?_Eos@?$basic_string@DU?$char_traits@D@std@@V?$allocator@D@2@@std@@QAEXI@Z ; std::basic_string<char,std::char_traits<char>,std::allocator<char> >::_Eos
$LN2@assign:

; 1118 : 			}
; 1119 : 		return (*this);

	mov	eax, DWORD PTR _this$[ebp]
$LN7@assign:

; 1120 : 		}

	mov	esp, ebp
	pop	ebp
	ret	12					; 0000000cH
?assign@?$basic_string@DU?$char_traits@D@std@@V?$allocator@D@2@@std@@QAEAAV12@ABV12@II@Z ENDP ; std::basic_string<char,std::char_traits<char>,std::allocator<char> >::assign
_TEXT	ENDS
; Function compile flags: /Odtp
; File c:\program files (x86)\microsoft visual studio 11.0\vc\include\xstring
;	COMDAT ??0?$basic_string@DU?$char_traits@D@std@@V?$allocator@D@2@@std@@QAE@PBD@Z
_TEXT	SEGMENT
_this$ = -8						; size = 4
$T1 = -1						; size = 1
__Ptr$ = 8						; size = 4
??0?$basic_string@DU?$char_traits@D@std@@V?$allocator@D@2@@std@@QAE@PBD@Z PROC ; std::basic_string<char,std::char_traits<char>,std::allocator<char> >::basic_string<char,std::char_traits<char>,std::allocator<char> >, COMDAT
; _this$ = ecx

; 791  : 		{	// construct from [_Ptr, <null>)

	push	ebp
	mov	ebp, esp
	sub	esp, 8
	mov	DWORD PTR _this$[ebp], ecx
	lea	ecx, DWORD PTR $T1[ebp]
	call	??0?$allocator@D@std@@QAE@XZ		; std::allocator<char>::allocator<char>
	push	eax
	mov	ecx, DWORD PTR _this$[ebp]
	call	??0?$_String_alloc@$0A@U?$_String_base_types@DV?$allocator@D@std@@@std@@@std@@QAE@ABV?$allocator@D@1@@Z ; std::_String_alloc<0,std::_String_base_types<char,std::allocator<char> > >::_String_alloc<0,std::_String_base_types<char,std::allocator<char> > >

; 792  : 		_Tidy();

	push	0
	push	0
	mov	ecx, DWORD PTR _this$[ebp]
	call	?_Tidy@?$basic_string@DU?$char_traits@D@std@@V?$allocator@D@2@@std@@QAEX_NI@Z ; std::basic_string<char,std::char_traits<char>,std::allocator<char> >::_Tidy

; 793  : 		assign(_Ptr);

	mov	eax, DWORD PTR __Ptr$[ebp]
	push	eax
	mov	ecx, DWORD PTR _this$[ebp]
	call	?assign@?$basic_string@DU?$char_traits@D@std@@V?$allocator@D@2@@std@@QAEAAV12@PBD@Z ; std::basic_string<char,std::char_traits<char>,std::allocator<char> >::assign

; 794  : 		}

	mov	eax, DWORD PTR _this$[ebp]
	mov	esp, ebp
	pop	ebp
	ret	4
??0?$basic_string@DU?$char_traits@D@std@@V?$allocator@D@2@@std@@QAE@PBD@Z ENDP ; std::basic_string<char,std::char_traits<char>,std::allocator<char> >::basic_string<char,std::char_traits<char>,std::allocator<char> >
_TEXT	ENDS
; Function compile flags: /Odtp
; File c:\program files (x86)\microsoft visual studio 11.0\vc\include\xstring
;	COMDAT ?_Getal@?$_String_alloc@$0A@U?$_String_base_types@DV?$allocator@D@std@@@std@@@std@@QBE?AU?$_Wrap_alloc@V?$allocator@D@std@@@2@XZ
_TEXT	SEGMENT
_this$ = -4						; size = 4
___$ReturnUdt$ = 8					; size = 4
?_Getal@?$_String_alloc@$0A@U?$_String_base_types@DV?$allocator@D@std@@@std@@@std@@QBE?AU?$_Wrap_alloc@V?$allocator@D@std@@@2@XZ PROC ; std::_String_alloc<0,std::_String_base_types<char,std::allocator<char> > >::_Getal, COMDAT
; _this$ = ecx

; 688  : 		{	// get reference to allocator

	push	ebp
	mov	ebp, esp
	push	ecx
	mov	DWORD PTR _this$[ebp], ecx

; 689  : 		return (_Alty());

	mov	ecx, DWORD PTR ___$ReturnUdt$[ebp]
	call	??0?$_Wrap_alloc@V?$allocator@D@std@@@std@@QAE@XZ ; std::_Wrap_alloc<std::allocator<char> >::_Wrap_alloc<std::allocator<char> >
	mov	eax, DWORD PTR ___$ReturnUdt$[ebp]

; 690  : 		}

	mov	esp, ebp
	pop	ebp
	ret	4
?_Getal@?$_String_alloc@$0A@U?$_String_base_types@DV?$allocator@D@std@@@std@@@std@@QBE?AU?$_Wrap_alloc@V?$allocator@D@std@@@2@XZ ENDP ; std::_String_alloc<0,std::_String_base_types<char,std::allocator<char> > >::_Getal
_TEXT	ENDS
; Function compile flags: /Odtp
; File c:\program files (x86)\microsoft visual studio 11.0\vc\include\xstring
;	COMDAT ??0?$_String_alloc@$0A@U?$_String_base_types@DV?$allocator@D@std@@@std@@@std@@QAE@ABV?$allocator@D@1@@Z
_TEXT	SEGMENT
_this$ = -4						; size = 4
___formal$ = 8						; size = 4
??0?$_String_alloc@$0A@U?$_String_base_types@DV?$allocator@D@std@@@std@@@std@@QAE@ABV?$allocator@D@1@@Z PROC ; std::_String_alloc<0,std::_String_base_types<char,std::allocator<char> > >::_String_alloc<0,std::_String_base_types<char,std::allocator<char> > >, COMDAT
; _this$ = ecx

; 635  : 	_String_alloc(const _Alloc& = _Alloc())

	push	ebp
	mov	ebp, esp
	push	ecx
	mov	DWORD PTR _this$[ebp], ecx
	mov	ecx, DWORD PTR _this$[ebp]
	call	??0?$_String_val@U?$_Simple_types@D@std@@@std@@QAE@XZ ; std::_String_val<std::_Simple_types<char> >::_String_val<std::_Simple_types<char> >

; 636  : 		{	// construct allocator from _Al
; 637  : 		}

	mov	eax, DWORD PTR _this$[ebp]
	mov	esp, ebp
	pop	ebp
	ret	4
??0?$_String_alloc@$0A@U?$_String_base_types@DV?$allocator@D@std@@@std@@@std@@QAE@ABV?$allocator@D@1@@Z ENDP ; std::_String_alloc<0,std::_String_base_types<char,std::allocator<char> > >::_String_alloc<0,std::_String_base_types<char,std::allocator<char> > >
_TEXT	ENDS
; Function compile flags: /Odtp
; File c:\program files (x86)\microsoft visual studio 11.0\vc\include\xstring
;	COMDAT ?_Myptr@?$_String_val@U?$_Simple_types@D@std@@@std@@QBEPBDXZ
_TEXT	SEGMENT
tv72 = -8						; size = 4
_this$ = -4						; size = 4
?_Myptr@?$_String_val@U?$_Simple_types@D@std@@@std@@QBEPBDXZ PROC ; std::_String_val<std::_Simple_types<char> >::_Myptr, COMDAT
; _this$ = ecx

; 521  : 		{	// determine current pointer to buffer for nonmutable string

	push	ebp
	mov	ebp, esp
	sub	esp, 8
	mov	DWORD PTR _this$[ebp], ecx

; 522  : 		return (this->_BUF_SIZE <= this->_Myres
; 523  : 			? _STD addressof(*this->_Bx._Ptr)
; 524  : 			: this->_Bx._Buf);

	mov	eax, DWORD PTR _this$[ebp]
	cmp	DWORD PTR [eax+20], 16			; 00000010H
	jb	SHORT $LN3@Myptr
	mov	ecx, DWORD PTR _this$[ebp]
	mov	edx, DWORD PTR [ecx]
	push	edx
	call	??$addressof@D@std@@YAPADAAD@Z		; std::addressof<char>
	add	esp, 4
	mov	DWORD PTR tv72[ebp], eax
	jmp	SHORT $LN4@Myptr
$LN3@Myptr:
	mov	eax, DWORD PTR _this$[ebp]
	mov	DWORD PTR tv72[ebp], eax
$LN4@Myptr:
	mov	eax, DWORD PTR tv72[ebp]

; 525  : 		}

	mov	esp, ebp
	pop	ebp
	ret	0
?_Myptr@?$_String_val@U?$_Simple_types@D@std@@@std@@QBEPBDXZ ENDP ; std::_String_val<std::_Simple_types<char> >::_Myptr
_TEXT	ENDS
; Function compile flags: /Odtp
; File c:\program files (x86)\microsoft visual studio 11.0\vc\include\xstring
;	COMDAT ?_Myptr@?$_String_val@U?$_Simple_types@D@std@@@std@@QAEPADXZ
_TEXT	SEGMENT
tv72 = -8						; size = 4
_this$ = -4						; size = 4
?_Myptr@?$_String_val@U?$_Simple_types@D@std@@@std@@QAEPADXZ PROC ; std::_String_val<std::_Simple_types<char> >::_Myptr, COMDAT
; _this$ = ecx

; 514  : 		{	// determine current pointer to buffer for mutable string

	push	ebp
	mov	ebp, esp
	sub	esp, 8
	mov	DWORD PTR _this$[ebp], ecx

; 515  : 		return (this->_BUF_SIZE <= this->_Myres
; 516  : 			? _STD addressof(*this->_Bx._Ptr)
; 517  : 			: this->_Bx._Buf);

	mov	eax, DWORD PTR _this$[ebp]
	cmp	DWORD PTR [eax+20], 16			; 00000010H
	jb	SHORT $LN3@Myptr
	mov	ecx, DWORD PTR _this$[ebp]
	mov	edx, DWORD PTR [ecx]
	push	edx
	call	??$addressof@D@std@@YAPADAAD@Z		; std::addressof<char>
	add	esp, 4
	mov	DWORD PTR tv72[ebp], eax
	jmp	SHORT $LN4@Myptr
$LN3@Myptr:
	mov	eax, DWORD PTR _this$[ebp]
	mov	DWORD PTR tv72[ebp], eax
$LN4@Myptr:
	mov	eax, DWORD PTR tv72[ebp]

; 518  : 		}

	mov	esp, ebp
	pop	ebp
	ret	0
?_Myptr@?$_String_val@U?$_Simple_types@D@std@@@std@@QAEPADXZ ENDP ; std::_String_val<std::_Simple_types<char> >::_Myptr
_TEXT	ENDS
; Function compile flags: /Odtp
; File c:\program files (x86)\microsoft visual studio 11.0\vc\include\xstring
;	COMDAT ??0?$_String_val@U?$_Simple_types@D@std@@@std@@QAE@XZ
_TEXT	SEGMENT
_this$ = -4						; size = 4
??0?$_String_val@U?$_Simple_types@D@std@@@std@@QAE@XZ PROC ; std::_String_val<std::_Simple_types<char> >::_String_val<std::_Simple_types<char> >, COMDAT
; _this$ = ecx

; 496  : 	_String_val()

	push	ebp
	mov	ebp, esp
	push	ecx
	mov	DWORD PTR _this$[ebp], ecx

; 497  : 		{	// initialize values
; 498  : 		_Mysize = 0;

	mov	eax, DWORD PTR _this$[ebp]
	mov	DWORD PTR [eax+16], 0

; 499  : 		_Myres = 0;

	mov	ecx, DWORD PTR _this$[ebp]
	mov	DWORD PTR [ecx+20], 0

; 500  : 		}

	mov	eax, DWORD PTR _this$[ebp]
	mov	esp, ebp
	pop	ebp
	ret	0
??0?$_String_val@U?$_Simple_types@D@std@@@std@@QAE@XZ ENDP ; std::_String_val<std::_Simple_types<char> >::_String_val<std::_Simple_types<char> >
_TEXT	ENDS
; Function compile flags: /Odtp
; File c:\program files (x86)\microsoft visual studio 11.0\vc\include\xmemory0
;	COMDAT ?max_size@?$_Wrap_alloc@V?$allocator@D@std@@@std@@QBEIXZ
_TEXT	SEGMENT
_this$ = -4						; size = 4
?max_size@?$_Wrap_alloc@V?$allocator@D@std@@@std@@QBEIXZ PROC ; std::_Wrap_alloc<std::allocator<char> >::max_size, COMDAT
; _this$ = ecx

; 913  : 		{	// get maximum size

	push	ebp
	mov	ebp, esp
	push	ecx
	mov	DWORD PTR _this$[ebp], ecx

; 914  : 		return (_Mytraits::max_size(*this));

	mov	eax, DWORD PTR _this$[ebp]
	push	eax
	call	?max_size@?$allocator_traits@V?$allocator@D@std@@@std@@SAIABV?$allocator@D@2@@Z ; std::allocator_traits<std::allocator<char> >::max_size
	add	esp, 4

; 915  : 		}

	mov	esp, ebp
	pop	ebp
	ret	0
?max_size@?$_Wrap_alloc@V?$allocator@D@std@@@std@@QBEIXZ ENDP ; std::_Wrap_alloc<std::allocator<char> >::max_size
_TEXT	ENDS
; Function compile flags: /Odtp
; File c:\program files (x86)\microsoft visual studio 11.0\vc\include\xmemory0
;	COMDAT ?deallocate@?$_Wrap_alloc@V?$allocator@D@std@@@std@@QAEXPADI@Z
_TEXT	SEGMENT
_this$ = -4						; size = 4
__Ptr$ = 8						; size = 4
__Count$ = 12						; size = 4
?deallocate@?$_Wrap_alloc@V?$allocator@D@std@@@std@@QAEXPADI@Z PROC ; std::_Wrap_alloc<std::allocator<char> >::deallocate, COMDAT
; _this$ = ecx

; 886  : 		{	// deallocate object at _Ptr, ignore size

	push	ebp
	mov	ebp, esp
	push	ecx
	mov	DWORD PTR _this$[ebp], ecx

; 887  : 		_Mybase::deallocate(_Ptr, _Count);

	mov	eax, DWORD PTR __Count$[ebp]
	push	eax
	mov	ecx, DWORD PTR __Ptr$[ebp]
	push	ecx
	mov	ecx, DWORD PTR _this$[ebp]
	call	?deallocate@?$allocator@D@std@@QAEXPADI@Z ; std::allocator<char>::deallocate

; 888  : 		}

	mov	esp, ebp
	pop	ebp
	ret	8
?deallocate@?$_Wrap_alloc@V?$allocator@D@std@@@std@@QAEXPADI@Z ENDP ; std::_Wrap_alloc<std::allocator<char> >::deallocate
_TEXT	ENDS
; Function compile flags: /Odtp
; File c:\program files (x86)\microsoft visual studio 11.0\vc\include\xmemory0
;	COMDAT ?allocate@?$_Wrap_alloc@V?$allocator@D@std@@@std@@QAEPADI@Z
_TEXT	SEGMENT
_this$ = -4						; size = 4
__Count$ = 8						; size = 4
?allocate@?$_Wrap_alloc@V?$allocator@D@std@@@std@@QAEPADI@Z PROC ; std::_Wrap_alloc<std::allocator<char> >::allocate, COMDAT
; _this$ = ecx

; 875  : 		{	// allocate array of _Count elements

	push	ebp
	mov	ebp, esp
	push	ecx
	mov	DWORD PTR _this$[ebp], ecx

; 876  : 		return (_Mybase::allocate(_Count));

	mov	eax, DWORD PTR __Count$[ebp]
	push	eax
	mov	ecx, DWORD PTR _this$[ebp]
	call	?allocate@?$allocator@D@std@@QAEPADI@Z	; std::allocator<char>::allocate

; 877  : 		}

	mov	esp, ebp
	pop	ebp
	ret	4
?allocate@?$_Wrap_alloc@V?$allocator@D@std@@@std@@QAEPADI@Z ENDP ; std::_Wrap_alloc<std::allocator<char> >::allocate
_TEXT	ENDS
; Function compile flags: /Odtp
; File c:\program files (x86)\microsoft visual studio 11.0\vc\include\xmemory0
;	COMDAT ??0?$_Wrap_alloc@V?$allocator@D@std@@@std@@QAE@XZ
_TEXT	SEGMENT
_this$ = -4						; size = 4
??0?$_Wrap_alloc@V?$allocator@D@std@@@std@@QAE@XZ PROC	; std::_Wrap_alloc<std::allocator<char> >::_Wrap_alloc<std::allocator<char> >, COMDAT
; _this$ = ecx

; 830  : 		{	// construct default allocator (do nothing)

	push	ebp
	mov	ebp, esp
	push	ecx
	mov	DWORD PTR _this$[ebp], ecx
	mov	ecx, DWORD PTR _this$[ebp]
	call	??0?$allocator@D@std@@QAE@XZ		; std::allocator<char>::allocator<char>

; 831  : 		}

	mov	eax, DWORD PTR _this$[ebp]
	mov	esp, ebp
	pop	ebp
	ret	0
??0?$_Wrap_alloc@V?$allocator@D@std@@@std@@QAE@XZ ENDP	; std::_Wrap_alloc<std::allocator<char> >::_Wrap_alloc<std::allocator<char> >
_TEXT	ENDS
; Function compile flags: /Odtp
; File c:\program files (x86)\microsoft visual studio 11.0\vc\include\xmemory0
;	COMDAT ?max_size@?$allocator_traits@V?$allocator@D@std@@@std@@SAIABV?$allocator@D@2@@Z
_TEXT	SEGMENT
__Al$ = 8						; size = 4
?max_size@?$allocator_traits@V?$allocator@D@std@@@std@@SAIABV?$allocator@D@2@@Z PROC ; std::allocator_traits<std::allocator<char> >::max_size, COMDAT

; 761  : 		{	// get maximum size

	push	ebp
	mov	ebp, esp

; 762  : 		return (_Al.max_size());

	mov	ecx, DWORD PTR __Al$[ebp]
	call	?max_size@?$allocator@D@std@@QBEIXZ	; std::allocator<char>::max_size

; 763  : 		}

	pop	ebp
	ret	0
?max_size@?$allocator_traits@V?$allocator@D@std@@@std@@SAIABV?$allocator@D@2@@Z ENDP ; std::allocator_traits<std::allocator<char> >::max_size
_TEXT	ENDS
; Function compile flags: /Odtp
; File c:\program files (x86)\microsoft visual studio 11.0\vc\include\xmemory0
;	COMDAT ?max_size@?$allocator@D@std@@QBEIXZ
_TEXT	SEGMENT
_this$ = -4						; size = 4
?max_size@?$allocator@D@std@@QBEIXZ PROC		; std::allocator<char>::max_size, COMDAT
; _this$ = ecx

; 627  : 		{	// estimate maximum array size

	push	ebp
	mov	ebp, esp
	push	ecx
	mov	DWORD PTR _this$[ebp], ecx

; 628  : 		return ((size_t)(-1) / sizeof (_Ty));

	or	eax, -1

; 629  : 		}

	mov	esp, ebp
	pop	ebp
	ret	0
?max_size@?$allocator@D@std@@QBEIXZ ENDP		; std::allocator<char>::max_size
_TEXT	ENDS
; Function compile flags: /Odtp
; File c:\program files (x86)\microsoft visual studio 11.0\vc\include\xmemory0
;	COMDAT ?allocate@?$allocator@D@std@@QAEPADI@Z
_TEXT	SEGMENT
_this$ = -4						; size = 4
__Count$ = 8						; size = 4
?allocate@?$allocator@D@std@@QAEPADI@Z PROC		; std::allocator<char>::allocate, COMDAT
; _this$ = ecx

; 590  : 		{	// allocate array of _Count elements

	push	ebp
	mov	ebp, esp
	push	ecx
	mov	DWORD PTR _this$[ebp], ecx

; 591  : 		return (_Allocate(_Count, (pointer)0));

	push	0
	mov	eax, DWORD PTR __Count$[ebp]
	push	eax
	call	??$_Allocate@D@std@@YAPADIPAD@Z		; std::_Allocate<char>
	add	esp, 8

; 592  : 		}

	mov	esp, ebp
	pop	ebp
	ret	4
?allocate@?$allocator@D@std@@QAEPADI@Z ENDP		; std::allocator<char>::allocate
_TEXT	ENDS
; Function compile flags: /Odtp
; File c:\program files (x86)\microsoft visual studio 11.0\vc\include\xmemory0
;	COMDAT ?deallocate@?$allocator@D@std@@QAEXPADI@Z
_TEXT	SEGMENT
_this$ = -4						; size = 4
__Ptr$ = 8						; size = 4
___formal$ = 12						; size = 4
?deallocate@?$allocator@D@std@@QAEXPADI@Z PROC		; std::allocator<char>::deallocate, COMDAT
; _this$ = ecx

; 585  : 		{	// deallocate object at _Ptr, ignore size

	push	ebp
	mov	ebp, esp
	push	ecx
	mov	DWORD PTR _this$[ebp], ecx

; 586  : 		::operator delete(_Ptr);

	mov	eax, DWORD PTR __Ptr$[ebp]
	push	eax
	call	??3@YAXPAX@Z				; operator delete
	add	esp, 4

; 587  : 		}

	mov	esp, ebp
	pop	ebp
	ret	8
?deallocate@?$allocator@D@std@@QAEXPADI@Z ENDP		; std::allocator<char>::deallocate
_TEXT	ENDS
; Function compile flags: /Odtp
; File c:\program files (x86)\microsoft visual studio 11.0\vc\include\xmemory0
;	COMDAT ??0?$allocator@D@std@@QAE@XZ
_TEXT	SEGMENT
_this$ = -4						; size = 4
??0?$allocator@D@std@@QAE@XZ PROC			; std::allocator<char>::allocator<char>, COMDAT
; _this$ = ecx

; 565  : 	allocator() _THROW0()

	push	ebp
	mov	ebp, esp
	push	ecx
	mov	DWORD PTR _this$[ebp], ecx

; 566  : 		{	// construct default allocator (do nothing)
; 567  : 		}

	mov	eax, DWORD PTR _this$[ebp]
	mov	esp, ebp
	pop	ebp
	ret	0
??0?$allocator@D@std@@QAE@XZ ENDP			; std::allocator<char>::allocator<char>
_TEXT	ENDS
; Function compile flags: /Odtp
; File c:\program files (x86)\microsoft visual studio 11.0\vc\include\xutility
;	COMDAT ??__Eallocator_arg@std@@YAXXZ
text$yc	SEGMENT
$T1 = -1						; size = 1
??__Eallocator_arg@std@@YAXXZ PROC			; std::`dynamic initializer for 'allocator_arg'', COMDAT

; 3644 : const allocator_arg_t allocator_arg = allocator_arg_t();

	push	ebp
	mov	ebp, esp
	push	ecx
	xor	eax, eax
	mov	BYTE PTR $T1[ebp], al
	mov	esp, ebp
	pop	ebp
	ret	0
??__Eallocator_arg@std@@YAXXZ ENDP			; std::`dynamic initializer for 'allocator_arg''
text$yc	ENDS
; Function compile flags: /Odtp
; File c:\program files (x86)\microsoft visual studio 11.0\vc\include\utility
;	COMDAT ??__Epiecewise_construct@std@@YAXXZ
text$yc	SEGMENT
$T1 = -1						; size = 1
??__Epiecewise_construct@std@@YAXXZ PROC		; std::`dynamic initializer for 'piecewise_construct'', COMDAT

; 65   : 	piecewise_construct_t();

	push	ebp
	mov	ebp, esp
	push	ecx
	xor	eax, eax
	mov	BYTE PTR $T1[ebp], al
	mov	esp, ebp
	pop	ebp
	ret	0
??__Epiecewise_construct@std@@YAXXZ ENDP		; std::`dynamic initializer for 'piecewise_construct''
text$yc	ENDS
; Function compile flags: /Odtp
; File c:\program files (x86)\microsoft visual studio 11.0\vc\include\iosfwd
;	COMDAT ?assign@?$char_traits@D@std@@SAXAADABD@Z
_TEXT	SEGMENT
__Left$ = 8						; size = 4
__Right$ = 12						; size = 4
?assign@?$char_traits@D@std@@SAXAADABD@Z PROC		; std::char_traits<char>::assign, COMDAT

; 563  : 		{	// assign an element

	push	ebp
	mov	ebp, esp

; 564  : 		_Left = _Right;

	mov	eax, DWORD PTR __Left$[ebp]
	mov	ecx, DWORD PTR __Right$[ebp]
	mov	dl, BYTE PTR [ecx]
	mov	BYTE PTR [eax], dl

; 565  : 		}

	pop	ebp
	ret	0
?assign@?$char_traits@D@std@@SAXAADABD@Z ENDP		; std::char_traits<char>::assign
_TEXT	ENDS
; Function compile flags: /Odtp
; File c:\program files (x86)\microsoft visual studio 11.0\vc\include\iosfwd
;	COMDAT ?move@?$char_traits@D@std@@SAPADPADPBDI@Z
_TEXT	SEGMENT
tv69 = -4						; size = 4
__First1$ = 8						; size = 4
__First2$ = 12						; size = 4
__Count$ = 16						; size = 4
?move@?$char_traits@D@std@@SAPADPADPBDI@Z PROC		; std::char_traits<char>::move, COMDAT

; 551  : 		{	// copy [_First2, _First2 + _Count) to [_First1, ...)

	push	ebp
	mov	ebp, esp
	push	ecx

; 552  : 		return (_Count == 0 ? _First1
; 553  : 			: (_Elem *)_CSTD memmove(_First1, _First2, _Count));

	cmp	DWORD PTR __Count$[ebp], 0
	jne	SHORT $LN3@move
	mov	eax, DWORD PTR __First1$[ebp]
	mov	DWORD PTR tv69[ebp], eax
	jmp	SHORT $LN4@move
$LN3@move:
	mov	ecx, DWORD PTR __Count$[ebp]
	push	ecx
	mov	edx, DWORD PTR __First2$[ebp]
	push	edx
	mov	eax, DWORD PTR __First1$[ebp]
	push	eax
	call	_memmove
	add	esp, 12					; 0000000cH
	mov	DWORD PTR tv69[ebp], eax
$LN4@move:
	mov	eax, DWORD PTR tv69[ebp]

; 554  : 		}

	mov	esp, ebp
	pop	ebp
	ret	0
?move@?$char_traits@D@std@@SAPADPADPBDI@Z ENDP		; std::char_traits<char>::move
_TEXT	ENDS
; Function compile flags: /Odtp
; File c:\program files (x86)\microsoft visual studio 11.0\vc\include\iosfwd
;	COMDAT ?copy@?$char_traits@D@std@@SAPADPADPBDI@Z
_TEXT	SEGMENT
tv69 = -4						; size = 4
__First1$ = 8						; size = 4
__First2$ = 12						; size = 4
__Count$ = 16						; size = 4
?copy@?$char_traits@D@std@@SAPADPADPBDI@Z PROC		; std::char_traits<char>::copy, COMDAT

; 528  : 		{	// copy [_First2, _First2 + _Count) to [_First1, ...)

	push	ebp
	mov	ebp, esp
	push	ecx

; 529  : 		return (_Count == 0 ? _First1
; 530  : 			: (_Elem *)_CSTD memcpy(_First1, _First2, _Count));

	cmp	DWORD PTR __Count$[ebp], 0
	jne	SHORT $LN3@copy
	mov	eax, DWORD PTR __First1$[ebp]
	mov	DWORD PTR tv69[ebp], eax
	jmp	SHORT $LN4@copy
$LN3@copy:
	mov	ecx, DWORD PTR __Count$[ebp]
	push	ecx
	mov	edx, DWORD PTR __First2$[ebp]
	push	edx
	mov	eax, DWORD PTR __First1$[ebp]
	push	eax
	call	_memcpy
	add	esp, 12					; 0000000cH
	mov	DWORD PTR tv69[ebp], eax
$LN4@copy:
	mov	eax, DWORD PTR tv69[ebp]

; 531  : 		}

	mov	esp, ebp
	pop	ebp
	ret	0
?copy@?$char_traits@D@std@@SAPADPADPBDI@Z ENDP		; std::char_traits<char>::copy
_TEXT	ENDS
; Function compile flags: /Odtp
; File c:\program files (x86)\microsoft visual studio 11.0\vc\include\iosfwd
;	COMDAT ?length@?$char_traits@D@std@@SAIPBD@Z
_TEXT	SEGMENT
tv68 = -4						; size = 4
__First$ = 8						; size = 4
?length@?$char_traits@D@std@@SAIPBD@Z PROC		; std::char_traits<char>::length, COMDAT

; 521  : 		{	// find length of null-terminated string

	push	ebp
	mov	ebp, esp
	push	ecx

; 522  : 		return (*_First == 0 ? 0
; 523  : 			: _CSTD strlen(_First));

	mov	eax, DWORD PTR __First$[ebp]
	movsx	ecx, BYTE PTR [eax]
	test	ecx, ecx
	jne	SHORT $LN3@length
	mov	DWORD PTR tv68[ebp], 0
	jmp	SHORT $LN4@length
$LN3@length:
	mov	edx, DWORD PTR __First$[ebp]
	push	edx
	call	_strlen
	add	esp, 4
	mov	DWORD PTR tv68[ebp], eax
$LN4@length:
	mov	eax, DWORD PTR tv68[ebp]

; 524  : 		}

	mov	esp, ebp
	pop	ebp
	ret	0
?length@?$char_traits@D@std@@SAIPBD@Z ENDP		; std::char_traits<char>::length
_TEXT	ENDS
; Function compile flags: /Odtp
; File c:\program files (x86)\microsoft visual studio 11.0\vc\include\new
;	COMDAT ??3@YAXPAX0@Z
_TEXT	SEGMENT
___formal$ = 8						; size = 4
___formal$ = 12						; size = 4
??3@YAXPAX0@Z PROC					; operator delete, COMDAT

; 64   : 	{	// delete if placement new fails

	push	ebp
	mov	ebp, esp

; 65   : 	}

	pop	ebp
	ret	0
??3@YAXPAX0@Z ENDP					; operator delete
_TEXT	ENDS
; Function compile flags: /Odtp
; File c:\program files (x86)\microsoft visual studio 11.0\vc\include\new
;	COMDAT ??2@YAPAXIPAX@Z
_TEXT	SEGMENT
___formal$ = 8						; size = 4
__Where$ = 12						; size = 4
??2@YAPAXIPAX@Z PROC					; operator new, COMDAT

; 59   : 	{	// construct array with placement at _Where

	push	ebp
	mov	ebp, esp

; 60   : 	return (_Where);

	mov	eax, DWORD PTR __Where$[ebp]

; 61   : 	}

	pop	ebp
	ret	0
??2@YAPAXIPAX@Z ENDP					; operator new
_TEXT	ENDS
; Function compile flags: /Odtp
; File c:\users\zhitao li\documents\visual studio 2012\projects\freefalcon\graphics\include\drawobj.h
;	COMDAT ?Z@DrawableObject@@QBEMXZ
_TEXT	SEGMENT
_this$ = -4						; size = 4
?Z@DrawableObject@@QBEMXZ PROC				; DrawableObject::Z, COMDAT
; _this$ = ecx

; 31   : 	float Z() const { return position.z; }

	push	ebp
	mov	ebp, esp
	push	ecx
	mov	DWORD PTR _this$[ebp], ecx
	mov	eax, DWORD PTR _this$[ebp]
	fld	DWORD PTR [eax+12]
	mov	esp, ebp
	pop	ebp
	ret	0
?Z@DrawableObject@@QBEMXZ ENDP				; DrawableObject::Z
_TEXT	ENDS
; Function compile flags: /Odtp
; File c:\users\zhitao li\documents\visual studio 2012\projects\freefalcon\graphics\include\drawobj.h
;	COMDAT ?Y@DrawableObject@@QBEMXZ
_TEXT	SEGMENT
_this$ = -4						; size = 4
?Y@DrawableObject@@QBEMXZ PROC				; DrawableObject::Y, COMDAT
; _this$ = ecx

; 30   : 	float Y() const	{ return position.y; }

	push	ebp
	mov	ebp, esp
	push	ecx
	mov	DWORD PTR _this$[ebp], ecx
	mov	eax, DWORD PTR _this$[ebp]
	fld	DWORD PTR [eax+8]
	mov	esp, ebp
	pop	ebp
	ret	0
?Y@DrawableObject@@QBEMXZ ENDP				; DrawableObject::Y
_TEXT	ENDS
; Function compile flags: /Odtp
; File c:\users\zhitao li\documents\visual studio 2012\projects\freefalcon\graphics\include\drawobj.h
;	COMDAT ?X@DrawableObject@@QBEMXZ
_TEXT	SEGMENT
_this$ = -4						; size = 4
?X@DrawableObject@@QBEMXZ PROC				; DrawableObject::X, COMDAT
; _this$ = ecx

; 29   : 	float X() const	{ return position.x; }

	push	ebp
	mov	ebp, esp
	push	ecx
	mov	DWORD PTR _this$[ebp], ecx
	mov	eax, DWORD PTR _this$[ebp]
	fld	DWORD PTR [eax+4]
	mov	esp, ebp
	pop	ebp
	ret	0
?X@DrawableObject@@QBEMXZ ENDP				; DrawableObject::X
_TEXT	ENDS
; Function compile flags: /Odtp
; File c:\users\zhitao li\documents\visual studio 2012\projects\freefalcon\graphics\include\drawobj.h
;	COMDAT ?GetPosition@DrawableObject@@QAEXPAUTpoint@@@Z
_TEXT	SEGMENT
_this$ = -4						; size = 4
_pos$ = 8						; size = 4
?GetPosition@DrawableObject@@QAEXPAUTpoint@@@Z PROC	; DrawableObject::GetPosition, COMDAT
; _this$ = ecx

; 28   : 	void GetPosition(Tpoint* pos){ *pos = position; }

	push	ebp
	mov	ebp, esp
	push	ecx
	mov	DWORD PTR _this$[ebp], ecx
	mov	eax, DWORD PTR _this$[ebp]
	add	eax, 4
	mov	ecx, DWORD PTR _pos$[ebp]
	mov	edx, DWORD PTR [eax]
	mov	DWORD PTR [ecx], edx
	mov	edx, DWORD PTR [eax+4]
	mov	DWORD PTR [ecx+4], edx
	mov	eax, DWORD PTR [eax+8]
	mov	DWORD PTR [ecx+8], eax
	mov	esp, ebp
	pop	ebp
	ret	4
?GetPosition@DrawableObject@@QAEXPAUTpoint@@@Z ENDP	; DrawableObject::GetPosition
_TEXT	ENDS
; Function compile flags: /Odtp
; File c:\users\zhitao li\documents\visual studio 2012\projects\freefalcon\graphics\include\drawobj.h
;	COMDAT ?Radius@DrawableObject@@QBEMXZ
_TEXT	SEGMENT
_this$ = -4						; size = 4
?Radius@DrawableObject@@QBEMXZ PROC			; DrawableObject::Radius, COMDAT
; _this$ = ecx

; 27   : 	float Radius() const { return radius; }

	push	ebp
	mov	ebp, esp
	push	ecx
	mov	DWORD PTR _this$[ebp], ecx
	mov	eax, DWORD PTR _this$[ebp]
	fld	DWORD PTR [eax+16]
	mov	esp, ebp
	pop	ebp
	ret	0
?Radius@DrawableObject@@QBEMXZ ENDP			; DrawableObject::Radius
_TEXT	ENDS
; Function compile flags: /Odtp
; File c:\users\zhitao li\documents\visual studio 2012\projects\freefalcon\mathlib\math.h
_TEXT	SEGMENT
_x$ = 8							; size = 4
?SqrtSSE@@YAMM@Z PROC					; SqrtSSE

; 91   : static inline float SqrtSSE(float x){ 

	push	ebp
	mov	ebp, esp

; 92   :     __asm 
; 93   :     { 
; 94   :         sqrtss xmm0,x 

	sqrtss	xmm0, DWORD PTR _x$[ebp]

; 95   :         movss x,xmm0 

	movss	XMMWORD PTR _x$[ebp], xmm0

; 96   :     } 
; 97   : 
; 98   :     return x; 

	fld	DWORD PTR _x$[ebp]

; 99   : } 

	pop	ebp
	ret	0
?SqrtSSE@@YAMM@Z ENDP					; SqrtSSE
_TEXT	ENDS
; Function compile flags: /Odtp
; File c:\program files (x86)\microsoft visual studio 11.0\vc\include\math.h
;	COMDAT ?sin@@YAMM@Z
_TEXT	SEGMENT
__X$ = 8						; size = 4
?sin@@YAMM@Z PROC					; sin, COMDAT

; 537  :         {return (sinf(_X)); }

	push	ebp
	mov	ebp, esp
	push	ecx
	movss	xmm0, DWORD PTR __X$[ebp]
	movss	DWORD PTR [esp], xmm0
	call	_sinf
	add	esp, 4
	pop	ebp
	ret	0
?sin@@YAMM@Z ENDP					; sin
_TEXT	ENDS
; Function compile flags: /Odtp
; File c:\program files (x86)\microsoft visual studio 11.0\vc\include\math.h
;	COMDAT ?fabs@@YAMM@Z
_TEXT	SEGMENT
__X$ = 8						; size = 4
?fabs@@YAMM@Z PROC					; fabs, COMDAT

; 517  :         {return (fabsf(_X)); }

	push	ebp
	mov	ebp, esp
	push	ecx
	movss	xmm0, DWORD PTR __X$[ebp]
	movss	DWORD PTR [esp], xmm0
	call	_fabsf
	add	esp, 4
	pop	ebp
	ret	0
?fabs@@YAMM@Z ENDP					; fabs
_TEXT	ENDS
; Function compile flags: /Odtp
; File c:\program files (x86)\microsoft visual studio 11.0\vc\include\math.h
;	COMDAT ?cos@@YAMM@Z
_TEXT	SEGMENT
__X$ = 8						; size = 4
?cos@@YAMM@Z PROC					; cos, COMDAT

; 511  :         {return (cosf(_X)); }

	push	ebp
	mov	ebp, esp
	push	ecx
	movss	xmm0, DWORD PTR __X$[ebp]
	movss	DWORD PTR [esp], xmm0
	call	_cosf
	add	esp, 4
	pop	ebp
	ret	0
?cos@@YAMM@Z ENDP					; cos
_TEXT	ENDS
; Function compile flags: /Odtp
; File c:\program files (x86)\microsoft visual studio 11.0\vc\include\math.h
;	COMDAT ?asin@@YAMM@Z
_TEXT	SEGMENT
__X$ = 8						; size = 4
?asin@@YAMM@Z PROC					; asin, COMDAT

; 503  :         {return (asinf(_X)); }

	push	ebp
	mov	ebp, esp
	push	ecx
	movss	xmm0, DWORD PTR __X$[ebp]
	movss	DWORD PTR [esp], xmm0
	call	_asinf
	add	esp, 4
	pop	ebp
	ret	0
?asin@@YAMM@Z ENDP					; asin
_TEXT	ENDS
; Function compile flags: /Odtp
; File c:\program files (x86)\microsoft visual studio 11.0\vc\include\math.h
;	COMDAT _sinf
_TEXT	SEGMENT
tv74 = -12						; size = 8
tv76 = -4						; size = 4
__X$ = 8						; size = 4
_sinf	PROC						; COMDAT

; 430  :         {return ((float)sin((double)_X)); }

	push	ebp
	mov	ebp, esp
	sub	esp, 12					; 0000000cH
	cvtss2sd xmm0, DWORD PTR __X$[ebp]
	sub	esp, 8
	movsd	QWORD PTR [esp], xmm0
	call	_sin
	add	esp, 8
	fstp	QWORD PTR tv74[ebp]
	movsd	xmm0, QWORD PTR tv74[ebp]
	cvtsd2ss xmm0, xmm0
	movss	DWORD PTR tv76[ebp], xmm0
	fld	DWORD PTR tv76[ebp]
	mov	esp, ebp
	pop	ebp
	ret	0
_sinf	ENDP
_TEXT	ENDS
; Function compile flags: /Odtp
; File c:\program files (x86)\microsoft visual studio 11.0\vc\include\math.h
;	COMDAT _cosf
_TEXT	SEGMENT
tv74 = -12						; size = 8
tv76 = -4						; size = 4
__X$ = 8						; size = 4
_cosf	PROC						; COMDAT

; 410  :         {return ((float)cos((double)_X)); }

	push	ebp
	mov	ebp, esp
	sub	esp, 12					; 0000000cH
	cvtss2sd xmm0, DWORD PTR __X$[ebp]
	sub	esp, 8
	movsd	QWORD PTR [esp], xmm0
	call	_cos
	add	esp, 8
	fstp	QWORD PTR tv74[ebp]
	movsd	xmm0, QWORD PTR tv74[ebp]
	cvtsd2ss xmm0, xmm0
	movss	DWORD PTR tv76[ebp], xmm0
	fld	DWORD PTR tv76[ebp]
	mov	esp, ebp
	pop	ebp
	ret	0
_cosf	ENDP
_TEXT	ENDS
; Function compile flags: /Odtp
; File c:\program files (x86)\microsoft visual studio 11.0\vc\include\math.h
;	COMDAT _asinf
_TEXT	SEGMENT
tv74 = -12						; size = 8
tv76 = -4						; size = 4
__X$ = 8						; size = 4
_asinf	PROC						; COMDAT

; 402  :         {return ((float)asin((double)_X)); }

	push	ebp
	mov	ebp, esp
	sub	esp, 12					; 0000000cH
	cvtss2sd xmm0, DWORD PTR __X$[ebp]
	sub	esp, 8
	movsd	QWORD PTR [esp], xmm0
	call	_asin
	add	esp, 8
	fstp	QWORD PTR tv74[ebp]
	movsd	xmm0, QWORD PTR tv74[ebp]
	cvtsd2ss xmm0, xmm0
	movss	DWORD PTR tv76[ebp], xmm0
	fld	DWORD PTR tv76[ebp]
	mov	esp, ebp
	pop	ebp
	ret	0
_asinf	ENDP
_TEXT	ENDS
; Function compile flags: /Odtp
; File c:\program files (x86)\microsoft visual studio 11.0\vc\include\math.h
;	COMDAT _fabsf
_TEXT	SEGMENT
tv74 = -12						; size = 8
tv76 = -4						; size = 4
__X$ = 8						; size = 4
_fabsf	PROC						; COMDAT

; 392  :         {return ((float)fabs((double)_X)); }

	push	ebp
	mov	ebp, esp
	sub	esp, 12					; 0000000cH
	cvtss2sd xmm0, DWORD PTR __X$[ebp]
	sub	esp, 8
	movsd	QWORD PTR [esp], xmm0
	call	_fabs
	add	esp, 8
	fstp	QWORD PTR tv74[ebp]
	movsd	xmm0, QWORD PTR tv74[ebp]
	cvtsd2ss xmm0, xmm0
	movss	DWORD PTR tv76[ebp], xmm0
	fld	DWORD PTR tv76[ebp]
	mov	esp, ebp
	pop	ebp
	ret	0
_fabsf	ENDP
_TEXT	ENDS
END
