; Listing generated by Microsoft (R) Optimizing Compiler Version 17.00.51106.1 

	TITLE	C:\Users\Zhitao Li\Documents\Visual Studio 2012\Projects\Freefalcon\SIM\OTWDRIVE\Otwdrive.cpp
	.686P
	.XMM
	include listing.inc
	.model	flat

INCLUDELIB LIBCMT
INCLUDELIB OLDNAMES

PUBLIC	?value@?$_Sizeof@U_Nil@std@@U12@U12@U12@U12@U12@U12@U12@@std@@2IB ; std::_Sizeof<std::_Nil,std::_Nil,std::_Nil,std::_Nil,std::_Nil,std::_Nil,std::_Nil,std::_Nil>::value
PUBLIC	?SIMDIRTYDATA_INTERVAL@FalconEntity@@2KB	; FalconEntity::SIMDIRTYDATA_INTERVAL
PUBLIC	?CMPDIRTYDATA_INTERVAL@FalconEntity@@2KB	; FalconEntity::CMPDIRTYDATA_INTERVAL
PUBLIC	?has_denorm@_Num_base@std@@2W4float_denorm_style@2@B ; std::_Num_base::has_denorm
PUBLIC	?has_denorm_loss@_Num_base@std@@2_NB		; std::_Num_base::has_denorm_loss
PUBLIC	?has_infinity@_Num_base@std@@2_NB		; std::_Num_base::has_infinity
PUBLIC	?has_quiet_NaN@_Num_base@std@@2_NB		; std::_Num_base::has_quiet_NaN
PUBLIC	?has_signaling_NaN@_Num_base@std@@2_NB		; std::_Num_base::has_signaling_NaN
PUBLIC	?is_bounded@_Num_base@std@@2_NB			; std::_Num_base::is_bounded
PUBLIC	?is_exact@_Num_base@std@@2_NB			; std::_Num_base::is_exact
PUBLIC	?is_iec559@_Num_base@std@@2_NB			; std::_Num_base::is_iec559
PUBLIC	?is_integer@_Num_base@std@@2_NB			; std::_Num_base::is_integer
PUBLIC	?is_modulo@_Num_base@std@@2_NB			; std::_Num_base::is_modulo
PUBLIC	?is_signed@_Num_base@std@@2_NB			; std::_Num_base::is_signed
PUBLIC	?is_specialized@_Num_base@std@@2_NB		; std::_Num_base::is_specialized
PUBLIC	?tinyness_before@_Num_base@std@@2_NB		; std::_Num_base::tinyness_before
PUBLIC	?traps@_Num_base@std@@2_NB			; std::_Num_base::traps
PUBLIC	?round_style@_Num_base@std@@2W4float_round_style@2@B ; std::_Num_base::round_style
PUBLIC	?digits@_Num_base@std@@2HB			; std::_Num_base::digits
PUBLIC	?digits10@_Num_base@std@@2HB			; std::_Num_base::digits10
PUBLIC	?max_digits10@_Num_base@std@@2HB		; std::_Num_base::max_digits10
PUBLIC	?max_exponent@_Num_base@std@@2HB		; std::_Num_base::max_exponent
PUBLIC	?max_exponent10@_Num_base@std@@2HB		; std::_Num_base::max_exponent10
PUBLIC	?min_exponent@_Num_base@std@@2HB		; std::_Num_base::min_exponent
PUBLIC	?min_exponent10@_Num_base@std@@2HB		; std::_Num_base::min_exponent10
PUBLIC	?radix@_Num_base@std@@2HB			; std::_Num_base::radix
PUBLIC	?is_bounded@_Num_int_base@std@@2_NB		; std::_Num_int_base::is_bounded
PUBLIC	?is_exact@_Num_int_base@std@@2_NB		; std::_Num_int_base::is_exact
PUBLIC	?is_integer@_Num_int_base@std@@2_NB		; std::_Num_int_base::is_integer
PUBLIC	?is_modulo@_Num_int_base@std@@2_NB		; std::_Num_int_base::is_modulo
PUBLIC	?gOtwCameraLocation@@3PAVFalconEntity@@A	; gOtwCameraLocation
PUBLIC	?endAbort@@3HA					; endAbort
PUBLIC	?nextCampObjectHeightRefresh@@3KA		; nextCampObjectHeightRefresh
PUBLIC	?is_specialized@_Num_int_base@std@@2_NB		; std::_Num_int_base::is_specialized
PUBLIC	?p3DpitHilite@@3KA				; p3DpitHilite
PUBLIC	?radix@_Num_int_base@std@@2HB			; std::_Num_int_base::radix
PUBLIC	?p3DpitLolite@@3KA				; p3DpitLolite
PUBLIC	?MfdSize@@3HA					; MfdSize
PUBLIC	?has_denorm@_Num_float_base@std@@2W4float_denorm_style@2@B ; std::_Num_float_base::has_denorm
PUBLIC	?endDialogObject@@3PAVDrawableBSP@@A		; endDialogObject
PUBLIC	?has_denorm_loss@_Num_float_base@std@@2_NB	; std::_Num_float_base::has_denorm_loss
PUBLIC	?gSharedMemHandle@@3PAXA			; gSharedMemHandle
PUBLIC	?gSharedMemPtr@@3PAXA				; gSharedMemPtr
PUBLIC	?gIntellivibeShared@@3PAXA			; gIntellivibeShared
PUBLIC	?has_infinity@_Num_float_base@std@@2_NB		; std::_Num_float_base::has_infinity
PUBLIC	?gSharedIntellivibe@@3PAXA			; gSharedIntellivibe
PUBLIC	?has_quiet_NaN@_Num_float_base@std@@2_NB	; std::_Num_float_base::has_quiet_NaN
PUBLIC	?has_signaling_NaN@_Num_float_base@std@@2_NB	; std::_Num_float_base::has_signaling_NaN
PUBLIC	?is_bounded@_Num_float_base@std@@2_NB		; std::_Num_float_base::is_bounded
PUBLIC	?is_exact@_Num_float_base@std@@2_NB		; std::_Num_float_base::is_exact
PUBLIC	?is_iec559@_Num_float_base@std@@2_NB		; std::_Num_float_base::is_iec559
PUBLIC	?is_integer@_Num_float_base@std@@2_NB		; std::_Num_float_base::is_integer
PUBLIC	?is_modulo@_Num_float_base@std@@2_NB		; std::_Num_float_base::is_modulo
PUBLIC	?is_signed@_Num_float_base@std@@2_NB		; std::_Num_float_base::is_signed
PUBLIC	?is_specialized@_Num_float_base@std@@2_NB	; std::_Num_float_base::is_specialized
PUBLIC	?tinyness_before@_Num_float_base@std@@2_NB	; std::_Num_float_base::tinyness_before
PUBLIC	?traps@_Num_float_base@std@@2_NB		; std::_Num_float_base::traps
PUBLIC	?round_style@_Num_float_base@std@@2W4float_round_style@2@B ; std::_Num_float_base::round_style
PUBLIC	?radix@_Num_float_base@std@@2HB			; std::_Num_float_base::radix
PUBLIC	?skipws@?$_Iosb@H@std@@2W4_Fmtflags@12@B	; std::_Iosb<int>::skipws
PUBLIC	?unitbuf@?$_Iosb@H@std@@2W4_Fmtflags@12@B	; std::_Iosb<int>::unitbuf
PUBLIC	?uppercase@?$_Iosb@H@std@@2W4_Fmtflags@12@B	; std::_Iosb<int>::uppercase
PUBLIC	?showbase@?$_Iosb@H@std@@2W4_Fmtflags@12@B	; std::_Iosb<int>::showbase
PUBLIC	?showpoint@?$_Iosb@H@std@@2W4_Fmtflags@12@B	; std::_Iosb<int>::showpoint
PUBLIC	?is_signed@?$numeric_limits@D@std@@2_NB		; std::numeric_limits<char>::is_signed
PUBLIC	?showpos@?$_Iosb@H@std@@2W4_Fmtflags@12@B	; std::_Iosb<int>::showpos
PUBLIC	?digits@?$numeric_limits@D@std@@2HB		; std::numeric_limits<char>::digits
PUBLIC	?left@?$_Iosb@H@std@@2W4_Fmtflags@12@B		; std::_Iosb<int>::left
PUBLIC	?digits10@?$numeric_limits@D@std@@2HB		; std::numeric_limits<char>::digits10
PUBLIC	?right@?$_Iosb@H@std@@2W4_Fmtflags@12@B		; std::_Iosb<int>::right
PUBLIC	?internal@?$_Iosb@H@std@@2W4_Fmtflags@12@B	; std::_Iosb<int>::internal
PUBLIC	?dec@?$_Iosb@H@std@@2W4_Fmtflags@12@B		; std::_Iosb<int>::dec
PUBLIC	?oct@?$_Iosb@H@std@@2W4_Fmtflags@12@B		; std::_Iosb<int>::oct
PUBLIC	?hex@?$_Iosb@H@std@@2W4_Fmtflags@12@B		; std::_Iosb<int>::hex
PUBLIC	?scientific@?$_Iosb@H@std@@2W4_Fmtflags@12@B	; std::_Iosb<int>::scientific
PUBLIC	?fixed@?$_Iosb@H@std@@2W4_Fmtflags@12@B		; std::_Iosb<int>::fixed
PUBLIC	?hexfloat@?$_Iosb@H@std@@2W4_Fmtflags@12@B	; std::_Iosb<int>::hexfloat
PUBLIC	?boolalpha@?$_Iosb@H@std@@2W4_Fmtflags@12@B	; std::_Iosb<int>::boolalpha
PUBLIC	?_Stdio@?$_Iosb@H@std@@2W4_Fmtflags@12@B	; std::_Iosb<int>::_Stdio
PUBLIC	?is_signed@?$numeric_limits@_W@std@@2_NB	; std::numeric_limits<wchar_t>::is_signed
PUBLIC	?adjustfield@?$_Iosb@H@std@@2W4_Fmtflags@12@B	; std::_Iosb<int>::adjustfield
PUBLIC	?digits@?$numeric_limits@_W@std@@2HB		; std::numeric_limits<wchar_t>::digits
PUBLIC	?basefield@?$_Iosb@H@std@@2W4_Fmtflags@12@B	; std::_Iosb<int>::basefield
PUBLIC	?floatfield@?$_Iosb@H@std@@2W4_Fmtflags@12@B	; std::_Iosb<int>::floatfield
PUBLIC	?digits10@?$numeric_limits@_W@std@@2HB		; std::numeric_limits<wchar_t>::digits10
PUBLIC	?goodbit@?$_Iosb@H@std@@2W4_Iostate@12@B	; std::_Iosb<int>::goodbit
PUBLIC	?eofbit@?$_Iosb@H@std@@2W4_Iostate@12@B		; std::_Iosb<int>::eofbit
PUBLIC	?failbit@?$_Iosb@H@std@@2W4_Iostate@12@B	; std::_Iosb<int>::failbit
PUBLIC	?badbit@?$_Iosb@H@std@@2W4_Iostate@12@B		; std::_Iosb<int>::badbit
PUBLIC	?_Hardfail@?$_Iosb@H@std@@2W4_Iostate@12@B	; std::_Iosb<int>::_Hardfail
PUBLIC	?in@?$_Iosb@H@std@@2W4_Openmode@12@B		; std::_Iosb<int>::in
PUBLIC	?out@?$_Iosb@H@std@@2W4_Openmode@12@B		; std::_Iosb<int>::out
PUBLIC	?ate@?$_Iosb@H@std@@2W4_Openmode@12@B		; std::_Iosb<int>::ate
PUBLIC	?app@?$_Iosb@H@std@@2W4_Openmode@12@B		; std::_Iosb<int>::app
PUBLIC	?is_modulo@?$numeric_limits@_N@std@@2_NB	; std::numeric_limits<bool>::is_modulo
PUBLIC	?trunc@?$_Iosb@H@std@@2W4_Openmode@12@B		; std::_Iosb<int>::trunc
PUBLIC	?is_signed@?$numeric_limits@_N@std@@2_NB	; std::numeric_limits<bool>::is_signed
PUBLIC	?_Nocreate@?$_Iosb@H@std@@2W4_Openmode@12@B	; std::_Iosb<int>::_Nocreate
PUBLIC	?digits@?$numeric_limits@_N@std@@2HB		; std::numeric_limits<bool>::digits
PUBLIC	?_Noreplace@?$_Iosb@H@std@@2W4_Openmode@12@B	; std::_Iosb<int>::_Noreplace
PUBLIC	?digits10@?$numeric_limits@_N@std@@2HB		; std::numeric_limits<bool>::digits10
PUBLIC	?binary@?$_Iosb@H@std@@2W4_Openmode@12@B	; std::_Iosb<int>::binary
PUBLIC	?beg@?$_Iosb@H@std@@2W4_Seekdir@12@B		; std::_Iosb<int>::beg
PUBLIC	?cur@?$_Iosb@H@std@@2W4_Seekdir@12@B		; std::_Iosb<int>::cur
PUBLIC	?end@?$_Iosb@H@std@@2W4_Seekdir@12@B		; std::_Iosb<int>::end
PUBLIC	?is_signed@?$numeric_limits@C@std@@2_NB		; std::numeric_limits<signed char>::is_signed
PUBLIC	?digits@?$numeric_limits@C@std@@2HB		; std::numeric_limits<signed char>::digits
PUBLIC	?digits10@?$numeric_limits@C@std@@2HB		; std::numeric_limits<signed char>::digits10
PUBLIC	?_Stream_err@failure@ios_base@std@@0W4io_errc@43@B ; std::ios_base::failure::_Stream_err
PUBLIC	?is_signed@?$numeric_limits@E@std@@2_NB		; std::numeric_limits<unsigned char>::is_signed
PUBLIC	?digits@?$numeric_limits@E@std@@2HB		; std::numeric_limits<unsigned char>::digits
PUBLIC	?digits10@?$numeric_limits@E@std@@2HB		; std::numeric_limits<unsigned char>::digits10
PUBLIC	?value@?$_Sizeof@HU_Nil@std@@U12@U12@U12@U12@U12@U12@@std@@2IB ; std::_Sizeof<int,std::_Nil,std::_Nil,std::_Nil,std::_Nil,std::_Nil,std::_Nil,std::_Nil>::value
PUBLIC	?is_signed@?$numeric_limits@F@std@@2_NB		; std::numeric_limits<short>::is_signed
PUBLIC	?digits@?$numeric_limits@F@std@@2HB		; std::numeric_limits<short>::digits
PUBLIC	?digits10@?$numeric_limits@F@std@@2HB		; std::numeric_limits<short>::digits10
PUBLIC	?is_signed@?$numeric_limits@G@std@@2_NB		; std::numeric_limits<unsigned short>::is_signed
PUBLIC	?digits@?$numeric_limits@G@std@@2HB		; std::numeric_limits<unsigned short>::digits
PUBLIC	?digits10@?$numeric_limits@G@std@@2HB		; std::numeric_limits<unsigned short>::digits10
PUBLIC	?value@?$integral_constant@_N$0A@@std@@2_NB	; std::integral_constant<bool,0>::value
PUBLIC	?value@?$integral_constant@_N$00@std@@2_NB	; std::integral_constant<bool,1>::value
PUBLIC	?is_signed@?$numeric_limits@H@std@@2_NB		; std::numeric_limits<int>::is_signed
PUBLIC	?digits@?$numeric_limits@H@std@@2HB		; std::numeric_limits<int>::digits
PUBLIC	?digits10@?$numeric_limits@H@std@@2HB		; std::numeric_limits<int>::digits10
PUBLIC	?is_signed@?$numeric_limits@I@std@@2_NB		; std::numeric_limits<unsigned int>::is_signed
PUBLIC	?digits@?$numeric_limits@I@std@@2HB		; std::numeric_limits<unsigned int>::digits
PUBLIC	?digits10@?$numeric_limits@I@std@@2HB		; std::numeric_limits<unsigned int>::digits10
PUBLIC	?is_signed@?$numeric_limits@J@std@@2_NB		; std::numeric_limits<long>::is_signed
PUBLIC	?digits@?$numeric_limits@J@std@@2HB		; std::numeric_limits<long>::digits
PUBLIC	?digits10@?$numeric_limits@J@std@@2HB		; std::numeric_limits<long>::digits10
PUBLIC	?is_signed@?$numeric_limits@K@std@@2_NB		; std::numeric_limits<unsigned long>::is_signed
PUBLIC	?digits@?$numeric_limits@K@std@@2HB		; std::numeric_limits<unsigned long>::digits
PUBLIC	?digits10@?$numeric_limits@K@std@@2HB		; std::numeric_limits<unsigned long>::digits10
PUBLIC	?is_signed@?$numeric_limits@_J@std@@2_NB	; std::numeric_limits<__int64>::is_signed
PUBLIC	?collate@?$_Locbase@H@std@@2HB			; std::_Locbase<int>::collate
PUBLIC	?ctype@?$_Locbase@H@std@@2HB			; std::_Locbase<int>::ctype
PUBLIC	?digits@?$numeric_limits@_J@std@@2HB		; std::numeric_limits<__int64>::digits
PUBLIC	?monetary@?$_Locbase@H@std@@2HB			; std::_Locbase<int>::monetary
PUBLIC	?numeric@?$_Locbase@H@std@@2HB			; std::_Locbase<int>::numeric
PUBLIC	?digits10@?$numeric_limits@_J@std@@2HB		; std::numeric_limits<__int64>::digits10
PUBLIC	?time@?$_Locbase@H@std@@2HB			; std::_Locbase<int>::time
PUBLIC	?messages@?$_Locbase@H@std@@2HB			; std::_Locbase<int>::messages
PUBLIC	?all@?$_Locbase@H@std@@2HB			; std::_Locbase<int>::all
PUBLIC	?none@?$_Locbase@H@std@@2HB			; std::_Locbase<int>::none
PUBLIC	?is_signed@?$numeric_limits@_K@std@@2_NB	; std::numeric_limits<unsigned __int64>::is_signed
PUBLIC	?value@?$integral_constant@I$0A@@std@@2IB	; std::integral_constant<unsigned int,0>::value
PUBLIC	?digits@?$numeric_limits@_K@std@@2HB		; std::numeric_limits<unsigned __int64>::digits
PUBLIC	?digits10@?$numeric_limits@_K@std@@2HB		; std::numeric_limits<unsigned __int64>::digits10
PUBLIC	?digits@?$numeric_limits@M@std@@2HB		; std::numeric_limits<float>::digits
PUBLIC	?digits10@?$numeric_limits@M@std@@2HB		; std::numeric_limits<float>::digits10
PUBLIC	?max_digits10@?$numeric_limits@M@std@@2HB	; std::numeric_limits<float>::max_digits10
PUBLIC	?max_exponent@?$numeric_limits@M@std@@2HB	; std::numeric_limits<float>::max_exponent
PUBLIC	?max_exponent10@?$numeric_limits@M@std@@2HB	; std::numeric_limits<float>::max_exponent10
PUBLIC	?min_exponent@?$numeric_limits@M@std@@2HB	; std::numeric_limits<float>::min_exponent
PUBLIC	?min_exponent10@?$numeric_limits@M@std@@2HB	; std::numeric_limits<float>::min_exponent10
PUBLIC	?digits@?$numeric_limits@N@std@@2HB		; std::numeric_limits<double>::digits
PUBLIC	?table_size@?$ctype@D@std@@2IB			; std::ctype<char>::table_size
PUBLIC	?digits10@?$numeric_limits@N@std@@2HB		; std::numeric_limits<double>::digits10
PUBLIC	?max_digits10@?$numeric_limits@N@std@@2HB	; std::numeric_limits<double>::max_digits10
PUBLIC	?max_exponent@?$numeric_limits@N@std@@2HB	; std::numeric_limits<double>::max_exponent
PUBLIC	?max_exponent10@?$numeric_limits@N@std@@2HB	; std::numeric_limits<double>::max_exponent10
PUBLIC	?min_exponent@?$numeric_limits@N@std@@2HB	; std::numeric_limits<double>::min_exponent
PUBLIC	?min_exponent10@?$numeric_limits@N@std@@2HB	; std::numeric_limits<double>::min_exponent10
PUBLIC	?digits@?$numeric_limits@O@std@@2HB		; std::numeric_limits<long double>::digits
PUBLIC	?digits10@?$numeric_limits@O@std@@2HB		; std::numeric_limits<long double>::digits10
PUBLIC	?max_digits10@?$numeric_limits@O@std@@2HB	; std::numeric_limits<long double>::max_digits10
PUBLIC	?max_exponent@?$numeric_limits@O@std@@2HB	; std::numeric_limits<long double>::max_exponent
PUBLIC	?max_exponent10@?$numeric_limits@O@std@@2HB	; std::numeric_limits<long double>::max_exponent10
PUBLIC	?min_exponent@?$numeric_limits@O@std@@2HB	; std::numeric_limits<long double>::min_exponent
PUBLIC	?min_exponent10@?$numeric_limits@O@std@@2HB	; std::numeric_limits<long double>::min_exponent10
_BSS	SEGMENT
?gOtwCameraLocation@@3PAVFalconEntity@@A DD 01H DUP (?)	; gOtwCameraLocation
?endAbort@@3HA DD 01H DUP (?)				; endAbort
?nextCampObjectHeightRefresh@@3KA DD 01H DUP (?)	; nextCampObjectHeightRefresh
?p3DpitHilite@@3KA DD 01H DUP (?)			; p3DpitHilite
?p3DpitLolite@@3KA DD 01H DUP (?)			; p3DpitLolite
?endDialogObject@@3PAVDrawableBSP@@A DD 01H DUP (?)	; endDialogObject
?gSharedMemHandle@@3PAXA DD 01H DUP (?)			; gSharedMemHandle
?gSharedMemPtr@@3PAXA DD 01H DUP (?)			; gSharedMemPtr
?gIntellivibeShared@@3PAXA DD 01H DUP (?)		; gIntellivibeShared
?gSharedIntellivibe@@3PAXA DD 01H DUP (?)		; gSharedIntellivibe
_BSS	ENDS
;	COMDAT ?min_exponent10@?$numeric_limits@O@std@@2HB
CONST	SEGMENT
?min_exponent10@?$numeric_limits@O@std@@2HB DD 0fffffecdH ; std::numeric_limits<long double>::min_exponent10
CONST	ENDS
;	COMDAT ?min_exponent@?$numeric_limits@O@std@@2HB
CONST	SEGMENT
?min_exponent@?$numeric_limits@O@std@@2HB DD 0fffffc03H	; std::numeric_limits<long double>::min_exponent
CONST	ENDS
;	COMDAT ?max_exponent10@?$numeric_limits@O@std@@2HB
CONST	SEGMENT
?max_exponent10@?$numeric_limits@O@std@@2HB DD 0134H	; std::numeric_limits<long double>::max_exponent10
CONST	ENDS
;	COMDAT ?max_exponent@?$numeric_limits@O@std@@2HB
CONST	SEGMENT
?max_exponent@?$numeric_limits@O@std@@2HB DD 0400H	; std::numeric_limits<long double>::max_exponent
CONST	ENDS
;	COMDAT ?max_digits10@?$numeric_limits@O@std@@2HB
CONST	SEGMENT
?max_digits10@?$numeric_limits@O@std@@2HB DD 011H	; std::numeric_limits<long double>::max_digits10
CONST	ENDS
;	COMDAT ?digits10@?$numeric_limits@O@std@@2HB
CONST	SEGMENT
?digits10@?$numeric_limits@O@std@@2HB DD 0fH		; std::numeric_limits<long double>::digits10
CONST	ENDS
;	COMDAT ?digits@?$numeric_limits@O@std@@2HB
CONST	SEGMENT
?digits@?$numeric_limits@O@std@@2HB DD 035H		; std::numeric_limits<long double>::digits
CONST	ENDS
;	COMDAT ?min_exponent10@?$numeric_limits@N@std@@2HB
CONST	SEGMENT
?min_exponent10@?$numeric_limits@N@std@@2HB DD 0fffffecdH ; std::numeric_limits<double>::min_exponent10
CONST	ENDS
;	COMDAT ?min_exponent@?$numeric_limits@N@std@@2HB
CONST	SEGMENT
?min_exponent@?$numeric_limits@N@std@@2HB DD 0fffffc03H	; std::numeric_limits<double>::min_exponent
CONST	ENDS
;	COMDAT ?max_exponent10@?$numeric_limits@N@std@@2HB
CONST	SEGMENT
?max_exponent10@?$numeric_limits@N@std@@2HB DD 0134H	; std::numeric_limits<double>::max_exponent10
CONST	ENDS
;	COMDAT ?max_exponent@?$numeric_limits@N@std@@2HB
CONST	SEGMENT
?max_exponent@?$numeric_limits@N@std@@2HB DD 0400H	; std::numeric_limits<double>::max_exponent
CONST	ENDS
;	COMDAT ?max_digits10@?$numeric_limits@N@std@@2HB
CONST	SEGMENT
?max_digits10@?$numeric_limits@N@std@@2HB DD 011H	; std::numeric_limits<double>::max_digits10
CONST	ENDS
;	COMDAT ?digits10@?$numeric_limits@N@std@@2HB
CONST	SEGMENT
?digits10@?$numeric_limits@N@std@@2HB DD 0fH		; std::numeric_limits<double>::digits10
CONST	ENDS
;	COMDAT ?table_size@?$ctype@D@std@@2IB
CONST	SEGMENT
?table_size@?$ctype@D@std@@2IB DD 0100H			; std::ctype<char>::table_size
CONST	ENDS
;	COMDAT ?digits@?$numeric_limits@N@std@@2HB
CONST	SEGMENT
?digits@?$numeric_limits@N@std@@2HB DD 035H		; std::numeric_limits<double>::digits
CONST	ENDS
;	COMDAT ?min_exponent10@?$numeric_limits@M@std@@2HB
CONST	SEGMENT
?min_exponent10@?$numeric_limits@M@std@@2HB DD 0ffffffdbH ; std::numeric_limits<float>::min_exponent10
CONST	ENDS
;	COMDAT ?min_exponent@?$numeric_limits@M@std@@2HB
CONST	SEGMENT
?min_exponent@?$numeric_limits@M@std@@2HB DD 0ffffff83H	; std::numeric_limits<float>::min_exponent
CONST	ENDS
;	COMDAT ?max_exponent10@?$numeric_limits@M@std@@2HB
CONST	SEGMENT
?max_exponent10@?$numeric_limits@M@std@@2HB DD 026H	; std::numeric_limits<float>::max_exponent10
CONST	ENDS
;	COMDAT ?max_exponent@?$numeric_limits@M@std@@2HB
CONST	SEGMENT
?max_exponent@?$numeric_limits@M@std@@2HB DD 080H	; std::numeric_limits<float>::max_exponent
CONST	ENDS
;	COMDAT ?max_digits10@?$numeric_limits@M@std@@2HB
CONST	SEGMENT
?max_digits10@?$numeric_limits@M@std@@2HB DD 09H	; std::numeric_limits<float>::max_digits10
CONST	ENDS
;	COMDAT ?digits10@?$numeric_limits@M@std@@2HB
CONST	SEGMENT
?digits10@?$numeric_limits@M@std@@2HB DD 06H		; std::numeric_limits<float>::digits10
CONST	ENDS
;	COMDAT ?digits@?$numeric_limits@M@std@@2HB
CONST	SEGMENT
?digits@?$numeric_limits@M@std@@2HB DD 018H		; std::numeric_limits<float>::digits
CONST	ENDS
;	COMDAT ?digits10@?$numeric_limits@_K@std@@2HB
CONST	SEGMENT
?digits10@?$numeric_limits@_K@std@@2HB DD 013H		; std::numeric_limits<unsigned __int64>::digits10
CONST	ENDS
;	COMDAT ?digits@?$numeric_limits@_K@std@@2HB
CONST	SEGMENT
?digits@?$numeric_limits@_K@std@@2HB DD 040H		; std::numeric_limits<unsigned __int64>::digits
CONST	ENDS
;	COMDAT ?value@?$integral_constant@I$0A@@std@@2IB
CONST	SEGMENT
?value@?$integral_constant@I$0A@@std@@2IB DD 00H	; std::integral_constant<unsigned int,0>::value
CONST	ENDS
;	COMDAT ?is_signed@?$numeric_limits@_K@std@@2_NB
CONST	SEGMENT
?is_signed@?$numeric_limits@_K@std@@2_NB DB 00H		; std::numeric_limits<unsigned __int64>::is_signed
CONST	ENDS
;	COMDAT ?none@?$_Locbase@H@std@@2HB
CONST	SEGMENT
?none@?$_Locbase@H@std@@2HB DD 00H			; std::_Locbase<int>::none
CONST	ENDS
;	COMDAT ?all@?$_Locbase@H@std@@2HB
CONST	SEGMENT
?all@?$_Locbase@H@std@@2HB DD 03fH			; std::_Locbase<int>::all
CONST	ENDS
;	COMDAT ?messages@?$_Locbase@H@std@@2HB
CONST	SEGMENT
?messages@?$_Locbase@H@std@@2HB DD 020H			; std::_Locbase<int>::messages
CONST	ENDS
;	COMDAT ?time@?$_Locbase@H@std@@2HB
CONST	SEGMENT
?time@?$_Locbase@H@std@@2HB DD 010H			; std::_Locbase<int>::time
CONST	ENDS
;	COMDAT ?digits10@?$numeric_limits@_J@std@@2HB
CONST	SEGMENT
?digits10@?$numeric_limits@_J@std@@2HB DD 012H		; std::numeric_limits<__int64>::digits10
CONST	ENDS
;	COMDAT ?numeric@?$_Locbase@H@std@@2HB
CONST	SEGMENT
?numeric@?$_Locbase@H@std@@2HB DD 08H			; std::_Locbase<int>::numeric
CONST	ENDS
;	COMDAT ?monetary@?$_Locbase@H@std@@2HB
CONST	SEGMENT
?monetary@?$_Locbase@H@std@@2HB DD 04H			; std::_Locbase<int>::monetary
CONST	ENDS
;	COMDAT ?digits@?$numeric_limits@_J@std@@2HB
CONST	SEGMENT
?digits@?$numeric_limits@_J@std@@2HB DD 03fH		; std::numeric_limits<__int64>::digits
CONST	ENDS
;	COMDAT ?ctype@?$_Locbase@H@std@@2HB
CONST	SEGMENT
?ctype@?$_Locbase@H@std@@2HB DD 02H			; std::_Locbase<int>::ctype
CONST	ENDS
;	COMDAT ?collate@?$_Locbase@H@std@@2HB
CONST	SEGMENT
?collate@?$_Locbase@H@std@@2HB DD 01H			; std::_Locbase<int>::collate
CONST	ENDS
;	COMDAT ?is_signed@?$numeric_limits@_J@std@@2_NB
CONST	SEGMENT
?is_signed@?$numeric_limits@_J@std@@2_NB DB 01H		; std::numeric_limits<__int64>::is_signed
CONST	ENDS
;	COMDAT ?digits10@?$numeric_limits@K@std@@2HB
CONST	SEGMENT
?digits10@?$numeric_limits@K@std@@2HB DD 09H		; std::numeric_limits<unsigned long>::digits10
CONST	ENDS
;	COMDAT ?digits@?$numeric_limits@K@std@@2HB
CONST	SEGMENT
?digits@?$numeric_limits@K@std@@2HB DD 020H		; std::numeric_limits<unsigned long>::digits
CONST	ENDS
;	COMDAT ?is_signed@?$numeric_limits@K@std@@2_NB
CONST	SEGMENT
?is_signed@?$numeric_limits@K@std@@2_NB DB 00H		; std::numeric_limits<unsigned long>::is_signed
CONST	ENDS
;	COMDAT ?digits10@?$numeric_limits@J@std@@2HB
CONST	SEGMENT
?digits10@?$numeric_limits@J@std@@2HB DD 09H		; std::numeric_limits<long>::digits10
CONST	ENDS
;	COMDAT ?digits@?$numeric_limits@J@std@@2HB
CONST	SEGMENT
?digits@?$numeric_limits@J@std@@2HB DD 01fH		; std::numeric_limits<long>::digits
CONST	ENDS
;	COMDAT ?is_signed@?$numeric_limits@J@std@@2_NB
CONST	SEGMENT
?is_signed@?$numeric_limits@J@std@@2_NB DB 01H		; std::numeric_limits<long>::is_signed
CONST	ENDS
CONST	SEGMENT
_NEAR_CLIP DD	03f800000r			; 1
_L_2	DD	03f317218r			; 0.693147
CONST	ENDS
;	COMDAT ?digits10@?$numeric_limits@I@std@@2HB
CONST	SEGMENT
?digits10@?$numeric_limits@I@std@@2HB DD 09H		; std::numeric_limits<unsigned int>::digits10
CONST	ENDS
;	COMDAT ?digits@?$numeric_limits@I@std@@2HB
CONST	SEGMENT
?digits@?$numeric_limits@I@std@@2HB DD 020H		; std::numeric_limits<unsigned int>::digits
CONST	ENDS
;	COMDAT ?is_signed@?$numeric_limits@I@std@@2_NB
CONST	SEGMENT
?is_signed@?$numeric_limits@I@std@@2_NB DB 00H		; std::numeric_limits<unsigned int>::is_signed
CONST	ENDS
;	COMDAT ?digits10@?$numeric_limits@H@std@@2HB
CONST	SEGMENT
?digits10@?$numeric_limits@H@std@@2HB DD 09H		; std::numeric_limits<int>::digits10
CONST	ENDS
;	COMDAT ?digits@?$numeric_limits@H@std@@2HB
CONST	SEGMENT
?digits@?$numeric_limits@H@std@@2HB DD 01fH		; std::numeric_limits<int>::digits
CONST	ENDS
;	COMDAT ?is_signed@?$numeric_limits@H@std@@2_NB
CONST	SEGMENT
?is_signed@?$numeric_limits@H@std@@2_NB DB 01H		; std::numeric_limits<int>::is_signed
CONST	ENDS
;	COMDAT ?value@?$integral_constant@_N$00@std@@2_NB
CONST	SEGMENT
?value@?$integral_constant@_N$00@std@@2_NB DB 01H	; std::integral_constant<bool,1>::value
CONST	ENDS
;	COMDAT ?value@?$integral_constant@_N$0A@@std@@2_NB
CONST	SEGMENT
?value@?$integral_constant@_N$0A@@std@@2_NB DB 00H	; std::integral_constant<bool,0>::value
CONST	ENDS
;	COMDAT ?digits10@?$numeric_limits@G@std@@2HB
CONST	SEGMENT
?digits10@?$numeric_limits@G@std@@2HB DD 04H		; std::numeric_limits<unsigned short>::digits10
CONST	ENDS
;	COMDAT ?digits@?$numeric_limits@G@std@@2HB
CONST	SEGMENT
?digits@?$numeric_limits@G@std@@2HB DD 010H		; std::numeric_limits<unsigned short>::digits
CONST	ENDS
;	COMDAT ?is_signed@?$numeric_limits@G@std@@2_NB
CONST	SEGMENT
?is_signed@?$numeric_limits@G@std@@2_NB DB 00H		; std::numeric_limits<unsigned short>::is_signed
CONST	ENDS
;	COMDAT ?digits10@?$numeric_limits@F@std@@2HB
CONST	SEGMENT
?digits10@?$numeric_limits@F@std@@2HB DD 04H		; std::numeric_limits<short>::digits10
CONST	ENDS
;	COMDAT ?digits@?$numeric_limits@F@std@@2HB
CONST	SEGMENT
?digits@?$numeric_limits@F@std@@2HB DD 0fH		; std::numeric_limits<short>::digits
CONST	ENDS
;	COMDAT ?is_signed@?$numeric_limits@F@std@@2_NB
CONST	SEGMENT
?is_signed@?$numeric_limits@F@std@@2_NB DB 01H		; std::numeric_limits<short>::is_signed
CONST	ENDS
;	COMDAT ?value@?$_Sizeof@HU_Nil@std@@U12@U12@U12@U12@U12@U12@@std@@2IB
CONST	SEGMENT
?value@?$_Sizeof@HU_Nil@std@@U12@U12@U12@U12@U12@U12@@std@@2IB DD 01H ; std::_Sizeof<int,std::_Nil,std::_Nil,std::_Nil,std::_Nil,std::_Nil,std::_Nil,std::_Nil>::value
CONST	ENDS
;	COMDAT ?digits10@?$numeric_limits@E@std@@2HB
CONST	SEGMENT
?digits10@?$numeric_limits@E@std@@2HB DD 02H		; std::numeric_limits<unsigned char>::digits10
CONST	ENDS
;	COMDAT ?digits@?$numeric_limits@E@std@@2HB
CONST	SEGMENT
?digits@?$numeric_limits@E@std@@2HB DD 08H		; std::numeric_limits<unsigned char>::digits
CONST	ENDS
;	COMDAT ?is_signed@?$numeric_limits@E@std@@2_NB
CONST	SEGMENT
?is_signed@?$numeric_limits@E@std@@2_NB DB 00H		; std::numeric_limits<unsigned char>::is_signed
CONST	ENDS
;	COMDAT ?_Stream_err@failure@ios_base@std@@0W4io_errc@43@B
CONST	SEGMENT
?_Stream_err@failure@ios_base@std@@0W4io_errc@43@B DD 01H ; std::ios_base::failure::_Stream_err
CONST	ENDS
;	COMDAT ?digits10@?$numeric_limits@C@std@@2HB
CONST	SEGMENT
?digits10@?$numeric_limits@C@std@@2HB DD 02H		; std::numeric_limits<signed char>::digits10
CONST	ENDS
;	COMDAT ?digits@?$numeric_limits@C@std@@2HB
CONST	SEGMENT
?digits@?$numeric_limits@C@std@@2HB DD 07H		; std::numeric_limits<signed char>::digits
CONST	ENDS
;	COMDAT ?is_signed@?$numeric_limits@C@std@@2_NB
CONST	SEGMENT
?is_signed@?$numeric_limits@C@std@@2_NB DB 01H		; std::numeric_limits<signed char>::is_signed
CONST	ENDS
;	COMDAT ?end@?$_Iosb@H@std@@2W4_Seekdir@12@B
CONST	SEGMENT
?end@?$_Iosb@H@std@@2W4_Seekdir@12@B DD 02H		; std::_Iosb<int>::end
CONST	ENDS
;	COMDAT ?cur@?$_Iosb@H@std@@2W4_Seekdir@12@B
CONST	SEGMENT
?cur@?$_Iosb@H@std@@2W4_Seekdir@12@B DD 01H		; std::_Iosb<int>::cur
CONST	ENDS
;	COMDAT ?beg@?$_Iosb@H@std@@2W4_Seekdir@12@B
CONST	SEGMENT
?beg@?$_Iosb@H@std@@2W4_Seekdir@12@B DD 00H		; std::_Iosb<int>::beg
CONST	ENDS
;	COMDAT ?binary@?$_Iosb@H@std@@2W4_Openmode@12@B
CONST	SEGMENT
?binary@?$_Iosb@H@std@@2W4_Openmode@12@B DD 020H	; std::_Iosb<int>::binary
CONST	ENDS
;	COMDAT ?digits10@?$numeric_limits@_N@std@@2HB
CONST	SEGMENT
?digits10@?$numeric_limits@_N@std@@2HB DD 00H		; std::numeric_limits<bool>::digits10
CONST	ENDS
;	COMDAT ?_Noreplace@?$_Iosb@H@std@@2W4_Openmode@12@B
CONST	SEGMENT
?_Noreplace@?$_Iosb@H@std@@2W4_Openmode@12@B DD 080H	; std::_Iosb<int>::_Noreplace
CONST	ENDS
;	COMDAT ?digits@?$numeric_limits@_N@std@@2HB
CONST	SEGMENT
?digits@?$numeric_limits@_N@std@@2HB DD 01H		; std::numeric_limits<bool>::digits
CONST	ENDS
;	COMDAT ?_Nocreate@?$_Iosb@H@std@@2W4_Openmode@12@B
CONST	SEGMENT
?_Nocreate@?$_Iosb@H@std@@2W4_Openmode@12@B DD 040H	; std::_Iosb<int>::_Nocreate
CONST	ENDS
;	COMDAT ?is_signed@?$numeric_limits@_N@std@@2_NB
CONST	SEGMENT
?is_signed@?$numeric_limits@_N@std@@2_NB DB 00H		; std::numeric_limits<bool>::is_signed
CONST	ENDS
;	COMDAT ?trunc@?$_Iosb@H@std@@2W4_Openmode@12@B
CONST	SEGMENT
?trunc@?$_Iosb@H@std@@2W4_Openmode@12@B DD 010H		; std::_Iosb<int>::trunc
CONST	ENDS
;	COMDAT ?is_modulo@?$numeric_limits@_N@std@@2_NB
CONST	SEGMENT
?is_modulo@?$numeric_limits@_N@std@@2_NB DB 00H		; std::numeric_limits<bool>::is_modulo
CONST	ENDS
;	COMDAT ?app@?$_Iosb@H@std@@2W4_Openmode@12@B
CONST	SEGMENT
?app@?$_Iosb@H@std@@2W4_Openmode@12@B DD 08H		; std::_Iosb<int>::app
CONST	ENDS
;	COMDAT ?ate@?$_Iosb@H@std@@2W4_Openmode@12@B
CONST	SEGMENT
?ate@?$_Iosb@H@std@@2W4_Openmode@12@B DD 04H		; std::_Iosb<int>::ate
CONST	ENDS
;	COMDAT ?out@?$_Iosb@H@std@@2W4_Openmode@12@B
CONST	SEGMENT
?out@?$_Iosb@H@std@@2W4_Openmode@12@B DD 02H		; std::_Iosb<int>::out
CONST	ENDS
;	COMDAT ?in@?$_Iosb@H@std@@2W4_Openmode@12@B
CONST	SEGMENT
?in@?$_Iosb@H@std@@2W4_Openmode@12@B DD 01H		; std::_Iosb<int>::in
CONST	ENDS
;	COMDAT ?_Hardfail@?$_Iosb@H@std@@2W4_Iostate@12@B
CONST	SEGMENT
?_Hardfail@?$_Iosb@H@std@@2W4_Iostate@12@B DD 010H	; std::_Iosb<int>::_Hardfail
CONST	ENDS
;	COMDAT ?badbit@?$_Iosb@H@std@@2W4_Iostate@12@B
CONST	SEGMENT
?badbit@?$_Iosb@H@std@@2W4_Iostate@12@B DD 04H		; std::_Iosb<int>::badbit
CONST	ENDS
;	COMDAT ?failbit@?$_Iosb@H@std@@2W4_Iostate@12@B
CONST	SEGMENT
?failbit@?$_Iosb@H@std@@2W4_Iostate@12@B DD 02H		; std::_Iosb<int>::failbit
CONST	ENDS
;	COMDAT ?eofbit@?$_Iosb@H@std@@2W4_Iostate@12@B
CONST	SEGMENT
?eofbit@?$_Iosb@H@std@@2W4_Iostate@12@B DD 01H		; std::_Iosb<int>::eofbit
CONST	ENDS
;	COMDAT ?goodbit@?$_Iosb@H@std@@2W4_Iostate@12@B
CONST	SEGMENT
?goodbit@?$_Iosb@H@std@@2W4_Iostate@12@B DD 00H		; std::_Iosb<int>::goodbit
CONST	ENDS
;	COMDAT ?digits10@?$numeric_limits@_W@std@@2HB
CONST	SEGMENT
?digits10@?$numeric_limits@_W@std@@2HB DD 04H		; std::numeric_limits<wchar_t>::digits10
CONST	ENDS
;	COMDAT ?floatfield@?$_Iosb@H@std@@2W4_Fmtflags@12@B
CONST	SEGMENT
?floatfield@?$_Iosb@H@std@@2W4_Fmtflags@12@B DD 03000H	; std::_Iosb<int>::floatfield
CONST	ENDS
;	COMDAT ?basefield@?$_Iosb@H@std@@2W4_Fmtflags@12@B
CONST	SEGMENT
?basefield@?$_Iosb@H@std@@2W4_Fmtflags@12@B DD 0e00H	; std::_Iosb<int>::basefield
CONST	ENDS
;	COMDAT ?digits@?$numeric_limits@_W@std@@2HB
CONST	SEGMENT
?digits@?$numeric_limits@_W@std@@2HB DD 010H		; std::numeric_limits<wchar_t>::digits
CONST	ENDS
;	COMDAT ?adjustfield@?$_Iosb@H@std@@2W4_Fmtflags@12@B
CONST	SEGMENT
?adjustfield@?$_Iosb@H@std@@2W4_Fmtflags@12@B DD 01c0H	; std::_Iosb<int>::adjustfield
CONST	ENDS
;	COMDAT ?is_signed@?$numeric_limits@_W@std@@2_NB
CONST	SEGMENT
?is_signed@?$numeric_limits@_W@std@@2_NB DB 00H		; std::numeric_limits<wchar_t>::is_signed
CONST	ENDS
;	COMDAT ?_Stdio@?$_Iosb@H@std@@2W4_Fmtflags@12@B
CONST	SEGMENT
?_Stdio@?$_Iosb@H@std@@2W4_Fmtflags@12@B DD 08000H	; std::_Iosb<int>::_Stdio
CONST	ENDS
;	COMDAT ?boolalpha@?$_Iosb@H@std@@2W4_Fmtflags@12@B
CONST	SEGMENT
?boolalpha@?$_Iosb@H@std@@2W4_Fmtflags@12@B DD 04000H	; std::_Iosb<int>::boolalpha
CONST	ENDS
;	COMDAT ?hexfloat@?$_Iosb@H@std@@2W4_Fmtflags@12@B
CONST	SEGMENT
?hexfloat@?$_Iosb@H@std@@2W4_Fmtflags@12@B DD 03000H	; std::_Iosb<int>::hexfloat
CONST	ENDS
;	COMDAT ?fixed@?$_Iosb@H@std@@2W4_Fmtflags@12@B
CONST	SEGMENT
?fixed@?$_Iosb@H@std@@2W4_Fmtflags@12@B DD 02000H	; std::_Iosb<int>::fixed
CONST	ENDS
;	COMDAT ?scientific@?$_Iosb@H@std@@2W4_Fmtflags@12@B
CONST	SEGMENT
?scientific@?$_Iosb@H@std@@2W4_Fmtflags@12@B DD 01000H	; std::_Iosb<int>::scientific
CONST	ENDS
;	COMDAT ?hex@?$_Iosb@H@std@@2W4_Fmtflags@12@B
CONST	SEGMENT
?hex@?$_Iosb@H@std@@2W4_Fmtflags@12@B DD 0800H		; std::_Iosb<int>::hex
CONST	ENDS
;	COMDAT ?oct@?$_Iosb@H@std@@2W4_Fmtflags@12@B
CONST	SEGMENT
?oct@?$_Iosb@H@std@@2W4_Fmtflags@12@B DD 0400H		; std::_Iosb<int>::oct
CONST	ENDS
;	COMDAT ?dec@?$_Iosb@H@std@@2W4_Fmtflags@12@B
CONST	SEGMENT
?dec@?$_Iosb@H@std@@2W4_Fmtflags@12@B DD 0200H		; std::_Iosb<int>::dec
CONST	ENDS
;	COMDAT ?internal@?$_Iosb@H@std@@2W4_Fmtflags@12@B
CONST	SEGMENT
?internal@?$_Iosb@H@std@@2W4_Fmtflags@12@B DD 0100H	; std::_Iosb<int>::internal
CONST	ENDS
;	COMDAT ?right@?$_Iosb@H@std@@2W4_Fmtflags@12@B
CONST	SEGMENT
?right@?$_Iosb@H@std@@2W4_Fmtflags@12@B DD 080H		; std::_Iosb<int>::right
CONST	ENDS
;	COMDAT ?digits10@?$numeric_limits@D@std@@2HB
CONST	SEGMENT
?digits10@?$numeric_limits@D@std@@2HB DD 02H		; std::numeric_limits<char>::digits10
CONST	ENDS
;	COMDAT ?left@?$_Iosb@H@std@@2W4_Fmtflags@12@B
CONST	SEGMENT
?left@?$_Iosb@H@std@@2W4_Fmtflags@12@B DD 040H		; std::_Iosb<int>::left
CONST	ENDS
;	COMDAT ?digits@?$numeric_limits@D@std@@2HB
CONST	SEGMENT
?digits@?$numeric_limits@D@std@@2HB DD 07H		; std::numeric_limits<char>::digits
CONST	ENDS
;	COMDAT ?showpos@?$_Iosb@H@std@@2W4_Fmtflags@12@B
CONST	SEGMENT
?showpos@?$_Iosb@H@std@@2W4_Fmtflags@12@B DD 020H	; std::_Iosb<int>::showpos
CONST	ENDS
;	COMDAT ?is_signed@?$numeric_limits@D@std@@2_NB
CONST	SEGMENT
?is_signed@?$numeric_limits@D@std@@2_NB DB 01H		; std::numeric_limits<char>::is_signed
CONST	ENDS
;	COMDAT ?showpoint@?$_Iosb@H@std@@2W4_Fmtflags@12@B
CONST	SEGMENT
?showpoint@?$_Iosb@H@std@@2W4_Fmtflags@12@B DD 010H	; std::_Iosb<int>::showpoint
CONST	ENDS
;	COMDAT ?showbase@?$_Iosb@H@std@@2W4_Fmtflags@12@B
CONST	SEGMENT
?showbase@?$_Iosb@H@std@@2W4_Fmtflags@12@B DD 08H	; std::_Iosb<int>::showbase
CONST	ENDS
;	COMDAT ?uppercase@?$_Iosb@H@std@@2W4_Fmtflags@12@B
CONST	SEGMENT
?uppercase@?$_Iosb@H@std@@2W4_Fmtflags@12@B DD 04H	; std::_Iosb<int>::uppercase
CONST	ENDS
;	COMDAT ?unitbuf@?$_Iosb@H@std@@2W4_Fmtflags@12@B
CONST	SEGMENT
?unitbuf@?$_Iosb@H@std@@2W4_Fmtflags@12@B DD 02H	; std::_Iosb<int>::unitbuf
CONST	ENDS
;	COMDAT ?skipws@?$_Iosb@H@std@@2W4_Fmtflags@12@B
CONST	SEGMENT
?skipws@?$_Iosb@H@std@@2W4_Fmtflags@12@B DD 01H		; std::_Iosb<int>::skipws
CONST	ENDS
;	COMDAT ?radix@_Num_float_base@std@@2HB
CONST	SEGMENT
?radix@_Num_float_base@std@@2HB DD 02H			; std::_Num_float_base::radix
CONST	ENDS
;	COMDAT ?round_style@_Num_float_base@std@@2W4float_round_style@2@B
CONST	SEGMENT
?round_style@_Num_float_base@std@@2W4float_round_style@2@B DD 01H ; std::_Num_float_base::round_style
CONST	ENDS
;	COMDAT ?traps@_Num_float_base@std@@2_NB
CONST	SEGMENT
?traps@_Num_float_base@std@@2_NB DB 00H			; std::_Num_float_base::traps
CONST	ENDS
;	COMDAT ?tinyness_before@_Num_float_base@std@@2_NB
CONST	SEGMENT
?tinyness_before@_Num_float_base@std@@2_NB DB 01H	; std::_Num_float_base::tinyness_before
CONST	ENDS
;	COMDAT ?is_specialized@_Num_float_base@std@@2_NB
CONST	SEGMENT
?is_specialized@_Num_float_base@std@@2_NB DB 01H	; std::_Num_float_base::is_specialized
CONST	ENDS
;	COMDAT ?is_signed@_Num_float_base@std@@2_NB
CONST	SEGMENT
?is_signed@_Num_float_base@std@@2_NB DB 01H		; std::_Num_float_base::is_signed
CONST	ENDS
;	COMDAT ?is_modulo@_Num_float_base@std@@2_NB
CONST	SEGMENT
?is_modulo@_Num_float_base@std@@2_NB DB 00H		; std::_Num_float_base::is_modulo
CONST	ENDS
;	COMDAT ?is_integer@_Num_float_base@std@@2_NB
CONST	SEGMENT
?is_integer@_Num_float_base@std@@2_NB DB 00H		; std::_Num_float_base::is_integer
CONST	ENDS
;	COMDAT ?is_iec559@_Num_float_base@std@@2_NB
CONST	SEGMENT
?is_iec559@_Num_float_base@std@@2_NB DB 01H		; std::_Num_float_base::is_iec559
CONST	ENDS
;	COMDAT ?is_exact@_Num_float_base@std@@2_NB
CONST	SEGMENT
?is_exact@_Num_float_base@std@@2_NB DB 00H		; std::_Num_float_base::is_exact
CONST	ENDS
;	COMDAT ?is_bounded@_Num_float_base@std@@2_NB
CONST	SEGMENT
?is_bounded@_Num_float_base@std@@2_NB DB 01H		; std::_Num_float_base::is_bounded
CONST	ENDS
;	COMDAT ?has_signaling_NaN@_Num_float_base@std@@2_NB
CONST	SEGMENT
?has_signaling_NaN@_Num_float_base@std@@2_NB DB 01H	; std::_Num_float_base::has_signaling_NaN
CONST	ENDS
;	COMDAT ?has_quiet_NaN@_Num_float_base@std@@2_NB
CONST	SEGMENT
?has_quiet_NaN@_Num_float_base@std@@2_NB DB 01H		; std::_Num_float_base::has_quiet_NaN
CONST	ENDS
;	COMDAT ?has_infinity@_Num_float_base@std@@2_NB
CONST	SEGMENT
?has_infinity@_Num_float_base@std@@2_NB DB 01H		; std::_Num_float_base::has_infinity
CONST	ENDS
;	COMDAT ?has_denorm_loss@_Num_float_base@std@@2_NB
CONST	SEGMENT
?has_denorm_loss@_Num_float_base@std@@2_NB DB 01H	; std::_Num_float_base::has_denorm_loss
CONST	ENDS
;	COMDAT ?has_denorm@_Num_float_base@std@@2W4float_denorm_style@2@B
CONST	SEGMENT
?has_denorm@_Num_float_base@std@@2W4float_denorm_style@2@B DD 01H ; std::_Num_float_base::has_denorm
CONST	ENDS
_DATA	SEGMENT
?MfdSize@@3HA DD 09aH					; MfdSize
_matrix33_ident DD 03f800000r			; 1
	DD	000000000r			; 0
	DD	000000000r			; 0
	DD	000000000r			; 0
	DD	03f800000r			; 1
	DD	000000000r			; 0
	DD	000000000r			; 0
	DD	000000000r			; 0
	DD	03f800000r			; 1
_matrix44_ident DD 03f800000r			; 1
	DD	000000000r			; 0
	DD	000000000r			; 0
	DD	000000000r			; 0
	DD	000000000r			; 0
	DD	03f800000r			; 1
	DD	000000000r			; 0
	DD	000000000r			; 0
	DD	000000000r			; 0
	DD	000000000r			; 0
	DD	03f800000r			; 1
	DD	000000000r			; 0
	DD	000000000r			; 0
	DD	000000000r			; 0
	DD	000000000r			; 0
	DD	03f800000r			; 1
_cloudPntList DD 0c5bcc000r			; -6040
	DD	0c4070000r			; -540
	DD	0c694ac00r			; -19030
	DD	0c6de1c00r			; -28430
	DD	0c4dfc000r			; -1790
	DD	046dcc800r			; 28260
	DD	047104200r			; 36930
	DD	045732000r			; 3890
	DD	04744ea00r			; 50410
	DD	045336000r			; 2870
	DD	0c4d48000r			; -1700
	DD	04736da00r			; 46810
	DD	0c763ee00r			; -58350
	DD	0c4d48000r			; -1700
	DD	0c64c1000r			; -13060
	DD	046f2bc00r			; 31070
	DD	045480000r			; 3200
	DD	0c7293800r			; -43320
	DD	0c7bdc400r			; -97160
	DD	0c4d48000r			; -1700
	DD	04576e000r			; 3950
	DD	0c792e000r			; -75200
	DD	0c4bb8000r			; -1500
	DD	047957400r			; 76520
	DD	04759ee00r			; 55790
	DD	0c5a1e000r			; -5180
	DD	0c7a24e00r			; -83100
	DD	0c7473800r			; -51000
	DD	0c3a00000r			; -320
	DD	0c7829100r			; -66850
	DD	047733400r			; 62260
	DD	0c3a00000r			; -320
	DD	047708200r			; 61570
	DD	0c7710e00r			; -61710
	DD	0c550c000r			; -3340
	DD	046fb7c00r			; 32190
	DD	0c7719a00r			; -61850
	DD	0c7483200r			; -51250
	DD	047543a00r			; 54330
	DD	0c5bcc000r			; -6040
	DD	0c7495400r			; -51540
	DD	0c694ac00r			; -19030
	DD	0c6a7a800r			; -21460
	DD	0c74b0200r			; -51970
	DD	0468e8000r			; 18240
	DD	047298800r			; 43400
	DD	0c74bf200r			; -52210
	DD	046bc7000r			; 24120
	DD	0c749f400r			; -51700
	DD	0c74bc000r			; -52160
	DD	046948400r			; 19010
	DD	0c605e800r			; -8570
	DD	0c7488200r			; -51330
	DD	0c74ca600r			; -52390
	DD	04731bc00r			; 45500
	DD	0c7509800r			; -53400
	DD	0c6725800r			; -15510
	DD	0c7719a00r			; -61850
	DD	0c7483200r			; -51250
	DD	047543a00r			; 54330
	DD	047553400r			; 54580
	DD	0c74ddc00r			; -52700
	DD	0479a5600r			; 79020
	DD	047a7e400r			; 85960
	DD	0c74c5600r			; -52310
	DD	0477d4800r			; 64840
	DD	0c7c44500r			; -100490
	DD	0c74d1400r			; -52500
	DD	047ac2600r			; 88140
	DD	0c7a1ae00r			; -82780
	DD	0c749ea00r			; -51690
	DD	0c7bce300r			; -96710
	DD	0c6126800r			; -9370
	DD	0c7495400r			; -51540
	DD	043cd0000r			; 410
	DD	0c6a7a800r			; -21460
	DD	0c74a8a00r			; -51850
	DD	0473fae00r			; 49070
	DD	0457c8000r			; 4040
	DD	0c74e4a00r			; -52810
	DD	047871e00r			; 69180
	DD	0c6cbc000r			; -26080
	DD	0c74bc000r			; -52160
	DD	046984400r			; 19490
	DD	0452fa000r			; 2810
	DD	0c7488200r			; -51330
	DD	0c7081800r			; -34840
	DD	0c7719a00r			; -61850
	DD	0c749d600r			; -51670
	DD	047b17600r			; 90860
	DD	047553400r			; 54580
	DD	0c74ddc00r			; -52700
	DD	0479a5600r			; 79020
	DD	047a7e400r			; 85960
	DD	0c74c5600r			; -52310
	DD	0477d4800r			; 64840
	DD	0c7c44500r			; -100490
	DD	0c74d1400r			; -52500
	DD	047ac2600r			; 88140
	DD	047c04e00r			; 98460
	DD	0c74d1400r			; -52500
	DD	0c732a200r			; -45730
	DD	0467b9000r			; 16100
	DD	0c7487800r			; -51320
	DD	0c749a400r			; -51620
	DD	047636c00r			; 58220
	DD	0c74e0400r			; -52740
	DD	0c760b000r			; -57520
	DD	0c6126800r			; -9370
	DD	0c4070000r			; -540
	DD	043cd0000r			; 410
	DD	0c4e60000r			; -1840
	DD	0c6a30c00r			; -20870
	DD	0470a6600r			; 35430
	DD	0c7230c00r			; -41740
	DD	046924000r			; 18720
	DD	04797d600r			; 77740
	DD	0460d9000r			; 9060
	DD	0c616c800r			; -9650
	DD	0c7921300r			; -74790
_lightningPosList DD 041300000r			; 11
	DD	000000000r			; 0
	DD	040e00000r			; 7
	DD	040a00000r			; 5
	DD	041100000r			; 9
	DD	041000000r			; 8
	DD	041000000r			; 8
	DD	041600000r			; 14
	DD	041800000r			; 16
	DD	041a00000r			; 20
	DD	041200000r			; 10
	DD	041c00000r			; 24
	DD	041300000r			; 11
	DD	041d80000r			; 27
	DD	040c00000r			; 6
	DD	041f00000r			; 30
	DD	040e00000r			; 7
	DD	042040000r			; 33
	DD	03f800000r			; 1
	DD	042180000r			; 38
	DD	040a00000r			; 5
	DD	042280000r			; 42
	DD	040a00000r			; 5
	DD	042340000r			; 45
	DD	041400000r			; 12
	DD	042400000r			; 48
	DD	041a00000r			; 20
	DD	042500000r			; 52
	DD	041a00000r			; 20
	DD	042680000r			; 58
	DD	041b80000r			; 23
	DD	042740000r			; 61
	DD	041b00000r			; 22
	DD	0427c0000r			; 63
	DD	041b00000r			; 22
	DD	042840000r			; 66
	DD	041c80000r			; 25
	DD	042880000r			; 68
	DD	041a00000r			; 20
	DD	0428c0000r			; 70
	DD	041c00000r			; 24
	DD	042960000r			; 75
	DD	041c00000r			; 24
	DD	0429a0000r			; 77
	DD	041f80000r			; 31
	DD	042a00000r			; 80
	DD	041f80000r			; 31
	DD	042a60000r			; 83
	DD	042040000r			; 33
	DD	042b00000r			; 88
	DD	041f80000r			; 31
	DD	042b80000r			; 92
	DD	0423c0000r			; 47
	DD	042ce0000r			; 103
	DD	042380000r			; 46
	DD	042d20000r			; 105
	DD	0423c0000r			; 47
	DD	042d60000r			; 107
	DD	042340000r			; 45
	DD	042e00000r			; 112
	DD	042400000r			; 48
	DD	042e40000r			; 114
	DD	042380000r			; 46
	DD	042ea0000r			; 117
	DD	0422c0000r			; 43
	DD	043000000r			; 128
_DATA	ENDS
;	COMDAT ?radix@_Num_int_base@std@@2HB
CONST	SEGMENT
?radix@_Num_int_base@std@@2HB DD 02H			; std::_Num_int_base::radix
CONST	ENDS
;	COMDAT ?is_specialized@_Num_int_base@std@@2_NB
CONST	SEGMENT
?is_specialized@_Num_int_base@std@@2_NB DB 01H		; std::_Num_int_base::is_specialized
CONST	ENDS
;	COMDAT ?is_modulo@_Num_int_base@std@@2_NB
CONST	SEGMENT
?is_modulo@_Num_int_base@std@@2_NB DB 01H		; std::_Num_int_base::is_modulo
CONST	ENDS
;	COMDAT ?is_integer@_Num_int_base@std@@2_NB
CONST	SEGMENT
?is_integer@_Num_int_base@std@@2_NB DB 01H		; std::_Num_int_base::is_integer
CONST	ENDS
;	COMDAT ?is_exact@_Num_int_base@std@@2_NB
CONST	SEGMENT
?is_exact@_Num_int_base@std@@2_NB DB 01H		; std::_Num_int_base::is_exact
CONST	ENDS
;	COMDAT ?is_bounded@_Num_int_base@std@@2_NB
CONST	SEGMENT
?is_bounded@_Num_int_base@std@@2_NB DB 01H		; std::_Num_int_base::is_bounded
CONST	ENDS
;	COMDAT ?radix@_Num_base@std@@2HB
CONST	SEGMENT
?radix@_Num_base@std@@2HB DD 00H			; std::_Num_base::radix
CONST	ENDS
;	COMDAT ?min_exponent10@_Num_base@std@@2HB
CONST	SEGMENT
?min_exponent10@_Num_base@std@@2HB DD 00H		; std::_Num_base::min_exponent10
CONST	ENDS
;	COMDAT ?min_exponent@_Num_base@std@@2HB
CONST	SEGMENT
?min_exponent@_Num_base@std@@2HB DD 00H			; std::_Num_base::min_exponent
CONST	ENDS
;	COMDAT ?max_exponent10@_Num_base@std@@2HB
CONST	SEGMENT
?max_exponent10@_Num_base@std@@2HB DD 00H		; std::_Num_base::max_exponent10
CONST	ENDS
;	COMDAT ?max_exponent@_Num_base@std@@2HB
CONST	SEGMENT
?max_exponent@_Num_base@std@@2HB DD 00H			; std::_Num_base::max_exponent
CONST	ENDS
;	COMDAT ?max_digits10@_Num_base@std@@2HB
CONST	SEGMENT
?max_digits10@_Num_base@std@@2HB DD 00H			; std::_Num_base::max_digits10
CONST	ENDS
;	COMDAT ?digits10@_Num_base@std@@2HB
CONST	SEGMENT
?digits10@_Num_base@std@@2HB DD 00H			; std::_Num_base::digits10
CONST	ENDS
;	COMDAT ?digits@_Num_base@std@@2HB
CONST	SEGMENT
?digits@_Num_base@std@@2HB DD 00H			; std::_Num_base::digits
CONST	ENDS
;	COMDAT ?round_style@_Num_base@std@@2W4float_round_style@2@B
CONST	SEGMENT
?round_style@_Num_base@std@@2W4float_round_style@2@B DD 00H ; std::_Num_base::round_style
CONST	ENDS
;	COMDAT ?traps@_Num_base@std@@2_NB
CONST	SEGMENT
?traps@_Num_base@std@@2_NB DB 00H			; std::_Num_base::traps
CONST	ENDS
;	COMDAT ?tinyness_before@_Num_base@std@@2_NB
CONST	SEGMENT
?tinyness_before@_Num_base@std@@2_NB DB 00H		; std::_Num_base::tinyness_before
CONST	ENDS
;	COMDAT ?is_specialized@_Num_base@std@@2_NB
CONST	SEGMENT
?is_specialized@_Num_base@std@@2_NB DB 00H		; std::_Num_base::is_specialized
CONST	ENDS
;	COMDAT ?is_signed@_Num_base@std@@2_NB
CONST	SEGMENT
?is_signed@_Num_base@std@@2_NB DB 00H			; std::_Num_base::is_signed
CONST	ENDS
;	COMDAT ?is_modulo@_Num_base@std@@2_NB
CONST	SEGMENT
?is_modulo@_Num_base@std@@2_NB DB 00H			; std::_Num_base::is_modulo
CONST	ENDS
;	COMDAT ?is_integer@_Num_base@std@@2_NB
CONST	SEGMENT
?is_integer@_Num_base@std@@2_NB DB 00H			; std::_Num_base::is_integer
CONST	ENDS
;	COMDAT ?is_iec559@_Num_base@std@@2_NB
CONST	SEGMENT
?is_iec559@_Num_base@std@@2_NB DB 00H			; std::_Num_base::is_iec559
CONST	ENDS
;	COMDAT ?is_exact@_Num_base@std@@2_NB
CONST	SEGMENT
?is_exact@_Num_base@std@@2_NB DB 00H			; std::_Num_base::is_exact
CONST	ENDS
;	COMDAT ?is_bounded@_Num_base@std@@2_NB
CONST	SEGMENT
?is_bounded@_Num_base@std@@2_NB DB 00H			; std::_Num_base::is_bounded
CONST	ENDS
;	COMDAT ?has_signaling_NaN@_Num_base@std@@2_NB
CONST	SEGMENT
?has_signaling_NaN@_Num_base@std@@2_NB DB 00H		; std::_Num_base::has_signaling_NaN
CONST	ENDS
;	COMDAT ?has_quiet_NaN@_Num_base@std@@2_NB
CONST	SEGMENT
?has_quiet_NaN@_Num_base@std@@2_NB DB 00H		; std::_Num_base::has_quiet_NaN
CONST	ENDS
;	COMDAT ?has_infinity@_Num_base@std@@2_NB
CONST	SEGMENT
?has_infinity@_Num_base@std@@2_NB DB 00H		; std::_Num_base::has_infinity
CONST	ENDS
;	COMDAT ?has_denorm_loss@_Num_base@std@@2_NB
CONST	SEGMENT
?has_denorm_loss@_Num_base@std@@2_NB DB 00H		; std::_Num_base::has_denorm_loss
CONST	ENDS
;	COMDAT ?has_denorm@_Num_base@std@@2W4float_denorm_style@2@B
CONST	SEGMENT
?has_denorm@_Num_base@std@@2W4float_denorm_style@2@B DD 00H ; std::_Num_base::has_denorm
CONST	ENDS
;	COMDAT ?CMPDIRTYDATA_INTERVAL@FalconEntity@@2KB
CONST	SEGMENT
?CMPDIRTYDATA_INTERVAL@FalconEntity@@2KB DD 0c8H	; FalconEntity::CMPDIRTYDATA_INTERVAL
CONST	ENDS
;	COMDAT ?SIMDIRTYDATA_INTERVAL@FalconEntity@@2KB
CONST	SEGMENT
?SIMDIRTYDATA_INTERVAL@FalconEntity@@2KB DD 0c8H	; FalconEntity::SIMDIRTYDATA_INTERVAL
CONST	ENDS
;	COMDAT ?value@?$_Sizeof@U_Nil@std@@U12@U12@U12@U12@U12@U12@U12@@std@@2IB
CONST	SEGMENT
?value@?$_Sizeof@U_Nil@std@@U12@U12@U12@U12@U12@U12@U12@@std@@2IB DD 00H ; std::_Sizeof<std::_Nil,std::_Nil,std::_Nil,std::_Nil,std::_Nil,std::_Nil,std::_Nil,std::_Nil>::value
CONST	ENDS
PUBLIC	?abs@@YAJJ@Z					; abs
PUBLIC	_fabsf
PUBLIC	_asinf
PUBLIC	_cosf
PUBLIC	_sinf
PUBLIC	?asin@@YAMM@Z					; asin
PUBLIC	?cos@@YAMM@Z					; cos
PUBLIC	?fabs@@YAMM@Z					; fabs
PUBLIC	?sin@@YAMM@Z					; sin
PUBLIC	??2@YAPAXIPAX@Z					; operator new
PUBLIC	??3@YAXPAX0@Z					; operator delete
PUBLIC	?length@?$char_traits@D@std@@SAIPBD@Z		; std::char_traits<char>::length
PUBLIC	?copy@?$char_traits@D@std@@SAPADPADPBDI@Z	; std::char_traits<char>::copy
PUBLIC	?move@?$char_traits@D@std@@SAPADPADPBDI@Z	; std::char_traits<char>::move
PUBLIC	?assign@?$char_traits@D@std@@SAXAADABD@Z	; std::char_traits<char>::assign
PUBLIC	?_Orphan_all@_Container_base0@std@@QAEXXZ	; std::_Container_base0::_Orphan_all
PUBLIC	?_Adopt@_Iterator_base0@std@@QAEXPBX@Z		; std::_Iterator_base0::_Adopt
PUBLIC	??0?$allocator@D@std@@QAE@XZ			; std::allocator<char>::allocator<char>
PUBLIC	?deallocate@?$allocator@D@std@@QAEXPADI@Z	; std::allocator<char>::deallocate
PUBLIC	?allocate@?$allocator@D@std@@QAEPADI@Z		; std::allocator<char>::allocate
PUBLIC	?max_size@?$allocator@D@std@@QBEIXZ		; std::allocator<char>::max_size
PUBLIC	?max_size@?$allocator_traits@V?$allocator@D@std@@@std@@SAIABV?$allocator@D@2@@Z ; std::allocator_traits<std::allocator<char> >::max_size
PUBLIC	??0?$_Wrap_alloc@V?$allocator@D@std@@@std@@QAE@XZ ; std::_Wrap_alloc<std::allocator<char> >::_Wrap_alloc<std::allocator<char> >
PUBLIC	?allocate@?$_Wrap_alloc@V?$allocator@D@std@@@std@@QAEPADI@Z ; std::_Wrap_alloc<std::allocator<char> >::allocate
PUBLIC	?deallocate@?$_Wrap_alloc@V?$allocator@D@std@@@std@@QAEXPADI@Z ; std::_Wrap_alloc<std::allocator<char> >::deallocate
PUBLIC	?max_size@?$_Wrap_alloc@V?$allocator@D@std@@@std@@QBEIXZ ; std::_Wrap_alloc<std::allocator<char> >::max_size
PUBLIC	??0?$_String_val@U?$_Simple_types@D@std@@@std@@QAE@XZ ; std::_String_val<std::_Simple_types<char> >::_String_val<std::_Simple_types<char> >
PUBLIC	?_Myptr@?$_String_val@U?$_Simple_types@D@std@@@std@@QAEPADXZ ; std::_String_val<std::_Simple_types<char> >::_Myptr
PUBLIC	?_Myptr@?$_String_val@U?$_Simple_types@D@std@@@std@@QBEPBDXZ ; std::_String_val<std::_Simple_types<char> >::_Myptr
PUBLIC	??0?$_String_alloc@$0A@U?$_String_base_types@DV?$allocator@D@std@@@std@@@std@@QAE@ABV?$allocator@D@1@@Z ; std::_String_alloc<0,std::_String_base_types<char,std::allocator<char> > >::_String_alloc<0,std::_String_base_types<char,std::allocator<char> > >
PUBLIC	?_Getal@?$_String_alloc@$0A@U?$_String_base_types@DV?$allocator@D@std@@@std@@@std@@QBE?AU?$_Wrap_alloc@V?$allocator@D@std@@@2@XZ ; std::_String_alloc<0,std::_String_base_types<char,std::allocator<char> > >::_Getal
PUBLIC	??0?$basic_string@DU?$char_traits@D@std@@V?$allocator@D@2@@std@@QAE@PBD@Z ; std::basic_string<char,std::char_traits<char>,std::allocator<char> >::basic_string<char,std::char_traits<char>,std::allocator<char> >
PUBLIC	?assign@?$basic_string@DU?$char_traits@D@std@@V?$allocator@D@2@@std@@QAEAAV12@ABV12@II@Z ; std::basic_string<char,std::char_traits<char>,std::allocator<char> >::assign
PUBLIC	?assign@?$basic_string@DU?$char_traits@D@std@@V?$allocator@D@2@@std@@QAEAAV12@PBDI@Z ; std::basic_string<char,std::char_traits<char>,std::allocator<char> >::assign
PUBLIC	?assign@?$basic_string@DU?$char_traits@D@std@@V?$allocator@D@2@@std@@QAEAAV12@PBD@Z ; std::basic_string<char,std::char_traits<char>,std::allocator<char> >::assign
PUBLIC	?erase@?$basic_string@DU?$char_traits@D@std@@V?$allocator@D@2@@std@@QAEAAV12@I@Z ; std::basic_string<char,std::char_traits<char>,std::allocator<char> >::erase
PUBLIC	?erase@?$basic_string@DU?$char_traits@D@std@@V?$allocator@D@2@@std@@QAEAAV12@II@Z ; std::basic_string<char,std::char_traits<char>,std::allocator<char> >::erase
PUBLIC	?size@?$basic_string@DU?$char_traits@D@std@@V?$allocator@D@2@@std@@QBEIXZ ; std::basic_string<char,std::char_traits<char>,std::allocator<char> >::size
PUBLIC	?max_size@?$basic_string@DU?$char_traits@D@std@@V?$allocator@D@2@@std@@QBEIXZ ; std::basic_string<char,std::char_traits<char>,std::allocator<char> >::max_size
PUBLIC	?_Copy@?$basic_string@DU?$char_traits@D@std@@V?$allocator@D@2@@std@@QAEXII@Z ; std::basic_string<char,std::char_traits<char>,std::allocator<char> >::_Copy
PUBLIC	?_Eos@?$basic_string@DU?$char_traits@D@std@@V?$allocator@D@2@@std@@QAEXI@Z ; std::basic_string<char,std::char_traits<char>,std::allocator<char> >::_Eos
PUBLIC	?_Grow@?$basic_string@DU?$char_traits@D@std@@V?$allocator@D@2@@std@@QAE_NI_N@Z ; std::basic_string<char,std::char_traits<char>,std::allocator<char> >::_Grow
PUBLIC	?_Inside@?$basic_string@DU?$char_traits@D@std@@V?$allocator@D@2@@std@@QAE_NPBD@Z ; std::basic_string<char,std::char_traits<char>,std::allocator<char> >::_Inside
PUBLIC	?_Tidy@?$basic_string@DU?$char_traits@D@std@@V?$allocator@D@2@@std@@QAEX_NI@Z ; std::basic_string<char,std::char_traits<char>,std::allocator<char> >::_Tidy
PUBLIC	?_Xlen@?$basic_string@DU?$char_traits@D@std@@V?$allocator@D@2@@std@@QBEXXZ ; std::basic_string<char,std::char_traits<char>,std::allocator<char> >::_Xlen
PUBLIC	?_Xran@?$basic_string@DU?$char_traits@D@std@@V?$allocator@D@2@@std@@QBEXXZ ; std::basic_string<char,std::char_traits<char>,std::allocator<char> >::_Xran
PUBLIC	??0F4ScopeLock@@QAE@PAUF4CSECTIONHANDLE@@@Z	; F4ScopeLock::F4ScopeLock
PUBLIC	??1F4ScopeLock@@QAE@XZ				; F4ScopeLock::~F4ScopeLock
PUBLIC	??0VU_SESSION_ID@@QAE@K@Z			; VU_SESSION_ID::VU_SESSION_ID
PUBLIC	??8VU_SESSION_ID@@QBEHABV0@@Z			; VU_SESSION_ID::operator==
PUBLIC	??0VU_ID@@QAE@XZ				; VU_ID::VU_ID
PUBLIC	??8VU_ID@@QBE_NABV0@@Z				; VU_ID::operator==
PUBLIC	?SetYPR@VuEntity@@QAEXMMM@Z			; VuEntity::SetYPR
PUBLIC	?Id@VuEntity@@QBE?AVVU_ID@@XZ			; VuEntity::Id
PUBLIC	?XPos@VuEntity@@QBEMXZ				; VuEntity::XPos
PUBLIC	?YPos@VuEntity@@QBEMXZ				; VuEntity::YPos
PUBLIC	?ZPos@VuEntity@@QBEMXZ				; VuEntity::ZPos
PUBLIC	?Yaw@VuEntity@@QBEMXZ				; VuEntity::Yaw
PUBLIC	?Pitch@VuEntity@@QBEMXZ				; VuEntity::Pitch
PUBLIC	?Roll@VuEntity@@QBEMXZ				; VuEntity::Roll
PUBLIC	??B?$VuBin@VVuSessionEntity@@@@QBE_NXZ		; VuBin<VuSessionEntity>::operator bool
PUBLIC	?get@?$VuBin@VVuSessionEntity@@@@QBEPAVVuSessionEntity@@XZ ; VuBin<VuSessionEntity>::get
PUBLIC	?IsSim@FalconEntity@@QAEHXZ			; FalconEntity::IsSim
PUBLIC	??0id@locale@std@@QAE@I@Z			; std::locale::id::id
PUBLIC	?generic_category@std@@YAABVerror_category@1@XZ	; std::generic_category
PUBLIC	?system_category@std@@YAABVerror_category@1@XZ	; std::system_category
PUBLIC	??0error_category@std@@QAE@XZ			; std::error_category::error_category
PUBLIC	??1error_category@std@@UAE@XZ			; std::error_category::~error_category
PUBLIC	?default_error_condition@error_category@std@@UBE?AVerror_condition@2@H@Z ; std::error_category::default_error_condition
PUBLIC	?equivalent@error_category@std@@UBE_NHABVerror_condition@2@@Z ; std::error_category::equivalent
PUBLIC	?equivalent@error_category@std@@UBE_NABVerror_code@2@H@Z ; std::error_category::equivalent
PUBLIC	??8error_category@std@@QBE_NABV01@@Z		; std::error_category::operator==
PUBLIC	??_Gerror_category@std@@UAEPAXI@Z		; std::error_category::`scalar deleting destructor'
PUBLIC	?value@error_code@std@@QBEHXZ			; std::error_code::value
PUBLIC	?category@error_code@std@@QBEABVerror_category@2@XZ ; std::error_code::category
PUBLIC	??0error_condition@std@@QAE@HABVerror_category@1@@Z ; std::error_condition::error_condition
PUBLIC	?value@error_condition@std@@QBEHXZ		; std::error_condition::value
PUBLIC	?category@error_condition@std@@QBEABVerror_category@2@XZ ; std::error_condition::category
PUBLIC	??8error_condition@std@@QBE_NABV01@@Z		; std::error_condition::operator==
PUBLIC	??0_Generic_error_category@std@@QAE@XZ		; std::_Generic_error_category::_Generic_error_category
PUBLIC	?name@_Generic_error_category@std@@UBEPBDXZ	; std::_Generic_error_category::name
PUBLIC	?message@_Generic_error_category@std@@UBE?AV?$basic_string@DU?$char_traits@D@std@@V?$allocator@D@2@@2@H@Z ; std::_Generic_error_category::message
PUBLIC	??1_Generic_error_category@std@@UAE@XZ		; std::_Generic_error_category::~_Generic_error_category
PUBLIC	??_G_Generic_error_category@std@@UAEPAXI@Z	; std::_Generic_error_category::`scalar deleting destructor'
PUBLIC	??0_Iostream_error_category@std@@QAE@XZ		; std::_Iostream_error_category::_Iostream_error_category
PUBLIC	?name@_Iostream_error_category@std@@UBEPBDXZ	; std::_Iostream_error_category::name
PUBLIC	?message@_Iostream_error_category@std@@UBE?AV?$basic_string@DU?$char_traits@D@std@@V?$allocator@D@2@@2@H@Z ; std::_Iostream_error_category::message
PUBLIC	??1_Iostream_error_category@std@@UAE@XZ		; std::_Iostream_error_category::~_Iostream_error_category
PUBLIC	??_G_Iostream_error_category@std@@UAEPAXI@Z	; std::_Iostream_error_category::`scalar deleting destructor'
PUBLIC	??0_System_error_category@std@@QAE@XZ		; std::_System_error_category::_System_error_category
PUBLIC	?name@_System_error_category@std@@UBEPBDXZ	; std::_System_error_category::name
PUBLIC	?message@_System_error_category@std@@UBE?AV?$basic_string@DU?$char_traits@D@std@@V?$allocator@D@2@@2@H@Z ; std::_System_error_category::message
PUBLIC	?default_error_condition@_System_error_category@std@@UBE?AVerror_condition@2@H@Z ; std::_System_error_category::default_error_condition
PUBLIC	??1_System_error_category@std@@UAE@XZ		; std::_System_error_category::~_System_error_category
PUBLIC	??_G_System_error_category@std@@UAEPAXI@Z	; std::_System_error_category::`scalar deleting destructor'
PUBLIC	?CurrentForegroundColor@ContextMPR@@QAEHXZ	; ContextMPR::CurrentForegroundColor
PUBLIC	?mlSinCos@@YAXPAUmlTrig@@M@Z			; mlSinCos
PUBLIC	?checked_atan2@@YANNN@Z				; checked_atan2
PUBLIC	?HazingOn@PlayerOptionsClass@@QAEHXZ		; PlayerOptionsClass::HazingOn
PUBLIC	?FilteringOn@PlayerOptionsClass@@QAEHXZ		; PlayerOptionsClass::FilteringOn
PUBLIC	?TerrainDistance@PlayerOptionsClass@@QAEMXZ	; PlayerOptionsClass::TerrainDistance
PUBLIC	?MaxTerrainLevel@PlayerOptionsClass@@QAEHXZ	; PlayerOptionsClass::MaxTerrainLevel
PUBLIC	?ObjectDetailLevel@PlayerOptionsClass@@QAEMXZ	; PlayerOptionsClass::ObjectDetailLevel
PUBLIC	?ObjectMagnification@PlayerOptionsClass@@QAEMXZ	; PlayerOptionsClass::ObjectMagnification
PUBLIC	?BlackoutOn@PlayerOptionsClass@@QAEHXZ		; PlayerOptionsClass::BlackoutOn
PUBLIC	?NameTagsOn@PlayerOptionsClass@@QAEHXZ		; PlayerOptionsClass::NameTagsOn
PUBLIC	?WeatherOn@PlayerOptionsClass@@QAEHXZ		; PlayerOptionsClass::WeatherOn
PUBLIC	?getInfoBar@PlayerOptionsClass@@QBE_NXZ		; PlayerOptionsClass::getInfoBar
PUBLIC	?getSubtitles@PlayerOptionsClass@@QBE_NXZ	; PlayerOptionsClass::getSubtitles
PUBLIC	?GetKeyboardPOVPanningSensitivity@PlayerOptionsClass@@QAEHXZ ; PlayerOptionsClass::GetKeyboardPOVPanningSensitivity
PUBLIC	?GetClickablePitMode@PlayerOptionsClass@@QAE_NXZ ; PlayerOptionsClass::GetClickablePitMode
PUBLIC	?IsFiring@SimBaseClass@@QBEHXZ			; SimBaseClass::IsFiring
PUBLIC	?IsAwake@SimBaseClass@@QBEHXZ			; SimBaseClass::IsAwake
PUBLIC	?get@?$VuBin@VFalconEntity@@@@QBEPAVFalconEntity@@XZ ; VuBin<FalconEntity>::get
PUBLIC	?PositandOrientSetData@@YAXMMMMMMPAUTpoint@@PAUTrotation@@@Z ; PositandOrientSetData
PUBLIC	??0OTWDriverClass@@QAE@XZ			; OTWDriverClass::OTWDriverClass
PUBLIC	??1OTWDriverClass@@QAE@XZ			; OTWDriverClass::~OTWDriverClass
PUBLIC	?UpdateViewpoints@OTWDriverClass@@QAEXXZ	; OTWDriverClass::UpdateViewpoints
PUBLIC	?AddViewpoint@OTWDriverClass@@QAEXPAVFalconSessionEntity@@@Z ; OTWDriverClass::AddViewpoint
PUBLIC	?RemoveViewpoint@OTWDriverClass@@QAEXPAVFalconSessionEntity@@@Z ; OTWDriverClass::RemoveViewpoint
PUBLIC	?Enter@OTWDriverClass@@QAEXXZ			; OTWDriverClass::Enter
PUBLIC	?Exit@OTWDriverClass@@QAEHXZ			; OTWDriverClass::Exit
PUBLIC	?DisplayInCockpit@OTWDriverClass@@QAEHXZ	; OTWDriverClass::DisplayInCockpit
PUBLIC	?GetGroundLevel@OTWDriverClass@@QAEMMMPAUTpoint@@@Z ; OTWDriverClass::GetGroundLevel
PUBLIC	?GetApproxGroundLevel@OTWDriverClass@@QAEMMM@Z	; OTWDriverClass::GetApproxGroundLevel
PUBLIC	?GetAreaFloorAndCeiling@OTWDriverClass@@QAEXPAM0@Z ; OTWDriverClass::GetAreaFloorAndCeiling
PUBLIC	?GetGroundIntersection@OTWDriverClass@@QAEHPAUeuler@@PAUvector@@@Z ; OTWDriverClass::GetGroundIntersection
PUBLIC	?SetGraphicsOwnship@OTWDriverClass@@QAEXPAVSimBaseClass@@@Z ; OTWDriverClass::SetGraphicsOwnship
PUBLIC	?SetTrackPlatform@OTWDriverClass@@QAEXPAVSimBaseClass@@@Z ; OTWDriverClass::SetTrackPlatform
PUBLIC	?FindNextViewObject@OTWDriverClass@@QAEPAVSimBaseClass@@PAVFalconEntity@@PAV2@W4ViewFindMode@1@@Z ; OTWDriverClass::FindNextViewObject
PUBLIC	?ObjectSetData@OTWDriverClass@@QAEXPAVSimBaseClass@@PAUTpoint@@PAUTrotation@@@Z ; OTWDriverClass::ObjectSetData
PUBLIC	?UpdateCameraFocus@OTWDriverClass@@QAEXXZ	; OTWDriverClass::UpdateCameraFocus
PUBLIC	?GetViewpoint@OTWDriverClass@@QAEPAVRViewPoint@@XZ ; OTWDriverClass::GetViewpoint
PUBLIC	?InitViewpoint@OTWDriverClass@@QAEXXZ		; OTWDriverClass::InitViewpoint
PUBLIC	?CleanViewpoint@OTWDriverClass@@QAEXXZ		; OTWDriverClass::CleanViewpoint
PUBLIC	?SetFOV@OTWDriverClass@@QAEXM@Z			; OTWDriverClass::SetFOV
PUBLIC	?GetFOV@OTWDriverClass@@QAEMXZ			; OTWDriverClass::GetFOV
PUBLIC	?CheckLOS@OTWDriverClass@@QAEHPAVFalconEntity@@0@Z ; OTWDriverClass::CheckLOS
PUBLIC	?CheckCloudLOS@OTWDriverClass@@QAEHPAVFalconEntity@@0@Z ; OTWDriverClass::CheckCloudLOS
PUBLIC	?CheckCompositLOS@OTWDriverClass@@QAEHPAVFalconEntity@@0@Z ; OTWDriverClass::CheckCompositLOS
PUBLIC	?SetActive@OTWDriverClass@@QAEXH@Z		; OTWDriverClass::SetActive
PUBLIC	?SetShutdown@OTWDriverClass@@QAEXH@Z		; OTWDriverClass::SetShutdown
PUBLIC	?ScrollMessages@OTWDriverClass@@QAEXXZ		; OTWDriverClass::ScrollMessages
PUBLIC	?ShowMessage@OTWDriverClass@@QAEXPAD@Z		; OTWDriverClass::ShowMessage
PUBLIC	?SetResolution@OTWDriverClass@@QAEXH@Z		; OTWDriverClass::SetResolution
PUBLIC	?RunActionCamera@OTWDriverClass@@QAEXXZ		; OTWDriverClass::RunActionCamera
PUBLIC	?DistanceFromCloudEdge@OTWDriverClass@@QAEMXZ	; OTWDriverClass::DistanceFromCloudEdge
PUBLIC	?RemoveObjectFromDrawList@OTWDriverClass@@AAEXPAVSimBaseClass@@@Z ; OTWDriverClass::RemoveObjectFromDrawList
PUBLIC	?FindNewOwnship@OTWDriverClass@@AAEXXZ		; OTWDriverClass::FindNewOwnship
PUBLIC	??0CamDisplacement@OTWDriverClass@@QAE@MMM@Z	; OTWDriverClass::CamDisplacement::CamDisplacement
PUBLIC	??0?$VuBin@VSimBaseClass@@@@QAE@PAVSimBaseClass@@@Z ; VuBin<SimBaseClass>::VuBin<SimBaseClass>
PUBLIC	??1?$VuBin@VSimBaseClass@@@@QAE@XZ		; VuBin<SimBaseClass>::~VuBin<SimBaseClass>
PUBLIC	??C?$VuBin@VSimBaseClass@@@@QBEPAVSimBaseClass@@XZ ; VuBin<SimBaseClass>::operator->
PUBLIC	?get@?$VuBin@VSimBaseClass@@@@QBEPAVSimBaseClass@@XZ ; VuBin<SimBaseClass>::get
PUBLIC	?reset@?$VuBin@VSimBaseClass@@@@QAEXPAVSimBaseClass@@@Z ; VuBin<SimBaseClass>::reset
PUBLIC	?RunHybridPitMode@OTWDriverClass@@AAEXMM@Z	; OTWDriverClass::RunHybridPitMode
PUBLIC	??0?$allocator@PAVVDial@@@std@@QAE@XZ		; std::allocator<VDial *>::allocator<VDial *>
PUBLIC	?deallocate@?$allocator@PAVVDial@@@std@@QAEXPAPAVVDial@@I@Z ; std::allocator<VDial *>::deallocate
PUBLIC	??0?$_Wrap_alloc@V?$allocator@PAVVDial@@@std@@@std@@QAE@XZ ; std::_Wrap_alloc<std::allocator<VDial *> >::_Wrap_alloc<std::allocator<VDial *> >
PUBLIC	?deallocate@?$_Wrap_alloc@V?$allocator@PAVVDial@@@std@@@std@@QAEXPAPAVVDial@@I@Z ; std::_Wrap_alloc<std::allocator<VDial *> >::deallocate
PUBLIC	??0?$_Vector_val@U?$_Simple_types@PAVVDial@@@std@@@std@@QAE@XZ ; std::_Vector_val<std::_Simple_types<VDial *> >::_Vector_val<std::_Simple_types<VDial *> >
PUBLIC	??0?$_Vector_alloc@$0A@U?$_Vec_base_types@PAVVDial@@V?$allocator@PAVVDial@@@std@@@std@@@std@@QAE@ABV?$allocator@PAVVDial@@@1@@Z ; std::_Vector_alloc<0,std::_Vec_base_types<VDial *,std::allocator<VDial *> > >::_Vector_alloc<0,std::_Vec_base_types<VDial *,std::allocator<VDial *> > >
PUBLIC	?_Getal@?$_Vector_alloc@$0A@U?$_Vec_base_types@PAVVDial@@V?$allocator@PAVVDial@@@std@@@std@@@std@@QBE?AU?$_Wrap_alloc@V?$allocator@PAVVDial@@@std@@@2@XZ ; std::_Vector_alloc<0,std::_Vec_base_types<VDial *,std::allocator<VDial *> > >::_Getal
PUBLIC	??0?$vector@PAVVDial@@V?$allocator@PAVVDial@@@std@@@std@@QAE@XZ ; std::vector<VDial *,std::allocator<VDial *> >::vector<VDial *,std::allocator<VDial *> >
PUBLIC	??1?$vector@PAVVDial@@V?$allocator@PAVVDial@@@std@@@std@@QAE@XZ ; std::vector<VDial *,std::allocator<VDial *> >::~vector<VDial *,std::allocator<VDial *> >
PUBLIC	?_Destroy@?$vector@PAVVDial@@V?$allocator@PAVVDial@@@std@@@std@@IAEXPAPAVVDial@@0@Z ; std::vector<VDial *,std::allocator<VDial *> >::_Destroy
PUBLIC	?_Tidy@?$vector@PAVVDial@@V?$allocator@PAVVDial@@@std@@@std@@IAEXXZ ; std::vector<VDial *,std::allocator<VDial *> >::_Tidy
PUBLIC	??R?$less@V?$VuBin@VFalconSessionEntity@@@@@std@@QBE_NABV?$VuBin@VFalconSessionEntity@@@@0@Z ; std::less<VuBin<FalconSessionEntity> >::operator()
PUBLIC	??0?$allocator@U?$pair@$$CBV?$VuBin@VFalconSessionEntity@@@@PAVTViewPoint@@@std@@@std@@QAE@XZ ; std::allocator<std::pair<VuBin<FalconSessionEntity> const ,TViewPoint *> >::allocator<std::pair<VuBin<FalconSessionEntity> const ,TViewPoint *> >
PUBLIC	??0?$allocator@U?$_Tree_node@U?$pair@$$CBV?$VuBin@VFalconSessionEntity@@@@PAVTViewPoint@@@std@@PAX@std@@@std@@QAE@XZ ; std::allocator<std::_Tree_node<std::pair<VuBin<FalconSessionEntity> const ,TViewPoint *>,void *> >::allocator<std::_Tree_node<std::pair<VuBin<FalconSessionEntity> const ,TViewPoint *>,void *> >
PUBLIC	?deallocate@?$allocator@U?$_Tree_node@U?$pair@$$CBV?$VuBin@VFalconSessionEntity@@@@PAVTViewPoint@@@std@@PAX@std@@@std@@QAEXPAU?$_Tree_node@U?$pair@$$CBV?$VuBin@VFalconSessionEntity@@@@PAVTViewPoint@@@std@@PAX@2@I@Z ; std::allocator<std::_Tree_node<std::pair<VuBin<FalconSessionEntity> const ,TViewPoint *>,void *> >::deallocate
PUBLIC	?allocate@?$allocator@U?$_Tree_node@U?$pair@$$CBV?$VuBin@VFalconSessionEntity@@@@PAVTViewPoint@@@std@@PAX@std@@@std@@QAEPAU?$_Tree_node@U?$pair@$$CBV?$VuBin@VFalconSessionEntity@@@@PAVTViewPoint@@@std@@PAX@2@I@Z ; std::allocator<std::_Tree_node<std::pair<VuBin<FalconSessionEntity> const ,TViewPoint *>,void *> >::allocate
PUBLIC	?max_size@?$allocator@U?$_Tree_node@U?$pair@$$CBV?$VuBin@VFalconSessionEntity@@@@PAVTViewPoint@@@std@@PAX@std@@@std@@QBEIXZ ; std::allocator<std::_Tree_node<std::pair<VuBin<FalconSessionEntity> const ,TViewPoint *>,void *> >::max_size
PUBLIC	?max_size@?$allocator_traits@V?$allocator@U?$_Tree_node@U?$pair@$$CBV?$VuBin@VFalconSessionEntity@@@@PAVTViewPoint@@@std@@PAX@std@@@std@@@std@@SAIABV?$allocator@U?$_Tree_node@U?$pair@$$CBV?$VuBin@VFalconSessionEntity@@@@PAVTViewPoint@@@std@@PAX@std@@@2@@Z ; std::allocator_traits<std::allocator<std::_Tree_node<std::pair<VuBin<FalconSessionEntity> const ,TViewPoint *>,void *> > >::max_size
PUBLIC	??0?$_Wrap_alloc@V?$allocator@U?$_Tree_node@U?$pair@$$CBV?$VuBin@VFalconSessionEntity@@@@PAVTViewPoint@@@std@@PAX@std@@@std@@@std@@QAE@XZ ; std::_Wrap_alloc<std::allocator<std::_Tree_node<std::pair<VuBin<FalconSessionEntity> const ,TViewPoint *>,void *> > >::_Wrap_alloc<std::allocator<std::_Tree_node<std::pair<VuBin<FalconSessionEntity> const ,TViewPoint *>,void *> > >
PUBLIC	?allocate@?$_Wrap_alloc@V?$allocator@U?$_Tree_node@U?$pair@$$CBV?$VuBin@VFalconSessionEntity@@@@PAVTViewPoint@@@std@@PAX@std@@@std@@@std@@QAEPAU?$_Tree_node@U?$pair@$$CBV?$VuBin@VFalconSessionEntity@@@@PAVTViewPoint@@@std@@PAX@2@I@Z ; std::_Wrap_alloc<std::allocator<std::_Tree_node<std::pair<VuBin<FalconSessionEntity> const ,TViewPoint *>,void *> > >::allocate
PUBLIC	?deallocate@?$_Wrap_alloc@V?$allocator@U?$_Tree_node@U?$pair@$$CBV?$VuBin@VFalconSessionEntity@@@@PAVTViewPoint@@@std@@PAX@std@@@std@@@std@@QAEXPAU?$_Tree_node@U?$pair@$$CBV?$VuBin@VFalconSessionEntity@@@@PAVTViewPoint@@@std@@PAX@2@I@Z ; std::_Wrap_alloc<std::allocator<std::_Tree_node<std::pair<VuBin<FalconSessionEntity> const ,TViewPoint *>,void *> > >::deallocate
PUBLIC	?max_size@?$_Wrap_alloc@V?$allocator@U?$_Tree_node@U?$pair@$$CBV?$VuBin@VFalconSessionEntity@@@@PAVTViewPoint@@@std@@PAX@std@@@std@@@std@@QBEIXZ ; std::_Wrap_alloc<std::allocator<std::_Tree_node<std::pair<VuBin<FalconSessionEntity> const ,TViewPoint *>,void *> > >::max_size
PUBLIC	??0?$_Tree_val@U?$_Tree_simple_types@U?$pair@$$CBV?$VuBin@VFalconSessionEntity@@@@PAVTViewPoint@@@std@@@std@@@std@@QAE@XZ ; std::_Tree_val<std::_Tree_simple_types<std::pair<VuBin<FalconSessionEntity> const ,TViewPoint *> > >::_Tree_val<std::_Tree_simple_types<std::pair<VuBin<FalconSessionEntity> const ,TViewPoint *> > >
PUBLIC	?_Color@?$_Tree_val@U?$_Tree_simple_types@U?$pair@$$CBV?$VuBin@VFalconSessionEntity@@@@PAVTViewPoint@@@std@@@std@@@std@@SAAADPAU?$_Tree_node@U?$pair@$$CBV?$VuBin@VFalconSessionEntity@@@@PAVTViewPoint@@@std@@PAX@2@@Z ; std::_Tree_val<std::_Tree_simple_types<std::pair<VuBin<FalconSessionEntity> const ,TViewPoint *> > >::_Color
PUBLIC	?_Isnil@?$_Tree_val@U?$_Tree_simple_types@U?$pair@$$CBV?$VuBin@VFalconSessionEntity@@@@PAVTViewPoint@@@std@@@std@@@std@@SAAADPAU?$_Tree_node@U?$pair@$$CBV?$VuBin@VFalconSessionEntity@@@@PAVTViewPoint@@@std@@PAX@2@@Z ; std::_Tree_val<std::_Tree_simple_types<std::pair<VuBin<FalconSessionEntity> const ,TViewPoint *> > >::_Isnil
PUBLIC	?_Left@?$_Tree_val@U?$_Tree_simple_types@U?$pair@$$CBV?$VuBin@VFalconSessionEntity@@@@PAVTViewPoint@@@std@@@std@@@std@@SAAAPAU?$_Tree_node@U?$pair@$$CBV?$VuBin@VFalconSessionEntity@@@@PAVTViewPoint@@@std@@PAX@2@PAU32@@Z ; std::_Tree_val<std::_Tree_simple_types<std::pair<VuBin<FalconSessionEntity> const ,TViewPoint *> > >::_Left
PUBLIC	?_Parent@?$_Tree_val@U?$_Tree_simple_types@U?$pair@$$CBV?$VuBin@VFalconSessionEntity@@@@PAVTViewPoint@@@std@@@std@@@std@@SAAAPAU?$_Tree_node@U?$pair@$$CBV?$VuBin@VFalconSessionEntity@@@@PAVTViewPoint@@@std@@PAX@2@PAU32@@Z ; std::_Tree_val<std::_Tree_simple_types<std::pair<VuBin<FalconSessionEntity> const ,TViewPoint *> > >::_Parent
PUBLIC	?_Right@?$_Tree_val@U?$_Tree_simple_types@U?$pair@$$CBV?$VuBin@VFalconSessionEntity@@@@PAVTViewPoint@@@std@@@std@@@std@@SAAAPAU?$_Tree_node@U?$pair@$$CBV?$VuBin@VFalconSessionEntity@@@@PAVTViewPoint@@@std@@PAX@2@PAU32@@Z ; std::_Tree_val<std::_Tree_simple_types<std::pair<VuBin<FalconSessionEntity> const ,TViewPoint *> > >::_Right
PUBLIC	?_Myval@?$_Tree_val@U?$_Tree_simple_types@U?$pair@$$CBV?$VuBin@VFalconSessionEntity@@@@PAVTViewPoint@@@std@@@std@@@std@@SAAAU?$pair@$$CBV?$VuBin@VFalconSessionEntity@@@@PAVTViewPoint@@@2@PAU?$_Tree_node@U?$pair@$$CBV?$VuBin@VFalconSessionEntity@@@@PAVTViewPoint@@@std@@PAX@2@@Z ; std::_Tree_val<std::_Tree_simple_types<std::pair<VuBin<FalconSessionEntity> const ,TViewPoint *> > >::_Myval
PUBLIC	?_Max@?$_Tree_val@U?$_Tree_simple_types@U?$pair@$$CBV?$VuBin@VFalconSessionEntity@@@@PAVTViewPoint@@@std@@@std@@@std@@SAPAU?$_Tree_node@U?$pair@$$CBV?$VuBin@VFalconSessionEntity@@@@PAVTViewPoint@@@std@@PAX@2@PAU32@@Z ; std::_Tree_val<std::_Tree_simple_types<std::pair<VuBin<FalconSessionEntity> const ,TViewPoint *> > >::_Max
PUBLIC	?_Min@?$_Tree_val@U?$_Tree_simple_types@U?$pair@$$CBV?$VuBin@VFalconSessionEntity@@@@PAVTViewPoint@@@std@@@std@@@std@@SAPAU?$_Tree_node@U?$pair@$$CBV?$VuBin@VFalconSessionEntity@@@@PAVTViewPoint@@@std@@PAX@2@PAU32@@Z ; std::_Tree_val<std::_Tree_simple_types<std::pair<VuBin<FalconSessionEntity> const ,TViewPoint *> > >::_Min
PUBLIC	??0?$_Tree_alloc@$0A@U?$_Tree_base_types@U?$pair@$$CBV?$VuBin@VFalconSessionEntity@@@@PAVTViewPoint@@@std@@V?$allocator@U?$pair@$$CBV?$VuBin@VFalconSessionEntity@@@@PAVTViewPoint@@@std@@@2@@std@@@std@@QAE@ABV?$allocator@U?$pair@$$CBV?$VuBin@VFalconSessionEntity@@@@PAVTViewPoint@@@std@@@1@@Z ; std::_Tree_alloc<0,std::_Tree_base_types<std::pair<VuBin<FalconSessionEntity> const ,TViewPoint *>,std::allocator<std::pair<VuBin<FalconSessionEntity> const ,TViewPoint *> > > >::_Tree_alloc<0,std::_Tree_base_types<std::pair<VuBin<FalconSessionEntity> const ,TViewPoint *>,std::allocator<std::pair<VuBin<FalconSessionEntity> const ,TViewPoint *> > > >
PUBLIC	??1?$_Tree_alloc@$0A@U?$_Tree_base_types@U?$pair@$$CBV?$VuBin@VFalconSessionEntity@@@@PAVTViewPoint@@@std@@V?$allocator@U?$pair@$$CBV?$VuBin@VFalconSessionEntity@@@@PAVTViewPoint@@@std@@@2@@std@@@std@@QAE@XZ ; std::_Tree_alloc<0,std::_Tree_base_types<std::pair<VuBin<FalconSessionEntity> const ,TViewPoint *>,std::allocator<std::pair<VuBin<FalconSessionEntity> const ,TViewPoint *> > > >::~_Tree_alloc<0,std::_Tree_base_types<std::pair<VuBin<FalconSessionEntity> const ,TViewPoint *>,std::allocator<std::pair<VuBin<FalconSessionEntity> const ,TViewPoint *> > > >
PUBLIC	?_Buyheadnode@?$_Tree_alloc@$0A@U?$_Tree_base_types@U?$pair@$$CBV?$VuBin@VFalconSessionEntity@@@@PAVTViewPoint@@@std@@V?$allocator@U?$pair@$$CBV?$VuBin@VFalconSessionEntity@@@@PAVTViewPoint@@@std@@@2@@std@@@std@@QAEPAU?$_Tree_node@U?$pair@$$CBV?$VuBin@VFalconSessionEntity@@@@PAVTViewPoint@@@std@@PAX@2@XZ ; std::_Tree_alloc<0,std::_Tree_base_types<std::pair<VuBin<FalconSessionEntity> const ,TViewPoint *>,std::allocator<std::pair<VuBin<FalconSessionEntity> const ,TViewPoint *> > > >::_Buyheadnode
PUBLIC	?_Freeheadnode@?$_Tree_alloc@$0A@U?$_Tree_base_types@U?$pair@$$CBV?$VuBin@VFalconSessionEntity@@@@PAVTViewPoint@@@std@@V?$allocator@U?$pair@$$CBV?$VuBin@VFalconSessionEntity@@@@PAVTViewPoint@@@std@@@2@@std@@@std@@QAEXPAU?$_Tree_node@U?$pair@$$CBV?$VuBin@VFalconSessionEntity@@@@PAVTViewPoint@@@std@@PAX@2@@Z ; std::_Tree_alloc<0,std::_Tree_base_types<std::pair<VuBin<FalconSessionEntity> const ,TViewPoint *>,std::allocator<std::pair<VuBin<FalconSessionEntity> const ,TViewPoint *> > > >::_Freeheadnode
PUBLIC	?_Getal@?$_Tree_alloc@$0A@U?$_Tree_base_types@U?$pair@$$CBV?$VuBin@VFalconSessionEntity@@@@PAVTViewPoint@@@std@@V?$allocator@U?$pair@$$CBV?$VuBin@VFalconSessionEntity@@@@PAVTViewPoint@@@std@@@2@@std@@@std@@QBE?AU?$_Wrap_alloc@V?$allocator@U?$_Tree_node@U?$pair@$$CBV?$VuBin@VFalconSessionEntity@@@@PAVTViewPoint@@@std@@PAX@std@@@std@@@2@XZ ; std::_Tree_alloc<0,std::_Tree_base_types<std::pair<VuBin<FalconSessionEntity> const ,TViewPoint *>,std::allocator<std::pair<VuBin<FalconSessionEntity> const ,TViewPoint *> > > >::_Getal
PUBLIC	??0?$_Tree_buy@U?$pair@$$CBV?$VuBin@VFalconSessionEntity@@@@PAVTViewPoint@@@std@@V?$allocator@U?$pair@$$CBV?$VuBin@VFalconSessionEntity@@@@PAVTViewPoint@@@std@@@2@@std@@QAE@ABV?$allocator@U?$pair@$$CBV?$VuBin@VFalconSessionEntity@@@@PAVTViewPoint@@@std@@@1@@Z ; std::_Tree_buy<std::pair<VuBin<FalconSessionEntity> const ,TViewPoint *>,std::allocator<std::pair<VuBin<FalconSessionEntity> const ,TViewPoint *> > >::_Tree_buy<std::pair<VuBin<FalconSessionEntity> const ,TViewPoint *>,std::allocator<std::pair<VuBin<FalconSessionEntity> const ,TViewPoint *> > >
PUBLIC	?_Buynode0@?$_Tree_buy@U?$pair@$$CBV?$VuBin@VFalconSessionEntity@@@@PAVTViewPoint@@@std@@V?$allocator@U?$pair@$$CBV?$VuBin@VFalconSessionEntity@@@@PAVTViewPoint@@@std@@@2@@std@@QAEPAU?$_Tree_node@U?$pair@$$CBV?$VuBin@VFalconSessionEntity@@@@PAVTViewPoint@@@std@@PAX@2@XZ ; std::_Tree_buy<std::pair<VuBin<FalconSessionEntity> const ,TViewPoint *>,std::allocator<std::pair<VuBin<FalconSessionEntity> const ,TViewPoint *> > >::_Buynode0
PUBLIC	?_Freenode0@?$_Tree_buy@U?$pair@$$CBV?$VuBin@VFalconSessionEntity@@@@PAVTViewPoint@@@std@@V?$allocator@U?$pair@$$CBV?$VuBin@VFalconSessionEntity@@@@PAVTViewPoint@@@std@@@2@@std@@QAEXPAU?$_Tree_node@U?$pair@$$CBV?$VuBin@VFalconSessionEntity@@@@PAVTViewPoint@@@std@@PAX@2@@Z ; std::_Tree_buy<std::pair<VuBin<FalconSessionEntity> const ,TViewPoint *>,std::allocator<std::pair<VuBin<FalconSessionEntity> const ,TViewPoint *> > >::_Freenode0
PUBLIC	??1?$_Tree_buy@U?$pair@$$CBV?$VuBin@VFalconSessionEntity@@@@PAVTViewPoint@@@std@@V?$allocator@U?$pair@$$CBV?$VuBin@VFalconSessionEntity@@@@PAVTViewPoint@@@std@@@2@@std@@QAE@XZ ; std::_Tree_buy<std::pair<VuBin<FalconSessionEntity> const ,TViewPoint *>,std::allocator<std::pair<VuBin<FalconSessionEntity> const ,TViewPoint *> > >::~_Tree_buy<std::pair<VuBin<FalconSessionEntity> const ,TViewPoint *>,std::allocator<std::pair<VuBin<FalconSessionEntity> const ,TViewPoint *> > >
PUBLIC	??0?$_Tree_comp@$0A@V?$_Tmap_traits@V?$VuBin@VFalconSessionEntity@@@@PAVTViewPoint@@U?$less@V?$VuBin@VFalconSessionEntity@@@@@std@@V?$allocator@U?$pair@$$CBV?$VuBin@VFalconSessionEntity@@@@PAVTViewPoint@@@std@@@4@$0A@@std@@@std@@QAE@ABU?$less@V?$VuBin@VFalconSessionEntity@@@@@1@ABV?$allocator@U?$pair@$$CBV?$VuBin@VFalconSessionEntity@@@@PAVTViewPoint@@@std@@@1@@Z ; std::_Tree_comp<0,std::_Tmap_traits<VuBin<FalconSessionEntity>,TViewPoint *,std::less<VuBin<FalconSessionEntity> >,std::allocator<std::pair<VuBin<FalconSessionEntity> const ,TViewPoint *> >,0> >::_Tree_comp<0,std::_Tmap_traits<VuBin<FalconSessionEntity>,TViewPoint *,std::less<VuBin<FalconSessionEntity> >,std::allocator<std::pair<VuBin<FalconSessionEntity> const ,TViewPoint *> >,0> >
PUBLIC	?_Getcomp@?$_Tree_comp@$0A@V?$_Tmap_traits@V?$VuBin@VFalconSessionEntity@@@@PAVTViewPoint@@U?$less@V?$VuBin@VFalconSessionEntity@@@@@std@@V?$allocator@U?$pair@$$CBV?$VuBin@VFalconSessionEntity@@@@PAVTViewPoint@@@std@@@4@$0A@@std@@@std@@QBE?AU?$less@V?$VuBin@VFalconSessionEntity@@@@@2@XZ ; std::_Tree_comp<0,std::_Tmap_traits<VuBin<FalconSessionEntity>,TViewPoint *,std::less<VuBin<FalconSessionEntity> >,std::allocator<std::pair<VuBin<FalconSessionEntity> const ,TViewPoint *> >,0> >::_Getcomp
PUBLIC	??1?$_Tree_comp@$0A@V?$_Tmap_traits@V?$VuBin@VFalconSessionEntity@@@@PAVTViewPoint@@U?$less@V?$VuBin@VFalconSessionEntity@@@@@std@@V?$allocator@U?$pair@$$CBV?$VuBin@VFalconSessionEntity@@@@PAVTViewPoint@@@std@@@4@$0A@@std@@@std@@QAE@XZ ; std::_Tree_comp<0,std::_Tmap_traits<VuBin<FalconSessionEntity>,TViewPoint *,std::less<VuBin<FalconSessionEntity> >,std::allocator<std::pair<VuBin<FalconSessionEntity> const ,TViewPoint *> >,0> >::~_Tree_comp<0,std::_Tmap_traits<VuBin<FalconSessionEntity>,TViewPoint *,std::less<VuBin<FalconSessionEntity> >,std::allocator<std::pair<VuBin<FalconSessionEntity> const ,TViewPoint *> >,0> >
PUBLIC	??0?$_Tree@V?$_Tmap_traits@V?$VuBin@VFalconSessionEntity@@@@PAVTViewPoint@@U?$less@V?$VuBin@VFalconSessionEntity@@@@@std@@V?$allocator@U?$pair@$$CBV?$VuBin@VFalconSessionEntity@@@@PAVTViewPoint@@@std@@@4@$0A@@std@@@std@@QAE@ABU?$less@V?$VuBin@VFalconSessionEntity@@@@@1@ABV?$allocator@U?$pair@$$CBV?$VuBin@VFalconSessionEntity@@@@PAVTViewPoint@@@std@@@1@@Z ; std::_Tree<std::_Tmap_traits<VuBin<FalconSessionEntity>,TViewPoint *,std::less<VuBin<FalconSessionEntity> >,std::allocator<std::pair<VuBin<FalconSessionEntity> const ,TViewPoint *> >,0> >::_Tree<std::_Tmap_traits<VuBin<FalconSessionEntity>,TViewPoint *,std::less<VuBin<FalconSessionEntity> >,std::allocator<std::pair<VuBin<FalconSessionEntity> const ,TViewPoint *> >,0> >
PUBLIC	??1?$_Tree@V?$_Tmap_traits@V?$VuBin@VFalconSessionEntity@@@@PAVTViewPoint@@U?$less@V?$VuBin@VFalconSessionEntity@@@@@std@@V?$allocator@U?$pair@$$CBV?$VuBin@VFalconSessionEntity@@@@PAVTViewPoint@@@std@@@4@$0A@@std@@@std@@QAE@XZ ; std::_Tree<std::_Tmap_traits<VuBin<FalconSessionEntity>,TViewPoint *,std::less<VuBin<FalconSessionEntity> >,std::allocator<std::pair<VuBin<FalconSessionEntity> const ,TViewPoint *> >,0> >::~_Tree<std::_Tmap_traits<VuBin<FalconSessionEntity>,TViewPoint *,std::less<VuBin<FalconSessionEntity> >,std::allocator<std::pair<VuBin<FalconSessionEntity> const ,TViewPoint *> >,0> >
PUBLIC	?begin@?$_Tree@V?$_Tmap_traits@V?$VuBin@VFalconSessionEntity@@@@PAVTViewPoint@@U?$less@V?$VuBin@VFalconSessionEntity@@@@@std@@V?$allocator@U?$pair@$$CBV?$VuBin@VFalconSessionEntity@@@@PAVTViewPoint@@@std@@@4@$0A@@std@@@std@@QAE?AV?$_Tree_iterator@V?$_Tree_val@U?$_Tree_simple_types@U?$pair@$$CBV?$VuBin@VFalconSessionEntity@@@@PAVTViewPoint@@@std@@@std@@@std@@@2@XZ ; std::_Tree<std::_Tmap_traits<VuBin<FalconSessionEntity>,TViewPoint *,std::less<VuBin<FalconSessionEntity> >,std::allocator<std::pair<VuBin<FalconSessionEntity> const ,TViewPoint *> >,0> >::begin
PUBLIC	?end@?$_Tree@V?$_Tmap_traits@V?$VuBin@VFalconSessionEntity@@@@PAVTViewPoint@@U?$less@V?$VuBin@VFalconSessionEntity@@@@@std@@V?$allocator@U?$pair@$$CBV?$VuBin@VFalconSessionEntity@@@@PAVTViewPoint@@@std@@@4@$0A@@std@@@std@@QAE?AV?$_Tree_iterator@V?$_Tree_val@U?$_Tree_simple_types@U?$pair@$$CBV?$VuBin@VFalconSessionEntity@@@@PAVTViewPoint@@@std@@@std@@@std@@@2@XZ ; std::_Tree<std::_Tmap_traits<VuBin<FalconSessionEntity>,TViewPoint *,std::less<VuBin<FalconSessionEntity> >,std::allocator<std::pair<VuBin<FalconSessionEntity> const ,TViewPoint *> >,0> >::end
PUBLIC	?max_size@?$_Tree@V?$_Tmap_traits@V?$VuBin@VFalconSessionEntity@@@@PAVTViewPoint@@U?$less@V?$VuBin@VFalconSessionEntity@@@@@std@@V?$allocator@U?$pair@$$CBV?$VuBin@VFalconSessionEntity@@@@PAVTViewPoint@@@std@@@4@$0A@@std@@@std@@QBEIXZ ; std::_Tree<std::_Tmap_traits<VuBin<FalconSessionEntity>,TViewPoint *,std::less<VuBin<FalconSessionEntity> >,std::allocator<std::pair<VuBin<FalconSessionEntity> const ,TViewPoint *> >,0> >::max_size
PUBLIC	?erase@?$_Tree@V?$_Tmap_traits@V?$VuBin@VFalconSessionEntity@@@@PAVTViewPoint@@U?$less@V?$VuBin@VFalconSessionEntity@@@@@std@@V?$allocator@U?$pair@$$CBV?$VuBin@VFalconSessionEntity@@@@PAVTViewPoint@@@std@@@4@$0A@@std@@@std@@QAE?AV?$_Tree_iterator@V?$_Tree_val@U?$_Tree_simple_types@U?$pair@$$CBV?$VuBin@VFalconSessionEntity@@@@PAVTViewPoint@@@std@@@std@@@std@@@2@V?$_Tree_const_iterator@V?$_Tree_val@U?$_Tree_simple_types@U?$pair@$$CBV?$VuBin@VFalconSessionEntity@@@@PAVTViewPoint@@@std@@@std@@@std@@@2@@Z ; std::_Tree<std::_Tmap_traits<VuBin<FalconSessionEntity>,TViewPoint *,std::less<VuBin<FalconSessionEntity> >,std::allocator<std::pair<VuBin<FalconSessionEntity> const ,TViewPoint *> >,0> >::erase
PUBLIC	?erase@?$_Tree@V?$_Tmap_traits@V?$VuBin@VFalconSessionEntity@@@@PAVTViewPoint@@U?$less@V?$VuBin@VFalconSessionEntity@@@@@std@@V?$allocator@U?$pair@$$CBV?$VuBin@VFalconSessionEntity@@@@PAVTViewPoint@@@std@@@4@$0A@@std@@@std@@QAE?AV?$_Tree_iterator@V?$_Tree_val@U?$_Tree_simple_types@U?$pair@$$CBV?$VuBin@VFalconSessionEntity@@@@PAVTViewPoint@@@std@@@std@@@std@@@2@V?$_Tree_const_iterator@V?$_Tree_val@U?$_Tree_simple_types@U?$pair@$$CBV?$VuBin@VFalconSessionEntity@@@@PAVTViewPoint@@@std@@@std@@@std@@@2@0@Z ; std::_Tree<std::_Tmap_traits<VuBin<FalconSessionEntity>,TViewPoint *,std::less<VuBin<FalconSessionEntity> >,std::allocator<std::pair<VuBin<FalconSessionEntity> const ,TViewPoint *> >,0> >::erase
PUBLIC	?clear@?$_Tree@V?$_Tmap_traits@V?$VuBin@VFalconSessionEntity@@@@PAVTViewPoint@@U?$less@V?$VuBin@VFalconSessionEntity@@@@@std@@V?$allocator@U?$pair@$$CBV?$VuBin@VFalconSessionEntity@@@@PAVTViewPoint@@@std@@@4@$0A@@std@@@std@@QAEXXZ ; std::_Tree<std::_Tmap_traits<VuBin<FalconSessionEntity>,TViewPoint *,std::less<VuBin<FalconSessionEntity> >,std::allocator<std::pair<VuBin<FalconSessionEntity> const ,TViewPoint *> >,0> >::clear
PUBLIC	?find@?$_Tree@V?$_Tmap_traits@V?$VuBin@VFalconSessionEntity@@@@PAVTViewPoint@@U?$less@V?$VuBin@VFalconSessionEntity@@@@@std@@V?$allocator@U?$pair@$$CBV?$VuBin@VFalconSessionEntity@@@@PAVTViewPoint@@@std@@@4@$0A@@std@@@std@@QAE?AV?$_Tree_iterator@V?$_Tree_val@U?$_Tree_simple_types@U?$pair@$$CBV?$VuBin@VFalconSessionEntity@@@@PAVTViewPoint@@@std@@@std@@@std@@@2@ABV?$VuBin@VFalconSessionEntity@@@@@Z ; std::_Tree<std::_Tmap_traits<VuBin<FalconSessionEntity>,TViewPoint *,std::less<VuBin<FalconSessionEntity> >,std::allocator<std::pair<VuBin<FalconSessionEntity> const ,TViewPoint *> >,0> >::find
PUBLIC	?lower_bound@?$_Tree@V?$_Tmap_traits@V?$VuBin@VFalconSessionEntity@@@@PAVTViewPoint@@U?$less@V?$VuBin@VFalconSessionEntity@@@@@std@@V?$allocator@U?$pair@$$CBV?$VuBin@VFalconSessionEntity@@@@PAVTViewPoint@@@std@@@4@$0A@@std@@@std@@QAE?AV?$_Tree_iterator@V?$_Tree_val@U?$_Tree_simple_types@U?$pair@$$CBV?$VuBin@VFalconSessionEntity@@@@PAVTViewPoint@@@std@@@std@@@std@@@2@ABV?$VuBin@VFalconSessionEntity@@@@@Z ; std::_Tree<std::_Tmap_traits<VuBin<FalconSessionEntity>,TViewPoint *,std::less<VuBin<FalconSessionEntity> >,std::allocator<std::pair<VuBin<FalconSessionEntity> const ,TViewPoint *> >,0> >::lower_bound
PUBLIC	?_Destroy_if_not_nil@?$_Tree@V?$_Tmap_traits@V?$VuBin@VFalconSessionEntity@@@@PAVTViewPoint@@U?$less@V?$VuBin@VFalconSessionEntity@@@@@std@@V?$allocator@U?$pair@$$CBV?$VuBin@VFalconSessionEntity@@@@PAVTViewPoint@@@std@@@4@$0A@@std@@@std@@IAEXPAU?$_Tree_node@U?$pair@$$CBV?$VuBin@VFalconSessionEntity@@@@PAVTViewPoint@@@std@@PAX@2@@Z ; std::_Tree<std::_Tmap_traits<VuBin<FalconSessionEntity>,TViewPoint *,std::less<VuBin<FalconSessionEntity> >,std::allocator<std::pair<VuBin<FalconSessionEntity> const ,TViewPoint *> >,0> >::_Destroy_if_not_nil
PUBLIC	?_Erase@?$_Tree@V?$_Tmap_traits@V?$VuBin@VFalconSessionEntity@@@@PAVTViewPoint@@U?$less@V?$VuBin@VFalconSessionEntity@@@@@std@@V?$allocator@U?$pair@$$CBV?$VuBin@VFalconSessionEntity@@@@PAVTViewPoint@@@std@@@4@$0A@@std@@@std@@IAEXPAU?$_Tree_node@U?$pair@$$CBV?$VuBin@VFalconSessionEntity@@@@PAVTViewPoint@@@std@@PAX@2@@Z ; std::_Tree<std::_Tmap_traits<VuBin<FalconSessionEntity>,TViewPoint *,std::less<VuBin<FalconSessionEntity> >,std::allocator<std::pair<VuBin<FalconSessionEntity> const ,TViewPoint *> >,0> >::_Erase
PUBLIC	?_Lbound@?$_Tree@V?$_Tmap_traits@V?$VuBin@VFalconSessionEntity@@@@PAVTViewPoint@@U?$less@V?$VuBin@VFalconSessionEntity@@@@@std@@V?$allocator@U?$pair@$$CBV?$VuBin@VFalconSessionEntity@@@@PAVTViewPoint@@@std@@@4@$0A@@std@@@std@@IAEPAU?$_Tree_node@U?$pair@$$CBV?$VuBin@VFalconSessionEntity@@@@PAVTViewPoint@@@std@@PAX@2@ABV?$VuBin@VFalconSessionEntity@@@@@Z ; std::_Tree<std::_Tmap_traits<VuBin<FalconSessionEntity>,TViewPoint *,std::less<VuBin<FalconSessionEntity> >,std::allocator<std::pair<VuBin<FalconSessionEntity> const ,TViewPoint *> >,0> >::_Lbound
PUBLIC	?_Lmost@?$_Tree@V?$_Tmap_traits@V?$VuBin@VFalconSessionEntity@@@@PAVTViewPoint@@U?$less@V?$VuBin@VFalconSessionEntity@@@@@std@@V?$allocator@U?$pair@$$CBV?$VuBin@VFalconSessionEntity@@@@PAVTViewPoint@@@std@@@4@$0A@@std@@@std@@IBEAAPAU?$_Tree_node@U?$pair@$$CBV?$VuBin@VFalconSessionEntity@@@@PAVTViewPoint@@@std@@PAX@2@XZ ; std::_Tree<std::_Tmap_traits<VuBin<FalconSessionEntity>,TViewPoint *,std::less<VuBin<FalconSessionEntity> >,std::allocator<std::pair<VuBin<FalconSessionEntity> const ,TViewPoint *> >,0> >::_Lmost
PUBLIC	?_Lrotate@?$_Tree@V?$_Tmap_traits@V?$VuBin@VFalconSessionEntity@@@@PAVTViewPoint@@U?$less@V?$VuBin@VFalconSessionEntity@@@@@std@@V?$allocator@U?$pair@$$CBV?$VuBin@VFalconSessionEntity@@@@PAVTViewPoint@@@std@@@4@$0A@@std@@@std@@IAEXPAU?$_Tree_node@U?$pair@$$CBV?$VuBin@VFalconSessionEntity@@@@PAVTViewPoint@@@std@@PAX@2@@Z ; std::_Tree<std::_Tmap_traits<VuBin<FalconSessionEntity>,TViewPoint *,std::less<VuBin<FalconSessionEntity> >,std::allocator<std::pair<VuBin<FalconSessionEntity> const ,TViewPoint *> >,0> >::_Lrotate
PUBLIC	?_Rmost@?$_Tree@V?$_Tmap_traits@V?$VuBin@VFalconSessionEntity@@@@PAVTViewPoint@@U?$less@V?$VuBin@VFalconSessionEntity@@@@@std@@V?$allocator@U?$pair@$$CBV?$VuBin@VFalconSessionEntity@@@@PAVTViewPoint@@@std@@@4@$0A@@std@@@std@@IBEAAPAU?$_Tree_node@U?$pair@$$CBV?$VuBin@VFalconSessionEntity@@@@PAVTViewPoint@@@std@@PAX@2@XZ ; std::_Tree<std::_Tmap_traits<VuBin<FalconSessionEntity>,TViewPoint *,std::less<VuBin<FalconSessionEntity> >,std::allocator<std::pair<VuBin<FalconSessionEntity> const ,TViewPoint *> >,0> >::_Rmost
PUBLIC	?_Root@?$_Tree@V?$_Tmap_traits@V?$VuBin@VFalconSessionEntity@@@@PAVTViewPoint@@U?$less@V?$VuBin@VFalconSessionEntity@@@@@std@@V?$allocator@U?$pair@$$CBV?$VuBin@VFalconSessionEntity@@@@PAVTViewPoint@@@std@@@4@$0A@@std@@@std@@IBEAAPAU?$_Tree_node@U?$pair@$$CBV?$VuBin@VFalconSessionEntity@@@@PAVTViewPoint@@@std@@PAX@2@XZ ; std::_Tree<std::_Tmap_traits<VuBin<FalconSessionEntity>,TViewPoint *,std::less<VuBin<FalconSessionEntity> >,std::allocator<std::pair<VuBin<FalconSessionEntity> const ,TViewPoint *> >,0> >::_Root
PUBLIC	?_Rrotate@?$_Tree@V?$_Tmap_traits@V?$VuBin@VFalconSessionEntity@@@@PAVTViewPoint@@U?$less@V?$VuBin@VFalconSessionEntity@@@@@std@@V?$allocator@U?$pair@$$CBV?$VuBin@VFalconSessionEntity@@@@PAVTViewPoint@@@std@@@4@$0A@@std@@@std@@IAEXPAU?$_Tree_node@U?$pair@$$CBV?$VuBin@VFalconSessionEntity@@@@PAVTViewPoint@@@std@@PAX@2@@Z ; std::_Tree<std::_Tmap_traits<VuBin<FalconSessionEntity>,TViewPoint *,std::less<VuBin<FalconSessionEntity> >,std::allocator<std::pair<VuBin<FalconSessionEntity> const ,TViewPoint *> >,0> >::_Rrotate
PUBLIC	?_Tidy@?$_Tree@V?$_Tmap_traits@V?$VuBin@VFalconSessionEntity@@@@PAVTViewPoint@@U?$less@V?$VuBin@VFalconSessionEntity@@@@@std@@V?$allocator@U?$pair@$$CBV?$VuBin@VFalconSessionEntity@@@@PAVTViewPoint@@@std@@@4@$0A@@std@@@std@@IAEXXZ ; std::_Tree<std::_Tmap_traits<VuBin<FalconSessionEntity>,TViewPoint *,std::less<VuBin<FalconSessionEntity> >,std::allocator<std::pair<VuBin<FalconSessionEntity> const ,TViewPoint *> >,0> >::_Tidy
PUBLIC	?_Kfn@?$_Tree@V?$_Tmap_traits@V?$VuBin@VFalconSessionEntity@@@@PAVTViewPoint@@U?$less@V?$VuBin@VFalconSessionEntity@@@@@std@@V?$allocator@U?$pair@$$CBV?$VuBin@VFalconSessionEntity@@@@PAVTViewPoint@@@std@@@4@$0A@@std@@@std@@IBEABV?$VuBin@VFalconSessionEntity@@@@ABU?$pair@$$CBV?$VuBin@VFalconSessionEntity@@@@PAVTViewPoint@@@2@@Z ; std::_Tree<std::_Tmap_traits<VuBin<FalconSessionEntity>,TViewPoint *,std::less<VuBin<FalconSessionEntity> >,std::allocator<std::pair<VuBin<FalconSessionEntity> const ,TViewPoint *> >,0> >::_Kfn
PUBLIC	?_Key@?$_Tree@V?$_Tmap_traits@V?$VuBin@VFalconSessionEntity@@@@PAVTViewPoint@@U?$less@V?$VuBin@VFalconSessionEntity@@@@@std@@V?$allocator@U?$pair@$$CBV?$VuBin@VFalconSessionEntity@@@@PAVTViewPoint@@@std@@@4@$0A@@std@@@std@@IBEABV?$VuBin@VFalconSessionEntity@@@@PAU?$_Tree_node@U?$pair@$$CBV?$VuBin@VFalconSessionEntity@@@@PAVTViewPoint@@@std@@PAX@2@@Z ; std::_Tree<std::_Tmap_traits<VuBin<FalconSessionEntity>,TViewPoint *,std::less<VuBin<FalconSessionEntity> >,std::allocator<std::pair<VuBin<FalconSessionEntity> const ,TViewPoint *> >,0> >::_Key
PUBLIC	??0?$map@V?$VuBin@VFalconSessionEntity@@@@PAVTViewPoint@@U?$less@V?$VuBin@VFalconSessionEntity@@@@@std@@V?$allocator@U?$pair@$$CBV?$VuBin@VFalconSessionEntity@@@@PAVTViewPoint@@@std@@@4@@std@@QAE@XZ ; std::map<VuBin<FalconSessionEntity>,TViewPoint *,std::less<VuBin<FalconSessionEntity> >,std::allocator<std::pair<VuBin<FalconSessionEntity> const ,TViewPoint *> > >::map<VuBin<FalconSessionEntity>,TViewPoint *,std::less<VuBin<FalconSessionEntity> >,std::allocator<std::pair<VuBin<FalconSessionEntity> const ,TViewPoint *> > >
PUBLIC	??1?$map@V?$VuBin@VFalconSessionEntity@@@@PAVTViewPoint@@U?$less@V?$VuBin@VFalconSessionEntity@@@@@std@@V?$allocator@U?$pair@$$CBV?$VuBin@VFalconSessionEntity@@@@PAVTViewPoint@@@std@@@4@@std@@QAE@XZ ; std::map<VuBin<FalconSessionEntity>,TViewPoint *,std::less<VuBin<FalconSessionEntity> >,std::allocator<std::pair<VuBin<FalconSessionEntity> const ,TViewPoint *> > >::~map<VuBin<FalconSessionEntity>,TViewPoint *,std::less<VuBin<FalconSessionEntity> >,std::allocator<std::pair<VuBin<FalconSessionEntity> const ,TViewPoint *> > >
PUBLIC	?GetGroundType@OTWDriverClass@@QAEHMM@Z		; OTWDriverClass::GetGroundType
PUBLIC	?GetNVGmode@CTimeOfDay@@QAEHXZ			; CTimeOfDay::GetNVGmode
PUBLIC	??0TViewPoint@@QAE@XZ				; TViewPoint::TViewPoint
PUBLIC	??1TViewPoint@@QAE@XZ				; TViewPoint::~TViewPoint
PUBLIC	?IsReady@TViewPoint@@QAEHXZ			; TViewPoint::IsReady
PUBLIC	??_GTViewPoint@@QAEPAXI@Z			; TViewPoint::`scalar deleting destructor'
PUBLIC	??0Edge@@QAE@XZ					; Edge::Edge
PUBLIC	??1Edge@@QAE@XZ					; Edge::~Edge
PUBLIC	?GetDisplayDevice@ImageBuffer@@QAEPAVDisplayDevice@@XZ ; ImageBuffer::GetDisplayDevice
PUBLIC	??0VirtualDisplay@@QAE@XZ			; VirtualDisplay::VirtualDisplay
PUBLIC	??1VirtualDisplay@@UAE@XZ			; VirtualDisplay::~VirtualDisplay
PUBLIC	?Circle@VirtualDisplay@@UAEXMMM@Z		; VirtualDisplay::Circle
PUBLIC	?Arc@VirtualDisplay@@UAEXMMMMM@Z		; VirtualDisplay::Arc
PUBLIC	?TextWidth@VirtualDisplay@@UAEMPAD@Z		; VirtualDisplay::TextWidth
PUBLIC	?TextHeight@VirtualDisplay@@UAEMXZ		; VirtualDisplay::TextHeight
PUBLIC	?SetLineStyle@VirtualDisplay@@UAEXH@Z		; VirtualDisplay::SetLineStyle
PUBLIC	?Color@VirtualDisplay@@UAEKXZ			; VirtualDisplay::Color
PUBLIC	??_GVirtualDisplay@@UAEPAXI@Z			; VirtualDisplay::`scalar deleting destructor'
PUBLIC	??0Render2D@@QAE@XZ				; Render2D::Render2D
PUBLIC	??1Render2D@@UAE@XZ				; Render2D::~Render2D
PUBLIC	?ClearDraw@Render2D@@UAEXXZ			; Render2D::ClearDraw
PUBLIC	?ClearZBuffer@Render2D@@UAEXXZ			; Render2D::ClearZBuffer
PUBLIC	?Color@Render2D@@UAEKXZ				; Render2D::Color
PUBLIC	?SetColor@Render2D@@UAEXK@Z			; Render2D::SetColor
PUBLIC	?SetBackground@Render2D@@UAEXK@Z		; Render2D::SetBackground
PUBLIC	?SetLineStyle@Render2D@@UAEXH@Z			; Render2D::SetLineStyle
PUBLIC	??_GRender2D@@UAEPAXI@Z				; Render2D::`scalar deleting destructor'
PUBLIC	??0Render3D@@QAE@XZ				; Render3D::Render3D
PUBLIC	??1Render3D@@UAE@XZ				; Render3D::~Render3D
PUBLIC	?Cleanup@Render3D@@UAEXXZ			; Render3D::Cleanup
PUBLIC	?GetFOV@Render3D@@QAEMXZ			; Render3D::GetFOV
PUBLIC	??_GRender3D@@UAEPAXI@Z				; Render3D::`scalar deleting destructor'
PUBLIC	??0RenderOTW@@QAE@XZ				; RenderOTW::RenderOTW
PUBLIC	??1RenderOTW@@UAE@XZ				; RenderOTW::~RenderOTW
PUBLIC	?SetHazeMode@RenderOTW@@QAEXH@Z			; RenderOTW::SetHazeMode
PUBLIC	?SetDitheringMode@RenderOTW@@QAEXH@Z		; RenderOTW::SetDitheringMode
PUBLIC	?SetFilteringMode@RenderOTW@@QAEXH@Z		; RenderOTW::SetFilteringMode
PUBLIC	??_GRenderOTW@@UAEPAXI@Z			; RenderOTW::`scalar deleting destructor'
PUBLIC	?InDisplayList@DrawableObject@@QAEHXZ		; DrawableObject::InDisplayList
PUBLIC	?GetID@DrawableBSP@@QAEHXZ			; DrawableBSP::GetID
PUBLIC	?LockAndLoad@DrawableBSP@@SAXH@Z		; DrawableBSP::LockAndLoad
PUBLIC	?Unlock@DrawableBSP@@SAXH@Z			; DrawableBSP::Unlock
PUBLIC	??0RViewPoint@@QAE@XZ				; RViewPoint::RViewPoint
PUBLIC	??1RViewPoint@@QAE@XZ				; RViewPoint::~RViewPoint
PUBLIC	?IsReady@RViewPoint@@QAEHXZ			; RViewPoint::IsReady
PUBLIC	??_GRViewPoint@@QAEPAXI@Z			; RViewPoint::`scalar deleting destructor'
PUBLIC	?get@?$VuBin@VFlightClass@@@@QBEPAVFlightClass@@XZ ; VuBin<FlightClass>::get
PUBLIC	?GetPlayerEntity@FalconSessionEntity@@QBEPAVFalconEntity@@XZ ; FalconSessionEntity::GetPlayerEntity
PUBLIC	?GetPlayerFlight@FalconSessionEntity@@QBEPAVFlightClass@@XZ ; FalconSessionEntity::GetPlayerFlight
PUBLIC	?GetGame@FalconSessionEntity@@QAEPAVFalconGameEntity@@XZ ; FalconSessionEntity::GetGame
PUBLIC	??_GMFDClass@@QAEPAXI@Z				; MFDClass::`scalar deleting destructor'
PUBLIC	?Parent@SimWeaponClass@@QAEPAVFalconEntity@@XZ	; SimWeaponClass::Parent
PUBLIC	?IsSetBombFlag@BombClass@@QAEHH@Z		; BombClass::IsSetBombFlag
PUBLIC	?GetImageBuffer@DisplayDevice@@QAEPAVImageBuffer@@XZ ; DisplayDevice::GetImageBuffer
PUBLIC	?GetDefaultRC@DisplayDevice@@QAEPAVDXContext@@XZ ; DisplayDevice::GetDefaultRC
PUBLIC	??_GCockpitManager@@QAEPAXI@Z			; CockpitManager::`scalar deleting destructor'
PUBLIC	?GetImageBuffer@FalconDisplayConfiguration@@QAEPAVImageBuffer@@XZ ; FalconDisplayConfiguration::GetImageBuffer
PUBLIC	?GetPilotEyePos@AirframeClass@@QAEPAUTpoint@@XZ	; AirframeClass::GetPilotEyePos
PUBLIC	?BaseData@SimObjectType@@QAEPAVFalconEntity@@XZ	; SimObjectType::BaseData
PUBLIC	??_GMenuManager@@QAEPAXI@Z			; MenuManager::`scalar deleting destructor'
PUBLIC	??0IntellivibeData@@QAE@XZ			; IntellivibeData::IntellivibeData
PUBLIC	?FindBestResolution@@YAHXZ			; FindBestResolution
PUBLIC	??0?$_Tree_unchecked_const_iterator@V?$_Tree_val@U?$_Tree_simple_types@U?$pair@$$CBV?$VuBin@VFalconSessionEntity@@@@PAVTViewPoint@@@std@@@std@@@std@@U_Iterator_base0@2@@std@@QAE@PAU?$_Tree_node@U?$pair@$$CBV?$VuBin@VFalconSessionEntity@@@@PAVTViewPoint@@@std@@PAX@1@PBV?$_Tree_val@U?$_Tree_simple_types@U?$pair@$$CBV?$VuBin@VFalconSessionEntity@@@@PAVTViewPoint@@@std@@@std@@@1@@Z ; std::_Tree_unchecked_const_iterator<std::_Tree_val<std::_Tree_simple_types<std::pair<VuBin<FalconSessionEntity> const ,TViewPoint *> > >,std::_Iterator_base0>::_Tree_unchecked_const_iterator<std::_Tree_val<std::_Tree_simple_types<std::pair<VuBin<FalconSessionEntity> const ,TViewPoint *> > >,std::_Iterator_base0>
PUBLIC	??E?$_Tree_unchecked_const_iterator@V?$_Tree_val@U?$_Tree_simple_types@U?$pair@$$CBV?$VuBin@VFalconSessionEntity@@@@PAVTViewPoint@@@std@@@std@@@std@@U_Iterator_base0@2@@std@@QAEAAV01@XZ ; std::_Tree_unchecked_const_iterator<std::_Tree_val<std::_Tree_simple_types<std::pair<VuBin<FalconSessionEntity> const ,TViewPoint *> > >,std::_Iterator_base0>::operator++
PUBLIC	??F?$_Tree_unchecked_const_iterator@V?$_Tree_val@U?$_Tree_simple_types@U?$pair@$$CBV?$VuBin@VFalconSessionEntity@@@@PAVTViewPoint@@@std@@@std@@@std@@U_Iterator_base0@2@@std@@QAEAAV01@XZ ; std::_Tree_unchecked_const_iterator<std::_Tree_val<std::_Tree_simple_types<std::pair<VuBin<FalconSessionEntity> const ,TViewPoint *> > >,std::_Iterator_base0>::operator--
PUBLIC	?_Mynode@?$_Tree_unchecked_const_iterator@V?$_Tree_val@U?$_Tree_simple_types@U?$pair@$$CBV?$VuBin@VFalconSessionEntity@@@@PAVTViewPoint@@@std@@@std@@@std@@U_Iterator_base0@2@@std@@QBEPAU?$_Tree_node@U?$pair@$$CBV?$VuBin@VFalconSessionEntity@@@@PAVTViewPoint@@@std@@PAX@2@XZ ; std::_Tree_unchecked_const_iterator<std::_Tree_val<std::_Tree_simple_types<std::pair<VuBin<FalconSessionEntity> const ,TViewPoint *> > >,std::_Iterator_base0>::_Mynode
PUBLIC	??0?$_Tree_const_iterator@V?$_Tree_val@U?$_Tree_simple_types@U?$pair@$$CBV?$VuBin@VFalconSessionEntity@@@@PAVTViewPoint@@@std@@@std@@@std@@@std@@QAE@PAU?$_Tree_node@U?$pair@$$CBV?$VuBin@VFalconSessionEntity@@@@PAVTViewPoint@@@std@@PAX@1@PBV?$_Tree_val@U?$_Tree_simple_types@U?$pair@$$CBV?$VuBin@VFalconSessionEntity@@@@PAVTViewPoint@@@std@@@std@@@1@@Z ; std::_Tree_const_iterator<std::_Tree_val<std::_Tree_simple_types<std::pair<VuBin<FalconSessionEntity> const ,TViewPoint *> > > >::_Tree_const_iterator<std::_Tree_val<std::_Tree_simple_types<std::pair<VuBin<FalconSessionEntity> const ,TViewPoint *> > > >
PUBLIC	??D?$_Tree_const_iterator@V?$_Tree_val@U?$_Tree_simple_types@U?$pair@$$CBV?$VuBin@VFalconSessionEntity@@@@PAVTViewPoint@@@std@@@std@@@std@@@std@@QBEABU?$pair@$$CBV?$VuBin@VFalconSessionEntity@@@@PAVTViewPoint@@@1@XZ ; std::_Tree_const_iterator<std::_Tree_val<std::_Tree_simple_types<std::pair<VuBin<FalconSessionEntity> const ,TViewPoint *> > > >::operator*
PUBLIC	??E?$_Tree_const_iterator@V?$_Tree_val@U?$_Tree_simple_types@U?$pair@$$CBV?$VuBin@VFalconSessionEntity@@@@PAVTViewPoint@@@std@@@std@@@std@@@std@@QAEAAV01@XZ ; std::_Tree_const_iterator<std::_Tree_val<std::_Tree_simple_types<std::pair<VuBin<FalconSessionEntity> const ,TViewPoint *> > > >::operator++
PUBLIC	??E?$_Tree_const_iterator@V?$_Tree_val@U?$_Tree_simple_types@U?$pair@$$CBV?$VuBin@VFalconSessionEntity@@@@PAVTViewPoint@@@std@@@std@@@std@@@std@@QAE?AV01@H@Z ; std::_Tree_const_iterator<std::_Tree_val<std::_Tree_simple_types<std::pair<VuBin<FalconSessionEntity> const ,TViewPoint *> > > >::operator++
PUBLIC	??F?$_Tree_const_iterator@V?$_Tree_val@U?$_Tree_simple_types@U?$pair@$$CBV?$VuBin@VFalconSessionEntity@@@@PAVTViewPoint@@@std@@@std@@@std@@@std@@QAEAAV01@XZ ; std::_Tree_const_iterator<std::_Tree_val<std::_Tree_simple_types<std::pair<VuBin<FalconSessionEntity> const ,TViewPoint *> > > >::operator--
PUBLIC	??8?$_Tree_const_iterator@V?$_Tree_val@U?$_Tree_simple_types@U?$pair@$$CBV?$VuBin@VFalconSessionEntity@@@@PAVTViewPoint@@@std@@@std@@@std@@@std@@QBE_NABV01@@Z ; std::_Tree_const_iterator<std::_Tree_val<std::_Tree_simple_types<std::pair<VuBin<FalconSessionEntity> const ,TViewPoint *> > > >::operator==
PUBLIC	??9?$_Tree_const_iterator@V?$_Tree_val@U?$_Tree_simple_types@U?$pair@$$CBV?$VuBin@VFalconSessionEntity@@@@PAVTViewPoint@@@std@@@std@@@std@@@std@@QBE_NABV01@@Z ; std::_Tree_const_iterator<std::_Tree_val<std::_Tree_simple_types<std::pair<VuBin<FalconSessionEntity> const ,TViewPoint *> > > >::operator!=
PUBLIC	??0?$_Tree_iterator@V?$_Tree_val@U?$_Tree_simple_types@U?$pair@$$CBV?$VuBin@VFalconSessionEntity@@@@PAVTViewPoint@@@std@@@std@@@std@@@std@@QAE@PAU?$_Tree_node@U?$pair@$$CBV?$VuBin@VFalconSessionEntity@@@@PAVTViewPoint@@@std@@PAX@1@PBV?$_Tree_val@U?$_Tree_simple_types@U?$pair@$$CBV?$VuBin@VFalconSessionEntity@@@@PAVTViewPoint@@@std@@@std@@@1@@Z ; std::_Tree_iterator<std::_Tree_val<std::_Tree_simple_types<std::pair<VuBin<FalconSessionEntity> const ,TViewPoint *> > > >::_Tree_iterator<std::_Tree_val<std::_Tree_simple_types<std::pair<VuBin<FalconSessionEntity> const ,TViewPoint *> > > >
PUBLIC	??D?$_Tree_iterator@V?$_Tree_val@U?$_Tree_simple_types@U?$pair@$$CBV?$VuBin@VFalconSessionEntity@@@@PAVTViewPoint@@@std@@@std@@@std@@@std@@QBEAAU?$pair@$$CBV?$VuBin@VFalconSessionEntity@@@@PAVTViewPoint@@@1@XZ ; std::_Tree_iterator<std::_Tree_val<std::_Tree_simple_types<std::pair<VuBin<FalconSessionEntity> const ,TViewPoint *> > > >::operator*
PUBLIC	??C?$_Tree_iterator@V?$_Tree_val@U?$_Tree_simple_types@U?$pair@$$CBV?$VuBin@VFalconSessionEntity@@@@PAVTViewPoint@@@std@@@std@@@std@@@std@@QBEPAU?$pair@$$CBV?$VuBin@VFalconSessionEntity@@@@PAVTViewPoint@@@1@XZ ; std::_Tree_iterator<std::_Tree_val<std::_Tree_simple_types<std::pair<VuBin<FalconSessionEntity> const ,TViewPoint *> > > >::operator->
PUBLIC	??E?$_Tree_iterator@V?$_Tree_val@U?$_Tree_simple_types@U?$pair@$$CBV?$VuBin@VFalconSessionEntity@@@@PAVTViewPoint@@@std@@@std@@@std@@@std@@QAEAAV01@XZ ; std::_Tree_iterator<std::_Tree_val<std::_Tree_simple_types<std::pair<VuBin<FalconSessionEntity> const ,TViewPoint *> > > >::operator++
PUBLIC	??F?$_Tree_iterator@V?$_Tree_val@U?$_Tree_simple_types@U?$pair@$$CBV?$VuBin@VFalconSessionEntity@@@@PAVTViewPoint@@@std@@@std@@@std@@@std@@QAEAAV01@XZ ; std::_Tree_iterator<std::_Tree_val<std::_Tree_simple_types<std::pair<VuBin<FalconSessionEntity> const ,TViewPoint *> > > >::operator--
PUBLIC	??0?$VuBin@VFalconSessionEntity@@@@QAE@PAVFalconSessionEntity@@@Z ; VuBin<FalconSessionEntity>::VuBin<FalconSessionEntity>
PUBLIC	??0?$VuBin@VFalconSessionEntity@@@@QAE@ABV0@@Z	; VuBin<FalconSessionEntity>::VuBin<FalconSessionEntity>
PUBLIC	??1?$VuBin@VFalconSessionEntity@@@@QAE@XZ	; VuBin<FalconSessionEntity>::~VuBin<FalconSessionEntity>
PUBLIC	??B?$VuBin@VFalconSessionEntity@@@@QBE_NXZ	; VuBin<FalconSessionEntity>::operator bool
PUBLIC	??C?$VuBin@VFalconSessionEntity@@@@QBEPAVFalconSessionEntity@@XZ ; VuBin<FalconSessionEntity>::operator->
PUBLIC	??1?$pair@$$CBV?$VuBin@VFalconSessionEntity@@@@PAVTViewPoint@@@std@@QAE@XZ ; std::pair<VuBin<FalconSessionEntity> const ,TViewPoint *>::~pair<VuBin<FalconSessionEntity> const ,TViewPoint *>
PUBLIC	??_G?$pair@$$CBV?$VuBin@VFalconSessionEntity@@@@PAVTViewPoint@@@std@@QAEPAXI@Z ; std::pair<VuBin<FalconSessionEntity> const ,TViewPoint *>::`scalar deleting destructor'
PUBLIC	?DecomposeMatrix@@YAXPAUTrotation@@PAM11@Z	; DecomposeMatrix
PUBLIC	??$make_pair@V?$VuBin@VFalconSessionEntity@@@@AAPAVTViewPoint@@@std@@YA?AU?$pair@V?$VuBin@VFalconSessionEntity@@@@PAVTViewPoint@@@0@$$QAV?$VuBin@VFalconSessionEntity@@@@AAPAVTViewPoint@@@Z ; std::make_pair<VuBin<FalconSessionEntity>,TViewPoint * &>
PUBLIC	??1?$pair@V?$VuBin@VFalconSessionEntity@@@@PAVTViewPoint@@@std@@QAE@XZ ; std::pair<VuBin<FalconSessionEntity>,TViewPoint *>::~pair<VuBin<FalconSessionEntity>,TViewPoint *>
PUBLIC	??$?0V?$VuBin@VFalconSessionEntity@@@@PAVTViewPoint@@@?$pair@$$CBV?$VuBin@VFalconSessionEntity@@@@PAVTViewPoint@@@std@@QAE@$$QAU?$pair@V?$VuBin@VFalconSessionEntity@@@@PAVTViewPoint@@@1@PAPAX@Z ; std::pair<VuBin<FalconSessionEntity> const ,TViewPoint *>::pair<VuBin<FalconSessionEntity> const ,TViewPoint *><VuBin<FalconSessionEntity>,TViewPoint *>
PUBLIC	??$insert@U?$pair@V?$VuBin@VFalconSessionEntity@@@@PAVTViewPoint@@@std@@@?$_Tree@V?$_Tmap_traits@V?$VuBin@VFalconSessionEntity@@@@PAVTViewPoint@@U?$less@V?$VuBin@VFalconSessionEntity@@@@@std@@V?$allocator@U?$pair@$$CBV?$VuBin@VFalconSessionEntity@@@@PAVTViewPoint@@@std@@@4@$0A@@std@@@std@@QAE?AU?$pair@V?$_Tree_iterator@V?$_Tree_val@U?$_Tree_simple_types@U?$pair@$$CBV?$VuBin@VFalconSessionEntity@@@@PAVTViewPoint@@@std@@@std@@@std@@@std@@_N@1@$$QAU?$pair@V?$VuBin@VFalconSessionEntity@@@@PAVTViewPoint@@@1@@Z ; std::_Tree<std::_Tmap_traits<VuBin<FalconSessionEntity>,TViewPoint *,std::less<VuBin<FalconSessionEntity> >,std::allocator<std::pair<VuBin<FalconSessionEntity> const ,TViewPoint *> >,0> >::insert<std::pair<VuBin<FalconSessionEntity>,TViewPoint *> >
PUBLIC	??$swap@D@std@@YAXAAD0@Z			; std::swap<char>
PUBLIC	??$addressof@U?$pair@$$CBV?$VuBin@VFalconSessionEntity@@@@PAVTViewPoint@@@std@@@std@@YAPAU?$pair@$$CBV?$VuBin@VFalconSessionEntity@@@@PAVTViewPoint@@@0@AAU10@@Z ; std::addressof<std::pair<VuBin<FalconSessionEntity> const ,TViewPoint *> >
PUBLIC	??$destroy@U?$pair@$$CBV?$VuBin@VFalconSessionEntity@@@@PAVTViewPoint@@@std@@@?$_Wrap_alloc@V?$allocator@U?$_Tree_node@U?$pair@$$CBV?$VuBin@VFalconSessionEntity@@@@PAVTViewPoint@@@std@@PAX@std@@@std@@@std@@QAEXPAU?$pair@$$CBV?$VuBin@VFalconSessionEntity@@@@PAVTViewPoint@@@1@@Z ; std::_Wrap_alloc<std::allocator<std::_Tree_node<std::pair<VuBin<FalconSessionEntity> const ,TViewPoint *>,void *> > >::destroy<std::pair<VuBin<FalconSessionEntity> const ,TViewPoint *> >
PUBLIC	?pointer_to@?$pointer_traits@PAU?$pair@$$CBV?$VuBin@VFalconSessionEntity@@@@PAVTViewPoint@@@std@@@std@@SAPAU?$pair@$$CBV?$VuBin@VFalconSessionEntity@@@@PAVTViewPoint@@@2@AAU32@@Z ; std::pointer_traits<std::pair<VuBin<FalconSessionEntity> const ,TViewPoint *> *>::pointer_to
PUBLIC	??$construct@PADAAPAD@?$_Wrap_alloc@V?$allocator@D@std@@@std@@QAEXPAPADAAPAD@Z ; std::_Wrap_alloc<std::allocator<char> >::construct<char *,char * &>
PUBLIC	??$destroy@PAD@?$_Wrap_alloc@V?$allocator@D@std@@@std@@QAEXPAPAD@Z ; std::_Wrap_alloc<std::allocator<char> >::destroy<char *>
PUBLIC	??$addressof@D@std@@YAPADAAD@Z			; std::addressof<char>
PUBLIC	??$_Destroy_range@U?$_Wrap_alloc@V?$allocator@PAVVDial@@@std@@@std@@@std@@YAXPAPAVVDial@@0AAU?$_Wrap_alloc@V?$allocator@PAVVDial@@@std@@@0@@Z ; std::_Destroy_range<std::_Wrap_alloc<std::allocator<VDial *> > >
PUBLIC	??$_Kfn@$$CBV?$VuBin@VFalconSessionEntity@@@@PAVTViewPoint@@@?$_Tmap_traits@V?$VuBin@VFalconSessionEntity@@@@PAVTViewPoint@@U?$less@V?$VuBin@VFalconSessionEntity@@@@@std@@V?$allocator@U?$pair@$$CBV?$VuBin@VFalconSessionEntity@@@@PAVTViewPoint@@@std@@@4@$0A@@std@@SAABV?$VuBin@VFalconSessionEntity@@@@ABU?$pair@$$CBV?$VuBin@VFalconSessionEntity@@@@PAVTViewPoint@@@1@@Z ; std::_Tmap_traits<VuBin<FalconSessionEntity>,TViewPoint *,std::less<VuBin<FalconSessionEntity> >,std::allocator<std::pair<VuBin<FalconSessionEntity> const ,TViewPoint *> >,0>::_Kfn<VuBin<FalconSessionEntity> const ,TViewPoint *>
PUBLIC	??$addressof@PAU?$_Tree_node@U?$pair@$$CBV?$VuBin@VFalconSessionEntity@@@@PAVTViewPoint@@@std@@PAX@std@@@std@@YAPAPAU?$_Tree_node@U?$pair@$$CBV?$VuBin@VFalconSessionEntity@@@@PAVTViewPoint@@@std@@PAX@0@AAPAU10@@Z ; std::addressof<std::_Tree_node<std::pair<VuBin<FalconSessionEntity> const ,TViewPoint *>,void *> *>
PUBLIC	??$destroy@PAU?$_Tree_node@U?$pair@$$CBV?$VuBin@VFalconSessionEntity@@@@PAVTViewPoint@@@std@@PAX@std@@@?$_Wrap_alloc@V?$allocator@U?$_Tree_node@U?$pair@$$CBV?$VuBin@VFalconSessionEntity@@@@PAVTViewPoint@@@std@@PAX@std@@@std@@@std@@QAEXPAPAU?$_Tree_node@U?$pair@$$CBV?$VuBin@VFalconSessionEntity@@@@PAVTViewPoint@@@std@@PAX@1@@Z ; std::_Wrap_alloc<std::allocator<std::_Tree_node<std::pair<VuBin<FalconSessionEntity> const ,TViewPoint *>,void *> > >::destroy<std::_Tree_node<std::pair<VuBin<FalconSessionEntity> const ,TViewPoint *>,void *> *>
PUBLIC	??$construct@PAU?$_Tree_node@U?$pair@$$CBV?$VuBin@VFalconSessionEntity@@@@PAVTViewPoint@@@std@@PAX@std@@AAPAU12@@?$_Wrap_alloc@V?$allocator@U?$_Tree_node@U?$pair@$$CBV?$VuBin@VFalconSessionEntity@@@@PAVTViewPoint@@@std@@PAX@std@@@std@@@std@@QAEXPAPAU?$_Tree_node@U?$pair@$$CBV?$VuBin@VFalconSessionEntity@@@@PAVTViewPoint@@@std@@PAX@1@AAPAU21@@Z ; std::_Wrap_alloc<std::allocator<std::_Tree_node<std::pair<VuBin<FalconSessionEntity> const ,TViewPoint *>,void *> > >::construct<std::_Tree_node<std::pair<VuBin<FalconSessionEntity> const ,TViewPoint *>,void *> *,std::_Tree_node<std::pair<VuBin<FalconSessionEntity> const ,TViewPoint *>,void *> * &>
PUBLIC	??$_Allocate@D@std@@YAPADIPAD@Z			; std::_Allocate<char>
PUBLIC	??$_Allocate@U?$_Tree_node@U?$pair@$$CBV?$VuBin@VFalconSessionEntity@@@@PAVTViewPoint@@@std@@PAX@std@@@std@@YAPAU?$_Tree_node@U?$pair@$$CBV?$VuBin@VFalconSessionEntity@@@@PAVTViewPoint@@@std@@PAX@0@IPAU10@@Z ; std::_Allocate<std::_Tree_node<std::pair<VuBin<FalconSessionEntity> const ,TViewPoint *>,void *> >
PUBLIC	??$forward@V?$VuBin@VFalconSessionEntity@@@@@std@@YA$$QAV?$VuBin@VFalconSessionEntity@@@@AAV1@@Z ; std::forward<VuBin<FalconSessionEntity> >
PUBLIC	??$forward@AAPAVTViewPoint@@@std@@YAAAPAVTViewPoint@@AAPAV1@@Z ; std::forward<TViewPoint * &>
PUBLIC	??$?0V?$VuBin@VFalconSessionEntity@@@@AAPAVTViewPoint@@@?$pair@V?$VuBin@VFalconSessionEntity@@@@PAVTViewPoint@@@std@@QAE@$$QAV?$VuBin@VFalconSessionEntity@@@@AAPAVTViewPoint@@PAPAX@Z ; std::pair<VuBin<FalconSessionEntity>,TViewPoint *>::pair<VuBin<FalconSessionEntity>,TViewPoint *><VuBin<FalconSessionEntity>,TViewPoint * &>
PUBLIC	??$?0V?$VuBin@VFalconSessionEntity@@@@PAVTViewPoint@@@?$pair@V?$VuBin@VFalconSessionEntity@@@@PAVTViewPoint@@@std@@QAE@$$QAU01@PAPAX@Z ; std::pair<VuBin<FalconSessionEntity>,TViewPoint *>::pair<VuBin<FalconSessionEntity>,TViewPoint *><VuBin<FalconSessionEntity>,TViewPoint *>
PUBLIC	??$forward@U?$pair@V?$VuBin@VFalconSessionEntity@@@@PAVTViewPoint@@@std@@@std@@YA$$QAU?$pair@V?$VuBin@VFalconSessionEntity@@@@PAVTViewPoint@@@0@AAU10@@Z ; std::forward<std::pair<VuBin<FalconSessionEntity>,TViewPoint *> >
PUBLIC	??$_Buynode@U?$pair@V?$VuBin@VFalconSessionEntity@@@@PAVTViewPoint@@@std@@@?$_Tree_buy@U?$pair@$$CBV?$VuBin@VFalconSessionEntity@@@@PAVTViewPoint@@@std@@V?$allocator@U?$pair@$$CBV?$VuBin@VFalconSessionEntity@@@@PAVTViewPoint@@@std@@@2@@std@@QAEPAU?$_Tree_node@U?$pair@$$CBV?$VuBin@VFalconSessionEntity@@@@PAVTViewPoint@@@std@@PAX@1@$$QAU?$pair@V?$VuBin@VFalconSessionEntity@@@@PAVTViewPoint@@@1@@Z ; std::_Tree_buy<std::pair<VuBin<FalconSessionEntity> const ,TViewPoint *>,std::allocator<std::pair<VuBin<FalconSessionEntity> const ,TViewPoint *> > >::_Buynode<std::pair<VuBin<FalconSessionEntity>,TViewPoint *> >
PUBLIC	??$_Insert_nohint@AAU?$pair@$$CBV?$VuBin@VFalconSessionEntity@@@@PAVTViewPoint@@@std@@PAU?$_Tree_node@U?$pair@$$CBV?$VuBin@VFalconSessionEntity@@@@PAVTViewPoint@@@std@@PAX@2@@?$_Tree@V?$_Tmap_traits@V?$VuBin@VFalconSessionEntity@@@@PAVTViewPoint@@U?$less@V?$VuBin@VFalconSessionEntity@@@@@std@@V?$allocator@U?$pair@$$CBV?$VuBin@VFalconSessionEntity@@@@PAVTViewPoint@@@std@@@4@$0A@@std@@@std@@IAE?AU?$pair@V?$_Tree_iterator@V?$_Tree_val@U?$_Tree_simple_types@U?$pair@$$CBV?$VuBin@VFalconSessionEntity@@@@PAVTViewPoint@@@std@@@std@@@std@@@std@@_N@1@_NAAU?$pair@$$CBV?$VuBin@VFalconSessionEntity@@@@PAVTViewPoint@@@1@PAU?$_Tree_node@U?$pair@$$CBV?$VuBin@VFalconSessionEntity@@@@PAVTViewPoint@@@std@@PAX@1@@Z ; std::_Tree<std::_Tmap_traits<VuBin<FalconSessionEntity>,TViewPoint *,std::less<VuBin<FalconSessionEntity> >,std::allocator<std::pair<VuBin<FalconSessionEntity> const ,TViewPoint *> >,0> >::_Insert_nohint<std::pair<VuBin<FalconSessionEntity> const ,TViewPoint *> &,std::_Tree_node<std::pair<VuBin<FalconSessionEntity> const ,TViewPoint *>,void *> *>
PUBLIC	??$?0V?$_Tree_iterator@V?$_Tree_val@U?$_Tree_simple_types@U?$pair@$$CBV?$VuBin@VFalconSessionEntity@@@@PAVTViewPoint@@@std@@@std@@@std@@@std@@_N@?$pair@V?$_Tree_iterator@V?$_Tree_val@U?$_Tree_simple_types@U?$pair@$$CBV?$VuBin@VFalconSessionEntity@@@@PAVTViewPoint@@@std@@@std@@@std@@@std@@_N@std@@QAE@$$QAU01@PAPAX@Z ; std::pair<std::_Tree_iterator<std::_Tree_val<std::_Tree_simple_types<std::pair<VuBin<FalconSessionEntity> const ,TViewPoint *> > > >,bool>::pair<std::_Tree_iterator<std::_Tree_val<std::_Tree_simple_types<std::pair<VuBin<FalconSessionEntity> const ,TViewPoint *> > > >,bool><std::_Tree_iterator<std::_Tree_val<std::_Tree_simple_types<std::pair<VuBin<FalconSessionEntity> const ,TViewPoint *> > > >,bool>
PUBLIC	??$_Move@AAD@std@@YA$$QADAAD@Z			; std::_Move<char &>
PUBLIC	??$destroy@U?$pair@$$CBV?$VuBin@VFalconSessionEntity@@@@PAVTViewPoint@@@std@@@?$allocator_traits@V?$allocator@U?$_Tree_node@U?$pair@$$CBV?$VuBin@VFalconSessionEntity@@@@PAVTViewPoint@@@std@@PAX@std@@@std@@@std@@SAXAAV?$allocator@U?$_Tree_node@U?$pair@$$CBV?$VuBin@VFalconSessionEntity@@@@PAVTViewPoint@@@std@@PAX@std@@@1@PAU?$pair@$$CBV?$VuBin@VFalconSessionEntity@@@@PAVTViewPoint@@@1@@Z ; std::allocator_traits<std::allocator<std::_Tree_node<std::pair<VuBin<FalconSessionEntity> const ,TViewPoint *>,void *> > >::destroy<std::pair<VuBin<FalconSessionEntity> const ,TViewPoint *> >
PUBLIC	??$forward@AAPAD@std@@YAAAPADAAPAD@Z		; std::forward<char * &>
PUBLIC	??$construct@PADAAPAD@?$allocator_traits@V?$allocator@D@std@@@std@@SAXAAV?$allocator@D@1@PAPADAAPAD@Z ; std::allocator_traits<std::allocator<char> >::construct<char *,char * &>
PUBLIC	??$destroy@PAD@?$allocator_traits@V?$allocator@D@std@@@std@@SAXAAV?$allocator@D@1@PAPAD@Z ; std::allocator_traits<std::allocator<char> >::destroy<char *>
PUBLIC	??$_Ptr_cat@PAVVDial@@PAV1@@std@@YA?AU_Scalar_ptr_iterator_tag@0@PAPAVVDial@@0@Z ; std::_Ptr_cat<VDial *,VDial *>
PUBLIC	??$_Destroy_range@U?$_Wrap_alloc@V?$allocator@PAVVDial@@@std@@@std@@@std@@YAXPAPAVVDial@@0AAU?$_Wrap_alloc@V?$allocator@PAVVDial@@@std@@@0@U_Scalar_ptr_iterator_tag@0@@Z ; std::_Destroy_range<std::_Wrap_alloc<std::allocator<VDial *> > >
PUBLIC	??$destroy@PAU?$_Tree_node@U?$pair@$$CBV?$VuBin@VFalconSessionEntity@@@@PAVTViewPoint@@@std@@PAX@std@@@?$allocator_traits@V?$allocator@U?$_Tree_node@U?$pair@$$CBV?$VuBin@VFalconSessionEntity@@@@PAVTViewPoint@@@std@@PAX@std@@@std@@@std@@SAXAAV?$allocator@U?$_Tree_node@U?$pair@$$CBV?$VuBin@VFalconSessionEntity@@@@PAVTViewPoint@@@std@@PAX@std@@@1@PAPAU?$_Tree_node@U?$pair@$$CBV?$VuBin@VFalconSessionEntity@@@@PAVTViewPoint@@@std@@PAX@1@@Z ; std::allocator_traits<std::allocator<std::_Tree_node<std::pair<VuBin<FalconSessionEntity> const ,TViewPoint *>,void *> > >::destroy<std::_Tree_node<std::pair<VuBin<FalconSessionEntity> const ,TViewPoint *>,void *> *>
PUBLIC	??$forward@AAPAU?$_Tree_node@U?$pair@$$CBV?$VuBin@VFalconSessionEntity@@@@PAVTViewPoint@@@std@@PAX@std@@@std@@YAAAPAU?$_Tree_node@U?$pair@$$CBV?$VuBin@VFalconSessionEntity@@@@PAVTViewPoint@@@std@@PAX@0@AAPAU10@@Z ; std::forward<std::_Tree_node<std::pair<VuBin<FalconSessionEntity> const ,TViewPoint *>,void *> * &>
PUBLIC	??$construct@PAU?$_Tree_node@U?$pair@$$CBV?$VuBin@VFalconSessionEntity@@@@PAVTViewPoint@@@std@@PAX@std@@AAPAU12@@?$allocator_traits@V?$allocator@U?$_Tree_node@U?$pair@$$CBV?$VuBin@VFalconSessionEntity@@@@PAVTViewPoint@@@std@@PAX@std@@@std@@@std@@SAXAAV?$allocator@U?$_Tree_node@U?$pair@$$CBV?$VuBin@VFalconSessionEntity@@@@PAVTViewPoint@@@std@@PAX@std@@@1@PAPAU?$_Tree_node@U?$pair@$$CBV?$VuBin@VFalconSessionEntity@@@@PAVTViewPoint@@@std@@PAX@1@AAPAU31@@Z ; std::allocator_traits<std::allocator<std::_Tree_node<std::pair<VuBin<FalconSessionEntity> const ,TViewPoint *>,void *> > >::construct<std::_Tree_node<std::pair<VuBin<FalconSessionEntity> const ,TViewPoint *>,void *> *,std::_Tree_node<std::pair<VuBin<FalconSessionEntity> const ,TViewPoint *>,void *> * &>
PUBLIC	??$forward@PAVTViewPoint@@@std@@YA$$QAPAVTViewPoint@@AAPAV1@@Z ; std::forward<TViewPoint *>
PUBLIC	??$construct@U?$pair@$$CBV?$VuBin@VFalconSessionEntity@@@@PAVTViewPoint@@@std@@U?$pair@V?$VuBin@VFalconSessionEntity@@@@PAVTViewPoint@@@2@@?$_Wrap_alloc@V?$allocator@U?$_Tree_node@U?$pair@$$CBV?$VuBin@VFalconSessionEntity@@@@PAVTViewPoint@@@std@@PAX@std@@@std@@@std@@QAEXPAU?$pair@$$CBV?$VuBin@VFalconSessionEntity@@@@PAVTViewPoint@@@1@$$QAU?$pair@V?$VuBin@VFalconSessionEntity@@@@PAVTViewPoint@@@1@@Z ; std::_Wrap_alloc<std::allocator<std::_Tree_node<std::pair<VuBin<FalconSessionEntity> const ,TViewPoint *>,void *> > >::construct<std::pair<VuBin<FalconSessionEntity> const ,TViewPoint *>,std::pair<VuBin<FalconSessionEntity>,TViewPoint *> >
PUBLIC	??$forward@AAU?$pair@$$CBV?$VuBin@VFalconSessionEntity@@@@PAVTViewPoint@@@std@@@std@@YAAAU?$pair@$$CBV?$VuBin@VFalconSessionEntity@@@@PAVTViewPoint@@@0@AAU10@@Z ; std::forward<std::pair<VuBin<FalconSessionEntity> const ,TViewPoint *> &>
PUBLIC	??$_Insert_at@AAU?$pair@$$CBV?$VuBin@VFalconSessionEntity@@@@PAVTViewPoint@@@std@@PAU?$_Tree_node@U?$pair@$$CBV?$VuBin@VFalconSessionEntity@@@@PAVTViewPoint@@@std@@PAX@2@@?$_Tree@V?$_Tmap_traits@V?$VuBin@VFalconSessionEntity@@@@PAVTViewPoint@@U?$less@V?$VuBin@VFalconSessionEntity@@@@@std@@V?$allocator@U?$pair@$$CBV?$VuBin@VFalconSessionEntity@@@@PAVTViewPoint@@@std@@@4@$0A@@std@@@std@@IAE?AV?$_Tree_iterator@V?$_Tree_val@U?$_Tree_simple_types@U?$pair@$$CBV?$VuBin@VFalconSessionEntity@@@@PAVTViewPoint@@@std@@@std@@@std@@@1@_NPAU?$_Tree_node@U?$pair@$$CBV?$VuBin@VFalconSessionEntity@@@@PAVTViewPoint@@@std@@PAX@1@AAU?$pair@$$CBV?$VuBin@VFalconSessionEntity@@@@PAVTViewPoint@@@1@1@Z ; std::_Tree<std::_Tmap_traits<VuBin<FalconSessionEntity>,TViewPoint *,std::less<VuBin<FalconSessionEntity> >,std::allocator<std::pair<VuBin<FalconSessionEntity> const ,TViewPoint *> >,0> >::_Insert_at<std::pair<VuBin<FalconSessionEntity> const ,TViewPoint *> &,std::_Tree_node<std::pair<VuBin<FalconSessionEntity> const ,TViewPoint *>,void *> *>
PUBLIC	??$?0V?$_Tree_iterator@V?$_Tree_val@U?$_Tree_simple_types@U?$pair@$$CBV?$VuBin@VFalconSessionEntity@@@@PAVTViewPoint@@@std@@@std@@@std@@@std@@_N@?$pair@V?$_Tree_iterator@V?$_Tree_val@U?$_Tree_simple_types@U?$pair@$$CBV?$VuBin@VFalconSessionEntity@@@@PAVTViewPoint@@@std@@@std@@@std@@@std@@_N@std@@QAE@$$QAV?$_Tree_iterator@V?$_Tree_val@U?$_Tree_simple_types@U?$pair@$$CBV?$VuBin@VFalconSessionEntity@@@@PAVTViewPoint@@@std@@@std@@@std@@@1@$$QA_NPAPAX@Z ; std::pair<std::_Tree_iterator<std::_Tree_val<std::_Tree_simple_types<std::pair<VuBin<FalconSessionEntity> const ,TViewPoint *> > > >,bool>::pair<std::_Tree_iterator<std::_Tree_val<std::_Tree_simple_types<std::pair<VuBin<FalconSessionEntity> const ,TViewPoint *> > > >,bool><std::_Tree_iterator<std::_Tree_val<std::_Tree_simple_types<std::pair<VuBin<FalconSessionEntity> const ,TViewPoint *> > > >,bool>
PUBLIC	??$?0AAV?$_Tree_iterator@V?$_Tree_val@U?$_Tree_simple_types@U?$pair@$$CBV?$VuBin@VFalconSessionEntity@@@@PAVTViewPoint@@@std@@@std@@@std@@@std@@_N@?$pair@V?$_Tree_iterator@V?$_Tree_val@U?$_Tree_simple_types@U?$pair@$$CBV?$VuBin@VFalconSessionEntity@@@@PAVTViewPoint@@@std@@@std@@@std@@@std@@_N@std@@QAE@AAV?$_Tree_iterator@V?$_Tree_val@U?$_Tree_simple_types@U?$pair@$$CBV?$VuBin@VFalconSessionEntity@@@@PAVTViewPoint@@@std@@@std@@@std@@@1@$$QA_NPAPAX@Z ; std::pair<std::_Tree_iterator<std::_Tree_val<std::_Tree_simple_types<std::pair<VuBin<FalconSessionEntity> const ,TViewPoint *> > > >,bool>::pair<std::_Tree_iterator<std::_Tree_val<std::_Tree_simple_types<std::pair<VuBin<FalconSessionEntity> const ,TViewPoint *> > > >,bool><std::_Tree_iterator<std::_Tree_val<std::_Tree_simple_types<std::pair<VuBin<FalconSessionEntity> const ,TViewPoint *> > > > &,bool>
PUBLIC	??$forward@V?$_Tree_iterator@V?$_Tree_val@U?$_Tree_simple_types@U?$pair@$$CBV?$VuBin@VFalconSessionEntity@@@@PAVTViewPoint@@@std@@@std@@@std@@@std@@@std@@YA$$QAV?$_Tree_iterator@V?$_Tree_val@U?$_Tree_simple_types@U?$pair@$$CBV?$VuBin@VFalconSessionEntity@@@@PAVTViewPoint@@@std@@@std@@@std@@@0@AAV10@@Z ; std::forward<std::_Tree_iterator<std::_Tree_val<std::_Tree_simple_types<std::pair<VuBin<FalconSessionEntity> const ,TViewPoint *> > > > >
PUBLIC	??$forward@_N@std@@YA$$QA_NAA_N@Z		; std::forward<bool>
PUBLIC	??$destroy@U?$pair@$$CBV?$VuBin@VFalconSessionEntity@@@@PAVTViewPoint@@@std@@@?$allocator@U?$_Tree_node@U?$pair@$$CBV?$VuBin@VFalconSessionEntity@@@@PAVTViewPoint@@@std@@PAX@std@@@std@@QAEXPAU?$pair@$$CBV?$VuBin@VFalconSessionEntity@@@@PAVTViewPoint@@@1@@Z ; std::allocator<std::_Tree_node<std::pair<VuBin<FalconSessionEntity> const ,TViewPoint *>,void *> >::destroy<std::pair<VuBin<FalconSessionEntity> const ,TViewPoint *> >
PUBLIC	??$construct@PADAAPAD@?$allocator@D@std@@QAEXPAPADAAPAD@Z ; std::allocator<char>::construct<char *,char * &>
PUBLIC	??$destroy@PAD@?$allocator@D@std@@QAEXPAPAD@Z	; std::allocator<char>::destroy<char *>
PUBLIC	??$destroy@PAU?$_Tree_node@U?$pair@$$CBV?$VuBin@VFalconSessionEntity@@@@PAVTViewPoint@@@std@@PAX@std@@@?$allocator@U?$_Tree_node@U?$pair@$$CBV?$VuBin@VFalconSessionEntity@@@@PAVTViewPoint@@@std@@PAX@std@@@std@@QAEXPAPAU?$_Tree_node@U?$pair@$$CBV?$VuBin@VFalconSessionEntity@@@@PAVTViewPoint@@@std@@PAX@1@@Z ; std::allocator<std::_Tree_node<std::pair<VuBin<FalconSessionEntity> const ,TViewPoint *>,void *> >::destroy<std::_Tree_node<std::pair<VuBin<FalconSessionEntity> const ,TViewPoint *>,void *> *>
PUBLIC	??$construct@PAU?$_Tree_node@U?$pair@$$CBV?$VuBin@VFalconSessionEntity@@@@PAVTViewPoint@@@std@@PAX@std@@AAPAU12@@?$allocator@U?$_Tree_node@U?$pair@$$CBV?$VuBin@VFalconSessionEntity@@@@PAVTViewPoint@@@std@@PAX@std@@@std@@QAEXPAPAU?$_Tree_node@U?$pair@$$CBV?$VuBin@VFalconSessionEntity@@@@PAVTViewPoint@@@std@@PAX@1@AAPAU21@@Z ; std::allocator<std::_Tree_node<std::pair<VuBin<FalconSessionEntity> const ,TViewPoint *>,void *> >::construct<std::_Tree_node<std::pair<VuBin<FalconSessionEntity> const ,TViewPoint *>,void *> *,std::_Tree_node<std::pair<VuBin<FalconSessionEntity> const ,TViewPoint *>,void *> * &>
PUBLIC	??$construct@U?$pair@$$CBV?$VuBin@VFalconSessionEntity@@@@PAVTViewPoint@@@std@@U?$pair@V?$VuBin@VFalconSessionEntity@@@@PAVTViewPoint@@@2@@?$allocator_traits@V?$allocator@U?$_Tree_node@U?$pair@$$CBV?$VuBin@VFalconSessionEntity@@@@PAVTViewPoint@@@std@@PAX@std@@@std@@@std@@SAXAAV?$allocator@U?$_Tree_node@U?$pair@$$CBV?$VuBin@VFalconSessionEntity@@@@PAVTViewPoint@@@std@@PAX@std@@@1@PAU?$pair@$$CBV?$VuBin@VFalconSessionEntity@@@@PAVTViewPoint@@@1@$$QAU?$pair@V?$VuBin@VFalconSessionEntity@@@@PAVTViewPoint@@@1@@Z ; std::allocator_traits<std::allocator<std::_Tree_node<std::pair<VuBin<FalconSessionEntity> const ,TViewPoint *>,void *> > >::construct<std::pair<VuBin<FalconSessionEntity> const ,TViewPoint *>,std::pair<VuBin<FalconSessionEntity>,TViewPoint *> >
PUBLIC	??$_Buynode_if_nil@AAU?$pair@$$CBV?$VuBin@VFalconSessionEntity@@@@PAVTViewPoint@@@std@@@?$_Tree@V?$_Tmap_traits@V?$VuBin@VFalconSessionEntity@@@@PAVTViewPoint@@U?$less@V?$VuBin@VFalconSessionEntity@@@@@std@@V?$allocator@U?$pair@$$CBV?$VuBin@VFalconSessionEntity@@@@PAVTViewPoint@@@std@@@4@$0A@@std@@@std@@IAEPAU?$_Tree_node@U?$pair@$$CBV?$VuBin@VFalconSessionEntity@@@@PAVTViewPoint@@@std@@PAX@1@PAU21@AAU?$pair@$$CBV?$VuBin@VFalconSessionEntity@@@@PAVTViewPoint@@@1@@Z ; std::_Tree<std::_Tmap_traits<VuBin<FalconSessionEntity>,TViewPoint *,std::less<VuBin<FalconSessionEntity> >,std::allocator<std::pair<VuBin<FalconSessionEntity> const ,TViewPoint *> >,0> >::_Buynode_if_nil<std::pair<VuBin<FalconSessionEntity> const ,TViewPoint *> &>
PUBLIC	??$forward@AAV?$_Tree_iterator@V?$_Tree_val@U?$_Tree_simple_types@U?$pair@$$CBV?$VuBin@VFalconSessionEntity@@@@PAVTViewPoint@@@std@@@std@@@std@@@std@@@std@@YAAAV?$_Tree_iterator@V?$_Tree_val@U?$_Tree_simple_types@U?$pair@$$CBV?$VuBin@VFalconSessionEntity@@@@PAVTViewPoint@@@std@@@std@@@std@@@0@AAV10@@Z ; std::forward<std::_Tree_iterator<std::_Tree_val<std::_Tree_simple_types<std::pair<VuBin<FalconSessionEntity> const ,TViewPoint *> > > > &>
PUBLIC	??$construct@U?$pair@$$CBV?$VuBin@VFalconSessionEntity@@@@PAVTViewPoint@@@std@@U?$pair@V?$VuBin@VFalconSessionEntity@@@@PAVTViewPoint@@@2@@?$allocator@U?$_Tree_node@U?$pair@$$CBV?$VuBin@VFalconSessionEntity@@@@PAVTViewPoint@@@std@@PAX@std@@@std@@QAEXPAU?$pair@$$CBV?$VuBin@VFalconSessionEntity@@@@PAVTViewPoint@@@1@$$QAU?$pair@V?$VuBin@VFalconSessionEntity@@@@PAVTViewPoint@@@1@@Z ; std::allocator<std::_Tree_node<std::pair<VuBin<FalconSessionEntity> const ,TViewPoint *>,void *> >::construct<std::pair<VuBin<FalconSessionEntity> const ,TViewPoint *>,std::pair<VuBin<FalconSessionEntity>,TViewPoint *> >
PUBLIC	??_C@_00CNPNBAHC@?$AA@				; `string'
PUBLIC	??_7error_category@std@@6B@			; std::error_category::`vftable'
PUBLIC	??_7_Generic_error_category@std@@6B@		; std::_Generic_error_category::`vftable'
PUBLIC	??_C@_07DCLBNMLN@generic?$AA@			; `string'
PUBLIC	??_C@_0O@BFJCFAAK@unknown?5error?$AA@		; `string'
PUBLIC	??_7_Iostream_error_category@std@@6B@		; std::_Iostream_error_category::`vftable'
PUBLIC	??_C@_08LLGCOLLL@iostream?$AA@			; `string'
PUBLIC	??_C@_0BG@PADBLCHM@iostream?5stream?5error?$AA@	; `string'
PUBLIC	??_7_System_error_category@std@@6B@		; std::_System_error_category::`vftable'
PUBLIC	??_C@_06FHFOAHML@system?$AA@			; `string'
PUBLIC	?_Generic_object@?$_Error_objects@H@std@@2V_Generic_error_category@2@A ; std::_Error_objects<int>::_Generic_object
PUBLIC	?_Iostream_object@?$_Error_objects@H@std@@2V_Iostream_error_category@2@A ; std::_Error_objects<int>::_Iostream_object
PUBLIC	?_System_object@?$_Error_objects@H@std@@2V_System_error_category@2@A ; std::_Error_objects<int>::_System_object
PUBLIC	??_C@_02DPKJAMEF@?$CFd?$AA@			; `string'
PUBLIC	?id@?$num_put@DV?$back_insert_iterator@V?$basic_string@DU?$char_traits@D@std@@V?$allocator@D@2@@std@@@std@@@std@@2V0locale@2@A ; std::num_put<char,std::back_insert_iterator<std::basic_string<char,std::char_traits<char>,std::allocator<char> > > >::id
PUBLIC	?id@?$num_put@_WV?$back_insert_iterator@V?$basic_string@_WU?$char_traits@_W@std@@V?$allocator@_W@2@@std@@@std@@@std@@2V0locale@2@A ; std::num_put<wchar_t,std::back_insert_iterator<std::basic_string<wchar_t,std::char_traits<wchar_t>,std::allocator<wchar_t> > > >::id
PUBLIC	?OTWDriver@@3VOTWDriverClass@@A			; OTWDriver
PUBLIC	??_7TViewPoint@@6B@				; TViewPoint::`vftable'
PUBLIC	??_7VirtualDisplay@@6B@				; VirtualDisplay::`vftable'
PUBLIC	??_7Render2D@@6B@				; Render2D::`vftable'
PUBLIC	??_7Render3D@@6B@				; Render3D::`vftable'
PUBLIC	??_7RenderOTW@@6B@				; RenderOTW::`vftable'
PUBLIC	??_7RViewPoint@@6B@				; RViewPoint::`vftable'
PUBLIC	?g_intellivibeData@@3VIntellivibeData@@A	; g_intellivibeData
PUBLIC	?VirtualMFD@@3PAUtagRECT@@A			; VirtualMFD
PUBLIC	??_C@_0BH@OGDPJBMB@FalconSharedMemoryArea?$AA@	; `string'
PUBLIC	??_C@_0CK@GKIFBCNA@CreateFileMapping?5for?5shared?5dat@ ; `string'
PUBLIC	??_C@_0CC@IHAPOFFC@FalconIntellivibeSharedMemoryAre@ ; `string'
PUBLIC	??_C@_0DA@OGKJEJHD@CreateFileMapping?5for?5shared?5ivi@ ; `string'
PUBLIC	??_C@_09HCKFNKEI@cs_update?$AA@			; `string'
PUBLIC	??_C@_0BA@BFGLCJPG@viewpoint?5mutex?$AA@	; `string'
PUBLIC	??_C@_0O@BIOGKNCP@ckpit_res?4dat?$AA@		; `string'
PUBLIC	??_C@_01KDCPPGHE@r?$AA@				; `string'
PUBLIC	??_C@_04PAJMBCIO@?$CDend?$AA@			; `string'
PUBLIC	??_C@_04JCOCLNCJ@resX?$AA@			; `string'
PUBLIC	??_C@_04ILPJIMGI@resY?$AA@			; `string'
PUBLIC	??_C@_0N@IBEGCCOI@ws_ckpit?4dat?$AA@		; `string'
PUBLIC	??_C@_0N@NKNFLJEN@ws_plock?4dat?$AA@		; `string'
PUBLIC	??_C@_0N@DEOOKMHO@16_ckpit?4dat?$AA@		; `string'
PUBLIC	??_C@_0N@DHOIJHAB@12_ckpit?4dat?$AA@		; `string'
PUBLIC	??_C@_0N@NLNDAJJO@10_ckpit?4dat?$AA@		; `string'
PUBLIC	??_C@_0M@HDJBMLCH@8_ckpit?4dat?$AA@		; `string'
PUBLIC	??_C@_0M@JKKABIDJ@6_ckpit?4dat?$AA@		; `string'
PUBLIC	??_C@_0M@CIACFAIC@8_plock?4dat?$AA@		; `string'
PUBLIC	??_C@_0N@IAEAJCDL@10_plock?4dat?$AA@		; `string'
PUBLIC	??_C@_0N@GMHLAMKE@12_plock?4dat?$AA@		; `string'
PUBLIC	??_C@_0N@GPHNDHNL@16_plock?4dat?$AA@		; `string'
PUBLIC	??_C@_0M@MBDDIDJM@6_plock?4dat?$AA@		; `string'
PUBLIC	?id@?$numpunct@D@std@@2V0locale@2@A		; std::numpunct<char>::id
PUBLIC	?id@?$numpunct@_W@std@@2V0locale@2@A		; std::numpunct<wchar_t>::id
PUBLIC	??_C@_0BM@PAPJHAGI@invalid?5map?1set?$DMT?$DO?5iterator?$AA@ ; `string'
PUBLIC	??_C@_0BI@CFPLBAOH@invalid?5string?5position?$AA@ ; `string'
PUBLIC	??_C@_0BA@JFNIOLAK@string?5too?5long?$AA@	; `string'
PUBLIC	??_C@_0BE@JONHPENG@map?1set?$DMT?$DO?5too?5long?$AA@ ; `string'
PUBLIC	??_R4error_category@std@@6B@			; std::error_category::`RTTI Complete Object Locator'
PUBLIC	??_R0?AVerror_category@std@@@8			; std::error_category `RTTI Type Descriptor'
PUBLIC	??_R3error_category@std@@8			; std::error_category::`RTTI Class Hierarchy Descriptor'
PUBLIC	??_R2error_category@std@@8			; std::error_category::`RTTI Base Class Array'
PUBLIC	??_R1A@?0A@EA@error_category@std@@8		; std::error_category::`RTTI Base Class Descriptor at (0,-1,0,64)'
PUBLIC	??_R4_Generic_error_category@std@@6B@		; std::_Generic_error_category::`RTTI Complete Object Locator'
PUBLIC	??_R0?AV_Generic_error_category@std@@@8		; std::_Generic_error_category `RTTI Type Descriptor'
PUBLIC	??_R3_Generic_error_category@std@@8		; std::_Generic_error_category::`RTTI Class Hierarchy Descriptor'
PUBLIC	??_R2_Generic_error_category@std@@8		; std::_Generic_error_category::`RTTI Base Class Array'
PUBLIC	??_R1A@?0A@EA@_Generic_error_category@std@@8	; std::_Generic_error_category::`RTTI Base Class Descriptor at (0,-1,0,64)'
PUBLIC	??_R4_Iostream_error_category@std@@6B@		; std::_Iostream_error_category::`RTTI Complete Object Locator'
PUBLIC	??_R0?AV_Iostream_error_category@std@@@8	; std::_Iostream_error_category `RTTI Type Descriptor'
PUBLIC	??_R3_Iostream_error_category@std@@8		; std::_Iostream_error_category::`RTTI Class Hierarchy Descriptor'
PUBLIC	??_R2_Iostream_error_category@std@@8		; std::_Iostream_error_category::`RTTI Base Class Array'
PUBLIC	??_R1A@?0A@EA@_Iostream_error_category@std@@8	; std::_Iostream_error_category::`RTTI Base Class Descriptor at (0,-1,0,64)'
PUBLIC	??_R4_System_error_category@std@@6B@		; std::_System_error_category::`RTTI Complete Object Locator'
PUBLIC	??_R0?AV_System_error_category@std@@@8		; std::_System_error_category `RTTI Type Descriptor'
PUBLIC	??_R3_System_error_category@std@@8		; std::_System_error_category::`RTTI Class Hierarchy Descriptor'
PUBLIC	??_R2_System_error_category@std@@8		; std::_System_error_category::`RTTI Base Class Array'
PUBLIC	??_R1A@?0A@EA@_System_error_category@std@@8	; std::_System_error_category::`RTTI Base Class Descriptor at (0,-1,0,64)'
PUBLIC	??_R4RViewPoint@@6B@				; RViewPoint::`RTTI Complete Object Locator'
PUBLIC	??_R0?AVRViewPoint@@@8				; RViewPoint `RTTI Type Descriptor'
PUBLIC	??_R3RViewPoint@@8				; RViewPoint::`RTTI Class Hierarchy Descriptor'
PUBLIC	??_R2RViewPoint@@8				; RViewPoint::`RTTI Base Class Array'
PUBLIC	??_R1A@?0A@EA@RViewPoint@@8			; RViewPoint::`RTTI Base Class Descriptor at (0,-1,0,64)'
PUBLIC	??_R1A@?0A@EA@TViewPoint@@8			; TViewPoint::`RTTI Base Class Descriptor at (0,-1,0,64)'
PUBLIC	??_R0?AVTViewPoint@@@8				; TViewPoint `RTTI Type Descriptor'
PUBLIC	??_R3TViewPoint@@8				; TViewPoint::`RTTI Class Hierarchy Descriptor'
PUBLIC	??_R2TViewPoint@@8				; TViewPoint::`RTTI Base Class Array'
PUBLIC	??_R4RenderOTW@@6B@				; RenderOTW::`RTTI Complete Object Locator'
PUBLIC	??_R0?AVRenderOTW@@@8				; RenderOTW `RTTI Type Descriptor'
PUBLIC	??_R3RenderOTW@@8				; RenderOTW::`RTTI Class Hierarchy Descriptor'
PUBLIC	??_R2RenderOTW@@8				; RenderOTW::`RTTI Base Class Array'
PUBLIC	??_R1A@?0A@EA@RenderOTW@@8			; RenderOTW::`RTTI Base Class Descriptor at (0,-1,0,64)'
PUBLIC	??_R1A@?0A@EA@Render3D@@8			; Render3D::`RTTI Base Class Descriptor at (0,-1,0,64)'
PUBLIC	??_R0?AVRender3D@@@8				; Render3D `RTTI Type Descriptor'
PUBLIC	??_R3Render3D@@8				; Render3D::`RTTI Class Hierarchy Descriptor'
PUBLIC	??_R2Render3D@@8				; Render3D::`RTTI Base Class Array'
PUBLIC	??_R1A@?0A@EA@Render2D@@8			; Render2D::`RTTI Base Class Descriptor at (0,-1,0,64)'
PUBLIC	??_R0?AVRender2D@@@8				; Render2D `RTTI Type Descriptor'
PUBLIC	??_R3Render2D@@8				; Render2D::`RTTI Class Hierarchy Descriptor'
PUBLIC	??_R2Render2D@@8				; Render2D::`RTTI Base Class Array'
PUBLIC	??_R1A@?0A@EA@VirtualDisplay@@8			; VirtualDisplay::`RTTI Base Class Descriptor at (0,-1,0,64)'
PUBLIC	??_R0?AVVirtualDisplay@@@8			; VirtualDisplay `RTTI Type Descriptor'
PUBLIC	??_R3VirtualDisplay@@8				; VirtualDisplay::`RTTI Class Hierarchy Descriptor'
PUBLIC	??_R2VirtualDisplay@@8				; VirtualDisplay::`RTTI Base Class Array'
PUBLIC	??_R4Render2D@@6B@				; Render2D::`RTTI Complete Object Locator'
PUBLIC	??_R4TViewPoint@@6B@				; TViewPoint::`RTTI Complete Object Locator'
PUBLIC	??_R4Render3D@@6B@				; Render3D::`RTTI Complete Object Locator'
PUBLIC	??_R4VirtualDisplay@@6B@			; VirtualDisplay::`RTTI Complete Object Locator'
PUBLIC	__real@00000000
PUBLIC	__real@0000000000000000
PUBLIC	__real@3c8efa34
PUBLIC	__real@3e4ccccd
PUBLIC	__real@3eb2b8c1
PUBLIC	__real@3f000000
PUBLIC	__real@3f060a91
PUBLIC	__real@3f32b8c1
PUBLIC	__real@3f400000
PUBLIC	__real@3f800000
PUBLIC	__real@3f860a91
PUBLIC	__real@3fb4fdf4
PUBLIC	__real@3ff921fb54442d18
PUBLIC	__real@40000000
PUBLIC	__real@400921fb54442d18
PUBLIC	__real@40400000
PUBLIC	__real@40a00000
PUBLIC	__real@41000000
PUBLIC	__real@41200000
PUBLIC	__real@41700000
PUBLIC	__real@41f00000
PUBLIC	__real@42c80000
PUBLIC	__real@431a0000
PUBLIC	__real@43f00000
PUBLIC	__real@44160000
PUBLIC	__real@44200000
PUBLIC	__real@44400000
PUBLIC	__real@44480000
PUBLIC	__real@44700000
PUBLIC	__real@44800000
PUBLIC	__real@44960000
PUBLIC	__real@44a00000
PUBLIC	__real@44c80000
PUBLIC	__real@454cffae
PUBLIC	__real@46fffe00
PUBLIC	__real@47d6d800
PUBLIC	__real@4805ca00
PUBLIC	__real@49ac5d00
PUBLIC	__real@49b4aa00
PUBLIC	__real@8000000000000000
PUBLIC	__real@bebd70a4
PUBLIC	__real@bec28f5c
PUBLIC	__real@bf170a3e
PUBLIC	__real@bf19999a
PUBLIC	__real@bf800000
PUBLIC	__real@bff921fb54442d18
PUBLIC	__real@c0400000
PUBLIC	__real@c2c80000
PUBLIC	__real@c3fa0000
PUBLIC	__real@c59c4000
PUBLIC	__real@c66a6000
PUBLIC	__real@c7c35000
PUBLIC	__xmm@80000000800000008000000080000000
EXTRN	__purecall:PROC
EXTRN	??2@YAPAXI@Z:PROC				; operator new
EXTRN	??3@YAXPAX@Z:PROC				; operator delete
EXTRN	_atexit:PROC
EXTRN	_labs:PROC
EXTRN	_rand:PROC
EXTRN	__finite:PROC
EXTRN	__isnan:PROC
EXTRN	_asin:PROC
EXTRN	_atan:PROC
EXTRN	_cos:PROC
EXTRN	_fabs:PROC
EXTRN	_sin:PROC
EXTRN	_memmove:PROC
EXTRN	_memcpy:PROC
EXTRN	_memset:PROC
EXTRN	_strcpy:PROC
EXTRN	_strlen:PROC
EXTRN	_strncpy:PROC
EXTRN	_strcmpi:PROC
EXTRN	_feof:PROC
EXTRN	_fgets:PROC
EXTRN	_sscanf:PROC
EXTRN	?_Xbad_alloc@std@@YAXXZ:PROC			; std::_Xbad_alloc
EXTRN	?_Xlength_error@std@@YAXPBD@Z:PROC		; std::_Xlength_error
EXTRN	?_Xout_of_range@std@@YAXPBD@Z:PROC		; std::_Xout_of_range
EXTRN	__imp__CloseHandle@4:PROC
EXTRN	__imp__MapViewOfFile@20:PROC
EXTRN	__imp__UnmapViewOfFile@4:PROC
EXTRN	__imp__CreateFileMappingA@24:PROC
EXTRN	__imp__SetFocus@4:PROC
EXTRN	_F4CreateCriticalSection:PROC
EXTRN	_F4DestroyCriticalSection:PROC
EXTRN	_F4EnterCriticalSection:PROC
EXTRN	_F4LeaveCriticalSection:PROC
EXTRN	?VuReferenceEntity@@YAHPAVVuEntity@@@Z:PROC	; VuReferenceEntity
EXTRN	?VuDeReferenceEntity@@YAHPAVVuEntity@@@Z:PROC	; VuDeReferenceEntity
EXTRN	?SetPosition@VuEntity@@QAEXMMM@Z:PROC		; VuEntity::SetPosition
EXTRN	?IsLocal@VuEntity@@QBEEXZ:PROC			; VuEntity::IsLocal
EXTRN	?Insert@VuDatabase@@QAEHPAVVuEntity@@@Z:PROC	; VuDatabase::Insert
EXTRN	?Remove@VuDatabase@@QAEHPAVVuEntity@@@Z:PROC	; VuDatabase::Remove
EXTRN	?Game@VuSessionEntity@@QAEPAVVuGameEntity@@XZ:PROC ; VuSessionEntity::Game
EXTRN	??0VuListIterator@@QAE@PAVVuLinkedList@@@Z:PROC	; VuListIterator::VuListIterator
EXTRN	??1VuListIterator@@UAE@XZ:PROC			; VuListIterator::~VuListIterator
EXTRN	?GetFirst@VuListIterator@@QAEPAVVuEntity@@XZ:PROC ; VuListIterator::GetFirst
EXTRN	?GetNext@VuListIterator@@QAEPAVVuEntity@@XZ:PROC ; VuListIterator::GetNext
EXTRN	??0SpotEntity@@QAE@G@Z:PROC			; SpotEntity::SpotEntity
EXTRN	??_Eerror_category@std@@UAEPAXI@Z:PROC		; std::error_category::`vector deleting destructor'
EXTRN	?_Syserror_map@std@@YAPBDH@Z:PROC		; std::_Syserror_map
EXTRN	?_Winerror_map@std@@YAPBDH@Z:PROC		; std::_Winerror_map
EXTRN	??_E_Generic_error_category@std@@UAEPAXI@Z:PROC	; std::_Generic_error_category::`vector deleting destructor'
EXTRN	??_E_Iostream_error_category@std@@UAEPAXI@Z:PROC ; std::_Iostream_error_category::`vector deleting destructor'
EXTRN	??_E_System_error_category@std@@UAEPAXI@Z:PROC	; std::_System_error_category::`vector deleting destructor'
EXTRN	??0ContextMPR@@QAE@XZ:PROC			; ContextMPR::ContextMPR
EXTRN	??1ContextMPR@@UAE@XZ:PROC			; ContextMPR::~ContextMPR
EXTRN	?SetState@ContextMPR@@QAEXGK@Z:PROC		; ContextMPR::SetState
EXTRN	?ClearBuffers@ContextMPR@@QAEXG@Z:PROC		; ContextMPR::ClearBuffers
EXTRN	?SelectForegroundColor@ContextMPR@@QAEXH@Z:PROC	; ContextMPR::SelectForegroundColor
EXTRN	?RestoreState@ContextMPR@@QAEXH@Z:PROC		; ContextMPR::RestoreState
EXTRN	_MonoPrint:PROC
EXTRN	_F4SoundEntering3d:PROC
EXTRN	_F4SoundLeaving3d:PROC
EXTRN	_F4SoundFXSetDist:PROC
EXTRN	_F4SoundFXInit:PROC
EXTRN	_F4SoundFXEnd:PROC
EXTRN	?SetOTWDisplayMode@OTWDriverClass@@QAEXW4OTWDisplayMode@1@@Z:PROC ; OTWDriverClass::SetOTWDisplayMode
EXTRN	?SelectDisplayMode@OTWDriverClass@@QAEXW4OTWDisplayMode@1@0@Z:PROC ; OTWDriverClass::SelectDisplayMode
EXTRN	?SelectExternal@OTWDriverClass@@QAEXXZ:PROC	; OTWDriverClass::SelectExternal
EXTRN	?ClearSfxLists@OTWDriverClass@@QAEXXZ:PROC	; OTWDriverClass::ClearSfxLists
EXTRN	?SetExitMenu@OTWDriverClass@@QAEXH@Z:PROC	; OTWDriverClass::SetExitMenu
EXTRN	?TimeUpdateCallback@OTWDriverClass@@CAXPAX@Z:PROC ; OTWDriverClass::TimeUpdateCallback
EXTRN	?ToggleHybridPitMode@OTWDriverClass@@QAEXXZ:PROC ; OTWDriverClass::ToggleHybridPitMode
EXTRN	?GetHybridPitMode@OTWDriverClass@@QAEHXZ:PROC	; OTWDriverClass::GetHybridPitMode
EXTRN	?PadlockF3_InitSidebar@OTWDriverClass@@AAEXXZ:PROC ; OTWDriverClass::PadlockF3_InitSidebar
EXTRN	?VCock_Cleanup@OTWDriverClass@@AAEXXZ:PROC	; OTWDriverClass::VCock_Cleanup
EXTRN	?VCock_Init@OTWDriverClass@@AAE_NHPAD0@Z:PROC	; OTWDriverClass::VCock_Init
EXTRN	?Button3D_Init@OTWDriverClass@@QAE_NHPAD0@Z:PROC ; OTWDriverClass::Button3D_Init
EXTRN	?SetupSplashScreen@OTWDriverClass@@QAEXXZ:PROC	; OTWDriverClass::SetupSplashScreen
EXTRN	?SplashScreenUpdate@OTWDriverClass@@QAEXH@Z:PROC ; OTWDriverClass::SplashScreenUpdate
EXTRN	?DeviceDependentGraphicsSetup@@YAXPAVDisplayDevice@@@Z:PROC ; DeviceDependentGraphicsSetup
EXTRN	?DeviceDependentGraphicsCleanup@@YAXPAVDisplayDevice@@@Z:PROC ; DeviceDependentGraphicsCleanup
EXTRN	?RegisterTimeUpdateCB@TimeManager@@QAEXP6AXPAX@Z0@Z:PROC ; TimeManager::RegisterTimeUpdateCB
EXTRN	?ReleaseTimeUpdateCB@TimeManager@@QAEXP6AXPAX@Z0@Z:PROC ; TimeManager::ReleaseTimeUpdateCB
EXTRN	?SetNVGmode@CTimeOfDay@@QAEXH@Z:PROC		; CTimeOfDay::SetNVGmode
EXTRN	?Setup@TViewPoint@@QAEXHHPAM@Z:PROC		; TViewPoint::Setup
EXTRN	?Cleanup@TViewPoint@@UAEXXZ:PROC		; TViewPoint::Cleanup
EXTRN	?Update@TViewPoint@@QAEXPBUTpoint@@@Z:PROC	; TViewPoint::Update
EXTRN	?GetAreaFloorAndCeiling@TViewPoint@@QAEXPAM0@Z:PROC ; TViewPoint::GetAreaFloorAndCeiling
EXTRN	?GetGroundType@TViewPoint@@QAEHMM@Z:PROC	; TViewPoint::GetGroundType
EXTRN	?GetGroundLevelApproximation@TViewPoint@@QAEMMM@Z:PROC ; TViewPoint::GetGroundLevelApproximation
EXTRN	?GetGroundLevel@TViewPoint@@QAEMMMPAUTpoint@@PAH@Z:PROC ; TViewPoint::GetGroundLevel
EXTRN	?LineOfSight@TViewPoint@@QAEHPAUTpoint@@0@Z:PROC ; TViewPoint::LineOfSight
EXTRN	?GroundIntersection@TViewPoint@@QAEHPAUTpoint@@0@Z:PROC ; TViewPoint::GroundIntersection
EXTRN	??0Texture@@QAE@XZ:PROC				; Texture::Texture
EXTRN	??1Texture@@QAE@XZ:PROC				; Texture::~Texture
EXTRN	?IsSetup@Texture@@SA_NXZ:PROC			; Texture::IsSetup
EXTRN	?Setup@VirtualDisplay@@UAEXXZ:PROC		; VirtualDisplay::Setup
EXTRN	?Cleanup@VirtualDisplay@@UAEXXZ:PROC		; VirtualDisplay::Cleanup
EXTRN	?Point@VirtualDisplay@@UAEXMM@Z:PROC		; VirtualDisplay::Point
EXTRN	?Line@VirtualDisplay@@UAEXMMMM@Z:PROC		; VirtualDisplay::Line
EXTRN	?Line@VirtualDisplay@@UAEXMMMMM@Z:PROC		; VirtualDisplay::Line
EXTRN	?Tri@VirtualDisplay@@UAEXMMMMMM@Z:PROC		; VirtualDisplay::Tri
EXTRN	?Oval@VirtualDisplay@@UAEXMMMM@Z:PROC		; VirtualDisplay::Oval
EXTRN	?OvalArc@VirtualDisplay@@UAEXMMMMMM@Z:PROC	; VirtualDisplay::OvalArc
EXTRN	?TextLeft@VirtualDisplay@@UAEXMMPBDH@Z:PROC	; VirtualDisplay::TextLeft
EXTRN	?TextRight@VirtualDisplay@@UAEXMMPBDH@Z:PROC	; VirtualDisplay::TextRight
EXTRN	?TextLeftVertical@VirtualDisplay@@UAEXMMPBDH@Z:PROC ; VirtualDisplay::TextLeftVertical
EXTRN	?TextRightVertical@VirtualDisplay@@UAEXMMPBDH@Z:PROC ; VirtualDisplay::TextRightVertical
EXTRN	?TextCenter@VirtualDisplay@@UAEXMMPBDH@Z:PROC	; VirtualDisplay::TextCenter
EXTRN	?TextCenterVertical@VirtualDisplay@@UAEXMMPBDH@Z:PROC ; VirtualDisplay::TextCenterVertical
EXTRN	?TextWrap@VirtualDisplay@@UAEHMMPBDMM@Z:PROC	; VirtualDisplay::TextWrap
EXTRN	?ScreenTextHeight@VirtualDisplay@@SAHXZ:PROC	; VirtualDisplay::ScreenTextHeight
EXTRN	?ScreenTextWidth@VirtualDisplay@@SAHPBD@Z:PROC	; VirtualDisplay::ScreenTextWidth
EXTRN	?SetViewport@VirtualDisplay@@UAEXMMMM@Z:PROC	; VirtualDisplay::SetViewport
EXTRN	?SetViewportRelative@VirtualDisplay@@UAEXMMMM@Z:PROC ; VirtualDisplay::SetViewportRelative
EXTRN	?Render2DTri@VirtualDisplay@@MAEXMMMMMM@Z:PROC	; VirtualDisplay::Render2DTri
EXTRN	??_EVirtualDisplay@@UAEPAXI@Z:PROC		; VirtualDisplay::`vector deleting destructor'
EXTRN	?Setup@Render2D@@UAEXPAVImageBuffer@@@Z:PROC	; Render2D::Setup
EXTRN	?Cleanup@Render2D@@UAEXXZ:PROC			; Render2D::Cleanup
EXTRN	?SetImageBuffer@Render2D@@UAEXPAVImageBuffer@@@Z:PROC ; Render2D::SetImageBuffer
EXTRN	?StartDraw@Render2D@@UAEXXZ:PROC		; Render2D::StartDraw
EXTRN	?EndDraw@Render2D@@UAEXXZ:PROC			; Render2D::EndDraw
EXTRN	?SetViewport@Render2D@@UAEXMMMM@Z:PROC		; Render2D::SetViewport
EXTRN	?Render2DPoint@Render2D@@UAEXMM@Z:PROC		; Render2D::Render2DPoint
EXTRN	?Render2DLine@Render2D@@UAEXMMMM@Z:PROC		; Render2D::Render2DLine
EXTRN	?Render2DTri@Render2D@@UAEXMMMMMM@Z:PROC	; Render2D::Render2DTri
EXTRN	?ScreenText@Render2D@@UAEXMMPBDH@Z:PROC		; Render2D::ScreenText
EXTRN	??_ERender2D@@UAEPAXI@Z:PROC			; Render2D::`vector deleting destructor'
EXTRN	?Setup@Render3D@@UAEXPAVImageBuffer@@@Z:PROC	; Render3D::Setup
EXTRN	?StartDraw@Render3D@@UAEXXZ:PROC		; Render3D::StartDraw
EXTRN	?SetObjectDetail@Render3D@@QAEXM@Z:PROC		; Render3D::SetObjectDetail
EXTRN	?SetFOV@Render3D@@QAEXMM@Z:PROC			; Render3D::SetFOV
EXTRN	?SetViewport@Render3D@@UAEXMMMM@Z:PROC		; Render3D::SetViewport
EXTRN	?SetObjectTextureState@Render3D@@QAEXH@Z:PROC	; Render3D::SetObjectTextureState
EXTRN	??_ERender3D@@UAEPAXI@Z:PROC			; Render3D::`vector deleting destructor'
EXTRN	?Setup@RenderOTW@@UAEXPAVImageBuffer@@PAVRViewPoint@@@Z:PROC ; RenderOTW::Setup
EXTRN	?Cleanup@RenderOTW@@UAEXXZ:PROC			; RenderOTW::Cleanup
EXTRN	?StartDraw@RenderOTW@@UAEXXZ:PROC		; RenderOTW::StartDraw
EXTRN	?EndDraw@RenderOTW@@UAEXXZ:PROC			; RenderOTW::EndDraw
EXTRN	?SetupStates@RenderOTW@@IAEXXZ:PROC		; RenderOTW::SetupStates
EXTRN	?ComputeVertexColor@RenderOTW@@MAEXPAUTerrainVertex@@PAUTpost@@MMM@Z:PROC ; RenderOTW::ComputeVertexColor
EXTRN	?ProcessColor@RenderOTW@@MAEXPAUTcolor@@@Z:PROC	; RenderOTW::ProcessColor
EXTRN	?DrawSun@RenderOTW@@MAEXXZ:PROC			; RenderOTW::DrawSun
EXTRN	?DrawMoon@RenderOTW@@MAEXXZ:PROC		; RenderOTW::DrawMoon
EXTRN	?DrawStars@RenderOTW@@MAEXXZ:PROC		; RenderOTW::DrawStars
EXTRN	?ComputeHorizonEffect@RenderOTW@@MAEXPAUHorizonRecord@@@Z:PROC ; RenderOTW::ComputeHorizonEffect
EXTRN	?SetTimeOfDayColor@RenderOTW@@MAEXXZ:PROC	; RenderOTW::SetTimeOfDayColor
EXTRN	?AdjustSkyColor@RenderOTW@@MAEXXZ:PROC		; RenderOTW::AdjustSkyColor
EXTRN	??_ERenderOTW@@UAEPAXI@Z:PROC			; RenderOTW::`vector deleting destructor'
EXTRN	??0ObjectDisplayList@@QAE@XZ:PROC		; ObjectDisplayList::ObjectDisplayList
EXTRN	??1ObjectDisplayList@@QAE@XZ:PROC		; ObjectDisplayList::~ObjectDisplayList
EXTRN	?ReleaseLodList@ObjectLOD@@SAXXZ:PROC		; ObjectLOD::ReleaseLodList
EXTRN	?ReferenceWithFetch@ObjectParent@@QAEXXZ:PROC	; ObjectParent::ReferenceWithFetch
EXTRN	?Release@ObjectParent@@QAEX_N@Z:PROC		; ObjectParent::Release
EXTRN	?SetSwitchMask@DrawableBSP@@QAEXHK@Z:PROC	; DrawableBSP::SetSwitchMask
EXTRN	?Setup@RViewPoint@@QAEXMHH_N@Z:PROC		; RViewPoint::Setup
EXTRN	?Cleanup@RViewPoint@@UAEXXZ:PROC		; RViewPoint::Cleanup
EXTRN	?RemoveObject@RViewPoint@@QAEXPAVDrawableObject@@@Z:PROC ; RViewPoint::RemoveObject
EXTRN	?CompositLineOfSight@RViewPoint@@QAEMPAUTpoint@@0@Z:PROC ; RViewPoint::CompositLineOfSight
EXTRN	?CloudLineOfSight@RViewPoint@@QAEHPAUTpoint@@0@Z:PROC ; RViewPoint::CloudLineOfSight
EXTRN	?Update@RViewPoint@@QAEXPBUTpoint@@@Z:PROC	; RViewPoint::Update
EXTRN	?Setup@CDXVbManager@@QAEXPAUIDirect3D7@@@Z:PROC	; CDXVbManager::Setup
EXTRN	?Release@CDXVbManager@@QAEXXZ:PROC		; CDXVbManager::Release
EXTRN	??0HudClass@@QAE@XZ:PROC			; HudClass::HudClass
EXTRN	?SetOwnship@HudClass@@QAEXPAVAircraftClass@@@Z:PROC ; HudClass::SetOwnship
EXTRN	?AddToFineInterest@FalconSessionEntity@@QAE_NPAVFalconEntity@@_N@Z:PROC ; FalconSessionEntity::AddToFineInterest
EXTRN	?RemoveFromFineInterest@FalconSessionEntity@@QAE_NPBVFalconEntity@@_N@Z:PROC ; FalconSessionEntity::RemoveFromFineInterest
EXTRN	?MapVisId@@YAKK@Z:PROC				; MapVisId
EXTRN	?GetPlayerAircraft@SimulationDriver@@QBEPAVAircraftClass@@XZ:PROC ; SimulationDriver::GetPlayerAircraft
EXTRN	?ShrinkSimMemoryPools@SimulationDriver@@QAEXXZ:PROC ; SimulationDriver::ShrinkSimMemoryPools
EXTRN	??0MFDClass@@QAE@HPAVRender3D@@@Z:PROC		; MFDClass::MFDClass
EXTRN	??1MFDClass@@QAE@XZ:PROC			; MFDClass::~MFDClass
EXTRN	?CreateDrawables@MFDClass@@SAXXZ:PROC		; MFDClass::CreateDrawables
EXTRN	?DestroyDrawables@MFDClass@@SAXXZ:PROC		; MFDClass::DestroyDrawables
EXTRN	?SetOwnship@MFDClass@@QAEXPAVAircraftClass@@@Z:PROC ; MFDClass::SetOwnship
EXTRN	?SetNewMode@MFDClass@@QAEXW4MfdMode@1@@Z:PROC	; MFDClass::SetNewMode
EXTRN	?UpdateVirtualPosition@MFDClass@@QAEXPBUTpoint@@PBUTrotation@@@Z:PROC ; MFDClass::UpdateVirtualPosition
EXTRN	?Cleanup@RealWeather@@QAEXXZ:PROC		; RealWeather::Cleanup
EXTRN	?FindToken@@YAPADPAPADPBD@Z:PROC		; FindToken
EXTRN	?CreateCockpitGeometry@@YAXPAPAVDrawableBSP@@HH@Z:PROC ; CreateCockpitGeometry
EXTRN	?CalculateNVGColor@@YAKK@Z:PROC			; CalculateNVGColor
EXTRN	?FindCockpit@@YAHPBDW4Vis_Types@@00PADH@Z:PROC	; FindCockpit
EXTRN	?FindCockpitResolution@@YAHPBD0000W4Vis_Types@@00@Z:PROC ; FindCockpitResolution
EXTRN	??1CockpitManager@@QAE@XZ:PROC			; CockpitManager::~CockpitManager
EXTRN	??0CockpitManager@@QAE@PAVImageBuffer@@PADHMMHW4Vis_Types@@11@Z:PROC ; CockpitManager::CockpitManager
EXTRN	?SetActivePanel@CockpitManager@@QAE_NH@Z:PROC	; CockpitManager::SetActivePanel
EXTRN	?SetOwnship@CockpitManager@@QAEXPAVSimBaseClass@@@Z:PROC ; CockpitManager::SetOwnship
EXTRN	?SetupDIMouseAndKeyboard@@YAHPAUHINSTANCE__@@PAUHWND__@@@Z:PROC ; SetupDIMouseAndKeyboard
EXTRN	?CleanupDIMouseAndKeyboard@@YAHXZ:PROC		; CleanupDIMouseAndKeyboard
EXTRN	?EnterMode@FalconDisplayConfiguration@@QAEXW4DisplayMode@1@HH@Z:PROC ; FalconDisplayConfiguration::EnterMode
EXTRN	?LeaveMode@FalconDisplayConfiguration@@QAEXXZ:PROC ; FalconDisplayConfiguration::LeaveMode
EXTRN	?WaitLoader@Loader@@QAEXXZ:PROC			; Loader::WaitLoader
EXTRN	?SetLOD@SfxClass@@SAXM@Z:PROC			; SfxClass::SetLOD
EXTRN	??0MenuManager@@QAE@HH@Z:PROC			; MenuManager::MenuManager
EXTRN	??1MenuManager@@QAE@XZ:PROC			; MenuManager::~MenuManager
EXTRN	?GetVehicleID@UnitClass@@QAEFH@Z:PROC		; UnitClass::GetVehicleID
EXTRN	??0LantirnClass@@QAE@XZ:PROC			; LantirnClass::LantirnClass
EXTRN	?ClearParticleList@DrawableParticleSys@@SAXXZ:PROC ; DrawableParticleSys::ClearParticleList
EXTRN	?ResetAll@RadioSubTitle@@QAEXXZ:PROC		; RadioSubTitle::ResetAll
EXTRN	?InitWinAmp@WinAmpFrontEnd@@QAEXXZ:PROC		; WinAmpFrontEnd::InitWinAmp
EXTRN	?ResetAllInputs@SIMLIB_IO_CLASS@@QAEXXZ:PROC	; SIMLIB_IO_CLASS::ResetAllInputs
EXTRN	?Reset@MouseView@@QAEXXZ:PROC			; MouseView::Reset
EXTRN	_ResFOpen:PROC
EXTRN	_ResFClose:PROC
EXTRN	?SetThrottleInActive@@YAXXZ:PROC		; SetThrottleInActive
EXTRN	@__security_check_cookie@4:PROC
EXTRN	__CxxThrowException@8:PROC
EXTRN	___CxxFrameHandler3:PROC
EXTRN	_memset:PROC
EXTRN	?Origin@@3UTpoint@@B:BYTE			; Origin
EXTRN	?IMatrix@@3UTrotation@@B:BYTE			; IMatrix
EXTRN	?vuDatabase@@3PAVVuDatabase@@A:DWORD		; vuDatabase
EXTRN	?vuLocalSessionEntity@@3V?$VuBin@VVuSessionEntity@@@@A:DWORD ; vuLocalSessionEntity
EXTRN	?vuNullId@@3VVU_ID@@A:QWORD			; vuNullId
EXTRN	?vuxRealTime@@3KA:DWORD				; vuxRealTime
EXTRN	?FalconNullId@@3VVU_ID@@A:QWORD			; FalconNullId
EXTRN	??_7type_info@@6B@:QWORD			; type_info::`vftable'
EXTRN	?PlayerOptions@@3VPlayerOptionsClass@@A:BYTE	; PlayerOptions
EXTRN	?TheTimeManager@@3VTimeManager@@A:BYTE		; TheTimeManager
EXTRN	?TheTimeOfDay@@3VCTimeOfDay@@A:BYTE		; TheTimeOfDay
EXTRN	?TheObjectList@@3PAVObjectParent@@A:DWORD	; TheObjectList
EXTRN	?drawLabels@DrawableBSP@@2HA:DWORD		; DrawableBSP::drawLabels
EXTRN	?drawLabels@DrawablePoint@@2HA:DWORD		; DrawablePoint::drawLabels
EXTRN	?TheVbManager@@3VCDXVbManager@@A:BYTE		; TheVbManager
EXTRN	?g_bUse_DX_Engine@@3_NA:BYTE			; g_bUse_DX_Engine
EXTRN	?TheHud@@3PAVHudClass@@A:DWORD			; TheHud
EXTRN	?Falcon4ClassTable@@3PAUFalcon4EntityClassType@@A:DWORD ; Falcon4ClassTable
EXTRN	?SimDriver@@3VSimulationDriver@@A:BYTE		; SimDriver
EXTRN	?MfdDisplay@@3PAPAVMFDClass@@A:BYTE		; MfdDisplay
EXTRN	?realWeather@@3PAVRealWeather@@A:DWORD		; realWeather
EXTRN	?DisplayOptions@@3VDisplayOptionsClass@@A:BYTE	; DisplayOptions
EXTRN	?FalconDisplay@@3VFalconDisplayConfiguration@@A:BYTE ; FalconDisplay
EXTRN	?TheLoader@@3VLoader@@A:BYTE			; TheLoader
EXTRN	?theLantirn@@3PAVLantirnClass@@A:DWORD		; theLantirn
EXTRN	?radioLabel@@3PAVRadioSubTitle@@A:DWORD		; radioLabel
EXTRN	?winamp@@3PAVWinAmpFrontEnd@@A:DWORD		; winamp
EXTRN	?IO@@3VSIMLIB_IO_CLASS@@A:BYTE			; IO
EXTRN	?theMouseView@@3VMouseView@@A:BYTE		; theMouseView
EXTRN	?g_bPilotEntertainment@@3_NA:BYTE		; g_bPilotEntertainment
EXTRN	?hInst@@3PAUHINSTANCE__@@A:DWORD		; hInst
EXTRN	?F4FlyingEyeType@@3HA:DWORD			; F4FlyingEyeType
EXTRN	?gVmPlayVU_ID@@3VVU_ID@@A:QWORD			; gVmPlayVU_ID
EXTRN	?narrowFOV@@3HA:DWORD				; narrowFOV
EXTRN	?g_fHybridPitThreshold1@@3MA:DWORD		; g_fHybridPitThreshold1
EXTRN	?g_fHybridPitThreshold2@@3MA:DWORD		; g_fHybridPitThreshold2
EXTRN	?g_nHybridPitModeDelay@@3HA:DWORD		; g_nHybridPitModeDelay
EXTRN	?g_bEnableDisplacementCam@@3_NA:BYTE		; g_bEnableDisplacementCam
EXTRN	?g_bEnableMfdSize@@3_NA:BYTE			; g_bEnableMfdSize
EXTRN	?g_fMfd_p_Size@@3MA:DWORD			; g_fMfd_p_Size
EXTRN	?clickableMouseMode@@3_NA:BYTE			; clickableMouseMode
EXTRN	___security_cookie:DWORD
EXTRN	__fltused:DWORD
_BSS	SEGMENT
_piecewise_construct DB 01H DUP (?)
	ALIGN	4

_allocator_arg DB 01H DUP (?)
_BSS	ENDS
;	COMDAT ?_Generic_object@?$_Error_objects@H@std@@2V_Generic_error_category@2@A
_BSS	SEGMENT
?_Generic_object@?$_Error_objects@H@std@@2V_Generic_error_category@2@A DD 01H DUP (?) ; std::_Error_objects<int>::_Generic_object
_BSS	ENDS
;	COMDAT ?_Iostream_object@?$_Error_objects@H@std@@2V_Iostream_error_category@2@A
_BSS	SEGMENT
?_Iostream_object@?$_Error_objects@H@std@@2V_Iostream_error_category@2@A DD 01H DUP (?) ; std::_Error_objects<int>::_Iostream_object
_BSS	ENDS
;	COMDAT ?_System_object@?$_Error_objects@H@std@@2V_System_error_category@2@A
_BSS	SEGMENT
?_System_object@?$_Error_objects@H@std@@2V_System_error_category@2@A DD 01H DUP (?) ; std::_Error_objects<int>::_System_object
_BSS	ENDS
;	COMDAT ?id@?$num_put@DV?$back_insert_iterator@V?$basic_string@DU?$char_traits@D@std@@V?$allocator@D@2@@std@@@std@@@std@@2V0locale@2@A
_BSS	SEGMENT
?id@?$num_put@DV?$back_insert_iterator@V?$basic_string@DU?$char_traits@D@std@@V?$allocator@D@2@@std@@@std@@@std@@2V0locale@2@A DD 01H DUP (?) ; std::num_put<char,std::back_insert_iterator<std::basic_string<char,std::char_traits<char>,std::allocator<char> > > >::id
_BSS	ENDS
;	COMDAT ?id@?$num_put@_WV?$back_insert_iterator@V?$basic_string@_WU?$char_traits@_W@std@@V?$allocator@_W@2@@std@@@std@@@std@@2V0locale@2@A
_BSS	SEGMENT
?id@?$num_put@_WV?$back_insert_iterator@V?$basic_string@_WU?$char_traits@_W@std@@V?$allocator@_W@2@@std@@@std@@@std@@2V0locale@2@A DD 01H DUP (?) ; std::num_put<wchar_t,std::back_insert_iterator<std::basic_string<wchar_t,std::char_traits<wchar_t>,std::allocator<wchar_t> > > >::id
_BSS	ENDS
_BSS	SEGMENT
	ALIGN	4

?OTWDriver@@3VOTWDriverClass@@A DB 08518H DUP (?)	; OTWDriver
?g_intellivibeData@@3VIntellivibeData@@A DB 034H DUP (?) ; g_intellivibeData
?VirtualMFD@@3PAUtagRECT@@A DB 050H DUP (?)		; VirtualMFD
_BSS	ENDS
;	COMDAT ?lastpan@?1??RunHybridPitMode@OTWDriverClass@@AAEXMM@Z@4MA
_BSS	SEGMENT
?lastpan@?1??RunHybridPitMode@OTWDriverClass@@AAEXMM@Z@4MA DD 01H DUP (?) ; `OTWDriverClass::RunHybridPitMode'::`2'::lastpan
_BSS	ENDS
;	COMDAT ?$S1@?1??RunHybridPitMode@OTWDriverClass@@AAEXMM@Z@4IA
_BSS	SEGMENT
?$S1@?1??RunHybridPitMode@OTWDriverClass@@AAEXMM@Z@4IA DD 01H DUP (?) ; `OTWDriverClass::RunHybridPitMode'::`2'::$S1
_BSS	ENDS
;	COMDAT ?lasttilt@?1??RunHybridPitMode@OTWDriverClass@@AAEXMM@Z@4MA
_BSS	SEGMENT
?lasttilt@?1??RunHybridPitMode@OTWDriverClass@@AAEXMM@Z@4MA DD 01H DUP (?) ; `OTWDriverClass::RunHybridPitMode'::`2'::lasttilt
_BSS	ENDS
;	COMDAT ?lasttime@?1??RunHybridPitMode@OTWDriverClass@@AAEXMM@Z@4JA
_BSS	SEGMENT
?lasttime@?1??RunHybridPitMode@OTWDriverClass@@AAEXMM@Z@4JA DD 01H DUP (?) ; `OTWDriverClass::RunHybridPitMode'::`2'::lasttime
_BSS	ENDS
;	COMDAT ?id@?$numpunct@D@std@@2V0locale@2@A
_BSS	SEGMENT
?id@?$numpunct@D@std@@2V0locale@2@A DD 01H DUP (?)	; std::numpunct<char>::id
_BSS	ENDS
;	COMDAT ?id@?$numpunct@_W@std@@2V0locale@2@A
_BSS	SEGMENT
?id@?$numpunct@_W@std@@2V0locale@2@A DD 01H DUP (?)	; std::numpunct<wchar_t>::id
_BSS	ENDS
CRT$XCU	SEGMENT
_piecewise_construct$initializer$ DD FLAT:??__Epiecewise_construct@std@@YAXXZ
CRT$XCU	ENDS
;	COMDAT __xmm@80000000800000008000000080000000
CONST	SEGMENT
__xmm@80000000800000008000000080000000 DB 00H, 00H, 00H, 080H, 00H, 00H, 00H
	DB	080H, 00H, 00H, 00H, 080H, 00H, 00H, 00H, 080H
CONST	ENDS
;	COMDAT __real@c7c35000
CONST	SEGMENT
__real@c7c35000 DD 0c7c35000r			; -100000
CONST	ENDS
;	COMDAT __real@c66a6000
CONST	SEGMENT
__real@c66a6000 DD 0c66a6000r			; -15000
CONST	ENDS
;	COMDAT __real@c59c4000
CONST	SEGMENT
__real@c59c4000 DD 0c59c4000r			; -5000
CONST	ENDS
;	COMDAT __real@c3fa0000
CONST	SEGMENT
__real@c3fa0000 DD 0c3fa0000r			; -500
CONST	ENDS
;	COMDAT __real@c2c80000
CONST	SEGMENT
__real@c2c80000 DD 0c2c80000r			; -100
CONST	ENDS
;	COMDAT __real@c0400000
CONST	SEGMENT
__real@c0400000 DD 0c0400000r			; -3
CONST	ENDS
;	COMDAT __real@bff921fb54442d18
CONST	SEGMENT
__real@bff921fb54442d18 DQ 0bff921fb54442d18r	; -1.5708
CONST	ENDS
;	COMDAT __real@bf800000
CONST	SEGMENT
__real@bf800000 DD 0bf800000r			; -1
CONST	ENDS
;	COMDAT __real@bf19999a
CONST	SEGMENT
__real@bf19999a DD 0bf19999ar			; -0.6
CONST	ENDS
;	COMDAT __real@bf170a3e
CONST	SEGMENT
__real@bf170a3e DD 0bf170a3er			; -0.59
CONST	ENDS
;	COMDAT __real@bec28f5c
CONST	SEGMENT
__real@bec28f5c DD 0bec28f5cr			; -0.38
CONST	ENDS
;	COMDAT __real@bebd70a4
CONST	SEGMENT
__real@bebd70a4 DD 0bebd70a4r			; -0.37
CONST	ENDS
;	COMDAT __real@8000000000000000
CONST	SEGMENT
__real@8000000000000000 DQ 08000000000000000r	; -0
CONST	ENDS
;	COMDAT __real@49b4aa00
CONST	SEGMENT
__real@49b4aa00 DD 049b4aa00r			; 1.48e+006
CONST	ENDS
;	COMDAT __real@49ac5d00
CONST	SEGMENT
__real@49ac5d00 DD 049ac5d00r			; 1.412e+006
CONST	ENDS
;	COMDAT __real@4805ca00
CONST	SEGMENT
__real@4805ca00 DD 04805ca00r			; 137000
CONST	ENDS
;	COMDAT __real@47d6d800
CONST	SEGMENT
__real@47d6d800 DD 047d6d800r			; 110000
CONST	ENDS
;	COMDAT __real@46fffe00
CONST	SEGMENT
__real@46fffe00 DD 046fffe00r			; 32767
CONST	ENDS
;	COMDAT __real@454cffae
CONST	SEGMENT
__real@454cffae DD 0454cffaer			; 3279.98
CONST	ENDS
;	COMDAT __real@44c80000
CONST	SEGMENT
__real@44c80000 DD 044c80000r			; 1600
CONST	ENDS
;	COMDAT __real@44a00000
CONST	SEGMENT
__real@44a00000 DD 044a00000r			; 1280
CONST	ENDS
;	COMDAT __real@44960000
CONST	SEGMENT
__real@44960000 DD 044960000r			; 1200
CONST	ENDS
;	COMDAT __real@44800000
CONST	SEGMENT
__real@44800000 DD 044800000r			; 1024
CONST	ENDS
;	COMDAT __real@44700000
CONST	SEGMENT
__real@44700000 DD 044700000r			; 960
CONST	ENDS
;	COMDAT __real@44480000
CONST	SEGMENT
__real@44480000 DD 044480000r			; 800
CONST	ENDS
;	COMDAT __real@44400000
CONST	SEGMENT
__real@44400000 DD 044400000r			; 768
CONST	ENDS
;	COMDAT __real@44200000
CONST	SEGMENT
__real@44200000 DD 044200000r			; 640
CONST	ENDS
;	COMDAT __real@44160000
CONST	SEGMENT
__real@44160000 DD 044160000r			; 600
CONST	ENDS
;	COMDAT __real@43f00000
CONST	SEGMENT
__real@43f00000 DD 043f00000r			; 480
CONST	ENDS
;	COMDAT __real@431a0000
CONST	SEGMENT
__real@431a0000 DD 0431a0000r			; 154
CONST	ENDS
;	COMDAT __real@42c80000
CONST	SEGMENT
__real@42c80000 DD 042c80000r			; 100
CONST	ENDS
;	COMDAT __real@41f00000
CONST	SEGMENT
__real@41f00000 DD 041f00000r			; 30
CONST	ENDS
;	COMDAT __real@41700000
CONST	SEGMENT
__real@41700000 DD 041700000r			; 15
CONST	ENDS
;	COMDAT __real@41200000
CONST	SEGMENT
__real@41200000 DD 041200000r			; 10
CONST	ENDS
;	COMDAT __real@41000000
CONST	SEGMENT
__real@41000000 DD 041000000r			; 8
CONST	ENDS
;	COMDAT __real@40a00000
CONST	SEGMENT
__real@40a00000 DD 040a00000r			; 5
CONST	ENDS
;	COMDAT __real@40400000
CONST	SEGMENT
__real@40400000 DD 040400000r			; 3
CONST	ENDS
;	COMDAT __real@400921fb54442d18
CONST	SEGMENT
__real@400921fb54442d18 DQ 0400921fb54442d18r	; 3.14159
CONST	ENDS
;	COMDAT __real@40000000
CONST	SEGMENT
__real@40000000 DD 040000000r			; 2
CONST	ENDS
;	COMDAT __real@3ff921fb54442d18
CONST	SEGMENT
__real@3ff921fb54442d18 DQ 03ff921fb54442d18r	; 1.5708
CONST	ENDS
;	COMDAT __real@3fb4fdf4
CONST	SEGMENT
__real@3fb4fdf4 DD 03fb4fdf4r			; 1.414
CONST	ENDS
;	COMDAT __real@3f860a91
CONST	SEGMENT
__real@3f860a91 DD 03f860a91r			; 1.0472
CONST	ENDS
;	COMDAT __real@3f800000
CONST	SEGMENT
__real@3f800000 DD 03f800000r			; 1
CONST	ENDS
;	COMDAT __real@3f400000
CONST	SEGMENT
__real@3f400000 DD 03f400000r			; 0.75
CONST	ENDS
;	COMDAT __real@3f32b8c1
CONST	SEGMENT
__real@3f32b8c1 DD 03f32b8c1r			; 0.698132
CONST	ENDS
;	COMDAT __real@3f060a91
CONST	SEGMENT
__real@3f060a91 DD 03f060a91r			; 0.523599
CONST	ENDS
;	COMDAT __real@3f000000
CONST	SEGMENT
__real@3f000000 DD 03f000000r			; 0.5
CONST	ENDS
;	COMDAT __real@3eb2b8c1
CONST	SEGMENT
__real@3eb2b8c1 DD 03eb2b8c1r			; 0.349066
CONST	ENDS
;	COMDAT __real@3e4ccccd
CONST	SEGMENT
__real@3e4ccccd DD 03e4ccccdr			; 0.2
CONST	ENDS
;	COMDAT __real@3c8efa34
CONST	SEGMENT
__real@3c8efa34 DD 03c8efa34r			; 0.0174533
CONST	ENDS
;	COMDAT __real@0000000000000000
CONST	SEGMENT
__real@0000000000000000 DQ 00000000000000000r	; 0
CONST	ENDS
;	COMDAT __real@00000000
CONST	SEGMENT
__real@00000000 DD 000000000r			; 0
CONST	ENDS
;	COMDAT ??_R4VirtualDisplay@@6B@
rdata$r	SEGMENT
??_R4VirtualDisplay@@6B@ DD 00H				; VirtualDisplay::`RTTI Complete Object Locator'
	DD	00H
	DD	00H
	DD	FLAT:??_R0?AVVirtualDisplay@@@8
	DD	FLAT:??_R3VirtualDisplay@@8
rdata$r	ENDS
;	COMDAT ??_R4Render3D@@6B@
rdata$r	SEGMENT
??_R4Render3D@@6B@ DD 00H				; Render3D::`RTTI Complete Object Locator'
	DD	00H
	DD	00H
	DD	FLAT:??_R0?AVRender3D@@@8
	DD	FLAT:??_R3Render3D@@8
rdata$r	ENDS
;	COMDAT ??_R4TViewPoint@@6B@
rdata$r	SEGMENT
??_R4TViewPoint@@6B@ DD 00H				; TViewPoint::`RTTI Complete Object Locator'
	DD	00H
	DD	00H
	DD	FLAT:??_R0?AVTViewPoint@@@8
	DD	FLAT:??_R3TViewPoint@@8
rdata$r	ENDS
;	COMDAT ??_R4Render2D@@6B@
rdata$r	SEGMENT
??_R4Render2D@@6B@ DD 00H				; Render2D::`RTTI Complete Object Locator'
	DD	00H
	DD	00H
	DD	FLAT:??_R0?AVRender2D@@@8
	DD	FLAT:??_R3Render2D@@8
rdata$r	ENDS
;	COMDAT ??_R2VirtualDisplay@@8
rdata$r	SEGMENT
??_R2VirtualDisplay@@8 DD FLAT:??_R1A@?0A@EA@VirtualDisplay@@8 ; VirtualDisplay::`RTTI Base Class Array'
rdata$r	ENDS
;	COMDAT ??_R3VirtualDisplay@@8
rdata$r	SEGMENT
??_R3VirtualDisplay@@8 DD 00H				; VirtualDisplay::`RTTI Class Hierarchy Descriptor'
	DD	00H
	DD	01H
	DD	FLAT:??_R2VirtualDisplay@@8
rdata$r	ENDS
;	COMDAT ??_R0?AVVirtualDisplay@@@8
_DATA	SEGMENT
??_R0?AVVirtualDisplay@@@8 DD FLAT:??_7type_info@@6B@	; VirtualDisplay `RTTI Type Descriptor'
	DD	00H
	DB	'.?AVVirtualDisplay@@', 00H
_DATA	ENDS
;	COMDAT ??_R1A@?0A@EA@VirtualDisplay@@8
rdata$r	SEGMENT
??_R1A@?0A@EA@VirtualDisplay@@8 DD FLAT:??_R0?AVVirtualDisplay@@@8 ; VirtualDisplay::`RTTI Base Class Descriptor at (0,-1,0,64)'
	DD	00H
	DD	00H
	DD	0ffffffffH
	DD	00H
	DD	040H
	DD	FLAT:??_R3VirtualDisplay@@8
rdata$r	ENDS
;	COMDAT ??_R2Render2D@@8
rdata$r	SEGMENT
??_R2Render2D@@8 DD FLAT:??_R1A@?0A@EA@Render2D@@8	; Render2D::`RTTI Base Class Array'
	DD	FLAT:??_R1A@?0A@EA@VirtualDisplay@@8
rdata$r	ENDS
;	COMDAT ??_R3Render2D@@8
rdata$r	SEGMENT
??_R3Render2D@@8 DD 00H					; Render2D::`RTTI Class Hierarchy Descriptor'
	DD	00H
	DD	02H
	DD	FLAT:??_R2Render2D@@8
rdata$r	ENDS
;	COMDAT ??_R0?AVRender2D@@@8
_DATA	SEGMENT
??_R0?AVRender2D@@@8 DD FLAT:??_7type_info@@6B@		; Render2D `RTTI Type Descriptor'
	DD	00H
	DB	'.?AVRender2D@@', 00H
_DATA	ENDS
;	COMDAT ??_R1A@?0A@EA@Render2D@@8
rdata$r	SEGMENT
??_R1A@?0A@EA@Render2D@@8 DD FLAT:??_R0?AVRender2D@@@8	; Render2D::`RTTI Base Class Descriptor at (0,-1,0,64)'
	DD	01H
	DD	00H
	DD	0ffffffffH
	DD	00H
	DD	040H
	DD	FLAT:??_R3Render2D@@8
rdata$r	ENDS
;	COMDAT ??_R2Render3D@@8
rdata$r	SEGMENT
??_R2Render3D@@8 DD FLAT:??_R1A@?0A@EA@Render3D@@8	; Render3D::`RTTI Base Class Array'
	DD	FLAT:??_R1A@?0A@EA@Render2D@@8
	DD	FLAT:??_R1A@?0A@EA@VirtualDisplay@@8
rdata$r	ENDS
;	COMDAT ??_R3Render3D@@8
rdata$r	SEGMENT
??_R3Render3D@@8 DD 00H					; Render3D::`RTTI Class Hierarchy Descriptor'
	DD	00H
	DD	03H
	DD	FLAT:??_R2Render3D@@8
rdata$r	ENDS
;	COMDAT ??_R0?AVRender3D@@@8
_DATA	SEGMENT
??_R0?AVRender3D@@@8 DD FLAT:??_7type_info@@6B@		; Render3D `RTTI Type Descriptor'
	DD	00H
	DB	'.?AVRender3D@@', 00H
_DATA	ENDS
;	COMDAT ??_R1A@?0A@EA@Render3D@@8
rdata$r	SEGMENT
??_R1A@?0A@EA@Render3D@@8 DD FLAT:??_R0?AVRender3D@@@8	; Render3D::`RTTI Base Class Descriptor at (0,-1,0,64)'
	DD	02H
	DD	00H
	DD	0ffffffffH
	DD	00H
	DD	040H
	DD	FLAT:??_R3Render3D@@8
rdata$r	ENDS
;	COMDAT ??_R1A@?0A@EA@RenderOTW@@8
rdata$r	SEGMENT
??_R1A@?0A@EA@RenderOTW@@8 DD FLAT:??_R0?AVRenderOTW@@@8 ; RenderOTW::`RTTI Base Class Descriptor at (0,-1,0,64)'
	DD	03H
	DD	00H
	DD	0ffffffffH
	DD	00H
	DD	040H
	DD	FLAT:??_R3RenderOTW@@8
rdata$r	ENDS
;	COMDAT ??_R2RenderOTW@@8
rdata$r	SEGMENT
??_R2RenderOTW@@8 DD FLAT:??_R1A@?0A@EA@RenderOTW@@8	; RenderOTW::`RTTI Base Class Array'
	DD	FLAT:??_R1A@?0A@EA@Render3D@@8
	DD	FLAT:??_R1A@?0A@EA@Render2D@@8
	DD	FLAT:??_R1A@?0A@EA@VirtualDisplay@@8
rdata$r	ENDS
;	COMDAT ??_R3RenderOTW@@8
rdata$r	SEGMENT
??_R3RenderOTW@@8 DD 00H				; RenderOTW::`RTTI Class Hierarchy Descriptor'
	DD	00H
	DD	04H
	DD	FLAT:??_R2RenderOTW@@8
rdata$r	ENDS
;	COMDAT ??_R0?AVRenderOTW@@@8
_DATA	SEGMENT
??_R0?AVRenderOTW@@@8 DD FLAT:??_7type_info@@6B@	; RenderOTW `RTTI Type Descriptor'
	DD	00H
	DB	'.?AVRenderOTW@@', 00H
_DATA	ENDS
;	COMDAT ??_R4RenderOTW@@6B@
rdata$r	SEGMENT
??_R4RenderOTW@@6B@ DD 00H				; RenderOTW::`RTTI Complete Object Locator'
	DD	00H
	DD	00H
	DD	FLAT:??_R0?AVRenderOTW@@@8
	DD	FLAT:??_R3RenderOTW@@8
rdata$r	ENDS
;	COMDAT ??_R2TViewPoint@@8
rdata$r	SEGMENT
??_R2TViewPoint@@8 DD FLAT:??_R1A@?0A@EA@TViewPoint@@8	; TViewPoint::`RTTI Base Class Array'
rdata$r	ENDS
;	COMDAT ??_R3TViewPoint@@8
rdata$r	SEGMENT
??_R3TViewPoint@@8 DD 00H				; TViewPoint::`RTTI Class Hierarchy Descriptor'
	DD	00H
	DD	01H
	DD	FLAT:??_R2TViewPoint@@8
rdata$r	ENDS
;	COMDAT ??_R0?AVTViewPoint@@@8
_DATA	SEGMENT
??_R0?AVTViewPoint@@@8 DD FLAT:??_7type_info@@6B@	; TViewPoint `RTTI Type Descriptor'
	DD	00H
	DB	'.?AVTViewPoint@@', 00H
_DATA	ENDS
;	COMDAT ??_R1A@?0A@EA@TViewPoint@@8
rdata$r	SEGMENT
??_R1A@?0A@EA@TViewPoint@@8 DD FLAT:??_R0?AVTViewPoint@@@8 ; TViewPoint::`RTTI Base Class Descriptor at (0,-1,0,64)'
	DD	00H
	DD	00H
	DD	0ffffffffH
	DD	00H
	DD	040H
	DD	FLAT:??_R3TViewPoint@@8
rdata$r	ENDS
;	COMDAT ??_R1A@?0A@EA@RViewPoint@@8
rdata$r	SEGMENT
??_R1A@?0A@EA@RViewPoint@@8 DD FLAT:??_R0?AVRViewPoint@@@8 ; RViewPoint::`RTTI Base Class Descriptor at (0,-1,0,64)'
	DD	01H
	DD	00H
	DD	0ffffffffH
	DD	00H
	DD	040H
	DD	FLAT:??_R3RViewPoint@@8
rdata$r	ENDS
;	COMDAT ??_R2RViewPoint@@8
rdata$r	SEGMENT
??_R2RViewPoint@@8 DD FLAT:??_R1A@?0A@EA@RViewPoint@@8	; RViewPoint::`RTTI Base Class Array'
	DD	FLAT:??_R1A@?0A@EA@TViewPoint@@8
rdata$r	ENDS
;	COMDAT ??_R3RViewPoint@@8
rdata$r	SEGMENT
??_R3RViewPoint@@8 DD 00H				; RViewPoint::`RTTI Class Hierarchy Descriptor'
	DD	00H
	DD	02H
	DD	FLAT:??_R2RViewPoint@@8
rdata$r	ENDS
;	COMDAT ??_R0?AVRViewPoint@@@8
_DATA	SEGMENT
??_R0?AVRViewPoint@@@8 DD FLAT:??_7type_info@@6B@	; RViewPoint `RTTI Type Descriptor'
	DD	00H
	DB	'.?AVRViewPoint@@', 00H
_DATA	ENDS
;	COMDAT ??_R4RViewPoint@@6B@
rdata$r	SEGMENT
??_R4RViewPoint@@6B@ DD 00H				; RViewPoint::`RTTI Complete Object Locator'
	DD	00H
	DD	00H
	DD	FLAT:??_R0?AVRViewPoint@@@8
	DD	FLAT:??_R3RViewPoint@@8
rdata$r	ENDS
;	COMDAT ??_R1A@?0A@EA@_System_error_category@std@@8
rdata$r	SEGMENT
??_R1A@?0A@EA@_System_error_category@std@@8 DD FLAT:??_R0?AV_System_error_category@std@@@8 ; std::_System_error_category::`RTTI Base Class Descriptor at (0,-1,0,64)'
	DD	02H
	DD	00H
	DD	0ffffffffH
	DD	00H
	DD	040H
	DD	FLAT:??_R3_System_error_category@std@@8
rdata$r	ENDS
;	COMDAT ??_R2_System_error_category@std@@8
rdata$r	SEGMENT
??_R2_System_error_category@std@@8 DD FLAT:??_R1A@?0A@EA@_System_error_category@std@@8 ; std::_System_error_category::`RTTI Base Class Array'
	DD	FLAT:??_R1A@?0A@EA@_Generic_error_category@std@@8
	DD	FLAT:??_R1A@?0A@EA@error_category@std@@8
rdata$r	ENDS
;	COMDAT ??_R3_System_error_category@std@@8
rdata$r	SEGMENT
??_R3_System_error_category@std@@8 DD 00H		; std::_System_error_category::`RTTI Class Hierarchy Descriptor'
	DD	00H
	DD	03H
	DD	FLAT:??_R2_System_error_category@std@@8
rdata$r	ENDS
;	COMDAT ??_R0?AV_System_error_category@std@@@8
_DATA	SEGMENT
??_R0?AV_System_error_category@std@@@8 DD FLAT:??_7type_info@@6B@ ; std::_System_error_category `RTTI Type Descriptor'
	DD	00H
	DB	'.?AV_System_error_category@std@@', 00H
_DATA	ENDS
;	COMDAT ??_R4_System_error_category@std@@6B@
rdata$r	SEGMENT
??_R4_System_error_category@std@@6B@ DD 00H		; std::_System_error_category::`RTTI Complete Object Locator'
	DD	00H
	DD	00H
	DD	FLAT:??_R0?AV_System_error_category@std@@@8
	DD	FLAT:??_R3_System_error_category@std@@8
rdata$r	ENDS
;	COMDAT ??_R1A@?0A@EA@_Iostream_error_category@std@@8
rdata$r	SEGMENT
??_R1A@?0A@EA@_Iostream_error_category@std@@8 DD FLAT:??_R0?AV_Iostream_error_category@std@@@8 ; std::_Iostream_error_category::`RTTI Base Class Descriptor at (0,-1,0,64)'
	DD	02H
	DD	00H
	DD	0ffffffffH
	DD	00H
	DD	040H
	DD	FLAT:??_R3_Iostream_error_category@std@@8
rdata$r	ENDS
;	COMDAT ??_R2_Iostream_error_category@std@@8
rdata$r	SEGMENT
??_R2_Iostream_error_category@std@@8 DD FLAT:??_R1A@?0A@EA@_Iostream_error_category@std@@8 ; std::_Iostream_error_category::`RTTI Base Class Array'
	DD	FLAT:??_R1A@?0A@EA@_Generic_error_category@std@@8
	DD	FLAT:??_R1A@?0A@EA@error_category@std@@8
rdata$r	ENDS
;	COMDAT ??_R3_Iostream_error_category@std@@8
rdata$r	SEGMENT
??_R3_Iostream_error_category@std@@8 DD 00H		; std::_Iostream_error_category::`RTTI Class Hierarchy Descriptor'
	DD	00H
	DD	03H
	DD	FLAT:??_R2_Iostream_error_category@std@@8
rdata$r	ENDS
;	COMDAT ??_R0?AV_Iostream_error_category@std@@@8
_DATA	SEGMENT
??_R0?AV_Iostream_error_category@std@@@8 DD FLAT:??_7type_info@@6B@ ; std::_Iostream_error_category `RTTI Type Descriptor'
	DD	00H
	DB	'.?AV_Iostream_error_category@std@@', 00H
_DATA	ENDS
;	COMDAT ??_R4_Iostream_error_category@std@@6B@
rdata$r	SEGMENT
??_R4_Iostream_error_category@std@@6B@ DD 00H		; std::_Iostream_error_category::`RTTI Complete Object Locator'
	DD	00H
	DD	00H
	DD	FLAT:??_R0?AV_Iostream_error_category@std@@@8
	DD	FLAT:??_R3_Iostream_error_category@std@@8
rdata$r	ENDS
;	COMDAT ??_R1A@?0A@EA@_Generic_error_category@std@@8
rdata$r	SEGMENT
??_R1A@?0A@EA@_Generic_error_category@std@@8 DD FLAT:??_R0?AV_Generic_error_category@std@@@8 ; std::_Generic_error_category::`RTTI Base Class Descriptor at (0,-1,0,64)'
	DD	01H
	DD	00H
	DD	0ffffffffH
	DD	00H
	DD	040H
	DD	FLAT:??_R3_Generic_error_category@std@@8
rdata$r	ENDS
;	COMDAT ??_R2_Generic_error_category@std@@8
rdata$r	SEGMENT
??_R2_Generic_error_category@std@@8 DD FLAT:??_R1A@?0A@EA@_Generic_error_category@std@@8 ; std::_Generic_error_category::`RTTI Base Class Array'
	DD	FLAT:??_R1A@?0A@EA@error_category@std@@8
rdata$r	ENDS
;	COMDAT ??_R3_Generic_error_category@std@@8
rdata$r	SEGMENT
??_R3_Generic_error_category@std@@8 DD 00H		; std::_Generic_error_category::`RTTI Class Hierarchy Descriptor'
	DD	00H
	DD	02H
	DD	FLAT:??_R2_Generic_error_category@std@@8
rdata$r	ENDS
;	COMDAT ??_R0?AV_Generic_error_category@std@@@8
_DATA	SEGMENT
??_R0?AV_Generic_error_category@std@@@8 DD FLAT:??_7type_info@@6B@ ; std::_Generic_error_category `RTTI Type Descriptor'
	DD	00H
	DB	'.?AV_Generic_error_category@std@@', 00H
_DATA	ENDS
;	COMDAT ??_R4_Generic_error_category@std@@6B@
rdata$r	SEGMENT
??_R4_Generic_error_category@std@@6B@ DD 00H		; std::_Generic_error_category::`RTTI Complete Object Locator'
	DD	00H
	DD	00H
	DD	FLAT:??_R0?AV_Generic_error_category@std@@@8
	DD	FLAT:??_R3_Generic_error_category@std@@8
rdata$r	ENDS
;	COMDAT ??_R1A@?0A@EA@error_category@std@@8
rdata$r	SEGMENT
??_R1A@?0A@EA@error_category@std@@8 DD FLAT:??_R0?AVerror_category@std@@@8 ; std::error_category::`RTTI Base Class Descriptor at (0,-1,0,64)'
	DD	00H
	DD	00H
	DD	0ffffffffH
	DD	00H
	DD	040H
	DD	FLAT:??_R3error_category@std@@8
rdata$r	ENDS
;	COMDAT ??_R2error_category@std@@8
rdata$r	SEGMENT
??_R2error_category@std@@8 DD FLAT:??_R1A@?0A@EA@error_category@std@@8 ; std::error_category::`RTTI Base Class Array'
rdata$r	ENDS
;	COMDAT ??_R3error_category@std@@8
rdata$r	SEGMENT
??_R3error_category@std@@8 DD 00H			; std::error_category::`RTTI Class Hierarchy Descriptor'
	DD	00H
	DD	01H
	DD	FLAT:??_R2error_category@std@@8
rdata$r	ENDS
;	COMDAT ??_R0?AVerror_category@std@@@8
_DATA	SEGMENT
??_R0?AVerror_category@std@@@8 DD FLAT:??_7type_info@@6B@ ; std::error_category `RTTI Type Descriptor'
	DD	00H
	DB	'.?AVerror_category@std@@', 00H
_DATA	ENDS
;	COMDAT ??_R4error_category@std@@6B@
rdata$r	SEGMENT
??_R4error_category@std@@6B@ DD 00H			; std::error_category::`RTTI Complete Object Locator'
	DD	00H
	DD	00H
	DD	FLAT:??_R0?AVerror_category@std@@@8
	DD	FLAT:??_R3error_category@std@@8
rdata$r	ENDS
;	COMDAT ??_C@_0BE@JONHPENG@map?1set?$DMT?$DO?5too?5long?$AA@
CONST	SEGMENT
??_C@_0BE@JONHPENG@map?1set?$DMT?$DO?5too?5long?$AA@ DB 'map/set<T> too l'
	DB	'ong', 00H					; `string'
CONST	ENDS
;	COMDAT ??_C@_0BA@JFNIOLAK@string?5too?5long?$AA@
CONST	SEGMENT
??_C@_0BA@JFNIOLAK@string?5too?5long?$AA@ DB 'string too long', 00H ; `string'
CONST	ENDS
;	COMDAT ??_C@_0BI@CFPLBAOH@invalid?5string?5position?$AA@
CONST	SEGMENT
??_C@_0BI@CFPLBAOH@invalid?5string?5position?$AA@ DB 'invalid string posi'
	DB	'tion', 00H					; `string'
CONST	ENDS
;	COMDAT ??_C@_0BM@PAPJHAGI@invalid?5map?1set?$DMT?$DO?5iterator?$AA@
CONST	SEGMENT
??_C@_0BM@PAPJHAGI@invalid?5map?1set?$DMT?$DO?5iterator?$AA@ DB 'invalid '
	DB	'map/set<T> iterator', 00H			; `string'
CONST	ENDS
;	COMDAT ??_C@_0M@MBDDIDJM@6_plock?4dat?$AA@
CONST	SEGMENT
??_C@_0M@MBDDIDJM@6_plock?4dat?$AA@ DB '6_plock.dat', 00H ; `string'
CONST	ENDS
;	COMDAT ??_C@_0N@GPHNDHNL@16_plock?4dat?$AA@
CONST	SEGMENT
??_C@_0N@GPHNDHNL@16_plock?4dat?$AA@ DB '16_plock.dat', 00H ; `string'
CONST	ENDS
;	COMDAT ??_C@_0N@GMHLAMKE@12_plock?4dat?$AA@
CONST	SEGMENT
??_C@_0N@GMHLAMKE@12_plock?4dat?$AA@ DB '12_plock.dat', 00H ; `string'
CONST	ENDS
;	COMDAT ??_C@_0N@IAEAJCDL@10_plock?4dat?$AA@
CONST	SEGMENT
??_C@_0N@IAEAJCDL@10_plock?4dat?$AA@ DB '10_plock.dat', 00H ; `string'
CONST	ENDS
;	COMDAT ??_C@_0M@CIACFAIC@8_plock?4dat?$AA@
CONST	SEGMENT
??_C@_0M@CIACFAIC@8_plock?4dat?$AA@ DB '8_plock.dat', 00H ; `string'
CONST	ENDS
;	COMDAT ??_C@_0M@JKKABIDJ@6_ckpit?4dat?$AA@
CONST	SEGMENT
??_C@_0M@JKKABIDJ@6_ckpit?4dat?$AA@ DB '6_ckpit.dat', 00H ; `string'
CONST	ENDS
;	COMDAT ??_C@_0M@HDJBMLCH@8_ckpit?4dat?$AA@
CONST	SEGMENT
??_C@_0M@HDJBMLCH@8_ckpit?4dat?$AA@ DB '8_ckpit.dat', 00H ; `string'
CONST	ENDS
;	COMDAT ??_C@_0N@NLNDAJJO@10_ckpit?4dat?$AA@
CONST	SEGMENT
??_C@_0N@NLNDAJJO@10_ckpit?4dat?$AA@ DB '10_ckpit.dat', 00H ; `string'
CONST	ENDS
;	COMDAT ??_C@_0N@DHOIJHAB@12_ckpit?4dat?$AA@
CONST	SEGMENT
??_C@_0N@DHOIJHAB@12_ckpit?4dat?$AA@ DB '12_ckpit.dat', 00H ; `string'
CONST	ENDS
;	COMDAT ??_C@_0N@DEOOKMHO@16_ckpit?4dat?$AA@
CONST	SEGMENT
??_C@_0N@DEOOKMHO@16_ckpit?4dat?$AA@ DB '16_ckpit.dat', 00H ; `string'
CONST	ENDS
;	COMDAT ??_C@_0N@NKNFLJEN@ws_plock?4dat?$AA@
CONST	SEGMENT
??_C@_0N@NKNFLJEN@ws_plock?4dat?$AA@ DB 'ws_plock.dat', 00H ; `string'
CONST	ENDS
;	COMDAT ??_C@_0N@IBEGCCOI@ws_ckpit?4dat?$AA@
CONST	SEGMENT
??_C@_0N@IBEGCCOI@ws_ckpit?4dat?$AA@ DB 'ws_ckpit.dat', 00H ; `string'
CONST	ENDS
;	COMDAT ??_C@_04ILPJIMGI@resY?$AA@
CONST	SEGMENT
??_C@_04ILPJIMGI@resY?$AA@ DB 'resY', 00H		; `string'
CONST	ENDS
;	COMDAT ??_C@_04JCOCLNCJ@resX?$AA@
CONST	SEGMENT
??_C@_04JCOCLNCJ@resX?$AA@ DB 'resX', 00H		; `string'
CONST	ENDS
;	COMDAT ??_C@_04PAJMBCIO@?$CDend?$AA@
CONST	SEGMENT
??_C@_04PAJMBCIO@?$CDend?$AA@ DB '#end', 00H		; `string'
CONST	ENDS
;	COMDAT ??_C@_01KDCPPGHE@r?$AA@
CONST	SEGMENT
??_C@_01KDCPPGHE@r?$AA@ DB 'r', 00H			; `string'
CONST	ENDS
;	COMDAT ??_C@_0O@BIOGKNCP@ckpit_res?4dat?$AA@
CONST	SEGMENT
??_C@_0O@BIOGKNCP@ckpit_res?4dat?$AA@ DB 'ckpit_res.dat', 00H ; `string'
CONST	ENDS
;	COMDAT ??_C@_0BA@BFGLCJPG@viewpoint?5mutex?$AA@
CONST	SEGMENT
??_C@_0BA@BFGLCJPG@viewpoint?5mutex?$AA@ DB 'viewpoint mutex', 00H ; `string'
CONST	ENDS
;	COMDAT ??_C@_09HCKFNKEI@cs_update?$AA@
CONST	SEGMENT
??_C@_09HCKFNKEI@cs_update?$AA@ DB 'cs_update', 00H	; `string'
CONST	ENDS
;	COMDAT ??_C@_0DA@OGKJEJHD@CreateFileMapping?5for?5shared?5ivi@
CONST	SEGMENT
??_C@_0DA@OGKJEJHD@CreateFileMapping?5for?5shared?5ivi@ DB 'CreateFileMap'
	DB	'ping for shared ivibe data failed', 0aH, 00H ; `string'
CONST	ENDS
;	COMDAT ??_C@_0CC@IHAPOFFC@FalconIntellivibeSharedMemoryAre@
CONST	SEGMENT
??_C@_0CC@IHAPOFFC@FalconIntellivibeSharedMemoryAre@ DB 'FalconIntellivib'
	DB	'eSharedMemoryArea', 00H			; `string'
CONST	ENDS
;	COMDAT ??_C@_0CK@GKIFBCNA@CreateFileMapping?5for?5shared?5dat@
CONST	SEGMENT
??_C@_0CK@GKIFBCNA@CreateFileMapping?5for?5shared?5dat@ DB 'CreateFileMap'
	DB	'ping for shared data failed', 0aH, 00H	; `string'
CONST	ENDS
;	COMDAT ??_C@_0BH@OGDPJBMB@FalconSharedMemoryArea?$AA@
CONST	SEGMENT
??_C@_0BH@OGDPJBMB@FalconSharedMemoryArea?$AA@ DB 'FalconSharedMemoryArea'
	DB	00H						; `string'
CONST	ENDS
;	COMDAT ??_7RViewPoint@@6B@
CONST	SEGMENT
??_7RViewPoint@@6B@ DD FLAT:??_R4RViewPoint@@6B@	; RViewPoint::`vftable'
	DD	FLAT:?Cleanup@RViewPoint@@UAEXXZ
CONST	ENDS
;	COMDAT ??_7RenderOTW@@6B@
CONST	SEGMENT
??_7RenderOTW@@6B@ DD FLAT:??_R4RenderOTW@@6B@		; RenderOTW::`vftable'
	DD	FLAT:??_ERenderOTW@@UAEPAXI@Z
	DD	FLAT:?Setup@VirtualDisplay@@UAEXXZ
	DD	FLAT:?Cleanup@RenderOTW@@UAEXXZ
	DD	FLAT:?StartDraw@RenderOTW@@UAEXXZ
	DD	FLAT:?ClearDraw@Render2D@@UAEXXZ
	DD	FLAT:?EndDraw@RenderOTW@@UAEXXZ
	DD	FLAT:?Point@VirtualDisplay@@UAEXMM@Z
	DD	FLAT:?Line@VirtualDisplay@@UAEXMMMMM@Z
	DD	FLAT:?Line@VirtualDisplay@@UAEXMMMM@Z
	DD	FLAT:?Tri@VirtualDisplay@@UAEXMMMMMM@Z
	DD	FLAT:?Oval@VirtualDisplay@@UAEXMMMM@Z
	DD	FLAT:?OvalArc@VirtualDisplay@@UAEXMMMMMM@Z
	DD	FLAT:?Circle@VirtualDisplay@@UAEXMMM@Z
	DD	FLAT:?Arc@VirtualDisplay@@UAEXMMMMM@Z
	DD	FLAT:?TextLeft@VirtualDisplay@@UAEXMMPBDH@Z
	DD	FLAT:?TextRight@VirtualDisplay@@UAEXMMPBDH@Z
	DD	FLAT:?TextLeftVertical@VirtualDisplay@@UAEXMMPBDH@Z
	DD	FLAT:?TextRightVertical@VirtualDisplay@@UAEXMMPBDH@Z
	DD	FLAT:?TextCenter@VirtualDisplay@@UAEXMMPBDH@Z
	DD	FLAT:?TextCenterVertical@VirtualDisplay@@UAEXMMPBDH@Z
	DD	FLAT:?TextWrap@VirtualDisplay@@UAEHMMPBDMM@Z
	DD	FLAT:?TextWidth@VirtualDisplay@@UAEMPAD@Z
	DD	FLAT:?TextHeight@VirtualDisplay@@UAEMXZ
	DD	FLAT:?SetColor@Render2D@@UAEXK@Z
	DD	FLAT:?SetBackground@Render2D@@UAEXK@Z
	DD	FLAT:?ScreenText@Render2D@@UAEXMMPBDH@Z
	DD	FLAT:?SetLineStyle@Render2D@@UAEXH@Z
	DD	FLAT:?Color@Render2D@@UAEKXZ
	DD	FLAT:?SetViewport@Render3D@@UAEXMMMM@Z
	DD	FLAT:?SetViewportRelative@VirtualDisplay@@UAEXMMMM@Z
	DD	FLAT:?Render2DPoint@Render2D@@UAEXMM@Z
	DD	FLAT:?Render2DLine@Render2D@@UAEXMMMM@Z
	DD	FLAT:?Render2DTri@Render2D@@UAEXMMMMMM@Z
	DD	FLAT:?Setup@Render3D@@UAEXPAVImageBuffer@@@Z
	DD	FLAT:?SetImageBuffer@Render2D@@UAEXPAVImageBuffer@@@Z
	DD	FLAT:?ClearZBuffer@Render2D@@UAEXXZ
	DD	FLAT:?Setup@RenderOTW@@UAEXPAVImageBuffer@@PAVRViewPoint@@@Z
	DD	FLAT:?ComputeVertexColor@RenderOTW@@MAEXPAUTerrainVertex@@PAUTpost@@MMM@Z
	DD	FLAT:?ProcessColor@RenderOTW@@MAEXPAUTcolor@@@Z
	DD	FLAT:?DrawSun@RenderOTW@@MAEXXZ
	DD	FLAT:?DrawMoon@RenderOTW@@MAEXXZ
	DD	FLAT:?DrawStars@RenderOTW@@MAEXXZ
	DD	FLAT:?ComputeHorizonEffect@RenderOTW@@MAEXPAUHorizonRecord@@@Z
	DD	FLAT:?SetTimeOfDayColor@RenderOTW@@MAEXXZ
	DD	FLAT:?AdjustSkyColor@RenderOTW@@MAEXXZ
CONST	ENDS
;	COMDAT ??_7Render3D@@6B@
CONST	SEGMENT
??_7Render3D@@6B@ DD FLAT:??_R4Render3D@@6B@		; Render3D::`vftable'
	DD	FLAT:??_ERender3D@@UAEPAXI@Z
	DD	FLAT:?Setup@VirtualDisplay@@UAEXXZ
	DD	FLAT:?Cleanup@Render3D@@UAEXXZ
	DD	FLAT:?StartDraw@Render3D@@UAEXXZ
	DD	FLAT:?ClearDraw@Render2D@@UAEXXZ
	DD	FLAT:?EndDraw@Render2D@@UAEXXZ
	DD	FLAT:?Point@VirtualDisplay@@UAEXMM@Z
	DD	FLAT:?Line@VirtualDisplay@@UAEXMMMMM@Z
	DD	FLAT:?Line@VirtualDisplay@@UAEXMMMM@Z
	DD	FLAT:?Tri@VirtualDisplay@@UAEXMMMMMM@Z
	DD	FLAT:?Oval@VirtualDisplay@@UAEXMMMM@Z
	DD	FLAT:?OvalArc@VirtualDisplay@@UAEXMMMMMM@Z
	DD	FLAT:?Circle@VirtualDisplay@@UAEXMMM@Z
	DD	FLAT:?Arc@VirtualDisplay@@UAEXMMMMM@Z
	DD	FLAT:?TextLeft@VirtualDisplay@@UAEXMMPBDH@Z
	DD	FLAT:?TextRight@VirtualDisplay@@UAEXMMPBDH@Z
	DD	FLAT:?TextLeftVertical@VirtualDisplay@@UAEXMMPBDH@Z
	DD	FLAT:?TextRightVertical@VirtualDisplay@@UAEXMMPBDH@Z
	DD	FLAT:?TextCenter@VirtualDisplay@@UAEXMMPBDH@Z
	DD	FLAT:?TextCenterVertical@VirtualDisplay@@UAEXMMPBDH@Z
	DD	FLAT:?TextWrap@VirtualDisplay@@UAEHMMPBDMM@Z
	DD	FLAT:?TextWidth@VirtualDisplay@@UAEMPAD@Z
	DD	FLAT:?TextHeight@VirtualDisplay@@UAEMXZ
	DD	FLAT:?SetColor@Render2D@@UAEXK@Z
	DD	FLAT:?SetBackground@Render2D@@UAEXK@Z
	DD	FLAT:?ScreenText@Render2D@@UAEXMMPBDH@Z
	DD	FLAT:?SetLineStyle@Render2D@@UAEXH@Z
	DD	FLAT:?Color@Render2D@@UAEKXZ
	DD	FLAT:?SetViewport@Render3D@@UAEXMMMM@Z
	DD	FLAT:?SetViewportRelative@VirtualDisplay@@UAEXMMMM@Z
	DD	FLAT:?Render2DPoint@Render2D@@UAEXMM@Z
	DD	FLAT:?Render2DLine@Render2D@@UAEXMMMM@Z
	DD	FLAT:?Render2DTri@Render2D@@UAEXMMMMMM@Z
	DD	FLAT:?Setup@Render3D@@UAEXPAVImageBuffer@@@Z
	DD	FLAT:?SetImageBuffer@Render2D@@UAEXPAVImageBuffer@@@Z
	DD	FLAT:?ClearZBuffer@Render2D@@UAEXXZ
CONST	ENDS
;	COMDAT ??_7Render2D@@6B@
CONST	SEGMENT
??_7Render2D@@6B@ DD FLAT:??_R4Render2D@@6B@		; Render2D::`vftable'
	DD	FLAT:??_ERender2D@@UAEPAXI@Z
	DD	FLAT:?Setup@VirtualDisplay@@UAEXXZ
	DD	FLAT:?Cleanup@Render2D@@UAEXXZ
	DD	FLAT:?StartDraw@Render2D@@UAEXXZ
	DD	FLAT:?ClearDraw@Render2D@@UAEXXZ
	DD	FLAT:?EndDraw@Render2D@@UAEXXZ
	DD	FLAT:?Point@VirtualDisplay@@UAEXMM@Z
	DD	FLAT:?Line@VirtualDisplay@@UAEXMMMMM@Z
	DD	FLAT:?Line@VirtualDisplay@@UAEXMMMM@Z
	DD	FLAT:?Tri@VirtualDisplay@@UAEXMMMMMM@Z
	DD	FLAT:?Oval@VirtualDisplay@@UAEXMMMM@Z
	DD	FLAT:?OvalArc@VirtualDisplay@@UAEXMMMMMM@Z
	DD	FLAT:?Circle@VirtualDisplay@@UAEXMMM@Z
	DD	FLAT:?Arc@VirtualDisplay@@UAEXMMMMM@Z
	DD	FLAT:?TextLeft@VirtualDisplay@@UAEXMMPBDH@Z
	DD	FLAT:?TextRight@VirtualDisplay@@UAEXMMPBDH@Z
	DD	FLAT:?TextLeftVertical@VirtualDisplay@@UAEXMMPBDH@Z
	DD	FLAT:?TextRightVertical@VirtualDisplay@@UAEXMMPBDH@Z
	DD	FLAT:?TextCenter@VirtualDisplay@@UAEXMMPBDH@Z
	DD	FLAT:?TextCenterVertical@VirtualDisplay@@UAEXMMPBDH@Z
	DD	FLAT:?TextWrap@VirtualDisplay@@UAEHMMPBDMM@Z
	DD	FLAT:?TextWidth@VirtualDisplay@@UAEMPAD@Z
	DD	FLAT:?TextHeight@VirtualDisplay@@UAEMXZ
	DD	FLAT:?SetColor@Render2D@@UAEXK@Z
	DD	FLAT:?SetBackground@Render2D@@UAEXK@Z
	DD	FLAT:?ScreenText@Render2D@@UAEXMMPBDH@Z
	DD	FLAT:?SetLineStyle@Render2D@@UAEXH@Z
	DD	FLAT:?Color@Render2D@@UAEKXZ
	DD	FLAT:?SetViewport@Render2D@@UAEXMMMM@Z
	DD	FLAT:?SetViewportRelative@VirtualDisplay@@UAEXMMMM@Z
	DD	FLAT:?Render2DPoint@Render2D@@UAEXMM@Z
	DD	FLAT:?Render2DLine@Render2D@@UAEXMMMM@Z
	DD	FLAT:?Render2DTri@Render2D@@UAEXMMMMMM@Z
	DD	FLAT:?Setup@Render2D@@UAEXPAVImageBuffer@@@Z
	DD	FLAT:?SetImageBuffer@Render2D@@UAEXPAVImageBuffer@@@Z
	DD	FLAT:?ClearZBuffer@Render2D@@UAEXXZ
CONST	ENDS
;	COMDAT ??_7VirtualDisplay@@6B@
CONST	SEGMENT
??_7VirtualDisplay@@6B@ DD FLAT:??_R4VirtualDisplay@@6B@ ; VirtualDisplay::`vftable'
	DD	FLAT:??_EVirtualDisplay@@UAEPAXI@Z
	DD	FLAT:?Setup@VirtualDisplay@@UAEXXZ
	DD	FLAT:?Cleanup@VirtualDisplay@@UAEXXZ
	DD	FLAT:__purecall
	DD	FLAT:__purecall
	DD	FLAT:__purecall
	DD	FLAT:?Point@VirtualDisplay@@UAEXMM@Z
	DD	FLAT:?Line@VirtualDisplay@@UAEXMMMMM@Z
	DD	FLAT:?Line@VirtualDisplay@@UAEXMMMM@Z
	DD	FLAT:?Tri@VirtualDisplay@@UAEXMMMMMM@Z
	DD	FLAT:?Oval@VirtualDisplay@@UAEXMMMM@Z
	DD	FLAT:?OvalArc@VirtualDisplay@@UAEXMMMMMM@Z
	DD	FLAT:?Circle@VirtualDisplay@@UAEXMMM@Z
	DD	FLAT:?Arc@VirtualDisplay@@UAEXMMMMM@Z
	DD	FLAT:?TextLeft@VirtualDisplay@@UAEXMMPBDH@Z
	DD	FLAT:?TextRight@VirtualDisplay@@UAEXMMPBDH@Z
	DD	FLAT:?TextLeftVertical@VirtualDisplay@@UAEXMMPBDH@Z
	DD	FLAT:?TextRightVertical@VirtualDisplay@@UAEXMMPBDH@Z
	DD	FLAT:?TextCenter@VirtualDisplay@@UAEXMMPBDH@Z
	DD	FLAT:?TextCenterVertical@VirtualDisplay@@UAEXMMPBDH@Z
	DD	FLAT:?TextWrap@VirtualDisplay@@UAEHMMPBDMM@Z
	DD	FLAT:?TextWidth@VirtualDisplay@@UAEMPAD@Z
	DD	FLAT:?TextHeight@VirtualDisplay@@UAEMXZ
	DD	FLAT:__purecall
	DD	FLAT:__purecall
	DD	FLAT:__purecall
	DD	FLAT:?SetLineStyle@VirtualDisplay@@UAEXH@Z
	DD	FLAT:?Color@VirtualDisplay@@UAEKXZ
	DD	FLAT:?SetViewport@VirtualDisplay@@UAEXMMMM@Z
	DD	FLAT:?SetViewportRelative@VirtualDisplay@@UAEXMMMM@Z
	DD	FLAT:__purecall
	DD	FLAT:__purecall
	DD	FLAT:?Render2DTri@VirtualDisplay@@MAEXMMMMMM@Z
CONST	ENDS
;	COMDAT ??_7TViewPoint@@6B@
CONST	SEGMENT
??_7TViewPoint@@6B@ DD FLAT:??_R4TViewPoint@@6B@	; TViewPoint::`vftable'
	DD	FLAT:?Cleanup@TViewPoint@@UAEXXZ
CONST	ENDS
;	COMDAT ??_C@_02DPKJAMEF@?$CFd?$AA@
CONST	SEGMENT
??_C@_02DPKJAMEF@?$CFd?$AA@ DB '%d', 00H		; `string'
CONST	ENDS
;	COMDAT ??_C@_06FHFOAHML@system?$AA@
CONST	SEGMENT
??_C@_06FHFOAHML@system?$AA@ DB 'system', 00H		; `string'
CONST	ENDS
;	COMDAT ??_7_System_error_category@std@@6B@
CONST	SEGMENT
??_7_System_error_category@std@@6B@ DD FLAT:??_R4_System_error_category@std@@6B@ ; std::_System_error_category::`vftable'
	DD	FLAT:??_E_System_error_category@std@@UAEPAXI@Z
	DD	FLAT:?name@_System_error_category@std@@UBEPBDXZ
	DD	FLAT:?message@_System_error_category@std@@UBE?AV?$basic_string@DU?$char_traits@D@std@@V?$allocator@D@2@@2@H@Z
	DD	FLAT:?default_error_condition@_System_error_category@std@@UBE?AVerror_condition@2@H@Z
	DD	FLAT:?equivalent@error_category@std@@UBE_NABVerror_code@2@H@Z
	DD	FLAT:?equivalent@error_category@std@@UBE_NHABVerror_condition@2@@Z
CONST	ENDS
;	COMDAT ??_C@_0BG@PADBLCHM@iostream?5stream?5error?$AA@
CONST	SEGMENT
??_C@_0BG@PADBLCHM@iostream?5stream?5error?$AA@ DB 'iostream stream error'
	DB	00H						; `string'
CONST	ENDS
;	COMDAT ??_C@_08LLGCOLLL@iostream?$AA@
CONST	SEGMENT
??_C@_08LLGCOLLL@iostream?$AA@ DB 'iostream', 00H	; `string'
CONST	ENDS
;	COMDAT ??_7_Iostream_error_category@std@@6B@
CONST	SEGMENT
??_7_Iostream_error_category@std@@6B@ DD FLAT:??_R4_Iostream_error_category@std@@6B@ ; std::_Iostream_error_category::`vftable'
	DD	FLAT:??_E_Iostream_error_category@std@@UAEPAXI@Z
	DD	FLAT:?name@_Iostream_error_category@std@@UBEPBDXZ
	DD	FLAT:?message@_Iostream_error_category@std@@UBE?AV?$basic_string@DU?$char_traits@D@std@@V?$allocator@D@2@@2@H@Z
	DD	FLAT:?default_error_condition@error_category@std@@UBE?AVerror_condition@2@H@Z
	DD	FLAT:?equivalent@error_category@std@@UBE_NABVerror_code@2@H@Z
	DD	FLAT:?equivalent@error_category@std@@UBE_NHABVerror_condition@2@@Z
CONST	ENDS
;	COMDAT ??_C@_0O@BFJCFAAK@unknown?5error?$AA@
CONST	SEGMENT
??_C@_0O@BFJCFAAK@unknown?5error?$AA@ DB 'unknown error', 00H ; `string'
CONST	ENDS
;	COMDAT ??_C@_07DCLBNMLN@generic?$AA@
CONST	SEGMENT
??_C@_07DCLBNMLN@generic?$AA@ DB 'generic', 00H		; `string'
CONST	ENDS
;	COMDAT ??_7_Generic_error_category@std@@6B@
CONST	SEGMENT
??_7_Generic_error_category@std@@6B@ DD FLAT:??_R4_Generic_error_category@std@@6B@ ; std::_Generic_error_category::`vftable'
	DD	FLAT:??_E_Generic_error_category@std@@UAEPAXI@Z
	DD	FLAT:?name@_Generic_error_category@std@@UBEPBDXZ
	DD	FLAT:?message@_Generic_error_category@std@@UBE?AV?$basic_string@DU?$char_traits@D@std@@V?$allocator@D@2@@2@H@Z
	DD	FLAT:?default_error_condition@error_category@std@@UBE?AVerror_condition@2@H@Z
	DD	FLAT:?equivalent@error_category@std@@UBE_NABVerror_code@2@H@Z
	DD	FLAT:?equivalent@error_category@std@@UBE_NHABVerror_condition@2@@Z
CONST	ENDS
;	COMDAT ??_7error_category@std@@6B@
CONST	SEGMENT
??_7error_category@std@@6B@ DD FLAT:??_R4error_category@std@@6B@ ; std::error_category::`vftable'
	DD	FLAT:??_Eerror_category@std@@UAEPAXI@Z
	DD	FLAT:__purecall
	DD	FLAT:__purecall
	DD	FLAT:?default_error_condition@error_category@std@@UBE?AVerror_condition@2@H@Z
	DD	FLAT:?equivalent@error_category@std@@UBE_NABVerror_code@2@H@Z
	DD	FLAT:?equivalent@error_category@std@@UBE_NHABVerror_condition@2@@Z
CONST	ENDS
;	COMDAT ??_C@_00CNPNBAHC@?$AA@
CONST	SEGMENT
??_C@_00CNPNBAHC@?$AA@ DB 00H				; `string'
CONST	ENDS
;	COMDAT xdata$x
xdata$x	SEGMENT
__unwindtable$??$construct@U?$pair@$$CBV?$VuBin@VFalconSessionEntity@@@@PAVTViewPoint@@@std@@U?$pair@V?$VuBin@VFalconSessionEntity@@@@PAVTViewPoint@@@2@@?$allocator@U?$_Tree_node@U?$pair@$$CBV?$VuBin@VFalconSessionEntity@@@@PAVTViewPoint@@@std@@PAX@std@@@std@@QAEXPAU?$pair@$$CBV?$VuBin@VFalconSessionEntity@@@@PAVTViewPoint@@@1@$$QAU?$pair@V?$VuBin@VFalconSessionEntity@@@@PAVTViewPoint@@@1@@Z DD 0ffffffffH
	DD	FLAT:__unwindfunclet$??$construct@U?$pair@$$CBV?$VuBin@VFalconSessionEntity@@@@PAVTViewPoint@@@std@@U?$pair@V?$VuBin@VFalconSessionEntity@@@@PAVTViewPoint@@@2@@?$allocator@U?$_Tree_node@U?$pair@$$CBV?$VuBin@VFalconSessionEntity@@@@PAVTViewPoint@@@std@@PAX@std@@@std@@QAEXPAU?$pair@$$CBV?$VuBin@VFalconSessionEntity@@@@PAVTViewPoint@@@1@$$QAU?$pair@V?$VuBin@VFalconSessionEntity@@@@PAVTViewPoint@@@1@@Z$0
__ehfuncinfo$??$construct@U?$pair@$$CBV?$VuBin@VFalconSessionEntity@@@@PAVTViewPoint@@@std@@U?$pair@V?$VuBin@VFalconSessionEntity@@@@PAVTViewPoint@@@2@@?$allocator@U?$_Tree_node@U?$pair@$$CBV?$VuBin@VFalconSessionEntity@@@@PAVTViewPoint@@@std@@PAX@std@@@std@@QAEXPAU?$pair@$$CBV?$VuBin@VFalconSessionEntity@@@@PAVTViewPoint@@@1@$$QAU?$pair@V?$VuBin@VFalconSessionEntity@@@@PAVTViewPoint@@@1@@Z DD 019930522H
	DD	01H
	DD	FLAT:__unwindtable$??$construct@U?$pair@$$CBV?$VuBin@VFalconSessionEntity@@@@PAVTViewPoint@@@std@@U?$pair@V?$VuBin@VFalconSessionEntity@@@@PAVTViewPoint@@@2@@?$allocator@U?$_Tree_node@U?$pair@$$CBV?$VuBin@VFalconSessionEntity@@@@PAVTViewPoint@@@std@@PAX@std@@@std@@QAEXPAU?$pair@$$CBV?$VuBin@VFalconSessionEntity@@@@PAVTViewPoint@@@1@$$QAU?$pair@V?$VuBin@VFalconSessionEntity@@@@PAVTViewPoint@@@1@@Z
	DD	2 DUP(00H)
	DD	2 DUP(00H)
	DD	00H
	DD	01H
xdata$x	ENDS
;	COMDAT xdata$x
xdata$x	SEGMENT
__unwindtable$??$construct@PAU?$_Tree_node@U?$pair@$$CBV?$VuBin@VFalconSessionEntity@@@@PAVTViewPoint@@@std@@PAX@std@@AAPAU12@@?$allocator@U?$_Tree_node@U?$pair@$$CBV?$VuBin@VFalconSessionEntity@@@@PAVTViewPoint@@@std@@PAX@std@@@std@@QAEXPAPAU?$_Tree_node@U?$pair@$$CBV?$VuBin@VFalconSessionEntity@@@@PAVTViewPoint@@@std@@PAX@1@AAPAU21@@Z DD 0ffffffffH
	DD	FLAT:__unwindfunclet$??$construct@PAU?$_Tree_node@U?$pair@$$CBV?$VuBin@VFalconSessionEntity@@@@PAVTViewPoint@@@std@@PAX@std@@AAPAU12@@?$allocator@U?$_Tree_node@U?$pair@$$CBV?$VuBin@VFalconSessionEntity@@@@PAVTViewPoint@@@std@@PAX@std@@@std@@QAEXPAPAU?$_Tree_node@U?$pair@$$CBV?$VuBin@VFalconSessionEntity@@@@PAVTViewPoint@@@std@@PAX@1@AAPAU21@@Z$0
__ehfuncinfo$??$construct@PAU?$_Tree_node@U?$pair@$$CBV?$VuBin@VFalconSessionEntity@@@@PAVTViewPoint@@@std@@PAX@std@@AAPAU12@@?$allocator@U?$_Tree_node@U?$pair@$$CBV?$VuBin@VFalconSessionEntity@@@@PAVTViewPoint@@@std@@PAX@std@@@std@@QAEXPAPAU?$_Tree_node@U?$pair@$$CBV?$VuBin@VFalconSessionEntity@@@@PAVTViewPoint@@@std@@PAX@1@AAPAU21@@Z DD 019930522H
	DD	01H
	DD	FLAT:__unwindtable$??$construct@PAU?$_Tree_node@U?$pair@$$CBV?$VuBin@VFalconSessionEntity@@@@PAVTViewPoint@@@std@@PAX@std@@AAPAU12@@?$allocator@U?$_Tree_node@U?$pair@$$CBV?$VuBin@VFalconSessionEntity@@@@PAVTViewPoint@@@std@@PAX@std@@@std@@QAEXPAPAU?$_Tree_node@U?$pair@$$CBV?$VuBin@VFalconSessionEntity@@@@PAVTViewPoint@@@std@@PAX@1@AAPAU21@@Z
	DD	2 DUP(00H)
	DD	2 DUP(00H)
	DD	00H
	DD	01H
xdata$x	ENDS
;	COMDAT xdata$x
xdata$x	SEGMENT
__unwindtable$??$construct@PADAAPAD@?$allocator@D@std@@QAEXPAPADAAPAD@Z DD 0ffffffffH
	DD	FLAT:__unwindfunclet$??$construct@PADAAPAD@?$allocator@D@std@@QAEXPAPADAAPAD@Z$0
__ehfuncinfo$??$construct@PADAAPAD@?$allocator@D@std@@QAEXPAPADAAPAD@Z DD 019930522H
	DD	01H
	DD	FLAT:__unwindtable$??$construct@PADAAPAD@?$allocator@D@std@@QAEXPAPADAAPAD@Z
	DD	2 DUP(00H)
	DD	2 DUP(00H)
	DD	00H
	DD	01H
xdata$x	ENDS
;	COMDAT xdata$x
xdata$x	SEGMENT
__catchsym$??$_Insert_nohint@AAU?$pair@$$CBV?$VuBin@VFalconSessionEntity@@@@PAVTViewPoint@@@std@@PAU?$_Tree_node@U?$pair@$$CBV?$VuBin@VFalconSessionEntity@@@@PAVTViewPoint@@@std@@PAX@2@@?$_Tree@V?$_Tmap_traits@V?$VuBin@VFalconSessionEntity@@@@PAVTViewPoint@@U?$less@V?$VuBin@VFalconSessionEntity@@@@@std@@V?$allocator@U?$pair@$$CBV?$VuBin@VFalconSessionEntity@@@@PAVTViewPoint@@@std@@@4@$0A@@std@@@std@@IAE?AU?$pair@V?$_Tree_iterator@V?$_Tree_val@U?$_Tree_simple_types@U?$pair@$$CBV?$VuBin@VFalconSessionEntity@@@@PAVTViewPoint@@@std@@@std@@@std@@@std@@_N@1@_NAAU?$pair@$$CBV?$VuBin@VFalconSessionEntity@@@@PAVTViewPoint@@@1@PAU?$_Tree_node@U?$pair@$$CBV?$VuBin@VFalconSessionEntity@@@@PAVTViewPoint@@@std@@PAX@1@@Z$2 DD 040H
	DD	00H
	DD	00H
	DD	FLAT:__catch$??$_Insert_nohint@AAU?$pair@$$CBV?$VuBin@VFalconSessionEntity@@@@PAVTViewPoint@@@std@@PAU?$_Tree_node@U?$pair@$$CBV?$VuBin@VFalconSessionEntity@@@@PAVTViewPoint@@@std@@PAX@2@@?$_Tree@V?$_Tmap_traits@V?$VuBin@VFalconSessionEntity@@@@PAVTViewPoint@@U?$less@V?$VuBin@VFalconSessionEntity@@@@@std@@V?$allocator@U?$pair@$$CBV?$VuBin@VFalconSessionEntity@@@@PAVTViewPoint@@@std@@@4@$0A@@std@@@std@@IAE?AU?$pair@V?$_Tree_iterator@V?$_Tree_val@U?$_Tree_simple_types@U?$pair@$$CBV?$VuBin@VFalconSessionEntity@@@@PAVTViewPoint@@@std@@@std@@@std@@@std@@_N@1@_NAAU?$pair@$$CBV?$VuBin@VFalconSessionEntity@@@@PAVTViewPoint@@@1@PAU?$_Tree_node@U?$pair@$$CBV?$VuBin@VFalconSessionEntity@@@@PAVTViewPoint@@@std@@PAX@1@@Z$0
__unwindtable$??$_Insert_nohint@AAU?$pair@$$CBV?$VuBin@VFalconSessionEntity@@@@PAVTViewPoint@@@std@@PAU?$_Tree_node@U?$pair@$$CBV?$VuBin@VFalconSessionEntity@@@@PAVTViewPoint@@@std@@PAX@2@@?$_Tree@V?$_Tmap_traits@V?$VuBin@VFalconSessionEntity@@@@PAVTViewPoint@@U?$less@V?$VuBin@VFalconSessionEntity@@@@@std@@V?$allocator@U?$pair@$$CBV?$VuBin@VFalconSessionEntity@@@@PAVTViewPoint@@@std@@@4@$0A@@std@@@std@@IAE?AU?$pair@V?$_Tree_iterator@V?$_Tree_val@U?$_Tree_simple_types@U?$pair@$$CBV?$VuBin@VFalconSessionEntity@@@@PAVTViewPoint@@@std@@@std@@@std@@@std@@_N@1@_NAAU?$pair@$$CBV?$VuBin@VFalconSessionEntity@@@@PAVTViewPoint@@@1@PAU?$_Tree_node@U?$pair@$$CBV?$VuBin@VFalconSessionEntity@@@@PAVTViewPoint@@@std@@PAX@1@@Z DD 0ffffffffH
	DD	00H
	DD	0ffffffffH
	DD	00H
__tryblocktable$??$_Insert_nohint@AAU?$pair@$$CBV?$VuBin@VFalconSessionEntity@@@@PAVTViewPoint@@@std@@PAU?$_Tree_node@U?$pair@$$CBV?$VuBin@VFalconSessionEntity@@@@PAVTViewPoint@@@std@@PAX@2@@?$_Tree@V?$_Tmap_traits@V?$VuBin@VFalconSessionEntity@@@@PAVTViewPoint@@U?$less@V?$VuBin@VFalconSessionEntity@@@@@std@@V?$allocator@U?$pair@$$CBV?$VuBin@VFalconSessionEntity@@@@PAVTViewPoint@@@std@@@4@$0A@@std@@@std@@IAE?AU?$pair@V?$_Tree_iterator@V?$_Tree_val@U?$_Tree_simple_types@U?$pair@$$CBV?$VuBin@VFalconSessionEntity@@@@PAVTViewPoint@@@std@@@std@@@std@@@std@@_N@1@_NAAU?$pair@$$CBV?$VuBin@VFalconSessionEntity@@@@PAVTViewPoint@@@1@PAU?$_Tree_node@U?$pair@$$CBV?$VuBin@VFalconSessionEntity@@@@PAVTViewPoint@@@std@@PAX@1@@Z DD 00H
	DD	00H
	DD	01H
	DD	01H
	DD	FLAT:__catchsym$??$_Insert_nohint@AAU?$pair@$$CBV?$VuBin@VFalconSessionEntity@@@@PAVTViewPoint@@@std@@PAU?$_Tree_node@U?$pair@$$CBV?$VuBin@VFalconSessionEntity@@@@PAVTViewPoint@@@std@@PAX@2@@?$_Tree@V?$_Tmap_traits@V?$VuBin@VFalconSessionEntity@@@@PAVTViewPoint@@U?$less@V?$VuBin@VFalconSessionEntity@@@@@std@@V?$allocator@U?$pair@$$CBV?$VuBin@VFalconSessionEntity@@@@PAVTViewPoint@@@std@@@4@$0A@@std@@@std@@IAE?AU?$pair@V?$_Tree_iterator@V?$_Tree_val@U?$_Tree_simple_types@U?$pair@$$CBV?$VuBin@VFalconSessionEntity@@@@PAVTViewPoint@@@std@@@std@@@std@@@std@@_N@1@_NAAU?$pair@$$CBV?$VuBin@VFalconSessionEntity@@@@PAVTViewPoint@@@1@PAU?$_Tree_node@U?$pair@$$CBV?$VuBin@VFalconSessionEntity@@@@PAVTViewPoint@@@std@@PAX@1@@Z$2
__ehfuncinfo$??$_Insert_nohint@AAU?$pair@$$CBV?$VuBin@VFalconSessionEntity@@@@PAVTViewPoint@@@std@@PAU?$_Tree_node@U?$pair@$$CBV?$VuBin@VFalconSessionEntity@@@@PAVTViewPoint@@@std@@PAX@2@@?$_Tree@V?$_Tmap_traits@V?$VuBin@VFalconSessionEntity@@@@PAVTViewPoint@@U?$less@V?$VuBin@VFalconSessionEntity@@@@@std@@V?$allocator@U?$pair@$$CBV?$VuBin@VFalconSessionEntity@@@@PAVTViewPoint@@@std@@@4@$0A@@std@@@std@@IAE?AU?$pair@V?$_Tree_iterator@V?$_Tree_val@U?$_Tree_simple_types@U?$pair@$$CBV?$VuBin@VFalconSessionEntity@@@@PAVTViewPoint@@@std@@@std@@@std@@@std@@_N@1@_NAAU?$pair@$$CBV?$VuBin@VFalconSessionEntity@@@@PAVTViewPoint@@@1@PAU?$_Tree_node@U?$pair@$$CBV?$VuBin@VFalconSessionEntity@@@@PAVTViewPoint@@@std@@PAX@1@@Z DD 019930522H
	DD	02H
	DD	FLAT:__unwindtable$??$_Insert_nohint@AAU?$pair@$$CBV?$VuBin@VFalconSessionEntity@@@@PAVTViewPoint@@@std@@PAU?$_Tree_node@U?$pair@$$CBV?$VuBin@VFalconSessionEntity@@@@PAVTViewPoint@@@std@@PAX@2@@?$_Tree@V?$_Tmap_traits@V?$VuBin@VFalconSessionEntity@@@@PAVTViewPoint@@U?$less@V?$VuBin@VFalconSessionEntity@@@@@std@@V?$allocator@U?$pair@$$CBV?$VuBin@VFalconSessionEntity@@@@PAVTViewPoint@@@std@@@4@$0A@@std@@@std@@IAE?AU?$pair@V?$_Tree_iterator@V?$_Tree_val@U?$_Tree_simple_types@U?$pair@$$CBV?$VuBin@VFalconSessionEntity@@@@PAVTViewPoint@@@std@@@std@@@std@@@std@@_N@1@_NAAU?$pair@$$CBV?$VuBin@VFalconSessionEntity@@@@PAVTViewPoint@@@1@PAU?$_Tree_node@U?$pair@$$CBV?$VuBin@VFalconSessionEntity@@@@PAVTViewPoint@@@std@@PAX@1@@Z
	DD	01H
	DD	FLAT:__tryblocktable$??$_Insert_nohint@AAU?$pair@$$CBV?$VuBin@VFalconSessionEntity@@@@PAVTViewPoint@@@std@@PAU?$_Tree_node@U?$pair@$$CBV?$VuBin@VFalconSessionEntity@@@@PAVTViewPoint@@@std@@PAX@2@@?$_Tree@V?$_Tmap_traits@V?$VuBin@VFalconSessionEntity@@@@PAVTViewPoint@@U?$less@V?$VuBin@VFalconSessionEntity@@@@@std@@V?$allocator@U?$pair@$$CBV?$VuBin@VFalconSessionEntity@@@@PAVTViewPoint@@@std@@@4@$0A@@std@@@std@@IAE?AU?$pair@V?$_Tree_iterator@V?$_Tree_val@U?$_Tree_simple_types@U?$pair@$$CBV?$VuBin@VFalconSessionEntity@@@@PAVTViewPoint@@@std@@@std@@@std@@@std@@_N@1@_NAAU?$pair@$$CBV?$VuBin@VFalconSessionEntity@@@@PAVTViewPoint@@@1@PAU?$_Tree_node@U?$pair@$$CBV?$VuBin@VFalconSessionEntity@@@@PAVTViewPoint@@@std@@PAX@1@@Z
	DD	2 DUP(00H)
	DD	00H
	DD	01H
xdata$x	ENDS
;	COMDAT xdata$x
xdata$x	SEGMENT
__catchsym$??$_Buynode@U?$pair@V?$VuBin@VFalconSessionEntity@@@@PAVTViewPoint@@@std@@@?$_Tree_buy@U?$pair@$$CBV?$VuBin@VFalconSessionEntity@@@@PAVTViewPoint@@@std@@V?$allocator@U?$pair@$$CBV?$VuBin@VFalconSessionEntity@@@@PAVTViewPoint@@@std@@@2@@std@@QAEPAU?$_Tree_node@U?$pair@$$CBV?$VuBin@VFalconSessionEntity@@@@PAVTViewPoint@@@std@@PAX@1@$$QAU?$pair@V?$VuBin@VFalconSessionEntity@@@@PAVTViewPoint@@@1@@Z$2 DD 040H
	DD	00H
	DD	00H
	DD	FLAT:__catch$??$_Buynode@U?$pair@V?$VuBin@VFalconSessionEntity@@@@PAVTViewPoint@@@std@@@?$_Tree_buy@U?$pair@$$CBV?$VuBin@VFalconSessionEntity@@@@PAVTViewPoint@@@std@@V?$allocator@U?$pair@$$CBV?$VuBin@VFalconSessionEntity@@@@PAVTViewPoint@@@std@@@2@@std@@QAEPAU?$_Tree_node@U?$pair@$$CBV?$VuBin@VFalconSessionEntity@@@@PAVTViewPoint@@@std@@PAX@1@$$QAU?$pair@V?$VuBin@VFalconSessionEntity@@@@PAVTViewPoint@@@1@@Z$0
__unwindtable$??$_Buynode@U?$pair@V?$VuBin@VFalconSessionEntity@@@@PAVTViewPoint@@@std@@@?$_Tree_buy@U?$pair@$$CBV?$VuBin@VFalconSessionEntity@@@@PAVTViewPoint@@@std@@V?$allocator@U?$pair@$$CBV?$VuBin@VFalconSessionEntity@@@@PAVTViewPoint@@@std@@@2@@std@@QAEPAU?$_Tree_node@U?$pair@$$CBV?$VuBin@VFalconSessionEntity@@@@PAVTViewPoint@@@std@@PAX@1@$$QAU?$pair@V?$VuBin@VFalconSessionEntity@@@@PAVTViewPoint@@@1@@Z DD 0ffffffffH
	DD	00H
	DD	0ffffffffH
	DD	00H
__tryblocktable$??$_Buynode@U?$pair@V?$VuBin@VFalconSessionEntity@@@@PAVTViewPoint@@@std@@@?$_Tree_buy@U?$pair@$$CBV?$VuBin@VFalconSessionEntity@@@@PAVTViewPoint@@@std@@V?$allocator@U?$pair@$$CBV?$VuBin@VFalconSessionEntity@@@@PAVTViewPoint@@@std@@@2@@std@@QAEPAU?$_Tree_node@U?$pair@$$CBV?$VuBin@VFalconSessionEntity@@@@PAVTViewPoint@@@std@@PAX@1@$$QAU?$pair@V?$VuBin@VFalconSessionEntity@@@@PAVTViewPoint@@@1@@Z DD 00H
	DD	00H
	DD	01H
	DD	01H
	DD	FLAT:__catchsym$??$_Buynode@U?$pair@V?$VuBin@VFalconSessionEntity@@@@PAVTViewPoint@@@std@@@?$_Tree_buy@U?$pair@$$CBV?$VuBin@VFalconSessionEntity@@@@PAVTViewPoint@@@std@@V?$allocator@U?$pair@$$CBV?$VuBin@VFalconSessionEntity@@@@PAVTViewPoint@@@std@@@2@@std@@QAEPAU?$_Tree_node@U?$pair@$$CBV?$VuBin@VFalconSessionEntity@@@@PAVTViewPoint@@@std@@PAX@1@$$QAU?$pair@V?$VuBin@VFalconSessionEntity@@@@PAVTViewPoint@@@1@@Z$2
__ehfuncinfo$??$_Buynode@U?$pair@V?$VuBin@VFalconSessionEntity@@@@PAVTViewPoint@@@std@@@?$_Tree_buy@U?$pair@$$CBV?$VuBin@VFalconSessionEntity@@@@PAVTViewPoint@@@std@@V?$allocator@U?$pair@$$CBV?$VuBin@VFalconSessionEntity@@@@PAVTViewPoint@@@std@@@2@@std@@QAEPAU?$_Tree_node@U?$pair@$$CBV?$VuBin@VFalconSessionEntity@@@@PAVTViewPoint@@@std@@PAX@1@$$QAU?$pair@V?$VuBin@VFalconSessionEntity@@@@PAVTViewPoint@@@1@@Z DD 019930522H
	DD	02H
	DD	FLAT:__unwindtable$??$_Buynode@U?$pair@V?$VuBin@VFalconSessionEntity@@@@PAVTViewPoint@@@std@@@?$_Tree_buy@U?$pair@$$CBV?$VuBin@VFalconSessionEntity@@@@PAVTViewPoint@@@std@@V?$allocator@U?$pair@$$CBV?$VuBin@VFalconSessionEntity@@@@PAVTViewPoint@@@std@@@2@@std@@QAEPAU?$_Tree_node@U?$pair@$$CBV?$VuBin@VFalconSessionEntity@@@@PAVTViewPoint@@@std@@PAX@1@$$QAU?$pair@V?$VuBin@VFalconSessionEntity@@@@PAVTViewPoint@@@1@@Z
	DD	01H
	DD	FLAT:__tryblocktable$??$_Buynode@U?$pair@V?$VuBin@VFalconSessionEntity@@@@PAVTViewPoint@@@std@@@?$_Tree_buy@U?$pair@$$CBV?$VuBin@VFalconSessionEntity@@@@PAVTViewPoint@@@std@@V?$allocator@U?$pair@$$CBV?$VuBin@VFalconSessionEntity@@@@PAVTViewPoint@@@std@@@2@@std@@QAEPAU?$_Tree_node@U?$pair@$$CBV?$VuBin@VFalconSessionEntity@@@@PAVTViewPoint@@@std@@PAX@1@$$QAU?$pair@V?$VuBin@VFalconSessionEntity@@@@PAVTViewPoint@@@1@@Z
	DD	2 DUP(00H)
	DD	00H
	DD	01H
xdata$x	ENDS
;	COMDAT xdata$x
xdata$x	SEGMENT
__unwindtable$??$?0V?$VuBin@VFalconSessionEntity@@@@PAVTViewPoint@@@?$pair@V?$VuBin@VFalconSessionEntity@@@@PAVTViewPoint@@@std@@QAE@$$QAU01@PAPAX@Z DD 0ffffffffH
	DD	FLAT:__unwindfunclet$??$?0V?$VuBin@VFalconSessionEntity@@@@PAVTViewPoint@@@?$pair@V?$VuBin@VFalconSessionEntity@@@@PAVTViewPoint@@@std@@QAE@$$QAU01@PAPAX@Z$0
__ehfuncinfo$??$?0V?$VuBin@VFalconSessionEntity@@@@PAVTViewPoint@@@?$pair@V?$VuBin@VFalconSessionEntity@@@@PAVTViewPoint@@@std@@QAE@$$QAU01@PAPAX@Z DD 019930522H
	DD	01H
	DD	FLAT:__unwindtable$??$?0V?$VuBin@VFalconSessionEntity@@@@PAVTViewPoint@@@?$pair@V?$VuBin@VFalconSessionEntity@@@@PAVTViewPoint@@@std@@QAE@$$QAU01@PAPAX@Z
	DD	2 DUP(00H)
	DD	2 DUP(00H)
	DD	00H
	DD	01H
xdata$x	ENDS
;	COMDAT xdata$x
xdata$x	SEGMENT
__unwindtable$??$?0V?$VuBin@VFalconSessionEntity@@@@AAPAVTViewPoint@@@?$pair@V?$VuBin@VFalconSessionEntity@@@@PAVTViewPoint@@@std@@QAE@$$QAV?$VuBin@VFalconSessionEntity@@@@AAPAVTViewPoint@@PAPAX@Z DD 0ffffffffH
	DD	FLAT:__unwindfunclet$??$?0V?$VuBin@VFalconSessionEntity@@@@AAPAVTViewPoint@@@?$pair@V?$VuBin@VFalconSessionEntity@@@@PAVTViewPoint@@@std@@QAE@$$QAV?$VuBin@VFalconSessionEntity@@@@AAPAVTViewPoint@@PAPAX@Z$0
__ehfuncinfo$??$?0V?$VuBin@VFalconSessionEntity@@@@AAPAVTViewPoint@@@?$pair@V?$VuBin@VFalconSessionEntity@@@@PAVTViewPoint@@@std@@QAE@$$QAV?$VuBin@VFalconSessionEntity@@@@AAPAVTViewPoint@@PAPAX@Z DD 019930522H
	DD	01H
	DD	FLAT:__unwindtable$??$?0V?$VuBin@VFalconSessionEntity@@@@AAPAVTViewPoint@@@?$pair@V?$VuBin@VFalconSessionEntity@@@@PAVTViewPoint@@@std@@QAE@$$QAV?$VuBin@VFalconSessionEntity@@@@AAPAVTViewPoint@@PAPAX@Z
	DD	2 DUP(00H)
	DD	2 DUP(00H)
	DD	00H
	DD	01H
xdata$x	ENDS
;	COMDAT xdata$x
xdata$x	SEGMENT
__unwindtable$??$?0V?$VuBin@VFalconSessionEntity@@@@PAVTViewPoint@@@?$pair@$$CBV?$VuBin@VFalconSessionEntity@@@@PAVTViewPoint@@@std@@QAE@$$QAU?$pair@V?$VuBin@VFalconSessionEntity@@@@PAVTViewPoint@@@1@PAPAX@Z DD 0ffffffffH
	DD	FLAT:__unwindfunclet$??$?0V?$VuBin@VFalconSessionEntity@@@@PAVTViewPoint@@@?$pair@$$CBV?$VuBin@VFalconSessionEntity@@@@PAVTViewPoint@@@std@@QAE@$$QAU?$pair@V?$VuBin@VFalconSessionEntity@@@@PAVTViewPoint@@@1@PAPAX@Z$0
__ehfuncinfo$??$?0V?$VuBin@VFalconSessionEntity@@@@PAVTViewPoint@@@?$pair@$$CBV?$VuBin@VFalconSessionEntity@@@@PAVTViewPoint@@@std@@QAE@$$QAU?$pair@V?$VuBin@VFalconSessionEntity@@@@PAVTViewPoint@@@1@PAPAX@Z DD 019930522H
	DD	01H
	DD	FLAT:__unwindtable$??$?0V?$VuBin@VFalconSessionEntity@@@@PAVTViewPoint@@@?$pair@$$CBV?$VuBin@VFalconSessionEntity@@@@PAVTViewPoint@@@std@@QAE@$$QAU?$pair@V?$VuBin@VFalconSessionEntity@@@@PAVTViewPoint@@@1@PAPAX@Z
	DD	2 DUP(00H)
	DD	2 DUP(00H)
	DD	00H
	DD	01H
xdata$x	ENDS
;	COMDAT xdata$x
xdata$x	SEGMENT
__unwindtable$??$make_pair@V?$VuBin@VFalconSessionEntity@@@@AAPAVTViewPoint@@@std@@YA?AU?$pair@V?$VuBin@VFalconSessionEntity@@@@PAVTViewPoint@@@0@$$QAV?$VuBin@VFalconSessionEntity@@@@AAPAVTViewPoint@@@Z DD 0ffffffffH
	DD	FLAT:__unwindfunclet$??$make_pair@V?$VuBin@VFalconSessionEntity@@@@AAPAVTViewPoint@@@std@@YA?AU?$pair@V?$VuBin@VFalconSessionEntity@@@@PAVTViewPoint@@@0@$$QAV?$VuBin@VFalconSessionEntity@@@@AAPAVTViewPoint@@@Z$1
	DD	00H
	DD	FLAT:__unwindfunclet$??$make_pair@V?$VuBin@VFalconSessionEntity@@@@AAPAVTViewPoint@@@std@@YA?AU?$pair@V?$VuBin@VFalconSessionEntity@@@@PAVTViewPoint@@@0@$$QAV?$VuBin@VFalconSessionEntity@@@@AAPAVTViewPoint@@@Z$0
__ehfuncinfo$??$make_pair@V?$VuBin@VFalconSessionEntity@@@@AAPAVTViewPoint@@@std@@YA?AU?$pair@V?$VuBin@VFalconSessionEntity@@@@PAVTViewPoint@@@0@$$QAV?$VuBin@VFalconSessionEntity@@@@AAPAVTViewPoint@@@Z DD 019930522H
	DD	02H
	DD	FLAT:__unwindtable$??$make_pair@V?$VuBin@VFalconSessionEntity@@@@AAPAVTViewPoint@@@std@@YA?AU?$pair@V?$VuBin@VFalconSessionEntity@@@@PAVTViewPoint@@@0@$$QAV?$VuBin@VFalconSessionEntity@@@@AAPAVTViewPoint@@@Z
	DD	2 DUP(00H)
	DD	2 DUP(00H)
	DD	00H
	DD	01H
xdata$x	ENDS
;	COMDAT xdata$x
xdata$x	SEGMENT
__ehfuncinfo$??1RViewPoint@@QAE@XZ DD 019930522H
	DD	06H
	DD	FLAT:__unwindtable$??1RViewPoint@@QAE@XZ
	DD	2 DUP(00H)
	DD	2 DUP(00H)
	DD	00H
	DD	01H
__unwindtable$??1RViewPoint@@QAE@XZ DD 0ffffffffH
	DD	FLAT:__unwindfunclet$??1RViewPoint@@QAE@XZ$0
	DD	00H
	DD	FLAT:__unwindfunclet$??1RViewPoint@@QAE@XZ$1
	DD	01H
	DD	FLAT:__unwindfunclet$??1RViewPoint@@QAE@XZ$2
	DD	02H
	DD	FLAT:__unwindfunclet$??1RViewPoint@@QAE@XZ$3
	DD	03H
	DD	FLAT:__unwindfunclet$??1RViewPoint@@QAE@XZ$4
	DD	04H
	DD	FLAT:__unwindfunclet$??1RViewPoint@@QAE@XZ$5
xdata$x	ENDS
;	COMDAT xdata$x
xdata$x	SEGMENT
__ehfuncinfo$??0RViewPoint@@QAE@XZ DD 019930522H
	DD	06H
	DD	FLAT:__unwindtable$??0RViewPoint@@QAE@XZ
	DD	2 DUP(00H)
	DD	2 DUP(00H)
	DD	00H
	DD	01H
__unwindtable$??0RViewPoint@@QAE@XZ DD 0ffffffffH
	DD	FLAT:__unwindfunclet$??0RViewPoint@@QAE@XZ$0
	DD	00H
	DD	FLAT:__unwindfunclet$??0RViewPoint@@QAE@XZ$1
	DD	01H
	DD	FLAT:__unwindfunclet$??0RViewPoint@@QAE@XZ$2
	DD	02H
	DD	FLAT:__unwindfunclet$??0RViewPoint@@QAE@XZ$3
	DD	03H
	DD	FLAT:__unwindfunclet$??0RViewPoint@@QAE@XZ$4
	DD	04H
	DD	FLAT:__unwindfunclet$??0RViewPoint@@QAE@XZ$5
xdata$x	ENDS
;	COMDAT xdata$x
xdata$x	SEGMENT
__unwindtable$??1RenderOTW@@UAE@XZ DD 0ffffffffH
	DD	FLAT:__unwindfunclet$??1RenderOTW@@UAE@XZ$0
	DD	00H
	DD	FLAT:__unwindfunclet$??1RenderOTW@@UAE@XZ$1
	DD	01H
	DD	FLAT:__unwindfunclet$??1RenderOTW@@UAE@XZ$2
	DD	02H
	DD	FLAT:__unwindfunclet$??1RenderOTW@@UAE@XZ$3
__ehfuncinfo$??1RenderOTW@@UAE@XZ DD 019930522H
	DD	04H
	DD	FLAT:__unwindtable$??1RenderOTW@@UAE@XZ
	DD	2 DUP(00H)
	DD	2 DUP(00H)
	DD	00H
	DD	01H
xdata$x	ENDS
;	COMDAT xdata$x
xdata$x	SEGMENT
__unwindtable$??0RenderOTW@@QAE@XZ DD 0ffffffffH
	DD	FLAT:__unwindfunclet$??0RenderOTW@@QAE@XZ$0
	DD	00H
	DD	FLAT:__unwindfunclet$??0RenderOTW@@QAE@XZ$1
	DD	01H
	DD	FLAT:__unwindfunclet$??0RenderOTW@@QAE@XZ$2
	DD	02H
	DD	FLAT:__unwindfunclet$??0RenderOTW@@QAE@XZ$3
__ehfuncinfo$??0RenderOTW@@QAE@XZ DD 019930522H
	DD	04H
	DD	FLAT:__unwindtable$??0RenderOTW@@QAE@XZ
	DD	2 DUP(00H)
	DD	2 DUP(00H)
	DD	00H
	DD	01H
xdata$x	ENDS
;	COMDAT xdata$x
xdata$x	SEGMENT
__catchsym$?_Buynode0@?$_Tree_buy@U?$pair@$$CBV?$VuBin@VFalconSessionEntity@@@@PAVTViewPoint@@@std@@V?$allocator@U?$pair@$$CBV?$VuBin@VFalconSessionEntity@@@@PAVTViewPoint@@@std@@@2@@std@@QAEPAU?$_Tree_node@U?$pair@$$CBV?$VuBin@VFalconSessionEntity@@@@PAVTViewPoint@@@std@@PAX@2@XZ$2 DD 040H
	DD	00H
	DD	00H
	DD	FLAT:__catch$?_Buynode0@?$_Tree_buy@U?$pair@$$CBV?$VuBin@VFalconSessionEntity@@@@PAVTViewPoint@@@std@@V?$allocator@U?$pair@$$CBV?$VuBin@VFalconSessionEntity@@@@PAVTViewPoint@@@std@@@2@@std@@QAEPAU?$_Tree_node@U?$pair@$$CBV?$VuBin@VFalconSessionEntity@@@@PAVTViewPoint@@@std@@PAX@2@XZ$0
__unwindtable$?_Buynode0@?$_Tree_buy@U?$pair@$$CBV?$VuBin@VFalconSessionEntity@@@@PAVTViewPoint@@@std@@V?$allocator@U?$pair@$$CBV?$VuBin@VFalconSessionEntity@@@@PAVTViewPoint@@@std@@@2@@std@@QAEPAU?$_Tree_node@U?$pair@$$CBV?$VuBin@VFalconSessionEntity@@@@PAVTViewPoint@@@std@@PAX@2@XZ DD 0ffffffffH
	DD	00H
	DD	0ffffffffH
	DD	00H
__tryblocktable$?_Buynode0@?$_Tree_buy@U?$pair@$$CBV?$VuBin@VFalconSessionEntity@@@@PAVTViewPoint@@@std@@V?$allocator@U?$pair@$$CBV?$VuBin@VFalconSessionEntity@@@@PAVTViewPoint@@@std@@@2@@std@@QAEPAU?$_Tree_node@U?$pair@$$CBV?$VuBin@VFalconSessionEntity@@@@PAVTViewPoint@@@std@@PAX@2@XZ DD 00H
	DD	00H
	DD	01H
	DD	01H
	DD	FLAT:__catchsym$?_Buynode0@?$_Tree_buy@U?$pair@$$CBV?$VuBin@VFalconSessionEntity@@@@PAVTViewPoint@@@std@@V?$allocator@U?$pair@$$CBV?$VuBin@VFalconSessionEntity@@@@PAVTViewPoint@@@std@@@2@@std@@QAEPAU?$_Tree_node@U?$pair@$$CBV?$VuBin@VFalconSessionEntity@@@@PAVTViewPoint@@@std@@PAX@2@XZ$2
__ehfuncinfo$?_Buynode0@?$_Tree_buy@U?$pair@$$CBV?$VuBin@VFalconSessionEntity@@@@PAVTViewPoint@@@std@@V?$allocator@U?$pair@$$CBV?$VuBin@VFalconSessionEntity@@@@PAVTViewPoint@@@std@@@2@@std@@QAEPAU?$_Tree_node@U?$pair@$$CBV?$VuBin@VFalconSessionEntity@@@@PAVTViewPoint@@@std@@PAX@2@XZ DD 019930522H
	DD	02H
	DD	FLAT:__unwindtable$?_Buynode0@?$_Tree_buy@U?$pair@$$CBV?$VuBin@VFalconSessionEntity@@@@PAVTViewPoint@@@std@@V?$allocator@U?$pair@$$CBV?$VuBin@VFalconSessionEntity@@@@PAVTViewPoint@@@std@@@2@@std@@QAEPAU?$_Tree_node@U?$pair@$$CBV?$VuBin@VFalconSessionEntity@@@@PAVTViewPoint@@@std@@PAX@2@XZ
	DD	01H
	DD	FLAT:__tryblocktable$?_Buynode0@?$_Tree_buy@U?$pair@$$CBV?$VuBin@VFalconSessionEntity@@@@PAVTViewPoint@@@std@@V?$allocator@U?$pair@$$CBV?$VuBin@VFalconSessionEntity@@@@PAVTViewPoint@@@std@@@2@@std@@QAEPAU?$_Tree_node@U?$pair@$$CBV?$VuBin@VFalconSessionEntity@@@@PAVTViewPoint@@@std@@PAX@2@XZ
	DD	2 DUP(00H)
	DD	00H
	DD	01H
xdata$x	ENDS
;	COMDAT xdata$x
xdata$x	SEGMENT
__catchsym$?_Buyheadnode@?$_Tree_alloc@$0A@U?$_Tree_base_types@U?$pair@$$CBV?$VuBin@VFalconSessionEntity@@@@PAVTViewPoint@@@std@@V?$allocator@U?$pair@$$CBV?$VuBin@VFalconSessionEntity@@@@PAVTViewPoint@@@std@@@2@@std@@@std@@QAEPAU?$_Tree_node@U?$pair@$$CBV?$VuBin@VFalconSessionEntity@@@@PAVTViewPoint@@@std@@PAX@2@XZ$2 DD 040H
	DD	00H
	DD	00H
	DD	FLAT:__catch$?_Buyheadnode@?$_Tree_alloc@$0A@U?$_Tree_base_types@U?$pair@$$CBV?$VuBin@VFalconSessionEntity@@@@PAVTViewPoint@@@std@@V?$allocator@U?$pair@$$CBV?$VuBin@VFalconSessionEntity@@@@PAVTViewPoint@@@std@@@2@@std@@@std@@QAEPAU?$_Tree_node@U?$pair@$$CBV?$VuBin@VFalconSessionEntity@@@@PAVTViewPoint@@@std@@PAX@2@XZ$0
__unwindtable$?_Buyheadnode@?$_Tree_alloc@$0A@U?$_Tree_base_types@U?$pair@$$CBV?$VuBin@VFalconSessionEntity@@@@PAVTViewPoint@@@std@@V?$allocator@U?$pair@$$CBV?$VuBin@VFalconSessionEntity@@@@PAVTViewPoint@@@std@@@2@@std@@@std@@QAEPAU?$_Tree_node@U?$pair@$$CBV?$VuBin@VFalconSessionEntity@@@@PAVTViewPoint@@@std@@PAX@2@XZ DD 0ffffffffH
	DD	00H
	DD	0ffffffffH
	DD	00H
__tryblocktable$?_Buyheadnode@?$_Tree_alloc@$0A@U?$_Tree_base_types@U?$pair@$$CBV?$VuBin@VFalconSessionEntity@@@@PAVTViewPoint@@@std@@V?$allocator@U?$pair@$$CBV?$VuBin@VFalconSessionEntity@@@@PAVTViewPoint@@@std@@@2@@std@@@std@@QAEPAU?$_Tree_node@U?$pair@$$CBV?$VuBin@VFalconSessionEntity@@@@PAVTViewPoint@@@std@@PAX@2@XZ DD 00H
	DD	00H
	DD	01H
	DD	01H
	DD	FLAT:__catchsym$?_Buyheadnode@?$_Tree_alloc@$0A@U?$_Tree_base_types@U?$pair@$$CBV?$VuBin@VFalconSessionEntity@@@@PAVTViewPoint@@@std@@V?$allocator@U?$pair@$$CBV?$VuBin@VFalconSessionEntity@@@@PAVTViewPoint@@@std@@@2@@std@@@std@@QAEPAU?$_Tree_node@U?$pair@$$CBV?$VuBin@VFalconSessionEntity@@@@PAVTViewPoint@@@std@@PAX@2@XZ$2
__ehfuncinfo$?_Buyheadnode@?$_Tree_alloc@$0A@U?$_Tree_base_types@U?$pair@$$CBV?$VuBin@VFalconSessionEntity@@@@PAVTViewPoint@@@std@@V?$allocator@U?$pair@$$CBV?$VuBin@VFalconSessionEntity@@@@PAVTViewPoint@@@std@@@2@@std@@@std@@QAEPAU?$_Tree_node@U?$pair@$$CBV?$VuBin@VFalconSessionEntity@@@@PAVTViewPoint@@@std@@PAX@2@XZ DD 019930522H
	DD	02H
	DD	FLAT:__unwindtable$?_Buyheadnode@?$_Tree_alloc@$0A@U?$_Tree_base_types@U?$pair@$$CBV?$VuBin@VFalconSessionEntity@@@@PAVTViewPoint@@@std@@V?$allocator@U?$pair@$$CBV?$VuBin@VFalconSessionEntity@@@@PAVTViewPoint@@@std@@@2@@std@@@std@@QAEPAU?$_Tree_node@U?$pair@$$CBV?$VuBin@VFalconSessionEntity@@@@PAVTViewPoint@@@std@@PAX@2@XZ
	DD	01H
	DD	FLAT:__tryblocktable$?_Buyheadnode@?$_Tree_alloc@$0A@U?$_Tree_base_types@U?$pair@$$CBV?$VuBin@VFalconSessionEntity@@@@PAVTViewPoint@@@std@@V?$allocator@U?$pair@$$CBV?$VuBin@VFalconSessionEntity@@@@PAVTViewPoint@@@std@@@2@@std@@@std@@QAEPAU?$_Tree_node@U?$pair@$$CBV?$VuBin@VFalconSessionEntity@@@@PAVTViewPoint@@@std@@PAX@2@XZ
	DD	2 DUP(00H)
	DD	00H
	DD	01H
xdata$x	ENDS
xdata$x	SEGMENT
__unwindtable$?RunActionCamera@OTWDriverClass@@QAEXXZ DD 0ffffffffH
	DD	FLAT:__unwindfunclet$?RunActionCamera@OTWDriverClass@@QAEXXZ$0
__unwindtable$?InitViewpoint@OTWDriverClass@@QAEXXZ DD 0ffffffffH
	DD	FLAT:__unwindfunclet$?InitViewpoint@OTWDriverClass@@QAEXXZ$0
__unwindtable$?FindNextViewObject@OTWDriverClass@@QAEPAVSimBaseClass@@PAVFalconEntity@@PAV2@W4ViewFindMode@1@@Z DD 0ffffffffH
	DD	FLAT:__unwindfunclet$?FindNextViewObject@OTWDriverClass@@QAEPAVSimBaseClass@@PAVFalconEntity@@PAV2@W4ViewFindMode@1@@Z$0
__unwindtable$?GetGroundLevel@OTWDriverClass@@QAEMMMPAUTpoint@@@Z DD 0ffffffffH
	DD	FLAT:__unwindfunclet$?GetGroundLevel@OTWDriverClass@@QAEMMMPAUTpoint@@@Z$0
__unwindtable$?UpdateViewpoints@OTWDriverClass@@QAEXXZ DD 0ffffffffH
	DD	FLAT:__unwindfunclet$?UpdateViewpoints@OTWDriverClass@@QAEXXZ$0
__unwindtable$?FindNewOwnship@OTWDriverClass@@AAEXXZ DD 0ffffffffH
	DD	FLAT:__unwindfunclet$?FindNewOwnship@OTWDriverClass@@AAEXXZ$0
	DD	0ffffffffH
	DD	FLAT:__unwindfunclet$?FindNewOwnship@OTWDriverClass@@AAEXXZ$1
__unwindtable$?RemoveViewpoint@OTWDriverClass@@QAEXPAVFalconSessionEntity@@@Z DD 0ffffffffH
	DD	FLAT:__unwindfunclet$?RemoveViewpoint@OTWDriverClass@@QAEXPAVFalconSessionEntity@@@Z$0
	DD	00H
	DD	FLAT:__unwindfunclet$?RemoveViewpoint@OTWDriverClass@@QAEXPAVFalconSessionEntity@@@Z$1
__unwindtable$?AddViewpoint@OTWDriverClass@@QAEXPAVFalconSessionEntity@@@Z DD 0ffffffffH
	DD	FLAT:__unwindfunclet$?AddViewpoint@OTWDriverClass@@QAEXPAVFalconSessionEntity@@@Z$0
	DD	0ffffffffH
	DD	FLAT:__unwindfunclet$?AddViewpoint@OTWDriverClass@@QAEXPAVFalconSessionEntity@@@Z$1
	DD	01H
	DD	FLAT:__unwindfunclet$?AddViewpoint@OTWDriverClass@@QAEXPAVFalconSessionEntity@@@Z$2
	DD	02H
	DD	FLAT:__unwindfunclet$?AddViewpoint@OTWDriverClass@@QAEXPAVFalconSessionEntity@@@Z$3
__ehfuncinfo$?FindNewOwnship@OTWDriverClass@@AAEXXZ DD 019930522H
	DD	02H
	DD	FLAT:__unwindtable$?FindNewOwnship@OTWDriverClass@@AAEXXZ
	DD	2 DUP(00H)
	DD	2 DUP(00H)
	DD	00H
	DD	01H
__ehfuncinfo$?RunActionCamera@OTWDriverClass@@QAEXXZ DD 019930522H
	DD	01H
	DD	FLAT:__unwindtable$?RunActionCamera@OTWDriverClass@@QAEXXZ
	DD	2 DUP(00H)
	DD	2 DUP(00H)
	DD	00H
	DD	01H
__ehfuncinfo$?InitViewpoint@OTWDriverClass@@QAEXXZ DD 019930522H
	DD	01H
	DD	FLAT:__unwindtable$?InitViewpoint@OTWDriverClass@@QAEXXZ
	DD	2 DUP(00H)
	DD	2 DUP(00H)
	DD	00H
	DD	01H
__ehfuncinfo$?FindNextViewObject@OTWDriverClass@@QAEPAVSimBaseClass@@PAVFalconEntity@@PAV2@W4ViewFindMode@1@@Z DD 019930522H
	DD	01H
	DD	FLAT:__unwindtable$?FindNextViewObject@OTWDriverClass@@QAEPAVSimBaseClass@@PAVFalconEntity@@PAV2@W4ViewFindMode@1@@Z
	DD	2 DUP(00H)
	DD	2 DUP(00H)
	DD	00H
	DD	01H
__ehfuncinfo$?GetGroundLevel@OTWDriverClass@@QAEMMMPAUTpoint@@@Z DD 019930522H
	DD	01H
	DD	FLAT:__unwindtable$?GetGroundLevel@OTWDriverClass@@QAEMMMPAUTpoint@@@Z
	DD	2 DUP(00H)
	DD	2 DUP(00H)
	DD	00H
	DD	01H
__ehfuncinfo$?Enter@OTWDriverClass@@QAEXXZ DD 019930522H
	DD	03eH
	DD	FLAT:__unwindtable$?Enter@OTWDriverClass@@QAEXXZ
	DD	2 DUP(00H)
	DD	2 DUP(00H)
	DD	00H
	DD	01H
__ehfuncinfo$?RemoveViewpoint@OTWDriverClass@@QAEXPAVFalconSessionEntity@@@Z DD 019930522H
	DD	02H
	DD	FLAT:__unwindtable$?RemoveViewpoint@OTWDriverClass@@QAEXPAVFalconSessionEntity@@@Z
	DD	2 DUP(00H)
	DD	2 DUP(00H)
	DD	00H
	DD	01H
__ehfuncinfo$?AddViewpoint@OTWDriverClass@@QAEXPAVFalconSessionEntity@@@Z DD 019930522H
	DD	04H
	DD	FLAT:__unwindtable$?AddViewpoint@OTWDriverClass@@QAEXPAVFalconSessionEntity@@@Z
	DD	2 DUP(00H)
	DD	2 DUP(00H)
	DD	00H
	DD	01H
__ehfuncinfo$?UpdateViewpoints@OTWDriverClass@@QAEXXZ DD 019930522H
	DD	01H
	DD	FLAT:__unwindtable$?UpdateViewpoints@OTWDriverClass@@QAEXXZ
	DD	2 DUP(00H)
	DD	2 DUP(00H)
	DD	00H
	DD	01H
__ehfuncinfo$??1OTWDriverClass@@QAE@XZ DD 019930522H
	DD	05H
	DD	FLAT:__unwindtable$??1OTWDriverClass@@QAE@XZ
	DD	2 DUP(00H)
	DD	2 DUP(00H)
	DD	00H
	DD	01H
__ehfuncinfo$??0OTWDriverClass@@QAE@XZ DD 019930522H
	DD	08H
	DD	FLAT:__unwindtable$??0OTWDriverClass@@QAE@XZ
	DD	2 DUP(00H)
	DD	2 DUP(00H)
	DD	00H
	DD	01H
__unwindtable$??1OTWDriverClass@@QAE@XZ DD 0ffffffffH
	DD	FLAT:__unwindfunclet$??1OTWDriverClass@@QAE@XZ$0
	DD	00H
	DD	FLAT:__unwindfunclet$??1OTWDriverClass@@QAE@XZ$1
	DD	01H
	DD	FLAT:__unwindfunclet$??1OTWDriverClass@@QAE@XZ$2
	DD	02H
	DD	FLAT:__unwindfunclet$??1OTWDriverClass@@QAE@XZ$3
	DD	03H
	DD	FLAT:__unwindfunclet$??1OTWDriverClass@@QAE@XZ$4
__unwindtable$??0OTWDriverClass@@QAE@XZ DD 0ffffffffH
	DD	FLAT:__unwindfunclet$??0OTWDriverClass@@QAE@XZ$0
	DD	00H
	DD	FLAT:__unwindfunclet$??0OTWDriverClass@@QAE@XZ$1
	DD	01H
	DD	FLAT:__unwindfunclet$??0OTWDriverClass@@QAE@XZ$2
	DD	02H
	DD	FLAT:__unwindfunclet$??0OTWDriverClass@@QAE@XZ$3
	DD	03H
	DD	FLAT:__unwindfunclet$??0OTWDriverClass@@QAE@XZ$4
	DD	04H
	DD	FLAT:__unwindfunclet$??0OTWDriverClass@@QAE@XZ$5
	DD	04H
	DD	FLAT:__unwindfunclet$??0OTWDriverClass@@QAE@XZ$6
	DD	04H
	DD	FLAT:__unwindfunclet$??0OTWDriverClass@@QAE@XZ$7
__unwindtable$?Enter@OTWDriverClass@@QAEXXZ DD 0ffffffffH
	DD	FLAT:__unwindfunclet$?Enter@OTWDriverClass@@QAEXXZ$0
	DD	0ffffffffH
	DD	FLAT:__unwindfunclet$?Enter@OTWDriverClass@@QAEXXZ$1
	DD	0ffffffffH
	DD	FLAT:__unwindfunclet$?Enter@OTWDriverClass@@QAEXXZ$2
	DD	0ffffffffH
	DD	FLAT:__unwindfunclet$?Enter@OTWDriverClass@@QAEXXZ$3
	DD	0ffffffffH
	DD	FLAT:__unwindfunclet$?Enter@OTWDriverClass@@QAEXXZ$4
	DD	0ffffffffH
	DD	FLAT:__unwindfunclet$?Enter@OTWDriverClass@@QAEXXZ$5
	DD	0ffffffffH
	DD	FLAT:__unwindfunclet$?Enter@OTWDriverClass@@QAEXXZ$6
	DD	0ffffffffH
	DD	FLAT:__unwindfunclet$?Enter@OTWDriverClass@@QAEXXZ$7
	DD	0ffffffffH
	DD	FLAT:__unwindfunclet$?Enter@OTWDriverClass@@QAEXXZ$8
	DD	0ffffffffH
	DD	FLAT:__unwindfunclet$?Enter@OTWDriverClass@@QAEXXZ$9
	DD	0ffffffffH
	DD	FLAT:__unwindfunclet$?Enter@OTWDriverClass@@QAEXXZ$10
	DD	0ffffffffH
	DD	FLAT:__unwindfunclet$?Enter@OTWDriverClass@@QAEXXZ$11
	DD	0ffffffffH
	DD	FLAT:__unwindfunclet$?Enter@OTWDriverClass@@QAEXXZ$12
	DD	0ffffffffH
	DD	FLAT:__unwindfunclet$?Enter@OTWDriverClass@@QAEXXZ$13
	DD	0ffffffffH
	DD	FLAT:__unwindfunclet$?Enter@OTWDriverClass@@QAEXXZ$14
	DD	0ffffffffH
	DD	FLAT:__unwindfunclet$?Enter@OTWDriverClass@@QAEXXZ$15
	DD	0ffffffffH
	DD	FLAT:__unwindfunclet$?Enter@OTWDriverClass@@QAEXXZ$16
	DD	0ffffffffH
	DD	FLAT:__unwindfunclet$?Enter@OTWDriverClass@@QAEXXZ$17
	DD	0ffffffffH
	DD	FLAT:__unwindfunclet$?Enter@OTWDriverClass@@QAEXXZ$18
	DD	0ffffffffH
	DD	FLAT:__unwindfunclet$?Enter@OTWDriverClass@@QAEXXZ$19
	DD	0ffffffffH
	DD	FLAT:__unwindfunclet$?Enter@OTWDriverClass@@QAEXXZ$20
	DD	0ffffffffH
	DD	FLAT:__unwindfunclet$?Enter@OTWDriverClass@@QAEXXZ$21
	DD	0ffffffffH
	DD	FLAT:__unwindfunclet$?Enter@OTWDriverClass@@QAEXXZ$22
	DD	0ffffffffH
	DD	FLAT:__unwindfunclet$?Enter@OTWDriverClass@@QAEXXZ$23
	DD	0ffffffffH
	DD	FLAT:__unwindfunclet$?Enter@OTWDriverClass@@QAEXXZ$24
	DD	0ffffffffH
	DD	FLAT:__unwindfunclet$?Enter@OTWDriverClass@@QAEXXZ$25
	DD	0ffffffffH
	DD	FLAT:__unwindfunclet$?Enter@OTWDriverClass@@QAEXXZ$26
	DD	0ffffffffH
	DD	FLAT:__unwindfunclet$?Enter@OTWDriverClass@@QAEXXZ$27
	DD	0ffffffffH
	DD	FLAT:__unwindfunclet$?Enter@OTWDriverClass@@QAEXXZ$28
	DD	0ffffffffH
	DD	FLAT:__unwindfunclet$?Enter@OTWDriverClass@@QAEXXZ$29
	DD	0ffffffffH
	DD	FLAT:__unwindfunclet$?Enter@OTWDriverClass@@QAEXXZ$30
	DD	0ffffffffH
	DD	FLAT:__unwindfunclet$?Enter@OTWDriverClass@@QAEXXZ$31
	DD	0ffffffffH
	DD	FLAT:__unwindfunclet$?Enter@OTWDriverClass@@QAEXXZ$32
	DD	0ffffffffH
	DD	FLAT:__unwindfunclet$?Enter@OTWDriverClass@@QAEXXZ$33
	DD	0ffffffffH
	DD	FLAT:__unwindfunclet$?Enter@OTWDriverClass@@QAEXXZ$34
	DD	0ffffffffH
	DD	FLAT:__unwindfunclet$?Enter@OTWDriverClass@@QAEXXZ$35
	DD	0ffffffffH
	DD	FLAT:__unwindfunclet$?Enter@OTWDriverClass@@QAEXXZ$36
	DD	0ffffffffH
	DD	FLAT:__unwindfunclet$?Enter@OTWDriverClass@@QAEXXZ$37
	DD	0ffffffffH
	DD	FLAT:__unwindfunclet$?Enter@OTWDriverClass@@QAEXXZ$38
	DD	0ffffffffH
	DD	FLAT:__unwindfunclet$?Enter@OTWDriverClass@@QAEXXZ$39
	DD	0ffffffffH
	DD	FLAT:__unwindfunclet$?Enter@OTWDriverClass@@QAEXXZ$40
	DD	0ffffffffH
	DD	FLAT:__unwindfunclet$?Enter@OTWDriverClass@@QAEXXZ$41
	DD	0ffffffffH
	DD	FLAT:__unwindfunclet$?Enter@OTWDriverClass@@QAEXXZ$42
	DD	0ffffffffH
	DD	FLAT:__unwindfunclet$?Enter@OTWDriverClass@@QAEXXZ$43
	DD	0ffffffffH
	DD	FLAT:__unwindfunclet$?Enter@OTWDriverClass@@QAEXXZ$44
	DD	0ffffffffH
	DD	FLAT:__unwindfunclet$?Enter@OTWDriverClass@@QAEXXZ$45
	DD	0ffffffffH
	DD	FLAT:__unwindfunclet$?Enter@OTWDriverClass@@QAEXXZ$46
	DD	0ffffffffH
	DD	FLAT:__unwindfunclet$?Enter@OTWDriverClass@@QAEXXZ$47
	DD	0ffffffffH
	DD	FLAT:__unwindfunclet$?Enter@OTWDriverClass@@QAEXXZ$48
	DD	0ffffffffH
	DD	FLAT:__unwindfunclet$?Enter@OTWDriverClass@@QAEXXZ$49
	DD	0ffffffffH
	DD	FLAT:__unwindfunclet$?Enter@OTWDriverClass@@QAEXXZ$50
	DD	0ffffffffH
	DD	FLAT:__unwindfunclet$?Enter@OTWDriverClass@@QAEXXZ$51
	DD	0ffffffffH
	DD	FLAT:__unwindfunclet$?Enter@OTWDriverClass@@QAEXXZ$52
	DD	0ffffffffH
	DD	FLAT:__unwindfunclet$?Enter@OTWDriverClass@@QAEXXZ$53
	DD	0ffffffffH
	DD	FLAT:__unwindfunclet$?Enter@OTWDriverClass@@QAEXXZ$54
	DD	0ffffffffH
	DD	FLAT:__unwindfunclet$?Enter@OTWDriverClass@@QAEXXZ$55
	DD	0ffffffffH
	DD	FLAT:__unwindfunclet$?Enter@OTWDriverClass@@QAEXXZ$56
	DD	0ffffffffH
	DD	FLAT:__unwindfunclet$?Enter@OTWDriverClass@@QAEXXZ$57
	DD	0ffffffffH
	DD	FLAT:__unwindfunclet$?Enter@OTWDriverClass@@QAEXXZ$58
	DD	0ffffffffH
	DD	FLAT:__unwindfunclet$?Enter@OTWDriverClass@@QAEXXZ$59
	DD	0ffffffffH
	DD	FLAT:__unwindfunclet$?Enter@OTWDriverClass@@QAEXXZ$60
	DD	0ffffffffH
	DD	FLAT:__unwindfunclet$?Enter@OTWDriverClass@@QAEXXZ$61
xdata$x	ENDS
;	COMDAT xdata$x
xdata$x	SEGMENT
__catchsym$?_Copy@?$basic_string@DU?$char_traits@D@std@@V?$allocator@D@2@@std@@QAEXII@Z$5 DD 040H
	DD	00H
	DD	00H
	DD	FLAT:__catch$?_Copy@?$basic_string@DU?$char_traits@D@std@@V?$allocator@D@2@@std@@QAEXII@Z$0
__catchsym$?_Copy@?$basic_string@DU?$char_traits@D@std@@V?$allocator@D@2@@std@@QAEXII@Z$4 DD 040H
	DD	00H
	DD	00H
	DD	FLAT:__catch$?_Copy@?$basic_string@DU?$char_traits@D@std@@V?$allocator@D@2@@std@@QAEXII@Z$1
__unwindtable$?_Copy@?$basic_string@DU?$char_traits@D@std@@V?$allocator@D@2@@std@@QAEXII@Z DD 0ffffffffH
	DD	00H
	DD	0ffffffffH
	DD	00H
	DD	01H
	DD	00H
	DD	01H
	DD	00H
__ehfuncinfo$?_Copy@?$basic_string@DU?$char_traits@D@std@@V?$allocator@D@2@@std@@QAEXII@Z DD 019930522H
	DD	04H
	DD	FLAT:__unwindtable$?_Copy@?$basic_string@DU?$char_traits@D@std@@V?$allocator@D@2@@std@@QAEXII@Z
	DD	02H
	DD	FLAT:__tryblocktable$?_Copy@?$basic_string@DU?$char_traits@D@std@@V?$allocator@D@2@@std@@QAEXII@Z
	DD	2 DUP(00H)
	DD	00H
	DD	01H
__tryblocktable$?_Copy@?$basic_string@DU?$char_traits@D@std@@V?$allocator@D@2@@std@@QAEXII@Z DD 02H
	DD	02H
	DD	03H
	DD	01H
	DD	FLAT:__catchsym$?_Copy@?$basic_string@DU?$char_traits@D@std@@V?$allocator@D@2@@std@@QAEXII@Z$4
	DD	00H
	DD	00H
	DD	03H
	DD	01H
	DD	FLAT:__catchsym$?_Copy@?$basic_string@DU?$char_traits@D@std@@V?$allocator@D@2@@std@@QAEXII@Z$5
xdata$x	ENDS
CRT$XCU	SEGMENT
_allocator_arg$initializer$ DD FLAT:??__Eallocator_arg@std@@YAXXZ
CRT$XCU	ENDS
CRT$XCU	SEGMENT
_VirtualMFD$initializer$ DD FLAT:??__EVirtualMFD@@YAXXZ
CRT$XCU	ENDS
CRT$XCU	SEGMENT
_OTWDriver$initializer$ DD FLAT:??__EOTWDriver@@YAXXZ
CRT$XCU	ENDS
CRT$XCU	SEGMENT
_g_intellivibeData$initializer$ DD FLAT:??__Eg_intellivibeData@@YAXXZ
CRT$XCU	ENDS
;	COMDAT CRT$XCU
CRT$XCU	SEGMENT
?_Generic_object$initializer$@?$_Error_objects@H@std@@2P6AXXZA DD FLAT:??__E?_Generic_object@?$_Error_objects@H@std@@2V_Generic_error_category@2@A@@YAXXZ ; std::_Error_objects<int>::_Generic_object$initializer$
CRT$XCU	ENDS
;	COMDAT CRT$XCU
CRT$XCU	SEGMENT
?_Iostream_object$initializer$@?$_Error_objects@H@std@@2P6AXXZA DD FLAT:??__E?_Iostream_object@?$_Error_objects@H@std@@2V_Iostream_error_category@2@A@@YAXXZ ; std::_Error_objects<int>::_Iostream_object$initializer$
CRT$XCU	ENDS
;	COMDAT CRT$XCU
CRT$XCU	SEGMENT
?_System_object$initializer$@?$_Error_objects@H@std@@2P6AXXZA DD FLAT:??__E?_System_object@?$_Error_objects@H@std@@2V_System_error_category@2@A@@YAXXZ ; std::_Error_objects<int>::_System_object$initializer$
CRT$XCU	ENDS
;	COMDAT CRT$XCU
CRT$XCU	SEGMENT
?id$initializer$@?$num_put@DV?$back_insert_iterator@V?$basic_string@DU?$char_traits@D@std@@V?$allocator@D@2@@std@@@std@@@std@@2P6AXXZA DD FLAT:??__E?id@?$num_put@DV?$back_insert_iterator@V?$basic_string@DU?$char_traits@D@std@@V?$allocator@D@2@@std@@@std@@@std@@2V0locale@2@A@@YAXXZ ; std::num_put<char,std::back_insert_iterator<std::basic_string<char,std::char_traits<char>,std::allocator<char> > > >::id$initializer$
CRT$XCU	ENDS
;	COMDAT CRT$XCU
CRT$XCU	SEGMENT
?id$initializer$@?$num_put@_WV?$back_insert_iterator@V?$basic_string@_WU?$char_traits@_W@std@@V?$allocator@_W@2@@std@@@std@@@std@@2P6AXXZA DD FLAT:??__E?id@?$num_put@_WV?$back_insert_iterator@V?$basic_string@_WU?$char_traits@_W@std@@V?$allocator@_W@2@@std@@@std@@@std@@2V0locale@2@A@@YAXXZ ; std::num_put<wchar_t,std::back_insert_iterator<std::basic_string<wchar_t,std::char_traits<wchar_t>,std::allocator<wchar_t> > > >::id$initializer$
CRT$XCU	ENDS
;	COMDAT CRT$XCU
CRT$XCU	SEGMENT
?id$initializer$@?$numpunct@D@std@@2P6AXXZA DD FLAT:??__E?id@?$numpunct@D@std@@2V0locale@2@A@@YAXXZ ; std::numpunct<char>::id$initializer$
CRT$XCU	ENDS
;	COMDAT CRT$XCU
CRT$XCU	SEGMENT
?id$initializer$@?$numpunct@_W@std@@2P6AXXZA DD FLAT:??__E?id@?$numpunct@_W@std@@2V0locale@2@A@@YAXXZ ; std::numpunct<wchar_t>::id$initializer$
CRT$XCU	ENDS
; Function compile flags: /Odtp
; File c:\program files (x86)\microsoft visual studio 11.0\vc\include\xmemory0
;	COMDAT ??$construct@U?$pair@$$CBV?$VuBin@VFalconSessionEntity@@@@PAVTViewPoint@@@std@@U?$pair@V?$VuBin@VFalconSessionEntity@@@@PAVTViewPoint@@@2@@?$allocator@U?$_Tree_node@U?$pair@$$CBV?$VuBin@VFalconSessionEntity@@@@PAVTViewPoint@@@std@@PAX@std@@@std@@QAEXPAU?$pair@$$CBV?$VuBin@VFalconSessionEntity@@@@PAVTViewPoint@@@1@$$QAU?$pair@V?$VuBin@VFalconSessionEntity@@@@PAVTViewPoint@@@1@@Z
_TEXT	SEGMENT
$T2 = -28						; size = 4
_this$ = -24						; size = 4
tv77 = -20						; size = 4
$T3 = -16						; size = 4
__$EHRec$ = -12						; size = 12
__Ptr$ = 8						; size = 4
__V0$ = 12						; size = 4
??$construct@U?$pair@$$CBV?$VuBin@VFalconSessionEntity@@@@PAVTViewPoint@@@std@@U?$pair@V?$VuBin@VFalconSessionEntity@@@@PAVTViewPoint@@@2@@?$allocator@U?$_Tree_node@U?$pair@$$CBV?$VuBin@VFalconSessionEntity@@@@PAVTViewPoint@@@std@@PAX@std@@@std@@QAEXPAU?$pair@$$CBV?$VuBin@VFalconSessionEntity@@@@PAVTViewPoint@@@1@$$QAU?$pair@V?$VuBin@VFalconSessionEntity@@@@PAVTViewPoint@@@1@@Z PROC ; std::allocator<std::_Tree_node<std::pair<VuBin<FalconSessionEntity> const ,TViewPoint *>,void *> >::construct<std::pair<VuBin<FalconSessionEntity> const ,TViewPoint *>,std::pair<VuBin<FalconSessionEntity>,TViewPoint *> >, COMDAT
; _this$ = ecx

; 617  : _VARIADIC_EXPAND_0X(_ALLOC_MEMBER_CONSTRUCT, , , , )

	push	ebp
	mov	ebp, esp
	push	-1
	push	__ehhandler$??$construct@U?$pair@$$CBV?$VuBin@VFalconSessionEntity@@@@PAVTViewPoint@@@std@@U?$pair@V?$VuBin@VFalconSessionEntity@@@@PAVTViewPoint@@@2@@?$allocator@U?$_Tree_node@U?$pair@$$CBV?$VuBin@VFalconSessionEntity@@@@PAVTViewPoint@@@std@@PAX@std@@@std@@QAEXPAU?$pair@$$CBV?$VuBin@VFalconSessionEntity@@@@PAVTViewPoint@@@1@$$QAU?$pair@V?$VuBin@VFalconSessionEntity@@@@PAVTViewPoint@@@1@@Z
	mov	eax, DWORD PTR fs:0
	push	eax
	sub	esp, 16					; 00000010H
	mov	eax, DWORD PTR ___security_cookie
	xor	eax, ebp
	push	eax
	lea	eax, DWORD PTR __$EHRec$[ebp]
	mov	DWORD PTR fs:0, eax
	mov	DWORD PTR _this$[ebp], ecx
	mov	eax, DWORD PTR __Ptr$[ebp]
	push	eax
	push	8
	call	??2@YAPAXIPAX@Z				; operator new
	add	esp, 8
	mov	DWORD PTR $T3[ebp], eax
	mov	DWORD PTR __$EHRec$[ebp+8], 0
	cmp	DWORD PTR $T3[ebp], 0
	je	SHORT $LN3@construct
	push	0
	mov	ecx, DWORD PTR __V0$[ebp]
	push	ecx
	call	??$forward@U?$pair@V?$VuBin@VFalconSessionEntity@@@@PAVTViewPoint@@@std@@@std@@YA$$QAU?$pair@V?$VuBin@VFalconSessionEntity@@@@PAVTViewPoint@@@0@AAU10@@Z ; std::forward<std::pair<VuBin<FalconSessionEntity>,TViewPoint *> >
	add	esp, 4
	push	eax
	mov	ecx, DWORD PTR $T3[ebp]
	call	??$?0V?$VuBin@VFalconSessionEntity@@@@PAVTViewPoint@@@?$pair@$$CBV?$VuBin@VFalconSessionEntity@@@@PAVTViewPoint@@@std@@QAE@$$QAU?$pair@V?$VuBin@VFalconSessionEntity@@@@PAVTViewPoint@@@1@PAPAX@Z ; std::pair<VuBin<FalconSessionEntity> const ,TViewPoint *>::pair<VuBin<FalconSessionEntity> const ,TViewPoint *><VuBin<FalconSessionEntity>,TViewPoint *>
	mov	DWORD PTR tv77[ebp], eax
	jmp	SHORT $LN4@construct
$LN3@construct:
	mov	DWORD PTR tv77[ebp], 0
$LN4@construct:
	mov	edx, DWORD PTR tv77[ebp]
	mov	DWORD PTR $T2[ebp], edx
	mov	DWORD PTR __$EHRec$[ebp+8], -1
	mov	ecx, DWORD PTR __$EHRec$[ebp]
	mov	DWORD PTR fs:0, ecx
	pop	ecx
	mov	esp, ebp
	pop	ebp
	ret	8
_TEXT	ENDS
;	COMDAT text$x
text$x	SEGMENT
__unwindfunclet$??$construct@U?$pair@$$CBV?$VuBin@VFalconSessionEntity@@@@PAVTViewPoint@@@std@@U?$pair@V?$VuBin@VFalconSessionEntity@@@@PAVTViewPoint@@@2@@?$allocator@U?$_Tree_node@U?$pair@$$CBV?$VuBin@VFalconSessionEntity@@@@PAVTViewPoint@@@std@@PAX@std@@@std@@QAEXPAU?$pair@$$CBV?$VuBin@VFalconSessionEntity@@@@PAVTViewPoint@@@1@$$QAU?$pair@V?$VuBin@VFalconSessionEntity@@@@PAVTViewPoint@@@1@@Z$0:
	mov	eax, DWORD PTR __Ptr$[ebp]
	push	eax
	mov	eax, DWORD PTR $T3[ebp]
	push	eax
	call	??3@YAXPAX0@Z				; operator delete
	add	esp, 8
	ret	0
__ehhandler$??$construct@U?$pair@$$CBV?$VuBin@VFalconSessionEntity@@@@PAVTViewPoint@@@std@@U?$pair@V?$VuBin@VFalconSessionEntity@@@@PAVTViewPoint@@@2@@?$allocator@U?$_Tree_node@U?$pair@$$CBV?$VuBin@VFalconSessionEntity@@@@PAVTViewPoint@@@std@@PAX@std@@@std@@QAEXPAU?$pair@$$CBV?$VuBin@VFalconSessionEntity@@@@PAVTViewPoint@@@1@$$QAU?$pair@V?$VuBin@VFalconSessionEntity@@@@PAVTViewPoint@@@1@@Z:
	mov	edx, DWORD PTR [esp+8]
	lea	eax, DWORD PTR [edx+12]
	mov	ecx, DWORD PTR [edx-20]
	xor	ecx, eax
	call	@__security_check_cookie@4
	mov	eax, OFFSET __ehfuncinfo$??$construct@U?$pair@$$CBV?$VuBin@VFalconSessionEntity@@@@PAVTViewPoint@@@std@@U?$pair@V?$VuBin@VFalconSessionEntity@@@@PAVTViewPoint@@@2@@?$allocator@U?$_Tree_node@U?$pair@$$CBV?$VuBin@VFalconSessionEntity@@@@PAVTViewPoint@@@std@@PAX@std@@@std@@QAEXPAU?$pair@$$CBV?$VuBin@VFalconSessionEntity@@@@PAVTViewPoint@@@1@$$QAU?$pair@V?$VuBin@VFalconSessionEntity@@@@PAVTViewPoint@@@1@@Z
	jmp	___CxxFrameHandler3
text$x	ENDS
??$construct@U?$pair@$$CBV?$VuBin@VFalconSessionEntity@@@@PAVTViewPoint@@@std@@U?$pair@V?$VuBin@VFalconSessionEntity@@@@PAVTViewPoint@@@2@@?$allocator@U?$_Tree_node@U?$pair@$$CBV?$VuBin@VFalconSessionEntity@@@@PAVTViewPoint@@@std@@PAX@std@@@std@@QAEXPAU?$pair@$$CBV?$VuBin@VFalconSessionEntity@@@@PAVTViewPoint@@@1@$$QAU?$pair@V?$VuBin@VFalconSessionEntity@@@@PAVTViewPoint@@@1@@Z ENDP ; std::allocator<std::_Tree_node<std::pair<VuBin<FalconSessionEntity> const ,TViewPoint *>,void *> >::construct<std::pair<VuBin<FalconSessionEntity> const ,TViewPoint *>,std::pair<VuBin<FalconSessionEntity>,TViewPoint *> >
; Function compile flags: /Odtp
; File c:\program files (x86)\microsoft visual studio 11.0\vc\include\type_traits
;	COMDAT ??$forward@AAV?$_Tree_iterator@V?$_Tree_val@U?$_Tree_simple_types@U?$pair@$$CBV?$VuBin@VFalconSessionEntity@@@@PAVTViewPoint@@@std@@@std@@@std@@@std@@@std@@YAAAV?$_Tree_iterator@V?$_Tree_val@U?$_Tree_simple_types@U?$pair@$$CBV?$VuBin@VFalconSessionEntity@@@@PAVTViewPoint@@@std@@@std@@@std@@@0@AAV10@@Z
_TEXT	SEGMENT
__Arg$ = 8						; size = 4
??$forward@AAV?$_Tree_iterator@V?$_Tree_val@U?$_Tree_simple_types@U?$pair@$$CBV?$VuBin@VFalconSessionEntity@@@@PAVTViewPoint@@@std@@@std@@@std@@@std@@@std@@YAAAV?$_Tree_iterator@V?$_Tree_val@U?$_Tree_simple_types@U?$pair@$$CBV?$VuBin@VFalconSessionEntity@@@@PAVTViewPoint@@@std@@@std@@@std@@@0@AAV10@@Z PROC ; std::forward<std::_Tree_iterator<std::_Tree_val<std::_Tree_simple_types<std::pair<VuBin<FalconSessionEntity> const ,TViewPoint *> > > > &>, COMDAT

; 1775 : 	{	// forward an lvalue

	push	ebp
	mov	ebp, esp

; 1776 : 	return (static_cast<_Ty&&>(_Arg));

	mov	eax, DWORD PTR __Arg$[ebp]

; 1777 : 	}

	pop	ebp
	ret	0
??$forward@AAV?$_Tree_iterator@V?$_Tree_val@U?$_Tree_simple_types@U?$pair@$$CBV?$VuBin@VFalconSessionEntity@@@@PAVTViewPoint@@@std@@@std@@@std@@@std@@@std@@YAAAV?$_Tree_iterator@V?$_Tree_val@U?$_Tree_simple_types@U?$pair@$$CBV?$VuBin@VFalconSessionEntity@@@@PAVTViewPoint@@@std@@@std@@@std@@@0@AAV10@@Z ENDP ; std::forward<std::_Tree_iterator<std::_Tree_val<std::_Tree_simple_types<std::pair<VuBin<FalconSessionEntity> const ,TViewPoint *> > > > &>
_TEXT	ENDS
; Function compile flags: /Odtp
; File c:\program files (x86)\microsoft visual studio 11.0\vc\include\xtree
;	COMDAT ??$_Buynode_if_nil@AAU?$pair@$$CBV?$VuBin@VFalconSessionEntity@@@@PAVTViewPoint@@@std@@@?$_Tree@V?$_Tmap_traits@V?$VuBin@VFalconSessionEntity@@@@PAVTViewPoint@@U?$less@V?$VuBin@VFalconSessionEntity@@@@@std@@V?$allocator@U?$pair@$$CBV?$VuBin@VFalconSessionEntity@@@@PAVTViewPoint@@@std@@@4@$0A@@std@@@std@@IAEPAU?$_Tree_node@U?$pair@$$CBV?$VuBin@VFalconSessionEntity@@@@PAVTViewPoint@@@std@@PAX@1@PAU21@AAU?$pair@$$CBV?$VuBin@VFalconSessionEntity@@@@PAVTViewPoint@@@1@@Z
_TEXT	SEGMENT
_this$ = -4						; size = 4
__Node$ = 8						; size = 4
___formal$ = 12						; size = 4
??$_Buynode_if_nil@AAU?$pair@$$CBV?$VuBin@VFalconSessionEntity@@@@PAVTViewPoint@@@std@@@?$_Tree@V?$_Tmap_traits@V?$VuBin@VFalconSessionEntity@@@@PAVTViewPoint@@U?$less@V?$VuBin@VFalconSessionEntity@@@@@std@@V?$allocator@U?$pair@$$CBV?$VuBin@VFalconSessionEntity@@@@PAVTViewPoint@@@std@@@4@$0A@@std@@@std@@IAEPAU?$_Tree_node@U?$pair@$$CBV?$VuBin@VFalconSessionEntity@@@@PAVTViewPoint@@@std@@PAX@1@PAU21@AAU?$pair@$$CBV?$VuBin@VFalconSessionEntity@@@@PAVTViewPoint@@@1@@Z PROC ; std::_Tree<std::_Tmap_traits<VuBin<FalconSessionEntity>,TViewPoint *,std::less<VuBin<FalconSessionEntity> >,std::allocator<std::pair<VuBin<FalconSessionEntity> const ,TViewPoint *> >,0> >::_Buynode_if_nil<std::pair<VuBin<FalconSessionEntity> const ,TViewPoint *> &>, COMDAT
; _this$ = ecx

; 1639 : 		_Nodeptr _Buynode_if_nil(_Nodeptr _Node, _Valty&&)

	push	ebp
	mov	ebp, esp
	push	ecx
	mov	DWORD PTR _this$[ebp], ecx

; 1640 : 		{	// node exists, just return it
; 1641 : 		return (_Node);

	mov	eax, DWORD PTR __Node$[ebp]

; 1642 : 		}

	mov	esp, ebp
	pop	ebp
	ret	8
??$_Buynode_if_nil@AAU?$pair@$$CBV?$VuBin@VFalconSessionEntity@@@@PAVTViewPoint@@@std@@@?$_Tree@V?$_Tmap_traits@V?$VuBin@VFalconSessionEntity@@@@PAVTViewPoint@@U?$less@V?$VuBin@VFalconSessionEntity@@@@@std@@V?$allocator@U?$pair@$$CBV?$VuBin@VFalconSessionEntity@@@@PAVTViewPoint@@@std@@@4@$0A@@std@@@std@@IAEPAU?$_Tree_node@U?$pair@$$CBV?$VuBin@VFalconSessionEntity@@@@PAVTViewPoint@@@std@@PAX@1@PAU21@AAU?$pair@$$CBV?$VuBin@VFalconSessionEntity@@@@PAVTViewPoint@@@1@@Z ENDP ; std::_Tree<std::_Tmap_traits<VuBin<FalconSessionEntity>,TViewPoint *,std::less<VuBin<FalconSessionEntity> >,std::allocator<std::pair<VuBin<FalconSessionEntity> const ,TViewPoint *> >,0> >::_Buynode_if_nil<std::pair<VuBin<FalconSessionEntity> const ,TViewPoint *> &>
_TEXT	ENDS
; Function compile flags: /Odtp
; File c:\program files (x86)\microsoft visual studio 11.0\vc\include\xmemory0
;	COMDAT ??$construct@U?$pair@$$CBV?$VuBin@VFalconSessionEntity@@@@PAVTViewPoint@@@std@@U?$pair@V?$VuBin@VFalconSessionEntity@@@@PAVTViewPoint@@@2@@?$allocator_traits@V?$allocator@U?$_Tree_node@U?$pair@$$CBV?$VuBin@VFalconSessionEntity@@@@PAVTViewPoint@@@std@@PAX@std@@@std@@@std@@SAXAAV?$allocator@U?$_Tree_node@U?$pair@$$CBV?$VuBin@VFalconSessionEntity@@@@PAVTViewPoint@@@std@@PAX@std@@@1@PAU?$pair@$$CBV?$VuBin@VFalconSessionEntity@@@@PAVTViewPoint@@@1@$$QAU?$pair@V?$VuBin@VFalconSessionEntity@@@@PAVTViewPoint@@@1@@Z
_TEXT	SEGMENT
__Al$ = 8						; size = 4
__Ptr$ = 12						; size = 4
__V0$ = 16						; size = 4
??$construct@U?$pair@$$CBV?$VuBin@VFalconSessionEntity@@@@PAVTViewPoint@@@std@@U?$pair@V?$VuBin@VFalconSessionEntity@@@@PAVTViewPoint@@@2@@?$allocator_traits@V?$allocator@U?$_Tree_node@U?$pair@$$CBV?$VuBin@VFalconSessionEntity@@@@PAVTViewPoint@@@std@@PAX@std@@@std@@@std@@SAXAAV?$allocator@U?$_Tree_node@U?$pair@$$CBV?$VuBin@VFalconSessionEntity@@@@PAVTViewPoint@@@std@@PAX@std@@@1@PAU?$pair@$$CBV?$VuBin@VFalconSessionEntity@@@@PAVTViewPoint@@@1@$$QAU?$pair@V?$VuBin@VFalconSessionEntity@@@@PAVTViewPoint@@@1@@Z PROC ; std::allocator_traits<std::allocator<std::_Tree_node<std::pair<VuBin<FalconSessionEntity> const ,TViewPoint *>,void *> > >::construct<std::pair<VuBin<FalconSessionEntity> const ,TViewPoint *>,std::pair<VuBin<FalconSessionEntity>,TViewPoint *> >, COMDAT

; 751  : _VARIADIC_EXPAND_0X(_ALLOC_TRAITS_SPECIAL_CONSTRUCT, , , , )

	push	ebp
	mov	ebp, esp
	mov	eax, DWORD PTR __V0$[ebp]
	push	eax
	call	??$forward@U?$pair@V?$VuBin@VFalconSessionEntity@@@@PAVTViewPoint@@@std@@@std@@YA$$QAU?$pair@V?$VuBin@VFalconSessionEntity@@@@PAVTViewPoint@@@0@AAU10@@Z ; std::forward<std::pair<VuBin<FalconSessionEntity>,TViewPoint *> >
	add	esp, 4
	push	eax
	mov	ecx, DWORD PTR __Ptr$[ebp]
	push	ecx
	mov	ecx, DWORD PTR __Al$[ebp]
	call	??$construct@U?$pair@$$CBV?$VuBin@VFalconSessionEntity@@@@PAVTViewPoint@@@std@@U?$pair@V?$VuBin@VFalconSessionEntity@@@@PAVTViewPoint@@@2@@?$allocator@U?$_Tree_node@U?$pair@$$CBV?$VuBin@VFalconSessionEntity@@@@PAVTViewPoint@@@std@@PAX@std@@@std@@QAEXPAU?$pair@$$CBV?$VuBin@VFalconSessionEntity@@@@PAVTViewPoint@@@1@$$QAU?$pair@V?$VuBin@VFalconSessionEntity@@@@PAVTViewPoint@@@1@@Z ; std::allocator<std::_Tree_node<std::pair<VuBin<FalconSessionEntity> const ,TViewPoint *>,void *> >::construct<std::pair<VuBin<FalconSessionEntity> const ,TViewPoint *>,std::pair<VuBin<FalconSessionEntity>,TViewPoint *> >
	pop	ebp
	ret	0
??$construct@U?$pair@$$CBV?$VuBin@VFalconSessionEntity@@@@PAVTViewPoint@@@std@@U?$pair@V?$VuBin@VFalconSessionEntity@@@@PAVTViewPoint@@@2@@?$allocator_traits@V?$allocator@U?$_Tree_node@U?$pair@$$CBV?$VuBin@VFalconSessionEntity@@@@PAVTViewPoint@@@std@@PAX@std@@@std@@@std@@SAXAAV?$allocator@U?$_Tree_node@U?$pair@$$CBV?$VuBin@VFalconSessionEntity@@@@PAVTViewPoint@@@std@@PAX@std@@@1@PAU?$pair@$$CBV?$VuBin@VFalconSessionEntity@@@@PAVTViewPoint@@@1@$$QAU?$pair@V?$VuBin@VFalconSessionEntity@@@@PAVTViewPoint@@@1@@Z ENDP ; std::allocator_traits<std::allocator<std::_Tree_node<std::pair<VuBin<FalconSessionEntity> const ,TViewPoint *>,void *> > >::construct<std::pair<VuBin<FalconSessionEntity> const ,TViewPoint *>,std::pair<VuBin<FalconSessionEntity>,TViewPoint *> >
_TEXT	ENDS
; Function compile flags: /Odtp
; File c:\program files (x86)\microsoft visual studio 11.0\vc\include\xmemory0
;	COMDAT ??$construct@PAU?$_Tree_node@U?$pair@$$CBV?$VuBin@VFalconSessionEntity@@@@PAVTViewPoint@@@std@@PAX@std@@AAPAU12@@?$allocator@U?$_Tree_node@U?$pair@$$CBV?$VuBin@VFalconSessionEntity@@@@PAVTViewPoint@@@std@@PAX@std@@@std@@QAEXPAPAU?$_Tree_node@U?$pair@$$CBV?$VuBin@VFalconSessionEntity@@@@PAVTViewPoint@@@std@@PAX@1@AAPAU21@@Z
_TEXT	SEGMENT
$T2 = -28						; size = 4
_this$ = -24						; size = 4
tv73 = -20						; size = 4
$T3 = -16						; size = 4
__$EHRec$ = -12						; size = 12
__Ptr$ = 8						; size = 4
__V0$ = 12						; size = 4
??$construct@PAU?$_Tree_node@U?$pair@$$CBV?$VuBin@VFalconSessionEntity@@@@PAVTViewPoint@@@std@@PAX@std@@AAPAU12@@?$allocator@U?$_Tree_node@U?$pair@$$CBV?$VuBin@VFalconSessionEntity@@@@PAVTViewPoint@@@std@@PAX@std@@@std@@QAEXPAPAU?$_Tree_node@U?$pair@$$CBV?$VuBin@VFalconSessionEntity@@@@PAVTViewPoint@@@std@@PAX@1@AAPAU21@@Z PROC ; std::allocator<std::_Tree_node<std::pair<VuBin<FalconSessionEntity> const ,TViewPoint *>,void *> >::construct<std::_Tree_node<std::pair<VuBin<FalconSessionEntity> const ,TViewPoint *>,void *> *,std::_Tree_node<std::pair<VuBin<FalconSessionEntity> const ,TViewPoint *>,void *> * &>, COMDAT
; _this$ = ecx

; 617  : _VARIADIC_EXPAND_0X(_ALLOC_MEMBER_CONSTRUCT, , , , )

	push	ebp
	mov	ebp, esp
	push	-1
	push	__ehhandler$??$construct@PAU?$_Tree_node@U?$pair@$$CBV?$VuBin@VFalconSessionEntity@@@@PAVTViewPoint@@@std@@PAX@std@@AAPAU12@@?$allocator@U?$_Tree_node@U?$pair@$$CBV?$VuBin@VFalconSessionEntity@@@@PAVTViewPoint@@@std@@PAX@std@@@std@@QAEXPAPAU?$_Tree_node@U?$pair@$$CBV?$VuBin@VFalconSessionEntity@@@@PAVTViewPoint@@@std@@PAX@1@AAPAU21@@Z
	mov	eax, DWORD PTR fs:0
	push	eax
	sub	esp, 16					; 00000010H
	mov	eax, DWORD PTR ___security_cookie
	xor	eax, ebp
	push	eax
	lea	eax, DWORD PTR __$EHRec$[ebp]
	mov	DWORD PTR fs:0, eax
	mov	DWORD PTR _this$[ebp], ecx
	mov	eax, DWORD PTR __Ptr$[ebp]
	push	eax
	push	4
	call	??2@YAPAXIPAX@Z				; operator new
	add	esp, 8
	mov	DWORD PTR $T3[ebp], eax
	mov	DWORD PTR __$EHRec$[ebp+8], 0
	cmp	DWORD PTR $T3[ebp], 0
	je	SHORT $LN3@construct
	mov	ecx, DWORD PTR __V0$[ebp]
	push	ecx
	call	??$forward@AAPAU?$_Tree_node@U?$pair@$$CBV?$VuBin@VFalconSessionEntity@@@@PAVTViewPoint@@@std@@PAX@std@@@std@@YAAAPAU?$_Tree_node@U?$pair@$$CBV?$VuBin@VFalconSessionEntity@@@@PAVTViewPoint@@@std@@PAX@0@AAPAU10@@Z ; std::forward<std::_Tree_node<std::pair<VuBin<FalconSessionEntity> const ,TViewPoint *>,void *> * &>
	add	esp, 4
	mov	edx, DWORD PTR $T3[ebp]
	mov	eax, DWORD PTR [eax]
	mov	DWORD PTR [edx], eax
	mov	ecx, DWORD PTR $T3[ebp]
	mov	DWORD PTR tv73[ebp], ecx
	jmp	SHORT $LN4@construct
$LN3@construct:
	mov	DWORD PTR tv73[ebp], 0
$LN4@construct:
	mov	edx, DWORD PTR tv73[ebp]
	mov	DWORD PTR $T2[ebp], edx
	mov	DWORD PTR __$EHRec$[ebp+8], -1
	mov	ecx, DWORD PTR __$EHRec$[ebp]
	mov	DWORD PTR fs:0, ecx
	pop	ecx
	mov	esp, ebp
	pop	ebp
	ret	8
_TEXT	ENDS
;	COMDAT text$x
text$x	SEGMENT
__unwindfunclet$??$construct@PAU?$_Tree_node@U?$pair@$$CBV?$VuBin@VFalconSessionEntity@@@@PAVTViewPoint@@@std@@PAX@std@@AAPAU12@@?$allocator@U?$_Tree_node@U?$pair@$$CBV?$VuBin@VFalconSessionEntity@@@@PAVTViewPoint@@@std@@PAX@std@@@std@@QAEXPAPAU?$_Tree_node@U?$pair@$$CBV?$VuBin@VFalconSessionEntity@@@@PAVTViewPoint@@@std@@PAX@1@AAPAU21@@Z$0:
	mov	eax, DWORD PTR __Ptr$[ebp]
	push	eax
	mov	eax, DWORD PTR $T3[ebp]
	push	eax
	call	??3@YAXPAX0@Z				; operator delete
	add	esp, 8
	ret	0
__ehhandler$??$construct@PAU?$_Tree_node@U?$pair@$$CBV?$VuBin@VFalconSessionEntity@@@@PAVTViewPoint@@@std@@PAX@std@@AAPAU12@@?$allocator@U?$_Tree_node@U?$pair@$$CBV?$VuBin@VFalconSessionEntity@@@@PAVTViewPoint@@@std@@PAX@std@@@std@@QAEXPAPAU?$_Tree_node@U?$pair@$$CBV?$VuBin@VFalconSessionEntity@@@@PAVTViewPoint@@@std@@PAX@1@AAPAU21@@Z:
	mov	edx, DWORD PTR [esp+8]
	lea	eax, DWORD PTR [edx+12]
	mov	ecx, DWORD PTR [edx-20]
	xor	ecx, eax
	call	@__security_check_cookie@4
	mov	eax, OFFSET __ehfuncinfo$??$construct@PAU?$_Tree_node@U?$pair@$$CBV?$VuBin@VFalconSessionEntity@@@@PAVTViewPoint@@@std@@PAX@std@@AAPAU12@@?$allocator@U?$_Tree_node@U?$pair@$$CBV?$VuBin@VFalconSessionEntity@@@@PAVTViewPoint@@@std@@PAX@std@@@std@@QAEXPAPAU?$_Tree_node@U?$pair@$$CBV?$VuBin@VFalconSessionEntity@@@@PAVTViewPoint@@@std@@PAX@1@AAPAU21@@Z
	jmp	___CxxFrameHandler3
text$x	ENDS
??$construct@PAU?$_Tree_node@U?$pair@$$CBV?$VuBin@VFalconSessionEntity@@@@PAVTViewPoint@@@std@@PAX@std@@AAPAU12@@?$allocator@U?$_Tree_node@U?$pair@$$CBV?$VuBin@VFalconSessionEntity@@@@PAVTViewPoint@@@std@@PAX@std@@@std@@QAEXPAPAU?$_Tree_node@U?$pair@$$CBV?$VuBin@VFalconSessionEntity@@@@PAVTViewPoint@@@std@@PAX@1@AAPAU21@@Z ENDP ; std::allocator<std::_Tree_node<std::pair<VuBin<FalconSessionEntity> const ,TViewPoint *>,void *> >::construct<std::_Tree_node<std::pair<VuBin<FalconSessionEntity> const ,TViewPoint *>,void *> *,std::_Tree_node<std::pair<VuBin<FalconSessionEntity> const ,TViewPoint *>,void *> * &>
; Function compile flags: /Odtp
; File c:\program files (x86)\microsoft visual studio 11.0\vc\include\xmemory0
;	COMDAT ??$destroy@PAU?$_Tree_node@U?$pair@$$CBV?$VuBin@VFalconSessionEntity@@@@PAVTViewPoint@@@std@@PAX@std@@@?$allocator@U?$_Tree_node@U?$pair@$$CBV?$VuBin@VFalconSessionEntity@@@@PAVTViewPoint@@@std@@PAX@std@@@std@@QAEXPAPAU?$_Tree_node@U?$pair@$$CBV?$VuBin@VFalconSessionEntity@@@@PAVTViewPoint@@@std@@PAX@1@@Z
_TEXT	SEGMENT
_this$ = -4						; size = 4
__Ptr$ = 8						; size = 4
??$destroy@PAU?$_Tree_node@U?$pair@$$CBV?$VuBin@VFalconSessionEntity@@@@PAVTViewPoint@@@std@@PAX@std@@@?$allocator@U?$_Tree_node@U?$pair@$$CBV?$VuBin@VFalconSessionEntity@@@@PAVTViewPoint@@@std@@PAX@std@@@std@@QAEXPAPAU?$_Tree_node@U?$pair@$$CBV?$VuBin@VFalconSessionEntity@@@@PAVTViewPoint@@@std@@PAX@1@@Z PROC ; std::allocator<std::_Tree_node<std::pair<VuBin<FalconSessionEntity> const ,TViewPoint *>,void *> >::destroy<std::_Tree_node<std::pair<VuBin<FalconSessionEntity> const ,TViewPoint *>,void *> *>, COMDAT
; _this$ = ecx

; 621  : 		void destroy(_Uty *_Ptr)

	push	ebp
	mov	ebp, esp
	push	ecx
	mov	DWORD PTR _this$[ebp], ecx

; 622  : 		{	// destroy object at _Ptr
; 623  : 		_Ptr->~_Uty();
; 624  : 		}

	mov	esp, ebp
	pop	ebp
	ret	4
??$destroy@PAU?$_Tree_node@U?$pair@$$CBV?$VuBin@VFalconSessionEntity@@@@PAVTViewPoint@@@std@@PAX@std@@@?$allocator@U?$_Tree_node@U?$pair@$$CBV?$VuBin@VFalconSessionEntity@@@@PAVTViewPoint@@@std@@PAX@std@@@std@@QAEXPAPAU?$_Tree_node@U?$pair@$$CBV?$VuBin@VFalconSessionEntity@@@@PAVTViewPoint@@@std@@PAX@1@@Z ENDP ; std::allocator<std::_Tree_node<std::pair<VuBin<FalconSessionEntity> const ,TViewPoint *>,void *> >::destroy<std::_Tree_node<std::pair<VuBin<FalconSessionEntity> const ,TViewPoint *>,void *> *>
_TEXT	ENDS
; Function compile flags: /Odtp
; File c:\program files (x86)\microsoft visual studio 11.0\vc\include\xmemory0
;	COMDAT ??$destroy@PAD@?$allocator@D@std@@QAEXPAPAD@Z
_TEXT	SEGMENT
_this$ = -4						; size = 4
__Ptr$ = 8						; size = 4
??$destroy@PAD@?$allocator@D@std@@QAEXPAPAD@Z PROC	; std::allocator<char>::destroy<char *>, COMDAT
; _this$ = ecx

; 621  : 		void destroy(_Uty *_Ptr)

	push	ebp
	mov	ebp, esp
	push	ecx
	mov	DWORD PTR _this$[ebp], ecx

; 622  : 		{	// destroy object at _Ptr
; 623  : 		_Ptr->~_Uty();
; 624  : 		}

	mov	esp, ebp
	pop	ebp
	ret	4
??$destroy@PAD@?$allocator@D@std@@QAEXPAPAD@Z ENDP	; std::allocator<char>::destroy<char *>
_TEXT	ENDS
; Function compile flags: /Odtp
; File c:\program files (x86)\microsoft visual studio 11.0\vc\include\xmemory0
;	COMDAT ??$construct@PADAAPAD@?$allocator@D@std@@QAEXPAPADAAPAD@Z
_TEXT	SEGMENT
$T2 = -28						; size = 4
_this$ = -24						; size = 4
tv73 = -20						; size = 4
$T3 = -16						; size = 4
__$EHRec$ = -12						; size = 12
__Ptr$ = 8						; size = 4
__V0$ = 12						; size = 4
??$construct@PADAAPAD@?$allocator@D@std@@QAEXPAPADAAPAD@Z PROC ; std::allocator<char>::construct<char *,char * &>, COMDAT
; _this$ = ecx

; 617  : _VARIADIC_EXPAND_0X(_ALLOC_MEMBER_CONSTRUCT, , , , )

	push	ebp
	mov	ebp, esp
	push	-1
	push	__ehhandler$??$construct@PADAAPAD@?$allocator@D@std@@QAEXPAPADAAPAD@Z
	mov	eax, DWORD PTR fs:0
	push	eax
	sub	esp, 16					; 00000010H
	mov	eax, DWORD PTR ___security_cookie
	xor	eax, ebp
	push	eax
	lea	eax, DWORD PTR __$EHRec$[ebp]
	mov	DWORD PTR fs:0, eax
	mov	DWORD PTR _this$[ebp], ecx
	mov	eax, DWORD PTR __Ptr$[ebp]
	push	eax
	push	4
	call	??2@YAPAXIPAX@Z				; operator new
	add	esp, 8
	mov	DWORD PTR $T3[ebp], eax
	mov	DWORD PTR __$EHRec$[ebp+8], 0
	cmp	DWORD PTR $T3[ebp], 0
	je	SHORT $LN3@construct
	mov	ecx, DWORD PTR __V0$[ebp]
	push	ecx
	call	??$forward@AAPAD@std@@YAAAPADAAPAD@Z	; std::forward<char * &>
	add	esp, 4
	mov	edx, DWORD PTR $T3[ebp]
	mov	eax, DWORD PTR [eax]
	mov	DWORD PTR [edx], eax
	mov	ecx, DWORD PTR $T3[ebp]
	mov	DWORD PTR tv73[ebp], ecx
	jmp	SHORT $LN4@construct
$LN3@construct:
	mov	DWORD PTR tv73[ebp], 0
$LN4@construct:
	mov	edx, DWORD PTR tv73[ebp]
	mov	DWORD PTR $T2[ebp], edx
	mov	DWORD PTR __$EHRec$[ebp+8], -1
	mov	ecx, DWORD PTR __$EHRec$[ebp]
	mov	DWORD PTR fs:0, ecx
	pop	ecx
	mov	esp, ebp
	pop	ebp
	ret	8
_TEXT	ENDS
;	COMDAT text$x
text$x	SEGMENT
__unwindfunclet$??$construct@PADAAPAD@?$allocator@D@std@@QAEXPAPADAAPAD@Z$0:
	mov	eax, DWORD PTR __Ptr$[ebp]
	push	eax
	mov	eax, DWORD PTR $T3[ebp]
	push	eax
	call	??3@YAXPAX0@Z				; operator delete
	add	esp, 8
	ret	0
__ehhandler$??$construct@PADAAPAD@?$allocator@D@std@@QAEXPAPADAAPAD@Z:
	mov	edx, DWORD PTR [esp+8]
	lea	eax, DWORD PTR [edx+12]
	mov	ecx, DWORD PTR [edx-20]
	xor	ecx, eax
	call	@__security_check_cookie@4
	mov	eax, OFFSET __ehfuncinfo$??$construct@PADAAPAD@?$allocator@D@std@@QAEXPAPADAAPAD@Z
	jmp	___CxxFrameHandler3
text$x	ENDS
??$construct@PADAAPAD@?$allocator@D@std@@QAEXPAPADAAPAD@Z ENDP ; std::allocator<char>::construct<char *,char * &>
; Function compile flags: /Odtp
; File c:\program files (x86)\microsoft visual studio 11.0\vc\include\xmemory0
;	COMDAT ??$destroy@U?$pair@$$CBV?$VuBin@VFalconSessionEntity@@@@PAVTViewPoint@@@std@@@?$allocator@U?$_Tree_node@U?$pair@$$CBV?$VuBin@VFalconSessionEntity@@@@PAVTViewPoint@@@std@@PAX@std@@@std@@QAEXPAU?$pair@$$CBV?$VuBin@VFalconSessionEntity@@@@PAVTViewPoint@@@1@@Z
_TEXT	SEGMENT
_this$ = -4						; size = 4
__Ptr$ = 8						; size = 4
??$destroy@U?$pair@$$CBV?$VuBin@VFalconSessionEntity@@@@PAVTViewPoint@@@std@@@?$allocator@U?$_Tree_node@U?$pair@$$CBV?$VuBin@VFalconSessionEntity@@@@PAVTViewPoint@@@std@@PAX@std@@@std@@QAEXPAU?$pair@$$CBV?$VuBin@VFalconSessionEntity@@@@PAVTViewPoint@@@1@@Z PROC ; std::allocator<std::_Tree_node<std::pair<VuBin<FalconSessionEntity> const ,TViewPoint *>,void *> >::destroy<std::pair<VuBin<FalconSessionEntity> const ,TViewPoint *> >, COMDAT
; _this$ = ecx

; 621  : 		void destroy(_Uty *_Ptr)

	push	ebp
	mov	ebp, esp
	push	ecx
	mov	DWORD PTR _this$[ebp], ecx

; 622  : 		{	// destroy object at _Ptr
; 623  : 		_Ptr->~_Uty();

	push	0
	mov	ecx, DWORD PTR __Ptr$[ebp]
	call	??_G?$pair@$$CBV?$VuBin@VFalconSessionEntity@@@@PAVTViewPoint@@@std@@QAEPAXI@Z

; 624  : 		}

	mov	esp, ebp
	pop	ebp
	ret	4
??$destroy@U?$pair@$$CBV?$VuBin@VFalconSessionEntity@@@@PAVTViewPoint@@@std@@@?$allocator@U?$_Tree_node@U?$pair@$$CBV?$VuBin@VFalconSessionEntity@@@@PAVTViewPoint@@@std@@PAX@std@@@std@@QAEXPAU?$pair@$$CBV?$VuBin@VFalconSessionEntity@@@@PAVTViewPoint@@@1@@Z ENDP ; std::allocator<std::_Tree_node<std::pair<VuBin<FalconSessionEntity> const ,TViewPoint *>,void *> >::destroy<std::pair<VuBin<FalconSessionEntity> const ,TViewPoint *> >
_TEXT	ENDS
; Function compile flags: /Odtp
; File c:\program files (x86)\microsoft visual studio 11.0\vc\include\xlocnum
;	COMDAT ??__E?id@?$numpunct@_W@std@@2V0locale@2@A@@YAXXZ
text$yc	SEGMENT
??__E?id@?$numpunct@_W@std@@2V0locale@2@A@@YAXXZ PROC	; `dynamic initializer for 'std::numpunct<wchar_t>::id'', COMDAT

; 155  : 		void _Getvals(wchar_t, const lconv *_Ptr, _Locinfo::_Cvtvec)

	push	ebp
	mov	ebp, esp
	push	0
	mov	ecx, OFFSET ?id@?$numpunct@_W@std@@2V0locale@2@A ; std::numpunct<wchar_t>::id
	call	??0id@locale@std@@QAE@I@Z		; std::locale::id::id
	pop	ebp
	ret	0
??__E?id@?$numpunct@_W@std@@2V0locale@2@A@@YAXXZ ENDP	; `dynamic initializer for 'std::numpunct<wchar_t>::id''
text$yc	ENDS
; Function compile flags: /Odtp
; File c:\program files (x86)\microsoft visual studio 11.0\vc\include\xlocnum
;	COMDAT ??__E?id@?$numpunct@D@std@@2V0locale@2@A@@YAXXZ
text$yc	SEGMENT
??__E?id@?$numpunct@D@std@@2V0locale@2@A@@YAXXZ PROC	; `dynamic initializer for 'std::numpunct<char>::id'', COMDAT

; 155  : 		void _Getvals(wchar_t, const lconv *_Ptr, _Locinfo::_Cvtvec)

	push	ebp
	mov	ebp, esp
	push	0
	mov	ecx, OFFSET ?id@?$numpunct@D@std@@2V0locale@2@A ; std::numpunct<char>::id
	call	??0id@locale@std@@QAE@I@Z		; std::locale::id::id
	pop	ebp
	ret	0
??__E?id@?$numpunct@D@std@@2V0locale@2@A@@YAXXZ ENDP	; `dynamic initializer for 'std::numpunct<char>::id''
text$yc	ENDS
; Function compile flags: /Odtp
; File c:\program files (x86)\microsoft visual studio 11.0\vc\include\type_traits
;	COMDAT ??$forward@_N@std@@YA$$QA_NAA_N@Z
_TEXT	SEGMENT
__Arg$ = 8						; size = 4
??$forward@_N@std@@YA$$QA_NAA_N@Z PROC			; std::forward<bool>, COMDAT

; 1775 : 	{	// forward an lvalue

	push	ebp
	mov	ebp, esp

; 1776 : 	return (static_cast<_Ty&&>(_Arg));

	mov	eax, DWORD PTR __Arg$[ebp]

; 1777 : 	}

	pop	ebp
	ret	0
??$forward@_N@std@@YA$$QA_NAA_N@Z ENDP			; std::forward<bool>
_TEXT	ENDS
; Function compile flags: /Odtp
; File c:\program files (x86)\microsoft visual studio 11.0\vc\include\type_traits
;	COMDAT ??$forward@V?$_Tree_iterator@V?$_Tree_val@U?$_Tree_simple_types@U?$pair@$$CBV?$VuBin@VFalconSessionEntity@@@@PAVTViewPoint@@@std@@@std@@@std@@@std@@@std@@YA$$QAV?$_Tree_iterator@V?$_Tree_val@U?$_Tree_simple_types@U?$pair@$$CBV?$VuBin@VFalconSessionEntity@@@@PAVTViewPoint@@@std@@@std@@@std@@@0@AAV10@@Z
_TEXT	SEGMENT
__Arg$ = 8						; size = 4
??$forward@V?$_Tree_iterator@V?$_Tree_val@U?$_Tree_simple_types@U?$pair@$$CBV?$VuBin@VFalconSessionEntity@@@@PAVTViewPoint@@@std@@@std@@@std@@@std@@@std@@YA$$QAV?$_Tree_iterator@V?$_Tree_val@U?$_Tree_simple_types@U?$pair@$$CBV?$VuBin@VFalconSessionEntity@@@@PAVTViewPoint@@@std@@@std@@@std@@@0@AAV10@@Z PROC ; std::forward<std::_Tree_iterator<std::_Tree_val<std::_Tree_simple_types<std::pair<VuBin<FalconSessionEntity> const ,TViewPoint *> > > > >, COMDAT

; 1775 : 	{	// forward an lvalue

	push	ebp
	mov	ebp, esp

; 1776 : 	return (static_cast<_Ty&&>(_Arg));

	mov	eax, DWORD PTR __Arg$[ebp]

; 1777 : 	}

	pop	ebp
	ret	0
??$forward@V?$_Tree_iterator@V?$_Tree_val@U?$_Tree_simple_types@U?$pair@$$CBV?$VuBin@VFalconSessionEntity@@@@PAVTViewPoint@@@std@@@std@@@std@@@std@@@std@@YA$$QAV?$_Tree_iterator@V?$_Tree_val@U?$_Tree_simple_types@U?$pair@$$CBV?$VuBin@VFalconSessionEntity@@@@PAVTViewPoint@@@std@@@std@@@std@@@0@AAV10@@Z ENDP ; std::forward<std::_Tree_iterator<std::_Tree_val<std::_Tree_simple_types<std::pair<VuBin<FalconSessionEntity> const ,TViewPoint *> > > > >
_TEXT	ENDS
; Function compile flags: /Odtp
; File c:\program files (x86)\microsoft visual studio 11.0\vc\include\utility
;	COMDAT ??$?0AAV?$_Tree_iterator@V?$_Tree_val@U?$_Tree_simple_types@U?$pair@$$CBV?$VuBin@VFalconSessionEntity@@@@PAVTViewPoint@@@std@@@std@@@std@@@std@@_N@?$pair@V?$_Tree_iterator@V?$_Tree_val@U?$_Tree_simple_types@U?$pair@$$CBV?$VuBin@VFalconSessionEntity@@@@PAVTViewPoint@@@std@@@std@@@std@@@std@@_N@std@@QAE@AAV?$_Tree_iterator@V?$_Tree_val@U?$_Tree_simple_types@U?$pair@$$CBV?$VuBin@VFalconSessionEntity@@@@PAVTViewPoint@@@std@@@std@@@std@@@1@$$QA_NPAPAX@Z
_TEXT	SEGMENT
_this$ = -4						; size = 4
__Val1$ = 8						; size = 4
__Val2$ = 12						; size = 4
___formal$ = 16						; size = 4
??$?0AAV?$_Tree_iterator@V?$_Tree_val@U?$_Tree_simple_types@U?$pair@$$CBV?$VuBin@VFalconSessionEntity@@@@PAVTViewPoint@@@std@@@std@@@std@@@std@@_N@?$pair@V?$_Tree_iterator@V?$_Tree_val@U?$_Tree_simple_types@U?$pair@$$CBV?$VuBin@VFalconSessionEntity@@@@PAVTViewPoint@@@std@@@std@@@std@@@std@@_N@std@@QAE@AAV?$_Tree_iterator@V?$_Tree_val@U?$_Tree_simple_types@U?$pair@$$CBV?$VuBin@VFalconSessionEntity@@@@PAVTViewPoint@@@std@@@std@@@std@@@1@$$QA_NPAPAX@Z PROC ; std::pair<std::_Tree_iterator<std::_Tree_val<std::_Tree_simple_types<std::pair<VuBin<FalconSessionEntity> const ,TViewPoint *> > > >,bool>::pair<std::_Tree_iterator<std::_Tree_val<std::_Tree_simple_types<std::pair<VuBin<FalconSessionEntity> const ,TViewPoint *> > > >,bool><std::_Tree_iterator<std::_Tree_val<std::_Tree_simple_types<std::pair<VuBin<FalconSessionEntity> const ,TViewPoint *> > > > &,bool>, COMDAT
; _this$ = ecx

; 138  : 		{	// construct from moved values

	push	ebp
	mov	ebp, esp
	push	ecx
	mov	DWORD PTR _this$[ebp], ecx
	mov	eax, DWORD PTR __Val1$[ebp]
	push	eax
	call	??$forward@AAV?$_Tree_iterator@V?$_Tree_val@U?$_Tree_simple_types@U?$pair@$$CBV?$VuBin@VFalconSessionEntity@@@@PAVTViewPoint@@@std@@@std@@@std@@@std@@@std@@YAAAV?$_Tree_iterator@V?$_Tree_val@U?$_Tree_simple_types@U?$pair@$$CBV?$VuBin@VFalconSessionEntity@@@@PAVTViewPoint@@@std@@@std@@@std@@@0@AAV10@@Z ; std::forward<std::_Tree_iterator<std::_Tree_val<std::_Tree_simple_types<std::pair<VuBin<FalconSessionEntity> const ,TViewPoint *> > > > &>
	add	esp, 4
	mov	ecx, DWORD PTR [eax]
	mov	edx, DWORD PTR _this$[ebp]
	mov	DWORD PTR [edx], ecx
	mov	eax, DWORD PTR __Val2$[ebp]
	push	eax
	call	??$forward@_N@std@@YA$$QA_NAA_N@Z	; std::forward<bool>
	add	esp, 4
	mov	ecx, DWORD PTR _this$[ebp]
	mov	dl, BYTE PTR [eax]
	mov	BYTE PTR [ecx+4], dl

; 139  : 		}

	mov	eax, DWORD PTR _this$[ebp]
	mov	esp, ebp
	pop	ebp
	ret	12					; 0000000cH
??$?0AAV?$_Tree_iterator@V?$_Tree_val@U?$_Tree_simple_types@U?$pair@$$CBV?$VuBin@VFalconSessionEntity@@@@PAVTViewPoint@@@std@@@std@@@std@@@std@@_N@?$pair@V?$_Tree_iterator@V?$_Tree_val@U?$_Tree_simple_types@U?$pair@$$CBV?$VuBin@VFalconSessionEntity@@@@PAVTViewPoint@@@std@@@std@@@std@@@std@@_N@std@@QAE@AAV?$_Tree_iterator@V?$_Tree_val@U?$_Tree_simple_types@U?$pair@$$CBV?$VuBin@VFalconSessionEntity@@@@PAVTViewPoint@@@std@@@std@@@std@@@1@$$QA_NPAPAX@Z ENDP ; std::pair<std::_Tree_iterator<std::_Tree_val<std::_Tree_simple_types<std::pair<VuBin<FalconSessionEntity> const ,TViewPoint *> > > >,bool>::pair<std::_Tree_iterator<std::_Tree_val<std::_Tree_simple_types<std::pair<VuBin<FalconSessionEntity> const ,TViewPoint *> > > >,bool><std::_Tree_iterator<std::_Tree_val<std::_Tree_simple_types<std::pair<VuBin<FalconSessionEntity> const ,TViewPoint *> > > > &,bool>
_TEXT	ENDS
; Function compile flags: /Odtp
; File c:\program files (x86)\microsoft visual studio 11.0\vc\include\utility
;	COMDAT ??$?0V?$_Tree_iterator@V?$_Tree_val@U?$_Tree_simple_types@U?$pair@$$CBV?$VuBin@VFalconSessionEntity@@@@PAVTViewPoint@@@std@@@std@@@std@@@std@@_N@?$pair@V?$_Tree_iterator@V?$_Tree_val@U?$_Tree_simple_types@U?$pair@$$CBV?$VuBin@VFalconSessionEntity@@@@PAVTViewPoint@@@std@@@std@@@std@@@std@@_N@std@@QAE@$$QAV?$_Tree_iterator@V?$_Tree_val@U?$_Tree_simple_types@U?$pair@$$CBV?$VuBin@VFalconSessionEntity@@@@PAVTViewPoint@@@std@@@std@@@std@@@1@$$QA_NPAPAX@Z
_TEXT	SEGMENT
_this$ = -4						; size = 4
__Val1$ = 8						; size = 4
__Val2$ = 12						; size = 4
___formal$ = 16						; size = 4
