; Listing generated by Microsoft (R) Optimizing Compiler Version 17.00.51106.1 

	TITLE	C:\Users\Zhitao Li\Documents\Visual Studio 2012\Projects\Freefalcon\SIM\OTWDRIVE\otwloop.cpp
	.686P
	.XMM
	include listing.inc
	.model	flat

INCLUDELIB LIBCMT
INCLUDELIB OLDNAMES

PUBLIC	?traps@_Num_base@std@@2_NB			; std::_Num_base::traps
PUBLIC	?round_style@_Num_base@std@@2W4float_round_style@2@B ; std::_Num_base::round_style
PUBLIC	?digits@_Num_base@std@@2HB			; std::_Num_base::digits
PUBLIC	?digits10@_Num_base@std@@2HB			; std::_Num_base::digits10
PUBLIC	?max_digits10@_Num_base@std@@2HB		; std::_Num_base::max_digits10
PUBLIC	?max_exponent@_Num_base@std@@2HB		; std::_Num_base::max_exponent
PUBLIC	?max_exponent10@_Num_base@std@@2HB		; std::_Num_base::max_exponent10
PUBLIC	?min_exponent@_Num_base@std@@2HB		; std::_Num_base::min_exponent
PUBLIC	?min_exponent10@_Num_base@std@@2HB		; std::_Num_base::min_exponent10
PUBLIC	?radix@_Num_base@std@@2HB			; std::_Num_base::radix
PUBLIC	?is_bounded@_Num_int_base@std@@2_NB		; std::_Num_int_base::is_bounded
PUBLIC	?is_exact@_Num_int_base@std@@2_NB		; std::_Num_int_base::is_exact
PUBLIC	?is_integer@_Num_int_base@std@@2_NB		; std::_Num_int_base::is_integer
PUBLIC	?is_modulo@_Num_int_base@std@@2_NB		; std::_Num_int_base::is_modulo
PUBLIC	?is_specialized@_Num_int_base@std@@2_NB		; std::_Num_int_base::is_specialized
PUBLIC	?radix@_Num_int_base@std@@2HB			; std::_Num_int_base::radix
PUBLIC	?has_denorm@_Num_float_base@std@@2W4float_denorm_style@2@B ; std::_Num_float_base::has_denorm
PUBLIC	?has_denorm_loss@_Num_float_base@std@@2_NB	; std::_Num_float_base::has_denorm_loss
PUBLIC	?SIMDIRTYDATA_INTERVAL@FalconEntity@@2KB	; FalconEntity::SIMDIRTYDATA_INTERVAL
PUBLIC	?CMPDIRTYDATA_INTERVAL@FalconEntity@@2KB	; FalconEntity::CMPDIRTYDATA_INTERVAL
PUBLIC	?has_infinity@_Num_float_base@std@@2_NB		; std::_Num_float_base::has_infinity
PUBLIC	?has_quiet_NaN@_Num_float_base@std@@2_NB	; std::_Num_float_base::has_quiet_NaN
PUBLIC	?has_signaling_NaN@_Num_float_base@std@@2_NB	; std::_Num_float_base::has_signaling_NaN
PUBLIC	?is_bounded@_Num_float_base@std@@2_NB		; std::_Num_float_base::is_bounded
PUBLIC	?is_exact@_Num_float_base@std@@2_NB		; std::_Num_float_base::is_exact
PUBLIC	?is_iec559@_Num_float_base@std@@2_NB		; std::_Num_float_base::is_iec559
PUBLIC	?is_integer@_Num_float_base@std@@2_NB		; std::_Num_float_base::is_integer
PUBLIC	?is_modulo@_Num_float_base@std@@2_NB		; std::_Num_float_base::is_modulo
PUBLIC	?is_signed@_Num_float_base@std@@2_NB		; std::_Num_float_base::is_signed
PUBLIC	?is_specialized@_Num_float_base@std@@2_NB	; std::_Num_float_base::is_specialized
PUBLIC	?tinyness_before@_Num_float_base@std@@2_NB	; std::_Num_float_base::tinyness_before
PUBLIC	?traps@_Num_float_base@std@@2_NB		; std::_Num_float_base::traps
PUBLIC	?skipws@?$_Iosb@H@std@@2W4_Fmtflags@12@B	; std::_Iosb<int>::skipws
PUBLIC	?round_style@_Num_float_base@std@@2W4float_round_style@2@B ; std::_Num_float_base::round_style
PUBLIC	?unitbuf@?$_Iosb@H@std@@2W4_Fmtflags@12@B	; std::_Iosb<int>::unitbuf
PUBLIC	?radix@_Num_float_base@std@@2HB			; std::_Num_float_base::radix
PUBLIC	?uppercase@?$_Iosb@H@std@@2W4_Fmtflags@12@B	; std::_Iosb<int>::uppercase
PUBLIC	?showbase@?$_Iosb@H@std@@2W4_Fmtflags@12@B	; std::_Iosb<int>::showbase
PUBLIC	?showpoint@?$_Iosb@H@std@@2W4_Fmtflags@12@B	; std::_Iosb<int>::showpoint
PUBLIC	?showpos@?$_Iosb@H@std@@2W4_Fmtflags@12@B	; std::_Iosb<int>::showpos
PUBLIC	?left@?$_Iosb@H@std@@2W4_Fmtflags@12@B		; std::_Iosb<int>::left
PUBLIC	?right@?$_Iosb@H@std@@2W4_Fmtflags@12@B		; std::_Iosb<int>::right
PUBLIC	?internal@?$_Iosb@H@std@@2W4_Fmtflags@12@B	; std::_Iosb<int>::internal
PUBLIC	?is_signed@?$numeric_limits@D@std@@2_NB		; std::numeric_limits<char>::is_signed
PUBLIC	?dec@?$_Iosb@H@std@@2W4_Fmtflags@12@B		; std::_Iosb<int>::dec
PUBLIC	?digits@?$numeric_limits@D@std@@2HB		; std::numeric_limits<char>::digits
PUBLIC	?oct@?$_Iosb@H@std@@2W4_Fmtflags@12@B		; std::_Iosb<int>::oct
PUBLIC	?digits10@?$numeric_limits@D@std@@2HB		; std::numeric_limits<char>::digits10
PUBLIC	?hex@?$_Iosb@H@std@@2W4_Fmtflags@12@B		; std::_Iosb<int>::hex
PUBLIC	?scientific@?$_Iosb@H@std@@2W4_Fmtflags@12@B	; std::_Iosb<int>::scientific
PUBLIC	?fixed@?$_Iosb@H@std@@2W4_Fmtflags@12@B		; std::_Iosb<int>::fixed
PUBLIC	?hexfloat@?$_Iosb@H@std@@2W4_Fmtflags@12@B	; std::_Iosb<int>::hexfloat
PUBLIC	?boolalpha@?$_Iosb@H@std@@2W4_Fmtflags@12@B	; std::_Iosb<int>::boolalpha
PUBLIC	?_Stdio@?$_Iosb@H@std@@2W4_Fmtflags@12@B	; std::_Iosb<int>::_Stdio
PUBLIC	?adjustfield@?$_Iosb@H@std@@2W4_Fmtflags@12@B	; std::_Iosb<int>::adjustfield
PUBLIC	?basefield@?$_Iosb@H@std@@2W4_Fmtflags@12@B	; std::_Iosb<int>::basefield
PUBLIC	?floatfield@?$_Iosb@H@std@@2W4_Fmtflags@12@B	; std::_Iosb<int>::floatfield
PUBLIC	?goodbit@?$_Iosb@H@std@@2W4_Iostate@12@B	; std::_Iosb<int>::goodbit
PUBLIC	?is_signed@?$numeric_limits@_W@std@@2_NB	; std::numeric_limits<wchar_t>::is_signed
PUBLIC	?eofbit@?$_Iosb@H@std@@2W4_Iostate@12@B		; std::_Iosb<int>::eofbit
PUBLIC	?digits@?$numeric_limits@_W@std@@2HB		; std::numeric_limits<wchar_t>::digits
PUBLIC	?failbit@?$_Iosb@H@std@@2W4_Iostate@12@B	; std::_Iosb<int>::failbit
PUBLIC	?digits10@?$numeric_limits@_W@std@@2HB		; std::numeric_limits<wchar_t>::digits10
PUBLIC	?badbit@?$_Iosb@H@std@@2W4_Iostate@12@B		; std::_Iosb<int>::badbit
PUBLIC	?_Hardfail@?$_Iosb@H@std@@2W4_Iostate@12@B	; std::_Iosb<int>::_Hardfail
PUBLIC	?in@?$_Iosb@H@std@@2W4_Openmode@12@B		; std::_Iosb<int>::in
PUBLIC	?out@?$_Iosb@H@std@@2W4_Openmode@12@B		; std::_Iosb<int>::out
PUBLIC	?ate@?$_Iosb@H@std@@2W4_Openmode@12@B		; std::_Iosb<int>::ate
PUBLIC	?app@?$_Iosb@H@std@@2W4_Openmode@12@B		; std::_Iosb<int>::app
PUBLIC	?trunc@?$_Iosb@H@std@@2W4_Openmode@12@B		; std::_Iosb<int>::trunc
PUBLIC	?_Nocreate@?$_Iosb@H@std@@2W4_Openmode@12@B	; std::_Iosb<int>::_Nocreate
PUBLIC	?_Noreplace@?$_Iosb@H@std@@2W4_Openmode@12@B	; std::_Iosb<int>::_Noreplace
PUBLIC	?binary@?$_Iosb@H@std@@2W4_Openmode@12@B	; std::_Iosb<int>::binary
PUBLIC	?is_modulo@?$numeric_limits@_N@std@@2_NB	; std::numeric_limits<bool>::is_modulo
PUBLIC	?is_signed@?$numeric_limits@_N@std@@2_NB	; std::numeric_limits<bool>::is_signed
PUBLIC	?beg@?$_Iosb@H@std@@2W4_Seekdir@12@B		; std::_Iosb<int>::beg
PUBLIC	?digits@?$numeric_limits@_N@std@@2HB		; std::numeric_limits<bool>::digits
PUBLIC	?cur@?$_Iosb@H@std@@2W4_Seekdir@12@B		; std::_Iosb<int>::cur
PUBLIC	?digits10@?$numeric_limits@_N@std@@2HB		; std::numeric_limits<bool>::digits10
PUBLIC	?end@?$_Iosb@H@std@@2W4_Seekdir@12@B		; std::_Iosb<int>::end
PUBLIC	?ObserverPosition@@3UTpoint@@A			; ObserverPosition
PUBLIC	?ObserverYaw@@3MA				; ObserverYaw
PUBLIC	?ObserverPitch@@3MA				; ObserverPitch
PUBLIC	?ObserverRoll@@3MA				; ObserverRoll
PUBLIC	?_Stream_err@failure@ios_base@std@@0W4io_errc@43@B ; std::ios_base::failure::_Stream_err
PUBLIC	?is_signed@?$numeric_limits@C@std@@2_NB		; std::numeric_limits<signed char>::is_signed
PUBLIC	?digits@?$numeric_limits@C@std@@2HB		; std::numeric_limits<signed char>::digits
PUBLIC	?digits10@?$numeric_limits@C@std@@2HB		; std::numeric_limits<signed char>::digits10
PUBLIC	?is_signed@?$numeric_limits@E@std@@2_NB		; std::numeric_limits<unsigned char>::is_signed
PUBLIC	?value@?$integral_constant@_N$0A@@std@@2_NB	; std::integral_constant<bool,0>::value
PUBLIC	?digits@?$numeric_limits@E@std@@2HB		; std::numeric_limits<unsigned char>::digits
PUBLIC	?digits10@?$numeric_limits@E@std@@2HB		; std::numeric_limits<unsigned char>::digits10
PUBLIC	?value@?$integral_constant@_N$00@std@@2_NB	; std::integral_constant<bool,1>::value
PUBLIC	?is_signed@?$numeric_limits@F@std@@2_NB		; std::numeric_limits<short>::is_signed
PUBLIC	?digits@?$numeric_limits@F@std@@2HB		; std::numeric_limits<short>::digits
PUBLIC	?digits10@?$numeric_limits@F@std@@2HB		; std::numeric_limits<short>::digits10
PUBLIC	?is_signed@?$numeric_limits@G@std@@2_NB		; std::numeric_limits<unsigned short>::is_signed
PUBLIC	?digits@?$numeric_limits@G@std@@2HB		; std::numeric_limits<unsigned short>::digits
PUBLIC	?digits10@?$numeric_limits@G@std@@2HB		; std::numeric_limits<unsigned short>::digits10
PUBLIC	?is_signed@?$numeric_limits@H@std@@2_NB		; std::numeric_limits<int>::is_signed
PUBLIC	?value@?$_Sizeof@HU_Nil@std@@U12@U12@U12@U12@U12@U12@@std@@2IB ; std::_Sizeof<int,std::_Nil,std::_Nil,std::_Nil,std::_Nil,std::_Nil,std::_Nil,std::_Nil>::value
PUBLIC	?digits@?$numeric_limits@H@std@@2HB		; std::numeric_limits<int>::digits
PUBLIC	?digits10@?$numeric_limits@H@std@@2HB		; std::numeric_limits<int>::digits10
PUBLIC	?is_signed@?$numeric_limits@I@std@@2_NB		; std::numeric_limits<unsigned int>::is_signed
PUBLIC	?digits@?$numeric_limits@I@std@@2HB		; std::numeric_limits<unsigned int>::digits
PUBLIC	?digits10@?$numeric_limits@I@std@@2HB		; std::numeric_limits<unsigned int>::digits10
PUBLIC	?is_signed@?$numeric_limits@J@std@@2_NB		; std::numeric_limits<long>::is_signed
PUBLIC	?digits@?$numeric_limits@J@std@@2HB		; std::numeric_limits<long>::digits
PUBLIC	?digits10@?$numeric_limits@J@std@@2HB		; std::numeric_limits<long>::digits10
PUBLIC	?is_signed@?$numeric_limits@K@std@@2_NB		; std::numeric_limits<unsigned long>::is_signed
PUBLIC	?digits@?$numeric_limits@K@std@@2HB		; std::numeric_limits<unsigned long>::digits
PUBLIC	?digits10@?$numeric_limits@K@std@@2HB		; std::numeric_limits<unsigned long>::digits10
PUBLIC	?collate@?$_Locbase@H@std@@2HB			; std::_Locbase<int>::collate
PUBLIC	?ctype@?$_Locbase@H@std@@2HB			; std::_Locbase<int>::ctype
PUBLIC	?monetary@?$_Locbase@H@std@@2HB			; std::_Locbase<int>::monetary
PUBLIC	?numeric@?$_Locbase@H@std@@2HB			; std::_Locbase<int>::numeric
PUBLIC	?time@?$_Locbase@H@std@@2HB			; std::_Locbase<int>::time
PUBLIC	?messages@?$_Locbase@H@std@@2HB			; std::_Locbase<int>::messages
PUBLIC	?is_signed@?$numeric_limits@_J@std@@2_NB	; std::numeric_limits<__int64>::is_signed
PUBLIC	?all@?$_Locbase@H@std@@2HB			; std::_Locbase<int>::all
PUBLIC	?none@?$_Locbase@H@std@@2HB			; std::_Locbase<int>::none
PUBLIC	?digits@?$numeric_limits@_J@std@@2HB		; std::numeric_limits<__int64>::digits
PUBLIC	?digits10@?$numeric_limits@_J@std@@2HB		; std::numeric_limits<__int64>::digits10
PUBLIC	?is_signed@?$numeric_limits@_K@std@@2_NB	; std::numeric_limits<unsigned __int64>::is_signed
PUBLIC	?digits@?$numeric_limits@_K@std@@2HB		; std::numeric_limits<unsigned __int64>::digits
PUBLIC	?digits10@?$numeric_limits@_K@std@@2HB		; std::numeric_limits<unsigned __int64>::digits10
PUBLIC	?digits@?$numeric_limits@M@std@@2HB		; std::numeric_limits<float>::digits
PUBLIC	?digits10@?$numeric_limits@M@std@@2HB		; std::numeric_limits<float>::digits10
PUBLIC	?max_digits10@?$numeric_limits@M@std@@2HB	; std::numeric_limits<float>::max_digits10
PUBLIC	?max_exponent@?$numeric_limits@M@std@@2HB	; std::numeric_limits<float>::max_exponent
PUBLIC	?max_exponent10@?$numeric_limits@M@std@@2HB	; std::numeric_limits<float>::max_exponent10
PUBLIC	?min_exponent@?$numeric_limits@M@std@@2HB	; std::numeric_limits<float>::min_exponent
PUBLIC	?min_exponent10@?$numeric_limits@M@std@@2HB	; std::numeric_limits<float>::min_exponent10
PUBLIC	?table_size@?$ctype@D@std@@2IB			; std::ctype<char>::table_size
PUBLIC	?value@?$integral_constant@I$0A@@std@@2IB	; std::integral_constant<unsigned int,0>::value
PUBLIC	?digits@?$numeric_limits@N@std@@2HB		; std::numeric_limits<double>::digits
PUBLIC	?digits10@?$numeric_limits@N@std@@2HB		; std::numeric_limits<double>::digits10
PUBLIC	?max_digits10@?$numeric_limits@N@std@@2HB	; std::numeric_limits<double>::max_digits10
PUBLIC	?max_exponent@?$numeric_limits@N@std@@2HB	; std::numeric_limits<double>::max_exponent
PUBLIC	?max_exponent10@?$numeric_limits@N@std@@2HB	; std::numeric_limits<double>::max_exponent10
PUBLIC	?min_exponent@?$numeric_limits@N@std@@2HB	; std::numeric_limits<double>::min_exponent
PUBLIC	?min_exponent10@?$numeric_limits@N@std@@2HB	; std::numeric_limits<double>::min_exponent10
PUBLIC	?digits@?$numeric_limits@O@std@@2HB		; std::numeric_limits<long double>::digits
PUBLIC	?digits10@?$numeric_limits@O@std@@2HB		; std::numeric_limits<long double>::digits10
PUBLIC	?max_digits10@?$numeric_limits@O@std@@2HB	; std::numeric_limits<long double>::max_digits10
PUBLIC	?max_exponent@?$numeric_limits@O@std@@2HB	; std::numeric_limits<long double>::max_exponent
PUBLIC	?max_exponent10@?$numeric_limits@O@std@@2HB	; std::numeric_limits<long double>::max_exponent10
PUBLIC	?min_exponent@?$numeric_limits@O@std@@2HB	; std::numeric_limits<long double>::min_exponent
PUBLIC	?min_exponent10@?$numeric_limits@O@std@@2HB	; std::numeric_limits<long double>::min_exponent10
PUBLIC	?HSITOFROM3d@@3HA				; HSITOFROM3d
PUBLIC	?gAcmiStr@@3PADA				; gAcmiStr
PUBLIC	?value@?$_Sizeof@U_Nil@std@@U12@U12@U12@U12@U12@U12@U12@@std@@2IB ; std::_Sizeof<std::_Nil,std::_Nil,std::_Nil,std::_Nil,std::_Nil,std::_Nil,std::_Nil,std::_Nil>::value
PUBLIC	?has_denorm@_Num_base@std@@2W4float_denorm_style@2@B ; std::_Num_base::has_denorm
PUBLIC	?has_denorm_loss@_Num_base@std@@2_NB		; std::_Num_base::has_denorm_loss
PUBLIC	?has_infinity@_Num_base@std@@2_NB		; std::_Num_base::has_infinity
PUBLIC	?has_quiet_NaN@_Num_base@std@@2_NB		; std::_Num_base::has_quiet_NaN
PUBLIC	?has_signaling_NaN@_Num_base@std@@2_NB		; std::_Num_base::has_signaling_NaN
PUBLIC	?is_bounded@_Num_base@std@@2_NB			; std::_Num_base::is_bounded
PUBLIC	?is_exact@_Num_base@std@@2_NB			; std::_Num_base::is_exact
PUBLIC	?is_iec559@_Num_base@std@@2_NB			; std::_Num_base::is_iec559
PUBLIC	?is_integer@_Num_base@std@@2_NB			; std::_Num_base::is_integer
PUBLIC	?ModeTableSize@@3HA				; ModeTableSize
PUBLIC	?is_modulo@_Num_base@std@@2_NB			; std::_Num_base::is_modulo
PUBLIC	?is_signed@_Num_base@std@@2_NB			; std::_Num_base::is_signed
PUBLIC	?is_specialized@_Num_base@std@@2_NB		; std::_Num_base::is_specialized
PUBLIC	?tinyness_before@_Num_base@std@@2_NB		; std::_Num_base::tinyness_before
_BSS	SEGMENT
?ObserverPosition@@3UTpoint@@A DB 0cH DUP (?)		; ObserverPosition
?ObserverYaw@@3MA DD 01H DUP (?)			; ObserverYaw
?ObserverPitch@@3MA DD 01H DUP (?)			; ObserverPitch
?ObserverRoll@@3MA DD 01H DUP (?)			; ObserverRoll
?HSITOFROM3d@@3HA DD 01H DUP (?)			; HSITOFROM3d
_gSimTimeMax DD	01H DUP (?)
_gCampTimeMax DD 01H DUP (?)
_gGraphicsTimeLastMax DD 01H DUP (?)
?gAcmiStr@@3PADA DB 0bH DUP (?)				; gAcmiStr
_BSS	ENDS
;	COMDAT ?tinyness_before@_Num_base@std@@2_NB
CONST	SEGMENT
?tinyness_before@_Num_base@std@@2_NB DB 00H		; std::_Num_base::tinyness_before
CONST	ENDS
;	COMDAT ?is_specialized@_Num_base@std@@2_NB
CONST	SEGMENT
?is_specialized@_Num_base@std@@2_NB DB 00H		; std::_Num_base::is_specialized
CONST	ENDS
;	COMDAT ?is_signed@_Num_base@std@@2_NB
CONST	SEGMENT
?is_signed@_Num_base@std@@2_NB DB 00H			; std::_Num_base::is_signed
CONST	ENDS
;	COMDAT ?is_modulo@_Num_base@std@@2_NB
CONST	SEGMENT
?is_modulo@_Num_base@std@@2_NB DB 00H			; std::_Num_base::is_modulo
CONST	ENDS
;	COMDAT ?is_integer@_Num_base@std@@2_NB
CONST	SEGMENT
?is_integer@_Num_base@std@@2_NB DB 00H			; std::_Num_base::is_integer
CONST	ENDS
;	COMDAT ?is_iec559@_Num_base@std@@2_NB
CONST	SEGMENT
?is_iec559@_Num_base@std@@2_NB DB 00H			; std::_Num_base::is_iec559
CONST	ENDS
;	COMDAT ?is_exact@_Num_base@std@@2_NB
CONST	SEGMENT
?is_exact@_Num_base@std@@2_NB DB 00H			; std::_Num_base::is_exact
CONST	ENDS
;	COMDAT ?is_bounded@_Num_base@std@@2_NB
CONST	SEGMENT
?is_bounded@_Num_base@std@@2_NB DB 00H			; std::_Num_base::is_bounded
CONST	ENDS
;	COMDAT ?has_signaling_NaN@_Num_base@std@@2_NB
CONST	SEGMENT
?has_signaling_NaN@_Num_base@std@@2_NB DB 00H		; std::_Num_base::has_signaling_NaN
CONST	ENDS
;	COMDAT ?has_quiet_NaN@_Num_base@std@@2_NB
CONST	SEGMENT
?has_quiet_NaN@_Num_base@std@@2_NB DB 00H		; std::_Num_base::has_quiet_NaN
CONST	ENDS
;	COMDAT ?has_infinity@_Num_base@std@@2_NB
CONST	SEGMENT
?has_infinity@_Num_base@std@@2_NB DB 00H		; std::_Num_base::has_infinity
CONST	ENDS
;	COMDAT ?has_denorm_loss@_Num_base@std@@2_NB
CONST	SEGMENT
?has_denorm_loss@_Num_base@std@@2_NB DB 00H		; std::_Num_base::has_denorm_loss
CONST	ENDS
;	COMDAT ?has_denorm@_Num_base@std@@2W4float_denorm_style@2@B
CONST	SEGMENT
?has_denorm@_Num_base@std@@2W4float_denorm_style@2@B DD 00H ; std::_Num_base::has_denorm
CONST	ENDS
;	COMDAT ?value@?$_Sizeof@U_Nil@std@@U12@U12@U12@U12@U12@U12@U12@@std@@2IB
CONST	SEGMENT
?value@?$_Sizeof@U_Nil@std@@U12@U12@U12@U12@U12@U12@U12@@std@@2IB DD 00H ; std::_Sizeof<std::_Nil,std::_Nil,std::_Nil,std::_Nil,std::_Nil,std::_Nil,std::_Nil,std::_Nil>::value
CONST	ENDS
;	COMDAT ?min_exponent10@?$numeric_limits@O@std@@2HB
CONST	SEGMENT
?min_exponent10@?$numeric_limits@O@std@@2HB DD 0fffffecdH ; std::numeric_limits<long double>::min_exponent10
CONST	ENDS
;	COMDAT ?min_exponent@?$numeric_limits@O@std@@2HB
CONST	SEGMENT
?min_exponent@?$numeric_limits@O@std@@2HB DD 0fffffc03H	; std::numeric_limits<long double>::min_exponent
CONST	ENDS
;	COMDAT ?max_exponent10@?$numeric_limits@O@std@@2HB
CONST	SEGMENT
?max_exponent10@?$numeric_limits@O@std@@2HB DD 0134H	; std::numeric_limits<long double>::max_exponent10
CONST	ENDS
;	COMDAT ?max_exponent@?$numeric_limits@O@std@@2HB
CONST	SEGMENT
?max_exponent@?$numeric_limits@O@std@@2HB DD 0400H	; std::numeric_limits<long double>::max_exponent
CONST	ENDS
;	COMDAT ?max_digits10@?$numeric_limits@O@std@@2HB
CONST	SEGMENT
?max_digits10@?$numeric_limits@O@std@@2HB DD 011H	; std::numeric_limits<long double>::max_digits10
CONST	ENDS
;	COMDAT ?digits10@?$numeric_limits@O@std@@2HB
CONST	SEGMENT
?digits10@?$numeric_limits@O@std@@2HB DD 0fH		; std::numeric_limits<long double>::digits10
CONST	ENDS
;	COMDAT ?digits@?$numeric_limits@O@std@@2HB
CONST	SEGMENT
?digits@?$numeric_limits@O@std@@2HB DD 035H		; std::numeric_limits<long double>::digits
CONST	ENDS
;	COMDAT ?min_exponent10@?$numeric_limits@N@std@@2HB
CONST	SEGMENT
?min_exponent10@?$numeric_limits@N@std@@2HB DD 0fffffecdH ; std::numeric_limits<double>::min_exponent10
CONST	ENDS
;	COMDAT ?min_exponent@?$numeric_limits@N@std@@2HB
CONST	SEGMENT
?min_exponent@?$numeric_limits@N@std@@2HB DD 0fffffc03H	; std::numeric_limits<double>::min_exponent
CONST	ENDS
;	COMDAT ?max_exponent10@?$numeric_limits@N@std@@2HB
CONST	SEGMENT
?max_exponent10@?$numeric_limits@N@std@@2HB DD 0134H	; std::numeric_limits<double>::max_exponent10
CONST	ENDS
;	COMDAT ?max_exponent@?$numeric_limits@N@std@@2HB
CONST	SEGMENT
?max_exponent@?$numeric_limits@N@std@@2HB DD 0400H	; std::numeric_limits<double>::max_exponent
CONST	ENDS
;	COMDAT ?max_digits10@?$numeric_limits@N@std@@2HB
CONST	SEGMENT
?max_digits10@?$numeric_limits@N@std@@2HB DD 011H	; std::numeric_limits<double>::max_digits10
CONST	ENDS
;	COMDAT ?digits10@?$numeric_limits@N@std@@2HB
CONST	SEGMENT
?digits10@?$numeric_limits@N@std@@2HB DD 0fH		; std::numeric_limits<double>::digits10
CONST	ENDS
;	COMDAT ?digits@?$numeric_limits@N@std@@2HB
CONST	SEGMENT
?digits@?$numeric_limits@N@std@@2HB DD 035H		; std::numeric_limits<double>::digits
CONST	ENDS
;	COMDAT ?value@?$integral_constant@I$0A@@std@@2IB
CONST	SEGMENT
?value@?$integral_constant@I$0A@@std@@2IB DD 00H	; std::integral_constant<unsigned int,0>::value
CONST	ENDS
;	COMDAT ?table_size@?$ctype@D@std@@2IB
CONST	SEGMENT
?table_size@?$ctype@D@std@@2IB DD 0100H			; std::ctype<char>::table_size
CONST	ENDS
;	COMDAT ?min_exponent10@?$numeric_limits@M@std@@2HB
CONST	SEGMENT
?min_exponent10@?$numeric_limits@M@std@@2HB DD 0ffffffdbH ; std::numeric_limits<float>::min_exponent10
CONST	ENDS
;	COMDAT ?min_exponent@?$numeric_limits@M@std@@2HB
CONST	SEGMENT
?min_exponent@?$numeric_limits@M@std@@2HB DD 0ffffff83H	; std::numeric_limits<float>::min_exponent
CONST	ENDS
;	COMDAT ?max_exponent10@?$numeric_limits@M@std@@2HB
CONST	SEGMENT
?max_exponent10@?$numeric_limits@M@std@@2HB DD 026H	; std::numeric_limits<float>::max_exponent10
CONST	ENDS
;	COMDAT ?max_exponent@?$numeric_limits@M@std@@2HB
CONST	SEGMENT
?max_exponent@?$numeric_limits@M@std@@2HB DD 080H	; std::numeric_limits<float>::max_exponent
CONST	ENDS
;	COMDAT ?max_digits10@?$numeric_limits@M@std@@2HB
CONST	SEGMENT
?max_digits10@?$numeric_limits@M@std@@2HB DD 09H	; std::numeric_limits<float>::max_digits10
CONST	ENDS
;	COMDAT ?digits10@?$numeric_limits@M@std@@2HB
CONST	SEGMENT
?digits10@?$numeric_limits@M@std@@2HB DD 06H		; std::numeric_limits<float>::digits10
CONST	ENDS
;	COMDAT ?digits@?$numeric_limits@M@std@@2HB
CONST	SEGMENT
?digits@?$numeric_limits@M@std@@2HB DD 018H		; std::numeric_limits<float>::digits
CONST	ENDS
;	COMDAT ?digits10@?$numeric_limits@_K@std@@2HB
CONST	SEGMENT
?digits10@?$numeric_limits@_K@std@@2HB DD 013H		; std::numeric_limits<unsigned __int64>::digits10
CONST	ENDS
;	COMDAT ?digits@?$numeric_limits@_K@std@@2HB
CONST	SEGMENT
?digits@?$numeric_limits@_K@std@@2HB DD 040H		; std::numeric_limits<unsigned __int64>::digits
CONST	ENDS
;	COMDAT ?is_signed@?$numeric_limits@_K@std@@2_NB
CONST	SEGMENT
?is_signed@?$numeric_limits@_K@std@@2_NB DB 00H		; std::numeric_limits<unsigned __int64>::is_signed
CONST	ENDS
;	COMDAT ?digits10@?$numeric_limits@_J@std@@2HB
CONST	SEGMENT
?digits10@?$numeric_limits@_J@std@@2HB DD 012H		; std::numeric_limits<__int64>::digits10
CONST	ENDS
;	COMDAT ?digits@?$numeric_limits@_J@std@@2HB
CONST	SEGMENT
?digits@?$numeric_limits@_J@std@@2HB DD 03fH		; std::numeric_limits<__int64>::digits
CONST	ENDS
;	COMDAT ?none@?$_Locbase@H@std@@2HB
CONST	SEGMENT
?none@?$_Locbase@H@std@@2HB DD 00H			; std::_Locbase<int>::none
CONST	ENDS
;	COMDAT ?all@?$_Locbase@H@std@@2HB
CONST	SEGMENT
?all@?$_Locbase@H@std@@2HB DD 03fH			; std::_Locbase<int>::all
CONST	ENDS
;	COMDAT ?is_signed@?$numeric_limits@_J@std@@2_NB
CONST	SEGMENT
?is_signed@?$numeric_limits@_J@std@@2_NB DB 01H		; std::numeric_limits<__int64>::is_signed
CONST	ENDS
;	COMDAT ?messages@?$_Locbase@H@std@@2HB
CONST	SEGMENT
?messages@?$_Locbase@H@std@@2HB DD 020H			; std::_Locbase<int>::messages
CONST	ENDS
;	COMDAT ?time@?$_Locbase@H@std@@2HB
CONST	SEGMENT
?time@?$_Locbase@H@std@@2HB DD 010H			; std::_Locbase<int>::time
CONST	ENDS
;	COMDAT ?numeric@?$_Locbase@H@std@@2HB
CONST	SEGMENT
?numeric@?$_Locbase@H@std@@2HB DD 08H			; std::_Locbase<int>::numeric
CONST	ENDS
;	COMDAT ?monetary@?$_Locbase@H@std@@2HB
CONST	SEGMENT
?monetary@?$_Locbase@H@std@@2HB DD 04H			; std::_Locbase<int>::monetary
CONST	ENDS
;	COMDAT ?ctype@?$_Locbase@H@std@@2HB
CONST	SEGMENT
?ctype@?$_Locbase@H@std@@2HB DD 02H			; std::_Locbase<int>::ctype
CONST	ENDS
;	COMDAT ?collate@?$_Locbase@H@std@@2HB
CONST	SEGMENT
?collate@?$_Locbase@H@std@@2HB DD 01H			; std::_Locbase<int>::collate
CONST	ENDS
;	COMDAT ?digits10@?$numeric_limits@K@std@@2HB
CONST	SEGMENT
?digits10@?$numeric_limits@K@std@@2HB DD 09H		; std::numeric_limits<unsigned long>::digits10
CONST	ENDS
;	COMDAT ?digits@?$numeric_limits@K@std@@2HB
CONST	SEGMENT
?digits@?$numeric_limits@K@std@@2HB DD 020H		; std::numeric_limits<unsigned long>::digits
CONST	ENDS
;	COMDAT ?is_signed@?$numeric_limits@K@std@@2_NB
CONST	SEGMENT
?is_signed@?$numeric_limits@K@std@@2_NB DB 00H		; std::numeric_limits<unsigned long>::is_signed
CONST	ENDS
;	COMDAT ?digits10@?$numeric_limits@J@std@@2HB
CONST	SEGMENT
?digits10@?$numeric_limits@J@std@@2HB DD 09H		; std::numeric_limits<long>::digits10
CONST	ENDS
;	COMDAT ?digits@?$numeric_limits@J@std@@2HB
CONST	SEGMENT
?digits@?$numeric_limits@J@std@@2HB DD 01fH		; std::numeric_limits<long>::digits
CONST	ENDS
;	COMDAT ?is_signed@?$numeric_limits@J@std@@2_NB
CONST	SEGMENT
?is_signed@?$numeric_limits@J@std@@2_NB DB 01H		; std::numeric_limits<long>::is_signed
CONST	ENDS
;	COMDAT ?digits10@?$numeric_limits@I@std@@2HB
CONST	SEGMENT
?digits10@?$numeric_limits@I@std@@2HB DD 09H		; std::numeric_limits<unsigned int>::digits10
CONST	ENDS
;	COMDAT ?digits@?$numeric_limits@I@std@@2HB
CONST	SEGMENT
?digits@?$numeric_limits@I@std@@2HB DD 020H		; std::numeric_limits<unsigned int>::digits
CONST	ENDS
;	COMDAT ?is_signed@?$numeric_limits@I@std@@2_NB
CONST	SEGMENT
?is_signed@?$numeric_limits@I@std@@2_NB DB 00H		; std::numeric_limits<unsigned int>::is_signed
CONST	ENDS
;	COMDAT ?digits10@?$numeric_limits@H@std@@2HB
CONST	SEGMENT
?digits10@?$numeric_limits@H@std@@2HB DD 09H		; std::numeric_limits<int>::digits10
CONST	ENDS
;	COMDAT ?digits@?$numeric_limits@H@std@@2HB
CONST	SEGMENT
?digits@?$numeric_limits@H@std@@2HB DD 01fH		; std::numeric_limits<int>::digits
CONST	ENDS
;	COMDAT ?value@?$_Sizeof@HU_Nil@std@@U12@U12@U12@U12@U12@U12@@std@@2IB
CONST	SEGMENT
?value@?$_Sizeof@HU_Nil@std@@U12@U12@U12@U12@U12@U12@@std@@2IB DD 01H ; std::_Sizeof<int,std::_Nil,std::_Nil,std::_Nil,std::_Nil,std::_Nil,std::_Nil,std::_Nil>::value
CONST	ENDS
;	COMDAT ?is_signed@?$numeric_limits@H@std@@2_NB
CONST	SEGMENT
?is_signed@?$numeric_limits@H@std@@2_NB DB 01H		; std::numeric_limits<int>::is_signed
CONST	ENDS
_DATA	SEGMENT
_matrix33_ident DD 03f800000r			; 1
	DD	000000000r			; 0
	DD	000000000r			; 0
	DD	000000000r			; 0
	DD	03f800000r			; 1
	DD	000000000r			; 0
	DD	000000000r			; 0
	DD	000000000r			; 0
	DD	03f800000r			; 1
?ModeTableSize@@3HA DD 0cH				; ModeTableSize
_cloudPntList DD 0c5bcc000r			; -6040
	DD	0c4070000r			; -540
	DD	0c694ac00r			; -19030
	DD	0c6de1c00r			; -28430
	DD	0c4dfc000r			; -1790
	DD	046dcc800r			; 28260
	DD	047104200r			; 36930
	DD	045732000r			; 3890
	DD	04744ea00r			; 50410
	DD	045336000r			; 2870
	DD	0c4d48000r			; -1700
	DD	04736da00r			; 46810
	DD	0c763ee00r			; -58350
	DD	0c4d48000r			; -1700
	DD	0c64c1000r			; -13060
	DD	046f2bc00r			; 31070
	DD	045480000r			; 3200
	DD	0c7293800r			; -43320
	DD	0c7bdc400r			; -97160
	DD	0c4d48000r			; -1700
	DD	04576e000r			; 3950
	DD	0c792e000r			; -75200
	DD	0c4bb8000r			; -1500
	DD	047957400r			; 76520
	DD	04759ee00r			; 55790
	DD	0c5a1e000r			; -5180
	DD	0c7a24e00r			; -83100
	DD	0c7473800r			; -51000
	DD	0c3a00000r			; -320
	DD	0c7829100r			; -66850
	DD	047733400r			; 62260
	DD	0c3a00000r			; -320
	DD	047708200r			; 61570
	DD	0c7710e00r			; -61710
	DD	0c550c000r			; -3340
	DD	046fb7c00r			; 32190
	DD	0c7719a00r			; -61850
	DD	0c7483200r			; -51250
	DD	047543a00r			; 54330
	DD	0c5bcc000r			; -6040
	DD	0c7495400r			; -51540
	DD	0c694ac00r			; -19030
	DD	0c6a7a800r			; -21460
	DD	0c74b0200r			; -51970
	DD	0468e8000r			; 18240
	DD	047298800r			; 43400
	DD	0c74bf200r			; -52210
	DD	046bc7000r			; 24120
	DD	0c749f400r			; -51700
	DD	0c74bc000r			; -52160
	DD	046948400r			; 19010
	DD	0c605e800r			; -8570
	DD	0c7488200r			; -51330
	DD	0c74ca600r			; -52390
	DD	04731bc00r			; 45500
	DD	0c7509800r			; -53400
	DD	0c6725800r			; -15510
	DD	0c7719a00r			; -61850
	DD	0c7483200r			; -51250
	DD	047543a00r			; 54330
	DD	047553400r			; 54580
	DD	0c74ddc00r			; -52700
	DD	0479a5600r			; 79020
	DD	047a7e400r			; 85960
	DD	0c74c5600r			; -52310
	DD	0477d4800r			; 64840
	DD	0c7c44500r			; -100490
	DD	0c74d1400r			; -52500
	DD	047ac2600r			; 88140
	DD	0c7a1ae00r			; -82780
	DD	0c749ea00r			; -51690
	DD	0c7bce300r			; -96710
	DD	0c6126800r			; -9370
	DD	0c7495400r			; -51540
	DD	043cd0000r			; 410
	DD	0c6a7a800r			; -21460
	DD	0c74a8a00r			; -51850
	DD	0473fae00r			; 49070
	DD	0457c8000r			; 4040
	DD	0c74e4a00r			; -52810
	DD	047871e00r			; 69180
	DD	0c6cbc000r			; -26080
	DD	0c74bc000r			; -52160
	DD	046984400r			; 19490
	DD	0452fa000r			; 2810
	DD	0c7488200r			; -51330
	DD	0c7081800r			; -34840
	DD	0c7719a00r			; -61850
	DD	0c749d600r			; -51670
	DD	047b17600r			; 90860
	DD	047553400r			; 54580
	DD	0c74ddc00r			; -52700
	DD	0479a5600r			; 79020
	DD	047a7e400r			; 85960
	DD	0c74c5600r			; -52310
	DD	0477d4800r			; 64840
	DD	0c7c44500r			; -100490
	DD	0c74d1400r			; -52500
	DD	047ac2600r			; 88140
	DD	047c04e00r			; 98460
	DD	0c74d1400r			; -52500
	DD	0c732a200r			; -45730
	DD	0467b9000r			; 16100
	DD	0c7487800r			; -51320
	DD	0c749a400r			; -51620
	DD	047636c00r			; 58220
	DD	0c74e0400r			; -52740
	DD	0c760b000r			; -57520
	DD	0c6126800r			; -9370
	DD	0c4070000r			; -540
	DD	043cd0000r			; 410
	DD	0c4e60000r			; -1840
	DD	0c6a30c00r			; -20870
	DD	0470a6600r			; 35430
	DD	0c7230c00r			; -41740
	DD	046924000r			; 18720
	DD	04797d600r			; 77740
	DD	0460d9000r			; 9060
	DD	0c616c800r			; -9650
	DD	0c7921300r			; -74790
_lightningPosList DD 041300000r			; 11
	DD	000000000r			; 0
	DD	040e00000r			; 7
	DD	040a00000r			; 5
	DD	041100000r			; 9
	DD	041000000r			; 8
	DD	041000000r			; 8
	DD	041600000r			; 14
	DD	041800000r			; 16
	DD	041a00000r			; 20
	DD	041200000r			; 10
	DD	041c00000r			; 24
	DD	041300000r			; 11
	DD	041d80000r			; 27
	DD	040c00000r			; 6
	DD	041f00000r			; 30
	DD	040e00000r			; 7
	DD	042040000r			; 33
	DD	03f800000r			; 1
	DD	042180000r			; 38
	DD	040a00000r			; 5
	DD	042280000r			; 42
	DD	040a00000r			; 5
	DD	042340000r			; 45
	DD	041400000r			; 12
	DD	042400000r			; 48
	DD	041a00000r			; 20
	DD	042500000r			; 52
	DD	041a00000r			; 20
	DD	042680000r			; 58
	DD	041b80000r			; 23
	DD	042740000r			; 61
	DD	041b00000r			; 22
	DD	0427c0000r			; 63
	DD	041b00000r			; 22
	DD	042840000r			; 66
	DD	041c80000r			; 25
	DD	042880000r			; 68
	DD	041a00000r			; 20
	DD	0428c0000r			; 70
	DD	041c00000r			; 24
	DD	042960000r			; 75
	DD	041c00000r			; 24
	DD	0429a0000r			; 77
	DD	041f80000r			; 31
	DD	042a00000r			; 80
	DD	041f80000r			; 31
	DD	042a60000r			; 83
	DD	042040000r			; 33
	DD	042b00000r			; 88
	DD	041f80000r			; 31
	DD	042b80000r			; 92
	DD	0423c0000r			; 47
	DD	042ce0000r			; 103
	DD	042380000r			; 46
	DD	042d20000r			; 105
	DD	0423c0000r			; 47
	DD	042d60000r			; 107
	DD	042340000r			; 45
	DD	042e00000r			; 112
	DD	042400000r			; 48
	DD	042e40000r			; 114
	DD	042380000r			; 46
	DD	042ea0000r			; 117
	DD	0422c0000r			; 43
	DD	043000000r			; 128
_matrix44_ident DD 03f800000r			; 1
	DD	000000000r			; 0
	DD	000000000r			; 0
	DD	000000000r			; 0
	DD	000000000r			; 0
	DD	03f800000r			; 1
	DD	000000000r			; 0
	DD	000000000r			; 0
	DD	000000000r			; 0
	DD	000000000r			; 0
	DD	03f800000r			; 1
	DD	000000000r			; 0
	DD	000000000r			; 0
	DD	000000000r			; 0
	DD	000000000r			; 0
	DD	03f800000r			; 1
_DATA	ENDS
;	COMDAT ?digits10@?$numeric_limits@G@std@@2HB
CONST	SEGMENT
?digits10@?$numeric_limits@G@std@@2HB DD 04H		; std::numeric_limits<unsigned short>::digits10
CONST	ENDS
;	COMDAT ?digits@?$numeric_limits@G@std@@2HB
CONST	SEGMENT
?digits@?$numeric_limits@G@std@@2HB DD 010H		; std::numeric_limits<unsigned short>::digits
CONST	ENDS
;	COMDAT ?is_signed@?$numeric_limits@G@std@@2_NB
CONST	SEGMENT
?is_signed@?$numeric_limits@G@std@@2_NB DB 00H		; std::numeric_limits<unsigned short>::is_signed
CONST	ENDS
;	COMDAT ?digits10@?$numeric_limits@F@std@@2HB
CONST	SEGMENT
?digits10@?$numeric_limits@F@std@@2HB DD 04H		; std::numeric_limits<short>::digits10
CONST	ENDS
;	COMDAT ?digits@?$numeric_limits@F@std@@2HB
CONST	SEGMENT
?digits@?$numeric_limits@F@std@@2HB DD 0fH		; std::numeric_limits<short>::digits
CONST	ENDS
;	COMDAT ?is_signed@?$numeric_limits@F@std@@2_NB
CONST	SEGMENT
?is_signed@?$numeric_limits@F@std@@2_NB DB 01H		; std::numeric_limits<short>::is_signed
CONST	ENDS
;	COMDAT ?value@?$integral_constant@_N$00@std@@2_NB
CONST	SEGMENT
?value@?$integral_constant@_N$00@std@@2_NB DB 01H	; std::integral_constant<bool,1>::value
CONST	ENDS
;	COMDAT ?digits10@?$numeric_limits@E@std@@2HB
CONST	SEGMENT
?digits10@?$numeric_limits@E@std@@2HB DD 02H		; std::numeric_limits<unsigned char>::digits10
CONST	ENDS
;	COMDAT ?digits@?$numeric_limits@E@std@@2HB
CONST	SEGMENT
?digits@?$numeric_limits@E@std@@2HB DD 08H		; std::numeric_limits<unsigned char>::digits
CONST	ENDS
;	COMDAT ?value@?$integral_constant@_N$0A@@std@@2_NB
CONST	SEGMENT
?value@?$integral_constant@_N$0A@@std@@2_NB DB 00H	; std::integral_constant<bool,0>::value
CONST	ENDS
;	COMDAT ?is_signed@?$numeric_limits@E@std@@2_NB
CONST	SEGMENT
?is_signed@?$numeric_limits@E@std@@2_NB DB 00H		; std::numeric_limits<unsigned char>::is_signed
CONST	ENDS
;	COMDAT ?digits10@?$numeric_limits@C@std@@2HB
CONST	SEGMENT
?digits10@?$numeric_limits@C@std@@2HB DD 02H		; std::numeric_limits<signed char>::digits10
CONST	ENDS
;	COMDAT ?digits@?$numeric_limits@C@std@@2HB
CONST	SEGMENT
?digits@?$numeric_limits@C@std@@2HB DD 07H		; std::numeric_limits<signed char>::digits
CONST	ENDS
;	COMDAT ?is_signed@?$numeric_limits@C@std@@2_NB
CONST	SEGMENT
?is_signed@?$numeric_limits@C@std@@2_NB DB 01H		; std::numeric_limits<signed char>::is_signed
CONST	ENDS
;	COMDAT ?_Stream_err@failure@ios_base@std@@0W4io_errc@43@B
CONST	SEGMENT
?_Stream_err@failure@ios_base@std@@0W4io_errc@43@B DD 01H ; std::ios_base::failure::_Stream_err
CONST	ENDS
CONST	SEGMENT
_L_2	DD	03f317218r			; 0.693147
_NEAR_CLIP DD	03f800000r			; 1
_theModeTable DD 07H
	DW	00H
	ORG $+2
	DD	06H
	DW	02H
	ORG $+2
	DD	0eH
	DW	03H
	ORG $+2
	DD	0dH
	DW	04H
	ORG $+2
	DD	012H
	DW	05H
	ORG $+2
	DD	0aH
	DW	06H
	ORG $+2
	DD	08H
	DW	07H
	ORG $+2
	DD	0bH
	DW	08H
	ORG $+2
	DD	09H
	DW	09H
	ORG $+2
	DD	0fH
	DW	0aH
	ORG $+2
	DD	0cH
	DW	0bH
	ORG $+2
	DD	011H
	DW	0cH
	ORG $+2
CONST	ENDS
;	COMDAT ?end@?$_Iosb@H@std@@2W4_Seekdir@12@B
CONST	SEGMENT
?end@?$_Iosb@H@std@@2W4_Seekdir@12@B DD 02H		; std::_Iosb<int>::end
CONST	ENDS
;	COMDAT ?digits10@?$numeric_limits@_N@std@@2HB
CONST	SEGMENT
?digits10@?$numeric_limits@_N@std@@2HB DD 00H		; std::numeric_limits<bool>::digits10
CONST	ENDS
;	COMDAT ?cur@?$_Iosb@H@std@@2W4_Seekdir@12@B
CONST	SEGMENT
?cur@?$_Iosb@H@std@@2W4_Seekdir@12@B DD 01H		; std::_Iosb<int>::cur
CONST	ENDS
;	COMDAT ?digits@?$numeric_limits@_N@std@@2HB
CONST	SEGMENT
?digits@?$numeric_limits@_N@std@@2HB DD 01H		; std::numeric_limits<bool>::digits
CONST	ENDS
;	COMDAT ?beg@?$_Iosb@H@std@@2W4_Seekdir@12@B
CONST	SEGMENT
?beg@?$_Iosb@H@std@@2W4_Seekdir@12@B DD 00H		; std::_Iosb<int>::beg
CONST	ENDS
;	COMDAT ?is_signed@?$numeric_limits@_N@std@@2_NB
CONST	SEGMENT
?is_signed@?$numeric_limits@_N@std@@2_NB DB 00H		; std::numeric_limits<bool>::is_signed
CONST	ENDS
;	COMDAT ?is_modulo@?$numeric_limits@_N@std@@2_NB
CONST	SEGMENT
?is_modulo@?$numeric_limits@_N@std@@2_NB DB 00H		; std::numeric_limits<bool>::is_modulo
CONST	ENDS
;	COMDAT ?binary@?$_Iosb@H@std@@2W4_Openmode@12@B
CONST	SEGMENT
?binary@?$_Iosb@H@std@@2W4_Openmode@12@B DD 020H	; std::_Iosb<int>::binary
CONST	ENDS
;	COMDAT ?_Noreplace@?$_Iosb@H@std@@2W4_Openmode@12@B
CONST	SEGMENT
?_Noreplace@?$_Iosb@H@std@@2W4_Openmode@12@B DD 080H	; std::_Iosb<int>::_Noreplace
CONST	ENDS
;	COMDAT ?_Nocreate@?$_Iosb@H@std@@2W4_Openmode@12@B
CONST	SEGMENT
?_Nocreate@?$_Iosb@H@std@@2W4_Openmode@12@B DD 040H	; std::_Iosb<int>::_Nocreate
CONST	ENDS
;	COMDAT ?trunc@?$_Iosb@H@std@@2W4_Openmode@12@B
CONST	SEGMENT
?trunc@?$_Iosb@H@std@@2W4_Openmode@12@B DD 010H		; std::_Iosb<int>::trunc
CONST	ENDS
;	COMDAT ?app@?$_Iosb@H@std@@2W4_Openmode@12@B
CONST	SEGMENT
?app@?$_Iosb@H@std@@2W4_Openmode@12@B DD 08H		; std::_Iosb<int>::app
CONST	ENDS
;	COMDAT ?ate@?$_Iosb@H@std@@2W4_Openmode@12@B
CONST	SEGMENT
?ate@?$_Iosb@H@std@@2W4_Openmode@12@B DD 04H		; std::_Iosb<int>::ate
CONST	ENDS
;	COMDAT ?out@?$_Iosb@H@std@@2W4_Openmode@12@B
CONST	SEGMENT
?out@?$_Iosb@H@std@@2W4_Openmode@12@B DD 02H		; std::_Iosb<int>::out
CONST	ENDS
;	COMDAT ?in@?$_Iosb@H@std@@2W4_Openmode@12@B
CONST	SEGMENT
?in@?$_Iosb@H@std@@2W4_Openmode@12@B DD 01H		; std::_Iosb<int>::in
CONST	ENDS
;	COMDAT ?_Hardfail@?$_Iosb@H@std@@2W4_Iostate@12@B
CONST	SEGMENT
?_Hardfail@?$_Iosb@H@std@@2W4_Iostate@12@B DD 010H	; std::_Iosb<int>::_Hardfail
CONST	ENDS
;	COMDAT ?badbit@?$_Iosb@H@std@@2W4_Iostate@12@B
CONST	SEGMENT
?badbit@?$_Iosb@H@std@@2W4_Iostate@12@B DD 04H		; std::_Iosb<int>::badbit
CONST	ENDS
;	COMDAT ?digits10@?$numeric_limits@_W@std@@2HB
CONST	SEGMENT
?digits10@?$numeric_limits@_W@std@@2HB DD 04H		; std::numeric_limits<wchar_t>::digits10
CONST	ENDS
;	COMDAT ?failbit@?$_Iosb@H@std@@2W4_Iostate@12@B
CONST	SEGMENT
?failbit@?$_Iosb@H@std@@2W4_Iostate@12@B DD 02H		; std::_Iosb<int>::failbit
CONST	ENDS
;	COMDAT ?digits@?$numeric_limits@_W@std@@2HB
CONST	SEGMENT
?digits@?$numeric_limits@_W@std@@2HB DD 010H		; std::numeric_limits<wchar_t>::digits
CONST	ENDS
;	COMDAT ?eofbit@?$_Iosb@H@std@@2W4_Iostate@12@B
CONST	SEGMENT
?eofbit@?$_Iosb@H@std@@2W4_Iostate@12@B DD 01H		; std::_Iosb<int>::eofbit
CONST	ENDS
;	COMDAT ?is_signed@?$numeric_limits@_W@std@@2_NB
CONST	SEGMENT
?is_signed@?$numeric_limits@_W@std@@2_NB DB 00H		; std::numeric_limits<wchar_t>::is_signed
CONST	ENDS
;	COMDAT ?goodbit@?$_Iosb@H@std@@2W4_Iostate@12@B
CONST	SEGMENT
?goodbit@?$_Iosb@H@std@@2W4_Iostate@12@B DD 00H		; std::_Iosb<int>::goodbit
CONST	ENDS
;	COMDAT ?floatfield@?$_Iosb@H@std@@2W4_Fmtflags@12@B
CONST	SEGMENT
?floatfield@?$_Iosb@H@std@@2W4_Fmtflags@12@B DD 03000H	; std::_Iosb<int>::floatfield
CONST	ENDS
;	COMDAT ?basefield@?$_Iosb@H@std@@2W4_Fmtflags@12@B
CONST	SEGMENT
?basefield@?$_Iosb@H@std@@2W4_Fmtflags@12@B DD 0e00H	; std::_Iosb<int>::basefield
CONST	ENDS
;	COMDAT ?adjustfield@?$_Iosb@H@std@@2W4_Fmtflags@12@B
CONST	SEGMENT
?adjustfield@?$_Iosb@H@std@@2W4_Fmtflags@12@B DD 01c0H	; std::_Iosb<int>::adjustfield
CONST	ENDS
;	COMDAT ?_Stdio@?$_Iosb@H@std@@2W4_Fmtflags@12@B
CONST	SEGMENT
?_Stdio@?$_Iosb@H@std@@2W4_Fmtflags@12@B DD 08000H	; std::_Iosb<int>::_Stdio
CONST	ENDS
;	COMDAT ?boolalpha@?$_Iosb@H@std@@2W4_Fmtflags@12@B
CONST	SEGMENT
?boolalpha@?$_Iosb@H@std@@2W4_Fmtflags@12@B DD 04000H	; std::_Iosb<int>::boolalpha
CONST	ENDS
;	COMDAT ?hexfloat@?$_Iosb@H@std@@2W4_Fmtflags@12@B
CONST	SEGMENT
?hexfloat@?$_Iosb@H@std@@2W4_Fmtflags@12@B DD 03000H	; std::_Iosb<int>::hexfloat
CONST	ENDS
;	COMDAT ?fixed@?$_Iosb@H@std@@2W4_Fmtflags@12@B
CONST	SEGMENT
?fixed@?$_Iosb@H@std@@2W4_Fmtflags@12@B DD 02000H	; std::_Iosb<int>::fixed
CONST	ENDS
;	COMDAT ?scientific@?$_Iosb@H@std@@2W4_Fmtflags@12@B
CONST	SEGMENT
?scientific@?$_Iosb@H@std@@2W4_Fmtflags@12@B DD 01000H	; std::_Iosb<int>::scientific
CONST	ENDS
;	COMDAT ?hex@?$_Iosb@H@std@@2W4_Fmtflags@12@B
CONST	SEGMENT
?hex@?$_Iosb@H@std@@2W4_Fmtflags@12@B DD 0800H		; std::_Iosb<int>::hex
CONST	ENDS
;	COMDAT ?digits10@?$numeric_limits@D@std@@2HB
CONST	SEGMENT
?digits10@?$numeric_limits@D@std@@2HB DD 02H		; std::numeric_limits<char>::digits10
CONST	ENDS
;	COMDAT ?oct@?$_Iosb@H@std@@2W4_Fmtflags@12@B
CONST	SEGMENT
?oct@?$_Iosb@H@std@@2W4_Fmtflags@12@B DD 0400H		; std::_Iosb<int>::oct
CONST	ENDS
;	COMDAT ?digits@?$numeric_limits@D@std@@2HB
CONST	SEGMENT
?digits@?$numeric_limits@D@std@@2HB DD 07H		; std::numeric_limits<char>::digits
CONST	ENDS
;	COMDAT ?dec@?$_Iosb@H@std@@2W4_Fmtflags@12@B
CONST	SEGMENT
?dec@?$_Iosb@H@std@@2W4_Fmtflags@12@B DD 0200H		; std::_Iosb<int>::dec
CONST	ENDS
;	COMDAT ?is_signed@?$numeric_limits@D@std@@2_NB
CONST	SEGMENT
?is_signed@?$numeric_limits@D@std@@2_NB DB 01H		; std::numeric_limits<char>::is_signed
CONST	ENDS
;	COMDAT ?internal@?$_Iosb@H@std@@2W4_Fmtflags@12@B
CONST	SEGMENT
?internal@?$_Iosb@H@std@@2W4_Fmtflags@12@B DD 0100H	; std::_Iosb<int>::internal
CONST	ENDS
;	COMDAT ?right@?$_Iosb@H@std@@2W4_Fmtflags@12@B
CONST	SEGMENT
?right@?$_Iosb@H@std@@2W4_Fmtflags@12@B DD 080H		; std::_Iosb<int>::right
CONST	ENDS
;	COMDAT ?left@?$_Iosb@H@std@@2W4_Fmtflags@12@B
CONST	SEGMENT
?left@?$_Iosb@H@std@@2W4_Fmtflags@12@B DD 040H		; std::_Iosb<int>::left
CONST	ENDS
;	COMDAT ?showpos@?$_Iosb@H@std@@2W4_Fmtflags@12@B
CONST	SEGMENT
?showpos@?$_Iosb@H@std@@2W4_Fmtflags@12@B DD 020H	; std::_Iosb<int>::showpos
CONST	ENDS
;	COMDAT ?showpoint@?$_Iosb@H@std@@2W4_Fmtflags@12@B
CONST	SEGMENT
?showpoint@?$_Iosb@H@std@@2W4_Fmtflags@12@B DD 010H	; std::_Iosb<int>::showpoint
CONST	ENDS
;	COMDAT ?showbase@?$_Iosb@H@std@@2W4_Fmtflags@12@B
CONST	SEGMENT
?showbase@?$_Iosb@H@std@@2W4_Fmtflags@12@B DD 08H	; std::_Iosb<int>::showbase
CONST	ENDS
;	COMDAT ?uppercase@?$_Iosb@H@std@@2W4_Fmtflags@12@B
CONST	SEGMENT
?uppercase@?$_Iosb@H@std@@2W4_Fmtflags@12@B DD 04H	; std::_Iosb<int>::uppercase
CONST	ENDS
;	COMDAT ?radix@_Num_float_base@std@@2HB
CONST	SEGMENT
?radix@_Num_float_base@std@@2HB DD 02H			; std::_Num_float_base::radix
CONST	ENDS
;	COMDAT ?unitbuf@?$_Iosb@H@std@@2W4_Fmtflags@12@B
CONST	SEGMENT
?unitbuf@?$_Iosb@H@std@@2W4_Fmtflags@12@B DD 02H	; std::_Iosb<int>::unitbuf
CONST	ENDS
;	COMDAT ?round_style@_Num_float_base@std@@2W4float_round_style@2@B
CONST	SEGMENT
?round_style@_Num_float_base@std@@2W4float_round_style@2@B DD 01H ; std::_Num_float_base::round_style
CONST	ENDS
;	COMDAT ?skipws@?$_Iosb@H@std@@2W4_Fmtflags@12@B
CONST	SEGMENT
?skipws@?$_Iosb@H@std@@2W4_Fmtflags@12@B DD 01H		; std::_Iosb<int>::skipws
CONST	ENDS
;	COMDAT ?traps@_Num_float_base@std@@2_NB
CONST	SEGMENT
?traps@_Num_float_base@std@@2_NB DB 00H			; std::_Num_float_base::traps
CONST	ENDS
;	COMDAT ?tinyness_before@_Num_float_base@std@@2_NB
CONST	SEGMENT
?tinyness_before@_Num_float_base@std@@2_NB DB 01H	; std::_Num_float_base::tinyness_before
CONST	ENDS
;	COMDAT ?is_specialized@_Num_float_base@std@@2_NB
CONST	SEGMENT
?is_specialized@_Num_float_base@std@@2_NB DB 01H	; std::_Num_float_base::is_specialized
CONST	ENDS
;	COMDAT ?is_signed@_Num_float_base@std@@2_NB
CONST	SEGMENT
?is_signed@_Num_float_base@std@@2_NB DB 01H		; std::_Num_float_base::is_signed
CONST	ENDS
;	COMDAT ?is_modulo@_Num_float_base@std@@2_NB
CONST	SEGMENT
?is_modulo@_Num_float_base@std@@2_NB DB 00H		; std::_Num_float_base::is_modulo
CONST	ENDS
;	COMDAT ?is_integer@_Num_float_base@std@@2_NB
CONST	SEGMENT
?is_integer@_Num_float_base@std@@2_NB DB 00H		; std::_Num_float_base::is_integer
CONST	ENDS
;	COMDAT ?is_iec559@_Num_float_base@std@@2_NB
CONST	SEGMENT
?is_iec559@_Num_float_base@std@@2_NB DB 01H		; std::_Num_float_base::is_iec559
CONST	ENDS
;	COMDAT ?is_exact@_Num_float_base@std@@2_NB
CONST	SEGMENT
?is_exact@_Num_float_base@std@@2_NB DB 00H		; std::_Num_float_base::is_exact
CONST	ENDS
;	COMDAT ?is_bounded@_Num_float_base@std@@2_NB
CONST	SEGMENT
?is_bounded@_Num_float_base@std@@2_NB DB 01H		; std::_Num_float_base::is_bounded
CONST	ENDS
;	COMDAT ?has_signaling_NaN@_Num_float_base@std@@2_NB
CONST	SEGMENT
?has_signaling_NaN@_Num_float_base@std@@2_NB DB 01H	; std::_Num_float_base::has_signaling_NaN
CONST	ENDS
;	COMDAT ?has_quiet_NaN@_Num_float_base@std@@2_NB
CONST	SEGMENT
?has_quiet_NaN@_Num_float_base@std@@2_NB DB 01H		; std::_Num_float_base::has_quiet_NaN
CONST	ENDS
;	COMDAT ?has_infinity@_Num_float_base@std@@2_NB
CONST	SEGMENT
?has_infinity@_Num_float_base@std@@2_NB DB 01H		; std::_Num_float_base::has_infinity
CONST	ENDS
;	COMDAT ?CMPDIRTYDATA_INTERVAL@FalconEntity@@2KB
CONST	SEGMENT
?CMPDIRTYDATA_INTERVAL@FalconEntity@@2KB DD 0c8H	; FalconEntity::CMPDIRTYDATA_INTERVAL
CONST	ENDS
;	COMDAT ?SIMDIRTYDATA_INTERVAL@FalconEntity@@2KB
CONST	SEGMENT
?SIMDIRTYDATA_INTERVAL@FalconEntity@@2KB DD 0c8H	; FalconEntity::SIMDIRTYDATA_INTERVAL
CONST	ENDS
;	COMDAT ?has_denorm_loss@_Num_float_base@std@@2_NB
CONST	SEGMENT
?has_denorm_loss@_Num_float_base@std@@2_NB DB 01H	; std::_Num_float_base::has_denorm_loss
CONST	ENDS
;	COMDAT ?has_denorm@_Num_float_base@std@@2W4float_denorm_style@2@B
CONST	SEGMENT
?has_denorm@_Num_float_base@std@@2W4float_denorm_style@2@B DD 01H ; std::_Num_float_base::has_denorm
CONST	ENDS
;	COMDAT ?radix@_Num_int_base@std@@2HB
CONST	SEGMENT
?radix@_Num_int_base@std@@2HB DD 02H			; std::_Num_int_base::radix
CONST	ENDS
;	COMDAT ?is_specialized@_Num_int_base@std@@2_NB
CONST	SEGMENT
?is_specialized@_Num_int_base@std@@2_NB DB 01H		; std::_Num_int_base::is_specialized
CONST	ENDS
;	COMDAT ?is_modulo@_Num_int_base@std@@2_NB
CONST	SEGMENT
?is_modulo@_Num_int_base@std@@2_NB DB 01H		; std::_Num_int_base::is_modulo
CONST	ENDS
;	COMDAT ?is_integer@_Num_int_base@std@@2_NB
CONST	SEGMENT
?is_integer@_Num_int_base@std@@2_NB DB 01H		; std::_Num_int_base::is_integer
CONST	ENDS
;	COMDAT ?is_exact@_Num_int_base@std@@2_NB
CONST	SEGMENT
?is_exact@_Num_int_base@std@@2_NB DB 01H		; std::_Num_int_base::is_exact
CONST	ENDS
;	COMDAT ?is_bounded@_Num_int_base@std@@2_NB
CONST	SEGMENT
?is_bounded@_Num_int_base@std@@2_NB DB 01H		; std::_Num_int_base::is_bounded
CONST	ENDS
;	COMDAT ?radix@_Num_base@std@@2HB
CONST	SEGMENT
?radix@_Num_base@std@@2HB DD 00H			; std::_Num_base::radix
CONST	ENDS
;	COMDAT ?min_exponent10@_Num_base@std@@2HB
CONST	SEGMENT
?min_exponent10@_Num_base@std@@2HB DD 00H		; std::_Num_base::min_exponent10
CONST	ENDS
;	COMDAT ?min_exponent@_Num_base@std@@2HB
CONST	SEGMENT
?min_exponent@_Num_base@std@@2HB DD 00H			; std::_Num_base::min_exponent
CONST	ENDS
;	COMDAT ?max_exponent10@_Num_base@std@@2HB
CONST	SEGMENT
?max_exponent10@_Num_base@std@@2HB DD 00H		; std::_Num_base::max_exponent10
CONST	ENDS
;	COMDAT ?max_exponent@_Num_base@std@@2HB
CONST	SEGMENT
?max_exponent@_Num_base@std@@2HB DD 00H			; std::_Num_base::max_exponent
CONST	ENDS
;	COMDAT ?max_digits10@_Num_base@std@@2HB
CONST	SEGMENT
?max_digits10@_Num_base@std@@2HB DD 00H			; std::_Num_base::max_digits10
CONST	ENDS
;	COMDAT ?digits10@_Num_base@std@@2HB
CONST	SEGMENT
?digits10@_Num_base@std@@2HB DD 00H			; std::_Num_base::digits10
CONST	ENDS
;	COMDAT ?digits@_Num_base@std@@2HB
CONST	SEGMENT
?digits@_Num_base@std@@2HB DD 00H			; std::_Num_base::digits
CONST	ENDS
;	COMDAT ?round_style@_Num_base@std@@2W4float_round_style@2@B
CONST	SEGMENT
?round_style@_Num_base@std@@2W4float_round_style@2@B DD 00H ; std::_Num_base::round_style
CONST	ENDS
;	COMDAT ?traps@_Num_base@std@@2_NB
CONST	SEGMENT
?traps@_Num_base@std@@2_NB DB 00H			; std::_Num_base::traps
CONST	ENDS
PUBLIC	_fabsf
PUBLIC	_sinf
PUBLIC	_tanf
PUBLIC	?fabs@@YAMM@Z					; fabs
PUBLIC	?sin@@YAMM@Z					; sin
PUBLIC	?tan@@YAMM@Z					; tan
PUBLIC	?XPos@VuEntity@@QBEMXZ				; VuEntity::XPos
PUBLIC	?YPos@VuEntity@@QBEMXZ				; VuEntity::YPos
PUBLIC	?ZPos@VuEntity@@QBEMXZ				; VuEntity::ZPos
PUBLIC	?XDelta@VuEntity@@QBEMXZ			; VuEntity::XDelta
PUBLIC	?YDelta@VuEntity@@QBEMXZ			; VuEntity::YDelta
PUBLIC	?ZDelta@VuEntity@@QBEMXZ			; VuEntity::ZDelta
PUBLIC	?Yaw@VuEntity@@QBEMXZ				; VuEntity::Yaw
PUBLIC	?Pitch@VuEntity@@QBEMXZ				; VuEntity::Pitch
PUBLIC	?Roll@VuEntity@@QBEMXZ				; VuEntity::Roll
PUBLIC	??2@YAPAXIPAX@Z					; operator new
PUBLIC	??3@YAXPAX0@Z					; operator delete
PUBLIC	?length@?$char_traits@D@std@@SAIPBD@Z		; std::char_traits<char>::length
PUBLIC	?copy@?$char_traits@D@std@@SAPADPADPBDI@Z	; std::char_traits<char>::copy
PUBLIC	?move@?$char_traits@D@std@@SAPADPADPBDI@Z	; std::char_traits<char>::move
PUBLIC	?assign@?$char_traits@D@std@@SAXAADABD@Z	; std::char_traits<char>::assign
PUBLIC	??0?$allocator@D@std@@QAE@XZ			; std::allocator<char>::allocator<char>
PUBLIC	?deallocate@?$allocator@D@std@@QAEXPADI@Z	; std::allocator<char>::deallocate
PUBLIC	?allocate@?$allocator@D@std@@QAEPADI@Z		; std::allocator<char>::allocate
PUBLIC	?max_size@?$allocator@D@std@@QBEIXZ		; std::allocator<char>::max_size
PUBLIC	?max_size@?$allocator_traits@V?$allocator@D@std@@@std@@SAIABV?$allocator@D@2@@Z ; std::allocator_traits<std::allocator<char> >::max_size
PUBLIC	??0?$_Wrap_alloc@V?$allocator@D@std@@@std@@QAE@XZ ; std::_Wrap_alloc<std::allocator<char> >::_Wrap_alloc<std::allocator<char> >
PUBLIC	?allocate@?$_Wrap_alloc@V?$allocator@D@std@@@std@@QAEPADI@Z ; std::_Wrap_alloc<std::allocator<char> >::allocate
PUBLIC	?deallocate@?$_Wrap_alloc@V?$allocator@D@std@@@std@@QAEXPADI@Z ; std::_Wrap_alloc<std::allocator<char> >::deallocate
PUBLIC	?max_size@?$_Wrap_alloc@V?$allocator@D@std@@@std@@QBEIXZ ; std::_Wrap_alloc<std::allocator<char> >::max_size
PUBLIC	??0?$_String_val@U?$_Simple_types@D@std@@@std@@QAE@XZ ; std::_String_val<std::_Simple_types<char> >::_String_val<std::_Simple_types<char> >
PUBLIC	?_Myptr@?$_String_val@U?$_Simple_types@D@std@@@std@@QAEPADXZ ; std::_String_val<std::_Simple_types<char> >::_Myptr
PUBLIC	?_Myptr@?$_String_val@U?$_Simple_types@D@std@@@std@@QBEPBDXZ ; std::_String_val<std::_Simple_types<char> >::_Myptr
PUBLIC	??0?$_String_alloc@$0A@U?$_String_base_types@DV?$allocator@D@std@@@std@@@std@@QAE@ABV?$allocator@D@1@@Z ; std::_String_alloc<0,std::_String_base_types<char,std::allocator<char> > >::_String_alloc<0,std::_String_base_types<char,std::allocator<char> > >
PUBLIC	?_Getal@?$_String_alloc@$0A@U?$_String_base_types@DV?$allocator@D@std@@@std@@@std@@QBE?AU?$_Wrap_alloc@V?$allocator@D@std@@@2@XZ ; std::_String_alloc<0,std::_String_base_types<char,std::allocator<char> > >::_Getal
PUBLIC	??0?$basic_string@DU?$char_traits@D@std@@V?$allocator@D@2@@std@@QAE@PBD@Z ; std::basic_string<char,std::char_traits<char>,std::allocator<char> >::basic_string<char,std::char_traits<char>,std::allocator<char> >
PUBLIC	?assign@?$basic_string@DU?$char_traits@D@std@@V?$allocator@D@2@@std@@QAEAAV12@ABV12@II@Z ; std::basic_string<char,std::char_traits<char>,std::allocator<char> >::assign
PUBLIC	?assign@?$basic_string@DU?$char_traits@D@std@@V?$allocator@D@2@@std@@QAEAAV12@PBDI@Z ; std::basic_string<char,std::char_traits<char>,std::allocator<char> >::assign
PUBLIC	?assign@?$basic_string@DU?$char_traits@D@std@@V?$allocator@D@2@@std@@QAEAAV12@PBD@Z ; std::basic_string<char,std::char_traits<char>,std::allocator<char> >::assign
PUBLIC	?erase@?$basic_string@DU?$char_traits@D@std@@V?$allocator@D@2@@std@@QAEAAV12@I@Z ; std::basic_string<char,std::char_traits<char>,std::allocator<char> >::erase
PUBLIC	?erase@?$basic_string@DU?$char_traits@D@std@@V?$allocator@D@2@@std@@QAEAAV12@II@Z ; std::basic_string<char,std::char_traits<char>,std::allocator<char> >::erase
PUBLIC	?size@?$basic_string@DU?$char_traits@D@std@@V?$allocator@D@2@@std@@QBEIXZ ; std::basic_string<char,std::char_traits<char>,std::allocator<char> >::size
PUBLIC	?max_size@?$basic_string@DU?$char_traits@D@std@@V?$allocator@D@2@@std@@QBEIXZ ; std::basic_string<char,std::char_traits<char>,std::allocator<char> >::max_size
PUBLIC	?_Copy@?$basic_string@DU?$char_traits@D@std@@V?$allocator@D@2@@std@@QAEXII@Z ; std::basic_string<char,std::char_traits<char>,std::allocator<char> >::_Copy
PUBLIC	?_Eos@?$basic_string@DU?$char_traits@D@std@@V?$allocator@D@2@@std@@QAEXI@Z ; std::basic_string<char,std::char_traits<char>,std::allocator<char> >::_Eos
PUBLIC	?_Grow@?$basic_string@DU?$char_traits@D@std@@V?$allocator@D@2@@std@@QAE_NI_N@Z ; std::basic_string<char,std::char_traits<char>,std::allocator<char> >::_Grow
PUBLIC	?_Inside@?$basic_string@DU?$char_traits@D@std@@V?$allocator@D@2@@std@@QAE_NPBD@Z ; std::basic_string<char,std::char_traits<char>,std::allocator<char> >::_Inside
PUBLIC	?_Tidy@?$basic_string@DU?$char_traits@D@std@@V?$allocator@D@2@@std@@QAEX_NI@Z ; std::basic_string<char,std::char_traits<char>,std::allocator<char> >::_Tidy
PUBLIC	?_Xlen@?$basic_string@DU?$char_traits@D@std@@V?$allocator@D@2@@std@@QBEXXZ ; std::basic_string<char,std::char_traits<char>,std::allocator<char> >::_Xlen
PUBLIC	?_Xran@?$basic_string@DU?$char_traits@D@std@@V?$allocator@D@2@@std@@QBEXXZ ; std::basic_string<char,std::char_traits<char>,std::allocator<char> >::_Xran
PUBLIC	?get@?$VuBin@VVuSessionEntity@@@@QBEPAVVuSessionEntity@@XZ ; VuBin<VuSessionEntity>::get
PUBLIC	?CameraCount@VuSessionEntity@@QBEHXZ		; VuSessionEntity::CameraCount
PUBLIC	?size@?$vector@V?$VuBin@VVuEntity@@@@V?$allocator@V?$VuBin@VVuEntity@@@@@std@@@std@@QBEIXZ ; std::vector<VuBin<VuEntity>,std::allocator<VuBin<VuEntity> > >::size
PUBLIC	?GetAltitude@FalconEntity@@QBEHXZ		; FalconEntity::GetAltitude
PUBLIC	?checked_atan2@@YANNN@Z				; checked_atan2
PUBLIC	?GetNVGmode@CTimeOfDay@@QAEHXZ			; CTimeOfDay::GetNVGmode
PUBLIC	?GetLightLevel@CTimeOfDay@@QAEMXZ		; CTimeOfDay::GetLightLevel
PUBLIC	??0id@locale@std@@QAE@I@Z			; std::locale::id::id
PUBLIC	?generic_category@std@@YAABVerror_category@1@XZ	; std::generic_category
PUBLIC	?system_category@std@@YAABVerror_category@1@XZ	; std::system_category
PUBLIC	??0error_category@std@@QAE@XZ			; std::error_category::error_category
PUBLIC	??1error_category@std@@UAE@XZ			; std::error_category::~error_category
PUBLIC	?default_error_condition@error_category@std@@UBE?AVerror_condition@2@H@Z ; std::error_category::default_error_condition
PUBLIC	?equivalent@error_category@std@@UBE_NHABVerror_condition@2@@Z ; std::error_category::equivalent
PUBLIC	?equivalent@error_category@std@@UBE_NABVerror_code@2@H@Z ; std::error_category::equivalent
PUBLIC	??8error_category@std@@QBE_NABV01@@Z		; std::error_category::operator==
PUBLIC	??_Gerror_category@std@@UAEPAXI@Z		; std::error_category::`scalar deleting destructor'
PUBLIC	?value@error_code@std@@QBEHXZ			; std::error_code::value
PUBLIC	?category@error_code@std@@QBEABVerror_category@2@XZ ; std::error_code::category
PUBLIC	??0error_condition@std@@QAE@HABVerror_category@1@@Z ; std::error_condition::error_condition
PUBLIC	?value@error_condition@std@@QBEHXZ		; std::error_condition::value
PUBLIC	?category@error_condition@std@@QBEABVerror_category@2@XZ ; std::error_condition::category
PUBLIC	??8error_condition@std@@QBE_NABV01@@Z		; std::error_condition::operator==
PUBLIC	??0_Generic_error_category@std@@QAE@XZ		; std::_Generic_error_category::_Generic_error_category
PUBLIC	?name@_Generic_error_category@std@@UBEPBDXZ	; std::_Generic_error_category::name
PUBLIC	?message@_Generic_error_category@std@@UBE?AV?$basic_string@DU?$char_traits@D@std@@V?$allocator@D@2@@2@H@Z ; std::_Generic_error_category::message
PUBLIC	??1_Generic_error_category@std@@UAE@XZ		; std::_Generic_error_category::~_Generic_error_category
PUBLIC	??_G_Generic_error_category@std@@UAEPAXI@Z	; std::_Generic_error_category::`scalar deleting destructor'
PUBLIC	??0_Iostream_error_category@std@@QAE@XZ		; std::_Iostream_error_category::_Iostream_error_category
PUBLIC	?name@_Iostream_error_category@std@@UBEPBDXZ	; std::_Iostream_error_category::name
PUBLIC	?message@_Iostream_error_category@std@@UBE?AV?$basic_string@DU?$char_traits@D@std@@V?$allocator@D@2@@2@H@Z ; std::_Iostream_error_category::message
PUBLIC	??1_Iostream_error_category@std@@UAE@XZ		; std::_Iostream_error_category::~_Iostream_error_category
PUBLIC	??_G_Iostream_error_category@std@@UAEPAXI@Z	; std::_Iostream_error_category::`scalar deleting destructor'
PUBLIC	??0_System_error_category@std@@QAE@XZ		; std::_System_error_category::_System_error_category
PUBLIC	?name@_System_error_category@std@@UBEPBDXZ	; std::_System_error_category::name
PUBLIC	?message@_System_error_category@std@@UBE?AV?$basic_string@DU?$char_traits@D@std@@V?$allocator@D@2@@2@H@Z ; std::_System_error_category::message
PUBLIC	?default_error_condition@_System_error_category@std@@UBE?AVerror_condition@2@H@Z ; std::_System_error_category::default_error_condition
PUBLIC	??1_System_error_category@std@@UAE@XZ		; std::_System_error_category::~_System_error_category
PUBLIC	??_G_System_error_category@std@@UAEPAXI@Z	; std::_System_error_category::`scalar deleting destructor'
PUBLIC	?GetDisplayDevice@ImageBuffer@@QAEPAVDisplayDevice@@XZ ; ImageBuffer::GetDisplayDevice
PUBLIC	?CurFont@VirtualDisplay@@SAHXZ			; VirtualDisplay::CurFont
PUBLIC	?CenterOriginInViewport@VirtualDisplay@@QAEXXZ	; VirtualDisplay::CenterOriginInViewport
PUBLIC	?SetGreenMode@RenderOTW@@QAEX_N@Z		; RenderOTW::SetGreenMode
PUBLIC	?SetRatedLoad@ObjectLOD@@SAX_N@Z		; ObjectLOD::SetRatedLoad
PUBLIC	?Label@DrawableBSP@@QAEPADXZ			; DrawableBSP::Label
PUBLIC	?SetRatedLoad@TextureBankClass@@SAX_N@Z		; TextureBankClass::SetRatedLoad
PUBLIC	?ClearLights@CDXEngine@@QAEXXZ			; CDXEngine::ClearLights
PUBLIC	?ClearStencil@CDXEngine@@QAEXXZ			; CDXEngine::ClearStencil
PUBLIC	?SetPitMode@CDXEngine@@QAEX_N@Z			; CDXEngine::SetPitMode
PUBLIC	?SetState@CDXEngine@@QAEXW4DX_StateType@@@Z	; CDXEngine::SetState
PUBLIC	?ResetState@CDXEngine@@QAEXXZ			; CDXEngine::ResetState
PUBLIC	?Ownship@HudClass@@QAEPAVAircraftClass@@XZ	; HudClass::Ownship
PUBLIC	?SetGridVisible@PlayerRwrClass@@QAEXH@Z		; PlayerRwrClass::SetGridVisible
PUBLIC	?Get2dTrackIR@PlayerOptionsClass@@QBE_NXZ	; PlayerOptionsClass::Get2dTrackIR
PUBLIC	?SetInfoBar@PlayerOptionsClass@@QAEX_N@Z	; PlayerOptionsClass::SetInfoBar
PUBLIC	?IsFiring@SimBaseClass@@QBEHXZ			; SimBaseClass::IsFiring
PUBLIC	?IsAwake@SimBaseClass@@QBEHXZ			; SimBaseClass::IsAwake
PUBLIC	?PowerOutput@SimBaseClass@@QAEMXZ		; SimBaseClass::PowerOutput
PUBLIC	?Cycle@OTWDriverClass@@QAEXXZ			; OTWDriverClass::Cycle
PUBLIC	?Reset3DParameters@OTWDriverClass@@QAEXXZ	; OTWDriverClass::Reset3DParameters
PUBLIC	?RenderFirstFrame@OTWDriverClass@@QAEXXZ	; OTWDriverClass::RenderFirstFrame
PUBLIC	?RenderFrame@OTWDriverClass@@QAEXXZ		; OTWDriverClass::RenderFrame
PUBLIC	?DisplayInCockpit@OTWDriverClass@@QAEHXZ	; OTWDriverClass::DisplayInCockpit
PUBLIC	?DisplayChatBox@OTWDriverClass@@QAEXXZ		; OTWDriverClass::DisplayChatBox
PUBLIC	?DisplayInfoBar@OTWDriverClass@@AAEXXZ		; OTWDriverClass::DisplayInfoBar
PUBLIC	?DrawSubTitles@OTWDriverClass@@AAEXXZ		; OTWDriverClass::DrawSubTitles
PUBLIC	?DisplayProfilerText@OTWDriverClass@@AAEXXZ	; OTWDriverClass::DisplayProfilerText
PUBLIC	?ToggleProfilerDisplay@OTWDriverClass@@QAEXXZ	; OTWDriverClass::ToggleProfilerDisplay
PUBLIC	?ToggleProfilerActive@OTWDriverClass@@QAEXXZ	; OTWDriverClass::ToggleProfilerActive
PUBLIC	?DisplayFrontText@OTWDriverClass@@QAEXXZ	; OTWDriverClass::DisplayFrontText
PUBLIC	?SetCameraPanTilt@OTWDriverClass@@QAEXMM@Z	; OTWDriverClass::SetCameraPanTilt
PUBLIC	?InExitMenu@OTWDriverClass@@QAEHXZ		; OTWDriverClass::InExitMenu
PUBLIC	?SetInternalCameraPosition@OTWDriverClass@@AAEXM@Z ; OTWDriverClass::SetInternalCameraPosition
PUBLIC	??4?$VuBin@VSimBaseClass@@@@QAEABV0@ABV0@@Z	; VuBin<SimBaseClass>::operator=
PUBLIC	??7?$VuBin@VSimBaseClass@@@@QBE_NXZ		; VuBin<SimBaseClass>::operator!
PUBLIC	??C?$VuBin@VSimBaseClass@@@@QBEPAVSimBaseClass@@XZ ; VuBin<SimBaseClass>::operator->
PUBLIC	?get@?$VuBin@VSimBaseClass@@@@QBEPAVSimBaseClass@@XZ ; VuBin<SimBaseClass>::get
PUBLIC	?reset@?$VuBin@VSimBaseClass@@@@QAEXPAVSimBaseClass@@@Z ; VuBin<SimBaseClass>::reset
PUBLIC	?RunNew2DTrackIR@OTWDriverClass@@AAEXMM@Z	; OTWDriverClass::RunNew2DTrackIR
PUBLIC	?ToggleInfoBar@OTWDriverClass@@QAEXXZ		; OTWDriverClass::ToggleInfoBar
PUBLIC	?ToggleSubTitles@OTWDriverClass@@QAEXXZ		; OTWDriverClass::ToggleSubTitles
PUBLIC	?GetDefaultRC@DisplayDevice@@QAEPAVDXContext@@XZ ; DisplayDevice::GetDefaultRC
PUBLIC	?SetHsiBit@FlightData@@QAEXH@Z			; FlightData::SetHsiBit
PUBLIC	?ClearHsiBit@FlightData@@QAEXH@Z		; FlightData::ClearHsiBit
PUBLIC	?GetCockpitWidth@CockpitManager@@QAEHXZ		; CockpitManager::GetCockpitWidth
PUBLIC	?GetCockpitHeight@CockpitManager@@QAEHXZ	; CockpitManager::GetCockpitHeight
PUBLIC	?GeneralFont@CockpitManager@@QAEHXZ		; CockpitManager::GeneralFont
PUBLIC	?LabelFont@CockpitManager@@QAEHXZ		; CockpitManager::LabelFont
PUBLIC	?GetReqCompression@FalconSessionEntity@@QBEFXZ	; FalconSessionEntity::GetReqCompression
PUBLIC	?GetDOFValue@SimMoverClass@@QAEMH@Z		; SimMoverClass::GetDOFValue
PUBLIC	?INSState@AircraftClass@@QAEHW4INSAlignFlags@1@@Z ; AircraftClass::INSState
PUBLIC	?AutopilotType@AircraftClass@@QAE?AW4AutoPilotType@1@XZ ; AircraftClass::AutopilotType
PUBLIC	?DBrain@AircraftClass@@QAEPAVDigitalBrain@@XZ	; AircraftClass::DBrain
PUBLIC	?MotionOn@SimulationDriver@@QAEHXZ		; SimulationDriver::MotionOn
PUBLIC	?AVTROn@SimulationDriver@@QAEHXZ		; SimulationDriver::AVTROn
PUBLIC	?IsRecording@ACMIRecorder@@QAEHXZ		; ACMIRecorder::IsRecording
PUBLIC	?GetGameType@DogfightClass@@QAE?AW4DogfightType@@XZ ; DogfightClass::GetGameType
PUBLIC	?Fuel@AirframeClass@@QAEMXZ			; AirframeClass::Fuel
PUBLIC	?ExternalFuel@AirframeClass@@QAEMXZ		; AirframeClass::ExternalFuel
PUBLIC	?FuelFlow@AirframeClass@@QAEMXZ			; AirframeClass::FuelFlow
PUBLIC	?EPUFuel@AirframeClass@@QAEMXZ			; AirframeClass::EPUFuel
PUBLIC	?Online@UIComms@@QAEHXZ				; UIComms::Online
PUBLIC	?ATCStatus@DigitalBrain@@QAE?AW4AtcStatusEnum@@XZ ; DigitalBrain::ATCStatus
PUBLIC	?Allow_2D_Panning@TrackIR@@QAEXXZ		; TrackIR::Allow_2D_Panning
PUBLIC	?Get_Panning_Allowed@TrackIR@@QAE_NXZ		; TrackIR::Get_Panning_Allowed
PUBLIC	?AnalogIsUsed@SIMLIB_IO_CLASS@@QAE_NW4GameAxis_t@@@Z ; SIMLIB_IO_CLASS::AnalogIsUsed
PUBLIC	??$construct@PADAAPAD@?$_Wrap_alloc@V?$allocator@D@std@@@std@@QAEXPAPADAAPAD@Z ; std::_Wrap_alloc<std::allocator<char> >::construct<char *,char * &>
PUBLIC	??$destroy@PAD@?$_Wrap_alloc@V?$allocator@D@std@@@std@@QAEXPAPAD@Z ; std::_Wrap_alloc<std::allocator<char> >::destroy<char *>
PUBLIC	??$addressof@D@std@@YAPADAAD@Z			; std::addressof<char>
PUBLIC	??$_Allocate@D@std@@YAPADIPAD@Z			; std::_Allocate<char>
PUBLIC	??$forward@AAPAD@std@@YAAAPADAAPAD@Z		; std::forward<char * &>
PUBLIC	??$construct@PADAAPAD@?$allocator_traits@V?$allocator@D@std@@@std@@SAXAAV?$allocator@D@1@PAPADAAPAD@Z ; std::allocator_traits<std::allocator<char> >::construct<char *,char * &>
PUBLIC	??$destroy@PAD@?$allocator_traits@V?$allocator@D@std@@@std@@SAXAAV?$allocator@D@1@PAPAD@Z ; std::allocator_traits<std::allocator<char> >::destroy<char *>
PUBLIC	??$construct@PADAAPAD@?$allocator@D@std@@QAEXPAPADAAPAD@Z ; std::allocator<char>::construct<char *,char * &>
PUBLIC	??$destroy@PAD@?$allocator@D@std@@QAEXPAPAD@Z	; std::allocator<char>::destroy<char *>
PUBLIC	??_C@_00CNPNBAHC@?$AA@				; `string'
PUBLIC	??_7error_category@std@@6B@			; std::error_category::`vftable'
PUBLIC	??_7_Generic_error_category@std@@6B@		; std::_Generic_error_category::`vftable'
PUBLIC	??_C@_07DCLBNMLN@generic?$AA@			; `string'
PUBLIC	??_C@_0O@BFJCFAAK@unknown?5error?$AA@		; `string'
PUBLIC	??_7_Iostream_error_category@std@@6B@		; std::_Iostream_error_category::`vftable'
PUBLIC	??_C@_08LLGCOLLL@iostream?$AA@			; `string'
PUBLIC	??_C@_0BG@PADBLCHM@iostream?5stream?5error?$AA@	; `string'
PUBLIC	??_7_System_error_category@std@@6B@		; std::_System_error_category::`vftable'
PUBLIC	??_C@_06FHFOAHML@system?$AA@			; `string'
PUBLIC	?_Generic_object@?$_Error_objects@H@std@@2V_Generic_error_category@2@A ; std::_Error_objects<int>::_Generic_object
PUBLIC	?_Iostream_object@?$_Error_objects@H@std@@2V_Iostream_error_category@2@A ; std::_Error_objects<int>::_Iostream_object
PUBLIC	?_System_object@?$_Error_objects@H@std@@2V_System_error_category@2@A ; std::_Error_objects<int>::_System_object
PUBLIC	?id@?$num_put@DV?$back_insert_iterator@V?$basic_string@DU?$char_traits@D@std@@V?$allocator@D@2@@std@@@std@@@std@@2V0locale@2@A ; std::num_put<char,std::back_insert_iterator<std::basic_string<char,std::char_traits<char>,std::allocator<char> > > >::id
PUBLIC	?id@?$num_put@_WV?$back_insert_iterator@V?$basic_string@_WU?$char_traits@_W@std@@V?$allocator@_W@2@@std@@@std@@@std@@2V0locale@2@A ; std::num_put<wchar_t,std::back_insert_iterator<std::basic_string<wchar_t,std::char_traits<wchar_t>,std::allocator<wchar_t> > > >::id
PUBLIC	??_C@_02LMMGGCAJ@?3?5?$AA@			; `string'
PUBLIC	??_C@_0N@OHPLPDBF@?5?9?5heading?3?5?$AA@	; `string'
PUBLIC	??_C@_04FEIOEENN@?$CF3?4i?$AA@			; `string'
PUBLIC	??_C@_0BA@GPOLMDJ@?5degrees?0?5alt?3?5?$AA@	; `string'
PUBLIC	??_C@_04HBOFBLAB@?$CF5?4i?$AA@			; `string'
PUBLIC	??_C@_0BE@OEACJCJD@?5ft?5?$CIBARO?$CJ?0?5speed?3?5?$AA@ ; `string'
PUBLIC	??_C@_04EOMBGAKL@?$CF4?4f?$AA@			; `string'
PUBLIC	??_C@_0BB@MJAKPGJL@?5kts?5?$CIGS?$CJ?0?5aoa?3?5?$AA@ ; `string'
PUBLIC	??_C@_06CCBPJKJC@?$CF?$CL3?41f?$AA@		; `string'
PUBLIC	??_C@_08MGDNAMHD@?5degrees?$AA@			; `string'
PUBLIC	??_C@_0L@MMMGIOEM@?5kts?5?$CIIAS?$CJ?$AA@	; `string'
PUBLIC	??_C@_0O@JAKNKEAP@?0?5power?3?5?$CF3?4f?$AA@	; `string'
PUBLIC	??_C@_08HDEDGHJO@?5percent?$AA@			; `string'
PUBLIC	??_C@_07CBNKIKPL@?0?5?$CF2?41f?$AA@		; `string'
PUBLIC	??_C@_08CFEJCDPL@G?0?5aoa?3?5?$AA@		; `string'
PUBLIC	??_C@_06BPHPLDCC@?$CF?$CL2?41f?$AA@		; `string'
PUBLIC	??_C@_02ENMDKDPO@x8?$AA@			; `string'
PUBLIC	??_C@_03NMIFLGEC@x16?$AA@			; `string'
PUBLIC	??_C@_03LLGNKHCI@x32?$AA@			; `string'
PUBLIC	??_C@_03OLPMMCEF@x64?$AA@			; `string'
PUBLIC	??_C@_04IIJILBCN@x128?$AA@			; `string'
PUBLIC	??_C@_04BOBCFMI@x256?$AA@			; `string'
PUBLIC	??_C@_04PPFDHAKJ@x512?$AA@			; `string'
PUBLIC	??_C@_05FJODHKGO@x1024?$AA@			; `string'
PUBLIC	??_C@_0N@LEMGNLFI@Sierra?5Hotel?$AA@		; `string'
PUBLIC	??_C@_09HJCFOPMO@Game?5Over?$AA@		; `string'
PUBLIC	??_C@_07KJPMIBMC@FPS?5?$CF5d?$AA@		; `string'
PUBLIC	??_C@_09IBNEFEFJ@FPS?5?$CF5?41f?$AA@		; `string'
PUBLIC	?id@?$numpunct@D@std@@2V0locale@2@A		; std::numpunct<char>::id
PUBLIC	?id@?$numpunct@_W@std@@2V0locale@2@A		; std::numpunct<wchar_t>::id
PUBLIC	??_C@_0BI@CFPLBAOH@invalid?5string?5position?$AA@ ; `string'
PUBLIC	??_C@_0BA@JFNIOLAK@string?5too?5long?$AA@	; `string'
PUBLIC	??_R4error_category@std@@6B@			; std::error_category::`RTTI Complete Object Locator'
PUBLIC	??_R0?AVerror_category@std@@@8			; std::error_category `RTTI Type Descriptor'
PUBLIC	??_R3error_category@std@@8			; std::error_category::`RTTI Class Hierarchy Descriptor'
PUBLIC	??_R2error_category@std@@8			; std::error_category::`RTTI Base Class Array'
PUBLIC	??_R1A@?0A@EA@error_category@std@@8		; std::error_category::`RTTI Base Class Descriptor at (0,-1,0,64)'
PUBLIC	??_R4_Generic_error_category@std@@6B@		; std::_Generic_error_category::`RTTI Complete Object Locator'
PUBLIC	??_R0?AV_Generic_error_category@std@@@8		; std::_Generic_error_category `RTTI Type Descriptor'
PUBLIC	??_R3_Generic_error_category@std@@8		; std::_Generic_error_category::`RTTI Class Hierarchy Descriptor'
PUBLIC	??_R2_Generic_error_category@std@@8		; std::_Generic_error_category::`RTTI Base Class Array'
PUBLIC	??_R1A@?0A@EA@_Generic_error_category@std@@8	; std::_Generic_error_category::`RTTI Base Class Descriptor at (0,-1,0,64)'
PUBLIC	??_R4_Iostream_error_category@std@@6B@		; std::_Iostream_error_category::`RTTI Complete Object Locator'
PUBLIC	??_R0?AV_Iostream_error_category@std@@@8	; std::_Iostream_error_category `RTTI Type Descriptor'
PUBLIC	??_R3_Iostream_error_category@std@@8		; std::_Iostream_error_category::`RTTI Class Hierarchy Descriptor'
PUBLIC	??_R2_Iostream_error_category@std@@8		; std::_Iostream_error_category::`RTTI Base Class Array'
PUBLIC	??_R1A@?0A@EA@_Iostream_error_category@std@@8	; std::_Iostream_error_category::`RTTI Base Class Descriptor at (0,-1,0,64)'
PUBLIC	??_R4_System_error_category@std@@6B@		; std::_System_error_category::`RTTI Complete Object Locator'
PUBLIC	??_R0?AV_System_error_category@std@@@8		; std::_System_error_category `RTTI Type Descriptor'
PUBLIC	??_R3_System_error_category@std@@8		; std::_System_error_category::`RTTI Class Hierarchy Descriptor'
PUBLIC	??_R2_System_error_category@std@@8		; std::_System_error_category::`RTTI Base Class Array'
PUBLIC	??_R1A@?0A@EA@_System_error_category@std@@8	; std::_System_error_category::`RTTI Base Class Descriptor at (0,-1,0,64)'
PUBLIC	__real@00000000
PUBLIC	__real@0000000000000000
PUBLIC	__real@3a83126f
PUBLIC	__real@3c23d70a
PUBLIC	__real@3c8efa34
PUBLIC	__real@3cf5c28f
PUBLIC	__real@3d4ccccd
PUBLIC	__real@3e32b8c1
PUBLIC	__real@3e99999a
PUBLIC	__real@3f000000
PUBLIC	__real@3f147ae2
PUBLIC	__real@3f17ac60
PUBLIC	__real@3f19999a
PUBLIC	__real@3f333333
PUBLIC	__real@3f400000
PUBLIC	__real@3f4ccccd
PUBLIC	__real@3f547ae1
PUBLIC	__real@3f570a3d
PUBLIC	__real@3f59999a
PUBLIC	__real@3f63d70a
PUBLIC	__real@3f666666
PUBLIC	__real@3f666667
PUBLIC	__real@3f6b851e
PUBLIC	__real@3f6b851f
PUBLIC	__real@3f733333
PUBLIC	__real@3f7d70a4
PUBLIC	__real@3f800000
PUBLIC	__real@3f81df4680000000
PUBLIC	__real@3f860a91
PUBLIC	__real@3f99999a
PUBLIC	__real@3fc00000
PUBLIC	__real@3feb333333333333
PUBLIC	__real@3fefae147ae147ae
PUBLIC	__real@3ff0000000000000
PUBLIC	__real@3ff07ae147ae147b
PUBLIC	__real@3ff921fb54442d18
PUBLIC	__real@40000000
PUBLIC	__real@400921fb54442d18
PUBLIC	__real@4010000000000000
PUBLIC	__real@40400000
PUBLIC	__real@40a00000
PUBLIC	__real@40c90fd9
PUBLIC	__real@41200000
PUBLIC	__real@41400000
PUBLIC	__real@41700000
PUBLIC	__real@42200000
PUBLIC	__real@42652ee1
PUBLIC	__real@42700000
PUBLIC	__real@42c80000
PUBLIC	__real@42c8000d
PUBLIC	__real@42ce0000
PUBLIC	__real@43070000
PUBLIC	__real@43b40000
PUBLIC	__real@43c7fffd
PUBLIC	__real@442f0000
PUBLIC	__real@447a0000
PUBLIC	__real@44fa0000
PUBLIC	__real@451c400a
PUBLIC	__real@459c4000
PUBLIC	__real@466a6000
PUBLIC	__real@47ccffae
PUBLIC	__real@48742400
PUBLIC	__real@8000000000000000
PUBLIC	__real@bf733333
PUBLIC	__real@bf7d70a4
PUBLIC	__real@bf800000
PUBLIC	__real@bff921fb54442d18
PUBLIC	__real@c2f0f6c0
PUBLIC	__real@c37f0000
PUBLIC	__real@c61c4000
PUBLIC	__xmm@41f00000000000000000000000000000
PUBLIC	__xmm@80000000800000008000000080000000
EXTRN	__purecall:PROC
EXTRN	??2@YAPAXI@Z:PROC				; operator new
EXTRN	??3@YAXPAX@Z:PROC				; operator delete
EXTRN	_atexit:PROC
EXTRN	___report_rangecheckfailure:PROC
EXTRN	_sprintf:PROC
EXTRN	_atan:PROC
EXTRN	_fabs:PROC
EXTRN	_sin:PROC
EXTRN	_tan:PROC
EXTRN	_free:PROC
EXTRN	_memcpy:PROC
EXTRN	_strcpy:PROC
EXTRN	_strcat:PROC
EXTRN	_strlen:PROC
EXTRN	_memmove:PROC
EXTRN	__finite:PROC
EXTRN	__isnan:PROC
EXTRN	__imp__GetTickCount@0:PROC
EXTRN	?VuReferenceEntity@@YAHPAVVuEntity@@@Z:PROC	; VuReferenceEntity
EXTRN	?VuDeReferenceEntity@@YAHPAVVuEntity@@@Z:PROC	; VuDeReferenceEntity
EXTRN	?SetPosition@VuEntity@@QAEXMMM@Z:PROC		; VuEntity::SetPosition
EXTRN	?IsLocal@VuEntity@@QBEEXZ:PROC			; VuEntity::IsLocal
EXTRN	?_Xbad_alloc@std@@YAXXZ:PROC			; std::_Xbad_alloc
EXTRN	?_Xlength_error@std@@YAXPBD@Z:PROC		; std::_Xlength_error
EXTRN	?_Xout_of_range@std@@YAXPBD@Z:PROC		; std::_Xout_of_range
EXTRN	?GetCameraEntity@VuSessionEntity@@QBEPAVVuEntity@@E@Z:PROC ; VuSessionEntity::GetCameraEntity
EXTRN	?AttachCamera@VuSessionEntity@@QAEHPAVVuEntity@@_N@Z:PROC ; VuSessionEntity::AttachCamera
EXTRN	?RemoveCamera@VuSessionEntity@@QAEHPAVVuEntity@@_N@Z:PROC ; VuSessionEntity::RemoveCamera
EXTRN	??0VuListIterator@@QAE@PAVVuLinkedList@@@Z:PROC	; VuListIterator::VuListIterator
EXTRN	??1VuListIterator@@UAE@XZ:PROC			; VuListIterator::~VuListIterator
EXTRN	?GetFirst@VuListIterator@@QAEPAVVuEntity@@XZ:PROC ; VuListIterator::GetFirst
EXTRN	?GetNext@VuListIterator@@QAEPAVVuEntity@@XZ:PROC ; VuListIterator::GetNext
EXTRN	?MatrixMult@@YAXPBUTrotation@@0PAU1@@Z:PROC	; MatrixMult
EXTRN	?MatrixMult@@YAXPBUTrotation@@PBUTpoint@@PAU2@@Z:PROC ; MatrixMult
EXTRN	??_Eerror_category@std@@UAEPAXI@Z:PROC		; std::error_category::`vector deleting destructor'
EXTRN	?_Syserror_map@std@@YAPBDH@Z:PROC		; std::_Syserror_map
EXTRN	?_Winerror_map@std@@YAPBDH@Z:PROC		; std::_Winerror_map
EXTRN	??_E_Generic_error_category@std@@UAEPAXI@Z:PROC	; std::_Generic_error_category::`vector deleting destructor'
EXTRN	??_E_Iostream_error_category@std@@UAEPAXI@Z:PROC ; std::_Iostream_error_category::`vector deleting destructor'
EXTRN	??_E_System_error_category@std@@UAEPAXI@Z:PROC	; std::_System_error_category::`vector deleting destructor'
EXTRN	?TestCooperativeLevel@DXContext@@QAEKXZ:PROC	; DXContext::TestCooperativeLevel
EXTRN	?ClearBuffers@ContextMPR@@QAEXG@Z:PROC		; ContextMPR::ClearBuffers
EXTRN	?StartFrame@ContextMPR@@QAEXXZ:PROC		; ContextMPR::StartFrame
EXTRN	?FinishFrame@ContextMPR@@QAEXPAX@Z:PROC		; ContextMPR::FinishFrame
EXTRN	?RestoreState@ContextMPR@@QAEXH@Z:PROC		; ContextMPR::RestoreState
EXTRN	?SetZBuffering@ContextMPR@@QAEXH@Z:PROC		; ContextMPR::SetZBuffering
EXTRN	?SetNVGmode@ContextMPR@@QAEXH@Z:PROC		; ContextMPR::SetNVGmode
EXTRN	?FlushPolyLists@ContextMPR@@QAEXXZ:PROC		; ContextMPR::FlushPolyLists
EXTRN	?RestoreAll@ImageBuffer@@QAEXXZ:PROC		; ImageBuffer::RestoreAll
EXTRN	?SwapBuffers@ImageBuffer@@QAEX_N@Z:PROC		; ImageBuffer::SwapBuffers
EXTRN	?ScreenTextWidth@VirtualDisplay@@SAHPBD@Z:PROC	; VirtualDisplay::ScreenTextWidth
EXTRN	?SetFont@VirtualDisplay@@SAXH@Z:PROC		; VirtualDisplay::SetFont
EXTRN	?GetViewport@VirtualDisplay@@QAEXPAM000@Z:PROC	; VirtualDisplay::GetViewport
EXTRN	?DrawScene@RenderOTW@@QAEXPBUTpoint@@PBUTrotation@@@Z:PROC ; RenderOTW::DrawScene
EXTRN	?PreLoadScene@RenderOTW@@QAEXPBUTpoint@@PBUTrotation@@@Z:PROC ; RenderOTW::PreLoadScene
EXTRN	?SetTunnelPercent@RenderOTW@@QAEXMK@Z:PROC	; RenderOTW::SetTunnelPercent
EXTRN	?DrawTunnelBorder@RenderOTW@@QAEXXZ:PROC	; RenderOTW::DrawTunnelBorder
EXTRN	?Update@RViewPoint@@QAEXPBUTpoint@@@Z:PROC	; RViewPoint::Update
EXTRN	?Draw2DLensFlare@@YAXPAVRenderOTW@@@Z:PROC	; Draw2DLensFlare
EXTRN	?SetTime@TimeManager@@QAEXK@Z:PROC		; TimeManager::SetTime
EXTRN	?Refresh@TimeManager@@QAEXXZ:PROC		; TimeManager::Refresh
EXTRN	?RestoreAll@TextureBankClass@@SAXXZ:PROC	; TextureBankClass::RestoreAll
EXTRN	?ResetLightsList@CDXLight@@QAEXXZ:PROC		; CDXLight::ResetLightsList
EXTRN	?SetStencilMode@CDXEngine@@QAEKK@Z:PROC		; CDXEngine::SetStencilMode
EXTRN	?GetHudColor@HudClass@@QAEKXZ:PROC		; HudClass::GetHudColor
EXTRN	?Exec@MFDClass@@QAEXHH@Z:PROC			; MFDClass::Exec
EXTRN	?SetImageBuffer@MFDClass@@QAEXPAVImageBuffer@@MMMM@Z:PROC ; MFDClass::SetImageBuffer
EXTRN	?FindSensor@@YAPAVSensorClass@@PAVSimMoverClass@@H@Z:PROC ; FindSensor
EXTRN	__imp__timeGetTime@0:PROC
EXTRN	_F4SoundFXSetDist:PROC
EXTRN	_F4SoundFXSetCamPosAndOrient:PROC
EXTRN	?RestoreAll@TextureDB@@QAEXXZ:PROC		; TextureDB::RestoreAll
EXTRN	?SetOTWDisplayMode@OTWDriverClass@@QAEXW4OTWDisplayMode@1@@Z:PROC ; OTWDriverClass::SetOTWDisplayMode
EXTRN	?GetOTWDisplayMode@OTWDriverClass@@QAE?AW4OTWDisplayMode@1@XZ:PROC ; OTWDriverClass::GetOTWDisplayMode
EXTRN	?Draw2DHud@OTWDriverClass@@QAEXXZ:PROC		; OTWDriverClass::Draw2DHud
EXTRN	?GetGroundLevel@OTWDriverClass@@QAEMMMPAUTpoint@@@Z:PROC ; OTWDriverClass::GetGroundLevel
EXTRN	?GetApproxGroundLevel@OTWDriverClass@@QAEMMM@Z:PROC ; OTWDriverClass::GetApproxGroundLevel
EXTRN	?GetAreaFloorAndCeiling@OTWDriverClass@@QAEXPAM0@Z:PROC ; OTWDriverClass::GetAreaFloorAndCeiling
EXTRN	?FlushNearList@OTWDriverClass@@QAEXXZ:PROC	; OTWDriverClass::FlushNearList
EXTRN	?UpdateCameraFocus@OTWDriverClass@@QAEXXZ:PROC	; OTWDriverClass::UpdateCameraFocus
EXTRN	?SetFOV@OTWDriverClass@@QAEXM@Z:PROC		; OTWDriverClass::SetFOV
EXTRN	?GetFOV@OTWDriverClass@@QAEMXZ:PROC		; OTWDriverClass::GetFOV
EXTRN	?ScrollMessages@OTWDriverClass@@QAEXXZ:PROC	; OTWDriverClass::ScrollMessages
EXTRN	?RunActionCamera@OTWDriverClass@@QAEXXZ:PROC	; OTWDriverClass::RunActionCamera
EXTRN	?SetExitMenu@OTWDriverClass@@QAEXH@Z:PROC	; OTWDriverClass::SetExitMenu
EXTRN	?FindNewOwnship@OTWDriverClass@@AAEXXZ:PROC	; OTWDriverClass::FindNewOwnship
EXTRN	?SetExternalCameraPosition@OTWDriverClass@@AAEXM@Z:PROC ; OTWDriverClass::SetExternalCameraPosition
EXTRN	?SetFlybyCameraPosition@OTWDriverClass@@AAEXM@Z:PROC ; OTWDriverClass::SetFlybyCameraPosition
EXTRN	?SetEyeFlyCameraPosition@OTWDriverClass@@AAEXM@Z:PROC ; OTWDriverClass::SetEyeFlyCameraPosition
EXTRN	?UpdateVehicleDrawables@OTWDriverClass@@AAEXXZ:PROC ; OTWDriverClass::UpdateVehicleDrawables
EXTRN	?BuildExternalNearList@OTWDriverClass@@AAEXXZ:PROC ; OTWDriverClass::BuildExternalNearList
EXTRN	?GetUserPosition@OTWDriverClass@@AAEXXZ:PROC	; OTWDriverClass::GetUserPosition
EXTRN	?ShowVersionString@OTWDriverClass@@AAEXXZ:PROC	; OTWDriverClass::ShowVersionString
EXTRN	?ShowPosition@OTWDriverClass@@AAEXXZ:PROC	; OTWDriverClass::ShowPosition
EXTRN	?ShowAerodynamics@OTWDriverClass@@AAEXXZ:PROC	; OTWDriverClass::ShowAerodynamics
EXTRN	?ShowFlaps@OTWDriverClass@@AAEXXZ:PROC		; OTWDriverClass::ShowFlaps
EXTRN	?ShowEngine@OTWDriverClass@@AAEXXZ:PROC		; OTWDriverClass::ShowEngine
EXTRN	?ShowCatMessage@OTWDriverClass@@AAEXXZ:PROC	; OTWDriverClass::ShowCatMessage
EXTRN	?TakeScreenShot@OTWDriverClass@@AAEXXZ:PROC	; OTWDriverClass::TakeScreenShot
EXTRN	?DrawExitMenu@OTWDriverClass@@AAEXXZ:PROC	; OTWDriverClass::DrawExitMenu
EXTRN	?ShowThrustReverse@OTWDriverClass@@AAEXXZ:PROC	; OTWDriverClass::ShowThrustReverse
EXTRN	?RunHybridPitMode@OTWDriverClass@@AAEXMM@Z:PROC	; OTWDriverClass::RunHybridPitMode
EXTRN	?GetHybridPitMode@OTWDriverClass@@QAEHXZ:PROC	; OTWDriverClass::GetHybridPitMode
EXTRN	?DrawExternalViewTarget@OTWDriverClass@@AAEXXZ:PROC ; OTWDriverClass::DrawExternalViewTarget
EXTRN	?BuildHeadMatrix@OTWDriverClass@@AAEXHHMMM@Z:PROC ; OTWDriverClass::BuildHeadMatrix
EXTRN	?Padlock_FindNextPriority@OTWDriverClass@@AAEXH@Z:PROC ; OTWDriverClass::Padlock_FindNextPriority
EXTRN	?Padlock_CheckPadlock@OTWDriverClass@@AAEXM@Z:PROC ; OTWDriverClass::Padlock_CheckPadlock
EXTRN	?Padlock_DrawSquares@OTWDriverClass@@AAEXH@Z:PROC ; OTWDriverClass::Padlock_DrawSquares
EXTRN	?PadlockF3_CalcCamera@OTWDriverClass@@AAEXM@Z:PROC ; OTWDriverClass::PadlockF3_CalcCamera
EXTRN	?PadlockF3_Draw@OTWDriverClass@@AAEXXZ:PROC	; OTWDriverClass::PadlockF3_Draw
EXTRN	?PadlockEFOV_Draw@OTWDriverClass@@AAEXXZ:PROC	; OTWDriverClass::PadlockEFOV_Draw
EXTRN	?VCock_GiveGilmanHead@OTWDriverClass@@AAEXM@Z:PROC ; OTWDriverClass::VCock_GiveGilmanHead
EXTRN	?VCock_DrawThePit@OTWDriverClass@@AAEXXZ:PROC	; OTWDriverClass::VCock_DrawThePit
EXTRN	?VCock_HeadCalc@OTWDriverClass@@AAEXXZ:PROC	; OTWDriverClass::VCock_HeadCalc
EXTRN	?VCock_Exec@OTWDriverClass@@AAEXXZ:PROC		; OTWDriverClass::VCock_Exec
EXTRN	?CockAttachWeapons@OTWDriverClass@@QAEXXZ:PROC	; OTWDriverClass::CockAttachWeapons
EXTRN	?CockDetachWeapons@OTWDriverClass@@QAEXXZ:PROC	; OTWDriverClass::CockDetachWeapons
EXTRN	?GetFault@FackClass@@QAEHW4type_FSubSystem@FaultClass@@@Z:PROC ; FackClass::GetFault
EXTRN	?ExecPfl@ICPClass@@QAEXXZ:PROC			; ICPClass::ExecPfl
EXTRN	?Exec@ICPClass@@QAEXXZ:PROC			; ICPClass::Exec
EXTRN	?Exec@CockpitManager@@QAEXXZ:PROC		; CockpitManager::Exec
EXTRN	?DisplayBlit@CockpitManager@@QAEXXZ:PROC	; CockpitManager::DisplayBlit
EXTRN	?DisplayDraw@CockpitManager@@QAEXXZ:PROC	; CockpitManager::DisplayDraw
EXTRN	?GeometryDraw@CockpitManager@@QAEXXZ:PROC	; CockpitManager::GeometryDraw
EXTRN	?DisplayBlit3D@CockpitManager@@QAEXXZ:PROC	; CockpitManager::DisplayBlit3D
EXTRN	?ShowHud@CockpitManager@@QAEHXZ:PROC		; CockpitManager::ShowHud
EXTRN	?ShowRwr@CockpitManager@@QAEHXZ:PROC		; CockpitManager::ShowRwr
EXTRN	?GetViewportBounds@CockpitManager@@QAEHPAUViewportBounds@@H@Z:PROC ; CockpitManager::GetViewportBounds
EXTRN	?GetCockpitMaskTop@CockpitManager@@QAEMXZ:PROC	; CockpitManager::GetCockpitMaskTop
EXTRN	?SetNextView@CockpitManager@@QAEXXZ:PROC	; CockpitManager::SetNextView
EXTRN	?GetPan@CockpitManager@@QAEMXZ:PROC		; CockpitManager::GetPan
EXTRN	?GetTilt@CockpitManager@@QAEMXZ:PROC		; CockpitManager::GetTilt
EXTRN	?SetTOD@CockpitManager@@QAEXM@Z:PROC		; CockpitManager::SetTOD
EXTRN	?LoadCockpitDefaults@CockpitManager@@QAEXXZ:PROC ; CockpitManager::LoadCockpitDefaults
EXTRN	?MFDFont@CockpitManager@@QAEHXZ:PROC		; CockpitManager::MFDFont
EXTRN	?Set2DPanelDirection@CockpitManager@@QAEHMM@Z:PROC ; CockpitManager::Set2DPanelDirection
EXTRN	?CockAttachWeapons@CockpitManager@@QAEXXZ:PROC	; CockpitManager::CockAttachWeapons
EXTRN	?CockDetachWeapons@CockpitManager@@QAEXXZ:PROC	; CockpitManager::CockDetachWeapons
EXTRN	?SetTurbulence@CockpitManager@@QAEXXZ:PROC	; CockpitManager::SetTurbulence
EXTRN	?AddTurbulenceVp@CockpitManager@@QAEXPAUViewportBounds@@@Z:PROC ; CockpitManager::AddTurbulenceVp
EXTRN	?StopGraphics@SimulationLoopControl@@SAXXZ:PROC	; SimulationLoopControl::StopGraphics
EXTRN	?SetAutopilot@AircraftClass@@QAEXW4AutoPilotType@1@@Z:PROC ; AircraftClass::SetAutopilot
EXTRN	?HasPower@AircraftClass@@QAEHW4AvionicsPowerFlags@1@@Z:PROC ; AircraftClass::HasPower
EXTRN	?GetPlayerAircraft@SimulationDriver@@QBEPAVAircraftClass@@XZ:PROC ; SimulationDriver::GetPlayerAircraft
EXTRN	?POVKludgeFunction@SimulationDriver@@QAEXK@Z:PROC ; SimulationDriver::POVKludgeFunction
EXTRN	?GetTacanChannel@NavigationSystem@@QAEHW4Tacan_Channel_Src@1@@Z:PROC ; NavigationSystem::GetTacanChannel
EXTRN	?Exec@CPHsi@@QAEXXZ:PROC			; CPHsi::Exec
EXTRN	?GetState@CPHsi@@QAEHW4HSIButtonStates@1@@Z:PROC ; CPHsi::GetState
EXTRN	?GetValue@CPHsi@@QAEMW4HSIValues@1@@Z:PROC	; CPHsi::GetValue
EXTRN	?GetFlag@CPHsi@@QAEHW4HSIFlags@1@@Z:PROC	; CPHsi::GetFlag
EXTRN	?RefreshWeather@RealWeather@@QAEXPAVRenderOTW@@@Z:PROC ; RealWeather::RefreshWeather
EXTRN	?UpdateWeather@WeatherClass@@QAEXXZ:PROC	; WeatherClass::UpdateWeather
EXTRN	?WindSpeedInFeetPerSecond@WeatherClass@@QAEMPBUTpoint@@@Z:PROC ; WeatherClass::WindSpeedInFeetPerSecond
EXTRN	?WindHeadingAt@WeatherClass@@QAEMPBUTpoint@@@Z:PROC ; WeatherClass::WindHeadingAt
EXTRN	?PercentTapeFull@ACMIRecorder@@QAEHXZ:PROC	; ACMIRecorder::PercentTapeFull
EXTRN	?ClipAndDrawCursor@@YAXHH@Z:PROC		; ClipAndDrawCursor
EXTRN	?SimInteriorLight@@YAXKHPAX@Z:PROC		; SimInteriorLight
EXTRN	?SimInstrumentLight@@YAXKHPAX@Z:PROC		; SimInstrumentLight
EXTRN	?GetFuel@AirframeClass@@QAEXPAM00@Z:PROC	; AirframeClass::GetFuel
EXTRN	?DisplayDraw@MenuManager@@QAEXXZ:PROC		; MenuManager::DisplayDraw
EXTRN	?DeActivate@MenuManager@@QAEXXZ:PROC		; MenuManager::DeActivate
EXTRN	?RestoreAll@FarTexDB@@QAEXXZ:PROC		; FarTexDB::RestoreAll
EXTRN	?GetTimeSortedMessages@RadioSubTitle@@QAEPAPAUColouredSubTitle@@K@Z:PROC ; RadioSubTitle::GetTimeSortedMessages
EXTRN	?MakeTacEngScoreList@@YAXXZ:PROC		; MakeTacEngScoreList
EXTRN	?MakeDogfightTopTen@@YAXH@Z:PROC		; MakeDogfightTopTen
EXTRN	?TrackIR_2D_Map@TrackIR@@QAEHXZ:PROC		; TrackIR::TrackIR_2D_Map
EXTRN	?GetAxisValue@SIMLIB_IO_CLASS@@QAEHW4GameAxis_t@@@Z:PROC ; SIMLIB_IO_CLASS::GetAxisValue
EXTRN	@__security_check_cookie@4:PROC
EXTRN	__CxxThrowException@8:PROC
EXTRN	___CxxFrameHandler3:PROC
EXTRN	?vuLocalSessionEntity@@3V?$VuBin@VVuSessionEntity@@@@A:DWORD ; vuLocalSessionEntity
EXTRN	?vuxGameTime@@3KA:DWORD				; vuxGameTime
EXTRN	?vuxRealTime@@3KA:DWORD				; vuxRealTime
EXTRN	?SimLibElapsedTime@@3KA:DWORD			; SimLibElapsedTime
EXTRN	?TheTimeOfDay@@3VCTimeOfDay@@A:BYTE		; TheTimeOfDay
EXTRN	??_7type_info@@6B@:QWORD			; type_info::`vftable'
EXTRN	?pFontSet@VirtualDisplay@@2PAUFontSet@@A:DWORD	; VirtualDisplay::pFontSet
EXTRN	?RatedLoad@ObjectLOD@@1_NA:BYTE			; ObjectLOD::RatedLoad
EXTRN	?drawLabels@DrawableBSP@@2HA:DWORD		; DrawableBSP::drawLabels
EXTRN	?TheTimeManager@@3VTimeManager@@A:BYTE		; TheTimeManager
EXTRN	?RatedLoad@TextureBankClass@@1_NA:BYTE		; TextureBankClass::RatedLoad
EXTRN	?TheLightEngine@@3VCDXLight@@A:BYTE		; TheLightEngine
EXTRN	?m_StencilRef@CDXEngine@@0KA:DWORD		; CDXEngine::m_StencilRef
EXTRN	?m_PitMode@CDXEngine@@0_NA:BYTE			; CDXEngine::m_PitMode
EXTRN	?m_pD3DD@CDXEngine@@0PAUIDirect3DDevice7@@A:DWORD ; CDXEngine::m_pD3DD
EXTRN	?m_RenderState@CDXEngine@@0W4DX_StateType@@A:DWORD ; CDXEngine::m_RenderState
EXTRN	?m_StatesStackLevel@CDXEngine@@0KA:DWORD	; CDXEngine::m_StatesStackLevel
EXTRN	?TheDXEngine@@3VCDXEngine@@A:BYTE		; TheDXEngine
EXTRN	?gameCompressionRatio@@3HA:DWORD		; gameCompressionRatio
EXTRN	?targetCompressionRatio@@3HA:DWORD		; targetCompressionRatio
EXTRN	?remoteCompressionRequests@@3HA:DWORD		; remoteCompressionRequests
EXTRN	?TheHud@@3PAVHudClass@@A:DWORD			; TheHud
EXTRN	?MfdDisplay@@3PAPAVMFDClass@@A:BYTE		; MfdDisplay
EXTRN	?TheTerrTextures@@3VTextureDB@@A:BYTE		; TheTerrTextures
EXTRN	?PlayerOptions@@3VPlayerOptionsClass@@A:BYTE	; PlayerOptions
EXTRN	?OTWDriver@@3VOTWDriverClass@@A:BYTE		; OTWDriver
EXTRN	?DisplayOptions@@3VDisplayOptionsClass@@A:BYTE	; DisplayOptions
EXTRN	?cockpitFlightData@@3VFlightData@@A:BYTE	; cockpitFlightData
EXTRN	?gDoCockpitHack@@3HA:DWORD			; gDoCockpitHack
EXTRN	?ComplexGearDOF@@3PAHA:BYTE			; ComplexGearDOF
EXTRN	?SimDriver@@3VSimulationDriver@@A:BYTE		; SimDriver
EXTRN	?gNavigationSys@@3PAVNavigationSystem@@A:DWORD	; gNavigationSys
EXTRN	?realWeather@@3PAVRealWeather@@A:DWORD		; realWeather
EXTRN	?gACMIRec@@3VACMIRecorder@@A:BYTE		; gACMIRec
EXTRN	?gSelectedCursor@@3HA:DWORD			; gSelectedCursor
EXTRN	?gSimInputEnabled@@3HA:DWORD			; gSimInputEnabled
EXTRN	?gTimeLastCursorUpdate@@3KA:DWORD		; gTimeLastCursorUpdate
EXTRN	?SimDogfight@@3VDogfightClass@@A:BYTE		; SimDogfight
EXTRN	?gCommsMgr@@3PAVUIComms@@A:DWORD		; gCommsMgr
EXTRN	?UserStickInputs@@3VPilotInputs@@A:BYTE		; UserStickInputs
EXTRN	?g_intellivibeData@@3VIntellivibeData@@A:BYTE	; g_intellivibeData
EXTRN	?TheFarTextures@@3VFarTexDB@@A:BYTE		; TheFarTextures
EXTRN	?radioLabel@@3PAVRadioSubTitle@@A:DWORD		; radioLabel
EXTRN	?weatherCondition@@3HA:DWORD			; weatherCondition
EXTRN	?mHelmetIsUR@@3JA:DWORD				; mHelmetIsUR
EXTRN	?g_bLookCloserFix@@3_NA:BYTE			; g_bLookCloserFix
EXTRN	?g_bLensFlare@@3_NA:BYTE			; g_bLensFlare
EXTRN	?g_bACMIRecordMsgOff@@3_NA:BYTE			; g_bACMIRecordMsgOff
EXTRN	?g_fMaximumFOV@@3MA:DWORD			; g_fMaximumFOV
EXTRN	?g_fMinimumFOV@@3MA:DWORD			; g_fMinimumFOV
EXTRN	?g_nNewFPSCounter@@3HA:DWORD			; g_nNewFPSCounter
EXTRN	?g_bNew2DTrackIR@@3_NA:BYTE			; g_bNew2DTrackIR
EXTRN	?CompressionStr@@3PAY0BE@DA:BYTE		; CompressionStr
EXTRN	?CameraLabel@@3PAY0CI@DA:BYTE			; CameraLabel
EXTRN	?lTestFlag1@@3HA:DWORD				; lTestFlag1
EXTRN	?gRefreshScoresList@@3JA:DWORD			; gRefreshScoresList
EXTRN	?gScoreName@@3PAY0BO@DA:BYTE			; gScoreName
EXTRN	?gScorePoints@@3PAY09DA:BYTE			; gScorePoints
EXTRN	?g_nPadlockMode@@3HA:DWORD			; g_nPadlockMode
EXTRN	?g_bNoMFDsIn1View@@3_NA:BYTE			; g_bNoMFDsIn1View
EXTRN	?ShowVersion@@3HA:DWORD				; ShowVersion
EXTRN	?ShowFrameRate@@3HA:DWORD			; ShowFrameRate
EXTRN	?eyeFlyTgt@@3PAVSimBaseClass@@A:DWORD		; eyeFlyTgt
EXTRN	?gSharedMemPtr@@3PAXA:DWORD			; gSharedMemPtr
EXTRN	?gSharedIntellivibe@@3PAXA:DWORD		; gSharedIntellivibe
EXTRN	?nextCampObjectHeightRefresh@@3KA:DWORD		; nextCampObjectHeightRefresh
EXTRN	?chatterCount@@3IA:DWORD			; chatterCount
EXTRN	?chatterStr@@3PADA:BYTE				; chatterStr
EXTRN	?gOtwCameraLocation@@3PAVFalconEntity@@A:DWORD	; gOtwCameraLocation
EXTRN	?g_bEnableTrackIR@@3_NA:BYTE			; g_bEnableTrackIR
EXTRN	?theTrackIRObject@@3VTrackIR@@A:BYTE		; theTrackIRObject
EXTRN	?g_nTrackIRSampleFreq@@3HA:DWORD		; g_nTrackIRSampleFreq
EXTRN	?IO@@3VSIMLIB_IO_CLASS@@A:BYTE			; IO
EXTRN	?MouseMenuActive@@3_NA:BYTE			; MouseMenuActive
EXTRN	?hudViewportBounds@@3UViewportBounds@@A:BYTE	; hudViewportBounds
EXTRN	___security_cookie:DWORD
EXTRN	__fltused:DWORD
_BSS	SEGMENT
	ALIGN	4

_piecewise_construct DB 01H DUP (?)
	ALIGN	4

_allocator_arg DB 01H DUP (?)
_BSS	ENDS
;	COMDAT ?_Generic_object@?$_Error_objects@H@std@@2V_Generic_error_category@2@A
_BSS	SEGMENT
?_Generic_object@?$_Error_objects@H@std@@2V_Generic_error_category@2@A DD 01H DUP (?) ; std::_Error_objects<int>::_Generic_object
_BSS	ENDS
;	COMDAT ?_Iostream_object@?$_Error_objects@H@std@@2V_Iostream_error_category@2@A
_BSS	SEGMENT
?_Iostream_object@?$_Error_objects@H@std@@2V_Iostream_error_category@2@A DD 01H DUP (?) ; std::_Error_objects<int>::_Iostream_object
_BSS	ENDS
;	COMDAT ?_System_object@?$_Error_objects@H@std@@2V_System_error_category@2@A
_BSS	SEGMENT
?_System_object@?$_Error_objects@H@std@@2V_System_error_category@2@A DD 01H DUP (?) ; std::_Error_objects<int>::_System_object
_BSS	ENDS
;	COMDAT ?id@?$num_put@DV?$back_insert_iterator@V?$basic_string@DU?$char_traits@D@std@@V?$allocator@D@2@@std@@@std@@@std@@2V0locale@2@A
_BSS	SEGMENT
?id@?$num_put@DV?$back_insert_iterator@V?$basic_string@DU?$char_traits@D@std@@V?$allocator@D@2@@std@@@std@@@std@@2V0locale@2@A DD 01H DUP (?) ; std::num_put<char,std::back_insert_iterator<std::basic_string<char,std::char_traits<char>,std::allocator<char> > > >::id
_BSS	ENDS
;	COMDAT ?id@?$num_put@_WV?$back_insert_iterator@V?$basic_string@_WU?$char_traits@_W@std@@V?$allocator@_W@2@@std@@@std@@@std@@2V0locale@2@A
_BSS	SEGMENT
?id@?$num_put@_WV?$back_insert_iterator@V?$basic_string@_WU?$char_traits@_W@std@@V?$allocator@_W@2@@std@@@std@@@std@@2V0locale@2@A DD 01H DUP (?) ; std::num_put<wchar_t,std::back_insert_iterator<std::basic_string<wchar_t,std::char_traits<wchar_t>,std::allocator<wchar_t> > > >::id
_BSS	ENDS
_BSS	SEGMENT
	ALIGN	4

_tmpStr	DB	080H DUP (?)
_BSS	ENDS
;	COMDAT ?newsecond@?PB@??DisplayFrontText@OTWDriverClass@@QAEXXZ@4MA
_BSS	SEGMENT
?newsecond@?PB@??DisplayFrontText@OTWDriverClass@@QAEXXZ@4MA DD 01H DUP (?) ; `OTWDriverClass::DisplayFrontText'::`241'::newsecond
_BSS	ENDS
;	COMDAT ?numframes@?PB@??DisplayFrontText@OTWDriverClass@@QAEXXZ@4HA
_BSS	SEGMENT
?numframes@?PB@??DisplayFrontText@OTWDriverClass@@QAEXXZ@4HA DD 01H DUP (?) ; `OTWDriverClass::DisplayFrontText'::`241'::numframes
_BSS	ENDS
;	COMDAT ?lastfps@?PB@??DisplayFrontText@OTWDriverClass@@QAEXXZ@4HA
_BSS	SEGMENT
?lastfps@?PB@??DisplayFrontText@OTWDriverClass@@QAEXXZ@4HA DD 01H DUP (?) ; `OTWDriverClass::DisplayFrontText'::`241'::lastfps
_BSS	ENDS
;	COMDAT ?count@?1??RenderFrame@OTWDriverClass@@QAEXXZ@4HA
_BSS	SEGMENT
?count@?1??RenderFrame@OTWDriverClass@@QAEXXZ@4HA DD 01H DUP (?) ; `OTWDriverClass::RenderFrame'::`2'::count
_BSS	ENDS
;	COMDAT ?lastpan@?1??RunNew2DTrackIR@OTWDriverClass@@AAEXMM@Z@4MA
_BSS	SEGMENT
?lastpan@?1??RunNew2DTrackIR@OTWDriverClass@@AAEXMM@Z@4MA DD 01H DUP (?) ; `OTWDriverClass::RunNew2DTrackIR'::`2'::lastpan
_BSS	ENDS
;	COMDAT ?$S1@?1??RunNew2DTrackIR@OTWDriverClass@@AAEXMM@Z@4IA
_BSS	SEGMENT
?$S1@?1??RunNew2DTrackIR@OTWDriverClass@@AAEXMM@Z@4IA DD 01H DUP (?) ; `OTWDriverClass::RunNew2DTrackIR'::`2'::$S1
_BSS	ENDS
;	COMDAT ?lasttilt@?1??RunNew2DTrackIR@OTWDriverClass@@AAEXMM@Z@4MA
_BSS	SEGMENT
?lasttilt@?1??RunNew2DTrackIR@OTWDriverClass@@AAEXMM@Z@4MA DD 01H DUP (?) ; `OTWDriverClass::RunNew2DTrackIR'::`2'::lasttilt
_BSS	ENDS
;	COMDAT ?id@?$numpunct@D@std@@2V0locale@2@A
_BSS	SEGMENT
?id@?$numpunct@D@std@@2V0locale@2@A DD 01H DUP (?)	; std::numpunct<char>::id
_BSS	ENDS
;	COMDAT ?id@?$numpunct@_W@std@@2V0locale@2@A
_BSS	SEGMENT
?id@?$numpunct@_W@std@@2V0locale@2@A DD 01H DUP (?)	; std::numpunct<wchar_t>::id
_BSS	ENDS
CRT$XCU	SEGMENT
_piecewise_construct$initializer$ DD FLAT:??__Epiecewise_construct@std@@YAXXZ
CRT$XCU	ENDS
;	COMDAT __xmm@80000000800000008000000080000000
CONST	SEGMENT
__xmm@80000000800000008000000080000000 DB 00H, 00H, 00H, 080H, 00H, 00H, 00H
	DB	080H, 00H, 00H, 00H, 080H, 00H, 00H, 00H, 080H
CONST	ENDS
;	COMDAT __xmm@41f00000000000000000000000000000
CONST	SEGMENT
__xmm@41f00000000000000000000000000000 DB 00H, 00H, 00H, 00H, 00H, 00H, 00H
	DB	00H, 00H, 00H, 00H, 00H, 00H, 00H, 0f0H, 'A'
CONST	ENDS
;	COMDAT __real@c61c4000
CONST	SEGMENT
__real@c61c4000 DD 0c61c4000r			; -10000
CONST	ENDS
;	COMDAT __real@c37f0000
CONST	SEGMENT
__real@c37f0000 DD 0c37f0000r			; -255
CONST	ENDS
;	COMDAT __real@c2f0f6c0
CONST	SEGMENT
__real@c2f0f6c0 DD 0c2f0f6c0r			; -120.482
CONST	ENDS
;	COMDAT __real@bff921fb54442d18
CONST	SEGMENT
__real@bff921fb54442d18 DQ 0bff921fb54442d18r	; -1.5708
CONST	ENDS
;	COMDAT __real@bf800000
CONST	SEGMENT
__real@bf800000 DD 0bf800000r			; -1
CONST	ENDS
;	COMDAT __real@bf7d70a4
CONST	SEGMENT
__real@bf7d70a4 DD 0bf7d70a4r			; -0.99
CONST	ENDS
;	COMDAT __real@bf733333
CONST	SEGMENT
__real@bf733333 DD 0bf733333r			; -0.95
CONST	ENDS
;	COMDAT __real@8000000000000000
CONST	SEGMENT
__real@8000000000000000 DQ 08000000000000000r	; -0
CONST	ENDS
;	COMDAT __real@48742400
CONST	SEGMENT
__real@48742400 DD 048742400r			; 250000
CONST	ENDS
;	COMDAT __real@47ccffae
CONST	SEGMENT
__real@47ccffae DD 047ccffaer			; 104959
CONST	ENDS
;	COMDAT __real@466a6000
CONST	SEGMENT
__real@466a6000 DD 0466a6000r			; 15000
CONST	ENDS
;	COMDAT __real@459c4000
CONST	SEGMENT
__real@459c4000 DD 0459c4000r			; 5000
CONST	ENDS
;	COMDAT __real@451c400a
CONST	SEGMENT
__real@451c400a DD 0451c400ar			; 2500
CONST	ENDS
;	COMDAT __real@44fa0000
CONST	SEGMENT
__real@44fa0000 DD 044fa0000r			; 2000
CONST	ENDS
;	COMDAT __real@447a0000
CONST	SEGMENT
__real@447a0000 DD 0447a0000r			; 1000
CONST	ENDS
;	COMDAT __real@442f0000
CONST	SEGMENT
__real@442f0000 DD 0442f0000r			; 700
CONST	ENDS
;	COMDAT __real@43c7fffd
CONST	SEGMENT
__real@43c7fffd DD 043c7fffdr			; 400
CONST	ENDS
;	COMDAT __real@43b40000
CONST	SEGMENT
__real@43b40000 DD 043b40000r			; 360
CONST	ENDS
;	COMDAT __real@43070000
CONST	SEGMENT
__real@43070000 DD 043070000r			; 135
CONST	ENDS
;	COMDAT __real@42ce0000
CONST	SEGMENT
__real@42ce0000 DD 042ce0000r			; 103
CONST	ENDS
;	COMDAT __real@42c8000d
CONST	SEGMENT
__real@42c8000d DD 042c8000dr			; 100
CONST	ENDS
;	COMDAT __real@42c80000
CONST	SEGMENT
__real@42c80000 DD 042c80000r			; 100
CONST	ENDS
;	COMDAT __real@42700000
CONST	SEGMENT
__real@42700000 DD 042700000r			; 60
CONST	ENDS
;	COMDAT __real@42652ee1
CONST	SEGMENT
__real@42652ee1 DD 042652ee1r			; 57.2958
CONST	ENDS
;	COMDAT __real@42200000
CONST	SEGMENT
__real@42200000 DD 042200000r			; 40
CONST	ENDS
;	COMDAT __real@41700000
CONST	SEGMENT
__real@41700000 DD 041700000r			; 15
CONST	ENDS
;	COMDAT __real@41400000
CONST	SEGMENT
__real@41400000 DD 041400000r			; 12
CONST	ENDS
;	COMDAT __real@41200000
CONST	SEGMENT
__real@41200000 DD 041200000r			; 10
CONST	ENDS
;	COMDAT __real@40c90fd9
CONST	SEGMENT
__real@40c90fd9 DD 040c90fd9r			; 6.28318
CONST	ENDS
;	COMDAT __real@40a00000
CONST	SEGMENT
__real@40a00000 DD 040a00000r			; 5
CONST	ENDS
;	COMDAT __real@40400000
CONST	SEGMENT
__real@40400000 DD 040400000r			; 3
CONST	ENDS
;	COMDAT __real@4010000000000000
CONST	SEGMENT
__real@4010000000000000 DQ 04010000000000000r	; 4
CONST	ENDS
;	COMDAT __real@400921fb54442d18
CONST	SEGMENT
__real@400921fb54442d18 DQ 0400921fb54442d18r	; 3.14159
CONST	ENDS
;	COMDAT __real@40000000
CONST	SEGMENT
__real@40000000 DD 040000000r			; 2
CONST	ENDS
;	COMDAT __real@3ff921fb54442d18
CONST	SEGMENT
__real@3ff921fb54442d18 DQ 03ff921fb54442d18r	; 1.5708
CONST	ENDS
;	COMDAT __real@3ff07ae147ae147b
CONST	SEGMENT
__real@3ff07ae147ae147b DQ 03ff07ae147ae147br	; 1.03
CONST	ENDS
;	COMDAT __real@3ff0000000000000
CONST	SEGMENT
__real@3ff0000000000000 DQ 03ff0000000000000r	; 1
CONST	ENDS
;	COMDAT __real@3fefae147ae147ae
CONST	SEGMENT
__real@3fefae147ae147ae DQ 03fefae147ae147aer	; 0.99
CONST	ENDS
;	COMDAT __real@3feb333333333333
CONST	SEGMENT
__real@3feb333333333333 DQ 03feb333333333333r	; 0.85
CONST	ENDS
;	COMDAT __real@3fc00000
CONST	SEGMENT
__real@3fc00000 DD 03fc00000r			; 1.5
CONST	ENDS
;	COMDAT __real@3f99999a
CONST	SEGMENT
__real@3f99999a DD 03f99999ar			; 1.2
CONST	ENDS
;	COMDAT __real@3f860a91
CONST	SEGMENT
__real@3f860a91 DD 03f860a91r			; 1.0472
CONST	ENDS
;	COMDAT __real@3f81df4680000000
CONST	SEGMENT
__real@3f81df4680000000 DQ 03f81df4680000000r	; 0.00872665
CONST	ENDS
;	COMDAT __real@3f800000
CONST	SEGMENT
__real@3f800000 DD 03f800000r			; 1
CONST	ENDS
;	COMDAT __real@3f7d70a4
CONST	SEGMENT
__real@3f7d70a4 DD 03f7d70a4r			; 0.99
CONST	ENDS
;	COMDAT __real@3f733333
CONST	SEGMENT
__real@3f733333 DD 03f733333r			; 0.95
CONST	ENDS
;	COMDAT __real@3f6b851f
CONST	SEGMENT
__real@3f6b851f DD 03f6b851fr			; 0.92
CONST	ENDS
;	COMDAT __real@3f6b851e
CONST	SEGMENT
__real@3f6b851e DD 03f6b851er			; 0.92
CONST	ENDS
;	COMDAT __real@3f666667
CONST	SEGMENT
__real@3f666667 DD 03f666667r			; 0.9
CONST	ENDS
;	COMDAT __real@3f666666
CONST	SEGMENT
__real@3f666666 DD 03f666666r			; 0.9
CONST	ENDS
;	COMDAT __real@3f63d70a
CONST	SEGMENT
__real@3f63d70a DD 03f63d70ar			; 0.89
CONST	ENDS
;	COMDAT __real@3f59999a
CONST	SEGMENT
__real@3f59999a DD 03f59999ar			; 0.85
CONST	ENDS
;	COMDAT __real@3f570a3d
CONST	SEGMENT
__real@3f570a3d DD 03f570a3dr			; 0.84
CONST	ENDS
;	COMDAT __real@3f547ae1
CONST	SEGMENT
__real@3f547ae1 DD 03f547ae1r			; 0.83
CONST	ENDS
;	COMDAT __real@3f4ccccd
CONST	SEGMENT
__real@3f4ccccd DD 03f4ccccdr			; 0.8
CONST	ENDS
;	COMDAT __real@3f400000
CONST	SEGMENT
__real@3f400000 DD 03f400000r			; 0.75
CONST	ENDS
;	COMDAT __real@3f333333
CONST	SEGMENT
__real@3f333333 DD 03f333333r			; 0.7
CONST	ENDS
;	COMDAT __real@3f19999a
CONST	SEGMENT
__real@3f19999a DD 03f19999ar			; 0.6
CONST	ENDS
;	COMDAT __real@3f17ac60
CONST	SEGMENT
__real@3f17ac60 DD 03f17ac60r			; 0.592474
CONST	ENDS
;	COMDAT __real@3f147ae2
CONST	SEGMENT
__real@3f147ae2 DD 03f147ae2r			; 0.58
CONST	ENDS
;	COMDAT __real@3f000000
CONST	SEGMENT
__real@3f000000 DD 03f000000r			; 0.5
CONST	ENDS
;	COMDAT __real@3e99999a
CONST	SEGMENT
__real@3e99999a DD 03e99999ar			; 0.3
CONST	ENDS
;	COMDAT __real@3e32b8c1
CONST	SEGMENT
__real@3e32b8c1 DD 03e32b8c1r			; 0.174533
CONST	ENDS
;	COMDAT __real@3d4ccccd
CONST	SEGMENT
__real@3d4ccccd DD 03d4ccccdr			; 0.05
CONST	ENDS
;	COMDAT __real@3cf5c28f
CONST	SEGMENT
__real@3cf5c28f DD 03cf5c28fr			; 0.03
CONST	ENDS
;	COMDAT __real@3c8efa34
CONST	SEGMENT
__real@3c8efa34 DD 03c8efa34r			; 0.0174533
CONST	ENDS
;	COMDAT __real@3c23d70a
CONST	SEGMENT
__real@3c23d70a DD 03c23d70ar			; 0.01
CONST	ENDS
;	COMDAT __real@3a83126f
CONST	SEGMENT
__real@3a83126f DD 03a83126fr			; 0.001
CONST	ENDS
;	COMDAT __real@0000000000000000
CONST	SEGMENT
__real@0000000000000000 DQ 00000000000000000r	; 0
CONST	ENDS
;	COMDAT __real@00000000
CONST	SEGMENT
__real@00000000 DD 000000000r			; 0
CONST	ENDS
;	COMDAT ??_R1A@?0A@EA@_System_error_category@std@@8
rdata$r	SEGMENT
??_R1A@?0A@EA@_System_error_category@std@@8 DD FLAT:??_R0?AV_System_error_category@std@@@8 ; std::_System_error_category::`RTTI Base Class Descriptor at (0,-1,0,64)'
	DD	02H
	DD	00H
	DD	0ffffffffH
	DD	00H
	DD	040H
	DD	FLAT:??_R3_System_error_category@std@@8
rdata$r	ENDS
;	COMDAT ??_R2_System_error_category@std@@8
rdata$r	SEGMENT
??_R2_System_error_category@std@@8 DD FLAT:??_R1A@?0A@EA@_System_error_category@std@@8 ; std::_System_error_category::`RTTI Base Class Array'
	DD	FLAT:??_R1A@?0A@EA@_Generic_error_category@std@@8
	DD	FLAT:??_R1A@?0A@EA@error_category@std@@8
rdata$r	ENDS
;	COMDAT ??_R3_System_error_category@std@@8
rdata$r	SEGMENT
??_R3_System_error_category@std@@8 DD 00H		; std::_System_error_category::`RTTI Class Hierarchy Descriptor'
	DD	00H
	DD	03H
	DD	FLAT:??_R2_System_error_category@std@@8
rdata$r	ENDS
;	COMDAT ??_R0?AV_System_error_category@std@@@8
_DATA	SEGMENT
??_R0?AV_System_error_category@std@@@8 DD FLAT:??_7type_info@@6B@ ; std::_System_error_category `RTTI Type Descriptor'
	DD	00H
	DB	'.?AV_System_error_category@std@@', 00H
_DATA	ENDS
;	COMDAT ??_R4_System_error_category@std@@6B@
rdata$r	SEGMENT
??_R4_System_error_category@std@@6B@ DD 00H		; std::_System_error_category::`RTTI Complete Object Locator'
	DD	00H
	DD	00H
	DD	FLAT:??_R0?AV_System_error_category@std@@@8
	DD	FLAT:??_R3_System_error_category@std@@8
rdata$r	ENDS
;	COMDAT ??_R1A@?0A@EA@_Iostream_error_category@std@@8
rdata$r	SEGMENT
??_R1A@?0A@EA@_Iostream_error_category@std@@8 DD FLAT:??_R0?AV_Iostream_error_category@std@@@8 ; std::_Iostream_error_category::`RTTI Base Class Descriptor at (0,-1,0,64)'
	DD	02H
	DD	00H
	DD	0ffffffffH
	DD	00H
	DD	040H
	DD	FLAT:??_R3_Iostream_error_category@std@@8
rdata$r	ENDS
;	COMDAT ??_R2_Iostream_error_category@std@@8
rdata$r	SEGMENT
??_R2_Iostream_error_category@std@@8 DD FLAT:??_R1A@?0A@EA@_Iostream_error_category@std@@8 ; std::_Iostream_error_category::`RTTI Base Class Array'
	DD	FLAT:??_R1A@?0A@EA@_Generic_error_category@std@@8
	DD	FLAT:??_R1A@?0A@EA@error_category@std@@8
rdata$r	ENDS
;	COMDAT ??_R3_Iostream_error_category@std@@8
rdata$r	SEGMENT
??_R3_Iostream_error_category@std@@8 DD 00H		; std::_Iostream_error_category::`RTTI Class Hierarchy Descriptor'
	DD	00H
	DD	03H
	DD	FLAT:??_R2_Iostream_error_category@std@@8
rdata$r	ENDS
;	COMDAT ??_R0?AV_Iostream_error_category@std@@@8
_DATA	SEGMENT
??_R0?AV_Iostream_error_category@std@@@8 DD FLAT:??_7type_info@@6B@ ; std::_Iostream_error_category `RTTI Type Descriptor'
	DD	00H
	DB	'.?AV_Iostream_error_category@std@@', 00H
_DATA	ENDS
;	COMDAT ??_R4_Iostream_error_category@std@@6B@
rdata$r	SEGMENT
??_R4_Iostream_error_category@std@@6B@ DD 00H		; std::_Iostream_error_category::`RTTI Complete Object Locator'
	DD	00H
	DD	00H
	DD	FLAT:??_R0?AV_Iostream_error_category@std@@@8
	DD	FLAT:??_R3_Iostream_error_category@std@@8
rdata$r	ENDS
;	COMDAT ??_R1A@?0A@EA@_Generic_error_category@std@@8
rdata$r	SEGMENT
??_R1A@?0A@EA@_Generic_error_category@std@@8 DD FLAT:??_R0?AV_Generic_error_category@std@@@8 ; std::_Generic_error_category::`RTTI Base Class Descriptor at (0,-1,0,64)'
	DD	01H
	DD	00H
	DD	0ffffffffH
	DD	00H
	DD	040H
	DD	FLAT:??_R3_Generic_error_category@std@@8
rdata$r	ENDS
;	COMDAT ??_R2_Generic_error_category@std@@8
rdata$r	SEGMENT
??_R2_Generic_error_category@std@@8 DD FLAT:??_R1A@?0A@EA@_Generic_error_category@std@@8 ; std::_Generic_error_category::`RTTI Base Class Array'
	DD	FLAT:??_R1A@?0A@EA@error_category@std@@8
rdata$r	ENDS
;	COMDAT ??_R3_Generic_error_category@std@@8
rdata$r	SEGMENT
??_R3_Generic_error_category@std@@8 DD 00H		; std::_Generic_error_category::`RTTI Class Hierarchy Descriptor'
	DD	00H
	DD	02H
	DD	FLAT:??_R2_Generic_error_category@std@@8
rdata$r	ENDS
;	COMDAT ??_R0?AV_Generic_error_category@std@@@8
_DATA	SEGMENT
??_R0?AV_Generic_error_category@std@@@8 DD FLAT:??_7type_info@@6B@ ; std::_Generic_error_category `RTTI Type Descriptor'
	DD	00H
	DB	'.?AV_Generic_error_category@std@@', 00H
_DATA	ENDS
;	COMDAT ??_R4_Generic_error_category@std@@6B@
rdata$r	SEGMENT
??_R4_Generic_error_category@std@@6B@ DD 00H		; std::_Generic_error_category::`RTTI Complete Object Locator'
	DD	00H
	DD	00H
	DD	FLAT:??_R0?AV_Generic_error_category@std@@@8
	DD	FLAT:??_R3_Generic_error_category@std@@8
rdata$r	ENDS
;	COMDAT ??_R1A@?0A@EA@error_category@std@@8
rdata$r	SEGMENT
??_R1A@?0A@EA@error_category@std@@8 DD FLAT:??_R0?AVerror_category@std@@@8 ; std::error_category::`RTTI Base Class Descriptor at (0,-1,0,64)'
	DD	00H
	DD	00H
	DD	0ffffffffH
	DD	00H
	DD	040H
	DD	FLAT:??_R3error_category@std@@8
rdata$r	ENDS
;	COMDAT ??_R2error_category@std@@8
rdata$r	SEGMENT
??_R2error_category@std@@8 DD FLAT:??_R1A@?0A@EA@error_category@std@@8 ; std::error_category::`RTTI Base Class Array'
rdata$r	ENDS
;	COMDAT ??_R3error_category@std@@8
rdata$r	SEGMENT
??_R3error_category@std@@8 DD 00H			; std::error_category::`RTTI Class Hierarchy Descriptor'
	DD	00H
	DD	01H
	DD	FLAT:??_R2error_category@std@@8
rdata$r	ENDS
;	COMDAT ??_R0?AVerror_category@std@@@8
_DATA	SEGMENT
??_R0?AVerror_category@std@@@8 DD FLAT:??_7type_info@@6B@ ; std::error_category `RTTI Type Descriptor'
	DD	00H
	DB	'.?AVerror_category@std@@', 00H
_DATA	ENDS
;	COMDAT ??_R4error_category@std@@6B@
rdata$r	SEGMENT
??_R4error_category@std@@6B@ DD 00H			; std::error_category::`RTTI Complete Object Locator'
	DD	00H
	DD	00H
	DD	FLAT:??_R0?AVerror_category@std@@@8
	DD	FLAT:??_R3error_category@std@@8
rdata$r	ENDS
;	COMDAT ??_C@_0BA@JFNIOLAK@string?5too?5long?$AA@
CONST	SEGMENT
??_C@_0BA@JFNIOLAK@string?5too?5long?$AA@ DB 'string too long', 00H ; `string'
CONST	ENDS
;	COMDAT ??_C@_0BI@CFPLBAOH@invalid?5string?5position?$AA@
CONST	SEGMENT
??_C@_0BI@CFPLBAOH@invalid?5string?5position?$AA@ DB 'invalid string posi'
	DB	'tion', 00H					; `string'
CONST	ENDS
;	COMDAT ??_C@_09IBNEFEFJ@FPS?5?$CF5?41f?$AA@
CONST	SEGMENT
??_C@_09IBNEFEFJ@FPS?5?$CF5?41f?$AA@ DB 'FPS %5.1f', 00H ; `string'
CONST	ENDS
;	COMDAT ??_C@_07KJPMIBMC@FPS?5?$CF5d?$AA@
CONST	SEGMENT
??_C@_07KJPMIBMC@FPS?5?$CF5d?$AA@ DB 'FPS %5d', 00H	; `string'
CONST	ENDS
;	COMDAT ??_C@_09HJCFOPMO@Game?5Over?$AA@
CONST	SEGMENT
??_C@_09HJCFOPMO@Game?5Over?$AA@ DB 'Game Over', 00H	; `string'
CONST	ENDS
;	COMDAT ??_C@_0N@LEMGNLFI@Sierra?5Hotel?$AA@
CONST	SEGMENT
??_C@_0N@LEMGNLFI@Sierra?5Hotel?$AA@ DB 'Sierra Hotel', 00H ; `string'
CONST	ENDS
;	COMDAT ??_C@_05FJODHKGO@x1024?$AA@
CONST	SEGMENT
??_C@_05FJODHKGO@x1024?$AA@ DB 'x1024', 00H		; `string'
CONST	ENDS
;	COMDAT ??_C@_04PPFDHAKJ@x512?$AA@
CONST	SEGMENT
??_C@_04PPFDHAKJ@x512?$AA@ DB 'x512', 00H		; `string'
CONST	ENDS
;	COMDAT ??_C@_04BOBCFMI@x256?$AA@
CONST	SEGMENT
??_C@_04BOBCFMI@x256?$AA@ DB 'x256', 00H		; `string'
CONST	ENDS
;	COMDAT ??_C@_04IIJILBCN@x128?$AA@
CONST	SEGMENT
??_C@_04IIJILBCN@x128?$AA@ DB 'x128', 00H		; `string'
CONST	ENDS
;	COMDAT ??_C@_03OLPMMCEF@x64?$AA@
CONST	SEGMENT
??_C@_03OLPMMCEF@x64?$AA@ DB 'x64', 00H			; `string'
CONST	ENDS
;	COMDAT ??_C@_03LLGNKHCI@x32?$AA@
CONST	SEGMENT
??_C@_03LLGNKHCI@x32?$AA@ DB 'x32', 00H			; `string'
CONST	ENDS
;	COMDAT ??_C@_03NMIFLGEC@x16?$AA@
CONST	SEGMENT
??_C@_03NMIFLGEC@x16?$AA@ DB 'x16', 00H			; `string'
CONST	ENDS
;	COMDAT ??_C@_02ENMDKDPO@x8?$AA@
CONST	SEGMENT
??_C@_02ENMDKDPO@x8?$AA@ DB 'x8', 00H			; `string'
CONST	ENDS
;	COMDAT ??_C@_06BPHPLDCC@?$CF?$CL2?41f?$AA@
CONST	SEGMENT
??_C@_06BPHPLDCC@?$CF?$CL2?41f?$AA@ DB '%+2.1f', 00H	; `string'
CONST	ENDS
;	COMDAT ??_C@_08CFEJCDPL@G?0?5aoa?3?5?$AA@
CONST	SEGMENT
??_C@_08CFEJCDPL@G?0?5aoa?3?5?$AA@ DB 'G, aoa: ', 00H	; `string'
CONST	ENDS
;	COMDAT ??_C@_07CBNKIKPL@?0?5?$CF2?41f?$AA@
CONST	SEGMENT
??_C@_07CBNKIKPL@?0?5?$CF2?41f?$AA@ DB ', %2.1f', 00H	; `string'
CONST	ENDS
;	COMDAT ??_C@_08HDEDGHJO@?5percent?$AA@
CONST	SEGMENT
??_C@_08HDEDGHJO@?5percent?$AA@ DB ' percent', 00H	; `string'
CONST	ENDS
;	COMDAT ??_C@_0O@JAKNKEAP@?0?5power?3?5?$CF3?4f?$AA@
CONST	SEGMENT
??_C@_0O@JAKNKEAP@?0?5power?3?5?$CF3?4f?$AA@ DB ', power: %3.f', 00H ; `string'
CONST	ENDS
;	COMDAT ??_C@_0L@MMMGIOEM@?5kts?5?$CIIAS?$CJ?$AA@
CONST	SEGMENT
??_C@_0L@MMMGIOEM@?5kts?5?$CIIAS?$CJ?$AA@ DB ' kts (IAS)', 00H ; `string'
CONST	ENDS
;	COMDAT ??_C@_08MGDNAMHD@?5degrees?$AA@
CONST	SEGMENT
??_C@_08MGDNAMHD@?5degrees?$AA@ DB ' degrees', 00H	; `string'
CONST	ENDS
;	COMDAT ??_C@_06CCBPJKJC@?$CF?$CL3?41f?$AA@
CONST	SEGMENT
??_C@_06CCBPJKJC@?$CF?$CL3?41f?$AA@ DB '%+3.1f', 00H	; `string'
CONST	ENDS
;	COMDAT ??_C@_0BB@MJAKPGJL@?5kts?5?$CIGS?$CJ?0?5aoa?3?5?$AA@
CONST	SEGMENT
??_C@_0BB@MJAKPGJL@?5kts?5?$CIGS?$CJ?0?5aoa?3?5?$AA@ DB ' kts (GS), aoa: '
	DB	00H						; `string'
CONST	ENDS
;	COMDAT ??_C@_04EOMBGAKL@?$CF4?4f?$AA@
CONST	SEGMENT
??_C@_04EOMBGAKL@?$CF4?4f?$AA@ DB '%4.f', 00H		; `string'
CONST	ENDS
;	COMDAT ??_C@_0BE@OEACJCJD@?5ft?5?$CIBARO?$CJ?0?5speed?3?5?$AA@
CONST	SEGMENT
??_C@_0BE@OEACJCJD@?5ft?5?$CIBARO?$CJ?0?5speed?3?5?$AA@ DB ' ft (BARO), s'
	DB	'peed: ', 00H				; `string'
CONST	ENDS
;	COMDAT ??_C@_04HBOFBLAB@?$CF5?4i?$AA@
CONST	SEGMENT
??_C@_04HBOFBLAB@?$CF5?4i?$AA@ DB '%5.i', 00H		; `string'
CONST	ENDS
;	COMDAT ??_C@_0BA@GPOLMDJ@?5degrees?0?5alt?3?5?$AA@
CONST	SEGMENT
??_C@_0BA@GPOLMDJ@?5degrees?0?5alt?3?5?$AA@ DB ' degrees, alt: ', 00H ; `string'
CONST	ENDS
;	COMDAT ??_C@_04FEIOEENN@?$CF3?4i?$AA@
CONST	SEGMENT
??_C@_04FEIOEENN@?$CF3?4i?$AA@ DB '%3.i', 00H		; `string'
CONST	ENDS
;	COMDAT ??_C@_0N@OHPLPDBF@?5?9?5heading?3?5?$AA@
CONST	SEGMENT
??_C@_0N@OHPLPDBF@?5?9?5heading?3?5?$AA@ DB ' - heading: ', 00H ; `string'
CONST	ENDS
;	COMDAT ??_C@_02LMMGGCAJ@?3?5?$AA@
CONST	SEGMENT
??_C@_02LMMGGCAJ@?3?5?$AA@ DB ': ', 00H			; `string'
CONST	ENDS
;	COMDAT ??_C@_06FHFOAHML@system?$AA@
CONST	SEGMENT
??_C@_06FHFOAHML@system?$AA@ DB 'system', 00H		; `string'
CONST	ENDS
;	COMDAT ??_7_System_error_category@std@@6B@
CONST	SEGMENT
??_7_System_error_category@std@@6B@ DD FLAT:??_R4_System_error_category@std@@6B@ ; std::_System_error_category::`vftable'
	DD	FLAT:??_E_System_error_category@std@@UAEPAXI@Z
	DD	FLAT:?name@_System_error_category@std@@UBEPBDXZ
	DD	FLAT:?message@_System_error_category@std@@UBE?AV?$basic_string@DU?$char_traits@D@std@@V?$allocator@D@2@@2@H@Z
	DD	FLAT:?default_error_condition@_System_error_category@std@@UBE?AVerror_condition@2@H@Z
	DD	FLAT:?equivalent@error_category@std@@UBE_NABVerror_code@2@H@Z
	DD	FLAT:?equivalent@error_category@std@@UBE_NHABVerror_condition@2@@Z
CONST	ENDS
;	COMDAT ??_C@_0BG@PADBLCHM@iostream?5stream?5error?$AA@
CONST	SEGMENT
??_C@_0BG@PADBLCHM@iostream?5stream?5error?$AA@ DB 'iostream stream error'
	DB	00H						; `string'
CONST	ENDS
;	COMDAT ??_C@_08LLGCOLLL@iostream?$AA@
CONST	SEGMENT
??_C@_08LLGCOLLL@iostream?$AA@ DB 'iostream', 00H	; `string'
CONST	ENDS
;	COMDAT ??_7_Iostream_error_category@std@@6B@
CONST	SEGMENT
??_7_Iostream_error_category@std@@6B@ DD FLAT:??_R4_Iostream_error_category@std@@6B@ ; std::_Iostream_error_category::`vftable'
	DD	FLAT:??_E_Iostream_error_category@std@@UAEPAXI@Z
	DD	FLAT:?name@_Iostream_error_category@std@@UBEPBDXZ
	DD	FLAT:?message@_Iostream_error_category@std@@UBE?AV?$basic_string@DU?$char_traits@D@std@@V?$allocator@D@2@@2@H@Z
	DD	FLAT:?default_error_condition@error_category@std@@UBE?AVerror_condition@2@H@Z
	DD	FLAT:?equivalent@error_category@std@@UBE_NABVerror_code@2@H@Z
	DD	FLAT:?equivalent@error_category@std@@UBE_NHABVerror_condition@2@@Z
CONST	ENDS
;	COMDAT ??_C@_0O@BFJCFAAK@unknown?5error?$AA@
CONST	SEGMENT
??_C@_0O@BFJCFAAK@unknown?5error?$AA@ DB 'unknown error', 00H ; `string'
CONST	ENDS
;	COMDAT ??_C@_07DCLBNMLN@generic?$AA@
CONST	SEGMENT
??_C@_07DCLBNMLN@generic?$AA@ DB 'generic', 00H		; `string'
CONST	ENDS
;	COMDAT ??_7_Generic_error_category@std@@6B@
CONST	SEGMENT
??_7_Generic_error_category@std@@6B@ DD FLAT:??_R4_Generic_error_category@std@@6B@ ; std::_Generic_error_category::`vftable'
	DD	FLAT:??_E_Generic_error_category@std@@UAEPAXI@Z
	DD	FLAT:?name@_Generic_error_category@std@@UBEPBDXZ
	DD	FLAT:?message@_Generic_error_category@std@@UBE?AV?$basic_string@DU?$char_traits@D@std@@V?$allocator@D@2@@2@H@Z
	DD	FLAT:?default_error_condition@error_category@std@@UBE?AVerror_condition@2@H@Z
	DD	FLAT:?equivalent@error_category@std@@UBE_NABVerror_code@2@H@Z
	DD	FLAT:?equivalent@error_category@std@@UBE_NHABVerror_condition@2@@Z
CONST	ENDS
;	COMDAT ??_7error_category@std@@6B@
CONST	SEGMENT
??_7error_category@std@@6B@ DD FLAT:??_R4error_category@std@@6B@ ; std::error_category::`vftable'
	DD	FLAT:??_Eerror_category@std@@UAEPAXI@Z
	DD	FLAT:__purecall
	DD	FLAT:__purecall
	DD	FLAT:?default_error_condition@error_category@std@@UBE?AVerror_condition@2@H@Z
	DD	FLAT:?equivalent@error_category@std@@UBE_NABVerror_code@2@H@Z
	DD	FLAT:?equivalent@error_category@std@@UBE_NHABVerror_condition@2@@Z
CONST	ENDS
;	COMDAT ??_C@_00CNPNBAHC@?$AA@
CONST	SEGMENT
??_C@_00CNPNBAHC@?$AA@ DB 00H				; `string'
CONST	ENDS
;	COMDAT xdata$x
xdata$x	SEGMENT
__unwindtable$??$construct@PADAAPAD@?$allocator@D@std@@QAEXPAPADAAPAD@Z DD 0ffffffffH
	DD	FLAT:__unwindfunclet$??$construct@PADAAPAD@?$allocator@D@std@@QAEXPAPADAAPAD@Z$0
__ehfuncinfo$??$construct@PADAAPAD@?$allocator@D@std@@QAEXPAPADAAPAD@Z DD 019930522H
	DD	01H
	DD	FLAT:__unwindtable$??$construct@PADAAPAD@?$allocator@D@std@@QAEXPAPADAAPAD@Z
	DD	2 DUP(00H)
	DD	2 DUP(00H)
	DD	00H
	DD	01H
xdata$x	ENDS
xdata$x	SEGMENT
__unwindtable$?Cycle@OTWDriverClass@@QAEXXZ DD 0ffffffffH
	DD	FLAT:__unwindfunclet$?Cycle@OTWDriverClass@@QAEXXZ$0
	DD	00H
	DD	FLAT:__unwindfunclet$?Cycle@OTWDriverClass@@QAEXXZ$1
__ehfuncinfo$?Cycle@OTWDriverClass@@QAEXXZ DD 019930522H
	DD	02H
	DD	FLAT:__unwindtable$?Cycle@OTWDriverClass@@QAEXXZ
	DD	2 DUP(00H)
	DD	2 DUP(00H)
	DD	00H
	DD	01H
xdata$x	ENDS
;	COMDAT xdata$x
xdata$x	SEGMENT
__catchsym$?_Copy@?$basic_string@DU?$char_traits@D@std@@V?$allocator@D@2@@std@@QAEXII@Z$5 DD 040H
	DD	00H
	DD	00H
	DD	FLAT:__catch$?_Copy@?$basic_string@DU?$char_traits@D@std@@V?$allocator@D@2@@std@@QAEXII@Z$0
__catchsym$?_Copy@?$basic_string@DU?$char_traits@D@std@@V?$allocator@D@2@@std@@QAEXII@Z$4 DD 040H
	DD	00H
	DD	00H
	DD	FLAT:__catch$?_Copy@?$basic_string@DU?$char_traits@D@std@@V?$allocator@D@2@@std@@QAEXII@Z$1
__unwindtable$?_Copy@?$basic_string@DU?$char_traits@D@std@@V?$allocator@D@2@@std@@QAEXII@Z DD 0ffffffffH
	DD	00H
	DD	0ffffffffH
	DD	00H
	DD	01H
	DD	00H
	DD	01H
	DD	00H
__ehfuncinfo$?_Copy@?$basic_string@DU?$char_traits@D@std@@V?$allocator@D@2@@std@@QAEXII@Z DD 019930522H
	DD	04H
	DD	FLAT:__unwindtable$?_Copy@?$basic_string@DU?$char_traits@D@std@@V?$allocator@D@2@@std@@QAEXII@Z
	DD	02H
	DD	FLAT:__tryblocktable$?_Copy@?$basic_string@DU?$char_traits@D@std@@V?$allocator@D@2@@std@@QAEXII@Z
	DD	2 DUP(00H)
	DD	00H
	DD	01H
__tryblocktable$?_Copy@?$basic_string@DU?$char_traits@D@std@@V?$allocator@D@2@@std@@QAEXII@Z DD 02H
	DD	02H
	DD	03H
	DD	01H
	DD	FLAT:__catchsym$?_Copy@?$basic_string@DU?$char_traits@D@std@@V?$allocator@D@2@@std@@QAEXII@Z$4
	DD	00H
	DD	00H
	DD	03H
	DD	01H
	DD	FLAT:__catchsym$?_Copy@?$basic_string@DU?$char_traits@D@std@@V?$allocator@D@2@@std@@QAEXII@Z$5
xdata$x	ENDS
CRT$XCU	SEGMENT
_allocator_arg$initializer$ DD FLAT:??__Eallocator_arg@std@@YAXXZ
CRT$XCU	ENDS
;	COMDAT CRT$XCU
CRT$XCU	SEGMENT
?_Generic_object$initializer$@?$_Error_objects@H@std@@2P6AXXZA DD FLAT:??__E?_Generic_object@?$_Error_objects@H@std@@2V_Generic_error_category@2@A@@YAXXZ ; std::_Error_objects<int>::_Generic_object$initializer$
CRT$XCU	ENDS
;	COMDAT CRT$XCU
CRT$XCU	SEGMENT
?_Iostream_object$initializer$@?$_Error_objects@H@std@@2P6AXXZA DD FLAT:??__E?_Iostream_object@?$_Error_objects@H@std@@2V_Iostream_error_category@2@A@@YAXXZ ; std::_Error_objects<int>::_Iostream_object$initializer$
CRT$XCU	ENDS
;	COMDAT CRT$XCU
CRT$XCU	SEGMENT
?_System_object$initializer$@?$_Error_objects@H@std@@2P6AXXZA DD FLAT:??__E?_System_object@?$_Error_objects@H@std@@2V_System_error_category@2@A@@YAXXZ ; std::_Error_objects<int>::_System_object$initializer$
CRT$XCU	ENDS
;	COMDAT CRT$XCU
CRT$XCU	SEGMENT
?id$initializer$@?$num_put@DV?$back_insert_iterator@V?$basic_string@DU?$char_traits@D@std@@V?$allocator@D@2@@std@@@std@@@std@@2P6AXXZA DD FLAT:??__E?id@?$num_put@DV?$back_insert_iterator@V?$basic_string@DU?$char_traits@D@std@@V?$allocator@D@2@@std@@@std@@@std@@2V0locale@2@A@@YAXXZ ; std::num_put<char,std::back_insert_iterator<std::basic_string<char,std::char_traits<char>,std::allocator<char> > > >::id$initializer$
CRT$XCU	ENDS
;	COMDAT CRT$XCU
CRT$XCU	SEGMENT
?id$initializer$@?$num_put@_WV?$back_insert_iterator@V?$basic_string@_WU?$char_traits@_W@std@@V?$allocator@_W@2@@std@@@std@@@std@@2P6AXXZA DD FLAT:??__E?id@?$num_put@_WV?$back_insert_iterator@V?$basic_string@_WU?$char_traits@_W@std@@V?$allocator@_W@2@@std@@@std@@@std@@2V0locale@2@A@@YAXXZ ; std::num_put<wchar_t,std::back_insert_iterator<std::basic_string<wchar_t,std::char_traits<wchar_t>,std::allocator<wchar_t> > > >::id$initializer$
CRT$XCU	ENDS
;	COMDAT CRT$XCU
CRT$XCU	SEGMENT
?id$initializer$@?$numpunct@D@std@@2P6AXXZA DD FLAT:??__E?id@?$numpunct@D@std@@2V0locale@2@A@@YAXXZ ; std::numpunct<char>::id$initializer$
CRT$XCU	ENDS
;	COMDAT CRT$XCU
CRT$XCU	SEGMENT
?id$initializer$@?$numpunct@_W@std@@2P6AXXZA DD FLAT:??__E?id@?$numpunct@_W@std@@2V0locale@2@A@@YAXXZ ; std::numpunct<wchar_t>::id$initializer$
CRT$XCU	ENDS
; Function compile flags: /Odtp
; File c:\program files (x86)\microsoft visual studio 11.0\vc\include\xmemory0
;	COMDAT ??$destroy@PAD@?$allocator@D@std@@QAEXPAPAD@Z
_TEXT	SEGMENT
_this$ = -4						; size = 4
__Ptr$ = 8						; size = 4
??$destroy@PAD@?$allocator@D@std@@QAEXPAPAD@Z PROC	; std::allocator<char>::destroy<char *>, COMDAT
; _this$ = ecx

; 621  : 		void destroy(_Uty *_Ptr)

	push	ebp
	mov	ebp, esp
	push	ecx
	mov	DWORD PTR _this$[ebp], ecx

; 622  : 		{	// destroy object at _Ptr
; 623  : 		_Ptr->~_Uty();
; 624  : 		}

	mov	esp, ebp
	pop	ebp
	ret	4
??$destroy@PAD@?$allocator@D@std@@QAEXPAPAD@Z ENDP	; std::allocator<char>::destroy<char *>
_TEXT	ENDS
; Function compile flags: /Odtp
; File c:\program files (x86)\microsoft visual studio 11.0\vc\include\xmemory0
;	COMDAT ??$construct@PADAAPAD@?$allocator@D@std@@QAEXPAPADAAPAD@Z
_TEXT	SEGMENT
$T2 = -28						; size = 4
_this$ = -24						; size = 4
tv73 = -20						; size = 4
$T3 = -16						; size = 4
__$EHRec$ = -12						; size = 12
__Ptr$ = 8						; size = 4
__V0$ = 12						; size = 4
??$construct@PADAAPAD@?$allocator@D@std@@QAEXPAPADAAPAD@Z PROC ; std::allocator<char>::construct<char *,char * &>, COMDAT
; _this$ = ecx

; 617  : _VARIADIC_EXPAND_0X(_ALLOC_MEMBER_CONSTRUCT, , , , )

	push	ebp
	mov	ebp, esp
	push	-1
	push	__ehhandler$??$construct@PADAAPAD@?$allocator@D@std@@QAEXPAPADAAPAD@Z
	mov	eax, DWORD PTR fs:0
	push	eax
	sub	esp, 16					; 00000010H
	mov	eax, DWORD PTR ___security_cookie
	xor	eax, ebp
	push	eax
	lea	eax, DWORD PTR __$EHRec$[ebp]
	mov	DWORD PTR fs:0, eax
	mov	DWORD PTR _this$[ebp], ecx
	mov	eax, DWORD PTR __Ptr$[ebp]
	push	eax
	push	4
	call	??2@YAPAXIPAX@Z				; operator new
	add	esp, 8
	mov	DWORD PTR $T3[ebp], eax
	mov	DWORD PTR __$EHRec$[ebp+8], 0
	cmp	DWORD PTR $T3[ebp], 0
	je	SHORT $LN3@construct
	mov	ecx, DWORD PTR __V0$[ebp]
	push	ecx
	call	??$forward@AAPAD@std@@YAAAPADAAPAD@Z	; std::forward<char * &>
	add	esp, 4
	mov	edx, DWORD PTR $T3[ebp]
	mov	eax, DWORD PTR [eax]
	mov	DWORD PTR [edx], eax
	mov	ecx, DWORD PTR $T3[ebp]
	mov	DWORD PTR tv73[ebp], ecx
	jmp	SHORT $LN4@construct
$LN3@construct:
	mov	DWORD PTR tv73[ebp], 0
$LN4@construct:
	mov	edx, DWORD PTR tv73[ebp]
	mov	DWORD PTR $T2[ebp], edx
	mov	DWORD PTR __$EHRec$[ebp+8], -1
	mov	ecx, DWORD PTR __$EHRec$[ebp]
	mov	DWORD PTR fs:0, ecx
	pop	ecx
	mov	esp, ebp
	pop	ebp
	ret	8
_TEXT	ENDS
;	COMDAT text$x
text$x	SEGMENT
__unwindfunclet$??$construct@PADAAPAD@?$allocator@D@std@@QAEXPAPADAAPAD@Z$0:
	mov	eax, DWORD PTR __Ptr$[ebp]
	push	eax
	mov	eax, DWORD PTR $T3[ebp]
	push	eax
	call	??3@YAXPAX0@Z				; operator delete
	add	esp, 8
	ret	0
__ehhandler$??$construct@PADAAPAD@?$allocator@D@std@@QAEXPAPADAAPAD@Z:
	mov	edx, DWORD PTR [esp+8]
	lea	eax, DWORD PTR [edx+12]
	mov	ecx, DWORD PTR [edx-20]
	xor	ecx, eax
	call	@__security_check_cookie@4
	mov	eax, OFFSET __ehfuncinfo$??$construct@PADAAPAD@?$allocator@D@std@@QAEXPAPADAAPAD@Z
	jmp	___CxxFrameHandler3
text$x	ENDS
??$construct@PADAAPAD@?$allocator@D@std@@QAEXPAPADAAPAD@Z ENDP ; std::allocator<char>::construct<char *,char * &>
; Function compile flags: /Odtp
; File c:\program files (x86)\microsoft visual studio 11.0\vc\include\xlocnum
;	COMDAT ??__E?id@?$numpunct@_W@std@@2V0locale@2@A@@YAXXZ
text$yc	SEGMENT
??__E?id@?$numpunct@_W@std@@2V0locale@2@A@@YAXXZ PROC	; `dynamic initializer for 'std::numpunct<wchar_t>::id'', COMDAT

; 155  : 		void _Getvals(wchar_t, const lconv *_Ptr, _Locinfo::_Cvtvec)

	push	ebp
	mov	ebp, esp
	push	0
	mov	ecx, OFFSET ?id@?$numpunct@_W@std@@2V0locale@2@A ; std::numpunct<wchar_t>::id
	call	??0id@locale@std@@QAE@I@Z		; std::locale::id::id
	pop	ebp
	ret	0
??__E?id@?$numpunct@_W@std@@2V0locale@2@A@@YAXXZ ENDP	; `dynamic initializer for 'std::numpunct<wchar_t>::id''
text$yc	ENDS
; Function compile flags: /Odtp
; File c:\program files (x86)\microsoft visual studio 11.0\vc\include\xlocnum
;	COMDAT ??__E?id@?$numpunct@D@std@@2V0locale@2@A@@YAXXZ
text$yc	SEGMENT
??__E?id@?$numpunct@D@std@@2V0locale@2@A@@YAXXZ PROC	; `dynamic initializer for 'std::numpunct<char>::id'', COMDAT

; 155  : 		void _Getvals(wchar_t, const lconv *_Ptr, _Locinfo::_Cvtvec)

	push	ebp
	mov	ebp, esp
	push	0
	mov	ecx, OFFSET ?id@?$numpunct@D@std@@2V0locale@2@A ; std::numpunct<char>::id
	call	??0id@locale@std@@QAE@I@Z		; std::locale::id::id
	pop	ebp
	ret	0
??__E?id@?$numpunct@D@std@@2V0locale@2@A@@YAXXZ ENDP	; `dynamic initializer for 'std::numpunct<char>::id''
text$yc	ENDS
; Function compile flags: /Odtp
; File c:\program files (x86)\microsoft visual studio 11.0\vc\include\xlocnum
;	COMDAT ??__E?id@?$num_put@_WV?$back_insert_iterator@V?$basic_string@_WU?$char_traits@_W@std@@V?$allocator@_W@2@@std@@@std@@@std@@2V0locale@2@A@@YAXXZ
text$yc	SEGMENT
??__E?id@?$num_put@_WV?$back_insert_iterator@V?$basic_string@_WU?$char_traits@_W@std@@V?$allocator@_W@2@@std@@@std@@@std@@2V0locale@2@A@@YAXXZ PROC ; `dynamic initializer for 'std::num_put<wchar_t,std::back_insert_iterator<std::basic_string<wchar_t,std::char_traits<wchar_t>,std::allocator<wchar_t> > > >::id'', COMDAT

; 155  : 		void _Getvals(wchar_t, const lconv *_Ptr, _Locinfo::_Cvtvec)

	push	ebp
	mov	ebp, esp
	push	0
	mov	ecx, OFFSET ?id@?$num_put@_WV?$back_insert_iterator@V?$basic_string@_WU?$char_traits@_W@std@@V?$allocator@_W@2@@std@@@std@@@std@@2V0locale@2@A ; std::num_put<wchar_t,std::back_insert_iterator<std::basic_string<wchar_t,std::char_traits<wchar_t>,std::allocator<wchar_t> > > >::id
	call	??0id@locale@std@@QAE@I@Z		; std::locale::id::id
	pop	ebp
	ret	0
??__E?id@?$num_put@_WV?$back_insert_iterator@V?$basic_string@_WU?$char_traits@_W@std@@V?$allocator@_W@2@@std@@@std@@@std@@2V0locale@2@A@@YAXXZ ENDP ; `dynamic initializer for 'std::num_put<wchar_t,std::back_insert_iterator<std::basic_string<wchar_t,std::char_traits<wchar_t>,std::allocator<wchar_t> > > >::id''
text$yc	ENDS
; Function compile flags: /Odtp
; File c:\program files (x86)\microsoft visual studio 11.0\vc\include\xlocnum
;	COMDAT ??__E?id@?$num_put@DV?$back_insert_iterator@V?$basic_string@DU?$char_traits@D@std@@V?$allocator@D@2@@std@@@std@@@std@@2V0locale@2@A@@YAXXZ
text$yc	SEGMENT
??__E?id@?$num_put@DV?$back_insert_iterator@V?$basic_string@DU?$char_traits@D@std@@V?$allocator@D@2@@std@@@std@@@std@@2V0locale@2@A@@YAXXZ PROC ; `dynamic initializer for 'std::num_put<char,std::back_insert_iterator<std::basic_string<char,std::char_traits<char>,std::allocator<char> > > >::id'', COMDAT

; 155  : 		void _Getvals(wchar_t, const lconv *_Ptr, _Locinfo::_Cvtvec)

	push	ebp
	mov	ebp, esp
	push	0
	mov	ecx, OFFSET ?id@?$num_put@DV?$back_insert_iterator@V?$basic_string@DU?$char_traits@D@std@@V?$allocator@D@2@@std@@@std@@@std@@2V0locale@2@A ; std::num_put<char,std::back_insert_iterator<std::basic_string<char,std::char_traits<char>,std::allocator<char> > > >::id
	call	??0id@locale@std@@QAE@I@Z		; std::locale::id::id
	pop	ebp
	ret	0
??__E?id@?$num_put@DV?$back_insert_iterator@V?$basic_string@DU?$char_traits@D@std@@V?$allocator@D@2@@std@@@std@@@std@@2V0locale@2@A@@YAXXZ ENDP ; `dynamic initializer for 'std::num_put<char,std::back_insert_iterator<std::basic_string<char,std::char_traits<char>,std::allocator<char> > > >::id''
text$yc	ENDS
; Function compile flags: /Odtp
; File c:\program files (x86)\microsoft visual studio 11.0\vc\include\xmemory0
;	COMDAT ??$destroy@PAD@?$allocator_traits@V?$allocator@D@std@@@std@@SAXAAV?$allocator@D@1@PAPAD@Z
_TEXT	SEGMENT
__Al$ = 8						; size = 4
__Ptr$ = 12						; size = 4
??$destroy@PAD@?$allocator_traits@V?$allocator@D@std@@@std@@SAXAAV?$allocator@D@1@PAPAD@Z PROC ; std::allocator_traits<std::allocator<char> >::destroy<char *>, COMDAT

; 755  : 		static void destroy(_Alloc& _Al, _Uty *_Ptr)

	push	ebp
	mov	ebp, esp

; 756  : 		{	// destroy object at _Ptr
; 757  : 		_Al.destroy(_Ptr);

	mov	eax, DWORD PTR __Ptr$[ebp]
	push	eax
	mov	ecx, DWORD PTR __Al$[ebp]
	call	??$destroy@PAD@?$allocator@D@std@@QAEXPAPAD@Z ; std::allocator<char>::destroy<char *>

; 758  : 		}

	pop	ebp
	ret	0
??$destroy@PAD@?$allocator_traits@V?$allocator@D@std@@@std@@SAXAAV?$allocator@D@1@PAPAD@Z ENDP ; std::allocator_traits<std::allocator<char> >::destroy<char *>
_TEXT	ENDS
; Function compile flags: /Odtp
; File c:\program files (x86)\microsoft visual studio 11.0\vc\include\xmemory0
;	COMDAT ??$construct@PADAAPAD@?$allocator_traits@V?$allocator@D@std@@@std@@SAXAAV?$allocator@D@1@PAPADAAPAD@Z
_TEXT	SEGMENT
__Al$ = 8						; size = 4
__Ptr$ = 12						; size = 4
__V0$ = 16						; size = 4
??$construct@PADAAPAD@?$allocator_traits@V?$allocator@D@std@@@std@@SAXAAV?$allocator@D@1@PAPADAAPAD@Z PROC ; std::allocator_traits<std::allocator<char> >::construct<char *,char * &>, COMDAT

; 751  : _VARIADIC_EXPAND_0X(_ALLOC_TRAITS_SPECIAL_CONSTRUCT, , , , )

	push	ebp
	mov	ebp, esp
	mov	eax, DWORD PTR __V0$[ebp]
	push	eax
	call	??$forward@AAPAD@std@@YAAAPADAAPAD@Z	; std::forward<char * &>
	add	esp, 4
	push	eax
	mov	ecx, DWORD PTR __Ptr$[ebp]
	push	ecx
	mov	ecx, DWORD PTR __Al$[ebp]
	call	??$construct@PADAAPAD@?$allocator@D@std@@QAEXPAPADAAPAD@Z ; std::allocator<char>::construct<char *,char * &>
	pop	ebp
	ret	0
??$construct@PADAAPAD@?$allocator_traits@V?$allocator@D@std@@@std@@SAXAAV?$allocator@D@1@PAPADAAPAD@Z ENDP ; std::allocator_traits<std::allocator<char> >::construct<char *,char * &>
_TEXT	ENDS
; Function compile flags: /Odtp
; File c:\program files (x86)\microsoft visual studio 11.0\vc\include\type_traits
;	COMDAT ??$forward@AAPAD@std@@YAAAPADAAPAD@Z
_TEXT	SEGMENT
__Arg$ = 8						; size = 4
??$forward@AAPAD@std@@YAAAPADAAPAD@Z PROC		; std::forward<char * &>, COMDAT

; 1775 : 	{	// forward an lvalue

	push	ebp
	mov	ebp, esp

; 1776 : 	return (static_cast<_Ty&&>(_Arg));

	mov	eax, DWORD PTR __Arg$[ebp]

; 1777 : 	}

	pop	ebp
	ret	0
??$forward@AAPAD@std@@YAAAPADAAPAD@Z ENDP		; std::forward<char * &>
_TEXT	ENDS
; Function compile flags: /Odtp
;	COMDAT ??__F?_System_object@?$_Error_objects@H@std@@2V_System_error_category@2@A@@YAXXZ
text$yd	SEGMENT
??__F?_System_object@?$_Error_objects@H@std@@2V_System_error_category@2@A@@YAXXZ PROC ; `dynamic atexit destructor for 'std::_Error_objects<int>::_System_object'', COMDAT
	push	ebp
	mov	ebp, esp
	mov	ecx, OFFSET ?_System_object@?$_Error_objects@H@std@@2V_System_error_category@2@A ; std::_Error_objects<int>::_System_object
	call	??1_System_error_category@std@@UAE@XZ
	pop	ebp
	ret	0
??__F?_System_object@?$_Error_objects@H@std@@2V_System_error_category@2@A@@YAXXZ ENDP ; `dynamic atexit destructor for 'std::_Error_objects<int>::_System_object''
text$yd	ENDS
; Function compile flags: /Odtp
; File c:\program files (x86)\microsoft visual studio 11.0\vc\include\xmemory0
;	COMDAT ??__E?_System_object@?$_Error_objects@H@std@@2V_System_error_category@2@A@@YAXXZ
text$yc	SEGMENT
??__E?_System_object@?$_Error_objects@H@std@@2V_System_error_category@2@A@@YAXXZ PROC ; `dynamic initializer for 'std::_Error_objects<int>::_System_object'', COMDAT

; 627  : 		{	// estimate maximum array size

	push	ebp
	mov	ebp, esp
	mov	ecx, OFFSET ?_System_object@?$_Error_objects@H@std@@2V_System_error_category@2@A ; std::_Error_objects<int>::_System_object
	call	??0_System_error_category@std@@QAE@XZ	; std::_System_error_category::_System_error_category
	push	OFFSET ??__F?_System_object@?$_Error_objects@H@std@@2V_System_error_category@2@A@@YAXXZ ; `dynamic atexit destructor for 'std::_Error_objects<int>::_System_object''
	call	_atexit
	add	esp, 4
	pop	ebp
	ret	0
??__E?_System_object@?$_Error_objects@H@std@@2V_System_error_category@2@A@@YAXXZ ENDP ; `dynamic initializer for 'std::_Error_objects<int>::_System_object''
text$yc	ENDS
; Function compile flags: /Odtp
;	COMDAT ??__F?_Iostream_object@?$_Error_objects@H@std@@2V_Iostream_error_category@2@A@@YAXXZ
text$yd	SEGMENT
??__F?_Iostream_object@?$_Error_objects@H@std@@2V_Iostream_error_category@2@A@@YAXXZ PROC ; `dynamic atexit destructor for 'std::_Error_objects<int>::_Iostream_object'', COMDAT
	push	ebp
	mov	ebp, esp
	mov	ecx, OFFSET ?_Iostream_object@?$_Error_objects@H@std@@2V_Iostream_error_category@2@A ; std::_Error_objects<int>::_Iostream_object
	call	??1_Iostream_error_category@std@@UAE@XZ
	pop	ebp
	ret	0
??__F?_Iostream_object@?$_Error_objects@H@std@@2V_Iostream_error_category@2@A@@YAXXZ ENDP ; `dynamic atexit destructor for 'std::_Error_objects<int>::_Iostream_object''
text$yd	ENDS
; Function compile flags: /Odtp
; File c:\program files (x86)\microsoft visual studio 11.0\vc\include\xmemory0
;	COMDAT ??__E?_Iostream_object@?$_Error_objects@H@std@@2V_Iostream_error_category@2@A@@YAXXZ
text$yc	SEGMENT
??__E?_Iostream_object@?$_Error_objects@H@std@@2V_Iostream_error_category@2@A@@YAXXZ PROC ; `dynamic initializer for 'std::_Error_objects<int>::_Iostream_object'', COMDAT

; 627  : 		{	// estimate maximum array size

	push	ebp
	mov	ebp, esp
	mov	ecx, OFFSET ?_Iostream_object@?$_Error_objects@H@std@@2V_Iostream_error_category@2@A ; std::_Error_objects<int>::_Iostream_object
	call	??0_Iostream_error_category@std@@QAE@XZ	; std::_Iostream_error_category::_Iostream_error_category
	push	OFFSET ??__F?_Iostream_object@?$_Error_objects@H@std@@2V_Iostream_error_category@2@A@@YAXXZ ; `dynamic atexit destructor for 'std::_Error_objects<int>::_Iostream_object''
	call	_atexit
	add	esp, 4
	pop	ebp
	ret	0
??__E?_Iostream_object@?$_Error_objects@H@std@@2V_Iostream_error_category@2@A@@YAXXZ ENDP ; `dynamic initializer for 'std::_Error_objects<int>::_Iostream_object''
text$yc	ENDS
; Function compile flags: /Odtp
;	COMDAT ??__F?_Generic_object@?$_Error_objects@H@std@@2V_Generic_error_category@2@A@@YAXXZ
text$yd	SEGMENT
??__F?_Generic_object@?$_Error_objects@H@std@@2V_Generic_error_category@2@A@@YAXXZ PROC ; `dynamic atexit destructor for 'std::_Error_objects<int>::_Generic_object'', COMDAT
	push	ebp
	mov	ebp, esp
	mov	ecx, OFFSET ?_Generic_object@?$_Error_objects@H@std@@2V_Generic_error_category@2@A ; std::_Error_objects<int>::_Generic_object
	call	??1_Generic_error_category@std@@UAE@XZ
	pop	ebp
	ret	0
??__F?_Generic_object@?$_Error_objects@H@std@@2V_Generic_error_category@2@A@@YAXXZ ENDP ; `dynamic atexit destructor for 'std::_Error_objects<int>::_Generic_object''
text$yd	ENDS
; Function compile flags: /Odtp
; File c:\program files (x86)\microsoft visual studio 11.0\vc\include\xmemory0
;	COMDAT ??__E?_Generic_object@?$_Error_objects@H@std@@2V_Generic_error_category@2@A@@YAXXZ
text$yc	SEGMENT
??__E?_Generic_object@?$_Error_objects@H@std@@2V_Generic_error_category@2@A@@YAXXZ PROC ; `dynamic initializer for 'std::_Error_objects<int>::_Generic_object'', COMDAT

; 627  : 		{	// estimate maximum array size

	push	ebp
	mov	ebp, esp
	mov	ecx, OFFSET ?_Generic_object@?$_Error_objects@H@std@@2V_Generic_error_category@2@A ; std::_Error_objects<int>::_Generic_object
	call	??0_Generic_error_category@std@@QAE@XZ	; std::_Generic_error_category::_Generic_error_category
	push	OFFSET ??__F?_Generic_object@?$_Error_objects@H@std@@2V_Generic_error_category@2@A@@YAXXZ ; `dynamic atexit destructor for 'std::_Error_objects<int>::_Generic_object''
	call	_atexit
	add	esp, 4
	pop	ebp
	ret	0
??__E?_Generic_object@?$_Error_objects@H@std@@2V_Generic_error_category@2@A@@YAXXZ ENDP ; `dynamic initializer for 'std::_Error_objects<int>::_Generic_object''
text$yc	ENDS
; Function compile flags: /Odtp
; File c:\program files (x86)\microsoft visual studio 11.0\vc\include\xmemory0
;	COMDAT ??$_Allocate@D@std@@YAPADIPAD@Z
_TEXT	SEGMENT
__Ptr$ = -4						; size = 4
__Count$ = 8						; size = 4
___formal$ = 12						; size = 4
??$_Allocate@D@std@@YAPADIPAD@Z PROC			; std::_Allocate<char>, COMDAT

; 22   : 	{	// allocate storage for _Count elements of type _Ty

	push	ebp
	mov	ebp, esp
	push	ecx

; 23   : 	void *_Ptr = 0;

	mov	DWORD PTR __Ptr$[ebp], 0

; 24   : 
; 25   : 	if (_Count == 0)

	cmp	DWORD PTR __Count$[ebp], 0
	jne	SHORT $LN4@Allocate

; 26   : 		;
; 27   : 	else if (((size_t)(-1) / sizeof (_Ty) < _Count)

	jmp	SHORT $LN3@Allocate
$LN4@Allocate:

; 28   : 		|| (_Ptr = ::operator new(_Count * sizeof (_Ty))) == 0)

	cmp	DWORD PTR __Count$[ebp], -1
	ja	SHORT $LN1@Allocate
	mov	eax, DWORD PTR __Count$[ebp]
	push	eax
	call	??2@YAPAXI@Z				; operator new
	add	esp, 4
	mov	DWORD PTR __Ptr$[ebp], eax
	cmp	DWORD PTR __Ptr$[ebp], 0
	jne	SHORT $LN3@Allocate
$LN1@Allocate:

; 29   : 		_Xbad_alloc();	// report no memory

	call	?_Xbad_alloc@std@@YAXXZ			; std::_Xbad_alloc
$LN3@Allocate:

; 30   : 
; 31   : 	return ((_Ty *)_Ptr);

	mov	eax, DWORD PTR __Ptr$[ebp]
$LN6@Allocate:

; 32   : 	}

	mov	esp, ebp
	pop	ebp
	ret	0
??$_Allocate@D@std@@YAPADIPAD@Z ENDP			; std::_Allocate<char>
_TEXT	ENDS
; Function compile flags: /Odtp
; File c:\program files (x86)\microsoft visual studio 11.0\vc\include\xstddef
;	COMDAT ??$addressof@D@std@@YAPADAAD@Z
_TEXT	SEGMENT
__Val$ = 8						; size = 4
??$addressof@D@std@@YAPADAAD@Z PROC			; std::addressof<char>, COMDAT

; 85   : 	{	// return address of _Val

	push	ebp
	mov	ebp, esp

; 86   : 	return (reinterpret_cast<_Ty *>(
; 87   : 		(&const_cast<char&>(
; 88   : 		reinterpret_cast<const volatile char&>(_Val)))));

	mov	eax, DWORD PTR __Val$[ebp]

; 89   : 	}

	pop	ebp
	ret	0
??$addressof@D@std@@YAPADAAD@Z ENDP			; std::addressof<char>
_TEXT	ENDS
; Function compile flags: /Odtp
; File c:\program files (x86)\microsoft visual studio 11.0\vc\include\xmemory0
;	COMDAT ??$destroy@PAD@?$_Wrap_alloc@V?$allocator@D@std@@@std@@QAEXPAPAD@Z
_TEXT	SEGMENT
_this$ = -4						; size = 4
__Ptr$ = 8						; size = 4
??$destroy@PAD@?$_Wrap_alloc@V?$allocator@D@std@@@std@@QAEXPAPAD@Z PROC ; std::_Wrap_alloc<std::allocator<char> >::destroy<char *>, COMDAT
; _this$ = ecx

; 907  : 		void destroy(_Ty *_Ptr)

	push	ebp
	mov	ebp, esp
	push	ecx
	mov	DWORD PTR _this$[ebp], ecx

; 908  : 		{	// destroy object at _Ptr
; 909  : 		_Mytraits::destroy(*this, _Ptr);

	mov	eax, DWORD PTR __Ptr$[ebp]
	push	eax
	mov	ecx, DWORD PTR _this$[ebp]
	push	ecx
	call	??$destroy@PAD@?$allocator_traits@V?$allocator@D@std@@@std@@SAXAAV?$allocator@D@1@PAPAD@Z ; std::allocator_traits<std::allocator<char> >::destroy<char *>
	add	esp, 8

; 910  : 		}

	mov	esp, ebp
	pop	ebp
	ret	4
??$destroy@PAD@?$_Wrap_alloc@V?$allocator@D@std@@@std@@QAEXPAPAD@Z ENDP ; std::_Wrap_alloc<std::allocator<char> >::destroy<char *>
_TEXT	ENDS
; Function compile flags: /Odtp
; File c:\program files (x86)\microsoft visual studio 11.0\vc\include\xmemory0
;	COMDAT ??$construct@PADAAPAD@?$_Wrap_alloc@V?$allocator@D@std@@@std@@QAEXPAPADAAPAD@Z
_TEXT	SEGMENT
_this$ = -4						; size = 4
__Ptr$ = 8						; size = 4
__V0$ = 12						; size = 4
??$construct@PADAAPAD@?$_Wrap_alloc@V?$allocator@D@std@@@std@@QAEXPAPADAAPAD@Z PROC ; std::_Wrap_alloc<std::allocator<char> >::construct<char *,char * &>, COMDAT
; _this$ = ecx

; 903  : _VARIADIC_EXPAND_0X(_WRAP_ALLOC_CONSTRUCT, , , , )

	push	ebp
	mov	ebp, esp
	push	ecx
	mov	DWORD PTR _this$[ebp], ecx
	mov	eax, DWORD PTR __V0$[ebp]
	push	eax
	call	??$forward@AAPAD@std@@YAAAPADAAPAD@Z	; std::forward<char * &>
	add	esp, 4
	push	eax
	mov	ecx, DWORD PTR __Ptr$[ebp]
	push	ecx
	mov	edx, DWORD PTR _this$[ebp]
	push	edx
	call	??$construct@PADAAPAD@?$allocator_traits@V?$allocator@D@std@@@std@@SAXAAV?$allocator@D@1@PAPADAAPAD@Z ; std::allocator_traits<std::allocator<char> >::construct<char *,char * &>
	add	esp, 12					; 0000000cH
	mov	esp, ebp
	pop	ebp
	ret	8
??$construct@PADAAPAD@?$_Wrap_alloc@V?$allocator@D@std@@@std@@QAEXPAPADAAPAD@Z ENDP ; std::_Wrap_alloc<std::allocator<char> >::construct<char *,char * &>
_TEXT	ENDS
; Function compile flags: /Odtp
; File c:\users\zhitao li\documents\visual studio 2012\projects\freefalcon\sim\include\simio.h
;	COMDAT ?AnalogIsUsed@SIMLIB_IO_CLASS@@QAE_NW4GameAxis_t@@@Z
_TEXT	SEGMENT
_this$ = -4						; size = 4
_id$ = 8						; size = 4
?AnalogIsUsed@SIMLIB_IO_CLASS@@QAE_NW4GameAxis_t@@@Z PROC ; SIMLIB_IO_CLASS::AnalogIsUsed, COMDAT
; _this$ = ecx

; 237  : 	bool	AnalogIsUsed(GameAxis_t id) { return ( analog[id].isUsed); };

	push	ebp
	mov	ebp, esp
	push	ecx
	mov	DWORD PTR _this$[ebp], ecx
	mov	eax, DWORD PTR _id$[ebp]
	imul	eax, 28					; 0000001cH
	mov	ecx, DWORD PTR _this$[ebp]
	mov	al, BYTE PTR [ecx+eax+12]
	mov	esp, ebp
	pop	ebp
	ret	4
?AnalogIsUsed@SIMLIB_IO_CLASS@@QAE_NW4GameAxis_t@@@Z ENDP ; SIMLIB_IO_CLASS::AnalogIsUsed
_TEXT	ENDS
; Function compile flags: /Odtp
; File c:\users\zhitao li\documents\visual studio 2012\projects\freefalcon\sim\include\trackir.h
;	COMDAT ?Get_Panning_Allowed@TrackIR@@QAE_NXZ
_TEXT	SEGMENT
_this$ = -4						; size = 4
?Get_Panning_Allowed@TrackIR@@QAE_NXZ PROC		; TrackIR::Get_Panning_Allowed, COMDAT
; _this$ = ecx

; 18   : 	bool Get_Panning_Allowed()	{ return panningAllowed; }

	push	ebp
	mov	ebp, esp
	push	ecx
	mov	DWORD PTR _this$[ebp], ecx
	mov	eax, DWORD PTR _this$[ebp]
	mov	al, BYTE PTR [eax+8]
	mov	esp, ebp
	pop	ebp
	ret	0
?Get_Panning_Allowed@TrackIR@@QAE_NXZ ENDP		; TrackIR::Get_Panning_Allowed
_TEXT	ENDS
; Function compile flags: /Odtp
; File c:\users\zhitao li\documents\visual studio 2012\projects\freefalcon\sim\include\trackir.h
;	COMDAT ?Allow_2D_Panning@TrackIR@@QAEXXZ
_TEXT	SEGMENT
_this$ = -4						; size = 4
?Allow_2D_Panning@TrackIR@@QAEXXZ PROC			; TrackIR::Allow_2D_Panning, COMDAT
; _this$ = ecx

; 17   : 	void Allow_2D_Panning()		{ panningAllowed = true; }

	push	ebp
	mov	ebp, esp
	push	ecx
	mov	DWORD PTR _this$[ebp], ecx
	mov	eax, DWORD PTR _this$[ebp]
	mov	BYTE PTR [eax+8], 1
	mov	esp, ebp
	pop	ebp
	ret	0
?Allow_2D_Panning@TrackIR@@QAEXXZ ENDP			; TrackIR::Allow_2D_Panning
_TEXT	ENDS
; Function compile flags: /Odtp
; File c:\users\zhitao li\documents\visual studio 2012\projects\freefalcon\sim\include\digi.h
;	COMDAT ?ATCStatus@DigitalBrain@@QAE?AW4AtcStatusEnum@@XZ
_TEXT	SEGMENT
_this$ = -4						; size = 4
?ATCStatus@DigitalBrain@@QAE?AW4AtcStatusEnum@@XZ PROC	; DigitalBrain::ATCStatus, COMDAT
; _this$ = ecx

; 765  : 	AtcStatusEnum	ATCStatus(void)							{return atcstatus;}

	push	ebp
	mov	ebp, esp
	push	ecx
	mov	DWORD PTR _this$[ebp], ecx
	mov	eax, DWORD PTR _this$[ebp]
	mov	eax, DWORD PTR [eax+328]
	mov	esp, ebp
	pop	ebp
	ret	0
?ATCStatus@DigitalBrain@@QAE?AW4AtcStatusEnum@@XZ ENDP	; DigitalBrain::ATCStatus
_TEXT	ENDS
; Function compile flags: /Odtp
; File c:\users\zhitao li\documents\visual studio 2012\projects\freefalcon\ui\include\uicomms.h
;	COMDAT ?Online@UIComms@@QAEHXZ
_TEXT	SEGMENT
_this$ = -4						; size = 4
?Online@UIComms@@QAEHXZ PROC				; UIComms::Online, COMDAT
; _this$ = ecx

; 118  : 		BOOL Online()					{ return(Online_); }

	push	ebp
	mov	ebp, esp
	push	ecx
	mov	DWORD PTR _this$[ebp], ecx
	mov	eax, DWORD PTR _this$[ebp]
	mov	eax, DWORD PTR [eax+64]
	mov	esp, ebp
	pop	ebp
	ret	0
?Online@UIComms@@QAEHXZ ENDP				; UIComms::Online
_TEXT	ENDS
; Function compile flags: /Odtp
; File c:\users\zhitao li\documents\visual studio 2012\projects\freefalcon\sim\include\airframe.h
;	COMDAT ?EPUFuel@AirframeClass@@QAEMXZ
_TEXT	SEGMENT
_this$ = -4						; size = 4
?EPUFuel@AirframeClass@@QAEMXZ PROC			; AirframeClass::EPUFuel, COMDAT
; _this$ = ecx

; 1197 : 	float EPUFuel (void) {return epuFuel;};

	push	ebp
	mov	ebp, esp
	push	ecx
	mov	DWORD PTR _this$[ebp], ecx
	mov	eax, DWORD PTR _this$[ebp]
	fld	DWORD PTR [eax+36]
	mov	esp, ebp
	pop	ebp
	ret	0
?EPUFuel@AirframeClass@@QAEMXZ ENDP			; AirframeClass::EPUFuel
_TEXT	ENDS
; Function compile flags: /Odtp
; File c:\users\zhitao li\documents\visual studio 2012\projects\freefalcon\sim\include\airframe.h
;	COMDAT ?FuelFlow@AirframeClass@@QAEMXZ
_TEXT	SEGMENT
_this$ = -4						; size = 4
?FuelFlow@AirframeClass@@QAEMXZ PROC			; AirframeClass::FuelFlow, COMDAT
; _this$ = ecx

; 1192 : 	float FuelFlow (void) {return fuelFlow;};

	push	ebp
	mov	ebp, esp
	push	ecx
	mov	DWORD PTR _this$[ebp], ecx
	mov	eax, DWORD PTR _this$[ebp]
	fld	DWORD PTR [eax+24]
	mov	esp, ebp
	pop	ebp
	ret	0
?FuelFlow@AirframeClass@@QAEMXZ ENDP			; AirframeClass::FuelFlow
_TEXT	ENDS
; Function compile flags: /Odtp
; File c:\users\zhitao li\documents\visual studio 2012\projects\freefalcon\sim\include\airframe.h
;	COMDAT ?ExternalFuel@AirframeClass@@QAEMXZ
_TEXT	SEGMENT
_this$ = -4						; size = 4
?ExternalFuel@AirframeClass@@QAEMXZ PROC		; AirframeClass::ExternalFuel, COMDAT
; _this$ = ecx

; 1184 : 	float ExternalFuel (void) {return externalFuel;};

	push	ebp
	mov	ebp, esp
	push	ecx
	mov	DWORD PTR _this$[ebp], ecx
	mov	eax, DWORD PTR _this$[ebp]
	fld	DWORD PTR [eax+32]
	mov	esp, ebp
	pop	ebp
	ret	0
?ExternalFuel@AirframeClass@@QAEMXZ ENDP		; AirframeClass::ExternalFuel
_TEXT	ENDS
; Function compile flags: /Odtp
; File c:\users\zhitao li\documents\visual studio 2012\projects\freefalcon\sim\include\airframe.h
;	COMDAT ?Fuel@AirframeClass@@QAEMXZ
_TEXT	SEGMENT
_this$ = -4						; size = 4
?Fuel@AirframeClass@@QAEMXZ PROC			; AirframeClass::Fuel, COMDAT
; _this$ = ecx

; 1183 : 	float Fuel (void) {return fuel;};

	push	ebp
	mov	ebp, esp
	push	ecx
	mov	DWORD PTR _this$[ebp], ecx
	mov	eax, DWORD PTR _this$[ebp]
	fld	DWORD PTR [eax+20]
	mov	esp, ebp
	pop	ebp
	ret	0
?Fuel@AirframeClass@@QAEMXZ ENDP			; AirframeClass::Fuel
_TEXT	ENDS
; Function compile flags: /Odtp
; File c:\users\zhitao li\documents\visual studio 2012\projects\freefalcon\campaign\include\dogfight.h
;	COMDAT ?GetGameType@DogfightClass@@QAE?AW4DogfightType@@XZ
_TEXT	SEGMENT
_this$ = -4						; size = 4
?GetGameType@DogfightClass@@QAE?AW4DogfightType@@XZ PROC ; DogfightClass::GetGameType, COMDAT
; _this$ = ecx

; 90   : 		DogfightType GetGameType (void)					{ return gameType; };

	push	ebp
	mov	ebp, esp
	push	ecx
	mov	DWORD PTR _this$[ebp], ecx
	mov	eax, DWORD PTR _this$[ebp]
	mov	eax, DWORD PTR [eax]
	mov	esp, ebp
	pop	ebp
	ret	0
?GetGameType@DogfightClass@@QAE?AW4DogfightType@@XZ ENDP ; DogfightClass::GetGameType
_TEXT	ENDS
; Function compile flags: /Odtp
; File c:\users\zhitao li\documents\visual studio 2012\projects\freefalcon\acmi\src\include\acmirec.h
;	COMDAT ?IsRecording@ACMIRecorder@@QAEHXZ
_TEXT	SEGMENT
_this$ = -4						; size = 4
?IsRecording@ACMIRecorder@@QAEHXZ PROC			; ACMIRecorder::IsRecording, COMDAT
; _this$ = ecx

; 319  : 	{

	push	ebp
	mov	ebp, esp
	push	ecx
	mov	DWORD PTR _this$[ebp], ecx

; 320  : 		return _recording;

	mov	eax, DWORD PTR _this$[ebp]
	mov	eax, DWORD PTR [eax+8]

; 321  : 	};

	mov	esp, ebp
	pop	ebp
	ret	0
?IsRecording@ACMIRecorder@@QAEHXZ ENDP			; ACMIRecorder::IsRecording
_TEXT	ENDS
; Function compile flags: /Odtp
; File c:\users\zhitao li\documents\visual studio 2012\projects\freefalcon\sim\include\simdrive.h
;	COMDAT ?AVTROn@SimulationDriver@@QAEHXZ
_TEXT	SEGMENT
_this$ = -4						; size = 4
?AVTROn@SimulationDriver@@QAEHXZ PROC			; SimulationDriver::AVTROn, COMDAT
; _this$ = ecx

; 100  : 	int AVTROn (void) {return avtrOn;};

	push	ebp
	mov	ebp, esp
	push	ecx
	mov	DWORD PTR _this$[ebp], ecx
	mov	eax, DWORD PTR _this$[ebp]
	mov	eax, DWORD PTR [eax+356]
	mov	esp, ebp
	pop	ebp
	ret	0
?AVTROn@SimulationDriver@@QAEHXZ ENDP			; SimulationDriver::AVTROn
_TEXT	ENDS
; Function compile flags: /Odtp
; File c:\users\zhitao li\documents\visual studio 2012\projects\freefalcon\sim\include\simdrive.h
;	COMDAT ?MotionOn@SimulationDriver@@QAEHXZ
_TEXT	SEGMENT
_this$ = -4						; size = 4
?MotionOn@SimulationDriver@@QAEHXZ PROC			; SimulationDriver::MotionOn, COMDAT
; _this$ = ecx

; 98   : 	int MotionOn(void) {return motionOn;};

	push	ebp
	mov	ebp, esp
	push	ecx
	mov	DWORD PTR _this$[ebp], ecx
	mov	eax, DWORD PTR _this$[ebp]
	mov	eax, DWORD PTR [eax+352]
	mov	esp, ebp
	pop	ebp
	ret	0
?MotionOn@SimulationDriver@@QAEHXZ ENDP			; SimulationDriver::MotionOn
_TEXT	ENDS
; Function compile flags: /Odtp
; File c:\users\zhitao li\documents\visual studio 2012\projects\freefalcon\sim\include\aircrft.h
;	COMDAT ?DBrain@AircraftClass@@QAEPAVDigitalBrain@@XZ
_TEXT	SEGMENT
_this$ = -4						; size = 4
?DBrain@AircraftClass@@QAEPAVDigitalBrain@@XZ PROC	; AircraftClass::DBrain, COMDAT
; _this$ = ecx

; 624  : 	DigitalBrain *DBrain(void)			{return (DigitalBrain *)theBrain;}

	push	ebp
	mov	ebp, esp
	push	ecx
	mov	DWORD PTR _this$[ebp], ecx
	mov	eax, DWORD PTR _this$[ebp]
	mov	eax, DWORD PTR [eax+672]
	mov	esp, ebp
	pop	ebp
	ret	0
?DBrain@AircraftClass@@QAEPAVDigitalBrain@@XZ ENDP	; AircraftClass::DBrain
_TEXT	ENDS
; Function compile flags: /Odtp
; File c:\users\zhitao li\documents\visual studio 2012\projects\freefalcon\sim\include\aircrft.h
;	COMDAT ?AutopilotType@AircraftClass@@QAE?AW4AutoPilotType@1@XZ
_TEXT	SEGMENT
_this$ = -4						; size = 4
?AutopilotType@AircraftClass@@QAE?AW4AutoPilotType@1@XZ PROC ; AircraftClass::AutopilotType, COMDAT
; _this$ = ecx

; 329  : 	AutoPilotType	AutopilotType (void) {return autopilotType;};

	push	ebp
	mov	ebp, esp
	push	ecx
	mov	DWORD PTR _this$[ebp], ecx
	mov	eax, DWORD PTR _this$[ebp]
	mov	eax, DWORD PTR [eax+968]
	mov	esp, ebp
	pop	ebp
	ret	0
?AutopilotType@AircraftClass@@QAE?AW4AutoPilotType@1@XZ ENDP ; AircraftClass::AutopilotType
_TEXT	ENDS
; Function compile flags: /Odtp
; File c:\users\zhitao li\documents\visual studio 2012\projects\freefalcon\sim\include\aircrft.h
;	COMDAT ?INSState@AircraftClass@@QAEHW4INSAlignFlags@1@@Z
_TEXT	SEGMENT
_this$ = -8						; size = 4
tv67 = -4						; size = 4
_fl$ = 8						; size = 4
?INSState@AircraftClass@@QAEHW4INSAlignFlags@1@@Z PROC	; AircraftClass::INSState, COMDAT
; _this$ = ecx

; 211  : 	int INSState(INSAlignFlags fl) { return (INSFlags & fl) == (unsigned int)fl ? 1 : 0; };

	push	ebp
	mov	ebp, esp
	sub	esp, 8
	mov	DWORD PTR _this$[ebp], ecx
	mov	eax, DWORD PTR _this$[ebp]
	mov	ecx, DWORD PTR [eax+768]
	and	ecx, DWORD PTR _fl$[ebp]
	cmp	ecx, DWORD PTR _fl$[ebp]
	jne	SHORT $LN3@INSState
	mov	DWORD PTR tv67[ebp], 1
	jmp	SHORT $LN4@INSState
$LN3@INSState:
	mov	DWORD PTR tv67[ebp], 0
$LN4@INSState:
	mov	eax, DWORD PTR tv67[ebp]
	mov	esp, ebp
	pop	ebp
	ret	4
?INSState@AircraftClass@@QAEHW4INSAlignFlags@1@@Z ENDP	; AircraftClass::INSState
_TEXT	ENDS
; Function compile flags: /Odtp
; File c:\users\zhitao li\documents\visual studio 2012\projects\freefalcon\sim\include\simmover.h
;	COMDAT ?GetDOFValue@SimMoverClass@@QAEMH@Z
_TEXT	SEGMENT
tv69 = -8						; size = 4
_this$ = -4						; size = 4
_dof$ = 8						; size = 4
?GetDOFValue@SimMoverClass@@QAEMH@Z PROC		; SimMoverClass::GetDOFValue, COMDAT
; _this$ = ecx

; 132  : 	float GetDOFValue (int dof) { ShiAssert(dof < numDofs); return dof < numDofs ? DOFData[dof] : 0;}

	push	ebp
	mov	ebp, esp
	sub	esp, 8
	mov	DWORD PTR _this$[ebp], ecx
	mov	eax, DWORD PTR _this$[ebp]
	mov	ecx, DWORD PTR _dof$[ebp]
	cmp	ecx, DWORD PTR [eax+600]
	jge	SHORT $LN3@GetDOFValu
	mov	edx, DWORD PTR _this$[ebp]
	mov	eax, DWORD PTR [edx+612]
	mov	ecx, DWORD PTR _dof$[ebp]
	movss	xmm0, DWORD PTR [eax+ecx*4]
	movss	DWORD PTR tv69[ebp], xmm0
	jmp	SHORT $LN4@GetDOFValu
$LN3@GetDOFValu:
	movss	xmm0, DWORD PTR __real@00000000
	movss	DWORD PTR tv69[ebp], xmm0
$LN4@GetDOFValu:
	fld	DWORD PTR tv69[ebp]
	mov	esp, ebp
	pop	ebp
	ret	4
?GetDOFValue@SimMoverClass@@QAEMH@Z ENDP		; SimMoverClass::GetDOFValue
_TEXT	ENDS
; Function compile flags: /Odtp
; File c:\users\zhitao li\documents\visual studio 2012\projects\freefalcon\falclib\include\falcsess.h
;	COMDAT ?GetReqCompression@FalconSessionEntity@@QBEFXZ
_TEXT	SEGMENT
_this$ = -4						; size = 4
?GetReqCompression@FalconSessionEntity@@QBEFXZ PROC	; FalconSessionEntity::GetReqCompression, COMDAT
; _this$ = ecx

; 148  : 	short GetReqCompression (void) const          { return reqCompression; }

	push	ebp
	mov	ebp, esp
	push	ecx
	mov	DWORD PTR _this$[ebp], ecx
	mov	eax, DWORD PTR _this$[ebp]
	mov	ax, WORD PTR [eax+514]
	mov	esp, ebp
	pop	ebp
	ret	0
?GetReqCompression@FalconSessionEntity@@QBEFXZ ENDP	; FalconSessionEntity::GetReqCompression
_TEXT	ENDS
; Function compile flags: /Odtp
; File c:\users\zhitao li\documents\visual studio 2012\projects\freefalcon\sim\include\cpmanager.h
;	COMDAT ?LabelFont@CockpitManager@@QAEHXZ
_TEXT	SEGMENT
_this$ = -4						; size = 4
?LabelFont@CockpitManager@@QAEHXZ PROC			; CockpitManager::LabelFont, COMDAT
; _this$ = ecx

; 597  : 	int      LabelFont(void) { return mLabelFont;};

	push	ebp
	mov	ebp, esp
	push	ecx
	mov	DWORD PTR _this$[ebp], ecx
	mov	eax, DWORD PTR _this$[ebp]
	mov	eax, DWORD PTR [eax+92]
	mov	esp, ebp
	pop	ebp
	ret	0
?LabelFont@CockpitManager@@QAEHXZ ENDP			; CockpitManager::LabelFont
_TEXT	ENDS
; Function compile flags: /Odtp
; File c:\users\zhitao li\documents\visual studio 2012\projects\freefalcon\sim\include\cpmanager.h
;	COMDAT ?GeneralFont@CockpitManager@@QAEHXZ
_TEXT	SEGMENT
_this$ = -4						; size = 4
?GeneralFont@CockpitManager@@QAEHXZ PROC		; CockpitManager::GeneralFont, COMDAT
; _this$ = ecx

; 593  : 	int      GeneralFont(void) { return mGeneralFont;};

	push	ebp
	mov	ebp, esp
	push	ecx
	mov	DWORD PTR _this$[ebp], ecx
	mov	eax, DWORD PTR _this$[ebp]
	mov	eax, DWORD PTR [eax+76]
	mov	esp, ebp
	pop	ebp
	ret	0
?GeneralFont@CockpitManager@@QAEHXZ ENDP		; CockpitManager::GeneralFont
_TEXT	ENDS
; Function compile flags: /Odtp
; File c:\users\zhitao li\documents\visual studio 2012\projects\freefalcon\sim\include\cpmanager.h
;	COMDAT ?GetCockpitHeight@CockpitManager@@QAEHXZ
_TEXT	SEGMENT
_this$ = -4						; size = 4
?GetCockpitHeight@CockpitManager@@QAEHXZ PROC		; CockpitManager::GetCockpitHeight, COMDAT
; _this$ = ecx

; 578  : 	int		GetCockpitHeight(){return DisplayOptions.DispHeight;};

	push	ebp
	mov	ebp, esp
	push	ecx
	mov	DWORD PTR _this$[ebp], ecx
	movzx	eax, WORD PTR ?DisplayOptions@@3VDisplayOptionsClass@@A+2
	mov	esp, ebp
	pop	ebp
	ret	0
?GetCockpitHeight@CockpitManager@@QAEHXZ ENDP		; CockpitManager::GetCockpitHeight
_TEXT	ENDS
; Function compile flags: /Odtp
; File c:\users\zhitao li\documents\visual studio 2012\projects\freefalcon\sim\include\cpmanager.h
;	COMDAT ?GetCockpitWidth@CockpitManager@@QAEHXZ
_TEXT	SEGMENT
_this$ = -4						; size = 4
?GetCockpitWidth@CockpitManager@@QAEHXZ PROC		; CockpitManager::GetCockpitWidth, COMDAT
; _this$ = ecx

; 577  : 	int		GetCockpitWidth() {return DisplayOptions.DispWidth;};

	push	ebp
	mov	ebp, esp
	push	ecx
	mov	DWORD PTR _this$[ebp], ecx
	movzx	eax, WORD PTR ?DisplayOptions@@3VDisplayOptionsClass@@A
	mov	esp, ebp
	pop	ebp
	ret	0
?GetCockpitWidth@CockpitManager@@QAEHXZ ENDP		; CockpitManager::GetCockpitWidth
_TEXT	ENDS
; Function compile flags: /Odtp
; File c:\users\zhitao li\documents\visual studio 2012\projects\freefalcon\sim\include\flightdata.h
;	COMDAT ?ClearHsiBit@FlightData@@QAEXH@Z
_TEXT	SEGMENT
_this$ = -4						; size = 4
_newBit$ = 8						; size = 4
?ClearHsiBit@FlightData@@QAEXH@Z PROC			; FlightData::ClearHsiBit, COMDAT
; _this$ = ecx

; 287  :     void ClearHsiBit (int newBit) {hsiBits &= ~newBit;};

	push	ebp
	mov	ebp, esp
	push	ecx
	mov	DWORD PTR _this$[ebp], ecx
	mov	eax, DWORD PTR _newBit$[ebp]
	not	eax
	mov	ecx, DWORD PTR _this$[ebp]
	and	eax, DWORD PTR [ecx+248]
	mov	edx, DWORD PTR _this$[ebp]
	mov	DWORD PTR [edx+248], eax
	mov	esp, ebp
	pop	ebp
	ret	4
?ClearHsiBit@FlightData@@QAEXH@Z ENDP			; FlightData::ClearHsiBit
_TEXT	ENDS
; Function compile flags: /Odtp
; File c:\users\zhitao li\documents\visual studio 2012\projects\freefalcon\sim\include\flightdata.h
;	COMDAT ?SetHsiBit@FlightData@@QAEXH@Z
_TEXT	SEGMENT
_this$ = -4						; size = 4
_newBit$ = 8						; size = 4
?SetHsiBit@FlightData@@QAEXH@Z PROC			; FlightData::SetHsiBit, COMDAT
; _this$ = ecx

; 286  :     void SetHsiBit (int newBit) {hsiBits |= newBit;};

	push	ebp
	mov	ebp, esp
	push	ecx
	mov	DWORD PTR _this$[ebp], ecx
	mov	eax, DWORD PTR _this$[ebp]
	mov	ecx, DWORD PTR [eax+248]
	or	ecx, DWORD PTR _newBit$[ebp]
	mov	edx, DWORD PTR _this$[ebp]
	mov	DWORD PTR [edx+248], ecx
	mov	esp, ebp
	pop	ebp
	ret	4
?SetHsiBit@FlightData@@QAEXH@Z ENDP			; FlightData::SetHsiBit
_TEXT	ENDS
; Function compile flags: /Odtp
; File c:\users\zhitao li\documents\visual studio 2012\projects\freefalcon\graphics\include\device.h
;	COMDAT ?GetDefaultRC@DisplayDevice@@QAEPAVDXContext@@XZ
_TEXT	SEGMENT
_this$ = -4						; size = 4
?GetDefaultRC@DisplayDevice@@QAEPAVDXContext@@XZ PROC	; DisplayDevice::GetDefaultRC, COMDAT
; _this$ = ecx

; 29   : 	DXContext *GetDefaultRC( void )			{ return m_DXCtx; };

	push	ebp
	mov	ebp, esp
	push	ecx
	mov	DWORD PTR _this$[ebp], ecx
	mov	eax, DWORD PTR _this$[ebp]
	mov	eax, DWORD PTR [eax]
	mov	esp, ebp
	pop	ebp
	ret	0
?GetDefaultRC@DisplayDevice@@QAEPAVDXContext@@XZ ENDP	; DisplayDevice::GetDefaultRC
_TEXT	ENDS
; Function compile flags: /Odtp
; File c:\users\zhitao li\documents\visual studio 2012\projects\freefalcon\sim\otwdrive\otwloop.cpp
_TEXT	SEGMENT
tv67 = -8						; size = 4
_this$ = -4						; size = 4
?ToggleSubTitles@OTWDriverClass@@QAEXXZ PROC		; OTWDriverClass::ToggleSubTitles
; _this$ = ecx

; 669  : {

	push	ebp
	mov	ebp, esp
	sub	esp, 8
	mov	DWORD PTR _this$[ebp], ecx

; 670  : 	drawSubTitles = !drawSubTitles;

	mov	eax, DWORD PTR _this$[ebp]
	cmp	DWORD PTR [eax+33572], 0
	jne	SHORT $LN3@ToggleSubT
	mov	DWORD PTR tv67[ebp], 1
	jmp	SHORT $LN4@ToggleSubT
$LN3@ToggleSubT:
	mov	DWORD PTR tv67[ebp], 0
$LN4@ToggleSubT:
	mov	ecx, DWORD PTR _this$[ebp]
	mov	edx, DWORD PTR tv67[ebp]
	mov	DWORD PTR [ecx+33572], edx

; 671  : }

	mov	esp, ebp
	pop	ebp
	ret	0
?ToggleSubTitles@OTWDriverClass@@QAEXXZ ENDP		; OTWDriverClass::ToggleSubTitles
_TEXT	ENDS
; Function compile flags: /Odtp
; File c:\users\zhitao li\documents\visual studio 2012\projects\freefalcon\sim\otwdrive\otwloop.cpp
_TEXT	SEGMENT
tv67 = -12						; size = 4
_this$ = -8						; size = 4
_result$ = -2						; size = 1
tv70 = -1						; size = 1
?ToggleInfoBar@OTWDriverClass@@QAEXXZ PROC		; OTWDriverClass::ToggleInfoBar
; _this$ = ecx

; 482  : {

	push	ebp
	mov	ebp, esp
	sub	esp, 12					; 0000000cH
	mov	DWORD PTR _this$[ebp], ecx

; 483  : 	drawInfoBar = !drawInfoBar;

	mov	eax, DWORD PTR _this$[ebp]
	cmp	DWORD PTR [eax+33568], 0
	jne	SHORT $LN3@ToggleInfo
	mov	DWORD PTR tv67[ebp], 1
	jmp	SHORT $LN4@ToggleInfo
$LN3@ToggleInfo:
	mov	DWORD PTR tv67[ebp], 0
$LN4@ToggleInfo:
	mov	ecx, DWORD PTR _this$[ebp]
	mov	edx, DWORD PTR tv67[ebp]
	mov	DWORD PTR [ecx+33568], edx

; 484  : 
; 485  : 	bool result = (drawInfoBar == TRUE)?true:false;

	mov	eax, DWORD PTR _this$[ebp]
	cmp	DWORD PTR [eax+33568], 1
	jne	SHORT $LN5@ToggleInfo
	mov	BYTE PTR tv70[ebp], 1
	jmp	SHORT $LN6@ToggleInfo
$LN5@ToggleInfo:
	mov	BYTE PTR tv70[ebp], 0
$LN6@ToggleInfo:
	mov	cl, BYTE PTR tv70[ebp]
	mov	BYTE PTR _result$[ebp], cl

; 486  : 	PlayerOptions.SetInfoBar(result);

	movzx	edx, BYTE PTR _result$[ebp]
	push	edx
	mov	ecx, OFFSET ?PlayerOptions@@3VPlayerOptionsClass@@A ; PlayerOptions
	call	?SetInfoBar@PlayerOptionsClass@@QAEX_N@Z ; PlayerOptionsClass::SetInfoBar

; 487  : }

	mov	esp, ebp
	pop	ebp
	ret	0
?ToggleInfoBar@OTWDriverClass@@QAEXXZ ENDP		; OTWDriverClass::ToggleInfoBar
_TEXT	ENDS
; Function compile flags: /Odtp
; File c:\users\zhitao li\documents\visual studio 2012\projects\freefalcon\sim\otwdrive\otwloop.cpp
_TEXT	SEGMENT
_this$ = -12						; size = 4
tv132 = -8						; size = 4
tv94 = -4						; size = 4
_pan$ = 8						; size = 4
_tilt$ = 12						; size = 4
?RunNew2DTrackIR@OTWDriverClass@@AAEXMM@Z PROC		; OTWDriverClass::RunNew2DTrackIR
; _this$ = ecx

; 2536 : {

	push	ebp
	mov	ebp, esp
	sub	esp, 12					; 0000000cH
	mov	DWORD PTR _this$[ebp], ecx

; 2537 : 	
; 2538 : 	static float lastpan = pan;

	mov	eax, DWORD PTR ?$S1@?1??RunNew2DTrackIR@OTWDriverClass@@AAEXMM@Z@4IA
	and	eax, 1
	jne	SHORT $LN4@RunNew2DTr
	mov	ecx, DWORD PTR ?$S1@?1??RunNew2DTrackIR@OTWDriverClass@@AAEXMM@Z@4IA
	or	ecx, 1
	mov	DWORD PTR ?$S1@?1??RunNew2DTrackIR@OTWDriverClass@@AAEXMM@Z@4IA, ecx
	movss	xmm0, DWORD PTR _pan$[ebp]
	movss	DWORD PTR ?lastpan@?1??RunNew2DTrackIR@OTWDriverClass@@AAEXMM@Z@4MA, xmm0
$LN4@RunNew2DTr:

; 2539 : 	static float lasttilt = tilt;

	mov	edx, DWORD PTR ?$S1@?1??RunNew2DTrackIR@OTWDriverClass@@AAEXMM@Z@4IA
	and	edx, 2
	jne	SHORT $LN3@RunNew2DTr
	mov	eax, DWORD PTR ?$S1@?1??RunNew2DTrackIR@OTWDriverClass@@AAEXMM@Z@4IA
	or	eax, 2
	mov	DWORD PTR ?$S1@?1??RunNew2DTrackIR@OTWDriverClass@@AAEXMM@Z@4IA, eax
	movss	xmm0, DWORD PTR _tilt$[ebp]
	movss	DWORD PTR ?lasttilt@?1??RunNew2DTrackIR@OTWDriverClass@@AAEXMM@Z@4MA, xmm0
$LN3@RunNew2DTr:

; 2540 : 
; 2541 : 	//the 10.0f values are arbitrary, but seems to produce the right amount of jitter reduction while still being sensitive
; 2542 : 
; 2543 : 	if (fabs(pan-lastpan) > 10.0f * DTR || fabs(tilt - lasttilt) > 10.0f*DTR)			

	movss	xmm0, DWORD PTR _pan$[ebp]
	subss	xmm0, DWORD PTR ?lastpan@?1??RunNew2DTrackIR@OTWDriverClass@@AAEXMM@Z@4MA
	push	ecx
	movss	DWORD PTR [esp], xmm0
	call	?fabs@@YAMM@Z				; fabs
	add	esp, 4
	fstp	DWORD PTR tv94[ebp]
	movss	xmm0, DWORD PTR tv94[ebp]
	comiss	xmm0, DWORD PTR __real@3e32b8c1
	ja	SHORT $LN1@RunNew2DTr
	movss	xmm0, DWORD PTR _tilt$[ebp]
	subss	xmm0, DWORD PTR ?lasttilt@?1??RunNew2DTrackIR@OTWDriverClass@@AAEXMM@Z@4MA
	push	ecx
	movss	DWORD PTR [esp], xmm0
	call	?fabs@@YAMM@Z				; fabs
	add	esp, 4
	fstp	DWORD PTR tv132[ebp]
	movss	xmm0, DWORD PTR tv132[ebp]
	comiss	xmm0, DWORD PTR __real@3e32b8c1
	jbe	SHORT $LN2@RunNew2DTr
$LN1@RunNew2DTr:

; 2544 : 	{
; 2545 : 		lastpan = pan;

	movss	xmm0, DWORD PTR _pan$[ebp]
	movss	DWORD PTR ?lastpan@?1??RunNew2DTrackIR@OTWDriverClass@@AAEXMM@Z@4MA, xmm0

; 2546 : 		lasttilt = tilt;

	movss	xmm0, DWORD PTR _tilt$[ebp]
	movss	DWORD PTR ?lasttilt@?1??RunNew2DTrackIR@OTWDriverClass@@AAEXMM@Z@4MA, xmm0

; 2547 : 		pCockpitManager->Set2DPanelDirection(pan,tilt);

	push	ecx
	movss	xmm0, DWORD PTR _tilt$[ebp]
	movss	DWORD PTR [esp], xmm0
	push	ecx
	movss	xmm0, DWORD PTR _pan$[ebp]
	movss	DWORD PTR [esp], xmm0
	mov	ecx, DWORD PTR _this$[ebp]
	mov	ecx, DWORD PTR [ecx+33684]
	call	?Set2DPanelDirection@CockpitManager@@QAEHMM@Z ; CockpitManager::Set2DPanelDirection
$LN2@RunNew2DTr:

; 2548 : 	}
; 2549 : }

	mov	esp, ebp
	pop	ebp
	ret	8
?RunNew2DTrackIR@OTWDriverClass@@AAEXMM@Z ENDP		; OTWDriverClass::RunNew2DTrackIR
_TEXT	ENDS
; Function compile flags: /Odtp
; File c:\users\zhitao li\documents\visual studio 2012\projects\freefalcon\vu2\include\vu_templates.h
;	COMDAT ?reset@?$VuBin@VSimBaseClass@@@@QAEXPAVSimBaseClass@@@Z
_TEXT	SEGMENT
_this$ = -4						; size = 4
_newe$ = 8						; size = 4
?reset@?$VuBin@VSimBaseClass@@@@QAEXPAVSimBaseClass@@@Z PROC ; VuBin<SimBaseClass>::reset, COMDAT
; _this$ = ecx

; 60   : 	void reset(E *newe = NULL){

	push	ebp
	mov	ebp, esp
	push	ecx
	mov	DWORD PTR _this$[ebp], ecx

; 61   : 		if (newe == e){ return; }

	mov	eax, DWORD PTR _this$[ebp]
	mov	ecx, DWORD PTR _newe$[ebp]
	cmp	ecx, DWORD PTR [eax]
	jne	SHORT $LN1@reset
	jmp	SHORT $LN2@reset
$LN1@reset:

; 62   : 		VuReferenceEntity(newe); // ref new pointer

	mov	edx, DWORD PTR _newe$[ebp]
	push	edx
	call	?VuReferenceEntity@@YAHPAVVuEntity@@@Z	; VuReferenceEntity
	add	esp, 4

; 63   : 		VuDeReferenceEntity(e);  // unref old pointer

	mov	eax, DWORD PTR _this$[ebp]
	mov	ecx, DWORD PTR [eax]
	push	ecx
	call	?VuDeReferenceEntity@@YAHPAVVuEntity@@@Z ; VuDeReferenceEntity
	add	esp, 4

; 64   : 		e = newe;                // get new pointer

	mov	edx, DWORD PTR _this$[ebp]
	mov	eax, DWORD PTR _newe$[ebp]
	mov	DWORD PTR [edx], eax
$LN2@reset:

; 65   : 	}

	mov	esp, ebp
	pop	ebp
	ret	4
?reset@?$VuBin@VSimBaseClass@@@@QAEXPAVSimBaseClass@@@Z ENDP ; VuBin<SimBaseClass>::reset
_TEXT	ENDS
; Function compile flags: /Odtp
; File c:\users\zhitao li\documents\visual studio 2012\projects\freefalcon\vu2\include\vu_templates.h
;	COMDAT ?get@?$VuBin@VSimBaseClass@@@@QBEPAVSimBaseClass@@XZ
_TEXT	SEGMENT
_this$ = -4						; size = 4
?get@?$VuBin@VSimBaseClass@@@@QBEPAVSimBaseClass@@XZ PROC ; VuBin<SimBaseClass>::get, COMDAT
; _this$ = ecx

; 55   : 	E *get() const{

	push	ebp
	mov	ebp, esp
	push	ecx
	mov	DWORD PTR _this$[ebp], ecx

; 56   : 		return e;

	mov	eax, DWORD PTR _this$[ebp]
	mov	eax, DWORD PTR [eax]

; 57   : 	}

	mov	esp, ebp
	pop	ebp
	ret	0
?get@?$VuBin@VSimBaseClass@@@@QBEPAVSimBaseClass@@XZ ENDP ; VuBin<SimBaseClass>::get
_TEXT	ENDS
; Function compile flags: /Odtp
; File c:\users\zhitao li\documents\visual studio 2012\projects\freefalcon\vu2\include\vu_templates.h
;	COMDAT ??C?$VuBin@VSimBaseClass@@@@QBEPAVSimBaseClass@@XZ
_TEXT	SEGMENT
_this$ = -4						; size = 4
??C?$VuBin@VSimBaseClass@@@@QBEPAVSimBaseClass@@XZ PROC	; VuBin<SimBaseClass>::operator->, COMDAT
; _this$ = ecx

; 50   : 	E *operator->() const {

	push	ebp
	mov	ebp, esp
	push	ecx
	mov	DWORD PTR _this$[ebp], ecx

; 51   : 		return e;

	mov	eax, DWORD PTR _this$[ebp]
	mov	eax, DWORD PTR [eax]

; 52   : 	}

	mov	esp, ebp
	pop	ebp
	ret	0
??C?$VuBin@VSimBaseClass@@@@QBEPAVSimBaseClass@@XZ ENDP	; VuBin<SimBaseClass>::operator->
_TEXT	ENDS
; Function compile flags: /Odtp
; File c:\users\zhitao li\documents\visual studio 2012\projects\freefalcon\vu2\include\vu_templates.h
;	COMDAT ??7?$VuBin@VSimBaseClass@@@@QBE_NXZ
_TEXT	SEGMENT
_this$ = -8						; size = 4
tv66 = -4						; size = 4
??7?$VuBin@VSimBaseClass@@@@QBE_NXZ PROC		; VuBin<SimBaseClass>::operator!, COMDAT
; _this$ = ecx

; 37   : 	bool operator!() const{

	push	ebp
	mov	ebp, esp
	sub	esp, 8
	mov	DWORD PTR _this$[ebp], ecx

; 38   : 		return e == NULL;

	mov	eax, DWORD PTR _this$[ebp]
	cmp	DWORD PTR [eax], 0
	jne	SHORT $LN3@operator
	mov	DWORD PTR tv66[ebp], 1
	jmp	SHORT $LN4@operator
$LN3@operator:
	mov	DWORD PTR tv66[ebp], 0
$LN4@operator:
	mov	al, BYTE PTR tv66[ebp]

; 39   : 	}

	mov	esp, ebp
	pop	ebp
	ret	0
??7?$VuBin@VSimBaseClass@@@@QBE_NXZ ENDP		; VuBin<SimBaseClass>::operator!
_TEXT	ENDS
; Function compile flags: /Odtp
; File c:\users\zhitao li\documents\visual studio 2012\projects\freefalcon\vu2\include\vu_templates.h
;	COMDAT ??4?$VuBin@VSimBaseClass@@@@QAEABV0@ABV0@@Z
_TEXT	SEGMENT
_this$ = -4						; size = 4
_rhs$ = 8						; size = 4
??4?$VuBin@VSimBaseClass@@@@QAEABV0@ABV0@@Z PROC	; VuBin<SimBaseClass>::operator=, COMDAT
; _this$ = ecx

; 24   : 	const VuBin &operator=(const VuBin &rhs){

	push	ebp
	mov	ebp, esp
	push	ecx
	mov	DWORD PTR _this$[ebp], ecx

; 25   : 		reset(rhs.e);

	mov	eax, DWORD PTR _rhs$[ebp]
	mov	ecx, DWORD PTR [eax]
	push	ecx
	mov	ecx, DWORD PTR _this$[ebp]
	call	?reset@?$VuBin@VSimBaseClass@@@@QAEXPAVSimBaseClass@@@Z ; VuBin<SimBaseClass>::reset

; 26   : 		return *this;

	mov	eax, DWORD PTR _this$[ebp]

; 27   : 	}

	mov	esp, ebp
	pop	ebp
	ret	4
??4?$VuBin@VSimBaseClass@@@@QAEABV0@ABV0@@Z ENDP	; VuBin<SimBaseClass>::operator=
_TEXT	ENDS
; Function compile flags: /Odtp
; File c:\users\zhitao li\documents\visual studio 2012\projects\freefalcon\sim\otwdrive\otwloop.cpp
_TEXT	SEGMENT
_oldElDir$1 = -24					; size = 4
_oldAzDir$2 = -20					; size = 4
_tmpEyeHeadRoll$3 = -16					; size = 4
_tmpEyeTilt$4 = -12					; size = 4
_tmpEyePan$5 = -8					; size = 4
_this$ = -4						; size = 4
_dT$ = 8						; size = 4
?SetInternalCameraPosition@OTWDriverClass@@AAEXM@Z PROC	; OTWDriverClass::SetInternalCameraPosition
; _this$ = ecx

; 2552 : {

	push	ebp
	mov	ebp, esp
	sub	esp, 24					; 00000018H
	mov	DWORD PTR _this$[ebp], ecx

; 2553 : 	Prof(SetInternalCameraPosition);	// Retro 15/10/03
; 2554 : 
; 2555 : 	// Display is 1st person, cockpit type....
; 2556 : 	ShiAssert( DisplayInCockpit() );
; 2557 : 
; 2558 : 
; 2559 : 	UpdateCameraFocus();

	mov	ecx, DWORD PTR _this$[ebp]
	call	?UpdateCameraFocus@OTWDriverClass@@QAEXXZ ; OTWDriverClass::UpdateCameraFocus

; 2560 : 
; 2561 : 	// courtesy of the code that calls this function otwPlatform is always valid
; 2562 : 	cameraVel.x=otwPlatform->XDelta();  // MLR 12/9/2003 - 

	mov	ecx, DWORD PTR _this$[ebp]
	add	ecx, 32336				; 00007e50H
	call	??C?$VuBin@VSimBaseClass@@@@QBEPAVSimBaseClass@@XZ ; VuBin<SimBaseClass>::operator->
	mov	ecx, eax
	call	?XDelta@VuEntity@@QBEMXZ		; VuEntity::XDelta
	mov	eax, DWORD PTR _this$[ebp]
	fstp	DWORD PTR [eax+33488]

; 2563 : 	cameraVel.y=otwPlatform->YDelta();

	mov	ecx, DWORD PTR _this$[ebp]
	add	ecx, 32336				; 00007e50H
	call	??C?$VuBin@VSimBaseClass@@@@QBEPAVSimBaseClass@@XZ ; VuBin<SimBaseClass>::operator->
	mov	ecx, eax
	call	?YDelta@VuEntity@@QBEMXZ		; VuEntity::YDelta
	mov	ecx, DWORD PTR _this$[ebp]
	fstp	DWORD PTR [ecx+33492]

; 2564 : 	cameraVel.z=otwPlatform->ZDelta();

	mov	ecx, DWORD PTR _this$[ebp]
	add	ecx, 32336				; 00007e50H
	call	??C?$VuBin@VSimBaseClass@@@@QBEPAVSimBaseClass@@XZ ; VuBin<SimBaseClass>::operator->
	mov	ecx, eax
	call	?ZDelta@VuEntity@@QBEMXZ		; VuEntity::ZDelta
	mov	edx, DWORD PTR _this$[ebp]
	fstp	DWORD PTR [edx+33496]

; 2565 : 
; 2566 : #if 1  // MLR 12/1/2003 - Eye position is controlled by pilotEyePos, which is gotten from the players AC
; 2567 : 	MatrixMult( &ownshipRot, &pilotEyePos, &cameraPos );

	mov	eax, DWORD PTR _this$[ebp]
	add	eax, 33440				; 000082a0H
	push	eax
	mov	ecx, DWORD PTR _this$[ebp]
	add	ecx, 33500				; 000082dcH
	push	ecx
	mov	edx, DWORD PTR _this$[ebp]
	add	edx, 33580				; 0000832cH
	push	edx
	call	?MatrixMult@@YAXPBUTrotation@@PBUTpoint@@PAU2@@Z ; MatrixMult
	add	esp, 12					; 0000000cH

; 2568 : #else
; 2569 : 	// OLD EYE PLACEMENT
; 2570 : 
; 2571 : 	// These two constants are based on rough ruler measurements
; 2572 : 	// from a schematic of the F16.
; 2573 : 	// TODO:  Get these from the object some how.
; 2574 : 	static const float	EyeFromCGfwd	= 15.0f;
; 2575 : 	static const float	EyeFromCGup		=  3.0f;
; 2576 : 
; 2577 : 	// Move the camera position from the CG to the cockpit
; 2578 : 	cameraPos.x = EyeFromCGfwd * ownshipRot.M11 - EyeFromCGup * ownshipRot.M13;
; 2579 : 	cameraPos.y = EyeFromCGfwd * ownshipRot.M21 - EyeFromCGup * ownshipRot.M23;
; 2580 : 	cameraPos.z = EyeFromCGfwd * ownshipRot.M31 - EyeFromCGup * ownshipRot.M33;
; 2581 : #endif
; 2582 : 
; 2583 : 	// Adjust for head angle (if enabled)
; 2584 : 	if (GetOTWDisplayMode() == Mode2DCockpit)

	mov	ecx, DWORD PTR _this$[ebp]
	call	?GetOTWDisplayMode@OTWDriverClass@@QAE?AW4OTWDisplayMode@1@XZ ; OTWDriverClass::GetOTWDisplayMode
	cmp	eax, 2
	jne	$LN16@SetInterna

; 2585 : 	{
; 2586 : 		if ((g_bEnableTrackIR)&&(PlayerOptions.Get2dTrackIR() == true) && !GetHybridPitMode())	// Retro 27/09/03  //Wombat778 11-18-04 Dont run the 2d trackir code in hybrid mode

	movzx	eax, BYTE PTR ?g_bEnableTrackIR@@3_NA	; g_bEnableTrackIR
	test	eax, eax
	je	$LN10@SetInterna
	mov	ecx, OFFSET ?PlayerOptions@@3VPlayerOptionsClass@@A ; PlayerOptions
	call	?Get2dTrackIR@PlayerOptionsClass@@QBE_NXZ ; PlayerOptionsClass::Get2dTrackIR
	movzx	ecx, al
	cmp	ecx, 1
	jne	SHORT $LN10@SetInterna
	mov	ecx, DWORD PTR _this$[ebp]
	call	?GetHybridPitMode@OTWDriverClass@@QAEHXZ ; OTWDriverClass::GetHybridPitMode
	test	eax, eax
	jne	SHORT $LN10@SetInterna

; 2587 : 		{
; 2588 : #ifdef DEBUG_TRACKIR_STUFF
; 2589 : 			FILE* fp = fopen("TIR_Debug_2.txt","at");
; 2590 : 			fprintf(fp,"%x",vuxRealTime);
; 2591 : 			if (vuxRealTime & g_nTrackIRSampleFreq)
; 2592 : 			{
; 2593 : 				fprintf(fp," - chk");
; 2594 : 				if (theTrackIRObject.Get_Panning_Allowed())
; 2595 : 					fprintf(fp," - allowed");
; 2596 : 			}
; 2597 : 			fprintf(fp,"\n");
; 2598 : 			fclose(fp);
; 2599 : #endif
; 2600 : 			/* sample time is user-configurable */
; 2601 : 			if (g_bNew2DTrackIR)		//Wombat778 11-15-04 New method of 2d Pit trackir movement

	movzx	edx, BYTE PTR ?g_bNew2DTrackIR@@3_NA	; g_bNew2DTrackIR
	test	edx, edx
	je	SHORT $LN14@SetInterna

; 2602 : 				RunNew2DTrackIR(cockpitFlightData.headYaw,cockpitFlightData.headPitch);

	push	ecx
	movss	xmm0, DWORD PTR ?cockpitFlightData@@3VFlightData@@A+128
	movss	DWORD PTR [esp], xmm0
	push	ecx
	movss	xmm0, DWORD PTR ?cockpitFlightData@@3VFlightData@@A+136
	movss	DWORD PTR [esp], xmm0
	mov	ecx, DWORD PTR _this$[ebp]
	call	?RunNew2DTrackIR@OTWDriverClass@@AAEXMM@Z ; OTWDriverClass::RunNew2DTrackIR

; 2603 : 
; 2604 : 			else

	jmp	SHORT $LN10@SetInterna
$LN14@SetInterna:

; 2605 : 				if (vuxRealTime & g_nTrackIRSampleFreq)	// Retro 26/09/03 - check every 512 ms (default value)

	mov	eax, DWORD PTR ?vuxRealTime@@3KA	; vuxRealTime
	and	eax, DWORD PTR ?g_nTrackIRSampleFreq@@3HA ; g_nTrackIRSampleFreq
	je	SHORT $LN12@SetInterna

; 2606 : 				{
; 2607 : 					if (theTrackIRObject.Get_Panning_Allowed())

	mov	ecx, OFFSET ?theTrackIRObject@@3VTrackIR@@A ; theTrackIRObject
	call	?Get_Panning_Allowed@TrackIR@@QAE_NXZ	; TrackIR::Get_Panning_Allowed
	movzx	ecx, al
	test	ecx, ecx
	je	SHORT $LN11@SetInterna

; 2608 : 						SimDriver.POVKludgeFunction(theTrackIRObject.TrackIR_2D_Map());	// Retro 26/09/03

	mov	ecx, OFFSET ?theTrackIRObject@@3VTrackIR@@A ; theTrackIRObject
	call	?TrackIR_2D_Map@TrackIR@@QAEHXZ		; TrackIR::TrackIR_2D_Map
	push	eax
	mov	ecx, OFFSET ?SimDriver@@3VSimulationDriver@@A ; SimDriver
	call	?POVKludgeFunction@SimulationDriver@@QAEXK@Z ; SimulationDriver::POVKludgeFunction
$LN11@SetInterna:

; 2609 : 				}
; 2610 : 				else

	jmp	SHORT $LN10@SetInterna
$LN12@SetInterna:

; 2611 : 				{
; 2612 : 					theTrackIRObject.Allow_2D_Panning();

	mov	ecx, OFFSET ?theTrackIRObject@@3VTrackIR@@A ; theTrackIRObject
	call	?Allow_2D_Panning@TrackIR@@QAEXXZ	; TrackIR::Allow_2D_Panning
$LN10@SetInterna:

; 2613 : 				}
; 2614 : 		}
; 2615 : 		// Update the head matrix
; 2616 : 		BuildHeadMatrix( FALSE, YAW_PITCH, eyePan, eyeTilt, 0.0F );

	push	ecx
	movss	xmm0, DWORD PTR __real@00000000
	movss	DWORD PTR [esp], xmm0
	mov	edx, DWORD PTR _this$[ebp]
	push	ecx
	movss	xmm0, DWORD PTR [edx+32276]
	movss	DWORD PTR [esp], xmm0
	mov	eax, DWORD PTR _this$[ebp]
	push	ecx
	movss	xmm0, DWORD PTR [eax+32272]
	movss	DWORD PTR [esp], xmm0
	push	1
	push	0
	mov	ecx, DWORD PTR _this$[ebp]
	call	?BuildHeadMatrix@OTWDriverClass@@AAEXHHMMM@Z ; OTWDriverClass::BuildHeadMatrix

; 2617 : 		// Combine the head and airplane matrices
; 2618 : 		MatrixMult (&ownshipRot, &headMatrix, &cameraRot);

	mov	ecx, DWORD PTR _this$[ebp]
	add	ecx, 33452				; 000082acH
	push	ecx
	mov	edx, DWORD PTR _this$[ebp]
	add	edx, 33616				; 00008350H
	push	edx
	mov	eax, DWORD PTR _this$[ebp]
	add	eax, 33580				; 0000832cH
	push	eax
	call	?MatrixMult@@YAXPBUTrotation@@0PAU1@@Z	; MatrixMult
	add	esp, 12					; 0000000cH
	jmp	$LN1@SetInterna
$LN16@SetInterna:

; 2619 : 
; 2620 : 	}
; 2621 : 	else if (GetOTWDisplayMode() == Mode3DCockpit)

	mov	ecx, DWORD PTR _this$[ebp]
	call	?GetOTWDisplayMode@OTWDriverClass@@QAE?AW4OTWDisplayMode@1@XZ ; OTWDriverClass::GetOTWDisplayMode
	cmp	eax, 3
	jne	SHORT $LN8@SetInterna

; 2622 : 	{
; 2623 : 		VCock_GiveGilmanHead(dT);

	push	ecx
	movss	xmm0, DWORD PTR _dT$[ebp]
	movss	DWORD PTR [esp], xmm0
	mov	ecx, DWORD PTR _this$[ebp]
	call	?VCock_GiveGilmanHead@OTWDriverClass@@AAEXM@Z ; OTWDriverClass::VCock_GiveGilmanHead
	jmp	$LN1@SetInterna
$LN8@SetInterna:

; 2624 : 	} 
; 2625 : 	else if (GetOTWDisplayMode() == ModePadlockF3)

	mov	ecx, DWORD PTR _this$[ebp]
	call	?GetOTWDisplayMode@OTWDriverClass@@QAE?AW4OTWDisplayMode@1@XZ ; OTWDriverClass::GetOTWDisplayMode
	cmp	eax, 4
	jne	$LN6@SetInterna

; 2626 : 	{
; 2627 : // 2000-11-12 MODIFIED BY S.G. SO PANNING BREAKS THE PADLOCK
; 2628 : //		Padlock_CheckPadlock(dT);
; 2629 : //		PadlockF3_CalcCamera(dT);
; 2630 : 		if (g_nPadlockMode & PLockModeBreakLock) {

	mov	ecx, DWORD PTR ?g_nPadlockMode@@3HA	; g_nPadlockMode
	and	ecx, 4
	je	$LN5@SetInterna

; 2631 : 			if (azDir == 0.0F && elDir == 0.0F) {

	mov	edx, DWORD PTR _this$[ebp]
	movss	xmm0, DWORD PTR [edx+32296]
	ucomiss	xmm0, DWORD PTR __real@00000000
	lahf
	test	ah, 68					; 00000044H
	jp	SHORT $LN4@SetInterna
	mov	eax, DWORD PTR _this$[ebp]
	movss	xmm0, DWORD PTR [eax+32300]
	ucomiss	xmm0, DWORD PTR __real@00000000
	lahf
	test	ah, 68					; 00000044H
	jp	SHORT $LN4@SetInterna

; 2632 : 				Padlock_CheckPadlock(dT);

	push	ecx
	movss	xmm0, DWORD PTR _dT$[ebp]
	movss	DWORD PTR [esp], xmm0
	mov	ecx, DWORD PTR _this$[ebp]
	call	?Padlock_CheckPadlock@OTWDriverClass@@AAEXM@Z ; OTWDriverClass::Padlock_CheckPadlock

; 2633 : 				PadlockF3_CalcCamera(dT);

	push	ecx
	movss	xmm0, DWORD PTR _dT$[ebp]
	movss	DWORD PTR [esp], xmm0
	mov	ecx, DWORD PTR _this$[ebp]
	call	?PadlockF3_CalcCamera@OTWDriverClass@@AAEXM@Z ; OTWDriverClass::PadlockF3_CalcCamera

; 2634 : 			}
; 2635 : 			else {

	jmp	$LN3@SetInterna
$LN4@SetInterna:

; 2636 : 				float oldAzDir = azDir, oldElDir = elDir; // 2002-03-12 ADDED BY S.G. Lets remember these so I can set them back after

	mov	ecx, DWORD PTR _this$[ebp]
	movss	xmm0, DWORD PTR [ecx+32296]
	movss	DWORD PTR _oldAzDir$2[ebp], xmm0
	mov	edx, DWORD PTR _this$[ebp]
	movss	xmm0, DWORD PTR [edx+32300]
	movss	DWORD PTR _oldElDir$1[ebp], xmm0

; 2637 : 				float tmpEyePan  = eyePan;

	mov	eax, DWORD PTR _this$[ebp]
	movss	xmm0, DWORD PTR [eax+32272]
	movss	DWORD PTR _tmpEyePan$5[ebp], xmm0

; 2638 : 				float tmpEyeTilt = eyeTilt;

	mov	ecx, DWORD PTR _this$[ebp]
	movss	xmm0, DWORD PTR [ecx+32276]
	movss	DWORD PTR _tmpEyeTilt$4[ebp], xmm0

; 2639 : 				float tmpEyeHeadRoll = eyeHeadRoll;

	mov	edx, DWORD PTR _this$[ebp]
	movss	xmm0, DWORD PTR [edx+32280]
	movss	DWORD PTR _tmpEyeHeadRoll$3[ebp], xmm0

; 2640 : 				mIsSlewInit = FALSE;

	mov	eax, DWORD PTR _this$[ebp]
	mov	DWORD PTR [eax+33836], 0

; 2641 : 				SetOTWDisplayMode(OTWDriverClass::Mode3DCockpit);

	push	3
	mov	ecx, DWORD PTR _this$[ebp]
	call	?SetOTWDisplayMode@OTWDriverClass@@QAEXW4OTWDisplayMode@1@@Z ; OTWDriverClass::SetOTWDisplayMode

; 2642 : 				eyePan  = tmpEyePan;

	mov	ecx, DWORD PTR _this$[ebp]
	movss	xmm0, DWORD PTR _tmpEyePan$5[ebp]
	movss	DWORD PTR [ecx+32272], xmm0

; 2643 : 				eyeTilt = tmpEyeTilt;

	mov	edx, DWORD PTR _this$[ebp]
	movss	xmm0, DWORD PTR _tmpEyeTilt$4[ebp]
	movss	DWORD PTR [edx+32276], xmm0

; 2644 : 				eyeHeadRoll = tmpEyeHeadRoll;

	mov	eax, DWORD PTR _this$[ebp]
	movss	xmm0, DWORD PTR _tmpEyeHeadRoll$3[ebp]
	movss	DWORD PTR [eax+32280], xmm0

; 2645 : 				azDir = oldAzDir; // 2002-03-12 ADDED BY S.G. Set them back to the saved value so head starts moving right away without requiring the key to let go and pushed again...

	mov	ecx, DWORD PTR _this$[ebp]
	movss	xmm0, DWORD PTR _oldAzDir$2[ebp]
	movss	DWORD PTR [ecx+32296], xmm0

; 2646 : 				elDir = oldElDir;

	mov	edx, DWORD PTR _this$[ebp]
	movss	xmm0, DWORD PTR _oldElDir$1[ebp]
	movss	DWORD PTR [edx+32300], xmm0
$LN3@SetInterna:

; 2647 : 			}
; 2648 : 		}
; 2649 : 		else {

	jmp	SHORT $LN2@SetInterna
$LN5@SetInterna:

; 2650 : 			Padlock_CheckPadlock(dT);

	push	ecx
	movss	xmm0, DWORD PTR _dT$[ebp]
	movss	DWORD PTR [esp], xmm0
	mov	ecx, DWORD PTR _this$[ebp]
	call	?Padlock_CheckPadlock@OTWDriverClass@@AAEXM@Z ; OTWDriverClass::Padlock_CheckPadlock

; 2651 : 			PadlockF3_CalcCamera(dT);

	push	ecx
	movss	xmm0, DWORD PTR _dT$[ebp]
	movss	DWORD PTR [esp], xmm0
	mov	ecx, DWORD PTR _this$[ebp]
	call	?PadlockF3_CalcCamera@OTWDriverClass@@AAEXM@Z ; OTWDriverClass::PadlockF3_CalcCamera
$LN2@SetInterna:

; 2652 : 		}
; 2653 : // END OF MODIFIED SECTION
; 2654 : 	}
; 2655 : 	else

	jmp	SHORT $LN1@SetInterna
$LN6@SetInterna:

; 2656 : 	{
; 2657 : 		memcpy (&cameraRot, &ownshipRot, sizeof (Trotation));

	push	36					; 00000024H
	mov	eax, DWORD PTR _this$[ebp]
	add	eax, 33580				; 0000832cH
	push	eax
	mov	ecx, DWORD PTR _this$[ebp]
	add	ecx, 33452				; 000082acH
	push	ecx
	call	_memcpy
	add	esp, 12					; 0000000cH
$LN1@SetInterna:

; 2658 : 	}
; 2659 : }

	mov	esp, ebp
	pop	ebp
	ret	4
?SetInternalCameraPosition@OTWDriverClass@@AAEXM@Z ENDP	; OTWDriverClass::SetInternalCameraPosition
_TEXT	ENDS
; Function compile flags: /Odtp
; File c:\users\zhitao li\documents\visual studio 2012\projects\freefalcon\sim\include\otwdrive.h
;	COMDAT ?InExitMenu@OTWDriverClass@@QAEHXZ
_TEXT	SEGMENT
_this$ = -4						; size = 4
?InExitMenu@OTWDriverClass@@QAEHXZ PROC			; OTWDriverClass::InExitMenu, COMDAT
; _this$ = ecx

; 448  :       int InExitMenu (void) {return exitMenuOn;};

	push	ebp
	mov	ebp, esp
	push	ecx
	mov	DWORD PTR _this$[ebp], ecx
	mov	eax, DWORD PTR _this$[ebp]
	mov	eax, DWORD PTR [eax+32208]
	mov	esp, ebp
	pop	ebp
	ret	0
?InExitMenu@OTWDriverClass@@QAEHXZ ENDP			; OTWDriverClass::InExitMenu
_TEXT	ENDS
; Function compile flags: /Odtp
; File c:\users\zhitao li\documents\visual studio 2012\projects\freefalcon\sim\include\otwdrive.h
;	COMDAT ?SetCameraPanTilt@OTWDriverClass@@QAEXMM@Z
_TEXT	SEGMENT
_this$ = -4						; size = 4
_pan$ = 8						; size = 4
_tilt$ = 12						; size = 4
?SetCameraPanTilt@OTWDriverClass@@QAEXMM@Z PROC		; OTWDriverClass::SetCameraPanTilt, COMDAT
; _this$ = ecx

; 427  : 	  void SetCameraPanTilt(float pan, float tilt) {eyePan = pan, eyeTilt = tilt;};	

	push	ebp
	mov	ebp, esp
	push	ecx
	mov	DWORD PTR _this$[ebp], ecx
	mov	eax, DWORD PTR _this$[ebp]
	movss	xmm0, DWORD PTR _pan$[ebp]
	movss	DWORD PTR [eax+32272], xmm0
	mov	ecx, DWORD PTR _this$[ebp]
	movss	xmm0, DWORD PTR _tilt$[ebp]
	movss	DWORD PTR [ecx+32276], xmm0
	mov	esp, ebp
	pop	ebp
	ret	8
?SetCameraPanTilt@OTWDriverClass@@QAEXMM@Z ENDP		; OTWDriverClass::SetCameraPanTilt
_TEXT	ENDS
; Function compile flags: /Odtp
; File c:\users\zhitao li\documents\visual studio 2012\projects\freefalcon\sim\otwdrive\otwloop.cpp
_TEXT	SEGMENT
tv2228 = -156						; size = 8
tv2179 = -148						; size = 8
tv2199 = -140						; size = 8
tv2188 = -132						; size = 8
tv2167 = -124						; size = 8
tv2258 = -116						; size = 4
_right$ = -112						; size = 4
_tmp$1 = -108						; size = 4
_top$ = -104						; size = 4
_tmp$2 = -100						; size = 4
_oldFont$ = -96						; size = 4
tv2260 = -92						; size = 4
_left$ = -88						; size = 4
_bottom$ = -84						; size = 4
tv2224 = -80						; size = 4
tv2163 = -76						; size = 4
tv2195 = -72						; size = 4
tv2184 = -68						; size = 4
tv2175 = -64						; size = 4
_centerY$3 = -60					; size = 4
_pct$4 = -56						; size = 4
_j$5 = -52						; size = 4
_centerX$6 = -48					; size = 4
_h$7 = -44						; size = 4
_w$8 = -40						; size = 4
_centerx$ = -36						; size = 4
_chat_cnt$ = -32					; size = 2
_offset$9 = -28						; size = 4
_y$10 = -24						; size = 4
_x$11 = -20						; size = 4
_i$12 = -16						; size = 2
_cameraID$13 = -12					; size = 2
_color$14 = -8						; size = 4
_this$ = -4						; size = 4
?DisplayFrontText@OTWDriverClass@@QAEXXZ PROC		; OTWDriverClass::DisplayFrontText
; _this$ = ecx

; 710  : {	

	push	ebp
	mov	ebp, esp
	sub	esp, 156				; 0000009cH
	mov	DWORD PTR _this$[ebp], ecx

; 711  : 	//Prof(DisplayFrontText);			// Retro 15/10/03
; 712  : 	//Prof_update(ProfilerActive);	// Retro 16/10/03
; 713  : 
; 714  : 	//	Retro 7May2004 - for pretty screens we dont want any 2d text on our screen
; 715  : 	//	See OTWDriver.h for explanation
; 716  : 	if (takePrettyScreenShot == EXECUTE)

	mov	eax, DWORD PTR _this$[ebp]
	cmp	DWORD PTR [eax+32032], 1
	jne	SHORT $LN161@DisplayFro

; 717  : 	{
; 718  : 		takeScreenShot = TRUE;					// tell falcon to take a shot

	mov	ecx, DWORD PTR _this$[ebp]
	mov	DWORD PTR [ecx+32028], 1

; 719  : 		takePrettyScreenShot = CLEANUP;			// advance state..

	mov	edx, DWORD PTR _this$[ebp]
	mov	DWORD PTR [edx+32032], 2

; 720  : 		return;									// deactivate 2d text (by NOT drawing it :p)

	jmp	$LN162@DisplayFro
	jmp	SHORT $LN159@DisplayFro
$LN161@DisplayFro:

; 721  : 	}
; 722  : 	else if (takePrettyScreenShot == CLEANUP)

	mov	eax, DWORD PTR _this$[ebp]
	cmp	DWORD PTR [eax+32032], 2
	jne	SHORT $LN159@DisplayFro

; 723  : 	{
; 724  : 		takePrettyScreenShot = OFF;				// advance state..

	mov	ecx, DWORD PTR _this$[ebp]
	mov	DWORD PTR [ecx+32032], 0

; 725  : 		DrawableBSP::drawLabels = LabelState;	// reactivate labels again (if they were on)

	mov	edx, DWORD PTR _this$[ebp]
	mov	eax, DWORD PTR [edx+32036]
	mov	DWORD PTR ?drawLabels@DrawableBSP@@2HA, eax ; DrawableBSP::drawLabels
$LN159@DisplayFro:

; 726  : 	}
; 727  : 	// Retro 7-8May2004 end
; 728  : 
; 729  : 	float centerx=DisplayOptions.DispWidth * 0.5f;

	movzx	ecx, WORD PTR ?DisplayOptions@@3VDisplayOptionsClass@@A
	cvtsi2ss xmm0, ecx
	mulss	xmm0, DWORD PTR __real@3f000000
	movss	DWORD PTR _centerx$[ebp], xmm0

; 730  : 	float top;
; 731  : 	float left;
; 732  : 	float bottom;
; 733  : 	float right;
; 734  : 	short chat_cnt;
; 735  : 	int oldFont;
; 736  : 
; 737  : 	// SetFont
; 738  : 	oldFont = VirtualDisplay::CurFont();

	call	?CurFont@VirtualDisplay@@SAHXZ		; VirtualDisplay::CurFont
	mov	DWORD PTR _oldFont$[ebp], eax

; 739  : 	VirtualDisplay::SetFont(pCockpitManager->GeneralFont());

	mov	edx, DWORD PTR _this$[ebp]
	mov	ecx, DWORD PTR [edx+33684]
	call	?GeneralFont@CockpitManager@@QAEHXZ	; CockpitManager::GeneralFont
	push	eax
	call	?SetFont@VirtualDisplay@@SAXH@Z		; VirtualDisplay::SetFont
	add	esp, 4

; 740  : 
; 741  : 	// save the current viewport
; 742  : 	OTWDriver.renderer->GetViewport(&left, &top, &right, &bottom);

	lea	eax, DWORD PTR _bottom$[ebp]
	push	eax
	lea	ecx, DWORD PTR _right$[ebp]
	push	ecx
	lea	edx, DWORD PTR _top$[ebp]
	push	edx
	lea	eax, DWORD PTR _left$[ebp]
	push	eax
	mov	ecx, DWORD PTR ?OTWDriver@@3VOTWDriverClass@@A+33576
	call	?GetViewport@VirtualDisplay@@QAEXPAM000@Z ; VirtualDisplay::GetViewport

; 743  : 
; 744  : #ifdef _DO_OWN_START_FRAME_
; 745  : 	OTWDriver.renderer->StartDraw();

	mov	ecx, DWORD PTR ?OTWDriver@@3VOTWDriverClass@@A+33576
	mov	edx, DWORD PTR [ecx]
	mov	ecx, DWORD PTR ?OTWDriver@@3VOTWDriverClass@@A+33576
	mov	eax, DWORD PTR [edx+12]
	call	eax

; 746  : #endif
; 747  : 
; 748  : 	// set the new viewport
; 749  : 	OTWDriver.renderer->SetViewport(-1.0, 1.0, 1.0, -1.0);

	push	ecx
	movss	xmm0, DWORD PTR __real@bf800000
	movss	DWORD PTR [esp], xmm0
	push	ecx
	movss	xmm0, DWORD PTR __real@3f800000
	movss	DWORD PTR [esp], xmm0
	push	ecx
	movss	xmm0, DWORD PTR __real@3f800000
	movss	DWORD PTR [esp], xmm0
	push	ecx
	movss	xmm0, DWORD PTR __real@bf800000
	movss	DWORD PTR [esp], xmm0
	mov	ecx, DWORD PTR ?OTWDriver@@3VOTWDriverClass@@A+33576
	mov	edx, DWORD PTR [ecx]
	mov	ecx, DWORD PTR ?OTWDriver@@3VOTWDriverClass@@A+33576
	mov	eax, DWORD PTR [edx+112]
	call	eax

; 750  : 
; 751  : 	// Any Text stuff you want drawn below here
; 752  : 	if(vuxRealTime & 0x200) // Blink every half second

	mov	ecx, DWORD PTR ?vuxRealTime@@3KA	; vuxRealTime
	and	ecx, 512				; 00000200H
	je	$LN67@DisplayFro

; 753  : 	{
; 754  : 		// Display the PAUSE/X2/X4 compression strings HERE
; 755  : 		if ((vuxRealTime & 0x200) && (remoteCompressionRequests || targetCompressionRatio != 1))

	mov	edx, DWORD PTR ?vuxRealTime@@3KA	; vuxRealTime
	and	edx, 512				; 00000200H
	je	$LN75@DisplayFro
	cmp	DWORD PTR ?remoteCompressionRequests@@3HA, 0 ; remoteCompressionRequests
	jne	SHORT $LN156@DisplayFro
	cmp	DWORD PTR ?targetCompressionRatio@@3HA, 1 ; targetCompressionRatio
	je	$LN75@DisplayFro
$LN156@DisplayFro:

; 756  : 		{
; 757  : 			float offset=0.0f;

	movss	xmm0, DWORD PTR __real@00000000
	movss	DWORD PTR _offset$9[ebp], xmm0

; 758  : 			long color;
; 759  : 			// THIS SHOULD BE TRANSLATABLE TEXT
; 760  : 			//
; 761  : 			offset =-(OTWDriver.renderer->ScreenTextWidth(CompressionStr[0]) + COMPRESS_SPACING +
; 762  : 					  OTWDriver.renderer->ScreenTextWidth(CompressionStr[2]) + COMPRESS_SPACING +
; 763  : 					  OTWDriver.renderer->ScreenTextWidth(CompressionStr[3]) + COMPRESS_SPACING) *0.5f;

	mov	eax, 20					; 00000014H
	imul	eax, 0
	add	eax, OFFSET ?CompressionStr@@3PAY0BE@DA	; CompressionStr
	push	eax
	call	?ScreenTextWidth@VirtualDisplay@@SAHPBD@Z ; VirtualDisplay::ScreenTextWidth
	add	esp, 4
	cvtsi2ss xmm0, eax
	addss	xmm0, DWORD PTR __real@41700000
	mov	ecx, 20					; 00000014H
	shl	ecx, 1
	add	ecx, OFFSET ?CompressionStr@@3PAY0BE@DA	; CompressionStr
	push	ecx
	movss	DWORD PTR tv2258[ebp], xmm0
	call	?ScreenTextWidth@VirtualDisplay@@SAHPBD@Z ; VirtualDisplay::ScreenTextWidth
	add	esp, 4
	cvtsi2ss xmm0, eax
	movss	xmm1, DWORD PTR tv2258[ebp]
	addss	xmm1, xmm0
	addss	xmm1, DWORD PTR __real@41700000
	mov	edx, 20					; 00000014H
	imul	edx, 3
	add	edx, OFFSET ?CompressionStr@@3PAY0BE@DA	; CompressionStr
	push	edx
	movss	DWORD PTR tv2260[ebp], xmm1
	call	?ScreenTextWidth@VirtualDisplay@@SAHPBD@Z ; VirtualDisplay::ScreenTextWidth
	add	esp, 4
	cvtsi2ss xmm0, eax
	movss	xmm1, DWORD PTR tv2260[ebp]
	addss	xmm1, xmm0
	addss	xmm1, DWORD PTR __real@41700000
	xorps	xmm1, DWORD PTR __xmm@80000000800000008000000080000000
	mulss	xmm1, DWORD PTR __real@3f000000
	movss	DWORD PTR _offset$9[ebp], xmm1

; 764  : 
; 765  : 			if((!targetCompressionRatio) || (!FalconLocalSession->GetReqCompression()) || (remoteCompressionRequests & REMOTE_REQUEST_PAUSE))

	cmp	DWORD PTR ?targetCompressionRatio@@3HA, 0 ; targetCompressionRatio
	je	SHORT $LN154@DisplayFro
	mov	ecx, OFFSET ?vuLocalSessionEntity@@3V?$VuBin@VVuSessionEntity@@@@A ; vuLocalSessionEntity
	call	?get@?$VuBin@VVuSessionEntity@@@@QBEPAVVuSessionEntity@@XZ ; VuBin<VuSessionEntity>::get
	mov	ecx, eax
	call	?GetReqCompression@FalconSessionEntity@@QBEFXZ ; FalconSessionEntity::GetReqCompression
	cwde
	test	eax, eax
	je	SHORT $LN154@DisplayFro
	mov	ecx, DWORD PTR ?remoteCompressionRequests@@3HA ; remoteCompressionRequests
	and	ecx, 1
	je	$LN155@DisplayFro
$LN154@DisplayFro:

; 766  : 			{
; 767  : 				// if ANY compression OR compression requests == 0... Draw PAUSE
; 768  : 				//		if compression == our compression == all requested compressions
; 769  : 				//			Use RED
; 770  : 				//		if compression == our compression != all requested compression
; 771  : 				//			Use YELLOW
; 772  : 				//		if compression != our compression
; 773  : 				//			Use GREEN
; 774  : 				//
; 775  : 				if((!targetCompressionRatio) && ((!FalconLocalSession->GetReqCompression()) && (remoteCompressionRequests & REMOTE_REQUEST_PAUSE) || !gCommsMgr->Online()))

	cmp	DWORD PTR ?targetCompressionRatio@@3HA, 0 ; targetCompressionRatio
	jne	SHORT $LN153@DisplayFro
	mov	ecx, OFFSET ?vuLocalSessionEntity@@3V?$VuBin@VVuSessionEntity@@@@A ; vuLocalSessionEntity
	call	?get@?$VuBin@VVuSessionEntity@@@@QBEPAVVuSessionEntity@@XZ ; VuBin<VuSessionEntity>::get
	mov	ecx, eax
	call	?GetReqCompression@FalconSessionEntity@@QBEFXZ ; FalconSessionEntity::GetReqCompression
	movsx	edx, ax
	test	edx, edx
	jne	SHORT $LN151@DisplayFro
	mov	eax, DWORD PTR ?remoteCompressionRequests@@3HA ; remoteCompressionRequests
	and	eax, 1
	jne	SHORT $LN152@DisplayFro
$LN151@DisplayFro:
	mov	ecx, DWORD PTR ?gCommsMgr@@3PAVUIComms@@A ; gCommsMgr
	call	?Online@UIComms@@QAEHXZ			; UIComms::Online
	test	eax, eax
	jne	SHORT $LN153@DisplayFro
$LN152@DisplayFro:

; 776  : 					color=0xff0000ff;

	mov	DWORD PTR _color$14[ebp], -16776961	; ff0000ffH
	jmp	SHORT $LN148@DisplayFro
$LN153@DisplayFro:

; 777  : 				else if((!FalconLocalSession->GetReqCompression()))

	mov	ecx, OFFSET ?vuLocalSessionEntity@@3V?$VuBin@VVuSessionEntity@@@@A ; vuLocalSessionEntity
	call	?get@?$VuBin@VVuSessionEntity@@@@QBEPAVVuSessionEntity@@XZ ; VuBin<VuSessionEntity>::get
	mov	ecx, eax
	call	?GetReqCompression@FalconSessionEntity@@QBEFXZ ; FalconSessionEntity::GetReqCompression
	movsx	ecx, ax
	test	ecx, ecx
	jne	SHORT $LN149@DisplayFro

; 778  : 					color=0xff00ff00;

	mov	DWORD PTR _color$14[ebp], -16711936	; ff00ff00H

; 779  : 				else

	jmp	SHORT $LN148@DisplayFro
$LN149@DisplayFro:

; 780  : 					color=0xff00ffff;

	mov	DWORD PTR _color$14[ebp], -16711681	; ff00ffffH
$LN148@DisplayFro:

; 781  : 				OTWDriver.renderer->SetColor(color);

	mov	edx, DWORD PTR _color$14[ebp]
	push	edx
	mov	eax, DWORD PTR ?OTWDriver@@3VOTWDriverClass@@A+33576
	mov	edx, DWORD PTR [eax]
	mov	ecx, DWORD PTR ?OTWDriver@@3VOTWDriverClass@@A+33576
	mov	eax, DWORD PTR [edx+92]
	call	eax

; 782  : 				OTWDriver.renderer->ScreenText(centerx+offset,COMPRESS_Y, CompressionStr[0]);

	push	0
	mov	ecx, 20					; 00000014H
	imul	ecx, 0
	add	ecx, OFFSET ?CompressionStr@@3PAY0BE@DA	; CompressionStr
	push	ecx
	push	ecx
	movss	xmm0, DWORD PTR __real@40a00000
	movss	DWORD PTR [esp], xmm0
	movss	xmm0, DWORD PTR _centerx$[ebp]
	addss	xmm0, DWORD PTR _offset$9[ebp]
	push	ecx
	movss	DWORD PTR [esp], xmm0
	mov	edx, DWORD PTR ?OTWDriver@@3VOTWDriverClass@@A+33576
	mov	eax, DWORD PTR [edx]
	mov	ecx, DWORD PTR ?OTWDriver@@3VOTWDriverClass@@A+33576
	mov	edx, DWORD PTR [eax+100]
	call	edx
$LN155@DisplayFro:

; 783  : 			}
; 784  : 			offset+=OTWDriver.renderer->ScreenTextWidth(CompressionStr[0]) + COMPRESS_SPACING;

	mov	eax, 20					; 00000014H
	imul	eax, 0
	add	eax, OFFSET ?CompressionStr@@3PAY0BE@DA	; CompressionStr
	push	eax
	call	?ScreenTextWidth@VirtualDisplay@@SAHPBD@Z ; VirtualDisplay::ScreenTextWidth
	add	esp, 4
	cvtsi2ss xmm0, eax
	addss	xmm0, DWORD PTR __real@41700000
	addss	xmm0, DWORD PTR _offset$9[ebp]
	movss	DWORD PTR _offset$9[ebp], xmm0

; 785  : 			if((targetCompressionRatio == 2) || (FalconLocalSession->GetReqCompression() == 2) || (remoteCompressionRequests & REMOTE_REQUEST_2))

	cmp	DWORD PTR ?targetCompressionRatio@@3HA, 2 ; targetCompressionRatio
	je	SHORT $LN146@DisplayFro
	mov	ecx, OFFSET ?vuLocalSessionEntity@@3V?$VuBin@VVuSessionEntity@@@@A ; vuLocalSessionEntity
	call	?get@?$VuBin@VVuSessionEntity@@@@QBEPAVVuSessionEntity@@XZ ; VuBin<VuSessionEntity>::get
	mov	ecx, eax
	call	?GetReqCompression@FalconSessionEntity@@QBEFXZ ; FalconSessionEntity::GetReqCompression
	movsx	ecx, ax
	cmp	ecx, 2
	je	SHORT $LN146@DisplayFro
	mov	edx, DWORD PTR ?remoteCompressionRequests@@3HA ; remoteCompressionRequests
	and	edx, 2
	je	$LN147@DisplayFro
$LN146@DisplayFro:

; 786  : 			{
; 787  : 				// if ANY compression OR compression requests == 2... Draw 2X
; 788  : 				//		if compression == our compression == all requested compressions
; 789  : 				//			Use RED
; 790  : 				//		if compression == our compression != all requested compression
; 791  : 				//			Use YELLOW
; 792  : 				//		if compression != our compression
; 793  : 				//			Use GREEN
; 794  : 				//
; 795  : 				if((targetCompressionRatio == 2) && ((FalconLocalSession->GetReqCompression() == 2) && (remoteCompressionRequests & REMOTE_REQUEST_2) || !gCommsMgr->Online()))

	cmp	DWORD PTR ?targetCompressionRatio@@3HA, 2 ; targetCompressionRatio
	jne	SHORT $LN145@DisplayFro
	mov	ecx, OFFSET ?vuLocalSessionEntity@@3V?$VuBin@VVuSessionEntity@@@@A ; vuLocalSessionEntity
	call	?get@?$VuBin@VVuSessionEntity@@@@QBEPAVVuSessionEntity@@XZ ; VuBin<VuSessionEntity>::get
	mov	ecx, eax
	call	?GetReqCompression@FalconSessionEntity@@QBEFXZ ; FalconSessionEntity::GetReqCompression
	cwde
	cmp	eax, 2
	jne	SHORT $LN143@DisplayFro
	mov	ecx, DWORD PTR ?remoteCompressionRequests@@3HA ; remoteCompressionRequests
	and	ecx, 2
	jne	SHORT $LN144@DisplayFro
$LN143@DisplayFro:
	mov	ecx, DWORD PTR ?gCommsMgr@@3PAVUIComms@@A ; gCommsMgr
	call	?Online@UIComms@@QAEHXZ			; UIComms::Online
	test	eax, eax
	jne	SHORT $LN145@DisplayFro
$LN144@DisplayFro:

; 796  : 					color=0xff0000ff;

	mov	DWORD PTR _color$14[ebp], -16776961	; ff0000ffH
	jmp	SHORT $LN140@DisplayFro
$LN145@DisplayFro:

; 797  : 				else if((FalconLocalSession->GetReqCompression() == 2))

	mov	ecx, OFFSET ?vuLocalSessionEntity@@3V?$VuBin@VVuSessionEntity@@@@A ; vuLocalSessionEntity
	call	?get@?$VuBin@VVuSessionEntity@@@@QBEPAVVuSessionEntity@@XZ ; VuBin<VuSessionEntity>::get
	mov	ecx, eax
	call	?GetReqCompression@FalconSessionEntity@@QBEFXZ ; FalconSessionEntity::GetReqCompression
	movsx	edx, ax
	cmp	edx, 2
	jne	SHORT $LN141@DisplayFro

; 798  : 					color=0xff00ff00;

	mov	DWORD PTR _color$14[ebp], -16711936	; ff00ff00H

; 799  : 				else

	jmp	SHORT $LN140@DisplayFro
$LN141@DisplayFro:

; 800  : 					color=0xff00ffff;

	mov	DWORD PTR _color$14[ebp], -16711681	; ff00ffffH
$LN140@DisplayFro:

; 801  : 				OTWDriver.renderer->SetColor(color);

	mov	eax, DWORD PTR _color$14[ebp]
	push	eax
	mov	ecx, DWORD PTR ?OTWDriver@@3VOTWDriverClass@@A+33576
	mov	edx, DWORD PTR [ecx]
	mov	ecx, DWORD PTR ?OTWDriver@@3VOTWDriverClass@@A+33576
	mov	eax, DWORD PTR [edx+92]
	call	eax

; 802  : 				OTWDriver.renderer->ScreenText(centerx+offset,COMPRESS_Y, CompressionStr[2]);

	push	0
	mov	ecx, 20					; 00000014H
	shl	ecx, 1
	add	ecx, OFFSET ?CompressionStr@@3PAY0BE@DA	; CompressionStr
	push	ecx
	push	ecx
	movss	xmm0, DWORD PTR __real@40a00000
	movss	DWORD PTR [esp], xmm0
	movss	xmm0, DWORD PTR _centerx$[ebp]
	addss	xmm0, DWORD PTR _offset$9[ebp]
	push	ecx
	movss	DWORD PTR [esp], xmm0
	mov	edx, DWORD PTR ?OTWDriver@@3VOTWDriverClass@@A+33576
	mov	eax, DWORD PTR [edx]
	mov	ecx, DWORD PTR ?OTWDriver@@3VOTWDriverClass@@A+33576
	mov	edx, DWORD PTR [eax+100]
	call	edx
$LN147@DisplayFro:

; 803  : 			}
; 804  : 			// JB 010109 offset+=OTWDriver.renderer->ScreenTextWidth(CompressionStr[2]) + COMPRESS_SPACING; 
; 805  : 			if((targetCompressionRatio == 4) || (FalconLocalSession->GetReqCompression() == 4) || (remoteCompressionRequests & REMOTE_REQUEST_4))

	cmp	DWORD PTR ?targetCompressionRatio@@3HA, 4 ; targetCompressionRatio
	je	SHORT $LN138@DisplayFro
	mov	ecx, OFFSET ?vuLocalSessionEntity@@3V?$VuBin@VVuSessionEntity@@@@A ; vuLocalSessionEntity
	call	?get@?$VuBin@VVuSessionEntity@@@@QBEPAVVuSessionEntity@@XZ ; VuBin<VuSessionEntity>::get
	mov	ecx, eax
	call	?GetReqCompression@FalconSessionEntity@@QBEFXZ ; FalconSessionEntity::GetReqCompression
	cwde
	cmp	eax, 4
	je	SHORT $LN138@DisplayFro
	mov	ecx, DWORD PTR ?remoteCompressionRequests@@3HA ; remoteCompressionRequests
	and	ecx, 4
	je	$LN139@DisplayFro
$LN138@DisplayFro:

; 806  : 			{
; 807  : 				// if ANY compression OR compression requests > 2... Draw 4X
; 808  : 				//		if compression == our compression == all requested compressions
; 809  : 				//			Use RED
; 810  : 				//		if compression == our compression != all requested compression
; 811  : 				//			Use YELLOW
; 812  : 				//		if compression != our compression
; 813  : 				//			Use GREEN
; 814  : 				//
; 815  : 				if((targetCompressionRatio == 4) && ((FalconLocalSession->GetReqCompression() == 4) && (remoteCompressionRequests & REMOTE_REQUEST_4) || !gCommsMgr->Online()))

	cmp	DWORD PTR ?targetCompressionRatio@@3HA, 4 ; targetCompressionRatio
	jne	SHORT $LN137@DisplayFro
	mov	ecx, OFFSET ?vuLocalSessionEntity@@3V?$VuBin@VVuSessionEntity@@@@A ; vuLocalSessionEntity
	call	?get@?$VuBin@VVuSessionEntity@@@@QBEPAVVuSessionEntity@@XZ ; VuBin<VuSessionEntity>::get
	mov	ecx, eax
	call	?GetReqCompression@FalconSessionEntity@@QBEFXZ ; FalconSessionEntity::GetReqCompression
	movsx	edx, ax
	cmp	edx, 4
	jne	SHORT $LN135@DisplayFro
	mov	eax, DWORD PTR ?remoteCompressionRequests@@3HA ; remoteCompressionRequests
	and	eax, 4
	jne	SHORT $LN136@DisplayFro
$LN135@DisplayFro:
	mov	ecx, DWORD PTR ?gCommsMgr@@3PAVUIComms@@A ; gCommsMgr
	call	?Online@UIComms@@QAEHXZ			; UIComms::Online
	test	eax, eax
	jne	SHORT $LN137@DisplayFro
$LN136@DisplayFro:

; 816  : 					color=0xff0000ff;

	mov	DWORD PTR _color$14[ebp], -16776961	; ff0000ffH
	jmp	SHORT $LN132@DisplayFro
$LN137@DisplayFro:

; 817  : 				else if((FalconLocalSession->GetReqCompression() == 4))

	mov	ecx, OFFSET ?vuLocalSessionEntity@@3V?$VuBin@VVuSessionEntity@@@@A ; vuLocalSessionEntity
	call	?get@?$VuBin@VVuSessionEntity@@@@QBEPAVVuSessionEntity@@XZ ; VuBin<VuSessionEntity>::get
	mov	ecx, eax
	call	?GetReqCompression@FalconSessionEntity@@QBEFXZ ; FalconSessionEntity::GetReqCompression
	movsx	ecx, ax
	cmp	ecx, 4
	jne	SHORT $LN133@DisplayFro

; 818  : 					color=0xff00ff00;

	mov	DWORD PTR _color$14[ebp], -16711936	; ff00ff00H

; 819  : 				else

	jmp	SHORT $LN132@DisplayFro
$LN133@DisplayFro:

; 820  : 					color=0xff00ffff;

	mov	DWORD PTR _color$14[ebp], -16711681	; ff00ffffH
$LN132@DisplayFro:

; 821  : 				OTWDriver.renderer->SetColor(color);

	mov	edx, DWORD PTR _color$14[ebp]
	push	edx
	mov	eax, DWORD PTR ?OTWDriver@@3VOTWDriverClass@@A+33576
	mov	edx, DWORD PTR [eax]
	mov	ecx, DWORD PTR ?OTWDriver@@3VOTWDriverClass@@A+33576
	mov	eax, DWORD PTR [edx+92]
	call	eax

; 822  : 				OTWDriver.renderer->ScreenText(centerx+offset,COMPRESS_Y, CompressionStr[3]);

	push	0
	mov	ecx, 20					; 00000014H
	imul	ecx, 3
	add	ecx, OFFSET ?CompressionStr@@3PAY0BE@DA	; CompressionStr
	push	ecx
	push	ecx
	movss	xmm0, DWORD PTR __real@40a00000
	movss	DWORD PTR [esp], xmm0
	movss	xmm0, DWORD PTR _centerx$[ebp]
	addss	xmm0, DWORD PTR _offset$9[ebp]
	push	ecx
	movss	DWORD PTR [esp], xmm0
	mov	edx, DWORD PTR ?OTWDriver@@3VOTWDriverClass@@A+33576
	mov	eax, DWORD PTR [edx]
	mov	ecx, DWORD PTR ?OTWDriver@@3VOTWDriverClass@@A+33576
	mov	edx, DWORD PTR [eax+100]
	call	edx
$LN139@DisplayFro:

; 823  : 			}
; 824  : 
; 825  : 			// JB 010109
; 826  : 			//offset+=OTWDriver.renderer->ScreenTextWidth(CompressionStr[3]) + COMPRESS_SPACING;
; 827  : 			if((targetCompressionRatio == 8) || (FalconLocalSession->GetReqCompression() == 8) || (remoteCompressionRequests & REMOTE_REQUEST_8))

	cmp	DWORD PTR ?targetCompressionRatio@@3HA, 8 ; targetCompressionRatio
	je	SHORT $LN130@DisplayFro
	mov	ecx, OFFSET ?vuLocalSessionEntity@@3V?$VuBin@VVuSessionEntity@@@@A ; vuLocalSessionEntity
	call	?get@?$VuBin@VVuSessionEntity@@@@QBEPAVVuSessionEntity@@XZ ; VuBin<VuSessionEntity>::get
	mov	ecx, eax
	call	?GetReqCompression@FalconSessionEntity@@QBEFXZ ; FalconSessionEntity::GetReqCompression
	cwde
	cmp	eax, 8
	je	SHORT $LN130@DisplayFro
	mov	ecx, DWORD PTR ?remoteCompressionRequests@@3HA ; remoteCompressionRequests
	and	ecx, 8
	je	$LN131@DisplayFro
$LN130@DisplayFro:

; 828  : 			{
; 829  : 				// if ANY compression OR compression requests > 2... Draw 8X
; 830  : 				//		if compression == our compression == all requested compressions
; 831  : 				//			Use RED
; 832  : 				//		if compression == our compression != all requested compression
; 833  : 				//			Use YELLOW
; 834  : 				//		if compression != our compression
; 835  : 				//			Use GREEN
; 836  : 				//
; 837  : 				if((targetCompressionRatio == 8) && ((FalconLocalSession->GetReqCompression() == 8) && (remoteCompressionRequests & REMOTE_REQUEST_8) || !gCommsMgr->Online()))

	cmp	DWORD PTR ?targetCompressionRatio@@3HA, 8 ; targetCompressionRatio
	jne	SHORT $LN129@DisplayFro
	mov	ecx, OFFSET ?vuLocalSessionEntity@@3V?$VuBin@VVuSessionEntity@@@@A ; vuLocalSessionEntity
	call	?get@?$VuBin@VVuSessionEntity@@@@QBEPAVVuSessionEntity@@XZ ; VuBin<VuSessionEntity>::get
	mov	ecx, eax
	call	?GetReqCompression@FalconSessionEntity@@QBEFXZ ; FalconSessionEntity::GetReqCompression
	movsx	edx, ax
	cmp	edx, 8
	jne	SHORT $LN127@DisplayFro
	mov	eax, DWORD PTR ?remoteCompressionRequests@@3HA ; remoteCompressionRequests
	and	eax, 8
	jne	SHORT $LN128@DisplayFro
$LN127@DisplayFro:
	mov	ecx, DWORD PTR ?gCommsMgr@@3PAVUIComms@@A ; gCommsMgr
	call	?Online@UIComms@@QAEHXZ			; UIComms::Online
	test	eax, eax
	jne	SHORT $LN129@DisplayFro
$LN128@DisplayFro:

; 838  : 					color=0xff0000ff;

	mov	DWORD PTR _color$14[ebp], -16776961	; ff0000ffH
	jmp	SHORT $LN124@DisplayFro
$LN129@DisplayFro:

; 839  : 				else if((FalconLocalSession->GetReqCompression() == 8))

	mov	ecx, OFFSET ?vuLocalSessionEntity@@3V?$VuBin@VVuSessionEntity@@@@A ; vuLocalSessionEntity
	call	?get@?$VuBin@VVuSessionEntity@@@@QBEPAVVuSessionEntity@@XZ ; VuBin<VuSessionEntity>::get
	mov	ecx, eax
	call	?GetReqCompression@FalconSessionEntity@@QBEFXZ ; FalconSessionEntity::GetReqCompression
	movsx	ecx, ax
	cmp	ecx, 8
	jne	SHORT $LN125@DisplayFro

; 840  : 					color=0xff00ff00;

	mov	DWORD PTR _color$14[ebp], -16711936	; ff00ff00H

; 841  : 				else

	jmp	SHORT $LN124@DisplayFro
$LN125@DisplayFro:

; 842  : 					color=0xff00ffff;

	mov	DWORD PTR _color$14[ebp], -16711681	; ff00ffffH
$LN124@DisplayFro:

; 843  : 				OTWDriver.renderer->SetColor(color);

	mov	edx, DWORD PTR _color$14[ebp]
	push	edx
	mov	eax, DWORD PTR ?OTWDriver@@3VOTWDriverClass@@A+33576
	mov	edx, DWORD PTR [eax]
	mov	ecx, DWORD PTR ?OTWDriver@@3VOTWDriverClass@@A+33576
	mov	eax, DWORD PTR [edx+92]
	call	eax

; 844  : 				OTWDriver.renderer->ScreenText(centerx+offset,COMPRESS_Y, "x8");

	push	0
	push	OFFSET ??_C@_02ENMDKDPO@x8?$AA@
	push	ecx
	movss	xmm0, DWORD PTR __real@40a00000
	movss	DWORD PTR [esp], xmm0
	movss	xmm0, DWORD PTR _centerx$[ebp]
	addss	xmm0, DWORD PTR _offset$9[ebp]
	push	ecx
	movss	DWORD PTR [esp], xmm0
	mov	ecx, DWORD PTR ?OTWDriver@@3VOTWDriverClass@@A+33576
	mov	edx, DWORD PTR [ecx]
	mov	ecx, DWORD PTR ?OTWDriver@@3VOTWDriverClass@@A+33576
	mov	eax, DWORD PTR [edx+100]
	call	eax
$LN131@DisplayFro:

; 845  : 			}
; 846  : 			//offset+=OTWDriver.renderer->ScreenTextWidth("x8") + COMPRESS_SPACING;
; 847  : 			if((targetCompressionRatio == 16) || (FalconLocalSession->GetReqCompression() == 16) || (remoteCompressionRequests & REMOTE_REQUEST_16))

	cmp	DWORD PTR ?targetCompressionRatio@@3HA, 16 ; targetCompressionRatio, 00000010H
	je	SHORT $LN122@DisplayFro
	mov	ecx, OFFSET ?vuLocalSessionEntity@@3V?$VuBin@VVuSessionEntity@@@@A ; vuLocalSessionEntity
	call	?get@?$VuBin@VVuSessionEntity@@@@QBEPAVVuSessionEntity@@XZ ; VuBin<VuSessionEntity>::get
	mov	ecx, eax
	call	?GetReqCompression@FalconSessionEntity@@QBEFXZ ; FalconSessionEntity::GetReqCompression
	movsx	ecx, ax
	cmp	ecx, 16					; 00000010H
	je	SHORT $LN122@DisplayFro
	mov	edx, DWORD PTR ?remoteCompressionRequests@@3HA ; remoteCompressionRequests
	and	edx, 16					; 00000010H
	je	$LN123@DisplayFro
$LN122@DisplayFro:

; 848  : 			{
; 849  : 				// if ANY compression OR compression requests > 2... Draw 16X
; 850  : 				//		if compression == our compression == all requested compressions
; 851  : 				//			Use RED
; 852  : 				//		if compression == our compression != all requested compression
; 853  : 				//			Use YELLOW
; 854  : 				//		if compression != our compression
; 855  : 				//			Use GREEN
; 856  : 				//
; 857  : 				if((targetCompressionRatio == 16) && ((FalconLocalSession->GetReqCompression() == 16) && (remoteCompressionRequests & REMOTE_REQUEST_16) || !gCommsMgr->Online()))

	cmp	DWORD PTR ?targetCompressionRatio@@3HA, 16 ; targetCompressionRatio, 00000010H
	jne	SHORT $LN121@DisplayFro
	mov	ecx, OFFSET ?vuLocalSessionEntity@@3V?$VuBin@VVuSessionEntity@@@@A ; vuLocalSessionEntity
	call	?get@?$VuBin@VVuSessionEntity@@@@QBEPAVVuSessionEntity@@XZ ; VuBin<VuSessionEntity>::get
	mov	ecx, eax
	call	?GetReqCompression@FalconSessionEntity@@QBEFXZ ; FalconSessionEntity::GetReqCompression
	cwde
	cmp	eax, 16					; 00000010H
	jne	SHORT $LN119@DisplayFro
	mov	ecx, DWORD PTR ?remoteCompressionRequests@@3HA ; remoteCompressionRequests
	and	ecx, 16					; 00000010H
	jne	SHORT $LN120@DisplayFro
$LN119@DisplayFro:
	mov	ecx, DWORD PTR ?gCommsMgr@@3PAVUIComms@@A ; gCommsMgr
	call	?Online@UIComms@@QAEHXZ			; UIComms::Online
	test	eax, eax
	jne	SHORT $LN121@DisplayFro
$LN120@DisplayFro:

; 858  : 					color=0xff0000ff;

	mov	DWORD PTR _color$14[ebp], -16776961	; ff0000ffH
	jmp	SHORT $LN116@DisplayFro
$LN121@DisplayFro:

; 859  : 				else if((FalconLocalSession->GetReqCompression() == 16))

	mov	ecx, OFFSET ?vuLocalSessionEntity@@3V?$VuBin@VVuSessionEntity@@@@A ; vuLocalSessionEntity
	call	?get@?$VuBin@VVuSessionEntity@@@@QBEPAVVuSessionEntity@@XZ ; VuBin<VuSessionEntity>::get
	mov	ecx, eax
	call	?GetReqCompression@FalconSessionEntity@@QBEFXZ ; FalconSessionEntity::GetReqCompression
	movsx	edx, ax
	cmp	edx, 16					; 00000010H
	jne	SHORT $LN117@DisplayFro

; 860  : 					color=0xff00ff00;

	mov	DWORD PTR _color$14[ebp], -16711936	; ff00ff00H

; 861  : 				else

	jmp	SHORT $LN116@DisplayFro
$LN117@DisplayFro:

; 862  : 					color=0xff00ffff;

	mov	DWORD PTR _color$14[ebp], -16711681	; ff00ffffH
$LN116@DisplayFro:

; 863  : 				OTWDriver.renderer->SetColor(color);

	mov	eax, DWORD PTR _color$14[ebp]
	push	eax
	mov	ecx, DWORD PTR ?OTWDriver@@3VOTWDriverClass@@A+33576
	mov	edx, DWORD PTR [ecx]
	mov	ecx, DWORD PTR ?OTWDriver@@3VOTWDriverClass@@A+33576
	mov	eax, DWORD PTR [edx+92]
	call	eax

; 864  : 				OTWDriver.renderer->ScreenText(centerx+offset,COMPRESS_Y, "x16");

	push	0
	push	OFFSET ??_C@_03NMIFLGEC@x16?$AA@
	push	ecx
	movss	xmm0, DWORD PTR __real@40a00000
	movss	DWORD PTR [esp], xmm0
	movss	xmm0, DWORD PTR _centerx$[ebp]
	addss	xmm0, DWORD PTR _offset$9[ebp]
	push	ecx
	movss	DWORD PTR [esp], xmm0
	mov	ecx, DWORD PTR ?OTWDriver@@3VOTWDriverClass@@A+33576
	mov	edx, DWORD PTR [ecx]
	mov	ecx, DWORD PTR ?OTWDriver@@3VOTWDriverClass@@A+33576
	mov	eax, DWORD PTR [edx+100]
	call	eax
$LN123@DisplayFro:

; 865  : 			}
; 866  : 			//offset+=OTWDriver.renderer->ScreenTextWidth("x16") + COMPRESS_SPACING;
; 867  : 			if((targetCompressionRatio == 32) || (FalconLocalSession->GetReqCompression() == 32) || (remoteCompressionRequests & REMOTE_REQUEST_32))

	cmp	DWORD PTR ?targetCompressionRatio@@3HA, 32 ; targetCompressionRatio, 00000020H
	je	SHORT $LN114@DisplayFro
	mov	ecx, OFFSET ?vuLocalSessionEntity@@3V?$VuBin@VVuSessionEntity@@@@A ; vuLocalSessionEntity
	call	?get@?$VuBin@VVuSessionEntity@@@@QBEPAVVuSessionEntity@@XZ ; VuBin<VuSessionEntity>::get
	mov	ecx, eax
	call	?GetReqCompression@FalconSessionEntity@@QBEFXZ ; FalconSessionEntity::GetReqCompression
	movsx	ecx, ax
	cmp	ecx, 32					; 00000020H
	je	SHORT $LN114@DisplayFro
	mov	edx, DWORD PTR ?remoteCompressionRequests@@3HA ; remoteCompressionRequests
	and	edx, 32					; 00000020H
	je	$LN115@DisplayFro
$LN114@DisplayFro:

; 868  : 			{
; 869  : 				// if ANY compression OR compression requests > 2... Draw 32X
; 870  : 				//		if compression == our compression == all requested compressions
; 871  : 				//			Use RED
; 872  : 				//		if compression == our compression != all requested compression
; 873  : 				//			Use YELLOW
; 874  : 				//		if compression != our compression
; 875  : 				//			Use GREEN
; 876  : 				//
; 877  : 				if((targetCompressionRatio == 32) && ((FalconLocalSession->GetReqCompression() == 32) && (remoteCompressionRequests & REMOTE_REQUEST_32) || !gCommsMgr->Online()))

	cmp	DWORD PTR ?targetCompressionRatio@@3HA, 32 ; targetCompressionRatio, 00000020H
	jne	SHORT $LN113@DisplayFro
	mov	ecx, OFFSET ?vuLocalSessionEntity@@3V?$VuBin@VVuSessionEntity@@@@A ; vuLocalSessionEntity
	call	?get@?$VuBin@VVuSessionEntity@@@@QBEPAVVuSessionEntity@@XZ ; VuBin<VuSessionEntity>::get
	mov	ecx, eax
	call	?GetReqCompression@FalconSessionEntity@@QBEFXZ ; FalconSessionEntity::GetReqCompression
	cwde
	cmp	eax, 32					; 00000020H
	jne	SHORT $LN111@DisplayFro
	mov	ecx, DWORD PTR ?remoteCompressionRequests@@3HA ; remoteCompressionRequests
	and	ecx, 32					; 00000020H
	jne	SHORT $LN112@DisplayFro
$LN111@DisplayFro:
	mov	ecx, DWORD PTR ?gCommsMgr@@3PAVUIComms@@A ; gCommsMgr
	call	?Online@UIComms@@QAEHXZ			; UIComms::Online
	test	eax, eax
	jne	SHORT $LN113@DisplayFro
$LN112@DisplayFro:

; 878  : 					color=0xff0000ff;

	mov	DWORD PTR _color$14[ebp], -16776961	; ff0000ffH
	jmp	SHORT $LN108@DisplayFro
$LN113@DisplayFro:

; 879  : 				else if((FalconLocalSession->GetReqCompression() == 32))

	mov	ecx, OFFSET ?vuLocalSessionEntity@@3V?$VuBin@VVuSessionEntity@@@@A ; vuLocalSessionEntity
	call	?get@?$VuBin@VVuSessionEntity@@@@QBEPAVVuSessionEntity@@XZ ; VuBin<VuSessionEntity>::get
	mov	ecx, eax
	call	?GetReqCompression@FalconSessionEntity@@QBEFXZ ; FalconSessionEntity::GetReqCompression
	movsx	edx, ax
	cmp	edx, 32					; 00000020H
	jne	SHORT $LN109@DisplayFro

; 880  : 					color=0xff00ff00;

	mov	DWORD PTR _color$14[ebp], -16711936	; ff00ff00H

; 881  : 				else

	jmp	SHORT $LN108@DisplayFro
$LN109@DisplayFro:

; 882  : 					color=0xff00ffff;

	mov	DWORD PTR _color$14[ebp], -16711681	; ff00ffffH
$LN108@DisplayFro:

; 883  : 				OTWDriver.renderer->SetColor(color);

	mov	eax, DWORD PTR _color$14[ebp]
	push	eax
	mov	ecx, DWORD PTR ?OTWDriver@@3VOTWDriverClass@@A+33576
	mov	edx, DWORD PTR [ecx]
	mov	ecx, DWORD PTR ?OTWDriver@@3VOTWDriverClass@@A+33576
	mov	eax, DWORD PTR [edx+92]
	call	eax

; 884  : 				OTWDriver.renderer->ScreenText(centerx+offset,COMPRESS_Y, "x32");

	push	0
	push	OFFSET ??_C@_03LLGNKHCI@x32?$AA@
	push	ecx
	movss	xmm0, DWORD PTR __real@40a00000
	movss	DWORD PTR [esp], xmm0
	movss	xmm0, DWORD PTR _centerx$[ebp]
	addss	xmm0, DWORD PTR _offset$9[ebp]
	push	ecx
	movss	DWORD PTR [esp], xmm0
	mov	ecx, DWORD PTR ?OTWDriver@@3VOTWDriverClass@@A+33576
	mov	edx, DWORD PTR [ecx]
	mov	ecx, DWORD PTR ?OTWDriver@@3VOTWDriverClass@@A+33576
	mov	eax, DWORD PTR [edx+100]
	call	eax
$LN115@DisplayFro:

; 885  : 			}
; 886  : 			//offset+=OTWDriver.renderer->ScreenTextWidth("x32") + COMPRESS_SPACING;
; 887  : 			if((targetCompressionRatio == 64) || (FalconLocalSession->GetReqCompression() == 64) || (remoteCompressionRequests & REMOTE_REQUEST_64))

	cmp	DWORD PTR ?targetCompressionRatio@@3HA, 64 ; targetCompressionRatio, 00000040H
	je	SHORT $LN106@DisplayFro
	mov	ecx, OFFSET ?vuLocalSessionEntity@@3V?$VuBin@VVuSessionEntity@@@@A ; vuLocalSessionEntity
	call	?get@?$VuBin@VVuSessionEntity@@@@QBEPAVVuSessionEntity@@XZ ; VuBin<VuSessionEntity>::get
	mov	ecx, eax
	call	?GetReqCompression@FalconSessionEntity@@QBEFXZ ; FalconSessionEntity::GetReqCompression
	movsx	ecx, ax
	cmp	ecx, 64					; 00000040H
	je	SHORT $LN106@DisplayFro
	mov	edx, DWORD PTR ?remoteCompressionRequests@@3HA ; remoteCompressionRequests
	and	edx, 64					; 00000040H
	je	$LN107@DisplayFro
$LN106@DisplayFro:

; 888  : 			{
; 889  : 				// if ANY compression OR compression requests > 2... Draw 64X
; 890  : 				//		if compression == our compression == all requested compressions
; 891  : 				//			Use RED
; 892  : 				//		if compression == our compression != all requested compression
; 893  : 				//			Use YELLOW
; 894  : 				//		if compression != our compression
; 895  : 				//			Use GREEN
; 896  : 				//
; 897  : 				if((targetCompressionRatio == 64) && ((FalconLocalSession->GetReqCompression() == 64) && (remoteCompressionRequests & REMOTE_REQUEST_64) || !gCommsMgr->Online()))

	cmp	DWORD PTR ?targetCompressionRatio@@3HA, 64 ; targetCompressionRatio, 00000040H
	jne	SHORT $LN105@DisplayFro
	mov	ecx, OFFSET ?vuLocalSessionEntity@@3V?$VuBin@VVuSessionEntity@@@@A ; vuLocalSessionEntity
	call	?get@?$VuBin@VVuSessionEntity@@@@QBEPAVVuSessionEntity@@XZ ; VuBin<VuSessionEntity>::get
	mov	ecx, eax
	call	?GetReqCompression@FalconSessionEntity@@QBEFXZ ; FalconSessionEntity::GetReqCompression
	cwde
	cmp	eax, 64					; 00000040H
	jne	SHORT $LN103@DisplayFro
	mov	ecx, DWORD PTR ?remoteCompressionRequests@@3HA ; remoteCompressionRequests
	and	ecx, 64					; 00000040H
	jne	SHORT $LN104@DisplayFro
$LN103@DisplayFro:
	mov	ecx, DWORD PTR ?gCommsMgr@@3PAVUIComms@@A ; gCommsMgr
	call	?Online@UIComms@@QAEHXZ			; UIComms::Online
	test	eax, eax
	jne	SHORT $LN105@DisplayFro
$LN104@DisplayFro:

; 898  : 					color=0xff0000ff;

	mov	DWORD PTR _color$14[ebp], -16776961	; ff0000ffH
	jmp	SHORT $LN100@DisplayFro
$LN105@DisplayFro:

; 899  : 				else if((FalconLocalSession->GetReqCompression() == 64))

	mov	ecx, OFFSET ?vuLocalSessionEntity@@3V?$VuBin@VVuSessionEntity@@@@A ; vuLocalSessionEntity
	call	?get@?$VuBin@VVuSessionEntity@@@@QBEPAVVuSessionEntity@@XZ ; VuBin<VuSessionEntity>::get
	mov	ecx, eax
	call	?GetReqCompression@FalconSessionEntity@@QBEFXZ ; FalconSessionEntity::GetReqCompression
	movsx	edx, ax
	cmp	edx, 64					; 00000040H
	jne	SHORT $LN101@DisplayFro

; 900  : 					color=0xff00ff00;

	mov	DWORD PTR _color$14[ebp], -16711936	; ff00ff00H

; 901  : 				else

	jmp	SHORT $LN100@DisplayFro
$LN101@DisplayFro:

; 902  : 					color=0xff00ffff;

	mov	DWORD PTR _color$14[ebp], -16711681	; ff00ffffH
$LN100@DisplayFro:

; 903  : 				OTWDriver.renderer->SetColor(color);

	mov	eax, DWORD PTR _color$14[ebp]
	push	eax
	mov	ecx, DWORD PTR ?OTWDriver@@3VOTWDriverClass@@A+33576
	mov	edx, DWORD PTR [ecx]
	mov	ecx, DWORD PTR ?OTWDriver@@3VOTWDriverClass@@A+33576
	mov	eax, DWORD PTR [edx+92]
	call	eax

; 904  : 				OTWDriver.renderer->ScreenText(centerx+offset,COMPRESS_Y, "x64");

	push	0
	push	OFFSET ??_C@_03OLPMMCEF@x64?$AA@
	push	ecx
	movss	xmm0, DWORD PTR __real@40a00000
	movss	DWORD PTR [esp], xmm0
	movss	xmm0, DWORD PTR _centerx$[ebp]
	addss	xmm0, DWORD PTR _offset$9[ebp]
	push	ecx
	movss	DWORD PTR [esp], xmm0
	mov	ecx, DWORD PTR ?OTWDriver@@3VOTWDriverClass@@A+33576
	mov	edx, DWORD PTR [ecx]
	mov	ecx, DWORD PTR ?OTWDriver@@3VOTWDriverClass@@A+33576
	mov	eax, DWORD PTR [edx+100]
	call	eax
$LN107@DisplayFro:

; 905  : 			}
; 906  : 			//offset+=OTWDriver.renderer->ScreenTextWidth("x64") + COMPRESS_SPACING;
; 907  : 			if((targetCompressionRatio == 128) || (FalconLocalSession->GetReqCompression() == 128) || (remoteCompressionRequests & REMOTE_REQUEST_128))

	cmp	DWORD PTR ?targetCompressionRatio@@3HA, 128 ; targetCompressionRatio, 00000080H
	je	SHORT $LN98@DisplayFro
	mov	ecx, OFFSET ?vuLocalSessionEntity@@3V?$VuBin@VVuSessionEntity@@@@A ; vuLocalSessionEntity
	call	?get@?$VuBin@VVuSessionEntity@@@@QBEPAVVuSessionEntity@@XZ ; VuBin<VuSessionEntity>::get
	mov	ecx, eax
	call	?GetReqCompression@FalconSessionEntity@@QBEFXZ ; FalconSessionEntity::GetReqCompression
	movsx	ecx, ax
	cmp	ecx, 128				; 00000080H
	je	SHORT $LN98@DisplayFro
	mov	edx, DWORD PTR ?remoteCompressionRequests@@3HA ; remoteCompressionRequests
	and	edx, 128				; 00000080H
	je	$LN99@DisplayFro
$LN98@DisplayFro:

; 908  : 			{
; 909  : 				// if ANY compression OR compression requests > 2... Draw 128X
; 910  : 				//		if compression == our compression == all requested compressions
; 911  : 				//			Use RED
; 912  : 				//		if compression == our compression != all requested compression
; 913  : 				//			Use YELLOW
; 914  : 				//		if compression != our compression
; 915  : 				//			Use GREEN
; 916  : 				//
; 917  : 				if((targetCompressionRatio == 128) && ((FalconLocalSession->GetReqCompression() == 128) && (remoteCompressionRequests & REMOTE_REQUEST_128) || !gCommsMgr->Online()))

	cmp	DWORD PTR ?targetCompressionRatio@@3HA, 128 ; targetCompressionRatio, 00000080H
	jne	SHORT $LN97@DisplayFro
	mov	ecx, OFFSET ?vuLocalSessionEntity@@3V?$VuBin@VVuSessionEntity@@@@A ; vuLocalSessionEntity
	call	?get@?$VuBin@VVuSessionEntity@@@@QBEPAVVuSessionEntity@@XZ ; VuBin<VuSessionEntity>::get
	mov	ecx, eax
	call	?GetReqCompression@FalconSessionEntity@@QBEFXZ ; FalconSessionEntity::GetReqCompression
	cwde
	cmp	eax, 128				; 00000080H
	jne	SHORT $LN95@DisplayFro
	mov	ecx, DWORD PTR ?remoteCompressionRequests@@3HA ; remoteCompressionRequests
	and	ecx, 128				; 00000080H
	jne	SHORT $LN96@DisplayFro
$LN95@DisplayFro:
	mov	ecx, DWORD PTR ?gCommsMgr@@3PAVUIComms@@A ; gCommsMgr
	call	?Online@UIComms@@QAEHXZ			; UIComms::Online
	test	eax, eax
	jne	SHORT $LN97@DisplayFro
$LN96@DisplayFro:

; 918  : 					color=0xff0000ff;

	mov	DWORD PTR _color$14[ebp], -16776961	; ff0000ffH
	jmp	SHORT $LN92@DisplayFro
$LN97@DisplayFro:

; 919  : 				else if((FalconLocalSession->GetReqCompression() == 128))

	mov	ecx, OFFSET ?vuLocalSessionEntity@@3V?$VuBin@VVuSessionEntity@@@@A ; vuLocalSessionEntity
	call	?get@?$VuBin@VVuSessionEntity@@@@QBEPAVVuSessionEntity@@XZ ; VuBin<VuSessionEntity>::get
	mov	ecx, eax
	call	?GetReqCompression@FalconSessionEntity@@QBEFXZ ; FalconSessionEntity::GetReqCompression
	movsx	edx, ax
	cmp	edx, 128				; 00000080H
	jne	SHORT $LN93@DisplayFro

; 920  : 					color=0xff00ff00;

	mov	DWORD PTR _color$14[ebp], -16711936	; ff00ff00H

; 921  : 				else

	jmp	SHORT $LN92@DisplayFro
$LN93@DisplayFro:

; 922  : 					color=0xff00ffff;

	mov	DWORD PTR _color$14[ebp], -16711681	; ff00ffffH
$LN92@DisplayFro:

; 923  : 				OTWDriver.renderer->SetColor(color);

	mov	eax, DWORD PTR _color$14[ebp]
	push	eax
	mov	ecx, DWORD PTR ?OTWDriver@@3VOTWDriverClass@@A+33576
	mov	edx, DWORD PTR [ecx]
	mov	ecx, DWORD PTR ?OTWDriver@@3VOTWDriverClass@@A+33576
	mov	eax, DWORD PTR [edx+92]
	call	eax

; 924  : 				OTWDriver.renderer->ScreenText(centerx+offset,COMPRESS_Y, "x128");

	push	0
	push	OFFSET ??_C@_04IIJILBCN@x128?$AA@
	push	ecx
	movss	xmm0, DWORD PTR __real@40a00000
	movss	DWORD PTR [esp], xmm0
	movss	xmm0, DWORD PTR _centerx$[ebp]
	addss	xmm0, DWORD PTR _offset$9[ebp]
	push	ecx
	movss	DWORD PTR [esp], xmm0
	mov	ecx, DWORD PTR ?OTWDriver@@3VOTWDriverClass@@A+33576
	mov	edx, DWORD PTR [ecx]
	mov	ecx, DWORD PTR ?OTWDriver@@3VOTWDriverClass@@A+33576
	mov	eax, DWORD PTR [edx+100]
	call	eax
$LN99@DisplayFro:

; 925  : 			}
; 926  : 			//offset+=OTWDriver.renderer->ScreenTextWidth("x128") + COMPRESS_SPACING;
; 927  : 			if((targetCompressionRatio == 256) || (FalconLocalSession->GetReqCompression() == 256) || (remoteCompressionRequests & REMOTE_REQUEST_256))

	cmp	DWORD PTR ?targetCompressionRatio@@3HA, 256 ; targetCompressionRatio, 00000100H
	je	SHORT $LN90@DisplayFro
	mov	ecx, OFFSET ?vuLocalSessionEntity@@3V?$VuBin@VVuSessionEntity@@@@A ; vuLocalSessionEntity
	call	?get@?$VuBin@VVuSessionEntity@@@@QBEPAVVuSessionEntity@@XZ ; VuBin<VuSessionEntity>::get
	mov	ecx, eax
	call	?GetReqCompression@FalconSessionEntity@@QBEFXZ ; FalconSessionEntity::GetReqCompression
	movsx	ecx, ax
	cmp	ecx, 256				; 00000100H
	je	SHORT $LN90@DisplayFro
	mov	edx, DWORD PTR ?remoteCompressionRequests@@3HA ; remoteCompressionRequests
	and	edx, 256				; 00000100H
	je	$LN91@DisplayFro
$LN90@DisplayFro:

; 928  : 			{
; 929  : 				// if ANY compression OR compression requests > 2... Draw 256X
; 930  : 				//		if compression == our compression == all requested compressions
; 931  : 				//			Use RED
; 932  : 				//		if compression == our compression != all requested compression
; 933  : 				//			Use YELLOW
; 934  : 				//		if compression != our compression
; 935  : 				//			Use GREEN
; 936  : 				//
; 937  : 				if((targetCompressionRatio == 256) && ((FalconLocalSession->GetReqCompression() == 256) && (remoteCompressionRequests & REMOTE_REQUEST_256) || !gCommsMgr->Online()))

	cmp	DWORD PTR ?targetCompressionRatio@@3HA, 256 ; targetCompressionRatio, 00000100H
	jne	SHORT $LN89@DisplayFro
	mov	ecx, OFFSET ?vuLocalSessionEntity@@3V?$VuBin@VVuSessionEntity@@@@A ; vuLocalSessionEntity
	call	?get@?$VuBin@VVuSessionEntity@@@@QBEPAVVuSessionEntity@@XZ ; VuBin<VuSessionEntity>::get
	mov	ecx, eax
	call	?GetReqCompression@FalconSessionEntity@@QBEFXZ ; FalconSessionEntity::GetReqCompression
	cwde
	cmp	eax, 256				; 00000100H
	jne	SHORT $LN87@DisplayFro
	mov	ecx, DWORD PTR ?remoteCompressionRequests@@3HA ; remoteCompressionRequests
	and	ecx, 256				; 00000100H
	jne	SHORT $LN88@DisplayFro
$LN87@DisplayFro:
	mov	ecx, DWORD PTR ?gCommsMgr@@3PAVUIComms@@A ; gCommsMgr
	call	?Online@UIComms@@QAEHXZ			; UIComms::Online
	test	eax, eax
	jne	SHORT $LN89@DisplayFro
$LN88@DisplayFro:

; 938  : 					color=0xff0000ff;

	mov	DWORD PTR _color$14[ebp], -16776961	; ff0000ffH
	jmp	SHORT $LN84@DisplayFro
$LN89@DisplayFro:

; 939  : 				else if((FalconLocalSession->GetReqCompression() == 256))

	mov	ecx, OFFSET ?vuLocalSessionEntity@@3V?$VuBin@VVuSessionEntity@@@@A ; vuLocalSessionEntity
	call	?get@?$VuBin@VVuSessionEntity@@@@QBEPAVVuSessionEntity@@XZ ; VuBin<VuSessionEntity>::get
	mov	ecx, eax
	call	?GetReqCompression@FalconSessionEntity@@QBEFXZ ; FalconSessionEntity::GetReqCompression
	movsx	edx, ax
	cmp	edx, 256				; 00000100H
	jne	SHORT $LN85@DisplayFro

; 940  : 					color=0xff00ff00;

	mov	DWORD PTR _color$14[ebp], -16711936	; ff00ff00H

; 941  : 				else

	jmp	SHORT $LN84@DisplayFro
$LN85@DisplayFro:

; 942  : 					color=0xff00ffff;

	mov	DWORD PTR _color$14[ebp], -16711681	; ff00ffffH
$LN84@DisplayFro:

; 943  : 				OTWDriver.renderer->SetColor(color);

	mov	eax, DWORD PTR _color$14[ebp]
	push	eax
	mov	ecx, DWORD PTR ?OTWDriver@@3VOTWDriverClass@@A+33576
	mov	edx, DWORD PTR [ecx]
	mov	ecx, DWORD PTR ?OTWDriver@@3VOTWDriverClass@@A+33576
	mov	eax, DWORD PTR [edx+92]
	call	eax

; 944  : 				OTWDriver.renderer->ScreenText(centerx+offset,COMPRESS_Y, "x256");

	push	0
	push	OFFSET ??_C@_04BOBCFMI@x256?$AA@
	push	ecx
	movss	xmm0, DWORD PTR __real@40a00000
	movss	DWORD PTR [esp], xmm0
	movss	xmm0, DWORD PTR _centerx$[ebp]
	addss	xmm0, DWORD PTR _offset$9[ebp]
	push	ecx
	movss	DWORD PTR [esp], xmm0
	mov	ecx, DWORD PTR ?OTWDriver@@3VOTWDriverClass@@A+33576
	mov	edx, DWORD PTR [ecx]
	mov	ecx, DWORD PTR ?OTWDriver@@3VOTWDriverClass@@A+33576
	mov	eax, DWORD PTR [edx+100]
	call	eax
$LN91@DisplayFro:

; 945  : 			}
; 946  : 			//offset+=OTWDriver.renderer->ScreenTextWidth("x256") + COMPRESS_SPACING;
; 947  : 			if((targetCompressionRatio == 512) || (FalconLocalSession->GetReqCompression() == 512) || (remoteCompressionRequests & REMOTE_REQUEST_512))

	cmp	DWORD PTR ?targetCompressionRatio@@3HA, 512 ; targetCompressionRatio, 00000200H
	je	SHORT $LN82@DisplayFro
	mov	ecx, OFFSET ?vuLocalSessionEntity@@3V?$VuBin@VVuSessionEntity@@@@A ; vuLocalSessionEntity
	call	?get@?$VuBin@VVuSessionEntity@@@@QBEPAVVuSessionEntity@@XZ ; VuBin<VuSessionEntity>::get
	mov	ecx, eax
	call	?GetReqCompression@FalconSessionEntity@@QBEFXZ ; FalconSessionEntity::GetReqCompression
	movsx	ecx, ax
	cmp	ecx, 512				; 00000200H
	je	SHORT $LN82@DisplayFro
	mov	edx, DWORD PTR ?remoteCompressionRequests@@3HA ; remoteCompressionRequests
	and	edx, 512				; 00000200H
	je	$LN83@DisplayFro
$LN82@DisplayFro:

; 948  : 			{
; 949  : 				// if ANY compression OR compression requests > 2... Draw 512X
; 950  : 				//		if compression == our compression == all requested compressions
; 951  : 				//			Use RED
; 952  : 				//		if compression == our compression != all requested compression
; 953  : 				//			Use YELLOW
; 954  : 				//		if compression != our compression
; 955  : 				//			Use GREEN
; 956  : 				//
; 957  : 				if((targetCompressionRatio == 512) && ((FalconLocalSession->GetReqCompression() == 512) && (remoteCompressionRequests & REMOTE_REQUEST_512) || !gCommsMgr->Online()))

	cmp	DWORD PTR ?targetCompressionRatio@@3HA, 512 ; targetCompressionRatio, 00000200H
	jne	SHORT $LN81@DisplayFro
	mov	ecx, OFFSET ?vuLocalSessionEntity@@3V?$VuBin@VVuSessionEntity@@@@A ; vuLocalSessionEntity
	call	?get@?$VuBin@VVuSessionEntity@@@@QBEPAVVuSessionEntity@@XZ ; VuBin<VuSessionEntity>::get
	mov	ecx, eax
	call	?GetReqCompression@FalconSessionEntity@@QBEFXZ ; FalconSessionEntity::GetReqCompression
	cwde
	cmp	eax, 512				; 00000200H
	jne	SHORT $LN79@DisplayFro
	mov	ecx, DWORD PTR ?remoteCompressionRequests@@3HA ; remoteCompressionRequests
	and	ecx, 512				; 00000200H
	jne	SHORT $LN80@DisplayFro
$LN79@DisplayFro:
	mov	ecx, DWORD PTR ?gCommsMgr@@3PAVUIComms@@A ; gCommsMgr
	call	?Online@UIComms@@QAEHXZ			; UIComms::Online
	test	eax, eax
	jne	SHORT $LN81@DisplayFro
$LN80@DisplayFro:

; 958  : 					color=0xff0000ff;

	mov	DWORD PTR _color$14[ebp], -16776961	; ff0000ffH
	jmp	SHORT $LN76@DisplayFro
$LN81@DisplayFro:

; 959  : 				else if((FalconLocalSession->GetReqCompression() == 512))

	mov	ecx, OFFSET ?vuLocalSessionEntity@@3V?$VuBin@VVuSessionEntity@@@@A ; vuLocalSessionEntity
	call	?get@?$VuBin@VVuSessionEntity@@@@QBEPAVVuSessionEntity@@XZ ; VuBin<VuSessionEntity>::get
	mov	ecx, eax
	call	?GetReqCompression@FalconSessionEntity@@QBEFXZ ; FalconSessionEntity::GetReqCompression
	movsx	edx, ax
	cmp	edx, 512				; 00000200H
	jne	SHORT $LN77@DisplayFro

; 960  : 					color=0xff00ff00;

	mov	DWORD PTR _color$14[ebp], -16711936	; ff00ff00H

; 961  : 				else

	jmp	SHORT $LN76@DisplayFro
$LN77@DisplayFro:

; 962  : 					color=0xff00ffff;

	mov	DWORD PTR _color$14[ebp], -16711681	; ff00ffffH
$LN76@DisplayFro:

; 963  : 				OTWDriver.renderer->SetColor(color);

	mov	eax, DWORD PTR _color$14[ebp]
	push	eax
	mov	ecx, DWORD PTR ?OTWDriver@@3VOTWDriverClass@@A+33576
	mov	edx, DWORD PTR [ecx]
	mov	ecx, DWORD PTR ?OTWDriver@@3VOTWDriverClass@@A+33576
	mov	eax, DWORD PTR [edx+92]
	call	eax

; 964  : 				OTWDriver.renderer->ScreenText(centerx+offset,COMPRESS_Y, "x512");

	push	0
	push	OFFSET ??_C@_04PPFDHAKJ@x512?$AA@
	push	ecx
	movss	xmm0, DWORD PTR __real@40a00000
	movss	DWORD PTR [esp], xmm0
	movss	xmm0, DWORD PTR _centerx$[ebp]
	addss	xmm0, DWORD PTR _offset$9[ebp]
	push	ecx
	movss	DWORD PTR [esp], xmm0
	mov	ecx, DWORD PTR ?OTWDriver@@3VOTWDriverClass@@A+33576
	mov	edx, DWORD PTR [ecx]
	mov	ecx, DWORD PTR ?OTWDriver@@3VOTWDriverClass@@A+33576
	mov	eax, DWORD PTR [edx+100]
	call	eax
$LN83@DisplayFro:

; 965  : 			}
; 966  : 			//offset+=OTWDriver.renderer->ScreenTextWidth("x512") + COMPRESS_SPACING;
; 967  : 			if((targetCompressionRatio == 1024) || (FalconLocalSession->GetReqCompression() == 1024) || (remoteCompressionRequests & REMOTE_REQUEST_1024))

	cmp	DWORD PTR ?targetCompressionRatio@@3HA, 1024 ; targetCompressionRatio, 00000400H
	je	SHORT $LN74@DisplayFro
	mov	ecx, OFFSET ?vuLocalSessionEntity@@3V?$VuBin@VVuSessionEntity@@@@A ; vuLocalSessionEntity
	call	?get@?$VuBin@VVuSessionEntity@@@@QBEPAVVuSessionEntity@@XZ ; VuBin<VuSessionEntity>::get
	mov	ecx, eax
	call	?GetReqCompression@FalconSessionEntity@@QBEFXZ ; FalconSessionEntity::GetReqCompression
	movsx	ecx, ax
	cmp	ecx, 1024				; 00000400H
	je	SHORT $LN74@DisplayFro
	mov	edx, DWORD PTR ?remoteCompressionRequests@@3HA ; remoteCompressionRequests
	and	edx, 1024				; 00000400H
	je	$LN75@DisplayFro
$LN74@DisplayFro:

; 968  : 			{
; 969  : 				// if ANY compression OR compression requests > 2... Draw 1024X
; 970  : 				//		if compression == our compression == all requested compressions
; 971  : 				//			Use RED
; 972  : 				//		if compression == our compression != all requested compression
; 973  : 				//			Use YELLOW
; 974  : 				//		if compression != our compression
; 975  : 				//			Use GREEN
; 976  : 				//
; 977  : 				if((targetCompressionRatio == 1024) && ((FalconLocalSession->GetReqCompression() == 1024) && (remoteCompressionRequests & REMOTE_REQUEST_1024) || !gCommsMgr->Online()))

	cmp	DWORD PTR ?targetCompressionRatio@@3HA, 1024 ; targetCompressionRatio, 00000400H
	jne	SHORT $LN73@DisplayFro
	mov	ecx, OFFSET ?vuLocalSessionEntity@@3V?$VuBin@VVuSessionEntity@@@@A ; vuLocalSessionEntity
	call	?get@?$VuBin@VVuSessionEntity@@@@QBEPAVVuSessionEntity@@XZ ; VuBin<VuSessionEntity>::get
	mov	ecx, eax
	call	?GetReqCompression@FalconSessionEntity@@QBEFXZ ; FalconSessionEntity::GetReqCompression
	cwde
	cmp	eax, 1024				; 00000400H
	jne	SHORT $LN71@DisplayFro
	mov	ecx, DWORD PTR ?remoteCompressionRequests@@3HA ; remoteCompressionRequests
	and	ecx, 1024				; 00000400H
	jne	SHORT $LN72@DisplayFro
$LN71@DisplayFro:
	mov	ecx, DWORD PTR ?gCommsMgr@@3PAVUIComms@@A ; gCommsMgr
	call	?Online@UIComms@@QAEHXZ			; UIComms::Online
	test	eax, eax
	jne	SHORT $LN73@DisplayFro
$LN72@DisplayFro:

; 978  : 					color=0xff0000ff;

	mov	DWORD PTR _color$14[ebp], -16776961	; ff0000ffH
	jmp	SHORT $LN68@DisplayFro
$LN73@DisplayFro:

; 979  : 				else if((FalconLocalSession->GetReqCompression() == 1024))

	mov	ecx, OFFSET ?vuLocalSessionEntity@@3V?$VuBin@VVuSessionEntity@@@@A ; vuLocalSessionEntity
	call	?get@?$VuBin@VVuSessionEntity@@@@QBEPAVVuSessionEntity@@XZ ; VuBin<VuSessionEntity>::get
	mov	ecx, eax
	call	?GetReqCompression@FalconSessionEntity@@QBEFXZ ; FalconSessionEntity::GetReqCompression
	movsx	edx, ax
	cmp	edx, 1024				; 00000400H
	jne	SHORT $LN69@DisplayFro

; 980  : 					color=0xff00ff00;

	mov	DWORD PTR _color$14[ebp], -16711936	; ff00ff00H

; 981  : 				else

	jmp	SHORT $LN68@DisplayFro
$LN69@DisplayFro:

; 982  : 					color=0xff00ffff;

	mov	DWORD PTR _color$14[ebp], -16711681	; ff00ffffH
$LN68@DisplayFro:

; 983  : 				OTWDriver.renderer->SetColor(color);

	mov	eax, DWORD PTR _color$14[ebp]
	push	eax
	mov	ecx, DWORD PTR ?OTWDriver@@3VOTWDriverClass@@A+33576
	mov	edx, DWORD PTR [ecx]
	mov	ecx, DWORD PTR ?OTWDriver@@3VOTWDriverClass@@A+33576
	mov	eax, DWORD PTR [edx+92]
	call	eax

; 984  : 				OTWDriver.renderer->ScreenText(centerx+offset,COMPRESS_Y, "x1024");

	push	0
	push	OFFSET ??_C@_05FJODHKGO@x1024?$AA@
	push	ecx
	movss	xmm0, DWORD PTR __real@40a00000
	movss	DWORD PTR [esp], xmm0
	movss	xmm0, DWORD PTR _centerx$[ebp]
	addss	xmm0, DWORD PTR _offset$9[ebp]
	push	ecx
	movss	DWORD PTR [esp], xmm0
	mov	ecx, DWORD PTR ?OTWDriver@@3VOTWDriverClass@@A+33576
	mov	edx, DWORD PTR [ecx]
	mov	ecx, DWORD PTR ?OTWDriver@@3VOTWDriverClass@@A+33576
	mov	eax, DWORD PTR [edx+100]
	call	eax
$LN75@DisplayFro:

; 985  : 			}
; 986  : 			//offset+=OTWDriver.renderer->ScreenTextWidth("x1024") + COMPRESS_SPACING;
; 987  : 			// JB 010109
; 988  : 		}
; 989  : 
; 990  : 		if (gameCompressionRatio && !SimDriver.MotionOn())

	cmp	DWORD PTR ?gameCompressionRatio@@3HA, 0	; gameCompressionRatio
	je	$LN67@DisplayFro
	mov	ecx, OFFSET ?SimDriver@@3VSimulationDriver@@A ; SimDriver
	call	?MotionOn@SimulationDriver@@QAEHXZ	; SimulationDriver::MotionOn
	test	eax, eax
	jne	$LN67@DisplayFro

; 991  : 		{
; 992  : 			renderer->SetColor (0xff0000ff);

	push	-16776961				; ff0000ffH
	mov	ecx, DWORD PTR _this$[ebp]
	mov	edx, DWORD PTR [ecx+33576]
	mov	eax, DWORD PTR _this$[ebp]
	mov	edx, DWORD PTR [edx]
	mov	ecx, DWORD PTR [eax+33576]
	mov	eax, DWORD PTR [edx+92]
	call	eax

; 993  : 			renderer->ScreenText (centerx - OTWDriver.renderer->ScreenTextWidth(CompressionStr[4]) * 0.5f, COMPRESS_Y, CompressionStr[4]);

	push	0
	mov	ecx, 20					; 00000014H
	shl	ecx, 2
	add	ecx, OFFSET ?CompressionStr@@3PAY0BE@DA	; CompressionStr
	push	ecx
	push	ecx
	movss	xmm0, DWORD PTR __real@40a00000
	movss	DWORD PTR [esp], xmm0
	mov	edx, 20					; 00000014H
	shl	edx, 2
	add	edx, OFFSET ?CompressionStr@@3PAY0BE@DA	; CompressionStr
	push	edx
	call	?ScreenTextWidth@VirtualDisplay@@SAHPBD@Z ; VirtualDisplay::ScreenTextWidth
	add	esp, 4
	cvtsi2ss xmm0, eax
	mulss	xmm0, DWORD PTR __real@3f000000
	movss	xmm1, DWORD PTR _centerx$[ebp]
	subss	xmm1, xmm0
	push	ecx
	movss	DWORD PTR [esp], xmm1
	mov	eax, DWORD PTR _this$[ebp]
	mov	ecx, DWORD PTR [eax+33576]
	mov	edx, DWORD PTR _this$[ebp]
	mov	eax, DWORD PTR [ecx]
	mov	ecx, DWORD PTR [edx+33576]
	mov	edx, DWORD PTR [eax+100]
	call	edx
$LN67@DisplayFro:

; 994  : 		}
; 995  : 	}
; 996  : 
; 997  : 	if (!g_bACMIRecordMsgOff && gACMIRec.IsRecording())

	movzx	eax, BYTE PTR ?g_bACMIRecordMsgOff@@3_NA ; g_bACMIRecordMsgOff
	test	eax, eax
	jne	$LN66@DisplayFro
	mov	ecx, OFFSET ?gACMIRec@@3VACMIRecorder@@A ; gACMIRec
	call	?IsRecording@ACMIRecorder@@QAEHXZ	; ACMIRecorder::IsRecording
	test	eax, eax
	je	$LN66@DisplayFro

; 998  : 		{
; 999  : 			int pct;
; 1000 : 			int j;
; 1001 : 
; 1002 : 			renderer->SetColor (0xff0000ff);

	push	-16776961				; ff0000ffH
	mov	ecx, DWORD PTR _this$[ebp]
	mov	edx, DWORD PTR [ecx+33576]
	mov	eax, DWORD PTR _this$[ebp]
	mov	edx, DWORD PTR [edx]
	mov	ecx, DWORD PTR [eax+33576]
	mov	eax, DWORD PTR [edx+92]
	call	eax

; 1003 : 			renderer->TextCenter (0.0F, 0.95F, CameraLabel[RECORDING]);

	push	0
	mov	ecx, 40					; 00000028H
	imul	ecx, 14					; 0000000eH
	add	ecx, OFFSET ?CameraLabel@@3PAY0CI@DA	; CameraLabel
	push	ecx
	push	ecx
	movss	xmm0, DWORD PTR __real@3f733333
	movss	DWORD PTR [esp], xmm0
	push	ecx
	movss	xmm0, DWORD PTR __real@00000000
	movss	DWORD PTR [esp], xmm0
	mov	edx, DWORD PTR _this$[ebp]
	mov	eax, DWORD PTR [edx+33576]
	mov	ecx, DWORD PTR _this$[ebp]
	mov	edx, DWORD PTR [eax]
	mov	ecx, DWORD PTR [ecx+33576]
	mov	eax, DWORD PTR [edx+72]
	call	eax

; 1004 : 
; 1005 : 			// get the percent tape is full....
; 1006 : 			pct = gACMIRec.PercentTapeFull();

	mov	ecx, OFFSET ?gACMIRec@@3VACMIRecorder@@A ; gACMIRec
	call	?PercentTapeFull@ACMIRecorder@@QAEHXZ	; ACMIRecorder::PercentTapeFull
	mov	DWORD PTR _pct$4[ebp], eax

; 1007 : 			if ( pct > 10 )

	cmp	DWORD PTR _pct$4[ebp], 10		; 0000000aH
	jle	SHORT $LN65@DisplayFro

; 1008 : 				pct = 10;

	mov	DWORD PTR _pct$4[ebp], 10		; 0000000aH
$LN65@DisplayFro:

; 1009 : 			for ( j = 0; j < pct; j++ )

	mov	DWORD PTR _j$5[ebp], 0
	jmp	SHORT $LN64@DisplayFro
$LN63@DisplayFro:
	mov	ecx, DWORD PTR _j$5[ebp]
	add	ecx, 1
	mov	DWORD PTR _j$5[ebp], ecx
$LN64@DisplayFro:
	mov	edx, DWORD PTR _j$5[ebp]
	cmp	edx, DWORD PTR _pct$4[ebp]
	jge	SHORT $LN62@DisplayFro

; 1010 : 				gAcmiStr[j] = '+';

	mov	eax, DWORD PTR _j$5[ebp]
	mov	BYTE PTR ?gAcmiStr@@3PADA[eax], 43	; 0000002bH
	jmp	SHORT $LN63@DisplayFro
$LN62@DisplayFro:

; 1011 : 			renderer->TextCenter (0.0F, 0.92F, gAcmiStr);

	push	0
	push	OFFSET ?gAcmiStr@@3PADA			; gAcmiStr
	push	ecx
	movss	xmm0, DWORD PTR __real@3f6b851f
	movss	DWORD PTR [esp], xmm0
	push	ecx
	movss	xmm0, DWORD PTR __real@00000000
	movss	DWORD PTR [esp], xmm0
	mov	ecx, DWORD PTR _this$[ebp]
	mov	edx, DWORD PTR [ecx+33576]
	mov	eax, DWORD PTR _this$[ebp]
	mov	edx, DWORD PTR [edx]
	mov	ecx, DWORD PTR [eax+33576]
	mov	eax, DWORD PTR [edx+72]
	call	eax
$LN66@DisplayFro:

; 1012 : 		}
; 1013 : 
; 1014 : 	if(showFrontText & (SHOW_TE_SCORES|SHOW_DOGFIGHT_SCORES))

	mov	ecx, DWORD PTR _this$[ebp]
	mov	edx, DWORD PTR [ecx+32352]
	and	edx, 768				; 00000300H
	je	$LN53@DisplayFro

; 1015 : 	{
; 1016 : 		float centerX = DisplayOptions.DispWidth / 2.0F;

	movzx	eax, WORD PTR ?DisplayOptions@@3VDisplayOptionsClass@@A
	cvtsi2ss xmm0, eax
	divss	xmm0, DWORD PTR __real@40000000
	movss	DWORD PTR _centerX$6[ebp], xmm0

; 1017 : 		float centerY =	DisplayOptions.DispHeight / 2.0F;

	movzx	ecx, WORD PTR ?DisplayOptions@@3VDisplayOptionsClass@@A+2
	cvtsi2ss xmm0, ecx
	divss	xmm0, DWORD PTR __real@40000000
	movss	DWORD PTR _centerY$3[ebp], xmm0

; 1018 : 		short i;
; 1019 : 		float x,y;
; 1020 : 		float w,h;
; 1021 : 
; 1022 : 		x=centerX + centerX * (SCORENAME_X - 0.02f);

	movss	xmm0, DWORD PTR _centerX$6[ebp]
	mulss	xmm0, DWORD PTR __real@3f147ae2
	addss	xmm0, DWORD PTR _centerX$6[ebp]
	movss	DWORD PTR _x$11[ebp], xmm0

; 1023 : 		y=centerY - centerY * (SCORE_Y + 0.1f);

	movss	xmm0, DWORD PTR _centerY$3[ebp]
	mulss	xmm0, DWORD PTR __real@3f666667
	movss	xmm1, DWORD PTR _centerY$3[ebp]
	subss	xmm1, xmm0
	movss	DWORD PTR _y$10[ebp], xmm1

; 1024 : 		w=centerX + (centerX * (SCOREPOINT_X + 0.02f)) - x;

	movss	xmm0, DWORD PTR _centerX$6[ebp]
	mulss	xmm0, DWORD PTR __real@3f6b851e
	addss	xmm0, DWORD PTR _centerX$6[ebp]
	subss	xmm0, DWORD PTR _x$11[ebp]
	movss	DWORD PTR _w$8[ebp], xmm0

; 1025 : 		h=centerY * 12 * 0.05f;

	movss	xmm0, DWORD PTR _centerY$3[ebp]
	mulss	xmm0, DWORD PTR __real@41400000
	mulss	xmm0, DWORD PTR __real@3d4ccccd
	movss	DWORD PTR _h$7[ebp], xmm0

; 1026 : 
; 1027 : 		OTWDriver.renderer->SetColor( 0x997B5200 );  				// 60% alpha blue

	push	-1719971328				; 997b5200H
	mov	edx, DWORD PTR ?OTWDriver@@3VOTWDriverClass@@A+33576
	mov	eax, DWORD PTR [edx]
	mov	ecx, DWORD PTR ?OTWDriver@@3VOTWDriverClass@@A+33576
	mov	edx, DWORD PTR [eax+92]
	call	edx

; 1028 : 		OTWDriver.renderer->context.RestoreState( STATE_ALPHA_SOLID );

	push	16					; 00000010H
	mov	ecx, DWORD PTR ?OTWDriver@@3VOTWDriverClass@@A+33576
	add	ecx, 100				; 00000064H
	call	?RestoreState@ContextMPR@@QAEXH@Z	; ContextMPR::RestoreState

; 1029 : 
; 1030 : 		OTWDriver.renderer->Render2DTri( x,y,  x+w,y,  x+w,y+h);

	movss	xmm0, DWORD PTR _y$10[ebp]
	addss	xmm0, DWORD PTR _h$7[ebp]
	push	ecx
	movss	DWORD PTR [esp], xmm0
	movss	xmm0, DWORD PTR _x$11[ebp]
	addss	xmm0, DWORD PTR _w$8[ebp]
	push	ecx
	movss	DWORD PTR [esp], xmm0
	push	ecx
	movss	xmm0, DWORD PTR _y$10[ebp]
	movss	DWORD PTR [esp], xmm0
	movss	xmm0, DWORD PTR _x$11[ebp]
	addss	xmm0, DWORD PTR _w$8[ebp]
	push	ecx
	movss	DWORD PTR [esp], xmm0
	push	ecx
	movss	xmm0, DWORD PTR _y$10[ebp]
	movss	DWORD PTR [esp], xmm0
	push	ecx
	movss	xmm0, DWORD PTR _x$11[ebp]
	movss	DWORD PTR [esp], xmm0
	mov	eax, DWORD PTR ?OTWDriver@@3VOTWDriverClass@@A+33576
	mov	edx, DWORD PTR [eax]
	mov	ecx, DWORD PTR ?OTWDriver@@3VOTWDriverClass@@A+33576
	mov	eax, DWORD PTR [edx+128]
	call	eax

; 1031 : 		OTWDriver.renderer->Render2DTri( x,y,  x,y+h,  x+w,y+h);

	movss	xmm0, DWORD PTR _y$10[ebp]
	addss	xmm0, DWORD PTR _h$7[ebp]
	push	ecx
	movss	DWORD PTR [esp], xmm0
	movss	xmm0, DWORD PTR _x$11[ebp]
	addss	xmm0, DWORD PTR _w$8[ebp]
	push	ecx
	movss	DWORD PTR [esp], xmm0
	movss	xmm0, DWORD PTR _y$10[ebp]
	addss	xmm0, DWORD PTR _h$7[ebp]
	push	ecx
	movss	DWORD PTR [esp], xmm0
	push	ecx
	movss	xmm0, DWORD PTR _x$11[ebp]
	movss	DWORD PTR [esp], xmm0
	push	ecx
	movss	xmm0, DWORD PTR _y$10[ebp]
	movss	DWORD PTR [esp], xmm0
	push	ecx
	movss	xmm0, DWORD PTR _x$11[ebp]
	movss	DWORD PTR [esp], xmm0
	mov	ecx, DWORD PTR ?OTWDriver@@3VOTWDriverClass@@A+33576
	mov	edx, DWORD PTR [ecx]
	mov	ecx, DWORD PTR ?OTWDriver@@3VOTWDriverClass@@A+33576
	mov	eax, DWORD PTR [edx+128]
	call	eax

; 1032 : 
; 1033 : 		// Outline Translucent BLUE box
; 1034 : 		OTWDriver.renderer->SetColor( 0xFF000000 );  				// black

	push	-16777216				; ff000000H
	mov	ecx, DWORD PTR ?OTWDriver@@3VOTWDriverClass@@A+33576
	mov	edx, DWORD PTR [ecx]
	mov	ecx, DWORD PTR ?OTWDriver@@3VOTWDriverClass@@A+33576
	mov	eax, DWORD PTR [edx+92]
	call	eax

; 1035 : 		OTWDriver.renderer->Render2DLine( x,y,x+w,y );

	push	ecx
	movss	xmm0, DWORD PTR _y$10[ebp]
	movss	DWORD PTR [esp], xmm0
	movss	xmm0, DWORD PTR _x$11[ebp]
	addss	xmm0, DWORD PTR _w$8[ebp]
	push	ecx
	movss	DWORD PTR [esp], xmm0
	push	ecx
	movss	xmm0, DWORD PTR _y$10[ebp]
	movss	DWORD PTR [esp], xmm0
	push	ecx
	movss	xmm0, DWORD PTR _x$11[ebp]
	movss	DWORD PTR [esp], xmm0
	mov	ecx, DWORD PTR ?OTWDriver@@3VOTWDriverClass@@A+33576
	mov	edx, DWORD PTR [ecx]
	mov	ecx, DWORD PTR ?OTWDriver@@3VOTWDriverClass@@A+33576
	mov	eax, DWORD PTR [edx+124]
	call	eax

; 1036 : 		OTWDriver.renderer->Render2DLine( x,y+h,x+w,y+h );

	movss	xmm0, DWORD PTR _y$10[ebp]
	addss	xmm0, DWORD PTR _h$7[ebp]
	push	ecx
	movss	DWORD PTR [esp], xmm0
	movss	xmm0, DWORD PTR _x$11[ebp]
	addss	xmm0, DWORD PTR _w$8[ebp]
	push	ecx
	movss	DWORD PTR [esp], xmm0
	movss	xmm0, DWORD PTR _y$10[ebp]
	addss	xmm0, DWORD PTR _h$7[ebp]
	push	ecx
	movss	DWORD PTR [esp], xmm0
	push	ecx
	movss	xmm0, DWORD PTR _x$11[ebp]
	movss	DWORD PTR [esp], xmm0
	mov	ecx, DWORD PTR ?OTWDriver@@3VOTWDriverClass@@A+33576
	mov	edx, DWORD PTR [ecx]
	mov	ecx, DWORD PTR ?OTWDriver@@3VOTWDriverClass@@A+33576
	mov	eax, DWORD PTR [edx+124]
	call	eax

; 1037 : 		OTWDriver.renderer->Render2DLine( x,y,x,y+h );

	movss	xmm0, DWORD PTR _y$10[ebp]
	addss	xmm0, DWORD PTR _h$7[ebp]
	push	ecx
	movss	DWORD PTR [esp], xmm0
	push	ecx
	movss	xmm0, DWORD PTR _x$11[ebp]
	movss	DWORD PTR [esp], xmm0
	push	ecx
	movss	xmm0, DWORD PTR _y$10[ebp]
	movss	DWORD PTR [esp], xmm0
	push	ecx
	movss	xmm0, DWORD PTR _x$11[ebp]
	movss	DWORD PTR [esp], xmm0
	mov	ecx, DWORD PTR ?OTWDriver@@3VOTWDriverClass@@A+33576
	mov	edx, DWORD PTR [ecx]
	mov	ecx, DWORD PTR ?OTWDriver@@3VOTWDriverClass@@A+33576
	mov	eax, DWORD PTR [edx+124]
	call	eax

; 1038 : 		OTWDriver.renderer->Render2DLine( x+w,y,x+w,y+h );

	movss	xmm0, DWORD PTR _y$10[ebp]
	addss	xmm0, DWORD PTR _h$7[ebp]
	push	ecx
	movss	DWORD PTR [esp], xmm0
	movss	xmm0, DWORD PTR _x$11[ebp]
	addss	xmm0, DWORD PTR _w$8[ebp]
	push	ecx
	movss	DWORD PTR [esp], xmm0
	push	ecx
	movss	xmm0, DWORD PTR _y$10[ebp]
	movss	DWORD PTR [esp], xmm0
	movss	xmm0, DWORD PTR _x$11[ebp]
	addss	xmm0, DWORD PTR _w$8[ebp]
	push	ecx
	movss	DWORD PTR [esp], xmm0
	mov	ecx, DWORD PTR ?OTWDriver@@3VOTWDriverClass@@A+33576
	mov	edx, DWORD PTR [ecx]
	mov	ecx, DWORD PTR ?OTWDriver@@3VOTWDriverClass@@A+33576
	mov	eax, DWORD PTR [edx+124]
	call	eax

; 1039 : 
; 1040 : 		if(showFrontText & SHOW_DOGFIGHT_SCORES)

	mov	ecx, DWORD PTR _this$[ebp]
	mov	edx, DWORD PTR [ecx+32352]
	and	edx, 512				; 00000200H
	je	$LN60@DisplayFro

; 1041 : 		{
; 1042 : 			renderer->SetColor(0xfffefefe); // not quite white, so the color won't change

	push	-65794					; fffefefeH
	mov	eax, DWORD PTR _this$[ebp]
	mov	ecx, DWORD PTR [eax+33576]
	mov	edx, DWORD PTR _this$[ebp]
	mov	eax, DWORD PTR [ecx]
	mov	ecx, DWORD PTR [edx+33576]
	mov	edx, DWORD PTR [eax+92]
	call	edx

; 1043 : 			renderer->TextCenter(SCORENAME_X + (SCOREPOINT_X - SCORENAME_X) * 0.5f,  SCORE_Y - (float)(-1) * 0.05f,"Sierra Hotel");

	push	0
	push	OFFSET ??_C@_0N@LEMGNLFI@Sierra?5Hotel?$AA@
	push	ecx
	movss	xmm0, DWORD PTR __real@3f59999a
	movss	DWORD PTR [esp], xmm0
	push	ecx
	movss	xmm0, DWORD PTR __real@3f400000
	movss	DWORD PTR [esp], xmm0
	mov	eax, DWORD PTR _this$[ebp]
	mov	ecx, DWORD PTR [eax+33576]
	mov	edx, DWORD PTR _this$[ebp]
	mov	eax, DWORD PTR [ecx]
	mov	ecx, DWORD PTR [edx+33576]
	mov	edx, DWORD PTR [eax+72]
	call	edx

; 1044 : 			if(gRefreshScoresList)

	cmp	DWORD PTR ?gRefreshScoresList@@3JA, 0	; gRefreshScoresList
	je	SHORT $LN59@DisplayFro

; 1045 : 			{
; 1046 : 				MakeDogfightTopTen(SimDogfight.GetGameType());

	mov	ecx, OFFSET ?SimDogfight@@3VDogfightClass@@A ; SimDogfight
	call	?GetGameType@DogfightClass@@QAE?AW4DogfightType@@XZ ; DogfightClass::GetGameType
	push	eax
	call	?MakeDogfightTopTen@@YAXH@Z		; MakeDogfightTopTen
	add	esp, 4

; 1047 : 				gRefreshScoresList=0;

	mov	DWORD PTR ?gRefreshScoresList@@3JA, 0	; gRefreshScoresList
$LN59@DisplayFro:

; 1048 : 			}
; 1049 : 		}

	jmp	$LN56@DisplayFro
$LN60@DisplayFro:

; 1050 : 		else if(showFrontText & SHOW_TE_SCORES)

	mov	eax, DWORD PTR _this$[ebp]
	mov	ecx, DWORD PTR [eax+32352]
	and	ecx, 256				; 00000100H
	je	SHORT $LN56@DisplayFro

; 1051 : 		{
; 1052 : 			renderer->SetColor(0xfffefefe); // not quite white, so the color won't change

	push	-65794					; fffefefeH
	mov	edx, DWORD PTR _this$[ebp]
	mov	eax, DWORD PTR [edx+33576]
	mov	ecx, DWORD PTR _this$[ebp]
	mov	edx, DWORD PTR [eax]
	mov	ecx, DWORD PTR [ecx+33576]
	mov	eax, DWORD PTR [edx+92]
	call	eax

; 1053 : 			renderer->TextCenter(SCORENAME_X + (SCOREPOINT_X - SCORENAME_X) * 0.5f,  SCORE_Y - (float)(-1) * 0.05f,"Game Over");

	push	0
	push	OFFSET ??_C@_09HJCFOPMO@Game?5Over?$AA@
	push	ecx
	movss	xmm0, DWORD PTR __real@3f59999a
	movss	DWORD PTR [esp], xmm0
	push	ecx
	movss	xmm0, DWORD PTR __real@3f400000
	movss	DWORD PTR [esp], xmm0
	mov	ecx, DWORD PTR _this$[ebp]
	mov	edx, DWORD PTR [ecx+33576]
	mov	eax, DWORD PTR _this$[ebp]
	mov	edx, DWORD PTR [edx]
	mov	ecx, DWORD PTR [eax+33576]
	mov	eax, DWORD PTR [edx+72]
	call	eax

; 1054 : 			if(gRefreshScoresList)

	cmp	DWORD PTR ?gRefreshScoresList@@3JA, 0	; gRefreshScoresList
	je	SHORT $LN56@DisplayFro

; 1055 : 			{
; 1056 : 				MakeTacEngScoreList();

	call	?MakeTacEngScoreList@@YAXXZ		; MakeTacEngScoreList

; 1057 : 				gRefreshScoresList=0;

	mov	DWORD PTR ?gRefreshScoresList@@3JA, 0	; gRefreshScoresList
$LN56@DisplayFro:

; 1058 : 			}
; 1059 : 		}
; 1060 : 		for(i=0;i<10;i++)

	xor	ecx, ecx
	mov	WORD PTR _i$12[ebp], cx
	jmp	SHORT $LN55@DisplayFro
$LN54@DisplayFro:
	mov	dx, WORD PTR _i$12[ebp]
	add	dx, 1
	mov	WORD PTR _i$12[ebp], dx
$LN55@DisplayFro:
	movsx	eax, WORD PTR _i$12[ebp]
	cmp	eax, 10					; 0000000aH
	jge	$LN53@DisplayFro

; 1061 : 		{
; 1062 : //			renderer->SetColor(gScoreColor[i]); // Not set yet
; 1063 : 			renderer->SetColor(0xfffefefe); // not quite white, so the color won't change

	push	-65794					; fffefefeH
	mov	ecx, DWORD PTR _this$[ebp]
	mov	edx, DWORD PTR [ecx+33576]
	mov	eax, DWORD PTR _this$[ebp]
	mov	edx, DWORD PTR [edx]
	mov	ecx, DWORD PTR [eax+33576]
	mov	eax, DWORD PTR [edx+92]
	call	eax

; 1064 : 
; 1065 : 			if(gScoreName[i][0])

	movsx	ecx, WORD PTR _i$12[ebp]
	imul	ecx, 30					; 0000001eH
	mov	edx, 1
	imul	edx, 0
	movsx	eax, BYTE PTR ?gScoreName@@3PAY0BO@DA[ecx+edx]
	test	eax, eax
	je	$LN52@DisplayFro

; 1066 : 			{
; 1067 : 				renderer->TextLeft(SCORENAME_X,  SCORE_Y - (float)i * 0.05f,gScoreName[i]);

	push	0
	movsx	ecx, WORD PTR _i$12[ebp]
	imul	ecx, 30					; 0000001eH
	add	ecx, OFFSET ?gScoreName@@3PAY0BO@DA	; gScoreName
	push	ecx
	movsx	edx, WORD PTR _i$12[ebp]
	cvtsi2ss xmm0, edx
	mulss	xmm0, DWORD PTR __real@3d4ccccd
	movss	xmm1, DWORD PTR __real@3f4ccccd
	subss	xmm1, xmm0
	push	ecx
	movss	DWORD PTR [esp], xmm1
	push	ecx
	movss	xmm0, DWORD PTR __real@3f19999a
	movss	DWORD PTR [esp], xmm0
	mov	eax, DWORD PTR _this$[ebp]
	mov	ecx, DWORD PTR [eax+33576]
	mov	edx, DWORD PTR _this$[ebp]
	mov	eax, DWORD PTR [ecx]
	mov	ecx, DWORD PTR [edx+33576]
	mov	edx, DWORD PTR [eax+56]
	call	edx

; 1068 : 				renderer->TextRight(SCOREPOINT_X,  SCORE_Y - (float)i * 0.05f,gScorePoints[i]);

	push	0
	movsx	eax, WORD PTR _i$12[ebp]
	imul	eax, 10					; 0000000aH
	add	eax, OFFSET ?gScorePoints@@3PAY09DA	; gScorePoints
	push	eax
	movsx	ecx, WORD PTR _i$12[ebp]
	cvtsi2ss xmm0, ecx
	mulss	xmm0, DWORD PTR __real@3d4ccccd
	movss	xmm1, DWORD PTR __real@3f4ccccd
	subss	xmm1, xmm0
	push	ecx
	movss	DWORD PTR [esp], xmm1
	push	ecx
	movss	xmm0, DWORD PTR __real@3f666666
	movss	DWORD PTR [esp], xmm0
	mov	edx, DWORD PTR _this$[ebp]
	mov	eax, DWORD PTR [edx+33576]
	mov	ecx, DWORD PTR _this$[ebp]
	mov	edx, DWORD PTR [eax]
	mov	ecx, DWORD PTR [ecx+33576]
	mov	eax, DWORD PTR [edx+60]
	call	eax
$LN52@DisplayFro:

; 1069 : 			}
; 1070 : 		}

	jmp	$LN54@DisplayFro
$LN53@DisplayFro:

; 1071 : 	}
; 1072 : 
; 1073 : 	// Display any Text Messages sent TO me
; 1074 : 	if(showFrontText & (SHOW_MESSAGES) && textMessage[0][0]) // Check to see if there are any

	mov	ecx, DWORD PTR _this$[ebp]
	mov	edx, DWORD PTR [ecx+32352]
	and	edx, 2
	je	$LN49@DisplayFro
	mov	eax, 100				; 00000064H
	imul	eax, 0
	mov	ecx, DWORD PTR _this$[ebp]
	lea	edx, DWORD PTR [ecx+eax+32396]
	mov	eax, 1
	imul	eax, 0
	movsx	ecx, BYTE PTR [edx+eax]
	test	ecx, ecx
	je	$LN49@DisplayFro

; 1075 : 	{
; 1076 : 		chat_cnt=0;

	xor	edx, edx
	mov	WORD PTR _chat_cnt$[ebp], dx
$LN50@DisplayFro:

; 1077 : 		while(chat_cnt < MAX_CHAT_LINES && textMessage[chat_cnt][0])

	movsx	eax, WORD PTR _chat_cnt$[ebp]
	cmp	eax, 10					; 0000000aH
	jge	$LN49@DisplayFro
	movsx	ecx, WORD PTR _chat_cnt$[ebp]
	imul	ecx, 100				; 00000064H
	mov	edx, DWORD PTR _this$[ebp]
	lea	eax, DWORD PTR [edx+ecx+32396]
	mov	ecx, 1
	imul	ecx, 0
	movsx	edx, BYTE PTR [eax+ecx]
	test	edx, edx
	je	$LN49@DisplayFro

; 1078 : 		{
; 1079 : 			if(TheHud)

	cmp	DWORD PTR ?TheHud@@3PAVHudClass@@A, 0	; TheHud
	je	SHORT $LN48@DisplayFro

; 1080 : 				renderer->SetColor (TheHud->GetHudColor());

	mov	ecx, DWORD PTR ?TheHud@@3PAVHudClass@@A	; TheHud
	call	?GetHudColor@HudClass@@QAEKXZ		; HudClass::GetHudColor
	push	eax
	mov	eax, DWORD PTR _this$[ebp]
	mov	ecx, DWORD PTR [eax+33576]
	mov	edx, DWORD PTR _this$[ebp]
	mov	eax, DWORD PTR [ecx]
	mov	ecx, DWORD PTR [edx+33576]
	mov	edx, DWORD PTR [eax+92]
	call	edx

; 1081 : 			else

	jmp	SHORT $LN47@DisplayFro
$LN48@DisplayFro:

; 1082 : 				renderer->SetColor (0xff00ff00);

	push	-16711936				; ff00ff00H
	mov	eax, DWORD PTR _this$[ebp]
	mov	ecx, DWORD PTR [eax+33576]
	mov	edx, DWORD PTR _this$[ebp]
	mov	eax, DWORD PTR [ecx]
	mov	ecx, DWORD PTR [edx+33576]
	mov	edx, DWORD PTR [eax+92]
	call	edx
$LN47@DisplayFro:

; 1083 : 			renderer->TextLeft(MESSAGE_X,  MESSAGE_Y - (float)chat_cnt * 0.05f,textMessage[chat_cnt]);

	push	0
	movsx	eax, WORD PTR _chat_cnt$[ebp]
	imul	eax, 100				; 00000064H
	mov	ecx, DWORD PTR _this$[ebp]
	lea	edx, DWORD PTR [ecx+eax+32396]
	push	edx
	movsx	eax, WORD PTR _chat_cnt$[ebp]
	cvtsi2ss xmm0, eax
	mulss	xmm0, DWORD PTR __real@3d4ccccd
	movss	xmm1, DWORD PTR __real@3e99999a
	subss	xmm1, xmm0
	push	ecx
	movss	DWORD PTR [esp], xmm1
	push	ecx
	movss	xmm0, DWORD PTR __real@bf7d70a4
	movss	DWORD PTR [esp], xmm0
	mov	ecx, DWORD PTR _this$[ebp]
	mov	edx, DWORD PTR [ecx+33576]
	mov	eax, DWORD PTR _this$[ebp]
	mov	edx, DWORD PTR [edx]
	mov	ecx, DWORD PTR [eax+33576]
	mov	eax, DWORD PTR [edx+56]
	call	eax

; 1084 : 			chat_cnt++;

	mov	cx, WORD PTR _chat_cnt$[ebp]
	add	cx, 1
	mov	WORD PTR _chat_cnt$[ebp], cx

; 1085 : 		}

	jmp	$LN50@DisplayFro
$LN49@DisplayFro:

; 1086 : 	}
; 1087 : 
; 1088 : 	// Display a ChatBox if I am typeing a message
; 1089 : 	//if(flags & ShowChatBox) // put this check in
; 1090 : 	if(showFrontText & (SHOW_CHATBOX))

	mov	edx, DWORD PTR _this$[ebp]
	mov	eax, DWORD PTR [edx+32352]
	and	eax, 1
	je	SHORT $LN46@DisplayFro

; 1091 : 		DisplayChatBox();

	mov	ecx, DWORD PTR _this$[ebp]
	call	?DisplayChatBox@OTWDriverClass@@QAEXXZ	; OTWDriverClass::DisplayChatBox
$LN46@DisplayFro:

; 1092 : 
; 1093 : 	if ((drawInfoBar)&&(!DisplayInCockpit()))		// Retro 16Dec2003

	mov	ecx, DWORD PTR _this$[ebp]
	cmp	DWORD PTR [ecx+33568], 0
	je	SHORT $LN45@DisplayFro
	mov	ecx, DWORD PTR _this$[ebp]
	call	?DisplayInCockpit@OTWDriverClass@@QAEHXZ ; OTWDriverClass::DisplayInCockpit
	test	eax, eax
	jne	SHORT $LN45@DisplayFro

; 1094 : 	{
; 1095 : 		DisplayInfoBar();							// Retro 16Dec2003

	mov	ecx, DWORD PTR _this$[ebp]
	call	?DisplayInfoBar@OTWDriverClass@@AAEXXZ	; OTWDriverClass::DisplayInfoBar

; 1096 : 	}
; 1097 : 	else											// Retro 16Dec2003

	jmp	$LN14@DisplayFro
$LN45@DisplayFro:

; 1098 : 	{
; 1099 : 		// display text for some camera settings
; 1100 : 		// TODO:  This should be a string table, not a slew of "if"s
; 1101 : 		if ( !DisplayInCockpit() )

	mov	ecx, DWORD PTR _this$[ebp]
	call	?DisplayInCockpit@OTWDriverClass@@QAEHXZ ; OTWDriverClass::DisplayInCockpit
	test	eax, eax
	jne	$LN14@DisplayFro

; 1102 : 		{
; 1103 : 			short cameraID=0;

	xor	edx, edx
	mov	WORD PTR _cameraID$13[ebp], dx

; 1104 : 
; 1105 : 			renderer->SetColor (0xff00ff00);

	push	-16711936				; ff00ff00H
	mov	eax, DWORD PTR _this$[ebp]
	mov	ecx, DWORD PTR [eax+33576]
	mov	edx, DWORD PTR _this$[ebp]
	mov	eax, DWORD PTR [ecx]
	mov	ecx, DWORD PTR [edx+33576]
	mov	edx, DWORD PTR [eax+92]
	call	edx

; 1106 : 			if ( actionCameraMode)

	mov	eax, DWORD PTR _this$[ebp]
	cmp	DWORD PTR [eax+33556], 0
	je	SHORT $LN42@DisplayFro

; 1107 : 			{
; 1108 : 				cameraID=ACTION_CAMERA;

	mov	ecx, 13					; 0000000dH
	mov	WORD PTR _cameraID$13[ebp], cx
	jmp	$LN16@DisplayFro
$LN42@DisplayFro:

; 1109 : 			}
; 1110 : 			else if (GetOTWDisplayMode() == ModeChase && flybyTimer )

	mov	ecx, DWORD PTR _this$[ebp]
	call	?GetOTWDisplayMode@OTWDriverClass@@QAE?AW4OTWDisplayMode@1@XZ ; OTWDriverClass::GetOTWDisplayMode
	cmp	eax, 7
	jne	SHORT $LN40@DisplayFro
	mov	edx, DWORD PTR _this$[ebp]
	cmp	DWORD PTR [edx+33544], 0
	je	SHORT $LN40@DisplayFro

; 1111 : 			{
; 1112 : 				cameraID=FLY_BY_CAMERA;

	xor	eax, eax
	mov	WORD PTR _cameraID$13[ebp], ax
	jmp	$LN16@DisplayFro
$LN40@DisplayFro:

; 1113 : 			}
; 1114 : 			else if (GetOTWDisplayMode() == ModeChase && !flybyTimer )

	mov	ecx, DWORD PTR _this$[ebp]
	call	?GetOTWDisplayMode@OTWDriverClass@@QAE?AW4OTWDisplayMode@1@XZ ; OTWDriverClass::GetOTWDisplayMode
	cmp	eax, 7
	jne	SHORT $LN38@DisplayFro
	mov	ecx, DWORD PTR _this$[ebp]
	cmp	DWORD PTR [ecx+33544], 0
	jne	SHORT $LN38@DisplayFro

; 1115 : 			{
; 1116 : 				cameraID=CHASE_CAMERA;

	mov	edx, 1
	mov	WORD PTR _cameraID$13[ebp], dx
	jmp	$LN16@DisplayFro
$LN38@DisplayFro:

; 1117 : 			}
; 1118 : 			else if (GetOTWDisplayMode() == ModeOrbit )

	mov	ecx, DWORD PTR _this$[ebp]
	call	?GetOTWDisplayMode@OTWDriverClass@@QAE?AW4OTWDisplayMode@1@XZ ; OTWDriverClass::GetOTWDisplayMode
	cmp	eax, 6
	jne	SHORT $LN36@DisplayFro

; 1119 : 			{
; 1120 : 				cameraID=ORBIT_CAMERA;

	mov	eax, 2
	mov	WORD PTR _cameraID$13[ebp], ax
	jmp	$LN16@DisplayFro
$LN36@DisplayFro:

; 1121 : 			}
; 1122 : 			else if (GetOTWDisplayMode() == ModeSatellite )

	mov	ecx, DWORD PTR _this$[ebp]
	call	?GetOTWDisplayMode@OTWDriverClass@@QAE?AW4OTWDisplayMode@1@XZ ; OTWDriverClass::GetOTWDisplayMode
	cmp	eax, 14					; 0000000eH
	jne	SHORT $LN34@DisplayFro

; 1123 : 			{
; 1124 : 				cameraID=SATELLITE_CAMERA;

	mov	ecx, 3
	mov	WORD PTR _cameraID$13[ebp], cx
	jmp	$LN16@DisplayFro
$LN34@DisplayFro:

; 1125 : 			}
; 1126 : 			else if (GetOTWDisplayMode() == ModeWeapon )

	mov	ecx, DWORD PTR _this$[ebp]
	call	?GetOTWDisplayMode@OTWDriverClass@@QAE?AW4OTWDisplayMode@1@XZ ; OTWDriverClass::GetOTWDisplayMode
	cmp	eax, 13					; 0000000dH
	jne	SHORT $LN32@DisplayFro

; 1127 : 			{
; 1128 : 				cameraID=WEAPON_CAMERA;

	mov	edx, 4
	mov	WORD PTR _cameraID$13[ebp], dx
	jmp	$LN16@DisplayFro
$LN32@DisplayFro:

; 1129 : 			}
; 1130 : 			else if (GetOTWDisplayMode() == ModeTargetToWeapon )

	mov	ecx, DWORD PTR _this$[ebp]
	call	?GetOTWDisplayMode@OTWDriverClass@@QAE?AW4OTWDisplayMode@1@XZ ; OTWDriverClass::GetOTWDisplayMode
	cmp	eax, 18					; 00000012H
	jne	SHORT $LN30@DisplayFro

; 1131 : 			{
; 1132 : 				cameraID=TARGET_TO_WEAPON_CAMERA;

	mov	eax, 5
	mov	WORD PTR _cameraID$13[ebp], ax
	jmp	$LN16@DisplayFro
$LN30@DisplayFro:

; 1133 : 			}
; 1134 : 			else if (GetOTWDisplayMode() == ModeAirEnemy )

	mov	ecx, DWORD PTR _this$[ebp]
	call	?GetOTWDisplayMode@OTWDriverClass@@QAE?AW4OTWDisplayMode@1@XZ ; OTWDriverClass::GetOTWDisplayMode
	cmp	eax, 10					; 0000000aH
	jne	SHORT $LN28@DisplayFro

; 1135 : 			{
; 1136 : 				cameraID=ENEMY_AIRCRAFT_CAMERA;

	mov	ecx, 6
	mov	WORD PTR _cameraID$13[ebp], cx
	jmp	$LN16@DisplayFro
$LN28@DisplayFro:

; 1137 : 			}
; 1138 : 			else if (GetOTWDisplayMode() == ModeAirFriendly )

	mov	ecx, DWORD PTR _this$[ebp]
	call	?GetOTWDisplayMode@OTWDriverClass@@QAE?AW4OTWDisplayMode@1@XZ ; OTWDriverClass::GetOTWDisplayMode
	cmp	eax, 8
	jne	SHORT $LN26@DisplayFro

; 1139 : 			{
; 1140 : 				cameraID=FRIENDLY_AIRCRAFT_CAMERA;

	mov	edx, 7
	mov	WORD PTR _cameraID$13[ebp], dx
	jmp	SHORT $LN16@DisplayFro
$LN26@DisplayFro:

; 1141 : 			}
; 1142 : 			else if (GetOTWDisplayMode() == ModeGroundEnemy )

	mov	ecx, DWORD PTR _this$[ebp]
	call	?GetOTWDisplayMode@OTWDriverClass@@QAE?AW4OTWDisplayMode@1@XZ ; OTWDriverClass::GetOTWDisplayMode
	cmp	eax, 11					; 0000000bH
	jne	SHORT $LN24@DisplayFro

; 1143 : 			{
; 1144 : 				cameraID=ENEMY_GROUND_UNIT_CAMERA;

	mov	eax, 8
	mov	WORD PTR _cameraID$13[ebp], ax
	jmp	SHORT $LN16@DisplayFro
$LN24@DisplayFro:

; 1145 : 			}
; 1146 : 			else if (GetOTWDisplayMode() == ModeGroundFriendly )

	mov	ecx, DWORD PTR _this$[ebp]
	call	?GetOTWDisplayMode@OTWDriverClass@@QAE?AW4OTWDisplayMode@1@XZ ; OTWDriverClass::GetOTWDisplayMode
	cmp	eax, 9
	jne	SHORT $LN22@DisplayFro

; 1147 : 			{
; 1148 : 				cameraID=FRIENDLY_GROUND_UNIT_CAMERA;

	mov	ecx, 9
	mov	WORD PTR _cameraID$13[ebp], cx
	jmp	SHORT $LN16@DisplayFro
$LN22@DisplayFro:

; 1149 : 			}
; 1150 : 			else if (GetOTWDisplayMode() == ModeIncoming )

	mov	ecx, DWORD PTR _this$[ebp]
	call	?GetOTWDisplayMode@OTWDriverClass@@QAE?AW4OTWDisplayMode@1@XZ ; OTWDriverClass::GetOTWDisplayMode
	cmp	eax, 15					; 0000000fH
	jne	SHORT $LN20@DisplayFro

; 1151 : 			{
; 1152 : 				cameraID=INCOMING_MISSILE_CAMERA;

	mov	edx, 10					; 0000000aH
	mov	WORD PTR _cameraID$13[ebp], dx
	jmp	SHORT $LN16@DisplayFro
$LN20@DisplayFro:

; 1153 : 			}
; 1154 : 			else if (GetOTWDisplayMode() == ModeTarget )

	mov	ecx, DWORD PTR _this$[ebp]
	call	?GetOTWDisplayMode@OTWDriverClass@@QAE?AW4OTWDisplayMode@1@XZ ; OTWDriverClass::GetOTWDisplayMode
	cmp	eax, 12					; 0000000cH
	jne	SHORT $LN18@DisplayFro

; 1155 : 			{
; 1156 : 				cameraID=TARGET_CAMERA;

	mov	eax, 11					; 0000000bH
	mov	WORD PTR _cameraID$13[ebp], ax
	jmp	SHORT $LN16@DisplayFro
$LN18@DisplayFro:

; 1157 : 			}
; 1158 : 			else if (GetOTWDisplayMode() == ModeTargetToSelf )

	mov	ecx, DWORD PTR _this$[ebp]
	call	?GetOTWDisplayMode@OTWDriverClass@@QAE?AW4OTWDisplayMode@1@XZ ; OTWDriverClass::GetOTWDisplayMode
	cmp	eax, 17					; 00000011H
	jne	SHORT $LN16@DisplayFro

; 1159 : 			{
; 1160 : 				cameraID=TARGET_TO_SELF_CAMERA;

	mov	ecx, 12					; 0000000cH
	mov	WORD PTR _cameraID$13[ebp], cx
$LN16@DisplayFro:

; 1161 : 			}
; 1162 : 
; 1163 : 			// put a line telling what the camera focus is (label)
; 1164 : 			if ( 
; 1165 : 				(otwPlatform.get() != NULL) &&
; 1166 : 				 otwPlatform->drawPointer &&
; 1167 : 				 *((DrawableBSP *)otwPlatform->drawPointer)->Label() 
; 1168 : 			)

	mov	ecx, DWORD PTR _this$[ebp]
	add	ecx, 32336				; 00007e50H
	call	?get@?$VuBin@VSimBaseClass@@@@QBEPAVSimBaseClass@@XZ ; VuBin<SimBaseClass>::get
	test	eax, eax
	je	$LN15@DisplayFro
	mov	ecx, DWORD PTR _this$[ebp]
	add	ecx, 32336				; 00007e50H
	call	??C?$VuBin@VSimBaseClass@@@@QBEPAVSimBaseClass@@XZ ; VuBin<SimBaseClass>::operator->
	cmp	DWORD PTR [eax+332], 0
	je	$LN15@DisplayFro
	mov	ecx, DWORD PTR _this$[ebp]
	add	ecx, 32336				; 00007e50H
	call	??C?$VuBin@VSimBaseClass@@@@QBEPAVSimBaseClass@@XZ ; VuBin<SimBaseClass>::operator->
	mov	ecx, DWORD PTR [eax+332]
	call	?Label@DrawableBSP@@QAEPADXZ		; DrawableBSP::Label
	movsx	edx, BYTE PTR [eax]
	test	edx, edx
	je	$LN15@DisplayFro

; 1169 : 			{
; 1170 : 				strcpy( tmpStr, CameraLabel[cameraID]);

	movsx	eax, WORD PTR _cameraID$13[ebp]
	imul	eax, 40					; 00000028H
	add	eax, OFFSET ?CameraLabel@@3PAY0CI@DA	; CameraLabel
	push	eax
	push	OFFSET _tmpStr
	call	_strcpy
	add	esp, 8

; 1171 : 				strcat( tmpStr, ": " );

	push	OFFSET ??_C@_02LMMGGCAJ@?3?5?$AA@
	push	OFFSET _tmpStr
	call	_strcat
	add	esp, 8

; 1172 : 				strcat( tmpStr, ((DrawableBSP *)otwPlatform->drawPointer)->Label() );

	mov	ecx, DWORD PTR _this$[ebp]
	add	ecx, 32336				; 00007e50H
	call	??C?$VuBin@VSimBaseClass@@@@QBEPAVSimBaseClass@@XZ ; VuBin<SimBaseClass>::operator->
	mov	ecx, DWORD PTR [eax+332]
	call	?Label@DrawableBSP@@QAEPADXZ		; DrawableBSP::Label
	push	eax
	push	OFFSET _tmpStr
	call	_strcat
	add	esp, 8

; 1173 : 				renderer->TextCenter (0.0F, 0.89F, tmpStr);

	push	0
	push	OFFSET _tmpStr
	push	ecx
	movss	xmm0, DWORD PTR __real@3f63d70a
	movss	DWORD PTR [esp], xmm0
	push	ecx
	movss	xmm0, DWORD PTR __real@00000000
	movss	DWORD PTR [esp], xmm0
	mov	ecx, DWORD PTR _this$[ebp]
	mov	edx, DWORD PTR [ecx+33576]
	mov	eax, DWORD PTR _this$[ebp]
	mov	edx, DWORD PTR [edx]
	mov	ecx, DWORD PTR [eax+33576]
	mov	eax, DWORD PTR [edx+72]
	call	eax

; 1174 : 			}
; 1175 : 			else

	jmp	SHORT $LN14@DisplayFro
$LN15@DisplayFro:

; 1176 : 				renderer->TextCenter (0.0F, 0.89F, CameraLabel[cameraID]);

	push	0
	movsx	ecx, WORD PTR _cameraID$13[ebp]
	imul	ecx, 40					; 00000028H
	add	ecx, OFFSET ?CameraLabel@@3PAY0CI@DA	; CameraLabel
	push	ecx
	push	ecx
	movss	xmm0, DWORD PTR __real@3f63d70a
	movss	DWORD PTR [esp], xmm0
	push	ecx
	movss	xmm0, DWORD PTR __real@00000000
	movss	DWORD PTR [esp], xmm0
	mov	edx, DWORD PTR _this$[ebp]
	mov	eax, DWORD PTR [edx+33576]
	mov	ecx, DWORD PTR _this$[ebp]
	mov	edx, DWORD PTR [eax]
	mov	ecx, DWORD PTR [ecx+33576]
	mov	eax, DWORD PTR [edx+72]
	call	eax
$LN14@DisplayFro:

; 1177 : 		}
; 1178 : 	}		// Retro 16Dec2003
; 1179 : 
; 1180 : 	if (showPos)

	mov	ecx, DWORD PTR _this$[ebp]
	cmp	DWORD PTR [ecx+32180], 0
	je	SHORT $LN13@DisplayFro

; 1181 : 		ShowPosition();

	mov	ecx, DWORD PTR _this$[ebp]
	call	?ShowPosition@OTWDriverClass@@AAEXXZ	; OTWDriverClass::ShowPosition
$LN13@DisplayFro:

; 1182 : 	if (showAero)

	mov	edx, DWORD PTR _this$[ebp]
	cmp	DWORD PTR [edx+32184], 0
	je	SHORT $LN12@DisplayFro

; 1183 : 	    ShowAerodynamics();

	mov	ecx, DWORD PTR _this$[ebp]
	call	?ShowAerodynamics@OTWDriverClass@@AAEXXZ ; OTWDriverClass::ShowAerodynamics
$LN12@DisplayFro:

; 1184 : 	//if (g_bShowFlaps) TJL 11/09/03 Show Flaps
; 1185 : 	if (!showFlaps)

	mov	eax, DWORD PTR _this$[ebp]
	cmp	DWORD PTR [eax+32188], 0
	jne	SHORT $LN11@DisplayFro

; 1186 : 	    ShowFlaps();

	mov	ecx, DWORD PTR _this$[ebp]
	call	?ShowFlaps@OTWDriverClass@@AAEXXZ	; OTWDriverClass::ShowFlaps
$LN11@DisplayFro:

; 1187 : 
; 1188 : 	if (ShowVersion)

	cmp	DWORD PTR ?ShowVersion@@3HA, 0		; ShowVersion
	je	SHORT $LN10@DisplayFro

; 1189 : 		ShowVersionString();

	mov	ecx, DWORD PTR _this$[ebp]
	call	?ShowVersionString@OTWDriverClass@@AAEXXZ ; OTWDriverClass::ShowVersionString
$LN10@DisplayFro:

; 1190 : 
; 1191 : 	if (getNewCameraPos)

	mov	ecx, DWORD PTR _this$[ebp]
	cmp	DWORD PTR [ecx+32196], 0
	je	SHORT $LN9@DisplayFro

; 1192 : 		GetUserPosition();

	mov	ecx, DWORD PTR _this$[ebp]
	call	?GetUserPosition@OTWDriverClass@@AAEXXZ	; OTWDriverClass::GetUserPosition
$LN9@DisplayFro:

; 1193 : 
; 1194 : 	if (showEngine)		// Retro 1Feb2004

	mov	edx, DWORD PTR _this$[ebp]
	cmp	DWORD PTR [edx+32192], 0
	je	SHORT $LN8@DisplayFro

; 1195 : 		ShowEngine();	// Retro 1Feb2004

	mov	ecx, DWORD PTR _this$[ebp]
	call	?ShowEngine@OTWDriverClass@@AAEXXZ	; OTWDriverClass::ShowEngine
$LN8@DisplayFro:

; 1196 : 	
; 1197 : 	// RV - Biker 
; 1198 : 	ShowCatMessage();

	mov	ecx, DWORD PTR _this$[ebp]
	call	?ShowCatMessage@OTWDriverClass@@AAEXXZ	; OTWDriverClass::ShowCatMessage

; 1199 : 
; 1200 : 	if (showThrustReverse)//Cobra

	mov	eax, DWORD PTR _this$[ebp]
	cmp	DWORD PTR [eax+32212], 0
	je	SHORT $LN7@DisplayFro

; 1201 : 		ShowThrustReverse();

	mov	ecx, DWORD PTR _this$[ebp]
	call	?ShowThrustReverse@OTWDriverClass@@AAEXXZ ; OTWDriverClass::ShowThrustReverse
$LN7@DisplayFro:

; 1202 : 
; 1203 : 
; 1204 : 	currentFPS = 1.0F / (float)(frameTime) * 1000.0F;//Cobra

	mov	ecx, DWORD PTR _this$[ebp]
	mov	edx, DWORD PTR [ecx+33420]
	mov	DWORD PTR tv2163[ebp], edx
	cvtsi2sd xmm0, DWORD PTR tv2163[ebp]
	mov	eax, DWORD PTR tv2163[ebp]
	shr	eax, 31					; 0000001fH
	addsd	xmm0, QWORD PTR __xmm@41f00000000000000000000000000000[eax*8]
	movsd	QWORD PTR tv2167[ebp], xmm0
	cvtsd2ss xmm0, QWORD PTR tv2167[ebp]
	movss	xmm1, DWORD PTR __real@3f800000
	divss	xmm1, xmm0
	mulss	xmm1, DWORD PTR __real@447a0000
	mov	ecx, DWORD PTR _this$[ebp]
	movss	DWORD PTR [ecx+32324], xmm1

; 1205 : 
; 1206 : #ifdef SHOW_FRAME_RATE
; 1207 : 	if (ShowFrameRate)
; 1208 : 	{
; 1209 : 
; 1210 : 		if ( gSimTime > gSimTimeMax )
; 1211 : 			gSimTimeMax = gSimTime;
; 1212 : 		if ( gCampTime > gCampTimeMax )
; 1213 : 			gCampTimeMax = gCampTime;
; 1214 : 		if ( gGraphicsTimeLast > gGraphicsTimeLastMax )
; 1215 : 			gGraphicsTimeLastMax = gGraphicsTimeLast;
; 1216 : 
; 1217 : 		renderer->SetColor (0xfff0f0f0); // Keeps this color from randomly changing
; 1218 : 		extern int vuentitycount, vuentitypeak;
; 1219 : 		extern int vumessagecount, vumessagepeakcount;
; 1220 : 		VirtualDisplay::SetFont (2);
; 1221 : 		sprintf (tmpStr, 
; 1222 : 			"FPS %.2f GameTime=%.4f SFX=%3d PObjs=%3d DObjs=%3d Camp T=%2d AVE=%2d MAX=%4d; Sim T=%2d MAX=%4d;"
; 1223 : 			"Graphics T=%2d AVE=%2d MAX=%4d;TrailNodes=%d Voices=%d; Bandwidth=%f",
; 1224 : 			1.0F / (float)(frameTime) * 1000.0F,
; 1225 : 			(float)(vuxGameTime / 1000.0),
; 1226 : 			gTotSfx,
; 1227 : 			numObjsProcessed,
; 1228 : 			numObjsInDrawList,
; 1229 : 			gCampTime,
; 1230 : 			gAveCampTime,
; 1231 : 			gCampTimeMax,
; 1232 : 			gSimTime,
; 1233 : 			gSimTimeMax,
; 1234 : 			gGraphicsTimeLast,
; 1235 : 			gAveSimGraphicsTime,
; 1236 : 			gGraphicsTimeLastMax,
; 1237 : 			gTrailNodeCount,
; 1238 : 			gVoiceCount,
; 1239 : 			0.0f
; 1240 : 		);
; 1241 : 		renderer->TextLeft (-0.95F,  0.95F, tmpStr);
; 1242 : 		static int lastTime = 0;
; 1243 : 		if(lastTime != vuxGameTime )
; 1244 : 		{
; 1245 : 			MonoPrint(tmpStr);
; 1246 : 
; 1247 : 			lastTime = vuxGameTime;
; 1248 : 		}
; 1249 : 		renderer->TextLeft (-0.95F,  0.95F, tmpStr);
; 1250 : 		sprintf (tmpStr, "Textures Terr %4d, far %4d Lods %d LodTex %d, Entities cur %4d max %4d VuMessageCount %4d MAX=%4d",
; 1251 : 		TheTerrTextures.LoadedTextureCount,
; 1252 : 		TheFarTextures.LoadedTextureCount,
; 1253 : 		ObjectLOD::lodsLoaded, TextureBankClass::textureCount,
; 1254 : 		vuentitycount, vuentitypeak,
; 1255 : 		vumessagecount, vumessagepeakcount);
; 1256 : 		renderer->TextLeft (-0.95F,  0.90F, tmpStr);
; 1257 : 		extern int ObjsDeagg,
; 1258 : 								FeatsDeagg,
; 1259 : 								UnitsDeagg,
; 1260 : 								gObjectiveCount,
; 1261 : 								SimFeatures,
; 1262 : 								ObjectNodes,
; 1263 : 								ObjectReferences,
; 1264 : 								gUnitCount;
; 1265 : 		sprintf (tmpStr, "Deagged: Objectives=%5d  Features=%5d - Units %5d",
; 1266 : 						ObjsDeagg,
; 1267 : 						FeatsDeagg,
; 1268 : 						UnitsDeagg
; 1269 : 						);
; 1270 : 		renderer->TextLeft (-0.95F,  0.85F, tmpStr);
; 1271 : 
; 1272 : 		sprintf (tmpStr, "Total:   Objectives=%5d  Features=%5d - Units %5d",
; 1273 : 			gObjectiveCount,
; 1274 : 			SimFeatures,
; 1275 : 			gUnitCount
; 1276 : 			);
; 1277 : 		renderer->TextLeft (-0.95F,  0.80F, tmpStr);
; 1278 : 
; 1279 : 		sprintf (tmpStr, "SimObjectType: Nodes %5d  Referenced %5d",
; 1280 : 			ObjectNodes,
; 1281 : 			ObjectReferences
; 1282 : 			);
; 1283 : 		renderer->TextLeft (-0.95F,  0.75F, tmpStr);
; 1284 : 	}
; 1285 : 	else
; 1286 : 	{
; 1287 : 		gCampTimeMax = 0;
; 1288 : 		gSimTimeMax = 0;
; 1289 : 		gGraphicsTimeLastMax = 0;
; 1290 : 	}
; 1291 : #else
; 1292 : 	if (ShowFrameRate)

	cmp	DWORD PTR ?ShowFrameRate@@3HA, 0	; ShowFrameRate
	je	$LN2@DisplayFro

; 1293 : 	{
; 1294 : 		//Wombat778 3-24-04  Added new FPS counter to actually count the number of frames that occurred in the last second
; 1295 : 		if (g_nNewFPSCounter)			

	cmp	DWORD PTR ?g_nNewFPSCounter@@3HA, 0	; g_nNewFPSCounter
	je	$LN5@DisplayFro

; 1296 : 		{		
; 1297 : 			static float newsecond=0;
; 1298 : 			static int numframes=0;
; 1299 : 			static int lastfps = 0;
; 1300 : 
; 1301 : 			numframes++;

	mov	edx, DWORD PTR ?numframes@?PB@??DisplayFrontText@OTWDriverClass@@QAEXXZ@4HA
	add	edx, 1
	mov	DWORD PTR ?numframes@?PB@??DisplayFrontText@OTWDriverClass@@QAEXXZ@4HA, edx

; 1302 : 			if ((vuxRealTime > newsecond)||(newsecond > vuxRealTime + ( 2000.0f / (float) g_nNewFPSCounter )))

	mov	eax, DWORD PTR ?vuxRealTime@@3KA	; vuxRealTime
	mov	DWORD PTR tv2175[ebp], eax
	cvtsi2sd xmm0, DWORD PTR tv2175[ebp]
	mov	ecx, DWORD PTR tv2175[ebp]
	shr	ecx, 31					; 0000001fH
	addsd	xmm0, QWORD PTR __xmm@41f00000000000000000000000000000[ecx*8]
	movsd	QWORD PTR tv2179[ebp], xmm0
	cvtsd2ss xmm0, QWORD PTR tv2179[ebp]
	comiss	xmm0, DWORD PTR ?newsecond@?PB@??DisplayFrontText@OTWDriverClass@@QAEXXZ@4MA
	ja	SHORT $LN3@DisplayFro
	mov	edx, DWORD PTR ?vuxRealTime@@3KA	; vuxRealTime
	mov	DWORD PTR tv2184[ebp], edx
	cvtsi2sd xmm0, DWORD PTR tv2184[ebp]
	mov	eax, DWORD PTR tv2184[ebp]
	shr	eax, 31					; 0000001fH
	addsd	xmm0, QWORD PTR __xmm@41f00000000000000000000000000000[eax*8]
	movsd	QWORD PTR tv2188[ebp], xmm0
	cvtsd2ss xmm0, QWORD PTR tv2188[ebp]
	cvtsi2ss xmm1, DWORD PTR ?g_nNewFPSCounter@@3HA	; g_nNewFPSCounter
	movss	xmm2, DWORD PTR __real@44fa0000
	divss	xmm2, xmm1
	addss	xmm0, xmm2
	movss	xmm1, DWORD PTR ?newsecond@?PB@??DisplayFrontText@OTWDriverClass@@QAEXXZ@4MA
	comiss	xmm1, xmm0
	jbe	SHORT $LN4@DisplayFro
$LN3@DisplayFro:

; 1303 : 			{
; 1304 : 				newsecond = vuxRealTime + ( 1000.0f / (float) g_nNewFPSCounter );

	mov	ecx, DWORD PTR ?vuxRealTime@@3KA	; vuxRealTime
	mov	DWORD PTR tv2195[ebp], ecx
	cvtsi2sd xmm0, DWORD PTR tv2195[ebp]
	mov	edx, DWORD PTR tv2195[ebp]
	shr	edx, 31					; 0000001fH
	addsd	xmm0, QWORD PTR __xmm@41f00000000000000000000000000000[edx*8]
	movsd	QWORD PTR tv2199[ebp], xmm0
	cvtsd2ss xmm0, QWORD PTR tv2199[ebp]
	cvtsi2ss xmm1, DWORD PTR ?g_nNewFPSCounter@@3HA	; g_nNewFPSCounter
	movss	xmm2, DWORD PTR __real@447a0000
	divss	xmm2, xmm1
	addss	xmm0, xmm2
	movss	DWORD PTR ?newsecond@?PB@??DisplayFrontText@OTWDriverClass@@QAEXXZ@4MA, xmm0

; 1305 : 				lastfps = numframes;

	mov	eax, DWORD PTR ?numframes@?PB@??DisplayFrontText@OTWDriverClass@@QAEXXZ@4HA
	mov	DWORD PTR ?lastfps@?PB@??DisplayFrontText@OTWDriverClass@@QAEXXZ@4HA, eax

; 1306 : 				numframes = 0;

	mov	DWORD PTR ?numframes@?PB@??DisplayFrontText@OTWDriverClass@@QAEXXZ@4HA, 0
$LN4@DisplayFro:

; 1307 : 				
; 1308 : 			}		
; 1309 : 
; 1310 : 			int tmp = lTestFlag1;

	mov	ecx, DWORD PTR ?lTestFlag1@@3HA		; lTestFlag1
	mov	DWORD PTR _tmp$1[ebp], ecx

; 1311 : 
; 1312 : 			renderer->SetColor (0xfff0f0f0); // Keeps this color from randomly changing

	push	-986896					; fff0f0f0H
	mov	edx, DWORD PTR _this$[ebp]
	mov	eax, DWORD PTR [edx+33576]
	mov	ecx, DWORD PTR _this$[ebp]
	mov	edx, DWORD PTR [eax]
	mov	ecx, DWORD PTR [ecx+33576]
	mov	eax, DWORD PTR [edx+92]
	call	eax

; 1313 : 
; 1314 : 			lTestFlag1 = 0;

	mov	DWORD PTR ?lTestFlag1@@3HA, 0		; lTestFlag1

; 1315 : 			// FPS here
; 1316 : 			sprintf (tmpStr, "FPS %5d", lastfps * g_nNewFPSCounter);

	mov	ecx, DWORD PTR ?lastfps@?PB@??DisplayFrontText@OTWDriverClass@@QAEXXZ@4HA
	imul	ecx, DWORD PTR ?g_nNewFPSCounter@@3HA	; g_nNewFPSCounter
	push	ecx
	push	OFFSET ??_C@_07KJPMIBMC@FPS?5?$CF5d?$AA@
	push	OFFSET _tmpStr
	call	_sprintf
	add	esp, 12					; 0000000cH

; 1317 : 			VirtualDisplay::SetFont (2);

	push	2
	call	?SetFont@VirtualDisplay@@SAXH@Z		; VirtualDisplay::SetFont
	add	esp, 4

; 1318 : 			renderer->TextLeft (-0.95F,  0.95F, tmpStr, 2);

	push	2
	push	OFFSET _tmpStr
	push	ecx
	movss	xmm0, DWORD PTR __real@3f733333
	movss	DWORD PTR [esp], xmm0
	push	ecx
	movss	xmm0, DWORD PTR __real@bf733333
	movss	DWORD PTR [esp], xmm0
	mov	edx, DWORD PTR _this$[ebp]
	mov	eax, DWORD PTR [edx+33576]
	mov	ecx, DWORD PTR _this$[ebp]
	mov	edx, DWORD PTR [eax]
	mov	ecx, DWORD PTR [ecx+33576]
	mov	eax, DWORD PTR [edx+56]
	call	eax

; 1319 : 			lTestFlag1 = tmp;

	mov	ecx, DWORD PTR _tmp$1[ebp]
	mov	DWORD PTR ?lTestFlag1@@3HA, ecx		; lTestFlag1

; 1320 : 		}
; 1321 : 		else

	jmp	$LN2@DisplayFro
$LN5@DisplayFro:

; 1322 : 		{
; 1323 : 			int tmp = lTestFlag1;

	mov	edx, DWORD PTR ?lTestFlag1@@3HA		; lTestFlag1
	mov	DWORD PTR _tmp$2[ebp], edx

; 1324 : 
; 1325 : 			renderer->SetColor (0xfff0f0f0); // Keeps this color from randomly changing

	push	-986896					; fff0f0f0H
	mov	eax, DWORD PTR _this$[ebp]
	mov	ecx, DWORD PTR [eax+33576]
	mov	edx, DWORD PTR _this$[ebp]
	mov	eax, DWORD PTR [ecx]
	mov	ecx, DWORD PTR [edx+33576]
	mov	edx, DWORD PTR [eax+92]
	call	edx

; 1326 : 
; 1327 : 			lTestFlag1 = 0;

	mov	DWORD PTR ?lTestFlag1@@3HA, 0		; lTestFlag1

; 1328 : 			sprintf (tmpStr, "FPS %5.1f", 1.0F / (float)(frameTime) * 1000.0F );

	mov	eax, DWORD PTR _this$[ebp]
	mov	ecx, DWORD PTR [eax+33420]
	mov	DWORD PTR tv2224[ebp], ecx
	cvtsi2sd xmm0, DWORD PTR tv2224[ebp]
	mov	edx, DWORD PTR tv2224[ebp]
	shr	edx, 31					; 0000001fH
	addsd	xmm0, QWORD PTR __xmm@41f00000000000000000000000000000[edx*8]
	movsd	QWORD PTR tv2228[ebp], xmm0
	cvtsd2ss xmm0, QWORD PTR tv2228[ebp]
	movss	xmm1, DWORD PTR __real@3f800000
	divss	xmm1, xmm0
	mulss	xmm1, DWORD PTR __real@447a0000
	cvtss2sd xmm0, xmm1
	sub	esp, 8
	movsd	QWORD PTR [esp], xmm0
	push	OFFSET ??_C@_09IBNEFEFJ@FPS?5?$CF5?41f?$AA@
	push	OFFSET _tmpStr
	call	_sprintf
	add	esp, 16					; 00000010H

; 1329 : 			VirtualDisplay::SetFont (2);

	push	2
	call	?SetFont@VirtualDisplay@@SAXH@Z		; VirtualDisplay::SetFont
	add	esp, 4

; 1330 : 			renderer->TextLeft (-0.95F,  0.95F, tmpStr, 2);

	push	2
	push	OFFSET _tmpStr
	push	ecx
	movss	xmm0, DWORD PTR __real@3f733333
	movss	DWORD PTR [esp], xmm0
	push	ecx
	movss	xmm0, DWORD PTR __real@bf733333
	movss	DWORD PTR [esp], xmm0
	mov	eax, DWORD PTR _this$[ebp]
	mov	ecx, DWORD PTR [eax+33576]
	mov	edx, DWORD PTR _this$[ebp]
	mov	eax, DWORD PTR [ecx]
	mov	ecx, DWORD PTR [edx+33576]
	mov	edx, DWORD PTR [eax+56]
	call	edx

; 1331 : 			lTestFlag1 = tmp;

	mov	eax, DWORD PTR _tmp$2[ebp]
	mov	DWORD PTR ?lTestFlag1@@3HA, eax		; lTestFlag1
$LN2@DisplayFro:

; 1332 : 		}
; 1333 : #ifdef	_USE_RED_PROFILER_
; 1334 : 		LIST_PROFILES;
; 1335 : 		char	tmpStr[256];
; 1336 : 		renderer->SetViewport(-1.0, 1.0, 1.0, -1.0);
; 1337 : 		VirtualDisplay::SetFont (2);
; 1338 : 		int	a,y=0;
; 1339 : 		for(a=0; a<MAX_PROFILES; a++){
; 1340 : 			if(REPORT_PROFILE_NR(a, tmpStr))
; 1341 : 				renderer->TextLeft (-0.95F,  0.90F-(float)y++/100*5, tmpStr,2);
; 1342 : 		}
; 1343 : 		y=0;
; 1344 : 		for(a=0; a<MAX_MESSAGES; a++){
; 1345 : 			REPORT_MESSAGE(a, tmpStr);
; 1346 : 			if(tmpStr[0]) renderer->TextRight (0.80F,  0.90F-(float)y++/100*5, tmpStr,2);
; 1347 : 		}
; 1348 : #endif
; 1349 : 	}
; 1350 : #endif
; 1351 : 
; 1352 : 	if (drawSubTitles){

	mov	ecx, DWORD PTR _this$[ebp]
	cmp	DWORD PTR [ecx+33572], 0
	je	SHORT $LN1@DisplayFro

; 1353 : 		// Retro 16Dec2003
; 1354 : 		DrawSubTitles();  // Retro 16Dec2003

	mov	ecx, DWORD PTR _this$[ebp]
	call	?DrawSubTitles@OTWDriverClass@@AAEXXZ	; OTWDriverClass::DrawSubTitles
$LN1@DisplayFro:

; 1355 : 	}
; 1356 : 	
; 1357 : #ifdef Prof_ENABLED
; 1358 : 	DisplayProfilerText();	// Retro 21Dec2003
; 1359 : #endif
; 1360 : 
; 1361 : #ifdef AXISTEST
; 1362 : #pragma message("__________AXISTEST defined, remove before release !__________")
; 1363 : 	DisplayAxisValues();	// Retro 1Jan2004
; 1364 : #endif
; 1365 : 
; 1366 : //	if ((SimDriver.GetPlayerAircraft()) && (SimDriver.GetPlayerAircraft()->IsSetFalcFlag (FEC_INVULNERABLE)) && (vuxRealTime & 0x200))
; 1367 : //	{
; 1368 : //		renderer->SetColor (0xfffefefe); // Keeps this color from randomly changing
; 1369 : //		renderer->TextCenter (0.0F, 0.5F, "Invincible");
; 1370 : //	}
; 1371 : 
; 1372 : //
; 1373 : //
; 1374 : // No more drawing AFTER this
; 1375 : ///////////////////////////////////////////
; 1376 : #ifdef _DO_OWN_START_FRAME_
; 1377 : 	OTWDriver.renderer->EndDraw();

	mov	edx, DWORD PTR ?OTWDriver@@3VOTWDriverClass@@A+33576
	mov	eax, DWORD PTR [edx]
	mov	ecx, DWORD PTR ?OTWDriver@@3VOTWDriverClass@@A+33576
	mov	edx, DWORD PTR [eax+20]
	call	edx

; 1378 : #endif
; 1379 : 	// restore the old viewport
; 1380 : 	OTWDriver.renderer->SetViewport(left, top, right, bottom);

	push	ecx
	movss	xmm0, DWORD PTR _bottom$[ebp]
	movss	DWORD PTR [esp], xmm0
	push	ecx
	movss	xmm0, DWORD PTR _right$[ebp]
	movss	DWORD PTR [esp], xmm0
	push	ecx
	movss	xmm0, DWORD PTR _top$[ebp]
	movss	DWORD PTR [esp], xmm0
	push	ecx
	movss	xmm0, DWORD PTR _left$[ebp]
	movss	DWORD PTR [esp], xmm0
	mov	eax, DWORD PTR ?OTWDriver@@3VOTWDriverClass@@A+33576
	mov	edx, DWORD PTR [eax]
	mov	ecx, DWORD PTR ?OTWDriver@@3VOTWDriverClass@@A+33576
	mov	eax, DWORD PTR [edx+112]
	call	eax

; 1381 : 	VirtualDisplay::SetFont(oldFont);

	mov	ecx, DWORD PTR _oldFont$[ebp]
	push	ecx
	call	?SetFont@VirtualDisplay@@SAXH@Z		; VirtualDisplay::SetFont
	add	esp, 4
$LN162@DisplayFro:

; 1382 : }

	mov	esp, ebp
	pop	ebp
	ret	0
?DisplayFrontText@OTWDriverClass@@QAEXXZ ENDP		; OTWDriverClass::DisplayFrontText
_TEXT	ENDS
; Function compile flags: /Odtp
; File c:\users\zhitao li\documents\visual studio 2012\projects\freefalcon\sim\otwdrive\otwloop.cpp
_TEXT	SEGMENT
tv68 = -8						; size = 4
_this$ = -4						; size = 4
?ToggleProfilerActive@OTWDriverClass@@QAEXXZ PROC	; OTWDriverClass::ToggleProfilerActive
; _this$ = ecx

; 1396 : {

	push	ebp
	mov	ebp, esp
	sub	esp, 8
	mov	DWORD PTR _this$[ebp], ecx

; 1397 : 	ProfilerActive = !ProfilerActive;

	mov	eax, DWORD PTR _this$[ebp]
	movzx	ecx, BYTE PTR [eax+32056]
	test	ecx, ecx
	jne	SHORT $LN3@ToggleProf
	mov	DWORD PTR tv68[ebp], 1
	jmp	SHORT $LN4@ToggleProf
$LN3@ToggleProf:
	mov	DWORD PTR tv68[ebp], 0
$LN4@ToggleProf:
	mov	edx, DWORD PTR _this$[ebp]
	mov	al, BYTE PTR tv68[ebp]
	mov	BYTE PTR [edx+32056], al

; 1398 : }

	mov	esp, ebp
	pop	ebp
	ret	0
?ToggleProfilerActive@OTWDriverClass@@QAEXXZ ENDP	; OTWDriverClass::ToggleProfilerActive
_TEXT	ENDS
; Function compile flags: /Odtp
; File c:\users\zhitao li\documents\visual studio 2012\projects\freefalcon\sim\otwdrive\otwloop.cpp
_TEXT	SEGMENT
tv68 = -8						; size = 4
_this$ = -4						; size = 4
?ToggleProfilerDisplay@OTWDriverClass@@QAEXXZ PROC	; OTWDriverClass::ToggleProfilerDisplay
; _this$ = ecx

; 1388 : {

	push	ebp
	mov	ebp, esp
	sub	esp, 8
	mov	DWORD PTR _this$[ebp], ecx

; 1389 : 	DisplayProfiler = !DisplayProfiler;

	mov	eax, DWORD PTR _this$[ebp]
	movzx	ecx, BYTE PTR [eax+32057]
	test	ecx, ecx
	jne	SHORT $LN3@ToggleProf
	mov	DWORD PTR tv68[ebp], 1
	jmp	SHORT $LN4@ToggleProf
$LN3@ToggleProf:
	mov	DWORD PTR tv68[ebp], 0
$LN4@ToggleProf:
	mov	edx, DWORD PTR _this$[ebp]
	mov	al, BYTE PTR tv68[ebp]
	mov	BYTE PTR [edx+32057], al

; 1390 : }

	mov	esp, ebp
	pop	ebp
	ret	0
?ToggleProfilerDisplay@OTWDriverClass@@QAEXXZ ENDP	; OTWDriverClass::ToggleProfilerDisplay
_TEXT	ENDS
; Function compile flags: /Odtp
; File c:\users\zhitao li\documents\visual studio 2012\projects\freefalcon\sim\otwdrive\otwloop.cpp
_TEXT	SEGMENT
_this$ = -4						; size = 4
?DisplayProfilerText@OTWDriverClass@@AAEXXZ PROC	; OTWDriverClass::DisplayProfilerText
; _this$ = ecx

; 1406 : {

	push	ebp
	mov	ebp, esp
	push	ecx
	mov	DWORD PTR _this$[ebp], ecx

; 1407 : #ifdef Prof_ENABLED	// Retro 15/10/03
; 1408 : 	if (DisplayProfiler)
; 1409 : 	{
; 1410 : 		Prof(DisplayProfilerOutput_Scope);	// Retro 15/10/03
; 1411 : 		
; 1412 : #define MAX_LINE_NUM 35
; 1413 : 
; 1414 : 		char** theReport = Prof_dumpOverlay();
; 1415 : 
; 1416 : 		if (theReport)
; 1417 : 		{
; 1418 : 			int virtualCursor = Prof_get_cursor();
; 1419 : 			renderer->SetColor (0xffff0000); // blue
; 1420 : 
; 1421 : #define XPOS_NAME	-0.95f
; 1422 : #define XPOS_SELF	-0.40f
; 1423 : #define XPOS_HIER	-0.25f
; 1424 : #define XPOS_COUNT	-0.1f
; 1425 : 
; 1426 : #define YPOS_START 0.90f
; 1427 : #define YPOS_DELTA 0.05f
; 1428 : 
; 1429 : 			float xpos = XPOS_NAME;
; 1430 : 			float ypos = YPOS_START;
; 1431 : 
; 1432 : 			// first line is the title, with info about frametime, avg fps etc
; 1433 : 			// second line can be speedstep-like timer warning
; 1434 : 			for (int titleIndex = 0; titleIndex < 2; titleIndex++)
; 1435 : 			{		
; 1436 : 				if (theReport[titleIndex])
; 1437 : 				{
; 1438 : 					renderer->TextLeft (xpos,  ypos, theReport[titleIndex]);
; 1439 : 					ypos -= YPOS_DELTA;
; 1440 : 					free(theReport[titleIndex]);
; 1441 : 					theReport[titleIndex] = 0;
; 1442 : 				}
; 1443 : 			}
; 1444 : 			// Retro 26Dec2003 - fixed display of "speedstep-like timer" warning
; 1445 : 			for (int i = 2; i < (MAX_LINE_NUM*4)+2; i++)
; 1446 : 			{
; 1447 : 				if (theReport[i])
; 1448 : 				{
; 1449 : 					if (i == (virtualCursor*4)+2)
; 1450 : 						renderer->SetColor (0xFF0000FF);		// Retro, red
; 1451 : 
; 1452 : 					switch (i%4)
; 1453 : 					{
; 1454 : 					case 1: xpos = XPOS_COUNT; break;
; 1455 : 					case 2: xpos = XPOS_NAME;	ypos -= YPOS_DELTA; break;
; 1456 : 					case 3: xpos = XPOS_SELF; break;
; 1457 : 					case 0: xpos = XPOS_HIER; break;
; 1458 : 					}
; 1459 : 
; 1460 : 					if (i == (virtualCursor*4)+6)
; 1461 : 						renderer->SetColor (0xffff0000);		// Retro, get back to blue
; 1462 : 
; 1463 : 					renderer->TextLeft (xpos,  ypos, theReport[i]);
; 1464 : 				}
; 1465 : 				free(theReport[i]);
; 1466 : 				theReport[i] = 0;
; 1467 : 			}
; 1468 : 			free(theReport);
; 1469 : 			theReport = 0;
; 1470 : 		}
; 1471 : 	}
; 1472 : #endif	// Prof_ENABLED - Retro 15/10/03
; 1473 : }

	mov	esp, ebp
	pop	ebp
	ret	0
?DisplayProfilerText@OTWDriverClass@@AAEXXZ ENDP	; OTWDriverClass::DisplayProfilerText
_TEXT	ENDS
; Function compile flags: /Odtp
; File c:\users\zhitao li\documents\visual studio 2012\projects\freefalcon\sim\otwdrive\otwloop.cpp
_TEXT	SEGMENT
_this$ = -12						; size = 4
_theLabels$1 = -8					; size = 4
_i$2 = -4						; size = 4
?DrawSubTitles@OTWDriverClass@@AAEXXZ PROC		; OTWDriverClass::DrawSubTitles
; _this$ = ecx

; 675  : {

	push	ebp
	mov	ebp, esp
	sub	esp, 12					; 0000000cH
	mov	DWORD PTR _this$[ebp], ecx

; 676  : 	Prof(DrawSubTitles);
; 677  : 	
; 678  : 	if (radioLabel)

	cmp	DWORD PTR ?radioLabel@@3PAVRadioSubTitle@@A, 0 ; radioLabel
	je	$LN4@DrawSubTit

; 679  : 	{
; 680  : 		ColouredSubTitle** theLabels = radioLabel->GetTimeSortedMessages(vuxGameTime);

	mov	eax, DWORD PTR ?vuxGameTime@@3KA	; vuxGameTime
	push	eax
	mov	ecx, DWORD PTR ?radioLabel@@3PAVRadioSubTitle@@A ; radioLabel
	call	?GetTimeSortedMessages@RadioSubTitle@@QAEPAPAUColouredSubTitle@@K@Z ; RadioSubTitle::GetTimeSortedMessages
	mov	DWORD PTR _theLabels$1[ebp], eax

; 681  : 		if (theLabels)

	cmp	DWORD PTR _theLabels$1[ebp], 0
	je	$LN4@DrawSubTit

; 682  : 		{
; 683  : 			int i = 0;

	mov	DWORD PTR _i$2[ebp], 0
$LN3@DrawSubTit:

; 684  : 			while (theLabels[i])

	mov	ecx, DWORD PTR _i$2[ebp]
	mov	edx, DWORD PTR _theLabels$1[ebp]
	cmp	DWORD PTR [edx+ecx*4], 0
	je	$LN2@DrawSubTit

; 685  : 			{
; 686  : 				if (theLabels[i]->theString)

	mov	eax, DWORD PTR _i$2[ebp]
	mov	ecx, DWORD PTR _theLabels$1[ebp]
	mov	edx, DWORD PTR [ecx+eax*4]
	cmp	DWORD PTR [edx], 0
	je	SHORT $LN1@DrawSubTit

; 687  : 				{
; 688  : 					renderer->SetColor(theLabels[i]->theColour);

	mov	eax, DWORD PTR _i$2[ebp]
	mov	ecx, DWORD PTR _theLabels$1[ebp]
	mov	edx, DWORD PTR [ecx+eax*4]
	mov	eax, DWORD PTR [edx+4]
	push	eax
	mov	ecx, DWORD PTR _this$[ebp]
	mov	edx, DWORD PTR [ecx+33576]
	mov	eax, DWORD PTR _this$[ebp]
	mov	edx, DWORD PTR [edx]
	mov	ecx, DWORD PTR [eax+33576]
	mov	eax, DWORD PTR [edx+92]
	call	eax

; 689  : //					renderer->TextLeft(-0.95F,  (0.90F-i*0.03F), theLabels[i]->theString);
; 690  : 					// Retro 10Jan2004 - lower so that they dont collide with LEF/TEF display
; 691  : 					renderer->TextLeft(-0.95F,  (0.84F-i*0.03F), theLabels[i]->theString);

	push	0
	mov	ecx, DWORD PTR _i$2[ebp]
	mov	edx, DWORD PTR _theLabels$1[ebp]
	mov	eax, DWORD PTR [edx+ecx*4]
	mov	ecx, DWORD PTR [eax]
	push	ecx
	cvtsi2ss xmm0, DWORD PTR _i$2[ebp]
	mulss	xmm0, DWORD PTR __real@3cf5c28f
	movss	xmm1, DWORD PTR __real@3f570a3d
	subss	xmm1, xmm0
	push	ecx
	movss	DWORD PTR [esp], xmm1
	push	ecx
	movss	xmm0, DWORD PTR __real@bf733333
	movss	DWORD PTR [esp], xmm0
	mov	edx, DWORD PTR _this$[ebp]
	mov	eax, DWORD PTR [edx+33576]
	mov	ecx, DWORD PTR _this$[ebp]
	mov	edx, DWORD PTR [eax]
	mov	ecx, DWORD PTR [ecx+33576]
	mov	eax, DWORD PTR [edx+56]
	call	eax
$LN1@DrawSubTit:

; 692  : 				}
; 693  : 				free(theLabels[i]);

	mov	ecx, DWORD PTR _i$2[ebp]
	mov	edx, DWORD PTR _theLabels$1[ebp]
	mov	eax, DWORD PTR [edx+ecx*4]
	push	eax
	call	_free
	add	esp, 4

; 694  : 				theLabels[i] = 0;

	mov	ecx, DWORD PTR _i$2[ebp]
	mov	edx, DWORD PTR _theLabels$1[ebp]
	mov	DWORD PTR [edx+ecx*4], 0

; 695  : 				i++;

	mov	eax, DWORD PTR _i$2[ebp]
	add	eax, 1
	mov	DWORD PTR _i$2[ebp], eax

; 696  : 			}

	jmp	$LN3@DrawSubTit
$LN2@DrawSubTit:

; 697  : 			free(theLabels);

	mov	ecx, DWORD PTR _theLabels$1[ebp]
	push	ecx
	call	_free
	add	esp, 4

; 698  : 			theLabels = 0;

	mov	DWORD PTR _theLabels$1[ebp], 0
$LN4@DrawSubTit:

; 699  : 		}
; 700  : 	}
; 701  : }	// Retro radio label end

	mov	esp, ebp
	pop	ebp
	ret	0
?DrawSubTitles@OTWDriverClass@@AAEXXZ ENDP		; OTWDriverClass::DrawSubTitles
_TEXT	ENDS
; Function compile flags: /Odtp
; File c:\users\zhitao li\documents\visual studio 2012\projects\freefalcon\sim\otwdrive\otwloop.cpp
_TEXT	SEGMENT
tv531 = -380						; size = 4
tv651 = -376						; size = 4
_mover$1 = -372						; size = 4
tv680 = -368						; size = 4
tv731 = -364						; size = 4
tv716 = -360						; size = 4
tv625 = -356						; size = 4
tv255 = -352						; size = 4
tv369 = -348						; size = 4
tv323 = -344						; size = 4
_tmpMode$2 = -340					; size = 4
tv403 = -336						; size = 4
tv268 = -332						; size = 4
_mi$3 = -328						; size = 4
_theYaw$4 = -324					; size = 4
_ac$5 = -320						; size = 4
_halfHeight$ = -316					; size = 4
_i$6 = -312						; size = 4
_halfWidth$ = -308					; size = 4
_fvalue$7 = -304					; size = 4
_cameraID$ = -300					; size = 2
_this$ = -296						; size = 4
_tmpo$8 = -292						; size = 256
_tmp$9 = -36						; size = 30
__$ArrayPad$ = -4					; size = 4
?DisplayInfoBar@OTWDriverClass@@AAEXXZ PROC		; OTWDriverClass::DisplayInfoBar
; _this$ = ecx

; 518  : {

	push	ebp
	mov	ebp, esp
	sub	esp, 380				; 0000017cH
	mov	eax, DWORD PTR ___security_cookie
	xor	eax, ebp
	mov	DWORD PTR __$ArrayPad$[ebp], eax
	mov	DWORD PTR _this$[ebp], ecx

; 519  : 	Prof(DisplayInfoBar);
; 520  : 	// Center Box on screen (Will ALWAYS be same size (in pixels w,h) regardless of screen resolution)
; 521  : 	// BASICALLY, put centerX,centerY at the centerpoint of where you want the box to draw
; 522  : 	float halfHeight = OTWDriver.renderer->TextHeight() * 1.5F;

	mov	eax, DWORD PTR ?OTWDriver@@3VOTWDriverClass@@A+33576
	mov	edx, DWORD PTR [eax]
	mov	ecx, DWORD PTR ?OTWDriver@@3VOTWDriverClass@@A+33576
	mov	eax, DWORD PTR [edx+88]
	call	eax
	fstp	DWORD PTR tv531[ebp]
	movss	xmm0, DWORD PTR tv531[ebp]
	mulss	xmm0, DWORD PTR __real@3fc00000
	movss	DWORD PTR _halfHeight$[ebp], xmm0

; 523  : 	float halfWidth = 1.F;

	movss	xmm0, DWORD PTR __real@3f800000
	movss	DWORD PTR _halfWidth$[ebp], xmm0

; 524  : 
; 525  : 	OTWDriver.renderer->CenterOriginInViewport();				//Wombat778 4-10-04

	mov	ecx, DWORD PTR ?OTWDriver@@3VOTWDriverClass@@A+33576
	call	?CenterOriginInViewport@VirtualDisplay@@QAEXXZ ; VirtualDisplay::CenterOriginInViewport

; 526  : 	OTWDriver.renderer->SetColor( 0x997B5200 );  				// 60% alpha blue

	push	-1719971328				; 997b5200H
	mov	ecx, DWORD PTR ?OTWDriver@@3VOTWDriverClass@@A+33576
	mov	edx, DWORD PTR [ecx]
	mov	ecx, DWORD PTR ?OTWDriver@@3VOTWDriverClass@@A+33576
	mov	eax, DWORD PTR [edx+92]
	call	eax

; 527  : 	OTWDriver.renderer->context.RestoreState( STATE_ALPHA_SOLID );

	push	16					; 00000010H
	mov	ecx, DWORD PTR ?OTWDriver@@3VOTWDriverClass@@A+33576
	add	ecx, 100				; 00000064H
	call	?RestoreState@ContextMPR@@QAEXH@Z	; ContextMPR::RestoreState

; 528  : 
; 529  : 	OTWDriver.renderer->Tri(-halfWidth, -1.F,
; 530  : 							halfWidth, -1.F,
; 531  : 							halfWidth,  -1.F+halfHeight);

	movss	xmm0, DWORD PTR __real@bf800000
	addss	xmm0, DWORD PTR _halfHeight$[ebp]
	push	ecx
	movss	DWORD PTR [esp], xmm0
	push	ecx
	movss	xmm0, DWORD PTR _halfWidth$[ebp]
	movss	DWORD PTR [esp], xmm0
	push	ecx
	movss	xmm0, DWORD PTR __real@bf800000
	movss	DWORD PTR [esp], xmm0
	push	ecx
	movss	xmm0, DWORD PTR _halfWidth$[ebp]
	movss	DWORD PTR [esp], xmm0
	push	ecx
	movss	xmm0, DWORD PTR __real@bf800000
	movss	DWORD PTR [esp], xmm0
	movss	xmm0, DWORD PTR _halfWidth$[ebp]
	xorps	xmm0, DWORD PTR __xmm@80000000800000008000000080000000
	push	ecx
	movss	DWORD PTR [esp], xmm0
	mov	ecx, DWORD PTR ?OTWDriver@@3VOTWDriverClass@@A+33576
	mov	edx, DWORD PTR [ecx]
	mov	ecx, DWORD PTR ?OTWDriver@@3VOTWDriverClass@@A+33576
	mov	eax, DWORD PTR [edx+36]
	call	eax

; 532  : 	OTWDriver.renderer->Tri(-halfWidth, -1.F,
; 533  : 		                    -halfWidth,  -1.F+halfHeight,
; 534  : 							 halfWidth,  -1.F+halfHeight);

	movss	xmm0, DWORD PTR __real@bf800000
	addss	xmm0, DWORD PTR _halfHeight$[ebp]
	push	ecx
	movss	DWORD PTR [esp], xmm0
	push	ecx
	movss	xmm0, DWORD PTR _halfWidth$[ebp]
	movss	DWORD PTR [esp], xmm0
	movss	xmm0, DWORD PTR __real@bf800000
	addss	xmm0, DWORD PTR _halfHeight$[ebp]
	push	ecx
	movss	DWORD PTR [esp], xmm0
	movss	xmm0, DWORD PTR _halfWidth$[ebp]
	xorps	xmm0, DWORD PTR __xmm@80000000800000008000000080000000
	push	ecx
	movss	DWORD PTR [esp], xmm0
	push	ecx
	movss	xmm0, DWORD PTR __real@bf800000
	movss	DWORD PTR [esp], xmm0
	movss	xmm0, DWORD PTR _halfWidth$[ebp]
	xorps	xmm0, DWORD PTR __xmm@80000000800000008000000080000000
	push	ecx
	movss	DWORD PTR [esp], xmm0
	mov	ecx, DWORD PTR ?OTWDriver@@3VOTWDriverClass@@A+33576
	mov	edx, DWORD PTR [ecx]
	mov	ecx, DWORD PTR ?OTWDriver@@3VOTWDriverClass@@A+33576
	mov	eax, DWORD PTR [edx+36]
	call	eax

; 535  : 
; 536  : 	// Outline Translucent BLUE box
; 537  : 	OTWDriver.renderer->SetColor( 0xFF000000 );  				// black

	push	-16777216				; ff000000H
	mov	ecx, DWORD PTR ?OTWDriver@@3VOTWDriverClass@@A+33576
	mov	edx, DWORD PTR [ecx]
	mov	ecx, DWORD PTR ?OTWDriver@@3VOTWDriverClass@@A+33576
	mov	eax, DWORD PTR [edx+92]
	call	eax

; 538  : 
; 539  : 	OTWDriver.renderer->Line( halfWidth,	-1.F+halfHeight,-halfWidth,	-1.F+halfHeight);

	movss	xmm0, DWORD PTR __real@bf800000
	addss	xmm0, DWORD PTR _halfHeight$[ebp]
	push	ecx
	movss	DWORD PTR [esp], xmm0
	movss	xmm0, DWORD PTR _halfWidth$[ebp]
	xorps	xmm0, DWORD PTR __xmm@80000000800000008000000080000000
	push	ecx
	movss	DWORD PTR [esp], xmm0
	movss	xmm0, DWORD PTR __real@bf800000
	addss	xmm0, DWORD PTR _halfHeight$[ebp]
	push	ecx
	movss	DWORD PTR [esp], xmm0
	push	ecx
	movss	xmm0, DWORD PTR _halfWidth$[ebp]
	movss	DWORD PTR [esp], xmm0
	mov	ecx, DWORD PTR ?OTWDriver@@3VOTWDriverClass@@A+33576
	mov	edx, DWORD PTR [ecx]
	mov	ecx, DWORD PTR ?OTWDriver@@3VOTWDriverClass@@A+33576
	mov	eax, DWORD PTR [edx+32]
	call	eax

; 540  : 
; 541  : 	short cameraID=0;

	xor	ecx, ecx
	mov	WORD PTR _cameraID$[ebp], cx

; 542  : 
; 543  : 	renderer->SetColor (0xff00ff00);	// green

	push	-16711936				; ff00ff00H
	mov	edx, DWORD PTR _this$[ebp]
	mov	eax, DWORD PTR [edx+33576]
	mov	ecx, DWORD PTR _this$[ebp]
	mov	edx, DWORD PTR [eax]
	mov	ecx, DWORD PTR [ecx+33576]
	mov	eax, DWORD PTR [edx+92]
	call	eax

; 544  : 
; 545  : 	if (actionCameraMode)

	mov	ecx, DWORD PTR _this$[ebp]
	cmp	DWORD PTR [ecx+33556], 0
	je	SHORT $LN17@DisplayInf

; 546  : 	{
; 547  : 		cameraID = ACTION_CAMERA;

	mov	edx, 13					; 0000000dH
	mov	WORD PTR _cameraID$[ebp], dx

; 548  : 	}
; 549  : 	else

	jmp	$LN13@DisplayInf
$LN17@DisplayInf:

; 550  : 	{
; 551  : 		OTWDisplayMode tmpMode = GetOTWDisplayMode();

	mov	ecx, DWORD PTR _this$[ebp]
	call	?GetOTWDisplayMode@OTWDriverClass@@QAE?AW4OTWDisplayMode@1@XZ ; OTWDriverClass::GetOTWDisplayMode
	mov	DWORD PTR _tmpMode$2[ebp], eax

; 552  : 		for (int i = 0; i < ModeTableSize; i++)

	mov	DWORD PTR _i$6[ebp], 0
	jmp	SHORT $LN15@DisplayInf
$LN14@DisplayInf:
	mov	eax, DWORD PTR _i$6[ebp]
	add	eax, 1
	mov	DWORD PTR _i$6[ebp], eax
$LN15@DisplayInf:
	mov	ecx, DWORD PTR _i$6[ebp]
	cmp	ecx, DWORD PTR ?ModeTableSize@@3HA	; ModeTableSize
	jge	SHORT $LN13@DisplayInf

; 553  : 		{
; 554  : 			if (theModeTable[i].theMode == tmpMode)

	mov	edx, DWORD PTR _i$6[ebp]
	mov	eax, DWORD PTR _theModeTable[edx*8]
	cmp	eax, DWORD PTR _tmpMode$2[ebp]
	jne	SHORT $LN12@DisplayInf

; 555  : 			{
; 556  : 				if (tmpMode != ModeChase)

	cmp	DWORD PTR _tmpMode$2[ebp], 7
	je	SHORT $LN11@DisplayInf

; 557  : 					cameraID = theModeTable[i].theCamID;

	mov	ecx, DWORD PTR _i$6[ebp]
	mov	dx, WORD PTR _theModeTable[ecx*8+4]
	mov	WORD PTR _cameraID$[ebp], dx

; 558  : 				else

	jmp	SHORT $LN8@DisplayInf
$LN11@DisplayInf:

; 559  : 				{
; 560  : 					if (flybyTimer)

	mov	eax, DWORD PTR _this$[ebp]
	cmp	DWORD PTR [eax+33544], 0
	je	SHORT $LN9@DisplayInf

; 561  : 						cameraID = FLY_BY_CAMERA;

	xor	ecx, ecx
	mov	WORD PTR _cameraID$[ebp], cx

; 562  : 					else

	jmp	SHORT $LN8@DisplayInf
$LN9@DisplayInf:

; 563  : 						cameraID = CHASE_CAMERA;

	mov	edx, 1
	mov	WORD PTR _cameraID$[ebp], dx
$LN8@DisplayInf:

; 564  : 				}
; 565  : 				break;

	jmp	SHORT $LN13@DisplayInf
$LN12@DisplayInf:

; 566  : 			}
; 567  : 		}

	jmp	SHORT $LN14@DisplayInf
$LN13@DisplayInf:

; 568  : 	}
; 569  : 
; 570  : 	// put a line telling what the camera focus is (label)
; 571  : 	if ( (otwPlatform.get() != NULL) &&
; 572  : 		 otwPlatform->drawPointer &&
; 573  : 		 *((DrawableBSP *)otwPlatform->drawPointer)->Label() 
; 574  : 	)

	mov	ecx, DWORD PTR _this$[ebp]
	add	ecx, 32336				; 00007e50H
	call	?get@?$VuBin@VSimBaseClass@@@@QBEPAVSimBaseClass@@XZ ; VuBin<SimBaseClass>::get
	test	eax, eax
	je	$LN7@DisplayInf
	mov	ecx, DWORD PTR _this$[ebp]
	add	ecx, 32336				; 00007e50H
	call	??C?$VuBin@VSimBaseClass@@@@QBEPAVSimBaseClass@@XZ ; VuBin<SimBaseClass>::operator->
	cmp	DWORD PTR [eax+332], 0
	je	$LN7@DisplayInf
	mov	ecx, DWORD PTR _this$[ebp]
	add	ecx, 32336				; 00007e50H
	call	??C?$VuBin@VSimBaseClass@@@@QBEPAVSimBaseClass@@XZ ; VuBin<SimBaseClass>::operator->
	mov	ecx, DWORD PTR [eax+332]
	call	?Label@DrawableBSP@@QAEPADXZ		; DrawableBSP::Label
	movsx	eax, BYTE PTR [eax]
	test	eax, eax
	je	$LN7@DisplayInf

; 575  : 	{
; 576  : 		// avg length of the below string is 120 chars.. so no sweat, cept maybe for null-pointers ?
; 577  : 		#define LOCAL_STRING_LENGTH 256	
; 578  : 		char tmpo[LOCAL_STRING_LENGTH];
; 579  : 		// callsign
; 580  : 		strcpy( tmpo, CameraLabel[cameraID]);

	movsx	ecx, WORD PTR _cameraID$[ebp]
	imul	ecx, 40					; 00000028H
	add	ecx, OFFSET ?CameraLabel@@3PAY0CI@DA	; CameraLabel
	push	ecx
	lea	edx, DWORD PTR _tmpo$8[ebp]
	push	edx
	call	_strcpy
	add	esp, 8

; 581  : 		strcat( tmpo, ": " );

	push	OFFSET ??_C@_02LMMGGCAJ@?3?5?$AA@
	lea	eax, DWORD PTR _tmpo$8[ebp]
	push	eax
	call	_strcat
	add	esp, 8

; 582  : 		strcat( tmpo, ((DrawableBSP *)otwPlatform->drawPointer)->Label() );

	mov	ecx, DWORD PTR _this$[ebp]
	add	ecx, 32336				; 00007e50H
	call	??C?$VuBin@VSimBaseClass@@@@QBEPAVSimBaseClass@@XZ ; VuBin<SimBaseClass>::operator->
	mov	ecx, DWORD PTR [eax+332]
	call	?Label@DrawableBSP@@QAEPADXZ		; DrawableBSP::Label
	push	eax
	lea	ecx, DWORD PTR _tmpo$8[ebp]
	push	ecx
	call	_strcat
	add	esp, 8

; 583  : 
; 584  : 		// 2 issues here:
; 585  : 		//	a) string could be longer as the locally allocated one (bad thing (tm)) - however thats unlikely, see above
; 586  : 		//	b) string could be longer than physical screen size.. falcon then displays nothing.. also a bit suboptimal..
; 587  : 		// solution for b) need to get renderer->TextWidth() working, if it is >1 then we dont add a chunk.. or so..
; 588  : 		if ((!otwPlatform->IsGroundVehicle())&&(!otwPlatform->IsBomb()))

	mov	ecx, DWORD PTR _this$[ebp]
	add	ecx, 32336				; 00007e50H
	call	??C?$VuBin@VSimBaseClass@@@@QBEPAVSimBaseClass@@XZ ; VuBin<SimBaseClass>::operator->
	mov	DWORD PTR tv255[ebp], eax
	mov	edx, DWORD PTR tv255[ebp]
	mov	eax, DWORD PTR [edx]
	mov	ecx, DWORD PTR tv255[ebp]
	mov	edx, DWORD PTR [eax+196]
	call	edx
	test	eax, eax
	jne	$LN2@DisplayInf
	mov	ecx, DWORD PTR _this$[ebp]
	add	ecx, 32336				; 00007e50H
	call	??C?$VuBin@VSimBaseClass@@@@QBEPAVSimBaseClass@@XZ ; VuBin<SimBaseClass>::operator->
	mov	DWORD PTR tv268[ebp], eax
	mov	eax, DWORD PTR tv268[ebp]
	mov	edx, DWORD PTR [eax]
	mov	ecx, DWORD PTR tv268[ebp]
	mov	eax, DWORD PTR [edx+164]
	call	eax
	test	eax, eax
	jne	$LN2@DisplayInf

; 589  : 		{
; 590  : 			char tmp[30];
; 591  : 
; 592  : 			strcat( tmpo," - heading: " );

	push	OFFSET ??_C@_0N@OHPLPDBF@?5?9?5heading?3?5?$AA@
	lea	ecx, DWORD PTR _tmpo$8[ebp]
	push	ecx
	call	_strcat
	add	esp, 8

; 593  : 
; 594  : 			// heading
; 595  : 			SimMoverClass *mover = static_cast<SimMoverClass*>(otwPlatform.get());

	mov	ecx, DWORD PTR _this$[ebp]
	add	ecx, 32336				; 00007e50H
	call	?get@?$VuBin@VSimBaseClass@@@@QBEPAVSimBaseClass@@XZ ; VuBin<SimBaseClass>::get
	mov	DWORD PTR _mover$1[ebp], eax

; 596  : 			float theYaw = mover->Yaw()*RTD;

	mov	ecx, DWORD PTR _mover$1[ebp]
	call	?Yaw@VuEntity@@QBEMXZ			; VuEntity::Yaw
	fstp	DWORD PTR tv625[ebp]
	movss	xmm0, DWORD PTR tv625[ebp]
	mulss	xmm0, DWORD PTR __real@42652ee1
	movss	DWORD PTR _theYaw$4[ebp], xmm0

; 597  : 			if (theYaw < 0){

	movss	xmm0, DWORD PTR __real@00000000
	comiss	xmm0, DWORD PTR _theYaw$4[ebp]
	jbe	SHORT $LN5@DisplayInf

; 598  : 				theYaw += 360.F;

	movss	xmm0, DWORD PTR _theYaw$4[ebp]
	addss	xmm0, DWORD PTR __real@43b40000
	movss	DWORD PTR _theYaw$4[ebp], xmm0
$LN5@DisplayInf:

; 599  : 			}
; 600  : 
; 601  : 			sprintf(tmp,"%3.i",(int)theYaw);

	cvttss2si edx, DWORD PTR _theYaw$4[ebp]
	push	edx
	push	OFFSET ??_C@_04FEIOEENN@?$CF3?4i?$AA@
	lea	eax, DWORD PTR _tmp$9[ebp]
	push	eax
	call	_sprintf
	add	esp, 12					; 0000000cH

; 602  : 			strcat( tmpo,tmp);

	lea	ecx, DWORD PTR _tmp$9[ebp]
	push	ecx
	lea	edx, DWORD PTR _tmpo$8[ebp]
	push	edx
	call	_strcat
	add	esp, 8

; 603  : 			strcat( tmpo, " degrees, alt: ");

	push	OFFSET ??_C@_0BA@GPOLMDJ@?5degrees?0?5alt?3?5?$AA@
	lea	eax, DWORD PTR _tmpo$8[ebp]
	push	eax
	call	_strcat
	add	esp, 8

; 604  : 
; 605  : 			// height
; 606  : 			sprintf(tmp,"%5.i",(DrawableBSP*)otwPlatform->GetAltitude());

	mov	ecx, DWORD PTR _this$[ebp]
	add	ecx, 32336				; 00007e50H
	call	??C?$VuBin@VSimBaseClass@@@@QBEPAVSimBaseClass@@XZ ; VuBin<SimBaseClass>::operator->
	mov	ecx, eax
	call	?GetAltitude@FalconEntity@@QBEHXZ	; FalconEntity::GetAltitude
	push	eax
	push	OFFSET ??_C@_04HBOFBLAB@?$CF5?4i?$AA@
	lea	ecx, DWORD PTR _tmp$9[ebp]
	push	ecx
	call	_sprintf
	add	esp, 12					; 0000000cH

; 607  : 			strcat( tmpo,tmp);

	lea	edx, DWORD PTR _tmp$9[ebp]
	push	edx
	lea	eax, DWORD PTR _tmpo$8[ebp]
	push	eax
	call	_strcat
	add	esp, 8

; 608  : 			strcat( tmpo, " ft (BARO), speed: " );

	push	OFFSET ??_C@_0BE@OEACJCJD@?5ft?5?$CIBARO?$CJ?0?5speed?3?5?$AA@
	lea	ecx, DWORD PTR _tmpo$8[ebp]
	push	ecx
	call	_strcat
	add	esp, 8

; 609  : 
; 610  : 			float fvalue;
; 611  : 			// speed
; 612  : 			if (otwPlatform->IsMissile())

	mov	ecx, DWORD PTR _this$[ebp]
	add	ecx, 32336				; 00007e50H
	call	??C?$VuBin@VSimBaseClass@@@@QBEPAVSimBaseClass@@XZ ; VuBin<SimBaseClass>::operator->
	mov	DWORD PTR tv323[ebp], eax
	mov	edx, DWORD PTR tv323[ebp]
	mov	eax, DWORD PTR [edx]
	mov	ecx, DWORD PTR tv323[ebp]
	mov	edx, DWORD PTR [eax+156]
	call	edx
	test	eax, eax
	je	$LN4@DisplayInf

; 613  : 			{
; 614  : 				MissileClass *mi = static_cast<MissileClass*>(otwPlatform.get());

	mov	ecx, DWORD PTR _this$[ebp]
	add	ecx, 32336				; 00007e50H
	call	?get@?$VuBin@VSimBaseClass@@@@QBEPAVSimBaseClass@@XZ ; VuBin<SimBaseClass>::get
	mov	DWORD PTR _mi$3[ebp], eax

; 615  : 				fvalue = mi->GetVt() * FTPSEC_TO_KNOTS;

	mov	eax, DWORD PTR _mi$3[ebp]
	mov	edx, DWORD PTR [eax]
	mov	ecx, DWORD PTR _mi$3[ebp]
	mov	eax, DWORD PTR [edx+220]
	call	eax
	fstp	DWORD PTR tv651[ebp]
	movss	xmm0, DWORD PTR tv651[ebp]
	mulss	xmm0, DWORD PTR __real@3f17ac60
	movss	DWORD PTR _fvalue$7[ebp], xmm0

; 616  : 				sprintf(tmp,"%4.f",fvalue);

	cvtss2sd xmm0, DWORD PTR _fvalue$7[ebp]
	sub	esp, 8
	movsd	QWORD PTR [esp], xmm0
	push	OFFSET ??_C@_04EOMBGAKL@?$CF4?4f?$AA@
	lea	ecx, DWORD PTR _tmp$9[ebp]
	push	ecx
	call	_sprintf
	add	esp, 16					; 00000010H

; 617  : 				strcat( tmpo,tmp);

	lea	edx, DWORD PTR _tmp$9[ebp]
	push	edx
	lea	eax, DWORD PTR _tmpo$8[ebp]
	push	eax
	call	_strcat
	add	esp, 8

; 618  : 				strcat( tmpo, " kts (GS), aoa: ");

	push	OFFSET ??_C@_0BB@MJAKPGJL@?5kts?5?$CIGS?$CJ?0?5aoa?3?5?$AA@
	lea	ecx, DWORD PTR _tmpo$8[ebp]
	push	ecx
	call	_strcat
	add	esp, 8

; 619  : 
; 620  : 				fvalue = mi->alpha;

	mov	edx, DWORD PTR _mi$3[ebp]
	movss	xmm0, DWORD PTR [edx+744]
	movss	DWORD PTR _fvalue$7[ebp], xmm0

; 621  : 				sprintf(tmp,"%+3.1f",fvalue);

	cvtss2sd xmm0, DWORD PTR _fvalue$7[ebp]
	sub	esp, 8
	movsd	QWORD PTR [esp], xmm0
	push	OFFSET ??_C@_06CCBPJKJC@?$CF?$CL3?41f?$AA@
	lea	eax, DWORD PTR _tmp$9[ebp]
	push	eax
	call	_sprintf
	add	esp, 16					; 00000010H

; 622  : 				strcat( tmpo,tmp);

	lea	ecx, DWORD PTR _tmp$9[ebp]
	push	ecx
	lea	edx, DWORD PTR _tmpo$8[ebp]
	push	edx
	call	_strcat
	add	esp, 8

; 623  : 				strcat( tmpo, " degrees");

	push	OFFSET ??_C@_08MGDNAMHD@?5degrees?$AA@
	lea	eax, DWORD PTR _tmpo$8[ebp]
	push	eax
	call	_strcat
	add	esp, 8

; 624  : 			}
; 625  : 			else

	jmp	SHORT $LN3@DisplayInf
$LN4@DisplayInf:

; 626  : 			{
; 627  : 				fvalue = otwPlatform->GetKias();

	mov	ecx, DWORD PTR _this$[ebp]
	add	ecx, 32336				; 00007e50H
	call	??C?$VuBin@VSimBaseClass@@@@QBEPAVSimBaseClass@@XZ ; VuBin<SimBaseClass>::operator->
	mov	DWORD PTR tv369[ebp], eax
	mov	ecx, DWORD PTR tv369[ebp]
	mov	edx, DWORD PTR [ecx]
	mov	ecx, DWORD PTR tv369[ebp]
	mov	eax, DWORD PTR [edx+224]
	call	eax
	fstp	DWORD PTR _fvalue$7[ebp]

; 628  : 				sprintf(tmp,"%4.f",fvalue);

	cvtss2sd xmm0, DWORD PTR _fvalue$7[ebp]
	sub	esp, 8
	movsd	QWORD PTR [esp], xmm0
	push	OFFSET ??_C@_04EOMBGAKL@?$CF4?4f?$AA@
	lea	ecx, DWORD PTR _tmp$9[ebp]
	push	ecx
	call	_sprintf
	add	esp, 16					; 00000010H

; 629  : 				strcat( tmpo,tmp);

	lea	edx, DWORD PTR _tmp$9[ebp]
	push	edx
	lea	eax, DWORD PTR _tmpo$8[ebp]
	push	eax
	call	_strcat
	add	esp, 8

; 630  : 				strcat( tmpo, " kts (IAS)");

	push	OFFSET ??_C@_0L@MMMGIOEM@?5kts?5?$CIIAS?$CJ?$AA@
	lea	ecx, DWORD PTR _tmpo$8[ebp]
	push	ecx
	call	_strcat
	add	esp, 8
$LN3@DisplayInf:

; 631  : 			}
; 632  : 
; 633  : 			// power
; 634  : 			sprintf(tmp,", power: %3.f",otwPlatform->PowerOutput()*100.F);

	mov	ecx, DWORD PTR _this$[ebp]
	add	ecx, 32336				; 00007e50H
	call	??C?$VuBin@VSimBaseClass@@@@QBEPAVSimBaseClass@@XZ ; VuBin<SimBaseClass>::operator->
	mov	ecx, eax
	call	?PowerOutput@SimBaseClass@@QAEMXZ	; SimBaseClass::PowerOutput
	fstp	DWORD PTR tv680[ebp]
	movss	xmm0, DWORD PTR tv680[ebp]
	mulss	xmm0, DWORD PTR __real@42c80000
	cvtss2sd xmm0, xmm0
	sub	esp, 8
	movsd	QWORD PTR [esp], xmm0
	push	OFFSET ??_C@_0O@JAKNKEAP@?0?5power?3?5?$CF3?4f?$AA@
	lea	edx, DWORD PTR _tmp$9[ebp]
	push	edx
	call	_sprintf
	add	esp, 16					; 00000010H

; 635  : 			strcat( tmpo,tmp);

	lea	eax, DWORD PTR _tmp$9[ebp]
	push	eax
	lea	ecx, DWORD PTR _tmpo$8[ebp]
	push	ecx
	call	_strcat
	add	esp, 8

; 636  : 			strcat( tmpo, " percent" );

	push	OFFSET ??_C@_08HDEDGHJO@?5percent?$AA@
	lea	edx, DWORD PTR _tmpo$8[ebp]
	push	edx
	call	_strcat
	add	esp, 8

; 637  : 
; 638  : 			// G forces, only for ac
; 639  : 			if (otwPlatform->IsAirplane()){

	mov	ecx, DWORD PTR _this$[ebp]
	add	ecx, 32336				; 00007e50H
	call	??C?$VuBin@VSimBaseClass@@@@QBEPAVSimBaseClass@@XZ ; VuBin<SimBaseClass>::operator->
	mov	DWORD PTR tv403[ebp], eax
	mov	eax, DWORD PTR tv403[ebp]
	mov	edx, DWORD PTR [eax]
	mov	ecx, DWORD PTR tv403[ebp]
	mov	eax, DWORD PTR [edx+192]
	call	eax
	test	eax, eax
	je	$LN2@DisplayInf

; 640  : 				AircraftClass *ac = static_cast<AircraftClass*>(otwPlatform.get());

	mov	ecx, DWORD PTR _this$[ebp]
	add	ecx, 32336				; 00007e50H
	call	?get@?$VuBin@VSimBaseClass@@@@QBEPAVSimBaseClass@@XZ ; VuBin<SimBaseClass>::get
	mov	DWORD PTR _ac$5[ebp], eax

; 641  : 				fvalue = ac->GetNz();

	mov	ecx, DWORD PTR _ac$5[ebp]
	mov	edx, DWORD PTR [ecx]
	mov	ecx, DWORD PTR _ac$5[ebp]
	mov	eax, DWORD PTR [edx+424]
	call	eax
	fstp	DWORD PTR _fvalue$7[ebp]

; 642  : 				sprintf(tmp,", %2.1f",fvalue);

	cvtss2sd xmm0, DWORD PTR _fvalue$7[ebp]
	sub	esp, 8
	movsd	QWORD PTR [esp], xmm0
	push	OFFSET ??_C@_07CBNKIKPL@?0?5?$CF2?41f?$AA@
	lea	ecx, DWORD PTR _tmp$9[ebp]
	push	ecx
	call	_sprintf
	add	esp, 16					; 00000010H

; 643  : 				strcat( tmpo, tmp);

	lea	edx, DWORD PTR _tmp$9[ebp]
	push	edx
	lea	eax, DWORD PTR _tmpo$8[ebp]
	push	eax
	call	_strcat
	add	esp, 8

; 644  : 				strcat( tmpo, "G, aoa: ");

	push	OFFSET ??_C@_08CFEJCDPL@G?0?5aoa?3?5?$AA@
	lea	ecx, DWORD PTR _tmpo$8[ebp]
	push	ecx
	call	_strcat
	add	esp, 8

; 645  : 
; 646  : 				fvalue = ac->GetAlpha();

	mov	edx, DWORD PTR _ac$5[ebp]
	mov	eax, DWORD PTR [edx]
	mov	ecx, DWORD PTR _ac$5[ebp]
	mov	edx, DWORD PTR [eax+408]
	call	edx
	fstp	DWORD PTR _fvalue$7[ebp]

; 647  : 				sprintf(tmp,"%+2.1f",fvalue);

	cvtss2sd xmm0, DWORD PTR _fvalue$7[ebp]
	sub	esp, 8
	movsd	QWORD PTR [esp], xmm0
	push	OFFSET ??_C@_06BPHPLDCC@?$CF?$CL2?41f?$AA@
	lea	eax, DWORD PTR _tmp$9[ebp]
	push	eax
	call	_sprintf
	add	esp, 16					; 00000010H

; 648  : 				strcat( tmpo, tmp);

	lea	ecx, DWORD PTR _tmp$9[ebp]
	push	ecx
	lea	edx, DWORD PTR _tmpo$8[ebp]
	push	edx
	call	_strcat
	add	esp, 8

; 649  : 				strcat( tmpo, " degrees");

	push	OFFSET ??_C@_08MGDNAMHD@?5degrees?$AA@
	lea	eax, DWORD PTR _tmpo$8[ebp]
	push	eax
	call	_strcat
	add	esp, 8
$LN2@DisplayInf:

; 650  : 			}
; 651  : 			
; 652  : 		}
; 653  : #if 0	// this would display the text/screenwidth ratio..
; 654  : 		char tmp[20];
; 655  : 		
; 656  : 		float blubb = renderer->ScreenTextWidth(tmpo)/(float)renderer->GetXRes();
; 657  : 		sprintf(tmp,"%f",blubb);
; 658  : 		renderer->TextCenter (0.0F, (-1.F+2.F*OTWDriver.renderer->TextHeight()), tmp);
; 659  : #endif
; 660  : 		renderer->TextCenter (0.0F, (-1.F+1.2F*OTWDriver.renderer->TextHeight()), tmpo);

	push	0
	lea	ecx, DWORD PTR _tmpo$8[ebp]
	push	ecx
	mov	edx, DWORD PTR ?OTWDriver@@3VOTWDriverClass@@A+33576
	mov	eax, DWORD PTR [edx]
	mov	ecx, DWORD PTR ?OTWDriver@@3VOTWDriverClass@@A+33576
	mov	edx, DWORD PTR [eax+88]
	call	edx
	fstp	DWORD PTR tv716[ebp]
	movss	xmm0, DWORD PTR tv716[ebp]
	mulss	xmm0, DWORD PTR __real@3f99999a
	addss	xmm0, DWORD PTR __real@bf800000
	push	ecx
	movss	DWORD PTR [esp], xmm0
	push	ecx
	movss	xmm0, DWORD PTR __real@00000000
	movss	DWORD PTR [esp], xmm0
	mov	eax, DWORD PTR _this$[ebp]
	mov	ecx, DWORD PTR [eax+33576]
	mov	edx, DWORD PTR _this$[ebp]
	mov	eax, DWORD PTR [ecx]
	mov	ecx, DWORD PTR [edx+33576]
	mov	edx, DWORD PTR [eax+72]
	call	edx

; 661  : 	}
; 662  : 	else

	jmp	SHORT $LN1@DisplayInf
$LN7@DisplayInf:

; 663  : 	{
; 664  : 		renderer->TextCenter (0.0F, (-1.F+1.2F*OTWDriver.renderer->TextHeight()), CameraLabel[cameraID]);

	push	0
	movsx	eax, WORD PTR _cameraID$[ebp]
	imul	eax, 40					; 00000028H
	add	eax, OFFSET ?CameraLabel@@3PAY0CI@DA	; CameraLabel
	push	eax
	mov	ecx, DWORD PTR ?OTWDriver@@3VOTWDriverClass@@A+33576
	mov	edx, DWORD PTR [ecx]
	mov	ecx, DWORD PTR ?OTWDriver@@3VOTWDriverClass@@A+33576
	mov	eax, DWORD PTR [edx+88]
	call	eax
	fstp	DWORD PTR tv731[ebp]
	movss	xmm0, DWORD PTR tv731[ebp]
	mulss	xmm0, DWORD PTR __real@3f99999a
	addss	xmm0, DWORD PTR __real@bf800000
	push	ecx
	movss	DWORD PTR [esp], xmm0
	push	ecx
	movss	xmm0, DWORD PTR __real@00000000
	movss	DWORD PTR [esp], xmm0
	mov	ecx, DWORD PTR _this$[ebp]
	mov	edx, DWORD PTR [ecx+33576]
	mov	eax, DWORD PTR _this$[ebp]
	mov	edx, DWORD PTR [edx]
	mov	ecx, DWORD PTR [eax+33576]
	mov	eax, DWORD PTR [edx+72]
	call	eax
$LN1@DisplayInf:

; 665  : 	}
; 666  : }

	mov	ecx, DWORD PTR __$ArrayPad$[ebp]
	xor	ecx, ebp
	call	@__security_check_cookie@4
	mov	esp, ebp
	pop	ebp
	ret	0
?DisplayInfoBar@OTWDriverClass@@AAEXXZ ENDP		; OTWDriverClass::DisplayInfoBar
_TEXT	ENDS
; Function compile flags: /Odtp
; File c:\users\zhitao li\documents\visual studio 2012\projects\freefalcon\sim\otwdrive\otwloop.cpp
_TEXT	SEGMENT
_this$ = -28						; size = 4
tv305 = -24						; size = 4
$T1 = -20						; size = 4
_strw$ = -16						; size = 4
_halfHeight$ = -12					; size = 4
_halfWidth$ = -8					; size = 4
_tempChar$ = -1						; size = 1
?DisplayChatBox@OTWDriverClass@@QAEXXZ PROC		; OTWDriverClass::DisplayChatBox
; _this$ = ecx

; 433  : {

	push	ebp
	mov	ebp, esp
	sub	esp, 28					; 0000001cH
	mov	DWORD PTR _this$[ebp], ecx

; 434  : 	char tempChar;
; 435  : 	float strw;
; 436  : 
; 437  : 	// Center Box on screen (Will ALWAYS be same size (in pixels w,h) regardless of screen resolution)
; 438  : 	// BASICALLY, put centerX,centerY at the centerpoint of where you want the box to draw
; 439  : 	float halfHeight = OTWDriver.renderer->TextHeight() * 0.75F;

	mov	eax, DWORD PTR ?OTWDriver@@3VOTWDriverClass@@A+33576
	mov	edx, DWORD PTR [eax]
	mov	ecx, DWORD PTR ?OTWDriver@@3VOTWDriverClass@@A+33576
	mov	eax, DWORD PTR [edx+88]
	call	eax
	fstp	DWORD PTR tv305[ebp]
	movss	xmm0, DWORD PTR tv305[ebp]
	mulss	xmm0, DWORD PTR __real@3f400000
	movss	DWORD PTR _halfHeight$[ebp], xmm0

; 440  : 	float halfWidth = 0.75F;

	movss	xmm0, DWORD PTR __real@3f400000
	movss	DWORD PTR _halfWidth$[ebp], xmm0

; 441  : 
; 442  : 	OTWDriver.renderer->SetColor( 0x997B5200 );  				// 60% alpha blue

	push	-1719971328				; 997b5200H
	mov	ecx, DWORD PTR ?OTWDriver@@3VOTWDriverClass@@A+33576
	mov	edx, DWORD PTR [ecx]
	mov	ecx, DWORD PTR ?OTWDriver@@3VOTWDriverClass@@A+33576
	mov	eax, DWORD PTR [edx+92]
	call	eax

; 443  : 	OTWDriver.renderer->context.RestoreState( STATE_ALPHA_SOLID );

	push	16					; 00000010H
	mov	ecx, DWORD PTR ?OTWDriver@@3VOTWDriverClass@@A+33576
	add	ecx, 100				; 00000064H
	call	?RestoreState@ContextMPR@@QAEXH@Z	; ContextMPR::RestoreState

; 444  : 
; 445  : 	OTWDriver.renderer->Tri(-halfWidth, -halfHeight,
; 446  : 		                      halfWidth, -halfHeight,
; 447  : 									 halfWidth,  halfHeight);

	push	ecx
	movss	xmm0, DWORD PTR _halfHeight$[ebp]
	movss	DWORD PTR [esp], xmm0
	push	ecx
	movss	xmm0, DWORD PTR _halfWidth$[ebp]
	movss	DWORD PTR [esp], xmm0
	movss	xmm0, DWORD PTR _halfHeight$[ebp]
	xorps	xmm0, DWORD PTR __xmm@80000000800000008000000080000000
	push	ecx
	movss	DWORD PTR [esp], xmm0
	push	ecx
	movss	xmm0, DWORD PTR _halfWidth$[ebp]
	movss	DWORD PTR [esp], xmm0
	movss	xmm0, DWORD PTR _halfHeight$[ebp]
	xorps	xmm0, DWORD PTR __xmm@80000000800000008000000080000000
	push	ecx
	movss	DWORD PTR [esp], xmm0
	movss	xmm0, DWORD PTR _halfWidth$[ebp]
	xorps	xmm0, DWORD PTR __xmm@80000000800000008000000080000000
	push	ecx
	movss	DWORD PTR [esp], xmm0
	mov	ecx, DWORD PTR ?OTWDriver@@3VOTWDriverClass@@A+33576
	mov	edx, DWORD PTR [ecx]
	mov	ecx, DWORD PTR ?OTWDriver@@3VOTWDriverClass@@A+33576
	mov	eax, DWORD PTR [edx+36]
	call	eax

; 448  : 	OTWDriver.renderer->Tri(-halfWidth, -halfHeight,
; 449  : 		                     -halfWidth,  halfHeight,
; 450  : 									 halfWidth,  halfHeight);

	push	ecx
	movss	xmm0, DWORD PTR _halfHeight$[ebp]
	movss	DWORD PTR [esp], xmm0
	push	ecx
	movss	xmm0, DWORD PTR _halfWidth$[ebp]
	movss	DWORD PTR [esp], xmm0
	push	ecx
	movss	xmm0, DWORD PTR _halfHeight$[ebp]
	movss	DWORD PTR [esp], xmm0
	movss	xmm0, DWORD PTR _halfWidth$[ebp]
	xorps	xmm0, DWORD PTR __xmm@80000000800000008000000080000000
	push	ecx
	movss	DWORD PTR [esp], xmm0
	movss	xmm0, DWORD PTR _halfHeight$[ebp]
	xorps	xmm0, DWORD PTR __xmm@80000000800000008000000080000000
	push	ecx
	movss	DWORD PTR [esp], xmm0
	movss	xmm0, DWORD PTR _halfWidth$[ebp]
	xorps	xmm0, DWORD PTR __xmm@80000000800000008000000080000000
	push	ecx
	movss	DWORD PTR [esp], xmm0
	mov	ecx, DWORD PTR ?OTWDriver@@3VOTWDriverClass@@A+33576
	mov	edx, DWORD PTR [ecx]
	mov	ecx, DWORD PTR ?OTWDriver@@3VOTWDriverClass@@A+33576
	mov	eax, DWORD PTR [edx+36]
	call	eax

; 451  : 
; 452  : 	// Outline Translucent BLUE box
; 453  : 	OTWDriver.renderer->SetColor( 0xFF000000 );  				// black

	push	-16777216				; ff000000H
	mov	ecx, DWORD PTR ?OTWDriver@@3VOTWDriverClass@@A+33576
	mov	edx, DWORD PTR [ecx]
	mov	ecx, DWORD PTR ?OTWDriver@@3VOTWDriverClass@@A+33576
	mov	eax, DWORD PTR [edx+92]
	call	eax

; 454  : 	OTWDriver.renderer->Line(-halfWidth, -halfHeight, halfWidth, -halfHeight);

	movss	xmm0, DWORD PTR _halfHeight$[ebp]
	xorps	xmm0, DWORD PTR __xmm@80000000800000008000000080000000
	push	ecx
	movss	DWORD PTR [esp], xmm0
	push	ecx
	movss	xmm0, DWORD PTR _halfWidth$[ebp]
	movss	DWORD PTR [esp], xmm0
	movss	xmm0, DWORD PTR _halfHeight$[ebp]
	xorps	xmm0, DWORD PTR __xmm@80000000800000008000000080000000
	push	ecx
	movss	DWORD PTR [esp], xmm0
	movss	xmm0, DWORD PTR _halfWidth$[ebp]
	xorps	xmm0, DWORD PTR __xmm@80000000800000008000000080000000
	push	ecx
	movss	DWORD PTR [esp], xmm0
	mov	ecx, DWORD PTR ?OTWDriver@@3VOTWDriverClass@@A+33576
	mov	edx, DWORD PTR [ecx]
	mov	ecx, DWORD PTR ?OTWDriver@@3VOTWDriverClass@@A+33576
	mov	eax, DWORD PTR [edx+32]
	call	eax

; 455  : 	OTWDriver.renderer->Line(-halfWidth, -halfHeight,-halfWidth,  halfHeight);

	push	ecx
	movss	xmm0, DWORD PTR _halfHeight$[ebp]
	movss	DWORD PTR [esp], xmm0
	movss	xmm0, DWORD PTR _halfWidth$[ebp]
	xorps	xmm0, DWORD PTR __xmm@80000000800000008000000080000000
	push	ecx
	movss	DWORD PTR [esp], xmm0
	movss	xmm0, DWORD PTR _halfHeight$[ebp]
	xorps	xmm0, DWORD PTR __xmm@80000000800000008000000080000000
	push	ecx
	movss	DWORD PTR [esp], xmm0
	movss	xmm0, DWORD PTR _halfWidth$[ebp]
	xorps	xmm0, DWORD PTR __xmm@80000000800000008000000080000000
	push	ecx
	movss	DWORD PTR [esp], xmm0
	mov	ecx, DWORD PTR ?OTWDriver@@3VOTWDriverClass@@A+33576
	mov	edx, DWORD PTR [ecx]
	mov	ecx, DWORD PTR ?OTWDriver@@3VOTWDriverClass@@A+33576
	mov	eax, DWORD PTR [edx+32]
	call	eax

; 456  : 	OTWDriver.renderer->Line( halfWidth,  halfHeight, halfWidth, -halfHeight);

	movss	xmm0, DWORD PTR _halfHeight$[ebp]
	xorps	xmm0, DWORD PTR __xmm@80000000800000008000000080000000
	push	ecx
	movss	DWORD PTR [esp], xmm0
	push	ecx
	movss	xmm0, DWORD PTR _halfWidth$[ebp]
	movss	DWORD PTR [esp], xmm0
	push	ecx
	movss	xmm0, DWORD PTR _halfHeight$[ebp]
	movss	DWORD PTR [esp], xmm0
	push	ecx
	movss	xmm0, DWORD PTR _halfWidth$[ebp]
	movss	DWORD PTR [esp], xmm0
	mov	ecx, DWORD PTR ?OTWDriver@@3VOTWDriverClass@@A+33576
	mov	edx, DWORD PTR [ecx]
	mov	ecx, DWORD PTR ?OTWDriver@@3VOTWDriverClass@@A+33576
	mov	eax, DWORD PTR [edx+32]
	call	eax

; 457  : 	OTWDriver.renderer->Line( halfWidth,  halfHeight,-halfWidth,  halfHeight);

	push	ecx
	movss	xmm0, DWORD PTR _halfHeight$[ebp]
	movss	DWORD PTR [esp], xmm0
	movss	xmm0, DWORD PTR _halfWidth$[ebp]
	xorps	xmm0, DWORD PTR __xmm@80000000800000008000000080000000
	push	ecx
	movss	DWORD PTR [esp], xmm0
	push	ecx
	movss	xmm0, DWORD PTR _halfHeight$[ebp]
	movss	DWORD PTR [esp], xmm0
	push	ecx
	movss	xmm0, DWORD PTR _halfWidth$[ebp]
	movss	DWORD PTR [esp], xmm0
	mov	ecx, DWORD PTR ?OTWDriver@@3VOTWDriverClass@@A+33576
	mov	edx, DWORD PTR [ecx]
	mov	ecx, DWORD PTR ?OTWDriver@@3VOTWDriverClass@@A+33576
	mov	eax, DWORD PTR [edx+32]
	call	eax

; 458  : 	if(vuxRealTime & 0x100)

	mov	ecx, DWORD PTR ?vuxRealTime@@3KA	; vuxRealTime
	and	ecx, 256				; 00000100H
	je	$LN4@DisplayCha

; 459  : 	{
; 460  : 		tempChar=chatterStr[chatterCount];

	mov	edx, DWORD PTR ?chatterCount@@3IA	; chatterCount
	mov	al, BYTE PTR ?chatterStr@@3PADA[edx]
	mov	BYTE PTR _tempChar$[ebp], al

; 461  : 		if(chatterStr[0])

	mov	ecx, 1
	imul	ecx, 0
	movsx	edx, BYTE PTR ?chatterStr@@3PADA[ecx]
	test	edx, edx
	je	SHORT $LN3@DisplayCha

; 462  : 		{
; 463  : 			chatterStr[chatterCount]=0;

	mov	eax, DWORD PTR ?chatterCount@@3IA	; chatterCount
	mov	DWORD PTR $T1[ebp], eax
	cmp	DWORD PTR $T1[ebp], 256			; 00000100H
	jae	SHORT $LN7@DisplayCha
	jmp	SHORT $LN8@DisplayCha
$LN7@DisplayCha:
	call	___report_rangecheckfailure
$LN8@DisplayCha:
	mov	ecx, DWORD PTR $T1[ebp]
	mov	BYTE PTR ?chatterStr@@3PADA[ecx], 0

; 464  : 			strw=(float)OTWDriver.renderer->TextWidth(chatterStr);

	push	OFFSET ?chatterStr@@3PADA		; chatterStr
	mov	edx, DWORD PTR ?OTWDriver@@3VOTWDriverClass@@A+33576
	mov	eax, DWORD PTR [edx]
	mov	ecx, DWORD PTR ?OTWDriver@@3VOTWDriverClass@@A+33576
	mov	edx, DWORD PTR [eax+84]
	call	edx
	fstp	DWORD PTR _strw$[ebp]

; 465  : 			chatterStr[chatterCount]=tempChar;

	mov	eax, DWORD PTR ?chatterCount@@3IA	; chatterCount
	mov	cl, BYTE PTR _tempChar$[ebp]
	mov	BYTE PTR ?chatterStr@@3PADA[eax], cl

; 466  : 		}
; 467  : 		else

	jmp	SHORT $LN2@DisplayCha
$LN3@DisplayCha:

; 468  : 			strw=0.0f;

	movss	xmm0, DWORD PTR __real@00000000
	movss	DWORD PTR _strw$[ebp], xmm0
$LN2@DisplayCha:

; 469  : 
; 470  : 		OTWDriver.renderer->SetColor(0xfffefefe); // Not perfect white so color won't change

	push	-65794					; fffefefeH
	mov	edx, DWORD PTR ?OTWDriver@@3VOTWDriverClass@@A+33576
	mov	eax, DWORD PTR [edx]
	mov	ecx, DWORD PTR ?OTWDriver@@3VOTWDriverClass@@A+33576
	mov	edx, DWORD PTR [eax+92]
	call	edx

; 471  : 		OTWDriver.renderer->Line( strw-(halfWidth*0.95F), -halfHeight*0.75F, strw-(halfWidth*0.95F), halfHeight*0.75F);

	movss	xmm0, DWORD PTR _halfHeight$[ebp]
	mulss	xmm0, DWORD PTR __real@3f400000
	push	ecx
	movss	DWORD PTR [esp], xmm0
	movss	xmm0, DWORD PTR _halfWidth$[ebp]
	mulss	xmm0, DWORD PTR __real@3f733333
	movss	xmm1, DWORD PTR _strw$[ebp]
	subss	xmm1, xmm0
	push	ecx
	movss	DWORD PTR [esp], xmm1
	movss	xmm0, DWORD PTR _halfHeight$[ebp]
	xorps	xmm0, DWORD PTR __xmm@80000000800000008000000080000000
	mulss	xmm0, DWORD PTR __real@3f400000
	push	ecx
	movss	DWORD PTR [esp], xmm0
	movss	xmm0, DWORD PTR _halfWidth$[ebp]
	mulss	xmm0, DWORD PTR __real@3f733333
	movss	xmm1, DWORD PTR _strw$[ebp]
	subss	xmm1, xmm0
	push	ecx
	movss	DWORD PTR [esp], xmm1
	mov	eax, DWORD PTR ?OTWDriver@@3VOTWDriverClass@@A+33576
	mov	edx, DWORD PTR [eax]
	mov	ecx, DWORD PTR ?OTWDriver@@3VOTWDriverClass@@A+33576
	mov	eax, DWORD PTR [edx+32]
	call	eax
$LN4@DisplayCha:

; 472  : 	}
; 473  : 
; 474  : 	if(chatterStr[0])

	mov	ecx, 1
	imul	ecx, 0
	movsx	edx, BYTE PTR ?chatterStr@@3PADA[ecx]
	test	edx, edx
	je	SHORT $LN1@DisplayCha

; 475  : 	{
; 476  : 		OTWDriver.renderer->SetColor(0xff000000); // Not perfect white so color won't change

	push	-16777216				; ff000000H
	mov	eax, DWORD PTR ?OTWDriver@@3VOTWDriverClass@@A+33576
	mov	edx, DWORD PTR [eax]
	mov	ecx, DWORD PTR ?OTWDriver@@3VOTWDriverClass@@A+33576
	mov	eax, DWORD PTR [edx+92]
	call	eax

; 477  : 		OTWDriver.renderer->TextLeftVertical(-halfWidth*0.95F, 0.0F, chatterStr);

	push	0
	push	OFFSET ?chatterStr@@3PADA		; chatterStr
	push	ecx
	movss	xmm0, DWORD PTR __real@00000000
	movss	DWORD PTR [esp], xmm0
	movss	xmm0, DWORD PTR _halfWidth$[ebp]
	xorps	xmm0, DWORD PTR __xmm@80000000800000008000000080000000
	mulss	xmm0, DWORD PTR __real@3f733333
	push	ecx
	movss	DWORD PTR [esp], xmm0
	mov	ecx, DWORD PTR ?OTWDriver@@3VOTWDriverClass@@A+33576
	mov	edx, DWORD PTR [ecx]
	mov	ecx, DWORD PTR ?OTWDriver@@3VOTWDriverClass@@A+33576
	mov	eax, DWORD PTR [edx+64]
	call	eax
$LN1@DisplayCha:
$LN5@DisplayCha:

; 478  : 	}
; 479  : }

	mov	esp, ebp
	pop	ebp
	ret	0
?DisplayChatBox@OTWDriverClass@@QAEXXZ ENDP		; OTWDriverClass::DisplayChatBox
_TEXT	ENDS
; Function compile flags: /Odtp
; File c:\users\zhitao li\documents\visual studio 2012\projects\freefalcon\sim\include\otwdrive.h
;	COMDAT ?DisplayInCockpit@OTWDriverClass@@QAEHXZ
_TEXT	SEGMENT
_this$ = -4						; size = 4
?DisplayInCockpit@OTWDriverClass@@QAEHXZ PROC		; OTWDriverClass::DisplayInCockpit, COMDAT
; _this$ = ecx

; 244  : 		inline BOOL DisplayInCockpit( void ){

	push	ebp
	mov	ebp, esp
	push	ecx
	mov	DWORD PTR _this$[ebp], ecx

; 245  : 			if (mOTWDisplayMode >= ModeHud && mOTWDisplayMode <= ModePadlockEFOV )

	mov	eax, DWORD PTR _this$[ebp]
	cmp	DWORD PTR [eax+32328], 1
	jl	SHORT $LN1@DisplayInC
	mov	ecx, DWORD PTR _this$[ebp]
	cmp	DWORD PTR [ecx+32328], 5
	jg	SHORT $LN1@DisplayInC

; 246  : 		  		return TRUE;

	mov	eax, 1
	jmp	SHORT $LN2@DisplayInC
$LN1@DisplayInC:

; 247  : 			return FALSE;

	xor	eax, eax
$LN2@DisplayInC:

; 248  : 		}

	mov	esp, ebp
	pop	ebp
	ret	0
?DisplayInCockpit@OTWDriverClass@@QAEHXZ ENDP		; OTWDriverClass::DisplayInCockpit
_TEXT	ENDS
; Function compile flags: /Odtp
; File c:\users\zhitao li\documents\visual studio 2012\projects\freefalcon\sim\otwdrive\otwloop.cpp
_TEXT	SEGMENT
tv2708 = -440						; size = 8
tv3373 = -432						; size = 8
tv2693 = -424						; size = 8
tv2582 = -416						; size = 8
_bottom$ = -408						; size = 4
tv2685 = -404						; size = 4
tv2700 = -400						; size = 4
_theFOV$1 = -396					; size = 4
tv3786 = -392						; size = 4
tv3782 = -388						; size = 4
tv3676 = -384						; size = 4
tv3784 = -380						; size = 4
tv2940 = -376						; size = 4
tv2766 = -372						; size = 4
tv2752 = -368						; size = 4
tv2772 = -364						; size = 4
_tmp$2 = -360						; size = 4
tv3674 = -356						; size = 4
_left$3 = -352						; size = 4
tv2746 = -348						; size = 4
_top$4 = -344						; size = 4
tv2727 = -340						; size = 4
_right$5 = -336						; size = 4
tv2945 = -332						; size = 4
_bottom$6 = -328					; size = 4
tv3778 = -324						; size = 4
_left$7 = -320						; size = 4
tv2784 = -316						; size = 4
_top$8 = -312						; size = 4
tv2778 = -308						; size = 4
_right$9 = -304						; size = 4
tv3780 = -300						; size = 4
_bottom$10 = -296					; size = 4
tv3672 = -292						; size = 4
_mover$11 = -288					; size = 4
tv3678 = -284						; size = 4
_ac$12 = -280						; size = 4
tv3776 = -276						; size = 4
tv3334 = -272						; size = 4
tv2740 = -268						; size = 4
tv3325 = -264						; size = 4
tv2734 = -260						; size = 4
_top$ = -256						; size = 4
tv2715 = -252						; size = 4
tv2951 = -248						; size = 4
tv2759 = -244						; size = 4
_normVFOV$13 = -240					; size = 4
tv1339 = -236						; size = 4
_narrowVFOV$14 = -232					; size = 4
tv1369 = -228						; size = 4
tv827 = -224						; size = 4
tv396 = -220						; size = 4
tv2578 = -216						; size = 4
tv1354 = -212						; size = 4
_playerAircraft$15 = -208				; size = 4
tv1328 = -204						; size = 4
tv1898 = -200						; size = 4
tv1379 = -196						; size = 4
tv1808 = -192						; size = 4
tv1364 = -188						; size = 4
tv1792 = -184						; size = 4
tv1349 = -180						; size = 4
tv1783 = -176						; size = 4
tv1331 = -172						; size = 4
tv3370 = -168						; size = 4
tv868 = -164						; size = 4
tv1588 = -160						; size = 4
_air$16 = -156						; size = 4
_mfd$17 = -152						; size = 4
_narrowHFOV$18 = -148					; size = 4
_ratioH$19 = -144					; size = 4
_normHFOV$20 = -140					; size = 4
_ratioV$21 = -136					; size = 4
_glocFactor$22 = -132					; size = 4
_camCount$ = -128					; size = 4
_theRwr$23 = -124					; size = 4
_i$24 = -120						; size = 4
_oldFont$ = -116					; size = 4
_mFaults$25 = -112					; size = 4
_i$26 = -108						; size = 4
_pct$27 = -104						; size = 4
_h$28 = -100						; size = 4
_j$29 = -96						; size = 4
_k$30 = -92						; size = 4
_pan$31 = -88						; size = 4
_tilt$32 = -84						; size = 4
_dT$ = -80						; size = 4
_i$ = -76						; size = 4
_yaw$33 = -72						; size = 4
_okToDoCockpitStuff$ = -68				; size = 4
_DisplayMode$ = -64					; size = 4
_tmpVal$34 = -60					; size = 4
_tmpVal2$35 = -56					; size = 4
_ac$36 = -52						; size = 4
_this$ = -48						; size = 4
_posit$37 = -44						; size = 12
_viewportBounds$ = -32					; size = 16
_viewPos$ = -16						; size = 12
__$ArrayPad$ = -4					; size = 4
?RenderFrame@OTWDriverClass@@QAEXXZ PROC		; OTWDriverClass::RenderFrame
; _this$ = ecx

; 1480 : void OTWDriverClass::RenderFrame(){

	push	ebp
	mov	ebp, esp
	sub	esp, 440				; 000001b8H
	mov	eax, DWORD PTR ___security_cookie
	xor	eax, ebp
	mov	DWORD PTR __$ArrayPad$[ebp], eax
	push	esi
	mov	DWORD PTR _this$[ebp], ecx

; 1481 : 	int i;
; 1482 : 	float dT;
; 1483 : 	static int count = 0;
; 1484 : 	float top, bottom;
; 1485 : 	ViewportBounds viewportBounds;
; 1486 : 	Tpoint viewPos;
; 1487 : 	int camCount;
; 1488 : 	int oldFont;
; 1489 : 
; 1490 : 	//START_PROFILE("OTWRENDER");
; 1491 : 	// convert frame loop time to secs from ms
; 1492 : 	dT = (float)frameTime * 0.001F;

	mov	eax, DWORD PTR _this$[ebp]
	mov	ecx, DWORD PTR [eax+33420]
	mov	DWORD PTR tv2578[ebp], ecx
	cvtsi2sd xmm0, DWORD PTR tv2578[ebp]
	mov	edx, DWORD PTR tv2578[ebp]
	shr	edx, 31					; 0000001fH
	addsd	xmm0, QWORD PTR __xmm@41f00000000000000000000000000000[edx*8]
	movsd	QWORD PTR tv2582[ebp], xmm0
	cvtsd2ss xmm0, QWORD PTR tv2582[ebp]
	mulss	xmm0, DWORD PTR __real@3a83126f
	movss	DWORD PTR _dT$[ebp], xmm0

; 1493 : 	// clamp dT
; 1494 : 	if ( dT < 0.01f ){

	movss	xmm0, DWORD PTR __real@3c23d70a
	comiss	xmm0, DWORD PTR _dT$[ebp]
	jbe	SHORT $LN226@RenderFram

; 1495 : 		dT = 0.01f;

	movss	xmm0, DWORD PTR __real@3c23d70a
	movss	DWORD PTR _dT$[ebp], xmm0
	jmp	SHORT $LN224@RenderFram
$LN226@RenderFram:

; 1496 : 	}
; 1497 : 	else if ( dT > 0.5f ){

	movss	xmm0, DWORD PTR _dT$[ebp]
	comiss	xmm0, DWORD PTR __real@3f000000
	jbe	SHORT $LN224@RenderFram

; 1498 : 		dT = 0.5f;

	movss	xmm0, DWORD PTR __real@3f000000
	movss	DWORD PTR _dT$[ebp], xmm0
$LN224@RenderFram:

; 1499 : 	}
; 1500 : 	// 2002-02-15 MOVED FROM BELOW BY S.G.
; 1501 : 	// I need to set it to false if the current otwPlatform is not SimDriver.GetPlayerAircraft()
; 1502 : 	BOOL okToDoCockpitStuff = TRUE; 

	mov	DWORD PTR _okToDoCockpitStuff$[ebp], 1

; 1503 : 	
; 1504 : 	extern bool MouseMenuActive;
; 1505 : 	// Retro 31Dec2003 start
; 1506 : 	// the position here might not be the best.. has to coordinated with the g_bLookCloserFix I think..
; 1507 : 	// Should be coordinated with wombats keypresses: if this active
; 1508 : 	//	is used, then the keypresses (and maybe the 'l' key) should
; 1509 : 	//	be deactivated
; 1510 : 	if ((!actionCameraMode)&&(!MouseMenuActive)){

	mov	eax, DWORD PTR _this$[ebp]
	cmp	DWORD PTR [eax+33556], 0
	jne	$LN222@RenderFram
	movzx	ecx, BYTE PTR ?MouseMenuActive@@3_NA	; MouseMenuActive
	test	ecx, ecx
	jne	SHORT $LN222@RenderFram

; 1511 : 		// Retro 20Feb2004 - no FOV control in actioncam and when the 'Exit mission' menu is active
; 1512 : 		if (IO.AnalogIsUsed(AXIS_FOV)){

	push	9
	mov	ecx, OFFSET ?IO@@3VSIMLIB_IO_CLASS@@A	; IO
	call	?AnalogIsUsed@SIMLIB_IO_CLASS@@QAE_NW4GameAxis_t@@@Z ; SIMLIB_IO_CLASS::AnalogIsUsed
	movzx	edx, al
	test	edx, edx
	je	SHORT $LN222@RenderFram

; 1513 : 			//Wombat778 1-15-03 rewrote slighty so that center of axis is the middle of the FOV range
; 1514 : 			float theFOV = ( g_fMaximumFOV - g_fMinimumFOV ) * IO.GetAxisValue(AXIS_FOV) / 15000.0f;	

	movss	xmm0, DWORD PTR ?g_fMaximumFOV@@3MA
	subss	xmm0, DWORD PTR ?g_fMinimumFOV@@3MA
	push	9
	mov	ecx, OFFSET ?IO@@3VSIMLIB_IO_CLASS@@A	; IO
	movss	DWORD PTR tv3672[ebp], xmm0
	call	?GetAxisValue@SIMLIB_IO_CLASS@@QAEHW4GameAxis_t@@@Z ; SIMLIB_IO_CLASS::GetAxisValue
	cvtsi2ss xmm0, eax
	movss	xmm1, DWORD PTR tv3672[ebp]
	mulss	xmm1, xmm0
	divss	xmm1, DWORD PTR __real@466a6000
	movss	DWORD PTR _theFOV$1[ebp], xmm1

; 1515 : 			OTWDriver.SetFOV( ( g_fMinimumFOV + theFOV ) * DTR);

	movss	xmm0, DWORD PTR ?g_fMinimumFOV@@3MA
	addss	xmm0, DWORD PTR _theFOV$1[ebp]
	mulss	xmm0, DWORD PTR __real@3c8efa34
	push	ecx
	movss	DWORD PTR [esp], xmm0
	mov	ecx, OFFSET ?OTWDriver@@3VOTWDriverClass@@A ; OTWDriver
	call	?SetFOV@OTWDriverClass@@QAEXM@Z		; OTWDriverClass::SetFOV
$LN222@RenderFram:

; 1516 : 		}
; 1517 : 	}
; 1518 : 	// Retro 31Dec2003 end
; 1519 : 
; 1520 : 	// JAM 17Dec03 - Tidied up a little
; 1521 : 	// If we're sitting in our own aircraft...
; 1522 :     if((otwPlatform.get() != NULL) && (otwPlatform.get() == SimDriver.GetPlayerAircraft()))

	mov	ecx, DWORD PTR _this$[ebp]
	add	ecx, 32336				; 00007e50H
	call	?get@?$VuBin@VSimBaseClass@@@@QBEPAVSimBaseClass@@XZ ; VuBin<SimBaseClass>::get
	test	eax, eax
	je	$LN221@RenderFram
	mov	ecx, DWORD PTR _this$[ebp]
	add	ecx, 32336				; 00007e50H
	call	?get@?$VuBin@VSimBaseClass@@@@QBEPAVSimBaseClass@@XZ ; VuBin<SimBaseClass>::get
	mov	esi, eax
	mov	ecx, OFFSET ?SimDriver@@3VSimulationDriver@@A ; SimDriver
	call	?GetPlayerAircraft@SimulationDriver@@QBEPAVAircraftClass@@XZ ; SimulationDriver::GetPlayerAircraft
	cmp	esi, eax
	jne	$LN221@RenderFram

; 1523 : 		{
; 1524 : 			if(GetOTWDisplayMode() == ModePadlockF3 || (GetOTWDisplayMode() == Mode3DCockpit && mDoSidebar == TRUE))

	mov	ecx, DWORD PTR _this$[ebp]
	call	?GetOTWDisplayMode@OTWDriverClass@@QAE?AW4OTWDisplayMode@1@XZ ; OTWDriverClass::GetOTWDisplayMode
	cmp	eax, 4
	je	SHORT $LN219@RenderFram
	mov	ecx, DWORD PTR _this$[ebp]
	call	?GetOTWDisplayMode@OTWDriverClass@@QAE?AW4OTWDisplayMode@1@XZ ; OTWDriverClass::GetOTWDisplayMode
	cmp	eax, 3
	jne	SHORT $LN220@RenderFram
	mov	eax, DWORD PTR _this$[ebp]
	cmp	DWORD PTR [eax+33852], 1
	jne	SHORT $LN220@RenderFram
$LN219@RenderFram:

; 1525 : 			{
; 1526 : 	      pPadlockCPManager->SetNextView();

	mov	ecx, DWORD PTR _this$[ebp]
	mov	ecx, DWORD PTR [ecx+33688]
	call	?SetNextView@CockpitManager@@QAEXXZ	; CockpitManager::SetNextView
	jmp	$LN210@RenderFram
$LN220@RenderFram:

; 1527 :       }
; 1528 :       else if (GetOTWDisplayMode() == Mode2DCockpit)

	mov	ecx, DWORD PTR _this$[ebp]
	call	?GetOTWDisplayMode@OTWDriverClass@@QAE?AW4OTWDisplayMode@1@XZ ; OTWDriverClass::GetOTWDisplayMode
	cmp	eax, 2
	jne	$LN210@RenderFram

; 1529 : 			{
; 1530 : 			pCockpitManager->SetNextView();

	mov	edx, DWORD PTR _this$[ebp]
	mov	ecx, DWORD PTR [edx+33684]
	call	?SetNextView@CockpitManager@@QAEXXZ	; CockpitManager::SetNextView

; 1531 : 			// dpc LookCloserFix start
; 1532 : 			// If Hud is present in 2D Cockpit view, make look closer zoom through the boresight cross in the HUD
; 1533 : 			// This assumes that normal FOV = 60 deg., narrow FOV = 20 deg.
; 1534 : 			// and that cockpit designer took time to align hud position correctly
; 1535 : 			// (boresight cross should be drawn exactly at 0 deg. pan and 0 deg. tilt pixel
; 1536 : 			// OTWDriver.SetCameraPanTilt(pCockpitManager->GetPan(), pCockpitManager->GetTilt());
; 1537 : 			if(g_bLookCloserFix){

	movzx	eax, BYTE PTR ?g_bLookCloserFix@@3_NA	; g_bLookCloserFix
	test	eax, eax
	je	$LN216@RenderFram

; 1538 : 	            float pan = pCockpitManager->GetPan();

	mov	ecx, DWORD PTR _this$[ebp]
	mov	ecx, DWORD PTR [ecx+33684]
	call	?GetPan@CockpitManager@@QAEMXZ		; CockpitManager::GetPan
	fstp	DWORD PTR _pan$31[ebp]

; 1539 : 				float tilt = pCockpitManager->GetTilt();

	mov	edx, DWORD PTR _this$[ebp]
	mov	ecx, DWORD PTR [edx+33684]
	call	?GetTilt@CockpitManager@@QAEMXZ		; CockpitManager::GetTilt
	fstp	DWORD PTR _tilt$32[ebp]

; 1540 : 				//Wombat778 10-31-2003	shouldnt be necessary anymore
; 1541 :                 //extern int narrowFOV;
; 1542 : 				extern ViewportBounds hudViewportBounds;
; 1543 :                 float normHFOV = 60.0F * DTR;

	movss	xmm0, DWORD PTR __real@3f860a91
	movss	DWORD PTR _normHFOV$20[ebp], xmm0

; 1544 :                 //float narrowHFOV = 20.0F * DTR;
; 1545 : 				//Wombat778 9-27-2003 Modified to allow fix to work with the current FOV (not 20 degrees)
; 1546 : 				float narrowHFOV = OTWDriver.GetFOV();

	mov	ecx, OFFSET ?OTWDriver@@3VOTWDriverClass@@A ; OTWDriver
	call	?GetFOV@OTWDriverClass@@QAEMXZ		; OTWDriverClass::GetFOV
	fstp	DWORD PTR _narrowHFOV$18[ebp]

; 1547 :                 float normVFOV = 2 * (float)atan2( 3.0f * tan(normHFOV/2), 4.0f );

	sub	esp, 8
	movsd	xmm0, QWORD PTR __real@4010000000000000
	movsd	QWORD PTR [esp], xmm0
	movss	xmm0, DWORD PTR _normHFOV$20[ebp]
	divss	xmm0, DWORD PTR __real@40000000
	push	ecx
	movss	DWORD PTR [esp], xmm0
	call	?tan@@YAMM@Z				; tan
	add	esp, 4
	fstp	DWORD PTR tv2685[ebp]
	movss	xmm0, DWORD PTR tv2685[ebp]
	mulss	xmm0, DWORD PTR __real@40400000
	cvtss2sd xmm0, xmm0
	sub	esp, 8
	movsd	QWORD PTR [esp], xmm0
	call	?checked_atan2@@YANNN@Z			; checked_atan2
	add	esp, 16					; 00000010H
	fstp	QWORD PTR tv2693[ebp]
	movsd	xmm0, QWORD PTR tv2693[ebp]
	cvtsd2ss xmm0, xmm0
	mulss	xmm0, DWORD PTR __real@40000000
	movss	DWORD PTR _normVFOV$13[ebp], xmm0

; 1548 :                 float narrowVFOV = 2 * (float)atan2( 3.0f * tan(narrowHFOV/2), 4.0f );

	sub	esp, 8
	movsd	xmm0, QWORD PTR __real@4010000000000000
	movsd	QWORD PTR [esp], xmm0
	movss	xmm0, DWORD PTR _narrowHFOV$18[ebp]
	divss	xmm0, DWORD PTR __real@40000000
	push	ecx
	movss	DWORD PTR [esp], xmm0
	call	?tan@@YAMM@Z				; tan
	add	esp, 4
	fstp	DWORD PTR tv2700[ebp]
	movss	xmm0, DWORD PTR tv2700[ebp]
	mulss	xmm0, DWORD PTR __real@40400000
	cvtss2sd xmm0, xmm0
	sub	esp, 8
	movsd	QWORD PTR [esp], xmm0
	call	?checked_atan2@@YANNN@Z			; checked_atan2
	add	esp, 16					; 00000010H
	fstp	QWORD PTR tv2708[ebp]
	movsd	xmm0, QWORD PTR tv2708[ebp]
	cvtsd2ss xmm0, xmm0
	mulss	xmm0, DWORD PTR __real@40000000
	movss	DWORD PTR _narrowVFOV$14[ebp], xmm0

; 1549 :                 float ratioH = normHFOV/narrowHFOV;

	movss	xmm0, DWORD PTR _normHFOV$20[ebp]
	divss	xmm0, DWORD PTR _narrowHFOV$18[ebp]
	movss	DWORD PTR _ratioH$19[ebp], xmm0

; 1550 :                 float ratioV = normVFOV/narrowVFOV;

	movss	xmm0, DWORD PTR _normVFOV$13[ebp]
	divss	xmm0, DWORD PTR _narrowVFOV$14[ebp]
	movss	DWORD PTR _ratioV$21[ebp], xmm0

; 1551 : 
; 1552 : 				//Wombat778 10-31-2003 changed looking at narrowFOV to checking actual FOV
; 1553 :                 if (
; 1554 : 					OTWDriver.GetFOV() != 60.0f && pCockpitManager->ShowHud()
; 1555 : 					&& pCockpitManager->GetViewportBounds(&hudViewportBounds,BOUNDS_HUD)
; 1556 : 				){

	mov	ecx, OFFSET ?OTWDriver@@3VOTWDriverClass@@A ; OTWDriver
	call	?GetFOV@OTWDriverClass@@QAEMXZ		; OTWDriverClass::GetFOV
	fstp	DWORD PTR tv2715[ebp]
	movss	xmm0, DWORD PTR tv2715[ebp]
	ucomiss	xmm0, DWORD PTR __real@42700000
	lahf
	test	ah, 68					; 00000044H
	jnp	$LN211@RenderFram
	mov	eax, DWORD PTR _this$[ebp]
	mov	ecx, DWORD PTR [eax+33684]
	call	?ShowHud@CockpitManager@@QAEHXZ		; CockpitManager::ShowHud
	test	eax, eax
	je	$LN211@RenderFram
	push	0
	push	OFFSET ?hudViewportBounds@@3UViewportBounds@@A ; hudViewportBounds
	mov	ecx, DWORD PTR _this$[ebp]
	mov	ecx, DWORD PTR [ecx+33684]
	call	?GetViewportBounds@CockpitManager@@QAEHPAUViewportBounds@@H@Z ; CockpitManager::GetViewportBounds
	test	eax, eax
	je	$LN211@RenderFram

; 1557 : 					//make sure we don't div with 0
; 1558 : 					if(fabs(pan)> 0.5 * DTR){

	push	ecx
	movss	xmm0, DWORD PTR _pan$31[ebp]
	movss	DWORD PTR [esp], xmm0
	call	?fabs@@YAMM@Z				; fabs
	add	esp, 4
	fstp	DWORD PTR tv2727[ebp]
	movss	xmm0, DWORD PTR tv2727[ebp]
	cvtss2sd xmm0, xmm0
	comisd	xmm0, QWORD PTR __real@3f81df4680000000
	jbe	$LN214@RenderFram

; 1559 : 						pan = pan/ratioH * (float)( tan(pan) * tan(narrowHFOV/2) / 
; 1560 : 							(tan(pan/ratioH)*tan(normHFOV/2)))
; 1561 : 						;

	movss	xmm0, DWORD PTR _pan$31[ebp]
	divss	xmm0, DWORD PTR _ratioH$19[ebp]
	push	ecx
	movss	xmm1, DWORD PTR _pan$31[ebp]
	movss	DWORD PTR [esp], xmm1
	movss	DWORD PTR tv3674[ebp], xmm0
	call	?tan@@YAMM@Z				; tan
	add	esp, 4
	fstp	DWORD PTR tv2734[ebp]
	movss	xmm0, DWORD PTR tv2734[ebp]
	movss	xmm1, DWORD PTR _narrowHFOV$18[ebp]
	divss	xmm1, DWORD PTR __real@40000000
	push	ecx
	movss	DWORD PTR [esp], xmm1
	movss	DWORD PTR tv3676[ebp], xmm0
	call	?tan@@YAMM@Z				; tan
	add	esp, 4
	fstp	DWORD PTR tv2740[ebp]
	movss	xmm0, DWORD PTR tv3676[ebp]
	mulss	xmm0, DWORD PTR tv2740[ebp]
	movss	xmm1, DWORD PTR _pan$31[ebp]
	divss	xmm1, DWORD PTR _ratioH$19[ebp]
	push	ecx
	movss	DWORD PTR [esp], xmm1
	movss	DWORD PTR tv3678[ebp], xmm0
	call	?tan@@YAMM@Z				; tan
	add	esp, 4
	fstp	DWORD PTR tv2746[ebp]
	movss	xmm0, DWORD PTR tv2746[ebp]
	movss	xmm1, DWORD PTR _normHFOV$20[ebp]
	divss	xmm1, DWORD PTR __real@40000000
	push	ecx
	movss	DWORD PTR [esp], xmm1
	movss	DWORD PTR tv3776[ebp], xmm0
	call	?tan@@YAMM@Z				; tan
	add	esp, 4
	fstp	DWORD PTR tv2752[ebp]
	movss	xmm0, DWORD PTR tv3776[ebp]
	mulss	xmm0, DWORD PTR tv2752[ebp]
	movss	xmm1, DWORD PTR tv3678[ebp]
	divss	xmm1, xmm0
	movss	xmm0, DWORD PTR tv3674[ebp]
	mulss	xmm0, xmm1
	movss	DWORD PTR _pan$31[ebp], xmm0

; 1562 : 					}
; 1563 : 					else {

	jmp	SHORT $LN213@RenderFram
$LN214@RenderFram:

; 1564 : 						pan = pan/ratioH;

	movss	xmm0, DWORD PTR _pan$31[ebp]
	divss	xmm0, DWORD PTR _ratioH$19[ebp]
	movss	DWORD PTR _pan$31[ebp], xmm0
$LN213@RenderFram:

; 1565 : 					}
; 1566 : 
; 1567 : 					if(fabs(tilt)> 0.5 * DTR){

	push	ecx
	movss	xmm0, DWORD PTR _tilt$32[ebp]
	movss	DWORD PTR [esp], xmm0
	call	?fabs@@YAMM@Z				; fabs
	add	esp, 4
	fstp	DWORD PTR tv2759[ebp]
	movss	xmm0, DWORD PTR tv2759[ebp]
	cvtss2sd xmm0, xmm0
	comisd	xmm0, QWORD PTR __real@3f81df4680000000
	jbe	$LN212@RenderFram

; 1568 : 						tilt = tilt / 
; 1569 : 							ratioV * (float)( tan(tilt) * tan(narrowVFOV/2) / (tan(tilt/ratioV)*tan(normVFOV/2)))
; 1570 : 						;  

	movss	xmm0, DWORD PTR _tilt$32[ebp]
	divss	xmm0, DWORD PTR _ratioV$21[ebp]
	push	ecx
	movss	xmm1, DWORD PTR _tilt$32[ebp]
	movss	DWORD PTR [esp], xmm1
	movss	DWORD PTR tv3778[ebp], xmm0
	call	?tan@@YAMM@Z				; tan
	add	esp, 4
	fstp	DWORD PTR tv2766[ebp]
	movss	xmm0, DWORD PTR tv2766[ebp]
	movss	xmm1, DWORD PTR _narrowVFOV$14[ebp]
	divss	xmm1, DWORD PTR __real@40000000
	push	ecx
	movss	DWORD PTR [esp], xmm1
	movss	DWORD PTR tv3780[ebp], xmm0
	call	?tan@@YAMM@Z				; tan
	add	esp, 4
	fstp	DWORD PTR tv2772[ebp]
	movss	xmm0, DWORD PTR tv3780[ebp]
	mulss	xmm0, DWORD PTR tv2772[ebp]
	movss	xmm1, DWORD PTR _tilt$32[ebp]
	divss	xmm1, DWORD PTR _ratioV$21[ebp]
	push	ecx
	movss	DWORD PTR [esp], xmm1
	movss	DWORD PTR tv3782[ebp], xmm0
	call	?tan@@YAMM@Z				; tan
	add	esp, 4
	fstp	DWORD PTR tv2778[ebp]
	movss	xmm0, DWORD PTR tv2778[ebp]
	movss	xmm1, DWORD PTR _normVFOV$13[ebp]
	divss	xmm1, DWORD PTR __real@40000000
	push	ecx
	movss	DWORD PTR [esp], xmm1
	movss	DWORD PTR tv3784[ebp], xmm0
	call	?tan@@YAMM@Z				; tan
	add	esp, 4
	fstp	DWORD PTR tv2784[ebp]
	movss	xmm0, DWORD PTR tv3784[ebp]
	mulss	xmm0, DWORD PTR tv2784[ebp]
	movss	xmm1, DWORD PTR tv3782[ebp]
	divss	xmm1, xmm0
	movss	xmm0, DWORD PTR tv3778[ebp]
	mulss	xmm0, xmm1
	movss	DWORD PTR _tilt$32[ebp], xmm0

; 1571 : 					}
; 1572 : 					else {

	jmp	SHORT $LN211@RenderFram
$LN212@RenderFram:

; 1573 : 					    tilt = tilt/ratioV;

	movss	xmm0, DWORD PTR _tilt$32[ebp]
	divss	xmm0, DWORD PTR _ratioV$21[ebp]
	movss	DWORD PTR _tilt$32[ebp], xmm0
$LN211@RenderFram:

; 1574 : 					}
; 1575 :                 }
; 1576 : 				OTWDriver.SetCameraPanTilt(pan, tilt);

	push	ecx
	movss	xmm0, DWORD PTR _tilt$32[ebp]
	movss	DWORD PTR [esp], xmm0
	push	ecx
	movss	xmm0, DWORD PTR _pan$31[ebp]
	movss	DWORD PTR [esp], xmm0
	mov	ecx, OFFSET ?OTWDriver@@3VOTWDriverClass@@A ; OTWDriver
	call	?SetCameraPanTilt@OTWDriverClass@@QAEXMM@Z ; OTWDriverClass::SetCameraPanTilt

; 1577 : 			}
; 1578 : 			else{

	jmp	SHORT $LN210@RenderFram
$LN216@RenderFram:

; 1579 : 				OTWDriver.SetCameraPanTilt(pCockpitManager->GetPan(), pCockpitManager->GetTilt());

	mov	edx, DWORD PTR _this$[ebp]
	mov	ecx, DWORD PTR [edx+33684]
	call	?GetTilt@CockpitManager@@QAEMXZ		; CockpitManager::GetTilt
	push	ecx
	fstp	DWORD PTR [esp]
	mov	eax, DWORD PTR _this$[ebp]
	mov	ecx, DWORD PTR [eax+33684]
	call	?GetPan@CockpitManager@@QAEMXZ		; CockpitManager::GetPan
	push	ecx
	fstp	DWORD PTR [esp]
	mov	ecx, OFFSET ?OTWDriver@@3VOTWDriverClass@@A ; OTWDriver
	call	?SetCameraPanTilt@OTWDriverClass@@QAEXMM@Z ; OTWDriverClass::SetCameraPanTilt
$LN210@RenderFram:

; 1580 : 			}
; 1581 : 			//dpc LookCloserFix end
; 1582 : 		}
; 1583 : 	}
; 1584 : 	// 2002-02-15 ADDED BY S.G.
; 1585 : 	// If the otwPlatform is NOT us, don't do its cockpit stuff since I'll never get in his seat
; 1586 : 	else {

	jmp	SHORT $LN209@RenderFram
$LN221@RenderFram:

; 1587 : 		okToDoCockpitStuff = FALSE;

	mov	DWORD PTR _okToDoCockpitStuff$[ebp], 0
$LN209@RenderFram:

; 1588 : 	}
; 1589 : 
; 1590 : 	// Find new cockpit if needed
; 1591 : 	if (viewStep != 0){

	mov	ecx, DWORD PTR _this$[ebp]
	cmp	DWORD PTR [ecx+32164], 0
	je	SHORT $LN208@RenderFram

; 1592 : 		lastotwPlatform = otwPlatform;

	mov	edx, DWORD PTR _this$[ebp]
	add	edx, 32336				; 00007e50H
	push	edx
	mov	ecx, DWORD PTR _this$[ebp]
	add	ecx, 32340				; 00007e54H
	call	??4?$VuBin@VSimBaseClass@@@@QAEABV0@ABV0@@Z ; VuBin<SimBaseClass>::operator=

; 1593 : 		FindNewOwnship();

	mov	ecx, DWORD PTR _this$[ebp]
	call	?FindNewOwnship@OTWDriverClass@@AAEXXZ	; OTWDriverClass::FindNewOwnship
$LN208@RenderFram:

; 1594 : 	}
; 1595 : 	// 2002-02-15 ADDED BY S.G.
; 1596 : 	// If the otwPlatform is NOT us, don't do its cockpit stuff since I'll never get in his seat
; 1597 : 	if(	!otwPlatform || otwPlatform.get() != SimDriver.GetPlayerAircraft()){

	mov	ecx, DWORD PTR _this$[ebp]
	add	ecx, 32336				; 00007e50H
	call	??7?$VuBin@VSimBaseClass@@@@QBE_NXZ	; VuBin<SimBaseClass>::operator!
	movzx	eax, al
	test	eax, eax
	jne	SHORT $LN206@RenderFram
	mov	ecx, DWORD PTR _this$[ebp]
	add	ecx, 32336				; 00007e50H
	call	?get@?$VuBin@VSimBaseClass@@@@QBEPAVSimBaseClass@@XZ ; VuBin<SimBaseClass>::get
	mov	esi, eax
	mov	ecx, OFFSET ?SimDriver@@3VSimulationDriver@@A ; SimDriver
	call	?GetPlayerAircraft@SimulationDriver@@QBEPAVAircraftClass@@XZ ; SimulationDriver::GetPlayerAircraft
	cmp	esi, eax
	je	SHORT $LN207@RenderFram
$LN206@RenderFram:

; 1598 : 		okToDoCockpitStuff = FALSE;

	mov	DWORD PTR _okToDoCockpitStuff$[ebp], 0
$LN207@RenderFram:

; 1599 : 	}
; 1600 : 
; 1601 : 	if((GetOTWDisplayMode() == ModePadlockF3 || GetOTWDisplayMode() == Mode3DCockpit) && mDoSidebar){

	mov	ecx, DWORD PTR _this$[ebp]
	call	?GetOTWDisplayMode@OTWDriverClass@@QAE?AW4OTWDisplayMode@1@XZ ; OTWDriverClass::GetOTWDisplayMode
	cmp	eax, 4
	je	SHORT $LN204@RenderFram
	mov	ecx, DWORD PTR _this$[ebp]
	call	?GetOTWDisplayMode@OTWDriverClass@@QAE?AW4OTWDisplayMode@1@XZ ; OTWDriverClass::GetOTWDisplayMode
	cmp	eax, 3
	jne	$LN205@RenderFram
$LN204@RenderFram:
	mov	ecx, DWORD PTR _this$[ebp]
	cmp	DWORD PTR [ecx+33852], 0
	je	$LN205@RenderFram

; 1602 : 		// Set viewport for Padlock
; 1603 : 		renderer->SetViewport(padlockWindow[0][0], padlockWindow[0][1], padlockWindow[0][2], padlockWindow[0][3]);

	mov	edx, 16					; 00000010H
	imul	edx, 0
	mov	eax, DWORD PTR _this$[ebp]
	lea	ecx, DWORD PTR [eax+edx+32224]
	mov	edx, 4
	imul	edx, 3
	push	ecx
	movss	xmm0, DWORD PTR [ecx+edx]
	movss	DWORD PTR [esp], xmm0
	mov	eax, 16					; 00000010H
	imul	eax, 0
	mov	ecx, DWORD PTR _this$[ebp]
	lea	edx, DWORD PTR [ecx+eax+32224]
	mov	eax, 4
	shl	eax, 1
	push	ecx
	movss	xmm0, DWORD PTR [edx+eax]
	movss	DWORD PTR [esp], xmm0
	mov	ecx, 16					; 00000010H
	imul	ecx, 0
	mov	edx, DWORD PTR _this$[ebp]
	lea	eax, DWORD PTR [edx+ecx+32224]
	mov	ecx, 4
	shl	ecx, 0
	push	ecx
	movss	xmm0, DWORD PTR [eax+ecx]
	movss	DWORD PTR [esp], xmm0
	mov	edx, 16					; 00000010H
	imul	edx, 0
	mov	eax, DWORD PTR _this$[ebp]
	lea	ecx, DWORD PTR [eax+edx+32224]
	mov	edx, 4
	imul	edx, 0
	push	ecx
	movss	xmm0, DWORD PTR [ecx+edx]
	movss	DWORD PTR [esp], xmm0
	mov	eax, DWORD PTR _this$[ebp]
	mov	ecx, DWORD PTR [eax+33576]
	mov	edx, DWORD PTR _this$[ebp]
	mov	eax, DWORD PTR [ecx]
	mov	ecx, DWORD PTR [edx+33576]
	mov	edx, DWORD PTR [eax+112]
	call	edx
	jmp	$LN201@RenderFram
$LN205@RenderFram:

; 1604 : 	}
; 1605 : 	else if(otwPlatform.get() == SimDriver.GetPlayerAircraft() && pCockpitManager){

	mov	ecx, DWORD PTR _this$[ebp]
	add	ecx, 32336				; 00007e50H
	call	?get@?$VuBin@VSimBaseClass@@@@QBEPAVSimBaseClass@@XZ ; VuBin<SimBaseClass>::get
	mov	esi, eax
	mov	ecx, OFFSET ?SimDriver@@3VSimulationDriver@@A ; SimDriver
	call	?GetPlayerAircraft@SimulationDriver@@QBEPAVAircraftClass@@XZ ; SimulationDriver::GetPlayerAircraft
	cmp	esi, eax
	jne	SHORT $LN202@RenderFram
	mov	eax, DWORD PTR _this$[ebp]
	cmp	DWORD PTR [eax+33684], 0
	je	SHORT $LN202@RenderFram

; 1606 : 		renderer->SetViewport(-1.0F, 1.0F, 1.0F, pCockpitManager->GetCockpitMaskTop());

	mov	ecx, DWORD PTR _this$[ebp]
	mov	ecx, DWORD PTR [ecx+33684]
	call	?GetCockpitMaskTop@CockpitManager@@QAEMXZ ; CockpitManager::GetCockpitMaskTop
	push	ecx
	fstp	DWORD PTR [esp]
	push	ecx
	movss	xmm0, DWORD PTR __real@3f800000
	movss	DWORD PTR [esp], xmm0
	push	ecx
	movss	xmm0, DWORD PTR __real@3f800000
	movss	DWORD PTR [esp], xmm0
	push	ecx
	movss	xmm0, DWORD PTR __real@bf800000
	movss	DWORD PTR [esp], xmm0
	mov	edx, DWORD PTR _this$[ebp]
	mov	eax, DWORD PTR [edx+33576]
	mov	ecx, DWORD PTR _this$[ebp]
	mov	edx, DWORD PTR [eax]
	mov	ecx, DWORD PTR [ecx+33576]
	mov	eax, DWORD PTR [edx+112]
	call	eax

; 1607 : 	}
; 1608 : 	else {

	jmp	SHORT $LN201@RenderFram
$LN202@RenderFram:

; 1609 : 		renderer->SetViewport(-1.0F, 1.0F, 1.0F, -1.0F);

	push	ecx
	movss	xmm0, DWORD PTR __real@bf800000
	movss	DWORD PTR [esp], xmm0
	push	ecx
	movss	xmm0, DWORD PTR __real@3f800000
	movss	DWORD PTR [esp], xmm0
	push	ecx
	movss	xmm0, DWORD PTR __real@3f800000
	movss	DWORD PTR [esp], xmm0
	push	ecx
	movss	xmm0, DWORD PTR __real@bf800000
	movss	DWORD PTR [esp], xmm0
	mov	ecx, DWORD PTR _this$[ebp]
	mov	edx, DWORD PTR [ecx+33576]
	mov	eax, DWORD PTR _this$[ebp]
	mov	edx, DWORD PTR [edx]
	mov	ecx, DWORD PTR [eax+33576]
	mov	eax, DWORD PTR [edx+112]
	call	eax
$LN201@RenderFram:

; 1610 : 	}
; 1611 : 
; 1612 : 	// This updates the positions of all the drawable objects
; 1613 : 	UpdateVehicleDrawables();

	mov	ecx, DWORD PTR _this$[ebp]
	call	?UpdateVehicleDrawables@OTWDriverClass@@AAEXXZ ; OTWDriverClass::UpdateVehicleDrawables

; 1614 : 
; 1615 : 	// Add the F3 Padlock if required
; 1616 : 	if ((GetOTWDisplayMode() == ModePadlockF3) && (otwPlatform.get() == SimDriver.GetPlayerAircraft())){

	mov	ecx, DWORD PTR _this$[ebp]
	call	?GetOTWDisplayMode@OTWDriverClass@@QAE?AW4OTWDisplayMode@1@XZ ; OTWDriverClass::GetOTWDisplayMode
	cmp	eax, 4
	jne	SHORT $LN199@RenderFram
	mov	ecx, DWORD PTR _this$[ebp]
	add	ecx, 32336				; 00007e50H
	call	?get@?$VuBin@VSimBaseClass@@@@QBEPAVSimBaseClass@@XZ ; VuBin<SimBaseClass>::get
	mov	esi, eax
	mov	ecx, OFFSET ?SimDriver@@3VSimulationDriver@@A ; SimDriver
	call	?GetPlayerAircraft@SimulationDriver@@QBEPAVAircraftClass@@XZ ; SimulationDriver::GetPlayerAircraft
	cmp	esi, eax
	jne	SHORT $LN199@RenderFram

; 1617 : 		if (tgtStep){

	mov	ecx, DWORD PTR _this$[ebp]
	cmp	DWORD PTR [ecx+32168], 0
	je	SHORT $LN199@RenderFram

; 1618 : 			Padlock_FindNextPriority(FALSE);

	push	0
	mov	ecx, DWORD PTR _this$[ebp]
	call	?Padlock_FindNextPriority@OTWDriverClass@@AAEXH@Z ; OTWDriverClass::Padlock_FindNextPriority

; 1619 : 			tgtStep = 0;

	mov	edx, DWORD PTR _this$[ebp]
	mov	DWORD PTR [edx+32168], 0
$LN199@RenderFram:

; 1620 : 		}
; 1621 : 	}
; 1622 : 
; 1623 : 	//START_PROFILE("RENDER 3DPIT");
; 1624 : 	// Update flight instrument data used by HUD and cockpit
; 1625 : 	// 2002-02-15 MODIFIED BY S.G. Added okToDoCockpitStuff so this is done only when the cockpit is from our plane
; 1626 : 	if ((otwPlatform.get() != NULL) && (otwPlatform->IsAirplane()) && okToDoCockpitStuff){

	mov	ecx, DWORD PTR _this$[ebp]
	add	ecx, 32336				; 00007e50H
	call	?get@?$VuBin@VSimBaseClass@@@@QBEPAVSimBaseClass@@XZ ; VuBin<SimBaseClass>::get
	test	eax, eax
	je	$LN115@RenderFram
	mov	ecx, DWORD PTR _this$[ebp]
	add	ecx, 32336				; 00007e50H
	call	??C?$VuBin@VSimBaseClass@@@@QBEPAVSimBaseClass@@XZ ; VuBin<SimBaseClass>::operator->
	mov	DWORD PTR tv396[ebp], eax
	mov	eax, DWORD PTR tv396[ebp]
	mov	edx, DWORD PTR [eax]
	mov	ecx, DWORD PTR tv396[ebp]
	mov	eax, DWORD PTR [edx+192]
	call	eax
	test	eax, eax
	je	$LN115@RenderFram
	cmp	DWORD PTR _okToDoCockpitStuff$[ebp], 0
	je	$LN115@RenderFram

; 1627 : 		AircraftClass *ac = static_cast<AircraftClass*>(otwPlatform.get());

	mov	ecx, DWORD PTR _this$[ebp]
	add	ecx, 32336				; 00007e50H
	call	?get@?$VuBin@VSimBaseClass@@@@QBEPAVSimBaseClass@@XZ ; VuBin<SimBaseClass>::get
	mov	DWORD PTR _ac$36[ebp], eax

; 1628 : 		FackClass* mFaults = ac->mFaults;

	mov	ecx, DWORD PTR _ac$36[ebp]
	mov	edx, DWORD PTR [ecx+928]
	mov	DWORD PTR _mFaults$25[ebp], edx

; 1629 : 		float tmpVal, tmpVal2;//TJL 01/14/04 multi-engine
; 1630 : 
; 1631 : 		// Check for massive hardware failure
; 1632 : 		if (!(mFaults &&
; 1633 : 			  mFaults->GetFault(FaultClass::cadc_fault) &&
; 1634 : 			  mFaults->GetFault(FaultClass::ins_fault) &&
; 1635 : 			  mFaults->GetFault(FaultClass::gps_fault)))

	cmp	DWORD PTR _mFaults$25[ebp], 0
	je	SHORT $LN196@RenderFram
	push	3
	mov	ecx, DWORD PTR _mFaults$25[ebp]
	call	?GetFault@FackClass@@QAEHW4type_FSubSystem@FaultClass@@@Z ; FackClass::GetFault
	test	eax, eax
	je	SHORT $LN196@RenderFram
	push	20					; 00000014H
	mov	ecx, DWORD PTR _mFaults$25[ebp]
	call	?GetFault@FackClass@@QAEHW4type_FSubSystem@FaultClass@@@Z ; FackClass::GetFault
	test	eax, eax
	je	SHORT $LN196@RenderFram
	push	16					; 00000010H
	mov	ecx, DWORD PTR _mFaults$25[ebp]
	call	?GetFault@FackClass@@QAEHW4type_FSubSystem@FaultClass@@@Z ; FackClass::GetFault
	test	eax, eax
	jne	$LN197@RenderFram
$LN196@RenderFram:

; 1636 : 		{
; 1637 : 			cockpitFlightData.x = ac->XPos();

	mov	ecx, DWORD PTR _ac$36[ebp]
	call	?XPos@VuEntity@@QBEMXZ			; VuEntity::XPos
	fstp	DWORD PTR ?cockpitFlightData@@3VFlightData@@A

; 1638 : 			cockpitFlightData.y = ac->YPos();

	mov	ecx, DWORD PTR _ac$36[ebp]
	call	?YPos@VuEntity@@QBEMXZ			; VuEntity::YPos
	fstp	DWORD PTR ?cockpitFlightData@@3VFlightData@@A+4

; 1639 : 			cockpitFlightData.z = ac->ZPos();

	mov	ecx, DWORD PTR _ac$36[ebp]
	call	?ZPos@VuEntity@@QBEMXZ			; VuEntity::ZPos
	fstp	DWORD PTR ?cockpitFlightData@@3VFlightData@@A+8

; 1640 : 			cockpitFlightData.xDot = ac->XDelta();

	mov	ecx, DWORD PTR _ac$36[ebp]
	call	?XDelta@VuEntity@@QBEMXZ		; VuEntity::XDelta
	fstp	DWORD PTR ?cockpitFlightData@@3VFlightData@@A+12

; 1641 : 			cockpitFlightData.yDot = ac->YDelta();

	mov	ecx, DWORD PTR _ac$36[ebp]
	call	?YDelta@VuEntity@@QBEMXZ		; VuEntity::YDelta
	fstp	DWORD PTR ?cockpitFlightData@@3VFlightData@@A+16

; 1642 : 			cockpitFlightData.zDot = ac->ZDelta();

	mov	ecx, DWORD PTR _ac$36[ebp]
	call	?ZDelta@VuEntity@@QBEMXZ		; VuEntity::ZDelta
	fstp	DWORD PTR ?cockpitFlightData@@3VFlightData@@A+20

; 1643 : 			cockpitFlightData.alpha = ac->GetAlpha();

	mov	eax, DWORD PTR _ac$36[ebp]
	mov	edx, DWORD PTR [eax]
	mov	ecx, DWORD PTR _ac$36[ebp]
	mov	eax, DWORD PTR [edx+408]
	call	eax
	fstp	DWORD PTR ?cockpitFlightData@@3VFlightData@@A+24

; 1644 : 			cockpitFlightData.beta = ac->GetBeta();

	mov	ecx, DWORD PTR _ac$36[ebp]
	mov	edx, DWORD PTR [ecx]
	mov	ecx, DWORD PTR _ac$36[ebp]
	mov	eax, DWORD PTR [edx+412]
	call	eax
	fstp	DWORD PTR ?cockpitFlightData@@3VFlightData@@A+28

; 1645 : 			cockpitFlightData.gamma = ac->GetGamma();

	mov	ecx, DWORD PTR _ac$36[ebp]
	mov	edx, DWORD PTR [ecx]
	mov	ecx, DWORD PTR _ac$36[ebp]
	mov	eax, DWORD PTR [edx+428]
	call	eax
	fstp	DWORD PTR ?cockpitFlightData@@3VFlightData@@A+32

; 1646 : 			cockpitFlightData.pitch = ac->Pitch();

	mov	ecx, DWORD PTR _ac$36[ebp]
	call	?Pitch@VuEntity@@QBEMXZ			; VuEntity::Pitch
	fstp	DWORD PTR ?cockpitFlightData@@3VFlightData@@A+36

; 1647 : 			cockpitFlightData.roll = ac->Roll();

	mov	ecx, DWORD PTR _ac$36[ebp]
	call	?Roll@VuEntity@@QBEMXZ			; VuEntity::Roll
	fstp	DWORD PTR ?cockpitFlightData@@3VFlightData@@A+40

; 1648 : 			cockpitFlightData.yaw = ac->Yaw();

	mov	ecx, DWORD PTR _ac$36[ebp]
	call	?Yaw@VuEntity@@QBEMXZ			; VuEntity::Yaw
	fstp	DWORD PTR ?cockpitFlightData@@3VFlightData@@A+44

; 1649 : 			cockpitFlightData.mach = ac->af->mach;

	mov	ecx, DWORD PTR _ac$36[ebp]
	mov	edx, DWORD PTR [ecx+932]
	movss	xmm0, DWORD PTR [edx+1144]
	movss	DWORD PTR ?cockpitFlightData@@3VFlightData@@A+48, xmm0

; 1650 : 			cockpitFlightData.kias = ac->GetKias();

	mov	eax, DWORD PTR _ac$36[ebp]
	mov	edx, DWORD PTR [eax]
	mov	ecx, DWORD PTR _ac$36[ebp]
	mov	eax, DWORD PTR [edx+224]
	call	eax
	fstp	DWORD PTR ?cockpitFlightData@@3VFlightData@@A+52

; 1651 : 			cockpitFlightData.vt = ac->GetVt();

	mov	ecx, DWORD PTR _ac$36[ebp]
	mov	edx, DWORD PTR [ecx]
	mov	ecx, DWORD PTR _ac$36[ebp]
	mov	eax, DWORD PTR [edx+220]
	call	eax
	fstp	DWORD PTR ?cockpitFlightData@@3VFlightData@@A+56

; 1652 : 			cockpitFlightData.gs = ac->GetNz();

	mov	ecx, DWORD PTR _ac$36[ebp]
	mov	edx, DWORD PTR [ecx]
	mov	ecx, DWORD PTR _ac$36[ebp]
	mov	eax, DWORD PTR [edx+424]
	call	eax
	fstp	DWORD PTR ?cockpitFlightData@@3VFlightData@@A+60

; 1653 : 
; 1654 : 			// Correct for wind
; 1655 : 			float yaw = cockpitFlightData.yaw;

	movss	xmm0, DWORD PTR ?cockpitFlightData@@3VFlightData@@A+44
	movss	DWORD PTR _yaw$33[ebp], xmm0

; 1656 : 			if (yaw < 0.0F){

	movss	xmm0, DWORD PTR __real@00000000
	comiss	xmm0, DWORD PTR _yaw$33[ebp]
	jbe	SHORT $LN195@RenderFram

; 1657 : 				yaw += 360.0F * DTR;

	movss	xmm0, DWORD PTR _yaw$33[ebp]
	addss	xmm0, DWORD PTR __real@40c90fd9
	movss	DWORD PTR _yaw$33[ebp], xmm0
$LN195@RenderFram:

; 1658 : 			}
; 1659 : 
; 1660 : 			Tpoint			posit;
; 1661 : 			posit.x = ac->XPos();

	mov	ecx, DWORD PTR _ac$36[ebp]
	call	?XPos@VuEntity@@QBEMXZ			; VuEntity::XPos
	fstp	DWORD PTR _posit$37[ebp]

; 1662 : 			posit.y = ac->YPos();

	mov	ecx, DWORD PTR _ac$36[ebp]
	call	?YPos@VuEntity@@QBEMXZ			; VuEntity::YPos
	fstp	DWORD PTR _posit$37[ebp+4]

; 1663 : 			posit.z = ac->ZPos();

	mov	ecx, DWORD PTR _ac$36[ebp]
	call	?ZPos@VuEntity@@QBEMXZ			; VuEntity::ZPos
	fstp	DWORD PTR _posit$37[ebp+8]

; 1664 : 
; 1665 : 			// Find angle between heading and wind
; 1666 : 			yaw = ((WeatherClass*)realWeather)->WindHeadingAt(&posit) - yaw;

	lea	ecx, DWORD PTR _posit$37[ebp]
	push	ecx
	mov	ecx, DWORD PTR ?realWeather@@3PAVRealWeather@@A ; realWeather
	call	?WindHeadingAt@WeatherClass@@QAEMPBUTpoint@@@Z ; WeatherClass::WindHeadingAt
	fstp	DWORD PTR tv2940[ebp]
	movss	xmm0, DWORD PTR tv2940[ebp]
	subss	xmm0, DWORD PTR _yaw$33[ebp]
	movss	DWORD PTR _yaw$33[ebp], xmm0

; 1667 : 
; 1668 : 			// Project wind speed
; 1669 : 
; 1670 : 			yaw = ((WeatherClass*)realWeather)->WindSpeedInFeetPerSecond(&posit) * (float)sin(yaw);

	lea	edx, DWORD PTR _posit$37[ebp]
	push	edx
	mov	ecx, DWORD PTR ?realWeather@@3PAVRealWeather@@A ; realWeather
	call	?WindSpeedInFeetPerSecond@WeatherClass@@QAEMPBUTpoint@@@Z ; WeatherClass::WindSpeedInFeetPerSecond
	fstp	DWORD PTR tv2945[ebp]
	movss	xmm0, DWORD PTR tv2945[ebp]
	push	ecx
	movss	xmm1, DWORD PTR _yaw$33[ebp]
	movss	DWORD PTR [esp], xmm1
	movss	DWORD PTR tv3786[ebp], xmm0
	call	?sin@@YAMM@Z				; sin
	add	esp, 4
	fstp	DWORD PTR tv2951[ebp]
	movss	xmm0, DWORD PTR tv3786[ebp]
	mulss	xmm0, DWORD PTR tv2951[ebp]
	movss	DWORD PTR _yaw$33[ebp], xmm0

; 1671 : 
; 1672 : 			// Find angle
; 1673 : 			yaw = (float)atan2 (yaw, cockpitFlightData.vt);

	cvtss2sd xmm0, DWORD PTR ?cockpitFlightData@@3VFlightData@@A+56
	sub	esp, 8
	movsd	QWORD PTR [esp], xmm0
	cvtss2sd xmm0, DWORD PTR _yaw$33[ebp]
	sub	esp, 8
	movsd	QWORD PTR [esp], xmm0
	call	?checked_atan2@@YANNN@Z			; checked_atan2
	add	esp, 16					; 00000010H
	fstp	DWORD PTR _yaw$33[ebp]

; 1674 : 			cockpitFlightData.windOffset = yaw;

	movss	xmm0, DWORD PTR _yaw$33[ebp]
	movss	DWORD PTR ?cockpitFlightData@@3VFlightData@@A+64, xmm0
$LN197@RenderFram:

; 1675 : 		}
; 1676 : 
; 1677 : 		// Add Engine data
; 1678 : 		cockpitFlightData.fuelFlow = ac->af->FuelFlow();

	mov	eax, DWORD PTR _ac$36[ebp]
	mov	ecx, DWORD PTR [eax+932]
	call	?FuelFlow@AirframeClass@@QAEMXZ		; AirframeClass::FuelFlow
	fstp	DWORD PTR ?cockpitFlightData@@3VFlightData@@A+84

; 1679 : 		cockpitFlightData.gearPos = ac->af->gearPos;

	mov	ecx, DWORD PTR _ac$36[ebp]
	mov	edx, DWORD PTR [ecx+932]
	movss	xmm0, DWORD PTR [edx+1552]
	movss	DWORD PTR ?cockpitFlightData@@3VFlightData@@A+104, xmm0

; 1680 : 		cockpitFlightData.speedBrake = ac->af->dbrake;

	mov	eax, DWORD PTR _ac$36[ebp]
	mov	ecx, DWORD PTR [eax+932]
	movss	xmm0, DWORD PTR [ecx+1548]
	movss	DWORD PTR ?cockpitFlightData@@3VFlightData@@A+108, xmm0

; 1681 : 		cockpitFlightData.ftit = ac->af->rpm * 135.0F + 700.0F;

	mov	edx, DWORD PTR _ac$36[ebp]
	mov	eax, DWORD PTR [edx+932]
	movss	xmm0, DWORD PTR [eax+1212]
	mulss	xmm0, DWORD PTR __real@43070000
	addss	xmm0, DWORD PTR __real@442f0000
	movss	DWORD PTR ?cockpitFlightData@@3VFlightData@@A+96, xmm0

; 1682 : 		cockpitFlightData.ftit2 = ac->af->rpm2 * 135.0F + 700.0F;//TJL 01/14/04 multi-engine

	mov	ecx, DWORD PTR _ac$36[ebp]
	mov	edx, DWORD PTR [ecx+932]
	movss	xmm0, DWORD PTR [edx+1216]
	mulss	xmm0, DWORD PTR __real@43070000
	addss	xmm0, DWORD PTR __real@442f0000
	movss	DWORD PTR ?cockpitFlightData@@3VFlightData@@A+100, xmm0

; 1683 : 		cockpitFlightData.rpm = 100.0F * ac->af->rpm;

	mov	eax, DWORD PTR _ac$36[ebp]
	mov	ecx, DWORD PTR [eax+932]
	movss	xmm0, DWORD PTR __real@42c80000
	mulss	xmm0, DWORD PTR [ecx+1212]
	movss	DWORD PTR ?cockpitFlightData@@3VFlightData@@A+88, xmm0

; 1684 : 		cockpitFlightData.rpm2 = 100.0F * ac->af->rpm2;//TJL 01/14/04 Multi-engine

	mov	edx, DWORD PTR _ac$36[ebp]
	mov	eax, DWORD PTR [edx+932]
	movss	xmm0, DWORD PTR __real@42c80000
	mulss	xmm0, DWORD PTR [eax+1216]
	movss	DWORD PTR ?cockpitFlightData@@3VFlightData@@A+92, xmm0

; 1685 : 		cockpitFlightData.internalFuel = ac->af->Fuel();

	mov	ecx, DWORD PTR _ac$36[ebp]
	mov	ecx, DWORD PTR [ecx+932]
	call	?Fuel@AirframeClass@@QAEMXZ		; AirframeClass::Fuel
	fstp	DWORD PTR ?cockpitFlightData@@3VFlightData@@A+76

; 1686 : 		cockpitFlightData.externalFuel = ac->af->ExternalFuel();

	mov	edx, DWORD PTR _ac$36[ebp]
	mov	ecx, DWORD PTR [edx+932]
	call	?ExternalFuel@AirframeClass@@QAEMXZ	; AirframeClass::ExternalFuel
	fstp	DWORD PTR ?cockpitFlightData@@3VFlightData@@A+80

; 1687 : 		// MD -- 20031011: make sure all fuel values needed are updated even if we aren't looking at the gauge
; 1688 : 		ac->af->GetFuel(&cockpitFlightData.fwd, &cockpitFlightData.aft, &cockpitFlightData.total);

	push	OFFSET ?cockpitFlightData@@3VFlightData@@A+1272
	push	OFFSET ?cockpitFlightData@@3VFlightData@@A+1268
	push	OFFSET ?cockpitFlightData@@3VFlightData@@A+1264
	mov	eax, DWORD PTR _ac$36[ebp]
	mov	ecx, DWORD PTR [eax+932]
	call	?GetFuel@AirframeClass@@QAEXPAM00@Z	; AirframeClass::GetFuel

; 1689 : 		cockpitFlightData.epuFuel = ac->af->EPUFuel();

	mov	ecx, DWORD PTR _ac$36[ebp]
	mov	ecx, DWORD PTR [ecx+932]
	call	?EPUFuel@AirframeClass@@QAEMXZ		; AirframeClass::EPUFuel
	fstp	DWORD PTR ?cockpitFlightData@@3VFlightData@@A+112

; 1690 : 		tmpVal = ac->af->rpm;

	mov	edx, DWORD PTR _ac$36[ebp]
	mov	eax, DWORD PTR [edx+932]
	movss	xmm0, DWORD PTR [eax+1212]
	movss	DWORD PTR _tmpVal$34[ebp], xmm0

; 1691 : 		tmpVal2 = ac->af->rpm2;//TJL 01/14/04 multi-engine

	mov	ecx, DWORD PTR _ac$36[ebp]
	mov	edx, DWORD PTR [ecx+932]
	movss	xmm0, DWORD PTR [edx+1216]
	movss	DWORD PTR _tmpVal2$35[ebp], xmm0

; 1692 : 		
; 1693 : 		// Nozzle Position
; 1694 : 		if(tmpVal <= 0.0F){

	movss	xmm0, DWORD PTR __real@00000000
	comiss	xmm0, DWORD PTR _tmpVal$34[ebp]
	jb	SHORT $LN194@RenderFram

; 1695 : 			tmpVal	= 100.0F;

	movss	xmm0, DWORD PTR __real@42c80000
	movss	DWORD PTR _tmpVal$34[ebp], xmm0
	jmp	$LN187@RenderFram
$LN194@RenderFram:

; 1696 : 		}
; 1697 : 		else if(tmpVal <= 0.83F){

	movss	xmm0, DWORD PTR __real@3f547ae1
	comiss	xmm0, DWORD PTR _tmpVal$34[ebp]
	jb	SHORT $LN192@RenderFram

; 1698 : 			tmpVal	= 100.0F + (0.0F - 100.0F) /  (0.83F) * tmpVal;

	movss	xmm0, DWORD PTR __real@c2f0f6c0
	mulss	xmm0, DWORD PTR _tmpVal$34[ebp]
	addss	xmm0, DWORD PTR __real@42c80000
	movss	DWORD PTR _tmpVal$34[ebp], xmm0
	jmp	SHORT $LN187@RenderFram
$LN192@RenderFram:

; 1699 : 		}
; 1700 : 		else if(tmpVal <= 0.99){

	cvtss2sd xmm0, DWORD PTR _tmpVal$34[ebp]
	movsd	xmm1, QWORD PTR __real@3fefae147ae147ae
	comisd	xmm1, xmm0
	jb	SHORT $LN190@RenderFram

; 1701 : 			tmpVal	= 0.0F;

	movss	xmm0, DWORD PTR __real@00000000
	movss	DWORD PTR _tmpVal$34[ebp], xmm0
	jmp	SHORT $LN187@RenderFram
$LN190@RenderFram:

; 1702 : 		}
; 1703 : 		else if(tmpVal <= 1.03){

	cvtss2sd xmm0, DWORD PTR _tmpVal$34[ebp]
	movsd	xmm1, QWORD PTR __real@3ff07ae147ae147b
	comisd	xmm1, xmm0
	jb	SHORT $LN188@RenderFram

; 1704 : 			tmpVal	= (100.0F) /  (1.03F - 0.99F) * (tmpVal - 0.99F);

	movss	xmm0, DWORD PTR _tmpVal$34[ebp]
	subss	xmm0, DWORD PTR __real@3f7d70a4
	mulss	xmm0, DWORD PTR __real@451c400a
	movss	DWORD PTR _tmpVal$34[ebp], xmm0

; 1705 : 		}
; 1706 : 		else{

	jmp	SHORT $LN187@RenderFram
$LN188@RenderFram:

; 1707 : 			tmpVal	= 100.0F;

	movss	xmm0, DWORD PTR __real@42c80000
	movss	DWORD PTR _tmpVal$34[ebp], xmm0
$LN187@RenderFram:

; 1708 : 		}
; 1709 : 		//TJL 01/14/04 Multi-engine (just adding to the spaghetti code)
; 1710 : 		if(tmpVal2 <= 0.0F){

	movss	xmm0, DWORD PTR __real@00000000
	comiss	xmm0, DWORD PTR _tmpVal2$35[ebp]
	jb	SHORT $LN186@RenderFram

; 1711 : 			tmpVal2	= 100.0F;

	movss	xmm0, DWORD PTR __real@42c80000
	movss	DWORD PTR _tmpVal2$35[ebp], xmm0
	jmp	$LN179@RenderFram
$LN186@RenderFram:

; 1712 : 		}
; 1713 : 		else if(tmpVal2 <= 0.83F){

	movss	xmm0, DWORD PTR __real@3f547ae1
	comiss	xmm0, DWORD PTR _tmpVal2$35[ebp]
	jb	SHORT $LN184@RenderFram

; 1714 : 			tmpVal2	= 100.0F + (0.0F - 100.0F) /  (0.83F) * tmpVal2;

	movss	xmm0, DWORD PTR __real@c2f0f6c0
	mulss	xmm0, DWORD PTR _tmpVal2$35[ebp]
	addss	xmm0, DWORD PTR __real@42c80000
	movss	DWORD PTR _tmpVal2$35[ebp], xmm0
	jmp	SHORT $LN179@RenderFram
$LN184@RenderFram:

; 1715 : 		}
; 1716 : 		else if(tmpVal2 <= 0.99){

	cvtss2sd xmm0, DWORD PTR _tmpVal2$35[ebp]
	movsd	xmm1, QWORD PTR __real@3fefae147ae147ae
	comisd	xmm1, xmm0
	jb	SHORT $LN182@RenderFram

; 1717 : 			tmpVal2	= 0.0F;

	movss	xmm0, DWORD PTR __real@00000000
	movss	DWORD PTR _tmpVal2$35[ebp], xmm0
	jmp	SHORT $LN179@RenderFram
$LN182@RenderFram:

; 1718 : 		}
; 1719 : 		else if(tmpVal2 <= 1.03){

	cvtss2sd xmm0, DWORD PTR _tmpVal2$35[ebp]
	movsd	xmm1, QWORD PTR __real@3ff07ae147ae147b
	comisd	xmm1, xmm0
	jb	SHORT $LN180@RenderFram

; 1720 : 			tmpVal2	= (100.0F) /  (1.03F - 0.99F) * (tmpVal2 - 0.99F);

	movss	xmm0, DWORD PTR _tmpVal2$35[ebp]
	subss	xmm0, DWORD PTR __real@3f7d70a4
	mulss	xmm0, DWORD PTR __real@451c400a
	movss	DWORD PTR _tmpVal2$35[ebp], xmm0

; 1721 : 		}
; 1722 : 		else{

	jmp	SHORT $LN179@RenderFram
$LN180@RenderFram:

; 1723 : 			tmpVal2	= 100.0F;

	movss	xmm0, DWORD PTR __real@42c80000
	movss	DWORD PTR _tmpVal2$35[ebp], xmm0
$LN179@RenderFram:

; 1724 : 		}
; 1725 : 		cockpitFlightData.nozzlePos = tmpVal;

	movss	xmm0, DWORD PTR _tmpVal$34[ebp]
	movss	DWORD PTR ?cockpitFlightData@@3VFlightData@@A+68, xmm0

; 1726 : 		cockpitFlightData.nozzlePos2 = tmpVal2;

	movss	xmm0, DWORD PTR _tmpVal2$35[ebp]
	movss	DWORD PTR ?cockpitFlightData@@3VFlightData@@A+72, xmm0

; 1727 : 
; 1728 : 		//MI extracting Data
; 1729 : 		// get the chaff/flare count
; 1730 : 		cockpitFlightData.ChaffCount = 
; 1731 : 			ac->counterMeasureStation[CHAFF_STATION].weaponCount;

	mov	eax, 20					; 00000014H
	shl	eax, 0
	mov	ecx, DWORD PTR _ac$36[ebp]
	movsx	edx, WORD PTR [ecx+eax+1110]
	cvtsi2ss xmm0, edx
	movss	DWORD PTR ?cockpitFlightData@@3VFlightData@@A+148, xmm0

; 1732 : 		cockpitFlightData.FlareCount = 
; 1733 : 			ac->counterMeasureStation[FLARE_STATION].weaponCount;

	mov	eax, 20					; 00000014H
	imul	eax, 0
	mov	ecx, DWORD PTR _ac$36[ebp]
	movsx	edx, WORD PTR [ecx+eax+1110]
	cvtsi2ss xmm0, edx
	movss	DWORD PTR ?cockpitFlightData@@3VFlightData@@A+152, xmm0

; 1734 : 
; 1735 : 
; 1736 :         // get the DED lines
; 1737 : 		if(pCockpitManager->mpIcp){

	mov	eax, DWORD PTR _this$[ebp]
	mov	ecx, DWORD PTR [eax+33684]
	cmp	DWORD PTR [ecx+688], 0
	je	$LN164@RenderFram

; 1738 : 			OTWDriver.pCockpitManager->mpIcp->Exec();

	mov	edx, DWORD PTR ?OTWDriver@@3VOTWDriverClass@@A+33684
	mov	ecx, DWORD PTR [edx+688]
	call	?Exec@ICPClass@@QAEXXZ			; ICPClass::Exec

; 1739 : 			OTWDriver.pCockpitManager->mpIcp->ExecPfl();

	mov	eax, DWORD PTR ?OTWDriver@@3VOTWDriverClass@@A+33684
	mov	ecx, DWORD PTR [eax+688]
	call	?ExecPfl@ICPClass@@QAEXXZ		; ICPClass::ExecPfl

; 1740 : 			if(mFaults &&
; 1741 : 			    ac->HasPower(AircraftClass::UFCPower) &&
; 1742 : 				!mFaults->GetFault(FaultClass::ufc_fault)
; 1743 : 			){

	cmp	DWORD PTR _mFaults$25[ebp], 0
	je	$LN164@RenderFram
	push	8
	mov	ecx, DWORD PTR _ac$36[ebp]
	call	?HasPower@AircraftClass@@QAEHW4AvionicsPowerFlags@1@@Z ; AircraftClass::HasPower
	test	eax, eax
	je	$LN164@RenderFram
	push	28					; 0000001cH
	mov	ecx, DWORD PTR _mFaults$25[ebp]
	call	?GetFault@FackClass@@QAEHW4type_FSubSystem@FaultClass@@@Z ; FackClass::GetFault
	test	eax, eax
	jne	$LN164@RenderFram

; 1744 : 				for (int j = 0; j < 5; j++){

	mov	DWORD PTR _j$29[ebp], 0
	jmp	SHORT $LN176@RenderFram
$LN175@RenderFram:
	mov	ecx, DWORD PTR _j$29[ebp]
	add	ecx, 1
	mov	DWORD PTR _j$29[ebp], ecx
$LN176@RenderFram:
	cmp	DWORD PTR _j$29[ebp], 5
	jge	$LN174@RenderFram

; 1745 : 					for(int i = 0; i < 26; i++){

	mov	DWORD PTR _i$26[ebp], 0
	jmp	SHORT $LN173@RenderFram
$LN172@RenderFram:
	mov	edx, DWORD PTR _i$26[ebp]
	add	edx, 1
	mov	DWORD PTR _i$26[ebp], edx
$LN173@RenderFram:
	cmp	DWORD PTR _i$26[ebp], 26		; 0000001aH
	jge	SHORT $LN171@RenderFram

; 1746 : 						cockpitFlightData.DEDLines[j][i] = pCockpitManager->mpIcp->DEDLines[j][i];

	mov	eax, DWORD PTR _this$[ebp]
	mov	ecx, DWORD PTR [eax+33684]
	mov	edx, DWORD PTR [ecx+688]
	mov	eax, DWORD PTR _j$29[ebp]
	imul	eax, 26					; 0000001aH
	lea	ecx, DWORD PTR [edx+eax+764]
	mov	edx, DWORD PTR _j$29[ebp]
	imul	edx, 26					; 0000001aH
	mov	eax, DWORD PTR _i$26[ebp]
	mov	esi, DWORD PTR _i$26[ebp]
	mov	cl, BYTE PTR [ecx+esi]
	mov	BYTE PTR ?cockpitFlightData@@3VFlightData@@A[edx+eax+252], cl

; 1747 : 						cockpitFlightData.Invert[j][i] = pCockpitManager->mpIcp->Invert[j][i];

	mov	edx, DWORD PTR _this$[ebp]
	mov	eax, DWORD PTR [edx+33684]
	mov	ecx, DWORD PTR [eax+688]
	mov	edx, DWORD PTR _j$29[ebp]
	imul	edx, 26					; 0000001aH
	lea	eax, DWORD PTR [ecx+edx+894]
	mov	ecx, DWORD PTR _j$29[ebp]
	imul	ecx, 26					; 0000001aH
	mov	edx, DWORD PTR _i$26[ebp]
	mov	esi, DWORD PTR _i$26[ebp]
	mov	al, BYTE PTR [eax+esi]
	mov	BYTE PTR ?cockpitFlightData@@3VFlightData@@A[ecx+edx+382], al

; 1748 : 					}

	jmp	SHORT $LN172@RenderFram
$LN171@RenderFram:

; 1749 : 				}

	jmp	$LN175@RenderFram
$LN174@RenderFram:

; 1750 : 				for (int h = 0; h < 5; h++){

	mov	DWORD PTR _h$28[ebp], 0
	jmp	SHORT $LN170@RenderFram
$LN169@RenderFram:
	mov	ecx, DWORD PTR _h$28[ebp]
	add	ecx, 1
	mov	DWORD PTR _h$28[ebp], ecx
$LN170@RenderFram:
	cmp	DWORD PTR _h$28[ebp], 5
	jge	$LN168@RenderFram

; 1751 : 					for(int k = 0; k < 26; k++){

	mov	DWORD PTR _k$30[ebp], 0
	jmp	SHORT $LN167@RenderFram
$LN166@RenderFram:
	mov	edx, DWORD PTR _k$30[ebp]
	add	edx, 1
	mov	DWORD PTR _k$30[ebp], edx
$LN167@RenderFram:
	cmp	DWORD PTR _k$30[ebp], 26		; 0000001aH
	jge	SHORT $LN165@RenderFram

; 1752 : 						cockpitFlightData.PFLLines[h][k] = pCockpitManager->mpIcp->PFLLines[h][k];

	mov	eax, DWORD PTR _this$[ebp]
	mov	ecx, DWORD PTR [eax+33684]
	mov	edx, DWORD PTR [ecx+688]
	mov	eax, DWORD PTR _h$28[ebp]
	imul	eax, 26					; 0000001aH
	lea	ecx, DWORD PTR [edx+eax+1084]
	mov	edx, DWORD PTR _h$28[ebp]
	imul	edx, 26					; 0000001aH
	mov	eax, DWORD PTR _k$30[ebp]
	mov	esi, DWORD PTR _k$30[ebp]
	mov	cl, BYTE PTR [ecx+esi]
	mov	BYTE PTR ?cockpitFlightData@@3VFlightData@@A[edx+eax+512], cl

; 1753 : 						cockpitFlightData.PFLInvert[h][k] = pCockpitManager->mpIcp->PFLInvert[h][k];

	mov	edx, DWORD PTR _this$[ebp]
	mov	eax, DWORD PTR [edx+33684]
	mov	ecx, DWORD PTR [eax+688]
	mov	edx, DWORD PTR _h$28[ebp]
	imul	edx, 26					; 0000001aH
	lea	eax, DWORD PTR [ecx+edx+1214]
	mov	ecx, DWORD PTR _h$28[ebp]
	imul	ecx, 26					; 0000001aH
	mov	edx, DWORD PTR _k$30[ebp]
	mov	esi, DWORD PTR _k$30[ebp]
	mov	al, BYTE PTR [eax+esi]
	mov	BYTE PTR ?cockpitFlightData@@3VFlightData@@A[ecx+edx+642], al

; 1754 : 					}

	jmp	SHORT $LN166@RenderFram
$LN165@RenderFram:

; 1755 : 				}

	jmp	$LN169@RenderFram
$LN168@RenderFram:

; 1756 : 
; 1757 : 				//and UFC Tacan channel
; 1758 : 				if (gNavigationSys){

	cmp	DWORD PTR ?gNavigationSys@@3PAVNavigationSystem@@A, 0 ; gNavigationSys
	je	SHORT $LN164@RenderFram

; 1759 : 					cockpitFlightData.UFCTChan = gNavigationSys->GetTacanChannel(NavigationSystem::ICP);

	push	0
	mov	ecx, DWORD PTR ?gNavigationSys@@3PAVNavigationSystem@@A ; gNavigationSys
	call	?GetTacanChannel@NavigationSystem@@QAEHW4Tacan_Channel_Src@1@@Z ; NavigationSystem::GetTacanChannel
	mov	DWORD PTR ?cockpitFlightData@@3VFlightData@@A+772, eax
$LN164@RenderFram:

; 1760 : 				}
; 1761 : 			}
; 1762 : 		}
; 1763 : 
; 1764 : 		//update version of shared memarea
; 1765 : 		cockpitFlightData.VersionNum = 110;

	mov	DWORD PTR ?cockpitFlightData@@3VFlightData@@A+1276, 110 ; 0000006eH

; 1766 : 
; 1767 : 		//AUX Tacan channel
; 1768 : 		if(gNavigationSys){

	cmp	DWORD PTR ?gNavigationSys@@3PAVNavigationSystem@@A, 0 ; gNavigationSys
	je	SHORT $LN163@RenderFram

; 1769 : 			cockpitFlightData.AUXTChan = gNavigationSys->GetTacanChannel(NavigationSystem::AUXCOMM);

	push	1
	mov	ecx, DWORD PTR ?gNavigationSys@@3PAVNavigationSystem@@A ; gNavigationSys
	call	?GetTacanChannel@NavigationSystem@@QAEHW4Tacan_Channel_Src@1@@Z ; NavigationSystem::GetTacanChannel
	mov	DWORD PTR ?cockpitFlightData@@3VFlightData@@A+776, eax
$LN163@RenderFram:

; 1770 : 		}
; 1771 : 
; 1772 : 		// get the position of the three landing gears
; 1773 : 		cockpitFlightData.NoseGearPos = ac->GetDOFValue(ComplexGearDOF[0]);

	mov	ecx, 4
	imul	ecx, 0
	mov	edx, DWORD PTR ?ComplexGearDOF@@3PAHA[ecx]
	push	edx
	mov	ecx, DWORD PTR _ac$36[ebp]
	call	?GetDOFValue@SimMoverClass@@QAEMH@Z	; SimMoverClass::GetDOFValue
	fstp	DWORD PTR ?cockpitFlightData@@3VFlightData@@A+156

; 1774 : 		cockpitFlightData.LeftGearPos = ac->GetDOFValue(ComplexGearDOF[1]);

	mov	eax, 4
	shl	eax, 0
	mov	ecx, DWORD PTR ?ComplexGearDOF@@3PAHA[eax]
	push	ecx
	mov	ecx, DWORD PTR _ac$36[ebp]
	call	?GetDOFValue@SimMoverClass@@QAEMH@Z	; SimMoverClass::GetDOFValue
	fstp	DWORD PTR ?cockpitFlightData@@3VFlightData@@A+160

; 1775 : 		cockpitFlightData.RightGearPos = ac->GetDOFValue(ComplexGearDOF[2]);

	mov	edx, 4
	shl	edx, 1
	mov	eax, DWORD PTR ?ComplexGearDOF@@3PAHA[edx]
	push	eax
	mov	ecx, DWORD PTR _ac$36[ebp]
	call	?GetDOFValue@SimMoverClass@@QAEMH@Z	; SimMoverClass::GetDOFValue
	fstp	DWORD PTR ?cockpitFlightData@@3VFlightData@@A+164

; 1776 : 
; 1777 : 		// ADI data
; 1778 : 		cockpitFlightData.AdiIlsHorPos = pCockpitManager->ADIGpDevReading;

	mov	ecx, DWORD PTR _this$[ebp]
	mov	edx, DWORD PTR [ecx+33684]
	movss	xmm0, DWORD PTR [edx+704]
	movss	DWORD PTR ?cockpitFlightData@@3VFlightData@@A+168, xmm0

; 1779 : 		cockpitFlightData.AdiIlsVerPos = pCockpitManager->ADIGsDevReading;

	mov	eax, DWORD PTR _this$[ebp]
	mov	ecx, DWORD PTR [eax+33684]
	movss	xmm0, DWORD PTR [ecx+708]
	movss	DWORD PTR ?cockpitFlightData@@3VFlightData@@A+172, xmm0

; 1780 : 
; 1781 : 		if (
; 1782 : 			otwPlatform.get() == NULL ||
; 1783 : 			otwPlatform->IsExploding() ||
; 1784 : 			otwPlatform->IsDead() ||
; 1785 : 			!otwPlatform->IsAwake() ||
; 1786 : 			TheHud->Ownship() == NULL
; 1787 : 		){

	mov	ecx, DWORD PTR _this$[ebp]
	add	ecx, 32336				; 00007e50H
	call	?get@?$VuBin@VSimBaseClass@@@@QBEPAVSimBaseClass@@XZ ; VuBin<SimBaseClass>::get
	test	eax, eax
	je	$LN161@RenderFram
	mov	ecx, DWORD PTR _this$[ebp]
	add	ecx, 32336				; 00007e50H
	call	??C?$VuBin@VSimBaseClass@@@@QBEPAVSimBaseClass@@XZ ; VuBin<SimBaseClass>::operator->
	mov	DWORD PTR tv827[ebp], eax
	mov	edx, DWORD PTR tv827[ebp]
	mov	eax, DWORD PTR [edx]
	mov	ecx, DWORD PTR tv827[ebp]
	mov	edx, DWORD PTR [eax+208]
	call	edx
	test	eax, eax
	jne	SHORT $LN161@RenderFram
	mov	ecx, DWORD PTR _this$[ebp]
	add	ecx, 32336				; 00007e50H
	call	??C?$VuBin@VSimBaseClass@@@@QBEPAVSimBaseClass@@XZ ; VuBin<SimBaseClass>::operator->
	mov	DWORD PTR tv868[ebp], eax
	mov	eax, DWORD PTR tv868[ebp]
	mov	edx, DWORD PTR [eax]
	mov	ecx, DWORD PTR tv868[ebp]
	mov	eax, DWORD PTR [edx+340]
	call	eax
	test	eax, eax
	jne	SHORT $LN161@RenderFram
	mov	ecx, DWORD PTR _this$[ebp]
	add	ecx, 32336				; 00007e50H
	call	??C?$VuBin@VSimBaseClass@@@@QBEPAVSimBaseClass@@XZ ; VuBin<SimBaseClass>::operator->
	mov	ecx, eax
	call	?IsAwake@SimBaseClass@@QBEHXZ		; SimBaseClass::IsAwake
	test	eax, eax
	je	SHORT $LN161@RenderFram
	mov	ecx, DWORD PTR ?TheHud@@3PAVHudClass@@A	; TheHud
	call	?Ownship@HudClass@@QAEPAVAircraftClass@@XZ ; HudClass::Ownship
	test	eax, eax
	jne	SHORT $LN162@RenderFram
$LN161@RenderFram:

; 1788 : 			okToDoCockpitStuff = FALSE;

	mov	DWORD PTR _okToDoCockpitStuff$[ebp], 0
$LN162@RenderFram:

; 1789 : 		}
; 1790 : 
; 1791 : 		// HSI States
; 1792 : 		if(okToDoCockpitStuff && pCockpitManager->mpHsi && SimDriver.GetPlayerAircraft()){

	cmp	DWORD PTR _okToDoCockpitStuff$[ebp], 0
	je	SHORT $LN160@RenderFram
	mov	ecx, DWORD PTR _this$[ebp]
	mov	edx, DWORD PTR [ecx+33684]
	cmp	DWORD PTR [edx+692], 0
	je	SHORT $LN160@RenderFram
	mov	ecx, OFFSET ?SimDriver@@3VSimulationDriver@@A ; SimDriver
	call	?GetPlayerAircraft@SimulationDriver@@QBEPAVAircraftClass@@XZ ; SimulationDriver::GetPlayerAircraft
	test	eax, eax
	je	SHORT $LN160@RenderFram

; 1793 : 			pCockpitManager->mpHsi->Exec();

	mov	eax, DWORD PTR _this$[ebp]
	mov	ecx, DWORD PTR [eax+33684]
	mov	ecx, DWORD PTR [ecx+692]
	call	?Exec@CPHsi@@QAEXXZ			; CPHsi::Exec
$LN160@RenderFram:

; 1794 : 		}
; 1795 : 
; 1796 : 		cockpitFlightData.courseState = pCockpitManager->mpHsi->GetState(CPHsi::HSI_STA_CRS_STATE);

	push	0
	mov	edx, DWORD PTR _this$[ebp]
	mov	eax, DWORD PTR [edx+33684]
	mov	ecx, DWORD PTR [eax+692]
	call	?GetState@CPHsi@@QAEHW4HSIButtonStates@1@@Z ; CPHsi::GetState
	mov	DWORD PTR ?cockpitFlightData@@3VFlightData@@A+176, eax

; 1797 : 		cockpitFlightData.headingState = pCockpitManager->mpHsi->GetState(CPHsi::HSI_STA_HDG_STATE);

	push	1
	mov	ecx, DWORD PTR _this$[ebp]
	mov	edx, DWORD PTR [ecx+33684]
	mov	ecx, DWORD PTR [edx+692]
	call	?GetState@CPHsi@@QAEHW4HSIButtonStates@1@@Z ; CPHsi::GetState
	mov	DWORD PTR ?cockpitFlightData@@3VFlightData@@A+180, eax

; 1798 : 		cockpitFlightData.totalStates = pCockpitManager->mpHsi->GetState(CPHsi::HSI_STA_TOTAL_STATES);

	push	2
	mov	eax, DWORD PTR _this$[ebp]
	mov	ecx, DWORD PTR [eax+33684]
	mov	ecx, DWORD PTR [ecx+692]
	call	?GetState@CPHsi@@QAEHW4HSIButtonStates@1@@Z ; CPHsi::GetState
	mov	DWORD PTR ?cockpitFlightData@@3VFlightData@@A+184, eax

; 1799 : 		// HSI Values
; 1800 : 	    cockpitFlightData.courseDeviation = pCockpitManager->mpHsi->GetValue(CPHsi::HSI_VAL_CRS_DEVIATION);

	push	0
	mov	edx, DWORD PTR _this$[ebp]
	mov	eax, DWORD PTR [edx+33684]
	mov	ecx, DWORD PTR [eax+692]
	call	?GetValue@CPHsi@@QAEMW4HSIValues@1@@Z	; CPHsi::GetValue
	fstp	DWORD PTR ?cockpitFlightData@@3VFlightData@@A+188

; 1801 : 		cockpitFlightData.desiredCourse	= pCockpitManager->mpHsi->GetValue(CPHsi::HSI_VAL_DESIRED_CRS);

	push	1
	mov	ecx, DWORD PTR _this$[ebp]
	mov	edx, DWORD PTR [ecx+33684]
	mov	ecx, DWORD PTR [edx+692]
	call	?GetValue@CPHsi@@QAEMW4HSIValues@1@@Z	; CPHsi::GetValue
	fstp	DWORD PTR ?cockpitFlightData@@3VFlightData@@A+192

; 1802 : 		cockpitFlightData.distanceToBeacon = pCockpitManager->mpHsi->GetValue(CPHsi::HSI_VAL_DISTANCE_TO_BEACON);

	push	2
	mov	eax, DWORD PTR _this$[ebp]
	mov	ecx, DWORD PTR [eax+33684]
	mov	ecx, DWORD PTR [ecx+692]
	call	?GetValue@CPHsi@@QAEMW4HSIValues@1@@Z	; CPHsi::GetValue
	fstp	DWORD PTR ?cockpitFlightData@@3VFlightData@@A+196

; 1803 : 	    cockpitFlightData.bearingToBeacon = pCockpitManager->mpHsi->GetValue(CPHsi::HSI_VAL_BEARING_TO_BEACON);

	push	3
	mov	edx, DWORD PTR _this$[ebp]
	mov	eax, DWORD PTR [edx+33684]
	mov	ecx, DWORD PTR [eax+692]
	call	?GetValue@CPHsi@@QAEMW4HSIValues@1@@Z	; CPHsi::GetValue
	fstp	DWORD PTR ?cockpitFlightData@@3VFlightData@@A+200

; 1804 : 		cockpitFlightData.currentHeading = pCockpitManager->mpHsi->GetValue(CPHsi::HSI_VAL_CURRENT_HEADING);

	push	4
	mov	ecx, DWORD PTR _this$[ebp]
	mov	edx, DWORD PTR [ecx+33684]
	mov	ecx, DWORD PTR [edx+692]
	call	?GetValue@CPHsi@@QAEMW4HSIValues@1@@Z	; CPHsi::GetValue
	fstp	DWORD PTR ?cockpitFlightData@@3VFlightData@@A+204

; 1805 : 		cockpitFlightData.desiredHeading = pCockpitManager->mpHsi->GetValue(CPHsi::HSI_VAL_DESIRED_HEADING);

	push	5
	mov	eax, DWORD PTR _this$[ebp]
	mov	ecx, DWORD PTR [eax+33684]
	mov	ecx, DWORD PTR [ecx+692]
	call	?GetValue@CPHsi@@QAEMW4HSIValues@1@@Z	; CPHsi::GetValue
	fstp	DWORD PTR ?cockpitFlightData@@3VFlightData@@A+208

; 1806 : 		cockpitFlightData.deviationLimit = pCockpitManager->mpHsi->GetValue(CPHsi::HSI_VAL_DEV_LIMIT);

	push	6
	mov	edx, DWORD PTR _this$[ebp]
	mov	eax, DWORD PTR [edx+33684]
	mov	ecx, DWORD PTR [eax+692]
	call	?GetValue@CPHsi@@QAEMW4HSIValues@1@@Z	; CPHsi::GetValue
	fstp	DWORD PTR ?cockpitFlightData@@3VFlightData@@A+212

; 1807 : 		cockpitFlightData.halfDeviationLimit = pCockpitManager->mpHsi->GetValue(CPHsi::HSI_VAL_HALF_DEV_LIMIT);

	push	7
	mov	ecx, DWORD PTR _this$[ebp]
	mov	edx, DWORD PTR [ecx+33684]
	mov	ecx, DWORD PTR [edx+692]
	call	?GetValue@CPHsi@@QAEMW4HSIValues@1@@Z	; CPHsi::GetValue
	fstp	DWORD PTR ?cockpitFlightData@@3VFlightData@@A+216

; 1808 : 		cockpitFlightData.localizerCourse = pCockpitManager->mpHsi->GetValue(CPHsi::HSI_VAL_LOCALIZER_CRS);

	push	8
	mov	eax, DWORD PTR _this$[ebp]
	mov	ecx, DWORD PTR [eax+33684]
	mov	ecx, DWORD PTR [ecx+692]
	call	?GetValue@CPHsi@@QAEMW4HSIValues@1@@Z	; CPHsi::GetValue
	fstp	DWORD PTR ?cockpitFlightData@@3VFlightData@@A+220

; 1809 : 		cockpitFlightData.airbaseX = pCockpitManager->mpHsi->GetValue(CPHsi::HSI_VAL_AIRBASE_X);

	push	9
	mov	edx, DWORD PTR _this$[ebp]
	mov	eax, DWORD PTR [edx+33684]
	mov	ecx, DWORD PTR [eax+692]
	call	?GetValue@CPHsi@@QAEMW4HSIValues@1@@Z	; CPHsi::GetValue
	fstp	DWORD PTR ?cockpitFlightData@@3VFlightData@@A+224

; 1810 : 		cockpitFlightData.airbaseY = pCockpitManager->mpHsi->GetValue(CPHsi::HSI_VAL_AIRBASE_Y);

	push	10					; 0000000aH
	mov	ecx, DWORD PTR _this$[ebp]
	mov	edx, DWORD PTR [ecx+33684]
	mov	ecx, DWORD PTR [edx+692]
	call	?GetValue@CPHsi@@QAEMW4HSIValues@1@@Z	; CPHsi::GetValue
	fstp	DWORD PTR ?cockpitFlightData@@3VFlightData@@A+228

; 1811 : 		cockpitFlightData.totalValues = pCockpitManager->mpHsi->GetValue(CPHsi::HSI_VAL_TOTAL_VALUES);

	push	11					; 0000000bH
	mov	eax, DWORD PTR _this$[ebp]
	mov	ecx, DWORD PTR [eax+33684]
	mov	ecx, DWORD PTR [ecx+692]
	call	?GetValue@CPHsi@@QAEMW4HSIValues@1@@Z	; CPHsi::GetValue
	fstp	DWORD PTR ?cockpitFlightData@@3VFlightData@@A+232

; 1812 : 		
; 1813 : 		//ATARIBABY looks like FlightData::ToTrue is bad 
; 1814 : 		//cannot hold all needed states: false,true an 2
; 1815 : 		//so i use my own for 3d pit
; 1816 : 		HSITOFROM3d = pCockpitManager->mpHsi->GetFlag(CPHsi::HSI_FLAG_TO_TRUE);

	push	0
	mov	edx, DWORD PTR _this$[ebp]
	mov	eax, DWORD PTR [edx+33684]
	mov	ecx, DWORD PTR [eax+692]
	call	?GetFlag@CPHsi@@QAEHW4HSIFlags@1@@Z	; CPHsi::GetFlag
	mov	DWORD PTR ?HSITOFROM3d@@3HA, eax	; HSITOFROM3d

; 1817 : 		
; 1818 : 		// HSI Flags
; 1819 : 		if (pCockpitManager->mpHsi->GetFlag(CPHsi::HSI_FLAG_TO_TRUE)) 

	push	0
	mov	ecx, DWORD PTR _this$[ebp]
	mov	edx, DWORD PTR [ecx+33684]
	mov	ecx, DWORD PTR [edx+692]
	call	?GetFlag@CPHsi@@QAEHW4HSIFlags@1@@Z	; CPHsi::GetFlag
	test	eax, eax
	je	SHORT $LN159@RenderFram

; 1820 : 			cockpitFlightData.SetHsiBit(FlightData::ToTrue);

	push	1
	mov	ecx, OFFSET ?cockpitFlightData@@3VFlightData@@A ; cockpitFlightData
	call	?SetHsiBit@FlightData@@QAEXH@Z		; FlightData::SetHsiBit

; 1821 : 		else 

	jmp	SHORT $LN158@RenderFram
$LN159@RenderFram:

; 1822 : 			cockpitFlightData.ClearHsiBit(FlightData::ToTrue);

	push	1
	mov	ecx, OFFSET ?cockpitFlightData@@3VFlightData@@A ; cockpitFlightData
	call	?ClearHsiBit@FlightData@@QAEXH@Z	; FlightData::ClearHsiBit
$LN158@RenderFram:

; 1823 : 
; 1824 : 		if (pCockpitManager->mpHsi->GetFlag(CPHsi::HSI_FLAG_ILS_WARN)) 

	push	1
	mov	eax, DWORD PTR _this$[ebp]
	mov	ecx, DWORD PTR [eax+33684]
	mov	ecx, DWORD PTR [ecx+692]
	call	?GetFlag@CPHsi@@QAEHW4HSIFlags@1@@Z	; CPHsi::GetFlag
	test	eax, eax
	je	SHORT $LN157@RenderFram

; 1825 : 			cockpitFlightData.SetHsiBit(FlightData::IlsWarning);

	push	2
	mov	ecx, OFFSET ?cockpitFlightData@@3VFlightData@@A ; cockpitFlightData
	call	?SetHsiBit@FlightData@@QAEXH@Z		; FlightData::SetHsiBit

; 1826 : 		else 

	jmp	SHORT $LN156@RenderFram
$LN157@RenderFram:

; 1827 : 			cockpitFlightData.ClearHsiBit(FlightData::IlsWarning);

	push	2
	mov	ecx, OFFSET ?cockpitFlightData@@3VFlightData@@A ; cockpitFlightData
	call	?ClearHsiBit@FlightData@@QAEXH@Z	; FlightData::ClearHsiBit
$LN156@RenderFram:

; 1828 :         
; 1829 : 		if (pCockpitManager->mpHsi->GetFlag(CPHsi::HSI_FLAG_CRS_WARN)) 

	push	2
	mov	edx, DWORD PTR _this$[ebp]
	mov	eax, DWORD PTR [edx+33684]
	mov	ecx, DWORD PTR [eax+692]
	call	?GetFlag@CPHsi@@QAEHW4HSIFlags@1@@Z	; CPHsi::GetFlag
	test	eax, eax
	je	SHORT $LN155@RenderFram

; 1830 : 			cockpitFlightData.SetHsiBit(FlightData::CourseWarning);

	push	4
	mov	ecx, OFFSET ?cockpitFlightData@@3VFlightData@@A ; cockpitFlightData
	call	?SetHsiBit@FlightData@@QAEXH@Z		; FlightData::SetHsiBit

; 1831 : 		else 

	jmp	SHORT $LN154@RenderFram
$LN155@RenderFram:

; 1832 : 			cockpitFlightData.ClearHsiBit(FlightData::CourseWarning);

	push	4
	mov	ecx, OFFSET ?cockpitFlightData@@3VFlightData@@A ; cockpitFlightData
	call	?ClearHsiBit@FlightData@@QAEXH@Z	; FlightData::ClearHsiBit
$LN154@RenderFram:

; 1833 : 
; 1834 : 		if (pCockpitManager->mpHsi->GetFlag(CPHsi::HSI_FLAG_INIT)) 

	push	3
	mov	ecx, DWORD PTR _this$[ebp]
	mov	edx, DWORD PTR [ecx+33684]
	mov	ecx, DWORD PTR [edx+692]
	call	?GetFlag@CPHsi@@QAEHW4HSIFlags@1@@Z	; CPHsi::GetFlag
	test	eax, eax
	je	SHORT $LN153@RenderFram

; 1835 : 			cockpitFlightData.SetHsiBit(FlightData::Init);

	push	8
	mov	ecx, OFFSET ?cockpitFlightData@@3VFlightData@@A ; cockpitFlightData
	call	?SetHsiBit@FlightData@@QAEXH@Z		; FlightData::SetHsiBit

; 1836 : 		else 

	jmp	SHORT $LN152@RenderFram
$LN153@RenderFram:

; 1837 : 			cockpitFlightData.ClearHsiBit(FlightData::Init);

	push	8
	mov	ecx, OFFSET ?cockpitFlightData@@3VFlightData@@A ; cockpitFlightData
	call	?ClearHsiBit@FlightData@@QAEXH@Z	; FlightData::ClearHsiBit
$LN152@RenderFram:

; 1838 : 
; 1839 : 		if (pCockpitManager->mpHsi->GetFlag(CPHsi::HSI_FLAG_TOTAL_FLAGS)) 

	push	4
	mov	eax, DWORD PTR _this$[ebp]
	mov	ecx, DWORD PTR [eax+33684]
	mov	ecx, DWORD PTR [ecx+692]
	call	?GetFlag@CPHsi@@QAEHW4HSIFlags@1@@Z	; CPHsi::GetFlag
	test	eax, eax
	je	SHORT $LN151@RenderFram

; 1840 : 			cockpitFlightData.SetHsiBit(FlightData::TotalFlags);

	push	16					; 00000010H
	mov	ecx, OFFSET ?cockpitFlightData@@3VFlightData@@A ; cockpitFlightData
	call	?SetHsiBit@FlightData@@QAEXH@Z		; FlightData::SetHsiBit

; 1841 : 		else 

	jmp	SHORT $LN150@RenderFram
$LN151@RenderFram:

; 1842 : 			cockpitFlightData.ClearHsiBit(FlightData::TotalFlags);

	push	16					; 00000010H
	mov	ecx, OFFSET ?cockpitFlightData@@3VFlightData@@A ; cockpitFlightData
	call	?ClearHsiBit@FlightData@@QAEXH@Z	; FlightData::ClearHsiBit
$LN150@RenderFram:

; 1843 : 
; 1844 : 		// MD -- 20031011: Moved here to ensure the bits are set regardless of whether the player
; 1845 : 		// is looking at the cockpit panels or not.
; 1846 : 		if (SimDriver.GetPlayerAircraft()->INSState(AircraftClass::INS_ADI_OFF_IN))

	push	128					; 00000080H
	mov	ecx, OFFSET ?SimDriver@@3VSimulationDriver@@A ; SimDriver
	call	?GetPlayerAircraft@SimulationDriver@@QBEPAVAircraftClass@@XZ ; SimulationDriver::GetPlayerAircraft
	mov	ecx, eax
	call	?INSState@AircraftClass@@QAEHW4INSAlignFlags@1@@Z ; AircraftClass::INSState
	test	eax, eax
	je	SHORT $LN149@RenderFram

; 1847 : 			cockpitFlightData.ClearHsiBit(FlightData::ADI_OFF);

	push	32					; 00000020H
	mov	ecx, OFFSET ?cockpitFlightData@@3VFlightData@@A ; cockpitFlightData
	call	?ClearHsiBit@FlightData@@QAEXH@Z	; FlightData::ClearHsiBit

; 1848 : 		else

	jmp	SHORT $LN148@RenderFram
$LN149@RenderFram:

; 1849 : 			cockpitFlightData.SetHsiBit(FlightData::ADI_OFF);

	push	32					; 00000020H
	mov	ecx, OFFSET ?cockpitFlightData@@3VFlightData@@A ; cockpitFlightData
	call	?SetHsiBit@FlightData@@QAEXH@Z		; FlightData::SetHsiBit
$LN148@RenderFram:

; 1850 : 		
; 1851 : 		if (SimDriver.GetPlayerAircraft()->INSState(AircraftClass::INS_ADI_AUX_IN))

	push	256					; 00000100H
	mov	ecx, OFFSET ?SimDriver@@3VSimulationDriver@@A ; SimDriver
	call	?GetPlayerAircraft@SimulationDriver@@QBEPAVAircraftClass@@XZ ; SimulationDriver::GetPlayerAircraft
	mov	ecx, eax
	call	?INSState@AircraftClass@@QAEHW4INSAlignFlags@1@@Z ; AircraftClass::INSState
	test	eax, eax
	je	SHORT $LN147@RenderFram

; 1852 : 			cockpitFlightData.ClearHsiBit(FlightData::ADI_AUX);

	push	64					; 00000040H
	mov	ecx, OFFSET ?cockpitFlightData@@3VFlightData@@A ; cockpitFlightData
	call	?ClearHsiBit@FlightData@@QAEXH@Z	; FlightData::ClearHsiBit

; 1853 : 		else

	jmp	SHORT $LN146@RenderFram
$LN147@RenderFram:

; 1854 : 			cockpitFlightData.SetHsiBit(FlightData::ADI_AUX);

	push	64					; 00000040H
	mov	ecx, OFFSET ?cockpitFlightData@@3VFlightData@@A ; cockpitFlightData
	call	?SetHsiBit@FlightData@@QAEXH@Z		; FlightData::SetHsiBit
$LN146@RenderFram:

; 1855 : 
; 1856 : 		if (SimDriver.GetPlayerAircraft()->INSState(AircraftClass::INS_HSI_OFF_IN))

	push	2048					; 00000800H
	mov	ecx, OFFSET ?SimDriver@@3VSimulationDriver@@A ; SimDriver
	call	?GetPlayerAircraft@SimulationDriver@@QBEPAVAircraftClass@@XZ ; SimulationDriver::GetPlayerAircraft
	mov	ecx, eax
	call	?INSState@AircraftClass@@QAEHW4INSAlignFlags@1@@Z ; AircraftClass::INSState
	test	eax, eax
	je	SHORT $LN145@RenderFram

; 1857 : 			cockpitFlightData.ClearHsiBit(FlightData::HSI_OFF);

	push	512					; 00000200H
	mov	ecx, OFFSET ?cockpitFlightData@@3VFlightData@@A ; cockpitFlightData
	call	?ClearHsiBit@FlightData@@QAEXH@Z	; FlightData::ClearHsiBit

; 1858 : 		else

	jmp	SHORT $LN144@RenderFram
$LN145@RenderFram:

; 1859 : 			cockpitFlightData.SetHsiBit(FlightData::HSI_OFF);

	push	512					; 00000200H
	mov	ecx, OFFSET ?cockpitFlightData@@3VFlightData@@A ; cockpitFlightData
	call	?SetHsiBit@FlightData@@QAEXH@Z		; FlightData::SetHsiBit
$LN144@RenderFram:

; 1860 : 
; 1861 : 		if  (SimDriver.GetPlayerAircraft()->INSState(AircraftClass::BUP_ADI_OFF_IN))

	push	8192					; 00002000H
	mov	ecx, OFFSET ?SimDriver@@3VSimulationDriver@@A ; SimDriver
	call	?GetPlayerAircraft@SimulationDriver@@QBEPAVAircraftClass@@XZ ; SimulationDriver::GetPlayerAircraft
	mov	ecx, eax
	call	?INSState@AircraftClass@@QAEHW4INSAlignFlags@1@@Z ; AircraftClass::INSState
	test	eax, eax
	je	SHORT $LN143@RenderFram

; 1862 : 			cockpitFlightData.ClearHsiBit(FlightData::BUP_ADI_OFF);

	push	1024					; 00000400H
	mov	ecx, OFFSET ?cockpitFlightData@@3VFlightData@@A ; cockpitFlightData
	call	?ClearHsiBit@FlightData@@QAEXH@Z	; FlightData::ClearHsiBit

; 1863 : 		else

	jmp	SHORT $LN142@RenderFram
$LN143@RenderFram:

; 1864 : 			cockpitFlightData.SetHsiBit(FlightData::BUP_ADI_OFF);

	push	1024					; 00000400H
	mov	ecx, OFFSET ?cockpitFlightData@@3VFlightData@@A ; cockpitFlightData
	call	?SetHsiBit@FlightData@@QAEXH@Z		; FlightData::SetHsiBit
$LN142@RenderFram:

; 1865 : 
; 1866 : 		if (SimDriver.AVTROn())

	mov	ecx, OFFSET ?SimDriver@@3VSimulationDriver@@A ; SimDriver
	call	?AVTROn@SimulationDriver@@QAEHXZ	; SimulationDriver::AVTROn
	test	eax, eax
	je	SHORT $LN141@RenderFram

; 1867 : 			cockpitFlightData.SetHsiBit(FlightData::AVTR);

	push	8192					; 00002000H
	mov	ecx, OFFSET ?cockpitFlightData@@3VFlightData@@A ; cockpitFlightData
	call	?SetHsiBit@FlightData@@QAEXH@Z		; FlightData::SetHsiBit

; 1868 : 		else

	jmp	SHORT $LN140@RenderFram
$LN141@RenderFram:

; 1869 : 			cockpitFlightData.ClearHsiBit(FlightData::AVTR);

	push	8192					; 00002000H
	mov	ecx, OFFSET ?cockpitFlightData@@3VFlightData@@A ; cockpitFlightData
	call	?ClearHsiBit@FlightData@@QAEXH@Z	; FlightData::ClearHsiBit
$LN140@RenderFram:

; 1870 : 
; 1871 : 		if (SimDriver.GetPlayerAircraft()->GSValid == FALSE || SimDriver.GetPlayerAircraft()->currentPower == AircraftClass::PowerNone)

	mov	ecx, OFFSET ?SimDriver@@3VSimulationDriver@@A ; SimDriver
	call	?GetPlayerAircraft@SimulationDriver@@QBEPAVAircraftClass@@XZ ; SimulationDriver::GetPlayerAircraft
	movzx	edx, BYTE PTR [eax+836]
	test	edx, edx
	je	SHORT $LN138@RenderFram
	mov	ecx, OFFSET ?SimDriver@@3VSimulationDriver@@A ; SimDriver
	call	?GetPlayerAircraft@SimulationDriver@@QBEPAVAircraftClass@@XZ ; SimulationDriver::GetPlayerAircraft
	cmp	DWORD PTR [eax+1488], 0
	jne	SHORT $LN139@RenderFram
$LN138@RenderFram:

; 1872 : 			cockpitFlightData.SetHsiBit(FlightData::ADI_GS);

	push	128					; 00000080H
	mov	ecx, OFFSET ?cockpitFlightData@@3VFlightData@@A ; cockpitFlightData
	call	?SetHsiBit@FlightData@@QAEXH@Z		; FlightData::SetHsiBit

; 1873 : 		else

	jmp	SHORT $LN137@RenderFram
$LN139@RenderFram:

; 1874 : 			cockpitFlightData.ClearHsiBit(FlightData::ADI_GS);

	push	128					; 00000080H
	mov	ecx, OFFSET ?cockpitFlightData@@3VFlightData@@A ; cockpitFlightData
	call	?ClearHsiBit@FlightData@@QAEXH@Z	; FlightData::ClearHsiBit
$LN137@RenderFram:

; 1875 : 
; 1876 : 		if (SimDriver.GetPlayerAircraft()->LOCValid == FALSE || SimDriver.GetPlayerAircraft()->currentPower == AircraftClass::PowerNone)

	mov	ecx, OFFSET ?SimDriver@@3VSimulationDriver@@A ; SimDriver
	call	?GetPlayerAircraft@SimulationDriver@@QBEPAVAircraftClass@@XZ ; SimulationDriver::GetPlayerAircraft
	movzx	eax, BYTE PTR [eax+837]
	test	eax, eax
	je	SHORT $LN135@RenderFram
	mov	ecx, OFFSET ?SimDriver@@3VSimulationDriver@@A ; SimDriver
	call	?GetPlayerAircraft@SimulationDriver@@QBEPAVAircraftClass@@XZ ; SimulationDriver::GetPlayerAircraft
	cmp	DWORD PTR [eax+1488], 0
	jne	SHORT $LN136@RenderFram
$LN135@RenderFram:

; 1877 : 			cockpitFlightData.SetHsiBit(FlightData::ADI_LOC);

	push	256					; 00000100H
	mov	ecx, OFFSET ?cockpitFlightData@@3VFlightData@@A ; cockpitFlightData
	call	?SetHsiBit@FlightData@@QAEXH@Z		; FlightData::SetHsiBit

; 1878 : 		else

	jmp	SHORT $LN134@RenderFram
$LN136@RenderFram:

; 1879 : 			cockpitFlightData.ClearHsiBit(FlightData::ADI_LOC);

	push	256					; 00000100H
	mov	ecx, OFFSET ?cockpitFlightData@@3VFlightData@@A ; cockpitFlightData
	call	?ClearHsiBit@FlightData@@QAEXH@Z	; FlightData::ClearHsiBit
$LN134@RenderFram:

; 1880 : 
; 1881 : 		if (SimDriver.GetPlayerAircraft()->currentPower < AircraftClass::PowerEmergencyBus){

	mov	ecx, OFFSET ?SimDriver@@3VSimulationDriver@@A ; SimDriver
	call	?GetPlayerAircraft@SimulationDriver@@QBEPAVAircraftClass@@XZ ; SimulationDriver::GetPlayerAircraft
	cmp	DWORD PTR [eax+1488], 3
	jge	SHORT $LN133@RenderFram

; 1882 : 			cockpitFlightData.SetHsiBit(FlightData::VVI);

	push	2048					; 00000800H
	mov	ecx, OFFSET ?cockpitFlightData@@3VFlightData@@A ; cockpitFlightData
	call	?SetHsiBit@FlightData@@QAEXH@Z		; FlightData::SetHsiBit

; 1883 : 			cockpitFlightData.SetHsiBit(FlightData::AOA);

	push	4096					; 00001000H
	mov	ecx, OFFSET ?cockpitFlightData@@3VFlightData@@A ; cockpitFlightData
	call	?SetHsiBit@FlightData@@QAEXH@Z		; FlightData::SetHsiBit

; 1884 : 		}
; 1885 : 		else {

	jmp	SHORT $LN132@RenderFram
$LN133@RenderFram:

; 1886 : 			cockpitFlightData.ClearHsiBit(FlightData::VVI);

	push	2048					; 00000800H
	mov	ecx, OFFSET ?cockpitFlightData@@3VFlightData@@A ; cockpitFlightData
	call	?ClearHsiBit@FlightData@@QAEXH@Z	; FlightData::ClearHsiBit

; 1887 : 			cockpitFlightData.ClearHsiBit(FlightData::AOA);

	push	4096					; 00001000H
	mov	ecx, OFFSET ?cockpitFlightData@@3VFlightData@@A ; cockpitFlightData
	call	?ClearHsiBit@FlightData@@QAEXH@Z	; FlightData::ClearHsiBit
$LN132@RenderFram:

; 1888 : 		}
; 1889 : 
; 1890 : 		// MD -- 2003: end of SetHsiBit() fixes
; 1891 : 
; 1892 : 		// Oil Pressure
; 1893 : 		tmpVal = ac->af->rpm;

	mov	ecx, DWORD PTR _ac$36[ebp]
	mov	edx, DWORD PTR [ecx+932]
	movss	xmm0, DWORD PTR [edx+1212]
	movss	DWORD PTR _tmpVal$34[ebp], xmm0

; 1894 : 		tmpVal2 = ac->af->rpm2;//TJL 01/14/04 multi-engine

	mov	eax, DWORD PTR _ac$36[ebp]
	mov	ecx, DWORD PTR [eax+932]
	movss	xmm0, DWORD PTR [ecx+1216]
	movss	DWORD PTR _tmpVal2$35[ebp], xmm0

; 1895 : 		if (tmpVal < 0.7F){

	movss	xmm0, DWORD PTR __real@3f333333
	comiss	xmm0, DWORD PTR _tmpVal$34[ebp]
	jbe	SHORT $LN131@RenderFram

; 1896 : 			//tmpVal	= 40.0F;
; 1897 : 			//ATARIBABY fix 
; 1898 : 			tmpVal = tmpVal * 40 / 0.7f;

	movss	xmm0, DWORD PTR _tmpVal$34[ebp]
	mulss	xmm0, DWORD PTR __real@42200000
	divss	xmm0, DWORD PTR __real@3f333333
	movss	DWORD PTR _tmpVal$34[ebp], xmm0
	jmp	$LN124@RenderFram
$LN131@RenderFram:

; 1899 : 		}
; 1900 : 		else if (tmpVal <= 0.85){

	cvtss2sd xmm0, DWORD PTR _tmpVal$34[ebp]
	movsd	xmm1, QWORD PTR __real@3feb333333333333
	comisd	xmm1, xmm0
	jb	SHORT $LN129@RenderFram

; 1901 : 			tmpVal	= 40.0F + (100.0F - 40.0F) /  (0.85F - 0.7F) * (tmpVal - 0.7F);

	movss	xmm0, DWORD PTR _tmpVal$34[ebp]
	subss	xmm0, DWORD PTR __real@3f333333
	mulss	xmm0, DWORD PTR __real@43c7fffd
	addss	xmm0, DWORD PTR __real@42200000
	movss	DWORD PTR _tmpVal$34[ebp], xmm0
	jmp	SHORT $LN124@RenderFram
$LN129@RenderFram:

; 1902 : 		}
; 1903 : 		else if (tmpVal <= 1.0){

	cvtss2sd xmm0, DWORD PTR _tmpVal$34[ebp]
	movsd	xmm1, QWORD PTR __real@3ff0000000000000
	comisd	xmm1, xmm0
	jb	SHORT $LN127@RenderFram

; 1904 : 			tmpVal	= 100.0F;

	movss	xmm0, DWORD PTR __real@42c80000
	movss	DWORD PTR _tmpVal$34[ebp], xmm0
	jmp	SHORT $LN124@RenderFram
$LN127@RenderFram:

; 1905 : 		}
; 1906 : 		else if (tmpVal <= 1.03){

	cvtss2sd xmm0, DWORD PTR _tmpVal$34[ebp]
	movsd	xmm1, QWORD PTR __real@3ff07ae147ae147b
	comisd	xmm1, xmm0
	jb	SHORT $LN125@RenderFram

; 1907 : 			tmpVal	= 100.0F + (103.0F - 100.0F) /  (1.03F - 1.0F) * (tmpVal - 1.00F);

	movss	xmm0, DWORD PTR _tmpVal$34[ebp]
	subss	xmm0, DWORD PTR __real@3f800000
	mulss	xmm0, DWORD PTR __real@42c8000d
	addss	xmm0, DWORD PTR __real@42c80000
	movss	DWORD PTR _tmpVal$34[ebp], xmm0

; 1908 : 		}
; 1909 : 		else {

	jmp	SHORT $LN124@RenderFram
$LN125@RenderFram:

; 1910 : 			tmpVal	= 103.0F;

	movss	xmm0, DWORD PTR __real@42ce0000
	movss	DWORD PTR _tmpVal$34[ebp], xmm0
$LN124@RenderFram:

; 1911 : 		}
; 1912 : 		//TJL 01/14/04 Multi-engine (stop the insanity)
; 1913 : 		if (tmpVal2 < 0.7F){

	movss	xmm0, DWORD PTR __real@3f333333
	comiss	xmm0, DWORD PTR _tmpVal2$35[ebp]
	jbe	SHORT $LN123@RenderFram

; 1914 : 			//tmpVal2	= 40.0F;
; 1915 : 			//ATARIBABY fix 
; 1916 : 			tmpVal2 = tmpVal2 * 40 / 0.7f;

	movss	xmm0, DWORD PTR _tmpVal2$35[ebp]
	mulss	xmm0, DWORD PTR __real@42200000
	divss	xmm0, DWORD PTR __real@3f333333
	movss	DWORD PTR _tmpVal2$35[ebp], xmm0
	jmp	$LN116@RenderFram
$LN123@RenderFram:

; 1917 : 		}
; 1918 : 		else if (tmpVal2 <= 0.85){

	cvtss2sd xmm0, DWORD PTR _tmpVal2$35[ebp]
	movsd	xmm1, QWORD PTR __real@3feb333333333333
	comisd	xmm1, xmm0
	jb	SHORT $LN121@RenderFram

; 1919 : 			tmpVal2	= 40.0F + (100.0F - 40.0F) /  (0.85F - 0.7F) * (tmpVal2 - 0.7F);

	movss	xmm0, DWORD PTR _tmpVal2$35[ebp]
	subss	xmm0, DWORD PTR __real@3f333333
	mulss	xmm0, DWORD PTR __real@43c7fffd
	addss	xmm0, DWORD PTR __real@42200000
	movss	DWORD PTR _tmpVal2$35[ebp], xmm0
	jmp	SHORT $LN116@RenderFram
$LN121@RenderFram:

; 1920 : 		}
; 1921 : 		else if (tmpVal2 <= 1.0){

	cvtss2sd xmm0, DWORD PTR _tmpVal2$35[ebp]
	movsd	xmm1, QWORD PTR __real@3ff0000000000000
	comisd	xmm1, xmm0
	jb	SHORT $LN119@RenderFram

; 1922 : 			tmpVal2	= 100.0F;

	movss	xmm0, DWORD PTR __real@42c80000
	movss	DWORD PTR _tmpVal2$35[ebp], xmm0
	jmp	SHORT $LN116@RenderFram
$LN119@RenderFram:

; 1923 : 		}
; 1924 : 		else if (tmpVal2 <= 1.03){

	cvtss2sd xmm0, DWORD PTR _tmpVal2$35[ebp]
	movsd	xmm1, QWORD PTR __real@3ff07ae147ae147b
	comisd	xmm1, xmm0
	jb	SHORT $LN117@RenderFram

; 1925 : 			tmpVal2	= 100.0F + (103.0F - 100.0F) /  (1.03F - 1.0F) * (tmpVal2 - 1.00F);

	movss	xmm0, DWORD PTR _tmpVal2$35[ebp]
	subss	xmm0, DWORD PTR __real@3f800000
	mulss	xmm0, DWORD PTR __real@42c8000d
	addss	xmm0, DWORD PTR __real@42c80000
	movss	DWORD PTR _tmpVal2$35[ebp], xmm0

; 1926 : 		}
; 1927 : 		else{

	jmp	SHORT $LN116@RenderFram
$LN117@RenderFram:

; 1928 : 			tmpVal2	= 103.0F;

	movss	xmm0, DWORD PTR __real@42ce0000
	movss	DWORD PTR _tmpVal2$35[ebp], xmm0
$LN116@RenderFram:

; 1929 : 		}
; 1930 : 
; 1931 : 		//Trim values
; 1932 : 		cockpitFlightData.TrimPitch = UserStickInputs.ptrim;

	movss	xmm0, DWORD PTR ?UserStickInputs@@3VPilotInputs@@A+84
	movss	DWORD PTR ?cockpitFlightData@@3VFlightData@@A+236, xmm0

; 1933 : 		cockpitFlightData.TrimRoll = UserStickInputs.rtrim;

	movss	xmm0, DWORD PTR ?UserStickInputs@@3VPilotInputs@@A+88
	movss	DWORD PTR ?cockpitFlightData@@3VFlightData@@A+240, xmm0

; 1934 : 		cockpitFlightData.TrimYaw = UserStickInputs.ytrim;

	movss	xmm0, DWORD PTR ?UserStickInputs@@3VPilotInputs@@A+92
	movss	DWORD PTR ?cockpitFlightData@@3VFlightData@@A+244, xmm0

; 1935 : 
; 1936 : 		cockpitFlightData.oilPressure = tmpVal;

	movss	xmm0, DWORD PTR _tmpVal$34[ebp]
	movss	DWORD PTR ?cockpitFlightData@@3VFlightData@@A+116, xmm0

; 1937 : 		cockpitFlightData.oilPressure2 = tmpVal2;

	movss	xmm0, DWORD PTR _tmpVal2$35[ebp]
	movss	DWORD PTR ?cockpitFlightData@@3VFlightData@@A+120, xmm0

; 1938 : 
; 1939 : 		//if ((gSharedMemPtr)&&(!g_bEnableTrackIR))	// Retro 02/10/03
; 1940 : 		if (gSharedMemPtr){

	cmp	DWORD PTR ?gSharedMemPtr@@3PAXA, 0	; gSharedMemPtr
	je	SHORT $LN115@RenderFram

; 1941 : 			//if (!mHelmetIsUR)
; 1942 : 			// Retro 8Jan2004 - almost killed the shared mem for good, silly me :/
; 1943 : 			if ((!mHelmetIsUR)&&(!g_bEnableTrackIR)){

	cmp	DWORD PTR ?mHelmetIsUR@@3JA, 0		; mHelmetIsUR
	jne	SHORT $LN114@RenderFram
	movzx	edx, BYTE PTR ?g_bEnableTrackIR@@3_NA	; g_bEnableTrackIR
	test	edx, edx
	jne	SHORT $LN114@RenderFram

; 1944 : 				cockpitFlightData.headYaw = ((FlightData*)gSharedMemPtr)->headYaw;

	mov	eax, DWORD PTR ?gSharedMemPtr@@3PAXA	; gSharedMemPtr
	movss	xmm0, DWORD PTR [eax+136]
	movss	DWORD PTR ?cockpitFlightData@@3VFlightData@@A+136, xmm0

; 1945 : 				cockpitFlightData.headPitch = ((FlightData*)gSharedMemPtr)->headPitch;

	mov	ecx, DWORD PTR ?gSharedMemPtr@@3PAXA	; gSharedMemPtr
	movss	xmm0, DWORD PTR [ecx+128]
	movss	DWORD PTR ?cockpitFlightData@@3VFlightData@@A+128, xmm0

; 1946 : 				cockpitFlightData.headRoll = ((FlightData*)gSharedMemPtr)->headRoll;

	mov	edx, DWORD PTR ?gSharedMemPtr@@3PAXA	; gSharedMemPtr
	movss	xmm0, DWORD PTR [edx+132]
	movss	DWORD PTR ?cockpitFlightData@@3VFlightData@@A+132, xmm0
$LN114@RenderFram:

; 1947 : 			}
; 1948 : 			memcpy (gSharedMemPtr, &cockpitFlightData, sizeof (FlightData));

	push	1960					; 000007a8H
	push	OFFSET ?cockpitFlightData@@3VFlightData@@A ; cockpitFlightData
	mov	eax, DWORD PTR ?gSharedMemPtr@@3PAXA	; gSharedMemPtr
	push	eax
	call	_memcpy
	add	esp, 12					; 0000000cH
$LN115@RenderFram:

; 1949 : 		}
; 1950 : 	}
; 1951 : 	//STOP_PROFILE("RENDER 3DPIT");
; 1952 : 
; 1953 : 	// Set up the camera based on the current view chosen
; 1954 : 	if (endFlightTimer || flybyTimer){

	mov	ecx, DWORD PTR _this$[ebp]
	cmp	DWORD PTR [ecx+33540], 0
	jne	SHORT $LN112@RenderFram
	mov	edx, DWORD PTR _this$[ebp]
	cmp	DWORD PTR [edx+33544], 0
	je	SHORT $LN113@RenderFram
$LN112@RenderFram:

; 1955 : 		SetFlybyCameraPosition(dT);

	push	ecx
	movss	xmm0, DWORD PTR _dT$[ebp]
	movss	DWORD PTR [esp], xmm0
	mov	ecx, DWORD PTR _this$[ebp]
	call	?SetFlybyCameraPosition@OTWDriverClass@@AAEXM@Z ; OTWDriverClass::SetFlybyCameraPosition
	jmp	$LN104@RenderFram
$LN113@RenderFram:

; 1956 : 	}
; 1957 : 	else if (eyeFly){

	mov	eax, DWORD PTR _this$[ebp]
	cmp	DWORD PTR [eax+32200], 0
	je	SHORT $LN110@RenderFram

; 1958 : 		SetEyeFlyCameraPosition(dT);

	push	ecx
	movss	xmm0, DWORD PTR _dT$[ebp]
	movss	DWORD PTR [esp], xmm0
	mov	ecx, DWORD PTR _this$[ebp]
	call	?SetEyeFlyCameraPosition@OTWDriverClass@@AAEXM@Z ; OTWDriverClass::SetEyeFlyCameraPosition
	jmp	$LN104@RenderFram
$LN110@RenderFram:

; 1959 : 	}
; 1960 : 	else if (otwPlatform.get() != NULL){

	mov	ecx, DWORD PTR _this$[ebp]
	add	ecx, 32336				; 00007e50H
	call	?get@?$VuBin@VSimBaseClass@@@@QBEPAVSimBaseClass@@XZ ; VuBin<SimBaseClass>::get
	test	eax, eax
	je	SHORT $LN108@RenderFram

; 1961 : 		// If we _were_ in eyeFly and now aren't, clean up.
; 1962 : 		// SCR:  Could this be better done once at mode change???
; 1963 : 		if (eyeFlyTgt){

	cmp	DWORD PTR ?eyeFlyTgt@@3PAVSimBaseClass@@A, 0 ; eyeFlyTgt
	je	SHORT $LN107@RenderFram

; 1964 : 			eyeFlyTgt->drawPointer->SetLabel ("", 0x0);

	push	0
	push	OFFSET ??_C@_00CNPNBAHC@?$AA@
	mov	ecx, DWORD PTR ?eyeFlyTgt@@3PAVSimBaseClass@@A ; eyeFlyTgt
	mov	edx, DWORD PTR [ecx+332]
	mov	eax, DWORD PTR ?eyeFlyTgt@@3PAVSimBaseClass@@A ; eyeFlyTgt
	mov	edx, DWORD PTR [edx]
	mov	ecx, DWORD PTR [eax+332]
	mov	eax, DWORD PTR [edx+8]
	call	eax

; 1965 : 			eyeFlyTgt = NULL;

	mov	DWORD PTR ?eyeFlyTgt@@3PAVSimBaseClass@@A, 0 ; eyeFlyTgt
$LN107@RenderFram:

; 1966 : 		}
; 1967 : 
; 1968 : 		// Select on of the "standard" views
; 1969 : 		if (DisplayInCockpit()){

	mov	ecx, DWORD PTR _this$[ebp]
	call	?DisplayInCockpit@OTWDriverClass@@QAEHXZ ; OTWDriverClass::DisplayInCockpit
	test	eax, eax
	je	SHORT $LN106@RenderFram

; 1970 : 			SetInternalCameraPosition(dT);

	push	ecx
	movss	xmm0, DWORD PTR _dT$[ebp]
	movss	DWORD PTR [esp], xmm0
	mov	ecx, DWORD PTR _this$[ebp]
	call	?SetInternalCameraPosition@OTWDriverClass@@AAEXM@Z ; OTWDriverClass::SetInternalCameraPosition

; 1971 : 		}
; 1972 : 		else{

	jmp	SHORT $LN105@RenderFram
$LN106@RenderFram:

; 1973 : 			SetExternalCameraPosition(dT);

	push	ecx
	movss	xmm0, DWORD PTR _dT$[ebp]
	movss	DWORD PTR [esp], xmm0
	mov	ecx, DWORD PTR _this$[ebp]
	call	?SetExternalCameraPosition@OTWDriverClass@@AAEXM@Z ; OTWDriverClass::SetExternalCameraPosition
$LN105@RenderFram:

; 1974 : 		}
; 1975 : 	}
; 1976 : 	else{

	jmp	SHORT $LN104@RenderFram
$LN108@RenderFram:

; 1977 : 		SetExternalCameraPosition(dT);

	push	ecx
	movss	xmm0, DWORD PTR _dT$[ebp]
	movss	DWORD PTR [esp], xmm0
	mov	ecx, DWORD PTR _this$[ebp]
	call	?SetExternalCameraPosition@OTWDriverClass@@AAEXM@Z ; OTWDriverClass::SetExternalCameraPosition
$LN104@RenderFram:

; 1978 : 		//	SetFlybyCameraPosition(dT);
; 1979 : 	}
; 1980 : 
; 1981 : 
; 1982 : 
; 1983 : 	// Compute the new viewpoint position
; 1984 : 	ObserverPosition.x=viewPos.x = focusPoint.x + cameraPos.x;

	mov	ecx, DWORD PTR _this$[ebp]
	mov	edx, DWORD PTR _this$[ebp]
	movss	xmm0, DWORD PTR [ecx+33428]
	addss	xmm0, DWORD PTR [edx+33440]
	movss	DWORD PTR _viewPos$[ebp], xmm0
	movss	xmm0, DWORD PTR _viewPos$[ebp]
	movss	DWORD PTR ?ObserverPosition@@3UTpoint@@A, xmm0

; 1985 : 	ObserverPosition.y=viewPos.y = focusPoint.y + cameraPos.y;

	mov	eax, DWORD PTR _this$[ebp]
	mov	ecx, DWORD PTR _this$[ebp]
	movss	xmm0, DWORD PTR [eax+33432]
	addss	xmm0, DWORD PTR [ecx+33444]
	movss	DWORD PTR _viewPos$[ebp+4], xmm0
	movss	xmm0, DWORD PTR _viewPos$[ebp+4]
	movss	DWORD PTR ?ObserverPosition@@3UTpoint@@A+4, xmm0

; 1986 : 	ObserverPosition.z=viewPos.z = focusPoint.z + cameraPos.z;

	mov	edx, DWORD PTR _this$[ebp]
	mov	eax, DWORD PTR _this$[ebp]
	movss	xmm0, DWORD PTR [edx+33436]
	addss	xmm0, DWORD PTR [eax+33448]
	movss	DWORD PTR _viewPos$[ebp+8], xmm0
	movss	xmm0, DWORD PTR _viewPos$[ebp+8]
	movss	DWORD PTR ?ObserverPosition@@3UTpoint@@A+8, xmm0

; 1987 : 
; 1988 : 	ObserverYaw=flyingEye->Yaw();

	mov	ecx, DWORD PTR _this$[ebp]
	mov	ecx, DWORD PTR [ecx+32348]
	call	?Yaw@VuEntity@@QBEMXZ			; VuEntity::Yaw
	fstp	DWORD PTR ?ObserverYaw@@3MA		; ObserverYaw

; 1989 : 	ObserverPitch=flyingEye->Pitch();

	mov	edx, DWORD PTR _this$[ebp]
	mov	ecx, DWORD PTR [edx+32348]
	call	?Pitch@VuEntity@@QBEMXZ			; VuEntity::Pitch
	fstp	DWORD PTR ?ObserverPitch@@3MA		; ObserverPitch

; 1990 : 	ObserverRoll=flyingEye->Roll();

	mov	eax, DWORD PTR _this$[ebp]
	mov	ecx, DWORD PTR [eax+32348]
	call	?Roll@VuEntity@@QBEMXZ			; VuEntity::Roll
	fstp	DWORD PTR ?ObserverRoll@@3MA		; ObserverRoll

; 1991 : 
; 1992 : 	if ((otwPlatform.get() != NULL) && /*otwPlatform->IsAirplane() &&*/ gSharedIntellivibe){

	mov	ecx, DWORD PTR _this$[ebp]
	add	ecx, 32336				; 00007e50H
	call	?get@?$VuBin@VSimBaseClass@@@@QBEPAVSimBaseClass@@XZ ; VuBin<SimBaseClass>::get
	test	eax, eax
	je	$LN103@RenderFram
	cmp	DWORD PTR ?gSharedIntellivibe@@3PAXA, 0	; gSharedIntellivibe
	je	$LN103@RenderFram

; 1993 : 		g_intellivibeData.eyex = viewPos.x;

	movss	xmm0, DWORD PTR _viewPos$[ebp]
	movss	DWORD PTR ?g_intellivibeData@@3VIntellivibeData@@A+28, xmm0

; 1994 : 		g_intellivibeData.eyey = viewPos.y;

	movss	xmm0, DWORD PTR _viewPos$[ebp+4]
	movss	DWORD PTR ?g_intellivibeData@@3VIntellivibeData@@A+32, xmm0

; 1995 : 		g_intellivibeData.eyez = viewPos.z;

	movss	xmm0, DWORD PTR _viewPos$[ebp+8]
	movss	DWORD PTR ?g_intellivibeData@@3VIntellivibeData@@A+36, xmm0

; 1996 : 		g_intellivibeData.IsFrozen = SimDriver.MotionOn() == 0;

	mov	ecx, OFFSET ?SimDriver@@3VSimulationDriver@@A ; SimDriver
	call	?MotionOn@SimulationDriver@@QAEHXZ	; SimulationDriver::MotionOn
	test	eax, eax
	jne	SHORT $LN229@RenderFram
	mov	DWORD PTR tv1328[ebp], 1
	jmp	SHORT $LN230@RenderFram
$LN229@RenderFram:
	mov	DWORD PTR tv1328[ebp], 0
$LN230@RenderFram:
	mov	cl, BYTE PTR tv1328[ebp]
	mov	BYTE PTR ?g_intellivibeData@@3VIntellivibeData@@A+17, cl

; 1997 : 		g_intellivibeData.IsPaused = targetCompressionRatio == 0;

	cmp	DWORD PTR ?targetCompressionRatio@@3HA, 0 ; targetCompressionRatio
	jne	SHORT $LN231@RenderFram
	mov	DWORD PTR tv1331[ebp], 1
	jmp	SHORT $LN232@RenderFram
$LN231@RenderFram:
	mov	DWORD PTR tv1331[ebp], 0
$LN232@RenderFram:
	mov	dl, BYTE PTR tv1331[ebp]
	mov	BYTE PTR ?g_intellivibeData@@3VIntellivibeData@@A+16, dl

; 1998 : 		g_intellivibeData.IsFiringGun = otwPlatform->IsFiring() != 0;

	mov	ecx, DWORD PTR _this$[ebp]
	add	ecx, 32336				; 00007e50H
	call	??C?$VuBin@VSimBaseClass@@@@QBEPAVSimBaseClass@@XZ ; VuBin<SimBaseClass>::operator->
	mov	ecx, eax
	call	?IsFiring@SimBaseClass@@QBEHXZ		; SimBaseClass::IsFiring
	test	eax, eax
	je	SHORT $LN233@RenderFram
	mov	DWORD PTR tv1339[ebp], 1
	jmp	SHORT $LN234@RenderFram
$LN233@RenderFram:
	mov	DWORD PTR tv1339[ebp], 0
$LN234@RenderFram:
	mov	al, BYTE PTR tv1339[ebp]
	mov	BYTE PTR ?g_intellivibeData@@3VIntellivibeData@@A+12, al

; 1999 : 		g_intellivibeData.IsEjecting = otwPlatform->IsEject() != 0;

	mov	ecx, DWORD PTR _this$[ebp]
	add	ecx, 32336				; 00007e50H
	call	??C?$VuBin@VSimBaseClass@@@@QBEPAVSimBaseClass@@XZ ; VuBin<SimBaseClass>::operator->
	mov	DWORD PTR tv1349[ebp], eax
	mov	ecx, DWORD PTR tv1349[ebp]
	mov	edx, DWORD PTR [ecx]
	mov	ecx, DWORD PTR tv1349[ebp]
	mov	eax, DWORD PTR [edx+188]
	call	eax
	test	eax, eax
	je	SHORT $LN235@RenderFram
	mov	DWORD PTR tv1354[ebp], 1
	jmp	SHORT $LN236@RenderFram
$LN235@RenderFram:
	mov	DWORD PTR tv1354[ebp], 0
$LN236@RenderFram:
	mov	cl, BYTE PTR tv1354[ebp]
	mov	BYTE PTR ?g_intellivibeData@@3VIntellivibeData@@A+14, cl

; 2000 : 		g_intellivibeData.IsOnGround = otwPlatform->OnGround() != 0;

	mov	ecx, DWORD PTR _this$[ebp]
	add	ecx, 32336				; 00007e50H
	call	??C?$VuBin@VSimBaseClass@@@@QBEPAVSimBaseClass@@XZ ; VuBin<SimBaseClass>::operator->
	mov	DWORD PTR tv1364[ebp], eax
	mov	edx, DWORD PTR tv1364[ebp]
	mov	eax, DWORD PTR [edx]
	mov	ecx, DWORD PTR tv1364[ebp]
	mov	edx, DWORD PTR [eax+148]
	call	edx
	test	eax, eax
	je	SHORT $LN237@RenderFram
	mov	DWORD PTR tv1369[ebp], 1
	jmp	SHORT $LN238@RenderFram
$LN237@RenderFram:
	mov	DWORD PTR tv1369[ebp], 0
$LN238@RenderFram:
	mov	al, BYTE PTR tv1369[ebp]
	mov	BYTE PTR ?g_intellivibeData@@3VIntellivibeData@@A+19, al

; 2001 : 		
; 2002 : 		if (otwPlatform->IsAirplane()){

	mov	ecx, DWORD PTR _this$[ebp]
	add	ecx, 32336				; 00007e50H
	call	??C?$VuBin@VSimBaseClass@@@@QBEPAVSimBaseClass@@XZ ; VuBin<SimBaseClass>::operator->
	mov	DWORD PTR tv1379[ebp], eax
	mov	ecx, DWORD PTR tv1379[ebp]
	mov	edx, DWORD PTR [ecx]
	mov	ecx, DWORD PTR tv1379[ebp]
	mov	eax, DWORD PTR [edx+192]
	call	eax
	test	eax, eax
	je	SHORT $LN102@RenderFram

; 2003 : 		  AircraftClass *air = static_cast<AircraftClass*>(otwPlatform.get());

	mov	ecx, DWORD PTR _this$[ebp]
	add	ecx, 32336				; 00007e50H
	call	?get@?$VuBin@VSimBaseClass@@@@QBEPAVSimBaseClass@@XZ ; VuBin<SimBaseClass>::get
	mov	DWORD PTR _air$16[ebp], eax

; 2004 : 		  g_intellivibeData.Gforce = air->GetNz();

	mov	ecx, DWORD PTR _air$16[ebp]
	mov	edx, DWORD PTR [ecx]
	mov	ecx, DWORD PTR _air$16[ebp]
	mov	eax, DWORD PTR [edx+424]
	call	eax
	fstp	DWORD PTR ?g_intellivibeData@@3VIntellivibeData@@A+24
$LN102@RenderFram:

; 2005 : 		}
; 2006 : 		memcpy (gSharedIntellivibe, &g_intellivibeData, sizeof(g_intellivibeData));

	push	52					; 00000034H
	push	OFFSET ?g_intellivibeData@@3VIntellivibeData@@A ; g_intellivibeData
	mov	ecx, DWORD PTR ?gSharedIntellivibe@@3PAXA ; gSharedIntellivibe
	push	ecx
	call	_memcpy
	add	esp, 12					; 0000000cH
$LN103@RenderFram:

; 2007 : 	}
; 2008 : 
; 2009 : 	// edg: this is a band aid solution for the action cam.  It seems that
; 2010 : 	// something is causing cameraPos to have wild numbers -- perhaps an
; 2011 : 	// uninitialed matrix or something somewhere.  Since the maximum range for
; 2012 : 	// this camera is +/- 20000, in satellite mode, we'll clamp the values
; 2013 : 	// here....
; 2014 : 	// LRKLUDGE Keep the action camera happy. NOTE: We need to find out why it is going out into left field
; 2015 : 	// edg: actually, there's no reason to restrict this to action camera...
; 2016 : 
; 2017 : 	// if ( actionCameraMode )
; 2018 : 	{
; 2019 : 		if ( _isnan (viewPos.x) || !_finite(viewPos.x)){

	cvtss2sd xmm0, DWORD PTR _viewPos$[ebp]
	sub	esp, 8
	movsd	QWORD PTR [esp], xmm0
	call	__isnan
	add	esp, 8
	test	eax, eax
	jne	SHORT $LN100@RenderFram
	cvtss2sd xmm0, DWORD PTR _viewPos$[ebp]
	sub	esp, 8
	movsd	QWORD PTR [esp], xmm0
	call	__finite
	add	esp, 8
	test	eax, eax
	jne	SHORT $LN101@RenderFram
$LN100@RenderFram:

; 2020 : 			ShiWarning ("Bad action camera X pos: Why?");
; 2021 : 			viewPos.x = 250000.0f;

	movss	xmm0, DWORD PTR __real@48742400
	movss	DWORD PTR _viewPos$[ebp], xmm0
$LN101@RenderFram:

; 2022 : 		}
; 2023 : 
; 2024 : 		if ( _isnan (viewPos.y) || !_finite(viewPos.y)){

	cvtss2sd xmm0, DWORD PTR _viewPos$[ebp+4]
	sub	esp, 8
	movsd	QWORD PTR [esp], xmm0
	call	__isnan
	add	esp, 8
	test	eax, eax
	jne	SHORT $LN98@RenderFram
	cvtss2sd xmm0, DWORD PTR _viewPos$[ebp+4]
	sub	esp, 8
	movsd	QWORD PTR [esp], xmm0
	call	__finite
	add	esp, 8
	test	eax, eax
	jne	SHORT $LN99@RenderFram
$LN98@RenderFram:

; 2025 : 			ShiWarning ("Bad action camera Y pos: Why?");
; 2026 : 			viewPos.y = 250000.0f;

	movss	xmm0, DWORD PTR __real@48742400
	movss	DWORD PTR _viewPos$[ebp+4], xmm0
$LN99@RenderFram:

; 2027 : 		}
; 2028 : 
; 2029 : 		if ( _isnan (viewPos.z) || !_finite(viewPos.z)){

	cvtss2sd xmm0, DWORD PTR _viewPos$[ebp+8]
	sub	esp, 8
	movsd	QWORD PTR [esp], xmm0
	call	__isnan
	add	esp, 8
	test	eax, eax
	jne	SHORT $LN96@RenderFram
	cvtss2sd xmm0, DWORD PTR _viewPos$[ebp+8]
	sub	esp, 8
	movsd	QWORD PTR [esp], xmm0
	call	__finite
	add	esp, 8
	test	eax, eax
	jne	SHORT $LN97@RenderFram
$LN96@RenderFram:

; 2030 : 			ShiWarning ("Bad action camera Z pos: Why?");
; 2031 : 			viewPos.z = -10000.0f;

	movss	xmm0, DWORD PTR __real@c61c4000
	movss	DWORD PTR _viewPos$[ebp+8], xmm0
$LN97@RenderFram:

; 2032 : 		}
; 2033 : 	}
; 2034 : 
; 2035 : 	// now we want to tell the bubble rebuild where our camera is if we're
; 2036 : 	// not attached to the player.  we do this by setting attaching and/or
; 2037 : 	// setting the position of the camera entity.
; 2038 : 	camCount = FalconLocalSession->CameraCount(); 

	mov	ecx, OFFSET ?vuLocalSessionEntity@@3V?$VuBin@VVuSessionEntity@@@@A ; vuLocalSessionEntity
	call	?get@?$VuBin@VVuSessionEntity@@@@QBEPAVVuSessionEntity@@XZ ; VuBin<VuSessionEntity>::get
	mov	ecx, eax
	call	?CameraCount@VuSessionEntity@@QBEHXZ	; VuSessionEntity::CameraCount
	mov	DWORD PTR _camCount$[ebp], eax

; 2039 : 	if ( otwPlatform.get() != SimDriver.GetPlayerAircraft() ){

	mov	ecx, DWORD PTR _this$[ebp]
	add	ecx, 32336				; 00007e50H
	call	?get@?$VuBin@VSimBaseClass@@@@QBEPAVSimBaseClass@@XZ ; VuBin<SimBaseClass>::get
	mov	esi, eax
	mov	ecx, OFFSET ?SimDriver@@3VSimulationDriver@@A ; SimDriver
	call	?GetPlayerAircraft@SimulationDriver@@QBEPAVAircraftClass@@XZ ; SimulationDriver::GetPlayerAircraft
	cmp	esi, eax
	je	$LN95@RenderFram

; 2040 : 		gOtwCameraLocation->SetPosition (viewPos.x, viewPos.y, viewPos.z);

	push	ecx
	movss	xmm0, DWORD PTR _viewPos$[ebp+8]
	movss	DWORD PTR [esp], xmm0
	push	ecx
	movss	xmm0, DWORD PTR _viewPos$[ebp+4]
	movss	DWORD PTR [esp], xmm0
	push	ecx
	movss	xmm0, DWORD PTR _viewPos$[ebp]
	movss	DWORD PTR [esp], xmm0
	mov	ecx, DWORD PTR ?gOtwCameraLocation@@3PAVFalconEntity@@A ; gOtwCameraLocation
	call	?SetPosition@VuEntity@@QAEXMMM@Z	; VuEntity::SetPosition

; 2041 : 		if ( camCount <= 1 ){

	cmp	DWORD PTR _camCount$[ebp], 1
	jg	SHORT $LN94@RenderFram

; 2042 : 			FalconLocalSession->AttachCamera (gOtwCameraLocation);

	push	0
	mov	edx, DWORD PTR ?gOtwCameraLocation@@3PAVFalconEntity@@A ; gOtwCameraLocation
	push	edx
	mov	ecx, OFFSET ?vuLocalSessionEntity@@3V?$VuBin@VVuSessionEntity@@@@A ; vuLocalSessionEntity
	call	?get@?$VuBin@VVuSessionEntity@@@@QBEPAVVuSessionEntity@@XZ ; VuBin<VuSessionEntity>::get
	mov	ecx, eax
	call	?AttachCamera@VuSessionEntity@@QAEHPAVVuEntity@@_N@Z ; VuSessionEntity::AttachCamera

; 2043 : 		}
; 2044 : 		else {

	jmp	$LN88@RenderFram
$LN94@RenderFram:

; 2045 : 			for (i=0; i<camCount; i++){

	mov	DWORD PTR _i$[ebp], 0
	jmp	SHORT $LN92@RenderFram
$LN91@RenderFram:
	mov	eax, DWORD PTR _i$[ebp]
	add	eax, 1
	mov	DWORD PTR _i$[ebp], eax
$LN92@RenderFram:
	mov	ecx, DWORD PTR _i$[ebp]
	cmp	ecx, DWORD PTR _camCount$[ebp]
	jge	SHORT $LN90@RenderFram

; 2046 : 				if (FalconLocalSession->GetCameraEntity(i) == gOtwCameraLocation){

	movzx	edx, BYTE PTR _i$[ebp]
	push	edx
	mov	ecx, OFFSET ?vuLocalSessionEntity@@3V?$VuBin@VVuSessionEntity@@@@A ; vuLocalSessionEntity
	call	?get@?$VuBin@VVuSessionEntity@@@@QBEPAVVuSessionEntity@@XZ ; VuBin<VuSessionEntity>::get
	mov	ecx, eax
	call	?GetCameraEntity@VuSessionEntity@@QBEPAVVuEntity@@E@Z ; VuSessionEntity::GetCameraEntity
	cmp	eax, DWORD PTR ?gOtwCameraLocation@@3PAVFalconEntity@@A ; gOtwCameraLocation
	jne	SHORT $LN89@RenderFram

; 2047 : 					break;

	jmp	SHORT $LN90@RenderFram
$LN89@RenderFram:

; 2048 : 				}
; 2049 : 			}

	jmp	SHORT $LN91@RenderFram
$LN90@RenderFram:

; 2050 : 
; 2051 : 			if (i == camCount ){

	mov	eax, DWORD PTR _i$[ebp]
	cmp	eax, DWORD PTR _camCount$[ebp]
	jne	SHORT $LN88@RenderFram

; 2052 : 				// sfr: THIS IS EXTREMELY DANGEROUS CODE
; 2053 : 				// remove 2nd camera (should be mav camera) and insert ourself
; 2054 : 				//if (!F4IsBadReadPtr(FalconLocalSession->GetCameraEntity(1), sizeof(VuEntity))) // JB 010318 CTD
; 2055 : 				if (FalconLocalSession->CameraCount() > 1){

	mov	ecx, OFFSET ?vuLocalSessionEntity@@3V?$VuBin@VVuSessionEntity@@@@A ; vuLocalSessionEntity
	call	?get@?$VuBin@VVuSessionEntity@@@@QBEPAVVuSessionEntity@@XZ ; VuBin<VuSessionEntity>::get
	mov	ecx, eax
	call	?CameraCount@VuSessionEntity@@QBEHXZ	; VuSessionEntity::CameraCount
	cmp	eax, 1
	jle	SHORT $LN87@RenderFram

; 2056 : 					FalconLocalSession->RemoveCamera(FalconLocalSession->GetCameraEntity(1));

	push	0
	push	1
	mov	ecx, OFFSET ?vuLocalSessionEntity@@3V?$VuBin@VVuSessionEntity@@@@A ; vuLocalSessionEntity
	call	?get@?$VuBin@VVuSessionEntity@@@@QBEPAVVuSessionEntity@@XZ ; VuBin<VuSessionEntity>::get
	mov	ecx, eax
	call	?GetCameraEntity@VuSessionEntity@@QBEPAVVuEntity@@E@Z ; VuSessionEntity::GetCameraEntity
	push	eax
	mov	ecx, OFFSET ?vuLocalSessionEntity@@3V?$VuBin@VVuSessionEntity@@@@A ; vuLocalSessionEntity
	call	?get@?$VuBin@VVuSessionEntity@@@@QBEPAVVuSessionEntity@@XZ ; VuBin<VuSessionEntity>::get
	mov	ecx, eax
	call	?RemoveCamera@VuSessionEntity@@QAEHPAVVuEntity@@_N@Z ; VuSessionEntity::RemoveCamera
$LN87@RenderFram:

; 2057 : 				}
; 2058 : 				FalconLocalSession->AttachCamera(gOtwCameraLocation);

	push	0
	mov	ecx, DWORD PTR ?gOtwCameraLocation@@3PAVFalconEntity@@A ; gOtwCameraLocation
	push	ecx
	mov	ecx, OFFSET ?vuLocalSessionEntity@@3V?$VuBin@VVuSessionEntity@@@@A ; vuLocalSessionEntity
	call	?get@?$VuBin@VVuSessionEntity@@@@QBEPAVVuSessionEntity@@XZ ; VuBin<VuSessionEntity>::get
	mov	ecx, eax
	call	?AttachCamera@VuSessionEntity@@QAEHPAVVuEntity@@_N@Z ; VuSessionEntity::AttachCamera
$LN88@RenderFram:

; 2059 : 			}
; 2060 : 		}

	jmp	SHORT $LN85@RenderFram
$LN95@RenderFram:

; 2061 : 	}
; 2062 : 	else if ( camCount > 1 ){

	cmp	DWORD PTR _camCount$[ebp], 1
	jle	SHORT $LN85@RenderFram

; 2063 : 		// sfr: cleanup camera mess
; 2064 : 		FalconLocalSession->RemoveCamera(gOtwCameraLocation);

	push	0
	mov	edx, DWORD PTR ?gOtwCameraLocation@@3PAVFalconEntity@@A ; gOtwCameraLocation
	push	edx
	mov	ecx, OFFSET ?vuLocalSessionEntity@@3V?$VuBin@VVuSessionEntity@@@@A ; vuLocalSessionEntity
	call	?get@?$VuBin@VVuSessionEntity@@@@QBEPAVVuSessionEntity@@XZ ; VuBin<VuSessionEntity>::get
	mov	ecx, eax
	call	?RemoveCamera@VuSessionEntity@@QAEHPAVVuEntity@@_N@Z ; VuSessionEntity::RemoveCamera
$LN85@RenderFram:

; 2065 : 	}
; 2066 : 
; 2067 : 	// Keep the viewpoint above ground
; 2068 : 	GetAreaFloorAndCeiling(&bottom, &top);

	lea	eax, DWORD PTR _top$[ebp]
	push	eax
	lea	ecx, DWORD PTR _bottom$[ebp]
	push	ecx
	mov	ecx, DWORD PTR _this$[ebp]
	call	?GetAreaFloorAndCeiling@OTWDriverClass@@QAEXPAM0@Z ; OTWDriverClass::GetAreaFloorAndCeiling

; 2069 : 	if (viewPos.z > top){

	movss	xmm0, DWORD PTR _viewPos$[ebp+8]
	comiss	xmm0, DWORD PTR _top$[ebp]
	jbe	$LN84@RenderFram

; 2070 : 		viewPos.z = min (viewPos.z, GetGroundLevel(viewPos.x, viewPos.y) - 5.0F);

	push	0
	push	ecx
	movss	xmm0, DWORD PTR _viewPos$[ebp+4]
	movss	DWORD PTR [esp], xmm0
	push	ecx
	movss	xmm0, DWORD PTR _viewPos$[ebp]
	movss	DWORD PTR [esp], xmm0
	mov	ecx, DWORD PTR _this$[ebp]
	call	?GetGroundLevel@OTWDriverClass@@QAEMMMPAUTpoint@@@Z ; OTWDriverClass::GetGroundLevel
	fstp	DWORD PTR tv3325[ebp]
	movss	xmm0, DWORD PTR tv3325[ebp]
	subss	xmm0, DWORD PTR __real@40a00000
	comiss	xmm0, DWORD PTR _viewPos$[ebp+8]
	jbe	SHORT $LN239@RenderFram
	movss	xmm0, DWORD PTR _viewPos$[ebp+8]
	movss	DWORD PTR tv1588[ebp], xmm0
	jmp	SHORT $LN240@RenderFram
$LN239@RenderFram:
	push	0
	push	ecx
	movss	xmm0, DWORD PTR _viewPos$[ebp+4]
	movss	DWORD PTR [esp], xmm0
	push	ecx
	movss	xmm0, DWORD PTR _viewPos$[ebp]
	movss	DWORD PTR [esp], xmm0
	mov	ecx, DWORD PTR _this$[ebp]
	call	?GetGroundLevel@OTWDriverClass@@QAEMMMPAUTpoint@@@Z ; OTWDriverClass::GetGroundLevel
	fstp	DWORD PTR tv3334[ebp]
	movss	xmm0, DWORD PTR tv3334[ebp]
	subss	xmm0, DWORD PTR __real@40a00000
	movss	DWORD PTR tv1588[ebp], xmm0
$LN240@RenderFram:
	movss	xmm0, DWORD PTR tv1588[ebp]
	movss	DWORD PTR _viewPos$[ebp+8], xmm0
$LN84@RenderFram:

; 2071 : 	}
; 2072 : 
; 2073 : 	// Now update everyone
; 2074 : 	viewPoint->Update(&viewPos);

	lea	edx, DWORD PTR _viewPos$[ebp]
	push	edx
	mov	eax, DWORD PTR _this$[ebp]
	mov	ecx, DWORD PTR [eax+32148]
	call	?Update@RViewPoint@@QAEXPBUTpoint@@@Z	; RViewPoint::Update

; 2075 : 	//F4SoundFXSetCamPos( viewPos.x, viewPos.y, viewPos.z );
; 2076 : 	// MLR 2003-10-17  10-27 returned to normal
; 2077 : 	F4SoundFXSetCamPosAndOrient(&viewPos, &cameraRot, &cameraVel);

	mov	ecx, DWORD PTR _this$[ebp]
	add	ecx, 33488				; 000082d0H
	push	ecx
	mov	edx, DWORD PTR _this$[ebp]
	add	edx, 33452				; 000082acH
	push	edx
	lea	eax, DWORD PTR _viewPos$[ebp]
	push	eax
	call	_F4SoundFXSetCamPosAndOrient
	add	esp, 12					; 0000000cH

; 2078 : 	
; 2079 : 	TheTimeManager.SetTime(vuxGameTime + (unsigned long)FloatToInt32(todOffset * 1000.0F));

	mov	ecx, DWORD PTR _this$[ebp]
	movss	xmm0, DWORD PTR [ecx+32052]
	mulss	xmm0, DWORD PTR __real@447a0000
	push	ecx
	movss	DWORD PTR [esp], xmm0
	call	?FloatToInt32@@YAHM@Z			; FloatToInt32
	add	esp, 4
	add	eax, DWORD PTR ?vuxGameTime@@3KA	; vuxGameTime
	push	eax
	mov	ecx, OFFSET ?TheTimeManager@@3VTimeManager@@A ; TheTimeManager
	call	?SetTime@TimeManager@@QAEXK@Z		; TimeManager::SetTime

; 2080 : 	((WeatherClass*)realWeather)->UpdateWeather();

	mov	ecx, DWORD PTR ?realWeather@@3PAVRealWeather@@A ; realWeather
	call	?UpdateWeather@WeatherClass@@QAEXXZ	; WeatherClass::UpdateWeather

; 2081 : 
; 2082 : 	BuildExternalNearList();

	mov	ecx, DWORD PTR _this$[ebp]
	call	?BuildExternalNearList@OTWDriverClass@@AAEXXZ ; OTWDriverClass::BuildExternalNearList

; 2083 : 
; 2084 : 
; 2085 : 	// Set up the black out effects
; 2086 : 	if (
; 2087 : 		DisplayInCockpit() && doGLOC && 
; 2088 : 		(otwPlatform.get() == SimDriver.GetPlayerAircraft()) && (otwPlatform.get() != NULL)
; 2089 : 	){

	mov	ecx, DWORD PTR _this$[ebp]
	call	?DisplayInCockpit@OTWDriverClass@@QAEHXZ ; OTWDriverClass::DisplayInCockpit
	test	eax, eax
	je	$LN83@RenderFram
	mov	edx, DWORD PTR _this$[ebp]
	cmp	DWORD PTR [edx+32172], 0
	je	$LN83@RenderFram
	mov	ecx, DWORD PTR _this$[ebp]
	add	ecx, 32336				; 00007e50H
	call	?get@?$VuBin@VSimBaseClass@@@@QBEPAVSimBaseClass@@XZ ; VuBin<SimBaseClass>::get
	mov	esi, eax
	mov	ecx, OFFSET ?SimDriver@@3VSimulationDriver@@A ; SimDriver
	call	?GetPlayerAircraft@SimulationDriver@@QBEPAVAircraftClass@@XZ ; SimulationDriver::GetPlayerAircraft
	cmp	esi, eax
	jne	$LN83@RenderFram
	mov	ecx, DWORD PTR _this$[ebp]
	add	ecx, 32336				; 00007e50H
	call	?get@?$VuBin@VSimBaseClass@@@@QBEPAVSimBaseClass@@XZ ; VuBin<SimBaseClass>::get
	test	eax, eax
	je	$LN83@RenderFram

; 2090 : 		AircraftClass *ac = static_cast<AircraftClass*>(otwPlatform.get());

	mov	ecx, DWORD PTR _this$[ebp]
	add	ecx, 32336				; 00007e50H
	call	?get@?$VuBin@VSimBaseClass@@@@QBEPAVSimBaseClass@@XZ ; VuBin<SimBaseClass>::get
	mov	DWORD PTR _ac$12[ebp], eax

; 2091 : 		float glocFactor = ac->glocFactor;

	mov	eax, DWORD PTR _ac$12[ebp]
	movss	xmm0, DWORD PTR [eax+912]
	movss	DWORD PTR _glocFactor$22[ebp], xmm0

; 2092 : 
; 2093 : 		if (glocFactor >= 0.0F){

	movss	xmm0, DWORD PTR _glocFactor$22[ebp]
	comiss	xmm0, DWORD PTR __real@00000000
	jb	SHORT $LN82@RenderFram

; 2094 : 			renderer->SetTunnelPercent( glocFactor, 0 );

	push	0
	push	ecx
	movss	xmm0, DWORD PTR _glocFactor$22[ebp]
	movss	DWORD PTR [esp], xmm0
	mov	ecx, DWORD PTR _this$[ebp]
	mov	ecx, DWORD PTR [ecx+33576]
	call	?SetTunnelPercent@RenderOTW@@QAEXMK@Z	; RenderOTW::SetTunnelPercent

; 2095 : 		}
; 2096 : 		else {

	jmp	SHORT $LN81@RenderFram
$LN82@RenderFram:

; 2097 : 			renderer->SetTunnelPercent( -glocFactor, FloatToInt32(-255.0F * glocFactor) );

	movss	xmm0, DWORD PTR __real@c37f0000
	mulss	xmm0, DWORD PTR _glocFactor$22[ebp]
	push	ecx
	movss	DWORD PTR [esp], xmm0
	call	?FloatToInt32@@YAHM@Z			; FloatToInt32
	add	esp, 4
	push	eax
	movss	xmm0, DWORD PTR _glocFactor$22[ebp]
	xorps	xmm0, DWORD PTR __xmm@80000000800000008000000080000000
	push	ecx
	movss	DWORD PTR [esp], xmm0
	mov	edx, DWORD PTR _this$[ebp]
	mov	ecx, DWORD PTR [edx+33576]
	call	?SetTunnelPercent@RenderOTW@@QAEXMK@Z	; RenderOTW::SetTunnelPercent
$LN81@RenderFram:

; 2098 : 		}

	jmp	$LN77@RenderFram
$LN83@RenderFram:

; 2099 : 	}
; 2100 : 	else if ( endFlightTimer ){

	mov	eax, DWORD PTR _this$[ebp]
	cmp	DWORD PTR [eax+33540], 0
	je	$LN79@RenderFram

; 2101 : 		float pct = (float)(endFlightTimer - vuxRealTime)/5000.0f;

	mov	ecx, DWORD PTR _this$[ebp]
	mov	edx, DWORD PTR [ecx+33540]
	sub	edx, DWORD PTR ?vuxRealTime@@3KA	; vuxRealTime
	mov	DWORD PTR tv3370[ebp], edx
	cvtsi2sd xmm0, DWORD PTR tv3370[ebp]
	mov	eax, DWORD PTR tv3370[ebp]
	shr	eax, 31					; 0000001fH
	addsd	xmm0, QWORD PTR __xmm@41f00000000000000000000000000000[eax*8]
	movsd	QWORD PTR tv3373[ebp], xmm0
	cvtsd2ss xmm0, QWORD PTR tv3373[ebp]
	divss	xmm0, DWORD PTR __real@459c4000
	movss	DWORD PTR _pct$27[ebp], xmm0

; 2102 : 		pct = 1.0f - pct;

	movss	xmm0, DWORD PTR __real@3f800000
	subss	xmm0, DWORD PTR _pct$27[ebp]
	movss	DWORD PTR _pct$27[ebp], xmm0

; 2103 : 		pct *= pct;

	movss	xmm0, DWORD PTR _pct$27[ebp]
	mulss	xmm0, DWORD PTR _pct$27[ebp]
	movss	DWORD PTR _pct$27[ebp], xmm0

; 2104 : 		if ( vuxRealTime > endFlightTimer )

	mov	ecx, DWORD PTR _this$[ebp]
	mov	edx, DWORD PTR ?vuxRealTime@@3KA	; vuxRealTime
	cmp	edx, DWORD PTR [ecx+33540]
	jbe	SHORT $LN78@RenderFram

; 2105 : 			pct = 1.0f;

	movss	xmm0, DWORD PTR __real@3f800000
	movss	DWORD PTR _pct$27[ebp], xmm0
$LN78@RenderFram:

; 2106 : 		renderer->SetTunnelPercent( pct, 0 );

	push	0
	push	ecx
	movss	xmm0, DWORD PTR _pct$27[ebp]
	movss	DWORD PTR [esp], xmm0
	mov	eax, DWORD PTR _this$[ebp]
	mov	ecx, DWORD PTR [eax+33576]
	call	?SetTunnelPercent@RenderOTW@@QAEXMK@Z	; RenderOTW::SetTunnelPercent

; 2107 : 	}
; 2108 : 	else{

	jmp	SHORT $LN77@RenderFram
$LN79@RenderFram:

; 2109 : 		renderer->SetTunnelPercent( 0.0F, 0 );

	push	0
	push	ecx
	movss	xmm0, DWORD PTR __real@00000000
	movss	DWORD PTR [esp], xmm0
	mov	ecx, DWORD PTR _this$[ebp]
	mov	ecx, DWORD PTR [ecx+33576]
	call	?SetTunnelPercent@RenderOTW@@QAEXMK@Z	; RenderOTW::SetTunnelPercent
$LN77@RenderFram:

; 2110 : 	}
; 2111 : 
; 2112 : 	// COBRA - DX - Flip here, to make some work parallel to the GPU and increase fps
; 2113 : 	if (g_intellivibeData.In3D){ OTWImage->SwapBuffers(false); }

	movzx	edx, BYTE PTR ?g_intellivibeData@@3VIntellivibeData@@A+15
	test	edx, edx
	je	SHORT $LN76@RenderFram
	push	0
	mov	eax, DWORD PTR _this$[ebp]
	mov	ecx, DWORD PTR [eax+32040]
	call	?SwapBuffers@ImageBuffer@@QAEX_N@Z	; ImageBuffer::SwapBuffers
$LN76@RenderFram:

; 2114 : 	//if(!SkipSwap){ OTWImage->SwapBuffers(false); }
; 2115 : 	SkipSwap = false;

	mov	ecx, DWORD PTR _this$[ebp]
	mov	BYTE PTR [ecx+33512], 0

; 2116 : 
; 2117 : 	// RED - If the camera changed, preload the scene objects
; 2118 : 	// if(CameraChange) renderer->PreLoadScene(NULL, NULL), CameraChange = false;
; 2119 : 
; 2120 : 	//JAM 12Dec03
; 2121 : 	if (DisplayOptions.bZBuffering){ renderer->context.SetZBuffering(TRUE); }

	movzx	edx, BYTE PTR ?DisplayOptions@@3VDisplayOptionsClass@@A+16
	test	edx, edx
	je	SHORT $LN75@RenderFram
	push	1
	mov	eax, DWORD PTR _this$[ebp]
	mov	ecx, DWORD PTR [eax+33576]
	add	ecx, 100				; 00000064H
	call	?SetZBuffering@ContextMPR@@QAEXH@Z	; ContextMPR::SetZBuffering
$LN75@RenderFram:

; 2122 : 
; 2123 : 	// Actually draw the scene
; 2124 : 	renderer->context.StartFrame();

	mov	ecx, DWORD PTR _this$[ebp]
	mov	ecx, DWORD PTR [ecx+33576]
	add	ecx, 100				; 00000064H
	call	?StartFrame@ContextMPR@@QAEXXZ		; ContextMPR::StartFrame

; 2125 : 	renderer->StartDraw();

	mov	edx, DWORD PTR _this$[ebp]
	mov	eax, DWORD PTR [edx+33576]
	mov	ecx, DWORD PTR _this$[ebp]
	mov	edx, DWORD PTR [eax]
	mov	ecx, DWORD PTR [ecx+33576]
	mov	eax, DWORD PTR [edx+12]
	call	eax

; 2126 : 	// Avoid any remaining from TV colors & Settings
; 2127 : 	TheDXEngine.ResetState();

	mov	ecx, OFFSET ?TheDXEngine@@3VCDXEngine@@A ; TheDXEngine
	call	?ResetState@CDXEngine@@QAEXXZ		; CDXEngine::ResetState

; 2128 : 	// Select the right mode
; 2129 : 	if( renderer->context.NVGmode ) TheDXEngine.SetState(DX_NVG);

	mov	ecx, DWORD PTR _this$[ebp]
	mov	edx, DWORD PTR [ecx+33576]
	cmp	DWORD PTR [edx+144], 0
	je	SHORT $LN74@RenderFram
	push	2
	mov	ecx, OFFSET ?TheDXEngine@@3VCDXEngine@@A ; TheDXEngine
	call	?SetState@CDXEngine@@QAEXW4DX_StateType@@@Z ; CDXEngine::SetState
$LN74@RenderFram:

; 2130 : 	if( renderer->context.TVmode ) TheDXEngine.SetState(DX_TV);

	mov	eax, DWORD PTR _this$[ebp]
	mov	ecx, DWORD PTR [eax+33576]
	cmp	DWORD PTR [ecx+148], 0
	je	SHORT $LN73@RenderFram
	push	1
	mov	ecx, OFFSET ?TheDXEngine@@3VCDXEngine@@A ; TheDXEngine
	call	?SetState@CDXEngine@@QAEXW4DX_StateType@@@Z ; CDXEngine::SetState
$LN73@RenderFram:

; 2131 : 	if( renderer->context.IRmode ) TheDXEngine.SetState(DX_NVG);

	mov	edx, DWORD PTR _this$[ebp]
	mov	eax, DWORD PTR [edx+33576]
	cmp	DWORD PTR [eax+152], 0
	je	SHORT $LN72@RenderFram
	push	2
	mov	ecx, OFFSET ?TheDXEngine@@3VCDXEngine@@A ; TheDXEngine
	call	?SetState@CDXEngine@@QAEXW4DX_StateType@@@Z ; CDXEngine::SetState
$LN72@RenderFram:

; 2132 : 
; 2133 : 	// * WARNING * PASSED IN THE DrawScene() function, more approriate for all calls
; 2134 : 	// Clear any light list to be rebuilt
; 2135 : 	//TheDXEngine.ClearLights();
; 2136 : 	// Clear the stencil Buffer used for the Pits
; 2137 : 	TheDXEngine.ClearStencil();

	mov	ecx, OFFSET ?TheDXEngine@@3VCDXEngine@@A ; TheDXEngine
	call	?ClearStencil@CDXEngine@@QAEXXZ		; CDXEngine::ClearStencil

; 2138 : 	// reset 2D Engine
; 2139 : 	
; 2140 : 	// * WARNING * PASSED IN THE DrawScene() function, more approriate for all calls
; 2141 : 	//TheDXEngine.DX2D_Reset();
; 2142 : 
; 2143 : 	// COBRA - RED - REDO FOR DX ENGINE //
; 2144 : 	// Get the Display mode here for following checks
; 2145 : 	OTWDisplayMode DisplayMode=GetOTWDisplayMode();

	mov	ecx, DWORD PTR _this$[ebp]
	call	?GetOTWDisplayMode@OTWDriverClass@@QAE?AW4OTWDisplayMode@1@XZ ; OTWDriverClass::GetOTWDisplayMode
	mov	DWORD PTR _DisplayMode$[ebp], eax

; 2146 : 
; 2147 : 	// Now check if in the Pit and the platform is still valid to eventually draw the Pit...
; 2148 : 	if ( 
; 2149 : 		!DisplayInCockpit() || 
; 2150 : 		otwPlatform.get() == NULL || 
; 2151 : 		otwPlatform->IsExploding() || 
; 2152 : 		otwPlatform->IsDead() ||
; 2153 : 		!otwPlatform->IsAwake() || 
; 2154 : 		TheHud->Ownship() == NULL || 
; 2155 : 		eyeFly
; 2156 : 	){

	mov	ecx, DWORD PTR _this$[ebp]
	call	?DisplayInCockpit@OTWDriverClass@@QAEHXZ ; OTWDriverClass::DisplayInCockpit
	test	eax, eax
	je	$LN70@RenderFram
	mov	ecx, DWORD PTR _this$[ebp]
	add	ecx, 32336				; 00007e50H
	call	?get@?$VuBin@VSimBaseClass@@@@QBEPAVSimBaseClass@@XZ ; VuBin<SimBaseClass>::get
	test	eax, eax
	je	$LN70@RenderFram
	mov	ecx, DWORD PTR _this$[ebp]
	add	ecx, 32336				; 00007e50H
	call	??C?$VuBin@VSimBaseClass@@@@QBEPAVSimBaseClass@@XZ ; VuBin<SimBaseClass>::operator->
	mov	DWORD PTR tv1783[ebp], eax
	mov	ecx, DWORD PTR tv1783[ebp]
	mov	edx, DWORD PTR [ecx]
	mov	ecx, DWORD PTR tv1783[ebp]
	mov	eax, DWORD PTR [edx+208]
	call	eax
	test	eax, eax
	jne	SHORT $LN70@RenderFram
	mov	ecx, DWORD PTR _this$[ebp]
	add	ecx, 32336				; 00007e50H
	call	??C?$VuBin@VSimBaseClass@@@@QBEPAVSimBaseClass@@XZ ; VuBin<SimBaseClass>::operator->
	mov	DWORD PTR tv1792[ebp], eax
	mov	ecx, DWORD PTR tv1792[ebp]
	mov	edx, DWORD PTR [ecx]
	mov	ecx, DWORD PTR tv1792[ebp]
	mov	eax, DWORD PTR [edx+340]
	call	eax
	test	eax, eax
	jne	SHORT $LN70@RenderFram
	mov	ecx, DWORD PTR _this$[ebp]
	add	ecx, 32336				; 00007e50H
	call	??C?$VuBin@VSimBaseClass@@@@QBEPAVSimBaseClass@@XZ ; VuBin<SimBaseClass>::operator->
	mov	ecx, eax
	call	?IsAwake@SimBaseClass@@QBEHXZ		; SimBaseClass::IsAwake
	test	eax, eax
	je	SHORT $LN70@RenderFram
	mov	ecx, DWORD PTR ?TheHud@@3PAVHudClass@@A	; TheHud
	call	?Ownship@HudClass@@QAEPAVAircraftClass@@XZ ; HudClass::Ownship
	test	eax, eax
	je	SHORT $LN70@RenderFram
	mov	ecx, DWORD PTR _this$[ebp]
	cmp	DWORD PTR [ecx+32200], 0
	je	SHORT $LN68@RenderFram
$LN70@RenderFram:

; 2157 : 		// If not valid, then signal it
; 2158 : 		okToDoCockpitStuff = FALSE;

	mov	DWORD PTR _okToDoCockpitStuff$[ebp], 0

; 2159 : 		// and switch to external view
; 2160 : 		switch (DisplayMode){

	mov	edx, DWORD PTR _DisplayMode$[ebp]
	mov	DWORD PTR tv1808[ebp], edx
	cmp	DWORD PTR tv1808[ebp], 0
	jle	SHORT $LN66@RenderFram
	cmp	DWORD PTR tv1808[ebp], 5
	jle	SHORT $LN67@RenderFram
	jmp	SHORT $LN66@RenderFram
$LN67@RenderFram:

; 2161 : 			case Mode2DCockpit:
; 2162 : 			case ModePadlockF3:
; 2163 : 			case Mode3DCockpit:
; 2164 : 			case ModePadlockEFOV:
; 2165 : 			case ModeHud: 
; 2166 : 				SetOTWDisplayMode (ModeOrbit); 

	push	6
	mov	ecx, DWORD PTR _this$[ebp]
	call	?SetOTWDisplayMode@OTWDriverClass@@QAEXW4OTWDisplayMode@1@@Z ; OTWDriverClass::SetOTWDisplayMode
$LN66@RenderFram:
$LN68@RenderFram:

; 2167 : 			break;
; 2168 : 			default: break;
; 2169 : 		}
; 2170 : 	}
; 2171 : 
; 2172 : 	// START_PROFILE("RENDER 3DPIT");
; 2173 : 	// COBRA - RED - OK, here critical session starts, the Objects MUST NOT BE TOUCHED IN ANY WAY
; 2174 : 	// sfr: @todo taking crits out
; 2175 : #if NO_VU_LOCK
; 2176 : #else
; 2177 : 	VuEnterCriticalSection ();
; 2178 : #endif
; 2179 : 	// If in 3D Pit, the pit has to be drawn as 1st item helping z-Buffering
; 2180 : 	if (okToDoCockpitStuff){

	cmp	DWORD PTR _okToDoCockpitStuff$[ebp], 0
	je	SHORT $LN61@RenderFram

; 2181 : 		// Calc Turubulence for the 2D pit stuff
; 2182 : 		pCockpitManager->SetTurbulence();

	mov	eax, DWORD PTR _this$[ebp]
	mov	ecx, DWORD PTR [eax+33684]
	call	?SetTurbulence@CockpitManager@@QAEXXZ	; CockpitManager::SetTurbulence

; 2183 : 		// only Hud Mode
; 2184 : 		if(DisplayMode == ModeHud){

	cmp	DWORD PTR _DisplayMode$[ebp], 1
	jne	SHORT $LN64@RenderFram

; 2185 : 			// just orient head
; 2186 : 			VCock_HeadCalc();

	mov	ecx, DWORD PTR _this$[ebp]
	call	?VCock_HeadCalc@OTWDriverClass@@AAEXXZ	; OTWDriverClass::VCock_HeadCalc
$LN64@RenderFram:

; 2187 : 		}
; 2188 : 		if(DisplayMode == Mode3DCockpit || DisplayMode == ModePadlockF3){

	cmp	DWORD PTR _DisplayMode$[ebp], 3
	je	SHORT $LN62@RenderFram
	cmp	DWORD PTR _DisplayMode$[ebp], 4
	jne	SHORT $LN63@RenderFram
$LN62@RenderFram:

; 2189 : 			// DX - Attach Weapons HERE, BEFORE any rendering
; 2190 : 			CockAttachWeapons();

	mov	ecx, DWORD PTR _this$[ebp]
	call	?CockAttachWeapons@OTWDriverClass@@QAEXXZ ; OTWDriverClass::CockAttachWeapons

; 2191 : 			VCock_HeadCalc();

	mov	ecx, DWORD PTR _this$[ebp]
	call	?VCock_HeadCalc@OTWDriverClass@@AAEXXZ	; OTWDriverClass::VCock_HeadCalc

; 2192 : 			// RED - SIGNAL THIS IS PIT STUFF...!!!!
; 2193 : 			TheDXEngine.SetPitMode(true);

	push	1
	mov	ecx, OFFSET ?TheDXEngine@@3VCDXEngine@@A ; TheDXEngine
	call	?SetPitMode@CDXEngine@@QAEX_N@Z		; CDXEngine::SetPitMode

; 2194 : 			// Draw the Pit
; 2195 : 			VCock_DrawThePit();

	mov	ecx, DWORD PTR _this$[ebp]
	call	?VCock_DrawThePit@OTWDriverClass@@AAEXXZ ; OTWDriverClass::VCock_DrawThePit

; 2196 : 
; 2197 : 	//ShiAssert(SimDriver.GetPlayerAircraft() == otwPlatform); //588
; 2198 : 	//VCock_Exec(); //588
; 2199 : 
; 2200 : 			// RED - END OF PIT STUFF....!!!!
; 2201 : 			TheDXEngine.SetPitMode(false);

	push	0
	mov	ecx, OFFSET ?TheDXEngine@@3VCDXEngine@@A ; TheDXEngine
	call	?SetPitMode@CDXEngine@@QAEX_N@Z		; CDXEngine::SetPitMode
$LN63@RenderFram:

; 2202 : 		}
; 2203 : 		if(DisplayMode == Mode2DCockpit) {

	cmp	DWORD PTR _DisplayMode$[ebp], 2
	jne	SHORT $LN61@RenderFram

; 2204 : 			ShiAssert(SimDriver.GetPlayerAircraft() == otwPlatform);
; 2205 : 			// DX - Attach Weapons HERE, BEFORE any rendering
; 2206 : 			pCockpitManager->CockAttachWeapons();

	mov	ecx, DWORD PTR _this$[ebp]
	mov	ecx, DWORD PTR [ecx+33684]
	call	?CockAttachWeapons@CockpitManager@@QAEXXZ ; CockpitManager::CockAttachWeapons

; 2207 : 			pCockpitManager->GeometryDraw();

	mov	edx, DWORD PTR _this$[ebp]
	mov	ecx, DWORD PTR [edx+33684]
	call	?GeometryDraw@CockpitManager@@QAEXXZ	; CockpitManager::GeometryDraw
$LN61@RenderFram:

; 2208 : 		}
; 2209 : 	}
; 2210 : 	// Set the font here for labels
; 2211 : 	oldFont = VirtualDisplay::CurFont();

	call	?CurFont@VirtualDisplay@@SAHXZ		; VirtualDisplay::CurFont
	mov	DWORD PTR _oldFont$[ebp], eax

; 2212 : 	VirtualDisplay::SetFont(pCockpitManager->LabelFont());

	mov	eax, DWORD PTR _this$[ebp]
	mov	ecx, DWORD PTR [eax+33684]
	call	?LabelFont@CockpitManager@@QAEHXZ	; CockpitManager::LabelFont
	push	eax
	call	?SetFont@VirtualDisplay@@SAXH@Z		; VirtualDisplay::SetFont
	add	esp, 4

; 2213 : 	//STOP_PROFILE("RENDER 3DPIT");
; 2214 : 
; 2215 : 	//START_PROFILE("RENDER DRAWSCENE");
; 2216 : 	renderer->DrawScene((struct Tpoint *) &headOrigin, (struct Trotation *) &cameraRot);

	mov	ecx, DWORD PTR _this$[ebp]
	add	ecx, 33452				; 000082acH
	push	ecx
	mov	edx, DWORD PTR _this$[ebp]
	add	edx, 33652				; 00008374H
	push	edx
	mov	eax, DWORD PTR _this$[ebp]
	mov	ecx, DWORD PTR [eax+33576]
	call	?DrawScene@RenderOTW@@QAEXPBUTpoint@@PBUTrotation@@@Z ; RenderOTW::DrawScene

; 2217 : 	//STOP_PROFILE("RENDER DRAWSCENE");
; 2218 : 
; 2219 : 	VirtualDisplay::SetFont(oldFont);

	mov	ecx, DWORD PTR _oldFont$[ebp]
	push	ecx
	call	?SetFont@VirtualDisplay@@SAXH@Z		; VirtualDisplay::SetFont
	add	esp, 4

; 2220 : 	//Now if in the pit the instumentation
; 2221 : 	if (okToDoCockpitStuff){

	cmp	DWORD PTR _okToDoCockpitStuff$[ebp], 0
	je	$LN60@RenderFram

; 2222 : 		// Flush the polys before rendering instruments
; 2223 : 		if(DisplayOptions.bZBuffering) {

	movzx	edx, BYTE PTR ?DisplayOptions@@3VDisplayOptionsClass@@A+16
	test	edx, edx
	je	SHORT $LN59@RenderFram

; 2224 : 			// If camera changed, wait for updates
; 2225 : 			if(CameraChange){

	mov	eax, DWORD PTR _this$[ebp]
	movzx	ecx, BYTE PTR [eax+32058]
	test	ecx, ecx
	je	SHORT $LN58@RenderFram

; 2226 : 				// Ok, camera changed, a tme out to setup fast loading
; 2227 : 				BigLoadTimeOut = GetTickCount() + BIG_LOAD_TIMEOUT;

	call	DWORD PTR __imp__GetTickCount@0
	add	eax, 5000				; 00001388H
	mov	edx, DWORD PTR _this$[ebp]
	mov	DWORD PTR [edx+34048], eax

; 2228 : 				//ObjectLOD::WaitUpdates();
; 2229 : 				//TheTextureBank.WaitUpdates();
; 2230 : 				CameraChange = false;

	mov	eax, DWORD PTR _this$[ebp]
	mov	BYTE PTR [eax+32058], 0
$LN58@RenderFram:

; 2231 : 			}
; 2232 : 			renderer->context.FlushPolyLists();

	mov	ecx, DWORD PTR _this$[ebp]
	mov	ecx, DWORD PTR [ecx+33576]
	add	ecx, 100				; 00000064H
	call	?FlushPolyLists@ContextMPR@@QAEXXZ	; ContextMPR::FlushPolyLists

; 2233 : 			renderer->ClearZBuffer();

	mov	edx, DWORD PTR _this$[ebp]
	mov	eax, DWORD PTR [edx+33576]
	mov	ecx, DWORD PTR _this$[ebp]
	mov	edx, DWORD PTR [eax]
	mov	ecx, DWORD PTR [ecx+33576]
	mov	eax, DWORD PTR [edx+140]
	call	eax
$LN59@RenderFram:

; 2234 : 		}
; 2235 : 		
; 2236 : 		if(DisplayMode  == ModePadlockF3){

	cmp	DWORD PTR _DisplayMode$[ebp], 4
	jne	SHORT $LN57@RenderFram

; 2237 : 			ShiAssert(SimDriver.GetPlayerAircraft() == otwPlatform);
; 2238 : 			Padlock_DrawSquares(TRUE);

	push	1
	mov	ecx, DWORD PTR _this$[ebp]
	call	?Padlock_DrawSquares@OTWDriverClass@@AAEXH@Z ; OTWDriverClass::Padlock_DrawSquares

; 2239 : 			VCock_Exec();

	mov	ecx, DWORD PTR _this$[ebp]
	call	?VCock_Exec@OTWDriverClass@@AAEXXZ	; OTWDriverClass::VCock_Exec
$LN57@RenderFram:

; 2240 : 		}
; 2241 : 
; 2242 : 		if(DisplayMode  == Mode3DCockpit){ //588

	cmp	DWORD PTR _DisplayMode$[ebp], 3
	jne	SHORT $LN56@RenderFram

; 2243 : 			ShiAssert(SimDriver.GetPlayerAircraft() == otwPlatform);
; 2244 : 			//START_PROFILE("VCOCK EXEC");
; 2245 : 			VCock_Exec();

	mov	ecx, DWORD PTR _this$[ebp]
	call	?VCock_Exec@OTWDriverClass@@AAEXXZ	; OTWDriverClass::VCock_Exec
$LN56@RenderFram:

; 2246 : 			//STOP_PROFILE("VCOCK EXEC");
; 2247 : 		} //588
; 2248 : 		
; 2249 : 		if(DisplayMode  == ModePadlockEFOV){

	cmp	DWORD PTR _DisplayMode$[ebp], 5
	jne	SHORT $LN55@RenderFram

; 2250 : 			ShiAssert(SimDriver.GetPlayerAircraft() == otwPlatform);
; 2251 : 			Padlock_DrawSquares(TRUE);

	push	1
	mov	ecx, DWORD PTR _this$[ebp]
	call	?Padlock_DrawSquares@OTWDriverClass@@AAEXH@Z ; OTWDriverClass::Padlock_DrawSquares
$LN55@RenderFram:

; 2252 : 		}
; 2253 : 	} 
; 2254 : 	else {

	jmp	SHORT $LN51@RenderFram
$LN60@RenderFram:

; 2255 : 		if((otwPlatform.get() != NULL) && otwPlatform->drawPointer){

	mov	ecx, DWORD PTR _this$[ebp]
	add	ecx, 32336				; 00007e50H
	call	?get@?$VuBin@VSimBaseClass@@@@QBEPAVSimBaseClass@@XZ ; VuBin<SimBaseClass>::get
	test	eax, eax
	je	SHORT $LN52@RenderFram
	mov	ecx, DWORD PTR _this$[ebp]
	add	ecx, 32336				; 00007e50H
	call	??C?$VuBin@VSimBaseClass@@@@QBEPAVSimBaseClass@@XZ ; VuBin<SimBaseClass>::operator->
	cmp	DWORD PTR [eax+332], 0
	je	SHORT $LN52@RenderFram

; 2256 : 			if(!otwPlatform->OnGround()) DrawExternalViewTarget();

	mov	ecx, DWORD PTR _this$[ebp]
	add	ecx, 32336				; 00007e50H
	call	??C?$VuBin@VSimBaseClass@@@@QBEPAVSimBaseClass@@XZ ; VuBin<SimBaseClass>::operator->
	mov	DWORD PTR tv1898[ebp], eax
	mov	ecx, DWORD PTR tv1898[ebp]
	mov	edx, DWORD PTR [ecx]
	mov	ecx, DWORD PTR tv1898[ebp]
	mov	eax, DWORD PTR [edx+148]
	call	eax
	test	eax, eax
	jne	SHORT $LN52@RenderFram
	mov	ecx, DWORD PTR _this$[ebp]
	call	?DrawExternalViewTarget@OTWDriverClass@@AAEXXZ ; OTWDriverClass::DrawExternalViewTarget
$LN52@RenderFram:

; 2257 : 		}
; 2258 : 		if(g_bLensFlare) Draw2DLensFlare(renderer);

	movzx	ecx, BYTE PTR ?g_bLensFlare@@3_NA	; g_bLensFlare
	test	ecx, ecx
	je	SHORT $LN51@RenderFram
	mov	edx, DWORD PTR _this$[ebp]
	mov	eax, DWORD PTR [edx+33576]
	push	eax
	call	?Draw2DLensFlare@@YAXPAVRenderOTW@@@Z	; Draw2DLensFlare
	add	esp, 4
$LN51@RenderFram:

; 2259 : 	}
; 2260 : 
; 2261 : 	// If camera changed, wait for updates
; 2262 : 	if (CameraChange){

	mov	ecx, DWORD PTR _this$[ebp]
	movzx	edx, BYTE PTR [ecx+32058]
	test	edx, edx
	je	SHORT $LN50@RenderFram

; 2263 : 		// Ok, camera changed, a tme out to setup fast loading
; 2264 : 		BigLoadTimeOut = GetTickCount() + BIG_LOAD_TIMEOUT;

	call	DWORD PTR __imp__GetTickCount@0
	add	eax, 5000				; 00001388H
	mov	ecx, DWORD PTR _this$[ebp]
	mov	DWORD PTR [ecx+34048], eax

; 2265 : 		//ObjectLOD::WaitUpdates();
; 2266 : 		//TheTextureBank.WaitUpdates();
; 2267 : 		CameraChange = false;

	mov	edx, DWORD PTR _this$[ebp]
	mov	BYTE PTR [edx+32058], 0
$LN50@RenderFram:

; 2268 : 	}
; 2269 : 
; 2270 : 
; 2271 : 	if (BigLoadTimeOut > GetTickCount()){

	call	DWORD PTR __imp__GetTickCount@0
	mov	ecx, DWORD PTR _this$[ebp]
	cmp	DWORD PTR [ecx+34048], eax
	jbe	SHORT $LN49@RenderFram

; 2272 : 		ObjectLOD::SetRatedLoad(false);

	push	0
	call	?SetRatedLoad@ObjectLOD@@SAX_N@Z	; ObjectLOD::SetRatedLoad
	add	esp, 4

; 2273 : 		TheTextureBank.SetRatedLoad(false);

	push	0
	call	?SetRatedLoad@TextureBankClass@@SAX_N@Z	; TextureBankClass::SetRatedLoad
	add	esp, 4

; 2274 : 	} else {

	jmp	SHORT $LN48@RenderFram
$LN49@RenderFram:

; 2275 : 		ObjectLOD::SetRatedLoad(true);

	push	1
	call	?SetRatedLoad@ObjectLOD@@SAX_N@Z	; ObjectLOD::SetRatedLoad
	add	esp, 4

; 2276 : 		TheTextureBank.SetRatedLoad(true);

	push	1
	call	?SetRatedLoad@TextureBankClass@@SAX_N@Z	; TextureBankClass::SetRatedLoad
	add	esp, 4
$LN48@RenderFram:

; 2277 : 	}
; 2278 : 
; 2279 : 	// Now flush anything coming from the Pits... they use a own camera
; 2280 : 	if (DisplayOptions.bZBuffering){

	movzx	edx, BYTE PTR ?DisplayOptions@@3VDisplayOptionsClass@@A+16
	test	edx, edx
	je	SHORT $LN47@RenderFram

; 2281 : 		renderer->context.FlushPolyLists();

	mov	eax, DWORD PTR _this$[ebp]
	mov	ecx, DWORD PTR [eax+33576]
	add	ecx, 100				; 00000064H
	call	?FlushPolyLists@ContextMPR@@QAEXXZ	; ContextMPR::FlushPolyLists
$LN47@RenderFram:

; 2282 : 	}
; 2283 : 
; 2284 : 	// If in 3D Pit, the pit has to be drawn as 1st item helping z-Buffering
; 2285 : 	if (okToDoCockpitStuff){

	cmp	DWORD PTR _okToDoCockpitStuff$[ebp], 0
	je	SHORT $LN43@RenderFram

; 2286 : 		// DX - Detach Weapons HERE, AFTER any rendering
; 2287 : 		if(DisplayMode == Mode3DCockpit || DisplayMode == ModePadlockF3) CockDetachWeapons();

	cmp	DWORD PTR _DisplayMode$[ebp], 3
	je	SHORT $LN44@RenderFram
	cmp	DWORD PTR _DisplayMode$[ebp], 4
	jne	SHORT $LN45@RenderFram
$LN44@RenderFram:
	mov	ecx, DWORD PTR _this$[ebp]
	call	?CockDetachWeapons@OTWDriverClass@@QAEXXZ ; OTWDriverClass::CockDetachWeapons
$LN45@RenderFram:

; 2288 : 		if(DisplayMode == Mode2DCockpit) pCockpitManager->CockDetachWeapons();

	cmp	DWORD PTR _DisplayMode$[ebp], 2
	jne	SHORT $LN43@RenderFram
	mov	ecx, DWORD PTR _this$[ebp]
	mov	ecx, DWORD PTR [ecx+33684]
	call	?CockDetachWeapons@CockpitManager@@QAEXXZ ; CockpitManager::CockDetachWeapons
$LN43@RenderFram:

; 2289 : 	}
; 2290 : 
; 2291 : 	// COBRA - RED - REDO FOR DX ENGINE - END
; 2292 : 	// sfr: @todo taking crits out
; 2293 : #if NO_VU_LOCK
; 2294 : #else
; 2295 : 	VuExitCriticalSection();
; 2296 : #endif
; 2297 : 
; 2298 : 	// Clear out the "near" list now that we're done drawing it
; 2299 : 	FlushNearList();

	mov	ecx, DWORD PTR _this$[ebp]
	call	?FlushNearList@OTWDriverClass@@QAEXXZ	; OTWDriverClass::FlushNearList

; 2300 : 
; 2301 : 	//START_PROFILE("RENDER 2DPIT");
; 2302 : 	// Do the first layer of drawn cockpit stuff (pre BLT)
; 2303 : 	if (okToDoCockpitStuff){

	cmp	DWORD PTR _okToDoCockpitStuff$[ebp], 0
	je	$LN42@RenderFram

; 2304 : 		// Should we Draw the HUD?
; 2305 : 		//START_PROFILE("HUD");
; 2306 : 		if ( pCockpitManager->ShowHud() ){

	mov	edx, DWORD PTR _this$[ebp]
	mov	ecx, DWORD PTR [edx+33684]
	call	?ShowHud@CockpitManager@@QAEHXZ		; CockpitManager::ShowHud
	test	eax, eax
	je	SHORT $LN40@RenderFram

; 2307 : 			if (GetOTWDisplayMode() == ModePadlockEFOV ||
; 2308 : 				GetOTWDisplayMode() == ModeHud ||
; 2309 : 				GetOTWDisplayMode() == Mode2DCockpit
; 2310 : 			){

	mov	ecx, DWORD PTR _this$[ebp]
	call	?GetOTWDisplayMode@OTWDriverClass@@QAE?AW4OTWDisplayMode@1@XZ ; OTWDriverClass::GetOTWDisplayMode
	cmp	eax, 5
	je	SHORT $LN39@RenderFram
	mov	ecx, DWORD PTR _this$[ebp]
	call	?GetOTWDisplayMode@OTWDriverClass@@QAE?AW4OTWDisplayMode@1@XZ ; OTWDriverClass::GetOTWDisplayMode
	cmp	eax, 1
	je	SHORT $LN39@RenderFram
	mov	ecx, DWORD PTR _this$[ebp]
	call	?GetOTWDisplayMode@OTWDriverClass@@QAE?AW4OTWDisplayMode@1@XZ ; OTWDriverClass::GetOTWDisplayMode
	cmp	eax, 2
	jne	SHORT $LN40@RenderFram
$LN39@RenderFram:

; 2311 : 				Draw2DHud();

	mov	ecx, DWORD PTR _this$[ebp]
	call	?Draw2DHud@OTWDriverClass@@QAEXXZ	; OTWDriverClass::Draw2DHud
$LN40@RenderFram:

; 2312 : 			}
; 2313 : 		}
; 2314 : 		//STOP_PROFILE("HUD");
; 2315 : 		//START_PROFILE("PADLOCK");
; 2316 : 
; 2317 : 		// Should we draw the EFOV window?
; 2318 : 		SimMoverClass *mover = static_cast<SimMoverClass*>(otwPlatform.get());

	mov	ecx, DWORD PTR _this$[ebp]
	add	ecx, 32336				; 00007e50H
	call	?get@?$VuBin@VSimBaseClass@@@@QBEPAVSimBaseClass@@XZ ; VuBin<SimBaseClass>::get
	mov	DWORD PTR _mover$11[ebp], eax

; 2319 : 		if ((GetOTWDisplayMode() == ModePadlockEFOV) && (mover->targetList)){

	mov	ecx, DWORD PTR _this$[ebp]
	call	?GetOTWDisplayMode@OTWDriverClass@@QAE?AW4OTWDisplayMode@1@XZ ; OTWDriverClass::GetOTWDisplayMode
	cmp	eax, 5
	jne	SHORT $LN38@RenderFram
	mov	eax, DWORD PTR _mover$11[ebp]
	cmp	DWORD PTR [eax+660], 0
	je	SHORT $LN38@RenderFram

; 2320 : 			// SCR: Was a condition above, but in EFOV view it MUST be the player, right?
; 2321 : 			ShiAssert( otwPlatform->IsLocal() );	
; 2322 : 
; 2323 : 			Padlock_CheckPadlock(dT);

	push	ecx
	movss	xmm0, DWORD PTR _dT$[ebp]
	movss	DWORD PTR [esp], xmm0
	mov	ecx, DWORD PTR _this$[ebp]
	call	?Padlock_CheckPadlock@OTWDriverClass@@AAEXM@Z ; OTWDriverClass::Padlock_CheckPadlock

; 2324 : 			PadlockEFOV_Draw ();

	mov	ecx, DWORD PTR _this$[ebp]
	call	?PadlockEFOV_Draw@OTWDriverClass@@AAEXXZ ; OTWDriverClass::PadlockEFOV_Draw
$LN38@RenderFram:

; 2325 : 		}
; 2326 : 
; 2327 : 		if (GetOTWDisplayMode() == ModePadlockF3 || GetOTWDisplayMode() == Mode3DCockpit){

	mov	ecx, DWORD PTR _this$[ebp]
	call	?GetOTWDisplayMode@OTWDriverClass@@QAE?AW4OTWDisplayMode@1@XZ ; OTWDriverClass::GetOTWDisplayMode
	cmp	eax, 4
	je	SHORT $LN36@RenderFram
	mov	ecx, DWORD PTR _this$[ebp]
	call	?GetOTWDisplayMode@OTWDriverClass@@QAE?AW4OTWDisplayMode@1@XZ ; OTWDriverClass::GetOTWDisplayMode
	cmp	eax, 3
	jne	SHORT $LN35@RenderFram
$LN36@RenderFram:

; 2328 : 			if (mDoSidebar){

	mov	ecx, DWORD PTR _this$[ebp]
	cmp	DWORD PTR [ecx+33852], 0
	je	SHORT $LN35@RenderFram

; 2329 : 				PadlockF3_Draw();

	mov	ecx, DWORD PTR _this$[ebp]
	call	?PadlockF3_Draw@OTWDriverClass@@AAEXXZ	; OTWDriverClass::PadlockF3_Draw
$LN35@RenderFram:

; 2330 : 			}
; 2331 : 		}
; 2332 : 		//STOP_PROFILE("PADLOCK");
; 2333 : 
; 2334 : 		// mfds and rwr
; 2335 : 		if(GetOTWDisplayMode() == Mode2DCockpit){

	mov	ecx, DWORD PTR _this$[ebp]
	call	?GetOTWDisplayMode@OTWDriverClass@@QAE?AW4OTWDisplayMode@1@XZ ; OTWDriverClass::GetOTWDisplayMode
	cmp	eax, 2
	jne	$LN34@RenderFram

; 2336 : 			renderer->EndDraw();

	mov	edx, DWORD PTR _this$[ebp]
	mov	eax, DWORD PTR [edx+33576]
	mov	ecx, DWORD PTR _this$[ebp]
	mov	edx, DWORD PTR [eax]
	mov	ecx, DWORD PTR [ecx+33576]
	mov	eax, DWORD PTR [edx+20]
	call	eax

; 2337 : 
; 2338 : 			//START_PROFILE("COCKPIT MANAGER EXEC");
; 2339 : 			pCockpitManager->Exec();

	mov	ecx, DWORD PTR _this$[ebp]
	mov	ecx, DWORD PTR [ecx+33684]
	call	?Exec@CockpitManager@@QAEXXZ		; CockpitManager::Exec

; 2340 : 			//STOP_PROFILE("COCKPIT MANAGER EXEC");
; 2341 : 
; 2342 : 			renderer->StartDraw();

	mov	edx, DWORD PTR _this$[ebp]
	mov	eax, DWORD PTR [edx+33576]
	mov	ecx, DWORD PTR _this$[ebp]
	mov	edx, DWORD PTR [eax]
	mov	ecx, DWORD PTR [ecx+33576]
	mov	eax, DWORD PTR [edx+12]
	call	eax

; 2343 : 			float top, left, bottom, right;
; 2344 : 			renderer->GetViewport(&left, &top, &right, &bottom); // save the current viewport

	lea	ecx, DWORD PTR _bottom$10[ebp]
	push	ecx
	lea	edx, DWORD PTR _right$9[ebp]
	push	edx
	lea	eax, DWORD PTR _top$8[ebp]
	push	eax
	lea	ecx, DWORD PTR _left$7[ebp]
	push	ecx
	mov	edx, DWORD PTR _this$[ebp]
	mov	ecx, DWORD PTR [edx+33576]
	call	?GetViewport@VirtualDisplay@@QAEXPAM000@Z ; VirtualDisplay::GetViewport

; 2345 : 			renderer->SetViewport(-1.0F, 1.0F, 1.0F, -1.0F);	// set fullscreen viewport

	push	ecx
	movss	xmm0, DWORD PTR __real@bf800000
	movss	DWORD PTR [esp], xmm0
	push	ecx
	movss	xmm0, DWORD PTR __real@3f800000
	movss	DWORD PTR [esp], xmm0
	push	ecx
	movss	xmm0, DWORD PTR __real@3f800000
	movss	DWORD PTR [esp], xmm0
	push	ecx
	movss	xmm0, DWORD PTR __real@bf800000
	movss	DWORD PTR [esp], xmm0
	mov	eax, DWORD PTR _this$[ebp]
	mov	ecx, DWORD PTR [eax+33576]
	mov	edx, DWORD PTR _this$[ebp]
	mov	eax, DWORD PTR [ecx]
	mov	ecx, DWORD PTR [edx+33576]
	mov	edx, DWORD PTR [eax+112]
	call	edx

; 2346 : 			pCockpitManager->DisplayBlit3D();	// draw 3d stuff

	mov	eax, DWORD PTR _this$[ebp]
	mov	ecx, DWORD PTR [eax+33684]
	call	?DisplayBlit3D@CockpitManager@@QAEXXZ	; CockpitManager::DisplayBlit3D

; 2347 : 			renderer->EndDraw();

	mov	ecx, DWORD PTR _this$[ebp]
	mov	edx, DWORD PTR [ecx+33576]
	mov	eax, DWORD PTR _this$[ebp]
	mov	edx, DWORD PTR [edx]
	mov	ecx, DWORD PTR [eax+33576]
	mov	eax, DWORD PTR [edx+20]
	call	eax

; 2348 : 			renderer->SetViewport(left, top, right, bottom);	// restore viewport

	push	ecx
	movss	xmm0, DWORD PTR _bottom$10[ebp]
	movss	DWORD PTR [esp], xmm0
	push	ecx
	movss	xmm0, DWORD PTR _right$9[ebp]
	movss	DWORD PTR [esp], xmm0
	push	ecx
	movss	xmm0, DWORD PTR _top$8[ebp]
	movss	DWORD PTR [esp], xmm0
	push	ecx
	movss	xmm0, DWORD PTR _left$7[ebp]
	movss	DWORD PTR [esp], xmm0
	mov	ecx, DWORD PTR _this$[ebp]
	mov	edx, DWORD PTR [ecx+33576]
	mov	eax, DWORD PTR _this$[ebp]
	mov	edx, DWORD PTR [edx]
	mov	ecx, DWORD PTR [eax+33576]
	mov	eax, DWORD PTR [edx+112]
	call	eax

; 2349 : 
; 2350 : 			// Draw in the 2D cockpit
; 2351 : 			// sfr: it seems we need this for the map only... the rest is all 3d
; 2352 : 			pCockpitManager->DisplayBlit();

	mov	ecx, DWORD PTR _this$[ebp]
	mov	ecx, DWORD PTR [ecx+33684]
	call	?DisplayBlit@CockpitManager@@QAEXXZ	; CockpitManager::DisplayBlit

; 2353 : 			pCockpitManager->DisplayDraw();

	mov	edx, DWORD PTR _this$[ebp]
	mov	ecx, DWORD PTR [edx+33684]
	call	?DisplayDraw@CockpitManager@@QAEXXZ	; CockpitManager::DisplayDraw

; 2354 : 
; 2355 : 			// mfds and RWR
; 2356 : 			PlayerRwrClass* theRwr;
; 2357 : 			AircraftClass *playerAircraft = (AircraftClass *)SimDriver.GetPlayerAircraft();

	mov	ecx, OFFSET ?SimDriver@@3VSimulationDriver@@A ; SimDriver
	call	?GetPlayerAircraft@SimulationDriver@@QBEPAVAircraftClass@@XZ ; SimulationDriver::GetPlayerAircraft
	mov	DWORD PTR _playerAircraft$15[ebp], eax

; 2358 : 			if(playerAircraft){

	cmp	DWORD PTR _playerAircraft$15[ebp], 0
	je	$LN33@RenderFram

; 2359 : 				// rwr
; 2360 : 				//START_PROFILE("RWR");
; 2361 : 				theRwr = (PlayerRwrClass*)FindSensor(playerAircraft, SensorClass::RWR);

	push	2
	mov	eax, DWORD PTR _playerAircraft$15[ebp]
	push	eax
	call	?FindSensor@@YAPAVSensorClass@@PAVSimMoverClass@@H@Z ; FindSensor
	add	esp, 8
	mov	DWORD PTR _theRwr$23[ebp], eax

; 2362 : 				if(pCockpitManager->ShowRwr() && theRwr){

	mov	ecx, DWORD PTR _this$[ebp]
	mov	ecx, DWORD PTR [ecx+33684]
	call	?ShowRwr@CockpitManager@@QAEHXZ		; CockpitManager::ShowRwr
	test	eax, eax
	je	$LN31@RenderFram
	cmp	DWORD PTR _theRwr$23[ebp], 0
	je	$LN31@RenderFram

; 2363 : 					if(!gDoCockpitHack){

	cmp	DWORD PTR ?gDoCockpitHack@@3HA, 0	; gDoCockpitHack
	jne	$LN31@RenderFram

; 2364 : 						renderer->StartDraw();

	mov	edx, DWORD PTR _this$[ebp]
	mov	eax, DWORD PTR [edx+33576]
	mov	ecx, DWORD PTR _this$[ebp]
	mov	edx, DWORD PTR [eax]
	mov	ecx, DWORD PTR [ecx+33576]
	mov	eax, DWORD PTR [edx+12]
	call	eax

; 2365 : 						pCockpitManager->GetViewportBounds(&viewportBounds, BOUNDS_RWR);

	push	1
	lea	ecx, DWORD PTR _viewportBounds$[ebp]
	push	ecx
	mov	edx, DWORD PTR _this$[ebp]
	mov	ecx, DWORD PTR [edx+33684]
	call	?GetViewportBounds@CockpitManager@@QAEHPAUViewportBounds@@H@Z ; CockpitManager::GetViewportBounds

; 2366 : 						// COBRA - RED- Pit Vibrations
; 2367 : 						pCockpitManager->AddTurbulenceVp(&viewportBounds);

	lea	eax, DWORD PTR _viewportBounds$[ebp]
	push	eax
	mov	ecx, DWORD PTR _this$[ebp]
	mov	ecx, DWORD PTR [ecx+33684]
	call	?AddTurbulenceVp@CockpitManager@@QAEXPAUViewportBounds@@@Z ; CockpitManager::AddTurbulenceVp

; 2368 : 						renderer->SetColor(0xFF00FF00);

	push	-16711936				; ff00ff00H
	mov	edx, DWORD PTR _this$[ebp]
	mov	eax, DWORD PTR [edx+33576]
	mov	ecx, DWORD PTR _this$[ebp]
	mov	edx, DWORD PTR [eax]
	mov	ecx, DWORD PTR [ecx+33576]
	mov	eax, DWORD PTR [edx+92]
	call	eax

; 2369 : 						renderer->SetViewport(
; 2370 : 							viewportBounds.left, viewportBounds.top, viewportBounds.right, viewportBounds.bottom
; 2371 : 						);	         

	push	ecx
	movss	xmm0, DWORD PTR _viewportBounds$[ebp+8]
	movss	DWORD PTR [esp], xmm0
	push	ecx
	movss	xmm0, DWORD PTR _viewportBounds$[ebp+12]
	movss	DWORD PTR [esp], xmm0
	push	ecx
	movss	xmm0, DWORD PTR _viewportBounds$[ebp]
	movss	DWORD PTR [esp], xmm0
	push	ecx
	movss	xmm0, DWORD PTR _viewportBounds$[ebp+4]
	movss	DWORD PTR [esp], xmm0
	mov	ecx, DWORD PTR _this$[ebp]
	mov	edx, DWORD PTR [ecx+33576]
	mov	eax, DWORD PTR _this$[ebp]
	mov	edx, DWORD PTR [edx]
	mov	ecx, DWORD PTR [eax+33576]
	mov	eax, DWORD PTR [edx+112]
	call	eax

; 2372 : 						theRwr->SetGridVisible(FALSE);

	push	0
	mov	ecx, DWORD PTR _theRwr$23[ebp]
	call	?SetGridVisible@PlayerRwrClass@@QAEXH@Z	; PlayerRwrClass::SetGridVisible

; 2373 : 						theRwr->Display(renderer);

	mov	ecx, DWORD PTR _this$[ebp]
	mov	edx, DWORD PTR [ecx+33576]
	push	edx
	mov	eax, DWORD PTR _theRwr$23[ebp]
	mov	edx, DWORD PTR [eax]
	mov	ecx, DWORD PTR _theRwr$23[ebp]
	mov	eax, DWORD PTR [edx+4]
	call	eax

; 2374 : 						renderer->EndDraw();

	mov	ecx, DWORD PTR _this$[ebp]
	mov	edx, DWORD PTR [ecx+33576]
	mov	eax, DWORD PTR _this$[ebp]
	mov	edx, DWORD PTR [edx]
	mov	ecx, DWORD PTR [eax+33576]
	mov	eax, DWORD PTR [edx+20]
	call	eax
$LN31@RenderFram:

; 2375 : 					}
; 2376 : 				}
; 2377 : 				//STOP_PROFILE("RWR");
; 2378 : 
; 2379 : 				// mfds
; 2380 : 				//START_PROFILE("MFD");
; 2381 : 				oldFont = VirtualDisplay::CurFont();

	call	?CurFont@VirtualDisplay@@SAHXZ		; VirtualDisplay::CurFont
	mov	DWORD PTR _oldFont$[ebp], eax

; 2382 : 				VirtualDisplay::SetFont(pCockpitManager->MFDFont());

	mov	ecx, DWORD PTR _this$[ebp]
	mov	ecx, DWORD PTR [ecx+33684]
	call	?MFDFont@CockpitManager@@QAEHXZ		; CockpitManager::MFDFont
	push	eax
	call	?SetFont@VirtualDisplay@@SAXH@Z		; VirtualDisplay::SetFont
	add	esp, 4

; 2383 : 				for (unsigned int i=BOUNDS_MFDLEFT;i<=BOUNDS_MFD4;++i){

	mov	DWORD PTR _i$24[ebp], 2
	jmp	SHORT $LN30@RenderFram
$LN29@RenderFram:
	mov	edx, DWORD PTR _i$24[ebp]
	add	edx, 1
	mov	DWORD PTR _i$24[ebp], edx
$LN30@RenderFram:
	cmp	DWORD PTR _i$24[ebp], 5
	ja	$LN28@RenderFram

; 2384 : 					if(pCockpitManager->GetViewportBounds(&viewportBounds, i))

	mov	eax, DWORD PTR _i$24[ebp]
	push	eax
	lea	ecx, DWORD PTR _viewportBounds$[ebp]
	push	ecx
	mov	edx, DWORD PTR _this$[ebp]
	mov	ecx, DWORD PTR [edx+33684]
	call	?GetViewportBounds@CockpitManager@@QAEHPAUViewportBounds@@H@Z ; CockpitManager::GetViewportBounds
	test	eax, eax
	je	SHORT $LN27@RenderFram

; 2385 : 					{
; 2386 : 						// COBRA - RED- Pit Vibrations
; 2387 : 						unsigned int mfd = i-BOUNDS_MFDLEFT;

	mov	eax, DWORD PTR _i$24[ebp]
	sub	eax, 2
	mov	DWORD PTR _mfd$17[ebp], eax

; 2388 : 						pCockpitManager->AddTurbulenceVp(&viewportBounds);

	lea	ecx, DWORD PTR _viewportBounds$[ebp]
	push	ecx
	mov	edx, DWORD PTR _this$[ebp]
	mov	ecx, DWORD PTR [edx+33684]
	call	?AddTurbulenceVp@CockpitManager@@QAEXPAUViewportBounds@@@Z ; CockpitManager::AddTurbulenceVp

; 2389 : 						MfdDisplay[mfd]->SetImageBuffer(
; 2390 : 							OTWImage, viewportBounds.left, viewportBounds.top, 
; 2391 : 							viewportBounds.right, viewportBounds.bottom
; 2392 : 						);

	push	ecx
	movss	xmm0, DWORD PTR _viewportBounds$[ebp+8]
	movss	DWORD PTR [esp], xmm0
	push	ecx
	movss	xmm0, DWORD PTR _viewportBounds$[ebp+12]
	movss	DWORD PTR [esp], xmm0
	push	ecx
	movss	xmm0, DWORD PTR _viewportBounds$[ebp]
	movss	DWORD PTR [esp], xmm0
	push	ecx
	movss	xmm0, DWORD PTR _viewportBounds$[ebp+4]
	movss	DWORD PTR [esp], xmm0
	mov	eax, DWORD PTR _this$[ebp]
	mov	ecx, DWORD PTR [eax+32040]
	push	ecx
	mov	edx, DWORD PTR _mfd$17[ebp]
	mov	ecx, DWORD PTR ?MfdDisplay@@3PAPAVMFDClass@@A[edx*4]
	call	?SetImageBuffer@MFDClass@@QAEXPAVImageBuffer@@MMMM@Z ; MFDClass::SetImageBuffer

; 2393 : 						MfdDisplay[mfd]->Exec(FALSE, FALSE);

	push	0
	push	0
	mov	eax, DWORD PTR _mfd$17[ebp]
	mov	ecx, DWORD PTR ?MfdDisplay@@3PAPAVMFDClass@@A[eax*4]
	call	?Exec@MFDClass@@QAEXHH@Z		; MFDClass::Exec
$LN27@RenderFram:

; 2394 : 					}
; 2395 : 				}

	jmp	$LN29@RenderFram
$LN28@RenderFram:

; 2396 : 				VirtualDisplay::SetFont(oldFont);

	mov	ecx, DWORD PTR _oldFont$[ebp]
	push	ecx
	call	?SetFont@VirtualDisplay@@SAXH@Z		; VirtualDisplay::SetFont
	add	esp, 4
$LN33@RenderFram:

; 2397 : 				//STOP_PROFILE("MFD");
; 2398 : 			}
; 2399 : 		}
; 2400 : 		else if (

	jmp	$LN16@RenderFram
$LN34@RenderFram:

; 2401 : 			(GetOTWDisplayMode() == ModeHud || GetOTWDisplayMode() == ModePadlockEFOV) &&
; 2402 : 			!g_bNoMFDsIn1View)	//MI added g_bNoMFDsIn1View check. Removes MFD's if TRUE

	mov	ecx, DWORD PTR _this$[ebp]
	call	?GetOTWDisplayMode@OTWDriverClass@@QAE?AW4OTWDisplayMode@1@XZ ; OTWDriverClass::GetOTWDisplayMode
	cmp	eax, 1
	je	SHORT $LN24@RenderFram
	mov	ecx, DWORD PTR _this$[ebp]
	call	?GetOTWDisplayMode@OTWDriverClass@@QAE?AW4OTWDisplayMode@1@XZ ; OTWDriverClass::GetOTWDisplayMode
	cmp	eax, 5
	jne	$LN25@RenderFram
$LN24@RenderFram:
	movzx	edx, BYTE PTR ?g_bNoMFDsIn1View@@3_NA	; g_bNoMFDsIn1View
	test	edx, edx
	jne	SHORT $LN25@RenderFram

; 2403 : 		{
; 2404 : 			// SetFont
; 2405 : 			oldFont = VirtualDisplay::CurFont();

	call	?CurFont@VirtualDisplay@@SAHXZ		; VirtualDisplay::CurFont
	mov	DWORD PTR _oldFont$[ebp], eax

; 2406 : 			VirtualDisplay::SetFont(pCockpitManager->MFDFont());

	mov	eax, DWORD PTR _this$[ebp]
	mov	ecx, DWORD PTR [eax+33684]
	call	?MFDFont@CockpitManager@@QAEHXZ		; CockpitManager::MFDFont
	push	eax
	call	?SetFont@VirtualDisplay@@SAXH@Z		; VirtualDisplay::SetFont
	add	esp, 4

; 2407 : 			renderer->EndDraw();

	mov	ecx, DWORD PTR _this$[ebp]
	mov	edx, DWORD PTR [ecx+33576]
	mov	eax, DWORD PTR _this$[ebp]
	mov	edx, DWORD PTR [edx]
	mov	ecx, DWORD PTR [eax+33576]
	mov	eax, DWORD PTR [edx+20]
	call	eax

; 2408 : 			for(i = 0; i < NUM_MFDS; i++){

	mov	DWORD PTR _i$[ebp], 0
	jmp	SHORT $LN23@RenderFram
$LN22@RenderFram:
	mov	ecx, DWORD PTR _i$[ebp]
	add	ecx, 1
	mov	DWORD PTR _i$[ebp], ecx
$LN23@RenderFram:
	cmp	DWORD PTR _i$[ebp], 4
	jge	SHORT $LN21@RenderFram

; 2409 : 				MfdDisplay[i]->Exec(TRUE, FALSE);

	push	0
	push	1
	mov	edx, DWORD PTR _i$[ebp]
	mov	ecx, DWORD PTR ?MfdDisplay@@3PAPAVMFDClass@@A[edx*4]
	call	?Exec@MFDClass@@QAEXHH@Z		; MFDClass::Exec

; 2410 : 			}

	jmp	SHORT $LN22@RenderFram
$LN21@RenderFram:

; 2411 : 			VirtualDisplay::SetFont(oldFont);

	mov	eax, DWORD PTR _oldFont$[ebp]
	push	eax
	call	?SetFont@VirtualDisplay@@SAXH@Z		; VirtualDisplay::SetFont
	add	esp, 4
	jmp	$LN16@RenderFram
$LN25@RenderFram:

; 2412 : 		}
; 2413 : 		else if (GetOTWDisplayMode() == ModePadlockF3 || GetOTWDisplayMode() == Mode3DCockpit){

	mov	ecx, DWORD PTR _this$[ebp]
	call	?GetOTWDisplayMode@OTWDriverClass@@QAE?AW4OTWDisplayMode@1@XZ ; OTWDriverClass::GetOTWDisplayMode
	cmp	eax, 4
	je	SHORT $LN18@RenderFram
	mov	ecx, DWORD PTR _this$[ebp]
	call	?GetOTWDisplayMode@OTWDriverClass@@QAE?AW4OTWDisplayMode@1@XZ ; OTWDriverClass::GetOTWDisplayMode
	cmp	eax, 3
	jne	$LN16@RenderFram
$LN18@RenderFram:

; 2414 : 			if (mDoSidebar && pPadlockCPManager){

	mov	ecx, DWORD PTR _this$[ebp]
	cmp	DWORD PTR [ecx+33852], 0
	je	$LN17@RenderFram
	mov	edx, DWORD PTR _this$[ebp]
	cmp	DWORD PTR [edx+33688], 0
	je	$LN17@RenderFram

; 2415 : 				// Draw in the 2D reference panels
; 2416 : 				pPadlockCPManager->Exec();

	mov	eax, DWORD PTR _this$[ebp]
	mov	ecx, DWORD PTR [eax+33688]
	call	?Exec@CockpitManager@@QAEXXZ		; CockpitManager::Exec

; 2417 : 
; 2418 : 				// OW
; 2419 : 				float top, left, bottom, right;
; 2420 : 				renderer->GetViewport(&left, &top, &right, &bottom); // save the current viewport

	lea	ecx, DWORD PTR _bottom$6[ebp]
	push	ecx
	lea	edx, DWORD PTR _right$5[ebp]
	push	edx
	lea	eax, DWORD PTR _top$4[ebp]
	push	eax
	lea	ecx, DWORD PTR _left$3[ebp]
	push	ecx
	mov	edx, DWORD PTR _this$[ebp]
	mov	ecx, DWORD PTR [edx+33576]
	call	?GetViewport@VirtualDisplay@@QAEXPAM000@Z ; VirtualDisplay::GetViewport

; 2421 : 				renderer->SetViewport(-1.0F, 1.0F, 1.0F, -1.0F);	// set fullscreen viewport

	push	ecx
	movss	xmm0, DWORD PTR __real@bf800000
	movss	DWORD PTR [esp], xmm0
	push	ecx
	movss	xmm0, DWORD PTR __real@3f800000
	movss	DWORD PTR [esp], xmm0
	push	ecx
	movss	xmm0, DWORD PTR __real@3f800000
	movss	DWORD PTR [esp], xmm0
	push	ecx
	movss	xmm0, DWORD PTR __real@bf800000
	movss	DWORD PTR [esp], xmm0
	mov	eax, DWORD PTR _this$[ebp]
	mov	ecx, DWORD PTR [eax+33576]
	mov	edx, DWORD PTR _this$[ebp]
	mov	eax, DWORD PTR [ecx]
	mov	ecx, DWORD PTR [edx+33576]
	mov	edx, DWORD PTR [eax+112]
	call	edx

; 2422 : 				pPadlockCPManager->DisplayBlit3D();	// draw 3d stuff

	mov	eax, DWORD PTR _this$[ebp]
	mov	ecx, DWORD PTR [eax+33688]
	call	?DisplayBlit3D@CockpitManager@@QAEXXZ	; CockpitManager::DisplayBlit3D

; 2423 : 				renderer->EndDraw();

	mov	ecx, DWORD PTR _this$[ebp]
	mov	edx, DWORD PTR [ecx+33576]
	mov	eax, DWORD PTR _this$[ebp]
	mov	edx, DWORD PTR [edx]
	mov	ecx, DWORD PTR [eax+33576]
	mov	eax, DWORD PTR [edx+20]
	call	eax

; 2424 : 				renderer->SetViewport(left, top, right, bottom);	// restore viewport

	push	ecx
	movss	xmm0, DWORD PTR _bottom$6[ebp]
	movss	DWORD PTR [esp], xmm0
	push	ecx
	movss	xmm0, DWORD PTR _right$5[ebp]
	movss	DWORD PTR [esp], xmm0
	push	ecx
	movss	xmm0, DWORD PTR _top$4[ebp]
	movss	DWORD PTR [esp], xmm0
	push	ecx
	movss	xmm0, DWORD PTR _left$3[ebp]
	movss	DWORD PTR [esp], xmm0
	mov	ecx, DWORD PTR _this$[ebp]
	mov	edx, DWORD PTR [ecx+33576]
	mov	eax, DWORD PTR _this$[ebp]
	mov	edx, DWORD PTR [edx]
	mov	ecx, DWORD PTR [eax+33576]
	mov	eax, DWORD PTR [edx+112]
	call	eax

; 2425 : 
; 2426 : 				// Draw in the 2D cockpit panels
; 2427 : 				pPadlockCPManager->DisplayBlit();

	mov	ecx, DWORD PTR _this$[ebp]
	mov	ecx, DWORD PTR [ecx+33688]
	call	?DisplayBlit@CockpitManager@@QAEXXZ	; CockpitManager::DisplayBlit

; 2428 : 				pPadlockCPManager->DisplayDraw();

	mov	edx, DWORD PTR _this$[ebp]
	mov	ecx, DWORD PTR [edx+33688]
	call	?DisplayDraw@CockpitManager@@QAEXXZ	; CockpitManager::DisplayDraw

; 2429 : 			}
; 2430 : 			else{

	jmp	SHORT $LN16@RenderFram
$LN17@RenderFram:

; 2431 : 				renderer->EndDraw();

	mov	eax, DWORD PTR _this$[ebp]
	mov	ecx, DWORD PTR [eax+33576]
	mov	edx, DWORD PTR _this$[ebp]
	mov	eax, DWORD PTR [ecx]
	mov	ecx, DWORD PTR [edx+33576]
	mov	edx, DWORD PTR [eax+20]
	call	edx
$LN16@RenderFram:

; 2432 : 			}
; 2433 : 		}
; 2434 : 	}
; 2435 : 	else {

	jmp	SHORT $LN15@RenderFram
$LN42@RenderFram:

; 2436 : 		renderer->EndDraw();

	mov	eax, DWORD PTR _this$[ebp]
	mov	ecx, DWORD PTR [eax+33576]
	mov	edx, DWORD PTR _this$[ebp]
	mov	eax, DWORD PTR [ecx]
	mov	ecx, DWORD PTR [edx+33576]
	mov	edx, DWORD PTR [eax+20]
	call	edx
$LN15@RenderFram:

; 2437 : 	}
; 2438 : 	//STOP_PROFILE("RENDER 2DPIT");
; 2439 : 
; 2440 : 
; 2441 : 	// COBRA - RED - FOR NO-DEPTH MENUS, CLEAR THE ZBUFFER
; 2442 : 	renderer->context.ClearBuffers(MPR_CI_ZBUFFER);

	push	4
	mov	eax, DWORD PTR _this$[ebp]
	mov	ecx, DWORD PTR [eax+33576]
	add	ecx, 100				; 00000064H
	call	?ClearBuffers@ContextMPR@@QAEXG@Z	; ContextMPR::ClearBuffers

; 2443 : 
; 2444 : 	// Draw wingman, tanker, awacs menus
; 2445 : 	pMenuManager->DisplayDraw();

	mov	ecx, DWORD PTR _this$[ebp]
	mov	ecx, DWORD PTR [ecx+33676]
	call	?DisplayDraw@MenuManager@@QAEXXZ	; MenuManager::DisplayDraw

; 2446 : 
; 2447 : 
; 2448 : 	//STOP_PROFILE("RENDER FRAME");
; 2449 : 	// Draws ANY text in front of everything else
; 2450 : 	// the Chat box at least MUST show up AFTER the cockpit is drawn
; 2451 : 
; 2452 : 	//STOP_PROFILE("OTWRENDER");
; 2453 : 	//STOP_PROFILE("OTW Loop");
; 2454 : 	DisplayFrontText();

	mov	ecx, DWORD PTR _this$[ebp]
	call	?DisplayFrontText@OTWDriverClass@@QAEXXZ ; OTWDriverClass::DisplayFrontText

; 2455 : 	MAIN_PROFILE("OTW Loop");
; 2456 : 	//START_PROFILE("OTWRENDER");
; 2457 : 
; 2458 : 	// Draw GLOC effect
; 2459 : 	if (
; 2460 : 		doGLOC && (otwPlatform.get() != NULL) && 
; 2461 : 		(otwPlatform.get() == SimDriver.GetPlayerAircraft()) && otwPlatform->IsLocal()
; 2462 : 	){

	mov	edx, DWORD PTR _this$[ebp]
	cmp	DWORD PTR [edx+32172], 0
	je	SHORT $LN14@RenderFram
	mov	ecx, DWORD PTR _this$[ebp]
	add	ecx, 32336				; 00007e50H
	call	?get@?$VuBin@VSimBaseClass@@@@QBEPAVSimBaseClass@@XZ ; VuBin<SimBaseClass>::get
	test	eax, eax
	je	SHORT $LN14@RenderFram
	mov	ecx, DWORD PTR _this$[ebp]
	add	ecx, 32336				; 00007e50H
	call	?get@?$VuBin@VSimBaseClass@@@@QBEPAVSimBaseClass@@XZ ; VuBin<SimBaseClass>::get
	mov	esi, eax
	mov	ecx, OFFSET ?SimDriver@@3VSimulationDriver@@A ; SimDriver
	call	?GetPlayerAircraft@SimulationDriver@@QBEPAVAircraftClass@@XZ ; SimulationDriver::GetPlayerAircraft
	cmp	esi, eax
	jne	SHORT $LN14@RenderFram
	mov	ecx, DWORD PTR _this$[ebp]
	add	ecx, 32336				; 00007e50H
	call	??C?$VuBin@VSimBaseClass@@@@QBEPAVSimBaseClass@@XZ ; VuBin<SimBaseClass>::operator->
	mov	ecx, eax
	call	?IsLocal@VuEntity@@QBEEXZ		; VuEntity::IsLocal
	movzx	eax, al
	test	eax, eax
	je	SHORT $LN14@RenderFram

; 2463 : 		renderer->DrawTunnelBorder();

	mov	ecx, DWORD PTR _this$[ebp]
	mov	ecx, DWORD PTR [ecx+33576]
	call	?DrawTunnelBorder@RenderOTW@@QAEXXZ	; RenderOTW::DrawTunnelBorder
	jmp	SHORT $LN12@RenderFram
$LN14@RenderFram:

; 2464 : 	}
; 2465 : 	else if (TheTimeOfDay.GetNVGmode() || endFlightTimer){

	mov	ecx, OFFSET ?TheTimeOfDay@@3VCTimeOfDay@@A ; TheTimeOfDay
	call	?GetNVGmode@CTimeOfDay@@QAEHXZ		; CTimeOfDay::GetNVGmode
	test	eax, eax
	jne	SHORT $LN11@RenderFram
	mov	edx, DWORD PTR _this$[ebp]
	cmp	DWORD PTR [edx+33540], 0
	je	SHORT $LN12@RenderFram
$LN11@RenderFram:

; 2466 : 		renderer->DrawTunnelBorder();

	mov	eax, DWORD PTR _this$[ebp]
	mov	ecx, DWORD PTR [eax+33576]
	call	?DrawTunnelBorder@RenderOTW@@QAEXXZ	; RenderOTW::DrawTunnelBorder
$LN12@RenderFram:

; 2467 : 	}
; 2468 : 
; 2469 : 	//JAM 18Nov03
; 2470 : 	if( weatherCondition == INCLEMENT && cameraPos.z > realWeather->stratusZ )

	cmp	DWORD PTR ?weatherCondition@@3HA, 4	; weatherCondition
	jne	SHORT $LN8@RenderFram
	mov	ecx, DWORD PTR _this$[ebp]
	mov	edx, DWORD PTR ?realWeather@@3PAVRealWeather@@A ; realWeather
	movss	xmm0, DWORD PTR [ecx+33448]
	comiss	xmm0, DWORD PTR [edx+15716]
	jbe	SHORT $LN8@RenderFram

; 2471 : 	{
; 2472 : 		if(DisplayInCockpit()){

	mov	ecx, DWORD PTR _this$[ebp]
	call	?DisplayInCockpit@OTWDriverClass@@QAEHXZ ; OTWDriverClass::DisplayInCockpit
	test	eax, eax
	je	SHORT $LN9@RenderFram

; 2473 : 			F4SoundFXSetDist(SFX_RAININT,FALSE,10.f,2.f);

	push	ecx
	movss	xmm0, DWORD PTR __real@40000000
	movss	DWORD PTR [esp], xmm0
	push	ecx
	movss	xmm0, DWORD PTR __real@41200000
	movss	DWORD PTR [esp], xmm0
	push	0
	push	189					; 000000bdH
	call	_F4SoundFXSetDist
	add	esp, 16					; 00000010H

; 2474 : 		}
; 2475 : 		else{

	jmp	SHORT $LN8@RenderFram
$LN9@RenderFram:

; 2476 : 			F4SoundFXSetDist(SFX_RAINEXT,FALSE,10.f,2.f);

	push	ecx
	movss	xmm0, DWORD PTR __real@40000000
	movss	DWORD PTR [esp], xmm0
	push	ecx
	movss	xmm0, DWORD PTR __real@41200000
	movss	DWORD PTR [esp], xmm0
	push	0
	push	190					; 000000beH
	call	_F4SoundFXSetDist
	add	esp, 16					; 00000010H
$LN8@RenderFram:

; 2477 : 		}
; 2478 : 	}
; 2479 : 
; 2480 : 	// Show the exit menu if needed
; 2481 : 	DrawExitMenu();

	mov	ecx, DWORD PTR _this$[ebp]
	call	?DrawExitMenu@OTWDriverClass@@AAEXXZ	; OTWDriverClass::DrawExitMenu

; 2482 : 
; 2483 : 	if (takeScreenShot){

	mov	eax, DWORD PTR _this$[ebp]
	cmp	DWORD PTR [eax+32028], 0
	je	SHORT $LN6@RenderFram

; 2484 : 		TakeScreenShot();

	mov	ecx, DWORD PTR _this$[ebp]
	call	?TakeScreenShot@OTWDriverClass@@AAEXXZ	; OTWDriverClass::TakeScreenShot

; 2485 : 
; 2486 : 		if(pMenuManager){

	mov	ecx, DWORD PTR _this$[ebp]
	cmp	DWORD PTR [ecx+33676], 0
	je	SHORT $LN6@RenderFram

; 2487 : 			pMenuManager->DeActivate();

	mov	edx, DWORD PTR _this$[ebp]
	mov	ecx, DWORD PTR [edx+33676]
	call	?DeActivate@MenuManager@@QAEXXZ		; MenuManager::DeActivate
$LN6@RenderFram:

; 2488 : 		}
; 2489 : 	}
; 2490 : 
; 2491 : 	// Finish and swap the buffers
; 2492 : 	// Force cursors if in exit menu
; 2493 : 	
; 2494 : 	if (InExitMenu()){

	mov	ecx, DWORD PTR _this$[ebp]
	call	?InExitMenu@OTWDriverClass@@QAEHXZ	; OTWDriverClass::InExitMenu
	test	eax, eax
	je	SHORT $LN5@RenderFram

; 2495 : 		int tmp = gSelectedCursor;

	mov	eax, DWORD PTR ?gSelectedCursor@@3HA	; gSelectedCursor
	mov	DWORD PTR _tmp$2[ebp], eax

; 2496 : 		gSelectedCursor = 1;

	mov	DWORD PTR ?gSelectedCursor@@3HA, 1	; gSelectedCursor

; 2497 : 		ClipAndDrawCursor(
; 2498 : 			OTWDriver.pCockpitManager->GetCockpitWidth(), OTWDriver.pCockpitManager->GetCockpitHeight()
; 2499 : 		);

	mov	ecx, DWORD PTR ?OTWDriver@@3VOTWDriverClass@@A+33684
	call	?GetCockpitHeight@CockpitManager@@QAEHXZ ; CockpitManager::GetCockpitHeight
	push	eax
	mov	ecx, DWORD PTR ?OTWDriver@@3VOTWDriverClass@@A+33684
	call	?GetCockpitWidth@CockpitManager@@QAEHXZ	; CockpitManager::GetCockpitWidth
	push	eax
	call	?ClipAndDrawCursor@@YAXHH@Z		; ClipAndDrawCursor
	add	esp, 8

; 2500 : 		gSelectedCursor = tmp;		

	mov	ecx, DWORD PTR _tmp$2[ebp]
	mov	DWORD PTR ?gSelectedCursor@@3HA, ecx	; gSelectedCursor

; 2501 : 	}
; 2502 : 	// Wombat778 1-23-04 Changed from gTimeLastMouseMove to gTimeLastCursorUpdate because
; 2503 : 	// gTimeLastMouseMove reports ALL changes in mouse movement, not just cursor updates.
; 2504 : 	else if (

	jmp	$LN2@RenderFram
$LN5@RenderFram:

; 2505 : 		gSimInputEnabled && 
; 2506 : 		SimDriver.GetPlayerAircraft() && 
; 2507 : 		vuxRealTime - /*gTimeLastMouseMove*/gTimeLastCursorUpdate < SI_MOUSE_TIME_DELTA
; 2508 : 	){

	cmp	DWORD PTR ?gSimInputEnabled@@3HA, 0	; gSimInputEnabled
	je	$LN2@RenderFram
	mov	ecx, OFFSET ?SimDriver@@3VSimulationDriver@@A ; SimDriver
	call	?GetPlayerAircraft@SimulationDriver@@QBEPAVAircraftClass@@XZ ; SimulationDriver::GetPlayerAircraft
	test	eax, eax
	je	$LN2@RenderFram
	mov	edx, DWORD PTR ?vuxRealTime@@3KA	; vuxRealTime
	sub	edx, DWORD PTR ?gTimeLastCursorUpdate@@3KA ; gTimeLastCursorUpdate
	cmp	edx, 1500				; 000005dcH
	jae	SHORT $LN2@RenderFram

; 2509 : 		//Wombat778 Draw the cursor in the 3d pit as well
; 2510 : 		if	(
; 2511 : 			(	GetOTWDisplayMode() == Mode2DCockpit || 
; 2512 : 				GetOTWDisplayMode() == Mode3DCockpit || 
; 2513 : 				GetOTWDisplayMode() == ModePadlockF3 || 
; 2514 : 				GetOTWDisplayMode() == ModePadlockEFOV
; 2515 : 			) && 
; 2516 : 			(gSelectedCursor >= 0) && (otwPlatform.get() == SimDriver.GetPlayerAircraft())
; 2517 : 		){

	mov	ecx, DWORD PTR _this$[ebp]
	call	?GetOTWDisplayMode@OTWDriverClass@@QAE?AW4OTWDisplayMode@1@XZ ; OTWDriverClass::GetOTWDisplayMode
	cmp	eax, 2
	je	SHORT $LN1@RenderFram
	mov	ecx, DWORD PTR _this$[ebp]
	call	?GetOTWDisplayMode@OTWDriverClass@@QAE?AW4OTWDisplayMode@1@XZ ; OTWDriverClass::GetOTWDisplayMode
	cmp	eax, 3
	je	SHORT $LN1@RenderFram
	mov	ecx, DWORD PTR _this$[ebp]
	call	?GetOTWDisplayMode@OTWDriverClass@@QAE?AW4OTWDisplayMode@1@XZ ; OTWDriverClass::GetOTWDisplayMode
	cmp	eax, 4
	je	SHORT $LN1@RenderFram
	mov	ecx, DWORD PTR _this$[ebp]
	call	?GetOTWDisplayMode@OTWDriverClass@@QAE?AW4OTWDisplayMode@1@XZ ; OTWDriverClass::GetOTWDisplayMode
	cmp	eax, 5
	jne	SHORT $LN2@RenderFram
$LN1@RenderFram:
	cmp	DWORD PTR ?gSelectedCursor@@3HA, 0	; gSelectedCursor
	jl	SHORT $LN2@RenderFram
	mov	ecx, DWORD PTR _this$[ebp]
	add	ecx, 32336				; 00007e50H
	call	?get@?$VuBin@VSimBaseClass@@@@QBEPAVSimBaseClass@@XZ ; VuBin<SimBaseClass>::get
	mov	esi, eax
	mov	ecx, OFFSET ?SimDriver@@3VSimulationDriver@@A ; SimDriver
	call	?GetPlayerAircraft@SimulationDriver@@QBEPAVAircraftClass@@XZ ; SimulationDriver::GetPlayerAircraft
	cmp	esi, eax
	jne	SHORT $LN2@RenderFram

; 2518 : 			ClipAndDrawCursor(
; 2519 : 				OTWDriver.pCockpitManager->GetCockpitWidth(), OTWDriver.pCockpitManager->GetCockpitHeight()
; 2520 : 			);

	mov	ecx, DWORD PTR ?OTWDriver@@3VOTWDriverClass@@A+33684
	call	?GetCockpitHeight@CockpitManager@@QAEHXZ ; CockpitManager::GetCockpitHeight
	push	eax
	mov	ecx, DWORD PTR ?OTWDriver@@3VOTWDriverClass@@A+33684
	call	?GetCockpitWidth@CockpitManager@@QAEHXZ	; CockpitManager::GetCockpitWidth
	push	eax
	call	?ClipAndDrawCursor@@YAXHH@Z		; ClipAndDrawCursor
	add	esp, 8
$LN2@RenderFram:

; 2521 : 		}
; 2522 : 		
; 2523 : 	}
; 2524 : 
; 2525 : 	// DX - Finally finish the HW frame
; 2526 : 	renderer->context.FinishFrame(NULL);

	push	0
	mov	eax, DWORD PTR _this$[ebp]
	mov	ecx, DWORD PTR [eax+33576]
	add	ecx, 100				; 00000064H
	call	?FinishFrame@ContextMPR@@QAEXPAX@Z	; ContextMPR::FinishFrame

; 2527 : 	count++;

	mov	ecx, DWORD PTR ?count@?1??RenderFrame@OTWDriverClass@@QAEXXZ@4HA
	add	ecx, 1
	mov	DWORD PTR ?count@?1??RenderFrame@OTWDriverClass@@QAEXXZ@4HA, ecx

; 2528 : 	//STOP_PROFILE("OTWRENDER");
; 2529 : }

	pop	esi
	mov	ecx, DWORD PTR __$ArrayPad$[ebp]
	xor	ecx, ebp
	call	@__security_check_cookie@4
	mov	esp, ebp
	pop	ebp
	ret	0
?RenderFrame@OTWDriverClass@@QAEXXZ ENDP		; OTWDriverClass::RenderFrame
_TEXT	ENDS
; Function compile flags: /Odtp
; File c:\users\zhitao li\documents\visual studio 2012\projects\freefalcon\sim\otwdrive\otwloop.cpp
_TEXT	SEGMENT
_light$ = -8						; size = 4
_this$ = -4						; size = 4
?RenderFirstFrame@OTWDriverClass@@QAEXXZ PROC		; OTWDriverClass::RenderFirstFrame
; _this$ = ecx

; 400  : void OTWDriverClass::RenderFirstFrame(void) {

	push	ebp
	mov	ebp, esp
	sub	esp, 8
	mov	DWORD PTR _this$[ebp], ecx

; 401  : 	// WARNING ! WARNING ! WARNING ! WARNING ! WARNING ! 
; 402  : 	// RED - INIT time stuff here, then call all timed callbacks to have an update
; 403  : 	// situation on 3D entry
; 404  : 	// Start Up with appropriate Time
; 405  : 	TheTimeManager.SetTime(vuxGameTime + (unsigned long)FloatToInt32(todOffset * 1000.0F));

	mov	eax, DWORD PTR _this$[ebp]
	movss	xmm0, DWORD PTR [eax+32052]
	mulss	xmm0, DWORD PTR __real@447a0000
	push	ecx
	movss	DWORD PTR [esp], xmm0
	call	?FloatToInt32@@YAHM@Z			; FloatToInt32
	add	esp, 4
	add	eax, DWORD PTR ?vuxGameTime@@3KA	; vuxGameTime
	push	eax
	mov	ecx, OFFSET ?TheTimeManager@@3VTimeManager@@A ; TheTimeManager
	call	?SetTime@TimeManager@@QAEXK@Z		; TimeManager::SetTime

; 406  : 	// update callbacks
; 407  : 	TheTimeManager.Refresh();

	mov	ecx, OFFSET ?TheTimeManager@@3VTimeManager@@A ; TheTimeManager
	call	?Refresh@TimeManager@@QAEXXZ		; TimeManager::Refresh

; 408  : 	// Refresh weather stuff
; 409  : 	realWeather->RefreshWeather(renderer);

	mov	ecx, DWORD PTR _this$[ebp]
	mov	edx, DWORD PTR [ecx+33576]
	push	edx
	mov	ecx, DWORD PTR ?realWeather@@3PAVRealWeather@@A ; realWeather
	call	?RefreshWeather@RealWeather@@QAEXPAVRenderOTW@@@Z ; RealWeather::RefreshWeather

; 410  : 	//if its dark, turn internal lights on
; 411  : 	float light = TheTimeOfDay.GetLightLevel();

	mov	ecx, OFFSET ?TheTimeOfDay@@3VCTimeOfDay@@A ; TheTimeOfDay
	call	?GetLightLevel@CTimeOfDay@@QAEMXZ	; CTimeOfDay::GetLightLevel
	fstp	DWORD PTR _light$[ebp]

; 412  : 	if (light < 0.5F){

	movss	xmm0, DWORD PTR __real@3f000000
	comiss	xmm0, DWORD PTR _light$[ebp]
	jbe	SHORT $LN1@RenderFirs

; 413  : 		SimInstrumentLight(0, KEY_DOWN, NULL);

	push	0
	push	8
	push	0
	call	?SimInstrumentLight@@YAXKHPAX@Z		; SimInstrumentLight
	add	esp, 12					; 0000000cH

; 414  : 		SimInteriorLight(0, KEY_DOWN, NULL);

	push	0
	push	8
	push	0
	call	?SimInteriorLight@@YAXKHPAX@Z		; SimInteriorLight
	add	esp, 12					; 0000000cH
$LN1@RenderFirs:

; 415  : 	}
; 416  : 	// reset any remaining from previous situations
; 417  : 	Reset3DParameters();

	mov	ecx, DWORD PTR _this$[ebp]
	call	?Reset3DParameters@OTWDriverClass@@QAEXXZ ; OTWDriverClass::Reset3DParameters

; 418  : 
; 419  : 	// Update pit data & light situation
; 420  : 	pCockpitManager->LoadCockpitDefaults();

	mov	eax, DWORD PTR _this$[ebp]
	mov	ecx, DWORD PTR [eax+33684]
	call	?LoadCockpitDefaults@CockpitManager@@QAEXXZ ; CockpitManager::LoadCockpitDefaults

; 421  : 	pCockpitManager->SetTOD(light);

	push	ecx
	movss	xmm0, DWORD PTR _light$[ebp]
	movss	DWORD PTR [esp], xmm0
	mov	ecx, DWORD PTR _this$[ebp]
	mov	ecx, DWORD PTR [ecx+33684]
	call	?SetTOD@CockpitManager@@QAEXM@Z		; CockpitManager::SetTOD

; 422  : 	// Pre laod all objects
; 423  : 	renderer->PreLoadScene(NULL, NULL);

	push	0
	push	0
	mov	edx, DWORD PTR _this$[ebp]
	mov	ecx, DWORD PTR [edx+33576]
	call	?PreLoadScene@RenderOTW@@QAEXPBUTpoint@@PBUTrotation@@@Z ; RenderOTW::PreLoadScene

; 424  : 	// Skip the entry swap, we would have nothing in back buffer
; 425  : 	SkipSwap = true;

	mov	eax, DWORD PTR _this$[ebp]
	mov	BYTE PTR [eax+33512], 1

; 426  : 	// The Big Load is not incoming
; 427  : 	BigLoadTimeOut = 0;

	mov	ecx, DWORD PTR _this$[ebp]
	mov	DWORD PTR [ecx+34048], 0

; 428  : 
; 429  : }

	mov	esp, ebp
	pop	ebp
	ret	0
?RenderFirstFrame@OTWDriverClass@@QAEXXZ ENDP		; OTWDriverClass::RenderFirstFrame
_TEXT	ENDS
; Function compile flags: /Odtp
; File c:\users\zhitao li\documents\visual studio 2012\projects\freefalcon\sim\otwdrive\otwloop.cpp
_TEXT	SEGMENT
_this$ = -4						; size = 4
?Reset3DParameters@OTWDriverClass@@QAEXXZ PROC		; OTWDriverClass::Reset3DParameters
; _this$ = ecx

; 391  : {

	push	ebp
	mov	ebp, esp
	push	ecx
	mov	DWORD PTR _this$[ebp], ecx

; 392  : 	// Avoid any remaining from TV colors & Settings
; 393  : 	TheDXEngine.ResetState();

	mov	ecx, OFFSET ?TheDXEngine@@3VCDXEngine@@A ; TheDXEngine
	call	?ResetState@CDXEngine@@QAEXXZ		; CDXEngine::ResetState

; 394  : 	TheDXEngine.ClearLights();

	mov	ecx, OFFSET ?TheDXEngine@@3VCDXEngine@@A ; TheDXEngine
	call	?ClearLights@CDXEngine@@QAEXXZ		; CDXEngine::ClearLights

; 395  : 	renderer->context.SetNVGmode(FALSE);

	push	0
	mov	eax, DWORD PTR _this$[ebp]
	mov	ecx, DWORD PTR [eax+33576]
	add	ecx, 100				; 00000064H
	call	?SetNVGmode@ContextMPR@@QAEXH@Z		; ContextMPR::SetNVGmode

; 396  : 	renderer->SetGreenMode(false); //sfr

	push	0
	mov	ecx, DWORD PTR _this$[ebp]
	mov	ecx, DWORD PTR [ecx+33576]
	call	?SetGreenMode@RenderOTW@@QAEX_N@Z	; RenderOTW::SetGreenMode

; 397  : }

	mov	esp, ebp
	pop	ebp
	ret	0
?Reset3DParameters@OTWDriverClass@@QAEXXZ ENDP		; OTWDriverClass::Reset3DParameters
_TEXT	ENDS
; Function compile flags: /Odtp
; File c:\users\zhitao li\documents\visual studio 2012\projects\freefalcon\sim\otwdrive\otwloop.cpp
_TEXT	SEGMENT
_vehicleWalker$2 = -76					; size = 12
_featureWalker$3 = -64					; size = 12
_pCtx$ = -52						; size = 4
_weatherRange$4 = -48					; size = 4
_groundZ$5 = -44					; size = 4
_groundZ$6 = -40					; size = 4
_hr$ = -36						; size = 4
tv263 = -32						; size = 4
_theObject$7 = -28					; size = 4
_playerAircraft$8 = -24					; size = 4
_campUnit$9 = -20					; size = 4
_this$ = -16						; size = 4
__$EHRec$ = -12						; size = 12
?Cycle@OTWDriverClass@@QAEXXZ PROC			; OTWDriverClass::Cycle
; _this$ = ecx

; 235  : {

	push	ebp
	mov	ebp, esp
	push	-1
	push	__ehhandler$?Cycle@OTWDriverClass@@QAEXXZ
	mov	eax, DWORD PTR fs:0
	push	eax
	sub	esp, 64					; 00000040H
	mov	eax, DWORD PTR ___security_cookie
	xor	eax, ebp
	push	eax
	lea	eax, DWORD PTR __$EHRec$[ebp]
	mov	DWORD PTR fs:0, eax
	mov	DWORD PTR _this$[ebp], ecx

; 236  : 	//START_PROFILE("OTWCYCLE");
; 237  : 
; 238  : 	frameStart = timeGetTime();

	call	DWORD PTR __imp__timeGetTime@0
	mov	ecx, DWORD PTR _this$[ebp]
	mov	DWORD PTR [ecx+33412], eax

; 239  : 	frameTime = (frameTime * 7 + (frameStart - lastFrame) )/8;

	mov	edx, DWORD PTR _this$[ebp]
	mov	eax, DWORD PTR [edx+33420]
	imul	eax, 7
	mov	ecx, DWORD PTR _this$[ebp]
	mov	edx, DWORD PTR _this$[ebp]
	mov	ecx, DWORD PTR [ecx+33412]
	sub	ecx, DWORD PTR [edx+33416]
	add	eax, ecx
	shr	eax, 3
	mov	edx, DWORD PTR _this$[ebp]
	mov	DWORD PTR [edx+33420], eax

; 240  : 	lastFrame = frameStart;

	mov	eax, DWORD PTR _this$[ebp]
	mov	ecx, DWORD PTR _this$[ebp]
	mov	edx, DWORD PTR [ecx+33412]
	mov	DWORD PTR [eax+33416], edx

; 241  : 
; 242  : 	// OW
; 243  : 	if ( frameTime < 10 ){ frameTime = 5; }

	mov	eax, DWORD PTR _this$[ebp]
	cmp	DWORD PTR [eax+33420], 10		; 0000000aH
	jae	SHORT $LN32@Cycle
	mov	ecx, DWORD PTR _this$[ebp]
	mov	DWORD PTR [ecx+33420], 5
$LN32@Cycle:

; 244  : 
; 245  : 	// This is a kinda annoying thing to do here, but this seems like the safest place for the short term...
; 246  : 	if (SimLibElapsedTime > nextCampObjectHeightRefresh) {

	mov	edx, DWORD PTR ?SimLibElapsedTime@@3KA	; SimLibElapsedTime
	cmp	edx, DWORD PTR ?nextCampObjectHeightRefresh@@3KA ; nextCampObjectHeightRefresh
	jbe	$LN31@Cycle

; 247  : 
; 248  : 		FalconEntity*	campUnit;
; 249  : 		VuListIterator	vehicleWalker( SimDriver.combinedList );

	mov	eax, DWORD PTR ?SimDriver@@3VSimulationDriver@@A+16
	push	eax
	lea	ecx, DWORD PTR _vehicleWalker$2[ebp]
	call	??0VuListIterator@@QAE@PAVVuLinkedList@@@Z ; VuListIterator::VuListIterator
	mov	DWORD PTR __$EHRec$[ebp+8], 0

; 250  : 		// Note:  We could do buildings too, but they generally deaggregate far enough away that it isn't a problem
; 251  : 		// Consider each element of the campaign object sim bubble
; 252  : 		for (

	lea	ecx, DWORD PTR _vehicleWalker$2[ebp]
	call	?GetFirst@VuListIterator@@QAEPAVVuEntity@@XZ ; VuListIterator::GetFirst
	mov	DWORD PTR _campUnit$9[ebp], eax

; 253  : 			campUnit = (FalconEntity*)vehicleWalker.GetFirst(); 
; 254  : 			campUnit; 

	jmp	SHORT $LN30@Cycle
$LN29@Cycle:

; 255  : 			campUnit = (FalconEntity*)vehicleWalker.GetNext()
; 256  : 		){

	lea	ecx, DWORD PTR _vehicleWalker$2[ebp]
	call	?GetNext@VuListIterator@@QAEPAVVuEntity@@XZ ; VuListIterator::GetNext
	mov	DWORD PTR _campUnit$9[ebp], eax
$LN30@Cycle:
	cmp	DWORD PTR _campUnit$9[ebp], 0
	je	SHORT $LN28@Cycle

; 257  : 			
; 258  : 			// Only deal with battalions for now
; 259  : 			if (campUnit->IsBattalion()) {

	mov	ecx, DWORD PTR _campUnit$9[ebp]
	mov	edx, DWORD PTR [ecx]
	mov	ecx, DWORD PTR _campUnit$9[ebp]
	mov	eax, DWORD PTR [edx+240]
	call	eax
	test	eax, eax
	je	SHORT $LN27@Cycle

; 260  : 				
; 261  : 				// Lets go with an approximation since the x,y position is an approximation anyway
; 262  : 				float groundZ = GetApproxGroundLevel( campUnit->XPos(), campUnit->YPos() );

	mov	ecx, DWORD PTR _campUnit$9[ebp]
	call	?YPos@VuEntity@@QBEMXZ			; VuEntity::YPos
	push	ecx
	fstp	DWORD PTR [esp]
	mov	ecx, DWORD PTR _campUnit$9[ebp]
	call	?XPos@VuEntity@@QBEMXZ			; VuEntity::XPos
	push	ecx
	fstp	DWORD PTR [esp]
	mov	ecx, DWORD PTR _this$[ebp]
	call	?GetApproxGroundLevel@OTWDriverClass@@QAEMMM@Z ; OTWDriverClass::GetApproxGroundLevel
	fstp	DWORD PTR _groundZ$6[ebp]

; 263  : 
; 264  : 				// This is kinda annoying -- all we want to do is hammer the Z value, but this is going
; 265  : 				// to do a bunch of grid tree maintenance (and other?) junk.
; 266  : 				campUnit->SetPosition( campUnit->XPos(), campUnit->YPos(), groundZ );

	push	ecx
	movss	xmm0, DWORD PTR _groundZ$6[ebp]
	movss	DWORD PTR [esp], xmm0
	mov	ecx, DWORD PTR _campUnit$9[ebp]
	call	?YPos@VuEntity@@QBEMXZ			; VuEntity::YPos
	push	ecx
	fstp	DWORD PTR [esp]
	mov	ecx, DWORD PTR _campUnit$9[ebp]
	call	?XPos@VuEntity@@QBEMXZ			; VuEntity::XPos
	push	ecx
	fstp	DWORD PTR [esp]
	mov	ecx, DWORD PTR _campUnit$9[ebp]
	call	?SetPosition@VuEntity@@QAEXMMM@Z	; VuEntity::SetPosition
$LN27@Cycle:

; 267  : 
; 268  : 			}
; 269  : 			
; 270  : 		}

	jmp	SHORT $LN29@Cycle
$LN28@Cycle:

; 271  : 		// FRB - Sure would like toput those buildings on the ground.
; 272  : 		FalconEntity* theObject;
; 273  : 		VuListIterator featureWalker (SimDriver.featureList);

	mov	ecx, DWORD PTR ?SimDriver@@3VSimulationDriver@@A+4
	push	ecx
	lea	ecx, DWORD PTR _featureWalker$3[ebp]
	call	??0VuListIterator@@QAE@PAVVuLinkedList@@@Z ; VuListIterator::VuListIterator
	mov	BYTE PTR __$EHRec$[ebp+8], 1

; 274  : 		theObject = (FalconEntity*)featureWalker.GetFirst();

	lea	ecx, DWORD PTR _featureWalker$3[ebp]
	call	?GetFirst@VuListIterator@@QAEPAVVuEntity@@XZ ; VuListIterator::GetFirst
	mov	DWORD PTR _theObject$7[ebp], eax
$LN26@Cycle:

; 275  : 		while (theObject)

	cmp	DWORD PTR _theObject$7[ebp], 0
	je	SHORT $LN25@Cycle

; 276  : 		{
; 277  : 			// Lets go with an approximation since the x,y position is an approximation anyway
; 278  : 			float groundZ = GetApproxGroundLevel( theObject->XPos(), theObject->YPos() );

	mov	ecx, DWORD PTR _theObject$7[ebp]
	call	?YPos@VuEntity@@QBEMXZ			; VuEntity::YPos
	push	ecx
	fstp	DWORD PTR [esp]
	mov	ecx, DWORD PTR _theObject$7[ebp]
	call	?XPos@VuEntity@@QBEMXZ			; VuEntity::XPos
	push	ecx
	fstp	DWORD PTR [esp]
	mov	ecx, DWORD PTR _this$[ebp]
	call	?GetApproxGroundLevel@OTWDriverClass@@QAEMMM@Z ; OTWDriverClass::GetApproxGroundLevel
	fstp	DWORD PTR _groundZ$5[ebp]

; 279  : 			theObject->SetPosition( theObject->XPos(), theObject->YPos(), groundZ );

	push	ecx
	movss	xmm0, DWORD PTR _groundZ$5[ebp]
	movss	DWORD PTR [esp], xmm0
	mov	ecx, DWORD PTR _theObject$7[ebp]
	call	?YPos@VuEntity@@QBEMXZ			; VuEntity::YPos
	push	ecx
	fstp	DWORD PTR [esp]
	mov	ecx, DWORD PTR _theObject$7[ebp]
	call	?XPos@VuEntity@@QBEMXZ			; VuEntity::XPos
	push	ecx
	fstp	DWORD PTR [esp]
	mov	ecx, DWORD PTR _theObject$7[ebp]
	call	?SetPosition@VuEntity@@QAEXMMM@Z	; VuEntity::SetPosition

; 280  : 
; 281  : 			theObject = (FalconEntity*)featureWalker.GetNext();

	lea	ecx, DWORD PTR _featureWalker$3[ebp]
	call	?GetNext@VuListIterator@@QAEPAVVuEntity@@XZ ; VuListIterator::GetNext
	mov	DWORD PTR _theObject$7[ebp], eax

; 282  : 		}

	jmp	SHORT $LN26@Cycle
$LN25@Cycle:

; 283  : 
; 284  : 		// Set the time for the next refresh
; 285  : 		nextCampObjectHeightRefresh = SimLibElapsedTime + 5000;	// Do it every 5 seconds

	mov	edx, DWORD PTR ?SimLibElapsedTime@@3KA	; SimLibElapsedTime
	add	edx, 5000				; 00001388H
	mov	DWORD PTR ?nextCampObjectHeightRefresh@@3KA, edx ; nextCampObjectHeightRefresh

; 286  : 	}

	mov	BYTE PTR __$EHRec$[ebp+8], 0
	lea	ecx, DWORD PTR _featureWalker$3[ebp]
	call	??1VuListIterator@@UAE@XZ		; VuListIterator::~VuListIterator
	mov	DWORD PTR __$EHRec$[ebp+8], -1
	lea	ecx, DWORD PTR _vehicleWalker$2[ebp]
	call	??1VuListIterator@@UAE@XZ		; VuListIterator::~VuListIterator
$LN31@Cycle:

; 287  : 
; 288  : 
; 289  : 	// do we run the acton camera?
; 290  : 	if ( actionCameraMode && actionCameraTimer <= vuxRealTime ){

	mov	eax, DWORD PTR _this$[ebp]
	cmp	DWORD PTR [eax+33556], 0
	je	SHORT $LN24@Cycle
	mov	ecx, DWORD PTR _this$[ebp]
	mov	edx, DWORD PTR [ecx+33560]
	cmp	edx, DWORD PTR ?vuxRealTime@@3KA	; vuxRealTime
	ja	SHORT $LN24@Cycle

; 291  : 		RunActionCamera();

	mov	ecx, DWORD PTR _this$[ebp]
	call	?RunActionCamera@OTWDriverClass@@QAEXXZ	; OTWDriverClass::RunActionCamera
$LN24@Cycle:

; 292  : 	}
; 293  : 
; 294  : 	//Wombat778 11-18-04 Run the Automatic hybrid mode (mode 1). Simouse handles non-trackir hybrid mode.
; 295  : 	if (
; 296  : 		GetHybridPitMode() == 1 && 
; 297  : 		(GetOTWDisplayMode() == Mode2DCockpit || GetOTWDisplayMode() == Mode3DCockpit)
; 298  : 	){		

	mov	ecx, DWORD PTR _this$[ebp]
	call	?GetHybridPitMode@OTWDriverClass@@QAEHXZ ; OTWDriverClass::GetHybridPitMode
	cmp	eax, 1
	jne	SHORT $LN23@Cycle
	mov	ecx, DWORD PTR _this$[ebp]
	call	?GetOTWDisplayMode@OTWDriverClass@@QAE?AW4OTWDisplayMode@1@XZ ; OTWDriverClass::GetOTWDisplayMode
	cmp	eax, 2
	je	SHORT $LN22@Cycle
	mov	ecx, DWORD PTR _this$[ebp]
	call	?GetOTWDisplayMode@OTWDriverClass@@QAE?AW4OTWDisplayMode@1@XZ ; OTWDriverClass::GetOTWDisplayMode
	cmp	eax, 3
	jne	SHORT $LN23@Cycle
$LN22@Cycle:

; 299  : 		RunHybridPitMode(cockpitFlightData.headYaw,cockpitFlightData.headPitch);	

	push	ecx
	movss	xmm0, DWORD PTR ?cockpitFlightData@@3VFlightData@@A+128
	movss	DWORD PTR [esp], xmm0
	push	ecx
	movss	xmm0, DWORD PTR ?cockpitFlightData@@3VFlightData@@A+136
	movss	DWORD PTR [esp], xmm0
	mov	ecx, DWORD PTR _this$[ebp]
	call	?RunHybridPitMode@OTWDriverClass@@AAEXMM@Z ; OTWDriverClass::RunHybridPitMode
$LN23@Cycle:

; 300  : 	}
; 301  : 
; 302  : 	// when end flight timer is set, we're ending the game when vuxGameTime
; 303  : 	// gets larger than it
; 304  : 	if ( endFlightTimer != 0 ){

	mov	eax, DWORD PTR _this$[ebp]
	cmp	DWORD PTR [eax+33540], 0
	je	$LN12@Cycle

; 305  : 		// make sure stuff is set correctly here (ie no hud, etc...)
; 306  : 		SetOTWDisplayMode(ModeChase);

	push	7
	mov	ecx, DWORD PTR _this$[ebp]
	call	?SetOTWDisplayMode@OTWDriverClass@@QAEXW4OTWDisplayMode@1@@Z ; OTWDriverClass::SetOTWDisplayMode

; 307  : 
; 308  : 		if (SimDriver.GetPlayerAircraft() && !SimDriver.GetPlayerAircraft()->IsEject()){

	mov	ecx, OFFSET ?SimDriver@@3VSimulationDriver@@A ; SimDriver
	call	?GetPlayerAircraft@SimulationDriver@@QBEPAVAircraftClass@@XZ ; SimulationDriver::GetPlayerAircraft
	test	eax, eax
	je	$LN13@Cycle
	mov	ecx, OFFSET ?SimDriver@@3VSimulationDriver@@A ; SimDriver
	call	?GetPlayerAircraft@SimulationDriver@@QBEPAVAircraftClass@@XZ ; SimulationDriver::GetPlayerAircraft
	mov	DWORD PTR tv263[ebp], eax
	mov	ecx, DWORD PTR tv263[ebp]
	mov	edx, DWORD PTR [ecx]
	mov	ecx, DWORD PTR tv263[ebp]
	mov	eax, DWORD PTR [edx+188]
	call	eax
	test	eax, eax
	jne	SHORT $LN13@Cycle

; 309  : 			// make sure autopilot is on
; 310  : 			AircraftClass *playerAircraft = (AircraftClass *)SimDriver.GetPlayerAircraft();

	mov	ecx, OFFSET ?SimDriver@@3VSimulationDriver@@A ; SimDriver
	call	?GetPlayerAircraft@SimulationDriver@@QBEPAVAircraftClass@@XZ ; SimulationDriver::GetPlayerAircraft
	mov	DWORD PTR _playerAircraft$8[ebp], eax

; 311  : 			if(playerAircraft->OnGround()){

	mov	ecx, DWORD PTR _playerAircraft$8[ebp]
	mov	edx, DWORD PTR [ecx]
	mov	ecx, DWORD PTR _playerAircraft$8[ebp]
	mov	eax, DWORD PTR [edx+148]
	call	eax
	test	eax, eax
	je	SHORT $LN19@Cycle

; 312  : 				if (playerAircraft->DBrain()->ATCStatus() < tReqTaxi){

	mov	ecx, DWORD PTR _playerAircraft$8[ebp]
	call	?DBrain@AircraftClass@@QAEPAVDigitalBrain@@XZ ; AircraftClass::DBrain
	mov	ecx, eax
	call	?ATCStatus@DigitalBrain@@QAE?AW4AtcStatusEnum@@XZ ; DigitalBrain::ATCStatus
	cmp	eax, 19					; 00000013H
	jge	SHORT $LN18@Cycle

; 313  : 					if(playerAircraft->AutopilotType() != AircraftClass::APOff){

	mov	ecx, DWORD PTR _playerAircraft$8[ebp]
	call	?AutopilotType@AircraftClass@@QAE?AW4AutoPilotType@1@XZ ; AircraftClass::AutopilotType
	cmp	eax, 4
	je	SHORT $LN17@Cycle

; 314  : 						playerAircraft->SetAutopilot( AircraftClass::APOff );

	push	4
	mov	ecx, DWORD PTR _playerAircraft$8[ebp]
	call	?SetAutopilot@AircraftClass@@QAEXW4AutoPilotType@1@@Z ; AircraftClass::SetAutopilot
$LN17@Cycle:

; 315  : 					}
; 316  : 				}

	jmp	SHORT $LN15@Cycle
$LN18@Cycle:

; 317  : 				else if(playerAircraft->AutopilotType() != AircraftClass::CombatAP){

	mov	ecx, DWORD PTR _playerAircraft$8[ebp]
	call	?AutopilotType@AircraftClass@@QAE?AW4AutoPilotType@1@XZ ; AircraftClass::AutopilotType
	cmp	eax, 2
	je	SHORT $LN15@Cycle

; 318  : 					playerAircraft->SetAutopilot( AircraftClass::CombatAP );

	push	2
	mov	ecx, DWORD PTR _playerAircraft$8[ebp]
	call	?SetAutopilot@AircraftClass@@QAEXW4AutoPilotType@1@@Z ; AircraftClass::SetAutopilot
$LN15@Cycle:

; 319  : 				}
; 320  : 			}

	jmp	SHORT $LN13@Cycle
$LN19@Cycle:

; 321  : 			else if (playerAircraft->AutopilotType() != AircraftClass::ThreeAxisAP){

	mov	ecx, DWORD PTR _playerAircraft$8[ebp]
	call	?AutopilotType@AircraftClass@@QAE?AW4AutoPilotType@1@XZ ; AircraftClass::AutopilotType
	test	eax, eax
	je	SHORT $LN13@Cycle

; 322  : 				playerAircraft->SetAutopilot( AircraftClass::ThreeAxisAP );

	push	0
	mov	ecx, DWORD PTR _playerAircraft$8[ebp]
	call	?SetAutopilot@AircraftClass@@QAEXW4AutoPilotType@1@@Z ; AircraftClass::SetAutopilot
$LN13@Cycle:

; 323  : 			}
; 324  : 		}
; 325  : 
; 326  : 		if (vuxRealTime >= endFlightTimer){

	mov	ecx, DWORD PTR _this$[ebp]
	mov	edx, DWORD PTR ?vuxRealTime@@3KA	; vuxRealTime
	cmp	edx, DWORD PTR [ecx+33540]
	jb	SHORT $LN12@Cycle

; 327  : 			// We're done, so tell the TheSimLoop to shut us down after this cycle.
; 328  : 			SimulationLoopControl::StopGraphics();

	call	?StopGraphics@SimulationLoopControl@@SAXXZ ; SimulationLoopControl::StopGraphics
$LN12@Cycle:

; 329  : 		}
; 330  : 	}
; 331  : 
; 332  : 	// handle the flyby camera timer
; 333  : 	if ( flybyTimer != 0 ){

	mov	eax, DWORD PTR _this$[ebp]
	cmp	DWORD PTR [eax+33544], 0
	je	SHORT $LN10@Cycle

; 334  : 		// make sure stuff is set correctly here (ie no hud, etc...)
; 335  : 		mOTWDisplayMode = ModeChase;

	mov	ecx, DWORD PTR _this$[ebp]
	mov	DWORD PTR [ecx+32328], 7

; 336  : 		if ( SimLibElapsedTime >= flybyTimer ){

	mov	edx, DWORD PTR _this$[ebp]
	mov	eax, DWORD PTR ?SimLibElapsedTime@@3KA	; SimLibElapsedTime
	cmp	eax, DWORD PTR [edx+33544]
	jb	SHORT $LN10@Cycle

; 337  : 			flybyTimer = 0;

	mov	ecx, DWORD PTR _this$[ebp]
	mov	DWORD PTR [ecx+33544], 0
$LN10@Cycle:

; 338  : 		}
; 339  : 	}
; 340  : 
; 341  : 	if (exitMenuTimer){

	mov	edx, DWORD PTR _this$[ebp]
	cmp	DWORD PTR [edx+33548], 0
	je	SHORT $LN8@Cycle

; 342  : 		if (vuxRealTime > exitMenuTimer){

	mov	eax, DWORD PTR _this$[ebp]
	mov	ecx, DWORD PTR ?vuxRealTime@@3KA	; vuxRealTime
	cmp	ecx, DWORD PTR [eax+33548]
	jbe	SHORT $LN8@Cycle

; 343  : 			SetExitMenu(TRUE);

	push	1
	mov	ecx, DWORD PTR _this$[ebp]
	call	?SetExitMenu@OTWDriverClass@@QAEXH@Z	; OTWDriverClass::SetExitMenu
$LN8@Cycle:

; 344  : 		}
; 345  : 	}
; 346  : 
; 347  : 	if(textTimeLeft[0] && textTimeLeft[0] < vuxRealTime){

	mov	edx, 4
	imul	edx, 0
	mov	eax, DWORD PTR _this$[ebp]
	cmp	DWORD PTR [eax+edx+32356], 0
	je	SHORT $LN7@Cycle
	mov	ecx, 4
	imul	ecx, 0
	mov	edx, DWORD PTR _this$[ebp]
	mov	eax, DWORD PTR [edx+ecx+32356]
	cmp	eax, DWORD PTR ?vuxRealTime@@3KA	; vuxRealTime
	jae	SHORT $LN7@Cycle

; 348  : 		ScrollMessages();

	mov	ecx, DWORD PTR _this$[ebp]
	call	?ScrollMessages@OTWDriverClass@@QAEXXZ	; OTWDriverClass::ScrollMessages
$LN7@Cycle:

; 349  : 	}
; 350  : 
; 351  : 	// Check for weather change
; 352  : 	if (!weatherCmd){

	mov	ecx, DWORD PTR _this$[ebp]
	cmp	DWORD PTR [ecx+32204], 0
	jne	SHORT $LN6@Cycle

; 353  : 	}
; 354  : 	else{

	jmp	SHORT $LN5@Cycle
$LN6@Cycle:

; 355  : 		float weatherRange;
; 356  : 
; 357  : 		doWeather = 1 - doWeather;

	mov	edx, DWORD PTR _this$[ebp]
	mov	eax, 1
	sub	eax, DWORD PTR [edx+32160]
	mov	ecx, DWORD PTR _this$[ebp]
	mov	DWORD PTR [ecx+32160], eax

; 358  : 		if (doWeather){

	mov	edx, DWORD PTR _this$[ebp]
	cmp	DWORD PTR [edx+32160], 0
	je	SHORT $LN4@Cycle

; 359  : 			weatherRange = 32.0F * FEET_PER_KM;

	movss	xmm0, DWORD PTR __real@47ccffae
	movss	DWORD PTR _weatherRange$4[ebp], xmm0

; 360  : 		}
; 361  : 		else {

	jmp	SHORT $LN3@Cycle
$LN4@Cycle:

; 362  : 			weatherRange = 0.0F;

	movss	xmm0, DWORD PTR __real@00000000
	movss	DWORD PTR _weatherRange$4[ebp], xmm0
$LN3@Cycle:

; 363  : 		}
; 364  : 		weatherCmd = 0;

	mov	eax, DWORD PTR _this$[ebp]
	mov	DWORD PTR [eax+32204], 0
$LN5@Cycle:

; 365  : 	}
; 366  : 
; 367  : 	DXContext *pCtx = OTWImage->GetDisplayDevice()->GetDefaultRC();

	mov	ecx, DWORD PTR _this$[ebp]
	mov	ecx, DWORD PTR [ecx+32040]
	call	?GetDisplayDevice@ImageBuffer@@QAEPAVDisplayDevice@@XZ ; ImageBuffer::GetDisplayDevice
	mov	ecx, eax
	call	?GetDefaultRC@DisplayDevice@@QAEPAVDXContext@@XZ ; DisplayDevice::GetDefaultRC
	mov	DWORD PTR _pCtx$[ebp], eax

; 368  : 	HRESULT hr = pCtx->TestCooperativeLevel();

	mov	ecx, DWORD PTR _pCtx$[ebp]
	call	?TestCooperativeLevel@DXContext@@QAEKXZ	; DXContext::TestCooperativeLevel
	mov	DWORD PTR _hr$[ebp], eax

; 369  : 
; 370  : 	if(FAILED(hr)){

	cmp	DWORD PTR _hr$[ebp], 0
	jge	SHORT $LN2@Cycle

; 371  : 		return;

	jmp	SHORT $LN33@Cycle
$LN2@Cycle:

; 372  : 	}
; 373  : 
; 374  : 	if(hr == S_FALSE){

	cmp	DWORD PTR _hr$[ebp], 1
	jne	SHORT $LN1@Cycle

; 375  : 		OTWImage->RestoreAll();

	mov	edx, DWORD PTR _this$[ebp]
	mov	ecx, DWORD PTR [edx+32040]
	call	?RestoreAll@ImageBuffer@@QAEXXZ		; ImageBuffer::RestoreAll

; 376  : 		TheTextureBank.RestoreAll();

	call	?RestoreAll@TextureBankClass@@SAXXZ	; TextureBankClass::RestoreAll

; 377  : 		TheTerrTextures.RestoreAll();

	mov	ecx, OFFSET ?TheTerrTextures@@3VTextureDB@@A ; TheTerrTextures
	call	?RestoreAll@TextureDB@@QAEXXZ		; TextureDB::RestoreAll

; 378  : 		TheFarTextures.RestoreAll();

	mov	ecx, OFFSET ?TheFarTextures@@3VFarTexDB@@A ; TheFarTextures
	call	?RestoreAll@FarTexDB@@QAEXXZ		; FarTexDB::RestoreAll
$LN1@Cycle:

; 379  : 	}
; 380  : 
; 381  : 	//STOP_PROFILE("OTWCYCLE");
; 382  : 	RenderFrame();

	mov	ecx, DWORD PTR _this$[ebp]
	call	?RenderFrame@OTWDriverClass@@QAEXXZ	; OTWDriverClass::RenderFrame
$LN33@Cycle:

; 383  : 
; 384  : 	// TODO:  It would be _REALLY_ nice to get some work done in here before blocking on the HW...
; 385  : 	// COBRA - DX - Yep...just done... flip pages just before starting a new frame
; 386  : 	//OTWImage->SwapBuffers(false);
; 387  : }

	mov	ecx, DWORD PTR __$EHRec$[ebp]
	mov	DWORD PTR fs:0, ecx
	pop	ecx
	mov	esp, ebp
	pop	ebp
	ret	0
_TEXT	ENDS
text$x	SEGMENT
__unwindfunclet$?Cycle@OTWDriverClass@@QAEXXZ$0:
	lea	ecx, DWORD PTR _vehicleWalker$2[ebp]
	jmp	??1VuListIterator@@UAE@XZ		; VuListIterator::~VuListIterator
__unwindfunclet$?Cycle@OTWDriverClass@@QAEXXZ$1:
	lea	ecx, DWORD PTR _featureWalker$3[ebp]
	jmp	??1VuListIterator@@UAE@XZ		; VuListIterator::~VuListIterator
__ehhandler$?Cycle@OTWDriverClass@@QAEXXZ:
	mov	edx, DWORD PTR [esp+8]
	lea	eax, DWORD PTR [edx+12]
	mov	ecx, DWORD PTR [edx-68]
	xor	ecx, eax
	call	@__security_check_cookie@4
	mov	eax, OFFSET __ehfuncinfo$?Cycle@OTWDriverClass@@QAEXXZ
	jmp	___CxxFrameHandler3
text$x	ENDS
?Cycle@OTWDriverClass@@QAEXXZ ENDP			; OTWDriverClass::Cycle
; Function compile flags: /Odtp
; File c:\users\zhitao li\documents\visual studio 2012\projects\freefalcon\sim\include\simbase.h
;	COMDAT ?PowerOutput@SimBaseClass@@QAEMXZ
_TEXT	SEGMENT
_this$ = -4						; size = 4
?PowerOutput@SimBaseClass@@QAEMXZ PROC			; SimBaseClass::PowerOutput, COMDAT
; _this$ = ecx

; 215  : 	float PowerOutput (void) {return specialData.powerOutput;};

	push	ebp
	mov	ebp, esp
	push	ecx
	mov	DWORD PTR _this$[ebp], ecx
	mov	eax, DWORD PTR _this$[ebp]
	fld	DWORD PTR [eax+188]
	mov	esp, ebp
	pop	ebp
	ret	0
?PowerOutput@SimBaseClass@@QAEMXZ ENDP			; SimBaseClass::PowerOutput
_TEXT	ENDS
; Function compile flags: /Odtp
; File c:\users\zhitao li\documents\visual studio 2012\projects\freefalcon\sim\include\simbase.h
;	COMDAT ?IsAwake@SimBaseClass@@QBEHXZ
_TEXT	SEGMENT
_this$ = -4						; size = 4
?IsAwake@SimBaseClass@@QBEHXZ PROC			; SimBaseClass::IsAwake, COMDAT
; _this$ = ecx

; 177  : 	int IsAwake() const { return localFlags & OBJ_AWAKE; }

	push	ebp
	mov	ebp, esp
	push	ecx
	mov	DWORD PTR _this$[ebp], ecx
	mov	eax, DWORD PTR _this$[ebp]
	movzx	eax, BYTE PTR [eax+284]
	and	eax, 1
	mov	esp, ebp
	pop	ebp
	ret	0
?IsAwake@SimBaseClass@@QBEHXZ ENDP			; SimBaseClass::IsAwake
_TEXT	ENDS
; Function compile flags: /Odtp
; File c:\users\zhitao li\documents\visual studio 2012\projects\freefalcon\sim\include\simbase.h
;	COMDAT ?IsFiring@SimBaseClass@@QBEHXZ
_TEXT	SEGMENT
_this$ = -8						; size = 4
tv68 = -4						; size = 4
?IsFiring@SimBaseClass@@QBEHXZ PROC			; SimBaseClass::IsFiring, COMDAT
; _this$ = ecx

; 176  : 	int IsFiring() const { return (specialData.flags & OBJ_FIRING_GUN ? TRUE : FALSE); }

	push	ebp
	mov	ebp, esp
	sub	esp, 8
	mov	DWORD PTR _this$[ebp], ecx
	mov	eax, DWORD PTR _this$[ebp]
	mov	ecx, DWORD PTR [eax+172]
	and	ecx, 64					; 00000040H
	je	SHORT $LN3@IsFiring
	mov	DWORD PTR tv68[ebp], 1
	jmp	SHORT $LN4@IsFiring
$LN3@IsFiring:
	mov	DWORD PTR tv68[ebp], 0
$LN4@IsFiring:
	mov	eax, DWORD PTR tv68[ebp]
	mov	esp, ebp
	pop	ebp
	ret	0
?IsFiring@SimBaseClass@@QBEHXZ ENDP			; SimBaseClass::IsFiring
_TEXT	ENDS
; Function compile flags: /Odtp
; File c:\users\zhitao li\documents\visual studio 2012\projects\freefalcon\falclib\include\playerop.h
;	COMDAT ?SetInfoBar@PlayerOptionsClass@@QAEX_N@Z
_TEXT	SEGMENT
_this$ = -4						; size = 4
_onOff$ = 8						; size = 1
?SetInfoBar@PlayerOptionsClass@@QAEX_N@Z PROC		; PlayerOptionsClass::SetInfoBar, COMDAT
; _this$ = ecx

; 226  : 	void SetInfoBar(bool onOff)								{ infoBar = onOff; }		// Retro 25Dec2003

	push	ebp
	mov	ebp, esp
	push	ecx
	mov	DWORD PTR _this$[ebp], ecx
	mov	eax, DWORD PTR _this$[ebp]
	mov	cl, BYTE PTR _onOff$[ebp]
	mov	BYTE PTR [eax+203], cl
	mov	esp, ebp
	pop	ebp
	ret	4
?SetInfoBar@PlayerOptionsClass@@QAEX_N@Z ENDP		; PlayerOptionsClass::SetInfoBar
_TEXT	ENDS
; Function compile flags: /Odtp
; File c:\users\zhitao li\documents\visual studio 2012\projects\freefalcon\falclib\include\playerop.h
;	COMDAT ?Get2dTrackIR@PlayerOptionsClass@@QBE_NXZ
_TEXT	SEGMENT
_this$ = -4						; size = 4
?Get2dTrackIR@PlayerOptionsClass@@QBE_NXZ PROC		; PlayerOptionsClass::Get2dTrackIR, COMDAT
; _this$ = ecx

; 179  : 	bool Get2dTrackIR(void) const 							{ return TrackIR_2d; }			// Retro 27Dec2003

	push	ebp
	mov	ebp, esp
	push	ecx
	mov	DWORD PTR _this$[ebp], ecx
	mov	eax, DWORD PTR _this$[ebp]
	mov	al, BYTE PTR [eax+205]
	mov	esp, ebp
	pop	ebp
	ret	0
?Get2dTrackIR@PlayerOptionsClass@@QBE_NXZ ENDP		; PlayerOptionsClass::Get2dTrackIR
_TEXT	ENDS
; Function compile flags: /Odtp
; File c:\users\zhitao li\documents\visual studio 2012\projects\freefalcon\sim\include\playerrwr.h
;	COMDAT ?SetGridVisible@PlayerRwrClass@@QAEXH@Z
_TEXT	SEGMENT
_this$ = -4						; size = 4
_flag$ = 8						; size = 4
?SetGridVisible@PlayerRwrClass@@QAEXH@Z PROC		; PlayerRwrClass::SetGridVisible, COMDAT
; _this$ = ecx

; 24   : 	void SetGridVisible(BOOL flag)				{mGridVisible = flag;};

	push	ebp
	mov	ebp, esp
	push	ecx
	mov	DWORD PTR _this$[ebp], ecx
	mov	eax, DWORD PTR _this$[ebp]
	mov	ecx, DWORD PTR _flag$[ebp]
	mov	DWORD PTR [eax+616], ecx
	mov	esp, ebp
	pop	ebp
	ret	4
?SetGridVisible@PlayerRwrClass@@QAEXH@Z ENDP		; PlayerRwrClass::SetGridVisible
_TEXT	ENDS
; Function compile flags: /Odtp
; File c:\users\zhitao li\documents\visual studio 2012\projects\freefalcon\sim\include\hud.h
;	COMDAT ?Ownship@HudClass@@QAEPAVAircraftClass@@XZ
_TEXT	SEGMENT
_this$ = -4						; size = 4
?Ownship@HudClass@@QAEPAVAircraftClass@@XZ PROC		; HudClass::Ownship, COMDAT
; _this$ = ecx

; 253  : 	AircraftClass*	Ownship(void) {return ownship;};

	push	ebp
	mov	ebp, esp
	push	ecx
	mov	DWORD PTR _this$[ebp], ecx
	mov	eax, DWORD PTR _this$[ebp]
	mov	eax, DWORD PTR [eax+32]
	mov	esp, ebp
	pop	ebp
	ret	0
?Ownship@HudClass@@QAEPAVAircraftClass@@XZ ENDP		; HudClass::Ownship
_TEXT	ENDS
; Function compile flags: /Odtp
; File c:\users\zhitao li\documents\visual studio 2012\projects\freefalcon\graphics\dxengine\dxengine.h
;	COMDAT ?ResetState@CDXEngine@@QAEXXZ
_TEXT	SEGMENT
_this$ = -4						; size = 4
?ResetState@CDXEngine@@QAEXXZ PROC			; CDXEngine::ResetState, COMDAT
; _this$ = ecx

; 146  : 	void			ResetState(void)				{ m_RenderState = DX_OTW; m_StatesStackLevel = 0;}

	push	ebp
	mov	ebp, esp
	push	ecx
	mov	DWORD PTR _this$[ebp], ecx
	mov	DWORD PTR ?m_RenderState@CDXEngine@@0W4DX_StateType@@A, 0 ; CDXEngine::m_RenderState
	mov	DWORD PTR ?m_StatesStackLevel@CDXEngine@@0KA, 0 ; CDXEngine::m_StatesStackLevel
	mov	esp, ebp
	pop	ebp
	ret	0
?ResetState@CDXEngine@@QAEXXZ ENDP			; CDXEngine::ResetState
_TEXT	ENDS
; Function compile flags: /Odtp
; File c:\users\zhitao li\documents\visual studio 2012\projects\freefalcon\graphics\dxengine\dxengine.h
;	COMDAT ?SetState@CDXEngine@@QAEXW4DX_StateType@@@Z
_TEXT	SEGMENT
_this$ = -4						; size = 4
_Mode$ = 8						; size = 4
?SetState@CDXEngine@@QAEXW4DX_StateType@@@Z PROC	; CDXEngine::SetState, COMDAT
; _this$ = ecx

; 145  : 	void			SetState(DX_StateType	Mode)	{ m_RenderState = Mode; }

	push	ebp
	mov	ebp, esp
	push	ecx
	mov	DWORD PTR _this$[ebp], ecx
	mov	eax, DWORD PTR _Mode$[ebp]
	mov	DWORD PTR ?m_RenderState@CDXEngine@@0W4DX_StateType@@A, eax ; CDXEngine::m_RenderState
	mov	esp, ebp
	pop	ebp
	ret	4
?SetState@CDXEngine@@QAEXW4DX_StateType@@@Z ENDP	; CDXEngine::SetState
_TEXT	ENDS
; Function compile flags: /Odtp
; File c:\users\zhitao li\documents\visual studio 2012\projects\freefalcon\graphics\dxengine\dxengine.h
;	COMDAT ?SetPitMode@CDXEngine@@QAEX_N@Z
_TEXT	SEGMENT
_this$ = -4						; size = 4
_Mode$ = 8						; size = 1
?SetPitMode@CDXEngine@@QAEX_N@Z PROC			; CDXEngine::SetPitMode, COMDAT
; _this$ = ecx

; 143  : 	void	SetPitMode(bool Mode) { m_PitMode=Mode; }

	push	ebp
	mov	ebp, esp
	push	ecx
	mov	DWORD PTR _this$[ebp], ecx
	mov	al, BYTE PTR _Mode$[ebp]
	mov	BYTE PTR ?m_PitMode@CDXEngine@@0_NA, al	; CDXEngine::m_PitMode
	mov	esp, ebp
	pop	ebp
	ret	4
?SetPitMode@CDXEngine@@QAEX_N@Z ENDP			; CDXEngine::SetPitMode
_TEXT	ENDS
; Function compile flags: /Odtp
; File c:\users\zhitao li\documents\visual studio 2012\projects\freefalcon\graphics\dxengine\dxengine.h
;	COMDAT ?ClearStencil@CDXEngine@@QAEXXZ
_TEXT	SEGMENT
_this$ = -4						; size = 4
?ClearStencil@CDXEngine@@QAEXXZ PROC			; CDXEngine::ClearStencil, COMDAT
; _this$ = ecx

; 127  : 	void ClearStencil(void) { m_pD3DD->Clear(NULL,NULL,D3DCLEAR_STENCIL,0,1.0f,0); m_StencilRef=0; SetStencilMode(STENCIL_OFF); }

	push	ebp
	mov	ebp, esp
	push	ecx
	mov	DWORD PTR _this$[ebp], ecx
	push	0
	push	ecx
	movss	xmm0, DWORD PTR __real@3f800000
	movss	DWORD PTR [esp], xmm0
	push	0
	push	4
	push	0
	push	0
	mov	eax, DWORD PTR ?m_pD3DD@CDXEngine@@0PAUIDirect3DDevice7@@A ; CDXEngine::m_pD3DD
	mov	ecx, DWORD PTR [eax]
	mov	edx, DWORD PTR ?m_pD3DD@CDXEngine@@0PAUIDirect3DDevice7@@A ; CDXEngine::m_pD3DD
	push	edx
	mov	eax, DWORD PTR [ecx+40]
	call	eax
	mov	DWORD PTR ?m_StencilRef@CDXEngine@@0KA, 0 ; CDXEngine::m_StencilRef
	push	0
	mov	ecx, DWORD PTR _this$[ebp]
	call	?SetStencilMode@CDXEngine@@QAEKK@Z	; CDXEngine::SetStencilMode
	mov	esp, ebp
	pop	ebp
	ret	0
?ClearStencil@CDXEngine@@QAEXXZ ENDP			; CDXEngine::ClearStencil
_TEXT	ENDS
; Function compile flags: /Odtp
; File c:\users\zhitao li\documents\visual studio 2012\projects\freefalcon\graphics\dxengine\dxengine.h
;	COMDAT ?ClearLights@CDXEngine@@QAEXXZ
_TEXT	SEGMENT
_this$ = -4						; size = 4
?ClearLights@CDXEngine@@QAEXXZ PROC			; CDXEngine::ClearLights, COMDAT
; _this$ = ecx

; 125  : 	void ClearLights(void) { TheLightEngine.ResetLightsList(); }

	push	ebp
	mov	ebp, esp
	push	ecx
	mov	DWORD PTR _this$[ebp], ecx
	mov	ecx, OFFSET ?TheLightEngine@@3VCDXLight@@A ; TheLightEngine
	call	?ResetLightsList@CDXLight@@QAEXXZ	; CDXLight::ResetLightsList
	mov	esp, ebp
	pop	ebp
	ret	0
?ClearLights@CDXEngine@@QAEXXZ ENDP			; CDXEngine::ClearLights
_TEXT	ENDS
; Function compile flags: /Odtp
; File c:\users\zhitao li\documents\visual studio 2012\projects\freefalcon\graphics\include\texbank.h
;	COMDAT ?SetRatedLoad@TextureBankClass@@SAX_N@Z
_TEXT	SEGMENT
_Status$ = 8						; size = 1
?SetRatedLoad@TextureBankClass@@SAX_N@Z PROC		; TextureBankClass::SetRatedLoad, COMDAT

; 102  : 	static void	SetRatedLoad( bool Status ) { RatedLoad = false; }

	push	ebp
	mov	ebp, esp
	mov	BYTE PTR ?RatedLoad@TextureBankClass@@1_NA, 0 ; TextureBankClass::RatedLoad
	pop	ebp
	ret	0
?SetRatedLoad@TextureBankClass@@SAX_N@Z ENDP		; TextureBankClass::SetRatedLoad
_TEXT	ENDS
; Function compile flags: /Odtp
; File c:\users\zhitao li\documents\visual studio 2012\projects\freefalcon\graphics\include\drawbsp.h
;	COMDAT ?Label@DrawableBSP@@QAEPADXZ
_TEXT	SEGMENT
_this$ = -4						; size = 4
?Label@DrawableBSP@@QAEPADXZ PROC			; DrawableBSP::Label, COMDAT
; _this$ = ecx

; 62   : 	char *Label()											{ return label; }

	push	ebp
	mov	ebp, esp
	push	ecx
	mov	DWORD PTR _this$[ebp], ecx
	mov	eax, DWORD PTR _this$[ebp]
	add	eax, 128				; 00000080H
	mov	esp, ebp
	pop	ebp
	ret	0
?Label@DrawableBSP@@QAEPADXZ ENDP			; DrawableBSP::Label
_TEXT	ENDS
; Function compile flags: /Odtp
; File c:\users\zhitao li\documents\visual studio 2012\projects\freefalcon\graphics\include\objectlod.h
;	COMDAT ?SetRatedLoad@ObjectLOD@@SAX_N@Z
_TEXT	SEGMENT
_Status$ = 8						; size = 1
?SetRatedLoad@ObjectLOD@@SAX_N@Z PROC			; ObjectLOD::SetRatedLoad, COMDAT

; 40   : 	static void			SetRatedLoad( bool Status ) { RatedLoad = false; }

	push	ebp
	mov	ebp, esp
	mov	BYTE PTR ?RatedLoad@ObjectLOD@@1_NA, 0	; ObjectLOD::RatedLoad
	pop	ebp
	ret	0
?SetRatedLoad@ObjectLOD@@SAX_N@Z ENDP			; ObjectLOD::SetRatedLoad
_TEXT	ENDS
; Function compile flags: /Odtp
; File c:\users\zhitao li\documents\visual studio 2012\projects\freefalcon\graphics\include\renderow.h
;	COMDAT ?SetGreenMode@RenderOTW@@QAEX_N@Z
_TEXT	SEGMENT
_this$ = -4						; size = 4
_state$ = 8						; size = 1
?SetGreenMode@RenderOTW@@QAEX_N@Z PROC			; RenderOTW::SetGreenMode, COMDAT
; _this$ = ecx

; 166  : 	inline void SetGreenMode(bool state) { GreenMode = state; };

	push	ebp
	mov	ebp, esp
	push	ecx
	mov	DWORD PTR _this$[ebp], ecx
	mov	eax, DWORD PTR _this$[ebp]
	mov	cl, BYTE PTR _state$[ebp]
	mov	BYTE PTR [eax+263368], cl
	mov	esp, ebp
	pop	ebp
	ret	4
?SetGreenMode@RenderOTW@@QAEX_N@Z ENDP			; RenderOTW::SetGreenMode
_TEXT	ENDS
; Function compile flags: /Odtp
; File c:\users\zhitao li\documents\visual studio 2012\projects\freefalcon\graphics\include\display.h
;	COMDAT ?CenterOriginInViewport@VirtualDisplay@@QAEXXZ
_TEXT	SEGMENT
_this$ = -4						; size = 4
?CenterOriginInViewport@VirtualDisplay@@QAEXXZ PROC	; VirtualDisplay::CenterOriginInViewport, COMDAT
; _this$ = ecx

; 143  : 	void CenterOriginInViewport( void )  { dmatrix.translationX = 0.0f; dmatrix.translationY = 0.0f; };

	push	ebp
	mov	ebp, esp
	push	ecx
	mov	DWORD PTR _this$[ebp], ecx
	mov	eax, DWORD PTR _this$[ebp]
	movss	xmm0, DWORD PTR __real@00000000
	movss	DWORD PTR [eax+68], xmm0
	mov	ecx, DWORD PTR _this$[ebp]
	movss	xmm0, DWORD PTR __real@00000000
	movss	DWORD PTR [ecx+72], xmm0
	mov	esp, ebp
	pop	ebp
	ret	0
?CenterOriginInViewport@VirtualDisplay@@QAEXXZ ENDP	; VirtualDisplay::CenterOriginInViewport
_TEXT	ENDS
; Function compile flags: /Odtp
; File c:\users\zhitao li\documents\visual studio 2012\projects\freefalcon\graphics\include\display.h
;	COMDAT ?CurFont@VirtualDisplay@@SAHXZ
_TEXT	SEGMENT
?CurFont@VirtualDisplay@@SAHXZ PROC			; VirtualDisplay::CurFont, COMDAT

; 132  : 	static int CurFont(void) { return pFontSet->fontNum; };

	push	ebp
	mov	ebp, esp
	mov	eax, DWORD PTR ?pFontSet@VirtualDisplay@@2PAUFontSet@@A ; VirtualDisplay::pFontSet
	mov	eax, DWORD PTR [eax+24672]
	pop	ebp
	ret	0
?CurFont@VirtualDisplay@@SAHXZ ENDP			; VirtualDisplay::CurFont
_TEXT	ENDS
; Function compile flags: /Odtp
; File c:\users\zhitao li\documents\visual studio 2012\projects\freefalcon\graphics\include\imagebuf.h
;	COMDAT ?GetDisplayDevice@ImageBuffer@@QAEPAVDisplayDevice@@XZ
_TEXT	SEGMENT
_this$ = -4						; size = 4
?GetDisplayDevice@ImageBuffer@@QAEPAVDisplayDevice@@XZ PROC ; ImageBuffer::GetDisplayDevice, COMDAT
; _this$ = ecx

; 41   : 	DisplayDevice *GetDisplayDevice()	{ return device; };

	push	ebp
	mov	ebp, esp
	push	ecx
	mov	DWORD PTR _this$[ebp], ecx
	mov	eax, DWORD PTR _this$[ebp]
	mov	eax, DWORD PTR [eax+8]
	mov	esp, ebp
	pop	ebp
	ret	0
?GetDisplayDevice@ImageBuffer@@QAEPAVDisplayDevice@@XZ ENDP ; ImageBuffer::GetDisplayDevice
_TEXT	ENDS
; Function compile flags: /Odtp
;	COMDAT ??_G_System_error_category@std@@UAEPAXI@Z
_TEXT	SEGMENT
_this$ = -4						; size = 4
___flags$ = 8						; size = 4
??_G_System_error_category@std@@UAEPAXI@Z PROC		; std::_System_error_category::`scalar deleting destructor', COMDAT
; _this$ = ecx
	push	ebp
	mov	ebp, esp
	push	ecx
	mov	DWORD PTR _this$[ebp], ecx
	mov	ecx, DWORD PTR _this$[ebp]
	call	??1_System_error_category@std@@UAE@XZ
	mov	eax, DWORD PTR ___flags$[ebp]
	and	eax, 1
	je	SHORT $LN1@scalar
	mov	ecx, DWORD PTR _this$[ebp]
	push	ecx
	call	??3@YAXPAX@Z				; operator delete
	add	esp, 4
$LN1@scalar:
	mov	eax, DWORD PTR _this$[ebp]
	mov	esp, ebp
	pop	ebp
	ret	4
??_G_System_error_category@std@@UAEPAXI@Z ENDP		; std::_System_error_category::`scalar deleting destructor'
_TEXT	ENDS
; Function compile flags: /Odtp
;	COMDAT ??1_System_error_category@std@@UAE@XZ
_TEXT	SEGMENT
_this$ = -4						; size = 4
??1_System_error_category@std@@UAE@XZ PROC		; std::_System_error_category::~_System_error_category, COMDAT
; _this$ = ecx
	push	ebp
	mov	ebp, esp
	push	ecx
	mov	DWORD PTR _this$[ebp], ecx
	mov	ecx, DWORD PTR _this$[ebp]
	call	??1_Generic_error_category@std@@UAE@XZ
	mov	esp, ebp
	pop	ebp
	ret	0
??1_System_error_category@std@@UAE@XZ ENDP		; std::_System_error_category::~_System_error_category
_TEXT	ENDS
; Function compile flags: /Odtp
; File c:\program files (x86)\microsoft visual studio 11.0\vc\include\system_error
;	COMDAT ?default_error_condition@_System_error_category@std@@UBE?AVerror_condition@2@H@Z
_TEXT	SEGMENT
_this$ = -4						; size = 4
___$ReturnUdt$ = 8					; size = 4
__Errval$ = 12						; size = 4
?default_error_condition@_System_error_category@std@@UBE?AVerror_condition@2@H@Z PROC ; std::_System_error_category::default_error_condition, COMDAT
; _this$ = ecx

; 641  : 		{	// make error_condition for error code (generic if possible)

	push	ebp
	mov	ebp, esp
	push	ecx
	mov	DWORD PTR _this$[ebp], ecx

; 642  : 		if (_Syserror_map(_Errval))

	mov	eax, DWORD PTR __Errval$[ebp]
	push	eax
	call	?_Syserror_map@std@@YAPBDH@Z		; std::_Syserror_map
	add	esp, 4
	test	eax, eax
	je	SHORT $LN2@default_er

; 643  : 			return (error_condition(_Errval, generic_category()));

	call	?generic_category@std@@YAABVerror_category@1@XZ ; std::generic_category
	push	eax
	mov	ecx, DWORD PTR __Errval$[ebp]
	push	ecx
	mov	ecx, DWORD PTR ___$ReturnUdt$[ebp]
	call	??0error_condition@std@@QAE@HABVerror_category@1@@Z ; std::error_condition::error_condition
	mov	eax, DWORD PTR ___$ReturnUdt$[ebp]
	jmp	SHORT $LN3@default_er

; 644  : 		else

	jmp	SHORT $LN3@default_er
$LN2@default_er:

; 645  : 			return (error_condition(_Errval, system_category()));

	call	?system_category@std@@YAABVerror_category@1@XZ ; std::system_category
	push	eax
	mov	edx, DWORD PTR __Errval$[ebp]
	push	edx
	mov	ecx, DWORD PTR ___$ReturnUdt$[ebp]
	call	??0error_condition@std@@QAE@HABVerror_category@1@@Z ; std::error_condition::error_condition
	mov	eax, DWORD PTR ___$ReturnUdt$[ebp]
$LN3@default_er:

; 646  : 		}

	mov	esp, ebp
	pop	ebp
	ret	8
?default_error_condition@_System_error_category@std@@UBE?AVerror_condition@2@H@Z ENDP ; std::_System_error_category::default_error_condition
_TEXT	ENDS
; Function compile flags: /Odtp
; File c:\program files (x86)\microsoft visual studio 11.0\vc\include\system_error
;	COMDAT ?message@_System_error_category@std@@UBE?AV?$basic_string@DU?$char_traits@D@std@@V?$allocator@D@2@@2@H@Z
_TEXT	SEGMENT
_this$ = -16						; size = 4
$T1 = -12						; size = 4
tv69 = -8						; size = 4
__Name$ = -4						; size = 4
___$ReturnUdt$ = 8					; size = 4
__Errcode$ = 12						; size = 4
?message@_System_error_category@std@@UBE?AV?$basic_string@DU?$char_traits@D@std@@V?$allocator@D@2@@2@H@Z PROC ; std::_System_error_category::message, COMDAT
; _this$ = ecx

; 634  : 		{	// convert to name of error

	push	ebp
	mov	ebp, esp
	sub	esp, 16					; 00000010H
	mov	DWORD PTR _this$[ebp], ecx
	mov	DWORD PTR $T1[ebp], 0

; 635  : 		const char *_Name = _Winerror_map(_Errcode);

	mov	eax, DWORD PTR __Errcode$[ebp]
	push	eax
	call	?_Winerror_map@std@@YAPBDH@Z		; std::_Winerror_map
	add	esp, 4
	mov	DWORD PTR __Name$[ebp], eax

; 636  : 		return (string(_Name != 0 ? _Name : "unknown error"));

	cmp	DWORD PTR __Name$[ebp], 0
	je	SHORT $LN3@message
	mov	ecx, DWORD PTR __Name$[ebp]
	mov	DWORD PTR tv69[ebp], ecx
	jmp	SHORT $LN4@message
$LN3@message:
	mov	DWORD PTR tv69[ebp], OFFSET ??_C@_0O@BFJCFAAK@unknown?5error?$AA@
$LN4@message:
	mov	edx, DWORD PTR tv69[ebp]
	push	edx
	mov	ecx, DWORD PTR ___$ReturnUdt$[ebp]
	call	??0?$basic_string@DU?$char_traits@D@std@@V?$allocator@D@2@@std@@QAE@PBD@Z ; std::basic_string<char,std::char_traits<char>,std::allocator<char> >::basic_string<char,std::char_traits<char>,std::allocator<char> >
	mov	eax, DWORD PTR $T1[ebp]
	or	eax, 1
	mov	DWORD PTR $T1[ebp], eax
	mov	eax, DWORD PTR ___$ReturnUdt$[ebp]

; 637  : 		}

	mov	esp, ebp
	pop	ebp
	ret	8
?message@_System_error_category@std@@UBE?AV?$basic_string@DU?$char_traits@D@std@@V?$allocator@D@2@@2@H@Z ENDP ; std::_System_error_category::message
_TEXT	ENDS
; Function compile flags: /Odtp
; File c:\program files (x86)\microsoft visual studio 11.0\vc\include\system_error
;	COMDAT ?name@_System_error_category@std@@UBEPBDXZ
_TEXT	SEGMENT
_this$ = -4						; size = 4
?name@_System_error_category@std@@UBEPBDXZ PROC		; std::_System_error_category::name, COMDAT
; _this$ = ecx

; 629  : 		{	// get name of category

	push	ebp
	mov	ebp, esp
	push	ecx
	mov	DWORD PTR _this$[ebp], ecx

; 630  : 		return ("system");

	mov	eax, OFFSET ??_C@_06FHFOAHML@system?$AA@

; 631  : 		}

	mov	esp, ebp
	pop	ebp
	ret	0
?name@_System_error_category@std@@UBEPBDXZ ENDP		; std::_System_error_category::name
_TEXT	ENDS
; Function compile flags: /Odtp
; File c:\program files (x86)\microsoft visual studio 11.0\vc\include\system_error
;	COMDAT ??0_System_error_category@std@@QAE@XZ
_TEXT	SEGMENT
_this$ = -4						; size = 4
??0_System_error_category@std@@QAE@XZ PROC		; std::_System_error_category::_System_error_category, COMDAT
; _this$ = ecx

; 624  : 	_System_error_category()

	push	ebp
	mov	ebp, esp
	push	ecx
	mov	DWORD PTR _this$[ebp], ecx
	mov	ecx, DWORD PTR _this$[ebp]
	call	??0_Generic_error_category@std@@QAE@XZ	; std::_Generic_error_category::_Generic_error_category
	mov	eax, DWORD PTR _this$[ebp]
	mov	DWORD PTR [eax], OFFSET ??_7_System_error_category@std@@6B@

; 625  : 		{	// default constructor
; 626  : 		}

	mov	eax, DWORD PTR _this$[ebp]
	mov	esp, ebp
	pop	ebp
	ret	0
??0_System_error_category@std@@QAE@XZ ENDP		; std::_System_error_category::_System_error_category
_TEXT	ENDS
; Function compile flags: /Odtp
;	COMDAT ??_G_Iostream_error_category@std@@UAEPAXI@Z
_TEXT	SEGMENT
_this$ = -4						; size = 4
___flags$ = 8						; size = 4
??_G_Iostream_error_category@std@@UAEPAXI@Z PROC	; std::_Iostream_error_category::`scalar deleting destructor', COMDAT
; _this$ = ecx
	push	ebp
	mov	ebp, esp
	push	ecx
	mov	DWORD PTR _this$[ebp], ecx
	mov	ecx, DWORD PTR _this$[ebp]
	call	??1_Iostream_error_category@std@@UAE@XZ
	mov	eax, DWORD PTR ___flags$[ebp]
	and	eax, 1
	je	SHORT $LN1@scalar
	mov	ecx, DWORD PTR _this$[ebp]
	push	ecx
	call	??3@YAXPAX@Z				; operator delete
	add	esp, 4
$LN1@scalar:
	mov	eax, DWORD PTR _this$[ebp]
	mov	esp, ebp
	pop	ebp
	ret	4
??_G_Iostream_error_category@std@@UAEPAXI@Z ENDP	; std::_Iostream_error_category::`scalar deleting destructor'
_TEXT	ENDS
; Function compile flags: /Odtp
;	COMDAT ??1_Iostream_error_category@std@@UAE@XZ
_TEXT	SEGMENT
_this$ = -4						; size = 4
??1_Iostream_error_category@std@@UAE@XZ PROC		; std::_Iostream_error_category::~_Iostream_error_category, COMDAT
; _this$ = ecx
	push	ebp
	mov	ebp, esp
	push	ecx
	mov	DWORD PTR _this$[ebp], ecx
	mov	ecx, DWORD PTR _this$[ebp]
	call	??1_Generic_error_category@std@@UAE@XZ
	mov	esp, ebp
	pop	ebp
	ret	0
??1_Iostream_error_category@std@@UAE@XZ ENDP		; std::_Iostream_error_category::~_Iostream_error_category
_TEXT	ENDS
; Function compile flags: /Odtp
; File c:\program files (x86)\microsoft visual studio 11.0\vc\include\system_error
;	COMDAT ?message@_Iostream_error_category@std@@UBE?AV?$basic_string@DU?$char_traits@D@std@@V?$allocator@D@2@@2@H@Z
_TEXT	SEGMENT
_this$ = -8						; size = 4
$T1 = -4						; size = 4
___$ReturnUdt$ = 8					; size = 4
__Errcode$ = 12						; size = 4
?message@_Iostream_error_category@std@@UBE?AV?$basic_string@DU?$char_traits@D@std@@V?$allocator@D@2@@2@H@Z PROC ; std::_Iostream_error_category::message, COMDAT
; _this$ = ecx

; 611  : 		{	// convert to name of error

	push	ebp
	mov	ebp, esp
	sub	esp, 8
	mov	DWORD PTR _this$[ebp], ecx
	mov	DWORD PTR $T1[ebp], 0

; 612  : 		if (_Errcode == (int)io_errc::stream)

	cmp	DWORD PTR __Errcode$[ebp], 1
	jne	SHORT $LN2@message

; 613  : 			return ("iostream stream error");

	push	OFFSET ??_C@_0BG@PADBLCHM@iostream?5stream?5error?$AA@
	mov	ecx, DWORD PTR ___$ReturnUdt$[ebp]
	call	??0?$basic_string@DU?$char_traits@D@std@@V?$allocator@D@2@@std@@QAE@PBD@Z ; std::basic_string<char,std::char_traits<char>,std::allocator<char> >::basic_string<char,std::char_traits<char>,std::allocator<char> >
	mov	eax, DWORD PTR $T1[ebp]
	or	eax, 1
	mov	DWORD PTR $T1[ebp], eax
	mov	eax, DWORD PTR ___$ReturnUdt$[ebp]
	jmp	SHORT $LN3@message

; 614  : 		else

	jmp	SHORT $LN3@message
$LN2@message:

; 615  : 			return (_Generic_error_category::message(_Errcode));

	mov	ecx, DWORD PTR __Errcode$[ebp]
	push	ecx
	mov	edx, DWORD PTR ___$ReturnUdt$[ebp]
	push	edx
	mov	ecx, DWORD PTR _this$[ebp]
	call	?message@_Generic_error_category@std@@UBE?AV?$basic_string@DU?$char_traits@D@std@@V?$allocator@D@2@@2@H@Z ; std::_Generic_error_category::message
	mov	eax, DWORD PTR $T1[ebp]
	or	eax, 1
	mov	DWORD PTR $T1[ebp], eax
	mov	eax, DWORD PTR ___$ReturnUdt$[ebp]
$LN3@message:

; 616  : 		}

	mov	esp, ebp
	pop	ebp
	ret	8
?message@_Iostream_error_category@std@@UBE?AV?$basic_string@DU?$char_traits@D@std@@V?$allocator@D@2@@2@H@Z ENDP ; std::_Iostream_error_category::message
_TEXT	ENDS
; Function compile flags: /Odtp
; File c:\program files (x86)\microsoft visual studio 11.0\vc\include\system_error
;	COMDAT ?name@_Iostream_error_category@std@@UBEPBDXZ
_TEXT	SEGMENT
_this$ = -4						; size = 4
?name@_Iostream_error_category@std@@UBEPBDXZ PROC	; std::_Iostream_error_category::name, COMDAT
; _this$ = ecx

; 606  : 		{	// get name of category

	push	ebp
	mov	ebp, esp
	push	ecx
	mov	DWORD PTR _this$[ebp], ecx

; 607  : 		return ("iostream");

	mov	eax, OFFSET ??_C@_08LLGCOLLL@iostream?$AA@

; 608  : 		}

	mov	esp, ebp
	pop	ebp
	ret	0
?name@_Iostream_error_category@std@@UBEPBDXZ ENDP	; std::_Iostream_error_category::name
_TEXT	ENDS
; Function compile flags: /Odtp
; File c:\program files (x86)\microsoft visual studio 11.0\vc\include\system_error
;	COMDAT ??0_Iostream_error_category@std@@QAE@XZ
_TEXT	SEGMENT
_this$ = -4						; size = 4
??0_Iostream_error_category@std@@QAE@XZ PROC		; std::_Iostream_error_category::_Iostream_error_category, COMDAT
; _this$ = ecx

; 601  : 	_Iostream_error_category()

	push	ebp
	mov	ebp, esp
	push	ecx
	mov	DWORD PTR _this$[ebp], ecx
	mov	ecx, DWORD PTR _this$[ebp]
	call	??0_Generic_error_category@std@@QAE@XZ	; std::_Generic_error_category::_Generic_error_category
	mov	eax, DWORD PTR _this$[ebp]
	mov	DWORD PTR [eax], OFFSET ??_7_Iostream_error_category@std@@6B@

; 602  : 		{	// default constructor
; 603  : 		}

	mov	eax, DWORD PTR _this$[ebp]
	mov	esp, ebp
	pop	ebp
	ret	0
??0_Iostream_error_category@std@@QAE@XZ ENDP		; std::_Iostream_error_category::_Iostream_error_category
_TEXT	ENDS
; Function compile flags: /Odtp
;	COMDAT ??_G_Generic_error_category@std@@UAEPAXI@Z
_TEXT	SEGMENT
_this$ = -4						; size = 4
___flags$ = 8						; size = 4
??_G_Generic_error_category@std@@UAEPAXI@Z PROC		; std::_Generic_error_category::`scalar deleting destructor', COMDAT
; _this$ = ecx
	push	ebp
	mov	ebp, esp
	push	ecx
	mov	DWORD PTR _this$[ebp], ecx
	mov	ecx, DWORD PTR _this$[ebp]
	call	??1_Generic_error_category@std@@UAE@XZ
	mov	eax, DWORD PTR ___flags$[ebp]
	and	eax, 1
	je	SHORT $LN1@scalar
	mov	ecx, DWORD PTR _this$[ebp]
	push	ecx
	call	??3@YAXPAX@Z				; operator delete
	add	esp, 4
$LN1@scalar:
	mov	eax, DWORD PTR _this$[ebp]
	mov	esp, ebp
	pop	ebp
	ret	4
??_G_Generic_error_category@std@@UAEPAXI@Z ENDP		; std::_Generic_error_category::`scalar deleting destructor'
_TEXT	ENDS
; Function compile flags: /Odtp
;	COMDAT ??1_Generic_error_category@std@@UAE@XZ
_TEXT	SEGMENT
_this$ = -4						; size = 4
??1_Generic_error_category@std@@UAE@XZ PROC		; std::_Generic_error_category::~_Generic_error_category, COMDAT
; _this$ = ecx
	push	ebp
	mov	ebp, esp
	push	ecx
	mov	DWORD PTR _this$[ebp], ecx
	mov	ecx, DWORD PTR _this$[ebp]
	call	??1error_category@std@@UAE@XZ		; std::error_category::~error_category
	mov	esp, ebp
	pop	ebp
	ret	0
??1_Generic_error_category@std@@UAE@XZ ENDP		; std::_Generic_error_category::~_Generic_error_category
_TEXT	ENDS
; Function compile flags: /Odtp
; File c:\program files (x86)\microsoft visual studio 11.0\vc\include\system_error
;	COMDAT ?message@_Generic_error_category@std@@UBE?AV?$basic_string@DU?$char_traits@D@std@@V?$allocator@D@2@@2@H@Z
_TEXT	SEGMENT
_this$ = -16						; size = 4
$T1 = -12						; size = 4
tv69 = -8						; size = 4
__Name$ = -4						; size = 4
___$ReturnUdt$ = 8					; size = 4
__Errcode$ = 12						; size = 4
?message@_Generic_error_category@std@@UBE?AV?$basic_string@DU?$char_traits@D@std@@V?$allocator@D@2@@2@H@Z PROC ; std::_Generic_error_category::message, COMDAT
; _this$ = ecx

; 590  : 		{	// convert to name of error

	push	ebp
	mov	ebp, esp
	sub	esp, 16					; 00000010H
	mov	DWORD PTR _this$[ebp], ecx
	mov	DWORD PTR $T1[ebp], 0

; 591  : 		const char *_Name = _Syserror_map(_Errcode);

	mov	eax, DWORD PTR __Errcode$[ebp]
	push	eax
	call	?_Syserror_map@std@@YAPBDH@Z		; std::_Syserror_map
	add	esp, 4
	mov	DWORD PTR __Name$[ebp], eax

; 592  : 		return (string(_Name != 0 ? _Name : "unknown error"));

	cmp	DWORD PTR __Name$[ebp], 0
	je	SHORT $LN3@message
	mov	ecx, DWORD PTR __Name$[ebp]
	mov	DWORD PTR tv69[ebp], ecx
	jmp	SHORT $LN4@message
$LN3@message:
	mov	DWORD PTR tv69[ebp], OFFSET ??_C@_0O@BFJCFAAK@unknown?5error?$AA@
$LN4@message:
	mov	edx, DWORD PTR tv69[ebp]
	push	edx
	mov	ecx, DWORD PTR ___$ReturnUdt$[ebp]
	call	??0?$basic_string@DU?$char_traits@D@std@@V?$allocator@D@2@@std@@QAE@PBD@Z ; std::basic_string<char,std::char_traits<char>,std::allocator<char> >::basic_string<char,std::char_traits<char>,std::allocator<char> >
	mov	eax, DWORD PTR $T1[ebp]
	or	eax, 1
	mov	DWORD PTR $T1[ebp], eax
	mov	eax, DWORD PTR ___$ReturnUdt$[ebp]

; 593  : 		}

	mov	esp, ebp
	pop	ebp
	ret	8
?message@_Generic_error_category@std@@UBE?AV?$basic_string@DU?$char_traits@D@std@@V?$allocator@D@2@@2@H@Z ENDP ; std::_Generic_error_category::message
_TEXT	ENDS
; Function compile flags: /Odtp
; File c:\program files (x86)\microsoft visual studio 11.0\vc\include\system_error
;	COMDAT ?name@_Generic_error_category@std@@UBEPBDXZ
_TEXT	SEGMENT
_this$ = -4						; size = 4
?name@_Generic_error_category@std@@UBEPBDXZ PROC	; std::_Generic_error_category::name, COMDAT
; _this$ = ecx

; 585  : 		{	// get name of category

	push	ebp
	mov	ebp, esp
	push	ecx
	mov	DWORD PTR _this$[ebp], ecx

; 586  : 		return ("generic");

	mov	eax, OFFSET ??_C@_07DCLBNMLN@generic?$AA@

; 587  : 		}

	mov	esp, ebp
	pop	ebp
	ret	0
?name@_Generic_error_category@std@@UBEPBDXZ ENDP	; std::_Generic_error_category::name
_TEXT	ENDS
; Function compile flags: /Odtp
; File c:\program files (x86)\microsoft visual studio 11.0\vc\include\system_error
;	COMDAT ??0_Generic_error_category@std@@QAE@XZ
_TEXT	SEGMENT
_this$ = -4						; size = 4
??0_Generic_error_category@std@@QAE@XZ PROC		; std::_Generic_error_category::_Generic_error_category, COMDAT
; _this$ = ecx

; 580  : 	_Generic_error_category()

	push	ebp
	mov	ebp, esp
	push	ecx
	mov	DWORD PTR _this$[ebp], ecx
	mov	ecx, DWORD PTR _this$[ebp]
	call	??0error_category@std@@QAE@XZ		; std::error_category::error_category
	mov	eax, DWORD PTR _this$[ebp]
	mov	DWORD PTR [eax], OFFSET ??_7_Generic_error_category@std@@6B@

; 581  : 		{	// default constructor
; 582  : 		}

	mov	eax, DWORD PTR _this$[ebp]
	mov	esp, ebp
	pop	ebp
	ret	0
??0_Generic_error_category@std@@QAE@XZ ENDP		; std::_Generic_error_category::_Generic_error_category
_TEXT	ENDS
; Function compile flags: /Odtp
; File c:\program files (x86)\microsoft visual studio 11.0\vc\include\system_error
;	COMDAT ??8error_condition@std@@QBE_NABV01@@Z
_TEXT	SEGMENT
tv78 = -8						; size = 4
_this$ = -4						; size = 4
__Right$ = 8						; size = 4
??8error_condition@std@@QBE_NABV01@@Z PROC		; std::error_condition::operator==, COMDAT
; _this$ = ecx

; 376  : 		{	// test if *this == _Right

	push	ebp
	mov	ebp, esp
	sub	esp, 8
	push	esi
	mov	DWORD PTR _this$[ebp], ecx

; 377  : 		return (category() == _Right.category()
; 378  : 			&& value() == _Right.value());

	mov	ecx, DWORD PTR __Right$[ebp]
	call	?category@error_condition@std@@QBEABVerror_category@2@XZ ; std::error_condition::category
	push	eax
	mov	ecx, DWORD PTR _this$[ebp]
	call	?category@error_condition@std@@QBEABVerror_category@2@XZ ; std::error_condition::category
	mov	ecx, eax
	call	??8error_category@std@@QBE_NABV01@@Z	; std::error_category::operator==
	movzx	eax, al
	test	eax, eax
	je	SHORT $LN3@operator
	mov	ecx, DWORD PTR _this$[ebp]
	call	?value@error_condition@std@@QBEHXZ	; std::error_condition::value
	mov	esi, eax
	mov	ecx, DWORD PTR __Right$[ebp]
	call	?value@error_condition@std@@QBEHXZ	; std::error_condition::value
	cmp	esi, eax
	jne	SHORT $LN3@operator
	mov	DWORD PTR tv78[ebp], 1
	jmp	SHORT $LN4@operator
$LN3@operator:
	mov	DWORD PTR tv78[ebp], 0
$LN4@operator:
	mov	al, BYTE PTR tv78[ebp]

; 379  : 		}

	pop	esi
	mov	esp, ebp
	pop	ebp
	ret	4
??8error_condition@std@@QBE_NABV01@@Z ENDP		; std::error_condition::operator==
_TEXT	ENDS
; Function compile flags: /Odtp
; File c:\program files (x86)\microsoft visual studio 11.0\vc\include\system_error
;	COMDAT ?category@error_condition@std@@QBEABVerror_category@2@XZ
_TEXT	SEGMENT
_this$ = -4						; size = 4
?category@error_condition@std@@QBEABVerror_category@2@XZ PROC ; std::error_condition::category, COMDAT
; _this$ = ecx

; 354  : 		{	// get category

	push	ebp
	mov	ebp, esp
	push	ecx
	mov	DWORD PTR _this$[ebp], ecx

; 355  : 		return (*_Mycat);

	mov	eax, DWORD PTR _this$[ebp]
	mov	eax, DWORD PTR [eax+4]

; 356  : 		}

	mov	esp, ebp
	pop	ebp
	ret	0
?category@error_condition@std@@QBEABVerror_category@2@XZ ENDP ; std::error_condition::category
_TEXT	ENDS
; Function compile flags: /Odtp
; File c:\program files (x86)\microsoft visual studio 11.0\vc\include\system_error
;	COMDAT ?value@error_condition@std@@QBEHXZ
_TEXT	SEGMENT
_this$ = -4						; size = 4
?value@error_condition@std@@QBEHXZ PROC			; std::error_condition::value, COMDAT
; _this$ = ecx

; 349  : 		{	// get error code

	push	ebp
	mov	ebp, esp
	push	ecx
	mov	DWORD PTR _this$[ebp], ecx

; 350  : 		return (_Myval);

	mov	eax, DWORD PTR _this$[ebp]
	mov	eax, DWORD PTR [eax]

; 351  : 		}

	mov	esp, ebp
	pop	ebp
	ret	0
?value@error_condition@std@@QBEHXZ ENDP			; std::error_condition::value
_TEXT	ENDS
; Function compile flags: /Odtp
; File c:\program files (x86)\microsoft visual studio 11.0\vc\include\system_error
;	COMDAT ??0error_condition@std@@QAE@HABVerror_category@1@@Z
_TEXT	SEGMENT
_this$ = -4						; size = 4
__Val$ = 8						; size = 4
__Cat$ = 12						; size = 4
??0error_condition@std@@QAE@HABVerror_category@1@@Z PROC ; std::error_condition::error_condition, COMDAT
; _this$ = ecx

; 316  : 		{	// construct from error code and category

	push	ebp
	mov	ebp, esp
	push	ecx
	mov	DWORD PTR _this$[ebp], ecx
	mov	eax, DWORD PTR _this$[ebp]
	mov	ecx, DWORD PTR __Val$[ebp]
	mov	DWORD PTR [eax], ecx
	mov	edx, DWORD PTR _this$[ebp]
	mov	eax, DWORD PTR __Cat$[ebp]
	mov	DWORD PTR [edx+4], eax

; 317  : 		}

	mov	eax, DWORD PTR _this$[ebp]
	mov	esp, ebp
	pop	ebp
	ret	8
??0error_condition@std@@QAE@HABVerror_category@1@@Z ENDP ; std::error_condition::error_condition
_TEXT	ENDS
; Function compile flags: /Odtp
; File c:\program files (x86)\microsoft visual studio 11.0\vc\include\system_error
;	COMDAT ?category@error_code@std@@QBEABVerror_category@2@XZ
_TEXT	SEGMENT
_this$ = -4						; size = 4
?category@error_code@std@@QBEABVerror_category@2@XZ PROC ; std::error_code::category, COMDAT
; _this$ = ecx

; 256  : 		{	// get category

	push	ebp
	mov	ebp, esp
	push	ecx
	mov	DWORD PTR _this$[ebp], ecx

; 257  : 		return (*_Mycat);

	mov	eax, DWORD PTR _this$[ebp]
	mov	eax, DWORD PTR [eax+4]

; 258  : 		}

	mov	esp, ebp
	pop	ebp
	ret	0
?category@error_code@std@@QBEABVerror_category@2@XZ ENDP ; std::error_code::category
_TEXT	ENDS
; Function compile flags: /Odtp
; File c:\program files (x86)\microsoft visual studio 11.0\vc\include\system_error
;	COMDAT ?value@error_code@std@@QBEHXZ
_TEXT	SEGMENT
_this$ = -4						; size = 4
?value@error_code@std@@QBEHXZ PROC			; std::error_code::value, COMDAT
; _this$ = ecx

; 251  : 		{	// get error code

	push	ebp
	mov	ebp, esp
	push	ecx
	mov	DWORD PTR _this$[ebp], ecx

; 252  : 		return (_Myval);

	mov	eax, DWORD PTR _this$[ebp]
	mov	eax, DWORD PTR [eax]

; 253  : 		}

	mov	esp, ebp
	pop	ebp
	ret	0
?value@error_code@std@@QBEHXZ ENDP			; std::error_code::value
_TEXT	ENDS
; Function compile flags: /Odtp
;	COMDAT ??_Gerror_category@std@@UAEPAXI@Z
_TEXT	SEGMENT
_this$ = -4						; size = 4
___flags$ = 8						; size = 4
??_Gerror_category@std@@UAEPAXI@Z PROC			; std::error_category::`scalar deleting destructor', COMDAT
; _this$ = ecx
	push	ebp
	mov	ebp, esp
	push	ecx
	mov	DWORD PTR _this$[ebp], ecx
	mov	ecx, DWORD PTR _this$[ebp]
	call	??1error_category@std@@UAE@XZ		; std::error_category::~error_category
	mov	eax, DWORD PTR ___flags$[ebp]
	and	eax, 1
	je	SHORT $LN1@scalar
	mov	ecx, DWORD PTR _this$[ebp]
	push	ecx
	call	??3@YAXPAX@Z				; operator delete
	add	esp, 4
$LN1@scalar:
	mov	eax, DWORD PTR _this$[ebp]
	mov	esp, ebp
	pop	ebp
	ret	4
??_Gerror_category@std@@UAEPAXI@Z ENDP			; std::error_category::`scalar deleting destructor'
_TEXT	ENDS
; Function compile flags: /Odtp
; File c:\program files (x86)\microsoft visual studio 11.0\vc\include\system_error
;	COMDAT ??8error_category@std@@QBE_NABV01@@Z
_TEXT	SEGMENT
_this$ = -8						; size = 4
tv65 = -4						; size = 4
__Right$ = 8						; size = 4
??8error_category@std@@QBE_NABV01@@Z PROC		; std::error_category::operator==, COMDAT
; _this$ = ecx

; 184  : 		{	// compare categories for equality

	push	ebp
	mov	ebp, esp
	sub	esp, 8
	mov	DWORD PTR _this$[ebp], ecx

; 185  : 		return (this == &_Right);

	mov	eax, DWORD PTR _this$[ebp]
	cmp	eax, DWORD PTR __Right$[ebp]
	jne	SHORT $LN3@operator
	mov	DWORD PTR tv65[ebp], 1
	jmp	SHORT $LN4@operator
$LN3@operator:
	mov	DWORD PTR tv65[ebp], 0
$LN4@operator:
	mov	al, BYTE PTR tv65[ebp]

; 186  : 		}

	mov	esp, ebp
	pop	ebp
	ret	4
??8error_category@std@@QBE_NABV01@@Z ENDP		; std::error_category::operator==
_TEXT	ENDS
; Function compile flags: /Odtp
; File c:\program files (x86)\microsoft visual studio 11.0\vc\include\system_error
;	COMDAT ?equivalent@error_category@std@@UBE_NABVerror_code@2@H@Z
_TEXT	SEGMENT
_this$ = -8						; size = 4
tv74 = -4						; size = 4
__Code$ = 8						; size = 4
__Errval$ = 12						; size = 4
?equivalent@error_category@std@@UBE_NABVerror_code@2@H@Z PROC ; std::error_category::equivalent, COMDAT
; _this$ = ecx

; 415  : 	{	// test if conditions same for this category

	push	ebp
	mov	ebp, esp
	sub	esp, 8
	mov	DWORD PTR _this$[ebp], ecx

; 416  : 	return (*this == _Code.category() && _Code.value() == _Errval);

	mov	ecx, DWORD PTR __Code$[ebp]
	call	?category@error_code@std@@QBEABVerror_category@2@XZ ; std::error_code::category
	push	eax
	mov	ecx, DWORD PTR _this$[ebp]
	call	??8error_category@std@@QBE_NABV01@@Z	; std::error_category::operator==
	movzx	eax, al
	test	eax, eax
	je	SHORT $LN3@equivalent
	mov	ecx, DWORD PTR __Code$[ebp]
	call	?value@error_code@std@@QBEHXZ		; std::error_code::value
	cmp	eax, DWORD PTR __Errval$[ebp]
	jne	SHORT $LN3@equivalent
	mov	DWORD PTR tv74[ebp], 1
	jmp	SHORT $LN4@equivalent
$LN3@equivalent:
	mov	DWORD PTR tv74[ebp], 0
$LN4@equivalent:
	mov	al, BYTE PTR tv74[ebp]

; 417  : 	}

	mov	esp, ebp
	pop	ebp
	ret	8
?equivalent@error_category@std@@UBE_NABVerror_code@2@H@Z ENDP ; std::error_category::equivalent
_TEXT	ENDS
; Function compile flags: /Odtp
; File c:\program files (x86)\microsoft visual studio 11.0\vc\include\system_error
;	COMDAT ?equivalent@error_category@std@@UBE_NHABVerror_condition@2@@Z
_TEXT	SEGMENT
$T1 = -12						; size = 8
_this$ = -4						; size = 4
__Errval$ = 8						; size = 4
__Cond$ = 12						; size = 4
?equivalent@error_category@std@@UBE_NHABVerror_condition@2@@Z PROC ; std::error_category::equivalent, COMDAT
; _this$ = ecx

; 408  : 	{	// test if error code same condition

	push	ebp
	mov	ebp, esp
	sub	esp, 12					; 0000000cH
	mov	DWORD PTR _this$[ebp], ecx

; 409  : 	return (default_error_condition(_Errval) == _Cond);

	mov	eax, DWORD PTR __Cond$[ebp]
	push	eax
	mov	ecx, DWORD PTR __Errval$[ebp]
	push	ecx
	lea	edx, DWORD PTR $T1[ebp]
	push	edx
	mov	eax, DWORD PTR _this$[ebp]
	mov	edx, DWORD PTR [eax]
	mov	ecx, DWORD PTR _this$[ebp]
	mov	eax, DWORD PTR [edx+12]
	call	eax
	mov	ecx, eax
	call	??8error_condition@std@@QBE_NABV01@@Z	; std::error_condition::operator==

; 410  : 	}

	mov	esp, ebp
	pop	ebp
	ret	8
?equivalent@error_category@std@@UBE_NHABVerror_condition@2@@Z ENDP ; std::error_category::equivalent
_TEXT	ENDS
; Function compile flags: /Odtp
; File c:\program files (x86)\microsoft visual studio 11.0\vc\include\system_error
;	COMDAT ?default_error_condition@error_category@std@@UBE?AVerror_condition@2@H@Z
_TEXT	SEGMENT
_this$ = -4						; size = 4
___$ReturnUdt$ = 8					; size = 4
__Errval$ = 12						; size = 4
?default_error_condition@error_category@std@@UBE?AVerror_condition@2@H@Z PROC ; std::error_category::default_error_condition, COMDAT
; _this$ = ecx

; 401  : 	{	// make error_condition for error code

	push	ebp
	mov	ebp, esp
	push	ecx
	mov	DWORD PTR _this$[ebp], ecx

; 402  : 	return (error_condition(_Errval, *this));

	mov	eax, DWORD PTR _this$[ebp]
	push	eax
	mov	ecx, DWORD PTR __Errval$[ebp]
	push	ecx
	mov	ecx, DWORD PTR ___$ReturnUdt$[ebp]
	call	??0error_condition@std@@QAE@HABVerror_category@1@@Z ; std::error_condition::error_condition
	mov	eax, DWORD PTR ___$ReturnUdt$[ebp]

; 403  : 	}

	mov	esp, ebp
	pop	ebp
	ret	8
?default_error_condition@error_category@std@@UBE?AVerror_condition@2@H@Z ENDP ; std::error_category::default_error_condition
_TEXT	ENDS
; Function compile flags: /Odtp
; File c:\program files (x86)\microsoft visual studio 11.0\vc\include\system_error
;	COMDAT ??1error_category@std@@UAE@XZ
_TEXT	SEGMENT
_this$ = -4						; size = 4
??1error_category@std@@UAE@XZ PROC			; std::error_category::~error_category, COMDAT
; _this$ = ecx

; 167  : 		{	// destroy the object

	push	ebp
	mov	ebp, esp
	push	ecx
	mov	DWORD PTR _this$[ebp], ecx
	mov	eax, DWORD PTR _this$[ebp]
	mov	DWORD PTR [eax], OFFSET ??_7error_category@std@@6B@

; 168  : 		}

	mov	esp, ebp
	pop	ebp
	ret	0
??1error_category@std@@UAE@XZ ENDP			; std::error_category::~error_category
_TEXT	ENDS
; Function compile flags: /Odtp
; File c:\program files (x86)\microsoft visual studio 11.0\vc\include\system_error
;	COMDAT ??0error_category@std@@QAE@XZ
_TEXT	SEGMENT
_this$ = -4						; size = 4
??0error_category@std@@QAE@XZ PROC			; std::error_category::error_category, COMDAT
; _this$ = ecx

; 162  : 	error_category()

	push	ebp
	mov	ebp, esp
	push	ecx
	mov	DWORD PTR _this$[ebp], ecx
	mov	eax, DWORD PTR _this$[ebp]
	mov	DWORD PTR [eax], OFFSET ??_7error_category@std@@6B@

; 163  : 		{	// default constructor
; 164  : 		}

	mov	eax, DWORD PTR _this$[ebp]
	mov	esp, ebp
	pop	ebp
	ret	0
??0error_category@std@@QAE@XZ ENDP			; std::error_category::error_category
_TEXT	ENDS
; Function compile flags: /Odtp
; File c:\program files (x86)\microsoft visual studio 11.0\vc\include\system_error
;	COMDAT ?system_category@std@@YAABVerror_category@1@XZ
_TEXT	SEGMENT
?system_category@std@@YAABVerror_category@1@XZ PROC	; std::system_category, COMDAT

; 679  : 	{	// get system_category

	push	ebp
	mov	ebp, esp

; 680  : 	return (_Error_objects<int>::_System_object);

	mov	eax, OFFSET ?_System_object@?$_Error_objects@H@std@@2V_System_error_category@2@A ; std::_Error_objects<int>::_System_object

; 681  : 	}

	pop	ebp
	ret	0
?system_category@std@@YAABVerror_category@1@XZ ENDP	; std::system_category
_TEXT	ENDS
; Function compile flags: /Odtp
; File c:\program files (x86)\microsoft visual studio 11.0\vc\include\system_error
;	COMDAT ?generic_category@std@@YAABVerror_category@1@XZ
_TEXT	SEGMENT
?generic_category@std@@YAABVerror_category@1@XZ PROC	; std::generic_category, COMDAT

; 669  : 	{	// get generic_category

	push	ebp
	mov	ebp, esp

; 670  : 	return (_Error_objects<int>::_Generic_object);

	mov	eax, OFFSET ?_Generic_object@?$_Error_objects@H@std@@2V_Generic_error_category@2@A ; std::_Error_objects<int>::_Generic_object

; 671  : 	}

	pop	ebp
	ret	0
?generic_category@std@@YAABVerror_category@1@XZ ENDP	; std::generic_category
_TEXT	ENDS
; Function compile flags: /Odtp
; File c:\program files (x86)\microsoft visual studio 11.0\vc\include\xlocale
;	COMDAT ??0id@locale@std@@QAE@I@Z
_TEXT	SEGMENT
_this$ = -4						; size = 4
__Val$ = 8						; size = 4
??0id@locale@std@@QAE@I@Z PROC				; std::locale::id::id, COMDAT
; _this$ = ecx

; 74   : 			{	// construct with specified stamp value

	push	ebp
	mov	ebp, esp
	push	ecx
	mov	DWORD PTR _this$[ebp], ecx
	mov	eax, DWORD PTR _this$[ebp]
	mov	ecx, DWORD PTR __Val$[ebp]
	mov	DWORD PTR [eax], ecx

; 75   : 			}

	mov	eax, DWORD PTR _this$[ebp]
	mov	esp, ebp
	pop	ebp
	ret	4
??0id@locale@std@@QAE@I@Z ENDP				; std::locale::id::id
_TEXT	ENDS
; Function compile flags: /Odtp
; File c:\users\zhitao li\documents\visual studio 2012\projects\freefalcon\graphics\include\tod.h
;	COMDAT ?GetLightLevel@CTimeOfDay@@QAEMXZ
_TEXT	SEGMENT
tv71 = -8						; size = 4
_this$ = -4						; size = 4
?GetLightLevel@CTimeOfDay@@QAEMXZ PROC			; CTimeOfDay::GetLightLevel, COMDAT
; _this$ = ecx

; 108  : 	float GetLightLevel()						{ return Ambient + Diffuse; };

	push	ebp
	mov	ebp, esp
	sub	esp, 8
	mov	DWORD PTR _this$[ebp], ecx
	mov	eax, DWORD PTR _this$[ebp]
	mov	ecx, DWORD PTR _this$[ebp]
	movss	xmm0, DWORD PTR [eax+220]
	addss	xmm0, DWORD PTR [ecx+224]
	movss	DWORD PTR tv71[ebp], xmm0
	fld	DWORD PTR tv71[ebp]
	mov	esp, ebp
	pop	ebp
	ret	0
?GetLightLevel@CTimeOfDay@@QAEMXZ ENDP			; CTimeOfDay::GetLightLevel
_TEXT	ENDS
; Function compile flags: /Odtp
; File c:\users\zhitao li\documents\visual studio 2012\projects\freefalcon\graphics\include\tod.h
;	COMDAT ?GetNVGmode@CTimeOfDay@@QAEHXZ
_TEXT	SEGMENT
_this$ = -4						; size = 4
?GetNVGmode@CTimeOfDay@@QAEHXZ PROC			; CTimeOfDay::GetNVGmode, COMDAT
; _this$ = ecx

; 69   : 	BOOL GetNVGmode()							{ return NVGmode; };

	push	ebp
	mov	ebp, esp
	push	ecx
	mov	DWORD PTR _this$[ebp], ecx
	mov	eax, DWORD PTR _this$[ebp]
	mov	eax, DWORD PTR [eax+348]
	mov	esp, ebp
	pop	ebp
	ret	0
?GetNVGmode@CTimeOfDay@@QAEHXZ ENDP			; CTimeOfDay::GetNVGmode
_TEXT	ENDS
; Function compile flags: /Odtp
; File c:\users\zhitao li\documents\visual studio 2012\projects\freefalcon\falclib\include\mltrig.h
;	COMDAT ?checked_atan2@@YANNN@Z
_TEXT	SEGMENT
_z$ = -8						; size = 8
_y$ = 8							; size = 8
_x$ = 16						; size = 8
?checked_atan2@@YANNN@Z PROC				; checked_atan2, COMDAT

; 46   : {

	push	ebp
	mov	ebp, esp
	sub	esp, 8

; 47   : 	double z;
; 48   : 	
; 49   : 	if (x == -0.0)

	movsd	xmm0, QWORD PTR _x$[ebp]
	ucomisd	xmm0, QWORD PTR __real@8000000000000000
	lahf
	test	ah, 68					; 00000044H
	jp	SHORT $LN8@checked_at

; 50   : 		x = 0.0;

	movsd	xmm0, QWORD PTR __real@0000000000000000
	movsd	QWORD PTR _x$[ebp], xmm0
$LN8@checked_at:

; 51   : 	
; 52   : 	if (x != 0)

	movsd	xmm0, QWORD PTR _x$[ebp]
	ucomisd	xmm0, QWORD PTR __real@0000000000000000
	lahf
	test	ah, 68					; 00000044H
	jnp	SHORT $LN7@checked_at

; 53   : 		z = atan(y / x);

	movsd	xmm0, QWORD PTR _y$[ebp]
	divsd	xmm0, QWORD PTR _x$[ebp]
	sub	esp, 8
	movsd	QWORD PTR [esp], xmm0
	call	_atan
	add	esp, 8
	fstp	QWORD PTR _z$[ebp]
	jmp	SHORT $LN4@checked_at
$LN7@checked_at:

; 54   : 	else if (y > 0)

	movsd	xmm0, QWORD PTR _y$[ebp]
	comisd	xmm0, QWORD PTR __real@0000000000000000
	jbe	SHORT $LN5@checked_at

; 55   : 		z = HALF_DPI;

	movsd	xmm0, QWORD PTR __real@3ff921fb54442d18
	movsd	QWORD PTR _z$[ebp], xmm0

; 56   : 	else

	jmp	SHORT $LN4@checked_at
$LN5@checked_at:

; 57   : 		z = -HALF_DPI;

	movsd	xmm0, QWORD PTR __real@bff921fb54442d18
	movsd	QWORD PTR _z$[ebp], xmm0
$LN4@checked_at:

; 58   : 
; 59   : 	if (x < 0)

	movsd	xmm0, QWORD PTR __real@0000000000000000
	comisd	xmm0, QWORD PTR _x$[ebp]
	jbe	SHORT $LN1@checked_at

; 60   : 	{
; 61   : 		if (y < 0)

	movsd	xmm0, QWORD PTR __real@0000000000000000
	comisd	xmm0, QWORD PTR _y$[ebp]
	jbe	SHORT $LN2@checked_at

; 62   : 			z -= DPI;

	movsd	xmm0, QWORD PTR _z$[ebp]
	subsd	xmm0, QWORD PTR __real@400921fb54442d18
	movsd	QWORD PTR _z$[ebp], xmm0

; 63   : 		else

	jmp	SHORT $LN1@checked_at
$LN2@checked_at:

; 64   : 			z += DPI;

	movsd	xmm0, QWORD PTR _z$[ebp]
	addsd	xmm0, QWORD PTR __real@400921fb54442d18
	movsd	QWORD PTR _z$[ebp], xmm0
$LN1@checked_at:

; 65   : 	}
; 66   : 
; 67   : 	return z;

	fld	QWORD PTR _z$[ebp]

; 68   : }

	mov	esp, ebp
	pop	ebp
	ret	0
?checked_atan2@@YANNN@Z ENDP				; checked_atan2
_TEXT	ENDS
; Function compile flags: /Odtp
; File c:\users\zhitao li\documents\visual studio 2012\projects\freefalcon\falclib\include\falcent.h
;	COMDAT ?GetAltitude@FalconEntity@@QBEHXZ
_TEXT	SEGMENT
tv76 = -8						; size = 4
_this$ = -4						; size = 4
?GetAltitude@FalconEntity@@QBEHXZ PROC			; FalconEntity::GetAltitude, COMDAT
; _this$ = ecx

; 169  : 	int GetAltitude() const						{ return FloatToInt32(ZPos() * -1.0F); }

	push	ebp
	mov	ebp, esp
	sub	esp, 8
	mov	DWORD PTR _this$[ebp], ecx
	mov	ecx, DWORD PTR _this$[ebp]
	call	?ZPos@VuEntity@@QBEMXZ			; VuEntity::ZPos
	fstp	DWORD PTR tv76[ebp]
	movss	xmm0, DWORD PTR tv76[ebp]
	mulss	xmm0, DWORD PTR __real@bf800000
	push	ecx
	movss	DWORD PTR [esp], xmm0
	call	?FloatToInt32@@YAHM@Z			; FloatToInt32
	add	esp, 4
	mov	esp, ebp
	pop	ebp
	ret	0
?GetAltitude@FalconEntity@@QBEHXZ ENDP			; FalconEntity::GetAltitude
_TEXT	ENDS
; Function compile flags: /Odtp
; File c:\program files (x86)\microsoft visual studio 11.0\vc\include\vector
;	COMDAT ?size@?$vector@V?$VuBin@VVuEntity@@@@V?$allocator@V?$VuBin@VVuEntity@@@@@std@@@std@@QBEIXZ
_TEXT	SEGMENT
_this$ = -4						; size = 4
?size@?$vector@V?$VuBin@VVuEntity@@@@V?$allocator@V?$VuBin@VVuEntity@@@@@std@@@std@@QBEIXZ PROC ; std::vector<VuBin<VuEntity>,std::allocator<VuBin<VuEntity> > >::size, COMDAT
; _this$ = ecx

; 1086 : 		{	// return length of sequence

	push	ebp
	mov	ebp, esp
	push	ecx
	mov	DWORD PTR _this$[ebp], ecx

; 1087 : 		return (this->_Mylast - this->_Myfirst);

	mov	eax, DWORD PTR _this$[ebp]
	mov	ecx, DWORD PTR _this$[ebp]
	mov	eax, DWORD PTR [eax+4]
	sub	eax, DWORD PTR [ecx]
	sar	eax, 2

; 1088 : 		}

	mov	esp, ebp
	pop	ebp
	ret	0
?size@?$vector@V?$VuBin@VVuEntity@@@@V?$allocator@V?$VuBin@VVuEntity@@@@@std@@@std@@QBEIXZ ENDP ; std::vector<VuBin<VuEntity>,std::allocator<VuBin<VuEntity> > >::size
_TEXT	ENDS
; Function compile flags: /Odtp
; File c:\users\zhitao li\documents\visual studio 2012\projects\freefalcon\vu2\include\vusessn.h
;	COMDAT ?CameraCount@VuSessionEntity@@QBEHXZ
_TEXT	SEGMENT
_this$ = -4						; size = 4
?CameraCount@VuSessionEntity@@QBEHXZ PROC		; VuSessionEntity::CameraCount, COMDAT
; _this$ = ecx

; 228  : 	int CameraCount() const { return cameras_.size(); }

	push	ebp
	mov	ebp, esp
	push	ecx
	mov	DWORD PTR _this$[ebp], ecx
	mov	ecx, DWORD PTR _this$[ebp]
	add	ecx, 380				; 0000017cH
	call	?size@?$vector@V?$VuBin@VVuEntity@@@@V?$allocator@V?$VuBin@VVuEntity@@@@@std@@@std@@QBEIXZ ; std::vector<VuBin<VuEntity>,std::allocator<VuBin<VuEntity> > >::size
	mov	esp, ebp
	pop	ebp
	ret	0
?CameraCount@VuSessionEntity@@QBEHXZ ENDP		; VuSessionEntity::CameraCount
_TEXT	ENDS
; Function compile flags: /Odtp
; File c:\users\zhitao li\documents\visual studio 2012\projects\freefalcon\vu2\include\vu_templates.h
;	COMDAT ?get@?$VuBin@VVuSessionEntity@@@@QBEPAVVuSessionEntity@@XZ
_TEXT	SEGMENT
_this$ = -4						; size = 4
?get@?$VuBin@VVuSessionEntity@@@@QBEPAVVuSessionEntity@@XZ PROC ; VuBin<VuSessionEntity>::get, COMDAT
; _this$ = ecx

; 55   : 	E *get() const{

	push	ebp
	mov	ebp, esp
	push	ecx
	mov	DWORD PTR _this$[ebp], ecx

; 56   : 		return e;

	mov	eax, DWORD PTR _this$[ebp]
	mov	eax, DWORD PTR [eax]

; 57   : 	}

	mov	esp, ebp
	pop	ebp
	ret	0
?get@?$VuBin@VVuSessionEntity@@@@QBEPAVVuSessionEntity@@XZ ENDP ; VuBin<VuSessionEntity>::get
_TEXT	ENDS
; Function compile flags: /Odtp
; File c:\program files (x86)\microsoft visual studio 11.0\vc\include\xstring
;	COMDAT ?_Xran@?$basic_string@DU?$char_traits@D@std@@V?$allocator@D@2@@std@@QBEXXZ
_TEXT	SEGMENT
_this$ = -4						; size = 4
?_Xran@?$basic_string@DU?$char_traits@D@std@@V?$allocator@D@2@@std@@QBEXXZ PROC ; std::basic_string<char,std::char_traits<char>,std::allocator<char> >::_Xran, COMDAT
; _this$ = ecx

; 2275 : 		{	// report an out_of_range error

	push	ebp
	mov	ebp, esp
	push	ecx
	mov	DWORD PTR _this$[ebp], ecx

; 2276 : 		_Xout_of_range("invalid string position");

	push	OFFSET ??_C@_0BI@CFPLBAOH@invalid?5string?5position?$AA@
	call	?_Xout_of_range@std@@YAXPBD@Z		; std::_Xout_of_range
$LN2@Xran:

; 2277 : 		}

	mov	esp, ebp
	pop	ebp
	ret	0
?_Xran@?$basic_string@DU?$char_traits@D@std@@V?$allocator@D@2@@std@@QBEXXZ ENDP ; std::basic_string<char,std::char_traits<char>,std::allocator<char> >::_Xran
_TEXT	ENDS
; Function compile flags: /Odtp
; File c:\program files (x86)\microsoft visual studio 11.0\vc\include\xstring
;	COMDAT ?_Xlen@?$basic_string@DU?$char_traits@D@std@@V?$allocator@D@2@@std@@QBEXXZ
_TEXT	SEGMENT
_this$ = -4						; size = 4
?_Xlen@?$basic_string@DU?$char_traits@D@std@@V?$allocator@D@2@@std@@QBEXXZ PROC ; std::basic_string<char,std::char_traits<char>,std::allocator<char> >::_Xlen, COMDAT
; _this$ = ecx

; 2270 : 		{	// report a length_error

	push	ebp
	mov	ebp, esp
	push	ecx
	mov	DWORD PTR _this$[ebp], ecx

; 2271 : 		_Xlength_error("string too long");

	push	OFFSET ??_C@_0BA@JFNIOLAK@string?5too?5long?$AA@
	call	?_Xlength_error@std@@YAXPBD@Z		; std::_Xlength_error
$LN2@Xlen:

; 2272 : 		}

	mov	esp, ebp
	pop	ebp
	ret	0
?_Xlen@?$basic_string@DU?$char_traits@D@std@@V?$allocator@D@2@@std@@QBEXXZ ENDP ; std::basic_string<char,std::char_traits<char>,std::allocator<char> >::_Xlen
_TEXT	ENDS
; Function compile flags: /Odtp
; File c:\program files (x86)\microsoft visual studio 11.0\vc\include\xstring
;	COMDAT ?_Tidy@?$basic_string@DU?$char_traits@D@std@@V?$allocator@D@2@@std@@QAEX_NI@Z
_TEXT	SEGMENT
__Ptr$1 = -12						; size = 4
_this$ = -8						; size = 4
$T2 = -2						; size = 1
$T3 = -1						; size = 1
__Built$ = 8						; size = 1
__Newsize$ = 12						; size = 4
?_Tidy@?$basic_string@DU?$char_traits@D@std@@V?$allocator@D@2@@std@@QAEX_NI@Z PROC ; std::basic_string<char,std::char_traits<char>,std::allocator<char> >::_Tidy, COMDAT
; _this$ = ecx

; 2253 : 		{	// initialize buffer, deallocating any storage

	push	ebp
	mov	ebp, esp
	sub	esp, 12					; 0000000cH
	mov	DWORD PTR _this$[ebp], ecx

; 2254 : 		if (!_Built)

	movzx	eax, BYTE PTR __Built$[ebp]
	test	eax, eax
	jne	SHORT $LN4@Tidy
	jmp	SHORT $LN3@Tidy
$LN4@Tidy:

; 2255 : 			;
; 2256 : 		else if (this->_BUF_SIZE <= this->_Myres)

	mov	ecx, DWORD PTR _this$[ebp]
	cmp	DWORD PTR [ecx+20], 16			; 00000010H
	jb	SHORT $LN3@Tidy

; 2257 : 			{	// copy any leftovers to small buffer and deallocate
; 2258 : 			pointer _Ptr = this->_Bx._Ptr;

	mov	edx, DWORD PTR _this$[ebp]
	mov	eax, DWORD PTR [edx]
	mov	DWORD PTR __Ptr$1[ebp], eax

; 2259 : 			this->_Getal().destroy(&this->_Bx._Ptr);

	mov	ecx, DWORD PTR _this$[ebp]
	push	ecx
	lea	edx, DWORD PTR $T3[ebp]
	push	edx
	mov	ecx, DWORD PTR _this$[ebp]
	call	?_Getal@?$_String_alloc@$0A@U?$_String_base_types@DV?$allocator@D@std@@@std@@@std@@QBE?AU?$_Wrap_alloc@V?$allocator@D@std@@@2@XZ ; std::_String_alloc<0,std::_String_base_types<char,std::allocator<char> > >::_Getal
	mov	ecx, eax
	call	??$destroy@PAD@?$_Wrap_alloc@V?$allocator@D@std@@@std@@QAEXPAPAD@Z ; std::_Wrap_alloc<std::allocator<char> >::destroy<char *>

; 2260 : 			if (0 < _Newsize)

	cmp	DWORD PTR __Newsize$[ebp], 0
	jbe	SHORT $LN1@Tidy

; 2261 : 				_Traits::copy(this->_Bx._Buf,
; 2262 : 					_STD addressof(*_Ptr), _Newsize);

	mov	eax, DWORD PTR __Newsize$[ebp]
	push	eax
	mov	ecx, DWORD PTR __Ptr$1[ebp]
	push	ecx
	call	??$addressof@D@std@@YAPADAAD@Z		; std::addressof<char>
	add	esp, 4
	push	eax
	mov	edx, DWORD PTR _this$[ebp]
	push	edx
	call	?copy@?$char_traits@D@std@@SAPADPADPBDI@Z ; std::char_traits<char>::copy
	add	esp, 12					; 0000000cH
$LN1@Tidy:

; 2263 : 			this->_Getal().deallocate(_Ptr, this->_Myres + 1);

	mov	eax, DWORD PTR _this$[ebp]
	mov	ecx, DWORD PTR [eax+20]
	add	ecx, 1
	push	ecx
	mov	edx, DWORD PTR __Ptr$1[ebp]
	push	edx
	lea	eax, DWORD PTR $T2[ebp]
	push	eax
	mov	ecx, DWORD PTR _this$[ebp]
	call	?_Getal@?$_String_alloc@$0A@U?$_String_base_types@DV?$allocator@D@std@@@std@@@std@@QBE?AU?$_Wrap_alloc@V?$allocator@D@std@@@2@XZ ; std::_String_alloc<0,std::_String_base_types<char,std::allocator<char> > >::_Getal
	mov	ecx, eax
	call	?deallocate@?$_Wrap_alloc@V?$allocator@D@std@@@std@@QAEXPADI@Z ; std::_Wrap_alloc<std::allocator<char> >::deallocate
$LN3@Tidy:

; 2264 : 			}
; 2265 : 		this->_Myres = this->_BUF_SIZE - 1;

	mov	ecx, DWORD PTR _this$[ebp]
	mov	DWORD PTR [ecx+20], 15			; 0000000fH

; 2266 : 		_Eos(_Newsize);

	mov	edx, DWORD PTR __Newsize$[ebp]
	push	edx
	mov	ecx, DWORD PTR _this$[ebp]
	call	?_Eos@?$basic_string@DU?$char_traits@D@std@@V?$allocator@D@2@@std@@QAEXI@Z ; std::basic_string<char,std::char_traits<char>,std::allocator<char> >::_Eos

; 2267 : 		}

	mov	esp, ebp
	pop	ebp
	ret	8
?_Tidy@?$basic_string@DU?$char_traits@D@std@@V?$allocator@D@2@@std@@QAEX_NI@Z ENDP ; std::basic_string<char,std::char_traits<char>,std::allocator<char> >::_Tidy
_TEXT	ENDS
; Function compile flags: /Odtp
; File c:\program files (x86)\microsoft visual studio 11.0\vc\include\xstring
;	COMDAT ?_Inside@?$basic_string@DU?$char_traits@D@std@@V?$allocator@D@2@@std@@QAE_NPBD@Z
_TEXT	SEGMENT
_this$ = -4						; size = 4
__Ptr$ = 8						; size = 4
?_Inside@?$basic_string@DU?$char_traits@D@std@@V?$allocator@D@2@@std@@QAE_NPBD@Z PROC ; std::basic_string<char,std::char_traits<char>,std::allocator<char> >::_Inside, COMDAT
; _this$ = ecx

; 2237 : 		{	// test if _Ptr points inside string

	push	ebp
	mov	ebp, esp
	push	ecx
	mov	DWORD PTR _this$[ebp], ecx

; 2238 : 		if (_Ptr == 0 || _Ptr < this->_Myptr()
; 2239 : 			|| this->_Myptr() + this->_Mysize <= _Ptr)

	cmp	DWORD PTR __Ptr$[ebp], 0
	je	SHORT $LN2@Inside
	mov	ecx, DWORD PTR _this$[ebp]
	call	?_Myptr@?$_String_val@U?$_Simple_types@D@std@@@std@@QAEPADXZ ; std::_String_val<std::_Simple_types<char> >::_Myptr
	cmp	DWORD PTR __Ptr$[ebp], eax
	jb	SHORT $LN2@Inside
	mov	ecx, DWORD PTR _this$[ebp]
	call	?_Myptr@?$_String_val@U?$_Simple_types@D@std@@@std@@QAEPADXZ ; std::_String_val<std::_Simple_types<char> >::_Myptr
	mov	ecx, DWORD PTR _this$[ebp]
	add	eax, DWORD PTR [ecx+16]
	cmp	eax, DWORD PTR __Ptr$[ebp]
	ja	SHORT $LN3@Inside
$LN2@Inside:

; 2240 : 			return (false);	// don't ask

	xor	al, al
	jmp	SHORT $LN4@Inside

; 2241 : 		else

	jmp	SHORT $LN4@Inside
$LN3@Inside:

; 2242 : 			return (true);

	mov	al, 1
$LN4@Inside:

; 2243 : 		}

	mov	esp, ebp
	pop	ebp
	ret	4
?_Inside@?$basic_string@DU?$char_traits@D@std@@V?$allocator@D@2@@std@@QAE_NPBD@Z ENDP ; std::basic_string<char,std::char_traits<char>,std::allocator<char> >::_Inside
_TEXT	ENDS
; Function compile flags: /Odtp
; File c:\program files (x86)\microsoft visual studio 11.0\vc\include\xstring
;	COMDAT ?_Grow@?$basic_string@DU?$char_traits@D@std@@V?$allocator@D@2@@std@@QAE_NI_N@Z
_TEXT	SEGMENT
tv136 = -12						; size = 4
tv129 = -8						; size = 4
_this$ = -4						; size = 4
__Newsize$ = 8						; size = 4
__Trim$ = 12						; size = 1
?_Grow@?$basic_string@DU?$char_traits@D@std@@V?$allocator@D@2@@std@@QAE_NI_N@Z PROC ; std::basic_string<char,std::char_traits<char>,std::allocator<char> >::_Grow, COMDAT
; _this$ = ecx

; 2223 : 		{	// ensure buffer is big enough, trim to size if _Trim is true

	push	ebp
	mov	ebp, esp
	sub	esp, 12					; 0000000cH
	mov	DWORD PTR _this$[ebp], ecx

; 2224 : 		if (max_size() < _Newsize)

	mov	ecx, DWORD PTR _this$[ebp]
	call	?max_size@?$basic_string@DU?$char_traits@D@std@@V?$allocator@D@2@@std@@QBEIXZ ; std::basic_string<char,std::char_traits<char>,std::allocator<char> >::max_size
	cmp	eax, DWORD PTR __Newsize$[ebp]
	jae	SHORT $LN6@Grow

; 2225 : 			_Xlen();	// result too long

	mov	ecx, DWORD PTR _this$[ebp]
	call	?_Xlen@?$basic_string@DU?$char_traits@D@std@@V?$allocator@D@2@@std@@QBEXXZ ; std::basic_string<char,std::char_traits<char>,std::allocator<char> >::_Xlen
$LN6@Grow:

; 2226 : 		if (this->_Myres < _Newsize)

	mov	eax, DWORD PTR _this$[ebp]
	mov	ecx, DWORD PTR [eax+20]
	cmp	ecx, DWORD PTR __Newsize$[ebp]
	jae	SHORT $LN5@Grow

; 2227 : 			_Copy(_Newsize, this->_Mysize);	// reallocate to grow

	mov	edx, DWORD PTR _this$[ebp]
	mov	eax, DWORD PTR [edx+16]
	push	eax
	mov	ecx, DWORD PTR __Newsize$[ebp]
	push	ecx
	mov	ecx, DWORD PTR _this$[ebp]
	call	?_Copy@?$basic_string@DU?$char_traits@D@std@@V?$allocator@D@2@@std@@QAEXII@Z ; std::basic_string<char,std::char_traits<char>,std::allocator<char> >::_Copy
	jmp	SHORT $LN4@Grow
$LN5@Grow:

; 2228 : 		else if (_Trim && _Newsize < this->_BUF_SIZE)

	movzx	edx, BYTE PTR __Trim$[ebp]
	test	edx, edx
	je	SHORT $LN3@Grow
	cmp	DWORD PTR __Newsize$[ebp], 16		; 00000010H
	jae	SHORT $LN3@Grow

; 2229 : 			_Tidy(true,	// copy and deallocate if trimming to small string
; 2230 : 				_Newsize < this->_Mysize ? _Newsize : this->_Mysize);

	mov	eax, DWORD PTR _this$[ebp]
	mov	ecx, DWORD PTR __Newsize$[ebp]
	cmp	ecx, DWORD PTR [eax+16]
	jae	SHORT $LN9@Grow
	mov	edx, DWORD PTR __Newsize$[ebp]
	mov	DWORD PTR tv129[ebp], edx
	jmp	SHORT $LN10@Grow
$LN9@Grow:
	mov	eax, DWORD PTR _this$[ebp]
	mov	ecx, DWORD PTR [eax+16]
	mov	DWORD PTR tv129[ebp], ecx
$LN10@Grow:
	mov	edx, DWORD PTR tv129[ebp]
	push	edx
	push	1
	mov	ecx, DWORD PTR _this$[ebp]
	call	?_Tidy@?$basic_string@DU?$char_traits@D@std@@V?$allocator@D@2@@std@@QAEX_NI@Z ; std::basic_string<char,std::char_traits<char>,std::allocator<char> >::_Tidy
	jmp	SHORT $LN4@Grow
$LN3@Grow:

; 2231 : 		else if (_Newsize == 0)

	cmp	DWORD PTR __Newsize$[ebp], 0
	jne	SHORT $LN4@Grow

; 2232 : 			_Eos(0);	// new size is zero, just null terminate

	push	0
	mov	ecx, DWORD PTR _this$[ebp]
	call	?_Eos@?$basic_string@DU?$char_traits@D@std@@V?$allocator@D@2@@std@@QAEXI@Z ; std::basic_string<char,std::char_traits<char>,std::allocator<char> >::_Eos
$LN4@Grow:

; 2233 : 		return (0 < _Newsize);	// return true only if more work to do

	cmp	DWORD PTR __Newsize$[ebp], 0
	jbe	SHORT $LN11@Grow
	mov	DWORD PTR tv136[ebp], 1
	jmp	SHORT $LN12@Grow
$LN11@Grow:
	mov	DWORD PTR tv136[ebp], 0
$LN12@Grow:
	mov	al, BYTE PTR tv136[ebp]
$LN8@Grow:

; 2234 : 		}

	mov	esp, ebp
	pop	ebp
	ret	8
?_Grow@?$basic_string@DU?$char_traits@D@std@@V?$allocator@D@2@@std@@QAE_NI_N@Z ENDP ; std::basic_string<char,std::char_traits<char>,std::allocator<char> >::_Grow
_TEXT	ENDS
; Function compile flags: /Odtp
; File c:\program files (x86)\microsoft visual studio 11.0\vc\include\xstring
;	COMDAT ?_Eos@?$basic_string@DU?$char_traits@D@std@@V?$allocator@D@2@@std@@QAEXI@Z
_TEXT	SEGMENT
_this$ = -8						; size = 4
$T1 = -1						; size = 1
__Newsize$ = 8						; size = 4
?_Eos@?$basic_string@DU?$char_traits@D@std@@V?$allocator@D@2@@std@@QAEXI@Z PROC ; std::basic_string<char,std::char_traits<char>,std::allocator<char> >::_Eos, COMDAT
; _this$ = ecx

; 2217 : 		{	// set new length and null terminator

	push	ebp
	mov	ebp, esp
	sub	esp, 8
	mov	DWORD PTR _this$[ebp], ecx

; 2218 : 		_Traits::assign(this->_Myptr()[this->_Mysize = _Newsize], _Elem());

	mov	BYTE PTR $T1[ebp], 0
	mov	eax, DWORD PTR _this$[ebp]
	mov	ecx, DWORD PTR __Newsize$[ebp]
	mov	DWORD PTR [eax+16], ecx
	lea	edx, DWORD PTR $T1[ebp]
	push	edx
	mov	ecx, DWORD PTR _this$[ebp]
	call	?_Myptr@?$_String_val@U?$_Simple_types@D@std@@@std@@QAEPADXZ ; std::_String_val<std::_Simple_types<char> >::_Myptr
	add	eax, DWORD PTR __Newsize$[ebp]
	push	eax
	call	?assign@?$char_traits@D@std@@SAXAADABD@Z ; std::char_traits<char>::assign
	add	esp, 8

; 2219 : 		}

	mov	esp, ebp
	pop	ebp
	ret	4
?_Eos@?$basic_string@DU?$char_traits@D@std@@V?$allocator@D@2@@std@@QAEXI@Z ENDP ; std::basic_string<char,std::char_traits<char>,std::allocator<char> >::_Eos
_TEXT	ENDS
; Function compile flags: /Odtp
; File c:\program files (x86)\microsoft visual studio 11.0\vc\include\xstring
;	COMDAT ?_Copy@?$basic_string@DU?$char_traits@D@std@@V?$allocator@D@2@@std@@QAEXII@Z
_TEXT	SEGMENT
tv205 = -48						; size = 4
tv204 = -44						; size = 4
tv203 = -40						; size = 4
tv202 = -36						; size = 4
__Ptr$ = -32						; size = 4
__Newres$ = -28						; size = 4
_this$ = -24						; size = 4
$T2 = -19						; size = 1
$T3 = -18						; size = 1
$T4 = -17						; size = 1
__$EHRec$ = -16						; size = 16
__Newsize$ = 8						; size = 4
__Oldlen$ = 12						; size = 4
?_Copy@?$basic_string@DU?$char_traits@D@std@@V?$allocator@D@2@@std@@QAEXII@Z PROC ; std::basic_string<char,std::char_traits<char>,std::allocator<char> >::_Copy, COMDAT
; _this$ = ecx

; 2182 : 		{	// copy _Oldlen elements to newly allocated buffer

	push	ebp
	mov	ebp, esp
	push	-1
	push	__ehhandler$?_Copy@?$basic_string@DU?$char_traits@D@std@@V?$allocator@D@2@@std@@QAEXII@Z
	mov	eax, DWORD PTR fs:0
	push	eax
	push	ecx
	sub	esp, 32					; 00000020H
	push	ebx
	push	esi
	push	edi
	mov	eax, DWORD PTR ___security_cookie
	xor	eax, ebp
	push	eax
	lea	eax, DWORD PTR __$EHRec$[ebp+4]
	mov	DWORD PTR fs:0, eax
	mov	DWORD PTR __$EHRec$[ebp], esp
	mov	DWORD PTR _this$[ebp], ecx

; 2183 : 		size_type _Newres = _Newsize | this->_ALLOC_MASK;

	mov	eax, DWORD PTR __Newsize$[ebp]
	or	eax, 15					; 0000000fH
	mov	DWORD PTR __Newres$[ebp], eax

; 2184 : 		if (max_size() < _Newres)

	mov	ecx, DWORD PTR _this$[ebp]
	call	?max_size@?$basic_string@DU?$char_traits@D@std@@V?$allocator@D@2@@std@@QBEIXZ ; std::basic_string<char,std::char_traits<char>,std::allocator<char> >::max_size
	cmp	eax, DWORD PTR __Newres$[ebp]
	jae	SHORT $LN9@Copy

; 2185 : 			_Newres = _Newsize;	// undo roundup if too big

	mov	ecx, DWORD PTR __Newsize$[ebp]
	mov	DWORD PTR __Newres$[ebp], ecx
	jmp	SHORT $LN8@Copy
$LN9@Copy:

; 2186 : 		else if (this->_Myres / 2 <= _Newres / 3)

	mov	eax, DWORD PTR __Newres$[ebp]
	xor	edx, edx
	mov	ecx, 3
	div	ecx
	mov	edx, DWORD PTR _this$[ebp]
	mov	ecx, DWORD PTR [edx+20]
	shr	ecx, 1
	cmp	ecx, eax
	ja	SHORT $LN7@Copy
	jmp	SHORT $LN8@Copy
$LN7@Copy:

; 2187 : 			;
; 2188 : 		else if (this->_Myres <= max_size() - this->_Myres / 2)

	mov	edx, DWORD PTR _this$[ebp]
	mov	esi, DWORD PTR [edx+20]
	shr	esi, 1
	mov	ecx, DWORD PTR _this$[ebp]
	call	?max_size@?$basic_string@DU?$char_traits@D@std@@V?$allocator@D@2@@std@@QBEIXZ ; std::basic_string<char,std::char_traits<char>,std::allocator<char> >::max_size
	sub	eax, esi
	mov	ecx, DWORD PTR _this$[ebp]
	cmp	DWORD PTR [ecx+20], eax
	ja	SHORT $LN5@Copy

; 2189 : 			_Newres = this->_Myres
; 2190 : 				+ this->_Myres / 2;	// grow exponentially if possible

	mov	edx, DWORD PTR _this$[ebp]
	mov	eax, DWORD PTR [edx+20]
	shr	eax, 1
	mov	ecx, DWORD PTR _this$[ebp]
	add	eax, DWORD PTR [ecx+20]
	mov	DWORD PTR __Newres$[ebp], eax

; 2191 : 		else

	jmp	SHORT $LN8@Copy
$LN5@Copy:

; 2192 : 			_Newres = max_size();	// settle for max_size()

	mov	ecx, DWORD PTR _this$[ebp]
	call	?max_size@?$basic_string@DU?$char_traits@D@std@@V?$allocator@D@2@@std@@QBEIXZ ; std::basic_string<char,std::char_traits<char>,std::allocator<char> >::max_size
	mov	DWORD PTR __Newres$[ebp], eax
$LN8@Copy:

; 2193 : 
; 2194 : 		_Elem *_Ptr;
; 2195 : 		_TRY_BEGIN

	mov	DWORD PTR __$EHRec$[ebp+12], 0

; 2196 : 			_Ptr = this->_Getal().allocate(_Newres + 1);

	lea	edx, DWORD PTR $T4[ebp]
	push	edx
	mov	ecx, DWORD PTR _this$[ebp]
	call	?_Getal@?$_String_alloc@$0A@U?$_String_base_types@DV?$allocator@D@std@@@std@@@std@@QBE?AU?$_Wrap_alloc@V?$allocator@D@std@@@2@XZ ; std::_String_alloc<0,std::_String_base_types<char,std::allocator<char> > >::_Getal
	mov	DWORD PTR tv202[ebp], eax
	mov	eax, DWORD PTR __Newres$[ebp]
	add	eax, 1
	push	eax
	mov	ecx, DWORD PTR tv202[ebp]
	call	?allocate@?$_Wrap_alloc@V?$allocator@D@std@@@std@@QAEPADI@Z ; std::_Wrap_alloc<std::allocator<char> >::allocate
	mov	DWORD PTR tv203[ebp], eax
	mov	ecx, DWORD PTR tv203[ebp]
	mov	DWORD PTR __Ptr$[ebp], ecx
	jmp	SHORT $LN12@Copy
__catch$?_Copy@?$basic_string@DU?$char_traits@D@std@@V?$allocator@D@2@@std@@QAEXII@Z$0:

; 2197 : 		_CATCH_ALL

	mov	DWORD PTR __$EHRec$[ebp], esp

; 2198 : 			_Newres = _Newsize;	// allocation failed, undo roundup and retry

	mov	edx, DWORD PTR __Newsize$[ebp]
	mov	DWORD PTR __Newres$[ebp], edx

; 2199 : 			_TRY_BEGIN

	mov	BYTE PTR __$EHRec$[ebp+12], 2

; 2200 : 				_Ptr = this->_Getal().allocate(_Newres + 1);

	lea	eax, DWORD PTR $T3[ebp]
	push	eax
	mov	ecx, DWORD PTR _this$[ebp]
	call	?_Getal@?$_String_alloc@$0A@U?$_String_base_types@DV?$allocator@D@std@@@std@@@std@@QBE?AU?$_Wrap_alloc@V?$allocator@D@std@@@2@XZ ; std::_String_alloc<0,std::_String_base_types<char,std::allocator<char> > >::_Getal
	mov	DWORD PTR tv204[ebp], eax
	mov	ecx, DWORD PTR __Newres$[ebp]
	add	ecx, 1
	push	ecx
	mov	ecx, DWORD PTR tv204[ebp]
	call	?allocate@?$_Wrap_alloc@V?$allocator@D@std@@@std@@QAEPADI@Z ; std::_Wrap_alloc<std::allocator<char> >::allocate
	mov	DWORD PTR tv205[ebp], eax
	mov	edx, DWORD PTR tv205[ebp]
	mov	DWORD PTR __Ptr$[ebp], edx
	jmp	SHORT $LN14@Copy
__catch$?_Copy@?$basic_string@DU?$char_traits@D@std@@V?$allocator@D@2@@std@@QAEXII@Z$1:

; 2201 : 			_CATCH_ALL
; 2202 : 			_Tidy(true);	// failed again, discard storage and reraise

	push	0
	push	1
	mov	ecx, DWORD PTR _this$[ebp]
	call	?_Tidy@?$basic_string@DU?$char_traits@D@std@@V?$allocator@D@2@@std@@QAEX_NI@Z ; std::basic_string<char,std::char_traits<char>,std::allocator<char> >::_Tidy

; 2203 : 			_RERAISE;

	push	0
	push	0
	call	__CxxThrowException@8

; 2204 : 			_CATCH_END

	mov	eax, $LN17@Copy
	ret	0
$LN14@Copy:
	mov	DWORD PTR __$EHRec$[ebp+12], 1
	jmp	SHORT __tryend$?_Copy@?$basic_string@DU?$char_traits@D@std@@V?$allocator@D@2@@std@@QAEXII@Z$2
$LN17@Copy:
	mov	DWORD PTR __$EHRec$[ebp+12], 1
__tryend$?_Copy@?$basic_string@DU?$char_traits@D@std@@V?$allocator@D@2@@std@@QAEXII@Z$2:

; 2205 : 		_CATCH_END

	mov	eax, $LN19@Copy
	ret	0
$LN12@Copy:
	mov	DWORD PTR __$EHRec$[ebp+12], -1
	jmp	SHORT __tryend$?_Copy@?$basic_string@DU?$char_traits@D@std@@V?$allocator@D@2@@std@@QAEXII@Z$3
$LN19@Copy:
	mov	DWORD PTR __$EHRec$[ebp+12], -1
__tryend$?_Copy@?$basic_string@DU?$char_traits@D@std@@V?$allocator@D@2@@std@@QAEXII@Z$3:

; 2206 : 
; 2207 : 		if (0 < _Oldlen)

	cmp	DWORD PTR __Oldlen$[ebp], 0
	jbe	SHORT $LN1@Copy

; 2208 : 			_Traits::copy(_Ptr, this->_Myptr(),
; 2209 : 				_Oldlen);	// copy existing elements

	mov	eax, DWORD PTR __Oldlen$[ebp]
	push	eax
	mov	ecx, DWORD PTR _this$[ebp]
	call	?_Myptr@?$_String_val@U?$_Simple_types@D@std@@@std@@QAEPADXZ ; std::_String_val<std::_Simple_types<char> >::_Myptr
	push	eax
	mov	ecx, DWORD PTR __Ptr$[ebp]
	push	ecx
	call	?copy@?$char_traits@D@std@@SAPADPADPBDI@Z ; std::char_traits<char>::copy
	add	esp, 12					; 0000000cH
$LN1@Copy:

; 2210 : 		_Tidy(true);

	push	0
	push	1
	mov	ecx, DWORD PTR _this$[ebp]
	call	?_Tidy@?$basic_string@DU?$char_traits@D@std@@V?$allocator@D@2@@std@@QAEX_NI@Z ; std::basic_string<char,std::char_traits<char>,std::allocator<char> >::_Tidy

; 2211 : 		this->_Getal().construct(&this->_Bx._Ptr, _Ptr);

	lea	edx, DWORD PTR __Ptr$[ebp]
	push	edx
	mov	eax, DWORD PTR _this$[ebp]
	push	eax
	lea	ecx, DWORD PTR $T2[ebp]
	push	ecx
	mov	ecx, DWORD PTR _this$[ebp]
	call	?_Getal@?$_String_alloc@$0A@U?$_String_base_types@DV?$allocator@D@std@@@std@@@std@@QBE?AU?$_Wrap_alloc@V?$allocator@D@std@@@2@XZ ; std::_String_alloc<0,std::_String_base_types<char,std::allocator<char> > >::_Getal
	mov	ecx, eax
	call	??$construct@PADAAPAD@?$_Wrap_alloc@V?$allocator@D@std@@@std@@QAEXPAPADAAPAD@Z ; std::_Wrap_alloc<std::allocator<char> >::construct<char *,char * &>

; 2212 : 		this->_Myres = _Newres;

	mov	edx, DWORD PTR _this$[ebp]
	mov	eax, DWORD PTR __Newres$[ebp]
	mov	DWORD PTR [edx+20], eax

; 2213 : 		_Eos(_Oldlen);

	mov	ecx, DWORD PTR __Oldlen$[ebp]
	push	ecx
	mov	ecx, DWORD PTR _this$[ebp]
	call	?_Eos@?$basic_string@DU?$char_traits@D@std@@V?$allocator@D@2@@std@@QAEXI@Z ; std::basic_string<char,std::char_traits<char>,std::allocator<char> >::_Eos
$LN11@Copy:

; 2214 : 		}

	mov	ecx, DWORD PTR __$EHRec$[ebp+4]
	mov	DWORD PTR fs:0, ecx
	pop	ecx
	pop	edi
	pop	esi
	pop	ebx
	mov	esp, ebp
	pop	ebp
	ret	8
_TEXT	ENDS
;	COMDAT text$x
text$x	SEGMENT
__ehhandler$?_Copy@?$basic_string@DU?$char_traits@D@std@@V?$allocator@D@2@@std@@QAEXII@Z:
	mov	edx, DWORD PTR [esp+8]
	lea	eax, DWORD PTR [edx+12]
	mov	ecx, DWORD PTR [edx-52]
	xor	ecx, eax
	call	@__security_check_cookie@4
	mov	eax, OFFSET __ehfuncinfo$?_Copy@?$basic_string@DU?$char_traits@D@std@@V?$allocator@D@2@@std@@QAEXII@Z
	jmp	___CxxFrameHandler3
text$x	ENDS
?_Copy@?$basic_string@DU?$char_traits@D@std@@V?$allocator@D@2@@std@@QAEXII@Z ENDP ; std::basic_string<char,std::char_traits<char>,std::allocator<char> >::_Copy
; Function compile flags: /Odtp
; File c:\program files (x86)\microsoft visual studio 11.0\vc\include\xstring
;	COMDAT ?max_size@?$basic_string@DU?$char_traits@D@std@@V?$allocator@D@2@@std@@QBEIXZ
_TEXT	SEGMENT
_this$ = -16						; size = 4
tv75 = -12						; size = 4
__Num$ = -8						; size = 4
$T1 = -1						; size = 1
?max_size@?$basic_string@DU?$char_traits@D@std@@V?$allocator@D@2@@std@@QBEIXZ PROC ; std::basic_string<char,std::char_traits<char>,std::allocator<char> >::max_size, COMDAT
; _this$ = ecx

; 1737 : 		{	// return maximum possible length of sequence

	push	ebp
	mov	ebp, esp
	sub	esp, 16					; 00000010H
	mov	DWORD PTR _this$[ebp], ecx

; 1738 : 		size_type _Num = this->_Getal().max_size();

	lea	eax, DWORD PTR $T1[ebp]
	push	eax
	mov	ecx, DWORD PTR _this$[ebp]
	call	?_Getal@?$_String_alloc@$0A@U?$_String_base_types@DV?$allocator@D@std@@@std@@@std@@QBE?AU?$_Wrap_alloc@V?$allocator@D@std@@@2@XZ ; std::_String_alloc<0,std::_String_base_types<char,std::allocator<char> > >::_Getal
	mov	ecx, eax
	call	?max_size@?$_Wrap_alloc@V?$allocator@D@std@@@std@@QBEIXZ ; std::_Wrap_alloc<std::allocator<char> >::max_size
	mov	DWORD PTR __Num$[ebp], eax

; 1739 : 		return (_Num <= 1 ? 1 : _Num - 1);

	cmp	DWORD PTR __Num$[ebp], 1
	ja	SHORT $LN3@max_size
	mov	DWORD PTR tv75[ebp], 1
	jmp	SHORT $LN4@max_size
$LN3@max_size:
	mov	ecx, DWORD PTR __Num$[ebp]
	sub	ecx, 1
	mov	DWORD PTR tv75[ebp], ecx
$LN4@max_size:
	mov	eax, DWORD PTR tv75[ebp]

; 1740 : 		}

	mov	esp, ebp
	pop	ebp
	ret	0
?max_size@?$basic_string@DU?$char_traits@D@std@@V?$allocator@D@2@@std@@QBEIXZ ENDP ; std::basic_string<char,std::char_traits<char>,std::allocator<char> >::max_size
_TEXT	ENDS
; Function compile flags: /Odtp
; File c:\program files (x86)\microsoft visual studio 11.0\vc\include\xstring
;	COMDAT ?size@?$basic_string@DU?$char_traits@D@std@@V?$allocator@D@2@@std@@QBEIXZ
_TEXT	SEGMENT
_this$ = -4						; size = 4
?size@?$basic_string@DU?$char_traits@D@std@@V?$allocator@D@2@@std@@QBEIXZ PROC ; std::basic_string<char,std::char_traits<char>,std::allocator<char> >::size, COMDAT
; _this$ = ecx

; 1732 : 		{	// return length of sequence

	push	ebp
	mov	ebp, esp
	push	ecx
	mov	DWORD PTR _this$[ebp], ecx

; 1733 : 		return (this->_Mysize);

	mov	eax, DWORD PTR _this$[ebp]
	mov	eax, DWORD PTR [eax+16]

; 1734 : 		}

	mov	esp, ebp
	pop	ebp
	ret	0
?size@?$basic_string@DU?$char_traits@D@std@@V?$allocator@D@2@@std@@QBEIXZ ENDP ; std::basic_string<char,std::char_traits<char>,std::allocator<char> >::size
_TEXT	ENDS
; Function compile flags: /Odtp
; File c:\program files (x86)\microsoft visual studio 11.0\vc\include\xstring
;	COMDAT ?erase@?$basic_string@DU?$char_traits@D@std@@V?$allocator@D@2@@std@@QAEAAV12@II@Z
_TEXT	SEGMENT
__Newsize$1 = -12					; size = 4
__Ptr$2 = -8						; size = 4
_this$ = -4						; size = 4
__Off$ = 8						; size = 4
__Count$ = 12						; size = 4
?erase@?$basic_string@DU?$char_traits@D@std@@V?$allocator@D@2@@std@@QAEAAV12@II@Z PROC ; std::basic_string<char,std::char_traits<char>,std::allocator<char> >::erase, COMDAT
; _this$ = ecx

; 1317 : 		{	// erase elements [_Off, _Off + _Count)

	push	ebp
	mov	ebp, esp
	sub	esp, 12					; 0000000cH
	mov	DWORD PTR _this$[ebp], ecx

; 1318 : 		if (this->_Mysize < _Off)

	mov	eax, DWORD PTR _this$[ebp]
	mov	ecx, DWORD PTR [eax+16]
	cmp	ecx, DWORD PTR __Off$[ebp]
	jae	SHORT $LN4@erase

; 1319 : 			_Xran();	// _Off off end

	mov	ecx, DWORD PTR _this$[ebp]
	call	?_Xran@?$basic_string@DU?$char_traits@D@std@@V?$allocator@D@2@@std@@QBEXXZ ; std::basic_string<char,std::char_traits<char>,std::allocator<char> >::_Xran
$LN4@erase:

; 1320 : 		if (this->_Mysize - _Off <= _Count)

	mov	edx, DWORD PTR _this$[ebp]
	mov	eax, DWORD PTR [edx+16]
	sub	eax, DWORD PTR __Off$[ebp]
	cmp	eax, DWORD PTR __Count$[ebp]
	ja	SHORT $LN3@erase

; 1321 : 			_Eos(_Off);	// erase elements [_Off, ...)

	mov	ecx, DWORD PTR __Off$[ebp]
	push	ecx
	mov	ecx, DWORD PTR _this$[ebp]
	call	?_Eos@?$basic_string@DU?$char_traits@D@std@@V?$allocator@D@2@@std@@QAEXI@Z ; std::basic_string<char,std::char_traits<char>,std::allocator<char> >::_Eos
	jmp	SHORT $LN2@erase
$LN3@erase:

; 1322 : 		else if (0 < _Count)

	cmp	DWORD PTR __Count$[ebp], 0
	jbe	SHORT $LN2@erase

; 1323 : 			{	// move elements down
; 1324 : 			value_type *_Ptr = this->_Myptr() + _Off;

	mov	ecx, DWORD PTR _this$[ebp]
	call	?_Myptr@?$_String_val@U?$_Simple_types@D@std@@@std@@QAEPADXZ ; std::_String_val<std::_Simple_types<char> >::_Myptr
	add	eax, DWORD PTR __Off$[ebp]
	mov	DWORD PTR __Ptr$2[ebp], eax

; 1325 : 			size_type _Newsize = this->_Mysize - _Count;

	mov	edx, DWORD PTR _this$[ebp]
	mov	eax, DWORD PTR [edx+16]
	sub	eax, DWORD PTR __Count$[ebp]
	mov	DWORD PTR __Newsize$1[ebp], eax

; 1326 : 			_Traits::move(_Ptr, _Ptr + _Count, _Newsize - _Off);

	mov	ecx, DWORD PTR __Newsize$1[ebp]
	sub	ecx, DWORD PTR __Off$[ebp]
	push	ecx
	mov	edx, DWORD PTR __Ptr$2[ebp]
	add	edx, DWORD PTR __Count$[ebp]
	push	edx
	mov	eax, DWORD PTR __Ptr$2[ebp]
	push	eax
	call	?move@?$char_traits@D@std@@SAPADPADPBDI@Z ; std::char_traits<char>::move
	add	esp, 12					; 0000000cH

; 1327 : 			_Eos(_Newsize);

	mov	ecx, DWORD PTR __Newsize$1[ebp]
	push	ecx
	mov	ecx, DWORD PTR _this$[ebp]
	call	?_Eos@?$basic_string@DU?$char_traits@D@std@@V?$allocator@D@2@@std@@QAEXI@Z ; std::basic_string<char,std::char_traits<char>,std::allocator<char> >::_Eos
$LN2@erase:

; 1328 : 			}
; 1329 : 		return (*this);

	mov	eax, DWORD PTR _this$[ebp]
$LN6@erase:

; 1330 : 		}

	mov	esp, ebp
	pop	ebp
	ret	8
?erase@?$basic_string@DU?$char_traits@D@std@@V?$allocator@D@2@@std@@QAEAAV12@II@Z ENDP ; std::basic_string<char,std::char_traits<char>,std::allocator<char> >::erase
_TEXT	ENDS
; Function compile flags: /Odtp
; File c:\program files (x86)\microsoft visual studio 11.0\vc\include\xstring
;	COMDAT ?erase@?$basic_string@DU?$char_traits@D@std@@V?$allocator@D@2@@std@@QAEAAV12@I@Z
_TEXT	SEGMENT
_this$ = -4						; size = 4
__Off$ = 8						; size = 4
?erase@?$basic_string@DU?$char_traits@D@std@@V?$allocator@D@2@@std@@QAEAAV12@I@Z PROC ; std::basic_string<char,std::char_traits<char>,std::allocator<char> >::erase, COMDAT
; _this$ = ecx

; 1309 : 		{	// erase elements [_Off, ...)

	push	ebp
	mov	ebp, esp
	push	ecx
	mov	DWORD PTR _this$[ebp], ecx

; 1310 : 		if (this->_Mysize < _Off)

	mov	eax, DWORD PTR _this$[ebp]
	mov	ecx, DWORD PTR [eax+16]
	cmp	ecx, DWORD PTR __Off$[ebp]
	jae	SHORT $LN1@erase

; 1311 : 			_Xran();	// _Off off end

	mov	ecx, DWORD PTR _this$[ebp]
	call	?_Xran@?$basic_string@DU?$char_traits@D@std@@V?$allocator@D@2@@std@@QBEXXZ ; std::basic_string<char,std::char_traits<char>,std::allocator<char> >::_Xran
$LN1@erase:

; 1312 : 		_Eos(_Off);

	mov	edx, DWORD PTR __Off$[ebp]
	push	edx
	mov	ecx, DWORD PTR _this$[ebp]
	call	?_Eos@?$basic_string@DU?$char_traits@D@std@@V?$allocator@D@2@@std@@QAEXI@Z ; std::basic_string<char,std::char_traits<char>,std::allocator<char> >::_Eos

; 1313 : 		return (*this);

	mov	eax, DWORD PTR _this$[ebp]
$LN3@erase:

; 1314 : 		}

	mov	esp, ebp
	pop	ebp
	ret	4
?erase@?$basic_string@DU?$char_traits@D@std@@V?$allocator@D@2@@std@@QAEAAV12@I@Z ENDP ; std::basic_string<char,std::char_traits<char>,std::allocator<char> >::erase
_TEXT	ENDS
; Function compile flags: /Odtp
; File c:\program files (x86)\microsoft visual studio 11.0\vc\include\xstring
;	COMDAT ?assign@?$basic_string@DU?$char_traits@D@std@@V?$allocator@D@2@@std@@QAEAAV12@PBD@Z
_TEXT	SEGMENT
_this$ = -4						; size = 4
__Ptr$ = 8						; size = 4
?assign@?$basic_string@DU?$char_traits@D@std@@V?$allocator@D@2@@std@@QAEAAV12@PBD@Z PROC ; std::basic_string<char,std::char_traits<char>,std::allocator<char> >::assign, COMDAT
; _this$ = ecx

; 1142 : 		{	// assign [_Ptr, <null>)

	push	ebp
	mov	ebp, esp
	push	ecx
	mov	DWORD PTR _this$[ebp], ecx

; 1143 : 		_DEBUG_POINTER(_Ptr);
; 1144 : 		return (assign(_Ptr, _Traits::length(_Ptr)));

	mov	eax, DWORD PTR __Ptr$[ebp]
	push	eax
	call	?length@?$char_traits@D@std@@SAIPBD@Z	; std::char_traits<char>::length
	add	esp, 4
	push	eax
	mov	ecx, DWORD PTR __Ptr$[ebp]
	push	ecx
	mov	ecx, DWORD PTR _this$[ebp]
	call	?assign@?$basic_string@DU?$char_traits@D@std@@V?$allocator@D@2@@std@@QAEAAV12@PBDI@Z ; std::basic_string<char,std::char_traits<char>,std::allocator<char> >::assign

; 1145 : 		}

	mov	esp, ebp
	pop	ebp
	ret	4
?assign@?$basic_string@DU?$char_traits@D@std@@V?$allocator@D@2@@std@@QAEAAV12@PBD@Z ENDP ; std::basic_string<char,std::char_traits<char>,std::allocator<char> >::assign
_TEXT	ENDS
; Function compile flags: /Odtp
; File c:\program files (x86)\microsoft visual studio 11.0\vc\include\xstring
;	COMDAT ?assign@?$basic_string@DU?$char_traits@D@std@@V?$allocator@D@2@@std@@QAEAAV12@PBDI@Z
_TEXT	SEGMENT
_this$ = -4						; size = 4
__Ptr$ = 8						; size = 4
__Count$ = 12						; size = 4
?assign@?$basic_string@DU?$char_traits@D@std@@V?$allocator@D@2@@std@@QAEAAV12@PBDI@Z PROC ; std::basic_string<char,std::char_traits<char>,std::allocator<char> >::assign, COMDAT
; _this$ = ecx

; 1123 : 		{	// assign [_Ptr, _Ptr + _Count)

	push	ebp
	mov	ebp, esp
	push	ecx
	mov	DWORD PTR _this$[ebp], ecx

; 1124 :  #if _ITERATOR_DEBUG_LEVEL == 2
; 1125 : 		if (_Count != 0)
; 1126 : 			_DEBUG_POINTER(_Ptr);
; 1127 :  #endif /* _ITERATOR_DEBUG_LEVEL == 2 */
; 1128 : 
; 1129 : 		if (_Inside(_Ptr))

	mov	eax, DWORD PTR __Ptr$[ebp]
	push	eax
	mov	ecx, DWORD PTR _this$[ebp]
	call	?_Inside@?$basic_string@DU?$char_traits@D@std@@V?$allocator@D@2@@std@@QAE_NPBD@Z ; std::basic_string<char,std::char_traits<char>,std::allocator<char> >::_Inside
	movzx	ecx, al
	test	ecx, ecx
	je	SHORT $LN2@assign

; 1130 : 			return (assign(*this,
; 1131 : 				_Ptr - this->_Myptr(), _Count));	// substring

	mov	edx, DWORD PTR __Count$[ebp]
	push	edx
	mov	ecx, DWORD PTR _this$[ebp]
	call	?_Myptr@?$_String_val@U?$_Simple_types@D@std@@@std@@QAEPADXZ ; std::_String_val<std::_Simple_types<char> >::_Myptr
	mov	ecx, DWORD PTR __Ptr$[ebp]
	sub	ecx, eax
	push	ecx
	mov	edx, DWORD PTR _this$[ebp]
	push	edx
	mov	ecx, DWORD PTR _this$[ebp]
	call	?assign@?$basic_string@DU?$char_traits@D@std@@V?$allocator@D@2@@std@@QAEAAV12@ABV12@II@Z ; std::basic_string<char,std::char_traits<char>,std::allocator<char> >::assign
	jmp	SHORT $LN3@assign
$LN2@assign:

; 1132 : 
; 1133 : 		if (_Grow(_Count))

	push	0
	mov	eax, DWORD PTR __Count$[ebp]
	push	eax
	mov	ecx, DWORD PTR _this$[ebp]
	call	?_Grow@?$basic_string@DU?$char_traits@D@std@@V?$allocator@D@2@@std@@QAE_NI_N@Z ; std::basic_string<char,std::char_traits<char>,std::allocator<char> >::_Grow
	movzx	ecx, al
	test	ecx, ecx
	je	SHORT $LN1@assign

; 1134 : 			{	// make room and assign new stuff
; 1135 : 			_Traits::copy(this->_Myptr(), _Ptr, _Count);

	mov	edx, DWORD PTR __Count$[ebp]
	push	edx
	mov	eax, DWORD PTR __Ptr$[ebp]
	push	eax
	mov	ecx, DWORD PTR _this$[ebp]
	call	?_Myptr@?$_String_val@U?$_Simple_types@D@std@@@std@@QAEPADXZ ; std::_String_val<std::_Simple_types<char> >::_Myptr
	push	eax
	call	?copy@?$char_traits@D@std@@SAPADPADPBDI@Z ; std::char_traits<char>::copy
	add	esp, 12					; 0000000cH

; 1136 : 			_Eos(_Count);

	mov	ecx, DWORD PTR __Count$[ebp]
	push	ecx
	mov	ecx, DWORD PTR _this$[ebp]
	call	?_Eos@?$basic_string@DU?$char_traits@D@std@@V?$allocator@D@2@@std@@QAEXI@Z ; std::basic_string<char,std::char_traits<char>,std::allocator<char> >::_Eos
$LN1@assign:

; 1137 : 			}
; 1138 : 		return (*this);

	mov	eax, DWORD PTR _this$[ebp]
$LN3@assign:

; 1139 : 		}

	mov	esp, ebp
	pop	ebp
	ret	8
?assign@?$basic_string@DU?$char_traits@D@std@@V?$allocator@D@2@@std@@QAEAAV12@PBDI@Z ENDP ; std::basic_string<char,std::char_traits<char>,std::allocator<char> >::assign
_TEXT	ENDS
; Function compile flags: /Odtp
; File c:\program files (x86)\microsoft visual studio 11.0\vc\include\xstring
;	COMDAT ?assign@?$basic_string@DU?$char_traits@D@std@@V?$allocator@D@2@@std@@QAEAAV12@ABV12@II@Z
_TEXT	SEGMENT
__Num$ = -8						; size = 4
_this$ = -4						; size = 4
__Right$ = 8						; size = 4
__Roff$ = 12						; size = 4
__Count$ = 16						; size = 4
?assign@?$basic_string@DU?$char_traits@D@std@@V?$allocator@D@2@@std@@QAEAAV12@ABV12@II@Z PROC ; std::basic_string<char,std::char_traits<char>,std::allocator<char> >::assign, COMDAT
; _this$ = ecx

; 1104 : 		{	// assign _Right [_Roff, _Roff + _Count)

	push	ebp
	mov	ebp, esp
	sub	esp, 8
	mov	DWORD PTR _this$[ebp], ecx

; 1105 : 		if (_Right.size() < _Roff)

	mov	ecx, DWORD PTR __Right$[ebp]
	call	?size@?$basic_string@DU?$char_traits@D@std@@V?$allocator@D@2@@std@@QBEIXZ ; std::basic_string<char,std::char_traits<char>,std::allocator<char> >::size
	cmp	eax, DWORD PTR __Roff$[ebp]
	jae	SHORT $LN5@assign

; 1106 : 			_Xran();	// _Roff off end

	mov	ecx, DWORD PTR _this$[ebp]
	call	?_Xran@?$basic_string@DU?$char_traits@D@std@@V?$allocator@D@2@@std@@QBEXXZ ; std::basic_string<char,std::char_traits<char>,std::allocator<char> >::_Xran
$LN5@assign:

; 1107 : 		size_type _Num = _Right.size() - _Roff;

	mov	ecx, DWORD PTR __Right$[ebp]
	call	?size@?$basic_string@DU?$char_traits@D@std@@V?$allocator@D@2@@std@@QBEIXZ ; std::basic_string<char,std::char_traits<char>,std::allocator<char> >::size
	sub	eax, DWORD PTR __Roff$[ebp]
	mov	DWORD PTR __Num$[ebp], eax

; 1108 : 		if (_Count < _Num)

	mov	eax, DWORD PTR __Count$[ebp]
	cmp	eax, DWORD PTR __Num$[ebp]
	jae	SHORT $LN4@assign

; 1109 : 			_Num = _Count;	// trim _Num to size

	mov	ecx, DWORD PTR __Count$[ebp]
	mov	DWORD PTR __Num$[ebp], ecx
$LN4@assign:

; 1110 : 
; 1111 : 		if (this == &_Right)

	mov	edx, DWORD PTR _this$[ebp]
	cmp	edx, DWORD PTR __Right$[ebp]
	jne	SHORT $LN3@assign

; 1112 : 			erase((size_type)(_Roff + _Num)), erase(0, _Roff);	// substring

	mov	eax, DWORD PTR __Roff$[ebp]
	add	eax, DWORD PTR __Num$[ebp]
	push	eax
	mov	ecx, DWORD PTR _this$[ebp]
	call	?erase@?$basic_string@DU?$char_traits@D@std@@V?$allocator@D@2@@std@@QAEAAV12@I@Z ; std::basic_string<char,std::char_traits<char>,std::allocator<char> >::erase
	mov	ecx, DWORD PTR __Roff$[ebp]
	push	ecx
	push	0
	mov	ecx, DWORD PTR _this$[ebp]
	call	?erase@?$basic_string@DU?$char_traits@D@std@@V?$allocator@D@2@@std@@QAEAAV12@II@Z ; std::basic_string<char,std::char_traits<char>,std::allocator<char> >::erase
	jmp	SHORT $LN2@assign
$LN3@assign:

; 1113 : 		else if (_Grow(_Num))

	push	0
	mov	edx, DWORD PTR __Num$[ebp]
	push	edx
	mov	ecx, DWORD PTR _this$[ebp]
	call	?_Grow@?$basic_string@DU?$char_traits@D@std@@V?$allocator@D@2@@std@@QAE_NI_N@Z ; std::basic_string<char,std::char_traits<char>,std::allocator<char> >::_Grow
	movzx	eax, al
	test	eax, eax
	je	SHORT $LN2@assign

; 1114 : 			{	// make room and assign new stuff
; 1115 : 			_Traits::copy(this->_Myptr(),
; 1116 : 				_Right._Myptr() + _Roff, _Num);

	mov	ecx, DWORD PTR __Num$[ebp]
	push	ecx
	mov	ecx, DWORD PTR __Right$[ebp]
	call	?_Myptr@?$_String_val@U?$_Simple_types@D@std@@@std@@QBEPBDXZ ; std::_String_val<std::_Simple_types<char> >::_Myptr
	add	eax, DWORD PTR __Roff$[ebp]
	push	eax
	mov	ecx, DWORD PTR _this$[ebp]
	call	?_Myptr@?$_String_val@U?$_Simple_types@D@std@@@std@@QAEPADXZ ; std::_String_val<std::_Simple_types<char> >::_Myptr
	push	eax
	call	?copy@?$char_traits@D@std@@SAPADPADPBDI@Z ; std::char_traits<char>::copy
	add	esp, 12					; 0000000cH

; 1117 : 			_Eos(_Num);

	mov	edx, DWORD PTR __Num$[ebp]
	push	edx
	mov	ecx, DWORD PTR _this$[ebp]
	call	?_Eos@?$basic_string@DU?$char_traits@D@std@@V?$allocator@D@2@@std@@QAEXI@Z ; std::basic_string<char,std::char_traits<char>,std::allocator<char> >::_Eos
$LN2@assign:

; 1118 : 			}
; 1119 : 		return (*this);

	mov	eax, DWORD PTR _this$[ebp]
$LN7@assign:

; 1120 : 		}

	mov	esp, ebp
	pop	ebp
	ret	12					; 0000000cH
?assign@?$basic_string@DU?$char_traits@D@std@@V?$allocator@D@2@@std@@QAEAAV12@ABV12@II@Z ENDP ; std::basic_string<char,std::char_traits<char>,std::allocator<char> >::assign
_TEXT	ENDS
; Function compile flags: /Odtp
; File c:\program files (x86)\microsoft visual studio 11.0\vc\include\xstring
;	COMDAT ??0?$basic_string@DU?$char_traits@D@std@@V?$allocator@D@2@@std@@QAE@PBD@Z
_TEXT	SEGMENT
_this$ = -8						; size = 4
$T1 = -1						; size = 1
__Ptr$ = 8						; size = 4
??0?$basic_string@DU?$char_traits@D@std@@V?$allocator@D@2@@std@@QAE@PBD@Z PROC ; std::basic_string<char,std::char_traits<char>,std::allocator<char> >::basic_string<char,std::char_traits<char>,std::allocator<char> >, COMDAT
; _this$ = ecx

; 791  : 		{	// construct from [_Ptr, <null>)

	push	ebp
	mov	ebp, esp
	sub	esp, 8
	mov	DWORD PTR _this$[ebp], ecx
	lea	ecx, DWORD PTR $T1[ebp]
	call	??0?$allocator@D@std@@QAE@XZ		; std::allocator<char>::allocator<char>
	push	eax
	mov	ecx, DWORD PTR _this$[ebp]
	call	??0?$_String_alloc@$0A@U?$_String_base_types@DV?$allocator@D@std@@@std@@@std@@QAE@ABV?$allocator@D@1@@Z ; std::_String_alloc<0,std::_String_base_types<char,std::allocator<char> > >::_String_alloc<0,std::_String_base_types<char,std::allocator<char> > >

; 792  : 		_Tidy();

	push	0
	push	0
	mov	ecx, DWORD PTR _this$[ebp]
	call	?_Tidy@?$basic_string@DU?$char_traits@D@std@@V?$allocator@D@2@@std@@QAEX_NI@Z ; std::basic_string<char,std::char_traits<char>,std::allocator<char> >::_Tidy

; 793  : 		assign(_Ptr);

	mov	eax, DWORD PTR __Ptr$[ebp]
	push	eax
	mov	ecx, DWORD PTR _this$[ebp]
	call	?assign@?$basic_string@DU?$char_traits@D@std@@V?$allocator@D@2@@std@@QAEAAV12@PBD@Z ; std::basic_string<char,std::char_traits<char>,std::allocator<char> >::assign

; 794  : 		}

	mov	eax, DWORD PTR _this$[ebp]
	mov	esp, ebp
	pop	ebp
	ret	4
??0?$basic_string@DU?$char_traits@D@std@@V?$allocator@D@2@@std@@QAE@PBD@Z ENDP ; std::basic_string<char,std::char_traits<char>,std::allocator<char> >::basic_string<char,std::char_traits<char>,std::allocator<char> >
_TEXT	ENDS
; Function compile flags: /Odtp
; File c:\program files (x86)\microsoft visual studio 11.0\vc\include\xstring
;	COMDAT ?_Getal@?$_String_alloc@$0A@U?$_String_base_types@DV?$allocator@D@std@@@std@@@std@@QBE?AU?$_Wrap_alloc@V?$allocator@D@std@@@2@XZ
_TEXT	SEGMENT
_this$ = -4						; size = 4
___$ReturnUdt$ = 8					; size = 4
?_Getal@?$_String_alloc@$0A@U?$_String_base_types@DV?$allocator@D@std@@@std@@@std@@QBE?AU?$_Wrap_alloc@V?$allocator@D@std@@@2@XZ PROC ; std::_String_alloc<0,std::_String_base_types<char,std::allocator<char> > >::_Getal, COMDAT
; _this$ = ecx

; 688  : 		{	// get reference to allocator

	push	ebp
	mov	ebp, esp
	push	ecx
	mov	DWORD PTR _this$[ebp], ecx

; 689  : 		return (_Alty());

	mov	ecx, DWORD PTR ___$ReturnUdt$[ebp]
	call	??0?$_Wrap_alloc@V?$allocator@D@std@@@std@@QAE@XZ ; std::_Wrap_alloc<std::allocator<char> >::_Wrap_alloc<std::allocator<char> >
	mov	eax, DWORD PTR ___$ReturnUdt$[ebp]

; 690  : 		}

	mov	esp, ebp
	pop	ebp
	ret	4
?_Getal@?$_String_alloc@$0A@U?$_String_base_types@DV?$allocator@D@std@@@std@@@std@@QBE?AU?$_Wrap_alloc@V?$allocator@D@std@@@2@XZ ENDP ; std::_String_alloc<0,std::_String_base_types<char,std::allocator<char> > >::_Getal
_TEXT	ENDS
; Function compile flags: /Odtp
; File c:\program files (x86)\microsoft visual studio 11.0\vc\include\xstring
;	COMDAT ??0?$_String_alloc@$0A@U?$_String_base_types@DV?$allocator@D@std@@@std@@@std@@QAE@ABV?$allocator@D@1@@Z
_TEXT	SEGMENT
_this$ = -4						; size = 4
___formal$ = 8						; size = 4
??0?$_String_alloc@$0A@U?$_String_base_types@DV?$allocator@D@std@@@std@@@std@@QAE@ABV?$allocator@D@1@@Z PROC ; std::_String_alloc<0,std::_String_base_types<char,std::allocator<char> > >::_String_alloc<0,std::_String_base_types<char,std::allocator<char> > >, COMDAT
; _this$ = ecx

; 635  : 	_String_alloc(const _Alloc& = _Alloc())

	push	ebp
	mov	ebp, esp
	push	ecx
	mov	DWORD PTR _this$[ebp], ecx
	mov	ecx, DWORD PTR _this$[ebp]
	call	??0?$_String_val@U?$_Simple_types@D@std@@@std@@QAE@XZ ; std::_String_val<std::_Simple_types<char> >::_String_val<std::_Simple_types<char> >

; 636  : 		{	// construct allocator from _Al
; 637  : 		}

	mov	eax, DWORD PTR _this$[ebp]
	mov	esp, ebp
	pop	ebp
	ret	4
??0?$_String_alloc@$0A@U?$_String_base_types@DV?$allocator@D@std@@@std@@@std@@QAE@ABV?$allocator@D@1@@Z ENDP ; std::_String_alloc<0,std::_String_base_types<char,std::allocator<char> > >::_String_alloc<0,std::_String_base_types<char,std::allocator<char> > >
_TEXT	ENDS
; Function compile flags: /Odtp
; File c:\program files (x86)\microsoft visual studio 11.0\vc\include\xstring
;	COMDAT ?_Myptr@?$_String_val@U?$_Simple_types@D@std@@@std@@QBEPBDXZ
_TEXT	SEGMENT
tv72 = -8						; size = 4
_this$ = -4						; size = 4
?_Myptr@?$_String_val@U?$_Simple_types@D@std@@@std@@QBEPBDXZ PROC ; std::_String_val<std::_Simple_types<char> >::_Myptr, COMDAT
; _this$ = ecx

; 521  : 		{	// determine current pointer to buffer for nonmutable string

	push	ebp
	mov	ebp, esp
	sub	esp, 8
	mov	DWORD PTR _this$[ebp], ecx

; 522  : 		return (this->_BUF_SIZE <= this->_Myres
; 523  : 			? _STD addressof(*this->_Bx._Ptr)
; 524  : 			: this->_Bx._Buf);

	mov	eax, DWORD PTR _this$[ebp]
	cmp	DWORD PTR [eax+20], 16			; 00000010H
	jb	SHORT $LN3@Myptr
	mov	ecx, DWORD PTR _this$[ebp]
	mov	edx, DWORD PTR [ecx]
	push	edx
	call	??$addressof@D@std@@YAPADAAD@Z		; std::addressof<char>
	add	esp, 4
	mov	DWORD PTR tv72[ebp], eax
	jmp	SHORT $LN4@Myptr
$LN3@Myptr:
	mov	eax, DWORD PTR _this$[ebp]
	mov	DWORD PTR tv72[ebp], eax
$LN4@Myptr:
	mov	eax, DWORD PTR tv72[ebp]

; 525  : 		}

	mov	esp, ebp
	pop	ebp
	ret	0
?_Myptr@?$_String_val@U?$_Simple_types@D@std@@@std@@QBEPBDXZ ENDP ; std::_String_val<std::_Simple_types<char> >::_Myptr
_TEXT	ENDS
; Function compile flags: /Odtp
; File c:\program files (x86)\microsoft visual studio 11.0\vc\include\xstring
;	COMDAT ?_Myptr@?$_String_val@U?$_Simple_types@D@std@@@std@@QAEPADXZ
_TEXT	SEGMENT
tv72 = -8						; size = 4
_this$ = -4						; size = 4
?_Myptr@?$_String_val@U?$_Simple_types@D@std@@@std@@QAEPADXZ PROC ; std::_String_val<std::_Simple_types<char> >::_Myptr, COMDAT
; _this$ = ecx

; 514  : 		{	// determine current pointer to buffer for mutable string

	push	ebp
	mov	ebp, esp
	sub	esp, 8
	mov	DWORD PTR _this$[ebp], ecx

; 515  : 		return (this->_BUF_SIZE <= this->_Myres
; 516  : 			? _STD addressof(*this->_Bx._Ptr)
; 517  : 			: this->_Bx._Buf);

	mov	eax, DWORD PTR _this$[ebp]
	cmp	DWORD PTR [eax+20], 16			; 00000010H
	jb	SHORT $LN3@Myptr
	mov	ecx, DWORD PTR _this$[ebp]
	mov	edx, DWORD PTR [ecx]
	push	edx
	call	??$addressof@D@std@@YAPADAAD@Z		; std::addressof<char>
	add	esp, 4
	mov	DWORD PTR tv72[ebp], eax
	jmp	SHORT $LN4@Myptr
$LN3@Myptr:
	mov	eax, DWORD PTR _this$[ebp]
	mov	DWORD PTR tv72[ebp], eax
$LN4@Myptr:
	mov	eax, DWORD PTR tv72[ebp]

; 518  : 		}

	mov	esp, ebp
	pop	ebp
	ret	0
?_Myptr@?$_String_val@U?$_Simple_types@D@std@@@std@@QAEPADXZ ENDP ; std::_String_val<std::_Simple_types<char> >::_Myptr
_TEXT	ENDS
; Function compile flags: /Odtp
; File c:\program files (x86)\microsoft visual studio 11.0\vc\include\xstring
;	COMDAT ??0?$_String_val@U?$_Simple_types@D@std@@@std@@QAE@XZ
_TEXT	SEGMENT
_this$ = -4						; size = 4
??0?$_String_val@U?$_Simple_types@D@std@@@std@@QAE@XZ PROC ; std::_String_val<std::_Simple_types<char> >::_String_val<std::_Simple_types<char> >, COMDAT
; _this$ = ecx

; 496  : 	_String_val()

	push	ebp
	mov	ebp, esp
	push	ecx
	mov	DWORD PTR _this$[ebp], ecx

; 497  : 		{	// initialize values
; 498  : 		_Mysize = 0;

	mov	eax, DWORD PTR _this$[ebp]
	mov	DWORD PTR [eax+16], 0

; 499  : 		_Myres = 0;

	mov	ecx, DWORD PTR _this$[ebp]
	mov	DWORD PTR [ecx+20], 0

; 500  : 		}

	mov	eax, DWORD PTR _this$[ebp]
	mov	esp, ebp
	pop	ebp
	ret	0
??0?$_String_val@U?$_Simple_types@D@std@@@std@@QAE@XZ ENDP ; std::_String_val<std::_Simple_types<char> >::_String_val<std::_Simple_types<char> >
_TEXT	ENDS
; Function compile flags: /Odtp
; File c:\program files (x86)\microsoft visual studio 11.0\vc\include\xmemory0
;	COMDAT ?max_size@?$_Wrap_alloc@V?$allocator@D@std@@@std@@QBEIXZ
_TEXT	SEGMENT
_this$ = -4						; size = 4
?max_size@?$_Wrap_alloc@V?$allocator@D@std@@@std@@QBEIXZ PROC ; std::_Wrap_alloc<std::allocator<char> >::max_size, COMDAT
; _this$ = ecx

; 913  : 		{	// get maximum size

	push	ebp
	mov	ebp, esp
	push	ecx
	mov	DWORD PTR _this$[ebp], ecx

; 914  : 		return (_Mytraits::max_size(*this));

	mov	eax, DWORD PTR _this$[ebp]
	push	eax
	call	?max_size@?$allocator_traits@V?$allocator@D@std@@@std@@SAIABV?$allocator@D@2@@Z ; std::allocator_traits<std::allocator<char> >::max_size
	add	esp, 4

; 915  : 		}

	mov	esp, ebp
	pop	ebp
	ret	0
?max_size@?$_Wrap_alloc@V?$allocator@D@std@@@std@@QBEIXZ ENDP ; std::_Wrap_alloc<std::allocator<char> >::max_size
_TEXT	ENDS
; Function compile flags: /Odtp
; File c:\program files (x86)\microsoft visual studio 11.0\vc\include\xmemory0
;	COMDAT ?deallocate@?$_Wrap_alloc@V?$allocator@D@std@@@std@@QAEXPADI@Z
_TEXT	SEGMENT
_this$ = -4						; size = 4
__Ptr$ = 8						; size = 4
__Count$ = 12						; size = 4
?deallocate@?$_Wrap_alloc@V?$allocator@D@std@@@std@@QAEXPADI@Z PROC ; std::_Wrap_alloc<std::allocator<char> >::deallocate, COMDAT
; _this$ = ecx

; 886  : 		{	// deallocate object at _Ptr, ignore size

	push	ebp
	mov	ebp, esp
	push	ecx
	mov	DWORD PTR _this$[ebp], ecx

; 887  : 		_Mybase::deallocate(_Ptr, _Count);

	mov	eax, DWORD PTR __Count$[ebp]
	push	eax
	mov	ecx, DWORD PTR __Ptr$[ebp]
	push	ecx
	mov	ecx, DWORD PTR _this$[ebp]
	call	?deallocate@?$allocator@D@std@@QAEXPADI@Z ; std::allocator<char>::deallocate

; 888  : 		}

	mov	esp, ebp
	pop	ebp
	ret	8
?deallocate@?$_Wrap_alloc@V?$allocator@D@std@@@std@@QAEXPADI@Z ENDP ; std::_Wrap_alloc<std::allocator<char> >::deallocate
_TEXT	ENDS
; Function compile flags: /Odtp
; File c:\program files (x86)\microsoft visual studio 11.0\vc\include\xmemory0
;	COMDAT ?allocate@?$_Wrap_alloc@V?$allocator@D@std@@@std@@QAEPADI@Z
_TEXT	SEGMENT
_this$ = -4						; size = 4
__Count$ = 8						; size = 4
?allocate@?$_Wrap_alloc@V?$allocator@D@std@@@std@@QAEPADI@Z PROC ; std::_Wrap_alloc<std::allocator<char> >::allocate, COMDAT
; _this$ = ecx

; 875  : 		{	// allocate array of _Count elements

	push	ebp
	mov	ebp, esp
	push	ecx
	mov	DWORD PTR _this$[ebp], ecx

; 876  : 		return (_Mybase::allocate(_Count));

	mov	eax, DWORD PTR __Count$[ebp]
	push	eax
	mov	ecx, DWORD PTR _this$[ebp]
	call	?allocate@?$allocator@D@std@@QAEPADI@Z	; std::allocator<char>::allocate

; 877  : 		}

	mov	esp, ebp
	pop	ebp
	ret	4
?allocate@?$_Wrap_alloc@V?$allocator@D@std@@@std@@QAEPADI@Z ENDP ; std::_Wrap_alloc<std::allocator<char> >::allocate
_TEXT	ENDS
; Function compile flags: /Odtp
; File c:\program files (x86)\microsoft visual studio 11.0\vc\include\xmemory0
;	COMDAT ??0?$_Wrap_alloc@V?$allocator@D@std@@@std@@QAE@XZ
_TEXT	SEGMENT
_this$ = -4						; size = 4
??0?$_Wrap_alloc@V?$allocator@D@std@@@std@@QAE@XZ PROC	; std::_Wrap_alloc<std::allocator<char> >::_Wrap_alloc<std::allocator<char> >, COMDAT
; _this$ = ecx

; 830  : 		{	// construct default allocator (do nothing)

	push	ebp
	mov	ebp, esp
	push	ecx
	mov	DWORD PTR _this$[ebp], ecx
	mov	ecx, DWORD PTR _this$[ebp]
	call	??0?$allocator@D@std@@QAE@XZ		; std::allocator<char>::allocator<char>

; 831  : 		}

	mov	eax, DWORD PTR _this$[ebp]
	mov	esp, ebp
	pop	ebp
	ret	0
??0?$_Wrap_alloc@V?$allocator@D@std@@@std@@QAE@XZ ENDP	; std::_Wrap_alloc<std::allocator<char> >::_Wrap_alloc<std::allocator<char> >
_TEXT	ENDS
; Function compile flags: /Odtp
; File c:\program files (x86)\microsoft visual studio 11.0\vc\include\xmemory0
;	COMDAT ?max_size@?$allocator_traits@V?$allocator@D@std@@@std@@SAIABV?$allocator@D@2@@Z
_TEXT	SEGMENT
__Al$ = 8						; size = 4
?max_size@?$allocator_traits@V?$allocator@D@std@@@std@@SAIABV?$allocator@D@2@@Z PROC ; std::allocator_traits<std::allocator<char> >::max_size, COMDAT

; 761  : 		{	// get maximum size

	push	ebp
	mov	ebp, esp

; 762  : 		return (_Al.max_size());

	mov	ecx, DWORD PTR __Al$[ebp]
	call	?max_size@?$allocator@D@std@@QBEIXZ	; std::allocator<char>::max_size

; 763  : 		}

	pop	ebp
	ret	0
?max_size@?$allocator_traits@V?$allocator@D@std@@@std@@SAIABV?$allocator@D@2@@Z ENDP ; std::allocator_traits<std::allocator<char> >::max_size
_TEXT	ENDS
; Function compile flags: /Odtp
; File c:\program files (x86)\microsoft visual studio 11.0\vc\include\xmemory0
;	COMDAT ?max_size@?$allocator@D@std@@QBEIXZ
_TEXT	SEGMENT
_this$ = -4						; size = 4
?max_size@?$allocator@D@std@@QBEIXZ PROC		; std::allocator<char>::max_size, COMDAT
; _this$ = ecx

; 627  : 		{	// estimate maximum array size

	push	ebp
	mov	ebp, esp
	push	ecx
	mov	DWORD PTR _this$[ebp], ecx

; 628  : 		return ((size_t)(-1) / sizeof (_Ty));

	or	eax, -1

; 629  : 		}

	mov	esp, ebp
	pop	ebp
	ret	0
?max_size@?$allocator@D@std@@QBEIXZ ENDP		; std::allocator<char>::max_size
_TEXT	ENDS
; Function compile flags: /Odtp
; File c:\program files (x86)\microsoft visual studio 11.0\vc\include\xmemory0
;	COMDAT ?allocate@?$allocator@D@std@@QAEPADI@Z
_TEXT	SEGMENT
_this$ = -4						; size = 4
__Count$ = 8						; size = 4
?allocate@?$allocator@D@std@@QAEPADI@Z PROC		; std::allocator<char>::allocate, COMDAT
; _this$ = ecx

; 590  : 		{	// allocate array of _Count elements

	push	ebp
	mov	ebp, esp
	push	ecx
	mov	DWORD PTR _this$[ebp], ecx

; 591  : 		return (_Allocate(_Count, (pointer)0));

	push	0
	mov	eax, DWORD PTR __Count$[ebp]
	push	eax
	call	??$_Allocate@D@std@@YAPADIPAD@Z		; std::_Allocate<char>
	add	esp, 8

; 592  : 		}

	mov	esp, ebp
	pop	ebp
	ret	4
?allocate@?$allocator@D@std@@QAEPADI@Z ENDP		; std::allocator<char>::allocate
_TEXT	ENDS
; Function compile flags: /Odtp
; File c:\program files (x86)\microsoft visual studio 11.0\vc\include\xmemory0
;	COMDAT ?deallocate@?$allocator@D@std@@QAEXPADI@Z
_TEXT	SEGMENT
_this$ = -4						; size = 4
__Ptr$ = 8						; size = 4
___formal$ = 12						; size = 4
?deallocate@?$allocator@D@std@@QAEXPADI@Z PROC		; std::allocator<char>::deallocate, COMDAT
; _this$ = ecx

; 585  : 		{	// deallocate object at _Ptr, ignore size

	push	ebp
	mov	ebp, esp
	push	ecx
	mov	DWORD PTR _this$[ebp], ecx

; 586  : 		::operator delete(_Ptr);

	mov	eax, DWORD PTR __Ptr$[ebp]
	push	eax
	call	??3@YAXPAX@Z				; operator delete
	add	esp, 4

; 587  : 		}

	mov	esp, ebp
	pop	ebp
	ret	8
?deallocate@?$allocator@D@std@@QAEXPADI@Z ENDP		; std::allocator<char>::deallocate
_TEXT	ENDS
; Function compile flags: /Odtp
; File c:\program files (x86)\microsoft visual studio 11.0\vc\include\xmemory0
;	COMDAT ??0?$allocator@D@std@@QAE@XZ
_TEXT	SEGMENT
_this$ = -4						; size = 4
??0?$allocator@D@std@@QAE@XZ PROC			; std::allocator<char>::allocator<char>, COMDAT
; _this$ = ecx

; 565  : 	allocator() _THROW0()

	push	ebp
	mov	ebp, esp
	push	ecx
	mov	DWORD PTR _this$[ebp], ecx

; 566  : 		{	// construct default allocator (do nothing)
; 567  : 		}

	mov	eax, DWORD PTR _this$[ebp]
	mov	esp, ebp
	pop	ebp
	ret	0
??0?$allocator@D@std@@QAE@XZ ENDP			; std::allocator<char>::allocator<char>
_TEXT	ENDS
; Function compile flags: /Odtp
; File c:\program files (x86)\microsoft visual studio 11.0\vc\include\xutility
;	COMDAT ??__Eallocator_arg@std@@YAXXZ
text$yc	SEGMENT
$T1 = -1						; size = 1
??__Eallocator_arg@std@@YAXXZ PROC			; std::`dynamic initializer for 'allocator_arg'', COMDAT

; 3644 : const allocator_arg_t allocator_arg = allocator_arg_t();

	push	ebp
	mov	ebp, esp
	push	ecx
	xor	eax, eax
	mov	BYTE PTR $T1[ebp], al
	mov	esp, ebp
	pop	ebp
	ret	0
??__Eallocator_arg@std@@YAXXZ ENDP			; std::`dynamic initializer for 'allocator_arg''
text$yc	ENDS
; Function compile flags: /Odtp
; File c:\program files (x86)\microsoft visual studio 11.0\vc\include\utility
;	COMDAT ??__Epiecewise_construct@std@@YAXXZ
text$yc	SEGMENT
$T1 = -1						; size = 1
??__Epiecewise_construct@std@@YAXXZ PROC		; std::`dynamic initializer for 'piecewise_construct'', COMDAT

; 65   : 	piecewise_construct_t();

	push	ebp
	mov	ebp, esp
	push	ecx
	xor	eax, eax
	mov	BYTE PTR $T1[ebp], al
	mov	esp, ebp
	pop	ebp
	ret	0
??__Epiecewise_construct@std@@YAXXZ ENDP		; std::`dynamic initializer for 'piecewise_construct''
text$yc	ENDS
; Function compile flags: /Odtp
; File c:\program files (x86)\microsoft visual studio 11.0\vc\include\iosfwd
;	COMDAT ?assign@?$char_traits@D@std@@SAXAADABD@Z
_TEXT	SEGMENT
__Left$ = 8						; size = 4
__Right$ = 12						; size = 4
?assign@?$char_traits@D@std@@SAXAADABD@Z PROC		; std::char_traits<char>::assign, COMDAT

; 563  : 		{	// assign an element

	push	ebp
	mov	ebp, esp

; 564  : 		_Left = _Right;

	mov	eax, DWORD PTR __Left$[ebp]
	mov	ecx, DWORD PTR __Right$[ebp]
	mov	dl, BYTE PTR [ecx]
	mov	BYTE PTR [eax], dl

; 565  : 		}

	pop	ebp
	ret	0
?assign@?$char_traits@D@std@@SAXAADABD@Z ENDP		; std::char_traits<char>::assign
_TEXT	ENDS
; Function compile flags: /Odtp
; File c:\program files (x86)\microsoft visual studio 11.0\vc\include\iosfwd
;	COMDAT ?move@?$char_traits@D@std@@SAPADPADPBDI@Z
_TEXT	SEGMENT
tv69 = -4						; size = 4
__First1$ = 8						; size = 4
__First2$ = 12						; size = 4
__Count$ = 16						; size = 4
?move@?$char_traits@D@std@@SAPADPADPBDI@Z PROC		; std::char_traits<char>::move, COMDAT

; 551  : 		{	// copy [_First2, _First2 + _Count) to [_First1, ...)

	push	ebp
	mov	ebp, esp
	push	ecx

; 552  : 		return (_Count == 0 ? _First1
; 553  : 			: (_Elem *)_CSTD memmove(_First1, _First2, _Count));

	cmp	DWORD PTR __Count$[ebp], 0
	jne	SHORT $LN3@move
	mov	eax, DWORD PTR __First1$[ebp]
	mov	DWORD PTR tv69[ebp], eax
	jmp	SHORT $LN4@move
$LN3@move:
	mov	ecx, DWORD PTR __Count$[ebp]
	push	ecx
	mov	edx, DWORD PTR __First2$[ebp]
	push	edx
	mov	eax, DWORD PTR __First1$[ebp]
	push	eax
	call	_memmove
	add	esp, 12					; 0000000cH
	mov	DWORD PTR tv69[ebp], eax
$LN4@move:
	mov	eax, DWORD PTR tv69[ebp]

; 554  : 		}

	mov	esp, ebp
	pop	ebp
	ret	0
?move@?$char_traits@D@std@@SAPADPADPBDI@Z ENDP		; std::char_traits<char>::move
_TEXT	ENDS
; Function compile flags: /Odtp
; File c:\program files (x86)\microsoft visual studio 11.0\vc\include\iosfwd
;	COMDAT ?copy@?$char_traits@D@std@@SAPADPADPBDI@Z
_TEXT	SEGMENT
tv69 = -4						; size = 4
__First1$ = 8						; size = 4
__First2$ = 12						; size = 4
__Count$ = 16						; size = 4
?copy@?$char_traits@D@std@@SAPADPADPBDI@Z PROC		; std::char_traits<char>::copy, COMDAT

; 528  : 		{	// copy [_First2, _First2 + _Count) to [_First1, ...)

	push	ebp
	mov	ebp, esp
	push	ecx

; 529  : 		return (_Count == 0 ? _First1
; 530  : 			: (_Elem *)_CSTD memcpy(_First1, _First2, _Count));

	cmp	DWORD PTR __Count$[ebp], 0
	jne	SHORT $LN3@copy
	mov	eax, DWORD PTR __First1$[ebp]
	mov	DWORD PTR tv69[ebp], eax
	jmp	SHORT $LN4@copy
$LN3@copy:
	mov	ecx, DWORD PTR __Count$[ebp]
	push	ecx
	mov	edx, DWORD PTR __First2$[ebp]
	push	edx
	mov	eax, DWORD PTR __First1$[ebp]
	push	eax
	call	_memcpy
	add	esp, 12					; 0000000cH
	mov	DWORD PTR tv69[ebp], eax
$LN4@copy:
	mov	eax, DWORD PTR tv69[ebp]

; 531  : 		}

	mov	esp, ebp
	pop	ebp
	ret	0
?copy@?$char_traits@D@std@@SAPADPADPBDI@Z ENDP		; std::char_traits<char>::copy
_TEXT	ENDS
; Function compile flags: /Odtp
; File c:\program files (x86)\microsoft visual studio 11.0\vc\include\iosfwd
;	COMDAT ?length@?$char_traits@D@std@@SAIPBD@Z
_TEXT	SEGMENT
tv68 = -4						; size = 4
__First$ = 8						; size = 4
?length@?$char_traits@D@std@@SAIPBD@Z PROC		; std::char_traits<char>::length, COMDAT

; 521  : 		{	// find length of null-terminated string

	push	ebp
	mov	ebp, esp
	push	ecx

; 522  : 		return (*_First == 0 ? 0
; 523  : 			: _CSTD strlen(_First));

	mov	eax, DWORD PTR __First$[ebp]
	movsx	ecx, BYTE PTR [eax]
	test	ecx, ecx
	jne	SHORT $LN3@length
	mov	DWORD PTR tv68[ebp], 0
	jmp	SHORT $LN4@length
$LN3@length:
	mov	edx, DWORD PTR __First$[ebp]
	push	edx
	call	_strlen
	add	esp, 4
	mov	DWORD PTR tv68[ebp], eax
$LN4@length:
	mov	eax, DWORD PTR tv68[ebp]

; 524  : 		}

	mov	esp, ebp
	pop	ebp
	ret	0
?length@?$char_traits@D@std@@SAIPBD@Z ENDP		; std::char_traits<char>::length
_TEXT	ENDS
; Function compile flags: /Odtp
; File c:\program files (x86)\microsoft visual studio 11.0\vc\include\new
;	COMDAT ??3@YAXPAX0@Z
_TEXT	SEGMENT
___formal$ = 8						; size = 4
___formal$ = 12						; size = 4
??3@YAXPAX0@Z PROC					; operator delete, COMDAT

; 64   : 	{	// delete if placement new fails

	push	ebp
	mov	ebp, esp

; 65   : 	}

	pop	ebp
	ret	0
??3@YAXPAX0@Z ENDP					; operator delete
_TEXT	ENDS
; Function compile flags: /Odtp
; File c:\program files (x86)\microsoft visual studio 11.0\vc\include\new
;	COMDAT ??2@YAPAXIPAX@Z
_TEXT	SEGMENT
___formal$ = 8						; size = 4
__Where$ = 12						; size = 4
??2@YAPAXIPAX@Z PROC					; operator new, COMDAT

; 59   : 	{	// construct array with placement at _Where

	push	ebp
	mov	ebp, esp

; 60   : 	return (_Where);

	mov	eax, DWORD PTR __Where$[ebp]

; 61   : 	}

	pop	ebp
	ret	0
??2@YAPAXIPAX@Z ENDP					; operator new
_TEXT	ENDS
; Function compile flags: /Odtp
; File c:\users\zhitao li\documents\visual studio 2012\projects\freefalcon\vu2\include\vuentity.h
;	COMDAT ?Roll@VuEntity@@QBEMXZ
_TEXT	SEGMENT
_this$ = -4						; size = 4
?Roll@VuEntity@@QBEMXZ PROC				; VuEntity::Roll, COMDAT
; _this$ = ecx

; 166  : 	SM_SCALAR Roll() const { return orient_.roll_; }

	push	ebp
	mov	ebp, esp
	push	ecx
	mov	DWORD PTR _this$[ebp], ecx
	mov	eax, DWORD PTR _this$[ebp]
	fld	DWORD PTR [eax+68]
	mov	esp, ebp
	pop	ebp
	ret	0
?Roll@VuEntity@@QBEMXZ ENDP				; VuEntity::Roll
_TEXT	ENDS
; Function compile flags: /Odtp
; File c:\users\zhitao li\documents\visual studio 2012\projects\freefalcon\vu2\include\vuentity.h
;	COMDAT ?Pitch@VuEntity@@QBEMXZ
_TEXT	SEGMENT
_this$ = -4						; size = 4
?Pitch@VuEntity@@QBEMXZ PROC				; VuEntity::Pitch, COMDAT
; _this$ = ecx

; 165  : 	SM_SCALAR Pitch() const { return orient_.pitch_; }

	push	ebp
	mov	ebp, esp
	push	ecx
	mov	DWORD PTR _this$[ebp], ecx
	mov	eax, DWORD PTR _this$[ebp]
	fld	DWORD PTR [eax+64]
	mov	esp, ebp
	pop	ebp
	ret	0
?Pitch@VuEntity@@QBEMXZ ENDP				; VuEntity::Pitch
_TEXT	ENDS
; Function compile flags: /Odtp
; File c:\users\zhitao li\documents\visual studio 2012\projects\freefalcon\vu2\include\vuentity.h
;	COMDAT ?Yaw@VuEntity@@QBEMXZ
_TEXT	SEGMENT
_this$ = -4						; size = 4
?Yaw@VuEntity@@QBEMXZ PROC				; VuEntity::Yaw, COMDAT
; _this$ = ecx

; 164  : 	SM_SCALAR Yaw() const { return orient_.yaw_; }

	push	ebp
	mov	ebp, esp
	push	ecx
	mov	DWORD PTR _this$[ebp], ecx
	mov	eax, DWORD PTR _this$[ebp]
	fld	DWORD PTR [eax+60]
	mov	esp, ebp
	pop	ebp
	ret	0
?Yaw@VuEntity@@QBEMXZ ENDP				; VuEntity::Yaw
_TEXT	ENDS
; Function compile flags: /Odtp
; File c:\users\zhitao li\documents\visual studio 2012\projects\freefalcon\vu2\include\vuentity.h
;	COMDAT ?ZDelta@VuEntity@@QBEMXZ
_TEXT	SEGMENT
_this$ = -4						; size = 4
?ZDelta@VuEntity@@QBEMXZ PROC				; VuEntity::ZDelta, COMDAT
; _this$ = ecx

; 163  : 	SM_SCALAR ZDelta() const { return pos_.dz_; }

	push	ebp
	mov	ebp, esp
	push	ecx
	mov	DWORD PTR _this$[ebp], ecx
	mov	eax, DWORD PTR _this$[ebp]
	fld	DWORD PTR [eax+56]
	mov	esp, ebp
	pop	ebp
	ret	0
?ZDelta@VuEntity@@QBEMXZ ENDP				; VuEntity::ZDelta
_TEXT	ENDS
; Function compile flags: /Odtp
; File c:\users\zhitao li\documents\visual studio 2012\projects\freefalcon\vu2\include\vuentity.h
;	COMDAT ?YDelta@VuEntity@@QBEMXZ
_TEXT	SEGMENT
_this$ = -4						; size = 4
?YDelta@VuEntity@@QBEMXZ PROC				; VuEntity::YDelta, COMDAT
; _this$ = ecx

; 162  : 	SM_SCALAR YDelta() const { return pos_.dy_; }

	push	ebp
	mov	ebp, esp
	push	ecx
	mov	DWORD PTR _this$[ebp], ecx
	mov	eax, DWORD PTR _this$[ebp]
	fld	DWORD PTR [eax+52]
	mov	esp, ebp
	pop	ebp
	ret	0
?YDelta@VuEntity@@QBEMXZ ENDP				; VuEntity::YDelta
_TEXT	ENDS
; Function compile flags: /Odtp
; File c:\users\zhitao li\documents\visual studio 2012\projects\freefalcon\vu2\include\vuentity.h
;	COMDAT ?XDelta@VuEntity@@QBEMXZ
_TEXT	SEGMENT
_this$ = -4						; size = 4
?XDelta@VuEntity@@QBEMXZ PROC				; VuEntity::XDelta, COMDAT
; _this$ = ecx

; 161  : 	SM_SCALAR XDelta() const { return pos_.dx_; }

	push	ebp
	mov	ebp, esp
	push	ecx
	mov	DWORD PTR _this$[ebp], ecx
	mov	eax, DWORD PTR _this$[ebp]
	fld	DWORD PTR [eax+48]
	mov	esp, ebp
	pop	ebp
	ret	0
?XDelta@VuEntity@@QBEMXZ ENDP				; VuEntity::XDelta
_TEXT	ENDS
; Function compile flags: /Odtp
; File c:\users\zhitao li\documents\visual studio 2012\projects\freefalcon\vu2\include\vuentity.h
;	COMDAT ?ZPos@VuEntity@@QBEMXZ
_TEXT	SEGMENT
_this$ = -4						; size = 4
?ZPos@VuEntity@@QBEMXZ PROC				; VuEntity::ZPos, COMDAT
; _this$ = ecx

; 160  : 	BIG_SCALAR ZPos()	const { return pos_.z_; }

	push	ebp
	mov	ebp, esp
	push	ecx
	mov	DWORD PTR _this$[ebp], ecx
	mov	eax, DWORD PTR _this$[ebp]
	fld	DWORD PTR [eax+44]
	mov	esp, ebp
	pop	ebp
	ret	0
?ZPos@VuEntity@@QBEMXZ ENDP				; VuEntity::ZPos
_TEXT	ENDS
; Function compile flags: /Odtp
; File c:\users\zhitao li\documents\visual studio 2012\projects\freefalcon\vu2\include\vuentity.h
;	COMDAT ?YPos@VuEntity@@QBEMXZ
_TEXT	SEGMENT
_this$ = -4						; size = 4
?YPos@VuEntity@@QBEMXZ PROC				; VuEntity::YPos, COMDAT
; _this$ = ecx

; 159  : 	BIG_SCALAR YPos()	const { return pos_.y_; }

	push	ebp
	mov	ebp, esp
	push	ecx
	mov	DWORD PTR _this$[ebp], ecx
	mov	eax, DWORD PTR _this$[ebp]
	fld	DWORD PTR [eax+40]
	mov	esp, ebp
	pop	ebp
	ret	0
?YPos@VuEntity@@QBEMXZ ENDP				; VuEntity::YPos
_TEXT	ENDS
; Function compile flags: /Odtp
; File c:\users\zhitao li\documents\visual studio 2012\projects\freefalcon\vu2\include\vuentity.h
;	COMDAT ?XPos@VuEntity@@QBEMXZ
_TEXT	SEGMENT
_this$ = -4						; size = 4
?XPos@VuEntity@@QBEMXZ PROC				; VuEntity::XPos, COMDAT
; _this$ = ecx

; 158  : 	BIG_SCALAR XPos() const { return pos_.x_; }

	push	ebp
	mov	ebp, esp
	push	ecx
	mov	DWORD PTR _this$[ebp], ecx
	mov	eax, DWORD PTR _this$[ebp]
	fld	DWORD PTR [eax+36]
	mov	esp, ebp
	pop	ebp
	ret	0
?XPos@VuEntity@@QBEMXZ ENDP				; VuEntity::XPos
_TEXT	ENDS
; Function compile flags: /Odtp
; File c:\users\zhitao li\documents\visual studio 2012\projects\freefalcon\mathlib\math.h
_TEXT	SEGMENT
_x$ = 8							; size = 4
?FloatToInt32@@YAHM@Z PROC				; FloatToInt32

; 179  : {

	push	ebp
	mov	ebp, esp

; 180  : #if WIN32
; 181  :   __asm {
; 182  :     fld dword ptr [x];

	fld	DWORD PTR _x$[ebp]

; 183  :     fistp dword ptr [x];

	fistp	DWORD PTR _x$[ebp]

; 184  :     mov eax,dword ptr [x];

	mov	eax, DWORD PTR _x$[ebp]

; 185  :   }
; 186  : #else 
; 187  : 	return static_cast<int>(x);	
; 188  : #endif
; 189  : }

	pop	ebp
	ret	0
?FloatToInt32@@YAHM@Z ENDP				; FloatToInt32
_TEXT	ENDS
; Function compile flags: /Odtp
; File c:\program files (x86)\microsoft visual studio 11.0\vc\include\math.h
;	COMDAT ?tan@@YAMM@Z
_TEXT	SEGMENT
__X$ = 8						; size = 4
?tan@@YAMM@Z PROC					; tan, COMDAT

; 543  :         {return (tanf(_X)); }

	push	ebp
	mov	ebp, esp
	push	ecx
	movss	xmm0, DWORD PTR __X$[ebp]
	movss	DWORD PTR [esp], xmm0
	call	_tanf
	add	esp, 4
	pop	ebp
	ret	0
?tan@@YAMM@Z ENDP					; tan
_TEXT	ENDS
; Function compile flags: /Odtp
; File c:\program files (x86)\microsoft visual studio 11.0\vc\include\math.h
;	COMDAT ?sin@@YAMM@Z
_TEXT	SEGMENT
__X$ = 8						; size = 4
?sin@@YAMM@Z PROC					; sin, COMDAT

; 537  :         {return (sinf(_X)); }

	push	ebp
	mov	ebp, esp
	push	ecx
	movss	xmm0, DWORD PTR __X$[ebp]
	movss	DWORD PTR [esp], xmm0
	call	_sinf
	add	esp, 4
	pop	ebp
	ret	0
?sin@@YAMM@Z ENDP					; sin
_TEXT	ENDS
; Function compile flags: /Odtp
; File c:\program files (x86)\microsoft visual studio 11.0\vc\include\math.h
;	COMDAT ?fabs@@YAMM@Z
_TEXT	SEGMENT
__X$ = 8						; size = 4
?fabs@@YAMM@Z PROC					; fabs, COMDAT

; 517  :         {return (fabsf(_X)); }

	push	ebp
	mov	ebp, esp
	push	ecx
	movss	xmm0, DWORD PTR __X$[ebp]
	movss	DWORD PTR [esp], xmm0
	call	_fabsf
	add	esp, 4
	pop	ebp
	ret	0
?fabs@@YAMM@Z ENDP					; fabs
_TEXT	ENDS
; Function compile flags: /Odtp
; File c:\program files (x86)\microsoft visual studio 11.0\vc\include\math.h
;	COMDAT _tanf
_TEXT	SEGMENT
tv74 = -12						; size = 8
tv76 = -4						; size = 4
__X$ = 8						; size = 4
_tanf	PROC						; COMDAT

; 436  :         {return ((float)tan((double)_X)); }

	push	ebp
	mov	ebp, esp
	sub	esp, 12					; 0000000cH
	cvtss2sd xmm0, DWORD PTR __X$[ebp]
	sub	esp, 8
	movsd	QWORD PTR [esp], xmm0
	call	_tan
	add	esp, 8
	fstp	QWORD PTR tv74[ebp]
	movsd	xmm0, QWORD PTR tv74[ebp]
	cvtsd2ss xmm0, xmm0
	movss	DWORD PTR tv76[ebp], xmm0
	fld	DWORD PTR tv76[ebp]
	mov	esp, ebp
	pop	ebp
	ret	0
_tanf	ENDP
_TEXT	ENDS
; Function compile flags: /Odtp
; File c:\program files (x86)\microsoft visual studio 11.0\vc\include\math.h
;	COMDAT _sinf
_TEXT	SEGMENT
tv74 = -12						; size = 8
tv76 = -4						; size = 4
__X$ = 8						; size = 4
_sinf	PROC						; COMDAT

; 430  :         {return ((float)sin((double)_X)); }

	push	ebp
	mov	ebp, esp
	sub	esp, 12					; 0000000cH
	cvtss2sd xmm0, DWORD PTR __X$[ebp]
	sub	esp, 8
	movsd	QWORD PTR [esp], xmm0
	call	_sin
	add	esp, 8
	fstp	QWORD PTR tv74[ebp]
	movsd	xmm0, QWORD PTR tv74[ebp]
	cvtsd2ss xmm0, xmm0
	movss	DWORD PTR tv76[ebp], xmm0
	fld	DWORD PTR tv76[ebp]
	mov	esp, ebp
	pop	ebp
	ret	0
_sinf	ENDP
_TEXT	ENDS
; Function compile flags: /Odtp
; File c:\program files (x86)\microsoft visual studio 11.0\vc\include\math.h
;	COMDAT _fabsf
_TEXT	SEGMENT
tv74 = -12						; size = 8
tv76 = -4						; size = 4
__X$ = 8						; size = 4
_fabsf	PROC						; COMDAT

; 392  :         {return ((float)fabs((double)_X)); }

	push	ebp
	mov	ebp, esp
	sub	esp, 12					; 0000000cH
	cvtss2sd xmm0, DWORD PTR __X$[ebp]
	sub	esp, 8
	movsd	QWORD PTR [esp], xmm0
	call	_fabs
	add	esp, 8
	fstp	QWORD PTR tv74[ebp]
	movsd	xmm0, QWORD PTR tv74[ebp]
	cvtsd2ss xmm0, xmm0
	movss	DWORD PTR tv76[ebp], xmm0
	fld	DWORD PTR tv76[ebp]
	mov	esp, ebp
	pop	ebp
	ret	0
_fabsf	ENDP
_TEXT	ENDS
END
