; Listing generated by Microsoft (R) Optimizing Compiler Version 17.00.51106.1 

	TITLE	C:\Users\Zhitao Li\Documents\Visual Studio 2012\Projects\Freefalcon\SIM\OTWDRIVE\otwloop.cpp
	.686P
	.XMM
	include listing.inc
	.model	flat

INCLUDELIB LIBCMT
INCLUDELIB OLDNAMES

PUBLIC	?traps@_Num_base@std@@2_NB			; std::_Num_base::traps
PUBLIC	?round_style@_Num_base@std@@2W4float_round_style@2@B ; std::_Num_base::round_style
PUBLIC	?digits@_Num_base@std@@2HB			; std::_Num_base::digits
PUBLIC	?digits10@_Num_base@std@@2HB			; std::_Num_base::digits10
PUBLIC	?max_digits10@_Num_base@std@@2HB		; std::_Num_base::max_digits10
PUBLIC	?max_exponent@_Num_base@std@@2HB		; std::_Num_base::max_exponent
PUBLIC	?max_exponent10@_Num_base@std@@2HB		; std::_Num_base::max_exponent10
PUBLIC	?min_exponent@_Num_base@std@@2HB		; std::_Num_base::min_exponent
PUBLIC	?min_exponent10@_Num_base@std@@2HB		; std::_Num_base::min_exponent10
PUBLIC	?radix@_Num_base@std@@2HB			; std::_Num_base::radix
PUBLIC	?is_bounded@_Num_int_base@std@@2_NB		; std::_Num_int_base::is_bounded
PUBLIC	?is_exact@_Num_int_base@std@@2_NB		; std::_Num_int_base::is_exact
PUBLIC	?is_integer@_Num_int_base@std@@2_NB		; std::_Num_int_base::is_integer
PUBLIC	?is_modulo@_Num_int_base@std@@2_NB		; std::_Num_int_base::is_modulo
PUBLIC	?is_specialized@_Num_int_base@std@@2_NB		; std::_Num_int_base::is_specialized
PUBLIC	?radix@_Num_int_base@std@@2HB			; std::_Num_int_base::radix
PUBLIC	?has_denorm@_Num_float_base@std@@2W4float_denorm_style@2@B ; std::_Num_float_base::has_denorm
PUBLIC	?has_denorm_loss@_Num_float_base@std@@2_NB	; std::_Num_float_base::has_denorm_loss
PUBLIC	?SIMDIRTYDATA_INTERVAL@FalconEntity@@2KB	; FalconEntity::SIMDIRTYDATA_INTERVAL
PUBLIC	?CMPDIRTYDATA_INTERVAL@FalconEntity@@2KB	; FalconEntity::CMPDIRTYDATA_INTERVAL
PUBLIC	?has_infinity@_Num_float_base@std@@2_NB		; std::_Num_float_base::has_infinity
PUBLIC	?has_quiet_NaN@_Num_float_base@std@@2_NB	; std::_Num_float_base::has_quiet_NaN
PUBLIC	?has_signaling_NaN@_Num_float_base@std@@2_NB	; std::_Num_float_base::has_signaling_NaN
PUBLIC	?is_bounded@_Num_float_base@std@@2_NB		; std::_Num_float_base::is_bounded
PUBLIC	?is_exact@_Num_float_base@std@@2_NB		; std::_Num_float_base::is_exact
PUBLIC	?is_iec559@_Num_float_base@std@@2_NB		; std::_Num_float_base::is_iec559
PUBLIC	?is_integer@_Num_float_base@std@@2_NB		; std::_Num_float_base::is_integer
PUBLIC	?is_modulo@_Num_float_base@std@@2_NB		; std::_Num_float_base::is_modulo
PUBLIC	?is_signed@_Num_float_base@std@@2_NB		; std::_Num_float_base::is_signed
PUBLIC	?is_specialized@_Num_float_base@std@@2_NB	; std::_Num_float_base::is_specialized
PUBLIC	?tinyness_before@_Num_float_base@std@@2_NB	; std::_Num_float_base::tinyness_before
PUBLIC	?traps@_Num_float_base@std@@2_NB		; std::_Num_float_base::traps
PUBLIC	?skipws@?$_Iosb@H@std@@2W4_Fmtflags@12@B	; std::_Iosb<int>::skipws
PUBLIC	?round_style@_Num_float_base@std@@2W4float_round_style@2@B ; std::_Num_float_base::round_style
PUBLIC	?unitbuf@?$_Iosb@H@std@@2W4_Fmtflags@12@B	; std::_Iosb<int>::unitbuf
PUBLIC	?radix@_Num_float_base@std@@2HB			; std::_Num_float_base::radix
PUBLIC	?uppercase@?$_Iosb@H@std@@2W4_Fmtflags@12@B	; std::_Iosb<int>::uppercase
PUBLIC	?showbase@?$_Iosb@H@std@@2W4_Fmtflags@12@B	; std::_Iosb<int>::showbase
PUBLIC	?showpoint@?$_Iosb@H@std@@2W4_Fmtflags@12@B	; std::_Iosb<int>::showpoint
PUBLIC	?showpos@?$_Iosb@H@std@@2W4_Fmtflags@12@B	; std::_Iosb<int>::showpos
PUBLIC	?left@?$_Iosb@H@std@@2W4_Fmtflags@12@B		; std::_Iosb<int>::left
PUBLIC	?right@?$_Iosb@H@std@@2W4_Fmtflags@12@B		; std::_Iosb<int>::right
PUBLIC	?internal@?$_Iosb@H@std@@2W4_Fmtflags@12@B	; std::_Iosb<int>::internal
PUBLIC	?is_signed@?$numeric_limits@D@std@@2_NB		; std::numeric_limits<char>::is_signed
PUBLIC	?dec@?$_Iosb@H@std@@2W4_Fmtflags@12@B		; std::_Iosb<int>::dec
PUBLIC	?digits@?$numeric_limits@D@std@@2HB		; std::numeric_limits<char>::digits
PUBLIC	?oct@?$_Iosb@H@std@@2W4_Fmtflags@12@B		; std::_Iosb<int>::oct
PUBLIC	?digits10@?$numeric_limits@D@std@@2HB		; std::numeric_limits<char>::digits10
PUBLIC	?hex@?$_Iosb@H@std@@2W4_Fmtflags@12@B		; std::_Iosb<int>::hex
PUBLIC	?scientific@?$_Iosb@H@std@@2W4_Fmtflags@12@B	; std::_Iosb<int>::scientific
PUBLIC	?fixed@?$_Iosb@H@std@@2W4_Fmtflags@12@B		; std::_Iosb<int>::fixed
PUBLIC	?hexfloat@?$_Iosb@H@std@@2W4_Fmtflags@12@B	; std::_Iosb<int>::hexfloat
PUBLIC	?boolalpha@?$_Iosb@H@std@@2W4_Fmtflags@12@B	; std::_Iosb<int>::boolalpha
PUBLIC	?_Stdio@?$_Iosb@H@std@@2W4_Fmtflags@12@B	; std::_Iosb<int>::_Stdio
PUBLIC	?adjustfield@?$_Iosb@H@std@@2W4_Fmtflags@12@B	; std::_Iosb<int>::adjustfield
PUBLIC	?basefield@?$_Iosb@H@std@@2W4_Fmtflags@12@B	; std::_Iosb<int>::basefield
PUBLIC	?floatfield@?$_Iosb@H@std@@2W4_Fmtflags@12@B	; std::_Iosb<int>::floatfield
PUBLIC	?goodbit@?$_Iosb@H@std@@2W4_Iostate@12@B	; std::_Iosb<int>::goodbit
PUBLIC	?is_signed@?$numeric_limits@_W@std@@2_NB	; std::numeric_limits<wchar_t>::is_signed
PUBLIC	?eofbit@?$_Iosb@H@std@@2W4_Iostate@12@B		; std::_Iosb<int>::eofbit
PUBLIC	?digits@?$numeric_limits@_W@std@@2HB		; std::numeric_limits<wchar_t>::digits
PUBLIC	?failbit@?$_Iosb@H@std@@2W4_Iostate@12@B	; std::_Iosb<int>::failbit
PUBLIC	?digits10@?$numeric_limits@_W@std@@2HB		; std::numeric_limits<wchar_t>::digits10
PUBLIC	?badbit@?$_Iosb@H@std@@2W4_Iostate@12@B		; std::_Iosb<int>::badbit
PUBLIC	?_Hardfail@?$_Iosb@H@std@@2W4_Iostate@12@B	; std::_Iosb<int>::_Hardfail
PUBLIC	?in@?$_Iosb@H@std@@2W4_Openmode@12@B		; std::_Iosb<int>::in
PUBLIC	?out@?$_Iosb@H@std@@2W4_Openmode@12@B		; std::_Iosb<int>::out
PUBLIC	?ate@?$_Iosb@H@std@@2W4_Openmode@12@B		; std::_Iosb<int>::ate
PUBLIC	?app@?$_Iosb@H@std@@2W4_Openmode@12@B		; std::_Iosb<int>::app
PUBLIC	?trunc@?$_Iosb@H@std@@2W4_Openmode@12@B		; std::_Iosb<int>::trunc
PUBLIC	?_Nocreate@?$_Iosb@H@std@@2W4_Openmode@12@B	; std::_Iosb<int>::_Nocreate
PUBLIC	?_Noreplace@?$_Iosb@H@std@@2W4_Openmode@12@B	; std::_Iosb<int>::_Noreplace
PUBLIC	?binary@?$_Iosb@H@std@@2W4_Openmode@12@B	; std::_Iosb<int>::binary
PUBLIC	?is_modulo@?$numeric_limits@_N@std@@2_NB	; std::numeric_limits<bool>::is_modulo
PUBLIC	?is_signed@?$numeric_limits@_N@std@@2_NB	; std::numeric_limits<bool>::is_signed
PUBLIC	?beg@?$_Iosb@H@std@@2W4_Seekdir@12@B		; std::_Iosb<int>::beg
PUBLIC	?digits@?$numeric_limits@_N@std@@2HB		; std::numeric_limits<bool>::digits
PUBLIC	?cur@?$_Iosb@H@std@@2W4_Seekdir@12@B		; std::_Iosb<int>::cur
PUBLIC	?digits10@?$numeric_limits@_N@std@@2HB		; std::numeric_limits<bool>::digits10
PUBLIC	?end@?$_Iosb@H@std@@2W4_Seekdir@12@B		; std::_Iosb<int>::end
PUBLIC	?ObserverPosition@@3UTpoint@@A			; ObserverPosition
PUBLIC	?ObserverYaw@@3MA				; ObserverYaw
PUBLIC	?ObserverPitch@@3MA				; ObserverPitch
PUBLIC	?ObserverRoll@@3MA				; ObserverRoll
PUBLIC	?_Stream_err@failure@ios_base@std@@0W4io_errc@43@B ; std::ios_base::failure::_Stream_err
PUBLIC	?is_signed@?$numeric_limits@C@std@@2_NB		; std::numeric_limits<signed char>::is_signed
PUBLIC	?digits@?$numeric_limits@C@std@@2HB		; std::numeric_limits<signed char>::digits
PUBLIC	?digits10@?$numeric_limits@C@std@@2HB		; std::numeric_limits<signed char>::digits10
PUBLIC	?is_signed@?$numeric_limits@E@std@@2_NB		; std::numeric_limits<unsigned char>::is_signed
PUBLIC	?value@?$integral_constant@_N$0A@@std@@2_NB	; std::integral_constant<bool,0>::value
PUBLIC	?digits@?$numeric_limits@E@std@@2HB		; std::numeric_limits<unsigned char>::digits
PUBLIC	?digits10@?$numeric_limits@E@std@@2HB		; std::numeric_limits<unsigned char>::digits10
PUBLIC	?value@?$integral_constant@_N$00@std@@2_NB	; std::integral_constant<bool,1>::value
PUBLIC	?is_signed@?$numeric_limits@F@std@@2_NB		; std::numeric_limits<short>::is_signed
PUBLIC	?digits@?$numeric_limits@F@std@@2HB		; std::numeric_limits<short>::digits
PUBLIC	?digits10@?$numeric_limits@F@std@@2HB		; std::numeric_limits<short>::digits10
PUBLIC	?is_signed@?$numeric_limits@G@std@@2_NB		; std::numeric_limits<unsigned short>::is_signed
PUBLIC	?digits@?$numeric_limits@G@std@@2HB		; std::numeric_limits<unsigned short>::digits
PUBLIC	?digits10@?$numeric_limits@G@std@@2HB		; std::numeric_limits<unsigned short>::digits10
PUBLIC	?is_signed@?$numeric_limits@H@std@@2_NB		; std::numeric_limits<int>::is_signed
PUBLIC	?value@?$_Sizeof@HU_Nil@std@@U12@U12@U12@U12@U12@U12@@std@@2IB ; std::_Sizeof<int,std::_Nil,std::_Nil,std::_Nil,std::_Nil,std::_Nil,std::_Nil,std::_Nil>::value
PUBLIC	?digits@?$numeric_limits@H@std@@2HB		; std::numeric_limits<int>::digits
PUBLIC	?digits10@?$numeric_limits@H@std@@2HB		; std::numeric_limits<int>::digits10
PUBLIC	?is_signed@?$numeric_limits@I@std@@2_NB		; std::numeric_limits<unsigned int>::is_signed
PUBLIC	?digits@?$numeric_limits@I@std@@2HB		; std::numeric_limits<unsigned int>::digits
PUBLIC	?digits10@?$numeric_limits@I@std@@2HB		; std::numeric_limits<unsigned int>::digits10
PUBLIC	?is_signed@?$numeric_limits@J@std@@2_NB		; std::numeric_limits<long>::is_signed
PUBLIC	?digits@?$numeric_limits@J@std@@2HB		; std::numeric_limits<long>::digits
PUBLIC	?digits10@?$numeric_limits@J@std@@2HB		; std::numeric_limits<long>::digits10
PUBLIC	?is_signed@?$numeric_limits@K@std@@2_NB		; std::numeric_limits<unsigned long>::is_signed
PUBLIC	?digits@?$numeric_limits@K@std@@2HB		; std::numeric_limits<unsigned long>::digits
PUBLIC	?digits10@?$numeric_limits@K@std@@2HB		; std::numeric_limits<unsigned long>::digits10
PUBLIC	?collate@?$_Locbase@H@std@@2HB			; std::_Locbase<int>::collate
PUBLIC	?ctype@?$_Locbase@H@std@@2HB			; std::_Locbase<int>::ctype
PUBLIC	?monetary@?$_Locbase@H@std@@2HB			; std::_Locbase<int>::monetary
PUBLIC	?numeric@?$_Locbase@H@std@@2HB			; std::_Locbase<int>::numeric
PUBLIC	?time@?$_Locbase@H@std@@2HB			; std::_Locbase<int>::time
PUBLIC	?messages@?$_Locbase@H@std@@2HB			; std::_Locbase<int>::messages
PUBLIC	?is_signed@?$numeric_limits@_J@std@@2_NB	; std::numeric_limits<__int64>::is_signed
PUBLIC	?all@?$_Locbase@H@std@@2HB			; std::_Locbase<int>::all
PUBLIC	?none@?$_Locbase@H@std@@2HB			; std::_Locbase<int>::none
PUBLIC	?digits@?$numeric_limits@_J@std@@2HB		; std::numeric_limits<__int64>::digits
PUBLIC	?digits10@?$numeric_limits@_J@std@@2HB		; std::numeric_limits<__int64>::digits10
PUBLIC	?is_signed@?$numeric_limits@_K@std@@2_NB	; std::numeric_limits<unsigned __int64>::is_signed
PUBLIC	?digits@?$numeric_limits@_K@std@@2HB		; std::numeric_limits<unsigned __int64>::digits
PUBLIC	?digits10@?$numeric_limits@_K@std@@2HB		; std::numeric_limits<unsigned __int64>::digits10
PUBLIC	?digits@?$numeric_limits@M@std@@2HB		; std::numeric_limits<float>::digits
PUBLIC	?digits10@?$numeric_limits@M@std@@2HB		; std::numeric_limits<float>::digits10
PUBLIC	?max_digits10@?$numeric_limits@M@std@@2HB	; std::numeric_limits<float>::max_digits10
PUBLIC	?max_exponent@?$numeric_limits@M@std@@2HB	; std::numeric_limits<float>::max_exponent
PUBLIC	?max_exponent10@?$numeric_limits@M@std@@2HB	; std::numeric_limits<float>::max_exponent10
PUBLIC	?min_exponent@?$numeric_limits@M@std@@2HB	; std::numeric_limits<float>::min_exponent
PUBLIC	?min_exponent10@?$numeric_limits@M@std@@2HB	; std::numeric_limits<float>::min_exponent10
PUBLIC	?table_size@?$ctype@D@std@@2IB			; std::ctype<char>::table_size
PUBLIC	?value@?$integral_constant@I$0A@@std@@2IB	; std::integral_constant<unsigned int,0>::value
PUBLIC	?digits@?$numeric_limits@N@std@@2HB		; std::numeric_limits<double>::digits
PUBLIC	?digits10@?$numeric_limits@N@std@@2HB		; std::numeric_limits<double>::digits10
PUBLIC	?max_digits10@?$numeric_limits@N@std@@2HB	; std::numeric_limits<double>::max_digits10
PUBLIC	?max_exponent@?$numeric_limits@N@std@@2HB	; std::numeric_limits<double>::max_exponent
PUBLIC	?max_exponent10@?$numeric_limits@N@std@@2HB	; std::numeric_limits<double>::max_exponent10
PUBLIC	?min_exponent@?$numeric_limits@N@std@@2HB	; std::numeric_limits<double>::min_exponent
PUBLIC	?min_exponent10@?$numeric_limits@N@std@@2HB	; std::numeric_limits<double>::min_exponent10
PUBLIC	?digits@?$numeric_limits@O@std@@2HB		; std::numeric_limits<long double>::digits
PUBLIC	?digits10@?$numeric_limits@O@std@@2HB		; std::numeric_limits<long double>::digits10
PUBLIC	?max_digits10@?$numeric_limits@O@std@@2HB	; std::numeric_limits<long double>::max_digits10
PUBLIC	?max_exponent@?$numeric_limits@O@std@@2HB	; std::numeric_limits<long double>::max_exponent
PUBLIC	?max_exponent10@?$numeric_limits@O@std@@2HB	; std::numeric_limits<long double>::max_exponent10
PUBLIC	?min_exponent@?$numeric_limits@O@std@@2HB	; std::numeric_limits<long double>::min_exponent
PUBLIC	?min_exponent10@?$numeric_limits@O@std@@2HB	; std::numeric_limits<long double>::min_exponent10
PUBLIC	?HSITOFROM3d@@3HA				; HSITOFROM3d
PUBLIC	?gAcmiStr@@3PADA				; gAcmiStr
PUBLIC	?value@?$_Sizeof@U_Nil@std@@U12@U12@U12@U12@U12@U12@U12@@std@@2IB ; std::_Sizeof<std::_Nil,std::_Nil,std::_Nil,std::_Nil,std::_Nil,std::_Nil,std::_Nil,std::_Nil>::value
PUBLIC	?has_denorm@_Num_base@std@@2W4float_denorm_style@2@B ; std::_Num_base::has_denorm
PUBLIC	?has_denorm_loss@_Num_base@std@@2_NB		; std::_Num_base::has_denorm_loss
PUBLIC	?has_infinity@_Num_base@std@@2_NB		; std::_Num_base::has_infinity
PUBLIC	?has_quiet_NaN@_Num_base@std@@2_NB		; std::_Num_base::has_quiet_NaN
PUBLIC	?has_signaling_NaN@_Num_base@std@@2_NB		; std::_Num_base::has_signaling_NaN
PUBLIC	?is_bounded@_Num_base@std@@2_NB			; std::_Num_base::is_bounded
PUBLIC	?is_exact@_Num_base@std@@2_NB			; std::_Num_base::is_exact
PUBLIC	?is_iec559@_Num_base@std@@2_NB			; std::_Num_base::is_iec559
PUBLIC	?is_integer@_Num_base@std@@2_NB			; std::_Num_base::is_integer
PUBLIC	?ModeTableSize@@3HA				; ModeTableSize
PUBLIC	?is_modulo@_Num_base@std@@2_NB			; std::_Num_base::is_modulo
PUBLIC	?is_signed@_Num_base@std@@2_NB			; std::_Num_base::is_signed
PUBLIC	?is_specialized@_Num_base@std@@2_NB		; std::_Num_base::is_specialized
PUBLIC	?tinyness_before@_Num_base@std@@2_NB		; std::_Num_base::tinyness_before
_BSS	SEGMENT
?ObserverPosition@@3UTpoint@@A DB 0cH DUP (?)		; ObserverPosition
?ObserverYaw@@3MA DD 01H DUP (?)			; ObserverYaw
?ObserverPitch@@3MA DD 01H DUP (?)			; ObserverPitch
?ObserverRoll@@3MA DD 01H DUP (?)			; ObserverRoll
?HSITOFROM3d@@3HA DD 01H DUP (?)			; HSITOFROM3d
_gSimTimeMax DD	01H DUP (?)
_gCampTimeMax DD 01H DUP (?)
_gGraphicsTimeLastMax DD 01H DUP (?)
?gAcmiStr@@3PADA DB 0bH DUP (?)				; gAcmiStr
_BSS	ENDS
;	COMDAT ?tinyness_before@_Num_base@std@@2_NB
CONST	SEGMENT
?tinyness_before@_Num_base@std@@2_NB DB 00H		; std::_Num_base::tinyness_before
CONST	ENDS
;	COMDAT ?is_specialized@_Num_base@std@@2_NB
CONST	SEGMENT
?is_specialized@_Num_base@std@@2_NB DB 00H		; std::_Num_base::is_specialized
CONST	ENDS
;	COMDAT ?is_signed@_Num_base@std@@2_NB
CONST	SEGMENT
?is_signed@_Num_base@std@@2_NB DB 00H			; std::_Num_base::is_signed
CONST	ENDS
;	COMDAT ?is_modulo@_Num_base@std@@2_NB
CONST	SEGMENT
?is_modulo@_Num_base@std@@2_NB DB 00H			; std::_Num_base::is_modulo
CONST	ENDS
;	COMDAT ?is_integer@_Num_base@std@@2_NB
CONST	SEGMENT
?is_integer@_Num_base@std@@2_NB DB 00H			; std::_Num_base::is_integer
CONST	ENDS
;	COMDAT ?is_iec559@_Num_base@std@@2_NB
CONST	SEGMENT
?is_iec559@_Num_base@std@@2_NB DB 00H			; std::_Num_base::is_iec559
CONST	ENDS
;	COMDAT ?is_exact@_Num_base@std@@2_NB
CONST	SEGMENT
?is_exact@_Num_base@std@@2_NB DB 00H			; std::_Num_base::is_exact
CONST	ENDS
;	COMDAT ?is_bounded@_Num_base@std@@2_NB
CONST	SEGMENT
?is_bounded@_Num_base@std@@2_NB DB 00H			; std::_Num_base::is_bounded
CONST	ENDS
;	COMDAT ?has_signaling_NaN@_Num_base@std@@2_NB
CONST	SEGMENT
?has_signaling_NaN@_Num_base@std@@2_NB DB 00H		; std::_Num_base::has_signaling_NaN
CONST	ENDS
;	COMDAT ?has_quiet_NaN@_Num_base@std@@2_NB
CONST	SEGMENT
?has_quiet_NaN@_Num_base@std@@2_NB DB 00H		; std::_Num_base::has_quiet_NaN
CONST	ENDS
;	COMDAT ?has_infinity@_Num_base@std@@2_NB
CONST	SEGMENT
?has_infinity@_Num_base@std@@2_NB DB 00H		; std::_Num_base::has_infinity
CONST	ENDS
;	COMDAT ?has_denorm_loss@_Num_base@std@@2_NB
CONST	SEGMENT
?has_denorm_loss@_Num_base@std@@2_NB DB 00H		; std::_Num_base::has_denorm_loss
CONST	ENDS
;	COMDAT ?has_denorm@_Num_base@std@@2W4float_denorm_style@2@B
CONST	SEGMENT
?has_denorm@_Num_base@std@@2W4float_denorm_style@2@B DD 00H ; std::_Num_base::has_denorm
CONST	ENDS
;	COMDAT ?value@?$_Sizeof@U_Nil@std@@U12@U12@U12@U12@U12@U12@U12@@std@@2IB
CONST	SEGMENT
?value@?$_Sizeof@U_Nil@std@@U12@U12@U12@U12@U12@U12@U12@@std@@2IB DD 00H ; std::_Sizeof<std::_Nil,std::_Nil,std::_Nil,std::_Nil,std::_Nil,std::_Nil,std::_Nil,std::_Nil>::value
CONST	ENDS
;	COMDAT ?min_exponent10@?$numeric_limits@O@std@@2HB
CONST	SEGMENT
?min_exponent10@?$numeric_limits@O@std@@2HB DD 0fffffecdH ; std::numeric_limits<long double>::min_exponent10
CONST	ENDS
;	COMDAT ?min_exponent@?$numeric_limits@O@std@@2HB
CONST	SEGMENT
?min_exponent@?$numeric_limits@O@std@@2HB DD 0fffffc03H	; std::numeric_limits<long double>::min_exponent
CONST	ENDS
;	COMDAT ?max_exponent10@?$numeric_limits@O@std@@2HB
CONST	SEGMENT
?max_exponent10@?$numeric_limits@O@std@@2HB DD 0134H	; std::numeric_limits<long double>::max_exponent10
CONST	ENDS
;	COMDAT ?max_exponent@?$numeric_limits@O@std@@2HB
CONST	SEGMENT
?max_exponent@?$numeric_limits@O@std@@2HB DD 0400H	; std::numeric_limits<long double>::max_exponent
CONST	ENDS
;	COMDAT ?max_digits10@?$numeric_limits@O@std@@2HB
CONST	SEGMENT
?max_digits10@?$numeric_limits@O@std@@2HB DD 011H	; std::numeric_limits<long double>::max_digits10
CONST	ENDS
;	COMDAT ?digits10@?$numeric_limits@O@std@@2HB
CONST	SEGMENT
?digits10@?$numeric_limits@O@std@@2HB DD 0fH		; std::numeric_limits<long double>::digits10
CONST	ENDS
;	COMDAT ?digits@?$numeric_limits@O@std@@2HB
CONST	SEGMENT
?digits@?$numeric_limits@O@std@@2HB DD 035H		; std::numeric_limits<long double>::digits
CONST	ENDS
;	COMDAT ?min_exponent10@?$numeric_limits@N@std@@2HB
CONST	SEGMENT
?min_exponent10@?$numeric_limits@N@std@@2HB DD 0fffffecdH ; std::numeric_limits<double>::min_exponent10
CONST	ENDS
;	COMDAT ?min_exponent@?$numeric_limits@N@std@@2HB
CONST	SEGMENT
?min_exponent@?$numeric_limits@N@std@@2HB DD 0fffffc03H	; std::numeric_limits<double>::min_exponent
CONST	ENDS
;	COMDAT ?max_exponent10@?$numeric_limits@N@std@@2HB
CONST	SEGMENT
?max_exponent10@?$numeric_limits@N@std@@2HB DD 0134H	; std::numeric_limits<double>::max_exponent10
CONST	ENDS
;	COMDAT ?max_exponent@?$numeric_limits@N@std@@2HB
CONST	SEGMENT
?max_exponent@?$numeric_limits@N@std@@2HB DD 0400H	; std::numeric_limits<double>::max_exponent
CONST	ENDS
;	COMDAT ?max_digits10@?$numeric_limits@N@std@@2HB
CONST	SEGMENT
?max_digits10@?$numeric_limits@N@std@@2HB DD 011H	; std::numeric_limits<double>::max_digits10
CONST	ENDS
;	COMDAT ?digits10@?$numeric_limits@N@std@@2HB
CONST	SEGMENT
?digits10@?$numeric_limits@N@std@@2HB DD 0fH		; std::numeric_limits<double>::digits10
CONST	ENDS
;	COMDAT ?digits@?$numeric_limits@N@std@@2HB
CONST	SEGMENT
?digits@?$numeric_limits@N@std@@2HB DD 035H		; std::numeric_limits<double>::digits
CONST	ENDS
;	COMDAT ?value@?$integral_constant@I$0A@@std@@2IB
CONST	SEGMENT
?value@?$integral_constant@I$0A@@std@@2IB DD 00H	; std::integral_constant<unsigned int,0>::value
CONST	ENDS
;	COMDAT ?table_size@?$ctype@D@std@@2IB
CONST	SEGMENT
?table_size@?$ctype@D@std@@2IB DD 0100H			; std::ctype<char>::table_size
CONST	ENDS
;	COMDAT ?min_exponent10@?$numeric_limits@M@std@@2HB
CONST	SEGMENT
?min_exponent10@?$numeric_limits@M@std@@2HB DD 0ffffffdbH ; std::numeric_limits<float>::min_exponent10
CONST	ENDS
;	COMDAT ?min_exponent@?$numeric_limits@M@std@@2HB
CONST	SEGMENT
?min_exponent@?$numeric_limits@M@std@@2HB DD 0ffffff83H	; std::numeric_limits<float>::min_exponent
CONST	ENDS
;	COMDAT ?max_exponent10@?$numeric_limits@M@std@@2HB
CONST	SEGMENT
?max_exponent10@?$numeric_limits@M@std@@2HB DD 026H	; std::numeric_limits<float>::max_exponent10
CONST	ENDS
;	COMDAT ?max_exponent@?$numeric_limits@M@std@@2HB
CONST	SEGMENT
?max_exponent@?$numeric_limits@M@std@@2HB DD 080H	; std::numeric_limits<float>::max_exponent
CONST	ENDS
;	COMDAT ?max_digits10@?$numeric_limits@M@std@@2HB
CONST	SEGMENT
?max_digits10@?$numeric_limits@M@std@@2HB DD 09H	; std::numeric_limits<float>::max_digits10
CONST	ENDS
;	COMDAT ?digits10@?$numeric_limits@M@std@@2HB
CONST	SEGMENT
?digits10@?$numeric_limits@M@std@@2HB DD 06H		; std::numeric_limits<float>::digits10
CONST	ENDS
;	COMDAT ?digits@?$numeric_limits@M@std@@2HB
CONST	SEGMENT
?digits@?$numeric_limits@M@std@@2HB DD 018H		; std::numeric_limits<float>::digits
CONST	ENDS
;	COMDAT ?digits10@?$numeric_limits@_K@std@@2HB
CONST	SEGMENT
?digits10@?$numeric_limits@_K@std@@2HB DD 013H		; std::numeric_limits<unsigned __int64>::digits10
CONST	ENDS
;	COMDAT ?digits@?$numeric_limits@_K@std@@2HB
CONST	SEGMENT
?digits@?$numeric_limits@_K@std@@2HB DD 040H		; std::numeric_limits<unsigned __int64>::digits
CONST	ENDS
;	COMDAT ?is_signed@?$numeric_limits@_K@std@@2_NB
CONST	SEGMENT
?is_signed@?$numeric_limits@_K@std@@2_NB DB 00H		; std::numeric_limits<unsigned __int64>::is_signed
CONST	ENDS
;	COMDAT ?digits10@?$numeric_limits@_J@std@@2HB
CONST	SEGMENT
?digits10@?$numeric_limits@_J@std@@2HB DD 012H		; std::numeric_limits<__int64>::digits10
CONST	ENDS
;	COMDAT ?digits@?$numeric_limits@_J@std@@2HB
CONST	SEGMENT
?digits@?$numeric_limits@_J@std@@2HB DD 03fH		; std::numeric_limits<__int64>::digits
CONST	ENDS
;	COMDAT ?none@?$_Locbase@H@std@@2HB
CONST	SEGMENT
?none@?$_Locbase@H@std@@2HB DD 00H			; std::_Locbase<int>::none
CONST	ENDS
;	COMDAT ?all@?$_Locbase@H@std@@2HB
CONST	SEGMENT
?all@?$_Locbase@H@std@@2HB DD 03fH			; std::_Locbase<int>::all
CONST	ENDS
;	COMDAT ?is_signed@?$numeric_limits@_J@std@@2_NB
CONST	SEGMENT
?is_signed@?$numeric_limits@_J@std@@2_NB DB 01H		; std::numeric_limits<__int64>::is_signed
CONST	ENDS
;	COMDAT ?messages@?$_Locbase@H@std@@2HB
CONST	SEGMENT
?messages@?$_Locbase@H@std@@2HB DD 020H			; std::_Locbase<int>::messages
CONST	ENDS
;	COMDAT ?time@?$_Locbase@H@std@@2HB
CONST	SEGMENT
?time@?$_Locbase@H@std@@2HB DD 010H			; std::_Locbase<int>::time
CONST	ENDS
;	COMDAT ?numeric@?$_Locbase@H@std@@2HB
CONST	SEGMENT
?numeric@?$_Locbase@H@std@@2HB DD 08H			; std::_Locbase<int>::numeric
CONST	ENDS
;	COMDAT ?monetary@?$_Locbase@H@std@@2HB
CONST	SEGMENT
?monetary@?$_Locbase@H@std@@2HB DD 04H			; std::_Locbase<int>::monetary
CONST	ENDS
;	COMDAT ?ctype@?$_Locbase@H@std@@2HB
CONST	SEGMENT
?ctype@?$_Locbase@H@std@@2HB DD 02H			; std::_Locbase<int>::ctype
CONST	ENDS
;	COMDAT ?collate@?$_Locbase@H@std@@2HB
CONST	SEGMENT
?collate@?$_Locbase@H@std@@2HB DD 01H			; std::_Locbase<int>::collate
CONST	ENDS
;	COMDAT ?digits10@?$numeric_limits@K@std@@2HB
CONST	SEGMENT
?digits10@?$numeric_limits@K@std@@2HB DD 09H		; std::numeric_limits<unsigned long>::digits10
CONST	ENDS
;	COMDAT ?digits@?$numeric_limits@K@std@@2HB
CONST	SEGMENT
?digits@?$numeric_limits@K@std@@2HB DD 020H		; std::numeric_limits<unsigned long>::digits
CONST	ENDS
;	COMDAT ?is_signed@?$numeric_limits@K@std@@2_NB
CONST	SEGMENT
?is_signed@?$numeric_limits@K@std@@2_NB DB 00H		; std::numeric_limits<unsigned long>::is_signed
CONST	ENDS
;	COMDAT ?digits10@?$numeric_limits@J@std@@2HB
CONST	SEGMENT
?digits10@?$numeric_limits@J@std@@2HB DD 09H		; std::numeric_limits<long>::digits10
CONST	ENDS
;	COMDAT ?digits@?$numeric_limits@J@std@@2HB
CONST	SEGMENT
?digits@?$numeric_limits@J@std@@2HB DD 01fH		; std::numeric_limits<long>::digits
CONST	ENDS
;	COMDAT ?is_signed@?$numeric_limits@J@std@@2_NB
CONST	SEGMENT
?is_signed@?$numeric_limits@J@std@@2_NB DB 01H		; std::numeric_limits<long>::is_signed
CONST	ENDS
;	COMDAT ?digits10@?$numeric_limits@I@std@@2HB
CONST	SEGMENT
?digits10@?$numeric_limits@I@std@@2HB DD 09H		; std::numeric_limits<unsigned int>::digits10
CONST	ENDS
;	COMDAT ?digits@?$numeric_limits@I@std@@2HB
CONST	SEGMENT
?digits@?$numeric_limits@I@std@@2HB DD 020H		; std::numeric_limits<unsigned int>::digits
CONST	ENDS
;	COMDAT ?is_signed@?$numeric_limits@I@std@@2_NB
CONST	SEGMENT
?is_signed@?$numeric_limits@I@std@@2_NB DB 00H		; std::numeric_limits<unsigned int>::is_signed
CONST	ENDS
;	COMDAT ?digits10@?$numeric_limits@H@std@@2HB
CONST	SEGMENT
?digits10@?$numeric_limits@H@std@@2HB DD 09H		; std::numeric_limits<int>::digits10
CONST	ENDS
;	COMDAT ?digits@?$numeric_limits@H@std@@2HB
CONST	SEGMENT
?digits@?$numeric_limits@H@std@@2HB DD 01fH		; std::numeric_limits<int>::digits
CONST	ENDS
;	COMDAT ?value@?$_Sizeof@HU_Nil@std@@U12@U12@U12@U12@U12@U12@@std@@2IB
CONST	SEGMENT
?value@?$_Sizeof@HU_Nil@std@@U12@U12@U12@U12@U12@U12@@std@@2IB DD 01H ; std::_Sizeof<int,std::_Nil,std::_Nil,std::_Nil,std::_Nil,std::_Nil,std::_Nil,std::_Nil>::value
CONST	ENDS
;	COMDAT ?is_signed@?$numeric_limits@H@std@@2_NB
CONST	SEGMENT
?is_signed@?$numeric_limits@H@std@@2_NB DB 01H		; std::numeric_limits<int>::is_signed
CONST	ENDS
_DATA	SEGMENT
_matrix33_ident DD 03f800000r			; 1
	DD	000000000r			; 0
	DD	000000000r			; 0
	DD	000000000r			; 0
	DD	03f800000r			; 1
	DD	000000000r			; 0
	DD	000000000r			; 0
	DD	000000000r			; 0
	DD	03f800000r			; 1
?ModeTableSize@@3HA DD 0cH				; ModeTableSize
_cloudPntList DD 0c5bcc000r			; -6040
	DD	0c4070000r			; -540
	DD	0c694ac00r			; -19030
	DD	0c6de1c00r			; -28430
	DD	0c4dfc000r			; -1790
	DD	046dcc800r			; 28260
	DD	047104200r			; 36930
	DD	045732000r			; 3890
	DD	04744ea00r			; 50410
	DD	045336000r			; 2870
	DD	0c4d48000r			; -1700
	DD	04736da00r			; 46810
	DD	0c763ee00r			; -58350
	DD	0c4d48000r			; -1700
	DD	0c64c1000r			; -13060
	DD	046f2bc00r			; 31070
	DD	045480000r			; 3200
	DD	0c7293800r			; -43320
	DD	0c7bdc400r			; -97160
	DD	0c4d48000r			; -1700
	DD	04576e000r			; 3950
	DD	0c792e000r			; -75200
	DD	0c4bb8000r			; -1500
	DD	047957400r			; 76520
	DD	04759ee00r			; 55790
	DD	0c5a1e000r			; -5180
	DD	0c7a24e00r			; -83100
	DD	0c7473800r			; -51000
	DD	0c3a00000r			; -320
	DD	0c7829100r			; -66850
	DD	047733400r			; 62260
	DD	0c3a00000r			; -320
	DD	047708200r			; 61570
	DD	0c7710e00r			; -61710
	DD	0c550c000r			; -3340
	DD	046fb7c00r			; 32190
	DD	0c7719a00r			; -61850
	DD	0c7483200r			; -51250
	DD	047543a00r			; 54330
	DD	0c5bcc000r			; -6040
	DD	0c7495400r			; -51540
	DD	0c694ac00r			; -19030
	DD	0c6a7a800r			; -21460
	DD	0c74b0200r			; -51970
	DD	0468e8000r			; 18240
	DD	047298800r			; 43400
	DD	0c74bf200r			; -52210
	DD	046bc7000r			; 24120
	DD	0c749f400r			; -51700
	DD	0c74bc000r			; -52160
	DD	046948400r			; 19010
	DD	0c605e800r			; -8570
	DD	0c7488200r			; -51330
	DD	0c74ca600r			; -52390
	DD	04731bc00r			; 45500
	DD	0c7509800r			; -53400
	DD	0c6725800r			; -15510
	DD	0c7719a00r			; -61850
	DD	0c7483200r			; -51250
	DD	047543a00r			; 54330
	DD	047553400r			; 54580
	DD	0c74ddc00r			; -52700
	DD	0479a5600r			; 79020
	DD	047a7e400r			; 85960
	DD	0c74c5600r			; -52310
	DD	0477d4800r			; 64840
	DD	0c7c44500r			; -100490
	DD	0c74d1400r			; -52500
	DD	047ac2600r			; 88140
	DD	0c7a1ae00r			; -82780
	DD	0c749ea00r			; -51690
	DD	0c7bce300r			; -96710
	DD	0c6126800r			; -9370
	DD	0c7495400r			; -51540
	DD	043cd0000r			; 410
	DD	0c6a7a800r			; -21460
	DD	0c74a8a00r			; -51850
	DD	0473fae00r			; 49070
	DD	0457c8000r			; 4040
	DD	0c74e4a00r			; -52810
	DD	047871e00r			; 69180
	DD	0c6cbc000r			; -26080
	DD	0c74bc000r			; -52160
	DD	046984400r			; 19490
	DD	0452fa000r			; 2810
	DD	0c7488200r			; -51330
	DD	0c7081800r			; -34840
	DD	0c7719a00r			; -61850
	DD	0c749d600r			; -51670
	DD	047b17600r			; 90860
	DD	047553400r			; 54580
	DD	0c74ddc00r			; -52700
	DD	0479a5600r			; 79020
	DD	047a7e400r			; 85960
	DD	0c74c5600r			; -52310
	DD	0477d4800r			; 64840
	DD	0c7c44500r			; -100490
	DD	0c74d1400r			; -52500
	DD	047ac2600r			; 88140
	DD	047c04e00r			; 98460
	DD	0c74d1400r			; -52500
	DD	0c732a200r			; -45730
	DD	0467b9000r			; 16100
	DD	0c7487800r			; -51320
	DD	0c749a400r			; -51620
	DD	047636c00r			; 58220
	DD	0c74e0400r			; -52740
	DD	0c760b000r			; -57520
	DD	0c6126800r			; -9370
	DD	0c4070000r			; -540
	DD	043cd0000r			; 410
	DD	0c4e60000r			; -1840
	DD	0c6a30c00r			; -20870
	DD	0470a6600r			; 35430
	DD	0c7230c00r			; -41740
	DD	046924000r			; 18720
	DD	04797d600r			; 77740
	DD	0460d9000r			; 9060
	DD	0c616c800r			; -9650
	DD	0c7921300r			; -74790
_lightningPosList DD 041300000r			; 11
	DD	000000000r			; 0
	DD	040e00000r			; 7
	DD	040a00000r			; 5
	DD	041100000r			; 9
	DD	041000000r			; 8
	DD	041000000r			; 8
	DD	041600000r			; 14
	DD	041800000r			; 16
	DD	041a00000r			; 20
	DD	041200000r			; 10
	DD	041c00000r			; 24
	DD	041300000r			; 11
	DD	041d80000r			; 27
	DD	040c00000r			; 6
	DD	041f00000r			; 30
	DD	040e00000r			; 7
	DD	042040000r			; 33
	DD	03f800000r			; 1
	DD	042180000r			; 38
	DD	040a00000r			; 5
	DD	042280000r			; 42
	DD	040a00000r			; 5
	DD	042340000r			; 45
	DD	041400000r			; 12
	DD	042400000r			; 48
	DD	041a00000r			; 20
	DD	042500000r			; 52
	DD	041a00000r			; 20
	DD	042680000r			; 58
	DD	041b80000r			; 23
	DD	042740000r			; 61
	DD	041b00000r			; 22
	DD	0427c0000r			; 63
	DD	041b00000r			; 22
	DD	042840000r			; 66
	DD	041c80000r			; 25
	DD	042880000r			; 68
	DD	041a00000r			; 20
	DD	0428c0000r			; 70
	DD	041c00000r			; 24
	DD	042960000r			; 75
	DD	041c00000r			; 24
	DD	0429a0000r			; 77
	DD	041f80000r			; 31
	DD	042a00000r			; 80
	DD	041f80000r			; 31
	DD	042a60000r			; 83
	DD	042040000r			; 33
	DD	042b00000r			; 88
	DD	041f80000r			; 31
	DD	042b80000r			; 92
	DD	0423c0000r			; 47
	DD	042ce0000r			; 103
	DD	042380000r			; 46
	DD	042d20000r			; 105
	DD	0423c0000r			; 47
	DD	042d60000r			; 107
	DD	042340000r			; 45
	DD	042e00000r			; 112
	DD	042400000r			; 48
	DD	042e40000r			; 114
	DD	042380000r			; 46
	DD	042ea0000r			; 117
	DD	0422c0000r			; 43
	DD	043000000r			; 128
_matrix44_ident DD 03f800000r			; 1
	DD	000000000r			; 0
	DD	000000000r			; 0
	DD	000000000r			; 0
	DD	000000000r			; 0
	DD	03f800000r			; 1
	DD	000000000r			; 0
	DD	000000000r			; 0
	DD	000000000r			; 0
	DD	000000000r			; 0
	DD	03f800000r			; 1
	DD	000000000r			; 0
	DD	000000000r			; 0
	DD	000000000r			; 0
	DD	000000000r			; 0
	DD	03f800000r			; 1
_DATA	ENDS
;	COMDAT ?digits10@?$numeric_limits@G@std@@2HB
CONST	SEGMENT
?digits10@?$numeric_limits@G@std@@2HB DD 04H		; std::numeric_limits<unsigned short>::digits10
CONST	ENDS
;	COMDAT ?digits@?$numeric_limits@G@std@@2HB
CONST	SEGMENT
?digits@?$numeric_limits@G@std@@2HB DD 010H		; std::numeric_limits<unsigned short>::digits
CONST	ENDS
;	COMDAT ?is_signed@?$numeric_limits@G@std@@2_NB
CONST	SEGMENT
?is_signed@?$numeric_limits@G@std@@2_NB DB 00H		; std::numeric_limits<unsigned short>::is_signed
CONST	ENDS
;	COMDAT ?digits10@?$numeric_limits@F@std@@2HB
CONST	SEGMENT
?digits10@?$numeric_limits@F@std@@2HB DD 04H		; std::numeric_limits<short>::digits10
CONST	ENDS
;	COMDAT ?digits@?$numeric_limits@F@std@@2HB
CONST	SEGMENT
?digits@?$numeric_limits@F@std@@2HB DD 0fH		; std::numeric_limits<short>::digits
CONST	ENDS
;	COMDAT ?is_signed@?$numeric_limits@F@std@@2_NB
CONST	SEGMENT
?is_signed@?$numeric_limits@F@std@@2_NB DB 01H		; std::numeric_limits<short>::is_signed
CONST	ENDS
;	COMDAT ?value@?$integral_constant@_N$00@std@@2_NB
CONST	SEGMENT
?value@?$integral_constant@_N$00@std@@2_NB DB 01H	; std::integral_constant<bool,1>::value
CONST	ENDS
;	COMDAT ?digits10@?$numeric_limits@E@std@@2HB
CONST	SEGMENT
?digits10@?$numeric_limits@E@std@@2HB DD 02H		; std::numeric_limits<unsigned char>::digits10
CONST	ENDS
;	COMDAT ?digits@?$numeric_limits@E@std@@2HB
CONST	SEGMENT
?digits@?$numeric_limits@E@std@@2HB DD 08H		; std::numeric_limits<unsigned char>::digits
CONST	ENDS
;	COMDAT ?value@?$integral_constant@_N$0A@@std@@2_NB
CONST	SEGMENT
?value@?$integral_constant@_N$0A@@std@@2_NB DB 00H	; std::integral_constant<bool,0>::value
CONST	ENDS
;	COMDAT ?is_signed@?$numeric_limits@E@std@@2_NB
CONST	SEGMENT
?is_signed@?$numeric_limits@E@std@@2_NB DB 00H		; std::numeric_limits<unsigned char>::is_signed
CONST	ENDS
;	COMDAT ?digits10@?$numeric_limits@C@std@@2HB
CONST	SEGMENT
?digits10@?$numeric_limits@C@std@@2HB DD 02H		; std::numeric_limits<signed char>::digits10
CONST	ENDS
;	COMDAT ?digits@?$numeric_limits@C@std@@2HB
CONST	SEGMENT
?digits@?$numeric_limits@C@std@@2HB DD 07H		; std::numeric_limits<signed char>::digits
CONST	ENDS
;	COMDAT ?is_signed@?$numeric_limits@C@std@@2_NB
CONST	SEGMENT
?is_signed@?$numeric_limits@C@std@@2_NB DB 01H		; std::numeric_limits<signed char>::is_signed
CONST	ENDS
;	COMDAT ?_Stream_err@failure@ios_base@std@@0W4io_errc@43@B
CONST	SEGMENT
?_Stream_err@failure@ios_base@std@@0W4io_errc@43@B DD 01H ; std::ios_base::failure::_Stream_err
CONST	ENDS
CONST	SEGMENT
_L_2	DD	03f317218r			; 0.693147
_NEAR_CLIP DD	03f800000r			; 1
_theModeTable DD 07H
	DW	00H
	ORG $+2
	DD	06H
	DW	02H
	ORG $+2
	DD	0eH
	DW	03H
	ORG $+2
	DD	0dH
	DW	04H
	ORG $+2
	DD	012H
	DW	05H
	ORG $+2
	DD	0aH
	DW	06H
	ORG $+2
	DD	08H
	DW	07H
	ORG $+2
	DD	0bH
	DW	08H
	ORG $+2
	DD	09H
	DW	09H
	ORG $+2
	DD	0fH
	DW	0aH
	ORG $+2
	DD	0cH
	DW	0bH
	ORG $+2
	DD	011H
	DW	0cH
	ORG $+2
CONST	ENDS
;	COMDAT ?end@?$_Iosb@H@std@@2W4_Seekdir@12@B
CONST	SEGMENT
?end@?$_Iosb@H@std@@2W4_Seekdir@12@B DD 02H		; std::_Iosb<int>::end
CONST	ENDS
;	COMDAT ?digits10@?$numeric_limits@_N@std@@2HB
CONST	SEGMENT
?digits10@?$numeric_limits@_N@std@@2HB DD 00H		; std::numeric_limits<bool>::digits10
CONST	ENDS
;	COMDAT ?cur@?$_Iosb@H@std@@2W4_Seekdir@12@B
CONST	SEGMENT
?cur@?$_Iosb@H@std@@2W4_Seekdir@12@B DD 01H		; std::_Iosb<int>::cur
CONST	ENDS
;	COMDAT ?digits@?$numeric_limits@_N@std@@2HB
CONST	SEGMENT
?digits@?$numeric_limits@_N@std@@2HB DD 01H		; std::numeric_limits<bool>::digits
CONST	ENDS
;	COMDAT ?beg@?$_Iosb@H@std@@2W4_Seekdir@12@B
CONST	SEGMENT
?beg@?$_Iosb@H@std@@2W4_Seekdir@12@B DD 00H		; std::_Iosb<int>::beg
CONST	ENDS
;	COMDAT ?is_signed@?$numeric_limits@_N@std@@2_NB
CONST	SEGMENT
?is_signed@?$numeric_limits@_N@std@@2_NB DB 00H		; std::numeric_limits<bool>::is_signed
CONST	ENDS
;	COMDAT ?is_modulo@?$numeric_limits@_N@std@@2_NB
CONST	SEGMENT
?is_modulo@?$numeric_limits@_N@std@@2_NB DB 00H		; std::numeric_limits<bool>::is_modulo
CONST	ENDS
;	COMDAT ?binary@?$_Iosb@H@std@@2W4_Openmode@12@B
CONST	SEGMENT
?binary@?$_Iosb@H@std@@2W4_Openmode@12@B DD 020H	; std::_Iosb<int>::binary
CONST	ENDS
;	COMDAT ?_Noreplace@?$_Iosb@H@std@@2W4_Openmode@12@B
CONST	SEGMENT
?_Noreplace@?$_Iosb@H@std@@2W4_Openmode@12@B DD 080H	; std::_Iosb<int>::_Noreplace
CONST	ENDS
;	COMDAT ?_Nocreate@?$_Iosb@H@std@@2W4_Openmode@12@B
CONST	SEGMENT
?_Nocreate@?$_Iosb@H@std@@2W4_Openmode@12@B DD 040H	; std::_Iosb<int>::_Nocreate
CONST	ENDS
;	COMDAT ?trunc@?$_Iosb@H@std@@2W4_Openmode@12@B
CONST	SEGMENT
?trunc@?$_Iosb@H@std@@2W4_Openmode@12@B DD 010H		; std::_Iosb<int>::trunc
CONST	ENDS
;	COMDAT ?app@?$_Iosb@H@std@@2W4_Openmode@12@B
CONST	SEGMENT
?app@?$_Iosb@H@std@@2W4_Openmode@12@B DD 08H		; std::_Iosb<int>::app
CONST	ENDS
;	COMDAT ?ate@?$_Iosb@H@std@@2W4_Openmode@12@B
CONST	SEGMENT
?ate@?$_Iosb@H@std@@2W4_Openmode@12@B DD 04H		; std::_Iosb<int>::ate
CONST	ENDS
;	COMDAT ?out@?$_Iosb@H@std@@2W4_Openmode@12@B
CONST	SEGMENT
?out@?$_Iosb@H@std@@2W4_Openmode@12@B DD 02H		; std::_Iosb<int>::out
CONST	ENDS
;	COMDAT ?in@?$_Iosb@H@std@@2W4_Openmode@12@B
CONST	SEGMENT
?in@?$_Iosb@H@std@@2W4_Openmode@12@B DD 01H		; std::_Iosb<int>::in
CONST	ENDS
;	COMDAT ?_Hardfail@?$_Iosb@H@std@@2W4_Iostate@12@B
CONST	SEGMENT
?_Hardfail@?$_Iosb@H@std@@2W4_Iostate@12@B DD 010H	; std::_Iosb<int>::_Hardfail
CONST	ENDS
;	COMDAT ?badbit@?$_Iosb@H@std@@2W4_Iostate@12@B
CONST	SEGMENT
?badbit@?$_Iosb@H@std@@2W4_Iostate@12@B DD 04H		; std::_Iosb<int>::badbit
CONST	ENDS
;	COMDAT ?digits10@?$numeric_limits@_W@std@@2HB
CONST	SEGMENT
?digits10@?$numeric_limits@_W@std@@2HB DD 04H		; std::numeric_limits<wchar_t>::digits10
CONST	ENDS
;	COMDAT ?failbit@?$_Iosb@H@std@@2W4_Iostate@12@B
CONST	SEGMENT
?failbit@?$_Iosb@H@std@@2W4_Iostate@12@B DD 02H		; std::_Iosb<int>::failbit
CONST	ENDS
;	COMDAT ?digits@?$numeric_limits@_W@std@@2HB
CONST	SEGMENT
?digits@?$numeric_limits@_W@std@@2HB DD 010H		; std::numeric_limits<wchar_t>::digits
CONST	ENDS
;	COMDAT ?eofbit@?$_Iosb@H@std@@2W4_Iostate@12@B
CONST	SEGMENT
?eofbit@?$_Iosb@H@std@@2W4_Iostate@12@B DD 01H		; std::_Iosb<int>::eofbit
CONST	ENDS
;	COMDAT ?is_signed@?$numeric_limits@_W@std@@2_NB
CONST	SEGMENT
?is_signed@?$numeric_limits@_W@std@@2_NB DB 00H		; std::numeric_limits<wchar_t>::is_signed
CONST	ENDS
;	COMDAT ?goodbit@?$_Iosb@H@std@@2W4_Iostate@12@B
CONST	SEGMENT
?goodbit@?$_Iosb@H@std@@2W4_Iostate@12@B DD 00H		; std::_Iosb<int>::goodbit
CONST	ENDS
;	COMDAT ?floatfield@?$_Iosb@H@std@@2W4_Fmtflags@12@B
CONST	SEGMENT
?floatfield@?$_Iosb@H@std@@2W4_Fmtflags@12@B DD 03000H	; std::_Iosb<int>::floatfield
CONST	ENDS
;	COMDAT ?basefield@?$_Iosb@H@std@@2W4_Fmtflags@12@B
CONST	SEGMENT
?basefield@?$_Iosb@H@std@@2W4_Fmtflags@12@B DD 0e00H	; std::_Iosb<int>::basefield
CONST	ENDS
;	COMDAT ?adjustfield@?$_Iosb@H@std@@2W4_Fmtflags@12@B
CONST	SEGMENT
?adjustfield@?$_Iosb@H@std@@2W4_Fmtflags@12@B DD 01c0H	; std::_Iosb<int>::adjustfield
CONST	ENDS
;	COMDAT ?_Stdio@?$_Iosb@H@std@@2W4_Fmtflags@12@B
CONST	SEGMENT
?_Stdio@?$_Iosb@H@std@@2W4_Fmtflags@12@B DD 08000H	; std::_Iosb<int>::_Stdio
CONST	ENDS
;	COMDAT ?boolalpha@?$_Iosb@H@std@@2W4_Fmtflags@12@B
CONST	SEGMENT
?boolalpha@?$_Iosb@H@std@@2W4_Fmtflags@12@B DD 04000H	; std::_Iosb<int>::boolalpha
CONST	ENDS
;	COMDAT ?hexfloat@?$_Iosb@H@std@@2W4_Fmtflags@12@B
CONST	SEGMENT
?hexfloat@?$_Iosb@H@std@@2W4_Fmtflags@12@B DD 03000H	; std::_Iosb<int>::hexfloat
CONST	ENDS
;	COMDAT ?fixed@?$_Iosb@H@std@@2W4_Fmtflags@12@B
CONST	SEGMENT
?fixed@?$_Iosb@H@std@@2W4_Fmtflags@12@B DD 02000H	; std::_Iosb<int>::fixed
CONST	ENDS
;	COMDAT ?scientific@?$_Iosb@H@std@@2W4_Fmtflags@12@B
CONST	SEGMENT
?scientific@?$_Iosb@H@std@@2W4_Fmtflags@12@B DD 01000H	; std::_Iosb<int>::scientific
CONST	ENDS
;	COMDAT ?hex@?$_Iosb@H@std@@2W4_Fmtflags@12@B
CONST	SEGMENT
?hex@?$_Iosb@H@std@@2W4_Fmtflags@12@B DD 0800H		; std::_Iosb<int>::hex
CONST	ENDS
;	COMDAT ?digits10@?$numeric_limits@D@std@@2HB
CONST	SEGMENT
?digits10@?$numeric_limits@D@std@@2HB DD 02H		; std::numeric_limits<char>::digits10
CONST	ENDS
;	COMDAT ?oct@?$_Iosb@H@std@@2W4_Fmtflags@12@B
CONST	SEGMENT
?oct@?$_Iosb@H@std@@2W4_Fmtflags@12@B DD 0400H		; std::_Iosb<int>::oct
CONST	ENDS
;	COMDAT ?digits@?$numeric_limits@D@std@@2HB
CONST	SEGMENT
?digits@?$numeric_limits@D@std@@2HB DD 07H		; std::numeric_limits<char>::digits
CONST	ENDS
;	COMDAT ?dec@?$_Iosb@H@std@@2W4_Fmtflags@12@B
CONST	SEGMENT
?dec@?$_Iosb@H@std@@2W4_Fmtflags@12@B DD 0200H		; std::_Iosb<int>::dec
CONST	ENDS
;	COMDAT ?is_signed@?$numeric_limits@D@std@@2_NB
CONST	SEGMENT
?is_signed@?$numeric_limits@D@std@@2_NB DB 01H		; std::numeric_limits<char>::is_signed
CONST	ENDS
;	COMDAT ?internal@?$_Iosb@H@std@@2W4_Fmtflags@12@B
CONST	SEGMENT
?internal@?$_Iosb@H@std@@2W4_Fmtflags@12@B DD 0100H	; std::_Iosb<int>::internal
CONST	ENDS
;	COMDAT ?right@?$_Iosb@H@std@@2W4_Fmtflags@12@B
CONST	SEGMENT
?right@?$_Iosb@H@std@@2W4_Fmtflags@12@B DD 080H		; std::_Iosb<int>::right
CONST	ENDS
;	COMDAT ?left@?$_Iosb@H@std@@2W4_Fmtflags@12@B
CONST	SEGMENT
?left@?$_Iosb@H@std@@2W4_Fmtflags@12@B DD 040H		; std::_Iosb<int>::left
CONST	ENDS
;	COMDAT ?showpos@?$_Iosb@H@std@@2W4_Fmtflags@12@B
CONST	SEGMENT
?showpos@?$_Iosb@H@std@@2W4_Fmtflags@12@B DD 020H	; std::_Iosb<int>::showpos
CONST	ENDS
;	COMDAT ?showpoint@?$_Iosb@H@std@@2W4_Fmtflags@12@B
CONST	SEGMENT
?showpoint@?$_Iosb@H@std@@2W4_Fmtflags@12@B DD 010H	; std::_Iosb<int>::showpoint
CONST	ENDS
;	COMDAT ?showbase@?$_Iosb@H@std@@2W4_Fmtflags@12@B
CONST	SEGMENT
?showbase@?$_Iosb@H@std@@2W4_Fmtflags@12@B DD 08H	; std::_Iosb<int>::showbase
CONST	ENDS
;	COMDAT ?uppercase@?$_Iosb@H@std@@2W4_Fmtflags@12@B
CONST	SEGMENT
?uppercase@?$_Iosb@H@std@@2W4_Fmtflags@12@B DD 04H	; std::_Iosb<int>::uppercase
CONST	ENDS
;	COMDAT ?radix@_Num_float_base@std@@2HB
CONST	SEGMENT
?radix@_Num_float_base@std@@2HB DD 02H			; std::_Num_float_base::radix
CONST	ENDS
;	COMDAT ?unitbuf@?$_Iosb@H@std@@2W4_Fmtflags@12@B
CONST	SEGMENT
?unitbuf@?$_Iosb@H@std@@2W4_Fmtflags@12@B DD 02H	; std::_Iosb<int>::unitbuf
CONST	ENDS
;	COMDAT ?round_style@_Num_float_base@std@@2W4float_round_style@2@B
CONST	SEGMENT
?round_style@_Num_float_base@std@@2W4float_round_style@2@B DD 01H ; std::_Num_float_base::round_style
CONST	ENDS
;	COMDAT ?skipws@?$_Iosb@H@std@@2W4_Fmtflags@12@B
CONST	SEGMENT
?skipws@?$_Iosb@H@std@@2W4_Fmtflags@12@B DD 01H		; std::_Iosb<int>::skipws
CONST	ENDS
;	COMDAT ?traps@_Num_float_base@std@@2_NB
CONST	SEGMENT
?traps@_Num_float_base@std@@2_NB DB 00H			; std::_Num_float_base::traps
CONST	ENDS
;	COMDAT ?tinyness_before@_Num_float_base@std@@2_NB
CONST	SEGMENT
?tinyness_before@_Num_float_base@std@@2_NB DB 01H	; std::_Num_float_base::tinyness_before
CONST	ENDS
;	COMDAT ?is_specialized@_Num_float_base@std@@2_NB
CONST	SEGMENT
?is_specialized@_Num_float_base@std@@2_NB DB 01H	; std::_Num_float_base::is_specialized
CONST	ENDS
;	COMDAT ?is_signed@_Num_float_base@std@@2_NB
CONST	SEGMENT
?is_signed@_Num_float_base@std@@2_NB DB 01H		; std::_Num_float_base::is_signed
CONST	ENDS
;	COMDAT ?is_modulo@_Num_float_base@std@@2_NB
CONST	SEGMENT
?is_modulo@_Num_float_base@std@@2_NB DB 00H		; std::_Num_float_base::is_modulo
CONST	ENDS
;	COMDAT ?is_integer@_Num_float_base@std@@2_NB
CONST	SEGMENT
?is_integer@_Num_float_base@std@@2_NB DB 00H		; std::_Num_float_base::is_integer
CONST	ENDS
;	COMDAT ?is_iec559@_Num_float_base@std@@2_NB
CONST	SEGMENT
?is_iec559@_Num_float_base@std@@2_NB DB 01H		; std::_Num_float_base::is_iec559
CONST	ENDS
;	COMDAT ?is_exact@_Num_float_base@std@@2_NB
CONST	SEGMENT
?is_exact@_Num_float_base@std@@2_NB DB 00H		; std::_Num_float_base::is_exact
CONST	ENDS
;	COMDAT ?is_bounded@_Num_float_base@std@@2_NB
CONST	SEGMENT
?is_bounded@_Num_float_base@std@@2_NB DB 01H		; std::_Num_float_base::is_bounded
CONST	ENDS
;	COMDAT ?has_signaling_NaN@_Num_float_base@std@@2_NB
CONST	SEGMENT
?has_signaling_NaN@_Num_float_base@std@@2_NB DB 01H	; std::_Num_float_base::has_signaling_NaN
CONST	ENDS
;	COMDAT ?has_quiet_NaN@_Num_float_base@std@@2_NB
CONST	SEGMENT
?has_quiet_NaN@_Num_float_base@std@@2_NB DB 01H		; std::_Num_float_base::has_quiet_NaN
CONST	ENDS
;	COMDAT ?has_infinity@_Num_float_base@std@@2_NB
CONST	SEGMENT
?has_infinity@_Num_float_base@std@@2_NB DB 01H		; std::_Num_float_base::has_infinity
CONST	ENDS
;	COMDAT ?CMPDIRTYDATA_INTERVAL@FalconEntity@@2KB
CONST	SEGMENT
?CMPDIRTYDATA_INTERVAL@FalconEntity@@2KB DD 0c8H	; FalconEntity::CMPDIRTYDATA_INTERVAL
CONST	ENDS
;	COMDAT ?SIMDIRTYDATA_INTERVAL@FalconEntity@@2KB
CONST	SEGMENT
?SIMDIRTYDATA_INTERVAL@FalconEntity@@2KB DD 0c8H	; FalconEntity::SIMDIRTYDATA_INTERVAL
CONST	ENDS
;	COMDAT ?has_denorm_loss@_Num_float_base@std@@2_NB
CONST	SEGMENT
?has_denorm_loss@_Num_float_base@std@@2_NB DB 01H	; std::_Num_float_base::has_denorm_loss
CONST	ENDS
;	COMDAT ?has_denorm@_Num_float_base@std@@2W4float_denorm_style@2@B
CONST	SEGMENT
?has_denorm@_Num_float_base@std@@2W4float_denorm_style@2@B DD 01H ; std::_Num_float_base::has_denorm
CONST	ENDS
;	COMDAT ?radix@_Num_int_base@std@@2HB
CONST	SEGMENT
?radix@_Num_int_base@std@@2HB DD 02H			; std::_Num_int_base::radix
CONST	ENDS
;	COMDAT ?is_specialized@_Num_int_base@std@@2_NB
CONST	SEGMENT
?is_specialized@_Num_int_base@std@@2_NB DB 01H		; std::_Num_int_base::is_specialized
CONST	ENDS
;	COMDAT ?is_modulo@_Num_int_base@std@@2_NB
CONST	SEGMENT
?is_modulo@_Num_int_base@std@@2_NB DB 01H		; std::_Num_int_base::is_modulo
CONST	ENDS
;	COMDAT ?is_integer@_Num_int_base@std@@2_NB
CONST	SEGMENT
?is_integer@_Num_int_base@std@@2_NB DB 01H		; std::_Num_int_base::is_integer
CONST	ENDS
;	COMDAT ?is_exact@_Num_int_base@std@@2_NB
CONST	SEGMENT
?is_exact@_Num_int_base@std@@2_NB DB 01H		; std::_Num_int_base::is_exact
CONST	ENDS
;	COMDAT ?is_bounded@_Num_int_base@std@@2_NB
CONST	SEGMENT
?is_bounded@_Num_int_base@std@@2_NB DB 01H		; std::_Num_int_base::is_bounded
CONST	ENDS
;	COMDAT ?radix@_Num_base@std@@2HB
CONST	SEGMENT
?radix@_Num_base@std@@2HB DD 00H			; std::_Num_base::radix
CONST	ENDS
;	COMDAT ?min_exponent10@_Num_base@std@@2HB
CONST	SEGMENT
?min_exponent10@_Num_base@std@@2HB DD 00H		; std::_Num_base::min_exponent10
CONST	ENDS
;	COMDAT ?min_exponent@_Num_base@std@@2HB
CONST	SEGMENT
?min_exponent@_Num_base@std@@2HB DD 00H			; std::_Num_base::min_exponent
CONST	ENDS
;	COMDAT ?max_exponent10@_Num_base@std@@2HB
CONST	SEGMENT
?max_exponent10@_Num_base@std@@2HB DD 00H		; std::_Num_base::max_exponent10
CONST	ENDS
;	COMDAT ?max_exponent@_Num_base@std@@2HB
CONST	SEGMENT
?max_exponent@_Num_base@std@@2HB DD 00H			; std::_Num_base::max_exponent
CONST	ENDS
;	COMDAT ?max_digits10@_Num_base@std@@2HB
CONST	SEGMENT
?max_digits10@_Num_base@std@@2HB DD 00H			; std::_Num_base::max_digits10
CONST	ENDS
;	COMDAT ?digits10@_Num_base@std@@2HB
CONST	SEGMENT
?digits10@_Num_base@std@@2HB DD 00H			; std::_Num_base::digits10
CONST	ENDS
;	COMDAT ?digits@_Num_base@std@@2HB
CONST	SEGMENT
?digits@_Num_base@std@@2HB DD 00H			; std::_Num_base::digits
CONST	ENDS
;	COMDAT ?round_style@_Num_base@std@@2W4float_round_style@2@B
CONST	SEGMENT
?round_style@_Num_base@std@@2W4float_round_style@2@B DD 00H ; std::_Num_base::round_style
CONST	ENDS
;	COMDAT ?traps@_Num_base@std@@2_NB
CONST	SEGMENT
?traps@_Num_base@std@@2_NB DB 00H			; std::_Num_base::traps
CONST	ENDS
PUBLIC	_fabsf
PUBLIC	_sinf
PUBLIC	_tanf
PUBLIC	?fabs@@YAMM@Z					; fabs
PUBLIC	?sin@@YAMM@Z					; sin
PUBLIC	?tan@@YAMM@Z					; tan
PUBLIC	?XPos@VuEntity@@QBEMXZ				; VuEntity::XPos
PUBLIC	?YPos@VuEntity@@QBEMXZ				; VuEntity::YPos
PUBLIC	?ZPos@VuEntity@@QBEMXZ				; VuEntity::ZPos
PUBLIC	?XDelta@VuEntity@@QBEMXZ			; VuEntity::XDelta
PUBLIC	?YDelta@VuEntity@@QBEMXZ			; VuEntity::YDelta
PUBLIC	?ZDelta@VuEntity@@QBEMXZ			; VuEntity::ZDelta
PUBLIC	?Yaw@VuEntity@@QBEMXZ				; VuEntity::Yaw
PUBLIC	?Pitch@VuEntity@@QBEMXZ				; VuEntity::Pitch
PUBLIC	?Roll@VuEntity@@QBEMXZ				; VuEntity::Roll
PUBLIC	??2@YAPAXIPAX@Z					; operator new
PUBLIC	??3@YAXPAX0@Z					; operator delete
PUBLIC	?length@?$char_traits@D@std@@SAIPBD@Z		; std::char_traits<char>::length
PUBLIC	?copy@?$char_traits@D@std@@SAPADPADPBDI@Z	; std::char_traits<char>::copy
PUBLIC	?move@?$char_traits@D@std@@SAPADPADPBDI@Z	; std::char_traits<char>::move
PUBLIC	?assign@?$char_traits@D@std@@SAXAADABD@Z	; std::char_traits<char>::assign
PUBLIC	??0?$allocator@D@std@@QAE@XZ			; std::allocator<char>::allocator<char>
PUBLIC	?deallocate@?$allocator@D@std@@QAEXPADI@Z	; std::allocator<char>::deallocate
PUBLIC	?allocate@?$allocator@D@std@@QAEPADI@Z		; std::allocator<char>::allocate
PUBLIC	?max_size@?$allocator@D@std@@QBEIXZ		; std::allocator<char>::max_size
PUBLIC	?max_size@?$allocator_traits@V?$allocator@D@std@@@std@@SAIABV?$allocator@D@2@@Z ; std::allocator_traits<std::allocator<char> >::max_size
PUBLIC	??0?$_Wrap_alloc@V?$allocator@D@std@@@std@@QAE@XZ ; std::_Wrap_alloc<std::allocator<char> >::_Wrap_alloc<std::allocator<char> >
PUBLIC	?allocate@?$_Wrap_alloc@V?$allocator@D@std@@@std@@QAEPADI@Z ; std::_Wrap_alloc<std::allocator<char> >::allocate
PUBLIC	?deallocate@?$_Wrap_alloc@V?$allocator@D@std@@@std@@QAEXPADI@Z ; std::_Wrap_alloc<std::allocator<char> >::deallocate
PUBLIC	?max_size@?$_Wrap_alloc@V?$allocator@D@std@@@std@@QBEIXZ ; std::_Wrap_alloc<std::allocator<char> >::max_size
PUBLIC	??0?$_String_val@U?$_Simple_types@D@std@@@std@@QAE@XZ ; std::_String_val<std::_Simple_types<char> >::_String_val<std::_Simple_types<char> >
PUBLIC	?_Myptr@?$_String_val@U?$_Simple_types@D@std@@@std@@QAEPADXZ ; std::_String_val<std::_Simple_types<char> >::_Myptr
PUBLIC	?_Myptr@?$_String_val@U?$_Simple_types@D@std@@@std@@QBEPBDXZ ; std::_String_val<std::_Simple_types<char> >::_Myptr
PUBLIC	??0?$_String_alloc@$0A@U?$_String_base_types@DV?$allocator@D@std@@@std@@@std@@QAE@ABV?$allocator@D@1@@Z ; std::_String_alloc<0,std::_String_base_types<char,std::allocator<char> > >::_String_alloc<0,std::_String_base_types<char,std::allocator<char> > >
PUBLIC	?_Getal@?$_String_alloc@$0A@U?$_String_base_types@DV?$allocator@D@std@@@std@@@std@@QBE?AU?$_Wrap_alloc@V?$allocator@D@std@@@2@XZ ; std::_String_alloc<0,std::_String_base_types<char,std::allocator<char> > >::_Getal
PUBLIC	??0?$basic_string@DU?$char_traits@D@std@@V?$allocator@D@2@@std@@QAE@PBD@Z ; std::basic_string<char,std::char_traits<char>,std::allocator<char> >::basic_string<char,std::char_traits<char>,std::allocator<char> >
PUBLIC	?assign@?$basic_string@DU?$char_traits@D@std@@V?$allocator@D@2@@std@@QAEAAV12@ABV12@II@Z ; std::basic_string<char,std::char_traits<char>,std::allocator<char> >::assign
PUBLIC	?assign@?$basic_string@DU?$char_traits@D@std@@V?$allocator@D@2@@std@@QAEAAV12@PBDI@Z ; std::basic_string<char,std::char_traits<char>,std::allocator<char> >::assign
PUBLIC	?assign@?$basic_string@DU?$char_traits@D@std@@V?$allocator@D@2@@std@@QAEAAV12@PBD@Z ; std::basic_string<char,std::char_traits<char>,std::allocator<char> >::assign
PUBLIC	?erase@?$basic_string@DU?$char_traits@D@std@@V?$allocator@D@2@@std@@QAEAAV12@I@Z ; std::basic_string<char,std::char_traits<char>,std::allocator<char> >::erase
PUBLIC	?erase@?$basic_string@DU?$char_traits@D@std@@V?$allocator@D@2@@std@@QAEAAV12@II@Z ; std::basic_string<char,std::char_traits<char>,std::allocator<char> >::erase
PUBLIC	?size@?$basic_string@DU?$char_traits@D@std@@V?$allocator@D@2@@std@@QBEIXZ ; std::basic_string<char,std::char_traits<char>,std::allocator<char> >::size
PUBLIC	?max_size@?$basic_string@DU?$char_traits@D@std@@V?$allocator@D@2@@std@@QBEIXZ ; std::basic_string<char,std::char_traits<char>,std::allocator<char> >::max_size
PUBLIC	?_Copy@?$basic_string@DU?$char_traits@D@std@@V?$allocator@D@2@@std@@QAEXII@Z ; std::basic_string<char,std::char_traits<char>,std::allocator<char> >::_Copy
PUBLIC	?_Eos@?$basic_string@DU?$char_traits@D@std@@V?$allocator@D@2@@std@@QAEXI@Z ; std::basic_string<char,std::char_traits<char>,std::allocator<char> >::_Eos
PUBLIC	?_Grow@?$basic_string@DU?$char_traits@D@std@@V?$allocator@D@2@@std@@QAE_NI_N@Z ; std::basic_string<char,std::char_traits<char>,std::allocator<char> >::_Grow
PUBLIC	?_Inside@?$basic_string@DU?$char_traits@D@std@@V?$allocator@D@2@@std@@QAE_NPBD@Z ; std::basic_string<char,std::char_traits<char>,std::allocator<char> >::_Inside
PUBLIC	?_Tidy@?$basic_string@DU?$char_traits@D@std@@V?$allocator@D@2@@std@@QAEX_NI@Z ; std::basic_string<char,std::char_traits<char>,std::allocator<char> >::_Tidy
PUBLIC	?_Xlen@?$basic_string@DU?$char_traits@D@std@@V?$allocator@D@2@@std@@QBEXXZ ; std::basic_string<char,std::char_traits<char>,std::allocator<char> >::_Xlen
PUBLIC	?_Xran@?$basic_string@DU?$char_traits@D@std@@V?$allocator@D@2@@std@@QBEXXZ ; std::basic_string<char,std::char_traits<char>,std::allocator<char> >::_Xran
PUBLIC	?get@?$VuBin@VVuSessionEntity@@@@QBEPAVVuSessionEntity@@XZ ; VuBin<VuSessionEntity>::get
PUBLIC	?CameraCount@VuSessionEntity@@QBEHXZ		; VuSessionEntity::CameraCount
PUBLIC	?size@?$vector@V?$VuBin@VVuEntity@@@@V?$allocator@V?$VuBin@VVuEntity@@@@@std@@@std@@QBEIXZ ; std::vector<VuBin<VuEntity>,std::allocator<VuBin<VuEntity> > >::size
PUBLIC	?GetAltitude@FalconEntity@@QBEHXZ		; FalconEntity::GetAltitude
PUBLIC	?checked_atan2@@YANNN@Z				; checked_atan2
PUBLIC	?GetNVGmode@CTimeOfDay@@QAEHXZ			; CTimeOfDay::GetNVGmode
PUBLIC	?GetLightLevel@CTimeOfDay@@QAEMXZ		; CTimeOfDay::GetLightLevel
PUBLIC	??0id@locale@std@@QAE@I@Z			; std::locale::id::id
PUBLIC	?generic_category@std@@YAABVerror_category@1@XZ	; std::generic_category
PUBLIC	?system_category@std@@YAABVerror_category@1@XZ	; std::system_category
PUBLIC	??0error_category@std@@QAE@XZ			; std::error_category::error_category
PUBLIC	??1error_category@std@@UAE@XZ			; std::error_category::~error_category
PUBLIC	?default_error_condition@error_category@std@@UBE?AVerror_condition@2@H@Z ; std::error_category::default_error_condition
PUBLIC	?equivalent@error_category@std@@UBE_NHABVerror_condition@2@@Z ; std::error_category::equivalent
PUBLIC	?equivalent@error_category@std@@UBE_NABVerror_code@2@H@Z ; std::error_category::equivalent
PUBLIC	??8error_category@std@@QBE_NABV01@@Z		; std::error_category::operator==
PUBLIC	??_Gerror_category@std@@UAEPAXI@Z		; std::error_category::`scalar deleting destructor'
PUBLIC	?value@error_code@std@@QBEHXZ			; std::error_code::value
PUBLIC	?category@error_code@std@@QBEABVerror_category@2@XZ ; std::error_code::category
PUBLIC	??0error_condition@std@@QAE@HABVerror_category@1@@Z ; std::error_condition::error_condition
PUBLIC	?value@error_condition@std@@QBEHXZ		; std::error_condition::value
PUBLIC	?category@error_condition@std@@QBEABVerror_category@2@XZ ; std::error_condition::category
PUBLIC	??8error_condition@std@@QBE_NABV01@@Z		; std::error_condition::operator==
PUBLIC	??0_Generic_error_category@std@@QAE@XZ		; std::_Generic_error_category::_Generic_error_category
PUBLIC	?name@_Generic_error_category@std@@UBEPBDXZ	; std::_Generic_error_category::name
PUBLIC	?message@_Generic_error_category@std@@UBE?AV?$basic_string@DU?$char_traits@D@std@@V?$allocator@D@2@@2@H@Z ; std::_Generic_error_category::message
PUBLIC	??1_Generic_error_category@std@@UAE@XZ		; std::_Generic_error_category::~_Generic_error_category
PUBLIC	??_G_Generic_error_category@std@@UAEPAXI@Z	; std::_Generic_error_category::`scalar deleting destructor'
PUBLIC	??0_Iostream_error_category@std@@QAE@XZ		; std::_Iostream_error_category::_Iostream_error_category
PUBLIC	?name@_Iostream_error_category@std@@UBEPBDXZ	; std::_Iostream_error_category::name
PUBLIC	?message@_Iostream_error_category@std@@UBE?AV?$basic_string@DU?$char_traits@D@std@@V?$allocator@D@2@@2@H@Z ; std::_Iostream_error_category::message
PUBLIC	??1_Iostream_error_category@std@@UAE@XZ		; std::_Iostream_error_category::~_Iostream_error_category
PUBLIC	??_G_Iostream_error_category@std@@UAEPAXI@Z	; std::_Iostream_error_category::`scalar deleting destructor'
PUBLIC	??0_System_error_category@std@@QAE@XZ		; std::_System_error_category::_System_error_category
PUBLIC	?name@_System_error_category@std@@UBEPBDXZ	; std::_System_error_category::name
PUBLIC	?message@_System_error_category@std@@UBE?AV?$basic_string@DU?$char_traits@D@std@@V?$allocator@D@2@@2@H@Z ; std::_System_error_category::message
PUBLIC	?default_error_condition@_System_error_category@std@@UBE?AVerror_condition@2@H@Z ; std::_System_error_category::default_error_condition
PUBLIC	??1_System_error_category@std@@UAE@XZ		; std::_System_error_category::~_System_error_category
PUBLIC	??_G_System_error_category@std@@UAEPAXI@Z	; std::_System_error_category::`scalar deleting destructor'
PUBLIC	?GetDisplayDevice@ImageBuffer@@QAEPAVDisplayDevice@@XZ ; ImageBuffer::GetDisplayDevice
PUBLIC	?CurFont@VirtualDisplay@@SAHXZ			; VirtualDisplay::CurFont
PUBLIC	?CenterOriginInViewport@VirtualDisplay@@QAEXXZ	; VirtualDisplay::CenterOriginInViewport
PUBLIC	?SetGreenMode@RenderOTW@@QAEX_N@Z		; RenderOTW::SetGreenMode
PUBLIC	?SetRatedLoad@ObjectLOD@@SAX_N@Z		; ObjectLOD::SetRatedLoad
PUBLIC	?Label@DrawableBSP@@QAEPADXZ			; DrawableBSP::Label
PUBLIC	?SetRatedLoad@TextureBankClass@@SAX_N@Z		; TextureBankClass::SetRatedLoad
PUBLIC	?ClearLights@CDXEngine@@QAEXXZ			; CDXEngine::ClearLights
PUBLIC	?ClearStencil@CDXEngine@@QAEXXZ			; CDXEngine::ClearStencil
PUBLIC	?SetPitMode@CDXEngine@@QAEX_N@Z			; CDXEngine::SetPitMode
PUBLIC	?SetState@CDXEngine@@QAEXW4DX_StateType@@@Z	; CDXEngine::SetState
PUBLIC	?ResetState@CDXEngine@@QAEXXZ			; CDXEngine::ResetState
PUBLIC	?Ownship@HudClass@@QAEPAVAircraftClass@@XZ	; HudClass::Ownship
PUBLIC	?SetGridVisible@PlayerRwrClass@@QAEXH@Z		; PlayerRwrClass::SetGridVisible
PUBLIC	?Get2dTrackIR@PlayerOptionsClass@@QBE_NXZ	; PlayerOptionsClass::Get2dTrackIR
PUBLIC	?SetInfoBar@PlayerOptionsClass@@QAEX_N@Z	; PlayerOptionsClass::SetInfoBar
PUBLIC	?IsFiring@SimBaseClass@@QBEHXZ			; SimBaseClass::IsFiring
PUBLIC	?IsAwake@SimBaseClass@@QBEHXZ			; SimBaseClass::IsAwake
PUBLIC	?PowerOutput@SimBaseClass@@QAEMXZ		; SimBaseClass::PowerOutput
PUBLIC	?Cycle@OTWDriverClass@@QAEXXZ			; OTWDriverClass::Cycle
PUBLIC	?Reset3DParameters@OTWDriverClass@@QAEXXZ	; OTWDriverClass::Reset3DParameters
PUBLIC	?RenderFirstFrame@OTWDriverClass@@QAEXXZ	; OTWDriverClass::RenderFirstFrame
PUBLIC	?RenderFrame@OTWDriverClass@@QAEXXZ		; OTWDriverClass::RenderFrame
PUBLIC	?DisplayInCockpit@OTWDriverClass@@QAEHXZ	; OTWDriverClass::DisplayInCockpit
PUBLIC	?DisplayChatBox@OTWDriverClass@@QAEXXZ		; OTWDriverClass::DisplayChatBox
PUBLIC	?DisplayInfoBar@OTWDriverClass@@AAEXXZ		; OTWDriverClass::DisplayInfoBar
PUBLIC	?DrawSubTitles@OTWDriverClass@@AAEXXZ		; OTWDriverClass::DrawSubTitles
PUBLIC	?DisplayProfilerText@OTWDriverClass@@AAEXXZ	; OTWDriverClass::DisplayProfilerText
PUBLIC	?ToggleProfilerDisplay@OTWDriverClass@@QAEXXZ	; OTWDriverClass::ToggleProfilerDisplay
PUBLIC	?ToggleProfilerActive@OTWDriverClass@@QAEXXZ	; OTWDriverClass::ToggleProfilerActive
PUBLIC	?DisplayFrontText@OTWDriverClass@@QAEXXZ	; OTWDriverClass::DisplayFrontText
PUBLIC	?SetCameraPanTilt@OTWDriverClass@@QAEXMM@Z	; OTWDriverClass::SetCameraPanTilt
PUBLIC	?InExitMenu@OTWDriverClass@@QAEHXZ		; OTWDriverClass::InExitMenu
PUBLIC	?SetInternalCameraPosition@OTWDriverClass@@AAEXM@Z ; OTWDriverClass::SetInternalCameraPosition
PUBLIC	??4?$VuBin@VSimBaseClass@@@@QAEABV0@ABV0@@Z	; VuBin<SimBaseClass>::operator=
PUBLIC	??7?$VuBin@VSimBaseClass@@@@QBE_NXZ		; VuBin<SimBaseClass>::operator!
PUBLIC	??C?$VuBin@VSimBaseClass@@@@QBEPAVSimBaseClass@@XZ ; VuBin<SimBaseClass>::operator->
PUBLIC	?get@?$VuBin@VSimBaseClass@@@@QBEPAVSimBaseClass@@XZ ; VuBin<SimBaseClass>::get
PUBLIC	?reset@?$VuBin@VSimBaseClass@@@@QAEXPAVSimBaseClass@@@Z ; VuBin<SimBaseClass>::reset
PUBLIC	?RunNew2DTrackIR@OTWDriverClass@@AAEXMM@Z	; OTWDriverClass::RunNew2DTrackIR
PUBLIC	?ToggleInfoBar@OTWDriverClass@@QAEXXZ		; OTWDriverClass::ToggleInfoBar
PUBLIC	?ToggleSubTitles@OTWDriverClass@@QAEXXZ		; OTWDriverClass::ToggleSubTitles
PUBLIC	?GetDefaultRC@DisplayDevice@@QAEPAVDXContext@@XZ ; DisplayDevice::GetDefaultRC
PUBLIC	?SetHsiBit@FlightData@@QAEXH@Z			; FlightData::SetHsiBit
PUBLIC	?ClearHsiBit@FlightData@@QAEXH@Z		; FlightData::ClearHsiBit
PUBLIC	?GetCockpitWidth@CockpitManager@@QAEHXZ		; CockpitManager::GetCockpitWidth
PUBLIC	?GetCockpitHeight@CockpitManager@@QAEHXZ	; CockpitManager::GetCockpitHeight
PUBLIC	?GeneralFont@CockpitManager@@QAEHXZ		; CockpitManager::GeneralFont
PUBLIC	?LabelFont@CockpitManager@@QAEHXZ		; CockpitManager::LabelFont
PUBLIC	?GetReqCompression@FalconSessionEntity@@QBEFXZ	; FalconSessionEntity::GetReqCompression
PUBLIC	?GetDOFValue@SimMoverClass@@QAEMH@Z		; SimMoverClass::GetDOFValue
PUBLIC	?INSState@AircraftClass@@QAEHW4INSAlignFlags@1@@Z ; AircraftClass::INSState
PUBLIC	?AutopilotType@AircraftClass@@QAE?AW4AutoPilotType@1@XZ ; AircraftClass::AutopilotType
PUBLIC	?DBrain@AircraftClass@@QAEPAVDigitalBrain@@XZ	; AircraftClass::DBrain
PUBLIC	?MotionOn@SimulationDriver@@QAEHXZ		; SimulationDriver::MotionOn
PUBLIC	?AVTROn@SimulationDriver@@QAEHXZ		; SimulationDriver::AVTROn
PUBLIC	?IsRecording@ACMIRecorder@@QAEHXZ		; ACMIRecorder::IsRecording
PUBLIC	?GetGameType@DogfightClass@@QAE?AW4DogfightType@@XZ ; DogfightClass::GetGameType
PUBLIC	?Fuel@AirframeClass@@QAEMXZ			; AirframeClass::Fuel
PUBLIC	?ExternalFuel@AirframeClass@@QAEMXZ		; AirframeClass::ExternalFuel
PUBLIC	?FuelFlow@AirframeClass@@QAEMXZ			; AirframeClass::FuelFlow
PUBLIC	?EPUFuel@AirframeClass@@QAEMXZ			; AirframeClass::EPUFuel
PUBLIC	?Online@UIComms@@QAEHXZ				; UIComms::Online
PUBLIC	?ATCStatus@DigitalBrain@@QAE?AW4AtcStatusEnum@@XZ ; DigitalBrain::ATCStatus
PUBLIC	?Allow_2D_Panning@TrackIR@@QAEXXZ		; TrackIR::Allow_2D_Panning
PUBLIC	?Get_Panning_Allowed@TrackIR@@QAE_NXZ		; TrackIR::Get_Panning_Allowed
PUBLIC	?AnalogIsUsed@SIMLIB_IO_CLASS@@QAE_NW4GameAxis_t@@@Z ; SIMLIB_IO_CLASS::AnalogIsUsed
PUBLIC	??$construct@PADAAPAD@?$_Wrap_alloc@V?$allocator@D@std@@@std@@QAEXPAPADAAPAD@Z ; std::_Wrap_alloc<std::allocator<char> >::construct<char *,char * &>
PUBLIC	??$destroy@PAD@?$_Wrap_alloc@V?$allocator@D@std@@@std@@QAEXPAPAD@Z ; std::_Wrap_alloc<std::allocator<char> >::destroy<char *>
PUBLIC	??$addressof@D@std@@YAPADAAD@Z			; std::addressof<char>
PUBLIC	??$_Allocate@D@std@@YAPADIPAD@Z			; std::_Allocate<char>
PUBLIC	??$forward@AAPAD@std@@YAAAPADAAPAD@Z		; std::forward<char * &>
PUBLIC	??$construct@PADAAPAD@?$allocator_traits@V?$allocator@D@std@@@std@@SAXAAV?$allocator@D@1@PAPADAAPAD@Z ; std::allocator_traits<std::allocator<char> >::construct<char *,char * &>
PUBLIC	??$destroy@PAD@?$allocator_traits@V?$allocator@D@std@@@std@@SAXAAV?$allocator@D@1@PAPAD@Z ; std::allocator_traits<std::allocator<char> >::destroy<char *>
PUBLIC	??$construct@PADAAPAD@?$allocator@D@std@@QAEXPAPADAAPAD@Z ; std::allocator<char>::construct<char *,char * &>
PUBLIC	??$destroy@PAD@?$allocator@D@std@@QAEXPAPAD@Z	; std::allocator<char>::destroy<char *>
PUBLIC	??_C@_00CNPNBAHC@?$AA@				; `string'
PUBLIC	??_7error_category@std@@6B@			; std::error_category::`vftable'
PUBLIC	??_7_Generic_error_category@std@@6B@		; std::_Generic_error_category::`vftable'
PUBLIC	??_C@_07DCLBNMLN@generic?$AA@			; `string'
PUBLIC	??_C@_0O@BFJCFAAK@unknown?5error?$AA@		; `string'
PUBLIC	??_7_Iostream_error_category@std@@6B@		; std::_Iostream_error_category::`vftable'
PUBLIC	??_C@_08LLGCOLLL@iostream?$AA@			; `string'
PUBLIC	??_C@_0BG@PADBLCHM@iostream?5stream?5error?$AA@	; `string'
PUBLIC	??_7_System_error_category@std@@6B@		; std::_System_error_category::`vftable'
PUBLIC	??_C@_06FHFOAHML@system?$AA@			; `string'
PUBLIC	?_Generic_object@?$_Error_objects@H@std@@2V_Generic_error_category@2@A ; std::_Error_objects<int>::_Generic_object
PUBLIC	?_Iostream_object@?$_Error_objects@H@std@@2V_Iostream_error_category@2@A ; std::_Error_objects<int>::_Iostream_object
PUBLIC	?_System_object@?$_Error_objects@H@std@@2V_System_error_category@2@A ; std::_Error_objects<int>::_System_object
PUBLIC	?id@?$num_put@DV?$back_insert_iterator@V?$basic_string@DU?$char_traits@D@std@@V?$allocator@D@2@@std@@@std@@@std@@2V0locale@2@A ; std::num_put<char,std::back_insert_iterator<std::basic_string<char,std::char_traits<char>,std::allocator<char> > > >::id
PUBLIC	?id@?$num_put@_WV?$back_insert_iterator@V?$basic_string@_WU?$char_traits@_W@std@@V?$allocator@_W@2@@std@@@std@@@std@@2V0locale@2@A ; std::num_put<wchar_t,std::back_insert_iterator<std::basic_string<wchar_t,std::char_traits<wchar_t>,std::allocator<wchar_t> > > >::id
PUBLIC	??_C@_02LMMGGCAJ@?3?5?$AA@			; `string'
PUBLIC	??_C@_0N@OHPLPDBF@?5?9?5heading?3?5?$AA@	; `string'
PUBLIC	??_C@_04FEIOEENN@?$CF3?4i?$AA@			; `string'
PUBLIC	??_C@_0BA@GPOLMDJ@?5degrees?0?5alt?3?5?$AA@	; `string'
PUBLIC	??_C@_04HBOFBLAB@?$CF5?4i?$AA@			; `string'
PUBLIC	??_C@_0BE@OEACJCJD@?5ft?5?$CIBARO?$CJ?0?5speed?3?5?$AA@ ; `string'
PUBLIC	??_C@_04EOMBGAKL@?$CF4?4f?$AA@			; `string'
PUBLIC	??_C@_0BB@MJAKPGJL@?5kts?5?$CIGS?$CJ?0?5aoa?3?5?$AA@ ; `string'
PUBLIC	??_C@_06CCBPJKJC@?$CF?$CL3?41f?$AA@		; `string'
PUBLIC	??_C@_08MGDNAMHD@?5degrees?$AA@			; `string'
PUBLIC	??_C@_0L@MMMGIOEM@?5kts?5?$CIIAS?$CJ?$AA@	; `string'
PUBLIC	??_C@_0O@JAKNKEAP@?0?5power?3?5?$CF3?4f?$AA@	; `string'
PUBLIC	??_C@_08HDEDGHJO@?5percent?$AA@			; `string'
PUBLIC	??_C@_07CBNKIKPL@?0?5?$CF2?41f?$AA@		; `string'
PUBLIC	??_C@_08CFEJCDPL@G?0?5aoa?3?5?$AA@		; `string'
PUBLIC	??_C@_06BPHPLDCC@?$CF?$CL2?41f?$AA@		; `string'
PUBLIC	??_C@_02ENMDKDPO@x8?$AA@			; `string'
PUBLIC	??_C@_03NMIFLGEC@x16?$AA@			; `string'
PUBLIC	??_C@_03LLGNKHCI@x32?$AA@			; `string'
PUBLIC	??_C@_03OLPMMCEF@x64?$AA@			; `string'
PUBLIC	??_C@_04IIJILBCN@x128?$AA@			; `string'
PUBLIC	??_C@_04BOBCFMI@x256?$AA@			; `string'
PUBLIC	??_C@_04PPFDHAKJ@x512?$AA@			; `string'
PUBLIC	??_C@_05FJODHKGO@x1024?$AA@			; `string'
PUBLIC	??_C@_0N@LEMGNLFI@Sierra?5Hotel?$AA@		; `string'
PUBLIC	??_C@_09HJCFOPMO@Game?5Over?$AA@		; `string'
PUBLIC	??_C@_07KJPMIBMC@FPS?5?$CF5d?$AA@		; `string'
PUBLIC	??_C@_09IBNEFEFJ@FPS?5?$CF5?41f?$AA@		; `string'
PUBLIC	?id@?$numpunct@D@std@@2V0locale@2@A		; std::numpunct<char>::id
PUBLIC	?id@?$numpunct@_W@std@@2V0locale@2@A		; std::numpunct<wchar_t>::id
PUBLIC	??_C@_0BI@CFPLBAOH@invalid?5string?5position?$AA@ ; `string'
PUBLIC	??_C@_0BA@JFNIOLAK@string?5too?5long?$AA@	; `string'
PUBLIC	??_R4error_category@std@@6B@			; std::error_category::`RTTI Complete Object Locator'
PUBLIC	??_R0?AVerror_category@std@@@8			; std::error_category `RTTI Type Descriptor'
PUBLIC	??_R3error_category@std@@8			; std::error_category::`RTTI Class Hierarchy Descriptor'
PUBLIC	??_R2error_category@std@@8			; std::error_category::`RTTI Base Class Array'
PUBLIC	??_R1A@?0A@EA@error_category@std@@8		; std::error_category::`RTTI Base Class Descriptor at (0,-1,0,64)'
PUBLIC	??_R4_Generic_error_category@std@@6B@		; std::_Generic_error_category::`RTTI Complete Object Locator'
PUBLIC	??_R0?AV_Generic_error_category@std@@@8		; std::_Generic_error_category `RTTI Type Descriptor'
PUBLIC	??_R3_Generic_error_category@std@@8		; std::_Generic_error_category::`RTTI Class Hierarchy Descriptor'
PUBLIC	??_R2_Generic_error_category@std@@8		; std::_Generic_error_category::`RTTI Base Class Array'
PUBLIC	??_R1A@?0A@EA@_Generic_error_category@std@@8	; std::_Generic_error_category::`RTTI Base Class Descriptor at (0,-1,0,64)'
PUBLIC	??_R4_Iostream_error_category@std@@6B@		; std::_Iostream_error_category::`RTTI Complete Object Locator'
PUBLIC	??_R0?AV_Iostream_error_category@std@@@8	; std::_Iostream_error_category `RTTI Type Descriptor'
PUBLIC	??_R3_Iostream_error_category@std@@8		; std::_Iostream_error_category::`RTTI Class Hierarchy Descriptor'
PUBLIC	??_R2_Iostream_error_category@std@@8		; std::_Iostream_error_category::`RTTI Base Class Array'
PUBLIC	??_R1A@?0A@EA@_Iostream_error_category@std@@8	; std::_Iostream_error_category::`RTTI Base Class Descriptor at (0,-1,0,64)'
PUBLIC	??_R4_System_error_category@std@@6B@		; std::_System_error_category::`RTTI Complete Object Locator'
PUBLIC	??_R0?AV_System_error_category@std@@@8		; std::_System_error_category `RTTI Type Descriptor'
PUBLIC	??_R3_System_error_category@std@@8		; std::_System_error_category::`RTTI Class Hierarchy Descriptor'
PUBLIC	??_R2_System_error_category@std@@8		; std::_System_error_category::`RTTI Base Class Array'
PUBLIC	??_R1A@?0A@EA@_System_error_category@std@@8	; std::_System_error_category::`RTTI Base Class Descriptor at (0,-1,0,64)'
PUBLIC	__real@00000000
PUBLIC	__real@0000000000000000
PUBLIC	__real@3a83126f
PUBLIC	__real@3c23d70a
PUBLIC	__real@3c8efa34
PUBLIC	__real@3cf5c28f
PUBLIC	__real@3d4ccccd
PUBLIC	__real@3e32b8c1
PUBLIC	__real@3e99999a
PUBLIC	__real@3f000000
PUBLIC	__real@3f147ae2
PUBLIC	__real@3f17ac60
PUBLIC	__real@3f19999a
PUBLIC	__real@3f333333
PUBLIC	__real@3f400000
PUBLIC	__real@3f4ccccd
PUBLIC	__real@3f547ae1
PUBLIC	__real@3f570a3d
PUBLIC	__real@3f59999a
PUBLIC	__real@3f63d70a
PUBLIC	__real@3f666666
PUBLIC	__real@3f666667
PUBLIC	__real@3f6b851e
PUBLIC	__real@3f6b851f
PUBLIC	__real@3f733333
PUBLIC	__real@3f7d70a4
PUBLIC	__real@3f800000
PUBLIC	__real@3f81df4680000000
PUBLIC	__real@3f860a91
PUBLIC	__real@3f99999a
PUBLIC	__real@3fc00000
PUBLIC	__real@3feb333333333333
PUBLIC	__real@3fefae147ae147ae
PUBLIC	__real@3ff0000000000000
PUBLIC	__real@3ff07ae147ae147b
PUBLIC	__real@3ff921fb54442d18
PUBLIC	__real@40000000
PUBLIC	__real@400921fb54442d18
PUBLIC	__real@4010000000000000
PUBLIC	__real@40400000
PUBLIC	__real@40a00000
PUBLIC	__real@40c90fd9
PUBLIC	__real@41200000
PUBLIC	__real@41400000
PUBLIC	__real@41700000
PUBLIC	__real@42200000
PUBLIC	__real@42652ee1
PUBLIC	__real@42700000
PUBLIC	__real@42c80000
PUBLIC	__real@42c8000d
PUBLIC	__real@42ce0000
PUBLIC	__real@43070000
PUBLIC	__real@43b40000
PUBLIC	__real@43c7fffd
PUBLIC	__real@442f0000
PUBLIC	__real@447a0000
PUBLIC	__real@44fa0000
PUBLIC	__real@451c400a
PUBLIC	__real@459c4000
PUBLIC	__real@466a6000
PUBLIC	__real@47ccffae
PUBLIC	__real@48742400
PUBLIC	__real@8000000000000000
PUBLIC	__real@bf733333
PUBLIC	__real@bf7d70a4
PUBLIC	__real@bf800000
PUBLIC	__real@bff921fb54442d18
PUBLIC	__real@c2f0f6c0
PUBLIC	__real@c37f0000
PUBLIC	__real@c61c4000
PUBLIC	__xmm@41f00000000000000000000000000000
PUBLIC	__xmm@80000000800000008000000080000000
EXTRN	__purecall:PROC
EXTRN	??2@YAPAXI@Z:PROC				; operator new
EXTRN	??3@YAXPAX@Z:PROC				; operator delete
EXTRN	_atexit:PROC
EXTRN	___report_rangecheckfailure:PROC
EXTRN	_sprintf:PROC
EXTRN	_atan:PROC
EXTRN	_fabs:PROC
EXTRN	_sin:PROC
EXTRN	_tan:PROC
EXTRN	_free:PROC
EXTRN	_memcpy:PROC
EXTRN	_strcpy:PROC
EXTRN	_strcat:PROC
EXTRN	_strlen:PROC
EXTRN	_memmove:PROC
EXTRN	__finite:PROC
EXTRN	__isnan:PROC
EXTRN	__imp__GetTickCount@0:PROC
EXTRN	?VuReferenceEntity@@YAHPAVVuEntity@@@Z:PROC	; VuReferenceEntity
EXTRN	?VuDeReferenceEntity@@YAHPAVVuEntity@@@Z:PROC	; VuDeReferenceEntity
EXTRN	?SetPosition@VuEntity@@QAEXMMM@Z:PROC		; VuEntity::SetPosition
EXTRN	?IsLocal@VuEntity@@QBEEXZ:PROC			; VuEntity::IsLocal
EXTRN	?_Xbad_alloc@std@@YAXXZ:PROC			; std::_Xbad_alloc
EXTRN	?_Xlength_error@std@@YAXPBD@Z:PROC		; std::_Xlength_error
EXTRN	?_Xout_of_range@std@@YAXPBD@Z:PROC		; std::_Xout_of_range
EXTRN	?GetCameraEntity@VuSessionEntity@@QBEPAVVuEntity@@E@Z:PROC ; VuSessionEntity::GetCameraEntity
EXTRN	?AttachCamera@VuSessionEntity@@QAEHPAVVuEntity@@_N@Z:PROC ; VuSessionEntity::AttachCamera
EXTRN	?RemoveCamera@VuSessionEntity@@QAEHPAVVuEntity@@_N@Z:PROC ; VuSessionEntity::RemoveCamera
EXTRN	??0VuListIterator@@QAE@PAVVuLinkedList@@@Z:PROC	; VuListIterator::VuListIterator
EXTRN	??1VuListIterator@@UAE@XZ:PROC			; VuListIterator::~VuListIterator
EXTRN	?GetFirst@VuListIterator@@QAEPAVVuEntity@@XZ:PROC ; VuListIterator::GetFirst
EXTRN	?GetNext@VuListIterator@@QAEPAVVuEntity@@XZ:PROC ; VuListIterator::GetNext
EXTRN	?MatrixMult@@YAXPBUTrotation@@0PAU1@@Z:PROC	; MatrixMult
EXTRN	?MatrixMult@@YAXPBUTrotation@@PBUTpoint@@PAU2@@Z:PROC ; MatrixMult
EXTRN	??_Eerror_category@std@@UAEPAXI@Z:PROC		; std::error_category::`vector deleting destructor'
EXTRN	?_Syserror_map@std@@YAPBDH@Z:PROC		; std::_Syserror_map
EXTRN	?_Winerror_map@std@@YAPBDH@Z:PROC		; std::_Winerror_map
EXTRN	??_E_Generic_error_category@std@@UAEPAXI@Z:PROC	; std::_Generic_error_category::`vector deleting destructor'
EXTRN	??_E_Iostream_error_category@std@@UAEPAXI@Z:PROC ; std::_Iostream_error_category::`vector deleting destructor'
EXTRN	??_E_System_error_category@std@@UAEPAXI@Z:PROC	; std::_System_error_category::`vector deleting destructor'
EXTRN	?TestCooperativeLevel@DXContext@@QAEKXZ:PROC	; DXContext::TestCooperativeLevel
EXTRN	?ClearBuffers@ContextMPR@@QAEXG@Z:PROC		; ContextMPR::ClearBuffers
EXTRN	?StartFrame@ContextMPR@@QAEXXZ:PROC		; ContextMPR::StartFrame
EXTRN	?FinishFrame@ContextMPR@@QAEXPAX@Z:PROC		; ContextMPR::FinishFrame
EXTRN	?RestoreState@ContextMPR@@QAEXH@Z:PROC		; ContextMPR::RestoreState
EXTRN	?SetZBuffering@ContextMPR@@QAEXH@Z:PROC		; ContextMPR::SetZBuffering
EXTRN	?SetNVGmode@ContextMPR@@QAEXH@Z:PROC		; ContextMPR::SetNVGmode
EXTRN	?FlushPolyLists@ContextMPR@@QAEXXZ:PROC		; ContextMPR::FlushPolyLists
EXTRN	?RestoreAll@ImageBuffer@@QAEXXZ:PROC		; ImageBuffer::RestoreAll
EXTRN	?SwapBuffers@ImageBuffer@@QAEX_N@Z:PROC		; ImageBuffer::SwapBuffers
EXTRN	?ScreenTextWidth@VirtualDisplay@@SAHPBD@Z:PROC	; VirtualDisplay::ScreenTextWidth
EXTRN	?SetFont@VirtualDisplay@@SAXH@Z:PROC		; VirtualDisplay::SetFont
EXTRN	?GetViewport@VirtualDisplay@@QAEXPAM000@Z:PROC	; VirtualDisplay::GetViewport
EXTRN	?DrawScene@RenderOTW@@QAEXPBUTpoint@@PBUTrotation@@@Z:PROC ; RenderOTW::DrawScene
EXTRN	?PreLoadScene@RenderOTW@@QAEXPBUTpoint@@PBUTrotation@@@Z:PROC ; RenderOTW::PreLoadScene
EXTRN	?SetTunnelPercent@RenderOTW@@QAEXMK@Z:PROC	; RenderOTW::SetTunnelPercent
EXTRN	?DrawTunnelBorder@RenderOTW@@QAEXXZ:PROC	; RenderOTW::DrawTunnelBorder
EXTRN	?Update@RViewPoint@@QAEXPBUTpoint@@@Z:PROC	; RViewPoint::Update
EXTRN	?Draw2DLensFlare@@YAXPAVRenderOTW@@@Z:PROC	; Draw2DLensFlare
EXTRN	?SetTime@TimeManager@@QAEXK@Z:PROC		; TimeManager::SetTime
EXTRN	?Refresh@TimeManager@@QAEXXZ:PROC		; TimeManager::Refresh
EXTRN	?RestoreAll@TextureBankClass@@SAXXZ:PROC	; TextureBankClass::RestoreAll
EXTRN	?ResetLightsList@CDXLight@@QAEXXZ:PROC		; CDXLight::ResetLightsList
EXTRN	?SetStencilMode@CDXEngine@@QAEKK@Z:PROC		; CDXEngine::SetStencilMode
EXTRN	?GetHudColor@HudClass@@QAEKXZ:PROC		; HudClass::GetHudColor
EXTRN	?Exec@MFDClass@@QAEXHH@Z:PROC			; MFDClass::Exec
EXTRN	?SetImageBuffer@MFDClass@@QAEXPAVImageBuffer@@MMMM@Z:PROC ; MFDClass::SetImageBuffer
EXTRN	?FindSensor@@YAPAVSensorClass@@PAVSimMoverClass@@H@Z:PROC ; FindSensor
EXTRN	__imp__timeGetTime@0:PROC
EXTRN	_F4SoundFXSetDist:PROC
EXTRN	_F4SoundFXSetCamPosAndOrient:PROC
EXTRN	?RestoreAll@TextureDB@@QAEXXZ:PROC		; TextureDB::RestoreAll
EXTRN	?SetOTWDisplayMode@OTWDriverClass@@QAEXW4OTWDisplayMode@1@@Z:PROC ; OTWDriverClass::SetOTWDisplayMode
EXTRN	?GetOTWDisplayMode@OTWDriverClass@@QAE?AW4OTWDisplayMode@1@XZ:PROC ; OTWDriverClass::GetOTWDisplayMode
EXTRN	?Draw2DHud@OTWDriverClass@@QAEXXZ:PROC		; OTWDriverClass::Draw2DHud
EXTRN	?GetGroundLevel@OTWDriverClass@@QAEMMMPAUTpoint@@@Z:PROC ; OTWDriverClass::GetGroundLevel
EXTRN	?GetApproxGroundLevel@OTWDriverClass@@QAEMMM@Z:PROC ; OTWDriverClass::GetApproxGroundLevel
EXTRN	?GetAreaFloorAndCeiling@OTWDriverClass@@QAEXPAM0@Z:PROC ; OTWDriverClass::GetAreaFloorAndCeiling
EXTRN	?FlushNearList@OTWDriverClass@@QAEXXZ:PROC	; OTWDriverClass::FlushNearList
EXTRN	?UpdateCameraFocus@OTWDriverClass@@QAEXXZ:PROC	; OTWDriverClass::UpdateCameraFocus
EXTRN	?SetFOV@OTWDriverClass@@QAEXM@Z:PROC		; OTWDriverClass::SetFOV
EXTRN	?GetFOV@OTWDriverClass@@QAEMXZ:PROC		; OTWDriverClass::GetFOV
EXTRN	?ScrollMessages@OTWDriverClass@@QAEXXZ:PROC	; OTWDriverClass::ScrollMessages
EXTRN	?RunActionCamera@OTWDriverClass@@QAEXXZ:PROC	; OTWDriverClass::RunActionCamera
EXTRN	?SetExitMenu@OTWDriverClass@@QAEXH@Z:PROC	; OTWDriverClass::SetExitMenu
EXTRN	?FindNewOwnship@OTWDriverClass@@AAEXXZ:PROC	; OTWDriverClass::FindNewOwnship
EXTRN	?SetExternalCameraPosition@OTWDriverClass@@AAEXM@Z:PROC ; OTWDriverClass::SetExternalCameraPosition
EXTRN	?SetFlybyCameraPosition@OTWDriverClass@@AAEXM@Z:PROC ; OTWDriverClass::SetFlybyCameraPosition
EXTRN	?SetEyeFlyCameraPosition@OTWDriverClass@@AAEXM@Z:PROC ; OTWDriverClass::SetEyeFlyCameraPosition
EXTRN	?UpdateVehicleDrawables@OTWDriverClass@@AAEXXZ:PROC ; OTWDriverClass::UpdateVehicleDrawables
EXTRN	?BuildExternalNearList@OTWDriverClass@@AAEXXZ:PROC ; OTWDriverClass::BuildExternalNearList
EXTRN	?GetUserPosition@OTWDriverClass@@AAEXXZ:PROC	; OTWDriverClass::GetUserPosition
EXTRN	?ShowVersionString@OTWDriverClass@@AAEXXZ:PROC	; OTWDriverClass::ShowVersionString
EXTRN	?ShowPosition@OTWDriverClass@@AAEXXZ:PROC	; OTWDriverClass::ShowPosition
EXTRN	?ShowAerodynamics@OTWDriverClass@@AAEXXZ:PROC	; OTWDriverClass::ShowAerodynamics
EXTRN	?ShowFlaps@OTWDriverClass@@AAEXXZ:PROC		; OTWDriverClass::ShowFlaps
EXTRN	?ShowEngine@OTWDriverClass@@AAEXXZ:PROC		; OTWDriverClass::ShowEngine
EXTRN	?ShowCatMessage@OTWDriverClass@@AAEXXZ:PROC	; OTWDriverClass::ShowCatMessage
EXTRN	?TakeScreenShot@OTWDriverClass@@AAEXXZ:PROC	; OTWDriverClass::TakeScreenShot
EXTRN	?DrawExitMenu@OTWDriverClass@@AAEXXZ:PROC	; OTWDriverClass::DrawExitMenu
EXTRN	?ShowThrustReverse@OTWDriverClass@@AAEXXZ:PROC	; OTWDriverClass::ShowThrustReverse
EXTRN	?RunHybridPitMode@OTWDriverClass@@AAEXMM@Z:PROC	; OTWDriverClass::RunHybridPitMode
EXTRN	?GetHybridPitMode@OTWDriverClass@@QAEHXZ:PROC	; OTWDriverClass::GetHybridPitMode
EXTRN	?DrawExternalViewTarget@OTWDriverClass@@AAEXXZ:PROC ; OTWDriverClass::DrawExternalViewTarget
EXTRN	?BuildHeadMatrix@OTWDriverClass@@AAEXHHMMM@Z:PROC ; OTWDriverClass::BuildHeadMatrix
EXTRN	?Padlock_FindNextPriority@OTWDriverClass@@AAEXH@Z:PROC ; OTWDriverClass::Padlock_FindNextPriority
EXTRN	?Padlock_CheckPadlock@OTWDriverClass@@AAEXM@Z:PROC ; OTWDriverClass::Padlock_CheckPadlock
EXTRN	?Padlock_DrawSquares@OTWDriverClass@@AAEXH@Z:PROC ; OTWDriverClass::Padlock_DrawSquares
EXTRN	?PadlockF3_CalcCamera@OTWDriverClass@@AAEXM@Z:PROC ; OTWDriverClass::PadlockF3_CalcCamera
EXTRN	?PadlockF3_Draw@OTWDriverClass@@AAEXXZ:PROC	; OTWDriverClass::PadlockF3_Draw
EXTRN	?PadlockEFOV_Draw@OTWDriverClass@@AAEXXZ:PROC	; OTWDriverClass::PadlockEFOV_Draw
EXTRN	?VCock_GiveGilmanHead@OTWDriverClass@@AAEXM@Z:PROC ; OTWDriverClass::VCock_GiveGilmanHead
EXTRN	?VCock_DrawThePit@OTWDriverClass@@AAEXXZ:PROC	; OTWDriverClass::VCock_DrawThePit
EXTRN	?VCock_HeadCalc@OTWDriverClass@@AAEXXZ:PROC	; OTWDriverClass::VCock_HeadCalc
EXTRN	?VCock_Exec@OTWDriverClass@@AAEXXZ:PROC		; OTWDriverClass::VCock_Exec
EXTRN	?CockAttachWeapons@OTWDriverClass@@QAEXXZ:PROC	; OTWDriverClass::CockAttachWeapons
EXTRN	?CockDetachWeapons@OTWDriverClass@@QAEXXZ:PROC	; OTWDriverClass::CockDetachWeapons
EXTRN	?GetFault@FackClass@@QAEHW4type_FSubSystem@FaultClass@@@Z:PROC ; FackClass::GetFault
EXTRN	?ExecPfl@ICPClass@@QAEXXZ:PROC			; ICPClass::ExecPfl
EXTRN	?Exec@ICPClass@@QAEXXZ:PROC			; ICPClass::Exec
EXTRN	?Exec@CockpitManager@@QAEXXZ:PROC		; CockpitManager::Exec
EXTRN	?DisplayBlit@CockpitManager@@QAEXXZ:PROC	; CockpitManager::DisplayBlit
EXTRN	?DisplayDraw@CockpitManager@@QAEXXZ:PROC	; CockpitManager::DisplayDraw
EXTRN	?GeometryDraw@CockpitManager@@QAEXXZ:PROC	; CockpitManager::GeometryDraw
EXTRN	?DisplayBlit3D@CockpitManager@@QAEXXZ:PROC	; CockpitManager::DisplayBlit3D
EXTRN	?ShowHud@CockpitManager@@QAEHXZ:PROC		; CockpitManager::ShowHud
EXTRN	?ShowRwr@CockpitManager@@QAEHXZ:PROC		; CockpitManager::ShowRwr
EXTRN	?GetViewportBounds@CockpitManager@@QAEHPAUViewportBounds@@H@Z:PROC ; CockpitManager::GetViewportBounds
EXTRN	?GetCockpitMaskTop@CockpitManager@@QAEMXZ:PROC	; CockpitManager::GetCockpitMaskTop
EXTRN	?SetNextView@CockpitManager@@QAEXXZ:PROC	; CockpitManager::SetNextView
EXTRN	?GetPan@CockpitManager@@QAEMXZ:PROC		; CockpitManager::GetPan
EXTRN	?GetTilt@CockpitManager@@QAEMXZ:PROC		; CockpitManager::GetTilt
EXTRN	?SetTOD@CockpitManager@@QAEXM@Z:PROC		; CockpitManager::SetTOD
EXTRN	?LoadCockpitDefaults@CockpitManager@@QAEXXZ:PROC ; CockpitManager::LoadCockpitDefaults
EXTRN	?MFDFont@CockpitManager@@QAEHXZ:PROC		; CockpitManager::MFDFont
EXTRN	?Set2DPanelDirection@CockpitManager@@QAEHMM@Z:PROC ; CockpitManager::Set2DPanelDirection
EXTRN	?CockAttachWeapons@CockpitManager@@QAEXXZ:PROC	; CockpitManager::CockAttachWeapons
EXTRN	?CockDetachWeapons@CockpitManager@@QAEXXZ:PROC	; CockpitManager::CockDetachWeapons
EXTRN	?SetTurbulence@CockpitManager@@QAEXXZ:PROC	; CockpitManager::SetTurbulence
EXTRN	?AddTurbulenceVp@CockpitManager@@QAEXPAUViewportBounds@@@Z:PROC ; CockpitManager::AddTurbulenceVp
EXTRN	?StopGraphics@SimulationLoopControl@@SAXXZ:PROC	; SimulationLoopControl::StopGraphics
EXTRN	?SetAutopilot@AircraftClass@@QAEXW4AutoPilotType@1@@Z:PROC ; AircraftClass::SetAutopilot
EXTRN	?HasPower@AircraftClass@@QAEHW4AvionicsPowerFlags@1@@Z:PROC ; AircraftClass::HasPower
EXTRN	?GetPlayerAircraft@SimulationDriver@@QBEPAVAircraftClass@@XZ:PROC ; SimulationDriver::GetPlayerAircraft
EXTRN	?POVKludgeFunction@SimulationDriver@@QAEXK@Z:PROC ; SimulationDriver::POVKludgeFunction
EXTRN	?GetTacanChannel@NavigationSystem@@QAEHW4Tacan_Channel_Src@1@@Z:PROC ; NavigationSystem::GetTacanChannel
EXTRN	?Exec@CPHsi@@QAEXXZ:PROC			; CPHsi::Exec
EXTRN	?GetState@CPHsi@@QAEHW4HSIButtonStates@1@@Z:PROC ; CPHsi::GetState
EXTRN	?GetValue@CPHsi@@QAEMW4HSIValues@1@@Z:PROC	; CPHsi::GetValue
EXTRN	?GetFlag@CPHsi@@QAEHW4HSIFlags@1@@Z:PROC	; CPHsi::GetFlag
EXTRN	?RefreshWeather@RealWeather@@QAEXPAVRenderOTW@@@Z:PROC ; RealWeather::RefreshWeather
EXTRN	?UpdateWeather@WeatherClass@@QAEXXZ:PROC	; WeatherClass::UpdateWeather
EXTRN	?WindSpeedInFeetPerSecond@WeatherClass@@QAEMPBUTpoint@@@Z:PROC ; WeatherClass::WindSpeedInFeetPerSecond
EXTRN	?WindHeadingAt@WeatherClass@@QAEMPBUTpoint@@@Z:PROC ; WeatherClass::WindHeadingAt
EXTRN	?PercentTapeFull@ACMIRecorder@@QAEHXZ:PROC	; ACMIRecorder::PercentTapeFull
EXTRN	?ClipAndDrawCursor@@YAXHH@Z:PROC		; ClipAndDrawCursor
EXTRN	?SimInteriorLight@@YAXKHPAX@Z:PROC		; SimInteriorLight
EXTRN	?SimInstrumentLight@@YAXKHPAX@Z:PROC		; SimInstrumentLight
EXTRN	?GetFuel@AirframeClass@@QAEXPAM00@Z:PROC	; AirframeClass::GetFuel
EXTRN	?DisplayDraw@MenuManager@@QAEXXZ:PROC		; MenuManager::DisplayDraw
EXTRN	?DeActivate@MenuManager@@QAEXXZ:PROC		; MenuManager::DeActivate
EXTRN	?RestoreAll@FarTexDB@@QAEXXZ:PROC		; FarTexDB::RestoreAll
EXTRN	?GetTimeSortedMessages@RadioSubTitle@@QAEPAPAUColouredSubTitle@@K@Z:PROC ; RadioSubTitle::GetTimeSortedMessages
EXTRN	?MakeTacEngScoreList@@YAXXZ:PROC		; MakeTacEngScoreList
EXTRN	?MakeDogfightTopTen@@YAXH@Z:PROC		; MakeDogfightTopTen
EXTRN	?TrackIR_2D_Map@TrackIR@@QAEHXZ:PROC		; TrackIR::TrackIR_2D_Map
EXTRN	?GetAxisValue@SIMLIB_IO_CLASS@@QAEHW4GameAxis_t@@@Z:PROC ; SIMLIB_IO_CLASS::GetAxisValue
EXTRN	@__security_check_cookie@4:PROC
EXTRN	__CxxThrowException@8:PROC
EXTRN	___CxxFrameHandler3:PROC
EXTRN	?vuLocalSessionEntity@@3V?$VuBin@VVuSessionEntity@@@@A:DWORD ; vuLocalSessionEntity
EXTRN	?vuxGameTime@@3KA:DWORD				; vuxGameTime
EXTRN	?vuxRealTime@@3KA:DWORD				; vuxRealTime
EXTRN	?SimLibElapsedTime@@3KA:DWORD			; SimLibElapsedTime
EXTRN	?TheTimeOfDay@@3VCTimeOfDay@@A:BYTE		; TheTimeOfDay
EXTRN	??_7type_info@@6B@:QWORD			; type_info::`vftable'
EXTRN	?pFontSet@VirtualDisplay@@2PAUFontSet@@A:DWORD	; VirtualDisplay::pFontSet
EXTRN	?RatedLoad@ObjectLOD@@1_NA:BYTE			; ObjectLOD::RatedLoad
EXTRN	?drawLabels@DrawableBSP@@2HA:DWORD		; DrawableBSP::drawLabels
EXTRN	?TheTimeManager@@3VTimeManager@@A:BYTE		; TheTimeManager
EXTRN	?RatedLoad@TextureBankClass@@1_NA:BYTE		; TextureBankClass::RatedLoad
EXTRN	?TheLightEngine@@3VCDXLight@@A:BYTE		; TheLightEngine
EXTRN	?m_StencilRef@CDXEngine@@0KA:DWORD		; CDXEngine::m_StencilRef
EXTRN	?m_PitMode@CDXEngine@@0_NA:BYTE			; CDXEngine::m_PitMode
EXTRN	?m_pD3DD@CDXEngine@@0PAUIDirect3DDevice7@@A:DWORD ; CDXEngine::m_pD3DD
EXTRN	?m_RenderState@CDXEngine@@0W4DX_StateType@@A:DWORD ; CDXEngine::m_RenderState
EXTRN	?m_StatesStackLevel@CDXEngine@@0KA:DWORD	; CDXEngine::m_StatesStackLevel
EXTRN	?TheDXEngine@@3VCDXEngine@@A:BYTE		; TheDXEngine
EXTRN	?gameCompressionRatio@@3HA:DWORD		; gameCompressionRatio
EXTRN	?targetCompressionRatio@@3HA:DWORD		; targetCompressionRatio
EXTRN	?remoteCompressionRequests@@3HA:DWORD		; remoteCompressionRequests
EXTRN	?TheHud@@3PAVHudClass@@A:DWORD			; TheHud
EXTRN	?MfdDisplay@@3PAPAVMFDClass@@A:BYTE		; MfdDisplay
EXTRN	?TheTerrTextures@@3VTextureDB@@A:BYTE		; TheTerrTextures
EXTRN	?PlayerOptions@@3VPlayerOptionsClass@@A:BYTE	; PlayerOptions
EXTRN	?OTWDriver@@3VOTWDriverClass@@A:BYTE		; OTWDriver
EXTRN	?DisplayOptions@@3VDisplayOptionsClass@@A:BYTE	; DisplayOptions
EXTRN	?cockpitFlightData@@3VFlightData@@A:BYTE	; cockpitFlightData
EXTRN	?gDoCockpitHack@@3HA:DWORD			; gDoCockpitHack
EXTRN	?ComplexGearDOF@@3PAHA:BYTE			; ComplexGearDOF
EXTRN	?SimDriver@@3VSimulationDriver@@A:BYTE		; SimDriver
EXTRN	?gNavigationSys@@3PAVNavigationSystem@@A:DWORD	; gNavigationSys
EXTRN	?realWeather@@3PAVRealWeather@@A:DWORD		; realWeather
EXTRN	?gACMIRec@@3VACMIRecorder@@A:BYTE		; gACMIRec
EXTRN	?gSelectedCursor@@3HA:DWORD			; gSelectedCursor
EXTRN	?gSimInputEnabled@@3HA:DWORD			; gSimInputEnabled
EXTRN	?gTimeLastCursorUpdate@@3KA:DWORD		; gTimeLastCursorUpdate
EXTRN	?SimDogfight@@3VDogfightClass@@A:BYTE		; SimDogfight
EXTRN	?gCommsMgr@@3PAVUIComms@@A:DWORD		; gCommsMgr
EXTRN	?UserStickInputs@@3VPilotInputs@@A:BYTE		; UserStickInputs
EXTRN	?g_intellivibeData@@3VIntellivibeData@@A:BYTE	; g_intellivibeData
EXTRN	?TheFarTextures@@3VFarTexDB@@A:BYTE		; TheFarTextures
EXTRN	?radioLabel@@3PAVRadioSubTitle@@A:DWORD		; radioLabel
EXTRN	?weatherCondition@@3HA:DWORD			; weatherCondition
EXTRN	?mHelmetIsUR@@3JA:DWORD				; mHelmetIsUR
EXTRN	?g_bLookCloserFix@@3_NA:BYTE			; g_bLookCloserFix
EXTRN	?g_bLensFlare@@3_NA:BYTE			; g_bLensFlare
EXTRN	?g_bACMIRecordMsgOff@@3_NA:BYTE			; g_bACMIRecordMsgOff
EXTRN	?g_fMaximumFOV@@3MA:DWORD			; g_fMaximumFOV
EXTRN	?g_fMinimumFOV@@3MA:DWORD			; g_fMinimumFOV
EXTRN	?g_nNewFPSCounter@@3HA:DWORD			; g_nNewFPSCounter
EXTRN	?g_bNew2DTrackIR@@3_NA:BYTE			; g_bNew2DTrackIR
EXTRN	?CompressionStr@@3PAY0BE@DA:BYTE		; CompressionStr
EXTRN	?CameraLabel@@3PAY0CI@DA:BYTE			; CameraLabel
EXTRN	?lTestFlag1@@3HA:DWORD				; lTestFlag1
EXTRN	?gRefreshScoresList@@3JA:DWORD			; gRefreshScoresList
EXTRN	?gScoreName@@3PAY0BO@DA:BYTE			; gScoreName
EXTRN	?gScorePoints@@3PAY09DA:BYTE			; gScorePoints
EXTRN	?g_nPadlockMode@@3HA:DWORD			; g_nPadlockMode
EXTRN	?g_bNoMFDsIn1View@@3_NA:BYTE			; g_bNoMFDsIn1View
EXTRN	?ShowVersion@@3HA:DWORD				; ShowVersion
EXTRN	?ShowFrameRate@@3HA:DWORD			; ShowFrameRate
EXTRN	?eyeFlyTgt@@3PAVSimBaseClass@@A:DWORD		; eyeFlyTgt
EXTRN	?gSharedMemPtr@@3PAXA:DWORD			; gSharedMemPtr
EXTRN	?gSharedIntellivibe@@3PAXA:DWORD		; gSharedIntellivibe
EXTRN	?nextCampObjectHeightRefresh@@3KA:DWORD		; nextCampObjectHeightRefresh
EXTRN	?chatterCount@@3IA:DWORD			; chatterCount
EXTRN	?chatterStr@@3PADA:BYTE				; chatterStr
EXTRN	?gOtwCameraLocation@@3PAVFalconEntity@@A:DWORD	; gOtwCameraLocation
EXTRN	?g_bEnableTrackIR@@3_NA:BYTE			; g_bEnableTrackIR
EXTRN	?theTrackIRObject@@3VTrackIR@@A:BYTE		; theTrackIRObject
EXTRN	?g_nTrackIRSampleFreq@@3HA:DWORD		; g_nTrackIRSampleFreq
EXTRN	?IO@@3VSIMLIB_IO_CLASS@@A:BYTE			; IO
EXTRN	?MouseMenuActive@@3_NA:BYTE			; MouseMenuActive
EXTRN	?hudViewportBounds@@3UViewportBounds@@A:BYTE	; hudViewportBounds
EXTRN	___security_cookie:DWORD
EXTRN	__fltused:DWORD
_BSS	SEGMENT
	ALIGN	4

_piecewise_construct DB 01H DUP (?)
	ALIGN	4

_allocator_arg DB 01H DUP (?)
_BSS	ENDS
;	COMDAT ?_Generic_object@?$_Error_objects@H@std@@2V_Generic_error_category@2@A
_BSS	SEGMENT
?_Generic_object@?$_Error_objects@H@std@@2V_Generic_error_category@2@A DD 01H DUP (?) ; std::_Error_objects<int>::_Generic_object
_BSS	ENDS
;	COMDAT ?_Iostream_object@?$_Error_objects@H@std@@2V_Iostream_error_category@2@A
_BSS	SEGMENT
?_Iostream_object@?$_Error_objects@H@std@@2V_Iostream_error_category@2@A DD 01H DUP (?) ; std::_Error_objects<int>::_Iostream_object
_BSS	ENDS
;	COMDAT ?_System_object@?$_Error_objects@H@std@@2V_System_error_category@2@A
_BSS	SEGMENT
?_System_object@?$_Error_objects@H@std@@2V_System_error_category@2@A DD 01H DUP (?) ; std::_Error_objects<int>::_System_object
_BSS	ENDS
;	COMDAT ?id@?$num_put@DV?$back_insert_iterator@V?$basic_string@DU?$char_traits@D@std@@V?$allocator@D@2@@std@@@std@@@std@@2V0locale@2@A
_BSS	SEGMENT
?id@?$num_put@DV?$back_insert_iterator@V?$basic_string@DU?$char_traits@D@std@@V?$allocator@D@2@@std@@@std@@@std@@2V0locale@2@A DD 01H DUP (?) ; std::num_put<char,std::back_insert_iterator<std::basic_string<char,std::char_traits<char>,std::allocator<char> > > >::id
_BSS	ENDS
;	COMDAT ?id@?$num_put@_WV?$back_insert_iterator@V?$basic_string@_WU?$char_traits@_W@std@@V?$allocator@_W@2@@std@@@std@@@std@@2V0locale@2@A
_BSS	SEGMENT
?id@?$num_put@_WV?$back_insert_iterator@V?$basic_string@_WU?$char_traits@_W@std@@V?$allocator@_W@2@@std@@@std@@@std@@2V0locale@2@A DD 01H DUP (?) ; std::num_put<wchar_t,std::back_insert_iterator<std::basic_string<wchar_t,std::char_traits<wchar_t>,std::allocator<wchar_t> > > >::id
_BSS	ENDS
_BSS	SEGMENT
	ALIGN	4

_tmpStr	DB	080H DUP (?)
_BSS	ENDS
;	COMDAT ?newsecond@?PB@??DisplayFrontText@OTWDriverClass@@QAEXXZ@4MA
_BSS	SEGMENT
?newsecond@?PB@??DisplayFrontText@OTWDriverClass@@QAEXXZ@4MA DD 01H DUP (?) ; `OTWDriverClass::DisplayFrontText'::`241'::newsecond
_BSS	ENDS
;	COMDAT ?numframes@?PB@??DisplayFrontText@OTWDriverClass@@QAEXXZ@4HA
_BSS	SEGMENT
?numframes@?PB@??DisplayFrontText@OTWDriverClass@@QAEXXZ@4HA DD 01H DUP (?) ; `OTWDriverClass::DisplayFrontText'::`241'::numframes
_BSS	ENDS
;	COMDAT ?lastfps@?PB@??DisplayFrontText@OTWDriverClass@@QAEXXZ@4HA
_BSS	SEGMENT
?lastfps@?PB@??DisplayFrontText@OTWDriverClass@@QAEXXZ@4HA DD 01H DUP (?) ; `OTWDriverClass::DisplayFrontText'::`241'::lastfps
_BSS	ENDS
;	COMDAT ?count@?1??RenderFrame@OTWDriverClass@@QAEXXZ@4HA
_BSS	SEGMENT
?count@?1??RenderFrame@OTWDriverClass@@QAEXXZ@4HA DD 01H DUP (?) ; `OTWDriverClass::RenderFrame'::`2'::count
_BSS	ENDS
;	COMDAT ?lastpan@?1??RunNew2DTrackIR@OTWDriverClass@@AAEXMM@Z@4MA
_BSS	SEGMENT
?lastpan@?1??RunNew2DTrackIR@OTWDriverClass@@AAEXMM@Z@4MA DD 01H DUP (?) ; `OTWDriverClass::RunNew2DTrackIR'::`2'::lastpan
_BSS	ENDS
;	COMDAT ?$S1@?1??RunNew2DTrackIR@OTWDriverClass@@AAEXMM@Z@4IA
_BSS	SEGMENT
?$S1@?1??RunNew2DTrackIR@OTWDriverClass@@AAEXMM@Z@4IA DD 01H DUP (?) ; `OTWDriverClass::RunNew2DTrackIR'::`2'::$S1
_BSS	ENDS
;	COMDAT ?lasttilt@?1??RunNew2DTrackIR@OTWDriverClass@@AAEXMM@Z@4MA
_BSS	SEGMENT
?lasttilt@?1??RunNew2DTrackIR@OTWDriverClass@@AAEXMM@Z@4MA DD 01H DUP (?) ; `OTWDriverClass::RunNew2DTrackIR'::`2'::lasttilt
_BSS	ENDS
;	COMDAT ?id@?$numpunct@D@std@@2V0locale@2@A
_BSS	SEGMENT
?id@?$numpunct@D@std@@2V0locale@2@A DD 01H DUP (?)	; std::numpunct<char>::id
_BSS	ENDS
;	COMDAT ?id@?$numpunct@_W@std@@2V0locale@2@A
_BSS	SEGMENT
?id@?$numpunct@_W@std@@2V0locale@2@A DD 01H DUP (?)	; std::numpunct<wchar_t>::id
_BSS	ENDS
CRT$XCU	SEGMENT
_piecewise_construct$initializer$ DD FLAT:??__Epiecewise_construct@std@@YAXXZ
CRT$XCU	ENDS
;	COMDAT __xmm@80000000800000008000000080000000
CONST	SEGMENT
__xmm@80000000800000008000000080000000 DB 00H, 00H, 00H, 080H, 00H, 00H, 00H
	DB	080H, 00H, 00H, 00H, 080H, 00H, 00H, 00H, 080H
CONST	ENDS
;	COMDAT __xmm@41f00000000000000000000000000000
CONST	SEGMENT
__xmm@41f00000000000000000000000000000 DB 00H, 00H, 00H, 00H, 00H, 00H, 00H
	DB	00H, 00H, 00H, 00H, 00H, 00H, 00H, 0f0H, 'A'
CONST	ENDS
;	COMDAT __real@c61c4000
CONST	SEGMENT
__real@c61c4000 DD 0c61c4000r			; -10000
CONST	ENDS
;	COMDAT __real@c37f0000
CONST	SEGMENT
__real@c37f0000 DD 0c37f0000r			; -255
CONST	ENDS
;	COMDAT __real@c2f0f6c0
CONST	SEGMENT
__real@c2f0f6c0 DD 0c2f0f6c0r			; -120.482
CONST	ENDS
;	COMDAT __real@bff921fb54442d18
CONST	SEGMENT
__real@bff921fb54442d18 DQ 0bff921fb54442d18r	; -1.5708
CONST	ENDS
;	COMDAT __real@bf800000
CONST	SEGMENT
__real@bf800000 DD 0bf800000r			; -1
CONST	ENDS
;	COMDAT __real@bf7d70a4
CONST	SEGMENT
__real@bf7d70a4 DD 0bf7d70a4r			; -0.99
CONST	ENDS
;	COMDAT __real@bf733333
CONST	SEGMENT
__real@bf733333 DD 0bf733333r			; -0.95
CONST	ENDS
;	COMDAT __real@8000000000000000
CONST	SEGMENT
__real@8000000000000000 DQ 08000000000000000r	; -0
CONST	ENDS
;	COMDAT __real@48742400
CONST	SEGMENT
__real@48742400 DD 048742400r			; 250000
CONST	ENDS
;	COMDAT __real@47ccffae
CONST	SEGMENT
__real@47ccffae DD 047ccffaer			; 104959
CONST	ENDS
;	COMDAT __real@466a6000
CONST	SEGMENT
__real@466a6000 DD 0466a6000r			; 15000
CONST	ENDS
;	COMDAT __real@459c4000
CONST	SEGMENT
__real@459c4000 DD 0459c4000r			; 5000
CONST	ENDS
;	COMDAT __real@451c400a
CONST	SEGMENT
__real@451c400a DD 0451c400ar			; 2500
CONST	ENDS
;	COMDAT __real@44fa0000
CONST	SEGMENT
__real@44fa0000 DD 044fa0000r			; 2000
CONST	ENDS
;	COMDAT __real@447a0000
CONST	SEGMENT
__real@447a0000 DD 0447a0000r			; 1000
CONST	ENDS
;	COMDAT __real@442f0000
CONST	SEGMENT
__real@442f0000 DD 0442f0000r			; 700
CONST	ENDS
;	COMDAT __real@43c7fffd
CONST	SEGMENT
__real@43c7fffd DD 043c7fffdr			; 400
CONST	ENDS
;	COMDAT __real@43b40000
CONST	SEGMENT
__real@43b40000 DD 043b40000r			; 360
CONST	ENDS
;	COMDAT __real@43070000
CONST	SEGMENT
__real@43070000 DD 043070000r			; 135
CONST	ENDS
;	COMDAT __real@42ce0000
CONST	SEGMENT
__real@42ce0000 DD 042ce0000r			; 103
CONST	ENDS
;	COMDAT __real@42c8000d
CONST	SEGMENT
__real@42c8000d DD 042c8000dr			; 100
CONST	ENDS
;	COMDAT __real@42c80000
CONST	SEGMENT
__real@42c80000 DD 042c80000r			; 100
CONST	ENDS
;	COMDAT __real@42700000
CONST	SEGMENT
__real@42700000 DD 042700000r			; 60
CONST	ENDS
;	COMDAT __real@42652ee1
CONST	SEGMENT
__real@42652ee1 DD 042652ee1r			; 57.2958
CONST	ENDS
;	COMDAT __real@42200000
CONST	SEGMENT
__real@42200000 DD 042200000r			; 40
CONST	ENDS
;	COMDAT __real@41700000
CONST	SEGMENT
__real@41700000 DD 041700000r			; 15
CONST	ENDS
;	COMDAT __real@41400000
CONST	SEGMENT
__real@41400000 DD 041400000r			; 12
CONST	ENDS
;	COMDAT __real@41200000
CONST	SEGMENT
__real@41200000 DD 041200000r			; 10
CONST	ENDS
;	COMDAT __real@40c90fd9
CONST	SEGMENT
__real@40c90fd9 DD 040c90fd9r			; 6.28318
CONST	ENDS
;	COMDAT __real@40a00000
CONST	SEGMENT
__real@40a00000 DD 040a00000r			; 5
CONST	ENDS
;	COMDAT __real@40400000
CONST	SEGMENT
__real@40400000 DD 040400000r			; 3
CONST	ENDS
;	COMDAT __real@4010000000000000
CONST	SEGMENT
__real@4010000000000000 DQ 04010000000000000r	; 4
CONST	ENDS
;	COMDAT __real@400921fb54442d18
CONST	SEGMENT
__real@400921fb54442d18 DQ 0400921fb54442d18r	; 3.14159
CONST	ENDS
;	COMDAT __real@40000000
CONST	SEGMENT
__real@40000000 DD 040000000r			; 2
CONST	ENDS
;	COMDAT __real@3ff921fb54442d18
CONST	SEGMENT
__real@3ff921fb54442d18 DQ 03ff921fb54442d18r	; 1.5708
CONST	ENDS
;	COMDAT __real@3ff07ae147ae147b
CONST	SEGMENT
__real@3ff07ae147ae147b DQ 03ff07ae147ae147br	; 1.03
CONST	ENDS
;	COMDAT __real@3ff0000000000000
CONST	SEGMENT
__real@3ff0000000000000 DQ 03ff0000000000000r	; 1
CONST	ENDS
;	COMDAT __real@3fefae147ae147ae
CONST	SEGMENT
__real@3fefae147ae147ae DQ 03fefae147ae147aer	; 0.99
CONST	ENDS
;	COMDAT __real@3feb333333333333
CONST	SEGMENT
__real@3feb333333333333 DQ 03feb333333333333r	; 0.85
CONST	ENDS
;	COMDAT __real@3fc00000
CONST	SEGMENT
__real@3fc00000 DD 03fc00000r			; 1.5
CONST	ENDS
;	COMDAT __real@3f99999a
CONST	SEGMENT
__real@3f99999a DD 03f99999ar			; 1.2
CONST	ENDS
;	COMDAT __real@3f860a91
CONST	SEGMENT
__real@3f860a91 DD 03f860a91r			; 1.0472
CONST	ENDS
;	COMDAT __real@3f81df4680000000
CONST	SEGMENT
__real@3f81df4680000000 DQ 03f81df4680000000r	; 0.00872665
CONST	ENDS
;	COMDAT __real@3f800000
CONST	SEGMENT
__real@3f800000 DD 03f800000r			; 1
CONST	ENDS
;	COMDAT __real@3f7d70a4
CONST	SEGMENT
__real@3f7d70a4 DD 03f7d70a4r			; 0.99
CONST	ENDS
;	COMDAT __real@3f733333
CONST	SEGMENT
__real@3f733333 DD 03f733333r			; 0.95
CONST	ENDS
;	COMDAT __real@3f6b851f
CONST	SEGMENT
__real@3f6b851f DD 03f6b851fr			; 0.92
CONST	ENDS
;	COMDAT __real@3f6b851e
CONST	SEGMENT
__real@3f6b851e DD 03f6b851er			; 0.92
CONST	ENDS
;	COMDAT __real@3f666667
CONST	SEGMENT
__real@3f666667 DD 03f666667r			; 0.9
CONST	ENDS
;	COMDAT __real@3f666666
CONST	SEGMENT
__real@3f666666 DD 03f666666r			; 0.9
CONST	ENDS
;	COMDAT __real@3f63d70a
CONST	SEGMENT
__real@3f63d70a DD 03f63d70ar			; 0.89
CONST	ENDS
;	COMDAT __real@3f59999a
CONST	SEGMENT
__real@3f59999a DD 03f59999ar			; 0.85
CONST	ENDS
;	COMDAT __real@3f570a3d
CONST	SEGMENT
__real@3f570a3d DD 03f570a3dr			; 0.84
CONST	ENDS
;	COMDAT __real@3f547ae1
CONST	SEGMENT
__real@3f547ae1 DD 03f547ae1r			; 0.83
CONST	ENDS
;	COMDAT __real@3f4ccccd
CONST	SEGMENT
__real@3f4ccccd DD 03f4ccccdr			; 0.8
CONST	ENDS
;	COMDAT __real@3f400000
CONST	SEGMENT
__real@3f400000 DD 03f400000r			; 0.75
CONST	ENDS
;	COMDAT __real@3f333333
CONST	SEGMENT
__real@3f333333 DD 03f333333r			; 0.7
CONST	ENDS
;	COMDAT __real@3f19999a
CONST	SEGMENT
__real@3f19999a DD 03f19999ar			; 0.6
CONST	ENDS
;	COMDAT __real@3f17ac60
CONST	SEGMENT
__real@3f17ac60 DD 03f17ac60r			; 0.592474
CONST	ENDS
;	COMDAT __real@3f147ae2
CONST	SEGMENT
__real@3f147ae2 DD 03f147ae2r			; 0.58
CONST	ENDS
;	COMDAT __real@3f000000
CONST	SEGMENT
__real@3f000000 DD 03f000000r			; 0.5
CONST	ENDS
;	COMDAT __real@3e99999a
CONST	SEGMENT
__real@3e99999a DD 03e99999ar			; 0.3
CONST	ENDS
;	COMDAT __real@3e32b8c1
CONST	SEGMENT
__real@3e32b8c1 DD 03e32b8c1r			; 0.174533
CONST	ENDS
;	COMDAT __real@3d4ccccd
CONST	SEGMENT
__real@3d4ccccd DD 03d4ccccdr			; 0.05
CONST	ENDS
;	COMDAT __real@3cf5c28f
CONST	SEGMENT
__real@3cf5c28f DD 03cf5c28fr			; 0.03
CONST	ENDS
;	COMDAT __real@3c8efa34
CONST	SEGMENT
__real@3c8efa34 DD 03c8efa34r			; 0.0174533
CONST	ENDS
;	COMDAT __real@3c23d70a
CONST	SEGMENT
__real@3c23d70a DD 03c23d70ar			; 0.01
CONST	ENDS
;	COMDAT __real@3a83126f
CONST	SEGMENT
__real@3a83126f DD 03a83126fr			; 0.001
CONST	ENDS
;	COMDAT __real@0000000000000000
CONST	SEGMENT
__real@0000000000000000 DQ 00000000000000000r	; 0
CONST	ENDS
;	COMDAT __real@00000000
CONST	SEGMENT
__real@00000000 DD 000000000r			; 0
CONST	ENDS
;	COMDAT ??_R1A@?0A@EA@_System_error_category@std@@8
rdata$r	SEGMENT
??_R1A@?0A@EA@_System_error_category@std@@8 DD FLAT:??_R0?AV_System_error_category@std@@@8 ; std::_System_error_category::`RTTI Base Class Descriptor at (0,-1,0,64)'
	DD	02H
	DD	00H
	DD	0ffffffffH
	DD	00H
	DD	040H
	DD	FLAT:??_R3_System_error_category@std@@8
rdata$r	ENDS
;	COMDAT ??_R2_System_error_category@std@@8
rdata$r	SEGMENT
??_R2_System_error_category@std@@8 DD FLAT:??_R1A@?0A@EA@_System_error_category@std@@8 ; std::_System_error_category::`RTTI Base Class Array'
	DD	FLAT:??_R1A@?0A@EA@_Generic_error_category@std@@8
	DD	FLAT:??_R1A@?0A@EA@error_category@std@@8
rdata$r	ENDS
;	COMDAT ??_R3_System_error_category@std@@8
rdata$r	SEGMENT
??_R3_System_error_category@std@@8 DD 00H		; std::_System_error_category::`RTTI Class Hierarchy Descriptor'
	DD	00H
	DD	03H
	DD	FLAT:??_R2_System_error_category@std@@8
rdata$r	ENDS
;	COMDAT ??_R0?AV_System_error_category@std@@@8
_DATA	SEGMENT
??_R0?AV_System_error_category@std@@@8 DD FLAT:??_7type_info@@6B@ ; std::_System_error_category `RTTI Type Descriptor'
	DD	00H
	DB	'.?AV_System_error_category@std@@', 00H
_DATA	ENDS
;	COMDAT ??_R4_System_error_category@std@@6B@
rdata$r	SEGMENT
??_R4_System_error_category@std@@6B@ DD 00H		; std::_System_error_category::`RTTI Complete Object Locator'
	DD	00H
	DD	00H
	DD	FLAT:??_R0?AV_System_error_category@std@@@8
	DD	FLAT:??_R3_System_error_category@std@@8
rdata$r	ENDS
;	COMDAT ??_R1A@?0A@EA@_Iostream_error_category@std@@8
rdata$r	SEGMENT
??_R1A@?0A@EA@_Iostream_error_category@std@@8 DD FLAT:??_R0?AV_Iostream_error_category@std@@@8 ; std::_Iostream_error_category::`RTTI Base Class Descriptor at (0,-1,0,64)'
	DD	02H
	DD	00H
	DD	0ffffffffH
	DD	00H
	DD	040H
	DD	FLAT:??_R3_Iostream_error_category@std@@8
rdata$r	ENDS
;	COMDAT ??_R2_Iostream_error_category@std@@8
rdata$r	SEGMENT
??_R2_Iostream_error_category@std@@8 DD FLAT:??_R1A@?0A@EA@_Iostream_error_category@std@@8 ; std::_Iostream_error_category::`RTTI Base Class Array'
	DD	FLAT:??_R1A@?0A@EA@_Generic_error_category@std@@8
	DD	FLAT:??_R1A@?0A@EA@error_category@std@@8
rdata$r	ENDS
;	COMDAT ??_R3_Iostream_error_category@std@@8
rdata$r	SEGMENT
??_R3_Iostream_error_category@std@@8 DD 00H		; std::_Iostream_error_category::`RTTI Class Hierarchy Descriptor'
	DD	00H
	DD	03H
	DD	FLAT:??_R2_Iostream_error_category@std@@8
rdata$r	ENDS
;	COMDAT ??_R0?AV_Iostream_error_category@std@@@8
_DATA	SEGMENT
??_R0?AV_Iostream_error_category@std@@@8 DD FLAT:??_7type_info@@6B@ ; std::_Iostream_error_category `RTTI Type Descriptor'
	DD	00H
	DB	'.?AV_Iostream_error_category@std@@', 00H
_DATA	ENDS
;	COMDAT ??_R4_Iostream_error_category@std@@6B@
rdata$r	SEGMENT
??_R4_Iostream_error_category@std@@6B@ DD 00H		; std::_Iostream_error_category::`RTTI Complete Object Locator'
	DD	00H
	DD	00H
	DD	FLAT:??_R0?AV_Iostream_error_category@std@@@8
	DD	FLAT:??_R3_Iostream_error_category@std@@8
rdata$r	ENDS
;	COMDAT ??_R1A@?0A@EA@_Generic_error_category@std@@8
rdata$r	SEGMENT
??_R1A@?0A@EA@_Generic_error_category@std@@8 DD FLAT:??_R0?AV_Generic_error_category@std@@@8 ; std::_Generic_error_category::`RTTI Base Class Descriptor at (0,-1,0,64)'
	DD	01H
	DD	00H
	DD	0ffffffffH
	DD	00H
	DD	040H
	DD	FLAT:??_R3_Generic_error_category@std@@8
rdata$r	ENDS
;	COMDAT ??_R2_Generic_error_category@std@@8
rdata$r	SEGMENT
??_R2_Generic_error_category@std@@8 DD FLAT:??_R1A@?0A@EA@_Generic_error_category@std@@8 ; std::_Generic_error_category::`RTTI Base Class Array'
	DD	FLAT:??_R1A@?0A@EA@error_category@std@@8
rdata$r	ENDS
;	COMDAT ??_R3_Generic_error_category@std@@8
rdata$r	SEGMENT
??_R3_Generic_error_category@std@@8 DD 00H		; std::_Generic_error_category::`RTTI Class Hierarchy Descriptor'
	DD	00H
	DD	02H
	DD	FLAT:??_R2_Generic_error_category@std@@8
rdata$r	ENDS
;	COMDAT ??_R0?AV_Generic_error_category@std@@@8
_DATA	SEGMENT
??_R0?AV_Generic_error_category@std@@@8 DD FLAT:??_7type_info@@6B@ ; std::_Generic_error_category `RTTI Type Descriptor'
	DD	00H
	DB	'.?AV_Generic_error_category@std@@', 00H
_DATA	ENDS
;	COMDAT ??_R4_Generic_error_category@std@@6B@
rdata$r	SEGMENT
??_R4_Generic_error_category@std@@6B@ DD 00H		; std::_Generic_error_category::`RTTI Complete Object Locator'
	DD	00H
	DD	00H
	DD	FLAT:??_R0?AV_Generic_error_category@std@@@8
	DD	FLAT:??_R3_Generic_error_category@std@@8
rdata$r	ENDS
;	COMDAT ??_R1A@?0A@EA@error_category@std@@8
rdata$r	SEGMENT
??_R1A@?0A@EA@error_category@std@@8 DD FLAT:??_R0?AVerror_category@std@@@8 ; std::error_category::`RTTI Base Class Descriptor at (0,-1,0,64)'
	DD	00H
	DD	00H
	DD	0ffffffffH
	DD	00H
	DD	040H
	DD	FLAT:??_R3error_category@std@@8
rdata$r	ENDS
;	COMDAT ??_R2error_category@std@@8
rdata$r	SEGMENT
??_R2error_category@std@@8 DD FLAT:??_R1A@?0A@EA@error_category@std@@8 ; std::error_category::`RTTI Base Class Array'
rdata$r	ENDS
;	COMDAT ??_R3error_category@std@@8
rdata$r	SEGMENT
??_R3error_category@std@@8 DD 00H			; std::error_category::`RTTI Class Hierarchy Descriptor'
	DD	00H
	DD	01H
	DD	FLAT:??_R2error_category@std@@8
rdata$r	ENDS
;	COMDAT ??_R0?AVerror_category@std@@@8
_DATA	SEGMENT
??_R0?AVerror_category@std@@@8 DD FLAT:??_7type_info@@6B@ ; std::error_category `RTTI Type Descriptor'
	DD	00H
	DB	'.?AVerror_category@std@@', 00H
_DATA	ENDS
;	COMDAT ??_R4error_category@std@@6B@
rdata$r	SEGMENT
??_R4error_category@std@@6B@ DD 00H			; std::error_category::`RTTI Complete Object Locator'
	DD	00H
	DD	00H
	DD	FLAT:??_R0?AVerror_category@std@@@8
	DD	FLAT:??_R3error_category@std@@8
rdata$r	ENDS
;	COMDAT ??_C@_0BA@JFNIOLAK@string?5too?5long?$AA@
CONST	SEGMENT
??_C@_0BA@JFNIOLAK@string?5too?5long?$AA@ DB 'string too long', 00H ; `string'
CONST	ENDS
;	COMDAT ??_C@_0BI@CFPLBAOH@invalid?5string?5position?$AA@
CONST	SEGMENT
??_C@_0BI@CFPLBAOH@invalid?5string?5position?$AA@ DB 'invalid string posi'
	DB	'tion', 00H					; `string'
CONST	ENDS
;	COMDAT ??_C@_09IBNEFEFJ@FPS?5?$CF5?41f?$AA@
CONST	SEGMENT
??_C@_09IBNEFEFJ@FPS?5?$CF5?41f?$AA@ DB 'FPS %5.1f', 00H ; `string'
CONST	ENDS
;	COMDAT ??_C@_07KJPMIBMC@FPS?5?$CF5d?$AA@
CONST	SEGMENT
??_C@_07KJPMIBMC@FPS?5?$CF5d?$AA@ DB 'FPS %5d', 00H	; `string'
CONST	ENDS
;	COMDAT ??_C@_09HJCFOPMO@Game?5Over?$AA@
CONST	SEGMENT
??_C@_09HJCFOPMO@Game?5Over?$AA@ DB 'Game Over', 00H	; `string'
CONST	ENDS
;	COMDAT ??_C@_0N@LEMGNLFI@Sierra?5Hotel?$AA@
CONST	SEGMENT
??_C@_0N@LEMGNLFI@Sierra?5Hotel?$AA@ DB 'Sierra Hotel', 00H ; `string'
CONST	ENDS
;	COMDAT ??_C@_05FJODHKGO@x1024?$AA@
CONST	SEGMENT
??_C@_05FJODHKGO@x1024?$AA@ DB 'x1024', 00H		; `string'
CONST	ENDS
;	COMDAT ??_C@_04PPFDHAKJ@x512?$AA@
CONST	SEGMENT
??_C@_04PPFDHAKJ@x512?$AA@ DB 'x512', 00H		; `string'
CONST	ENDS
;	COMDAT ??_C@_04BOBCFMI@x256?$AA@
CONST	SEGMENT
??_C@_04BOBCFMI@x256?$AA@ DB 'x256', 00H		; `string'
CONST	ENDS
;	COMDAT ??_C@_04IIJILBCN@x128?$AA@
CONST	SEGMENT
??_C@_04IIJILBCN@x128?$AA@ DB 'x128', 00H		; `string'
CONST	ENDS
;	COMDAT ??_C@_03OLPMMCEF@x64?$AA@
CONST	SEGMENT
??_C@_03OLPMMCEF@x64?$AA@ DB 'x64', 00H			; `string'
CONST	ENDS
;	COMDAT ??_C@_03LLGNKHCI@x32?$AA@
CONST	SEGMENT
??_C@_03LLGNKHCI@x32?$AA@ DB 'x32', 00H			; `string'
CONST	ENDS
;	COMDAT ??_C@_03NMIFLGEC@x16?$AA@
CONST	SEGMENT
??_C@_03NMIFLGEC@x16?$AA@ DB 'x16', 00H			; `string'
CONST	ENDS
;	COMDAT ??_C@_02ENMDKDPO@x8?$AA@
CONST	SEGMENT
??_C@_02ENMDKDPO@x8?$AA@ DB 'x8', 00H			; `string'
CONST	ENDS
;	COMDAT ??_C@_06BPHPLDCC@?$CF?$CL2?41f?$AA@
CONST	SEGMENT
??_C@_06BPHPLDCC@?$CF?$CL2?41f?$AA@ DB '%+2.1f', 00H	; `string'
CONST	ENDS
;	COMDAT ??_C@_08CFEJCDPL@G?0?5aoa?3?5?$AA@
CONST	SEGMENT
??_C@_08CFEJCDPL@G?0?5aoa?3?5?$AA@ DB 'G, aoa: ', 00H	; `string'
CONST	ENDS
;	COMDAT ??_C@_07CBNKIKPL@?0?5?$CF2?41f?$AA@
CONST	SEGMENT
??_C@_07CBNKIKPL@?0?5?$CF2?41f?$AA@ DB ', %2.1f', 00H	; `string'
CONST	ENDS
;	COMDAT ??_C@_08HDEDGHJO@?5percent?$AA@
CONST	SEGMENT
??_C@_08HDEDGHJO@?5percent?$AA@ DB ' percent', 00H	; `string'
CONST	ENDS
;	COMDAT ??_C@_0O@JAKNKEAP@?0?5power?3?5?$CF3?4f?$AA@
CONST	SEGMENT
??_C@_0O@JAKNKEAP@?0?5power?3?5?$CF3?4f?$AA@ DB ', power: %3.f', 00H ; `string'
CONST	ENDS
;	COMDAT ??_C@_0L@MMMGIOEM@?5kts?5?$CIIAS?$CJ?$AA@
CONST	SEGMENT
??_C@_0L@MMMGIOEM@?5kts?5?$CIIAS?$CJ?$AA@ DB ' kts (IAS)', 00H ; `string'
CONST	ENDS
;	COMDAT ??_C@_08MGDNAMHD@?5degrees?$AA@
CONST	SEGMENT
??_C@_08MGDNAMHD@?5degrees?$AA@ DB ' degrees', 00H	; `string'
CONST	ENDS
;	COMDAT ??_C@_06CCBPJKJC@?$CF?$CL3?41f?$AA@
CONST	SEGMENT
??_C@_06CCBPJKJC@?$CF?$CL3?41f?$AA@ DB '%+3.1f', 00H	; `string'
CONST	ENDS
;	COMDAT ??_C@_0BB@MJAKPGJL@?5kts?5?$CIGS?$CJ?0?5aoa?3?5?$AA@
CONST	SEGMENT
??_C@_0BB@MJAKPGJL@?5kts?5?$CIGS?$CJ?0?5aoa?3?5?$AA@ DB ' kts (GS), aoa: '
	DB	00H						; `string'
CONST	ENDS
;	COMDAT ??_C@_04EOMBGAKL@?$CF4?4f?$AA@
CONST	SEGMENT
??_C@_04EOMBGAKL@?$CF4?4f?$AA@ DB '%4.f', 00H		; `string'
CONST	ENDS
;	COMDAT ??_C@_0BE@OEACJCJD@?5ft?5?$CIBARO?$CJ?0?5speed?3?5?$AA@
CONST	SEGMENT
??_C@_0BE@OEACJCJD@?5ft?5?$CIBARO?$CJ?0?5speed?3?5?$AA@ DB ' ft (BARO), s'
	DB	'peed: ', 00H				; `string'
CONST	ENDS
;	COMDAT ??_C@_04HBOFBLAB@?$CF5?4i?$AA@
CONST	SEGMENT
??_C@_04HBOFBLAB@?$CF5?4i?$AA@ DB '%5.i', 00H		; `string'
CONST	ENDS
;	COMDAT ??_C@_0BA@GPOLMDJ@?5degrees?0?5alt?3?5?$AA@
CONST	SEGMENT
??_C@_0BA@GPOLMDJ@?5degrees?0?5alt?3?5?$AA@ DB ' degrees, alt: ', 00H ; `string'
CONST	ENDS
;	COMDAT ??_C@_04FEIOEENN@?$CF3?4i?$AA@
CONST	SEGMENT
??_C@_04FEIOEENN@?$CF3?4i?$AA@ DB '%3.i', 00H		; `string'
CONST	ENDS
;	COMDAT ??_C@_0N@OHPLPDBF@?5?9?5heading?3?5?$AA@
CONST	SEGMENT
??_C@_0N@OHPLPDBF@?5?9?5heading?3?5?$AA@ DB ' - heading: ', 00H ; `string'
CONST	ENDS
;	COMDAT ??_C@_02LMMGGCAJ@?3?5?$AA@
CONST	SEGMENT
??_C@_02LMMGGCAJ@?3?5?$AA@ DB ': ', 00H			; `string'
CONST	ENDS
;	COMDAT ??_C@_06FHFOAHML@system?$AA@
CONST	SEGMENT
??_C@_06FHFOAHML@system?$AA@ DB 'system', 00H		; `string'
CONST	ENDS
;	COMDAT ??_7_System_error_category@std@@6B@
CONST	SEGMENT
??_7_System_error_category@std@@6B@ DD FLAT:??_R4_System_error_category@std@@6B@ ; std::_System_error_category::`vftable'
	DD	FLAT:??_E_System_error_category@std@@UAEPAXI@Z
	DD	FLAT:?name@_System_error_category@std@@UBEPBDXZ
	DD	FLAT:?message@_System_error_category@std@@UBE?AV?$basic_string@DU?$char_traits@D@std@@V?$allocator@D@2@@2@H@Z
	DD	FLAT:?default_error_condition@_System_error_category@std@@UBE?AVerror_condition@2@H@Z
	DD	FLAT:?equivalent@error_category@std@@UBE_NABVerror_code@2@H@Z
	DD	FLAT:?equivalent@error_category@std@@UBE_NHABVerror_condition@2@@Z
CONST	ENDS
;	COMDAT ??_C@_0BG@PADBLCHM@iostream?5stream?5error?$AA@
CONST	SEGMENT
??_C@_0BG@PADBLCHM@iostream?5stream?5error?$AA@ DB 'iostream stream error'
	DB	00H						; `string'
CONST	ENDS
;	COMDAT ??_C@_08LLGCOLLL@iostream?$AA@
CONST	SEGMENT
??_C@_08LLGCOLLL@iostream?$AA@ DB 'iostream', 00H	; `string'
CONST	ENDS
;	COMDAT ??_7_Iostream_error_category@std@@6B@
CONST	SEGMENT
??_7_Iostream_error_category@std@@6B@ DD FLAT:??_R4_Iostream_error_category@std@@6B@ ; std::_Iostream_error_category::`vftable'
	DD	FLAT:??_E_Iostream_error_category@std@@UAEPAXI@Z
	DD	FLAT:?name@_Iostream_error_category@std@@UBEPBDXZ
	DD	FLAT:?message@_Iostream_error_category@std@@UBE?AV?$basic_string@DU?$char_traits@D@std@@V?$allocator@D@2@@2@H@Z
	DD	FLAT:?default_error_condition@error_category@std@@UBE?AVerror_condition@2@H@Z
	DD	FLAT:?equivalent@error_category@std@@UBE_NABVerror_code@2@H@Z
	DD	FLAT:?equivalent@error_category@std@@UBE_NHABVerror_condition@2@@Z
CONST	ENDS
;	COMDAT ??_C@_0O@BFJCFAAK@unknown?5error?$AA@
CONST	SEGMENT
??_C@_0O@BFJCFAAK@unknown?5error?$AA@ DB 'unknown error', 00H ; `string'
CONST	ENDS
;	COMDAT ??_C@_07DCLBNMLN@generic?$AA@
CONST	SEGMENT
??_C@_07DCLBNMLN@generic?$AA@ DB 'generic', 00H		; `string'
CONST	ENDS
;	COMDAT ??_7_Generic_error_category@std@@6B@
CONST	SEGMENT
??_7_Generic_error_category@std@@6B@ DD FLAT:??_R4_Generic_error_category@std@@6B@ ; std::_Generic_error_category::`vftable'
	DD	FLAT:??_E_Generic_error_category@std@@UAEPAXI@Z
	DD	FLAT:?name@_Generic_error_category@std@@UBEPBDXZ
	DD	FLAT:?message@_Generic_error_category@std@@UBE?AV?$basic_string@DU?$char_traits@D@std@@V?$allocator@D@2@@2@H@Z
	DD	FLAT:?default_error_condition@error_category@std@@UBE?AVerror_condition@2@H@Z
	DD	FLAT:?equivalent@error_category@std@@UBE_NABVerror_code@2@H@Z
	DD	FLAT:?equivalent@error_category@std@@UBE_NHABVerror_condition@2@@Z
CONST	ENDS
;	COMDAT ??_7error_category@std@@6B@
CONST	SEGMENT
??_7error_category@std@@6B@ DD FLAT:??_R4error_category@std@@6B@ ; std::error_category::`vftable'
	DD	FLAT:??_Eerror_category@std@@UAEPAXI@Z
	DD	FLAT:__purecall
	DD	FLAT:__purecall
	DD	FLAT:?default_error_condition@error_category@std@@UBE?AVerror_condition@2@H@Z
	DD	FLAT:?equivalent@error_category@std@@UBE_NABVerror_code@2@H@Z
	DD	FLAT:?equivalent@error_category@std@@UBE_NHABVerror_condition@2@@Z
CONST	ENDS
;	COMDAT ??_C@_00CNPNBAHC@?$AA@
CONST	SEGMENT
??_C@_00CNPNBAHC@?$AA@ DB 00H				; `string'
CONST	ENDS
;	COMDAT xdata$x
xdata$x	SEGMENT
__unwindtable$??$construct@PADAAPAD@?$allocator@D@std@@QAEXPAPADAAPAD@Z DD 0ffffffffH
	DD	FLAT:__unwindfunclet$??$construct@PADAAPAD@?$allocator@D@std@@QAEXPAPADAAPAD@Z$0
__ehfuncinfo$??$construct@PADAAPAD@?$allocator@D@std@@QAEXPAPADAAPAD@Z DD 019930522H
	DD	01H
	DD	FLAT:__unwindtable$??$construct@PADAAPAD@?$allocator@D@std@@QAEXPAPADAAPAD@Z
	DD	2 DUP(00H)
	DD	2 DUP(00H)
	DD	00H
	DD	01H
xdata$x	ENDS
xdata$x	SEGMENT
__unwindtable$?Cycle@OTWDriverClass@@QAEXXZ DD 0ffffffffH
	DD	FLAT:__unwindfunclet$?Cycle@OTWDriverClass@@QAEXXZ$0
	DD	00H
	DD	FLAT:__unwindfunclet$?Cycle@OTWDriverClass@@QAEXXZ$1
__ehfuncinfo$?Cycle@OTWDriverClass@@QAEXXZ DD 019930522H
	DD	02H
	DD	FLAT:__unwindtable$?Cycle@OTWDriverClass@@QAEXXZ
	DD	2 DUP(00H)
	DD	2 DUP(00H)
	DD	00H
	DD	01H
xdata$x	ENDS
;	COMDAT xdata$x
xdata$x	SEGMENT
__catchsym$?_Copy@?$basic_string@DU?$char_traits@D@std@@V?$allocator@D@2@@std@@QAEXII@Z$5 DD 040H
	DD	00H
	DD	00H
	DD	FLAT:__catch$?_Copy@?$basic_string@DU?$char_traits@D@std@@V?$allocator@D@2@@std@@QAEXII@Z$0
__catchsym$?_Copy@?$basic_string@DU?$char_traits@D@std@@V?$allocator@D@2@@std@@QAEXII@Z$4 DD 040H
	DD	00H
	DD	00H
	DD	FLAT:__catch$?_Copy@?$basic_string@DU?$char_traits@D@std@@V?$allocator@D@2@@std@@QAEXII@Z$1
__unwindtable$?_Copy@?$basic_string@DU?$char_traits@D@std@@V?$allocator@D@2@@std@@QAEXII@Z DD 0ffffffffH
	DD	00H
	DD	0ffffffffH
	DD	00H
	DD	01H
	DD	00H
	DD	01H
	DD	00H
__ehfuncinfo$?_Copy@?$basic_string@DU?$char_traits@D@std@@V?$allocator@D@2@@std@@QAEXII@Z DD 019930522H
	DD	04H
	DD	FLAT:__unwindtable$?_Copy@?$basic_string@DU?$char_traits@D@std@@V?$allocator@D@2@@std@@QAEXII@Z
	DD	02H
	DD	FLAT:__tryblocktable$?_Copy@?$basic_string@DU?$char_traits@D@std@@V?$allocator@D@2@@std@@QAEXII@Z
	DD	2 DUP(00H)
	DD	00H
	DD	01H
__tryblocktable$?_Copy@?$basic_string@DU?$char_traits@D@std@@V?$allocator@D@2@@std@@QAEXII@Z DD 02H
	DD	02H
	DD	03H
	DD	01H
	DD	FLAT:__catchsym$?_Copy@?$basic_string@DU?$char_traits@D@std@@V?$allocator@D@2@@std@@QAEXII@Z$4
	DD	00H
	DD	00H
	DD	03H
	DD	01H
	DD	FLAT:__catchsym$?_Copy@?$basic_string@DU?$char_traits@D@std@@V?$allocator@D@2@@std@@QAEXII@Z$5
xdata$x	ENDS
CRT$XCU	SEGMENT
_allocator_arg$initializer$ DD FLAT:??__Eallocator_arg@std@@YAXXZ
CRT$XCU	ENDS
;	COMDAT CRT$XCU
CRT$XCU	SEGMENT
?_Generic_object$initializer$@?$_Error_objects@H@std@@2P6AXXZA DD FLAT:??__E?_Generic_object@?$_Error_objects@H@std@@2V_Generic_error_category@2@A@@YAXXZ ; std::_Error_objects<int>::_Generic_object$initializer$
CRT$XCU	ENDS
;	COMDAT CRT$XCU
CRT$XCU	SEGMENT
?_Iostream_object$initializer$@?$_Error_objects@H@std@@2P6AXXZA DD FLAT:??__E?_Iostream_object@?$_Error_objects@H@std@@2V_Iostream_error_category@2@A@@YAXXZ ; std::_Error_objects<int>::_Iostream_object$initializer$
CRT$XCU	ENDS
;	COMDAT CRT$XCU
CRT$XCU	SEGMENT
?_System_object$initializer$@?$_Error_objects@H@std@@2P6AXXZA DD FLAT:??__E?_System_object@?$_Error_objects@H@std@@2V_System_error_category@2@A@@YAXXZ ; std::_Error_objects<int>::_System_object$initializer$
CRT$XCU	ENDS
;	COMDAT CRT$XCU
CRT$XCU	SEGMENT
?id$initializer$@?$num_put@DV?$back_insert_iterator@V?$basic_string@DU?$char_traits@D@std@@V?$allocator@D@2@@std@@@std@@@std@@2P6AXXZA DD FLAT:??__E?id@?$num_put@DV?$back_insert_iterator@V?$basic_string@DU?$char_traits@D@std@@V?$allocator@D@2@@std@@@std@@@std@@2V0locale@2@A@@YAXXZ ; std::num_put<char,std::back_insert_iterator<std::basic_string<char,std::char_traits<char>,std::allocator<char> > > >::id$initializer$
CRT$XCU	ENDS
;	COMDAT CRT$XCU
CRT$XCU	SEGMENT
?id$initializer$@?$num_put@_WV?$back_insert_iterator@V?$basic_string@_WU?$char_traits@_W@std@@V?$allocator@_W@2@@std@@@std@@@std@@2P6AXXZA DD FLAT:??__E?id@?$num_put@_WV?$back_insert_iterator@V?$basic_string@_WU?$char_traits@_W@std@@V?$allocator@_W@2@@std@@@std@@@std@@2V0locale@2@A@@YAXXZ ; std::num_put<wchar_t,std::back_insert_iterator<std::basic_string<wchar_t,std::char_traits<wchar_t>,std::allocator<wchar_t> > > >::id$initializer$
CRT$XCU	ENDS
;	COMDAT CRT$XCU
CRT$XCU	SEGMENT
?id$initializer$@?$numpunct@D@std@@2P6AXXZA DD FLAT:??__E?id@?$numpunct@D@std@@2V0locale@2@A@@YAXXZ ; std::numpunct<char>::id$initializer$
CRT$XCU	ENDS
;	COMDAT CRT$XCU
CRT$XCU	SEGMENT
?id$initializer$@?$numpunct@_W@std@@2P6AXXZA DD FLAT:??__E?id@?$numpunct@_W@std@@2V0locale@2@A@@YAXXZ ; std::numpunct<wchar_t>::id$initializer$
CRT$XCU	ENDS
; Function compile flags: /Odtp
; File c:\program files (x86)\microsoft visual studio 11.0\vc\include\xmemory0
;	COMDAT ??$destroy@PAD@?$allocator@D@std@@QAEXPAPAD@Z
_TEXT	SEGMENT
_this$ = -4						; size = 4
__Ptr$ = 8						; size = 4
??$destroy@PAD@?$allocator@D@std@@QAEXPAPAD@Z PROC	; std::allocator<char>::destroy<char *>, COMDAT
; _this$ = ecx

; 621  : 		void destroy(_Uty *_Ptr)

	push	ebp
	mov	ebp, esp
	push	ecx
	mov	DWORD PTR _this$[ebp], ecx

; 622  : 		{	// destroy object at _Ptr
; 623  : 		_Ptr->~_Uty();
; 624  : 		}

	mov	esp, ebp
	pop	ebp
	ret	4
??$destroy@PAD@?$allocator@D@std@@QAEXPAPAD@Z ENDP	; std::allocator<char>::destroy<char *>
_TEXT	ENDS
; Function compile flags: /Odtp
; File c:\program files (x86)\microsoft visual studio 11.0\vc\include\xmemory0
;	COMDAT ??$construct@PADAAPAD@?$allocator@D@std@@QAEXPAPADAAPAD@Z
_TEXT	SEGMENT
$T2 = -28						; size = 4
_this$ = -24						; size = 4
tv73 = -20						; size = 4
$T3 = -16						; size = 4
__$EHRec$ = -12						; size = 12
__Ptr$ = 8						; size = 4
__V0$ = 12						; size = 4
??$construct@PADAAPAD@?$allocator@D@std@@QAEXPAPADAAPAD@Z PROC ; std::allocator<char>::construct<char *,char * &>, COMDAT
; _this$ = ecx

; 617  : _VARIADIC_EXPAND_0X(_ALLOC_MEMBER_CONSTRUCT, , , , )

	push	ebp
	mov	ebp, esp
	push	-1
	push	__ehhandler$??$construct@PADAAPAD@?$allocator@D@std@@QAEXPAPADAAPAD@Z
	mov	eax, DWORD PTR fs:0
	push	eax
	sub	esp, 16					; 00000010H
	mov	eax, DWORD PTR ___security_cookie
	xor	eax, ebp
	push	eax
	lea	eax, DWORD PTR __$EHRec$[ebp]
	mov	DWORD PTR fs:0, eax
	mov	DWORD PTR _this$[ebp], ecx
	mov	eax, DWORD PTR __Ptr$[ebp]
	push	eax
	push	4
	call	??2@YAPAXIPAX@Z				; operator new
	add	esp, 8
	mov	DWORD PTR $T3[ebp], eax
	mov	DWORD PTR __$EHRec$[ebp+8], 0
	cmp	DWORD PTR $T3[ebp], 0
	je	SHORT $LN3@construct
	mov	ecx, DWORD PTR __V0$[ebp]
	push	ecx
	call	??$forward@AAPAD@std@@YAAAPADAAPAD@Z	; std::forward<char * &>
	add	esp, 4
	mov	edx, DWORD PTR $T3[ebp]
	mov	eax, DWORD PTR [eax]
	mov	DWORD PTR [edx], eax
	mov	ecx, DWORD PTR $T3[ebp]
	mov	DWORD PTR tv73[ebp], ecx
	jmp	SHORT $LN4@construct
$LN3@construct:
	mov	DWORD PTR tv73[ebp], 0
$LN4@construct:
	mov	edx, DWORD PTR tv73[ebp]
	mov	DWORD PTR $T2[ebp], edx
	mov	DWORD PTR __$EHRec$[ebp+8], -1
	mov	ecx, DWORD PTR __$EHRec$[ebp]
	mov	DWORD PTR fs:0, ecx
	pop	ecx
	mov	esp, ebp
	pop	ebp
	ret	8
_TEXT	ENDS
;	COMDAT text$x
text$x	SEGMENT
__unwindfunclet$??$construct@PADAAPAD@?$allocator@D@std@@QAEXPAPADAAPAD@Z$0:
	mov	eax, DWORD PTR __Ptr$[ebp]
	push	eax
	mov	eax, DWORD PTR $T3[ebp]
	push	eax
	call	??3@YAXPAX0@Z				; operator delete
	add	esp, 8
	ret	0
__ehhandler$??$construct@PADAAPAD@?$allocator@D@std@@QAEXPAPADAAPAD@Z:
	mov	edx, DWORD PTR [esp+8]
	lea	eax, DWORD PTR [edx+12]
	mov	ecx, DWORD PTR [edx-20]
	xor	ecx, eax
	call	@__security_check_cookie@4
	mov	eax, OFFSET __ehfuncinfo$??$construct@PADAAPAD@?$allocator@D@std@@QAEXPAPADAAPAD@Z
	jmp	___CxxFrameHandler3
text$x	ENDS
??$construct@PADAAPAD@?$allocator@D@std@@QAEXPAPADAAPAD@Z ENDP ; std::allocator<char>::construct<char *,char * &>
; Function compile flags: /Odtp
; File c:\program files (x86)\microsoft visual studio 11.0\vc\include\xlocnum
;	COMDAT ??__E?id@?$numpunct@_W@std@@2V0locale@2@A@@YAXXZ
text$yc	SEGMENT
??__E?id@?$numpunct@_W@std@@2V0locale@2@A@@YAXXZ PROC	; `dynamic initializer for 'std::numpunct<wchar_t>::id'', COMDAT

; 155  : 		void _Getvals(wchar_t, const lconv *_Ptr, _Locinfo::_Cvtvec)

	push	ebp
	mov	ebp, esp
	push	0
	mov	ecx, OFFSET ?id@?$numpunct@_W@std@@2V0locale@2@A ; std::numpunct<wchar_t>::id
	call	??0id@locale@std@@QAE@I@Z		; std::locale::id::id
	pop	ebp
	ret	0
??__E?id@?$numpunct@_W@std@@2V0locale@2@A@@YAXXZ ENDP	; `dynamic initializer for 'std::numpunct<wchar_t>::id''
text$yc	ENDS
; Function compile flags: /Odtp
; File c:\program files (x86)\microsoft visual studio 11.0\vc\include\xlocnum
;	COMDAT ??__E?id@?$numpunct@D@std@@2V0locale@2@A@@YAXXZ
text$yc	SEGMENT
??__E?id@?$numpunct@D@std@@2V0locale@2@A@@YAXXZ PROC	; `dynamic initializer for 'std::numpunct<char>::id'', COMDAT

; 155  : 		void _Getvals(wchar_t, const lconv *_Ptr, _Locinfo::_Cvtvec)

	push	ebp
	mov	ebp, esp
	push	0
	mov	ecx, OFFSET ?id@?$numpunct@D@std@@2V0locale@2@A ; std::numpunct<char>::id
	call	??0id@locale@std@@QAE@I@Z		; std::locale::id::id
	pop	ebp
	ret	0
??__E?id@?$numpunct@D@std@@2V0locale@2@A@@YAXXZ ENDP	; `dynamic initializer for 'std::numpunct<char>::id''
text$yc	ENDS
; Function compile flags: /Odtp
; File c:\program files (x86)\microsoft visual studio 11.0\vc\include\xlocnum
;	COMDAT ??__E?id@?$num_put@_WV?$back_insert_iterator@V?$basic_string@_WU?$char_traits@_W@std@@V?$allocator@_W@2@@std@@@std@@@std@@2V0locale@2@A@@YAXXZ
text$yc	SEGMENT
??__E?id@?$num_put@_WV?$back_insert_iterator@V?$basic_string@_WU?$char_traits@_W@std@@V?$allocator@_W@2@@std@@@std@@@std@@2V0locale@2@A@@YAXXZ PROC ; `dynamic initializer for 'std::num_put<wchar_t,std::back_insert_iterator<std::basic_string<wchar_t,std::char_traits<wchar_t>,std::allocator<wchar_t> > > >::id'', COMDAT

; 155  : 		void _Getvals(wchar_t, const lconv *_Ptr, _Locinfo::_Cvtvec)

	push	ebp
	mov	ebp, esp
	push	0
	mov	ecx, OFFSET ?id@?$num_put@_WV?$back_insert_iterator@V?$basic_string@_WU?$char_traits@_W@std@@V?$allocator@_W@2@@std@@@std@@@std@@2V0locale@2@A ; std::num_put<wchar_t,std::back_insert_iterator<std::basic_string<wchar_t,std::char_traits<wchar_t>,std::allocator<wchar_t> > > >::id
	call	??0id@locale@std@@QAE@I@Z		; std::locale::id::id
	pop	ebp
	ret	0
??__E?id@?$num_put@_WV?$back_insert_iterator@V?$basic_string@_WU?$char_traits@_W@std@@V?$allocator@_W@2@@std@@@std@@@std@@2V0locale@2@A@@YAXXZ ENDP ; `dynamic initializer for 'std::num_put<wchar_t,std::back_insert_iterator<std::basic_string<wchar_t,std::char_traits<wchar_t>,std::allocator<wchar_t> > > >::id''
text$yc	ENDS
; Function compile flags: /Odtp
; File c:\program files (x86)\microsoft visual studio 11.0\vc\include\xlocnum
;	COMDAT ??__E?id@?$num_put@DV?$back_insert_iterator@V?$basic_string@DU?$char_traits@D@std@@V?$allocator@D@2@@std@@@std@@@std@@2V0locale@2@A@@YAXXZ
text$yc	SEGMENT
??__E?id@?$num_put@DV?$back_insert_iterator@V?$basic_string@DU?$char_traits@D@std@@V?$allocator@D@2@@std@@@std@@@std@@2V0locale@2@A@@YAXXZ PROC ; `dynamic initializer for 'std::num_put<char,std::back_insert_iterator<std::basic_string<char,std::char_traits<char>,std::allocator<char> > > >::id'', COMDAT

; 155  : 		void _Getvals(wchar_t, const lconv *_Ptr, _Locinfo::_Cvtvec)

	push	ebp
	mov	ebp, esp
	push	0
	mov	ecx, OFFSET ?id@?$num_put@DV?$back_insert_iterator@V?$basic_string@DU?$char_traits@D@std@@V?$allocator@D@2@@std@@@std@@@std@@2V0locale@2@A ; std::num_put<char,std::back_insert_iterator<std::basic_string<char,std::char_traits<char>,std::allocator<char> > > >::id
	call	??0id@locale@std@@QAE@I@Z		; std::locale::id::id
	pop	ebp
	ret	0
??__E?id@?$num_put@DV?$back_insert_iterator@V?$basic_string@DU?$char_traits@D@std@@V?$allocator@D@2@@std@@@std@@@std@@2V0locale@2@A@@YAXXZ ENDP ; `dynamic initializer for 'std::num_put<char,std::back_insert_iterator<std::basic_string<char,std::char_traits<char>,std::allocator<char> > > >::id''
text$yc	ENDS
; Function compile flags: /Odtp
; File c:\program files (x86)\microsoft visual studio 11.0\vc\include\xmemory0
;	COMDAT ??$destroy@PAD@?$allocator_traits@V?$allocator@D@std@@@std@@SAXAAV?$allocator@D@1@PAPAD@Z
_TEXT	SEGMENT
__Al$ = 8						; size = 4
__Ptr$ = 12						; size = 4
??$destroy@PAD@?$allocator_traits@V?$allocator@D@std@@@std@@SAXAAV?$allocator@D@1@PAPAD@Z PROC ; std::allocator_traits<std::allocator<char> >::destroy<char *>, COMDAT

; 755  : 		static void destroy(_Alloc& _Al, _Uty *_Ptr)

	push	ebp
	mov	ebp, esp

; 756  : 		{	// destroy object at _Ptr
; 757  : 		_Al.destroy(_Ptr);

	mov	eax, DWORD PTR __Ptr$[ebp]
	push	eax
	mov	ecx, DWORD PTR __Al$[ebp]
	call	??$destroy@PAD@?$allocator@D@std@@QAEXPAPAD@Z ; std::allocator<char>::destroy<char *>

; 758  : 		}

	pop	ebp
	ret	0
??$destroy@PAD@?$allocator_traits@V?$allocator@D@std@@@std@@SAXAAV?$allocator@D@1@PAPAD@Z ENDP ; std::allocator_traits<std::allocator<char> >::destroy<char *>
_TEXT	ENDS
; Function compile flags: /Odtp
; File c:\program files (x86)\microsoft visual studio 11.0\vc\include\xmemory0
;	COMDAT ??$construct@PADAAPAD@?$allocator_traits@V?$allocator@D@std@@@std@@SAXAAV?$allocator@D@1@PAPADAAPAD@Z
_TEXT	SEGMENT
__Al$ = 8						; size = 4
__Ptr$ = 12						; size = 4
__V0$ = 16						; size = 4
??$construct@PADAAPAD@?$allocator_traits@V?$allocator@D@std@@@std@@SAXAAV?$allocator@D@1@PAPADAAPAD@Z PROC ; std::allocator_traits<std::allocator<char> >::construct<char *,char * &>, COMDAT

; 751  : _VARIADIC_EXPAND_0X(_ALLOC_TRAITS_SPECIAL_CONSTRUCT, , , , )

	push	ebp
	mov	ebp, esp
	mov	eax, DWORD PTR __V0$[ebp]
	push	eax
	call	??$forward@AAPAD@std@@YAAAPADAAPAD@Z	; std::forward<char * &>
	add	esp, 4
	push	eax
	mov	ecx, DWORD PTR __Ptr$[ebp]
	push	ecx
	mov	ecx, DWORD PTR __Al$[ebp]
	call	??$construct@PADAAPAD@?$allocator@D@std@@QAEXPAPADAAPAD@Z ; std::allocator<char>::construct<char *,char * &>
	pop	ebp
	ret	0
??$construct@PADAAPAD@?$allocator_traits@V?$allocator@D@std@@@std@@SAXAAV?$allocator@D@1@PAPADAAPAD@Z ENDP ; std::allocator_traits<std::allocator<char> >::construct<char *,char * &>
_TEXT	ENDS
; Function compile flags: /Odtp
; File c:\program files (x86)\microsoft visual studio 11.0\vc\include\type_traits
;	COMDAT ??$forward@AAPAD@std@@YAAAPADAAPAD@Z
_TEXT	SEGMENT
__Arg$ = 8						; size = 4
??$forward@AAPAD@std@@YAAAPADAAPAD@Z PROC		; std::forward<char * &>, COMDAT

; 1775 : 	{	// forward an lvalue

	push	ebp
	mov	ebp, esp

; 1776 : 	return (static_cast<_Ty&&>(_Arg));

	mov	eax, DWORD PTR __Arg$[ebp]

; 1777 : 	}

	pop	ebp
	ret	0
??$forward@AAPAD@std@@YAAAPADAAPAD@Z ENDP		; std::forward<char * &>
_TEXT	ENDS
; Function compile flags: /Odtp
;	COMDAT ??__F?_System_object@?$_Error_objects@H@std@@2V_System_error_category@2@A@@YAXXZ
text$yd	SEGMENT
??__F?_System_object@?$_Error_objects@H@std@@2V_System_error_category@2@A@@YAXXZ PROC ; `dynamic atexit destructor for 'std::_Error_objects<int>::_System_object'', COMDAT
	push	ebp
	mov	ebp, esp
	mov	ecx, OFFSET ?_System_object@?$_Error_objects@H@std@@2V_System_error_category@2@A ; std::_Error_objects<int>::_System_object
	call	??1_System_error_category@std@@UAE@XZ
	pop	ebp
	ret	0
??__F?_System_object@?$_Error_objects@H@std@@2V_System_error_category@2@A@@YAXXZ ENDP ; `dynamic atexit destructor for 'std::_Error_objects<int>::_System_object''
text$yd	ENDS
; Function compile flags: /Odtp
; File c:\program files (x86)\microsoft visual studio 11.0\vc\include\xmemory0
;	COMDAT ??__E?_System_object@?$_Error_objects@H@std@@2V_System_error_category@2@A@@YAXXZ
text$yc	SEGMENT
??__E?_System_object@?$_Error_objects@H@std@@2V_System_error_category@2@A@@YAXXZ PROC ; `dynamic initializer for 'std::_Error_objects<int>::_System_object'', COMDAT

; 627  : 		{	// estimate maximum array size

	push	ebp
	mov	ebp, esp
	mov	ecx, OFFSET ?_System_object@?$_Error_objects@H@std@@2V_System_error_category@2@A ; std::_Error_objects<int>::_System_object
	call	??0_System_error_category@std@@QAE@XZ	; std::_System_error_category::_System_error_category
	push	OFFSET ??__F?_System_object@?$_Error_objects@H@std@@2V_System_error_category@2@A@@YAXXZ ; `dynamic atexit destructor for 'std::_Error_objects<int>::_System_object''
	call	_atexit
	add	esp, 4
	pop	ebp
	ret	0
??__E?_System_object@?$_Error_objects@H@std@@2V_System_error_category@2@A@@YAXXZ ENDP ; `dynamic initializer for 'std::_Error_objects<int>::_System_object''
text$yc	ENDS
; Function compile flags: /Odtp
;	COMDAT ??__F?_Iostream_object@?$_Error_objects@H@std@@2V_Iostream_error_category@2@A@@YAXXZ
text$yd	SEGMENT
??__F?_Iostream_object@?$_Error_objects@H@std@@2V_Iostream_error_category@2@A@@YAXXZ PROC ; `dynamic atexit destructor for 'std::_Error_objects<int>::_Iostream_object'', COMDAT
	push	ebp
	mov	ebp, esp
	mov	ecx, OFFSET ?_Iostream_object@?$_Error_objects@H@std@@2V_Iostream_error_category@2@A ; std::_Error_objects<int>::_Iostream_object
	call	??1_Iostream_error_category@std@@UAE@XZ
	pop	ebp
	ret	0
??__F?_Iostream_object@?$_Error_objects@H@std@@2V_Iostream_error_category@2@A@@YAXXZ ENDP ; `dynamic atexit destructor for 'std::_Error_objects<int>::_Iostream_object''
text$yd	ENDS
; Function compile flags: /Odtp
; File c:\program files (x86)\microsoft visual studio 11.0\vc\include\xmemory0
;	COMDAT ??__E?_Iostream_object@?$_Error_objects@H@std@@2V_Iostream_error_category@2@A@@YAXXZ
text$yc	SEGMENT
??__E?_Iostream_object@?$_Error_objects@H@std@@2V_Iostream_error_category@2@A@@YAXXZ PROC ; `dynamic initializer for 'std::_Error_objects<int>::_Iostream_object'', COMDAT

; 627  : 		{	// estimate maximum array size

	push	ebp
	mov	ebp, esp
	mov	ecx, OFFSET ?_Iostream_object@?$_Error_objects@H@std@@2V_Iostream_error_category@2@A ; std::_Error_objects<int>::_Iostream_object
	call	??0_Iostream_error_category@std@@QAE@XZ	; std::_Iostream_error_category::_Iostream_error_category
	push	OFFSET ??__F?_Iostream_object@?$_Error_objects@H@std@@2V_Iostream_error_category@2@A@@YAXXZ ; `dynamic atexit destructor for 'std::_Error_objects<int>::_Iostream_object''
	call	_atexit
	add	esp, 4
	pop	ebp
	ret	0
??__E?_Iostream_object@?$_Error_objects@H@std@@2V_Iostream_error_category@2@A@@YAXXZ ENDP ; `dynamic initializer for 'std::_Error_objects<int>::_Iostream_object''
text$yc	ENDS
; Function compile flags: /Odtp
;	COMDAT ??__F?_Generic_object@?$_Error_objects@H@std@@2V_Generic_error_category@2@A@@YAXXZ
text$yd	SEGMENT
??__F?_Generic_object@?$_Error_objects@H@std@@2V_Generic_error_category@2@A@@YAXXZ PROC ; `dynamic atexit destructor for 'std::_Error_objects<int>::_Generic_object'', COMDAT
	push	ebp
	mov	ebp, esp
	mov	ecx, OFFSET ?_Generic_object@?$_Error_objects@H@std@@2V_Generic_error_category@2@A ; std::_Error_objects<int>::_Generic_object
	call	??1_Generic_error_category@std@@UAE@XZ
	pop	ebp
	ret	0
??__F?_Generic_object@?$_Error_objects@H@std@@2V_Generic_error_category@2@A@@YAXXZ ENDP ; `dynamic atexit destructor for 'std::_Error_objects<int>::_Generic_object''
text$yd	ENDS
; Function compile flags: /Odtp
; File c:\program files (x86)\microsoft visual studio 11.0\vc\include\xmemory0
;	COMDAT ??__E?_Generic_object@?$_Error_objects@H@std@@2V_Generic_error_category@2@A@@YAXXZ
text$yc	SEGMENT
??__E?_Generic_object@?$_Error_objects@H@std@@2V_Generic_error_category@2@A@@YAXXZ PROC ; `dynamic initializer for 'std::_Error_objects<int>::_Generic_object'', COMDAT

; 627  : 		{	// estimate maximum array size

	push	ebp
	mov	ebp, esp
	mov	ecx, OFFSET ?_Generic_object@?$_Error_objects@H@std@@2V_Generic_error_category@2@A ; std::_Error_objects<int>::_Generic_object
	call	??0_Generic_error_category@std@@QAE@XZ	; std::_Generic_error_category::_Generic_error_category
	push	OFFSET ??__F?_Generic_object@?$_Error_objects@H@std@@2V_Generic_error_category@2@A@@YAXXZ ; `dynamic atexit destructor for 'std::_Error_objects<int>::_Generic_object''
	call	_atexit
	add	esp, 4
	pop	ebp
	ret	0
??__E?_Generic_object@?$_Error_objects@H@std@@2V_Generic_error_category@2@A@@YAXXZ ENDP ; `dynamic initializer for 'std::_Error_objects<int>::_Generic_object''
text$yc	ENDS
; Function compile flags: /Odtp
; File c:\program files (x86)\microsoft visual studio 11.0\vc\include\xmemory0
;	COMDAT ??$_Allocate@D@std@@YAPADIPAD@Z
_TEXT	SEGMENT
__Ptr$ = -4						; size = 4
__Count$ = 8						; size = 4
___formal$ = 12						; size = 4
??$_Allocate@D@std@@YAPADIPAD@Z PROC			; std::_Allocate<char>, COMDAT

; 22   : 	{	// allocate storage for _Count elements of type _Ty

	push	ebp
	mov	ebp, esp
	push	ecx

; 23   : 	void *_Ptr = 0;

	mov	DWORD PTR __Ptr$[ebp], 0

; 24   : 
; 25   : 	if (_Count == 0)

	cmp	DWORD PTR __Count$[ebp], 0
	jne	SHORT $LN4@Allocate

; 26   : 		;
; 27   : 	else if (((size_t)(-1) / sizeof (_Ty) < _Count)

	jmp	SHORT $LN3@Allocate
$LN4@Allocate:

; 28   : 		|| (_Ptr = ::operator new(_Count * sizeof (_Ty))) == 0)

	cmp	DWORD PTR __Count$[ebp], -1
	ja	SHORT $LN1@Allocate
	mov	eax, DWORD PTR __Count$[ebp]
	push	eax
	call	??2@YAPAXI@Z				; operator new
	add	esp, 4
	mov	DWORD PTR __Ptr$[ebp], eax
	cmp	DWORD PTR __Ptr$[ebp], 0
	jne	SHORT $LN3@Allocate
$LN1@Allocate:

; 29   : 		_Xbad_alloc();	// report no memory

	call	?_Xbad_alloc@std@@YAXXZ			; std::_Xbad_alloc
$LN3@Allocate:

; 30   : 
; 31   : 	return ((_Ty *)_Ptr);

	mov	eax, DWORD PTR __Ptr$[ebp]
$LN6@Allocate:

; 32   : 	}

	mov	esp, ebp
	pop	ebp
	ret	0
??$_Allocate@D@std@@YAPADIPAD@Z ENDP			; std::_Allocate<char>
_TEXT	ENDS
; Function compile flags: /Odtp
; File c:\program files (x86)\microsoft visual studio 11.0\vc\include\xstddef
;	COMDAT ??$addressof@D@std@@YAPADAAD@Z
_TEXT	SEGMENT
__Val$ = 8						; size = 4
??$addressof@D@std@@YAPADAAD@Z PROC			; std::addressof<char>, COMDAT

; 85   : 	{	// return address of _Val

	push	ebp
	mov	ebp, esp

; 86   : 	return (reinterpret_cast<_Ty *>(
; 87   : 		(&const_cast<char&>(
; 88   : 		reinterpret_cast<const volatile char&>(_Val)))));

	mov	eax, DWORD PTR __Val$[ebp]

; 89   : 	}

	pop	ebp
	ret	0
??$addressof@D@std@@YAPADAAD@Z ENDP			; std::addressof<char>
_TEXT	ENDS
; Function compile flags: /Odtp
; File c:\program files (x86)\microsoft visual studio 11.0\vc\include\xmemory0
;	COMDAT ??$destroy@PAD@?$_Wrap_alloc@V?$allocator@D@std@@@std@@QAEXPAPAD@Z
_TEXT	SEGMENT
_this$ = -4						; size = 4
__Ptr$ = 8						; size = 4
??$destroy@PAD@?$_Wrap_alloc@V?$allocator@D@std@@@std@@QAEXPAPAD@Z PROC ; std::_Wrap_alloc<std::allocator<char> >::destroy<char *>, COMDAT
; _this$ = ecx

; 907  : 		void destroy(_Ty *_Ptr)

	push	ebp
	mov	ebp, esp
	push	ecx
	mov	DWORD PTR _this$[ebp], ecx

; 908  : 		{	// destroy object at _Ptr
; 909  : 		_Mytraits::destroy(*this, _Ptr);

	mov	eax, DWORD PTR __Ptr$[ebp]
	push	eax
	mov	ecx, DWORD PTR _this$[ebp]
	push	ecx
	call	??$destroy@PAD@?$allocator_traits@V?$allocator@D@std@@@std@@SAXAAV?$allocator@D@1@PAPAD@Z ; std::allocator_traits<std::allocator<char> >::destroy<char *>
	add	esp, 8

; 910  : 		}

	mov	esp, ebp
	pop	ebp
	ret	4
??$destroy@PAD@?$_Wrap_alloc@V?$allocator@D@std@@@std@@QAEXPAPAD@Z ENDP ; std::_Wrap_alloc<std::allocator<char> >::destroy<char *>
_TEXT	ENDS
; Function compile flags: /Odtp
; File c:\program files (x86)\microsoft visual studio 11.0\vc\include\xmemory0
;	COMDAT ??$construct@PADAAPAD@?$_Wrap_alloc@V?$allocator@D@std@@@std@@QAEXPAPADAAPAD@Z
_TEXT	SEGMENT
_this$ = -4						; size = 4
__Ptr$ = 8						; size = 4
__V0$ = 12						; size = 4
??$construct@PADAAPAD@?$_Wrap_alloc@V?$allocator@D@std@@@std@@QAEXPAPADAAPAD@Z PROC ; std::_Wrap_alloc<std::allocator<char> >::construct<char *,char * &>, COMDAT
; _this$ = ecx

; 903  : _VARIADIC_EXPAND_0X(_WRAP_ALLOC_CONSTRUCT, , , , )

	push	ebp
	mov	ebp, esp
	push	ecx
	mov	DWORD PTR _this$[ebp], ecx
	mov	eax, DWORD PTR __V0$[ebp]
	push	eax
	call	??$forward@AAPAD@std@@YAAAPADAAPAD@Z	; std::forward<char * &>
	add	esp, 4
	push	eax
	mov	ecx, DWORD PTR __Ptr$[ebp]
	push	ecx
	mov	edx, DWORD PTR _this$[ebp]
	push	edx
	call	??$construct@PADAAPAD@?$allocator_traits@V?$allocator@D@std@@@std@@SAXAAV?$allocator@D@1@PAPADAAPAD@Z ; std::allocator_traits<std::allocator<char> >::construct<char *,char * &>
	add	esp, 12					; 0000000cH
	mov	esp, ebp
	pop	ebp
	ret	8
??$construct@PADAAPAD@?$_Wrap_alloc@V?$allocator@D@std@@@std@@QAEXPAPADAAPAD@Z ENDP ; std::_Wrap_alloc<std::allocator<char> >::construct<char *,char * &>
_TEXT	ENDS
; Function compile flags: /Odtp
; File c:\users\zhitao li\documents\visual studio 2012\projects\freefalcon\sim\include\simio.h
;	COMDAT ?AnalogIsUsed@SIMLIB_IO_CLASS@@QAE_NW4GameAxis_t@@@Z
_TEXT	SEGMENT
_this$ = -4						; size = 4
_id$ = 8						; size = 4
?AnalogIsUsed@SIMLIB_IO_CLASS@@QAE_NW4GameAxis_t@@@Z PROC ; SIMLIB_IO_CLASS::AnalogIsUsed, COMDAT
; _this$ = ecx

; 237  : 	bool	AnalogIsUsed(GameAxis_t id) { return ( analog[id].isUsed); };

	push	ebp
	mov	ebp, esp
	push	ecx
	mov	DWORD PTR _this$[ebp], ecx
	mov	eax, DWORD PTR _id$[ebp]
	imul	eax, 28					; 0000001cH
	mov	ecx, DWORD PTR _this$[ebp]
	mov	al, BYTE PTR [ecx+eax+12]
	mov	esp, ebp
	pop	ebp
	ret	4
?AnalogIsUsed@SIMLIB_IO_CLASS@@QAE_NW4GameAxis_t@@@Z ENDP ; SIMLIB_IO_CLASS::AnalogIsUsed
_TEXT	ENDS
; Function compile flags: /Odtp
; File c:\users\zhitao li\documents\visual studio 2012\projects\freefalcon\sim\include\trackir.h
;	COMDAT ?Get_Panning_Allowed@TrackIR@@QAE_NXZ
_TEXT	SEGMENT
_this$ = -4						; size = 4
?Get_Panning_Allowed@TrackIR@@QAE_NXZ PROC		; TrackIR::Get_Panning_Allowed, COMDAT
; _this$ = ecx

; 18   : 	bool Get_Panning_Allowed()	{ return panningAllowed; }

	push	ebp
	mov	ebp, esp
	push	ecx
	mov	DWORD PTR _this$[ebp], ecx
	mov	eax, DWORD PTR _this$[ebp]
	mov	al, BYTE PTR [eax+8]
	mov	esp, ebp
	pop	ebp
	ret	0
?Get_Panning_Allowed@TrackIR@@QAE_NXZ ENDP		; TrackIR::Get_Panning_Allowed
_TEXT	ENDS
; Function compile flags: /Odtp
; File c:\users\zhitao li\documents\visual studio 2012\projects\freefalcon\sim\include\trackir.h
;	COMDAT ?Allow_2D_Panning@TrackIR@@QAEXXZ
_TEXT	SEGMENT
_this$ = -4						; size = 4
?Allow_2D_Panning@TrackIR@@QAEXXZ PROC			; TrackIR::Allow_2D_Panning, COMDAT
; _this$ = ecx

; 17   : 	void Allow_2D_Panning()		{ panningAllowed = true; }

	push	ebp
	mov	ebp, esp
	push	ecx
	mov	DWORD PTR _this$[ebp], ecx
	mov	eax, DWORD PTR _this$[ebp]
	mov	BYTE PTR [eax+8], 1
	mov	esp, ebp
	pop	ebp
	ret	0
?Allow_2D_Panning@TrackIR@@QAEXXZ ENDP			; TrackIR::Allow_2D_Panning
_TEXT	ENDS
; Function compile flags: /Odtp
; File c:\users\zhitao li\documents\visual studio 2012\projects\freefalcon\sim\include\digi.h
;	COMDAT ?ATCStatus@DigitalBrain@@QAE?AW4AtcStatusEnum@@XZ
_TEXT	SEGMENT
_this$ = -4						; size = 4
?ATCStatus@DigitalBrain@@QAE?AW4AtcStatusEnum@@XZ PROC	; DigitalBrain::ATCStatus, COMDAT
; _this$ = ecx

; 765  : 	AtcStatusEnum	ATCStatus(void)							{return atcstatus;}

	push	ebp
	mov	ebp, esp
	push	ecx
	mov	DWORD PTR _this$[ebp], ecx
	mov	eax, DWORD PTR _this$[ebp]
	mov	eax, DWORD PTR [eax+328]
	mov	esp, ebp
	pop	ebp
	ret	0
?ATCStatus@DigitalBrain@@QAE?AW4AtcStatusEnum@@XZ ENDP	; DigitalBrain::ATCStatus
_TEXT	ENDS
; Function compile flags: /Odtp
; File c:\users\zhitao li\documents\visual studio 2012\projects\freefalcon\ui\include\uicomms.h
;	COMDAT ?Online@UIComms@@QAEHXZ
_TEXT	SEGMENT
_this$ = -4						; size = 4
?Online@UIComms@@QAEHXZ PROC				; UIComms::Online, COMDAT
; _this$ = ecx

; 118  : 		BOOL Online()					{ return(Online_); }

	push	ebp
	mov	ebp, esp
	push	ecx
	mov	DWORD PTR _this$[ebp], ecx
	mov	eax, DWORD PTR _this$[ebp]
	mov	eax, DWORD PTR [eax+64]
	mov	esp, ebp
	pop	ebp
	ret	0
?Online@UIComms@@QAEHXZ ENDP				; UIComms::Online
_TEXT	ENDS
; Function compile flags: /Odtp
; File c:\users\zhitao li\documents\visual studio 2012\projects\freefalcon\sim\include\airframe.h
;	COMDAT ?EPUFuel@AirframeClass@@QAEMXZ
_TEXT	SEGMENT
_this$ = -4						; size = 4
?EPUFuel@AirframeClass@@QAEMXZ PROC			; AirframeClass::EPUFuel, COMDAT
; _this$ = ecx

; 1197 : 	float EPUFuel (void) {return epuFuel;};

	push	ebp
	mov	ebp, esp
	push	ecx
	mov	DWORD PTR _this$[ebp], ecx
	mov	eax, DWORD PTR _this$[ebp]
	fld	DWORD PTR [eax+36]
	mov	esp, ebp
	pop	ebp
	ret	0
?EPUFuel@AirframeClass@@QAEMXZ ENDP			; AirframeClass::EPUFuel
_TEXT	ENDS
; Function compile flags: /Odtp
; File c:\users\zhitao li\documents\visual studio 2012\projects\freefalcon\sim\include\airframe.h
;	COMDAT ?FuelFlow@AirframeClass@@QAEMXZ
_TEXT	SEGMENT
_this$ = -4						; size = 4
?FuelFlow@AirframeClass@@QAEMXZ PROC			; AirframeClass::FuelFlow, COMDAT
; _this$ = ecx

; 1192 : 	float FuelFlow (void) {return fuelFlow;};

	push	ebp
	mov	ebp, esp
	push	ecx
	mov	DWORD PTR _this$[ebp], ecx
	mov	eax, DWORD PTR _this$[ebp]
	fld	DWORD PTR [eax+24]
	mov	esp, ebp
	pop	ebp
	ret	0
?FuelFlow@AirframeClass@@QAEMXZ ENDP			; AirframeClass::FuelFlow
_TEXT	ENDS
; Function compile flags: /Odtp
; File c:\users\zhitao li\documents\visual studio 2012\projects\freefalcon\sim\include\airframe.h
;	COMDAT ?ExternalFuel@AirframeClass@@QAEMXZ
_TEXT	SEGMENT
_this$ = -4						; size = 4
?ExternalFuel@AirframeClass@@QAEMXZ PROC		; AirframeClass::ExternalFuel, COMDAT
; _this$ = ecx

; 1184 : 	float ExternalFuel (void) {return externalFuel;};

	push	ebp
	mov	ebp, esp
	push	ecx
	mov	DWORD PTR _this$[ebp], ecx
	mov	eax, DWORD PTR _this$[ebp]
	fld	DWORD PTR [eax+32]
	mov	esp, ebp
	pop	ebp
	ret	0
?ExternalFuel@AirframeClass@@QAEMXZ ENDP		; AirframeClass::ExternalFuel
_TEXT	ENDS
; Function compile flags: /Odtp
; File c:\users\zhitao li\documents\visual studio 2012\projects\freefalcon\sim\include\airframe.h
;	COMDAT ?Fuel@AirframeClass@@QAEMXZ
_TEXT	SEGMENT
_this$ = -4						; size = 4
?Fuel@AirframeClass@@QAEMXZ PROC			; AirframeClass::Fuel, COMDAT
; _this$ = ecx

; 1183 : 	float Fuel (void) {return fuel;};

	push	ebp
	mov	ebp, esp
	push	ecx
	mov	DWORD PTR _this$[ebp], ecx
	mov	eax, DWORD PTR _this$[ebp]
	fld	DWORD PTR [eax+20]
	mov	esp, ebp
	pop	ebp
	ret	0
?Fuel@AirframeClass@@QAEMXZ ENDP			; AirframeClass::Fuel
_TEXT	ENDS
; Function compile flags: /Odtp
; File c:\users\zhitao li\documents\visual studio 2012\projects\freefalcon\campaign\include\dogfight.h
;	COMDAT ?GetGameType@DogfightClass@@QAE?AW4DogfightType@@XZ
_TEXT	SEGMENT
_this$ = -4						; size = 4
?GetGameType@DogfightClass@@QAE?AW4DogfightType@@XZ PROC ; DogfightClass::GetGameType, COMDAT
; _this$ = ecx

; 90   : 		DogfightType GetGameType (void)					{ return gameType; };

	push	ebp
	mov	ebp, esp
	push	ecx
	mov	DWORD PTR _this$[ebp], ecx
	mov	eax, DWORD PTR _this$[ebp]
	mov	eax, DWORD PTR [eax]
	mov	esp, ebp
	pop	ebp
	ret	0
?GetGameType@DogfightClass@@QAE?AW4DogfightType@@XZ ENDP ; DogfightClass::GetGameType
_TEXT	ENDS
; Function compile flags: /Odtp
; File c:\users\zhitao li\documents\visual studio 2012\projects\freefalcon\acmi\src\include\acmirec.h
;	COMDAT ?IsRecording@ACMIRecorder@@QAEHXZ
_TEXT	SEGMENT
_this$ = -4						; size = 4
?IsRecording@ACMIRecorder@@QAEHXZ PROC			; ACMIRecorder::IsRecording, COMDAT
; _this$ = ecx

; 319  : 	{

	push	ebp
	mov	ebp, esp
	push	ecx
	mov	DWORD PTR _this$[ebp], ecx

; 320  : 		return _recording;

	mov	eax, DWORD PTR _this$[ebp]
	mov	eax, DWORD PTR [eax+8]

; 321  : 	};

	mov	esp, ebp
	pop	ebp
	ret	0
?IsRecording@ACMIRecorder@@QAEHXZ ENDP			; ACMIRecorder::IsRecording
_TEXT	ENDS
; Function compile flags: /Odtp
; File c:\users\zhitao li\documents\visual studio 2012\projects\freefalcon\sim\include\simdrive.h
;	COMDAT ?AVTROn@SimulationDriver@@QAEHXZ
_TEXT	SEGMENT
_this$ = -4						; size = 4
?AVTROn@SimulationDriver@@QAEHXZ PROC			; SimulationDriver::AVTROn, COMDAT
; _this$ = ecx

; 100  : 	int AVTROn (void) {return avtrOn;};

	push	ebp
	mov	ebp, esp
	push	ecx
	mov	DWORD PTR _this$[ebp], ecx
	mov	eax, DWORD PTR _this$[ebp]
	mov	eax, DWORD PTR [eax+356]
	mov	esp, ebp
	pop	ebp
	ret	0
?AVTROn@SimulationDriver@@QAEHXZ ENDP			; SimulationDriver::AVTROn
_TEXT	ENDS
; Function compile flags: /Odtp
; File c:\users\zhitao li\documents\visual studio 2012\projects\freefalcon\sim\include\simdrive.h
;	COMDAT ?MotionOn@SimulationDriver@@QAEHXZ
_TEXT	SEGMENT
_this$ = -4						; size = 4
?MotionOn@SimulationDriver@@QAEHXZ PROC			; SimulationDriver::MotionOn, COMDAT
; _this$ = ecx

; 98   : 	int MotionOn(void) {return motionOn;};

	push	ebp
	mov	ebp, esp
	push	ecx
	mov	DWORD PTR _this$[ebp], ecx
	mov	eax, DWORD PTR _this$[ebp]
	mov	eax, DWORD PTR [eax+352]
	mov	esp, ebp
	pop	ebp
	ret	0
?MotionOn@SimulationDriver@@QAEHXZ ENDP			; SimulationDriver::MotionOn
_TEXT	ENDS
; Function compile flags: /Odtp
; File c:\users\zhitao li\documents\visual studio 2012\projects\freefalcon\sim\include\aircrft.h
;	COMDAT ?DBrain@AircraftClass@@QAEPAVDigitalBrain@@XZ
_TEXT	SEGMENT
_this$ = -4						; size = 4
?DBrain@AircraftClass@@QAEPAVDigitalBrain@@XZ PROC	; AircraftClass::DBrain, COMDAT
; _this$ = ecx

; 624  : 	DigitalBrain *DBrain(void)			{return (DigitalBrain *)theBrain;}

	push	ebp
	mov	ebp, esp
	push	ecx
	mov	DWORD PTR _this$[ebp], ecx
	mov	eax, DWORD PTR _this$[ebp]
	mov	eax, DWORD PTR [eax+672]
	mov	esp, ebp
	pop	ebp
	ret	0
?DBrain@AircraftClass@@QAEPAVDigitalBrain@@XZ ENDP	; AircraftClass::DBrain
_TEXT	ENDS
; Function compile flags: /Odtp
; File c:\users\zhitao li\documents\visual studio 2012\projects\freefalcon\sim\include\aircrft.h
;	COMDAT ?AutopilotType@AircraftClass@@QAE?AW4AutoPilotType@1@XZ
_TEXT	SEGMENT
_this$ = -4						; size = 4
?AutopilotType@AircraftClass@@QAE?AW4AutoPilotType@1@XZ PROC ; AircraftClass::AutopilotType, COMDAT
; _this$ = ecx

; 329  : 	AutoPilotType	AutopilotType (void) {return autopilotType;};

	push	ebp
	mov	ebp, esp
	push	ecx
	mov	DWORD PTR _this$[ebp], ecx
	mov	eax, DWORD PTR _this$[ebp]
	mov	eax, DWORD PTR [eax+968]
	mov	esp, ebp
	pop	ebp
	ret	0
?AutopilotType@AircraftClass@@QAE?AW4AutoPilotType@1@XZ ENDP ; AircraftClass::AutopilotType
_TEXT	ENDS
; Function compile flags: /Odtp
; File c:\users\zhitao li\documents\visual studio 2012\projects\freefalcon\sim\include\aircrft.h
;	COMDAT ?INSState@AircraftClass@@QAEHW4INSAlignFlags@1@@Z
_TEXT	SEGMENT
_this$ = -8						; size = 4
tv67 = -4						; size = 4
_fl$ = 8						; size = 4
?INSState@AircraftClass@@QAEHW4INSAlignFlags@1@@Z PROC	; AircraftClass::INSState, COMDAT
; _this$ = ecx

; 211  : 	int INSState(INSAlignFlags fl) { return (INSFlags & fl) == (unsigned int)fl ? 1 : 0; };

	push	ebp
	mov	ebp, esp
	sub	esp, 8
	mov	DWORD PTR _this$[ebp], ecx
	mov	eax, DWORD PTR _this$[ebp]
	mov	ecx, DWORD PTR [eax+768]
	and	ecx, DWORD PTR _fl$[ebp]
	cmp	ecx, DWORD PTR _fl$[ebp]
	jne	SHORT $LN3@INSState
	mov	DWORD PTR tv67[ebp], 1
	jmp	SHORT $LN4@INSState
$LN3@INSState:
	mov	DWORD PTR tv67[ebp], 0
$LN4@INSState:
	mov	eax, DWORD PTR tv67[ebp]
	mov	esp, ebp
	pop	ebp
	ret	4
?INSState@AircraftClass@@QAEHW4INSAlignFlags@1@@Z ENDP	; AircraftClass::INSState
_TEXT	ENDS
; Function compile flags: /Odtp
; File c:\users\zhitao li\documents\visual studio 2012\projects\freefalcon\sim\include\simmover.h
;	COMDAT ?GetDOFValue@SimMoverClass@@QAEMH@Z
_TEXT	SEGMENT
tv69 = -8						; size = 4
_this$ = -4						; size = 4
_dof$ = 8						; size = 4
?GetDOFValue@SimMoverClass@@QAEMH@Z PROC		; SimMoverClass::GetDOFValue, COMDAT
; _this$ = ecx

; 132  : 	float GetDOFValue (int dof) { ShiAssert(dof < numDofs); return dof < numDofs ? DOFData[dof] : 0;}

	push	ebp
	mov	ebp, esp
	sub	esp, 8
	mov	DWORD PTR _this$[ebp], ecx
	mov	eax, DWORD PTR _this$[ebp]
	mov	ecx, DWORD PTR _dof$[ebp]
	cmp	ecx, DWORD PTR [eax+600]
	jge	SHORT $LN3@GetDOFValu
	mov	edx, DWORD PTR _this$[ebp]
	mov	eax, DWORD PTR [edx+612]
	mov	ecx, DWORD PTR _dof$[ebp]
	movss	xmm0, DWORD PTR [eax+ecx*4]
	movss	DWORD PTR tv69[ebp], xmm0
	jmp	SHORT $LN4@GetDOFValu
$LN3@GetDOFValu:
	movss	xmm0, DWORD PTR __real@00000000
	movss	DWORD PTR tv69[ebp], xmm0
$LN4@GetDOFValu:
	fld	DWORD PTR tv69[ebp]
	mov	esp, ebp
	pop	ebp
	ret	4
?GetDOFValue@SimMoverClass@@QAEMH@Z ENDP		; SimMoverClass::GetDOFValue
_TEXT	ENDS
; Function compile flags: /Odtp
; File c:\users\zhitao li\documents\visual studio 2012\projects\freefalcon\falclib\include\falcsess.h
;	COMDAT ?GetReqCompression@FalconSessionEntity@@QBEFXZ
_TEXT	SEGMENT
_this$ = -4						; size = 4
?GetReqCompression@FalconSessionEntity@@QBEFXZ PROC	; FalconSessionEntity::GetReqCompression, COMDAT
; _this$ = ecx

; 148  : 	short GetReqCompression (void) const          { return reqCompression; }

	push	ebp
	mov	ebp, esp
	push	ecx
	mov	DWORD PTR _this$[ebp], ecx
	mov	eax, DWORD PTR _this$[ebp]
	mov	ax, WORD PTR [eax+514]
	mov	esp, ebp
	pop	ebp
	ret	0
?GetReqCompression@FalconSessionEntity@@QBEFXZ ENDP	; FalconSessionEntity::GetReqCompression
_TEXT	ENDS
; Function compile flags: /Odtp
; File c:\users\zhitao li\documents\visual studio 2012\projects\freefalcon\sim\include\cpmanager.h
;	COMDAT ?LabelFont@CockpitManager@@QAEHXZ
_TEXT	SEGMENT
_this$ = -4						; size = 4
?LabelFont@CockpitManager@@QAEHXZ PROC			; CockpitManager::LabelFont, COMDAT
; _this$ = ecx

; 597  : 	int      LabelFont(void) { return mLabelFont;};

	push	ebp
	mov	ebp, esp
	push	ecx
	mov	DWORD PTR _this$[ebp], ecx
	mov	eax, DWORD PTR _this$[ebp]
	mov	eax, DWORD PTR [eax+92]
	mov	esp, ebp
	pop	ebp
	ret	0
?LabelFont@CockpitManager@@QAEHXZ ENDP			; CockpitManager::LabelFont
_TEXT	ENDS
; Function compile flags: /Odtp
; File c:\users\zhitao li\documents\visual studio 2012\projects\freefalcon\sim\include\cpmanager.h
;	COMDAT ?GeneralFont@CockpitManager@@QAEHXZ
_TEXT	SEGMENT
_this$ = -4						; size = 4
?GeneralFont@CockpitManager@@QAEHXZ PROC		; CockpitManager::GeneralFont, COMDAT
; _this$ = ecx

; 593  : 	int      GeneralFont(void) { return mGeneralFont;};

	push	ebp
	mov	ebp, esp
	push	ecx
	mov	DWORD PTR _this$[ebp], ecx
	mov	eax, DWORD PTR _this$[ebp]
	mov	eax, DWORD PTR [eax+76]
	mov	esp, ebp
	pop	ebp
	ret	0
?GeneralFont@CockpitManager@@QAEHXZ ENDP		; CockpitManager::GeneralFont
_TEXT	ENDS
; Function compile flags: /Odtp
; File c:\users\zhitao li\documents\visual studio 2012\projects\freefalcon\sim\include\cpmanager.h
;	COMDAT ?GetCockpitHeight@CockpitManager@@QAEHXZ
_TEXT	SEGMENT
_this$ = -4						; size = 4
?GetCockpitHeight@CockpitManager@@QAEHXZ PROC		; CockpitManager::GetCockpitHeight, COMDAT
; _this$ = ecx

; 578  : 	int		GetCockpitHeight(){return DisplayOptions.DispHeight;};

	push	ebp
	mov	ebp, esp
	push	ecx
	mov	DWORD PTR _this$[ebp], ecx
	movzx	eax, WORD PTR ?DisplayOptions@@3VDisplayOptionsClass@@A+2
	mov	esp, ebp
	pop	ebp
	ret	0
?GetCockpitHeight@CockpitManager@@QAEHXZ ENDP		; CockpitManager::GetCockpitHeight
_TEXT	ENDS
; Function compile flags: /Odtp
; File c:\users\zhitao li\documents\visual studio 2012\projects\freefalcon\sim\include\cpmanager.h
;	COMDAT ?GetCockpitWidth@CockpitManager@@QAEHXZ
_TEXT	SEGMENT
_this$ = -4						; size = 4
?GetCockpitWidth@CockpitManager@@QAEHXZ PROC		; CockpitManager::GetCockpitWidth, COMDAT
; _this$ = ecx

; 577  : 	int		GetCockpitWidth() {return DisplayOptions.DispWidth;};

	push	ebp
	mov	ebp, esp
	push	ecx
	mov	DWORD PTR _this$[ebp], ecx
	movzx	eax, WORD PTR ?DisplayOptions@@3VDisplayOptionsClass@@A
	mov	esp, ebp
	pop	ebp
	ret	0
?GetCockpitWidth@CockpitManager@@QAEHXZ ENDP		; CockpitManager::GetCockpitWidth
_TEXT	ENDS
; Function compile flags: /Odtp
; File c:\users\zhitao li\documents\visual studio 2012\projects\freefalcon\sim\include\flightdata.h
;	COMDAT ?ClearHsiBit@FlightData@@QAEXH@Z
_TEXT	SEGMENT
_this$ = -4						; size = 4
_newBit$ = 8						; size = 4
?ClearHsiBit@FlightData@@QAEXH@Z PROC			; FlightData::ClearHsiBit, COMDAT
; _this$ = ecx

; 287  :     void ClearHsiBit (int newBit) {hsiBits &= ~newBit;};

	push	ebp
	mov	ebp, esp
	push	ecx
	mov	DWORD PTR _this$[ebp], ecx
	mov	eax, DWORD PTR _newBit$[ebp]
	not	eax
	mov	ecx, DWORD PTR _this$[ebp]
	and	eax, DWORD PTR [ecx+248]
	mov	edx, DWORD PTR _this$[ebp]
	mov	DWORD PTR [edx+248], eax
	mov	esp, ebp
	pop	ebp
	ret	4
?ClearHsiBit@FlightData@@QAEXH@Z ENDP			; FlightData::ClearHsiBit
_TEXT	ENDS
; Function compile flags: /Odtp
; File c:\users\zhitao li\documents\visual studio 2012\projects\freefalcon\sim\include\flightdata.h
;	COMDAT ?SetHsiBit@FlightData@@QAEXH@Z
_TEXT	SEGMENT
_this$ = -4						; size = 4
_newBit$ = 8						; size = 4
?SetHsiBit@FlightData@@QAEXH@Z PROC			; FlightData::SetHsiBit, COMDAT
; _this$ = ecx

; 286  :     void SetHsiBit (int newBit) {hsiBits |= newBit;};

	push	ebp
	mov	ebp, esp
	push	ecx
	mov	DWORD PTR _this$[ebp], ecx
	mov	eax, DWORD PTR _this$[ebp]
	mov	ecx, DWORD PTR [eax+248]
	or	ecx, DWORD PTR _newBit$[ebp]
	mov	edx, DWORD PTR _this$[ebp]
	mov	DWORD PTR [edx+248], ecx
	mov	esp, ebp
	pop	ebp
	ret	4
?SetHsiBit@FlightData@@QAEXH@Z ENDP			; FlightData::SetHsiBit
_TEXT	ENDS
; Function compile flags: /Odtp
; File c:\users\zhitao li\documents\visual studio 2012\projects\freefalcon\graphics\include\device.h
;	COMDAT ?GetDefaultRC@DisplayDevice@@QAEPAVDXContext@@XZ
_TEXT	SEGMENT
_this$ = -4						; size = 4
?GetDefaultRC@DisplayDevice@@QAEPAVDXContext@@XZ PROC	; DisplayDevice::GetDefaultRC, COMDAT
; _this$ = ecx

; 29   : 	DXContext *GetDefaultRC( void )			{ return m_DXCtx; };

	push	ebp
	mov	ebp, esp
	push	ecx
	mov	DWORD PTR _this$[ebp], ecx
	mov	eax, DWORD PTR _this$[ebp]
	mov	eax, DWORD PTR [eax]
	mov	esp, ebp
	pop	ebp
	ret	0
?GetDefaultRC@DisplayDevice@@QAEPAVDXContext@@XZ ENDP	; DisplayDevice::GetDefaultRC
_TEXT	ENDS
; Function compile flags: /Odtp
; File c:\users\zhitao li\documents\visual studio 2012\projects\freefalcon\sim\otwdrive\otwloop.cpp
_TEXT	SEGMENT
tv67 = -8						; size = 4
_this$ = -4						; size = 4
?ToggleSubTitles@OTWDriverClass@@QAEXXZ PROC		; OTWDriverClass::ToggleSubTitles
; _this$ = ecx

; 669  : {

	push	ebp
	mov	ebp, esp
	sub	esp, 8
	mov	DWORD PTR _this$[ebp], ecx

; 670  : 	drawSubTitles = !drawSubTitles;

	mov	eax, DWORD PTR _this$[ebp]
	cmp	DWORD PTR [eax+33572], 0
	jne	SHORT $LN3@ToggleSubT
	mov	DWORD PTR tv67[ebp], 1
	jmp	SHORT $LN4@ToggleSubT
$LN3@ToggleSubT:
	mov	DWORD PTR tv67[ebp], 0
$LN4@ToggleSubT:
	mov	ecx, DWORD PTR _this$[ebp]
	mov	edx, DWORD PTR tv67[ebp]
	mov	DWORD PTR [ecx+33572], edx

; 671  : }

	mov	esp, ebp
	pop	ebp
	ret	0
?ToggleSubTitles@OTWDriverClass@@QAEXXZ ENDP		; OTWDriverClass::ToggleSubTitles
_TEXT	ENDS
; Function compile flags: /Odtp
; File c:\users\zhitao li\documents\visual studio 2012\projects\freefalcon\sim\otwdrive\otwloop.cpp
_TEXT	SEGMENT
tv67 = -12						; size = 4
_this$ = -8						; size = 4
_result$ = -2						; size = 1
tv70 = -1						; size = 1
?ToggleInfoBar@OTWDriverClass@@QAEXXZ PROC		; OTWDriverClass::ToggleInfoBar
; _this$ = ecx

; 482  : {

	push	ebp
	mov	ebp, esp
	sub	esp, 12					; 0000000cH
	mov	DWORD PTR _this$[ebp], ecx

; 483  : 	drawInfoBar = !drawInfoBar;

	mov	eax, DWORD PTR _this$[ebp]
	cmp	DWORD PTR [eax+33568], 0
	jne	SHORT $LN3@ToggleInfo
	mov	DWORD PTR tv67[ebp], 1
	jmp	SHORT $LN4@ToggleInfo
$LN3@ToggleInfo:
	mov	DWORD PTR tv67[ebp], 0
$LN4@ToggleInfo:
	mov	ecx, DWORD PTR _this$[ebp]
	mov	edx, DWORD PTR tv67[ebp]
	mov	DWORD PTR [ecx+33568], edx

; 484  : 
; 485  : 	bool result = (drawInfoBar == TRUE)?true:false;

	mov	eax, DWORD PTR _this$[ebp]
	cmp	DWORD PTR [eax+33568], 1
	jne	SHORT $LN5@ToggleInfo
	mov	BYTE PTR tv70[ebp], 1
	jmp	SHORT $LN6@ToggleInfo
$LN5@ToggleInfo:
	mov	BYTE PTR tv70[ebp], 0
$LN6@ToggleInfo:
	mov	cl, BYTE PTR tv70[ebp]
	mov	BYTE PTR _result$[ebp], cl

; 486  : 	PlayerOptions.SetInfoBar(result);

	movzx	edx, BYTE PTR _result$[ebp]
	push	edx
	mov	ecx, OFFSET ?PlayerOptions@@3VPlayerOptionsClass@@A ; PlayerOptions
	call	?SetInfoBar@PlayerOptionsClass@@QAEX_N@Z ; PlayerOptionsClass::SetInfoBar

; 487  : }

	mov	esp, ebp
	pop	ebp
	ret	0
?ToggleInfoBar@OTWDriverClass@@QAEXXZ ENDP		; OTWDriverClass::ToggleInfoBar
_TEXT	ENDS
; Function compile flags: /Odtp
; File c:\users\zhitao li\documents\visual studio 2012\projects\freefalcon\sim\otwdrive\otwloop.cpp
_TEXT	SEGMENT
_this$ = -12						; size = 4
tv132 = -8						; size = 4
tv94 = -4						; size = 4
_pan$ = 8						; size = 4
_tilt$ = 12						; size = 4
?RunNew2DTrackIR@OTWDriverClass@@AAEXMM@Z PROC		; OTWDriverClass::RunNew2DTrackIR
; _this$ = ecx

; 2536 : {

	push	ebp
	mov	ebp, esp
	sub	esp, 12					; 0000000cH
	mov	DWORD PTR _this$[ebp], ecx

; 2537 : 	
; 2538 : 	static float lastpan = pan;

	mov	eax, DWORD PTR ?$S1@?1??RunNew2DTrackIR@OTWDriverClass@@AAEXMM@Z@4IA
	and	eax, 1
	jne	SHORT $LN4@RunNew2DTr
	mov	ecx, DWORD PTR ?$S1@?1??RunNew2DTrackIR@OTWDriverClass@@AAEXMM@Z@4IA
	or	ecx, 1
	mov	DWORD PTR ?$S1@?1??RunNew2DTrackIR@OTWDriverClass@@AAEXMM@Z@4IA, ecx
	movss	xmm0, DWORD PTR _pan$[ebp]
	movss	DWORD PTR ?lastpan@?1??RunNew2DTrackIR@OTWDriverClass@@AAEXMM@Z@4MA, xmm0
$LN4@RunNew2DTr:

; 2539 : 	static float lasttilt = tilt;

	mov	edx, DWORD PTR ?$S1@?1??RunNew2DTrackIR@OTWDriverClass@@AAEXMM@Z@4IA
	and	edx, 2
	jne	SHORT $LN3@RunNew2DTr
	mov	eax, DWORD PTR ?$S1@?1??RunNew2DTrackIR@OTWDriverClass@@AAEXMM@Z@4IA
	or	eax, 2
	mov	DWORD PTR ?$S1@?1??RunNew2DTrackIR@OTWDriverClass@@AAEXMM@Z@4IA, eax
	movss	xmm0, DWORD PTR _tilt$[ebp]
	movss	DWORD PTR ?lasttilt@?1??RunNew2DTrackIR@OTWDriverClass@@AAEXMM@Z@4MA, xmm0
$LN3@RunNew2DTr:

; 2540 : 
; 2541 : 	//the 10.0f values are arbitrary, but seems to produce the right amount of jitter reduction while still being sensitive
; 2542 : 
; 2543 : 	if (fabs(pan-lastpan) > 10.0f * DTR || fabs(tilt - lasttilt) > 10.0f*DTR)			

	movss	xmm0, DWORD PTR _pan$[ebp]
	subss	xmm0, DWORD PTR ?lastpan@?1??RunNew2DTrackIR@OTWDriverClass@@AAEXMM@Z@4MA
	push	ecx
	movss	DWORD PTR [esp], xmm0
	call	?fabs@@YAMM@Z				; fabs
	add	esp, 4
	fstp	DWORD PTR tv94[ebp]
	movss	xmm0, DWORD PTR tv94[ebp]
	comiss	xmm0, DWORD PTR __real@3e32b8c1
	ja	SHORT $LN1@RunNew2DTr
	movss	xmm0, DWORD PTR _tilt$[ebp]
	subss	xmm0, DWORD PTR ?lasttilt@?1??RunNew2DTrackIR@OTWDriverClass@@AAEXMM@Z@4MA
	push	ecx
	movss	DWORD PTR [esp], xmm0
	call	?fabs@@YAMM@Z				; fabs
	add	esp, 4
	fstp	DWORD PTR tv132[ebp]
	movss	xmm0, DWORD PTR tv132[ebp]
	comiss	xmm0, DWORD PTR __real@3e32b8c1
	jbe	SHORT $LN2@RunNew2DTr
$LN1@RunNew2DTr:

; 2544 : 	{
; 2545 : 		lastpan = pan;

	movss	xmm0, DWORD PTR _pan$[ebp]
	movss	DWORD PTR ?lastpan@?1??RunNew2DTrackIR@OTWDriverClass@@AAEXMM@Z@4MA, xmm0

; 2546 : 		lasttilt = tilt;

	movss	xmm0, DWORD PTR _tilt$[ebp]
	movss	DWORD PTR ?lasttilt@?1??RunNew2DTrackIR@OTWDriverClass@@AAEXMM@Z@4MA, xmm0

; 2547 : 		pCockpitManager->Set2DPanelDirection(pan,tilt);

	push	ecx
	movss	xmm0, DWORD PTR _tilt$[ebp]
	movss	DWORD PTR [esp], xmm0
	push	ecx
	movss	xmm0, DWORD PTR _pan$[ebp]
	movss	DWORD PTR [esp], xmm0
	mov	ecx, DWORD PTR _this$[ebp]
	mov	ecx, DWORD PTR [ecx+33684]
	call	?Set2DPanelDirection@CockpitManager@@QAEHMM@Z ; CockpitManager::Set2DPanelDirection
$LN2@RunNew2DTr:

; 2548 : 	}
; 2549 : }

	mov	esp, ebp
	pop	ebp
	ret	8
?RunNew2DTrackIR@OTWDriverClass@@AAEXMM@Z ENDP		; OTWDriverClass::RunNew2DTrackIR
_TEXT	ENDS
; Function compile flags: /Odtp
; File c:\users\zhitao li\documents\visual studio 2012\projects\freefalcon\vu2\include\vu_templates.h
;	COMDAT ?reset@?$VuBin@VSimBaseClass@@@@QAEXPAVSimBaseClass@@@Z
_TEXT	SEGMENT
_this$ = -4						; size = 4
_newe$ = 8						; size = 4
?reset@?$VuBin@VSimBaseClass@@@@QAEXPAVSimBaseClass@@@Z PROC ; VuBin<SimBaseClass>::reset, COMDAT
; _this$ = ecx

; 60   : 	void reset(E *newe = NULL){

	push	ebp
	mov	ebp, esp
	push	ecx
	mov	DWORD PTR _this$[ebp], ecx

; 61   : 		if (newe == e){ return; }

	mov	eax, DWORD PTR _this$[ebp]
	mov	ecx, DWORD PTR _newe$[ebp]
	cmp	ecx, DWORD PTR [eax]
	jne	SHORT $LN1@reset
	jmp	SHORT $LN2@reset
$LN1@reset:

; 62   : 		VuReferenceEntity(newe); // ref new pointer

	mov	edx, DWORD PTR _newe$[ebp]
	push	edx
	call	?VuReferenceEntity@@YAHPAVVuEntity@@@Z	; VuReferenceEntity
	add	esp, 4

; 63   : 		VuDeReferenceEntity(e);  // unref old pointer

	mov	eax, DWORD PTR _this$[ebp]
	mov	ecx, DWORD PTR [eax]
	push	ecx
	call	?VuDeReferenceEntity@@YAHPAVVuEntity@@@Z ; VuDeReferenceEntity
	add	esp, 4

; 64   : 		e = newe;                // get new pointer

	mov	edx, DWORD PTR _this$[ebp]
	mov	eax, DWORD PTR _newe$[ebp]
	mov	DWORD PTR [edx], eax
$LN2@reset:

; 65   : 	}

	mov	esp, ebp
	pop	ebp
	ret	4
?reset@?$VuBin@VSimBaseClass@@@@QAEXPAVSimBaseClass@@@Z ENDP ; VuBin<SimBaseClass>::reset
_TEXT	ENDS
; Function compile flags: /Odtp
; File c:\users\zhitao li\documents\visual studio 2012\projects\freefalcon\vu2\include\vu_templates.h
;	COMDAT ?get@?$VuBin@VSimBaseClass@@@@QBEPAVSimBaseClass@@XZ
_TEXT	SEGMENT
_this$ = -4						; size = 4
?get@?$VuBin@VSimBaseClass@@@@QBEPAVSimBaseClass@@XZ PROC ; VuBin<SimBaseClass>::get, COMDAT
; _this$ = ecx

; 55   : 	E *get() const{

	push	ebp
	mov	ebp, esp
	push	ecx
	mov	DWORD PTR _this$[ebp], ecx

; 56   : 		return e;

	mov	eax, DWORD PTR _this$[ebp]
	mov	eax, DWORD PTR [eax]

; 57   : 	}

	mov	esp, ebp
	pop	ebp
	ret	0
?get@?$VuBin@VSimBaseClass@@@@QBEPAVSimBaseClass@@XZ ENDP ; VuBin<SimBaseClass>::get
_TEXT	ENDS
; Function compile flags: /Odtp
; File c:\users\zhitao li\documents\visual studio 2012\projects\freefalcon\vu2\include\vu_templates.h
;	COMDAT ??C?$VuBin@VSimBaseClass@@@@QBEPAVSimBaseClass@@XZ
_TEXT	SEGMENT
_this$ = -4						; size = 4
??C?$VuBin@VSimBaseClass@@@@QBEPAVSimBaseClass@@XZ PROC	; VuBin<SimBaseClass>::operator->, COMDAT
; _this$ = ecx

; 50   : 	E *operator->() const {

	push	ebp
	mov	ebp, esp
	push	ecx
	mov	DWORD PTR _this$[ebp], ecx

; 51   : 		return e;

	mov	eax, DWORD PTR _this$[ebp]
	mov	eax, DWORD PTR [eax]

; 52   : 	}

	mov	esp, ebp
	pop	ebp
	ret	0
??C?$VuBin@VSimBaseClass@@@@QBEPAVSimBaseClass@@XZ ENDP	; VuBin<SimBaseClass>::operator->
_TEXT	ENDS
; Function compile flags: /Odtp
; File c:\users\zhitao li\documents\visual studio 2012\projects\freefalcon\vu2\include\vu_templates.h
;	COMDAT ??7?$VuBin@VSimBaseClass@@@@QBE_NXZ
_TEXT	SEGMENT
_this$ = -8						; size = 4
tv66 = -4						; size = 4
??7?$VuBin@VSimBaseClass@@@@QBE_NXZ PROC		; VuBin<SimBaseClass>::operator!, COMDAT
; _this$ = ecx

; 37   : 	bool operator!() const{

	push	ebp
	mov	ebp, esp
	sub	esp, 8
	mov	DWORD PTR _this$[ebp], ecx

; 38   : 		return e == NULL;

	mov	eax, DWORD PTR _this$[ebp]
	cmp	DWORD PTR [eax], 0
	jne	SHORT $LN3@operator
	mov	DWORD PTR tv66[ebp], 1
	jmp	SHORT $LN4@operator
$LN3@operator:
	mov	DWORD PTR tv66[ebp], 0
$LN4@operator:
	mov	al, BYTE PTR tv66[ebp]

; 39   : 	}

	mov	esp, ebp
	pop	ebp
	ret	0
??7?$VuBin@VSimBaseClass@@@@QBE_NXZ ENDP		; VuBin<SimBaseClass>::operator!
_TEXT	ENDS
; Function compile flags: /Odtp
; File c:\users\zhitao li\documents\visual studio 2012\projects\freefalcon\vu2\include\vu_templates.h
;	COMDAT ??4?$VuBin@VSimBaseClass@@@@QAEABV0@ABV0@@Z
_TEXT	SEGMENT
_this$ = -4						; size = 4
_rhs$ = 8						; size = 4
??4?$VuBin@VSimBaseClass@@@@QAEABV0@ABV0@@Z PROC	; VuBin<SimBaseClass>::operator=, COMDAT
; _this$ = ecx

; 24   : 	const VuBin &operator=(const VuBin &rhs){

	push	ebp
	mov	ebp, esp
	push	ecx
	mov	DWORD PTR _this$[ebp], ecx

; 25   : 		reset(rhs.e);

	mov	eax, DWORD PTR _rhs$[ebp]
	mov	ecx, DWORD PTR [eax]
	push	ecx
	mov	ecx, DWORD PTR _this$[ebp]
	call	?reset@?$VuBin@VSimBaseClass@@@@QAEXPAVSimBaseClass@@@Z ; VuBin<SimBaseClass>::reset

; 26   : 		return *this;

	mov	eax, DWORD PTR _this$[ebp]

; 27   : 	}

	mov	esp, ebp
	pop	ebp
	ret	4
??4?$VuBin@VSimBaseClass@@@@QAEABV0@ABV0@@Z ENDP	; VuBin<SimBaseClass>::operator=
_TEXT	ENDS
; Function compile flags: /Odtp
; File c:\users\zhitao li\documents\visual studio 2012\projects\freefalcon\sim\otwdrive\otwloop.cpp
_TEXT	SEGMENT
_oldElDir$1 = -24					; size = 4
_oldAzDir$2 = -20					; size = 4
_tmpEyeHeadRoll$3 = -16					; size = 4
_tmpEyeTilt$4 = -12					; size = 4
_tmpEyePan$5 = -8					; size = 4
_this$ = -4						; size = 4
_dT$ = 8						; size = 4
?SetInternalCameraPosition@OTWDriverClass@@AAEXM@Z PROC	; OTWDriverClass::SetInternalCameraPosition
; _this$ = ecx

; 2552 : {

	push	ebp
	mov	ebp, esp
	sub	esp, 24					; 00000018H
	mov	DWORD PTR _this$[ebp], ecx

; 2553 : 	Prof(SetInternalCameraPosition);	// Retro 15/10/03
; 2554 : 
; 2555 : 	// Display is 1st person, cockpit type....
; 2556 : 	ShiAssert( DisplayInCockpit() );
; 2557 : 
; 2558 : 
; 2559 : 	UpdateCameraFocus();

	mov	ecx, DWORD PTR _this$[ebp]
	call	?UpdateCameraFocus@OTWDriverClass@@QAEXXZ ; OTWDriverClass::UpdateCameraFocus

; 2560 : 
; 2561 : 	// courtesy of the code that calls this function otwPlatform is always valid
; 2562 : 	cameraVel.x=otwPlatform->XDelta();  // MLR 12/9/2003 - 

	mov	ecx, DWORD PTR _this$[ebp]
	add	ecx, 32336				; 00007e50H
	call	??C?$VuBin@VSimBaseClass@@@@QBEPAVSimBaseClass@@XZ ; VuBin<SimBaseClass>::operator->
	mov	ecx, eax
	call	?XDelta@VuEntity@@QBEMXZ		; VuEntity::XDelta
	mov	eax, DWORD PTR _this$[ebp]
	fstp	DWORD PTR [eax+33488]

; 2563 : 	cameraVel.y=otwPlatform->YDelta();

	mov	ecx, DWORD PTR _this$[ebp]
	add	ecx, 32336				; 00007e50H
	call	??C?$VuBin@VSimBaseClass@@@@QBEPAVSimBaseClass@@XZ ; VuBin<SimBaseClass>::operator->
	mov	ecx, eax
	call	?YDelta@VuEntity@@QBEMXZ		; VuEntity::YDelta
	mov	ecx, DWORD PTR _this$[ebp]
	fstp	DWORD PTR [ecx+33492]

; 2564 : 	cameraVel.z=otwPlatform->ZDelta();

	mov	ecx, DWORD PTR _this$[ebp]
	add	ecx, 32336				; 00007e50H
	call	??C?$VuBin@VSimBaseClass@@@@QBEPAVSimBaseClass@@XZ ; VuBin<SimBaseClass>::operator->
	mov	ecx, eax
	call	?ZDelta@VuEntity@@QBEMXZ		; VuEntity::ZDelta
	mov	edx, DWORD PTR _this$[ebp]
	fstp	DWORD PTR [edx+33496]

; 2565 : 
; 2566 : #if 1  // MLR 12/1/2003 - Eye position is controlled by pilotEyePos, which is gotten from the players AC
; 2567 : 	MatrixMult( &ownshipRot, &pilotEyePos, &cameraPos );

	mov	eax, DWORD PTR _this$[ebp]
	add	eax, 33440				; 000082a0H
	push	eax
	mov	ecx, DWORD PTR _this$[ebp]
	add	ecx, 33500				; 000082dcH
	push	ecx
	mov	edx, DWORD PTR _this$[ebp]
	add	edx, 33580				; 0000832cH
	push	edx
	call	?MatrixMult@@YAXPBUTrotation@@PBUTpoint@@PAU2@@Z ; MatrixMult
	add	esp, 12					; 0000000cH

; 2568 : #else
; 2569 : 	// OLD EYE PLACEMENT
; 2570 : 
; 2571 : 	// These two constants are based on rough ruler measurements
; 2572 : 	// from a schematic of the F16.
; 2573 : 	// TODO:  Get these from the object some how.
; 2574 : 	static const float	EyeFromCGfwd	= 15.0f;
; 2575 : 	static const float	EyeFromCGup		=  3.0f;
; 2576 : 
; 2577 : 	// Move the camera position from the CG to the cockpit
; 2578 : 	cameraPos.x = EyeFromCGfwd * ownshipRot.M11 - EyeFromCGup * ownshipRot.M13;
; 2579 : 	cameraPos.y = EyeFromCGfwd * ownshipRot.M21 - EyeFromCGup * ownshipRot.M23;
; 2580 : 	cameraPos.z = EyeFromCGfwd * ownshipRot.M31 - EyeFromCGup * ownshipRot.M33;
; 2581 : #endif
; 2582 : 
; 2583 : 	// Adjust for head angle (if enabled)
; 2584 : 	if (GetOTWDisplayMode() == Mode2DCockpit)

	mov	ecx, DWORD PTR _this$[ebp]
	call	?GetOTWDisplayMode@OTWDriverClass@@QAE?AW4OTWDisplayMode@1@XZ ; OTWDriverClass::GetOTWDisplayMode
	cmp	eax, 2
	jne	$LN16@SetInterna

; 2585 : 	{
; 2586 : 		if ((g_bEnableTrackIR)&&(PlayerOptions.Get2dTrackIR() == true) && !GetHybridPitMode())	// Retro 27/09/03  //Wombat778 11-18-04 Dont run the 2d trackir code in hybrid mode

	movzx	eax, BYTE PTR ?g_bEnableTrackIR@@3_NA	; g_bEnableTrackIR
	test	eax, eax
	je	$LN10@SetInterna
	mov	ecx, OFFSET ?PlayerOptions@@3VPlayerOptionsClass@@A ; PlayerOptions
	call	?Get2dTrackIR@PlayerOptionsClass@@QBE_NXZ ; PlayerOptionsClass::Get2dTrackIR
	movzx	ecx, al
	cmp	ecx, 1
	jne	SHORT $LN10@SetInterna
	mov	ecx, DWORD PTR _this$[ebp]
	call	?GetHybridPitMode@OTWDriverClass@@QAEHXZ ; OTWDriverClass::GetHybridPitMode
	test	eax, eax
	jne	SHORT $LN10@SetInterna

; 2587 : 		{
; 2588 : #ifdef DEBUG_TRACKIR_STUFF
; 2589 : 			FILE* fp = fopen("TIR_Debug_2.txt","at");
; 2590 : 			fprintf(fp,"%x",vuxRealTime);
; 2591 : 			if (vuxRealTime & g_nTrackIRSampleFreq)
; 2592 : 			{
; 2593 : 				fprintf(fp," - chk");
; 2594 : 				if (theTrackIRObject.Get_Panning_Allowed())
; 2595 : 					fprintf(fp," - allowed");
; 2596 : 			}
; 2597 : 			fprintf(fp,"\n");
; 2598 : 			fclose(fp);
; 2599 : #endif
; 2600 : 			/* sample time is user-configurable */
; 2601 : 			if (g_bNew2DTrackIR)		//Wombat778 11-15-04 New method of 2d Pit trackir movement

	movzx	edx, BYTE PTR ?g_bNew2DTrackIR@@3_NA	; g_bNew2DTrackIR
	test	edx, edx
	je	SHORT $LN14@SetInterna

; 2602 : 				RunNew2DTrackIR(cockpitFlightData.headYaw,cockpitFlightData.headPitch);

	push	ecx
	movss	xmm0, DWORD PTR ?cockpitFlightData@@3VFlightData@@A+128
	movss	DWORD PTR [esp], xmm0
	push	ecx
	movss	xmm0, DWORD PTR ?cockpitFlightData@@3VFlightData@@A+136
	movss	DWORD PTR [esp], xmm0
	mov	ecx, DWORD PTR _this$[ebp]
	call	?RunNew2DTrackIR@OTWDriverClass@@AAEXMM@Z ; OTWDriverClass::RunNew2DTrackIR

; 2603 : 
; 2604 : 			else

	jmp	SHORT $LN10@SetInterna
$LN14@SetInterna:

; 2605 : 				if (vuxRealTime & g_nTrackIRSampleFreq)	// Retro 26/09/03 - check every 512 ms (default value)

	mov	eax, DWORD PTR ?vuxRealTime@@3KA	; vuxRealTime
	and	eax, DWORD PTR ?g_nTrackIRSampleFreq@@3HA ; g_nTrackIRSampleFreq
	je	SHORT $LN12@SetInterna

; 2606 : 				{
; 2607 : 					if (theTrackIRObject.Get_Panning_Allowed())

	mov	ecx, OFFSET ?theTrackIRObject@@3VTrackIR@@A ; theTrackIRObject
	call	?Get_Panning_Allowed@TrackIR@@QAE_NXZ	; TrackIR::Get_Panning_Allowed
	movzx	ecx, al
	test	ecx, ecx
	je	SHORT $LN11@SetInterna

; 2608 : 						SimDriver.POVKludgeFunction(theTrackIRObject.TrackIR_2D_Map());	// Retro 26/09/03

	mov	ecx, OFFSET ?theTrackIRObject@@3VTrackIR@@A ; theTrackIRObject
	call	?TrackIR_2D_Map@TrackIR@@QAEHXZ		; TrackIR::TrackIR_2D_Map
	push	eax
	mov	ecx, OFFSET ?SimDriver@@3VSimulationDriver@@A ; SimDriver
	call	?POVKludgeFunction@SimulationDriver@@QAEXK@Z ; SimulationDriver::POVKludgeFunction
$LN11@SetInterna:

; 2609 : 				}
; 2610 : 				else

	jmp	SHORT $LN10@SetInterna
$LN12@SetInterna:

; 2611 : 				{
; 2612 : 					theTrackIRObject.Allow_2D_Panning();

	mov	ecx, OFFSET ?theTrackIRObject@@3VTrackIR@@A ; theTrackIRObject
	call	?Allow_2D_Panning@TrackIR@@QAEXXZ	; TrackIR::Allow_2D_Panning
$LN10@SetInterna:

; 2613 : 				}
; 2614 : 		}
; 2615 : 		// Update the head matrix
; 2616 : 		BuildHeadMatrix( FALSE, YAW_PITCH, eyePan, eyeTilt, 0.0F );

	push	ecx
	movss	xmm0, DWORD PTR __real@00000000
	movss	DWORD PTR [esp], xmm0
	mov	edx, DWORD PTR _this$[ebp]
	push	ecx
	movss	xmm0, DWORD PTR [edx+32276]
	movss	DWORD PTR [esp], xmm0
	mov	eax, DWORD PTR _this$[ebp]
	push	ecx
	movss	xmm0, DWORD PTR [eax+32272]
	movss	DWORD PTR [esp], xmm0
	push	1
	push	0
	mov	ecx, DWORD PTR _this$[ebp]
	call	?BuildHeadMatrix@OTWDriverClass@@AAEXHHMMM@Z ; OTWDriverClass::BuildHeadMatrix

; 2617 : 		// Combine the head and airplane matrices
; 2618 : 		MatrixMult (&ownshipRot, &headMatrix, &cameraRot);

	mov	ecx, DWORD PTR _this$[ebp]
	add	ecx, 33452				; 000082acH
	push	ecx
	mov	edx, DWORD PTR _this$[ebp]
	add	edx, 33616				; 00008350H
	push	edx
	mov	eax, DWORD PTR _this$[ebp]
	add	eax, 33580				; 0000832cH
	push	eax
	call	?MatrixMult@@YAXPBUTrotation@@0PAU1@@Z	; MatrixMult
	add	esp, 12					; 0000000cH
	jmp	$LN1@SetInterna
$LN16@SetInterna:

; 2619 : 
; 2620 : 	}
; 2621 : 	else if (GetOTWDisplayMode() == Mode3DCockpit)

	mov	ecx, DWORD PTR _this$[ebp]
	call	?GetOTWDisplayMode@OTWDriverClass@@QAE?AW4OTWDisplayMode@1@XZ ; OTWDriverClass::GetOTWDisplayMode
	cmp	eax, 3
	jne	SHORT $LN8@SetInterna

; 2622 : 	{
; 2623 : 		VCock_GiveGilmanHead(dT);

	push	ecx
	movss	xmm0, DWORD PTR _dT$[ebp]
	movss	DWORD PTR [esp], xmm0
	mov	ecx, DWORD PTR _this$[ebp]
	call	?VCock_GiveGilmanHead@OTWDriverClass@@AAEXM@Z ; OTWDriverClass::VCock_GiveGilmanHead
	jmp	$LN1@SetInterna
$LN8@SetInterna:

; 2624 : 	} 
; 2625 : 	else if (GetOTWDisplayMode() == ModePadlockF3)

	mov	ecx, DWORD PTR _this$[ebp]
	call	?GetOTWDisplayMode@OTWDriverClass@@QAE?AW4OTWDisplayMode@1@XZ ; OTWDriverClass::GetOTWDisplayMode
	cmp	eax, 4
	jne	$LN6@SetInterna

; 2626 : 	{
; 2627 : // 2000-11-12 MODIFIED BY S.G. SO PANNING BREAKS THE PADLOCK
; 2628 : //		Padlock_CheckPadlock(dT);
; 2629 : //		PadlockF3_CalcCamera(dT);
; 2630 : 		if (g_nPadlockMode & PLockModeBreakLock) {

	mov	ecx, DWORD PTR ?g_nPadlockMode@@3HA	; g_nPadlockMode
	and	ecx, 4
	je	$LN5@SetInterna

; 2631 : 			if (azDir == 0.0F && elDir == 0.0F) {

	mov	edx, DWORD PTR _this$[ebp]
	movss	xmm0, DWORD PTR [edx+32296]
	ucomiss	xmm0, DWORD PTR __real@00000000
	lahf
	test	ah, 68					; 00000044H
	jp	SHORT $LN4@SetInterna
	mov	eax, DWORD PTR _this$[ebp]
	movss	xmm0, DWORD PTR [eax+32300]
	ucomiss	xmm0, DWORD PTR __real@00000000
	lahf
	test	ah, 68					; 00000044H
	jp	SHORT $LN4@SetInterna

; 2632 : 				Padlock_CheckPadlock(dT);

	push	ecx
	movss	xmm0, DWORD PTR _dT$[ebp]
	movss	DWORD PTR [esp], xmm0
	mov	ecx, DWORD PTR _this$[ebp]
	call	?Padlock_CheckPadlock@OTWDriverClass@@AAEXM@Z ; OTWDriverClass::Padlock_CheckPadlock

; 2633 : 				PadlockF3_CalcCamera(dT);

	push	ecx
	movss	xmm0, DWORD PTR _dT$[ebp]
	movss	DWORD PTR [esp], xmm0
	mov	ecx, DWORD PTR _this$[ebp]
	call	?PadlockF3_CalcCamera@OTWDriverClass@@AAEXM@Z ; OTWDriverClass::PadlockF3_CalcCamera

; 2634 : 			}
; 2635 : 			else {

	jmp	$LN3@SetInterna
$LN4@SetInterna:

; 2636 : 				float oldAzDir = azDir, oldElDir = elDir; // 2002-03-12 ADDED BY S.G. Lets remember these so I can set them back after

	mov	ecx, DWORD PTR _this$[ebp]
	movss	xmm0, DWORD PTR [ecx+32296]
	movss	DWORD PTR _oldAzDir$2[ebp], xmm0
	mov	edx, DWORD PTR _this$[ebp]
	movss	xmm0, DWORD PTR [edx+32300]
	movss	DWORD PTR _oldElDir$1[ebp], xmm0

; 2637 : 				float tmpEyePan  = eyePan;

	mov	eax, DWORD PTR _this$[ebp]
	movss	xmm0, DWORD PTR [eax+32272]
	movss	DWORD PTR _tmpEyePan$5[ebp], xmm0

; 2638 : 				float tmpEyeTilt = eyeTilt;

	mov	ecx, DWORD PTR _this$[ebp]
	movss	xmm0, DWORD PTR [ecx+32276]
	movss	DWORD PTR _tmpEyeTilt$4[ebp], xmm0

; 2639 : 				float tmpEyeHeadRoll = eyeHeadRoll;

	mov	edx, DWORD PTR _this$[ebp]
	movss	xmm0, DWORD PTR [edx+32280]
	movss	DWORD PTR _tmpEyeHeadRoll$3[ebp], xmm0

; 2640 : 				mIsSlewInit = FALSE;

	mov	eax, DWORD PTR _this$[ebp]
	mov	DWORD PTR [eax+33836], 0

; 2641 : 				SetOTWDisplayMode(OTWDriverClass::Mode3DCockpit);

	push	3
	mov	ecx, DWORD PTR _this$[ebp]
	call	?SetOTWDisplayMode@OTWDriverClass@@QAEXW4OTWDisplayMode@1@@Z ; OTWDriverClass::SetOTWDisplayMode

; 2642 : 				eyePan  = tmpEyePan;

	mov	ecx, DWORD PTR _this$[ebp]
	movss	xmm0, DWORD PTR _tmpEyePan$5[ebp]
	movss	DWORD PTR [ecx+32272], xmm0

; 2643 : 				eyeTilt = tmpEyeTilt;

	mov	edx, DWORD PTR _this$[ebp]
	movss	xmm0, DWORD PTR _tmpEyeTilt$4[ebp]
	movss	DWORD PTR [edx+32276], xmm0

; 2644 : 				eyeHeadRoll = tmpEyeHeadRoll;

	mov	eax, DWORD PTR _this$[ebp]
	movss	xmm0, DWORD PTR _tmpEyeHeadRoll$3[ebp]
	movss	DWORD PTR [eax+32280], xmm0

; 2645 : 				azDir = oldAzDir; // 2002-03-12 ADDED BY S.G. Set them back to the saved value so head starts moving right away without requiring the key to let go and pushed again...

	mov	ecx, DWORD PTR _this$[ebp]
	movss	xmm0, DWORD PTR _oldAzDir$2[ebp]
	movss	DWORD PTR [ecx+32296], xmm0

; 2646 : 				elDir = oldElDir;

	mov	edx, DWORD PTR _this$[ebp]
	movss	xmm0, DWORD PTR _oldElDir$1[ebp]
	movss	DWORD PTR [edx+32300], xmm0
$LN3@SetInterna:

; 2647 : 			}
; 2648 : 		}
; 2649 : 		else {

	jmp	SHORT $LN2@SetInterna
$LN5@SetInterna:

; 2650 : 			Padlock_CheckPadlock(dT);

	push	ecx
	movss	xmm0, DWORD PTR _dT$[ebp]
	movss	DWORD PTR [esp], xmm0
	mov	ecx, DWORD PTR _this$[ebp]
	call	?Padlock_CheckPadlock@OTWDriverClass@@AAEXM@Z ; OTWDriverClass::Padlock_CheckPadlock

; 2651 : 			PadlockF3_CalcCamera(dT);

	push	ecx
	movss	xmm0, DWORD PTR _dT$[ebp]
	movss	DWORD PTR [esp], xmm0
	mov	ecx, DWORD PTR _this$[ebp]
	call	?PadlockF3_CalcCamera@OTWDriverClass@@AAEXM@Z ; OTWDriverClass::PadlockF3_CalcCamera
$LN2@SetInterna:

; 2652 : 		}
; 2653 : // END OF MODIFIED SECTION
; 2654 : 	}
; 2655 : 	else

	jmp	SHORT $LN1@SetInterna
$LN6@SetInterna:

; 2656 : 	{
; 2657 : 		memcpy (&cameraRot, &ownshipRot, sizeof (Trotation));

	push	36					; 00000024H
	mov	eax, DWORD PTR _this$[ebp]
	add	eax, 33580				; 0000832cH
	push	eax
	mov	ecx, DWORD PTR _this$[ebp]
	add	ecx, 33452				; 000082acH
	push	ecx
	call	_memcpy
	add	esp, 12					; 0000000cH
$LN1@SetInterna:

; 2658 : 	}
; 2659 : }

	mov	esp, ebp
	pop	ebp
	ret	4
?SetInternalCameraPosition@OTWDriverClass@@AAEXM@Z ENDP	; OTWDriverClass::SetInternalCameraPosition
_TEXT	ENDS
; Function compile flags: /Odtp
; File c:\users\zhitao li\documents\visual studio 2012\projects\freefalcon\sim\include\otwdrive.h
;	COMDAT ?InExitMenu@OTWDriverClass@@QAEHXZ
_TEXT	SEGMENT
_this$ = -4						; size = 4
?InExitMenu@OTWDriverClass@@QAEHXZ PROC			; OTWDriverClass::InExitMenu, COMDAT
; _this$ = ecx

; 448  :       int InExitMenu (void) {return exitMenuOn;};

	push	ebp
	mov	ebp, esp
	push	ecx
	mov	DWORD PTR _this$[ebp], ecx
	mov	eax, DWORD PTR _this$[ebp]
	mov	eax, DWORD PTR [eax+32208]
	mov	esp, ebp
	pop	ebp
	ret	0
?InExitMenu@OTWDriverClass@@QAEHXZ ENDP			; OTWDriverClass::InExitMenu
_TEXT	ENDS
; Function compile flags: /Odtp
; File c:\users\zhitao li\documents\visual studio 2012\projects\freefalcon\sim\include\otwdrive.h
;	COMDAT ?SetCameraPanTilt@OTWDriverClass@@QAEXMM@Z
_TEXT	SEGMENT
_this$ = -4						; size = 4
_pan$ = 8						; size = 4
_tilt$ = 12						; size = 4
?SetCameraPanTilt@OTWDriverClass@@QAEXMM@Z PROC		; OTWDriverClass::SetCameraPanTilt, COMDAT
; _this$ = ecx

; 427  : 	  void SetCameraPanTilt(float pan, float tilt) {eyePan = pan, eyeTilt = tilt;};	

	push	ebp
	mov	ebp, esp
	push	ecx
	mov	DWORD PTR _this$[ebp], ecx
	mov	eax, DWORD PTR _this$[ebp]
	movss	xmm0, DWORD PTR _pan$[ebp]
	movss	DWORD PTR [eax+32272], xmm0
	mov	ecx, DWORD PTR _this$[ebp]
	movss	xmm0, DWORD PTR _tilt$[ebp]
	movss	DWORD PTR [ecx+32276], xmm0
	mov	esp, ebp
	pop	ebp
	ret	8
?SetCameraPanTilt@OTWDriverClass@@QAEXMM@Z ENDP		; OTWDriverClass::SetCameraPanTilt
_TEXT	ENDS
; Function compile flags: /Odtp
; File c:\users\zhitao li\documents\visual studio 2012\projects\freefalcon\sim\otwdrive\otwloop.cpp
_TEXT	SEGMENT
tv2228 = -156						; size = 8
tv2179 = -148						; size = 8
tv2199 = -140						; size = 8
tv2188 = -132						; size = 8
tv2167 = -124						; size = 8
tv2258 = -116						; size = 4
_right$ = -112						; size = 4
_tmp$1 = -108						; size = 4
_top$ = -104						; size = 4
_tmp$2 = -100						; size = 4
_oldFont$ = -96						; size = 4
tv2260 = -92						; size = 4
_left$ = -88						; size = 4
_bottom$ = -84						; size = 4
tv2224 = -80						; size = 4
tv2163 = -76						; size = 4
tv2195 = -72						; size = 4
tv2184 = -68						; size = 4
tv2175 = -64						; size = 4
_centerY$3 = -60					; size = 4
_pct$4 = -56						; size = 4
_j$5 = -52						; size = 4
_centerX$6 = -48					; size = 4
_h$7 = -44						; size = 4
_w$8 = -40						; size = 4
_centerx$ = -36						; size = 4
_chat_cnt$ = -32					; size = 2
_offset$9 = -28						; size = 4
_y$10 = -24						; size = 4
_x$11 = -20						; size = 4
_i$12 = -16						; size = 2
_cameraID$13 = -12					; size = 2
_color$14 = -8						; size = 4
_this$ = -4						; size = 4
?DisplayFrontText@OTWDriverClass@@QAEXXZ PROC		; OTWDriverClass::DisplayFrontText
; _this$ = ecx

; 710  : {	

	push	ebp
	mov	ebp, esp
	sub	esp, 156				; 0000009cH
	mov	DWORD PTR _this$[ebp], ecx

; 711  : 	//Prof(DisplayFrontText);			// Retro 15/10/03
; 712  : 	//Prof_update(ProfilerActive);	// Retro 16/10/03
; 713  : 
; 714  : 	//	Retro 7May2004 - for pretty screens we dont want any 2d text on our screen
; 715  : 	//	See OTWDriver.h for explanation
; 716  : 	if (takePrettyScreenShot == EXECUTE)

	mov	eax, DWORD PTR _this$[ebp]
	cmp	DWORD PTR [eax+32032], 1
	jne	SHORT $LN161@DisplayFro

; 717  : 	{
; 718  : 		takeScreenShot = TRUE;					// tell falcon to take a shot

	mov	ecx, DWORD PTR _this$[ebp]
	mov	DWORD PTR [ecx+32028], 1

; 719  : 		takePrettyScreenShot = CLEANUP;			// advance state..

	mov	edx, DWORD PTR _this$[ebp]
	mov	DWORD PTR [edx+32032], 2

; 720  : 		return;									// deactivate 2d text (by NOT drawing it :p)

	jmp	$LN162@DisplayFro
	jmp	SHORT $LN159@DisplayFro
$LN161@DisplayFro:

; 721  : 	}
; 722  : 	else if (takePrettyScreenShot == CLEANUP)

	mov	eax, DWORD PTR _this$[ebp]
	cmp	DWORD PTR [eax+32032], 2
	jne	SHORT $LN159@DisplayFro

; 723  : 	{
; 724  : 		takePrettyScreenShot = OFF;				// advance state..

	mov	ecx, DWORD PTR _this$[ebp]
	mov	DWORD PTR [ecx+32032], 0

; 725  : 		DrawableBSP::drawLabels = LabelState;	// reactivate labels again (if they were on)

	mov	edx, DWORD PTR _this$[ebp]
	mov	eax, DWORD PTR [edx+32036]
	mov	DWORD PTR ?drawLabels@DrawableBSP@@2HA, eax ; DrawableBSP::drawLabels
$LN159@DisplayFro:

; 726  : 	}
; 727  : 	// Retro 7-8May2004 end
; 728  : 
; 729  : 	float centerx=DisplayOptions.DispWidth * 0.5f;

	movzx	ecx, WORD PTR ?DisplayOptions@@3VDisplayOptionsClass@@A
	cvtsi2ss xmm0, ecx
	mulss	xmm0, DWORD PTR __real@3f000000
	movss	DWORD PTR _centerx$[ebp], xmm0

; 730  : 	float top;
; 731  : 	float left;
; 732  : 	float bottom;
; 733  : 	float right;
; 734  : 	short chat_cnt;
; 735  : 	int oldFont;
; 736  : 
; 737  : 	// SetFont
; 738  : 	oldFont = VirtualDisplay::CurFont();

	call	?CurFont@VirtualDisplay@@SAHXZ		; VirtualDisplay::CurFont
	mov	DWORD PTR _oldFont$[ebp], eax

; 739  : 	VirtualDisplay::SetFont(pCockpitManager->GeneralFont());

	mov	edx, DWORD PTR _this$[ebp]
	mov	ecx, DWORD PTR [edx+33684]
	call	?GeneralFont@CockpitManager@@QAEHXZ	; CockpitManager::GeneralFont
	push	eax
	call	?SetFont@VirtualDisplay@@SAXH@Z		; VirtualDisplay::SetFont
	add	esp, 4

; 740  : 
; 741  : 	// save the current viewport
; 742  : 	OTWDriver.renderer->GetViewport(&left, &top, &right, &bottom);

	lea	eax, DWORD PTR _bottom$[ebp]
	push	eax
	lea	ecx, DWORD PTR _right$[ebp]
	push	ecx
	lea	edx, DWORD PTR _top$[ebp]
	push	edx
	lea	eax, DWORD PTR _left$[ebp]
	push	eax
	mov	ecx, DWORD PTR ?OTWDriver@@3VOTWDriverClass@@A+33576
	call	?GetViewport@VirtualDisplay@@QAEXPAM000@Z ; VirtualDisplay::GetViewport

; 743  : 
; 744  : #ifdef _DO_OWN_START_FRAME_
; 745  : 	OTWDriver.renderer->StartDraw();

	mov	ecx, DWORD PTR ?OTWDriver@@3VOTWDriverClass@@A+33576
	mov	edx, DWORD PTR [ecx]
	mov	ecx, DWORD PTR ?OTWDriver@@3VOTWDriverClass@@A+33576
	mov	eax, DWORD PTR [edx+12]
	call	eax

; 746  : #endif
; 747  : 
; 748  : 	// set the new viewport
; 749  : 	OTWDriver.renderer->SetViewport(-1.0, 1.0, 1.0, -1.0);

	push	ecx
	movss	xmm0, DWORD PTR __real@bf800000
	movss	DWORD PTR [esp], xmm0
	push	ecx
	movss	xmm0, DWORD PTR __real@3f800000
	movss	DWORD PTR [esp], xmm0
	push	ecx
	movss	xmm0, DWORD PTR __real@3f800000
	movss	DWORD PTR [esp], xmm0
	push	ecx
	movss	xmm0, DWORD PTR __real@bf800000
	movss	DWORD PTR [esp], xmm0
	mov	ecx, DWORD PTR ?OTWDriver@@3VOTWDriverClass@@A+33576
	mov	edx, DWORD PTR [ecx]
	mov	ecx, DWORD PTR ?OTWDriver@@3VOTWDriverClass@@A+33576
	mov	eax, DWORD PTR [edx+112]
	call	eax

; 750  : 
; 751  : 	// Any Text stuff you want drawn below here
; 752  : 	if(vuxRealTime & 0x200) // Blink every half second

	mov	ecx, DWORD PTR ?vuxRealTime@@3KA	; vuxRealTime
	and	ecx, 512				; 00000200H
	je	$LN67@DisplayFro

; 753  : 	{
; 754  : 		// Display the PAUSE/X2/X4 compression strings HERE
; 755  : 		if ((vuxRealTime & 0x200) && (remoteCompressionRequests || targetCompressionRatio != 1))

	mov	edx, DWORD PTR ?vuxRealTime@@3KA	; vuxRealTime
	and	edx, 512				; 00000200H
	je	$LN75@DisplayFro
	cmp	DWORD PTR ?remoteCompressionRequests@@3HA, 0 ; remoteCompressionRequests
	jne	SHORT $LN156@DisplayFro
	cmp	DWORD PTR ?targetCompressionRatio@@3HA, 1 ; targetCompressionRatio
	je	$LN75@DisplayFro
$LN156@DisplayFro:

; 756  : 		{
; 757  : 			float offset=0.0f;

	movss	xmm0, DWORD PTR __real@00000000
	movss	DWORD PTR _offset$9[ebp], xmm0

; 758  : 			long color;
; 759  : 			// THIS SHOULD BE TRANSLATABLE TEXT
; 760  : 			//
; 761  : 			offset =-(OTWDriver.renderer->ScreenTextWidth(CompressionStr[0]) + COMPRESS_SPACING +
; 762  : 					  OTWDriver.renderer->ScreenTextWidth(CompressionStr[2]) + COMPRESS_SPACING +
; 763  : 					  OTWDriver.renderer->ScreenTextWidth(CompressionStr[3]) + COMPRESS_SPACING) *0.5f;

	mov	eax, 20					; 00000014H
	imul	eax, 0
	add	eax, OFFSET ?CompressionStr@@3PAY0BE@DA	; CompressionStr
	push	eax
	call	?ScreenTextWidth@VirtualDisplay@@SAHPBD@Z ; VirtualDisplay::ScreenTextWidth
	add	esp, 4
	cvtsi2ss xmm0, eax
	addss	xmm0, DWORD PTR __real@41700000
	mov	ecx, 20					; 00000014H
	shl	ecx, 1
	add	ecx, OFFSET ?CompressionStr@@3PAY0BE@DA	; CompressionStr
	push	ecx
	movss	DWORD PTR tv2258[ebp], xmm0
	call	?ScreenTextWidth@VirtualDisplay@@SAHPBD@Z ; VirtualDisplay::ScreenTextWidth
	add	esp, 4
	cvtsi2ss xmm0, eax
	movss	xmm1, DWORD PTR tv2258[ebp]
	addss	xmm1, xmm0
	addss	xmm1, DWORD PTR __real@41700000
	mov	edx, 20					; 00000014H
	imul	edx, 3
	add	edx, OFFSET ?CompressionStr@@3PAY0BE@DA	; CompressionStr
	push	edx
	movss	DWORD PTR tv2260[ebp], xmm1
	call	?ScreenTextWidth@VirtualDisplay@@SAHPBD@Z ; VirtualDisplay::ScreenTextWidth
	add	esp, 4
	cvtsi2ss xmm0, eax
	movss	xmm1, DWORD PTR tv2260[ebp]
	addss	xmm1, xmm0
	addss	xmm1, DWORD PTR __real@41700000
	xorps	xmm1, DWORD PTR __xmm@80000000800000008000000080000000
	mulss	xmm1, DWORD PTR __real@3f000000
	movss	DWORD PTR _offset$9[ebp], xmm1

; 764  : 
; 765  : 			if((!targetCompressionRatio) || (!FalconLocalSession->GetReqCompression()) || (remoteCompressionRequests & REMOTE_REQUEST_PAUSE))

	cmp	DWORD PTR ?targetCompressionRatio@@3HA, 0 ; targetCompressionRatio
	je	SHORT $LN154@DisplayFro
	mov	ecx, OFFSET ?vuLocalSessionEntity@@3V?$VuBin@VVuSessionEntity@@@@A ; vuLocalSessionEntity
	call	?get@?$VuBin@VVuSessionEntity@@@@QBEPAVVuSessionEntity@@XZ ; VuBin<VuSessionEntity>::get
	mov	ecx, eax
	call	?GetReqCompression@FalconSessionEntity@@QBEFXZ ; FalconSessionEntity::GetReqCompression
	cwde
	test	eax, eax
	je	SHORT $LN154@DisplayFro
	mov	ecx, DWORD PTR ?remoteCompressionRequests@@3HA ; remoteCompressionRequests
	and	ecx, 1
	je	$LN155@DisplayFro
$LN154@DisplayFro:

; 766  : 			{
; 767  : 				// if ANY compression OR compression requests == 0... Draw PAUSE
; 768  : 				//		if compression == our compression == all requested compressions
; 769  : 				//			Use RED
; 770  : 				//		if compression == our compression != all requested compression
; 771  : 				//			Use YELLOW
; 772  : 				//		if compression != our compression
; 773  : 				//			Use GREEN
; 774  : 				//
; 775  : 				if((!targetCompressionRatio) && ((!FalconLocalSession->GetReqCompression()) && (remoteCompressionRequests & REMOTE_REQUEST_PAUSE) || !gCommsMgr->Online()))

	cmp	DWORD PTR ?targetCompressionRatio@@3HA, 0 ; targetCompressionRatio
	jne	SHORT $LN153@DisplayFro
	mov	ecx, OFFSET ?vuLocalSessionEntity@@3V?$VuBin@VVuSessionEntity@@@@A ; vuLocalSessionEntity
	call	?get@?$VuBin@VVuSessionEntity@@@@QBEPAVVuSessionEntity@@XZ ; VuBin<VuSessionEntity>::get
	mov	ecx, eax
	call	?GetReqCompression@FalconSessionEntity@@QBEFXZ ; FalconSessionEntity::GetReqCompression
	movsx	edx, ax
	test	edx, edx
	jne	SHORT $LN151@DisplayFro
	mov	eax, DWORD PTR ?remoteCompressionRequests@@3HA ; remoteCompressionRequests
	and	eax, 1
	jne	SHORT $LN152@DisplayFro
$LN151@DisplayFro:
	mov	ecx, DWORD PTR ?gCommsMgr@@3PAVUIComms@@A ; gCommsMgr
	call	?Online@UIComms@@QAEHXZ			; UIComms::Online
	test	eax, eax
	jne	SHORT $LN153@DisplayFro
$LN152@DisplayFro:

; 776  : 					color=0xff0000ff;

	mov	DWORD PTR _color$14[ebp], -16776961	; ff0000ffH
	jmp	SHORT $LN148@DisplayFro
$LN153@DisplayFro:

; 777  : 				else if((!FalconLocalSession->GetReqCompression()))

	mov	ecx, OFFSET ?vuLocalSessionEntity@@3V?$VuBin@VVuSessionEntity@@@@A ; vuLocalSessionEntity
	call	?get@?$VuBin@VVuSessionEntity@@@@QBEPAVVuSessionEntity@@XZ ; VuBin<VuSessionEntity>::get
	mov	ecx, eax
	call	?GetReqCompression@FalconSessionEntity@@QBEFXZ ; FalconSessionEntity::GetReqCompression
	movsx	ecx, ax
	test	ecx, ecx
	jne	SHORT $LN149@DisplayFro

; 778  : 					color=0xff00ff00;

	mov	DWORD PTR _color$14[ebp], -16711936	; ff00ff00H

; 779  : 				else

	jmp	SHORT $LN148@DisplayFro
$LN149@DisplayFro:

; 780  : 					color=0xff00ffff;

	mov	DWORD PTR _color$14[ebp], -16711681	; ff00ffffH
$LN148@DisplayFro:

; 781  : 				OTWDriver.renderer->SetColor(color);

	mov	edx, DWORD PTR _color$14[ebp]
	push	edx
	mov	eax, DWORD PTR ?OTWDriver@@3VOTWDriverClass@@A+33576
	mov	edx, DWORD PTR [eax]
	mov	ecx, DWORD PTR ?OTWDriver@@3VOTWDriverClass@@A+33576
	mov	eax, DWORD PTR [edx+92]
	call	eax

; 782  : 				OTWDriver.renderer->ScreenText(centerx+offset,COMPRESS_Y, CompressionStr[0]);

	push	0
	mov	ecx, 20					; 00000014H
	imul	ecx, 0
	add	ecx, OFFSET ?CompressionStr@@3PAY0BE@DA	; CompressionStr
	push	ecx
	push	ecx
	movss	xmm0, DWORD PTR __real@40a00000
	movss	DWORD PTR [esp], xmm0
	movss	xmm0, DWORD PTR _centerx$[ebp]
	addss	xmm0, DWORD PTR _offset$9[ebp]
	push	ecx
	movss	DWORD PTR [esp], xmm0
	mov	edx, DWORD PTR ?OTWDriver@@3VOTWDriverClass@@A+33576
	mov	eax, DWORD PTR [edx]
	mov	ecx, DWORD PTR ?OTWDriver@@3VOTWDriverClass@@A+33576
	mov	edx, DWORD PTR [eax+100]
	call	edx
$LN155@DisplayFro:

; 783  : 			}
; 784  : 			offset+=OTWDriver.renderer->ScreenTextWidth(CompressionStr[0]) + COMPRESS_SPACING;

	mov	eax, 20					; 00000014H
	imul	eax, 0
	add	eax, OFFSET ?CompressionStr@@3PAY0BE@DA	; CompressionStr
	push	eax
	call	?ScreenTextWidth@VirtualDisplay@@SAHPBD@Z ; VirtualDisplay::ScreenTextWidth
	add	esp, 4
	cvtsi2ss xmm0, eax
	addss	xmm0, DWORD PTR __real@41700000
	addss	xmm0, DWORD PTR _offset$9[ebp]
	movss	DWORD PTR _offset$9[ebp], xmm0

; 785  : 			if((targetCompressionRatio == 2) || (FalconLocalSession->GetReqCompression() == 2) || (remoteCompressionRequests & REMOTE_REQUEST_2))

	cmp	DWORD PTR ?targetCompressionRatio@@3HA, 2 ; targetCompressionRatio
	je	SHORT $LN146@DisplayFro
	mov	ecx, OFFSET ?vuLocalSessionEntity@@3V?$VuBin@VVuSessionEntity@@@@A ; vuLocalSessionEntity
	call	?get@?$VuBin@VVuSessionEntity@@@@QBEPAVVuSessionEntity@@XZ ; VuBin<VuSessionEntity>::get
	mov	ecx, eax
	call	?GetReqCompression@FalconSessionEntity@@QBEFXZ ; FalconSessionEntity::GetReqCompression
	movsx	ecx, ax
	cmp	ecx, 2
	je	SHORT $LN146@DisplayFro
	mov	edx, DWORD PTR ?remoteCompressionRequests@@3HA ; remoteCompressionRequests
	and	edx, 2
	je	$LN147@DisplayFro
$LN146@DisplayFro:

; 786  : 			{
; 787  : 				// if ANY compression OR compression requests == 2... Draw 2X
; 788  : 				//		if compression == our compression == all requested compressions
; 789  : 				//			Use RED
; 790  : 				//		if compression == our compression != all requested compression
; 791  : 				//			Use YELLOW
; 792  : 				//		if compression != our compression
; 793  : 				//			Use GREEN
; 794  : 				//
; 795  : 				if((targetCompressionRatio == 2) && ((FalconLocalSession->GetReqCompression() == 2) && (remoteCompressionRequests & REMOTE_REQUEST_2) || !gCommsMgr->Online()))

	cmp	DWORD PTR ?targetCompressionRatio@@3HA, 2 ; targetCompressionRatio
	jne	SHORT $LN145@DisplayFro
	mov	ecx, OFFSET ?vuLocalSessionEntity@@3V?$VuBin@VVuSessionEntity@@@@A ; vuLocalSessionEntity
	call	?get@?$VuBin@VVuSessionEntity@@@@QBEPAVVuSessionEntity@@XZ ; VuBin<VuSessionEntity>::get
	mov	ecx, eax
	call	?GetReqCompression@FalconSessionEntity@@QBEFXZ ; FalconSessionEntity::GetReqCompression
	cwde
	cmp	eax, 2
	jne	SHORT $LN143@DisplayFro
	mov	ecx, DWORD PTR ?remoteCompressionRequests@@3HA ; remoteCompressionRequests
	and	ecx, 2
	jne	SHORT $LN144@DisplayFro
$LN143@DisplayFro:
	mov	ecx, DWORD PTR ?gCommsMgr@@3PAVUIComms@@A ; gCommsMgr
	call	?Online@UIComms@@QAEHXZ			; UIComms::Online
	test	eax, eax
	jne	SHORT $LN145@DisplayFro
$LN144@DisplayFro:

; 796  : 					color=0xff0000ff;

	mov	DWORD PTR _color$14[ebp], -16776961	; ff0000ffH
	jmp	SHORT $LN140@DisplayFro
$LN145@DisplayFro:

; 797  : 				else if((FalconLocalSession->GetReqCompression() == 2))

	mov	ecx, OFFSET ?vuLocalSessionEntity@@3V?$VuBin@VVuSessionEntity@@@@A ; vuLocalSessionEntity
	call	?get@?$VuBin@VVuSessionEntity@@@@QBEPAVVuSessionEntity@@XZ ; VuBin<VuSessionEntity>::get
	mov	ecx, eax
	call	?GetReqCompression@FalconSessionEntity@@QBEFXZ ; FalconSessionEntity::GetReqCompression
	movsx	edx, ax
	cmp	edx, 2
	jne	SHORT $LN141@DisplayFro

; 798  : 					color=0xff00ff00;

	mov	DWORD PTR _color$14[ebp], -16711936	; ff00ff00H

; 799  : 				else

	jmp	SHORT $LN140@DisplayFro
$LN141@DisplayFro:

; 800  : 					color=0xff00ffff;

	mov	DWORD PTR _color$14[ebp], -16711681	; ff00ffffH
$LN140@DisplayFro:

; 801  : 				OTWDriver.renderer->SetColor(color);

	mov	eax, DWORD PTR _color$14[ebp]
	push	eax
	mov	ecx, DWORD PTR ?OTWDriver@@3VOTWDriverClass@@A+33576
	mov	edx, DWORD PTR [ecx]
	mov	ecx, DWORD PTR ?OTWDriver@@3VOTWDriverClass@@A+33576
	mov	eax, DWORD PTR [edx+92]
	call	eax

; 802  : 				OTWDriver.renderer->ScreenText(centerx+offset,COMPRESS_Y, CompressionStr[2]);

	push	0
	mov	ecx, 20					; 00000014H
	shl	ecx, 1
	add	ecx, OFFSET ?CompressionStr@@3PAY0BE@DA	; CompressionStr
	push	ecx
	push	ecx
	movss	xmm0, DWORD PTR __real@40a00000
	movss	DWORD PTR [esp], xmm0
	movss	xmm0, DWORD PTR _centerx$[ebp]
	addss	xmm0, DWORD PTR _offset$9[ebp]
	push	ecx
	movss	DWORD PTR [esp], xmm0
	mov	edx, DWORD PTR ?OTWDriver@@3VOTWDriverClass@@A+33576
	mov	eax, DWORD PTR [edx]
	mov	ecx, DWORD PTR ?OTWDriver@@3VOTWDriverClass@@A+33576
	mov	edx, DWORD PTR [eax+100]
	call	edx
$LN147@DisplayFro:

; 803  : 			}
; 804  : 			// JB 010109 offset+=OTWDriver.renderer->ScreenTextWidth(CompressionStr[2]) + COMPRESS_SPACING; 
; 805  : 			if((targetCompressionRatio == 4) || (FalconLocalSession->GetReqCompression() == 4) || (remoteCompressionRequests & REMOTE_REQUEST_4))

	cmp	DWORD PTR ?targetCompressionRatio@@3HA, 4 ; targetCompressionRatio
	je	SHORT $LN138@DisplayFro
	mov	ecx, OFFSET ?vuLocalSessionEntity@@3V?$VuBin@VVuSessionEntity@@@@A ; vuLocalSessionEntity
	call	?get@?$VuBin@VVuSessionEntity@@@@QBEPAVVuSessionEntity@@XZ ; VuBin<VuSessionEntity>::get
	mov	ecx, eax
	call	?GetReqCompression@FalconSessionEntity@@QBEFXZ ; FalconSessionEntity::GetReqCompression
	cwde
	cmp	eax, 4
	je	SHORT $LN138@DisplayFro
	mov	ecx, DWORD PTR ?remoteCompressionRequests@@3HA ; remoteCompressionRequests
	and	ecx, 4
	je	$LN139@DisplayFro
$LN138@DisplayFro:

; 806  : 			{
; 807  : 				// if ANY compression OR compression requests > 2... Draw 4X
; 808  : 				//		if compression == our compression == all requested compressions
; 809  : 				//			Use RED
; 810  : 				//		if compression == our compression != all requested compression
; 811  : 				//			Use YELLOW
; 812  : 				//		if compression != our compression
; 813  : 				//			Use GREEN
; 814  : 				//
; 815  : 				if((targetCompressionRatio == 4) && ((FalconLocalSession->GetReqCompression() == 4) && (remoteCompressionRequests & REMOTE_REQUEST_4) || !gCommsMgr->Online()))

	cmp	DWORD PTR ?targetCompressionRatio@@3HA, 4 ; targetCompressionRatio
	jne	SHORT $LN137@DisplayFro
	mov	ecx, OFFSET ?vuLocalSessionEntity@@3V?$VuBin@VVuSessionEntity@@@@A ; vuLocalSessionEntity
	call	?get@?$VuBin@VVuSessionEntity@@@@QBEPAVVuSessionEntity@@XZ ; VuBin<VuSessionEntity>::get
	mov	ecx, eax
	call	?GetReqCompression@FalconSessionEntity@@QBEFXZ ; FalconSessionEntity::GetReqCompression
	movsx	edx, ax
	cmp	edx, 4
	jne	SHORT $LN135@DisplayFro
	mov	eax, DWORD PTR ?remoteCompressionRequests@@3HA ; remoteCompressionRequests
	and	eax, 4
	jne	SHORT $LN136@DisplayFro
$LN135@DisplayFro:
	mov	ecx, DWORD PTR ?gCommsMgr@@3PAVUIComms@@A ; gCommsMgr
	call	?Online@UIComms@@QAEHXZ			; UIComms::Online
	test	eax, eax
	jne	SHORT $LN137@DisplayFro
$LN136@DisplayFro:

; 816  : 					color=0xff0000ff;

	mov	DWORD PTR _color$14[ebp], -16776961	; ff0000ffH
	jmp	SHORT $LN132@DisplayFro
$LN137@DisplayFro:

; 817  : 				else if((FalconLocalSession->GetReqCompression() == 4))

	mov	ecx, OFFSET ?vuLocalSessionEntity@@3V?$VuBin@VVuSessionEntity@@@@A ; vuLocalSessionEntity
	call	?get@?$VuBin@VVuSessionEntity@@@@QBEPAVVuSessionEntity@@XZ ; VuBin<VuSessionEntity>::get
	mov	ecx, eax
	call	?GetReqCompression@FalconSessionEntity@@QBEFXZ ; FalconSessionEntity::GetReqCompression
	movsx	ecx, ax
	cmp	ecx, 4
	jne	SHORT $LN133@DisplayFro

; 818  : 					color=0xff00ff00;

	mov	DWORD PTR _color$14[ebp], -16711936	; ff00ff00H

; 819  : 				else

	jmp	SHORT $LN132@DisplayFro
$LN133@DisplayFro:

; 820  : 					color=0xff00ffff;

	mov	DWORD PTR _color$14[ebp], -16711681	; ff00ffffH
$LN132@DisplayFro:

; 821  : 				OTWDriver.renderer->SetColor(color);

	mov	edx, DWORD PTR _color$14[ebp]
	push	edx
	mov	eax, DWORD PTR ?OTWDriver@@3VOTWDriverClass@@A+33576
	mov	edx, DWORD PTR [eax]
	mov	ecx, DWORD PTR ?OTWDriver@@3VOTWDriverClass@@A+33576
	mov	eax, DWORD PTR [edx+92]
	call	eax

; 822  : 				OTWDriver.renderer->ScreenText(centerx+offset,COMPRESS_Y, CompressionStr[3]);

	push	0
	mov	ecx, 20					; 00000014H
	imul	ecx, 3
	add	ecx, OFFSET ?CompressionStr@@3PAY0BE@DA	; CompressionStr
	push	ecx
	push	ecx
	movss	xmm0, DWORD PTR __real@40a00000
	movss	DWORD PTR [esp], xmm0
	movss	xmm0, DWORD PTR _centerx$[ebp]
	addss	xmm0, DWORD PTR _offset$9[ebp]
	push	ecx
	movss	DWORD PTR [esp], xmm0
	mov	edx, DWORD PTR ?OTWDriver@@3VOTWDriverClass@@A+33576
	mov	eax, DWORD PTR [edx]
	mov	ecx, DWORD PTR ?OTWDriver@@3VOTWDriverClass@@A+33576
	mov	edx, DWORD PTR [eax+100]
	call	edx
$LN139@DisplayFro:

; 823  : 			}
; 824  : 
; 825  : 			// JB 010109
; 826  : 			//offset+=OTWDriver.renderer->ScreenTextWidth(CompressionStr[3]) + COMPRESS_SPACING;
; 827  : 			if((targetCompressionRatio == 8) || (FalconLocalSession->GetReqCompression() == 8) || (remoteCompressionRequests & REMOTE_REQUEST_8))

	cmp	DWORD PTR ?targetCompressionRatio@@3HA, 8 ; targetCompressionRatio
	je	SHORT $LN130@DisplayFro
	mov	ecx, OFFSET ?vuLocalSessionEntity@@3V?$VuBin@VVuSessionEntity@@@@A ; vuLocalSessionEntity
	call	?get@?$VuBin@VVuSessionEntity@@@@QBEPAVVuSessionEntity@@XZ ; VuBin<VuSessionEntity>::get
	mov	ecx, eax
	call	?GetReqCompression@FalconSessionEntity@@QBEFXZ ; FalconSessionEntity::GetReqCompression
	cwde
	cmp	eax, 8
	je	SHORT $LN130@DisplayFro
	mov	ecx, DWORD PTR ?remoteCompressionRequests@@3HA ; remoteCompressionRequests
	and	ecx, 8
	je	$LN131@DisplayFro
$LN130@DisplayFro:

; 828  : 			{
; 829  : 				// if ANY compression OR compression requests > 2... Draw 8X
; 830  : 				//		if compression == our compression == all requested compressions
; 831  : 				//			Use RED
; 832  : 				//		if compression == our compression != all requested compression
; 833  : 				//			Use YELLOW
; 834  : 				//		if compression != our compression
; 835  : 				//			Use GREEN
; 836  : 				//
; 837  : 				if((targetCompressionRatio == 8) && ((FalconLocalSession->GetReqCompression() == 8) && (remoteCompressionRequests & REMOTE_REQUEST_8) || !gCommsMgr->Online()))

	cmp	DWORD PTR ?targetCompressionRatio@@3HA, 8 ; targetCompressionRatio
	jne	SHORT $LN129@DisplayFro
	mov	ecx, OFFSET ?vuLocalSessionEntity@@3V?$VuBin@VVuSessionEntity@@@@A ; vuLocalSessionEntity
	call	?get@?$VuBin@VVuSessionEntity@@@@QBEPAVVuSessionEntity@@XZ ; VuBin<VuSessionEntity>::get
	mov	ecx, eax
	call	?GetReqCompression@FalconSessionEntity@@QBEFXZ ; FalconSessionEntity::GetReqCompression
	movsx	edx, ax
	cmp	edx, 8
	jne	SHORT $LN127@DisplayFro
	mov	eax, DWORD PTR ?remoteCompressionRequests@@3HA ; remoteCompressionRequests
	and	eax, 8
	jne	SHORT $LN128@DisplayFro
$LN127@DisplayFro:
	mov	ecx, DWORD PTR ?gCommsMgr@@3PAVUIComms@@A ; gCommsMgr
	call	?Online@UIComms@@QAEHXZ			; UIComms::Online
	test	eax, eax
	jne	SHORT $LN129@DisplayFro
$LN128@DisplayFro:

; 838  : 					color=0xff0000ff;

	mov	DWORD PTR _color$14[ebp], -16776961	; ff0000ffH
	jmp	SHORT $LN124@DisplayFro
$LN129@DisplayFro:

; 839  : 				else if((FalconLocalSession->GetReqCompression() == 8))

	mov	ecx, OFFSET ?vuLocalSessionEntity@@3V?$VuBin@VVuSessionEntity@@@@A ; vuLocalSessionEntity
	call	?get@?$VuBin@VVuSessionEntity@@@@QBEPAVVuSessionEntity@@XZ ; VuBin<VuSessionEntity>::get
	mov	ecx, eax
	call	?GetReqCompression@FalconSessionEntity@@QBEFXZ ; FalconSessionEntity::GetReqCompression
	movsx	ecx, ax
	cmp	ecx, 8
	jne	SHORT $LN125@DisplayFro

; 840  : 					color=0xff00ff00;

	mov	DWORD PTR _color$14[ebp], -16711936	; ff00ff00H

; 841  : 				else

	jmp	SHORT $LN124@DisplayFro
$LN125@DisplayFro:

; 842  : 					color=0xff00ffff;

	mov	DWORD PTR _color$14[ebp], -16711681	; ff00ffffH
$LN124@DisplayFro:

; 843  : 				OTWDriver.renderer->SetColor(color);

	mov	edx, DWORD PTR _color$14[ebp]
	push	edx
	mov	eax, DWORD PTR ?OTWDriver@@3VOTWDriverClass@@A+33576
	mov	edx, DWORD PTR [eax]
	mov	ecx, DWORD PTR ?OTWDriver@@3VOTWDriverClass@@A+33576
	mov	eax, DWORD PTR [edx+92]
	call	eax

; 844  : 				OTWDriver.renderer->ScreenText(centerx+offset,COMPRESS_Y, "x8");

	push	0
	push	OFFSET ??_C@_02ENMDKDPO@x8?$AA@
	push	ecx
	movss	xmm0, DWORD PTR __real@40a00000
	movss	DWORD PTR [esp], xmm0
	movss	xmm0, DWORD PTR _centerx$[ebp]
	addss	xmm0, DWORD PTR _offset$9[ebp]
	push	ecx
	movss	DWORD PTR [esp], xmm0
	mov	ecx, DWORD PTR ?OTWDriver@@3VOTWDriverClass@@A+33576
	mov	edx, DWORD PTR [ecx]
	mov	ecx, DWORD PTR ?OTWDriver@@3VOTWDriverClass@@A+33576
	mov	eax, DWORD PTR [edx+100]
	call	eax
$LN131@DisplayFro:

; 845  : 			}
; 846  : 			//offset+=OTWDriver.renderer->ScreenTextWidth("x8") + COMPRESS_SPACING;
; 847  : 			if((targetCompressionRatio == 16) || (FalconLocalSession->GetReqCompression() == 16) || (remoteCompressionRequests & REMOTE_REQUEST_16))

	cmp	DWORD PTR ?targetCompressionRatio@@3HA, 16 ; targetCompressionRatio, 00000010H
	je	SHORT $LN122@DisplayFro
	mov	ecx, OFFSET ?vuLocalSessionEntity@@3V?$VuBin@VVuSessionEntity@@@@A ; vuLocalSessionEntity
	call	?get@?$VuBin@VVuSessionEntity@@@@QBEPAVVuSessionEntity@@XZ ; VuBin<VuSessionEntity>::get
	mov	ecx, eax
	call	?GetReqCompression@FalconSessionEntity@@QBEFXZ ; FalconSessionEntity::GetReqCompression
	movsx	ecx, ax
	cmp	ecx, 16					; 00000010H
	je	SHORT $LN122@DisplayFro
	mov	edx, DWORD PTR ?remoteCompressionRequests@@3HA ; remoteCompressionRequests
	and	edx, 16					; 00000010H
	je	$LN123@DisplayFro
$LN122@DisplayFro:

; 848  : 			{
; 849  : 				// if ANY compression OR compression requests > 2... Draw 16X
; 850  : 				//		if compression == our compression == all requested compressions
; 851  : 				//			Use RED
; 852  : 				//		if compression == our compression != all requested compression
; 853  : 				//			Use YELLOW
; 854  : 				//		if compression != our compression
; 855  : 				//			Use GREEN
; 856  : 				//
; 857  : 				if((targetCompressionRatio == 16) && ((FalconLocalSession->GetReqCompression() == 16) && (remoteCompressionRequests & REMOTE_REQUEST_16) || !gCommsMgr->Online()))

	cmp	DWORD PTR ?targetCompressionRatio@@3HA, 16 ; targetCompressionRatio, 00000010H
	jne	SHORT $LN121@DisplayFro
	mov	ecx, OFFSET ?vuLocalSessionEntity@@3V?$VuBin@VVuSessionEntity@@@@A ; vuLocalSessionEntity
	call	?get@?$VuBin@VVuSessionEntity@@@@QBEPAVVuSessionEntity@@XZ ; VuBin<VuSessionEntity>::get
	mov	ecx, eax
	call	?GetReqCompression@FalconSessionEntity@@QBEFXZ ; FalconSessionEntity::GetReqCompression
	cwde
	cmp	eax, 16					; 00000010H
	jne	SHORT $LN119@DisplayFro
	mov	ecx, DWORD PTR ?remoteCompressionRequests@@3HA ; remoteCompressionRequests
	and	ecx, 16					; 00000010H
	jne	SHORT $LN120@DisplayFro
$LN119@DisplayFro:
	mov	ecx, DWORD PTR ?gCommsMgr@@3PAVUIComms@@A ; gCommsMgr
	call	?Online@UIComms@@QAEHXZ			; UIComms::Online
	test	eax, eax
	jne	SHORT $LN121@DisplayFro
$LN120@DisplayFro:

; 858  : 					color=0xff0000ff;

	mov	DWORD PTR _color$14[ebp], -16776961	; ff0000ffH
	jmp	SHORT $LN116@DisplayFro
$LN121@DisplayFro:

; 859  : 				else if((FalconLocalSession->GetReqCompression() == 16))

	mov	ecx, OFFSET ?vuLocalSessionEntity@@3V?$VuBin@VVuSessionEntity@@@@A ; vuLocalSessionEntity
	call	?get@?$VuBin@VVuSessionEntity@@@@QBEPAVVuSessionEntity@@XZ ; VuBin<VuSessionEntity>::get
	mov	ecx, eax
	call	?GetReqCompression@FalconSessionEntity@@QBEFXZ ; FalconSessionEntity::GetReqCompression
	movsx	edx, ax
	cmp	edx, 16					; 00000010H
	jne	SHORT $LN117@DisplayFro

; 860  : 					color=0xff00ff00;

	mov	DWORD PTR _color$14[ebp], -16711936	; ff00ff00H

; 861  : 				else

	jmp	SHORT $LN116@DisplayFro
$LN117@DisplayFro:

; 862  : 					color=0xff00ffff;

	mov	DWORD PTR _color$14[ebp], -16711681	; ff00ffffH
$LN116@DisplayFro:

; 863  : 				OTWDriver.renderer->SetColor(color);

	mov	eax, DWORD PTR _color$14[ebp]
	push	eax
	mov	ecx, DWORD PTR ?OTWDriver@@3VOTWDriverClass@@A+33576
	mov	edx, DWORD PTR [ecx]
	mov	ecx, DWORD PTR ?OTWDriver@@3VOTWDriverClass@@A+33576
	mov	eax, DWORD PTR [edx+92]
	call	eax

; 864  : 				OTWDriver.renderer->ScreenText(centerx+offset,COMPRESS_Y, "x16");

	push	0
	push	OFFSET ??_C@_03NMIFLGEC@x16?$AA@
	push	ecx
	movss	xmm0, DWORD PTR __real@40a00000
	movss	DWORD PTR [esp], xmm0
	movss	xmm0, DWORD PTR _centerx$[ebp]
	addss	xmm0, DWORD PTR _offset$9[ebp]
	push	ecx
	movss	DWORD PTR [esp], xmm0
	mov	ecx, DWORD PTR ?OTWDriver@@3VOTWDriverClass@@A+33576
	mov	edx, DWORD PTR [ecx]
	mov	ecx, DWORD PTR ?OTWDriver@@3VOTWDriverClass@@A+33576
	mov	eax, DWORD PTR [edx+100]
	call	eax
$LN123@DisplayFro:

; 865  : 			}
; 866  : 			//offset+=OTWDriver.renderer->ScreenTextWidth("x16") + COMPRESS_SPACING;
; 867  : 			if((targetCompressionRatio == 32) || (FalconLocalSession->GetReqCompression() == 32) || (remoteCompressionRequests & REMOTE_REQUEST_32))

	cmp	DWORD PTR ?targetCompressionRatio@@3HA, 32 ; targetCompressionRatio, 00000020H
	je	SHORT $LN114@DisplayFro
	mov	ecx, OFFSET ?vuLocalSessionEntity@@3V?$VuBin@VVuSessionEntity@@@@A ; vuLocalSessionEntity
	call	?get@?$VuBin@VVuSessionEntity@@@@QBEPAVVuSessionEntity@@XZ ; VuBin<VuSessionEntity>::get
	mov	ecx, eax
	call	?GetReqCompression@FalconSessionEntity@@QBEFXZ ; FalconSessionEntity::GetReqCompression
	movsx	ecx, ax
	cmp	ecx, 32					; 00000020H
	je	SHORT $LN114@DisplayFro
	mov	edx, DWORD PTR ?remoteCompressionRequests@@3HA ; remoteCompressionRequests
	and	edx, 32					; 00000020H
	je	$LN115@DisplayFro
$LN114@DisplayFro:

; 868  : 			{
; 869  : 				// if ANY compression OR compression requests > 2... Draw 32X
; 870  : 				//		if compression == our compression == all requested compressions
; 871  : 				//			Use RED
; 872  : 				//		if compression == our compression != all requested compression
; 873  : 				//			Use YELLOW
; 874  : 				//		if compression != our compression
; 875  : 				//			Use GREEN
; 876  : 				//
; 877  : 				if((targetCompressionRatio == 32) && ((FalconLocalSession->GetReqCompression() == 32) && (remoteCompressionRequests & REMOTE_REQUEST_32) || !gCommsMgr->Online()))

	cmp	DWORD PTR ?targetCompressionRatio@@3HA, 32 ; targetCompressionRatio, 00000020H
	jne	SHORT $LN113@DisplayFro
	mov	ecx, OFFSET ?vuLocalSessionEntity@@3V?$VuBin@VVuSessionEntity@@@@A ; vuLocalSessionEntity
	call	?get@?$VuBin@VVuSessionEntity@@@@QBEPAVVuSessionEntity@@XZ ; VuBin<VuSessionEntity>::get
	mov	ecx, eax
	call	?GetReqCompression@FalconSessionEntity@@QBEFXZ ; FalconSessionEntity::GetReqCompression
	cwde
	cmp	eax, 32					; 00000020H
	jne	SHORT $LN111@DisplayFro
	mov	ecx, DWORD PTR ?remoteCompressionRequests@@3HA ; remoteCompressionRequests
	and	ecx, 32					; 00000020H
	jne	SHORT $LN112@DisplayFro
$LN111@DisplayFro:
	mov	ecx, DWORD PTR ?gCommsMgr@@3PAVUIComms@@A ; gCommsMgr
	call	?Online@UIComms@@QAEHXZ			; UIComms::Online
	test	eax, eax
	jne	SHORT $LN113@DisplayFro
$LN112@DisplayFro:

; 878  : 					color=0xff0000ff;

	mov	DWORD PTR _color$14[ebp], -16776961	; ff0000ffH
	jmp	SHORT $LN108@DisplayFro
$LN113@DisplayFro:

; 879  : 				else if((FalconLocalSession->GetReqCompression() == 32))

	mov	ecx, OFFSET ?vuLocalSessionEntity@@3V?$VuBin@VVuSessionEntity@@@@A ; vuLocalSessionEntity
	call	?get@?$VuBin@VVuSessionEntity@@@@QBEPAVVuSessionEntity@@XZ ; VuBin<VuSessionEntity>::get
	mov	ecx, eax
	call	?GetReqCompression@FalconSessionEntity@@QBEFXZ ; FalconSessionEntity::GetReqCompression
	movsx	edx, ax
	cmp	edx, 32					; 00000020H
	jne	SHORT $LN109@DisplayFro

; 880  : 					color=0xff00ff00;

	mov	DWORD PTR _color$14[ebp], -16711936	; ff00ff00H

; 881  : 				else

	jmp	SHORT $LN108@DisplayFro
$LN109@DisplayFro:

; 882  : 					color=0xff00ffff;

	mov	DWORD PTR _color$14[ebp], -16711681	; ff00ffffH
$LN108@DisplayFro:

; 883  : 				OTWDriver.renderer->SetColor(color);

	mov	eax, DWORD PTR _color$14[ebp]
	push	eax
	mov	ecx, DWORD PTR ?OTWDriver@@3VOTWDriverClass@@A+33576
	mov	edx, DWORD PTR [ecx]
	mov	ecx, DWORD PTR ?OTWDriver@@3VOTWDriverClass@@A+33576
	mov	eax, DWORD PTR [edx+92]
	call	eax

; 884  : 				OTWDriver.renderer->ScreenText(centerx+offset,COMPRESS_Y, "x32");

	push	0
	push	OFFSET ??_C@_03LLGNKHCI@x32?$AA@
	push	ecx
	movss	xmm0, DWORD PTR __real@40a00000
	movss	DWORD PTR [esp], xmm0
	movss	xmm0, DWORD PTR _centerx$[ebp]
	addss	xmm0, DWORD PTR _offset$9[ebp]
	push	ecx
	movss	DWORD PTR [esp], xmm0
	mov	ecx, DWORD PTR ?OTWDriver@@3VOTWDriverClass@@A+33576
	mov	edx, DWORD PTR [ecx]
	mov	ecx, DWORD PTR ?OTWDriver@@3VOTWDriverClass@@A+33576
	mov	eax, DWORD PTR [edx+100]
	call	eax
$LN115@DisplayFro:

; 885  : 			}
; 886  : 			//offset+=OTWDriver.renderer->ScreenTextWidth("x32") + COMPRESS_SPACING;
; 887  : 			if((targetCompressionRatio == 64) || (FalconLocalSession->GetReqCompression() == 64) || (remoteCompressionRequests & REMOTE_REQUEST_64))

	cmp	DWORD PTR ?targetCompressionRatio@@3HA, 64 ; targetCompressionRatio, 00000040H
	je	SHORT $LN106@DisplayFro
	mov	ecx, OFFSET ?vuLocalSessionEntity@@3V?$VuBin@VVuSessionEntity@@@@A ; vuLocalSessionEntity
	call	?get@?$VuBin@VVuSessionEntity@@@@QBEPAVVuSessionEntity@@XZ ; VuBin<VuSessionEntity>::get
	mov	ecx, eax
	call	?GetReqCompression@FalconSessionEntity@@QBEFXZ ; FalconSessionEntity::GetReqCompression
	movsx	ecx, ax
	cmp	ecx, 64					; 00000040H
	je	SHORT $LN106@DisplayFro
	mov	edx, DWORD PTR ?remoteCompressionRequests@@3HA ; remoteCompressionRequests
	and	edx, 64					; 00000040H
	je	$LN107@DisplayFro
$LN106@DisplayFro:

; 888  : 			{
; 889  : 				// if ANY compression OR compression requests > 2... Draw 64X
; 890  : 				//		if compression == our compression == all requested compressions
; 891  : 				//			Use RED
; 892  : 				//		if compression == our compression != all requested compression
; 893  : 				//			Use YELLOW
; 894  : 				//		if compression != our compression
; 895  : 				//			Use GREEN
; 896  : 				//
; 897  : 				if((targetCompressionRatio == 64) && ((FalconLocalSession->GetReqCompression() == 64) && (remoteCompressionRequests & REMOTE_REQUEST_64) || !gCommsMgr->Online()))

	cmp	DWORD PTR ?targetCompressionRatio@@3HA, 64 ; targetCompressionRatio, 00000040H
	jne	SHORT $LN105@DisplayFro
	mov	ecx, OFFSET ?vuLocalSessionEntity@@3V?$VuBin@VVuSessionEntity@@@@A ; vuLocalSessionEntity
	call	?get@?$VuBin@VVuSessionEntity@@@@QBEPAVVuSessionEntity@@XZ ; VuBin<VuSessionEntity>::get
	mov	ecx, eax
	call	?GetReqCompression@FalconSessionEntity@@QBEFXZ ; FalconSessionEntity::GetReqCompression
	cwde
	cmp	eax, 64					; 00000040H
	jne	SHORT $LN103@DisplayFro
	mov	ecx, DWORD PTR ?remoteCompressionRequests@@3HA ; remoteCompressionRequests
	and	ecx, 64					; 00000040H
	jne	SHORT $LN104@DisplayFro
$LN103@DisplayFro:
	mov	ecx, DWORD PTR ?gCommsMgr@@3PAVUIComms@@A ; gCommsMgr
	call	?Online@UIComms@@QAEHXZ			; UIComms::Online
	test	eax, eax
	jne	SHORT $LN105@DisplayFro
$LN104@DisplayFro:

; 898  : 					color=0xff0000ff;

	mov	DWORD PTR _color$14[ebp], -16776961	; ff0000ffH
	jmp	SHORT $LN100@DisplayFro
$LN105@DisplayFro:

; 899  : 				else if((FalconLocalSession->GetReqCompression() == 64))

	mov	ecx, OFFSET ?vuLocalSessionEntity@@3V?$VuBin@VVuSessionEntity@@@@A ; vuLocalSessionEntity
	call	?get@?$VuBin@VVuSessionEntity@@@@QBEPAVVuSessionEntity@@XZ ; VuBin<VuSessionEntity>::get
	mov	ecx, eax
	call	?GetReqCompression@FalconSessionEntity@@QBEFXZ ; FalconSessionEntity::GetReqCompression
	movsx	edx, ax
	cmp	edx, 64					; 00000040H
	jne	SHORT $LN101@DisplayFro

; 900  : 					color=0xff00ff00;

	mov	DWORD PTR _color$14[ebp], -16711936	; ff00ff00H

; 901  : 				else

	jmp	SHORT $LN100@DisplayFro
$LN101@DisplayFro:

; 902  : 					color=0xff00ffff;

	mov	DWORD PTR _color$14[ebp], -16711681	; ff00ffffH
$LN100@DisplayFro:

; 903  : 				OTWDriver.renderer->SetColor(color);

	mov	eax, DWORD PTR _color$14[ebp]
	push	eax
	mov	ecx, DWORD PTR ?OTWDriver@@3VOTWDriverClass@@A+33576
	mov	edx, DWORD PTR [ecx]
	mov	ecx, DWORD PTR ?OTWDriver@@3VOTWDriverClass@@A+33576
	mov	eax, DWORD PTR [edx+92]
	call	eax

; 904  : 				OTWDriver.renderer->ScreenText(centerx+offset,COMPRESS_Y, "x64");

	push	0
	push	OFFSET ??_C@_03OLPMMCEF@x64?$AA@
	push	ecx
	movss	xmm0, DWORD PTR __real@40a00000
	movss	DWORD PTR [esp], xmm0
	movss	xmm0, DWORD PTR _centerx$[ebp]
	addss	xmm0, DWORD PTR _offset$9[ebp]
	push	ecx
	movss	DWORD PTR [esp], xmm0
	mov	ecx, DWORD PTR ?OTWDriver@@3VOTWDriverClass@@A+33576
	mov	edx, DWORD PTR [ecx]
	mov	ecx, DWORD PTR ?OTWDriver@@3VOTWDriverClass@@A+33576
	mov	eax, DWORD PTR [edx+100]
	call	eax
$LN107@DisplayFro:

; 905  : 			}
; 906  : 			//offset+=OTWDriver.renderer->ScreenTextWidth("x64") + COMPRESS_SPACING;
; 907  : 			if((targetCompressionRatio == 128) || (FalconLocalSession->GetReqCompression() == 128) || (remoteCompressionRequests & REMOTE_REQUEST_128))

	cmp	DWORD PTR ?targetCompressionRatio@@3HA, 128 ; targetCompressionRatio, 00000080H
	je	SHORT $LN98@DisplayFro
	mov	ecx, OFFSET ?vuLocalSessionEntity@@3V?$VuBin@VVuSessionEntity@@@@A ; vuLocalSessionEntity
	call	?get@?$VuBin@VVuSessionEntity@@@@QBEPAVVuSessionEntity@@XZ ; VuBin<VuSessionEntity>::get
	mov	ecx, eax
	call	?GetReqCompression@FalconSessionEntity@@QBEFXZ ; FalconSessionEntity::GetReqCompression
	movsx	ecx, ax
	cmp	ecx, 128				; 00000080H
	je	SHORT $LN98@DisplayFro
	mov	edx, DWORD PTR ?remoteCompressionRequests@@3HA ; remoteCompressionRequests
	and	edx, 128				; 00000080H
	je	$LN99@DisplayFro
$LN98@DisplayFro:

; 908  : 			{
; 909  : 				// if ANY compression OR compression requests > 2... Draw 128X
; 910  : 				//		if compression == our compression == all requested compressions
; 911  : 				//			Use RED
; 912  : 				//		if compression == our compression != all requested compression
; 913  : 				//			Use YELLOW
; 914  : 				//		if compression != our compression
; 915  : 				//			Use GREEN
; 916  : 				//
; 917  : 				if((targetCompressionRatio == 128) && ((FalconLocalSession->GetReqCompression() == 128) && (remoteCompressionRequests & REMOTE_REQUEST_128) || !gCommsMgr->Online()))

	cmp	DWORD PTR ?targetCompressionRatio@@3HA, 128 ; targetCompressionRatio, 00000080H
	jne	SHORT $LN97@DisplayFro
	mov	ecx, OFFSET ?vuLocalSessionEntity@@3V?$VuBin@VVuSessionEntity@@@@A ; vuLocalSessionEntity
	call	?get@?$VuBin@VVuSessionEntity@@@@QBEPAVVuSessionEntity@@XZ ; VuBin<VuSessionEntity>::get
	mov	ecx, eax
	call	?GetReqCompression@FalconSessionEntity@@QBEFXZ ; FalconSessionEntity::GetReqCompression
	cwde
	cmp	eax, 128				; 00000080H
	jne	SHORT $LN95@DisplayFro
	mov	ecx, DWORD PTR ?remoteCompressionRequests@@3HA ; remoteCompressionRequests
	and	ecx, 128				; 00000080H
	jne	SHORT $LN96@DisplayFro
$LN95@DisplayFro:
	mov	ecx, DWORD PTR ?gCommsMgr@@3PAVUIComms@@A ; gCommsMgr
	call	?Online@UIComms@@QAEHXZ			; UIComms::Online
	test	eax, eax
	jne	SHORT $LN97@DisplayFro
$LN96@DisplayFro:

; 918  : 					color=0xff0000ff;

	mov	DWORD PTR _color$14[ebp], -16776961	; ff0000ffH
	jmp	SHORT $LN92@DisplayFro
$LN97@DisplayFro:

; 919  : 				else if((FalconLocalSession->GetReqCompression() == 128))

	mov	ecx, OFFSET ?vuLocalSessionEntity@@3V?$VuBin@VVuSessionEntity@@@@A ; vuLocalSessionEntity
	call	?get@?$VuBin@VVuSessionEntity@@@@QBEPAVVuSessionEntity@@XZ ; VuBin<VuSessionEntity>::get
	mov	ecx, eax
	call	?GetReqCompression@FalconSessionEntity@@QBEFXZ ; FalconSessionEntity::GetReqCompression
	movsx	edx, ax
	cmp	edx, 128				; 00000080H
	jne	SHORT $LN93@DisplayFro

; 920  : 					color=0xff00ff00;

	mov	DWORD PTR _color$14[ebp], -16711936	; ff00ff00H

; 921  : 				else

	jmp	SHORT $LN92@DisplayFro
$LN93@DisplayFro:

; 922  : 					color=0xff00ffff;

	mov	DWORD PTR _color$14[ebp], -16711681	; ff00ffffH
$LN92@DisplayFro:

; 923  : 				OTWDriver.renderer->SetColor(color);

	mov	eax, DWORD PTR _color$14[ebp]
	push	eax
	mov	ecx, DWORD PTR ?OTWDriver@@3VOTWDriverClass@@A+33576
	mov	edx, DWORD PTR [ecx]
	mov	ecx, DWORD PTR ?OTWDriver@@3VOTWDriverClass@@A+33576
	mov	eax, DWORD PTR [edx+92]
	call	eax

; 924  : 				OTWDriver.renderer->ScreenText(centerx+offset,COMPRESS_Y, "x128");

	push	0
	push	OFFSET ??_C@_04IIJILBCN@x128?$AA@
	push	ecx
	movss	xmm0, DWORD PTR __real@40a00000
	movss	DWORD PTR [esp], xmm0
	movss	xmm0, DWORD PTR _centerx$[ebp]
	addss	xmm0, DWORD PTR _offset$9[ebp]
	push	ecx
	movss	DWORD PTR [esp], xmm0
	mov	ecx, DWORD PTR ?OTWDriver@@3VOTWDriverClass@@A+33576
	mov	edx, DWORD PTR [ecx]
	mov	ecx, DWORD PTR ?OTWDriver@@3VOTWDriverClass@@A+33576
	mov	eax, DWORD PTR [edx+100]
	call	eax
$LN99@DisplayFro:

; 925  : 			}
; 926  : 			//offset+=OTWDriver.renderer->ScreenTextWidth("x128") + COMPRESS_SPACING;
; 927  : 			if((targetCompressionRatio == 256) || (FalconLocalSession->GetReqCompression() == 256) || (remoteCompressionRequests & REMOTE_REQUEST_256))

	cmp	DWORD PTR ?targetCompressionRatio@@3HA, 256 ; targetCompressionRatio, 00000100H
	je	SHORT $LN90@DisplayFro
	mov	ecx, OFFSET ?vuLocalSessionEntity@@3V?$VuBin@VVuSessionEntity@@@@A ; vuLocalSessionEntity
	call	?get@?$VuBin@VVuSessionEntity@@@@QBEPAVVuSessionEntity@@XZ ; VuBin<VuSessionEntity>::get
	mov	ecx, eax
	call	?GetReqCompression@FalconSessionEntity@@QBEFXZ ; FalconSessionEntity::GetReqCompression
	movsx	ecx, ax
	cmp	ecx, 256				; 00000100H
	je	SHORT $LN90@DisplayFro
	mov	edx, DWORD PTR ?remoteCompressionRequests@@3HA ; remoteCompressionRequests
	and	edx, 256				; 00000100H
	je	$LN91@DisplayFro
$LN90@DisplayFro:

; 928  : 			{
; 929  : 				// if ANY compression OR compression requests > 2... Draw 256X
; 930  : 				//		if compression == our compression == all requested compressions
; 931  : 				//			Use RED
; 932  : 				//		if compression == our compression != all requested compression
; 933  : 				//			Use YELLOW
; 934  : 				//		if compression != our compression
; 935  : 				//			Use GREEN
; 936  : 				//
; 937  : 				if((targetCompressionRatio == 256) && ((FalconLocalSession->GetReqCompression() == 256) && (remoteCompressionRequests & REMOTE_REQUEST_256) || !gCommsMgr->Online()))

	cmp	DWORD PTR ?targetCompressionRatio@@3HA, 256 ; targetCompressionRatio, 00000100H
	jne	SHORT $LN89@DisplayFro
	mov	ecx, OFFSET ?vuLocalSessionEntity@@3V?$VuBin@VVuSessionEntity@@@@A ; vuLocalSessionEntity
	call	?get@?$VuBin@VVuSessionEntity@@@@QBEPAVVuSessionEntity@@XZ ; VuBin<VuSessionEntity>::get
	mov	ecx, eax
	call	?GetReqCompression@FalconSessionEntity@@QBEFXZ ; FalconSessionEntity::GetReqCompression
	cwde
	cmp	eax, 256				; 00000100H
	jne	SHORT $LN87@DisplayFro
	mov	ecx, DWORD PTR ?remoteCompressionRequests@@3HA ; remoteCompressionRequests
	and	ecx, 256				; 00000100H
	jne	SHORT $LN88@DisplayFro
$LN87@DisplayFro:
	mov	ecx, DWORD PTR ?gCommsMgr@@3PAVUIComms@@A ; gCommsMgr
	call	?Online@UIComms@@QAEHXZ			; UIComms::Online
	test	eax, eax
	jne	SHORT $LN89@DisplayFro
$LN88@DisplayFro:

; 938  : 					color=0xff0000ff;

	mov	DWORD PTR _color$14[ebp], -16776961	; ff0000ffH
	jmp	SHORT $LN84@DisplayFro
$LN89@DisplayFro:

; 939  : 				else if((FalconLocalSession->GetReqCompression() == 256))

	mov	ecx, OFFSET ?vuLocalSessionEntity@@3V?$VuBin@VVuSessionEntity@@@@A ; vuLocalSessionEntity
	call	?get@?$VuBin@VVuSessionEntity@@@@QBEPAVVuSessionEntity@@XZ ; VuBin<VuSessionEntity>::get
	mov	ecx, eax
	call	?GetReqCompression@FalconSessionEntity@@QBEFXZ ; FalconSessionEntity::GetReqCompression
	movsx	edx, ax
	cmp	edx, 256				; 00000100H
	jne	SHORT $LN85@DisplayFro

; 940  : 					color=0xff00ff00;

	mov	DWORD PTR _color$14[ebp], -16711936	; ff00ff00H

; 941  : 				else

	jmp	SHORT $LN84@DisplayFro
$LN85@DisplayFro:

; 942  : 					color=0xff00ffff;

	mov	DWORD PTR _color$14[ebp], -16711681	; ff00ffffH
$LN84@DisplayFro:

; 943  : 				OTWDriver.renderer->SetColor(color);

	mov	eax, DWORD PTR _color$14[ebp]
	push	eax
	mov	ecx, DWORD PTR ?OTWDriver@@3VOTWDriverClass@@A+33576
	mov	edx, DWORD PTR [ecx]
	mov	ecx, DWORD PTR ?OTWDriver@@3VOTWDriverClass@@A+33576
	mov	eax, DWORD PTR [edx+92]
	call	eax

; 944  : 				OTWDriver.renderer->ScreenText(centerx+offset,COMPRESS_Y, "x256");

	push	0
	push	OFFSET ??_C@_04BOBCFMI@x256?$AA@
	push	ecx
	movss	xmm0, DWORD PTR __real@40a00000
	movss	DWORD PTR [esp], xmm0
	movss	xmm0, DWORD PTR _centerx$[ebp]
	addss	xmm0, DWORD PTR _offset$9[ebp]
	push	ecx
	movss	DWORD PTR [esp], xmm0
	mov	ecx, DWORD PTR ?OTWDriver@@3VOTWDriverClass@@A+33576
	mov	edx, DWORD PTR [ecx]
	mov	ecx, DWORD PTR ?OTWDriver@@3VOTWDriverClass@@A+33576
	mov	eax, DWORD PTR [edx+100]
	call	eax
$LN91@DisplayFro:

; 945  : 			}
; 946  : 			//offset+=OTWDriver.renderer->ScreenTextWidth("x256") + COMPRESS_SPACING;
; 947  : 			if((targetCompressionRatio == 512) || (FalconLocalSession->GetReqCompression() == 512) || (remoteCompressionRequests & REMOTE_REQUEST_512))

	cmp	DWORD PTR ?targetCompressionRatio@@3HA, 512 ; targetCompressionRatio, 00000200H
	je	SHORT $LN82@DisplayFro
	mov	ecx, OFFSET ?vuLocalSessionEntity@@3V?$VuBin@VVuSessionEntity@@@@A ; vuLocalSessionEntity
	call	?get@?$VuBin@VVuSessionEntity@@@@QBEPAVVuSessionEntity@@XZ ; VuBin<VuSessionEntity>::get
	mov	ecx, eax
	call	?GetReqCompression@FalconSessionEntity@@QBEFXZ ; FalconSessionEntity::GetReqCompression
	movsx	ecx, ax
	cmp	ecx, 512				; 00000200H
	je	SHORT $LN82@DisplayFro
	mov	edx, DWORD PTR ?remoteCompressionRequests@@3HA ; remoteCompressionRequests
	and	edx, 512				; 00000200H
	je	$LN83@DisplayFro
$LN82@DisplayFro:

; 948  : 			{
; 949  : 				// if ANY compression OR compression requests > 2... Draw 512X
; 950  : 				//		if compression == our compression == all requested compressions
; 951  : 				//			Use RED
; 952  : 				//		if compression == our compression != all requested compression
; 953  : 				//			Use YELLOW
; 954  : 				//		if compression != our compression
; 955  : 				//			Use GREEN
; 956  : 				//
; 957  : 				if((targetCompressionRatio == 512) && ((FalconLocalSession->GetReqCompression() == 512) && (remoteCompressionRequests & REMOTE_REQUEST_512) || !gCommsMgr->Online()))

	cmp	DWORD PTR ?targetCompressionRatio@@3HA, 512 ; targetCompressionRatio, 00000200H
	jne	SHORT $LN81@DisplayFro
	mov	ecx, OFFSET ?vuLocalSessionEntity@@3V?$VuBin@VVuSessionEntity@@@@A ; vuLocalSessionEntity
	call	?get@?$VuBin@VVuSessionEntity@@@@QBEPAVVuSessionEntity@@XZ ; VuBin<VuSessionEntity>::get
	mov	ecx, eax
	call	?GetReqCompression@FalconSessionEntity@@QBEFXZ ; FalconSessionEntity::GetReqCompression
	cwde
	cmp	eax, 512				; 00000200H
	jne	SHORT $LN79@DisplayFro
	mov	ecx, DWORD PTR ?remoteCompressionRequests@@3HA ; remoteCompressionRequests
	and	ecx, 512				; 00000200H
	jne	SHORT $LN80@DisplayFro
$LN79@DisplayFro:
	mov	ecx, DWORD PTR ?gCommsMgr@@3PAVUIComms@@A ; gCommsMgr
	call	?Online@UIComms@@QAEHXZ			; UIComms::Online
	test	eax, eax
	jne	SHORT $LN81@DisplayFro
$LN80@DisplayFro:

; 958  : 					color=0xff0000ff;

	mov	DWORD PTR _color$14[ebp], -16776961	; ff0000ffH
	jmp	SHORT $LN76@DisplayFro
$LN81@DisplayFro:

; 959  : 				else if((FalconLocalSession->GetReqCompression() == 512))

	mov	ecx, OFFSET ?vuLocalSessionEntity@@3V?$VuBin@VVuSessionEntity@@@@A ; vuLocalSessionEntity
	call	?get@?$VuBin@VVuSessionEntity@@@@QBEPAVVuSessionEntity@@XZ ; VuBin<VuSessionEntity>::get
	mov	ecx, eax
	call	?GetReqCompression@FalconSessionEntity@@QBEFXZ ; FalconSessionEntity::GetReqCompression
	movsx	edx, ax
	cmp	edx, 512				; 00000200H
	jne	SHORT $LN77@DisplayFro

; 960  : 					color=0xff00ff00;

	mov	DWORD PTR _color$14[ebp], -16711936	; ff00ff00H

; 961  : 				else

	jmp	SHORT $LN76@DisplayFro
$LN77@DisplayFro:

; 962  : 					color=0xff00ffff;

	mov	DWORD PTR _color$14[ebp], -16711681	; ff00ffffH
$LN76@DisplayFro:

; 963  : 				OTWDriver.renderer->SetColor(color);

	mov	eax, DWORD PTR _color$14[ebp]
	push	eax
	mov	ecx, DWORD PTR ?OTWDriver@@3VOTWDriverClass@@A+33576
	mov	edx, DWORD PTR [ecx]
	mov	ecx, DWORD PTR ?OTWDriver@@3VOTWDriverClass@@A+33576
	mov	eax, DWORD PTR [edx+92]
	call	eax

; 964  : 				OTWDriver.renderer->ScreenText(centerx+offset,COMPRESS_Y, "x512");

	push	0
	push	OFFSET ??_C@_04PPFDHAKJ@x512?$AA@
	push	ecx
	movss	xmm0, DWORD PTR __real@40a00000
	movss	DWORD PTR [esp], xmm0
	movss	xmm0, DWORD PTR _centerx$[ebp]
	addss	xmm0, DWORD PTR _offset$9[ebp]
	push	ecx
	movss	DWORD PTR [esp], xmm0
	mov	ecx, DWORD PTR ?OTWDriver@@3VOTWDriverClass@@A+33576
	mov	edx, DWORD PTR [ecx]
	mov	ecx, DWORD PTR ?OTWDriver@@3VOTWDriverClass@@A+33576
	mov	eax, DWORD PTR [edx+100]
	call	eax
$LN83@DisplayFro:

; 965  : 			}
; 966  : 			//offset+=OTWDriver.renderer->ScreenTextWidth("x512") + COMPRESS_SPACING;
; 967  : 			if((targetCompressionRatio == 1024) || (FalconLocalSession->GetReqCompression() == 1024) || (remoteCompressionRequests & REMOTE_REQUEST_1024))

	cmp	DWORD PTR ?targetCompressionRatio@@3HA, 1024 ; targetCompressionRatio, 00000400H
	je	SHORT $LN74@DisplayFro
	mov	ecx, OFFSET ?vuLocalSessionEntity@@3V?$VuBin@VVuSessionEntity@@@@A ; vuLocalSessionEntity
	call	?get@?$VuBin@VVuSessionEntity@@@@QBEPAVVuSessionEntity@@XZ ; VuBin<VuSessionEntity>::get
	mov	ecx, eax
	call	?GetReqCompression@FalconSessionEntity@@QBEFXZ ; FalconSessionEntity::GetReqCompression
	movsx	ecx, ax
	cmp	ecx, 1024				; 00000400H
	je	SHORT $LN74@DisplayFro
	mov	edx, DWORD PTR ?remoteCompressionRequests@@3HA ; remoteCompressionRequests
	and	edx, 1024				; 00000400H
	je	$LN75@DisplayFro
$LN74@DisplayFro:

; 968  : 			{
; 969  : 				// if ANY compression OR compression requests > 2... Draw 1024X
; 970  : 				//		if compression == our compression == all requested compressions
; 971  : 				//			Use RED
; 972  : 				//		if compression == our compression != all requested compression
; 973  : 				//			Use YELLOW
; 974  : 				//		if compression != our compression
; 975  : 				//			Use GREEN
; 976  : 				//
; 977  : 				if((targetCompressionRatio == 1024) && ((FalconLocalSession->GetReqCompression() == 1024) && (remoteCompressionRequests & REMOTE_REQUEST_1024) || !gCommsMgr->Online()))

	cmp	DWORD PTR ?targetCompressionRatio@@3HA, 1024 ; targetCompressionRatio, 00000400H
	jne	SHORT $LN73@DisplayFro
	mov	ecx, OFFSET ?vuLocalSessionEntity@@3V?$VuBin@VVuSessionEntity@@@@A ; vuLocalSessionEntity
	call	?get@?$VuBin@VVuSessionEntity@@@@QBEPAVVuSessionEntity@@XZ ; VuBin<VuSessionEntity>::get
	mov	ecx, eax
	call	?GetReqCompression@FalconSessionEntity@@QBEFXZ ; FalconSessionEntity::GetReqCompression
	cwde
	cmp	eax, 1024				; 00000400H
	jne	SHORT $LN71@DisplayFro
	mov	ecx, DWORD PTR ?remoteCompressionRequests@@3HA ; remoteCompressionRequests
	and	ecx, 1024				; 00000400H
	jne	SHORT $LN72@DisplayFro
$LN71@DisplayFro:
	mov	ecx, DWORD PTR ?gCommsMgr@@3PAVUIComms@@A ; gCommsMgr
	call	?Online@UIComms@@QAEHXZ			; UIComms::Online
	test	eax, eax
	jne	SHORT $LN73@DisplayFro
$LN72@DisplayFro:

; 978  : 					color=0xff0000ff;

	mov	DWORD PTR _color$14[ebp], -16776961	; ff0000ffH
	jmp	SHORT $LN68@DisplayFro
$LN73@DisplayFro:

; 979  : 				else if((FalconLocalSession->GetReqCompression() == 1024))

	mov	ecx, OFFSET ?vuLocalSessionEntity@@3V?$VuBin@VVuSessionEntity@@@@A ; vuLocalSessionEntity
	call	?get@?$VuBin@VVuSessionEntity@@@@QBEPAVVuSessionEntity@@XZ ; VuBin<VuSessionEntity>::get
	mov	ecx, eax
	call	?GetReqCompression@FalconSessionEntity@@QBEFXZ ; FalconSessionEntity::GetReqCompression
	movsx	edx, ax
	cmp	edx, 1024				; 00000400H
	jne	SHORT $LN69@DisplayFro

; 980  : 					color=0xff00ff00;

	mov	DWORD PTR _color$14[ebp], -16711936	; ff00ff00H

; 981  : 				else

	jmp	SHORT $LN68@DisplayFro
$LN69@DisplayFro:

; 982  : 					color=0xff00ffff;

	mov	DWORD PTR _color$14[ebp], -16711681	; ff00ffffH
$LN68@DisplayFro:

; 983  : 				OTWDriver.renderer->SetColor(color);

	mov	eax, DWORD PTR _color$14[ebp]
	push	eax
	mov	ecx, DWORD PTR ?OTWDriver@@3VOTWDriverClass@@A+33576
	mov	edx, DWORD PTR [ecx]
	mov	ecx, DWORD PTR ?OTWDriver@@3VOTWDriverClass@@A+33576
	mov	eax, DWORD PTR [edx+92]
	call	eax

; 984  : 				OTWDriver.renderer->ScreenText(centerx+offset,COMPRESS_Y, "x1024");

	push	0
	push	OFFSET ??_C@_05FJODHKGO@x1024?$AA@
	push	ecx
	movss	xmm0, DWORD PTR __real@40a00000
	movss	DWORD PTR [esp], xmm0
	movss	xmm0, DWORD PTR _centerx$[ebp]
	addss	xmm0, DWORD PTR _offset$9[ebp]
	push	ecx
	movss	DWORD PTR [esp], xmm0
	mov	ecx, DWORD PTR ?OTWDriver@@3VOTWDriverClass@@A+33576
	mov	edx, DWORD PTR [ecx]
	mov	ecx, DWORD PTR ?OTWDriver@@3VOTWDriverClass@@A+33576
	mov	eax, DWORD PTR [edx+100]
	call	eax
$LN75@DisplayFro:

; 985  : 			}
; 986  : 			//offset+=OTWDriver.renderer->ScreenTextWidth("x1024") + COMPRESS_SPACING;
; 987  : 			// JB 010109
; 988  : 		}
; 989  : 
; 990  : 		if (gameCompressionRatio && !SimDriver.MotionOn())

	cmp	DWORD PTR ?gameCompressionRatio@@3HA, 0	; gameCompressionRatio
	je	$LN67@DisplayFro
	mov	ecx, OFFSET ?SimDriver@@3VSimulationDriver@@A ; SimDriver
	call	?MotionOn@SimulationDriver@@QAEHXZ	; SimulationDriver::MotionOn
	test	eax, eax
	jne	$LN67@DisplayFro

; 991  : 		{
; 992  : 			renderer->SetColor (0xff0000ff);

	push	-16776961				; ff0000ffH
	mov	ecx, DWORD PTR _this$[ebp]
	mov	edx, DWORD PTR [ecx+33576]
	mov	eax, DWORD PTR _this$[ebp]
	mov	edx, DWORD PTR [edx]
	mov	ecx, DWORD PTR [eax+33576]
	mov	eax, DWORD PTR [edx+92]
	call	eax

; 993  : 			renderer->ScreenText (centerx - OTWDriver.renderer->ScreenTextWidth(CompressionStr[4]) * 0.5f, COMPRESS_Y, CompressionStr[4]);

	push	0
	mov	ecx, 20					; 00000014H
	shl	ecx, 2
	add	ecx, OFFSET ?CompressionStr@@3PAY0BE@DA	; CompressionStr
	push	ecx
	push	ecx
	movss	xmm0, DWORD PTR __real@40a00000
	movss	DWORD PTR [esp], xmm0
	mov	edx, 20					; 00000014H
	shl	edx, 2
	add	edx, OFFSET ?CompressionStr@@3PAY0BE@DA	; CompressionStr
	push	edx
	call	?ScreenTextWidth@VirtualDisplay@@SAHPBD@Z ; VirtualDisplay::ScreenTextWidth
	add	esp, 4
	cvtsi2ss xmm0, eax
	mulss	xmm0, DWORD PTR __real@3f000000
	movss	xmm1, DWORD PTR _centerx$[ebp]
	subss	xmm1, xmm0
	push	ecx
	movss	DWORD PTR [esp], xmm1
	mov	eax, DWORD PTR _this$[ebp]
	mov	ecx, DWORD PTR [eax+33576]
	mov	edx, DWORD PTR _this$[ebp]
	mov	eax, DWORD PTR [ecx]
	mov	ecx, DWORD PTR [edx+33576]
	mov	edx, DWORD PTR [eax+100]
	call	edx
$LN67@DisplayFro:

; 994  : 		}
; 995  : 	}
; 996  : 
; 997  : 	if (!g_bACMIRecordMsgOff && gACMIRec.IsRecording())

	movzx	eax, BYTE PTR ?g_bACMIRecordMsgOff@@3_NA ; g_bACMIRecordMsgOff
	test	eax, eax
	jne	$LN66@DisplayFro
	mov	ecx, OFFSET ?gACMIRec@@3VACMIRecorder@@A ; gACMIRec
	call	?IsRecording@ACMIRecorder@@QAEHXZ	; ACMIRecorder::IsRecording
	test	eax, eax
	je	$LN66@DisplayFro

; 998  : 		{
; 999  : 			int pct;
; 1000 : 			int j;
; 1001 : 
; 1002 : 			renderer->SetColor (0xff0000ff);

	push	-16776961				; ff0000ffH
	mov	ecx, DWORD PTR _this$[ebp]
	mov	edx, DWORD PTR [ecx+33576]
	mov	eax, DWORD PTR _this$[ebp]
	mov	edx, DWORD PTR [edx]
	mov	ecx, DWORD PTR [eax+33576]
	mov	eax, DWORD PTR [edx+92]
	call	eax

; 1003 : 			renderer->TextCenter (0.0F, 0.95F, CameraLabel[RECORDING]);

	push	0
	mov	ecx, 40					; 00000028H
	imul	ecx, 14					; 0000000eH
	add	ecx, OFFSET ?CameraLabel@@3PAY0CI@DA	; CameraLabel
	push	ecx
	push	ecx
	movss	xmm0, DWORD PTR __real@3f733333
	movss	DWORD PTR [esp], xmm0
	push	ecx
	movss	xmm0, DWORD PTR __real@00000000
	movss	DWORD PTR [esp], xmm0
	mov	edx, DWORD PTR _this$[ebp]
	mov	eax, DWORD PTR [edx+33576]
	mov	ecx, DWORD PTR _this$[ebp]
	mov	edx, DWORD PTR [eax]
	mov	ecx, DWORD PTR [ecx+33576]
	mov	eax, DWORD PTR [edx+72]
	call	eax

; 1004 : 
; 1005 : 			// get the percent tape is full....
; 1006 : 			pct = gACMIRec.PercentTapeFull();

	mov	ecx, OFFSET ?gACMIRec@@3VACMIRecorder@@A ; gACMIRec
	call	?PercentTapeFull@ACMIRecorder@@QAEHXZ	; ACMIRecorder::PercentTapeFull
	mov	DWORD PTR _pct$4[ebp], eax

; 1007 : 			if ( pct > 10 )

	cmp	DWORD PTR _pct$4[ebp], 10		; 0000000aH
	jle	SHORT $LN65@DisplayFro

; 1008 : 				pct = 10;

	mov	DWORD PTR _pct$4[ebp], 10		; 0000000aH
$LN65@DisplayFro:

; 1009 : 			for ( j = 0; j < pct; j++ )

	mov	DWORD PTR _j$5[ebp], 0
	jmp	SHORT $LN64@DisplayFro
$LN63@DisplayFro:
	mov	ecx, DWORD PTR _j$5[ebp]
	add	ecx, 1
	mov	DWORD PTR _j$5[ebp], ecx
$LN64@DisplayFro:
	mov	edx, DWORD PTR _j$5[ebp]
	cmp	edx, DWORD PTR _pct$4[ebp]
	jge	SHORT $LN62@DisplayFro

; 1010 : 				gAcmiStr[j] = '+';

	mov	eax, DWORD PTR _j$5[ebp]
	mov	BYTE PTR ?gAcmiStr@@3PADA[eax], 43	; 0000002bH
	jmp	SHORT $LN63@DisplayFro
$LN62@DisplayFro:

; 1011 : 			renderer->TextCenter (0.0F, 0.92F, gAcmiStr);

	push	0
	push	OFFSET ?gAcmiStr@@3PADA			; gAcmiStr
	push	ecx
	movss	xmm0, DWORD PTR __real@3f6b851f
	movss	DWORD PTR [esp], xmm0
	push	ecx
	movss	xmm0, DWORD PTR __real@00000000
	movss	DWORD PTR [esp], xmm0
	mov	ecx, DWORD PTR _this$[ebp]
	mov	edx, DWORD PTR [ecx+33576]
	mov	eax, DWORD PTR _this$[ebp]
	mov	edx, DWORD PTR [edx]
	mov	ecx, DWORD PTR [eax+33576]
	mov	eax, DWORD PTR [edx+72]
	call	eax
$LN66@DisplayFro:

; 1012 : 		}
; 1013 : 
; 1014 : 	if(showFrontText & (SHOW_TE_SCORES|SHOW_DOGFIGHT_SCORES))

	mov	ecx, DWORD PTR _this$[ebp]
	mov	edx, DWORD PTR [ecx+32352]
	and	edx, 768				; 00000300H
	je	$LN53@DisplayFro

; 1015 : 	{
; 1016 : 		float centerX = DisplayOptions.DispWidth / 2.0F;

	movzx	eax, WORD PTR ?DisplayOptions@@3VDisplayOptionsClass@@A
	cvtsi2ss xmm0, eax
	divss	xmm0, DWORD PTR __real@40000000
	movss	DWORD PTR _centerX$6[ebp], xmm0

; 1017 : 		float centerY =	DisplayOptions.DispHeight / 2.0F;

	movzx	ecx, WORD PTR ?DisplayOptions@@3VDisplayOptionsClass@@A+2
	cvtsi2ss xmm0, ecx
	divss	xmm0, DWORD PTR __real@40000000
	movss	DWORD PTR _centerY$3[ebp], xmm0

; 1018 : 		short i;
; 1019 : 		float x,y;
; 1020 : 		float w,h;
; 1021 : 
; 1022 : 		x=centerX + centerX * (SCORENAME_X - 0.02f);

	movss	xmm0, DWORD PTR _centerX$6[ebp]
	mulss	xmm0, DWORD PTR __real@3f147ae2
	addss	xmm0, DWORD PTR _centerX$6[ebp]
	movss	DWORD PTR _x$11[ebp], xmm0

; 1023 : 		y=centerY - centerY * (SCORE_Y + 0.1f);

	movss	xmm0, DWORD PTR _centerY$3[ebp]
	mulss	xmm0, DWORD PTR __real@3f666667
	movss	xmm1, DWORD PTR _centerY$3[ebp]
	subss	xmm1, xmm0
	movss	DWORD PTR _y$10[ebp], xmm1

; 1024 : 		w=centerX + (centerX * (SCOREPOINT_X + 0.02f)) - x;

	movss	xmm0, DWORD PTR _centerX$6[ebp]
	mulss	xmm0, DWORD PTR __real@3f6b851e
	addss	xmm0, DWORD PTR _centerX$6[ebp]
	subss	xmm0, DWORD PTR _x$11[ebp]
	movss	DWORD PTR _w$8[ebp], xmm0

; 1025 : 		h=centerY * 12 * 0.05f;

	movss	xmm0, DWORD PTR _centerY$3[ebp]
	mulss	xmm0, DWORD PTR __real@41400000
	mulss	xmm0, DWORD PTR __real@3d4ccccd
	movss	DWORD PTR _h$7[ebp], xmm0

; 1026 : 
; 1027 : 		OTWDriver.renderer->SetColor( 0x997B5200 );  				// 60% alpha blue

	push	-1719971328				; 997b5200H
	mov	edx, DWORD PTR ?OTWDriver@@3VOTWDriverClass@@A+33576
	mov	eax, DWORD PTR [edx]
	mov	ecx, DWORD PTR ?OTWDriver@@3VOTWDriverClass@@A+33576
	mov	edx, DWORD PTR [eax+92]
	call	edx

; 1028 : 		OTWDriver.renderer->context.RestoreState( STATE_ALPHA_SOLID );

	push	16					; 00000010H
	mov	ecx, DWORD PTR ?OTWDriver@@3VOTWDriverClass@@A+33576
	add	ecx, 100				; 00000064H
	call	?RestoreState@ContextMPR@@QAEXH@Z	; ContextMPR::RestoreState

; 1029 : 
; 1030 : 		OTWDriver.renderer->Render2DTri( x,y,  x+w,y,  x+w,y+h);

	movss	xmm0, DWORD PTR _y$10[ebp]
	addss	xmm0, DWORD PTR _h$7[ebp]
	push	ecx
	movss	DWORD PTR [esp], xmm0
	movss	xmm0, DWORD PTR _x$11[ebp]
	addss	xmm0, DWORD PTR _w$8[ebp]
	push	ecx
	movss	DWORD PTR [esp], xmm0
	push	ecx
	movss	xmm0, DWORD PTR _y$10[ebp]
	movss	DWORD PTR [esp], xmm0
	movss	xmm0, DWORD PTR _x$11[ebp]
	addss	xmm0, DWORD PTR _w$8[ebp]
	push	ecx
	movss	DWORD PTR [esp], xmm0
	push	ecx
	movss	xmm0, DWORD PTR _y$10[ebp]
	movss	DWORD PTR [esp], xmm0
	push	ecx
	movss	xmm0, DWORD PTR _x$11[ebp]
	movss	DWORD PTR [esp], xmm0
	mov	eax, DWORD PTR ?OTWDriver@@3VOTWDriverClass@@A+33576
	mov	edx, DWORD PTR [eax]
	mov	ecx, DWORD PTR ?OTWDriver@@3VOTWDriverClass@@A+33576
	mov	eax, DWORD PTR [edx+128]
	call	eax

; 1031 : 		OTWDriver.renderer->Render2DTri( x,y,  x,y+h,  x+w,y+h);

	movss	xmm0, DWORD PTR _y$10[ebp]
	addss	xmm0, DWORD PTR _h$7[ebp]
	push	ecx
	movss	DWORD PTR [esp], xmm0
	movss	xmm0, DWORD PTR _x$11[ebp]
	addss	xmm0, DWORD PTR _w$8[ebp]
	push	ecx
	movss	DWORD PTR [esp], xmm0
	movss	xmm0, DWORD PTR _y$10[ebp]
	addss	xmm0, DWORD PTR _h$7[ebp]
	push	ecx
	movss	DWORD PTR [esp], xmm0
	push	ecx
	movss	xmm0, DWORD PTR _x$11[ebp]
	movss	DWORD PTR [esp], xmm0
	push	ecx
	movss	xmm0, DWORD PTR _y$10[ebp]
	movss	DWORD PTR [esp], xmm0
	push	ecx
	movss	xmm0, DWORD PTR _x$11[ebp]
	movss	DWORD PTR [esp], xmm0
	mov	ecx, DWORD PTR ?OTWDriver@@3VOTWDriverClass@@A+33576
	mov	edx, DWORD PTR [ecx]
	mov	ecx, DWORD PTR ?OTWDriver@@3VOTWDriverClass@@A+33576
	mov	eax, DWORD PTR [edx+128]
	call	eax

; 1032 : 
; 1033 : 		// Outline Translucent BLUE box
; 1034 : 		OTWDriver.renderer->SetColor( 0xFF000000 );  				// black

	push	-16777216				; ff000000H
	mov	ecx, DWORD PTR ?OTWDriver@@3VOTWDriverClass@@A+33576
	mov	edx, DWORD PTR [ecx]
	mov	ecx, DWORD PTR ?OTWDriver@@3VOTWDriverClass@@A+33576
	mov	eax, DWORD PTR [edx+92]
	call	eax

; 1035 : 		OTWDriver.renderer->Render2DLine( x,y,x+w,y );

	push	ecx
	movss	xmm0, DWORD PTR _y$10[ebp]
	movss	DWORD PTR [esp], xmm0
	movss	xmm0, DWORD PTR _x$11[ebp]
	addss	xmm0, DWORD PTR _w$8[ebp]
	push	ecx
	movss	DWORD PTR [esp], xmm0
	push	ecx
	movss	xmm0, DWORD PTR _y$10[ebp]
	movss	DWORD PTR [esp], xmm0
	push	ecx
	movss	xmm0, DWORD PTR _x$11[ebp]
	movss	DWORD PTR [esp], xmm0
	mov	ecx, DWORD PTR ?OTWDriver@@3VOTWDriverClass@@A+33576
	mov	edx, DWORD PTR [ecx]
	mov	ecx, DWORD PTR ?OTWDriver@@3VOTWDriverClass@@A+33576
	mov	eax, DWORD PTR [edx+124]
	call	eax

; 1036 : 		OTWDriver.renderer->Render2DLine( x,y+h,x+w,y+h );

	movss	xmm0, DWORD PTR _y$10[ebp]
	addss	xmm0, DWORD PTR _h$7[ebp]
	push	ecx
	movss	DWORD PTR [esp], xmm0
	movss	xmm0, DWORD PTR _x$11[ebp]
	addss	xmm0, DWORD PTR _w$8[ebp]
	push	ecx
	movss	DWORD PTR [esp], xmm0
	movss	xmm0, DWORD PTR _y$10[ebp]
	addss	xmm0, DWORD PTR _h$7[ebp]
	push	ecx
	movss	DWORD PTR [esp], xmm0
	push	ecx
	movss	xmm0, DWORD PTR _x$11[ebp]
	movss	DWORD PTR [esp], xmm0
	mov	ecx, DWORD PTR ?OTWDriver@@3VOTWDriverClass@@A+33576
	mov	edx, DWORD PTR [ecx]
	mov	ecx, DWORD PTR ?OTWDriver@@3VOTWDriverClass@@A+33576
	mov	eax, DWORD PTR [edx+124]
	call	eax

; 1037 : 		OTWDriver.renderer->Render2DLine( x,y,x,y+h );

	movss	xmm0, DWORD PTR _y$10[ebp]
	addss	xmm0, DWORD PTR _h$7[ebp]
	push	ecx
	movss	DWORD PTR [esp], xmm0
	push	ecx
	movss	xmm0, DWORD PTR _x$11[ebp]
	movss	DWORD PTR [esp], xmm0
	push	ecx
	movss	xmm0, DWORD PTR _y$10[ebp]
	movss	DWORD PTR [esp], xmm0
	push	ecx
	movss	xmm0, DWORD PTR _x$11[ebp]
	movss	DWORD PTR [esp], xmm0
	mov	ecx, DWORD PTR ?OTWDriver@@3VOTWDriverClass@@A+33576
	mov	edx, DWORD PTR [ecx]
	mov	ecx, DWORD PTR ?OTWDriver@@3VOTWDriverClass@@A+33576
	mov	eax, DWORD PTR [edx+124]
	call	eax

; 1038 : 		OTWDriver.renderer->Render2DLine( x+w,y,x+w,y+h );

	movss	xmm0, DWORD PTR _y$10[ebp]
	addss	xmm0, DWORD PTR _h$7[ebp]
	push	ecx
	movss	DWORD PTR [esp], xmm0
	movss	xmm0, DWORD PTR _x$11[ebp]
	addss	xmm0, DWORD PTR _w$8[ebp]
	push	ecx
	movss	DWORD PTR [esp], xmm0
	push	ecx
	movss	xmm0, DWORD PTR _y$10[ebp]
	movss	DWORD PTR [esp], xmm0
	movss	xmm0, DWORD PTR _x$11[ebp]
	addss	xmm0, DWORD PTR _w$8[ebp]
	push	ecx
	movss	DWORD PTR [esp], xmm0
	mov	ecx, DWORD PTR ?OTWDriver@@3VOTWDriverClass@@A+33576
	mov	edx, DWORD PTR [ecx]
	mov	ecx, DWORD PTR ?OTWDriver@@3VOTWDriverClass@@A+33576
	mov	eax, DWORD PTR [edx+124]
	call	eax

; 1039 : 
; 1040 : 		if(showFrontText & SHOW_DOGFIGHT_SCORES)

	mov	ecx, DWORD PTR _this$[ebp]
	mov	edx, DWORD PTR [ecx+32352]
	and	edx, 512				; 00000200H
	je	$LN60@DisplayFro

; 1041 : 		{
; 1042 : 			renderer->SetColor(0xfffefefe); // not quite white, so the color won't change

	push	-65794					; fffefefeH
	mov	eax, DWORD PTR _this$[ebp]
	mov	ecx, DWORD PTR [eax+33576]
	mov	edx, DWORD PTR _this$[ebp]
	mov	eax, DWORD PTR [ecx]
	mov	ecx, DWORD PTR [edx+33576]
	mov	edx, DWORD PTR [eax+92]
	call	edx

; 1043 : 			renderer->TextCenter(SCORENAME_X + (SCOREPOINT_X - SCORENAME_X) * 0.5f,  SCORE_Y - (float)(-1) * 0.05f,"Sierra Hotel");

	push	0
	push	OFFSET ??_C@_0N@LEMGNLFI@Sierra?5Hotel?$AA@
	push	ecx
	movss	xmm0, DWORD PTR __real@3f59999a
	movss	DWORD PTR [esp], xmm0
	push	ecx
	movss	xmm0, DWORD PTR __real@3f400000
	movss	DWORD PTR [esp], xmm0
	mov	eax, DWORD PTR _this$[ebp]
	mov	ecx, DWORD PTR [eax+33576]
	mov	edx, DWORD PTR _this$[ebp]
	mov	eax, DWORD PTR [ecx]
	mov	ecx, DWORD PTR [edx+33576]
	mov	edx, DWORD PTR [eax+72]
	call	edx

; 1044 : 			if(gRefreshScoresList)

	cmp	DWORD PTR ?gRefreshScoresList@@3JA, 0	; gRefreshScoresList
	je	SHORT $LN59@DisplayFro

; 1045 : 			{
; 1046 : 				MakeDogfightTopTen(SimDogfight.GetGameType());

	mov	ecx, OFFSET ?SimDogfight@@3VDogfightClass@@A ; SimDogfight
	call	?GetGameType@DogfightClass@@QAE?AW4DogfightType@@XZ ; DogfightClass::GetGameType
	push	eax
	call	?MakeDogfightTopTen@@YAXH@Z		; MakeDogfightTopTen
	add	esp, 4

; 1047 : 				gRefreshScoresList=0;

	mov	DWORD PTR ?gRefreshScoresList@@3JA, 0	; gRefreshScoresList
$LN59@DisplayFro:

; 1048 : 			}
; 1049 : 		}

	jmp	$LN56@DisplayFro
$LN60@DisplayFro:

; 1050 : 		else if(showFrontText & SHOW_TE_SCORES)

	mov	eax, DWORD PTR _this$[ebp]
	mov	ecx, DWORD PTR [eax+32352]
	and	ecx, 256				; 00000100H
	je	SHORT $LN56@DisplayFro

; 1051 : 		{
; 1052 : 			renderer->SetColor(0xfffefefe); // not quite white, so the color won't change

	push	-65794					; fffefefeH
	mov	edx, DWORD PTR _this$[ebp]
	mov	eax, DWORD PTR [edx+33576]
	mov	ecx, DWORD PTR _this$[ebp]
	mov	edx, DWORD PTR [eax]
	mov	ecx, DWORD PTR [ecx+33576]
	mov	eax, DWORD PTR [edx+92]
	call	eax

; 1053 : 			renderer->TextCenter(SCORENAME_X + (SCOREPOINT_X - SCORENAME_X) * 0.5f,  SCORE_Y - (float)(-1) * 0.05f,"Game Over");

	push	0
	push	OFFSET ??_C@_09HJCFOPMO@Game?5Over?$AA@
	push	ecx
	movss	xmm0, DWORD PTR __real@3f59999a
	movss	DWORD PTR [esp], xmm0
	push	ecx
	movss	xmm0, DWORD PTR __real@3f400000
	movss	DWORD PTR [esp], xmm0
	mov	ecx, DWORD PTR _this$[ebp]
	mov	edx, DWORD PTR [ecx+33576]
	mov	eax, DWORD PTR _this$[ebp]
	mov	edx, DWORD PTR [edx]
	mov	ecx, DWORD PTR [eax+33576]
	mov	eax, DWORD PTR [edx+72]
	call	eax

; 1054 : 			if(gRefreshScoresList)

	cmp	DWORD PTR ?gRefreshScoresList@@3JA, 0	; gRefreshScoresList
	je	SHORT $LN56@DisplayFro

; 1055 : 			{
; 1056 : 				MakeTacEngScoreList();

	call	?MakeTacEngScoreList@@YAXXZ		; MakeTacEngScoreList

; 1057 : 				gRefreshScoresList=0;

	mov	DWORD PTR ?gRefreshScoresList@@3JA, 0	; gRefreshScoresList
$LN56@DisplayFro:

; 1058 : 			}
; 1059 : 		}
; 1060 : 		for(i=0;i<10;i++)

	xor	ecx, ecx
	mov	WORD PTR _i$12[ebp], cx
	jmp	SHORT $LN55@DisplayFro
$LN54@DisplayFro:
	mov	dx, WORD PTR _i$12[ebp]
	add	dx, 1
	mov	WORD PTR _i$12[ebp], dx
$LN55@DisplayFro:
	movsx	eax, WORD PTR _i$12[ebp]
	cmp	eax, 10					; 0000000aH
	jge	$LN53@DisplayFro

; 1061 : 		{
; 1062 : //			renderer->SetColor(gScoreColor[i]); // Not set yet
; 1063 : 			renderer->SetColor(0xfffefefe); // not quite white, so the color won't change

	push	-65794					; fffefefeH
	mov	ecx, DWORD PTR _this$[ebp]
	mov	edx, DWORD PTR [ecx+33576]
	mov	eax, DWORD PTR _this$[ebp]
	mov	edx, DWORD PTR [edx]
	mov	ecx, DWORD PTR [eax+33576]
	mov	eax, DWORD PTR [edx+92]
	call	eax

; 1064 : 
; 1065 : 			if(gScoreName[i][0])

	movsx	ecx, WORD PTR _i$12[ebp]
	imul	ecx, 30					; 0000001eH
	mov	edx, 1
	imul	edx, 0
	movsx	eax, BYTE PTR ?gScoreName@@3PAY0BO@DA[ecx+edx]
	test	eax, eax
	je	$LN52@DisplayFro

; 1066 : 			{
; 1067 : 				renderer->TextLeft(SCORENAME_X,  SCORE_Y - (float)i * 0.05f,gScoreName[i]);

	push	0
	movsx	ecx, WORD PTR _i$12[ebp]
	imul	ecx, 30					; 0000001eH
	add	ecx, OFFSET ?gScoreName@@3PAY0BO@DA	; gScoreName
	push	ecx
	movsx	edx, WORD PTR _i$12[ebp]
	cvtsi2ss xmm0, edx
	mulss	xmm0, DWORD PTR __real@3d4ccccd
	movss	xmm1, DWORD PTR __real@3f4ccccd
	subss	xmm1, xmm0
	push	ecx
	movss	DWORD PTR [esp], xmm1
	push	ecx
	movss	xmm0, DWORD PTR __real@3f19999a
	movss	DWORD PTR [esp], xmm0
	mov	eax, DWORD PTR _this$[ebp]
	mov	ecx, DWORD PTR [eax+33576]
	mov	edx, DWORD PTR _this$[ebp]
	mov	eax, DWORD PTR [ecx]
	mov	ecx, DWORD PTR [edx+33576]
	mov	edx, DWORD PTR [eax+56]
	call	edx

; 1068 : 				renderer->TextRight(SCOREPOINT_X,  SCORE_Y - (float)i * 0.05f,gScorePoints[i]);

	push	0
	movsx	eax, WORD PTR _i$12[ebp]
	imul	eax, 10					; 0000000aH
	add	eax, OFFSET ?gScorePoints@@3PAY09DA	; gScorePoints
	push	eax
	movsx	ecx, WORD PTR _i$12[ebp]
	cvtsi2ss xmm0, ecx
	mulss	xmm0, DWORD PTR __real@3d4ccccd
	movss	xmm1, DWORD PTR __real@3f4ccccd
	subss	xmm1, xmm0
	push	ecx
	movss	DWORD PTR [esp], xmm1
	push	ecx
	movss	xmm0, DWORD PTR __real@3f666666
	movss	DWORD PTR [esp], xmm0
	mov	edx, DWORD PTR _this$[ebp]
	mov	eax, DWORD PTR [edx+33576]
	mov	ecx, DWORD PTR _this$[ebp]
	mov	edx, DWORD PTR [eax]
	mov	ecx, DWORD PTR [ecx+33576]
	mov	eax, DWORD PTR [edx+60]
	call	eax
$LN52@DisplayFro:

; 1069 : 			}
; 1070 : 		}

	jmp	$LN54@DisplayFro
$LN53@DisplayFro:

; 1071 : 	}
; 1072 : 
; 1073 : 	// Display any Text Messages sent TO me
; 1074 : 	if(showFrontText & (SHOW_MESSAGES) && textMessage[0][0]) // Check to see if there are any

	mov	ecx, DWORD PTR _this$[ebp]
	mov	edx, DWORD PTR [ecx+32352]
	and	edx, 2
	je	$LN49@DisplayFro
	mov	eax, 100				; 00000064H
	imul	eax, 0
	mov	ecx, DWORD PTR _this$[ebp]
	lea	edx, DWORD PTR [ecx+eax+32396]
	mov	eax, 1
	imul	eax, 0
	movsx	ecx, BYTE PTR [edx+eax]
	test	ecx, ecx
	je	$LN49@DisplayFro

; 1075 : 	{
; 1076 : 		chat_cnt=0;

	xor	edx, edx
	mov	WORD PTR _chat_cnt$[ebp], dx
$LN50@DisplayFro:

; 1077 : 		while(chat_cnt < MAX_CHAT_LINES && textMessage[chat_cnt][0])

	movsx	eax, WORD PTR _chat_cnt$[ebp]
	cmp	eax, 10					; 0000000aH
	jge	$LN49@DisplayFro
	movsx	ecx, WORD PTR _chat_cnt$[ebp]
	imul	ecx, 100				; 00000064H
	mov	edx, DWORD PTR _this$[ebp]
	lea	eax, DWORD PTR [edx+ecx+32396]
	mov	ecx, 1
	imul	ecx, 0
	movsx	edx, BYTE PTR [eax+ecx]
	test	edx, edx
	je	$LN49@DisplayFro

; 1078 : 		{
; 1079 : 			if(TheHud)

	cmp	DWORD PTR ?TheHud@@3PAVHudClass@@A, 0	; TheHud
	je	SHORT $LN48@DisplayFro

; 1080 : 				renderer->SetColor (TheHud->GetHudColor());

	mov	ecx, DWORD PTR ?TheHud@@3PAVHudClass@@A	; TheHud
	call	?GetHudColor@HudClass@@QAEKXZ		; HudClass::GetHudColor
	push	eax
	mov	eax, DWORD PTR _this$[ebp]
	mov	ecx, DWORD PTR [eax+33576]
	mov	edx, DWORD PTR _this$[ebp]
	mov	eax, DWORD PTR [ecx]
	mov	ecx, DWORD PTR [edx+33576]
	mov	edx, DWORD PTR [eax+92]
	call	edx

; 1081 : 			else

	jmp	SHORT $LN47@DisplayFro
$LN48@DisplayFro:

; 1082 : 				renderer->SetColor (0xff00ff00);

	push	-16711936				; ff00ff00H
	mov	eax, DWORD PTR _this$[ebp]
	mov	ecx, DWORD PTR [eax+33576]
	mov	edx, DWORD PTR _this$[ebp]
	mov	eax, DWORD PTR [ecx]
	mov	ecx, DWORD PTR [edx+33576]
	mov	edx, DWORD PTR [eax+92]
	call	edx
$LN47@DisplayFro:

; 1083 : 			renderer->TextLeft(MESSAGE_X,  MESSAGE_Y - (float)chat_cnt * 0.05f,textMessage[chat_cnt]);

	push	0
	movsx	eax, WORD PTR _chat_cnt$[ebp]
	imul	eax, 100				; 00000064H
	mov	ecx, DWORD PTR _this$[ebp]
	lea	edx, DWORD PTR [ecx+eax+32396]
	push	edx
	movsx	eax, WORD PTR _chat_cnt$[ebp]
	cvtsi2ss xmm0, eax
	mulss	xmm0, DWORD PTR __real@3d4ccccd
	movss	xmm1, DWORD PTR __real@3e99999a
	subss	xmm1, xmm0
	push	ecx
	movss	DWORD PTR [esp], xmm1
	push	ecx
	movss	xmm0, DWORD PTR __real@bf7d70a4
	movss	DWORD PTR [esp], xmm0
	mov	ecx, DWORD PTR _this$[ebp]
	mov	edx, DWORD PTR [ecx+33576]
	mov	eax, DWORD PTR _this$[ebp]
	mov	edx, DWORD PTR [edx]
	mov	ecx, DWORD PTR [eax+33576]
	mov	eax, DWORD PTR [edx+56]
	call	eax

; 1084 : 			chat_cnt++;

	mov	cx, WORD PTR _chat_cnt$[ebp]
	add	cx, 1
	mov	WORD PTR _chat_cnt$[ebp], cx

; 1085 : 		}

	jmp	$LN50@DisplayFro
$LN49@DisplayFro:

; 1086 : 	}
; 1087 : 
; 1088 : 	// Display a ChatBox if I am typeing a message
; 1089 : 	//if(flags & ShowChatBox) // put this check in
; 1090 : 	if(showFrontText & (SHOW_CHATBOX))

	mov	edx, DWORD PTR _this$[ebp]
	mov	eax, DWORD PTR [edx+32352]
	and	eax, 1
	je	SHORT $LN46@DisplayFro

; 1091 : 		DisplayChatBox();

	mov	ecx, DWORD PTR _this$[ebp]
	call	?DisplayChatBox@OTWDriverClass@@QAEXXZ	; OTWDriverClass::DisplayChatBox
$LN46@DisplayFro:

; 1092 : 
; 1093 : 	if ((drawInfoBar)&&(!DisplayInCockpit()))		// Retro 16Dec2003

	mov	ecx, DWORD PTR _this$[ebp]
	cmp	DWORD PTR [ecx+33568], 0
	je	SHORT $LN45@DisplayFro
	mov	ecx, DWORD PTR _this$[ebp]
	call	?DisplayInCockpit@OTWDriverClass@@QAEHXZ ; OTWDriverClass::DisplayInCockpit
	test	eax, eax
	jne	SHORT $LN45@DisplayFro

; 1094 : 	{
; 1095 : 		DisplayInfoBar();							// Retro 16Dec2003

	mov	ecx, DWORD PTR _this$[ebp]
	call	?DisplayInfoBar@OTWDriverClass@@AAEXXZ	; OTWDriverClass::DisplayInfoBar

; 1096 : 	}
; 1097 : 	else											// Retro 16Dec2003

	jmp	$LN14@DisplayFro
$LN45@DisplayFro:

; 1098 : 	{
; 1099 : 		// display text for some camera settings
; 1100 : 		// TODO:  This should be a string table, not a slew of "if"s
; 1101 : 		if ( !DisplayInCockpit() )

	mov	ecx, DWORD PTR _this$[ebp]
	call	?DisplayInCockpit@OTWDriverClass@@QAEHXZ ; OTWDriverClass::DisplayInCockpit
	test	eax, eax
	jne	$LN14@DisplayFro

; 1102 : 		{
; 1103 : 			short cameraID=0;

	xor	edx, edx
	mov	WORD PTR _cameraID$13[ebp], dx

; 1104 : 
; 1105 : 			renderer->SetColor (0xff00ff00);

	push	-16711936				; ff00ff00H
	mov	eax, DWORD PTR _this$[ebp]
	mov	ecx, DWORD PTR [eax+33576]
	mov	edx, DWORD PTR _this$[ebp]
	mov	eax, DWORD PTR [ecx]
	mov	ecx, DWORD PTR [edx+33576]
	mov	edx, DWORD PTR [eax+92]
	call	edx

; 1106 : 			if ( actionCameraMode)

	mov	eax, DWORD PTR _this$[ebp]
	cmp	DWORD PTR [eax+33556], 0
	je	SHORT $LN42@DisplayFro

; 1107 : 			{
; 1108 : 				cameraID=ACTION_CAMERA;

	mov	ecx, 13					; 0000000dH
	mov	WORD PTR _cameraID$13[ebp], cx
	jmp	$LN16@DisplayFro
$LN42@DisplayFro:

; 1109 : 			}
; 1110 : 			else if (GetOTWDisplayMode() == ModeChase && flybyTimer )

	mov	ecx, DWORD PTR _this$[ebp]
	call	?GetOTWDisplayMode@OTWDriverClass@@QAE?AW4OTWDisplayMode@1@XZ ; OTWDriverClass::GetOTWDisplayMode
	cmp	eax, 7
	jne	SHORT $LN40@DisplayFro
	mov	edx, DWORD PTR _this$[ebp]
	cmp	DWORD PTR [edx+33544], 0
	je	SHORT $LN40@DisplayFro

; 1111 : 			{
; 1112 : 				cameraID=FLY_BY_CAMERA;

	xor	eax, eax
	mov	WORD PTR _cameraID$13[ebp], ax
	jmp	$LN16@DisplayFro
$LN40@DisplayFro:

; 1113 : 			}
; 1114 : 			else if (GetOTWDisplayMode() == ModeChase && !flybyTimer )

	mov	ecx, DWORD PTR _this$[ebp]
	call	?GetOTWDisplayMode@OTWDriverClass@@QAE?AW4OTWDisplayMode@1@XZ ; OTWDriverClass::GetOTWDisplayMode
	cmp	eax, 7
	jne	SHORT $LN38@DisplayFro
	mov	ecx, DWORD PTR _this$[ebp]
	cmp	DWORD PTR [ecx+33544], 0
	jne	SHORT $LN38@DisplayFro

; 1115 : 			{
; 1116 : 				cameraID=CHASE_CAMERA;

	mov	edx, 1
	mov	WORD PTR _cameraID$13[ebp], dx
	jmp	$LN16@DisplayFro
$LN38@DisplayFro:

; 1117 : 			}
; 1118 : 			else if (GetOTWDisplayMode() == ModeOrbit )

	mov	ecx, DWORD PTR _this$[ebp]
	call	?GetOTWDisplayMode@OTWDriverClass@@QAE?AW4OTWDisplayMode@1@XZ ; OTWDriverClass::GetOTWDisplayMode
	cmp	eax, 6
	jne	SHORT $LN36@DisplayFro

; 1119 : 			{
; 1120 : 				cameraID=ORBIT_CAMERA;

	mov	eax, 2
	mov	WORD PTR _cameraID$13[ebp], ax
	jmp	$LN16@DisplayFro
$LN36@DisplayFro:

; 1121 : 			}
; 1122 : 			else if (GetOTWDisplayMode() == ModeSatellite )

	mov	ecx, DWORD PTR _this$[ebp]
	call	?GetOTWDisplayMode@OTWDriverClass@@QAE?AW4OTWDisplayMode@1@XZ ; OTWDriverClass::GetOTWDisplayMode
	cmp	eax, 14					; 0000000eH
	jne	SHORT $LN34@DisplayFro

; 1123 : 			{
; 1124 : 				cameraID=SATELLITE_CAMERA;

	mov	ecx, 3
	mov	WORD PTR _cameraID$13[ebp], cx
	jmp	$LN16@DisplayFro
$LN34@DisplayFro:

; 1125 : 			}
; 1126 : 			else if (GetOTWDisplayMode() == ModeWeapon )

	mov	ecx, DWORD PTR _this$[ebp]
	call	?GetOTWDisplayMode@OTWDriverClass@@QAE?AW4OTWDisplayMode@1@XZ ; OTWDriverClass::GetOTWDisplayMode
	cmp	eax, 13					; 0000000dH
	jne	SHORT $LN32@DisplayFro

; 1127 : 			{
; 1128 : 				cameraID=WEAPON_CAMERA;

	mov	edx, 4
	mov	WORD PTR _cameraID$13[ebp], dx
	jmp	$LN16@DisplayFro
$LN32@DisplayFro:

; 1129 : 			}
; 1130 : 			else if (GetOTWDisplayMode() == ModeTargetToWeapon )

	mov	ecx, DWORD PTR _this$[ebp]
	call	?GetOTWDisplayMode@OTWDriverClass@@QAE?AW4OTWDisplayMode@1@XZ ; OTWDriverClass::GetOTWDisplayMode
	cmp	eax, 18					; 00000012H
	jne	SHORT $LN30@DisplayFro

; 1131 : 			{
; 1132 : 				cameraID=TARGET_TO_WEAPON_CAMERA;

	mov	eax, 5
	mov	WORD PTR _cameraID$13[ebp], ax
	jmp	$LN16@DisplayFro
$LN30@DisplayFro:

; 1133 : 			}
; 1134 : 			else if (GetOTWDisplayMode() == ModeAirEnemy )

	mov	ecx, DWORD PTR _this$[ebp]
	call	?GetOTWDisplayMode@OTWDriverClass@@QAE?AW4OTWDisplayMode@1@XZ ; OTWDriverClass::GetOTWDisplayMode
	cmp	eax, 10					; 0000000aH
	jne	SHORT $LN28@DisplayFro

; 1135 : 			{
; 1136 : 				cameraID=ENEMY_AIRCRAFT_CAMERA;

	mov	ecx, 6
	mov	WORD PTR _cameraID$13[ebp], cx
	jmp	$LN16@DisplayFro
$LN28@DisplayFro:

; 1137 : 			}
; 1138 : 			else if (GetOTWDisplayMode() == ModeAirFriendly )

	mov	ecx, DWORD PTR _this$[ebp]
	call	?GetOTWDisplayMode@OTWDriverClass@@QAE?AW4OTWDisplayMode@1@XZ ; OTWDriverClass::GetOTWDisplayMode
	cmp	eax, 8
	jne	SHORT $LN26@DisplayFro

; 1139 : 			{
; 1140 : 				cameraID=FRIENDLY_AIRCRAFT_CAMERA;

	mov	edx, 7
	mov	WORD PTR _cameraID$13[ebp], dx
	jmp	SHORT $LN16@DisplayFro
$LN26@DisplayFro:

; 1141 : 			}
; 1142 : 			else if (GetOTWDisplayMode() == ModeGroundEnemy )

	mov	ecx, DWORD PTR _this$[ebp]
	call	?GetOTWDisplayMode@OTWDriverClass@@QAE?AW4OTWDisplayMode@1@XZ ; OTWDriverClass::GetOTWDisplayMode
	cmp	eax, 11					; 0000000bH
	jne	SHORT $LN24@DisplayFro

; 1143 : 			{
; 1144 : 				cameraID=ENEMY_GROUND_UNIT_CAMERA;

	mov	eax, 8
	mov	WORD PTR _cameraID$13[ebp], ax
	jmp	SHORT $LN16@DisplayFro
$LN24@DisplayFro:

; 1145 : 			}
; 1146 : 			else if (GetOTWDisplayMode() == ModeGroundFriendly )

	mov	ecx, DWORD PTR _this$[ebp]
	call	?GetOTWDisplayMode@OTWDriverClass@@QAE?AW4OTWDisplayMode@1@XZ ; OTWDriverClass::GetOTWDisplayMode
	cmp	eax, 9
	jne	SHORT $LN22@DisplayFro

; 1147 : 			{
; 1148 : 				cameraID=FRIENDLY_GROUND_UNIT_CAMERA;

	mov	ecx, 9
	mov	WORD PTR _cameraID$13[ebp], cx
	jmp	SHORT $LN16@DisplayFro
$LN22@DisplayFro:

; 1149 : 			}
; 1150 : 			else if (GetOTWDisplayMode() == ModeIncoming )

	mov	ecx, DWORD PTR _this$[ebp]
	call	?GetOTWDisplayMode@OTWDriverClass@@QAE?AW4OTWDisplayMode@1@XZ ; OTWDriverClass::GetOTWDisplayMode
	cmp	eax, 15					; 0000000fH
	jne	SHORT $LN20@DisplayFro

; 1151 : 			{
; 1152 : 				cameraID=INCOMING_MISSILE_CAMERA;

	mov	edx, 10					; 0000000aH
	mov	WORD PTR _cameraID$13[ebp], dx
	jmp	SHORT $LN16@DisplayFro
$LN20@DisplayFro:

; 1153 : 			}
; 1154 : 			else if (GetOTWDisplayMode() == ModeTarget )

	mov	ecx, DWORD PTR _this$[ebp]
	call	?GetOTWDisplayMode@OTWDriverClass@@QAE?AW4OTWDisplayMode@1@XZ ; OTWDriverClass::GetOTWDisplayMode
	cmp	eax, 12					; 0000000cH
	jne	SHORT $LN18@DisplayFro

; 1155 : 			{
; 1156 : 				cameraID=TARGET_CAMERA;

	mov	eax, 11					; 0000000bH
	mov	WORD PTR _cameraID$13[ebp], ax
	jmp	SHORT $LN16@DisplayFro
$LN18@DisplayFro:

; 1157 : 			}
; 1158 : 			else if (GetOTWDisplayMode() == ModeTargetToSelf )

	mov	ecx, DWORD PTR _this$[ebp]
	call	?GetOTWDisplayMode@OTWDriverClass@@QAE?AW4OTWDisplayMode@1@XZ ; OTWDriverClass::GetOTWDisplayMode
	cmp	eax, 17					; 00000011H
	jne	SHORT $LN16@DisplayFro

; 1159 : 			{
; 1160 : 				cameraID=TARGET_TO_SELF_CAMERA;

	mov	ecx, 12					; 0000000cH
	mov	WORD PTR _cameraID$13[ebp], cx
$LN16@DisplayFro:

; 1161 : 			}
; 1162 : 
; 1163 : 			// put a line telling what the camera focus is (label)
; 1164 : 			if ( 
; 1165 : 				(otwPlatform.get() != NULL) &&
; 1166 : 				 otwPlatform->drawPointer &&
; 1167 : 				 *((DrawableBSP *)otwPlatform->drawPointer)->Label() 
; 1168 : 			)

	mov	ecx, DWORD PTR _this$[ebp]
	add	ecx, 32336				; 00007e50H
	call	?get@?$VuBin@VSimBaseClass@@@@QBEPAVSimBaseClass@@XZ ; VuBin<SimBaseClass>::get
	test	eax, eax
	je	$LN15@DisplayFro
	mov	ecx, DWORD PTR _this$[ebp]
	add	ecx, 32336				; 00007e50H
	call	??C?$VuBin@VSimBaseClass@@@@QBEPAVSimBaseClass@@XZ ; VuBin<SimBaseClass>::operator->
	cmp	DWORD PTR [eax+332], 0
	je	$LN15@DisplayFro
	mov	ecx, DWORD PTR _this$[ebp]
	add	ecx, 32336				; 00007e50H
	call	??C?$VuBin@VSimBaseClass@@@@QBEPAVSimBaseClass@@XZ ; VuBin<SimBaseClass>::operator->
	mov	ecx, DWORD PTR [eax+332]
	call	?Label@DrawableBSP@@QAEPADXZ		; DrawableBSP::Label
	movsx	edx, BYTE PTR [eax]
	test	edx, edx
	je	$LN15@DisplayFro

; 1169 : 			{
; 1170 : 				strcpy( tmpStr, CameraLabel[cameraID]);

	movsx	eax, WORD PTR _cameraID$13[ebp]
	imul	eax, 40					; 00000028H
