; Listing generated by Microsoft (R) Optimizing Compiler Version 17.00.51106.1 

	TITLE	C:\Users\Zhitao Li\Documents\Visual Studio 2012\Projects\Freefalcon\SIM\OTWDRIVE\Padlock.cpp
	.686P
	.XMM
	include listing.inc
	.model	flat

INCLUDELIB LIBCMT
INCLUDELIB OLDNAMES

PUBLIC	?traps@_Num_base@std@@2_NB			; std::_Num_base::traps
PUBLIC	?round_style@_Num_base@std@@2W4float_round_style@2@B ; std::_Num_base::round_style
PUBLIC	?digits@_Num_base@std@@2HB			; std::_Num_base::digits
PUBLIC	?digits10@_Num_base@std@@2HB			; std::_Num_base::digits10
PUBLIC	?max_digits10@_Num_base@std@@2HB		; std::_Num_base::max_digits10
PUBLIC	?max_exponent@_Num_base@std@@2HB		; std::_Num_base::max_exponent
PUBLIC	?max_exponent10@_Num_base@std@@2HB		; std::_Num_base::max_exponent10
PUBLIC	?min_exponent@_Num_base@std@@2HB		; std::_Num_base::min_exponent
PUBLIC	?min_exponent10@_Num_base@std@@2HB		; std::_Num_base::min_exponent10
PUBLIC	?radix@_Num_base@std@@2HB			; std::_Num_base::radix
PUBLIC	?is_bounded@_Num_int_base@std@@2_NB		; std::_Num_int_base::is_bounded
PUBLIC	?is_exact@_Num_int_base@std@@2_NB		; std::_Num_int_base::is_exact
PUBLIC	?is_integer@_Num_int_base@std@@2_NB		; std::_Num_int_base::is_integer
PUBLIC	?is_modulo@_Num_int_base@std@@2_NB		; std::_Num_int_base::is_modulo
PUBLIC	?is_specialized@_Num_int_base@std@@2_NB		; std::_Num_int_base::is_specialized
PUBLIC	?radix@_Num_int_base@std@@2HB			; std::_Num_int_base::radix
PUBLIC	?has_denorm@_Num_float_base@std@@2W4float_denorm_style@2@B ; std::_Num_float_base::has_denorm
PUBLIC	?has_denorm_loss@_Num_float_base@std@@2_NB	; std::_Num_float_base::has_denorm_loss
PUBLIC	?SIMDIRTYDATA_INTERVAL@FalconEntity@@2KB	; FalconEntity::SIMDIRTYDATA_INTERVAL
PUBLIC	?CMPDIRTYDATA_INTERVAL@FalconEntity@@2KB	; FalconEntity::CMPDIRTYDATA_INTERVAL
PUBLIC	?has_infinity@_Num_float_base@std@@2_NB		; std::_Num_float_base::has_infinity
PUBLIC	?has_quiet_NaN@_Num_float_base@std@@2_NB	; std::_Num_float_base::has_quiet_NaN
PUBLIC	?has_signaling_NaN@_Num_float_base@std@@2_NB	; std::_Num_float_base::has_signaling_NaN
PUBLIC	?is_bounded@_Num_float_base@std@@2_NB		; std::_Num_float_base::is_bounded
PUBLIC	?is_exact@_Num_float_base@std@@2_NB		; std::_Num_float_base::is_exact
PUBLIC	?is_iec559@_Num_float_base@std@@2_NB		; std::_Num_float_base::is_iec559
PUBLIC	?is_integer@_Num_float_base@std@@2_NB		; std::_Num_float_base::is_integer
PUBLIC	?table_size@?$ctype@D@std@@2IB			; std::ctype<char>::table_size
PUBLIC	?is_modulo@_Num_float_base@std@@2_NB		; std::_Num_float_base::is_modulo
PUBLIC	?is_signed@_Num_float_base@std@@2_NB		; std::_Num_float_base::is_signed
PUBLIC	?is_specialized@_Num_float_base@std@@2_NB	; std::_Num_float_base::is_specialized
PUBLIC	?tinyness_before@_Num_float_base@std@@2_NB	; std::_Num_float_base::tinyness_before
PUBLIC	?traps@_Num_float_base@std@@2_NB		; std::_Num_float_base::traps
PUBLIC	?round_style@_Num_float_base@std@@2W4float_round_style@2@B ; std::_Num_float_base::round_style
PUBLIC	?radix@_Num_float_base@std@@2HB			; std::_Num_float_base::radix
PUBLIC	?is_signed@?$numeric_limits@D@std@@2_NB		; std::numeric_limits<char>::is_signed
PUBLIC	?digits@?$numeric_limits@D@std@@2HB		; std::numeric_limits<char>::digits
PUBLIC	?digits10@?$numeric_limits@D@std@@2HB		; std::numeric_limits<char>::digits10
PUBLIC	?is_signed@?$numeric_limits@_W@std@@2_NB	; std::numeric_limits<wchar_t>::is_signed
PUBLIC	?digits@?$numeric_limits@_W@std@@2HB		; std::numeric_limits<wchar_t>::digits
PUBLIC	?digits10@?$numeric_limits@_W@std@@2HB		; std::numeric_limits<wchar_t>::digits10
PUBLIC	?is_modulo@?$numeric_limits@_N@std@@2_NB	; std::numeric_limits<bool>::is_modulo
PUBLIC	?is_signed@?$numeric_limits@_N@std@@2_NB	; std::numeric_limits<bool>::is_signed
PUBLIC	?digits@?$numeric_limits@_N@std@@2HB		; std::numeric_limits<bool>::digits
PUBLIC	?digits10@?$numeric_limits@_N@std@@2HB		; std::numeric_limits<bool>::digits10
PUBLIC	?is_signed@?$numeric_limits@C@std@@2_NB		; std::numeric_limits<signed char>::is_signed
PUBLIC	?digits@?$numeric_limits@C@std@@2HB		; std::numeric_limits<signed char>::digits
PUBLIC	?digits10@?$numeric_limits@C@std@@2HB		; std::numeric_limits<signed char>::digits10
PUBLIC	?is_signed@?$numeric_limits@E@std@@2_NB		; std::numeric_limits<unsigned char>::is_signed
PUBLIC	?value@?$integral_constant@_N$0A@@std@@2_NB	; std::integral_constant<bool,0>::value
PUBLIC	?digits@?$numeric_limits@E@std@@2HB		; std::numeric_limits<unsigned char>::digits
PUBLIC	?digits10@?$numeric_limits@E@std@@2HB		; std::numeric_limits<unsigned char>::digits10
PUBLIC	?value@?$integral_constant@_N$00@std@@2_NB	; std::integral_constant<bool,1>::value
PUBLIC	?is_signed@?$numeric_limits@F@std@@2_NB		; std::numeric_limits<short>::is_signed
PUBLIC	?digits@?$numeric_limits@F@std@@2HB		; std::numeric_limits<short>::digits
PUBLIC	?digits10@?$numeric_limits@F@std@@2HB		; std::numeric_limits<short>::digits10
PUBLIC	?is_signed@?$numeric_limits@G@std@@2_NB		; std::numeric_limits<unsigned short>::is_signed
PUBLIC	?digits@?$numeric_limits@G@std@@2HB		; std::numeric_limits<unsigned short>::digits
PUBLIC	?digits10@?$numeric_limits@G@std@@2HB		; std::numeric_limits<unsigned short>::digits10
PUBLIC	?is_signed@?$numeric_limits@H@std@@2_NB		; std::numeric_limits<int>::is_signed
PUBLIC	?value@?$_Sizeof@HU_Nil@std@@U12@U12@U12@U12@U12@U12@@std@@2IB ; std::_Sizeof<int,std::_Nil,std::_Nil,std::_Nil,std::_Nil,std::_Nil,std::_Nil,std::_Nil>::value
PUBLIC	?digits@?$numeric_limits@H@std@@2HB		; std::numeric_limits<int>::digits
PUBLIC	?digits10@?$numeric_limits@H@std@@2HB		; std::numeric_limits<int>::digits10
PUBLIC	?is_signed@?$numeric_limits@I@std@@2_NB		; std::numeric_limits<unsigned int>::is_signed
PUBLIC	?digits@?$numeric_limits@I@std@@2HB		; std::numeric_limits<unsigned int>::digits
PUBLIC	?digits10@?$numeric_limits@I@std@@2HB		; std::numeric_limits<unsigned int>::digits10
PUBLIC	?is_signed@?$numeric_limits@J@std@@2_NB		; std::numeric_limits<long>::is_signed
PUBLIC	?digits@?$numeric_limits@J@std@@2HB		; std::numeric_limits<long>::digits
PUBLIC	?digits10@?$numeric_limits@J@std@@2HB		; std::numeric_limits<long>::digits10
PUBLIC	?is_signed@?$numeric_limits@K@std@@2_NB		; std::numeric_limits<unsigned long>::is_signed
PUBLIC	?digits@?$numeric_limits@K@std@@2HB		; std::numeric_limits<unsigned long>::digits
PUBLIC	?digits10@?$numeric_limits@K@std@@2HB		; std::numeric_limits<unsigned long>::digits10
PUBLIC	?is_signed@?$numeric_limits@_J@std@@2_NB	; std::numeric_limits<__int64>::is_signed
PUBLIC	?digits@?$numeric_limits@_J@std@@2HB		; std::numeric_limits<__int64>::digits
PUBLIC	?digits10@?$numeric_limits@_J@std@@2HB		; std::numeric_limits<__int64>::digits10
PUBLIC	?skipws@?$_Iosb@H@std@@2W4_Fmtflags@12@B	; std::_Iosb<int>::skipws
PUBLIC	?unitbuf@?$_Iosb@H@std@@2W4_Fmtflags@12@B	; std::_Iosb<int>::unitbuf
PUBLIC	?uppercase@?$_Iosb@H@std@@2W4_Fmtflags@12@B	; std::_Iosb<int>::uppercase
PUBLIC	?showbase@?$_Iosb@H@std@@2W4_Fmtflags@12@B	; std::_Iosb<int>::showbase
PUBLIC	?showpoint@?$_Iosb@H@std@@2W4_Fmtflags@12@B	; std::_Iosb<int>::showpoint
PUBLIC	?showpos@?$_Iosb@H@std@@2W4_Fmtflags@12@B	; std::_Iosb<int>::showpos
PUBLIC	?left@?$_Iosb@H@std@@2W4_Fmtflags@12@B		; std::_Iosb<int>::left
PUBLIC	?right@?$_Iosb@H@std@@2W4_Fmtflags@12@B		; std::_Iosb<int>::right
PUBLIC	?internal@?$_Iosb@H@std@@2W4_Fmtflags@12@B	; std::_Iosb<int>::internal
PUBLIC	?dec@?$_Iosb@H@std@@2W4_Fmtflags@12@B		; std::_Iosb<int>::dec
PUBLIC	?is_signed@?$numeric_limits@_K@std@@2_NB	; std::numeric_limits<unsigned __int64>::is_signed
PUBLIC	?oct@?$_Iosb@H@std@@2W4_Fmtflags@12@B		; std::_Iosb<int>::oct
PUBLIC	?digits@?$numeric_limits@_K@std@@2HB		; std::numeric_limits<unsigned __int64>::digits
PUBLIC	?hex@?$_Iosb@H@std@@2W4_Fmtflags@12@B		; std::_Iosb<int>::hex
PUBLIC	?scientific@?$_Iosb@H@std@@2W4_Fmtflags@12@B	; std::_Iosb<int>::scientific
PUBLIC	?digits10@?$numeric_limits@_K@std@@2HB		; std::numeric_limits<unsigned __int64>::digits10
PUBLIC	?fixed@?$_Iosb@H@std@@2W4_Fmtflags@12@B		; std::_Iosb<int>::fixed
PUBLIC	?hexfloat@?$_Iosb@H@std@@2W4_Fmtflags@12@B	; std::_Iosb<int>::hexfloat
PUBLIC	?boolalpha@?$_Iosb@H@std@@2W4_Fmtflags@12@B	; std::_Iosb<int>::boolalpha
PUBLIC	?_Stdio@?$_Iosb@H@std@@2W4_Fmtflags@12@B	; std::_Iosb<int>::_Stdio
PUBLIC	?adjustfield@?$_Iosb@H@std@@2W4_Fmtflags@12@B	; std::_Iosb<int>::adjustfield
PUBLIC	?basefield@?$_Iosb@H@std@@2W4_Fmtflags@12@B	; std::_Iosb<int>::basefield
PUBLIC	?floatfield@?$_Iosb@H@std@@2W4_Fmtflags@12@B	; std::_Iosb<int>::floatfield
PUBLIC	?goodbit@?$_Iosb@H@std@@2W4_Iostate@12@B	; std::_Iosb<int>::goodbit
PUBLIC	?eofbit@?$_Iosb@H@std@@2W4_Iostate@12@B		; std::_Iosb<int>::eofbit
PUBLIC	?digits@?$numeric_limits@M@std@@2HB		; std::numeric_limits<float>::digits
PUBLIC	?failbit@?$_Iosb@H@std@@2W4_Iostate@12@B	; std::_Iosb<int>::failbit
PUBLIC	?digits10@?$numeric_limits@M@std@@2HB		; std::numeric_limits<float>::digits10
PUBLIC	?badbit@?$_Iosb@H@std@@2W4_Iostate@12@B		; std::_Iosb<int>::badbit
PUBLIC	?max_digits10@?$numeric_limits@M@std@@2HB	; std::numeric_limits<float>::max_digits10
PUBLIC	?_Hardfail@?$_Iosb@H@std@@2W4_Iostate@12@B	; std::_Iosb<int>::_Hardfail
PUBLIC	?max_exponent@?$numeric_limits@M@std@@2HB	; std::numeric_limits<float>::max_exponent
PUBLIC	?in@?$_Iosb@H@std@@2W4_Openmode@12@B		; std::_Iosb<int>::in
PUBLIC	?max_exponent10@?$numeric_limits@M@std@@2HB	; std::numeric_limits<float>::max_exponent10
PUBLIC	?out@?$_Iosb@H@std@@2W4_Openmode@12@B		; std::_Iosb<int>::out
PUBLIC	?min_exponent@?$numeric_limits@M@std@@2HB	; std::numeric_limits<float>::min_exponent
PUBLIC	?ate@?$_Iosb@H@std@@2W4_Openmode@12@B		; std::_Iosb<int>::ate
PUBLIC	?min_exponent10@?$numeric_limits@M@std@@2HB	; std::numeric_limits<float>::min_exponent10
PUBLIC	?app@?$_Iosb@H@std@@2W4_Openmode@12@B		; std::_Iosb<int>::app
PUBLIC	?trunc@?$_Iosb@H@std@@2W4_Openmode@12@B		; std::_Iosb<int>::trunc
PUBLIC	?_Nocreate@?$_Iosb@H@std@@2W4_Openmode@12@B	; std::_Iosb<int>::_Nocreate
PUBLIC	?_Noreplace@?$_Iosb@H@std@@2W4_Openmode@12@B	; std::_Iosb<int>::_Noreplace
PUBLIC	?binary@?$_Iosb@H@std@@2W4_Openmode@12@B	; std::_Iosb<int>::binary
PUBLIC	?beg@?$_Iosb@H@std@@2W4_Seekdir@12@B		; std::_Iosb<int>::beg
PUBLIC	?cur@?$_Iosb@H@std@@2W4_Seekdir@12@B		; std::_Iosb<int>::cur
PUBLIC	?end@?$_Iosb@H@std@@2W4_Seekdir@12@B		; std::_Iosb<int>::end
PUBLIC	?value@?$integral_constant@I$0A@@std@@2IB	; std::integral_constant<unsigned int,0>::value
PUBLIC	?digits@?$numeric_limits@N@std@@2HB		; std::numeric_limits<double>::digits
PUBLIC	?digits10@?$numeric_limits@N@std@@2HB		; std::numeric_limits<double>::digits10
PUBLIC	?max_digits10@?$numeric_limits@N@std@@2HB	; std::numeric_limits<double>::max_digits10
PUBLIC	?max_exponent@?$numeric_limits@N@std@@2HB	; std::numeric_limits<double>::max_exponent
PUBLIC	?max_exponent10@?$numeric_limits@N@std@@2HB	; std::numeric_limits<double>::max_exponent10
PUBLIC	?min_exponent@?$numeric_limits@N@std@@2HB	; std::numeric_limits<double>::min_exponent
PUBLIC	?_Stream_err@failure@ios_base@std@@0W4io_errc@43@B ; std::ios_base::failure::_Stream_err
PUBLIC	?min_exponent10@?$numeric_limits@N@std@@2HB	; std::numeric_limits<double>::min_exponent10
PUBLIC	?digits@?$numeric_limits@O@std@@2HB		; std::numeric_limits<long double>::digits
PUBLIC	?digits10@?$numeric_limits@O@std@@2HB		; std::numeric_limits<long double>::digits10
PUBLIC	?max_digits10@?$numeric_limits@O@std@@2HB	; std::numeric_limits<long double>::max_digits10
PUBLIC	?max_exponent@?$numeric_limits@O@std@@2HB	; std::numeric_limits<long double>::max_exponent
PUBLIC	?max_exponent10@?$numeric_limits@O@std@@2HB	; std::numeric_limits<long double>::max_exponent10
PUBLIC	?min_exponent@?$numeric_limits@O@std@@2HB	; std::numeric_limits<long double>::min_exponent
PUBLIC	?min_exponent10@?$numeric_limits@O@std@@2HB	; std::numeric_limits<long double>::min_exponent10
PUBLIC	?value@?$_Sizeof@U_Nil@std@@U12@U12@U12@U12@U12@U12@U12@@std@@2IB ; std::_Sizeof<std::_Nil,std::_Nil,std::_Nil,std::_Nil,std::_Nil,std::_Nil,std::_Nil,std::_Nil>::value
PUBLIC	?has_denorm@_Num_base@std@@2W4float_denorm_style@2@B ; std::_Num_base::has_denorm
PUBLIC	?has_denorm_loss@_Num_base@std@@2_NB		; std::_Num_base::has_denorm_loss
PUBLIC	?has_infinity@_Num_base@std@@2_NB		; std::_Num_base::has_infinity
PUBLIC	?has_quiet_NaN@_Num_base@std@@2_NB		; std::_Num_base::has_quiet_NaN
PUBLIC	?has_signaling_NaN@_Num_base@std@@2_NB		; std::_Num_base::has_signaling_NaN
PUBLIC	?is_bounded@_Num_base@std@@2_NB			; std::_Num_base::is_bounded
PUBLIC	?is_exact@_Num_base@std@@2_NB			; std::_Num_base::is_exact
PUBLIC	?collate@?$_Locbase@H@std@@2HB			; std::_Locbase<int>::collate
PUBLIC	?is_iec559@_Num_base@std@@2_NB			; std::_Num_base::is_iec559
PUBLIC	?ctype@?$_Locbase@H@std@@2HB			; std::_Locbase<int>::ctype
PUBLIC	?monetary@?$_Locbase@H@std@@2HB			; std::_Locbase<int>::monetary
PUBLIC	?is_integer@_Num_base@std@@2_NB			; std::_Num_base::is_integer
PUBLIC	?numeric@?$_Locbase@H@std@@2HB			; std::_Locbase<int>::numeric
PUBLIC	?time@?$_Locbase@H@std@@2HB			; std::_Locbase<int>::time
PUBLIC	?is_modulo@_Num_base@std@@2_NB			; std::_Num_base::is_modulo
PUBLIC	?messages@?$_Locbase@H@std@@2HB			; std::_Locbase<int>::messages
PUBLIC	?is_signed@_Num_base@std@@2_NB			; std::_Num_base::is_signed
PUBLIC	?all@?$_Locbase@H@std@@2HB			; std::_Locbase<int>::all
PUBLIC	?none@?$_Locbase@H@std@@2HB			; std::_Locbase<int>::none
PUBLIC	?is_specialized@_Num_base@std@@2_NB		; std::_Num_base::is_specialized
PUBLIC	?tinyness_before@_Num_base@std@@2_NB		; std::_Num_base::tinyness_before
;	COMDAT ?tinyness_before@_Num_base@std@@2_NB
CONST	SEGMENT
?tinyness_before@_Num_base@std@@2_NB DB 00H		; std::_Num_base::tinyness_before
CONST	ENDS
;	COMDAT ?is_specialized@_Num_base@std@@2_NB
CONST	SEGMENT
?is_specialized@_Num_base@std@@2_NB DB 00H		; std::_Num_base::is_specialized
CONST	ENDS
;	COMDAT ?none@?$_Locbase@H@std@@2HB
CONST	SEGMENT
?none@?$_Locbase@H@std@@2HB DD 00H			; std::_Locbase<int>::none
CONST	ENDS
;	COMDAT ?all@?$_Locbase@H@std@@2HB
CONST	SEGMENT
?all@?$_Locbase@H@std@@2HB DD 03fH			; std::_Locbase<int>::all
CONST	ENDS
;	COMDAT ?is_signed@_Num_base@std@@2_NB
CONST	SEGMENT
?is_signed@_Num_base@std@@2_NB DB 00H			; std::_Num_base::is_signed
CONST	ENDS
;	COMDAT ?messages@?$_Locbase@H@std@@2HB
CONST	SEGMENT
?messages@?$_Locbase@H@std@@2HB DD 020H			; std::_Locbase<int>::messages
CONST	ENDS
;	COMDAT ?is_modulo@_Num_base@std@@2_NB
CONST	SEGMENT
?is_modulo@_Num_base@std@@2_NB DB 00H			; std::_Num_base::is_modulo
CONST	ENDS
;	COMDAT ?time@?$_Locbase@H@std@@2HB
CONST	SEGMENT
?time@?$_Locbase@H@std@@2HB DD 010H			; std::_Locbase<int>::time
CONST	ENDS
;	COMDAT ?numeric@?$_Locbase@H@std@@2HB
CONST	SEGMENT
?numeric@?$_Locbase@H@std@@2HB DD 08H			; std::_Locbase<int>::numeric
CONST	ENDS
;	COMDAT ?is_integer@_Num_base@std@@2_NB
CONST	SEGMENT
?is_integer@_Num_base@std@@2_NB DB 00H			; std::_Num_base::is_integer
CONST	ENDS
;	COMDAT ?monetary@?$_Locbase@H@std@@2HB
CONST	SEGMENT
?monetary@?$_Locbase@H@std@@2HB DD 04H			; std::_Locbase<int>::monetary
CONST	ENDS
;	COMDAT ?ctype@?$_Locbase@H@std@@2HB
CONST	SEGMENT
?ctype@?$_Locbase@H@std@@2HB DD 02H			; std::_Locbase<int>::ctype
CONST	ENDS
;	COMDAT ?is_iec559@_Num_base@std@@2_NB
CONST	SEGMENT
?is_iec559@_Num_base@std@@2_NB DB 00H			; std::_Num_base::is_iec559
CONST	ENDS
;	COMDAT ?collate@?$_Locbase@H@std@@2HB
CONST	SEGMENT
?collate@?$_Locbase@H@std@@2HB DD 01H			; std::_Locbase<int>::collate
CONST	ENDS
;	COMDAT ?is_exact@_Num_base@std@@2_NB
CONST	SEGMENT
?is_exact@_Num_base@std@@2_NB DB 00H			; std::_Num_base::is_exact
CONST	ENDS
;	COMDAT ?is_bounded@_Num_base@std@@2_NB
CONST	SEGMENT
?is_bounded@_Num_base@std@@2_NB DB 00H			; std::_Num_base::is_bounded
CONST	ENDS
;	COMDAT ?has_signaling_NaN@_Num_base@std@@2_NB
CONST	SEGMENT
?has_signaling_NaN@_Num_base@std@@2_NB DB 00H		; std::_Num_base::has_signaling_NaN
CONST	ENDS
;	COMDAT ?has_quiet_NaN@_Num_base@std@@2_NB
CONST	SEGMENT
?has_quiet_NaN@_Num_base@std@@2_NB DB 00H		; std::_Num_base::has_quiet_NaN
CONST	ENDS
;	COMDAT ?has_infinity@_Num_base@std@@2_NB
CONST	SEGMENT
?has_infinity@_Num_base@std@@2_NB DB 00H		; std::_Num_base::has_infinity
CONST	ENDS
;	COMDAT ?has_denorm_loss@_Num_base@std@@2_NB
CONST	SEGMENT
?has_denorm_loss@_Num_base@std@@2_NB DB 00H		; std::_Num_base::has_denorm_loss
CONST	ENDS
;	COMDAT ?has_denorm@_Num_base@std@@2W4float_denorm_style@2@B
CONST	SEGMENT
?has_denorm@_Num_base@std@@2W4float_denorm_style@2@B DD 00H ; std::_Num_base::has_denorm
CONST	ENDS
;	COMDAT ?value@?$_Sizeof@U_Nil@std@@U12@U12@U12@U12@U12@U12@U12@@std@@2IB
CONST	SEGMENT
?value@?$_Sizeof@U_Nil@std@@U12@U12@U12@U12@U12@U12@U12@@std@@2IB DD 00H ; std::_Sizeof<std::_Nil,std::_Nil,std::_Nil,std::_Nil,std::_Nil,std::_Nil,std::_Nil,std::_Nil>::value
CONST	ENDS
;	COMDAT ?min_exponent10@?$numeric_limits@O@std@@2HB
CONST	SEGMENT
?min_exponent10@?$numeric_limits@O@std@@2HB DD 0fffffecdH ; std::numeric_limits<long double>::min_exponent10
CONST	ENDS
;	COMDAT ?min_exponent@?$numeric_limits@O@std@@2HB
CONST	SEGMENT
?min_exponent@?$numeric_limits@O@std@@2HB DD 0fffffc03H	; std::numeric_limits<long double>::min_exponent
CONST	ENDS
;	COMDAT ?max_exponent10@?$numeric_limits@O@std@@2HB
CONST	SEGMENT
?max_exponent10@?$numeric_limits@O@std@@2HB DD 0134H	; std::numeric_limits<long double>::max_exponent10
CONST	ENDS
;	COMDAT ?max_exponent@?$numeric_limits@O@std@@2HB
CONST	SEGMENT
?max_exponent@?$numeric_limits@O@std@@2HB DD 0400H	; std::numeric_limits<long double>::max_exponent
CONST	ENDS
;	COMDAT ?max_digits10@?$numeric_limits@O@std@@2HB
CONST	SEGMENT
?max_digits10@?$numeric_limits@O@std@@2HB DD 011H	; std::numeric_limits<long double>::max_digits10
CONST	ENDS
;	COMDAT ?digits10@?$numeric_limits@O@std@@2HB
CONST	SEGMENT
?digits10@?$numeric_limits@O@std@@2HB DD 0fH		; std::numeric_limits<long double>::digits10
CONST	ENDS
;	COMDAT ?digits@?$numeric_limits@O@std@@2HB
CONST	SEGMENT
?digits@?$numeric_limits@O@std@@2HB DD 035H		; std::numeric_limits<long double>::digits
CONST	ENDS
;	COMDAT ?min_exponent10@?$numeric_limits@N@std@@2HB
CONST	SEGMENT
?min_exponent10@?$numeric_limits@N@std@@2HB DD 0fffffecdH ; std::numeric_limits<double>::min_exponent10
CONST	ENDS
;	COMDAT ?_Stream_err@failure@ios_base@std@@0W4io_errc@43@B
CONST	SEGMENT
?_Stream_err@failure@ios_base@std@@0W4io_errc@43@B DD 01H ; std::ios_base::failure::_Stream_err
CONST	ENDS
;	COMDAT ?min_exponent@?$numeric_limits@N@std@@2HB
CONST	SEGMENT
?min_exponent@?$numeric_limits@N@std@@2HB DD 0fffffc03H	; std::numeric_limits<double>::min_exponent
CONST	ENDS
;	COMDAT ?max_exponent10@?$numeric_limits@N@std@@2HB
CONST	SEGMENT
?max_exponent10@?$numeric_limits@N@std@@2HB DD 0134H	; std::numeric_limits<double>::max_exponent10
CONST	ENDS
;	COMDAT ?max_exponent@?$numeric_limits@N@std@@2HB
CONST	SEGMENT
?max_exponent@?$numeric_limits@N@std@@2HB DD 0400H	; std::numeric_limits<double>::max_exponent
CONST	ENDS
;	COMDAT ?max_digits10@?$numeric_limits@N@std@@2HB
CONST	SEGMENT
?max_digits10@?$numeric_limits@N@std@@2HB DD 011H	; std::numeric_limits<double>::max_digits10
CONST	ENDS
;	COMDAT ?digits10@?$numeric_limits@N@std@@2HB
CONST	SEGMENT
?digits10@?$numeric_limits@N@std@@2HB DD 0fH		; std::numeric_limits<double>::digits10
CONST	ENDS
;	COMDAT ?digits@?$numeric_limits@N@std@@2HB
CONST	SEGMENT
?digits@?$numeric_limits@N@std@@2HB DD 035H		; std::numeric_limits<double>::digits
CONST	ENDS
;	COMDAT ?value@?$integral_constant@I$0A@@std@@2IB
CONST	SEGMENT
?value@?$integral_constant@I$0A@@std@@2IB DD 00H	; std::integral_constant<unsigned int,0>::value
CONST	ENDS
;	COMDAT ?end@?$_Iosb@H@std@@2W4_Seekdir@12@B
CONST	SEGMENT
?end@?$_Iosb@H@std@@2W4_Seekdir@12@B DD 02H		; std::_Iosb<int>::end
CONST	ENDS
;	COMDAT ?cur@?$_Iosb@H@std@@2W4_Seekdir@12@B
CONST	SEGMENT
?cur@?$_Iosb@H@std@@2W4_Seekdir@12@B DD 01H		; std::_Iosb<int>::cur
CONST	ENDS
;	COMDAT ?beg@?$_Iosb@H@std@@2W4_Seekdir@12@B
CONST	SEGMENT
?beg@?$_Iosb@H@std@@2W4_Seekdir@12@B DD 00H		; std::_Iosb<int>::beg
CONST	ENDS
;	COMDAT ?binary@?$_Iosb@H@std@@2W4_Openmode@12@B
CONST	SEGMENT
?binary@?$_Iosb@H@std@@2W4_Openmode@12@B DD 020H	; std::_Iosb<int>::binary
CONST	ENDS
;	COMDAT ?_Noreplace@?$_Iosb@H@std@@2W4_Openmode@12@B
CONST	SEGMENT
?_Noreplace@?$_Iosb@H@std@@2W4_Openmode@12@B DD 080H	; std::_Iosb<int>::_Noreplace
CONST	ENDS
;	COMDAT ?_Nocreate@?$_Iosb@H@std@@2W4_Openmode@12@B
CONST	SEGMENT
?_Nocreate@?$_Iosb@H@std@@2W4_Openmode@12@B DD 040H	; std::_Iosb<int>::_Nocreate
CONST	ENDS
;	COMDAT ?trunc@?$_Iosb@H@std@@2W4_Openmode@12@B
CONST	SEGMENT
?trunc@?$_Iosb@H@std@@2W4_Openmode@12@B DD 010H		; std::_Iosb<int>::trunc
CONST	ENDS
;	COMDAT ?app@?$_Iosb@H@std@@2W4_Openmode@12@B
CONST	SEGMENT
?app@?$_Iosb@H@std@@2W4_Openmode@12@B DD 08H		; std::_Iosb<int>::app
CONST	ENDS
;	COMDAT ?min_exponent10@?$numeric_limits@M@std@@2HB
CONST	SEGMENT
?min_exponent10@?$numeric_limits@M@std@@2HB DD 0ffffffdbH ; std::numeric_limits<float>::min_exponent10
CONST	ENDS
;	COMDAT ?ate@?$_Iosb@H@std@@2W4_Openmode@12@B
CONST	SEGMENT
?ate@?$_Iosb@H@std@@2W4_Openmode@12@B DD 04H		; std::_Iosb<int>::ate
CONST	ENDS
;	COMDAT ?min_exponent@?$numeric_limits@M@std@@2HB
CONST	SEGMENT
?min_exponent@?$numeric_limits@M@std@@2HB DD 0ffffff83H	; std::numeric_limits<float>::min_exponent
CONST	ENDS
;	COMDAT ?out@?$_Iosb@H@std@@2W4_Openmode@12@B
CONST	SEGMENT
?out@?$_Iosb@H@std@@2W4_Openmode@12@B DD 02H		; std::_Iosb<int>::out
CONST	ENDS
;	COMDAT ?max_exponent10@?$numeric_limits@M@std@@2HB
CONST	SEGMENT
?max_exponent10@?$numeric_limits@M@std@@2HB DD 026H	; std::numeric_limits<float>::max_exponent10
CONST	ENDS
;	COMDAT ?in@?$_Iosb@H@std@@2W4_Openmode@12@B
CONST	SEGMENT
?in@?$_Iosb@H@std@@2W4_Openmode@12@B DD 01H		; std::_Iosb<int>::in
CONST	ENDS
;	COMDAT ?max_exponent@?$numeric_limits@M@std@@2HB
CONST	SEGMENT
?max_exponent@?$numeric_limits@M@std@@2HB DD 080H	; std::numeric_limits<float>::max_exponent
CONST	ENDS
;	COMDAT ?_Hardfail@?$_Iosb@H@std@@2W4_Iostate@12@B
CONST	SEGMENT
?_Hardfail@?$_Iosb@H@std@@2W4_Iostate@12@B DD 010H	; std::_Iosb<int>::_Hardfail
CONST	ENDS
;	COMDAT ?max_digits10@?$numeric_limits@M@std@@2HB
CONST	SEGMENT
?max_digits10@?$numeric_limits@M@std@@2HB DD 09H	; std::numeric_limits<float>::max_digits10
CONST	ENDS
;	COMDAT ?badbit@?$_Iosb@H@std@@2W4_Iostate@12@B
CONST	SEGMENT
?badbit@?$_Iosb@H@std@@2W4_Iostate@12@B DD 04H		; std::_Iosb<int>::badbit
CONST	ENDS
;	COMDAT ?digits10@?$numeric_limits@M@std@@2HB
CONST	SEGMENT
?digits10@?$numeric_limits@M@std@@2HB DD 06H		; std::numeric_limits<float>::digits10
CONST	ENDS
;	COMDAT ?failbit@?$_Iosb@H@std@@2W4_Iostate@12@B
CONST	SEGMENT
?failbit@?$_Iosb@H@std@@2W4_Iostate@12@B DD 02H		; std::_Iosb<int>::failbit
CONST	ENDS
;	COMDAT ?digits@?$numeric_limits@M@std@@2HB
CONST	SEGMENT
?digits@?$numeric_limits@M@std@@2HB DD 018H		; std::numeric_limits<float>::digits
CONST	ENDS
;	COMDAT ?eofbit@?$_Iosb@H@std@@2W4_Iostate@12@B
CONST	SEGMENT
?eofbit@?$_Iosb@H@std@@2W4_Iostate@12@B DD 01H		; std::_Iosb<int>::eofbit
CONST	ENDS
;	COMDAT ?goodbit@?$_Iosb@H@std@@2W4_Iostate@12@B
CONST	SEGMENT
?goodbit@?$_Iosb@H@std@@2W4_Iostate@12@B DD 00H		; std::_Iosb<int>::goodbit
CONST	ENDS
;	COMDAT ?floatfield@?$_Iosb@H@std@@2W4_Fmtflags@12@B
CONST	SEGMENT
?floatfield@?$_Iosb@H@std@@2W4_Fmtflags@12@B DD 03000H	; std::_Iosb<int>::floatfield
CONST	ENDS
;	COMDAT ?basefield@?$_Iosb@H@std@@2W4_Fmtflags@12@B
CONST	SEGMENT
?basefield@?$_Iosb@H@std@@2W4_Fmtflags@12@B DD 0e00H	; std::_Iosb<int>::basefield
CONST	ENDS
;	COMDAT ?adjustfield@?$_Iosb@H@std@@2W4_Fmtflags@12@B
CONST	SEGMENT
?adjustfield@?$_Iosb@H@std@@2W4_Fmtflags@12@B DD 01c0H	; std::_Iosb<int>::adjustfield
CONST	ENDS
;	COMDAT ?_Stdio@?$_Iosb@H@std@@2W4_Fmtflags@12@B
CONST	SEGMENT
?_Stdio@?$_Iosb@H@std@@2W4_Fmtflags@12@B DD 08000H	; std::_Iosb<int>::_Stdio
CONST	ENDS
;	COMDAT ?boolalpha@?$_Iosb@H@std@@2W4_Fmtflags@12@B
CONST	SEGMENT
?boolalpha@?$_Iosb@H@std@@2W4_Fmtflags@12@B DD 04000H	; std::_Iosb<int>::boolalpha
CONST	ENDS
;	COMDAT ?hexfloat@?$_Iosb@H@std@@2W4_Fmtflags@12@B
CONST	SEGMENT
?hexfloat@?$_Iosb@H@std@@2W4_Fmtflags@12@B DD 03000H	; std::_Iosb<int>::hexfloat
CONST	ENDS
;	COMDAT ?fixed@?$_Iosb@H@std@@2W4_Fmtflags@12@B
CONST	SEGMENT
?fixed@?$_Iosb@H@std@@2W4_Fmtflags@12@B DD 02000H	; std::_Iosb<int>::fixed
CONST	ENDS
;	COMDAT ?digits10@?$numeric_limits@_K@std@@2HB
CONST	SEGMENT
?digits10@?$numeric_limits@_K@std@@2HB DD 013H		; std::numeric_limits<unsigned __int64>::digits10
CONST	ENDS
;	COMDAT ?scientific@?$_Iosb@H@std@@2W4_Fmtflags@12@B
CONST	SEGMENT
?scientific@?$_Iosb@H@std@@2W4_Fmtflags@12@B DD 01000H	; std::_Iosb<int>::scientific
CONST	ENDS
;	COMDAT ?hex@?$_Iosb@H@std@@2W4_Fmtflags@12@B
CONST	SEGMENT
?hex@?$_Iosb@H@std@@2W4_Fmtflags@12@B DD 0800H		; std::_Iosb<int>::hex
CONST	ENDS
;	COMDAT ?digits@?$numeric_limits@_K@std@@2HB
CONST	SEGMENT
?digits@?$numeric_limits@_K@std@@2HB DD 040H		; std::numeric_limits<unsigned __int64>::digits
CONST	ENDS
;	COMDAT ?oct@?$_Iosb@H@std@@2W4_Fmtflags@12@B
CONST	SEGMENT
?oct@?$_Iosb@H@std@@2W4_Fmtflags@12@B DD 0400H		; std::_Iosb<int>::oct
CONST	ENDS
;	COMDAT ?is_signed@?$numeric_limits@_K@std@@2_NB
CONST	SEGMENT
?is_signed@?$numeric_limits@_K@std@@2_NB DB 00H		; std::numeric_limits<unsigned __int64>::is_signed
CONST	ENDS
;	COMDAT ?dec@?$_Iosb@H@std@@2W4_Fmtflags@12@B
CONST	SEGMENT
?dec@?$_Iosb@H@std@@2W4_Fmtflags@12@B DD 0200H		; std::_Iosb<int>::dec
CONST	ENDS
;	COMDAT ?internal@?$_Iosb@H@std@@2W4_Fmtflags@12@B
CONST	SEGMENT
?internal@?$_Iosb@H@std@@2W4_Fmtflags@12@B DD 0100H	; std::_Iosb<int>::internal
CONST	ENDS
;	COMDAT ?right@?$_Iosb@H@std@@2W4_Fmtflags@12@B
CONST	SEGMENT
?right@?$_Iosb@H@std@@2W4_Fmtflags@12@B DD 080H		; std::_Iosb<int>::right
CONST	ENDS
;	COMDAT ?left@?$_Iosb@H@std@@2W4_Fmtflags@12@B
CONST	SEGMENT
?left@?$_Iosb@H@std@@2W4_Fmtflags@12@B DD 040H		; std::_Iosb<int>::left
CONST	ENDS
;	COMDAT ?showpos@?$_Iosb@H@std@@2W4_Fmtflags@12@B
CONST	SEGMENT
?showpos@?$_Iosb@H@std@@2W4_Fmtflags@12@B DD 020H	; std::_Iosb<int>::showpos
CONST	ENDS
;	COMDAT ?showpoint@?$_Iosb@H@std@@2W4_Fmtflags@12@B
CONST	SEGMENT
?showpoint@?$_Iosb@H@std@@2W4_Fmtflags@12@B DD 010H	; std::_Iosb<int>::showpoint
CONST	ENDS
;	COMDAT ?showbase@?$_Iosb@H@std@@2W4_Fmtflags@12@B
CONST	SEGMENT
?showbase@?$_Iosb@H@std@@2W4_Fmtflags@12@B DD 08H	; std::_Iosb<int>::showbase
CONST	ENDS
;	COMDAT ?uppercase@?$_Iosb@H@std@@2W4_Fmtflags@12@B
CONST	SEGMENT
?uppercase@?$_Iosb@H@std@@2W4_Fmtflags@12@B DD 04H	; std::_Iosb<int>::uppercase
CONST	ENDS
;	COMDAT ?unitbuf@?$_Iosb@H@std@@2W4_Fmtflags@12@B
CONST	SEGMENT
?unitbuf@?$_Iosb@H@std@@2W4_Fmtflags@12@B DD 02H	; std::_Iosb<int>::unitbuf
CONST	ENDS
;	COMDAT ?skipws@?$_Iosb@H@std@@2W4_Fmtflags@12@B
CONST	SEGMENT
?skipws@?$_Iosb@H@std@@2W4_Fmtflags@12@B DD 01H		; std::_Iosb<int>::skipws
CONST	ENDS
;	COMDAT ?digits10@?$numeric_limits@_J@std@@2HB
CONST	SEGMENT
?digits10@?$numeric_limits@_J@std@@2HB DD 012H		; std::numeric_limits<__int64>::digits10
CONST	ENDS
;	COMDAT ?digits@?$numeric_limits@_J@std@@2HB
CONST	SEGMENT
?digits@?$numeric_limits@_J@std@@2HB DD 03fH		; std::numeric_limits<__int64>::digits
CONST	ENDS
;	COMDAT ?is_signed@?$numeric_limits@_J@std@@2_NB
CONST	SEGMENT
?is_signed@?$numeric_limits@_J@std@@2_NB DB 01H		; std::numeric_limits<__int64>::is_signed
CONST	ENDS
;	COMDAT ?digits10@?$numeric_limits@K@std@@2HB
CONST	SEGMENT
?digits10@?$numeric_limits@K@std@@2HB DD 09H		; std::numeric_limits<unsigned long>::digits10
CONST	ENDS
;	COMDAT ?digits@?$numeric_limits@K@std@@2HB
CONST	SEGMENT
?digits@?$numeric_limits@K@std@@2HB DD 020H		; std::numeric_limits<unsigned long>::digits
CONST	ENDS
;	COMDAT ?is_signed@?$numeric_limits@K@std@@2_NB
CONST	SEGMENT
?is_signed@?$numeric_limits@K@std@@2_NB DB 00H		; std::numeric_limits<unsigned long>::is_signed
CONST	ENDS
;	COMDAT ?digits10@?$numeric_limits@J@std@@2HB
CONST	SEGMENT
?digits10@?$numeric_limits@J@std@@2HB DD 09H		; std::numeric_limits<long>::digits10
CONST	ENDS
;	COMDAT ?digits@?$numeric_limits@J@std@@2HB
CONST	SEGMENT
?digits@?$numeric_limits@J@std@@2HB DD 01fH		; std::numeric_limits<long>::digits
CONST	ENDS
;	COMDAT ?is_signed@?$numeric_limits@J@std@@2_NB
CONST	SEGMENT
?is_signed@?$numeric_limits@J@std@@2_NB DB 01H		; std::numeric_limits<long>::is_signed
CONST	ENDS
;	COMDAT ?digits10@?$numeric_limits@I@std@@2HB
CONST	SEGMENT
?digits10@?$numeric_limits@I@std@@2HB DD 09H		; std::numeric_limits<unsigned int>::digits10
CONST	ENDS
;	COMDAT ?digits@?$numeric_limits@I@std@@2HB
CONST	SEGMENT
?digits@?$numeric_limits@I@std@@2HB DD 020H		; std::numeric_limits<unsigned int>::digits
CONST	ENDS
;	COMDAT ?is_signed@?$numeric_limits@I@std@@2_NB
CONST	SEGMENT
?is_signed@?$numeric_limits@I@std@@2_NB DB 00H		; std::numeric_limits<unsigned int>::is_signed
CONST	ENDS
;	COMDAT ?digits10@?$numeric_limits@H@std@@2HB
CONST	SEGMENT
?digits10@?$numeric_limits@H@std@@2HB DD 09H		; std::numeric_limits<int>::digits10
CONST	ENDS
;	COMDAT ?digits@?$numeric_limits@H@std@@2HB
CONST	SEGMENT
?digits@?$numeric_limits@H@std@@2HB DD 01fH		; std::numeric_limits<int>::digits
CONST	ENDS
;	COMDAT ?value@?$_Sizeof@HU_Nil@std@@U12@U12@U12@U12@U12@U12@@std@@2IB
CONST	SEGMENT
?value@?$_Sizeof@HU_Nil@std@@U12@U12@U12@U12@U12@U12@@std@@2IB DD 01H ; std::_Sizeof<int,std::_Nil,std::_Nil,std::_Nil,std::_Nil,std::_Nil,std::_Nil,std::_Nil>::value
CONST	ENDS
;	COMDAT ?is_signed@?$numeric_limits@H@std@@2_NB
CONST	SEGMENT
?is_signed@?$numeric_limits@H@std@@2_NB DB 01H		; std::numeric_limits<int>::is_signed
CONST	ENDS
;	COMDAT ?digits10@?$numeric_limits@G@std@@2HB
CONST	SEGMENT
?digits10@?$numeric_limits@G@std@@2HB DD 04H		; std::numeric_limits<unsigned short>::digits10
CONST	ENDS
;	COMDAT ?digits@?$numeric_limits@G@std@@2HB
CONST	SEGMENT
?digits@?$numeric_limits@G@std@@2HB DD 010H		; std::numeric_limits<unsigned short>::digits
CONST	ENDS
;	COMDAT ?is_signed@?$numeric_limits@G@std@@2_NB
CONST	SEGMENT
?is_signed@?$numeric_limits@G@std@@2_NB DB 00H		; std::numeric_limits<unsigned short>::is_signed
CONST	ENDS
;	COMDAT ?digits10@?$numeric_limits@F@std@@2HB
CONST	SEGMENT
?digits10@?$numeric_limits@F@std@@2HB DD 04H		; std::numeric_limits<short>::digits10
CONST	ENDS
;	COMDAT ?digits@?$numeric_limits@F@std@@2HB
CONST	SEGMENT
?digits@?$numeric_limits@F@std@@2HB DD 0fH		; std::numeric_limits<short>::digits
CONST	ENDS
;	COMDAT ?is_signed@?$numeric_limits@F@std@@2_NB
CONST	SEGMENT
?is_signed@?$numeric_limits@F@std@@2_NB DB 01H		; std::numeric_limits<short>::is_signed
CONST	ENDS
;	COMDAT ?value@?$integral_constant@_N$00@std@@2_NB
CONST	SEGMENT
?value@?$integral_constant@_N$00@std@@2_NB DB 01H	; std::integral_constant<bool,1>::value
CONST	ENDS
;	COMDAT ?digits10@?$numeric_limits@E@std@@2HB
CONST	SEGMENT
?digits10@?$numeric_limits@E@std@@2HB DD 02H		; std::numeric_limits<unsigned char>::digits10
CONST	ENDS
;	COMDAT ?digits@?$numeric_limits@E@std@@2HB
CONST	SEGMENT
?digits@?$numeric_limits@E@std@@2HB DD 08H		; std::numeric_limits<unsigned char>::digits
CONST	ENDS
;	COMDAT ?value@?$integral_constant@_N$0A@@std@@2_NB
CONST	SEGMENT
?value@?$integral_constant@_N$0A@@std@@2_NB DB 00H	; std::integral_constant<bool,0>::value
CONST	ENDS
;	COMDAT ?is_signed@?$numeric_limits@E@std@@2_NB
CONST	SEGMENT
?is_signed@?$numeric_limits@E@std@@2_NB DB 00H		; std::numeric_limits<unsigned char>::is_signed
CONST	ENDS
;	COMDAT ?digits10@?$numeric_limits@C@std@@2HB
CONST	SEGMENT
?digits10@?$numeric_limits@C@std@@2HB DD 02H		; std::numeric_limits<signed char>::digits10
CONST	ENDS
;	COMDAT ?digits@?$numeric_limits@C@std@@2HB
CONST	SEGMENT
?digits@?$numeric_limits@C@std@@2HB DD 07H		; std::numeric_limits<signed char>::digits
CONST	ENDS
;	COMDAT ?is_signed@?$numeric_limits@C@std@@2_NB
CONST	SEGMENT
?is_signed@?$numeric_limits@C@std@@2_NB DB 01H		; std::numeric_limits<signed char>::is_signed
CONST	ENDS
CONST	SEGMENT
_L_2	DD	03f317218r			; 0.693147
_NEAR_CLIP DD	03f800000r			; 1
CONST	ENDS
;	COMDAT ?digits10@?$numeric_limits@_N@std@@2HB
CONST	SEGMENT
?digits10@?$numeric_limits@_N@std@@2HB DD 00H		; std::numeric_limits<bool>::digits10
CONST	ENDS
;	COMDAT ?digits@?$numeric_limits@_N@std@@2HB
CONST	SEGMENT
?digits@?$numeric_limits@_N@std@@2HB DD 01H		; std::numeric_limits<bool>::digits
CONST	ENDS
;	COMDAT ?is_signed@?$numeric_limits@_N@std@@2_NB
CONST	SEGMENT
?is_signed@?$numeric_limits@_N@std@@2_NB DB 00H		; std::numeric_limits<bool>::is_signed
CONST	ENDS
;	COMDAT ?is_modulo@?$numeric_limits@_N@std@@2_NB
CONST	SEGMENT
?is_modulo@?$numeric_limits@_N@std@@2_NB DB 00H		; std::numeric_limits<bool>::is_modulo
CONST	ENDS
;	COMDAT ?digits10@?$numeric_limits@_W@std@@2HB
CONST	SEGMENT
?digits10@?$numeric_limits@_W@std@@2HB DD 04H		; std::numeric_limits<wchar_t>::digits10
CONST	ENDS
;	COMDAT ?digits@?$numeric_limits@_W@std@@2HB
CONST	SEGMENT
?digits@?$numeric_limits@_W@std@@2HB DD 010H		; std::numeric_limits<wchar_t>::digits
CONST	ENDS
;	COMDAT ?is_signed@?$numeric_limits@_W@std@@2_NB
CONST	SEGMENT
?is_signed@?$numeric_limits@_W@std@@2_NB DB 00H		; std::numeric_limits<wchar_t>::is_signed
CONST	ENDS
;	COMDAT ?digits10@?$numeric_limits@D@std@@2HB
CONST	SEGMENT
?digits10@?$numeric_limits@D@std@@2HB DD 02H		; std::numeric_limits<char>::digits10
CONST	ENDS
;	COMDAT ?digits@?$numeric_limits@D@std@@2HB
CONST	SEGMENT
?digits@?$numeric_limits@D@std@@2HB DD 07H		; std::numeric_limits<char>::digits
CONST	ENDS
;	COMDAT ?is_signed@?$numeric_limits@D@std@@2_NB
CONST	SEGMENT
?is_signed@?$numeric_limits@D@std@@2_NB DB 01H		; std::numeric_limits<char>::is_signed
CONST	ENDS
;	COMDAT ?radix@_Num_float_base@std@@2HB
CONST	SEGMENT
?radix@_Num_float_base@std@@2HB DD 02H			; std::_Num_float_base::radix
CONST	ENDS
;	COMDAT ?round_style@_Num_float_base@std@@2W4float_round_style@2@B
CONST	SEGMENT
?round_style@_Num_float_base@std@@2W4float_round_style@2@B DD 01H ; std::_Num_float_base::round_style
CONST	ENDS
;	COMDAT ?traps@_Num_float_base@std@@2_NB
CONST	SEGMENT
?traps@_Num_float_base@std@@2_NB DB 00H			; std::_Num_float_base::traps
CONST	ENDS
;	COMDAT ?tinyness_before@_Num_float_base@std@@2_NB
CONST	SEGMENT
?tinyness_before@_Num_float_base@std@@2_NB DB 01H	; std::_Num_float_base::tinyness_before
CONST	ENDS
;	COMDAT ?is_specialized@_Num_float_base@std@@2_NB
CONST	SEGMENT
?is_specialized@_Num_float_base@std@@2_NB DB 01H	; std::_Num_float_base::is_specialized
CONST	ENDS
;	COMDAT ?is_signed@_Num_float_base@std@@2_NB
CONST	SEGMENT
?is_signed@_Num_float_base@std@@2_NB DB 01H		; std::_Num_float_base::is_signed
CONST	ENDS
;	COMDAT ?is_modulo@_Num_float_base@std@@2_NB
CONST	SEGMENT
?is_modulo@_Num_float_base@std@@2_NB DB 00H		; std::_Num_float_base::is_modulo
CONST	ENDS
;	COMDAT ?table_size@?$ctype@D@std@@2IB
CONST	SEGMENT
?table_size@?$ctype@D@std@@2IB DD 0100H			; std::ctype<char>::table_size
CONST	ENDS
;	COMDAT ?is_integer@_Num_float_base@std@@2_NB
CONST	SEGMENT
?is_integer@_Num_float_base@std@@2_NB DB 00H		; std::_Num_float_base::is_integer
CONST	ENDS
;	COMDAT ?is_iec559@_Num_float_base@std@@2_NB
CONST	SEGMENT
?is_iec559@_Num_float_base@std@@2_NB DB 01H		; std::_Num_float_base::is_iec559
CONST	ENDS
;	COMDAT ?is_exact@_Num_float_base@std@@2_NB
CONST	SEGMENT
?is_exact@_Num_float_base@std@@2_NB DB 00H		; std::_Num_float_base::is_exact
CONST	ENDS
;	COMDAT ?is_bounded@_Num_float_base@std@@2_NB
CONST	SEGMENT
?is_bounded@_Num_float_base@std@@2_NB DB 01H		; std::_Num_float_base::is_bounded
CONST	ENDS
;	COMDAT ?has_signaling_NaN@_Num_float_base@std@@2_NB
CONST	SEGMENT
?has_signaling_NaN@_Num_float_base@std@@2_NB DB 01H	; std::_Num_float_base::has_signaling_NaN
CONST	ENDS
;	COMDAT ?has_quiet_NaN@_Num_float_base@std@@2_NB
CONST	SEGMENT
?has_quiet_NaN@_Num_float_base@std@@2_NB DB 01H		; std::_Num_float_base::has_quiet_NaN
CONST	ENDS
;	COMDAT ?has_infinity@_Num_float_base@std@@2_NB
CONST	SEGMENT
?has_infinity@_Num_float_base@std@@2_NB DB 01H		; std::_Num_float_base::has_infinity
CONST	ENDS
;	COMDAT ?CMPDIRTYDATA_INTERVAL@FalconEntity@@2KB
CONST	SEGMENT
?CMPDIRTYDATA_INTERVAL@FalconEntity@@2KB DD 0c8H	; FalconEntity::CMPDIRTYDATA_INTERVAL
CONST	ENDS
;	COMDAT ?SIMDIRTYDATA_INTERVAL@FalconEntity@@2KB
CONST	SEGMENT
?SIMDIRTYDATA_INTERVAL@FalconEntity@@2KB DD 0c8H	; FalconEntity::SIMDIRTYDATA_INTERVAL
CONST	ENDS
;	COMDAT ?has_denorm_loss@_Num_float_base@std@@2_NB
CONST	SEGMENT
?has_denorm_loss@_Num_float_base@std@@2_NB DB 01H	; std::_Num_float_base::has_denorm_loss
CONST	ENDS
;	COMDAT ?has_denorm@_Num_float_base@std@@2W4float_denorm_style@2@B
CONST	SEGMENT
?has_denorm@_Num_float_base@std@@2W4float_denorm_style@2@B DD 01H ; std::_Num_float_base::has_denorm
CONST	ENDS
;	COMDAT ?radix@_Num_int_base@std@@2HB
CONST	SEGMENT
?radix@_Num_int_base@std@@2HB DD 02H			; std::_Num_int_base::radix
CONST	ENDS
;	COMDAT ?is_specialized@_Num_int_base@std@@2_NB
CONST	SEGMENT
?is_specialized@_Num_int_base@std@@2_NB DB 01H		; std::_Num_int_base::is_specialized
CONST	ENDS
;	COMDAT ?is_modulo@_Num_int_base@std@@2_NB
CONST	SEGMENT
?is_modulo@_Num_int_base@std@@2_NB DB 01H		; std::_Num_int_base::is_modulo
CONST	ENDS
;	COMDAT ?is_integer@_Num_int_base@std@@2_NB
CONST	SEGMENT
?is_integer@_Num_int_base@std@@2_NB DB 01H		; std::_Num_int_base::is_integer
CONST	ENDS
;	COMDAT ?is_exact@_Num_int_base@std@@2_NB
CONST	SEGMENT
?is_exact@_Num_int_base@std@@2_NB DB 01H		; std::_Num_int_base::is_exact
CONST	ENDS
;	COMDAT ?is_bounded@_Num_int_base@std@@2_NB
CONST	SEGMENT
?is_bounded@_Num_int_base@std@@2_NB DB 01H		; std::_Num_int_base::is_bounded
CONST	ENDS
;	COMDAT ?radix@_Num_base@std@@2HB
CONST	SEGMENT
?radix@_Num_base@std@@2HB DD 00H			; std::_Num_base::radix
CONST	ENDS
;	COMDAT ?min_exponent10@_Num_base@std@@2HB
CONST	SEGMENT
?min_exponent10@_Num_base@std@@2HB DD 00H		; std::_Num_base::min_exponent10
CONST	ENDS
;	COMDAT ?min_exponent@_Num_base@std@@2HB
CONST	SEGMENT
?min_exponent@_Num_base@std@@2HB DD 00H			; std::_Num_base::min_exponent
CONST	ENDS
;	COMDAT ?max_exponent10@_Num_base@std@@2HB
CONST	SEGMENT
?max_exponent10@_Num_base@std@@2HB DD 00H		; std::_Num_base::max_exponent10
CONST	ENDS
;	COMDAT ?max_exponent@_Num_base@std@@2HB
CONST	SEGMENT
?max_exponent@_Num_base@std@@2HB DD 00H			; std::_Num_base::max_exponent
CONST	ENDS
_DATA	SEGMENT
_matrix44_ident DD 03f800000r			; 1
	DD	000000000r			; 0
	DD	000000000r			; 0
	DD	000000000r			; 0
	DD	000000000r			; 0
	DD	03f800000r			; 1
	DD	000000000r			; 0
	DD	000000000r			; 0
	DD	000000000r			; 0
	DD	000000000r			; 0
	DD	03f800000r			; 1
	DD	000000000r			; 0
	DD	000000000r			; 0
	DD	000000000r			; 0
	DD	000000000r			; 0
	DD	03f800000r			; 1
_cloudPntList DD 0c5bcc000r			; -6040
	DD	0c4070000r			; -540
	DD	0c694ac00r			; -19030
	DD	0c6de1c00r			; -28430
	DD	0c4dfc000r			; -1790
	DD	046dcc800r			; 28260
	DD	047104200r			; 36930
	DD	045732000r			; 3890
	DD	04744ea00r			; 50410
	DD	045336000r			; 2870
	DD	0c4d48000r			; -1700
	DD	04736da00r			; 46810
	DD	0c763ee00r			; -58350
	DD	0c4d48000r			; -1700
	DD	0c64c1000r			; -13060
	DD	046f2bc00r			; 31070
	DD	045480000r			; 3200
	DD	0c7293800r			; -43320
	DD	0c7bdc400r			; -97160
	DD	0c4d48000r			; -1700
	DD	04576e000r			; 3950
	DD	0c792e000r			; -75200
	DD	0c4bb8000r			; -1500
	DD	047957400r			; 76520
	DD	04759ee00r			; 55790
	DD	0c5a1e000r			; -5180
	DD	0c7a24e00r			; -83100
	DD	0c7473800r			; -51000
	DD	0c3a00000r			; -320
	DD	0c7829100r			; -66850
	DD	047733400r			; 62260
	DD	0c3a00000r			; -320
	DD	047708200r			; 61570
	DD	0c7710e00r			; -61710
	DD	0c550c000r			; -3340
	DD	046fb7c00r			; 32190
	DD	0c7719a00r			; -61850
	DD	0c7483200r			; -51250
	DD	047543a00r			; 54330
	DD	0c5bcc000r			; -6040
	DD	0c7495400r			; -51540
	DD	0c694ac00r			; -19030
	DD	0c6a7a800r			; -21460
	DD	0c74b0200r			; -51970
	DD	0468e8000r			; 18240
	DD	047298800r			; 43400
	DD	0c74bf200r			; -52210
	DD	046bc7000r			; 24120
	DD	0c749f400r			; -51700
	DD	0c74bc000r			; -52160
	DD	046948400r			; 19010
	DD	0c605e800r			; -8570
	DD	0c7488200r			; -51330
	DD	0c74ca600r			; -52390
	DD	04731bc00r			; 45500
	DD	0c7509800r			; -53400
	DD	0c6725800r			; -15510
	DD	0c7719a00r			; -61850
	DD	0c7483200r			; -51250
	DD	047543a00r			; 54330
	DD	047553400r			; 54580
	DD	0c74ddc00r			; -52700
	DD	0479a5600r			; 79020
	DD	047a7e400r			; 85960
	DD	0c74c5600r			; -52310
	DD	0477d4800r			; 64840
	DD	0c7c44500r			; -100490
	DD	0c74d1400r			; -52500
	DD	047ac2600r			; 88140
	DD	0c7a1ae00r			; -82780
	DD	0c749ea00r			; -51690
	DD	0c7bce300r			; -96710
	DD	0c6126800r			; -9370
	DD	0c7495400r			; -51540
	DD	043cd0000r			; 410
	DD	0c6a7a800r			; -21460
	DD	0c74a8a00r			; -51850
	DD	0473fae00r			; 49070
	DD	0457c8000r			; 4040
	DD	0c74e4a00r			; -52810
	DD	047871e00r			; 69180
	DD	0c6cbc000r			; -26080
	DD	0c74bc000r			; -52160
	DD	046984400r			; 19490
	DD	0452fa000r			; 2810
	DD	0c7488200r			; -51330
	DD	0c7081800r			; -34840
	DD	0c7719a00r			; -61850
	DD	0c749d600r			; -51670
	DD	047b17600r			; 90860
	DD	047553400r			; 54580
	DD	0c74ddc00r			; -52700
	DD	0479a5600r			; 79020
	DD	047a7e400r			; 85960
	DD	0c74c5600r			; -52310
	DD	0477d4800r			; 64840
	DD	0c7c44500r			; -100490
	DD	0c74d1400r			; -52500
	DD	047ac2600r			; 88140
	DD	047c04e00r			; 98460
	DD	0c74d1400r			; -52500
	DD	0c732a200r			; -45730
	DD	0467b9000r			; 16100
	DD	0c7487800r			; -51320
	DD	0c749a400r			; -51620
	DD	047636c00r			; 58220
	DD	0c74e0400r			; -52740
	DD	0c760b000r			; -57520
	DD	0c6126800r			; -9370
	DD	0c4070000r			; -540
	DD	043cd0000r			; 410
	DD	0c4e60000r			; -1840
	DD	0c6a30c00r			; -20870
	DD	0470a6600r			; 35430
	DD	0c7230c00r			; -41740
	DD	046924000r			; 18720
	DD	04797d600r			; 77740
	DD	0460d9000r			; 9060
	DD	0c616c800r			; -9650
	DD	0c7921300r			; -74790
_lightningPosList DD 041300000r			; 11
	DD	000000000r			; 0
	DD	040e00000r			; 7
	DD	040a00000r			; 5
	DD	041100000r			; 9
	DD	041000000r			; 8
	DD	041000000r			; 8
	DD	041600000r			; 14
	DD	041800000r			; 16
	DD	041a00000r			; 20
	DD	041200000r			; 10
	DD	041c00000r			; 24
	DD	041300000r			; 11
	DD	041d80000r			; 27
	DD	040c00000r			; 6
	DD	041f00000r			; 30
	DD	040e00000r			; 7
	DD	042040000r			; 33
	DD	03f800000r			; 1
	DD	042180000r			; 38
	DD	040a00000r			; 5
	DD	042280000r			; 42
	DD	040a00000r			; 5
	DD	042340000r			; 45
	DD	041400000r			; 12
	DD	042400000r			; 48
	DD	041a00000r			; 20
	DD	042500000r			; 52
	DD	041a00000r			; 20
	DD	042680000r			; 58
	DD	041b80000r			; 23
	DD	042740000r			; 61
	DD	041b00000r			; 22
	DD	0427c0000r			; 63
	DD	041b00000r			; 22
	DD	042840000r			; 66
	DD	041c80000r			; 25
	DD	042880000r			; 68
	DD	041a00000r			; 20
	DD	0428c0000r			; 70
	DD	041c00000r			; 24
	DD	042960000r			; 75
	DD	041c00000r			; 24
	DD	0429a0000r			; 77
	DD	041f80000r			; 31
	DD	042a00000r			; 80
	DD	041f80000r			; 31
	DD	042a60000r			; 83
	DD	042040000r			; 33
	DD	042b00000r			; 88
	DD	041f80000r			; 31
	DD	042b80000r			; 92
	DD	0423c0000r			; 47
	DD	042ce0000r			; 103
	DD	042380000r			; 46
	DD	042d20000r			; 105
	DD	0423c0000r			; 47
	DD	042d60000r			; 107
	DD	042340000r			; 45
	DD	042e00000r			; 112
	DD	042400000r			; 48
	DD	042e40000r			; 114
	DD	042380000r			; 46
	DD	042ea0000r			; 117
	DD	0422c0000r			; 43
	DD	043000000r			; 128
_matrix33_ident DD 03f800000r			; 1
	DD	000000000r			; 0
	DD	000000000r			; 0
	DD	000000000r			; 0
	DD	03f800000r			; 1
	DD	000000000r			; 0
	DD	000000000r			; 0
	DD	000000000r			; 0
	DD	03f800000r			; 1
_DATA	ENDS
;	COMDAT ?max_digits10@_Num_base@std@@2HB
CONST	SEGMENT
?max_digits10@_Num_base@std@@2HB DD 00H			; std::_Num_base::max_digits10
CONST	ENDS
;	COMDAT ?digits10@_Num_base@std@@2HB
CONST	SEGMENT
?digits10@_Num_base@std@@2HB DD 00H			; std::_Num_base::digits10
CONST	ENDS
;	COMDAT ?digits@_Num_base@std@@2HB
CONST	SEGMENT
?digits@_Num_base@std@@2HB DD 00H			; std::_Num_base::digits
CONST	ENDS
;	COMDAT ?round_style@_Num_base@std@@2W4float_round_style@2@B
CONST	SEGMENT
?round_style@_Num_base@std@@2W4float_round_style@2@B DD 00H ; std::_Num_base::round_style
CONST	ENDS
;	COMDAT ?traps@_Num_base@std@@2_NB
CONST	SEGMENT
?traps@_Num_base@std@@2_NB DB 00H			; std::_Num_base::traps
CONST	ENDS
PUBLIC	_cosf
PUBLIC	?cos@@YAMM@Z					; cos
PUBLIC	?Id@VuEntity@@QBE?AVVU_ID@@XZ			; VuEntity::Id
PUBLIC	?Type@VuEntity@@QBEGXZ				; VuEntity::Type
PUBLIC	?XPos@VuEntity@@QBEMXZ				; VuEntity::XPos
PUBLIC	?YPos@VuEntity@@QBEMXZ				; VuEntity::YPos
PUBLIC	?ZPos@VuEntity@@QBEMXZ				; VuEntity::ZPos
PUBLIC	?EntityType@VuEntity@@QBEPAUVuEntityType@@XZ	; VuEntity::EntityType
PUBLIC	??2@YAPAXIPAX@Z					; operator new
PUBLIC	??3@YAXPAX0@Z					; operator delete
PUBLIC	?length@?$char_traits@D@std@@SAIPBD@Z		; std::char_traits<char>::length
PUBLIC	?copy@?$char_traits@D@std@@SAPADPADPBDI@Z	; std::char_traits<char>::copy
PUBLIC	?move@?$char_traits@D@std@@SAPADPADPBDI@Z	; std::char_traits<char>::move
PUBLIC	?assign@?$char_traits@D@std@@SAXAADABD@Z	; std::char_traits<char>::assign
PUBLIC	??0?$allocator@D@std@@QAE@XZ			; std::allocator<char>::allocator<char>
PUBLIC	?deallocate@?$allocator@D@std@@QAEXPADI@Z	; std::allocator<char>::deallocate
PUBLIC	?allocate@?$allocator@D@std@@QAEPADI@Z		; std::allocator<char>::allocate
PUBLIC	?max_size@?$allocator@D@std@@QBEIXZ		; std::allocator<char>::max_size
PUBLIC	?max_size@?$allocator_traits@V?$allocator@D@std@@@std@@SAIABV?$allocator@D@2@@Z ; std::allocator_traits<std::allocator<char> >::max_size
PUBLIC	??0?$_Wrap_alloc@V?$allocator@D@std@@@std@@QAE@XZ ; std::_Wrap_alloc<std::allocator<char> >::_Wrap_alloc<std::allocator<char> >
PUBLIC	?allocate@?$_Wrap_alloc@V?$allocator@D@std@@@std@@QAEPADI@Z ; std::_Wrap_alloc<std::allocator<char> >::allocate
PUBLIC	?deallocate@?$_Wrap_alloc@V?$allocator@D@std@@@std@@QAEXPADI@Z ; std::_Wrap_alloc<std::allocator<char> >::deallocate
PUBLIC	?max_size@?$_Wrap_alloc@V?$allocator@D@std@@@std@@QBEIXZ ; std::_Wrap_alloc<std::allocator<char> >::max_size
PUBLIC	??0?$_String_val@U?$_Simple_types@D@std@@@std@@QAE@XZ ; std::_String_val<std::_Simple_types<char> >::_String_val<std::_Simple_types<char> >
PUBLIC	?_Myptr@?$_String_val@U?$_Simple_types@D@std@@@std@@QAEPADXZ ; std::_String_val<std::_Simple_types<char> >::_Myptr
PUBLIC	?_Myptr@?$_String_val@U?$_Simple_types@D@std@@@std@@QBEPBDXZ ; std::_String_val<std::_Simple_types<char> >::_Myptr
PUBLIC	??0?$_String_alloc@$0A@U?$_String_base_types@DV?$allocator@D@std@@@std@@@std@@QAE@ABV?$allocator@D@1@@Z ; std::_String_alloc<0,std::_String_base_types<char,std::allocator<char> > >::_String_alloc<0,std::_String_base_types<char,std::allocator<char> > >
PUBLIC	?_Getal@?$_String_alloc@$0A@U?$_String_base_types@DV?$allocator@D@std@@@std@@@std@@QBE?AU?$_Wrap_alloc@V?$allocator@D@std@@@2@XZ ; std::_String_alloc<0,std::_String_base_types<char,std::allocator<char> > >::_Getal
PUBLIC	??0?$basic_string@DU?$char_traits@D@std@@V?$allocator@D@2@@std@@QAE@PBD@Z ; std::basic_string<char,std::char_traits<char>,std::allocator<char> >::basic_string<char,std::char_traits<char>,std::allocator<char> >
PUBLIC	?assign@?$basic_string@DU?$char_traits@D@std@@V?$allocator@D@2@@std@@QAEAAV12@ABV12@II@Z ; std::basic_string<char,std::char_traits<char>,std::allocator<char> >::assign
PUBLIC	?assign@?$basic_string@DU?$char_traits@D@std@@V?$allocator@D@2@@std@@QAEAAV12@PBDI@Z ; std::basic_string<char,std::char_traits<char>,std::allocator<char> >::assign
PUBLIC	?assign@?$basic_string@DU?$char_traits@D@std@@V?$allocator@D@2@@std@@QAEAAV12@PBD@Z ; std::basic_string<char,std::char_traits<char>,std::allocator<char> >::assign
PUBLIC	?erase@?$basic_string@DU?$char_traits@D@std@@V?$allocator@D@2@@std@@QAEAAV12@I@Z ; std::basic_string<char,std::char_traits<char>,std::allocator<char> >::erase
PUBLIC	?erase@?$basic_string@DU?$char_traits@D@std@@V?$allocator@D@2@@std@@QAEAAV12@II@Z ; std::basic_string<char,std::char_traits<char>,std::allocator<char> >::erase
PUBLIC	?size@?$basic_string@DU?$char_traits@D@std@@V?$allocator@D@2@@std@@QBEIXZ ; std::basic_string<char,std::char_traits<char>,std::allocator<char> >::size
PUBLIC	?max_size@?$basic_string@DU?$char_traits@D@std@@V?$allocator@D@2@@std@@QBEIXZ ; std::basic_string<char,std::char_traits<char>,std::allocator<char> >::max_size
PUBLIC	?_Copy@?$basic_string@DU?$char_traits@D@std@@V?$allocator@D@2@@std@@QAEXII@Z ; std::basic_string<char,std::char_traits<char>,std::allocator<char> >::_Copy
PUBLIC	?_Eos@?$basic_string@DU?$char_traits@D@std@@V?$allocator@D@2@@std@@QAEXI@Z ; std::basic_string<char,std::char_traits<char>,std::allocator<char> >::_Eos
PUBLIC	?_Grow@?$basic_string@DU?$char_traits@D@std@@V?$allocator@D@2@@std@@QAE_NI_N@Z ; std::basic_string<char,std::char_traits<char>,std::allocator<char> >::_Grow
PUBLIC	?_Inside@?$basic_string@DU?$char_traits@D@std@@V?$allocator@D@2@@std@@QAE_NPBD@Z ; std::basic_string<char,std::char_traits<char>,std::allocator<char> >::_Inside
PUBLIC	?_Tidy@?$basic_string@DU?$char_traits@D@std@@V?$allocator@D@2@@std@@QAEX_NI@Z ; std::basic_string<char,std::char_traits<char>,std::allocator<char> >::_Tidy
PUBLIC	?_Xlen@?$basic_string@DU?$char_traits@D@std@@V?$allocator@D@2@@std@@QBEXXZ ; std::basic_string<char,std::char_traits<char>,std::allocator<char> >::_Xlen
PUBLIC	?_Xran@?$basic_string@DU?$char_traits@D@std@@V?$allocator@D@2@@std@@QBEXXZ ; std::basic_string<char,std::char_traits<char>,std::allocator<char> >::_Xran
PUBLIC	??B?$VuBin@VVuSessionEntity@@@@QBE_NXZ		; VuBin<VuSessionEntity>::operator bool
PUBLIC	?get@?$VuBin@VVuSessionEntity@@@@QBEPAVVuSessionEntity@@XZ ; VuBin<VuSessionEntity>::get
PUBLIC	?IsSim@FalconEntity@@QAEHXZ			; FalconEntity::IsSim
PUBLIC	?IsSetFalcFlag@FalconEntity@@QAEHH@Z		; FalconEntity::IsSetFalcFlag
PUBLIC	??0id@locale@std@@QAE@I@Z			; std::locale::id::id
PUBLIC	?generic_category@std@@YAABVerror_category@1@XZ	; std::generic_category
PUBLIC	?system_category@std@@YAABVerror_category@1@XZ	; std::system_category
PUBLIC	??0error_category@std@@QAE@XZ			; std::error_category::error_category
PUBLIC	??1error_category@std@@UAE@XZ			; std::error_category::~error_category
PUBLIC	?default_error_condition@error_category@std@@UBE?AVerror_condition@2@H@Z ; std::error_category::default_error_condition
PUBLIC	?equivalent@error_category@std@@UBE_NHABVerror_condition@2@@Z ; std::error_category::equivalent
PUBLIC	?equivalent@error_category@std@@UBE_NABVerror_code@2@H@Z ; std::error_category::equivalent
PUBLIC	??8error_category@std@@QBE_NABV01@@Z		; std::error_category::operator==
PUBLIC	??_Gerror_category@std@@UAEPAXI@Z		; std::error_category::`scalar deleting destructor'
PUBLIC	?value@error_code@std@@QBEHXZ			; std::error_code::value
PUBLIC	?category@error_code@std@@QBEABVerror_category@2@XZ ; std::error_code::category
PUBLIC	??0error_condition@std@@QAE@HABVerror_category@1@@Z ; std::error_condition::error_condition
PUBLIC	?value@error_condition@std@@QBEHXZ		; std::error_condition::value
PUBLIC	?category@error_condition@std@@QBEABVerror_category@2@XZ ; std::error_condition::category
PUBLIC	??8error_condition@std@@QBE_NABV01@@Z		; std::error_condition::operator==
PUBLIC	??0_Generic_error_category@std@@QAE@XZ		; std::_Generic_error_category::_Generic_error_category
PUBLIC	?name@_Generic_error_category@std@@UBEPBDXZ	; std::_Generic_error_category::name
PUBLIC	?message@_Generic_error_category@std@@UBE?AV?$basic_string@DU?$char_traits@D@std@@V?$allocator@D@2@@2@H@Z ; std::_Generic_error_category::message
PUBLIC	??1_Generic_error_category@std@@UAE@XZ		; std::_Generic_error_category::~_Generic_error_category
PUBLIC	??_G_Generic_error_category@std@@UAEPAXI@Z	; std::_Generic_error_category::`scalar deleting destructor'
PUBLIC	??0_Iostream_error_category@std@@QAE@XZ		; std::_Iostream_error_category::_Iostream_error_category
PUBLIC	?name@_Iostream_error_category@std@@UBEPBDXZ	; std::_Iostream_error_category::name
PUBLIC	?message@_Iostream_error_category@std@@UBE?AV?$basic_string@DU?$char_traits@D@std@@V?$allocator@D@2@@2@H@Z ; std::_Iostream_error_category::message
PUBLIC	??1_Iostream_error_category@std@@UAE@XZ		; std::_Iostream_error_category::~_Iostream_error_category
PUBLIC	??_G_Iostream_error_category@std@@UAEPAXI@Z	; std::_Iostream_error_category::`scalar deleting destructor'
PUBLIC	??0_System_error_category@std@@QAE@XZ		; std::_System_error_category::_System_error_category
PUBLIC	?name@_System_error_category@std@@UBEPBDXZ	; std::_System_error_category::name
PUBLIC	?message@_System_error_category@std@@UBE?AV?$basic_string@DU?$char_traits@D@std@@V?$allocator@D@2@@2@H@Z ; std::_System_error_category::message
PUBLIC	?default_error_condition@_System_error_category@std@@UBE?AVerror_condition@2@H@Z ; std::_System_error_category::default_error_condition
PUBLIC	??1_System_error_category@std@@UAE@XZ		; std::_System_error_category::~_System_error_category
PUBLIC	??_G_System_error_category@std@@UAEPAXI@Z	; std::_System_error_category::`scalar deleting destructor'
PUBLIC	?GetPadlockMode@PlayerOptionsClass@@QAEHXZ	; PlayerOptionsClass::GetPadlockMode
PUBLIC	?get@?$VuBin@VCampBaseClass@@@@QBEPAVCampBaseClass@@XZ ; VuBin<CampBaseClass>::get
PUBLIC	?GetCampaignObject@SimBaseClass@@QAEPAVCampBaseClass@@XZ ; SimBaseClass::GetCampaignObject
PUBLIC	?get@?$VuBin@VFalconEntity@@@@QBEPAVFalconEntity@@XZ ; VuBin<FalconEntity>::get
PUBLIC	??B?$VuBin@VSimBaseClass@@@@QBE_NXZ		; VuBin<SimBaseClass>::operator bool
PUBLIC	??C?$VuBin@VSimBaseClass@@@@QBEPAVSimBaseClass@@XZ ; VuBin<SimBaseClass>::operator->
PUBLIC	?get@?$VuBin@VSimBaseClass@@@@QBEPAVSimBaseClass@@XZ ; VuBin<SimBaseClass>::get
PUBLIC	?SetmpPadlockPriorityObject@OTWDriverClass@@QAEXPAVSimBaseClass@@@Z ; OTWDriverClass::SetmpPadlockPriorityObject
PUBLIC	?Padlock_FindNextPriority@OTWDriverClass@@AAEXH@Z ; OTWDriverClass::Padlock_FindNextPriority
PUBLIC	?Padlock_FindRealisticPriority@OTWDriverClass@@AAEXH@Z ; OTWDriverClass::Padlock_FindRealisticPriority
PUBLIC	?Padlock_FindEnhancedPriority@OTWDriverClass@@AAEXH@Z ; OTWDriverClass::Padlock_FindEnhancedPriority
PUBLIC	?Padlock_ConsiderThisObject@OTWDriverClass@@AAEHPAVSimBaseClass@@HMMM@Z ; OTWDriverClass::Padlock_ConsiderThisObject
PUBLIC	?Padlock_DetermineRelativePriority@OTWDriverClass@@AAEHPAVSimBaseClass@@MH0MH@Z ; OTWDriverClass::Padlock_DetermineRelativePriority
PUBLIC	?Padlock_CheckPadlock@OTWDriverClass@@AAEXM@Z	; OTWDriverClass::Padlock_CheckPadlock
PUBLIC	?Padlock_CheckOcclusion@OTWDriverClass@@AAEHMM@Z ; OTWDriverClass::Padlock_CheckOcclusion
PUBLIC	?Padlock_RankAGPriority@OTWDriverClass@@AAEHPAVSimBaseClass@@H@Z ; OTWDriverClass::Padlock_RankAGPriority
PUBLIC	?Padlock_RankAAPriority@OTWDriverClass@@AAEHPAVSimBaseClass@@H@Z ; OTWDriverClass::Padlock_RankAAPriority
PUBLIC	?Padlock_RankNAVPriority@OTWDriverClass@@AAEHPAVSimBaseClass@@H@Z ; OTWDriverClass::Padlock_RankNAVPriority
PUBLIC	?Padlock_DrawSquares@OTWDriverClass@@AAEXH@Z	; OTWDriverClass::Padlock_DrawSquares
PUBLIC	?GetGame@FalconSessionEntity@@QAEPAVFalconGameEntity@@XZ ; FalconSessionEntity::GetGame
PUBLIC	?Brain@SimVehicleClass@@QAEPAVBaseBrain@@XZ	; SimVehicleClass::Brain
PUBLIC	?CurrentTarget@SensorClass@@QAEPAVSimObjectType@@XZ ; SensorClass::CurrentTarget
PUBLIC	?BaseData@SimObjectType@@QAEPAVFalconEntity@@XZ	; SimObjectType::BaseData
PUBLIC	?GetMasterMode@FireControlComputer@@QAE?AW4FCCMasterMode@1@XZ ; FireControlComputer::GetMasterMode
PUBLIC	?GetSubMode@FireControlComputer@@QAE?AW4FCCSubMode@1@XZ ; FireControlComputer::GetSubMode
PUBLIC	?GetCurrentMode@DigitalBrain@@QAE?AW4DigiMode@1@XZ ; DigitalBrain::GetCurrentMode
PUBLIC	?GetTopPixel@VirtualDisplay@@QAEMXZ		; VirtualDisplay::GetTopPixel
PUBLIC	?GetBottomPixel@VirtualDisplay@@QAEMXZ		; VirtualDisplay::GetBottomPixel
PUBLIC	?GetLeftPixel@VirtualDisplay@@QAEMXZ		; VirtualDisplay::GetLeftPixel
PUBLIC	?GetRightPixel@VirtualDisplay@@QAEMXZ		; VirtualDisplay::GetRightPixel
PUBLIC	?LabelColor@DrawableBSP@@QAEKXZ			; DrawableBSP::LabelColor
PUBLIC	?ThereIsASun@CTimeOfDay@@QAEHXZ			; CTimeOfDay::ThereIsASun
PUBLIC	??$construct@PADAAPAD@?$_Wrap_alloc@V?$allocator@D@std@@@std@@QAEXPAPADAAPAD@Z ; std::_Wrap_alloc<std::allocator<char> >::construct<char *,char * &>
PUBLIC	??$destroy@PAD@?$_Wrap_alloc@V?$allocator@D@std@@@std@@QAEXPAPAD@Z ; std::_Wrap_alloc<std::allocator<char> >::destroy<char *>
PUBLIC	??$addressof@D@std@@YAPADAAD@Z			; std::addressof<char>
PUBLIC	??$_Allocate@D@std@@YAPADIPAD@Z			; std::_Allocate<char>
PUBLIC	??$forward@AAPAD@std@@YAAAPADAAPAD@Z		; std::forward<char * &>
PUBLIC	??$construct@PADAAPAD@?$allocator_traits@V?$allocator@D@std@@@std@@SAXAAV?$allocator@D@1@PAPADAAPAD@Z ; std::allocator_traits<std::allocator<char> >::construct<char *,char * &>
PUBLIC	??$destroy@PAD@?$allocator_traits@V?$allocator@D@std@@@std@@SAXAAV?$allocator@D@1@PAPAD@Z ; std::allocator_traits<std::allocator<char> >::destroy<char *>
PUBLIC	??$construct@PADAAPAD@?$allocator@D@std@@QAEXPAPADAAPAD@Z ; std::allocator<char>::construct<char *,char * &>
PUBLIC	??$destroy@PAD@?$allocator@D@std@@QAEXPAPAD@Z	; std::allocator<char>::destroy<char *>
PUBLIC	??_7error_category@std@@6B@			; std::error_category::`vftable'
PUBLIC	??_7_Generic_error_category@std@@6B@		; std::_Generic_error_category::`vftable'
PUBLIC	??_C@_07DCLBNMLN@generic?$AA@			; `string'
PUBLIC	??_C@_0O@BFJCFAAK@unknown?5error?$AA@		; `string'
PUBLIC	??_7_Iostream_error_category@std@@6B@		; std::_Iostream_error_category::`vftable'
PUBLIC	??_C@_08LLGCOLLL@iostream?$AA@			; `string'
PUBLIC	??_C@_0BG@PADBLCHM@iostream?5stream?5error?$AA@	; `string'
PUBLIC	??_7_System_error_category@std@@6B@		; std::_System_error_category::`vftable'
PUBLIC	??_C@_06FHFOAHML@system?$AA@			; `string'
PUBLIC	?_Generic_object@?$_Error_objects@H@std@@2V_Generic_error_category@2@A ; std::_Error_objects<int>::_Generic_object
PUBLIC	?_Iostream_object@?$_Error_objects@H@std@@2V_Iostream_error_category@2@A ; std::_Error_objects<int>::_Iostream_object
PUBLIC	?_System_object@?$_Error_objects@H@std@@2V_System_error_category@2@A ; std::_Error_objects<int>::_System_object
PUBLIC	?id@?$num_put@DV?$back_insert_iterator@V?$basic_string@DU?$char_traits@D@std@@V?$allocator@D@2@@std@@@std@@@std@@2V0locale@2@A ; std::num_put<char,std::back_insert_iterator<std::basic_string<char,std::char_traits<char>,std::allocator<char> > > >::id
PUBLIC	?id@?$num_put@_WV?$back_insert_iterator@V?$basic_string@_WU?$char_traits@_W@std@@V?$allocator@_W@2@@std@@@std@@@std@@2V0locale@2@A ; std::num_put<wchar_t,std::back_insert_iterator<std::basic_string<wchar_t,std::char_traits<wchar_t>,std::allocator<wchar_t> > > >::id
PUBLIC	?id@?$numpunct@D@std@@2V0locale@2@A		; std::numpunct<char>::id
PUBLIC	?id@?$numpunct@_W@std@@2V0locale@2@A		; std::numpunct<wchar_t>::id
PUBLIC	??_C@_0BI@CFPLBAOH@invalid?5string?5position?$AA@ ; `string'
PUBLIC	??_C@_0BA@JFNIOLAK@string?5too?5long?$AA@	; `string'
PUBLIC	??_R4error_category@std@@6B@			; std::error_category::`RTTI Complete Object Locator'
PUBLIC	??_R0?AVerror_category@std@@@8			; std::error_category `RTTI Type Descriptor'
PUBLIC	??_R3error_category@std@@8			; std::error_category::`RTTI Class Hierarchy Descriptor'
PUBLIC	??_R2error_category@std@@8			; std::error_category::`RTTI Base Class Array'
PUBLIC	??_R1A@?0A@EA@error_category@std@@8		; std::error_category::`RTTI Base Class Descriptor at (0,-1,0,64)'
PUBLIC	??_R4_Generic_error_category@std@@6B@		; std::_Generic_error_category::`RTTI Complete Object Locator'
PUBLIC	??_R0?AV_Generic_error_category@std@@@8		; std::_Generic_error_category `RTTI Type Descriptor'
PUBLIC	??_R3_Generic_error_category@std@@8		; std::_Generic_error_category::`RTTI Class Hierarchy Descriptor'
PUBLIC	??_R2_Generic_error_category@std@@8		; std::_Generic_error_category::`RTTI Base Class Array'
PUBLIC	??_R1A@?0A@EA@_Generic_error_category@std@@8	; std::_Generic_error_category::`RTTI Base Class Descriptor at (0,-1,0,64)'
PUBLIC	??_R4_Iostream_error_category@std@@6B@		; std::_Iostream_error_category::`RTTI Complete Object Locator'
PUBLIC	??_R0?AV_Iostream_error_category@std@@@8	; std::_Iostream_error_category `RTTI Type Descriptor'
PUBLIC	??_R3_Iostream_error_category@std@@8		; std::_Iostream_error_category::`RTTI Class Hierarchy Descriptor'
PUBLIC	??_R2_Iostream_error_category@std@@8		; std::_Iostream_error_category::`RTTI Base Class Array'
PUBLIC	??_R1A@?0A@EA@_Iostream_error_category@std@@8	; std::_Iostream_error_category::`RTTI Base Class Descriptor at (0,-1,0,64)'
PUBLIC	??_R4_System_error_category@std@@6B@		; std::_System_error_category::`RTTI Complete Object Locator'
PUBLIC	??_R0?AV_System_error_category@std@@@8		; std::_System_error_category `RTTI Type Descriptor'
PUBLIC	??_R3_System_error_category@std@@8		; std::_System_error_category::`RTTI Class Hierarchy Descriptor'
PUBLIC	??_R2_System_error_category@std@@8		; std::_System_error_category::`RTTI Base Class Array'
PUBLIC	??_R1A@?0A@EA@_System_error_category@std@@8	; std::_System_error_category::`RTTI Base Class Descriptor at (0,-1,0,64)'
PUBLIC	__real@00000000
PUBLIC	__real@3e860a91
PUBLIC	__real@3eb2b8c1
PUBLIC	__real@3f000000
PUBLIC	__real@3f1c61a9
PUBLIC	__real@3f400000
PUBLIC	__real@3f800000
PUBLIC	__real@40278d35
PUBLIC	__real@40800000
PUBLIC	__real@40a00000
PUBLIC	__real@42480000
PUBLIC	__real@447a0000
PUBLIC	__real@45bde1b0
PUBLIC	__real@bdb2b8c1
PUBLIC	__real@be860a91
PUBLIC	__real@c0278d35
PUBLIC	__xmm@80000000800000008000000080000000
EXTRN	__purecall:PROC
EXTRN	??2@YAPAXI@Z:PROC				; operator new
EXTRN	??3@YAXPAX@Z:PROC				; operator delete
EXTRN	_atexit:PROC
EXTRN	_memcpy:PROC
EXTRN	_strlen:PROC
EXTRN	_memmove:PROC
EXTRN	_cos:PROC
EXTRN	?F4IsBadReadPtr@@YA_NPBXI@Z:PROC		; F4IsBadReadPtr
EXTRN	?VuReferenceEntity@@YAHPAVVuEntity@@@Z:PROC	; VuReferenceEntity
EXTRN	?VuDeReferenceEntity@@YAHPAVVuEntity@@@Z:PROC	; VuDeReferenceEntity
EXTRN	?_Xbad_alloc@std@@YAXXZ:PROC			; std::_Xbad_alloc
EXTRN	?_Xlength_error@std@@YAXPBD@Z:PROC		; std::_Xlength_error
EXTRN	?_Xout_of_range@std@@YAXPBD@Z:PROC		; std::_Xout_of_range
EXTRN	?Game@VuSessionEntity@@QAEPAVVuGameEntity@@XZ:PROC ; VuSessionEntity::Game
EXTRN	??0VuListIterator@@QAE@PAVVuLinkedList@@@Z:PROC	; VuListIterator::VuListIterator
EXTRN	??1VuListIterator@@UAE@XZ:PROC			; VuListIterator::~VuListIterator
EXTRN	?GetFirst@VuListIterator@@QAEPAVVuEntity@@XZ:PROC ; VuListIterator::GetFirst
EXTRN	?GetNext@VuListIterator@@QAEPAVVuEntity@@XZ:PROC ; VuListIterator::GetNext
EXTRN	??_Eerror_category@std@@UAEPAXI@Z:PROC		; std::error_category::`vector deleting destructor'
EXTRN	?_Syserror_map@std@@YAPBDH@Z:PROC		; std::_Syserror_map
EXTRN	?_Winerror_map@std@@YAPBDH@Z:PROC		; std::_Winerror_map
EXTRN	??_E_Generic_error_category@std@@UAEPAXI@Z:PROC	; std::_Generic_error_category::`vector deleting destructor'
EXTRN	??_E_Iostream_error_category@std@@UAEPAXI@Z:PROC ; std::_Iostream_error_category::`vector deleting destructor'
EXTRN	??_E_System_error_category@std@@UAEPAXI@Z:PROC	; std::_System_error_category::`vector deleting destructor'
EXTRN	?CalcRelAzEl@@YAXPAVSimBaseClass@@MMMPAM1@Z:PROC ; CalcRelAzEl
EXTRN	?CalcRelGeom@@YAXPAVSimBaseClass@@PAVSimObjectType@@QAY02MM@Z:PROC ; CalcRelGeom
EXTRN	?GetOTWDisplayMode@OTWDriverClass@@QAE?AW4OTWDisplayMode@1@XZ:PROC ; OTWDriverClass::GetOTWDisplayMode
EXTRN	?GetGameType@FalconGameEntity@@QAE?AW4FalconGameType@@XZ:PROC ; FalconGameEntity::GetGameType
EXTRN	?SetSpotted@CampBaseClass@@QAEXEKH@Z:PROC	; CampBaseClass::SetSpotted
EXTRN	?GetPlayerAircraft@SimulationDriver@@QBEPAVAircraftClass@@XZ:PROC ; SimulationDriver::GetPlayerAircraft
EXTRN	?FindSensor@@YAPAVSensorClass@@PAVSimMoverClass@@H@Z:PROC ; FindSensor
EXTRN	??0SimObjectType@@QAE@PAVFalconEntity@@@Z:PROC	; SimObjectType::SimObjectType
EXTRN	?Reference@SimObjectType@@QAEXXZ:PROC		; SimObjectType::Reference
EXTRN	?Release@SimObjectType@@QAEXXZ:PROC		; SimObjectType::Release
EXTRN	?TransformPoint@Render3D@@QAEXPAUTpoint@@PAUThreeDVertex@@@Z:PROC ; Render3D::TransformPoint
EXTRN	?SetTarget@MissileClass@@QAEXPAVSimObjectType@@@Z:PROC ; MissileClass::SetTarget
EXTRN	?DropTarget@MissileClass@@QAEXXZ:PROC		; MissileClass::DropTarget
EXTRN	?RunSeeker@MissileClass@@QAEXXZ:PROC		; MissileClass::RunSeeker
EXTRN	?GetFeatureClassData@@YAPAUFeatureClassDataType@@H@Z:PROC ; GetFeatureClassData
EXTRN	?GetLightDirection@CTimeOfDay@@QAEXPAUTpoint@@@Z:PROC ; CTimeOfDay::GetLightDirection
EXTRN	?GetHudColor@HudClass@@QAEKXZ:PROC		; HudClass::GetHudColor
EXTRN	@__security_check_cookie@4:PROC
EXTRN	__CxxThrowException@8:PROC
EXTRN	___CxxFrameHandler3:PROC
EXTRN	?vuLocalSessionEntity@@3V?$VuBin@VVuSessionEntity@@@@A:DWORD ; vuLocalSessionEntity
EXTRN	?FalconNullId@@3VVU_ID@@A:QWORD			; FalconNullId
EXTRN	?SimLibMajorFrameTime@@3MA:DWORD		; SimLibMajorFrameTime
EXTRN	?SimLibElapsedTime@@3KA:DWORD			; SimLibElapsedTime
EXTRN	??_7type_info@@6B@:QWORD			; type_info::`vftable'
EXTRN	?PlayerOptions@@3VPlayerOptionsClass@@A:BYTE	; PlayerOptions
EXTRN	?SimWeaponDataTable@@3PAUSimWeaponDataType@@A:DWORD ; SimWeaponDataTable
EXTRN	?Falcon4ClassTable@@3PAUFalcon4EntityClassType@@A:DWORD ; Falcon4ClassTable
EXTRN	?SimDriver@@3VSimulationDriver@@A:BYTE		; SimDriver
EXTRN	?TheCampaign@@3VCampaignClass@@A:BYTE		; TheCampaign
EXTRN	?TheTimeOfDay@@3VCTimeOfDay@@A:BYTE		; TheTimeOfDay
EXTRN	?TheHud@@3PAVHudClass@@A:DWORD			; TheHud
EXTRN	?g_bNoPadlockBoxes@@3_NA:BYTE			; g_bNoPadlockBoxes
EXTRN	?g_fSunPadlockTimeout@@3MA:DWORD		; g_fSunPadlockTimeout
EXTRN	?g_nPadlockBoxSize@@3HA:DWORD			; g_nPadlockBoxSize
EXTRN	?g_nPadlockMode@@3HA:DWORD			; g_nPadlockMode
EXTRN	?g_nNearLabelLimit@@3HA:DWORD			; g_nNearLabelLimit
EXTRN	?g_fPadlockBreakDistance@@3MA:DWORD		; g_fPadlockBreakDistance
EXTRN	?g_bPadlockHudColor@@3_NA:BYTE			; g_bPadlockHudColor
EXTRN	___security_cookie:DWORD
EXTRN	__fltused:DWORD
_BSS	SEGMENT
_piecewise_construct DB 01H DUP (?)
	ALIGN	4

_allocator_arg DB 01H DUP (?)
_BSS	ENDS
;	COMDAT ?_Generic_object@?$_Error_objects@H@std@@2V_Generic_error_category@2@A
_BSS	SEGMENT
?_Generic_object@?$_Error_objects@H@std@@2V_Generic_error_category@2@A DD 01H DUP (?) ; std::_Error_objects<int>::_Generic_object
_BSS	ENDS
;	COMDAT ?_Iostream_object@?$_Error_objects@H@std@@2V_Iostream_error_category@2@A
_BSS	SEGMENT
?_Iostream_object@?$_Error_objects@H@std@@2V_Iostream_error_category@2@A DD 01H DUP (?) ; std::_Error_objects<int>::_Iostream_object
_BSS	ENDS
;	COMDAT ?_System_object@?$_Error_objects@H@std@@2V_System_error_category@2@A
_BSS	SEGMENT
?_System_object@?$_Error_objects@H@std@@2V_System_error_category@2@A DD 01H DUP (?) ; std::_Error_objects<int>::_System_object
_BSS	ENDS
;	COMDAT ?id@?$num_put@DV?$back_insert_iterator@V?$basic_string@DU?$char_traits@D@std@@V?$allocator@D@2@@std@@@std@@@std@@2V0locale@2@A
_BSS	SEGMENT
?id@?$num_put@DV?$back_insert_iterator@V?$basic_string@DU?$char_traits@D@std@@V?$allocator@D@2@@std@@@std@@@std@@2V0locale@2@A DD 01H DUP (?) ; std::num_put<char,std::back_insert_iterator<std::basic_string<char,std::char_traits<char>,std::allocator<char> > > >::id
_BSS	ENDS
;	COMDAT ?id@?$num_put@_WV?$back_insert_iterator@V?$basic_string@_WU?$char_traits@_W@std@@V?$allocator@_W@2@@std@@@std@@@std@@2V0locale@2@A
_BSS	SEGMENT
?id@?$num_put@_WV?$back_insert_iterator@V?$basic_string@_WU?$char_traits@_W@std@@V?$allocator@_W@2@@std@@@std@@@std@@2V0locale@2@A DD 01H DUP (?) ; std::num_put<wchar_t,std::back_insert_iterator<std::basic_string<wchar_t,std::char_traits<wchar_t>,std::allocator<wchar_t> > > >::id
_BSS	ENDS
_BSS	SEGMENT
	ALIGN	4

_COS_SUN_EFFECT_HALF_ANGLE DD 01H DUP (?)
_BSS	ENDS
;	COMDAT ?id@?$numpunct@D@std@@2V0locale@2@A
_BSS	SEGMENT
?id@?$numpunct@D@std@@2V0locale@2@A DD 01H DUP (?)	; std::numpunct<char>::id
_BSS	ENDS
;	COMDAT ?id@?$numpunct@_W@std@@2V0locale@2@A
_BSS	SEGMENT
?id@?$numpunct@_W@std@@2V0locale@2@A DD 01H DUP (?)	; std::numpunct<wchar_t>::id
_BSS	ENDS
CRT$XCU	SEGMENT
_piecewise_construct$initializer$ DD FLAT:??__Epiecewise_construct@std@@YAXXZ
CRT$XCU	ENDS
;	COMDAT __xmm@80000000800000008000000080000000
CONST	SEGMENT
__xmm@80000000800000008000000080000000 DB 00H, 00H, 00H, 080H, 00H, 00H, 00H
	DB	080H, 00H, 00H, 00H, 080H, 00H, 00H, 00H, 080H
CONST	ENDS
;	COMDAT __real@c0278d35
CONST	SEGMENT
__real@c0278d35 DD 0c0278d35r			; -2.61799
CONST	ENDS
;	COMDAT __real@be860a91
CONST	SEGMENT
__real@be860a91 DD 0be860a91r			; -0.261799
CONST	ENDS
;	COMDAT __real@bdb2b8c1
CONST	SEGMENT
__real@bdb2b8c1 DD 0bdb2b8c1r			; -0.0872665
CONST	ENDS
;	COMDAT __real@45bde1b0
CONST	SEGMENT
__real@45bde1b0 DD 045bde1b0r			; 6076.21
CONST	ENDS
;	COMDAT __real@447a0000
CONST	SEGMENT
__real@447a0000 DD 0447a0000r			; 1000
CONST	ENDS
;	COMDAT __real@42480000
CONST	SEGMENT
__real@42480000 DD 042480000r			; 50
CONST	ENDS
;	COMDAT __real@40a00000
CONST	SEGMENT
__real@40a00000 DD 040a00000r			; 5
CONST	ENDS
;	COMDAT __real@40800000
CONST	SEGMENT
__real@40800000 DD 040800000r			; 4
CONST	ENDS
;	COMDAT __real@40278d35
CONST	SEGMENT
__real@40278d35 DD 040278d35r			; 2.61799
CONST	ENDS
;	COMDAT __real@3f800000
CONST	SEGMENT
__real@3f800000 DD 03f800000r			; 1
CONST	ENDS
;	COMDAT __real@3f400000
CONST	SEGMENT
__real@3f400000 DD 03f400000r			; 0.75
CONST	ENDS
;	COMDAT __real@3f1c61a9
CONST	SEGMENT
__real@3f1c61a9 DD 03f1c61a9r			; 0.610865
CONST	ENDS
;	COMDAT __real@3f000000
CONST	SEGMENT
__real@3f000000 DD 03f000000r			; 0.5
CONST	ENDS
;	COMDAT __real@3eb2b8c1
CONST	SEGMENT
__real@3eb2b8c1 DD 03eb2b8c1r			; 0.349066
CONST	ENDS
;	COMDAT __real@3e860a91
CONST	SEGMENT
__real@3e860a91 DD 03e860a91r			; 0.261799
CONST	ENDS
;	COMDAT __real@00000000
CONST	SEGMENT
__real@00000000 DD 000000000r			; 0
CONST	ENDS
;	COMDAT ??_R1A@?0A@EA@_System_error_category@std@@8
rdata$r	SEGMENT
??_R1A@?0A@EA@_System_error_category@std@@8 DD FLAT:??_R0?AV_System_error_category@std@@@8 ; std::_System_error_category::`RTTI Base Class Descriptor at (0,-1,0,64)'
	DD	02H
	DD	00H
	DD	0ffffffffH
	DD	00H
	DD	040H
	DD	FLAT:??_R3_System_error_category@std@@8
rdata$r	ENDS
;	COMDAT ??_R2_System_error_category@std@@8
rdata$r	SEGMENT
??_R2_System_error_category@std@@8 DD FLAT:??_R1A@?0A@EA@_System_error_category@std@@8 ; std::_System_error_category::`RTTI Base Class Array'
	DD	FLAT:??_R1A@?0A@EA@_Generic_error_category@std@@8
	DD	FLAT:??_R1A@?0A@EA@error_category@std@@8
rdata$r	ENDS
;	COMDAT ??_R3_System_error_category@std@@8
rdata$r	SEGMENT
??_R3_System_error_category@std@@8 DD 00H		; std::_System_error_category::`RTTI Class Hierarchy Descriptor'
	DD	00H
	DD	03H
	DD	FLAT:??_R2_System_error_category@std@@8
rdata$r	ENDS
;	COMDAT ??_R0?AV_System_error_category@std@@@8
_DATA	SEGMENT
??_R0?AV_System_error_category@std@@@8 DD FLAT:??_7type_info@@6B@ ; std::_System_error_category `RTTI Type Descriptor'
	DD	00H
	DB	'.?AV_System_error_category@std@@', 00H
_DATA	ENDS
;	COMDAT ??_R4_System_error_category@std@@6B@
rdata$r	SEGMENT
??_R4_System_error_category@std@@6B@ DD 00H		; std::_System_error_category::`RTTI Complete Object Locator'
	DD	00H
	DD	00H
	DD	FLAT:??_R0?AV_System_error_category@std@@@8
	DD	FLAT:??_R3_System_error_category@std@@8
rdata$r	ENDS
;	COMDAT ??_R1A@?0A@EA@_Iostream_error_category@std@@8
rdata$r	SEGMENT
??_R1A@?0A@EA@_Iostream_error_category@std@@8 DD FLAT:??_R0?AV_Iostream_error_category@std@@@8 ; std::_Iostream_error_category::`RTTI Base Class Descriptor at (0,-1,0,64)'
	DD	02H
	DD	00H
	DD	0ffffffffH
	DD	00H
	DD	040H
	DD	FLAT:??_R3_Iostream_error_category@std@@8
rdata$r	ENDS
;	COMDAT ??_R2_Iostream_error_category@std@@8
rdata$r	SEGMENT
??_R2_Iostream_error_category@std@@8 DD FLAT:??_R1A@?0A@EA@_Iostream_error_category@std@@8 ; std::_Iostream_error_category::`RTTI Base Class Array'
	DD	FLAT:??_R1A@?0A@EA@_Generic_error_category@std@@8
	DD	FLAT:??_R1A@?0A@EA@error_category@std@@8
rdata$r	ENDS
;	COMDAT ??_R3_Iostream_error_category@std@@8
rdata$r	SEGMENT
??_R3_Iostream_error_category@std@@8 DD 00H		; std::_Iostream_error_category::`RTTI Class Hierarchy Descriptor'
	DD	00H
	DD	03H
	DD	FLAT:??_R2_Iostream_error_category@std@@8
rdata$r	ENDS
;	COMDAT ??_R0?AV_Iostream_error_category@std@@@8
_DATA	SEGMENT
??_R0?AV_Iostream_error_category@std@@@8 DD FLAT:??_7type_info@@6B@ ; std::_Iostream_error_category `RTTI Type Descriptor'
	DD	00H
	DB	'.?AV_Iostream_error_category@std@@', 00H
_DATA	ENDS
;	COMDAT ??_R4_Iostream_error_category@std@@6B@
rdata$r	SEGMENT
??_R4_Iostream_error_category@std@@6B@ DD 00H		; std::_Iostream_error_category::`RTTI Complete Object Locator'
	DD	00H
	DD	00H
	DD	FLAT:??_R0?AV_Iostream_error_category@std@@@8
	DD	FLAT:??_R3_Iostream_error_category@std@@8
rdata$r	ENDS
;	COMDAT ??_R1A@?0A@EA@_Generic_error_category@std@@8
rdata$r	SEGMENT
??_R1A@?0A@EA@_Generic_error_category@std@@8 DD FLAT:??_R0?AV_Generic_error_category@std@@@8 ; std::_Generic_error_category::`RTTI Base Class Descriptor at (0,-1,0,64)'
	DD	01H
	DD	00H
	DD	0ffffffffH
	DD	00H
	DD	040H
	DD	FLAT:??_R3_Generic_error_category@std@@8
rdata$r	ENDS
;	COMDAT ??_R2_Generic_error_category@std@@8
rdata$r	SEGMENT
??_R2_Generic_error_category@std@@8 DD FLAT:??_R1A@?0A@EA@_Generic_error_category@std@@8 ; std::_Generic_error_category::`RTTI Base Class Array'
	DD	FLAT:??_R1A@?0A@EA@error_category@std@@8
rdata$r	ENDS
;	COMDAT ??_R3_Generic_error_category@std@@8
rdata$r	SEGMENT
??_R3_Generic_error_category@std@@8 DD 00H		; std::_Generic_error_category::`RTTI Class Hierarchy Descriptor'
	DD	00H
	DD	02H
	DD	FLAT:??_R2_Generic_error_category@std@@8
rdata$r	ENDS
;	COMDAT ??_R0?AV_Generic_error_category@std@@@8
_DATA	SEGMENT
??_R0?AV_Generic_error_category@std@@@8 DD FLAT:??_7type_info@@6B@ ; std::_Generic_error_category `RTTI Type Descriptor'
	DD	00H
	DB	'.?AV_Generic_error_category@std@@', 00H
_DATA	ENDS
;	COMDAT ??_R4_Generic_error_category@std@@6B@
rdata$r	SEGMENT
??_R4_Generic_error_category@std@@6B@ DD 00H		; std::_Generic_error_category::`RTTI Complete Object Locator'
	DD	00H
	DD	00H
	DD	FLAT:??_R0?AV_Generic_error_category@std@@@8
	DD	FLAT:??_R3_Generic_error_category@std@@8
rdata$r	ENDS
;	COMDAT ??_R1A@?0A@EA@error_category@std@@8
rdata$r	SEGMENT
??_R1A@?0A@EA@error_category@std@@8 DD FLAT:??_R0?AVerror_category@std@@@8 ; std::error_category::`RTTI Base Class Descriptor at (0,-1,0,64)'
	DD	00H
	DD	00H
	DD	0ffffffffH
	DD	00H
	DD	040H
	DD	FLAT:??_R3error_category@std@@8
rdata$r	ENDS
;	COMDAT ??_R2error_category@std@@8
rdata$r	SEGMENT
??_R2error_category@std@@8 DD FLAT:??_R1A@?0A@EA@error_category@std@@8 ; std::error_category::`RTTI Base Class Array'
rdata$r	ENDS
;	COMDAT ??_R3error_category@std@@8
rdata$r	SEGMENT
??_R3error_category@std@@8 DD 00H			; std::error_category::`RTTI Class Hierarchy Descriptor'
	DD	00H
	DD	01H
	DD	FLAT:??_R2error_category@std@@8
rdata$r	ENDS
;	COMDAT ??_R0?AVerror_category@std@@@8
_DATA	SEGMENT
??_R0?AVerror_category@std@@@8 DD FLAT:??_7type_info@@6B@ ; std::error_category `RTTI Type Descriptor'
	DD	00H
	DB	'.?AVerror_category@std@@', 00H
_DATA	ENDS
;	COMDAT ??_R4error_category@std@@6B@
rdata$r	SEGMENT
??_R4error_category@std@@6B@ DD 00H			; std::error_category::`RTTI Complete Object Locator'
	DD	00H
	DD	00H
	DD	FLAT:??_R0?AVerror_category@std@@@8
	DD	FLAT:??_R3error_category@std@@8
rdata$r	ENDS
;	COMDAT ??_C@_0BA@JFNIOLAK@string?5too?5long?$AA@
CONST	SEGMENT
??_C@_0BA@JFNIOLAK@string?5too?5long?$AA@ DB 'string too long', 00H ; `string'
CONST	ENDS
;	COMDAT ??_C@_0BI@CFPLBAOH@invalid?5string?5position?$AA@
CONST	SEGMENT
??_C@_0BI@CFPLBAOH@invalid?5string?5position?$AA@ DB 'invalid string posi'
	DB	'tion', 00H					; `string'
CONST	ENDS
;	COMDAT ??_C@_06FHFOAHML@system?$AA@
CONST	SEGMENT
??_C@_06FHFOAHML@system?$AA@ DB 'system', 00H		; `string'
CONST	ENDS
;	COMDAT ??_7_System_error_category@std@@6B@
CONST	SEGMENT
??_7_System_error_category@std@@6B@ DD FLAT:??_R4_System_error_category@std@@6B@ ; std::_System_error_category::`vftable'
	DD	FLAT:??_E_System_error_category@std@@UAEPAXI@Z
	DD	FLAT:?name@_System_error_category@std@@UBEPBDXZ
	DD	FLAT:?message@_System_error_category@std@@UBE?AV?$basic_string@DU?$char_traits@D@std@@V?$allocator@D@2@@2@H@Z
	DD	FLAT:?default_error_condition@_System_error_category@std@@UBE?AVerror_condition@2@H@Z
	DD	FLAT:?equivalent@error_category@std@@UBE_NABVerror_code@2@H@Z
	DD	FLAT:?equivalent@error_category@std@@UBE_NHABVerror_condition@2@@Z
CONST	ENDS
;	COMDAT ??_C@_0BG@PADBLCHM@iostream?5stream?5error?$AA@
CONST	SEGMENT
??_C@_0BG@PADBLCHM@iostream?5stream?5error?$AA@ DB 'iostream stream error'
	DB	00H						; `string'
CONST	ENDS
;	COMDAT ??_C@_08LLGCOLLL@iostream?$AA@
CONST	SEGMENT
??_C@_08LLGCOLLL@iostream?$AA@ DB 'iostream', 00H	; `string'
CONST	ENDS
;	COMDAT ??_7_Iostream_error_category@std@@6B@
CONST	SEGMENT
??_7_Iostream_error_category@std@@6B@ DD FLAT:??_R4_Iostream_error_category@std@@6B@ ; std::_Iostream_error_category::`vftable'
	DD	FLAT:??_E_Iostream_error_category@std@@UAEPAXI@Z
	DD	FLAT:?name@_Iostream_error_category@std@@UBEPBDXZ
	DD	FLAT:?message@_Iostream_error_category@std@@UBE?AV?$basic_string@DU?$char_traits@D@std@@V?$allocator@D@2@@2@H@Z
	DD	FLAT:?default_error_condition@error_category@std@@UBE?AVerror_condition@2@H@Z
	DD	FLAT:?equivalent@error_category@std@@UBE_NABVerror_code@2@H@Z
	DD	FLAT:?equivalent@error_category@std@@UBE_NHABVerror_condition@2@@Z
CONST	ENDS
;	COMDAT ??_C@_0O@BFJCFAAK@unknown?5error?$AA@
CONST	SEGMENT
??_C@_0O@BFJCFAAK@unknown?5error?$AA@ DB 'unknown error', 00H ; `string'
CONST	ENDS
;	COMDAT ??_C@_07DCLBNMLN@generic?$AA@
CONST	SEGMENT
??_C@_07DCLBNMLN@generic?$AA@ DB 'generic', 00H		; `string'
CONST	ENDS
;	COMDAT ??_7_Generic_error_category@std@@6B@
CONST	SEGMENT
??_7_Generic_error_category@std@@6B@ DD FLAT:??_R4_Generic_error_category@std@@6B@ ; std::_Generic_error_category::`vftable'
	DD	FLAT:??_E_Generic_error_category@std@@UAEPAXI@Z
	DD	FLAT:?name@_Generic_error_category@std@@UBEPBDXZ
	DD	FLAT:?message@_Generic_error_category@std@@UBE?AV?$basic_string@DU?$char_traits@D@std@@V?$allocator@D@2@@2@H@Z
	DD	FLAT:?default_error_condition@error_category@std@@UBE?AVerror_condition@2@H@Z
	DD	FLAT:?equivalent@error_category@std@@UBE_NABVerror_code@2@H@Z
	DD	FLAT:?equivalent@error_category@std@@UBE_NHABVerror_condition@2@@Z
CONST	ENDS
;	COMDAT ??_7error_category@std@@6B@
CONST	SEGMENT
??_7error_category@std@@6B@ DD FLAT:??_R4error_category@std@@6B@ ; std::error_category::`vftable'
	DD	FLAT:??_Eerror_category@std@@UAEPAXI@Z
	DD	FLAT:__purecall
	DD	FLAT:__purecall
	DD	FLAT:?default_error_condition@error_category@std@@UBE?AVerror_condition@2@H@Z
	DD	FLAT:?equivalent@error_category@std@@UBE_NABVerror_code@2@H@Z
	DD	FLAT:?equivalent@error_category@std@@UBE_NHABVerror_condition@2@@Z
CONST	ENDS
;	COMDAT xdata$x
xdata$x	SEGMENT
__unwindtable$??$construct@PADAAPAD@?$allocator@D@std@@QAEXPAPADAAPAD@Z DD 0ffffffffH
	DD	FLAT:__unwindfunclet$??$construct@PADAAPAD@?$allocator@D@std@@QAEXPAPADAAPAD@Z$0
__ehfuncinfo$??$construct@PADAAPAD@?$allocator@D@std@@QAEXPAPADAAPAD@Z DD 019930522H
	DD	01H
	DD	FLAT:__unwindtable$??$construct@PADAAPAD@?$allocator@D@std@@QAEXPAPADAAPAD@Z
	DD	2 DUP(00H)
	DD	2 DUP(00H)
	DD	00H
	DD	01H
xdata$x	ENDS
xdata$x	SEGMENT
__unwindtable$?Padlock_FindEnhancedPriority@OTWDriverClass@@AAEXH@Z DD 0ffffffffH
	DD	FLAT:__unwindfunclet$?Padlock_FindEnhancedPriority@OTWDriverClass@@AAEXH@Z$0
__unwindtable$?Padlock_FindRealisticPriority@OTWDriverClass@@AAEXH@Z DD 0ffffffffH
	DD	FLAT:__unwindfunclet$?Padlock_FindRealisticPriority@OTWDriverClass@@AAEXH@Z$0
__unwindtable$?SetmpPadlockPriorityObject@OTWDriverClass@@QAEXPAVSimBaseClass@@@Z DD 0ffffffffH
	DD	FLAT:__unwindfunclet$?SetmpPadlockPriorityObject@OTWDriverClass@@QAEXPAVSimBaseClass@@@Z$0
__ehfuncinfo$?Padlock_FindEnhancedPriority@OTWDriverClass@@AAEXH@Z DD 019930522H
	DD	01H
	DD	FLAT:__unwindtable$?Padlock_FindEnhancedPriority@OTWDriverClass@@AAEXH@Z
	DD	2 DUP(00H)
	DD	2 DUP(00H)
	DD	00H
	DD	01H
__ehfuncinfo$?Padlock_FindRealisticPriority@OTWDriverClass@@AAEXH@Z DD 019930522H
	DD	01H
	DD	FLAT:__unwindtable$?Padlock_FindRealisticPriority@OTWDriverClass@@AAEXH@Z
	DD	2 DUP(00H)
	DD	2 DUP(00H)
	DD	00H
	DD	01H
__ehfuncinfo$?SetmpPadlockPriorityObject@OTWDriverClass@@QAEXPAVSimBaseClass@@@Z DD 019930522H
	DD	01H
	DD	FLAT:__unwindtable$?SetmpPadlockPriorityObject@OTWDriverClass@@QAEXPAVSimBaseClass@@@Z
	DD	2 DUP(00H)
	DD	2 DUP(00H)
	DD	00H
	DD	01H
xdata$x	ENDS
;	COMDAT xdata$x
xdata$x	SEGMENT
__catchsym$?_Copy@?$basic_string@DU?$char_traits@D@std@@V?$allocator@D@2@@std@@QAEXII@Z$5 DD 040H
	DD	00H
	DD	00H
	DD	FLAT:__catch$?_Copy@?$basic_string@DU?$char_traits@D@std@@V?$allocator@D@2@@std@@QAEXII@Z$0
__catchsym$?_Copy@?$basic_string@DU?$char_traits@D@std@@V?$allocator@D@2@@std@@QAEXII@Z$4 DD 040H
	DD	00H
	DD	00H
	DD	FLAT:__catch$?_Copy@?$basic_string@DU?$char_traits@D@std@@V?$allocator@D@2@@std@@QAEXII@Z$1
__unwindtable$?_Copy@?$basic_string@DU?$char_traits@D@std@@V?$allocator@D@2@@std@@QAEXII@Z DD 0ffffffffH
	DD	00H
	DD	0ffffffffH
	DD	00H
	DD	01H
	DD	00H
	DD	01H
	DD	00H
__ehfuncinfo$?_Copy@?$basic_string@DU?$char_traits@D@std@@V?$allocator@D@2@@std@@QAEXII@Z DD 019930522H
	DD	04H
	DD	FLAT:__unwindtable$?_Copy@?$basic_string@DU?$char_traits@D@std@@V?$allocator@D@2@@std@@QAEXII@Z
	DD	02H
	DD	FLAT:__tryblocktable$?_Copy@?$basic_string@DU?$char_traits@D@std@@V?$allocator@D@2@@std@@QAEXII@Z
	DD	2 DUP(00H)
	DD	00H
	DD	01H
__tryblocktable$?_Copy@?$basic_string@DU?$char_traits@D@std@@V?$allocator@D@2@@std@@QAEXII@Z DD 02H
	DD	02H
	DD	03H
	DD	01H
	DD	FLAT:__catchsym$?_Copy@?$basic_string@DU?$char_traits@D@std@@V?$allocator@D@2@@std@@QAEXII@Z$4
	DD	00H
	DD	00H
	DD	03H
	DD	01H
	DD	FLAT:__catchsym$?_Copy@?$basic_string@DU?$char_traits@D@std@@V?$allocator@D@2@@std@@QAEXII@Z$5
xdata$x	ENDS
CRT$XCU	SEGMENT
_allocator_arg$initializer$ DD FLAT:??__Eallocator_arg@std@@YAXXZ
CRT$XCU	ENDS
CRT$XCU	SEGMENT
_COS_SUN_EFFECT_HALF_ANGLE$initializer$ DD FLAT:??__ECOS_SUN_EFFECT_HALF_ANGLE@@YAXXZ
CRT$XCU	ENDS
;	COMDAT CRT$XCU
CRT$XCU	SEGMENT
?_Generic_object$initializer$@?$_Error_objects@H@std@@2P6AXXZA DD FLAT:??__E?_Generic_object@?$_Error_objects@H@std@@2V_Generic_error_category@2@A@@YAXXZ ; std::_Error_objects<int>::_Generic_object$initializer$
CRT$XCU	ENDS
;	COMDAT CRT$XCU
CRT$XCU	SEGMENT
?_Iostream_object$initializer$@?$_Error_objects@H@std@@2P6AXXZA DD FLAT:??__E?_Iostream_object@?$_Error_objects@H@std@@2V_Iostream_error_category@2@A@@YAXXZ ; std::_Error_objects<int>::_Iostream_object$initializer$
CRT$XCU	ENDS
;	COMDAT CRT$XCU
CRT$XCU	SEGMENT
?_System_object$initializer$@?$_Error_objects@H@std@@2P6AXXZA DD FLAT:??__E?_System_object@?$_Error_objects@H@std@@2V_System_error_category@2@A@@YAXXZ ; std::_Error_objects<int>::_System_object$initializer$
CRT$XCU	ENDS
;	COMDAT CRT$XCU
CRT$XCU	SEGMENT
?id$initializer$@?$num_put@DV?$back_insert_iterator@V?$basic_string@DU?$char_traits@D@std@@V?$allocator@D@2@@std@@@std@@@std@@2P6AXXZA DD FLAT:??__E?id@?$num_put@DV?$back_insert_iterator@V?$basic_string@DU?$char_traits@D@std@@V?$allocator@D@2@@std@@@std@@@std@@2V0locale@2@A@@YAXXZ ; std::num_put<char,std::back_insert_iterator<std::basic_string<char,std::char_traits<char>,std::allocator<char> > > >::id$initializer$
CRT$XCU	ENDS
;	COMDAT CRT$XCU
CRT$XCU	SEGMENT
?id$initializer$@?$num_put@_WV?$back_insert_iterator@V?$basic_string@_WU?$char_traits@_W@std@@V?$allocator@_W@2@@std@@@std@@@std@@2P6AXXZA DD FLAT:??__E?id@?$num_put@_WV?$back_insert_iterator@V?$basic_string@_WU?$char_traits@_W@std@@V?$allocator@_W@2@@std@@@std@@@std@@2V0locale@2@A@@YAXXZ ; std::num_put<wchar_t,std::back_insert_iterator<std::basic_string<wchar_t,std::char_traits<wchar_t>,std::allocator<wchar_t> > > >::id$initializer$
CRT$XCU	ENDS
;	COMDAT CRT$XCU
CRT$XCU	SEGMENT
?id$initializer$@?$numpunct@D@std@@2P6AXXZA DD FLAT:??__E?id@?$numpunct@D@std@@2V0locale@2@A@@YAXXZ ; std::numpunct<char>::id$initializer$
CRT$XCU	ENDS
;	COMDAT CRT$XCU
CRT$XCU	SEGMENT
?id$initializer$@?$numpunct@_W@std@@2P6AXXZA DD FLAT:??__E?id@?$numpunct@_W@std@@2V0locale@2@A@@YAXXZ ; std::numpunct<wchar_t>::id$initializer$
CRT$XCU	ENDS
; Function compile flags: /Odtp
; File c:\program files (x86)\microsoft visual studio 11.0\vc\include\xmemory0
;	COMDAT ??$destroy@PAD@?$allocator@D@std@@QAEXPAPAD@Z
_TEXT	SEGMENT
_this$ = -4						; size = 4
__Ptr$ = 8						; size = 4
??$destroy@PAD@?$allocator@D@std@@QAEXPAPAD@Z PROC	; std::allocator<char>::destroy<char *>, COMDAT
; _this$ = ecx

; 621  : 		void destroy(_Uty *_Ptr)

	push	ebp
	mov	ebp, esp
	push	ecx
	mov	DWORD PTR _this$[ebp], ecx

; 622  : 		{	// destroy object at _Ptr
; 623  : 		_Ptr->~_Uty();
; 624  : 		}

	mov	esp, ebp
	pop	ebp
	ret	4
??$destroy@PAD@?$allocator@D@std@@QAEXPAPAD@Z ENDP	; std::allocator<char>::destroy<char *>
_TEXT	ENDS
; Function compile flags: /Odtp
; File c:\program files (x86)\microsoft visual studio 11.0\vc\include\xmemory0
;	COMDAT ??$construct@PADAAPAD@?$allocator@D@std@@QAEXPAPADAAPAD@Z
_TEXT	SEGMENT
$T2 = -28						; size = 4
_this$ = -24						; size = 4
tv73 = -20						; size = 4
$T3 = -16						; size = 4
__$EHRec$ = -12						; size = 12
__Ptr$ = 8						; size = 4
__V0$ = 12						; size = 4
??$construct@PADAAPAD@?$allocator@D@std@@QAEXPAPADAAPAD@Z PROC ; std::allocator<char>::construct<char *,char * &>, COMDAT
; _this$ = ecx

; 617  : _VARIADIC_EXPAND_0X(_ALLOC_MEMBER_CONSTRUCT, , , , )

	push	ebp
	mov	ebp, esp
	push	-1
	push	__ehhandler$??$construct@PADAAPAD@?$allocator@D@std@@QAEXPAPADAAPAD@Z
	mov	eax, DWORD PTR fs:0
	push	eax
	sub	esp, 16					; 00000010H
	mov	eax, DWORD PTR ___security_cookie
	xor	eax, ebp
	push	eax
	lea	eax, DWORD PTR __$EHRec$[ebp]
	mov	DWORD PTR fs:0, eax
	mov	DWORD PTR _this$[ebp], ecx
	mov	eax, DWORD PTR __Ptr$[ebp]
	push	eax
	push	4
	call	??2@YAPAXIPAX@Z				; operator new
	add	esp, 8
	mov	DWORD PTR $T3[ebp], eax
	mov	DWORD PTR __$EHRec$[ebp+8], 0
	cmp	DWORD PTR $T3[ebp], 0
	je	SHORT $LN3@construct
	mov	ecx, DWORD PTR __V0$[ebp]
	push	ecx
	call	??$forward@AAPAD@std@@YAAAPADAAPAD@Z	; std::forward<char * &>
	add	esp, 4
	mov	edx, DWORD PTR $T3[ebp]
	mov	eax, DWORD PTR [eax]
	mov	DWORD PTR [edx], eax
	mov	ecx, DWORD PTR $T3[ebp]
	mov	DWORD PTR tv73[ebp], ecx
	jmp	SHORT $LN4@construct
$LN3@construct:
	mov	DWORD PTR tv73[ebp], 0
$LN4@construct:
	mov	edx, DWORD PTR tv73[ebp]
	mov	DWORD PTR $T2[ebp], edx
	mov	DWORD PTR __$EHRec$[ebp+8], -1
	mov	ecx, DWORD PTR __$EHRec$[ebp]
	mov	DWORD PTR fs:0, ecx
	pop	ecx
	mov	esp, ebp
	pop	ebp
	ret	8
_TEXT	ENDS
;	COMDAT text$x
text$x	SEGMENT
__unwindfunclet$??$construct@PADAAPAD@?$allocator@D@std@@QAEXPAPADAAPAD@Z$0:
	mov	eax, DWORD PTR __Ptr$[ebp]
	push	eax
	mov	eax, DWORD PTR $T3[ebp]
	push	eax
	call	??3@YAXPAX0@Z				; operator delete
	add	esp, 8
	ret	0
__ehhandler$??$construct@PADAAPAD@?$allocator@D@std@@QAEXPAPADAAPAD@Z:
	mov	edx, DWORD PTR [esp+8]
	lea	eax, DWORD PTR [edx+12]
	mov	ecx, DWORD PTR [edx-20]
	xor	ecx, eax
	call	@__security_check_cookie@4
	mov	eax, OFFSET __ehfuncinfo$??$construct@PADAAPAD@?$allocator@D@std@@QAEXPAPADAAPAD@Z
	jmp	___CxxFrameHandler3
text$x	ENDS
??$construct@PADAAPAD@?$allocator@D@std@@QAEXPAPADAAPAD@Z ENDP ; std::allocator<char>::construct<char *,char * &>
; Function compile flags: /Odtp
; File c:\program files (x86)\microsoft visual studio 11.0\vc\include\xlocnum
;	COMDAT ??__E?id@?$numpunct@_W@std@@2V0locale@2@A@@YAXXZ
text$yc	SEGMENT
??__E?id@?$numpunct@_W@std@@2V0locale@2@A@@YAXXZ PROC	; `dynamic initializer for 'std::numpunct<wchar_t>::id'', COMDAT

; 155  : 		void _Getvals(wchar_t, const lconv *_Ptr, _Locinfo::_Cvtvec)

	push	ebp
	mov	ebp, esp
	push	0
	mov	ecx, OFFSET ?id@?$numpunct@_W@std@@2V0locale@2@A ; std::numpunct<wchar_t>::id
	call	??0id@locale@std@@QAE@I@Z		; std::locale::id::id
	pop	ebp
	ret	0
??__E?id@?$numpunct@_W@std@@2V0locale@2@A@@YAXXZ ENDP	; `dynamic initializer for 'std::numpunct<wchar_t>::id''
text$yc	ENDS
; Function compile flags: /Odtp
; File c:\program files (x86)\microsoft visual studio 11.0\vc\include\xlocnum
;	COMDAT ??__E?id@?$numpunct@D@std@@2V0locale@2@A@@YAXXZ
text$yc	SEGMENT
??__E?id@?$numpunct@D@std@@2V0locale@2@A@@YAXXZ PROC	; `dynamic initializer for 'std::numpunct<char>::id'', COMDAT

; 155  : 		void _Getvals(wchar_t, const lconv *_Ptr, _Locinfo::_Cvtvec)

	push	ebp
	mov	ebp, esp
	push	0
	mov	ecx, OFFSET ?id@?$numpunct@D@std@@2V0locale@2@A ; std::numpunct<char>::id
	call	??0id@locale@std@@QAE@I@Z		; std::locale::id::id
	pop	ebp
	ret	0
??__E?id@?$numpunct@D@std@@2V0locale@2@A@@YAXXZ ENDP	; `dynamic initializer for 'std::numpunct<char>::id''
text$yc	ENDS
; Function compile flags: /Odtp
; File c:\program files (x86)\microsoft visual studio 11.0\vc\include\xlocnum
;	COMDAT ??__E?id@?$num_put@_WV?$back_insert_iterator@V?$basic_string@_WU?$char_traits@_W@std@@V?$allocator@_W@2@@std@@@std@@@std@@2V0locale@2@A@@YAXXZ
text$yc	SEGMENT
??__E?id@?$num_put@_WV?$back_insert_iterator@V?$basic_string@_WU?$char_traits@_W@std@@V?$allocator@_W@2@@std@@@std@@@std@@2V0locale@2@A@@YAXXZ PROC ; `dynamic initializer for 'std::num_put<wchar_t,std::back_insert_iterator<std::basic_string<wchar_t,std::char_traits<wchar_t>,std::allocator<wchar_t> > > >::id'', COMDAT

; 155  : 		void _Getvals(wchar_t, const lconv *_Ptr, _Locinfo::_Cvtvec)

	push	ebp
	mov	ebp, esp
	push	0
	mov	ecx, OFFSET ?id@?$num_put@_WV?$back_insert_iterator@V?$basic_string@_WU?$char_traits@_W@std@@V?$allocator@_W@2@@std@@@std@@@std@@2V0locale@2@A ; std::num_put<wchar_t,std::back_insert_iterator<std::basic_string<wchar_t,std::char_traits<wchar_t>,std::allocator<wchar_t> > > >::id
	call	??0id@locale@std@@QAE@I@Z		; std::locale::id::id
	pop	ebp
	ret	0
??__E?id@?$num_put@_WV?$back_insert_iterator@V?$basic_string@_WU?$char_traits@_W@std@@V?$allocator@_W@2@@std@@@std@@@std@@2V0locale@2@A@@YAXXZ ENDP ; `dynamic initializer for 'std::num_put<wchar_t,std::back_insert_iterator<std::basic_string<wchar_t,std::char_traits<wchar_t>,std::allocator<wchar_t> > > >::id''
text$yc	ENDS
; Function compile flags: /Odtp
; File c:\program files (x86)\microsoft visual studio 11.0\vc\include\xlocnum
;	COMDAT ??__E?id@?$num_put@DV?$back_insert_iterator@V?$basic_string@DU?$char_traits@D@std@@V?$allocator@D@2@@std@@@std@@@std@@2V0locale@2@A@@YAXXZ
text$yc	SEGMENT
??__E?id@?$num_put@DV?$back_insert_iterator@V?$basic_string@DU?$char_traits@D@std@@V?$allocator@D@2@@std@@@std@@@std@@2V0locale@2@A@@YAXXZ PROC ; `dynamic initializer for 'std::num_put<char,std::back_insert_iterator<std::basic_string<char,std::char_traits<char>,std::allocator<char> > > >::id'', COMDAT

; 155  : 		void _Getvals(wchar_t, const lconv *_Ptr, _Locinfo::_Cvtvec)

	push	ebp
	mov	ebp, esp
	push	0
	mov	ecx, OFFSET ?id@?$num_put@DV?$back_insert_iterator@V?$basic_string@DU?$char_traits@D@std@@V?$allocator@D@2@@std@@@std@@@std@@2V0locale@2@A ; std::num_put<char,std::back_insert_iterator<std::basic_string<char,std::char_traits<char>,std::allocator<char> > > >::id
	call	??0id@locale@std@@QAE@I@Z		; std::locale::id::id
	pop	ebp
	ret	0
??__E?id@?$num_put@DV?$back_insert_iterator@V?$basic_string@DU?$char_traits@D@std@@V?$allocator@D@2@@std@@@std@@@std@@2V0locale@2@A@@YAXXZ ENDP ; `dynamic initializer for 'std::num_put<char,std::back_insert_iterator<std::basic_string<char,std::char_traits<char>,std::allocator<char> > > >::id''
text$yc	ENDS
; Function compile flags: /Odtp
; File c:\program files (x86)\microsoft visual studio 11.0\vc\include\xmemory0
;	COMDAT ??$destroy@PAD@?$allocator_traits@V?$allocator@D@std@@@std@@SAXAAV?$allocator@D@1@PAPAD@Z
_TEXT	SEGMENT
__Al$ = 8						; size = 4
__Ptr$ = 12						; size = 4
??$destroy@PAD@?$allocator_traits@V?$allocator@D@std@@@std@@SAXAAV?$allocator@D@1@PAPAD@Z PROC ; std::allocator_traits<std::allocator<char> >::destroy<char *>, COMDAT

; 755  : 		static void destroy(_Alloc& _Al, _Uty *_Ptr)

	push	ebp
	mov	ebp, esp

; 756  : 		{	// destroy object at _Ptr
; 757  : 		_Al.destroy(_Ptr);

	mov	eax, DWORD PTR __Ptr$[ebp]
	push	eax
	mov	ecx, DWORD PTR __Al$[ebp]
	call	??$destroy@PAD@?$allocator@D@std@@QAEXPAPAD@Z ; std::allocator<char>::destroy<char *>

; 758  : 		}

	pop	ebp
	ret	0
??$destroy@PAD@?$allocator_traits@V?$allocator@D@std@@@std@@SAXAAV?$allocator@D@1@PAPAD@Z ENDP ; std::allocator_traits<std::allocator<char> >::destroy<char *>
_TEXT	ENDS
; Function compile flags: /Odtp
; File c:\program files (x86)\microsoft visual studio 11.0\vc\include\xmemory0
;	COMDAT ??$construct@PADAAPAD@?$allocator_traits@V?$allocator@D@std@@@std@@SAXAAV?$allocator@D@1@PAPADAAPAD@Z
_TEXT	SEGMENT
__Al$ = 8						; size = 4
__Ptr$ = 12						; size = 4
__V0$ = 16						; size = 4
??$construct@PADAAPAD@?$allocator_traits@V?$allocator@D@std@@@std@@SAXAAV?$allocator@D@1@PAPADAAPAD@Z PROC ; std::allocator_traits<std::allocator<char> >::construct<char *,char * &>, COMDAT

; 751  : _VARIADIC_EXPAND_0X(_ALLOC_TRAITS_SPECIAL_CONSTRUCT, , , , )

	push	ebp
	mov	ebp, esp
	mov	eax, DWORD PTR __V0$[ebp]
	push	eax
	call	??$forward@AAPAD@std@@YAAAPADAAPAD@Z	; std::forward<char * &>
	add	esp, 4
	push	eax
	mov	ecx, DWORD PTR __Ptr$[ebp]
	push	ecx
	mov	ecx, DWORD PTR __Al$[ebp]
	call	??$construct@PADAAPAD@?$allocator@D@std@@QAEXPAPADAAPAD@Z ; std::allocator<char>::construct<char *,char * &>
	pop	ebp
	ret	0
??$construct@PADAAPAD@?$allocator_traits@V?$allocator@D@std@@@std@@SAXAAV?$allocator@D@1@PAPADAAPAD@Z ENDP ; std::allocator_traits<std::allocator<char> >::construct<char *,char * &>
_TEXT	ENDS
; Function compile flags: /Odtp
; File c:\program files (x86)\microsoft visual studio 11.0\vc\include\type_traits
;	COMDAT ??$forward@AAPAD@std@@YAAAPADAAPAD@Z
_TEXT	SEGMENT
__Arg$ = 8						; size = 4
??$forward@AAPAD@std@@YAAAPADAAPAD@Z PROC		; std::forward<char * &>, COMDAT

; 1775 : 	{	// forward an lvalue

	push	ebp
	mov	ebp, esp

; 1776 : 	return (static_cast<_Ty&&>(_Arg));

	mov	eax, DWORD PTR __Arg$[ebp]

; 1777 : 	}

	pop	ebp
	ret	0
??$forward@AAPAD@std@@YAAAPADAAPAD@Z ENDP		; std::forward<char * &>
_TEXT	ENDS
; Function compile flags: /Odtp
;	COMDAT ??__F?_System_object@?$_Error_objects@H@std@@2V_System_error_category@2@A@@YAXXZ
text$yd	SEGMENT
??__F?_System_object@?$_Error_objects@H@std@@2V_System_error_category@2@A@@YAXXZ PROC ; `dynamic atexit destructor for 'std::_Error_objects<int>::_System_object'', COMDAT
	push	ebp
	mov	ebp, esp
	mov	ecx, OFFSET ?_System_object@?$_Error_objects@H@std@@2V_System_error_category@2@A ; std::_Error_objects<int>::_System_object
	call	??1_System_error_category@std@@UAE@XZ
	pop	ebp
	ret	0
??__F?_System_object@?$_Error_objects@H@std@@2V_System_error_category@2@A@@YAXXZ ENDP ; `dynamic atexit destructor for 'std::_Error_objects<int>::_System_object''
text$yd	ENDS
; Function compile flags: /Odtp
; File c:\program files (x86)\microsoft visual studio 11.0\vc\include\xmemory0
;	COMDAT ??__E?_System_object@?$_Error_objects@H@std@@2V_System_error_category@2@A@@YAXXZ
text$yc	SEGMENT
??__E?_System_object@?$_Error_objects@H@std@@2V_System_error_category@2@A@@YAXXZ PROC ; `dynamic initializer for 'std::_Error_objects<int>::_System_object'', COMDAT

; 627  : 		{	// estimate maximum array size

	push	ebp
	mov	ebp, esp
	mov	ecx, OFFSET ?_System_object@?$_Error_objects@H@std@@2V_System_error_category@2@A ; std::_Error_objects<int>::_System_object
	call	??0_System_error_category@std@@QAE@XZ	; std::_System_error_category::_System_error_category
	push	OFFSET ??__F?_System_object@?$_Error_objects@H@std@@2V_System_error_category@2@A@@YAXXZ ; `dynamic atexit destructor for 'std::_Error_objects<int>::_System_object''
	call	_atexit
	add	esp, 4
	pop	ebp
	ret	0
??__E?_System_object@?$_Error_objects@H@std@@2V_System_error_category@2@A@@YAXXZ ENDP ; `dynamic initializer for 'std::_Error_objects<int>::_System_object''
text$yc	ENDS
; Function compile flags: /Odtp
;	COMDAT ??__F?_Iostream_object@?$_Error_objects@H@std@@2V_Iostream_error_category@2@A@@YAXXZ
text$yd	SEGMENT
??__F?_Iostream_object@?$_Error_objects@H@std@@2V_Iostream_error_category@2@A@@YAXXZ PROC ; `dynamic atexit destructor for 'std::_Error_objects<int>::_Iostream_object'', COMDAT
	push	ebp
	mov	ebp, esp
	mov	ecx, OFFSET ?_Iostream_object@?$_Error_objects@H@std@@2V_Iostream_error_category@2@A ; std::_Error_objects<int>::_Iostream_object
	call	??1_Iostream_error_category@std@@UAE@XZ
	pop	ebp
	ret	0
??__F?_Iostream_object@?$_Error_objects@H@std@@2V_Iostream_error_category@2@A@@YAXXZ ENDP ; `dynamic atexit destructor for 'std::_Error_objects<int>::_Iostream_object''
text$yd	ENDS
; Function compile flags: /Odtp
; File c:\program files (x86)\microsoft visual studio 11.0\vc\include\xmemory0
;	COMDAT ??__E?_Iostream_object@?$_Error_objects@H@std@@2V_Iostream_error_category@2@A@@YAXXZ
text$yc	SEGMENT
??__E?_Iostream_object@?$_Error_objects@H@std@@2V_Iostream_error_category@2@A@@YAXXZ PROC ; `dynamic initializer for 'std::_Error_objects<int>::_Iostream_object'', COMDAT

; 627  : 		{	// estimate maximum array size

	push	ebp
	mov	ebp, esp
	mov	ecx, OFFSET ?_Iostream_object@?$_Error_objects@H@std@@2V_Iostream_error_category@2@A ; std::_Error_objects<int>::_Iostream_object
	call	??0_Iostream_error_category@std@@QAE@XZ	; std::_Iostream_error_category::_Iostream_error_category
	push	OFFSET ??__F?_Iostream_object@?$_Error_objects@H@std@@2V_Iostream_error_category@2@A@@YAXXZ ; `dynamic atexit destructor for 'std::_Error_objects<int>::_Iostream_object''
	call	_atexit
	add	esp, 4
	pop	ebp
	ret	0
??__E?_Iostream_object@?$_Error_objects@H@std@@2V_Iostream_error_category@2@A@@YAXXZ ENDP ; `dynamic initializer for 'std::_Error_objects<int>::_Iostream_object''
text$yc	ENDS
; Function compile flags: /Odtp
;	COMDAT ??__F?_Generic_object@?$_Error_objects@H@std@@2V_Generic_error_category@2@A@@YAXXZ
text$yd	SEGMENT
??__F?_Generic_object@?$_Error_objects@H@std@@2V_Generic_error_category@2@A@@YAXXZ PROC ; `dynamic atexit destructor for 'std::_Error_objects<int>::_Generic_object'', COMDAT
	push	ebp
	mov	ebp, esp
	mov	ecx, OFFSET ?_Generic_object@?$_Error_objects@H@std@@2V_Generic_error_category@2@A ; std::_Error_objects<int>::_Generic_object
	call	??1_Generic_error_category@std@@UAE@XZ
	pop	ebp
	ret	0
??__F?_Generic_object@?$_Error_objects@H@std@@2V_Generic_error_category@2@A@@YAXXZ ENDP ; `dynamic atexit destructor for 'std::_Error_objects<int>::_Generic_object''
text$yd	ENDS
; Function compile flags: /Odtp
; File c:\program files (x86)\microsoft visual studio 11.0\vc\include\xmemory0
;	COMDAT ??__E?_Generic_object@?$_Error_objects@H@std@@2V_Generic_error_category@2@A@@YAXXZ
text$yc	SEGMENT
??__E?_Generic_object@?$_Error_objects@H@std@@2V_Generic_error_category@2@A@@YAXXZ PROC ; `dynamic initializer for 'std::_Error_objects<int>::_Generic_object'', COMDAT

; 627  : 		{	// estimate maximum array size

	push	ebp
	mov	ebp, esp
	mov	ecx, OFFSET ?_Generic_object@?$_Error_objects@H@std@@2V_Generic_error_category@2@A ; std::_Error_objects<int>::_Generic_object
	call	??0_Generic_error_category@std@@QAE@XZ	; std::_Generic_error_category::_Generic_error_category
	push	OFFSET ??__F?_Generic_object@?$_Error_objects@H@std@@2V_Generic_error_category@2@A@@YAXXZ ; `dynamic atexit destructor for 'std::_Error_objects<int>::_Generic_object''
	call	_atexit
	add	esp, 4
	pop	ebp
	ret	0
??__E?_Generic_object@?$_Error_objects@H@std@@2V_Generic_error_category@2@A@@YAXXZ ENDP ; `dynamic initializer for 'std::_Error_objects<int>::_Generic_object''
text$yc	ENDS
; Function compile flags: /Odtp
; File c:\program files (x86)\microsoft visual studio 11.0\vc\include\xmemory0
;	COMDAT ??$_Allocate@D@std@@YAPADIPAD@Z
_TEXT	SEGMENT
__Ptr$ = -4						; size = 4
__Count$ = 8						; size = 4
___formal$ = 12						; size = 4
??$_Allocate@D@std@@YAPADIPAD@Z PROC			; std::_Allocate<char>, COMDAT

; 22   : 	{	// allocate storage for _Count elements of type _Ty

	push	ebp
	mov	ebp, esp
	push	ecx

; 23   : 	void *_Ptr = 0;

	mov	DWORD PTR __Ptr$[ebp], 0

; 24   : 
; 25   : 	if (_Count == 0)

	cmp	DWORD PTR __Count$[ebp], 0
	jne	SHORT $LN4@Allocate

; 26   : 		;
; 27   : 	else if (((size_t)(-1) / sizeof (_Ty) < _Count)

	jmp	SHORT $LN3@Allocate
$LN4@Allocate:

; 28   : 		|| (_Ptr = ::operator new(_Count * sizeof (_Ty))) == 0)

	cmp	DWORD PTR __Count$[ebp], -1
	ja	SHORT $LN1@Allocate
	mov	eax, DWORD PTR __Count$[ebp]
	push	eax
	call	??2@YAPAXI@Z				; operator new
	add	esp, 4
	mov	DWORD PTR __Ptr$[ebp], eax
	cmp	DWORD PTR __Ptr$[ebp], 0
	jne	SHORT $LN3@Allocate
$LN1@Allocate:

; 29   : 		_Xbad_alloc();	// report no memory

	call	?_Xbad_alloc@std@@YAXXZ			; std::_Xbad_alloc
$LN3@Allocate:

; 30   : 
; 31   : 	return ((_Ty *)_Ptr);

	mov	eax, DWORD PTR __Ptr$[ebp]
$LN6@Allocate:

; 32   : 	}

	mov	esp, ebp
	pop	ebp
	ret	0
??$_Allocate@D@std@@YAPADIPAD@Z ENDP			; std::_Allocate<char>
_TEXT	ENDS
; Function compile flags: /Odtp
; File c:\program files (x86)\microsoft visual studio 11.0\vc\include\xstddef
;	COMDAT ??$addressof@D@std@@YAPADAAD@Z
_TEXT	SEGMENT
__Val$ = 8						; size = 4
??$addressof@D@std@@YAPADAAD@Z PROC			; std::addressof<char>, COMDAT

; 85   : 	{	// return address of _Val

	push	ebp
	mov	ebp, esp

; 86   : 	return (reinterpret_cast<_Ty *>(
; 87   : 		(&const_cast<char&>(
; 88   : 		reinterpret_cast<const volatile char&>(_Val)))));

	mov	eax, DWORD PTR __Val$[ebp]

; 89   : 	}

	pop	ebp
	ret	0
??$addressof@D@std@@YAPADAAD@Z ENDP			; std::addressof<char>
_TEXT	ENDS
; Function compile flags: /Odtp
; File c:\program files (x86)\microsoft visual studio 11.0\vc\include\xmemory0
;	COMDAT ??$destroy@PAD@?$_Wrap_alloc@V?$allocator@D@std@@@std@@QAEXPAPAD@Z
_TEXT	SEGMENT
_this$ = -4						; size = 4
__Ptr$ = 8						; size = 4
??$destroy@PAD@?$_Wrap_alloc@V?$allocator@D@std@@@std@@QAEXPAPAD@Z PROC ; std::_Wrap_alloc<std::allocator<char> >::destroy<char *>, COMDAT
; _this$ = ecx

; 907  : 		void destroy(_Ty *_Ptr)

	push	ebp
	mov	ebp, esp
	push	ecx
	mov	DWORD PTR _this$[ebp], ecx

; 908  : 		{	// destroy object at _Ptr
; 909  : 		_Mytraits::destroy(*this, _Ptr);

	mov	eax, DWORD PTR __Ptr$[ebp]
	push	eax
	mov	ecx, DWORD PTR _this$[ebp]
	push	ecx
	call	??$destroy@PAD@?$allocator_traits@V?$allocator@D@std@@@std@@SAXAAV?$allocator@D@1@PAPAD@Z ; std::allocator_traits<std::allocator<char> >::destroy<char *>
	add	esp, 8

; 910  : 		}

	mov	esp, ebp
	pop	ebp
	ret	4
??$destroy@PAD@?$_Wrap_alloc@V?$allocator@D@std@@@std@@QAEXPAPAD@Z ENDP ; std::_Wrap_alloc<std::allocator<char> >::destroy<char *>
_TEXT	ENDS
; Function compile flags: /Odtp
; File c:\program files (x86)\microsoft visual studio 11.0\vc\include\xmemory0
;	COMDAT ??$construct@PADAAPAD@?$_Wrap_alloc@V?$allocator@D@std@@@std@@QAEXPAPADAAPAD@Z
_TEXT	SEGMENT
_this$ = -4						; size = 4
__Ptr$ = 8						; size = 4
__V0$ = 12						; size = 4
??$construct@PADAAPAD@?$_Wrap_alloc@V?$allocator@D@std@@@std@@QAEXPAPADAAPAD@Z PROC ; std::_Wrap_alloc<std::allocator<char> >::construct<char *,char * &>, COMDAT
; _this$ = ecx

; 903  : _VARIADIC_EXPAND_0X(_WRAP_ALLOC_CONSTRUCT, , , , )

	push	ebp
	mov	ebp, esp
	push	ecx
	mov	DWORD PTR _this$[ebp], ecx
	mov	eax, DWORD PTR __V0$[ebp]
	push	eax
	call	??$forward@AAPAD@std@@YAAAPADAAPAD@Z	; std::forward<char * &>
	add	esp, 4
	push	eax
	mov	ecx, DWORD PTR __Ptr$[ebp]
	push	ecx
	mov	edx, DWORD PTR _this$[ebp]
	push	edx
	call	??$construct@PADAAPAD@?$allocator_traits@V?$allocator@D@std@@@std@@SAXAAV?$allocator@D@1@PAPADAAPAD@Z ; std::allocator_traits<std::allocator<char> >::construct<char *,char * &>
	add	esp, 12					; 0000000cH
	mov	esp, ebp
	pop	ebp
	ret	8
??$construct@PADAAPAD@?$_Wrap_alloc@V?$allocator@D@std@@@std@@QAEXPAPADAAPAD@Z ENDP ; std::_Wrap_alloc<std::allocator<char> >::construct<char *,char * &>
_TEXT	ENDS
; Function compile flags: /Odtp
; File c:\users\zhitao li\documents\visual studio 2012\projects\freefalcon\sim\otwdrive\padlock.cpp
;	COMDAT ??__ECOS_SUN_EFFECT_HALF_ANGLE@@YAXXZ
text$yc	SEGMENT
??__ECOS_SUN_EFFECT_HALF_ANGLE@@YAXXZ PROC		; `dynamic initializer for 'COS_SUN_EFFECT_HALF_ANGLE'', COMDAT

; 72   : static const float	COS_SUN_EFFECT_HALF_ANGLE	= (float)cos( 20.0f * DTR );//me123 changed from 10 since the sun is so small in f4

	push	ebp
	mov	ebp, esp
	push	ecx
	movss	xmm0, DWORD PTR __real@3eb2b8c1
	movss	DWORD PTR [esp], xmm0
	call	?cos@@YAMM@Z				; cos
	add	esp, 4
	fstp	DWORD PTR _COS_SUN_EFFECT_HALF_ANGLE
	pop	ebp
	ret	0
??__ECOS_SUN_EFFECT_HALF_ANGLE@@YAXXZ ENDP		; `dynamic initializer for 'COS_SUN_EFFECT_HALF_ANGLE''
text$yc	ENDS
; Function compile flags: /Odtp
; File c:\users\zhitao li\documents\visual studio 2012\projects\freefalcon\graphics\include\tod.h
;	COMDAT ?ThereIsASun@CTimeOfDay@@QAEHXZ
_TEXT	SEGMENT
_this$ = -8						; size = 4
tv66 = -4						; size = 4
?ThereIsASun@CTimeOfDay@@QAEHXZ PROC			; CTimeOfDay::ThereIsASun, COMDAT
; _this$ = ecx

; 111  : 	int ThereIsASun()							{ return (ISunPitch > 0); };

	push	ebp
	mov	ebp, esp
	sub	esp, 8
	mov	DWORD PTR _this$[ebp], ecx
	mov	eax, DWORD PTR _this$[ebp]
	cmp	DWORD PTR [eax+328], 0
	jle	SHORT $LN3@ThereIsASu
	mov	DWORD PTR tv66[ebp], 1
	jmp	SHORT $LN4@ThereIsASu
$LN3@ThereIsASu:
	mov	DWORD PTR tv66[ebp], 0
$LN4@ThereIsASu:
	mov	eax, DWORD PTR tv66[ebp]
	mov	esp, ebp
	pop	ebp
	ret	0
?ThereIsASun@CTimeOfDay@@QAEHXZ ENDP			; CTimeOfDay::ThereIsASun
_TEXT	ENDS
; Function compile flags: /Odtp
; File c:\users\zhitao li\documents\visual studio 2012\projects\freefalcon\graphics\include\drawbsp.h
;	COMDAT ?LabelColor@DrawableBSP@@QAEKXZ
_TEXT	SEGMENT
_this$ = -4						; size = 4
?LabelColor@DrawableBSP@@QAEKXZ PROC			; DrawableBSP::LabelColor, COMDAT
; _this$ = ecx

; 63   : 	DWORD LabelColor()										{ return labelColor; }

	push	ebp
	mov	ebp, esp
	push	ecx
	mov	DWORD PTR _this$[ebp], ecx
	mov	eax, DWORD PTR _this$[ebp]
	mov	eax, DWORD PTR [eax+164]
	mov	esp, ebp
	pop	ebp
	ret	0
?LabelColor@DrawableBSP@@QAEKXZ ENDP			; DrawableBSP::LabelColor
_TEXT	ENDS
; Function compile flags: /Odtp
; File c:\users\zhitao li\documents\visual studio 2012\projects\freefalcon\graphics\include\display.h
;	COMDAT ?GetRightPixel@VirtualDisplay@@QAEMXZ
_TEXT	SEGMENT
_this$ = -4						; size = 4
?GetRightPixel@VirtualDisplay@@QAEMXZ PROC		; VirtualDisplay::GetRightPixel, COMDAT
; _this$ = ecx

; 156  : 	float GetRightPixel( void )		{ return rightPixel; };

	push	ebp
	mov	ebp, esp
	push	ecx
	mov	DWORD PTR _this$[ebp], ecx
	mov	eax, DWORD PTR _this$[ebp]
	fld	DWORD PTR [eax+64]
	mov	esp, ebp
	pop	ebp
	ret	0
?GetRightPixel@VirtualDisplay@@QAEMXZ ENDP		; VirtualDisplay::GetRightPixel
_TEXT	ENDS
; Function compile flags: /Odtp
; File c:\users\zhitao li\documents\visual studio 2012\projects\freefalcon\graphics\include\display.h
;	COMDAT ?GetLeftPixel@VirtualDisplay@@QAEMXZ
_TEXT	SEGMENT
_this$ = -4						; size = 4
?GetLeftPixel@VirtualDisplay@@QAEMXZ PROC		; VirtualDisplay::GetLeftPixel, COMDAT
; _this$ = ecx

; 155  : 	float GetLeftPixel( void )		{ return leftPixel; };

	push	ebp
	mov	ebp, esp
	push	ecx
	mov	DWORD PTR _this$[ebp], ecx
	mov	eax, DWORD PTR _this$[ebp]
	fld	DWORD PTR [eax+60]
	mov	esp, ebp
	pop	ebp
	ret	0
?GetLeftPixel@VirtualDisplay@@QAEMXZ ENDP		; VirtualDisplay::GetLeftPixel
_TEXT	ENDS
; Function compile flags: /Odtp
; File c:\users\zhitao li\documents\visual studio 2012\projects\freefalcon\graphics\include\display.h
;	COMDAT ?GetBottomPixel@VirtualDisplay@@QAEMXZ
_TEXT	SEGMENT
_this$ = -4						; size = 4
?GetBottomPixel@VirtualDisplay@@QAEMXZ PROC		; VirtualDisplay::GetBottomPixel, COMDAT
; _this$ = ecx

; 154  : 	float GetBottomPixel( void )	{ return bottomPixel; };

	push	ebp
	mov	ebp, esp
	push	ecx
	mov	DWORD PTR _this$[ebp], ecx
	mov	eax, DWORD PTR _this$[ebp]
	fld	DWORD PTR [eax+56]
	mov	esp, ebp
	pop	ebp
	ret	0
?GetBottomPixel@VirtualDisplay@@QAEMXZ ENDP		; VirtualDisplay::GetBottomPixel
_TEXT	ENDS
; Function compile flags: /Odtp
; File c:\users\zhitao li\documents\visual studio 2012\projects\freefalcon\graphics\include\display.h
;	COMDAT ?GetTopPixel@VirtualDisplay@@QAEMXZ
_TEXT	SEGMENT
_this$ = -4						; size = 4
?GetTopPixel@VirtualDisplay@@QAEMXZ PROC		; VirtualDisplay::GetTopPixel, COMDAT
; _this$ = ecx

; 153  : 	float GetTopPixel( void )		{ return topPixel; };

	push	ebp
	mov	ebp, esp
	push	ecx
	mov	DWORD PTR _this$[ebp], ecx
	mov	eax, DWORD PTR _this$[ebp]
	fld	DWORD PTR [eax+52]
	mov	esp, ebp
	pop	ebp
	ret	0
?GetTopPixel@VirtualDisplay@@QAEMXZ ENDP		; VirtualDisplay::GetTopPixel
_TEXT	ENDS
; Function compile flags: /Odtp
; File c:\users\zhitao li\documents\visual studio 2012\projects\freefalcon\sim\include\digi.h
;	COMDAT ?GetCurrentMode@DigitalBrain@@QAE?AW4DigiMode@1@XZ
_TEXT	SEGMENT
_this$ = -4						; size = 4
?GetCurrentMode@DigitalBrain@@QAE?AW4DigiMode@1@XZ PROC	; DigitalBrain::GetCurrentMode, COMDAT
; _this$ = ecx

; 226  : 	DigiMode GetCurrentMode(void) {return curMode;}

	push	ebp
	mov	ebp, esp
	push	ecx
	mov	DWORD PTR _this$[ebp], ecx
	mov	eax, DWORD PTR _this$[ebp]
	mov	eax, DWORD PTR [eax+136]
	mov	esp, ebp
	pop	ebp
	ret	0
?GetCurrentMode@DigitalBrain@@QAE?AW4DigiMode@1@XZ ENDP	; DigitalBrain::GetCurrentMode
_TEXT	ENDS
; Function compile flags: /Odtp
; File c:\users\zhitao li\documents\visual studio 2012\projects\freefalcon\sim\include\fcc.h
;	COMDAT ?GetSubMode@FireControlComputer@@QAE?AW4FCCSubMode@1@XZ
_TEXT	SEGMENT
_this$ = -4						; size = 4
?GetSubMode@FireControlComputer@@QAE?AW4FCCSubMode@1@XZ PROC ; FireControlComputer::GetSubMode, COMDAT
; _this$ = ecx

; 281  : 	FCCSubMode GetSubMode (void) {return (subMode);};

	push	ebp
	mov	ebp, esp
	push	ecx
	mov	DWORD PTR _this$[ebp], ecx
	mov	eax, DWORD PTR _this$[ebp]
	mov	eax, DWORD PTR [eax+148]
	mov	esp, ebp
	pop	ebp
	ret	0
?GetSubMode@FireControlComputer@@QAE?AW4FCCSubMode@1@XZ ENDP ; FireControlComputer::GetSubMode
_TEXT	ENDS
; Function compile flags: /Odtp
; File c:\users\zhitao li\documents\visual studio 2012\projects\freefalcon\sim\include\fcc.h
;	COMDAT ?GetMasterMode@FireControlComputer@@QAE?AW4FCCMasterMode@1@XZ
_TEXT	SEGMENT
_this$ = -4						; size = 4
?GetMasterMode@FireControlComputer@@QAE?AW4FCCMasterMode@1@XZ PROC ; FireControlComputer::GetMasterMode, COMDAT
; _this$ = ecx

; 276  : 	FCCMasterMode GetMasterMode (void) {return (masterMode);};

	push	ebp
	mov	ebp, esp
	push	ecx
	mov	DWORD PTR _this$[ebp], ecx
	mov	eax, DWORD PTR _this$[ebp]
	mov	eax, DWORD PTR [eax+144]
	mov	esp, ebp
	pop	ebp
	ret	0
?GetMasterMode@FireControlComputer@@QAE?AW4FCCMasterMode@1@XZ ENDP ; FireControlComputer::GetMasterMode
_TEXT	ENDS
; Function compile flags: /Odtp
; File c:\users\zhitao li\documents\visual studio 2012\projects\freefalcon\sim\include\object.h
;	COMDAT ?BaseData@SimObjectType@@QAEPAVFalconEntity@@XZ
_TEXT	SEGMENT
_this$ = -4						; size = 4
?BaseData@SimObjectType@@QAEPAVFalconEntity@@XZ PROC	; SimObjectType::BaseData, COMDAT
; _this$ = ecx

; 92   : 	FalconEntity* BaseData(void) { return baseData.get(); };

	push	ebp
	mov	ebp, esp
	push	ecx
	mov	DWORD PTR _this$[ebp], ecx
	mov	ecx, DWORD PTR _this$[ebp]
	call	?get@?$VuBin@VFalconEntity@@@@QBEPAVFalconEntity@@XZ ; VuBin<FalconEntity>::get
	mov	esp, ebp
	pop	ebp
	ret	0
?BaseData@SimObjectType@@QAEPAVFalconEntity@@XZ ENDP	; SimObjectType::BaseData
_TEXT	ENDS
; Function compile flags: /Odtp
; File c:\users\zhitao li\documents\visual studio 2012\projects\freefalcon\sim\include\sensclas.h
;	COMDAT ?CurrentTarget@SensorClass@@QAEPAVSimObjectType@@XZ
_TEXT	SEGMENT
_this$ = -4						; size = 4
?CurrentTarget@SensorClass@@QAEPAVSimObjectType@@XZ PROC ; SensorClass::CurrentTarget, COMDAT
; _this$ = ecx

; 46   : 	SimObjectType* CurrentTarget(void)	{ return lockedTarget; };

	push	ebp
	mov	ebp, esp
	push	ecx
	mov	DWORD PTR _this$[ebp], ecx
	mov	eax, DWORD PTR _this$[ebp]
	mov	eax, DWORD PTR [eax+48]
	mov	esp, ebp
	pop	ebp
	ret	0
?CurrentTarget@SensorClass@@QAEPAVSimObjectType@@XZ ENDP ; SensorClass::CurrentTarget
_TEXT	ENDS
; Function compile flags: /Odtp
; File c:\users\zhitao li\documents\visual studio 2012\projects\freefalcon\sim\include\simveh.h
;	COMDAT ?Brain@SimVehicleClass@@QAEPAVBaseBrain@@XZ
_TEXT	SEGMENT
_this$ = -4						; size = 4
?Brain@SimVehicleClass@@QAEPAVBaseBrain@@XZ PROC	; SimVehicleClass::Brain, COMDAT
; _this$ = ecx

; 67   : 	BaseBrain* Brain(void) {return theBrain;};

	push	ebp
	mov	ebp, esp
	push	ecx
	mov	DWORD PTR _this$[ebp], ecx
	mov	eax, DWORD PTR _this$[ebp]
	mov	eax, DWORD PTR [eax+672]
	mov	esp, ebp
	pop	ebp
	ret	0
?Brain@SimVehicleClass@@QAEPAVBaseBrain@@XZ ENDP	; SimVehicleClass::Brain
_TEXT	ENDS
; Function compile flags: /Odtp
; File c:\users\zhitao li\documents\visual studio 2012\projects\freefalcon\falclib\include\falcsess.h
;	COMDAT ?GetGame@FalconSessionEntity@@QAEPAVFalconGameEntity@@XZ
_TEXT	SEGMENT
_this$ = -4						; size = 4
?GetGame@FalconSessionEntity@@QAEPAVFalconGameEntity@@XZ PROC ; FalconSessionEntity::GetGame, COMDAT
; _this$ = ecx

; 154  : 	FalconGameEntity* GetGame (void)              { return (FalconGameEntity*)VuSessionEntity::Game(); }

	push	ebp
	mov	ebp, esp
	push	ecx
	mov	DWORD PTR _this$[ebp], ecx
	mov	ecx, DWORD PTR _this$[ebp]
	call	?Game@VuSessionEntity@@QAEPAVVuGameEntity@@XZ ; VuSessionEntity::Game
	mov	esp, ebp
	pop	ebp
	ret	0
?GetGame@FalconSessionEntity@@QAEPAVFalconGameEntity@@XZ ENDP ; FalconSessionEntity::GetGame
_TEXT	ENDS
; Function compile flags: /Odtp
; File c:\users\zhitao li\documents\visual studio 2012\projects\freefalcon\sim\otwdrive\padlock.cpp
_TEXT	SEGMENT
tv1301 = -336						; size = 8
_newlabelColor$1 = -328					; size = 4
tv1168 = -324						; size = 4
tv1040 = -320						; size = 4
tv1174 = -316						; size = 4
tv1034 = -312						; size = 4
tv1185 = -308						; size = 4
tv1029 = -304						; size = 4
_maxrange$2 = -300					; size = 4
tv1259 = -296						; size = 4
tv1023 = -292						; size = 4
tv1247 = -288						; size = 4
tv1299 = -284						; size = 4
tv1179 = -280						; size = 4
tv1294 = -276						; size = 4
_strength$3 = -272					; size = 4
tv1253 = -268						; size = 4
tv364 = -264						; size = 4
_vc$4 = -260						; size = 4
tv359 = -256						; size = 4
tv837 = -252						; size = 4
tv354 = -248						; size = 4
_limit$5 = -244						; size = 4
_scale$6 = -240						; size = 4
_candbottom$ = -236					; size = 4
_candleft$ = -232					; size = 4
_candright$ = -228					; size = 4
_candtop$ = -224					; size = 4
_pCandidate$ = -220					; size = 4
_theMissile$7 = -216					; size = 4
_labelColor$8 = -212					; size = 4
_red$9 = -208						; size = 4
_pac$ = -204						; size = 4
_green$10 = -200					; size = 4
_xDiff$ = -196						; size = 4
tv1296 = -190						; size = 2
_blue$11 = -188						; size = 4
_objbottom$ = -184					; size = 4
_objRange$ = -180					; size = 4
_objright$ = -176					; size = 4
_objleft$ = -172					; size = 4
_objtop$ = -168						; size = 4
_zDiff$ = -164						; size = 4
_yDiff$ = -160						; size = 4
_colorsub$12 = -156					; size = 4
_theMissile$13 = -152					; size = 4
_this$ = -148						; size = 4
_objectPoint$ = -144					; size = 52
_candidatePoint$ = -92					; size = 52
_candidateLoc$ = -40					; size = 12
_sunRay$14 = -28					; size = 12
_priorityLoc$ = -16					; size = 12
__$ArrayPad$ = -4					; size = 4
_highlightPriority$ = 8					; size = 4
?Padlock_DrawSquares@OTWDriverClass@@AAEXH@Z PROC	; OTWDriverClass::Padlock_DrawSquares
; _this$ = ecx

; 1733 : {

	push	ebp
	mov	ebp, esp
	sub	esp, 336				; 00000150H
	mov	eax, DWORD PTR ___security_cookie
	xor	eax, ebp
	mov	DWORD PTR __$ArrayPad$[ebp], eax
	mov	DWORD PTR _this$[ebp], ecx

; 1734 : 	ThreeDVertex	objectPoint;
; 1735 : 	ThreeDVertex	candidatePoint;
; 1736 : 
; 1737 : 	Tpoint			candidateLoc;
; 1738 : 	Tpoint			priorityLoc;
; 1739 : 
; 1740 : 	SimBaseClass*	pCandidate;
; 1741 : 	float objtop, objbottom;
; 1742 : 	float objleft, objright;
; 1743 : 	float candtop, candbottom;
; 1744 : 	float candleft, candright;
; 1745 : 	float xDiff, yDiff, zDiff, objRange;
; 1746 : 	AircraftClass *pac = SimDriver.GetPlayerAircraft();

	mov	ecx, OFFSET ?SimDriver@@3VSimulationDriver@@A ; SimDriver
	call	?GetPlayerAircraft@SimulationDriver@@QBEPAVAircraftClass@@XZ ; SimulationDriver::GetPlayerAircraft
	mov	DWORD PTR _pac$[ebp], eax

; 1747 : 
; 1748 : 	
; 1749 : 	if(padlockGlance != GlanceNose && padlockGlance != GlanceTail) {

	mov	eax, DWORD PTR _this$[ebp]
	cmp	DWORD PTR [eax+33856], 1
	je	$LN8@Padlock_Dr
	mov	ecx, DWORD PTR _this$[ebp]
	cmp	DWORD PTR [ecx+33856], 2
	je	$LN8@Padlock_Dr

; 1750 : 
; 1751 : 		if(mpPadlockPriorityObject && highlightPriority == TRUE && (PlayerOptions.GetPadlockMode() == PDEnhanced || mTDTimeout > 0.0F)) {

	mov	edx, DWORD PTR _this$[ebp]
	cmp	DWORD PTR [edx+33804], 0
	je	$LN34@Padlock_Dr
	cmp	DWORD PTR _highlightPriority$[ebp], 1
	jne	$LN34@Padlock_Dr
	mov	ecx, OFFSET ?PlayerOptions@@3VPlayerOptionsClass@@A ; PlayerOptions
	call	?GetPadlockMode@PlayerOptionsClass@@QAEHXZ ; PlayerOptionsClass::GetPadlockMode
	test	eax, eax
	je	SHORT $LN33@Padlock_Dr
	mov	eax, DWORD PTR _this$[ebp]
	movss	xmm0, DWORD PTR [eax+33824]
	comiss	xmm0, DWORD PTR __real@00000000
	jbe	$LN34@Padlock_Dr
$LN33@Padlock_Dr:

; 1752 : 
; 1753 : // 2001-01-26 ADDED BY S.G. SIMULATES HMS FOR THE PLAYER THROUGH THE PADLOCK VIEW
; 1754 : 			// Only for vehicle eqipped with HMS...
; 1755 : 			VehicleClassDataType	*vc	= (VehicleClassDataType *)Falcon4ClassTable[otwPlatform->Type() - VU_LAST_ENTITY_TYPE].dataPtr;

	mov	ecx, DWORD PTR _this$[ebp]
	add	ecx, 32336				; 00007e50H
	call	??C?$VuBin@VSimBaseClass@@@@QBEPAVSimBaseClass@@XZ ; VuBin<SimBaseClass>::operator->
	mov	ecx, eax
	call	?Type@VuEntity@@QBEGXZ			; VuEntity::Type
	movzx	ecx, ax
	sub	ecx, 100				; 00000064H
	imul	ecx, 81					; 00000051H
	mov	edx, DWORD PTR ?Falcon4ClassTable@@3PAUFalcon4EntityClassType@@A ; Falcon4ClassTable
	mov	eax, DWORD PTR [edx+ecx+77]
	mov	DWORD PTR _vc$4[ebp], eax

; 1756 : 			if (vc && vc->Flags & 0x20000000) {

	cmp	DWORD PTR _vc$4[ebp], 0
	je	$LN30@Padlock_Dr
	mov	ecx, DWORD PTR _vc$4[ebp]
	mov	edx, DWORD PTR [ecx+4]
	and	edx, 536870912				; 20000000H
	je	$LN30@Padlock_Dr

; 1757 : 				MissileClass* theMissile;
; 1758 : 				theMissile = (MissileClass*)(pac->Sms->GetCurrentWeapon());

	mov	eax, DWORD PTR _pac$[ebp]
	mov	ecx, DWORD PTR [eax+940]
	mov	edx, DWORD PTR _pac$[ebp]
	mov	eax, DWORD PTR [ecx]
	mov	ecx, DWORD PTR [edx+940]
	mov	edx, DWORD PTR [eax+12]
	call	edx
	mov	DWORD PTR _theMissile$13[ebp], eax

; 1759 : 
; 1760 : 				// First, make sure we have a Aim9 in uncage mode selected...
; 1761 : 				if (pac->Sms->curWeaponType == wtAim9) {

	mov	eax, DWORD PTR _pac$[ebp]
	mov	ecx, DWORD PTR [eax+940]
	cmp	DWORD PTR [ecx+148], 1
	jne	$LN30@Padlock_Dr

; 1762 : 					if (theMissile && theMissile->isCaged == 0) {

	cmp	DWORD PTR _theMissile$13[ebp], 0
	je	$LN30@Padlock_Dr
	mov	edx, DWORD PTR _theMissile$13[ebp]
	cmp	DWORD PTR [edx+728], 0
	jne	$LN30@Padlock_Dr

; 1763 : 						// Now check if the current target (if any) is not the padlocked sim target
; 1764 : 						if (!theMissile->targetPtr || theMissile->targetPtr != (SimObjectType *)mfdVirtualDisplay) {

	mov	eax, DWORD PTR _theMissile$13[ebp]
	cmp	DWORD PTR [eax+656], 0
	je	SHORT $LN28@Padlock_Dr
	mov	ecx, DWORD PTR _theMissile$13[ebp]
	mov	edx, DWORD PTR _this$[ebp]
	mov	eax, DWORD PTR [ecx+656]
	cmp	eax, DWORD PTR [edx+32344]
	je	$LN29@Padlock_Dr
$LN28@Padlock_Dr:

; 1765 : 							// Use the sim object we reference in our SetmpPadlockPriorityObject as a target
; 1766 : 							
; 1767 : 							// JB 010712 Set the seeker to look where the target is.
; 1768 : 							if (theMissile->sensorArray[0] && mfdVirtualDisplay)

	mov	ecx, 4
	imul	ecx, 0
	mov	edx, DWORD PTR _theMissile$13[ebp]
	mov	eax, DWORD PTR [edx+648]
	cmp	DWORD PTR [ecx+eax], 0
	je	SHORT $LN27@Padlock_Dr
	mov	ecx, DWORD PTR _this$[ebp]
	cmp	DWORD PTR [ecx+32344], 0
	je	SHORT $LN27@Padlock_Dr

; 1769 : 								theMissile->sensorArray[0]->SetSeekerPos(((SimObjectType *)mfdVirtualDisplay)->localData->az,
; 1770 : 									((SimObjectType *)mfdVirtualDisplay)->localData->el);

	mov	edx, DWORD PTR _this$[ebp]
	mov	eax, DWORD PTR [edx+32344]
	mov	ecx, DWORD PTR [eax+12]
	push	ecx
	movss	xmm0, DWORD PTR [ecx+28]
	movss	DWORD PTR [esp], xmm0
	mov	edx, DWORD PTR _this$[ebp]
	mov	eax, DWORD PTR [edx+32344]
	mov	ecx, DWORD PTR [eax+12]
	push	ecx
	movss	xmm0, DWORD PTR [ecx+16]
	movss	DWORD PTR [esp], xmm0
	mov	edx, 4
	imul	edx, 0
	mov	eax, DWORD PTR _theMissile$13[ebp]
	mov	ecx, DWORD PTR [eax+648]
	mov	edx, DWORD PTR [edx+ecx]
	mov	eax, 4
	imul	eax, 0
	mov	ecx, DWORD PTR _theMissile$13[ebp]
	mov	ecx, DWORD PTR [ecx+648]
	mov	edx, DWORD PTR [edx]
	mov	ecx, DWORD PTR [eax+ecx]
	mov	eax, DWORD PTR [edx+56]
	call	eax
$LN27@Padlock_Dr:

; 1771 : 
; 1772 : 							theMissile->SetTarget((SimObjectType *)mfdVirtualDisplay);

	mov	ecx, DWORD PTR _this$[ebp]
	mov	edx, DWORD PTR [ecx+32344]
	push	edx
	mov	ecx, DWORD PTR _theMissile$13[ebp]
	call	?SetTarget@MissileClass@@QAEXPAVSimObjectType@@@Z ; MissileClass::SetTarget
$LN29@Padlock_Dr:

; 1773 : 						}
; 1774 : 
; 1775 : 						// We need to update the localData table if not in flight (ie: target not passed to the missile)
; 1776 : 						if (theMissile->launchState != MissileClass::InFlight && theMissile->targetPtr)

	mov	eax, DWORD PTR _theMissile$13[ebp]
	cmp	DWORD PTR [eax+724], 2
	je	SHORT $LN26@Padlock_Dr
	mov	ecx, DWORD PTR _theMissile$13[ebp]
	cmp	DWORD PTR [ecx+656], 0
	je	SHORT $LN26@Padlock_Dr

; 1777 : 							CalcRelGeom (otwPlatform.get(), theMissile->targetPtr, NULL, 1.0F / SimLibMajorFrameTime);

	movss	xmm0, DWORD PTR __real@3f800000
	divss	xmm0, DWORD PTR ?SimLibMajorFrameTime@@3MA
	push	ecx
	movss	DWORD PTR [esp], xmm0
	push	0
	mov	edx, DWORD PTR _theMissile$13[ebp]
	mov	eax, DWORD PTR [edx+656]
	push	eax
	mov	ecx, DWORD PTR _this$[ebp]
	add	ecx, 32336				; 00007e50H
	call	?get@?$VuBin@VSimBaseClass@@@@QBEPAVSimBaseClass@@XZ ; VuBin<SimBaseClass>::get
	push	eax
	call	?CalcRelGeom@@YAXPAVSimBaseClass@@PAVSimObjectType@@QAY02MM@Z ; CalcRelGeom
	add	esp, 16					; 00000010H
$LN26@Padlock_Dr:

; 1778 : 						//  Run its seeker to check if it can see it...
; 1779 : 						theMissile->RunSeeker();

	mov	ecx, DWORD PTR _theMissile$13[ebp]
	call	?RunSeeker@MissileClass@@QAEXXZ		; MissileClass::RunSeeker
$LN30@Padlock_Dr:

; 1780 : 					}
; 1781 : 				}
; 1782 : 			}
; 1783 : // END OF ADDED SECTION
; 1784 : 
; 1785 : 			priorityLoc.x = mpPadlockPriorityObject->XPos();

	mov	ecx, DWORD PTR _this$[ebp]
	mov	ecx, DWORD PTR [ecx+33804]
	call	?XPos@VuEntity@@QBEMXZ			; VuEntity::XPos
	fstp	DWORD PTR _priorityLoc$[ebp]

; 1786 : 			priorityLoc.y = mpPadlockPriorityObject->YPos();

	mov	edx, DWORD PTR _this$[ebp]
	mov	ecx, DWORD PTR [edx+33804]
	call	?YPos@VuEntity@@QBEMXZ			; VuEntity::YPos
	fstp	DWORD PTR _priorityLoc$[ebp+4]

; 1787 : 			priorityLoc.z = mpPadlockPriorityObject->ZPos();

	mov	eax, DWORD PTR _this$[ebp]
	mov	ecx, DWORD PTR [eax+33804]
	call	?ZPos@VuEntity@@QBEMXZ			; VuEntity::ZPos
	fstp	DWORD PTR _priorityLoc$[ebp+8]

; 1788 : 
; 1789 : // 2002-04-06 MN Done below now
; 1790 : /*			xDiff				= priorityLoc.x - SimDriver.GetPlayerAircraft()->XPos();
; 1791 : 			yDiff				= priorityLoc.y - SimDriver.GetPlayerAircraft()->YPos();
; 1792 : 			zDiff				= priorityLoc.z - SimDriver.GetPlayerAircraft()->ZPos();
; 1793 : 
; 1794 : 			objRange			= (float)sqrt(xDiff * xDiff + yDiff * yDiff + zDiff * zDiff);
; 1795 : 
; 1796 : 			objRange = max(objRange,1.0F);
; 1797 : 
; 1798 : 			float maxrange = g_fPadlockBreakDistance * NM_TO_FT;
; 1799 : 
; 1800 : 					// break lock
; 1801 : 			if (objRange > maxrange)
; 1802 : 			{ 
; 1803 : 				SetmpPadlockPriorityObject(NULL);
; 1804 : 				highlightPriority		= false;
; 1805 : 				mpPadlockCandidate		= NULL;
; 1806 : 				mPadlockCandidateID		= FalconNullId;
; 1807 : 				return;
; 1808 : 			}
; 1809 : 
; 1810 : 			// also break padlock when looking into the Sun
; 1811 : 
; 1812 : 			if (TheTimeOfDay.ThereIsASun())
; 1813 : 			{
; 1814 : 				float strength, scale;
; 1815 : 				Tpoint	sunRay;
; 1816 : 						
; 1817 : 				TheTimeOfDay.GetLightDirection( &sunRay );
; 1818 : 
; 1819 : 				// Normalize the vector to target
; 1820 : 				scale = 1.0f / objRange;
; 1821 : 				xDiff *= scale;
; 1822 : 				yDiff *= scale;
; 1823 : 				zDiff *= scale;
; 1824 : 
; 1825 : 				// Now do the dot product to get the cos of the angle between the rays
; 1826 : 				strength = xDiff*sunRay.x + yDiff*sunRay.y + zDiff*sunRay.z;
; 1827 : 
; 1828 : 				// Break lock 
; 1829 : 				if (((strength - COS_SUN_EFFECT_HALF_ANGLE) / (1.0f - COS_SUN_EFFECT_HALF_ANGLE))
; 1830 : 					> 0.75f)
; 1831 : 				{
; 1832 : 					SetmpPadlockPriorityObject(NULL);
; 1833 : 					highlightPriority		= false;
; 1834 : 					mpPadlockCandidate		= NULL;
; 1835 : 					mPadlockCandidateID		= FalconNullId;
; 1836 : 					return;
; 1837 : 				}
; 1838 : 
; 1839 : 			}
; 1840 : */		
; 1841 : 			renderer->TransformPoint(&priorityLoc, &objectPoint);

	lea	ecx, DWORD PTR _objectPoint$[ebp]
	push	ecx
	lea	edx, DWORD PTR _priorityLoc$[ebp]
	push	edx
	mov	eax, DWORD PTR _this$[ebp]
	mov	ecx, DWORD PTR [eax+33576]
	call	?TransformPoint@Render3D@@QAEXPAUTpoint@@PAUThreeDVertex@@@Z ; Render3D::TransformPoint

; 1842 : 
; 1843 : // OW Padlock box size fix
; 1844 : #if 0
; 1845 : 			objleft		= objectPoint.x - 2;
; 1846 : 			objright		= objectPoint.x + 2;
; 1847 : 			objtop		= objectPoint.y - 2;
; 1848 : 			objbottom	= objectPoint.y + 2;
; 1849 : #else
; 1850 : 			objleft		= objectPoint.x - g_nPadlockBoxSize;

	cvtsi2ss xmm0, DWORD PTR ?g_nPadlockBoxSize@@3HA ; g_nPadlockBoxSize
	movss	xmm1, DWORD PTR _objectPoint$[ebp]
	subss	xmm1, xmm0
	movss	DWORD PTR _objleft$[ebp], xmm1

; 1851 : 			objright		= objectPoint.x + g_nPadlockBoxSize;

	cvtsi2ss xmm0, DWORD PTR ?g_nPadlockBoxSize@@3HA ; g_nPadlockBoxSize
	addss	xmm0, DWORD PTR _objectPoint$[ebp]
	movss	DWORD PTR _objright$[ebp], xmm0

; 1852 : 			objtop		= objectPoint.y - g_nPadlockBoxSize;

	cvtsi2ss xmm0, DWORD PTR ?g_nPadlockBoxSize@@3HA ; g_nPadlockBoxSize
	movss	xmm1, DWORD PTR _objectPoint$[ebp+4]
	subss	xmm1, xmm0
	movss	DWORD PTR _objtop$[ebp], xmm1

; 1853 : 			objbottom	= objectPoint.y + g_nPadlockBoxSize;

	cvtsi2ss xmm0, DWORD PTR ?g_nPadlockBoxSize@@3HA ; g_nPadlockBoxSize
	addss	xmm0, DWORD PTR _objectPoint$[ebp+4]
	movss	DWORD PTR _objbottom$[ebp], xmm0

; 1854 : #endif
; 1855 : 
; 1856 : 			if(objtop    > renderer->GetTopPixel()    &&
; 1857 : 				objbottom < renderer->GetBottomPixel() &&
; 1858 : 				objleft   > renderer->GetLeftPixel()   &&
; 1859 : 				objright  < renderer->GetRightPixel()  &&
; 1860 : 				mpPadlockPriorityObject->drawPointer)  // JB 001202

	mov	ecx, DWORD PTR _this$[ebp]
	mov	ecx, DWORD PTR [ecx+33576]
	call	?GetTopPixel@VirtualDisplay@@QAEMXZ	; VirtualDisplay::GetTopPixel
	fstp	DWORD PTR tv1023[ebp]
	movss	xmm0, DWORD PTR _objtop$[ebp]
	comiss	xmm0, DWORD PTR tv1023[ebp]
	jbe	$LN15@Padlock_Dr
	mov	edx, DWORD PTR _this$[ebp]
	mov	ecx, DWORD PTR [edx+33576]
	call	?GetBottomPixel@VirtualDisplay@@QAEMXZ	; VirtualDisplay::GetBottomPixel
	fstp	DWORD PTR tv1029[ebp]
	movss	xmm0, DWORD PTR tv1029[ebp]
	comiss	xmm0, DWORD PTR _objbottom$[ebp]
	jbe	$LN15@Padlock_Dr
	mov	eax, DWORD PTR _this$[ebp]
	mov	ecx, DWORD PTR [eax+33576]
	call	?GetLeftPixel@VirtualDisplay@@QAEMXZ	; VirtualDisplay::GetLeftPixel
	fstp	DWORD PTR tv1034[ebp]
	movss	xmm0, DWORD PTR _objleft$[ebp]
	comiss	xmm0, DWORD PTR tv1034[ebp]
	jbe	$LN15@Padlock_Dr
	mov	ecx, DWORD PTR _this$[ebp]
	mov	ecx, DWORD PTR [ecx+33576]
	call	?GetRightPixel@VirtualDisplay@@QAEMXZ	; VirtualDisplay::GetRightPixel
	fstp	DWORD PTR tv1040[ebp]
	movss	xmm0, DWORD PTR tv1040[ebp]
	comiss	xmm0, DWORD PTR _objright$[ebp]
	jbe	$LN15@Padlock_Dr
	mov	edx, DWORD PTR _this$[ebp]
	mov	eax, DWORD PTR [edx+33804]
	cmp	DWORD PTR [eax+332], 0
	je	$LN15@Padlock_Dr

; 1861 : 			{
; 1862 : // 2000-11-24 ADDED BY S.G. IF ASKED, THE COLOR OF THE BOX IS THE COLOR OF THE NEAR LABEL AND THE INTENSITY WILL VARY AS WELL
; 1863 : 				if (g_nPadlockMode & PLockModeNearLabelColor) {

	mov	ecx, DWORD PTR ?g_nPadlockMode@@3HA	; g_nPadlockMode
	and	ecx, 1
	je	$LN24@Padlock_Dr

; 1864 : 					// Joel, I hope you don't mind I reuse your label code? :-)
; 1865 : 					long limit = g_nNearLabelLimit * 6076 + 8;

	mov	edx, DWORD PTR ?g_nNearLabelLimit@@3HA	; g_nNearLabelLimit
	imul	edx, 6076				; 000017bcH
	add	edx, 8
	mov	DWORD PTR _limit$5[ebp], edx

; 1866 : 					if (objectPoint.csZ < limit)

	cvtsi2ss xmm0, DWORD PTR _limit$5[ebp]
	comiss	xmm0, DWORD PTR _objectPoint$[ebp+48]
	jbe	$LN23@Padlock_Dr

; 1867 : 					{
; 1868 : 						int labelColor = 0;

	mov	DWORD PTR _labelColor$8[ebp], 0

; 1869 : 						if (mpPadlockPriorityObject && !F4IsBadReadPtr(mpPadlockPriorityObject, sizeof(SimBaseClass)) && mpPadlockPriorityObject->drawPointer && !F4IsBadReadPtr(mpPadlockPriorityObject->drawPointer, sizeof(DrawableBSP))) // JB 010319 CTD

	mov	eax, DWORD PTR _this$[ebp]
	cmp	DWORD PTR [eax+33804], 0
	je	SHORT $LN22@Padlock_Dr
	push	592					; 00000250H
	mov	ecx, DWORD PTR _this$[ebp]
	mov	edx, DWORD PTR [ecx+33804]
	push	edx
	call	?F4IsBadReadPtr@@YA_NPBXI@Z		; F4IsBadReadPtr
	add	esp, 8
	movzx	eax, al
	test	eax, eax
	jne	SHORT $LN22@Padlock_Dr
	mov	ecx, DWORD PTR _this$[ebp]
	mov	edx, DWORD PTR [ecx+33804]
	cmp	DWORD PTR [edx+332], 0
	je	SHORT $LN22@Padlock_Dr
	push	172					; 000000acH
	mov	eax, DWORD PTR _this$[ebp]
	mov	ecx, DWORD PTR [eax+33804]
	mov	edx, DWORD PTR [ecx+332]
	push	edx
	call	?F4IsBadReadPtr@@YA_NPBXI@Z		; F4IsBadReadPtr
	add	esp, 8
	movzx	eax, al
	test	eax, eax
	jne	SHORT $LN22@Padlock_Dr

; 1870 : 							labelColor = ((DrawableBSP *)mpPadlockPriorityObject->drawPointer)->LabelColor();

	mov	ecx, DWORD PTR _this$[ebp]
	mov	edx, DWORD PTR [ecx+33804]
	mov	ecx, DWORD PTR [edx+332]
	call	?LabelColor@DrawableBSP@@QAEKXZ		; DrawableBSP::LabelColor
	mov	DWORD PTR _labelColor$8[ebp], eax
$LN22@Padlock_Dr:

; 1871 : 						
; 1872 : 						int colorsub = int((objectPoint.csZ / (limit >> 3))) << 5;

	mov	eax, DWORD PTR _limit$5[ebp]
	sar	eax, 3
	cvtsi2ss xmm0, eax
	movss	xmm1, DWORD PTR _objectPoint$[ebp+48]
	divss	xmm1, xmm0
	cvttss2si ecx, xmm1
	shl	ecx, 5
	mov	DWORD PTR _colorsub$12[ebp], ecx

; 1873 : 
; 1874 : 						int red = (labelColor & 0x000000ff);

	mov	edx, DWORD PTR _labelColor$8[ebp]
	and	edx, 255				; 000000ffH
	mov	DWORD PTR _red$9[ebp], edx

; 1875 : 						red -= min(red, colorsub);

	mov	eax, DWORD PTR _red$9[ebp]
	cmp	eax, DWORD PTR _colorsub$12[ebp]
	jge	SHORT $LN38@Padlock_Dr
	mov	ecx, DWORD PTR _red$9[ebp]
	mov	DWORD PTR tv354[ebp], ecx
	jmp	SHORT $LN39@Padlock_Dr
$LN38@Padlock_Dr:
	mov	edx, DWORD PTR _colorsub$12[ebp]
	mov	DWORD PTR tv354[ebp], edx
$LN39@Padlock_Dr:
	mov	eax, DWORD PTR _red$9[ebp]
	sub	eax, DWORD PTR tv354[ebp]
	mov	DWORD PTR _red$9[ebp], eax

; 1876 : 						int green = (labelColor & 0x0000ff00) >> 8;

	mov	ecx, DWORD PTR _labelColor$8[ebp]
	and	ecx, 65280				; 0000ff00H
	sar	ecx, 8
	mov	DWORD PTR _green$10[ebp], ecx

; 1877 : 						green -= min(green, colorsub);

	mov	edx, DWORD PTR _green$10[ebp]
	cmp	edx, DWORD PTR _colorsub$12[ebp]
	jge	SHORT $LN40@Padlock_Dr
	mov	eax, DWORD PTR _green$10[ebp]
	mov	DWORD PTR tv359[ebp], eax
	jmp	SHORT $LN41@Padlock_Dr
$LN40@Padlock_Dr:
	mov	ecx, DWORD PTR _colorsub$12[ebp]
	mov	DWORD PTR tv359[ebp], ecx
$LN41@Padlock_Dr:
	mov	edx, DWORD PTR _green$10[ebp]
	sub	edx, DWORD PTR tv359[ebp]
	mov	DWORD PTR _green$10[ebp], edx

; 1878 : 						int blue = (labelColor & 0x00ff0000) >> 16;

	mov	eax, DWORD PTR _labelColor$8[ebp]
	and	eax, 16711680				; 00ff0000H
	sar	eax, 16					; 00000010H
	mov	DWORD PTR _blue$11[ebp], eax

; 1879 : 						blue -= min(blue, colorsub);

	mov	ecx, DWORD PTR _blue$11[ebp]
	cmp	ecx, DWORD PTR _colorsub$12[ebp]
	jge	SHORT $LN42@Padlock_Dr
	mov	edx, DWORD PTR _blue$11[ebp]
	mov	DWORD PTR tv364[ebp], edx
	jmp	SHORT $LN43@Padlock_Dr
$LN42@Padlock_Dr:
	mov	eax, DWORD PTR _colorsub$12[ebp]
	mov	DWORD PTR tv364[ebp], eax
$LN43@Padlock_Dr:
	mov	ecx, DWORD PTR _blue$11[ebp]
	sub	ecx, DWORD PTR tv364[ebp]
	mov	DWORD PTR _blue$11[ebp], ecx

; 1880 : 
; 1881 : 						long newlabelColor = blue << 16 | green << 8 | red;

	mov	edx, DWORD PTR _blue$11[ebp]
	shl	edx, 16					; 00000010H
	mov	eax, DWORD PTR _green$10[ebp]
	shl	eax, 8
	or	edx, eax
	or	edx, DWORD PTR _red$9[ebp]
	mov	DWORD PTR _newlabelColor$1[ebp], edx

; 1882 : 
; 1883 : 						renderer->SetColor( newlabelColor );

	mov	ecx, DWORD PTR _newlabelColor$1[ebp]
	push	ecx
	mov	edx, DWORD PTR _this$[ebp]
	mov	eax, DWORD PTR [edx+33576]
	mov	ecx, DWORD PTR _this$[ebp]
	mov	edx, DWORD PTR [eax]
	mov	ecx, DWORD PTR [ecx+33576]
	mov	eax, DWORD PTR [edx+92]
	call	eax

; 1884 : 					}
; 1885 : 					else

	jmp	SHORT $LN19@Padlock_Dr
$LN23@Padlock_Dr:

; 1886 : 						if (g_bPadlockHudColor)		//Wombat778 4-28-04 Made this a variable

	movzx	ecx, BYTE PTR ?g_bPadlockHudColor@@3_NA	; g_bPadlockHudColor
	test	ecx, ecx
	je	SHORT $LN20@Padlock_Dr

; 1887 : 							// renderer->SetColor (PadlockColor); // Unz Changed to provide same color as hud
; 1888 : 							renderer->SetColor (0xff000000|TheHud->GetHudColor());  // MD -- 20040514: let's not use global variables for this one

	mov	ecx, DWORD PTR ?TheHud@@3PAVHudClass@@A	; TheHud
	call	?GetHudColor@HudClass@@QAEKXZ		; HudClass::GetHudColor
	or	eax, -16777216				; ff000000H
	push	eax
	mov	edx, DWORD PTR _this$[ebp]
	mov	eax, DWORD PTR [edx+33576]
	mov	ecx, DWORD PTR _this$[ebp]
	mov	edx, DWORD PTR [eax]
	mov	ecx, DWORD PTR [ecx+33576]
	mov	eax, DWORD PTR [edx+92]
	call	eax

; 1889 : 						else

	jmp	SHORT $LN19@Padlock_Dr
$LN20@Padlock_Dr:

; 1890 : 							renderer->SetColor (0xffc0c0c0);	// gray

	push	-4144960				; ffc0c0c0H
	mov	ecx, DWORD PTR _this$[ebp]
	mov	edx, DWORD PTR [ecx+33576]
	mov	eax, DWORD PTR _this$[ebp]
	mov	edx, DWORD PTR [edx]
	mov	ecx, DWORD PTR [eax+33576]
	mov	eax, DWORD PTR [edx+92]
	call	eax
$LN19@Padlock_Dr:

; 1891 : 						
; 1892 : 				}
; 1893 : 				else

	jmp	SHORT $LN16@Padlock_Dr
$LN24@Padlock_Dr:

; 1894 : // END OF ADDED SECTION
; 1895 : 					if (g_bPadlockHudColor)			//Wombat778 4-28-04 Made this a variable

	movzx	ecx, BYTE PTR ?g_bPadlockHudColor@@3_NA	; g_bPadlockHudColor
	test	ecx, ecx
	je	SHORT $LN17@Padlock_Dr

; 1896 : 						// renderer->SetColor (PadlockColor); //Unz For the colorblind...same as HUD color
; 1897 : 						renderer->SetColor (0xff000000|TheHud->GetHudColor());  // MD -- 20040514: let's not use global variables for this one

	mov	ecx, DWORD PTR ?TheHud@@3PAVHudClass@@A	; TheHud
	call	?GetHudColor@HudClass@@QAEKXZ		; HudClass::GetHudColor
	or	eax, -16777216				; ff000000H
	push	eax
	mov	edx, DWORD PTR _this$[ebp]
	mov	eax, DWORD PTR [edx+33576]
	mov	ecx, DWORD PTR _this$[ebp]
	mov	edx, DWORD PTR [eax]
	mov	ecx, DWORD PTR [ecx+33576]
	mov	eax, DWORD PTR [edx+92]
	call	eax

; 1898 : 					else

	jmp	SHORT $LN16@Padlock_Dr
$LN17@Padlock_Dr:

; 1899 : 						renderer->SetColor (0xff0000ff);

	push	-16776961				; ff0000ffH
	mov	ecx, DWORD PTR _this$[ebp]
	mov	edx, DWORD PTR [ecx+33576]
	mov	eax, DWORD PTR _this$[ebp]
	mov	edx, DWORD PTR [edx]
	mov	ecx, DWORD PTR [eax+33576]
	mov	eax, DWORD PTR [edx+92]
	call	eax
$LN16@Padlock_Dr:

; 1900 : 
; 1901 : 				// Draw a box around the target
; 1902 : 				//MI 18/01/02
; 1903 : 				if(!g_bNoPadlockBoxes){

	movzx	ecx, BYTE PTR ?g_bNoPadlockBoxes@@3_NA	; g_bNoPadlockBoxes
	test	ecx, ecx
	jne	$LN15@Padlock_Dr

; 1904 : 					renderer->Render2DLine(objleft, objtop, objright, objtop);

	push	ecx
	movss	xmm0, DWORD PTR _objtop$[ebp]
	movss	DWORD PTR [esp], xmm0
	push	ecx
	movss	xmm0, DWORD PTR _objright$[ebp]
	movss	DWORD PTR [esp], xmm0
	push	ecx
	movss	xmm0, DWORD PTR _objtop$[ebp]
	movss	DWORD PTR [esp], xmm0
	push	ecx
	movss	xmm0, DWORD PTR _objleft$[ebp]
	movss	DWORD PTR [esp], xmm0
	mov	edx, DWORD PTR _this$[ebp]
	mov	eax, DWORD PTR [edx+33576]
	mov	ecx, DWORD PTR _this$[ebp]
	mov	edx, DWORD PTR [eax]
	mov	ecx, DWORD PTR [ecx+33576]
	mov	eax, DWORD PTR [edx+124]
	call	eax

; 1905 : 					renderer->Render2DLine(objleft, objbottom, objright, objbottom);

	push	ecx
	movss	xmm0, DWORD PTR _objbottom$[ebp]
	movss	DWORD PTR [esp], xmm0
	push	ecx
	movss	xmm0, DWORD PTR _objright$[ebp]
	movss	DWORD PTR [esp], xmm0
	push	ecx
	movss	xmm0, DWORD PTR _objbottom$[ebp]
	movss	DWORD PTR [esp], xmm0
	push	ecx
	movss	xmm0, DWORD PTR _objleft$[ebp]
	movss	DWORD PTR [esp], xmm0
	mov	ecx, DWORD PTR _this$[ebp]
	mov	edx, DWORD PTR [ecx+33576]
	mov	eax, DWORD PTR _this$[ebp]
	mov	edx, DWORD PTR [edx]
	mov	ecx, DWORD PTR [eax+33576]
	mov	eax, DWORD PTR [edx+124]
	call	eax

; 1906 : 					renderer->Render2DLine(objleft, objbottom, objleft, objtop);

	push	ecx
	movss	xmm0, DWORD PTR _objtop$[ebp]
	movss	DWORD PTR [esp], xmm0
	push	ecx
	movss	xmm0, DWORD PTR _objleft$[ebp]
	movss	DWORD PTR [esp], xmm0
	push	ecx
	movss	xmm0, DWORD PTR _objbottom$[ebp]
	movss	DWORD PTR [esp], xmm0
	push	ecx
	movss	xmm0, DWORD PTR _objleft$[ebp]
	movss	DWORD PTR [esp], xmm0
	mov	ecx, DWORD PTR _this$[ebp]
	mov	edx, DWORD PTR [ecx+33576]
	mov	eax, DWORD PTR _this$[ebp]
	mov	edx, DWORD PTR [edx]
	mov	ecx, DWORD PTR [eax+33576]
	mov	eax, DWORD PTR [edx+124]
	call	eax

; 1907 : 					renderer->Render2DLine(objright, objbottom, objright, objtop);

	push	ecx
	movss	xmm0, DWORD PTR _objtop$[ebp]
	movss	DWORD PTR [esp], xmm0
	push	ecx
	movss	xmm0, DWORD PTR _objright$[ebp]
	movss	DWORD PTR [esp], xmm0
	push	ecx
	movss	xmm0, DWORD PTR _objbottom$[ebp]
	movss	DWORD PTR [esp], xmm0
	push	ecx
	movss	xmm0, DWORD PTR _objright$[ebp]
	movss	DWORD PTR [esp], xmm0
	mov	ecx, DWORD PTR _this$[ebp]
	mov	edx, DWORD PTR [ecx+33576]
	mov	eax, DWORD PTR _this$[ebp]
	mov	edx, DWORD PTR [edx]
	mov	ecx, DWORD PTR [eax+33576]
	mov	eax, DWORD PTR [edx+124]
	call	eax
$LN15@Padlock_Dr:

; 1908 : 				}
; 1909 : 			}
; 1910 : 		}
; 1911 : // 2001-01-28 ADDED BY S.G. SO WHEN WE DON'T HAVE A PADLOCKED OBJECT, THE MISSILE LOCK IS BROKEN...
; 1912 : 		else {

	jmp	SHORT $LN11@Padlock_Dr
$LN34@Padlock_Dr:

; 1913 : 			MissileClass* theMissile;
; 1914 : 			theMissile = (MissileClass*)(pac->Sms->GetCurrentWeapon());

	mov	ecx, DWORD PTR _pac$[ebp]
	mov	edx, DWORD PTR [ecx+940]
	mov	eax, DWORD PTR _pac$[ebp]
	mov	edx, DWORD PTR [edx]
	mov	ecx, DWORD PTR [eax+940]
	mov	eax, DWORD PTR [edx+12]
	call	eax
	mov	DWORD PTR _theMissile$7[ebp], eax

; 1915 : 
; 1916 : 			// First, make sure we have a Aim9 in uncage mode selected...
; 1917 : 			if (SimDriver.GetPlayerAircraft()->Sms->curWeaponType == wtAim9) {

	mov	ecx, OFFSET ?SimDriver@@3VSimulationDriver@@A ; SimDriver
	call	?GetPlayerAircraft@SimulationDriver@@QBEPAVAircraftClass@@XZ ; SimulationDriver::GetPlayerAircraft
	mov	ecx, DWORD PTR [eax+940]
	cmp	DWORD PTR [ecx+148], 1
	jne	SHORT $LN11@Padlock_Dr

; 1918 : 				if (theMissile && theMissile->isCaged == 0) {

	cmp	DWORD PTR _theMissile$7[ebp], 0
	je	SHORT $LN11@Padlock_Dr
	mov	edx, DWORD PTR _theMissile$7[ebp]
	cmp	DWORD PTR [edx+728], 0
	jne	SHORT $LN11@Padlock_Dr

; 1919 : 					// Then if it has a target, drop it
; 1920 : 					if (theMissile->targetPtr)

	mov	eax, DWORD PTR _theMissile$7[ebp]
	cmp	DWORD PTR [eax+656], 0
	je	SHORT $LN11@Padlock_Dr

; 1921 : 						theMissile->SetTarget(NULL);

	push	0
	mov	ecx, DWORD PTR _theMissile$7[ebp]
	call	?SetTarget@MissileClass@@QAEXPAVSimObjectType@@@Z ; MissileClass::SetTarget
$LN11@Padlock_Dr:

; 1922 : 				}
; 1923 : 			}
; 1924 : 		}
; 1925 : // END OF ADDED SECTION
; 1926 : 
; 1927 : 		if(mpPadlockCandidate && mpPadlockCandidate->GetCampaignObject() != ((CampBaseClass*)0xdddddddd) && !mpPadlockCandidate->IsDead()) {

	mov	ecx, DWORD PTR _this$[ebp]
	cmp	DWORD PTR [ecx+33796], 0
	je	$LN8@Padlock_Dr
	mov	edx, DWORD PTR _this$[ebp]
	mov	ecx, DWORD PTR [edx+33796]
	call	?GetCampaignObject@SimBaseClass@@QAEPAVCampBaseClass@@XZ ; SimBaseClass::GetCampaignObject
	cmp	eax, -572662307				; ddddddddH
	je	$LN8@Padlock_Dr
	mov	eax, DWORD PTR _this$[ebp]
	mov	ecx, DWORD PTR [eax+33796]
	mov	edx, DWORD PTR _this$[ebp]
	mov	eax, DWORD PTR [ecx]
	mov	ecx, DWORD PTR [edx+33796]
	mov	edx, DWORD PTR [eax+340]
	call	edx
	test	eax, eax
	jne	$LN8@Padlock_Dr

; 1928 : 			pCandidate = mpPadlockCandidate;

	mov	eax, DWORD PTR _this$[ebp]
	mov	ecx, DWORD PTR [eax+33796]
	mov	DWORD PTR _pCandidate$[ebp], ecx

; 1929 : 			candidateLoc.x = pCandidate->XPos();

	mov	ecx, DWORD PTR _pCandidate$[ebp]
	call	?XPos@VuEntity@@QBEMXZ			; VuEntity::XPos
	fstp	DWORD PTR _candidateLoc$[ebp]

; 1930 : 			candidateLoc.y = pCandidate->YPos();

	mov	ecx, DWORD PTR _pCandidate$[ebp]
	call	?YPos@VuEntity@@QBEMXZ			; VuEntity::YPos
	fstp	DWORD PTR _candidateLoc$[ebp+4]

; 1931 : 			candidateLoc.z = pCandidate->ZPos();

	mov	ecx, DWORD PTR _pCandidate$[ebp]
	call	?ZPos@VuEntity@@QBEMXZ			; VuEntity::ZPos
	fstp	DWORD PTR _candidateLoc$[ebp+8]

; 1932 : 		
; 1933 : 			renderer->TransformPoint(&candidateLoc, &candidatePoint);

	lea	edx, DWORD PTR _candidatePoint$[ebp]
	push	edx
	lea	eax, DWORD PTR _candidateLoc$[ebp]
	push	eax
	mov	ecx, DWORD PTR _this$[ebp]
	mov	ecx, DWORD PTR [ecx+33576]
	call	?TransformPoint@Render3D@@QAEXPAUTpoint@@PAUThreeDVertex@@@Z ; Render3D::TransformPoint

; 1934 : 
; 1935 : 			candleft		= candidatePoint.x - 4;

	movss	xmm0, DWORD PTR _candidatePoint$[ebp]
	subss	xmm0, DWORD PTR __real@40800000
	movss	DWORD PTR _candleft$[ebp], xmm0

; 1936 : 			candright	= candidatePoint.x + 4;

	movss	xmm0, DWORD PTR _candidatePoint$[ebp]
	addss	xmm0, DWORD PTR __real@40800000
	movss	DWORD PTR _candright$[ebp], xmm0

; 1937 : 			candtop		= candidatePoint.y - 4;

	movss	xmm0, DWORD PTR _candidatePoint$[ebp+4]
	subss	xmm0, DWORD PTR __real@40800000
	movss	DWORD PTR _candtop$[ebp], xmm0

; 1938 : 			candbottom	= candidatePoint.y + 4;

	movss	xmm0, DWORD PTR _candidatePoint$[ebp+4]
	addss	xmm0, DWORD PTR __real@40800000
	movss	DWORD PTR _candbottom$[ebp], xmm0

; 1939 : 
; 1940 : 			if(candtop		> renderer->GetTopPixel()    &&
; 1941 : 				candbottom < renderer->GetBottomPixel() &&
; 1942 : 				candleft		> renderer->GetLeftPixel()   &&
; 1943 : 				candright	< renderer->GetRightPixel())

	mov	edx, DWORD PTR _this$[ebp]
	mov	ecx, DWORD PTR [edx+33576]
	call	?GetTopPixel@VirtualDisplay@@QAEMXZ	; VirtualDisplay::GetTopPixel
	fstp	DWORD PTR tv1168[ebp]
	movss	xmm0, DWORD PTR _candtop$[ebp]
	comiss	xmm0, DWORD PTR tv1168[ebp]
	jbe	$LN8@Padlock_Dr
	mov	eax, DWORD PTR _this$[ebp]
	mov	ecx, DWORD PTR [eax+33576]
	call	?GetBottomPixel@VirtualDisplay@@QAEMXZ	; VirtualDisplay::GetBottomPixel
	fstp	DWORD PTR tv1174[ebp]
	movss	xmm0, DWORD PTR tv1174[ebp]
	comiss	xmm0, DWORD PTR _candbottom$[ebp]
	jbe	$LN8@Padlock_Dr
	mov	ecx, DWORD PTR _this$[ebp]
	mov	ecx, DWORD PTR [ecx+33576]
	call	?GetLeftPixel@VirtualDisplay@@QAEMXZ	; VirtualDisplay::GetLeftPixel
	fstp	DWORD PTR tv1179[ebp]
	movss	xmm0, DWORD PTR _candleft$[ebp]
	comiss	xmm0, DWORD PTR tv1179[ebp]
	jbe	$LN8@Padlock_Dr
	mov	edx, DWORD PTR _this$[ebp]
	mov	ecx, DWORD PTR [edx+33576]
	call	?GetRightPixel@VirtualDisplay@@QAEMXZ	; VirtualDisplay::GetRightPixel
	fstp	DWORD PTR tv1185[ebp]
	movss	xmm0, DWORD PTR tv1185[ebp]
	comiss	xmm0, DWORD PTR _candright$[ebp]
	jbe	$LN8@Padlock_Dr

; 1944 : 			{
; 1945 : 				renderer->SetColor (0xff27eaff);

	push	-14161153				; ff27eaffH
	mov	eax, DWORD PTR _this$[ebp]
	mov	ecx, DWORD PTR [eax+33576]
	mov	edx, DWORD PTR _this$[ebp]
	mov	eax, DWORD PTR [ecx]
	mov	ecx, DWORD PTR [edx+33576]
	mov	edx, DWORD PTR [eax+92]
	call	edx

; 1946 : 
; 1947 : 				//MI 18/01/02
; 1948 : 				if(!g_bNoPadlockBoxes)

	movzx	eax, BYTE PTR ?g_bNoPadlockBoxes@@3_NA	; g_bNoPadlockBoxes
	test	eax, eax
	jne	$LN8@Padlock_Dr

; 1949 : 				{
; 1950 : 				renderer->Render2DLine(candidatePoint.x, candtop, candright, candidatePoint.y);

	push	ecx
	movss	xmm0, DWORD PTR _candidatePoint$[ebp+4]
	movss	DWORD PTR [esp], xmm0
	push	ecx
	movss	xmm0, DWORD PTR _candright$[ebp]
	movss	DWORD PTR [esp], xmm0
	push	ecx
	movss	xmm0, DWORD PTR _candtop$[ebp]
	movss	DWORD PTR [esp], xmm0
	push	ecx
	movss	xmm0, DWORD PTR _candidatePoint$[ebp]
	movss	DWORD PTR [esp], xmm0
	mov	ecx, DWORD PTR _this$[ebp]
	mov	edx, DWORD PTR [ecx+33576]
	mov	eax, DWORD PTR _this$[ebp]
	mov	edx, DWORD PTR [edx]
	mov	ecx, DWORD PTR [eax+33576]
	mov	eax, DWORD PTR [edx+124]
	call	eax

; 1951 : 				renderer->Render2DLine(candright, candidatePoint.y, candidatePoint.x, candbottom);

	push	ecx
	movss	xmm0, DWORD PTR _candbottom$[ebp]
	movss	DWORD PTR [esp], xmm0
	push	ecx
	movss	xmm0, DWORD PTR _candidatePoint$[ebp]
	movss	DWORD PTR [esp], xmm0
	push	ecx
	movss	xmm0, DWORD PTR _candidatePoint$[ebp+4]
	movss	DWORD PTR [esp], xmm0
	push	ecx
	movss	xmm0, DWORD PTR _candright$[ebp]
	movss	DWORD PTR [esp], xmm0
	mov	ecx, DWORD PTR _this$[ebp]
	mov	edx, DWORD PTR [ecx+33576]
	mov	eax, DWORD PTR _this$[ebp]
	mov	edx, DWORD PTR [edx]
	mov	ecx, DWORD PTR [eax+33576]
	mov	eax, DWORD PTR [edx+124]
	call	eax

; 1952 : 				renderer->Render2DLine(candidatePoint.x, candbottom, candleft, candidatePoint.y);

	push	ecx
	movss	xmm0, DWORD PTR _candidatePoint$[ebp+4]
	movss	DWORD PTR [esp], xmm0
	push	ecx
	movss	xmm0, DWORD PTR _candleft$[ebp]
	movss	DWORD PTR [esp], xmm0
	push	ecx
	movss	xmm0, DWORD PTR _candbottom$[ebp]
	movss	DWORD PTR [esp], xmm0
	push	ecx
	movss	xmm0, DWORD PTR _candidatePoint$[ebp]
	movss	DWORD PTR [esp], xmm0
	mov	ecx, DWORD PTR _this$[ebp]
	mov	edx, DWORD PTR [ecx+33576]
	mov	eax, DWORD PTR _this$[ebp]
	mov	edx, DWORD PTR [edx]
	mov	ecx, DWORD PTR [eax+33576]
	mov	eax, DWORD PTR [edx+124]
	call	eax

; 1953 : 				renderer->Render2DLine(candleft, candidatePoint.y, candidatePoint.x, candtop);

	push	ecx
	movss	xmm0, DWORD PTR _candtop$[ebp]
	movss	DWORD PTR [esp], xmm0
	push	ecx
	movss	xmm0, DWORD PTR _candidatePoint$[ebp]
	movss	DWORD PTR [esp], xmm0
	push	ecx
	movss	xmm0, DWORD PTR _candidatePoint$[ebp+4]
	movss	DWORD PTR [esp], xmm0
	push	ecx
	movss	xmm0, DWORD PTR _candleft$[ebp]
	movss	DWORD PTR [esp], xmm0
	mov	ecx, DWORD PTR _this$[ebp]
	mov	edx, DWORD PTR [ecx+33576]
	mov	eax, DWORD PTR _this$[ebp]
	mov	edx, DWORD PTR [edx]
	mov	ecx, DWORD PTR [eax+33576]
	mov	eax, DWORD PTR [edx+124]
	call	eax
$LN8@Padlock_Dr:

; 1954 : 				} 
; 1955 : 
; 1956 : 	#if 0
; 1957 : 				renderer->Render2DLine(candleft, candtop, candright, candtop);
; 1958 : 				renderer->Render2DLine(candleft, candbottom, candright, candbottom);
; 1959 : 				renderer->Render2DLine(candleft, candbottom, candleft, candtop);
; 1960 : 				renderer->Render2DLine(candright, candbottom, candright, candtop);
; 1961 : 	#endif
; 1962 : 			}
; 1963 : 		}
; 1964 : 	}
; 1965 : 
; 1966 : // 2002-04-06 MN moved here - in realistic we won't go into the drawing code of the box above when
; 1967 : // mTDTimeout has been reached - thus we won't get these checks done anymore in realistic mode.
; 1968 : 	if(mpPadlockPriorityObject && highlightPriority == TRUE)

	mov	ecx, DWORD PTR _this$[ebp]
	cmp	DWORD PTR [ecx+33804], 0
	je	$LN1@Padlock_Dr
	cmp	DWORD PTR _highlightPriority$[ebp], 1
	jne	$LN1@Padlock_Dr

; 1969 : 	{
; 1970 : 		priorityLoc.x = mpPadlockPriorityObject->XPos();

	mov	edx, DWORD PTR _this$[ebp]
	mov	ecx, DWORD PTR [edx+33804]
	call	?XPos@VuEntity@@QBEMXZ			; VuEntity::XPos
	fstp	DWORD PTR _priorityLoc$[ebp]

; 1971 : 		priorityLoc.y = mpPadlockPriorityObject->YPos();

	mov	eax, DWORD PTR _this$[ebp]
	mov	ecx, DWORD PTR [eax+33804]
	call	?YPos@VuEntity@@QBEMXZ			; VuEntity::YPos
	fstp	DWORD PTR _priorityLoc$[ebp+4]

; 1972 : 		priorityLoc.z = mpPadlockPriorityObject->ZPos();

	mov	ecx, DWORD PTR _this$[ebp]
	mov	ecx, DWORD PTR [ecx+33804]
	call	?ZPos@VuEntity@@QBEMXZ			; VuEntity::ZPos
	fstp	DWORD PTR _priorityLoc$[ebp+8]

; 1973 : 
; 1974 : 		xDiff				= priorityLoc.x - SimDriver.GetPlayerAircraft()->XPos();

	mov	ecx, OFFSET ?SimDriver@@3VSimulationDriver@@A ; SimDriver
	call	?GetPlayerAircraft@SimulationDriver@@QBEPAVAircraftClass@@XZ ; SimulationDriver::GetPlayerAircraft
	mov	ecx, eax
	call	?XPos@VuEntity@@QBEMXZ			; VuEntity::XPos
	fstp	DWORD PTR tv1247[ebp]
	movss	xmm0, DWORD PTR _priorityLoc$[ebp]
	subss	xmm0, DWORD PTR tv1247[ebp]
	movss	DWORD PTR _xDiff$[ebp], xmm0

; 1975 : 		yDiff				= priorityLoc.y - SimDriver.GetPlayerAircraft()->YPos();

	mov	ecx, OFFSET ?SimDriver@@3VSimulationDriver@@A ; SimDriver
	call	?GetPlayerAircraft@SimulationDriver@@QBEPAVAircraftClass@@XZ ; SimulationDriver::GetPlayerAircraft
	mov	ecx, eax
	call	?YPos@VuEntity@@QBEMXZ			; VuEntity::YPos
	fstp	DWORD PTR tv1253[ebp]
	movss	xmm0, DWORD PTR _priorityLoc$[ebp+4]
	subss	xmm0, DWORD PTR tv1253[ebp]
	movss	DWORD PTR _yDiff$[ebp], xmm0

; 1976 : 		zDiff				= priorityLoc.z - SimDriver.GetPlayerAircraft()->ZPos();

	mov	ecx, OFFSET ?SimDriver@@3VSimulationDriver@@A ; SimDriver
	call	?GetPlayerAircraft@SimulationDriver@@QBEPAVAircraftClass@@XZ ; SimulationDriver::GetPlayerAircraft
	mov	ecx, eax
	call	?ZPos@VuEntity@@QBEMXZ			; VuEntity::ZPos
	fstp	DWORD PTR tv1259[ebp]
	movss	xmm0, DWORD PTR _priorityLoc$[ebp+8]
	subss	xmm0, DWORD PTR tv1259[ebp]
	movss	DWORD PTR _zDiff$[ebp], xmm0

; 1977 : 
; 1978 : 		objRange			= (float)sqrt(xDiff * xDiff + yDiff * yDiff + zDiff * zDiff);

	movss	xmm0, DWORD PTR _xDiff$[ebp]
	mulss	xmm0, DWORD PTR _xDiff$[ebp]
	movss	xmm1, DWORD PTR _yDiff$[ebp]
	mulss	xmm1, DWORD PTR _yDiff$[ebp]
	addss	xmm0, xmm1
	movss	xmm1, DWORD PTR _zDiff$[ebp]
	mulss	xmm1, DWORD PTR _zDiff$[ebp]
	addss	xmm0, xmm1
	push	ecx
	movss	DWORD PTR [esp], xmm0
	call	?SqrtSSE@@YAMM@Z			; SqrtSSE
	add	esp, 4
	fstp	DWORD PTR _objRange$[ebp]

; 1979 : 
; 1980 : 		objRange = max(objRange,1.0F);

	movss	xmm0, DWORD PTR _objRange$[ebp]
	comiss	xmm0, DWORD PTR __real@3f800000
	jbe	SHORT $LN44@Padlock_Dr
	movss	xmm0, DWORD PTR _objRange$[ebp]
	movss	DWORD PTR tv837[ebp], xmm0
	jmp	SHORT $LN45@Padlock_Dr
$LN44@Padlock_Dr:
	movss	xmm0, DWORD PTR __real@3f800000
	movss	DWORD PTR tv837[ebp], xmm0
$LN45@Padlock_Dr:
	movss	xmm0, DWORD PTR tv837[ebp]
	movss	DWORD PTR _objRange$[ebp], xmm0

; 1981 : 
; 1982 : 		float maxrange = g_fPadlockBreakDistance * NM_TO_FT;

	movss	xmm0, DWORD PTR ?g_fPadlockBreakDistance@@3MA
	mulss	xmm0, DWORD PTR __real@45bde1b0
	movss	DWORD PTR _maxrange$2[ebp], xmm0

; 1983 : 
; 1984 : 		// break lock
; 1985 : 		if (objRange > maxrange)

	movss	xmm0, DWORD PTR _objRange$[ebp]
	comiss	xmm0, DWORD PTR _maxrange$2[ebp]
	jbe	SHORT $LN6@Padlock_Dr

; 1986 : 		{ 
; 1987 : 			SetmpPadlockPriorityObject(NULL);

	push	0
	mov	ecx, DWORD PTR _this$[ebp]
	call	?SetmpPadlockPriorityObject@OTWDriverClass@@QAEXPAVSimBaseClass@@@Z ; OTWDriverClass::SetmpPadlockPriorityObject

; 1988 : 			highlightPriority		= false;

	mov	DWORD PTR _highlightPriority$[ebp], 0

; 1989 : 			mpPadlockCandidate		= NULL;

	mov	edx, DWORD PTR _this$[ebp]
	mov	DWORD PTR [edx+33796], 0

; 1990 : 			mPadlockCandidateID		= FalconNullId;

	mov	eax, DWORD PTR _this$[ebp]
	mov	ecx, DWORD PTR ?FalconNullId@@3VVU_ID@@A
	mov	DWORD PTR [eax+33812], ecx
	mov	edx, DWORD PTR ?FalconNullId@@3VVU_ID@@A+4
	mov	DWORD PTR [eax+33816], edx

; 1991 : 			return;

	jmp	$LN36@Padlock_Dr
$LN6@Padlock_Dr:

; 1992 : 		}
; 1993 : 
; 1994 : 		// also break padlock when looking into the Sun
; 1995 : 
; 1996 : 		if (TheTimeOfDay.ThereIsASun())

	mov	ecx, OFFSET ?TheTimeOfDay@@3VCTimeOfDay@@A ; TheTimeOfDay
	call	?ThereIsASun@CTimeOfDay@@QAEHXZ		; CTimeOfDay::ThereIsASun
	test	eax, eax
	je	$LN1@Padlock_Dr

; 1997 : 		{
; 1998 : 			float strength, scale;
; 1999 : 			Tpoint	sunRay;
; 2000 : 					
; 2001 : 			TheTimeOfDay.GetLightDirection( &sunRay );

	lea	eax, DWORD PTR _sunRay$14[ebp]
	push	eax
	mov	ecx, OFFSET ?TheTimeOfDay@@3VCTimeOfDay@@A ; TheTimeOfDay
	call	?GetLightDirection@CTimeOfDay@@QAEXPAUTpoint@@@Z ; CTimeOfDay::GetLightDirection

; 2002 : 			// Normalize the vector to target
; 2003 : 			scale = 1.0f / objRange;

	movss	xmm0, DWORD PTR __real@3f800000
	divss	xmm0, DWORD PTR _objRange$[ebp]
	movss	DWORD PTR _scale$6[ebp], xmm0

; 2004 : 			xDiff *= scale;

	movss	xmm0, DWORD PTR _xDiff$[ebp]
	mulss	xmm0, DWORD PTR _scale$6[ebp]
	movss	DWORD PTR _xDiff$[ebp], xmm0

; 2005 : 			yDiff *= scale;

	movss	xmm0, DWORD PTR _yDiff$[ebp]
	mulss	xmm0, DWORD PTR _scale$6[ebp]
	movss	DWORD PTR _yDiff$[ebp], xmm0

; 2006 : 			zDiff *= scale;

	movss	xmm0, DWORD PTR _zDiff$[ebp]
	mulss	xmm0, DWORD PTR _scale$6[ebp]
	movss	DWORD PTR _zDiff$[ebp], xmm0

; 2007 : 
; 2008 : 			// Now do the dot product to get the cos of the angle between the rays
; 2009 : 			strength = xDiff*sunRay.x + yDiff*sunRay.y + zDiff*sunRay.z;

	movss	xmm0, DWORD PTR _xDiff$[ebp]
	mulss	xmm0, DWORD PTR _sunRay$14[ebp]
	movss	xmm1, DWORD PTR _yDiff$[ebp]
	mulss	xmm1, DWORD PTR _sunRay$14[ebp+4]
	addss	xmm0, xmm1
	movss	xmm1, DWORD PTR _zDiff$[ebp]
	mulss	xmm1, DWORD PTR _sunRay$14[ebp+8]
	addss	xmm0, xmm1
	movss	DWORD PTR _strength$3[ebp], xmm0

; 2010 : 
; 2011 : 			// Break lock 
; 2012 : 			if (((strength - COS_SUN_EFFECT_HALF_ANGLE) / (1.0f - COS_SUN_EFFECT_HALF_ANGLE))
; 2013 : 				> 0.75f)

	movss	xmm0, DWORD PTR _strength$3[ebp]
	subss	xmm0, DWORD PTR _COS_SUN_EFFECT_HALF_ANGLE
	movss	xmm1, DWORD PTR __real@3f800000
	subss	xmm1, DWORD PTR _COS_SUN_EFFECT_HALF_ANGLE
	divss	xmm0, xmm1
	comiss	xmm0, DWORD PTR __real@3f400000
	jbe	$LN4@Padlock_Dr

; 2014 : 			{
; 2015 : 				if (!sunlooktimer)

	mov	ecx, DWORD PTR _this$[ebp]
	cmp	DWORD PTR [ecx+33800], 0
	jne	SHORT $LN3@Padlock_Dr

; 2016 : 					sunlooktimer = SimLibElapsedTime;

	mov	edx, DWORD PTR _this$[ebp]
	mov	eax, DWORD PTR ?SimLibElapsedTime@@3KA	; SimLibElapsedTime
	mov	DWORD PTR [edx+33800], eax
$LN3@Padlock_Dr:

; 2017 : 				if (sunlooktimer + (VU_TIME)(g_fSunPadlockTimeout * CampaignSeconds) < SimLibElapsedTime)

	movss	xmm0, DWORD PTR ?g_fSunPadlockTimeout@@3MA
	mulss	xmm0, DWORD PTR __real@447a0000
	movss	DWORD PTR tv1294[ebp], xmm0
	fld	DWORD PTR tv1294[ebp]
	fnstcw	WORD PTR tv1296[ebp]
	movzx	eax, WORD PTR tv1296[ebp]
	or	eax, 3072				; 00000c00H
	mov	DWORD PTR tv1299[ebp], eax
	fldcw	WORD PTR tv1299[ebp]
	fistp	QWORD PTR tv1301[ebp]
	fldcw	WORD PTR tv1296[ebp]
	mov	ecx, DWORD PTR tv1301[ebp]
	mov	edx, DWORD PTR _this$[ebp]
	add	ecx, DWORD PTR [edx+33800]
	cmp	ecx, DWORD PTR ?SimLibElapsedTime@@3KA	; SimLibElapsedTime
	jae	SHORT $LN2@Padlock_Dr

; 2018 : 				{
; 2019 : 					SetmpPadlockPriorityObject(NULL);

	push	0
	mov	ecx, DWORD PTR _this$[ebp]
	call	?SetmpPadlockPriorityObject@OTWDriverClass@@QAEXPAVSimBaseClass@@@Z ; OTWDriverClass::SetmpPadlockPriorityObject

; 2020 : 					highlightPriority		= false;

	mov	DWORD PTR _highlightPriority$[ebp], 0

; 2021 : 					mpPadlockCandidate		= NULL;

	mov	eax, DWORD PTR _this$[ebp]
	mov	DWORD PTR [eax+33796], 0

; 2022 : 					mPadlockCandidateID		= FalconNullId;

	mov	ecx, DWORD PTR _this$[ebp]
	mov	edx, DWORD PTR ?FalconNullId@@3VVU_ID@@A
	mov	DWORD PTR [ecx+33812], edx
	mov	eax, DWORD PTR ?FalconNullId@@3VVU_ID@@A+4
	mov	DWORD PTR [ecx+33816], eax

; 2023 : 					return;

	jmp	SHORT $LN36@Padlock_Dr
$LN2@Padlock_Dr:

; 2024 : 				}
; 2025 : 			}
; 2026 : 			else

	jmp	SHORT $LN1@Padlock_Dr
$LN4@Padlock_Dr:

; 2027 : 				sunlooktimer = 0;

	mov	ecx, DWORD PTR _this$[ebp]
	mov	DWORD PTR [ecx+33800], 0
$LN1@Padlock_Dr:
$LN36@Padlock_Dr:

; 2028 : 
; 2029 : 		}
; 2030 : 	}
; 2031 : 
; 2032 : 
; 2033 : }

	mov	ecx, DWORD PTR __$ArrayPad$[ebp]
	xor	ecx, ebp
	call	@__security_check_cookie@4
	mov	esp, ebp
	pop	ebp
	ret	4
?Padlock_DrawSquares@OTWDriverClass@@AAEXH@Z ENDP	; OTWDriverClass::Padlock_DrawSquares
_TEXT	ENDS
; Function compile flags: /Odtp
; File c:\users\zhitao li\documents\visual studio 2012\projects\freefalcon\sim\otwdrive\padlock.cpp
_TEXT	SEGMENT
_this$ = -48						; size = 4
_pradar$ = -44						; size = 4
_pobjTgt$ = -40						; size = 4
_pplayerLockedTgt$ = -36				; size = 4
_pclassPtr$ = -32					; size = 4
_pbrain$ = -28						; size = 4
_pplayer$ = -24						; size = 4
_mode$ = -20						; size = 4
_playerSide$ = -16					; size = 4
_objSide$ = -12						; size = 4
_priority$ = -8						; size = 4
_objclass$ = -3						; size = 1
_objstype$ = -2						; size = 1
_objtype$ = -1						; size = 1
_pObj$ = 8						; size = 4
_isPainted$ = 12					; size = 4
?Padlock_RankNAVPriority@OTWDriverClass@@AAEHPAVSimBaseClass@@H@Z PROC ; OTWDriverClass::Padlock_RankNAVPriority
; _this$ = ecx

; 1436 : {

	push	ebp
	mov	ebp, esp
	sub	esp, 48					; 00000030H
	mov	DWORD PTR _this$[ebp], ecx

; 1437 : 	int							priority;
; 1438 : 	int							objSide;
; 1439 : 	int							playerSide;
; 1440 : 	char							objtype;
; 1441 : 	char							objstype;
; 1442 : 	char							objclass;
; 1443 : 	Falcon4EntityClassType* pclassPtr;
; 1444 : 	RadarClass*					pradar;
; 1445 : 	SimObjectType*				pplayerLockedTgt = NULL;

	mov	DWORD PTR _pplayerLockedTgt$[ebp], 0

; 1446 : 	SimMoverClass*				pobjTgt = NULL;

	mov	DWORD PTR _pobjTgt$[ebp], 0

; 1447 : 	AircraftClass*				pplayer;
; 1448 : 	DigitalBrain*				pbrain = NULL;

	mov	DWORD PTR _pbrain$[ebp], 0

; 1449 : 	DigitalBrain::DigiMode	mode;
; 1450 : 
; 1451 : 
; 1452 : 	// Get the object's type pointer
; 1453 : 	pclassPtr	= (Falcon4EntityClassType*) pObj->EntityType();

	mov	ecx, DWORD PTR _pObj$[ebp]
	call	?EntityType@VuEntity@@QBEPAUVuEntityType@@XZ ; VuEntity::EntityType
	mov	DWORD PTR _pclassPtr$[ebp], eax

; 1454 : 
; 1455 : 	// Get object's type
; 1456 : 	objtype		= pclassPtr->vuClassData.classInfo_[VU_TYPE];

	mov	eax, 1
	shl	eax, 1
	mov	ecx, DWORD PTR _pclassPtr$[ebp]
	mov	dl, BYTE PTR [ecx+eax+8]
	mov	BYTE PTR _objtype$[ebp], dl

; 1457 : 
; 1458 : 	// Get object's stype
; 1459 : 	objstype		= pclassPtr->vuClassData.classInfo_[VU_STYPE];

	mov	eax, 1
	imul	eax, 3
	mov	ecx, DWORD PTR _pclassPtr$[ebp]
	mov	dl, BYTE PTR [ecx+eax+8]
	mov	BYTE PTR _objstype$[ebp], dl

; 1460 : 
; 1461 : 	// Get the object's data type
; 1462 : 	objclass		= pclassPtr->vuClassData.classInfo_[VU_CLASS];

	mov	eax, 1
	shl	eax, 0
	mov	ecx, DWORD PTR _pclassPtr$[ebp]
	mov	dl, BYTE PTR [ecx+eax+8]
	mov	BYTE PTR _objclass$[ebp], dl

; 1463 : 
; 1464 : 
; 1465 : 	if(objclass == CLASS_FEATURE) {

	movsx	eax, BYTE PTR _objclass$[ebp]
	cmp	eax, 2
	jne	SHORT $LN38@Padlock_Ra

; 1466 : 
; 1467 : 		// If friendly or neutral runway
; 1468 : 		if(objtype == TYPE_RUNWAY) {// && friendly or neutral) {

	movsx	ecx, BYTE PTR _objtype$[ebp]
	cmp	ecx, 11					; 0000000bH
	jne	SHORT $LN37@Padlock_Ra

; 1469 : 			priority = 0;

	mov	DWORD PTR _priority$[ebp], 0

; 1470 : 		} // Just a ground feature
; 1471 : 		else {

	jmp	SHORT $LN36@Padlock_Ra
$LN37@Padlock_Ra:

; 1472 : 			priority = 14;

	mov	DWORD PTR _priority$[ebp], 14		; 0000000eH
$LN36@Padlock_Ra:

; 1473 : 		}	

	jmp	$LN35@Padlock_Ra
$LN38@Padlock_Ra:

; 1474 : 	}
; 1475 : 	else if(objclass == CLASS_VEHICLE) {

	movsx	edx, BYTE PTR _objclass$[ebp]
	cmp	edx, 7
	jne	$LN34@Padlock_Ra

; 1476 : 
; 1477 : 		// Get the object's target
; 1478 : 		if(((SimMoverClass*) pObj)->targetPtr) {

	mov	eax, DWORD PTR _pObj$[ebp]
	cmp	DWORD PTR [eax+656], 0
	je	SHORT $LN33@Padlock_Ra

; 1479 : 			pobjTgt	= (SimMoverClass*) ((SimMoverClass*) pObj)->targetPtr->BaseData();

	mov	ecx, DWORD PTR _pObj$[ebp]
	mov	ecx, DWORD PTR [ecx+656]
	call	?BaseData@SimObjectType@@QAEPAVFalconEntity@@XZ ; SimObjectType::BaseData
	mov	DWORD PTR _pobjTgt$[ebp], eax
$LN33@Padlock_Ra:

; 1480 : 		}
; 1481 : 
; 1482 : 		// Get the object's brain, if individual deaggregated aircraft
; 1483 : 		if(objtype == TYPE_AIRPLANE && !pObj->IsFlight()) {

	movsx	edx, BYTE PTR _objtype$[ebp]
	cmp	edx, 1
	jne	SHORT $LN32@Padlock_Ra
	mov	eax, DWORD PTR _pObj$[ebp]
	mov	edx, DWORD PTR [eax]
	mov	ecx, DWORD PTR _pObj$[ebp]
	mov	eax, DWORD PTR [edx+248]
	call	eax
	test	eax, eax
	jne	SHORT $LN32@Padlock_Ra

; 1484 : 			pbrain	= (DigitalBrain*) ((AircraftClass*)pObj)->Brain();

	mov	ecx, DWORD PTR _pObj$[ebp]
	call	?Brain@SimVehicleClass@@QAEPAVBaseBrain@@XZ ; SimVehicleClass::Brain
	mov	DWORD PTR _pbrain$[ebp], eax

; 1485 : 			mode		= pbrain->GetCurrentMode();

	mov	ecx, DWORD PTR _pbrain$[ebp]
	call	?GetCurrentMode@DigitalBrain@@QAE?AW4DigiMode@1@XZ ; DigitalBrain::GetCurrentMode
	mov	DWORD PTR _mode$[ebp], eax

; 1486 : 
; 1487 : 			if(((SimMoverClass*) pObj)->targetPtr) {

	mov	ecx, DWORD PTR _pObj$[ebp]
	cmp	DWORD PTR [ecx+656], 0
	je	SHORT $LN31@Padlock_Ra

; 1488 : 				pobjTgt	= (SimMoverClass*) ((SimMoverClass*) pObj)->targetPtr->BaseData();

	mov	edx, DWORD PTR _pObj$[ebp]
	mov	ecx, DWORD PTR [edx+656]
	call	?BaseData@SimObjectType@@QAEPAVFalconEntity@@XZ ; SimObjectType::BaseData
	mov	DWORD PTR _pobjTgt$[ebp], eax
$LN31@Padlock_Ra:

; 1489 : 			}
; 1490 : 		} // Othwerwise 
; 1491 : 		else {

	jmp	SHORT $LN30@Padlock_Ra
$LN32@Padlock_Ra:

; 1492 : 			pbrain	= NULL;

	mov	DWORD PTR _pbrain$[ebp], 0

; 1493 : 			mode		= DigitalBrain::NoMode;

	mov	DWORD PTR _mode$[ebp], 25		; 00000019H
$LN30@Padlock_Ra:

; 1494 : 		}
; 1495 : 
; 1496 : 		// Get the object's side
; 1497 : 		objSide		= ((SimMoverClass*) pObj)->GetTeam();

	mov	eax, DWORD PTR _pObj$[ebp]
	mov	edx, DWORD PTR [eax]
	mov	ecx, DWORD PTR _pObj$[ebp]
	mov	eax, DWORD PTR [edx+116]
	call	eax
	movzx	ecx, al
	mov	DWORD PTR _objSide$[ebp], ecx

; 1498 : 
; 1499 : 		// Get the pointer to the player
; 1500 : 		pplayer		= SimDriver.GetPlayerAircraft();

	mov	ecx, OFFSET ?SimDriver@@3VSimulationDriver@@A ; SimDriver
	call	?GetPlayerAircraft@SimulationDriver@@QBEPAVAircraftClass@@XZ ; SimulationDriver::GetPlayerAircraft
	mov	DWORD PTR _pplayer$[ebp], eax

; 1501 : 
; 1502 : 		// Get the player's side
; 1503 : 		playerSide	= pplayer->GetTeam();

	mov	edx, DWORD PTR _pplayer$[ebp]
	mov	eax, DWORD PTR [edx]
	mov	ecx, DWORD PTR _pplayer$[ebp]
	mov	edx, DWORD PTR [eax+116]
	call	edx
	movzx	eax, al
	mov	DWORD PTR _playerSide$[ebp], eax

; 1504 : 
; 1505 : 		// Get the player's radar
; 1506 : 		pradar		= (RadarClass*) FindSensor(pplayer, SensorClass::Radar);

	push	1
	mov	ecx, DWORD PTR _pplayer$[ebp]
	push	ecx
	call	?FindSensor@@YAPAVSensorClass@@PAVSimMoverClass@@H@Z ; FindSensor
	add	esp, 8
	mov	DWORD PTR _pradar$[ebp], eax

; 1507 : 
; 1508 : 		// Get the player radar's locked target
; 1509 : 		ShiAssert(pradar);
; 1510 : 		if (pradar)

	cmp	DWORD PTR _pradar$[ebp], 0
	je	SHORT $LN29@Padlock_Ra

; 1511 : 			pplayerLockedTgt	= (SimObjectType*) pradar->CurrentTarget();

	mov	ecx, DWORD PTR _pradar$[ebp]
	call	?CurrentTarget@SensorClass@@QAEPAVSimObjectType@@XZ ; SensorClass::CurrentTarget
	mov	DWORD PTR _pplayerLockedTgt$[ebp], eax
$LN29@Padlock_Ra:

; 1512 : 
; 1513 : 		// If missile guiding upon the player
; 1514 : 		if(objSide != playerSide && objtype == TYPE_MISSILE) { // && pobjTgt == pplayer) {

	mov	edx, DWORD PTR _objSide$[ebp]
	cmp	edx, DWORD PTR _playerSide$[ebp]
	je	SHORT $LN28@Padlock_Ra
	movsx	eax, BYTE PTR _objtype$[ebp]
	cmp	eax, 6
	jne	SHORT $LN28@Padlock_Ra

; 1515 : 			priority = 1;

	mov	DWORD PTR _priority$[ebp], 1
	jmp	$LN27@Padlock_Ra
$LN28@Padlock_Ra:

; 1516 : 		} // If object is locked by player
; 1517 : 		else if(objSide == playerSide && objtype == TYPE_MISSILE) {// && pobjTgt == pplayer) {

	mov	ecx, DWORD PTR _objSide$[ebp]
	cmp	ecx, DWORD PTR _playerSide$[ebp]
	jne	SHORT $LN26@Padlock_Ra
	movsx	edx, BYTE PTR _objtype$[ebp]
	cmp	edx, 6
	jne	SHORT $LN26@Padlock_Ra

; 1518 : 			priority = 15;

	mov	DWORD PTR _priority$[ebp], 15		; 0000000fH
	jmp	$LN27@Padlock_Ra
$LN26@Padlock_Ra:

; 1519 : 		} // If object is locked by player
; 1520 : 		else if(pplayerLockedTgt && pplayerLockedTgt->BaseData() == pObj) {

	cmp	DWORD PTR _pplayerLockedTgt$[ebp], 0
	je	SHORT $LN24@Padlock_Ra
	mov	ecx, DWORD PTR _pplayerLockedTgt$[ebp]
	call	?BaseData@SimObjectType@@QAEPAVFalconEntity@@XZ ; SimObjectType::BaseData
	cmp	eax, DWORD PTR _pObj$[ebp]
	jne	SHORT $LN24@Padlock_Ra

; 1521 : 			priority = 2;

	mov	DWORD PTR _priority$[ebp], 2
	jmp	$LN27@Padlock_Ra
$LN24@Padlock_Ra:

; 1522 : 		} // If object is attacking player
; 1523 : 		else if(pobjTgt == pplayer && pbrain && (mode == DigitalBrain::GunsEngageMode || mode == DigitalBrain::MissileEngageMode || mode == DigitalBrain::WVREngageMode || mode == DigitalBrain::BVREngageMode)) {

	mov	eax, DWORD PTR _pobjTgt$[ebp]
	cmp	eax, DWORD PTR _pplayer$[ebp]
	jne	SHORT $LN22@Padlock_Ra
	cmp	DWORD PTR _pbrain$[ebp], 0
	je	SHORT $LN22@Padlock_Ra
	cmp	DWORD PTR _mode$[ebp], 12		; 0000000cH
	je	SHORT $LN21@Padlock_Ra
	cmp	DWORD PTR _mode$[ebp], 11		; 0000000bH
	je	SHORT $LN21@Padlock_Ra
	cmp	DWORD PTR _mode$[ebp], 15		; 0000000fH
	je	SHORT $LN21@Padlock_Ra
	cmp	DWORD PTR _mode$[ebp], 16		; 00000010H
	jne	SHORT $LN22@Padlock_Ra
$LN21@Padlock_Ra:

; 1524 : 			priority = 3;

	mov	DWORD PTR _priority$[ebp], 3
	jmp	$LN27@Padlock_Ra
$LN22@Padlock_Ra:

; 1525 : 		} // If object is enemy and being painted by player
; 1526 : 		else if(objSide != playerSide && isPainted) {

	mov	ecx, DWORD PTR _objSide$[ebp]
	cmp	ecx, DWORD PTR _playerSide$[ebp]
	je	SHORT $LN19@Padlock_Ra
	cmp	DWORD PTR _isPainted$[ebp], 0
	je	SHORT $LN19@Padlock_Ra

; 1527 : 			priority = 4;

	mov	DWORD PTR _priority$[ebp], 4
	jmp	$LN27@Padlock_Ra
$LN19@Padlock_Ra:

; 1528 : 		} // If object is enemy and fighter
; 1529 : 		else if(objSide != playerSide && objtype == TYPE_AIRPLANE && objstype == STYPE_AIR_FIGHTER ) {

	mov	edx, DWORD PTR _objSide$[ebp]
	cmp	edx, DWORD PTR _playerSide$[ebp]
	je	SHORT $LN17@Padlock_Ra
	movsx	eax, BYTE PTR _objtype$[ebp]
	cmp	eax, 1
	jne	SHORT $LN17@Padlock_Ra
	movsx	ecx, BYTE PTR _objstype$[ebp]
	cmp	ecx, 6
	jne	SHORT $LN17@Padlock_Ra

; 1530 : 			priority = 5;	

	mov	DWORD PTR _priority$[ebp], 5
	jmp	$LN27@Padlock_Ra
$LN17@Padlock_Ra:

; 1531 : 		} // If object is enemy and bomber
; 1532 : 		else if(objSide != playerSide && objtype == TYPE_AIRPLANE && (objstype == STYPE_AIR_BOMBER || objstype == STYPE_AIR_FIGHTER_BOMBER)) {

	mov	edx, DWORD PTR _objSide$[ebp]
	cmp	edx, DWORD PTR _playerSide$[ebp]
	je	SHORT $LN15@Padlock_Ra
	movsx	eax, BYTE PTR _objtype$[ebp]
	cmp	eax, 1
	jne	SHORT $LN15@Padlock_Ra
	movsx	ecx, BYTE PTR _objstype$[ebp]
	cmp	ecx, 4
	je	SHORT $LN14@Padlock_Ra
	movsx	edx, BYTE PTR _objstype$[ebp]
	cmp	edx, 7
	jne	SHORT $LN15@Padlock_Ra
$LN14@Padlock_Ra:

; 1533 : 			priority = 6;

	mov	DWORD PTR _priority$[ebp], 6
	jmp	$LN27@Padlock_Ra
$LN15@Padlock_Ra:

; 1534 : 		} // If object is enemy and any other kind of aircraft
; 1535 : 		else if(objSide != playerSide && objtype == TYPE_AIRPLANE ) {

	mov	eax, DWORD PTR _objSide$[ebp]
	cmp	eax, DWORD PTR _playerSide$[ebp]
	je	SHORT $LN12@Padlock_Ra
	movsx	ecx, BYTE PTR _objtype$[ebp]
	cmp	ecx, 1
	jne	SHORT $LN12@Padlock_Ra

; 1536 : 			priority = 7;

	mov	DWORD PTR _priority$[ebp], 7
	jmp	$LN27@Padlock_Ra
$LN12@Padlock_Ra:

; 1537 : 		} // If object is friendly and painted by player
; 1538 : 		else if(objSide == playerSide && isPainted) {

	mov	edx, DWORD PTR _objSide$[ebp]
	cmp	edx, DWORD PTR _playerSide$[ebp]
	jne	SHORT $LN10@Padlock_Ra
	cmp	DWORD PTR _isPainted$[ebp], 0
	je	SHORT $LN10@Padlock_Ra

; 1539 : 			priority = 8;

	mov	DWORD PTR _priority$[ebp], 8
	jmp	SHORT $LN27@Padlock_Ra
$LN10@Padlock_Ra:

; 1540 : 		} // If object is in player's flight
; 1541 : 	//	else if(pflight->  pObj is in player's flight) {
; 1542 : 	//		priority = 9;
; 1543 : 	//	} // If object is friendly and fighter
; 1544 : 		else if(objSide == playerSide && objtype == TYPE_AIRPLANE && objstype == STYPE_AIR_FIGHTER) {

	mov	eax, DWORD PTR _objSide$[ebp]
	cmp	eax, DWORD PTR _playerSide$[ebp]
	jne	SHORT $LN8@Padlock_Ra
	movsx	ecx, BYTE PTR _objtype$[ebp]
	cmp	ecx, 1
	jne	SHORT $LN8@Padlock_Ra
	movsx	edx, BYTE PTR _objstype$[ebp]
	cmp	edx, 6
	jne	SHORT $LN8@Padlock_Ra

; 1545 : 			priority = 10;

	mov	DWORD PTR _priority$[ebp], 10		; 0000000aH
	jmp	SHORT $LN27@Padlock_Ra
$LN8@Padlock_Ra:

; 1546 : 		} // If object is friendly and bomber
; 1547 : 		else if(objSide == playerSide && objtype == TYPE_AIRPLANE && (objstype == STYPE_AIR_BOMBER || objstype == STYPE_AIR_FIGHTER_BOMBER)) {

	mov	eax, DWORD PTR _objSide$[ebp]
	cmp	eax, DWORD PTR _playerSide$[ebp]
	jne	SHORT $LN6@Padlock_Ra
	movsx	ecx, BYTE PTR _objtype$[ebp]
	cmp	ecx, 1
	jne	SHORT $LN6@Padlock_Ra
	movsx	edx, BYTE PTR _objstype$[ebp]
	cmp	edx, 4
	je	SHORT $LN5@Padlock_Ra
	movsx	eax, BYTE PTR _objstype$[ebp]
	cmp	eax, 7
	jne	SHORT $LN6@Padlock_Ra
$LN5@Padlock_Ra:

; 1548 : 			priority = 11;

	mov	DWORD PTR _priority$[ebp], 11		; 0000000bH
	jmp	SHORT $LN27@Padlock_Ra
$LN6@Padlock_Ra:

; 1549 : 		} // If object is friendly and any other kind of aircraft
; 1550 : 		else if(objSide != playerSide && objtype == TYPE_AIRPLANE ) {

	mov	ecx, DWORD PTR _objSide$[ebp]
	cmp	ecx, DWORD PTR _playerSide$[ebp]
	je	SHORT $LN3@Padlock_Ra
	movsx	edx, BYTE PTR _objtype$[ebp]
	cmp	edx, 1
	jne	SHORT $LN3@Padlock_Ra

; 1551 : 			priority = 12;

	mov	DWORD PTR _priority$[ebp], 12		; 0000000cH

; 1552 : 		} // Everything else
; 1553 : 		else {

	jmp	SHORT $LN27@Padlock_Ra
$LN3@Padlock_Ra:

; 1554 : 			priority = 13;

	mov	DWORD PTR _priority$[ebp], 13		; 0000000dH
$LN27@Padlock_Ra:

; 1555 : 		}
; 1556 : 	}
; 1557 : 	else {

	jmp	SHORT $LN35@Padlock_Ra
$LN34@Padlock_Ra:

; 1558 : 		priority = 15;

	mov	DWORD PTR _priority$[ebp], 15		; 0000000fH
$LN35@Padlock_Ra:

; 1559 : 	}
; 1560 : 
; 1561 : 	return priority;

	mov	eax, DWORD PTR _priority$[ebp]

; 1562 : }

	mov	esp, ebp
	pop	ebp
	ret	8
?Padlock_RankNAVPriority@OTWDriverClass@@AAEHPAVSimBaseClass@@H@Z ENDP ; OTWDriverClass::Padlock_RankNAVPriority
_TEXT	ENDS
; Function compile flags: /Odtp
; File c:\users\zhitao li\documents\visual studio 2012\projects\freefalcon\sim\otwdrive\padlock.cpp
_TEXT	SEGMENT
_this$ = -48						; size = 4
_pobjTgt$ = -44						; size = 4
_pradar$ = -40						; size = 4
_pclassPtr$ = -36					; size = 4
_pplayerLockedTgt$ = -32				; size = 4
_pbrain$ = -28						; size = 4
_pplayer$ = -24						; size = 4
_mode$ = -20						; size = 4
_playerSide$ = -16					; size = 4
_objSide$ = -12						; size = 4
_priority$ = -8						; size = 4
_objstype$ = -2						; size = 1
_objtype$ = -1						; size = 1
_pObj$ = 8						; size = 4
_isPainted$ = 12					; size = 4
?Padlock_RankAAPriority@OTWDriverClass@@AAEHPAVSimBaseClass@@H@Z PROC ; OTWDriverClass::Padlock_RankAAPriority
; _this$ = ecx

; 1305 : {

	push	ebp
	mov	ebp, esp
	sub	esp, 48					; 00000030H
	mov	DWORD PTR _this$[ebp], ecx

; 1306 : 	int							priority;
; 1307 : 	int							objSide;
; 1308 : 	int							playerSide;
; 1309 : 	char							objtype;
; 1310 : 	char							objstype;
; 1311 : 	Falcon4EntityClassType* pclassPtr;
; 1312 : 	RadarClass*					pradar;
; 1313 : 	SimObjectType*				pplayerLockedTgt = NULL;

	mov	DWORD PTR _pplayerLockedTgt$[ebp], 0

; 1314 : 	SimMoverClass*				pobjTgt = NULL;

	mov	DWORD PTR _pobjTgt$[ebp], 0

; 1315 : 	AircraftClass*				pplayer;
; 1316 : 	DigitalBrain*				pbrain = NULL;

	mov	DWORD PTR _pbrain$[ebp], 0

; 1317 : 	DigitalBrain::DigiMode	mode;
; 1318 : 
; 1319 : 	// Get the object's type pointer
; 1320 : 	pclassPtr	= (Falcon4EntityClassType*) pObj->EntityType();

	mov	ecx, DWORD PTR _pObj$[ebp]
	call	?EntityType@VuEntity@@QBEPAUVuEntityType@@XZ ; VuEntity::EntityType
	mov	DWORD PTR _pclassPtr$[ebp], eax

; 1321 : 
; 1322 : 	// Get object's type
; 1323 : 	objtype		= pclassPtr->vuClassData.classInfo_[VU_TYPE];

	mov	eax, 1
	shl	eax, 1
	mov	ecx, DWORD PTR _pclassPtr$[ebp]
	mov	dl, BYTE PTR [ecx+eax+8]
	mov	BYTE PTR _objtype$[ebp], dl

; 1324 : 
; 1325 : 	// Get object's stype
; 1326 : 	objstype		= pclassPtr->vuClassData.classInfo_[VU_STYPE];

	mov	eax, 1
	imul	eax, 3
	mov	ecx, DWORD PTR _pclassPtr$[ebp]
	mov	dl, BYTE PTR [ecx+eax+8]
	mov	BYTE PTR _objstype$[ebp], dl

; 1327 : 
; 1328 : 	// Get the object's target
; 1329 : //	if(pObj->targetPtr) {
; 1330 : //		pobjTgt	= (SimMoverClass*) pObj->targetPtr->BaseData();
; 1331 : //	}
; 1332 : 	// Get the object's brain, if individual deaggregated aircraft
; 1333 : 	if(pObj->IsAirplane ()) //objtype == TYPE_AIRPLANE && !pObj->IsFlight())

	mov	eax, DWORD PTR _pObj$[ebp]
	mov	edx, DWORD PTR [eax]
	mov	ecx, DWORD PTR _pObj$[ebp]
	mov	eax, DWORD PTR [edx+192]
	call	eax
	test	eax, eax
	je	SHORT $LN31@Padlock_Ra

; 1334 : 	{
; 1335 : 		pbrain	= (DigitalBrain*) ((AircraftClass*)pObj)->Brain();

	mov	ecx, DWORD PTR _pObj$[ebp]
	call	?Brain@SimVehicleClass@@QAEPAVBaseBrain@@XZ ; SimVehicleClass::Brain
	mov	DWORD PTR _pbrain$[ebp], eax

; 1336 : 		mode		= pbrain->GetCurrentMode();

	mov	ecx, DWORD PTR _pbrain$[ebp]
	call	?GetCurrentMode@DigitalBrain@@QAE?AW4DigiMode@1@XZ ; DigitalBrain::GetCurrentMode
	mov	DWORD PTR _mode$[ebp], eax

; 1337 : 
; 1338 : 		if(((SimMoverClass*) pObj)->targetPtr)

	mov	ecx, DWORD PTR _pObj$[ebp]
	cmp	DWORD PTR [ecx+656], 0
	je	SHORT $LN30@Padlock_Ra

; 1339 : 		{
; 1340 : 			pobjTgt	= (SimMoverClass*) ((SimMoverClass*) pObj)->targetPtr->BaseData();

	mov	edx, DWORD PTR _pObj$[ebp]
	mov	ecx, DWORD PTR [edx+656]
	call	?BaseData@SimObjectType@@QAEPAVFalconEntity@@XZ ; SimObjectType::BaseData
	mov	DWORD PTR _pobjTgt$[ebp], eax
$LN30@Padlock_Ra:

; 1341 : 		}
; 1342 : 	} // Othwerwise 
; 1343 : 	else

	jmp	SHORT $LN29@Padlock_Ra
$LN31@Padlock_Ra:

; 1344 : 	{
; 1345 : 		pbrain	= NULL;

	mov	DWORD PTR _pbrain$[ebp], 0

; 1346 : 		mode		= DigitalBrain::NoMode;

	mov	DWORD PTR _mode$[ebp], 25		; 00000019H
$LN29@Padlock_Ra:

; 1347 : 	}
; 1348 : 
; 1349 : 	// Get the object's side
; 1350 : 	objSide		= pObj->GetTeam();

	mov	eax, DWORD PTR _pObj$[ebp]
	mov	edx, DWORD PTR [eax]
	mov	ecx, DWORD PTR _pObj$[ebp]
	mov	eax, DWORD PTR [edx+116]
	call	eax
	movzx	ecx, al
	mov	DWORD PTR _objSide$[ebp], ecx

; 1351 : 
; 1352 : 	// Get the pointer to the player
; 1353 : 	pplayer		= SimDriver.GetPlayerAircraft();

	mov	ecx, OFFSET ?SimDriver@@3VSimulationDriver@@A ; SimDriver
	call	?GetPlayerAircraft@SimulationDriver@@QBEPAVAircraftClass@@XZ ; SimulationDriver::GetPlayerAircraft
	mov	DWORD PTR _pplayer$[ebp], eax

; 1354 : 
; 1355 : 	// Get the player's side
; 1356 : 	playerSide	= pplayer->GetTeam();

	mov	edx, DWORD PTR _pplayer$[ebp]
	mov	eax, DWORD PTR [edx]
	mov	ecx, DWORD PTR _pplayer$[ebp]
	mov	edx, DWORD PTR [eax+116]
	call	edx
	movzx	eax, al
	mov	DWORD PTR _playerSide$[ebp], eax

; 1357 : 
; 1358 : 	// Get the player's radar
; 1359 : 	pradar		= (RadarClass*) FindSensor(pplayer, SensorClass::Radar);

	push	1
	mov	ecx, DWORD PTR _pplayer$[ebp]
	push	ecx
	call	?FindSensor@@YAPAVSensorClass@@PAVSimMoverClass@@H@Z ; FindSensor
	add	esp, 8
	mov	DWORD PTR _pradar$[ebp], eax

; 1360 : 
; 1361 : 	// Get the player radar's locked target
; 1362 : 	if (pradar)

	cmp	DWORD PTR _pradar$[ebp], 0
	je	SHORT $LN28@Padlock_Ra

; 1363 : 		pplayerLockedTgt	= (SimObjectType*) pradar->CurrentTarget();

	mov	ecx, DWORD PTR _pradar$[ebp]
	call	?CurrentTarget@SensorClass@@QAEPAVSimObjectType@@XZ ; SensorClass::CurrentTarget
	mov	DWORD PTR _pplayerLockedTgt$[ebp], eax
$LN28@Padlock_Ra:

; 1364 : 
; 1365 : 	// If missile guiding upon the player
; 1366 : 	if(objSide != playerSide && objtype == TYPE_MISSILE) {// && pobjTgt == pplayer) {

	mov	edx, DWORD PTR _objSide$[ebp]
	cmp	edx, DWORD PTR _playerSide$[ebp]
	je	SHORT $LN27@Padlock_Ra
	movsx	eax, BYTE PTR _objtype$[ebp]
	cmp	eax, 6
	jne	SHORT $LN27@Padlock_Ra

; 1367 : 		priority = 0;

	mov	DWORD PTR _priority$[ebp], 0
	jmp	$LN26@Padlock_Ra
$LN27@Padlock_Ra:

; 1368 : 	} // If object is locked by player
; 1369 : 	else if(objSide == playerSide && objtype == TYPE_MISSILE) {// && pobjTgt == pplayer) {

	mov	ecx, DWORD PTR _objSide$[ebp]
	cmp	ecx, DWORD PTR _playerSide$[ebp]
	jne	SHORT $LN25@Padlock_Ra
	movsx	edx, BYTE PTR _objtype$[ebp]
	cmp	edx, 6
	jne	SHORT $LN25@Padlock_Ra

; 1370 : 		priority = 12;

	mov	DWORD PTR _priority$[ebp], 12		; 0000000cH
	jmp	$LN26@Padlock_Ra
$LN25@Padlock_Ra:

; 1371 : 	} // If object is locked by player
; 1372 : 	else if(pplayerLockedTgt && pplayerLockedTgt->BaseData() == pObj) {

	cmp	DWORD PTR _pplayerLockedTgt$[ebp], 0
	je	SHORT $LN23@Padlock_Ra
	mov	ecx, DWORD PTR _pplayerLockedTgt$[ebp]
	call	?BaseData@SimObjectType@@QAEPAVFalconEntity@@XZ ; SimObjectType::BaseData
	cmp	eax, DWORD PTR _pObj$[ebp]
	jne	SHORT $LN23@Padlock_Ra

; 1373 : 		priority = 1;

	mov	DWORD PTR _priority$[ebp], 1
	jmp	$LN26@Padlock_Ra
$LN23@Padlock_Ra:

; 1374 : 	} // If object is attacking player
; 1375 : 	else if(pobjTgt == pplayer && pbrain && (mode == DigitalBrain::GunsEngageMode || mode == DigitalBrain::MissileEngageMode || mode == DigitalBrain::WVREngageMode || mode == DigitalBrain::BVREngageMode)) {

	mov	eax, DWORD PTR _pobjTgt$[ebp]
	cmp	eax, DWORD PTR _pplayer$[ebp]
	jne	SHORT $LN21@Padlock_Ra
	cmp	DWORD PTR _pbrain$[ebp], 0
	je	SHORT $LN21@Padlock_Ra
	cmp	DWORD PTR _mode$[ebp], 12		; 0000000cH
	je	SHORT $LN20@Padlock_Ra
	cmp	DWORD PTR _mode$[ebp], 11		; 0000000bH
	je	SHORT $LN20@Padlock_Ra
	cmp	DWORD PTR _mode$[ebp], 15		; 0000000fH
	je	SHORT $LN20@Padlock_Ra
	cmp	DWORD PTR _mode$[ebp], 16		; 00000010H
	jne	SHORT $LN21@Padlock_Ra
$LN20@Padlock_Ra:

; 1376 : 		priority = 2;

	mov	DWORD PTR _priority$[ebp], 2
	jmp	$LN26@Padlock_Ra
$LN21@Padlock_Ra:

; 1377 : 	} // If object is enemy and being painted by player
; 1378 : 	else if(objSide != playerSide && isPainted) {

	mov	ecx, DWORD PTR _objSide$[ebp]
	cmp	ecx, DWORD PTR _playerSide$[ebp]
	je	SHORT $LN18@Padlock_Ra
	cmp	DWORD PTR _isPainted$[ebp], 0
	je	SHORT $LN18@Padlock_Ra

; 1379 : 		priority = 3;

	mov	DWORD PTR _priority$[ebp], 3
	jmp	$LN26@Padlock_Ra
$LN18@Padlock_Ra:

; 1380 : 	} // If object is enemy and fighter
; 1381 : 	else if(objSide != playerSide && objtype == TYPE_AIRPLANE && objstype == STYPE_AIR_FIGHTER ) {

	mov	edx, DWORD PTR _objSide$[ebp]
	cmp	edx, DWORD PTR _playerSide$[ebp]
	je	SHORT $LN16@Padlock_Ra
	movsx	eax, BYTE PTR _objtype$[ebp]
	cmp	eax, 1
	jne	SHORT $LN16@Padlock_Ra
	movsx	ecx, BYTE PTR _objstype$[ebp]
	cmp	ecx, 6
	jne	SHORT $LN16@Padlock_Ra

; 1382 : 		priority = 4;	

	mov	DWORD PTR _priority$[ebp], 4
	jmp	$LN26@Padlock_Ra
$LN16@Padlock_Ra:

; 1383 : 	} // If object is enemy and bomber
; 1384 : 	else if(objSide != playerSide && objtype == TYPE_AIRPLANE && (objstype == STYPE_AIR_BOMBER || objstype == STYPE_AIR_FIGHTER_BOMBER)) {

	mov	edx, DWORD PTR _objSide$[ebp]
	cmp	edx, DWORD PTR _playerSide$[ebp]
	je	SHORT $LN14@Padlock_Ra
	movsx	eax, BYTE PTR _objtype$[ebp]
	cmp	eax, 1
	jne	SHORT $LN14@Padlock_Ra
	movsx	ecx, BYTE PTR _objstype$[ebp]
	cmp	ecx, 4
	je	SHORT $LN13@Padlock_Ra
	movsx	edx, BYTE PTR _objstype$[ebp]
	cmp	edx, 7
	jne	SHORT $LN14@Padlock_Ra
$LN13@Padlock_Ra:

; 1385 : 		priority = 5;

	mov	DWORD PTR _priority$[ebp], 5
	jmp	$LN26@Padlock_Ra
$LN14@Padlock_Ra:

; 1386 : 	} // If object is enemy and any other kind of aircraft
; 1387 : 	else if(objSide != playerSide && objtype == TYPE_AIRPLANE ) {

	mov	eax, DWORD PTR _objSide$[ebp]
	cmp	eax, DWORD PTR _playerSide$[ebp]
	je	SHORT $LN11@Padlock_Ra
	movsx	ecx, BYTE PTR _objtype$[ebp]
	cmp	ecx, 1
	jne	SHORT $LN11@Padlock_Ra

; 1388 : 		priority = 6;

	mov	DWORD PTR _priority$[ebp], 6
	jmp	$LN26@Padlock_Ra
$LN11@Padlock_Ra:

; 1389 : 	} // If object is friendly and painted by player
; 1390 : 	else if(objSide == playerSide && isPainted) {

	mov	edx, DWORD PTR _objSide$[ebp]
	cmp	edx, DWORD PTR _playerSide$[ebp]
	jne	SHORT $LN9@Padlock_Ra
	cmp	DWORD PTR _isPainted$[ebp], 0
	je	SHORT $LN9@Padlock_Ra

; 1391 : 		priority = 7;

	mov	DWORD PTR _priority$[ebp], 7
	jmp	SHORT $LN26@Padlock_Ra
$LN9@Padlock_Ra:

; 1392 : 	} // If object is in player's flight
; 1393 : //	else if(pflight->  pObj is in player's flight) {
; 1394 : //		priority = 8;
; 1395 : //	} // If object is friendly and fighter
; 1396 : 	else if(objSide == playerSide && objtype == TYPE_AIRPLANE && objstype == STYPE_AIR_FIGHTER) {

	mov	eax, DWORD PTR _objSide$[ebp]
	cmp	eax, DWORD PTR _playerSide$[ebp]
	jne	SHORT $LN7@Padlock_Ra
	movsx	ecx, BYTE PTR _objtype$[ebp]
	cmp	ecx, 1
	jne	SHORT $LN7@Padlock_Ra
	movsx	edx, BYTE PTR _objstype$[ebp]
	cmp	edx, 6
	jne	SHORT $LN7@Padlock_Ra

; 1397 : 		priority = 9;

	mov	DWORD PTR _priority$[ebp], 9
	jmp	SHORT $LN26@Padlock_Ra
$LN7@Padlock_Ra:

; 1398 : 	} // If object is friendly and bomber
; 1399 : 	else if(objSide == playerSide && objtype == TYPE_AIRPLANE && (objstype == STYPE_AIR_BOMBER || objstype == STYPE_AIR_FIGHTER_BOMBER)) {

	mov	eax, DWORD PTR _objSide$[ebp]
	cmp	eax, DWORD PTR _playerSide$[ebp]
	jne	SHORT $LN5@Padlock_Ra
	movsx	ecx, BYTE PTR _objtype$[ebp]
	cmp	ecx, 1
	jne	SHORT $LN5@Padlock_Ra
	movsx	edx, BYTE PTR _objstype$[ebp]
	cmp	edx, 4
	je	SHORT $LN4@Padlock_Ra
	movsx	eax, BYTE PTR _objstype$[ebp]
	cmp	eax, 7
	jne	SHORT $LN5@Padlock_Ra
$LN4@Padlock_Ra:

; 1400 : 		priority = 10;

	mov	DWORD PTR _priority$[ebp], 10		; 0000000aH
	jmp	SHORT $LN26@Padlock_Ra
$LN5@Padlock_Ra:

; 1401 : 	} // If object is friendly and any other kind of aircraft
; 1402 : 	else if(objSide != playerSide && objtype == TYPE_AIRPLANE ) {

	mov	ecx, DWORD PTR _objSide$[ebp]
	cmp	ecx, DWORD PTR _playerSide$[ebp]
	je	SHORT $LN2@Padlock_Ra
	movsx	edx, BYTE PTR _objtype$[ebp]
	cmp	edx, 1
	jne	SHORT $LN2@Padlock_Ra

; 1403 : 		priority = 11;

	mov	DWORD PTR _priority$[ebp], 11		; 0000000bH

; 1404 : 	} // Everything else
; 1405 : 	else {

	jmp	SHORT $LN26@Padlock_Ra
$LN2@Padlock_Ra:

; 1406 : 		priority = 12;

	mov	DWORD PTR _priority$[ebp], 12		; 0000000cH
$LN26@Padlock_Ra:

; 1407 : 	}
; 1408 : 
; 1409 : 	return priority;

	mov	eax, DWORD PTR _priority$[ebp]

; 1410 : }

	mov	esp, ebp
	pop	ebp
	ret	8
?Padlock_RankAAPriority@OTWDriverClass@@AAEHPAVSimBaseClass@@H@Z ENDP ; OTWDriverClass::Padlock_RankAAPriority
_TEXT	ENDS
; Function compile flags: /Odtp
; File c:\users\zhitao li\documents\visual studio 2012\projects\freefalcon\sim\otwdrive\padlock.cpp
_TEXT	SEGMENT
_this$ = -48						; size = 4
tv220 = -44						; size = 4
_pobjTgt$ = -40						; size = 4
_pplayerLockedTgt$ = -36				; size = 4
_pradar$ = -32						; size = 4
_fc$ = -28						; size = 4
_pclassPtr$ = -24					; size = 4
_pplayer$ = -20						; size = 4
_playerSide$ = -16					; size = 4
_objSide$ = -12						; size = 4
_priority$ = -8						; size = 4
_objstype$ = -3						; size = 1
_objclass$ = -2						; size = 1
_objtype$ = -1						; size = 1
_pObj$ = 8						; size = 4
_isPainted$ = 12					; size = 4
?Padlock_RankAGPriority@OTWDriverClass@@AAEHPAVSimBaseClass@@H@Z PROC ; OTWDriverClass::Padlock_RankAGPriority
; _this$ = ecx

; 1173 : {

	push	ebp
	mov	ebp, esp
	sub	esp, 48					; 00000030H
	mov	DWORD PTR _this$[ebp], ecx

; 1174 : 	int							priority=0;

	mov	DWORD PTR _priority$[ebp], 0

; 1175 : 	int							objSide=0;

	mov	DWORD PTR _objSide$[ebp], 0

; 1176 : 	int							playerSide=0;

	mov	DWORD PTR _playerSide$[ebp], 0

; 1177 : 	char						objtype=0;

	mov	BYTE PTR _objtype$[ebp], 0

; 1178 : 	char						objstype=0;

	mov	BYTE PTR _objstype$[ebp], 0

; 1179 : 	char						objclass=0;

	mov	BYTE PTR _objclass$[ebp], 0

; 1180 : 	Falcon4EntityClassType*		pclassPtr=NULL;

	mov	DWORD PTR _pclassPtr$[ebp], 0

; 1181 : 	RadarClass*					pradar=NULL;

	mov	DWORD PTR _pradar$[ebp], 0

; 1182 : 	SimObjectType*				pplayerLockedTgt=NULL;

	mov	DWORD PTR _pplayerLockedTgt$[ebp], 0

; 1183 : 	SimMoverClass*				pobjTgt=NULL;

	mov	DWORD PTR _pobjTgt$[ebp], 0

; 1184 : 	AircraftClass*				pplayer=NULL;

	mov	DWORD PTR _pplayer$[ebp], 0

; 1185 : // 2002-04-08 MN check for "NO HITEVAL" features like trees
; 1186 : 	FeatureClassDataType		*fc = NULL;

	mov	DWORD PTR _fc$[ebp], 0

; 1187 : 
; 1188 : 	// Get the object's type pointer
; 1189 : 	pclassPtr	= (Falcon4EntityClassType*) pObj->EntityType();

	mov	ecx, DWORD PTR _pObj$[ebp]
	call	?EntityType@VuEntity@@QBEPAUVuEntityType@@XZ ; VuEntity::EntityType
	mov	DWORD PTR _pclassPtr$[ebp], eax

; 1190 : 
; 1191 : 	// Get object's type
; 1192 : 	objtype		= pclassPtr->vuClassData.classInfo_[VU_TYPE];

	mov	eax, 1
	shl	eax, 1
	mov	ecx, DWORD PTR _pclassPtr$[ebp]
	mov	dl, BYTE PTR [ecx+eax+8]
	mov	BYTE PTR _objtype$[ebp], dl

; 1193 : 
; 1194 : 	// Get object's stype
; 1195 : 	objstype		= pclassPtr->vuClassData.classInfo_[VU_STYPE];

	mov	eax, 1
	imul	eax, 3
	mov	ecx, DWORD PTR _pclassPtr$[ebp]
	mov	dl, BYTE PTR [ecx+eax+8]
	mov	BYTE PTR _objstype$[ebp], dl

; 1196 : 
; 1197 : 	// Get the object's data type
; 1198 : 	objclass		= pclassPtr->vuClassData.classInfo_[VU_CLASS];

	mov	eax, 1
	shl	eax, 0
	mov	ecx, DWORD PTR _pclassPtr$[ebp]
	mov	dl, BYTE PTR [ecx+eax+8]
	mov	BYTE PTR _objclass$[ebp], dl

; 1199 : 
; 1200 : 	// If the object is a feature
; 1201 : 	if(objclass == CLASS_FEATURE) {

	movsx	eax, BYTE PTR _objclass$[ebp]
	cmp	eax, 2
	jne	SHORT $LN26@Padlock_Ra

; 1202 : // 2002-04-08 MN don't padlock tree features
; 1203 : 		fc = GetFeatureClassData (pObj->Type() - VU_LAST_ENTITY_TYPE);

	mov	ecx, DWORD PTR _pObj$[ebp]
	call	?Type@VuEntity@@QBEGXZ			; VuEntity::Type
	movzx	ecx, ax
	sub	ecx, 100				; 00000064H
	push	ecx
	call	?GetFeatureClassData@@YAPAUFeatureClassDataType@@H@Z ; GetFeatureClassData
	add	esp, 4
	mov	DWORD PTR _fc$[ebp], eax

; 1204 : 		if ((g_nPadlockMode & PLockNoTrees) && fc && (fc->Flags & FEAT_NO_HITEVAL))

	mov	edx, DWORD PTR ?g_nPadlockMode@@3HA	; g_nPadlockMode
	and	edx, 8
	je	SHORT $LN25@Padlock_Ra
	cmp	DWORD PTR _fc$[ebp], 0
	je	SHORT $LN25@Padlock_Ra
	mov	eax, DWORD PTR _fc$[ebp]
	movzx	ecx, WORD PTR [eax+6]
	and	ecx, 16					; 00000010H
	je	SHORT $LN25@Padlock_Ra

; 1205 : 			priority = 100;

	mov	DWORD PTR _priority$[ebp], 100		; 00000064H

; 1206 : 		else

	jmp	SHORT $LN24@Padlock_Ra
$LN25@Padlock_Ra:

; 1207 : 			
; 1208 : 		// If friendly or neutral runway
; 1209 : 		if(objtype == TYPE_RUNWAY) {// && friendly or neutral) {

	movsx	edx, BYTE PTR _objtype$[ebp]
	cmp	edx, 11					; 0000000bH
	jne	SHORT $LN23@Padlock_Ra

; 1210 : 			priority = 5;

	mov	DWORD PTR _priority$[ebp], 5

; 1211 : 		} // Just a ground feature
; 1212 : 		else {

	jmp	SHORT $LN24@Padlock_Ra
$LN23@Padlock_Ra:

; 1213 : 			priority = 8;

	mov	DWORD PTR _priority$[ebp], 8
$LN24@Padlock_Ra:

; 1214 : 		}	

	jmp	$LN21@Padlock_Ra
$LN26@Padlock_Ra:

; 1215 : 	}
; 1216 : 	else if(objclass == CLASS_VEHICLE) {

	movsx	eax, BYTE PTR _objclass$[ebp]
	cmp	eax, 7
	jne	$LN20@Padlock_Ra

; 1217 : 		// Get the object's target
; 1218 : 		if(((SimMoverClass*) pObj)->targetPtr) {

	mov	ecx, DWORD PTR _pObj$[ebp]
	cmp	DWORD PTR [ecx+656], 0
	je	SHORT $LN19@Padlock_Ra

; 1219 : 			pobjTgt	= (SimMoverClass*) ((SimMoverClass*) pObj)->targetPtr->BaseData();

	mov	edx, DWORD PTR _pObj$[ebp]
	mov	ecx, DWORD PTR [edx+656]
	call	?BaseData@SimObjectType@@QAEPAVFalconEntity@@XZ ; SimObjectType::BaseData
	mov	DWORD PTR _pobjTgt$[ebp], eax
$LN19@Padlock_Ra:

; 1220 : 		}
; 1221 : 
; 1222 : 		// Get the object's side
; 1223 : 		objSide		= pObj->GetTeam();

	mov	eax, DWORD PTR _pObj$[ebp]
	mov	edx, DWORD PTR [eax]
	mov	ecx, DWORD PTR _pObj$[ebp]
	mov	eax, DWORD PTR [edx+116]
	call	eax
	movzx	ecx, al
	mov	DWORD PTR _objSide$[ebp], ecx

; 1224 : 
; 1225 : 		// Get the pointer to the player
; 1226 : 		pplayer		= SimDriver.GetPlayerAircraft();

	mov	ecx, OFFSET ?SimDriver@@3VSimulationDriver@@A ; SimDriver
	call	?GetPlayerAircraft@SimulationDriver@@QBEPAVAircraftClass@@XZ ; SimulationDriver::GetPlayerAircraft
	mov	DWORD PTR _pplayer$[ebp], eax

; 1227 : 
; 1228 : 		// Get the player's side
; 1229 : 		playerSide	= pplayer->GetTeam();

	mov	edx, DWORD PTR _pplayer$[ebp]
	mov	eax, DWORD PTR [edx]
	mov	ecx, DWORD PTR _pplayer$[ebp]
	mov	edx, DWORD PTR [eax+116]
	call	edx
	movzx	eax, al
	mov	DWORD PTR _playerSide$[ebp], eax

; 1230 : 
; 1231 : 
; 1232 : 	// Check on these values
; 1233 : 		// Get the player's radar
; 1234 : 		pradar		= (RadarClass*) FindSensor(pplayer, SensorClass::Radar);

	push	1
	mov	ecx, DWORD PTR _pplayer$[ebp]
	push	ecx
	call	?FindSensor@@YAPAVSensorClass@@PAVSimMoverClass@@H@Z ; FindSensor
	add	esp, 8
	mov	DWORD PTR _pradar$[ebp], eax

; 1235 : 
; 1236 : 		// 2002-03-01 ADDED BY S.G. What if we have no radar? Should it happen? It did and CTD'ed
; 1237 : 		F4Assert(pradar);
; 1238 : 		if (!pradar)

	cmp	DWORD PTR _pradar$[ebp], 0
	jne	SHORT $LN18@Padlock_Ra

; 1239 : 			return priority;

	mov	eax, DWORD PTR _priority$[ebp]
	jmp	$LN27@Padlock_Ra
$LN18@Padlock_Ra:

; 1240 : 		// END OF ADDED SECTION 2002-03-01
; 1241 : 
; 1242 : 		// Get the player radar's locked target
; 1243 : 		pplayerLockedTgt	= (SimObjectType*) pradar->CurrentTarget();

	mov	ecx, DWORD PTR _pradar$[ebp]
	call	?CurrentTarget@SensorClass@@QAEPAVSimObjectType@@XZ ; SensorClass::CurrentTarget
	mov	DWORD PTR _pplayerLockedTgt$[ebp], eax

; 1244 : 
; 1245 : 		// If missile guiding upon the player
; 1246 : 		if(objSide != playerSide && objtype == TYPE_MISSILE) {// && pobjTgt == pplayer) {

	mov	edx, DWORD PTR _objSide$[ebp]
	cmp	edx, DWORD PTR _playerSide$[ebp]
	je	SHORT $LN17@Padlock_Ra
	movsx	eax, BYTE PTR _objtype$[ebp]
	cmp	eax, 6
	jne	SHORT $LN17@Padlock_Ra

; 1247 : 			priority = 0;

	mov	DWORD PTR _priority$[ebp], 0
	jmp	$LN16@Padlock_Ra
$LN17@Padlock_Ra:

; 1248 : 		}
; 1249 : 		else if(objSide == playerSide && objtype == TYPE_MISSILE) {// && pobjTgt == pplayer) {

	mov	ecx, DWORD PTR _objSide$[ebp]
	cmp	ecx, DWORD PTR _playerSide$[ebp]
	jne	SHORT $LN15@Padlock_Ra
	movsx	edx, BYTE PTR _objtype$[ebp]
	cmp	edx, 6
	jne	SHORT $LN15@Padlock_Ra

; 1250 : 			priority = 10;

	mov	DWORD PTR _priority$[ebp], 10		; 0000000aH
	jmp	$LN16@Padlock_Ra
$LN15@Padlock_Ra:

; 1251 : 		} // If object is locked by player
; 1252 : 		else if(pplayerLockedTgt && pplayerLockedTgt->BaseData() == pObj) {

	cmp	DWORD PTR _pplayerLockedTgt$[ebp], 0
	je	SHORT $LN13@Padlock_Ra
	mov	ecx, DWORD PTR _pplayerLockedTgt$[ebp]
	call	?BaseData@SimObjectType@@QAEPAVFalconEntity@@XZ ; SimObjectType::BaseData
	cmp	eax, DWORD PTR _pObj$[ebp]
	jne	SHORT $LN13@Padlock_Ra

; 1253 : 			priority = 1;

	mov	DWORD PTR _priority$[ebp], 1
	jmp	$LN16@Padlock_Ra
$LN13@Padlock_Ra:

; 1254 : 		} // If object is attacking player
; 1255 : 		else if(pobjTgt == pplayer && ((SimVehicleClass*) pObj)->GetSMS()->GetCurrentWeapon()) { // KCK: This isn't always a ground class! -> || ((GroundClass*)pbaseData)->Gun)) {

	mov	eax, DWORD PTR _pobjTgt$[ebp]
	cmp	eax, DWORD PTR _pplayer$[ebp]
	jne	SHORT $LN11@Padlock_Ra
	mov	ecx, DWORD PTR _pObj$[ebp]
	mov	edx, DWORD PTR [ecx]
	mov	ecx, DWORD PTR _pObj$[ebp]
	mov	eax, DWORD PTR [edx+464]
	call	eax
	mov	DWORD PTR tv220[ebp], eax
	mov	ecx, DWORD PTR tv220[ebp]
	mov	edx, DWORD PTR [ecx]
	mov	ecx, DWORD PTR tv220[ebp]
	mov	eax, DWORD PTR [edx+12]
	call	eax
	test	eax, eax
	je	SHORT $LN11@Padlock_Ra

; 1256 : 			priority = 2;

	mov	DWORD PTR _priority$[ebp], 2
	jmp	SHORT $LN16@Padlock_Ra
$LN11@Padlock_Ra:

; 1257 : 		} // If object is enemy and being painted by player
; 1258 : 		else if(objSide != playerSide && isPainted) {

	mov	ecx, DWORD PTR _objSide$[ebp]
	cmp	ecx, DWORD PTR _playerSide$[ebp]
	je	SHORT $LN9@Padlock_Ra
	cmp	DWORD PTR _isPainted$[ebp], 0
	je	SHORT $LN9@Padlock_Ra

; 1259 : 			priority = 3;

	mov	DWORD PTR _priority$[ebp], 3
	jmp	SHORT $LN16@Padlock_Ra
$LN9@Padlock_Ra:

; 1260 : 		} // If object is enemy vehicle
; 1261 : 		else if(objSide != playerSide) {

	mov	edx, DWORD PTR _objSide$[ebp]
	cmp	edx, DWORD PTR _playerSide$[ebp]
	je	SHORT $LN7@Padlock_Ra

; 1262 : 			priority = 4;	

	mov	DWORD PTR _priority$[ebp], 4
	jmp	SHORT $LN16@Padlock_Ra
$LN7@Padlock_Ra:

; 1263 : 		}// If object is friendly and being painted by player
; 1264 : 		else if(objSide == playerSide && isPainted) {

	mov	eax, DWORD PTR _objSide$[ebp]
	cmp	eax, DWORD PTR _playerSide$[ebp]
	jne	SHORT $LN5@Padlock_Ra
	cmp	DWORD PTR _isPainted$[ebp], 0
	je	SHORT $LN5@Padlock_Ra

; 1265 : 			priority = 6;

	mov	DWORD PTR _priority$[ebp], 6
	jmp	SHORT $LN16@Padlock_Ra
$LN5@Padlock_Ra:

; 1266 : 		} // If friendly vehicle
; 1267 : 		else if(objSide == playerSide) {

	mov	ecx, DWORD PTR _objSide$[ebp]
	cmp	ecx, DWORD PTR _playerSide$[ebp]
	jne	SHORT $LN3@Padlock_Ra

; 1268 : 			priority = 7;

	mov	DWORD PTR _priority$[ebp], 7

; 1269 : 		} // Everything else
; 1270 : 		else {

	jmp	SHORT $LN16@Padlock_Ra
$LN3@Padlock_Ra:

; 1271 : 			priority = 9;

	mov	DWORD PTR _priority$[ebp], 9
$LN16@Padlock_Ra:

; 1272 : 		}
; 1273 : 	}
; 1274 : 	else {

	jmp	SHORT $LN21@Padlock_Ra
$LN20@Padlock_Ra:

; 1275 : 		priority = 10;

	mov	DWORD PTR _priority$[ebp], 10		; 0000000aH
$LN21@Padlock_Ra:

; 1276 : 	}
; 1277 : 
; 1278 : 	return priority;

	mov	eax, DWORD PTR _priority$[ebp]
$LN27@Padlock_Ra:

; 1279 : }

	mov	esp, ebp
	pop	ebp
	ret	8
?Padlock_RankAGPriority@OTWDriverClass@@AAEHPAVSimBaseClass@@H@Z ENDP ; OTWDriverClass::Padlock_RankAGPriority
_TEXT	ENDS
; Function compile flags: /Odtp
; File c:\users\zhitao li\documents\visual studio 2012\projects\freefalcon\sim\otwdrive\padlock.cpp
_TEXT	SEGMENT
_this$ = -8						; size = 4
_isOccluded$ = -4					; size = 4
_az$ = 8						; size = 4
_el$ = 12						; size = 4
?Padlock_CheckOcclusion@OTWDriverClass@@AAEHMM@Z PROC	; OTWDriverClass::Padlock_CheckOcclusion
; _this$ = ecx

; 1670 : {

	push	ebp
	mov	ebp, esp
	sub	esp, 8
	mov	DWORD PTR _this$[ebp], ecx

; 1671 : 	BOOL isOccluded;
; 1672 : 
; 1673 : 	if(az > -15.0F * DTR && az < 15.0F * DTR && el > 20.0F * DTR) {

	movss	xmm0, DWORD PTR _az$[ebp]
	comiss	xmm0, DWORD PTR __real@be860a91
	jbe	SHORT $LN7@Padlock_Ch
	movss	xmm0, DWORD PTR __real@3e860a91
	comiss	xmm0, DWORD PTR _az$[ebp]
	jbe	SHORT $LN7@Padlock_Ch
	movss	xmm0, DWORD PTR _el$[ebp]
	comiss	xmm0, DWORD PTR __real@3eb2b8c1
	jbe	SHORT $LN7@Padlock_Ch

; 1674 : 
; 1675 : 		// If I'm looking forward and down, i.e. +/- 15 degrees to either side and
; 1676 : 		// more than 20 degrees down.  This is the front of the cockpit and the object is
; 1677 : 		// occluded by the front instrument panel.
; 1678 : 
; 1679 : 		isOccluded = TRUE;

	mov	DWORD PTR _isOccluded$[ebp], 1
	jmp	SHORT $LN1@Padlock_Ch
$LN7@Padlock_Ch:

; 1680 : 	} 
; 1681 : //	else if((az > 150.0F  * DTR && az < 170 * DTR || az > -170 * DTR && az < -150.0F  * DTR) && el > -5.0F * DTR) {
; 1682 : 	else if((az > 150.0F  * DTR || az < -150.0F  * DTR) && el > -5.0F * DTR) {

	movss	xmm0, DWORD PTR _az$[ebp]
	comiss	xmm0, DWORD PTR __real@40278d35
	ja	SHORT $LN4@Padlock_Ch
	movss	xmm0, DWORD PTR __real@c0278d35
	comiss	xmm0, DWORD PTR _az$[ebp]
	jbe	SHORT $LN5@Padlock_Ch
$LN4@Padlock_Ch:
	movss	xmm0, DWORD PTR _el$[ebp]
	comiss	xmm0, DWORD PTR __real@bdb2b8c1
	jbe	SHORT $LN5@Padlock_Ch

; 1683 : 		
; 1684 : 		// If I'm looking back and down.  i.e. more than +/- 150 degrees behind and 5 degrees down.
; 1685 : 		// Back of the seat occludes the object
; 1686 : 
; 1687 : 		isOccluded = TRUE;

	mov	DWORD PTR _isOccluded$[ebp], 1
	jmp	SHORT $LN1@Padlock_Ch
$LN5@Padlock_Ch:

; 1688 : 	}
; 1689 : 	else if (el > 35.0F * DTR) {

	movss	xmm0, DWORD PTR _el$[ebp]
	comiss	xmm0, DWORD PTR __real@3f1c61a9
	jbe	SHORT $LN2@Padlock_Ch

; 1690 : 		
; 1691 : 		// If I'm looking more than 35 degrees down on the sides.  Then the object is somewhere
; 1692 : 		// hidden beheath the cockpit.
; 1693 : 
; 1694 : 		isOccluded = TRUE;

	mov	DWORD PTR _isOccluded$[ebp], 1

; 1695 : 	}
; 1696 : 
; 1697 : // M.N. - looking behind and up ? This guy has no neck ;) 
; 1698 : // make a no vision conus behind the pilot
; 1699 : // removed, doesn't seem to work well
; 1700 : /*	else if ((az >= 100 * DTR || az <= -100 * DTR) && fabs(el) > (180 * DTR -fabs(az))) {
; 1701 : 
; 1702 : 		// At 180, maximum is 100, at 175 maximum is 50.....
; 1703 : 		isOccluded = TRUE;
; 1704 : 	}*/
; 1705 : 	else {

	jmp	SHORT $LN1@Padlock_Ch
$LN2@Padlock_Ch:

; 1706 : 		
; 1707 : 		// Otherwise the object is not occluded.
; 1708 : 
; 1709 : 		isOccluded = FALSE;

	mov	DWORD PTR _isOccluded$[ebp], 0
$LN1@Padlock_Ch:

; 1710 : 	}
; 1711 : 
; 1712 : 	return isOccluded;

	mov	eax, DWORD PTR _isOccluded$[ebp]

; 1713 : }

	mov	esp, ebp
	pop	ebp
	ret	8
?Padlock_CheckOcclusion@OTWDriverClass@@AAEHMM@Z ENDP	; OTWDriverClass::Padlock_CheckOcclusion
_TEXT	ENDS
; Function compile flags: /Odtp
; File c:\users\zhitao li\documents\visual studio 2012\projects\freefalcon\sim\otwdrive\padlock.cpp
_TEXT	SEGMENT
tv168 = -12						; size = 4
tv154 = -8						; size = 4
_this$ = -4						; size = 4
_dT$ = 8						; size = 4
?Padlock_CheckPadlock@OTWDriverClass@@AAEXM@Z PROC	; OTWDriverClass::Padlock_CheckPadlock
; _this$ = ecx

; 1585 : {

	push	ebp
	mov	ebp, esp
	sub	esp, 12					; 0000000cH
	mov	DWORD PTR _this$[ebp], ecx

; 1586 : 
; 1587 : 
; 1588 : 	if(!mpPadlockPriorityObject && (snapStatus == PRESNAP || snapStatus == TRACKING)) {

	mov	eax, DWORD PTR _this$[ebp]
	cmp	DWORD PTR [eax+33804], 0
	jne	SHORT $LN13@Padlock_Ch
	mov	ecx, DWORD PTR _this$[ebp]
	cmp	DWORD PTR [ecx+33860], 0
	je	SHORT $LN12@Padlock_Ch
	mov	edx, DWORD PTR _this$[ebp]
	cmp	DWORD PTR [edx+33860], 1
	jne	SHORT $LN13@Padlock_Ch
$LN12@Padlock_Ch:

; 1589 : 		PadlockOccludedTime	= 0.0F;

	mov	eax, DWORD PTR _this$[ebp]
	movss	xmm0, DWORD PTR __real@00000000
	movss	DWORD PTR [eax+33828], xmm0

; 1590 : 		snapStatus				= SNAPPING;

	mov	ecx, DWORD PTR _this$[ebp]
	mov	DWORD PTR [ecx+33860], 2

; 1591 : 		mPadlockTimeout		= 0.0F;

	mov	edx, DWORD PTR _this$[ebp]
	movss	xmm0, DWORD PTR __real@00000000
	movss	DWORD PTR [edx+33820], xmm0

; 1592 : 		mTDTimeout				= 0.0F;

	mov	eax, DWORD PTR _this$[ebp]
	movss	xmm0, DWORD PTR __real@00000000
	movss	DWORD PTR [eax+33824], xmm0
	jmp	$LN2@Padlock_Ch
$LN13@Padlock_Ch:

; 1593 : 	}
; 1594 : 	else if(mPadlockTimeout <= 0.0F && mpPadlockCandidate) {		// If we have timed out and If there is a padlock candidate waiting in the wings,

	mov	ecx, DWORD PTR _this$[ebp]
	movss	xmm0, DWORD PTR __real@00000000
	comiss	xmm0, DWORD PTR [ecx+33820]
	jb	$LN10@Padlock_Ch
	mov	edx, DWORD PTR _this$[ebp]
	cmp	DWORD PTR [edx+33796], 0
	je	$LN10@Padlock_Ch

; 1595 : 		// Set the candidate to be the padlock priority
; 1596 : /* 2001-01-29 MODIFIED BY S.G. FOR THE NEW mpPadlockPrioritySimObject
; 1597 : 		// Set the candidate to be the padlock priority
; 1598 : 		VuDeReferenceEntity(mpPadlockPriorityObject);
; 1599 : 		mpPadlockPriorityObject = (SimBaseClass*) mpPadlockCandidate;
; 1600 : 		VuReferenceEntity(mpPadlockPriorityObject);
; 1601 : */		
; 1602 : 		SetmpPadlockPriorityObject(mpPadlockCandidate);

	mov	eax, DWORD PTR _this$[ebp]
	mov	ecx, DWORD PTR [eax+33796]
	push	ecx
	mov	ecx, DWORD PTR _this$[ebp]
	call	?SetmpPadlockPriorityObject@OTWDriverClass@@QAEXPAVSimBaseClass@@@Z ; OTWDriverClass::SetmpPadlockPriorityObject

; 1603 : 
; 1604 : 		//VWF 2/15/99
; 1605 : 		VuDeReferenceEntity(mpPadlockCandidate);

	mov	edx, DWORD PTR _this$[ebp]
	mov	eax, DWORD PTR [edx+33796]
	push	eax
	call	?VuDeReferenceEntity@@YAHPAVVuEntity@@@Z ; VuDeReferenceEntity
	add	esp, 4

; 1606 : 
; 1607 : 		// Release the candidate
; 1608 : 		mpPadlockCandidate	= NULL;

	mov	ecx, DWORD PTR _this$[ebp]
	mov	DWORD PTR [ecx+33796], 0

; 1609 :       mPadlockCandidateID  = FalconNullId;

	mov	edx, DWORD PTR _this$[ebp]
	mov	eax, DWORD PTR ?FalconNullId@@3VVU_ID@@A
	mov	DWORD PTR [edx+33812], eax
	mov	ecx, DWORD PTR ?FalconNullId@@3VVU_ID@@A+4
	mov	DWORD PTR [edx+33816], ecx

; 1610 : 
; 1611 : 		// Begin slewing
; 1612 : 		snapStatus				= PRESNAP;

	mov	edx, DWORD PTR _this$[ebp]
	mov	DWORD PTR [edx+33860], 0

; 1613 : 		mPrevPRate				= 0.5F;

	mov	eax, DWORD PTR _this$[ebp]
	movss	xmm0, DWORD PTR __real@3f000000
	movss	DWORD PTR [eax+33940], xmm0

; 1614 : 		mPrevPError				= 0.5F;

	mov	ecx, DWORD PTR _this$[ebp]
	movss	xmm0, DWORD PTR __real@3f000000
	movss	DWORD PTR [ecx+33944], xmm0

; 1615 : 		mPrevTRate				= 0.5F;

	mov	edx, DWORD PTR _this$[ebp]
	movss	xmm0, DWORD PTR __real@3f000000
	movss	DWORD PTR [edx+33948], xmm0

; 1616 : 		mPrevTError				= 0.5F;

	mov	eax, DWORD PTR _this$[ebp]
	movss	xmm0, DWORD PTR __real@3f000000
	movss	DWORD PTR [eax+33952], xmm0

; 1617 : 
; 1618 : 		PadlockOccludedTime	= 0.0F;

	mov	ecx, DWORD PTR _this$[ebp]
	movss	xmm0, DWORD PTR __real@00000000
	movss	DWORD PTR [ecx+33828], xmm0

; 1619 : 
; 1620 : 		// Zero out the timer
; 1621 : 		mPadlockTimeout		= 0.0F;

	mov	edx, DWORD PTR _this$[ebp]
	movss	xmm0, DWORD PTR __real@00000000
	movss	DWORD PTR [edx+33820], xmm0

; 1622 : 		mTDTimeout				= 5.0F;

	mov	eax, DWORD PTR _this$[ebp]
	movss	xmm0, DWORD PTR __real@40a00000
	movss	DWORD PTR [eax+33824], xmm0

; 1623 : 	}
; 1624 : 	else if(mpPadlockPriorityObject && 

	jmp	$LN2@Padlock_Ch
$LN10@Padlock_Ch:

; 1625 : 		((mpPadlockPriorityObject->IsDead() && mPadlockTimeout < 0.0F) || 
; 1626 : 		(FalconLocalGame && FalconLocalGame->GetGameType() == game_Dogfight && mpPadlockPriorityObject->IsDead() && mpPadlockPriorityObject->IsSetFalcFlag(FEC_REGENERATING)))) {

	mov	ecx, DWORD PTR _this$[ebp]
	cmp	DWORD PTR [ecx+33804], 0
	je	$LN8@Padlock_Ch
	mov	edx, DWORD PTR _this$[ebp]
	mov	eax, DWORD PTR [edx+33804]
	mov	ecx, DWORD PTR _this$[ebp]
	mov	edx, DWORD PTR [eax]
	mov	ecx, DWORD PTR [ecx+33804]
	mov	eax, DWORD PTR [edx+340]
	call	eax
	test	eax, eax
	je	SHORT $LN6@Padlock_Ch
	mov	ecx, DWORD PTR _this$[ebp]
	movss	xmm0, DWORD PTR __real@00000000
	comiss	xmm0, DWORD PTR [ecx+33820]
	ja	$LN7@Padlock_Ch
$LN6@Padlock_Ch:
	mov	ecx, OFFSET ?vuLocalSessionEntity@@3V?$VuBin@VVuSessionEntity@@@@A ; vuLocalSessionEntity
	call	??B?$VuBin@VVuSessionEntity@@@@QBE_NXZ	; VuBin<VuSessionEntity>::operator bool
	movzx	edx, al
	test	edx, edx
	je	SHORT $LN16@Padlock_Ch
	mov	ecx, OFFSET ?vuLocalSessionEntity@@3V?$VuBin@VVuSessionEntity@@@@A ; vuLocalSessionEntity
	call	?get@?$VuBin@VVuSessionEntity@@@@QBEPAVVuSessionEntity@@XZ ; VuBin<VuSessionEntity>::get
	mov	ecx, eax
	call	?GetGame@FalconSessionEntity@@QAEPAVFalconGameEntity@@XZ ; FalconSessionEntity::GetGame
	mov	DWORD PTR tv154[ebp], eax
	jmp	SHORT $LN17@Padlock_Ch
$LN16@Padlock_Ch:
	mov	DWORD PTR tv154[ebp], 0
$LN17@Padlock_Ch:
	cmp	DWORD PTR tv154[ebp], 0
	je	$LN8@Padlock_Ch
	mov	ecx, OFFSET ?vuLocalSessionEntity@@3V?$VuBin@VVuSessionEntity@@@@A ; vuLocalSessionEntity
	call	??B?$VuBin@VVuSessionEntity@@@@QBE_NXZ	; VuBin<VuSessionEntity>::operator bool
	movzx	eax, al
	test	eax, eax
	je	SHORT $LN18@Padlock_Ch
	mov	ecx, OFFSET ?vuLocalSessionEntity@@3V?$VuBin@VVuSessionEntity@@@@A ; vuLocalSessionEntity
	call	?get@?$VuBin@VVuSessionEntity@@@@QBEPAVVuSessionEntity@@XZ ; VuBin<VuSessionEntity>::get
	mov	ecx, eax
	call	?GetGame@FalconSessionEntity@@QAEPAVFalconGameEntity@@XZ ; FalconSessionEntity::GetGame
	mov	DWORD PTR tv168[ebp], eax
	jmp	SHORT $LN19@Padlock_Ch
$LN18@Padlock_Ch:
	mov	DWORD PTR tv168[ebp], 0
$LN19@Padlock_Ch:
	mov	ecx, DWORD PTR tv168[ebp]
	call	?GetGameType@FalconGameEntity@@QAE?AW4FalconGameType@@XZ ; FalconGameEntity::GetGameType
	cmp	eax, 2
	jne	$LN8@Padlock_Ch
	mov	ecx, DWORD PTR _this$[ebp]
	mov	edx, DWORD PTR [ecx+33804]
	mov	eax, DWORD PTR _this$[ebp]
	mov	edx, DWORD PTR [edx]
	mov	ecx, DWORD PTR [eax+33804]
	mov	eax, DWORD PTR [edx+340]
	call	eax
	test	eax, eax
	je	SHORT $LN8@Padlock_Ch
	push	8
	mov	ecx, DWORD PTR _this$[ebp]
	mov	ecx, DWORD PTR [ecx+33804]
	call	?IsSetFalcFlag@FalconEntity@@QAEHH@Z	; FalconEntity::IsSetFalcFlag
	test	eax, eax
	je	SHORT $LN8@Padlock_Ch
$LN7@Padlock_Ch:

; 1627 : /* 2001-01-29 MODIFIED BY S.G. FOR THE NEW mpPadlockPrioritySimObject
; 1628 : 		VuDeReferenceEntity(mpPadlockPriorityObject);
; 1629 : 		mpPadlockPriorityObject = NULL;
; 1630 : */		
; 1631 : 		SetmpPadlockPriorityObject(NULL);

	push	0
	mov	ecx, DWORD PTR _this$[ebp]
	call	?SetmpPadlockPriorityObject@OTWDriverClass@@QAEXPAVSimBaseClass@@@Z ; OTWDriverClass::SetmpPadlockPriorityObject

; 1632 : 		// snap to center
; 1633 : 		PadlockOccludedTime	= 0.0F;

	mov	edx, DWORD PTR _this$[ebp]
	movss	xmm0, DWORD PTR __real@00000000
	movss	DWORD PTR [edx+33828], xmm0

; 1634 : 		snapStatus				= SNAPPING;

	mov	eax, DWORD PTR _this$[ebp]
	mov	DWORD PTR [eax+33860], 2

; 1635 : 		mPadlockTimeout		= 0.0F;

	mov	ecx, DWORD PTR _this$[ebp]
	movss	xmm0, DWORD PTR __real@00000000
	movss	DWORD PTR [ecx+33820], xmm0

; 1636 : 		mTDTimeout				= 0.0F;

	mov	edx, DWORD PTR _this$[ebp]
	movss	xmm0, DWORD PTR __real@00000000
	movss	DWORD PTR [edx+33824], xmm0
	jmp	$LN2@Padlock_Ch
$LN8@Padlock_Ch:

; 1637 : 	}
; 1638 : 	else if(mpPadlockPriorityObject && mpPadlockPriorityObject->IsDead() && mPadlockTimeout == 0.0F && snapStatus != SNAPPING) {

	mov	eax, DWORD PTR _this$[ebp]
	cmp	DWORD PTR [eax+33804], 0
	je	SHORT $LN4@Padlock_Ch
	mov	ecx, DWORD PTR _this$[ebp]
	mov	edx, DWORD PTR [ecx+33804]
	mov	eax, DWORD PTR _this$[ebp]
	mov	edx, DWORD PTR [edx]
	mov	ecx, DWORD PTR [eax+33804]
	mov	eax, DWORD PTR [edx+340]
	call	eax
	test	eax, eax
	je	SHORT $LN4@Padlock_Ch
	mov	ecx, DWORD PTR _this$[ebp]
	movss	xmm0, DWORD PTR [ecx+33820]
	ucomiss	xmm0, DWORD PTR __real@00000000
	lahf
	test	ah, 68					; 00000044H
	jp	SHORT $LN4@Padlock_Ch
	mov	edx, DWORD PTR _this$[ebp]
	cmp	DWORD PTR [edx+33860], 2
	je	SHORT $LN4@Padlock_Ch

; 1639 : 		mPadlockTimeout		= 5.0F;

	mov	eax, DWORD PTR _this$[ebp]
	movss	xmm0, DWORD PTR __real@40a00000
	movss	DWORD PTR [eax+33820], xmm0
	jmp	SHORT $LN2@Padlock_Ch
$LN4@Padlock_Ch:

; 1640 : 	}
; 1641 : 	else if(mPadlockTimeout > 0.0F){ // Otherwise, decrement

	mov	ecx, DWORD PTR _this$[ebp]
	movss	xmm0, DWORD PTR [ecx+33820]
	comiss	xmm0, DWORD PTR __real@00000000
	jbe	SHORT $LN2@Padlock_Ch

; 1642 : 		mPadlockTimeout		-= dT;

	mov	edx, DWORD PTR _this$[ebp]
	movss	xmm0, DWORD PTR [edx+33820]
	subss	xmm0, DWORD PTR _dT$[ebp]
	mov	eax, DWORD PTR _this$[ebp]
	movss	DWORD PTR [eax+33820], xmm0
$LN2@Padlock_Ch:

; 1643 : 	}
; 1644 : 
; 1645 : 	if(mTDTimeout > 0.0F) {

	mov	ecx, DWORD PTR _this$[ebp]
	movss	xmm0, DWORD PTR [ecx+33824]
	comiss	xmm0, DWORD PTR __real@00000000
	jbe	SHORT $LN1@Padlock_Ch

; 1646 : 		mTDTimeout				-= dT;

	mov	edx, DWORD PTR _this$[ebp]
	movss	xmm0, DWORD PTR [edx+33824]
	subss	xmm0, DWORD PTR _dT$[ebp]
	mov	eax, DWORD PTR _this$[ebp]
	movss	DWORD PTR [eax+33824], xmm0
$LN1@Padlock_Ch:

; 1647 : 	}
; 1648 : }

	mov	esp, ebp
	pop	ebp
	ret	4
?Padlock_CheckPadlock@OTWDriverClass@@AAEXM@Z ENDP	; OTWDriverClass::Padlock_CheckPadlock
_TEXT	ENDS
; Function compile flags: /Odtp
; File c:\users\zhitao li\documents\visual studio 2012\projects\freefalcon\sim\otwdrive\padlock.cpp
_TEXT	SEGMENT
_returnVal$ = -28					; size = 4
_priorityB$ = -24					; size = 4
_priorityA$ = -20					; size = 4
_pradar$ = -16						; size = 4
_mode$ = -12						; size = 4
_fccMasterMode$ = -8					; size = 4
_this$ = -4						; size = 4
_pObjA$ = 8						; size = 4
_rangeA$ = 12						; size = 4
_isAPainted$ = 16					; size = 4
_pObjB$ = 20						; size = 4
_rangeB$ = 24						; size = 4
_isBPainted$ = 28					; size = 4
?Padlock_DetermineRelativePriority@OTWDriverClass@@AAEHPAVSimBaseClass@@MH0MH@Z PROC ; OTWDriverClass::Padlock_DetermineRelativePriority
; _this$ = ecx

; 1065 : {	

	push	ebp
	mov	ebp, esp
	sub	esp, 28					; 0000001cH
	mov	DWORD PTR _this$[ebp], ecx

; 1066 : 	BOOL	returnVal;
; 1067 : 	int	priorityA;
; 1068 : 	int	priorityB;
; 1069 : 	FireControlComputer::FCCMasterMode fccMasterMode;
; 1070 : 	RadarClass *pradar=NULL; // 2002-03-12 S.G.

	mov	DWORD PTR _pradar$[ebp], 0

; 1071 : 	enum	{AA, AG, NAV} mode;
; 1072 : 
; 1073 : 	if(pObjA == NULL) {

	cmp	DWORD PTR _pObjA$[ebp], 0
	jne	SHORT $LN23@Padlock_De

; 1074 : 		return TRUE;

	mov	eax, 1
	jmp	$LN24@Padlock_De
$LN23@Padlock_De:

; 1075 : 	}
; 1076 : 
; 1077 : 	if(pObjB == NULL) {

	cmp	DWORD PTR _pObjB$[ebp], 0
	jne	SHORT $LN22@Padlock_De

; 1078 : 		return FALSE;

	xor	eax, eax
	jmp	$LN24@Padlock_De
$LN22@Padlock_De:

; 1079 : 	}
; 1080 : 
; 1081 : 	if(pObjA == pObjB) {

	mov	eax, DWORD PTR _pObjA$[ebp]
	cmp	eax, DWORD PTR _pObjB$[ebp]
	jne	SHORT $LN21@Padlock_De

; 1082 : 		return TRUE;

	mov	eax, 1
	jmp	$LN24@Padlock_De
$LN21@Padlock_De:

; 1083 : 	}
; 1084 : 
; 1085 : 	// Check what mode the fire control computer is in
; 1086 : 	fccMasterMode = SimDriver.GetPlayerAircraft()->FCC->GetMasterMode();

	mov	ecx, OFFSET ?SimDriver@@3VSimulationDriver@@A ; SimDriver
	call	?GetPlayerAircraft@SimulationDriver@@QBEPAVAircraftClass@@XZ ; SimulationDriver::GetPlayerAircraft
	mov	ecx, DWORD PTR [eax+936]
	call	?GetMasterMode@FireControlComputer@@QAE?AW4FCCMasterMode@1@XZ ; FireControlComputer::GetMasterMode
	mov	DWORD PTR _fccMasterMode$[ebp], eax

; 1087 : 
; 1088 : 	pradar = (RadarClass*) FindSensor(SimDriver.GetPlayerAircraft(), SensorClass::Radar); // 2002-03-12 ADDED BY S.G. Get the player's radar

	push	1
	mov	ecx, OFFSET ?SimDriver@@3VSimulationDriver@@A ; SimDriver
	call	?GetPlayerAircraft@SimulationDriver@@QBEPAVAircraftClass@@XZ ; SimulationDriver::GetPlayerAircraft
	push	eax
	call	?FindSensor@@YAPAVSensorClass@@PAVSimMoverClass@@H@Z ; FindSensor
	add	esp, 8
	mov	DWORD PTR _pradar$[ebp], eax

; 1089 : 
; 1090 : 	// 2002-03-12 ADDED BY S.G. If the player held the shift key when pressing down the padlock key, prioritize AA things
; 1091 : 	if (padlockPriority == PriorityAA || padlockPriority == PriorityMissile)

	mov	ecx, DWORD PTR _this$[ebp]
	cmp	DWORD PTR [ecx+33832], 1
	je	SHORT $LN19@Padlock_De
	mov	edx, DWORD PTR _this$[ebp]
	cmp	DWORD PTR [edx+33832], 3
	jne	SHORT $LN20@Padlock_De
$LN19@Padlock_De:

; 1092 : 	{
; 1093 : 		mode = AA;

	mov	DWORD PTR _mode$[ebp], 0

; 1094 : 	}
; 1095 : 	// END OF ADDED SECTION 2002-03-12
; 1096 : 	// If in a AG mode make note of it
; 1097 : 	else if(fccMasterMode == FireControlComputer::AirGroundBomb ||		

	jmp	SHORT $LN11@Padlock_De
$LN20@Padlock_De:

; 1098 : 			fccMasterMode == FireControlComputer::AirGroundRocket || // MLR 4/3/2004 - 
; 1099 : 			fccMasterMode == FireControlComputer::AirGroundMissile ||
; 1100 : 			fccMasterMode == FireControlComputer::AirGroundHARM ||
; 1101 : 			fccMasterMode == FireControlComputer::AirGroundLaser ||
; 1102 : 			(pradar && pradar->IsAG()) ||  // 2002-03-12 ADDED BY S.G. If our radar is in AG mode, then prioritize ground object
; 1103 : 			padlockPriority == PriorityAG) // 2002-03-12 ADDED BY S.G. If the player held the control key when pressing down the padlock key, prioritize AG things

	cmp	DWORD PTR _fccMasterMode$[ebp], 5
	je	SHORT $LN16@Padlock_De
	cmp	DWORD PTR _fccMasterMode$[ebp], 13	; 0000000dH
	je	SHORT $LN16@Padlock_De
	cmp	DWORD PTR _fccMasterMode$[ebp], 6
	je	SHORT $LN16@Padlock_De
	cmp	DWORD PTR _fccMasterMode$[ebp], 7
	je	SHORT $LN16@Padlock_De
	cmp	DWORD PTR _fccMasterMode$[ebp], 8
	je	SHORT $LN16@Padlock_De
	cmp	DWORD PTR _pradar$[ebp], 0
	je	SHORT $LN15@Padlock_De
	mov	eax, DWORD PTR _pradar$[ebp]
	mov	edx, DWORD PTR [eax]
	mov	ecx, DWORD PTR _pradar$[ebp]
	mov	eax, DWORD PTR [edx+188]
	call	eax
	test	eax, eax
	jne	SHORT $LN16@Padlock_De
$LN15@Padlock_De:
	mov	ecx, DWORD PTR _this$[ebp]
	cmp	DWORD PTR [ecx+33832], 2
	jne	SHORT $LN17@Padlock_De
$LN16@Padlock_De:

; 1104 : 	{
; 1105 : 		mode = AG;

	mov	DWORD PTR _mode$[ebp], 1

; 1106 : 	} // If we're in Nav mode, make note
; 1107 : 	else if(fccMasterMode == FireControlComputer::ILS ||

	jmp	SHORT $LN11@Padlock_De
$LN17@Padlock_De:

; 1108 : 			fccMasterMode == FireControlComputer::Nav)

	cmp	DWORD PTR _fccMasterMode$[ebp], 3
	je	SHORT $LN12@Padlock_De
	cmp	DWORD PTR _fccMasterMode$[ebp], 4
	jne	SHORT $LN13@Padlock_De
$LN12@Padlock_De:

; 1109 : 	{
; 1110 : 		mode = NAV;

	mov	DWORD PTR _mode$[ebp], 2

; 1111 : 	}
; 1112 : 	else	// Otherwise we're in AA mode

	jmp	SHORT $LN11@Padlock_De
$LN13@Padlock_De:

; 1113 : 	{
; 1114 : 		mode = AA;

	mov	DWORD PTR _mode$[ebp], 0
$LN11@Padlock_De:

; 1115 : 	}
; 1116 : 
; 1117 : 	// If were searching for ground targets
; 1118 : 	if(mode == AG) {

	cmp	DWORD PTR _mode$[ebp], 1
	jne	SHORT $LN10@Padlock_De

; 1119 : 		priorityA = Padlock_RankAGPriority(pObjA, isAPainted);

	mov	edx, DWORD PTR _isAPainted$[ebp]
	push	edx
	mov	eax, DWORD PTR _pObjA$[ebp]
	push	eax
	mov	ecx, DWORD PTR _this$[ebp]
	call	?Padlock_RankAGPriority@OTWDriverClass@@AAEHPAVSimBaseClass@@H@Z ; OTWDriverClass::Padlock_RankAGPriority
	mov	DWORD PTR _priorityA$[ebp], eax

; 1120 : 		priorityB = Padlock_RankAGPriority(pObjB, isBPainted);

	mov	ecx, DWORD PTR _isBPainted$[ebp]
	push	ecx
	mov	edx, DWORD PTR _pObjB$[ebp]
	push	edx
	mov	ecx, DWORD PTR _this$[ebp]
	call	?Padlock_RankAGPriority@OTWDriverClass@@AAEHPAVSimBaseClass@@H@Z ; OTWDriverClass::Padlock_RankAGPriority
	mov	DWORD PTR _priorityB$[ebp], eax
	jmp	SHORT $LN7@Padlock_De
$LN10@Padlock_De:

; 1121 : 	} // If we're in Nav mode
; 1122 : 	else if(mode == NAV){

	cmp	DWORD PTR _mode$[ebp], 2
	jne	SHORT $LN8@Padlock_De

; 1123 : 		priorityA = Padlock_RankNAVPriority(pObjA, isAPainted);

	mov	eax, DWORD PTR _isAPainted$[ebp]
	push	eax
	mov	ecx, DWORD PTR _pObjA$[ebp]
	push	ecx
	mov	ecx, DWORD PTR _this$[ebp]
	call	?Padlock_RankNAVPriority@OTWDriverClass@@AAEHPAVSimBaseClass@@H@Z ; OTWDriverClass::Padlock_RankNAVPriority
	mov	DWORD PTR _priorityA$[ebp], eax

; 1124 : 		priorityB = Padlock_RankNAVPriority(pObjB, isBPainted);

	mov	edx, DWORD PTR _isBPainted$[ebp]
	push	edx
	mov	eax, DWORD PTR _pObjB$[ebp]
	push	eax
	mov	ecx, DWORD PTR _this$[ebp]
	call	?Padlock_RankNAVPriority@OTWDriverClass@@AAEHPAVSimBaseClass@@H@Z ; OTWDriverClass::Padlock_RankNAVPriority
	mov	DWORD PTR _priorityB$[ebp], eax

; 1125 : 	} // Otherwise we're in AA
; 1126 : 	else {

	jmp	SHORT $LN7@Padlock_De
$LN8@Padlock_De:

; 1127 : 		priorityA = Padlock_RankAAPriority(pObjA, isAPainted);

	mov	ecx, DWORD PTR _isAPainted$[ebp]
	push	ecx
	mov	edx, DWORD PTR _pObjA$[ebp]
	push	edx
	mov	ecx, DWORD PTR _this$[ebp]
	call	?Padlock_RankAAPriority@OTWDriverClass@@AAEHPAVSimBaseClass@@H@Z ; OTWDriverClass::Padlock_RankAAPriority
	mov	DWORD PTR _priorityA$[ebp], eax

; 1128 : 		priorityB = Padlock_RankAAPriority(pObjB, isBPainted);

	mov	eax, DWORD PTR _isBPainted$[ebp]
	push	eax
	mov	ecx, DWORD PTR _pObjB$[ebp]
	push	ecx
	mov	ecx, DWORD PTR _this$[ebp]
	call	?Padlock_RankAAPriority@OTWDriverClass@@AAEHPAVSimBaseClass@@H@Z ; OTWDriverClass::Padlock_RankAAPriority
	mov	DWORD PTR _priorityB$[ebp], eax
$LN7@Padlock_De:

; 1129 : 	}
; 1130 : 
; 1131 : 	if(priorityA < priorityB) {					// Obj A has higher priority

	mov	edx, DWORD PTR _priorityA$[ebp]
	cmp	edx, DWORD PTR _priorityB$[ebp]
	jge	SHORT $LN6@Padlock_De

; 1132 : 		returnVal = TRUE;

	mov	DWORD PTR _returnVal$[ebp], 1
	jmp	SHORT $LN1@Padlock_De
$LN6@Padlock_De:

; 1133 : 	}
; 1134 : 	else if(priorityA == priorityB) {			// Priorities are equal

	mov	eax, DWORD PTR _priorityA$[ebp]
	cmp	eax, DWORD PTR _priorityB$[ebp]
	jne	SHORT $LN4@Padlock_De

; 1135 : 		if(rangeA <= rangeB) {						// A is closer

	movss	xmm0, DWORD PTR _rangeB$[ebp]
	comiss	xmm0, DWORD PTR _rangeA$[ebp]
	jb	SHORT $LN3@Padlock_De

; 1136 : 			returnVal = TRUE;

	mov	DWORD PTR _returnVal$[ebp], 1

; 1137 : 		}	
; 1138 : 		else {

	jmp	SHORT $LN2@Padlock_De
$LN3@Padlock_De:

; 1139 : 			returnVal = FALSE;

	mov	DWORD PTR _returnVal$[ebp], 0
$LN2@Padlock_De:

; 1140 : 		}
; 1141 : 	}
; 1142 : 	else {												// B has higher priority

	jmp	SHORT $LN1@Padlock_De
$LN4@Padlock_De:

; 1143 : 		returnVal = FALSE;

	mov	DWORD PTR _returnVal$[ebp], 0
$LN1@Padlock_De:

; 1144 : 	}
; 1145 : 
; 1146 : 	return returnVal;

	mov	eax, DWORD PTR _returnVal$[ebp]
$LN24@Padlock_De:

; 1147 : }

	mov	esp, ebp
	pop	ebp
	ret	24					; 00000018H
?Padlock_DetermineRelativePriority@OTWDriverClass@@AAEHPAVSimBaseClass@@MH0MH@Z ENDP ; OTWDriverClass::Padlock_DetermineRelativePriority
_TEXT	ENDS
; Function compile flags: /Odtp
; File c:\users\zhitao li\documents\visual studio 2012\projects\freefalcon\sim\otwdrive\padlock.cpp
_TEXT	SEGMENT
_classPtr$1 = -140					; size = 4
tv450 = -136						; size = 4
_fccSubMode$ = -132					; size = 4
tv423 = -128						; size = 4
tv437 = -124						; size = 4
tv452 = -120						; size = 4
tv454 = -116						; size = 4
tv419 = -112						; size = 4
tv432 = -108						; size = 4
tv428 = -104						; size = 4
tv414 = -100						; size = 4
_wpnDefinition$2 = -96					; size = 4
_isConsidered$ = -92					; size = 4
_checkobject$ = -85					; size = 1
_pradar$ = -84						; size = 4
_mode$ = -80						; size = 4
_this$ = -76						; size = 4
_fccMasterMode$ = -72					; size = 4
_objectPoint$3 = -68					; size = 52
_objectLoc$4 = -16					; size = 12
__$ArrayPad$ = -4					; size = 4
_pObj$ = 8						; size = 4
_isPainted$ = 12					; size = 4
_range$ = 16						; size = 4
_az$ = 20						; size = 4
_el$ = 24						; size = 4
?Padlock_ConsiderThisObject@OTWDriverClass@@AAEHPAVSimBaseClass@@HMMM@Z PROC ; OTWDriverClass::Padlock_ConsiderThisObject
; _this$ = ecx

; 928  : {

	push	ebp
	mov	ebp, esp
	sub	esp, 140				; 0000008cH
	mov	eax, DWORD PTR ___security_cookie
	xor	eax, ebp
	mov	DWORD PTR __$ArrayPad$[ebp], eax
	mov	DWORD PTR _this$[ebp], ecx

; 929  : 
; 930  : 	FireControlComputer::FCCMasterMode fccMasterMode;
; 931  : 	FireControlComputer::FCCSubMode fccSubMode;
; 932  : 	BOOL		isConsidered = FALSE;

	mov	DWORD PTR _isConsidered$[ebp], 0

; 933  : 	enum	{AA, AG, NAV} mode;
; 934  : 	bool		checkobject	= FALSE;

	mov	BYTE PTR _checkobject$[ebp], 0

; 935  : 	RadarClass *pradar=NULL; // 2002-03-12 S.G.

	mov	DWORD PTR _pradar$[ebp], 0

; 936  : 
; 937  : // 2002-01-24 REMOVED BY S.G. Not necessary and prevents missiles from being padlocked.
; 938  : //	if (pObj && pObj->IsSim() && pObj != otwPlatform && !pObj->IsWeapon()) 
; 939  : //	{
; 940  : // 2002-01-27 MODIFIED BY S.G. But prevent none threatning stuff from being padlocked
; 941  : 	if (pObj && pObj->IsSim() && pObj->IsWeapon()) {

	cmp	DWORD PTR _pObj$[ebp], 0
	je	SHORT $LN27@Padlock_Co
	mov	ecx, DWORD PTR _pObj$[ebp]
	call	?IsSim@FalconEntity@@QAEHXZ		; FalconEntity::IsSim
	test	eax, eax
	je	SHORT $LN27@Padlock_Co
	mov	eax, DWORD PTR _pObj$[ebp]
	mov	edx, DWORD PTR [eax]
	mov	ecx, DWORD PTR _pObj$[ebp]
	mov	eax, DWORD PTR [edx+204]
	call	eax
	test	eax, eax
	je	SHORT $LN27@Padlock_Co

; 942  : 		Falcon4EntityClassType* classPtr;
; 943  : 		SimWeaponDataType* wpnDefinition;
; 944  : 
; 945  : 		classPtr = &(Falcon4ClassTable[((MissileClass *)pObj)->Type() - VU_LAST_ENTITY_TYPE]);

	mov	ecx, DWORD PTR _pObj$[ebp]
	call	?Type@VuEntity@@QBEGXZ			; VuEntity::Type
	movzx	ecx, ax
	sub	ecx, 100				; 00000064H
	imul	ecx, 81					; 00000051H
	add	ecx, DWORD PTR ?Falcon4ClassTable@@3PAUFalcon4EntityClassType@@A ; Falcon4ClassTable
	mov	DWORD PTR _classPtr$1[ebp], ecx

; 946  : 		wpnDefinition = &SimWeaponDataTable[classPtr->vehicleDataIndex];

	mov	edx, DWORD PTR _classPtr$1[ebp]
	movsx	eax, WORD PTR [edx+74]
	imul	eax, 52					; 00000034H
	add	eax, DWORD PTR ?SimWeaponDataTable@@3PAUSimWeaponDataType@@A ; SimWeaponDataTable
	mov	DWORD PTR _wpnDefinition$2[ebp], eax

; 947  : 		if ((WeaponClass)wpnDefinition->weaponClass != wcAimWpn && (WeaponClass)wpnDefinition->weaponClass != wcSamWpn) 

	mov	ecx, DWORD PTR _wpnDefinition$2[ebp]
	cmp	DWORD PTR [ecx+36], 0
	je	SHORT $LN27@Padlock_Co
	mov	edx, DWORD PTR _wpnDefinition$2[ebp]
	cmp	DWORD PTR [edx+36], 8
	je	SHORT $LN27@Padlock_Co

; 948  : 			return FALSE;

	xor	eax, eax
	jmp	$LN29@Padlock_Co
$LN27@Padlock_Co:

; 949  : 	}
; 950  : 
; 951  : 	if (pObj && pObj->IsSim() && pObj->IsEject()) // 2002-02-17 ADDED BY S.G. Don't padlock chutes

	cmp	DWORD PTR _pObj$[ebp], 0
	je	SHORT $LN26@Padlock_Co
	mov	ecx, DWORD PTR _pObj$[ebp]
	call	?IsSim@FalconEntity@@QAEHXZ		; FalconEntity::IsSim
	test	eax, eax
	je	SHORT $LN26@Padlock_Co
	mov	eax, DWORD PTR _pObj$[ebp]
	mov	edx, DWORD PTR [eax]
	mov	ecx, DWORD PTR _pObj$[ebp]
	mov	eax, DWORD PTR [edx+188]
	call	eax
	test	eax, eax
	je	SHORT $LN26@Padlock_Co

; 952  : 		return FALSE;

	xor	eax, eax
	jmp	$LN29@Padlock_Co
$LN26@Padlock_Co:

; 953  : 
; 954  : 	if (range < g_fPadlockBreakDistance * NM_TO_FT || isPainted)

	movss	xmm0, DWORD PTR ?g_fPadlockBreakDistance@@3MA
	mulss	xmm0, DWORD PTR __real@45bde1b0
	comiss	xmm0, DWORD PTR _range$[ebp]
	ja	SHORT $LN24@Padlock_Co
	cmp	DWORD PTR _isPainted$[ebp], 0
	je	$LN1@Padlock_Co
$LN24@Padlock_Co:

; 955  : 	{
; 956  : 
; 957  : 		// Check what mode the fire control computer is in
; 958  : 		fccMasterMode = SimDriver.GetPlayerAircraft()->FCC->GetMasterMode();

	mov	ecx, OFFSET ?SimDriver@@3VSimulationDriver@@A ; SimDriver
	call	?GetPlayerAircraft@SimulationDriver@@QBEPAVAircraftClass@@XZ ; SimulationDriver::GetPlayerAircraft
	mov	ecx, DWORD PTR [eax+936]
	call	?GetMasterMode@FireControlComputer@@QAE?AW4FCCMasterMode@1@XZ ; FireControlComputer::GetMasterMode
	mov	DWORD PTR _fccMasterMode$[ebp], eax

; 959  : 		fccSubMode = SimDriver.GetPlayerAircraft()->FCC->GetSubMode();

	mov	ecx, OFFSET ?SimDriver@@3VSimulationDriver@@A ; SimDriver
	call	?GetPlayerAircraft@SimulationDriver@@QBEPAVAircraftClass@@XZ ; SimulationDriver::GetPlayerAircraft
	mov	ecx, DWORD PTR [eax+936]
	call	?GetSubMode@FireControlComputer@@QAE?AW4FCCSubMode@1@XZ ; FireControlComputer::GetSubMode
	mov	DWORD PTR _fccSubMode$[ebp], eax

; 960  : 
; 961  : 		pradar = (RadarClass*) FindSensor(SimDriver.GetPlayerAircraft(), SensorClass::Radar); // 2002-03-12 ADDED BY S.G. Get the player's radar

	push	1
	mov	ecx, OFFSET ?SimDriver@@3VSimulationDriver@@A ; SimDriver
	call	?GetPlayerAircraft@SimulationDriver@@QBEPAVAircraftClass@@XZ ; SimulationDriver::GetPlayerAircraft
	push	eax
	call	?FindSensor@@YAPAVSensorClass@@PAVSimMoverClass@@H@Z ; FindSensor
	add	esp, 8
	mov	DWORD PTR _pradar$[ebp], eax

; 962  : 
; 963  : 		// 2002-03-12 ADDED BY S.G. If the player held the shift key when pressing down the padlock key, prioritize AA things
; 964  : 		if (padlockPriority == PriorityAA || padlockPriority == PriorityMissile)

	mov	ecx, DWORD PTR _this$[ebp]
	cmp	DWORD PTR [ecx+33832], 1
	je	SHORT $LN22@Padlock_Co
	mov	edx, DWORD PTR _this$[ebp]
	cmp	DWORD PTR [edx+33832], 3
	jne	SHORT $LN23@Padlock_Co
$LN22@Padlock_Co:

; 965  : 		{
; 966  : 			mode = AA;

	mov	DWORD PTR _mode$[ebp], 0

; 967  : 		}
; 968  : 		// END OF ADDED SECTION 2002-03-12
; 969  : 		// If in a AG mode make note of it
; 970  : 		else if(fccMasterMode == FireControlComputer::AirGroundBomb ||		

	jmp	SHORT $LN13@Padlock_Co
$LN23@Padlock_Co:

; 971  : 				fccMasterMode == FireControlComputer::AirGroundRocket || // MLR 4/3/2004 - 
; 972  : 				fccMasterMode == FireControlComputer::AirGroundMissile ||
; 973  : 				fccMasterMode == FireControlComputer::AirGroundHARM ||
; 974  : 				fccMasterMode == FireControlComputer::AirGroundLaser ||
; 975  : 				(fccMasterMode == FireControlComputer::AGGun &&
; 976  : 				fccSubMode == FireControlComputer::STRAF) ||	// MN added
; 977  : 				(pradar && pradar->IsAG()) || // 2002-03-12 ADDED BY S.G. If our radar is in AG mode, then prioritize ground object
; 978  : 				padlockPriority == PriorityAG) // 2002-03-12 ADDED BY S.G. If the player held the control key when pressing down the padlock key, prioritize AG things

	cmp	DWORD PTR _fccMasterMode$[ebp], 5
	je	SHORT $LN19@Padlock_Co
	cmp	DWORD PTR _fccMasterMode$[ebp], 13	; 0000000dH
	je	SHORT $LN19@Padlock_Co
	cmp	DWORD PTR _fccMasterMode$[ebp], 6
	je	SHORT $LN19@Padlock_Co
	cmp	DWORD PTR _fccMasterMode$[ebp], 7
	je	SHORT $LN19@Padlock_Co
	cmp	DWORD PTR _fccMasterMode$[ebp], 8
	je	SHORT $LN19@Padlock_Co
	cmp	DWORD PTR _fccMasterMode$[ebp], 1
	jne	SHORT $LN18@Padlock_Co
	cmp	DWORD PTR _fccSubMode$[ebp], 12		; 0000000cH
	je	SHORT $LN19@Padlock_Co
$LN18@Padlock_Co:
	cmp	DWORD PTR _pradar$[ebp], 0
	je	SHORT $LN17@Padlock_Co
	mov	eax, DWORD PTR _pradar$[ebp]
	mov	edx, DWORD PTR [eax]
	mov	ecx, DWORD PTR _pradar$[ebp]
	mov	eax, DWORD PTR [edx+188]
	call	eax
	test	eax, eax
	jne	SHORT $LN19@Padlock_Co
$LN17@Padlock_Co:
	mov	ecx, DWORD PTR _this$[ebp]
	cmp	DWORD PTR [ecx+33832], 2
	jne	SHORT $LN20@Padlock_Co
$LN19@Padlock_Co:

; 979  : 		{
; 980  : 			mode = AG;

	mov	DWORD PTR _mode$[ebp], 1

; 981  : 		}
; 982  : 		else if(fccMasterMode == FireControlComputer::ILS ||

	jmp	SHORT $LN13@Padlock_Co
$LN20@Padlock_Co:

; 983  : 				fccMasterMode == FireControlComputer::Nav)

	cmp	DWORD PTR _fccMasterMode$[ebp], 3
	je	SHORT $LN14@Padlock_Co
	cmp	DWORD PTR _fccMasterMode$[ebp], 4
	jne	SHORT $LN15@Padlock_Co
$LN14@Padlock_Co:

; 984  : 		{
; 985  : 			mode = NAV;

	mov	DWORD PTR _mode$[ebp], 2

; 986  : 		}
; 987  : 		else

	jmp	SHORT $LN13@Padlock_Co
$LN15@Padlock_Co:

; 988  : 		{
; 989  : 			mode = AA;

	mov	DWORD PTR _mode$[ebp], 0
$LN13@Padlock_Co:

; 990  : 		}
; 991  : 
; 992  : 		// Proceed if object is on ground and fcc is in AG mode.  Proceed if in object is in
; 993  : 		// air and fcc is in AA mode
; 994  : 
; 995  : 		if((pObj->OnGround() && mode == AG) || pObj->IsMissile() || (!pObj->OnGround() && mode == AA) || 	
; 996  : 			(mode == NAV && (!pObj->OnGround() || ((Falcon4EntityClassType*)pObj->EntityType())->vuClassData.classInfo_[VU_TYPE] == TYPE_RUNWAY)))

	mov	edx, DWORD PTR _pObj$[ebp]
	mov	eax, DWORD PTR [edx]
	mov	ecx, DWORD PTR _pObj$[ebp]
	mov	edx, DWORD PTR [eax+148]
	call	edx
	test	eax, eax
	je	SHORT $LN10@Padlock_Co
	cmp	DWORD PTR _mode$[ebp], 1
	je	SHORT $LN8@Padlock_Co
$LN10@Padlock_Co:
	mov	eax, DWORD PTR _pObj$[ebp]
	mov	edx, DWORD PTR [eax]
	mov	ecx, DWORD PTR _pObj$[ebp]
	mov	eax, DWORD PTR [edx+156]
	call	eax
	test	eax, eax
	jne	SHORT $LN8@Padlock_Co
	mov	ecx, DWORD PTR _pObj$[ebp]
	mov	edx, DWORD PTR [ecx]
	mov	ecx, DWORD PTR _pObj$[ebp]
	mov	eax, DWORD PTR [edx+148]
	call	eax
	test	eax, eax
	jne	SHORT $LN9@Padlock_Co
	cmp	DWORD PTR _mode$[ebp], 0
	je	SHORT $LN8@Padlock_Co
$LN9@Padlock_Co:
	cmp	DWORD PTR _mode$[ebp], 2
	jne	$LN1@Padlock_Co
	mov	ecx, DWORD PTR _pObj$[ebp]
	mov	edx, DWORD PTR [ecx]
	mov	ecx, DWORD PTR _pObj$[ebp]
	mov	eax, DWORD PTR [edx+148]
	call	eax
	test	eax, eax
	je	SHORT $LN8@Padlock_Co
	mov	ecx, DWORD PTR _pObj$[ebp]
	call	?EntityType@VuEntity@@QBEPAUVuEntityType@@XZ ; VuEntity::EntityType
	mov	ecx, 1
	shl	ecx, 1
	movzx	edx, BYTE PTR [eax+ecx+8]
	cmp	edx, 11					; 0000000bH
	jne	$LN1@Padlock_Co
$LN8@Padlock_Co:

; 997  : 		{
; 998  : 
; 999  : 			// Check if this azimuth and elevation lies in the occluded zone
; 1000 : 			// If not occluded, then continue
; 1001 : 			if(Padlock_CheckOcclusion(az, el) == FALSE && !pObj->IsDead()) {

	push	ecx
	movss	xmm0, DWORD PTR _el$[ebp]
	movss	DWORD PTR [esp], xmm0
	push	ecx
	movss	xmm0, DWORD PTR _az$[ebp]
	movss	DWORD PTR [esp], xmm0
	mov	ecx, DWORD PTR _this$[ebp]
	call	?Padlock_CheckOcclusion@OTWDriverClass@@AAEHMM@Z ; OTWDriverClass::Padlock_CheckOcclusion
	test	eax, eax
	jne	$LN1@Padlock_Co
	mov	eax, DWORD PTR _pObj$[ebp]
	mov	edx, DWORD PTR [eax]
	mov	ecx, DWORD PTR _pObj$[ebp]
	mov	eax, DWORD PTR [edx+340]
	call	eax
	test	eax, eax
	jne	$LN1@Padlock_Co

; 1002 : 
; 1003 : 				// If we are in realistic mode, keep checking.  Otherwise consider the object.
; 1004 : 				if(PlayerOptions.GetPadlockMode() == PDRealistic) {

	mov	ecx, OFFSET ?PlayerOptions@@3VPlayerOptionsClass@@A ; PlayerOptions
	call	?GetPadlockMode@PlayerOptionsClass@@QAEHXZ ; PlayerOptionsClass::GetPadlockMode
	cmp	eax, 1
	jne	$LN6@Padlock_Co

; 1005 : 
; 1006 : 					ThreeDVertex	objectPoint;
; 1007 : 					Tpoint			objectLoc;
; 1008 : 
; 1009 : 
; 1010 : 					if(GetOTWDisplayMode() == ModePadlockF3 || GetOTWDisplayMode() == Mode3DCockpit) {

	mov	ecx, DWORD PTR _this$[ebp]
	call	?GetOTWDisplayMode@OTWDriverClass@@QAE?AW4OTWDisplayMode@1@XZ ; OTWDriverClass::GetOTWDisplayMode
	cmp	eax, 4
	je	SHORT $LN4@Padlock_Co
	mov	ecx, DWORD PTR _this$[ebp]
	call	?GetOTWDisplayMode@OTWDriverClass@@QAE?AW4OTWDisplayMode@1@XZ ; OTWDriverClass::GetOTWDisplayMode
	cmp	eax, 3
	jne	$LN5@Padlock_Co
$LN4@Padlock_Co:

; 1011 : 						objectLoc.x	= pObj->XPos() - SimDriver.GetPlayerAircraft()->XPos();

	mov	ecx, DWORD PTR _pObj$[ebp]
	call	?XPos@VuEntity@@QBEMXZ			; VuEntity::XPos
	fstp	DWORD PTR tv414[ebp]
	movss	xmm0, DWORD PTR tv414[ebp]
	mov	ecx, OFFSET ?SimDriver@@3VSimulationDriver@@A ; SimDriver
	movss	DWORD PTR tv450[ebp], xmm0
	call	?GetPlayerAircraft@SimulationDriver@@QBEPAVAircraftClass@@XZ ; SimulationDriver::GetPlayerAircraft
	mov	ecx, eax
	call	?XPos@VuEntity@@QBEMXZ			; VuEntity::XPos
	fstp	DWORD PTR tv419[ebp]
	movss	xmm0, DWORD PTR tv450[ebp]
	subss	xmm0, DWORD PTR tv419[ebp]
	movss	DWORD PTR _objectLoc$4[ebp], xmm0

; 1012 : 						objectLoc.y = pObj->YPos() - SimDriver.GetPlayerAircraft()->YPos();

	mov	ecx, DWORD PTR _pObj$[ebp]
	call	?YPos@VuEntity@@QBEMXZ			; VuEntity::YPos
	fstp	DWORD PTR tv423[ebp]
	movss	xmm0, DWORD PTR tv423[ebp]
	mov	ecx, OFFSET ?SimDriver@@3VSimulationDriver@@A ; SimDriver
	movss	DWORD PTR tv452[ebp], xmm0
	call	?GetPlayerAircraft@SimulationDriver@@QBEPAVAircraftClass@@XZ ; SimulationDriver::GetPlayerAircraft
	mov	ecx, eax
	call	?YPos@VuEntity@@QBEMXZ			; VuEntity::YPos
	fstp	DWORD PTR tv428[ebp]
	movss	xmm0, DWORD PTR tv452[ebp]
	subss	xmm0, DWORD PTR tv428[ebp]
	movss	DWORD PTR _objectLoc$4[ebp+4], xmm0

; 1013 : 						objectLoc.z = pObj->ZPos() - SimDriver.GetPlayerAircraft()->ZPos();

	mov	ecx, DWORD PTR _pObj$[ebp]
	call	?ZPos@VuEntity@@QBEMXZ			; VuEntity::ZPos
	fstp	DWORD PTR tv432[ebp]
	movss	xmm0, DWORD PTR tv432[ebp]
	mov	ecx, OFFSET ?SimDriver@@3VSimulationDriver@@A ; SimDriver
	movss	DWORD PTR tv454[ebp], xmm0
	call	?GetPlayerAircraft@SimulationDriver@@QBEPAVAircraftClass@@XZ ; SimulationDriver::GetPlayerAircraft
	mov	ecx, eax
	call	?ZPos@VuEntity@@QBEMXZ			; VuEntity::ZPos
	fstp	DWORD PTR tv437[ebp]
	movss	xmm0, DWORD PTR tv454[ebp]
	subss	xmm0, DWORD PTR tv437[ebp]
	movss	DWORD PTR _objectLoc$4[ebp+8], xmm0

; 1014 : 					}
; 1015 : 					else {

	jmp	SHORT $LN3@Padlock_Co
$LN5@Padlock_Co:

; 1016 : 						objectLoc.x	= pObj->XPos();

	mov	ecx, DWORD PTR _pObj$[ebp]
	call	?XPos@VuEntity@@QBEMXZ			; VuEntity::XPos
	fstp	DWORD PTR _objectLoc$4[ebp]

; 1017 : 						objectLoc.y = pObj->YPos();

	mov	ecx, DWORD PTR _pObj$[ebp]
	call	?YPos@VuEntity@@QBEMXZ			; VuEntity::YPos
	fstp	DWORD PTR _objectLoc$4[ebp+4]

; 1018 : 						objectLoc.z = pObj->ZPos();

	mov	ecx, DWORD PTR _pObj$[ebp]
	call	?ZPos@VuEntity@@QBEMXZ			; VuEntity::ZPos
	fstp	DWORD PTR _objectLoc$4[ebp+8]
$LN3@Padlock_Co:

; 1019 : 					}
; 1020 : 
; 1021 : 					renderer->TransformPoint(&objectLoc, &objectPoint);

	lea	ecx, DWORD PTR _objectPoint$3[ebp]
	push	ecx
	lea	edx, DWORD PTR _objectLoc$4[ebp]
	push	edx
	mov	eax, DWORD PTR _this$[ebp]
	mov	ecx, DWORD PTR [eax+33576]
	call	?TransformPoint@Render3D@@QAEXPAUTpoint@@PAUThreeDVertex@@@Z ; Render3D::TransformPoint

; 1022 : 
; 1023 : 					if(objectPoint.clipFlag == 0) {

	cmp	DWORD PTR _objectPoint$3[ebp+36], 0
	jne	SHORT $LN2@Padlock_Co

; 1024 : 						isConsidered = TRUE;

	mov	DWORD PTR _isConsidered$[ebp], 1
$LN2@Padlock_Co:

; 1025 : 					}
; 1026 : 				}
; 1027 : 				else {

	jmp	SHORT $LN1@Padlock_Co
$LN6@Padlock_Co:

; 1028 : 					// In simplified mode, automatically consider the object
; 1029 : 					isConsidered = TRUE;

	mov	DWORD PTR _isConsidered$[ebp], 1
$LN1@Padlock_Co:

; 1030 : 				}
; 1031 : 			}
; 1032 : 		}
; 1033 : 	}
; 1034 : //	}
; 1035 : 
; 1036 : 	return isConsidered;

	mov	eax, DWORD PTR _isConsidered$[ebp]
$LN29@Padlock_Co:

; 1037 : }

	mov	ecx, DWORD PTR __$ArrayPad$[ebp]
	xor	ecx, ebp
	call	@__security_check_cookie@4
	mov	esp, ebp
	pop	ebp
	ret	20					; 00000014H
?Padlock_ConsiderThisObject@OTWDriverClass@@AAEHPAVSimBaseClass@@HMMM@Z ENDP ; OTWDriverClass::Padlock_ConsiderThisObject
_TEXT	ENDS
; Function compile flags: /Odtp
; File c:\users\zhitao li\documents\visual studio 2012\projects\freefalcon\sim\otwdrive\padlock.cpp
_TEXT	SEGMENT
$T2 = -236						; size = 8
$T3 = -228						; size = 8
tv624 = -220						; size = 4
_featureWalker$ = -216					; size = 12
tv614 = -204						; size = 4
tv818 = -200						; size = 4
tv688 = -196						; size = 4
tv599 = -192						; size = 4
tv832 = -188						; size = 4
tv609 = -184						; size = 4
tv683 = -180						; size = 4
tv824 = -176						; size = 4
tv679 = -172						; size = 4
tv826 = -168						; size = 4
tv830 = -164						; size = 4
tv820 = -160						; size = 4
tv674 = -156						; size = 4
tv822 = -152						; size = 4
tv670 = -148						; size = 4
tv604 = -144						; size = 4
tv828 = -140						; size = 4
tv665 = -136						; size = 4
tv619 = -132						; size = 4
tv437 = -128						; size = 4
tv215 = -124						; size = 4
tv390 = -120						; size = 4
tv247 = -116						; size = 4
tv379 = -112						; size = 4
tv149 = -108						; size = 4
_pclassPtr$ = -104					; size = 4
_testAgainstPriority$4 = -100				; size = 4
_isLoMarkPainted$ = -96					; size = 4
_zDiff$ = -92						; size = 4
_loMarkRange$ = -88					; size = 4
_xDiff$ = -84						; size = 4
_objAz$ = -80						; size = 4
_yDiff$ = -76						; size = 4
_testAgainstLoMark$5 = -72				; size = 4
_setLoMark$6 = -68					; size = 4
_attempt$ = -64						; size = 4
_testResult$7 = -60					; size = 4
_isPriorityPainted$ = -56				; size = 4
_objEl$ = -52						; size = 4
_priorityRange$ = -48					; size = 4
_searchMode$ = -44					; size = 4
_isObjPainted$ = -40					; size = 4
_objRange$ = -36					; size = 4
_pLoMark$ = -32						; size = 4
_isDone$ = -28						; size = 4
_pObjType$ = -24					; size = 4
_pObj$ = -20						; size = 4
_this$ = -16						; size = 4
__$EHRec$ = -12						; size = 12
___formal$ = 8						; size = 4
?Padlock_FindEnhancedPriority@OTWDriverClass@@AAEXH@Z PROC ; OTWDriverClass::Padlock_FindEnhancedPriority
; _this$ = ecx

; 126  : {

	push	ebp
	mov	ebp, esp
	push	-1
	push	__ehhandler$?Padlock_FindEnhancedPriority@OTWDriverClass@@AAEXH@Z
	mov	eax, DWORD PTR fs:0
	push	eax
	sub	esp, 224				; 000000e0H
	mov	eax, DWORD PTR ___security_cookie
	xor	eax, ebp
	push	eax
	lea	eax, DWORD PTR __$EHRec$[ebp]
	mov	DWORD PTR fs:0, eax
	mov	DWORD PTR _this$[ebp], ecx

; 127  : 	float						loMarkRange			= 0.0F;

	movss	xmm0, DWORD PTR __real@00000000
	movss	DWORD PTR _loMarkRange$[ebp], xmm0

; 128  : 	float						priorityRange		= 0.0F;

	movss	xmm0, DWORD PTR __real@00000000
	movss	DWORD PTR _priorityRange$[ebp], xmm0

; 129  : 	BOOL						isLoMarkPainted		= FALSE;

	mov	DWORD PTR _isLoMarkPainted$[ebp], 0

; 130  : 	BOOL						isPriorityPainted	= FALSE;

	mov	DWORD PTR _isPriorityPainted$[ebp], 0

; 131  : 	BOOL						isObjPainted		= FALSE;

	mov	DWORD PTR _isObjPainted$[ebp], 0

; 132  : 	float						objRange			= 0.0F;

	movss	xmm0, DWORD PTR __real@00000000
	movss	DWORD PTR _objRange$[ebp], xmm0

; 133  : 	float						objAz				= 0.0F;

	movss	xmm0, DWORD PTR __real@00000000
	movss	DWORD PTR _objAz$[ebp], xmm0

; 134  : 	float						objEl				= 0.0F;

	movss	xmm0, DWORD PTR __real@00000000
	movss	DWORD PTR _objEl$[ebp], xmm0

; 135  : 	float						xDiff				= 0.0F;

	movss	xmm0, DWORD PTR __real@00000000
	movss	DWORD PTR _xDiff$[ebp], xmm0

; 136  : 	float						yDiff				= 0.0F;

	movss	xmm0, DWORD PTR __real@00000000
	movss	DWORD PTR _yDiff$[ebp], xmm0

; 137  : 	float						zDiff				= 0.0F;

	movss	xmm0, DWORD PTR __real@00000000
	movss	DWORD PTR _zDiff$[ebp], xmm0

; 138  : 	int							attempt				= 0;

	mov	DWORD PTR _attempt$[ebp], 0

; 139  : 	BOOL						isDone				= FALSE;

	mov	DWORD PTR _isDone$[ebp], 0

; 140  : 	SimBaseClass*				pLoMark				= NULL;

	mov	DWORD PTR _pLoMark$[ebp], 0

; 141  : 	SimObjectType*				pObjType			= NULL;

	mov	DWORD PTR _pObjType$[ebp], 0

; 142  : 	SimBaseClass*				pObj				= NULL;

	mov	DWORD PTR _pObj$[ebp], 0

; 143  : 	Falcon4EntityClassType*		pclassPtr			= NULL;

	mov	DWORD PTR _pclassPtr$[ebp], 0

; 144  : 	enum							{SearchTargets, SearchFeatures} searchMode = SearchTargets;

	mov	DWORD PTR _searchMode$[ebp], 0

; 145  : 
; 146  : 	/* VWF 2/15/99 */
; 147  : 	if(mpPadlockCandidate) {

	mov	eax, DWORD PTR _this$[ebp]
	cmp	DWORD PTR [eax+33796], 0
	je	SHORT $LN61@Padlock_Fi

; 148  : 		VuDeReferenceEntity(mpPadlockCandidate);

	mov	ecx, DWORD PTR _this$[ebp]
	mov	edx, DWORD PTR [ecx+33796]
	push	edx
	call	?VuDeReferenceEntity@@YAHPAVVuEntity@@@Z ; VuDeReferenceEntity
	add	esp, 4
$LN61@Padlock_Fi:

; 149  : 	}
; 150  : 
; 151  : 	mpPadlockCandidate	= NULL;

	mov	eax, DWORD PTR _this$[ebp]
	mov	DWORD PTR [eax+33796], 0

; 152  : 
; 153  : 	if(PlayerOptions.GetPadlockMode() == PDDisabled) {

	mov	ecx, OFFSET ?PlayerOptions@@3VPlayerOptionsClass@@A ; PlayerOptions
	call	?GetPadlockMode@PlayerOptionsClass@@QAEHXZ ; PlayerOptionsClass::GetPadlockMode
	cmp	eax, 2
	jne	SHORT $LN60@Padlock_Fi

; 154  : 		return;

	jmp	$LN62@Padlock_Fi
$LN60@Padlock_Fi:

; 155  : 	}
; 156  : 
; 157  : 
; 158  : 	// If we already have something padlocked
; 159  : 	if (mpPadlockPriorityObject) {

	mov	ecx, DWORD PTR _this$[ebp]
	cmp	DWORD PTR [ecx+33804], 0
	je	$LN53@Padlock_Fi

; 160  : 
; 161  : 		pclassPtr	= (Falcon4EntityClassType*) mpPadlockPriorityObject->EntityType();

	mov	edx, DWORD PTR _this$[ebp]
	mov	ecx, DWORD PTR [edx+33804]
	call	?EntityType@VuEntity@@QBEPAUVuEntityType@@XZ ; VuEntity::EntityType
	mov	DWORD PTR _pclassPtr$[ebp], eax

; 162  : 
; 163  : 		// ... And It's a vehicle
; 164  : 		if (pclassPtr->vuClassData.classInfo_[VU_CLASS] == CLASS_VEHICLE) {

	mov	eax, 1
	shl	eax, 0
	mov	ecx, DWORD PTR _pclassPtr$[ebp]
	movzx	edx, BYTE PTR [ecx+eax+8]
	cmp	edx, 7
	jne	$LN58@Padlock_Fi

; 165  : 
; 166  : 			// walk the target list until we find the padlocked object
; 167  : 			pObjType	= ((SimMoverClass*)otwPlatform.get())->targetList;

	mov	ecx, DWORD PTR _this$[ebp]
	add	ecx, 32336				; 00007e50H
	call	?get@?$VuBin@VSimBaseClass@@@@QBEPAVSimBaseClass@@XZ ; VuBin<SimBaseClass>::get
	mov	eax, DWORD PTR [eax+660]
	mov	DWORD PTR _pObjType$[ebp], eax
$LN57@Padlock_Fi:

; 168  : 			while(pObjType && pObjType->BaseData() != mpPadlockPriorityObject) {

	cmp	DWORD PTR _pObjType$[ebp], 0
	je	SHORT $LN56@Padlock_Fi
	mov	ecx, DWORD PTR _pObjType$[ebp]
	call	?BaseData@SimObjectType@@QAEPAVFalconEntity@@XZ ; SimObjectType::BaseData
	mov	ecx, DWORD PTR _this$[ebp]
	cmp	eax, DWORD PTR [ecx+33804]
	je	SHORT $LN56@Padlock_Fi

; 169  : 				pObjType = pObjType->next;

	mov	edx, DWORD PTR _pObjType$[ebp]
	mov	eax, DWORD PTR [edx+16]
	mov	DWORD PTR _pObjType$[ebp], eax

; 170  : 			}

	jmp	SHORT $LN57@Padlock_Fi
$LN56@Padlock_Fi:

; 171  : 
; 172  : 			// If we found the object
; 173  : 			if(pObjType) {

	cmp	DWORD PTR _pObjType$[ebp], 0
	je	SHORT $LN55@Padlock_Fi

; 174  : 				// Initialize some information
; 175  : 				priorityRange = pObjType->localData->range;

	mov	ecx, DWORD PTR _pObjType$[ebp]
	mov	edx, DWORD PTR [ecx+12]
	movss	xmm0, DWORD PTR [edx+44]
	movss	DWORD PTR _priorityRange$[ebp], xmm0

; 176  : 				isPriorityPainted = 
; 177  : 					pObjType->localData->sensorState[SensorClass::Radar] == SensorClass::SensorTrack;

	mov	eax, DWORD PTR _pObjType$[ebp]
	mov	ecx, DWORD PTR [eax+12]
	mov	edx, 4
	shl	edx, 0
	cmp	DWORD PTR [ecx+edx+192], 3
	jne	SHORT $LN64@Padlock_Fi
	mov	DWORD PTR tv149[ebp], 1
	jmp	SHORT $LN65@Padlock_Fi
$LN64@Padlock_Fi:
	mov	DWORD PTR tv149[ebp], 0
$LN65@Padlock_Fi:
	mov	eax, DWORD PTR tv149[ebp]
	mov	DWORD PTR _isPriorityPainted$[ebp], eax

; 178  : 			}
; 179  : 			else {

	jmp	SHORT $LN54@Padlock_Fi
$LN55@Padlock_Fi:

; 180  : 				priorityRange = 0.0F;

	movss	xmm0, DWORD PTR __real@00000000
	movss	DWORD PTR _priorityRange$[ebp], xmm0

; 181  : 				isPriorityPainted = FALSE;

	mov	DWORD PTR _isPriorityPainted$[ebp], 0
$LN54@Padlock_Fi:

; 182  : 			}
; 183  : 		} // If it's a feature
; 184  : 		else {

	jmp	$LN53@Padlock_Fi
$LN58@Padlock_Fi:

; 185  : 			// Initialize some important data
; 186  : 			priorityRange			= 
; 187  : 				(float)sqrt(mpPadlockPriorityObject->XPos() * mpPadlockPriorityObject->XPos() +
; 188  : 				mpPadlockPriorityObject->YPos() * mpPadlockPriorityObject->YPos() + 
; 189  : 				mpPadlockPriorityObject->ZPos() *  mpPadlockPriorityObject->ZPos())
; 190  : 			;

	mov	ecx, DWORD PTR _this$[ebp]
	mov	ecx, DWORD PTR [ecx+33804]
	call	?XPos@VuEntity@@QBEMXZ			; VuEntity::XPos
	fstp	DWORD PTR tv599[ebp]
	movss	xmm0, DWORD PTR tv599[ebp]
	mov	edx, DWORD PTR _this$[ebp]
	mov	ecx, DWORD PTR [edx+33804]
	movss	DWORD PTR tv818[ebp], xmm0
	call	?XPos@VuEntity@@QBEMXZ			; VuEntity::XPos
	fstp	DWORD PTR tv604[ebp]
	movss	xmm0, DWORD PTR tv818[ebp]
	mulss	xmm0, DWORD PTR tv604[ebp]
	mov	eax, DWORD PTR _this$[ebp]
	mov	ecx, DWORD PTR [eax+33804]
	movss	DWORD PTR tv820[ebp], xmm0
	call	?YPos@VuEntity@@QBEMXZ			; VuEntity::YPos
	fstp	DWORD PTR tv609[ebp]
	movss	xmm0, DWORD PTR tv609[ebp]
	mov	ecx, DWORD PTR _this$[ebp]
	mov	ecx, DWORD PTR [ecx+33804]
	movss	DWORD PTR tv822[ebp], xmm0
	call	?YPos@VuEntity@@QBEMXZ			; VuEntity::YPos
	fstp	DWORD PTR tv614[ebp]
	movss	xmm0, DWORD PTR tv822[ebp]
	mulss	xmm0, DWORD PTR tv614[ebp]
	movss	xmm1, DWORD PTR tv820[ebp]
	addss	xmm1, xmm0
	mov	edx, DWORD PTR _this$[ebp]
	mov	ecx, DWORD PTR [edx+33804]
	movss	DWORD PTR tv824[ebp], xmm1
	call	?ZPos@VuEntity@@QBEMXZ			; VuEntity::ZPos
	fstp	DWORD PTR tv619[ebp]
	movss	xmm0, DWORD PTR tv619[ebp]
	mov	eax, DWORD PTR _this$[ebp]
	mov	ecx, DWORD PTR [eax+33804]
	movss	DWORD PTR tv826[ebp], xmm0
	call	?ZPos@VuEntity@@QBEMXZ			; VuEntity::ZPos
	fstp	DWORD PTR tv624[ebp]
	movss	xmm0, DWORD PTR tv826[ebp]
	mulss	xmm0, DWORD PTR tv624[ebp]
	movss	xmm1, DWORD PTR tv824[ebp]
	addss	xmm1, xmm0
	push	ecx
	movss	DWORD PTR [esp], xmm1
	call	?SqrtSSE@@YAMM@Z			; SqrtSSE
	add	esp, 4
	fstp	DWORD PTR _priorityRange$[ebp]

; 191  : 			isPriorityPainted	= FALSE;

	mov	DWORD PTR _isPriorityPainted$[ebp], 0
$LN53@Padlock_Fi:

; 192  : 		}
; 193  : 	}
; 194  : 
; 195  : 
; 196  : 	// Initialize pointer to the player's target list,
; 197  : 	// and get the sim object it points to
; 198  : 
; 199  : 	pObjType	= ((SimMoverClass*)otwPlatform.get())->targetList;

	mov	ecx, DWORD PTR _this$[ebp]
	add	ecx, 32336				; 00007e50H
	call	?get@?$VuBin@VSimBaseClass@@@@QBEPAVSimBaseClass@@XZ ; VuBin<SimBaseClass>::get
	mov	ecx, DWORD PTR [eax+660]
	mov	DWORD PTR _pObjType$[ebp], ecx

; 200  : 	if(pObjType) {

	cmp	DWORD PTR _pObjType$[ebp], 0
	je	SHORT $LN52@Padlock_Fi

; 201  : 		pObj		= (SimBaseClass*) pObjType->BaseData();

	mov	ecx, DWORD PTR _pObjType$[ebp]
	call	?BaseData@SimObjectType@@QAEPAVFalconEntity@@XZ ; SimObjectType::BaseData
	mov	DWORD PTR _pObj$[ebp], eax
$LN52@Padlock_Fi:

; 202  : 	}
; 203  : 	isDone	= (pObjType == NULL);

	cmp	DWORD PTR _pObjType$[ebp], 0
	jne	SHORT $LN66@Padlock_Fi
	mov	DWORD PTR tv215[ebp], 1
	jmp	SHORT $LN67@Padlock_Fi
$LN66@Padlock_Fi:
	mov	DWORD PTR tv215[ebp], 0
$LN67@Padlock_Fi:
	mov	edx, DWORD PTR tv215[ebp]
	mov	DWORD PTR _isDone$[ebp], edx

; 204  : 
; 205  : 	// If there are no objects in the target list
; 206  : 	VuListIterator featureWalker (SimDriver.featureList);

	mov	eax, DWORD PTR ?SimDriver@@3VSimulationDriver@@A+4
	push	eax
	lea	ecx, DWORD PTR _featureWalker$[ebp]
	call	??0VuListIterator@@QAE@PAVVuLinkedList@@@Z ; VuListIterator::VuListIterator
	mov	DWORD PTR __$EHRec$[ebp+8], 0

; 207  : 	if(isDone == TRUE) {

	cmp	DWORD PTR _isDone$[ebp], 1
	jne	SHORT $LN49@Padlock_Fi

; 208  : 		// Initialize the pointer to the sim's feature list
; 209  : 		pObj				= (SimBaseClass*)featureWalker.GetFirst();

	lea	ecx, DWORD PTR _featureWalker$[ebp]
	call	?GetFirst@VuListIterator@@QAEPAVVuEntity@@XZ ; VuListIterator::GetFirst
	mov	DWORD PTR _pObj$[ebp], eax

; 210  : 
; 211  : 		// If there is something in the list
; 212  : 		if(pObj) {

	cmp	DWORD PTR _pObj$[ebp], 0
	je	SHORT $LN50@Padlock_Fi

; 213  : 
; 214  : 			// Change mode to search features
; 215  : 			searchMode	= SearchFeatures;

	mov	DWORD PTR _searchMode$[ebp], 1

; 216  : 			isDone		= FALSE;

	mov	DWORD PTR _isDone$[ebp], 0

; 217  : 		}
; 218  : 		else {

	jmp	SHORT $LN49@Padlock_Fi
$LN50@Padlock_Fi:

; 219  : 
; 220  : 			// Otherwise we're done, don't change the padlocked object
; 221  : 			mPadlockTimeout		= 0.0F;

	mov	ecx, DWORD PTR _this$[ebp]
	movss	xmm0, DWORD PTR __real@00000000
	movss	DWORD PTR [ecx+33820], xmm0

; 222  : 			isDone					= TRUE;

	mov	DWORD PTR _isDone$[ebp], 1
$LN49@Padlock_Fi:

; 223  : 		}
; 224  : 	}
; 225  : 
; 226  : 	// Loop until we reach the end of the list
; 227  : 	while(isDone == FALSE) {

	cmp	DWORD PTR _isDone$[ebp], 0
	jne	$LN47@Padlock_Fi

; 228  : 
; 229  : 		// Calculate or copy relative geometry
; 230  : 		if(searchMode == SearchTargets) {

	cmp	DWORD PTR _searchMode$[ebp], 0
	jne	SHORT $LN46@Padlock_Fi

; 231  : 			objRange			= pObjType->localData->range;

	mov	edx, DWORD PTR _pObjType$[ebp]
	mov	eax, DWORD PTR [edx+12]
	movss	xmm0, DWORD PTR [eax+44]
	movss	DWORD PTR _objRange$[ebp], xmm0

; 232  : 			objAz				= pObjType->localData->az;

	mov	ecx, DWORD PTR _pObjType$[ebp]
	mov	edx, DWORD PTR [ecx+12]
	movss	xmm0, DWORD PTR [edx+16]
	movss	DWORD PTR _objAz$[ebp], xmm0

; 233  : 			objEl				= -pObjType->localData->el;

	mov	eax, DWORD PTR _pObjType$[ebp]
	mov	ecx, DWORD PTR [eax+12]
	movss	xmm0, DWORD PTR [ecx+28]
	xorps	xmm0, DWORD PTR __xmm@80000000800000008000000080000000
	movss	DWORD PTR _objEl$[ebp], xmm0

; 234  : 			isObjPainted	= pObjType->localData->sensorState[SensorClass::Radar] == SensorClass::SensorTrack;

	mov	edx, DWORD PTR _pObjType$[ebp]
	mov	eax, DWORD PTR [edx+12]
	mov	ecx, 4
	shl	ecx, 0
	cmp	DWORD PTR [eax+ecx+192], 3
	jne	SHORT $LN68@Padlock_Fi
	mov	DWORD PTR tv247[ebp], 1
	jmp	SHORT $LN69@Padlock_Fi
$LN68@Padlock_Fi:
	mov	DWORD PTR tv247[ebp], 0
$LN69@Padlock_Fi:
	mov	edx, DWORD PTR tv247[ebp]
	mov	DWORD PTR _isObjPainted$[ebp], edx

; 235  : 		}
; 236  : 		else {

	jmp	$LN45@Padlock_Fi
$LN46@Padlock_Fi:

; 237  : 			CalcRelAzEl (SimDriver.GetPlayerAircraft(), pObj->XPos(), pObj->YPos(), pObj->ZPos(), &objAz, &objEl);

	lea	eax, DWORD PTR _objEl$[ebp]
	push	eax
	lea	ecx, DWORD PTR _objAz$[ebp]
	push	ecx
	mov	ecx, DWORD PTR _pObj$[ebp]
	call	?ZPos@VuEntity@@QBEMXZ			; VuEntity::ZPos
	push	ecx
	fstp	DWORD PTR [esp]
	mov	ecx, DWORD PTR _pObj$[ebp]
	call	?YPos@VuEntity@@QBEMXZ			; VuEntity::YPos
	push	ecx
	fstp	DWORD PTR [esp]
	mov	ecx, DWORD PTR _pObj$[ebp]
	call	?XPos@VuEntity@@QBEMXZ			; VuEntity::XPos
	push	ecx
	fstp	DWORD PTR [esp]
	mov	ecx, OFFSET ?SimDriver@@3VSimulationDriver@@A ; SimDriver
	call	?GetPlayerAircraft@SimulationDriver@@QBEPAVAircraftClass@@XZ ; SimulationDriver::GetPlayerAircraft
	push	eax
	call	?CalcRelAzEl@@YAXPAVSimBaseClass@@MMMPAM1@Z ; CalcRelAzEl
	add	esp, 24					; 00000018H

; 238  : 			objEl			= - objEl;

	movss	xmm0, DWORD PTR _objEl$[ebp]
	xorps	xmm0, DWORD PTR __xmm@80000000800000008000000080000000
	movss	DWORD PTR _objEl$[ebp], xmm0

; 239  : 
; 240  : 			xDiff				= pObj->XPos() - SimDriver.GetPlayerAircraft()->XPos();

	mov	ecx, DWORD PTR _pObj$[ebp]
	call	?XPos@VuEntity@@QBEMXZ			; VuEntity::XPos
	fstp	DWORD PTR tv665[ebp]
	movss	xmm0, DWORD PTR tv665[ebp]
	mov	ecx, OFFSET ?SimDriver@@3VSimulationDriver@@A ; SimDriver
	movss	DWORD PTR tv828[ebp], xmm0
	call	?GetPlayerAircraft@SimulationDriver@@QBEPAVAircraftClass@@XZ ; SimulationDriver::GetPlayerAircraft
	mov	ecx, eax
	call	?XPos@VuEntity@@QBEMXZ			; VuEntity::XPos
	fstp	DWORD PTR tv670[ebp]
	movss	xmm0, DWORD PTR tv828[ebp]
	subss	xmm0, DWORD PTR tv670[ebp]
	movss	DWORD PTR _xDiff$[ebp], xmm0

; 241  : 			yDiff				= pObj->YPos() - SimDriver.GetPlayerAircraft()->YPos();

	mov	ecx, DWORD PTR _pObj$[ebp]
	call	?YPos@VuEntity@@QBEMXZ			; VuEntity::YPos
	fstp	DWORD PTR tv674[ebp]
	movss	xmm0, DWORD PTR tv674[ebp]
	mov	ecx, OFFSET ?SimDriver@@3VSimulationDriver@@A ; SimDriver
	movss	DWORD PTR tv830[ebp], xmm0
	call	?GetPlayerAircraft@SimulationDriver@@QBEPAVAircraftClass@@XZ ; SimulationDriver::GetPlayerAircraft
	mov	ecx, eax
	call	?YPos@VuEntity@@QBEMXZ			; VuEntity::YPos
	fstp	DWORD PTR tv679[ebp]
	movss	xmm0, DWORD PTR tv830[ebp]
	subss	xmm0, DWORD PTR tv679[ebp]
	movss	DWORD PTR _yDiff$[ebp], xmm0

; 242  : 			zDiff				= pObj->ZPos() - SimDriver.GetPlayerAircraft()->ZPos();

	mov	ecx, DWORD PTR _pObj$[ebp]
	call	?ZPos@VuEntity@@QBEMXZ			; VuEntity::ZPos
	fstp	DWORD PTR tv683[ebp]
	movss	xmm0, DWORD PTR tv683[ebp]
	mov	ecx, OFFSET ?SimDriver@@3VSimulationDriver@@A ; SimDriver
	movss	DWORD PTR tv832[ebp], xmm0
	call	?GetPlayerAircraft@SimulationDriver@@QBEPAVAircraftClass@@XZ ; SimulationDriver::GetPlayerAircraft
	mov	ecx, eax
	call	?ZPos@VuEntity@@QBEMXZ			; VuEntity::ZPos
	fstp	DWORD PTR tv688[ebp]
	movss	xmm0, DWORD PTR tv832[ebp]
	subss	xmm0, DWORD PTR tv688[ebp]
	movss	DWORD PTR _zDiff$[ebp], xmm0

; 243  : 
; 244  : 			objRange			= (float)sqrt(xDiff * xDiff + yDiff * yDiff + zDiff * zDiff);

	movss	xmm0, DWORD PTR _xDiff$[ebp]
	mulss	xmm0, DWORD PTR _xDiff$[ebp]
	movss	xmm1, DWORD PTR _yDiff$[ebp]
	mulss	xmm1, DWORD PTR _yDiff$[ebp]
	addss	xmm0, xmm1
	movss	xmm1, DWORD PTR _zDiff$[ebp]
	mulss	xmm1, DWORD PTR _zDiff$[ebp]
	addss	xmm0, xmm1
	push	ecx
	movss	DWORD PTR [esp], xmm0
	call	?SqrtSSE@@YAMM@Z			; SqrtSSE
	add	esp, 4
	fstp	DWORD PTR _objRange$[ebp]

; 245  : 			isObjPainted	= FALSE;

	mov	DWORD PTR _isObjPainted$[ebp], 0
$LN45@Padlock_Fi:

; 246  : 		}
; 247  : 
; 248  : 		// If this object is worth considering
; 249  : 		if(Padlock_ConsiderThisObject(pObj, isObjPainted, objRange, objAz, objEl)) {

	push	ecx
	movss	xmm0, DWORD PTR _objEl$[ebp]
	movss	DWORD PTR [esp], xmm0
	push	ecx
	movss	xmm0, DWORD PTR _objAz$[ebp]
	movss	DWORD PTR [esp], xmm0
	push	ecx
	movss	xmm0, DWORD PTR _objRange$[ebp]
	movss	DWORD PTR [esp], xmm0
	mov	edx, DWORD PTR _isObjPainted$[ebp]
	push	edx
	mov	eax, DWORD PTR _pObj$[ebp]
	push	eax
	mov	ecx, DWORD PTR _this$[ebp]
	call	?Padlock_ConsiderThisObject@OTWDriverClass@@AAEHPAVSimBaseClass@@HMMM@Z ; OTWDriverClass::Padlock_ConsiderThisObject
	test	eax, eax
	je	$LN29@Padlock_Fi

; 250  : 
; 251  : 			// Bascially pLoMark is the object which has the next highest priority.
; 252  : 
; 253  : // 2002-02-07 MODIFIED BY S.G. Priority are screwed up.
; 254  : // This is enhanced mode so basically, we start with the highest priority then walk our way DOWN the list until we are at the bottom
; 255  : // then start from the highest one again
; 256  : /*			if((pObj != mpPadlockPriorityObject) &&
; 257  : 				((pLoMark == NULL && attempt) ||
; 258  : 				(Padlock_DetermineRelativePriority(mpPadlockPriorityObject, priorityRange, isPriorityPainted, pObj, objRange, isObjPainted) && 
; 259  : 				(pLoMark == NULL || Padlock_DetermineRelativePriority(pObj, objRange, isObjPainted, pLoMark, loMarkRange, isLoMarkPainted)))))
; 260  : */			int testAgainstPriority = FALSE;

	mov	DWORD PTR _testAgainstPriority$4[ebp], 0

; 261  : 			int testAgainstLoMark = FALSE;

	mov	DWORD PTR _testAgainstLoMark$5[ebp], 0

; 262  : 			int testResult;
; 263  : 			int setLoMark = FALSE;

	mov	DWORD PTR _setLoMark$6[ebp], 0

; 264  : 
; 265  : 			if (pObj != mpPadlockPriorityObject) {			// Skips the current padlock object, if there is one

	mov	ecx, DWORD PTR _this$[ebp]
	mov	edx, DWORD PTR _pObj$[ebp]
	cmp	edx, DWORD PTR [ecx+33804]
	je	SHORT $LN40@Padlock_Fi

; 266  : 				if (!mpPadlockPriorityObject || attempt) {	// If we DON'T have a padlock object or we did a pass already

	mov	eax, DWORD PTR _this$[ebp]
	cmp	DWORD PTR [eax+33804], 0
	je	SHORT $LN41@Padlock_Fi
	cmp	DWORD PTR _attempt$[ebp], 0
	je	SHORT $LN42@Padlock_Fi
$LN41@Padlock_Fi:

; 267  : 					testAgainstLoMark = TRUE;				//   Test against the chosen one so far

	mov	DWORD PTR _testAgainstLoMark$5[ebp], 1

; 268  : 				}
; 269  : 				else {										// Otherwise

	jmp	SHORT $LN40@Padlock_Fi
$LN42@Padlock_Fi:

; 270  : 					testAgainstPriority = TRUE;				//   Test against the priority

	mov	DWORD PTR _testAgainstPriority$4[ebp], 1

; 271  : 					testAgainstLoMark = TRUE;				//   Test against the chosen one so far

	mov	DWORD PTR _testAgainstLoMark$5[ebp], 1
$LN40@Padlock_Fi:

; 272  : 				}
; 273  : 
; 274  : 			}
; 275  : 
; 276  : 			if (testAgainstPriority) {

	cmp	DWORD PTR _testAgainstPriority$4[ebp], 0
	je	$LN35@Padlock_Fi

; 277  : 				if (tgtStep >= 0)

	mov	ecx, DWORD PTR _this$[ebp]
	cmp	DWORD PTR [ecx+32168], 0
	jl	SHORT $LN38@Padlock_Fi

; 278  : 					testResult = Padlock_DetermineRelativePriority(mpPadlockPriorityObject, priorityRange, isPriorityPainted, pObj, objRange, isObjPainted);

	mov	edx, DWORD PTR _isObjPainted$[ebp]
	push	edx
	push	ecx
	movss	xmm0, DWORD PTR _objRange$[ebp]
	movss	DWORD PTR [esp], xmm0
	mov	eax, DWORD PTR _pObj$[ebp]
	push	eax
	mov	ecx, DWORD PTR _isPriorityPainted$[ebp]
	push	ecx
	push	ecx
	movss	xmm0, DWORD PTR _priorityRange$[ebp]
	movss	DWORD PTR [esp], xmm0
	mov	edx, DWORD PTR _this$[ebp]
	mov	eax, DWORD PTR [edx+33804]
	push	eax
	mov	ecx, DWORD PTR _this$[ebp]
	call	?Padlock_DetermineRelativePriority@OTWDriverClass@@AAEHPAVSimBaseClass@@MH0MH@Z ; OTWDriverClass::Padlock_DetermineRelativePriority
	mov	DWORD PTR _testResult$7[ebp], eax

; 279  : 				else

	jmp	SHORT $LN37@Padlock_Fi
$LN38@Padlock_Fi:

; 280  : 					testResult = Padlock_DetermineRelativePriority(pObj, objRange, isObjPainted, mpPadlockPriorityObject, priorityRange, isPriorityPainted);

	mov	ecx, DWORD PTR _isPriorityPainted$[ebp]
	push	ecx
	push	ecx
	movss	xmm0, DWORD PTR _priorityRange$[ebp]
	movss	DWORD PTR [esp], xmm0
	mov	edx, DWORD PTR _this$[ebp]
	mov	eax, DWORD PTR [edx+33804]
	push	eax
	mov	ecx, DWORD PTR _isObjPainted$[ebp]
	push	ecx
	push	ecx
	movss	xmm0, DWORD PTR _objRange$[ebp]
	movss	DWORD PTR [esp], xmm0
	mov	edx, DWORD PTR _pObj$[ebp]
	push	edx
	mov	ecx, DWORD PTR _this$[ebp]
	call	?Padlock_DetermineRelativePriority@OTWDriverClass@@AAEHPAVSimBaseClass@@MH0MH@Z ; OTWDriverClass::Padlock_DetermineRelativePriority
	mov	DWORD PTR _testResult$7[ebp], eax
$LN37@Padlock_Fi:

; 281  : 				if (testResult)

	cmp	DWORD PTR _testResult$7[ebp], 0
	je	SHORT $LN36@Padlock_Fi

; 282  : 					setLoMark = TRUE;

	mov	DWORD PTR _setLoMark$6[ebp], 1

; 283  : 				else

	jmp	SHORT $LN35@Padlock_Fi
$LN36@Padlock_Fi:

; 284  : 					testAgainstLoMark = FALSE;

	mov	DWORD PTR _testAgainstLoMark$5[ebp], 0
$LN35@Padlock_Fi:

; 285  : 			}
; 286  : 
; 287  : 			if (testAgainstLoMark) {

	cmp	DWORD PTR _testAgainstLoMark$5[ebp], 0
	je	$LN30@Padlock_Fi

; 288  : 				if (tgtStep >= 0)

	mov	eax, DWORD PTR _this$[ebp]
	cmp	DWORD PTR [eax+32168], 0
	jl	SHORT $LN33@Padlock_Fi

; 289  : 					testResult = !pLoMark || Padlock_DetermineRelativePriority(pObj, objRange, isObjPainted, pLoMark, loMarkRange, isLoMarkPainted);

	cmp	DWORD PTR _pLoMark$[ebp], 0
	je	SHORT $LN70@Padlock_Fi
	mov	ecx, DWORD PTR _isLoMarkPainted$[ebp]
	push	ecx
	push	ecx
	movss	xmm0, DWORD PTR _loMarkRange$[ebp]
	movss	DWORD PTR [esp], xmm0
	mov	edx, DWORD PTR _pLoMark$[ebp]
	push	edx
	mov	eax, DWORD PTR _isObjPainted$[ebp]
	push	eax
	push	ecx
	movss	xmm0, DWORD PTR _objRange$[ebp]
	movss	DWORD PTR [esp], xmm0
	mov	ecx, DWORD PTR _pObj$[ebp]
	push	ecx
	mov	ecx, DWORD PTR _this$[ebp]
	call	?Padlock_DetermineRelativePriority@OTWDriverClass@@AAEHPAVSimBaseClass@@MH0MH@Z ; OTWDriverClass::Padlock_DetermineRelativePriority
	test	eax, eax
	jne	SHORT $LN70@Padlock_Fi
	mov	DWORD PTR tv379[ebp], 0
	jmp	SHORT $LN71@Padlock_Fi
$LN70@Padlock_Fi:
	mov	DWORD PTR tv379[ebp], 1
$LN71@Padlock_Fi:
	mov	edx, DWORD PTR tv379[ebp]
	mov	DWORD PTR _testResult$7[ebp], edx

; 290  : 				else

	jmp	SHORT $LN32@Padlock_Fi
$LN33@Padlock_Fi:

; 291  : 					testResult = !pLoMark || Padlock_DetermineRelativePriority(pLoMark, loMarkRange, isLoMarkPainted, pObj, objRange, isObjPainted);

	cmp	DWORD PTR _pLoMark$[ebp], 0
	je	SHORT $LN72@Padlock_Fi
	mov	eax, DWORD PTR _isObjPainted$[ebp]
	push	eax
	push	ecx
	movss	xmm0, DWORD PTR _objRange$[ebp]
	movss	DWORD PTR [esp], xmm0
	mov	ecx, DWORD PTR _pObj$[ebp]
	push	ecx
	mov	edx, DWORD PTR _isLoMarkPainted$[ebp]
	push	edx
	push	ecx
	movss	xmm0, DWORD PTR _loMarkRange$[ebp]
	movss	DWORD PTR [esp], xmm0
	mov	eax, DWORD PTR _pLoMark$[ebp]
	push	eax
	mov	ecx, DWORD PTR _this$[ebp]
	call	?Padlock_DetermineRelativePriority@OTWDriverClass@@AAEHPAVSimBaseClass@@MH0MH@Z ; OTWDriverClass::Padlock_DetermineRelativePriority
	test	eax, eax
	jne	SHORT $LN72@Padlock_Fi
	mov	DWORD PTR tv390[ebp], 0
	jmp	SHORT $LN73@Padlock_Fi
$LN72@Padlock_Fi:
	mov	DWORD PTR tv390[ebp], 1
$LN73@Padlock_Fi:
	mov	ecx, DWORD PTR tv390[ebp]
	mov	DWORD PTR _testResult$7[ebp], ecx
$LN32@Padlock_Fi:

; 292  : 				if (testResult)

	cmp	DWORD PTR _testResult$7[ebp], 0
	je	SHORT $LN31@Padlock_Fi

; 293  : 					setLoMark = TRUE;

	mov	DWORD PTR _setLoMark$6[ebp], 1

; 294  : 				else

	jmp	SHORT $LN30@Padlock_Fi
$LN31@Padlock_Fi:

; 295  : 					setLoMark = FALSE;

	mov	DWORD PTR _setLoMark$6[ebp], 0
$LN30@Padlock_Fi:

; 296  : 			}
; 297  : 
; 298  : 			if (setLoMark) // END OF ADDED SECTION 2002-02-07

	cmp	DWORD PTR _setLoMark$6[ebp], 0
	je	SHORT $LN29@Padlock_Fi

; 299  : 			{
; 300  : 				pLoMark				= pObj;	

	mov	edx, DWORD PTR _pObj$[ebp]
	mov	DWORD PTR _pLoMark$[ebp], edx

; 301  : 				loMarkRange			= objRange;

	movss	xmm0, DWORD PTR _objRange$[ebp]
	movss	DWORD PTR _loMarkRange$[ebp], xmm0

; 302  : 				isLoMarkPainted	= isObjPainted;

	mov	eax, DWORD PTR _isObjPainted$[ebp]
	mov	DWORD PTR _isLoMarkPainted$[ebp], eax
$LN29@Padlock_Fi:

; 303  : 			}
; 304  : 		}
; 305  : 
; 306  : 		// We're in the process of searching the player's target list
; 307  : 		if(searchMode == SearchTargets) {

	cmp	DWORD PTR _searchMode$[ebp], 0
	jne	SHORT $LN28@Padlock_Fi

; 308  : 
; 309  : 			// Step to the next element in the target list
; 310  : 			pObjType	= pObjType->next;

	mov	ecx, DWORD PTR _pObjType$[ebp]
	mov	edx, DWORD PTR [ecx+16]
	mov	DWORD PTR _pObjType$[ebp], edx

; 311  : 
; 312  : 			// If there is a next element
; 313  : 			if(pObjType) {

	cmp	DWORD PTR _pObjType$[ebp], 0
	je	SHORT $LN27@Padlock_Fi

; 314  : 
; 315  : 				// Get the pointer to the object
; 316  : 				pObj	= (SimBaseClass*) pObjType->BaseData();

	mov	ecx, DWORD PTR _pObjType$[ebp]
	call	?BaseData@SimObjectType@@QAEPAVFalconEntity@@XZ ; SimObjectType::BaseData
	mov	DWORD PTR _pObj$[ebp], eax

; 317  : 			}
; 318  : 			else {

	jmp	SHORT $LN24@Padlock_Fi
$LN27@Padlock_Fi:

; 319  : 				// Start searching the Feature list.
; 320  : 			   pObj	= (SimBaseClass*)featureWalker.GetFirst();

	lea	ecx, DWORD PTR _featureWalker$[ebp]
	call	?GetFirst@VuListIterator@@QAEPAVVuEntity@@XZ ; VuListIterator::GetFirst
	mov	DWORD PTR _pObj$[ebp], eax

; 321  : 
; 322  : 				// If there are features in the list, search the feature list
; 323  : 				if(pObj) {

	cmp	DWORD PTR _pObj$[ebp], 0
	je	SHORT $LN25@Padlock_Fi

; 324  : 					searchMode	=	SearchFeatures;

	mov	DWORD PTR _searchMode$[ebp], 1

; 325  : 				}
; 326  : 				else {

	jmp	SHORT $LN24@Padlock_Fi
$LN25@Padlock_Fi:

; 327  : 					// Don't change the padlocked object
; 328  : 					isDone		= TRUE;

	mov	DWORD PTR _isDone$[ebp], 1

; 329  : 					pObj			= NULL;

	mov	DWORD PTR _pObj$[ebp], 0
$LN24@Padlock_Fi:

; 330  : 				}	
; 331  : 			}

	jmp	SHORT $LN21@Padlock_Fi
$LN28@Padlock_Fi:

; 332  : 		}
; 333  : 		else if(searchMode == SearchFeatures) {

	cmp	DWORD PTR _searchMode$[ebp], 1
	jne	SHORT $LN21@Padlock_Fi

; 334  : 			// We're searching the feature list
; 335  : 			pObj	= (SimBaseClass*)featureWalker.GetNext();

	lea	ecx, DWORD PTR _featureWalker$[ebp]
	call	?GetNext@VuListIterator@@QAEPAVVuEntity@@XZ ; VuListIterator::GetNext
	mov	DWORD PTR _pObj$[ebp], eax

; 336  : 			if(pObj == NULL) {

	cmp	DWORD PTR _pObj$[ebp], 0
	jne	SHORT $LN21@Padlock_Fi

; 337  : 				searchMode = SearchTargets;

	mov	DWORD PTR _searchMode$[ebp], 0
$LN21@Padlock_Fi:

; 338  : 			}
; 339  : 		}
; 340  : 
; 341  : 
; 342  : 		// If we're at the end of the list, decide what do now.
; 343  : 
; 344  : 		if(pObj == NULL) {

	cmp	DWORD PTR _pObj$[ebp], 0
	jne	$LN1@Padlock_Fi

; 345  : 
; 346  : 			// If we reached the last lowest priority object, find the highest object
; 347  : 			// else we have a hi priority object, set it to be the padlock candidate.
; 348  : 			// Otherwise the old candidate is still retained.
; 349  : 
; 350  : 			if(pLoMark == NULL) {

	cmp	DWORD PTR _pLoMark$[ebp], 0
	jne	$LN19@Padlock_Fi

; 351  : 
; 352  : 				// If this was the first traversal, go to the beginning and try again
; 353  : 				if(attempt == 0) {

	cmp	DWORD PTR _attempt$[ebp], 0
	jne	$LN18@Padlock_Fi

; 354  : 
; 355  : 					attempt++;

	mov	eax, DWORD PTR _attempt$[ebp]
	add	eax, 1
	mov	DWORD PTR _attempt$[ebp], eax

; 356  : 
; 357  : 					// Initialize pointers to the head of the target list
; 358  : 					pObjType		= ((SimMoverClass*)otwPlatform.get())->targetList;

	mov	ecx, DWORD PTR _this$[ebp]
	add	ecx, 32336				; 00007e50H
	call	?get@?$VuBin@VSimBaseClass@@@@QBEPAVSimBaseClass@@XZ ; VuBin<SimBaseClass>::get
	mov	ecx, DWORD PTR [eax+660]
	mov	DWORD PTR _pObjType$[ebp], ecx

; 359  : 					if(pObjType) {

	cmp	DWORD PTR _pObjType$[ebp], 0
	je	SHORT $LN17@Padlock_Fi

; 360  : 						pObj			= (SimBaseClass*) pObjType->BaseData();

	mov	ecx, DWORD PTR _pObjType$[ebp]
	call	?BaseData@SimObjectType@@QAEPAVFalconEntity@@XZ ; SimObjectType::BaseData
	mov	DWORD PTR _pObj$[ebp], eax
$LN17@Padlock_Fi:

; 361  : 					}
; 362  : 					searchMode	= SearchTargets;

	mov	DWORD PTR _searchMode$[ebp], 0

; 363  : 					isDone		= (pObjType == NULL);

	cmp	DWORD PTR _pObjType$[ebp], 0
	jne	SHORT $LN74@Padlock_Fi
	mov	DWORD PTR tv437[ebp], 1
	jmp	SHORT $LN75@Padlock_Fi
$LN74@Padlock_Fi:
	mov	DWORD PTR tv437[ebp], 0
$LN75@Padlock_Fi:
	mov	edx, DWORD PTR tv437[ebp]
	mov	DWORD PTR _isDone$[ebp], edx

; 364  : 
; 365  : 					// If there are no objects in the target list
; 366  : 
; 367  : 					if(isDone == TRUE) {

	cmp	DWORD PTR _isDone$[ebp], 1
	jne	SHORT $LN14@Padlock_Fi

; 368  : 
; 369  : 						// Initialize the pointer to the sim's feature list
; 370  : 						pObj				= (SimBaseClass*)featureWalker.GetFirst();

	lea	ecx, DWORD PTR _featureWalker$[ebp]
	call	?GetFirst@VuListIterator@@QAEPAVVuEntity@@XZ ; VuListIterator::GetFirst
	mov	DWORD PTR _pObj$[ebp], eax

; 371  : 
; 372  : 						// If there is something in the list
; 373  : 						if(pObj) {

	cmp	DWORD PTR _pObj$[ebp], 0
	je	SHORT $LN15@Padlock_Fi

; 374  : 
; 375  : 							// Change mode to search features
; 376  : 							searchMode	= SearchFeatures;

	mov	DWORD PTR _searchMode$[ebp], 1

; 377  : 							isDone		= FALSE;

	mov	DWORD PTR _isDone$[ebp], 0

; 378  : 						}
; 379  : 						else {

	jmp	SHORT $LN14@Padlock_Fi
$LN15@Padlock_Fi:

; 380  : 
; 381  : 							// Otherwise we're done
; 382  : 							mPadlockTimeout		= 0.0F;

	mov	eax, DWORD PTR _this$[ebp]
	movss	xmm0, DWORD PTR __real@00000000
	movss	DWORD PTR [eax+33820], xmm0

; 383  : 							isDone					= TRUE;

	mov	DWORD PTR _isDone$[ebp], 1
$LN14@Padlock_Fi:

; 384  : 						}
; 385  : 					}
; 386  : 				}
; 387  : 				else {

	jmp	SHORT $LN12@Padlock_Fi
$LN18@Padlock_Fi:

; 388  : 					isDone	= TRUE;

	mov	DWORD PTR _isDone$[ebp], 1

; 389  : 					tgtStep	= 0;

	mov	ecx, DWORD PTR _this$[ebp]
	mov	DWORD PTR [ecx+32168], 0

; 390  : 					if(mpPadlockPriorityObject == NULL) {

	mov	edx, DWORD PTR _this$[ebp]
	cmp	DWORD PTR [edx+33804], 0
	jne	SHORT $LN12@Padlock_Fi

; 391  : 						snapStatus = SNAPPING;

	mov	eax, DWORD PTR _this$[ebp]
	mov	DWORD PTR [eax+33860], 2
$LN12@Padlock_Fi:

; 392  : 					}
; 393  : 				}
; 394  : 			}						
; 395  : 			else {

	jmp	$LN1@Padlock_Fi
$LN19@Padlock_Fi:

; 396  : 
; 397  : 				// If there is no currently padlocked object
; 398  : 				if(mpPadlockPriorityObject == NULL) {

	mov	ecx, DWORD PTR _this$[ebp]
	cmp	DWORD PTR [ecx+33804], 0
	jne	$LN10@Padlock_Fi

; 399  : 					
; 400  : 
; 401  : 
; 402  : 					/* VWF 2/15/99 */
; 403  : 					if(mpPadlockCandidate) {

	mov	edx, DWORD PTR _this$[ebp]
	cmp	DWORD PTR [edx+33796], 0
	je	SHORT $LN9@Padlock_Fi

; 404  : 						VuDeReferenceEntity(mpPadlockCandidate);

	mov	eax, DWORD PTR _this$[ebp]
	mov	ecx, DWORD PTR [eax+33796]
	push	ecx
	call	?VuDeReferenceEntity@@YAHPAVVuEntity@@@Z ; VuDeReferenceEntity
	add	esp, 4
$LN9@Padlock_Fi:

; 405  : 					}
; 406  : 
; 407  : 					// Set the highest object as the padlock object
; 408  : 					mpPadlockCandidate	= pLoMark;

	mov	edx, DWORD PTR _this$[ebp]
	mov	eax, DWORD PTR _pLoMark$[ebp]
	mov	DWORD PTR [edx+33796], eax

; 409  : 					
; 410  : 					/* VWF 2/15/99 */
; 411  : 					VuReferenceEntity(mpPadlockCandidate);

	mov	ecx, DWORD PTR _this$[ebp]
	mov	edx, DWORD PTR [ecx+33796]
	push	edx
	call	?VuReferenceEntity@@YAHPAVVuEntity@@@Z	; VuReferenceEntity
	add	esp, 4

; 412  : 
; 413  : 
; 414  : 
; 415  :                if (pLoMark)

	cmp	DWORD PTR _pLoMark$[ebp], 0
	je	SHORT $LN8@Padlock_Fi

; 416  :                   mPadlockCandidateID  = pLoMark->Id();

	lea	eax, DWORD PTR $T3[ebp]
	push	eax
	mov	ecx, DWORD PTR _pLoMark$[ebp]
	call	?Id@VuEntity@@QBE?AVVU_ID@@XZ		; VuEntity::Id
	mov	ecx, DWORD PTR [eax]
	mov	edx, DWORD PTR [eax+4]
	mov	eax, DWORD PTR _this$[ebp]
	mov	DWORD PTR [eax+33812], ecx
	mov	DWORD PTR [eax+33816], edx

; 417  :                else

	jmp	SHORT $LN7@Padlock_Fi
$LN8@Padlock_Fi:

; 418  :                   mPadlockCandidateID  = FalconNullId;

	mov	ecx, DWORD PTR _this$[ebp]
	mov	edx, DWORD PTR ?FalconNullId@@3VVU_ID@@A
	mov	DWORD PTR [ecx+33812], edx
	mov	eax, DWORD PTR ?FalconNullId@@3VVU_ID@@A+4
	mov	DWORD PTR [ecx+33816], eax
$LN7@Padlock_Fi:

; 419  : 					mPadlockTimeout			= 0.0F;		// 1000 ms = 1 sec

	mov	ecx, DWORD PTR _this$[ebp]
	movss	xmm0, DWORD PTR __real@00000000
	movss	DWORD PTR [ecx+33820], xmm0

; 420  : 
; 421  : 					// We're done
; 422  : 					tgtStep		= 0;

	mov	edx, DWORD PTR _this$[ebp]
	mov	DWORD PTR [edx+32168], 0

; 423  : 					isDone		= TRUE;

	mov	DWORD PTR _isDone$[ebp], 1

; 424  : 					if(mpPadlockPriorityObject == NULL) {

	mov	eax, DWORD PTR _this$[ebp]
	cmp	DWORD PTR [eax+33804], 0
	jne	SHORT $LN6@Padlock_Fi

; 425  : 						snapStatus = SNAPPING;

	mov	ecx, DWORD PTR _this$[ebp]
	mov	DWORD PTR [ecx+33860], 2
$LN6@Padlock_Fi:

; 426  : 					}
; 427  : 				}
; 428  : 				else {

	jmp	$LN1@Padlock_Fi
$LN10@Padlock_Fi:

; 429  : 
; 430  : 					/* VWF 2/15/99 */
; 431  : 					if(mpPadlockCandidate) {

	mov	edx, DWORD PTR _this$[ebp]
	cmp	DWORD PTR [edx+33796], 0
	je	SHORT $LN4@Padlock_Fi

; 432  : 						VuDeReferenceEntity(mpPadlockCandidate);

	mov	eax, DWORD PTR _this$[ebp]
	mov	ecx, DWORD PTR [eax+33796]
	push	ecx
	call	?VuDeReferenceEntity@@YAHPAVVuEntity@@@Z ; VuDeReferenceEntity
	add	esp, 4
$LN4@Padlock_Fi:

; 433  : 					}
; 434  : 
; 435  : 					// Set the highest object as the padlock object
; 436  : 					mpPadlockCandidate	= pLoMark;

	mov	edx, DWORD PTR _this$[ebp]
	mov	eax, DWORD PTR _pLoMark$[ebp]
	mov	DWORD PTR [edx+33796], eax

; 437  : 					
; 438  : 					/* VWF 2/15/99 */
; 439  : 					VuReferenceEntity(mpPadlockCandidate);

	mov	ecx, DWORD PTR _this$[ebp]
	mov	edx, DWORD PTR [ecx+33796]
	push	edx
	call	?VuReferenceEntity@@YAHPAVVuEntity@@@Z	; VuReferenceEntity
	add	esp, 4

; 440  :                if (pLoMark)

	cmp	DWORD PTR _pLoMark$[ebp], 0
	je	SHORT $LN3@Padlock_Fi

; 441  :                   mPadlockCandidateID  = pLoMark->Id();

	lea	eax, DWORD PTR $T2[ebp]
	push	eax
	mov	ecx, DWORD PTR _pLoMark$[ebp]
	call	?Id@VuEntity@@QBE?AVVU_ID@@XZ		; VuEntity::Id
	mov	ecx, DWORD PTR [eax]
	mov	edx, DWORD PTR [eax+4]
	mov	eax, DWORD PTR _this$[ebp]
	mov	DWORD PTR [eax+33812], ecx
	mov	DWORD PTR [eax+33816], edx

; 442  :                else

	jmp	SHORT $LN2@Padlock_Fi
$LN3@Padlock_Fi:

; 443  :                   mPadlockCandidateID  = FalconNullId;

	mov	ecx, DWORD PTR _this$[ebp]
	mov	edx, DWORD PTR ?FalconNullId@@3VVU_ID@@A
	mov	DWORD PTR [ecx+33812], edx
	mov	eax, DWORD PTR ?FalconNullId@@3VVU_ID@@A+4
	mov	DWORD PTR [ecx+33816], eax
$LN2@Padlock_Fi:

; 444  : 
; 445  : 					// Set the timer
; 446  : 					mPadlockTimeout		= 0.0F;		// 1000 ms = 1 sec

	mov	ecx, DWORD PTR _this$[ebp]
	movss	xmm0, DWORD PTR __real@00000000
	movss	DWORD PTR [ecx+33820], xmm0

; 447  : 
; 448  : 					// We're done
; 449  : 					tgtStep		= 0;

	mov	edx, DWORD PTR _this$[ebp]
	mov	DWORD PTR [edx+32168], 0

; 450  : 					isDone		= TRUE;

	mov	DWORD PTR _isDone$[ebp], 1

; 451  : 					if(mpPadlockPriorityObject == NULL) {

	mov	eax, DWORD PTR _this$[ebp]
	cmp	DWORD PTR [eax+33804], 0
	jne	SHORT $LN1@Padlock_Fi

; 452  : 						snapStatus = SNAPPING;

	mov	ecx, DWORD PTR _this$[ebp]
	mov	DWORD PTR [ecx+33860], 2
$LN1@Padlock_Fi:

; 453  : 					}
; 454  : 				}
; 455  : 			}
; 456  : 		}
; 457  : 	}

	jmp	$LN49@Padlock_Fi
$LN47@Padlock_Fi:

; 458  : }

	mov	DWORD PTR __$EHRec$[ebp+8], -1
	lea	ecx, DWORD PTR _featureWalker$[ebp]
	call	??1VuListIterator@@UAE@XZ		; VuListIterator::~VuListIterator
$LN62@Padlock_Fi:
	mov	ecx, DWORD PTR __$EHRec$[ebp]
	mov	DWORD PTR fs:0, ecx
	pop	ecx
	mov	esp, ebp
	pop	ebp
	ret	4
_TEXT	ENDS
text$x	SEGMENT
__unwindfunclet$?Padlock_FindEnhancedPriority@OTWDriverClass@@AAEXH@Z$0:
	lea	ecx, DWORD PTR _featureWalker$[ebp]
	jmp	??1VuListIterator@@UAE@XZ		; VuListIterator::~VuListIterator
__ehhandler$?Padlock_FindEnhancedPriority@OTWDriverClass@@AAEXH@Z:
	mov	edx, DWORD PTR [esp+8]
	lea	eax, DWORD PTR [edx+12]
	mov	ecx, DWORD PTR [edx-228]
	xor	ecx, eax
	call	@__security_check_cookie@4
	mov	eax, OFFSET __ehfuncinfo$?Padlock_FindEnhancedPriority@OTWDriverClass@@AAEXH@Z
	jmp	___CxxFrameHandler3
text$x	ENDS
?Padlock_FindEnhancedPriority@OTWDriverClass@@AAEXH@Z ENDP ; OTWDriverClass::Padlock_FindEnhancedPriority
; Function compile flags: /Odtp
; File c:\users\zhitao li\documents\visual studio 2012\projects\freefalcon\sim\otwdrive\padlock.cpp
_TEXT	SEGMENT
$T2 = -288						; size = 8
tv1109 = -280						; size = 4
_featureWalker$ = -276					; size = 12
tv803 = -264						; size = 4
tv933 = -260						; size = 4
tv840 = -256						; size = 4
tv1119 = -252						; size = 4
tv793 = -248						; size = 4
tv928 = -244						; size = 4
tv845 = -240						; size = 4
tv924 = -236						; size = 4
tv808 = -232						; size = 4
tv1117 = -228						; size = 4
tv798 = -224						; size = 4
tv919 = -220						; size = 4
tv1095 = -216						; size = 4
tv915 = -212						; size = 4
tv850 = -208						; size = 4
tv1115 = -204						; size = 4
tv783 = -200						; size = 4
tv910 = -196						; size = 4
tv1101 = -192						; size = 4
tv1111 = -188						; size = 4
tv1103 = -184						; size = 4
tv865 = -180						; size = 4
tv1097 = -176						; size = 4
tv1113 = -172						; size = 4
tv1099 = -168						; size = 4
tv860 = -164						; size = 4
tv788 = -160						; size = 4
tv1107 = -156						; size = 4
tv855 = -152						; size = 4
tv1105 = -148						; size = 4
tv153 = -144						; size = 4
tv374 = -140						; size = 4
tv556 = -136						; size = 4
tv267 = -132						; size = 4
tv545 = -128						; size = 4
tv333 = -124						; size = 4
_testAgainstPriority$3 = -120				; size = 4
_testAgainstCandidate$4 = -116				; size = 4
tv613 = -112						; size = 4
_isLoMarkPainted$ = -108				; size = 4
_xDiff$ = -104						; size = 4
_loMarkRange$ = -100					; size = 4
_yDiff$ = -96						; size = 4
_objAz$ = -92						; size = 4
_zDiff$ = -88						; size = 4
_pclassPtr$ = -84					; size = 4
_attempt$ = -80						; size = 4
_objEl$ = -76						; size = 4
_setLoMark$5 = -72					; size = 4
_candidateRange$ = -68					; size = 4
_priorityRange$ = -64					; size = 4
_isPriorityPainted$ = -60				; size = 4
_isCandidatePainted$ = -56				; size = 4
_testAgainstLoMark$6 = -52				; size = 4
_searchMode$ = -48					; size = 4
_testResult$7 = -44					; size = 4
_pLoMark$ = -40						; size = 4
_isObjPainted$ = -36					; size = 4
_objRange$ = -32					; size = 4
_isDone$ = -28						; size = 4
_pObj$ = -24						; size = 4
_pObjType$ = -20					; size = 4
_this$ = -16						; size = 4
__$EHRec$ = -12						; size = 12
___formal$ = 8						; size = 4
?Padlock_FindRealisticPriority@OTWDriverClass@@AAEXH@Z PROC ; OTWDriverClass::Padlock_FindRealisticPriority
; _this$ = ecx

; 486  : {

	push	ebp
	mov	ebp, esp
	push	-1
	push	__ehhandler$?Padlock_FindRealisticPriority@OTWDriverClass@@AAEXH@Z
	mov	eax, DWORD PTR fs:0
	push	eax
	sub	esp, 276				; 00000114H
	mov	eax, DWORD PTR ___security_cookie
	xor	eax, ebp
	push	eax
	lea	eax, DWORD PTR __$EHRec$[ebp]
	mov	DWORD PTR fs:0, eax
	mov	DWORD PTR _this$[ebp], ecx

; 487  : 	float						loMarkRange				= 0.0F;

	movss	xmm0, DWORD PTR __real@00000000
	movss	DWORD PTR _loMarkRange$[ebp], xmm0

; 488  : 	float						candidateRange			= 0.0F;

	movss	xmm0, DWORD PTR __real@00000000
	movss	DWORD PTR _candidateRange$[ebp], xmm0

; 489  : 	float						priorityRange			= 0.0F; // 2002-02-07 ADDED BY S.G.

	movss	xmm0, DWORD PTR __real@00000000
	movss	DWORD PTR _priorityRange$[ebp], xmm0

; 490  : 	BOOL						isLoMarkPainted			= FALSE;	

	mov	DWORD PTR _isLoMarkPainted$[ebp], 0

; 491  : 	BOOL						isCandidatePainted		= FALSE;

	mov	DWORD PTR _isCandidatePainted$[ebp], 0

; 492  : 	BOOL						isPriorityPainted		= FALSE; // 2002-02-07 ADDED BY S.G.

	mov	DWORD PTR _isPriorityPainted$[ebp], 0

; 493  : 	BOOL						isObjPainted			= FALSE;

	mov	DWORD PTR _isObjPainted$[ebp], 0

; 494  : 	float						objRange				= 0.0F;

	movss	xmm0, DWORD PTR __real@00000000
	movss	DWORD PTR _objRange$[ebp], xmm0

; 495  : 	float						objAz					= 0.0F;

	movss	xmm0, DWORD PTR __real@00000000
	movss	DWORD PTR _objAz$[ebp], xmm0

; 496  : 	float						objEl					= 0.0F;

	movss	xmm0, DWORD PTR __real@00000000
	movss	DWORD PTR _objEl$[ebp], xmm0

; 497  : 	float						xDiff					= 0.0F;

	movss	xmm0, DWORD PTR __real@00000000
	movss	DWORD PTR _xDiff$[ebp], xmm0

; 498  : 	float						yDiff					= 0.0F;

	movss	xmm0, DWORD PTR __real@00000000
	movss	DWORD PTR _yDiff$[ebp], xmm0

; 499  : 	float						zDiff					= 0.0F;

	movss	xmm0, DWORD PTR __real@00000000
	movss	DWORD PTR _zDiff$[ebp], xmm0

; 500  : 	int							attempt					= 0;

	mov	DWORD PTR _attempt$[ebp], 0

; 501  : 	BOOL						isDone					= FALSE;

	mov	DWORD PTR _isDone$[ebp], 0

; 502  : 	SimBaseClass*				pLoMark					= NULL;

	mov	DWORD PTR _pLoMark$[ebp], 0

; 503  : 	SimObjectType*				pObjType				= NULL;

	mov	DWORD PTR _pObjType$[ebp], 0

; 504  : 	SimBaseClass*				pObj					= NULL;

	mov	DWORD PTR _pObj$[ebp], 0

; 505  : 	Falcon4EntityClassType*		pclassPtr				= NULL;

	mov	DWORD PTR _pclassPtr$[ebp], 0

; 506  : 	enum							{SearchTargets, SearchFeatures} searchMode = SearchTargets;

	mov	DWORD PTR _searchMode$[ebp], 0

; 507  : 
; 508  : 	if(PlayerOptions.GetPadlockMode() == PDDisabled) {

	mov	ecx, OFFSET ?PlayerOptions@@3VPlayerOptionsClass@@A ; PlayerOptions
	call	?GetPadlockMode@PlayerOptionsClass@@QAEHXZ ; PlayerOptionsClass::GetPadlockMode
	cmp	eax, 2
	jne	SHORT $LN80@Padlock_Fi

; 509  : 		return;

	jmp	$LN81@Padlock_Fi
$LN80@Padlock_Fi:

; 510  : 	}
; 511  : 
; 512  : 	// Okay
; 513  : 	if(
; 514  : 		mpPadlockCandidate && 
; 515  : 		mpPadlockCandidate->GetCampaignObject() != ((CampBaseClass*)0xdddddddd) && !mpPadlockCandidate->IsDead()
; 516  : 	){

	mov	eax, DWORD PTR _this$[ebp]
	cmp	DWORD PTR [eax+33796], 0
	je	$LN72@Padlock_Fi
	mov	ecx, DWORD PTR _this$[ebp]
	mov	ecx, DWORD PTR [ecx+33796]
	call	?GetCampaignObject@SimBaseClass@@QAEPAVCampBaseClass@@XZ ; SimBaseClass::GetCampaignObject
	cmp	eax, -572662307				; ddddddddH
	je	$LN72@Padlock_Fi
	mov	edx, DWORD PTR _this$[ebp]
	mov	eax, DWORD PTR [edx+33796]
	mov	ecx, DWORD PTR _this$[ebp]
	mov	edx, DWORD PTR [eax]
	mov	ecx, DWORD PTR [ecx+33796]
	mov	eax, DWORD PTR [edx+340]
	call	eax
	test	eax, eax
	jne	$LN72@Padlock_Fi

; 517  : 
; 518  : 		pclassPtr	= (Falcon4EntityClassType*) mpPadlockCandidate->EntityType();

	mov	ecx, DWORD PTR _this$[ebp]
	mov	ecx, DWORD PTR [ecx+33796]
	call	?EntityType@VuEntity@@QBEPAUVuEntityType@@XZ ; VuEntity::EntityType
	mov	DWORD PTR _pclassPtr$[ebp], eax

; 519  : 
; 520  : 		if (pclassPtr->vuClassData.classInfo_[VU_CLASS] == CLASS_VEHICLE) {

	mov	edx, 1
	shl	edx, 0
	mov	eax, DWORD PTR _pclassPtr$[ebp]
	movzx	ecx, BYTE PTR [eax+edx+8]
	cmp	ecx, 7
	jne	$LN78@Padlock_Fi

; 521  : 
; 522  : 			pObjType	= ((SimMoverClass*)otwPlatform.get())->targetList;

	mov	ecx, DWORD PTR _this$[ebp]
	add	ecx, 32336				; 00007e50H
	call	?get@?$VuBin@VSimBaseClass@@@@QBEPAVSimBaseClass@@XZ ; VuBin<SimBaseClass>::get
	mov	edx, DWORD PTR [eax+660]
	mov	DWORD PTR _pObjType$[ebp], edx
$LN77@Padlock_Fi:

; 523  : 			while(pObjType && pObjType->BaseData() != mpPadlockCandidate) {

	cmp	DWORD PTR _pObjType$[ebp], 0
	je	SHORT $LN76@Padlock_Fi
	mov	ecx, DWORD PTR _pObjType$[ebp]
	call	?BaseData@SimObjectType@@QAEPAVFalconEntity@@XZ ; SimObjectType::BaseData
	mov	ecx, DWORD PTR _this$[ebp]
	cmp	eax, DWORD PTR [ecx+33796]
	je	SHORT $LN76@Padlock_Fi

; 524  : 				pObjType = pObjType->next;

	mov	edx, DWORD PTR _pObjType$[ebp]
	mov	eax, DWORD PTR [edx+16]
	mov	DWORD PTR _pObjType$[ebp], eax

; 525  : 			}

	jmp	SHORT $LN77@Padlock_Fi
$LN76@Padlock_Fi:

; 526  : 
; 527  : 			if(pObjType) {

	cmp	DWORD PTR _pObjType$[ebp], 0
	je	SHORT $LN75@Padlock_Fi

; 528  : 				candidateRange = pObjType->localData->range;

	mov	ecx, DWORD PTR _pObjType$[ebp]
	mov	edx, DWORD PTR [ecx+12]
	movss	xmm0, DWORD PTR [edx+44]
	movss	DWORD PTR _candidateRange$[ebp], xmm0

; 529  : 				isCandidatePainted = pObjType->localData->sensorState[SensorClass::Radar] == SensorClass::SensorTrack;

	mov	eax, DWORD PTR _pObjType$[ebp]
	mov	ecx, DWORD PTR [eax+12]
	mov	edx, 4
	shl	edx, 0
	cmp	DWORD PTR [ecx+edx+192], 3
	jne	SHORT $LN83@Padlock_Fi
	mov	DWORD PTR tv153[ebp], 1
	jmp	SHORT $LN84@Padlock_Fi
$LN83@Padlock_Fi:
	mov	DWORD PTR tv153[ebp], 0
$LN84@Padlock_Fi:
	mov	eax, DWORD PTR tv153[ebp]
	mov	DWORD PTR _isCandidatePainted$[ebp], eax

; 530  : 			}
; 531  : 			else {

	jmp	SHORT $LN74@Padlock_Fi
$LN75@Padlock_Fi:

; 532  : 				candidateRange = 0.0F;

	movss	xmm0, DWORD PTR __real@00000000
	movss	DWORD PTR _candidateRange$[ebp], xmm0

; 533  : 				/* VWF 2/15/99 */
; 534  : 				if(mpPadlockCandidate) {

	mov	ecx, DWORD PTR _this$[ebp]
	cmp	DWORD PTR [ecx+33796], 0
	je	SHORT $LN73@Padlock_Fi

; 535  : 					VuDeReferenceEntity(mpPadlockCandidate);

	mov	edx, DWORD PTR _this$[ebp]
	mov	eax, DWORD PTR [edx+33796]
	push	eax
	call	?VuDeReferenceEntity@@YAHPAVVuEntity@@@Z ; VuDeReferenceEntity
	add	esp, 4
$LN73@Padlock_Fi:

; 536  : 				}
; 537  : 				mpPadlockCandidate  = NULL;

	mov	ecx, DWORD PTR _this$[ebp]
	mov	DWORD PTR [ecx+33796], 0

; 538  : 				mPadlockCandidateID = FalconNullId;

	mov	edx, DWORD PTR _this$[ebp]
	mov	eax, DWORD PTR ?FalconNullId@@3VVU_ID@@A
	mov	DWORD PTR [edx+33812], eax
	mov	ecx, DWORD PTR ?FalconNullId@@3VVU_ID@@A+4
	mov	DWORD PTR [edx+33816], ecx

; 539  : 				isCandidatePainted  = FALSE;

	mov	DWORD PTR _isCandidatePainted$[ebp], 0
$LN74@Padlock_Fi:

; 540  : 			}
; 541  : 		}
; 542  : 		else {

	jmp	$LN72@Padlock_Fi
$LN78@Padlock_Fi:

; 543  : 			candidateRange			= 
; 544  : 				(float)sqrt(mpPadlockCandidate->XPos() * mpPadlockCandidate->XPos() +
; 545  : 				mpPadlockCandidate->YPos() * mpPadlockCandidate->YPos() + 
; 546  : 				mpPadlockCandidate->ZPos() *  mpPadlockCandidate->ZPos())
; 547  : 			;

	mov	edx, DWORD PTR _this$[ebp]
	mov	ecx, DWORD PTR [edx+33796]
	call	?XPos@VuEntity@@QBEMXZ			; VuEntity::XPos
	fstp	DWORD PTR tv783[ebp]
	movss	xmm0, DWORD PTR tv783[ebp]
	mov	eax, DWORD PTR _this$[ebp]
	mov	ecx, DWORD PTR [eax+33796]
	movss	DWORD PTR tv1095[ebp], xmm0
	call	?XPos@VuEntity@@QBEMXZ			; VuEntity::XPos
	fstp	DWORD PTR tv788[ebp]
	movss	xmm0, DWORD PTR tv1095[ebp]
	mulss	xmm0, DWORD PTR tv788[ebp]
	mov	ecx, DWORD PTR _this$[ebp]
	mov	ecx, DWORD PTR [ecx+33796]
	movss	DWORD PTR tv1097[ebp], xmm0
	call	?YPos@VuEntity@@QBEMXZ			; VuEntity::YPos
	fstp	DWORD PTR tv793[ebp]
	movss	xmm0, DWORD PTR tv793[ebp]
	mov	edx, DWORD PTR _this$[ebp]
	mov	ecx, DWORD PTR [edx+33796]
	movss	DWORD PTR tv1099[ebp], xmm0
	call	?YPos@VuEntity@@QBEMXZ			; VuEntity::YPos
	fstp	DWORD PTR tv798[ebp]
	movss	xmm0, DWORD PTR tv1099[ebp]
	mulss	xmm0, DWORD PTR tv798[ebp]
	movss	xmm1, DWORD PTR tv1097[ebp]
	addss	xmm1, xmm0
	mov	eax, DWORD PTR _this$[ebp]
	mov	ecx, DWORD PTR [eax+33796]
	movss	DWORD PTR tv1101[ebp], xmm1
	call	?ZPos@VuEntity@@QBEMXZ			; VuEntity::ZPos
	fstp	DWORD PTR tv803[ebp]
	movss	xmm0, DWORD PTR tv803[ebp]
	mov	ecx, DWORD PTR _this$[ebp]
	mov	ecx, DWORD PTR [ecx+33796]
	movss	DWORD PTR tv1103[ebp], xmm0
	call	?ZPos@VuEntity@@QBEMXZ			; VuEntity::ZPos
	fstp	DWORD PTR tv808[ebp]
	movss	xmm0, DWORD PTR tv1103[ebp]
	mulss	xmm0, DWORD PTR tv808[ebp]
	movss	xmm1, DWORD PTR tv1101[ebp]
	addss	xmm1, xmm0
	push	ecx
	movss	DWORD PTR [esp], xmm1
	call	?SqrtSSE@@YAMM@Z			; SqrtSSE
	add	esp, 4
	fstp	DWORD PTR _candidateRange$[ebp]

; 548  : 			isCandidatePainted	= FALSE;

	mov	DWORD PTR _isCandidatePainted$[ebp], 0
$LN72@Padlock_Fi:

; 549  : 		}
; 550  : 	}
; 551  : 
; 552  : 	// 2002-02-07 ADDED BY S.G. Now do the same for mpPadlockPriorityObject
; 553  : 	if(
; 554  : 		mpPadlockPriorityObject && 
; 555  : 		mpPadlockPriorityObject->GetCampaignObject() != ((CampBaseClass*)0xdddddddd) && 
; 556  : 		!mpPadlockPriorityObject->IsDead()
; 557  : 	){

	mov	edx, DWORD PTR _this$[ebp]
	cmp	DWORD PTR [edx+33804], 0
	je	$LN65@Padlock_Fi
	mov	eax, DWORD PTR _this$[ebp]
	mov	ecx, DWORD PTR [eax+33804]
	call	?GetCampaignObject@SimBaseClass@@QAEPAVCampBaseClass@@XZ ; SimBaseClass::GetCampaignObject
	cmp	eax, -572662307				; ddddddddH
	je	$LN65@Padlock_Fi
	mov	ecx, DWORD PTR _this$[ebp]
	mov	edx, DWORD PTR [ecx+33804]
	mov	eax, DWORD PTR _this$[ebp]
	mov	edx, DWORD PTR [edx]
	mov	ecx, DWORD PTR [eax+33804]
	mov	eax, DWORD PTR [edx+340]
	call	eax
	test	eax, eax
	jne	$LN65@Padlock_Fi

; 558  : 		pclassPtr	= (Falcon4EntityClassType*) mpPadlockPriorityObject->EntityType();

	mov	ecx, DWORD PTR _this$[ebp]
	mov	ecx, DWORD PTR [ecx+33804]
	call	?EntityType@VuEntity@@QBEPAUVuEntityType@@XZ ; VuEntity::EntityType
	mov	DWORD PTR _pclassPtr$[ebp], eax

; 559  : 		if (pclassPtr->vuClassData.classInfo_[VU_CLASS] == CLASS_VEHICLE) {

	mov	edx, 1
	shl	edx, 0
	mov	eax, DWORD PTR _pclassPtr$[ebp]
	movzx	ecx, BYTE PTR [eax+edx+8]
	cmp	ecx, 7
	jne	$LN70@Padlock_Fi

; 560  : 
; 561  : 			pObjType	= ((SimMoverClass*)otwPlatform.get())->targetList;

	mov	ecx, DWORD PTR _this$[ebp]
	add	ecx, 32336				; 00007e50H
	call	?get@?$VuBin@VSimBaseClass@@@@QBEPAVSimBaseClass@@XZ ; VuBin<SimBaseClass>::get
	mov	edx, DWORD PTR [eax+660]
	mov	DWORD PTR _pObjType$[ebp], edx
$LN69@Padlock_Fi:

; 562  : 			while(pObjType && pObjType->BaseData() != mpPadlockPriorityObject) {

	cmp	DWORD PTR _pObjType$[ebp], 0
	je	SHORT $LN68@Padlock_Fi
	mov	ecx, DWORD PTR _pObjType$[ebp]
	call	?BaseData@SimObjectType@@QAEPAVFalconEntity@@XZ ; SimObjectType::BaseData
	mov	ecx, DWORD PTR _this$[ebp]
	cmp	eax, DWORD PTR [ecx+33804]
	je	SHORT $LN68@Padlock_Fi

; 563  : 				pObjType = pObjType->next;

	mov	edx, DWORD PTR _pObjType$[ebp]
	mov	eax, DWORD PTR [edx+16]
	mov	DWORD PTR _pObjType$[ebp], eax

; 564  : 			}

	jmp	SHORT $LN69@Padlock_Fi
$LN68@Padlock_Fi:

; 565  : 
; 566  : 			if(pObjType) {

	cmp	DWORD PTR _pObjType$[ebp], 0
	je	SHORT $LN67@Padlock_Fi

; 567  : 				priorityRange = pObjType->localData->range;

	mov	ecx, DWORD PTR _pObjType$[ebp]
	mov	edx, DWORD PTR [ecx+12]
	movss	xmm0, DWORD PTR [edx+44]
	movss	DWORD PTR _priorityRange$[ebp], xmm0

; 568  : 				isPriorityPainted = pObjType->localData->sensorState[SensorClass::Radar] == SensorClass::SensorTrack;

	mov	eax, DWORD PTR _pObjType$[ebp]
	mov	ecx, DWORD PTR [eax+12]
	mov	edx, 4
	shl	edx, 0
	cmp	DWORD PTR [ecx+edx+192], 3
	jne	SHORT $LN85@Padlock_Fi
	mov	DWORD PTR tv267[ebp], 1
	jmp	SHORT $LN86@Padlock_Fi
$LN85@Padlock_Fi:
	mov	DWORD PTR tv267[ebp], 0
$LN86@Padlock_Fi:
	mov	eax, DWORD PTR tv267[ebp]
	mov	DWORD PTR _isPriorityPainted$[ebp], eax

; 569  : 			}
; 570  : 			else {

	jmp	SHORT $LN66@Padlock_Fi
$LN67@Padlock_Fi:

; 571  : 				priorityRange = 0.0F;

	movss	xmm0, DWORD PTR __real@00000000
	movss	DWORD PTR _priorityRange$[ebp], xmm0

; 572  : 				isPriorityPainted  = FALSE;

	mov	DWORD PTR _isPriorityPainted$[ebp], 0
$LN66@Padlock_Fi:

; 573  : 			}
; 574  : 		}
; 575  : 		else {

	jmp	$LN65@Padlock_Fi
$LN70@Padlock_Fi:

; 576  : 			priorityRange			= 
; 577  : 				(float)sqrt(mpPadlockPriorityObject->XPos() * mpPadlockPriorityObject->XPos() +
; 578  : 				mpPadlockPriorityObject->YPos() * mpPadlockPriorityObject->YPos() +
; 579  : 				mpPadlockPriorityObject->ZPos() *  mpPadlockPriorityObject->ZPos())
; 580  : 			;

	mov	ecx, DWORD PTR _this$[ebp]
	mov	ecx, DWORD PTR [ecx+33804]
	call	?XPos@VuEntity@@QBEMXZ			; VuEntity::XPos
	fstp	DWORD PTR tv840[ebp]
	movss	xmm0, DWORD PTR tv840[ebp]
	mov	edx, DWORD PTR _this$[ebp]
	mov	ecx, DWORD PTR [edx+33804]
	movss	DWORD PTR tv1105[ebp], xmm0
	call	?XPos@VuEntity@@QBEMXZ			; VuEntity::XPos
	fstp	DWORD PTR tv845[ebp]
	movss	xmm0, DWORD PTR tv1105[ebp]
	mulss	xmm0, DWORD PTR tv845[ebp]
	mov	eax, DWORD PTR _this$[ebp]
	mov	ecx, DWORD PTR [eax+33804]
	movss	DWORD PTR tv1107[ebp], xmm0
	call	?YPos@VuEntity@@QBEMXZ			; VuEntity::YPos
	fstp	DWORD PTR tv850[ebp]
	movss	xmm0, DWORD PTR tv850[ebp]
	mov	ecx, DWORD PTR _this$[ebp]
	mov	ecx, DWORD PTR [ecx+33804]
	movss	DWORD PTR tv1109[ebp], xmm0
	call	?YPos@VuEntity@@QBEMXZ			; VuEntity::YPos
	fstp	DWORD PTR tv855[ebp]
	movss	xmm0, DWORD PTR tv1109[ebp]
	mulss	xmm0, DWORD PTR tv855[ebp]
	movss	xmm1, DWORD PTR tv1107[ebp]
	addss	xmm1, xmm0
	mov	edx, DWORD PTR _this$[ebp]
	mov	ecx, DWORD PTR [edx+33804]
	movss	DWORD PTR tv1111[ebp], xmm1
	call	?ZPos@VuEntity@@QBEMXZ			; VuEntity::ZPos
	fstp	DWORD PTR tv860[ebp]
	movss	xmm0, DWORD PTR tv860[ebp]
	mov	eax, DWORD PTR _this$[ebp]
	mov	ecx, DWORD PTR [eax+33804]
	movss	DWORD PTR tv1113[ebp], xmm0
	call	?ZPos@VuEntity@@QBEMXZ			; VuEntity::ZPos
	fstp	DWORD PTR tv865[ebp]
	movss	xmm0, DWORD PTR tv1113[ebp]
	mulss	xmm0, DWORD PTR tv865[ebp]
	movss	xmm1, DWORD PTR tv1111[ebp]
	addss	xmm1, xmm0
	push	ecx
	movss	DWORD PTR [esp], xmm1
	call	?SqrtSSE@@YAMM@Z			; SqrtSSE
	add	esp, 4
	fstp	DWORD PTR _priorityRange$[ebp]

; 581  : 			isPriorityPainted	= FALSE;

	mov	DWORD PTR _isPriorityPainted$[ebp], 0
$LN65@Padlock_Fi:

; 582  : 		}
; 583  : 	}
; 584  : 
; 585  : 	// Initialize pointer to the player's target list,
; 586  : 	// and get the sim object it points to
; 587  : 
; 588  : 	pObjType	= ((SimMoverClass*)otwPlatform.get())->targetList;

	mov	ecx, DWORD PTR _this$[ebp]
	add	ecx, 32336				; 00007e50H
	call	?get@?$VuBin@VSimBaseClass@@@@QBEPAVSimBaseClass@@XZ ; VuBin<SimBaseClass>::get
	mov	ecx, DWORD PTR [eax+660]
	mov	DWORD PTR _pObjType$[ebp], ecx

; 589  : 	if(pObjType) {

	cmp	DWORD PTR _pObjType$[ebp], 0
	je	SHORT $LN64@Padlock_Fi

; 590  : 		pObj		= (SimBaseClass*) pObjType->BaseData();

	mov	ecx, DWORD PTR _pObjType$[ebp]
	call	?BaseData@SimObjectType@@QAEPAVFalconEntity@@XZ ; SimObjectType::BaseData
	mov	DWORD PTR _pObj$[ebp], eax
$LN64@Padlock_Fi:

; 591  : 	}
; 592  : 	isDone	= (pObjType == NULL);

	cmp	DWORD PTR _pObjType$[ebp], 0
	jne	SHORT $LN87@Padlock_Fi
	mov	DWORD PTR tv333[ebp], 1
	jmp	SHORT $LN88@Padlock_Fi
$LN87@Padlock_Fi:
	mov	DWORD PTR tv333[ebp], 0
$LN88@Padlock_Fi:
	mov	edx, DWORD PTR tv333[ebp]
	mov	DWORD PTR _isDone$[ebp], edx

; 593  : 
; 594  : 	// If there are no objects in the target list
; 595  : 	VuListIterator				featureWalker (SimDriver.featureList);

	mov	eax, DWORD PTR ?SimDriver@@3VSimulationDriver@@A+4
	push	eax
	lea	ecx, DWORD PTR _featureWalker$[ebp]
	call	??0VuListIterator@@QAE@PAVVuLinkedList@@@Z ; VuListIterator::VuListIterator
	mov	DWORD PTR __$EHRec$[ebp+8], 0

; 596  : 	if(isDone == TRUE) {

	cmp	DWORD PTR _isDone$[ebp], 1
	jne	SHORT $LN61@Padlock_Fi

; 597  : 		// Initialize the pointer to the sim's feature list
; 598  : 		pObj				= (SimBaseClass*)featureWalker.GetFirst();

	lea	ecx, DWORD PTR _featureWalker$[ebp]
	call	?GetFirst@VuListIterator@@QAEPAVVuEntity@@XZ ; VuListIterator::GetFirst
	mov	DWORD PTR _pObj$[ebp], eax

; 599  : 
; 600  : 		// If there is something in the list
; 601  : 		if(pObj) {

	cmp	DWORD PTR _pObj$[ebp], 0
	je	SHORT $LN62@Padlock_Fi

; 602  : 
; 603  : 			// Change mode to search features
; 604  : 			searchMode	= SearchFeatures;

	mov	DWORD PTR _searchMode$[ebp], 1

; 605  : 			isDone		= FALSE;

	mov	DWORD PTR _isDone$[ebp], 0

; 606  : 		}
; 607  : 		else {

	jmp	SHORT $LN61@Padlock_Fi
$LN62@Padlock_Fi:

; 608  : 
; 609  : 			// Otherwise we're done
; 610  : 			mPadlockTimeout		= 0.0F;

	mov	ecx, DWORD PTR _this$[ebp]
	movss	xmm0, DWORD PTR __real@00000000
	movss	DWORD PTR [ecx+33820], xmm0

; 611  : 		/* VWF 2/15/99 */
; 612  : 			if(mpPadlockCandidate) {

	mov	edx, DWORD PTR _this$[ebp]
	cmp	DWORD PTR [edx+33796], 0
	je	SHORT $LN60@Padlock_Fi

; 613  : 				VuDeReferenceEntity(mpPadlockCandidate);

	mov	eax, DWORD PTR _this$[ebp]
	mov	ecx, DWORD PTR [eax+33796]
	push	ecx
	call	?VuDeReferenceEntity@@YAHPAVVuEntity@@@Z ; VuDeReferenceEntity
	add	esp, 4
$LN60@Padlock_Fi:

; 614  : 			}
; 615  : 
; 616  : 			mpPadlockCandidate	= NULL;

	mov	edx, DWORD PTR _this$[ebp]
	mov	DWORD PTR [edx+33796], 0

; 617  : 			isDone					= TRUE;

	mov	DWORD PTR _isDone$[ebp], 1
$LN61@Padlock_Fi:

; 618  : 		}
; 619  : 	}
; 620  : 
; 621  : 	// Loop until we reach the end of the list
; 622  : 	while(isDone == FALSE) {

	cmp	DWORD PTR _isDone$[ebp], 0
	jne	$LN58@Padlock_Fi

; 623  : 
; 624  : 		// Calculate or copy relative geometry
; 625  : 		if(searchMode == SearchTargets) {

	cmp	DWORD PTR _searchMode$[ebp], 0
	jne	SHORT $LN57@Padlock_Fi

; 626  : 			F4Assert(pObjType);
; 627  : 			objRange			= pObjType->localData->range;

	mov	eax, DWORD PTR _pObjType$[ebp]
	mov	ecx, DWORD PTR [eax+12]
	movss	xmm0, DWORD PTR [ecx+44]
	movss	DWORD PTR _objRange$[ebp], xmm0

; 628  : 			objAz				= pObjType->localData->az;

	mov	edx, DWORD PTR _pObjType$[ebp]
	mov	eax, DWORD PTR [edx+12]
	movss	xmm0, DWORD PTR [eax+16]
	movss	DWORD PTR _objAz$[ebp], xmm0

; 629  : 			objEl				= -pObjType->localData->el;

	mov	ecx, DWORD PTR _pObjType$[ebp]
	mov	edx, DWORD PTR [ecx+12]
	movss	xmm0, DWORD PTR [edx+28]
	xorps	xmm0, DWORD PTR __xmm@80000000800000008000000080000000
	movss	DWORD PTR _objEl$[ebp], xmm0

; 630  : 			isObjPainted	= pObjType->localData->sensorState[SensorClass::Radar] == SensorClass::SensorTrack;

	mov	eax, DWORD PTR _pObjType$[ebp]
	mov	ecx, DWORD PTR [eax+12]
	mov	edx, 4
	shl	edx, 0
	cmp	DWORD PTR [ecx+edx+192], 3
	jne	SHORT $LN89@Padlock_Fi
	mov	DWORD PTR tv374[ebp], 1
	jmp	SHORT $LN90@Padlock_Fi
$LN89@Padlock_Fi:
	mov	DWORD PTR tv374[ebp], 0
$LN90@Padlock_Fi:
	mov	eax, DWORD PTR tv374[ebp]
	mov	DWORD PTR _isObjPainted$[ebp], eax

; 631  : 		}
; 632  : 		else {

	jmp	$LN56@Padlock_Fi
$LN57@Padlock_Fi:

; 633  : 			F4Assert(pObj);
; 634  : 			CalcRelAzEl (SimDriver.GetPlayerAircraft(), pObj->XPos(), pObj->YPos(), pObj->ZPos(), &objAz, &objEl);

	lea	ecx, DWORD PTR _objEl$[ebp]
	push	ecx
	lea	edx, DWORD PTR _objAz$[ebp]
	push	edx
	mov	ecx, DWORD PTR _pObj$[ebp]
	call	?ZPos@VuEntity@@QBEMXZ			; VuEntity::ZPos
	push	ecx
	fstp	DWORD PTR [esp]
	mov	ecx, DWORD PTR _pObj$[ebp]
	call	?YPos@VuEntity@@QBEMXZ			; VuEntity::YPos
	push	ecx
	fstp	DWORD PTR [esp]
	mov	ecx, DWORD PTR _pObj$[ebp]
	call	?XPos@VuEntity@@QBEMXZ			; VuEntity::XPos
	push	ecx
	fstp	DWORD PTR [esp]
	mov	ecx, OFFSET ?SimDriver@@3VSimulationDriver@@A ; SimDriver
	call	?GetPlayerAircraft@SimulationDriver@@QBEPAVAircraftClass@@XZ ; SimulationDriver::GetPlayerAircraft
	push	eax
	call	?CalcRelAzEl@@YAXPAVSimBaseClass@@MMMPAM1@Z ; CalcRelAzEl
	add	esp, 24					; 00000018H

; 635  : 			objEl			= - objEl;

	movss	xmm0, DWORD PTR _objEl$[ebp]
	xorps	xmm0, DWORD PTR __xmm@80000000800000008000000080000000
	movss	DWORD PTR _objEl$[ebp], xmm0

; 636  : 
; 637  : 			xDiff				= pObj->XPos() - SimDriver.GetPlayerAircraft()->XPos();

	mov	ecx, DWORD PTR _pObj$[ebp]
	call	?XPos@VuEntity@@QBEMXZ			; VuEntity::XPos
	fstp	DWORD PTR tv910[ebp]
	movss	xmm0, DWORD PTR tv910[ebp]
	mov	ecx, OFFSET ?SimDriver@@3VSimulationDriver@@A ; SimDriver
	movss	DWORD PTR tv1115[ebp], xmm0
	call	?GetPlayerAircraft@SimulationDriver@@QBEPAVAircraftClass@@XZ ; SimulationDriver::GetPlayerAircraft
	mov	ecx, eax
	call	?XPos@VuEntity@@QBEMXZ			; VuEntity::XPos
	fstp	DWORD PTR tv915[ebp]
	movss	xmm0, DWORD PTR tv1115[ebp]
	subss	xmm0, DWORD PTR tv915[ebp]
	movss	DWORD PTR _xDiff$[ebp], xmm0

; 638  : 			yDiff				= pObj->YPos() - SimDriver.GetPlayerAircraft()->YPos();

	mov	ecx, DWORD PTR _pObj$[ebp]
	call	?YPos@VuEntity@@QBEMXZ			; VuEntity::YPos
	fstp	DWORD PTR tv919[ebp]
	movss	xmm0, DWORD PTR tv919[ebp]
	mov	ecx, OFFSET ?SimDriver@@3VSimulationDriver@@A ; SimDriver
	movss	DWORD PTR tv1117[ebp], xmm0
	call	?GetPlayerAircraft@SimulationDriver@@QBEPAVAircraftClass@@XZ ; SimulationDriver::GetPlayerAircraft
	mov	ecx, eax
	call	?YPos@VuEntity@@QBEMXZ			; VuEntity::YPos
	fstp	DWORD PTR tv924[ebp]
	movss	xmm0, DWORD PTR tv1117[ebp]
	subss	xmm0, DWORD PTR tv924[ebp]
	movss	DWORD PTR _yDiff$[ebp], xmm0

; 639  : 			zDiff				= pObj->ZPos() - SimDriver.GetPlayerAircraft()->ZPos();

	mov	ecx, DWORD PTR _pObj$[ebp]
	call	?ZPos@VuEntity@@QBEMXZ			; VuEntity::ZPos
	fstp	DWORD PTR tv928[ebp]
	movss	xmm0, DWORD PTR tv928[ebp]
	mov	ecx, OFFSET ?SimDriver@@3VSimulationDriver@@A ; SimDriver
	movss	DWORD PTR tv1119[ebp], xmm0
	call	?GetPlayerAircraft@SimulationDriver@@QBEPAVAircraftClass@@XZ ; SimulationDriver::GetPlayerAircraft
	mov	ecx, eax
	call	?ZPos@VuEntity@@QBEMXZ			; VuEntity::ZPos
	fstp	DWORD PTR tv933[ebp]
	movss	xmm0, DWORD PTR tv1119[ebp]
	subss	xmm0, DWORD PTR tv933[ebp]
	movss	DWORD PTR _zDiff$[ebp], xmm0

; 640  : 
; 641  : 			objRange			= (float)sqrt(xDiff * xDiff + yDiff * yDiff + zDiff * zDiff);

	movss	xmm0, DWORD PTR _xDiff$[ebp]
	mulss	xmm0, DWORD PTR _xDiff$[ebp]
	movss	xmm1, DWORD PTR _yDiff$[ebp]
	mulss	xmm1, DWORD PTR _yDiff$[ebp]
	addss	xmm0, xmm1
	movss	xmm1, DWORD PTR _zDiff$[ebp]
	mulss	xmm1, DWORD PTR _zDiff$[ebp]
	addss	xmm0, xmm1
	push	ecx
	movss	DWORD PTR [esp], xmm0
	call	?SqrtSSE@@YAMM@Z			; SqrtSSE
	add	esp, 4
	fstp	DWORD PTR _objRange$[ebp]

; 642  : 			isObjPainted	= FALSE;

	mov	DWORD PTR _isObjPainted$[ebp], 0
$LN56@Padlock_Fi:

; 643  : 		}
; 644  : 
; 645  : 		F4Assert(pObj);
; 646  : 
; 647  : 		// If this object is worth considering
; 648  : 		if(Padlock_ConsiderThisObject(pObj, isObjPainted, objRange, objAz, objEl)) {

	push	ecx
	movss	xmm0, DWORD PTR _objEl$[ebp]
	movss	DWORD PTR [esp], xmm0
	push	ecx
	movss	xmm0, DWORD PTR _objAz$[ebp]
	movss	DWORD PTR [esp], xmm0
	push	ecx
	movss	xmm0, DWORD PTR _objRange$[ebp]
	movss	DWORD PTR [esp], xmm0
	mov	eax, DWORD PTR _isObjPainted$[ebp]
	push	eax
	mov	ecx, DWORD PTR _pObj$[ebp]
	push	ecx
	mov	ecx, DWORD PTR _this$[ebp]
	call	?Padlock_ConsiderThisObject@OTWDriverClass@@AAEHPAVSimBaseClass@@HMMM@Z ; OTWDriverClass::Padlock_ConsiderThisObject
	test	eax, eax
	je	$LN28@Padlock_Fi

; 649  : 
; 650  : 			// Bascially pLoMark is the object which has the next highest priority.
; 651  : 			// Criterea to be selected for the pLoMark is:
; 652  : 			//	1) The priority of pObj is less than the priority of mpPadlockCandidate
; 653  : 			// 2) ... and one of the following:
; 654  : 			//		a) pLoMark hasn't been set yet
; 655  : 			//		b) ... or The priority of pObj is greater than the priority of pLoMark
; 656  : 			//	3) ... and on of the following
; 657  : 			//		a) There is an existing mpPadlockCandidate and pObj is not the existing mpPadlockCandidate
; 658  : 			//		b) ... or There is no existing mpPadlockCandidate and pObj is not the padlockPriorityObject.  This
; 659  : 			//				 prevents us from highlighting the padlocked object when switching to F3 padlock from some
; 660  : 			//				 view.  I.E. the padlockPriorityObject will not be highlighted during the first traversal.
; 661  : 			//		c) ... or there is no mpPadlockCandidate but pObj is the padlockPriorityObject and this is a
; 662  : 			//				 subsequent traversal.
; 663  : 
; 664  : // 2002-02-07 MODIFIED BY S.G. Priority are screwed up.
; 665  : /*			if(((attempt && mpPadlockCandidate == NULL && pObj == mpPadlockPriorityObject) ||
; 666  : 				(mpPadlockCandidate == NULL && pObj != mpPadlockPriorityObject) ||
; 667  : 				(mpPadlockCandidate != NULL && pObj != mpPadlockCandidate)) && 
; 668  : 				Padlock_DetermineRelativePriority(mpPadlockCandidate, candidateRange, isCandidatePainted, pObj, objRange, isObjPainted) && 
; 669  : 				(pLoMark == NULL || Padlock_DetermineRelativePriority(pObj, objRange, isObjPainted, pLoMark, loMarkRange, isLoMarkPainted)))
; 670  : */			int testAgainstCandidate = FALSE;

	mov	DWORD PTR _testAgainstCandidate$4[ebp], 0

; 671  : 			int testAgainstPriority = FALSE;

	mov	DWORD PTR _testAgainstPriority$3[ebp], 0

; 672  : 			int testAgainstLoMark = FALSE;

	mov	DWORD PTR _testAgainstLoMark$6[ebp], 0

; 673  : 			int testResult;
; 674  : 			int setLoMark = FALSE;

	mov	DWORD PTR _setLoMark$5[ebp], 0

; 675  : 			if ((attempt && mpPadlockCandidate == NULL && pObj == mpPadlockPriorityObject) ||	// It's a second pass and nothing is found OR
; 676  : 				(mpPadlockCandidate == NULL && pObj != mpPadlockPriorityObject) ||				// we have no candidate and the current is not the priority OR
; 677  : 				(mpPadlockCandidate != NULL && pObj != mpPadlockCandidate))	{					// we have a candidate and the current is not the candidate

	cmp	DWORD PTR _attempt$[ebp], 0
	je	SHORT $LN52@Padlock_Fi
	mov	edx, DWORD PTR _this$[ebp]
	cmp	DWORD PTR [edx+33796], 0
	jne	SHORT $LN52@Padlock_Fi
	mov	eax, DWORD PTR _this$[ebp]
	mov	ecx, DWORD PTR _pObj$[ebp]
	cmp	ecx, DWORD PTR [eax+33804]
	je	SHORT $LN53@Padlock_Fi
$LN52@Padlock_Fi:
	mov	edx, DWORD PTR _this$[ebp]
	cmp	DWORD PTR [edx+33796], 0
	jne	SHORT $LN51@Padlock_Fi
	mov	eax, DWORD PTR _this$[ebp]
	mov	ecx, DWORD PTR _pObj$[ebp]
	cmp	ecx, DWORD PTR [eax+33804]
	jne	SHORT $LN53@Padlock_Fi
$LN51@Padlock_Fi:
	mov	edx, DWORD PTR _this$[ebp]
	cmp	DWORD PTR [edx+33796], 0
	je	SHORT $LN44@Padlock_Fi
	mov	eax, DWORD PTR _this$[ebp]
	mov	ecx, DWORD PTR _pObj$[ebp]
	cmp	ecx, DWORD PTR [eax+33796]
	je	SHORT $LN44@Padlock_Fi
$LN53@Padlock_Fi:

; 678  : 
; 679  : 				if ((!mpPadlockCandidate && !mpPadlockPriorityObject) || attempt)				// We don't have a candidate and neither a priority OR we're on our second pass

	mov	edx, DWORD PTR _this$[ebp]
	cmp	DWORD PTR [edx+33796], 0
	jne	SHORT $LN48@Padlock_Fi
	mov	eax, DWORD PTR _this$[ebp]
	cmp	DWORD PTR [eax+33804], 0
	je	SHORT $LN49@Padlock_Fi
$LN48@Padlock_Fi:
	cmp	DWORD PTR _attempt$[ebp], 0
	je	SHORT $LN50@Padlock_Fi
$LN49@Padlock_Fi:

; 680  : 					testAgainstLoMark = TRUE;													//   Test against the chosen one so far

	mov	DWORD PTR _testAgainstLoMark$6[ebp], 1
	jmp	SHORT $LN44@Padlock_Fi
$LN50@Padlock_Fi:

; 681  : 				else if (mpPadlockCandidate) {													// We do have a candidate

	mov	ecx, DWORD PTR _this$[ebp]
	cmp	DWORD PTR [ecx+33796], 0
	je	SHORT $LN46@Padlock_Fi

; 682  : 					testAgainstCandidate = TRUE;												//   Test against the candidate

	mov	DWORD PTR _testAgainstCandidate$4[ebp], 1

; 683  : 					testAgainstLoMark = TRUE;													//   Test against the chosen one so far

	mov	DWORD PTR _testAgainstLoMark$6[ebp], 1
	jmp	SHORT $LN44@Padlock_Fi
$LN46@Padlock_Fi:

; 684  : 				}
; 685  : 				else if (mpPadlockPriorityObject) {												// If we don't have a canditate but we have a priority

	mov	edx, DWORD PTR _this$[ebp]
	cmp	DWORD PTR [edx+33804], 0
	je	SHORT $LN44@Padlock_Fi

; 686  : 					testAgainstPriority = TRUE;													//   Test against the priority

	mov	DWORD PTR _testAgainstPriority$3[ebp], 1

; 687  : 					testAgainstLoMark = TRUE;													//   Test against the chosen one so far

	mov	DWORD PTR _testAgainstLoMark$6[ebp], 1
$LN44@Padlock_Fi:

; 688  : 				}
; 689  : 			}
; 690  : 				
; 691  : 			if (testAgainstCandidate) {

	cmp	DWORD PTR _testAgainstCandidate$4[ebp], 0
	je	$LN39@Padlock_Fi

; 692  : 				if (tgtStep >= 0)

	mov	eax, DWORD PTR _this$[ebp]
	cmp	DWORD PTR [eax+32168], 0
	jl	SHORT $LN42@Padlock_Fi

; 693  : 					testResult = Padlock_DetermineRelativePriority(mpPadlockCandidate, candidateRange, isCandidatePainted, pObj, objRange, isObjPainted);

	mov	ecx, DWORD PTR _isObjPainted$[ebp]
	push	ecx
	push	ecx
	movss	xmm0, DWORD PTR _objRange$[ebp]
	movss	DWORD PTR [esp], xmm0
	mov	edx, DWORD PTR _pObj$[ebp]
	push	edx
	mov	eax, DWORD PTR _isCandidatePainted$[ebp]
	push	eax
	push	ecx
	movss	xmm0, DWORD PTR _candidateRange$[ebp]
	movss	DWORD PTR [esp], xmm0
	mov	ecx, DWORD PTR _this$[ebp]
	mov	edx, DWORD PTR [ecx+33796]
	push	edx
	mov	ecx, DWORD PTR _this$[ebp]
	call	?Padlock_DetermineRelativePriority@OTWDriverClass@@AAEHPAVSimBaseClass@@MH0MH@Z ; OTWDriverClass::Padlock_DetermineRelativePriority
	mov	DWORD PTR _testResult$7[ebp], eax

; 694  : 				else

	jmp	SHORT $LN41@Padlock_Fi
$LN42@Padlock_Fi:

; 695  : 					testResult = Padlock_DetermineRelativePriority(pObj, objRange, isObjPainted, mpPadlockCandidate, candidateRange, isCandidatePainted);

	mov	eax, DWORD PTR _isCandidatePainted$[ebp]
	push	eax
	push	ecx
	movss	xmm0, DWORD PTR _candidateRange$[ebp]
	movss	DWORD PTR [esp], xmm0
	mov	ecx, DWORD PTR _this$[ebp]
	mov	edx, DWORD PTR [ecx+33796]
	push	edx
	mov	eax, DWORD PTR _isObjPainted$[ebp]
	push	eax
	push	ecx
	movss	xmm0, DWORD PTR _objRange$[ebp]
	movss	DWORD PTR [esp], xmm0
	mov	ecx, DWORD PTR _pObj$[ebp]
	push	ecx
	mov	ecx, DWORD PTR _this$[ebp]
	call	?Padlock_DetermineRelativePriority@OTWDriverClass@@AAEHPAVSimBaseClass@@MH0MH@Z ; OTWDriverClass::Padlock_DetermineRelativePriority
	mov	DWORD PTR _testResult$7[ebp], eax
$LN41@Padlock_Fi:

; 696  : 				if (testResult)

	cmp	DWORD PTR _testResult$7[ebp], 0
	je	SHORT $LN40@Padlock_Fi

; 697  : 					setLoMark = TRUE;

	mov	DWORD PTR _setLoMark$5[ebp], 1

; 698  : 				else

	jmp	SHORT $LN39@Padlock_Fi
$LN40@Padlock_Fi:

; 699  : 					testAgainstLoMark = FALSE;

	mov	DWORD PTR _testAgainstLoMark$6[ebp], 0
$LN39@Padlock_Fi:

; 700  : 			}
; 701  : 
; 702  : 			if (testAgainstPriority) {

	cmp	DWORD PTR _testAgainstPriority$3[ebp], 0
	je	$LN34@Padlock_Fi

; 703  : 				if (tgtStep >= 0)

	mov	edx, DWORD PTR _this$[ebp]
	cmp	DWORD PTR [edx+32168], 0
	jl	SHORT $LN37@Padlock_Fi

; 704  : 					testResult = Padlock_DetermineRelativePriority(mpPadlockPriorityObject, priorityRange, isPriorityPainted, pObj, objRange, isObjPainted);

	mov	eax, DWORD PTR _isObjPainted$[ebp]
	push	eax
	push	ecx
	movss	xmm0, DWORD PTR _objRange$[ebp]
	movss	DWORD PTR [esp], xmm0
	mov	ecx, DWORD PTR _pObj$[ebp]
	push	ecx
	mov	edx, DWORD PTR _isPriorityPainted$[ebp]
	push	edx
	push	ecx
	movss	xmm0, DWORD PTR _priorityRange$[ebp]
	movss	DWORD PTR [esp], xmm0
	mov	eax, DWORD PTR _this$[ebp]
	mov	ecx, DWORD PTR [eax+33804]
	push	ecx
	mov	ecx, DWORD PTR _this$[ebp]
	call	?Padlock_DetermineRelativePriority@OTWDriverClass@@AAEHPAVSimBaseClass@@MH0MH@Z ; OTWDriverClass::Padlock_DetermineRelativePriority
	mov	DWORD PTR _testResult$7[ebp], eax

; 705  : 				else

	jmp	SHORT $LN36@Padlock_Fi
$LN37@Padlock_Fi:

; 706  : 					testResult = Padlock_DetermineRelativePriority(pObj, objRange, isObjPainted, mpPadlockPriorityObject, priorityRange, isPriorityPainted);

	mov	edx, DWORD PTR _isPriorityPainted$[ebp]
	push	edx
	push	ecx
	movss	xmm0, DWORD PTR _priorityRange$[ebp]
	movss	DWORD PTR [esp], xmm0
	mov	eax, DWORD PTR _this$[ebp]
	mov	ecx, DWORD PTR [eax+33804]
	push	ecx
	mov	edx, DWORD PTR _isObjPainted$[ebp]
	push	edx
	push	ecx
	movss	xmm0, DWORD PTR _objRange$[ebp]
	movss	DWORD PTR [esp], xmm0
	mov	eax, DWORD PTR _pObj$[ebp]
	push	eax
	mov	ecx, DWORD PTR _this$[ebp]
	call	?Padlock_DetermineRelativePriority@OTWDriverClass@@AAEHPAVSimBaseClass@@MH0MH@Z ; OTWDriverClass::Padlock_DetermineRelativePriority
	mov	DWORD PTR _testResult$7[ebp], eax
$LN36@Padlock_Fi:

; 707  : 				if (testResult)

	cmp	DWORD PTR _testResult$7[ebp], 0
	je	SHORT $LN35@Padlock_Fi

; 708  : 					setLoMark = TRUE;

	mov	DWORD PTR _setLoMark$5[ebp], 1

; 709  : 				else

	jmp	SHORT $LN34@Padlock_Fi
$LN35@Padlock_Fi:

; 710  : 					testAgainstLoMark = FALSE;

	mov	DWORD PTR _testAgainstLoMark$6[ebp], 0
$LN34@Padlock_Fi:

; 711  : 			}
; 712  : 
; 713  : 			if (testAgainstLoMark) {

	cmp	DWORD PTR _testAgainstLoMark$6[ebp], 0
	je	$LN29@Padlock_Fi

; 714  : 				if (tgtStep >= 0)

	mov	ecx, DWORD PTR _this$[ebp]
	cmp	DWORD PTR [ecx+32168], 0
	jl	SHORT $LN32@Padlock_Fi

; 715  : 					testResult = !pLoMark || Padlock_DetermineRelativePriority(pObj, objRange, isObjPainted, pLoMark, loMarkRange, isLoMarkPainted);

	cmp	DWORD PTR _pLoMark$[ebp], 0
	je	SHORT $LN91@Padlock_Fi
	mov	edx, DWORD PTR _isLoMarkPainted$[ebp]
	push	edx
	push	ecx
	movss	xmm0, DWORD PTR _loMarkRange$[ebp]
	movss	DWORD PTR [esp], xmm0
	mov	eax, DWORD PTR _pLoMark$[ebp]
	push	eax
	mov	ecx, DWORD PTR _isObjPainted$[ebp]
	push	ecx
	push	ecx
	movss	xmm0, DWORD PTR _objRange$[ebp]
	movss	DWORD PTR [esp], xmm0
	mov	edx, DWORD PTR _pObj$[ebp]
	push	edx
	mov	ecx, DWORD PTR _this$[ebp]
	call	?Padlock_DetermineRelativePriority@OTWDriverClass@@AAEHPAVSimBaseClass@@MH0MH@Z ; OTWDriverClass::Padlock_DetermineRelativePriority
	test	eax, eax
	jne	SHORT $LN91@Padlock_Fi
	mov	DWORD PTR tv545[ebp], 0
	jmp	SHORT $LN92@Padlock_Fi
$LN91@Padlock_Fi:
	mov	DWORD PTR tv545[ebp], 1
$LN92@Padlock_Fi:
	mov	eax, DWORD PTR tv545[ebp]
	mov	DWORD PTR _testResult$7[ebp], eax

; 716  : 				else

	jmp	SHORT $LN31@Padlock_Fi
$LN32@Padlock_Fi:

; 717  : 					testResult = !pLoMark || Padlock_DetermineRelativePriority(pLoMark, loMarkRange, isLoMarkPainted, pObj, objRange, isObjPainted);

	cmp	DWORD PTR _pLoMark$[ebp], 0
	je	SHORT $LN93@Padlock_Fi
	mov	ecx, DWORD PTR _isObjPainted$[ebp]
	push	ecx
	push	ecx
	movss	xmm0, DWORD PTR _objRange$[ebp]
	movss	DWORD PTR [esp], xmm0
	mov	edx, DWORD PTR _pObj$[ebp]
	push	edx
	mov	eax, DWORD PTR _isLoMarkPainted$[ebp]
	push	eax
	push	ecx
	movss	xmm0, DWORD PTR _loMarkRange$[ebp]
	movss	DWORD PTR [esp], xmm0
	mov	ecx, DWORD PTR _pLoMark$[ebp]
	push	ecx
	mov	ecx, DWORD PTR _this$[ebp]
	call	?Padlock_DetermineRelativePriority@OTWDriverClass@@AAEHPAVSimBaseClass@@MH0MH@Z ; OTWDriverClass::Padlock_DetermineRelativePriority
	test	eax, eax
	jne	SHORT $LN93@Padlock_Fi
	mov	DWORD PTR tv556[ebp], 0
	jmp	SHORT $LN94@Padlock_Fi
$LN93@Padlock_Fi:
	mov	DWORD PTR tv556[ebp], 1
$LN94@Padlock_Fi:
	mov	edx, DWORD PTR tv556[ebp]
	mov	DWORD PTR _testResult$7[ebp], edx
$LN31@Padlock_Fi:

; 718  : 				if (testResult)

	cmp	DWORD PTR _testResult$7[ebp], 0
	je	SHORT $LN30@Padlock_Fi

; 719  : 					setLoMark = TRUE;

	mov	DWORD PTR _setLoMark$5[ebp], 1

; 720  : 				else

	jmp	SHORT $LN29@Padlock_Fi
$LN30@Padlock_Fi:

; 721  : 					setLoMark = FALSE;

	mov	DWORD PTR _setLoMark$5[ebp], 0
$LN29@Padlock_Fi:

; 722  : 			}
; 723  : 
; 724  : 			if (setLoMark) // END OF ADDED SECTION 2002-02-07

	cmp	DWORD PTR _setLoMark$5[ebp], 0
	je	SHORT $LN28@Padlock_Fi

; 725  : 			{
; 726  : 				pLoMark				= pObj;	

	mov	eax, DWORD PTR _pObj$[ebp]
	mov	DWORD PTR _pLoMark$[ebp], eax

; 727  : 				loMarkRange			= objRange;

	movss	xmm0, DWORD PTR _objRange$[ebp]
	movss	DWORD PTR _loMarkRange$[ebp], xmm0

; 728  : 				isLoMarkPainted	= isObjPainted;

	mov	ecx, DWORD PTR _isObjPainted$[ebp]
	mov	DWORD PTR _isLoMarkPainted$[ebp], ecx
$LN28@Padlock_Fi:

; 729  : 			}
; 730  : 		}
; 731  : 
; 732  : 		// We're in the process of searching the player's target list
; 733  : 		if(searchMode == SearchTargets) {

	cmp	DWORD PTR _searchMode$[ebp], 0
	jne	SHORT $LN27@Padlock_Fi

; 734  : 
; 735  : 			// Step to the next element in the target list
; 736  : 			pObjType	= pObjType->next;

	mov	edx, DWORD PTR _pObjType$[ebp]
	mov	eax, DWORD PTR [edx+16]
	mov	DWORD PTR _pObjType$[ebp], eax

; 737  : 
; 738  : 			// If there is a next element
; 739  : 			if(pObjType) {

	cmp	DWORD PTR _pObjType$[ebp], 0
	je	SHORT $LN26@Padlock_Fi

; 740  : 
; 741  : 				// Get the pointer to the object
; 742  : 				pObj	= (SimBaseClass*) pObjType->BaseData();

	mov	ecx, DWORD PTR _pObjType$[ebp]
	call	?BaseData@SimObjectType@@QAEPAVFalconEntity@@XZ ; SimObjectType::BaseData
	mov	DWORD PTR _pObj$[ebp], eax

; 743  : 			}
; 744  : 			else {

	jmp	SHORT $LN23@Padlock_Fi
$LN26@Padlock_Fi:

; 745  : 				// Start searching the Feature list.
; 746  : 			   pObj	= (SimBaseClass*)featureWalker.GetFirst();

	lea	ecx, DWORD PTR _featureWalker$[ebp]
	call	?GetFirst@VuListIterator@@QAEPAVVuEntity@@XZ ; VuListIterator::GetFirst
	mov	DWORD PTR _pObj$[ebp], eax

; 747  : 
; 748  : 				// If there are features in the list, search the feature list
; 749  : 				if(pObj) {

	cmp	DWORD PTR _pObj$[ebp], 0
	je	SHORT $LN24@Padlock_Fi

; 750  : 					searchMode	=	SearchFeatures;

	mov	DWORD PTR _searchMode$[ebp], 1

; 751  : 				}
; 752  : 				else {

	jmp	SHORT $LN23@Padlock_Fi
$LN24@Padlock_Fi:

; 753  : 					isDone		= TRUE;

	mov	DWORD PTR _isDone$[ebp], 1

; 754  : 					pObj			= NULL;

	mov	DWORD PTR _pObj$[ebp], 0
$LN23@Padlock_Fi:

; 755  : 				}	
; 756  : 			}

	jmp	SHORT $LN20@Padlock_Fi
$LN27@Padlock_Fi:

; 757  : 		}
; 758  : 		else if(searchMode == SearchFeatures) {

	cmp	DWORD PTR _searchMode$[ebp], 1
	jne	SHORT $LN20@Padlock_Fi

; 759  : 
; 760  : 			// We're searching the feature list
; 761  : 
; 762  : 			pObj	= (SimBaseClass*)featureWalker.GetNext();

	lea	ecx, DWORD PTR _featureWalker$[ebp]
	call	?GetNext@VuListIterator@@QAEPAVVuEntity@@XZ ; VuListIterator::GetNext
	mov	DWORD PTR _pObj$[ebp], eax

; 763  : 
; 764  : 			if(pObj == NULL) {

	cmp	DWORD PTR _pObj$[ebp], 0
	jne	SHORT $LN20@Padlock_Fi

; 765  : 				searchMode = SearchTargets;

	mov	DWORD PTR _searchMode$[ebp], 0
$LN20@Padlock_Fi:

; 766  : 			}
; 767  : 		}
; 768  : 
; 769  : 
; 770  : 		// If we're at the end of the list, decide what do now.
; 771  : 
; 772  : 		if(pObj == NULL) {

	cmp	DWORD PTR _pObj$[ebp], 0
	jne	$LN1@Padlock_Fi

; 773  : 
; 774  : 			// If we reached the last lowest priority object, find the highest object
; 775  : 			// else we have a hi priority object, set it to be the padlock candidate.
; 776  : 			// Otherwise the old candidate is still retained.
; 777  : 
; 778  : 			if(pLoMark == NULL) {

	cmp	DWORD PTR _pLoMark$[ebp], 0
	jne	$LN18@Padlock_Fi

; 779  : 
; 780  : 				/* VWF 2/15/99 */
; 781  : 				if(mpPadlockCandidate) {

	mov	ecx, DWORD PTR _this$[ebp]
	cmp	DWORD PTR [ecx+33796], 0
	je	SHORT $LN17@Padlock_Fi

; 782  : 					VuDeReferenceEntity(mpPadlockCandidate);

	mov	edx, DWORD PTR _this$[ebp]
	mov	eax, DWORD PTR [edx+33796]
	push	eax
	call	?VuDeReferenceEntity@@YAHPAVVuEntity@@@Z ; VuDeReferenceEntity
	add	esp, 4
$LN17@Padlock_Fi:

; 783  : 				}
; 784  : 
; 785  : 				mpPadlockCandidate	= NULL;

	mov	ecx, DWORD PTR _this$[ebp]
	mov	DWORD PTR [ecx+33796], 0

; 786  :             mPadlockCandidateID  = FalconNullId;

	mov	edx, DWORD PTR _this$[ebp]
	mov	eax, DWORD PTR ?FalconNullId@@3VVU_ID@@A
	mov	DWORD PTR [edx+33812], eax
	mov	ecx, DWORD PTR ?FalconNullId@@3VVU_ID@@A+4
	mov	DWORD PTR [edx+33816], ecx

; 787  : 
; 788  : 				// If this was the first traversal, go to the beginning and try again
; 789  : 				if(attempt == 0) {

	cmp	DWORD PTR _attempt$[ebp], 0
	jne	$LN16@Padlock_Fi

; 790  : 
; 791  : 					attempt++;

	mov	edx, DWORD PTR _attempt$[ebp]
	add	edx, 1
	mov	DWORD PTR _attempt$[ebp], edx

; 792  : 
; 793  : 					// Initialize pointers to the head of the target list
; 794  : 					pObjType		= ((SimMoverClass*)otwPlatform.get())->targetList;

	mov	ecx, DWORD PTR _this$[ebp]
	add	ecx, 32336				; 00007e50H
	call	?get@?$VuBin@VSimBaseClass@@@@QBEPAVSimBaseClass@@XZ ; VuBin<SimBaseClass>::get
	mov	eax, DWORD PTR [eax+660]
	mov	DWORD PTR _pObjType$[ebp], eax

; 795  : 					if(pObjType) {

	cmp	DWORD PTR _pObjType$[ebp], 0
	je	SHORT $LN15@Padlock_Fi

; 796  : 						pObj			= (SimBaseClass*) pObjType->BaseData();

	mov	ecx, DWORD PTR _pObjType$[ebp]
	call	?BaseData@SimObjectType@@QAEPAVFalconEntity@@XZ ; SimObjectType::BaseData
	mov	DWORD PTR _pObj$[ebp], eax
$LN15@Padlock_Fi:

; 797  : 					}
; 798  : 					searchMode	= SearchTargets;

	mov	DWORD PTR _searchMode$[ebp], 0

; 799  : 					isDone		= (pObjType == NULL);

	cmp	DWORD PTR _pObjType$[ebp], 0
	jne	SHORT $LN95@Padlock_Fi
	mov	DWORD PTR tv613[ebp], 1
	jmp	SHORT $LN96@Padlock_Fi
$LN95@Padlock_Fi:
	mov	DWORD PTR tv613[ebp], 0
$LN96@Padlock_Fi:
	mov	ecx, DWORD PTR tv613[ebp]
	mov	DWORD PTR _isDone$[ebp], ecx

; 800  : 
; 801  : 					// If there are no objects in the target list
; 802  : 
; 803  : 					if(isDone == TRUE) {

	cmp	DWORD PTR _isDone$[ebp], 1
	jne	$LN12@Padlock_Fi

; 804  : 
; 805  : 						// Initialize the pointer to the sim's feature list
; 806  : 						pObj				= (SimBaseClass*)featureWalker.GetFirst();

	lea	ecx, DWORD PTR _featureWalker$[ebp]
	call	?GetFirst@VuListIterator@@QAEPAVVuEntity@@XZ ; VuListIterator::GetFirst
	mov	DWORD PTR _pObj$[ebp], eax

; 807  : 
; 808  : 						// If there is something in the list
; 809  : 						if(pObj) {

	cmp	DWORD PTR _pObj$[ebp], 0
	je	SHORT $LN13@Padlock_Fi

; 810  : 
; 811  : 							// Change mode to search features
; 812  : 							searchMode	= SearchFeatures;

	mov	DWORD PTR _searchMode$[ebp], 1

; 813  : 							isDone		= FALSE;

	mov	DWORD PTR _isDone$[ebp], 0

; 814  : 						}
; 815  : 						else {

	jmp	SHORT $LN12@Padlock_Fi
$LN13@Padlock_Fi:

; 816  : 
; 817  : 							// Otherwise we're done
; 818  : 							mPadlockTimeout		= 0.0F;

	mov	edx, DWORD PTR _this$[ebp]
	movss	xmm0, DWORD PTR __real@00000000
	movss	DWORD PTR [edx+33820], xmm0

; 819  : 
; 820  : 							/* VWF 2/15/99 */
; 821  : 							if(mpPadlockCandidate) {

	mov	eax, DWORD PTR _this$[ebp]
	cmp	DWORD PTR [eax+33796], 0
	je	SHORT $LN11@Padlock_Fi

; 822  : 								VuDeReferenceEntity(mpPadlockCandidate);

	mov	ecx, DWORD PTR _this$[ebp]
	mov	edx, DWORD PTR [ecx+33796]
	push	edx
	call	?VuDeReferenceEntity@@YAHPAVVuEntity@@@Z ; VuDeReferenceEntity
	add	esp, 4
$LN11@Padlock_Fi:

; 823  : 							}
; 824  : 
; 825  : 							mpPadlockCandidate	= NULL;

	mov	eax, DWORD PTR _this$[ebp]
	mov	DWORD PTR [eax+33796], 0

; 826  :                      mPadlockCandidateID  = FalconNullId;

	mov	ecx, DWORD PTR _this$[ebp]
	mov	edx, DWORD PTR ?FalconNullId@@3VVU_ID@@A
	mov	DWORD PTR [ecx+33812], edx
	mov	eax, DWORD PTR ?FalconNullId@@3VVU_ID@@A+4
	mov	DWORD PTR [ecx+33816], eax

; 827  : 							isDone					= TRUE;

	mov	DWORD PTR _isDone$[ebp], 1
$LN12@Padlock_Fi:

; 828  : 						}
; 829  : 					}
; 830  : 				}
; 831  : 				else {

	jmp	SHORT $LN9@Padlock_Fi
$LN16@Padlock_Fi:

; 832  : 					isDone	= TRUE;

	mov	DWORD PTR _isDone$[ebp], 1

; 833  : 					tgtStep	= 0;

	mov	ecx, DWORD PTR _this$[ebp]
	mov	DWORD PTR [ecx+32168], 0

; 834  : 
; 835  : 					if(mpPadlockPriorityObject == NULL) {

	mov	edx, DWORD PTR _this$[ebp]
	cmp	DWORD PTR [edx+33804], 0
	jne	SHORT $LN9@Padlock_Fi

; 836  : 						snapStatus = SNAPPING;

	mov	eax, DWORD PTR _this$[ebp]
	mov	DWORD PTR [eax+33860], 2
$LN9@Padlock_Fi:

; 837  : 					}
; 838  : 				}
; 839  : 			}						
; 840  : 			else {

	jmp	$LN1@Padlock_Fi
$LN18@Padlock_Fi:

; 841  : 
; 842  : 				// If there is no currently padlocked object
; 843  : 				if(mpPadlockPriorityObject == NULL) {

	mov	ecx, DWORD PTR _this$[ebp]
	cmp	DWORD PTR [ecx+33804], 0
	jne	SHORT $LN7@Padlock_Fi

; 844  : 					
; 845  : 					// Set the highest object as the padlock object, no candidates
; 846  : /* 2001-01-29 MODIFIED BY S.G. FOR THE NEW mpPadlockPrioritySimObject
; 847  : 					mpPadlockPriorityObject	= pLoMark;
; 848  : 					VuReferenceEntity(mpPadlockPriorityObject);
; 849  : */
; 850  : 					SetmpPadlockPriorityObject(pLoMark);

	mov	edx, DWORD PTR _pLoMark$[ebp]
	push	edx
	mov	ecx, DWORD PTR _this$[ebp]
	call	?SetmpPadlockPriorityObject@OTWDriverClass@@QAEXPAVSimBaseClass@@@Z ; OTWDriverClass::SetmpPadlockPriorityObject

; 851  : 
; 852  : 					mPadlockTimeout			= 0.0F;		// 1000 ms = 1 sec

	mov	eax, DWORD PTR _this$[ebp]
	movss	xmm0, DWORD PTR __real@00000000
	movss	DWORD PTR [eax+33820], xmm0

; 853  : 					mTDTimeout					= 50.0F;

	mov	ecx, DWORD PTR _this$[ebp]
	movss	xmm0, DWORD PTR __real@42480000
	movss	DWORD PTR [ecx+33824], xmm0

; 854  : 
; 855  : 					// We're done
; 856  : 
; 857  : 					tgtStep		= 0;

	mov	edx, DWORD PTR _this$[ebp]
	mov	DWORD PTR [edx+32168], 0

; 858  : 					isDone		= TRUE;

	mov	DWORD PTR _isDone$[ebp], 1

; 859  : 					if(mpPadlockPriorityObject == NULL) {

	mov	eax, DWORD PTR _this$[ebp]
	cmp	DWORD PTR [eax+33804], 0
	jne	SHORT $LN6@Padlock_Fi

; 860  : 						snapStatus = SNAPPING;

	mov	ecx, DWORD PTR _this$[ebp]
	mov	DWORD PTR [ecx+33860], 2
$LN6@Padlock_Fi:

; 861  : 					}
; 862  : 				}
; 863  : 				else {

	jmp	$LN1@Padlock_Fi
$LN7@Padlock_Fi:

; 864  : 
; 865  : 					// Make the next lowest object the candidate
; 866  : 					/* VWF 2/15/99 */
; 867  : 					if(mpPadlockCandidate) {

	mov	edx, DWORD PTR _this$[ebp]
	cmp	DWORD PTR [edx+33796], 0
	je	SHORT $LN4@Padlock_Fi

; 868  : 						VuDeReferenceEntity(mpPadlockCandidate);

	mov	eax, DWORD PTR _this$[ebp]
	mov	ecx, DWORD PTR [eax+33796]
	push	ecx
	call	?VuDeReferenceEntity@@YAHPAVVuEntity@@@Z ; VuDeReferenceEntity
	add	esp, 4
$LN4@Padlock_Fi:

; 869  : 					}
; 870  : 
; 871  : 					mpPadlockCandidate	= pLoMark;

	mov	edx, DWORD PTR _this$[ebp]
	mov	eax, DWORD PTR _pLoMark$[ebp]
	mov	DWORD PTR [edx+33796], eax

; 872  : 					
; 873  : 					/* VWF 2/15/99 */
; 874  : 					VuReferenceEntity(mpPadlockCandidate);

	mov	ecx, DWORD PTR _this$[ebp]
	mov	edx, DWORD PTR [ecx+33796]
	push	edx
	call	?VuReferenceEntity@@YAHPAVVuEntity@@@Z	; VuReferenceEntity
	add	esp, 4

; 875  : 
; 876  :                if (pLoMark)

	cmp	DWORD PTR _pLoMark$[ebp], 0
	je	SHORT $LN3@Padlock_Fi

; 877  :                   mPadlockCandidateID  = pLoMark->Id();

	lea	eax, DWORD PTR $T2[ebp]
	push	eax
	mov	ecx, DWORD PTR _pLoMark$[ebp]
	call	?Id@VuEntity@@QBE?AVVU_ID@@XZ		; VuEntity::Id
	mov	ecx, DWORD PTR [eax]
	mov	edx, DWORD PTR [eax+4]
	mov	eax, DWORD PTR _this$[ebp]
	mov	DWORD PTR [eax+33812], ecx
	mov	DWORD PTR [eax+33816], edx

; 878  :                else

	jmp	SHORT $LN2@Padlock_Fi
$LN3@Padlock_Fi:

; 879  :                   mPadlockCandidateID  = FalconNullId;

	mov	ecx, DWORD PTR _this$[ebp]
	mov	edx, DWORD PTR ?FalconNullId@@3VVU_ID@@A
	mov	DWORD PTR [ecx+33812], edx
	mov	eax, DWORD PTR ?FalconNullId@@3VVU_ID@@A+4
	mov	DWORD PTR [ecx+33816], eax
$LN2@Padlock_Fi:

; 880  : 
; 881  : 
; 882  : 					// Set the timer
; 883  : 					mPadlockTimeout		= 1.0F;		// 1000 ms = 1 sec

	mov	ecx, DWORD PTR _this$[ebp]
	movss	xmm0, DWORD PTR __real@3f800000
	movss	DWORD PTR [ecx+33820], xmm0

; 884  : 
; 885  : 					// We're done
; 886  : 					tgtStep		= 0;

	mov	edx, DWORD PTR _this$[ebp]
	mov	DWORD PTR [edx+32168], 0

; 887  : 					isDone		= TRUE;

	mov	DWORD PTR _isDone$[ebp], 1

; 888  : 
; 889  : 					if(mpPadlockPriorityObject == NULL) {

	mov	eax, DWORD PTR _this$[ebp]
	cmp	DWORD PTR [eax+33804], 0
	jne	SHORT $LN1@Padlock_Fi

; 890  : 						snapStatus = SNAPPING;

	mov	ecx, DWORD PTR _this$[ebp]
	mov	DWORD PTR [ecx+33860], 2
$LN1@Padlock_Fi:

; 891  : 					}
; 892  : 
; 893  : 				}
; 894  : 			}
; 895  : 		}
; 896  : 	}

	jmp	$LN61@Padlock_Fi
$LN58@Padlock_Fi:

; 897  : }

	mov	DWORD PTR __$EHRec$[ebp+8], -1
	lea	ecx, DWORD PTR _featureWalker$[ebp]
	call	??1VuListIterator@@UAE@XZ		; VuListIterator::~VuListIterator
$LN81@Padlock_Fi:
	mov	ecx, DWORD PTR __$EHRec$[ebp]
	mov	DWORD PTR fs:0, ecx
	pop	ecx
	mov	esp, ebp
	pop	ebp
	ret	4
_TEXT	ENDS
text$x	SEGMENT
__unwindfunclet$?Padlock_FindRealisticPriority@OTWDriverClass@@AAEXH@Z$0:
	lea	ecx, DWORD PTR _featureWalker$[ebp]
	jmp	??1VuListIterator@@UAE@XZ		; VuListIterator::~VuListIterator
__ehhandler$?Padlock_FindRealisticPriority@OTWDriverClass@@AAEXH@Z:
	mov	edx, DWORD PTR [esp+8]
	lea	eax, DWORD PTR [edx+12]
	mov	ecx, DWORD PTR [edx-280]
	xor	ecx, eax
	call	@__security_check_cookie@4
	mov	eax, OFFSET __ehfuncinfo$?Padlock_FindRealisticPriority@OTWDriverClass@@AAEXH@Z
	jmp	___CxxFrameHandler3
text$x	ENDS
?Padlock_FindRealisticPriority@OTWDriverClass@@AAEXH@Z ENDP ; OTWDriverClass::Padlock_FindRealisticPriority
; Function compile flags: /Odtp
; File c:\users\zhitao li\documents\visual studio 2012\projects\freefalcon\sim\otwdrive\padlock.cpp
_TEXT	SEGMENT
_this$ = -4						; size = 4
_doFeatures$ = 8					; size = 4
?Padlock_FindNextPriority@OTWDriverClass@@AAEXH@Z PROC	; OTWDriverClass::Padlock_FindNextPriority
; _this$ = ecx

; 91   : {

	push	ebp
	mov	ebp, esp
	push	ecx
	mov	DWORD PTR _this$[ebp], ecx

; 92   : 	if(PlayerOptions.GetPadlockMode() == PDRealistic) {

	mov	ecx, OFFSET ?PlayerOptions@@3VPlayerOptionsClass@@A ; PlayerOptions
	call	?GetPadlockMode@PlayerOptionsClass@@QAEHXZ ; PlayerOptionsClass::GetPadlockMode
	cmp	eax, 1
	jne	SHORT $LN2@Padlock_Fi

; 93   : 		Padlock_FindRealisticPriority(doFeatures);

	mov	eax, DWORD PTR _doFeatures$[ebp]
	push	eax
	mov	ecx, DWORD PTR _this$[ebp]
	call	?Padlock_FindRealisticPriority@OTWDriverClass@@AAEXH@Z ; OTWDriverClass::Padlock_FindRealisticPriority

; 94   : 	}
; 95   : 	else {

	jmp	SHORT $LN3@Padlock_Fi
$LN2@Padlock_Fi:

; 96   : 		Padlock_FindEnhancedPriority(doFeatures);

	mov	ecx, DWORD PTR _doFeatures$[ebp]
	push	ecx
	mov	ecx, DWORD PTR _this$[ebp]
	call	?Padlock_FindEnhancedPriority@OTWDriverClass@@AAEXH@Z ; OTWDriverClass::Padlock_FindEnhancedPriority
$LN3@Padlock_Fi:

; 97   : 	}
; 98   : }

	mov	esp, ebp
	pop	ebp
	ret	4
?Padlock_FindNextPriority@OTWDriverClass@@AAEXH@Z ENDP	; OTWDriverClass::Padlock_FindNextPriority
_TEXT	ENDS
; Function compile flags: /Odtp
; File c:\users\zhitao li\documents\visual studio 2012\projects\freefalcon\sim\otwdrive\padlock.cpp
_TEXT	SEGMENT
$T2 = -48						; size = 4
tv254 = -44						; size = 4
$T3 = -40						; size = 4
tv199 = -36						; size = 4
_vc$4 = -32						; size = 4
tv144 = -28						; size = 4
_theMissile$5 = -24					; size = 4
_campBase$6 = -20					; size = 4
_this$ = -16						; size = 4
__$EHRec$ = -12						; size = 12
_newObject$ = 8						; size = 4
?SetmpPadlockPriorityObject@OTWDriverClass@@QAEXPAVSimBaseClass@@@Z PROC ; OTWDriverClass::SetmpPadlockPriorityObject
; _this$ = ecx

; 2038 : {

	push	ebp
	mov	ebp, esp
	push	-1
	push	__ehhandler$?SetmpPadlockPriorityObject@OTWDriverClass@@QAEXPAVSimBaseClass@@@Z
	mov	eax, DWORD PTR fs:0
	push	eax
	sub	esp, 36					; 00000024H
	mov	eax, DWORD PTR ___security_cookie
	xor	eax, ebp
	push	eax
	lea	eax, DWORD PTR __$EHRec$[ebp]
	mov	DWORD PTR fs:0, eax
	mov	DWORD PTR _this$[ebp], ecx

; 2039 : 
; 2040 : 	// Only do if the object is different than the original one
; 2041 : 	if (mpPadlockPriorityObject != newObject) {

	mov	eax, DWORD PTR _this$[ebp]
	mov	ecx, DWORD PTR [eax+33804]
	cmp	ecx, DWORD PTR _newObject$[ebp]
	je	$LN15@SetmpPadlo

; 2042 : 		// If it already contain something, dereference it first
; 2043 : 		if (mpPadlockPriorityObject)

	mov	edx, DWORD PTR _this$[ebp]
	cmp	DWORD PTR [edx+33804], 0
	je	SHORT $LN13@SetmpPadlo

; 2044 : 			VuDeReferenceEntity(mpPadlockPriorityObject);

	mov	eax, DWORD PTR _this$[ebp]
	mov	ecx, DWORD PTR [eax+33804]
	push	ecx
	call	?VuDeReferenceEntity@@YAHPAVVuEntity@@@Z ; VuDeReferenceEntity
	add	esp, 4
$LN13@SetmpPadlo:

; 2045 : 
; 2046 : 		// Set it to the new object (even if NULL)
; 2047 : 		mpPadlockPriorityObject = (SimBaseClass*) newObject;

	mov	edx, DWORD PTR _this$[ebp]
	mov	eax, DWORD PTR _newObject$[ebp]
	mov	DWORD PTR [edx+33804], eax

; 2048 : 
; 2049 : 		// Unless NULL, reference the new object
; 2050 : 		if (mpPadlockPriorityObject) {

	mov	ecx, DWORD PTR _this$[ebp]
	cmp	DWORD PTR [ecx+33804], 0
	je	$LN12@SetmpPadlo

; 2051 : 			VuReferenceEntity(mpPadlockPriorityObject);

	mov	edx, DWORD PTR _this$[ebp]
	mov	eax, DWORD PTR [edx+33804]
	push	eax
	call	?VuReferenceEntity@@YAHPAVVuEntity@@@Z	; VuReferenceEntity
	add	esp, 4

; 2052 : 
; 2053 : 			// 2002-02-25 ADDED BY S.G. Tell its campaign object it's been visually identified by the player
; 2054 : 			CampBaseClass *campBase;
; 2055 : 
; 2056 : 			if (otwPlatform) {

	mov	ecx, DWORD PTR _this$[ebp]
	add	ecx, 32336				; 00007e50H
	call	??B?$VuBin@VSimBaseClass@@@@QBE_NXZ	; VuBin<SimBaseClass>::operator bool
	movzx	ecx, al
	test	ecx, ecx
	je	SHORT $LN12@SetmpPadlo

; 2057 : 				if (mpPadlockPriorityObject->IsSim())

	mov	edx, DWORD PTR _this$[ebp]
	mov	ecx, DWORD PTR [edx+33804]
	call	?IsSim@FalconEntity@@QAEHXZ		; FalconEntity::IsSim
	test	eax, eax
	je	SHORT $LN10@SetmpPadlo

; 2058 : 					campBase = mpPadlockPriorityObject->GetCampaignObject();

	mov	eax, DWORD PTR _this$[ebp]
	mov	ecx, DWORD PTR [eax+33804]
	call	?GetCampaignObject@SimBaseClass@@QAEPAVCampBaseClass@@XZ ; SimBaseClass::GetCampaignObject
	mov	DWORD PTR _campBase$6[ebp], eax

; 2059 : 				else

	jmp	SHORT $LN9@SetmpPadlo
$LN10@SetmpPadlo:

; 2060 : 					campBase = (CampBaseClass *)mpPadlockPriorityObject;

	mov	ecx, DWORD PTR _this$[ebp]
	mov	edx, DWORD PTR [ecx+33804]
	mov	DWORD PTR _campBase$6[ebp], edx
$LN9@SetmpPadlo:

; 2061 : 
; 2062 : 				if (campBase)

	cmp	DWORD PTR _campBase$6[ebp], 0
	je	SHORT $LN12@SetmpPadlo

; 2063 : 					campBase->SetSpotted(otwPlatform->GetTeam(), TheCampaign.CurrentTime, 1);

	mov	ecx, DWORD PTR _this$[ebp]
	add	ecx, 32336				; 00007e50H
	call	??C?$VuBin@VSimBaseClass@@@@QBEPAVSimBaseClass@@XZ ; VuBin<SimBaseClass>::operator->
	mov	DWORD PTR tv144[ebp], eax
	push	1
	mov	eax, DWORD PTR ?TheCampaign@@3VCampaignClass@@A
	push	eax
	mov	ecx, DWORD PTR tv144[ebp]
	mov	edx, DWORD PTR [ecx]
	mov	ecx, DWORD PTR tv144[ebp]
	mov	eax, DWORD PTR [edx+116]
	call	eax
	movzx	ecx, al
	push	ecx
	mov	ecx, DWORD PTR _campBase$6[ebp]
	call	?SetSpotted@CampBaseClass@@QAEXEKH@Z	; CampBaseClass::SetSpotted
$LN12@SetmpPadlo:

; 2064 : 			}
; 2065 : 			// END OF ADDED SECTION 2002-02-25
; 2066 : 
; 2067 : 		}
; 2068 : 
; 2069 : 		// *** The remaining of the function is for the new simObjectType ***
; 2070 : 
; 2071 : 		// If we already have a sim object set...
; 2072 : 		if (mfdVirtualDisplay) {

	mov	edx, DWORD PTR _this$[ebp]
	cmp	DWORD PTR [edx+32344], 0
	je	$LN7@SetmpPadlo

; 2073 : 			// If the base of the sim object is equal to the new object, we're still fine
; 2074 : 			if (((SimObjectType *)mfdVirtualDisplay)->BaseData() == mpPadlockPriorityObject)

	mov	eax, DWORD PTR _this$[ebp]
	mov	ecx, DWORD PTR [eax+32344]
	call	?BaseData@SimObjectType@@QAEPAVFalconEntity@@XZ ; SimObjectType::BaseData
	mov	ecx, DWORD PTR _this$[ebp]
	cmp	eax, DWORD PTR [ecx+33804]
	jne	SHORT $LN6@SetmpPadlo

; 2075 : 				return;

	jmp	$LN15@SetmpPadlo
$LN6@SetmpPadlo:

; 2076 : 
; 2077 : 			// Otherwise, dereference and null it first
; 2078 : 			((SimObjectType *)mfdVirtualDisplay)->Release(  );

	mov	edx, DWORD PTR _this$[ebp]
	mov	ecx, DWORD PTR [edx+32344]
	call	?Release@SimObjectType@@QAEXXZ		; SimObjectType::Release

; 2079 : 			mfdVirtualDisplay = NULL;

	mov	eax, DWORD PTR _this$[ebp]
	mov	DWORD PTR [eax+32344], 0

; 2080 : 			// 2001-08-06
; 2081 : 			if (otwPlatform) // JB 011004 Possible CTD fix

	mov	ecx, DWORD PTR _this$[ebp]
	add	ecx, 32336				; 00007e50H
	call	??B?$VuBin@VSimBaseClass@@@@QBE_NXZ	; VuBin<SimBaseClass>::operator bool
	movzx	ecx, al
	test	ecx, ecx
	je	$LN7@SetmpPadlo

; 2082 : 			{
; 2083 : 				VehicleClassDataType	*vc	= (VehicleClassDataType *)Falcon4ClassTable[otwPlatform->Type() - VU_LAST_ENTITY_TYPE].dataPtr;

	mov	ecx, DWORD PTR _this$[ebp]
	add	ecx, 32336				; 00007e50H
	call	??C?$VuBin@VSimBaseClass@@@@QBEPAVSimBaseClass@@XZ ; VuBin<SimBaseClass>::operator->
	mov	ecx, eax
	call	?Type@VuEntity@@QBEGXZ			; VuEntity::Type
	movzx	edx, ax
	sub	edx, 100				; 00000064H
	imul	edx, 81					; 00000051H
	mov	eax, DWORD PTR ?Falcon4ClassTable@@3PAUFalcon4EntityClassType@@A ; Falcon4ClassTable
	mov	ecx, DWORD PTR [eax+edx+77]
	mov	DWORD PTR _vc$4[ebp], ecx

; 2084 : 				if (vc && vc->Flags & 0x20000000) {

	cmp	DWORD PTR _vc$4[ebp], 0
	je	SHORT $LN7@SetmpPadlo
	mov	edx, DWORD PTR _vc$4[ebp]
	mov	eax, DWORD PTR [edx+4]
	and	eax, 536870912				; 20000000H
	je	SHORT $LN7@SetmpPadlo

; 2085 : 					MissileClass* theMissile;
; 2086 : 					theMissile = (MissileClass*)(SimDriver.GetPlayerAircraft()->Sms->GetCurrentWeapon());

	mov	ecx, OFFSET ?SimDriver@@3VSimulationDriver@@A ; SimDriver
	call	?GetPlayerAircraft@SimulationDriver@@QBEPAVAircraftClass@@XZ ; SimulationDriver::GetPlayerAircraft
	mov	ecx, DWORD PTR [eax+940]
	mov	DWORD PTR tv199[ebp], ecx
	mov	edx, DWORD PTR tv199[ebp]
	mov	eax, DWORD PTR [edx]
	mov	ecx, DWORD PTR tv199[ebp]
	mov	edx, DWORD PTR [eax+12]
	call	edx
	mov	DWORD PTR _theMissile$5[ebp], eax

; 2087 : 
; 2088 : 					// First, make sure we have a Aim9 in uncage mode selected...
; 2089 : 					if (SimDriver.GetPlayerAircraft()->Sms->curWeaponType == wtAim9) {

	mov	ecx, OFFSET ?SimDriver@@3VSimulationDriver@@A ; SimDriver
	call	?GetPlayerAircraft@SimulationDriver@@QBEPAVAircraftClass@@XZ ; SimulationDriver::GetPlayerAircraft
	mov	eax, DWORD PTR [eax+940]
	cmp	DWORD PTR [eax+148], 1
	jne	SHORT $LN7@SetmpPadlo

; 2090 : 						if (theMissile && theMissile->isCaged == 0) {

	cmp	DWORD PTR _theMissile$5[ebp], 0
	je	SHORT $LN7@SetmpPadlo
	mov	ecx, DWORD PTR _theMissile$5[ebp]
	cmp	DWORD PTR [ecx+728], 0
	jne	SHORT $LN7@SetmpPadlo

; 2091 : 							theMissile->DropTarget();

	mov	ecx, DWORD PTR _theMissile$5[ebp]
	call	?DropTarget@MissileClass@@QAEXXZ	; MissileClass::DropTarget
$LN7@SetmpPadlo:

; 2092 : 						}
; 2093 : 					}
; 2094 : 				}
; 2095 : 			}
; 2096 : 		}
; 2097 : 
; 2098 : 		// If mpPadlockPriorityObject is not NULL, is Sim base, is not us and is not a weapon, we must create a sim object for it
; 2099 : 		if (mpPadlockPriorityObject && mpPadlockPriorityObject->IsSim() && 
; 2100 : 			(otwPlatform.get() !=  mpPadlockPriorityObject) && !mpPadlockPriorityObject->IsWeapon()) 

	mov	edx, DWORD PTR _this$[ebp]
	cmp	DWORD PTR [edx+33804], 0
	je	$LN15@SetmpPadlo
	mov	eax, DWORD PTR _this$[ebp]
	mov	ecx, DWORD PTR [eax+33804]
	call	?IsSim@FalconEntity@@QAEHXZ		; FalconEntity::IsSim
	test	eax, eax
	je	$LN15@SetmpPadlo
	mov	ecx, DWORD PTR _this$[ebp]
	add	ecx, 32336				; 00007e50H
	call	?get@?$VuBin@VSimBaseClass@@@@QBEPAVSimBaseClass@@XZ ; VuBin<SimBaseClass>::get
	mov	ecx, DWORD PTR _this$[ebp]
	cmp	eax, DWORD PTR [ecx+33804]
	je	$LN15@SetmpPadlo
	mov	edx, DWORD PTR _this$[ebp]
	mov	eax, DWORD PTR [edx+33804]
	mov	ecx, DWORD PTR _this$[ebp]
	mov	edx, DWORD PTR [eax]
	mov	ecx, DWORD PTR [ecx+33804]
	mov	eax, DWORD PTR [edx+204]
	call	eax
	test	eax, eax
	jne	SHORT $LN15@SetmpPadlo

; 2101 : 		{
; 2102 : //#ifdef DEBUG
; 2103 : //			//simObjectPtr = new SimObjectType (OBJ_TAG, NULL, mpPadlockPriorityObject);
; 2104 : //#else
; 2105 : 			simObjectPtr = new SimObjectType (newObject);

	push	24					; 00000018H
	call	??2@YAPAXI@Z				; operator new
	add	esp, 4
	mov	DWORD PTR $T3[ebp], eax
	mov	DWORD PTR __$EHRec$[ebp+8], 0
	cmp	DWORD PTR $T3[ebp], 0
	je	SHORT $LN17@SetmpPadlo
	mov	ecx, DWORD PTR _newObject$[ebp]
	push	ecx
	mov	ecx, DWORD PTR $T3[ebp]
	call	??0SimObjectType@@QAE@PAVFalconEntity@@@Z ; SimObjectType::SimObjectType
	mov	DWORD PTR tv254[ebp], eax
	jmp	SHORT $LN18@SetmpPadlo
$LN17@SetmpPadlo:
	mov	DWORD PTR tv254[ebp], 0
$LN18@SetmpPadlo:
	mov	edx, DWORD PTR tv254[ebp]
	mov	DWORD PTR $T2[ebp], edx
	mov	DWORD PTR __$EHRec$[ebp+8], -1
	mov	eax, DWORD PTR _this$[ebp]
	mov	ecx, DWORD PTR $T2[ebp]
	mov	DWORD PTR [eax+33808], ecx

; 2106 : //#endif
; 2107 : 
; 2108 : 			// And assign it and reference it
; 2109 : 			mfdVirtualDisplay = (Render2D*)simObjectPtr;

	mov	edx, DWORD PTR _this$[ebp]
	mov	eax, DWORD PTR _this$[ebp]
	mov	ecx, DWORD PTR [eax+33808]
	mov	DWORD PTR [edx+32344], ecx

; 2110 : 			((SimObjectType *)mfdVirtualDisplay)->Reference(  );

	mov	edx, DWORD PTR _this$[ebp]
	mov	ecx, DWORD PTR [edx+32344]
	call	?Reference@SimObjectType@@QAEXXZ	; SimObjectType::Reference
$LN15@SetmpPadlo:

; 2111 : 		}
; 2112 : 
; 2113 : 	}
; 2114 : }

	mov	ecx, DWORD PTR __$EHRec$[ebp]
	mov	DWORD PTR fs:0, ecx
	pop	ecx
	mov	esp, ebp
	pop	ebp
	ret	4
_TEXT	ENDS
text$x	SEGMENT
__unwindfunclet$?SetmpPadlockPriorityObject@OTWDriverClass@@QAEXPAVSimBaseClass@@@Z$0:
	mov	eax, DWORD PTR $T3[ebp]
	push	eax
	call	??3@YAXPAX@Z				; operator delete
	pop	ecx
	ret	0
__ehhandler$?SetmpPadlockPriorityObject@OTWDriverClass@@QAEXPAVSimBaseClass@@@Z:
	mov	edx, DWORD PTR [esp+8]
	lea	eax, DWORD PTR [edx+12]
	mov	ecx, DWORD PTR [edx-40]
	xor	ecx, eax
	call	@__security_check_cookie@4
	mov	eax, OFFSET __ehfuncinfo$?SetmpPadlockPriorityObject@OTWDriverClass@@QAEXPAVSimBaseClass@@@Z
	jmp	___CxxFrameHandler3
text$x	ENDS
?SetmpPadlockPriorityObject@OTWDriverClass@@QAEXPAVSimBaseClass@@@Z ENDP ; OTWDriverClass::SetmpPadlockPriorityObject
; Function compile flags: /Odtp
; File c:\users\zhitao li\documents\visual studio 2012\projects\freefalcon\vu2\include\vu_templates.h
;	COMDAT ?get@?$VuBin@VSimBaseClass@@@@QBEPAVSimBaseClass@@XZ
_TEXT	SEGMENT
_this$ = -4						; size = 4
?get@?$VuBin@VSimBaseClass@@@@QBEPAVSimBaseClass@@XZ PROC ; VuBin<SimBaseClass>::get, COMDAT
; _this$ = ecx

; 55   : 	E *get() const{

	push	ebp
	mov	ebp, esp
	push	ecx
	mov	DWORD PTR _this$[ebp], ecx

; 56   : 		return e;

	mov	eax, DWORD PTR _this$[ebp]
	mov	eax, DWORD PTR [eax]

; 57   : 	}

	mov	esp, ebp
	pop	ebp
	ret	0
?get@?$VuBin@VSimBaseClass@@@@QBEPAVSimBaseClass@@XZ ENDP ; VuBin<SimBaseClass>::get
_TEXT	ENDS
; Function compile flags: /Odtp
; File c:\users\zhitao li\documents\visual studio 2012\projects\freefalcon\vu2\include\vu_templates.h
;	COMDAT ??C?$VuBin@VSimBaseClass@@@@QBEPAVSimBaseClass@@XZ
_TEXT	SEGMENT
_this$ = -4						; size = 4
??C?$VuBin@VSimBaseClass@@@@QBEPAVSimBaseClass@@XZ PROC	; VuBin<SimBaseClass>::operator->, COMDAT
; _this$ = ecx

; 50   : 	E *operator->() const {

	push	ebp
	mov	ebp, esp
	push	ecx
	mov	DWORD PTR _this$[ebp], ecx

; 51   : 		return e;

	mov	eax, DWORD PTR _this$[ebp]
	mov	eax, DWORD PTR [eax]

; 52   : 	}

	mov	esp, ebp
	pop	ebp
	ret	0
??C?$VuBin@VSimBaseClass@@@@QBEPAVSimBaseClass@@XZ ENDP	; VuBin<SimBaseClass>::operator->
_TEXT	ENDS
; Function compile flags: /Odtp
; File c:\users\zhitao li\documents\visual studio 2012\projects\freefalcon\vu2\include\vu_templates.h
;	COMDAT ??B?$VuBin@VSimBaseClass@@@@QBE_NXZ
_TEXT	SEGMENT
_this$ = -8						; size = 4
tv66 = -4						; size = 4
??B?$VuBin@VSimBaseClass@@@@QBE_NXZ PROC		; VuBin<SimBaseClass>::operator bool, COMDAT
; _this$ = ecx

; 40   : 	operator bool() const{

	push	ebp
	mov	ebp, esp
	sub	esp, 8
	mov	DWORD PTR _this$[ebp], ecx

; 41   : 		return e != NULL;

	mov	eax, DWORD PTR _this$[ebp]
	cmp	DWORD PTR [eax], 0
	je	SHORT $LN3@operator
	mov	DWORD PTR tv66[ebp], 1
	jmp	SHORT $LN4@operator
$LN3@operator:
	mov	DWORD PTR tv66[ebp], 0
$LN4@operator:
	mov	al, BYTE PTR tv66[ebp]

; 42   : 	}

	mov	esp, ebp
	pop	ebp
	ret	0
??B?$VuBin@VSimBaseClass@@@@QBE_NXZ ENDP		; VuBin<SimBaseClass>::operator bool
_TEXT	ENDS
; Function compile flags: /Odtp
; File c:\users\zhitao li\documents\visual studio 2012\projects\freefalcon\vu2\include\vu_templates.h
;	COMDAT ?get@?$VuBin@VFalconEntity@@@@QBEPAVFalconEntity@@XZ
_TEXT	SEGMENT
_this$ = -4						; size = 4
?get@?$VuBin@VFalconEntity@@@@QBEPAVFalconEntity@@XZ PROC ; VuBin<FalconEntity>::get, COMDAT
; _this$ = ecx

; 55   : 	E *get() const{

	push	ebp
	mov	ebp, esp
	push	ecx
	mov	DWORD PTR _this$[ebp], ecx

; 56   : 		return e;

	mov	eax, DWORD PTR _this$[ebp]
	mov	eax, DWORD PTR [eax]

; 57   : 	}

	mov	esp, ebp
	pop	ebp
	ret	0
?get@?$VuBin@VFalconEntity@@@@QBEPAVFalconEntity@@XZ ENDP ; VuBin<FalconEntity>::get
_TEXT	ENDS
; Function compile flags: /Odtp
; File c:\users\zhitao li\documents\visual studio 2012\projects\freefalcon\sim\include\simbase.h
;	COMDAT ?GetCampaignObject@SimBaseClass@@QAEPAVCampBaseClass@@XZ
_TEXT	SEGMENT
_this$ = -4						; size = 4
?GetCampaignObject@SimBaseClass@@QAEPAVCampBaseClass@@XZ PROC ; SimBaseClass::GetCampaignObject, COMDAT
; _this$ = ecx

; 212  : 	CampBaseClass *GetCampaignObject (void) { return campaignObject.get(); }

	push	ebp
	mov	ebp, esp
	push	ecx
	mov	DWORD PTR _this$[ebp], ecx
	mov	ecx, DWORD PTR _this$[ebp]
	add	ecx, 144				; 00000090H
	call	?get@?$VuBin@VCampBaseClass@@@@QBEPAVCampBaseClass@@XZ ; VuBin<CampBaseClass>::get
	mov	esp, ebp
	pop	ebp
	ret	0
?GetCampaignObject@SimBaseClass@@QAEPAVCampBaseClass@@XZ ENDP ; SimBaseClass::GetCampaignObject
_TEXT	ENDS
; Function compile flags: /Odtp
; File c:\users\zhitao li\documents\visual studio 2012\projects\freefalcon\vu2\include\vu_templates.h
;	COMDAT ?get@?$VuBin@VCampBaseClass@@@@QBEPAVCampBaseClass@@XZ
_TEXT	SEGMENT
_this$ = -4						; size = 4
?get@?$VuBin@VCampBaseClass@@@@QBEPAVCampBaseClass@@XZ PROC ; VuBin<CampBaseClass>::get, COMDAT
; _this$ = ecx

; 55   : 	E *get() const{

	push	ebp
	mov	ebp, esp
	push	ecx
	mov	DWORD PTR _this$[ebp], ecx

; 56   : 		return e;

	mov	eax, DWORD PTR _this$[ebp]
	mov	eax, DWORD PTR [eax]

; 57   : 	}

	mov	esp, ebp
	pop	ebp
	ret	0
?get@?$VuBin@VCampBaseClass@@@@QBEPAVCampBaseClass@@XZ ENDP ; VuBin<CampBaseClass>::get
_TEXT	ENDS
; Function compile flags: /Odtp
; File c:\users\zhitao li\documents\visual studio 2012\projects\freefalcon\falclib\include\playerop.h
;	COMDAT ?GetPadlockMode@PlayerOptionsClass@@QAEHXZ
_TEXT	SEGMENT
_this$ = -4						; size = 4
?GetPadlockMode@PlayerOptionsClass@@QAEHXZ PROC		; PlayerOptionsClass::GetPadlockMode, COMDAT
; _this$ = ecx

; 145  : 	int GetPadlockMode (void)								{ return SimPadlockMode; };

	push	ebp
	mov	ebp, esp
	push	ecx
	mov	DWORD PTR _this$[ebp], ecx
	mov	eax, DWORD PTR _this$[ebp]
	mov	eax, DWORD PTR [eax+76]
	mov	esp, ebp
	pop	ebp
	ret	0
?GetPadlockMode@PlayerOptionsClass@@QAEHXZ ENDP		; PlayerOptionsClass::GetPadlockMode
_TEXT	ENDS
; Function compile flags: /Odtp
;	COMDAT ??_G_System_error_category@std@@UAEPAXI@Z
_TEXT	SEGMENT
_this$ = -4						; size = 4
___flags$ = 8						; size = 4
??_G_System_error_category@std@@UAEPAXI@Z PROC		; std::_System_error_category::`scalar deleting destructor', COMDAT
; _this$ = ecx
	push	ebp
	mov	ebp, esp
	push	ecx
	mov	DWORD PTR _this$[ebp], ecx
	mov	ecx, DWORD PTR _this$[ebp]
	call	??1_System_error_category@std@@UAE@XZ
	mov	eax, DWORD PTR ___flags$[ebp]
	and	eax, 1
	je	SHORT $LN1@scalar
	mov	ecx, DWORD PTR _this$[ebp]
	push	ecx
	call	??3@YAXPAX@Z				; operator delete
	add	esp, 4
$LN1@scalar:
	mov	eax, DWORD PTR _this$[ebp]
	mov	esp, ebp
	pop	ebp
	ret	4
??_G_System_error_category@std@@UAEPAXI@Z ENDP		; std::_System_error_category::`scalar deleting destructor'
_TEXT	ENDS
; Function compile flags: /Odtp
;	COMDAT ??1_System_error_category@std@@UAE@XZ
_TEXT	SEGMENT
_this$ = -4						; size = 4
??1_System_error_category@std@@UAE@XZ PROC		; std::_System_error_category::~_System_error_category, COMDAT
; _this$ = ecx
	push	ebp
	mov	ebp, esp
	push	ecx
	mov	DWORD PTR _this$[ebp], ecx
	mov	ecx, DWORD PTR _this$[ebp]
	call	??1_Generic_error_category@std@@UAE@XZ
	mov	esp, ebp
	pop	ebp
	ret	0
??1_System_error_category@std@@UAE@XZ ENDP		; std::_System_error_category::~_System_error_category
_TEXT	ENDS
; Function compile flags: /Odtp
; File c:\program files (x86)\microsoft visual studio 11.0\vc\include\system_error
;	COMDAT ?default_error_condition@_System_error_category@std@@UBE?AVerror_condition@2@H@Z
_TEXT	SEGMENT
_this$ = -4						; size = 4
___$ReturnUdt$ = 8					; size = 4
__Errval$ = 12						; size = 4
?default_error_condition@_System_error_category@std@@UBE?AVerror_condition@2@H@Z PROC ; std::_System_error_category::default_error_condition, COMDAT
; _this$ = ecx

; 641  : 		{	// make error_condition for error code (generic if possible)

	push	ebp
	mov	ebp, esp
	push	ecx
	mov	DWORD PTR _this$[ebp], ecx

; 642  : 		if (_Syserror_map(_Errval))

	mov	eax, DWORD PTR __Errval$[ebp]
	push	eax
	call	?_Syserror_map@std@@YAPBDH@Z		; std::_Syserror_map
	add	esp, 4
	test	eax, eax
	je	SHORT $LN2@default_er

; 643  : 			return (error_condition(_Errval, generic_category()));

	call	?generic_category@std@@YAABVerror_category@1@XZ ; std::generic_category
	push	eax
	mov	ecx, DWORD PTR __Errval$[ebp]
	push	ecx
	mov	ecx, DWORD PTR ___$ReturnUdt$[ebp]
	call	??0error_condition@std@@QAE@HABVerror_category@1@@Z ; std::error_condition::error_condition
	mov	eax, DWORD PTR ___$ReturnUdt$[ebp]
	jmp	SHORT $LN3@default_er

; 644  : 		else

	jmp	SHORT $LN3@default_er
$LN2@default_er:

; 645  : 			return (error_condition(_Errval, system_category()));

	call	?system_category@std@@YAABVerror_category@1@XZ ; std::system_category
	push	eax
	mov	edx, DWORD PTR __Errval$[ebp]
	push	edx
	mov	ecx, DWORD PTR ___$ReturnUdt$[ebp]
	call	??0error_condition@std@@QAE@HABVerror_category@1@@Z ; std::error_condition::error_condition
	mov	eax, DWORD PTR ___$ReturnUdt$[ebp]
$LN3@default_er:

; 646  : 		}

	mov	esp, ebp
	pop	ebp
	ret	8
?default_error_condition@_System_error_category@std@@UBE?AVerror_condition@2@H@Z ENDP ; std::_System_error_category::default_error_condition
_TEXT	ENDS
; Function compile flags: /Odtp
; File c:\program files (x86)\microsoft visual studio 11.0\vc\include\system_error
;	COMDAT ?message@_System_error_category@std@@UBE?AV?$basic_string@DU?$char_traits@D@std@@V?$allocator@D@2@@2@H@Z
_TEXT	SEGMENT
_this$ = -16						; size = 4
$T1 = -12						; size = 4
tv69 = -8						; size = 4
__Name$ = -4						; size = 4
___$ReturnUdt$ = 8					; size = 4
__Errcode$ = 12						; size = 4
?message@_System_error_category@std@@UBE?AV?$basic_string@DU?$char_traits@D@std@@V?$allocator@D@2@@2@H@Z PROC ; std::_System_error_category::message, COMDAT
; _this$ = ecx

; 634  : 		{	// convert to name of error

	push	ebp
	mov	ebp, esp
	sub	esp, 16					; 00000010H
	mov	DWORD PTR _this$[ebp], ecx
	mov	DWORD PTR $T1[ebp], 0

; 635  : 		const char *_Name = _Winerror_map(_Errcode);

	mov	eax, DWORD PTR __Errcode$[ebp]
	push	eax
	call	?_Winerror_map@std@@YAPBDH@Z		; std::_Winerror_map
	add	esp, 4
	mov	DWORD PTR __Name$[ebp], eax

; 636  : 		return (string(_Name != 0 ? _Name : "unknown error"));

	cmp	DWORD PTR __Name$[ebp], 0
	je	SHORT $LN3@message
	mov	ecx, DWORD PTR __Name$[ebp]
	mov	DWORD PTR tv69[ebp], ecx
	jmp	SHORT $LN4@message
$LN3@message:
	mov	DWORD PTR tv69[ebp], OFFSET ??_C@_0O@BFJCFAAK@unknown?5error?$AA@
$LN4@message:
	mov	edx, DWORD PTR tv69[ebp]
	push	edx
	mov	ecx, DWORD PTR ___$ReturnUdt$[ebp]
	call	??0?$basic_string@DU?$char_traits@D@std@@V?$allocator@D@2@@std@@QAE@PBD@Z ; std::basic_string<char,std::char_traits<char>,std::allocator<char> >::basic_string<char,std::char_traits<char>,std::allocator<char> >
	mov	eax, DWORD PTR $T1[ebp]
	or	eax, 1
	mov	DWORD PTR $T1[ebp], eax
	mov	eax, DWORD PTR ___$ReturnUdt$[ebp]

; 637  : 		}

	mov	esp, ebp
	pop	ebp
	ret	8
?message@_System_error_category@std@@UBE?AV?$basic_string@DU?$char_traits@D@std@@V?$allocator@D@2@@2@H@Z ENDP ; std::_System_error_category::message
_TEXT	ENDS
; Function compile flags: /Odtp
; File c:\program files (x86)\microsoft visual studio 11.0\vc\include\system_error
;	COMDAT ?name@_System_error_category@std@@UBEPBDXZ
_TEXT	SEGMENT
_this$ = -4						; size = 4
?name@_System_error_category@std@@UBEPBDXZ PROC		; std::_System_error_category::name, COMDAT
; _this$ = ecx

; 629  : 		{	// get name of category

	push	ebp
	mov	ebp, esp
	push	ecx
	mov	DWORD PTR _this$[ebp], ecx

; 630  : 		return ("system");

	mov	eax, OFFSET ??_C@_06FHFOAHML@system?$AA@

; 631  : 		}

	mov	esp, ebp
	pop	ebp
	ret	0
?name@_System_error_category@std@@UBEPBDXZ ENDP		; std::_System_error_category::name
_TEXT	ENDS
; Function compile flags: /Odtp
; File c:\program files (x86)\microsoft visual studio 11.0\vc\include\system_error
;	COMDAT ??0_System_error_category@std@@QAE@XZ
_TEXT	SEGMENT
_this$ = -4						; size = 4
??0_System_error_category@std@@QAE@XZ PROC		; std::_System_error_category::_System_error_category, COMDAT
; _this$ = ecx

; 624  : 	_System_error_category()

	push	ebp
	mov	ebp, esp
	push	ecx
	mov	DWORD PTR _this$[ebp], ecx
	mov	ecx, DWORD PTR _this$[ebp]
	call	??0_Generic_error_category@std@@QAE@XZ	; std::_Generic_error_category::_Generic_error_category
	mov	eax, DWORD PTR _this$[ebp]
	mov	DWORD PTR [eax], OFFSET ??_7_System_error_category@std@@6B@

; 625  : 		{	// default constructor
; 626  : 		}

	mov	eax, DWORD PTR _this$[ebp]
	mov	esp, ebp
	pop	ebp
	ret	0
??0_System_error_category@std@@QAE@XZ ENDP		; std::_System_error_category::_System_error_category
_TEXT	ENDS
; Function compile flags: /Odtp
;	COMDAT ??_G_Iostream_error_category@std@@UAEPAXI@Z
_TEXT	SEGMENT
_this$ = -4						; size = 4
___flags$ = 8						; size = 4
??_G_Iostream_error_category@std@@UAEPAXI@Z PROC	; std::_Iostream_error_category::`scalar deleting destructor', COMDAT
; _this$ = ecx
	push	ebp
	mov	ebp, esp
	push	ecx
	mov	DWORD PTR _this$[ebp], ecx
	mov	ecx, DWORD PTR _this$[ebp]
	call	??1_Iostream_error_category@std@@UAE@XZ
	mov	eax, DWORD PTR ___flags$[ebp]
	and	eax, 1
	je	SHORT $LN1@scalar
	mov	ecx, DWORD PTR _this$[ebp]
	push	ecx
	call	??3@YAXPAX@Z				; operator delete
	add	esp, 4
$LN1@scalar:
	mov	eax, DWORD PTR _this$[ebp]
	mov	esp, ebp
	pop	ebp
	ret	4
??_G_Iostream_error_category@std@@UAEPAXI@Z ENDP	; std::_Iostream_error_category::`scalar deleting destructor'
_TEXT	ENDS
; Function compile flags: /Odtp
;	COMDAT ??1_Iostream_error_category@std@@UAE@XZ
_TEXT	SEGMENT
_this$ = -4						; size = 4
??1_Iostream_error_category@std@@UAE@XZ PROC		; std::_Iostream_error_category::~_Iostream_error_category, COMDAT
; _this$ = ecx
	push	ebp
	mov	ebp, esp
	push	ecx
	mov	DWORD PTR _this$[ebp], ecx
	mov	ecx, DWORD PTR _this$[ebp]
	call	??1_Generic_error_category@std@@UAE@XZ
	mov	esp, ebp
	pop	ebp
	ret	0
??1_Iostream_error_category@std@@UAE@XZ ENDP		; std::_Iostream_error_category::~_Iostream_error_category
_TEXT	ENDS
; Function compile flags: /Odtp
; File c:\program files (x86)\microsoft visual studio 11.0\vc\include\system_error
;	COMDAT ?message@_Iostream_error_category@std@@UBE?AV?$basic_string@DU?$char_traits@D@std@@V?$allocator@D@2@@2@H@Z
_TEXT	SEGMENT
_this$ = -8						; size = 4
$T1 = -4						; size = 4
___$ReturnUdt$ = 8					; size = 4
__Errcode$ = 12						; size = 4
?message@_Iostream_error_category@std@@UBE?AV?$basic_string@DU?$char_traits@D@std@@V?$allocator@D@2@@2@H@Z PROC ; std::_Iostream_error_category::message, COMDAT
; _this$ = ecx

; 611  : 		{	// convert to name of error

	push	ebp
	mov	ebp, esp
	sub	esp, 8
	mov	DWORD PTR _this$[ebp], ecx
	mov	DWORD PTR $T1[ebp], 0

; 612  : 		if (_Errcode == (int)io_errc::stream)

	cmp	DWORD PTR __Errcode$[ebp], 1
	jne	SHORT $LN2@message

; 613  : 			return ("iostream stream error");

	push	OFFSET ??_C@_0BG@PADBLCHM@iostream?5stream?5error?$AA@
	mov	ecx, DWORD PTR ___$ReturnUdt$[ebp]
	call	??0?$basic_string@DU?$char_traits@D@std@@V?$allocator@D@2@@std@@QAE@PBD@Z ; std::basic_string<char,std::char_traits<char>,std::allocator<char> >::basic_string<char,std::char_traits<char>,std::allocator<char> >
	mov	eax, DWORD PTR $T1[ebp]
	or	eax, 1
	mov	DWORD PTR $T1[ebp], eax
	mov	eax, DWORD PTR ___$ReturnUdt$[ebp]
	jmp	SHORT $LN3@message

; 614  : 		else

	jmp	SHORT $LN3@message
$LN2@message:

; 615  : 			return (_Generic_error_category::message(_Errcode));

	mov	ecx, DWORD PTR __Errcode$[ebp]
	push	ecx
	mov	edx, DWORD PTR ___$ReturnUdt$[ebp]
	push	edx
	mov	ecx, DWORD PTR _this$[ebp]
	call	?message@_Generic_error_category@std@@UBE?AV?$basic_string@DU?$char_traits@D@std@@V?$allocator@D@2@@2@H@Z ; std::_Generic_error_category::message
	mov	eax, DWORD PTR $T1[ebp]
	or	eax, 1
	mov	DWORD PTR $T1[ebp], eax
	mov	eax, DWORD PTR ___$ReturnUdt$[ebp]
$LN3@message:

; 616  : 		}

	mov	esp, ebp
	pop	ebp
	ret	8
?message@_Iostream_error_category@std@@UBE?AV?$basic_string@DU?$char_traits@D@std@@V?$allocator@D@2@@2@H@Z ENDP ; std::_Iostream_error_category::message
_TEXT	ENDS
; Function compile flags: /Odtp
; File c:\program files (x86)\microsoft visual studio 11.0\vc\include\system_error
;	COMDAT ?name@_Iostream_error_category@std@@UBEPBDXZ
_TEXT	SEGMENT
_this$ = -4						; size = 4
?name@_Iostream_error_category@std@@UBEPBDXZ PROC	; std::_Iostream_error_category::name, COMDAT
; _this$ = ecx

; 606  : 		{	// get name of category

	push	ebp
	mov	ebp, esp
	push	ecx
	mov	DWORD PTR _this$[ebp], ecx

; 607  : 		return ("iostream");

	mov	eax, OFFSET ??_C@_08LLGCOLLL@iostream?$AA@

; 608  : 		}

	mov	esp, ebp
	pop	ebp
	ret	0
?name@_Iostream_error_category@std@@UBEPBDXZ ENDP	; std::_Iostream_error_category::name
_TEXT	ENDS
; Function compile flags: /Odtp
; File c:\program files (x86)\microsoft visual studio 11.0\vc\include\system_error
;	COMDAT ??0_Iostream_error_category@std@@QAE@XZ
_TEXT	SEGMENT
_this$ = -4						; size = 4
??0_Iostream_error_category@std@@QAE@XZ PROC		; std::_Iostream_error_category::_Iostream_error_category, COMDAT
; _this$ = ecx

; 601  : 	_Iostream_error_category()

	push	ebp
	mov	ebp, esp
	push	ecx
	mov	DWORD PTR _this$[ebp], ecx
	mov	ecx, DWORD PTR _this$[ebp]
	call	??0_Generic_error_category@std@@QAE@XZ	; std::_Generic_error_category::_Generic_error_category
	mov	eax, DWORD PTR _this$[ebp]
	mov	DWORD PTR [eax], OFFSET ??_7_Iostream_error_category@std@@6B@

; 602  : 		{	// default constructor
; 603  : 		}

	mov	eax, DWORD PTR _this$[ebp]
	mov	esp, ebp
	pop	ebp
	ret	0
??0_Iostream_error_category@std@@QAE@XZ ENDP		; std::_Iostream_error_category::_Iostream_error_category
_TEXT	ENDS
; Function compile flags: /Odtp
;	COMDAT ??_G_Generic_error_category@std@@UAEPAXI@Z
_TEXT	SEGMENT
_this$ = -4						; size = 4
___flags$ = 8						; size = 4
??_G_Generic_error_category@std@@UAEPAXI@Z PROC		; std::_Generic_error_category::`scalar deleting destructor', COMDAT
; _this$ = ecx
	push	ebp
	mov	ebp, esp
	push	ecx
	mov	DWORD PTR _this$[ebp], ecx
	mov	ecx, DWORD PTR _this$[ebp]
	call	??1_Generic_error_category@std@@UAE@XZ
	mov	eax, DWORD PTR ___flags$[ebp]
	and	eax, 1
	je	SHORT $LN1@scalar
	mov	ecx, DWORD PTR _this$[ebp]
	push	ecx
	call	??3@YAXPAX@Z				; operator delete
	add	esp, 4
$LN1@scalar:
	mov	eax, DWORD PTR _this$[ebp]
	mov	esp, ebp
	pop	ebp
	ret	4
??_G_Generic_error_category@std@@UAEPAXI@Z ENDP		; std::_Generic_error_category::`scalar deleting destructor'
_TEXT	ENDS
; Function compile flags: /Odtp
;	COMDAT ??1_Generic_error_category@std@@UAE@XZ
_TEXT	SEGMENT
_this$ = -4						; size = 4
??1_Generic_error_category@std@@UAE@XZ PROC		; std::_Generic_error_category::~_Generic_error_category, COMDAT
; _this$ = ecx
	push	ebp
	mov	ebp, esp
	push	ecx
	mov	DWORD PTR _this$[ebp], ecx
	mov	ecx, DWORD PTR _this$[ebp]
	call	??1error_category@std@@UAE@XZ		; std::error_category::~error_category
	mov	esp, ebp
	pop	ebp
	ret	0
??1_Generic_error_category@std@@UAE@XZ ENDP		; std::_Generic_error_category::~_Generic_error_category
_TEXT	ENDS
; Function compile flags: /Odtp
; File c:\program files (x86)\microsoft visual studio 11.0\vc\include\system_error
;	COMDAT ?message@_Generic_error_category@std@@UBE?AV?$basic_string@DU?$char_traits@D@std@@V?$allocator@D@2@@2@H@Z
_TEXT	SEGMENT
_this$ = -16						; size = 4
$T1 = -12						; size = 4
tv69 = -8						; size = 4
__Name$ = -4						; size = 4
___$ReturnUdt$ = 8					; size = 4
__Errcode$ = 12						; size = 4
?message@_Generic_error_category@std@@UBE?AV?$basic_string@DU?$char_traits@D@std@@V?$allocator@D@2@@2@H@Z PROC ; std::_Generic_error_category::message, COMDAT
; _this$ = ecx

; 590  : 		{	// convert to name of error

	push	ebp
	mov	ebp, esp
	sub	esp, 16					; 00000010H
	mov	DWORD PTR _this$[ebp], ecx
	mov	DWORD PTR $T1[ebp], 0

; 591  : 		const char *_Name = _Syserror_map(_Errcode);

	mov	eax, DWORD PTR __Errcode$[ebp]
	push	eax
	call	?_Syserror_map@std@@YAPBDH@Z		; std::_Syserror_map
	add	esp, 4
	mov	DWORD PTR __Name$[ebp], eax

; 592  : 		return (string(_Name != 0 ? _Name : "unknown error"));

	cmp	DWORD PTR __Name$[ebp], 0
	je	SHORT $LN3@message
	mov	ecx, DWORD PTR __Name$[ebp]
	mov	DWORD PTR tv69[ebp], ecx
	jmp	SHORT $LN4@message
$LN3@message:
	mov	DWORD PTR tv69[ebp], OFFSET ??_C@_0O@BFJCFAAK@unknown?5error?$AA@
$LN4@message:
	mov	edx, DWORD PTR tv69[ebp]
	push	edx
	mov	ecx, DWORD PTR ___$ReturnUdt$[ebp]
	call	??0?$basic_string@DU?$char_traits@D@std@@V?$allocator@D@2@@std@@QAE@PBD@Z ; std::basic_string<char,std::char_traits<char>,std::allocator<char> >::basic_string<char,std::char_traits<char>,std::allocator<char> >
	mov	eax, DWORD PTR $T1[ebp]
	or	eax, 1
	mov	DWORD PTR $T1[ebp], eax
	mov	eax, DWORD PTR ___$ReturnUdt$[ebp]

; 593  : 		}

	mov	esp, ebp
	pop	ebp
	ret	8
?message@_Generic_error_category@std@@UBE?AV?$basic_string@DU?$char_traits@D@std@@V?$allocator@D@2@@2@H@Z ENDP ; std::_Generic_error_category::message
_TEXT	ENDS
; Function compile flags: /Odtp
; File c:\program files (x86)\microsoft visual studio 11.0\vc\include\system_error
;	COMDAT ?name@_Generic_error_category@std@@UBEPBDXZ
_TEXT	SEGMENT
_this$ = -4						; size = 4
?name@_Generic_error_category@std@@UBEPBDXZ PROC	; std::_Generic_error_category::name, COMDAT
; _this$ = ecx

; 585  : 		{	// get name of category

	push	ebp
	mov	ebp, esp
	push	ecx
	mov	DWORD PTR _this$[ebp], ecx

; 586  : 		return ("generic");

	mov	eax, OFFSET ??_C@_07DCLBNMLN@generic?$AA@

; 587  : 		}

	mov	esp, ebp
	pop	ebp
	ret	0
?name@_Generic_error_category@std@@UBEPBDXZ ENDP	; std::_Generic_error_category::name
_TEXT	ENDS
; Function compile flags: /Odtp
; File c:\program files (x86)\microsoft visual studio 11.0\vc\include\system_error
;	COMDAT ??0_Generic_error_category@std@@QAE@XZ
_TEXT	SEGMENT
_this$ = -4						; size = 4
??0_Generic_error_category@std@@QAE@XZ PROC		; std::_Generic_error_category::_Generic_error_category, COMDAT
; _this$ = ecx

; 580  : 	_Generic_error_category()

	push	ebp
	mov	ebp, esp
	push	ecx
	mov	DWORD PTR _this$[ebp], ecx
	mov	ecx, DWORD PTR _this$[ebp]
	call	??0error_category@std@@QAE@XZ		; std::error_category::error_category
	mov	eax, DWORD PTR _this$[ebp]
	mov	DWORD PTR [eax], OFFSET ??_7_Generic_error_category@std@@6B@

; 581  : 		{	// default constructor
; 582  : 		}

	mov	eax, DWORD PTR _this$[ebp]
	mov	esp, ebp
	pop	ebp
	ret	0
??0_Generic_error_category@std@@QAE@XZ ENDP		; std::_Generic_error_category::_Generic_error_category
_TEXT	ENDS
; Function compile flags: /Odtp
; File c:\program files (x86)\microsoft visual studio 11.0\vc\include\system_error
;	COMDAT ??8error_condition@std@@QBE_NABV01@@Z
_TEXT	SEGMENT
tv78 = -8						; size = 4
_this$ = -4						; size = 4
__Right$ = 8						; size = 4
??8error_condition@std@@QBE_NABV01@@Z PROC		; std::error_condition::operator==, COMDAT
; _this$ = ecx

; 376  : 		{	// test if *this == _Right

	push	ebp
	mov	ebp, esp
	sub	esp, 8
	push	esi
	mov	DWORD PTR _this$[ebp], ecx

; 377  : 		return (category() == _Right.category()
; 378  : 			&& value() == _Right.value());

	mov	ecx, DWORD PTR __Right$[ebp]
	call	?category@error_condition@std@@QBEABVerror_category@2@XZ ; std::error_condition::category
	push	eax
	mov	ecx, DWORD PTR _this$[ebp]
	call	?category@error_condition@std@@QBEABVerror_category@2@XZ ; std::error_condition::category
	mov	ecx, eax
	call	??8error_category@std@@QBE_NABV01@@Z	; std::error_category::operator==
	movzx	eax, al
	test	eax, eax
	je	SHORT $LN3@operator
	mov	ecx, DWORD PTR _this$[ebp]
	call	?value@error_condition@std@@QBEHXZ	; std::error_condition::value
	mov	esi, eax
	mov	ecx, DWORD PTR __Right$[ebp]
	call	?value@error_condition@std@@QBEHXZ	; std::error_condition::value
	cmp	esi, eax
	jne	SHORT $LN3@operator
	mov	DWORD PTR tv78[ebp], 1
	jmp	SHORT $LN4@operator
$LN3@operator:
	mov	DWORD PTR tv78[ebp], 0
$LN4@operator:
	mov	al, BYTE PTR tv78[ebp]

; 379  : 		}

	pop	esi
	mov	esp, ebp
	pop	ebp
	ret	4
??8error_condition@std@@QBE_NABV01@@Z ENDP		; std::error_condition::operator==
_TEXT	ENDS
; Function compile flags: /Odtp
; File c:\program files (x86)\microsoft visual studio 11.0\vc\include\system_error
;	COMDAT ?category@error_condition@std@@QBEABVerror_category@2@XZ
_TEXT	SEGMENT
_this$ = -4						; size = 4
?category@error_condition@std@@QBEABVerror_category@2@XZ PROC ; std::error_condition::category, COMDAT
; _this$ = ecx

; 354  : 		{	// get category

	push	ebp
	mov	ebp, esp
	push	ecx
	mov	DWORD PTR _this$[ebp], ecx

; 355  : 		return (*_Mycat);

	mov	eax, DWORD PTR _this$[ebp]
	mov	eax, DWORD PTR [eax+4]

; 356  : 		}

	mov	esp, ebp
	pop	ebp
	ret	0
?category@error_condition@std@@QBEABVerror_category@2@XZ ENDP ; std::error_condition::category
_TEXT	ENDS
; Function compile flags: /Odtp
; File c:\program files (x86)\microsoft visual studio 11.0\vc\include\system_error
;	COMDAT ?value@error_condition@std@@QBEHXZ
_TEXT	SEGMENT
_this$ = -4						; size = 4
?value@error_condition@std@@QBEHXZ PROC			; std::error_condition::value, COMDAT
; _this$ = ecx

; 349  : 		{	// get error code

	push	ebp
	mov	ebp, esp
	push	ecx
	mov	DWORD PTR _this$[ebp], ecx

; 350  : 		return (_Myval);

	mov	eax, DWORD PTR _this$[ebp]
	mov	eax, DWORD PTR [eax]

; 351  : 		}

	mov	esp, ebp
	pop	ebp
	ret	0
?value@error_condition@std@@QBEHXZ ENDP			; std::error_condition::value
_TEXT	ENDS
; Function compile flags: /Odtp
; File c:\program files (x86)\microsoft visual studio 11.0\vc\include\system_error
;	COMDAT ??0error_condition@std@@QAE@HABVerror_category@1@@Z
_TEXT	SEGMENT
_this$ = -4						; size = 4
__Val$ = 8						; size = 4
__Cat$ = 12						; size = 4
??0error_condition@std@@QAE@HABVerror_category@1@@Z PROC ; std::error_condition::error_condition, COMDAT
; _this$ = ecx

; 316  : 		{	// construct from error code and category

	push	ebp
	mov	ebp, esp
	push	ecx
	mov	DWORD PTR _this$[ebp], ecx
	mov	eax, DWORD PTR _this$[ebp]
	mov	ecx, DWORD PTR __Val$[ebp]
	mov	DWORD PTR [eax], ecx
	mov	edx, DWORD PTR _this$[ebp]
	mov	eax, DWORD PTR __Cat$[ebp]
	mov	DWORD PTR [edx+4], eax

; 317  : 		}

	mov	eax, DWORD PTR _this$[ebp]
	mov	esp, ebp
	pop	ebp
	ret	8
??0error_condition@std@@QAE@HABVerror_category@1@@Z ENDP ; std::error_condition::error_condition
_TEXT	ENDS
; Function compile flags: /Odtp
; File c:\program files (x86)\microsoft visual studio 11.0\vc\include\system_error
;	COMDAT ?category@error_code@std@@QBEABVerror_category@2@XZ
_TEXT	SEGMENT
_this$ = -4						; size = 4
?category@error_code@std@@QBEABVerror_category@2@XZ PROC ; std::error_code::category, COMDAT
; _this$ = ecx

; 256  : 		{	// get category

	push	ebp
	mov	ebp, esp
	push	ecx
	mov	DWORD PTR _this$[ebp], ecx

; 257  : 		return (*_Mycat);

	mov	eax, DWORD PTR _this$[ebp]
	mov	eax, DWORD PTR [eax+4]

; 258  : 		}

	mov	esp, ebp
	pop	ebp
	ret	0
?category@error_code@std@@QBEABVerror_category@2@XZ ENDP ; std::error_code::category
_TEXT	ENDS
; Function compile flags: /Odtp
; File c:\program files (x86)\microsoft visual studio 11.0\vc\include\system_error
;	COMDAT ?value@error_code@std@@QBEHXZ
_TEXT	SEGMENT
_this$ = -4						; size = 4
?value@error_code@std@@QBEHXZ PROC			; std::error_code::value, COMDAT
; _this$ = ecx

; 251  : 		{	// get error code

	push	ebp
	mov	ebp, esp
	push	ecx
	mov	DWORD PTR _this$[ebp], ecx

; 252  : 		return (_Myval);

	mov	eax, DWORD PTR _this$[ebp]
	mov	eax, DWORD PTR [eax]

; 253  : 		}

	mov	esp, ebp
	pop	ebp
	ret	0
?value@error_code@std@@QBEHXZ ENDP			; std::error_code::value
_TEXT	ENDS
; Function compile flags: /Odtp
;	COMDAT ??_Gerror_category@std@@UAEPAXI@Z
_TEXT	SEGMENT
_this$ = -4						; size = 4
___flags$ = 8						; size = 4
??_Gerror_category@std@@UAEPAXI@Z PROC			; std::error_category::`scalar deleting destructor', COMDAT
; _this$ = ecx
	push	ebp
	mov	ebp, esp
	push	ecx
	mov	DWORD PTR _this$[ebp], ecx
	mov	ecx, DWORD PTR _this$[ebp]
	call	??1error_category@std@@UAE@XZ		; std::error_category::~error_category
	mov	eax, DWORD PTR ___flags$[ebp]
	and	eax, 1
	je	SHORT $LN1@scalar
	mov	ecx, DWORD PTR _this$[ebp]
	push	ecx
	call	??3@YAXPAX@Z				; operator delete
	add	esp, 4
$LN1@scalar:
	mov	eax, DWORD PTR _this$[ebp]
	mov	esp, ebp
	pop	ebp
	ret	4
??_Gerror_category@std@@UAEPAXI@Z ENDP			; std::error_category::`scalar deleting destructor'
_TEXT	ENDS
; Function compile flags: /Odtp
; File c:\program files (x86)\microsoft visual studio 11.0\vc\include\system_error
;	COMDAT ??8error_category@std@@QBE_NABV01@@Z
_TEXT	SEGMENT
_this$ = -8						; size = 4
tv65 = -4						; size = 4
__Right$ = 8						; size = 4
??8error_category@std@@QBE_NABV01@@Z PROC		; std::error_category::operator==, COMDAT
; _this$ = ecx

; 184  : 		{	// compare categories for equality

	push	ebp
	mov	ebp, esp
	sub	esp, 8
	mov	DWORD PTR _this$[ebp], ecx

; 185  : 		return (this == &_Right);

	mov	eax, DWORD PTR _this$[ebp]
	cmp	eax, DWORD PTR __Right$[ebp]
	jne	SHORT $LN3@operator
	mov	DWORD PTR tv65[ebp], 1
	jmp	SHORT $LN4@operator
$LN3@operator:
	mov	DWORD PTR tv65[ebp], 0
$LN4@operator:
	mov	al, BYTE PTR tv65[ebp]

; 186  : 		}

	mov	esp, ebp
	pop	ebp
	ret	4
??8error_category@std@@QBE_NABV01@@Z ENDP		; std::error_category::operator==
_TEXT	ENDS
; Function compile flags: /Odtp
; File c:\program files (x86)\microsoft visual studio 11.0\vc\include\system_error
;	COMDAT ?equivalent@error_category@std@@UBE_NABVerror_code@2@H@Z
_TEXT	SEGMENT
_this$ = -8						; size = 4
tv74 = -4						; size = 4
__Code$ = 8						; size = 4
__Errval$ = 12						; size = 4
?equivalent@error_category@std@@UBE_NABVerror_code@2@H@Z PROC ; std::error_category::equivalent, COMDAT
; _this$ = ecx

; 415  : 	{	// test if conditions same for this category

	push	ebp
	mov	ebp, esp
	sub	esp, 8
	mov	DWORD PTR _this$[ebp], ecx

; 416  : 	return (*this == _Code.category() && _Code.value() == _Errval);

	mov	ecx, DWORD PTR __Code$[ebp]
	call	?category@error_code@std@@QBEABVerror_category@2@XZ ; std::error_code::category
	push	eax
	mov	ecx, DWORD PTR _this$[ebp]
	call	??8error_category@std@@QBE_NABV01@@Z	; std::error_category::operator==
	movzx	eax, al
	test	eax, eax
	je	SHORT $LN3@equivalent
	mov	ecx, DWORD PTR __Code$[ebp]
	call	?value@error_code@std@@QBEHXZ		; std::error_code::value
	cmp	eax, DWORD PTR __Errval$[ebp]
	jne	SHORT $LN3@equivalent
	mov	DWORD PTR tv74[ebp], 1
	jmp	SHORT $LN4@equivalent
$LN3@equivalent:
	mov	DWORD PTR tv74[ebp], 0
$LN4@equivalent:
	mov	al, BYTE PTR tv74[ebp]

; 417  : 	}

	mov	esp, ebp
	pop	ebp
	ret	8
?equivalent@error_category@std@@UBE_NABVerror_code@2@H@Z ENDP ; std::error_category::equivalent
_TEXT	ENDS
; Function compile flags: /Odtp
; File c:\program files (x86)\microsoft visual studio 11.0\vc\include\system_error
;	COMDAT ?equivalent@error_category@std@@UBE_NHABVerror_condition@2@@Z
_TEXT	SEGMENT
$T1 = -12						; size = 8
_this$ = -4						; size = 4
__Errval$ = 8						; size = 4
__Cond$ = 12						; size = 4
?equivalent@error_category@std@@UBE_NHABVerror_condition@2@@Z PROC ; std::error_category::equivalent, COMDAT
; _this$ = ecx

; 408  : 	{	// test if error code same condition

	push	ebp
	mov	ebp, esp
	sub	esp, 12					; 0000000cH
	mov	DWORD PTR _this$[ebp], ecx

; 409  : 	return (default_error_condition(_Errval) == _Cond);

	mov	eax, DWORD PTR __Cond$[ebp]
	push	eax
	mov	ecx, DWORD PTR __Errval$[ebp]
	push	ecx
	lea	edx, DWORD PTR $T1[ebp]
	push	edx
	mov	eax, DWORD PTR _this$[ebp]
	mov	edx, DWORD PTR [eax]
	mov	ecx, DWORD PTR _this$[ebp]
	mov	eax, DWORD PTR [edx+12]
	call	eax
	mov	ecx, eax
	call	??8error_condition@std@@QBE_NABV01@@Z	; std::error_condition::operator==

; 410  : 	}

	mov	esp, ebp
	pop	ebp
	ret	8
?equivalent@error_category@std@@UBE_NHABVerror_condition@2@@Z ENDP ; std::error_category::equivalent
_TEXT	ENDS
; Function compile flags: /Odtp
; File c:\program files (x86)\microsoft visual studio 11.0\vc\include\system_error
;	COMDAT ?default_error_condition@error_category@std@@UBE?AVerror_condition@2@H@Z
_TEXT	SEGMENT
_this$ = -4						; size = 4
___$ReturnUdt$ = 8					; size = 4
__Errval$ = 12						; size = 4
?default_error_condition@error_category@std@@UBE?AVerror_condition@2@H@Z PROC ; std::error_category::default_error_condition, COMDAT
; _this$ = ecx

; 401  : 	{	// make error_condition for error code

	push	ebp
	mov	ebp, esp
	push	ecx
	mov	DWORD PTR _this$[ebp], ecx

; 402  : 	return (error_condition(_Errval, *this));

	mov	eax, DWORD PTR _this$[ebp]
	push	eax
	mov	ecx, DWORD PTR __Errval$[ebp]
	push	ecx
	mov	ecx, DWORD PTR ___$ReturnUdt$[ebp]
	call	??0error_condition@std@@QAE@HABVerror_category@1@@Z ; std::error_condition::error_condition
	mov	eax, DWORD PTR ___$ReturnUdt$[ebp]

; 403  : 	}

	mov	esp, ebp
	pop	ebp
	ret	8
?default_error_condition@error_category@std@@UBE?AVerror_condition@2@H@Z ENDP ; std::error_category::default_error_condition
_TEXT	ENDS
; Function compile flags: /Odtp
; File c:\program files (x86)\microsoft visual studio 11.0\vc\include\system_error
;	COMDAT ??1error_category@std@@UAE@XZ
_TEXT	SEGMENT
_this$ = -4						; size = 4
??1error_category@std@@UAE@XZ PROC			; std::error_category::~error_category, COMDAT
; _this$ = ecx

; 167  : 		{	// destroy the object

	push	ebp
	mov	ebp, esp
	push	ecx
	mov	DWORD PTR _this$[ebp], ecx
	mov	eax, DWORD PTR _this$[ebp]
	mov	DWORD PTR [eax], OFFSET ??_7error_category@std@@6B@

; 168  : 		}

	mov	esp, ebp
	pop	ebp
	ret	0
??1error_category@std@@UAE@XZ ENDP			; std::error_category::~error_category
_TEXT	ENDS
; Function compile flags: /Odtp
; File c:\program files (x86)\microsoft visual studio 11.0\vc\include\system_error
;	COMDAT ??0error_category@std@@QAE@XZ
_TEXT	SEGMENT
_this$ = -4						; size = 4
??0error_category@std@@QAE@XZ PROC			; std::error_category::error_category, COMDAT
; _this$ = ecx

; 162  : 	error_category()

	push	ebp
	mov	ebp, esp
	push	ecx
	mov	DWORD PTR _this$[ebp], ecx
	mov	eax, DWORD PTR _this$[ebp]
	mov	DWORD PTR [eax], OFFSET ??_7error_category@std@@6B@

; 163  : 		{	// default constructor
; 164  : 		}

	mov	eax, DWORD PTR _this$[ebp]
	mov	esp, ebp
	pop	ebp
	ret	0
??0error_category@std@@QAE@XZ ENDP			; std::error_category::error_category
_TEXT	ENDS
; Function compile flags: /Odtp
; File c:\program files (x86)\microsoft visual studio 11.0\vc\include\system_error
;	COMDAT ?system_category@std@@YAABVerror_category@1@XZ
_TEXT	SEGMENT
?system_category@std@@YAABVerror_category@1@XZ PROC	; std::system_category, COMDAT

; 679  : 	{	// get system_category

	push	ebp
	mov	ebp, esp

; 680  : 	return (_Error_objects<int>::_System_object);

	mov	eax, OFFSET ?_System_object@?$_Error_objects@H@std@@2V_System_error_category@2@A ; std::_Error_objects<int>::_System_object

; 681  : 	}

	pop	ebp
	ret	0
?system_category@std@@YAABVerror_category@1@XZ ENDP	; std::system_category
_TEXT	ENDS
; Function compile flags: /Odtp
; File c:\program files (x86)\microsoft visual studio 11.0\vc\include\system_error
;	COMDAT ?generic_category@std@@YAABVerror_category@1@XZ
_TEXT	SEGMENT
?generic_category@std@@YAABVerror_category@1@XZ PROC	; std::generic_category, COMDAT

; 669  : 	{	// get generic_category

	push	ebp
	mov	ebp, esp

; 670  : 	return (_Error_objects<int>::_Generic_object);

	mov	eax, OFFSET ?_Generic_object@?$_Error_objects@H@std@@2V_Generic_error_category@2@A ; std::_Error_objects<int>::_Generic_object

; 671  : 	}

	pop	ebp
	ret	0
?generic_category@std@@YAABVerror_category@1@XZ ENDP	; std::generic_category
_TEXT	ENDS
; Function compile flags: /Odtp
; File c:\program files (x86)\microsoft visual studio 11.0\vc\include\xlocale
;	COMDAT ??0id@locale@std@@QAE@I@Z
_TEXT	SEGMENT
_this$ = -4						; size = 4
__Val$ = 8						; size = 4
??0id@locale@std@@QAE@I@Z PROC				; std::locale::id::id, COMDAT
; _this$ = ecx

; 74   : 			{	// construct with specified stamp value

	push	ebp
	mov	ebp, esp
	push	ecx
	mov	DWORD PTR _this$[ebp], ecx
	mov	eax, DWORD PTR _this$[ebp]
	mov	ecx, DWORD PTR __Val$[ebp]
	mov	DWORD PTR [eax], ecx

; 75   : 			}

	mov	eax, DWORD PTR _this$[ebp]
	mov	esp, ebp
	pop	ebp
	ret	4
??0id@locale@std@@QAE@I@Z ENDP				; std::locale::id::id
_TEXT	ENDS
; Function compile flags: /Odtp
; File c:\users\zhitao li\documents\visual studio 2012\projects\freefalcon\falclib\include\falcent.h
;	COMDAT ?IsSetFalcFlag@FalconEntity@@QAEHH@Z
_TEXT	SEGMENT
_this$ = -4						; size = 4
_flag$ = 8						; size = 4
?IsSetFalcFlag@FalconEntity@@QAEHH@Z PROC		; FalconEntity::IsSetFalcFlag, COMDAT
; _this$ = ecx

; 112  : 	int IsSetFalcFlag (int flag)				{ return falconFlags & flag; };

	push	ebp
	mov	ebp, esp
	push	ecx
	mov	DWORD PTR _this$[ebp], ecx
	mov	eax, DWORD PTR _this$[ebp]
	movzx	eax, BYTE PTR [eax+136]
	and	eax, DWORD PTR _flag$[ebp]
	mov	esp, ebp
	pop	ebp
	ret	4
?IsSetFalcFlag@FalconEntity@@QAEHH@Z ENDP		; FalconEntity::IsSetFalcFlag
_TEXT	ENDS
; Function compile flags: /Odtp
; File c:\users\zhitao li\documents\visual studio 2012\projects\freefalcon\falclib\include\falcent.h
;	COMDAT ?IsSim@FalconEntity@@QAEHXZ
_TEXT	SEGMENT
_this$ = -8						; size = 4
tv68 = -4						; size = 4
?IsSim@FalconEntity@@QAEHXZ PROC			; FalconEntity::IsSim, COMDAT
; _this$ = ecx

; 103  : 		{return (falconType & FalconSimEntity) ? TRUE : FALSE;};

	push	ebp
	mov	ebp, esp
	sub	esp, 8
	mov	DWORD PTR _this$[ebp], ecx
	mov	eax, DWORD PTR _this$[ebp]
	movsx	ecx, BYTE PTR [eax+137]
	and	ecx, 2
	je	SHORT $LN3@IsSim
	mov	DWORD PTR tv68[ebp], 1
	jmp	SHORT $LN4@IsSim
$LN3@IsSim:
	mov	DWORD PTR tv68[ebp], 0
$LN4@IsSim:
	mov	eax, DWORD PTR tv68[ebp]
	mov	esp, ebp
	pop	ebp
	ret	0
?IsSim@FalconEntity@@QAEHXZ ENDP			; FalconEntity::IsSim
_TEXT	ENDS
; Function compile flags: /Odtp
; File c:\users\zhitao li\documents\visual studio 2012\projects\freefalcon\vu2\include\vu_templates.h
;	COMDAT ?get@?$VuBin@VVuSessionEntity@@@@QBEPAVVuSessionEntity@@XZ
_TEXT	SEGMENT
_this$ = -4						; size = 4
?get@?$VuBin@VVuSessionEntity@@@@QBEPAVVuSessionEntity@@XZ PROC ; VuBin<VuSessionEntity>::get, COMDAT
; _this$ = ecx

; 55   : 	E *get() const{

	push	ebp
	mov	ebp, esp
	push	ecx
	mov	DWORD PTR _this$[ebp], ecx

; 56   : 		return e;

	mov	eax, DWORD PTR _this$[ebp]
	mov	eax, DWORD PTR [eax]

; 57   : 	}

	mov	esp, ebp
	pop	ebp
	ret	0
?get@?$VuBin@VVuSessionEntity@@@@QBEPAVVuSessionEntity@@XZ ENDP ; VuBin<VuSessionEntity>::get
_TEXT	ENDS
; Function compile flags: /Odtp
; File c:\users\zhitao li\documents\visual studio 2012\projects\freefalcon\vu2\include\vu_templates.h
;	COMDAT ??B?$VuBin@VVuSessionEntity@@@@QBE_NXZ
_TEXT	SEGMENT
_this$ = -8						; size = 4
tv66 = -4						; size = 4
??B?$VuBin@VVuSessionEntity@@@@QBE_NXZ PROC		; VuBin<VuSessionEntity>::operator bool, COMDAT
; _this$ = ecx

; 40   : 	operator bool() const{

	push	ebp
	mov	ebp, esp
	sub	esp, 8
	mov	DWORD PTR _this$[ebp], ecx

; 41   : 		return e != NULL;

	mov	eax, DWORD PTR _this$[ebp]
	cmp	DWORD PTR [eax], 0
	je	SHORT $LN3@operator
	mov	DWORD PTR tv66[ebp], 1
	jmp	SHORT $LN4@operator
$LN3@operator:
	mov	DWORD PTR tv66[ebp], 0
$LN4@operator:
	mov	al, BYTE PTR tv66[ebp]

; 42   : 	}

	mov	esp, ebp
	pop	ebp
	ret	0
??B?$VuBin@VVuSessionEntity@@@@QBE_NXZ ENDP		; VuBin<VuSessionEntity>::operator bool
_TEXT	ENDS
; Function compile flags: /Odtp
; File c:\program files (x86)\microsoft visual studio 11.0\vc\include\xstring
;	COMDAT ?_Xran@?$basic_string@DU?$char_traits@D@std@@V?$allocator@D@2@@std@@QBEXXZ
_TEXT	SEGMENT
_this$ = -4						; size = 4
?_Xran@?$basic_string@DU?$char_traits@D@std@@V?$allocator@D@2@@std@@QBEXXZ PROC ; std::basic_string<char,std::char_traits<char>,std::allocator<char> >::_Xran, COMDAT
; _this$ = ecx

; 2275 : 		{	// report an out_of_range error

	push	ebp
	mov	ebp, esp
	push	ecx
	mov	DWORD PTR _this$[ebp], ecx

; 2276 : 		_Xout_of_range("invalid string position");

	push	OFFSET ??_C@_0BI@CFPLBAOH@invalid?5string?5position?$AA@
	call	?_Xout_of_range@std@@YAXPBD@Z		; std::_Xout_of_range
$LN2@Xran:

; 2277 : 		}

	mov	esp, ebp
	pop	ebp
	ret	0
?_Xran@?$basic_string@DU?$char_traits@D@std@@V?$allocator@D@2@@std@@QBEXXZ ENDP ; std::basic_string<char,std::char_traits<char>,std::allocator<char> >::_Xran
_TEXT	ENDS
; Function compile flags: /Odtp
; File c:\program files (x86)\microsoft visual studio 11.0\vc\include\xstring
;	COMDAT ?_Xlen@?$basic_string@DU?$char_traits@D@std@@V?$allocator@D@2@@std@@QBEXXZ
_TEXT	SEGMENT
_this$ = -4						; size = 4
?_Xlen@?$basic_string@DU?$char_traits@D@std@@V?$allocator@D@2@@std@@QBEXXZ PROC ; std::basic_string<char,std::char_traits<char>,std::allocator<char> >::_Xlen, COMDAT
; _this$ = ecx

; 2270 : 		{	// report a length_error

	push	ebp
	mov	ebp, esp
	push	ecx
	mov	DWORD PTR _this$[ebp], ecx

; 2271 : 		_Xlength_error("string too long");

	push	OFFSET ??_C@_0BA@JFNIOLAK@string?5too?5long?$AA@
	call	?_Xlength_error@std@@YAXPBD@Z		; std::_Xlength_error
$LN2@Xlen:

; 2272 : 		}

	mov	esp, ebp
	pop	ebp
	ret	0
?_Xlen@?$basic_string@DU?$char_traits@D@std@@V?$allocator@D@2@@std@@QBEXXZ ENDP ; std::basic_string<char,std::char_traits<char>,std::allocator<char> >::_Xlen
_TEXT	ENDS
; Function compile flags: /Odtp
; File c:\program files (x86)\microsoft visual studio 11.0\vc\include\xstring
;	COMDAT ?_Tidy@?$basic_string@DU?$char_traits@D@std@@V?$allocator@D@2@@std@@QAEX_NI@Z
_TEXT	SEGMENT
__Ptr$1 = -12						; size = 4
_this$ = -8						; size = 4
$T2 = -2						; size = 1
$T3 = -1						; size = 1
__Built$ = 8						; size = 1
__Newsize$ = 12						; size = 4
?_Tidy@?$basic_string@DU?$char_traits@D@std@@V?$allocator@D@2@@std@@QAEX_NI@Z PROC ; std::basic_string<char,std::char_traits<char>,std::allocator<char> >::_Tidy, COMDAT
; _this$ = ecx

; 2253 : 		{	// initialize buffer, deallocating any storage

	push	ebp
	mov	ebp, esp
	sub	esp, 12					; 0000000cH
	mov	DWORD PTR _this$[ebp], ecx

; 2254 : 		if (!_Built)

	movzx	eax, BYTE PTR __Built$[ebp]
	test	eax, eax
	jne	SHORT $LN4@Tidy
	jmp	SHORT $LN3@Tidy
$LN4@Tidy:

; 2255 : 			;
; 2256 : 		else if (this->_BUF_SIZE <= this->_Myres)

	mov	ecx, DWORD PTR _this$[ebp]
	cmp	DWORD PTR [ecx+20], 16			; 00000010H
	jb	SHORT $LN3@Tidy

; 2257 : 			{	// copy any leftovers to small buffer and deallocate
; 2258 : 			pointer _Ptr = this->_Bx._Ptr;

	mov	edx, DWORD PTR _this$[ebp]
	mov	eax, DWORD PTR [edx]
	mov	DWORD PTR __Ptr$1[ebp], eax

; 2259 : 			this->_Getal().destroy(&this->_Bx._Ptr);

	mov	ecx, DWORD PTR _this$[ebp]
	push	ecx
	lea	edx, DWORD PTR $T3[ebp]
	push	edx
	mov	ecx, DWORD PTR _this$[ebp]
	call	?_Getal@?$_String_alloc@$0A@U?$_String_base_types@DV?$allocator@D@std@@@std@@@std@@QBE?AU?$_Wrap_alloc@V?$allocator@D@std@@@2@XZ ; std::_String_alloc<0,std::_String_base_types<char,std::allocator<char> > >::_Getal
	mov	ecx, eax
	call	??$destroy@PAD@?$_Wrap_alloc@V?$allocator@D@std@@@std@@QAEXPAPAD@Z ; std::_Wrap_alloc<std::allocator<char> >::destroy<char *>

; 2260 : 			if (0 < _Newsize)

	cmp	DWORD PTR __Newsize$[ebp], 0
	jbe	SHORT $LN1@Tidy

; 2261 : 				_Traits::copy(this->_Bx._Buf,
; 2262 : 					_STD addressof(*_Ptr), _Newsize);

	mov	eax, DWORD PTR __Newsize$[ebp]
	push	eax
	mov	ecx, DWORD PTR __Ptr$1[ebp]
	push	ecx
	call	??$addressof@D@std@@YAPADAAD@Z		; std::addressof<char>
	add	esp, 4
	push	eax
	mov	edx, DWORD PTR _this$[ebp]
	push	edx
	call	?copy@?$char_traits@D@std@@SAPADPADPBDI@Z ; std::char_traits<char>::copy
	add	esp, 12					; 0000000cH
$LN1@Tidy:

; 2263 : 			this->_Getal().deallocate(_Ptr, this->_Myres + 1);

	mov	eax, DWORD PTR _this$[ebp]
	mov	ecx, DWORD PTR [eax+20]
	add	ecx, 1
	push	ecx
	mov	edx, DWORD PTR __Ptr$1[ebp]
	push	edx
	lea	eax, DWORD PTR $T2[ebp]
	push	eax
	mov	ecx, DWORD PTR _this$[ebp]
	call	?_Getal@?$_String_alloc@$0A@U?$_String_base_types@DV?$allocator@D@std@@@std@@@std@@QBE?AU?$_Wrap_alloc@V?$allocator@D@std@@@2@XZ ; std::_String_alloc<0,std::_String_base_types<char,std::allocator<char> > >::_Getal
	mov	ecx, eax
	call	?deallocate@?$_Wrap_alloc@V?$allocator@D@std@@@std@@QAEXPADI@Z ; std::_Wrap_alloc<std::allocator<char> >::deallocate
$LN3@Tidy:

; 2264 : 			}
; 2265 : 		this->_Myres = this->_BUF_SIZE - 1;

	mov	ecx, DWORD PTR _this$[ebp]
	mov	DWORD PTR [ecx+20], 15			; 0000000fH

; 2266 : 		_Eos(_Newsize);

	mov	edx, DWORD PTR __Newsize$[ebp]
	push	edx
	mov	ecx, DWORD PTR _this$[ebp]
	call	?_Eos@?$basic_string@DU?$char_traits@D@std@@V?$allocator@D@2@@std@@QAEXI@Z ; std::basic_string<char,std::char_traits<char>,std::allocator<char> >::_Eos

; 2267 : 		}

	mov	esp, ebp
	pop	ebp
	ret	8
?_Tidy@?$basic_string@DU?$char_traits@D@std@@V?$allocator@D@2@@std@@QAEX_NI@Z ENDP ; std::basic_string<char,std::char_traits<char>,std::allocator<char> >::_Tidy
_TEXT	ENDS
; Function compile flags: /Odtp
; File c:\program files (x86)\microsoft visual studio 11.0\vc\include\xstring
;	COMDAT ?_Inside@?$basic_string@DU?$char_traits@D@std@@V?$allocator@D@2@@std@@QAE_NPBD@Z
_TEXT	SEGMENT
_this$ = -4						; size = 4
__Ptr$ = 8						; size = 4
?_Inside@?$basic_string@DU?$char_traits@D@std@@V?$allocator@D@2@@std@@QAE_NPBD@Z PROC ; std::basic_string<char,std::char_traits<char>,std::allocator<char> >::_Inside, COMDAT
; _this$ = ecx

; 2237 : 		{	// test if _Ptr points inside string

	push	ebp
	mov	ebp, esp
	push	ecx
	mov	DWORD PTR _this$[ebp], ecx

; 2238 : 		if (_Ptr == 0 || _Ptr < this->_Myptr()
; 2239 : 			|| this->_Myptr() + this->_Mysize <= _Ptr)

	cmp	DWORD PTR __Ptr$[ebp], 0
	je	SHORT $LN2@Inside
	mov	ecx, DWORD PTR _this$[ebp]
	call	?_Myptr@?$_String_val@U?$_Simple_types@D@std@@@std@@QAEPADXZ ; std::_String_val<std::_Simple_types<char> >::_Myptr
	cmp	DWORD PTR __Ptr$[ebp], eax
	jb	SHORT $LN2@Inside
	mov	ecx, DWORD PTR _this$[ebp]
	call	?_Myptr@?$_String_val@U?$_Simple_types@D@std@@@std@@QAEPADXZ ; std::_String_val<std::_Simple_types<char> >::_Myptr
	mov	ecx, DWORD PTR _this$[ebp]
	add	eax, DWORD PTR [ecx+16]
	cmp	eax, DWORD PTR __Ptr$[ebp]
	ja	SHORT $LN3@Inside
$LN2@Inside:

; 2240 : 			return (false);	// don't ask

	xor	al, al
	jmp	SHORT $LN4@Inside

; 2241 : 		else

	jmp	SHORT $LN4@Inside
$LN3@Inside:

; 2242 : 			return (true);

	mov	al, 1
$LN4@Inside:

; 2243 : 		}

	mov	esp, ebp
	pop	ebp
	ret	4
?_Inside@?$basic_string@DU?$char_traits@D@std@@V?$allocator@D@2@@std@@QAE_NPBD@Z ENDP ; std::basic_string<char,std::char_traits<char>,std::allocator<char> >::_Inside
_TEXT	ENDS
; Function compile flags: /Odtp
; File c:\program files (x86)\microsoft visual studio 11.0\vc\include\xstring
;	COMDAT ?_Grow@?$basic_string@DU?$char_traits@D@std@@V?$allocator@D@2@@std@@QAE_NI_N@Z
_TEXT	SEGMENT
tv136 = -12						; size = 4
tv129 = -8						; size = 4
_this$ = -4						; size = 4
__Newsize$ = 8						; size = 4
__Trim$ = 12						; size = 1
?_Grow@?$basic_string@DU?$char_traits@D@std@@V?$allocator@D@2@@std@@QAE_NI_N@Z PROC ; std::basic_string<char,std::char_traits<char>,std::allocator<char> >::_Grow, COMDAT
; _this$ = ecx

; 2223 : 		{	// ensure buffer is big enough, trim to size if _Trim is true

	push	ebp
	mov	ebp, esp
	sub	esp, 12					; 0000000cH
	mov	DWORD PTR _this$[ebp], ecx

; 2224 : 		if (max_size() < _Newsize)

	mov	ecx, DWORD PTR _this$[ebp]
	call	?max_size@?$basic_string@DU?$char_traits@D@std@@V?$allocator@D@2@@std@@QBEIXZ ; std::basic_string<char,std::char_traits<char>,std::allocator<char> >::max_size
	cmp	eax, DWORD PTR __Newsize$[ebp]
	jae	SHORT $LN6@Grow

; 2225 : 			_Xlen();	// result too long

	mov	ecx, DWORD PTR _this$[ebp]
	call	?_Xlen@?$basic_string@DU?$char_traits@D@std@@V?$allocator@D@2@@std@@QBEXXZ ; std::basic_string<char,std::char_traits<char>,std::allocator<char> >::_Xlen
$LN6@Grow:

; 2226 : 		if (this->_Myres < _Newsize)

	mov	eax, DWORD PTR _this$[ebp]
	mov	ecx, DWORD PTR [eax+20]
	cmp	ecx, DWORD PTR __Newsize$[ebp]
	jae	SHORT $LN5@Grow

; 2227 : 			_Copy(_Newsize, this->_Mysize);	// reallocate to grow

	mov	edx, DWORD PTR _this$[ebp]
	mov	eax, DWORD PTR [edx+16]
	push	eax
	mov	ecx, DWORD PTR __Newsize$[ebp]
	push	ecx
	mov	ecx, DWORD PTR _this$[ebp]
	call	?_Copy@?$basic_string@DU?$char_traits@D@std@@V?$allocator@D@2@@std@@QAEXII@Z ; std::basic_string<char,std::char_traits<char>,std::allocator<char> >::_Copy
	jmp	SHORT $LN4@Grow
$LN5@Grow:

; 2228 : 		else if (_Trim && _Newsize < this->_BUF_SIZE)

	movzx	edx, BYTE PTR __Trim$[ebp]
	test	edx, edx
	je	SHORT $LN3@Grow
	cmp	DWORD PTR __Newsize$[ebp], 16		; 00000010H
	jae	SHORT $LN3@Grow

; 2229 : 			_Tidy(true,	// copy and deallocate if trimming to small string
; 2230 : 				_Newsize < this->_Mysize ? _Newsize : this->_Mysize);

	mov	eax, DWORD PTR _this$[ebp]
	mov	ecx, DWORD PTR __Newsize$[ebp]
	cmp	ecx, DWORD PTR [eax+16]
	jae	SHORT $LN9@Grow
	mov	edx, DWORD PTR __Newsize$[ebp]
	mov	DWORD PTR tv129[ebp], edx
	jmp	SHORT $LN10@Grow
$LN9@Grow:
	mov	eax, DWORD PTR _this$[ebp]
	mov	ecx, DWORD PTR [eax+16]
	mov	DWORD PTR tv129[ebp], ecx
$LN10@Grow:
	mov	edx, DWORD PTR tv129[ebp]
	push	edx
	push	1
	mov	ecx, DWORD PTR _this$[ebp]
	call	?_Tidy@?$basic_string@DU?$char_traits@D@std@@V?$allocator@D@2@@std@@QAEX_NI@Z ; std::basic_string<char,std::char_traits<char>,std::allocator<char> >::_Tidy
	jmp	SHORT $LN4@Grow
$LN3@Grow:

; 2231 : 		else if (_Newsize == 0)

	cmp	DWORD PTR __Newsize$[ebp], 0
	jne	SHORT $LN4@Grow

; 2232 : 			_Eos(0);	// new size is zero, just null terminate

	push	0
	mov	ecx, DWORD PTR _this$[ebp]
	call	?_Eos@?$basic_string@DU?$char_traits@D@std@@V?$allocator@D@2@@std@@QAEXI@Z ; std::basic_string<char,std::char_traits<char>,std::allocator<char> >::_Eos
$LN4@Grow:

; 2233 : 		return (0 < _Newsize);	// return true only if more work to do

	cmp	DWORD PTR __Newsize$[ebp], 0
	jbe	SHORT $LN11@Grow
	mov	DWORD PTR tv136[ebp], 1
	jmp	SHORT $LN12@Grow
$LN11@Grow:
	mov	DWORD PTR tv136[ebp], 0
$LN12@Grow:
	mov	al, BYTE PTR tv136[ebp]
$LN8@Grow:

; 2234 : 		}

	mov	esp, ebp
	pop	ebp
	ret	8
?_Grow@?$basic_string@DU?$char_traits@D@std@@V?$allocator@D@2@@std@@QAE_NI_N@Z ENDP ; std::basic_string<char,std::char_traits<char>,std::allocator<char> >::_Grow
_TEXT	ENDS
; Function compile flags: /Odtp
; File c:\program files (x86)\microsoft visual studio 11.0\vc\include\xstring
;	COMDAT ?_Eos@?$basic_string@DU?$char_traits@D@std@@V?$allocator@D@2@@std@@QAEXI@Z
_TEXT	SEGMENT
_this$ = -8						; size = 4
$T1 = -1						; size = 1
__Newsize$ = 8						; size = 4
?_Eos@?$basic_string@DU?$char_traits@D@std@@V?$allocator@D@2@@std@@QAEXI@Z PROC ; std::basic_string<char,std::char_traits<char>,std::allocator<char> >::_Eos, COMDAT
; _this$ = ecx

; 2217 : 		{	// set new length and null terminator

	push	ebp
	mov	ebp, esp
	sub	esp, 8
	mov	DWORD PTR _this$[ebp], ecx

; 2218 : 		_Traits::assign(this->_Myptr()[this->_Mysize = _Newsize], _Elem());

	mov	BYTE PTR $T1[ebp], 0
	mov	eax, DWORD PTR _this$[ebp]
	mov	ecx, DWORD PTR __Newsize$[ebp]
	mov	DWORD PTR [eax+16], ecx
	lea	edx, DWORD PTR $T1[ebp]
	push	edx
	mov	ecx, DWORD PTR _this$[ebp]
	call	?_Myptr@?$_String_val@U?$_Simple_types@D@std@@@std@@QAEPADXZ ; std::_String_val<std::_Simple_types<char> >::_Myptr
	add	eax, DWORD PTR __Newsize$[ebp]
	push	eax
	call	?assign@?$char_traits@D@std@@SAXAADABD@Z ; std::char_traits<char>::assign
	add	esp, 8

; 2219 : 		}

	mov	esp, ebp
	pop	ebp
	ret	4
?_Eos@?$basic_string@DU?$char_traits@D@std@@V?$allocator@D@2@@std@@QAEXI@Z ENDP ; std::basic_string<char,std::char_traits<char>,std::allocator<char> >::_Eos
_TEXT	ENDS
; Function compile flags: /Odtp
; File c:\program files (x86)\microsoft visual studio 11.0\vc\include\xstring
;	COMDAT ?_Copy@?$basic_string@DU?$char_traits@D@std@@V?$allocator@D@2@@std@@QAEXII@Z
_TEXT	SEGMENT
tv205 = -48						; size = 4
tv204 = -44						; size = 4
tv203 = -40						; size = 4
tv202 = -36						; size = 4
__Ptr$ = -32						; size = 4
__Newres$ = -28						; size = 4
_this$ = -24						; size = 4
$T2 = -19						; size = 1
$T3 = -18						; size = 1
$T4 = -17						; size = 1
__$EHRec$ = -16						; size = 16
__Newsize$ = 8						; size = 4
__Oldlen$ = 12						; size = 4
?_Copy@?$basic_string@DU?$char_traits@D@std@@V?$allocator@D@2@@std@@QAEXII@Z PROC ; std::basic_string<char,std::char_traits<char>,std::allocator<char> >::_Copy, COMDAT
; _this$ = ecx

; 2182 : 		{	// copy _Oldlen elements to newly allocated buffer

	push	ebp
	mov	ebp, esp
	push	-1
	push	__ehhandler$?_Copy@?$basic_string@DU?$char_traits@D@std@@V?$allocator@D@2@@std@@QAEXII@Z
	mov	eax, DWORD PTR fs:0
	push	eax
	push	ecx
	sub	esp, 32					; 00000020H
	push	ebx
	push	esi
	push	edi
	mov	eax, DWORD PTR ___security_cookie
	xor	eax, ebp
	push	eax
	lea	eax, DWORD PTR __$EHRec$[ebp+4]
	mov	DWORD PTR fs:0, eax
	mov	DWORD PTR __$EHRec$[ebp], esp
	mov	DWORD PTR _this$[ebp], ecx

; 2183 : 		size_type _Newres = _Newsize | this->_ALLOC_MASK;

	mov	eax, DWORD PTR __Newsize$[ebp]
	or	eax, 15					; 0000000fH
	mov	DWORD PTR __Newres$[ebp], eax

; 2184 : 		if (max_size() < _Newres)

	mov	ecx, DWORD PTR _this$[ebp]
	call	?max_size@?$basic_string@DU?$char_traits@D@std@@V?$allocator@D@2@@std@@QBEIXZ ; std::basic_string<char,std::char_traits<char>,std::allocator<char> >::max_size
	cmp	eax, DWORD PTR __Newres$[ebp]
	jae	SHORT $LN9@Copy

; 2185 : 			_Newres = _Newsize;	// undo roundup if too big

	mov	ecx, DWORD PTR __Newsize$[ebp]
	mov	DWORD PTR __Newres$[ebp], ecx
	jmp	SHORT $LN8@Copy
$LN9@Copy:

; 2186 : 		else if (this->_Myres / 2 <= _Newres / 3)

	mov	eax, DWORD PTR __Newres$[ebp]
	xor	edx, edx
	mov	ecx, 3
	div	ecx
	mov	edx, DWORD PTR _this$[ebp]
	mov	ecx, DWORD PTR [edx+20]
	shr	ecx, 1
	cmp	ecx, eax
	ja	SHORT $LN7@Copy
	jmp	SHORT $LN8@Copy
$LN7@Copy:

; 2187 : 			;
; 2188 : 		else if (this->_Myres <= max_size() - this->_Myres / 2)

	mov	edx, DWORD PTR _this$[ebp]
	mov	esi, DWORD PTR [edx+20]
	shr	esi, 1
	mov	ecx, DWORD PTR _this$[ebp]
	call	?max_size@?$basic_string@DU?$char_traits@D@std@@V?$allocator@D@2@@std@@QBEIXZ ; std::basic_string<char,std::char_traits<char>,std::allocator<char> >::max_size
	sub	eax, esi
	mov	ecx, DWORD PTR _this$[ebp]
	cmp	DWORD PTR [ecx+20], eax
	ja	SHORT $LN5@Copy

; 2189 : 			_Newres = this->_Myres
; 2190 : 				+ this->_Myres / 2;	// grow exponentially if possible

	mov	edx, DWORD PTR _this$[ebp]
	mov	eax, DWORD PTR [edx+20]
	shr	eax, 1
	mov	ecx, DWORD PTR _this$[ebp]
	add	eax, DWORD PTR [ecx+20]
	mov	DWORD PTR __Newres$[ebp], eax

; 2191 : 		else

	jmp	SHORT $LN8@Copy
$LN5@Copy:

; 2192 : 			_Newres = max_size();	// settle for max_size()

	mov	ecx, DWORD PTR _this$[ebp]
	call	?max_size@?$basic_string@DU?$char_traits@D@std@@V?$allocator@D@2@@std@@QBEIXZ ; std::basic_string<char,std::char_traits<char>,std::allocator<char> >::max_size
	mov	DWORD PTR __Newres$[ebp], eax
$LN8@Copy:

; 2193 : 
; 2194 : 		_Elem *_Ptr;
; 2195 : 		_TRY_BEGIN

	mov	DWORD PTR __$EHRec$[ebp+12], 0

; 2196 : 			_Ptr = this->_Getal().allocate(_Newres + 1);

	lea	edx, DWORD PTR $T4[ebp]
	push	edx
	mov	ecx, DWORD PTR _this$[ebp]
	call	?_Getal@?$_String_alloc@$0A@U?$_String_base_types@DV?$allocator@D@std@@@std@@@std@@QBE?AU?$_Wrap_alloc@V?$allocator@D@std@@@2@XZ ; std::_String_alloc<0,std::_String_base_types<char,std::allocator<char> > >::_Getal
	mov	DWORD PTR tv202[ebp], eax
	mov	eax, DWORD PTR __Newres$[ebp]
	add	eax, 1
	push	eax
	mov	ecx, DWORD PTR tv202[ebp]
	call	?allocate@?$_Wrap_alloc@V?$allocator@D@std@@@std@@QAEPADI@Z ; std::_Wrap_alloc<std::allocator<char> >::allocate
	mov	DWORD PTR tv203[ebp], eax
	mov	ecx, DWORD PTR tv203[ebp]
	mov	DWORD PTR __Ptr$[ebp], ecx
	jmp	SHORT $LN12@Copy
__catch$?_Copy@?$basic_string@DU?$char_traits@D@std@@V?$allocator@D@2@@std@@QAEXII@Z$0:

; 2197 : 		_CATCH_ALL

	mov	DWORD PTR __$EHRec$[ebp], esp

; 2198 : 			_Newres = _Newsize;	// allocation failed, undo roundup and retry

	mov	edx, DWORD PTR __Newsize$[ebp]
	mov	DWORD PTR __Newres$[ebp], edx

; 2199 : 			_TRY_BEGIN

	mov	BYTE PTR __$EHRec$[ebp+12], 2

; 2200 : 				_Ptr = this->_Getal().allocate(_Newres + 1);

	lea	eax, DWORD PTR $T3[ebp]
	push	eax
	mov	ecx, DWORD PTR _this$[ebp]
	call	?_Getal@?$_String_alloc@$0A@U?$_String_base_types@DV?$allocator@D@std@@@std@@@std@@QBE?AU?$_Wrap_alloc@V?$allocator@D@std@@@2@XZ ; std::_String_alloc<0,std::_String_base_types<char,std::allocator<char> > >::_Getal
	mov	DWORD PTR tv204[ebp], eax
	mov	ecx, DWORD PTR __Newres$[ebp]
	add	ecx, 1
	push	ecx
	mov	ecx, DWORD PTR tv204[ebp]
	call	?allocate@?$_Wrap_alloc@V?$allocator@D@std@@@std@@QAEPADI@Z ; std::_Wrap_alloc<std::allocator<char> >::allocate
	mov	DWORD PTR tv205[ebp], eax
	mov	edx, DWORD PTR tv205[ebp]
	mov	DWORD PTR __Ptr$[ebp], edx
	jmp	SHORT $LN14@Copy
__catch$?_Copy@?$basic_string@DU?$char_traits@D@std@@V?$allocator@D@2@@std@@QAEXII@Z$1:

; 2201 : 			_CATCH_ALL
; 2202 : 			_Tidy(true);	// failed again, discard storage and reraise

	push	0
	push	1
	mov	ecx, DWORD PTR _this$[ebp]
	call	?_Tidy@?$basic_string@DU?$char_traits@D@std@@V?$allocator@D@2@@std@@QAEX_NI@Z ; std::basic_string<char,std::char_traits<char>,std::allocator<char> >::_Tidy

; 2203 : 			_RERAISE;

	push	0
	push	0
	call	__CxxThrowException@8

; 2204 : 			_CATCH_END

	mov	eax, $LN17@Copy
	ret	0
$LN14@Copy:
	mov	DWORD PTR __$EHRec$[ebp+12], 1
	jmp	SHORT __tryend$?_Copy@?$basic_string@DU?$char_traits@D@std@@V?$allocator@D@2@@std@@QAEXII@Z$2
$LN17@Copy:
	mov	DWORD PTR __$EHRec$[ebp+12], 1
__tryend$?_Copy@?$basic_string@DU?$char_traits@D@std@@V?$allocator@D@2@@std@@QAEXII@Z$2:

; 2205 : 		_CATCH_END

	mov	eax, $LN19@Copy
	ret	0
$LN12@Copy:
	mov	DWORD PTR __$EHRec$[ebp+12], -1
	jmp	SHORT __tryend$?_Copy@?$basic_string@DU?$char_traits@D@std@@V?$allocator@D@2@@std@@QAEXII@Z$3
$LN19@Copy:
	mov	DWORD PTR __$EHRec$[ebp+12], -1
__tryend$?_Copy@?$basic_string@DU?$char_traits@D@std@@V?$allocator@D@2@@std@@QAEXII@Z$3:

; 2206 : 
; 2207 : 		if (0 < _Oldlen)

	cmp	DWORD PTR __Oldlen$[ebp], 0
	jbe	SHORT $LN1@Copy

; 2208 : 			_Traits::copy(_Ptr, this->_Myptr(),
; 2209 : 				_Oldlen);	// copy existing elements

	mov	eax, DWORD PTR __Oldlen$[ebp]
	push	eax
	mov	ecx, DWORD PTR _this$[ebp]
	call	?_Myptr@?$_String_val@U?$_Simple_types@D@std@@@std@@QAEPADXZ ; std::_String_val<std::_Simple_types<char> >::_Myptr
	push	eax
	mov	ecx, DWORD PTR __Ptr$[ebp]
	push	ecx
	call	?copy@?$char_traits@D@std@@SAPADPADPBDI@Z ; std::char_traits<char>::copy
	add	esp, 12					; 0000000cH
$LN1@Copy:

; 2210 : 		_Tidy(true);

	push	0
	push	1
	mov	ecx, DWORD PTR _this$[ebp]
	call	?_Tidy@?$basic_string@DU?$char_traits@D@std@@V?$allocator@D@2@@std@@QAEX_NI@Z ; std::basic_string<char,std::char_traits<char>,std::allocator<char> >::_Tidy

; 2211 : 		this->_Getal().construct(&this->_Bx._Ptr, _Ptr);

	lea	edx, DWORD PTR __Ptr$[ebp]
	push	edx
	mov	eax, DWORD PTR _this$[ebp]
	push	eax
	lea	ecx, DWORD PTR $T2[ebp]
	push	ecx
	mov	ecx, DWORD PTR _this$[ebp]
	call	?_Getal@?$_String_alloc@$0A@U?$_String_base_types@DV?$allocator@D@std@@@std@@@std@@QBE?AU?$_Wrap_alloc@V?$allocator@D@std@@@2@XZ ; std::_String_alloc<0,std::_String_base_types<char,std::allocator<char> > >::_Getal
	mov	ecx, eax
	call	??$construct@PADAAPAD@?$_Wrap_alloc@V?$allocator@D@std@@@std@@QAEXPAPADAAPAD@Z ; std::_Wrap_alloc<std::allocator<char> >::construct<char *,char * &>

; 2212 : 		this->_Myres = _Newres;

	mov	edx, DWORD PTR _this$[ebp]
	mov	eax, DWORD PTR __Newres$[ebp]
	mov	DWORD PTR [edx+20], eax

; 2213 : 		_Eos(_Oldlen);

	mov	ecx, DWORD PTR __Oldlen$[ebp]
	push	ecx
	mov	ecx, DWORD PTR _this$[ebp]
	call	?_Eos@?$basic_string@DU?$char_traits@D@std@@V?$allocator@D@2@@std@@QAEXI@Z ; std::basic_string<char,std::char_traits<char>,std::allocator<char> >::_Eos
$LN11@Copy:

; 2214 : 		}

	mov	ecx, DWORD PTR __$EHRec$[ebp+4]
	mov	DWORD PTR fs:0, ecx
	pop	ecx
	pop	edi
	pop	esi
	pop	ebx
	mov	esp, ebp
	pop	ebp
	ret	8
_TEXT	ENDS
;	COMDAT text$x
text$x	SEGMENT
__ehhandler$?_Copy@?$basic_string@DU?$char_traits@D@std@@V?$allocator@D@2@@std@@QAEXII@Z:
	mov	edx, DWORD PTR [esp+8]
	lea	eax, DWORD PTR [edx+12]
	mov	ecx, DWORD PTR [edx-52]
	xor	ecx, eax
	call	@__security_check_cookie@4
	mov	eax, OFFSET __ehfuncinfo$?_Copy@?$basic_string@DU?$char_traits@D@std@@V?$allocator@D@2@@std@@QAEXII@Z
	jmp	___CxxFrameHandler3
text$x	ENDS
?_Copy@?$basic_string@DU?$char_traits@D@std@@V?$allocator@D@2@@std@@QAEXII@Z ENDP ; std::basic_string<char,std::char_traits<char>,std::allocator<char> >::_Copy
; Function compile flags: /Odtp
; File c:\program files (x86)\microsoft visual studio 11.0\vc\include\xstring
;	COMDAT ?max_size@?$basic_string@DU?$char_traits@D@std@@V?$allocator@D@2@@std@@QBEIXZ
_TEXT	SEGMENT
_this$ = -16						; size = 4
tv75 = -12						; size = 4
__Num$ = -8						; size = 4
$T1 = -1						; size = 1
?max_size@?$basic_string@DU?$char_traits@D@std@@V?$allocator@D@2@@std@@QBEIXZ PROC ; std::basic_string<char,std::char_traits<char>,std::allocator<char> >::max_size, COMDAT
; _this$ = ecx

; 1737 : 		{	// return maximum possible length of sequence

	push	ebp
	mov	ebp, esp
	sub	esp, 16					; 00000010H
	mov	DWORD PTR _this$[ebp], ecx

; 1738 : 		size_type _Num = this->_Getal().max_size();

	lea	eax, DWORD PTR $T1[ebp]
	push	eax
	mov	ecx, DWORD PTR _this$[ebp]
	call	?_Getal@?$_String_alloc@$0A@U?$_String_base_types@DV?$allocator@D@std@@@std@@@std@@QBE?AU?$_Wrap_alloc@V?$allocator@D@std@@@2@XZ ; std::_String_alloc<0,std::_String_base_types<char,std::allocator<char> > >::_Getal
	mov	ecx, eax
	call	?max_size@?$_Wrap_alloc@V?$allocator@D@std@@@std@@QBEIXZ ; std::_Wrap_alloc<std::allocator<char> >::max_size
	mov	DWORD PTR __Num$[ebp], eax

; 1739 : 		return (_Num <= 1 ? 1 : _Num - 1);

	cmp	DWORD PTR __Num$[ebp], 1
	ja	SHORT $LN3@max_size
	mov	DWORD PTR tv75[ebp], 1
	jmp	SHORT $LN4@max_size
$LN3@max_size:
	mov	ecx, DWORD PTR __Num$[ebp]
	sub	ecx, 1
	mov	DWORD PTR tv75[ebp], ecx
$LN4@max_size:
	mov	eax, DWORD PTR tv75[ebp]

; 1740 : 		}

	mov	esp, ebp
	pop	ebp
	ret	0
?max_size@?$basic_string@DU?$char_traits@D@std@@V?$allocator@D@2@@std@@QBEIXZ ENDP ; std::basic_string<char,std::char_traits<char>,std::allocator<char> >::max_size
_TEXT	ENDS
; Function compile flags: /Odtp
; File c:\program files (x86)\microsoft visual studio 11.0\vc\include\xstring
;	COMDAT ?size@?$basic_string@DU?$char_traits@D@std@@V?$allocator@D@2@@std@@QBEIXZ
_TEXT	SEGMENT
_this$ = -4						; size = 4
?size@?$basic_string@DU?$char_traits@D@std@@V?$allocator@D@2@@std@@QBEIXZ PROC ; std::basic_string<char,std::char_traits<char>,std::allocator<char> >::size, COMDAT
; _this$ = ecx

; 1732 : 		{	// return length of sequence

	push	ebp
	mov	ebp, esp
	push	ecx
	mov	DWORD PTR _this$[ebp], ecx

; 1733 : 		return (this->_Mysize);

	mov	eax, DWORD PTR _this$[ebp]
	mov	eax, DWORD PTR [eax+16]

; 1734 : 		}

	mov	esp, ebp
	pop	ebp
	ret	0
?size@?$basic_string@DU?$char_traits@D@std@@V?$allocator@D@2@@std@@QBEIXZ ENDP ; std::basic_string<char,std::char_traits<char>,std::allocator<char> >::size
_TEXT	ENDS
; Function compile flags: /Odtp
; File c:\program files (x86)\microsoft visual studio 11.0\vc\include\xstring
;	COMDAT ?erase@?$basic_string@DU?$char_traits@D@std@@V?$allocator@D@2@@std@@QAEAAV12@II@Z
_TEXT	SEGMENT
__Newsize$1 = -12					; size = 4
__Ptr$2 = -8						; size = 4
_this$ = -4						; size = 4
__Off$ = 8						; size = 4
__Count$ = 12						; size = 4
?erase@?$basic_string@DU?$char_traits@D@std@@V?$allocator@D@2@@std@@QAEAAV12@II@Z PROC ; std::basic_string<char,std::char_traits<char>,std::allocator<char> >::erase, COMDAT
; _this$ = ecx

; 1317 : 		{	// erase elements [_Off, _Off + _Count)

	push	ebp
	mov	ebp, esp
	sub	esp, 12					; 0000000cH
	mov	DWORD PTR _this$[ebp], ecx

; 1318 : 		if (this->_Mysize < _Off)

	mov	eax, DWORD PTR _this$[ebp]
	mov	ecx, DWORD PTR [eax+16]
	cmp	ecx, DWORD PTR __Off$[ebp]
	jae	SHORT $LN4@erase

; 1319 : 			_Xran();	// _Off off end

	mov	ecx, DWORD PTR _this$[ebp]
	call	?_Xran@?$basic_string@DU?$char_traits@D@std@@V?$allocator@D@2@@std@@QBEXXZ ; std::basic_string<char,std::char_traits<char>,std::allocator<char> >::_Xran
$LN4@erase:

; 1320 : 		if (this->_Mysize - _Off <= _Count)

	mov	edx, DWORD PTR _this$[ebp]
	mov	eax, DWORD PTR [edx+16]
	sub	eax, DWORD PTR __Off$[ebp]
	cmp	eax, DWORD PTR __Count$[ebp]
	ja	SHORT $LN3@erase

; 1321 : 			_Eos(_Off);	// erase elements [_Off, ...)

	mov	ecx, DWORD PTR __Off$[ebp]
	push	ecx
	mov	ecx, DWORD PTR _this$[ebp]
	call	?_Eos@?$basic_string@DU?$char_traits@D@std@@V?$allocator@D@2@@std@@QAEXI@Z ; std::basic_string<char,std::char_traits<char>,std::allocator<char> >::_Eos
	jmp	SHORT $LN2@erase
$LN3@erase:

; 1322 : 		else if (0 < _Count)

	cmp	DWORD PTR __Count$[ebp], 0
	jbe	SHORT $LN2@erase

; 1323 : 			{	// move elements down
; 1324 : 			value_type *_Ptr = this->_Myptr() + _Off;

	mov	ecx, DWORD PTR _this$[ebp]
	call	?_Myptr@?$_String_val@U?$_Simple_types@D@std@@@std@@QAEPADXZ ; std::_String_val<std::_Simple_types<char> >::_Myptr
	add	eax, DWORD PTR __Off$[ebp]
	mov	DWORD PTR __Ptr$2[ebp], eax

; 1325 : 			size_type _Newsize = this->_Mysize - _Count;

	mov	edx, DWORD PTR _this$[ebp]
	mov	eax, DWORD PTR [edx+16]
	sub	eax, DWORD PTR __Count$[ebp]
	mov	DWORD PTR __Newsize$1[ebp], eax

; 1326 : 			_Traits::move(_Ptr, _Ptr + _Count, _Newsize - _Off);

	mov	ecx, DWORD PTR __Newsize$1[ebp]
	sub	ecx, DWORD PTR __Off$[ebp]
	push	ecx
	mov	edx, DWORD PTR __Ptr$2[ebp]
	add	edx, DWORD PTR __Count$[ebp]
	push	edx
	mov	eax, DWORD PTR __Ptr$2[ebp]
	push	eax
	call	?move@?$char_traits@D@std@@SAPADPADPBDI@Z ; std::char_traits<char>::move
	add	esp, 12					; 0000000cH

; 1327 : 			_Eos(_Newsize);

	mov	ecx, DWORD PTR __Newsize$1[ebp]
	push	ecx
	mov	ecx, DWORD PTR _this$[ebp]
	call	?_Eos@?$basic_string@DU?$char_traits@D@std@@V?$allocator@D@2@@std@@QAEXI@Z ; std::basic_string<char,std::char_traits<char>,std::allocator<char> >::_Eos
$LN2@erase:

; 1328 : 			}
; 1329 : 		return (*this);

	mov	eax, DWORD PTR _this$[ebp]
$LN6@erase:

; 1330 : 		}

	mov	esp, ebp
	pop	ebp
	ret	8
?erase@?$basic_string@DU?$char_traits@D@std@@V?$allocator@D@2@@std@@QAEAAV12@II@Z ENDP ; std::basic_string<char,std::char_traits<char>,std::allocator<char> >::erase
_TEXT	ENDS
; Function compile flags: /Odtp
; File c:\program files (x86)\microsoft visual studio 11.0\vc\include\xstring
;	COMDAT ?erase@?$basic_string@DU?$char_traits@D@std@@V?$allocator@D@2@@std@@QAEAAV12@I@Z
_TEXT	SEGMENT
_this$ = -4						; size = 4
__Off$ = 8						; size = 4
?erase@?$basic_string@DU?$char_traits@D@std@@V?$allocator@D@2@@std@@QAEAAV12@I@Z PROC ; std::basic_string<char,std::char_traits<char>,std::allocator<char> >::erase, COMDAT
; _this$ = ecx

; 1309 : 		{	// erase elements [_Off, ...)

	push	ebp
	mov	ebp, esp
	push	ecx
	mov	DWORD PTR _this$[ebp], ecx

; 1310 : 		if (this->_Mysize < _Off)

	mov	eax, DWORD PTR _this$[ebp]
	mov	ecx, DWORD PTR [eax+16]
	cmp	ecx, DWORD PTR __Off$[ebp]
	jae	SHORT $LN1@erase

; 1311 : 			_Xran();	// _Off off end

	mov	ecx, DWORD PTR _this$[ebp]
	call	?_Xran@?$basic_string@DU?$char_traits@D@std@@V?$allocator@D@2@@std@@QBEXXZ ; std::basic_string<char,std::char_traits<char>,std::allocator<char> >::_Xran
$LN1@erase:

; 1312 : 		_Eos(_Off);

	mov	edx, DWORD PTR __Off$[ebp]
	push	edx
	mov	ecx, DWORD PTR _this$[ebp]
	call	?_Eos@?$basic_string@DU?$char_traits@D@std@@V?$allocator@D@2@@std@@QAEXI@Z ; std::basic_string<char,std::char_traits<char>,std::allocator<char> >::_Eos

; 1313 : 		return (*this);

	mov	eax, DWORD PTR _this$[ebp]
$LN3@erase:

; 1314 : 		}

	mov	esp, ebp
	pop	ebp
	ret	4
?erase@?$basic_string@DU?$char_traits@D@std@@V?$allocator@D@2@@std@@QAEAAV12@I@Z ENDP ; std::basic_string<char,std::char_traits<char>,std::allocator<char> >::erase
_TEXT	ENDS
; Function compile flags: /Odtp
; File c:\program files (x86)\microsoft visual studio 11.0\vc\include\xstring
;	COMDAT ?assign@?$basic_string@DU?$char_traits@D@std@@V?$allocator@D@2@@std@@QAEAAV12@PBD@Z
_TEXT	SEGMENT
_this$ = -4						; size = 4
__Ptr$ = 8						; size = 4
?assign@?$basic_string@DU?$char_traits@D@std@@V?$allocator@D@2@@std@@QAEAAV12@PBD@Z PROC ; std::basic_string<char,std::char_traits<char>,std::allocator<char> >::assign, COMDAT
; _this$ = ecx

; 1142 : 		{	// assign [_Ptr, <null>)

	push	ebp
	mov	ebp, esp
	push	ecx
	mov	DWORD PTR _this$[ebp], ecx

; 1143 : 		_DEBUG_POINTER(_Ptr);
; 1144 : 		return (assign(_Ptr, _Traits::length(_Ptr)));

	mov	eax, DWORD PTR __Ptr$[ebp]
	push	eax
	call	?length@?$char_traits@D@std@@SAIPBD@Z	; std::char_traits<char>::length
	add	esp, 4
	push	eax
	mov	ecx, DWORD PTR __Ptr$[ebp]
	push	ecx
	mov	ecx, DWORD PTR _this$[ebp]
	call	?assign@?$basic_string@DU?$char_traits@D@std@@V?$allocator@D@2@@std@@QAEAAV12@PBDI@Z ; std::basic_string<char,std::char_traits<char>,std::allocator<char> >::assign

; 1145 : 		}

	mov	esp, ebp
	pop	ebp
	ret	4
?assign@?$basic_string@DU?$char_traits@D@std@@V?$allocator@D@2@@std@@QAEAAV12@PBD@Z ENDP ; std::basic_string<char,std::char_traits<char>,std::allocator<char> >::assign
_TEXT	ENDS
; Function compile flags: /Odtp
; File c:\program files (x86)\microsoft visual studio 11.0\vc\include\xstring
;	COMDAT ?assign@?$basic_string@DU?$char_traits@D@std@@V?$allocator@D@2@@std@@QAEAAV12@PBDI@Z
_TEXT	SEGMENT
_this$ = -4						; size = 4
__Ptr$ = 8						; size = 4
__Count$ = 12						; size = 4
?assign@?$basic_string@DU?$char_traits@D@std@@V?$allocator@D@2@@std@@QAEAAV12@PBDI@Z PROC ; std::basic_string<char,std::char_traits<char>,std::allocator<char> >::assign, COMDAT
; _this$ = ecx

; 1123 : 		{	// assign [_Ptr, _Ptr + _Count)

	push	ebp
	mov	ebp, esp
	push	ecx
	mov	DWORD PTR _this$[ebp], ecx

; 1124 :  #if _ITERATOR_DEBUG_LEVEL == 2
; 1125 : 		if (_Count != 0)
; 1126 : 			_DEBUG_POINTER(_Ptr);
; 1127 :  #endif /* _ITERATOR_DEBUG_LEVEL == 2 */
; 1128 : 
; 1129 : 		if (_Inside(_Ptr))

	mov	eax, DWORD PTR __Ptr$[ebp]
	push	eax
	mov	ecx, DWORD PTR _this$[ebp]
	call	?_Inside@?$basic_string@DU?$char_traits@D@std@@V?$allocator@D@2@@std@@QAE_NPBD@Z ; std::basic_string<char,std::char_traits<char>,std::allocator<char> >::_Inside
	movzx	ecx, al
	test	ecx, ecx
	je	SHORT $LN2@assign

; 1130 : 			return (assign(*this,
; 1131 : 				_Ptr - this->_Myptr(), _Count));	// substring

	mov	edx, DWORD PTR __Count$[ebp]
	push	edx
	mov	ecx, DWORD PTR _this$[ebp]
	call	?_Myptr@?$_String_val@U?$_Simple_types@D@std@@@std@@QAEPADXZ ; std::_String_val<std::_Simple_types<char> >::_Myptr
	mov	ecx, DWORD PTR __Ptr$[ebp]
	sub	ecx, eax
	push	ecx
	mov	edx, DWORD PTR _this$[ebp]
	push	edx
	mov	ecx, DWORD PTR _this$[ebp]
	call	?assign@?$basic_string@DU?$char_traits@D@std@@V?$allocator@D@2@@std@@QAEAAV12@ABV12@II@Z ; std::basic_string<char,std::char_traits<char>,std::allocator<char> >::assign
	jmp	SHORT $LN3@assign
$LN2@assign:

; 1132 : 
; 1133 : 		if (_Grow(_Count))

	push	0
	mov	eax, DWORD PTR __Count$[ebp]
	push	eax
	mov	ecx, DWORD PTR _this$[ebp]
	call	?_Grow@?$basic_string@DU?$char_traits@D@std@@V?$allocator@D@2@@std@@QAE_NI_N@Z ; std::basic_string<char,std::char_traits<char>,std::allocator<char> >::_Grow
	movzx	ecx, al
	test	ecx, ecx
	je	SHORT $LN1@assign

; 1134 : 			{	// make room and assign new stuff
; 1135 : 			_Traits::copy(this->_Myptr(), _Ptr, _Count);

	mov	edx, DWORD PTR __Count$[ebp]
	push	edx
	mov	eax, DWORD PTR __Ptr$[ebp]
	push	eax
	mov	ecx, DWORD PTR _this$[ebp]
	call	?_Myptr@?$_String_val@U?$_Simple_types@D@std@@@std@@QAEPADXZ ; std::_String_val<std::_Simple_types<char> >::_Myptr
	push	eax
	call	?copy@?$char_traits@D@std@@SAPADPADPBDI@Z ; std::char_traits<char>::copy
	add	esp, 12					; 0000000cH

; 1136 : 			_Eos(_Count);

	mov	ecx, DWORD PTR __Count$[ebp]
	push	ecx
	mov	ecx, DWORD PTR _this$[ebp]
	call	?_Eos@?$basic_string@DU?$char_traits@D@std@@V?$allocator@D@2@@std@@QAEXI@Z ; std::basic_string<char,std::char_traits<char>,std::allocator<char> >::_Eos
$LN1@assign:

; 1137 : 			}
; 1138 : 		return (*this);

	mov	eax, DWORD PTR _this$[ebp]
$LN3@assign:

; 1139 : 		}

	mov	esp, ebp
	pop	ebp
	ret	8
?assign@?$basic_string@DU?$char_traits@D@std@@V?$allocator@D@2@@std@@QAEAAV12@PBDI@Z ENDP ; std::basic_string<char,std::char_traits<char>,std::allocator<char> >::assign
_TEXT	ENDS
; Function compile flags: /Odtp
; File c:\program files (x86)\microsoft visual studio 11.0\vc\include\xstring
;	COMDAT ?assign@?$basic_string@DU?$char_traits@D@std@@V?$allocator@D@2@@std@@QAEAAV12@ABV12@II@Z
_TEXT	SEGMENT
__Num$ = -8						; size = 4
_this$ = -4						; size = 4
__Right$ = 8						; size = 4
__Roff$ = 12						; size = 4
__Count$ = 16						; size = 4
?assign@?$basic_string@DU?$char_traits@D@std@@V?$allocator@D@2@@std@@QAEAAV12@ABV12@II@Z PROC ; std::basic_string<char,std::char_traits<char>,std::allocator<char> >::assign, COMDAT
; _this$ = ecx

; 1104 : 		{	// assign _Right [_Roff, _Roff + _Count)

	push	ebp
	mov	ebp, esp
	sub	esp, 8
	mov	DWORD PTR _this$[ebp], ecx

; 1105 : 		if (_Right.size() < _Roff)

	mov	ecx, DWORD PTR __Right$[ebp]
	call	?size@?$basic_string@DU?$char_traits@D@std@@V?$allocator@D@2@@std@@QBEIXZ ; std::basic_string<char,std::char_traits<char>,std::allocator<char> >::size
	cmp	eax, DWORD PTR __Roff$[ebp]
	jae	SHORT $LN5@assign

; 1106 : 			_Xran();	// _Roff off end

	mov	ecx, DWORD PTR _this$[ebp]
	call	?_Xran@?$basic_string@DU?$char_traits@D@std@@V?$allocator@D@2@@std@@QBEXXZ ; std::basic_string<char,std::char_traits<char>,std::allocator<char> >::_Xran
$LN5@assign:

; 1107 : 		size_type _Num = _Right.size() - _Roff;

	mov	ecx, DWORD PTR __Right$[ebp]
	call	?size@?$basic_string@DU?$char_traits@D@std@@V?$allocator@D@2@@std@@QBEIXZ ; std::basic_string<char,std::char_traits<char>,std::allocator<char> >::size
	sub	eax, DWORD PTR __Roff$[ebp]
	mov	DWORD PTR __Num$[ebp], eax

; 1108 : 		if (_Count < _Num)

	mov	eax, DWORD PTR __Count$[ebp]
	cmp	eax, DWORD PTR __Num$[ebp]
	jae	SHORT $LN4@assign

; 1109 : 			_Num = _Count;	// trim _Num to size

	mov	ecx, DWORD PTR __Count$[ebp]
	mov	DWORD PTR __Num$[ebp], ecx
$LN4@assign:

; 1110 : 
; 1111 : 		if (this == &_Right)

	mov	edx, DWORD PTR _this$[ebp]
	cmp	edx, DWORD PTR __Right$[ebp]
	jne	SHORT $LN3@assign

; 1112 : 			erase((size_type)(_Roff + _Num)), erase(0, _Roff);	// substring

	mov	eax, DWORD PTR __Roff$[ebp]
	add	eax, DWORD PTR __Num$[ebp]
	push	eax
	mov	ecx, DWORD PTR _this$[ebp]
	call	?erase@?$basic_string@DU?$char_traits@D@std@@V?$allocator@D@2@@std@@QAEAAV12@I@Z ; std::basic_string<char,std::char_traits<char>,std::allocator<char> >::erase
	mov	ecx, DWORD PTR __Roff$[ebp]
	push	ecx
	push	0
	mov	ecx, DWORD PTR _this$[ebp]
	call	?erase@?$basic_string@DU?$char_traits@D@std@@V?$allocator@D@2@@std@@QAEAAV12@II@Z ; std::basic_string<char,std::char_traits<char>,std::allocator<char> >::erase
	jmp	SHORT $LN2@assign
$LN3@assign:

; 1113 : 		else if (_Grow(_Num))

	push	0
	mov	edx, DWORD PTR __Num$[ebp]
	push	edx
	mov	ecx, DWORD PTR _this$[ebp]
	call	?_Grow@?$basic_string@DU?$char_traits@D@std@@V?$allocator@D@2@@std@@QAE_NI_N@Z ; std::basic_string<char,std::char_traits<char>,std::allocator<char> >::_Grow
	movzx	eax, al
	test	eax, eax
	je	SHORT $LN2@assign

; 1114 : 			{	// make room and assign new stuff
; 1115 : 			_Traits::copy(this->_Myptr(),
; 1116 : 				_Right._Myptr() + _Roff, _Num);

	mov	ecx, DWORD PTR __Num$[ebp]
	push	ecx
	mov	ecx, DWORD PTR __Right$[ebp]
	call	?_Myptr@?$_String_val@U?$_Simple_types@D@std@@@std@@QBEPBDXZ ; std::_String_val<std::_Simple_types<char> >::_Myptr
	add	eax, DWORD PTR __Roff$[ebp]
	push	eax
	mov	ecx, DWORD PTR _this$[ebp]
	call	?_Myptr@?$_String_val@U?$_Simple_types@D@std@@@std@@QAEPADXZ ; std::_String_val<std::_Simple_types<char> >::_Myptr
	push	eax
	call	?copy@?$char_traits@D@std@@SAPADPADPBDI@Z ; std::char_traits<char>::copy
	add	esp, 12					; 0000000cH

; 1117 : 			_Eos(_Num);

	mov	edx, DWORD PTR __Num$[ebp]
	push	edx
	mov	ecx, DWORD PTR _this$[ebp]
	call	?_Eos@?$basic_string@DU?$char_traits@D@std@@V?$allocator@D@2@@std@@QAEXI@Z ; std::basic_string<char,std::char_traits<char>,std::allocator<char> >::_Eos
$LN2@assign:

; 1118 : 			}
; 1119 : 		return (*this);

	mov	eax, DWORD PTR _this$[ebp]
$LN7@assign:

; 1120 : 		}

	mov	esp, ebp
	pop	ebp
	ret	12					; 0000000cH
?assign@?$basic_string@DU?$char_traits@D@std@@V?$allocator@D@2@@std@@QAEAAV12@ABV12@II@Z ENDP ; std::basic_string<char,std::char_traits<char>,std::allocator<char> >::assign
_TEXT	ENDS
; Function compile flags: /Odtp
; File c:\program files (x86)\microsoft visual studio 11.0\vc\include\xstring
;	COMDAT ??0?$basic_string@DU?$char_traits@D@std@@V?$allocator@D@2@@std@@QAE@PBD@Z
_TEXT	SEGMENT
_this$ = -8						; size = 4
$T1 = -1						; size = 1
__Ptr$ = 8						; size = 4
??0?$basic_string@DU?$char_traits@D@std@@V?$allocator@D@2@@std@@QAE@PBD@Z PROC ; std::basic_string<char,std::char_traits<char>,std::allocator<char> >::basic_string<char,std::char_traits<char>,std::allocator<char> >, COMDAT
; _this$ = ecx

; 791  : 		{	// construct from [_Ptr, <null>)

	push	ebp
	mov	ebp, esp
	sub	esp, 8
	mov	DWORD PTR _this$[ebp], ecx
	lea	ecx, DWORD PTR $T1[ebp]
	call	??0?$allocator@D@std@@QAE@XZ		; std::allocator<char>::allocator<char>
	push	eax
	mov	ecx, DWORD PTR _this$[ebp]
	call	??0?$_String_alloc@$0A@U?$_String_base_types@DV?$allocator@D@std@@@std@@@std@@QAE@ABV?$allocator@D@1@@Z ; std::_String_alloc<0,std::_String_base_types<char,std::allocator<char> > >::_String_alloc<0,std::_String_base_types<char,std::allocator<char> > >

; 792  : 		_Tidy();

	push	0
	push	0
	mov	ecx, DWORD PTR _this$[ebp]
	call	?_Tidy@?$basic_string@DU?$char_traits@D@std@@V?$allocator@D@2@@std@@QAEX_NI@Z ; std::basic_string<char,std::char_traits<char>,std::allocator<char> >::_Tidy

; 793  : 		assign(_Ptr);

	mov	eax, DWORD PTR __Ptr$[ebp]
	push	eax
	mov	ecx, DWORD PTR _this$[ebp]
	call	?assign@?$basic_string@DU?$char_traits@D@std@@V?$allocator@D@2@@std@@QAEAAV12@PBD@Z ; std::basic_string<char,std::char_traits<char>,std::allocator<char> >::assign

; 794  : 		}

	mov	eax, DWORD PTR _this$[ebp]
	mov	esp, ebp
	pop	ebp
	ret	4
??0?$basic_string@DU?$char_traits@D@std@@V?$allocator@D@2@@std@@QAE@PBD@Z ENDP ; std::basic_string<char,std::char_traits<char>,std::allocator<char> >::basic_string<char,std::char_traits<char>,std::allocator<char> >
_TEXT	ENDS
; Function compile flags: /Odtp
; File c:\program files (x86)\microsoft visual studio 11.0\vc\include\xstring
;	COMDAT ?_Getal@?$_String_alloc@$0A@U?$_String_base_types@DV?$allocator@D@std@@@std@@@std@@QBE?AU?$_Wrap_alloc@V?$allocator@D@std@@@2@XZ
_TEXT	SEGMENT
_this$ = -4						; size = 4
___$ReturnUdt$ = 8					; size = 4
?_Getal@?$_String_alloc@$0A@U?$_String_base_types@DV?$allocator@D@std@@@std@@@std@@QBE?AU?$_Wrap_alloc@V?$allocator@D@std@@@2@XZ PROC ; std::_String_alloc<0,std::_String_base_types<char,std::allocator<char> > >::_Getal, COMDAT
; _this$ = ecx

; 688  : 		{	// get reference to allocator

	push	ebp
	mov	ebp, esp
	push	ecx
	mov	DWORD PTR _this$[ebp], ecx

; 689  : 		return (_Alty());

	mov	ecx, DWORD PTR ___$ReturnUdt$[ebp]
	call	??0?$_Wrap_alloc@V?$allocator@D@std@@@std@@QAE@XZ ; std::_Wrap_alloc<std::allocator<char> >::_Wrap_alloc<std::allocator<char> >
	mov	eax, DWORD PTR ___$ReturnUdt$[ebp]

; 690  : 		}

	mov	esp, ebp
	pop	ebp
	ret	4
?_Getal@?$_String_alloc@$0A@U?$_String_base_types@DV?$allocator@D@std@@@std@@@std@@QBE?AU?$_Wrap_alloc@V?$allocator@D@std@@@2@XZ ENDP ; std::_String_alloc<0,std::_String_base_types<char,std::allocator<char> > >::_Getal
_TEXT	ENDS
; Function compile flags: /Odtp
; File c:\program files (x86)\microsoft visual studio 11.0\vc\include\xstring
;	COMDAT ??0?$_String_alloc@$0A@U?$_String_base_types@DV?$allocator@D@std@@@std@@@std@@QAE@ABV?$allocator@D@1@@Z
_TEXT	SEGMENT
_this$ = -4						; size = 4
___formal$ = 8						; size = 4
??0?$_String_alloc@$0A@U?$_String_base_types@DV?$allocator@D@std@@@std@@@std@@QAE@ABV?$allocator@D@1@@Z PROC ; std::_String_alloc<0,std::_String_base_types<char,std::allocator<char> > >::_String_alloc<0,std::_String_base_types<char,std::allocator<char> > >, COMDAT
; _this$ = ecx

; 635  : 	_String_alloc(const _Alloc& = _Alloc())

	push	ebp
	mov	ebp, esp
	push	ecx
	mov	DWORD PTR _this$[ebp], ecx
	mov	ecx, DWORD PTR _this$[ebp]
	call	??0?$_String_val@U?$_Simple_types@D@std@@@std@@QAE@XZ ; std::_String_val<std::_Simple_types<char> >::_String_val<std::_Simple_types<char> >

; 636  : 		{	// construct allocator from _Al
; 637  : 		}

	mov	eax, DWORD PTR _this$[ebp]
	mov	esp, ebp
	pop	ebp
	ret	4
??0?$_String_alloc@$0A@U?$_String_base_types@DV?$allocator@D@std@@@std@@@std@@QAE@ABV?$allocator@D@1@@Z ENDP ; std::_String_alloc<0,std::_String_base_types<char,std::allocator<char> > >::_String_alloc<0,std::_String_base_types<char,std::allocator<char> > >
_TEXT	ENDS
; Function compile flags: /Odtp
; File c:\program files (x86)\microsoft visual studio 11.0\vc\include\xstring
;	COMDAT ?_Myptr@?$_String_val@U?$_Simple_types@D@std@@@std@@QBEPBDXZ
_TEXT	SEGMENT
tv72 = -8						; size = 4
_this$ = -4						; size = 4
?_Myptr@?$_String_val@U?$_Simple_types@D@std@@@std@@QBEPBDXZ PROC ; std::_String_val<std::_Simple_types<char> >::_Myptr, COMDAT
; _this$ = ecx

; 521  : 		{	// determine current pointer to buffer for nonmutable string

	push	ebp
	mov	ebp, esp
	sub	esp, 8
	mov	DWORD PTR _this$[ebp], ecx

; 522  : 		return (this->_BUF_SIZE <= this->_Myres
; 523  : 			? _STD addressof(*this->_Bx._Ptr)
; 524  : 			: this->_Bx._Buf);

	mov	eax, DWORD PTR _this$[ebp]
	cmp	DWORD PTR [eax+20], 16			; 00000010H
	jb	SHORT $LN3@Myptr
	mov	ecx, DWORD PTR _this$[ebp]
	mov	edx, DWORD PTR [ecx]
	push	edx
	call	??$addressof@D@std@@YAPADAAD@Z		; std::addressof<char>
	add	esp, 4
	mov	DWORD PTR tv72[ebp], eax
	jmp	SHORT $LN4@Myptr
$LN3@Myptr:
	mov	eax, DWORD PTR _this$[ebp]
	mov	DWORD PTR tv72[ebp], eax
$LN4@Myptr:
	mov	eax, DWORD PTR tv72[ebp]

; 525  : 		}

	mov	esp, ebp
	pop	ebp
	ret	0
?_Myptr@?$_String_val@U?$_Simple_types@D@std@@@std@@QBEPBDXZ ENDP ; std::_String_val<std::_Simple_types<char> >::_Myptr
_TEXT	ENDS
; Function compile flags: /Odtp
; File c:\program files (x86)\microsoft visual studio 11.0\vc\include\xstring
;	COMDAT ?_Myptr@?$_String_val@U?$_Simple_types@D@std@@@std@@QAEPADXZ
_TEXT	SEGMENT
tv72 = -8						; size = 4
_this$ = -4						; size = 4
?_Myptr@?$_String_val@U?$_Simple_types@D@std@@@std@@QAEPADXZ PROC ; std::_String_val<std::_Simple_types<char> >::_Myptr, COMDAT
; _this$ = ecx

; 514  : 		{	// determine current pointer to buffer for mutable string

	push	ebp
	mov	ebp, esp
	sub	esp, 8
	mov	DWORD PTR _this$[ebp], ecx

; 515  : 		return (this->_BUF_SIZE <= this->_Myres
; 516  : 			? _STD addressof(*this->_Bx._Ptr)
; 517  : 			: this->_Bx._Buf);

	mov	eax, DWORD PTR _this$[ebp]
	cmp	DWORD PTR [eax+20], 16			; 00000010H
	jb	SHORT $LN3@Myptr
	mov	ecx, DWORD PTR _this$[ebp]
	mov	edx, DWORD PTR [ecx]
	push	edx
	call	??$addressof@D@std@@YAPADAAD@Z		; std::addressof<char>
	add	esp, 4
	mov	DWORD PTR tv72[ebp], eax
	jmp	SHORT $LN4@Myptr
$LN3@Myptr:
	mov	eax, DWORD PTR _this$[ebp]
	mov	DWORD PTR tv72[ebp], eax
$LN4@Myptr:
	mov	eax, DWORD PTR tv72[ebp]

; 518  : 		}

	mov	esp, ebp
	pop	ebp
	ret	0
?_Myptr@?$_String_val@U?$_Simple_types@D@std@@@std@@QAEPADXZ ENDP ; std::_String_val<std::_Simple_types<char> >::_Myptr
_TEXT	ENDS
; Function compile flags: /Odtp
; File c:\program files (x86)\microsoft visual studio 11.0\vc\include\xstring
;	COMDAT ??0?$_String_val@U?$_Simple_types@D@std@@@std@@QAE@XZ
_TEXT	SEGMENT
_this$ = -4						; size = 4
??0?$_String_val@U?$_Simple_types@D@std@@@std@@QAE@XZ PROC ; std::_String_val<std::_Simple_types<char> >::_String_val<std::_Simple_types<char> >, COMDAT
; _this$ = ecx

; 496  : 	_String_val()

	push	ebp
	mov	ebp, esp
	push	ecx
	mov	DWORD PTR _this$[ebp], ecx

; 497  : 		{	// initialize values
; 498  : 		_Mysize = 0;

	mov	eax, DWORD PTR _this$[ebp]
	mov	DWORD PTR [eax+16], 0

; 499  : 		_Myres = 0;

	mov	ecx, DWORD PTR _this$[ebp]
	mov	DWORD PTR [ecx+20], 0

; 500  : 		}

	mov	eax, DWORD PTR _this$[ebp]
	mov	esp, ebp
	pop	ebp
	ret	0
??0?$_String_val@U?$_Simple_types@D@std@@@std@@QAE@XZ ENDP ; std::_String_val<std::_Simple_types<char> >::_String_val<std::_Simple_types<char> >
_TEXT	ENDS
; Function compile flags: /Odtp
; File c:\program files (x86)\microsoft visual studio 11.0\vc\include\xmemory0
;	COMDAT ?max_size@?$_Wrap_alloc@V?$allocator@D@std@@@std@@QBEIXZ
_TEXT	SEGMENT
_this$ = -4						; size = 4
?max_size@?$_Wrap_alloc@V?$allocator@D@std@@@std@@QBEIXZ PROC ; std::_Wrap_alloc<std::allocator<char> >::max_size, COMDAT
; _this$ = ecx

; 913  : 		{	// get maximum size

	push	ebp
	mov	ebp, esp
	push	ecx
	mov	DWORD PTR _this$[ebp], ecx

; 914  : 		return (_Mytraits::max_size(*this));

	mov	eax, DWORD PTR _this$[ebp]
	push	eax
	call	?max_size@?$allocator_traits@V?$allocator@D@std@@@std@@SAIABV?$allocator@D@2@@Z ; std::allocator_traits<std::allocator<char> >::max_size
	add	esp, 4

; 915  : 		}

	mov	esp, ebp
	pop	ebp
	ret	0
?max_size@?$_Wrap_alloc@V?$allocator@D@std@@@std@@QBEIXZ ENDP ; std::_Wrap_alloc<std::allocator<char> >::max_size
_TEXT	ENDS
; Function compile flags: /Odtp
; File c:\program files (x86)\microsoft visual studio 11.0\vc\include\xmemory0
;	COMDAT ?deallocate@?$_Wrap_alloc@V?$allocator@D@std@@@std@@QAEXPADI@Z
_TEXT	SEGMENT
_this$ = -4						; size = 4
__Ptr$ = 8						; size = 4
__Count$ = 12						; size = 4
?deallocate@?$_Wrap_alloc@V?$allocator@D@std@@@std@@QAEXPADI@Z PROC ; std::_Wrap_alloc<std::allocator<char> >::deallocate, COMDAT
; _this$ = ecx

; 886  : 		{	// deallocate object at _Ptr, ignore size

	push	ebp
	mov	ebp, esp
	push	ecx
	mov	DWORD PTR _this$[ebp], ecx

; 887  : 		_Mybase::deallocate(_Ptr, _Count);

	mov	eax, DWORD PTR __Count$[ebp]
	push	eax
	mov	ecx, DWORD PTR __Ptr$[ebp]
	push	ecx
	mov	ecx, DWORD PTR _this$[ebp]
	call	?deallocate@?$allocator@D@std@@QAEXPADI@Z ; std::allocator<char>::deallocate

; 888  : 		}

	mov	esp, ebp
	pop	ebp
	ret	8
?deallocate@?$_Wrap_alloc@V?$allocator@D@std@@@std@@QAEXPADI@Z ENDP ; std::_Wrap_alloc<std::allocator<char> >::deallocate
_TEXT	ENDS
; Function compile flags: /Odtp
; File c:\program files (x86)\microsoft visual studio 11.0\vc\include\xmemory0
;	COMDAT ?allocate@?$_Wrap_alloc@V?$allocator@D@std@@@std@@QAEPADI@Z
_TEXT	SEGMENT
_this$ = -4						; size = 4
__Count$ = 8						; size = 4
?allocate@?$_Wrap_alloc@V?$allocator@D@std@@@std@@QAEPADI@Z PROC ; std::_Wrap_alloc<std::allocator<char> >::allocate, COMDAT
; _this$ = ecx

; 875  : 		{	// allocate array of _Count elements

	push	ebp
	mov	ebp, esp
	push	ecx
	mov	DWORD PTR _this$[ebp], ecx

; 876  : 		return (_Mybase::allocate(_Count));

	mov	eax, DWORD PTR __Count$[ebp]
	push	eax
	mov	ecx, DWORD PTR _this$[ebp]
	call	?allocate@?$allocator@D@std@@QAEPADI@Z	; std::allocator<char>::allocate

; 877  : 		}

	mov	esp, ebp
	pop	ebp
	ret	4
?allocate@?$_Wrap_alloc@V?$allocator@D@std@@@std@@QAEPADI@Z ENDP ; std::_Wrap_alloc<std::allocator<char> >::allocate
_TEXT	ENDS
; Function compile flags: /Odtp
; File c:\program files (x86)\microsoft visual studio 11.0\vc\include\xmemory0
;	COMDAT ??0?$_Wrap_alloc@V?$allocator@D@std@@@std@@QAE@XZ
_TEXT	SEGMENT
_this$ = -4						; size = 4
??0?$_Wrap_alloc@V?$allocator@D@std@@@std@@QAE@XZ PROC	; std::_Wrap_alloc<std::allocator<char> >::_Wrap_alloc<std::allocator<char> >, COMDAT
; _this$ = ecx

; 830  : 		{	// construct default allocator (do nothing)

	push	ebp
	mov	ebp, esp
	push	ecx
	mov	DWORD PTR _this$[ebp], ecx
	mov	ecx, DWORD PTR _this$[ebp]
	call	??0?$allocator@D@std@@QAE@XZ		; std::allocator<char>::allocator<char>

; 831  : 		}

	mov	eax, DWORD PTR _this$[ebp]
	mov	esp, ebp
	pop	ebp
	ret	0
??0?$_Wrap_alloc@V?$allocator@D@std@@@std@@QAE@XZ ENDP	; std::_Wrap_alloc<std::allocator<char> >::_Wrap_alloc<std::allocator<char> >
_TEXT	ENDS
; Function compile flags: /Odtp
; File c:\program files (x86)\microsoft visual studio 11.0\vc\include\xmemory0
;	COMDAT ?max_size@?$allocator_traits@V?$allocator@D@std@@@std@@SAIABV?$allocator@D@2@@Z
_TEXT	SEGMENT
__Al$ = 8						; size = 4
?max_size@?$allocator_traits@V?$allocator@D@std@@@std@@SAIABV?$allocator@D@2@@Z PROC ; std::allocator_traits<std::allocator<char> >::max_size, COMDAT

; 761  : 		{	// get maximum size

	push	ebp
	mov	ebp, esp

; 762  : 		return (_Al.max_size());

	mov	ecx, DWORD PTR __Al$[ebp]
	call	?max_size@?$allocator@D@std@@QBEIXZ	; std::allocator<char>::max_size

; 763  : 		}

	pop	ebp
	ret	0
?max_size@?$allocator_traits@V?$allocator@D@std@@@std@@SAIABV?$allocator@D@2@@Z ENDP ; std::allocator_traits<std::allocator<char> >::max_size
_TEXT	ENDS
; Function compile flags: /Odtp
; File c:\program files (x86)\microsoft visual studio 11.0\vc\include\xmemory0
;	COMDAT ?max_size@?$allocator@D@std@@QBEIXZ
_TEXT	SEGMENT
_this$ = -4						; size = 4
?max_size@?$allocator@D@std@@QBEIXZ PROC		; std::allocator<char>::max_size, COMDAT
; _this$ = ecx

; 627  : 		{	// estimate maximum array size

	push	ebp
	mov	ebp, esp
	push	ecx
	mov	DWORD PTR _this$[ebp], ecx

; 628  : 		return ((size_t)(-1) / sizeof (_Ty));

	or	eax, -1

; 629  : 		}

	mov	esp, ebp
	pop	ebp
	ret	0
?max_size@?$allocator@D@std@@QBEIXZ ENDP		; std::allocator<char>::max_size
_TEXT	ENDS
; Function compile flags: /Odtp
; File c:\program files (x86)\microsoft visual studio 11.0\vc\include\xmemory0
;	COMDAT ?allocate@?$allocator@D@std@@QAEPADI@Z
_TEXT	SEGMENT
_this$ = -4						; size = 4
__Count$ = 8						; size = 4
?allocate@?$allocator@D@std@@QAEPADI@Z PROC		; std::allocator<char>::allocate, COMDAT
; _this$ = ecx

; 590  : 		{	// allocate array of _Count elements

	push	ebp
	mov	ebp, esp
	push	ecx
	mov	DWORD PTR _this$[ebp], ecx

; 591  : 		return (_Allocate(_Count, (pointer)0));

	push	0
	mov	eax, DWORD PTR __Count$[ebp]
	push	eax
	call	??$_Allocate@D@std@@YAPADIPAD@Z		; std::_Allocate<char>
	add	esp, 8

; 592  : 		}

	mov	esp, ebp
	pop	ebp
	ret	4
?allocate@?$allocator@D@std@@QAEPADI@Z ENDP		; std::allocator<char>::allocate
_TEXT	ENDS
; Function compile flags: /Odtp
; File c:\program files (x86)\microsoft visual studio 11.0\vc\include\xmemory0
;	COMDAT ?deallocate@?$allocator@D@std@@QAEXPADI@Z
_TEXT	SEGMENT
_this$ = -4						; size = 4
__Ptr$ = 8						; size = 4
___formal$ = 12						; size = 4
?deallocate@?$allocator@D@std@@QAEXPADI@Z PROC		; std::allocator<char>::deallocate, COMDAT
; _this$ = ecx

; 585  : 		{	// deallocate object at _Ptr, ignore size

	push	ebp
	mov	ebp, esp
	push	ecx
	mov	DWORD PTR _this$[ebp], ecx

; 586  : 		::operator delete(_Ptr);

	mov	eax, DWORD PTR __Ptr$[ebp]
	push	eax
	call	??3@YAXPAX@Z				; operator delete
	add	esp, 4

; 587  : 		}

	mov	esp, ebp
	pop	ebp
	ret	8
?deallocate@?$allocator@D@std@@QAEXPADI@Z ENDP		; std::allocator<char>::deallocate
_TEXT	ENDS
; Function compile flags: /Odtp
; File c:\program files (x86)\microsoft visual studio 11.0\vc\include\xmemory0
;	COMDAT ??0?$allocator@D@std@@QAE@XZ
_TEXT	SEGMENT
_this$ = -4						; size = 4
??0?$allocator@D@std@@QAE@XZ PROC			; std::allocator<char>::allocator<char>, COMDAT
; _this$ = ecx

; 565  : 	allocator() _THROW0()

	push	ebp
	mov	ebp, esp
	push	ecx
	mov	DWORD PTR _this$[ebp], ecx

; 566  : 		{	// construct default allocator (do nothing)
; 567  : 		}

	mov	eax, DWORD PTR _this$[ebp]
	mov	esp, ebp
	pop	ebp
	ret	0
??0?$allocator@D@std@@QAE@XZ ENDP			; std::allocator<char>::allocator<char>
_TEXT	ENDS
; Function compile flags: /Odtp
; File c:\program files (x86)\microsoft visual studio 11.0\vc\include\xutility
;	COMDAT ??__Eallocator_arg@std@@YAXXZ
text$yc	SEGMENT
$T1 = -1						; size = 1
??__Eallocator_arg@std@@YAXXZ PROC			; std::`dynamic initializer for 'allocator_arg'', COMDAT

; 3644 : const allocator_arg_t allocator_arg = allocator_arg_t();

	push	ebp
	mov	ebp, esp
	push	ecx
	xor	eax, eax
	mov	BYTE PTR $T1[ebp], al
	mov	esp, ebp
	pop	ebp
	ret	0
??__Eallocator_arg@std@@YAXXZ ENDP			; std::`dynamic initializer for 'allocator_arg''
text$yc	ENDS
; Function compile flags: /Odtp
; File c:\program files (x86)\microsoft visual studio 11.0\vc\include\utility
;	COMDAT ??__Epiecewise_construct@std@@YAXXZ
text$yc	SEGMENT
$T1 = -1						; size = 1
??__Epiecewise_construct@std@@YAXXZ PROC		; std::`dynamic initializer for 'piecewise_construct'', COMDAT

; 65   : 	piecewise_construct_t();

	push	ebp
	mov	ebp, esp
	push	ecx
	xor	eax, eax
	mov	BYTE PTR $T1[ebp], al
	mov	esp, ebp
	pop	ebp
	ret	0
??__Epiecewise_construct@std@@YAXXZ ENDP		; std::`dynamic initializer for 'piecewise_construct''
text$yc	ENDS
; Function compile flags: /Odtp
; File c:\program files (x86)\microsoft visual studio 11.0\vc\include\iosfwd
;	COMDAT ?assign@?$char_traits@D@std@@SAXAADABD@Z
_TEXT	SEGMENT
__Left$ = 8						; size = 4
__Right$ = 12						; size = 4
?assign@?$char_traits@D@std@@SAXAADABD@Z PROC		; std::char_traits<char>::assign, COMDAT

; 563  : 		{	// assign an element

	push	ebp
	mov	ebp, esp

; 564  : 		_Left = _Right;

	mov	eax, DWORD PTR __Left$[ebp]
	mov	ecx, DWORD PTR __Right$[ebp]
	mov	dl, BYTE PTR [ecx]
	mov	BYTE PTR [eax], dl

; 565  : 		}

	pop	ebp
	ret	0
?assign@?$char_traits@D@std@@SAXAADABD@Z ENDP		; std::char_traits<char>::assign
_TEXT	ENDS
; Function compile flags: /Odtp
; File c:\program files (x86)\microsoft visual studio 11.0\vc\include\iosfwd
;	COMDAT ?move@?$char_traits@D@std@@SAPADPADPBDI@Z
_TEXT	SEGMENT
tv69 = -4						; size = 4
__First1$ = 8						; size = 4
__First2$ = 12						; size = 4
__Count$ = 16						; size = 4
?move@?$char_traits@D@std@@SAPADPADPBDI@Z PROC		; std::char_traits<char>::move, COMDAT

; 551  : 		{	// copy [_First2, _First2 + _Count) to [_First1, ...)

	push	ebp
	mov	ebp, esp
	push	ecx

; 552  : 		return (_Count == 0 ? _First1
; 553  : 			: (_Elem *)_CSTD memmove(_First1, _First2, _Count));

	cmp	DWORD PTR __Count$[ebp], 0
	jne	SHORT $LN3@move
	mov	eax, DWORD PTR __First1$[ebp]
	mov	DWORD PTR tv69[ebp], eax
	jmp	SHORT $LN4@move
$LN3@move:
	mov	ecx, DWORD PTR __Count$[ebp]
	push	ecx
	mov	edx, DWORD PTR __First2$[ebp]
	push	edx
	mov	eax, DWORD PTR __First1$[ebp]
	push	eax
	call	_memmove
	add	esp, 12					; 0000000cH
	mov	DWORD PTR tv69[ebp], eax
$LN4@move:
	mov	eax, DWORD PTR tv69[ebp]

; 554  : 		}

	mov	esp, ebp
	pop	ebp
	ret	0
?move@?$char_traits@D@std@@SAPADPADPBDI@Z ENDP		; std::char_traits<char>::move
_TEXT	ENDS
; Function compile flags: /Odtp
; File c:\program files (x86)\microsoft visual studio 11.0\vc\include\iosfwd
;	COMDAT ?copy@?$char_traits@D@std@@SAPADPADPBDI@Z
_TEXT	SEGMENT
tv69 = -4						; size = 4
__First1$ = 8						; size = 4
__First2$ = 12						; size = 4
__Count$ = 16						; size = 4
?copy@?$char_traits@D@std@@SAPADPADPBDI@Z PROC		; std::char_traits<char>::copy, COMDAT

; 528  : 		{	// copy [_First2, _First2 + _Count) to [_First1, ...)

	push	ebp
	mov	ebp, esp
	push	ecx

; 529  : 		return (_Count == 0 ? _First1
; 530  : 			: (_Elem *)_CSTD memcpy(_First1, _First2, _Count));

	cmp	DWORD PTR __Count$[ebp], 0
	jne	SHORT $LN3@copy
	mov	eax, DWORD PTR __First1$[ebp]
	mov	DWORD PTR tv69[ebp], eax
	jmp	SHORT $LN4@copy
$LN3@copy:
	mov	ecx, DWORD PTR __Count$[ebp]
	push	ecx
	mov	edx, DWORD PTR __First2$[ebp]
	push	edx
	mov	eax, DWORD PTR __First1$[ebp]
	push	eax
	call	_memcpy
	add	esp, 12					; 0000000cH
	mov	DWORD PTR tv69[ebp], eax
$LN4@copy:
	mov	eax, DWORD PTR tv69[ebp]

; 531  : 		}

	mov	esp, ebp
	pop	ebp
	ret	0
?copy@?$char_traits@D@std@@SAPADPADPBDI@Z ENDP		; std::char_traits<char>::copy
_TEXT	ENDS
; Function compile flags: /Odtp
; File c:\program files (x86)\microsoft visual studio 11.0\vc\include\iosfwd
;	COMDAT ?length@?$char_traits@D@std@@SAIPBD@Z
_TEXT	SEGMENT
tv68 = -4						; size = 4
__First$ = 8						; size = 4
?length@?$char_traits@D@std@@SAIPBD@Z PROC		; std::char_traits<char>::length, COMDAT

; 521  : 		{	// find length of null-terminated string

	push	ebp
	mov	ebp, esp
	push	ecx

; 522  : 		return (*_First == 0 ? 0
; 523  : 			: _CSTD strlen(_First));

	mov	eax, DWORD PTR __First$[ebp]
	movsx	ecx, BYTE PTR [eax]
	test	ecx, ecx
	jne	SHORT $LN3@length
	mov	DWORD PTR tv68[ebp], 0
	jmp	SHORT $LN4@length
$LN3@length:
	mov	edx, DWORD PTR __First$[ebp]
	push	edx
	call	_strlen
	add	esp, 4
	mov	DWORD PTR tv68[ebp], eax
$LN4@length:
	mov	eax, DWORD PTR tv68[ebp]

; 524  : 		}

	mov	esp, ebp
	pop	ebp
	ret	0
?length@?$char_traits@D@std@@SAIPBD@Z ENDP		; std::char_traits<char>::length
_TEXT	ENDS
; Function compile flags: /Odtp
; File c:\program files (x86)\microsoft visual studio 11.0\vc\include\new
;	COMDAT ??3@YAXPAX0@Z
_TEXT	SEGMENT
___formal$ = 8						; size = 4
___formal$ = 12						; size = 4
??3@YAXPAX0@Z PROC					; operator delete, COMDAT

; 64   : 	{	// delete if placement new fails

	push	ebp
	mov	ebp, esp

; 65   : 	}

	pop	ebp
	ret	0
??3@YAXPAX0@Z ENDP					; operator delete
_TEXT	ENDS
; Function compile flags: /Odtp
; File c:\program files (x86)\microsoft visual studio 11.0\vc\include\new
;	COMDAT ??2@YAPAXIPAX@Z
_TEXT	SEGMENT
___formal$ = 8						; size = 4
__Where$ = 12						; size = 4
??2@YAPAXIPAX@Z PROC					; operator new, COMDAT

; 59   : 	{	// construct array with placement at _Where

	push	ebp
	mov	ebp, esp

; 60   : 	return (_Where);

	mov	eax, DWORD PTR __Where$[ebp]

; 61   : 	}

	pop	ebp
	ret	0
??2@YAPAXIPAX@Z ENDP					; operator new
_TEXT	ENDS
; Function compile flags: /Odtp
; File c:\users\zhitao li\documents\visual studio 2012\projects\freefalcon\vu2\include\vuentity.h
;	COMDAT ?EntityType@VuEntity@@QBEPAUVuEntityType@@XZ
_TEXT	SEGMENT
_this$ = -4						; size = 4
?EntityType@VuEntity@@QBEPAUVuEntityType@@XZ PROC	; VuEntity::EntityType, COMDAT
; _this$ = ecx

; 176  : 	VuEntityType *EntityType() const { return const_cast<VuEntityType*>(entityTypePtr_); }

	push	ebp
	mov	ebp, esp
	push	ecx
	mov	DWORD PTR _this$[ebp], ecx
	mov	eax, DWORD PTR _this$[ebp]
	mov	eax, DWORD PTR [eax+112]
	mov	esp, ebp
	pop	ebp
	ret	0
?EntityType@VuEntity@@QBEPAUVuEntityType@@XZ ENDP	; VuEntity::EntityType
_TEXT	ENDS
; Function compile flags: /Odtp
; File c:\users\zhitao li\documents\visual studio 2012\projects\freefalcon\vu2\include\vuentity.h
;	COMDAT ?ZPos@VuEntity@@QBEMXZ
_TEXT	SEGMENT
_this$ = -4						; size = 4
?ZPos@VuEntity@@QBEMXZ PROC				; VuEntity::ZPos, COMDAT
; _this$ = ecx

; 160  : 	BIG_SCALAR ZPos()	const { return pos_.z_; }

	push	ebp
	mov	ebp, esp
	push	ecx
	mov	DWORD PTR _this$[ebp], ecx
	mov	eax, DWORD PTR _this$[ebp]
	fld	DWORD PTR [eax+44]
	mov	esp, ebp
	pop	ebp
	ret	0
?ZPos@VuEntity@@QBEMXZ ENDP				; VuEntity::ZPos
_TEXT	ENDS
; Function compile flags: /Odtp
; File c:\users\zhitao li\documents\visual studio 2012\projects\freefalcon\vu2\include\vuentity.h
;	COMDAT ?YPos@VuEntity@@QBEMXZ
_TEXT	SEGMENT
_this$ = -4						; size = 4
?YPos@VuEntity@@QBEMXZ PROC				; VuEntity::YPos, COMDAT
; _this$ = ecx

; 159  : 	BIG_SCALAR YPos()	const { return pos_.y_; }

	push	ebp
	mov	ebp, esp
	push	ecx
	mov	DWORD PTR _this$[ebp], ecx
	mov	eax, DWORD PTR _this$[ebp]
	fld	DWORD PTR [eax+40]
	mov	esp, ebp
	pop	ebp
	ret	0
?YPos@VuEntity@@QBEMXZ ENDP				; VuEntity::YPos
_TEXT	ENDS
; Function compile flags: /Odtp
; File c:\users\zhitao li\documents\visual studio 2012\projects\freefalcon\vu2\include\vuentity.h
;	COMDAT ?XPos@VuEntity@@QBEMXZ
_TEXT	SEGMENT
_this$ = -4						; size = 4
?XPos@VuEntity@@QBEMXZ PROC				; VuEntity::XPos, COMDAT
; _this$ = ecx

; 158  : 	BIG_SCALAR XPos() const { return pos_.x_; }

	push	ebp
	mov	ebp, esp
	push	ecx
	mov	DWORD PTR _this$[ebp], ecx
	mov	eax, DWORD PTR _this$[ebp]
	fld	DWORD PTR [eax+36]
	mov	esp, ebp
	pop	ebp
	ret	0
?XPos@VuEntity@@QBEMXZ ENDP				; VuEntity::XPos
_TEXT	ENDS
; Function compile flags: /Odtp
; File c:\users\zhitao li\documents\visual studio 2012\projects\freefalcon\vu2\include\vuentity.h
;	COMDAT ?Type@VuEntity@@QBEGXZ
_TEXT	SEGMENT
_this$ = -4						; size = 4
?Type@VuEntity@@QBEGXZ PROC				; VuEntity::Type, COMDAT
; _this$ = ecx

; 154  : 	ushort Type() const       { return share_.entityType_; }

	push	ebp
	mov	ebp, esp
	push	ecx
	mov	DWORD PTR _this$[ebp], ecx
	mov	eax, DWORD PTR _this$[ebp]
	mov	ax, WORD PTR [eax+4]
	mov	esp, ebp
	pop	ebp
	ret	0
?Type@VuEntity@@QBEGXZ ENDP				; VuEntity::Type
_TEXT	ENDS
; Function compile flags: /Odtp
; File c:\users\zhitao li\documents\visual studio 2012\projects\freefalcon\vu2\include\vuentity.h
;	COMDAT ?Id@VuEntity@@QBE?AVVU_ID@@XZ
_TEXT	SEGMENT
_this$ = -4						; size = 4
___$ReturnUdt$ = 8					; size = 4
?Id@VuEntity@@QBE?AVVU_ID@@XZ PROC			; VuEntity::Id, COMDAT
; _this$ = ecx

; 131  : 	VU_ID Id() const	{ return share_.id_; }

	push	ebp
	mov	ebp, esp
	push	ecx
	mov	DWORD PTR _this$[ebp], ecx
	mov	eax, DWORD PTR _this$[ebp]
	mov	ecx, DWORD PTR [eax+12]
	mov	edx, DWORD PTR [eax+16]
	mov	eax, DWORD PTR ___$ReturnUdt$[ebp]
	mov	DWORD PTR [eax], ecx
	mov	DWORD PTR [eax+4], edx
	mov	eax, DWORD PTR ___$ReturnUdt$[ebp]
	mov	esp, ebp
	pop	ebp
	ret	4
?Id@VuEntity@@QBE?AVVU_ID@@XZ ENDP			; VuEntity::Id
_TEXT	ENDS
; Function compile flags: /Odtp
; File c:\users\zhitao li\documents\visual studio 2012\projects\freefalcon\mathlib\math.h
_TEXT	SEGMENT
_x$ = 8							; size = 4
?SqrtSSE@@YAMM@Z PROC					; SqrtSSE

; 91   : static inline float SqrtSSE(float x){ 

	push	ebp
	mov	ebp, esp

; 92   :     __asm 
; 93   :     { 
; 94   :         sqrtss xmm0,x 

	sqrtss	xmm0, DWORD PTR _x$[ebp]

; 95   :         movss x,xmm0 

	movss	XMMWORD PTR _x$[ebp], xmm0

; 96   :     } 
; 97   : 
; 98   :     return x; 

	fld	DWORD PTR _x$[ebp]

; 99   : } 

	pop	ebp
	ret	0
?SqrtSSE@@YAMM@Z ENDP					; SqrtSSE
_TEXT	ENDS
; Function compile flags: /Odtp
; File c:\program files (x86)\microsoft visual studio 11.0\vc\include\math.h
;	COMDAT ?cos@@YAMM@Z
_TEXT	SEGMENT
__X$ = 8						; size = 4
?cos@@YAMM@Z PROC					; cos, COMDAT

; 511  :         {return (cosf(_X)); }

	push	ebp
	mov	ebp, esp
	push	ecx
	movss	xmm0, DWORD PTR __X$[ebp]
	movss	DWORD PTR [esp], xmm0
	call	_cosf
	add	esp, 4
	pop	ebp
	ret	0
?cos@@YAMM@Z ENDP					; cos
_TEXT	ENDS
; Function compile flags: /Odtp
; File c:\program files (x86)\microsoft visual studio 11.0\vc\include\math.h
;	COMDAT _cosf
_TEXT	SEGMENT
tv74 = -12						; size = 8
tv76 = -4						; size = 4
__X$ = 8						; size = 4
_cosf	PROC						; COMDAT

; 410  :         {return ((float)cos((double)_X)); }

	push	ebp
	mov	ebp, esp
	sub	esp, 12					; 0000000cH
	cvtss2sd xmm0, DWORD PTR __X$[ebp]
	sub	esp, 8
	movsd	QWORD PTR [esp], xmm0
	call	_cos
	add	esp, 8
	fstp	QWORD PTR tv74[ebp]
	movsd	xmm0, QWORD PTR tv74[ebp]
	cvtsd2ss xmm0, xmm0
	movss	DWORD PTR tv76[ebp], xmm0
	fld	DWORD PTR tv76[ebp]
	mov	esp, ebp
	pop	ebp
	ret	0
_cosf	ENDP
_TEXT	ENDS
END
