; Listing generated by Microsoft (R) Optimizing Compiler Version 17.00.51106.1 

	TITLE	C:\Users\Zhitao Li\Documents\Visual Studio 2012\Projects\Freefalcon\SIM\DISPLAYS\Sms.cpp
	.686P
	.XMM
	include listing.inc
	.model	flat

INCLUDELIB LIBCMT
INCLUDELIB OLDNAMES

PUBLIC	?traps@_Num_base@std@@2_NB			; std::_Num_base::traps
PUBLIC	?round_style@_Num_base@std@@2W4float_round_style@2@B ; std::_Num_base::round_style
PUBLIC	?digits@_Num_base@std@@2HB			; std::_Num_base::digits
PUBLIC	?digits10@_Num_base@std@@2HB			; std::_Num_base::digits10
PUBLIC	?table_size@?$ctype@D@std@@2IB			; std::ctype<char>::table_size
PUBLIC	?max_digits10@_Num_base@std@@2HB		; std::_Num_base::max_digits10
PUBLIC	?max_exponent@_Num_base@std@@2HB		; std::_Num_base::max_exponent
PUBLIC	?max_exponent10@_Num_base@std@@2HB		; std::_Num_base::max_exponent10
PUBLIC	?min_exponent@_Num_base@std@@2HB		; std::_Num_base::min_exponent
PUBLIC	?min_exponent10@_Num_base@std@@2HB		; std::_Num_base::min_exponent10
PUBLIC	?radix@_Num_base@std@@2HB			; std::_Num_base::radix
PUBLIC	?is_bounded@_Num_int_base@std@@2_NB		; std::_Num_int_base::is_bounded
PUBLIC	?is_exact@_Num_int_base@std@@2_NB		; std::_Num_int_base::is_exact
PUBLIC	?is_integer@_Num_int_base@std@@2_NB		; std::_Num_int_base::is_integer
PUBLIC	?is_modulo@_Num_int_base@std@@2_NB		; std::_Num_int_base::is_modulo
PUBLIC	?is_specialized@_Num_int_base@std@@2_NB		; std::_Num_int_base::is_specialized
PUBLIC	?radix@_Num_int_base@std@@2HB			; std::_Num_int_base::radix
PUBLIC	?has_denorm@_Num_float_base@std@@2W4float_denorm_style@2@B ; std::_Num_float_base::has_denorm
PUBLIC	?has_denorm_loss@_Num_float_base@std@@2_NB	; std::_Num_float_base::has_denorm_loss
PUBLIC	?SIMDIRTYDATA_INTERVAL@FalconEntity@@2KB	; FalconEntity::SIMDIRTYDATA_INTERVAL
PUBLIC	?CMPDIRTYDATA_INTERVAL@FalconEntity@@2KB	; FalconEntity::CMPDIRTYDATA_INTERVAL
PUBLIC	?has_infinity@_Num_float_base@std@@2_NB		; std::_Num_float_base::has_infinity
PUBLIC	?has_quiet_NaN@_Num_float_base@std@@2_NB	; std::_Num_float_base::has_quiet_NaN
PUBLIC	?has_signaling_NaN@_Num_float_base@std@@2_NB	; std::_Num_float_base::has_signaling_NaN
PUBLIC	?is_bounded@_Num_float_base@std@@2_NB		; std::_Num_float_base::is_bounded
PUBLIC	?is_exact@_Num_float_base@std@@2_NB		; std::_Num_float_base::is_exact
PUBLIC	?is_iec559@_Num_float_base@std@@2_NB		; std::_Num_float_base::is_iec559
PUBLIC	?is_integer@_Num_float_base@std@@2_NB		; std::_Num_float_base::is_integer
PUBLIC	?is_modulo@_Num_float_base@std@@2_NB		; std::_Num_float_base::is_modulo
PUBLIC	?is_signed@_Num_float_base@std@@2_NB		; std::_Num_float_base::is_signed
PUBLIC	?is_specialized@_Num_float_base@std@@2_NB	; std::_Num_float_base::is_specialized
PUBLIC	?tinyness_before@_Num_float_base@std@@2_NB	; std::_Num_float_base::tinyness_before
PUBLIC	?traps@_Num_float_base@std@@2_NB		; std::_Num_float_base::traps
PUBLIC	?round_style@_Num_float_base@std@@2W4float_round_style@2@B ; std::_Num_float_base::round_style
PUBLIC	?radix@_Num_float_base@std@@2HB			; std::_Num_float_base::radix
PUBLIC	?is_signed@?$numeric_limits@D@std@@2_NB		; std::numeric_limits<char>::is_signed
PUBLIC	?digits@?$numeric_limits@D@std@@2HB		; std::numeric_limits<char>::digits
PUBLIC	?digits10@?$numeric_limits@D@std@@2HB		; std::numeric_limits<char>::digits10
PUBLIC	?is_signed@?$numeric_limits@_W@std@@2_NB	; std::numeric_limits<wchar_t>::is_signed
PUBLIC	?digits@?$numeric_limits@_W@std@@2HB		; std::numeric_limits<wchar_t>::digits
PUBLIC	?digits10@?$numeric_limits@_W@std@@2HB		; std::numeric_limits<wchar_t>::digits10
PUBLIC	?is_modulo@?$numeric_limits@_N@std@@2_NB	; std::numeric_limits<bool>::is_modulo
PUBLIC	?is_signed@?$numeric_limits@_N@std@@2_NB	; std::numeric_limits<bool>::is_signed
PUBLIC	?digits@?$numeric_limits@_N@std@@2HB		; std::numeric_limits<bool>::digits
PUBLIC	?digits10@?$numeric_limits@_N@std@@2HB		; std::numeric_limits<bool>::digits10
PUBLIC	?is_signed@?$numeric_limits@C@std@@2_NB		; std::numeric_limits<signed char>::is_signed
PUBLIC	?digits@?$numeric_limits@C@std@@2HB		; std::numeric_limits<signed char>::digits
PUBLIC	?digits10@?$numeric_limits@C@std@@2HB		; std::numeric_limits<signed char>::digits10
PUBLIC	?is_signed@?$numeric_limits@E@std@@2_NB		; std::numeric_limits<unsigned char>::is_signed
PUBLIC	?value@?$integral_constant@_N$0A@@std@@2_NB	; std::integral_constant<bool,0>::value
PUBLIC	?digits@?$numeric_limits@E@std@@2HB		; std::numeric_limits<unsigned char>::digits
PUBLIC	?digits10@?$numeric_limits@E@std@@2HB		; std::numeric_limits<unsigned char>::digits10
PUBLIC	?value@?$integral_constant@_N$00@std@@2_NB	; std::integral_constant<bool,1>::value
PUBLIC	?is_signed@?$numeric_limits@F@std@@2_NB		; std::numeric_limits<short>::is_signed
PUBLIC	?digits@?$numeric_limits@F@std@@2HB		; std::numeric_limits<short>::digits
PUBLIC	?digits10@?$numeric_limits@F@std@@2HB		; std::numeric_limits<short>::digits10
PUBLIC	?is_signed@?$numeric_limits@G@std@@2_NB		; std::numeric_limits<unsigned short>::is_signed
PUBLIC	?digits@?$numeric_limits@G@std@@2HB		; std::numeric_limits<unsigned short>::digits
PUBLIC	?digits10@?$numeric_limits@G@std@@2HB		; std::numeric_limits<unsigned short>::digits10
PUBLIC	?is_signed@?$numeric_limits@H@std@@2_NB		; std::numeric_limits<int>::is_signed
PUBLIC	?value@?$_Sizeof@HU_Nil@std@@U12@U12@U12@U12@U12@U12@@std@@2IB ; std::_Sizeof<int,std::_Nil,std::_Nil,std::_Nil,std::_Nil,std::_Nil,std::_Nil,std::_Nil>::value
PUBLIC	?digits@?$numeric_limits@H@std@@2HB		; std::numeric_limits<int>::digits
PUBLIC	?digits10@?$numeric_limits@H@std@@2HB		; std::numeric_limits<int>::digits10
PUBLIC	?is_signed@?$numeric_limits@I@std@@2_NB		; std::numeric_limits<unsigned int>::is_signed
PUBLIC	?digits@?$numeric_limits@I@std@@2HB		; std::numeric_limits<unsigned int>::digits
PUBLIC	?digits10@?$numeric_limits@I@std@@2HB		; std::numeric_limits<unsigned int>::digits10
PUBLIC	?skipws@?$_Iosb@H@std@@2W4_Fmtflags@12@B	; std::_Iosb<int>::skipws
PUBLIC	?unitbuf@?$_Iosb@H@std@@2W4_Fmtflags@12@B	; std::_Iosb<int>::unitbuf
PUBLIC	?uppercase@?$_Iosb@H@std@@2W4_Fmtflags@12@B	; std::_Iosb<int>::uppercase
PUBLIC	?showbase@?$_Iosb@H@std@@2W4_Fmtflags@12@B	; std::_Iosb<int>::showbase
PUBLIC	?is_signed@?$numeric_limits@J@std@@2_NB		; std::numeric_limits<long>::is_signed
PUBLIC	?showpoint@?$_Iosb@H@std@@2W4_Fmtflags@12@B	; std::_Iosb<int>::showpoint
PUBLIC	?digits@?$numeric_limits@J@std@@2HB		; std::numeric_limits<long>::digits
PUBLIC	?showpos@?$_Iosb@H@std@@2W4_Fmtflags@12@B	; std::_Iosb<int>::showpos
PUBLIC	?digits10@?$numeric_limits@J@std@@2HB		; std::numeric_limits<long>::digits10
PUBLIC	?left@?$_Iosb@H@std@@2W4_Fmtflags@12@B		; std::_Iosb<int>::left
PUBLIC	?right@?$_Iosb@H@std@@2W4_Fmtflags@12@B		; std::_Iosb<int>::right
PUBLIC	?internal@?$_Iosb@H@std@@2W4_Fmtflags@12@B	; std::_Iosb<int>::internal
PUBLIC	?dec@?$_Iosb@H@std@@2W4_Fmtflags@12@B		; std::_Iosb<int>::dec
PUBLIC	?oct@?$_Iosb@H@std@@2W4_Fmtflags@12@B		; std::_Iosb<int>::oct
PUBLIC	?hex@?$_Iosb@H@std@@2W4_Fmtflags@12@B		; std::_Iosb<int>::hex
PUBLIC	?scientific@?$_Iosb@H@std@@2W4_Fmtflags@12@B	; std::_Iosb<int>::scientific
PUBLIC	?fixed@?$_Iosb@H@std@@2W4_Fmtflags@12@B		; std::_Iosb<int>::fixed
PUBLIC	?hexfloat@?$_Iosb@H@std@@2W4_Fmtflags@12@B	; std::_Iosb<int>::hexfloat
PUBLIC	?boolalpha@?$_Iosb@H@std@@2W4_Fmtflags@12@B	; std::_Iosb<int>::boolalpha
PUBLIC	?is_signed@?$numeric_limits@K@std@@2_NB		; std::numeric_limits<unsigned long>::is_signed
PUBLIC	?_Stdio@?$_Iosb@H@std@@2W4_Fmtflags@12@B	; std::_Iosb<int>::_Stdio
PUBLIC	?adjustfield@?$_Iosb@H@std@@2W4_Fmtflags@12@B	; std::_Iosb<int>::adjustfield
PUBLIC	?digits@?$numeric_limits@K@std@@2HB		; std::numeric_limits<unsigned long>::digits
PUBLIC	?basefield@?$_Iosb@H@std@@2W4_Fmtflags@12@B	; std::_Iosb<int>::basefield
PUBLIC	?digits10@?$numeric_limits@K@std@@2HB		; std::numeric_limits<unsigned long>::digits10
PUBLIC	?floatfield@?$_Iosb@H@std@@2W4_Fmtflags@12@B	; std::_Iosb<int>::floatfield
PUBLIC	?goodbit@?$_Iosb@H@std@@2W4_Iostate@12@B	; std::_Iosb<int>::goodbit
PUBLIC	?eofbit@?$_Iosb@H@std@@2W4_Iostate@12@B		; std::_Iosb<int>::eofbit
PUBLIC	?failbit@?$_Iosb@H@std@@2W4_Iostate@12@B	; std::_Iosb<int>::failbit
PUBLIC	?badbit@?$_Iosb@H@std@@2W4_Iostate@12@B		; std::_Iosb<int>::badbit
PUBLIC	?_Hardfail@?$_Iosb@H@std@@2W4_Iostate@12@B	; std::_Iosb<int>::_Hardfail
PUBLIC	?in@?$_Iosb@H@std@@2W4_Openmode@12@B		; std::_Iosb<int>::in
PUBLIC	?out@?$_Iosb@H@std@@2W4_Openmode@12@B		; std::_Iosb<int>::out
PUBLIC	?ate@?$_Iosb@H@std@@2W4_Openmode@12@B		; std::_Iosb<int>::ate
PUBLIC	?is_signed@?$numeric_limits@_J@std@@2_NB	; std::numeric_limits<__int64>::is_signed
PUBLIC	?app@?$_Iosb@H@std@@2W4_Openmode@12@B		; std::_Iosb<int>::app
PUBLIC	?digits@?$numeric_limits@_J@std@@2HB		; std::numeric_limits<__int64>::digits
PUBLIC	?trunc@?$_Iosb@H@std@@2W4_Openmode@12@B		; std::_Iosb<int>::trunc
PUBLIC	?digits10@?$numeric_limits@_J@std@@2HB		; std::numeric_limits<__int64>::digits10
PUBLIC	?_Nocreate@?$_Iosb@H@std@@2W4_Openmode@12@B	; std::_Iosb<int>::_Nocreate
PUBLIC	?_Noreplace@?$_Iosb@H@std@@2W4_Openmode@12@B	; std::_Iosb<int>::_Noreplace
PUBLIC	?binary@?$_Iosb@H@std@@2W4_Openmode@12@B	; std::_Iosb<int>::binary
PUBLIC	?beg@?$_Iosb@H@std@@2W4_Seekdir@12@B		; std::_Iosb<int>::beg
PUBLIC	?cur@?$_Iosb@H@std@@2W4_Seekdir@12@B		; std::_Iosb<int>::cur
PUBLIC	?end@?$_Iosb@H@std@@2W4_Seekdir@12@B		; std::_Iosb<int>::end
PUBLIC	?is_signed@?$numeric_limits@_K@std@@2_NB	; std::numeric_limits<unsigned __int64>::is_signed
PUBLIC	?digits@?$numeric_limits@_K@std@@2HB		; std::numeric_limits<unsigned __int64>::digits
PUBLIC	?digits10@?$numeric_limits@_K@std@@2HB		; std::numeric_limits<unsigned __int64>::digits10
PUBLIC	?_Stream_err@failure@ios_base@std@@0W4io_errc@43@B ; std::ios_base::failure::_Stream_err
PUBLIC	?digits@?$numeric_limits@M@std@@2HB		; std::numeric_limits<float>::digits
PUBLIC	?digits10@?$numeric_limits@M@std@@2HB		; std::numeric_limits<float>::digits10
PUBLIC	?max_digits10@?$numeric_limits@M@std@@2HB	; std::numeric_limits<float>::max_digits10
PUBLIC	?max_exponent@?$numeric_limits@M@std@@2HB	; std::numeric_limits<float>::max_exponent
PUBLIC	?max_exponent10@?$numeric_limits@M@std@@2HB	; std::numeric_limits<float>::max_exponent10
PUBLIC	?min_exponent@?$numeric_limits@M@std@@2HB	; std::numeric_limits<float>::min_exponent
PUBLIC	?min_exponent10@?$numeric_limits@M@std@@2HB	; std::numeric_limits<float>::min_exponent10
PUBLIC	?value@?$integral_constant@I$0A@@std@@2IB	; std::integral_constant<unsigned int,0>::value
PUBLIC	?digits@?$numeric_limits@N@std@@2HB		; std::numeric_limits<double>::digits
PUBLIC	?digits10@?$numeric_limits@N@std@@2HB		; std::numeric_limits<double>::digits10
PUBLIC	?max_digits10@?$numeric_limits@N@std@@2HB	; std::numeric_limits<double>::max_digits10
PUBLIC	?max_exponent@?$numeric_limits@N@std@@2HB	; std::numeric_limits<double>::max_exponent
PUBLIC	?max_exponent10@?$numeric_limits@N@std@@2HB	; std::numeric_limits<double>::max_exponent10
PUBLIC	?min_exponent@?$numeric_limits@N@std@@2HB	; std::numeric_limits<double>::min_exponent
PUBLIC	?min_exponent10@?$numeric_limits@N@std@@2HB	; std::numeric_limits<double>::min_exponent10
PUBLIC	?digits@?$numeric_limits@O@std@@2HB		; std::numeric_limits<long double>::digits
PUBLIC	?digits10@?$numeric_limits@O@std@@2HB		; std::numeric_limits<long double>::digits10
PUBLIC	?max_digits10@?$numeric_limits@O@std@@2HB	; std::numeric_limits<long double>::max_digits10
PUBLIC	?max_exponent@?$numeric_limits@O@std@@2HB	; std::numeric_limits<long double>::max_exponent
PUBLIC	?max_exponent10@?$numeric_limits@O@std@@2HB	; std::numeric_limits<long double>::max_exponent10
PUBLIC	?min_exponent@?$numeric_limits@O@std@@2HB	; std::numeric_limits<long double>::min_exponent
PUBLIC	?min_exponent10@?$numeric_limits@O@std@@2HB	; std::numeric_limits<long double>::min_exponent10
PUBLIC	?value@?$_Sizeof@U_Nil@std@@U12@U12@U12@U12@U12@U12@U12@@std@@2IB ; std::_Sizeof<std::_Nil,std::_Nil,std::_Nil,std::_Nil,std::_Nil,std::_Nil,std::_Nil,std::_Nil>::value
PUBLIC	?collate@?$_Locbase@H@std@@2HB			; std::_Locbase<int>::collate
PUBLIC	?ctype@?$_Locbase@H@std@@2HB			; std::_Locbase<int>::ctype
PUBLIC	?monetary@?$_Locbase@H@std@@2HB			; std::_Locbase<int>::monetary
PUBLIC	?numeric@?$_Locbase@H@std@@2HB			; std::_Locbase<int>::numeric
PUBLIC	?time@?$_Locbase@H@std@@2HB			; std::_Locbase<int>::time
PUBLIC	?messages@?$_Locbase@H@std@@2HB			; std::_Locbase<int>::messages
PUBLIC	?all@?$_Locbase@H@std@@2HB			; std::_Locbase<int>::all
PUBLIC	?none@?$_Locbase@H@std@@2HB			; std::_Locbase<int>::none
PUBLIC	?aim9LastRunTime@@3KA				; aim9LastRunTime
PUBLIC	?has_denorm@_Num_base@std@@2W4float_denorm_style@2@B ; std::_Num_base::has_denorm
PUBLIC	?has_denorm_loss@_Num_base@std@@2_NB		; std::_Num_base::has_denorm_loss
PUBLIC	?has_infinity@_Num_base@std@@2_NB		; std::_Num_base::has_infinity
PUBLIC	?has_quiet_NaN@_Num_base@std@@2_NB		; std::_Num_base::has_quiet_NaN
PUBLIC	?has_signaling_NaN@_Num_base@std@@2_NB		; std::_Num_base::has_signaling_NaN
PUBLIC	?is_bounded@_Num_base@std@@2_NB			; std::_Num_base::is_bounded
PUBLIC	?is_exact@_Num_base@std@@2_NB			; std::_Num_base::is_exact
PUBLIC	?is_iec559@_Num_base@std@@2_NB			; std::_Num_base::is_iec559
PUBLIC	?is_integer@_Num_base@std@@2_NB			; std::_Num_base::is_integer
PUBLIC	?is_modulo@_Num_base@std@@2_NB			; std::_Num_base::is_modulo
PUBLIC	?is_signed@_Num_base@std@@2_NB			; std::_Num_base::is_signed
PUBLIC	?is_specialized@_Num_base@std@@2_NB		; std::_Num_base::is_specialized
PUBLIC	?tinyness_before@_Num_base@std@@2_NB		; std::_Num_base::tinyness_before
_BSS	SEGMENT
?aim9LastRunTime@@3KA DD 01H DUP (?)			; aim9LastRunTime
_BSS	ENDS
;	COMDAT ?tinyness_before@_Num_base@std@@2_NB
CONST	SEGMENT
?tinyness_before@_Num_base@std@@2_NB DB 00H		; std::_Num_base::tinyness_before
CONST	ENDS
;	COMDAT ?is_specialized@_Num_base@std@@2_NB
CONST	SEGMENT
?is_specialized@_Num_base@std@@2_NB DB 00H		; std::_Num_base::is_specialized
CONST	ENDS
;	COMDAT ?is_signed@_Num_base@std@@2_NB
CONST	SEGMENT
?is_signed@_Num_base@std@@2_NB DB 00H			; std::_Num_base::is_signed
CONST	ENDS
;	COMDAT ?is_modulo@_Num_base@std@@2_NB
CONST	SEGMENT
?is_modulo@_Num_base@std@@2_NB DB 00H			; std::_Num_base::is_modulo
CONST	ENDS
;	COMDAT ?is_integer@_Num_base@std@@2_NB
CONST	SEGMENT
?is_integer@_Num_base@std@@2_NB DB 00H			; std::_Num_base::is_integer
CONST	ENDS
;	COMDAT ?is_iec559@_Num_base@std@@2_NB
CONST	SEGMENT
?is_iec559@_Num_base@std@@2_NB DB 00H			; std::_Num_base::is_iec559
CONST	ENDS
;	COMDAT ?is_exact@_Num_base@std@@2_NB
CONST	SEGMENT
?is_exact@_Num_base@std@@2_NB DB 00H			; std::_Num_base::is_exact
CONST	ENDS
;	COMDAT ?is_bounded@_Num_base@std@@2_NB
CONST	SEGMENT
?is_bounded@_Num_base@std@@2_NB DB 00H			; std::_Num_base::is_bounded
CONST	ENDS
;	COMDAT ?has_signaling_NaN@_Num_base@std@@2_NB
CONST	SEGMENT
?has_signaling_NaN@_Num_base@std@@2_NB DB 00H		; std::_Num_base::has_signaling_NaN
CONST	ENDS
;	COMDAT ?has_quiet_NaN@_Num_base@std@@2_NB
CONST	SEGMENT
?has_quiet_NaN@_Num_base@std@@2_NB DB 00H		; std::_Num_base::has_quiet_NaN
CONST	ENDS
;	COMDAT ?has_infinity@_Num_base@std@@2_NB
CONST	SEGMENT
?has_infinity@_Num_base@std@@2_NB DB 00H		; std::_Num_base::has_infinity
CONST	ENDS
;	COMDAT ?has_denorm_loss@_Num_base@std@@2_NB
CONST	SEGMENT
?has_denorm_loss@_Num_base@std@@2_NB DB 00H		; std::_Num_base::has_denorm_loss
CONST	ENDS
;	COMDAT ?has_denorm@_Num_base@std@@2W4float_denorm_style@2@B
CONST	SEGMENT
?has_denorm@_Num_base@std@@2W4float_denorm_style@2@B DD 00H ; std::_Num_base::has_denorm
CONST	ENDS
;	COMDAT ?none@?$_Locbase@H@std@@2HB
CONST	SEGMENT
?none@?$_Locbase@H@std@@2HB DD 00H			; std::_Locbase<int>::none
CONST	ENDS
;	COMDAT ?all@?$_Locbase@H@std@@2HB
CONST	SEGMENT
?all@?$_Locbase@H@std@@2HB DD 03fH			; std::_Locbase<int>::all
CONST	ENDS
;	COMDAT ?messages@?$_Locbase@H@std@@2HB
CONST	SEGMENT
?messages@?$_Locbase@H@std@@2HB DD 020H			; std::_Locbase<int>::messages
CONST	ENDS
;	COMDAT ?time@?$_Locbase@H@std@@2HB
CONST	SEGMENT
?time@?$_Locbase@H@std@@2HB DD 010H			; std::_Locbase<int>::time
CONST	ENDS
;	COMDAT ?numeric@?$_Locbase@H@std@@2HB
CONST	SEGMENT
?numeric@?$_Locbase@H@std@@2HB DD 08H			; std::_Locbase<int>::numeric
CONST	ENDS
;	COMDAT ?monetary@?$_Locbase@H@std@@2HB
CONST	SEGMENT
?monetary@?$_Locbase@H@std@@2HB DD 04H			; std::_Locbase<int>::monetary
CONST	ENDS
;	COMDAT ?ctype@?$_Locbase@H@std@@2HB
CONST	SEGMENT
?ctype@?$_Locbase@H@std@@2HB DD 02H			; std::_Locbase<int>::ctype
CONST	ENDS
;	COMDAT ?collate@?$_Locbase@H@std@@2HB
CONST	SEGMENT
?collate@?$_Locbase@H@std@@2HB DD 01H			; std::_Locbase<int>::collate
CONST	ENDS
;	COMDAT ?value@?$_Sizeof@U_Nil@std@@U12@U12@U12@U12@U12@U12@U12@@std@@2IB
CONST	SEGMENT
?value@?$_Sizeof@U_Nil@std@@U12@U12@U12@U12@U12@U12@U12@@std@@2IB DD 00H ; std::_Sizeof<std::_Nil,std::_Nil,std::_Nil,std::_Nil,std::_Nil,std::_Nil,std::_Nil,std::_Nil>::value
CONST	ENDS
;	COMDAT ?min_exponent10@?$numeric_limits@O@std@@2HB
CONST	SEGMENT
?min_exponent10@?$numeric_limits@O@std@@2HB DD 0fffffecdH ; std::numeric_limits<long double>::min_exponent10
CONST	ENDS
;	COMDAT ?min_exponent@?$numeric_limits@O@std@@2HB
CONST	SEGMENT
?min_exponent@?$numeric_limits@O@std@@2HB DD 0fffffc03H	; std::numeric_limits<long double>::min_exponent
CONST	ENDS
;	COMDAT ?max_exponent10@?$numeric_limits@O@std@@2HB
CONST	SEGMENT
?max_exponent10@?$numeric_limits@O@std@@2HB DD 0134H	; std::numeric_limits<long double>::max_exponent10
CONST	ENDS
;	COMDAT ?max_exponent@?$numeric_limits@O@std@@2HB
CONST	SEGMENT
?max_exponent@?$numeric_limits@O@std@@2HB DD 0400H	; std::numeric_limits<long double>::max_exponent
CONST	ENDS
;	COMDAT ?max_digits10@?$numeric_limits@O@std@@2HB
CONST	SEGMENT
?max_digits10@?$numeric_limits@O@std@@2HB DD 011H	; std::numeric_limits<long double>::max_digits10
CONST	ENDS
;	COMDAT ?digits10@?$numeric_limits@O@std@@2HB
CONST	SEGMENT
?digits10@?$numeric_limits@O@std@@2HB DD 0fH		; std::numeric_limits<long double>::digits10
CONST	ENDS
;	COMDAT ?digits@?$numeric_limits@O@std@@2HB
CONST	SEGMENT
?digits@?$numeric_limits@O@std@@2HB DD 035H		; std::numeric_limits<long double>::digits
CONST	ENDS
;	COMDAT ?min_exponent10@?$numeric_limits@N@std@@2HB
CONST	SEGMENT
?min_exponent10@?$numeric_limits@N@std@@2HB DD 0fffffecdH ; std::numeric_limits<double>::min_exponent10
CONST	ENDS
;	COMDAT ?min_exponent@?$numeric_limits@N@std@@2HB
CONST	SEGMENT
?min_exponent@?$numeric_limits@N@std@@2HB DD 0fffffc03H	; std::numeric_limits<double>::min_exponent
CONST	ENDS
;	COMDAT ?max_exponent10@?$numeric_limits@N@std@@2HB
CONST	SEGMENT
?max_exponent10@?$numeric_limits@N@std@@2HB DD 0134H	; std::numeric_limits<double>::max_exponent10
CONST	ENDS
;	COMDAT ?max_exponent@?$numeric_limits@N@std@@2HB
CONST	SEGMENT
?max_exponent@?$numeric_limits@N@std@@2HB DD 0400H	; std::numeric_limits<double>::max_exponent
CONST	ENDS
;	COMDAT ?max_digits10@?$numeric_limits@N@std@@2HB
CONST	SEGMENT
?max_digits10@?$numeric_limits@N@std@@2HB DD 011H	; std::numeric_limits<double>::max_digits10
CONST	ENDS
;	COMDAT ?digits10@?$numeric_limits@N@std@@2HB
CONST	SEGMENT
?digits10@?$numeric_limits@N@std@@2HB DD 0fH		; std::numeric_limits<double>::digits10
CONST	ENDS
;	COMDAT ?digits@?$numeric_limits@N@std@@2HB
CONST	SEGMENT
?digits@?$numeric_limits@N@std@@2HB DD 035H		; std::numeric_limits<double>::digits
CONST	ENDS
;	COMDAT ?value@?$integral_constant@I$0A@@std@@2IB
CONST	SEGMENT
?value@?$integral_constant@I$0A@@std@@2IB DD 00H	; std::integral_constant<unsigned int,0>::value
CONST	ENDS
;	COMDAT ?min_exponent10@?$numeric_limits@M@std@@2HB
CONST	SEGMENT
?min_exponent10@?$numeric_limits@M@std@@2HB DD 0ffffffdbH ; std::numeric_limits<float>::min_exponent10
CONST	ENDS
;	COMDAT ?min_exponent@?$numeric_limits@M@std@@2HB
CONST	SEGMENT
?min_exponent@?$numeric_limits@M@std@@2HB DD 0ffffff83H	; std::numeric_limits<float>::min_exponent
CONST	ENDS
;	COMDAT ?max_exponent10@?$numeric_limits@M@std@@2HB
CONST	SEGMENT
?max_exponent10@?$numeric_limits@M@std@@2HB DD 026H	; std::numeric_limits<float>::max_exponent10
CONST	ENDS
;	COMDAT ?max_exponent@?$numeric_limits@M@std@@2HB
CONST	SEGMENT
?max_exponent@?$numeric_limits@M@std@@2HB DD 080H	; std::numeric_limits<float>::max_exponent
CONST	ENDS
;	COMDAT ?max_digits10@?$numeric_limits@M@std@@2HB
CONST	SEGMENT
?max_digits10@?$numeric_limits@M@std@@2HB DD 09H	; std::numeric_limits<float>::max_digits10
CONST	ENDS
;	COMDAT ?digits10@?$numeric_limits@M@std@@2HB
CONST	SEGMENT
?digits10@?$numeric_limits@M@std@@2HB DD 06H		; std::numeric_limits<float>::digits10
CONST	ENDS
;	COMDAT ?digits@?$numeric_limits@M@std@@2HB
CONST	SEGMENT
?digits@?$numeric_limits@M@std@@2HB DD 018H		; std::numeric_limits<float>::digits
CONST	ENDS
;	COMDAT ?_Stream_err@failure@ios_base@std@@0W4io_errc@43@B
CONST	SEGMENT
?_Stream_err@failure@ios_base@std@@0W4io_errc@43@B DD 01H ; std::ios_base::failure::_Stream_err
CONST	ENDS
;	COMDAT ?digits10@?$numeric_limits@_K@std@@2HB
CONST	SEGMENT
?digits10@?$numeric_limits@_K@std@@2HB DD 013H		; std::numeric_limits<unsigned __int64>::digits10
CONST	ENDS
;	COMDAT ?digits@?$numeric_limits@_K@std@@2HB
CONST	SEGMENT
?digits@?$numeric_limits@_K@std@@2HB DD 040H		; std::numeric_limits<unsigned __int64>::digits
CONST	ENDS
;	COMDAT ?is_signed@?$numeric_limits@_K@std@@2_NB
CONST	SEGMENT
?is_signed@?$numeric_limits@_K@std@@2_NB DB 00H		; std::numeric_limits<unsigned __int64>::is_signed
CONST	ENDS
;	COMDAT ?end@?$_Iosb@H@std@@2W4_Seekdir@12@B
CONST	SEGMENT
?end@?$_Iosb@H@std@@2W4_Seekdir@12@B DD 02H		; std::_Iosb<int>::end
CONST	ENDS
;	COMDAT ?cur@?$_Iosb@H@std@@2W4_Seekdir@12@B
CONST	SEGMENT
?cur@?$_Iosb@H@std@@2W4_Seekdir@12@B DD 01H		; std::_Iosb<int>::cur
CONST	ENDS
;	COMDAT ?beg@?$_Iosb@H@std@@2W4_Seekdir@12@B
CONST	SEGMENT
?beg@?$_Iosb@H@std@@2W4_Seekdir@12@B DD 00H		; std::_Iosb<int>::beg
CONST	ENDS
;	COMDAT ?binary@?$_Iosb@H@std@@2W4_Openmode@12@B
CONST	SEGMENT
?binary@?$_Iosb@H@std@@2W4_Openmode@12@B DD 020H	; std::_Iosb<int>::binary
CONST	ENDS
;	COMDAT ?_Noreplace@?$_Iosb@H@std@@2W4_Openmode@12@B
CONST	SEGMENT
?_Noreplace@?$_Iosb@H@std@@2W4_Openmode@12@B DD 080H	; std::_Iosb<int>::_Noreplace
CONST	ENDS
;	COMDAT ?_Nocreate@?$_Iosb@H@std@@2W4_Openmode@12@B
CONST	SEGMENT
?_Nocreate@?$_Iosb@H@std@@2W4_Openmode@12@B DD 040H	; std::_Iosb<int>::_Nocreate
CONST	ENDS
;	COMDAT ?digits10@?$numeric_limits@_J@std@@2HB
CONST	SEGMENT
?digits10@?$numeric_limits@_J@std@@2HB DD 012H		; std::numeric_limits<__int64>::digits10
CONST	ENDS
;	COMDAT ?trunc@?$_Iosb@H@std@@2W4_Openmode@12@B
CONST	SEGMENT
?trunc@?$_Iosb@H@std@@2W4_Openmode@12@B DD 010H		; std::_Iosb<int>::trunc
CONST	ENDS
;	COMDAT ?digits@?$numeric_limits@_J@std@@2HB
CONST	SEGMENT
?digits@?$numeric_limits@_J@std@@2HB DD 03fH		; std::numeric_limits<__int64>::digits
CONST	ENDS
;	COMDAT ?app@?$_Iosb@H@std@@2W4_Openmode@12@B
CONST	SEGMENT
?app@?$_Iosb@H@std@@2W4_Openmode@12@B DD 08H		; std::_Iosb<int>::app
CONST	ENDS
;	COMDAT ?is_signed@?$numeric_limits@_J@std@@2_NB
CONST	SEGMENT
?is_signed@?$numeric_limits@_J@std@@2_NB DB 01H		; std::numeric_limits<__int64>::is_signed
CONST	ENDS
;	COMDAT ?ate@?$_Iosb@H@std@@2W4_Openmode@12@B
CONST	SEGMENT
?ate@?$_Iosb@H@std@@2W4_Openmode@12@B DD 04H		; std::_Iosb<int>::ate
CONST	ENDS
;	COMDAT ?out@?$_Iosb@H@std@@2W4_Openmode@12@B
CONST	SEGMENT
?out@?$_Iosb@H@std@@2W4_Openmode@12@B DD 02H		; std::_Iosb<int>::out
CONST	ENDS
;	COMDAT ?in@?$_Iosb@H@std@@2W4_Openmode@12@B
CONST	SEGMENT
?in@?$_Iosb@H@std@@2W4_Openmode@12@B DD 01H		; std::_Iosb<int>::in
CONST	ENDS
;	COMDAT ?_Hardfail@?$_Iosb@H@std@@2W4_Iostate@12@B
CONST	SEGMENT
?_Hardfail@?$_Iosb@H@std@@2W4_Iostate@12@B DD 010H	; std::_Iosb<int>::_Hardfail
CONST	ENDS
;	COMDAT ?badbit@?$_Iosb@H@std@@2W4_Iostate@12@B
CONST	SEGMENT
?badbit@?$_Iosb@H@std@@2W4_Iostate@12@B DD 04H		; std::_Iosb<int>::badbit
CONST	ENDS
;	COMDAT ?failbit@?$_Iosb@H@std@@2W4_Iostate@12@B
CONST	SEGMENT
?failbit@?$_Iosb@H@std@@2W4_Iostate@12@B DD 02H		; std::_Iosb<int>::failbit
CONST	ENDS
;	COMDAT ?eofbit@?$_Iosb@H@std@@2W4_Iostate@12@B
CONST	SEGMENT
?eofbit@?$_Iosb@H@std@@2W4_Iostate@12@B DD 01H		; std::_Iosb<int>::eofbit
CONST	ENDS
;	COMDAT ?goodbit@?$_Iosb@H@std@@2W4_Iostate@12@B
CONST	SEGMENT
?goodbit@?$_Iosb@H@std@@2W4_Iostate@12@B DD 00H		; std::_Iosb<int>::goodbit
CONST	ENDS
;	COMDAT ?floatfield@?$_Iosb@H@std@@2W4_Fmtflags@12@B
CONST	SEGMENT
?floatfield@?$_Iosb@H@std@@2W4_Fmtflags@12@B DD 03000H	; std::_Iosb<int>::floatfield
CONST	ENDS
;	COMDAT ?digits10@?$numeric_limits@K@std@@2HB
CONST	SEGMENT
?digits10@?$numeric_limits@K@std@@2HB DD 09H		; std::numeric_limits<unsigned long>::digits10
CONST	ENDS
;	COMDAT ?basefield@?$_Iosb@H@std@@2W4_Fmtflags@12@B
CONST	SEGMENT
?basefield@?$_Iosb@H@std@@2W4_Fmtflags@12@B DD 0e00H	; std::_Iosb<int>::basefield
CONST	ENDS
;	COMDAT ?digits@?$numeric_limits@K@std@@2HB
CONST	SEGMENT
?digits@?$numeric_limits@K@std@@2HB DD 020H		; std::numeric_limits<unsigned long>::digits
CONST	ENDS
;	COMDAT ?adjustfield@?$_Iosb@H@std@@2W4_Fmtflags@12@B
CONST	SEGMENT
?adjustfield@?$_Iosb@H@std@@2W4_Fmtflags@12@B DD 01c0H	; std::_Iosb<int>::adjustfield
CONST	ENDS
;	COMDAT ?_Stdio@?$_Iosb@H@std@@2W4_Fmtflags@12@B
CONST	SEGMENT
?_Stdio@?$_Iosb@H@std@@2W4_Fmtflags@12@B DD 08000H	; std::_Iosb<int>::_Stdio
CONST	ENDS
;	COMDAT ?is_signed@?$numeric_limits@K@std@@2_NB
CONST	SEGMENT
?is_signed@?$numeric_limits@K@std@@2_NB DB 00H		; std::numeric_limits<unsigned long>::is_signed
CONST	ENDS
;	COMDAT ?boolalpha@?$_Iosb@H@std@@2W4_Fmtflags@12@B
CONST	SEGMENT
?boolalpha@?$_Iosb@H@std@@2W4_Fmtflags@12@B DD 04000H	; std::_Iosb<int>::boolalpha
CONST	ENDS
;	COMDAT ?hexfloat@?$_Iosb@H@std@@2W4_Fmtflags@12@B
CONST	SEGMENT
?hexfloat@?$_Iosb@H@std@@2W4_Fmtflags@12@B DD 03000H	; std::_Iosb<int>::hexfloat
CONST	ENDS
;	COMDAT ?fixed@?$_Iosb@H@std@@2W4_Fmtflags@12@B
CONST	SEGMENT
?fixed@?$_Iosb@H@std@@2W4_Fmtflags@12@B DD 02000H	; std::_Iosb<int>::fixed
CONST	ENDS
;	COMDAT ?scientific@?$_Iosb@H@std@@2W4_Fmtflags@12@B
CONST	SEGMENT
?scientific@?$_Iosb@H@std@@2W4_Fmtflags@12@B DD 01000H	; std::_Iosb<int>::scientific
CONST	ENDS
;	COMDAT ?hex@?$_Iosb@H@std@@2W4_Fmtflags@12@B
CONST	SEGMENT
?hex@?$_Iosb@H@std@@2W4_Fmtflags@12@B DD 0800H		; std::_Iosb<int>::hex
CONST	ENDS
;	COMDAT ?oct@?$_Iosb@H@std@@2W4_Fmtflags@12@B
CONST	SEGMENT
?oct@?$_Iosb@H@std@@2W4_Fmtflags@12@B DD 0400H		; std::_Iosb<int>::oct
CONST	ENDS
;	COMDAT ?dec@?$_Iosb@H@std@@2W4_Fmtflags@12@B
CONST	SEGMENT
?dec@?$_Iosb@H@std@@2W4_Fmtflags@12@B DD 0200H		; std::_Iosb<int>::dec
CONST	ENDS
;	COMDAT ?internal@?$_Iosb@H@std@@2W4_Fmtflags@12@B
CONST	SEGMENT
?internal@?$_Iosb@H@std@@2W4_Fmtflags@12@B DD 0100H	; std::_Iosb<int>::internal
CONST	ENDS
;	COMDAT ?right@?$_Iosb@H@std@@2W4_Fmtflags@12@B
CONST	SEGMENT
?right@?$_Iosb@H@std@@2W4_Fmtflags@12@B DD 080H		; std::_Iosb<int>::right
CONST	ENDS
;	COMDAT ?left@?$_Iosb@H@std@@2W4_Fmtflags@12@B
CONST	SEGMENT
?left@?$_Iosb@H@std@@2W4_Fmtflags@12@B DD 040H		; std::_Iosb<int>::left
CONST	ENDS
;	COMDAT ?digits10@?$numeric_limits@J@std@@2HB
CONST	SEGMENT
?digits10@?$numeric_limits@J@std@@2HB DD 09H		; std::numeric_limits<long>::digits10
CONST	ENDS
;	COMDAT ?showpos@?$_Iosb@H@std@@2W4_Fmtflags@12@B
CONST	SEGMENT
?showpos@?$_Iosb@H@std@@2W4_Fmtflags@12@B DD 020H	; std::_Iosb<int>::showpos
CONST	ENDS
;	COMDAT ?digits@?$numeric_limits@J@std@@2HB
CONST	SEGMENT
?digits@?$numeric_limits@J@std@@2HB DD 01fH		; std::numeric_limits<long>::digits
CONST	ENDS
;	COMDAT ?showpoint@?$_Iosb@H@std@@2W4_Fmtflags@12@B
CONST	SEGMENT
?showpoint@?$_Iosb@H@std@@2W4_Fmtflags@12@B DD 010H	; std::_Iosb<int>::showpoint
CONST	ENDS
;	COMDAT ?is_signed@?$numeric_limits@J@std@@2_NB
CONST	SEGMENT
?is_signed@?$numeric_limits@J@std@@2_NB DB 01H		; std::numeric_limits<long>::is_signed
CONST	ENDS
;	COMDAT ?showbase@?$_Iosb@H@std@@2W4_Fmtflags@12@B
CONST	SEGMENT
?showbase@?$_Iosb@H@std@@2W4_Fmtflags@12@B DD 08H	; std::_Iosb<int>::showbase
CONST	ENDS
;	COMDAT ?uppercase@?$_Iosb@H@std@@2W4_Fmtflags@12@B
CONST	SEGMENT
?uppercase@?$_Iosb@H@std@@2W4_Fmtflags@12@B DD 04H	; std::_Iosb<int>::uppercase
CONST	ENDS
;	COMDAT ?unitbuf@?$_Iosb@H@std@@2W4_Fmtflags@12@B
CONST	SEGMENT
?unitbuf@?$_Iosb@H@std@@2W4_Fmtflags@12@B DD 02H	; std::_Iosb<int>::unitbuf
CONST	ENDS
;	COMDAT ?skipws@?$_Iosb@H@std@@2W4_Fmtflags@12@B
CONST	SEGMENT
?skipws@?$_Iosb@H@std@@2W4_Fmtflags@12@B DD 01H		; std::_Iosb<int>::skipws
CONST	ENDS
;	COMDAT ?digits10@?$numeric_limits@I@std@@2HB
CONST	SEGMENT
?digits10@?$numeric_limits@I@std@@2HB DD 09H		; std::numeric_limits<unsigned int>::digits10
CONST	ENDS
;	COMDAT ?digits@?$numeric_limits@I@std@@2HB
CONST	SEGMENT
?digits@?$numeric_limits@I@std@@2HB DD 020H		; std::numeric_limits<unsigned int>::digits
CONST	ENDS
;	COMDAT ?is_signed@?$numeric_limits@I@std@@2_NB
CONST	SEGMENT
?is_signed@?$numeric_limits@I@std@@2_NB DB 00H		; std::numeric_limits<unsigned int>::is_signed
CONST	ENDS
;	COMDAT ?digits10@?$numeric_limits@H@std@@2HB
CONST	SEGMENT
?digits10@?$numeric_limits@H@std@@2HB DD 09H		; std::numeric_limits<int>::digits10
CONST	ENDS
;	COMDAT ?digits@?$numeric_limits@H@std@@2HB
CONST	SEGMENT
?digits@?$numeric_limits@H@std@@2HB DD 01fH		; std::numeric_limits<int>::digits
CONST	ENDS
;	COMDAT ?value@?$_Sizeof@HU_Nil@std@@U12@U12@U12@U12@U12@U12@@std@@2IB
CONST	SEGMENT
?value@?$_Sizeof@HU_Nil@std@@U12@U12@U12@U12@U12@U12@@std@@2IB DD 01H ; std::_Sizeof<int,std::_Nil,std::_Nil,std::_Nil,std::_Nil,std::_Nil,std::_Nil,std::_Nil>::value
CONST	ENDS
;	COMDAT ?is_signed@?$numeric_limits@H@std@@2_NB
CONST	SEGMENT
?is_signed@?$numeric_limits@H@std@@2_NB DB 01H		; std::numeric_limits<int>::is_signed
CONST	ENDS
;	COMDAT ?digits10@?$numeric_limits@G@std@@2HB
CONST	SEGMENT
?digits10@?$numeric_limits@G@std@@2HB DD 04H		; std::numeric_limits<unsigned short>::digits10
CONST	ENDS
;	COMDAT ?digits@?$numeric_limits@G@std@@2HB
CONST	SEGMENT
?digits@?$numeric_limits@G@std@@2HB DD 010H		; std::numeric_limits<unsigned short>::digits
CONST	ENDS
;	COMDAT ?is_signed@?$numeric_limits@G@std@@2_NB
CONST	SEGMENT
?is_signed@?$numeric_limits@G@std@@2_NB DB 00H		; std::numeric_limits<unsigned short>::is_signed
CONST	ENDS
;	COMDAT ?digits10@?$numeric_limits@F@std@@2HB
CONST	SEGMENT
?digits10@?$numeric_limits@F@std@@2HB DD 04H		; std::numeric_limits<short>::digits10
CONST	ENDS
;	COMDAT ?digits@?$numeric_limits@F@std@@2HB
CONST	SEGMENT
?digits@?$numeric_limits@F@std@@2HB DD 0fH		; std::numeric_limits<short>::digits
CONST	ENDS
;	COMDAT ?is_signed@?$numeric_limits@F@std@@2_NB
CONST	SEGMENT
?is_signed@?$numeric_limits@F@std@@2_NB DB 01H		; std::numeric_limits<short>::is_signed
CONST	ENDS
;	COMDAT ?value@?$integral_constant@_N$00@std@@2_NB
CONST	SEGMENT
?value@?$integral_constant@_N$00@std@@2_NB DB 01H	; std::integral_constant<bool,1>::value
CONST	ENDS
;	COMDAT ?digits10@?$numeric_limits@E@std@@2HB
CONST	SEGMENT
?digits10@?$numeric_limits@E@std@@2HB DD 02H		; std::numeric_limits<unsigned char>::digits10
CONST	ENDS
;	COMDAT ?digits@?$numeric_limits@E@std@@2HB
CONST	SEGMENT
?digits@?$numeric_limits@E@std@@2HB DD 08H		; std::numeric_limits<unsigned char>::digits
CONST	ENDS
;	COMDAT ?value@?$integral_constant@_N$0A@@std@@2_NB
CONST	SEGMENT
?value@?$integral_constant@_N$0A@@std@@2_NB DB 00H	; std::integral_constant<bool,0>::value
CONST	ENDS
;	COMDAT ?is_signed@?$numeric_limits@E@std@@2_NB
CONST	SEGMENT
?is_signed@?$numeric_limits@E@std@@2_NB DB 00H		; std::numeric_limits<unsigned char>::is_signed
CONST	ENDS
;	COMDAT ?digits10@?$numeric_limits@C@std@@2HB
CONST	SEGMENT
?digits10@?$numeric_limits@C@std@@2HB DD 02H		; std::numeric_limits<signed char>::digits10
CONST	ENDS
;	COMDAT ?digits@?$numeric_limits@C@std@@2HB
CONST	SEGMENT
?digits@?$numeric_limits@C@std@@2HB DD 07H		; std::numeric_limits<signed char>::digits
CONST	ENDS
;	COMDAT ?is_signed@?$numeric_limits@C@std@@2_NB
CONST	SEGMENT
?is_signed@?$numeric_limits@C@std@@2_NB DB 01H		; std::numeric_limits<signed char>::is_signed
CONST	ENDS
CONST	SEGMENT
_L_2	DD	03f317218r			; 0.693147
_NEAR_CLIP DD	03f800000r			; 1
CONST	ENDS
_DATA	SEGMENT
_matrix44_ident DD 03f800000r			; 1
	DD	000000000r			; 0
	DD	000000000r			; 0
	DD	000000000r			; 0
	DD	000000000r			; 0
	DD	03f800000r			; 1
	DD	000000000r			; 0
	DD	000000000r			; 0
	DD	000000000r			; 0
	DD	000000000r			; 0
	DD	03f800000r			; 1
	DD	000000000r			; 0
	DD	000000000r			; 0
	DD	000000000r			; 0
	DD	000000000r			; 0
	DD	03f800000r			; 1
_cloudPntList DD 0c5bcc000r			; -6040
	DD	0c4070000r			; -540
	DD	0c694ac00r			; -19030
	DD	0c6de1c00r			; -28430
	DD	0c4dfc000r			; -1790
	DD	046dcc800r			; 28260
	DD	047104200r			; 36930
	DD	045732000r			; 3890
	DD	04744ea00r			; 50410
	DD	045336000r			; 2870
	DD	0c4d48000r			; -1700
	DD	04736da00r			; 46810
	DD	0c763ee00r			; -58350
	DD	0c4d48000r			; -1700
	DD	0c64c1000r			; -13060
	DD	046f2bc00r			; 31070
	DD	045480000r			; 3200
	DD	0c7293800r			; -43320
	DD	0c7bdc400r			; -97160
	DD	0c4d48000r			; -1700
	DD	04576e000r			; 3950
	DD	0c792e000r			; -75200
	DD	0c4bb8000r			; -1500
	DD	047957400r			; 76520
	DD	04759ee00r			; 55790
	DD	0c5a1e000r			; -5180
	DD	0c7a24e00r			; -83100
	DD	0c7473800r			; -51000
	DD	0c3a00000r			; -320
	DD	0c7829100r			; -66850
	DD	047733400r			; 62260
	DD	0c3a00000r			; -320
	DD	047708200r			; 61570
	DD	0c7710e00r			; -61710
	DD	0c550c000r			; -3340
	DD	046fb7c00r			; 32190
	DD	0c7719a00r			; -61850
	DD	0c7483200r			; -51250
	DD	047543a00r			; 54330
	DD	0c5bcc000r			; -6040
	DD	0c7495400r			; -51540
	DD	0c694ac00r			; -19030
	DD	0c6a7a800r			; -21460
	DD	0c74b0200r			; -51970
	DD	0468e8000r			; 18240
	DD	047298800r			; 43400
	DD	0c74bf200r			; -52210
	DD	046bc7000r			; 24120
	DD	0c749f400r			; -51700
	DD	0c74bc000r			; -52160
	DD	046948400r			; 19010
	DD	0c605e800r			; -8570
	DD	0c7488200r			; -51330
	DD	0c74ca600r			; -52390
	DD	04731bc00r			; 45500
	DD	0c7509800r			; -53400
	DD	0c6725800r			; -15510
	DD	0c7719a00r			; -61850
	DD	0c7483200r			; -51250
	DD	047543a00r			; 54330
	DD	047553400r			; 54580
	DD	0c74ddc00r			; -52700
	DD	0479a5600r			; 79020
	DD	047a7e400r			; 85960
	DD	0c74c5600r			; -52310
	DD	0477d4800r			; 64840
	DD	0c7c44500r			; -100490
	DD	0c74d1400r			; -52500
	DD	047ac2600r			; 88140
	DD	0c7a1ae00r			; -82780
	DD	0c749ea00r			; -51690
	DD	0c7bce300r			; -96710
	DD	0c6126800r			; -9370
	DD	0c7495400r			; -51540
	DD	043cd0000r			; 410
	DD	0c6a7a800r			; -21460
	DD	0c74a8a00r			; -51850
	DD	0473fae00r			; 49070
	DD	0457c8000r			; 4040
	DD	0c74e4a00r			; -52810
	DD	047871e00r			; 69180
	DD	0c6cbc000r			; -26080
	DD	0c74bc000r			; -52160
	DD	046984400r			; 19490
	DD	0452fa000r			; 2810
	DD	0c7488200r			; -51330
	DD	0c7081800r			; -34840
	DD	0c7719a00r			; -61850
	DD	0c749d600r			; -51670
	DD	047b17600r			; 90860
	DD	047553400r			; 54580
	DD	0c74ddc00r			; -52700
	DD	0479a5600r			; 79020
	DD	047a7e400r			; 85960
	DD	0c74c5600r			; -52310
	DD	0477d4800r			; 64840
	DD	0c7c44500r			; -100490
	DD	0c74d1400r			; -52500
	DD	047ac2600r			; 88140
	DD	047c04e00r			; 98460
	DD	0c74d1400r			; -52500
	DD	0c732a200r			; -45730
	DD	0467b9000r			; 16100
	DD	0c7487800r			; -51320
	DD	0c749a400r			; -51620
	DD	047636c00r			; 58220
	DD	0c74e0400r			; -52740
	DD	0c760b000r			; -57520
	DD	0c6126800r			; -9370
	DD	0c4070000r			; -540
	DD	043cd0000r			; 410
	DD	0c4e60000r			; -1840
	DD	0c6a30c00r			; -20870
	DD	0470a6600r			; 35430
	DD	0c7230c00r			; -41740
	DD	046924000r			; 18720
	DD	04797d600r			; 77740
	DD	0460d9000r			; 9060
	DD	0c616c800r			; -9650
	DD	0c7921300r			; -74790
_lightningPosList DD 041300000r			; 11
	DD	000000000r			; 0
	DD	040e00000r			; 7
	DD	040a00000r			; 5
	DD	041100000r			; 9
	DD	041000000r			; 8
	DD	041000000r			; 8
	DD	041600000r			; 14
	DD	041800000r			; 16
	DD	041a00000r			; 20
	DD	041200000r			; 10
	DD	041c00000r			; 24
	DD	041300000r			; 11
	DD	041d80000r			; 27
	DD	040c00000r			; 6
	DD	041f00000r			; 30
	DD	040e00000r			; 7
	DD	042040000r			; 33
	DD	03f800000r			; 1
	DD	042180000r			; 38
	DD	040a00000r			; 5
	DD	042280000r			; 42
	DD	040a00000r			; 5
	DD	042340000r			; 45
	DD	041400000r			; 12
	DD	042400000r			; 48
	DD	041a00000r			; 20
	DD	042500000r			; 52
	DD	041a00000r			; 20
	DD	042680000r			; 58
	DD	041b80000r			; 23
	DD	042740000r			; 61
	DD	041b00000r			; 22
	DD	0427c0000r			; 63
	DD	041b00000r			; 22
	DD	042840000r			; 66
	DD	041c80000r			; 25
	DD	042880000r			; 68
	DD	041a00000r			; 20
	DD	0428c0000r			; 70
	DD	041c00000r			; 24
	DD	042960000r			; 75
	DD	041c00000r			; 24
	DD	0429a0000r			; 77
	DD	041f80000r			; 31
	DD	042a00000r			; 80
	DD	041f80000r			; 31
	DD	042a60000r			; 83
	DD	042040000r			; 33
	DD	042b00000r			; 88
	DD	041f80000r			; 31
	DD	042b80000r			; 92
	DD	0423c0000r			; 47
	DD	042ce0000r			; 103
	DD	042380000r			; 46
	DD	042d20000r			; 105
	DD	0423c0000r			; 47
	DD	042d60000r			; 107
	DD	042340000r			; 45
	DD	042e00000r			; 112
	DD	042400000r			; 48
	DD	042e40000r			; 114
	DD	042380000r			; 46
	DD	042ea0000r			; 117
	DD	0422c0000r			; 43
	DD	043000000r			; 128
_matrix33_ident DD 03f800000r			; 1
	DD	000000000r			; 0
	DD	000000000r			; 0
	DD	000000000r			; 0
	DD	03f800000r			; 1
	DD	000000000r			; 0
	DD	000000000r			; 0
	DD	000000000r			; 0
	DD	03f800000r			; 1
_DATA	ENDS
;	COMDAT ?digits10@?$numeric_limits@_N@std@@2HB
CONST	SEGMENT
?digits10@?$numeric_limits@_N@std@@2HB DD 00H		; std::numeric_limits<bool>::digits10
CONST	ENDS
;	COMDAT ?digits@?$numeric_limits@_N@std@@2HB
CONST	SEGMENT
?digits@?$numeric_limits@_N@std@@2HB DD 01H		; std::numeric_limits<bool>::digits
CONST	ENDS
;	COMDAT ?is_signed@?$numeric_limits@_N@std@@2_NB
CONST	SEGMENT
?is_signed@?$numeric_limits@_N@std@@2_NB DB 00H		; std::numeric_limits<bool>::is_signed
CONST	ENDS
;	COMDAT ?is_modulo@?$numeric_limits@_N@std@@2_NB
CONST	SEGMENT
?is_modulo@?$numeric_limits@_N@std@@2_NB DB 00H		; std::numeric_limits<bool>::is_modulo
CONST	ENDS
;	COMDAT ?digits10@?$numeric_limits@_W@std@@2HB
CONST	SEGMENT
?digits10@?$numeric_limits@_W@std@@2HB DD 04H		; std::numeric_limits<wchar_t>::digits10
CONST	ENDS
;	COMDAT ?digits@?$numeric_limits@_W@std@@2HB
CONST	SEGMENT
?digits@?$numeric_limits@_W@std@@2HB DD 010H		; std::numeric_limits<wchar_t>::digits
CONST	ENDS
;	COMDAT ?is_signed@?$numeric_limits@_W@std@@2_NB
CONST	SEGMENT
?is_signed@?$numeric_limits@_W@std@@2_NB DB 00H		; std::numeric_limits<wchar_t>::is_signed
CONST	ENDS
;	COMDAT ?digits10@?$numeric_limits@D@std@@2HB
CONST	SEGMENT
?digits10@?$numeric_limits@D@std@@2HB DD 02H		; std::numeric_limits<char>::digits10
CONST	ENDS
;	COMDAT ?digits@?$numeric_limits@D@std@@2HB
CONST	SEGMENT
?digits@?$numeric_limits@D@std@@2HB DD 07H		; std::numeric_limits<char>::digits
CONST	ENDS
;	COMDAT ?is_signed@?$numeric_limits@D@std@@2_NB
CONST	SEGMENT
?is_signed@?$numeric_limits@D@std@@2_NB DB 01H		; std::numeric_limits<char>::is_signed
CONST	ENDS
;	COMDAT ?radix@_Num_float_base@std@@2HB
CONST	SEGMENT
?radix@_Num_float_base@std@@2HB DD 02H			; std::_Num_float_base::radix
CONST	ENDS
;	COMDAT ?round_style@_Num_float_base@std@@2W4float_round_style@2@B
CONST	SEGMENT
?round_style@_Num_float_base@std@@2W4float_round_style@2@B DD 01H ; std::_Num_float_base::round_style
CONST	ENDS
;	COMDAT ?traps@_Num_float_base@std@@2_NB
CONST	SEGMENT
?traps@_Num_float_base@std@@2_NB DB 00H			; std::_Num_float_base::traps
CONST	ENDS
;	COMDAT ?tinyness_before@_Num_float_base@std@@2_NB
CONST	SEGMENT
?tinyness_before@_Num_float_base@std@@2_NB DB 01H	; std::_Num_float_base::tinyness_before
CONST	ENDS
;	COMDAT ?is_specialized@_Num_float_base@std@@2_NB
CONST	SEGMENT
?is_specialized@_Num_float_base@std@@2_NB DB 01H	; std::_Num_float_base::is_specialized
CONST	ENDS
;	COMDAT ?is_signed@_Num_float_base@std@@2_NB
CONST	SEGMENT
?is_signed@_Num_float_base@std@@2_NB DB 01H		; std::_Num_float_base::is_signed
CONST	ENDS
;	COMDAT ?is_modulo@_Num_float_base@std@@2_NB
CONST	SEGMENT
?is_modulo@_Num_float_base@std@@2_NB DB 00H		; std::_Num_float_base::is_modulo
CONST	ENDS
;	COMDAT ?is_integer@_Num_float_base@std@@2_NB
CONST	SEGMENT
?is_integer@_Num_float_base@std@@2_NB DB 00H		; std::_Num_float_base::is_integer
CONST	ENDS
;	COMDAT ?is_iec559@_Num_float_base@std@@2_NB
CONST	SEGMENT
?is_iec559@_Num_float_base@std@@2_NB DB 01H		; std::_Num_float_base::is_iec559
CONST	ENDS
;	COMDAT ?is_exact@_Num_float_base@std@@2_NB
CONST	SEGMENT
?is_exact@_Num_float_base@std@@2_NB DB 00H		; std::_Num_float_base::is_exact
CONST	ENDS
;	COMDAT ?is_bounded@_Num_float_base@std@@2_NB
CONST	SEGMENT
?is_bounded@_Num_float_base@std@@2_NB DB 01H		; std::_Num_float_base::is_bounded
CONST	ENDS
;	COMDAT ?has_signaling_NaN@_Num_float_base@std@@2_NB
CONST	SEGMENT
?has_signaling_NaN@_Num_float_base@std@@2_NB DB 01H	; std::_Num_float_base::has_signaling_NaN
CONST	ENDS
;	COMDAT ?has_quiet_NaN@_Num_float_base@std@@2_NB
CONST	SEGMENT
?has_quiet_NaN@_Num_float_base@std@@2_NB DB 01H		; std::_Num_float_base::has_quiet_NaN
CONST	ENDS
;	COMDAT ?has_infinity@_Num_float_base@std@@2_NB
CONST	SEGMENT
?has_infinity@_Num_float_base@std@@2_NB DB 01H		; std::_Num_float_base::has_infinity
CONST	ENDS
;	COMDAT ?CMPDIRTYDATA_INTERVAL@FalconEntity@@2KB
CONST	SEGMENT
?CMPDIRTYDATA_INTERVAL@FalconEntity@@2KB DD 0c8H	; FalconEntity::CMPDIRTYDATA_INTERVAL
CONST	ENDS
;	COMDAT ?SIMDIRTYDATA_INTERVAL@FalconEntity@@2KB
CONST	SEGMENT
?SIMDIRTYDATA_INTERVAL@FalconEntity@@2KB DD 0c8H	; FalconEntity::SIMDIRTYDATA_INTERVAL
CONST	ENDS
;	COMDAT ?has_denorm_loss@_Num_float_base@std@@2_NB
CONST	SEGMENT
?has_denorm_loss@_Num_float_base@std@@2_NB DB 01H	; std::_Num_float_base::has_denorm_loss
CONST	ENDS
;	COMDAT ?has_denorm@_Num_float_base@std@@2W4float_denorm_style@2@B
CONST	SEGMENT
?has_denorm@_Num_float_base@std@@2W4float_denorm_style@2@B DD 01H ; std::_Num_float_base::has_denorm
CONST	ENDS
;	COMDAT ?radix@_Num_int_base@std@@2HB
CONST	SEGMENT
?radix@_Num_int_base@std@@2HB DD 02H			; std::_Num_int_base::radix
CONST	ENDS
;	COMDAT ?is_specialized@_Num_int_base@std@@2_NB
CONST	SEGMENT
?is_specialized@_Num_int_base@std@@2_NB DB 01H		; std::_Num_int_base::is_specialized
CONST	ENDS
;	COMDAT ?is_modulo@_Num_int_base@std@@2_NB
CONST	SEGMENT
?is_modulo@_Num_int_base@std@@2_NB DB 01H		; std::_Num_int_base::is_modulo
CONST	ENDS
;	COMDAT ?is_integer@_Num_int_base@std@@2_NB
CONST	SEGMENT
?is_integer@_Num_int_base@std@@2_NB DB 01H		; std::_Num_int_base::is_integer
CONST	ENDS
;	COMDAT ?is_exact@_Num_int_base@std@@2_NB
CONST	SEGMENT
?is_exact@_Num_int_base@std@@2_NB DB 01H		; std::_Num_int_base::is_exact
CONST	ENDS
;	COMDAT ?is_bounded@_Num_int_base@std@@2_NB
CONST	SEGMENT
?is_bounded@_Num_int_base@std@@2_NB DB 01H		; std::_Num_int_base::is_bounded
CONST	ENDS
;	COMDAT ?radix@_Num_base@std@@2HB
CONST	SEGMENT
?radix@_Num_base@std@@2HB DD 00H			; std::_Num_base::radix
CONST	ENDS
;	COMDAT ?min_exponent10@_Num_base@std@@2HB
CONST	SEGMENT
?min_exponent10@_Num_base@std@@2HB DD 00H		; std::_Num_base::min_exponent10
CONST	ENDS
;	COMDAT ?min_exponent@_Num_base@std@@2HB
CONST	SEGMENT
?min_exponent@_Num_base@std@@2HB DD 00H			; std::_Num_base::min_exponent
CONST	ENDS
;	COMDAT ?max_exponent10@_Num_base@std@@2HB
CONST	SEGMENT
?max_exponent10@_Num_base@std@@2HB DD 00H		; std::_Num_base::max_exponent10
CONST	ENDS
;	COMDAT ?max_exponent@_Num_base@std@@2HB
CONST	SEGMENT
?max_exponent@_Num_base@std@@2HB DD 00H			; std::_Num_base::max_exponent
CONST	ENDS
;	COMDAT ?max_digits10@_Num_base@std@@2HB
CONST	SEGMENT
?max_digits10@_Num_base@std@@2HB DD 00H			; std::_Num_base::max_digits10
CONST	ENDS
;	COMDAT ?table_size@?$ctype@D@std@@2IB
CONST	SEGMENT
?table_size@?$ctype@D@std@@2IB DD 0100H			; std::ctype<char>::table_size
CONST	ENDS
;	COMDAT ?digits10@_Num_base@std@@2HB
CONST	SEGMENT
?digits10@_Num_base@std@@2HB DD 00H			; std::_Num_base::digits10
CONST	ENDS
;	COMDAT ?digits@_Num_base@std@@2HB
CONST	SEGMENT
?digits@_Num_base@std@@2HB DD 00H			; std::_Num_base::digits
CONST	ENDS
;	COMDAT ?round_style@_Num_base@std@@2W4float_round_style@2@B
CONST	SEGMENT
?round_style@_Num_base@std@@2W4float_round_style@2@B DD 00H ; std::_Num_base::round_style
CONST	ENDS
;	COMDAT ?traps@_Num_base@std@@2_NB
CONST	SEGMENT
?traps@_Num_base@std@@2_NB DB 00H			; std::_Num_base::traps
CONST	ENDS
PUBLIC	_fabsf
PUBLIC	?fabs@@YAMM@Z					; fabs
PUBLIC	?SetYPR@VuEntity@@QAEXMMM@Z			; VuEntity::SetYPR
PUBLIC	?Id@VuEntity@@QBE?AVVU_ID@@XZ			; VuEntity::Id
PUBLIC	?Type@VuEntity@@QBEGXZ				; VuEntity::Type
PUBLIC	?XPos@VuEntity@@QBEMXZ				; VuEntity::XPos
PUBLIC	?YPos@VuEntity@@QBEMXZ				; VuEntity::YPos
PUBLIC	?ZPos@VuEntity@@QBEMXZ				; VuEntity::ZPos
PUBLIC	?XDelta@VuEntity@@QBEMXZ			; VuEntity::XDelta
PUBLIC	?YDelta@VuEntity@@QBEMXZ			; VuEntity::YDelta
PUBLIC	?ZDelta@VuEntity@@QBEMXZ			; VuEntity::ZDelta
PUBLIC	?Yaw@VuEntity@@QBEMXZ				; VuEntity::Yaw
PUBLIC	?Pitch@VuEntity@@QBEMXZ				; VuEntity::Pitch
PUBLIC	?Roll@VuEntity@@QBEMXZ				; VuEntity::Roll
PUBLIC	?EntityType@VuEntity@@QBEPAUVuEntityType@@XZ	; VuEntity::EntityType
PUBLIC	??2@YAPAXIPAX@Z					; operator new
PUBLIC	??3@YAXPAX0@Z					; operator delete
PUBLIC	?length@?$char_traits@D@std@@SAIPBD@Z		; std::char_traits<char>::length
PUBLIC	?copy@?$char_traits@D@std@@SAPADPADPBDI@Z	; std::char_traits<char>::copy
PUBLIC	?move@?$char_traits@D@std@@SAPADPADPBDI@Z	; std::char_traits<char>::move
PUBLIC	?assign@?$char_traits@D@std@@SAXAADABD@Z	; std::char_traits<char>::assign
PUBLIC	??0?$allocator@D@std@@QAE@XZ			; std::allocator<char>::allocator<char>
PUBLIC	?deallocate@?$allocator@D@std@@QAEXPADI@Z	; std::allocator<char>::deallocate
PUBLIC	?allocate@?$allocator@D@std@@QAEPADI@Z		; std::allocator<char>::allocate
PUBLIC	?max_size@?$allocator@D@std@@QBEIXZ		; std::allocator<char>::max_size
PUBLIC	?max_size@?$allocator_traits@V?$allocator@D@std@@@std@@SAIABV?$allocator@D@2@@Z ; std::allocator_traits<std::allocator<char> >::max_size
PUBLIC	??0?$_Wrap_alloc@V?$allocator@D@std@@@std@@QAE@XZ ; std::_Wrap_alloc<std::allocator<char> >::_Wrap_alloc<std::allocator<char> >
PUBLIC	?allocate@?$_Wrap_alloc@V?$allocator@D@std@@@std@@QAEPADI@Z ; std::_Wrap_alloc<std::allocator<char> >::allocate
PUBLIC	?deallocate@?$_Wrap_alloc@V?$allocator@D@std@@@std@@QAEXPADI@Z ; std::_Wrap_alloc<std::allocator<char> >::deallocate
PUBLIC	?max_size@?$_Wrap_alloc@V?$allocator@D@std@@@std@@QBEIXZ ; std::_Wrap_alloc<std::allocator<char> >::max_size
PUBLIC	??0?$_String_val@U?$_Simple_types@D@std@@@std@@QAE@XZ ; std::_String_val<std::_Simple_types<char> >::_String_val<std::_Simple_types<char> >
PUBLIC	?_Myptr@?$_String_val@U?$_Simple_types@D@std@@@std@@QAEPADXZ ; std::_String_val<std::_Simple_types<char> >::_Myptr
PUBLIC	?_Myptr@?$_String_val@U?$_Simple_types@D@std@@@std@@QBEPBDXZ ; std::_String_val<std::_Simple_types<char> >::_Myptr
PUBLIC	??0?$_String_alloc@$0A@U?$_String_base_types@DV?$allocator@D@std@@@std@@@std@@QAE@ABV?$allocator@D@1@@Z ; std::_String_alloc<0,std::_String_base_types<char,std::allocator<char> > >::_String_alloc<0,std::_String_base_types<char,std::allocator<char> > >
PUBLIC	?_Getal@?$_String_alloc@$0A@U?$_String_base_types@DV?$allocator@D@std@@@std@@@std@@QBE?AU?$_Wrap_alloc@V?$allocator@D@std@@@2@XZ ; std::_String_alloc<0,std::_String_base_types<char,std::allocator<char> > >::_Getal
PUBLIC	??0?$basic_string@DU?$char_traits@D@std@@V?$allocator@D@2@@std@@QAE@PBD@Z ; std::basic_string<char,std::char_traits<char>,std::allocator<char> >::basic_string<char,std::char_traits<char>,std::allocator<char> >
PUBLIC	?assign@?$basic_string@DU?$char_traits@D@std@@V?$allocator@D@2@@std@@QAEAAV12@ABV12@II@Z ; std::basic_string<char,std::char_traits<char>,std::allocator<char> >::assign
PUBLIC	?assign@?$basic_string@DU?$char_traits@D@std@@V?$allocator@D@2@@std@@QAEAAV12@PBDI@Z ; std::basic_string<char,std::char_traits<char>,std::allocator<char> >::assign
PUBLIC	?assign@?$basic_string@DU?$char_traits@D@std@@V?$allocator@D@2@@std@@QAEAAV12@PBD@Z ; std::basic_string<char,std::char_traits<char>,std::allocator<char> >::assign
PUBLIC	?erase@?$basic_string@DU?$char_traits@D@std@@V?$allocator@D@2@@std@@QAEAAV12@I@Z ; std::basic_string<char,std::char_traits<char>,std::allocator<char> >::erase
PUBLIC	?erase@?$basic_string@DU?$char_traits@D@std@@V?$allocator@D@2@@std@@QAEAAV12@II@Z ; std::basic_string<char,std::char_traits<char>,std::allocator<char> >::erase
PUBLIC	?size@?$basic_string@DU?$char_traits@D@std@@V?$allocator@D@2@@std@@QBEIXZ ; std::basic_string<char,std::char_traits<char>,std::allocator<char> >::size
PUBLIC	?max_size@?$basic_string@DU?$char_traits@D@std@@V?$allocator@D@2@@std@@QBEIXZ ; std::basic_string<char,std::char_traits<char>,std::allocator<char> >::max_size
PUBLIC	?_Copy@?$basic_string@DU?$char_traits@D@std@@V?$allocator@D@2@@std@@QAEXII@Z ; std::basic_string<char,std::char_traits<char>,std::allocator<char> >::_Copy
PUBLIC	?_Eos@?$basic_string@DU?$char_traits@D@std@@V?$allocator@D@2@@std@@QAEXI@Z ; std::basic_string<char,std::char_traits<char>,std::allocator<char> >::_Eos
PUBLIC	?_Grow@?$basic_string@DU?$char_traits@D@std@@V?$allocator@D@2@@std@@QAE_NI_N@Z ; std::basic_string<char,std::char_traits<char>,std::allocator<char> >::_Grow
PUBLIC	?_Inside@?$basic_string@DU?$char_traits@D@std@@V?$allocator@D@2@@std@@QAE_NPBD@Z ; std::basic_string<char,std::char_traits<char>,std::allocator<char> >::_Inside
PUBLIC	?_Tidy@?$basic_string@DU?$char_traits@D@std@@V?$allocator@D@2@@std@@QAEX_NI@Z ; std::basic_string<char,std::char_traits<char>,std::allocator<char> >::_Tidy
PUBLIC	?_Xlen@?$basic_string@DU?$char_traits@D@std@@V?$allocator@D@2@@std@@QBEXXZ ; std::basic_string<char,std::char_traits<char>,std::allocator<char> >::_Xlen
PUBLIC	?_Xran@?$basic_string@DU?$char_traits@D@std@@V?$allocator@D@2@@std@@QBEXXZ ; std::basic_string<char,std::char_traits<char>,std::allocator<char> >::_Xran
PUBLIC	??B?$VuBin@VVuSessionEntity@@@@QBE_NXZ		; VuBin<VuSessionEntity>::operator bool
PUBLIC	?get@?$VuBin@VVuSessionEntity@@@@QBEPAVVuSessionEntity@@XZ ; VuBin<VuSessionEntity>::get
PUBLIC	??0id@locale@std@@QAE@I@Z			; std::locale::id::id
PUBLIC	?generic_category@std@@YAABVerror_category@1@XZ	; std::generic_category
PUBLIC	?system_category@std@@YAABVerror_category@1@XZ	; std::system_category
PUBLIC	??0error_category@std@@QAE@XZ			; std::error_category::error_category
PUBLIC	??1error_category@std@@UAE@XZ			; std::error_category::~error_category
PUBLIC	?default_error_condition@error_category@std@@UBE?AVerror_condition@2@H@Z ; std::error_category::default_error_condition
PUBLIC	?equivalent@error_category@std@@UBE_NHABVerror_condition@2@@Z ; std::error_category::equivalent
PUBLIC	?equivalent@error_category@std@@UBE_NABVerror_code@2@H@Z ; std::error_category::equivalent
PUBLIC	??8error_category@std@@QBE_NABV01@@Z		; std::error_category::operator==
PUBLIC	??_Gerror_category@std@@UAEPAXI@Z		; std::error_category::`scalar deleting destructor'
PUBLIC	?value@error_code@std@@QBEHXZ			; std::error_code::value
PUBLIC	?category@error_code@std@@QBEABVerror_category@2@XZ ; std::error_code::category
PUBLIC	??0error_condition@std@@QAE@HABVerror_category@1@@Z ; std::error_condition::error_condition
PUBLIC	?value@error_condition@std@@QBEHXZ		; std::error_condition::value
PUBLIC	?category@error_condition@std@@QBEABVerror_category@2@XZ ; std::error_condition::category
PUBLIC	??8error_condition@std@@QBE_NABV01@@Z		; std::error_condition::operator==
PUBLIC	??0_Generic_error_category@std@@QAE@XZ		; std::_Generic_error_category::_Generic_error_category
PUBLIC	?name@_Generic_error_category@std@@UBEPBDXZ	; std::_Generic_error_category::name
PUBLIC	?message@_Generic_error_category@std@@UBE?AV?$basic_string@DU?$char_traits@D@std@@V?$allocator@D@2@@2@H@Z ; std::_Generic_error_category::message
PUBLIC	??1_Generic_error_category@std@@UAE@XZ		; std::_Generic_error_category::~_Generic_error_category
PUBLIC	??_G_Generic_error_category@std@@UAEPAXI@Z	; std::_Generic_error_category::`scalar deleting destructor'
PUBLIC	??0_Iostream_error_category@std@@QAE@XZ		; std::_Iostream_error_category::_Iostream_error_category
PUBLIC	?name@_Iostream_error_category@std@@UBEPBDXZ	; std::_Iostream_error_category::name
PUBLIC	?message@_Iostream_error_category@std@@UBE?AV?$basic_string@DU?$char_traits@D@std@@V?$allocator@D@2@@2@H@Z ; std::_Iostream_error_category::message
PUBLIC	??1_Iostream_error_category@std@@UAE@XZ		; std::_Iostream_error_category::~_Iostream_error_category
PUBLIC	??_G_Iostream_error_category@std@@UAEPAXI@Z	; std::_Iostream_error_category::`scalar deleting destructor'
PUBLIC	??0_System_error_category@std@@QAE@XZ		; std::_System_error_category::_System_error_category
PUBLIC	?name@_System_error_category@std@@UBEPBDXZ	; std::_System_error_category::name
PUBLIC	?message@_System_error_category@std@@UBE?AV?$basic_string@DU?$char_traits@D@std@@V?$allocator@D@2@@2@H@Z ; std::_System_error_category::message
PUBLIC	?default_error_condition@_System_error_category@std@@UBE?AVerror_condition@2@H@Z ; std::_System_error_category::default_error_condition
PUBLIC	??1_System_error_category@std@@UAE@XZ		; std::_System_error_category::~_System_error_category
PUBLIC	??_G_System_error_category@std@@UAEPAXI@Z	; std::_System_error_category::`scalar deleting destructor'
PUBLIC	?GetPosition@DrawableObject@@QAEXPAUTpoint@@@Z	; DrawableObject::GetPosition
PUBLIC	??0?$VuBin@VSimWeaponClass@@@@QAE@PAVSimWeaponClass@@@Z ; VuBin<SimWeaponClass>::VuBin<SimWeaponClass>
PUBLIC	??0?$VuBin@VSimWeaponClass@@@@QAE@ABV0@@Z	; VuBin<SimWeaponClass>::VuBin<SimWeaponClass>
PUBLIC	??1?$VuBin@VSimWeaponClass@@@@QAE@XZ		; VuBin<SimWeaponClass>::~VuBin<SimWeaponClass>
PUBLIC	??4?$VuBin@VSimWeaponClass@@@@QAEABV0@ABV0@@Z	; VuBin<SimWeaponClass>::operator=
PUBLIC	??7?$VuBin@VSimWeaponClass@@@@QBE_NXZ		; VuBin<SimWeaponClass>::operator!
PUBLIC	??B?$VuBin@VSimWeaponClass@@@@QBE_NXZ		; VuBin<SimWeaponClass>::operator bool
PUBLIC	??C?$VuBin@VSimWeaponClass@@@@QBEPAVSimWeaponClass@@XZ ; VuBin<SimWeaponClass>::operator->
PUBLIC	?get@?$VuBin@VSimWeaponClass@@@@QBEPAVSimWeaponClass@@XZ ; VuBin<SimWeaponClass>::get
PUBLIC	?reset@?$VuBin@VSimWeaponClass@@@@QAEXPAVSimWeaponClass@@@Z ; VuBin<SimWeaponClass>::reset
PUBLIC	?SetHPId@BasicWeaponStation@@QAEXH@Z		; BasicWeaponStation::SetHPId
PUBLIC	??1AList@@QAE@XZ				; AList::~AList
PUBLIC	?get@?$VuBin@VCampBaseClass@@@@QBEPAVCampBaseClass@@XZ ; VuBin<CampBaseClass>::get
PUBLIC	?GetSType@SimBaseClass@@QBEEXZ			; SimBaseClass::GetSType
PUBLIC	?GetCampaignObject@SimBaseClass@@QAEPAVCampBaseClass@@XZ ; SimBaseClass::GetCampaignObject
PUBLIC	?GetDOFValue@SimMoverClass@@QAEMH@Z		; SimMoverClass::GetDOFValue
PUBLIC	?GetNextOnRail@SimWeaponClass@@QAEPAV1@XZ	; SimWeaponClass::GetNextOnRail
PUBLIC	?SetRackSlot@SimWeaponClass@@QAEXH@Z		; SimWeaponClass::SetRackSlot
PUBLIC	?GetRackSlot@SimWeaponClass@@QAEHXZ		; SimWeaponClass::GetRackSlot
PUBLIC	?SetDgftSubMode@FireControlComputer@@QAEXW4FCCSubMode@1@@Z ; FireControlComputer::SetDgftSubMode
PUBLIC	?SetMrmSubMode@FireControlComputer@@QAEXW4FCCSubMode@1@@Z ; FireControlComputer::SetMrmSubMode
PUBLIC	?GetMasterMode@FireControlComputer@@QAE?AW4FCCMasterMode@1@XZ ; FireControlComputer::GetMasterMode
PUBLIC	?PlayerFCC@FireControlComputer@@QAEHXZ		; FireControlComputer::PlayerFCC
PUBLIC	??0SMSBaseClass@@QAE@PAVSimVehicleClass@@PAFPAEH@Z ; SMSBaseClass::SMSBaseClass
PUBLIC	??1SMSBaseClass@@UAE@XZ				; SMSBaseClass::~SMSBaseClass
PUBLIC	?AddWeaponGraphics@SMSBaseClass@@UAEXXZ		; SMSBaseClass::AddWeaponGraphics
PUBLIC	?FreeWeaponGraphics@SMSBaseClass@@UAEXXZ	; SMSBaseClass::FreeWeaponGraphics
PUBLIC	?GetCurrentWeapon@SMSBaseClass@@UAEPAVSimWeaponClass@@XZ ; SMSBaseClass::GetCurrentWeapon
PUBLIC	?GetGun@SMSBaseClass@@QAEPAVGunClass@@H@Z	; SMSBaseClass::GetGun
PUBLIC	?GetMissile@SMSBaseClass@@QAEPAVMissileClass@@H@Z ; SMSBaseClass::GetMissile
PUBLIC	?GetBomb@SMSBaseClass@@QAEPAVBombClass@@H@Z	; SMSBaseClass::GetBomb
PUBLIC	?GetCurrentWeaponType@SMSBaseClass@@QAE?AW4WeaponType@@XZ ; SMSBaseClass::GetCurrentWeaponType
PUBLIC	?GetCurrentWeaponIndex@SMSBaseClass@@QAEFXZ	; SMSBaseClass::GetCurrentWeaponIndex
PUBLIC	?GetCurrentWeaponRangeFeet@SMSBaseClass@@QAEMXZ	; SMSBaseClass::GetCurrentWeaponRangeFeet
PUBLIC	?LaunchWeapon@SMSBaseClass@@QAEXXZ		; SMSBaseClass::LaunchWeapon
PUBLIC	?DetachWeapon@SMSBaseClass@@QAEXHPAVSimWeaponClass@@@Z ; SMSBaseClass::DetachWeapon
PUBLIC	?StationOK@SMSBaseClass@@QAEHH@Z		; SMSBaseClass::StationOK
PUBLIC	?MasterArm@SMSBaseClass@@QAE?AW4MasterArmState@1@XZ ; SMSBaseClass::MasterArm
PUBLIC	?SetMasterArm@SMSBaseClass@@QAEXW4MasterArmState@1@@Z ; SMSBaseClass::SetMasterArm
PUBLIC	?StepMasterArm@SMSBaseClass@@QAEXXZ		; SMSBaseClass::StepMasterArm
PUBLIC	?StepCatIII@SMSBaseClass@@QAEXXZ		; SMSBaseClass::StepCatIII
PUBLIC	?SetFlag@SMSBaseClass@@QAEXH@Z			; SMSBaseClass::SetFlag
PUBLIC	?ClearFlag@SMSBaseClass@@QAEXH@Z		; SMSBaseClass::ClearFlag
PUBLIC	?IsSet@SMSBaseClass@@QAEHH@Z			; SMSBaseClass::IsSet
PUBLIC	?GetWeaponRangeFeet@SMSBaseClass@@QAEMH@Z	; SMSBaseClass::GetWeaponRangeFeet
PUBLIC	?SelectBestWeapon@SMSBaseClass@@QAEXPAEHHHH@Z	; SMSBaseClass::SelectBestWeapon
PUBLIC	?StepMavSubMode@SMSBaseClass@@QAEX_N@Z		; SMSBaseClass::StepMavSubMode
PUBLIC	?GetHARMPowerState@SMSBaseClass@@QAE_NXZ	; SMSBaseClass::GetHARMPowerState
PUBLIC	?GetHARMInitTimer@SMSBaseClass@@QAEMXZ		; SMSBaseClass::GetHARMInitTimer
PUBLIC	??_GSMSBaseClass@@UAEPAXI@Z			; SMSBaseClass::`scalar deleting destructor'
PUBLIC	?ReleaseCurWeapon@SMSClass@@IAEXH@Z		; SMSClass::ReleaseCurWeapon
PUBLIC	?JettisonStation@SMSClass@@IAEHHW4JettisonMode@@@Z ; SMSClass::JettisonStation
PUBLIC	?SetupHardpointImage@SMSClass@@IAEXPAVBasicWeaponStation@@H@Z ; SMSClass::SetupHardpointImage
PUBLIC	??0SMSClass@@QAE@PAVSimVehicleClass@@PAFPAE@Z	; SMSClass::SMSClass
PUBLIC	??1SMSClass@@UAE@XZ				; SMSClass::~SMSClass
PUBLIC	?AddWeaponGraphics@SMSClass@@UAEXXZ		; SMSClass::AddWeaponGraphics
PUBLIC	?FreeWeaponGraphics@SMSClass@@UAEXXZ		; SMSClass::FreeWeaponGraphics
PUBLIC	?GetCurrentWeapon@SMSClass@@UAEPAVSimWeaponClass@@XZ ; SMSClass::GetCurrentWeapon
PUBLIC	?SetCurrentWeapon@SMSClass@@QAEXHPAVSimWeaponClass@@@Z ; SMSClass::SetCurrentWeapon
PUBLIC	?SetWeaponType@SMSClass@@QAEXW4WeaponType@@@Z	; SMSClass::SetWeaponType
PUBLIC	?IncrementStores@SMSClass@@QAEXW4WeaponClass@@H@Z ; SMSClass::IncrementStores
PUBLIC	?DecrementStores@SMSClass@@QAEXW4WeaponClass@@H@Z ; SMSClass::DecrementStores
PUBLIC	?SelectiveJettison@SMSClass@@QAEXXZ		; SMSClass::SelectiveJettison
PUBLIC	?EmergencyJettison@SMSClass@@QAEXXZ		; SMSClass::EmergencyJettison
PUBLIC	?JettisonWeapon@SMSClass@@QAEXH@Z		; SMSClass::JettisonWeapon
PUBLIC	?RemoveWeapon@SMSClass@@QAEXH@Z			; SMSClass::RemoveWeapon
PUBLIC	?AGJettison@SMSClass@@QAEXXZ			; SMSClass::AGJettison
PUBLIC	?TankJettison@SMSClass@@QAEXXZ			; SMSClass::TankJettison
PUBLIC	?WeaponStep@SMSClass@@QAEHH@Z			; SMSClass::WeaponStep
PUBLIC	?FindWeapon@SMSClass@@QAEHH@Z			; SMSClass::FindWeapon
PUBLIC	?FindWeaponClass@SMSClass@@QAEHW4WeaponClass@@H@Z ; SMSClass::FindWeaponClass
PUBLIC	?FindWeaponType@SMSClass@@QAEHW4WeaponType@@@Z	; SMSClass::FindWeaponType
PUBLIC	?SetUnlimitedGuns@SMSClass@@QAEXH@Z		; SMSClass::SetUnlimitedGuns
PUBLIC	?UnlimitedAmmo@SMSClass@@QAEHXZ			; SMSClass::UnlimitedAmmo
PUBLIC	?SetUnlimitedAmmo@SMSClass@@QAEXH@Z		; SMSClass::SetUnlimitedAmmo
PUBLIC	?HasTrainable@SMSClass@@QAEHXZ			; SMSClass::HasTrainable
PUBLIC	?HasWeaponClass@SMSClass@@QAEHW4WeaponClass@@@Z	; SMSClass::HasWeaponClass
PUBLIC	?FreeWeapons@SMSClass@@QAEXXZ			; SMSClass::FreeWeapons
PUBLIC	?Exec@SMSClass@@QAEXXZ				; SMSClass::Exec
PUBLIC	?SetPlayerSMS@SMSClass@@QAEXH@Z			; SMSClass::SetPlayerSMS
PUBLIC	?IncrementRippleCount@SMSClass@@QAEXXZ		; SMSClass::IncrementRippleCount
PUBLIC	?DecrementRippleCount@SMSClass@@QAEXXZ		; SMSClass::DecrementRippleCount
PUBLIC	?SetRippleInterval@SMSClass@@QAEXH@Z		; SMSClass::SetRippleInterval
PUBLIC	?IncrementRippleInterval@SMSClass@@QAEXXZ	; SMSClass::IncrementRippleInterval
PUBLIC	?DecrementRippleInterval@SMSClass@@QAEXXZ	; SMSClass::DecrementRippleInterval
PUBLIC	?IncrementBurstHeight@SMSClass@@QAEXXZ		; SMSClass::IncrementBurstHeight
PUBLIC	?DecrementBurstHeight@SMSClass@@QAEXXZ		; SMSClass::DecrementBurstHeight
PUBLIC	?Incrementarmingdelay@SMSClass@@QAEXXZ		; SMSClass::Incrementarmingdelay
PUBLIC	?ResetCurrentWeapon@SMSClass@@QAEXXZ		; SMSClass::ResetCurrentWeapon
PUBLIC	?GetNextWeapon@SMSClass@@QAE?AW4WeaponType@@W4WeaponDomain@@@Z ; SMSClass::GetNextWeapon
PUBLIC	?SelectWeapon@SMSClass@@QAEXW4WeaponType@@W4WeaponDomain@@@Z ; SMSClass::SelectWeapon
PUBLIC	?RemoveStore@SMSClass@@QAEXHH@Z			; SMSClass::RemoveStore
PUBLIC	?AddStore@SMSClass@@QAEXHHH@Z			; SMSClass::AddStore
PUBLIC	?ChooseLimiterMode@SMSClass@@QAEXH@Z		; SMSClass::ChooseLimiterMode
PUBLIC	?RipOffWeapons@SMSClass@@QAEXM@Z		; SMSClass::RipOffWeapons
PUBLIC	?GetCoolState@SMSClass@@QAE?AW4Aim9Mode@1@XZ	; SMSClass::GetCoolState
PUBLIC	?SetCoolState@SMSClass@@QAEXW4Aim9Mode@1@@Z	; SMSClass::SetCoolState
PUBLIC	?GetCurrentWeaponId@SMSClass@@QAEHXZ		; SMSClass::GetCurrentWeaponId
PUBLIC	?SetCurrentHpByWeaponId@SMSClass@@QAEHH@Z	; SMSClass::SetCurrentHpByWeaponId
PUBLIC	?StepAAWeapon@SMSClass@@QAEXXZ			; SMSClass::StepAAWeapon
PUBLIC	?StepAGWeapon@SMSClass@@QAEXXZ			; SMSClass::StepAGWeapon
PUBLIC	?StepWeaponByID@SMSClass@@QAEXXZ		; SMSClass::StepWeaponByID
PUBLIC	?SetCurrentHardPoint@SMSClass@@QAEHHH@Z		; SMSClass::SetCurrentHardPoint
PUBLIC	?GetAGBRippleCount@SMSClass@@QAEHXZ		; SMSClass::GetAGBRippleCount
PUBLIC	?GetAGBRippleInterval@SMSClass@@QAEHXZ		; SMSClass::GetAGBRippleInterval
PUBLIC	?GetAGBPair@SMSClass@@QAE_NXZ			; SMSClass::GetAGBPair
PUBLIC	?SetAGBRippleCount@SMSClass@@QAEXH@Z		; SMSClass::SetAGBRippleCount
PUBLIC	?SetAGBRippleInterval@SMSClass@@QAEXH@Z		; SMSClass::SetAGBRippleInterval
PUBLIC	?SetAGBBurstAlt@SMSClass@@QAEXH@Z		; SMSClass::SetAGBBurstAlt
PUBLIC	??_GSMSClass@@UAEPAXI@Z				; SMSClass::`scalar deleting destructor'
PUBLIC	?InitWeaponList@@YA?AV?$VuBin@VSimWeaponClass@@@@PAVFalconEntity@@GHHP6APAVSimWeaponClass@@0GH@ZPAH@Z ; InitWeaponList
PUBLIC	?SetLaunchRotation@MissileClass@@QAEXMM@Z	; MissileClass::SetLaunchRotation
PUBLIC	?GetAvionicsType@PlayerOptionsClass@@QAEHXZ	; PlayerOptionsClass::GetAvionicsType
PUBLIC	?IsF16@AircraftClass@@QAEHXZ			; AircraftClass::IsF16
PUBLIC	?MaxGs@AirframeClass@@QAEMXZ			; AirframeClass::MaxGs
PUBLIC	?MaxVcas@AirframeClass@@QAEMXZ			; AirframeClass::MaxVcas
PUBLIC	?ExternalFuel@AirframeClass@@QAEMXZ		; AirframeClass::ExternalFuel
PUBLIC	?VehicleIndex@AirframeClass@@QAEHXZ		; AirframeClass::VehicleIndex
PUBLIC	?SetFlag@AirframeClass@@QAEXH@Z			; AirframeClass::SetFlag
PUBLIC	?ClearFlag@AirframeClass@@QAEXH@Z		; AirframeClass::ClearFlag
PUBLIC	?IsSet@AirframeClass@@QBEHH@Z			; AirframeClass::IsSet
PUBLIC	?GetRackGroup@AirframeClass@@QAEHH@Z		; AirframeClass::GetRackGroup
PUBLIC	?GetGame@FalconSessionEntity@@QAEPAVFalconGameEntity@@XZ ; FalconSessionEntity::GetGame
PUBLIC	?SetScanDir@RadarDopplerClass@@QAEXM@Z		; RadarDopplerClass::SetScanDir
PUBLIC	?NextACHp@@YAHHH@Z				; NextACHp
PUBLIC	?CompareWith@WeaponStepNode@@EAEHPAVANode@@@Z	; WeaponStepNode::CompareWith
PUBLIC	??0WeaponStepNode@@QAE@XZ			; WeaponStepNode::WeaponStepNode
PUBLIC	??1WeaponStepNode@@QAE@XZ			; WeaponStepNode::~WeaponStepNode
PUBLIC	??_GWeaponStepNode@@QAEPAXI@Z			; WeaponStepNode::`scalar deleting destructor'
PUBLIC	??$construct@PADAAPAD@?$_Wrap_alloc@V?$allocator@D@std@@@std@@QAEXPAPADAAPAD@Z ; std::_Wrap_alloc<std::allocator<char> >::construct<char *,char * &>
PUBLIC	??$destroy@PAD@?$_Wrap_alloc@V?$allocator@D@std@@@std@@QAEXPAPAD@Z ; std::_Wrap_alloc<std::allocator<char> >::destroy<char *>
PUBLIC	??$addressof@D@std@@YAPADAAD@Z			; std::addressof<char>
PUBLIC	??$_Allocate@D@std@@YAPADIPAD@Z			; std::_Allocate<char>
PUBLIC	??$forward@AAPAD@std@@YAAAPADAAPAD@Z		; std::forward<char * &>
PUBLIC	??$construct@PADAAPAD@?$allocator_traits@V?$allocator@D@std@@@std@@SAXAAV?$allocator@D@1@PAPADAAPAD@Z ; std::allocator_traits<std::allocator<char> >::construct<char *,char * &>
PUBLIC	??$destroy@PAD@?$allocator_traits@V?$allocator@D@std@@@std@@SAXAAV?$allocator@D@1@PAPAD@Z ; std::allocator_traits<std::allocator<char> >::destroy<char *>
PUBLIC	??$construct@PADAAPAD@?$allocator@D@std@@QAEXPAPADAAPAD@Z ; std::allocator<char>::construct<char *,char * &>
PUBLIC	??$destroy@PAD@?$allocator@D@std@@QAEXPAPAD@Z	; std::allocator<char>::destroy<char *>
PUBLIC	??_C@_00CNPNBAHC@?$AA@				; `string'
PUBLIC	??_7error_category@std@@6B@			; std::error_category::`vftable'
PUBLIC	??_7_Generic_error_category@std@@6B@		; std::_Generic_error_category::`vftable'
PUBLIC	??_C@_07DCLBNMLN@generic?$AA@			; `string'
PUBLIC	??_C@_0O@BFJCFAAK@unknown?5error?$AA@		; `string'
PUBLIC	??_7_Iostream_error_category@std@@6B@		; std::_Iostream_error_category::`vftable'
PUBLIC	??_C@_08LLGCOLLL@iostream?$AA@			; `string'
PUBLIC	??_C@_0BG@PADBLCHM@iostream?5stream?5error?$AA@	; `string'
PUBLIC	??_7_System_error_category@std@@6B@		; std::_System_error_category::`vftable'
PUBLIC	??_C@_06FHFOAHML@system?$AA@			; `string'
PUBLIC	?_Generic_object@?$_Error_objects@H@std@@2V_Generic_error_category@2@A ; std::_Error_objects<int>::_Generic_object
PUBLIC	?_Iostream_object@?$_Error_objects@H@std@@2V_Iostream_error_category@2@A ; std::_Error_objects<int>::_Iostream_object
PUBLIC	?_System_object@?$_Error_objects@H@std@@2V_System_error_category@2@A ; std::_Error_objects<int>::_System_object
PUBLIC	?id@?$num_put@DV?$back_insert_iterator@V?$basic_string@DU?$char_traits@D@std@@V?$allocator@D@2@@std@@@std@@@std@@2V0locale@2@A ; std::num_put<char,std::back_insert_iterator<std::basic_string<char,std::char_traits<char>,std::allocator<char> > > >::id
PUBLIC	?id@?$num_put@_WV?$back_insert_iterator@V?$basic_string@_WU?$char_traits@_W@std@@V?$allocator@_W@2@@std@@@std@@@std@@2V0locale@2@A ; std::num_put<wchar_t,std::back_insert_iterator<std::basic_string<wchar_t,std::char_traits<wchar_t>,std::allocator<wchar_t> > > >::id
PUBLIC	??_7SMSBaseClass@@6B@				; SMSBaseClass::`vftable'
PUBLIC	??_7SMSClass@@6B@				; SMSClass::`vftable'
PUBLIC	??_C@_0CF@JFLIKKKJ@Vehicle?5has?5unknown?5weapon?5type?5@ ; `string'
PUBLIC	??_C@_0BM@CGGJMMAL@Jettison?5station?5?$CFd?5at?5?$CFld?6?$AA@ ; `string'
PUBLIC	??_C@_0M@GPPLIIOD@bug?5bug?5bug?$AA@		; `string'
PUBLIC	??_C@_0EO@GEPHIEMC@JettisonStation?$CI?$CFd?0?$CFd?$CJ?5?3?5rdflags@ ; `string'
PUBLIC	??_7WeaponStepNode@@6B@				; WeaponStepNode::`vftable'
PUBLIC	??_C@_0BB@HKDFJNHB@Comparing?5Hp?5?$CFd?6?$AA@	; `string'
PUBLIC	??_C@_0N@EMOBHKIG@Match?5Hp?5?$CFd?6?$AA@	; `string'
PUBLIC	?id@?$numpunct@D@std@@2V0locale@2@A		; std::numpunct<char>::id
PUBLIC	?id@?$numpunct@_W@std@@2V0locale@2@A		; std::numpunct<wchar_t>::id
PUBLIC	??_C@_0BI@CFPLBAOH@invalid?5string?5position?$AA@ ; `string'
PUBLIC	??_C@_0BA@JFNIOLAK@string?5too?5long?$AA@	; `string'
PUBLIC	??_R4error_category@std@@6B@			; std::error_category::`RTTI Complete Object Locator'
PUBLIC	??_R0?AVerror_category@std@@@8			; std::error_category `RTTI Type Descriptor'
PUBLIC	??_R3error_category@std@@8			; std::error_category::`RTTI Class Hierarchy Descriptor'
PUBLIC	??_R2error_category@std@@8			; std::error_category::`RTTI Base Class Array'
PUBLIC	??_R1A@?0A@EA@error_category@std@@8		; std::error_category::`RTTI Base Class Descriptor at (0,-1,0,64)'
PUBLIC	??_R4_Generic_error_category@std@@6B@		; std::_Generic_error_category::`RTTI Complete Object Locator'
PUBLIC	??_R0?AV_Generic_error_category@std@@@8		; std::_Generic_error_category `RTTI Type Descriptor'
PUBLIC	??_R3_Generic_error_category@std@@8		; std::_Generic_error_category::`RTTI Class Hierarchy Descriptor'
PUBLIC	??_R2_Generic_error_category@std@@8		; std::_Generic_error_category::`RTTI Base Class Array'
PUBLIC	??_R1A@?0A@EA@_Generic_error_category@std@@8	; std::_Generic_error_category::`RTTI Base Class Descriptor at (0,-1,0,64)'
PUBLIC	??_R4_Iostream_error_category@std@@6B@		; std::_Iostream_error_category::`RTTI Complete Object Locator'
PUBLIC	??_R0?AV_Iostream_error_category@std@@@8	; std::_Iostream_error_category `RTTI Type Descriptor'
PUBLIC	??_R3_Iostream_error_category@std@@8		; std::_Iostream_error_category::`RTTI Class Hierarchy Descriptor'
PUBLIC	??_R2_Iostream_error_category@std@@8		; std::_Iostream_error_category::`RTTI Base Class Array'
PUBLIC	??_R1A@?0A@EA@_Iostream_error_category@std@@8	; std::_Iostream_error_category::`RTTI Base Class Descriptor at (0,-1,0,64)'
PUBLIC	??_R4_System_error_category@std@@6B@		; std::_System_error_category::`RTTI Complete Object Locator'
PUBLIC	??_R0?AV_System_error_category@std@@@8		; std::_System_error_category `RTTI Type Descriptor'
PUBLIC	??_R3_System_error_category@std@@8		; std::_System_error_category::`RTTI Class Hierarchy Descriptor'
PUBLIC	??_R2_System_error_category@std@@8		; std::_System_error_category::`RTTI Base Class Array'
PUBLIC	??_R1A@?0A@EA@_System_error_category@std@@8	; std::_System_error_category::`RTTI Base Class Descriptor at (0,-1,0,64)'
PUBLIC	??_R4SMSClass@@6B@				; SMSClass::`RTTI Complete Object Locator'
PUBLIC	??_R0?AVSMSClass@@@8				; SMSClass `RTTI Type Descriptor'
PUBLIC	??_R3SMSClass@@8				; SMSClass::`RTTI Class Hierarchy Descriptor'
PUBLIC	??_R2SMSClass@@8				; SMSClass::`RTTI Base Class Array'
PUBLIC	??_R1A@?0A@EA@SMSClass@@8			; SMSClass::`RTTI Base Class Descriptor at (0,-1,0,64)'
PUBLIC	??_R1A@?0A@EA@SMSBaseClass@@8			; SMSBaseClass::`RTTI Base Class Descriptor at (0,-1,0,64)'
PUBLIC	??_R0?AVSMSBaseClass@@@8			; SMSBaseClass `RTTI Type Descriptor'
PUBLIC	??_R3SMSBaseClass@@8				; SMSBaseClass::`RTTI Class Hierarchy Descriptor'
PUBLIC	??_R2SMSBaseClass@@8				; SMSBaseClass::`RTTI Base Class Array'
PUBLIC	??_R4SMSBaseClass@@6B@				; SMSBaseClass::`RTTI Complete Object Locator'
PUBLIC	??_R4WeaponStepNode@@6B@			; WeaponStepNode::`RTTI Complete Object Locator'
PUBLIC	??_R0?AVWeaponStepNode@@@8			; WeaponStepNode `RTTI Type Descriptor'
PUBLIC	??_R3WeaponStepNode@@8				; WeaponStepNode::`RTTI Class Hierarchy Descriptor'
PUBLIC	??_R2WeaponStepNode@@8				; WeaponStepNode::`RTTI Base Class Array'
PUBLIC	??_R1A@?0A@EA@WeaponStepNode@@8			; WeaponStepNode::`RTTI Base Class Descriptor at (0,-1,0,64)'
PUBLIC	??_R1A@?0A@EA@ANode@@8				; ANode::`RTTI Base Class Descriptor at (0,-1,0,64)'
PUBLIC	??_R0?AVANode@@@8				; ANode `RTTI Type Descriptor'
PUBLIC	??_R3ANode@@8					; ANode::`RTTI Class Hierarchy Descriptor'
PUBLIC	??_R2ANode@@8					; ANode::`RTTI Base Class Array'
PUBLIC	__real@00000000
PUBLIC	__real@3dcccccd
PUBLIC	__real@3e32b8c1
PUBLIC	__real@3e4ccccd
PUBLIC	__real@3e84816f
PUBLIC	__real@3eb2b8c1
PUBLIC	__real@3f000000
PUBLIC	__real@3f060a91
PUBLIC	__real@3f1c61a9
PUBLIC	__real@3f490fd9
PUBLIC	__real@3f666666
PUBLIC	__real@3f800000
PUBLIC	__real@3fc00000
PUBLIC	__real@40000000
PUBLIC	__real@40200000
PUBLIC	__real@40400000
PUBLIC	__real@40a00000
PUBLIC	__real@40b00000
PUBLIC	__real@40c00000
PUBLIC	__real@40d00000
PUBLIC	__real@40e00000
PUBLIC	__real@40f00000
PUBLIC	__real@41100000
PUBLIC	__real@41200000
PUBLIC	__real@41300000
PUBLIC	__real@41a00000
PUBLIC	__real@41f00000
PUBLIC	__real@42000000
PUBLIC	__real@42200000
PUBLIC	__real@42700000
PUBLIC	__real@42960000
PUBLIC	__real@43160000
PUBLIC	__real@43340000
PUBLIC	__real@43480000
PUBLIC	__real@438d8000
PUBLIC	__real@43960000
PUBLIC	__real@43c80000
PUBLIC	__real@43f00000
PUBLIC	__real@43fa0000
PUBLIC	__real@44098000
PUBLIC	__real@44160000
PUBLIC	__real@44480000
PUBLIC	__real@44610000
PUBLIC	__real@447a0000
PUBLIC	__real@44e10000
PUBLIC	__real@453b8000
PUBLIC	__real@454cffae
PUBLIC	__real@45a8c000
PUBLIC	__real@45bb8000
PUBLIC	__real@be32b8c1
PUBLIC	__real@beb2b8c1
PUBLIC	__real@bf000000
PUBLIC	__real@bf060a91
PUBLIC	__real@bf800000
PUBLIC	__real@bf860a91
EXTRN	__purecall:PROC
EXTRN	??2@YAPAXI@Z:PROC				; operator new
EXTRN	??3@YAXPAX@Z:PROC				; operator delete
EXTRN	_atexit:PROC
EXTRN	_printf:PROC
EXTRN	_fabs:PROC
EXTRN	_memcpy:PROC
EXTRN	_strcpy:PROC
EXTRN	_strlen:PROC
EXTRN	_memmove:PROC
EXTRN	_stricmp:PROC
EXTRN	_MonoPrint:PROC
EXTRN	?VuReferenceEntity@@YAHPAVVuEntity@@@Z:PROC	; VuReferenceEntity
EXTRN	?VuDeReferenceEntity@@YAHPAVVuEntity@@@Z:PROC	; VuDeReferenceEntity
EXTRN	?SetPosition@VuEntity@@QAEXMMM@Z:PROC		; VuEntity::SetPosition
EXTRN	?SetDelta@VuEntity@@QAEXMMM@Z:PROC		; VuEntity::SetDelta
EXTRN	?IsLocal@VuEntity@@QBEEXZ:PROC			; VuEntity::IsLocal
EXTRN	??_V@YAXPAX@Z:PROC				; operator delete[]
EXTRN	??_U@YAPAXI@Z:PROC				; operator new[]
EXTRN	?_Xbad_alloc@std@@YAXXZ:PROC			; std::_Xbad_alloc
EXTRN	?_Xlength_error@std@@YAXPBD@Z:PROC		; std::_Xlength_error
EXTRN	?_Xout_of_range@std@@YAXPBD@Z:PROC		; std::_Xout_of_range
EXTRN	?Game@VuSessionEntity@@QAEPAVVuGameEntity@@XZ:PROC ; VuSessionEntity::Game
EXTRN	??_Eerror_category@std@@UAEPAXI@Z:PROC		; std::error_category::`vector deleting destructor'
EXTRN	?_Syserror_map@std@@YAPBDH@Z:PROC		; std::_Syserror_map
EXTRN	?_Winerror_map@std@@YAPBDH@Z:PROC		; std::_Winerror_map
EXTRN	??_E_Generic_error_category@std@@UAEPAXI@Z:PROC	; std::_Generic_error_category::`vector deleting destructor'
EXTRN	??_E_Iostream_error_category@std@@UAEPAXI@Z:PROC ; std::_Iostream_error_category::`vector deleting destructor'
EXTRN	??_E_System_error_category@std@@UAEPAXI@Z:PROC	; std::_System_error_category::`vector deleting destructor'
EXTRN	?DetachChild@DrawableBSP@@QAEXPAV1@H@Z:PROC	; DrawableBSP::DetachChild
EXTRN	?GetChildOffset@DrawableBSP@@QAEXHPAUTpoint@@@Z:PROC ; DrawableBSP::GetChildOffset
EXTRN	??0BasicWeaponStation@@QAE@XZ:PROC		; BasicWeaponStation::BasicWeaponStation
EXTRN	?SetParentDrawPtr@BasicWeaponStation@@QAEXPAVDrawableBSP@@@Z:PROC ; BasicWeaponStation::SetParentDrawPtr
EXTRN	??0AdvancedWeaponStation@@QAE@XZ:PROC		; AdvancedWeaponStation::AdvancedWeaponStation
EXTRN	?GetWeaponRange@@YAHHH@Z:PROC			; GetWeaponRange
EXTRN	?GetWeaponScore@@YAHHPAEHHH@Z:PROC		; GetWeaponScore
EXTRN	?FindSensor@@YAPAVSensorClass@@PAVSimMoverClass@@H@Z:PROC ; FindSensor
EXTRN	??0ANode@@QAE@XZ:PROC				; ANode::ANode
EXTRN	?GetSucc@ANode@@QAEPAXXZ:PROC			; ANode::GetSucc
EXTRN	??1ANode@@QAE@XZ:PROC				; ANode::~ANode
EXTRN	??0AList@@QAE@XZ:PROC				; AList::AList
EXTRN	?RemHead@AList@@QAEPAXXZ:PROC			; AList::RemHead
EXTRN	?GetHead@AList@@QAEPAXXZ:PROC			; AList::GetHead
EXTRN	?AddSorted@AList@@QAEXPAVANode@@@Z:PROC		; AList::AddSorted
EXTRN	?SetTarget@BombClass@@QAEXPAVSimObjectType@@@Z:PROC ; BombClass::SetTarget
EXTRN	?LauGetRoundsRemaining@BombClass@@QAEHXZ:PROC	; BombClass::LauGetRoundsRemaining
EXTRN	?LauGetWeaponId@BombClass@@QAEHXZ:PROC		; BombClass::LauGetWeaponId
EXTRN	?SetMasterMode@FireControlComputer@@QAEXW4FCCMasterMode@1@@Z:PROC ; FireControlComputer::SetMasterMode
EXTRN	?SetSubMode@FireControlComputer@@QAEXW4FCCSubMode@1@@Z:PROC ; FireControlComputer::SetSubMode
EXTRN	?GetMainMasterMode@FireControlComputer@@QAE?AW4MASTERMODES@@XZ:PROC ; FireControlComputer::GetMainMasterMode
EXTRN	?CanStepToWeaponClass@FireControlComputer@@QAEHW4WeaponClass@@@Z:PROC ; FireControlComputer::CanStepToWeaponClass
EXTRN	?SetAAMasterModeForCurrentWeapon@FireControlComputer@@QAEXXZ:PROC ; FireControlComputer::SetAAMasterModeForCurrentWeapon
EXTRN	?SetAGMasterModeForCurrentWeapon@FireControlComputer@@QAEXXZ:PROC ; FireControlComputer::SetAGMasterModeForCurrentWeapon
EXTRN	?EnterAAMasterMode@FireControlComputer@@QAEXXZ:PROC ; FireControlComputer::EnterAAMasterMode
EXTRN	?EnterAGMasterMode@FireControlComputer@@QAEXXZ:PROC ; FireControlComputer::EnterAGMasterMode
EXTRN	?ReplaceMissile@SMSBaseClass@@QAEXHPAVMissileClass@@@Z:PROC ; SMSBaseClass::ReplaceMissile
EXTRN	?ReplaceBomb@SMSBaseClass@@QAEXHPAVBombClass@@@Z:PROC ; SMSBaseClass::ReplaceBomb
EXTRN	??_ESMSBaseClass@@UAEPAXI@Z:PROC		; SMSBaseClass::`vector deleting destructor'
EXTRN	?RunRockets@SMSClass@@IAEXXZ:PROC		; SMSClass::RunRockets
EXTRN	?DropBomb@SMSClass@@QAEHH@Z:PROC		; SMSClass::DropBomb
EXTRN	??_ESMSClass@@UAEPAXI@Z:PROC			; SMSClass::`vector deleting destructor'
EXTRN	?FalconSendMessage@@YAXPAVVuMessage@@H@Z:PROC	; FalconSendMessage
EXTRN	?SetTarget@MissileClass@@QAEXPAVSimObjectType@@@Z:PROC ; MissileClass::SetTarget
EXTRN	?ClearReferences@MissileClass@@QAEXXZ:PROC	; MissileClass::ClearReferences
EXTRN	?SetLaunchPosition@MissileClass@@QAEXMMM@Z:PROC	; MissileClass::SetLaunchPosition
EXTRN	?InitAMissile@@YAPAVSimWeaponClass@@PAVFalconEntity@@GH@Z:PROC ; InitAMissile
EXTRN	?InitABomb@@YAPAVSimWeaponClass@@PAVFalconEntity@@GH@Z:PROC ; InitABomb
EXTRN	?InitTracers@GunClass@@QAEXXZ:PROC		; GunClass::InitTracers
EXTRN	?CleanupTracers@GunClass@@QAEXXZ:PROC		; GunClass::CleanupTracers
EXTRN	?GetSMSDomain@GunClass@@QAE?AW4WeaponDomain@@XZ:PROC ; GunClass::GetSMSDomain
EXTRN	?RemoveObject@OTWDriverClass@@QAEXPAVDrawableObject@@H@Z:PROC ; OTWDriverClass::RemoveObject
EXTRN	?AttachObject@OTWDriverClass@@QAEXPAVDrawableBSP@@0H@Z:PROC ; OTWDriverClass::AttachObject
EXTRN	?DetachObject@OTWDriverClass@@QAEXPAVDrawableBSP@@0H@Z:PROC ; OTWDriverClass::DetachObject
EXTRN	?CreateVisualObject@OTWDriverClass@@QAEXPAVSimBaseClass@@M@Z:PROC ; OTWDriverClass::CreateVisualObject
EXTRN	?AddSfxRequest@OTWDriverClass@@QAEXPAVSfxClass@@@Z:PROC ; OTWDriverClass::AddSfxRequest
EXTRN	??0SfxClass@@QAE@HPAUTpoint@@0PAVDrawableBSP@@MM@Z:PROC ; SfxClass::SfxClass
EXTRN	??0SmsDrawable@@QAE@PAVSMSClass@@@Z:PROC	; SmsDrawable::SmsDrawable
EXTRN	?UpdateGroundSpot@SmsDrawable@@QAEXXZ:PROC	; SmsDrawable::UpdateGroundSpot
EXTRN	?DropTank@AirframeClass@@QAEXH@Z:PROC		; AirframeClass::DropTank
EXTRN	?AddWeapon@AirframeClass@@QAEXMMM@Z:PROC	; AirframeClass::AddWeapon
EXTRN	?RemoveWeapon@AirframeClass@@QAEXMMM@Z:PROC	; AirframeClass::RemoveWeapon
EXTRN	?InitAGun@@YAPAVSimWeaponClass@@PAVSimBaseClass@@GH@Z:PROC ; InitAGun
EXTRN	?GetVehicleClassData@@YAPAUVehicleClassDataType@@H@Z:PROC ; GetVehicleClassData
EXTRN	?GetGameType@FalconGameEntity@@QAE?AW4FalconGameType@@XZ:PROC ; FalconGameEntity::GetGameType
EXTRN	?HasLimiter@LimiterMgrClass@@QAEHHH@Z:PROC	; LimiterMgrClass::HasLimiter
EXTRN	?GetFault@FackClass@@QAEHW4type_FSubSystem@FaultClass@@@Z:PROC ; FackClass::GetFault
EXTRN	?JoystickPlayEffect@@YAHHH@Z:PROC		; JoystickPlayEffect
EXTRN	?GetPlayerAircraft@SimulationDriver@@QBEPAVAircraftClass@@XZ:PROC ; SimulationDriver::GetPlayerAircraft
EXTRN	??0FalconTrackMessage@@QAE@HVVU_ID@@PAVVuTargetEntity@@E@Z:PROC ; FalconTrackMessage::FalconTrackMessage
EXTRN	?FindLaserPod@@YAPAVSensorClass@@PAVSimMoverClass@@@Z:PROC ; FindLaserPod
EXTRN	@__security_check_cookie@4:PROC
EXTRN	__CxxThrowException@8:PROC
EXTRN	___CxxFrameHandler3:PROC
EXTRN	?vuLocalSessionEntity@@3V?$VuBin@VVuSessionEntity@@@@A:DWORD ; vuLocalSessionEntity
EXTRN	?SimLibMajorFrameTime@@3MA:DWORD		; SimLibMajorFrameTime
EXTRN	?SimLibElapsedTime@@3KA:DWORD			; SimLibElapsedTime
EXTRN	??_7type_info@@6B@:QWORD			; type_info::`vftable'
EXTRN	?WeaponDataTable@@3PAUWeaponClassDataType@@A:DWORD ; WeaponDataTable
EXTRN	?SimWeaponDataTable@@3PAUSimWeaponDataType@@A:DWORD ; SimWeaponDataTable
EXTRN	?Falcon4ClassTable@@3PAUFalcon4EntityClassType@@A:DWORD ; Falcon4ClassTable
EXTRN	?g_bRealisticAvionics@@3_NA:BYTE		; g_bRealisticAvionics
EXTRN	?PlayerOptions@@3VPlayerOptionsClass@@A:BYTE	; PlayerOptions
EXTRN	?OTWDriver@@3VOTWDriverClass@@A:BYTE		; OTWDriver
EXTRN	?gLimiterMgr@@3PAVLimiterMgrClass@@A:DWORD	; gLimiterMgr
EXTRN	?SimDriver@@3VSimulationDriver@@A:BYTE		; SimDriver
EXTRN	?missileDataset@@3PAVMissileDataSetClass@@A:DWORD ; missileDataset
EXTRN	?numMissileDatasets@@3HA:DWORD			; numMissileDatasets
EXTRN	?gRackId_Single_Rack@@3FA:WORD			; gRackId_Single_Rack
EXTRN	?g_bSMSPylonLoadingFix@@3_NA:BYTE		; g_bSMSPylonLoadingFix
EXTRN	?g_bAdvancedGroundChooseWeapon@@3_NA:BYTE	; g_bAdvancedGroundChooseWeapon
EXTRN	?g_fDragDilutionFactor@@3MA:DWORD		; g_fDragDilutionFactor
EXTRN	?g_bUseDefinedGunDomain@@3_NA:BYTE		; g_bUseDefinedGunDomain
EXTRN	?g_bEmergencyJettisonFix@@3_NA:BYTE		; g_bEmergencyJettisonFix
EXTRN	?g_bRealisticMavTime@@3_NA:BYTE			; g_bRealisticMavTime
EXTRN	___security_cookie:DWORD
EXTRN	__fltused:DWORD
_BSS	SEGMENT
_piecewise_construct DB 01H DUP (?)
	ALIGN	4

_allocator_arg DB 01H DUP (?)
_BSS	ENDS
;	COMDAT ?_Generic_object@?$_Error_objects@H@std@@2V_Generic_error_category@2@A
_BSS	SEGMENT
?_Generic_object@?$_Error_objects@H@std@@2V_Generic_error_category@2@A DD 01H DUP (?) ; std::_Error_objects<int>::_Generic_object
_BSS	ENDS
;	COMDAT ?_Iostream_object@?$_Error_objects@H@std@@2V_Iostream_error_category@2@A
_BSS	SEGMENT
?_Iostream_object@?$_Error_objects@H@std@@2V_Iostream_error_category@2@A DD 01H DUP (?) ; std::_Error_objects<int>::_Iostream_object
_BSS	ENDS
;	COMDAT ?_System_object@?$_Error_objects@H@std@@2V_System_error_category@2@A
_BSS	SEGMENT
?_System_object@?$_Error_objects@H@std@@2V_System_error_category@2@A DD 01H DUP (?) ; std::_Error_objects<int>::_System_object
_BSS	ENDS
;	COMDAT ?id@?$num_put@DV?$back_insert_iterator@V?$basic_string@DU?$char_traits@D@std@@V?$allocator@D@2@@std@@@std@@@std@@2V0locale@2@A
_BSS	SEGMENT
?id@?$num_put@DV?$back_insert_iterator@V?$basic_string@DU?$char_traits@D@std@@V?$allocator@D@2@@std@@@std@@@std@@2V0locale@2@A DD 01H DUP (?) ; std::num_put<char,std::back_insert_iterator<std::basic_string<char,std::char_traits<char>,std::allocator<char> > > >::id
_BSS	ENDS
;	COMDAT ?id@?$num_put@_WV?$back_insert_iterator@V?$basic_string@_WU?$char_traits@_W@std@@V?$allocator@_W@2@@std@@@std@@@std@@2V0locale@2@A
_BSS	SEGMENT
?id@?$num_put@_WV?$back_insert_iterator@V?$basic_string@_WU?$char_traits@_W@std@@V?$allocator@_W@2@@std@@@std@@@std@@2V0locale@2@A DD 01H DUP (?) ; std::num_put<wchar_t,std::back_insert_iterator<std::basic_string<wchar_t,std::char_traits<wchar_t>,std::allocator<wchar_t> > > >::id
_BSS	ENDS
;	COMDAT ?looped@?1??StepWeaponByID@SMSClass@@QAEXXZ@4HA
_BSS	SEGMENT
?looped@?1??StepWeaponByID@SMSClass@@QAEXXZ@4HA DD 01H DUP (?) ; `SMSClass::StepWeaponByID'::`2'::looped
_BSS	ENDS
;	COMDAT ?id@?$numpunct@D@std@@2V0locale@2@A
_BSS	SEGMENT
?id@?$numpunct@D@std@@2V0locale@2@A DD 01H DUP (?)	; std::numpunct<char>::id
_BSS	ENDS
;	COMDAT ?id@?$numpunct@_W@std@@2V0locale@2@A
_BSS	SEGMENT
?id@?$numpunct@_W@std@@2V0locale@2@A DD 01H DUP (?)	; std::numpunct<wchar_t>::id
_BSS	ENDS
CRT$XCU	SEGMENT
_piecewise_construct$initializer$ DD FLAT:??__Epiecewise_construct@std@@YAXXZ
CRT$XCU	ENDS
;	COMDAT __real@bf860a91
CONST	SEGMENT
__real@bf860a91 DD 0bf860a91r			; -1.0472
CONST	ENDS
;	COMDAT __real@bf800000
CONST	SEGMENT
__real@bf800000 DD 0bf800000r			; -1
CONST	ENDS
;	COMDAT __real@bf060a91
CONST	SEGMENT
__real@bf060a91 DD 0bf060a91r			; -0.523599
CONST	ENDS
;	COMDAT __real@bf000000
CONST	SEGMENT
__real@bf000000 DD 0bf000000r			; -0.5
CONST	ENDS
;	COMDAT __real@beb2b8c1
CONST	SEGMENT
__real@beb2b8c1 DD 0beb2b8c1r			; -0.349066
CONST	ENDS
;	COMDAT __real@be32b8c1
CONST	SEGMENT
__real@be32b8c1 DD 0be32b8c1r			; -0.174533
CONST	ENDS
;	COMDAT __real@45bb8000
CONST	SEGMENT
__real@45bb8000 DD 045bb8000r			; 6000
CONST	ENDS
;	COMDAT __real@45a8c000
CONST	SEGMENT
__real@45a8c000 DD 045a8c000r			; 5400
CONST	ENDS
;	COMDAT __real@454cffae
CONST	SEGMENT
__real@454cffae DD 0454cffaer			; 3279.98
CONST	ENDS
;	COMDAT __real@453b8000
CONST	SEGMENT
__real@453b8000 DD 0453b8000r			; 3000
CONST	ENDS
;	COMDAT __real@44e10000
CONST	SEGMENT
__real@44e10000 DD 044e10000r			; 1800
CONST	ENDS
;	COMDAT __real@447a0000
CONST	SEGMENT
__real@447a0000 DD 0447a0000r			; 1000
CONST	ENDS
;	COMDAT __real@44610000
CONST	SEGMENT
__real@44610000 DD 044610000r			; 900
CONST	ENDS
;	COMDAT __real@44480000
CONST	SEGMENT
__real@44480000 DD 044480000r			; 800
CONST	ENDS
;	COMDAT __real@44160000
CONST	SEGMENT
__real@44160000 DD 044160000r			; 600
CONST	ENDS
;	COMDAT __real@44098000
CONST	SEGMENT
__real@44098000 DD 044098000r			; 550
CONST	ENDS
;	COMDAT __real@43fa0000
CONST	SEGMENT
__real@43fa0000 DD 043fa0000r			; 500
CONST	ENDS
;	COMDAT __real@43f00000
CONST	SEGMENT
__real@43f00000 DD 043f00000r			; 480
CONST	ENDS
;	COMDAT __real@43c80000
CONST	SEGMENT
__real@43c80000 DD 043c80000r			; 400
CONST	ENDS
;	COMDAT __real@43960000
CONST	SEGMENT
__real@43960000 DD 043960000r			; 300
CONST	ENDS
;	COMDAT __real@438d8000
CONST	SEGMENT
__real@438d8000 DD 0438d8000r			; 283
CONST	ENDS
;	COMDAT __real@43480000
CONST	SEGMENT
__real@43480000 DD 043480000r			; 200
CONST	ENDS
;	COMDAT __real@43340000
CONST	SEGMENT
__real@43340000 DD 043340000r			; 180
CONST	ENDS
;	COMDAT __real@43160000
CONST	SEGMENT
__real@43160000 DD 043160000r			; 150
CONST	ENDS
;	COMDAT __real@42960000
CONST	SEGMENT
__real@42960000 DD 042960000r			; 75
CONST	ENDS
;	COMDAT __real@42700000
CONST	SEGMENT
__real@42700000 DD 042700000r			; 60
CONST	ENDS
;	COMDAT __real@42200000
CONST	SEGMENT
__real@42200000 DD 042200000r			; 40
CONST	ENDS
;	COMDAT __real@42000000
CONST	SEGMENT
__real@42000000 DD 042000000r			; 32
CONST	ENDS
;	COMDAT __real@41f00000
CONST	SEGMENT
__real@41f00000 DD 041f00000r			; 30
CONST	ENDS
;	COMDAT __real@41a00000
CONST	SEGMENT
__real@41a00000 DD 041a00000r			; 20
CONST	ENDS
;	COMDAT __real@41300000
CONST	SEGMENT
__real@41300000 DD 041300000r			; 11
CONST	ENDS
;	COMDAT __real@41200000
CONST	SEGMENT
__real@41200000 DD 041200000r			; 10
CONST	ENDS
;	COMDAT __real@41100000
CONST	SEGMENT
__real@41100000 DD 041100000r			; 9
CONST	ENDS
;	COMDAT __real@40f00000
CONST	SEGMENT
__real@40f00000 DD 040f00000r			; 7.5
CONST	ENDS
;	COMDAT __real@40e00000
CONST	SEGMENT
__real@40e00000 DD 040e00000r			; 7
CONST	ENDS
;	COMDAT __real@40d00000
CONST	SEGMENT
__real@40d00000 DD 040d00000r			; 6.5
CONST	ENDS
;	COMDAT __real@40c00000
CONST	SEGMENT
__real@40c00000 DD 040c00000r			; 6
CONST	ENDS
;	COMDAT __real@40b00000
CONST	SEGMENT
__real@40b00000 DD 040b00000r			; 5.5
CONST	ENDS
;	COMDAT __real@40a00000
CONST	SEGMENT
__real@40a00000 DD 040a00000r			; 5
CONST	ENDS
;	COMDAT __real@40400000
CONST	SEGMENT
__real@40400000 DD 040400000r			; 3
CONST	ENDS
;	COMDAT __real@40200000
CONST	SEGMENT
__real@40200000 DD 040200000r			; 2.5
CONST	ENDS
;	COMDAT __real@40000000
CONST	SEGMENT
__real@40000000 DD 040000000r			; 2
CONST	ENDS
;	COMDAT __real@3fc00000
CONST	SEGMENT
__real@3fc00000 DD 03fc00000r			; 1.5
CONST	ENDS
;	COMDAT __real@3f800000
CONST	SEGMENT
__real@3f800000 DD 03f800000r			; 1
CONST	ENDS
;	COMDAT __real@3f666666
CONST	SEGMENT
__real@3f666666 DD 03f666666r			; 0.9
CONST	ENDS
;	COMDAT __real@3f490fd9
CONST	SEGMENT
__real@3f490fd9 DD 03f490fd9r			; 0.785398
CONST	ENDS
;	COMDAT __real@3f1c61a9
CONST	SEGMENT
__real@3f1c61a9 DD 03f1c61a9r			; 0.610865
CONST	ENDS
;	COMDAT __real@3f060a91
CONST	SEGMENT
__real@3f060a91 DD 03f060a91r			; 0.523599
CONST	ENDS
;	COMDAT __real@3f000000
CONST	SEGMENT
__real@3f000000 DD 03f000000r			; 0.5
CONST	ENDS
;	COMDAT __real@3eb2b8c1
CONST	SEGMENT
__real@3eb2b8c1 DD 03eb2b8c1r			; 0.349066
CONST	ENDS
;	COMDAT __real@3e84816f
CONST	SEGMENT
__real@3e84816f DD 03e84816fr			; 0.2588
CONST	ENDS
;	COMDAT __real@3e4ccccd
CONST	SEGMENT
__real@3e4ccccd DD 03e4ccccdr			; 0.2
CONST	ENDS
;	COMDAT __real@3e32b8c1
CONST	SEGMENT
__real@3e32b8c1 DD 03e32b8c1r			; 0.174533
CONST	ENDS
;	COMDAT __real@3dcccccd
CONST	SEGMENT
__real@3dcccccd DD 03dcccccdr			; 0.1
CONST	ENDS
;	COMDAT __real@00000000
CONST	SEGMENT
__real@00000000 DD 000000000r			; 0
CONST	ENDS
;	COMDAT ??_R2ANode@@8
rdata$r	SEGMENT
??_R2ANode@@8 DD FLAT:??_R1A@?0A@EA@ANode@@8		; ANode::`RTTI Base Class Array'
rdata$r	ENDS
;	COMDAT ??_R3ANode@@8
rdata$r	SEGMENT
??_R3ANode@@8 DD 00H					; ANode::`RTTI Class Hierarchy Descriptor'
	DD	00H
	DD	01H
	DD	FLAT:??_R2ANode@@8
rdata$r	ENDS
;	COMDAT ??_R0?AVANode@@@8
_DATA	SEGMENT
??_R0?AVANode@@@8 DD FLAT:??_7type_info@@6B@		; ANode `RTTI Type Descriptor'
	DD	00H
	DB	'.?AVANode@@', 00H
_DATA	ENDS
;	COMDAT ??_R1A@?0A@EA@ANode@@8
rdata$r	SEGMENT
??_R1A@?0A@EA@ANode@@8 DD FLAT:??_R0?AVANode@@@8	; ANode::`RTTI Base Class Descriptor at (0,-1,0,64)'
	DD	00H
	DD	00H
	DD	0ffffffffH
	DD	00H
	DD	040H
	DD	FLAT:??_R3ANode@@8
rdata$r	ENDS
;	COMDAT ??_R1A@?0A@EA@WeaponStepNode@@8
rdata$r	SEGMENT
??_R1A@?0A@EA@WeaponStepNode@@8 DD FLAT:??_R0?AVWeaponStepNode@@@8 ; WeaponStepNode::`RTTI Base Class Descriptor at (0,-1,0,64)'
	DD	01H
	DD	00H
	DD	0ffffffffH
	DD	00H
	DD	040H
	DD	FLAT:??_R3WeaponStepNode@@8
rdata$r	ENDS
;	COMDAT ??_R2WeaponStepNode@@8
rdata$r	SEGMENT
??_R2WeaponStepNode@@8 DD FLAT:??_R1A@?0A@EA@WeaponStepNode@@8 ; WeaponStepNode::`RTTI Base Class Array'
	DD	FLAT:??_R1A@?0A@EA@ANode@@8
rdata$r	ENDS
;	COMDAT ??_R3WeaponStepNode@@8
rdata$r	SEGMENT
??_R3WeaponStepNode@@8 DD 00H				; WeaponStepNode::`RTTI Class Hierarchy Descriptor'
	DD	00H
	DD	02H
	DD	FLAT:??_R2WeaponStepNode@@8
rdata$r	ENDS
;	COMDAT ??_R0?AVWeaponStepNode@@@8
_DATA	SEGMENT
??_R0?AVWeaponStepNode@@@8 DD FLAT:??_7type_info@@6B@	; WeaponStepNode `RTTI Type Descriptor'
	DD	00H
	DB	'.?AVWeaponStepNode@@', 00H
_DATA	ENDS
;	COMDAT ??_R4WeaponStepNode@@6B@
rdata$r	SEGMENT
??_R4WeaponStepNode@@6B@ DD 00H				; WeaponStepNode::`RTTI Complete Object Locator'
	DD	00H
	DD	00H
	DD	FLAT:??_R0?AVWeaponStepNode@@@8
	DD	FLAT:??_R3WeaponStepNode@@8
rdata$r	ENDS
;	COMDAT ??_R4SMSBaseClass@@6B@
rdata$r	SEGMENT
??_R4SMSBaseClass@@6B@ DD 00H				; SMSBaseClass::`RTTI Complete Object Locator'
	DD	00H
	DD	00H
	DD	FLAT:??_R0?AVSMSBaseClass@@@8
	DD	FLAT:??_R3SMSBaseClass@@8
rdata$r	ENDS
;	COMDAT ??_R2SMSBaseClass@@8
rdata$r	SEGMENT
??_R2SMSBaseClass@@8 DD FLAT:??_R1A@?0A@EA@SMSBaseClass@@8 ; SMSBaseClass::`RTTI Base Class Array'
rdata$r	ENDS
;	COMDAT ??_R3SMSBaseClass@@8
rdata$r	SEGMENT
??_R3SMSBaseClass@@8 DD 00H				; SMSBaseClass::`RTTI Class Hierarchy Descriptor'
	DD	00H
	DD	01H
	DD	FLAT:??_R2SMSBaseClass@@8
rdata$r	ENDS
;	COMDAT ??_R0?AVSMSBaseClass@@@8
_DATA	SEGMENT
??_R0?AVSMSBaseClass@@@8 DD FLAT:??_7type_info@@6B@	; SMSBaseClass `RTTI Type Descriptor'
	DD	00H
	DB	'.?AVSMSBaseClass@@', 00H
_DATA	ENDS
;	COMDAT ??_R1A@?0A@EA@SMSBaseClass@@8
rdata$r	SEGMENT
??_R1A@?0A@EA@SMSBaseClass@@8 DD FLAT:??_R0?AVSMSBaseClass@@@8 ; SMSBaseClass::`RTTI Base Class Descriptor at (0,-1,0,64)'
	DD	00H
	DD	00H
	DD	0ffffffffH
	DD	00H
	DD	040H
	DD	FLAT:??_R3SMSBaseClass@@8
rdata$r	ENDS
;	COMDAT ??_R1A@?0A@EA@SMSClass@@8
rdata$r	SEGMENT
??_R1A@?0A@EA@SMSClass@@8 DD FLAT:??_R0?AVSMSClass@@@8	; SMSClass::`RTTI Base Class Descriptor at (0,-1,0,64)'
	DD	01H
	DD	00H
	DD	0ffffffffH
	DD	00H
	DD	040H
	DD	FLAT:??_R3SMSClass@@8
rdata$r	ENDS
;	COMDAT ??_R2SMSClass@@8
rdata$r	SEGMENT
??_R2SMSClass@@8 DD FLAT:??_R1A@?0A@EA@SMSClass@@8	; SMSClass::`RTTI Base Class Array'
	DD	FLAT:??_R1A@?0A@EA@SMSBaseClass@@8
rdata$r	ENDS
;	COMDAT ??_R3SMSClass@@8
rdata$r	SEGMENT
??_R3SMSClass@@8 DD 00H					; SMSClass::`RTTI Class Hierarchy Descriptor'
	DD	00H
	DD	02H
	DD	FLAT:??_R2SMSClass@@8
rdata$r	ENDS
;	COMDAT ??_R0?AVSMSClass@@@8
_DATA	SEGMENT
??_R0?AVSMSClass@@@8 DD FLAT:??_7type_info@@6B@		; SMSClass `RTTI Type Descriptor'
	DD	00H
	DB	'.?AVSMSClass@@', 00H
_DATA	ENDS
;	COMDAT ??_R4SMSClass@@6B@
rdata$r	SEGMENT
??_R4SMSClass@@6B@ DD 00H				; SMSClass::`RTTI Complete Object Locator'
	DD	00H
	DD	00H
	DD	FLAT:??_R0?AVSMSClass@@@8
	DD	FLAT:??_R3SMSClass@@8
rdata$r	ENDS
;	COMDAT ??_R1A@?0A@EA@_System_error_category@std@@8
rdata$r	SEGMENT
??_R1A@?0A@EA@_System_error_category@std@@8 DD FLAT:??_R0?AV_System_error_category@std@@@8 ; std::_System_error_category::`RTTI Base Class Descriptor at (0,-1,0,64)'
	DD	02H
	DD	00H
	DD	0ffffffffH
	DD	00H
	DD	040H
	DD	FLAT:??_R3_System_error_category@std@@8
rdata$r	ENDS
;	COMDAT ??_R2_System_error_category@std@@8
rdata$r	SEGMENT
??_R2_System_error_category@std@@8 DD FLAT:??_R1A@?0A@EA@_System_error_category@std@@8 ; std::_System_error_category::`RTTI Base Class Array'
	DD	FLAT:??_R1A@?0A@EA@_Generic_error_category@std@@8
	DD	FLAT:??_R1A@?0A@EA@error_category@std@@8
rdata$r	ENDS
;	COMDAT ??_R3_System_error_category@std@@8
rdata$r	SEGMENT
??_R3_System_error_category@std@@8 DD 00H		; std::_System_error_category::`RTTI Class Hierarchy Descriptor'
	DD	00H
	DD	03H
	DD	FLAT:??_R2_System_error_category@std@@8
rdata$r	ENDS
;	COMDAT ??_R0?AV_System_error_category@std@@@8
_DATA	SEGMENT
??_R0?AV_System_error_category@std@@@8 DD FLAT:??_7type_info@@6B@ ; std::_System_error_category `RTTI Type Descriptor'
	DD	00H
	DB	'.?AV_System_error_category@std@@', 00H
_DATA	ENDS
;	COMDAT ??_R4_System_error_category@std@@6B@
rdata$r	SEGMENT
??_R4_System_error_category@std@@6B@ DD 00H		; std::_System_error_category::`RTTI Complete Object Locator'
	DD	00H
	DD	00H
	DD	FLAT:??_R0?AV_System_error_category@std@@@8
	DD	FLAT:??_R3_System_error_category@std@@8
rdata$r	ENDS
;	COMDAT ??_R1A@?0A@EA@_Iostream_error_category@std@@8
rdata$r	SEGMENT
??_R1A@?0A@EA@_Iostream_error_category@std@@8 DD FLAT:??_R0?AV_Iostream_error_category@std@@@8 ; std::_Iostream_error_category::`RTTI Base Class Descriptor at (0,-1,0,64)'
	DD	02H
	DD	00H
	DD	0ffffffffH
	DD	00H
	DD	040H
	DD	FLAT:??_R3_Iostream_error_category@std@@8
rdata$r	ENDS
;	COMDAT ??_R2_Iostream_error_category@std@@8
rdata$r	SEGMENT
??_R2_Iostream_error_category@std@@8 DD FLAT:??_R1A@?0A@EA@_Iostream_error_category@std@@8 ; std::_Iostream_error_category::`RTTI Base Class Array'
	DD	FLAT:??_R1A@?0A@EA@_Generic_error_category@std@@8
	DD	FLAT:??_R1A@?0A@EA@error_category@std@@8
rdata$r	ENDS
;	COMDAT ??_R3_Iostream_error_category@std@@8
rdata$r	SEGMENT
??_R3_Iostream_error_category@std@@8 DD 00H		; std::_Iostream_error_category::`RTTI Class Hierarchy Descriptor'
	DD	00H
	DD	03H
	DD	FLAT:??_R2_Iostream_error_category@std@@8
rdata$r	ENDS
;	COMDAT ??_R0?AV_Iostream_error_category@std@@@8
_DATA	SEGMENT
??_R0?AV_Iostream_error_category@std@@@8 DD FLAT:??_7type_info@@6B@ ; std::_Iostream_error_category `RTTI Type Descriptor'
	DD	00H
	DB	'.?AV_Iostream_error_category@std@@', 00H
_DATA	ENDS
;	COMDAT ??_R4_Iostream_error_category@std@@6B@
rdata$r	SEGMENT
??_R4_Iostream_error_category@std@@6B@ DD 00H		; std::_Iostream_error_category::`RTTI Complete Object Locator'
	DD	00H
	DD	00H
	DD	FLAT:??_R0?AV_Iostream_error_category@std@@@8
	DD	FLAT:??_R3_Iostream_error_category@std@@8
rdata$r	ENDS
;	COMDAT ??_R1A@?0A@EA@_Generic_error_category@std@@8
rdata$r	SEGMENT
??_R1A@?0A@EA@_Generic_error_category@std@@8 DD FLAT:??_R0?AV_Generic_error_category@std@@@8 ; std::_Generic_error_category::`RTTI Base Class Descriptor at (0,-1,0,64)'
	DD	01H
	DD	00H
	DD	0ffffffffH
	DD	00H
	DD	040H
	DD	FLAT:??_R3_Generic_error_category@std@@8
rdata$r	ENDS
;	COMDAT ??_R2_Generic_error_category@std@@8
rdata$r	SEGMENT
??_R2_Generic_error_category@std@@8 DD FLAT:??_R1A@?0A@EA@_Generic_error_category@std@@8 ; std::_Generic_error_category::`RTTI Base Class Array'
	DD	FLAT:??_R1A@?0A@EA@error_category@std@@8
rdata$r	ENDS
;	COMDAT ??_R3_Generic_error_category@std@@8
rdata$r	SEGMENT
??_R3_Generic_error_category@std@@8 DD 00H		; std::_Generic_error_category::`RTTI Class Hierarchy Descriptor'
	DD	00H
	DD	02H
	DD	FLAT:??_R2_Generic_error_category@std@@8
rdata$r	ENDS
;	COMDAT ??_R0?AV_Generic_error_category@std@@@8
_DATA	SEGMENT
??_R0?AV_Generic_error_category@std@@@8 DD FLAT:??_7type_info@@6B@ ; std::_Generic_error_category `RTTI Type Descriptor'
	DD	00H
	DB	'.?AV_Generic_error_category@std@@', 00H
_DATA	ENDS
;	COMDAT ??_R4_Generic_error_category@std@@6B@
rdata$r	SEGMENT
??_R4_Generic_error_category@std@@6B@ DD 00H		; std::_Generic_error_category::`RTTI Complete Object Locator'
	DD	00H
	DD	00H
	DD	FLAT:??_R0?AV_Generic_error_category@std@@@8
	DD	FLAT:??_R3_Generic_error_category@std@@8
rdata$r	ENDS
;	COMDAT ??_R1A@?0A@EA@error_category@std@@8
rdata$r	SEGMENT
??_R1A@?0A@EA@error_category@std@@8 DD FLAT:??_R0?AVerror_category@std@@@8 ; std::error_category::`RTTI Base Class Descriptor at (0,-1,0,64)'
	DD	00H
	DD	00H
	DD	0ffffffffH
	DD	00H
	DD	040H
	DD	FLAT:??_R3error_category@std@@8
rdata$r	ENDS
;	COMDAT ??_R2error_category@std@@8
rdata$r	SEGMENT
??_R2error_category@std@@8 DD FLAT:??_R1A@?0A@EA@error_category@std@@8 ; std::error_category::`RTTI Base Class Array'
rdata$r	ENDS
;	COMDAT ??_R3error_category@std@@8
rdata$r	SEGMENT
??_R3error_category@std@@8 DD 00H			; std::error_category::`RTTI Class Hierarchy Descriptor'
	DD	00H
	DD	01H
	DD	FLAT:??_R2error_category@std@@8
rdata$r	ENDS
;	COMDAT ??_R0?AVerror_category@std@@@8
_DATA	SEGMENT
??_R0?AVerror_category@std@@@8 DD FLAT:??_7type_info@@6B@ ; std::error_category `RTTI Type Descriptor'
	DD	00H
	DB	'.?AVerror_category@std@@', 00H
_DATA	ENDS
;	COMDAT ??_R4error_category@std@@6B@
rdata$r	SEGMENT
??_R4error_category@std@@6B@ DD 00H			; std::error_category::`RTTI Complete Object Locator'
	DD	00H
	DD	00H
	DD	FLAT:??_R0?AVerror_category@std@@@8
	DD	FLAT:??_R3error_category@std@@8
rdata$r	ENDS
;	COMDAT ??_C@_0BA@JFNIOLAK@string?5too?5long?$AA@
CONST	SEGMENT
??_C@_0BA@JFNIOLAK@string?5too?5long?$AA@ DB 'string too long', 00H ; `string'
CONST	ENDS
;	COMDAT ??_C@_0BI@CFPLBAOH@invalid?5string?5position?$AA@
CONST	SEGMENT
??_C@_0BI@CFPLBAOH@invalid?5string?5position?$AA@ DB 'invalid string posi'
	DB	'tion', 00H					; `string'
CONST	ENDS
;	COMDAT ??_C@_0N@EMOBHKIG@Match?5Hp?5?$CFd?6?$AA@
CONST	SEGMENT
??_C@_0N@EMOBHKIG@Match?5Hp?5?$CFd?6?$AA@ DB 'Match Hp %d', 0aH, 00H ; `string'
CONST	ENDS
;	COMDAT ??_C@_0BB@HKDFJNHB@Comparing?5Hp?5?$CFd?6?$AA@
CONST	SEGMENT
??_C@_0BB@HKDFJNHB@Comparing?5Hp?5?$CFd?6?$AA@ DB 'Comparing Hp %d', 0aH, 00H ; `string'
CONST	ENDS
;	COMDAT ??_7WeaponStepNode@@6B@
CONST	SEGMENT
??_7WeaponStepNode@@6B@ DD FLAT:??_R4WeaponStepNode@@6B@ ; WeaponStepNode::`vftable'
	DD	FLAT:?CompareWith@WeaponStepNode@@EAEHPAVANode@@@Z
CONST	ENDS
;	COMDAT ??_C@_0EO@GEPHIEMC@JettisonStation?$CI?$CFd?0?$CFd?$CJ?5?3?5rdflags@
CONST	SEGMENT
??_C@_0EO@GEPHIEMC@JettisonStation?$CI?$CFd?0?$CFd?$CJ?5?3?5rdflags@ DB 'J'
	DB	'ettisonStation(%d,%d) : rdflags=%8x  jettpylon=%d  jettrack=%'
	DB	'd jettweapon=%d', 00H			; `string'
CONST	ENDS
;	COMDAT ??_C@_0M@GPPLIIOD@bug?5bug?5bug?$AA@
CONST	SEGMENT
??_C@_0M@GPPLIIOD@bug?5bug?5bug?$AA@ DB 'bug bug bug', 00H ; `string'
CONST	ENDS
;	COMDAT ??_C@_0BM@CGGJMMAL@Jettison?5station?5?$CFd?5at?5?$CFld?6?$AA@
CONST	SEGMENT
??_C@_0BM@CGGJMMAL@Jettison?5station?5?$CFd?5at?5?$CFld?6?$AA@ DB 'Jettis'
	DB	'on station %d at %ld', 0aH, 00H		; `string'
CONST	ENDS
;	COMDAT ??_C@_0CF@JFLIKKKJ@Vehicle?5has?5unknown?5weapon?5type?5@
CONST	SEGMENT
??_C@_0CF@JFLIKKKJ@Vehicle?5has?5unknown?5weapon?5type?5@ DB 'Vehicle has'
	DB	' unknown weapon type %d.', 0aH, 00H		; `string'
CONST	ENDS
;	COMDAT ??_7SMSClass@@6B@
CONST	SEGMENT
??_7SMSClass@@6B@ DD FLAT:??_R4SMSClass@@6B@		; SMSClass::`vftable'
	DD	FLAT:??_ESMSClass@@UAEPAXI@Z
	DD	FLAT:?AddWeaponGraphics@SMSClass@@UAEXXZ
	DD	FLAT:?FreeWeaponGraphics@SMSClass@@UAEXXZ
	DD	FLAT:?GetCurrentWeapon@SMSClass@@UAEPAVSimWeaponClass@@XZ
CONST	ENDS
;	COMDAT ??_7SMSBaseClass@@6B@
CONST	SEGMENT
??_7SMSBaseClass@@6B@ DD FLAT:??_R4SMSBaseClass@@6B@	; SMSBaseClass::`vftable'
	DD	FLAT:??_ESMSBaseClass@@UAEPAXI@Z
	DD	FLAT:?AddWeaponGraphics@SMSBaseClass@@UAEXXZ
	DD	FLAT:?FreeWeaponGraphics@SMSBaseClass@@UAEXXZ
	DD	FLAT:?GetCurrentWeapon@SMSBaseClass@@UAEPAVSimWeaponClass@@XZ
CONST	ENDS
;	COMDAT ??_C@_06FHFOAHML@system?$AA@
CONST	SEGMENT
??_C@_06FHFOAHML@system?$AA@ DB 'system', 00H		; `string'
CONST	ENDS
;	COMDAT ??_7_System_error_category@std@@6B@
CONST	SEGMENT
??_7_System_error_category@std@@6B@ DD FLAT:??_R4_System_error_category@std@@6B@ ; std::_System_error_category::`vftable'
	DD	FLAT:??_E_System_error_category@std@@UAEPAXI@Z
	DD	FLAT:?name@_System_error_category@std@@UBEPBDXZ
	DD	FLAT:?message@_System_error_category@std@@UBE?AV?$basic_string@DU?$char_traits@D@std@@V?$allocator@D@2@@2@H@Z
	DD	FLAT:?default_error_condition@_System_error_category@std@@UBE?AVerror_condition@2@H@Z
	DD	FLAT:?equivalent@error_category@std@@UBE_NABVerror_code@2@H@Z
	DD	FLAT:?equivalent@error_category@std@@UBE_NHABVerror_condition@2@@Z
CONST	ENDS
;	COMDAT ??_C@_0BG@PADBLCHM@iostream?5stream?5error?$AA@
CONST	SEGMENT
??_C@_0BG@PADBLCHM@iostream?5stream?5error?$AA@ DB 'iostream stream error'
	DB	00H						; `string'
CONST	ENDS
;	COMDAT ??_C@_08LLGCOLLL@iostream?$AA@
CONST	SEGMENT
??_C@_08LLGCOLLL@iostream?$AA@ DB 'iostream', 00H	; `string'
CONST	ENDS
;	COMDAT ??_7_Iostream_error_category@std@@6B@
CONST	SEGMENT
??_7_Iostream_error_category@std@@6B@ DD FLAT:??_R4_Iostream_error_category@std@@6B@ ; std::_Iostream_error_category::`vftable'
	DD	FLAT:??_E_Iostream_error_category@std@@UAEPAXI@Z
	DD	FLAT:?name@_Iostream_error_category@std@@UBEPBDXZ
	DD	FLAT:?message@_Iostream_error_category@std@@UBE?AV?$basic_string@DU?$char_traits@D@std@@V?$allocator@D@2@@2@H@Z
	DD	FLAT:?default_error_condition@error_category@std@@UBE?AVerror_condition@2@H@Z
	DD	FLAT:?equivalent@error_category@std@@UBE_NABVerror_code@2@H@Z
	DD	FLAT:?equivalent@error_category@std@@UBE_NHABVerror_condition@2@@Z
CONST	ENDS
;	COMDAT ??_C@_0O@BFJCFAAK@unknown?5error?$AA@
CONST	SEGMENT
??_C@_0O@BFJCFAAK@unknown?5error?$AA@ DB 'unknown error', 00H ; `string'
CONST	ENDS
;	COMDAT ??_C@_07DCLBNMLN@generic?$AA@
CONST	SEGMENT
??_C@_07DCLBNMLN@generic?$AA@ DB 'generic', 00H		; `string'
CONST	ENDS
;	COMDAT ??_7_Generic_error_category@std@@6B@
CONST	SEGMENT
??_7_Generic_error_category@std@@6B@ DD FLAT:??_R4_Generic_error_category@std@@6B@ ; std::_Generic_error_category::`vftable'
	DD	FLAT:??_E_Generic_error_category@std@@UAEPAXI@Z
	DD	FLAT:?name@_Generic_error_category@std@@UBEPBDXZ
	DD	FLAT:?message@_Generic_error_category@std@@UBE?AV?$basic_string@DU?$char_traits@D@std@@V?$allocator@D@2@@2@H@Z
	DD	FLAT:?default_error_condition@error_category@std@@UBE?AVerror_condition@2@H@Z
	DD	FLAT:?equivalent@error_category@std@@UBE_NABVerror_code@2@H@Z
	DD	FLAT:?equivalent@error_category@std@@UBE_NHABVerror_condition@2@@Z
CONST	ENDS
;	COMDAT ??_7error_category@std@@6B@
CONST	SEGMENT
??_7error_category@std@@6B@ DD FLAT:??_R4error_category@std@@6B@ ; std::error_category::`vftable'
	DD	FLAT:??_Eerror_category@std@@UAEPAXI@Z
	DD	FLAT:__purecall
	DD	FLAT:__purecall
	DD	FLAT:?default_error_condition@error_category@std@@UBE?AVerror_condition@2@H@Z
	DD	FLAT:?equivalent@error_category@std@@UBE_NABVerror_code@2@H@Z
	DD	FLAT:?equivalent@error_category@std@@UBE_NHABVerror_condition@2@@Z
CONST	ENDS
;	COMDAT ??_C@_00CNPNBAHC@?$AA@
CONST	SEGMENT
??_C@_00CNPNBAHC@?$AA@ DB 00H				; `string'
CONST	ENDS
;	COMDAT xdata$x
xdata$x	SEGMENT
__unwindtable$??$construct@PADAAPAD@?$allocator@D@std@@QAEXPAPADAAPAD@Z DD 0ffffffffH
	DD	FLAT:__unwindfunclet$??$construct@PADAAPAD@?$allocator@D@std@@QAEXPAPADAAPAD@Z$0
__ehfuncinfo$??$construct@PADAAPAD@?$allocator@D@std@@QAEXPAPADAAPAD@Z DD 019930522H
	DD	01H
	DD	FLAT:__unwindtable$??$construct@PADAAPAD@?$allocator@D@std@@QAEXPAPADAAPAD@Z
	DD	2 DUP(00H)
	DD	2 DUP(00H)
	DD	00H
	DD	01H
xdata$x	ENDS
xdata$x	SEGMENT
__unwindtable$?SetPlayerSMS@SMSClass@@QAEXH@Z DD 0ffffffffH
	DD	FLAT:__unwindfunclet$?SetPlayerSMS@SMSClass@@QAEXH@Z$0
__unwindtable$?EmergencyJettison@SMSClass@@QAEXXZ DD 0ffffffffH
	DD	FLAT:__unwindfunclet$?EmergencyJettison@SMSClass@@QAEXXZ$0
__unwindtable$?SelectiveJettison@SMSClass@@QAEXXZ DD 0ffffffffH
	DD	FLAT:__unwindfunclet$?SelectiveJettison@SMSClass@@QAEXXZ$0
__unwindtable$?LaunchWeapon@SMSBaseClass@@QAEXXZ DD 0ffffffffH
	DD	FLAT:__unwindfunclet$?LaunchWeapon@SMSBaseClass@@QAEXXZ$0
__unwindtable$?StepWeaponByID@SMSClass@@QAEXXZ DD 0ffffffffH
	DD	FLAT:__unwindfunclet$?StepWeaponByID@SMSClass@@QAEXXZ$0
	DD	00H
	DD	FLAT:__unwindfunclet$?StepWeaponByID@SMSClass@@QAEXXZ$1
__unwindtable$?RemoveWeapon@SMSClass@@QAEXH@Z DD 0ffffffffH
	DD	FLAT:__unwindfunclet$?RemoveWeapon@SMSClass@@QAEXH@Z$0
	DD	00H
	DD	FLAT:__unwindfunclet$?RemoveWeapon@SMSClass@@QAEXH@Z$1
__unwindtable$??1SMSClass@@UAE@XZ DD 0ffffffffH
	DD	FLAT:__unwindfunclet$??1SMSClass@@UAE@XZ$0
	DD	00H
	DD	FLAT:__unwindfunclet$??1SMSClass@@UAE@XZ$1
__unwindtable$??0SMSClass@@QAE@PAVSimVehicleClass@@PAFPAE@Z DD 0ffffffffH
	DD	FLAT:__unwindfunclet$??0SMSClass@@QAE@PAVSimVehicleClass@@PAFPAE@Z$0
	DD	00H
	DD	FLAT:__unwindfunclet$??0SMSClass@@QAE@PAVSimVehicleClass@@PAFPAE@Z$1
__unwindtable$?DetachWeapon@SMSBaseClass@@QAEXHPAVSimWeaponClass@@@Z DD 0ffffffffH
	DD	FLAT:__unwindfunclet$?DetachWeapon@SMSBaseClass@@QAEXHPAVSimWeaponClass@@@Z$0
	DD	00H
	DD	FLAT:__unwindfunclet$?DetachWeapon@SMSBaseClass@@QAEXHPAVSimWeaponClass@@@Z$1
__unwindtable$?InitWeaponList@@YA?AV?$VuBin@VSimWeaponClass@@@@PAVFalconEntity@@GHHP6APAVSimWeaponClass@@0GH@ZPAH@Z DD 0ffffffffH
	DD	FLAT:__unwindfunclet$?InitWeaponList@@YA?AV?$VuBin@VSimWeaponClass@@@@PAVFalconEntity@@GHHP6APAVSimWeaponClass@@0GH@ZPAH@Z$2
	DD	00H
	DD	FLAT:__unwindfunclet$?InitWeaponList@@YA?AV?$VuBin@VSimWeaponClass@@@@PAVFalconEntity@@GHHP6APAVSimWeaponClass@@0GH@ZPAH@Z$0
	DD	01H
	DD	FLAT:__unwindfunclet$?InitWeaponList@@YA?AV?$VuBin@VSimWeaponClass@@@@PAVFalconEntity@@GHHP6APAVSimWeaponClass@@0GH@ZPAH@Z$1
__ehfuncinfo$?InitWeaponList@@YA?AV?$VuBin@VSimWeaponClass@@@@PAVFalconEntity@@GHHP6APAVSimWeaponClass@@0GH@ZPAH@Z DD 019930522H
	DD	03H
	DD	FLAT:__unwindtable$?InitWeaponList@@YA?AV?$VuBin@VSimWeaponClass@@@@PAVFalconEntity@@GHHP6APAVSimWeaponClass@@0GH@ZPAH@Z
	DD	2 DUP(00H)
	DD	2 DUP(00H)
	DD	00H
	DD	01H
__ehfuncinfo$?StepWeaponByID@SMSClass@@QAEXXZ DD 019930522H
	DD	02H
	DD	FLAT:__unwindtable$?StepWeaponByID@SMSClass@@QAEXXZ
	DD	2 DUP(00H)
	DD	2 DUP(00H)
	DD	00H
	DD	01H
__ehfuncinfo$?SetPlayerSMS@SMSClass@@QAEXH@Z DD 019930522H
	DD	01H
	DD	FLAT:__unwindtable$?SetPlayerSMS@SMSClass@@QAEXH@Z
	DD	2 DUP(00H)
	DD	2 DUP(00H)
	DD	00H
	DD	01H
__ehfuncinfo$?RemoveWeapon@SMSClass@@QAEXH@Z DD 019930522H
	DD	02H
	DD	FLAT:__unwindtable$?RemoveWeapon@SMSClass@@QAEXH@Z
	DD	2 DUP(00H)
	DD	2 DUP(00H)
	DD	00H
	DD	01H
__ehfuncinfo$?EmergencyJettison@SMSClass@@QAEXXZ DD 019930522H
	DD	01H
	DD	FLAT:__unwindtable$?EmergencyJettison@SMSClass@@QAEXXZ
	DD	2 DUP(00H)
	DD	2 DUP(00H)
	DD	00H
	DD	01H
__ehfuncinfo$?SelectiveJettison@SMSClass@@QAEXXZ DD 019930522H
	DD	01H
	DD	FLAT:__unwindtable$?SelectiveJettison@SMSClass@@QAEXXZ
	DD	2 DUP(00H)
	DD	2 DUP(00H)
	DD	00H
	DD	01H
__ehfuncinfo$??1SMSClass@@UAE@XZ DD 019930522H
	DD	02H
	DD	FLAT:__unwindtable$??1SMSClass@@UAE@XZ
	DD	2 DUP(00H)
	DD	2 DUP(00H)
	DD	00H
	DD	01H
__ehfuncinfo$??0SMSClass@@QAE@PAVSimVehicleClass@@PAFPAE@Z DD 019930522H
	DD	02H
	DD	FLAT:__unwindtable$??0SMSClass@@QAE@PAVSimVehicleClass@@PAFPAE@Z
	DD	2 DUP(00H)
	DD	2 DUP(00H)
	DD	00H
	DD	01H
__ehfuncinfo$?JettisonStation@SMSClass@@IAEHHW4JettisonMode@@@Z DD 019930522H
	DD	05H
	DD	FLAT:__unwindtable$?JettisonStation@SMSClass@@IAEHHW4JettisonMode@@@Z
	DD	2 DUP(00H)
	DD	2 DUP(00H)
	DD	00H
	DD	01H
__ehfuncinfo$?DetachWeapon@SMSBaseClass@@QAEXHPAVSimWeaponClass@@@Z DD 019930522H
	DD	02H
	DD	FLAT:__unwindtable$?DetachWeapon@SMSBaseClass@@QAEXHPAVSimWeaponClass@@@Z
	DD	2 DUP(00H)
	DD	2 DUP(00H)
	DD	00H
	DD	01H
__ehfuncinfo$?LaunchWeapon@SMSBaseClass@@QAEXXZ DD 019930522H
	DD	01H
	DD	FLAT:__unwindtable$?LaunchWeapon@SMSBaseClass@@QAEXXZ
	DD	2 DUP(00H)
	DD	2 DUP(00H)
	DD	00H
	DD	01H
__ehfuncinfo$??0SMSBaseClass@@QAE@PAVSimVehicleClass@@PAFPAEH@Z DD 019930522H
	DD	05H
	DD	FLAT:__unwindtable$??0SMSBaseClass@@QAE@PAVSimVehicleClass@@PAFPAEH@Z
	DD	2 DUP(00H)
	DD	2 DUP(00H)
	DD	00H
	DD	01H
__unwindtable$?JettisonStation@SMSClass@@IAEHHW4JettisonMode@@@Z DD 0ffffffffH
	DD	FLAT:__unwindfunclet$?JettisonStation@SMSClass@@IAEHHW4JettisonMode@@@Z$0
	DD	00H
	DD	FLAT:__unwindfunclet$?JettisonStation@SMSClass@@IAEHHW4JettisonMode@@@Z$1
	DD	01H
	DD	FLAT:__unwindfunclet$?JettisonStation@SMSClass@@IAEHHW4JettisonMode@@@Z$2
	DD	01H
	DD	FLAT:__unwindfunclet$?JettisonStation@SMSClass@@IAEHHW4JettisonMode@@@Z$3
	DD	01H
	DD	FLAT:__unwindfunclet$?JettisonStation@SMSClass@@IAEHHW4JettisonMode@@@Z$4
__unwindtable$??0SMSBaseClass@@QAE@PAVSimVehicleClass@@PAFPAEH@Z DD 0ffffffffH
	DD	FLAT:__unwindfunclet$??0SMSBaseClass@@QAE@PAVSimVehicleClass@@PAFPAEH@Z$0
	DD	0ffffffffH
	DD	FLAT:__unwindfunclet$??0SMSBaseClass@@QAE@PAVSimVehicleClass@@PAFPAEH@Z$1
	DD	0ffffffffH
	DD	FLAT:__unwindfunclet$??0SMSBaseClass@@QAE@PAVSimVehicleClass@@PAFPAEH@Z$2
	DD	0ffffffffH
	DD	FLAT:__unwindfunclet$??0SMSBaseClass@@QAE@PAVSimVehicleClass@@PAFPAEH@Z$3
	DD	0ffffffffH
	DD	FLAT:__unwindfunclet$??0SMSBaseClass@@QAE@PAVSimVehicleClass@@PAFPAEH@Z$4
xdata$x	ENDS
;	COMDAT xdata$x
xdata$x	SEGMENT
__unwindtable$??1AList@@QAE@XZ DD 0ffffffffH
	DD	FLAT:__unwindfunclet$??1AList@@QAE@XZ$0
__ehfuncinfo$??1AList@@QAE@XZ DD 019930522H
	DD	01H
	DD	FLAT:__unwindtable$??1AList@@QAE@XZ
	DD	2 DUP(00H)
	DD	2 DUP(00H)
	DD	00H
	DD	01H
xdata$x	ENDS
;	COMDAT xdata$x
xdata$x	SEGMENT
__catchsym$?_Copy@?$basic_string@DU?$char_traits@D@std@@V?$allocator@D@2@@std@@QAEXII@Z$5 DD 040H
	DD	00H
	DD	00H
	DD	FLAT:__catch$?_Copy@?$basic_string@DU?$char_traits@D@std@@V?$allocator@D@2@@std@@QAEXII@Z$0
__catchsym$?_Copy@?$basic_string@DU?$char_traits@D@std@@V?$allocator@D@2@@std@@QAEXII@Z$4 DD 040H
	DD	00H
	DD	00H
	DD	FLAT:__catch$?_Copy@?$basic_string@DU?$char_traits@D@std@@V?$allocator@D@2@@std@@QAEXII@Z$1
__unwindtable$?_Copy@?$basic_string@DU?$char_traits@D@std@@V?$allocator@D@2@@std@@QAEXII@Z DD 0ffffffffH
	DD	00H
	DD	0ffffffffH
	DD	00H
	DD	01H
	DD	00H
	DD	01H
	DD	00H
__ehfuncinfo$?_Copy@?$basic_string@DU?$char_traits@D@std@@V?$allocator@D@2@@std@@QAEXII@Z DD 019930522H
	DD	04H
	DD	FLAT:__unwindtable$?_Copy@?$basic_string@DU?$char_traits@D@std@@V?$allocator@D@2@@std@@QAEXII@Z
	DD	02H
	DD	FLAT:__tryblocktable$?_Copy@?$basic_string@DU?$char_traits@D@std@@V?$allocator@D@2@@std@@QAEXII@Z
	DD	2 DUP(00H)
	DD	00H
	DD	01H
__tryblocktable$?_Copy@?$basic_string@DU?$char_traits@D@std@@V?$allocator@D@2@@std@@QAEXII@Z DD 02H
	DD	02H
	DD	03H
	DD	01H
	DD	FLAT:__catchsym$?_Copy@?$basic_string@DU?$char_traits@D@std@@V?$allocator@D@2@@std@@QAEXII@Z$4
	DD	00H
	DD	00H
	DD	03H
	DD	01H
	DD	FLAT:__catchsym$?_Copy@?$basic_string@DU?$char_traits@D@std@@V?$allocator@D@2@@std@@QAEXII@Z$5
xdata$x	ENDS
CRT$XCU	SEGMENT
_allocator_arg$initializer$ DD FLAT:??__Eallocator_arg@std@@YAXXZ
CRT$XCU	ENDS
;	COMDAT CRT$XCU
CRT$XCU	SEGMENT
?_Generic_object$initializer$@?$_Error_objects@H@std@@2P6AXXZA DD FLAT:??__E?_Generic_object@?$_Error_objects@H@std@@2V_Generic_error_category@2@A@@YAXXZ ; std::_Error_objects<int>::_Generic_object$initializer$
CRT$XCU	ENDS
;	COMDAT CRT$XCU
CRT$XCU	SEGMENT
?_Iostream_object$initializer$@?$_Error_objects@H@std@@2P6AXXZA DD FLAT:??__E?_Iostream_object@?$_Error_objects@H@std@@2V_Iostream_error_category@2@A@@YAXXZ ; std::_Error_objects<int>::_Iostream_object$initializer$
CRT$XCU	ENDS
;	COMDAT CRT$XCU
CRT$XCU	SEGMENT
?_System_object$initializer$@?$_Error_objects@H@std@@2P6AXXZA DD FLAT:??__E?_System_object@?$_Error_objects@H@std@@2V_System_error_category@2@A@@YAXXZ ; std::_Error_objects<int>::_System_object$initializer$
CRT$XCU	ENDS
;	COMDAT CRT$XCU
CRT$XCU	SEGMENT
?id$initializer$@?$num_put@DV?$back_insert_iterator@V?$basic_string@DU?$char_traits@D@std@@V?$allocator@D@2@@std@@@std@@@std@@2P6AXXZA DD FLAT:??__E?id@?$num_put@DV?$back_insert_iterator@V?$basic_string@DU?$char_traits@D@std@@V?$allocator@D@2@@std@@@std@@@std@@2V0locale@2@A@@YAXXZ ; std::num_put<char,std::back_insert_iterator<std::basic_string<char,std::char_traits<char>,std::allocator<char> > > >::id$initializer$
CRT$XCU	ENDS
;	COMDAT CRT$XCU
CRT$XCU	SEGMENT
?id$initializer$@?$num_put@_WV?$back_insert_iterator@V?$basic_string@_WU?$char_traits@_W@std@@V?$allocator@_W@2@@std@@@std@@@std@@2P6AXXZA DD FLAT:??__E?id@?$num_put@_WV?$back_insert_iterator@V?$basic_string@_WU?$char_traits@_W@std@@V?$allocator@_W@2@@std@@@std@@@std@@2V0locale@2@A@@YAXXZ ; std::num_put<wchar_t,std::back_insert_iterator<std::basic_string<wchar_t,std::char_traits<wchar_t>,std::allocator<wchar_t> > > >::id$initializer$
CRT$XCU	ENDS
;	COMDAT CRT$XCU
CRT$XCU	SEGMENT
?id$initializer$@?$numpunct@D@std@@2P6AXXZA DD FLAT:??__E?id@?$numpunct@D@std@@2V0locale@2@A@@YAXXZ ; std::numpunct<char>::id$initializer$
CRT$XCU	ENDS
;	COMDAT CRT$XCU
CRT$XCU	SEGMENT
?id$initializer$@?$numpunct@_W@std@@2P6AXXZA DD FLAT:??__E?id@?$numpunct@_W@std@@2V0locale@2@A@@YAXXZ ; std::numpunct<wchar_t>::id$initializer$
CRT$XCU	ENDS
; Function compile flags: /Odtp
; File c:\program files (x86)\microsoft visual studio 11.0\vc\include\xmemory0
;	COMDAT ??$destroy@PAD@?$allocator@D@std@@QAEXPAPAD@Z
_TEXT	SEGMENT
_this$ = -4						; size = 4
__Ptr$ = 8						; size = 4
??$destroy@PAD@?$allocator@D@std@@QAEXPAPAD@Z PROC	; std::allocator<char>::destroy<char *>, COMDAT
; _this$ = ecx

; 621  : 		void destroy(_Uty *_Ptr)

	push	ebp
	mov	ebp, esp
	push	ecx
	mov	DWORD PTR _this$[ebp], ecx

; 622  : 		{	// destroy object at _Ptr
; 623  : 		_Ptr->~_Uty();
; 624  : 		}

	mov	esp, ebp
	pop	ebp
	ret	4
??$destroy@PAD@?$allocator@D@std@@QAEXPAPAD@Z ENDP	; std::allocator<char>::destroy<char *>
_TEXT	ENDS
; Function compile flags: /Odtp
; File c:\program files (x86)\microsoft visual studio 11.0\vc\include\xmemory0
;	COMDAT ??$construct@PADAAPAD@?$allocator@D@std@@QAEXPAPADAAPAD@Z
_TEXT	SEGMENT
$T2 = -28						; size = 4
_this$ = -24						; size = 4
tv73 = -20						; size = 4
$T3 = -16						; size = 4
__$EHRec$ = -12						; size = 12
__Ptr$ = 8						; size = 4
__V0$ = 12						; size = 4
??$construct@PADAAPAD@?$allocator@D@std@@QAEXPAPADAAPAD@Z PROC ; std::allocator<char>::construct<char *,char * &>, COMDAT
; _this$ = ecx

; 617  : _VARIADIC_EXPAND_0X(_ALLOC_MEMBER_CONSTRUCT, , , , )

	push	ebp
	mov	ebp, esp
	push	-1
	push	__ehhandler$??$construct@PADAAPAD@?$allocator@D@std@@QAEXPAPADAAPAD@Z
	mov	eax, DWORD PTR fs:0
	push	eax
	sub	esp, 16					; 00000010H
	mov	eax, DWORD PTR ___security_cookie
	xor	eax, ebp
	push	eax
	lea	eax, DWORD PTR __$EHRec$[ebp]
	mov	DWORD PTR fs:0, eax
	mov	DWORD PTR _this$[ebp], ecx
	mov	eax, DWORD PTR __Ptr$[ebp]
	push	eax
	push	4
	call	??2@YAPAXIPAX@Z				; operator new
	add	esp, 8
	mov	DWORD PTR $T3[ebp], eax
	mov	DWORD PTR __$EHRec$[ebp+8], 0
	cmp	DWORD PTR $T3[ebp], 0
	je	SHORT $LN3@construct
	mov	ecx, DWORD PTR __V0$[ebp]
	push	ecx
	call	??$forward@AAPAD@std@@YAAAPADAAPAD@Z	; std::forward<char * &>
	add	esp, 4
	mov	edx, DWORD PTR $T3[ebp]
	mov	eax, DWORD PTR [eax]
	mov	DWORD PTR [edx], eax
	mov	ecx, DWORD PTR $T3[ebp]
	mov	DWORD PTR tv73[ebp], ecx
	jmp	SHORT $LN4@construct
$LN3@construct:
	mov	DWORD PTR tv73[ebp], 0
$LN4@construct:
	mov	edx, DWORD PTR tv73[ebp]
	mov	DWORD PTR $T2[ebp], edx
	mov	DWORD PTR __$EHRec$[ebp+8], -1
	mov	ecx, DWORD PTR __$EHRec$[ebp]
	mov	DWORD PTR fs:0, ecx
	pop	ecx
	mov	esp, ebp
	pop	ebp
	ret	8
_TEXT	ENDS
;	COMDAT text$x
text$x	SEGMENT
__unwindfunclet$??$construct@PADAAPAD@?$allocator@D@std@@QAEXPAPADAAPAD@Z$0:
	mov	eax, DWORD PTR __Ptr$[ebp]
	push	eax
	mov	eax, DWORD PTR $T3[ebp]
	push	eax
	call	??3@YAXPAX0@Z				; operator delete
	add	esp, 8
	ret	0
__ehhandler$??$construct@PADAAPAD@?$allocator@D@std@@QAEXPAPADAAPAD@Z:
	mov	edx, DWORD PTR [esp+8]
	lea	eax, DWORD PTR [edx+12]
	mov	ecx, DWORD PTR [edx-20]
	xor	ecx, eax
	call	@__security_check_cookie@4
	mov	eax, OFFSET __ehfuncinfo$??$construct@PADAAPAD@?$allocator@D@std@@QAEXPAPADAAPAD@Z
	jmp	___CxxFrameHandler3
text$x	ENDS
??$construct@PADAAPAD@?$allocator@D@std@@QAEXPAPADAAPAD@Z ENDP ; std::allocator<char>::construct<char *,char * &>
; Function compile flags: /Odtp
; File c:\program files (x86)\microsoft visual studio 11.0\vc\include\xlocnum
;	COMDAT ??__E?id@?$numpunct@_W@std@@2V0locale@2@A@@YAXXZ
text$yc	SEGMENT
??__E?id@?$numpunct@_W@std@@2V0locale@2@A@@YAXXZ PROC	; `dynamic initializer for 'std::numpunct<wchar_t>::id'', COMDAT

; 155  : 		void _Getvals(wchar_t, const lconv *_Ptr, _Locinfo::_Cvtvec)

	push	ebp
	mov	ebp, esp
	push	0
	mov	ecx, OFFSET ?id@?$numpunct@_W@std@@2V0locale@2@A ; std::numpunct<wchar_t>::id
	call	??0id@locale@std@@QAE@I@Z		; std::locale::id::id
	pop	ebp
	ret	0
??__E?id@?$numpunct@_W@std@@2V0locale@2@A@@YAXXZ ENDP	; `dynamic initializer for 'std::numpunct<wchar_t>::id''
text$yc	ENDS
; Function compile flags: /Odtp
; File c:\program files (x86)\microsoft visual studio 11.0\vc\include\xlocnum
;	COMDAT ??__E?id@?$numpunct@D@std@@2V0locale@2@A@@YAXXZ
text$yc	SEGMENT
??__E?id@?$numpunct@D@std@@2V0locale@2@A@@YAXXZ PROC	; `dynamic initializer for 'std::numpunct<char>::id'', COMDAT

; 155  : 		void _Getvals(wchar_t, const lconv *_Ptr, _Locinfo::_Cvtvec)

	push	ebp
	mov	ebp, esp
	push	0
	mov	ecx, OFFSET ?id@?$numpunct@D@std@@2V0locale@2@A ; std::numpunct<char>::id
	call	??0id@locale@std@@QAE@I@Z		; std::locale::id::id
	pop	ebp
	ret	0
??__E?id@?$numpunct@D@std@@2V0locale@2@A@@YAXXZ ENDP	; `dynamic initializer for 'std::numpunct<char>::id''
text$yc	ENDS
; Function compile flags: /Odtp
; File c:\program files (x86)\microsoft visual studio 11.0\vc\include\xlocnum
;	COMDAT ??__E?id@?$num_put@_WV?$back_insert_iterator@V?$basic_string@_WU?$char_traits@_W@std@@V?$allocator@_W@2@@std@@@std@@@std@@2V0locale@2@A@@YAXXZ
text$yc	SEGMENT
??__E?id@?$num_put@_WV?$back_insert_iterator@V?$basic_string@_WU?$char_traits@_W@std@@V?$allocator@_W@2@@std@@@std@@@std@@2V0locale@2@A@@YAXXZ PROC ; `dynamic initializer for 'std::num_put<wchar_t,std::back_insert_iterator<std::basic_string<wchar_t,std::char_traits<wchar_t>,std::allocator<wchar_t> > > >::id'', COMDAT

; 155  : 		void _Getvals(wchar_t, const lconv *_Ptr, _Locinfo::_Cvtvec)

	push	ebp
	mov	ebp, esp
	push	0
	mov	ecx, OFFSET ?id@?$num_put@_WV?$back_insert_iterator@V?$basic_string@_WU?$char_traits@_W@std@@V?$allocator@_W@2@@std@@@std@@@std@@2V0locale@2@A ; std::num_put<wchar_t,std::back_insert_iterator<std::basic_string<wchar_t,std::char_traits<wchar_t>,std::allocator<wchar_t> > > >::id
	call	??0id@locale@std@@QAE@I@Z		; std::locale::id::id
	pop	ebp
	ret	0
??__E?id@?$num_put@_WV?$back_insert_iterator@V?$basic_string@_WU?$char_traits@_W@std@@V?$allocator@_W@2@@std@@@std@@@std@@2V0locale@2@A@@YAXXZ ENDP ; `dynamic initializer for 'std::num_put<wchar_t,std::back_insert_iterator<std::basic_string<wchar_t,std::char_traits<wchar_t>,std::allocator<wchar_t> > > >::id''
text$yc	ENDS
; Function compile flags: /Odtp
; File c:\program files (x86)\microsoft visual studio 11.0\vc\include\xlocnum
;	COMDAT ??__E?id@?$num_put@DV?$back_insert_iterator@V?$basic_string@DU?$char_traits@D@std@@V?$allocator@D@2@@std@@@std@@@std@@2V0locale@2@A@@YAXXZ
text$yc	SEGMENT
??__E?id@?$num_put@DV?$back_insert_iterator@V?$basic_string@DU?$char_traits@D@std@@V?$allocator@D@2@@std@@@std@@@std@@2V0locale@2@A@@YAXXZ PROC ; `dynamic initializer for 'std::num_put<char,std::back_insert_iterator<std::basic_string<char,std::char_traits<char>,std::allocator<char> > > >::id'', COMDAT

; 155  : 		void _Getvals(wchar_t, const lconv *_Ptr, _Locinfo::_Cvtvec)

	push	ebp
	mov	ebp, esp
	push	0
	mov	ecx, OFFSET ?id@?$num_put@DV?$back_insert_iterator@V?$basic_string@DU?$char_traits@D@std@@V?$allocator@D@2@@std@@@std@@@std@@2V0locale@2@A ; std::num_put<char,std::back_insert_iterator<std::basic_string<char,std::char_traits<char>,std::allocator<char> > > >::id
	call	??0id@locale@std@@QAE@I@Z		; std::locale::id::id
	pop	ebp
	ret	0
??__E?id@?$num_put@DV?$back_insert_iterator@V?$basic_string@DU?$char_traits@D@std@@V?$allocator@D@2@@std@@@std@@@std@@2V0locale@2@A@@YAXXZ ENDP ; `dynamic initializer for 'std::num_put<char,std::back_insert_iterator<std::basic_string<char,std::char_traits<char>,std::allocator<char> > > >::id''
text$yc	ENDS
; Function compile flags: /Odtp
; File c:\program files (x86)\microsoft visual studio 11.0\vc\include\xmemory0
;	COMDAT ??$destroy@PAD@?$allocator_traits@V?$allocator@D@std@@@std@@SAXAAV?$allocator@D@1@PAPAD@Z
_TEXT	SEGMENT
__Al$ = 8						; size = 4
__Ptr$ = 12						; size = 4
??$destroy@PAD@?$allocator_traits@V?$allocator@D@std@@@std@@SAXAAV?$allocator@D@1@PAPAD@Z PROC ; std::allocator_traits<std::allocator<char> >::destroy<char *>, COMDAT

; 755  : 		static void destroy(_Alloc& _Al, _Uty *_Ptr)

	push	ebp
	mov	ebp, esp

; 756  : 		{	// destroy object at _Ptr
; 757  : 		_Al.destroy(_Ptr);

	mov	eax, DWORD PTR __Ptr$[ebp]
	push	eax
	mov	ecx, DWORD PTR __Al$[ebp]
	call	??$destroy@PAD@?$allocator@D@std@@QAEXPAPAD@Z ; std::allocator<char>::destroy<char *>

; 758  : 		}

	pop	ebp
	ret	0
??$destroy@PAD@?$allocator_traits@V?$allocator@D@std@@@std@@SAXAAV?$allocator@D@1@PAPAD@Z ENDP ; std::allocator_traits<std::allocator<char> >::destroy<char *>
_TEXT	ENDS
; Function compile flags: /Odtp
; File c:\program files (x86)\microsoft visual studio 11.0\vc\include\xmemory0
;	COMDAT ??$construct@PADAAPAD@?$allocator_traits@V?$allocator@D@std@@@std@@SAXAAV?$allocator@D@1@PAPADAAPAD@Z
_TEXT	SEGMENT
__Al$ = 8						; size = 4
__Ptr$ = 12						; size = 4
__V0$ = 16						; size = 4
??$construct@PADAAPAD@?$allocator_traits@V?$allocator@D@std@@@std@@SAXAAV?$allocator@D@1@PAPADAAPAD@Z PROC ; std::allocator_traits<std::allocator<char> >::construct<char *,char * &>, COMDAT

; 751  : _VARIADIC_EXPAND_0X(_ALLOC_TRAITS_SPECIAL_CONSTRUCT, , , , )

	push	ebp
	mov	ebp, esp
	mov	eax, DWORD PTR __V0$[ebp]
	push	eax
	call	??$forward@AAPAD@std@@YAAAPADAAPAD@Z	; std::forward<char * &>
	add	esp, 4
	push	eax
	mov	ecx, DWORD PTR __Ptr$[ebp]
	push	ecx
	mov	ecx, DWORD PTR __Al$[ebp]
	call	??$construct@PADAAPAD@?$allocator@D@std@@QAEXPAPADAAPAD@Z ; std::allocator<char>::construct<char *,char * &>
	pop	ebp
	ret	0
??$construct@PADAAPAD@?$allocator_traits@V?$allocator@D@std@@@std@@SAXAAV?$allocator@D@1@PAPADAAPAD@Z ENDP ; std::allocator_traits<std::allocator<char> >::construct<char *,char * &>
_TEXT	ENDS
; Function compile flags: /Odtp
; File c:\program files (x86)\microsoft visual studio 11.0\vc\include\type_traits
;	COMDAT ??$forward@AAPAD@std@@YAAAPADAAPAD@Z
_TEXT	SEGMENT
__Arg$ = 8						; size = 4
??$forward@AAPAD@std@@YAAAPADAAPAD@Z PROC		; std::forward<char * &>, COMDAT

; 1775 : 	{	// forward an lvalue

	push	ebp
	mov	ebp, esp

; 1776 : 	return (static_cast<_Ty&&>(_Arg));

	mov	eax, DWORD PTR __Arg$[ebp]

; 1777 : 	}

	pop	ebp
	ret	0
??$forward@AAPAD@std@@YAAAPADAAPAD@Z ENDP		; std::forward<char * &>
_TEXT	ENDS
; Function compile flags: /Odtp
;	COMDAT ??__F?_System_object@?$_Error_objects@H@std@@2V_System_error_category@2@A@@YAXXZ
text$yd	SEGMENT
??__F?_System_object@?$_Error_objects@H@std@@2V_System_error_category@2@A@@YAXXZ PROC ; `dynamic atexit destructor for 'std::_Error_objects<int>::_System_object'', COMDAT
	push	ebp
	mov	ebp, esp
	mov	ecx, OFFSET ?_System_object@?$_Error_objects@H@std@@2V_System_error_category@2@A ; std::_Error_objects<int>::_System_object
	call	??1_System_error_category@std@@UAE@XZ
	pop	ebp
	ret	0
??__F?_System_object@?$_Error_objects@H@std@@2V_System_error_category@2@A@@YAXXZ ENDP ; `dynamic atexit destructor for 'std::_Error_objects<int>::_System_object''
text$yd	ENDS
; Function compile flags: /Odtp
; File c:\program files (x86)\microsoft visual studio 11.0\vc\include\xmemory0
;	COMDAT ??__E?_System_object@?$_Error_objects@H@std@@2V_System_error_category@2@A@@YAXXZ
text$yc	SEGMENT
??__E?_System_object@?$_Error_objects@H@std@@2V_System_error_category@2@A@@YAXXZ PROC ; `dynamic initializer for 'std::_Error_objects<int>::_System_object'', COMDAT

; 627  : 		{	// estimate maximum array size

	push	ebp
	mov	ebp, esp
	mov	ecx, OFFSET ?_System_object@?$_Error_objects@H@std@@2V_System_error_category@2@A ; std::_Error_objects<int>::_System_object
	call	??0_System_error_category@std@@QAE@XZ	; std::_System_error_category::_System_error_category
	push	OFFSET ??__F?_System_object@?$_Error_objects@H@std@@2V_System_error_category@2@A@@YAXXZ ; `dynamic atexit destructor for 'std::_Error_objects<int>::_System_object''
	call	_atexit
	add	esp, 4
	pop	ebp
	ret	0
??__E?_System_object@?$_Error_objects@H@std@@2V_System_error_category@2@A@@YAXXZ ENDP ; `dynamic initializer for 'std::_Error_objects<int>::_System_object''
text$yc	ENDS
; Function compile flags: /Odtp
;	COMDAT ??__F?_Iostream_object@?$_Error_objects@H@std@@2V_Iostream_error_category@2@A@@YAXXZ
text$yd	SEGMENT
??__F?_Iostream_object@?$_Error_objects@H@std@@2V_Iostream_error_category@2@A@@YAXXZ PROC ; `dynamic atexit destructor for 'std::_Error_objects<int>::_Iostream_object'', COMDAT
	push	ebp
	mov	ebp, esp
	mov	ecx, OFFSET ?_Iostream_object@?$_Error_objects@H@std@@2V_Iostream_error_category@2@A ; std::_Error_objects<int>::_Iostream_object
	call	??1_Iostream_error_category@std@@UAE@XZ
	pop	ebp
	ret	0
??__F?_Iostream_object@?$_Error_objects@H@std@@2V_Iostream_error_category@2@A@@YAXXZ ENDP ; `dynamic atexit destructor for 'std::_Error_objects<int>::_Iostream_object''
text$yd	ENDS
; Function compile flags: /Odtp
; File c:\program files (x86)\microsoft visual studio 11.0\vc\include\xmemory0
;	COMDAT ??__E?_Iostream_object@?$_Error_objects@H@std@@2V_Iostream_error_category@2@A@@YAXXZ
text$yc	SEGMENT
??__E?_Iostream_object@?$_Error_objects@H@std@@2V_Iostream_error_category@2@A@@YAXXZ PROC ; `dynamic initializer for 'std::_Error_objects<int>::_Iostream_object'', COMDAT

; 627  : 		{	// estimate maximum array size

	push	ebp
	mov	ebp, esp
	mov	ecx, OFFSET ?_Iostream_object@?$_Error_objects@H@std@@2V_Iostream_error_category@2@A ; std::_Error_objects<int>::_Iostream_object
	call	??0_Iostream_error_category@std@@QAE@XZ	; std::_Iostream_error_category::_Iostream_error_category
	push	OFFSET ??__F?_Iostream_object@?$_Error_objects@H@std@@2V_Iostream_error_category@2@A@@YAXXZ ; `dynamic atexit destructor for 'std::_Error_objects<int>::_Iostream_object''
	call	_atexit
	add	esp, 4
	pop	ebp
	ret	0
??__E?_Iostream_object@?$_Error_objects@H@std@@2V_Iostream_error_category@2@A@@YAXXZ ENDP ; `dynamic initializer for 'std::_Error_objects<int>::_Iostream_object''
text$yc	ENDS
; Function compile flags: /Odtp
;	COMDAT ??__F?_Generic_object@?$_Error_objects@H@std@@2V_Generic_error_category@2@A@@YAXXZ
text$yd	SEGMENT
??__F?_Generic_object@?$_Error_objects@H@std@@2V_Generic_error_category@2@A@@YAXXZ PROC ; `dynamic atexit destructor for 'std::_Error_objects<int>::_Generic_object'', COMDAT
	push	ebp
	mov	ebp, esp
	mov	ecx, OFFSET ?_Generic_object@?$_Error_objects@H@std@@2V_Generic_error_category@2@A ; std::_Error_objects<int>::_Generic_object
	call	??1_Generic_error_category@std@@UAE@XZ
	pop	ebp
	ret	0
??__F?_Generic_object@?$_Error_objects@H@std@@2V_Generic_error_category@2@A@@YAXXZ ENDP ; `dynamic atexit destructor for 'std::_Error_objects<int>::_Generic_object''
text$yd	ENDS
; Function compile flags: /Odtp
; File c:\program files (x86)\microsoft visual studio 11.0\vc\include\xmemory0
;	COMDAT ??__E?_Generic_object@?$_Error_objects@H@std@@2V_Generic_error_category@2@A@@YAXXZ
text$yc	SEGMENT
??__E?_Generic_object@?$_Error_objects@H@std@@2V_Generic_error_category@2@A@@YAXXZ PROC ; `dynamic initializer for 'std::_Error_objects<int>::_Generic_object'', COMDAT

; 627  : 		{	// estimate maximum array size

	push	ebp
	mov	ebp, esp
	mov	ecx, OFFSET ?_Generic_object@?$_Error_objects@H@std@@2V_Generic_error_category@2@A ; std::_Error_objects<int>::_Generic_object
	call	??0_Generic_error_category@std@@QAE@XZ	; std::_Generic_error_category::_Generic_error_category
	push	OFFSET ??__F?_Generic_object@?$_Error_objects@H@std@@2V_Generic_error_category@2@A@@YAXXZ ; `dynamic atexit destructor for 'std::_Error_objects<int>::_Generic_object''
	call	_atexit
	add	esp, 4
	pop	ebp
	ret	0
??__E?_Generic_object@?$_Error_objects@H@std@@2V_Generic_error_category@2@A@@YAXXZ ENDP ; `dynamic initializer for 'std::_Error_objects<int>::_Generic_object''
text$yc	ENDS
; Function compile flags: /Odtp
; File c:\program files (x86)\microsoft visual studio 11.0\vc\include\xmemory0
;	COMDAT ??$_Allocate@D@std@@YAPADIPAD@Z
_TEXT	SEGMENT
__Ptr$ = -4						; size = 4
__Count$ = 8						; size = 4
___formal$ = 12						; size = 4
??$_Allocate@D@std@@YAPADIPAD@Z PROC			; std::_Allocate<char>, COMDAT

; 22   : 	{	// allocate storage for _Count elements of type _Ty

	push	ebp
	mov	ebp, esp
	push	ecx

; 23   : 	void *_Ptr = 0;

	mov	DWORD PTR __Ptr$[ebp], 0

; 24   : 
; 25   : 	if (_Count == 0)

	cmp	DWORD PTR __Count$[ebp], 0
	jne	SHORT $LN4@Allocate

; 26   : 		;
; 27   : 	else if (((size_t)(-1) / sizeof (_Ty) < _Count)

	jmp	SHORT $LN3@Allocate
$LN4@Allocate:

; 28   : 		|| (_Ptr = ::operator new(_Count * sizeof (_Ty))) == 0)

	cmp	DWORD PTR __Count$[ebp], -1
	ja	SHORT $LN1@Allocate
	mov	eax, DWORD PTR __Count$[ebp]
	push	eax
	call	??2@YAPAXI@Z				; operator new
	add	esp, 4
	mov	DWORD PTR __Ptr$[ebp], eax
	cmp	DWORD PTR __Ptr$[ebp], 0
	jne	SHORT $LN3@Allocate
$LN1@Allocate:

; 29   : 		_Xbad_alloc();	// report no memory

	call	?_Xbad_alloc@std@@YAXXZ			; std::_Xbad_alloc
$LN3@Allocate:

; 30   : 
; 31   : 	return ((_Ty *)_Ptr);

	mov	eax, DWORD PTR __Ptr$[ebp]
$LN6@Allocate:

; 32   : 	}

	mov	esp, ebp
	pop	ebp
	ret	0
??$_Allocate@D@std@@YAPADIPAD@Z ENDP			; std::_Allocate<char>
_TEXT	ENDS
; Function compile flags: /Odtp
; File c:\program files (x86)\microsoft visual studio 11.0\vc\include\xstddef
;	COMDAT ??$addressof@D@std@@YAPADAAD@Z
_TEXT	SEGMENT
__Val$ = 8						; size = 4
??$addressof@D@std@@YAPADAAD@Z PROC			; std::addressof<char>, COMDAT

; 85   : 	{	// return address of _Val

	push	ebp
	mov	ebp, esp

; 86   : 	return (reinterpret_cast<_Ty *>(
; 87   : 		(&const_cast<char&>(
; 88   : 		reinterpret_cast<const volatile char&>(_Val)))));

	mov	eax, DWORD PTR __Val$[ebp]

; 89   : 	}

	pop	ebp
	ret	0
??$addressof@D@std@@YAPADAAD@Z ENDP			; std::addressof<char>
_TEXT	ENDS
; Function compile flags: /Odtp
; File c:\program files (x86)\microsoft visual studio 11.0\vc\include\xmemory0
;	COMDAT ??$destroy@PAD@?$_Wrap_alloc@V?$allocator@D@std@@@std@@QAEXPAPAD@Z
_TEXT	SEGMENT
_this$ = -4						; size = 4
__Ptr$ = 8						; size = 4
??$destroy@PAD@?$_Wrap_alloc@V?$allocator@D@std@@@std@@QAEXPAPAD@Z PROC ; std::_Wrap_alloc<std::allocator<char> >::destroy<char *>, COMDAT
; _this$ = ecx

; 907  : 		void destroy(_Ty *_Ptr)

	push	ebp
	mov	ebp, esp
	push	ecx
	mov	DWORD PTR _this$[ebp], ecx

; 908  : 		{	// destroy object at _Ptr
; 909  : 		_Mytraits::destroy(*this, _Ptr);

	mov	eax, DWORD PTR __Ptr$[ebp]
	push	eax
	mov	ecx, DWORD PTR _this$[ebp]
	push	ecx
	call	??$destroy@PAD@?$allocator_traits@V?$allocator@D@std@@@std@@SAXAAV?$allocator@D@1@PAPAD@Z ; std::allocator_traits<std::allocator<char> >::destroy<char *>
	add	esp, 8

; 910  : 		}

	mov	esp, ebp
	pop	ebp
	ret	4
??$destroy@PAD@?$_Wrap_alloc@V?$allocator@D@std@@@std@@QAEXPAPAD@Z ENDP ; std::_Wrap_alloc<std::allocator<char> >::destroy<char *>
_TEXT	ENDS
; Function compile flags: /Odtp
; File c:\program files (x86)\microsoft visual studio 11.0\vc\include\xmemory0
;	COMDAT ??$construct@PADAAPAD@?$_Wrap_alloc@V?$allocator@D@std@@@std@@QAEXPAPADAAPAD@Z
_TEXT	SEGMENT
_this$ = -4						; size = 4
__Ptr$ = 8						; size = 4
__V0$ = 12						; size = 4
??$construct@PADAAPAD@?$_Wrap_alloc@V?$allocator@D@std@@@std@@QAEXPAPADAAPAD@Z PROC ; std::_Wrap_alloc<std::allocator<char> >::construct<char *,char * &>, COMDAT
; _this$ = ecx

; 903  : _VARIADIC_EXPAND_0X(_WRAP_ALLOC_CONSTRUCT, , , , )

	push	ebp
	mov	ebp, esp
	push	ecx
	mov	DWORD PTR _this$[ebp], ecx
	mov	eax, DWORD PTR __V0$[ebp]
	push	eax
	call	??$forward@AAPAD@std@@YAAAPADAAPAD@Z	; std::forward<char * &>
	add	esp, 4
	push	eax
	mov	ecx, DWORD PTR __Ptr$[ebp]
	push	ecx
	mov	edx, DWORD PTR _this$[ebp]
	push	edx
	call	??$construct@PADAAPAD@?$allocator_traits@V?$allocator@D@std@@@std@@SAXAAV?$allocator@D@1@PAPADAAPAD@Z ; std::allocator_traits<std::allocator<char> >::construct<char *,char * &>
	add	esp, 12					; 0000000cH
	mov	esp, ebp
	pop	ebp
	ret	8
??$construct@PADAAPAD@?$_Wrap_alloc@V?$allocator@D@std@@@std@@QAEXPAPADAAPAD@Z ENDP ; std::_Wrap_alloc<std::allocator<char> >::construct<char *,char * &>
_TEXT	ENDS
; Function compile flags: /Odtp
;	COMDAT ??_GWeaponStepNode@@QAEPAXI@Z
_TEXT	SEGMENT
_this$ = -4						; size = 4
___flags$ = 8						; size = 4
??_GWeaponStepNode@@QAEPAXI@Z PROC			; WeaponStepNode::`scalar deleting destructor', COMDAT
; _this$ = ecx
	push	ebp
	mov	ebp, esp
	push	ecx
	mov	DWORD PTR _this$[ebp], ecx
	mov	ecx, DWORD PTR _this$[ebp]
	call	??1WeaponStepNode@@QAE@XZ
	mov	eax, DWORD PTR ___flags$[ebp]
	and	eax, 1
	je	SHORT $LN1@scalar
	mov	ecx, DWORD PTR _this$[ebp]
	push	ecx
	call	??3@YAXPAX@Z				; operator delete
	add	esp, 4
$LN1@scalar:
	mov	eax, DWORD PTR _this$[ebp]
	mov	esp, ebp
	pop	ebp
	ret	4
??_GWeaponStepNode@@QAEPAXI@Z ENDP			; WeaponStepNode::`scalar deleting destructor'
_TEXT	ENDS
; Function compile flags: /Odtp
;	COMDAT ??1WeaponStepNode@@QAE@XZ
_TEXT	SEGMENT
_this$ = -4						; size = 4
??1WeaponStepNode@@QAE@XZ PROC				; WeaponStepNode::~WeaponStepNode, COMDAT
; _this$ = ecx
	push	ebp
	mov	ebp, esp
	push	ecx
	mov	DWORD PTR _this$[ebp], ecx
	mov	ecx, DWORD PTR _this$[ebp]
	call	??1ANode@@QAE@XZ			; ANode::~ANode
	mov	esp, ebp
	pop	ebp
	ret	0
??1WeaponStepNode@@QAE@XZ ENDP				; WeaponStepNode::~WeaponStepNode
_TEXT	ENDS
; Function compile flags: /Odtp
;	COMDAT ??0WeaponStepNode@@QAE@XZ
_TEXT	SEGMENT
_this$ = -4						; size = 4
??0WeaponStepNode@@QAE@XZ PROC				; WeaponStepNode::WeaponStepNode, COMDAT
; _this$ = ecx
	push	ebp
	mov	ebp, esp
	push	ecx
	mov	DWORD PTR _this$[ebp], ecx
	mov	ecx, DWORD PTR _this$[ebp]
	call	??0ANode@@QAE@XZ			; ANode::ANode
	mov	eax, DWORD PTR _this$[ebp]
	mov	DWORD PTR [eax], OFFSET ??_7WeaponStepNode@@6B@
	mov	eax, DWORD PTR _this$[ebp]
	mov	esp, ebp
	pop	ebp
	ret	0
??0WeaponStepNode@@QAE@XZ ENDP				; WeaponStepNode::WeaponStepNode
_TEXT	ENDS
; Function compile flags: /Odtp
; File c:\users\zhitao li\documents\visual studio 2012\projects\freefalcon\sim\displays\sms.cpp
;	COMDAT ?CompareWith@WeaponStepNode@@EAEHPAVANode@@@Z
_TEXT	SEGMENT
_i$ = -8						; size = 4
_this$ = -4						; size = 4
_a$ = 8							; size = 4
?CompareWith@WeaponStepNode@@EAEHPAVANode@@@Z PROC	; WeaponStepNode::CompareWith, COMDAT
; _this$ = ecx

; 3820 : 	{ 

	push	ebp
	mov	ebp, esp
	sub	esp, 8
	mov	DWORD PTR _this$[ebp], ecx

; 3821 : 		int i = stricmp(name,((WeaponStepNode *)a)->name);

	mov	eax, DWORD PTR _a$[ebp]
	mov	ecx, DWORD PTR [eax+12]
	push	ecx
	mov	edx, DWORD PTR _this$[ebp]
	mov	eax, DWORD PTR [edx+12]
	push	eax
	call	_stricmp
	add	esp, 8
	mov	DWORD PTR _i$[ebp], eax

; 3822 : 		if(i==0)

	cmp	DWORD PTR _i$[ebp], 0
	jne	SHORT $LN3@CompareWit

; 3823 : 		{
; 3824 : 			if(weaponCount == 0 && ((WeaponStepNode *)a)->weaponCount)

	mov	ecx, DWORD PTR _this$[ebp]
	cmp	DWORD PTR [ecx+20], 0
	jne	SHORT $LN2@CompareWit
	mov	edx, DWORD PTR _a$[ebp]
	cmp	DWORD PTR [edx+20], 0
	je	SHORT $LN2@CompareWit

; 3825 : 			{	
; 3826 : 				return 1;

	mov	eax, 1
	jmp	SHORT $LN4@CompareWit

; 3827 : 			}
; 3828 : 			else

	jmp	SHORT $LN3@CompareWit
$LN2@CompareWit:

; 3829 : 			{
; 3830 : 				return -1;

	or	eax, -1
	jmp	SHORT $LN4@CompareWit
$LN3@CompareWit:

; 3831 : 			}
; 3832 : 		}
; 3833 : 		return i;

	mov	eax, DWORD PTR _i$[ebp]
$LN4@CompareWit:

; 3834 : 	}

	mov	esp, ebp
	pop	ebp
	ret	4
?CompareWith@WeaponStepNode@@EAEHPAVANode@@@Z ENDP	; WeaponStepNode::CompareWith
_TEXT	ENDS
; Function compile flags: /Odtp
; File c:\users\zhitao li\documents\visual studio 2012\projects\freefalcon\sim\displays\sms.cpp
_TEXT	SEGMENT
_newHp$ = -8						; size = 4
_middleHp$ = -4						; size = 4
_curHp$ = 8						; size = 4
_hpCount$ = 12						; size = 4
?NextACHp@@YAHHH@Z PROC					; NextACHp

; 1953 : {// assumes 0 is gun

	push	ebp
	mov	ebp, esp
	sub	esp, 8

; 1954 : 	float middleHp;
; 1955 : 	int   newHp;
; 1956 : 	
; 1957 : 	//           |
; 1958 : 	// 0 1 2 3 4 5 6 7 8 9 
; 1959 : 	// 5 9 8 7 6 4 3 2 1 0
; 1960 : 	
; 1961 : 	// 0 1 2 3 4|5 6 7 8
; 1962 : 	// 4 8 7 6 5 3 4 1 0
; 1963 : 	
; 1964 : 	middleHp = (hpCount)/2.0f;

	cvtsi2ss xmm0, DWORD PTR _hpCount$[ebp]
	divss	xmm0, DWORD PTR __real@40000000
	movss	DWORD PTR _middleHp$[ebp], xmm0

; 1965 : 	
; 1966 : 	if(curHp == 0)

	cmp	DWORD PTR _curHp$[ebp], 0
	jne	SHORT $LN5@NextACHp

; 1967 : 	{
; 1968 : 		return((int)middleHp);

	cvttss2si eax, DWORD PTR _middleHp$[ebp]
	jmp	SHORT $LN6@NextACHp
$LN5@NextACHp:

; 1969 : 	}
; 1970 : 
; 1971 : 	if(curHp == middleHp)

	cvtsi2ss xmm0, DWORD PTR _curHp$[ebp]
	ucomiss	xmm0, DWORD PTR _middleHp$[ebp]
	lahf
	test	ah, 68					; 00000044H
	jp	SHORT $LN4@NextACHp

; 1972 : 	{
; 1973 : 		newHp = (int)(middleHp - 1);

	movss	xmm0, DWORD PTR _middleHp$[ebp]
	subss	xmm0, DWORD PTR __real@3f800000
	cvttss2si eax, xmm0
	mov	DWORD PTR _newHp$[ebp], eax

; 1974 : 		if(newHp>=0)

	cmp	DWORD PTR _newHp$[ebp], 0
	jl	SHORT $LN3@NextACHp

; 1975 : 			return newHp;

	mov	eax, DWORD PTR _newHp$[ebp]
	jmp	SHORT $LN6@NextACHp
$LN3@NextACHp:

; 1976 : 		
; 1977 : 		return 0;

	xor	eax, eax
	jmp	SHORT $LN6@NextACHp
$LN4@NextACHp:

; 1978 : 	}	
; 1979 : 
; 1980 : 	if(curHp < middleHp) // goto opposite Hp

	cvtsi2ss xmm0, DWORD PTR _curHp$[ebp]
	movss	xmm1, DWORD PTR _middleHp$[ebp]
	comiss	xmm1, xmm0
	jbe	SHORT $LN2@NextACHp

; 1981 : 		return(hpCount - curHp);

	mov	eax, DWORD PTR _hpCount$[ebp]
	sub	eax, DWORD PTR _curHp$[ebp]
	jmp	SHORT $LN6@NextACHp
$LN2@NextACHp:

; 1982 : 	
; 1983 : 	if(curHp > middleHp) // goto opposite Hp 

	cvtsi2ss xmm0, DWORD PTR _curHp$[ebp]
	comiss	xmm0, DWORD PTR _middleHp$[ebp]
	jbe	SHORT $LN1@NextACHp

; 1984 : 		return(hpCount - curHp - 1);

	mov	eax, DWORD PTR _hpCount$[ebp]
	sub	eax, DWORD PTR _curHp$[ebp]
	sub	eax, 1
	jmp	SHORT $LN6@NextACHp
$LN1@NextACHp:

; 1985 : 	
; 1986 : 	return(1); // start over

	mov	eax, 1
$LN6@NextACHp:

; 1987 : }

	mov	esp, ebp
	pop	ebp
	ret	0
?NextACHp@@YAHHH@Z ENDP					; NextACHp
_TEXT	ENDS
; Function compile flags: /Odtp
; File c:\users\zhitao li\documents\visual studio 2012\projects\freefalcon\sim\include\radardoppler.h
;	COMDAT ?SetScanDir@RadarDopplerClass@@QAEXM@Z
_TEXT	SEGMENT
_this$ = -4						; size = 4
_dir$ = 8						; size = 4
?SetScanDir@RadarDopplerClass@@QAEXM@Z PROC		; RadarDopplerClass::SetScanDir, COMDAT
; _this$ = ecx

; 247  : 	void SetScanDir(float dir)	{scanDir = dir;};

	push	ebp
	mov	ebp, esp
	push	ecx
	mov	DWORD PTR _this$[ebp], ecx
	mov	eax, DWORD PTR _this$[ebp]
	movss	xmm0, DWORD PTR _dir$[ebp]
	movss	DWORD PTR [eax+252], xmm0
	mov	esp, ebp
	pop	ebp
	ret	4
?SetScanDir@RadarDopplerClass@@QAEXM@Z ENDP		; RadarDopplerClass::SetScanDir
_TEXT	ENDS
; Function compile flags: /Odtp
; File c:\users\zhitao li\documents\visual studio 2012\projects\freefalcon\falclib\include\falcsess.h
;	COMDAT ?GetGame@FalconSessionEntity@@QAEPAVFalconGameEntity@@XZ
_TEXT	SEGMENT
_this$ = -4						; size = 4
?GetGame@FalconSessionEntity@@QAEPAVFalconGameEntity@@XZ PROC ; FalconSessionEntity::GetGame, COMDAT
; _this$ = ecx

; 154  : 	FalconGameEntity* GetGame (void)              { return (FalconGameEntity*)VuSessionEntity::Game(); }

	push	ebp
	mov	ebp, esp
	push	ecx
	mov	DWORD PTR _this$[ebp], ecx
	mov	ecx, DWORD PTR _this$[ebp]
	call	?Game@VuSessionEntity@@QAEPAVVuGameEntity@@XZ ; VuSessionEntity::Game
	mov	esp, ebp
	pop	ebp
	ret	0
?GetGame@FalconSessionEntity@@QAEPAVFalconGameEntity@@XZ ENDP ; FalconSessionEntity::GetGame
_TEXT	ENDS
; Function compile flags: /Odtp
; File c:\users\zhitao li\documents\visual studio 2012\projects\freefalcon\sim\include\airframe.h
;	COMDAT ?GetRackGroup@AirframeClass@@QAEHH@Z
_TEXT	SEGMENT
_this$ = -4						; size = 4
_i$ = 8							; size = 4
?GetRackGroup@AirframeClass@@QAEHH@Z PROC		; AirframeClass::GetRackGroup, COMDAT
; _this$ = ecx

; 1229 : 	int GetRackGroup(int i) { return auxaeroData->hardpointrg[i]; };

	push	ebp
	mov	ebp, esp
	push	ecx
	mov	DWORD PTR _this$[ebp], ecx
	mov	eax, DWORD PTR _this$[ebp]
	mov	ecx, DWORD PTR [eax+4]
	mov	edx, DWORD PTR _i$[ebp]
	mov	eax, DWORD PTR [ecx+edx*4+476]
	mov	esp, ebp
	pop	ebp
	ret	4
?GetRackGroup@AirframeClass@@QAEHH@Z ENDP		; AirframeClass::GetRackGroup
_TEXT	ENDS
; Function compile flags: /Odtp
; File c:\users\zhitao li\documents\visual studio 2012\projects\freefalcon\sim\include\airframe.h
;	COMDAT ?IsSet@AirframeClass@@QBEHH@Z
_TEXT	SEGMENT
_this$ = -8						; size = 4
tv67 = -4						; size = 4
_testFlag$ = 8						; size = 4
?IsSet@AirframeClass@@QBEHH@Z PROC			; AirframeClass::IsSet, COMDAT
; _this$ = ecx

; 1216 : 	int IsSet (int testFlag) const {return flags & testFlag ? 1 : 0;}

	push	ebp
	mov	ebp, esp
	sub	esp, 8
	mov	DWORD PTR _this$[ebp], ecx
	mov	eax, DWORD PTR _this$[ebp]
	mov	ecx, DWORD PTR [eax+88]
	and	ecx, DWORD PTR _testFlag$[ebp]
	je	SHORT $LN3@IsSet
	mov	DWORD PTR tv67[ebp], 1
	jmp	SHORT $LN4@IsSet
$LN3@IsSet:
	mov	DWORD PTR tv67[ebp], 0
$LN4@IsSet:
	mov	eax, DWORD PTR tv67[ebp]
	mov	esp, ebp
	pop	ebp
	ret	4
?IsSet@AirframeClass@@QBEHH@Z ENDP			; AirframeClass::IsSet
_TEXT	ENDS
; Function compile flags: /Odtp
; File c:\users\zhitao li\documents\visual studio 2012\projects\freefalcon\sim\include\airframe.h
;	COMDAT ?ClearFlag@AirframeClass@@QAEXH@Z
_TEXT	SEGMENT
_this$ = -4						; size = 4
_newFlag$ = 8						; size = 4
?ClearFlag@AirframeClass@@QAEXH@Z PROC			; AirframeClass::ClearFlag, COMDAT
; _this$ = ecx

; 1215 : 	void ClearFlag (int newFlag) {flags &= ~newFlag;};

	push	ebp
	mov	ebp, esp
	push	ecx
	mov	DWORD PTR _this$[ebp], ecx
	mov	eax, DWORD PTR _newFlag$[ebp]
	not	eax
	mov	ecx, DWORD PTR _this$[ebp]
	and	eax, DWORD PTR [ecx+88]
	mov	edx, DWORD PTR _this$[ebp]
	mov	DWORD PTR [edx+88], eax
	mov	esp, ebp
	pop	ebp
	ret	4
?ClearFlag@AirframeClass@@QAEXH@Z ENDP			; AirframeClass::ClearFlag
_TEXT	ENDS
; Function compile flags: /Odtp
; File c:\users\zhitao li\documents\visual studio 2012\projects\freefalcon\sim\include\airframe.h
;	COMDAT ?SetFlag@AirframeClass@@QAEXH@Z
_TEXT	SEGMENT
_this$ = -4						; size = 4
_newFlag$ = 8						; size = 4
?SetFlag@AirframeClass@@QAEXH@Z PROC			; AirframeClass::SetFlag, COMDAT
; _this$ = ecx

; 1214 : 	void SetFlag (int newFlag) {flags |= newFlag;};

	push	ebp
	mov	ebp, esp
	push	ecx
	mov	DWORD PTR _this$[ebp], ecx
	mov	eax, DWORD PTR _this$[ebp]
	mov	ecx, DWORD PTR [eax+88]
	or	ecx, DWORD PTR _newFlag$[ebp]
	mov	edx, DWORD PTR _this$[ebp]
	mov	DWORD PTR [edx+88], ecx
	mov	esp, ebp
	pop	ebp
	ret	4
?SetFlag@AirframeClass@@QAEXH@Z ENDP			; AirframeClass::SetFlag
_TEXT	ENDS
; Function compile flags: /Odtp
; File c:\users\zhitao li\documents\visual studio 2012\projects\freefalcon\sim\include\airframe.h
;	COMDAT ?VehicleIndex@AirframeClass@@QAEHXZ
_TEXT	SEGMENT
_this$ = -4						; size = 4
?VehicleIndex@AirframeClass@@QAEHXZ PROC		; AirframeClass::VehicleIndex, COMDAT
; _this$ = ecx

; 1200 : 	int	VehicleIndex(void) {return vehicleIndex;}

	push	ebp
	mov	ebp, esp
	push	ecx
	mov	DWORD PTR _this$[ebp], ecx
	mov	eax, DWORD PTR _this$[ebp]
	movsx	eax, WORD PTR [eax+92]
	mov	esp, ebp
	pop	ebp
	ret	0
?VehicleIndex@AirframeClass@@QAEHXZ ENDP		; AirframeClass::VehicleIndex
_TEXT	ENDS
; Function compile flags: /Odtp
; File c:\users\zhitao li\documents\visual studio 2012\projects\freefalcon\sim\include\airframe.h
;	COMDAT ?ExternalFuel@AirframeClass@@QAEMXZ
_TEXT	SEGMENT
_this$ = -4						; size = 4
?ExternalFuel@AirframeClass@@QAEMXZ PROC		; AirframeClass::ExternalFuel, COMDAT
; _this$ = ecx

; 1184 : 	float ExternalFuel (void) {return externalFuel;};

	push	ebp
	mov	ebp, esp
	push	ecx
	mov	DWORD PTR _this$[ebp], ecx
	mov	eax, DWORD PTR _this$[ebp]
	fld	DWORD PTR [eax+32]
	mov	esp, ebp
	pop	ebp
	ret	0
?ExternalFuel@AirframeClass@@QAEMXZ ENDP		; AirframeClass::ExternalFuel
_TEXT	ENDS
; Function compile flags: /Odtp
; File c:\users\zhitao li\documents\visual studio 2012\projects\freefalcon\sim\include\airframe.h
;	COMDAT ?MaxVcas@AirframeClass@@QAEMXZ
_TEXT	SEGMENT
_this$ = -4						; size = 4
?MaxVcas@AirframeClass@@QAEMXZ PROC			; AirframeClass::MaxVcas, COMDAT
; _this$ = ecx

; 1176 : 	float MaxVcas(void) {return maxVcas;}

	push	ebp
	mov	ebp, esp
	push	ecx
	mov	DWORD PTR _this$[ebp], ecx
	mov	eax, DWORD PTR _this$[ebp]
	fld	DWORD PTR [eax+80]
	mov	esp, ebp
	pop	ebp
	ret	0
?MaxVcas@AirframeClass@@QAEMXZ ENDP			; AirframeClass::MaxVcas
_TEXT	ENDS
; Function compile flags: /Odtp
; File c:\users\zhitao li\documents\visual studio 2012\projects\freefalcon\sim\include\airframe.h
;	COMDAT ?MaxGs@AirframeClass@@QAEMXZ
_TEXT	SEGMENT
_this$ = -4						; size = 4
?MaxGs@AirframeClass@@QAEMXZ PROC			; AirframeClass::MaxGs, COMDAT
; _this$ = ecx

; 1174 : 	float MaxGs (void) {return maxGs;};

	push	ebp
	mov	ebp, esp
	push	ecx
	mov	DWORD PTR _this$[ebp], ecx
	mov	eax, DWORD PTR _this$[ebp]
	fld	DWORD PTR [eax+60]
	mov	esp, ebp
	pop	ebp
	ret	0
?MaxGs@AirframeClass@@QAEMXZ ENDP			; AirframeClass::MaxGs
_TEXT	ENDS
; Function compile flags: /Odtp
; File c:\users\zhitao li\documents\visual studio 2012\projects\freefalcon\sim\include\aircrft.h
;	COMDAT ?IsF16@AircraftClass@@QAEHXZ
_TEXT	SEGMENT
_this$ = -8						; size = 4
tv67 = -4						; size = 4
?IsF16@AircraftClass@@QAEHXZ PROC			; AircraftClass::IsF16, COMDAT
; _this$ = ecx

; 335  : 	int            IsF16 (void) {return (acFlags & isF16 ? TRUE : FALSE);}

	push	ebp
	mov	ebp, esp
	sub	esp, 8
	mov	DWORD PTR _this$[ebp], ecx
	mov	eax, DWORD PTR _this$[ebp]
	mov	ecx, DWORD PTR [eax+964]
	and	ecx, 1
	je	SHORT $LN3@IsF16
	mov	DWORD PTR tv67[ebp], 1
	jmp	SHORT $LN4@IsF16
$LN3@IsF16:
	mov	DWORD PTR tv67[ebp], 0
$LN4@IsF16:
	mov	eax, DWORD PTR tv67[ebp]
	mov	esp, ebp
	pop	ebp
	ret	0
?IsF16@AircraftClass@@QAEHXZ ENDP			; AircraftClass::IsF16
_TEXT	ENDS
; Function compile flags: /Odtp
; File c:\users\zhitao li\documents\visual studio 2012\projects\freefalcon\falclib\include\playerop.h
;	COMDAT ?GetAvionicsType@PlayerOptionsClass@@QAEHXZ
_TEXT	SEGMENT
_this$ = -4						; size = 4
?GetAvionicsType@PlayerOptionsClass@@QAEHXZ PROC	; PlayerOptionsClass::GetAvionicsType, COMDAT
; _this$ = ecx

; 142  : 	int GetAvionicsType (void)								{ return SimAvionicsType; }

	push	ebp
	mov	ebp, esp
	push	ecx
	mov	DWORD PTR _this$[ebp], ecx
	mov	eax, DWORD PTR _this$[ebp]
	mov	eax, DWORD PTR [eax+64]
	mov	esp, ebp
	pop	ebp
	ret	0
?GetAvionicsType@PlayerOptionsClass@@QAEHXZ ENDP	; PlayerOptionsClass::GetAvionicsType
_TEXT	ENDS
; Function compile flags: /Odtp
; File c:\users\zhitao li\documents\visual studio 2012\projects\freefalcon\sim\include\missile.h
;	COMDAT ?SetLaunchRotation@MissileClass@@QAEXMM@Z
_TEXT	SEGMENT
_this$ = -4						; size = 4
_az$ = 8						; size = 4
_el$ = 12						; size = 4
?SetLaunchRotation@MissileClass@@QAEXMM@Z PROC		; MissileClass::SetLaunchRotation, COMDAT
; _this$ = ecx

; 336  : 	void SetLaunchRotation (float az, float el) {initAz = az; initEl = el;};

	push	ebp
	mov	ebp, esp
	push	ecx
	mov	DWORD PTR _this$[ebp], ecx
	mov	eax, DWORD PTR _this$[ebp]
	movss	xmm0, DWORD PTR _az$[ebp]
	movss	DWORD PTR [eax+940], xmm0
	mov	ecx, DWORD PTR _this$[ebp]
	movss	xmm0, DWORD PTR _el$[ebp]
	movss	DWORD PTR [ecx+944], xmm0
	mov	esp, ebp
	pop	ebp
	ret	8
?SetLaunchRotation@MissileClass@@QAEXMM@Z ENDP		; MissileClass::SetLaunchRotation
_TEXT	ENDS
; Function compile flags: /Odtp
; File c:\users\zhitao li\documents\visual studio 2012\projects\freefalcon\sim\displays\sms.cpp
_TEXT	SEGMENT
$T2 = -32						; size = 4
_lastPtr$ = -28						; size = 4
_weapPtr$ = -24						; size = 4
_i$ = -20						; size = 4
_rackSize$ = -16					; size = 4
__$EHRec$ = -12						; size = 12
___$ReturnUdt$ = 8					; size = 4
_parent$ = 12						; size = 4
_weapid$ = 16						; size = 2
_weapClass$ = 20					; size = 4
_num$ = 24						; size = 4
_initFunc$ = 28						; size = 4
_loadOrder$ = 32					; size = 4
?InitWeaponList@@YA?AV?$VuBin@VSimWeaponClass@@@@PAVFalconEntity@@GHHP6APAVSimWeaponClass@@0GH@ZPAH@Z PROC ; InitWeaponList

; 3714 : ){

	push	ebp
	mov	ebp, esp
	push	-1
	push	__ehhandler$?InitWeaponList@@YA?AV?$VuBin@VSimWeaponClass@@@@PAVFalconEntity@@GHHP6APAVSimWeaponClass@@0GH@ZPAH@Z
	mov	eax, DWORD PTR fs:0
	push	eax
	sub	esp, 20					; 00000014H
	mov	eax, DWORD PTR ___security_cookie
	xor	eax, ebp
	push	eax
	lea	eax, DWORD PTR __$EHRec$[ebp]
	mov	DWORD PTR fs:0, eax
	mov	DWORD PTR $T2[ebp], 0

; 3715 : 	VuBin<SimWeaponClass> weapPtr;

	push	0
	lea	ecx, DWORD PTR _weapPtr$[ebp]
	call	??0?$VuBin@VSimWeaponClass@@@@QAE@PAVSimWeaponClass@@@Z ; VuBin<SimWeaponClass>::VuBin<SimWeaponClass>
	mov	DWORD PTR __$EHRec$[ebp+8], 1

; 3716 : 	VuBin<SimWeaponClass> lastPtr;

	push	0
	lea	ecx, DWORD PTR _lastPtr$[ebp]
	call	??0?$VuBin@VSimWeaponClass@@@@QAE@PAVSimWeaponClass@@@Z ; VuBin<SimWeaponClass>::VuBin<SimWeaponClass>
	mov	BYTE PTR __$EHRec$[ebp+8], 2

; 3717 : 	int i=0, rackSize=1;

	mov	DWORD PTR _i$[ebp], 0
	mov	DWORD PTR _rackSize$[ebp], 1

; 3718 : 	
; 3719 : 	// Find the real weapon class
; 3720 : 	weapClass = SimWeaponDataTable[Falcon4ClassTable[WeaponDataTable[weapid].Index].vehicleDataIndex].weaponClass;

	movzx	eax, WORD PTR _weapid$[ebp]
	imul	eax, 60					; 0000003cH
	mov	ecx, DWORD PTR ?WeaponDataTable@@3PAUWeaponClassDataType@@A ; WeaponDataTable
	movsx	edx, WORD PTR [ecx+eax]
	imul	edx, 81					; 00000051H
	mov	eax, DWORD PTR ?Falcon4ClassTable@@3PAUFalcon4EntityClassType@@A ; Falcon4ClassTable
	movsx	ecx, WORD PTR [eax+edx+74]
	imul	ecx, 52					; 00000034H
	mov	edx, DWORD PTR ?SimWeaponDataTable@@3PAUSimWeaponDataType@@A ; SimWeaponDataTable
	mov	eax, DWORD PTR [edx+ecx+36]
	mov	DWORD PTR _weapClass$[ebp], eax

; 3721 : 	
; 3722 : 	// Determine rack size;
; 3723 : 	if (num) {

	cmp	DWORD PTR _num$[ebp], 0
	je	$LN21@InitWeapon

; 3724 : 		// RV - Biker - This is why AGMs don't load nice on 2 slot rack
; 3725 : 		// MLR 2003-10-16 - make this optional, FF crew has gone mad. :)
; 3726 : 		if(g_bSMSPylonLoadingFix || parent->IsHelicopter()) {

	movzx	ecx, BYTE PTR ?g_bSMSPylonLoadingFix@@3_NA ; g_bSMSPylonLoadingFix
	test	ecx, ecx
	jne	SHORT $LN19@InitWeapon
	mov	edx, DWORD PTR _parent$[ebp]
	mov	eax, DWORD PTR [edx]
	mov	ecx, DWORD PTR _parent$[ebp]
	mov	edx, DWORD PTR [eax+184]
	call	edx
	test	eax, eax
	je	SHORT $LN20@InitWeapon
$LN19@InitWeapon:

; 3727 : 			rackSize=num; // MLR fixes issue with 2 & 5 slotted A2G racks not being loaded correctly

	mov	eax, DWORD PTR _num$[ebp]
	mov	DWORD PTR _rackSize$[ebp], eax

; 3728 : 		}
; 3729 : 		else {

	jmp	SHORT $LN18@InitWeapon
$LN20@InitWeapon:

; 3730 : 			if (num > 6)

	cmp	DWORD PTR _num$[ebp], 6
	jle	SHORT $LN17@InitWeapon

; 3731 : 				rackSize = num;

	mov	ecx, DWORD PTR _num$[ebp]
	mov	DWORD PTR _rackSize$[ebp], ecx
	jmp	SHORT $LN18@InitWeapon
$LN17@InitWeapon:

; 3732 : 			else if (num > 4)

	cmp	DWORD PTR _num$[ebp], 4
	jle	SHORT $LN15@InitWeapon

; 3733 : 				rackSize = 6;

	mov	DWORD PTR _rackSize$[ebp], 6
	jmp	SHORT $LN18@InitWeapon
$LN15@InitWeapon:

; 3734 : 			else if (num == 4)

	cmp	DWORD PTR _num$[ebp], 4
	jne	SHORT $LN13@InitWeapon

; 3735 : 				rackSize = 4;

	mov	DWORD PTR _rackSize$[ebp], 4
	jmp	SHORT $LN18@InitWeapon
$LN13@InitWeapon:

; 3736 : 			else if (num == 2 && weapClass == wcAimWpn)

	cmp	DWORD PTR _num$[ebp], 2
	jne	SHORT $LN11@InitWeapon
	cmp	DWORD PTR _weapClass$[ebp], 0
	jne	SHORT $LN11@InitWeapon

; 3737 : 				rackSize = 2;

	mov	DWORD PTR _rackSize$[ebp], 2
	jmp	SHORT $LN18@InitWeapon
$LN11@InitWeapon:

; 3738 : 			else if (num == 1 && weapClass == wcAimWpn)

	cmp	DWORD PTR _num$[ebp], 1
	jne	SHORT $LN9@InitWeapon
	cmp	DWORD PTR _weapClass$[ebp], 0
	jne	SHORT $LN9@InitWeapon

; 3739 : 				rackSize = 1;

	mov	DWORD PTR _rackSize$[ebp], 1
	jmp	SHORT $LN18@InitWeapon
$LN9@InitWeapon:

; 3740 : 			else if (num > 1)

	cmp	DWORD PTR _num$[ebp], 1
	jle	SHORT $LN7@InitWeapon

; 3741 : 				rackSize = 3;

	mov	DWORD PTR _rackSize$[ebp], 3
	jmp	SHORT $LN18@InitWeapon
$LN7@InitWeapon:

; 3742 : 			else  if (num > 0)

	cmp	DWORD PTR _num$[ebp], 0
	jle	SHORT $LN18@InitWeapon

; 3743 : 				rackSize = 1;

	mov	DWORD PTR _rackSize$[ebp], 1
$LN18@InitWeapon:

; 3744 : 		}
; 3745 : 		
; 3746 : 		
; 3747 : 		for (i=0; i<num; i++){

	mov	DWORD PTR _i$[ebp], 0
	jmp	SHORT $LN4@InitWeapon
$LN3@InitWeapon:
	mov	edx, DWORD PTR _i$[ebp]
	add	edx, 1
	mov	DWORD PTR _i$[ebp], edx
$LN4@InitWeapon:
	mov	eax, DWORD PTR _i$[ebp]
	cmp	eax, DWORD PTR _num$[ebp]
	jge	SHORT $LN21@InitWeapon

; 3748 : 			// Load from back of rack to front (ie, 2 missiles on a tri-rack will
; 3749 : 			// load into slot 1 and 2, not 0 and 1)
; 3750 : 			weapPtr.reset(initFunc(parent, weapid, rackSize-(i+1)));

	mov	ecx, DWORD PTR _i$[ebp]
	add	ecx, 1
	mov	edx, DWORD PTR _rackSize$[ebp]
	sub	edx, ecx
	push	edx
	movzx	eax, WORD PTR _weapid$[ebp]
	push	eax
	mov	ecx, DWORD PTR _parent$[ebp]
	push	ecx
	call	DWORD PTR _initFunc$[ebp]
	add	esp, 12					; 0000000cH
	push	eax
	lea	ecx, DWORD PTR _weapPtr$[ebp]
	call	?reset@?$VuBin@VSimWeaponClass@@@@QAEXPAVSimWeaponClass@@@Z ; VuBin<SimWeaponClass>::reset

; 3751 : 			if (lastPtr){

	lea	ecx, DWORD PTR _lastPtr$[ebp]
	call	??B?$VuBin@VSimWeaponClass@@@@QBE_NXZ	; VuBin<SimWeaponClass>::operator bool
	movzx	edx, al
	test	edx, edx
	je	SHORT $LN1@InitWeapon

; 3752 : 				weapPtr->nextOnRail = lastPtr;

	lea	eax, DWORD PTR _lastPtr$[ebp]
	push	eax
	lea	ecx, DWORD PTR _weapPtr$[ebp]
	call	??C?$VuBin@VSimWeaponClass@@@@QBEPAVSimWeaponClass@@XZ ; VuBin<SimWeaponClass>::operator->
	add	eax, 672				; 000002a0H
	mov	ecx, eax
	call	??4?$VuBin@VSimWeaponClass@@@@QAEABV0@ABV0@@Z ; VuBin<SimWeaponClass>::operator=
$LN1@InitWeapon:

; 3753 : 			}
; 3754 : 			lastPtr = weapPtr;

	lea	ecx, DWORD PTR _weapPtr$[ebp]
	push	ecx
	lea	ecx, DWORD PTR _lastPtr$[ebp]
	call	??4?$VuBin@VSimWeaponClass@@@@QAEABV0@ABV0@@Z ; VuBin<SimWeaponClass>::operator=

; 3755 : 		}

	jmp	SHORT $LN3@InitWeapon
$LN21@InitWeapon:

; 3756 : 	}
; 3757 : 	
; 3758 : 	return weapPtr;

	lea	edx, DWORD PTR _weapPtr$[ebp]
	push	edx
	mov	ecx, DWORD PTR ___$ReturnUdt$[ebp]
	call	??0?$VuBin@VSimWeaponClass@@@@QAE@ABV0@@Z ; VuBin<SimWeaponClass>::VuBin<SimWeaponClass>
	mov	eax, DWORD PTR $T2[ebp]
	or	eax, 1
	mov	DWORD PTR $T2[ebp], eax
	mov	BYTE PTR __$EHRec$[ebp+8], 1
	lea	ecx, DWORD PTR _lastPtr$[ebp]
	call	??1?$VuBin@VSimWeaponClass@@@@QAE@XZ	; VuBin<SimWeaponClass>::~VuBin<SimWeaponClass>
	mov	BYTE PTR __$EHRec$[ebp+8], 0
	lea	ecx, DWORD PTR _weapPtr$[ebp]
	call	??1?$VuBin@VSimWeaponClass@@@@QAE@XZ	; VuBin<SimWeaponClass>::~VuBin<SimWeaponClass>
	mov	eax, DWORD PTR ___$ReturnUdt$[ebp]

; 3759 : }

	mov	ecx, DWORD PTR __$EHRec$[ebp]
	mov	DWORD PTR fs:0, ecx
	pop	ecx
	mov	esp, ebp
	pop	ebp
	ret	0
_TEXT	ENDS
text$x	SEGMENT
__unwindfunclet$?InitWeaponList@@YA?AV?$VuBin@VSimWeaponClass@@@@PAVFalconEntity@@GHHP6APAVSimWeaponClass@@0GH@ZPAH@Z$0:
	lea	ecx, DWORD PTR _weapPtr$[ebp]
	jmp	??1?$VuBin@VSimWeaponClass@@@@QAE@XZ	; VuBin<SimWeaponClass>::~VuBin<SimWeaponClass>
__unwindfunclet$?InitWeaponList@@YA?AV?$VuBin@VSimWeaponClass@@@@PAVFalconEntity@@GHHP6APAVSimWeaponClass@@0GH@ZPAH@Z$1:
	lea	ecx, DWORD PTR _lastPtr$[ebp]
	jmp	??1?$VuBin@VSimWeaponClass@@@@QAE@XZ	; VuBin<SimWeaponClass>::~VuBin<SimWeaponClass>
__unwindfunclet$?InitWeaponList@@YA?AV?$VuBin@VSimWeaponClass@@@@PAVFalconEntity@@GHHP6APAVSimWeaponClass@@0GH@ZPAH@Z$2:
	mov	eax, DWORD PTR $T2[ebp]
	and	eax, 1
	je	$LN27@InitWeapon
	and	DWORD PTR $T2[ebp], -2			; fffffffeH
	mov	ecx, DWORD PTR ___$ReturnUdt$[ebp]
	jmp	??1?$VuBin@VSimWeaponClass@@@@QAE@XZ	; VuBin<SimWeaponClass>::~VuBin<SimWeaponClass>
$LN27@InitWeapon:
	ret	0
__ehhandler$?InitWeaponList@@YA?AV?$VuBin@VSimWeaponClass@@@@PAVFalconEntity@@GHHP6APAVSimWeaponClass@@0GH@ZPAH@Z:
	mov	edx, DWORD PTR [esp+8]
	lea	eax, DWORD PTR [edx+12]
	mov	ecx, DWORD PTR [edx-24]
	xor	ecx, eax
	call	@__security_check_cookie@4
	mov	eax, OFFSET __ehfuncinfo$?InitWeaponList@@YA?AV?$VuBin@VSimWeaponClass@@@@PAVFalconEntity@@GHHP6APAVSimWeaponClass@@0GH@ZPAH@Z
	jmp	___CxxFrameHandler3
text$x	ENDS
?InitWeaponList@@YA?AV?$VuBin@VSimWeaponClass@@@@PAVFalconEntity@@GHHP6APAVSimWeaponClass@@0GH@ZPAH@Z ENDP ; InitWeaponList
; Function compile flags: /Odtp
;	COMDAT ??_GSMSClass@@UAEPAXI@Z
_TEXT	SEGMENT
_this$ = -4						; size = 4
___flags$ = 8						; size = 4
??_GSMSClass@@UAEPAXI@Z PROC				; SMSClass::`scalar deleting destructor', COMDAT
; _this$ = ecx
	push	ebp
	mov	ebp, esp
	push	ecx
	mov	DWORD PTR _this$[ebp], ecx
	mov	ecx, DWORD PTR _this$[ebp]
	call	??1SMSClass@@UAE@XZ			; SMSClass::~SMSClass
	mov	eax, DWORD PTR ___flags$[ebp]
	and	eax, 1
	je	SHORT $LN1@scalar
	mov	ecx, DWORD PTR _this$[ebp]
	push	ecx
	call	??3@YAXPAX@Z				; operator delete
	add	esp, 4
$LN1@scalar:
	mov	eax, DWORD PTR _this$[ebp]
	mov	esp, ebp
	pop	ebp
	ret	4
??_GSMSClass@@UAEPAXI@Z ENDP				; SMSClass::`scalar deleting destructor'
_TEXT	ENDS
; Function compile flags: /Odtp
; File c:\users\zhitao li\documents\visual studio 2012\projects\freefalcon\sim\include\sms.h
;	COMDAT ?SetAGBBurstAlt@SMSClass@@QAEXH@Z
_TEXT	SEGMENT
_this$ = -4						; size = 4
_x$ = 8							; size = 4
?SetAGBBurstAlt@SMSClass@@QAEXH@Z PROC			; SMSClass::SetAGBBurstAlt, COMDAT
; _this$ = ecx

; 320  : 	void SetAGBBurstAlt(int x)        { agbProfile[curProfile].burstAltitude  = x; }

	push	ebp
	mov	ebp, esp
	push	ecx
	mov	DWORD PTR _this$[ebp], ecx
	mov	eax, DWORD PTR _this$[ebp]
	mov	ecx, DWORD PTR [eax+196]
	imul	ecx, 40					; 00000028H
	mov	edx, DWORD PTR _this$[ebp]
	mov	eax, DWORD PTR _x$[ebp]
	mov	DWORD PTR [edx+ecx+212], eax
	mov	esp, ebp
	pop	ebp
	ret	4
?SetAGBBurstAlt@SMSClass@@QAEXH@Z ENDP			; SMSClass::SetAGBBurstAlt
_TEXT	ENDS
; Function compile flags: /Odtp
; File c:\users\zhitao li\documents\visual studio 2012\projects\freefalcon\sim\include\sms.h
;	COMDAT ?SetAGBRippleInterval@SMSClass@@QAEXH@Z
_TEXT	SEGMENT
_this$ = -4						; size = 4
_x$ = 8							; size = 4
?SetAGBRippleInterval@SMSClass@@QAEXH@Z PROC		; SMSClass::SetAGBRippleInterval, COMDAT
; _this$ = ecx

; 318  : 	void SetAGBRippleInterval(int x) { agbProfile[curProfile].rippleInterval = x; }

	push	ebp
	mov	ebp, esp
	push	ecx
	mov	DWORD PTR _this$[ebp], ecx
	mov	eax, DWORD PTR _this$[ebp]
	mov	ecx, DWORD PTR [eax+196]
	imul	ecx, 40					; 00000028H
	mov	edx, DWORD PTR _this$[ebp]
	mov	eax, DWORD PTR _x$[ebp]
	mov	DWORD PTR [edx+ecx+204], eax
	mov	esp, ebp
	pop	ebp
	ret	4
?SetAGBRippleInterval@SMSClass@@QAEXH@Z ENDP		; SMSClass::SetAGBRippleInterval
_TEXT	ENDS
; Function compile flags: /Odtp
; File c:\users\zhitao li\documents\visual studio 2012\projects\freefalcon\sim\include\sms.h
;	COMDAT ?SetAGBRippleCount@SMSClass@@QAEXH@Z
_TEXT	SEGMENT
_this$ = -4						; size = 4
_x$ = 8							; size = 4
?SetAGBRippleCount@SMSClass@@QAEXH@Z PROC		; SMSClass::SetAGBRippleCount, COMDAT
; _this$ = ecx

; 317  : 	void SetAGBRippleCount(int x)     { agbProfile[curProfile].rippleCount    = x; }

	push	ebp
	mov	ebp, esp
	push	ecx
	mov	DWORD PTR _this$[ebp], ecx
	mov	eax, DWORD PTR _this$[ebp]
	mov	ecx, DWORD PTR [eax+196]
	imul	ecx, 40					; 00000028H
	mov	edx, DWORD PTR _this$[ebp]
	mov	eax, DWORD PTR _x$[ebp]
	mov	DWORD PTR [edx+ecx+200], eax
	mov	esp, ebp
	pop	ebp
	ret	4
?SetAGBRippleCount@SMSClass@@QAEXH@Z ENDP		; SMSClass::SetAGBRippleCount
_TEXT	ENDS
; Function compile flags: /Odtp
; File c:\users\zhitao li\documents\visual studio 2012\projects\freefalcon\sim\include\sms.h
;	COMDAT ?GetAGBPair@SMSClass@@QAE_NXZ
_TEXT	SEGMENT
_this$ = -4						; size = 4
?GetAGBPair@SMSClass@@QAE_NXZ PROC			; SMSClass::GetAGBPair, COMDAT
; _this$ = ecx

; 314  : 	bool GetAGBPair(void)          { return agbProfile[curProfile].releasePair;     }

	push	ebp
	mov	ebp, esp
	push	ecx
	mov	DWORD PTR _this$[ebp], ecx
	mov	eax, DWORD PTR _this$[ebp]
	mov	ecx, DWORD PTR [eax+196]
	imul	ecx, 40					; 00000028H
	mov	edx, DWORD PTR _this$[ebp]
	mov	al, BYTE PTR [edx+ecx+232]
	mov	esp, ebp
	pop	ebp
	ret	0
?GetAGBPair@SMSClass@@QAE_NXZ ENDP			; SMSClass::GetAGBPair
_TEXT	ENDS
; Function compile flags: /Odtp
; File c:\users\zhitao li\documents\visual studio 2012\projects\freefalcon\sim\include\sms.h
;	COMDAT ?GetAGBRippleInterval@SMSClass@@QAEHXZ
_TEXT	SEGMENT
_this$ = -4						; size = 4
?GetAGBRippleInterval@SMSClass@@QAEHXZ PROC		; SMSClass::GetAGBRippleInterval, COMDAT
; _this$ = ecx

; 307  : 	int GetAGBRippleInterval(void) { return agbProfile[curProfile].rippleInterval;  }

	push	ebp
	mov	ebp, esp
	push	ecx
	mov	DWORD PTR _this$[ebp], ecx
	mov	eax, DWORD PTR _this$[ebp]
	mov	ecx, DWORD PTR [eax+196]
	imul	ecx, 40					; 00000028H
	mov	edx, DWORD PTR _this$[ebp]
	mov	eax, DWORD PTR [edx+ecx+204]
	mov	esp, ebp
	pop	ebp
	ret	0
?GetAGBRippleInterval@SMSClass@@QAEHXZ ENDP		; SMSClass::GetAGBRippleInterval
_TEXT	ENDS
; Function compile flags: /Odtp
; File c:\users\zhitao li\documents\visual studio 2012\projects\freefalcon\sim\include\sms.h
;	COMDAT ?GetAGBRippleCount@SMSClass@@QAEHXZ
_TEXT	SEGMENT
_this$ = -4						; size = 4
?GetAGBRippleCount@SMSClass@@QAEHXZ PROC		; SMSClass::GetAGBRippleCount, COMDAT
; _this$ = ecx

; 306  : 	int GetAGBRippleCount(void)    { return agbProfile[curProfile].rippleCount;     }

	push	ebp
	mov	ebp, esp
	push	ecx
	mov	DWORD PTR _this$[ebp], ecx
	mov	eax, DWORD PTR _this$[ebp]
	mov	ecx, DWORD PTR [eax+196]
	imul	ecx, 40					; 00000028H
	mov	edx, DWORD PTR _this$[ebp]
	mov	eax, DWORD PTR [edx+ecx+200]
	mov	esp, ebp
	pop	ebp
	ret	0
?GetAGBRippleCount@SMSClass@@QAEHXZ ENDP		; SMSClass::GetAGBRippleCount
_TEXT	ENDS
; Function compile flags: /Odtp
; File c:\users\zhitao li\documents\visual studio 2012\projects\freefalcon\sim\displays\sms.cpp
_TEXT	SEGMENT
_this$ = -4						; size = 4
_hpId$ = 8						; size = 4
_findSimilar$ = 12					; size = 4
?SetCurrentHardPoint@SMSClass@@QAEHHH@Z PROC		; SMSClass::SetCurrentHardPoint
; _this$ = ecx

; 4147 : {

	push	ebp
	mov	ebp, esp
	push	ecx
	mov	DWORD PTR _this$[ebp], ecx

; 4148 : 
; 4149 : 	SetCurrentWeapon(hpId);

	push	0
	mov	eax, DWORD PTR _hpId$[ebp]
	push	eax
	mov	ecx, DWORD PTR _this$[ebp]
	call	?SetCurrentWeapon@SMSClass@@QAEXHPAVSimWeaponClass@@@Z ; SMSClass::SetCurrentWeapon

; 4150 : 	if(curWeapon)

	mov	ecx, DWORD PTR _this$[ebp]
	add	ecx, 164				; 000000a4H
	call	??B?$VuBin@VSimWeaponClass@@@@QBE_NXZ	; VuBin<SimWeaponClass>::operator bool
	movzx	ecx, al
	test	ecx, ecx
	je	SHORT $LN5@SetCurrent

; 4151 : 		return TRUE;

	mov	eax, 1
	jmp	SHORT $LN6@SetCurrent
$LN5@SetCurrent:

; 4152 : 
; 4153 : 	if(hpId < 0)

	cmp	DWORD PTR _hpId$[ebp], 0
	jge	SHORT $LN4@SetCurrent

; 4154 : 		return FALSE;

	xor	eax, eax
	jmp	SHORT $LN6@SetCurrent
$LN4@SetCurrent:

; 4155 : 
; 4156 : 	if(findSimilar)

	cmp	DWORD PTR _findSimilar$[ebp], 0
	je	SHORT $LN3@SetCurrent

; 4157 : 	{
; 4158 : 		if(SetCurrentHpByWeaponId(hardPoint[hpId]->weaponId))

	mov	edx, DWORD PTR _this$[ebp]
	mov	eax, DWORD PTR [edx+4]
	mov	ecx, DWORD PTR _hpId$[ebp]
	mov	edx, DWORD PTR [eax+ecx*4]
	movsx	eax, WORD PTR [edx+8]
	push	eax
	mov	ecx, DWORD PTR _this$[ebp]
	call	?SetCurrentHpByWeaponId@SMSClass@@QAEHH@Z ; SMSClass::SetCurrentHpByWeaponId
	test	eax, eax
	je	SHORT $LN2@SetCurrent

; 4159 : 			return TRUE;

	mov	eax, 1
	jmp	SHORT $LN6@SetCurrent

; 4160 : 		else

	jmp	SHORT $LN3@SetCurrent
$LN2@SetCurrent:

; 4161 : 		{   // we have to do this because SetCurrentHpByWeaponId() will set the hp to -1
; 4162 : 			SetCurrentWeapon(hpId);

	push	0
	mov	ecx, DWORD PTR _hpId$[ebp]
	push	ecx
	mov	ecx, DWORD PTR _this$[ebp]
	call	?SetCurrentWeapon@SMSClass@@QAEXHPAVSimWeaponClass@@@Z ; SMSClass::SetCurrentWeapon

; 4163 : 			return FALSE;

	xor	eax, eax
	jmp	SHORT $LN6@SetCurrent
$LN3@SetCurrent:

; 4164 : 		}
; 4165 : 	}
; 4166 : 	return FALSE;

	xor	eax, eax
$LN6@SetCurrent:

; 4167 : }

	mov	esp, ebp
	pop	ebp
	ret	8
?SetCurrentHardPoint@SMSClass@@QAEHHH@Z ENDP		; SMSClass::SetCurrentHardPoint
_TEXT	ENDS
; Function compile flags: /Odtp
; File c:\users\zhitao li\documents\visual studio 2012\projects\freefalcon\sim\displays\sms.cpp
_TEXT	SEGMENT
_list$ = -112						; size = 24
_found$ = -88						; size = 4
tv276 = -84						; size = 4
$T2 = -80						; size = 4
$T3 = -76						; size = 4
_useEmpty$ = -72					; size = 4
$T4 = -68						; size = 4
tv207 = -64						; size = 4
$T5 = -60						; size = 4
_skip$6 = -56						; size = 4
_l$ = -52						; size = 4
_curWeapNode$ = -48					; size = 4
_playerAC$ = -44					; size = 4
_startHp$ = -40						; size = 4
_weap$7 = -36						; size = 4
_newHp$ = -32						; size = 4
_i$ = -28						; size = 4
_n$ = -24						; size = 4
_this$ = -20						; size = 4
_newWeaponId$ = -16					; size = 2
__$EHRec$ = -12						; size = 12
?StepWeaponByID@SMSClass@@QAEXXZ PROC			; SMSClass::StepWeaponByID
; _this$ = ecx

; 3987 : {

	push	ebp
	mov	ebp, esp
	push	-1
	push	__ehhandler$?StepWeaponByID@SMSClass@@QAEXXZ
	mov	eax, DWORD PTR fs:0
	push	eax
	sub	esp, 100				; 00000064H
	push	esi
	mov	eax, DWORD PTR ___security_cookie
	xor	eax, ebp
	push	eax
	lea	eax, DWORD PTR __$EHRec$[ebp]
	mov	DWORD PTR fs:0, eax
	mov	DWORD PTR _this$[ebp], ecx

; 3988 : 	static int looped = 0;
; 3989 : 	int i;
; 3990 : 	int useEmpty = 1;

	mov	DWORD PTR _useEmpty$[ebp], 1

; 3991 : 	short newWeaponId;
; 3992 : 	AList list;

	lea	ecx, DWORD PTR _list$[ebp]
	call	??0AList@@QAE@XZ			; AList::AList
	mov	DWORD PTR __$EHRec$[ebp+8], 0

; 3993 : 	WeaponStepNode *n;
; 3994 : 	SimWeaponClass *found = NULL;

	mov	DWORD PTR _found$[ebp], 0

; 3995 : 	AircraftClass *playerAC = SimDriver.GetPlayerAircraft();

	mov	ecx, OFFSET ?SimDriver@@3VSimulationDriver@@A ; SimDriver
	call	?GetPlayerAircraft@SimulationDriver@@QBEPAVAircraftClass@@XZ ; SimulationDriver::GetPlayerAircraft
	mov	DWORD PTR _playerAC$[ebp], eax

; 3996 : 
; 3997 : 	// 2002-02-08 ADDED BY S.G. 
; 3998 : 	// From SMSClass::WeaponStep, other it will CTD. 
; 3999 : 	// This will fix the CTD but not the original cause which is why curHardpoint is -1.
; 4000 : 	if (curHardpoint < 0  || looped || ! (playerAC && playerAC->FCC) ){

	mov	eax, DWORD PTR _this$[ebp]
	cmp	DWORD PTR [eax+44], 0
	jl	SHORT $LN28@StepWeapon
	cmp	DWORD PTR ?looped@?1??StepWeaponByID@SMSClass@@QAEXXZ@4HA, 0
	jne	SHORT $LN28@StepWeapon
	cmp	DWORD PTR _playerAC$[ebp], 0
	je	SHORT $LN28@StepWeapon
	mov	ecx, DWORD PTR _playerAC$[ebp]
	cmp	DWORD PTR [ecx+936], 0
	jne	SHORT $LN29@StepWeapon
$LN28@StepWeapon:

; 4001 : 		return; // Do nothing if no station is currently selected

	mov	DWORD PTR __$EHRec$[ebp+8], -1
	lea	ecx, DWORD PTR _list$[ebp]
	call	??1AList@@QAE@XZ
	jmp	$LN30@StepWeapon
$LN29@StepWeapon:

; 4002 : 	}
; 4003 : 
; 4004 : 	if(curHardpoint == -1){

	mov	edx, DWORD PTR _this$[ebp]
	cmp	DWORD PTR [edx+44], -1
	jne	SHORT $LN26@StepWeapon

; 4005 : 		curHardpoint = 0;

	mov	eax, DWORD PTR _this$[ebp]
	mov	DWORD PTR [eax+44], 0
$LN26@StepWeapon:

; 4006 : 	}
; 4007 : 
; 4008 : 	// needs to be set because if qty is 0, it is -1
; 4009 : 	curWeaponId = hardPoint[curHardpoint]->weaponId;

	mov	ecx, DWORD PTR _this$[ebp]
	mov	edx, DWORD PTR [ecx+44]
	mov	eax, DWORD PTR _this$[ebp]
	mov	ecx, DWORD PTR [eax+4]
	mov	edx, DWORD PTR [ecx+edx*4]
	mov	eax, DWORD PTR _this$[ebp]
	mov	cx, WORD PTR [edx+8]
	mov	WORD PTR [eax+168], cx

; 4010 : 
; 4011 : 	newWeaponId = curWeaponId;   // MLR 1/20/2004 - just in case there's nothing else to choose from

	mov	edx, DWORD PTR _this$[ebp]
	mov	ax, WORD PTR [edx+168]
	mov	WORD PTR _newWeaponId$[ebp], ax

; 4012 : 
; 4013 : 	WeaponStepNode *curWeapNode = 0;

	mov	DWORD PTR _curWeapNode$[ebp], 0

; 4014 : 
; 4015 :     for (i=0; i<numHardpoints; i++){

	mov	DWORD PTR _i$[ebp], 0
	jmp	SHORT $LN25@StepWeapon
$LN24@StepWeapon:
	mov	ecx, DWORD PTR _i$[ebp]
	add	ecx, 1
	mov	DWORD PTR _i$[ebp], ecx
$LN25@StepWeapon:
	mov	edx, DWORD PTR _this$[ebp]
	mov	eax, DWORD PTR _i$[ebp]
	cmp	eax, DWORD PTR [edx+40]
	jge	$LN23@StepWeapon

; 4016 : 		if ( playerAC->FCC->CanStepToWeaponClass( hardPoint[i]->GetWeaponData()->weaponClass ) ){

	mov	ecx, DWORD PTR _this$[ebp]
	mov	edx, DWORD PTR [ecx+4]
	mov	eax, DWORD PTR _i$[ebp]
	mov	ecx, DWORD PTR [edx+eax*4]
	mov	edx, DWORD PTR _this$[ebp]
	mov	eax, DWORD PTR [edx+4]
	mov	edx, DWORD PTR _i$[ebp]
	mov	esi, DWORD PTR [ecx]
	mov	ecx, DWORD PTR [eax+edx*4]
	mov	eax, DWORD PTR [esi+148]
	call	eax
	mov	ecx, DWORD PTR [eax+36]
	push	ecx
	mov	edx, DWORD PTR _playerAC$[ebp]
	mov	ecx, DWORD PTR [edx+936]
	call	?CanStepToWeaponClass@FireControlComputer@@QAEHW4WeaponClass@@@Z ; FireControlComputer::CanStepToWeaponClass
	test	eax, eax
	je	$LN22@StepWeapon

; 4017 : 			int skip = 0;

	mov	DWORD PTR _skip$6[ebp], 0

; 4018 : 
; 4019 : 			// see if we already have a matching node
; 4020 : 			// if so, tally WeaponCount
; 4021 : 			n = (WeaponStepNode *)list.GetHead();

	lea	ecx, DWORD PTR _list$[ebp]
	call	?GetHead@AList@@QAEPAXXZ		; AList::GetHead
	mov	DWORD PTR _n$[ebp], eax
$LN21@StepWeapon:

; 4022 : 			while (n){

	cmp	DWORD PTR _n$[ebp], 0
	je	SHORT $LN20@StepWeapon

; 4023 : 				if (n->weaponId == hardPoint[i]->weaponId){

	mov	eax, DWORD PTR _this$[ebp]
	mov	ecx, DWORD PTR [eax+4]
	mov	edx, DWORD PTR _i$[ebp]
	mov	eax, DWORD PTR [ecx+edx*4]
	movsx	ecx, WORD PTR [eax+8]
	mov	edx, DWORD PTR _n$[ebp]
	cmp	DWORD PTR [edx+16], ecx
	jne	SHORT $LN19@StepWeapon

; 4024 : 					n->weaponCount += hardPoint[i]->weaponCount;

	mov	eax, DWORD PTR _this$[ebp]
	mov	ecx, DWORD PTR [eax+4]
	mov	edx, DWORD PTR _i$[ebp]
	mov	eax, DWORD PTR [ecx+edx*4]
	movsx	ecx, WORD PTR [eax+10]
	mov	edx, DWORD PTR _n$[ebp]
	add	ecx, DWORD PTR [edx+20]
	mov	eax, DWORD PTR _n$[ebp]
	mov	DWORD PTR [eax+20], ecx

; 4025 : 					skip = 1;

	mov	DWORD PTR _skip$6[ebp], 1
$LN19@StepWeapon:

; 4026 : 				}
; 4027 : 				n=(WeaponStepNode *)n->GetSucc();

	mov	ecx, DWORD PTR _n$[ebp]
	call	?GetSucc@ANode@@QAEPAXXZ		; ANode::GetSucc
	mov	DWORD PTR _n$[ebp], eax

; 4028 : 			}

	jmp	SHORT $LN21@StepWeapon
$LN20@StepWeapon:

; 4029 : 
; 4030 : 			if (!skip){

	cmp	DWORD PTR _skip$6[ebp], 0
	jne	$LN22@StepWeapon

; 4031 : 				// create a new node
; 4032 : 				n = new WeaponStepNode;

	push	24					; 00000018H
	call	??2@YAPAXI@Z				; operator new
	add	esp, 4
	mov	DWORD PTR $T5[ebp], eax
	mov	BYTE PTR __$EHRec$[ebp+8], 1
	cmp	DWORD PTR $T5[ebp], 0
	je	SHORT $LN32@StepWeapon
	mov	ecx, DWORD PTR $T5[ebp]
	call	??0WeaponStepNode@@QAE@XZ
	mov	DWORD PTR tv207[ebp], eax
	jmp	SHORT $LN33@StepWeapon
$LN32@StepWeapon:
	mov	DWORD PTR tv207[ebp], 0
$LN33@StepWeapon:
	mov	ecx, DWORD PTR tv207[ebp]
	mov	DWORD PTR $T3[ebp], ecx
	mov	BYTE PTR __$EHRec$[ebp+8], 0
	mov	edx, DWORD PTR $T3[ebp]
	mov	DWORD PTR _n$[ebp], edx

; 4033 : 				n->name			= hardPoint[i]->GetWeaponData()->mnemonic;

	mov	eax, DWORD PTR _this$[ebp]
	mov	ecx, DWORD PTR [eax+4]
	mov	edx, DWORD PTR _i$[ebp]
	mov	eax, DWORD PTR [ecx+edx*4]
	mov	ecx, DWORD PTR _this$[ebp]
	mov	edx, DWORD PTR [ecx+4]
	mov	ecx, DWORD PTR _i$[ebp]
	mov	eax, DWORD PTR [eax]
	mov	ecx, DWORD PTR [edx+ecx*4]
	mov	edx, DWORD PTR [eax+148]
	call	edx
	add	eax, 28					; 0000001cH
	mov	ecx, DWORD PTR _n$[ebp]
	mov	DWORD PTR [ecx+12], eax

; 4034 : 				n->weaponId		= hardPoint[i]->weaponId;

	mov	edx, DWORD PTR _this$[ebp]
	mov	eax, DWORD PTR [edx+4]
	mov	ecx, DWORD PTR _i$[ebp]
	mov	edx, DWORD PTR [eax+ecx*4]
	movsx	eax, WORD PTR [edx+8]
	mov	ecx, DWORD PTR _n$[ebp]
	mov	DWORD PTR [ecx+16], eax

; 4035 : 				n->weaponCount	= hardPoint[i]->weaponCount;

	mov	edx, DWORD PTR _this$[ebp]
	mov	eax, DWORD PTR [edx+4]
	mov	ecx, DWORD PTR _i$[ebp]
	mov	edx, DWORD PTR [eax+ecx*4]
	movsx	eax, WORD PTR [edx+10]
	mov	ecx, DWORD PTR _n$[ebp]
	mov	DWORD PTR [ecx+20], eax

; 4036 : 
; 4037 : 				if(n->weaponId == curWeaponId){  

	mov	edx, DWORD PTR _this$[ebp]
	movsx	eax, WORD PTR [edx+168]
	mov	ecx, DWORD PTR _n$[ebp]
	cmp	DWORD PTR [ecx+16], eax
	jne	SHORT $LN17@StepWeapon

; 4038 : 					// this is our current weapon, store for logic later.
; 4039 : 					curWeapNode = n;

	mov	edx, DWORD PTR _n$[ebp]
	mov	DWORD PTR _curWeapNode$[ebp], edx
$LN17@StepWeapon:

; 4040 : 				}
; 4041 : 				list.AddSorted(n);

	mov	eax, DWORD PTR _n$[ebp]
	push	eax
	lea	ecx, DWORD PTR _list$[ebp]
	call	?AddSorted@AList@@QAEXPAVANode@@@Z	; AList::AddSorted
$LN22@StepWeapon:

; 4042 : 			}
; 4043 : 		}
; 4044 : 	}

	jmp	$LN24@StepWeapon
$LN23@StepWeapon:

; 4045 : 
; 4046 : 	// logic to find the next weaponId
; 4047 : 	n = NULL;

	mov	DWORD PTR _n$[ebp], 0

; 4048 : 	if(curWeapNode){

	cmp	DWORD PTR _curWeapNode$[ebp], 0
	je	SHORT $LN16@StepWeapon

; 4049 : 		n=(WeaponStepNode *)curWeapNode->GetSucc();

	mov	ecx, DWORD PTR _curWeapNode$[ebp]
	call	?GetSucc@ANode@@QAEPAXXZ		; ANode::GetSucc
	mov	DWORD PTR _n$[ebp], eax
$LN16@StepWeapon:

; 4050 : 	}
; 4051 : 
; 4052 : 	if(!n){

	cmp	DWORD PTR _n$[ebp], 0
	jne	SHORT $LN15@StepWeapon

; 4053 : 		n=(WeaponStepNode *)list.GetHead();

	lea	ecx, DWORD PTR _list$[ebp]
	call	?GetHead@AList@@QAEPAXXZ		; AList::GetHead
	mov	DWORD PTR _n$[ebp], eax
$LN15@StepWeapon:

; 4054 : 	}
; 4055 : 
; 4056 : 	if(n){

	cmp	DWORD PTR _n$[ebp], 0
	je	SHORT $LN12@StepWeapon

; 4057 : 		newWeaponId = n->weaponId;

	mov	ecx, DWORD PTR _n$[ebp]
	mov	dx, WORD PTR [ecx+16]
	mov	WORD PTR _newWeaponId$[ebp], dx

; 4058 : 		if(n->weaponCount){

	mov	eax, DWORD PTR _n$[ebp]
	cmp	DWORD PTR [eax+20], 0
	je	SHORT $LN12@StepWeapon

; 4059 : 			useEmpty=0;

	mov	DWORD PTR _useEmpty$[ebp], 0
$LN12@StepWeapon:

; 4060 : 		}
; 4061 : 	}
; 4062 : 
; 4063 : 	// cleanup nodes
; 4064 : 	while (n = (WeaponStepNode *)list.RemHead() ){

	lea	ecx, DWORD PTR _list$[ebp]
	call	?RemHead@AList@@QAEPAXXZ		; AList::RemHead
	mov	DWORD PTR _n$[ebp], eax
	cmp	DWORD PTR _n$[ebp], 0
	je	SHORT $LN11@StepWeapon

; 4065 : 		delete n;

	mov	ecx, DWORD PTR _n$[ebp]
	mov	DWORD PTR $T2[ebp], ecx
	mov	edx, DWORD PTR $T2[ebp]
	mov	DWORD PTR $T4[ebp], edx
	cmp	DWORD PTR $T4[ebp], 0
	je	SHORT $LN34@StepWeapon
	push	1
	mov	ecx, DWORD PTR $T4[ebp]
	call	??_GWeaponStepNode@@QAEPAXI@Z
	mov	DWORD PTR tv276[ebp], eax
	jmp	SHORT $LN35@StepWeapon
$LN34@StepWeapon:
	mov	DWORD PTR tv276[ebp], 0
$LN35@StepWeapon:

; 4066 : 	}

	jmp	SHORT $LN12@StepWeapon
$LN11@StepWeapon:

; 4067 : 
; 4068 : 
; 4069 : 	// search for a hardpoint with a matching WeaponId
; 4070 : 	// search inboard to outboard
; 4071 : 	// 0 1 2 3 4 5
; 4072 : 	// 0 1 2 3 4 
; 4073 : 	
; 4074 : 	int startHp = (numHardpoints) / 2;

	mov	eax, DWORD PTR _this$[ebp]
	mov	eax, DWORD PTR [eax+40]
	cdq
	sub	eax, edx
	sar	eax, 1
	mov	DWORD PTR _startHp$[ebp], eax

; 4075 : 	int newHp = startHp;

	mov	ecx, DWORD PTR _startHp$[ebp]
	mov	DWORD PTR _newHp$[ebp], ecx

; 4076 : 
; 4077 : 	looped = 1;

	mov	DWORD PTR ?looped@?1??StepWeaponByID@SMSClass@@QAEXXZ@4HA, 1
$LN10@StepWeapon:

; 4078 : 
; 4079 : 	int l;
; 4080 : 
; 4081 : 	while(startHp>=0){

	cmp	DWORD PTR _startHp$[ebp], 0
	jl	$LN9@StepWeapon

; 4082 : 		newHp = startHp;

	mov	edx, DWORD PTR _startHp$[ebp]
	mov	DWORD PTR _newHp$[ebp], edx

; 4083 : 		for(l=0;l<2;l++){

	mov	DWORD PTR _l$[ebp], 0
	jmp	SHORT $LN8@StepWeapon
$LN7@StepWeapon:
	mov	eax, DWORD PTR _l$[ebp]
	add	eax, 1
	mov	DWORD PTR _l$[ebp], eax
$LN8@StepWeapon:
	cmp	DWORD PTR _l$[ebp], 2
	jge	$LN6@StepWeapon

; 4084 : 			MonoPrint("Comparing Hp %d\n",newHp);

	mov	ecx, DWORD PTR _newHp$[ebp]
	push	ecx
	push	OFFSET ??_C@_0BB@HKDFJNHB@Comparing?5Hp?5?$CFd?6?$AA@
	call	_MonoPrint
	add	esp, 8

; 4085 : 			if( newHp < numHardpoints && hardPoint[newHp]->weaponId == newWeaponId){

	mov	edx, DWORD PTR _this$[ebp]
	mov	eax, DWORD PTR _newHp$[ebp]
	cmp	eax, DWORD PTR [edx+40]
	jge	$LN5@StepWeapon
	mov	ecx, DWORD PTR _this$[ebp]
	mov	edx, DWORD PTR [ecx+4]
	mov	eax, DWORD PTR _newHp$[ebp]
	mov	ecx, DWORD PTR [edx+eax*4]
	movsx	edx, WORD PTR [ecx+8]
	movsx	eax, WORD PTR _newWeaponId$[ebp]
	cmp	edx, eax
	jne	$LN5@StepWeapon

; 4086 : 				SimWeaponClass *weap = hardPoint[newHp]->weaponPointer.get();

	mov	ecx, DWORD PTR _this$[ebp]
	mov	edx, DWORD PTR [ecx+4]
	mov	eax, DWORD PTR _newHp$[ebp]
	mov	ecx, DWORD PTR [edx+eax*4]
	add	ecx, 12					; 0000000cH
	call	?get@?$VuBin@VSimWeaponClass@@@@QBEPAVSimWeaponClass@@XZ ; VuBin<SimWeaponClass>::get
	mov	DWORD PTR _weap$7[ebp], eax
$LN4@StepWeapon:

; 4087 : 
; 4088 : 				while(weap && !weap->IsUseable()){

	cmp	DWORD PTR _weap$7[ebp], 0
	je	SHORT $LN3@StepWeapon
	mov	ecx, DWORD PTR _weap$7[ebp]
	mov	edx, DWORD PTR [ecx]
	mov	ecx, DWORD PTR _weap$7[ebp]
	mov	eax, DWORD PTR [edx+460]
	call	eax
	test	eax, eax
	jne	SHORT $LN3@StepWeapon

; 4089 : 					// MLR 6/3/2004 - Skip unuseable weapons (LAUs)
; 4090 : 					weap=weap->GetNextOnRail();

	mov	ecx, DWORD PTR _weap$7[ebp]
	call	?GetNextOnRail@SimWeaponClass@@QAEPAV1@XZ ; SimWeaponClass::GetNextOnRail
	mov	DWORD PTR _weap$7[ebp], eax

; 4091 : 				}

	jmp	SHORT $LN4@StepWeapon
$LN3@StepWeapon:

; 4092 : 
; 4093 : 				if(weap || useEmpty){

	cmp	DWORD PTR _weap$7[ebp], 0
	jne	SHORT $LN1@StepWeapon
	cmp	DWORD PTR _useEmpty$[ebp], 0
	je	SHORT $LN5@StepWeapon
$LN1@StepWeapon:

; 4094 : 					MonoPrint("Match Hp %d\n",newHp);

	mov	ecx, DWORD PTR _newHp$[ebp]
	push	ecx
	push	OFFSET ??_C@_0N@EMOBHKIG@Match?5Hp?5?$CFd?6?$AA@
	call	_MonoPrint
	add	esp, 8

; 4095 : 					SetCurrentWeapon(newHp, weap);

	mov	edx, DWORD PTR _weap$7[ebp]
	push	edx
	mov	eax, DWORD PTR _newHp$[ebp]
	push	eax
	mov	ecx, DWORD PTR _this$[ebp]
	call	?SetCurrentWeapon@SMSClass@@QAEXHPAVSimWeaponClass@@@Z ; SMSClass::SetCurrentWeapon

; 4096 : 					looped = 0;

	mov	DWORD PTR ?looped@?1??StepWeaponByID@SMSClass@@QAEXXZ@4HA, 0

; 4097 : 					return;

	mov	DWORD PTR __$EHRec$[ebp+8], -1
	lea	ecx, DWORD PTR _list$[ebp]
	call	??1AList@@QAE@XZ
	jmp	SHORT $LN30@StepWeapon
$LN5@StepWeapon:

; 4098 : 				}
; 4099 : 			}
; 4100 : 			newHp = numHardpoints - newHp;

	mov	ecx, DWORD PTR _this$[ebp]
	mov	edx, DWORD PTR [ecx+40]
	sub	edx, DWORD PTR _newHp$[ebp]
	mov	DWORD PTR _newHp$[ebp], edx

; 4101 : 		}

	jmp	$LN7@StepWeapon
$LN6@StepWeapon:

; 4102 : 		startHp--;

	mov	eax, DWORD PTR _startHp$[ebp]
	sub	eax, 1
	mov	DWORD PTR _startHp$[ebp], eax

; 4103 : 	}

	jmp	$LN10@StepWeapon
$LN9@StepWeapon:

; 4104 : 
; 4105 : 	SetCurrentWeapon(-1, NULL);

	push	0
	push	-1
	mov	ecx, DWORD PTR _this$[ebp]
	call	?SetCurrentWeapon@SMSClass@@QAEXHPAVSimWeaponClass@@@Z ; SMSClass::SetCurrentWeapon

; 4106 : 	looped = 0;

	mov	DWORD PTR ?looped@?1??StepWeaponByID@SMSClass@@QAEXXZ@4HA, 0

; 4107 : }

	mov	DWORD PTR __$EHRec$[ebp+8], -1
	lea	ecx, DWORD PTR _list$[ebp]
	call	??1AList@@QAE@XZ
$LN30@StepWeapon:
	mov	ecx, DWORD PTR __$EHRec$[ebp]
	mov	DWORD PTR fs:0, ecx
	pop	ecx
	pop	esi
	mov	esp, ebp
	pop	ebp
	ret	0
_TEXT	ENDS
text$x	SEGMENT
__unwindfunclet$?StepWeaponByID@SMSClass@@QAEXXZ$0:
	lea	ecx, DWORD PTR _list$[ebp]
	jmp	??1AList@@QAE@XZ
__unwindfunclet$?StepWeaponByID@SMSClass@@QAEXXZ$1:
	mov	eax, DWORD PTR $T5[ebp]
	push	eax
	call	??3@YAXPAX@Z				; operator delete
	pop	ecx
	ret	0
__ehhandler$?StepWeaponByID@SMSClass@@QAEXXZ:
	mov	edx, DWORD PTR [esp+8]
	lea	eax, DWORD PTR [edx+12]
	mov	ecx, DWORD PTR [edx-108]
	xor	ecx, eax
	call	@__security_check_cookie@4
	mov	eax, OFFSET __ehfuncinfo$?StepWeaponByID@SMSClass@@QAEXXZ
	jmp	___CxxFrameHandler3
text$x	ENDS
?StepWeaponByID@SMSClass@@QAEXXZ ENDP			; SMSClass::StepWeaponByID
; Function compile flags: /Odtp
; File c:\users\zhitao li\documents\visual studio 2012\projects\freefalcon\sim\displays\sms.cpp
_TEXT	SEGMENT
_this$ = -16						; size = 4
tv72 = -12						; size = 4
_fcc$ = -8						; size = 4
_playerAC$ = -4						; size = 4
?StepAGWeapon@SMSClass@@QAEXXZ PROC			; SMSClass::StepAGWeapon
; _this$ = ecx

; 3871 : {

	push	ebp
	mov	ebp, esp
	sub	esp, 16					; 00000010H
	mov	DWORD PTR _this$[ebp], ecx

; 3872 : 	FireControlComputer *fcc;
; 3873 : 	AircraftClass *playerAC = SimDriver.GetPlayerAircraft();

	mov	ecx, OFFSET ?SimDriver@@3VSimulationDriver@@A ; SimDriver
	call	?GetPlayerAircraft@SimulationDriver@@QBEPAVAircraftClass@@XZ ; SimulationDriver::GetPlayerAircraft
	mov	DWORD PTR _playerAC$[ebp], eax

; 3874 : 
; 3875 : 	if( playerAC			&&
; 3876 :   		playerAC->FCC	)

	cmp	DWORD PTR _playerAC$[ebp], 0
	je	SHORT $LN6@StepAGWeap
	mov	eax, DWORD PTR _playerAC$[ebp]
	cmp	DWORD PTR [eax+936], 0
	je	SHORT $LN6@StepAGWeap

; 3877 : 	{
; 3878 : 		fcc=playerAC->FCC;

	mov	ecx, DWORD PTR _playerAC$[ebp]
	mov	edx, DWORD PTR [ecx+936]
	mov	DWORD PTR _fcc$[ebp], edx

; 3879 : 
; 3880 : 		//switch(fcc->GetMasterMode())
; 3881 : 		switch(fcc->GetMainMasterMode())

	mov	ecx, DWORD PTR _fcc$[ebp]
	call	?GetMainMasterMode@FireControlComputer@@QAE?AW4MASTERMODES@@XZ ; FireControlComputer::GetMainMasterMode
	mov	DWORD PTR tv72[ebp], eax
	cmp	DWORD PTR tv72[ebp], 0
	je	SHORT $LN2@StepAGWeap
	jmp	SHORT $LN1@StepAGWeap
$LN2@StepAGWeap:

; 3882 : 		{
; 3883 : 		case MM_AG:
; 3884 : 				/* After Jettison, we are still in the AGMM, but the curHardpoint is -1 */
; 3885 : 				/* this really screws things up in SetAGMasterModeForCurrentWeapon()    */
; 3886 : 				StepWeaponByID(); // only step if we are already in an AG or gun mode

	mov	ecx, DWORD PTR _this$[ebp]
	call	?StepWeaponByID@SMSClass@@QAEXXZ	; SMSClass::StepWeaponByID

; 3887 : 				fcc->SetAGMasterModeForCurrentWeapon(); // let the FCC figure out the best master/sub mode

	mov	ecx, DWORD PTR _fcc$[ebp]
	call	?SetAGMasterModeForCurrentWeapon@FireControlComputer@@QAEXXZ ; FireControlComputer::SetAGMasterModeForCurrentWeapon

; 3888 : 				break;

	jmp	SHORT $LN6@StepAGWeap
$LN1@StepAGWeap:

; 3889 : 			default:
; 3890 : 				fcc->EnterAGMasterMode();

	mov	ecx, DWORD PTR _fcc$[ebp]
	call	?EnterAGMasterMode@FireControlComputer@@QAEXXZ ; FireControlComputer::EnterAGMasterMode
$LN6@StepAGWeap:

; 3891 : 				//fcc->SetMasterMode(FireControlComputer::AGGun); // otherwise, change master mode
; 3892 : 		}
; 3893 : 	}
; 3894 : }

	mov	esp, ebp
	pop	ebp
	ret	0
?StepAGWeapon@SMSClass@@QAEXXZ ENDP			; SMSClass::StepAGWeapon
_TEXT	ENDS
; Function compile flags: /Odtp
; File c:\users\zhitao li\documents\visual studio 2012\projects\freefalcon\sim\displays\sms.cpp
_TEXT	SEGMENT
_this$ = -16						; size = 4
tv72 = -12						; size = 4
_fcc$ = -8						; size = 4
_playerAC$ = -4						; size = 4
?StepAAWeapon@SMSClass@@QAEXXZ PROC			; SMSClass::StepAAWeapon
; _this$ = ecx

; 3843 : {

	push	ebp
	mov	ebp, esp
	sub	esp, 16					; 00000010H
	mov	DWORD PTR _this$[ebp], ecx

; 3844 : 	FireControlComputer *fcc;
; 3845 : 	AircraftClass *playerAC = SimDriver.GetPlayerAircraft();

	mov	ecx, OFFSET ?SimDriver@@3VSimulationDriver@@A ; SimDriver
	call	?GetPlayerAircraft@SimulationDriver@@QBEPAVAircraftClass@@XZ ; SimulationDriver::GetPlayerAircraft
	mov	DWORD PTR _playerAC$[ebp], eax

; 3846 : 
; 3847 : 	if( playerAC			&&
; 3848 :   		playerAC->FCC	)

	cmp	DWORD PTR _playerAC$[ebp], 0
	je	SHORT $LN6@StepAAWeap
	mov	eax, DWORD PTR _playerAC$[ebp]
	cmp	DWORD PTR [eax+936], 0
	je	SHORT $LN6@StepAAWeap

; 3849 : 	{
; 3850 : 		fcc=playerAC->FCC;

	mov	ecx, DWORD PTR _playerAC$[ebp]
	mov	edx, DWORD PTR [ecx+936]
	mov	DWORD PTR _fcc$[ebp], edx

; 3851 : 
; 3852 : 		switch(fcc->GetMasterMode())

	mov	ecx, DWORD PTR _fcc$[ebp]
	call	?GetMasterMode@FireControlComputer@@QAE?AW4FCCMasterMode@1@XZ ; FireControlComputer::GetMasterMode
	mov	DWORD PTR tv72[ebp], eax
	cmp	DWORD PTR tv72[ebp], 10			; 0000000aH
	ja	SHORT $LN1@StepAAWeap
	mov	eax, DWORD PTR tv72[ebp]
	movzx	ecx, BYTE PTR $LN8@StepAAWeap[eax]
	jmp	DWORD PTR $LN9@StepAAWeap[ecx*4]
$LN2@StepAAWeap:

; 3853 : 		{
; 3854 : 			case FireControlComputer::MissileOverride:
; 3855 : 			case FireControlComputer::Dogfight:
; 3856 : 			case FireControlComputer::Missile:
; 3857 : 			case FireControlComputer::AAGun:
; 3858 : 				StepWeaponByID(); // only step if we are already in an AA or gun mode

	mov	ecx, DWORD PTR _this$[ebp]
	call	?StepWeaponByID@SMSClass@@QAEXXZ	; SMSClass::StepWeaponByID

; 3859 : 				fcc->SetAAMasterModeForCurrentWeapon(); // let the FCC figure out the best master/sub mode

	mov	ecx, DWORD PTR _fcc$[ebp]
	call	?SetAAMasterModeForCurrentWeapon@FireControlComputer@@QAEXXZ ; FireControlComputer::SetAAMasterModeForCurrentWeapon

; 3860 : 				break;

	jmp	SHORT $LN6@StepAAWeap
$LN1@StepAAWeap:

; 3861 : 			default:
; 3862 : 				fcc->EnterAAMasterMode();

	mov	ecx, DWORD PTR _fcc$[ebp]
	call	?EnterAAMasterMode@FireControlComputer@@QAEXXZ ; FireControlComputer::EnterAAMasterMode
$LN6@StepAAWeap:

; 3863 : //				fcc->SetMasterMode(FireControlComputer::Missile); // otherwise, change master mode
; 3864 : 				break;
; 3865 : 		}
; 3866 : 	}
; 3867 : }

	mov	esp, ebp
	pop	ebp
	ret	0
$LN9@StepAAWeap:
	DD	$LN2@StepAAWeap
	DD	$LN1@StepAAWeap
$LN8@StepAAWeap:
	DB	0
	DB	1
	DB	0
	DB	1
	DB	1
	DB	1
	DB	1
	DB	1
	DB	1
	DB	0
	DB	0
?StepAAWeapon@SMSClass@@QAEXXZ ENDP			; SMSClass::StepAAWeapon
_TEXT	ENDS
; Function compile flags: /Odtp
; File c:\users\zhitao li\documents\visual studio 2012\projects\freefalcon\sim\displays\sms.cpp
_TEXT	SEGMENT
_this$ = -8						; size = 4
_i$ = -4						; size = 4
_Id$ = 8						; size = 4
?SetCurrentHpByWeaponId@SMSClass@@QAEHH@Z PROC		; SMSClass::SetCurrentHpByWeaponId
; _this$ = ecx

; 4122 : {

	push	ebp
	mov	ebp, esp
	sub	esp, 8
	mov	DWORD PTR _this$[ebp], ecx

; 4123 : 	int i;
; 4124 :     for (i=0; i<numHardpoints; i++)

	mov	DWORD PTR _i$[ebp], 0
	jmp	SHORT $LN4@SetCurrent
$LN3@SetCurrent:
	mov	eax, DWORD PTR _i$[ebp]
	add	eax, 1
	mov	DWORD PTR _i$[ebp], eax
$LN4@SetCurrent:
	mov	ecx, DWORD PTR _this$[ebp]
	mov	edx, DWORD PTR _i$[ebp]
	cmp	edx, DWORD PTR [ecx+40]
	jge	SHORT $LN2@SetCurrent

; 4125 :     {
; 4126 : 		if( hardPoint[i]->weaponId == Id &&
; 4127 : 			hardPoint[i]->weaponCount > 0 )

	mov	eax, DWORD PTR _this$[ebp]
	mov	ecx, DWORD PTR [eax+4]
	mov	edx, DWORD PTR _i$[ebp]
	mov	eax, DWORD PTR [ecx+edx*4]
	movsx	ecx, WORD PTR [eax+8]
	cmp	ecx, DWORD PTR _Id$[ebp]
	jne	SHORT $LN1@SetCurrent
	mov	edx, DWORD PTR _this$[ebp]
	mov	eax, DWORD PTR [edx+4]
	mov	ecx, DWORD PTR _i$[ebp]
	mov	edx, DWORD PTR [eax+ecx*4]
	movsx	eax, WORD PTR [edx+10]
	test	eax, eax
	jle	SHORT $LN1@SetCurrent

; 4128 : 		{
; 4129 : 			SetCurrentWeapon(i);

	push	0
	mov	ecx, DWORD PTR _i$[ebp]
	push	ecx
	mov	ecx, DWORD PTR _this$[ebp]
	call	?SetCurrentWeapon@SMSClass@@QAEXHPAVSimWeaponClass@@@Z ; SMSClass::SetCurrentWeapon

; 4130 : 			return(1);

	mov	eax, 1
	jmp	SHORT $LN5@SetCurrent
$LN1@SetCurrent:

; 4131 : 		}
; 4132 : 	}

	jmp	SHORT $LN3@SetCurrent
$LN2@SetCurrent:

; 4133 : 	SetCurrentWeapon(-1);

	push	0
	push	-1
	mov	ecx, DWORD PTR _this$[ebp]
	call	?SetCurrentWeapon@SMSClass@@QAEXHPAVSimWeaponClass@@@Z ; SMSClass::SetCurrentWeapon

; 4134 : 	return(0);

	xor	eax, eax
$LN5@SetCurrent:

; 4135 : }

	mov	esp, ebp
	pop	ebp
	ret	4
?SetCurrentHpByWeaponId@SMSClass@@QAEHH@Z ENDP		; SMSClass::SetCurrentHpByWeaponId
_TEXT	ENDS
; Function compile flags: /Odtp
; File c:\users\zhitao li\documents\visual studio 2012\projects\freefalcon\sim\displays\sms.cpp
_TEXT	SEGMENT
_this$ = -4						; size = 4
?GetCurrentWeaponId@SMSClass@@QAEHXZ PROC		; SMSClass::GetCurrentWeaponId
; _this$ = ecx

; 4138 : {

	push	ebp
	mov	ebp, esp
	push	ecx
	mov	DWORD PTR _this$[ebp], ecx

; 4139 : 	if (curHardpoint > -1)

	mov	eax, DWORD PTR _this$[ebp]
	cmp	DWORD PTR [eax+44], -1
	jle	SHORT $LN1@GetCurrent

; 4140 : 		return hardPoint[curHardpoint]->weaponId;

	mov	ecx, DWORD PTR _this$[ebp]
	mov	edx, DWORD PTR [ecx+44]
	mov	eax, DWORD PTR _this$[ebp]
	mov	ecx, DWORD PTR [eax+4]
	mov	edx, DWORD PTR [ecx+edx*4]
	movsx	eax, WORD PTR [edx+8]
	jmp	SHORT $LN2@GetCurrent
$LN1@GetCurrent:

; 4141 : 	return 0;

	xor	eax, eax
$LN2@GetCurrent:

; 4142 : }

	mov	esp, ebp
	pop	ebp
	ret	0
?GetCurrentWeaponId@SMSClass@@QAEHXZ ENDP		; SMSClass::GetCurrentWeaponId
_TEXT	ENDS
; Function compile flags: /Odtp
; File c:\users\zhitao li\documents\visual studio 2012\projects\freefalcon\sim\include\sms.h
;	COMDAT ?SetCoolState@SMSClass@@QAEXW4Aim9Mode@1@@Z
_TEXT	SEGMENT
_this$ = -4						; size = 4
_state$ = 8						; size = 4
?SetCoolState@SMSClass@@QAEXW4Aim9Mode@1@@Z PROC	; SMSClass::SetCoolState, COMDAT
; _this$ = ecx

; 271  : 	void SetCoolState (Aim9Mode state) { aim9mode = state; };

	push	ebp
	mov	ebp, esp
	push	ecx
	mov	DWORD PTR _this$[ebp], ecx
	mov	eax, DWORD PTR _this$[ebp]
	mov	ecx, DWORD PTR _state$[ebp]
	mov	DWORD PTR [eax+180], ecx
	mov	esp, ebp
	pop	ebp
	ret	4
?SetCoolState@SMSClass@@QAEXW4Aim9Mode@1@@Z ENDP	; SMSClass::SetCoolState
_TEXT	ENDS
; Function compile flags: /Odtp
; File c:\users\zhitao li\documents\visual studio 2012\projects\freefalcon\sim\include\sms.h
;	COMDAT ?GetCoolState@SMSClass@@QAE?AW4Aim9Mode@1@XZ
_TEXT	SEGMENT
_this$ = -4						; size = 4
?GetCoolState@SMSClass@@QAE?AW4Aim9Mode@1@XZ PROC	; SMSClass::GetCoolState, COMDAT
; _this$ = ecx

; 270  : 	Aim9Mode GetCoolState() { return aim9mode; };

	push	ebp
	mov	ebp, esp
	push	ecx
	mov	DWORD PTR _this$[ebp], ecx
	mov	eax, DWORD PTR _this$[ebp]
	mov	eax, DWORD PTR [eax+180]
	mov	esp, ebp
	pop	ebp
	ret	0
?GetCoolState@SMSClass@@QAE?AW4Aim9Mode@1@XZ ENDP	; SMSClass::GetCoolState
_TEXT	ENDS
; Function compile flags: /Odtp
; File c:\users\zhitao li\documents\visual studio 2012\projects\freefalcon\sim\displays\sms.cpp
_TEXT	SEGMENT
tv361 = -56						; size = 4
tv356 = -52						; size = 4
tv347 = -48						; size = 4
tv342 = -44						; size = 4
tv326 = -40						; size = 4
tv321 = -36						; size = 4
tv310 = -32						; size = 4
tv247 = -28						; size = 4
_lwing$ = -24						; size = 4
_rwing$ = -20						; size = 4
_count$ = -16						; size = 4
_center$ = -12						; size = 4
_i$ = -8						; size = 4
_this$ = -4						; size = 4
_noseAngle$ = 8						; size = 4
?RipOffWeapons@SMSClass@@QAEXM@Z PROC			; SMSClass::RipOffWeapons
; _this$ = ecx

; 3400 : {

	push	ebp
	mov	ebp, esp
	sub	esp, 56					; 00000038H
	mov	DWORD PTR _this$[ebp], ecx

; 3401 : 	//we have only a gun or no weapons
; 3402 : 	if(numHardpoints <= 1)

	mov	eax, DWORD PTR _this$[ebp]
	cmp	DWORD PTR [eax+40], 1
	jg	SHORT $LN19@RipOffWeap

; 3403 : 		return;

	jmp	$LN20@RipOffWeap
$LN19@RipOffWeap:

; 3404 : 
; 3405 : 	int lwing = 1;

	mov	DWORD PTR _lwing$[ebp], 1

; 3406 : 	int	rwing = numHardpoints - 1;

	mov	ecx, DWORD PTR _this$[ebp]
	mov	edx, DWORD PTR [ecx+40]
	sub	edx, 1
	mov	DWORD PTR _rwing$[ebp], edx

; 3407 : 	int center = 0;

	mov	DWORD PTR _center$[ebp], 0

; 3408 : 	int count = numHardpoints - 1;

	mov	eax, DWORD PTR _this$[ebp]
	mov	ecx, DWORD PTR [eax+40]
	sub	ecx, 1
	mov	DWORD PTR _count$[ebp], ecx

; 3409 : 	int i;
; 3410 : 
; 3411 : 	if(count % 2){

	mov	edx, DWORD PTR _count$[ebp]
	and	edx, -2147483647			; 80000001H
	jns	SHORT $LN24@RipOffWeap
	dec	edx
	or	edx, -2					; fffffffeH
	inc	edx
$LN24@RipOffWeap:
	test	edx, edx
	je	SHORT $LN18@RipOffWeap

; 3412 : 		center = count / 2 + 1;

	mov	eax, DWORD PTR _count$[ebp]
	cdq
	sub	eax, edx
	sar	eax, 1
	add	eax, 1
	mov	DWORD PTR _center$[ebp], eax
$LN18@RipOffWeap:

; 3413 : 	}
; 3414 : 
; 3415 : 	if(fabs(noseAngle) < 0.2588F){

	push	ecx
	movss	xmm0, DWORD PTR _noseAngle$[ebp]
	movss	DWORD PTR [esp], xmm0
	call	?fabs@@YAMM@Z				; fabs
	add	esp, 4
	fstp	DWORD PTR tv310[ebp]
	movss	xmm0, DWORD PTR __real@3e84816f
	comiss	xmm0, DWORD PTR tv310[ebp]
	jbe	$LN2@RipOffWeap

; 3416 : 		//remove left wingtip weapon
; 3417 : 		if(ownship->platformAngles.sinphi < -0.5F){

	mov	eax, DWORD PTR _this$[ebp]
	mov	ecx, DWORD PTR [eax+56]
	movss	xmm0, DWORD PTR __real@bf000000
	comiss	xmm0, DWORD PTR [ecx+396]
	jbe	SHORT $LN16@RipOffWeap

; 3418 : 			if(curHardpoint == lwing){

	mov	edx, DWORD PTR _this$[ebp]
	mov	eax, DWORD PTR [edx+44]
	cmp	eax, DWORD PTR _lwing$[ebp]
	jne	SHORT $LN15@RipOffWeap

; 3419 : 				ReleaseCurWeapon (-1);

	push	-1
	mov	ecx, DWORD PTR _this$[ebp]
	call	?ReleaseCurWeapon@SMSClass@@IAEXH@Z	; SMSClass::ReleaseCurWeapon
$LN15@RipOffWeap:

; 3420 : 			}
; 3421 : 			JettisonStation(lwing, RippedOff);

	push	32					; 00000020H
	mov	ecx, DWORD PTR _lwing$[ebp]
	push	ecx
	mov	ecx, DWORD PTR _this$[ebp]
	call	?JettisonStation@SMSClass@@IAEHHW4JettisonMode@@@Z ; SMSClass::JettisonStation
$LN16@RipOffWeap:

; 3422 : 		}
; 3423 : 			
; 3424 : 		//remove left wing stores
; 3425 : 		if(ownship->Roll() > -30.0F * DTR && ownship->Roll() < -10.0F * DTR){

	mov	edx, DWORD PTR _this$[ebp]
	mov	ecx, DWORD PTR [edx+56]
	call	?Roll@VuEntity@@QBEMXZ			; VuEntity::Roll
	fstp	DWORD PTR tv321[ebp]
	movss	xmm0, DWORD PTR tv321[ebp]
	comiss	xmm0, DWORD PTR __real@bf060a91
	jbe	SHORT $LN11@RipOffWeap
	mov	eax, DWORD PTR _this$[ebp]
	mov	ecx, DWORD PTR [eax+56]
	call	?Roll@VuEntity@@QBEMXZ			; VuEntity::Roll
	fstp	DWORD PTR tv326[ebp]
	movss	xmm0, DWORD PTR __real@be32b8c1
	comiss	xmm0, DWORD PTR tv326[ebp]
	jbe	SHORT $LN11@RipOffWeap

; 3426 : 			for(i = lwing + 1; i < count/2 + 1; i++){

	mov	ecx, DWORD PTR _lwing$[ebp]
	add	ecx, 1
	mov	DWORD PTR _i$[ebp], ecx
	jmp	SHORT $LN13@RipOffWeap
$LN12@RipOffWeap:
	mov	edx, DWORD PTR _i$[ebp]
	add	edx, 1
	mov	DWORD PTR _i$[ebp], edx
$LN13@RipOffWeap:
	mov	eax, DWORD PTR _count$[ebp]
	cdq
	sub	eax, edx
	sar	eax, 1
	add	eax, 1
	cmp	DWORD PTR _i$[ebp], eax
	jge	SHORT $LN11@RipOffWeap

; 3427 : 				if(curHardpoint == i){

	mov	eax, DWORD PTR _this$[ebp]
	mov	ecx, DWORD PTR [eax+44]
	cmp	ecx, DWORD PTR _i$[ebp]
	jne	SHORT $LN10@RipOffWeap

; 3428 : 					ReleaseCurWeapon (-1);

	push	-1
	mov	ecx, DWORD PTR _this$[ebp]
	call	?ReleaseCurWeapon@SMSClass@@IAEXH@Z	; SMSClass::ReleaseCurWeapon
$LN10@RipOffWeap:

; 3429 : 				}
; 3430 : 				JettisonStation(i, RippedOff);

	push	32					; 00000020H
	mov	edx, DWORD PTR _i$[ebp]
	push	edx
	mov	ecx, DWORD PTR _this$[ebp]
	call	?JettisonStation@SMSClass@@IAEHHW4JettisonMode@@@Z ; SMSClass::JettisonStation

; 3431 : 			}

	jmp	SHORT $LN12@RipOffWeap
$LN11@RipOffWeap:

; 3432 : 		}
; 3433 : 
; 3434 : 		//remove centerline stores
; 3435 : 		if(center && ownship->Roll() > -20.0F * DTR && ownship->Roll() < 20.0F * DTR){

	cmp	DWORD PTR _center$[ebp], 0
	je	SHORT $LN9@RipOffWeap
	mov	eax, DWORD PTR _this$[ebp]
	mov	ecx, DWORD PTR [eax+56]
	call	?Roll@VuEntity@@QBEMXZ			; VuEntity::Roll
	fstp	DWORD PTR tv342[ebp]
	movss	xmm0, DWORD PTR tv342[ebp]
	comiss	xmm0, DWORD PTR __real@beb2b8c1
	jbe	SHORT $LN9@RipOffWeap
	mov	ecx, DWORD PTR _this$[ebp]
	mov	ecx, DWORD PTR [ecx+56]
	call	?Roll@VuEntity@@QBEMXZ			; VuEntity::Roll
	fstp	DWORD PTR tv347[ebp]
	movss	xmm0, DWORD PTR __real@3eb2b8c1
	comiss	xmm0, DWORD PTR tv347[ebp]
	jbe	SHORT $LN9@RipOffWeap

; 3436 : 			if(curHardpoint == center){

	mov	edx, DWORD PTR _this$[ebp]
	mov	eax, DWORD PTR [edx+44]
	cmp	eax, DWORD PTR _center$[ebp]
	jne	SHORT $LN8@RipOffWeap

; 3437 : 				ReleaseCurWeapon (-1);

	push	-1
	mov	ecx, DWORD PTR _this$[ebp]
	call	?ReleaseCurWeapon@SMSClass@@IAEXH@Z	; SMSClass::ReleaseCurWeapon
$LN8@RipOffWeap:

; 3438 : 			}
; 3439 : 			JettisonStation(center,RippedOff);

	push	32					; 00000020H
	mov	ecx, DWORD PTR _center$[ebp]
	push	ecx
	mov	ecx, DWORD PTR _this$[ebp]
	call	?JettisonStation@SMSClass@@IAEHHW4JettisonMode@@@Z ; SMSClass::JettisonStation
$LN9@RipOffWeap:

; 3440 : 		}
; 3441 : 
; 3442 : 		//remove right wing stores
; 3443 : 		if(ownship->Roll() > 10.0F * DTR && ownship->Roll() < 30.0F *DTR){

	mov	edx, DWORD PTR _this$[ebp]
	mov	ecx, DWORD PTR [edx+56]
	call	?Roll@VuEntity@@QBEMXZ			; VuEntity::Roll
	fstp	DWORD PTR tv356[ebp]
	movss	xmm0, DWORD PTR tv356[ebp]
	comiss	xmm0, DWORD PTR __real@3e32b8c1
	jbe	SHORT $LN4@RipOffWeap
	mov	eax, DWORD PTR _this$[ebp]
	mov	ecx, DWORD PTR [eax+56]
	call	?Roll@VuEntity@@QBEMXZ			; VuEntity::Roll
	fstp	DWORD PTR tv361[ebp]
	movss	xmm0, DWORD PTR __real@3f060a91
	comiss	xmm0, DWORD PTR tv361[ebp]
	jbe	SHORT $LN4@RipOffWeap

; 3444 : 			for(i = count/2 + 1 + (center?1:0); i < rwing; i++){

	cmp	DWORD PTR _center$[ebp], 0
	je	SHORT $LN22@RipOffWeap
	mov	DWORD PTR tv247[ebp], 1
	jmp	SHORT $LN23@RipOffWeap
$LN22@RipOffWeap:
	mov	DWORD PTR tv247[ebp], 0
$LN23@RipOffWeap:
	mov	eax, DWORD PTR _count$[ebp]
	cdq
	sub	eax, edx
	sar	eax, 1
	mov	ecx, DWORD PTR tv247[ebp]
	lea	edx, DWORD PTR [eax+ecx+1]
	mov	DWORD PTR _i$[ebp], edx
	jmp	SHORT $LN6@RipOffWeap
$LN5@RipOffWeap:
	mov	eax, DWORD PTR _i$[ebp]
	add	eax, 1
	mov	DWORD PTR _i$[ebp], eax
$LN6@RipOffWeap:
	mov	ecx, DWORD PTR _i$[ebp]
	cmp	ecx, DWORD PTR _rwing$[ebp]
	jge	SHORT $LN4@RipOffWeap

; 3445 : 				if(curHardpoint == i){

	mov	edx, DWORD PTR _this$[ebp]
	mov	eax, DWORD PTR [edx+44]
	cmp	eax, DWORD PTR _i$[ebp]
	jne	SHORT $LN3@RipOffWeap

; 3446 : 					ReleaseCurWeapon (-1);

	push	-1
	mov	ecx, DWORD PTR _this$[ebp]
	call	?ReleaseCurWeapon@SMSClass@@IAEXH@Z	; SMSClass::ReleaseCurWeapon
$LN3@RipOffWeap:

; 3447 : 				}
; 3448 : 				JettisonStation(i,RippedOff);

	push	32					; 00000020H
	mov	ecx, DWORD PTR _i$[ebp]
	push	ecx
	mov	ecx, DWORD PTR _this$[ebp]
	call	?JettisonStation@SMSClass@@IAEHHW4JettisonMode@@@Z ; SMSClass::JettisonStation

; 3449 : 			}

	jmp	SHORT $LN5@RipOffWeap
$LN4@RipOffWeap:

; 3450 : 		}
; 3451 : 
; 3452 : 		//remove right wingtip weapon
; 3453 : 		if(rwing && ownship->platformAngles.sinphi > 0.5F){

	cmp	DWORD PTR _rwing$[ebp], 0
	je	SHORT $LN2@RipOffWeap
	mov	edx, DWORD PTR _this$[ebp]
	mov	eax, DWORD PTR [edx+56]
	movss	xmm0, DWORD PTR [eax+396]
	comiss	xmm0, DWORD PTR __real@3f000000
	jbe	SHORT $LN2@RipOffWeap

; 3454 : 			if(curHardpoint == rwing){

	mov	ecx, DWORD PTR _this$[ebp]
	mov	edx, DWORD PTR [ecx+44]
	cmp	edx, DWORD PTR _rwing$[ebp]
	jne	SHORT $LN1@RipOffWeap

; 3455 : 				ReleaseCurWeapon (-1);

	push	-1
	mov	ecx, DWORD PTR _this$[ebp]
	call	?ReleaseCurWeapon@SMSClass@@IAEXH@Z	; SMSClass::ReleaseCurWeapon
$LN1@RipOffWeap:

; 3456 : 			}
; 3457 : 			JettisonStation(rwing,RippedOff);

	push	32					; 00000020H
	mov	eax, DWORD PTR _rwing$[ebp]
	push	eax
	mov	ecx, DWORD PTR _this$[ebp]
	call	?JettisonStation@SMSClass@@IAEHHW4JettisonMode@@@Z ; SMSClass::JettisonStation
$LN2@RipOffWeap:
$LN20@RipOffWeap:

; 3458 : 		}
; 3459 : 	}
; 3460 : }

	mov	esp, ebp
	pop	ebp
	ret	4
?RipOffWeapons@SMSClass@@QAEXM@Z ENDP			; SMSClass::RipOffWeapons
_TEXT	ENDS
; Function compile flags: /Odtp
; File c:\users\zhitao li\documents\visual studio 2012\projects\freefalcon\sim\displays\sms.cpp
_TEXT	SEGMENT
_storespeed$ = -16					; size = 4
_gLimit$ = -12						; size = 4
_i$ = -8						; size = 4
_this$ = -4						; size = 4
_hardpoint$ = 8						; size = 4
?ChooseLimiterMode@SMSClass@@QAEXH@Z PROC		; SMSClass::ChooseLimiterMode
; _this$ = ecx

; 3556 : {

	push	ebp
	mov	ebp, esp
	sub	esp, 16					; 00000010H
	push	esi
	mov	DWORD PTR _this$[ebp], ecx

; 3557 : 	int i;
; 3558 : 	float gLimit;
; 3559 : 	float storespeed;//me123 
; 3560 : 
; 3561 : 	gLimit = 9.0f;//me123

	movss	xmm0, DWORD PTR __real@41100000
	movss	DWORD PTR _gLimit$[ebp], xmm0

; 3562 :  	storespeed = 800.0f;//me123

	movss	xmm0, DWORD PTR __real@44480000
	movss	DWORD PTR _storespeed$[ebp], xmm0

; 3563 : 
; 3564 : 	if(ownship->IsAirplane() && ((AircraftClass *)ownship)->af &&
; 3565 : 		!((AircraftClass *)ownship)->af->IsSet(AirframeClass::IsDigital))

	mov	eax, DWORD PTR _this$[ebp]
	mov	ecx, DWORD PTR [eax+56]
	mov	edx, DWORD PTR _this$[ebp]
	mov	eax, DWORD PTR [ecx]
	mov	ecx, DWORD PTR [edx+56]
	mov	edx, DWORD PTR [eax+192]
	call	edx
	test	eax, eax
	je	$LN25@ChooseLimi
	mov	eax, DWORD PTR _this$[ebp]
	mov	ecx, DWORD PTR [eax+56]
	cmp	DWORD PTR [ecx+932], 0
	je	$LN25@ChooseLimi
	push	1
	mov	edx, DWORD PTR _this$[ebp]
	mov	eax, DWORD PTR [edx+56]
	mov	ecx, DWORD PTR [eax+932]
	call	?IsSet@AirframeClass@@QBEHH@Z		; AirframeClass::IsSet
	test	eax, eax
	jne	$LN25@ChooseLimi

; 3566 : 	{
; 3567 : 		gLimit = ((AircraftClass *)ownship)->af->MaxGs();

	mov	ecx, DWORD PTR _this$[ebp]
	mov	edx, DWORD PTR [ecx+56]
	mov	ecx, DWORD PTR [edx+932]
	call	?MaxGs@AirframeClass@@QAEMXZ		; AirframeClass::MaxGs
	fstp	DWORD PTR _gLimit$[ebp]

; 3568 : 		
; 3569 : 		//MI
; 3570 : 		//if(!g_bEnableCATIIIExtension || ((AircraftClass *)ownship)->af->IsSet(AirframeClass::IsDigital))
; 3571 : 		if(!g_bRealisticAvionics || ((AircraftClass *)ownship)->af->IsSet(AirframeClass::IsDigital))

	movzx	eax, BYTE PTR ?g_bRealisticAvionics@@3_NA ; g_bRealisticAvionics
	test	eax, eax
	je	SHORT $LN23@ChooseLimi
	push	1
	mov	ecx, DWORD PTR _this$[ebp]
	mov	edx, DWORD PTR [ecx+56]
	mov	ecx, DWORD PTR [edx+932]
	call	?IsSet@AirframeClass@@QBEHH@Z		; AirframeClass::IsSet
	test	eax, eax
	je	SHORT $LN24@ChooseLimi
$LN23@ChooseLimi:

; 3572 : 			((AircraftClass *)ownship)->af->ClearFlag(AirframeClass::CATLimiterIII);

	push	2097152					; 00200000H
	mov	eax, DWORD PTR _this$[ebp]
	mov	ecx, DWORD PTR [eax+56]
	mov	ecx, DWORD PTR [ecx+932]
	call	?ClearFlag@AirframeClass@@QAEXH@Z	; AirframeClass::ClearFlag
$LN24@ChooseLimi:

; 3573 : 
; 3574 : 		if(gLimiterMgr->HasLimiter(CatIIICommandType, ((AircraftClass *)ownship)->af->VehicleIndex()) )

	mov	edx, DWORD PTR _this$[ebp]
	mov	eax, DWORD PTR [edx+56]
	mov	ecx, DWORD PTR [eax+932]
	call	?VehicleIndex@AirframeClass@@QAEHXZ	; AirframeClass::VehicleIndex
	push	eax
	push	5
	mov	ecx, DWORD PTR ?gLimiterMgr@@3PAVLimiterMgrClass@@A ; gLimiterMgr
	call	?HasLimiter@LimiterMgrClass@@QAEHHH@Z	; LimiterMgrClass::HasLimiter
	test	eax, eax
	je	$LN19@ChooseLimi

; 3575 : 		{
; 3576 : 			for(i = 0; i < numHardpoints; i++)

	mov	DWORD PTR _i$[ebp], 0
	jmp	SHORT $LN21@ChooseLimi
$LN20@ChooseLimi:
	mov	ecx, DWORD PTR _i$[ebp]
	add	ecx, 1
	mov	DWORD PTR _i$[ebp], ecx
$LN21@ChooseLimi:
	mov	edx, DWORD PTR _this$[ebp]
	mov	eax, DWORD PTR _i$[ebp]
	cmp	eax, DWORD PTR [edx+40]
	jge	$LN19@ChooseLimi

; 3577 : 			{
; 3578 : 
; 3579 : 				if(hardPoint[i] && hardPoint[i]->weaponPointer &&
; 3580 : 					hardPoint[i]->weaponCount > 0 &&
; 3581 : 					(hardPoint[i]->GetWeaponClass() == wcRocketWpn	||
; 3582 : 					hardPoint[i]->GetWeaponClass() == wcBombWpn		||
; 3583 : 					hardPoint[i]->GetWeaponClass() == wcTank		||
; 3584 : 					hardPoint[i]->GetWeaponClass() == wcAgmWpn		||
; 3585 : 					hardPoint[i]->GetWeaponClass() == wcHARMWpn		||
; 3586 : 					hardPoint[i]->GetWeaponClass() == wcSamWpn		||
; 3587 : 					hardPoint[i]->GetWeaponClass() == wcGbuWpn)				 )

	mov	ecx, DWORD PTR _this$[ebp]
	mov	edx, DWORD PTR [ecx+4]
	mov	eax, DWORD PTR _i$[ebp]
	cmp	DWORD PTR [edx+eax*4], 0
	je	$LN1@ChooseLimi
	mov	ecx, DWORD PTR _this$[ebp]
	mov	edx, DWORD PTR [ecx+4]
	mov	eax, DWORD PTR _i$[ebp]
	mov	ecx, DWORD PTR [edx+eax*4]
	add	ecx, 12					; 0000000cH
	call	??B?$VuBin@VSimWeaponClass@@@@QBE_NXZ	; VuBin<SimWeaponClass>::operator bool
	movzx	ecx, al
	test	ecx, ecx
	je	$LN1@ChooseLimi
	mov	edx, DWORD PTR _this$[ebp]
	mov	eax, DWORD PTR [edx+4]
	mov	ecx, DWORD PTR _i$[ebp]
	mov	edx, DWORD PTR [eax+ecx*4]
	movsx	eax, WORD PTR [edx+10]
	test	eax, eax
	jle	$LN1@ChooseLimi
	mov	ecx, DWORD PTR _this$[ebp]
	mov	edx, DWORD PTR [ecx+4]
	mov	eax, DWORD PTR _i$[ebp]
	mov	ecx, DWORD PTR [edx+eax*4]
	mov	edx, DWORD PTR _this$[ebp]
	mov	eax, DWORD PTR [edx+4]
	mov	edx, DWORD PTR _i$[ebp]
	mov	esi, DWORD PTR [ecx]
	mov	ecx, DWORD PTR [eax+edx*4]
	mov	eax, DWORD PTR [esi+164]
	call	eax
	cmp	eax, 1
	je	$LN17@ChooseLimi
	mov	ecx, DWORD PTR _this$[ebp]
	mov	edx, DWORD PTR [ecx+4]
	mov	eax, DWORD PTR _i$[ebp]
	mov	ecx, DWORD PTR [edx+eax*4]
	mov	edx, DWORD PTR _this$[ebp]
	mov	eax, DWORD PTR [edx+4]
	mov	edx, DWORD PTR _i$[ebp]
	mov	esi, DWORD PTR [ecx]
	mov	ecx, DWORD PTR [eax+edx*4]
	mov	eax, DWORD PTR [esi+164]
	call	eax
	cmp	eax, 2
	je	$LN17@ChooseLimi
	mov	ecx, DWORD PTR _this$[ebp]
	mov	edx, DWORD PTR [ecx+4]
	mov	eax, DWORD PTR _i$[ebp]
	mov	ecx, DWORD PTR [edx+eax*4]
	mov	edx, DWORD PTR _this$[ebp]
	mov	eax, DWORD PTR [edx+4]
	mov	edx, DWORD PTR _i$[ebp]
	mov	esi, DWORD PTR [ecx]
	mov	ecx, DWORD PTR [eax+edx*4]
	mov	eax, DWORD PTR [esi+164]
	call	eax
	cmp	eax, 5
	je	$LN17@ChooseLimi
	mov	ecx, DWORD PTR _this$[ebp]
	mov	edx, DWORD PTR [ecx+4]
	mov	eax, DWORD PTR _i$[ebp]
	mov	ecx, DWORD PTR [edx+eax*4]
	mov	edx, DWORD PTR _this$[ebp]
	mov	eax, DWORD PTR [edx+4]
	mov	edx, DWORD PTR _i$[ebp]
	mov	esi, DWORD PTR [ecx]
	mov	ecx, DWORD PTR [eax+edx*4]
	mov	eax, DWORD PTR [esi+164]
	call	eax
	cmp	eax, 6
	je	SHORT $LN17@ChooseLimi
	mov	ecx, DWORD PTR _this$[ebp]
	mov	edx, DWORD PTR [ecx+4]
	mov	eax, DWORD PTR _i$[ebp]
	mov	ecx, DWORD PTR [edx+eax*4]
	mov	edx, DWORD PTR _this$[ebp]
	mov	eax, DWORD PTR [edx+4]
	mov	edx, DWORD PTR _i$[ebp]
	mov	esi, DWORD PTR [ecx]
	mov	ecx, DWORD PTR [eax+edx*4]
	mov	eax, DWORD PTR [esi+164]
	call	eax
	cmp	eax, 7
	je	SHORT $LN17@ChooseLimi
	mov	ecx, DWORD PTR _this$[ebp]
	mov	edx, DWORD PTR [ecx+4]
	mov	eax, DWORD PTR _i$[ebp]
	mov	ecx, DWORD PTR [edx+eax*4]
	mov	edx, DWORD PTR _this$[ebp]
	mov	eax, DWORD PTR [edx+4]
	mov	edx, DWORD PTR _i$[ebp]
	mov	esi, DWORD PTR [ecx]
	mov	ecx, DWORD PTR [eax+edx*4]
	mov	eax, DWORD PTR [esi+164]
	call	eax
	cmp	eax, 8
	je	SHORT $LN17@ChooseLimi
	mov	ecx, DWORD PTR _this$[ebp]
	mov	edx, DWORD PTR [ecx+4]
	mov	eax, DWORD PTR _i$[ebp]
	mov	ecx, DWORD PTR [edx+eax*4]
	mov	edx, DWORD PTR _this$[ebp]
	mov	eax, DWORD PTR [edx+4]
	mov	edx, DWORD PTR _i$[ebp]
	mov	esi, DWORD PTR [ecx]
	mov	ecx, DWORD PTR [eax+edx*4]
	mov	eax, DWORD PTR [esi+164]
	call	eax
	cmp	eax, 9
	jne	$LN1@ChooseLimi
$LN17@ChooseLimi:

; 3588 : 				{
; 3589 : // OW CATIII Fix 
; 3590 : 					//if(!g_bEnableCATIIIExtension)	MI
; 3591 : 					if(!g_bRealisticAvionics)

	movzx	ecx, BYTE PTR ?g_bRealisticAvionics@@3_NA ; g_bRealisticAvionics
	test	ecx, ecx
	jne	$LN16@ChooseLimi

; 3592 : 					{
; 3593 : 						if(hardPoint[i]->GetWeaponClass() == wcTank)

	mov	edx, DWORD PTR _this$[ebp]
	mov	eax, DWORD PTR [edx+4]
	mov	ecx, DWORD PTR _i$[ebp]
	mov	edx, DWORD PTR [eax+ecx*4]
	mov	eax, DWORD PTR _this$[ebp]
	mov	ecx, DWORD PTR [eax+4]
	mov	eax, DWORD PTR _i$[ebp]
	mov	edx, DWORD PTR [edx]
	mov	ecx, DWORD PTR [ecx+eax*4]
	mov	eax, DWORD PTR [edx+164]
	call	eax
	cmp	eax, 5
	jne	SHORT $LN15@ChooseLimi

; 3594 : 						{
; 3595 : 							((AircraftClass *)ownship)->af->SetFlag(AirframeClass::CATLimiterIII);

	push	2097152					; 00200000H
	mov	ecx, DWORD PTR _this$[ebp]
	mov	edx, DWORD PTR [ecx+56]
	mov	ecx, DWORD PTR [edx+932]
	call	?SetFlag@AirframeClass@@QAEXH@Z		; AirframeClass::SetFlag

; 3596 : 							if(gLimit > 7.5F)

	movss	xmm0, DWORD PTR _gLimit$[ebp]
	comiss	xmm0, DWORD PTR __real@40f00000
	jbe	SHORT $LN14@ChooseLimi

; 3597 : 								gLimit = 7.5F;

	movss	xmm0, DWORD PTR __real@40f00000
	movss	DWORD PTR _gLimit$[ebp], xmm0
$LN14@ChooseLimi:

; 3598 : 						}
; 3599 : 						else

	jmp	SHORT $LN12@ChooseLimi
$LN15@ChooseLimi:

; 3600 : 						{
; 3601 : 							((AircraftClass *)ownship)->af->SetFlag(AirframeClass::CATLimiterIII);

	push	2097152					; 00200000H
	mov	eax, DWORD PTR _this$[ebp]
	mov	ecx, DWORD PTR [eax+56]
	mov	ecx, DWORD PTR [ecx+932]
	call	?SetFlag@AirframeClass@@QAEXH@Z		; AirframeClass::SetFlag

; 3602 : 							if(gLimit > 6.0F)

	movss	xmm0, DWORD PTR _gLimit$[ebp]
	comiss	xmm0, DWORD PTR __real@40c00000
	jbe	SHORT $LN12@ChooseLimi

; 3603 : 								gLimit = 6.0F;

	movss	xmm0, DWORD PTR __real@40c00000
	movss	DWORD PTR _gLimit$[ebp], xmm0
$LN12@ChooseLimi:

; 3604 : 						}
; 3605 : 					}
; 3606 : 
; 3607 : 					else

	jmp	$LN1@ChooseLimi
$LN16@ChooseLimi:

; 3608 : 					{
; 3609 : 						if(hardPoint[i]->GetWeaponClass() == wcTank )

	mov	edx, DWORD PTR _this$[ebp]
	mov	eax, DWORD PTR [edx+4]
	mov	ecx, DWORD PTR _i$[ebp]
	mov	edx, DWORD PTR [eax+ecx*4]
	mov	eax, DWORD PTR _this$[ebp]
	mov	ecx, DWORD PTR [eax+4]
	mov	eax, DWORD PTR _i$[ebp]
	mov	edx, DWORD PTR [edx]
	mov	ecx, DWORD PTR [ecx+eax*4]
	mov	eax, DWORD PTR [edx+164]
	call	eax
	cmp	eax, 5
	jne	$LN10@ChooseLimi

; 3610 : 						{
; 3611 : 							if (((AircraftClass *)ownship)->af->IsSet(AirframeClass::IsDigital))//me123 don't change cat for player check addet

	push	1
	mov	ecx, DWORD PTR _this$[ebp]
	mov	edx, DWORD PTR [ecx+56]
	mov	ecx, DWORD PTR [edx+932]
	call	?IsSet@AirframeClass@@QBEHH@Z		; AirframeClass::IsSet
	test	eax, eax
	je	SHORT $LN9@ChooseLimi

; 3612 : 							{
; 3613 : 							((AircraftClass *)ownship)->af->SetFlag(AirframeClass::CATLimiterIII);

	push	2097152					; 00200000H
	mov	eax, DWORD PTR _this$[ebp]
	mov	ecx, DWORD PTR [eax+56]
	mov	ecx, DWORD PTR [ecx+932]
	call	?SetFlag@AirframeClass@@QAEXH@Z		; AirframeClass::SetFlag
$LN9@ChooseLimi:

; 3614 : 							}
; 3615 : 							/*if(gLimit > 7.0F)//me123 addet fuel check
; 3616 : 							{
; 3617 : 								storespeed = 600.0f;//me123
; 3618 : 								if (((AircraftClass *)ownship)->af->ExternalFuel() >=1.0f)
; 3619 : 								gLimit = 7.0F;//me123 tanks g limit is 7Gz			
; 3620 : 							}*/
; 3621 : 							//MI me123... we need to check which tank we have here too
; 3622 : 							if (i == numHardpoints /2) // centerline tank

	mov	edx, DWORD PTR _this$[ebp]
	mov	eax, DWORD PTR [edx+40]
	cdq
	sub	eax, edx
	sar	eax, 1
	cmp	DWORD PTR _i$[ebp], eax
	jne	SHORT $LN8@ChooseLimi

; 3623 : 							{
; 3624 : 								// MD -- 20040531: quick fix for JPO...if there's no fuel on the centerline, don't
; 3625 : 								// set the limiter
; 3626 : 								if (((AircraftClass *)ownship)->af->m_tanks[AirframeClass::TANK_CLINE] > 0.0F)

	mov	eax, DWORD PTR _this$[ebp]
	mov	ecx, DWORD PTR [eax+56]
	mov	edx, DWORD PTR [ecx+932]
	mov	eax, 4
	shl	eax, 3
	movss	xmm0, DWORD PTR [edx+eax+1688]
	comiss	xmm0, DWORD PTR __real@00000000
	jbe	SHORT $LN6@ChooseLimi

; 3627 : 								{
; 3628 : 						 			if(gLimit > 7.0F)//me123 from 7.5

	movss	xmm0, DWORD PTR _gLimit$[ebp]
	comiss	xmm0, DWORD PTR __real@40e00000
	jbe	SHORT $LN6@ChooseLimi

; 3629 : 						 			{
; 3630 : 						 				gLimit = 7.0F;//me123 from 7.5

	movss	xmm0, DWORD PTR __real@40e00000
	movss	DWORD PTR _gLimit$[ebp], xmm0

; 3631 : 						 				storespeed = 600.0f;//me123

	movss	xmm0, DWORD PTR __real@44160000
	movss	DWORD PTR _storespeed$[ebp], xmm0
$LN6@ChooseLimi:

; 3632 : 						 			}
; 3633 : 								}
; 3634 : 							}
; 3635 : 							else // dollys

	jmp	SHORT $LN4@ChooseLimi
$LN8@ChooseLimi:

; 3636 : 							{ 
; 3637 : 					 			if(gLimit > 6.5F) 

	movss	xmm0, DWORD PTR _gLimit$[ebp]
	comiss	xmm0, DWORD PTR __real@40d00000
	jbe	SHORT $LN4@ChooseLimi

; 3638 : 					 			{
; 3639 : 					 				gLimit = 6.5F; 

	movss	xmm0, DWORD PTR __real@40d00000
	movss	DWORD PTR _gLimit$[ebp], xmm0

; 3640 : 					 				storespeed = 600.0f;//me123

	movss	xmm0, DWORD PTR __real@44160000
	movss	DWORD PTR _storespeed$[ebp], xmm0
$LN4@ChooseLimi:

; 3641 : 					 			}
; 3642 : 							}
; 3643 : 						}
; 3644 : 						else 

	jmp	SHORT $LN1@ChooseLimi
$LN10@ChooseLimi:

; 3645 : 						{
; 3646 : 							if (((AircraftClass *)ownship)->af->IsSet(AirframeClass::IsDigital))//me123 don't change cat for player check addet

	push	1
	mov	ecx, DWORD PTR _this$[ebp]
	mov	edx, DWORD PTR [ecx+56]
	mov	ecx, DWORD PTR [edx+932]
	call	?IsSet@AirframeClass@@QBEHH@Z		; AirframeClass::IsSet
	test	eax, eax
	je	SHORT $LN2@ChooseLimi

; 3647 : 							{
; 3648 : 								((AircraftClass *)ownship)->af->SetFlag(AirframeClass::CATLimiterIII);

	push	2097152					; 00200000H
	mov	eax, DWORD PTR _this$[ebp]
	mov	ecx, DWORD PTR [eax+56]
	mov	ecx, DWORD PTR [ecx+932]
	call	?SetFlag@AirframeClass@@QAEXH@Z		; AirframeClass::SetFlag
$LN2@ChooseLimi:

; 3649 : 							}
; 3650 : 							if(gLimit > 5.5F)

	movss	xmm0, DWORD PTR _gLimit$[ebp]
	comiss	xmm0, DWORD PTR __real@40b00000
	jbe	SHORT $LN1@ChooseLimi

; 3651 : 							{
; 3652 : 								gLimit = 5.5F;//me123 stores in general has 5.5 g limit

	movss	xmm0, DWORD PTR __real@40b00000
	movss	DWORD PTR _gLimit$[ebp], xmm0

; 3653 : 								storespeed = 550.0f;//me123

	movss	xmm0, DWORD PTR __real@44098000
	movss	DWORD PTR _storespeed$[ebp], xmm0
$LN1@ChooseLimi:

; 3654 : 							}
; 3655 : 						}
; 3656 : 					}
; 3657 : 				}
; 3658 : 			}

	jmp	$LN20@ChooseLimi
$LN19@ChooseLimi:

; 3659 : 		}
; 3660 : 		((AircraftClass *)ownship)->af->curMaxGs = gLimit;

	mov	edx, DWORD PTR _this$[ebp]
	mov	eax, DWORD PTR [edx+56]
	mov	ecx, DWORD PTR [eax+932]
	movss	xmm0, DWORD PTR _gLimit$[ebp]
	movss	DWORD PTR [ecx+1244], xmm0

; 3661 : 		((AircraftClass *)ownship)->af->curMaxStoreSpeed = storespeed;//me123

	mov	edx, DWORD PTR _this$[ebp]
	mov	eax, DWORD PTR [edx+56]
	mov	ecx, DWORD PTR [eax+932]
	movss	xmm0, DWORD PTR _storespeed$[ebp]
	movss	DWORD PTR [ecx+1612], xmm0
$LN25@ChooseLimi:

; 3662 : 	}
; 3663 : 	
; 3664 : }

	pop	esi
	mov	esp, ebp
	pop	ebp
	ret	4
?ChooseLimiterMode@SMSClass@@QAEXH@Z ENDP		; SMSClass::ChooseLimiterMode
_TEXT	ENDS
; Function compile flags: /Odtp
; File c:\users\zhitao li\documents\visual studio 2012\projects\freefalcon\sim\displays\sms.cpp
_TEXT	SEGMENT
_x$ = -16						; size = 4
_z$ = -12						; size = 4
_y$ = -8						; size = 4
_this$ = -4						; size = 4
_station$ = 8						; size = 4
_storeId$ = 12						; size = 4
_visible$ = 16						; size = 4
?AddStore@SMSClass@@QAEXHHH@Z PROC			; SMSClass::AddStore
; _this$ = ecx

; 3463 : {

	push	ebp
	mov	ebp, esp
	sub	esp, 16					; 00000010H
	push	esi
	mov	DWORD PTR _this$[ebp], ecx

; 3464 : 	float x,y,z;
; 3465 : 
; 3466 : 	if(ownship->IsAirplane() && !UnlimitedAmmo())

	mov	eax, DWORD PTR _this$[ebp]
	mov	ecx, DWORD PTR [eax+56]
	mov	edx, DWORD PTR _this$[ebp]
	mov	eax, DWORD PTR [ecx]
	mov	ecx, DWORD PTR [edx+56]
	mov	edx, DWORD PTR [eax+192]
	call	edx
	test	eax, eax
	je	$LN1@AddStore
	mov	ecx, DWORD PTR _this$[ebp]
	call	?UnlimitedAmmo@SMSClass@@QAEHXZ		; SMSClass::UnlimitedAmmo
	test	eax, eax
	jne	$LN1@AddStore

; 3467 : 	{
; 3468 : 		ShiAssert(((AircraftClass *)ownship)->af);
; 3469 : 
; 3470 : 		hardPoint[station]->GetPosition(&x,&y,&z);

	lea	eax, DWORD PTR _z$[ebp]
	push	eax
	lea	ecx, DWORD PTR _y$[ebp]
	push	ecx
	lea	edx, DWORD PTR _x$[ebp]
	push	edx
	mov	eax, DWORD PTR _this$[ebp]
	mov	ecx, DWORD PTR [eax+4]
	mov	edx, DWORD PTR _station$[ebp]
	mov	eax, DWORD PTR [ecx+edx*4]
	mov	ecx, DWORD PTR _this$[ebp]
	mov	edx, DWORD PTR [ecx+4]
	mov	ecx, DWORD PTR _station$[ebp]
	mov	eax, DWORD PTR [eax]
	mov	ecx, DWORD PTR [edx+ecx*4]
	mov	edx, DWORD PTR [eax+16]
	call	edx

; 3471 : 
; 3472 : 		if( ((AircraftClass *)ownship)->IsF16() && (station == 1 || station ==9) )

	mov	eax, DWORD PTR _this$[ebp]
	mov	ecx, DWORD PTR [eax+56]
	call	?IsF16@AircraftClass@@QAEHXZ		; AircraftClass::IsF16
	test	eax, eax
	je	SHORT $LN22@AddStore
	cmp	DWORD PTR _station$[ebp], 1
	je	SHORT $LN21@AddStore
	cmp	DWORD PTR _station$[ebp], 9
	jne	SHORT $LN22@AddStore
$LN21@AddStore:

; 3473 : 			((AircraftClass *)ownship)->af->AddWeapon(	WeaponDataTable[storeId].Weight, 0.0F, y);

	push	ecx
	movss	xmm0, DWORD PTR _y$[ebp]
	movss	DWORD PTR [esp], xmm0
	push	ecx
	movss	xmm0, DWORD PTR __real@00000000
	movss	DWORD PTR [esp], xmm0
	mov	ecx, DWORD PTR _storeId$[ebp]
	imul	ecx, 60					; 0000003cH
	mov	edx, DWORD PTR ?WeaponDataTable@@3PAUWeaponClassDataType@@A ; WeaponDataTable
	movzx	eax, WORD PTR [edx+ecx+48]
	cvtsi2ss xmm0, eax
	push	ecx
	movss	DWORD PTR [esp], xmm0
	mov	ecx, DWORD PTR _this$[ebp]
	mov	edx, DWORD PTR [ecx+56]
	mov	ecx, DWORD PTR [edx+932]
	call	?AddWeapon@AirframeClass@@QAEXMMM@Z	; AirframeClass::AddWeapon
	jmp	$LN18@AddStore
$LN22@AddStore:

; 3474 : 		else if(visible)

	cmp	DWORD PTR _visible$[ebp], 0
	je	SHORT $LN19@AddStore

; 3475 : 			((AircraftClass *)ownship)->af->AddWeapon(	WeaponDataTable[storeId].Weight, 
; 3476 : 			WeaponDataTable[storeId].DragIndex,
; 3477 : 			y);

	push	ecx
	movss	xmm0, DWORD PTR _y$[ebp]
	movss	DWORD PTR [esp], xmm0
	mov	eax, DWORD PTR _storeId$[ebp]
	imul	eax, 60					; 0000003cH
	mov	ecx, DWORD PTR ?WeaponDataTable@@3PAUWeaponClassDataType@@A ; WeaponDataTable
	movsx	edx, WORD PTR [ecx+eax+50]
	cvtsi2ss xmm0, edx
	push	ecx
	movss	DWORD PTR [esp], xmm0
	mov	eax, DWORD PTR _storeId$[ebp]
	imul	eax, 60					; 0000003cH
	mov	ecx, DWORD PTR ?WeaponDataTable@@3PAUWeaponClassDataType@@A ; WeaponDataTable
	movzx	edx, WORD PTR [ecx+eax+48]
	cvtsi2ss xmm0, edx
	push	ecx
	movss	DWORD PTR [esp], xmm0
	mov	eax, DWORD PTR _this$[ebp]
	mov	ecx, DWORD PTR [eax+56]
	mov	ecx, DWORD PTR [ecx+932]
	call	?AddWeapon@AirframeClass@@QAEXMMM@Z	; AirframeClass::AddWeapon

; 3478 : 		else

	jmp	SHORT $LN18@AddStore
$LN19@AddStore:

; 3479 : 			((AircraftClass *)ownship)->af->AddWeapon(	WeaponDataTable[storeId].Weight, 0.0F, 0.0F);

	push	ecx
	movss	xmm0, DWORD PTR __real@00000000
	movss	DWORD PTR [esp], xmm0
	push	ecx
	movss	xmm0, DWORD PTR __real@00000000
	movss	DWORD PTR [esp], xmm0
	mov	edx, DWORD PTR _storeId$[ebp]
	imul	edx, 60					; 0000003cH
	mov	eax, DWORD PTR ?WeaponDataTable@@3PAUWeaponClassDataType@@A ; WeaponDataTable
	movzx	ecx, WORD PTR [eax+edx+48]
	cvtsi2ss xmm0, ecx
	push	ecx
	movss	DWORD PTR [esp], xmm0
	mov	edx, DWORD PTR _this$[ebp]
	mov	eax, DWORD PTR [edx+56]
	mov	ecx, DWORD PTR [eax+932]
	call	?AddWeapon@AirframeClass@@QAEXMMM@Z	; AirframeClass::AddWeapon
$LN18@AddStore:

; 3480 : 
; 3481 : 		if( gLimiterMgr->HasLimiter(CatIIICommandType, ((AircraftClass *)ownship)->af->VehicleIndex()) )

	mov	ecx, DWORD PTR _this$[ebp]
	mov	edx, DWORD PTR [ecx+56]
	mov	ecx, DWORD PTR [edx+932]
	call	?VehicleIndex@AirframeClass@@QAEHXZ	; AirframeClass::VehicleIndex
	push	eax
	push	5
	mov	ecx, DWORD PTR ?gLimiterMgr@@3PAVLimiterMgrClass@@A ; gLimiterMgr
	call	?HasLimiter@LimiterMgrClass@@QAEHHH@Z	; LimiterMgrClass::HasLimiter
	test	eax, eax
	je	$LN1@AddStore

; 3482 : 		{
; 3483 : 			if(	hardPoint[station]->GetWeaponClass() == wcRocketWpn		||
; 3484 : 				hardPoint[station]->GetWeaponClass() == wcBombWpn		||
; 3485 : 				hardPoint[station]->GetWeaponClass() == wcTank			||
; 3486 : 				hardPoint[station]->GetWeaponClass() == wcAgmWpn		||
; 3487 : 				hardPoint[station]->GetWeaponClass() == wcHARMWpn		||
; 3488 : 				hardPoint[station]->GetWeaponClass() == wcSamWpn		||
; 3489 : 				hardPoint[station]->GetWeaponClass() == wcGbuWpn )

	mov	eax, DWORD PTR _this$[ebp]
	mov	ecx, DWORD PTR [eax+4]
	mov	edx, DWORD PTR _station$[ebp]
	mov	eax, DWORD PTR [ecx+edx*4]
	mov	ecx, DWORD PTR _this$[ebp]
	mov	edx, DWORD PTR [ecx+4]
	mov	ecx, DWORD PTR _station$[ebp]
	mov	eax, DWORD PTR [eax]
	mov	ecx, DWORD PTR [edx+ecx*4]
	mov	edx, DWORD PTR [eax+164]
	call	edx
	cmp	eax, 1
	je	$LN15@AddStore
	mov	eax, DWORD PTR _this$[ebp]
	mov	ecx, DWORD PTR [eax+4]
	mov	edx, DWORD PTR _station$[ebp]
	mov	eax, DWORD PTR [ecx+edx*4]
	mov	ecx, DWORD PTR _this$[ebp]
	mov	edx, DWORD PTR [ecx+4]
	mov	ecx, DWORD PTR _station$[ebp]
	mov	eax, DWORD PTR [eax]
	mov	ecx, DWORD PTR [edx+ecx*4]
	mov	edx, DWORD PTR [eax+164]
	call	edx
	cmp	eax, 2
	je	$LN15@AddStore
	mov	eax, DWORD PTR _this$[ebp]
	mov	ecx, DWORD PTR [eax+4]
	mov	edx, DWORD PTR _station$[ebp]
	mov	eax, DWORD PTR [ecx+edx*4]
	mov	ecx, DWORD PTR _this$[ebp]
	mov	edx, DWORD PTR [ecx+4]
	mov	ecx, DWORD PTR _station$[ebp]
	mov	eax, DWORD PTR [eax]
	mov	ecx, DWORD PTR [edx+ecx*4]
	mov	edx, DWORD PTR [eax+164]
	call	edx
	cmp	eax, 5
	je	$LN15@AddStore
	mov	eax, DWORD PTR _this$[ebp]
	mov	ecx, DWORD PTR [eax+4]
	mov	edx, DWORD PTR _station$[ebp]
	mov	eax, DWORD PTR [ecx+edx*4]
	mov	ecx, DWORD PTR _this$[ebp]
	mov	edx, DWORD PTR [ecx+4]
	mov	ecx, DWORD PTR _station$[ebp]
	mov	eax, DWORD PTR [eax]
	mov	ecx, DWORD PTR [edx+ecx*4]
	mov	edx, DWORD PTR [eax+164]
	call	edx
	cmp	eax, 6
	je	SHORT $LN15@AddStore
	mov	eax, DWORD PTR _this$[ebp]
	mov	ecx, DWORD PTR [eax+4]
	mov	edx, DWORD PTR _station$[ebp]
	mov	eax, DWORD PTR [ecx+edx*4]
	mov	ecx, DWORD PTR _this$[ebp]
	mov	edx, DWORD PTR [ecx+4]
	mov	ecx, DWORD PTR _station$[ebp]
	mov	eax, DWORD PTR [eax]
	mov	ecx, DWORD PTR [edx+ecx*4]
	mov	edx, DWORD PTR [eax+164]
	call	edx
	cmp	eax, 7
	je	SHORT $LN15@AddStore
	mov	eax, DWORD PTR _this$[ebp]
	mov	ecx, DWORD PTR [eax+4]
	mov	edx, DWORD PTR _station$[ebp]
	mov	eax, DWORD PTR [ecx+edx*4]
	mov	ecx, DWORD PTR _this$[ebp]
	mov	edx, DWORD PTR [ecx+4]
	mov	ecx, DWORD PTR _station$[ebp]
	mov	eax, DWORD PTR [eax]
	mov	ecx, DWORD PTR [edx+ecx*4]
	mov	edx, DWORD PTR [eax+164]
	call	edx
	cmp	eax, 8
	je	SHORT $LN15@AddStore
	mov	eax, DWORD PTR _this$[ebp]
	mov	ecx, DWORD PTR [eax+4]
	mov	edx, DWORD PTR _station$[ebp]
	mov	eax, DWORD PTR [ecx+edx*4]
	mov	ecx, DWORD PTR _this$[ebp]
	mov	edx, DWORD PTR [ecx+4]
	mov	ecx, DWORD PTR _station$[ebp]
	mov	eax, DWORD PTR [eax]
	mov	ecx, DWORD PTR [edx+ecx*4]
	mov	edx, DWORD PTR [eax+164]
	call	edx
	cmp	eax, 9
	jne	$LN1@AddStore
$LN15@AddStore:

; 3490 : 			{
; 3491 : 
; 3492 : 				// OW CATIII Fix 
; 3493 : 				//if(!g_bEnableCATIIIExtension)	MI
; 3494 : 				if(!g_bRealisticAvionics)

	movzx	eax, BYTE PTR ?g_bRealisticAvionics@@3_NA ; g_bRealisticAvionics
	test	eax, eax
	jne	$LN14@AddStore

; 3495 : 				{
; 3496 : 					((AircraftClass *)ownship)->af->SetFlag(AirframeClass::CATLimiterIII);

	push	2097152					; 00200000H
	mov	ecx, DWORD PTR _this$[ebp]
	mov	edx, DWORD PTR [ecx+56]
	mov	ecx, DWORD PTR [edx+932]
	call	?SetFlag@AirframeClass@@QAEXH@Z		; AirframeClass::SetFlag

; 3497 : 					if(hardPoint[station]->GetWeaponClass() == wcTank)

	mov	eax, DWORD PTR _this$[ebp]
	mov	ecx, DWORD PTR [eax+4]
	mov	edx, DWORD PTR _station$[ebp]
	mov	eax, DWORD PTR [ecx+edx*4]
	mov	ecx, DWORD PTR _this$[ebp]
	mov	edx, DWORD PTR [ecx+4]
	mov	ecx, DWORD PTR _station$[ebp]
	mov	eax, DWORD PTR [eax]
	mov	ecx, DWORD PTR [edx+ecx*4]
	mov	edx, DWORD PTR [eax+164]
	call	edx
	cmp	eax, 5
	jne	SHORT $LN13@AddStore

; 3498 : 					{
; 3499 : 						if(((AircraftClass *)ownship)->af->curMaxGs > 7.5F)

	mov	eax, DWORD PTR _this$[ebp]
	mov	ecx, DWORD PTR [eax+56]
	mov	edx, DWORD PTR [ecx+932]
	movss	xmm0, DWORD PTR [edx+1244]
	comiss	xmm0, DWORD PTR __real@40f00000
	jbe	SHORT $LN12@AddStore

; 3500 : 							((AircraftClass *)ownship)->af->curMaxGs = 7.5F;

	mov	eax, DWORD PTR _this$[ebp]
	mov	ecx, DWORD PTR [eax+56]
	mov	edx, DWORD PTR [ecx+932]
	movss	xmm0, DWORD PTR __real@40f00000
	movss	DWORD PTR [edx+1244], xmm0
$LN12@AddStore:

; 3501 : 					}
; 3502 : 					else

	jmp	SHORT $LN10@AddStore
$LN13@AddStore:

; 3503 : 					{
; 3504 : 						if(((AircraftClass *)ownship)->af->curMaxGs > 6.0F)

	mov	eax, DWORD PTR _this$[ebp]
	mov	ecx, DWORD PTR [eax+56]
	mov	edx, DWORD PTR [ecx+932]
	movss	xmm0, DWORD PTR [edx+1244]
	comiss	xmm0, DWORD PTR __real@40c00000
	jbe	SHORT $LN10@AddStore

; 3505 : 							((AircraftClass *)ownship)->af->curMaxGs = 6.0F;

	mov	eax, DWORD PTR _this$[ebp]
	mov	ecx, DWORD PTR [eax+56]
	mov	edx, DWORD PTR [ecx+932]
	movss	xmm0, DWORD PTR __real@40c00000
	movss	DWORD PTR [edx+1244], xmm0
$LN10@AddStore:

; 3506 : 					}
; 3507 : 				}
; 3508 : 
; 3509 : 				else

	jmp	$LN1@AddStore
$LN14@AddStore:

; 3510 : 				{
; 3511 : 					if (((AircraftClass *)ownship)->af->IsSet(AirframeClass::IsDigital))//me123 let's only set the cat switch for ai

	push	1
	mov	eax, DWORD PTR _this$[ebp]
	mov	ecx, DWORD PTR [eax+56]
	mov	ecx, DWORD PTR [ecx+932]
	call	?IsSet@AirframeClass@@QBEHH@Z		; AirframeClass::IsSet
	test	eax, eax
	je	SHORT $LN8@AddStore

; 3512 : 						((AircraftClass *)ownship)->af->SetFlag(AirframeClass::CATLimiterIII);

	push	2097152					; 00200000H
	mov	edx, DWORD PTR _this$[ebp]
	mov	eax, DWORD PTR [edx+56]
	mov	ecx, DWORD PTR [eax+932]
	call	?SetFlag@AirframeClass@@QAEXH@Z		; AirframeClass::SetFlag
$LN8@AddStore:

; 3513 : 
; 3514 : 					if(hardPoint[station]->GetWeaponClass() == wcTank)

	mov	ecx, DWORD PTR _this$[ebp]
	mov	edx, DWORD PTR [ecx+4]
	mov	eax, DWORD PTR _station$[ebp]
	mov	ecx, DWORD PTR [edx+eax*4]
	mov	edx, DWORD PTR _this$[ebp]
	mov	eax, DWORD PTR [edx+4]
	mov	edx, DWORD PTR _station$[ebp]
	mov	esi, DWORD PTR [ecx]
	mov	ecx, DWORD PTR [eax+edx*4]
	mov	eax, DWORD PTR [esi+164]
	call	eax
	cmp	eax, 5
	jne	$LN7@AddStore

; 3515 : 					{
; 3516 : 						// MD -- 20040531: quick fix for JPO...if there's no fuel on the centerline, don't
; 3517 : 						// set the limiter
; 3518 : 						if ((station == numHardpoints /2) &&  (((AircraftClass *)ownship)->af->m_tanks[AirframeClass::TANK_CLINE] > 0.0F))

	mov	ecx, DWORD PTR _this$[ebp]
	mov	eax, DWORD PTR [ecx+40]
	cdq
	sub	eax, edx
	sar	eax, 1
	cmp	DWORD PTR _station$[ebp], eax
	jne	$LN6@AddStore
	mov	edx, DWORD PTR _this$[ebp]
	mov	eax, DWORD PTR [edx+56]
	mov	ecx, DWORD PTR [eax+932]
	mov	edx, 4
	shl	edx, 3
	movss	xmm0, DWORD PTR [ecx+edx+1688]
	comiss	xmm0, DWORD PTR __real@00000000
	jbe	SHORT $LN6@AddStore

; 3519 : 						//if ((station == 5) &&  (((AircraftClass *)ownship)->af->m_tanks[AirframeClass::TANK_CLINE] > 0.0F))
; 3520 : 						//if (station == 5) // centerline tank
; 3521 : 						//if (station == numHardpoints /2) // centerline tank
; 3522 : 						{
; 3523 : 							if(((AircraftClass *)ownship)->af->curMaxGs > 7.0F)//me123 from 7.5

	mov	eax, DWORD PTR _this$[ebp]
	mov	ecx, DWORD PTR [eax+56]
	mov	edx, DWORD PTR [ecx+932]
	movss	xmm0, DWORD PTR [edx+1244]
	comiss	xmm0, DWORD PTR __real@40e00000
	jbe	SHORT $LN5@AddStore

; 3524 : 							{
; 3525 : 								((AircraftClass *)ownship)->af->curMaxGs = 7.0F;//me123 from 7.5

	mov	eax, DWORD PTR _this$[ebp]
	mov	ecx, DWORD PTR [eax+56]
	mov	edx, DWORD PTR [ecx+932]
	movss	xmm0, DWORD PTR __real@40e00000
	movss	DWORD PTR [edx+1244], xmm0

; 3526 : 								((AircraftClass *)ownship)->af->curMaxStoreSpeed = 600.0f;//me123

	mov	eax, DWORD PTR _this$[ebp]
	mov	ecx, DWORD PTR [eax+56]
	mov	edx, DWORD PTR [ecx+932]
	movss	xmm0, DWORD PTR __real@44160000
	movss	DWORD PTR [edx+1612], xmm0

; 3527 : 								((AircraftClass *)ownship)->af->ClearFlag(AirframeClass::CATLimiterIII);

	push	2097152					; 00200000H
	mov	eax, DWORD PTR _this$[ebp]
	mov	ecx, DWORD PTR [eax+56]
	mov	ecx, DWORD PTR [ecx+932]
	call	?ClearFlag@AirframeClass@@QAEXH@Z	; AirframeClass::ClearFlag
$LN5@AddStore:

; 3528 : 							}
; 3529 : 						}
; 3530 : 						else // dollys

	jmp	SHORT $LN3@AddStore
$LN6@AddStore:

; 3531 : 						{
; 3532 : 							if(((AircraftClass *)ownship)->af->curMaxGs > 6.5F) 

	mov	edx, DWORD PTR _this$[ebp]
	mov	eax, DWORD PTR [edx+56]
	mov	ecx, DWORD PTR [eax+932]
	movss	xmm0, DWORD PTR [ecx+1244]
	comiss	xmm0, DWORD PTR __real@40d00000
	jbe	SHORT $LN3@AddStore

; 3533 : 							{
; 3534 : 								((AircraftClass *)ownship)->af->curMaxGs = 6.5F; 

	mov	edx, DWORD PTR _this$[ebp]
	mov	eax, DWORD PTR [edx+56]
	mov	ecx, DWORD PTR [eax+932]
	movss	xmm0, DWORD PTR __real@40d00000
	movss	DWORD PTR [ecx+1244], xmm0

; 3535 : 								((AircraftClass *)ownship)->af->curMaxStoreSpeed = 600.0f;//me123

	mov	edx, DWORD PTR _this$[ebp]
	mov	eax, DWORD PTR [edx+56]
	mov	ecx, DWORD PTR [eax+932]
	movss	xmm0, DWORD PTR __real@44160000
	movss	DWORD PTR [ecx+1612], xmm0

; 3536 : 								((AircraftClass *)ownship)->af->SetFlag(AirframeClass::CATLimiterIII);

	push	2097152					; 00200000H
	mov	edx, DWORD PTR _this$[ebp]
	mov	eax, DWORD PTR [edx+56]
	mov	ecx, DWORD PTR [eax+932]
	call	?SetFlag@AirframeClass@@QAEXH@Z		; AirframeClass::SetFlag
$LN3@AddStore:

; 3537 : 							}
; 3538 : 						}
; 3539 : 					}
; 3540 : 					else

	jmp	SHORT $LN1@AddStore
$LN7@AddStore:

; 3541 : 					{
; 3542 : 						if(((AircraftClass *)ownship)->af->curMaxGs > 5.5F)//me123 from 6.0

	mov	ecx, DWORD PTR _this$[ebp]
	mov	edx, DWORD PTR [ecx+56]
	mov	eax, DWORD PTR [edx+932]
	movss	xmm0, DWORD PTR [eax+1244]
	comiss	xmm0, DWORD PTR __real@40b00000
	jbe	SHORT $LN1@AddStore

; 3543 : 						{
; 3544 : 							((AircraftClass *)ownship)->af->curMaxGs = 5.5F;//me123 from 6.0

	mov	ecx, DWORD PTR _this$[ebp]
	mov	edx, DWORD PTR [ecx+56]
	mov	eax, DWORD PTR [edx+932]
	movss	xmm0, DWORD PTR __real@40b00000
	movss	DWORD PTR [eax+1244], xmm0

; 3545 : 							((AircraftClass *)ownship)->af->curMaxStoreSpeed = 550.0f;//me123

	mov	ecx, DWORD PTR _this$[ebp]
	mov	edx, DWORD PTR [ecx+56]
	mov	eax, DWORD PTR [edx+932]
	movss	xmm0, DWORD PTR __real@44098000
	movss	DWORD PTR [eax+1612], xmm0
$LN1@AddStore:

; 3546 : 						}
; 3547 : 					}
; 3548 : 				}
; 3549 : 			}
; 3550 : 		}
; 3551 : 
; 3552 : 	}
; 3553 : }

	pop	esi
	mov	esp, ebp
	pop	ebp
	ret	12					; 0000000cH
?AddStore@SMSClass@@QAEXHHH@Z ENDP			; SMSClass::AddStore
_TEXT	ENDS
; Function compile flags: /Odtp
; File c:\users\zhitao li\documents\visual studio 2012\projects\freefalcon\sim\displays\sms.cpp
_TEXT	SEGMENT
_x$ = -24						; size = 4
_z$ = -20						; size = 4
_playerAC$ = -16					; size = 4
_vc$ = -12						; size = 4
_y$ = -8						; size = 4
_this$ = -4						; size = 4
_station$ = 8						; size = 4
_storeId$ = 12						; size = 4
?RemoveStore@SMSClass@@QAEXHH@Z PROC			; SMSClass::RemoveStore
; _this$ = ecx

; 3667 : {

	push	ebp
	mov	ebp, esp
	sub	esp, 24					; 00000018H
	mov	DWORD PTR _this$[ebp], ecx

; 3668 : 	VehicleClassDataType* vc;
; 3669 : 	float x, y, z;
; 3670 : 	AircraftClass *playerAC = SimDriver.GetPlayerAircraft();

	mov	ecx, OFFSET ?SimDriver@@3VSimulationDriver@@A ; SimDriver
	call	?GetPlayerAircraft@SimulationDriver@@QBEPAVAircraftClass@@XZ ; SimulationDriver::GetPlayerAircraft
	mov	DWORD PTR _playerAC$[ebp], eax

; 3671 : 
; 3672 : 	//ShiAssert(hardPoint[station]->weaponCount > 0);
; 3673 :    if (hardPoint[station]->weaponCount >= 0)

	mov	eax, DWORD PTR _this$[ebp]
	mov	ecx, DWORD PTR [eax+4]
	mov	edx, DWORD PTR _station$[ebp]
	mov	eax, DWORD PTR [ecx+edx*4]
	movsx	ecx, WORD PTR [eax+10]
	test	ecx, ecx
	jl	$LN1@RemoveStor

; 3674 :    {
; 3675 : 	   if(ownship->IsAirplane() && !UnlimitedAmmo())

	mov	edx, DWORD PTR _this$[ebp]
	mov	eax, DWORD PTR [edx+56]
	mov	ecx, DWORD PTR _this$[ebp]
	mov	edx, DWORD PTR [eax]
	mov	ecx, DWORD PTR [ecx+56]
	mov	eax, DWORD PTR [edx+192]
	call	eax
	test	eax, eax
	je	$LN12@RemoveStor
	mov	ecx, DWORD PTR _this$[ebp]
	call	?UnlimitedAmmo@SMSClass@@QAEHXZ		; SMSClass::UnlimitedAmmo
	test	eax, eax
	jne	$LN12@RemoveStor

; 3676 : 	   {
; 3677 : 		   vc = GetVehicleClassData(ownship->Type() - VU_LAST_ENTITY_TYPE);

	mov	ecx, DWORD PTR _this$[ebp]
	mov	ecx, DWORD PTR [ecx+56]
	call	?Type@VuEntity@@QBEGXZ			; VuEntity::Type
	movzx	edx, ax
	sub	edx, 100				; 00000064H
	push	edx
	call	?GetVehicleClassData@@YAPAUVehicleClassDataType@@H@Z ; GetVehicleClassData
	add	esp, 4
	mov	DWORD PTR _vc$[ebp], eax

; 3678 : 		   ShiAssert(((AircraftClass *)ownship)->af );
; 3679 : 		   
; 3680 : 		   hardPoint[station]->GetPosition(&x, &y, &z);

	lea	eax, DWORD PTR _z$[ebp]
	push	eax
	lea	ecx, DWORD PTR _y$[ebp]
	push	ecx
	lea	edx, DWORD PTR _x$[ebp]
	push	edx
	mov	eax, DWORD PTR _this$[ebp]
	mov	ecx, DWORD PTR [eax+4]
	mov	edx, DWORD PTR _station$[ebp]
	mov	eax, DWORD PTR [ecx+edx*4]
	mov	ecx, DWORD PTR _this$[ebp]
	mov	edx, DWORD PTR [ecx+4]
	mov	ecx, DWORD PTR _station$[ebp]
	mov	eax, DWORD PTR [eax]
	mov	ecx, DWORD PTR [edx+ecx*4]
	mov	edx, DWORD PTR [eax+16]
	call	edx

; 3681 : 
; 3682 : 		   if( ((AircraftClass *)ownship)->IsF16() && (station == 2 || station == 8) && storeId == gRackId_Single_Rack)

	mov	eax, DWORD PTR _this$[ebp]
	mov	ecx, DWORD PTR [eax+56]
	call	?IsF16@AircraftClass@@QAEHXZ		; AircraftClass::IsF16
	test	eax, eax
	je	SHORT $LN11@RemoveStor
	cmp	DWORD PTR _station$[ebp], 2
	je	SHORT $LN10@RemoveStor
	cmp	DWORD PTR _station$[ebp], 8
	jne	SHORT $LN11@RemoveStor
$LN10@RemoveStor:
	movsx	ecx, WORD PTR ?gRackId_Single_Rack@@3FA	; gRackId_Single_Rack
	cmp	DWORD PTR _storeId$[ebp], ecx
	jne	SHORT $LN11@RemoveStor

; 3683 : 			   ((AircraftClass *)ownship)->af->RemoveWeapon( WeaponDataTable[storeId].Weight - 283.0F, WeaponDataTable[storeId].DragIndex - 11.0F, y);

	push	ecx
	movss	xmm0, DWORD PTR _y$[ebp]
	movss	DWORD PTR [esp], xmm0
	mov	edx, DWORD PTR _storeId$[ebp]
	imul	edx, 60					; 0000003cH
	mov	eax, DWORD PTR ?WeaponDataTable@@3PAUWeaponClassDataType@@A ; WeaponDataTable
	movsx	ecx, WORD PTR [eax+edx+50]
	cvtsi2ss xmm0, ecx
	subss	xmm0, DWORD PTR __real@41300000
	push	ecx
	movss	DWORD PTR [esp], xmm0
	mov	edx, DWORD PTR _storeId$[ebp]
	imul	edx, 60					; 0000003cH
	mov	eax, DWORD PTR ?WeaponDataTable@@3PAUWeaponClassDataType@@A ; WeaponDataTable
	movzx	ecx, WORD PTR [eax+edx+48]
	cvtsi2ss xmm0, ecx
	subss	xmm0, DWORD PTR __real@438d8000
	push	ecx
	movss	DWORD PTR [esp], xmm0
	mov	edx, DWORD PTR _this$[ebp]
	mov	eax, DWORD PTR [edx+56]
	mov	ecx, DWORD PTR [eax+932]
	call	?RemoveWeapon@AirframeClass@@QAEXMMM@Z	; AirframeClass::RemoveWeapon
	jmp	$LN4@RemoveStor
$LN11@RemoveStor:

; 3684 : 		   else if	( ((AircraftClass *)ownship)->IsF16() && (station == 1 || station ==9) )

	mov	ecx, DWORD PTR _this$[ebp]
	mov	ecx, DWORD PTR [ecx+56]
	call	?IsF16@AircraftClass@@QAEHXZ		; AircraftClass::IsF16
	test	eax, eax
	je	SHORT $LN8@RemoveStor
	cmp	DWORD PTR _station$[ebp], 1
	je	SHORT $LN7@RemoveStor
	cmp	DWORD PTR _station$[ebp], 9
	jne	SHORT $LN8@RemoveStor
$LN7@RemoveStor:

; 3685 : 			   ((AircraftClass *)ownship)->af->RemoveWeapon(WeaponDataTable[storeId].Weight, 0.0F, y);

	push	ecx
	movss	xmm0, DWORD PTR _y$[ebp]
	movss	DWORD PTR [esp], xmm0
	push	ecx
	movss	xmm0, DWORD PTR __real@00000000
	movss	DWORD PTR [esp], xmm0
	mov	edx, DWORD PTR _storeId$[ebp]
	imul	edx, 60					; 0000003cH
	mov	eax, DWORD PTR ?WeaponDataTable@@3PAUWeaponClassDataType@@A ; WeaponDataTable
	movzx	ecx, WORD PTR [eax+edx+48]
	cvtsi2ss xmm0, ecx
	push	ecx
	movss	DWORD PTR [esp], xmm0
	mov	edx, DWORD PTR _this$[ebp]
	mov	eax, DWORD PTR [edx+56]
	mov	ecx, DWORD PTR [eax+932]
	call	?RemoveWeapon@AirframeClass@@QAEXMMM@Z	; AirframeClass::RemoveWeapon
	jmp	$LN4@RemoveStor
$LN8@RemoveStor:

; 3686 : 		   else if(vc->VisibleFlags & (1 << station))

	mov	ecx, DWORD PTR _vc$[ebp]
	movzx	edx, WORD PTR [ecx+62]
	mov	eax, 1
	mov	ecx, DWORD PTR _station$[ebp]
	shl	eax, cl
	and	edx, eax
	je	SHORT $LN5@RemoveStor

; 3687 : 			   ((AircraftClass *)ownship)->af->RemoveWeapon(	WeaponDataTable[storeId].Weight, 
; 3688 : 															   WeaponDataTable[storeId].DragIndex, 
; 3689 : 															   y);

	push	ecx
	movss	xmm0, DWORD PTR _y$[ebp]
	movss	DWORD PTR [esp], xmm0
	mov	ecx, DWORD PTR _storeId$[ebp]
	imul	ecx, 60					; 0000003cH
	mov	edx, DWORD PTR ?WeaponDataTable@@3PAUWeaponClassDataType@@A ; WeaponDataTable
	movsx	eax, WORD PTR [edx+ecx+50]
	cvtsi2ss xmm0, eax
	push	ecx
	movss	DWORD PTR [esp], xmm0
	mov	ecx, DWORD PTR _storeId$[ebp]
	imul	ecx, 60					; 0000003cH
	mov	edx, DWORD PTR ?WeaponDataTable@@3PAUWeaponClassDataType@@A ; WeaponDataTable
	movzx	eax, WORD PTR [edx+ecx+48]
	cvtsi2ss xmm0, eax
	push	ecx
	movss	DWORD PTR [esp], xmm0
	mov	ecx, DWORD PTR _this$[ebp]
	mov	edx, DWORD PTR [ecx+56]
	mov	ecx, DWORD PTR [edx+932]
	call	?RemoveWeapon@AirframeClass@@QAEXMMM@Z	; AirframeClass::RemoveWeapon

; 3690 : 		   else

	jmp	SHORT $LN4@RemoveStor
$LN5@RemoveStor:

; 3691 : 			   ((AircraftClass *)ownship)->af->RemoveWeapon(WeaponDataTable[storeId].Weight, 0.0F, 0.0F);

	push	ecx
	movss	xmm0, DWORD PTR __real@00000000
	movss	DWORD PTR [esp], xmm0
	push	ecx
	movss	xmm0, DWORD PTR __real@00000000
	movss	DWORD PTR [esp], xmm0
	mov	eax, DWORD PTR _storeId$[ebp]
	imul	eax, 60					; 0000003cH
	mov	ecx, DWORD PTR ?WeaponDataTable@@3PAUWeaponClassDataType@@A ; WeaponDataTable
	movzx	edx, WORD PTR [ecx+eax+48]
	cvtsi2ss xmm0, edx
	push	ecx
	movss	DWORD PTR [esp], xmm0
	mov	eax, DWORD PTR _this$[ebp]
	mov	ecx, DWORD PTR [eax+56]
	mov	ecx, DWORD PTR [ecx+932]
	call	?RemoveWeapon@AirframeClass@@QAEXMMM@Z	; AirframeClass::RemoveWeapon
$LN4@RemoveStor:

; 3692 : 
; 3693 : 		   ChooseLimiterMode(station);

	mov	edx, DWORD PTR _station$[ebp]
	push	edx
	mov	ecx, DWORD PTR _this$[ebp]
	call	?ChooseLimiterMode@SMSClass@@QAEXH@Z	; SMSClass::ChooseLimiterMode
$LN12@RemoveStor:

; 3694 : 	   }
; 3695 : 
; 3696 :       if (ownship == playerAC)

	mov	eax, DWORD PTR _this$[ebp]
	mov	ecx, DWORD PTR [eax+56]
	cmp	ecx, DWORD PTR _playerAC$[ebp]
	jne	SHORT $LN1@RemoveStor

; 3697 :       {
; 3698 :          if (station < numHardpoints / 2)

	mov	edx, DWORD PTR _this$[ebp]
	mov	eax, DWORD PTR [edx+40]
	cdq
	sub	eax, edx
	sar	eax, 1
	cmp	DWORD PTR _station$[ebp], eax
	jge	SHORT $LN2@RemoveStor

; 3699 :             JoystickPlayEffect (JoyLeftDrop, 0);

	push	0
	push	5
	call	?JoystickPlayEffect@@YAHHH@Z		; JoystickPlayEffect
	add	esp, 8

; 3700 :          else

	jmp	SHORT $LN1@RemoveStor
$LN2@RemoveStor:

; 3701 :             JoystickPlayEffect (JoyRightDrop, 0);

	push	0
	push	6
	call	?JoystickPlayEffect@@YAHHH@Z		; JoystickPlayEffect
	add	esp, 8
$LN1@RemoveStor:

; 3702 :       }
; 3703 :    }
; 3704 : }

	mov	esp, ebp
	pop	ebp
	ret	8
?RemoveStore@SMSClass@@QAEXHH@Z ENDP			; SMSClass::RemoveStore
_TEXT	ENDS
; Function compile flags: /Odtp
; File c:\users\zhitao li\documents\visual studio 2012\projects\freefalcon\sim\displays\sms.cpp
_TEXT	SEGMENT
_harmPod$ = -20						; size = 4
_playerAC$ = -16					; size = 4
tv94 = -12						; size = 4
_this$ = -8						; size = 4
_FCC$ = -4						; size = 4
_newtype$ = 8						; size = 4
_domainDesired$ = 12					; size = 4
?SelectWeapon@SMSClass@@QAEXW4WeaponType@@W4WeaponDomain@@@Z PROC ; SMSClass::SelectWeapon
; _this$ = ecx

; 2651 : {

	push	ebp
	mov	ebp, esp
	sub	esp, 20					; 00000014H
	mov	DWORD PTR _this$[ebp], ecx

; 2652 :     FireControlComputer		*FCC = ownship->GetFCC();

	mov	eax, DWORD PTR _this$[ebp]
	mov	ecx, DWORD PTR [eax+56]
	mov	edx, DWORD PTR _this$[ebp]
	mov	eax, DWORD PTR [ecx]
	mov	ecx, DWORD PTR [edx+56]
	mov	edx, DWORD PTR [eax+460]
	call	edx
	mov	DWORD PTR _FCC$[ebp], eax

; 2653 : 	AircraftClass *playerAC = SimDriver.GetPlayerAircraft();

	mov	ecx, OFFSET ?SimDriver@@3VSimulationDriver@@A ; SimDriver
	call	?GetPlayerAircraft@SimulationDriver@@QBEPAVAircraftClass@@XZ ; SimulationDriver::GetPlayerAircraft
	mov	DWORD PTR _playerAC$[ebp], eax

; 2654 : 	HarmTargetingPod* harmPod = (HarmTargetingPod*) FindSensor (ownship, SensorClass::HTS);

	push	4
	mov	eax, DWORD PTR _this$[ebp]
	mov	ecx, DWORD PTR [eax+56]
	push	ecx
	call	?FindSensor@@YAPAVSensorClass@@PAVSimMoverClass@@H@Z ; FindSensor
	add	esp, 8
	mov	DWORD PTR _harmPod$[ebp], eax

; 2655 :     // Tell the FCC about the new weapon selection
; 2656 :     switch (newtype)

	mov	edx, DWORD PTR _newtype$[ebp]
	mov	DWORD PTR tv94[ebp], edx
	cmp	DWORD PTR tv94[ebp], 11			; 0000000bH
	ja	$LN35@SelectWeap
	mov	eax, DWORD PTR tv94[ebp]
	jmp	DWORD PTR $LN37@SelectWeap[eax*4]
$LN32@SelectWeap:

; 2657 :     {
; 2658 :     case wtNone:
; 2659 : 		FCC->SetMasterMode( FireControlComputer::Nav );

	push	4
	mov	ecx, DWORD PTR _FCC$[ebp]
	call	?SetMasterMode@FireControlComputer@@QAEXW4FCCMasterMode@1@@Z ; FireControlComputer::SetMasterMode

; 2660 : 	break;

	jmp	$LN35@SelectWeap
$LN31@SelectWeap:

; 2661 : 
; 2662 : 	// ASSOCIATOR 3/12/03: Added some checks so that it cycles correctly
; 2663 :     case wtAim9:
; 2664 : 	if( FCC->GetMasterMode() == FireControlComputer::Dogfight ) {	 

	mov	ecx, DWORD PTR _FCC$[ebp]
	call	?GetMasterMode@FireControlComputer@@QAE?AW4FCCMasterMode@1@XZ ; FireControlComputer::GetMasterMode
	cmp	eax, 9
	jne	SHORT $LN30@SelectWeap

; 2665 : 		FCC->SetDgftSubMode(FireControlComputer::Aim9);

	push	5
	mov	ecx, DWORD PTR _FCC$[ebp]
	call	?SetDgftSubMode@FireControlComputer@@QAEXW4FCCSubMode@1@@Z ; FireControlComputer::SetDgftSubMode
	jmp	SHORT $LN29@SelectWeap
$LN30@SelectWeap:

; 2666 : 	}	
; 2667 : 	else if( FCC->GetMasterMode() == FireControlComputer::MissileOverride ) {

	mov	ecx, DWORD PTR _FCC$[ebp]
	call	?GetMasterMode@FireControlComputer@@QAE?AW4FCCMasterMode@1@XZ ; FireControlComputer::GetMasterMode
	cmp	eax, 10					; 0000000aH
	jne	SHORT $LN28@SelectWeap

; 2668 : 		FCC->SetMrmSubMode(FireControlComputer::Aim9);	// ASSOCIATOR 04/12/03: for remembering MRM mode missiles		

	push	5
	mov	ecx, DWORD PTR _FCC$[ebp]
	call	?SetMrmSubMode@FireControlComputer@@QAEXW4FCCSubMode@1@@Z ; FireControlComputer::SetMrmSubMode

; 2669 : 	} 
; 2670 : 	else {

	jmp	SHORT $LN29@SelectWeap
$LN28@SelectWeap:

; 2671 : 		FCC->SetMasterMode( FireControlComputer::Missile );

	push	2
	mov	ecx, DWORD PTR _FCC$[ebp]
	call	?SetMasterMode@FireControlComputer@@QAEXW4FCCMasterMode@1@@Z ; FireControlComputer::SetMasterMode

; 2672 : 		FCC->SetSubMode( FireControlComputer::Aim9 );

	push	5
	mov	ecx, DWORD PTR _FCC$[ebp]
	call	?SetSubMode@FireControlComputer@@QAEXW4FCCSubMode@1@@Z ; FireControlComputer::SetSubMode

; 2673 : 		FCC->lastAirAirSubMode = FireControlComputer::Aim9;

	mov	ecx, DWORD PTR _FCC$[ebp]
	mov	DWORD PTR [ecx+44], 5
$LN29@SelectWeap:

; 2674 : 	}
; 2675 : 	break;

	jmp	$LN35@SelectWeap
$LN26@SelectWeap:

; 2676 : 	
; 2677 : 	// ASSOCIATOR 3/12/03: Added some checks so that it cycles correctly
; 2678 :     case wtAim120:
; 2679 : 	if( FCC->GetMasterMode() == FireControlComputer::Dogfight ) { 

	mov	ecx, DWORD PTR _FCC$[ebp]
	call	?GetMasterMode@FireControlComputer@@QAE?AW4FCCMasterMode@1@XZ ; FireControlComputer::GetMasterMode
	cmp	eax, 9
	jne	SHORT $LN25@SelectWeap

; 2680 : 		FCC->SetDgftSubMode(FireControlComputer::Aim120);

	push	6
	mov	ecx, DWORD PTR _FCC$[ebp]
	call	?SetDgftSubMode@FireControlComputer@@QAEXW4FCCSubMode@1@@Z ; FireControlComputer::SetDgftSubMode
	jmp	SHORT $LN24@SelectWeap
$LN25@SelectWeap:

; 2681 : 	}
; 2682 : 	else if( FCC->GetMasterMode() == FireControlComputer::MissileOverride ) {

	mov	ecx, DWORD PTR _FCC$[ebp]
	call	?GetMasterMode@FireControlComputer@@QAE?AW4FCCMasterMode@1@XZ ; FireControlComputer::GetMasterMode
	cmp	eax, 10					; 0000000aH
	jne	SHORT $LN23@SelectWeap

; 2683 : 		FCC->SetMrmSubMode(FireControlComputer::Aim120);	// ASSOCIATOR 04/12/03: for remembering MRM mode missiles		

	push	6
	mov	ecx, DWORD PTR _FCC$[ebp]
	call	?SetMrmSubMode@FireControlComputer@@QAEXW4FCCSubMode@1@@Z ; FireControlComputer::SetMrmSubMode

; 2684 : 	} 
; 2685 : 	else {

	jmp	SHORT $LN24@SelectWeap
$LN23@SelectWeap:

; 2686 : 		FCC->SetMasterMode( FireControlComputer::Missile );

	push	2
	mov	ecx, DWORD PTR _FCC$[ebp]
	call	?SetMasterMode@FireControlComputer@@QAEXW4FCCMasterMode@1@@Z ; FireControlComputer::SetMasterMode

; 2687 : 		FCC->SetSubMode( FireControlComputer::Aim120 );

	push	6
	mov	ecx, DWORD PTR _FCC$[ebp]
	call	?SetSubMode@FireControlComputer@@QAEXW4FCCSubMode@1@@Z ; FireControlComputer::SetSubMode

; 2688 : 		FCC->lastAirAirSubMode = FireControlComputer::Aim120;

	mov	edx, DWORD PTR _FCC$[ebp]
	mov	DWORD PTR [edx+44], 6
$LN24@SelectWeap:

; 2689 : 	}
; 2690 : 	break;

	jmp	$LN35@SelectWeap
$LN21@SelectWeap:

; 2691 : 	
; 2692 :     case wtGuns:
; 2693 : 	{ 
; 2694 : 		// ASSOCIATOR 04/12/03: In DGFT we are already in Gun mode
; 2695 : 		if( playerAC->FCC->GetMasterMode() == FireControlComputer::Dogfight )

	mov	eax, DWORD PTR _playerAC$[ebp]
	mov	ecx, DWORD PTR [eax+936]
	call	?GetMasterMode@FireControlComputer@@QAE?AW4FCCMasterMode@1@XZ ; FireControlComputer::GetMasterMode
	cmp	eax, 9
	jne	SHORT $LN20@SelectWeap

; 2696 : 			return;

	jmp	$LN35@SelectWeap
$LN20@SelectWeap:

; 2697 : 
; 2698 : 		if (domainDesired == wdAir) {

	cmp	DWORD PTR _domainDesired$[ebp], 1
	jne	SHORT $LN19@SelectWeap

; 2699 : 			FCC->SetMasterMode( FireControlComputer::AAGun );

	push	0
	mov	ecx, DWORD PTR _FCC$[ebp]
	call	?SetMasterMode@FireControlComputer@@QAEXW4FCCMasterMode@1@@Z ; FireControlComputer::SetMasterMode

; 2700 : 			FCC->SetSubMode( FCC->lastAirAirGunSubMode ); // ASSOCIATOR 3/12/03: changed default EEGS to lastAirAirGunSubMode

	mov	ecx, DWORD PTR _FCC$[ebp]
	mov	edx, DWORD PTR [ecx+52]
	push	edx
	mov	ecx, DWORD PTR _FCC$[ebp]
	call	?SetSubMode@FireControlComputer@@QAEXW4FCCSubMode@1@@Z ; FireControlComputer::SetSubMode

; 2701 : 		} else {

	jmp	SHORT $LN18@SelectWeap
$LN19@SelectWeap:

; 2702 : 			FCC->SetMasterMode( FireControlComputer::AGGun );

	push	1
	mov	ecx, DWORD PTR _FCC$[ebp]
	call	?SetMasterMode@FireControlComputer@@QAEXW4FCCMasterMode@1@@Z ; FireControlComputer::SetMasterMode

; 2703 : 			FCC->SetSubMode( FireControlComputer::STRAF );

	push	12					; 0000000cH
	mov	ecx, DWORD PTR _FCC$[ebp]
	call	?SetSubMode@FireControlComputer@@QAEXW4FCCSubMode@1@@Z ; FireControlComputer::SetSubMode
$LN18@SelectWeap:

; 2704 : 		}
; 2705 : 	}
; 2706 : 	break;

	jmp	$LN35@SelectWeap
$LN17@SelectWeap:

; 2707 : 	
; 2708 :     case wtAgm88:
; 2709 :     	// RV - I-Hawk - Submode will be set in HARM display classes...
; 2710 : 		FCC->SetMasterMode( FireControlComputer::AirGroundHARM );

	push	7
	mov	ecx, DWORD PTR _FCC$[ebp]
	call	?SetMasterMode@FireControlComputer@@QAEXW4FCCMasterMode@1@@Z ; FireControlComputer::SetMasterMode

; 2711 : 		break;

	jmp	$LN35@SelectWeap
$LN16@SelectWeap:

; 2712 : 	
; 2713 :     case wtAgm65:
; 2714 : 	FCC->SetMasterMode( FireControlComputer::AirGroundMissile );

	push	6
	mov	ecx, DWORD PTR _FCC$[ebp]
	call	?SetMasterMode@FireControlComputer@@QAEXW4FCCMasterMode@1@@Z ; FireControlComputer::SetMasterMode

; 2715 : 	//MI done elsewhere
; 2716 : 	if(!g_bRealisticAvionics)

	movzx	eax, BYTE PTR ?g_bRealisticAvionics@@3_NA ; g_bRealisticAvionics
	test	eax, eax
	jne	SHORT $LN15@SelectWeap

; 2717 : 	{
; 2718 : 		// M.N. no ATRealisticAV check needed here as in AtRealisticAV mode: g_bRealisticAvionics == TRUE
; 2719 : 		if (PlayerOptions.GetAvionicsType() == ATRealistic)

	mov	ecx, OFFSET ?PlayerOptions@@3VPlayerOptionsClass@@A ; PlayerOptions
	call	?GetAvionicsType@PlayerOptionsClass@@QAEHXZ ; PlayerOptionsClass::GetAvionicsType
	cmp	eax, 2
	jne	SHORT $LN14@SelectWeap

; 2720 : 			FCC->SetSubMode( FireControlComputer::BSGT );

	push	14					; 0000000eH
	mov	ecx, DWORD PTR _FCC$[ebp]
	call	?SetSubMode@FireControlComputer@@QAEXW4FCCSubMode@1@@Z ; FireControlComputer::SetSubMode

; 2721 : 		else

	jmp	SHORT $LN15@SelectWeap
$LN14@SelectWeap:

; 2722 : 			FCC->SetSubMode( FireControlComputer::SLAVE );

	push	15					; 0000000fH
	mov	ecx, DWORD PTR _FCC$[ebp]
	call	?SetSubMode@FireControlComputer@@QAEXW4FCCSubMode@1@@Z ; FireControlComputer::SetSubMode
$LN15@SelectWeap:

; 2723 : 	}
; 2724 : 	break;

	jmp	$LN35@SelectWeap
$LN12@SelectWeap:

; 2725 : 	case wtMk82:
; 2726 :     case wtMk84:
; 2727 : 	if (FCC->GetMasterMode() != FireControlComputer::AirGroundBomb )// || // MLR 4/3/2004 - 

	mov	ecx, DWORD PTR _FCC$[ebp]
	call	?GetMasterMode@FireControlComputer@@QAE?AW4FCCMasterMode@1@XZ ; FireControlComputer::GetMasterMode
	cmp	eax, 5
	je	SHORT $LN11@SelectWeap

; 2728 : 	    //FCC->GetSubMode() == FireControlComputer::STRAF ||
; 2729 : 	    //FCC->GetSubMode() == FireControlComputer::OBSOLETERCKT)
; 2730 : 	{
; 2731 : 	    FCC->SetMasterMode( FireControlComputer::AirGroundBomb );

	push	5
	mov	ecx, DWORD PTR _FCC$[ebp]
	call	?SetMasterMode@FireControlComputer@@QAEXW4FCCMasterMode@1@@Z ; FireControlComputer::SetMasterMode

; 2732 : 	    FCC->SetSubMode( FireControlComputer::CCRP );//me123 don't go to ccip everytime we select a mk82/84 hmm this might be ai stuff

	push	8
	mov	ecx, DWORD PTR _FCC$[ebp]
	call	?SetSubMode@FireControlComputer@@QAEXW4FCCSubMode@1@@Z ; FireControlComputer::SetSubMode
$LN11@SelectWeap:

; 2733 : 	}
; 2734 : 	break;

	jmp	$LN35@SelectWeap
$LN10@SelectWeap:

; 2735 : 	
; 2736 :     case wtLAU:
; 2737 : //	FCC->SetMasterMode( FireControlComputer::AirGroundBomb ); // MLR 4/3/2004 - 
; 2738 : //	FCC->SetSubMode( FireControlComputer::OBSOLETERCKT );
; 2739 : 	FCC->SetMasterMode( FireControlComputer::AirGroundRocket ); // MLR 4/3/2004 - 

	push	13					; 0000000dH
	mov	ecx, DWORD PTR _FCC$[ebp]
	call	?SetMasterMode@FireControlComputer@@QAEXW4FCCMasterMode@1@@Z ; FireControlComputer::SetMasterMode

; 2740 : 	break;

	jmp	$LN35@SelectWeap
$LN9@SelectWeap:

; 2741 : 	
; 2742 :     case wtGBU:
; 2743 : 	FCC->SetMasterMode( FireControlComputer::AirGroundLaser );

	push	8
	mov	ecx, DWORD PTR _FCC$[ebp]
	call	?SetMasterMode@FireControlComputer@@QAEXW4FCCMasterMode@1@@Z ; FireControlComputer::SetMasterMode

; 2744 : 	//MI in realistic we start in slave
; 2745 : 	if(!g_bRealisticAvionics)

	movzx	ecx, BYTE PTR ?g_bRealisticAvionics@@3_NA ; g_bRealisticAvionics
	test	ecx, ecx
	jne	SHORT $LN8@SelectWeap

; 2746 : 	{
; 2747 : 		if (PlayerOptions.GetAvionicsType() == ATRealistic)

	mov	ecx, OFFSET ?PlayerOptions@@3VPlayerOptionsClass@@A ; PlayerOptions
	call	?GetAvionicsType@PlayerOptionsClass@@QAEHXZ ; PlayerOptionsClass::GetAvionicsType
	cmp	eax, 2
	jne	SHORT $LN7@SelectWeap

; 2748 : 			FCC->SetSubMode( FireControlComputer::BSGT );

	push	14					; 0000000eH
	mov	ecx, DWORD PTR _FCC$[ebp]
	call	?SetSubMode@FireControlComputer@@QAEXW4FCCSubMode@1@@Z ; FireControlComputer::SetSubMode

; 2749 : 		else

	jmp	SHORT $LN6@SelectWeap
$LN7@SelectWeap:

; 2750 : 			FCC->SetSubMode( FireControlComputer::SLAVE );

	push	15					; 0000000fH
	mov	ecx, DWORD PTR _FCC$[ebp]
	call	?SetSubMode@FireControlComputer@@QAEXW4FCCSubMode@1@@Z ; FireControlComputer::SetSubMode
$LN6@SelectWeap:

; 2751 : 	}
; 2752 : 	else

	jmp	SHORT $LN5@SelectWeap
$LN8@SelectWeap:

; 2753 : 	{
; 2754 : 		// M.N. added full realism mode
; 2755 : 		if (PlayerOptions.GetAvionicsType() != ATRealistic && PlayerOptions.GetAvionicsType() != ATRealisticAV)

	mov	ecx, OFFSET ?PlayerOptions@@3VPlayerOptionsClass@@A ; PlayerOptions
	call	?GetAvionicsType@PlayerOptionsClass@@QAEHXZ ; PlayerOptionsClass::GetAvionicsType
	cmp	eax, 2
	je	SHORT $LN4@SelectWeap
	mov	ecx, OFFSET ?PlayerOptions@@3VPlayerOptionsClass@@A ; PlayerOptions
	call	?GetAvionicsType@PlayerOptionsClass@@QAEHXZ ; PlayerOptionsClass::GetAvionicsType
	cmp	eax, 3
	je	SHORT $LN4@SelectWeap

; 2756 : 			FCC->SetSubMode( FireControlComputer::BSGT );

	push	14					; 0000000eH
	mov	ecx, DWORD PTR _FCC$[ebp]
	call	?SetSubMode@FireControlComputer@@QAEXW4FCCSubMode@1@@Z ; FireControlComputer::SetSubMode

; 2757 : 		else

	jmp	SHORT $LN5@SelectWeap
$LN4@SelectWeap:

; 2758 : 			FCC->SetSubMode( FireControlComputer::SLAVE );

	push	15					; 0000000fH
	mov	ecx, DWORD PTR _FCC$[ebp]
	call	?SetSubMode@FireControlComputer@@QAEXW4FCCSubMode@1@@Z ; FireControlComputer::SetSubMode
$LN5@SelectWeap:

; 2759 : 	}
; 2760 : 	break;

	jmp	SHORT $LN35@SelectWeap
$LN2@SelectWeap:

; 2761 : 	
; 2762 :     case wtFixed:
; 2763 :         if (hardPoint[curHardpoint]->GetWeaponClass() == wcCamera)

	mov	edx, DWORD PTR _this$[ebp]
	mov	eax, DWORD PTR [edx+44]
	mov	ecx, DWORD PTR _this$[ebp]
	mov	edx, DWORD PTR [ecx+4]
	mov	eax, DWORD PTR [edx+eax*4]
	mov	ecx, DWORD PTR _this$[ebp]
	mov	edx, DWORD PTR [ecx+44]
	mov	ecx, DWORD PTR _this$[ebp]
	mov	ecx, DWORD PTR [ecx+4]
	mov	eax, DWORD PTR [eax]
	mov	ecx, DWORD PTR [ecx+edx*4]
	mov	edx, DWORD PTR [eax+164]
	call	edx
	cmp	eax, 10					; 0000000aH
	jne	SHORT $LN35@SelectWeap

; 2764 :         {
; 2765 : 	    FCC->SetMasterMode( FireControlComputer::AirGroundCamera );

	push	11					; 0000000bH
	mov	ecx, DWORD PTR _FCC$[ebp]
	call	?SetMasterMode@FireControlComputer@@QAEXW4FCCMasterMode@1@@Z ; FireControlComputer::SetMasterMode
$LN35@SelectWeap:

; 2766 :         }
; 2767 : 	break;
; 2768 :     }
; 2769 :     
; 2770 : }

	mov	esp, ebp
	pop	ebp
	ret	8
	npad	2
$LN37@SelectWeap:
	DD	$LN21@SelectWeap
	DD	$LN31@SelectWeap
	DD	$LN26@SelectWeap
	DD	$LN17@SelectWeap
	DD	$LN16@SelectWeap
	DD	$LN12@SelectWeap
	DD	$LN12@SelectWeap
	DD	$LN9@SelectWeap
	DD	$LN35@SelectWeap
	DD	$LN10@SelectWeap
	DD	$LN2@SelectWeap
	DD	$LN32@SelectWeap
?SelectWeapon@SMSClass@@QAEXW4WeaponType@@W4WeaponDomain@@@Z ENDP ; SMSClass::SelectWeapon
_TEXT	ENDS
; Function compile flags: /Odtp
; File c:\users\zhitao li\documents\visual studio 2012\projects\freefalcon\sim\displays\sms.cpp
_TEXT	SEGMENT
_FCC$ = -24						; size = 4
_pradar$1 = -20						; size = 4
_newType$ = -16						; size = 4
_i$ = -12						; size = 4
_stationUnderTest$ = -8					; size = 4
_this$ = -4						; size = 4
_domainDesired$ = 8					; size = 4
?GetNextWeapon@SMSClass@@QAE?AW4WeaponType@@W4WeaponDomain@@@Z PROC ; SMSClass::GetNextWeapon
; _this$ = ecx

; 2560 : {

	push	ebp
	mov	ebp, esp
	sub	esp, 24					; 00000018H
	push	esi
	mov	DWORD PTR _this$[ebp], ecx

; 2561 :     WeaponType				newType = curWeaponType;

	mov	eax, DWORD PTR _this$[ebp]
	mov	ecx, DWORD PTR [eax+148]
	mov	DWORD PTR _newType$[ebp], ecx

; 2562 :     FireControlComputer		*FCC = ownship->GetFCC();

	mov	edx, DWORD PTR _this$[ebp]
	mov	eax, DWORD PTR [edx+56]
	mov	ecx, DWORD PTR _this$[ebp]
	mov	edx, DWORD PTR [eax]
	mov	ecx, DWORD PTR [ecx+56]
	mov	eax, DWORD PTR [edx+460]
	call	eax
	mov	DWORD PTR _FCC$[ebp], eax

; 2563 :     int						i=0;

	mov	DWORD PTR _i$[ebp], 0

; 2564 :     int						stationUnderTest=0;

	mov	DWORD PTR _stationUnderTest$[ebp], 0

; 2565 :     
; 2566 :     // Don't do this if we're in the process of firing a weapon
; 2567 :     if (IsSet(Firing)) {

	push	32					; 00000020H
	mov	ecx, DWORD PTR _this$[ebp]
	call	?IsSet@SMSBaseClass@@QAEHH@Z		; SMSBaseClass::IsSet
	test	eax, eax
	je	SHORT $LN12@GetNextWea

; 2568 : 	return curWeaponType;

	mov	ecx, DWORD PTR _this$[ebp]
	mov	eax, DWORD PTR [ecx+148]
	jmp	$LN13@GetNextWea
$LN12@GetNextWea:

; 2569 :     }
; 2570 :     
; 2571 :     // Find the next hardpoint with a weapon of the desired type on it
; 2572 :     for (i=0; i<numHardpoints; i++)

	mov	DWORD PTR _i$[ebp], 0
	jmp	SHORT $LN11@GetNextWea
$LN10@GetNextWea:
	mov	edx, DWORD PTR _i$[ebp]
	add	edx, 1
	mov	DWORD PTR _i$[ebp], edx
$LN11@GetNextWea:
	mov	eax, DWORD PTR _this$[ebp]
	mov	ecx, DWORD PTR _i$[ebp]
	cmp	ecx, DWORD PTR [eax+40]
	jge	$LN9@GetNextWea

; 2573 :     {
; 2574 : 		stationUnderTest = (i + 1 + curHardpoint) % numHardpoints;

	mov	edx, DWORD PTR _this$[ebp]
	mov	eax, DWORD PTR [edx+44]
	mov	ecx, DWORD PTR _i$[ebp]
	lea	eax, DWORD PTR [ecx+eax+1]
	mov	ecx, DWORD PTR _this$[ebp]
	cdq
	idiv	DWORD PTR [ecx+40]
	mov	DWORD PTR _stationUnderTest$[ebp], edx

; 2575 : 		// Marco edit - non-zero weapon check due to problems with weapon cycling
; 2576 : 		if (hardPoint[stationUnderTest] && (hardPoint[stationUnderTest]->GetWeaponData()->domain & domainDesired) && 
; 2577 : 			(hardPoint[stationUnderTest]->weaponCount != 0 || 
; 2578 : 			hardPoint[stationUnderTest]->GetWeaponType() == wtGuns
