; Listing generated by Microsoft (R) Optimizing Compiler Version 17.00.51106.1 

	TITLE	C:\Users\Zhitao Li\Documents\Visual Studio 2012\Projects\Freefalcon\SIM\DISPLAYS\TgpMfd.cpp
	.686P
	.XMM
	include listing.inc
	.model	flat

INCLUDELIB LIBCMT
INCLUDELIB OLDNAMES

PUBLIC	?traps@_Num_base@std@@2_NB			; std::_Num_base::traps
PUBLIC	?round_style@_Num_base@std@@2W4float_round_style@2@B ; std::_Num_base::round_style
PUBLIC	?digits@_Num_base@std@@2HB			; std::_Num_base::digits
PUBLIC	?digits10@_Num_base@std@@2HB			; std::_Num_base::digits10
PUBLIC	?max_digits10@_Num_base@std@@2HB		; std::_Num_base::max_digits10
PUBLIC	?max_exponent@_Num_base@std@@2HB		; std::_Num_base::max_exponent
PUBLIC	?max_exponent10@_Num_base@std@@2HB		; std::_Num_base::max_exponent10
PUBLIC	?min_exponent@_Num_base@std@@2HB		; std::_Num_base::min_exponent
PUBLIC	?min_exponent10@_Num_base@std@@2HB		; std::_Num_base::min_exponent10
PUBLIC	?radix@_Num_base@std@@2HB			; std::_Num_base::radix
PUBLIC	?is_bounded@_Num_int_base@std@@2_NB		; std::_Num_int_base::is_bounded
PUBLIC	?is_exact@_Num_int_base@std@@2_NB		; std::_Num_int_base::is_exact
PUBLIC	?is_integer@_Num_int_base@std@@2_NB		; std::_Num_int_base::is_integer
PUBLIC	?is_modulo@_Num_int_base@std@@2_NB		; std::_Num_int_base::is_modulo
PUBLIC	?is_specialized@_Num_int_base@std@@2_NB		; std::_Num_int_base::is_specialized
PUBLIC	?radix@_Num_int_base@std@@2HB			; std::_Num_int_base::radix
PUBLIC	?has_denorm@_Num_float_base@std@@2W4float_denorm_style@2@B ; std::_Num_float_base::has_denorm
PUBLIC	?has_denorm_loss@_Num_float_base@std@@2_NB	; std::_Num_float_base::has_denorm_loss
PUBLIC	?SIMDIRTYDATA_INTERVAL@FalconEntity@@2KB	; FalconEntity::SIMDIRTYDATA_INTERVAL
PUBLIC	?CMPDIRTYDATA_INTERVAL@FalconEntity@@2KB	; FalconEntity::CMPDIRTYDATA_INTERVAL
PUBLIC	?has_infinity@_Num_float_base@std@@2_NB		; std::_Num_float_base::has_infinity
PUBLIC	?has_quiet_NaN@_Num_float_base@std@@2_NB	; std::_Num_float_base::has_quiet_NaN
PUBLIC	?has_signaling_NaN@_Num_float_base@std@@2_NB	; std::_Num_float_base::has_signaling_NaN
PUBLIC	?is_bounded@_Num_float_base@std@@2_NB		; std::_Num_float_base::is_bounded
PUBLIC	?is_exact@_Num_float_base@std@@2_NB		; std::_Num_float_base::is_exact
PUBLIC	?is_iec559@_Num_float_base@std@@2_NB		; std::_Num_float_base::is_iec559
PUBLIC	?is_integer@_Num_float_base@std@@2_NB		; std::_Num_float_base::is_integer
PUBLIC	?is_modulo@_Num_float_base@std@@2_NB		; std::_Num_float_base::is_modulo
PUBLIC	?is_signed@_Num_float_base@std@@2_NB		; std::_Num_float_base::is_signed
PUBLIC	?is_specialized@_Num_float_base@std@@2_NB	; std::_Num_float_base::is_specialized
PUBLIC	?tinyness_before@_Num_float_base@std@@2_NB	; std::_Num_float_base::tinyness_before
PUBLIC	?traps@_Num_float_base@std@@2_NB		; std::_Num_float_base::traps
PUBLIC	?round_style@_Num_float_base@std@@2W4float_round_style@2@B ; std::_Num_float_base::round_style
PUBLIC	?radix@_Num_float_base@std@@2HB			; std::_Num_float_base::radix
PUBLIC	?is_signed@?$numeric_limits@D@std@@2_NB		; std::numeric_limits<char>::is_signed
PUBLIC	?digits@?$numeric_limits@D@std@@2HB		; std::numeric_limits<char>::digits
PUBLIC	?digits10@?$numeric_limits@D@std@@2HB		; std::numeric_limits<char>::digits10
PUBLIC	?is_signed@?$numeric_limits@_W@std@@2_NB	; std::numeric_limits<wchar_t>::is_signed
PUBLIC	?digits@?$numeric_limits@_W@std@@2HB		; std::numeric_limits<wchar_t>::digits
PUBLIC	?digits10@?$numeric_limits@_W@std@@2HB		; std::numeric_limits<wchar_t>::digits10
PUBLIC	?flash@TgpMfdDrawable@@0HA			; TgpMfdDrawable::flash
PUBLIC	?is_modulo@?$numeric_limits@_N@std@@2_NB	; std::numeric_limits<bool>::is_modulo
PUBLIC	?is_signed@?$numeric_limits@_N@std@@2_NB	; std::numeric_limits<bool>::is_signed
PUBLIC	?digits@?$numeric_limits@_N@std@@2HB		; std::numeric_limits<bool>::digits
PUBLIC	?digits10@?$numeric_limits@_N@std@@2HB		; std::numeric_limits<bool>::digits10
PUBLIC	?is_signed@?$numeric_limits@C@std@@2_NB		; std::numeric_limits<signed char>::is_signed
PUBLIC	?skipws@?$_Iosb@H@std@@2W4_Fmtflags@12@B	; std::_Iosb<int>::skipws
PUBLIC	?digits@?$numeric_limits@C@std@@2HB		; std::numeric_limits<signed char>::digits
PUBLIC	?unitbuf@?$_Iosb@H@std@@2W4_Fmtflags@12@B	; std::_Iosb<int>::unitbuf
PUBLIC	?digits10@?$numeric_limits@C@std@@2HB		; std::numeric_limits<signed char>::digits10
PUBLIC	?uppercase@?$_Iosb@H@std@@2W4_Fmtflags@12@B	; std::_Iosb<int>::uppercase
PUBLIC	?showbase@?$_Iosb@H@std@@2W4_Fmtflags@12@B	; std::_Iosb<int>::showbase
PUBLIC	?showpoint@?$_Iosb@H@std@@2W4_Fmtflags@12@B	; std::_Iosb<int>::showpoint
PUBLIC	?showpos@?$_Iosb@H@std@@2W4_Fmtflags@12@B	; std::_Iosb<int>::showpos
PUBLIC	?left@?$_Iosb@H@std@@2W4_Fmtflags@12@B		; std::_Iosb<int>::left
PUBLIC	?right@?$_Iosb@H@std@@2W4_Fmtflags@12@B		; std::_Iosb<int>::right
PUBLIC	?internal@?$_Iosb@H@std@@2W4_Fmtflags@12@B	; std::_Iosb<int>::internal
PUBLIC	?dec@?$_Iosb@H@std@@2W4_Fmtflags@12@B		; std::_Iosb<int>::dec
PUBLIC	?oct@?$_Iosb@H@std@@2W4_Fmtflags@12@B		; std::_Iosb<int>::oct
PUBLIC	?hex@?$_Iosb@H@std@@2W4_Fmtflags@12@B		; std::_Iosb<int>::hex
PUBLIC	?scientific@?$_Iosb@H@std@@2W4_Fmtflags@12@B	; std::_Iosb<int>::scientific
PUBLIC	?is_signed@?$numeric_limits@E@std@@2_NB		; std::numeric_limits<unsigned char>::is_signed
PUBLIC	?value@?$integral_constant@_N$0A@@std@@2_NB	; std::integral_constant<bool,0>::value
PUBLIC	?fixed@?$_Iosb@H@std@@2W4_Fmtflags@12@B		; std::_Iosb<int>::fixed
PUBLIC	?digits@?$numeric_limits@E@std@@2HB		; std::numeric_limits<unsigned char>::digits
PUBLIC	?digits10@?$numeric_limits@E@std@@2HB		; std::numeric_limits<unsigned char>::digits10
PUBLIC	?hexfloat@?$_Iosb@H@std@@2W4_Fmtflags@12@B	; std::_Iosb<int>::hexfloat
PUBLIC	?boolalpha@?$_Iosb@H@std@@2W4_Fmtflags@12@B	; std::_Iosb<int>::boolalpha
PUBLIC	?_Stdio@?$_Iosb@H@std@@2W4_Fmtflags@12@B	; std::_Iosb<int>::_Stdio
PUBLIC	?adjustfield@?$_Iosb@H@std@@2W4_Fmtflags@12@B	; std::_Iosb<int>::adjustfield
PUBLIC	?value@?$integral_constant@_N$00@std@@2_NB	; std::integral_constant<bool,1>::value
PUBLIC	?basefield@?$_Iosb@H@std@@2W4_Fmtflags@12@B	; std::_Iosb<int>::basefield
PUBLIC	?floatfield@?$_Iosb@H@std@@2W4_Fmtflags@12@B	; std::_Iosb<int>::floatfield
PUBLIC	?goodbit@?$_Iosb@H@std@@2W4_Iostate@12@B	; std::_Iosb<int>::goodbit
PUBLIC	?eofbit@?$_Iosb@H@std@@2W4_Iostate@12@B		; std::_Iosb<int>::eofbit
PUBLIC	?failbit@?$_Iosb@H@std@@2W4_Iostate@12@B	; std::_Iosb<int>::failbit
PUBLIC	?badbit@?$_Iosb@H@std@@2W4_Iostate@12@B		; std::_Iosb<int>::badbit
PUBLIC	?is_signed@?$numeric_limits@F@std@@2_NB		; std::numeric_limits<short>::is_signed
PUBLIC	?_Hardfail@?$_Iosb@H@std@@2W4_Iostate@12@B	; std::_Iosb<int>::_Hardfail
PUBLIC	?digits@?$numeric_limits@F@std@@2HB		; std::numeric_limits<short>::digits
PUBLIC	?in@?$_Iosb@H@std@@2W4_Openmode@12@B		; std::_Iosb<int>::in
PUBLIC	?digits10@?$numeric_limits@F@std@@2HB		; std::numeric_limits<short>::digits10
PUBLIC	?out@?$_Iosb@H@std@@2W4_Openmode@12@B		; std::_Iosb<int>::out
PUBLIC	?ate@?$_Iosb@H@std@@2W4_Openmode@12@B		; std::_Iosb<int>::ate
PUBLIC	?app@?$_Iosb@H@std@@2W4_Openmode@12@B		; std::_Iosb<int>::app
PUBLIC	?trunc@?$_Iosb@H@std@@2W4_Openmode@12@B		; std::_Iosb<int>::trunc
PUBLIC	?_Nocreate@?$_Iosb@H@std@@2W4_Openmode@12@B	; std::_Iosb<int>::_Nocreate
PUBLIC	?_Noreplace@?$_Iosb@H@std@@2W4_Openmode@12@B	; std::_Iosb<int>::_Noreplace
PUBLIC	?binary@?$_Iosb@H@std@@2W4_Openmode@12@B	; std::_Iosb<int>::binary
PUBLIC	?beg@?$_Iosb@H@std@@2W4_Seekdir@12@B		; std::_Iosb<int>::beg
PUBLIC	?cur@?$_Iosb@H@std@@2W4_Seekdir@12@B		; std::_Iosb<int>::cur
PUBLIC	?is_signed@?$numeric_limits@G@std@@2_NB		; std::numeric_limits<unsigned short>::is_signed
PUBLIC	?end@?$_Iosb@H@std@@2W4_Seekdir@12@B		; std::_Iosb<int>::end
PUBLIC	?digits@?$numeric_limits@G@std@@2HB		; std::numeric_limits<unsigned short>::digits
PUBLIC	?digits10@?$numeric_limits@G@std@@2HB		; std::numeric_limits<unsigned short>::digits10
PUBLIC	?_Stream_err@failure@ios_base@std@@0W4io_errc@43@B ; std::ios_base::failure::_Stream_err
PUBLIC	?is_signed@?$numeric_limits@H@std@@2_NB		; std::numeric_limits<int>::is_signed
PUBLIC	?value@?$_Sizeof@HU_Nil@std@@U12@U12@U12@U12@U12@U12@@std@@2IB ; std::_Sizeof<int,std::_Nil,std::_Nil,std::_Nil,std::_Nil,std::_Nil,std::_Nil,std::_Nil>::value
PUBLIC	?digits@?$numeric_limits@H@std@@2HB		; std::numeric_limits<int>::digits
PUBLIC	?digits10@?$numeric_limits@H@std@@2HB		; std::numeric_limits<int>::digits10
PUBLIC	?is_signed@?$numeric_limits@I@std@@2_NB		; std::numeric_limits<unsigned int>::is_signed
PUBLIC	?digits@?$numeric_limits@I@std@@2HB		; std::numeric_limits<unsigned int>::digits
PUBLIC	?digits10@?$numeric_limits@I@std@@2HB		; std::numeric_limits<unsigned int>::digits10
PUBLIC	?is_signed@?$numeric_limits@J@std@@2_NB		; std::numeric_limits<long>::is_signed
PUBLIC	?digits@?$numeric_limits@J@std@@2HB		; std::numeric_limits<long>::digits
PUBLIC	?digits10@?$numeric_limits@J@std@@2HB		; std::numeric_limits<long>::digits10
PUBLIC	?is_signed@?$numeric_limits@K@std@@2_NB		; std::numeric_limits<unsigned long>::is_signed
PUBLIC	?digits@?$numeric_limits@K@std@@2HB		; std::numeric_limits<unsigned long>::digits
PUBLIC	?digits10@?$numeric_limits@K@std@@2HB		; std::numeric_limits<unsigned long>::digits10
PUBLIC	?is_signed@?$numeric_limits@_J@std@@2_NB	; std::numeric_limits<__int64>::is_signed
PUBLIC	?digits@?$numeric_limits@_J@std@@2HB		; std::numeric_limits<__int64>::digits
PUBLIC	?digits10@?$numeric_limits@_J@std@@2HB		; std::numeric_limits<__int64>::digits10
PUBLIC	?is_signed@?$numeric_limits@_K@std@@2_NB	; std::numeric_limits<unsigned __int64>::is_signed
PUBLIC	?digits@?$numeric_limits@_K@std@@2HB		; std::numeric_limits<unsigned __int64>::digits
PUBLIC	?digits10@?$numeric_limits@_K@std@@2HB		; std::numeric_limits<unsigned __int64>::digits10
PUBLIC	?digits@?$numeric_limits@M@std@@2HB		; std::numeric_limits<float>::digits
PUBLIC	?digits10@?$numeric_limits@M@std@@2HB		; std::numeric_limits<float>::digits10
PUBLIC	?max_digits10@?$numeric_limits@M@std@@2HB	; std::numeric_limits<float>::max_digits10
PUBLIC	?max_exponent@?$numeric_limits@M@std@@2HB	; std::numeric_limits<float>::max_exponent
PUBLIC	?max_exponent10@?$numeric_limits@M@std@@2HB	; std::numeric_limits<float>::max_exponent10
PUBLIC	?min_exponent@?$numeric_limits@M@std@@2HB	; std::numeric_limits<float>::min_exponent
PUBLIC	?min_exponent10@?$numeric_limits@M@std@@2HB	; std::numeric_limits<float>::min_exponent10
PUBLIC	?value@?$integral_constant@I$0A@@std@@2IB	; std::integral_constant<unsigned int,0>::value
PUBLIC	?digits@?$numeric_limits@N@std@@2HB		; std::numeric_limits<double>::digits
PUBLIC	?collate@?$_Locbase@H@std@@2HB			; std::_Locbase<int>::collate
PUBLIC	?digits10@?$numeric_limits@N@std@@2HB		; std::numeric_limits<double>::digits10
PUBLIC	?ctype@?$_Locbase@H@std@@2HB			; std::_Locbase<int>::ctype
PUBLIC	?max_digits10@?$numeric_limits@N@std@@2HB	; std::numeric_limits<double>::max_digits10
PUBLIC	?monetary@?$_Locbase@H@std@@2HB			; std::_Locbase<int>::monetary
PUBLIC	?numeric@?$_Locbase@H@std@@2HB			; std::_Locbase<int>::numeric
PUBLIC	?max_exponent@?$numeric_limits@N@std@@2HB	; std::numeric_limits<double>::max_exponent
PUBLIC	?time@?$_Locbase@H@std@@2HB			; std::_Locbase<int>::time
PUBLIC	?messages@?$_Locbase@H@std@@2HB			; std::_Locbase<int>::messages
PUBLIC	?max_exponent10@?$numeric_limits@N@std@@2HB	; std::numeric_limits<double>::max_exponent10
PUBLIC	?all@?$_Locbase@H@std@@2HB			; std::_Locbase<int>::all
PUBLIC	?none@?$_Locbase@H@std@@2HB			; std::_Locbase<int>::none
PUBLIC	?min_exponent@?$numeric_limits@N@std@@2HB	; std::numeric_limits<double>::min_exponent
PUBLIC	?min_exponent10@?$numeric_limits@N@std@@2HB	; std::numeric_limits<double>::min_exponent10
PUBLIC	?digits@?$numeric_limits@O@std@@2HB		; std::numeric_limits<long double>::digits
PUBLIC	?digits10@?$numeric_limits@O@std@@2HB		; std::numeric_limits<long double>::digits10
PUBLIC	?max_digits10@?$numeric_limits@O@std@@2HB	; std::numeric_limits<long double>::max_digits10
PUBLIC	?max_exponent@?$numeric_limits@O@std@@2HB	; std::numeric_limits<long double>::max_exponent
PUBLIC	?max_exponent10@?$numeric_limits@O@std@@2HB	; std::numeric_limits<long double>::max_exponent10
PUBLIC	?min_exponent@?$numeric_limits@O@std@@2HB	; std::numeric_limits<long double>::min_exponent
PUBLIC	?min_exponent10@?$numeric_limits@O@std@@2HB	; std::numeric_limits<long double>::min_exponent10
PUBLIC	?table_size@?$ctype@D@std@@2IB			; std::ctype<char>::table_size
PUBLIC	?value@?$_Sizeof@U_Nil@std@@U12@U12@U12@U12@U12@U12@U12@@std@@2IB ; std::_Sizeof<std::_Nil,std::_Nil,std::_Nil,std::_Nil,std::_Nil,std::_Nil,std::_Nil,std::_Nil>::value
PUBLIC	?has_denorm@_Num_base@std@@2W4float_denorm_style@2@B ; std::_Num_base::has_denorm
PUBLIC	?has_denorm_loss@_Num_base@std@@2_NB		; std::_Num_base::has_denorm_loss
PUBLIC	?has_infinity@_Num_base@std@@2_NB		; std::_Num_base::has_infinity
PUBLIC	?has_quiet_NaN@_Num_base@std@@2_NB		; std::_Num_base::has_quiet_NaN
PUBLIC	?has_signaling_NaN@_Num_base@std@@2_NB		; std::_Num_base::has_signaling_NaN
PUBLIC	?is_bounded@_Num_base@std@@2_NB			; std::_Num_base::is_bounded
PUBLIC	?is_exact@_Num_base@std@@2_NB			; std::_Num_base::is_exact
PUBLIC	?is_iec559@_Num_base@std@@2_NB			; std::_Num_base::is_iec559
PUBLIC	?is_integer@_Num_base@std@@2_NB			; std::_Num_base::is_integer
PUBLIC	?is_modulo@_Num_base@std@@2_NB			; std::_Num_base::is_modulo
PUBLIC	?is_signed@_Num_base@std@@2_NB			; std::_Num_base::is_signed
PUBLIC	?is_specialized@_Num_base@std@@2_NB		; std::_Num_base::is_specialized
PUBLIC	?tinyness_before@_Num_base@std@@2_NB		; std::_Num_base::tinyness_before
_BSS	SEGMENT
?flash@TgpMfdDrawable@@0HA DD 01H DUP (?)		; TgpMfdDrawable::flash
_BSS	ENDS
;	COMDAT ?tinyness_before@_Num_base@std@@2_NB
CONST	SEGMENT
?tinyness_before@_Num_base@std@@2_NB DB 00H		; std::_Num_base::tinyness_before
CONST	ENDS
;	COMDAT ?is_specialized@_Num_base@std@@2_NB
CONST	SEGMENT
?is_specialized@_Num_base@std@@2_NB DB 00H		; std::_Num_base::is_specialized
CONST	ENDS
;	COMDAT ?is_signed@_Num_base@std@@2_NB
CONST	SEGMENT
?is_signed@_Num_base@std@@2_NB DB 00H			; std::_Num_base::is_signed
CONST	ENDS
;	COMDAT ?is_modulo@_Num_base@std@@2_NB
CONST	SEGMENT
?is_modulo@_Num_base@std@@2_NB DB 00H			; std::_Num_base::is_modulo
CONST	ENDS
;	COMDAT ?is_integer@_Num_base@std@@2_NB
CONST	SEGMENT
?is_integer@_Num_base@std@@2_NB DB 00H			; std::_Num_base::is_integer
CONST	ENDS
;	COMDAT ?is_iec559@_Num_base@std@@2_NB
CONST	SEGMENT
?is_iec559@_Num_base@std@@2_NB DB 00H			; std::_Num_base::is_iec559
CONST	ENDS
;	COMDAT ?is_exact@_Num_base@std@@2_NB
CONST	SEGMENT
?is_exact@_Num_base@std@@2_NB DB 00H			; std::_Num_base::is_exact
CONST	ENDS
;	COMDAT ?is_bounded@_Num_base@std@@2_NB
CONST	SEGMENT
?is_bounded@_Num_base@std@@2_NB DB 00H			; std::_Num_base::is_bounded
CONST	ENDS
;	COMDAT ?has_signaling_NaN@_Num_base@std@@2_NB
CONST	SEGMENT
?has_signaling_NaN@_Num_base@std@@2_NB DB 00H		; std::_Num_base::has_signaling_NaN
CONST	ENDS
;	COMDAT ?has_quiet_NaN@_Num_base@std@@2_NB
CONST	SEGMENT
?has_quiet_NaN@_Num_base@std@@2_NB DB 00H		; std::_Num_base::has_quiet_NaN
CONST	ENDS
;	COMDAT ?has_infinity@_Num_base@std@@2_NB
CONST	SEGMENT
?has_infinity@_Num_base@std@@2_NB DB 00H		; std::_Num_base::has_infinity
CONST	ENDS
;	COMDAT ?has_denorm_loss@_Num_base@std@@2_NB
CONST	SEGMENT
?has_denorm_loss@_Num_base@std@@2_NB DB 00H		; std::_Num_base::has_denorm_loss
CONST	ENDS
;	COMDAT ?has_denorm@_Num_base@std@@2W4float_denorm_style@2@B
CONST	SEGMENT
?has_denorm@_Num_base@std@@2W4float_denorm_style@2@B DD 00H ; std::_Num_base::has_denorm
CONST	ENDS
;	COMDAT ?value@?$_Sizeof@U_Nil@std@@U12@U12@U12@U12@U12@U12@U12@@std@@2IB
CONST	SEGMENT
?value@?$_Sizeof@U_Nil@std@@U12@U12@U12@U12@U12@U12@U12@@std@@2IB DD 00H ; std::_Sizeof<std::_Nil,std::_Nil,std::_Nil,std::_Nil,std::_Nil,std::_Nil,std::_Nil,std::_Nil>::value
CONST	ENDS
;	COMDAT ?table_size@?$ctype@D@std@@2IB
CONST	SEGMENT
?table_size@?$ctype@D@std@@2IB DD 0100H			; std::ctype<char>::table_size
CONST	ENDS
;	COMDAT ?min_exponent10@?$numeric_limits@O@std@@2HB
CONST	SEGMENT
?min_exponent10@?$numeric_limits@O@std@@2HB DD 0fffffecdH ; std::numeric_limits<long double>::min_exponent10
CONST	ENDS
;	COMDAT ?min_exponent@?$numeric_limits@O@std@@2HB
CONST	SEGMENT
?min_exponent@?$numeric_limits@O@std@@2HB DD 0fffffc03H	; std::numeric_limits<long double>::min_exponent
CONST	ENDS
;	COMDAT ?max_exponent10@?$numeric_limits@O@std@@2HB
CONST	SEGMENT
?max_exponent10@?$numeric_limits@O@std@@2HB DD 0134H	; std::numeric_limits<long double>::max_exponent10
CONST	ENDS
;	COMDAT ?max_exponent@?$numeric_limits@O@std@@2HB
CONST	SEGMENT
?max_exponent@?$numeric_limits@O@std@@2HB DD 0400H	; std::numeric_limits<long double>::max_exponent
CONST	ENDS
;	COMDAT ?max_digits10@?$numeric_limits@O@std@@2HB
CONST	SEGMENT
?max_digits10@?$numeric_limits@O@std@@2HB DD 011H	; std::numeric_limits<long double>::max_digits10
CONST	ENDS
;	COMDAT ?digits10@?$numeric_limits@O@std@@2HB
CONST	SEGMENT
?digits10@?$numeric_limits@O@std@@2HB DD 0fH		; std::numeric_limits<long double>::digits10
CONST	ENDS
;	COMDAT ?digits@?$numeric_limits@O@std@@2HB
CONST	SEGMENT
?digits@?$numeric_limits@O@std@@2HB DD 035H		; std::numeric_limits<long double>::digits
CONST	ENDS
;	COMDAT ?min_exponent10@?$numeric_limits@N@std@@2HB
CONST	SEGMENT
?min_exponent10@?$numeric_limits@N@std@@2HB DD 0fffffecdH ; std::numeric_limits<double>::min_exponent10
CONST	ENDS
;	COMDAT ?min_exponent@?$numeric_limits@N@std@@2HB
CONST	SEGMENT
?min_exponent@?$numeric_limits@N@std@@2HB DD 0fffffc03H	; std::numeric_limits<double>::min_exponent
CONST	ENDS
;	COMDAT ?none@?$_Locbase@H@std@@2HB
CONST	SEGMENT
?none@?$_Locbase@H@std@@2HB DD 00H			; std::_Locbase<int>::none
CONST	ENDS
;	COMDAT ?all@?$_Locbase@H@std@@2HB
CONST	SEGMENT
?all@?$_Locbase@H@std@@2HB DD 03fH			; std::_Locbase<int>::all
CONST	ENDS
;	COMDAT ?max_exponent10@?$numeric_limits@N@std@@2HB
CONST	SEGMENT
?max_exponent10@?$numeric_limits@N@std@@2HB DD 0134H	; std::numeric_limits<double>::max_exponent10
CONST	ENDS
;	COMDAT ?messages@?$_Locbase@H@std@@2HB
CONST	SEGMENT
?messages@?$_Locbase@H@std@@2HB DD 020H			; std::_Locbase<int>::messages
CONST	ENDS
;	COMDAT ?time@?$_Locbase@H@std@@2HB
CONST	SEGMENT
?time@?$_Locbase@H@std@@2HB DD 010H			; std::_Locbase<int>::time
CONST	ENDS
;	COMDAT ?max_exponent@?$numeric_limits@N@std@@2HB
CONST	SEGMENT
?max_exponent@?$numeric_limits@N@std@@2HB DD 0400H	; std::numeric_limits<double>::max_exponent
CONST	ENDS
;	COMDAT ?numeric@?$_Locbase@H@std@@2HB
CONST	SEGMENT
?numeric@?$_Locbase@H@std@@2HB DD 08H			; std::_Locbase<int>::numeric
CONST	ENDS
;	COMDAT ?monetary@?$_Locbase@H@std@@2HB
CONST	SEGMENT
?monetary@?$_Locbase@H@std@@2HB DD 04H			; std::_Locbase<int>::monetary
CONST	ENDS
;	COMDAT ?max_digits10@?$numeric_limits@N@std@@2HB
CONST	SEGMENT
?max_digits10@?$numeric_limits@N@std@@2HB DD 011H	; std::numeric_limits<double>::max_digits10
CONST	ENDS
;	COMDAT ?ctype@?$_Locbase@H@std@@2HB
CONST	SEGMENT
?ctype@?$_Locbase@H@std@@2HB DD 02H			; std::_Locbase<int>::ctype
CONST	ENDS
;	COMDAT ?digits10@?$numeric_limits@N@std@@2HB
CONST	SEGMENT
?digits10@?$numeric_limits@N@std@@2HB DD 0fH		; std::numeric_limits<double>::digits10
CONST	ENDS
;	COMDAT ?collate@?$_Locbase@H@std@@2HB
CONST	SEGMENT
?collate@?$_Locbase@H@std@@2HB DD 01H			; std::_Locbase<int>::collate
CONST	ENDS
;	COMDAT ?digits@?$numeric_limits@N@std@@2HB
CONST	SEGMENT
?digits@?$numeric_limits@N@std@@2HB DD 035H		; std::numeric_limits<double>::digits
CONST	ENDS
;	COMDAT ?value@?$integral_constant@I$0A@@std@@2IB
CONST	SEGMENT
?value@?$integral_constant@I$0A@@std@@2IB DD 00H	; std::integral_constant<unsigned int,0>::value
CONST	ENDS
;	COMDAT ?min_exponent10@?$numeric_limits@M@std@@2HB
CONST	SEGMENT
?min_exponent10@?$numeric_limits@M@std@@2HB DD 0ffffffdbH ; std::numeric_limits<float>::min_exponent10
CONST	ENDS
;	COMDAT ?min_exponent@?$numeric_limits@M@std@@2HB
CONST	SEGMENT
?min_exponent@?$numeric_limits@M@std@@2HB DD 0ffffff83H	; std::numeric_limits<float>::min_exponent
CONST	ENDS
;	COMDAT ?max_exponent10@?$numeric_limits@M@std@@2HB
CONST	SEGMENT
?max_exponent10@?$numeric_limits@M@std@@2HB DD 026H	; std::numeric_limits<float>::max_exponent10
CONST	ENDS
;	COMDAT ?max_exponent@?$numeric_limits@M@std@@2HB
CONST	SEGMENT
?max_exponent@?$numeric_limits@M@std@@2HB DD 080H	; std::numeric_limits<float>::max_exponent
CONST	ENDS
;	COMDAT ?max_digits10@?$numeric_limits@M@std@@2HB
CONST	SEGMENT
?max_digits10@?$numeric_limits@M@std@@2HB DD 09H	; std::numeric_limits<float>::max_digits10
CONST	ENDS
;	COMDAT ?digits10@?$numeric_limits@M@std@@2HB
CONST	SEGMENT
?digits10@?$numeric_limits@M@std@@2HB DD 06H		; std::numeric_limits<float>::digits10
CONST	ENDS
;	COMDAT ?digits@?$numeric_limits@M@std@@2HB
CONST	SEGMENT
?digits@?$numeric_limits@M@std@@2HB DD 018H		; std::numeric_limits<float>::digits
CONST	ENDS
;	COMDAT ?digits10@?$numeric_limits@_K@std@@2HB
CONST	SEGMENT
?digits10@?$numeric_limits@_K@std@@2HB DD 013H		; std::numeric_limits<unsigned __int64>::digits10
CONST	ENDS
;	COMDAT ?digits@?$numeric_limits@_K@std@@2HB
CONST	SEGMENT
?digits@?$numeric_limits@_K@std@@2HB DD 040H		; std::numeric_limits<unsigned __int64>::digits
CONST	ENDS
;	COMDAT ?is_signed@?$numeric_limits@_K@std@@2_NB
CONST	SEGMENT
?is_signed@?$numeric_limits@_K@std@@2_NB DB 00H		; std::numeric_limits<unsigned __int64>::is_signed
CONST	ENDS
;	COMDAT ?digits10@?$numeric_limits@_J@std@@2HB
CONST	SEGMENT
?digits10@?$numeric_limits@_J@std@@2HB DD 012H		; std::numeric_limits<__int64>::digits10
CONST	ENDS
;	COMDAT ?digits@?$numeric_limits@_J@std@@2HB
CONST	SEGMENT
?digits@?$numeric_limits@_J@std@@2HB DD 03fH		; std::numeric_limits<__int64>::digits
CONST	ENDS
;	COMDAT ?is_signed@?$numeric_limits@_J@std@@2_NB
CONST	SEGMENT
?is_signed@?$numeric_limits@_J@std@@2_NB DB 01H		; std::numeric_limits<__int64>::is_signed
CONST	ENDS
;	COMDAT ?digits10@?$numeric_limits@K@std@@2HB
CONST	SEGMENT
?digits10@?$numeric_limits@K@std@@2HB DD 09H		; std::numeric_limits<unsigned long>::digits10
CONST	ENDS
;	COMDAT ?digits@?$numeric_limits@K@std@@2HB
CONST	SEGMENT
?digits@?$numeric_limits@K@std@@2HB DD 020H		; std::numeric_limits<unsigned long>::digits
CONST	ENDS
;	COMDAT ?is_signed@?$numeric_limits@K@std@@2_NB
CONST	SEGMENT
?is_signed@?$numeric_limits@K@std@@2_NB DB 00H		; std::numeric_limits<unsigned long>::is_signed
CONST	ENDS
;	COMDAT ?digits10@?$numeric_limits@J@std@@2HB
CONST	SEGMENT
?digits10@?$numeric_limits@J@std@@2HB DD 09H		; std::numeric_limits<long>::digits10
CONST	ENDS
;	COMDAT ?digits@?$numeric_limits@J@std@@2HB
CONST	SEGMENT
?digits@?$numeric_limits@J@std@@2HB DD 01fH		; std::numeric_limits<long>::digits
CONST	ENDS
;	COMDAT ?is_signed@?$numeric_limits@J@std@@2_NB
CONST	SEGMENT
?is_signed@?$numeric_limits@J@std@@2_NB DB 01H		; std::numeric_limits<long>::is_signed
CONST	ENDS
;	COMDAT ?digits10@?$numeric_limits@I@std@@2HB
CONST	SEGMENT
?digits10@?$numeric_limits@I@std@@2HB DD 09H		; std::numeric_limits<unsigned int>::digits10
CONST	ENDS
;	COMDAT ?digits@?$numeric_limits@I@std@@2HB
CONST	SEGMENT
?digits@?$numeric_limits@I@std@@2HB DD 020H		; std::numeric_limits<unsigned int>::digits
CONST	ENDS
;	COMDAT ?is_signed@?$numeric_limits@I@std@@2_NB
CONST	SEGMENT
?is_signed@?$numeric_limits@I@std@@2_NB DB 00H		; std::numeric_limits<unsigned int>::is_signed
CONST	ENDS
;	COMDAT ?digits10@?$numeric_limits@H@std@@2HB
CONST	SEGMENT
?digits10@?$numeric_limits@H@std@@2HB DD 09H		; std::numeric_limits<int>::digits10
CONST	ENDS
;	COMDAT ?digits@?$numeric_limits@H@std@@2HB
CONST	SEGMENT
?digits@?$numeric_limits@H@std@@2HB DD 01fH		; std::numeric_limits<int>::digits
CONST	ENDS
;	COMDAT ?value@?$_Sizeof@HU_Nil@std@@U12@U12@U12@U12@U12@U12@@std@@2IB
CONST	SEGMENT
?value@?$_Sizeof@HU_Nil@std@@U12@U12@U12@U12@U12@U12@@std@@2IB DD 01H ; std::_Sizeof<int,std::_Nil,std::_Nil,std::_Nil,std::_Nil,std::_Nil,std::_Nil,std::_Nil>::value
CONST	ENDS
;	COMDAT ?is_signed@?$numeric_limits@H@std@@2_NB
CONST	SEGMENT
?is_signed@?$numeric_limits@H@std@@2_NB DB 01H		; std::numeric_limits<int>::is_signed
CONST	ENDS
;	COMDAT ?_Stream_err@failure@ios_base@std@@0W4io_errc@43@B
CONST	SEGMENT
?_Stream_err@failure@ios_base@std@@0W4io_errc@43@B DD 01H ; std::ios_base::failure::_Stream_err
CONST	ENDS
;	COMDAT ?digits10@?$numeric_limits@G@std@@2HB
CONST	SEGMENT
?digits10@?$numeric_limits@G@std@@2HB DD 04H		; std::numeric_limits<unsigned short>::digits10
CONST	ENDS
;	COMDAT ?digits@?$numeric_limits@G@std@@2HB
CONST	SEGMENT
?digits@?$numeric_limits@G@std@@2HB DD 010H		; std::numeric_limits<unsigned short>::digits
CONST	ENDS
;	COMDAT ?end@?$_Iosb@H@std@@2W4_Seekdir@12@B
CONST	SEGMENT
?end@?$_Iosb@H@std@@2W4_Seekdir@12@B DD 02H		; std::_Iosb<int>::end
CONST	ENDS
;	COMDAT ?is_signed@?$numeric_limits@G@std@@2_NB
CONST	SEGMENT
?is_signed@?$numeric_limits@G@std@@2_NB DB 00H		; std::numeric_limits<unsigned short>::is_signed
CONST	ENDS
;	COMDAT ?cur@?$_Iosb@H@std@@2W4_Seekdir@12@B
CONST	SEGMENT
?cur@?$_Iosb@H@std@@2W4_Seekdir@12@B DD 01H		; std::_Iosb<int>::cur
CONST	ENDS
;	COMDAT ?beg@?$_Iosb@H@std@@2W4_Seekdir@12@B
CONST	SEGMENT
?beg@?$_Iosb@H@std@@2W4_Seekdir@12@B DD 00H		; std::_Iosb<int>::beg
CONST	ENDS
;	COMDAT ?binary@?$_Iosb@H@std@@2W4_Openmode@12@B
CONST	SEGMENT
?binary@?$_Iosb@H@std@@2W4_Openmode@12@B DD 020H	; std::_Iosb<int>::binary
CONST	ENDS
;	COMDAT ?_Noreplace@?$_Iosb@H@std@@2W4_Openmode@12@B
CONST	SEGMENT
?_Noreplace@?$_Iosb@H@std@@2W4_Openmode@12@B DD 080H	; std::_Iosb<int>::_Noreplace
CONST	ENDS
;	COMDAT ?_Nocreate@?$_Iosb@H@std@@2W4_Openmode@12@B
CONST	SEGMENT
?_Nocreate@?$_Iosb@H@std@@2W4_Openmode@12@B DD 040H	; std::_Iosb<int>::_Nocreate
CONST	ENDS
;	COMDAT ?trunc@?$_Iosb@H@std@@2W4_Openmode@12@B
CONST	SEGMENT
?trunc@?$_Iosb@H@std@@2W4_Openmode@12@B DD 010H		; std::_Iosb<int>::trunc
CONST	ENDS
;	COMDAT ?app@?$_Iosb@H@std@@2W4_Openmode@12@B
CONST	SEGMENT
?app@?$_Iosb@H@std@@2W4_Openmode@12@B DD 08H		; std::_Iosb<int>::app
CONST	ENDS
;	COMDAT ?ate@?$_Iosb@H@std@@2W4_Openmode@12@B
CONST	SEGMENT
?ate@?$_Iosb@H@std@@2W4_Openmode@12@B DD 04H		; std::_Iosb<int>::ate
CONST	ENDS
;	COMDAT ?out@?$_Iosb@H@std@@2W4_Openmode@12@B
CONST	SEGMENT
?out@?$_Iosb@H@std@@2W4_Openmode@12@B DD 02H		; std::_Iosb<int>::out
CONST	ENDS
;	COMDAT ?digits10@?$numeric_limits@F@std@@2HB
CONST	SEGMENT
?digits10@?$numeric_limits@F@std@@2HB DD 04H		; std::numeric_limits<short>::digits10
CONST	ENDS
;	COMDAT ?in@?$_Iosb@H@std@@2W4_Openmode@12@B
CONST	SEGMENT
?in@?$_Iosb@H@std@@2W4_Openmode@12@B DD 01H		; std::_Iosb<int>::in
CONST	ENDS
;	COMDAT ?digits@?$numeric_limits@F@std@@2HB
CONST	SEGMENT
?digits@?$numeric_limits@F@std@@2HB DD 0fH		; std::numeric_limits<short>::digits
CONST	ENDS
;	COMDAT ?_Hardfail@?$_Iosb@H@std@@2W4_Iostate@12@B
CONST	SEGMENT
?_Hardfail@?$_Iosb@H@std@@2W4_Iostate@12@B DD 010H	; std::_Iosb<int>::_Hardfail
CONST	ENDS
;	COMDAT ?is_signed@?$numeric_limits@F@std@@2_NB
CONST	SEGMENT
?is_signed@?$numeric_limits@F@std@@2_NB DB 01H		; std::numeric_limits<short>::is_signed
CONST	ENDS
;	COMDAT ?badbit@?$_Iosb@H@std@@2W4_Iostate@12@B
CONST	SEGMENT
?badbit@?$_Iosb@H@std@@2W4_Iostate@12@B DD 04H		; std::_Iosb<int>::badbit
CONST	ENDS
;	COMDAT ?failbit@?$_Iosb@H@std@@2W4_Iostate@12@B
CONST	SEGMENT
?failbit@?$_Iosb@H@std@@2W4_Iostate@12@B DD 02H		; std::_Iosb<int>::failbit
CONST	ENDS
;	COMDAT ?eofbit@?$_Iosb@H@std@@2W4_Iostate@12@B
CONST	SEGMENT
?eofbit@?$_Iosb@H@std@@2W4_Iostate@12@B DD 01H		; std::_Iosb<int>::eofbit
CONST	ENDS
;	COMDAT ?goodbit@?$_Iosb@H@std@@2W4_Iostate@12@B
CONST	SEGMENT
?goodbit@?$_Iosb@H@std@@2W4_Iostate@12@B DD 00H		; std::_Iosb<int>::goodbit
CONST	ENDS
;	COMDAT ?floatfield@?$_Iosb@H@std@@2W4_Fmtflags@12@B
CONST	SEGMENT
?floatfield@?$_Iosb@H@std@@2W4_Fmtflags@12@B DD 03000H	; std::_Iosb<int>::floatfield
CONST	ENDS
;	COMDAT ?basefield@?$_Iosb@H@std@@2W4_Fmtflags@12@B
CONST	SEGMENT
?basefield@?$_Iosb@H@std@@2W4_Fmtflags@12@B DD 0e00H	; std::_Iosb<int>::basefield
CONST	ENDS
;	COMDAT ?value@?$integral_constant@_N$00@std@@2_NB
CONST	SEGMENT
?value@?$integral_constant@_N$00@std@@2_NB DB 01H	; std::integral_constant<bool,1>::value
CONST	ENDS
;	COMDAT ?adjustfield@?$_Iosb@H@std@@2W4_Fmtflags@12@B
CONST	SEGMENT
?adjustfield@?$_Iosb@H@std@@2W4_Fmtflags@12@B DD 01c0H	; std::_Iosb<int>::adjustfield
CONST	ENDS
;	COMDAT ?_Stdio@?$_Iosb@H@std@@2W4_Fmtflags@12@B
CONST	SEGMENT
?_Stdio@?$_Iosb@H@std@@2W4_Fmtflags@12@B DD 08000H	; std::_Iosb<int>::_Stdio
CONST	ENDS
;	COMDAT ?boolalpha@?$_Iosb@H@std@@2W4_Fmtflags@12@B
CONST	SEGMENT
?boolalpha@?$_Iosb@H@std@@2W4_Fmtflags@12@B DD 04000H	; std::_Iosb<int>::boolalpha
CONST	ENDS
;	COMDAT ?hexfloat@?$_Iosb@H@std@@2W4_Fmtflags@12@B
CONST	SEGMENT
?hexfloat@?$_Iosb@H@std@@2W4_Fmtflags@12@B DD 03000H	; std::_Iosb<int>::hexfloat
CONST	ENDS
;	COMDAT ?digits10@?$numeric_limits@E@std@@2HB
CONST	SEGMENT
?digits10@?$numeric_limits@E@std@@2HB DD 02H		; std::numeric_limits<unsigned char>::digits10
CONST	ENDS
;	COMDAT ?digits@?$numeric_limits@E@std@@2HB
CONST	SEGMENT
?digits@?$numeric_limits@E@std@@2HB DD 08H		; std::numeric_limits<unsigned char>::digits
CONST	ENDS
;	COMDAT ?fixed@?$_Iosb@H@std@@2W4_Fmtflags@12@B
CONST	SEGMENT
?fixed@?$_Iosb@H@std@@2W4_Fmtflags@12@B DD 02000H	; std::_Iosb<int>::fixed
CONST	ENDS
;	COMDAT ?value@?$integral_constant@_N$0A@@std@@2_NB
CONST	SEGMENT
?value@?$integral_constant@_N$0A@@std@@2_NB DB 00H	; std::integral_constant<bool,0>::value
CONST	ENDS
;	COMDAT ?is_signed@?$numeric_limits@E@std@@2_NB
CONST	SEGMENT
?is_signed@?$numeric_limits@E@std@@2_NB DB 00H		; std::numeric_limits<unsigned char>::is_signed
CONST	ENDS
;	COMDAT ?scientific@?$_Iosb@H@std@@2W4_Fmtflags@12@B
CONST	SEGMENT
?scientific@?$_Iosb@H@std@@2W4_Fmtflags@12@B DD 01000H	; std::_Iosb<int>::scientific
CONST	ENDS
;	COMDAT ?hex@?$_Iosb@H@std@@2W4_Fmtflags@12@B
CONST	SEGMENT
?hex@?$_Iosb@H@std@@2W4_Fmtflags@12@B DD 0800H		; std::_Iosb<int>::hex
CONST	ENDS
;	COMDAT ?oct@?$_Iosb@H@std@@2W4_Fmtflags@12@B
CONST	SEGMENT
?oct@?$_Iosb@H@std@@2W4_Fmtflags@12@B DD 0400H		; std::_Iosb<int>::oct
CONST	ENDS
;	COMDAT ?dec@?$_Iosb@H@std@@2W4_Fmtflags@12@B
CONST	SEGMENT
?dec@?$_Iosb@H@std@@2W4_Fmtflags@12@B DD 0200H		; std::_Iosb<int>::dec
CONST	ENDS
;	COMDAT ?internal@?$_Iosb@H@std@@2W4_Fmtflags@12@B
CONST	SEGMENT
?internal@?$_Iosb@H@std@@2W4_Fmtflags@12@B DD 0100H	; std::_Iosb<int>::internal
CONST	ENDS
;	COMDAT ?right@?$_Iosb@H@std@@2W4_Fmtflags@12@B
CONST	SEGMENT
?right@?$_Iosb@H@std@@2W4_Fmtflags@12@B DD 080H		; std::_Iosb<int>::right
CONST	ENDS
;	COMDAT ?left@?$_Iosb@H@std@@2W4_Fmtflags@12@B
CONST	SEGMENT
?left@?$_Iosb@H@std@@2W4_Fmtflags@12@B DD 040H		; std::_Iosb<int>::left
CONST	ENDS
;	COMDAT ?showpos@?$_Iosb@H@std@@2W4_Fmtflags@12@B
CONST	SEGMENT
?showpos@?$_Iosb@H@std@@2W4_Fmtflags@12@B DD 020H	; std::_Iosb<int>::showpos
CONST	ENDS
;	COMDAT ?showpoint@?$_Iosb@H@std@@2W4_Fmtflags@12@B
CONST	SEGMENT
?showpoint@?$_Iosb@H@std@@2W4_Fmtflags@12@B DD 010H	; std::_Iosb<int>::showpoint
CONST	ENDS
;	COMDAT ?showbase@?$_Iosb@H@std@@2W4_Fmtflags@12@B
CONST	SEGMENT
?showbase@?$_Iosb@H@std@@2W4_Fmtflags@12@B DD 08H	; std::_Iosb<int>::showbase
CONST	ENDS
;	COMDAT ?uppercase@?$_Iosb@H@std@@2W4_Fmtflags@12@B
CONST	SEGMENT
?uppercase@?$_Iosb@H@std@@2W4_Fmtflags@12@B DD 04H	; std::_Iosb<int>::uppercase
CONST	ENDS
;	COMDAT ?digits10@?$numeric_limits@C@std@@2HB
CONST	SEGMENT
?digits10@?$numeric_limits@C@std@@2HB DD 02H		; std::numeric_limits<signed char>::digits10
CONST	ENDS
;	COMDAT ?unitbuf@?$_Iosb@H@std@@2W4_Fmtflags@12@B
CONST	SEGMENT
?unitbuf@?$_Iosb@H@std@@2W4_Fmtflags@12@B DD 02H	; std::_Iosb<int>::unitbuf
CONST	ENDS
;	COMDAT ?digits@?$numeric_limits@C@std@@2HB
CONST	SEGMENT
?digits@?$numeric_limits@C@std@@2HB DD 07H		; std::numeric_limits<signed char>::digits
CONST	ENDS
;	COMDAT ?skipws@?$_Iosb@H@std@@2W4_Fmtflags@12@B
CONST	SEGMENT
?skipws@?$_Iosb@H@std@@2W4_Fmtflags@12@B DD 01H		; std::_Iosb<int>::skipws
CONST	ENDS
;	COMDAT ?is_signed@?$numeric_limits@C@std@@2_NB
CONST	SEGMENT
?is_signed@?$numeric_limits@C@std@@2_NB DB 01H		; std::numeric_limits<signed char>::is_signed
CONST	ENDS
;	COMDAT ?digits10@?$numeric_limits@_N@std@@2HB
CONST	SEGMENT
?digits10@?$numeric_limits@_N@std@@2HB DD 00H		; std::numeric_limits<bool>::digits10
CONST	ENDS
;	COMDAT ?digits@?$numeric_limits@_N@std@@2HB
CONST	SEGMENT
?digits@?$numeric_limits@_N@std@@2HB DD 01H		; std::numeric_limits<bool>::digits
CONST	ENDS
;	COMDAT ?is_signed@?$numeric_limits@_N@std@@2_NB
CONST	SEGMENT
?is_signed@?$numeric_limits@_N@std@@2_NB DB 00H		; std::numeric_limits<bool>::is_signed
CONST	ENDS
;	COMDAT ?is_modulo@?$numeric_limits@_N@std@@2_NB
CONST	SEGMENT
?is_modulo@?$numeric_limits@_N@std@@2_NB DB 00H		; std::numeric_limits<bool>::is_modulo
CONST	ENDS
;	COMDAT ?digits10@?$numeric_limits@_W@std@@2HB
CONST	SEGMENT
?digits10@?$numeric_limits@_W@std@@2HB DD 04H		; std::numeric_limits<wchar_t>::digits10
CONST	ENDS
;	COMDAT ?digits@?$numeric_limits@_W@std@@2HB
CONST	SEGMENT
?digits@?$numeric_limits@_W@std@@2HB DD 010H		; std::numeric_limits<wchar_t>::digits
CONST	ENDS
;	COMDAT ?is_signed@?$numeric_limits@_W@std@@2_NB
CONST	SEGMENT
?is_signed@?$numeric_limits@_W@std@@2_NB DB 00H		; std::numeric_limits<wchar_t>::is_signed
CONST	ENDS
;	COMDAT ?digits10@?$numeric_limits@D@std@@2HB
CONST	SEGMENT
?digits10@?$numeric_limits@D@std@@2HB DD 02H		; std::numeric_limits<char>::digits10
CONST	ENDS
;	COMDAT ?digits@?$numeric_limits@D@std@@2HB
CONST	SEGMENT
?digits@?$numeric_limits@D@std@@2HB DD 07H		; std::numeric_limits<char>::digits
CONST	ENDS
;	COMDAT ?is_signed@?$numeric_limits@D@std@@2_NB
CONST	SEGMENT
?is_signed@?$numeric_limits@D@std@@2_NB DB 01H		; std::numeric_limits<char>::is_signed
CONST	ENDS
;	COMDAT ?radix@_Num_float_base@std@@2HB
CONST	SEGMENT
?radix@_Num_float_base@std@@2HB DD 02H			; std::_Num_float_base::radix
CONST	ENDS
;	COMDAT ?round_style@_Num_float_base@std@@2W4float_round_style@2@B
CONST	SEGMENT
?round_style@_Num_float_base@std@@2W4float_round_style@2@B DD 01H ; std::_Num_float_base::round_style
CONST	ENDS
;	COMDAT ?traps@_Num_float_base@std@@2_NB
CONST	SEGMENT
?traps@_Num_float_base@std@@2_NB DB 00H			; std::_Num_float_base::traps
CONST	ENDS
;	COMDAT ?tinyness_before@_Num_float_base@std@@2_NB
CONST	SEGMENT
?tinyness_before@_Num_float_base@std@@2_NB DB 01H	; std::_Num_float_base::tinyness_before
CONST	ENDS
;	COMDAT ?is_specialized@_Num_float_base@std@@2_NB
CONST	SEGMENT
?is_specialized@_Num_float_base@std@@2_NB DB 01H	; std::_Num_float_base::is_specialized
CONST	ENDS
;	COMDAT ?is_signed@_Num_float_base@std@@2_NB
CONST	SEGMENT
?is_signed@_Num_float_base@std@@2_NB DB 01H		; std::_Num_float_base::is_signed
CONST	ENDS
CONST	SEGMENT
_NEAR_CLIP DD	03f800000r			; 1
_L_2	DD	03f317218r			; 0.693147
CONST	ENDS
;	COMDAT ?is_modulo@_Num_float_base@std@@2_NB
CONST	SEGMENT
?is_modulo@_Num_float_base@std@@2_NB DB 00H		; std::_Num_float_base::is_modulo
CONST	ENDS
;	COMDAT ?is_integer@_Num_float_base@std@@2_NB
CONST	SEGMENT
?is_integer@_Num_float_base@std@@2_NB DB 00H		; std::_Num_float_base::is_integer
CONST	ENDS
;	COMDAT ?is_iec559@_Num_float_base@std@@2_NB
CONST	SEGMENT
?is_iec559@_Num_float_base@std@@2_NB DB 01H		; std::_Num_float_base::is_iec559
CONST	ENDS
;	COMDAT ?is_exact@_Num_float_base@std@@2_NB
CONST	SEGMENT
?is_exact@_Num_float_base@std@@2_NB DB 00H		; std::_Num_float_base::is_exact
CONST	ENDS
;	COMDAT ?is_bounded@_Num_float_base@std@@2_NB
CONST	SEGMENT
?is_bounded@_Num_float_base@std@@2_NB DB 01H		; std::_Num_float_base::is_bounded
CONST	ENDS
;	COMDAT ?has_signaling_NaN@_Num_float_base@std@@2_NB
CONST	SEGMENT
?has_signaling_NaN@_Num_float_base@std@@2_NB DB 01H	; std::_Num_float_base::has_signaling_NaN
CONST	ENDS
;	COMDAT ?has_quiet_NaN@_Num_float_base@std@@2_NB
CONST	SEGMENT
?has_quiet_NaN@_Num_float_base@std@@2_NB DB 01H		; std::_Num_float_base::has_quiet_NaN
CONST	ENDS
;	COMDAT ?has_infinity@_Num_float_base@std@@2_NB
CONST	SEGMENT
?has_infinity@_Num_float_base@std@@2_NB DB 01H		; std::_Num_float_base::has_infinity
CONST	ENDS
;	COMDAT ?CMPDIRTYDATA_INTERVAL@FalconEntity@@2KB
CONST	SEGMENT
?CMPDIRTYDATA_INTERVAL@FalconEntity@@2KB DD 0c8H	; FalconEntity::CMPDIRTYDATA_INTERVAL
CONST	ENDS
_DATA	SEGMENT
_matrix44_ident DD 03f800000r			; 1
	DD	000000000r			; 0
	DD	000000000r			; 0
	DD	000000000r			; 0
	DD	000000000r			; 0
	DD	03f800000r			; 1
	DD	000000000r			; 0
	DD	000000000r			; 0
	DD	000000000r			; 0
	DD	000000000r			; 0
	DD	03f800000r			; 1
	DD	000000000r			; 0
	DD	000000000r			; 0
	DD	000000000r			; 0
	DD	000000000r			; 0
	DD	03f800000r			; 1
_matrix33_ident DD 03f800000r			; 1
	DD	000000000r			; 0
	DD	000000000r			; 0
	DD	000000000r			; 0
	DD	03f800000r			; 1
	DD	000000000r			; 0
	DD	000000000r			; 0
	DD	000000000r			; 0
	DD	03f800000r			; 1
_DATA	ENDS
;	COMDAT ?SIMDIRTYDATA_INTERVAL@FalconEntity@@2KB
CONST	SEGMENT
?SIMDIRTYDATA_INTERVAL@FalconEntity@@2KB DD 0c8H	; FalconEntity::SIMDIRTYDATA_INTERVAL
CONST	ENDS
;	COMDAT ?has_denorm_loss@_Num_float_base@std@@2_NB
CONST	SEGMENT
?has_denorm_loss@_Num_float_base@std@@2_NB DB 01H	; std::_Num_float_base::has_denorm_loss
CONST	ENDS
;	COMDAT ?has_denorm@_Num_float_base@std@@2W4float_denorm_style@2@B
CONST	SEGMENT
?has_denorm@_Num_float_base@std@@2W4float_denorm_style@2@B DD 01H ; std::_Num_float_base::has_denorm
CONST	ENDS
;	COMDAT ?radix@_Num_int_base@std@@2HB
CONST	SEGMENT
?radix@_Num_int_base@std@@2HB DD 02H			; std::_Num_int_base::radix
CONST	ENDS
;	COMDAT ?is_specialized@_Num_int_base@std@@2_NB
CONST	SEGMENT
?is_specialized@_Num_int_base@std@@2_NB DB 01H		; std::_Num_int_base::is_specialized
CONST	ENDS
;	COMDAT ?is_modulo@_Num_int_base@std@@2_NB
CONST	SEGMENT
?is_modulo@_Num_int_base@std@@2_NB DB 01H		; std::_Num_int_base::is_modulo
CONST	ENDS
;	COMDAT ?is_integer@_Num_int_base@std@@2_NB
CONST	SEGMENT
?is_integer@_Num_int_base@std@@2_NB DB 01H		; std::_Num_int_base::is_integer
CONST	ENDS
;	COMDAT ?is_exact@_Num_int_base@std@@2_NB
CONST	SEGMENT
?is_exact@_Num_int_base@std@@2_NB DB 01H		; std::_Num_int_base::is_exact
CONST	ENDS
;	COMDAT ?is_bounded@_Num_int_base@std@@2_NB
CONST	SEGMENT
?is_bounded@_Num_int_base@std@@2_NB DB 01H		; std::_Num_int_base::is_bounded
CONST	ENDS
;	COMDAT ?radix@_Num_base@std@@2HB
CONST	SEGMENT
?radix@_Num_base@std@@2HB DD 00H			; std::_Num_base::radix
CONST	ENDS
;	COMDAT ?min_exponent10@_Num_base@std@@2HB
CONST	SEGMENT
?min_exponent10@_Num_base@std@@2HB DD 00H		; std::_Num_base::min_exponent10
CONST	ENDS
;	COMDAT ?min_exponent@_Num_base@std@@2HB
CONST	SEGMENT
?min_exponent@_Num_base@std@@2HB DD 00H			; std::_Num_base::min_exponent
CONST	ENDS
;	COMDAT ?max_exponent10@_Num_base@std@@2HB
CONST	SEGMENT
?max_exponent10@_Num_base@std@@2HB DD 00H		; std::_Num_base::max_exponent10
CONST	ENDS
;	COMDAT ?max_exponent@_Num_base@std@@2HB
CONST	SEGMENT
?max_exponent@_Num_base@std@@2HB DD 00H			; std::_Num_base::max_exponent
CONST	ENDS
;	COMDAT ?max_digits10@_Num_base@std@@2HB
CONST	SEGMENT
?max_digits10@_Num_base@std@@2HB DD 00H			; std::_Num_base::max_digits10
CONST	ENDS
;	COMDAT ?digits10@_Num_base@std@@2HB
CONST	SEGMENT
?digits10@_Num_base@std@@2HB DD 00H			; std::_Num_base::digits10
CONST	ENDS
;	COMDAT ?digits@_Num_base@std@@2HB
CONST	SEGMENT
?digits@_Num_base@std@@2HB DD 00H			; std::_Num_base::digits
CONST	ENDS
;	COMDAT ?round_style@_Num_base@std@@2W4float_round_style@2@B
CONST	SEGMENT
?round_style@_Num_base@std@@2W4float_round_style@2@B DD 00H ; std::_Num_base::round_style
CONST	ENDS
;	COMDAT ?traps@_Num_base@std@@2_NB
CONST	SEGMENT
?traps@_Num_base@std@@2_NB DB 00H			; std::_Num_base::traps
CONST	ENDS
PUBLIC	_fabsf
PUBLIC	?fabs@@YAMM@Z					; fabs
PUBLIC	?Pitch@VuEntity@@QBEMXZ				; VuEntity::Pitch
PUBLIC	?Roll@VuEntity@@QBEMXZ				; VuEntity::Roll
PUBLIC	??2@YAPAXIPAX@Z					; operator new
PUBLIC	??3@YAXPAX0@Z					; operator delete
PUBLIC	?length@?$char_traits@D@std@@SAIPBD@Z		; std::char_traits<char>::length
PUBLIC	?copy@?$char_traits@D@std@@SAPADPADPBDI@Z	; std::char_traits<char>::copy
PUBLIC	?move@?$char_traits@D@std@@SAPADPADPBDI@Z	; std::char_traits<char>::move
PUBLIC	?assign@?$char_traits@D@std@@SAXAADABD@Z	; std::char_traits<char>::assign
PUBLIC	??0?$allocator@D@std@@QAE@XZ			; std::allocator<char>::allocator<char>
PUBLIC	?deallocate@?$allocator@D@std@@QAEXPADI@Z	; std::allocator<char>::deallocate
PUBLIC	?allocate@?$allocator@D@std@@QAEPADI@Z		; std::allocator<char>::allocate
PUBLIC	?max_size@?$allocator@D@std@@QBEIXZ		; std::allocator<char>::max_size
PUBLIC	?max_size@?$allocator_traits@V?$allocator@D@std@@@std@@SAIABV?$allocator@D@2@@Z ; std::allocator_traits<std::allocator<char> >::max_size
PUBLIC	??0?$_Wrap_alloc@V?$allocator@D@std@@@std@@QAE@XZ ; std::_Wrap_alloc<std::allocator<char> >::_Wrap_alloc<std::allocator<char> >
PUBLIC	?allocate@?$_Wrap_alloc@V?$allocator@D@std@@@std@@QAEPADI@Z ; std::_Wrap_alloc<std::allocator<char> >::allocate
PUBLIC	?deallocate@?$_Wrap_alloc@V?$allocator@D@std@@@std@@QAEXPADI@Z ; std::_Wrap_alloc<std::allocator<char> >::deallocate
PUBLIC	?max_size@?$_Wrap_alloc@V?$allocator@D@std@@@std@@QBEIXZ ; std::_Wrap_alloc<std::allocator<char> >::max_size
PUBLIC	??0?$_String_val@U?$_Simple_types@D@std@@@std@@QAE@XZ ; std::_String_val<std::_Simple_types<char> >::_String_val<std::_Simple_types<char> >
PUBLIC	?_Myptr@?$_String_val@U?$_Simple_types@D@std@@@std@@QAEPADXZ ; std::_String_val<std::_Simple_types<char> >::_Myptr
PUBLIC	?_Myptr@?$_String_val@U?$_Simple_types@D@std@@@std@@QBEPBDXZ ; std::_String_val<std::_Simple_types<char> >::_Myptr
PUBLIC	??0?$_String_alloc@$0A@U?$_String_base_types@DV?$allocator@D@std@@@std@@@std@@QAE@ABV?$allocator@D@1@@Z ; std::_String_alloc<0,std::_String_base_types<char,std::allocator<char> > >::_String_alloc<0,std::_String_base_types<char,std::allocator<char> > >
PUBLIC	?_Getal@?$_String_alloc@$0A@U?$_String_base_types@DV?$allocator@D@std@@@std@@@std@@QBE?AU?$_Wrap_alloc@V?$allocator@D@std@@@2@XZ ; std::_String_alloc<0,std::_String_base_types<char,std::allocator<char> > >::_Getal
PUBLIC	??0?$basic_string@DU?$char_traits@D@std@@V?$allocator@D@2@@std@@QAE@PBD@Z ; std::basic_string<char,std::char_traits<char>,std::allocator<char> >::basic_string<char,std::char_traits<char>,std::allocator<char> >
PUBLIC	?assign@?$basic_string@DU?$char_traits@D@std@@V?$allocator@D@2@@std@@QAEAAV12@ABV12@II@Z ; std::basic_string<char,std::char_traits<char>,std::allocator<char> >::assign
PUBLIC	?assign@?$basic_string@DU?$char_traits@D@std@@V?$allocator@D@2@@std@@QAEAAV12@PBDI@Z ; std::basic_string<char,std::char_traits<char>,std::allocator<char> >::assign
PUBLIC	?assign@?$basic_string@DU?$char_traits@D@std@@V?$allocator@D@2@@std@@QAEAAV12@PBD@Z ; std::basic_string<char,std::char_traits<char>,std::allocator<char> >::assign
PUBLIC	?erase@?$basic_string@DU?$char_traits@D@std@@V?$allocator@D@2@@std@@QAEAAV12@I@Z ; std::basic_string<char,std::char_traits<char>,std::allocator<char> >::erase
PUBLIC	?erase@?$basic_string@DU?$char_traits@D@std@@V?$allocator@D@2@@std@@QAEAAV12@II@Z ; std::basic_string<char,std::char_traits<char>,std::allocator<char> >::erase
PUBLIC	?size@?$basic_string@DU?$char_traits@D@std@@V?$allocator@D@2@@std@@QBEIXZ ; std::basic_string<char,std::char_traits<char>,std::allocator<char> >::size
PUBLIC	?max_size@?$basic_string@DU?$char_traits@D@std@@V?$allocator@D@2@@std@@QBEIXZ ; std::basic_string<char,std::char_traits<char>,std::allocator<char> >::max_size
PUBLIC	?_Copy@?$basic_string@DU?$char_traits@D@std@@V?$allocator@D@2@@std@@QAEXII@Z ; std::basic_string<char,std::char_traits<char>,std::allocator<char> >::_Copy
PUBLIC	?_Eos@?$basic_string@DU?$char_traits@D@std@@V?$allocator@D@2@@std@@QAEXI@Z ; std::basic_string<char,std::char_traits<char>,std::allocator<char> >::_Eos
PUBLIC	?_Grow@?$basic_string@DU?$char_traits@D@std@@V?$allocator@D@2@@std@@QAE_NI_N@Z ; std::basic_string<char,std::char_traits<char>,std::allocator<char> >::_Grow
PUBLIC	?_Inside@?$basic_string@DU?$char_traits@D@std@@V?$allocator@D@2@@std@@QAE_NPBD@Z ; std::basic_string<char,std::char_traits<char>,std::allocator<char> >::_Inside
PUBLIC	?_Tidy@?$basic_string@DU?$char_traits@D@std@@V?$allocator@D@2@@std@@QAEX_NI@Z ; std::basic_string<char,std::char_traits<char>,std::allocator<char> >::_Tidy
PUBLIC	?_Xlen@?$basic_string@DU?$char_traits@D@std@@V?$allocator@D@2@@std@@QBEXXZ ; std::basic_string<char,std::char_traits<char>,std::allocator<char> >::_Xlen
PUBLIC	?_Xran@?$basic_string@DU?$char_traits@D@std@@V?$allocator@D@2@@std@@QBEXXZ ; std::basic_string<char,std::char_traits<char>,std::allocator<char> >::_Xran
PUBLIC	??0DrawableClass@@IAE@XZ			; DrawableClass::DrawableClass
PUBLIC	??1DrawableClass@@UAE@XZ			; DrawableClass::~DrawableClass
PUBLIC	?Display@DrawableClass@@UAEXPAVVirtualDisplay@@@Z ; DrawableClass::Display
PUBLIC	?DisplayInit@DrawableClass@@UAEXPAVImageBuffer@@@Z ; DrawableClass::DisplayInit
PUBLIC	?GetDisplay@DrawableClass@@UAEPAVVirtualDisplay@@XZ ; DrawableClass::GetDisplay
PUBLIC	?OnMFD@DrawableClass@@QAEHXZ			; DrawableClass::OnMFD
PUBLIC	?SetIntensity@DrawableClass@@QAEXI@Z		; DrawableClass::SetIntensity
PUBLIC	?GetIntensity@DrawableClass@@QAEIXZ		; DrawableClass::GetIntensity
PUBLIC	?PushButton@DrawableClass@@UAEXHH@Z		; DrawableClass::PushButton
PUBLIC	??_GDrawableClass@@UAEPAXI@Z			; DrawableClass::`scalar deleting destructor'
PUBLIC	?CurMode@MFDClass@@QAE?AW4MfdMode@1@XZ		; MFDClass::CurMode
PUBLIC	?GetOwnShip@MFDClass@@QAEPAVAircraftClass@@XZ	; MFDClass::GetOwnShip
PUBLIC	?GetTGPWarning@MFDClass@@QAEHXZ			; MFDClass::GetTGPWarning
PUBLIC	?SetTGPWarning@MFDClass@@QAEXH@Z		; MFDClass::SetTGPWarning
PUBLIC	??0MfdDrawable@@QAE@XZ				; MfdDrawable::MfdDrawable
PUBLIC	?Display@MfdDrawable@@UAEXPAVVirtualDisplay@@@Z	; MfdDrawable::Display
PUBLIC	??_GMfdDrawable@@UAEPAXI@Z			; MfdDrawable::`scalar deleting destructor'
PUBLIC	??0TgpMfdDrawable@@QAE@XZ			; TgpMfdDrawable::TgpMfdDrawable
PUBLIC	??1TgpMfdDrawable@@UAE@XZ			; TgpMfdDrawable::~TgpMfdDrawable
PUBLIC	?DisplayInit@TgpMfdDrawable@@UAEXPAVImageBuffer@@@Z ; TgpMfdDrawable::DisplayInit
PUBLIC	?Display@TgpMfdDrawable@@UAEXPAVVirtualDisplay@@@Z ; TgpMfdDrawable::Display
PUBLIC	?GetDisplay@TgpMfdDrawable@@UAEPAVVirtualDisplay@@XZ ; TgpMfdDrawable::GetDisplay
PUBLIC	?PushButton@TgpMfdDrawable@@EAEXHH@Z		; TgpMfdDrawable::PushButton
PUBLIC	?OffMode@TgpMfdDrawable@@AAEXPAVVirtualDisplay@@@Z ; TgpMfdDrawable::OffMode
PUBLIC	?DrawRALT@TgpMfdDrawable@@AAEXPAVVirtualDisplay@@@Z ; TgpMfdDrawable::DrawRALT
PUBLIC	?DrawHDPT@TgpMfdDrawable@@AAEXPAVVirtualDisplay@@PAVSMSClass@@@Z ; TgpMfdDrawable::DrawHDPT
PUBLIC	?HdptStationSym@TgpMfdDrawable@@AAEDHPAVSMSClass@@@Z ; TgpMfdDrawable::HdptStationSym
PUBLIC	?LaserIndicator@TgpMfdDrawable@@AAEXPAVVirtualDisplay@@@Z ; TgpMfdDrawable::LaserIndicator
PUBLIC	?ImpactTime@TgpMfdDrawable@@AAEXPAVVirtualDisplay@@@Z ; TgpMfdDrawable::ImpactTime
PUBLIC	?DrawMasterArm@TgpMfdDrawable@@AAEXPAVVirtualDisplay@@@Z ; TgpMfdDrawable::DrawMasterArm
PUBLIC	?DrawRange@TgpMfdDrawable@@AAEXPAVVirtualDisplay@@@Z ; TgpMfdDrawable::DrawRange
PUBLIC	?CoolingDisplay@TgpMfdDrawable@@AAEXPAVVirtualDisplay@@@Z ; TgpMfdDrawable::CoolingDisplay
PUBLIC	?OSBLabels@TgpMfdDrawable@@AAEXPAVVirtualDisplay@@@Z ; TgpMfdDrawable::OSBLabels
PUBLIC	??_GTgpMfdDrawable@@UAEPAXI@Z			; TgpMfdDrawable::`scalar deleting destructor'
PUBLIC	??0id@locale@std@@QAE@I@Z			; std::locale::id::id
PUBLIC	?generic_category@std@@YAABVerror_category@1@XZ	; std::generic_category
PUBLIC	?system_category@std@@YAABVerror_category@1@XZ	; std::system_category
PUBLIC	??0error_category@std@@QAE@XZ			; std::error_category::error_category
PUBLIC	??1error_category@std@@UAE@XZ			; std::error_category::~error_category
PUBLIC	?default_error_condition@error_category@std@@UBE?AVerror_condition@2@H@Z ; std::error_category::default_error_condition
PUBLIC	?equivalent@error_category@std@@UBE_NHABVerror_condition@2@@Z ; std::error_category::equivalent
PUBLIC	?equivalent@error_category@std@@UBE_NABVerror_code@2@H@Z ; std::error_category::equivalent
PUBLIC	??8error_category@std@@QBE_NABV01@@Z		; std::error_category::operator==
PUBLIC	??_Gerror_category@std@@UAEPAXI@Z		; std::error_category::`scalar deleting destructor'
PUBLIC	?value@error_code@std@@QBEHXZ			; std::error_code::value
PUBLIC	?category@error_code@std@@QBEABVerror_category@2@XZ ; std::error_code::category
PUBLIC	??0error_condition@std@@QAE@HABVerror_category@1@@Z ; std::error_condition::error_condition
PUBLIC	?value@error_condition@std@@QBEHXZ		; std::error_condition::value
PUBLIC	?category@error_condition@std@@QBEABVerror_category@2@XZ ; std::error_condition::category
PUBLIC	??8error_condition@std@@QBE_NABV01@@Z		; std::error_condition::operator==
PUBLIC	??0_Generic_error_category@std@@QAE@XZ		; std::_Generic_error_category::_Generic_error_category
PUBLIC	?name@_Generic_error_category@std@@UBEPBDXZ	; std::_Generic_error_category::name
PUBLIC	?message@_Generic_error_category@std@@UBE?AV?$basic_string@DU?$char_traits@D@std@@V?$allocator@D@2@@2@H@Z ; std::_Generic_error_category::message
PUBLIC	??1_Generic_error_category@std@@UAE@XZ		; std::_Generic_error_category::~_Generic_error_category
PUBLIC	??_G_Generic_error_category@std@@UAEPAXI@Z	; std::_Generic_error_category::`scalar deleting destructor'
PUBLIC	??0_Iostream_error_category@std@@QAE@XZ		; std::_Iostream_error_category::_Iostream_error_category
PUBLIC	?name@_Iostream_error_category@std@@UBEPBDXZ	; std::_Iostream_error_category::name
PUBLIC	?message@_Iostream_error_category@std@@UBE?AV?$basic_string@DU?$char_traits@D@std@@V?$allocator@D@2@@2@H@Z ; std::_Iostream_error_category::message
PUBLIC	??1_Iostream_error_category@std@@UAE@XZ		; std::_Iostream_error_category::~_Iostream_error_category
PUBLIC	??_G_Iostream_error_category@std@@UAEPAXI@Z	; std::_Iostream_error_category::`scalar deleting destructor'
PUBLIC	??0_System_error_category@std@@QAE@XZ		; std::_System_error_category::_System_error_category
PUBLIC	?name@_System_error_category@std@@UBEPBDXZ	; std::_System_error_category::name
PUBLIC	?message@_System_error_category@std@@UBE?AV?$basic_string@DU?$char_traits@D@std@@V?$allocator@D@2@@2@H@Z ; std::_System_error_category::message
PUBLIC	?default_error_condition@_System_error_category@std@@UBE?AVerror_condition@2@H@Z ; std::_System_error_category::default_error_condition
PUBLIC	??1_System_error_category@std@@UAE@XZ		; std::_System_error_category::~_System_error_category
PUBLIC	??_G_System_error_category@std@@UAEPAXI@Z	; std::_System_error_category::`scalar deleting destructor'
PUBLIC	?CurrentForegroundColor@ContextMPR@@QAEHXZ	; ContextMPR::CurrentForegroundColor
PUBLIC	?IsAGMasterMode@FireControlComputer@@QAEHXZ	; FireControlComputer::IsAGMasterMode
PUBLIC	?IsAAMasterMode@FireControlComputer@@QAEHXZ	; FireControlComputer::IsAAMasterMode
PUBLIC	?CurStationOK@SMSBaseClass@@QAEHXZ		; SMSBaseClass::CurStationOK
PUBLIC	?NumHardpoints@SMSBaseClass@@QAEHXZ		; SMSBaseClass::NumHardpoints
PUBLIC	?CurHardpoint@SMSBaseClass@@QAEHXZ		; SMSBaseClass::CurHardpoint
PUBLIC	?Ownship@SMSBaseClass@@QAEPAVSimVehicleClass@@XZ ; SMSBaseClass::Ownship
PUBLIC	?MasterArm@SMSBaseClass@@QAE?AW4MasterArmState@1@XZ ; SMSBaseClass::MasterArm
PUBLIC	?RaltReady@AircraftClass@@QAEHXZ		; AircraftClass::RaltReady
PUBLIC	??0VirtualDisplay@@QAE@XZ			; VirtualDisplay::VirtualDisplay
PUBLIC	??1VirtualDisplay@@UAE@XZ			; VirtualDisplay::~VirtualDisplay
PUBLIC	?Circle@VirtualDisplay@@UAEXMMM@Z		; VirtualDisplay::Circle
PUBLIC	?Arc@VirtualDisplay@@UAEXMMMMM@Z		; VirtualDisplay::Arc
PUBLIC	?TextWidth@VirtualDisplay@@UAEMPAD@Z		; VirtualDisplay::TextWidth
PUBLIC	?TextHeight@VirtualDisplay@@UAEMXZ		; VirtualDisplay::TextHeight
PUBLIC	?CurFont@VirtualDisplay@@SAHXZ			; VirtualDisplay::CurFont
PUBLIC	?SetLineStyle@VirtualDisplay@@UAEXH@Z		; VirtualDisplay::SetLineStyle
PUBLIC	?Color@VirtualDisplay@@UAEKXZ			; VirtualDisplay::Color
PUBLIC	??_GVirtualDisplay@@UAEPAXI@Z			; VirtualDisplay::`scalar deleting destructor'
PUBLIC	??0Render2D@@QAE@XZ				; Render2D::Render2D
PUBLIC	??1Render2D@@UAE@XZ				; Render2D::~Render2D
PUBLIC	?GetImageBuffer@Render2D@@QAEPAVImageBuffer@@XZ	; Render2D::GetImageBuffer
PUBLIC	?ClearDraw@Render2D@@UAEXXZ			; Render2D::ClearDraw
PUBLIC	?ClearZBuffer@Render2D@@UAEXXZ			; Render2D::ClearZBuffer
PUBLIC	?Color@Render2D@@UAEKXZ				; Render2D::Color
PUBLIC	?SetColor@Render2D@@UAEXK@Z			; Render2D::SetColor
PUBLIC	?SetBackground@Render2D@@UAEXK@Z		; Render2D::SetBackground
PUBLIC	?SetLineStyle@Render2D@@UAEXH@Z			; Render2D::SetLineStyle
PUBLIC	??_GRender2D@@UAEPAXI@Z				; Render2D::`scalar deleting destructor'
PUBLIC	??0Render3D@@QAE@XZ				; Render3D::Render3D
PUBLIC	??1Render3D@@UAE@XZ				; Render3D::~Render3D
PUBLIC	?Cleanup@Render3D@@UAEXXZ			; Render3D::Cleanup
PUBLIC	??_GRender3D@@UAEPAXI@Z				; Render3D::`scalar deleting destructor'
PUBLIC	??0Edge@@QAE@XZ					; Edge::Edge
PUBLIC	??1Edge@@QAE@XZ					; Edge::~Edge
PUBLIC	??0RenderOTW@@QAE@XZ				; RenderOTW::RenderOTW
PUBLIC	??1RenderOTW@@UAE@XZ				; RenderOTW::~RenderOTW
PUBLIC	??_GRenderOTW@@UAEPAXI@Z			; RenderOTW::`scalar deleting destructor'
PUBLIC	??0RenderTV@@QAE@XZ				; RenderTV::RenderTV
PUBLIC	??1RenderTV@@UAE@XZ				; RenderTV::~RenderTV
PUBLIC	?ComputeHorizonEffect@RenderTV@@MAEXPAUHorizonRecord@@@Z ; RenderTV::ComputeHorizonEffect
PUBLIC	??_GRenderTV@@UAEPAXI@Z				; RenderTV::`scalar deleting destructor'
PUBLIC	??0RenderIR@@QAE@XZ				; RenderIR::RenderIR
PUBLIC	??1RenderIR@@UAE@XZ				; RenderIR::~RenderIR
PUBLIC	?DrawMoon@RenderIR@@MAEXH@Z			; RenderIR::DrawMoon
PUBLIC	?DrawStars@RenderIR@@MAEXXZ			; RenderIR::DrawStars
PUBLIC	?SetTimeOfDayColor@RenderIR@@MAEXXZ		; RenderIR::SetTimeOfDayColor
PUBLIC	?AdjustSkyColor@RenderIR@@MAEXXZ		; RenderIR::AdjustSkyColor
PUBLIC	??_GRenderIR@@UAEPAXI@Z				; RenderIR::`scalar deleting destructor'
PUBLIC	?CurFOV@LaserPodClass@@QAEMXZ			; LaserPodClass::CurFOV
PUBLIC	??$construct@PADAAPAD@?$_Wrap_alloc@V?$allocator@D@std@@@std@@QAEXPAPADAAPAD@Z ; std::_Wrap_alloc<std::allocator<char> >::construct<char *,char * &>
PUBLIC	??$destroy@PAD@?$_Wrap_alloc@V?$allocator@D@std@@@std@@QAEXPAPAD@Z ; std::_Wrap_alloc<std::allocator<char> >::destroy<char *>
PUBLIC	??$addressof@D@std@@YAPADAAD@Z			; std::addressof<char>
PUBLIC	??$_Allocate@D@std@@YAPADIPAD@Z			; std::_Allocate<char>
PUBLIC	??$forward@AAPAD@std@@YAAAPADAAPAD@Z		; std::forward<char * &>
PUBLIC	??$construct@PADAAPAD@?$allocator_traits@V?$allocator@D@std@@@std@@SAXAAV?$allocator@D@1@PAPADAAPAD@Z ; std::allocator_traits<std::allocator<char> >::construct<char *,char * &>
PUBLIC	??$destroy@PAD@?$allocator_traits@V?$allocator@D@std@@@std@@SAXAAV?$allocator@D@1@PAPAD@Z ; std::allocator_traits<std::allocator<char> >::destroy<char *>
PUBLIC	??$construct@PADAAPAD@?$allocator@D@std@@QAEXPAPADAAPAD@Z ; std::allocator<char>::construct<char *,char * &>
PUBLIC	??$destroy@PAD@?$allocator@D@std@@QAEXPAPAD@Z	; std::allocator<char>::destroy<char *>
PUBLIC	??_7DrawableClass@@6B@				; DrawableClass::`vftable'
PUBLIC	??_7MfdDrawable@@6B@				; MfdDrawable::`vftable'
PUBLIC	??_7TgpMfdDrawable@@6B@				; TgpMfdDrawable::`vftable'
PUBLIC	??_C@_00CNPNBAHC@?$AA@				; `string'
PUBLIC	??_C@_01GFHCPBMG@C?$AA@				; `string'
PUBLIC	??_7error_category@std@@6B@			; std::error_category::`vftable'
PUBLIC	??_7_Generic_error_category@std@@6B@		; std::_Generic_error_category::`vftable'
PUBLIC	??_C@_07DCLBNMLN@generic?$AA@			; `string'
PUBLIC	??_C@_0O@BFJCFAAK@unknown?5error?$AA@		; `string'
PUBLIC	??_7_Iostream_error_category@std@@6B@		; std::_Iostream_error_category::`vftable'
PUBLIC	??_C@_08LLGCOLLL@iostream?$AA@			; `string'
PUBLIC	??_C@_0BG@PADBLCHM@iostream?5stream?5error?$AA@	; `string'
PUBLIC	??_7_System_error_category@std@@6B@		; std::_System_error_category::`vftable'
PUBLIC	??_C@_06FHFOAHML@system?$AA@			; `string'
PUBLIC	?_Generic_object@?$_Error_objects@H@std@@2V_Generic_error_category@2@A ; std::_Error_objects<int>::_Generic_object
PUBLIC	?_Iostream_object@?$_Error_objects@H@std@@2V_Iostream_error_category@2@A ; std::_Error_objects<int>::_Iostream_object
PUBLIC	?_System_object@?$_Error_objects@H@std@@2V_System_error_category@2@A ; std::_Error_objects<int>::_System_object
PUBLIC	??_C@_02DPKJAMEF@?$CFd?$AA@			; `string'
PUBLIC	?id@?$num_put@DV?$back_insert_iterator@V?$basic_string@DU?$char_traits@D@std@@V?$allocator@D@2@@std@@@std@@@std@@2V0locale@2@A ; std::num_put<char,std::back_insert_iterator<std::basic_string<char,std::char_traits<char>,std::allocator<char> > > >::id
PUBLIC	?id@?$num_put@_WV?$back_insert_iterator@V?$basic_string@_WU?$char_traits@_W@std@@V?$allocator@_W@2@@std@@@std@@@std@@2V0locale@2@A ; std::num_put<wchar_t,std::back_insert_iterator<std::basic_string<wchar_t,std::char_traits<wchar_t>,std::allocator<wchar_t> > > >::id
PUBLIC	??_7VirtualDisplay@@6B@				; VirtualDisplay::`vftable'
PUBLIC	??_7Render2D@@6B@				; Render2D::`vftable'
PUBLIC	??_7Render3D@@6B@				; Render3D::`vftable'
PUBLIC	??_7RenderOTW@@6B@				; RenderOTW::`vftable'
PUBLIC	??_7RenderTV@@6B@				; RenderTV::`vftable'
PUBLIC	??_7RenderIR@@6B@				; RenderIR::`vftable'
PUBLIC	??_C@_03FFLKHOAH@TGP?$AA@			; `string'
PUBLIC	??_C@_03MPPIHBHJ@OFF?$AA@			; `string'
PUBLIC	??_C@_02ONHIBMNM@M?5?$AA@			; `string'
PUBLIC	??_C@_01OCOKONAJ@L?$AA@				; `string'
PUBLIC	??_C@_08GFLIAMDN@00?3?$CF2?40f?$AA@		; `string'
PUBLIC	??_C@_09HKNIMLIL@00?30?$CF1?40f?$AA@		; `string'
PUBLIC	??_C@_05IPNNCKNB@00?300?$AA@			; `string'
PUBLIC	??_C@_03NAHIIPNL@SAF?$AA@			; `string'
PUBLIC	??_C@_03DNJPAHKI@SIM?$AA@			; `string'
PUBLIC	??_C@_03KDFFCEML@RDY?$AA@			; `string'
PUBLIC	??_C@_03JKFBEHPN@MAL?$AA@			; `string'
PUBLIC	??_C@_0O@MDMAMLOB@NOT?5TIMED?5OUT?$AA@		; `string'
PUBLIC	??_C@_04BKGGJKLP@STBY?$AA@			; `string'
PUBLIC	??_C@_03HCLOBDMK@A?9G?$AA@			; `string'
PUBLIC	??_C@_03KKGFKKLA@EXP?$AA@			; `string'
PUBLIC	??_C@_04OFGPHIIG@NARO?$AA@			; `string'
PUBLIC	??_C@_04KPGPJCNC@WIDE?$AA@			; `string'
PUBLIC	??_C@_02DKCKIIND@?$CFs?$AA@			; `string'
PUBLIC	??_C@_04PGDFOHNL@OVRD?$AA@			; `string'
PUBLIC	??_C@_03CEOELEEM@A?9A?$AA@			; `string'
PUBLIC	??_C@_04GKDMIDBA@CNTL?$AA@			; `string'
PUBLIC	??_C@_04OAFPCBLE@BHOT?$AA@			; `string'
PUBLIC	??_C@_04EIFPDJEG@WHOT?$AA@			; `string'
PUBLIC	??_C@_01EJNLAFE@P?$AA@				; `string'
PUBLIC	??_C@_01CPLAODJH@S?$AA@				; `string'
PUBLIC	??_C@_01POHCFINO@Z?$AA@				; `string'
PUBLIC	??_C@_01BBODEMC@G?$AA@				; `string'
PUBLIC	??_C@_01GAPBHFFA@T?$AA@				; `string'
PUBLIC	??_C@_04KICLEKHI@GRAY?$AA@			; `string'
PUBLIC	??_C@_02BFICIOJL@ON?$AA@			; `string'
PUBLIC	??_C@_06FKALCHIE@L?500?40?$AA@			; `string'
PUBLIC	??_C@_06ODKPFCN@T?500?40?$AA@			; `string'
PUBLIC	??_C@_08ONIGECHO@L?50?$CF1?41f?$AA@		; `string'
PUBLIC	??_C@_08PKJOKCBH@T?50?$CF1?41f?$AA@		; `string'
PUBLIC	??_C@_07PBDBCKEA@L?5?$CF2?41f?$AA@		; `string'
PUBLIC	??_C@_07FOGPAANO@T?5?$CF2?41f?$AA@		; `string'
PUBLIC	?id@?$numpunct@D@std@@2V0locale@2@A		; std::numpunct<char>::id
PUBLIC	?id@?$numpunct@_W@std@@2V0locale@2@A		; std::numpunct<wchar_t>::id
PUBLIC	??_C@_0BI@CFPLBAOH@invalid?5string?5position?$AA@ ; `string'
PUBLIC	??_C@_0BA@JFNIOLAK@string?5too?5long?$AA@	; `string'
PUBLIC	??_R4VirtualDisplay@@6B@			; VirtualDisplay::`RTTI Complete Object Locator'
PUBLIC	??_R0?AVVirtualDisplay@@@8			; VirtualDisplay `RTTI Type Descriptor'
PUBLIC	??_R3VirtualDisplay@@8				; VirtualDisplay::`RTTI Class Hierarchy Descriptor'
PUBLIC	??_R2VirtualDisplay@@8				; VirtualDisplay::`RTTI Base Class Array'
PUBLIC	??_R1A@?0A@EA@VirtualDisplay@@8			; VirtualDisplay::`RTTI Base Class Descriptor at (0,-1,0,64)'
PUBLIC	??_R4DrawableClass@@6B@				; DrawableClass::`RTTI Complete Object Locator'
PUBLIC	??_R0?AVDrawableClass@@@8			; DrawableClass `RTTI Type Descriptor'
PUBLIC	??_R3DrawableClass@@8				; DrawableClass::`RTTI Class Hierarchy Descriptor'
PUBLIC	??_R2DrawableClass@@8				; DrawableClass::`RTTI Base Class Array'
PUBLIC	??_R1A@?0A@EA@DrawableClass@@8			; DrawableClass::`RTTI Base Class Descriptor at (0,-1,0,64)'
PUBLIC	??_R4Render3D@@6B@				; Render3D::`RTTI Complete Object Locator'
PUBLIC	??_R0?AVRender3D@@@8				; Render3D `RTTI Type Descriptor'
PUBLIC	??_R3Render3D@@8				; Render3D::`RTTI Class Hierarchy Descriptor'
PUBLIC	??_R2Render3D@@8				; Render3D::`RTTI Base Class Array'
PUBLIC	??_R1A@?0A@EA@Render3D@@8			; Render3D::`RTTI Base Class Descriptor at (0,-1,0,64)'
PUBLIC	??_R1A@?0A@EA@Render2D@@8			; Render2D::`RTTI Base Class Descriptor at (0,-1,0,64)'
PUBLIC	??_R0?AVRender2D@@@8				; Render2D `RTTI Type Descriptor'
PUBLIC	??_R3Render2D@@8				; Render2D::`RTTI Class Hierarchy Descriptor'
PUBLIC	??_R2Render2D@@8				; Render2D::`RTTI Base Class Array'
PUBLIC	??_R4MfdDrawable@@6B@				; MfdDrawable::`RTTI Complete Object Locator'
PUBLIC	??_R0?AVMfdDrawable@@@8				; MfdDrawable `RTTI Type Descriptor'
PUBLIC	??_R3MfdDrawable@@8				; MfdDrawable::`RTTI Class Hierarchy Descriptor'
PUBLIC	??_R2MfdDrawable@@8				; MfdDrawable::`RTTI Base Class Array'
PUBLIC	??_R1A@?0A@EA@MfdDrawable@@8			; MfdDrawable::`RTTI Base Class Descriptor at (0,-1,0,64)'
PUBLIC	??_R4TgpMfdDrawable@@6B@			; TgpMfdDrawable::`RTTI Complete Object Locator'
PUBLIC	??_R0?AVTgpMfdDrawable@@@8			; TgpMfdDrawable `RTTI Type Descriptor'
PUBLIC	??_R3TgpMfdDrawable@@8				; TgpMfdDrawable::`RTTI Class Hierarchy Descriptor'
PUBLIC	??_R2TgpMfdDrawable@@8				; TgpMfdDrawable::`RTTI Base Class Array'
PUBLIC	??_R1A@?0A@EA@TgpMfdDrawable@@8			; TgpMfdDrawable::`RTTI Base Class Descriptor at (0,-1,0,64)'
PUBLIC	??_R4error_category@std@@6B@			; std::error_category::`RTTI Complete Object Locator'
PUBLIC	??_R0?AVerror_category@std@@@8			; std::error_category `RTTI Type Descriptor'
PUBLIC	??_R3error_category@std@@8			; std::error_category::`RTTI Class Hierarchy Descriptor'
PUBLIC	??_R2error_category@std@@8			; std::error_category::`RTTI Base Class Array'
PUBLIC	??_R1A@?0A@EA@error_category@std@@8		; std::error_category::`RTTI Base Class Descriptor at (0,-1,0,64)'
PUBLIC	??_R4_Generic_error_category@std@@6B@		; std::_Generic_error_category::`RTTI Complete Object Locator'
PUBLIC	??_R0?AV_Generic_error_category@std@@@8		; std::_Generic_error_category `RTTI Type Descriptor'
PUBLIC	??_R3_Generic_error_category@std@@8		; std::_Generic_error_category::`RTTI Class Hierarchy Descriptor'
PUBLIC	??_R2_Generic_error_category@std@@8		; std::_Generic_error_category::`RTTI Base Class Array'
PUBLIC	??_R1A@?0A@EA@_Generic_error_category@std@@8	; std::_Generic_error_category::`RTTI Base Class Descriptor at (0,-1,0,64)'
PUBLIC	??_R4_Iostream_error_category@std@@6B@		; std::_Iostream_error_category::`RTTI Complete Object Locator'
PUBLIC	??_R0?AV_Iostream_error_category@std@@@8	; std::_Iostream_error_category `RTTI Type Descriptor'
PUBLIC	??_R3_Iostream_error_category@std@@8		; std::_Iostream_error_category::`RTTI Class Hierarchy Descriptor'
PUBLIC	??_R2_Iostream_error_category@std@@8		; std::_Iostream_error_category::`RTTI Base Class Array'
PUBLIC	??_R1A@?0A@EA@_Iostream_error_category@std@@8	; std::_Iostream_error_category::`RTTI Base Class Descriptor at (0,-1,0,64)'
PUBLIC	??_R4_System_error_category@std@@6B@		; std::_System_error_category::`RTTI Complete Object Locator'
PUBLIC	??_R0?AV_System_error_category@std@@@8		; std::_System_error_category `RTTI Type Descriptor'
PUBLIC	??_R3_System_error_category@std@@8		; std::_System_error_category::`RTTI Class Hierarchy Descriptor'
PUBLIC	??_R2_System_error_category@std@@8		; std::_System_error_category::`RTTI Base Class Array'
PUBLIC	??_R1A@?0A@EA@_System_error_category@std@@8	; std::_System_error_category::`RTTI Base Class Descriptor at (0,-1,0,64)'
PUBLIC	??_R4Render2D@@6B@				; Render2D::`RTTI Complete Object Locator'
PUBLIC	??_R4RenderOTW@@6B@				; RenderOTW::`RTTI Complete Object Locator'
PUBLIC	??_R0?AVRenderOTW@@@8				; RenderOTW `RTTI Type Descriptor'
PUBLIC	??_R3RenderOTW@@8				; RenderOTW::`RTTI Class Hierarchy Descriptor'
PUBLIC	??_R2RenderOTW@@8				; RenderOTW::`RTTI Base Class Array'
PUBLIC	??_R1A@?0A@EA@RenderOTW@@8			; RenderOTW::`RTTI Base Class Descriptor at (0,-1,0,64)'
PUBLIC	??_R4RenderTV@@6B@				; RenderTV::`RTTI Complete Object Locator'
PUBLIC	??_R0?AVRenderTV@@@8				; RenderTV `RTTI Type Descriptor'
PUBLIC	??_R3RenderTV@@8				; RenderTV::`RTTI Class Hierarchy Descriptor'
PUBLIC	??_R2RenderTV@@8				; RenderTV::`RTTI Base Class Array'
PUBLIC	??_R1A@?0A@EA@RenderTV@@8			; RenderTV::`RTTI Base Class Descriptor at (0,-1,0,64)'
PUBLIC	??_R4RenderIR@@6B@				; RenderIR::`RTTI Complete Object Locator'
PUBLIC	??_R0?AVRenderIR@@@8				; RenderIR `RTTI Type Descriptor'
PUBLIC	??_R3RenderIR@@8				; RenderIR::`RTTI Class Hierarchy Descriptor'
PUBLIC	??_R2RenderIR@@8				; RenderIR::`RTTI Base Class Array'
PUBLIC	??_R1A@?0A@EA@RenderIR@@8			; RenderIR::`RTTI Base Class Descriptor at (0,-1,0,64)'
PUBLIC	__real@00000000
PUBLIC	__real@392c987a
PUBLIC	__real@3cf30fbf
PUBLIC	__real@3d4ccccd
PUBLIC	__real@3d7a35db
PUBLIC	__real@3dd6774e
PUBLIC	__real@3e4ccccd
PUBLIC	__real@3f0ccccd
PUBLIC	__real@3f19999a
PUBLIC	__real@3f400000
PUBLIC	__real@3fa78d35
PUBLIC	__real@40000000
PUBLIC	__real@41200000
PUBLIC	__real@beb2b8c1
PUBLIC	__xmm@80000000800000008000000080000000
EXTRN	__purecall:PROC
EXTRN	??2@YAPAXI@Z:PROC				; operator new
EXTRN	??3@YAXPAX@Z:PROC				; operator delete
EXTRN	_atexit:PROC
EXTRN	_sprintf:PROC
EXTRN	_fabs:PROC
EXTRN	_memcpy:PROC
EXTRN	_strlen:PROC
EXTRN	_memmove:PROC
EXTRN	?_Xbad_alloc@std@@YAXXZ:PROC			; std::_Xbad_alloc
EXTRN	?_Xlength_error@std@@YAXPBD@Z:PROC		; std::_Xlength_error
EXTRN	?_Xout_of_range@std@@YAXPBD@Z:PROC		; std::_Xout_of_range
EXTRN	?DisplayExit@DrawableClass@@UAEXXZ:PROC		; DrawableClass::DisplayExit
EXTRN	?LabelButton@DrawableClass@@QAEXHPAD0H@Z:PROC	; DrawableClass::LabelButton
EXTRN	?GetButtonPos@DrawableClass@@QAEXHPAM0@Z:PROC	; DrawableClass::GetButtonPos
EXTRN	?GetMfdColor@DrawableClass@@QAEIW4MfdColor@@@Z:PROC ; DrawableClass::GetMfdColor
EXTRN	??_EDrawableClass@@UAEPAXI@Z:PROC		; DrawableClass::`vector deleting destructor'
EXTRN	??1MfdDrawable@@UAE@XZ:PROC			; MfdDrawable::~MfdDrawable
EXTRN	?DisplayInit@MfdDrawable@@UAEXPAVImageBuffer@@@Z:PROC ; MfdDrawable::DisplayInit
EXTRN	?PushButton@MfdDrawable@@UAEXHH@Z:PROC		; MfdDrawable::PushButton
EXTRN	?BottomRow@MfdDrawable@@QAEXXZ:PROC		; MfdDrawable::BottomRow
EXTRN	?DrawReference@MfdDrawable@@QAEXPAVAircraftClass@@@Z:PROC ; MfdDrawable::DrawReference
EXTRN	?DrawRedBreak@MfdDrawable@@QAEXPAVVirtualDisplay@@@Z:PROC ; MfdDrawable::DrawRedBreak
EXTRN	?TGPAttitudeWarning@MfdDrawable@@QAEXPAVVirtualDisplay@@@Z:PROC ; MfdDrawable::TGPAttitudeWarning
EXTRN	??_EMfdDrawable@@UAEPAXI@Z:PROC			; MfdDrawable::`vector deleting destructor'
EXTRN	??_ETgpMfdDrawable@@UAEPAXI@Z:PROC		; TgpMfdDrawable::`vector deleting destructor'
EXTRN	??_Eerror_category@std@@UAEPAXI@Z:PROC		; std::error_category::`vector deleting destructor'
EXTRN	?_Syserror_map@std@@YAPBDH@Z:PROC		; std::_Syserror_map
EXTRN	?_Winerror_map@std@@YAPBDH@Z:PROC		; std::_Winerror_map
EXTRN	??_E_Generic_error_category@std@@UAEPAXI@Z:PROC	; std::_Generic_error_category::`vector deleting destructor'
EXTRN	??_E_Iostream_error_category@std@@UAEPAXI@Z:PROC ; std::_Iostream_error_category::`vector deleting destructor'
EXTRN	??_E_System_error_category@std@@UAEPAXI@Z:PROC	; std::_System_error_category::`vector deleting destructor'
EXTRN	??0ContextMPR@@QAE@XZ:PROC			; ContextMPR::ContextMPR
EXTRN	??1ContextMPR@@UAE@XZ:PROC			; ContextMPR::~ContextMPR
EXTRN	?SetState@ContextMPR@@QAEXGK@Z:PROC		; ContextMPR::SetState
EXTRN	?ClearBuffers@ContextMPR@@QAEXG@Z:PROC		; ContextMPR::ClearBuffers
EXTRN	?SelectForegroundColor@ContextMPR@@QAEXH@Z:PROC	; ContextMPR::SelectForegroundColor
EXTRN	?RestoreState@ContextMPR@@QAEXH@Z:PROC		; ContextMPR::RestoreState
EXTRN	?FindRollAngle@HudClass@@QAEHM@Z:PROC		; HudClass::FindRollAngle
EXTRN	?FindPitchAngle@HudClass@@QAEHM@Z:PROC		; HudClass::FindPitchAngle
EXTRN	?FindSensor@@YAPAVSensorClass@@PAVSimMoverClass@@H@Z:PROC ; FindSensor
EXTRN	?GetMainMasterMode@FireControlComputer@@QAE?AW4MASTERMODES@@XZ:PROC ; FireControlComputer::GetMainMasterMode
EXTRN	?RecalcPos@FireControlComputer@@QAEXXZ:PROC	; FireControlComputer::RecalcPos
EXTRN	?StationOK@SMSBaseClass@@QAEHH@Z:PROC		; SMSBaseClass::StationOK
EXTRN	?HasPower@AircraftClass@@QAEHW4AvionicsPowerFlags@1@@Z:PROC ; AircraftClass::HasPower
EXTRN	?GetPlayerAircraft@SimulationDriver@@QBEPAVAircraftClass@@XZ:PROC ; SimulationDriver::GetPlayerAircraft
EXTRN	?Setup@VirtualDisplay@@UAEXXZ:PROC		; VirtualDisplay::Setup
EXTRN	?Cleanup@VirtualDisplay@@UAEXXZ:PROC		; VirtualDisplay::Cleanup
EXTRN	?Point@VirtualDisplay@@UAEXMM@Z:PROC		; VirtualDisplay::Point
EXTRN	?Line@VirtualDisplay@@UAEXMMMM@Z:PROC		; VirtualDisplay::Line
EXTRN	?Line@VirtualDisplay@@UAEXMMMMM@Z:PROC		; VirtualDisplay::Line
EXTRN	?Tri@VirtualDisplay@@UAEXMMMMMM@Z:PROC		; VirtualDisplay::Tri
EXTRN	?Oval@VirtualDisplay@@UAEXMMMM@Z:PROC		; VirtualDisplay::Oval
EXTRN	?OvalArc@VirtualDisplay@@UAEXMMMMMM@Z:PROC	; VirtualDisplay::OvalArc
EXTRN	?TextLeft@VirtualDisplay@@UAEXMMPBDH@Z:PROC	; VirtualDisplay::TextLeft
EXTRN	?TextRight@VirtualDisplay@@UAEXMMPBDH@Z:PROC	; VirtualDisplay::TextRight
EXTRN	?TextLeftVertical@VirtualDisplay@@UAEXMMPBDH@Z:PROC ; VirtualDisplay::TextLeftVertical
EXTRN	?TextRightVertical@VirtualDisplay@@UAEXMMPBDH@Z:PROC ; VirtualDisplay::TextRightVertical
EXTRN	?TextCenter@VirtualDisplay@@UAEXMMPBDH@Z:PROC	; VirtualDisplay::TextCenter
EXTRN	?TextCenterVertical@VirtualDisplay@@UAEXMMPBDH@Z:PROC ; VirtualDisplay::TextCenterVertical
EXTRN	?TextWrap@VirtualDisplay@@UAEHMMPBDMM@Z:PROC	; VirtualDisplay::TextWrap
EXTRN	?ScreenTextHeight@VirtualDisplay@@SAHXZ:PROC	; VirtualDisplay::ScreenTextHeight
EXTRN	?ScreenTextWidth@VirtualDisplay@@SAHPBD@Z:PROC	; VirtualDisplay::ScreenTextWidth
EXTRN	?SetFont@VirtualDisplay@@SAXH@Z:PROC		; VirtualDisplay::SetFont
EXTRN	?SetViewport@VirtualDisplay@@UAEXMMMM@Z:PROC	; VirtualDisplay::SetViewport
EXTRN	?SetViewportRelative@VirtualDisplay@@UAEXMMMM@Z:PROC ; VirtualDisplay::SetViewportRelative
EXTRN	?Render2DTri@VirtualDisplay@@MAEXMMMMMM@Z:PROC	; VirtualDisplay::Render2DTri
EXTRN	??_EVirtualDisplay@@UAEPAXI@Z:PROC		; VirtualDisplay::`vector deleting destructor'
EXTRN	?Setup@Render2D@@UAEXPAVImageBuffer@@@Z:PROC	; Render2D::Setup
EXTRN	?Cleanup@Render2D@@UAEXXZ:PROC			; Render2D::Cleanup
EXTRN	?SetImageBuffer@Render2D@@UAEXPAVImageBuffer@@@Z:PROC ; Render2D::SetImageBuffer
EXTRN	?StartDraw@Render2D@@UAEXXZ:PROC		; Render2D::StartDraw
EXTRN	?EndDraw@Render2D@@UAEXXZ:PROC			; Render2D::EndDraw
EXTRN	?SetViewport@Render2D@@UAEXMMMM@Z:PROC		; Render2D::SetViewport
EXTRN	?Render2DPoint@Render2D@@UAEXMM@Z:PROC		; Render2D::Render2DPoint
EXTRN	?Render2DLine@Render2D@@UAEXMMMM@Z:PROC		; Render2D::Render2DLine
EXTRN	?Render2DTri@Render2D@@UAEXMMMMMM@Z:PROC	; Render2D::Render2DTri
EXTRN	?ScreenText@Render2D@@UAEXMMPBDH@Z:PROC		; Render2D::ScreenText
EXTRN	??_ERender2D@@UAEPAXI@Z:PROC			; Render2D::`vector deleting destructor'
EXTRN	?Setup@Render3D@@UAEXPAVImageBuffer@@@Z:PROC	; Render3D::Setup
EXTRN	?StartDraw@Render3D@@UAEXXZ:PROC		; Render3D::StartDraw
EXTRN	?SetFOV@Render3D@@QAEXMM@Z:PROC			; Render3D::SetFOV
EXTRN	?SetViewport@Render3D@@UAEXMMMM@Z:PROC		; Render3D::SetViewport
EXTRN	??_ERender3D@@UAEPAXI@Z:PROC			; Render3D::`vector deleting destructor'
EXTRN	?Setup@RenderOTW@@UAEXPAVImageBuffer@@PAVRViewPoint@@@Z:PROC ; RenderOTW::Setup
EXTRN	?Cleanup@RenderOTW@@UAEXXZ:PROC			; RenderOTW::Cleanup
EXTRN	?StartDraw@RenderOTW@@UAEXXZ:PROC		; RenderOTW::StartDraw
EXTRN	?EndDraw@RenderOTW@@UAEXXZ:PROC			; RenderOTW::EndDraw
EXTRN	?ComputeVertexColor@RenderOTW@@MAEXPAUTerrainVertex@@PAUTpost@@MMM@Z:PROC ; RenderOTW::ComputeVertexColor
EXTRN	?ProcessColor@RenderOTW@@MAEXPAUTcolor@@@Z:PROC	; RenderOTW::ProcessColor
EXTRN	?DrawSun@RenderOTW@@MAEXXZ:PROC			; RenderOTW::DrawSun
EXTRN	?DrawMoon@RenderOTW@@MAEXXZ:PROC		; RenderOTW::DrawMoon
EXTRN	?DrawStars@RenderOTW@@MAEXXZ:PROC		; RenderOTW::DrawStars
EXTRN	?ComputeHorizonEffect@RenderOTW@@MAEXPAUHorizonRecord@@@Z:PROC ; RenderOTW::ComputeHorizonEffect
EXTRN	?SetTimeOfDayColor@RenderOTW@@MAEXXZ:PROC	; RenderOTW::SetTimeOfDayColor
EXTRN	?AdjustSkyColor@RenderOTW@@MAEXXZ:PROC		; RenderOTW::AdjustSkyColor
EXTRN	??_ERenderOTW@@UAEPAXI@Z:PROC			; RenderOTW::`vector deleting destructor'
EXTRN	?Setup@RenderTV@@UAEXPAVImageBuffer@@PAVRViewPoint@@@Z:PROC ; RenderTV::Setup
EXTRN	?StartDraw@RenderTV@@UAEXXZ:PROC		; RenderTV::StartDraw
EXTRN	?EndDraw@RenderTV@@UAEXXZ:PROC			; RenderTV::EndDraw
EXTRN	?SetColor@RenderTV@@UAEXK@Z:PROC		; RenderTV::SetColor
EXTRN	?DrawSun@RenderTV@@MAEXXZ:PROC			; RenderTV::DrawSun
EXTRN	?DrawMoon@RenderTV@@MAEXXZ:PROC			; RenderTV::DrawMoon
EXTRN	?ProcessColor@RenderTV@@MAEXPAUTcolor@@@Z:PROC	; RenderTV::ProcessColor
EXTRN	?ComputeVertexColor@RenderTV@@MAEXPAUTerrainVertex@@PAUTpost@@MMM@Z:PROC ; RenderTV::ComputeVertexColor
EXTRN	??_ERenderTV@@UAEPAXI@Z:PROC			; RenderTV::`vector deleting destructor'
EXTRN	?Setup@RenderIR@@UAEXPAVImageBuffer@@PAVRViewPoint@@@Z:PROC ; RenderIR::Setup
EXTRN	?StartDraw@RenderIR@@UAEXXZ:PROC		; RenderIR::StartDraw
EXTRN	?EndDraw@RenderIR@@UAEXXZ:PROC			; RenderIR::EndDraw
EXTRN	?ComputeVertexColor@RenderIR@@MAEXPAUTerrainVertex@@PAUTpost@@MMM@Z:PROC ; RenderIR::ComputeVertexColor
EXTRN	??_ERenderIR@@UAEPAXI@Z:PROC			; RenderIR::`vector deleting destructor'
EXTRN	?GetViewpoint@OTWDriverClass@@QAEPAVRViewPoint@@XZ:PROC ; OTWDriverClass::GetViewpoint
EXTRN	?GetFault@FackClass@@QAEHW4type_FSubSystem@FaultClass@@@Z:PROC ; FackClass::GetFault
EXTRN	?GetFault@FackClass@@QAEHW4type_CSubSystem@@@Z:PROC ; FackClass::GetFault
EXTRN	?ToggleFOV@LaserPodClass@@QAEXXZ:PROC		; LaserPodClass::ToggleFOV
EXTRN	?DrawBullseyeCircle@@YAXPAVVirtualDisplay@@MM@Z:PROC ; DrawBullseyeCircle
EXTRN	?FindLaserPod@@YAPAVSensorClass@@PAVSimMoverClass@@@Z:PROC ; FindLaserPod
EXTRN	@__security_check_cookie@4:PROC
EXTRN	__CxxThrowException@8:PROC
EXTRN	___CxxFrameHandler3:PROC
EXTRN	?vuxRealTime@@3KA:DWORD				; vuxRealTime
EXTRN	?g_bRealisticAvionics@@3_NA:BYTE		; g_bRealisticAvionics
EXTRN	?MfdDisplay@@3PAPAVMFDClass@@A:BYTE		; MfdDisplay
EXTRN	??_7type_info@@6B@:QWORD			; type_info::`vftable'
EXTRN	?TheHud@@3PAVHudClass@@A:DWORD			; TheHud
EXTRN	?SimDriver@@3VSimulationDriver@@A:BYTE		; SimDriver
EXTRN	?pFontSet@VirtualDisplay@@2PAUFontSet@@A:DWORD	; VirtualDisplay::pFontSet
EXTRN	?OTWDriver@@3VOTWDriverClass@@A:BYTE		; OTWDriver
EXTRN	?g_bGreyMFD@@3_NA:BYTE				; g_bGreyMFD
EXTRN	?g_bGreyScaleMFD@@3_NA:BYTE			; g_bGreyScaleMFD
EXTRN	?bNVGmode@@3_NA:BYTE				; bNVGmode
EXTRN	___security_cookie:DWORD
EXTRN	__fltused:DWORD
_BSS	SEGMENT
_piecewise_construct DB 01H DUP (?)
	ALIGN	4

_allocator_arg DB 01H DUP (?)
_BSS	ENDS
;	COMDAT ?_Generic_object@?$_Error_objects@H@std@@2V_Generic_error_category@2@A
_BSS	SEGMENT
?_Generic_object@?$_Error_objects@H@std@@2V_Generic_error_category@2@A DD 01H DUP (?) ; std::_Error_objects<int>::_Generic_object
_BSS	ENDS
;	COMDAT ?_Iostream_object@?$_Error_objects@H@std@@2V_Iostream_error_category@2@A
_BSS	SEGMENT
?_Iostream_object@?$_Error_objects@H@std@@2V_Iostream_error_category@2@A DD 01H DUP (?) ; std::_Error_objects<int>::_Iostream_object
_BSS	ENDS
;	COMDAT ?_System_object@?$_Error_objects@H@std@@2V_System_error_category@2@A
_BSS	SEGMENT
?_System_object@?$_Error_objects@H@std@@2V_System_error_category@2@A DD 01H DUP (?) ; std::_Error_objects<int>::_System_object
_BSS	ENDS
;	COMDAT ?id@?$num_put@DV?$back_insert_iterator@V?$basic_string@DU?$char_traits@D@std@@V?$allocator@D@2@@std@@@std@@@std@@2V0locale@2@A
_BSS	SEGMENT
?id@?$num_put@DV?$back_insert_iterator@V?$basic_string@DU?$char_traits@D@std@@V?$allocator@D@2@@std@@@std@@@std@@2V0locale@2@A DD 01H DUP (?) ; std::num_put<char,std::back_insert_iterator<std::basic_string<char,std::char_traits<char>,std::allocator<char> > > >::id
_BSS	ENDS
;	COMDAT ?id@?$num_put@_WV?$back_insert_iterator@V?$basic_string@_WU?$char_traits@_W@std@@V?$allocator@_W@2@@std@@@std@@@std@@2V0locale@2@A
_BSS	SEGMENT
?id@?$num_put@_WV?$back_insert_iterator@V?$basic_string@_WU?$char_traits@_W@std@@V?$allocator@_W@2@@std@@@std@@@std@@2V0locale@2@A DD 01H DUP (?) ; std::num_put<wchar_t,std::back_insert_iterator<std::basic_string<wchar_t,std::char_traits<wchar_t>,std::allocator<wchar_t> > > >::id
_BSS	ENDS
;	COMDAT ?id@?$numpunct@D@std@@2V0locale@2@A
_BSS	SEGMENT
?id@?$numpunct@D@std@@2V0locale@2@A DD 01H DUP (?)	; std::numpunct<char>::id
_BSS	ENDS
;	COMDAT ?id@?$numpunct@_W@std@@2V0locale@2@A
_BSS	SEGMENT
?id@?$numpunct@_W@std@@2V0locale@2@A DD 01H DUP (?)	; std::numpunct<wchar_t>::id
_BSS	ENDS
CRT$XCU	SEGMENT
_piecewise_construct$initializer$ DD FLAT:??__Epiecewise_construct@std@@YAXXZ
CRT$XCU	ENDS
;	COMDAT __xmm@80000000800000008000000080000000
CONST	SEGMENT
__xmm@80000000800000008000000080000000 DB 00H, 00H, 00H, 080H, 00H, 00H, 00H
	DB	080H, 00H, 00H, 00H, 080H, 00H, 00H, 00H, 080H
CONST	ENDS
;	COMDAT __real@beb2b8c1
CONST	SEGMENT
__real@beb2b8c1 DD 0beb2b8c1r			; -0.349066
CONST	ENDS
;	COMDAT __real@41200000
CONST	SEGMENT
__real@41200000 DD 041200000r			; 10
CONST	ENDS
;	COMDAT __real@40000000
CONST	SEGMENT
__real@40000000 DD 040000000r			; 2
CONST	ENDS
;	COMDAT __real@3fa78d35
CONST	SEGMENT
__real@3fa78d35 DD 03fa78d35r			; 1.309
CONST	ENDS
;	COMDAT __real@3f400000
CONST	SEGMENT
__real@3f400000 DD 03f400000r			; 0.75
CONST	ENDS
;	COMDAT __real@3f19999a
CONST	SEGMENT
__real@3f19999a DD 03f19999ar			; 0.6
CONST	ENDS
;	COMDAT __real@3f0ccccd
CONST	SEGMENT
__real@3f0ccccd DD 03f0ccccdr			; 0.55
CONST	ENDS
;	COMDAT __real@3e4ccccd
CONST	SEGMENT
__real@3e4ccccd DD 03e4ccccdr			; 0.2
CONST	ENDS
;	COMDAT __real@3dd6774e
CONST	SEGMENT
__real@3dd6774e DD 03dd6774er			; 0.10472
CONST	ENDS
;	COMDAT __real@3d7a35db
CONST	SEGMENT
__real@3d7a35db DD 03d7a35dbr			; 0.0610865
CONST	ENDS
;	COMDAT __real@3d4ccccd
CONST	SEGMENT
__real@3d4ccccd DD 03d4ccccdr			; 0.05
CONST	ENDS
;	COMDAT __real@3cf30fbf
CONST	SEGMENT
__real@3cf30fbf DD 03cf30fbfr			; 0.0296706
CONST	ENDS
;	COMDAT __real@392c987a
CONST	SEGMENT
__real@392c987a DD 0392c987ar			; 0.0001646
CONST	ENDS
;	COMDAT __real@00000000
CONST	SEGMENT
__real@00000000 DD 000000000r			; 0
CONST	ENDS
;	COMDAT ??_R1A@?0A@EA@RenderIR@@8
rdata$r	SEGMENT
??_R1A@?0A@EA@RenderIR@@8 DD FLAT:??_R0?AVRenderIR@@@8	; RenderIR::`RTTI Base Class Descriptor at (0,-1,0,64)'
	DD	05H
	DD	00H
	DD	0ffffffffH
	DD	00H
	DD	040H
	DD	FLAT:??_R3RenderIR@@8
rdata$r	ENDS
;	COMDAT ??_R2RenderIR@@8
rdata$r	SEGMENT
??_R2RenderIR@@8 DD FLAT:??_R1A@?0A@EA@RenderIR@@8	; RenderIR::`RTTI Base Class Array'
	DD	FLAT:??_R1A@?0A@EA@RenderTV@@8
	DD	FLAT:??_R1A@?0A@EA@RenderOTW@@8
	DD	FLAT:??_R1A@?0A@EA@Render3D@@8
	DD	FLAT:??_R1A@?0A@EA@Render2D@@8
	DD	FLAT:??_R1A@?0A@EA@VirtualDisplay@@8
rdata$r	ENDS
;	COMDAT ??_R3RenderIR@@8
rdata$r	SEGMENT
??_R3RenderIR@@8 DD 00H					; RenderIR::`RTTI Class Hierarchy Descriptor'
	DD	00H
	DD	06H
	DD	FLAT:??_R2RenderIR@@8
rdata$r	ENDS
;	COMDAT ??_R0?AVRenderIR@@@8
_DATA	SEGMENT
??_R0?AVRenderIR@@@8 DD FLAT:??_7type_info@@6B@		; RenderIR `RTTI Type Descriptor'
	DD	00H
	DB	'.?AVRenderIR@@', 00H
_DATA	ENDS
;	COMDAT ??_R4RenderIR@@6B@
rdata$r	SEGMENT
??_R4RenderIR@@6B@ DD 00H				; RenderIR::`RTTI Complete Object Locator'
	DD	00H
	DD	00H
	DD	FLAT:??_R0?AVRenderIR@@@8
	DD	FLAT:??_R3RenderIR@@8
rdata$r	ENDS
;	COMDAT ??_R1A@?0A@EA@RenderTV@@8
rdata$r	SEGMENT
??_R1A@?0A@EA@RenderTV@@8 DD FLAT:??_R0?AVRenderTV@@@8	; RenderTV::`RTTI Base Class Descriptor at (0,-1,0,64)'
	DD	04H
	DD	00H
	DD	0ffffffffH
	DD	00H
	DD	040H
	DD	FLAT:??_R3RenderTV@@8
rdata$r	ENDS
;	COMDAT ??_R2RenderTV@@8
rdata$r	SEGMENT
??_R2RenderTV@@8 DD FLAT:??_R1A@?0A@EA@RenderTV@@8	; RenderTV::`RTTI Base Class Array'
	DD	FLAT:??_R1A@?0A@EA@RenderOTW@@8
	DD	FLAT:??_R1A@?0A@EA@Render3D@@8
	DD	FLAT:??_R1A@?0A@EA@Render2D@@8
	DD	FLAT:??_R1A@?0A@EA@VirtualDisplay@@8
rdata$r	ENDS
;	COMDAT ??_R3RenderTV@@8
rdata$r	SEGMENT
??_R3RenderTV@@8 DD 00H					; RenderTV::`RTTI Class Hierarchy Descriptor'
	DD	00H
	DD	05H
	DD	FLAT:??_R2RenderTV@@8
rdata$r	ENDS
;	COMDAT ??_R0?AVRenderTV@@@8
_DATA	SEGMENT
??_R0?AVRenderTV@@@8 DD FLAT:??_7type_info@@6B@		; RenderTV `RTTI Type Descriptor'
	DD	00H
	DB	'.?AVRenderTV@@', 00H
_DATA	ENDS
;	COMDAT ??_R4RenderTV@@6B@
rdata$r	SEGMENT
??_R4RenderTV@@6B@ DD 00H				; RenderTV::`RTTI Complete Object Locator'
	DD	00H
	DD	00H
	DD	FLAT:??_R0?AVRenderTV@@@8
	DD	FLAT:??_R3RenderTV@@8
rdata$r	ENDS
;	COMDAT ??_R1A@?0A@EA@RenderOTW@@8
rdata$r	SEGMENT
??_R1A@?0A@EA@RenderOTW@@8 DD FLAT:??_R0?AVRenderOTW@@@8 ; RenderOTW::`RTTI Base Class Descriptor at (0,-1,0,64)'
	DD	03H
	DD	00H
	DD	0ffffffffH
	DD	00H
	DD	040H
	DD	FLAT:??_R3RenderOTW@@8
rdata$r	ENDS
;	COMDAT ??_R2RenderOTW@@8
rdata$r	SEGMENT
??_R2RenderOTW@@8 DD FLAT:??_R1A@?0A@EA@RenderOTW@@8	; RenderOTW::`RTTI Base Class Array'
	DD	FLAT:??_R1A@?0A@EA@Render3D@@8
	DD	FLAT:??_R1A@?0A@EA@Render2D@@8
	DD	FLAT:??_R1A@?0A@EA@VirtualDisplay@@8
rdata$r	ENDS
;	COMDAT ??_R3RenderOTW@@8
rdata$r	SEGMENT
??_R3RenderOTW@@8 DD 00H				; RenderOTW::`RTTI Class Hierarchy Descriptor'
	DD	00H
	DD	04H
	DD	FLAT:??_R2RenderOTW@@8
rdata$r	ENDS
;	COMDAT ??_R0?AVRenderOTW@@@8
_DATA	SEGMENT
??_R0?AVRenderOTW@@@8 DD FLAT:??_7type_info@@6B@	; RenderOTW `RTTI Type Descriptor'
	DD	00H
	DB	'.?AVRenderOTW@@', 00H
_DATA	ENDS
;	COMDAT ??_R4RenderOTW@@6B@
rdata$r	SEGMENT
??_R4RenderOTW@@6B@ DD 00H				; RenderOTW::`RTTI Complete Object Locator'
	DD	00H
	DD	00H
	DD	FLAT:??_R0?AVRenderOTW@@@8
	DD	FLAT:??_R3RenderOTW@@8
rdata$r	ENDS
;	COMDAT ??_R4Render2D@@6B@
rdata$r	SEGMENT
??_R4Render2D@@6B@ DD 00H				; Render2D::`RTTI Complete Object Locator'
	DD	00H
	DD	00H
	DD	FLAT:??_R0?AVRender2D@@@8
	DD	FLAT:??_R3Render2D@@8
rdata$r	ENDS
;	COMDAT ??_R1A@?0A@EA@_System_error_category@std@@8
rdata$r	SEGMENT
??_R1A@?0A@EA@_System_error_category@std@@8 DD FLAT:??_R0?AV_System_error_category@std@@@8 ; std::_System_error_category::`RTTI Base Class Descriptor at (0,-1,0,64)'
	DD	02H
	DD	00H
	DD	0ffffffffH
	DD	00H
	DD	040H
	DD	FLAT:??_R3_System_error_category@std@@8
rdata$r	ENDS
;	COMDAT ??_R2_System_error_category@std@@8
rdata$r	SEGMENT
??_R2_System_error_category@std@@8 DD FLAT:??_R1A@?0A@EA@_System_error_category@std@@8 ; std::_System_error_category::`RTTI Base Class Array'
	DD	FLAT:??_R1A@?0A@EA@_Generic_error_category@std@@8
	DD	FLAT:??_R1A@?0A@EA@error_category@std@@8
rdata$r	ENDS
;	COMDAT ??_R3_System_error_category@std@@8
rdata$r	SEGMENT
??_R3_System_error_category@std@@8 DD 00H		; std::_System_error_category::`RTTI Class Hierarchy Descriptor'
	DD	00H
	DD	03H
	DD	FLAT:??_R2_System_error_category@std@@8
rdata$r	ENDS
;	COMDAT ??_R0?AV_System_error_category@std@@@8
_DATA	SEGMENT
??_R0?AV_System_error_category@std@@@8 DD FLAT:??_7type_info@@6B@ ; std::_System_error_category `RTTI Type Descriptor'
	DD	00H
	DB	'.?AV_System_error_category@std@@', 00H
_DATA	ENDS
;	COMDAT ??_R4_System_error_category@std@@6B@
rdata$r	SEGMENT
??_R4_System_error_category@std@@6B@ DD 00H		; std::_System_error_category::`RTTI Complete Object Locator'
	DD	00H
	DD	00H
	DD	FLAT:??_R0?AV_System_error_category@std@@@8
	DD	FLAT:??_R3_System_error_category@std@@8
rdata$r	ENDS
;	COMDAT ??_R1A@?0A@EA@_Iostream_error_category@std@@8
rdata$r	SEGMENT
??_R1A@?0A@EA@_Iostream_error_category@std@@8 DD FLAT:??_R0?AV_Iostream_error_category@std@@@8 ; std::_Iostream_error_category::`RTTI Base Class Descriptor at (0,-1,0,64)'
	DD	02H
	DD	00H
	DD	0ffffffffH
	DD	00H
	DD	040H
	DD	FLAT:??_R3_Iostream_error_category@std@@8
rdata$r	ENDS
;	COMDAT ??_R2_Iostream_error_category@std@@8
rdata$r	SEGMENT
??_R2_Iostream_error_category@std@@8 DD FLAT:??_R1A@?0A@EA@_Iostream_error_category@std@@8 ; std::_Iostream_error_category::`RTTI Base Class Array'
	DD	FLAT:??_R1A@?0A@EA@_Generic_error_category@std@@8
	DD	FLAT:??_R1A@?0A@EA@error_category@std@@8
rdata$r	ENDS
;	COMDAT ??_R3_Iostream_error_category@std@@8
rdata$r	SEGMENT
??_R3_Iostream_error_category@std@@8 DD 00H		; std::_Iostream_error_category::`RTTI Class Hierarchy Descriptor'
	DD	00H
	DD	03H
	DD	FLAT:??_R2_Iostream_error_category@std@@8
rdata$r	ENDS
;	COMDAT ??_R0?AV_Iostream_error_category@std@@@8
_DATA	SEGMENT
??_R0?AV_Iostream_error_category@std@@@8 DD FLAT:??_7type_info@@6B@ ; std::_Iostream_error_category `RTTI Type Descriptor'
	DD	00H
	DB	'.?AV_Iostream_error_category@std@@', 00H
_DATA	ENDS
;	COMDAT ??_R4_Iostream_error_category@std@@6B@
rdata$r	SEGMENT
??_R4_Iostream_error_category@std@@6B@ DD 00H		; std::_Iostream_error_category::`RTTI Complete Object Locator'
	DD	00H
	DD	00H
	DD	FLAT:??_R0?AV_Iostream_error_category@std@@@8
	DD	FLAT:??_R3_Iostream_error_category@std@@8
rdata$r	ENDS
;	COMDAT ??_R1A@?0A@EA@_Generic_error_category@std@@8
rdata$r	SEGMENT
??_R1A@?0A@EA@_Generic_error_category@std@@8 DD FLAT:??_R0?AV_Generic_error_category@std@@@8 ; std::_Generic_error_category::`RTTI Base Class Descriptor at (0,-1,0,64)'
	DD	01H
	DD	00H
	DD	0ffffffffH
	DD	00H
	DD	040H
	DD	FLAT:??_R3_Generic_error_category@std@@8
rdata$r	ENDS
;	COMDAT ??_R2_Generic_error_category@std@@8
rdata$r	SEGMENT
??_R2_Generic_error_category@std@@8 DD FLAT:??_R1A@?0A@EA@_Generic_error_category@std@@8 ; std::_Generic_error_category::`RTTI Base Class Array'
	DD	FLAT:??_R1A@?0A@EA@error_category@std@@8
rdata$r	ENDS
;	COMDAT ??_R3_Generic_error_category@std@@8
rdata$r	SEGMENT
??_R3_Generic_error_category@std@@8 DD 00H		; std::_Generic_error_category::`RTTI Class Hierarchy Descriptor'
	DD	00H
	DD	02H
	DD	FLAT:??_R2_Generic_error_category@std@@8
rdata$r	ENDS
;	COMDAT ??_R0?AV_Generic_error_category@std@@@8
_DATA	SEGMENT
??_R0?AV_Generic_error_category@std@@@8 DD FLAT:??_7type_info@@6B@ ; std::_Generic_error_category `RTTI Type Descriptor'
	DD	00H
	DB	'.?AV_Generic_error_category@std@@', 00H
_DATA	ENDS
;	COMDAT ??_R4_Generic_error_category@std@@6B@
rdata$r	SEGMENT
??_R4_Generic_error_category@std@@6B@ DD 00H		; std::_Generic_error_category::`RTTI Complete Object Locator'
	DD	00H
	DD	00H
	DD	FLAT:??_R0?AV_Generic_error_category@std@@@8
	DD	FLAT:??_R3_Generic_error_category@std@@8
rdata$r	ENDS
;	COMDAT ??_R1A@?0A@EA@error_category@std@@8
rdata$r	SEGMENT
??_R1A@?0A@EA@error_category@std@@8 DD FLAT:??_R0?AVerror_category@std@@@8 ; std::error_category::`RTTI Base Class Descriptor at (0,-1,0,64)'
	DD	00H
	DD	00H
	DD	0ffffffffH
	DD	00H
	DD	040H
	DD	FLAT:??_R3error_category@std@@8
rdata$r	ENDS
;	COMDAT ??_R2error_category@std@@8
rdata$r	SEGMENT
??_R2error_category@std@@8 DD FLAT:??_R1A@?0A@EA@error_category@std@@8 ; std::error_category::`RTTI Base Class Array'
rdata$r	ENDS
;	COMDAT ??_R3error_category@std@@8
rdata$r	SEGMENT
??_R3error_category@std@@8 DD 00H			; std::error_category::`RTTI Class Hierarchy Descriptor'
	DD	00H
	DD	01H
	DD	FLAT:??_R2error_category@std@@8
rdata$r	ENDS
;	COMDAT ??_R0?AVerror_category@std@@@8
_DATA	SEGMENT
??_R0?AVerror_category@std@@@8 DD FLAT:??_7type_info@@6B@ ; std::error_category `RTTI Type Descriptor'
	DD	00H
	DB	'.?AVerror_category@std@@', 00H
_DATA	ENDS
;	COMDAT ??_R4error_category@std@@6B@
rdata$r	SEGMENT
??_R4error_category@std@@6B@ DD 00H			; std::error_category::`RTTI Complete Object Locator'
	DD	00H
	DD	00H
	DD	FLAT:??_R0?AVerror_category@std@@@8
	DD	FLAT:??_R3error_category@std@@8
rdata$r	ENDS
;	COMDAT ??_R1A@?0A@EA@TgpMfdDrawable@@8
rdata$r	SEGMENT
??_R1A@?0A@EA@TgpMfdDrawable@@8 DD FLAT:??_R0?AVTgpMfdDrawable@@@8 ; TgpMfdDrawable::`RTTI Base Class Descriptor at (0,-1,0,64)'
	DD	02H
	DD	00H
	DD	0ffffffffH
	DD	00H
	DD	040H
	DD	FLAT:??_R3TgpMfdDrawable@@8
rdata$r	ENDS
;	COMDAT ??_R2TgpMfdDrawable@@8
rdata$r	SEGMENT
??_R2TgpMfdDrawable@@8 DD FLAT:??_R1A@?0A@EA@TgpMfdDrawable@@8 ; TgpMfdDrawable::`RTTI Base Class Array'
	DD	FLAT:??_R1A@?0A@EA@MfdDrawable@@8
	DD	FLAT:??_R1A@?0A@EA@DrawableClass@@8
rdata$r	ENDS
;	COMDAT ??_R3TgpMfdDrawable@@8
rdata$r	SEGMENT
??_R3TgpMfdDrawable@@8 DD 00H				; TgpMfdDrawable::`RTTI Class Hierarchy Descriptor'
	DD	00H
	DD	03H
	DD	FLAT:??_R2TgpMfdDrawable@@8
rdata$r	ENDS
;	COMDAT ??_R0?AVTgpMfdDrawable@@@8
_DATA	SEGMENT
??_R0?AVTgpMfdDrawable@@@8 DD FLAT:??_7type_info@@6B@	; TgpMfdDrawable `RTTI Type Descriptor'
	DD	00H
	DB	'.?AVTgpMfdDrawable@@', 00H
_DATA	ENDS
;	COMDAT ??_R4TgpMfdDrawable@@6B@
rdata$r	SEGMENT
??_R4TgpMfdDrawable@@6B@ DD 00H				; TgpMfdDrawable::`RTTI Complete Object Locator'
	DD	00H
	DD	00H
	DD	FLAT:??_R0?AVTgpMfdDrawable@@@8
	DD	FLAT:??_R3TgpMfdDrawable@@8
rdata$r	ENDS
;	COMDAT ??_R1A@?0A@EA@MfdDrawable@@8
rdata$r	SEGMENT
??_R1A@?0A@EA@MfdDrawable@@8 DD FLAT:??_R0?AVMfdDrawable@@@8 ; MfdDrawable::`RTTI Base Class Descriptor at (0,-1,0,64)'
	DD	01H
	DD	00H
	DD	0ffffffffH
	DD	00H
	DD	040H
	DD	FLAT:??_R3MfdDrawable@@8
rdata$r	ENDS
;	COMDAT ??_R2MfdDrawable@@8
rdata$r	SEGMENT
??_R2MfdDrawable@@8 DD FLAT:??_R1A@?0A@EA@MfdDrawable@@8 ; MfdDrawable::`RTTI Base Class Array'
	DD	FLAT:??_R1A@?0A@EA@DrawableClass@@8
rdata$r	ENDS
;	COMDAT ??_R3MfdDrawable@@8
rdata$r	SEGMENT
??_R3MfdDrawable@@8 DD 00H				; MfdDrawable::`RTTI Class Hierarchy Descriptor'
	DD	00H
	DD	02H
	DD	FLAT:??_R2MfdDrawable@@8
rdata$r	ENDS
;	COMDAT ??_R0?AVMfdDrawable@@@8
_DATA	SEGMENT
??_R0?AVMfdDrawable@@@8 DD FLAT:??_7type_info@@6B@	; MfdDrawable `RTTI Type Descriptor'
	DD	00H
	DB	'.?AVMfdDrawable@@', 00H
_DATA	ENDS
;	COMDAT ??_R4MfdDrawable@@6B@
rdata$r	SEGMENT
??_R4MfdDrawable@@6B@ DD 00H				; MfdDrawable::`RTTI Complete Object Locator'
	DD	00H
	DD	00H
	DD	FLAT:??_R0?AVMfdDrawable@@@8
	DD	FLAT:??_R3MfdDrawable@@8
rdata$r	ENDS
;	COMDAT ??_R2Render2D@@8
rdata$r	SEGMENT
??_R2Render2D@@8 DD FLAT:??_R1A@?0A@EA@Render2D@@8	; Render2D::`RTTI Base Class Array'
	DD	FLAT:??_R1A@?0A@EA@VirtualDisplay@@8
rdata$r	ENDS
;	COMDAT ??_R3Render2D@@8
rdata$r	SEGMENT
??_R3Render2D@@8 DD 00H					; Render2D::`RTTI Class Hierarchy Descriptor'
	DD	00H
	DD	02H
	DD	FLAT:??_R2Render2D@@8
rdata$r	ENDS
;	COMDAT ??_R0?AVRender2D@@@8
_DATA	SEGMENT
??_R0?AVRender2D@@@8 DD FLAT:??_7type_info@@6B@		; Render2D `RTTI Type Descriptor'
	DD	00H
	DB	'.?AVRender2D@@', 00H
_DATA	ENDS
;	COMDAT ??_R1A@?0A@EA@Render2D@@8
rdata$r	SEGMENT
??_R1A@?0A@EA@Render2D@@8 DD FLAT:??_R0?AVRender2D@@@8	; Render2D::`RTTI Base Class Descriptor at (0,-1,0,64)'
	DD	01H
	DD	00H
	DD	0ffffffffH
	DD	00H
	DD	040H
	DD	FLAT:??_R3Render2D@@8
rdata$r	ENDS
;	COMDAT ??_R1A@?0A@EA@Render3D@@8
rdata$r	SEGMENT
??_R1A@?0A@EA@Render3D@@8 DD FLAT:??_R0?AVRender3D@@@8	; Render3D::`RTTI Base Class Descriptor at (0,-1,0,64)'
	DD	02H
	DD	00H
	DD	0ffffffffH
	DD	00H
	DD	040H
	DD	FLAT:??_R3Render3D@@8
rdata$r	ENDS
;	COMDAT ??_R2Render3D@@8
rdata$r	SEGMENT
??_R2Render3D@@8 DD FLAT:??_R1A@?0A@EA@Render3D@@8	; Render3D::`RTTI Base Class Array'
	DD	FLAT:??_R1A@?0A@EA@Render2D@@8
	DD	FLAT:??_R1A@?0A@EA@VirtualDisplay@@8
rdata$r	ENDS
;	COMDAT ??_R3Render3D@@8
rdata$r	SEGMENT
??_R3Render3D@@8 DD 00H					; Render3D::`RTTI Class Hierarchy Descriptor'
	DD	00H
	DD	03H
	DD	FLAT:??_R2Render3D@@8
rdata$r	ENDS
;	COMDAT ??_R0?AVRender3D@@@8
_DATA	SEGMENT
??_R0?AVRender3D@@@8 DD FLAT:??_7type_info@@6B@		; Render3D `RTTI Type Descriptor'
	DD	00H
	DB	'.?AVRender3D@@', 00H
_DATA	ENDS
;	COMDAT ??_R4Render3D@@6B@
rdata$r	SEGMENT
??_R4Render3D@@6B@ DD 00H				; Render3D::`RTTI Complete Object Locator'
	DD	00H
	DD	00H
	DD	FLAT:??_R0?AVRender3D@@@8
	DD	FLAT:??_R3Render3D@@8
rdata$r	ENDS
;	COMDAT ??_R1A@?0A@EA@DrawableClass@@8
rdata$r	SEGMENT
??_R1A@?0A@EA@DrawableClass@@8 DD FLAT:??_R0?AVDrawableClass@@@8 ; DrawableClass::`RTTI Base Class Descriptor at (0,-1,0,64)'
	DD	00H
	DD	00H
	DD	0ffffffffH
	DD	00H
	DD	040H
	DD	FLAT:??_R3DrawableClass@@8
rdata$r	ENDS
;	COMDAT ??_R2DrawableClass@@8
rdata$r	SEGMENT
??_R2DrawableClass@@8 DD FLAT:??_R1A@?0A@EA@DrawableClass@@8 ; DrawableClass::`RTTI Base Class Array'
rdata$r	ENDS
;	COMDAT ??_R3DrawableClass@@8
rdata$r	SEGMENT
??_R3DrawableClass@@8 DD 00H				; DrawableClass::`RTTI Class Hierarchy Descriptor'
	DD	00H
	DD	01H
	DD	FLAT:??_R2DrawableClass@@8
rdata$r	ENDS
;	COMDAT ??_R0?AVDrawableClass@@@8
_DATA	SEGMENT
??_R0?AVDrawableClass@@@8 DD FLAT:??_7type_info@@6B@	; DrawableClass `RTTI Type Descriptor'
	DD	00H
	DB	'.?AVDrawableClass@@', 00H
_DATA	ENDS
;	COMDAT ??_R4DrawableClass@@6B@
rdata$r	SEGMENT
??_R4DrawableClass@@6B@ DD 00H				; DrawableClass::`RTTI Complete Object Locator'
	DD	00H
	DD	00H
	DD	FLAT:??_R0?AVDrawableClass@@@8
	DD	FLAT:??_R3DrawableClass@@8
rdata$r	ENDS
;	COMDAT ??_R1A@?0A@EA@VirtualDisplay@@8
rdata$r	SEGMENT
??_R1A@?0A@EA@VirtualDisplay@@8 DD FLAT:??_R0?AVVirtualDisplay@@@8 ; VirtualDisplay::`RTTI Base Class Descriptor at (0,-1,0,64)'
	DD	00H
	DD	00H
	DD	0ffffffffH
	DD	00H
	DD	040H
	DD	FLAT:??_R3VirtualDisplay@@8
rdata$r	ENDS
;	COMDAT ??_R2VirtualDisplay@@8
rdata$r	SEGMENT
??_R2VirtualDisplay@@8 DD FLAT:??_R1A@?0A@EA@VirtualDisplay@@8 ; VirtualDisplay::`RTTI Base Class Array'
rdata$r	ENDS
;	COMDAT ??_R3VirtualDisplay@@8
rdata$r	SEGMENT
??_R3VirtualDisplay@@8 DD 00H				; VirtualDisplay::`RTTI Class Hierarchy Descriptor'
	DD	00H
	DD	01H
	DD	FLAT:??_R2VirtualDisplay@@8
rdata$r	ENDS
;	COMDAT ??_R0?AVVirtualDisplay@@@8
_DATA	SEGMENT
??_R0?AVVirtualDisplay@@@8 DD FLAT:??_7type_info@@6B@	; VirtualDisplay `RTTI Type Descriptor'
	DD	00H
	DB	'.?AVVirtualDisplay@@', 00H
_DATA	ENDS
;	COMDAT ??_R4VirtualDisplay@@6B@
rdata$r	SEGMENT
??_R4VirtualDisplay@@6B@ DD 00H				; VirtualDisplay::`RTTI Complete Object Locator'
	DD	00H
	DD	00H
	DD	FLAT:??_R0?AVVirtualDisplay@@@8
	DD	FLAT:??_R3VirtualDisplay@@8
rdata$r	ENDS
;	COMDAT ??_C@_0BA@JFNIOLAK@string?5too?5long?$AA@
CONST	SEGMENT
??_C@_0BA@JFNIOLAK@string?5too?5long?$AA@ DB 'string too long', 00H ; `string'
CONST	ENDS
;	COMDAT ??_C@_0BI@CFPLBAOH@invalid?5string?5position?$AA@
CONST	SEGMENT
??_C@_0BI@CFPLBAOH@invalid?5string?5position?$AA@ DB 'invalid string posi'
	DB	'tion', 00H					; `string'
CONST	ENDS
;	COMDAT ??_C@_07FOGPAANO@T?5?$CF2?41f?$AA@
CONST	SEGMENT
??_C@_07FOGPAANO@T?5?$CF2?41f?$AA@ DB 'T %2.1f', 00H	; `string'
CONST	ENDS
;	COMDAT ??_C@_07PBDBCKEA@L?5?$CF2?41f?$AA@
CONST	SEGMENT
??_C@_07PBDBCKEA@L?5?$CF2?41f?$AA@ DB 'L %2.1f', 00H	; `string'
CONST	ENDS
;	COMDAT ??_C@_08PKJOKCBH@T?50?$CF1?41f?$AA@
CONST	SEGMENT
??_C@_08PKJOKCBH@T?50?$CF1?41f?$AA@ DB 'T 0%1.1f', 00H	; `string'
CONST	ENDS
;	COMDAT ??_C@_08ONIGECHO@L?50?$CF1?41f?$AA@
CONST	SEGMENT
??_C@_08ONIGECHO@L?50?$CF1?41f?$AA@ DB 'L 0%1.1f', 00H	; `string'
CONST	ENDS
;	COMDAT ??_C@_06ODKPFCN@T?500?40?$AA@
CONST	SEGMENT
??_C@_06ODKPFCN@T?500?40?$AA@ DB 'T 00.0', 00H		; `string'
CONST	ENDS
;	COMDAT ??_C@_06FKALCHIE@L?500?40?$AA@
CONST	SEGMENT
??_C@_06FKALCHIE@L?500?40?$AA@ DB 'L 00.0', 00H		; `string'
CONST	ENDS
;	COMDAT ??_C@_02BFICIOJL@ON?$AA@
CONST	SEGMENT
??_C@_02BFICIOJL@ON?$AA@ DB 'ON', 00H			; `string'
CONST	ENDS
;	COMDAT ??_C@_04KICLEKHI@GRAY?$AA@
CONST	SEGMENT
??_C@_04KICLEKHI@GRAY?$AA@ DB 'GRAY', 00H		; `string'
CONST	ENDS
;	COMDAT ??_C@_01GAPBHFFA@T?$AA@
CONST	SEGMENT
??_C@_01GAPBHFFA@T?$AA@ DB 'T', 00H			; `string'
CONST	ENDS
;	COMDAT ??_C@_01BBODEMC@G?$AA@
CONST	SEGMENT
??_C@_01BBODEMC@G?$AA@ DB 'G', 00H			; `string'
CONST	ENDS
;	COMDAT ??_C@_01POHCFINO@Z?$AA@
CONST	SEGMENT
??_C@_01POHCFINO@Z?$AA@ DB 'Z', 00H			; `string'
CONST	ENDS
;	COMDAT ??_C@_01CPLAODJH@S?$AA@
CONST	SEGMENT
??_C@_01CPLAODJH@S?$AA@ DB 'S', 00H			; `string'
CONST	ENDS
;	COMDAT ??_C@_01EJNLAFE@P?$AA@
CONST	SEGMENT
??_C@_01EJNLAFE@P?$AA@ DB 'P', 00H			; `string'
CONST	ENDS
;	COMDAT ??_C@_04EIFPDJEG@WHOT?$AA@
CONST	SEGMENT
??_C@_04EIFPDJEG@WHOT?$AA@ DB 'WHOT', 00H		; `string'
CONST	ENDS
;	COMDAT ??_C@_04OAFPCBLE@BHOT?$AA@
CONST	SEGMENT
??_C@_04OAFPCBLE@BHOT?$AA@ DB 'BHOT', 00H		; `string'
CONST	ENDS
;	COMDAT ??_C@_04GKDMIDBA@CNTL?$AA@
CONST	SEGMENT
??_C@_04GKDMIDBA@CNTL?$AA@ DB 'CNTL', 00H		; `string'
CONST	ENDS
;	COMDAT ??_C@_03CEOELEEM@A?9A?$AA@
CONST	SEGMENT
??_C@_03CEOELEEM@A?9A?$AA@ DB 'A-A', 00H		; `string'
CONST	ENDS
;	COMDAT ??_C@_04PGDFOHNL@OVRD?$AA@
CONST	SEGMENT
??_C@_04PGDFOHNL@OVRD?$AA@ DB 'OVRD', 00H		; `string'
CONST	ENDS
;	COMDAT ??_C@_02DKCKIIND@?$CFs?$AA@
CONST	SEGMENT
??_C@_02DKCKIIND@?$CFs?$AA@ DB '%s', 00H		; `string'
CONST	ENDS
;	COMDAT ??_C@_04KPGPJCNC@WIDE?$AA@
CONST	SEGMENT
??_C@_04KPGPJCNC@WIDE?$AA@ DB 'WIDE', 00H		; `string'
CONST	ENDS
;	COMDAT ??_C@_04OFGPHIIG@NARO?$AA@
CONST	SEGMENT
??_C@_04OFGPHIIG@NARO?$AA@ DB 'NARO', 00H		; `string'
CONST	ENDS
;	COMDAT ??_C@_03KKGFKKLA@EXP?$AA@
CONST	SEGMENT
??_C@_03KKGFKKLA@EXP?$AA@ DB 'EXP', 00H			; `string'
CONST	ENDS
;	COMDAT ??_C@_03HCLOBDMK@A?9G?$AA@
CONST	SEGMENT
??_C@_03HCLOBDMK@A?9G?$AA@ DB 'A-G', 00H		; `string'
CONST	ENDS
;	COMDAT ??_C@_04BKGGJKLP@STBY?$AA@
CONST	SEGMENT
??_C@_04BKGGJKLP@STBY?$AA@ DB 'STBY', 00H		; `string'
CONST	ENDS
;	COMDAT ??_C@_0O@MDMAMLOB@NOT?5TIMED?5OUT?$AA@
CONST	SEGMENT
??_C@_0O@MDMAMLOB@NOT?5TIMED?5OUT?$AA@ DB 'NOT TIMED OUT', 00H ; `string'
CONST	ENDS
;	COMDAT ??_C@_03JKFBEHPN@MAL?$AA@
CONST	SEGMENT
??_C@_03JKFBEHPN@MAL?$AA@ DB 'MAL', 00H			; `string'
CONST	ENDS
;	COMDAT ??_C@_03KDFFCEML@RDY?$AA@
CONST	SEGMENT
??_C@_03KDFFCEML@RDY?$AA@ DB 'RDY', 00H			; `string'
CONST	ENDS
;	COMDAT ??_C@_03DNJPAHKI@SIM?$AA@
CONST	SEGMENT
??_C@_03DNJPAHKI@SIM?$AA@ DB 'SIM', 00H			; `string'
CONST	ENDS
;	COMDAT ??_C@_03NAHIIPNL@SAF?$AA@
CONST	SEGMENT
??_C@_03NAHIIPNL@SAF?$AA@ DB 'SAF', 00H			; `string'
CONST	ENDS
;	COMDAT ??_C@_05IPNNCKNB@00?300?$AA@
CONST	SEGMENT
??_C@_05IPNNCKNB@00?300?$AA@ DB '00:00', 00H		; `string'
CONST	ENDS
;	COMDAT ??_C@_09HKNIMLIL@00?30?$CF1?40f?$AA@
CONST	SEGMENT
??_C@_09HKNIMLIL@00?30?$CF1?40f?$AA@ DB '00:0%1.0f', 00H ; `string'
CONST	ENDS
;	COMDAT ??_C@_08GFLIAMDN@00?3?$CF2?40f?$AA@
CONST	SEGMENT
??_C@_08GFLIAMDN@00?3?$CF2?40f?$AA@ DB '00:%2.0f', 00H	; `string'
CONST	ENDS
;	COMDAT ??_C@_01OCOKONAJ@L?$AA@
CONST	SEGMENT
??_C@_01OCOKONAJ@L?$AA@ DB 'L', 00H			; `string'
CONST	ENDS
;	COMDAT ??_C@_02ONHIBMNM@M?5?$AA@
CONST	SEGMENT
??_C@_02ONHIBMNM@M?5?$AA@ DB 'M ', 00H			; `string'
CONST	ENDS
;	COMDAT ??_C@_03MPPIHBHJ@OFF?$AA@
CONST	SEGMENT
??_C@_03MPPIHBHJ@OFF?$AA@ DB 'OFF', 00H			; `string'
CONST	ENDS
;	COMDAT ??_C@_03FFLKHOAH@TGP?$AA@
CONST	SEGMENT
??_C@_03FFLKHOAH@TGP?$AA@ DB 'TGP', 00H			; `string'
CONST	ENDS
;	COMDAT ??_7RenderIR@@6B@
CONST	SEGMENT
??_7RenderIR@@6B@ DD FLAT:??_R4RenderIR@@6B@		; RenderIR::`vftable'
	DD	FLAT:??_ERenderIR@@UAEPAXI@Z
	DD	FLAT:?Setup@VirtualDisplay@@UAEXXZ
	DD	FLAT:?Cleanup@RenderOTW@@UAEXXZ
	DD	FLAT:?StartDraw@RenderIR@@UAEXXZ
	DD	FLAT:?ClearDraw@Render2D@@UAEXXZ
	DD	FLAT:?EndDraw@RenderIR@@UAEXXZ
	DD	FLAT:?Point@VirtualDisplay@@UAEXMM@Z
	DD	FLAT:?Line@VirtualDisplay@@UAEXMMMMM@Z
	DD	FLAT:?Line@VirtualDisplay@@UAEXMMMM@Z
	DD	FLAT:?Tri@VirtualDisplay@@UAEXMMMMMM@Z
	DD	FLAT:?Oval@VirtualDisplay@@UAEXMMMM@Z
	DD	FLAT:?OvalArc@VirtualDisplay@@UAEXMMMMMM@Z
	DD	FLAT:?Circle@VirtualDisplay@@UAEXMMM@Z
	DD	FLAT:?Arc@VirtualDisplay@@UAEXMMMMM@Z
	DD	FLAT:?TextLeft@VirtualDisplay@@UAEXMMPBDH@Z
	DD	FLAT:?TextRight@VirtualDisplay@@UAEXMMPBDH@Z
	DD	FLAT:?TextLeftVertical@VirtualDisplay@@UAEXMMPBDH@Z
	DD	FLAT:?TextRightVertical@VirtualDisplay@@UAEXMMPBDH@Z
	DD	FLAT:?TextCenter@VirtualDisplay@@UAEXMMPBDH@Z
	DD	FLAT:?TextCenterVertical@VirtualDisplay@@UAEXMMPBDH@Z
	DD	FLAT:?TextWrap@VirtualDisplay@@UAEHMMPBDMM@Z
	DD	FLAT:?TextWidth@VirtualDisplay@@UAEMPAD@Z
	DD	FLAT:?TextHeight@VirtualDisplay@@UAEMXZ
	DD	FLAT:?SetColor@RenderTV@@UAEXK@Z
	DD	FLAT:?SetBackground@Render2D@@UAEXK@Z
	DD	FLAT:?ScreenText@Render2D@@UAEXMMPBDH@Z
	DD	FLAT:?SetLineStyle@Render2D@@UAEXH@Z
	DD	FLAT:?Color@Render2D@@UAEKXZ
	DD	FLAT:?SetViewport@Render3D@@UAEXMMMM@Z
	DD	FLAT:?SetViewportRelative@VirtualDisplay@@UAEXMMMM@Z
	DD	FLAT:?Render2DPoint@Render2D@@UAEXMM@Z
	DD	FLAT:?Render2DLine@Render2D@@UAEXMMMM@Z
	DD	FLAT:?Render2DTri@Render2D@@UAEXMMMMMM@Z
	DD	FLAT:?Setup@Render3D@@UAEXPAVImageBuffer@@@Z
	DD	FLAT:?SetImageBuffer@Render2D@@UAEXPAVImageBuffer@@@Z
	DD	FLAT:?ClearZBuffer@Render2D@@UAEXXZ
	DD	FLAT:?Setup@RenderIR@@UAEXPAVImageBuffer@@PAVRViewPoint@@@Z
	DD	FLAT:?ComputeVertexColor@RenderIR@@MAEXPAUTerrainVertex@@PAUTpost@@MMM@Z
	DD	FLAT:?ProcessColor@RenderTV@@MAEXPAUTcolor@@@Z
	DD	FLAT:?DrawSun@RenderTV@@MAEXXZ
	DD	FLAT:?DrawMoon@RenderTV@@MAEXXZ
	DD	FLAT:?DrawStars@RenderIR@@MAEXXZ
	DD	FLAT:?ComputeHorizonEffect@RenderTV@@MAEXPAUHorizonRecord@@@Z
	DD	FLAT:?SetTimeOfDayColor@RenderIR@@MAEXXZ
	DD	FLAT:?AdjustSkyColor@RenderIR@@MAEXXZ
	DD	FLAT:?DrawMoon@RenderIR@@MAEXH@Z
CONST	ENDS
;	COMDAT ??_7RenderTV@@6B@
CONST	SEGMENT
??_7RenderTV@@6B@ DD FLAT:??_R4RenderTV@@6B@		; RenderTV::`vftable'
	DD	FLAT:??_ERenderTV@@UAEPAXI@Z
	DD	FLAT:?Setup@VirtualDisplay@@UAEXXZ
	DD	FLAT:?Cleanup@RenderOTW@@UAEXXZ
	DD	FLAT:?StartDraw@RenderTV@@UAEXXZ
	DD	FLAT:?ClearDraw@Render2D@@UAEXXZ
	DD	FLAT:?EndDraw@RenderTV@@UAEXXZ
	DD	FLAT:?Point@VirtualDisplay@@UAEXMM@Z
	DD	FLAT:?Line@VirtualDisplay@@UAEXMMMMM@Z
	DD	FLAT:?Line@VirtualDisplay@@UAEXMMMM@Z
	DD	FLAT:?Tri@VirtualDisplay@@UAEXMMMMMM@Z
	DD	FLAT:?Oval@VirtualDisplay@@UAEXMMMM@Z
	DD	FLAT:?OvalArc@VirtualDisplay@@UAEXMMMMMM@Z
	DD	FLAT:?Circle@VirtualDisplay@@UAEXMMM@Z
	DD	FLAT:?Arc@VirtualDisplay@@UAEXMMMMM@Z
	DD	FLAT:?TextLeft@VirtualDisplay@@UAEXMMPBDH@Z
	DD	FLAT:?TextRight@VirtualDisplay@@UAEXMMPBDH@Z
	DD	FLAT:?TextLeftVertical@VirtualDisplay@@UAEXMMPBDH@Z
	DD	FLAT:?TextRightVertical@VirtualDisplay@@UAEXMMPBDH@Z
	DD	FLAT:?TextCenter@VirtualDisplay@@UAEXMMPBDH@Z
	DD	FLAT:?TextCenterVertical@VirtualDisplay@@UAEXMMPBDH@Z
	DD	FLAT:?TextWrap@VirtualDisplay@@UAEHMMPBDMM@Z
	DD	FLAT:?TextWidth@VirtualDisplay@@UAEMPAD@Z
	DD	FLAT:?TextHeight@VirtualDisplay@@UAEMXZ
	DD	FLAT:?SetColor@RenderTV@@UAEXK@Z
	DD	FLAT:?SetBackground@Render2D@@UAEXK@Z
	DD	FLAT:?ScreenText@Render2D@@UAEXMMPBDH@Z
	DD	FLAT:?SetLineStyle@Render2D@@UAEXH@Z
	DD	FLAT:?Color@Render2D@@UAEKXZ
	DD	FLAT:?SetViewport@Render3D@@UAEXMMMM@Z
	DD	FLAT:?SetViewportRelative@VirtualDisplay@@UAEXMMMM@Z
	DD	FLAT:?Render2DPoint@Render2D@@UAEXMM@Z
	DD	FLAT:?Render2DLine@Render2D@@UAEXMMMM@Z
	DD	FLAT:?Render2DTri@Render2D@@UAEXMMMMMM@Z
	DD	FLAT:?Setup@Render3D@@UAEXPAVImageBuffer@@@Z
	DD	FLAT:?SetImageBuffer@Render2D@@UAEXPAVImageBuffer@@@Z
	DD	FLAT:?ClearZBuffer@Render2D@@UAEXXZ
	DD	FLAT:?Setup@RenderTV@@UAEXPAVImageBuffer@@PAVRViewPoint@@@Z
	DD	FLAT:?ComputeVertexColor@RenderTV@@MAEXPAUTerrainVertex@@PAUTpost@@MMM@Z
	DD	FLAT:?ProcessColor@RenderTV@@MAEXPAUTcolor@@@Z
	DD	FLAT:?DrawSun@RenderTV@@MAEXXZ
	DD	FLAT:?DrawMoon@RenderTV@@MAEXXZ
	DD	FLAT:?DrawStars@RenderOTW@@MAEXXZ
	DD	FLAT:?ComputeHorizonEffect@RenderTV@@MAEXPAUHorizonRecord@@@Z
	DD	FLAT:?SetTimeOfDayColor@RenderOTW@@MAEXXZ
	DD	FLAT:?AdjustSkyColor@RenderOTW@@MAEXXZ
CONST	ENDS
;	COMDAT ??_7RenderOTW@@6B@
CONST	SEGMENT
??_7RenderOTW@@6B@ DD FLAT:??_R4RenderOTW@@6B@		; RenderOTW::`vftable'
	DD	FLAT:??_ERenderOTW@@UAEPAXI@Z
	DD	FLAT:?Setup@VirtualDisplay@@UAEXXZ
	DD	FLAT:?Cleanup@RenderOTW@@UAEXXZ
	DD	FLAT:?StartDraw@RenderOTW@@UAEXXZ
	DD	FLAT:?ClearDraw@Render2D@@UAEXXZ
	DD	FLAT:?EndDraw@RenderOTW@@UAEXXZ
	DD	FLAT:?Point@VirtualDisplay@@UAEXMM@Z
	DD	FLAT:?Line@VirtualDisplay@@UAEXMMMMM@Z
	DD	FLAT:?Line@VirtualDisplay@@UAEXMMMM@Z
	DD	FLAT:?Tri@VirtualDisplay@@UAEXMMMMMM@Z
	DD	FLAT:?Oval@VirtualDisplay@@UAEXMMMM@Z
	DD	FLAT:?OvalArc@VirtualDisplay@@UAEXMMMMMM@Z
	DD	FLAT:?Circle@VirtualDisplay@@UAEXMMM@Z
	DD	FLAT:?Arc@VirtualDisplay@@UAEXMMMMM@Z
	DD	FLAT:?TextLeft@VirtualDisplay@@UAEXMMPBDH@Z
	DD	FLAT:?TextRight@VirtualDisplay@@UAEXMMPBDH@Z
	DD	FLAT:?TextLeftVertical@VirtualDisplay@@UAEXMMPBDH@Z
	DD	FLAT:?TextRightVertical@VirtualDisplay@@UAEXMMPBDH@Z
	DD	FLAT:?TextCenter@VirtualDisplay@@UAEXMMPBDH@Z
	DD	FLAT:?TextCenterVertical@VirtualDisplay@@UAEXMMPBDH@Z
	DD	FLAT:?TextWrap@VirtualDisplay@@UAEHMMPBDMM@Z
	DD	FLAT:?TextWidth@VirtualDisplay@@UAEMPAD@Z
	DD	FLAT:?TextHeight@VirtualDisplay@@UAEMXZ
	DD	FLAT:?SetColor@Render2D@@UAEXK@Z
	DD	FLAT:?SetBackground@Render2D@@UAEXK@Z
	DD	FLAT:?ScreenText@Render2D@@UAEXMMPBDH@Z
	DD	FLAT:?SetLineStyle@Render2D@@UAEXH@Z
	DD	FLAT:?Color@Render2D@@UAEKXZ
	DD	FLAT:?SetViewport@Render3D@@UAEXMMMM@Z
	DD	FLAT:?SetViewportRelative@VirtualDisplay@@UAEXMMMM@Z
	DD	FLAT:?Render2DPoint@Render2D@@UAEXMM@Z
	DD	FLAT:?Render2DLine@Render2D@@UAEXMMMM@Z
	DD	FLAT:?Render2DTri@Render2D@@UAEXMMMMMM@Z
	DD	FLAT:?Setup@Render3D@@UAEXPAVImageBuffer@@@Z
	DD	FLAT:?SetImageBuffer@Render2D@@UAEXPAVImageBuffer@@@Z
	DD	FLAT:?ClearZBuffer@Render2D@@UAEXXZ
	DD	FLAT:?Setup@RenderOTW@@UAEXPAVImageBuffer@@PAVRViewPoint@@@Z
	DD	FLAT:?ComputeVertexColor@RenderOTW@@MAEXPAUTerrainVertex@@PAUTpost@@MMM@Z
	DD	FLAT:?ProcessColor@RenderOTW@@MAEXPAUTcolor@@@Z
	DD	FLAT:?DrawSun@RenderOTW@@MAEXXZ
	DD	FLAT:?DrawMoon@RenderOTW@@MAEXXZ
	DD	FLAT:?DrawStars@RenderOTW@@MAEXXZ
	DD	FLAT:?ComputeHorizonEffect@RenderOTW@@MAEXPAUHorizonRecord@@@Z
	DD	FLAT:?SetTimeOfDayColor@RenderOTW@@MAEXXZ
	DD	FLAT:?AdjustSkyColor@RenderOTW@@MAEXXZ
CONST	ENDS
;	COMDAT ??_7Render3D@@6B@
CONST	SEGMENT
??_7Render3D@@6B@ DD FLAT:??_R4Render3D@@6B@		; Render3D::`vftable'
	DD	FLAT:??_ERender3D@@UAEPAXI@Z
	DD	FLAT:?Setup@VirtualDisplay@@UAEXXZ
	DD	FLAT:?Cleanup@Render3D@@UAEXXZ
	DD	FLAT:?StartDraw@Render3D@@UAEXXZ
	DD	FLAT:?ClearDraw@Render2D@@UAEXXZ
	DD	FLAT:?EndDraw@Render2D@@UAEXXZ
	DD	FLAT:?Point@VirtualDisplay@@UAEXMM@Z
	DD	FLAT:?Line@VirtualDisplay@@UAEXMMMMM@Z
	DD	FLAT:?Line@VirtualDisplay@@UAEXMMMM@Z
	DD	FLAT:?Tri@VirtualDisplay@@UAEXMMMMMM@Z
	DD	FLAT:?Oval@VirtualDisplay@@UAEXMMMM@Z
	DD	FLAT:?OvalArc@VirtualDisplay@@UAEXMMMMMM@Z
	DD	FLAT:?Circle@VirtualDisplay@@UAEXMMM@Z
	DD	FLAT:?Arc@VirtualDisplay@@UAEXMMMMM@Z
	DD	FLAT:?TextLeft@VirtualDisplay@@UAEXMMPBDH@Z
	DD	FLAT:?TextRight@VirtualDisplay@@UAEXMMPBDH@Z
	DD	FLAT:?TextLeftVertical@VirtualDisplay@@UAEXMMPBDH@Z
	DD	FLAT:?TextRightVertical@VirtualDisplay@@UAEXMMPBDH@Z
	DD	FLAT:?TextCenter@VirtualDisplay@@UAEXMMPBDH@Z
	DD	FLAT:?TextCenterVertical@VirtualDisplay@@UAEXMMPBDH@Z
	DD	FLAT:?TextWrap@VirtualDisplay@@UAEHMMPBDMM@Z
	DD	FLAT:?TextWidth@VirtualDisplay@@UAEMPAD@Z
	DD	FLAT:?TextHeight@VirtualDisplay@@UAEMXZ
	DD	FLAT:?SetColor@Render2D@@UAEXK@Z
	DD	FLAT:?SetBackground@Render2D@@UAEXK@Z
	DD	FLAT:?ScreenText@Render2D@@UAEXMMPBDH@Z
	DD	FLAT:?SetLineStyle@Render2D@@UAEXH@Z
	DD	FLAT:?Color@Render2D@@UAEKXZ
	DD	FLAT:?SetViewport@Render3D@@UAEXMMMM@Z
	DD	FLAT:?SetViewportRelative@VirtualDisplay@@UAEXMMMM@Z
	DD	FLAT:?Render2DPoint@Render2D@@UAEXMM@Z
	DD	FLAT:?Render2DLine@Render2D@@UAEXMMMM@Z
	DD	FLAT:?Render2DTri@Render2D@@UAEXMMMMMM@Z
	DD	FLAT:?Setup@Render3D@@UAEXPAVImageBuffer@@@Z
	DD	FLAT:?SetImageBuffer@Render2D@@UAEXPAVImageBuffer@@@Z
	DD	FLAT:?ClearZBuffer@Render2D@@UAEXXZ
CONST	ENDS
;	COMDAT ??_7Render2D@@6B@
CONST	SEGMENT
??_7Render2D@@6B@ DD FLAT:??_R4Render2D@@6B@		; Render2D::`vftable'
	DD	FLAT:??_ERender2D@@UAEPAXI@Z
	DD	FLAT:?Setup@VirtualDisplay@@UAEXXZ
	DD	FLAT:?Cleanup@Render2D@@UAEXXZ
	DD	FLAT:?StartDraw@Render2D@@UAEXXZ
	DD	FLAT:?ClearDraw@Render2D@@UAEXXZ
	DD	FLAT:?EndDraw@Render2D@@UAEXXZ
	DD	FLAT:?Point@VirtualDisplay@@UAEXMM@Z
	DD	FLAT:?Line@VirtualDisplay@@UAEXMMMMM@Z
	DD	FLAT:?Line@VirtualDisplay@@UAEXMMMM@Z
	DD	FLAT:?Tri@VirtualDisplay@@UAEXMMMMMM@Z
	DD	FLAT:?Oval@VirtualDisplay@@UAEXMMMM@Z
	DD	FLAT:?OvalArc@VirtualDisplay@@UAEXMMMMMM@Z
	DD	FLAT:?Circle@VirtualDisplay@@UAEXMMM@Z
	DD	FLAT:?Arc@VirtualDisplay@@UAEXMMMMM@Z
	DD	FLAT:?TextLeft@VirtualDisplay@@UAEXMMPBDH@Z
	DD	FLAT:?TextRight@VirtualDisplay@@UAEXMMPBDH@Z
	DD	FLAT:?TextLeftVertical@VirtualDisplay@@UAEXMMPBDH@Z
	DD	FLAT:?TextRightVertical@VirtualDisplay@@UAEXMMPBDH@Z
	DD	FLAT:?TextCenter@VirtualDisplay@@UAEXMMPBDH@Z
	DD	FLAT:?TextCenterVertical@VirtualDisplay@@UAEXMMPBDH@Z
	DD	FLAT:?TextWrap@VirtualDisplay@@UAEHMMPBDMM@Z
	DD	FLAT:?TextWidth@VirtualDisplay@@UAEMPAD@Z
	DD	FLAT:?TextHeight@VirtualDisplay@@UAEMXZ
	DD	FLAT:?SetColor@Render2D@@UAEXK@Z
	DD	FLAT:?SetBackground@Render2D@@UAEXK@Z
	DD	FLAT:?ScreenText@Render2D@@UAEXMMPBDH@Z
	DD	FLAT:?SetLineStyle@Render2D@@UAEXH@Z
	DD	FLAT:?Color@Render2D@@UAEKXZ
	DD	FLAT:?SetViewport@Render2D@@UAEXMMMM@Z
	DD	FLAT:?SetViewportRelative@VirtualDisplay@@UAEXMMMM@Z
	DD	FLAT:?Render2DPoint@Render2D@@UAEXMM@Z
	DD	FLAT:?Render2DLine@Render2D@@UAEXMMMM@Z
	DD	FLAT:?Render2DTri@Render2D@@UAEXMMMMMM@Z
	DD	FLAT:?Setup@Render2D@@UAEXPAVImageBuffer@@@Z
	DD	FLAT:?SetImageBuffer@Render2D@@UAEXPAVImageBuffer@@@Z
	DD	FLAT:?ClearZBuffer@Render2D@@UAEXXZ
CONST	ENDS
;	COMDAT ??_7VirtualDisplay@@6B@
CONST	SEGMENT
??_7VirtualDisplay@@6B@ DD FLAT:??_R4VirtualDisplay@@6B@ ; VirtualDisplay::`vftable'
	DD	FLAT:??_EVirtualDisplay@@UAEPAXI@Z
	DD	FLAT:?Setup@VirtualDisplay@@UAEXXZ
	DD	FLAT:?Cleanup@VirtualDisplay@@UAEXXZ
	DD	FLAT:__purecall
	DD	FLAT:__purecall
	DD	FLAT:__purecall
	DD	FLAT:?Point@VirtualDisplay@@UAEXMM@Z
	DD	FLAT:?Line@VirtualDisplay@@UAEXMMMMM@Z
	DD	FLAT:?Line@VirtualDisplay@@UAEXMMMM@Z
	DD	FLAT:?Tri@VirtualDisplay@@UAEXMMMMMM@Z
	DD	FLAT:?Oval@VirtualDisplay@@UAEXMMMM@Z
	DD	FLAT:?OvalArc@VirtualDisplay@@UAEXMMMMMM@Z
	DD	FLAT:?Circle@VirtualDisplay@@UAEXMMM@Z
	DD	FLAT:?Arc@VirtualDisplay@@UAEXMMMMM@Z
	DD	FLAT:?TextLeft@VirtualDisplay@@UAEXMMPBDH@Z
	DD	FLAT:?TextRight@VirtualDisplay@@UAEXMMPBDH@Z
	DD	FLAT:?TextLeftVertical@VirtualDisplay@@UAEXMMPBDH@Z
	DD	FLAT:?TextRightVertical@VirtualDisplay@@UAEXMMPBDH@Z
	DD	FLAT:?TextCenter@VirtualDisplay@@UAEXMMPBDH@Z
	DD	FLAT:?TextCenterVertical@VirtualDisplay@@UAEXMMPBDH@Z
	DD	FLAT:?TextWrap@VirtualDisplay@@UAEHMMPBDMM@Z
	DD	FLAT:?TextWidth@VirtualDisplay@@UAEMPAD@Z
	DD	FLAT:?TextHeight@VirtualDisplay@@UAEMXZ
	DD	FLAT:__purecall
	DD	FLAT:__purecall
	DD	FLAT:__purecall
	DD	FLAT:?SetLineStyle@VirtualDisplay@@UAEXH@Z
	DD	FLAT:?Color@VirtualDisplay@@UAEKXZ
	DD	FLAT:?SetViewport@VirtualDisplay@@UAEXMMMM@Z
	DD	FLAT:?SetViewportRelative@VirtualDisplay@@UAEXMMMM@Z
	DD	FLAT:__purecall
	DD	FLAT:__purecall
	DD	FLAT:?Render2DTri@VirtualDisplay@@MAEXMMMMMM@Z
CONST	ENDS
;	COMDAT ??_C@_02DPKJAMEF@?$CFd?$AA@
CONST	SEGMENT
??_C@_02DPKJAMEF@?$CFd?$AA@ DB '%d', 00H		; `string'
CONST	ENDS
;	COMDAT ??_C@_06FHFOAHML@system?$AA@
CONST	SEGMENT
??_C@_06FHFOAHML@system?$AA@ DB 'system', 00H		; `string'
CONST	ENDS
;	COMDAT ??_7_System_error_category@std@@6B@
CONST	SEGMENT
??_7_System_error_category@std@@6B@ DD FLAT:??_R4_System_error_category@std@@6B@ ; std::_System_error_category::`vftable'
	DD	FLAT:??_E_System_error_category@std@@UAEPAXI@Z
	DD	FLAT:?name@_System_error_category@std@@UBEPBDXZ
	DD	FLAT:?message@_System_error_category@std@@UBE?AV?$basic_string@DU?$char_traits@D@std@@V?$allocator@D@2@@2@H@Z
	DD	FLAT:?default_error_condition@_System_error_category@std@@UBE?AVerror_condition@2@H@Z
	DD	FLAT:?equivalent@error_category@std@@UBE_NABVerror_code@2@H@Z
	DD	FLAT:?equivalent@error_category@std@@UBE_NHABVerror_condition@2@@Z
CONST	ENDS
;	COMDAT ??_C@_0BG@PADBLCHM@iostream?5stream?5error?$AA@
CONST	SEGMENT
??_C@_0BG@PADBLCHM@iostream?5stream?5error?$AA@ DB 'iostream stream error'
	DB	00H						; `string'
CONST	ENDS
;	COMDAT ??_C@_08LLGCOLLL@iostream?$AA@
CONST	SEGMENT
??_C@_08LLGCOLLL@iostream?$AA@ DB 'iostream', 00H	; `string'
CONST	ENDS
;	COMDAT ??_7_Iostream_error_category@std@@6B@
CONST	SEGMENT
??_7_Iostream_error_category@std@@6B@ DD FLAT:??_R4_Iostream_error_category@std@@6B@ ; std::_Iostream_error_category::`vftable'
	DD	FLAT:??_E_Iostream_error_category@std@@UAEPAXI@Z
	DD	FLAT:?name@_Iostream_error_category@std@@UBEPBDXZ
	DD	FLAT:?message@_Iostream_error_category@std@@UBE?AV?$basic_string@DU?$char_traits@D@std@@V?$allocator@D@2@@2@H@Z
	DD	FLAT:?default_error_condition@error_category@std@@UBE?AVerror_condition@2@H@Z
	DD	FLAT:?equivalent@error_category@std@@UBE_NABVerror_code@2@H@Z
	DD	FLAT:?equivalent@error_category@std@@UBE_NHABVerror_condition@2@@Z
CONST	ENDS
;	COMDAT ??_C@_0O@BFJCFAAK@unknown?5error?$AA@
CONST	SEGMENT
??_C@_0O@BFJCFAAK@unknown?5error?$AA@ DB 'unknown error', 00H ; `string'
CONST	ENDS
;	COMDAT ??_C@_07DCLBNMLN@generic?$AA@
CONST	SEGMENT
??_C@_07DCLBNMLN@generic?$AA@ DB 'generic', 00H		; `string'
CONST	ENDS
;	COMDAT ??_7_Generic_error_category@std@@6B@
CONST	SEGMENT
??_7_Generic_error_category@std@@6B@ DD FLAT:??_R4_Generic_error_category@std@@6B@ ; std::_Generic_error_category::`vftable'
	DD	FLAT:??_E_Generic_error_category@std@@UAEPAXI@Z
	DD	FLAT:?name@_Generic_error_category@std@@UBEPBDXZ
	DD	FLAT:?message@_Generic_error_category@std@@UBE?AV?$basic_string@DU?$char_traits@D@std@@V?$allocator@D@2@@2@H@Z
	DD	FLAT:?default_error_condition@error_category@std@@UBE?AVerror_condition@2@H@Z
	DD	FLAT:?equivalent@error_category@std@@UBE_NABVerror_code@2@H@Z
	DD	FLAT:?equivalent@error_category@std@@UBE_NHABVerror_condition@2@@Z
CONST	ENDS
;	COMDAT ??_7error_category@std@@6B@
CONST	SEGMENT
??_7error_category@std@@6B@ DD FLAT:??_R4error_category@std@@6B@ ; std::error_category::`vftable'
	DD	FLAT:??_Eerror_category@std@@UAEPAXI@Z
	DD	FLAT:__purecall
	DD	FLAT:__purecall
	DD	FLAT:?default_error_condition@error_category@std@@UBE?AVerror_condition@2@H@Z
	DD	FLAT:?equivalent@error_category@std@@UBE_NABVerror_code@2@H@Z
	DD	FLAT:?equivalent@error_category@std@@UBE_NHABVerror_condition@2@@Z
CONST	ENDS
;	COMDAT ??_C@_01GFHCPBMG@C?$AA@
CONST	SEGMENT
??_C@_01GFHCPBMG@C?$AA@ DB 'C', 00H			; `string'
CONST	ENDS
;	COMDAT ??_C@_00CNPNBAHC@?$AA@
CONST	SEGMENT
??_C@_00CNPNBAHC@?$AA@ DB 00H				; `string'
CONST	ENDS
;	COMDAT ??_7TgpMfdDrawable@@6B@
CONST	SEGMENT
??_7TgpMfdDrawable@@6B@ DD FLAT:??_R4TgpMfdDrawable@@6B@ ; TgpMfdDrawable::`vftable'
	DD	FLAT:??_ETgpMfdDrawable@@UAEPAXI@Z
	DD	FLAT:?Display@TgpMfdDrawable@@UAEXPAVVirtualDisplay@@@Z
	DD	FLAT:?DisplayInit@TgpMfdDrawable@@UAEXPAVImageBuffer@@@Z
	DD	FLAT:?DisplayExit@DrawableClass@@UAEXXZ
	DD	FLAT:?GetDisplay@TgpMfdDrawable@@UAEPAVVirtualDisplay@@XZ
	DD	FLAT:?PushButton@TgpMfdDrawable@@EAEXHH@Z
CONST	ENDS
;	COMDAT ??_7MfdDrawable@@6B@
CONST	SEGMENT
??_7MfdDrawable@@6B@ DD FLAT:??_R4MfdDrawable@@6B@	; MfdDrawable::`vftable'
	DD	FLAT:??_EMfdDrawable@@UAEPAXI@Z
	DD	FLAT:?Display@MfdDrawable@@UAEXPAVVirtualDisplay@@@Z
	DD	FLAT:?DisplayInit@MfdDrawable@@UAEXPAVImageBuffer@@@Z
	DD	FLAT:?DisplayExit@DrawableClass@@UAEXXZ
	DD	FLAT:?GetDisplay@DrawableClass@@UAEPAVVirtualDisplay@@XZ
	DD	FLAT:?PushButton@MfdDrawable@@UAEXHH@Z
CONST	ENDS
;	COMDAT ??_7DrawableClass@@6B@
CONST	SEGMENT
??_7DrawableClass@@6B@ DD FLAT:??_R4DrawableClass@@6B@	; DrawableClass::`vftable'
	DD	FLAT:??_EDrawableClass@@UAEPAXI@Z
	DD	FLAT:?Display@DrawableClass@@UAEXPAVVirtualDisplay@@@Z
	DD	FLAT:?DisplayInit@DrawableClass@@UAEXPAVImageBuffer@@@Z
	DD	FLAT:?DisplayExit@DrawableClass@@UAEXXZ
	DD	FLAT:?GetDisplay@DrawableClass@@UAEPAVVirtualDisplay@@XZ
	DD	FLAT:?PushButton@DrawableClass@@UAEXHH@Z
CONST	ENDS
;	COMDAT xdata$x
xdata$x	SEGMENT
__unwindtable$??$construct@PADAAPAD@?$allocator@D@std@@QAEXPAPADAAPAD@Z DD 0ffffffffH
	DD	FLAT:__unwindfunclet$??$construct@PADAAPAD@?$allocator@D@std@@QAEXPAPADAAPAD@Z$0
__ehfuncinfo$??$construct@PADAAPAD@?$allocator@D@std@@QAEXPAPADAAPAD@Z DD 019930522H
	DD	01H
	DD	FLAT:__unwindtable$??$construct@PADAAPAD@?$allocator@D@std@@QAEXPAPADAAPAD@Z
	DD	2 DUP(00H)
	DD	2 DUP(00H)
	DD	00H
	DD	01H
xdata$x	ENDS
;	COMDAT xdata$x
xdata$x	SEGMENT
__unwindtable$??1RenderOTW@@UAE@XZ DD 0ffffffffH
	DD	FLAT:__unwindfunclet$??1RenderOTW@@UAE@XZ$0
	DD	00H
	DD	FLAT:__unwindfunclet$??1RenderOTW@@UAE@XZ$1
	DD	01H
	DD	FLAT:__unwindfunclet$??1RenderOTW@@UAE@XZ$2
	DD	02H
	DD	FLAT:__unwindfunclet$??1RenderOTW@@UAE@XZ$3
__ehfuncinfo$??1RenderOTW@@UAE@XZ DD 019930522H
	DD	04H
	DD	FLAT:__unwindtable$??1RenderOTW@@UAE@XZ
	DD	2 DUP(00H)
	DD	2 DUP(00H)
	DD	00H
	DD	01H
xdata$x	ENDS
;	COMDAT xdata$x
xdata$x	SEGMENT
__unwindtable$??0RenderOTW@@QAE@XZ DD 0ffffffffH
	DD	FLAT:__unwindfunclet$??0RenderOTW@@QAE@XZ$0
	DD	00H
	DD	FLAT:__unwindfunclet$??0RenderOTW@@QAE@XZ$1
	DD	01H
	DD	FLAT:__unwindfunclet$??0RenderOTW@@QAE@XZ$2
	DD	02H
	DD	FLAT:__unwindfunclet$??0RenderOTW@@QAE@XZ$3
__ehfuncinfo$??0RenderOTW@@QAE@XZ DD 019930522H
	DD	04H
	DD	FLAT:__unwindtable$??0RenderOTW@@QAE@XZ
	DD	2 DUP(00H)
	DD	2 DUP(00H)
	DD	00H
	DD	01H
xdata$x	ENDS
xdata$x	SEGMENT
__unwindtable$?DisplayInit@TgpMfdDrawable@@UAEXPAVImageBuffer@@@Z DD 0ffffffffH
	DD	FLAT:__unwindfunclet$?DisplayInit@TgpMfdDrawable@@UAEXPAVImageBuffer@@@Z$0
__ehfuncinfo$?DisplayInit@TgpMfdDrawable@@UAEXPAVImageBuffer@@@Z DD 019930522H
	DD	01H
	DD	FLAT:__unwindtable$?DisplayInit@TgpMfdDrawable@@UAEXPAVImageBuffer@@@Z
	DD	2 DUP(00H)
	DD	2 DUP(00H)
	DD	00H
	DD	01H
xdata$x	ENDS
;	COMDAT xdata$x
xdata$x	SEGMENT
__catchsym$?_Copy@?$basic_string@DU?$char_traits@D@std@@V?$allocator@D@2@@std@@QAEXII@Z$5 DD 040H
	DD	00H
	DD	00H
	DD	FLAT:__catch$?_Copy@?$basic_string@DU?$char_traits@D@std@@V?$allocator@D@2@@std@@QAEXII@Z$0
__catchsym$?_Copy@?$basic_string@DU?$char_traits@D@std@@V?$allocator@D@2@@std@@QAEXII@Z$4 DD 040H
	DD	00H
	DD	00H
	DD	FLAT:__catch$?_Copy@?$basic_string@DU?$char_traits@D@std@@V?$allocator@D@2@@std@@QAEXII@Z$1
__unwindtable$?_Copy@?$basic_string@DU?$char_traits@D@std@@V?$allocator@D@2@@std@@QAEXII@Z DD 0ffffffffH
	DD	00H
	DD	0ffffffffH
	DD	00H
	DD	01H
	DD	00H
	DD	01H
	DD	00H
__ehfuncinfo$?_Copy@?$basic_string@DU?$char_traits@D@std@@V?$allocator@D@2@@std@@QAEXII@Z DD 019930522H
	DD	04H
	DD	FLAT:__unwindtable$?_Copy@?$basic_string@DU?$char_traits@D@std@@V?$allocator@D@2@@std@@QAEXII@Z
	DD	02H
	DD	FLAT:__tryblocktable$?_Copy@?$basic_string@DU?$char_traits@D@std@@V?$allocator@D@2@@std@@QAEXII@Z
	DD	2 DUP(00H)
	DD	00H
	DD	01H
__tryblocktable$?_Copy@?$basic_string@DU?$char_traits@D@std@@V?$allocator@D@2@@std@@QAEXII@Z DD 02H
	DD	02H
	DD	03H
	DD	01H
	DD	FLAT:__catchsym$?_Copy@?$basic_string@DU?$char_traits@D@std@@V?$allocator@D@2@@std@@QAEXII@Z$4
	DD	00H
	DD	00H
	DD	03H
	DD	01H
	DD	FLAT:__catchsym$?_Copy@?$basic_string@DU?$char_traits@D@std@@V?$allocator@D@2@@std@@QAEXII@Z$5
xdata$x	ENDS
CRT$XCU	SEGMENT
_allocator_arg$initializer$ DD FLAT:??__Eallocator_arg@std@@YAXXZ
CRT$XCU	ENDS
;	COMDAT CRT$XCU
CRT$XCU	SEGMENT
?_Generic_object$initializer$@?$_Error_objects@H@std@@2P6AXXZA DD FLAT:??__E?_Generic_object@?$_Error_objects@H@std@@2V_Generic_error_category@2@A@@YAXXZ ; std::_Error_objects<int>::_Generic_object$initializer$
CRT$XCU	ENDS
;	COMDAT CRT$XCU
CRT$XCU	SEGMENT
?_Iostream_object$initializer$@?$_Error_objects@H@std@@2P6AXXZA DD FLAT:??__E?_Iostream_object@?$_Error_objects@H@std@@2V_Iostream_error_category@2@A@@YAXXZ ; std::_Error_objects<int>::_Iostream_object$initializer$
CRT$XCU	ENDS
;	COMDAT CRT$XCU
CRT$XCU	SEGMENT
?_System_object$initializer$@?$_Error_objects@H@std@@2P6AXXZA DD FLAT:??__E?_System_object@?$_Error_objects@H@std@@2V_System_error_category@2@A@@YAXXZ ; std::_Error_objects<int>::_System_object$initializer$
CRT$XCU	ENDS
;	COMDAT CRT$XCU
CRT$XCU	SEGMENT
?id$initializer$@?$num_put@DV?$back_insert_iterator@V?$basic_string@DU?$char_traits@D@std@@V?$allocator@D@2@@std@@@std@@@std@@2P6AXXZA DD FLAT:??__E?id@?$num_put@DV?$back_insert_iterator@V?$basic_string@DU?$char_traits@D@std@@V?$allocator@D@2@@std@@@std@@@std@@2V0locale@2@A@@YAXXZ ; std::num_put<char,std::back_insert_iterator<std::basic_string<char,std::char_traits<char>,std::allocator<char> > > >::id$initializer$
CRT$XCU	ENDS
;	COMDAT CRT$XCU
CRT$XCU	SEGMENT
?id$initializer$@?$num_put@_WV?$back_insert_iterator@V?$basic_string@_WU?$char_traits@_W@std@@V?$allocator@_W@2@@std@@@std@@@std@@2P6AXXZA DD FLAT:??__E?id@?$num_put@_WV?$back_insert_iterator@V?$basic_string@_WU?$char_traits@_W@std@@V?$allocator@_W@2@@std@@@std@@@std@@2V0locale@2@A@@YAXXZ ; std::num_put<wchar_t,std::back_insert_iterator<std::basic_string<wchar_t,std::char_traits<wchar_t>,std::allocator<wchar_t> > > >::id$initializer$
CRT$XCU	ENDS
;	COMDAT CRT$XCU
CRT$XCU	SEGMENT
?id$initializer$@?$numpunct@D@std@@2P6AXXZA DD FLAT:??__E?id@?$numpunct@D@std@@2V0locale@2@A@@YAXXZ ; std::numpunct<char>::id$initializer$
CRT$XCU	ENDS
;	COMDAT CRT$XCU
CRT$XCU	SEGMENT
?id$initializer$@?$numpunct@_W@std@@2P6AXXZA DD FLAT:??__E?id@?$numpunct@_W@std@@2V0locale@2@A@@YAXXZ ; std::numpunct<wchar_t>::id$initializer$
CRT$XCU	ENDS
; Function compile flags: /Odtp
; File c:\program files (x86)\microsoft visual studio 11.0\vc\include\xmemory0
;	COMDAT ??$destroy@PAD@?$allocator@D@std@@QAEXPAPAD@Z
_TEXT	SEGMENT
_this$ = -4						; size = 4
__Ptr$ = 8						; size = 4
??$destroy@PAD@?$allocator@D@std@@QAEXPAPAD@Z PROC	; std::allocator<char>::destroy<char *>, COMDAT
; _this$ = ecx

; 621  : 		void destroy(_Uty *_Ptr)

	push	ebp
	mov	ebp, esp
	push	ecx
	mov	DWORD PTR _this$[ebp], ecx

; 622  : 		{	// destroy object at _Ptr
; 623  : 		_Ptr->~_Uty();
; 624  : 		}

	mov	esp, ebp
	pop	ebp
	ret	4
??$destroy@PAD@?$allocator@D@std@@QAEXPAPAD@Z ENDP	; std::allocator<char>::destroy<char *>
_TEXT	ENDS
; Function compile flags: /Odtp
; File c:\program files (x86)\microsoft visual studio 11.0\vc\include\xmemory0
;	COMDAT ??$construct@PADAAPAD@?$allocator@D@std@@QAEXPAPADAAPAD@Z
_TEXT	SEGMENT
$T2 = -28						; size = 4
_this$ = -24						; size = 4
tv73 = -20						; size = 4
$T3 = -16						; size = 4
__$EHRec$ = -12						; size = 12
__Ptr$ = 8						; size = 4
__V0$ = 12						; size = 4
??$construct@PADAAPAD@?$allocator@D@std@@QAEXPAPADAAPAD@Z PROC ; std::allocator<char>::construct<char *,char * &>, COMDAT
; _this$ = ecx

; 617  : _VARIADIC_EXPAND_0X(_ALLOC_MEMBER_CONSTRUCT, , , , )

	push	ebp
	mov	ebp, esp
	push	-1
	push	__ehhandler$??$construct@PADAAPAD@?$allocator@D@std@@QAEXPAPADAAPAD@Z
	mov	eax, DWORD PTR fs:0
	push	eax
	sub	esp, 16					; 00000010H
	mov	eax, DWORD PTR ___security_cookie
	xor	eax, ebp
	push	eax
	lea	eax, DWORD PTR __$EHRec$[ebp]
	mov	DWORD PTR fs:0, eax
	mov	DWORD PTR _this$[ebp], ecx
	mov	eax, DWORD PTR __Ptr$[ebp]
	push	eax
	push	4
	call	??2@YAPAXIPAX@Z				; operator new
	add	esp, 8
	mov	DWORD PTR $T3[ebp], eax
	mov	DWORD PTR __$EHRec$[ebp+8], 0
	cmp	DWORD PTR $T3[ebp], 0
	je	SHORT $LN3@construct
	mov	ecx, DWORD PTR __V0$[ebp]
	push	ecx
	call	??$forward@AAPAD@std@@YAAAPADAAPAD@Z	; std::forward<char * &>
	add	esp, 4
	mov	edx, DWORD PTR $T3[ebp]
	mov	eax, DWORD PTR [eax]
	mov	DWORD PTR [edx], eax
	mov	ecx, DWORD PTR $T3[ebp]
	mov	DWORD PTR tv73[ebp], ecx
	jmp	SHORT $LN4@construct
$LN3@construct:
	mov	DWORD PTR tv73[ebp], 0
$LN4@construct:
	mov	edx, DWORD PTR tv73[ebp]
	mov	DWORD PTR $T2[ebp], edx
	mov	DWORD PTR __$EHRec$[ebp+8], -1
	mov	ecx, DWORD PTR __$EHRec$[ebp]
	mov	DWORD PTR fs:0, ecx
	pop	ecx
	mov	esp, ebp
	pop	ebp
	ret	8
_TEXT	ENDS
;	COMDAT text$x
text$x	SEGMENT
__unwindfunclet$??$construct@PADAAPAD@?$allocator@D@std@@QAEXPAPADAAPAD@Z$0:
	mov	eax, DWORD PTR __Ptr$[ebp]
	push	eax
	mov	eax, DWORD PTR $T3[ebp]
	push	eax
	call	??3@YAXPAX0@Z				; operator delete
	add	esp, 8
	ret	0
__ehhandler$??$construct@PADAAPAD@?$allocator@D@std@@QAEXPAPADAAPAD@Z:
	mov	edx, DWORD PTR [esp+8]
	lea	eax, DWORD PTR [edx+12]
	mov	ecx, DWORD PTR [edx-20]
	xor	ecx, eax
	call	@__security_check_cookie@4
	mov	eax, OFFSET __ehfuncinfo$??$construct@PADAAPAD@?$allocator@D@std@@QAEXPAPADAAPAD@Z
	jmp	___CxxFrameHandler3
text$x	ENDS
??$construct@PADAAPAD@?$allocator@D@std@@QAEXPAPADAAPAD@Z ENDP ; std::allocator<char>::construct<char *,char * &>
; Function compile flags: /Odtp
; File c:\program files (x86)\microsoft visual studio 11.0\vc\include\xlocnum
;	COMDAT ??__E?id@?$numpunct@_W@std@@2V0locale@2@A@@YAXXZ
text$yc	SEGMENT
??__E?id@?$numpunct@_W@std@@2V0locale@2@A@@YAXXZ PROC	; `dynamic initializer for 'std::numpunct<wchar_t>::id'', COMDAT

; 155  : 		void _Getvals(wchar_t, const lconv *_Ptr, _Locinfo::_Cvtvec)

	push	ebp
	mov	ebp, esp
	push	0
	mov	ecx, OFFSET ?id@?$numpunct@_W@std@@2V0locale@2@A ; std::numpunct<wchar_t>::id
	call	??0id@locale@std@@QAE@I@Z		; std::locale::id::id
	pop	ebp
	ret	0
??__E?id@?$numpunct@_W@std@@2V0locale@2@A@@YAXXZ ENDP	; `dynamic initializer for 'std::numpunct<wchar_t>::id''
text$yc	ENDS
; Function compile flags: /Odtp
; File c:\program files (x86)\microsoft visual studio 11.0\vc\include\xlocnum
;	COMDAT ??__E?id@?$numpunct@D@std@@2V0locale@2@A@@YAXXZ
text$yc	SEGMENT
??__E?id@?$numpunct@D@std@@2V0locale@2@A@@YAXXZ PROC	; `dynamic initializer for 'std::numpunct<char>::id'', COMDAT

; 155  : 		void _Getvals(wchar_t, const lconv *_Ptr, _Locinfo::_Cvtvec)

	push	ebp
	mov	ebp, esp
	push	0
	mov	ecx, OFFSET ?id@?$numpunct@D@std@@2V0locale@2@A ; std::numpunct<char>::id
	call	??0id@locale@std@@QAE@I@Z		; std::locale::id::id
	pop	ebp
	ret	0
??__E?id@?$numpunct@D@std@@2V0locale@2@A@@YAXXZ ENDP	; `dynamic initializer for 'std::numpunct<char>::id''
text$yc	ENDS
; Function compile flags: /Odtp
; File c:\program files (x86)\microsoft visual studio 11.0\vc\include\xlocnum
;	COMDAT ??__E?id@?$num_put@_WV?$back_insert_iterator@V?$basic_string@_WU?$char_traits@_W@std@@V?$allocator@_W@2@@std@@@std@@@std@@2V0locale@2@A@@YAXXZ
text$yc	SEGMENT
??__E?id@?$num_put@_WV?$back_insert_iterator@V?$basic_string@_WU?$char_traits@_W@std@@V?$allocator@_W@2@@std@@@std@@@std@@2V0locale@2@A@@YAXXZ PROC ; `dynamic initializer for 'std::num_put<wchar_t,std::back_insert_iterator<std::basic_string<wchar_t,std::char_traits<wchar_t>,std::allocator<wchar_t> > > >::id'', COMDAT

; 155  : 		void _Getvals(wchar_t, const lconv *_Ptr, _Locinfo::_Cvtvec)

	push	ebp
	mov	ebp, esp
	push	0
	mov	ecx, OFFSET ?id@?$num_put@_WV?$back_insert_iterator@V?$basic_string@_WU?$char_traits@_W@std@@V?$allocator@_W@2@@std@@@std@@@std@@2V0locale@2@A ; std::num_put<wchar_t,std::back_insert_iterator<std::basic_string<wchar_t,std::char_traits<wchar_t>,std::allocator<wchar_t> > > >::id
	call	??0id@locale@std@@QAE@I@Z		; std::locale::id::id
	pop	ebp
	ret	0
??__E?id@?$num_put@_WV?$back_insert_iterator@V?$basic_string@_WU?$char_traits@_W@std@@V?$allocator@_W@2@@std@@@std@@@std@@2V0locale@2@A@@YAXXZ ENDP ; `dynamic initializer for 'std::num_put<wchar_t,std::back_insert_iterator<std::basic_string<wchar_t,std::char_traits<wchar_t>,std::allocator<wchar_t> > > >::id''
text$yc	ENDS
; Function compile flags: /Odtp
; File c:\program files (x86)\microsoft visual studio 11.0\vc\include\xlocnum
;	COMDAT ??__E?id@?$num_put@DV?$back_insert_iterator@V?$basic_string@DU?$char_traits@D@std@@V?$allocator@D@2@@std@@@std@@@std@@2V0locale@2@A@@YAXXZ
text$yc	SEGMENT
??__E?id@?$num_put@DV?$back_insert_iterator@V?$basic_string@DU?$char_traits@D@std@@V?$allocator@D@2@@std@@@std@@@std@@2V0locale@2@A@@YAXXZ PROC ; `dynamic initializer for 'std::num_put<char,std::back_insert_iterator<std::basic_string<char,std::char_traits<char>,std::allocator<char> > > >::id'', COMDAT

; 155  : 		void _Getvals(wchar_t, const lconv *_Ptr, _Locinfo::_Cvtvec)

	push	ebp
	mov	ebp, esp
	push	0
	mov	ecx, OFFSET ?id@?$num_put@DV?$back_insert_iterator@V?$basic_string@DU?$char_traits@D@std@@V?$allocator@D@2@@std@@@std@@@std@@2V0locale@2@A ; std::num_put<char,std::back_insert_iterator<std::basic_string<char,std::char_traits<char>,std::allocator<char> > > >::id
	call	??0id@locale@std@@QAE@I@Z		; std::locale::id::id
	pop	ebp
	ret	0
??__E?id@?$num_put@DV?$back_insert_iterator@V?$basic_string@DU?$char_traits@D@std@@V?$allocator@D@2@@std@@@std@@@std@@2V0locale@2@A@@YAXXZ ENDP ; `dynamic initializer for 'std::num_put<char,std::back_insert_iterator<std::basic_string<char,std::char_traits<char>,std::allocator<char> > > >::id''
text$yc	ENDS
; Function compile flags: /Odtp
; File c:\program files (x86)\microsoft visual studio 11.0\vc\include\xmemory0
;	COMDAT ??$destroy@PAD@?$allocator_traits@V?$allocator@D@std@@@std@@SAXAAV?$allocator@D@1@PAPAD@Z
_TEXT	SEGMENT
__Al$ = 8						; size = 4
__Ptr$ = 12						; size = 4
??$destroy@PAD@?$allocator_traits@V?$allocator@D@std@@@std@@SAXAAV?$allocator@D@1@PAPAD@Z PROC ; std::allocator_traits<std::allocator<char> >::destroy<char *>, COMDAT

; 755  : 		static void destroy(_Alloc& _Al, _Uty *_Ptr)

	push	ebp
	mov	ebp, esp

; 756  : 		{	// destroy object at _Ptr
; 757  : 		_Al.destroy(_Ptr);

	mov	eax, DWORD PTR __Ptr$[ebp]
	push	eax
	mov	ecx, DWORD PTR __Al$[ebp]
	call	??$destroy@PAD@?$allocator@D@std@@QAEXPAPAD@Z ; std::allocator<char>::destroy<char *>

; 758  : 		}

	pop	ebp
	ret	0
??$destroy@PAD@?$allocator_traits@V?$allocator@D@std@@@std@@SAXAAV?$allocator@D@1@PAPAD@Z ENDP ; std::allocator_traits<std::allocator<char> >::destroy<char *>
_TEXT	ENDS
; Function compile flags: /Odtp
; File c:\program files (x86)\microsoft visual studio 11.0\vc\include\xmemory0
;	COMDAT ??$construct@PADAAPAD@?$allocator_traits@V?$allocator@D@std@@@std@@SAXAAV?$allocator@D@1@PAPADAAPAD@Z
_TEXT	SEGMENT
__Al$ = 8						; size = 4
__Ptr$ = 12						; size = 4
__V0$ = 16						; size = 4
??$construct@PADAAPAD@?$allocator_traits@V?$allocator@D@std@@@std@@SAXAAV?$allocator@D@1@PAPADAAPAD@Z PROC ; std::allocator_traits<std::allocator<char> >::construct<char *,char * &>, COMDAT

; 751  : _VARIADIC_EXPAND_0X(_ALLOC_TRAITS_SPECIAL_CONSTRUCT, , , , )

	push	ebp
	mov	ebp, esp
	mov	eax, DWORD PTR __V0$[ebp]
	push	eax
	call	??$forward@AAPAD@std@@YAAAPADAAPAD@Z	; std::forward<char * &>
	add	esp, 4
	push	eax
	mov	ecx, DWORD PTR __Ptr$[ebp]
	push	ecx
	mov	ecx, DWORD PTR __Al$[ebp]
	call	??$construct@PADAAPAD@?$allocator@D@std@@QAEXPAPADAAPAD@Z ; std::allocator<char>::construct<char *,char * &>
	pop	ebp
	ret	0
??$construct@PADAAPAD@?$allocator_traits@V?$allocator@D@std@@@std@@SAXAAV?$allocator@D@1@PAPADAAPAD@Z ENDP ; std::allocator_traits<std::allocator<char> >::construct<char *,char * &>
_TEXT	ENDS
; Function compile flags: /Odtp
; File c:\program files (x86)\microsoft visual studio 11.0\vc\include\type_traits
;	COMDAT ??$forward@AAPAD@std@@YAAAPADAAPAD@Z
_TEXT	SEGMENT
__Arg$ = 8						; size = 4
??$forward@AAPAD@std@@YAAAPADAAPAD@Z PROC		; std::forward<char * &>, COMDAT

; 1775 : 	{	// forward an lvalue

	push	ebp
	mov	ebp, esp

; 1776 : 	return (static_cast<_Ty&&>(_Arg));

	mov	eax, DWORD PTR __Arg$[ebp]

; 1777 : 	}

	pop	ebp
	ret	0
??$forward@AAPAD@std@@YAAAPADAAPAD@Z ENDP		; std::forward<char * &>
_TEXT	ENDS
; Function compile flags: /Odtp
;	COMDAT ??__F?_System_object@?$_Error_objects@H@std@@2V_System_error_category@2@A@@YAXXZ
text$yd	SEGMENT
??__F?_System_object@?$_Error_objects@H@std@@2V_System_error_category@2@A@@YAXXZ PROC ; `dynamic atexit destructor for 'std::_Error_objects<int>::_System_object'', COMDAT
	push	ebp
	mov	ebp, esp
	mov	ecx, OFFSET ?_System_object@?$_Error_objects@H@std@@2V_System_error_category@2@A ; std::_Error_objects<int>::_System_object
	call	??1_System_error_category@std@@UAE@XZ
	pop	ebp
	ret	0
??__F?_System_object@?$_Error_objects@H@std@@2V_System_error_category@2@A@@YAXXZ ENDP ; `dynamic atexit destructor for 'std::_Error_objects<int>::_System_object''
text$yd	ENDS
; Function compile flags: /Odtp
; File c:\program files (x86)\microsoft visual studio 11.0\vc\include\xmemory0
;	COMDAT ??__E?_System_object@?$_Error_objects@H@std@@2V_System_error_category@2@A@@YAXXZ
text$yc	SEGMENT
??__E?_System_object@?$_Error_objects@H@std@@2V_System_error_category@2@A@@YAXXZ PROC ; `dynamic initializer for 'std::_Error_objects<int>::_System_object'', COMDAT

; 627  : 		{	// estimate maximum array size

	push	ebp
	mov	ebp, esp
	mov	ecx, OFFSET ?_System_object@?$_Error_objects@H@std@@2V_System_error_category@2@A ; std::_Error_objects<int>::_System_object
	call	??0_System_error_category@std@@QAE@XZ	; std::_System_error_category::_System_error_category
	push	OFFSET ??__F?_System_object@?$_Error_objects@H@std@@2V_System_error_category@2@A@@YAXXZ ; `dynamic atexit destructor for 'std::_Error_objects<int>::_System_object''
	call	_atexit
	add	esp, 4
	pop	ebp
	ret	0
??__E?_System_object@?$_Error_objects@H@std@@2V_System_error_category@2@A@@YAXXZ ENDP ; `dynamic initializer for 'std::_Error_objects<int>::_System_object''
text$yc	ENDS
; Function compile flags: /Odtp
;	COMDAT ??__F?_Iostream_object@?$_Error_objects@H@std@@2V_Iostream_error_category@2@A@@YAXXZ
text$yd	SEGMENT
??__F?_Iostream_object@?$_Error_objects@H@std@@2V_Iostream_error_category@2@A@@YAXXZ PROC ; `dynamic atexit destructor for 'std::_Error_objects<int>::_Iostream_object'', COMDAT
	push	ebp
	mov	ebp, esp
	mov	ecx, OFFSET ?_Iostream_object@?$_Error_objects@H@std@@2V_Iostream_error_category@2@A ; std::_Error_objects<int>::_Iostream_object
	call	??1_Iostream_error_category@std@@UAE@XZ
	pop	ebp
	ret	0
??__F?_Iostream_object@?$_Error_objects@H@std@@2V_Iostream_error_category@2@A@@YAXXZ ENDP ; `dynamic atexit destructor for 'std::_Error_objects<int>::_Iostream_object''
text$yd	ENDS
; Function compile flags: /Odtp
; File c:\program files (x86)\microsoft visual studio 11.0\vc\include\xmemory0
;	COMDAT ??__E?_Iostream_object@?$_Error_objects@H@std@@2V_Iostream_error_category@2@A@@YAXXZ
text$yc	SEGMENT
??__E?_Iostream_object@?$_Error_objects@H@std@@2V_Iostream_error_category@2@A@@YAXXZ PROC ; `dynamic initializer for 'std::_Error_objects<int>::_Iostream_object'', COMDAT

; 627  : 		{	// estimate maximum array size

	push	ebp
	mov	ebp, esp
	mov	ecx, OFFSET ?_Iostream_object@?$_Error_objects@H@std@@2V_Iostream_error_category@2@A ; std::_Error_objects<int>::_Iostream_object
	call	??0_Iostream_error_category@std@@QAE@XZ	; std::_Iostream_error_category::_Iostream_error_category
	push	OFFSET ??__F?_Iostream_object@?$_Error_objects@H@std@@2V_Iostream_error_category@2@A@@YAXXZ ; `dynamic atexit destructor for 'std::_Error_objects<int>::_Iostream_object''
	call	_atexit
	add	esp, 4
	pop	ebp
	ret	0
??__E?_Iostream_object@?$_Error_objects@H@std@@2V_Iostream_error_category@2@A@@YAXXZ ENDP ; `dynamic initializer for 'std::_Error_objects<int>::_Iostream_object''
text$yc	ENDS
; Function compile flags: /Odtp
;	COMDAT ??__F?_Generic_object@?$_Error_objects@H@std@@2V_Generic_error_category@2@A@@YAXXZ
text$yd	SEGMENT
??__F?_Generic_object@?$_Error_objects@H@std@@2V_Generic_error_category@2@A@@YAXXZ PROC ; `dynamic atexit destructor for 'std::_Error_objects<int>::_Generic_object'', COMDAT
	push	ebp
	mov	ebp, esp
	mov	ecx, OFFSET ?_Generic_object@?$_Error_objects@H@std@@2V_Generic_error_category@2@A ; std::_Error_objects<int>::_Generic_object
	call	??1_Generic_error_category@std@@UAE@XZ
	pop	ebp
	ret	0
??__F?_Generic_object@?$_Error_objects@H@std@@2V_Generic_error_category@2@A@@YAXXZ ENDP ; `dynamic atexit destructor for 'std::_Error_objects<int>::_Generic_object''
text$yd	ENDS
; Function compile flags: /Odtp
; File c:\program files (x86)\microsoft visual studio 11.0\vc\include\xmemory0
;	COMDAT ??__E?_Generic_object@?$_Error_objects@H@std@@2V_Generic_error_category@2@A@@YAXXZ
text$yc	SEGMENT
??__E?_Generic_object@?$_Error_objects@H@std@@2V_Generic_error_category@2@A@@YAXXZ PROC ; `dynamic initializer for 'std::_Error_objects<int>::_Generic_object'', COMDAT

; 627  : 		{	// estimate maximum array size

	push	ebp
	mov	ebp, esp
	mov	ecx, OFFSET ?_Generic_object@?$_Error_objects@H@std@@2V_Generic_error_category@2@A ; std::_Error_objects<int>::_Generic_object
	call	??0_Generic_error_category@std@@QAE@XZ	; std::_Generic_error_category::_Generic_error_category
	push	OFFSET ??__F?_Generic_object@?$_Error_objects@H@std@@2V_Generic_error_category@2@A@@YAXXZ ; `dynamic atexit destructor for 'std::_Error_objects<int>::_Generic_object''
	call	_atexit
	add	esp, 4
	pop	ebp
	ret	0
??__E?_Generic_object@?$_Error_objects@H@std@@2V_Generic_error_category@2@A@@YAXXZ ENDP ; `dynamic initializer for 'std::_Error_objects<int>::_Generic_object''
text$yc	ENDS
; Function compile flags: /Odtp
; File c:\program files (x86)\microsoft visual studio 11.0\vc\include\xmemory0
;	COMDAT ??$_Allocate@D@std@@YAPADIPAD@Z
_TEXT	SEGMENT
__Ptr$ = -4						; size = 4
__Count$ = 8						; size = 4
___formal$ = 12						; size = 4
??$_Allocate@D@std@@YAPADIPAD@Z PROC			; std::_Allocate<char>, COMDAT

; 22   : 	{	// allocate storage for _Count elements of type _Ty

	push	ebp
	mov	ebp, esp
	push	ecx

; 23   : 	void *_Ptr = 0;

	mov	DWORD PTR __Ptr$[ebp], 0

; 24   : 
; 25   : 	if (_Count == 0)

	cmp	DWORD PTR __Count$[ebp], 0
	jne	SHORT $LN4@Allocate

; 26   : 		;
; 27   : 	else if (((size_t)(-1) / sizeof (_Ty) < _Count)

	jmp	SHORT $LN3@Allocate
$LN4@Allocate:

; 28   : 		|| (_Ptr = ::operator new(_Count * sizeof (_Ty))) == 0)

	cmp	DWORD PTR __Count$[ebp], -1
	ja	SHORT $LN1@Allocate
	mov	eax, DWORD PTR __Count$[ebp]
	push	eax
	call	??2@YAPAXI@Z				; operator new
	add	esp, 4
	mov	DWORD PTR __Ptr$[ebp], eax
	cmp	DWORD PTR __Ptr$[ebp], 0
	jne	SHORT $LN3@Allocate
$LN1@Allocate:

; 29   : 		_Xbad_alloc();	// report no memory

	call	?_Xbad_alloc@std@@YAXXZ			; std::_Xbad_alloc
$LN3@Allocate:

; 30   : 
; 31   : 	return ((_Ty *)_Ptr);

	mov	eax, DWORD PTR __Ptr$[ebp]
$LN6@Allocate:

; 32   : 	}

	mov	esp, ebp
	pop	ebp
	ret	0
??$_Allocate@D@std@@YAPADIPAD@Z ENDP			; std::_Allocate<char>
_TEXT	ENDS
; Function compile flags: /Odtp
; File c:\program files (x86)\microsoft visual studio 11.0\vc\include\xstddef
;	COMDAT ??$addressof@D@std@@YAPADAAD@Z
_TEXT	SEGMENT
__Val$ = 8						; size = 4
??$addressof@D@std@@YAPADAAD@Z PROC			; std::addressof<char>, COMDAT

; 85   : 	{	// return address of _Val

	push	ebp
	mov	ebp, esp

; 86   : 	return (reinterpret_cast<_Ty *>(
; 87   : 		(&const_cast<char&>(
; 88   : 		reinterpret_cast<const volatile char&>(_Val)))));

	mov	eax, DWORD PTR __Val$[ebp]

; 89   : 	}

	pop	ebp
	ret	0
??$addressof@D@std@@YAPADAAD@Z ENDP			; std::addressof<char>
_TEXT	ENDS
; Function compile flags: /Odtp
; File c:\program files (x86)\microsoft visual studio 11.0\vc\include\xmemory0
;	COMDAT ??$destroy@PAD@?$_Wrap_alloc@V?$allocator@D@std@@@std@@QAEXPAPAD@Z
_TEXT	SEGMENT
_this$ = -4						; size = 4
__Ptr$ = 8						; size = 4
??$destroy@PAD@?$_Wrap_alloc@V?$allocator@D@std@@@std@@QAEXPAPAD@Z PROC ; std::_Wrap_alloc<std::allocator<char> >::destroy<char *>, COMDAT
; _this$ = ecx

; 907  : 		void destroy(_Ty *_Ptr)

	push	ebp
	mov	ebp, esp
	push	ecx
	mov	DWORD PTR _this$[ebp], ecx

; 908  : 		{	// destroy object at _Ptr
; 909  : 		_Mytraits::destroy(*this, _Ptr);

	mov	eax, DWORD PTR __Ptr$[ebp]
	push	eax
	mov	ecx, DWORD PTR _this$[ebp]
	push	ecx
	call	??$destroy@PAD@?$allocator_traits@V?$allocator@D@std@@@std@@SAXAAV?$allocator@D@1@PAPAD@Z ; std::allocator_traits<std::allocator<char> >::destroy<char *>
	add	esp, 8

; 910  : 		}

	mov	esp, ebp
	pop	ebp
	ret	4
??$destroy@PAD@?$_Wrap_alloc@V?$allocator@D@std@@@std@@QAEXPAPAD@Z ENDP ; std::_Wrap_alloc<std::allocator<char> >::destroy<char *>
_TEXT	ENDS
; Function compile flags: /Odtp
; File c:\program files (x86)\microsoft visual studio 11.0\vc\include\xmemory0
;	COMDAT ??$construct@PADAAPAD@?$_Wrap_alloc@V?$allocator@D@std@@@std@@QAEXPAPADAAPAD@Z
_TEXT	SEGMENT
_this$ = -4						; size = 4
__Ptr$ = 8						; size = 4
__V0$ = 12						; size = 4
??$construct@PADAAPAD@?$_Wrap_alloc@V?$allocator@D@std@@@std@@QAEXPAPADAAPAD@Z PROC ; std::_Wrap_alloc<std::allocator<char> >::construct<char *,char * &>, COMDAT
; _this$ = ecx

; 903  : _VARIADIC_EXPAND_0X(_WRAP_ALLOC_CONSTRUCT, , , , )

	push	ebp
	mov	ebp, esp
	push	ecx
	mov	DWORD PTR _this$[ebp], ecx
	mov	eax, DWORD PTR __V0$[ebp]
	push	eax
	call	??$forward@AAPAD@std@@YAAAPADAAPAD@Z	; std::forward<char * &>
	add	esp, 4
	push	eax
	mov	ecx, DWORD PTR __Ptr$[ebp]
	push	ecx
	mov	edx, DWORD PTR _this$[ebp]
	push	edx
	call	??$construct@PADAAPAD@?$allocator_traits@V?$allocator@D@std@@@std@@SAXAAV?$allocator@D@1@PAPADAAPAD@Z ; std::allocator_traits<std::allocator<char> >::construct<char *,char * &>
	add	esp, 12					; 0000000cH
	mov	esp, ebp
	pop	ebp
	ret	8
??$construct@PADAAPAD@?$_Wrap_alloc@V?$allocator@D@std@@@std@@QAEXPAPADAAPAD@Z ENDP ; std::_Wrap_alloc<std::allocator<char> >::construct<char *,char * &>
_TEXT	ENDS
; Function compile flags: /Odtp
; File c:\users\zhitao li\documents\visual studio 2012\projects\freefalcon\sim\include\laserpod.h
;	COMDAT ?CurFOV@LaserPodClass@@QAEMXZ
_TEXT	SEGMENT
_this$ = -4						; size = 4
?CurFOV@LaserPodClass@@QAEMXZ PROC			; LaserPodClass::CurFOV, COMDAT
; _this$ = ecx

; 22   : 	float CurFOV (void)							{return curFOV;};

	push	ebp
	mov	ebp, esp
	push	ecx
	mov	DWORD PTR _this$[ebp], ecx
	mov	eax, DWORD PTR _this$[ebp]
	fld	DWORD PTR [eax+88]
	mov	esp, ebp
	pop	ebp
	ret	0
?CurFOV@LaserPodClass@@QAEMXZ ENDP			; LaserPodClass::CurFOV
_TEXT	ENDS
; Function compile flags: /Odtp
;	COMDAT ??_GRenderIR@@UAEPAXI@Z
_TEXT	SEGMENT
_this$ = -4						; size = 4
___flags$ = 8						; size = 4
??_GRenderIR@@UAEPAXI@Z PROC				; RenderIR::`scalar deleting destructor', COMDAT
; _this$ = ecx
	push	ebp
	mov	ebp, esp
	push	ecx
	mov	DWORD PTR _this$[ebp], ecx
	mov	ecx, DWORD PTR _this$[ebp]
	call	??1RenderIR@@UAE@XZ			; RenderIR::~RenderIR
	mov	eax, DWORD PTR ___flags$[ebp]
	and	eax, 1
	je	SHORT $LN1@scalar
	mov	ecx, DWORD PTR _this$[ebp]
	push	ecx
	call	??3@YAXPAX@Z				; operator delete
	add	esp, 4
$LN1@scalar:
	mov	eax, DWORD PTR _this$[ebp]
	mov	esp, ebp
	pop	ebp
	ret	4
??_GRenderIR@@UAEPAXI@Z ENDP				; RenderIR::`scalar deleting destructor'
_TEXT	ENDS
; Function compile flags: /Odtp
; File c:\users\zhitao li\documents\visual studio 2012\projects\freefalcon\graphics\include\renderir.h
;	COMDAT ?AdjustSkyColor@RenderIR@@MAEXXZ
_TEXT	SEGMENT
_this$ = -4						; size = 4
?AdjustSkyColor@RenderIR@@MAEXXZ PROC			; RenderIR::AdjustSkyColor, COMDAT
; _this$ = ecx

; 33   : 	virtual void AdjustSkyColor( void )		{};

	push	ebp
	mov	ebp, esp
	push	ecx
	mov	DWORD PTR _this$[ebp], ecx
	mov	esp, ebp
	pop	ebp
	ret	0
?AdjustSkyColor@RenderIR@@MAEXXZ ENDP			; RenderIR::AdjustSkyColor
_TEXT	ENDS
; Function compile flags: /Odtp
; File c:\users\zhitao li\documents\visual studio 2012\projects\freefalcon\graphics\include\renderir.h
;	COMDAT ?SetTimeOfDayColor@RenderIR@@MAEXXZ
_TEXT	SEGMENT
_this$ = -4						; size = 4
?SetTimeOfDayColor@RenderIR@@MAEXXZ PROC		; RenderIR::SetTimeOfDayColor, COMDAT
; _this$ = ecx

; 32   : 	virtual void SetTimeOfDayColor( void )	{};

	push	ebp
	mov	ebp, esp
	push	ecx
	mov	DWORD PTR _this$[ebp], ecx
	mov	esp, ebp
	pop	ebp
	ret	0
?SetTimeOfDayColor@RenderIR@@MAEXXZ ENDP		; RenderIR::SetTimeOfDayColor
_TEXT	ENDS
; Function compile flags: /Odtp
; File c:\users\zhitao li\documents\visual studio 2012\projects\freefalcon\graphics\include\renderir.h
;	COMDAT ?DrawStars@RenderIR@@MAEXXZ
_TEXT	SEGMENT
_this$ = -4						; size = 4
?DrawStars@RenderIR@@MAEXXZ PROC			; RenderIR::DrawStars, COMDAT
; _this$ = ecx

; 29   : 	virtual void DrawStars ( void )			{};

	push	ebp
	mov	ebp, esp
	push	ecx
	mov	DWORD PTR _this$[ebp], ecx
	mov	esp, ebp
	pop	ebp
	ret	0
?DrawStars@RenderIR@@MAEXXZ ENDP			; RenderIR::DrawStars
_TEXT	ENDS
; Function compile flags: /Odtp
; File c:\users\zhitao li\documents\visual studio 2012\projects\freefalcon\graphics\include\renderir.h
;	COMDAT ?DrawMoon@RenderIR@@MAEXH@Z
_TEXT	SEGMENT
_this$ = -4						; size = 4
___formal$ = 8						; size = 4
?DrawMoon@RenderIR@@MAEXH@Z PROC			; RenderIR::DrawMoon, COMDAT
; _this$ = ecx

; 28   : 	virtual void DrawMoon( GLint )		{};

	push	ebp
	mov	ebp, esp
	push	ecx
	mov	DWORD PTR _this$[ebp], ecx
	mov	esp, ebp
	pop	ebp
	ret	4
?DrawMoon@RenderIR@@MAEXH@Z ENDP			; RenderIR::DrawMoon
_TEXT	ENDS
; Function compile flags: /Odtp
; File c:\users\zhitao li\documents\visual studio 2012\projects\freefalcon\graphics\include\renderir.h
;	COMDAT ??1RenderIR@@UAE@XZ
_TEXT	SEGMENT
_this$ = -4						; size = 4
??1RenderIR@@UAE@XZ PROC				; RenderIR::~RenderIR, COMDAT
; _this$ = ecx

; 18   : 	virtual ~RenderIR()	{};

	push	ebp
	mov	ebp, esp
	push	ecx
	mov	DWORD PTR _this$[ebp], ecx
	mov	eax, DWORD PTR _this$[ebp]
	mov	DWORD PTR [eax], OFFSET ??_7RenderIR@@6B@
	mov	ecx, DWORD PTR _this$[ebp]
	call	??1RenderTV@@UAE@XZ			; RenderTV::~RenderTV
	mov	esp, ebp
	pop	ebp
	ret	0
??1RenderIR@@UAE@XZ ENDP				; RenderIR::~RenderIR
_TEXT	ENDS
; Function compile flags: /Odtp
; File c:\users\zhitao li\documents\visual studio 2012\projects\freefalcon\graphics\include\renderir.h
;	COMDAT ??0RenderIR@@QAE@XZ
_TEXT	SEGMENT
_this$ = -4						; size = 4
??0RenderIR@@QAE@XZ PROC				; RenderIR::RenderIR, COMDAT
; _this$ = ecx

; 17   : 	RenderIR()			{};

	push	ebp
	mov	ebp, esp
	push	ecx
	mov	DWORD PTR _this$[ebp], ecx
	mov	ecx, DWORD PTR _this$[ebp]
	call	??0RenderTV@@QAE@XZ			; RenderTV::RenderTV
	mov	eax, DWORD PTR _this$[ebp]
	mov	DWORD PTR [eax], OFFSET ??_7RenderIR@@6B@
	mov	eax, DWORD PTR _this$[ebp]
	mov	esp, ebp
	pop	ebp
	ret	0
??0RenderIR@@QAE@XZ ENDP				; RenderIR::RenderIR
_TEXT	ENDS
; Function compile flags: /Odtp
;	COMDAT ??_GRenderTV@@UAEPAXI@Z
_TEXT	SEGMENT
_this$ = -4						; size = 4
___flags$ = 8						; size = 4
??_GRenderTV@@UAEPAXI@Z PROC				; RenderTV::`scalar deleting destructor', COMDAT
; _this$ = ecx
	push	ebp
	mov	ebp, esp
	push	ecx
	mov	DWORD PTR _this$[ebp], ecx
	mov	ecx, DWORD PTR _this$[ebp]
	call	??1RenderTV@@UAE@XZ			; RenderTV::~RenderTV
	mov	eax, DWORD PTR ___flags$[ebp]
	and	eax, 1
	je	SHORT $LN1@scalar
	mov	ecx, DWORD PTR _this$[ebp]
	push	ecx
	call	??3@YAXPAX@Z				; operator delete
	add	esp, 4
$LN1@scalar:
	mov	eax, DWORD PTR _this$[ebp]
	mov	esp, ebp
	pop	ebp
	ret	4
??_GRenderTV@@UAEPAXI@Z ENDP				; RenderTV::`scalar deleting destructor'
_TEXT	ENDS
; Function compile flags: /Odtp
; File c:\users\zhitao li\documents\visual studio 2012\projects\freefalcon\graphics\include\rendertv.h
;	COMDAT ?ComputeHorizonEffect@RenderTV@@MAEXPAUHorizonRecord@@@Z
_TEXT	SEGMENT
_this$ = -4						; size = 4
_pHorizon$ = 8						; size = 4
?ComputeHorizonEffect@RenderTV@@MAEXPAUHorizonRecord@@@Z PROC ; RenderTV::ComputeHorizonEffect, COMDAT
; _this$ = ecx

; 31   :  	virtual void ComputeHorizonEffect( HorizonRecord *pHorizon )	{ pHorizon->horeffect = 0; };

	push	ebp
	mov	ebp, esp
	push	ecx
	mov	DWORD PTR _this$[ebp], ecx
	mov	eax, DWORD PTR _pHorizon$[ebp]
	mov	DWORD PTR [eax+36], 0
	mov	esp, ebp
	pop	ebp
	ret	4
?ComputeHorizonEffect@RenderTV@@MAEXPAUHorizonRecord@@@Z ENDP ; RenderTV::ComputeHorizonEffect
_TEXT	ENDS
; Function compile flags: /Odtp
; File c:\users\zhitao li\documents\visual studio 2012\projects\freefalcon\graphics\include\rendertv.h
;	COMDAT ??1RenderTV@@UAE@XZ
_TEXT	SEGMENT
_this$ = -4						; size = 4
??1RenderTV@@UAE@XZ PROC				; RenderTV::~RenderTV, COMDAT
; _this$ = ecx

; 18   : 	virtual ~RenderTV()	{};

	push	ebp
	mov	ebp, esp
	push	ecx
	mov	DWORD PTR _this$[ebp], ecx
	mov	eax, DWORD PTR _this$[ebp]
	mov	DWORD PTR [eax], OFFSET ??_7RenderTV@@6B@
	mov	ecx, DWORD PTR _this$[ebp]
	call	??1RenderOTW@@UAE@XZ			; RenderOTW::~RenderOTW
	mov	esp, ebp
	pop	ebp
	ret	0
??1RenderTV@@UAE@XZ ENDP				; RenderTV::~RenderTV
_TEXT	ENDS
; Function compile flags: /Odtp
; File c:\users\zhitao li\documents\visual studio 2012\projects\freefalcon\graphics\include\rendertv.h
;	COMDAT ??0RenderTV@@QAE@XZ
_TEXT	SEGMENT
_this$ = -4						; size = 4
??0RenderTV@@QAE@XZ PROC				; RenderTV::RenderTV, COMDAT
; _this$ = ecx

; 17   : 	RenderTV()			{};

	push	ebp
	mov	ebp, esp
	push	ecx
	mov	DWORD PTR _this$[ebp], ecx
	mov	ecx, DWORD PTR _this$[ebp]
	call	??0RenderOTW@@QAE@XZ			; RenderOTW::RenderOTW
	mov	eax, DWORD PTR _this$[ebp]
	mov	DWORD PTR [eax], OFFSET ??_7RenderTV@@6B@
	mov	eax, DWORD PTR _this$[ebp]
	mov	esp, ebp
	pop	ebp
	ret	0
??0RenderTV@@QAE@XZ ENDP				; RenderTV::RenderTV
_TEXT	ENDS
; Function compile flags: /Odtp
;	COMDAT ??_GRenderOTW@@UAEPAXI@Z
_TEXT	SEGMENT
_this$ = -4						; size = 4
___flags$ = 8						; size = 4
??_GRenderOTW@@UAEPAXI@Z PROC				; RenderOTW::`scalar deleting destructor', COMDAT
; _this$ = ecx
	push	ebp
	mov	ebp, esp
	push	ecx
	mov	DWORD PTR _this$[ebp], ecx
	mov	ecx, DWORD PTR _this$[ebp]
	call	??1RenderOTW@@UAE@XZ			; RenderOTW::~RenderOTW
	mov	eax, DWORD PTR ___flags$[ebp]
	and	eax, 1
	je	SHORT $LN1@scalar
	mov	ecx, DWORD PTR _this$[ebp]
	push	ecx
	call	??3@YAXPAX@Z				; operator delete
	add	esp, 4
$LN1@scalar:
	mov	eax, DWORD PTR _this$[ebp]
	mov	esp, ebp
	pop	ebp
	ret	4
??_GRenderOTW@@UAEPAXI@Z ENDP				; RenderOTW::`scalar deleting destructor'
_TEXT	ENDS
; Function compile flags: /Odtp
; File c:\users\zhitao li\documents\visual studio 2012\projects\freefalcon\graphics\include\renderow.h
;	COMDAT ??1RenderOTW@@UAE@XZ
_TEXT	SEGMENT
_this$ = -16						; size = 4
__$EHRec$ = -12						; size = 12
??1RenderOTW@@UAE@XZ PROC				; RenderOTW::~RenderOTW, COMDAT
; _this$ = ecx

; 107  : 	virtual ~RenderOTW()	{};

	push	ebp
	mov	ebp, esp
	push	-1
	push	__ehhandler$??1RenderOTW@@UAE@XZ
	mov	eax, DWORD PTR fs:0
	push	eax
	push	ecx
	mov	eax, DWORD PTR ___security_cookie
	xor	eax, ebp
	push	eax
	lea	eax, DWORD PTR __$EHRec$[ebp]
	mov	DWORD PTR fs:0, eax
	mov	DWORD PTR _this$[ebp], ecx
	mov	eax, DWORD PTR _this$[ebp]
	mov	DWORD PTR [eax], OFFSET ??_7RenderOTW@@6B@
	mov	DWORD PTR __$EHRec$[ebp+8], 3
	mov	ecx, DWORD PTR _this$[ebp]
	add	ecx, 263324				; 0004049cH
	call	??1Edge@@QAE@XZ				; Edge::~Edge
	mov	BYTE PTR __$EHRec$[ebp+8], 2
	mov	ecx, DWORD PTR _this$[ebp]
	add	ecx, 263312				; 00040490H
	call	??1Edge@@QAE@XZ				; Edge::~Edge
	mov	BYTE PTR __$EHRec$[ebp+8], 1
	mov	ecx, DWORD PTR _this$[ebp]
	add	ecx, 263300				; 00040484H
	call	??1Edge@@QAE@XZ				; Edge::~Edge
	mov	BYTE PTR __$EHRec$[ebp+8], 0
	mov	ecx, DWORD PTR _this$[ebp]
	add	ecx, 263288				; 00040478H
	call	??1Edge@@QAE@XZ				; Edge::~Edge
	mov	DWORD PTR __$EHRec$[ebp+8], -1
	mov	ecx, DWORD PTR _this$[ebp]
	call	??1Render3D@@UAE@XZ			; Render3D::~Render3D
	mov	ecx, DWORD PTR __$EHRec$[ebp]
	mov	DWORD PTR fs:0, ecx
	pop	ecx
	mov	esp, ebp
	pop	ebp
	ret	0
_TEXT	ENDS
;	COMDAT text$x
text$x	SEGMENT
__unwindfunclet$??1RenderOTW@@UAE@XZ$0:
	mov	ecx, DWORD PTR _this$[ebp]
	jmp	??1Render3D@@UAE@XZ			; Render3D::~Render3D
__unwindfunclet$??1RenderOTW@@UAE@XZ$1:
	mov	ecx, DWORD PTR _this$[ebp]
	add	ecx, 263288				; 00040478H
	jmp	??1Edge@@QAE@XZ				; Edge::~Edge
__unwindfunclet$??1RenderOTW@@UAE@XZ$2:
	mov	ecx, DWORD PTR _this$[ebp]
	add	ecx, 263300				; 00040484H
	jmp	??1Edge@@QAE@XZ				; Edge::~Edge
__unwindfunclet$??1RenderOTW@@UAE@XZ$3:
	mov	ecx, DWORD PTR _this$[ebp]
	add	ecx, 263312				; 00040490H
	jmp	??1Edge@@QAE@XZ				; Edge::~Edge
__ehhandler$??1RenderOTW@@UAE@XZ:
	mov	edx, DWORD PTR [esp+8]
	lea	eax, DWORD PTR [edx+12]
	mov	ecx, DWORD PTR [edx-8]
	xor	ecx, eax
	call	@__security_check_cookie@4
	mov	eax, OFFSET __ehfuncinfo$??1RenderOTW@@UAE@XZ
	jmp	___CxxFrameHandler3
text$x	ENDS
??1RenderOTW@@UAE@XZ ENDP				; RenderOTW::~RenderOTW
; Function compile flags: /Odtp
; File c:\users\zhitao li\documents\visual studio 2012\projects\freefalcon\graphics\include\renderow.h
;	COMDAT ??0RenderOTW@@QAE@XZ
_TEXT	SEGMENT
_this$ = -16						; size = 4
__$EHRec$ = -12						; size = 12
??0RenderOTW@@QAE@XZ PROC				; RenderOTW::RenderOTW, COMDAT
; _this$ = ecx

; 106  : 	RenderOTW()				{ skyRoof = FALSE; };

	push	ebp
	mov	ebp, esp
	push	-1
	push	__ehhandler$??0RenderOTW@@QAE@XZ
	mov	eax, DWORD PTR fs:0
	push	eax
	push	ecx
	mov	eax, DWORD PTR ___security_cookie
	xor	eax, ebp
	push	eax
	lea	eax, DWORD PTR __$EHRec$[ebp]
	mov	DWORD PTR fs:0, eax
	mov	DWORD PTR _this$[ebp], ecx
	mov	ecx, DWORD PTR _this$[ebp]
	call	??0Render3D@@QAE@XZ			; Render3D::Render3D
	mov	DWORD PTR __$EHRec$[ebp+8], 0
	mov	eax, DWORD PTR _this$[ebp]
	mov	DWORD PTR [eax], OFFSET ??_7RenderOTW@@6B@
	mov	ecx, DWORD PTR _this$[ebp]
	add	ecx, 263288				; 00040478H
	call	??0Edge@@QAE@XZ				; Edge::Edge
	mov	BYTE PTR __$EHRec$[ebp+8], 1
	mov	ecx, DWORD PTR _this$[ebp]
	add	ecx, 263300				; 00040484H
	call	??0Edge@@QAE@XZ				; Edge::Edge
	mov	BYTE PTR __$EHRec$[ebp+8], 2
	mov	ecx, DWORD PTR _this$[ebp]
	add	ecx, 263312				; 00040490H
	call	??0Edge@@QAE@XZ				; Edge::Edge
	mov	BYTE PTR __$EHRec$[ebp+8], 3
	mov	ecx, DWORD PTR _this$[ebp]
	add	ecx, 263324				; 0004049cH
	call	??0Edge@@QAE@XZ				; Edge::Edge
	mov	ecx, DWORD PTR _this$[ebp]
	mov	DWORD PTR [ecx+263100], 0
	mov	DWORD PTR __$EHRec$[ebp+8], -1
	mov	eax, DWORD PTR _this$[ebp]
	mov	ecx, DWORD PTR __$EHRec$[ebp]
	mov	DWORD PTR fs:0, ecx
	pop	ecx
	mov	esp, ebp
	pop	ebp
	ret	0
_TEXT	ENDS
;	COMDAT text$x
text$x	SEGMENT
__unwindfunclet$??0RenderOTW@@QAE@XZ$0:
	mov	ecx, DWORD PTR _this$[ebp]
	jmp	??1Render3D@@UAE@XZ			; Render3D::~Render3D
__unwindfunclet$??0RenderOTW@@QAE@XZ$1:
	mov	ecx, DWORD PTR _this$[ebp]
	add	ecx, 263288				; 00040478H
	jmp	??1Edge@@QAE@XZ				; Edge::~Edge
__unwindfunclet$??0RenderOTW@@QAE@XZ$2:
	mov	ecx, DWORD PTR _this$[ebp]
	add	ecx, 263300				; 00040484H
	jmp	??1Edge@@QAE@XZ				; Edge::~Edge
__unwindfunclet$??0RenderOTW@@QAE@XZ$3:
	mov	ecx, DWORD PTR _this$[ebp]
	add	ecx, 263312				; 00040490H
	jmp	??1Edge@@QAE@XZ				; Edge::~Edge
__ehhandler$??0RenderOTW@@QAE@XZ:
	mov	edx, DWORD PTR [esp+8]
	lea	eax, DWORD PTR [edx+12]
	mov	ecx, DWORD PTR [edx-8]
	xor	ecx, eax
	call	@__security_check_cookie@4
	mov	eax, OFFSET __ehfuncinfo$??0RenderOTW@@QAE@XZ
	jmp	___CxxFrameHandler3
text$x	ENDS
??0RenderOTW@@QAE@XZ ENDP				; RenderOTW::RenderOTW
; Function compile flags: /Odtp
; File c:\users\zhitao li\documents\visual studio 2012\projects\freefalcon\graphics\include\edge.h
;	COMDAT ??1Edge@@QAE@XZ
_TEXT	SEGMENT
_this$ = -4						; size = 4
??1Edge@@QAE@XZ PROC					; Edge::~Edge, COMDAT
; _this$ = ecx

; 20   : 	~Edge()	{};

	push	ebp
	mov	ebp, esp
	push	ecx
	mov	DWORD PTR _this$[ebp], ecx
	mov	esp, ebp
	pop	ebp
	ret	0
??1Edge@@QAE@XZ ENDP					; Edge::~Edge
_TEXT	ENDS
; Function compile flags: /Odtp
; File c:\users\zhitao li\documents\visual studio 2012\projects\freefalcon\graphics\include\edge.h
;	COMDAT ??0Edge@@QAE@XZ
_TEXT	SEGMENT
_this$ = -4						; size = 4
??0Edge@@QAE@XZ PROC					; Edge::Edge, COMDAT
; _this$ = ecx

; 19   : 	Edge()	{};

	push	ebp
	mov	ebp, esp
	push	ecx
	mov	DWORD PTR _this$[ebp], ecx
	mov	eax, DWORD PTR _this$[ebp]
	mov	esp, ebp
	pop	ebp
	ret	0
??0Edge@@QAE@XZ ENDP					; Edge::Edge
_TEXT	ENDS
; Function compile flags: /Odtp
;	COMDAT ??_GRender3D@@UAEPAXI@Z
_TEXT	SEGMENT
_this$ = -4						; size = 4
___flags$ = 8						; size = 4
??_GRender3D@@UAEPAXI@Z PROC				; Render3D::`scalar deleting destructor', COMDAT
; _this$ = ecx
	push	ebp
	mov	ebp, esp
	push	ecx
	mov	DWORD PTR _this$[ebp], ecx
	mov	ecx, DWORD PTR _this$[ebp]
	call	??1Render3D@@UAE@XZ			; Render3D::~Render3D
	mov	eax, DWORD PTR ___flags$[ebp]
	and	eax, 1
	je	SHORT $LN1@scalar
	mov	ecx, DWORD PTR _this$[ebp]
	push	ecx
	call	??3@YAXPAX@Z				; operator delete
	add	esp, 4
$LN1@scalar:
	mov	eax, DWORD PTR _this$[ebp]
	mov	esp, ebp
	pop	ebp
	ret	4
??_GRender3D@@UAEPAXI@Z ENDP				; Render3D::`scalar deleting destructor'
_TEXT	ENDS
; Function compile flags: /Odtp
; File c:\users\zhitao li\documents\visual studio 2012\projects\freefalcon\graphics\include\render3d.h
;	COMDAT ?Cleanup@Render3D@@UAEXXZ
_TEXT	SEGMENT
_this$ = -4						; size = 4
?Cleanup@Render3D@@UAEXXZ PROC				; Render3D::Cleanup, COMDAT
; _this$ = ecx

; 49   : 	virtual void Cleanup( void )	{ Render2D::Cleanup(); };

	push	ebp
	mov	ebp, esp
	push	ecx
	mov	DWORD PTR _this$[ebp], ecx
	mov	ecx, DWORD PTR _this$[ebp]
	call	?Cleanup@Render2D@@UAEXXZ		; Render2D::Cleanup
	mov	esp, ebp
	pop	ebp
	ret	0
?Cleanup@Render3D@@UAEXXZ ENDP				; Render3D::Cleanup
_TEXT	ENDS
; Function compile flags: /Odtp
; File c:\users\zhitao li\documents\visual studio 2012\projects\freefalcon\graphics\include\render3d.h
;	COMDAT ??1Render3D@@UAE@XZ
_TEXT	SEGMENT
_this$ = -4						; size = 4
??1Render3D@@UAE@XZ PROC				; Render3D::~Render3D, COMDAT
; _this$ = ecx

; 43   : 	virtual ~Render3D()	{};

	push	ebp
	mov	ebp, esp
	push	ecx
	mov	DWORD PTR _this$[ebp], ecx
	mov	eax, DWORD PTR _this$[ebp]
	mov	DWORD PTR [eax], OFFSET ??_7Render3D@@6B@
	mov	ecx, DWORD PTR _this$[ebp]
	call	??1Render2D@@UAE@XZ			; Render2D::~Render2D
	mov	esp, ebp
	pop	ebp
	ret	0
??1Render3D@@UAE@XZ ENDP				; Render3D::~Render3D
_TEXT	ENDS
; Function compile flags: /Odtp
; File c:\users\zhitao li\documents\visual studio 2012\projects\freefalcon\graphics\include\render3d.h
;	COMDAT ??0Render3D@@QAE@XZ
_TEXT	SEGMENT
_this$ = -4						; size = 4
??0Render3D@@QAE@XZ PROC				; Render3D::Render3D, COMDAT
; _this$ = ecx

; 42   : 	Render3D()	{};

	push	ebp
	mov	ebp, esp
	push	ecx
	mov	DWORD PTR _this$[ebp], ecx
	mov	ecx, DWORD PTR _this$[ebp]
	call	??0Render2D@@QAE@XZ			; Render2D::Render2D
	mov	eax, DWORD PTR _this$[ebp]
	mov	DWORD PTR [eax], OFFSET ??_7Render3D@@6B@
	mov	eax, DWORD PTR _this$[ebp]
	mov	esp, ebp
	pop	ebp
	ret	0
??0Render3D@@QAE@XZ ENDP				; Render3D::Render3D
_TEXT	ENDS
; Function compile flags: /Odtp
;	COMDAT ??_GRender2D@@UAEPAXI@Z
_TEXT	SEGMENT
_this$ = -4						; size = 4
___flags$ = 8						; size = 4
??_GRender2D@@UAEPAXI@Z PROC				; Render2D::`scalar deleting destructor', COMDAT
; _this$ = ecx
	push	ebp
	mov	ebp, esp
	push	ecx
	mov	DWORD PTR _this$[ebp], ecx
	mov	ecx, DWORD PTR _this$[ebp]
	call	??1Render2D@@UAE@XZ			; Render2D::~Render2D
	mov	eax, DWORD PTR ___flags$[ebp]
	and	eax, 1
	je	SHORT $LN1@scalar
	mov	ecx, DWORD PTR _this$[ebp]
	push	ecx
	call	??3@YAXPAX@Z				; operator delete
	add	esp, 4
$LN1@scalar:
	mov	eax, DWORD PTR _this$[ebp]
	mov	esp, ebp
	pop	ebp
	ret	4
??_GRender2D@@UAEPAXI@Z ENDP				; Render2D::`scalar deleting destructor'
_TEXT	ENDS
; Function compile flags: /Odtp
; File c:\users\zhitao li\documents\visual studio 2012\projects\freefalcon\graphics\include\render2d.h
;	COMDAT ?SetLineStyle@Render2D@@UAEXH@Z
_TEXT	SEGMENT
_this$ = -4						; size = 4
___formal$ = 8						; size = 4
?SetLineStyle@Render2D@@UAEXH@Z PROC			; Render2D::SetLineStyle, COMDAT
; _this$ = ecx

; 60   : 	virtual void SetLineStyle (int) {};

	push	ebp
	mov	ebp, esp
	push	ecx
	mov	DWORD PTR _this$[ebp], ecx
	mov	esp, ebp
	pop	ebp
	ret	4
?SetLineStyle@Render2D@@UAEXH@Z ENDP			; Render2D::SetLineStyle
_TEXT	ENDS
; Function compile flags: /Odtp
; File c:\users\zhitao li\documents\visual studio 2012\projects\freefalcon\graphics\include\render2d.h
;	COMDAT ?SetBackground@Render2D@@UAEXK@Z
_TEXT	SEGMENT
_this$ = -4						; size = 4
_packedRGBA$ = 8					; size = 4
?SetBackground@Render2D@@UAEXK@Z PROC			; Render2D::SetBackground, COMDAT
; _this$ = ecx

; 50   : 	virtual void SetBackground(DWORD packedRGBA){ context.SetState(MPR_STA_BG_COLOR,packedRGBA); };

	push	ebp
	mov	ebp, esp
	push	ecx
	mov	DWORD PTR _this$[ebp], ecx
	mov	eax, DWORD PTR _packedRGBA$[ebp]
	push	eax
	push	10					; 0000000aH
	mov	ecx, DWORD PTR _this$[ebp]
	add	ecx, 100				; 00000064H
	call	?SetState@ContextMPR@@QAEXGK@Z		; ContextMPR::SetState
	mov	esp, ebp
	pop	ebp
	ret	4
?SetBackground@Render2D@@UAEXK@Z ENDP			; Render2D::SetBackground
_TEXT	ENDS
; Function compile flags: /Odtp
; File c:\users\zhitao li\documents\visual studio 2012\projects\freefalcon\graphics\include\render2d.h
;	COMDAT ?SetColor@Render2D@@UAEXK@Z
_TEXT	SEGMENT
_this$ = -4						; size = 4
_packedRGBA$ = 8					; size = 4
?SetColor@Render2D@@UAEXK@Z PROC			; Render2D::SetColor, COMDAT
; _this$ = ecx

; 49   : 	virtual void SetColor(DWORD packedRGBA)	{ context.RestoreState(STATE_SOLID); context.SelectForegroundColor(packedRGBA); };

	push	ebp
	mov	ebp, esp
	push	ecx
	mov	DWORD PTR _this$[ebp], ecx
	push	0
	mov	ecx, DWORD PTR _this$[ebp]
	add	ecx, 100				; 00000064H
	call	?RestoreState@ContextMPR@@QAEXH@Z	; ContextMPR::RestoreState
	mov	eax, DWORD PTR _packedRGBA$[ebp]
	push	eax
	mov	ecx, DWORD PTR _this$[ebp]
	add	ecx, 100				; 00000064H
	call	?SelectForegroundColor@ContextMPR@@QAEXH@Z ; ContextMPR::SelectForegroundColor
	mov	esp, ebp
	pop	ebp
	ret	4
?SetColor@Render2D@@UAEXK@Z ENDP			; Render2D::SetColor
_TEXT	ENDS
; Function compile flags: /Odtp
; File c:\users\zhitao li\documents\visual studio 2012\projects\freefalcon\graphics\include\render2d.h
;	COMDAT ?Color@Render2D@@UAEKXZ
_TEXT	SEGMENT
_this$ = -4						; size = 4
?Color@Render2D@@UAEKXZ PROC				; Render2D::Color, COMDAT
; _this$ = ecx

; 48   : 	virtual DWORD Color(void) { return context.CurrentForegroundColor(); };

	push	ebp
	mov	ebp, esp
	push	ecx
	mov	DWORD PTR _this$[ebp], ecx
	mov	ecx, DWORD PTR _this$[ebp]
	add	ecx, 100				; 00000064H
	call	?CurrentForegroundColor@ContextMPR@@QAEHXZ ; ContextMPR::CurrentForegroundColor
	mov	esp, ebp
	pop	ebp
	ret	0
?Color@Render2D@@UAEKXZ ENDP				; Render2D::Color
_TEXT	ENDS
; Function compile flags: /Odtp
; File c:\users\zhitao li\documents\visual studio 2012\projects\freefalcon\graphics\include\render2d.h
;	COMDAT ?ClearZBuffer@Render2D@@UAEXXZ
_TEXT	SEGMENT
_this$ = -4						; size = 4
?ClearZBuffer@Render2D@@UAEXXZ PROC			; Render2D::ClearZBuffer, COMDAT
; _this$ = ecx

; 42   : 	virtual void ClearZBuffer( void )	{ context.ClearBuffers( MPR_CI_ZBUFFER ); };

	push	ebp
	mov	ebp, esp
	push	ecx
	mov	DWORD PTR _this$[ebp], ecx
	push	4
	mov	ecx, DWORD PTR _this$[ebp]
	add	ecx, 100				; 00000064H
	call	?ClearBuffers@ContextMPR@@QAEXG@Z	; ContextMPR::ClearBuffers
	mov	esp, ebp
	pop	ebp
	ret	0
?ClearZBuffer@Render2D@@UAEXXZ ENDP			; Render2D::ClearZBuffer
_TEXT	ENDS
; Function compile flags: /Odtp
; File c:\users\zhitao li\documents\visual studio 2012\projects\freefalcon\graphics\include\render2d.h
;	COMDAT ?ClearDraw@Render2D@@UAEXXZ
_TEXT	SEGMENT
_this$ = -4						; size = 4
?ClearDraw@Render2D@@UAEXXZ PROC			; Render2D::ClearDraw, COMDAT
; _this$ = ecx

; 41   : 	virtual void ClearDraw( void )		{ context.ClearBuffers( MPR_CI_DRAW_BUFFER ); };

	push	ebp
	mov	ebp, esp
	push	ecx
	mov	DWORD PTR _this$[ebp], ecx
	push	1
	mov	ecx, DWORD PTR _this$[ebp]
	add	ecx, 100				; 00000064H
	call	?ClearBuffers@ContextMPR@@QAEXG@Z	; ContextMPR::ClearBuffers
	mov	esp, ebp
	pop	ebp
	ret	0
?ClearDraw@Render2D@@UAEXXZ ENDP			; Render2D::ClearDraw
_TEXT	ENDS
; Function compile flags: /Odtp
; File c:\users\zhitao li\documents\visual studio 2012\projects\freefalcon\graphics\include\render2d.h
;	COMDAT ?GetImageBuffer@Render2D@@QAEPAVImageBuffer@@XZ
_TEXT	SEGMENT
_this$ = -4						; size = 4
?GetImageBuffer@Render2D@@QAEPAVImageBuffer@@XZ PROC	; Render2D::GetImageBuffer, COMDAT
; _this$ = ecx

; 38   : 	ImageBuffer* GetImageBuffer(void) {return image;};

	push	ebp
	mov	ebp, esp
	push	ecx
	mov	DWORD PTR _this$[ebp], ecx
	mov	eax, DWORD PTR _this$[ebp]
	mov	eax, DWORD PTR [eax+48]
	mov	esp, ebp
	pop	ebp
	ret	0
?GetImageBuffer@Render2D@@QAEPAVImageBuffer@@XZ ENDP	; Render2D::GetImageBuffer
_TEXT	ENDS
; Function compile flags: /Odtp
; File c:\users\zhitao li\documents\visual studio 2012\projects\freefalcon\graphics\include\render2d.h
;	COMDAT ??1Render2D@@UAE@XZ
_TEXT	SEGMENT
_this$ = -4						; size = 4
??1Render2D@@UAE@XZ PROC				; Render2D::~Render2D, COMDAT
; _this$ = ecx

; 32   : 	virtual ~Render2D()	{};

	push	ebp
	mov	ebp, esp
	push	ecx
	mov	DWORD PTR _this$[ebp], ecx
	mov	eax, DWORD PTR _this$[ebp]
	mov	DWORD PTR [eax], OFFSET ??_7Render2D@@6B@
	mov	ecx, DWORD PTR _this$[ebp]
	call	??1VirtualDisplay@@UAE@XZ		; VirtualDisplay::~VirtualDisplay
	mov	esp, ebp
	pop	ebp
	ret	0
??1Render2D@@UAE@XZ ENDP				; Render2D::~Render2D
_TEXT	ENDS
; Function compile flags: /Odtp
; File c:\users\zhitao li\documents\visual studio 2012\projects\freefalcon\graphics\include\render2d.h
;	COMDAT ??0Render2D@@QAE@XZ
_TEXT	SEGMENT
_this$ = -4						; size = 4
??0Render2D@@QAE@XZ PROC				; Render2D::Render2D, COMDAT
; _this$ = ecx

; 31   : 	Render2D()			{};

	push	ebp
	mov	ebp, esp
	push	ecx
	mov	DWORD PTR _this$[ebp], ecx
	mov	ecx, DWORD PTR _this$[ebp]
	call	??0VirtualDisplay@@QAE@XZ		; VirtualDisplay::VirtualDisplay
	mov	eax, DWORD PTR _this$[ebp]
	mov	DWORD PTR [eax], OFFSET ??_7Render2D@@6B@
	mov	eax, DWORD PTR _this$[ebp]
	mov	esp, ebp
	pop	ebp
	ret	0
??0Render2D@@QAE@XZ ENDP				; Render2D::Render2D
_TEXT	ENDS
; Function compile flags: /Odtp
;	COMDAT ??_GVirtualDisplay@@UAEPAXI@Z
_TEXT	SEGMENT
_this$ = -4						; size = 4
___flags$ = 8						; size = 4
??_GVirtualDisplay@@UAEPAXI@Z PROC			; VirtualDisplay::`scalar deleting destructor', COMDAT
; _this$ = ecx
	push	ebp
	mov	ebp, esp
	push	ecx
	mov	DWORD PTR _this$[ebp], ecx
	mov	ecx, DWORD PTR _this$[ebp]
	call	??1VirtualDisplay@@UAE@XZ		; VirtualDisplay::~VirtualDisplay
	mov	eax, DWORD PTR ___flags$[ebp]
	and	eax, 1
	je	SHORT $LN1@scalar
	mov	ecx, DWORD PTR _this$[ebp]
	push	ecx
	call	??3@YAXPAX@Z				; operator delete
	add	esp, 4
$LN1@scalar:
	mov	eax, DWORD PTR _this$[ebp]
	mov	esp, ebp
	pop	ebp
	ret	4
??_GVirtualDisplay@@UAEPAXI@Z ENDP			; VirtualDisplay::`scalar deleting destructor'
_TEXT	ENDS
; Function compile flags: /Odtp
; File c:\users\zhitao li\documents\visual studio 2012\projects\freefalcon\graphics\include\display.h
;	COMDAT ?Color@VirtualDisplay@@UAEKXZ
_TEXT	SEGMENT
_this$ = -4						; size = 4
?Color@VirtualDisplay@@UAEKXZ PROC			; VirtualDisplay::Color, COMDAT
; _this$ = ecx

; 136  : 	virtual DWORD Color( void )	{return 0x0; };

	push	ebp
	mov	ebp, esp
	push	ecx
	mov	DWORD PTR _this$[ebp], ecx
	xor	eax, eax
	mov	esp, ebp
	pop	ebp
	ret	0
?Color@VirtualDisplay@@UAEKXZ ENDP			; VirtualDisplay::Color
_TEXT	ENDS
; Function compile flags: /Odtp
; File c:\users\zhitao li\documents\visual studio 2012\projects\freefalcon\graphics\include\display.h
;	COMDAT ?SetLineStyle@VirtualDisplay@@UAEXH@Z
_TEXT	SEGMENT
_this$ = -4						; size = 4
___formal$ = 8						; size = 4
?SetLineStyle@VirtualDisplay@@UAEXH@Z PROC		; VirtualDisplay::SetLineStyle, COMDAT
; _this$ = ecx

; 135  : 	virtual void SetLineStyle (int) {};

	push	ebp
	mov	ebp, esp
	push	ecx
	mov	DWORD PTR _this$[ebp], ecx
	mov	esp, ebp
	pop	ebp
	ret	4
?SetLineStyle@VirtualDisplay@@UAEXH@Z ENDP		; VirtualDisplay::SetLineStyle
_TEXT	ENDS
; Function compile flags: /Odtp
; File c:\users\zhitao li\documents\visual studio 2012\projects\freefalcon\graphics\include\display.h
;	COMDAT ?CurFont@VirtualDisplay@@SAHXZ
_TEXT	SEGMENT
?CurFont@VirtualDisplay@@SAHXZ PROC			; VirtualDisplay::CurFont, COMDAT

; 132  : 	static int CurFont(void) { return pFontSet->fontNum; };

	push	ebp
	mov	ebp, esp
	mov	eax, DWORD PTR ?pFontSet@VirtualDisplay@@2PAUFontSet@@A ; VirtualDisplay::pFontSet
	mov	eax, DWORD PTR [eax+24672]
	pop	ebp
	ret	0
?CurFont@VirtualDisplay@@SAHXZ ENDP			; VirtualDisplay::CurFont
_TEXT	ENDS
; Function compile flags: /Odtp
; File c:\users\zhitao li\documents\visual studio 2012\projects\freefalcon\graphics\include\display.h
;	COMDAT ?TextHeight@VirtualDisplay@@UAEMXZ
_TEXT	SEGMENT
tv71 = -8						; size = 4
_this$ = -4						; size = 4
?TextHeight@VirtualDisplay@@UAEMXZ PROC			; VirtualDisplay::TextHeight, COMDAT
; _this$ = ecx

; 121  : 	virtual float TextHeight(void)			{ return ScreenTextHeight()/scaleY; };		// normalized screen space

	push	ebp
	mov	ebp, esp
	sub	esp, 8
	mov	DWORD PTR _this$[ebp], ecx
	call	?ScreenTextHeight@VirtualDisplay@@SAHXZ	; VirtualDisplay::ScreenTextHeight
	cvtsi2ss xmm0, eax
	mov	eax, DWORD PTR _this$[ebp]
	divss	xmm0, DWORD PTR [eax+36]
	movss	DWORD PTR tv71[ebp], xmm0
	fld	DWORD PTR tv71[ebp]
	mov	esp, ebp
	pop	ebp
	ret	0
?TextHeight@VirtualDisplay@@UAEMXZ ENDP			; VirtualDisplay::TextHeight
_TEXT	ENDS
; Function compile flags: /Odtp
; File c:\users\zhitao li\documents\visual studio 2012\projects\freefalcon\graphics\include\display.h
;	COMDAT ?TextWidth@VirtualDisplay@@UAEMPAD@Z
_TEXT	SEGMENT
tv73 = -8						; size = 4
_this$ = -4						; size = 4
_string$ = 8						; size = 4
?TextWidth@VirtualDisplay@@UAEMPAD@Z PROC		; VirtualDisplay::TextWidth, COMDAT
; _this$ = ecx

; 120  : 	virtual float TextWidth(char *string)	{ return ScreenTextWidth(string)/scaleX; };	// normalized screen space

	push	ebp
	mov	ebp, esp
	sub	esp, 8
	mov	DWORD PTR _this$[ebp], ecx
	mov	eax, DWORD PTR _string$[ebp]
	push	eax
	call	?ScreenTextWidth@VirtualDisplay@@SAHPBD@Z ; VirtualDisplay::ScreenTextWidth
	add	esp, 4
	cvtsi2ss xmm0, eax
	mov	ecx, DWORD PTR _this$[ebp]
	divss	xmm0, DWORD PTR [ecx+32]
	movss	DWORD PTR tv73[ebp], xmm0
	fld	DWORD PTR tv73[ebp]
	mov	esp, ebp
	pop	ebp
	ret	4
?TextWidth@VirtualDisplay@@UAEMPAD@Z ENDP		; VirtualDisplay::TextWidth
_TEXT	ENDS
; Function compile flags: /Odtp
; File c:\users\zhitao li\documents\visual studio 2012\projects\freefalcon\graphics\include\display.h
;	COMDAT ?Arc@VirtualDisplay@@UAEXMMMMM@Z
_TEXT	SEGMENT
_this$ = -4						; size = 4
_x$ = 8							; size = 4
_y$ = 12						; size = 4
_xRadius$ = 16						; size = 4
_start$ = 20						; size = 4
_stop$ = 24						; size = 4
?Arc@VirtualDisplay@@UAEXMMMMM@Z PROC			; VirtualDisplay::Arc, COMDAT
; _this$ = ecx

; 109  : 		{ OvalArc(x, y, xRadius, xRadius*scaleX/scaleY, start, stop); };

	push	ebp
	mov	ebp, esp
	push	ecx
	mov	DWORD PTR _this$[ebp], ecx
	push	ecx
	movss	xmm0, DWORD PTR _stop$[ebp]
	movss	DWORD PTR [esp], xmm0
	push	ecx
	movss	xmm0, DWORD PTR _start$[ebp]
	movss	DWORD PTR [esp], xmm0
	mov	eax, DWORD PTR _this$[ebp]
	movss	xmm0, DWORD PTR _xRadius$[ebp]
	mulss	xmm0, DWORD PTR [eax+32]
	mov	ecx, DWORD PTR _this$[ebp]
	divss	xmm0, DWORD PTR [ecx+36]
	push	ecx
	movss	DWORD PTR [esp], xmm0
	push	ecx
	movss	xmm0, DWORD PTR _xRadius$[ebp]
	movss	DWORD PTR [esp], xmm0
	push	ecx
	movss	xmm0, DWORD PTR _y$[ebp]
	movss	DWORD PTR [esp], xmm0
	push	ecx
	movss	xmm0, DWORD PTR _x$[ebp]
	movss	DWORD PTR [esp], xmm0
	mov	edx, DWORD PTR _this$[ebp]
	mov	eax, DWORD PTR [edx]
	mov	ecx, DWORD PTR _this$[ebp]
	mov	edx, DWORD PTR [eax+44]
	call	edx
	mov	esp, ebp
	pop	ebp
	ret	20					; 00000014H
?Arc@VirtualDisplay@@UAEXMMMMM@Z ENDP			; VirtualDisplay::Arc
_TEXT	ENDS
; Function compile flags: /Odtp
; File c:\users\zhitao li\documents\visual studio 2012\projects\freefalcon\graphics\include\display.h
;	COMDAT ?Circle@VirtualDisplay@@UAEXMMM@Z
_TEXT	SEGMENT
_this$ = -4						; size = 4
_x$ = 8							; size = 4
_y$ = 12						; size = 4
_xRadius$ = 16						; size = 4
?Circle@VirtualDisplay@@UAEXMMM@Z PROC			; VirtualDisplay::Circle, COMDAT
; _this$ = ecx

; 107  : 		{ Oval(x, y, xRadius, xRadius*scaleX/scaleY); };

	push	ebp
	mov	ebp, esp
	push	ecx
	mov	DWORD PTR _this$[ebp], ecx
	mov	eax, DWORD PTR _this$[ebp]
	movss	xmm0, DWORD PTR _xRadius$[ebp]
	mulss	xmm0, DWORD PTR [eax+32]
	mov	ecx, DWORD PTR _this$[ebp]
	divss	xmm0, DWORD PTR [ecx+36]
	push	ecx
	movss	DWORD PTR [esp], xmm0
	push	ecx
	movss	xmm0, DWORD PTR _xRadius$[ebp]
	movss	DWORD PTR [esp], xmm0
	push	ecx
	movss	xmm0, DWORD PTR _y$[ebp]
	movss	DWORD PTR [esp], xmm0
	push	ecx
	movss	xmm0, DWORD PTR _x$[ebp]
	movss	DWORD PTR [esp], xmm0
	mov	edx, DWORD PTR _this$[ebp]
	mov	eax, DWORD PTR [edx]
	mov	ecx, DWORD PTR _this$[ebp]
	mov	edx, DWORD PTR [eax+40]
	call	edx
	mov	esp, ebp
	pop	ebp
	ret	12					; 0000000cH
?Circle@VirtualDisplay@@UAEXMMM@Z ENDP			; VirtualDisplay::Circle
_TEXT	ENDS
; Function compile flags: /Odtp
; File c:\users\zhitao li\documents\visual studio 2012\projects\freefalcon\graphics\include\display.h
;	COMDAT ??1VirtualDisplay@@UAE@XZ
_TEXT	SEGMENT
_this$ = -4						; size = 4
??1VirtualDisplay@@UAE@XZ PROC				; VirtualDisplay::~VirtualDisplay, COMDAT
; _this$ = ecx

; 86   :     virtual ~VirtualDisplay()	{ ShiAssert( ready == FALSE ); }

	push	ebp
	mov	ebp, esp
	push	ecx
	mov	DWORD PTR _this$[ebp], ecx
	mov	eax, DWORD PTR _this$[ebp]
	mov	DWORD PTR [eax], OFFSET ??_7VirtualDisplay@@6B@
	mov	ecx, DWORD PTR _this$[ebp]
	add	ecx, 100				; 00000064H
	call	??1ContextMPR@@UAE@XZ			; ContextMPR::~ContextMPR
	mov	esp, ebp
	pop	ebp
	ret	0
??1VirtualDisplay@@UAE@XZ ENDP				; VirtualDisplay::~VirtualDisplay
_TEXT	ENDS
; Function compile flags: /Odtp
; File c:\users\zhitao li\documents\visual studio 2012\projects\freefalcon\graphics\include\display.h
;	COMDAT ??0VirtualDisplay@@QAE@XZ
_TEXT	SEGMENT
_this$ = -4						; size = 4
??0VirtualDisplay@@QAE@XZ PROC				; VirtualDisplay::VirtualDisplay, COMDAT
; _this$ = ecx

; 85   :     VirtualDisplay()			{ ready = FALSE; tLeft = tTop = tRight = tBottom = txRes = tyRes = 0; }

	push	ebp
	mov	ebp, esp
	push	ecx
	mov	DWORD PTR _this$[ebp], ecx
	mov	eax, DWORD PTR _this$[ebp]
	mov	DWORD PTR [eax], OFFSET ??_7VirtualDisplay@@6B@
	mov	ecx, DWORD PTR _this$[ebp]
	add	ecx, 100				; 00000064H
	call	??0ContextMPR@@QAE@XZ			; ContextMPR::ContextMPR
	mov	ecx, DWORD PTR _this$[ebp]
	mov	DWORD PTR [ecx+92], 0
	mov	edx, DWORD PTR _this$[ebp]
	mov	DWORD PTR [edx+262776], 0
	mov	eax, DWORD PTR _this$[ebp]
	mov	DWORD PTR [eax+262772], 0
	mov	ecx, DWORD PTR _this$[ebp]
	mov	DWORD PTR [ecx+262768], 0
	mov	edx, DWORD PTR _this$[ebp]
	mov	DWORD PTR [edx+262764], 0
	mov	eax, DWORD PTR _this$[ebp]
	mov	DWORD PTR [eax+262760], 0
	mov	ecx, DWORD PTR _this$[ebp]
	mov	DWORD PTR [ecx+262756], 0
	mov	eax, DWORD PTR _this$[ebp]
	mov	esp, ebp
	pop	ebp
	ret	0
??0VirtualDisplay@@QAE@XZ ENDP				; VirtualDisplay::VirtualDisplay
_TEXT	ENDS
; Function compile flags: /Odtp
; File c:\users\zhitao li\documents\visual studio 2012\projects\freefalcon\sim\include\aircrft.h
;	COMDAT ?RaltReady@AircraftClass@@QAEHXZ
_TEXT	SEGMENT
tv68 = -8						; size = 4
_this$ = -4						; size = 4
?RaltReady@AircraftClass@@QAEHXZ PROC			; AircraftClass::RaltReady, COMDAT
; _this$ = ecx

; 416  : 	int RaltReady() { return (RALTCoolTime < 0.0F && RALTStatus == RON) ? 1 : 0; };

	push	ebp
	mov	ebp, esp
	sub	esp, 8
	mov	DWORD PTR _this$[ebp], ecx
	mov	eax, DWORD PTR _this$[ebp]
	movss	xmm0, DWORD PTR __real@00000000
	comiss	xmm0, DWORD PTR [eax+1008]
	jbe	SHORT $LN3@RaltReady
	mov	ecx, DWORD PTR _this$[ebp]
	cmp	DWORD PTR [ecx+1004], 2
	jne	SHORT $LN3@RaltReady
	mov	DWORD PTR tv68[ebp], 1
	jmp	SHORT $LN4@RaltReady
$LN3@RaltReady:
	mov	DWORD PTR tv68[ebp], 0
$LN4@RaltReady:
	mov	eax, DWORD PTR tv68[ebp]
	mov	esp, ebp
	pop	ebp
	ret	0
?RaltReady@AircraftClass@@QAEHXZ ENDP			; AircraftClass::RaltReady
_TEXT	ENDS
; Function compile flags: /Odtp
; File c:\users\zhitao li\documents\visual studio 2012\projects\freefalcon\sim\include\sms.h
;	COMDAT ?MasterArm@SMSBaseClass@@QAE?AW4MasterArmState@1@XZ
_TEXT	SEGMENT
_this$ = -4						; size = 4
?MasterArm@SMSBaseClass@@QAE?AW4MasterArmState@1@XZ PROC ; SMSBaseClass::MasterArm, COMDAT
; _this$ = ecx

; 92   : 	MasterArmState MasterArm(void) {return masterArm;};

	push	ebp
	mov	ebp, esp
	push	ecx
	mov	DWORD PTR _this$[ebp], ecx
	mov	eax, DWORD PTR _this$[ebp]
	mov	eax, DWORD PTR [eax+8]
	mov	esp, ebp
	pop	ebp
	ret	0
?MasterArm@SMSBaseClass@@QAE?AW4MasterArmState@1@XZ ENDP ; SMSBaseClass::MasterArm
_TEXT	ENDS
; Function compile flags: /Odtp
; File c:\users\zhitao li\documents\visual studio 2012\projects\freefalcon\sim\include\sms.h
;	COMDAT ?Ownship@SMSBaseClass@@QAEPAVSimVehicleClass@@XZ
_TEXT	SEGMENT
_this$ = -4						; size = 4
?Ownship@SMSBaseClass@@QAEPAVSimVehicleClass@@XZ PROC	; SMSBaseClass::Ownship, COMDAT
; _this$ = ecx

; 91   : 	SimVehicleClass* Ownship(void) {return ownship;};

	push	ebp
	mov	ebp, esp
	push	ecx
	mov	DWORD PTR _this$[ebp], ecx
	mov	eax, DWORD PTR _this$[ebp]
	mov	eax, DWORD PTR [eax+56]
	mov	esp, ebp
	pop	ebp
	ret	0
?Ownship@SMSBaseClass@@QAEPAVSimVehicleClass@@XZ ENDP	; SMSBaseClass::Ownship
_TEXT	ENDS
; Function compile flags: /Odtp
; File c:\users\zhitao li\documents\visual studio 2012\projects\freefalcon\sim\include\sms.h
;	COMDAT ?CurHardpoint@SMSBaseClass@@QAEHXZ
_TEXT	SEGMENT
_this$ = -4						; size = 4
?CurHardpoint@SMSBaseClass@@QAEHXZ PROC			; SMSBaseClass::CurHardpoint, COMDAT
; _this$ = ecx

; 88   : 	int CurHardpoint (void) {return curHardpoint;};

	push	ebp
	mov	ebp, esp
	push	ecx
	mov	DWORD PTR _this$[ebp], ecx
	mov	eax, DWORD PTR _this$[ebp]
	mov	eax, DWORD PTR [eax+44]
	mov	esp, ebp
	pop	ebp
	ret	0
?CurHardpoint@SMSBaseClass@@QAEHXZ ENDP			; SMSBaseClass::CurHardpoint
_TEXT	ENDS
; Function compile flags: /Odtp
; File c:\users\zhitao li\documents\visual studio 2012\projects\freefalcon\sim\include\sms.h
;	COMDAT ?NumHardpoints@SMSBaseClass@@QAEHXZ
_TEXT	SEGMENT
_this$ = -4						; size = 4
?NumHardpoints@SMSBaseClass@@QAEHXZ PROC		; SMSBaseClass::NumHardpoints, COMDAT
; _this$ = ecx

; 87   : 	int NumHardpoints (void) {return numHardpoints;};

	push	ebp
	mov	ebp, esp
	push	ecx
	mov	DWORD PTR _this$[ebp], ecx
	mov	eax, DWORD PTR _this$[ebp]
	mov	eax, DWORD PTR [eax+40]
	mov	esp, ebp
	pop	ebp
	ret	0
?NumHardpoints@SMSBaseClass@@QAEHXZ ENDP		; SMSBaseClass::NumHardpoints
_TEXT	ENDS
; Function compile flags: /Odtp
; File c:\users\zhitao li\documents\visual studio 2012\projects\freefalcon\sim\include\sms.h
;	COMDAT ?CurStationOK@SMSBaseClass@@QAEHXZ
_TEXT	SEGMENT
_this$ = -4						; size = 4
?CurStationOK@SMSBaseClass@@QAEHXZ PROC			; SMSBaseClass::CurStationOK, COMDAT
; _this$ = ecx

; 85   : 	int CurStationOK (void) { return StationOK(curHardpoint); };

	push	ebp
	mov	ebp, esp
	push	ecx
	mov	DWORD PTR _this$[ebp], ecx
	mov	eax, DWORD PTR _this$[ebp]
	mov	ecx, DWORD PTR [eax+44]
	push	ecx
	mov	ecx, DWORD PTR _this$[ebp]
	call	?StationOK@SMSBaseClass@@QAEHH@Z	; SMSBaseClass::StationOK
	mov	esp, ebp
	pop	ebp
	ret	0
?CurStationOK@SMSBaseClass@@QAEHXZ ENDP			; SMSBaseClass::CurStationOK
_TEXT	ENDS
; Function compile flags: /Odtp
; File c:\users\zhitao li\documents\visual studio 2012\projects\freefalcon\sim\include\fcc.h
;	COMDAT ?IsAAMasterMode@FireControlComputer@@QAEHXZ
_TEXT	SEGMENT
_this$ = -8						; size = 4
tv67 = -4						; size = 4
?IsAAMasterMode@FireControlComputer@@QAEHXZ PROC	; FireControlComputer::IsAAMasterMode, COMDAT
; _this$ = ecx

; 279  : 	int IsAAMasterMode() { return GetMainMasterMode() == MM_AA; };

	push	ebp
	mov	ebp, esp
	sub	esp, 8
	mov	DWORD PTR _this$[ebp], ecx
	mov	ecx, DWORD PTR _this$[ebp]
	call	?GetMainMasterMode@FireControlComputer@@QAE?AW4MASTERMODES@@XZ ; FireControlComputer::GetMainMasterMode
	cmp	eax, 1
	jne	SHORT $LN3@IsAAMaster
	mov	DWORD PTR tv67[ebp], 1
	jmp	SHORT $LN4@IsAAMaster
$LN3@IsAAMaster:
	mov	DWORD PTR tv67[ebp], 0
$LN4@IsAAMaster:
	mov	eax, DWORD PTR tv67[ebp]
	mov	esp, ebp
	pop	ebp
	ret	0
?IsAAMasterMode@FireControlComputer@@QAEHXZ ENDP	; FireControlComputer::IsAAMasterMode
_TEXT	ENDS
; Function compile flags: /Odtp
; File c:\users\zhitao li\documents\visual studio 2012\projects\freefalcon\sim\include\fcc.h
;	COMDAT ?IsAGMasterMode@FireControlComputer@@QAEHXZ
_TEXT	SEGMENT
_this$ = -8						; size = 4
tv67 = -4						; size = 4
?IsAGMasterMode@FireControlComputer@@QAEHXZ PROC	; FireControlComputer::IsAGMasterMode, COMDAT
; _this$ = ecx

; 278  : 	int IsAGMasterMode() { return GetMainMasterMode() == MM_AG; };

	push	ebp
	mov	ebp, esp
	sub	esp, 8
	mov	DWORD PTR _this$[ebp], ecx
	mov	ecx, DWORD PTR _this$[ebp]
	call	?GetMainMasterMode@FireControlComputer@@QAE?AW4MASTERMODES@@XZ ; FireControlComputer::GetMainMasterMode
	test	eax, eax
	jne	SHORT $LN3@IsAGMaster
	mov	DWORD PTR tv67[ebp], 1
	jmp	SHORT $LN4@IsAGMaster
$LN3@IsAGMaster:
	mov	DWORD PTR tv67[ebp], 0
$LN4@IsAGMaster:
	mov	eax, DWORD PTR tv67[ebp]
	mov	esp, ebp
	pop	ebp
	ret	0
?IsAGMasterMode@FireControlComputer@@QAEHXZ ENDP	; FireControlComputer::IsAGMasterMode
_TEXT	ENDS
; Function compile flags: /Odtp
; File c:\users\zhitao li\documents\visual studio 2012\projects\freefalcon\graphics\include\context.h
;	COMDAT ?CurrentForegroundColor@ContextMPR@@QAEHXZ
_TEXT	SEGMENT
_this$ = -4						; size = 4
?CurrentForegroundColor@ContextMPR@@QAEHXZ PROC		; ContextMPR::CurrentForegroundColor, COMDAT
; _this$ = ecx

; 708  : 	int CurrentForegroundColor(void) {return m_colFG_Raw;};

	push	ebp
	mov	ebp, esp
	push	ecx
	mov	DWORD PTR _this$[ebp], ecx
	mov	eax, DWORD PTR _this$[ebp]
	mov	eax, DWORD PTR [eax+8]
	mov	esp, ebp
	pop	ebp
	ret	0
?CurrentForegroundColor@ContextMPR@@QAEHXZ ENDP		; ContextMPR::CurrentForegroundColor
_TEXT	ENDS
; Function compile flags: /Odtp
;	COMDAT ??_G_System_error_category@std@@UAEPAXI@Z
_TEXT	SEGMENT
_this$ = -4						; size = 4
___flags$ = 8						; size = 4
??_G_System_error_category@std@@UAEPAXI@Z PROC		; std::_System_error_category::`scalar deleting destructor', COMDAT
; _this$ = ecx
	push	ebp
	mov	ebp, esp
	push	ecx
	mov	DWORD PTR _this$[ebp], ecx
	mov	ecx, DWORD PTR _this$[ebp]
	call	??1_System_error_category@std@@UAE@XZ
	mov	eax, DWORD PTR ___flags$[ebp]
	and	eax, 1
	je	SHORT $LN1@scalar
	mov	ecx, DWORD PTR _this$[ebp]
	push	ecx
	call	??3@YAXPAX@Z				; operator delete
	add	esp, 4
$LN1@scalar:
	mov	eax, DWORD PTR _this$[ebp]
	mov	esp, ebp
	pop	ebp
	ret	4
??_G_System_error_category@std@@UAEPAXI@Z ENDP		; std::_System_error_category::`scalar deleting destructor'
_TEXT	ENDS
; Function compile flags: /Odtp
;	COMDAT ??1_System_error_category@std@@UAE@XZ
_TEXT	SEGMENT
_this$ = -4						; size = 4
??1_System_error_category@std@@UAE@XZ PROC		; std::_System_error_category::~_System_error_category, COMDAT
; _this$ = ecx
	push	ebp
	mov	ebp, esp
	push	ecx
	mov	DWORD PTR _this$[ebp], ecx
	mov	ecx, DWORD PTR _this$[ebp]
	call	??1_Generic_error_category@std@@UAE@XZ
	mov	esp, ebp
	pop	ebp
	ret	0
??1_System_error_category@std@@UAE@XZ ENDP		; std::_System_error_category::~_System_error_category
_TEXT	ENDS
; Function compile flags: /Odtp
; File c:\program files (x86)\microsoft visual studio 11.0\vc\include\system_error
;	COMDAT ?default_error_condition@_System_error_category@std@@UBE?AVerror_condition@2@H@Z
_TEXT	SEGMENT
_this$ = -4						; size = 4
___$ReturnUdt$ = 8					; size = 4
__Errval$ = 12						; size = 4
?default_error_condition@_System_error_category@std@@UBE?AVerror_condition@2@H@Z PROC ; std::_System_error_category::default_error_condition, COMDAT
; _this$ = ecx

; 641  : 		{	// make error_condition for error code (generic if possible)

	push	ebp
	mov	ebp, esp
	push	ecx
	mov	DWORD PTR _this$[ebp], ecx

; 642  : 		if (_Syserror_map(_Errval))

	mov	eax, DWORD PTR __Errval$[ebp]
	push	eax
	call	?_Syserror_map@std@@YAPBDH@Z		; std::_Syserror_map
	add	esp, 4
	test	eax, eax
	je	SHORT $LN2@default_er

; 643  : 			return (error_condition(_Errval, generic_category()));

	call	?generic_category@std@@YAABVerror_category@1@XZ ; std::generic_category
	push	eax
	mov	ecx, DWORD PTR __Errval$[ebp]
	push	ecx
	mov	ecx, DWORD PTR ___$ReturnUdt$[ebp]
	call	??0error_condition@std@@QAE@HABVerror_category@1@@Z ; std::error_condition::error_condition
	mov	eax, DWORD PTR ___$ReturnUdt$[ebp]
	jmp	SHORT $LN3@default_er

; 644  : 		else

	jmp	SHORT $LN3@default_er
$LN2@default_er:

; 645  : 			return (error_condition(_Errval, system_category()));

	call	?system_category@std@@YAABVerror_category@1@XZ ; std::system_category
	push	eax
	mov	edx, DWORD PTR __Errval$[ebp]
	push	edx
	mov	ecx, DWORD PTR ___$ReturnUdt$[ebp]
	call	??0error_condition@std@@QAE@HABVerror_category@1@@Z ; std::error_condition::error_condition
	mov	eax, DWORD PTR ___$ReturnUdt$[ebp]
$LN3@default_er:

; 646  : 		}

	mov	esp, ebp
	pop	ebp
	ret	8
?default_error_condition@_System_error_category@std@@UBE?AVerror_condition@2@H@Z ENDP ; std::_System_error_category::default_error_condition
_TEXT	ENDS
; Function compile flags: /Odtp
; File c:\program files (x86)\microsoft visual studio 11.0\vc\include\system_error
;	COMDAT ?message@_System_error_category@std@@UBE?AV?$basic_string@DU?$char_traits@D@std@@V?$allocator@D@2@@2@H@Z
_TEXT	SEGMENT
_this$ = -16						; size = 4
$T1 = -12						; size = 4
tv69 = -8						; size = 4
__Name$ = -4						; size = 4
___$ReturnUdt$ = 8					; size = 4
__Errcode$ = 12						; size = 4
?message@_System_error_category@std@@UBE?AV?$basic_string@DU?$char_traits@D@std@@V?$allocator@D@2@@2@H@Z PROC ; std::_System_error_category::message, COMDAT
; _this$ = ecx

; 634  : 		{	// convert to name of error

	push	ebp
	mov	ebp, esp
	sub	esp, 16					; 00000010H
	mov	DWORD PTR _this$[ebp], ecx
	mov	DWORD PTR $T1[ebp], 0

; 635  : 		const char *_Name = _Winerror_map(_Errcode);

	mov	eax, DWORD PTR __Errcode$[ebp]
	push	eax
	call	?_Winerror_map@std@@YAPBDH@Z		; std::_Winerror_map
	add	esp, 4
	mov	DWORD PTR __Name$[ebp], eax

; 636  : 		return (string(_Name != 0 ? _Name : "unknown error"));

	cmp	DWORD PTR __Name$[ebp], 0
	je	SHORT $LN3@message
	mov	ecx, DWORD PTR __Name$[ebp]
	mov	DWORD PTR tv69[ebp], ecx
	jmp	SHORT $LN4@message
$LN3@message:
	mov	DWORD PTR tv69[ebp], OFFSET ??_C@_0O@BFJCFAAK@unknown?5error?$AA@
$LN4@message:
	mov	edx, DWORD PTR tv69[ebp]
	push	edx
	mov	ecx, DWORD PTR ___$ReturnUdt$[ebp]
	call	??0?$basic_string@DU?$char_traits@D@std@@V?$allocator@D@2@@std@@QAE@PBD@Z ; std::basic_string<char,std::char_traits<char>,std::allocator<char> >::basic_string<char,std::char_traits<char>,std::allocator<char> >
	mov	eax, DWORD PTR $T1[ebp]
	or	eax, 1
	mov	DWORD PTR $T1[ebp], eax
	mov	eax, DWORD PTR ___$ReturnUdt$[ebp]

; 637  : 		}

	mov	esp, ebp
	pop	ebp
	ret	8
?message@_System_error_category@std@@UBE?AV?$basic_string@DU?$char_traits@D@std@@V?$allocator@D@2@@2@H@Z ENDP ; std::_System_error_category::message
_TEXT	ENDS
; Function compile flags: /Odtp
; File c:\program files (x86)\microsoft visual studio 11.0\vc\include\system_error
;	COMDAT ?name@_System_error_category@std@@UBEPBDXZ
_TEXT	SEGMENT
_this$ = -4						; size = 4
?name@_System_error_category@std@@UBEPBDXZ PROC		; std::_System_error_category::name, COMDAT
; _this$ = ecx

; 629  : 		{	// get name of category

	push	ebp
	mov	ebp, esp
	push	ecx
	mov	DWORD PTR _this$[ebp], ecx

; 630  : 		return ("system");

	mov	eax, OFFSET ??_C@_06FHFOAHML@system?$AA@

; 631  : 		}

	mov	esp, ebp
	pop	ebp
	ret	0
?name@_System_error_category@std@@UBEPBDXZ ENDP		; std::_System_error_category::name
_TEXT	ENDS
; Function compile flags: /Odtp
; File c:\program files (x86)\microsoft visual studio 11.0\vc\include\system_error
;	COMDAT ??0_System_error_category@std@@QAE@XZ
_TEXT	SEGMENT
_this$ = -4						; size = 4
??0_System_error_category@std@@QAE@XZ PROC		; std::_System_error_category::_System_error_category, COMDAT
; _this$ = ecx

; 624  : 	_System_error_category()

	push	ebp
	mov	ebp, esp
	push	ecx
	mov	DWORD PTR _this$[ebp], ecx
	mov	ecx, DWORD PTR _this$[ebp]
	call	??0_Generic_error_category@std@@QAE@XZ	; std::_Generic_error_category::_Generic_error_category
	mov	eax, DWORD PTR _this$[ebp]
	mov	DWORD PTR [eax], OFFSET ??_7_System_error_category@std@@6B@

; 625  : 		{	// default constructor
; 626  : 		}

	mov	eax, DWORD PTR _this$[ebp]
	mov	esp, ebp
	pop	ebp
	ret	0
??0_System_error_category@std@@QAE@XZ ENDP		; std::_System_error_category::_System_error_category
_TEXT	ENDS
; Function compile flags: /Odtp
;	COMDAT ??_G_Iostream_error_category@std@@UAEPAXI@Z
_TEXT	SEGMENT
_this$ = -4						; size = 4
___flags$ = 8						; size = 4
??_G_Iostream_error_category@std@@UAEPAXI@Z PROC	; std::_Iostream_error_category::`scalar deleting destructor', COMDAT
; _this$ = ecx
	push	ebp
	mov	ebp, esp
	push	ecx
	mov	DWORD PTR _this$[ebp], ecx
	mov	ecx, DWORD PTR _this$[ebp]
	call	??1_Iostream_error_category@std@@UAE@XZ
	mov	eax, DWORD PTR ___flags$[ebp]
	and	eax, 1
	je	SHORT $LN1@scalar
	mov	ecx, DWORD PTR _this$[ebp]
	push	ecx
	call	??3@YAXPAX@Z				; operator delete
	add	esp, 4
$LN1@scalar:
	mov	eax, DWORD PTR _this$[ebp]
	mov	esp, ebp
	pop	ebp
	ret	4
??_G_Iostream_error_category@std@@UAEPAXI@Z ENDP	; std::_Iostream_error_category::`scalar deleting destructor'
_TEXT	ENDS
; Function compile flags: /Odtp
;	COMDAT ??1_Iostream_error_category@std@@UAE@XZ
_TEXT	SEGMENT
_this$ = -4						; size = 4
??1_Iostream_error_category@std@@UAE@XZ PROC		; std::_Iostream_error_category::~_Iostream_error_category, COMDAT
; _this$ = ecx
	push	ebp
	mov	ebp, esp
	push	ecx
	mov	DWORD PTR _this$[ebp], ecx
	mov	ecx, DWORD PTR _this$[ebp]
	call	??1_Generic_error_category@std@@UAE@XZ
	mov	esp, ebp
	pop	ebp
	ret	0
??1_Iostream_error_category@std@@UAE@XZ ENDP		; std::_Iostream_error_category::~_Iostream_error_category
_TEXT	ENDS
; Function compile flags: /Odtp
; File c:\program files (x86)\microsoft visual studio 11.0\vc\include\system_error
;	COMDAT ?message@_Iostream_error_category@std@@UBE?AV?$basic_string@DU?$char_traits@D@std@@V?$allocator@D@2@@2@H@Z
_TEXT	SEGMENT
_this$ = -8						; size = 4
$T1 = -4						; size = 4
___$ReturnUdt$ = 8					; size = 4
__Errcode$ = 12						; size = 4
?message@_Iostream_error_category@std@@UBE?AV?$basic_string@DU?$char_traits@D@std@@V?$allocator@D@2@@2@H@Z PROC ; std::_Iostream_error_category::message, COMDAT
; _this$ = ecx

; 611  : 		{	// convert to name of error

	push	ebp
	mov	ebp, esp
	sub	esp, 8
	mov	DWORD PTR _this$[ebp], ecx
	mov	DWORD PTR $T1[ebp], 0

; 612  : 		if (_Errcode == (int)io_errc::stream)

	cmp	DWORD PTR __Errcode$[ebp], 1
	jne	SHORT $LN2@message

; 613  : 			return ("iostream stream error");

	push	OFFSET ??_C@_0BG@PADBLCHM@iostream?5stream?5error?$AA@
	mov	ecx, DWORD PTR ___$ReturnUdt$[ebp]
	call	??0?$basic_string@DU?$char_traits@D@std@@V?$allocator@D@2@@std@@QAE@PBD@Z ; std::basic_string<char,std::char_traits<char>,std::allocator<char> >::basic_string<char,std::char_traits<char>,std::allocator<char> >
	mov	eax, DWORD PTR $T1[ebp]
	or	eax, 1
	mov	DWORD PTR $T1[ebp], eax
	mov	eax, DWORD PTR ___$ReturnUdt$[ebp]
	jmp	SHORT $LN3@message

; 614  : 		else

	jmp	SHORT $LN3@message
$LN2@message:

; 615  : 			return (_Generic_error_category::message(_Errcode));

	mov	ecx, DWORD PTR __Errcode$[ebp]
	push	ecx
	mov	edx, DWORD PTR ___$ReturnUdt$[ebp]
	push	edx
	mov	ecx, DWORD PTR _this$[ebp]
	call	?message@_Generic_error_category@std@@UBE?AV?$basic_string@DU?$char_traits@D@std@@V?$allocator@D@2@@2@H@Z ; std::_Generic_error_category::message
	mov	eax, DWORD PTR $T1[ebp]
	or	eax, 1
	mov	DWORD PTR $T1[ebp], eax
	mov	eax, DWORD PTR ___$ReturnUdt$[ebp]
$LN3@message:

; 616  : 		}

	mov	esp, ebp
	pop	ebp
	ret	8
?message@_Iostream_error_category@std@@UBE?AV?$basic_string@DU?$char_traits@D@std@@V?$allocator@D@2@@2@H@Z ENDP ; std::_Iostream_error_category::message
_TEXT	ENDS
; Function compile flags: /Odtp
; File c:\program files (x86)\microsoft visual studio 11.0\vc\include\system_error
;	COMDAT ?name@_Iostream_error_category@std@@UBEPBDXZ
_TEXT	SEGMENT
_this$ = -4						; size = 4
?name@_Iostream_error_category@std@@UBEPBDXZ PROC	; std::_Iostream_error_category::name, COMDAT
; _this$ = ecx

; 606  : 		{	// get name of category

	push	ebp
	mov	ebp, esp
	push	ecx
	mov	DWORD PTR _this$[ebp], ecx

; 607  : 		return ("iostream");

	mov	eax, OFFSET ??_C@_08LLGCOLLL@iostream?$AA@

; 608  : 		}

	mov	esp, ebp
	pop	ebp
	ret	0
?name@_Iostream_error_category@std@@UBEPBDXZ ENDP	; std::_Iostream_error_category::name
_TEXT	ENDS
; Function compile flags: /Odtp
; File c:\program files (x86)\microsoft visual studio 11.0\vc\include\system_error
;	COMDAT ??0_Iostream_error_category@std@@QAE@XZ
_TEXT	SEGMENT
_this$ = -4						; size = 4
??0_Iostream_error_category@std@@QAE@XZ PROC		; std::_Iostream_error_category::_Iostream_error_category, COMDAT
; _this$ = ecx

; 601  : 	_Iostream_error_category()

	push	ebp
	mov	ebp, esp
	push	ecx
	mov	DWORD PTR _this$[ebp], ecx
	mov	ecx, DWORD PTR _this$[ebp]
	call	??0_Generic_error_category@std@@QAE@XZ	; std::_Generic_error_category::_Generic_error_category
	mov	eax, DWORD PTR _this$[ebp]
	mov	DWORD PTR [eax], OFFSET ??_7_Iostream_error_category@std@@6B@

; 602  : 		{	// default constructor
; 603  : 		}

	mov	eax, DWORD PTR _this$[ebp]
	mov	esp, ebp
	pop	ebp
	ret	0
??0_Iostream_error_category@std@@QAE@XZ ENDP		; std::_Iostream_error_category::_Iostream_error_category
_TEXT	ENDS
; Function compile flags: /Odtp
;	COMDAT ??_G_Generic_error_category@std@@UAEPAXI@Z
_TEXT	SEGMENT
_this$ = -4						; size = 4
___flags$ = 8						; size = 4
??_G_Generic_error_category@std@@UAEPAXI@Z PROC		; std::_Generic_error_category::`scalar deleting destructor', COMDAT
; _this$ = ecx
	push	ebp
	mov	ebp, esp
	push	ecx
	mov	DWORD PTR _this$[ebp], ecx
	mov	ecx, DWORD PTR _this$[ebp]
	call	??1_Generic_error_category@std@@UAE@XZ
	mov	eax, DWORD PTR ___flags$[ebp]
	and	eax, 1
	je	SHORT $LN1@scalar
	mov	ecx, DWORD PTR _this$[ebp]
	push	ecx
	call	??3@YAXPAX@Z				; operator delete
	add	esp, 4
$LN1@scalar:
	mov	eax, DWORD PTR _this$[ebp]
	mov	esp, ebp
	pop	ebp
	ret	4
??_G_Generic_error_category@std@@UAEPAXI@Z ENDP		; std::_Generic_error_category::`scalar deleting destructor'
_TEXT	ENDS
; Function compile flags: /Odtp
;	COMDAT ??1_Generic_error_category@std@@UAE@XZ
_TEXT	SEGMENT
_this$ = -4						; size = 4
??1_Generic_error_category@std@@UAE@XZ PROC		; std::_Generic_error_category::~_Generic_error_category, COMDAT
; _this$ = ecx
	push	ebp
	mov	ebp, esp
	push	ecx
	mov	DWORD PTR _this$[ebp], ecx
	mov	ecx, DWORD PTR _this$[ebp]
	call	??1error_category@std@@UAE@XZ		; std::error_category::~error_category
	mov	esp, ebp
	pop	ebp
	ret	0
??1_Generic_error_category@std@@UAE@XZ ENDP		; std::_Generic_error_category::~_Generic_error_category
_TEXT	ENDS
; Function compile flags: /Odtp
; File c:\program files (x86)\microsoft visual studio 11.0\vc\include\system_error
;	COMDAT ?message@_Generic_error_category@std@@UBE?AV?$basic_string@DU?$char_traits@D@std@@V?$allocator@D@2@@2@H@Z
_TEXT	SEGMENT
_this$ = -16						; size = 4
$T1 = -12						; size = 4
tv69 = -8						; size = 4
__Name$ = -4						; size = 4
___$ReturnUdt$ = 8					; size = 4
__Errcode$ = 12						; size = 4
?message@_Generic_error_category@std@@UBE?AV?$basic_string@DU?$char_traits@D@std@@V?$allocator@D@2@@2@H@Z PROC ; std::_Generic_error_category::message, COMDAT
; _this$ = ecx

; 590  : 		{	// convert to name of error

	push	ebp
	mov	ebp, esp
	sub	esp, 16					; 00000010H
	mov	DWORD PTR _this$[ebp], ecx
	mov	DWORD PTR $T1[ebp], 0

; 591  : 		const char *_Name = _Syserror_map(_Errcode);

	mov	eax, DWORD PTR __Errcode$[ebp]
	push	eax
	call	?_Syserror_map@std@@YAPBDH@Z		; std::_Syserror_map
	add	esp, 4
	mov	DWORD PTR __Name$[ebp], eax

; 592  : 		return (string(_Name != 0 ? _Name : "unknown error"));

	cmp	DWORD PTR __Name$[ebp], 0
	je	SHORT $LN3@message
	mov	ecx, DWORD PTR __Name$[ebp]
	mov	DWORD PTR tv69[ebp], ecx
	jmp	SHORT $LN4@message
$LN3@message:
	mov	DWORD PTR tv69[ebp], OFFSET ??_C@_0O@BFJCFAAK@unknown?5error?$AA@
$LN4@message:
	mov	edx, DWORD PTR tv69[ebp]
	push	edx
	mov	ecx, DWORD PTR ___$ReturnUdt$[ebp]
	call	??0?$basic_string@DU?$char_traits@D@std@@V?$allocator@D@2@@std@@QAE@PBD@Z ; std::basic_string<char,std::char_traits<char>,std::allocator<char> >::basic_string<char,std::char_traits<char>,std::allocator<char> >
	mov	eax, DWORD PTR $T1[ebp]
	or	eax, 1
	mov	DWORD PTR $T1[ebp], eax
	mov	eax, DWORD PTR ___$ReturnUdt$[ebp]

; 593  : 		}

	mov	esp, ebp
	pop	ebp
	ret	8
?message@_Generic_error_category@std@@UBE?AV?$basic_string@DU?$char_traits@D@std@@V?$allocator@D@2@@2@H@Z ENDP ; std::_Generic_error_category::message
_TEXT	ENDS
; Function compile flags: /Odtp
; File c:\program files (x86)\microsoft visual studio 11.0\vc\include\system_error
;	COMDAT ?name@_Generic_error_category@std@@UBEPBDXZ
_TEXT	SEGMENT
_this$ = -4						; size = 4
?name@_Generic_error_category@std@@UBEPBDXZ PROC	; std::_Generic_error_category::name, COMDAT
; _this$ = ecx

; 585  : 		{	// get name of category

	push	ebp
	mov	ebp, esp
	push	ecx
	mov	DWORD PTR _this$[ebp], ecx

; 586  : 		return ("generic");

	mov	eax, OFFSET ??_C@_07DCLBNMLN@generic?$AA@

; 587  : 		}

	mov	esp, ebp
	pop	ebp
	ret	0
?name@_Generic_error_category@std@@UBEPBDXZ ENDP	; std::_Generic_error_category::name
_TEXT	ENDS
; Function compile flags: /Odtp
; File c:\program files (x86)\microsoft visual studio 11.0\vc\include\system_error
;	COMDAT ??0_Generic_error_category@std@@QAE@XZ
_TEXT	SEGMENT
_this$ = -4						; size = 4
??0_Generic_error_category@std@@QAE@XZ PROC		; std::_Generic_error_category::_Generic_error_category, COMDAT
; _this$ = ecx

; 580  : 	_Generic_error_category()

	push	ebp
	mov	ebp, esp
	push	ecx
	mov	DWORD PTR _this$[ebp], ecx
	mov	ecx, DWORD PTR _this$[ebp]
	call	??0error_category@std@@QAE@XZ		; std::error_category::error_category
	mov	eax, DWORD PTR _this$[ebp]
	mov	DWORD PTR [eax], OFFSET ??_7_Generic_error_category@std@@6B@

; 581  : 		{	// default constructor
; 582  : 		}

	mov	eax, DWORD PTR _this$[ebp]
	mov	esp, ebp
	pop	ebp
	ret	0
??0_Generic_error_category@std@@QAE@XZ ENDP		; std::_Generic_error_category::_Generic_error_category
_TEXT	ENDS
; Function compile flags: /Odtp
; File c:\program files (x86)\microsoft visual studio 11.0\vc\include\system_error
;	COMDAT ??8error_condition@std@@QBE_NABV01@@Z
_TEXT	SEGMENT
tv78 = -8						; size = 4
_this$ = -4						; size = 4
__Right$ = 8						; size = 4
??8error_condition@std@@QBE_NABV01@@Z PROC		; std::error_condition::operator==, COMDAT
; _this$ = ecx

; 376  : 		{	// test if *this == _Right

	push	ebp
	mov	ebp, esp
	sub	esp, 8
	push	esi
	mov	DWORD PTR _this$[ebp], ecx

; 377  : 		return (category() == _Right.category()
; 378  : 			&& value() == _Right.value());

	mov	ecx, DWORD PTR __Right$[ebp]
	call	?category@error_condition@std@@QBEABVerror_category@2@XZ ; std::error_condition::category
	push	eax
	mov	ecx, DWORD PTR _this$[ebp]
	call	?category@error_condition@std@@QBEABVerror_category@2@XZ ; std::error_condition::category
	mov	ecx, eax
	call	??8error_category@std@@QBE_NABV01@@Z	; std::error_category::operator==
	movzx	eax, al
	test	eax, eax
	je	SHORT $LN3@operator
	mov	ecx, DWORD PTR _this$[ebp]
	call	?value@error_condition@std@@QBEHXZ	; std::error_condition::value
	mov	esi, eax
	mov	ecx, DWORD PTR __Right$[ebp]
	call	?value@error_condition@std@@QBEHXZ	; std::error_condition::value
	cmp	esi, eax
	jne	SHORT $LN3@operator
	mov	DWORD PTR tv78[ebp], 1
	jmp	SHORT $LN4@operator
$LN3@operator:
	mov	DWORD PTR tv78[ebp], 0
$LN4@operator:
	mov	al, BYTE PTR tv78[ebp]

; 379  : 		}

	pop	esi
	mov	esp, ebp
	pop	ebp
	ret	4
??8error_condition@std@@QBE_NABV01@@Z ENDP		; std::error_condition::operator==
_TEXT	ENDS
; Function compile flags: /Odtp
; File c:\program files (x86)\microsoft visual studio 11.0\vc\include\system_error
;	COMDAT ?category@error_condition@std@@QBEABVerror_category@2@XZ
_TEXT	SEGMENT
_this$ = -4						; size = 4
?category@error_condition@std@@QBEABVerror_category@2@XZ PROC ; std::error_condition::category, COMDAT
; _this$ = ecx

; 354  : 		{	// get category

	push	ebp
	mov	ebp, esp
	push	ecx
	mov	DWORD PTR _this$[ebp], ecx

; 355  : 		return (*_Mycat);

	mov	eax, DWORD PTR _this$[ebp]
	mov	eax, DWORD PTR [eax+4]

; 356  : 		}

	mov	esp, ebp
	pop	ebp
	ret	0
?category@error_condition@std@@QBEABVerror_category@2@XZ ENDP ; std::error_condition::category
_TEXT	ENDS
; Function compile flags: /Odtp
; File c:\program files (x86)\microsoft visual studio 11.0\vc\include\system_error
;	COMDAT ?value@error_condition@std@@QBEHXZ
_TEXT	SEGMENT
_this$ = -4						; size = 4
?value@error_condition@std@@QBEHXZ PROC			; std::error_condition::value, COMDAT
; _this$ = ecx

; 349  : 		{	// get error code

	push	ebp
	mov	ebp, esp
	push	ecx
	mov	DWORD PTR _this$[ebp], ecx

; 350  : 		return (_Myval);

	mov	eax, DWORD PTR _this$[ebp]
	mov	eax, DWORD PTR [eax]

; 351  : 		}

	mov	esp, ebp
	pop	ebp
	ret	0
?value@error_condition@std@@QBEHXZ ENDP			; std::error_condition::value
_TEXT	ENDS
; Function compile flags: /Odtp
; File c:\program files (x86)\microsoft visual studio 11.0\vc\include\system_error
;	COMDAT ??0error_condition@std@@QAE@HABVerror_category@1@@Z
_TEXT	SEGMENT
_this$ = -4						; size = 4
__Val$ = 8						; size = 4
__Cat$ = 12						; size = 4
??0error_condition@std@@QAE@HABVerror_category@1@@Z PROC ; std::error_condition::error_condition, COMDAT
; _this$ = ecx

; 316  : 		{	// construct from error code and category

	push	ebp
	mov	ebp, esp
	push	ecx
	mov	DWORD PTR _this$[ebp], ecx
	mov	eax, DWORD PTR _this$[ebp]
	mov	ecx, DWORD PTR __Val$[ebp]
	mov	DWORD PTR [eax], ecx
	mov	edx, DWORD PTR _this$[ebp]
	mov	eax, DWORD PTR __Cat$[ebp]
	mov	DWORD PTR [edx+4], eax

; 317  : 		}

	mov	eax, DWORD PTR _this$[ebp]
	mov	esp, ebp
	pop	ebp
	ret	8
??0error_condition@std@@QAE@HABVerror_category@1@@Z ENDP ; std::error_condition::error_condition
_TEXT	ENDS
; Function compile flags: /Odtp
; File c:\program files (x86)\microsoft visual studio 11.0\vc\include\system_error
;	COMDAT ?category@error_code@std@@QBEABVerror_category@2@XZ
_TEXT	SEGMENT
_this$ = -4						; size = 4
?category@error_code@std@@QBEABVerror_category@2@XZ PROC ; std::error_code::category, COMDAT
; _this$ = ecx

; 256  : 		{	// get category

	push	ebp
	mov	ebp, esp
	push	ecx
	mov	DWORD PTR _this$[ebp], ecx

; 257  : 		return (*_Mycat);

	mov	eax, DWORD PTR _this$[ebp]
	mov	eax, DWORD PTR [eax+4]

; 258  : 		}

	mov	esp, ebp
	pop	ebp
	ret	0
?category@error_code@std@@QBEABVerror_category@2@XZ ENDP ; std::error_code::category
_TEXT	ENDS
; Function compile flags: /Odtp
; File c:\program files (x86)\microsoft visual studio 11.0\vc\include\system_error
;	COMDAT ?value@error_code@std@@QBEHXZ
_TEXT	SEGMENT
_this$ = -4						; size = 4
?value@error_code@std@@QBEHXZ PROC			; std::error_code::value, COMDAT
; _this$ = ecx

; 251  : 		{	// get error code

	push	ebp
	mov	ebp, esp
	push	ecx
	mov	DWORD PTR _this$[ebp], ecx

; 252  : 		return (_Myval);

	mov	eax, DWORD PTR _this$[ebp]
	mov	eax, DWORD PTR [eax]

; 253  : 		}

	mov	esp, ebp
	pop	ebp
	ret	0
?value@error_code@std@@QBEHXZ ENDP			; std::error_code::value
_TEXT	ENDS
; Function compile flags: /Odtp
;	COMDAT ??_Gerror_category@std@@UAEPAXI@Z
_TEXT	SEGMENT
_this$ = -4						; size = 4
___flags$ = 8						; size = 4
??_Gerror_category@std@@UAEPAXI@Z PROC			; std::error_category::`scalar deleting destructor', COMDAT
; _this$ = ecx
	push	ebp
	mov	ebp, esp
	push	ecx
	mov	DWORD PTR _this$[ebp], ecx
	mov	ecx, DWORD PTR _this$[ebp]
	call	??1error_category@std@@UAE@XZ		; std::error_category::~error_category
	mov	eax, DWORD PTR ___flags$[ebp]
	and	eax, 1
	je	SHORT $LN1@scalar
	mov	ecx, DWORD PTR _this$[ebp]
	push	ecx
	call	??3@YAXPAX@Z				; operator delete
	add	esp, 4
$LN1@scalar:
	mov	eax, DWORD PTR _this$[ebp]
	mov	esp, ebp
	pop	ebp
	ret	4
??_Gerror_category@std@@UAEPAXI@Z ENDP			; std::error_category::`scalar deleting destructor'
_TEXT	ENDS
; Function compile flags: /Odtp
; File c:\program files (x86)\microsoft visual studio 11.0\vc\include\system_error
;	COMDAT ??8error_category@std@@QBE_NABV01@@Z
_TEXT	SEGMENT
_this$ = -8						; size = 4
tv65 = -4						; size = 4
__Right$ = 8						; size = 4
??8error_category@std@@QBE_NABV01@@Z PROC		; std::error_category::operator==, COMDAT
; _this$ = ecx

; 184  : 		{	// compare categories for equality

	push	ebp
	mov	ebp, esp
	sub	esp, 8
	mov	DWORD PTR _this$[ebp], ecx

; 185  : 		return (this == &_Right);

	mov	eax, DWORD PTR _this$[ebp]
	cmp	eax, DWORD PTR __Right$[ebp]
	jne	SHORT $LN3@operator
	mov	DWORD PTR tv65[ebp], 1
	jmp	SHORT $LN4@operator
$LN3@operator:
	mov	DWORD PTR tv65[ebp], 0
$LN4@operator:
	mov	al, BYTE PTR tv65[ebp]

; 186  : 		}

	mov	esp, ebp
	pop	ebp
	ret	4
??8error_category@std@@QBE_NABV01@@Z ENDP		; std::error_category::operator==
_TEXT	ENDS
; Function compile flags: /Odtp
; File c:\program files (x86)\microsoft visual studio 11.0\vc\include\system_error
;	COMDAT ?equivalent@error_category@std@@UBE_NABVerror_code@2@H@Z
_TEXT	SEGMENT
_this$ = -8						; size = 4
tv74 = -4						; size = 4
__Code$ = 8						; size = 4
__Errval$ = 12						; size = 4
?equivalent@error_category@std@@UBE_NABVerror_code@2@H@Z PROC ; std::error_category::equivalent, COMDAT
; _this$ = ecx

; 415  : 	{	// test if conditions same for this category

	push	ebp
	mov	ebp, esp
	sub	esp, 8
	mov	DWORD PTR _this$[ebp], ecx

; 416  : 	return (*this == _Code.category() && _Code.value() == _Errval);

	mov	ecx, DWORD PTR __Code$[ebp]
	call	?category@error_code@std@@QBEABVerror_category@2@XZ ; std::error_code::category
	push	eax
	mov	ecx, DWORD PTR _this$[ebp]
	call	??8error_category@std@@QBE_NABV01@@Z	; std::error_category::operator==
	movzx	eax, al
	test	eax, eax
	je	SHORT $LN3@equivalent
	mov	ecx, DWORD PTR __Code$[ebp]
	call	?value@error_code@std@@QBEHXZ		; std::error_code::value
	cmp	eax, DWORD PTR __Errval$[ebp]
	jne	SHORT $LN3@equivalent
	mov	DWORD PTR tv74[ebp], 1
	jmp	SHORT $LN4@equivalent
$LN3@equivalent:
	mov	DWORD PTR tv74[ebp], 0
$LN4@equivalent:
	mov	al, BYTE PTR tv74[ebp]

; 417  : 	}

	mov	esp, ebp
	pop	ebp
	ret	8
?equivalent@error_category@std@@UBE_NABVerror_code@2@H@Z ENDP ; std::error_category::equivalent
_TEXT	ENDS
; Function compile flags: /Odtp
; File c:\program files (x86)\microsoft visual studio 11.0\vc\include\system_error
;	COMDAT ?equivalent@error_category@std@@UBE_NHABVerror_condition@2@@Z
_TEXT	SEGMENT
$T1 = -12						; size = 8
_this$ = -4						; size = 4
__Errval$ = 8						; size = 4
__Cond$ = 12						; size = 4
?equivalent@error_category@std@@UBE_NHABVerror_condition@2@@Z PROC ; std::error_category::equivalent, COMDAT
; _this$ = ecx

; 408  : 	{	// test if error code same condition

	push	ebp
	mov	ebp, esp
	sub	esp, 12					; 0000000cH
	mov	DWORD PTR _this$[ebp], ecx

; 409  : 	return (default_error_condition(_Errval) == _Cond);

	mov	eax, DWORD PTR __Cond$[ebp]
	push	eax
	mov	ecx, DWORD PTR __Errval$[ebp]
	push	ecx
	lea	edx, DWORD PTR $T1[ebp]
	push	edx
	mov	eax, DWORD PTR _this$[ebp]
	mov	edx, DWORD PTR [eax]
	mov	ecx, DWORD PTR _this$[ebp]
	mov	eax, DWORD PTR [edx+12]
	call	eax
	mov	ecx, eax
	call	??8error_condition@std@@QBE_NABV01@@Z	; std::error_condition::operator==

; 410  : 	}

	mov	esp, ebp
	pop	ebp
	ret	8
?equivalent@error_category@std@@UBE_NHABVerror_condition@2@@Z ENDP ; std::error_category::equivalent
_TEXT	ENDS
; Function compile flags: /Odtp
; File c:\program files (x86)\microsoft visual studio 11.0\vc\include\system_error
;	COMDAT ?default_error_condition@error_category@std@@UBE?AVerror_condition@2@H@Z
_TEXT	SEGMENT
_this$ = -4						; size = 4
___$ReturnUdt$ = 8					; size = 4
__Errval$ = 12						; size = 4
?default_error_condition@error_category@std@@UBE?AVerror_condition@2@H@Z PROC ; std::error_category::default_error_condition, COMDAT
; _this$ = ecx

; 401  : 	{	// make error_condition for error code

	push	ebp
	mov	ebp, esp
	push	ecx
	mov	DWORD PTR _this$[ebp], ecx

; 402  : 	return (error_condition(_Errval, *this));

	mov	eax, DWORD PTR _this$[ebp]
	push	eax
	mov	ecx, DWORD PTR __Errval$[ebp]
	push	ecx
	mov	ecx, DWORD PTR ___$ReturnUdt$[ebp]
	call	??0error_condition@std@@QAE@HABVerror_category@1@@Z ; std::error_condition::error_condition
	mov	eax, DWORD PTR ___$ReturnUdt$[ebp]

; 403  : 	}

	mov	esp, ebp
	pop	ebp
	ret	8
?default_error_condition@error_category@std@@UBE?AVerror_condition@2@H@Z ENDP ; std::error_category::default_error_condition
_TEXT	ENDS
; Function compile flags: /Odtp
; File c:\program files (x86)\microsoft visual studio 11.0\vc\include\system_error
;	COMDAT ??1error_category@std@@UAE@XZ
_TEXT	SEGMENT
_this$ = -4						; size = 4
??1error_category@std@@UAE@XZ PROC			; std::error_category::~error_category, COMDAT
; _this$ = ecx

; 167  : 		{	// destroy the object

	push	ebp
	mov	ebp, esp
	push	ecx
	mov	DWORD PTR _this$[ebp], ecx
	mov	eax, DWORD PTR _this$[ebp]
	mov	DWORD PTR [eax], OFFSET ??_7error_category@std@@6B@

; 168  : 		}

	mov	esp, ebp
	pop	ebp
	ret	0
??1error_category@std@@UAE@XZ ENDP			; std::error_category::~error_category
_TEXT	ENDS
; Function compile flags: /Odtp
; File c:\program files (x86)\microsoft visual studio 11.0\vc\include\system_error
;	COMDAT ??0error_category@std@@QAE@XZ
_TEXT	SEGMENT
_this$ = -4						; size = 4
??0error_category@std@@QAE@XZ PROC			; std::error_category::error_category, COMDAT
; _this$ = ecx

; 162  : 	error_category()

	push	ebp
	mov	ebp, esp
	push	ecx
	mov	DWORD PTR _this$[ebp], ecx
	mov	eax, DWORD PTR _this$[ebp]
	mov	DWORD PTR [eax], OFFSET ??_7error_category@std@@6B@

; 163  : 		{	// default constructor
; 164  : 		}

	mov	eax, DWORD PTR _this$[ebp]
	mov	esp, ebp
	pop	ebp
	ret	0
??0error_category@std@@QAE@XZ ENDP			; std::error_category::error_category
_TEXT	ENDS
; Function compile flags: /Odtp
; File c:\program files (x86)\microsoft visual studio 11.0\vc\include\system_error
;	COMDAT ?system_category@std@@YAABVerror_category@1@XZ
_TEXT	SEGMENT
?system_category@std@@YAABVerror_category@1@XZ PROC	; std::system_category, COMDAT

; 679  : 	{	// get system_category

	push	ebp
	mov	ebp, esp

; 680  : 	return (_Error_objects<int>::_System_object);

	mov	eax, OFFSET ?_System_object@?$_Error_objects@H@std@@2V_System_error_category@2@A ; std::_Error_objects<int>::_System_object

; 681  : 	}

	pop	ebp
	ret	0
?system_category@std@@YAABVerror_category@1@XZ ENDP	; std::system_category
_TEXT	ENDS
; Function compile flags: /Odtp
; File c:\program files (x86)\microsoft visual studio 11.0\vc\include\system_error
;	COMDAT ?generic_category@std@@YAABVerror_category@1@XZ
_TEXT	SEGMENT
?generic_category@std@@YAABVerror_category@1@XZ PROC	; std::generic_category, COMDAT

; 669  : 	{	// get generic_category

	push	ebp
	mov	ebp, esp

; 670  : 	return (_Error_objects<int>::_Generic_object);

	mov	eax, OFFSET ?_Generic_object@?$_Error_objects@H@std@@2V_Generic_error_category@2@A ; std::_Error_objects<int>::_Generic_object

; 671  : 	}

	pop	ebp
	ret	0
?generic_category@std@@YAABVerror_category@1@XZ ENDP	; std::generic_category
_TEXT	ENDS
; Function compile flags: /Odtp
; File c:\program files (x86)\microsoft visual studio 11.0\vc\include\xlocale
;	COMDAT ??0id@locale@std@@QAE@I@Z
_TEXT	SEGMENT
_this$ = -4						; size = 4
__Val$ = 8						; size = 4
??0id@locale@std@@QAE@I@Z PROC				; std::locale::id::id, COMDAT
; _this$ = ecx

; 74   : 			{	// construct with specified stamp value

	push	ebp
	mov	ebp, esp
	push	ecx
	mov	DWORD PTR _this$[ebp], ecx
	mov	eax, DWORD PTR _this$[ebp]
	mov	ecx, DWORD PTR __Val$[ebp]
	mov	DWORD PTR [eax], ecx

; 75   : 			}

	mov	eax, DWORD PTR _this$[ebp]
	mov	esp, ebp
	pop	ebp
	ret	4
??0id@locale@std@@QAE@I@Z ENDP				; std::locale::id::id
_TEXT	ENDS
; Function compile flags: /Odtp
;	COMDAT ??_GTgpMfdDrawable@@UAEPAXI@Z
_TEXT	SEGMENT
_this$ = -4						; size = 4
___flags$ = 8						; size = 4
??_GTgpMfdDrawable@@UAEPAXI@Z PROC			; TgpMfdDrawable::`scalar deleting destructor', COMDAT
; _this$ = ecx
	push	ebp
	mov	ebp, esp
	push	ecx
	mov	DWORD PTR _this$[ebp], ecx
	mov	ecx, DWORD PTR _this$[ebp]
	call	??1TgpMfdDrawable@@UAE@XZ		; TgpMfdDrawable::~TgpMfdDrawable
	mov	eax, DWORD PTR ___flags$[ebp]
	and	eax, 1
	je	SHORT $LN1@scalar
	mov	ecx, DWORD PTR _this$[ebp]
	push	ecx
	call	??3@YAXPAX@Z				; operator delete
	add	esp, 4
$LN1@scalar:
	mov	eax, DWORD PTR _this$[ebp]
	mov	esp, ebp
	pop	ebp
	ret	4
??_GTgpMfdDrawable@@UAEPAXI@Z ENDP			; TgpMfdDrawable::`scalar deleting destructor'
_TEXT	ENDS
; Function compile flags: /Odtp
; File c:\users\zhitao li\documents\visual studio 2012\projects\freefalcon\sim\displays\tgpmfd.cpp
_TEXT	SEGMENT
tv662 = -48						; size = 4
tv655 = -44						; size = 4
tv640 = -40						; size = 4
tv633 = -36						; size = 4
tv613 = -32						; size = 4
tv606 = -28						; size = 4
tv576 = -24						; size = 4
tv467 = -20						; size = 4
tv373 = -16						; size = 4
tv323 = -12						; size = 4
tv132 = -8						; size = 4
_this$ = -4						; size = 4
_display$ = 8						; size = 4
?OSBLabels@TgpMfdDrawable@@AAEXPAVVirtualDisplay@@@Z PROC ; TgpMfdDrawable::OSBLabels
; _this$ = ecx

; 430  : {

	push	ebp
	mov	ebp, esp
	sub	esp, 48					; 00000030H
	mov	DWORD PTR _this$[ebp], ecx

; 431  : 	if(MenuMode)

	mov	eax, DWORD PTR _this$[ebp]
	movzx	ecx, BYTE PTR [eax+49]
	test	ecx, ecx
	je	$LN40@OSBLabels

; 432  : 	{
; 433  : 		if(StbyMode)

	mov	edx, DWORD PTR _this$[ebp]
	movzx	eax, BYTE PTR [edx+48]
	test	eax, eax
	je	SHORT $LN39@OSBLabels

; 434  : 			LabelButton(0, "STBY");

	push	0
	push	0
	push	OFFSET ??_C@_04BKGGJKLP@STBY?$AA@
	push	0
	mov	ecx, DWORD PTR _this$[ebp]
	call	?LabelButton@DrawableClass@@QAEXHPAD0H@Z ; DrawableClass::LabelButton

; 435  : 		else

	jmp	SHORT $LN38@OSBLabels
$LN39@OSBLabels:

; 436  : 			LabelButton(0, "A-G");

	push	0
	push	0
	push	OFFSET ??_C@_03HCLOBDMK@A?9G?$AA@
	push	0
	mov	ecx, DWORD PTR _this$[ebp]
	call	?LabelButton@DrawableClass@@QAEXHPAD0H@Z ; DrawableClass::LabelButton
$LN38@OSBLabels:

; 437  : 		if(laserPod->CurFOV() < 1.7F * DTR)

	mov	ecx, DWORD PTR _this$[ebp]
	mov	ecx, DWORD PTR [ecx+32]
	call	?CurFOV@LaserPodClass@@QAEMXZ		; LaserPodClass::CurFOV
	fstp	DWORD PTR tv606[ebp]
	movss	xmm0, DWORD PTR __real@3cf30fbf
	comiss	xmm0, DWORD PTR tv606[ebp]
	jbe	SHORT $LN37@OSBLabels

; 438  : 			sprintf(Str, "EXP");

	push	OFFSET ??_C@_03KKGFKKLA@EXP?$AA@
	mov	edx, DWORD PTR _this$[ebp]
	add	edx, 51					; 00000033H
	push	edx
	call	_sprintf
	add	esp, 8

; 439  : 		else

	jmp	SHORT $LN36@OSBLabels
$LN37@OSBLabels:

; 440  : 			sprintf(Str, "%s", (laserPod->CurFOV() < (3.5F * DTR)) ? "NARO" : "WIDE");

	mov	eax, DWORD PTR _this$[ebp]
	mov	ecx, DWORD PTR [eax+32]
	call	?CurFOV@LaserPodClass@@QAEMXZ		; LaserPodClass::CurFOV
	fstp	DWORD PTR tv613[ebp]
	movss	xmm0, DWORD PTR __real@3d7a35db
	comiss	xmm0, DWORD PTR tv613[ebp]
	jbe	SHORT $LN43@OSBLabels
	mov	DWORD PTR tv132[ebp], OFFSET ??_C@_04OFGPHIIG@NARO?$AA@
	jmp	SHORT $LN44@OSBLabels
$LN43@OSBLabels:
	mov	DWORD PTR tv132[ebp], OFFSET ??_C@_04KPGPJCNC@WIDE?$AA@
$LN44@OSBLabels:
	mov	ecx, DWORD PTR tv132[ebp]
	push	ecx
	push	OFFSET ??_C@_02DKCKIIND@?$CFs?$AA@
	mov	edx, DWORD PTR _this$[ebp]
	add	edx, 51					; 00000033H
	push	edx
	call	_sprintf
	add	esp, 12					; 0000000cH
$LN36@OSBLabels:

; 441  : 		LabelButton(2, Str);

	push	0
	push	0
	mov	eax, DWORD PTR _this$[ebp]
	add	eax, 51					; 00000033H
	push	eax
	push	2
	mov	ecx, DWORD PTR _this$[ebp]
	call	?LabelButton@DrawableClass@@QAEXHPAD0H@Z ; DrawableClass::LabelButton

; 442  : 		if(pFCC->InhibitFire)

	mov	ecx, DWORD PTR _this$[ebp]
	mov	edx, DWORD PTR [ecx+36]
	movzx	eax, BYTE PTR [edx+425]
	test	eax, eax
	je	SHORT $LN35@OSBLabels

; 443  : 			LabelButton(3, "OVRD", NULL, 2);

	push	2
	push	0
	push	OFFSET ??_C@_04PGDFOHNL@OVRD?$AA@
	push	3
	mov	ecx, DWORD PTR _this$[ebp]
	call	?LabelButton@DrawableClass@@QAEXHPAD0H@Z ; DrawableClass::LabelButton

; 444  : 		else

	jmp	SHORT $LN34@OSBLabels
$LN35@OSBLabels:

; 445  : 			LabelButton(3, "OVRD");

	push	0
	push	0
	push	OFFSET ??_C@_04PGDFOHNL@OVRD?$AA@
	push	3
	mov	ecx, DWORD PTR _this$[ebp]
	call	?LabelButton@DrawableClass@@QAEXHPAD0H@Z ; DrawableClass::LabelButton
$LN34@OSBLabels:

; 446  : 
; 447  : 		if(pFCC->IsAGMasterMode())

	mov	ecx, DWORD PTR _this$[ebp]
	mov	ecx, DWORD PTR [ecx+36]
	call	?IsAGMasterMode@FireControlComputer@@QAEHXZ ; FireControlComputer::IsAGMasterMode
	test	eax, eax
	je	SHORT $LN33@OSBLabels

; 448  : 		{
; 449  : 			if(StbyMode)

	mov	edx, DWORD PTR _this$[ebp]
	movzx	eax, BYTE PTR [edx+48]
	test	eax, eax
	je	SHORT $LN32@OSBLabels

; 450  : 				LabelButton(5, "A-G");

	push	0
	push	0
	push	OFFSET ??_C@_03HCLOBDMK@A?9G?$AA@
	push	5
	mov	ecx, DWORD PTR _this$[ebp]
	call	?LabelButton@DrawableClass@@QAEXHPAD0H@Z ; DrawableClass::LabelButton

; 451  : 			else

	jmp	SHORT $LN31@OSBLabels
$LN32@OSBLabels:

; 452  : 				LabelButton(5, "A-G", NULL, 2);

	push	2
	push	0
	push	OFFSET ??_C@_03HCLOBDMK@A?9G?$AA@
	push	5
	mov	ecx, DWORD PTR _this$[ebp]
	call	?LabelButton@DrawableClass@@QAEXHPAD0H@Z ; DrawableClass::LabelButton
$LN31@OSBLabels:

; 453  : 			if(StbyMode)

	mov	ecx, DWORD PTR _this$[ebp]
	movzx	edx, BYTE PTR [ecx+48]
	test	edx, edx
	je	SHORT $LN30@OSBLabels

; 454  : 				LabelButton(9, "STBY", NULL, 2);

	push	2
	push	0
	push	OFFSET ??_C@_04BKGGJKLP@STBY?$AA@
	push	9
	mov	ecx, DWORD PTR _this$[ebp]
	call	?LabelButton@DrawableClass@@QAEXHPAD0H@Z ; DrawableClass::LabelButton

; 455  : 			else

	jmp	SHORT $LN29@OSBLabels
$LN30@OSBLabels:

; 456  : 				LabelButton(9, "STBY");

	push	0
	push	0
	push	OFFSET ??_C@_04BKGGJKLP@STBY?$AA@
	push	9
	mov	ecx, DWORD PTR _this$[ebp]
	call	?LabelButton@DrawableClass@@QAEXHPAD0H@Z ; DrawableClass::LabelButton
$LN29@OSBLabels:
	jmp	$LN24@OSBLabels
$LN33@OSBLabels:

; 457  : 		}
; 458  : 		else if(pFCC->IsAAMasterMode())

	mov	eax, DWORD PTR _this$[ebp]
	mov	ecx, DWORD PTR [eax+36]
	call	?IsAAMasterMode@FireControlComputer@@QAEHXZ ; FireControlComputer::IsAAMasterMode
	test	eax, eax
	je	SHORT $LN27@OSBLabels

; 459  : 		{
; 460  : 			LabelButton(19, "A-A");

	push	0
	push	0
	push	OFFSET ??_C@_03CEOELEEM@A?9A?$AA@
	push	19					; 00000013H
	mov	ecx, DWORD PTR _this$[ebp]
	call	?LabelButton@DrawableClass@@QAEXHPAD0H@Z ; DrawableClass::LabelButton

; 461  : 			if(StbyMode)

	mov	ecx, DWORD PTR _this$[ebp]
	movzx	edx, BYTE PTR [ecx+48]
	test	edx, edx
	je	SHORT $LN26@OSBLabels

; 462  : 				LabelButton(9, "STBY", NULL, 2);

	push	2
	push	0
	push	OFFSET ??_C@_04BKGGJKLP@STBY?$AA@
	push	9
	mov	ecx, DWORD PTR _this$[ebp]
	call	?LabelButton@DrawableClass@@QAEXHPAD0H@Z ; DrawableClass::LabelButton

; 463  : 			else

	jmp	SHORT $LN25@OSBLabels
$LN26@OSBLabels:

; 464  : 				LabelButton(9, "STBY");

	push	0
	push	0
	push	OFFSET ??_C@_04BKGGJKLP@STBY?$AA@
	push	9
	mov	ecx, DWORD PTR _this$[ebp]
	call	?LabelButton@DrawableClass@@QAEXHPAD0H@Z ; DrawableClass::LabelButton
$LN25@OSBLabels:

; 465  : 		}
; 466  : 		else	//NAV

	jmp	SHORT $LN24@OSBLabels
$LN27@OSBLabels:

; 467  : 		{
; 468  : 			if(StbyMode)

	mov	eax, DWORD PTR _this$[ebp]
	movzx	ecx, BYTE PTR [eax+48]
	test	ecx, ecx
	je	SHORT $LN23@OSBLabels

; 469  : 				LabelButton(5, "A-G");

	push	0
	push	0
	push	OFFSET ??_C@_03HCLOBDMK@A?9G?$AA@
	push	5
	mov	ecx, DWORD PTR _this$[ebp]
	call	?LabelButton@DrawableClass@@QAEXHPAD0H@Z ; DrawableClass::LabelButton

; 470  : 			else

	jmp	SHORT $LN22@OSBLabels
$LN23@OSBLabels:

; 471  : 				LabelButton(5, "A-G", NULL, 2);

	push	2
	push	0
	push	OFFSET ??_C@_03HCLOBDMK@A?9G?$AA@
	push	5
	mov	ecx, DWORD PTR _this$[ebp]
	call	?LabelButton@DrawableClass@@QAEXHPAD0H@Z ; DrawableClass::LabelButton
$LN22@OSBLabels:

; 472  : 			if(StbyMode)

	mov	edx, DWORD PTR _this$[ebp]
	movzx	eax, BYTE PTR [edx+48]
	test	eax, eax
	je	SHORT $LN21@OSBLabels

; 473  : 				LabelButton(9, "STBY", NULL, 2);

	push	2
	push	0
	push	OFFSET ??_C@_04BKGGJKLP@STBY?$AA@
	push	9
	mov	ecx, DWORD PTR _this$[ebp]
	call	?LabelButton@DrawableClass@@QAEXHPAD0H@Z ; DrawableClass::LabelButton

; 474  : 			else

	jmp	SHORT $LN20@OSBLabels
$LN21@OSBLabels:

; 475  : 				LabelButton(9, "STBY");

	push	0
	push	0
	push	OFFSET ??_C@_04BKGGJKLP@STBY?$AA@
	push	9
	mov	ecx, DWORD PTR _this$[ebp]
	call	?LabelButton@DrawableClass@@QAEXHPAD0H@Z ; DrawableClass::LabelButton
$LN20@OSBLabels:

; 476  : 
; 477  : 			LabelButton(19, "A-A");

	push	0
	push	0
	push	OFFSET ??_C@_03CEOELEEM@A?9A?$AA@
	push	19					; 00000013H
	mov	ecx, DWORD PTR _this$[ebp]
	call	?LabelButton@DrawableClass@@QAEXHPAD0H@Z ; DrawableClass::LabelButton
$LN24@OSBLabels:

; 478  : 		}

	jmp	$LN9@OSBLabels
$LN40@OSBLabels:

; 479  : 	}
; 480  : 	else if(StbyMode)

	mov	ecx, DWORD PTR _this$[ebp]
	movzx	edx, BYTE PTR [ecx+48]
	test	edx, edx
	je	$LN18@OSBLabels

; 481  : 	{
; 482  : 		LabelButton(0, "STBY");

	push	0
	push	0
	push	OFFSET ??_C@_04BKGGJKLP@STBY?$AA@
	push	0
	mov	ecx, DWORD PTR _this$[ebp]
	call	?LabelButton@DrawableClass@@QAEXHPAD0H@Z ; DrawableClass::LabelButton

; 483  : 		if(laserPod->CurFOV() < 1.7F * DTR)

	mov	eax, DWORD PTR _this$[ebp]
	mov	ecx, DWORD PTR [eax+32]
	call	?CurFOV@LaserPodClass@@QAEMXZ		; LaserPodClass::CurFOV
	fstp	DWORD PTR tv633[ebp]
	movss	xmm0, DWORD PTR __real@3cf30fbf
	comiss	xmm0, DWORD PTR tv633[ebp]
	jbe	SHORT $LN17@OSBLabels

; 484  : 			sprintf(Str, "EXP");

	push	OFFSET ??_C@_03KKGFKKLA@EXP?$AA@
	mov	ecx, DWORD PTR _this$[ebp]
	add	ecx, 51					; 00000033H
	push	ecx
	call	_sprintf
	add	esp, 8

; 485  : 		else

	jmp	SHORT $LN16@OSBLabels
$LN17@OSBLabels:

; 486  : 			sprintf(Str, "%s", (laserPod->CurFOV() < (3.5F * DTR)) ? "NARO" : "WIDE");

	mov	edx, DWORD PTR _this$[ebp]
	mov	ecx, DWORD PTR [edx+32]
	call	?CurFOV@LaserPodClass@@QAEMXZ		; LaserPodClass::CurFOV
	fstp	DWORD PTR tv640[ebp]
	movss	xmm0, DWORD PTR __real@3d7a35db
	comiss	xmm0, DWORD PTR tv640[ebp]
	jbe	SHORT $LN45@OSBLabels
	mov	DWORD PTR tv323[ebp], OFFSET ??_C@_04OFGPHIIG@NARO?$AA@
	jmp	SHORT $LN46@OSBLabels
$LN45@OSBLabels:
	mov	DWORD PTR tv323[ebp], OFFSET ??_C@_04KPGPJCNC@WIDE?$AA@
$LN46@OSBLabels:
	mov	eax, DWORD PTR tv323[ebp]
	push	eax
	push	OFFSET ??_C@_02DKCKIIND@?$CFs?$AA@
	mov	ecx, DWORD PTR _this$[ebp]
	add	ecx, 51					; 00000033H
	push	ecx
	call	_sprintf
	add	esp, 12					; 0000000cH
$LN16@OSBLabels:

; 487  : 		LabelButton(2, Str);

	push	0
	push	0
	mov	edx, DWORD PTR _this$[ebp]
	add	edx, 51					; 00000033H
	push	edx
	push	2
	mov	ecx, DWORD PTR _this$[ebp]
	call	?LabelButton@DrawableClass@@QAEXHPAD0H@Z ; DrawableClass::LabelButton

; 488  : 		if(pFCC->InhibitFire)

	mov	eax, DWORD PTR _this$[ebp]
	mov	ecx, DWORD PTR [eax+36]
	movzx	edx, BYTE PTR [ecx+425]
	test	edx, edx
	je	SHORT $LN15@OSBLabels

; 489  : 			LabelButton(3, "OVRD", NULL, 2);

	push	2
	push	0
	push	OFFSET ??_C@_04PGDFOHNL@OVRD?$AA@
	push	3
	mov	ecx, DWORD PTR _this$[ebp]
	call	?LabelButton@DrawableClass@@QAEXHPAD0H@Z ; DrawableClass::LabelButton

; 490  : 		else

	jmp	SHORT $LN14@OSBLabels
$LN15@OSBLabels:

; 491  : 			LabelButton(3, "OVRD");

	push	0
	push	0
	push	OFFSET ??_C@_04PGDFOHNL@OVRD?$AA@
	push	3
	mov	ecx, DWORD PTR _this$[ebp]
	call	?LabelButton@DrawableClass@@QAEXHPAD0H@Z ; DrawableClass::LabelButton
$LN14@OSBLabels:

; 492  : 		LabelButton(4, "CNTL");

	push	0
	push	0
	push	OFFSET ??_C@_04GKDMIDBA@CNTL?$AA@
	push	4
	mov	ecx, DWORD PTR _this$[ebp]
	call	?LabelButton@DrawableClass@@QAEXHPAD0H@Z ; DrawableClass::LabelButton

; 493  : 		sprintf(Str,"%s",  laserPod->BHOT ? "BHOT" : "WHOT");

	mov	eax, DWORD PTR _this$[ebp]
	mov	ecx, DWORD PTR [eax+32]
	movzx	edx, BYTE PTR [ecx+80]
	test	edx, edx
	je	SHORT $LN47@OSBLabels
	mov	DWORD PTR tv373[ebp], OFFSET ??_C@_04OAFPCBLE@BHOT?$AA@
	jmp	SHORT $LN48@OSBLabels
$LN47@OSBLabels:
	mov	DWORD PTR tv373[ebp], OFFSET ??_C@_04EIFPDJEG@WHOT?$AA@
$LN48@OSBLabels:
	mov	eax, DWORD PTR tv373[ebp]
	push	eax
	push	OFFSET ??_C@_02DKCKIIND@?$CFs?$AA@
	mov	ecx, DWORD PTR _this$[ebp]
	add	ecx, 51					; 00000033H
	push	ecx
	call	_sprintf
	add	esp, 12					; 0000000cH

; 494  : 		LabelButton(5, Str);

	push	0
	push	0
	mov	edx, DWORD PTR _this$[ebp]
	add	edx, 51					; 00000033H
	push	edx
	push	5
	mov	ecx, DWORD PTR _this$[ebp]
	call	?LabelButton@DrawableClass@@QAEXHPAD0H@Z ; DrawableClass::LabelButton

; 495  : 		if(SP)

	mov	eax, DWORD PTR _this$[ebp]
	movzx	ecx, BYTE PTR [eax+50]
	test	ecx, ecx
	je	SHORT $LN13@OSBLabels

; 496  : 			LabelButton(7, "S", "P", 2);

	push	2
	push	OFFSET ??_C@_01EJNLAFE@P?$AA@
	push	OFFSET ??_C@_01CPLAODJH@S?$AA@
	push	7
	mov	ecx, DWORD PTR _this$[ebp]
	call	?LabelButton@DrawableClass@@QAEXHPAD0H@Z ; DrawableClass::LabelButton

; 497  : 		else

	jmp	SHORT $LN12@OSBLabels
$LN13@OSBLabels:

; 498  : 			LabelButton(7, "S", "P");

	push	0
	push	OFFSET ??_C@_01EJNLAFE@P?$AA@
	push	OFFSET ??_C@_01CPLAODJH@S?$AA@
	push	7
	mov	ecx, DWORD PTR _this$[ebp]
	call	?LabelButton@DrawableClass@@QAEXHPAD0H@Z ; DrawableClass::LabelButton
$LN12@OSBLabels:

; 499  : 		LabelButton(8, "C", "Z");

	push	0
	push	OFFSET ??_C@_01POHCFINO@Z?$AA@
	push	OFFSET ??_C@_01GFHCPBMG@C?$AA@
	push	8
	mov	ecx, DWORD PTR _this$[ebp]
	call	?LabelButton@DrawableClass@@QAEXHPAD0H@Z ; DrawableClass::LabelButton

; 500  : 		LabelButton(9, "T", "G");

	push	0
	push	OFFSET ??_C@_01BBODEMC@G?$AA@
	push	OFFSET ??_C@_01GAPBHFFA@T?$AA@
	push	9
	mov	ecx, DWORD PTR _this$[ebp]
	call	?LabelButton@DrawableClass@@QAEXHPAD0H@Z ; DrawableClass::LabelButton

; 501  : 		if (g_bGreyMFD)

	movzx	edx, BYTE PTR ?g_bGreyMFD@@3_NA		; g_bGreyMFD
	test	edx, edx
	je	SHORT $LN11@OSBLabels

; 502  : 			LabelButton(19, "GRAY", "OFF");

	push	0
	push	OFFSET ??_C@_03MPPIHBHJ@OFF?$AA@
	push	OFFSET ??_C@_04KICLEKHI@GRAY?$AA@
	push	19					; 00000013H
	mov	ecx, DWORD PTR _this$[ebp]
	call	?LabelButton@DrawableClass@@QAEXHPAD0H@Z ; DrawableClass::LabelButton

; 503  : 		else

	jmp	SHORT $LN10@OSBLabels
$LN11@OSBLabels:

; 504  : 			LabelButton(19, "GRAY", "ON");

	push	0
	push	OFFSET ??_C@_02BFICIOJL@ON?$AA@
	push	OFFSET ??_C@_04KICLEKHI@GRAY?$AA@
	push	19					; 00000013H
	mov	ecx, DWORD PTR _this$[ebp]
	call	?LabelButton@DrawableClass@@QAEXHPAD0H@Z ; DrawableClass::LabelButton
$LN10@OSBLabels:

; 505  : 	}
; 506  : 	else

	jmp	$LN9@OSBLabels
$LN18@OSBLabels:

; 507  : 	{
; 508  : 		LabelButton(0, "A-G");	//would be either A-A or A-G.. but AA isn't modelled

	push	0
	push	0
	push	OFFSET ??_C@_03HCLOBDMK@A?9G?$AA@
	push	0
	mov	ecx, DWORD PTR _this$[ebp]
	call	?LabelButton@DrawableClass@@QAEXHPAD0H@Z ; DrawableClass::LabelButton

; 509  : 		if(laserPod->CurFOV() < 1.7F * DTR)

	mov	eax, DWORD PTR _this$[ebp]
	mov	ecx, DWORD PTR [eax+32]
	call	?CurFOV@LaserPodClass@@QAEMXZ		; LaserPodClass::CurFOV
	fstp	DWORD PTR tv655[ebp]
	movss	xmm0, DWORD PTR __real@3cf30fbf
	comiss	xmm0, DWORD PTR tv655[ebp]
	jbe	SHORT $LN8@OSBLabels

; 510  : 			sprintf(Str, "EXP");

	push	OFFSET ??_C@_03KKGFKKLA@EXP?$AA@
	mov	ecx, DWORD PTR _this$[ebp]
	add	ecx, 51					; 00000033H
	push	ecx
	call	_sprintf
	add	esp, 8

; 511  : 		else

	jmp	SHORT $LN7@OSBLabels
$LN8@OSBLabels:

; 512  : 			sprintf(Str, "%s", (laserPod->CurFOV() < (3.5F * DTR)) ? "NARO" : "WIDE");

	mov	edx, DWORD PTR _this$[ebp]
	mov	ecx, DWORD PTR [edx+32]
	call	?CurFOV@LaserPodClass@@QAEMXZ		; LaserPodClass::CurFOV
	fstp	DWORD PTR tv662[ebp]
	movss	xmm0, DWORD PTR __real@3d7a35db
	comiss	xmm0, DWORD PTR tv662[ebp]
	jbe	SHORT $LN49@OSBLabels
	mov	DWORD PTR tv467[ebp], OFFSET ??_C@_04OFGPHIIG@NARO?$AA@
	jmp	SHORT $LN50@OSBLabels
$LN49@OSBLabels:
	mov	DWORD PTR tv467[ebp], OFFSET ??_C@_04KPGPJCNC@WIDE?$AA@
$LN50@OSBLabels:
	mov	eax, DWORD PTR tv467[ebp]
	push	eax
	push	OFFSET ??_C@_02DKCKIIND@?$CFs?$AA@
	mov	ecx, DWORD PTR _this$[ebp]
	add	ecx, 51					; 00000033H
	push	ecx
	call	_sprintf
	add	esp, 12					; 0000000cH
$LN7@OSBLabels:

; 513  : 		LabelButton(2, Str);

	push	0
	push	0
	mov	edx, DWORD PTR _this$[ebp]
	add	edx, 51					; 00000033H
	push	edx
	push	2
	mov	ecx, DWORD PTR _this$[ebp]
	call	?LabelButton@DrawableClass@@QAEXHPAD0H@Z ; DrawableClass::LabelButton

; 514  : 		if(pFCC->InhibitFire)

	mov	eax, DWORD PTR _this$[ebp]
	mov	ecx, DWORD PTR [eax+36]
	movzx	edx, BYTE PTR [ecx+425]
	test	edx, edx
	je	SHORT $LN6@OSBLabels

; 515  : 			LabelButton(3, "OVRD", NULL, 2);

	push	2
	push	0
	push	OFFSET ??_C@_04PGDFOHNL@OVRD?$AA@
	push	3
	mov	ecx, DWORD PTR _this$[ebp]
	call	?LabelButton@DrawableClass@@QAEXHPAD0H@Z ; DrawableClass::LabelButton

; 516  : 		else

	jmp	SHORT $LN5@OSBLabels
$LN6@OSBLabels:

; 517  : 			LabelButton(3, "OVRD");

	push	0
	push	0
	push	OFFSET ??_C@_04PGDFOHNL@OVRD?$AA@
	push	3
	mov	ecx, DWORD PTR _this$[ebp]
	call	?LabelButton@DrawableClass@@QAEXHPAD0H@Z ; DrawableClass::LabelButton
$LN5@OSBLabels:

; 518  : 		LabelButton(4, "CNTL");

	push	0
	push	0
	push	OFFSET ??_C@_04GKDMIDBA@CNTL?$AA@
	push	4
	mov	ecx, DWORD PTR _this$[ebp]
	call	?LabelButton@DrawableClass@@QAEXHPAD0H@Z ; DrawableClass::LabelButton

; 519  : 		if(SP)

	mov	eax, DWORD PTR _this$[ebp]
	movzx	ecx, BYTE PTR [eax+50]
	test	ecx, ecx
	je	SHORT $LN4@OSBLabels

; 520  : 			LabelButton(7, "S", "P", 2);

	push	2
	push	OFFSET ??_C@_01EJNLAFE@P?$AA@
	push	OFFSET ??_C@_01CPLAODJH@S?$AA@
	push	7
	mov	ecx, DWORD PTR _this$[ebp]
	call	?LabelButton@DrawableClass@@QAEXHPAD0H@Z ; DrawableClass::LabelButton

; 521  : 		else

	jmp	SHORT $LN3@OSBLabels
$LN4@OSBLabels:

; 522  : 			LabelButton(7, "S", "P");

	push	0
	push	OFFSET ??_C@_01EJNLAFE@P?$AA@
	push	OFFSET ??_C@_01CPLAODJH@S?$AA@
	push	7
	mov	ecx, DWORD PTR _this$[ebp]
	call	?LabelButton@DrawableClass@@QAEXHPAD0H@Z ; DrawableClass::LabelButton
$LN3@OSBLabels:

; 523  : 		LabelButton(8, "C", "Z");

	push	0
	push	OFFSET ??_C@_01POHCFINO@Z?$AA@
	push	OFFSET ??_C@_01GFHCPBMG@C?$AA@
	push	8
	mov	ecx, DWORD PTR _this$[ebp]
	call	?LabelButton@DrawableClass@@QAEXHPAD0H@Z ; DrawableClass::LabelButton

; 524  : 		LabelButton(9, "T", "G");

	push	0
	push	OFFSET ??_C@_01BBODEMC@G?$AA@
	push	OFFSET ??_C@_01GAPBHFFA@T?$AA@
	push	9
	mov	ecx, DWORD PTR _this$[ebp]
	call	?LabelButton@DrawableClass@@QAEXHPAD0H@Z ; DrawableClass::LabelButton

; 525  : 		if (g_bGreyMFD)

	movzx	edx, BYTE PTR ?g_bGreyMFD@@3_NA		; g_bGreyMFD
	test	edx, edx
	je	SHORT $LN2@OSBLabels

; 526  : 			LabelButton(19, "GRAY", "OFF");

	push	0
	push	OFFSET ??_C@_03MPPIHBHJ@OFF?$AA@
	push	OFFSET ??_C@_04KICLEKHI@GRAY?$AA@
	push	19					; 00000013H
	mov	ecx, DWORD PTR _this$[ebp]
	call	?LabelButton@DrawableClass@@QAEXHPAD0H@Z ; DrawableClass::LabelButton

; 527  : 		else

	jmp	SHORT $LN1@OSBLabels
$LN2@OSBLabels:

; 528  : 			LabelButton(19, "GRAY", "ON");

	push	0
	push	OFFSET ??_C@_02BFICIOJL@ON?$AA@
	push	OFFSET ??_C@_04KICLEKHI@GRAY?$AA@
	push	19					; 00000013H
	mov	ecx, DWORD PTR _this$[ebp]
	call	?LabelButton@DrawableClass@@QAEXHPAD0H@Z ; DrawableClass::LabelButton
$LN1@OSBLabels:

; 529  : 
; 530  : 		//BHOT/WHOT
; 531  : 		sprintf(Str, "%s", laserPod->BHOT ? "BHOT" : "WHOT");

	mov	eax, DWORD PTR _this$[ebp]
	mov	ecx, DWORD PTR [eax+32]
	movzx	edx, BYTE PTR [ecx+80]
	test	edx, edx
	je	SHORT $LN51@OSBLabels
	mov	DWORD PTR tv576[ebp], OFFSET ??_C@_04OAFPCBLE@BHOT?$AA@
	jmp	SHORT $LN52@OSBLabels
$LN51@OSBLabels:
	mov	DWORD PTR tv576[ebp], OFFSET ??_C@_04EIFPDJEG@WHOT?$AA@
$LN52@OSBLabels:
	mov	eax, DWORD PTR tv576[ebp]
	push	eax
	push	OFFSET ??_C@_02DKCKIIND@?$CFs?$AA@
	mov	ecx, DWORD PTR _this$[ebp]
	add	ecx, 51					; 00000033H
	push	ecx
	call	_sprintf
	add	esp, 12					; 0000000cH

; 532  : 		LabelButton(5, Str);

	push	0
	push	0
	mov	edx, DWORD PTR _this$[ebp]
	add	edx, 51					; 00000033H
	push	edx
	push	5
	mov	ecx, DWORD PTR _this$[ebp]
	call	?LabelButton@DrawableClass@@QAEXHPAD0H@Z ; DrawableClass::LabelButton
$LN9@OSBLabels:

; 533  : 	}
; 534  : }

	mov	esp, ebp
	pop	ebp
	ret	4
?OSBLabels@TgpMfdDrawable@@AAEXPAVVirtualDisplay@@@Z ENDP ; TgpMfdDrawable::OSBLabels
_TEXT	ENDS
; Function compile flags: /Odtp
; File c:\users\zhitao li\documents\visual studio 2012\projects\freefalcon\sim\displays\tgpmfd.cpp
_TEXT	SEGMENT
_this$ = -8						; size = 4
_ofont$ = -4						; size = 4
_display$ = 8						; size = 4
?CoolingDisplay@TgpMfdDrawable@@AAEXPAVVirtualDisplay@@@Z PROC ; TgpMfdDrawable::CoolingDisplay
; _this$ = ecx

; 423  : {

	push	ebp
	mov	ebp, esp
	sub	esp, 8
	mov	DWORD PTR _this$[ebp], ecx

; 424  : 	int ofont = display->CurFont();

	call	?CurFont@VirtualDisplay@@SAHXZ		; VirtualDisplay::CurFont
	mov	DWORD PTR _ofont$[ebp], eax

; 425  : 	display->SetFont(2);

	push	2
	call	?SetFont@VirtualDisplay@@SAXH@Z		; VirtualDisplay::SetFont
	add	esp, 4

; 426  : 	display->TextCenterVertical (0.0f, 0.2f, "NOT TIMED OUT");

	push	0
	push	OFFSET ??_C@_0O@MDMAMLOB@NOT?5TIMED?5OUT?$AA@
	push	ecx
	movss	xmm0, DWORD PTR __real@3e4ccccd
	movss	DWORD PTR [esp], xmm0
	push	ecx
	movss	xmm0, DWORD PTR __real@00000000
	movss	DWORD PTR [esp], xmm0
	mov	eax, DWORD PTR _display$[ebp]
	mov	edx, DWORD PTR [eax]
	mov	ecx, DWORD PTR _display$[ebp]
	mov	eax, DWORD PTR [edx+76]
	call	eax

; 427  : 	display->SetFont(ofont);

	mov	ecx, DWORD PTR _ofont$[ebp]
	push	ecx
	call	?SetFont@VirtualDisplay@@SAXH@Z		; VirtualDisplay::SetFont
	add	esp, 4

; 428  : }

	mov	esp, ebp
	pop	ebp
	ret	4
?CoolingDisplay@TgpMfdDrawable@@AAEXPAVVirtualDisplay@@@Z ENDP ; TgpMfdDrawable::CoolingDisplay
_TEXT	ENDS
; Function compile flags: /Odtp
; File c:\users\zhitao li\documents\visual studio 2012\projects\freefalcon\sim\displays\tgpmfd.cpp
_TEXT	SEGMENT
_x$ = -32						; size = 4
tv212 = -28						; size = 4
_playerAC$ = -24					; size = 4
tv74 = -20						; size = 4
_y$ = -16						; size = 4
_pFCC$ = -12						; size = 4
_range$ = -8						; size = 4
_this$ = -4						; size = 4
_display$ = 8						; size = 4
?DrawRange@TgpMfdDrawable@@AAEXPAVVirtualDisplay@@@Z PROC ; TgpMfdDrawable::DrawRange
; _this$ = ecx

; 536  : {

	push	ebp
	mov	ebp, esp
	sub	esp, 32					; 00000020H
	mov	DWORD PTR _this$[ebp], ecx

; 537  : 	AircraftClass *playerAC = SimDriver.GetPlayerAircraft();

	mov	ecx, OFFSET ?SimDriver@@3VSimulationDriver@@A ; SimDriver
	call	?GetPlayerAircraft@SimulationDriver@@QBEPAVAircraftClass@@XZ ; SimulationDriver::GetPlayerAircraft
	mov	DWORD PTR _playerAC$[ebp], eax

; 538  : 	FireControlComputer* pFCC = playerAC->Sms->Ownship()->GetFCC();

	mov	eax, DWORD PTR _playerAC$[ebp]
	mov	ecx, DWORD PTR [eax+940]
	call	?Ownship@SMSBaseClass@@QAEPAVSimVehicleClass@@XZ ; SMSBaseClass::Ownship
	mov	DWORD PTR tv74[ebp], eax
	mov	ecx, DWORD PTR tv74[ebp]
	mov	edx, DWORD PTR [ecx]
	mov	ecx, DWORD PTR tv74[ebp]
	mov	eax, DWORD PTR [edx+460]
	call	eax
	mov	DWORD PTR _pFCC$[ebp], eax

; 539  : 	float x,y = 0;

	movss	xmm0, DWORD PTR __real@00000000
	movss	DWORD PTR _y$[ebp], xmm0

; 540  : 
; 541  : 	if(!pFCC)

	cmp	DWORD PTR _pFCC$[ebp], 0
	jne	SHORT $LN13@DrawRange

; 542  : 		return;

	jmp	$LN14@DrawRange
$LN13@DrawRange:

; 543  : 
; 544  : 	//don't draw range in slave mode
; 545  : 	if(pFCC->preDesignate)

	mov	ecx, DWORD PTR _pFCC$[ebp]
	movsx	edx, BYTE PTR [ecx+182]
	test	edx, edx
	je	SHORT $LN12@DrawRange

; 546  : 		return;

	jmp	$LN14@DrawRange
$LN12@DrawRange:

; 547  : 
; 548  : 	float range = pFCC->LaserRange * FT_TO_NM;

	mov	eax, DWORD PTR _pFCC$[ebp]
	movss	xmm0, DWORD PTR [eax+436]
	mulss	xmm0, DWORD PTR __real@392c987a
	movss	DWORD PTR _range$[ebp], xmm0

; 549  : 	
; 550  : 	if(range <= 0.0F)

	movss	xmm0, DWORD PTR __real@00000000
	comiss	xmm0, DWORD PTR _range$[ebp]
	jb	SHORT $LN11@DrawRange

; 551  : 	{
; 552  : 		if(pFCC->LaserFire)

	mov	ecx, DWORD PTR _pFCC$[ebp]
	movzx	edx, BYTE PTR [ecx+423]
	test	edx, edx
	je	SHORT $LN10@DrawRange

; 553  : 			sprintf(Str, "L 00.0");

	push	OFFSET ??_C@_06FKALCHIE@L?500?40?$AA@
	mov	eax, DWORD PTR _this$[ebp]
	add	eax, 51					; 00000033H
	push	eax
	call	_sprintf
	add	esp, 8

; 554  : 		else

	jmp	SHORT $LN9@DrawRange
$LN10@DrawRange:

; 555  : 			sprintf(Str, "T 00.0");

	push	OFFSET ??_C@_06ODKPFCN@T?500?40?$AA@
	mov	ecx, DWORD PTR _this$[ebp]
	add	ecx, 51					; 00000033H
	push	ecx
	call	_sprintf
	add	esp, 8
$LN9@DrawRange:
	jmp	$LN1@DrawRange
$LN11@DrawRange:

; 556  : 	}
; 557  : 	else if(range < 10.0F) 

	movss	xmm0, DWORD PTR __real@41200000
	comiss	xmm0, DWORD PTR _range$[ebp]
	jbe	SHORT $LN7@DrawRange

; 558  : 	{
; 559  : 		if(pFCC->LaserFire)

	mov	edx, DWORD PTR _pFCC$[ebp]
	movzx	eax, BYTE PTR [edx+423]
	test	eax, eax
	je	SHORT $LN6@DrawRange

; 560  : 			sprintf(Str, "L 0%1.1f", range);

	cvtss2sd xmm0, DWORD PTR _range$[ebp]
	sub	esp, 8
	movsd	QWORD PTR [esp], xmm0
	push	OFFSET ??_C@_08ONIGECHO@L?50?$CF1?41f?$AA@
	mov	ecx, DWORD PTR _this$[ebp]
	add	ecx, 51					; 00000033H
	push	ecx
	call	_sprintf
	add	esp, 16					; 00000010H

; 561  : 		else

	jmp	SHORT $LN5@DrawRange
$LN6@DrawRange:

; 562  : 			sprintf(Str, "T 0%1.1f", range);

	cvtss2sd xmm0, DWORD PTR _range$[ebp]
	sub	esp, 8
	movsd	QWORD PTR [esp], xmm0
	push	OFFSET ??_C@_08PKJOKCBH@T?50?$CF1?41f?$AA@
	mov	edx, DWORD PTR _this$[ebp]
	add	edx, 51					; 00000033H
	push	edx
	call	_sprintf
	add	esp, 16					; 00000010H
$LN5@DrawRange:
	jmp	SHORT $LN1@DrawRange
$LN7@DrawRange:

; 563  : 	}
; 564  : 	else if(range >= 10.0F) 

	movss	xmm0, DWORD PTR _range$[ebp]
	comiss	xmm0, DWORD PTR __real@41200000
	jb	SHORT $LN1@DrawRange

; 565  : 	{
; 566  : 		if(pFCC->LaserFire)

	mov	eax, DWORD PTR _pFCC$[ebp]
	movzx	ecx, BYTE PTR [eax+423]
	test	ecx, ecx
	je	SHORT $LN2@DrawRange

; 567  : 			sprintf(Str, "L %2.1f", range);

	cvtss2sd xmm0, DWORD PTR _range$[ebp]
	sub	esp, 8
	movsd	QWORD PTR [esp], xmm0
	push	OFFSET ??_C@_07PBDBCKEA@L?5?$CF2?41f?$AA@
	mov	edx, DWORD PTR _this$[ebp]
	add	edx, 51					; 00000033H
	push	edx
	call	_sprintf
	add	esp, 16					; 00000010H

; 568  : 		else

	jmp	SHORT $LN1@DrawRange
$LN2@DrawRange:

; 569  : 			sprintf(Str, "T %2.1f", range);

	cvtss2sd xmm0, DWORD PTR _range$[ebp]
	sub	esp, 8
	movsd	QWORD PTR [esp], xmm0
	push	OFFSET ??_C@_07FOGPAANO@T?5?$CF2?41f?$AA@
	mov	eax, DWORD PTR _this$[ebp]
	add	eax, 51					; 00000033H
	push	eax
	call	_sprintf
	add	esp, 16					; 00000010H
$LN1@DrawRange:

; 570  : 	}
; 571  : 
; 572  : 	GetButtonPos(15, &x, &y);

	lea	ecx, DWORD PTR _y$[ebp]
	push	ecx
	lea	edx, DWORD PTR _x$[ebp]
	push	edx
	push	15					; 0000000fH
	mov	ecx, DWORD PTR _this$[ebp]
	call	?GetButtonPos@DrawableClass@@QAEXHPAM0@Z ; DrawableClass::GetButtonPos

; 573  : 	y -= display->TextHeight();

	mov	eax, DWORD PTR _display$[ebp]
	mov	edx, DWORD PTR [eax]
	mov	ecx, DWORD PTR _display$[ebp]
	mov	eax, DWORD PTR [edx+88]
	call	eax
	fstp	DWORD PTR tv212[ebp]
	movss	xmm0, DWORD PTR _y$[ebp]
	subss	xmm0, DWORD PTR tv212[ebp]
	movss	DWORD PTR _y$[ebp], xmm0

; 574  : 	display->TextCenter(x + 0.60F, y, Str);

	push	0
	mov	ecx, DWORD PTR _this$[ebp]
	add	ecx, 51					; 00000033H
	push	ecx
	push	ecx
	movss	xmm0, DWORD PTR _y$[ebp]
	movss	DWORD PTR [esp], xmm0
	movss	xmm0, DWORD PTR _x$[ebp]
	addss	xmm0, DWORD PTR __real@3f19999a
	push	ecx
	movss	DWORD PTR [esp], xmm0
	mov	edx, DWORD PTR _display$[ebp]
	mov	eax, DWORD PTR [edx]
	mov	ecx, DWORD PTR _display$[ebp]
	mov	edx, DWORD PTR [eax+72]
	call	edx
$LN14@DrawRange:

; 575  : }

	mov	esp, ebp
	pop	ebp
	ret	4
?DrawRange@TgpMfdDrawable@@AAEXPAVVirtualDisplay@@@Z ENDP ; TgpMfdDrawable::DrawRange
_TEXT	ENDS
; Function compile flags: /Odtp
; File c:\users\zhitao li\documents\visual studio 2012\projects\freefalcon\sim\displays\tgpmfd.cpp
_TEXT	SEGMENT
_x$ = -24						; size = 4
tv151 = -20						; size = 4
_y$ = -16						; size = 4
_this$ = -12						; size = 4
tv79 = -8						; size = 4
_mode$ = -4						; size = 4
_display$ = 8						; size = 4
?DrawMasterArm@TgpMfdDrawable@@AAEXPAVVirtualDisplay@@@Z PROC ; TgpMfdDrawable::DrawMasterArm
; _this$ = ecx

; 391  : {

	push	ebp
	mov	ebp, esp
	sub	esp, 24					; 00000018H
	mov	DWORD PTR _this$[ebp], ecx

; 392  : 	float x,y = 0;

	movss	xmm0, DWORD PTR __real@00000000
	movss	DWORD PTR _y$[ebp], xmm0

; 393  : 	char *mode = "";

	mov	DWORD PTR _mode$[ebp], OFFSET ??_C@_00CNPNBAHC@?$AA@

; 394  : 	if (Sms->CurStationOK())

	mov	eax, DWORD PTR _this$[ebp]
	mov	ecx, DWORD PTR [eax+40]
	call	?CurStationOK@SMSBaseClass@@QAEHXZ	; SMSBaseClass::CurStationOK
	test	eax, eax
	je	SHORT $LN9@DrawMaster

; 395  :     {
; 396  : 		switch (Sms->MasterArm())

	mov	ecx, DWORD PTR _this$[ebp]
	mov	ecx, DWORD PTR [ecx+40]
	call	?MasterArm@SMSBaseClass@@QAE?AW4MasterArmState@1@XZ ; SMSBaseClass::MasterArm
	mov	DWORD PTR tv79[ebp], eax
	cmp	DWORD PTR tv79[ebp], 0
	je	SHORT $LN6@DrawMaster
	cmp	DWORD PTR tv79[ebp], 1
	je	SHORT $LN3@DrawMaster
	cmp	DWORD PTR tv79[ebp], 2
	je	SHORT $LN2@DrawMaster
	jmp	SHORT $LN7@DrawMaster
$LN6@DrawMaster:

; 397  : 		{
; 398  : 		case SMSBaseClass::Safe:
; 399  : 			//MI not here in real
; 400  : 			if(!g_bRealisticAvionics)

	movzx	edx, BYTE PTR ?g_bRealisticAvionics@@3_NA ; g_bRealisticAvionics
	test	edx, edx
	jne	SHORT $LN5@DrawMaster

; 401  : 				mode = "SAF";

	mov	DWORD PTR _mode$[ebp], OFFSET ??_C@_03NAHIIPNL@SAF?$AA@

; 402  : 			else

	jmp	SHORT $LN4@DrawMaster
$LN5@DrawMaster:

; 403  : 				mode = "";

	mov	DWORD PTR _mode$[ebp], OFFSET ??_C@_00CNPNBAHC@?$AA@
$LN4@DrawMaster:

; 404  : 			break;

	jmp	SHORT $LN7@DrawMaster
$LN3@DrawMaster:

; 405  : 			
; 406  : 		case SMSBaseClass::Sim:
; 407  : 			mode = "SIM";

	mov	DWORD PTR _mode$[ebp], OFFSET ??_C@_03DNJPAHKI@SIM?$AA@

; 408  : 			break;

	jmp	SHORT $LN7@DrawMaster
$LN2@DrawMaster:

; 409  : 			
; 410  : 		case SMSBaseClass::Arm:
; 411  : 			mode = "RDY";

	mov	DWORD PTR _mode$[ebp], OFFSET ??_C@_03KDFFCEML@RDY?$AA@
$LN7@DrawMaster:

; 412  : 			break;
; 413  : 		}
; 414  : 	}
; 415  :     else

	jmp	SHORT $LN1@DrawMaster
$LN9@DrawMaster:

; 416  : 		mode = "MAL";

	mov	DWORD PTR _mode$[ebp], OFFSET ??_C@_03JKFBEHPN@MAL?$AA@
$LN1@DrawMaster:

; 417  :     
; 418  : 	GetButtonPos (12, &x, &y);

	lea	eax, DWORD PTR _y$[ebp]
	push	eax
	lea	ecx, DWORD PTR _x$[ebp]
	push	ecx
	push	12					; 0000000cH
	mov	ecx, DWORD PTR _this$[ebp]
	call	?GetButtonPos@DrawableClass@@QAEXHPAM0@Z ; DrawableClass::GetButtonPos

; 419  : 	// JPO - do this ourselves, so we can pass the rest off to the superclass.
; 420  : 	display->TextCenter(x, y + display->TextHeight(), mode);

	push	0
	mov	edx, DWORD PTR _mode$[ebp]
	push	edx
	mov	eax, DWORD PTR _display$[ebp]
	mov	edx, DWORD PTR [eax]
	mov	ecx, DWORD PTR _display$[ebp]
	mov	eax, DWORD PTR [edx+88]
	call	eax
	fstp	DWORD PTR tv151[ebp]
	movss	xmm0, DWORD PTR tv151[ebp]
	addss	xmm0, DWORD PTR _y$[ebp]
	push	ecx
	movss	DWORD PTR [esp], xmm0
	push	ecx
	movss	xmm0, DWORD PTR _x$[ebp]
	movss	DWORD PTR [esp], xmm0
	mov	ecx, DWORD PTR _display$[ebp]
	mov	edx, DWORD PTR [ecx]
	mov	ecx, DWORD PTR _display$[ebp]
	mov	eax, DWORD PTR [edx+72]
	call	eax

; 421  : }

	mov	esp, ebp
	pop	ebp
	ret	4
?DrawMasterArm@TgpMfdDrawable@@AAEXPAVVirtualDisplay@@@Z ENDP ; TgpMfdDrawable::DrawMasterArm
_TEXT	ENDS
; Function compile flags: /Odtp
; File c:\users\zhitao li\documents\visual studio 2012\projects\freefalcon\sim\displays\tgpmfd.cpp
_TEXT	SEGMENT
_x$ = -16						; size = 4
tv172 = -12						; size = 4
_y$ = -8						; size = 4
_this$ = -4						; size = 4
_display$ = 8						; size = 4
?ImpactTime@TgpMfdDrawable@@AAEXPAVVirtualDisplay@@@Z PROC ; TgpMfdDrawable::ImpactTime
; _this$ = ecx

; 377  : {

	push	ebp
	mov	ebp, esp
	sub	esp, 16					; 00000010H
	mov	DWORD PTR _this$[ebp], ecx

; 378  : 	float x,y = 0;

	movss	xmm0, DWORD PTR __real@00000000
	movss	DWORD PTR _y$[ebp], xmm0

; 379  : 	GetButtonPos(9, &x, &y);

	lea	eax, DWORD PTR _y$[ebp]
	push	eax
	lea	ecx, DWORD PTR _x$[ebp]
	push	ecx
	push	9
	mov	ecx, DWORD PTR _this$[ebp]
	call	?GetButtonPos@DrawableClass@@QAEXHPAM0@Z ; DrawableClass::GetButtonPos

; 380  : 	if(pFCC->ImpactTime >= 10.0F)

	mov	edx, DWORD PTR _this$[ebp]
	mov	eax, DWORD PTR [edx+36]
	movss	xmm0, DWORD PTR [eax+432]
	comiss	xmm0, DWORD PTR __real@41200000
	jb	SHORT $LN4@ImpactTime

; 381  : 		sprintf(Str, "00:%2.0f", pFCC->ImpactTime);

	mov	ecx, DWORD PTR _this$[ebp]
	mov	edx, DWORD PTR [ecx+36]
	cvtss2sd xmm0, DWORD PTR [edx+432]
	sub	esp, 8
	movsd	QWORD PTR [esp], xmm0
	push	OFFSET ??_C@_08GFLIAMDN@00?3?$CF2?40f?$AA@
	mov	eax, DWORD PTR _this$[ebp]
	add	eax, 51					; 00000033H
	push	eax
	call	_sprintf
	add	esp, 16					; 00000010H
	jmp	SHORT $LN1@ImpactTime
$LN4@ImpactTime:

; 382  : 	else if(pFCC->ImpactTime > 0 && pFCC->ImpactTime < 10.0F)

	mov	ecx, DWORD PTR _this$[ebp]
	mov	edx, DWORD PTR [ecx+36]
	movss	xmm0, DWORD PTR [edx+432]
	comiss	xmm0, DWORD PTR __real@00000000
	jbe	SHORT $LN2@ImpactTime
	mov	eax, DWORD PTR _this$[ebp]
	mov	ecx, DWORD PTR [eax+36]
	movss	xmm0, DWORD PTR __real@41200000
	comiss	xmm0, DWORD PTR [ecx+432]
	jbe	SHORT $LN2@ImpactTime

; 383  : 		sprintf(Str, "00:0%1.0f", pFCC->ImpactTime);

	mov	edx, DWORD PTR _this$[ebp]
	mov	eax, DWORD PTR [edx+36]
	cvtss2sd xmm0, DWORD PTR [eax+432]
	sub	esp, 8
	movsd	QWORD PTR [esp], xmm0
	push	OFFSET ??_C@_09HKNIMLIL@00?30?$CF1?40f?$AA@
	mov	ecx, DWORD PTR _this$[ebp]
	add	ecx, 51					; 00000033H
	push	ecx
	call	_sprintf
	add	esp, 16					; 00000010H

; 384  : 	else

	jmp	SHORT $LN1@ImpactTime
$LN2@ImpactTime:

; 385  : 		sprintf(Str, "00:00");

	push	OFFSET ??_C@_05IPNNCKNB@00?300?$AA@
	mov	edx, DWORD PTR _this$[ebp]
	add	edx, 51					; 00000033H
	push	edx
	call	_sprintf
	add	esp, 8
$LN1@ImpactTime:

; 386  : 
; 387  : 	y -= display->TextHeight();

	mov	eax, DWORD PTR _display$[ebp]
	mov	edx, DWORD PTR [eax]
	mov	ecx, DWORD PTR _display$[ebp]
	mov	eax, DWORD PTR [edx+88]
	call	eax
	fstp	DWORD PTR tv172[ebp]
	movss	xmm0, DWORD PTR _y$[ebp]
	subss	xmm0, DWORD PTR tv172[ebp]
	movss	DWORD PTR _y$[ebp], xmm0

; 388  : 	display->TextLeft(x - 0.55F, y, Str);

	push	0
	mov	ecx, DWORD PTR _this$[ebp]
	add	ecx, 51					; 00000033H
	push	ecx
	push	ecx
	movss	xmm0, DWORD PTR _y$[ebp]
	movss	DWORD PTR [esp], xmm0
	movss	xmm0, DWORD PTR _x$[ebp]
	subss	xmm0, DWORD PTR __real@3f0ccccd
	push	ecx
	movss	DWORD PTR [esp], xmm0
	mov	edx, DWORD PTR _display$[ebp]
	mov	eax, DWORD PTR [edx]
	mov	ecx, DWORD PTR _display$[ebp]
	mov	edx, DWORD PTR [eax+56]
	call	edx

; 389  : }

	mov	esp, ebp
	pop	ebp
	ret	4
?ImpactTime@TgpMfdDrawable@@AAEXPAVVirtualDisplay@@@Z ENDP ; TgpMfdDrawable::ImpactTime
_TEXT	ENDS
; Function compile flags: /Odtp
; File c:\users\zhitao li\documents\visual studio 2012\projects\freefalcon\sim\displays\tgpmfd.cpp
_TEXT	SEGMENT
tv154 = -16						; size = 4
_x$ = -12						; size = 4
_y$ = -8						; size = 4
_this$ = -4						; size = 4
_display$ = 8						; size = 4
?LaserIndicator@TgpMfdDrawable@@AAEXPAVVirtualDisplay@@@Z PROC ; TgpMfdDrawable::LaserIndicator
; _this$ = ecx

; 342  : {

	push	ebp
	mov	ebp, esp
	sub	esp, 16					; 00000010H
	mov	DWORD PTR _this$[ebp], ecx

; 343  : 	float x,y = 0;

	movss	xmm0, DWORD PTR __real@00000000
	movss	DWORD PTR _y$[ebp], xmm0

; 344  : 	GetButtonPos(9, &x, &y);

	lea	eax, DWORD PTR _y$[ebp]
	push	eax
	lea	ecx, DWORD PTR _x$[ebp]
	push	ecx
	push	9
	mov	ecx, DWORD PTR _this$[ebp]
	call	?GetButtonPos@DrawableClass@@QAEXHPAM0@Z ; DrawableClass::GetButtonPos

; 345  : 	y += display->TextHeight();

	mov	edx, DWORD PTR _display$[ebp]
	mov	eax, DWORD PTR [edx]
	mov	ecx, DWORD PTR _display$[ebp]
	mov	edx, DWORD PTR [eax+88]
	call	edx
	fstp	DWORD PTR tv154[ebp]
	movss	xmm0, DWORD PTR tv154[ebp]
	addss	xmm0, DWORD PTR _y$[ebp]
	movss	DWORD PTR _y$[ebp], xmm0

; 346  : 
; 347  : #if 0
; 348  : 	display->TextLeft(.25f, .80f, "LaserArm         ", (pFCC->LaserArm          ? 2 : 0));
; 349  : 	display->TextLeft(.25f, .70f, "CheckForLaserFire", (pFCC->CheckForLaserFire ? 2 : 0));
; 350  : 	display->TextLeft(.25f, .60f, "InhibitFire      ", (pFCC->InhibitFire       ? 2 : 0));
; 351  : 	display->TextLeft(.25f, .50f, "LaserWasFired    ", (pFCC->LaserWasFired     ? 2 : 0));
; 352  : 	display->TextLeft(.25f, .40f, "LaserFire        ", (pFCC->LaserFire         ? 2 : 0));
; 353  : 	display->TextLeft(.25f, .30f, "ManualFire       ", (pFCC->ManualFire        ? 2 : 0));
; 354  : #endif
; 355  : 
; 356  : 	if(laserPod && pFCC->LaserArm)

	mov	eax, DWORD PTR _this$[ebp]
	cmp	DWORD PTR [eax+32], 0
	je	$LN1@LaserIndic
	mov	ecx, DWORD PTR _this$[ebp]
	mov	edx, DWORD PTR [ecx+36]
	movzx	eax, BYTE PTR [edx+420]
	test	eax, eax
	je	$LN1@LaserIndic

; 357  : 	{
; 358  : 		//armed and fired
; 359  : 		if(pFCC->LaserFire)

	mov	ecx, DWORD PTR _this$[ebp]
	mov	edx, DWORD PTR [ecx+36]
	movzx	eax, BYTE PTR [edx+423]
	test	eax, eax
	je	SHORT $LN4@LaserIndic

; 360  : 		{
; 361  : 			if(flash)

	cmp	DWORD PTR ?flash@TgpMfdDrawable@@0HA, 0	; TgpMfdDrawable::flash
	je	SHORT $LN3@LaserIndic

; 362  : 				display->TextLeft(x -0.75F, y, "L");

	push	0
	push	OFFSET ??_C@_01OCOKONAJ@L?$AA@
	push	ecx
	movss	xmm0, DWORD PTR _y$[ebp]
	movss	DWORD PTR [esp], xmm0
	movss	xmm0, DWORD PTR _x$[ebp]
	subss	xmm0, DWORD PTR __real@3f400000
	push	ecx
	movss	DWORD PTR [esp], xmm0
	mov	ecx, DWORD PTR _display$[ebp]
	mov	edx, DWORD PTR [ecx]
	mov	ecx, DWORD PTR _display$[ebp]
	mov	eax, DWORD PTR [edx+56]
	call	eax
$LN3@LaserIndic:

; 363  : 		}

	jmp	SHORT $LN1@LaserIndic
$LN4@LaserIndic:

; 364  : 		//armed, put it there steady
; 365  : 		else if(pFCC->LaserArm)

	mov	ecx, DWORD PTR _this$[ebp]
	mov	edx, DWORD PTR [ecx+36]
	movzx	eax, BYTE PTR [edx+420]
	test	eax, eax
	je	SHORT $LN1@LaserIndic

; 366  : 			display->TextLeft(x -0.75F, y, "L");

	push	0
	push	OFFSET ??_C@_01OCOKONAJ@L?$AA@
	push	ecx
	movss	xmm0, DWORD PTR _y$[ebp]
	movss	DWORD PTR [esp], xmm0
	movss	xmm0, DWORD PTR _x$[ebp]
	subss	xmm0, DWORD PTR __real@3f400000
	push	ecx
	movss	DWORD PTR [esp], xmm0
	mov	ecx, DWORD PTR _display$[ebp]
	mov	edx, DWORD PTR [ecx]
	mov	ecx, DWORD PTR _display$[ebp]
	mov	eax, DWORD PTR [edx+56]
	call	eax
$LN1@LaserIndic:

; 367  : 	}
; 368  : 
; 369  : /*	display->TextLeft(.25f, .80f, "LaserArm         ", (pFCC->LaserArm          ? 2 : 0));
; 370  : 	display->TextLeft(.25f, .70f, "CheckForLaserFire", (pFCC->CheckForLaserFire ? 2 : 0));
; 371  : 	display->TextLeft(.25f, .60f, "InhibitFire      ", (pFCC->InhibitFire       ? 2 : 0));
; 372  : 	display->TextLeft(.25f, .50f, "LaserWasFired    ", (pFCC->LaserWasFired     ? 2 : 0));
; 373  : 	display->TextLeft(.25f, .40f, "LaserFire        ", (pFCC->LaserFire         ? 2 : 0));
; 374  : 	display->TextLeft(.25f, .30f, "ManualFire       ", (pFCC->ManualFire        ? 2 : 0)); */
; 375  : }

	mov	esp, ebp
	pop	ebp
	ret	4
?LaserIndicator@TgpMfdDrawable@@AAEXPAVVirtualDisplay@@@Z ENDP ; TgpMfdDrawable::LaserIndicator
_TEXT	ENDS
; Function compile flags: /Odtp
; File c:\users\zhitao li\documents\visual studio 2012\projects\freefalcon\sim\displays\tgpmfd.cpp
_TEXT	SEGMENT
_this$ = -4						; size = 4
_n$ = 8							; size = 4
_Sms$ = 12						; size = 4
?HdptStationSym@TgpMfdDrawable@@AAEDHPAVSMSClass@@@Z PROC ; TgpMfdDrawable::HdptStationSym
; _this$ = ecx

; 331  : {

	push	ebp
	mov	ebp, esp
	push	ecx
	mov	DWORD PTR _this$[ebp], ecx

; 332  :     if (Sms->hardPoint[n] == NULL) return ' '; // empty hp

	mov	eax, DWORD PTR _Sms$[ebp]
	mov	ecx, DWORD PTR [eax+4]
	mov	edx, DWORD PTR _n$[ebp]
	cmp	DWORD PTR [ecx+edx*4], 0
	jne	SHORT $LN5@HdptStatio
	mov	al, 32					; 00000020H
	jmp	$LN6@HdptStatio
$LN5@HdptStatio:

; 333  : 	if(Sms->hardPoint[n]->weaponCount <= 0) return ' ';	//MI don't bother drawing empty hardpoints

	mov	eax, DWORD PTR _Sms$[ebp]
	mov	ecx, DWORD PTR [eax+4]
	mov	edx, DWORD PTR _n$[ebp]
	mov	eax, DWORD PTR [ecx+edx*4]
	movsx	ecx, WORD PTR [eax+10]
	test	ecx, ecx
	jg	SHORT $LN4@HdptStatio
	mov	al, 32					; 00000020H
	jmp	SHORT $LN6@HdptStatio
$LN4@HdptStatio:

; 334  :     if (Sms->StationOK(n) == FALSE) return 'F'; // malfunction on  HP

	mov	edx, DWORD PTR _n$[ebp]
	push	edx
	mov	ecx, DWORD PTR _Sms$[ebp]
	call	?StationOK@SMSBaseClass@@QAEHH@Z	; SMSBaseClass::StationOK
	test	eax, eax
	jne	SHORT $LN3@HdptStatio
	mov	al, 70					; 00000046H
	jmp	SHORT $LN6@HdptStatio
$LN3@HdptStatio:

; 335  :     if (Sms->hardPoint[n]->GetWeaponType() == Sms->curWeaponType)

	mov	eax, DWORD PTR _Sms$[ebp]
	mov	ecx, DWORD PTR [eax+4]
	mov	edx, DWORD PTR _n$[ebp]
	mov	eax, DWORD PTR [ecx+edx*4]
	mov	ecx, DWORD PTR _Sms$[ebp]
	mov	edx, DWORD PTR [ecx+4]
	mov	ecx, DWORD PTR _n$[ebp]
	mov	eax, DWORD PTR [eax]
	mov	ecx, DWORD PTR [edx+ecx*4]
	mov	edx, DWORD PTR [eax+156]
	call	edx
	mov	ecx, DWORD PTR _Sms$[ebp]
	cmp	eax, DWORD PTR [ecx+148]
	jne	SHORT $LN2@HdptStatio

; 336  : 	return '0' + n; // exact match for weapon

	mov	eax, DWORD PTR _n$[ebp]
	add	eax, 48					; 00000030H
	jmp	SHORT $LN6@HdptStatio
$LN2@HdptStatio:

; 337  :     if (Sms->hardPoint[n]->GetWeaponClass() == Sms->curWeaponClass)

	mov	edx, DWORD PTR _Sms$[ebp]
	mov	eax, DWORD PTR [edx+4]
	mov	ecx, DWORD PTR _n$[ebp]
	mov	edx, DWORD PTR [eax+ecx*4]
	mov	eax, DWORD PTR _Sms$[ebp]
	mov	ecx, DWORD PTR [eax+4]
	mov	eax, DWORD PTR _n$[ebp]
	mov	edx, DWORD PTR [edx]
	mov	ecx, DWORD PTR [ecx+eax*4]
	mov	eax, DWORD PTR [edx+164]
	call	eax
	mov	ecx, DWORD PTR _Sms$[ebp]
	cmp	eax, DWORD PTR [ecx+156]
	jne	SHORT $LN1@HdptStatio

; 338  : 	return 'M'; // weapon of similar class

	mov	al, 77					; 0000004dH
	jmp	SHORT $LN6@HdptStatio
$LN1@HdptStatio:

; 339  :     return ' ';

	mov	al, 32					; 00000020H
$LN6@HdptStatio:

; 340  : }

	mov	esp, ebp
	pop	ebp
	ret	8
?HdptStationSym@TgpMfdDrawable@@AAEDHPAVSMSClass@@@Z ENDP ; TgpMfdDrawable::HdptStationSym
_TEXT	ENDS
; Function compile flags: /Odtp
; File c:\users\zhitao li\documents\visual studio 2012\projects\freefalcon\sim\displays\tgpmfd.cpp
_TEXT	SEGMENT
tv201 = -40						; size = 4
tv178 = -36						; size = 4
_width$ = -32						; size = 4
tv151 = -28						; size = 4
_leftEdge$ = -24					; size = 4
_x$ = -20						; size = 4
_y$ = -16						; size = 4
_this$ = -12						; size = 4
_i$1 = -8						; size = 4
_c$2 = -1						; size = 1
_display$ = 8						; size = 4
_Sms$ = 12						; size = 4
?DrawHDPT@TgpMfdDrawable@@AAEXPAVVirtualDisplay@@PAVSMSClass@@@Z PROC ; TgpMfdDrawable::DrawHDPT
; _this$ = ecx

; 305  : {

	push	ebp
	mov	ebp, esp
	sub	esp, 40					; 00000028H
	mov	DWORD PTR _this$[ebp], ecx

; 306  : 	float leftEdge;
; 307  :     float width = display->TextWidth("M ");

	push	OFFSET ??_C@_02ONHIBMNM@M?5?$AA@
	mov	eax, DWORD PTR _display$[ebp]
	mov	edx, DWORD PTR [eax]
	mov	ecx, DWORD PTR _display$[ebp]
	mov	eax, DWORD PTR [edx+84]
	call	eax
	fstp	DWORD PTR _width$[ebp]

; 308  : 	float x = 0, y = 0;

	movss	xmm0, DWORD PTR __real@00000000
	movss	DWORD PTR _x$[ebp], xmm0
	movss	xmm0, DWORD PTR __real@00000000
	movss	DWORD PTR _y$[ebp], xmm0

; 309  : 	GetButtonPos(8, &x, &y); // use button 8 as a reference (lower rhs)

	lea	ecx, DWORD PTR _y$[ebp]
	push	ecx
	lea	edx, DWORD PTR _x$[ebp]
	push	edx
	push	8
	mov	ecx, DWORD PTR _this$[ebp]
	call	?GetButtonPos@DrawableClass@@QAEXHPAM0@Z ; DrawableClass::GetButtonPos

; 310  : 	y -= display->TextHeight()*2;

	mov	eax, DWORD PTR _display$[ebp]
	mov	edx, DWORD PTR [eax]
	mov	ecx, DWORD PTR _display$[ebp]
	mov	eax, DWORD PTR [edx+88]
	call	eax
	fstp	DWORD PTR tv201[ebp]
	movss	xmm0, DWORD PTR tv201[ebp]
	mulss	xmm0, DWORD PTR __real@40000000
	movss	xmm1, DWORD PTR _y$[ebp]
	subss	xmm1, xmm0
	movss	DWORD PTR _y$[ebp], xmm1

; 311  : 	for(int i=0; i<Sms->NumHardpoints(); i++)

	mov	DWORD PTR _i$1[ebp], 0
	jmp	SHORT $LN6@DrawHDPT
$LN5@DrawHDPT:
	mov	ecx, DWORD PTR _i$1[ebp]
	add	ecx, 1
	mov	DWORD PTR _i$1[ebp], ecx
$LN6@DrawHDPT:
	mov	ecx, DWORD PTR _Sms$[ebp]
	call	?NumHardpoints@SMSBaseClass@@QAEHXZ	; SMSBaseClass::NumHardpoints
	cmp	DWORD PTR _i$1[ebp], eax
	jge	$LN4@DrawHDPT

; 312  :     {
; 313  : 		char c = HdptStationSym(i, Sms);

	mov	edx, DWORD PTR _Sms$[ebp]
	push	edx
	mov	eax, DWORD PTR _i$1[ebp]
	push	eax
	mov	ecx, DWORD PTR _this$[ebp]
	call	?HdptStationSym@TgpMfdDrawable@@AAEDHPAVSMSClass@@@Z ; TgpMfdDrawable::HdptStationSym
	mov	BYTE PTR _c$2[ebp], al

; 314  : 		if (c == ' ') continue; // Don't bother drawing blanks.

	movsx	ecx, BYTE PTR _c$2[ebp]
	cmp	ecx, 32					; 00000020H
	jne	SHORT $LN3@DrawHDPT
	jmp	SHORT $LN5@DrawHDPT
$LN3@DrawHDPT:

; 315  : 		Str[0] = c;

	mov	edx, 1
	imul	edx, 0
	mov	eax, DWORD PTR _this$[ebp]
	mov	cl, BYTE PTR _c$2[ebp]
	mov	BYTE PTR [eax+edx+51], cl

; 316  : 		Str[1] = '\0';

	mov	edx, 1
	shl	edx, 0
	mov	eax, DWORD PTR _this$[ebp]
	mov	BYTE PTR [eax+edx+51], 0

; 317  : 		if(i < 6)

	cmp	DWORD PTR _i$1[ebp], 6
	jge	SHORT $LN2@DrawHDPT

; 318  : 		{
; 319  : 			leftEdge = -x + width * (i-1);

	movss	xmm0, DWORD PTR _x$[ebp]
	xorps	xmm0, DWORD PTR __xmm@80000000800000008000000080000000
	mov	ecx, DWORD PTR _i$1[ebp]
	sub	ecx, 1
	cvtsi2ss xmm1, ecx
	mulss	xmm1, DWORD PTR _width$[ebp]
	addss	xmm0, xmm1
	movss	DWORD PTR _leftEdge$[ebp], xmm0

; 320  : 			display->TextLeft(leftEdge, y, Str, (Sms->CurHardpoint() == i ? 2 : 0));

	mov	ecx, DWORD PTR _Sms$[ebp]
	call	?CurHardpoint@SMSBaseClass@@QAEHXZ	; SMSBaseClass::CurHardpoint
	cmp	eax, DWORD PTR _i$1[ebp]
	jne	SHORT $LN9@DrawHDPT
	mov	DWORD PTR tv151[ebp], 2
	jmp	SHORT $LN10@DrawHDPT
$LN9@DrawHDPT:
	mov	DWORD PTR tv151[ebp], 0
$LN10@DrawHDPT:
	mov	edx, DWORD PTR tv151[ebp]
	push	edx
	mov	eax, DWORD PTR _this$[ebp]
	add	eax, 51					; 00000033H
	push	eax
	push	ecx
	movss	xmm0, DWORD PTR _y$[ebp]
	movss	DWORD PTR [esp], xmm0
	push	ecx
	movss	xmm0, DWORD PTR _leftEdge$[ebp]
	movss	DWORD PTR [esp], xmm0
	mov	ecx, DWORD PTR _display$[ebp]
	mov	edx, DWORD PTR [ecx]
	mov	ecx, DWORD PTR _display$[ebp]
	mov	eax, DWORD PTR [edx+56]
	call	eax

; 321  : 		}
; 322  : 		else

	jmp	SHORT $LN1@DrawHDPT
$LN2@DrawHDPT:

; 323  : 		{
; 324  : 			leftEdge = x - width * (Sms->NumHardpoints() - i - 1);

	mov	ecx, DWORD PTR _Sms$[ebp]
	call	?NumHardpoints@SMSBaseClass@@QAEHXZ	; SMSBaseClass::NumHardpoints
	sub	eax, DWORD PTR _i$1[ebp]
	sub	eax, 1
	cvtsi2ss xmm0, eax
	mulss	xmm0, DWORD PTR _width$[ebp]
	movss	xmm1, DWORD PTR _x$[ebp]
	subss	xmm1, xmm0
	movss	DWORD PTR _leftEdge$[ebp], xmm1

; 325  : 			// Box the current station
; 326  : 			display->TextRight(leftEdge, y, Str, (Sms->CurHardpoint() == i ? 2 : 0));

	mov	ecx, DWORD PTR _Sms$[ebp]
	call	?CurHardpoint@SMSBaseClass@@QAEHXZ	; SMSBaseClass::CurHardpoint
	cmp	eax, DWORD PTR _i$1[ebp]
	jne	SHORT $LN11@DrawHDPT
	mov	DWORD PTR tv178[ebp], 2
	jmp	SHORT $LN12@DrawHDPT
$LN11@DrawHDPT:
	mov	DWORD PTR tv178[ebp], 0
$LN12@DrawHDPT:
	mov	ecx, DWORD PTR tv178[ebp]
	push	ecx
	mov	edx, DWORD PTR _this$[ebp]
	add	edx, 51					; 00000033H
	push	edx
	push	ecx
	movss	xmm0, DWORD PTR _y$[ebp]
	movss	DWORD PTR [esp], xmm0
	push	ecx
	movss	xmm0, DWORD PTR _leftEdge$[ebp]
	movss	DWORD PTR [esp], xmm0
	mov	eax, DWORD PTR _display$[ebp]
	mov	edx, DWORD PTR [eax]
	mov	ecx, DWORD PTR _display$[ebp]
	mov	eax, DWORD PTR [edx+60]
	call	eax
$LN1@DrawHDPT:

; 327  : 		}
; 328  :     }

	jmp	$LN5@DrawHDPT
$LN4@DrawHDPT:

; 329  : }

	mov	esp, ebp
	pop	ebp
	ret	8
?DrawHDPT@TgpMfdDrawable@@AAEXPAVVirtualDisplay@@PAVSMSClass@@@Z ENDP ; TgpMfdDrawable::DrawHDPT
_TEXT	ENDS
; Function compile flags: /Odtp
; File c:\users\zhitao li\documents\visual studio 2012\projects\freefalcon\sim\displays\tgpmfd.cpp
_TEXT	SEGMENT
tv187 = -36						; size = 4
_x$1 = -32						; size = 4
_RALT$2 = -28						; size = 4
_this$ = -24						; size = 4
_y$3 = -20						; size = 4
_tempstr$4 = -16					; size = 10
__$ArrayPad$ = -4					; size = 4
_display$ = 8						; size = 4
?DrawRALT@TgpMfdDrawable@@AAEXPAVVirtualDisplay@@@Z PROC ; TgpMfdDrawable::DrawRALT
; _this$ = ecx

; 287  : {

	push	ebp
	mov	ebp, esp
	sub	esp, 36					; 00000024H
	mov	eax, DWORD PTR ___security_cookie
	xor	eax, ebp
	mov	DWORD PTR __$ArrayPad$[ebp], eax
	mov	DWORD PTR _this$[ebp], ecx

; 288  : 	if(TheHud && !(self->mFaults && self->mFaults->GetFault(FaultClass::ralt_fault))
; 289  : 		&& self->af->platform->RaltReady() &&
; 290  : 		TheHud->FindRollAngle(-TheHud->hat) && TheHud->FindPitchAngle(-TheHud->hat))

	cmp	DWORD PTR ?TheHud@@3PAVHudClass@@A, 0	; TheHud
	je	$LN3@DrawRALT
	mov	eax, DWORD PTR _this$[ebp]
	mov	ecx, DWORD PTR [eax+28]
	cmp	DWORD PTR [ecx+928], 0
	je	SHORT $LN2@DrawRALT
	push	24					; 00000018H
	mov	edx, DWORD PTR _this$[ebp]
	mov	eax, DWORD PTR [edx+28]
	mov	ecx, DWORD PTR [eax+928]
	call	?GetFault@FackClass@@QAEHW4type_FSubSystem@FaultClass@@@Z ; FackClass::GetFault
	test	eax, eax
	jne	$LN3@DrawRALT
$LN2@DrawRALT:
	mov	ecx, DWORD PTR _this$[ebp]
	mov	edx, DWORD PTR [ecx+28]
	mov	eax, DWORD PTR [edx+932]
	mov	ecx, DWORD PTR [eax+1088]
	call	?RaltReady@AircraftClass@@QAEHXZ	; AircraftClass::RaltReady
	test	eax, eax
	je	$LN3@DrawRALT
	mov	ecx, DWORD PTR ?TheHud@@3PAVHudClass@@A	; TheHud
	movss	xmm0, DWORD PTR [ecx+5080]
	xorps	xmm0, DWORD PTR __xmm@80000000800000008000000080000000
	push	ecx
	movss	DWORD PTR [esp], xmm0
	mov	ecx, DWORD PTR ?TheHud@@3PAVHudClass@@A	; TheHud
	call	?FindRollAngle@HudClass@@QAEHM@Z	; HudClass::FindRollAngle
	test	eax, eax
	je	$LN3@DrawRALT
	mov	edx, DWORD PTR ?TheHud@@3PAVHudClass@@A	; TheHud
	movss	xmm0, DWORD PTR [edx+5080]
	xorps	xmm0, DWORD PTR __xmm@80000000800000008000000080000000
	push	ecx
	movss	DWORD PTR [esp], xmm0
	mov	ecx, DWORD PTR ?TheHud@@3PAVHudClass@@A	; TheHud
	call	?FindPitchAngle@HudClass@@QAEHM@Z	; HudClass::FindPitchAngle
	test	eax, eax
	je	$LN3@DrawRALT

; 291  : 	{
; 292  : 		float x,y = 0;

	movss	xmm0, DWORD PTR __real@00000000
	movss	DWORD PTR _y$3[ebp], xmm0

; 293  : 		GetButtonPos(5, &x, &y);

	lea	eax, DWORD PTR _y$3[ebp]
	push	eax
	lea	ecx, DWORD PTR _x$1[ebp]
	push	ecx
	push	5
	mov	ecx, DWORD PTR _this$[ebp]
	call	?GetButtonPos@DrawableClass@@QAEXHPAM0@Z ; DrawableClass::GetButtonPos

; 294  : 		y += display->TextHeight();

	mov	edx, DWORD PTR _display$[ebp]
	mov	eax, DWORD PTR [edx]
	mov	ecx, DWORD PTR _display$[ebp]
	mov	edx, DWORD PTR [eax+88]
	call	edx
	fstp	DWORD PTR tv187[ebp]
	movss	xmm0, DWORD PTR tv187[ebp]
	addss	xmm0, DWORD PTR _y$3[ebp]
	movss	DWORD PTR _y$3[ebp], xmm0

; 295  : 		x -= 0.05F;

	movss	xmm0, DWORD PTR _x$1[ebp]
	subss	xmm0, DWORD PTR __real@3d4ccccd
	movss	DWORD PTR _x$1[ebp], xmm0

; 296  : 		int RALT = (int)-TheHud->hat;

	mov	eax, DWORD PTR ?TheHud@@3PAVHudClass@@A	; TheHud
	movss	xmm0, DWORD PTR [eax+5080]
	xorps	xmm0, DWORD PTR __xmm@80000000800000008000000080000000
	cvttss2si ecx, xmm0
	mov	DWORD PTR _RALT$2[ebp], ecx

; 297  : 		char tempstr[10] = "";

	mov	dl, BYTE PTR ??_C@_00CNPNBAHC@?$AA@
	mov	BYTE PTR _tempstr$4[ebp], dl
	xor	eax, eax
	mov	DWORD PTR _tempstr$4[ebp+1], eax
	mov	DWORD PTR _tempstr$4[ebp+5], eax
	mov	BYTE PTR _tempstr$4[ebp+9], al

; 298  : 		if(RALT > 9990)

	cmp	DWORD PTR _RALT$2[ebp], 9990		; 00002706H
	jle	SHORT $LN1@DrawRALT

; 299  : 		RALT = 9990;

	mov	DWORD PTR _RALT$2[ebp], 9990		; 00002706H
$LN1@DrawRALT:

; 300  : 		sprintf(tempstr, "%d", RALT);

	mov	ecx, DWORD PTR _RALT$2[ebp]
	push	ecx
	push	OFFSET ??_C@_02DPKJAMEF@?$CFd?$AA@
	lea	edx, DWORD PTR _tempstr$4[ebp]
	push	edx
	call	_sprintf
	add	esp, 12					; 0000000cH

; 301  : 		display->TextRight(x, y, tempstr);

	push	0
	lea	eax, DWORD PTR _tempstr$4[ebp]
	push	eax
	push	ecx
	movss	xmm0, DWORD PTR _y$3[ebp]
	movss	DWORD PTR [esp], xmm0
	push	ecx
	movss	xmm0, DWORD PTR _x$1[ebp]
	movss	DWORD PTR [esp], xmm0
	mov	ecx, DWORD PTR _display$[ebp]
	mov	edx, DWORD PTR [ecx]
	mov	ecx, DWORD PTR _display$[ebp]
	mov	eax, DWORD PTR [edx+60]
	call	eax
$LN3@DrawRALT:

; 302  : 	}
; 303  : }

	mov	ecx, DWORD PTR __$ArrayPad$[ebp]
	xor	ecx, ebp
	call	@__security_check_cookie@4
	mov	esp, ebp
	pop	ebp
	ret	4
?DrawRALT@TgpMfdDrawable@@AAEXPAVVirtualDisplay@@@Z ENDP ; TgpMfdDrawable::DrawRALT
_TEXT	ENDS
; Function compile flags: /Odtp
; File c:\users\zhitao li\documents\visual studio 2012\projects\freefalcon\sim\displays\tgpmfd.cpp
_TEXT	SEGMENT
_cX$ = -16						; size = 4
_ofont$ = -12						; size = 4
_cY$ = -8						; size = 4
_this$ = -4						; size = 4
_display$ = 8						; size = 4
?OffMode@TgpMfdDrawable@@AAEXPAVVirtualDisplay@@@Z PROC	; TgpMfdDrawable::OffMode
; _this$ = ecx

; 245  : {

	push	ebp
	mov	ebp, esp
	sub	esp, 16					; 00000010H
	mov	DWORD PTR _this$[ebp], ecx

; 246  : 	float cX, cY = 0;

	movss	xmm0, DWORD PTR __real@00000000
	movss	DWORD PTR _cY$[ebp], xmm0

; 247  : 	display->TextCenterVertical (0.0f, 0.2f, "TGP");  // JPG 14 Dec 03 - Just changed to CAPs

	push	0
	push	OFFSET ??_C@_03FFLKHOAH@TGP?$AA@
	push	ecx
	movss	xmm0, DWORD PTR __real@3e4ccccd
	movss	DWORD PTR [esp], xmm0
	push	ecx
	movss	xmm0, DWORD PTR __real@00000000
	movss	DWORD PTR [esp], xmm0
	mov	eax, DWORD PTR _display$[ebp]
	mov	edx, DWORD PTR [eax]
	mov	ecx, DWORD PTR _display$[ebp]
	mov	eax, DWORD PTR [edx+76]
	call	eax

; 248  : 	int ofont = display->CurFont();

	call	?CurFont@VirtualDisplay@@SAHXZ		; VirtualDisplay::CurFont
	mov	DWORD PTR _ofont$[ebp], eax

; 249  : 	display->SetFont(2);

	push	2
	call	?SetFont@VirtualDisplay@@SAXH@Z		; VirtualDisplay::SetFont
	add	esp, 4

; 250  : 	display->TextCenterVertical (0.0f, 0.0f, "OFF");  // this too

	push	0
	push	OFFSET ??_C@_03MPPIHBHJ@OFF?$AA@
	push	ecx
	movss	xmm0, DWORD PTR __real@00000000
	movss	DWORD PTR [esp], xmm0
	push	ecx
	movss	xmm0, DWORD PTR __real@00000000
	movss	DWORD PTR [esp], xmm0
	mov	ecx, DWORD PTR _display$[ebp]
	mov	edx, DWORD PTR [ecx]
	mov	ecx, DWORD PTR _display$[ebp]
	mov	eax, DWORD PTR [edx+76]
	call	eax

; 251  : 	display->SetFont(ofont);

	mov	ecx, DWORD PTR _ofont$[ebp]
	push	ecx
	call	?SetFont@VirtualDisplay@@SAXH@Z		; VirtualDisplay::SetFont
	add	esp, 4

; 252  : 	theRadar->GetCursorPosition (&cX, &cY);

	lea	edx, DWORD PTR _cY$[ebp]
	push	edx
	lea	eax, DWORD PTR _cX$[ebp]
	push	eax
	mov	ecx, DWORD PTR _this$[ebp]
	mov	edx, DWORD PTR [ecx+44]
	mov	eax, DWORD PTR _this$[ebp]
	mov	edx, DWORD PTR [edx]
	mov	ecx, DWORD PTR [eax+44]
	mov	eax, DWORD PTR [edx+204]
	call	eax

; 253  : 	if(OTWDriver.pCockpitManager && OTWDriver.pCockpitManager->mpIcp &&  // JPG 14 Dec 03 - Added BE/ownship info
; 254  : 		OTWDriver.pCockpitManager->mpIcp->ShowBullseyeInfo)

	cmp	DWORD PTR ?OTWDriver@@3VOTWDriverClass@@A+33684, 0
	je	SHORT $LN2@OffMode
	mov	ecx, DWORD PTR ?OTWDriver@@3VOTWDriverClass@@A+33684
	cmp	DWORD PTR [ecx+688], 0
	je	SHORT $LN2@OffMode
	mov	edx, DWORD PTR ?OTWDriver@@3VOTWDriverClass@@A+33684
	mov	eax, DWORD PTR [edx+688]
	movzx	ecx, BYTE PTR [eax+300]
	test	ecx, ecx
	je	SHORT $LN2@OffMode

; 255  : 		DrawBullseyeCircle(display, cX, cY);

	push	ecx
	movss	xmm0, DWORD PTR _cY$[ebp]
	movss	DWORD PTR [esp], xmm0
	push	ecx
	movss	xmm0, DWORD PTR _cX$[ebp]
	movss	DWORD PTR [esp], xmm0
	mov	edx, DWORD PTR _display$[ebp]
	push	edx
	call	?DrawBullseyeCircle@@YAXPAVVirtualDisplay@@MM@Z ; DrawBullseyeCircle
	add	esp, 12					; 0000000cH

; 256  : 	else

	jmp	SHORT $LN1@OffMode
$LN2@OffMode:

; 257  : 		DrawReference(MfdDisplay[OnMFD()]->GetOwnShip());

	mov	ecx, DWORD PTR _this$[ebp]
	call	?OnMFD@DrawableClass@@QAEHXZ		; DrawableClass::OnMFD
	mov	ecx, DWORD PTR ?MfdDisplay@@3PAPAVMFDClass@@A[eax*4]
	call	?GetOwnShip@MFDClass@@QAEPAVAircraftClass@@XZ ; MFDClass::GetOwnShip
	push	eax
	mov	ecx, DWORD PTR _this$[ebp]
	call	?DrawReference@MfdDrawable@@QAEXPAVAircraftClass@@@Z ; MfdDrawable::DrawReference
$LN1@OffMode:

; 258  : 	BottomRow();

	mov	ecx, DWORD PTR _this$[ebp]
	call	?BottomRow@MfdDrawable@@QAEXXZ		; MfdDrawable::BottomRow

; 259  : }

	mov	esp, ebp
	pop	ebp
	ret	4
?OffMode@TgpMfdDrawable@@AAEXPAVVirtualDisplay@@@Z ENDP	; TgpMfdDrawable::OffMode
_TEXT	ENDS
; Function compile flags: /Odtp
; File c:\users\zhitao li\documents\visual studio 2012\projects\freefalcon\sim\displays\tgpmfd.cpp
_TEXT	SEGMENT
tv184 = -56						; size = 4
tv178 = -52						; size = 4
tv171 = -48						; size = 4
tv160 = -44						; size = 4
tv147 = -40						; size = 4
tv141 = -36						; size = 4
tv132 = -32						; size = 4
tv95 = -28						; size = 4
_playerAC$ = -24					; size = 4
tv74 = -20						; size = 4
_laserPod$ = -16					; size = 4
_pFCC$ = -12						; size = 4
_this$ = -8						; size = 4
tv166 = -1						; size = 1
_whichButton$ = 8					; size = 4
_whichMFD$ = 12						; size = 4
?PushButton@TgpMfdDrawable@@EAEXHH@Z PROC		; TgpMfdDrawable::PushButton
; _this$ = ecx

; 187  : {

	push	ebp
	mov	ebp, esp
	sub	esp, 56					; 00000038H
	mov	DWORD PTR _this$[ebp], ecx

; 188  : 	AircraftClass *playerAC = SimDriver.GetPlayerAircraft();

	mov	ecx, OFFSET ?SimDriver@@3VSimulationDriver@@A ; SimDriver
	call	?GetPlayerAircraft@SimulationDriver@@QBEPAVAircraftClass@@XZ ; SimulationDriver::GetPlayerAircraft
	mov	DWORD PTR _playerAC$[ebp], eax

; 189  : 	FireControlComputer* pFCC = playerAC->Sms->Ownship()->GetFCC();

	mov	eax, DWORD PTR _playerAC$[ebp]
	mov	ecx, DWORD PTR [eax+940]
	call	?Ownship@SMSBaseClass@@QAEPAVSimVehicleClass@@XZ ; SMSBaseClass::Ownship
	mov	DWORD PTR tv74[ebp], eax
	mov	ecx, DWORD PTR tv74[ebp]
	mov	edx, DWORD PTR [ecx]
	mov	ecx, DWORD PTR tv74[ebp]
	mov	eax, DWORD PTR [edx+460]
	call	eax
	mov	DWORD PTR _pFCC$[ebp], eax

; 190  : 	LaserPodClass* laserPod = (LaserPodClass* )FindLaserPod (playerAC->Sms->Ownship());

	mov	ecx, DWORD PTR _playerAC$[ebp]
	mov	ecx, DWORD PTR [ecx+940]
	call	?Ownship@SMSBaseClass@@QAEPAVSimVehicleClass@@XZ ; SMSBaseClass::Ownship
	push	eax
	call	?FindLaserPod@@YAPAVSensorClass@@PAVSimMoverClass@@@Z ; FindLaserPod
	add	esp, 4
	mov	DWORD PTR _laserPod$[ebp], eax

; 191  :     switch (whichButton)

	mov	edx, DWORD PTR _whichButton$[ebp]
	mov	DWORD PTR tv95[ebp], edx
	cmp	DWORD PTR tv95[ebp], 19			; 00000013H
	ja	$LN20@PushButton
	mov	eax, DWORD PTR tv95[ebp]
	movzx	ecx, BYTE PTR $LN38@PushButton[eax]
	jmp	DWORD PTR $LN39@PushButton[ecx*4]
$LN17@PushButton:

; 192  :     {
; 193  : 	case 0:
; 194  : 		MenuMode = !MenuMode;

	mov	edx, DWORD PTR _this$[ebp]
	movzx	eax, BYTE PTR [edx+49]
	test	eax, eax
	jne	SHORT $LN22@PushButton
	mov	DWORD PTR tv132[ebp], 1
	jmp	SHORT $LN23@PushButton
$LN22@PushButton:
	mov	DWORD PTR tv132[ebp], 0
$LN23@PushButton:
	mov	ecx, DWORD PTR _this$[ebp]
	mov	dl, BYTE PTR tv132[ebp]
	mov	BYTE PTR [ecx+49], dl

; 195  : 	break;

	jmp	$LN20@PushButton
$LN16@PushButton:

; 196  :     case 2:
; 197  : 		if(laserPod)

	cmp	DWORD PTR _laserPod$[ebp], 0
	je	SHORT $LN15@PushButton

; 198  : 			laserPod->ToggleFOV();

	mov	ecx, DWORD PTR _laserPod$[ebp]
	call	?ToggleFOV@LaserPodClass@@QAEXXZ	; LaserPodClass::ToggleFOV
$LN15@PushButton:

; 199  : 	break;

	jmp	$LN20@PushButton
$LN14@PushButton:

; 200  : 	case 3:
; 201  : 		pFCC->LaserFire = FALSE;

	mov	eax, DWORD PTR _pFCC$[ebp]
	mov	BYTE PTR [eax+423], 0

; 202  : 		pFCC->InhibitFire = !pFCC->InhibitFire;

	mov	ecx, DWORD PTR _pFCC$[ebp]
	movzx	edx, BYTE PTR [ecx+425]
	test	edx, edx
	jne	SHORT $LN24@PushButton
	mov	DWORD PTR tv141[ebp], 1
	jmp	SHORT $LN25@PushButton
$LN24@PushButton:
	mov	DWORD PTR tv141[ebp], 0
$LN25@PushButton:
	mov	eax, DWORD PTR _pFCC$[ebp]
	mov	cl, BYTE PTR tv141[ebp]
	mov	BYTE PTR [eax+425], cl

; 203  : 		StbyMode = !StbyMode;

	mov	edx, DWORD PTR _this$[ebp]
	movzx	eax, BYTE PTR [edx+48]
	test	eax, eax
	jne	SHORT $LN26@PushButton
	mov	DWORD PTR tv147[ebp], 1
	jmp	SHORT $LN27@PushButton
$LN26@PushButton:
	mov	DWORD PTR tv147[ebp], 0
$LN27@PushButton:
	mov	ecx, DWORD PTR _this$[ebp]
	mov	dl, BYTE PTR tv147[ebp]
	mov	BYTE PTR [ecx+48], dl

; 204  : 	break;

	jmp	$LN20@PushButton
$LN13@PushButton:

; 205  :     case 5:
; 206  : 		if(MenuMode)

	mov	eax, DWORD PTR _this$[ebp]
	movzx	ecx, BYTE PTR [eax+49]
	test	ecx, ecx
	je	SHORT $LN12@PushButton

; 207  : 		{
; 208  : 			StbyMode = FALSE;

	mov	edx, DWORD PTR _this$[ebp]
	mov	BYTE PTR [edx+48], 0

; 209  : 			MenuMode = FALSE;

	mov	eax, DWORD PTR _this$[ebp]
	mov	BYTE PTR [eax+49], 0

; 210  : 			pFCC->InhibitFire = FALSE;

	mov	ecx, DWORD PTR _pFCC$[ebp]
	mov	BYTE PTR [ecx+425], 0
	jmp	SHORT $LN11@PushButton
$LN12@PushButton:

; 211  : 		}
; 212  : 		else if(laserPod)

	cmp	DWORD PTR _laserPod$[ebp], 0
	je	SHORT $LN11@PushButton

; 213  : 			laserPod->BHOT = !laserPod->BHOT;

	mov	edx, DWORD PTR _laserPod$[ebp]
	movzx	eax, BYTE PTR [edx+80]
	test	eax, eax
	jne	SHORT $LN28@PushButton
	mov	DWORD PTR tv160[ebp], 1
	jmp	SHORT $LN29@PushButton
$LN28@PushButton:
	mov	DWORD PTR tv160[ebp], 0
$LN29@PushButton:
	mov	ecx, DWORD PTR _laserPod$[ebp]
	mov	dl, BYTE PTR tv160[ebp]
	mov	BYTE PTR [ecx+80], dl
$LN11@PushButton:

; 214  : 	break;

	jmp	$LN20@PushButton
$LN9@PushButton:

; 215  : 	case 7:
; 216  : 		pFCC->preDesignate = !pFCC->preDesignate;

	mov	eax, DWORD PTR _pFCC$[ebp]
	movsx	ecx, BYTE PTR [eax+182]
	test	ecx, ecx
	jne	SHORT $LN30@PushButton
	mov	BYTE PTR tv166[ebp], 1
	jmp	SHORT $LN31@PushButton
$LN30@PushButton:
	mov	BYTE PTR tv166[ebp], 0
$LN31@PushButton:
	mov	edx, DWORD PTR _pFCC$[ebp]
	mov	al, BYTE PTR tv166[ebp]
	mov	BYTE PTR [edx+182], al

; 217  : 		SP = !SP;

	mov	ecx, DWORD PTR _this$[ebp]
	movzx	edx, BYTE PTR [ecx+50]
	test	edx, edx
	jne	SHORT $LN32@PushButton
	mov	DWORD PTR tv171[ebp], 1
	jmp	SHORT $LN33@PushButton
$LN32@PushButton:
	mov	DWORD PTR tv171[ebp], 0
$LN33@PushButton:
	mov	eax, DWORD PTR _this$[ebp]
	mov	cl, BYTE PTR tv171[ebp]
	mov	BYTE PTR [eax+50], cl

; 218  : 	break;

	jmp	$LN20@PushButton
$LN8@PushButton:

; 219  : 	case 8:
; 220  : 		pFCC->RecalcPos();

	mov	ecx, DWORD PTR _pFCC$[ebp]
	call	?RecalcPos@FireControlComputer@@QAEXXZ	; FireControlComputer::RecalcPos

; 221  : 	break;

	jmp	$LN20@PushButton
$LN7@PushButton:

; 222  : 	case 9:
; 223  : 		StbyMode = !StbyMode;

	mov	edx, DWORD PTR _this$[ebp]
	movzx	eax, BYTE PTR [edx+48]
	test	eax, eax
	jne	SHORT $LN34@PushButton
	mov	DWORD PTR tv178[ebp], 1
	jmp	SHORT $LN35@PushButton
$LN34@PushButton:
	mov	DWORD PTR tv178[ebp], 0
$LN35@PushButton:
	mov	ecx, DWORD PTR _this$[ebp]
	mov	dl, BYTE PTR tv178[ebp]
	mov	BYTE PTR [ecx+48], dl

; 224  : 		//pFCC->InhibitFire = !pFCC->InhibitFire;
; 225  : 		MenuMode = !MenuMode;

	mov	eax, DWORD PTR _this$[ebp]
	movzx	ecx, BYTE PTR [eax+49]
	test	ecx, ecx
	jne	SHORT $LN36@PushButton
	mov	DWORD PTR tv184[ebp], 1
	jmp	SHORT $LN37@PushButton
$LN36@PushButton:
	mov	DWORD PTR tv184[ebp], 0
$LN37@PushButton:
	mov	edx, DWORD PTR _this$[ebp]
	mov	al, BYTE PTR tv184[ebp]
	mov	BYTE PTR [edx+49], al

; 226  : 	break;

	jmp	SHORT $LN20@PushButton
$LN6@PushButton:

; 227  : 	case 19:
; 228  : 		if ((g_bGreyMFD) || (!g_bGreyScaleMFD))

	movzx	ecx, BYTE PTR ?g_bGreyMFD@@3_NA		; g_bGreyMFD
	test	ecx, ecx
	jne	SHORT $LN4@PushButton
	movzx	edx, BYTE PTR ?g_bGreyScaleMFD@@3_NA	; g_bGreyScaleMFD
	test	edx, edx
	jne	SHORT $LN5@PushButton
$LN4@PushButton:

; 229  : 			g_bGreyMFD = false;

	mov	BYTE PTR ?g_bGreyMFD@@3_NA, 0		; g_bGreyMFD

; 230  : 		else

	jmp	SHORT $LN3@PushButton
$LN5@PushButton:

; 231  : 			g_bGreyMFD = true;

	mov	BYTE PTR ?g_bGreyMFD@@3_NA, 1		; g_bGreyMFD
$LN3@PushButton:

; 232  : 	break;

	jmp	SHORT $LN20@PushButton
$LN2@PushButton:

; 233  : 	case 10:
; 234  :     case 11:	
; 235  :     case 12:	
; 236  :     case 13:
; 237  : 	case 14:
; 238  : 		MfdDrawable::PushButton(whichButton, whichMFD);

	mov	eax, DWORD PTR _whichMFD$[ebp]
	push	eax
	mov	ecx, DWORD PTR _whichButton$[ebp]
	push	ecx
	mov	ecx, DWORD PTR _this$[ebp]
	call	?PushButton@MfdDrawable@@UAEXHH@Z	; MfdDrawable::PushButton
$LN20@PushButton:

; 239  : 	break;
; 240  : 	default:
; 241  : 	break;
; 242  : 	}
; 243  : }

	mov	esp, ebp
	pop	ebp
	ret	8
$LN39@PushButton:
	DD	$LN17@PushButton
	DD	$LN16@PushButton
	DD	$LN14@PushButton
	DD	$LN13@PushButton
	DD	$LN9@PushButton
	DD	$LN8@PushButton
	DD	$LN7@PushButton
	DD	$LN2@PushButton
	DD	$LN6@PushButton
	DD	$LN20@PushButton
$LN38@PushButton:
	DB	0
	DB	9
	DB	1
	DB	2
	DB	9
	DB	3
	DB	9
	DB	4
	DB	5
	DB	6
	DB	7
	DB	7
	DB	7
	DB	7
	DB	7
	DB	9
	DB	9
	DB	9
	DB	9
	DB	8
?PushButton@TgpMfdDrawable@@EAEXHH@Z ENDP		; TgpMfdDrawable::PushButton
_TEXT	ENDS
; Function compile flags: /Odtp
; File c:\users\zhitao li\documents\visual studio 2012\projects\freefalcon\sim\displays\tgpmfd.cpp
_TEXT	SEGMENT
_playerAC$ = -12					; size = 4
_this$ = -8						; size = 4
_laserPod$ = -4						; size = 4
?GetDisplay@TgpMfdDrawable@@UAEPAVVirtualDisplay@@XZ PROC ; TgpMfdDrawable::GetDisplay
; _this$ = ecx

; 261  : {

	push	ebp
	mov	ebp, esp
	sub	esp, 12					; 0000000cH
	mov	DWORD PTR _this$[ebp], ecx

; 262  : 	AircraftClass *playerAC = SimDriver.GetPlayerAircraft();

	mov	ecx, OFFSET ?SimDriver@@3VSimulationDriver@@A ; SimDriver
	call	?GetPlayerAircraft@SimulationDriver@@QBEPAVAircraftClass@@XZ ; SimulationDriver::GetPlayerAircraft
	mov	DWORD PTR _playerAC$[ebp], eax

; 263  : 	if(!playerAC || !playerAC->Sms)

	cmp	DWORD PTR _playerAC$[ebp], 0
	je	SHORT $LN5@GetDisplay
	mov	eax, DWORD PTR _playerAC$[ebp]
	cmp	DWORD PTR [eax+940], 0
	jne	SHORT $LN6@GetDisplay
$LN5@GetDisplay:

; 264  : 		return privateDisplay;

	mov	ecx, DWORD PTR _this$[ebp]
	mov	eax, DWORD PTR [ecx+24]
	jmp	$LN7@GetDisplay
$LN6@GetDisplay:

; 265  : 
; 266  : 	SensorClass* laserPod = FindLaserPod (playerAC->Sms->Ownship());

	mov	edx, DWORD PTR _playerAC$[ebp]
	mov	ecx, DWORD PTR [edx+940]
	call	?Ownship@SMSBaseClass@@QAEPAVSimVehicleClass@@XZ ; SMSBaseClass::Ownship
	push	eax
	call	?FindLaserPod@@YAPAVSensorClass@@PAVSimMoverClass@@@Z ; FindLaserPod
	add	esp, 4
	mov	DWORD PTR _laserPod$[ebp], eax

; 267  : 			
; 268  : 	if(laserPod)

	cmp	DWORD PTR _laserPod$[ebp], 0
	je	SHORT $LN4@GetDisplay

; 269  : 	{
; 270  : 		if (!laserPod->GetDisplay())

	mov	eax, DWORD PTR _laserPod$[ebp]
	mov	edx, DWORD PTR [eax]
	mov	ecx, DWORD PTR _laserPod$[ebp]
	mov	eax, DWORD PTR [edx+16]
	call	eax
	test	eax, eax
	jne	SHORT $LN3@GetDisplay

; 271  : 		{
; 272  : 			if (privateDisplay)

	mov	ecx, DWORD PTR _this$[ebp]
	cmp	DWORD PTR [ecx+24], 0
	je	SHORT $LN2@GetDisplay

; 273  : 			{
; 274  : 				laserPod->DisplayInit(((Render2D*)(privateDisplay))->GetImageBuffer());

	mov	edx, DWORD PTR _this$[ebp]
	mov	ecx, DWORD PTR [edx+24]
	call	?GetImageBuffer@Render2D@@QAEPAVImageBuffer@@XZ ; Render2D::GetImageBuffer
	push	eax
	mov	eax, DWORD PTR _laserPod$[ebp]
	mov	edx, DWORD PTR [eax]
	mov	ecx, DWORD PTR _laserPod$[ebp]
	mov	eax, DWORD PTR [edx+8]
	call	eax

; 275  : 
; 276  : 				if ((g_bGreyMFD) && (!bNVGmode))

	movzx	ecx, BYTE PTR ?g_bGreyMFD@@3_NA		; g_bGreyMFD
	test	ecx, ecx
	je	SHORT $LN2@GetDisplay
	movzx	edx, BYTE PTR ?bNVGmode@@3_NA		; bNVGmode
	test	edx, edx
	jne	SHORT $LN2@GetDisplay

; 277  : 					privateDisplay->SetColor (0xff000000);

	push	-16777216				; ff000000H
	mov	eax, DWORD PTR _this$[ebp]
	mov	ecx, DWORD PTR [eax+24]
	mov	edx, DWORD PTR _this$[ebp]
	mov	eax, DWORD PTR [ecx]
	mov	ecx, DWORD PTR [edx+24]
	mov	edx, DWORD PTR [eax+92]
	call	edx
$LN2@GetDisplay:

; 278  : 			}
; 279  : 			laserPod->viewPoint = viewPoint;

	mov	eax, DWORD PTR _laserPod$[ebp]
	mov	ecx, DWORD PTR _this$[ebp]
	mov	edx, DWORD PTR [ecx+16]
	mov	DWORD PTR [eax+16], edx
$LN3@GetDisplay:

; 280  : 		}
; 281  : 		return laserPod->GetDisplay();

	mov	eax, DWORD PTR _laserPod$[ebp]
	mov	edx, DWORD PTR [eax]
	mov	ecx, DWORD PTR _laserPod$[ebp]
	mov	eax, DWORD PTR [edx+16]
	call	eax
	jmp	SHORT $LN7@GetDisplay
$LN4@GetDisplay:

; 282  : 	}
; 283  : 
; 284  : 	return privateDisplay;

	mov	ecx, DWORD PTR _this$[ebp]
	mov	eax, DWORD PTR [ecx+24]
$LN7@GetDisplay:

; 285  : }

	mov	esp, ebp
	pop	ebp
	ret	0
?GetDisplay@TgpMfdDrawable@@UAEPAVVirtualDisplay@@XZ ENDP ; TgpMfdDrawable::GetDisplay
_TEXT	ENDS
; Function compile flags: /Odtp
; File c:\users\zhitao li\documents\visual studio 2012\projects\freefalcon\sim\displays\tgpmfd.cpp
_TEXT	SEGMENT
tv637 = -44						; size = 4
tv632 = -40						; size = 4
tv628 = -36						; size = 4
_cX$ = -32						; size = 4
_cY$ = -28						; size = 4
tv160 = -24						; size = 4
_i$1 = -20						; size = 4
_i$2 = -16						; size = 4
_i$3 = -12						; size = 4
_playerAC$ = -8						; size = 4
_this$ = -4						; size = 4
_newDisplay$ = 8					; size = 4
?Display@TgpMfdDrawable@@UAEXPAVVirtualDisplay@@@Z PROC	; TgpMfdDrawable::Display
; _this$ = ecx

; 54   : {

	push	ebp
	mov	ebp, esp
	sub	esp, 44					; 0000002cH
	mov	DWORD PTR _this$[ebp], ecx

; 55   : 	AircraftClass *playerAC = SimDriver.GetPlayerAircraft();

	mov	ecx, OFFSET ?SimDriver@@3VSimulationDriver@@A ; SimDriver
	call	?GetPlayerAircraft@SimulationDriver@@QBEPAVAircraftClass@@XZ ; SimulationDriver::GetPlayerAircraft
	mov	DWORD PTR _playerAC$[ebp], eax

; 56   : 	float cX, cY = 0;

	movss	xmm0, DWORD PTR __real@00000000
	movss	DWORD PTR _cY$[ebp], xmm0

; 57   : 	sprintf(Str, "");

	push	OFFSET ??_C@_00CNPNBAHC@?$AA@
	mov	eax, DWORD PTR _this$[ebp]
	add	eax, 51					; 00000033H
	push	eax
	call	_sprintf
	add	esp, 8

; 58   : 	if(!g_bRealisticAvionics) 

	movzx	ecx, BYTE PTR ?g_bRealisticAvionics@@3_NA ; g_bRealisticAvionics
	test	ecx, ecx
	jne	SHORT $LN33@Display

; 59   : 	{
; 60   : 		display = privateDisplay;

	mov	edx, DWORD PTR _this$[ebp]
	mov	eax, DWORD PTR _this$[ebp]
	mov	ecx, DWORD PTR [eax+24]
	mov	DWORD PTR [edx+20], ecx

; 61   : 		OffMode(display);

	mov	edx, DWORD PTR _this$[ebp]
	mov	eax, DWORD PTR [edx+20]
	push	eax
	mov	ecx, DWORD PTR _this$[ebp]
	call	?OffMode@TgpMfdDrawable@@AAEXPAVVirtualDisplay@@@Z ; TgpMfdDrawable::OffMode

; 62   : 		return;

	jmp	$LN34@Display
$LN33@Display:

; 63   :     }
; 64   : 	self = ((AircraftClass*)playerAC);

	mov	ecx, DWORD PTR _this$[ebp]
	mov	edx, DWORD PTR _playerAC$[ebp]
	mov	DWORD PTR [ecx+28], edx

; 65   : 	theRadar = (RadarDopplerClass*)FindSensor(playerAC, SensorClass::Radar);

	push	1
	mov	eax, DWORD PTR _playerAC$[ebp]
	push	eax
	call	?FindSensor@@YAPAVSensorClass@@PAVSimMoverClass@@H@Z ; FindSensor
	add	esp, 8
	mov	ecx, DWORD PTR _this$[ebp]
	mov	DWORD PTR [ecx+44], eax

; 66   : 	laserPod = (LaserPodClass*)FindLaserPod (playerAC->Sms->Ownship());

	mov	edx, DWORD PTR _playerAC$[ebp]
	mov	ecx, DWORD PTR [edx+940]
	call	?Ownship@SMSBaseClass@@QAEPAVSimVehicleClass@@XZ ; SMSBaseClass::Ownship
	push	eax
	call	?FindLaserPod@@YAPAVSensorClass@@PAVSimMoverClass@@@Z ; FindLaserPod
	add	esp, 4
	mov	ecx, DWORD PTR _this$[ebp]
	mov	DWORD PTR [ecx+32], eax

; 67   : 	pFCC = playerAC->Sms->Ownship()->GetFCC();

	mov	edx, DWORD PTR _playerAC$[ebp]
	mov	ecx, DWORD PTR [edx+940]
	call	?Ownship@SMSBaseClass@@QAEPAVSimVehicleClass@@XZ ; SMSBaseClass::Ownship
	mov	DWORD PTR tv160[ebp], eax
	mov	eax, DWORD PTR tv160[ebp]
	mov	edx, DWORD PTR [eax]
	mov	ecx, DWORD PTR tv160[ebp]
	mov	eax, DWORD PTR [edx+460]
	call	eax
	mov	ecx, DWORD PTR _this$[ebp]
	mov	DWORD PTR [ecx+36], eax

; 68   : 	Sms = playerAC->Sms;

	mov	edx, DWORD PTR _this$[ebp]
	mov	eax, DWORD PTR _playerAC$[ebp]
	mov	ecx, DWORD PTR [eax+940]
	mov	DWORD PTR [edx+40], ecx

; 69   : 	display = newDisplay;

	mov	edx, DWORD PTR _this$[ebp]
	mov	eax, DWORD PTR _newDisplay$[ebp]
	mov	DWORD PTR [edx+20], eax

; 70   : 	if(!theRadar || !pFCC || !self || !Sms)

	mov	ecx, DWORD PTR _this$[ebp]
	cmp	DWORD PTR [ecx+44], 0
	je	SHORT $LN31@Display
	mov	edx, DWORD PTR _this$[ebp]
	cmp	DWORD PTR [edx+36], 0
	je	SHORT $LN31@Display
	mov	eax, DWORD PTR _this$[ebp]
	cmp	DWORD PTR [eax+28], 0
	je	SHORT $LN31@Display
	mov	ecx, DWORD PTR _this$[ebp]
	cmp	DWORD PTR [ecx+40], 0
	jne	SHORT $LN32@Display
$LN31@Display:

; 71   : 	{
; 72   : 		ShiWarning("Oh Oh shouldn't be here without a radar or FCC or player or SMS!");
; 73   : 		return;

	jmp	$LN34@Display
	jmp	SHORT $LN27@Display
$LN32@Display:

; 74   : 	}
; 75   : 	else if(!laserPod)

	mov	edx, DWORD PTR _this$[ebp]
	cmp	DWORD PTR [edx+32], 0
	jne	SHORT $LN29@Display

; 76   : 	{
; 77   : 		//display = privateDisplay;			//Wombat778 3-24-04  CTD Fix in virtual cockpit.
; 78   : 		OffMode(display);

	mov	eax, DWORD PTR _this$[ebp]
	mov	ecx, DWORD PTR [eax+20]
	push	ecx
	mov	ecx, DWORD PTR _this$[ebp]
	call	?OffMode@TgpMfdDrawable@@AAEXPAVVirtualDisplay@@@Z ; TgpMfdDrawable::OffMode

; 79   : 		return;

	jmp	$LN34@Display
	jmp	SHORT $LN27@Display
$LN29@Display:

; 80   : 	}
; 81   : 	else if(!self->HasPower(AircraftClass::RightHptPower))

	push	256					; 00000100H
	mov	edx, DWORD PTR _this$[ebp]
	mov	ecx, DWORD PTR [edx+28]
	call	?HasPower@AircraftClass@@QAEHW4AvionicsPowerFlags@1@@Z ; AircraftClass::HasPower
	test	eax, eax
	jne	SHORT $LN27@Display

; 82   : 	{
; 83   : 		OffMode(display);

	mov	eax, DWORD PTR _this$[ebp]
	mov	ecx, DWORD PTR [eax+20]
	push	ecx
	mov	ecx, DWORD PTR _this$[ebp]
	call	?OffMode@TgpMfdDrawable@@AAEXPAVVirtualDisplay@@@Z ; TgpMfdDrawable::OffMode

; 84   : 		BottomRow();

	mov	ecx, DWORD PTR _this$[ebp]
	call	?BottomRow@MfdDrawable@@QAEXXZ		; MfdDrawable::BottomRow

; 85   : 		StbyMode = TRUE;

	mov	edx, DWORD PTR _this$[ebp]
	mov	BYTE PTR [edx+48], 1

; 86   : 		return;

	jmp	$LN34@Display
$LN27@Display:

; 87   : 	}
; 88   : 		
; 89   : 	flash = (vuxRealTime & 0x200);

	mov	eax, DWORD PTR ?vuxRealTime@@3KA	; vuxRealTime
	and	eax, 512				; 00000200H
	mov	DWORD PTR ?flash@TgpMfdDrawable@@0HA, eax ; TgpMfdDrawable::flash

; 90   : 	
; 91   : 	//Check if we're in standby
; 92   : 	if(self->PodCooling > 0.0F)	//always stby

	mov	ecx, DWORD PTR _this$[ebp]
	mov	edx, DWORD PTR [ecx+28]
	movss	xmm0, DWORD PTR [edx+888]
	comiss	xmm0, DWORD PTR __real@00000000
	jbe	SHORT $LN26@Display

; 93   : 		pFCC->InhibitFire = TRUE;

	mov	eax, DWORD PTR _this$[ebp]
	mov	ecx, DWORD PTR [eax+36]
	mov	BYTE PTR [ecx+425], 1
$LN26@Display:

; 94   : 
; 95   : 	if(pFCC->InhibitFire)

	mov	edx, DWORD PTR _this$[ebp]
	mov	eax, DWORD PTR [edx+36]
	movzx	ecx, BYTE PTR [eax+425]
	test	ecx, ecx
	je	SHORT $LN25@Display

; 96   : 		StbyMode = TRUE;

	mov	edx, DWORD PTR _this$[ebp]
	mov	BYTE PTR [edx+48], 1
$LN25@Display:

; 97   : 
; 98   : 	if(SP)

	mov	eax, DWORD PTR _this$[ebp]
	movzx	ecx, BYTE PTR [eax+50]
	test	ecx, ecx
	je	SHORT $LN24@Display

; 99   : 		pFCC->preDesignate = FALSE;

	mov	edx, DWORD PTR _this$[ebp]
	mov	eax, DWORD PTR [edx+36]
	mov	BYTE PTR [eax+182], 0
$LN24@Display:

; 100  : 
; 101  : 	laserPod->MenuMode = MenuMode;

	mov	ecx, DWORD PTR _this$[ebp]
	mov	edx, DWORD PTR [ecx+32]
	mov	eax, DWORD PTR _this$[ebp]
	mov	cl, BYTE PTR [eax+49]
	mov	BYTE PTR [edx+81], cl

; 102  : 
; 103  : 	//pod image
; 104  : 	if(laserPod && self->PodCooling <= 0.0F)

	mov	edx, DWORD PTR _this$[ebp]
	cmp	DWORD PTR [edx+32], 0
	je	SHORT $LN23@Display
	mov	eax, DWORD PTR _this$[ebp]
	mov	ecx, DWORD PTR [eax+28]
	movss	xmm0, DWORD PTR __real@00000000
	comiss	xmm0, DWORD PTR [ecx+888]
	jb	SHORT $LN23@Display

; 105  : 	{
; 106  : 		laserPod->SetIntensity(GetIntensity());

	mov	ecx, DWORD PTR _this$[ebp]
	call	?GetIntensity@DrawableClass@@QAEIXZ	; DrawableClass::GetIntensity
	push	eax
	mov	edx, DWORD PTR _this$[ebp]
	mov	ecx, DWORD PTR [edx+32]
	call	?SetIntensity@DrawableClass@@QAEXI@Z	; DrawableClass::SetIntensity

; 107  : 		laserPod->Display(display);

	mov	eax, DWORD PTR _this$[ebp]
	mov	ecx, DWORD PTR [eax+20]
	push	ecx
	mov	edx, DWORD PTR _this$[ebp]
	mov	eax, DWORD PTR [edx+32]
	mov	ecx, DWORD PTR _this$[ebp]
	mov	edx, DWORD PTR [eax]
	mov	ecx, DWORD PTR [ecx+32]
	mov	eax, DWORD PTR [edx+4]
	call	eax
	jmp	SHORT $LN21@Display
$LN23@Display:

; 108  : 	}
; 109  : 	else if(self->PodCooling > 0.0F)

	mov	ecx, DWORD PTR _this$[ebp]
	mov	edx, DWORD PTR [ecx+28]
	movss	xmm0, DWORD PTR [edx+888]
	comiss	xmm0, DWORD PTR __real@00000000
	jbe	SHORT $LN21@Display

; 110  : 	{
; 111  : 		CoolingDisplay(display);

	mov	eax, DWORD PTR _this$[ebp]
	mov	ecx, DWORD PTR [eax+20]
	push	ecx
	mov	ecx, DWORD PTR _this$[ebp]
	call	?CoolingDisplay@TgpMfdDrawable@@AAEXPAVVirtualDisplay@@@Z ; TgpMfdDrawable::CoolingDisplay

; 112  : 		OSBLabels(display);

	mov	edx, DWORD PTR _this$[ebp]
	mov	eax, DWORD PTR [edx+20]
	push	eax
	mov	ecx, DWORD PTR _this$[ebp]
	call	?OSBLabels@TgpMfdDrawable@@AAEXPAVVirtualDisplay@@@Z ; TgpMfdDrawable::OSBLabels

; 113  : 		BottomRow();

	mov	ecx, DWORD PTR _this$[ebp]
	call	?BottomRow@MfdDrawable@@QAEXXZ		; MfdDrawable::BottomRow

; 114  : 		return;

	jmp	$LN34@Display
$LN21@Display:

; 115  : 	}
; 116  : 
; 117  : 	// FRB - B&W display
; 118  : 	if ((g_bGreyMFD) && (!bNVGmode))

	movzx	ecx, BYTE PTR ?g_bGreyMFD@@3_NA		; g_bGreyMFD
	test	ecx, ecx
	je	SHORT $LN20@Display
	movzx	edx, BYTE PTR ?bNVGmode@@3_NA		; bNVGmode
	test	edx, edx
	jne	SHORT $LN20@Display

; 119  : 		display->SetColor(GetMfdColor(MFD_WHITE));

	push	1
	mov	ecx, DWORD PTR _this$[ebp]
	call	?GetMfdColor@DrawableClass@@QAEIW4MfdColor@@@Z ; DrawableClass::GetMfdColor
	push	eax
	mov	eax, DWORD PTR _this$[ebp]
	mov	ecx, DWORD PTR [eax+20]
	mov	edx, DWORD PTR _this$[ebp]
	mov	eax, DWORD PTR [ecx]
	mov	ecx, DWORD PTR [edx+20]
	mov	edx, DWORD PTR [eax+92]
	call	edx

; 120  : 	else

	jmp	SHORT $LN19@Display
$LN20@Display:

; 121  : 		display->SetColor (0xff00ff00);

	push	-16711936				; ff00ff00H
	mov	eax, DWORD PTR _this$[ebp]
	mov	ecx, DWORD PTR [eax+20]
	mov	edx, DWORD PTR _this$[ebp]
	mov	eax, DWORD PTR [ecx]
	mov	ecx, DWORD PTR [edx+20]
	mov	edx, DWORD PTR [eax+92]
	call	edx
$LN19@Display:

; 122  : 
; 123  : 	// OSB Button Labels	
; 124  : 	OSBLabels(display);

	mov	eax, DWORD PTR _this$[ebp]
	mov	ecx, DWORD PTR [eax+20]
	push	ecx
	mov	ecx, DWORD PTR _this$[ebp]
	call	?OSBLabels@TgpMfdDrawable@@AAEXPAVVirtualDisplay@@@Z ; TgpMfdDrawable::OSBLabels

; 125  : 	
; 126  : 	//Bottom Row
; 127  : 	BottomRow();

	mov	ecx, DWORD PTR _this$[ebp]
	call	?BottomRow@MfdDrawable@@QAEXXZ		; MfdDrawable::BottomRow

; 128  : 
; 129  : 	//Master Arm
; 130  : 	DrawMasterArm(display);

	mov	edx, DWORD PTR _this$[ebp]
	mov	eax, DWORD PTR [edx+20]
	push	eax
	mov	ecx, DWORD PTR _this$[ebp]
	call	?DrawMasterArm@TgpMfdDrawable@@AAEXPAVVirtualDisplay@@@Z ; TgpMfdDrawable::DrawMasterArm

; 131  : 
; 132  : 	//Ralt/Laser/Impact time/weapons indication
; 133  : 	if(!MenuMode)

	mov	ecx, DWORD PTR _this$[ebp]
	movzx	edx, BYTE PTR [ecx+49]
	test	edx, edx
	jne	SHORT $LN18@Display

; 134  : 	{
; 135  : 		DrawRALT(display);

	mov	eax, DWORD PTR _this$[ebp]
	mov	ecx, DWORD PTR [eax+20]
	push	ecx
	mov	ecx, DWORD PTR _this$[ebp]
	call	?DrawRALT@TgpMfdDrawable@@AAEXPAVVirtualDisplay@@@Z ; TgpMfdDrawable::DrawRALT

; 136  : 		LaserIndicator(display);

	mov	edx, DWORD PTR _this$[ebp]
	mov	eax, DWORD PTR [edx+20]
	push	eax
	mov	ecx, DWORD PTR _this$[ebp]
	call	?LaserIndicator@TgpMfdDrawable@@AAEXPAVVirtualDisplay@@@Z ; TgpMfdDrawable::LaserIndicator

; 137  : 		ImpactTime(display);

	mov	ecx, DWORD PTR _this$[ebp]
	mov	edx, DWORD PTR [ecx+20]
	push	edx
	mov	ecx, DWORD PTR _this$[ebp]
	call	?ImpactTime@TgpMfdDrawable@@AAEXPAVVirtualDisplay@@@Z ; TgpMfdDrawable::ImpactTime

; 138  : 		DrawHDPT(display, Sms);

	mov	eax, DWORD PTR _this$[ebp]
	mov	ecx, DWORD PTR [eax+40]
	push	ecx
	mov	edx, DWORD PTR _this$[ebp]
	mov	eax, DWORD PTR [edx+20]
	push	eax
	mov	ecx, DWORD PTR _this$[ebp]
	call	?DrawHDPT@TgpMfdDrawable@@AAEXPAVVirtualDisplay@@PAVSMSClass@@@Z ; TgpMfdDrawable::DrawHDPT
$LN18@Display:

; 139  : 	}
; 140  : 
; 141  : 	theRadar->GetCursorPosition (&cX, &cY);

	lea	ecx, DWORD PTR _cY$[ebp]
	push	ecx
	lea	edx, DWORD PTR _cX$[ebp]
	push	edx
	mov	eax, DWORD PTR _this$[ebp]
	mov	ecx, DWORD PTR [eax+44]
	mov	edx, DWORD PTR _this$[ebp]
	mov	eax, DWORD PTR [ecx]
	mov	ecx, DWORD PTR [edx+44]
	mov	edx, DWORD PTR [eax+204]
	call	edx

; 142  : 	if(OTWDriver.pCockpitManager && OTWDriver.pCockpitManager->mpIcp &&
; 143  : 		OTWDriver.pCockpitManager->mpIcp->ShowBullseyeInfo)

	cmp	DWORD PTR ?OTWDriver@@3VOTWDriverClass@@A+33684, 0
	je	SHORT $LN17@Display
	mov	eax, DWORD PTR ?OTWDriver@@3VOTWDriverClass@@A+33684
	cmp	DWORD PTR [eax+688], 0
	je	SHORT $LN17@Display
	mov	ecx, DWORD PTR ?OTWDriver@@3VOTWDriverClass@@A+33684
	mov	edx, DWORD PTR [ecx+688]
	movzx	eax, BYTE PTR [edx+300]
	test	eax, eax
	je	SHORT $LN17@Display

; 144  : 		DrawBullseyeCircle(display, cX, cY);

	push	ecx
	movss	xmm0, DWORD PTR _cY$[ebp]
	movss	DWORD PTR [esp], xmm0
	push	ecx
	movss	xmm0, DWORD PTR _cX$[ebp]
	movss	DWORD PTR [esp], xmm0
	mov	ecx, DWORD PTR _this$[ebp]
	mov	edx, DWORD PTR [ecx+20]
	push	edx
	call	?DrawBullseyeCircle@@YAXPAVVirtualDisplay@@MM@Z ; DrawBullseyeCircle
	add	esp, 12					; 0000000cH

; 145  : 	else

	jmp	SHORT $LN16@Display
$LN17@Display:

; 146  : 		DrawReference(MfdDisplay[OnMFD()]->GetOwnShip());		

	mov	ecx, DWORD PTR _this$[ebp]
	call	?OnMFD@DrawableClass@@QAEHXZ		; DrawableClass::OnMFD
	mov	ecx, DWORD PTR ?MfdDisplay@@3PAPAVMFDClass@@A[eax*4]
	call	?GetOwnShip@MFDClass@@QAEPAVAircraftClass@@XZ ; MFDClass::GetOwnShip
	push	eax
	mov	ecx, DWORD PTR _this$[ebp]
	call	?DrawReference@MfdDrawable@@QAEXPAVAircraftClass@@@Z ; MfdDrawable::DrawReference
$LN16@Display:

; 147  : 
; 148  : 	//Laser Ranging
; 149  : 	DrawRange(display);

	mov	eax, DWORD PTR _this$[ebp]
	mov	ecx, DWORD PTR [eax+20]
	push	ecx
	mov	ecx, DWORD PTR _this$[ebp]
	call	?DrawRange@TgpMfdDrawable@@AAEXPAVVirtualDisplay@@@Z ; TgpMfdDrawable::DrawRange

; 150  : 
; 151  : 	//Booster 18/09/2004 - Draw Pull Up cross on MFD-SMS if ground Collision
; 152  :    	if (playerAC->mFaults->GetFault(alt_low))

	push	2
	mov	edx, DWORD PTR _playerAC$[ebp]
	mov	ecx, DWORD PTR [edx+928]
	call	?GetFault@FackClass@@QAEHW4type_CSubSystem@@@Z ; FackClass::GetFault
	test	eax, eax
	je	SHORT $LN15@Display

; 153  : 		DrawRedBreak(display);

	mov	eax, DWORD PTR _this$[ebp]
	mov	ecx, DWORD PTR [eax+20]
	push	ecx
	mov	ecx, DWORD PTR _this$[ebp]
	call	?DrawRedBreak@MfdDrawable@@QAEXPAVVirtualDisplay@@@Z ; MfdDrawable::DrawRedBreak
$LN15@Display:

; 154  : 
; 155  : 	// RV - I-Hawk - if in TGP mode (should be only in AG mode) and pitch < -20 degrees or
; 156  : 	// Roll > 75 degrees and pitch < 0 degrees, show attiutde warning
; 157  : 	if ( playerAC && ((fabs(playerAC->Roll()) > 75.0f*DTR && playerAC->Pitch() < 0.0f) ||
; 158  : 							  ( playerAC->Pitch() < -20.0f*DTR)) )

	cmp	DWORD PTR _playerAC$[ebp], 0
	je	$LN14@Display
	mov	ecx, DWORD PTR _playerAC$[ebp]
	call	?Roll@VuEntity@@QBEMXZ			; VuEntity::Roll
	push	ecx
	fstp	DWORD PTR [esp]
	call	?fabs@@YAMM@Z				; fabs
	add	esp, 4
	fstp	DWORD PTR tv628[ebp]
	movss	xmm0, DWORD PTR tv628[ebp]
	comiss	xmm0, DWORD PTR __real@3fa78d35
	jbe	SHORT $LN12@Display
	mov	ecx, DWORD PTR _playerAC$[ebp]
	call	?Pitch@VuEntity@@QBEMXZ			; VuEntity::Pitch
	fstp	DWORD PTR tv632[ebp]
	movss	xmm0, DWORD PTR __real@00000000
	comiss	xmm0, DWORD PTR tv632[ebp]
	ja	SHORT $LN13@Display
$LN12@Display:
	mov	ecx, DWORD PTR _playerAC$[ebp]
	call	?Pitch@VuEntity@@QBEMXZ			; VuEntity::Pitch
	fstp	DWORD PTR tv637[ebp]
	movss	xmm0, DWORD PTR __real@beb2b8c1
	comiss	xmm0, DWORD PTR tv637[ebp]
	jbe	SHORT $LN14@Display
$LN13@Display:

; 159  : 	{
; 160  : 		for ( int i = 0; i < 4; i++ )

	mov	DWORD PTR _i$2[ebp], 0
	jmp	SHORT $LN11@Display
$LN10@Display:
	mov	edx, DWORD PTR _i$2[ebp]
	add	edx, 1
	mov	DWORD PTR _i$2[ebp], edx
$LN11@Display:
	cmp	DWORD PTR _i$2[ebp], 4
	jge	SHORT $LN9@Display

; 161  : 		{
; 162  : 			(MfdDisplay[i])->SetTGPWarning(true); // Assign to all

	push	1
	mov	eax, DWORD PTR _i$2[ebp]
	mov	ecx, DWORD PTR ?MfdDisplay@@3PAPAVMFDClass@@A[eax*4]
	call	?SetTGPWarning@MFDClass@@QAEXH@Z	; MFDClass::SetTGPWarning

; 163  : 		}

	jmp	SHORT $LN10@Display
$LN9@Display:

; 164  : 	}
; 165  : 
; 166  : 	else

	jmp	SHORT $LN5@Display
$LN14@Display:

; 167  : 	{
; 168  : 		for ( int i = 0; i < 4; i++ )

	mov	DWORD PTR _i$1[ebp], 0
	jmp	SHORT $LN7@Display
$LN6@Display:
	mov	ecx, DWORD PTR _i$1[ebp]
	add	ecx, 1
	mov	DWORD PTR _i$1[ebp], ecx
$LN7@Display:
	cmp	DWORD PTR _i$1[ebp], 4
	jge	SHORT $LN5@Display

; 169  : 		{
; 170  : 			(MfdDisplay[i])->SetTGPWarning(false); // Remove from all

	push	0
	mov	edx, DWORD PTR _i$1[ebp]
	mov	ecx, DWORD PTR ?MfdDisplay@@3PAPAVMFDClass@@A[edx*4]
	call	?SetTGPWarning@MFDClass@@QAEXH@Z	; MFDClass::SetTGPWarning

; 171  : 		}

	jmp	SHORT $LN6@Display
$LN5@Display:

; 172  : 	}
; 173  : 	
; 174  : 	// Check, if 1 of the MFDs is showing TGP and the attitude warning is set, show it... 
; 175  : 	// (works on all MFDs and not only here)
; 176  : 	for ( int i = 0; i < 4; i++ )

	mov	DWORD PTR _i$3[ebp], 0
	jmp	SHORT $LN4@Display
$LN3@Display:
	mov	eax, DWORD PTR _i$3[ebp]
	add	eax, 1
	mov	DWORD PTR _i$3[ebp], eax
$LN4@Display:
	cmp	DWORD PTR _i$3[ebp], 4
	jge	SHORT $LN2@Display

; 177  : 	{
; 178  : 		if ( (MfdDisplay[i])->GetTGPWarning() && (MfdDisplay[i])->CurMode() == MFDClass::TGPMode )

	mov	ecx, DWORD PTR _i$3[ebp]
	mov	ecx, DWORD PTR ?MfdDisplay@@3PAPAVMFDClass@@A[ecx*4]
	call	?GetTGPWarning@MFDClass@@QAEHXZ		; MFDClass::GetTGPWarning
	test	eax, eax
	je	SHORT $LN1@Display
	mov	edx, DWORD PTR _i$3[ebp]
	mov	ecx, DWORD PTR ?MfdDisplay@@3PAPAVMFDClass@@A[edx*4]
	call	?CurMode@MFDClass@@QAE?AW4MfdMode@1@XZ	; MFDClass::CurMode
	cmp	eax, 8
	jne	SHORT $LN1@Display

; 179  : 			{ 
; 180  : 				TGPAttitudeWarning(display);

	mov	eax, DWORD PTR _this$[ebp]
	mov	ecx, DWORD PTR [eax+20]
	push	ecx
	mov	ecx, DWORD PTR _this$[ebp]
	call	?TGPAttitudeWarning@MfdDrawable@@QAEXPAVVirtualDisplay@@@Z ; MfdDrawable::TGPAttitudeWarning

; 181  : 				break;

	jmp	SHORT $LN2@Display
$LN1@Display:

; 182  : 			}
; 183  : 	}

	jmp	SHORT $LN3@Display
$LN2@Display:
$LN34@Display:

; 184  : }

	mov	esp, ebp
	pop	ebp
	ret	4
?Display@TgpMfdDrawable@@UAEXPAVVirtualDisplay@@@Z ENDP	; TgpMfdDrawable::Display
_TEXT	ENDS
; Function compile flags: /Odtp
; File c:\users\zhitao li\documents\visual studio 2012\projects\freefalcon\sim\displays\tgpmfd.cpp
_TEXT	SEGMENT
$T2 = -28						; size = 4
tv88 = -24						; size = 4
$T3 = -20						; size = 4
_this$ = -16						; size = 4
__$EHRec$ = -12						; size = 12
_image$ = 8						; size = 4
?DisplayInit@TgpMfdDrawable@@UAEXPAVImageBuffer@@@Z PROC ; TgpMfdDrawable::DisplayInit
; _this$ = ecx

; 31   : {

	push	ebp
	mov	ebp, esp
	push	-1
	push	__ehhandler$?DisplayInit@TgpMfdDrawable@@UAEXPAVImageBuffer@@@Z
	mov	eax, DWORD PTR fs:0
	push	eax
	sub	esp, 16					; 00000010H
	mov	eax, DWORD PTR ___security_cookie
	xor	eax, ebp
	push	eax
	lea	eax, DWORD PTR __$EHRec$[ebp]
	mov	DWORD PTR fs:0, eax
	mov	DWORD PTR _this$[ebp], ecx

; 32   :     DisplayExit();

	mov	eax, DWORD PTR _this$[ebp]
	mov	edx, DWORD PTR [eax]
	mov	ecx, DWORD PTR _this$[ebp]
	mov	eax, DWORD PTR [edx+12]
	call	eax

; 33   :     
; 34   : 		if (!g_bGreyScaleMFD)

	movzx	ecx, BYTE PTR ?g_bGreyScaleMFD@@3_NA	; g_bGreyScaleMFD
	test	ecx, ecx
	jne	SHORT $LN3@DisplayIni

; 35   : 			g_bGreyMFD = false;

	mov	BYTE PTR ?g_bGreyMFD@@3_NA, 0		; g_bGreyMFD
$LN3@DisplayIni:

; 36   : 
; 37   :     privateDisplay = new RenderIR;

	push	263372					; 000404ccH
	call	??2@YAPAXI@Z				; operator new
	add	esp, 4
	mov	DWORD PTR $T3[ebp], eax
	mov	DWORD PTR __$EHRec$[ebp+8], 0
	cmp	DWORD PTR $T3[ebp], 0
	je	SHORT $LN6@DisplayIni
	mov	ecx, DWORD PTR $T3[ebp]
	call	??0RenderIR@@QAE@XZ			; RenderIR::RenderIR
	mov	DWORD PTR tv88[ebp], eax
	jmp	SHORT $LN7@DisplayIni
$LN6@DisplayIni:
	mov	DWORD PTR tv88[ebp], 0
$LN7@DisplayIni:
	mov	edx, DWORD PTR tv88[ebp]
	mov	DWORD PTR $T2[ebp], edx
	mov	DWORD PTR __$EHRec$[ebp+8], -1
	mov	eax, DWORD PTR _this$[ebp]
	mov	ecx, DWORD PTR $T2[ebp]
	mov	DWORD PTR [eax+24], ecx

; 38   :     ((RenderIR*)privateDisplay)->Setup(image, OTWDriver.GetViewpoint());

	mov	ecx, OFFSET ?OTWDriver@@3VOTWDriverClass@@A ; OTWDriver
	call	?GetViewpoint@OTWDriverClass@@QAEPAVRViewPoint@@XZ ; OTWDriverClass::GetViewpoint
	push	eax
	mov	edx, DWORD PTR _image$[ebp]
	push	edx
	mov	eax, DWORD PTR _this$[ebp]
	mov	ecx, DWORD PTR [eax+24]
	mov	edx, DWORD PTR _this$[ebp]
	mov	eax, DWORD PTR [ecx]
	mov	ecx, DWORD PTR [edx+24]
	mov	edx, DWORD PTR [eax+144]
	call	edx

; 39   :     
; 40   : 		if ((g_bGreyMFD) && (!bNVGmode))

	movzx	eax, BYTE PTR ?g_bGreyMFD@@3_NA		; g_bGreyMFD
	test	eax, eax
	je	SHORT $LN2@DisplayIni
	movzx	ecx, BYTE PTR ?bNVGmode@@3_NA		; bNVGmode
	test	ecx, ecx
	jne	SHORT $LN2@DisplayIni

; 41   : 			privateDisplay->SetColor(GetMfdColor(MFD_WHITE));

	push	1
	mov	ecx, DWORD PTR _this$[ebp]
	call	?GetMfdColor@DrawableClass@@QAEIW4MfdColor@@@Z ; DrawableClass::GetMfdColor
	push	eax
	mov	edx, DWORD PTR _this$[ebp]
	mov	eax, DWORD PTR [edx+24]
	mov	ecx, DWORD PTR _this$[ebp]
	mov	edx, DWORD PTR [eax]
	mov	ecx, DWORD PTR [ecx+24]
	mov	eax, DWORD PTR [edx+92]
	call	eax

; 42   : 		else

	jmp	SHORT $LN1@DisplayIni
$LN2@DisplayIni:

; 43   : 			privateDisplay->SetColor (0xff00ff00);

	push	-16711936				; ff00ff00H
	mov	ecx, DWORD PTR _this$[ebp]
	mov	edx, DWORD PTR [ecx+24]
	mov	eax, DWORD PTR _this$[ebp]
	mov	edx, DWORD PTR [edx]
	mov	ecx, DWORD PTR [eax+24]
	mov	eax, DWORD PTR [edx+92]
	call	eax
$LN1@DisplayIni:

; 44   :    	((Render3D*)privateDisplay)->SetFOV(6.0f*DTR);

	push	ecx
	movss	xmm0, DWORD PTR __real@3e4ccccd
	movss	DWORD PTR [esp], xmm0
	push	ecx
	movss	xmm0, DWORD PTR __real@3dd6774e
	movss	DWORD PTR [esp], xmm0
	mov	ecx, DWORD PTR _this$[ebp]
	mov	ecx, DWORD PTR [ecx+24]
	call	?SetFOV@Render3D@@QAEXMM@Z		; Render3D::SetFOV

; 45   : }

	mov	ecx, DWORD PTR __$EHRec$[ebp]
	mov	DWORD PTR fs:0, ecx
	pop	ecx
	mov	esp, ebp
	pop	ebp
	ret	4
_TEXT	ENDS
text$x	SEGMENT
__unwindfunclet$?DisplayInit@TgpMfdDrawable@@UAEXPAVImageBuffer@@@Z$0:
	mov	eax, DWORD PTR $T3[ebp]
	push	eax
	call	??3@YAXPAX@Z				; operator delete
	pop	ecx
	ret	0
__ehhandler$?DisplayInit@TgpMfdDrawable@@UAEXPAVImageBuffer@@@Z:
	mov	edx, DWORD PTR [esp+8]
	lea	eax, DWORD PTR [edx+12]
	mov	ecx, DWORD PTR [edx-20]
	xor	ecx, eax
	call	@__security_check_cookie@4
	mov	eax, OFFSET __ehfuncinfo$?DisplayInit@TgpMfdDrawable@@UAEXPAVImageBuffer@@@Z
	jmp	___CxxFrameHandler3
text$x	ENDS
?DisplayInit@TgpMfdDrawable@@UAEXPAVImageBuffer@@@Z ENDP ; TgpMfdDrawable::DisplayInit
; Function compile flags: /Odtp
; File c:\users\zhitao li\documents\visual studio 2012\projects\freefalcon\sim\include\mfd.h
;	COMDAT ??1TgpMfdDrawable@@UAE@XZ
_TEXT	SEGMENT
_this$ = -4						; size = 4
??1TgpMfdDrawable@@UAE@XZ PROC				; TgpMfdDrawable::~TgpMfdDrawable, COMDAT
; _this$ = ecx

; 258  :       virtual ~TgpMfdDrawable(void) {};

	push	ebp
	mov	ebp, esp
	push	ecx
	mov	DWORD PTR _this$[ebp], ecx
	mov	eax, DWORD PTR _this$[ebp]
	mov	DWORD PTR [eax], OFFSET ??_7TgpMfdDrawable@@6B@
	mov	ecx, DWORD PTR _this$[ebp]
	call	??1MfdDrawable@@UAE@XZ			; MfdDrawable::~MfdDrawable
	mov	esp, ebp
	pop	ebp
	ret	0
??1TgpMfdDrawable@@UAE@XZ ENDP				; TgpMfdDrawable::~TgpMfdDrawable
_TEXT	ENDS
; Function compile flags: /Odtp
; File c:\users\zhitao li\documents\visual studio 2012\projects\freefalcon\sim\displays\tgpmfd.cpp
_TEXT	SEGMENT
_this$ = -4						; size = 4
??0TgpMfdDrawable@@QAE@XZ PROC				; TgpMfdDrawable::TgpMfdDrawable
; _this$ = ecx

; 47   : {

	push	ebp
	mov	ebp, esp
	push	ecx
	mov	DWORD PTR _this$[ebp], ecx
	mov	ecx, DWORD PTR _this$[ebp]
	call	??0MfdDrawable@@QAE@XZ			; MfdDrawable::MfdDrawable
	mov	eax, DWORD PTR _this$[ebp]
	mov	DWORD PTR [eax], OFFSET ??_7TgpMfdDrawable@@6B@

; 48   : 	StbyMode = TRUE;

	mov	ecx, DWORD PTR _this$[ebp]
	mov	BYTE PTR [ecx+48], 1

; 49   : 	MenuMode = FALSE;

	mov	edx, DWORD PTR _this$[ebp]
	mov	BYTE PTR [edx+49], 0

; 50   : 	SP = FALSE;

	mov	eax, DWORD PTR _this$[ebp]
	mov	BYTE PTR [eax+50], 0

; 51   : }

	mov	eax, DWORD PTR _this$[ebp]
	mov	esp, ebp
	pop	ebp
	ret	0
??0TgpMfdDrawable@@QAE@XZ ENDP				; TgpMfdDrawable::TgpMfdDrawable
_TEXT	ENDS
; Function compile flags: /Odtp
;	COMDAT ??_GMfdDrawable@@UAEPAXI@Z
_TEXT	SEGMENT
_this$ = -4						; size = 4
___flags$ = 8						; size = 4
??_GMfdDrawable@@UAEPAXI@Z PROC				; MfdDrawable::`scalar deleting destructor', COMDAT
; _this$ = ecx
	push	ebp
	mov	ebp, esp
	push	ecx
	mov	DWORD PTR _this$[ebp], ecx
	mov	ecx, DWORD PTR _this$[ebp]
	call	??1MfdDrawable@@UAE@XZ			; MfdDrawable::~MfdDrawable
	mov	eax, DWORD PTR ___flags$[ebp]
	and	eax, 1
	je	SHORT $LN1@scalar
	mov	ecx, DWORD PTR _this$[ebp]
	push	ecx
	call	??3@YAXPAX@Z				; operator delete
	add	esp, 4
$LN1@scalar:
	mov	eax, DWORD PTR _this$[ebp]
	mov	esp, ebp
	pop	ebp
	ret	4
??_GMfdDrawable@@UAEPAXI@Z ENDP				; MfdDrawable::`scalar deleting destructor'
_TEXT	ENDS
; Function compile flags: /Odtp
; File c:\users\zhitao li\documents\visual studio 2012\projects\freefalcon\sim\include\mfd.h
;	COMDAT ?Display@MfdDrawable@@UAEXPAVVirtualDisplay@@@Z
_TEXT	SEGMENT
_this$ = -4						; size = 4
_vd$ = 8						; size = 4
?Display@MfdDrawable@@UAEXPAVVirtualDisplay@@@Z PROC	; MfdDrawable::Display, COMDAT
; _this$ = ecx

; 138  :       virtual void Display (VirtualDisplay*vd) { display = vd; };

	push	ebp
	mov	ebp, esp
	push	ecx
	mov	DWORD PTR _this$[ebp], ecx
	mov	eax, DWORD PTR _this$[ebp]
	mov	ecx, DWORD PTR _vd$[ebp]
	mov	DWORD PTR [eax+20], ecx
	mov	esp, ebp
	pop	ebp
	ret	4
?Display@MfdDrawable@@UAEXPAVVirtualDisplay@@@Z ENDP	; MfdDrawable::Display
_TEXT	ENDS
; Function compile flags: /Odtp
; File c:\users\zhitao li\documents\visual studio 2012\projects\freefalcon\sim\include\mfd.h
;	COMDAT ??0MfdDrawable@@QAE@XZ
_TEXT	SEGMENT
_this$ = -4						; size = 4
??0MfdDrawable@@QAE@XZ PROC				; MfdDrawable::MfdDrawable, COMDAT
; _this$ = ecx

; 135  :       MfdDrawable () {};

	push	ebp
	mov	ebp, esp
	push	ecx
	mov	DWORD PTR _this$[ebp], ecx
	mov	ecx, DWORD PTR _this$[ebp]
	call	??0DrawableClass@@IAE@XZ		; DrawableClass::DrawableClass
	mov	eax, DWORD PTR _this$[ebp]
	mov	DWORD PTR [eax], OFFSET ??_7MfdDrawable@@6B@
	mov	eax, DWORD PTR _this$[ebp]
	mov	esp, ebp
	pop	ebp
	ret	0
??0MfdDrawable@@QAE@XZ ENDP				; MfdDrawable::MfdDrawable
_TEXT	ENDS
; Function compile flags: /Odtp
; File c:\users\zhitao li\documents\visual studio 2012\projects\freefalcon\sim\include\mfd.h
;	COMDAT ?SetTGPWarning@MFDClass@@QAEXH@Z
_TEXT	SEGMENT
_this$ = -4						; size = 4
_warning$ = 8						; size = 4
?SetTGPWarning@MFDClass@@QAEXH@Z PROC			; MFDClass::SetTGPWarning, COMDAT
; _this$ = ecx

; 95   : 	void SetTGPWarning( int warning ) { TGPWarning = warning; }

	push	ebp
	mov	ebp, esp
	push	ecx
	mov	DWORD PTR _this$[ebp], ecx
	mov	eax, DWORD PTR _this$[ebp]
	mov	ecx, DWORD PTR _warning$[ebp]
	mov	DWORD PTR [eax+120], ecx
	mov	esp, ebp
	pop	ebp
	ret	4
?SetTGPWarning@MFDClass@@QAEXH@Z ENDP			; MFDClass::SetTGPWarning
_TEXT	ENDS
; Function compile flags: /Odtp
; File c:\users\zhitao li\documents\visual studio 2012\projects\freefalcon\sim\include\mfd.h
;	COMDAT ?GetTGPWarning@MFDClass@@QAEHXZ
_TEXT	SEGMENT
_this$ = -4						; size = 4
?GetTGPWarning@MFDClass@@QAEHXZ PROC			; MFDClass::GetTGPWarning, COMDAT
; _this$ = ecx

; 94   : 	int GetTGPWarning() { return TGPWarning; }

	push	ebp
	mov	ebp, esp
	push	ecx
	mov	DWORD PTR _this$[ebp], ecx
	mov	eax, DWORD PTR _this$[ebp]
	mov	eax, DWORD PTR [eax+120]
	mov	esp, ebp
	pop	ebp
	ret	0
?GetTGPWarning@MFDClass@@QAEHXZ ENDP			; MFDClass::GetTGPWarning
_TEXT	ENDS
; Function compile flags: /Odtp
; File c:\users\zhitao li\documents\visual studio 2012\projects\freefalcon\sim\include\mfd.h
;	COMDAT ?GetOwnShip@MFDClass@@QAEPAVAircraftClass@@XZ
_TEXT	SEGMENT
_this$ = -4						; size = 4
?GetOwnShip@MFDClass@@QAEPAVAircraftClass@@XZ PROC	; MFDClass::GetOwnShip, COMDAT
; _this$ = ecx

; 82   : 	AircraftClass *GetOwnShip() { return ownship; };

	push	ebp
	mov	ebp, esp
	push	ecx
	mov	DWORD PTR _this$[ebp], ecx
	mov	eax, DWORD PTR _this$[ebp]
	mov	eax, DWORD PTR [eax+132]
	mov	esp, ebp
	pop	ebp
	ret	0
?GetOwnShip@MFDClass@@QAEPAVAircraftClass@@XZ ENDP	; MFDClass::GetOwnShip
_TEXT	ENDS
; Function compile flags: /Odtp
; File c:\users\zhitao li\documents\visual studio 2012\projects\freefalcon\sim\include\mfd.h
;	COMDAT ?CurMode@MFDClass@@QAE?AW4MfdMode@1@XZ
_TEXT	SEGMENT
tv68 = -8						; size = 4
_this$ = -4						; size = 4
?CurMode@MFDClass@@QAE?AW4MfdMode@1@XZ PROC		; MFDClass::CurMode, COMDAT
; _this$ = ecx

; 71   : 	MfdMode CurMode() { return mode == MfdMenu ? restoreMode : mode; };

	push	ebp
	mov	ebp, esp
	sub	esp, 8
	mov	DWORD PTR _this$[ebp], ecx
	mov	eax, DWORD PTR _this$[ebp]
	cmp	DWORD PTR [eax+8], 1
	jne	SHORT $LN3@CurMode
	mov	ecx, DWORD PTR _this$[ebp]
	mov	edx, DWORD PTR [ecx+16]
	mov	DWORD PTR tv68[ebp], edx
	jmp	SHORT $LN4@CurMode
$LN3@CurMode:
	mov	eax, DWORD PTR _this$[ebp]
	mov	ecx, DWORD PTR [eax+8]
	mov	DWORD PTR tv68[ebp], ecx
$LN4@CurMode:
	mov	eax, DWORD PTR tv68[ebp]
	mov	esp, ebp
	pop	ebp
	ret	0
?CurMode@MFDClass@@QAE?AW4MfdMode@1@XZ ENDP		; MFDClass::CurMode
_TEXT	ENDS
; Function compile flags: /Odtp
;	COMDAT ??_GDrawableClass@@UAEPAXI@Z
_TEXT	SEGMENT
_this$ = -4						; size = 4
___flags$ = 8						; size = 4
??_GDrawableClass@@UAEPAXI@Z PROC			; DrawableClass::`scalar deleting destructor', COMDAT
; _this$ = ecx
	push	ebp
	mov	ebp, esp
	push	ecx
	mov	DWORD PTR _this$[ebp], ecx
	mov	ecx, DWORD PTR _this$[ebp]
	call	??1DrawableClass@@UAE@XZ		; DrawableClass::~DrawableClass
	mov	eax, DWORD PTR ___flags$[ebp]
	and	eax, 1
	je	SHORT $LN1@scalar
	mov	ecx, DWORD PTR _this$[ebp]
	push	ecx
	call	??3@YAXPAX@Z				; operator delete
	add	esp, 4
$LN1@scalar:
	mov	eax, DWORD PTR _this$[ebp]
	mov	esp, ebp
	pop	ebp
	ret	4
??_GDrawableClass@@UAEPAXI@Z ENDP			; DrawableClass::`scalar deleting destructor'
_TEXT	ENDS
; Function compile flags: /Odtp
; File c:\users\zhitao li\documents\visual studio 2012\projects\freefalcon\sim\include\drawable.h
;	COMDAT ?PushButton@DrawableClass@@UAEXHH@Z
_TEXT	SEGMENT
_this$ = -4						; size = 4
___formal$ = 8						; size = 4
___formal$ = 12						; size = 4
?PushButton@DrawableClass@@UAEXHH@Z PROC		; DrawableClass::PushButton, COMDAT
; _this$ = ecx

; 152  :       virtual void PushButton (int, int)	{};								// Override to get button messages in subclasses

	push	ebp
	mov	ebp, esp
	push	ecx
	mov	DWORD PTR _this$[ebp], ecx
	mov	esp, ebp
	pop	ebp
	ret	8
?PushButton@DrawableClass@@UAEXHH@Z ENDP		; DrawableClass::PushButton
_TEXT	ENDS
; Function compile flags: /Odtp
; File c:\users\zhitao li\documents\visual studio 2012\projects\freefalcon\sim\include\drawable.h
;	COMDAT ?GetIntensity@DrawableClass@@QAEIXZ
_TEXT	SEGMENT
_this$ = -4						; size = 4
?GetIntensity@DrawableClass@@QAEIXZ PROC		; DrawableClass::GetIntensity, COMDAT
; _this$ = ecx

; 148  :       unsigned int GetIntensity(void) { return intensity; };

	push	ebp
	mov	ebp, esp
	push	ecx
	mov	DWORD PTR _this$[ebp], ecx
	mov	eax, DWORD PTR _this$[ebp]
	mov	eax, DWORD PTR [eax+12]
	mov	esp, ebp
	pop	ebp
	ret	0
?GetIntensity@DrawableClass@@QAEIXZ ENDP		; DrawableClass::GetIntensity
_TEXT	ENDS
; Function compile flags: /Odtp
; File c:\users\zhitao li\documents\visual studio 2012\projects\freefalcon\sim\include\drawable.h
;	COMDAT ?SetIntensity@DrawableClass@@QAEXI@Z
_TEXT	SEGMENT
_this$ = -4						; size = 4
_val$ = 8						; size = 4
?SetIntensity@DrawableClass@@QAEXI@Z PROC		; DrawableClass::SetIntensity, COMDAT
; _this$ = ecx

; 147  :       void  SetIntensity (unsigned int val) { intensity = val; };

	push	ebp
	mov	ebp, esp
	push	ecx
	mov	DWORD PTR _this$[ebp], ecx
	mov	eax, DWORD PTR _this$[ebp]
	mov	ecx, DWORD PTR _val$[ebp]
	mov	DWORD PTR [eax+12], ecx
	mov	esp, ebp
	pop	ebp
	ret	4
?SetIntensity@DrawableClass@@QAEXI@Z ENDP		; DrawableClass::SetIntensity
_TEXT	ENDS
; Function compile flags: /Odtp
; File c:\users\zhitao li\documents\visual studio 2012\projects\freefalcon\sim\include\drawable.h
;	COMDAT ?OnMFD@DrawableClass@@QAEHXZ
_TEXT	SEGMENT
_this$ = -4						; size = 4
?OnMFD@DrawableClass@@QAEHXZ PROC			; DrawableClass::OnMFD, COMDAT
; _this$ = ecx

; 145  :       int	OnMFD (void)			{return MFDOn;};

	push	ebp
	mov	ebp, esp
	push	ecx
	mov	DWORD PTR _this$[ebp], ecx
	mov	eax, DWORD PTR _this$[ebp]
	mov	eax, DWORD PTR [eax+4]
	mov	esp, ebp
	pop	ebp
	ret	0
?OnMFD@DrawableClass@@QAEHXZ ENDP			; DrawableClass::OnMFD
_TEXT	ENDS
; Function compile flags: /Odtp
; File c:\users\zhitao li\documents\visual studio 2012\projects\freefalcon\sim\include\drawable.h
;	COMDAT ?GetDisplay@DrawableClass@@UAEPAVVirtualDisplay@@XZ
_TEXT	SEGMENT
_this$ = -4						; size = 4
?GetDisplay@DrawableClass@@UAEPAVVirtualDisplay@@XZ PROC ; DrawableClass::GetDisplay, COMDAT
; _this$ = ecx

; 139  :       virtual VirtualDisplay* GetDisplay (void)	{return privateDisplay;};

	push	ebp
	mov	ebp, esp
	push	ecx
	mov	DWORD PTR _this$[ebp], ecx
	mov	eax, DWORD PTR _this$[ebp]
	mov	eax, DWORD PTR [eax+24]
	mov	esp, ebp
	pop	ebp
	ret	0
?GetDisplay@DrawableClass@@UAEPAVVirtualDisplay@@XZ ENDP ; DrawableClass::GetDisplay
_TEXT	ENDS
; Function compile flags: /Odtp
; File c:\users\zhitao li\documents\visual studio 2012\projects\freefalcon\sim\include\drawable.h
;	COMDAT ?DisplayInit@DrawableClass@@UAEXPAVImageBuffer@@@Z
_TEXT	SEGMENT
_this$ = -4						; size = 4
___formal$ = 8						; size = 4
?DisplayInit@DrawableClass@@UAEXPAVImageBuffer@@@Z PROC	; DrawableClass::DisplayInit, COMDAT
; _this$ = ecx

; 137  :       virtual void DisplayInit (ImageBuffer*)	{};

	push	ebp
	mov	ebp, esp
	push	ecx
	mov	DWORD PTR _this$[ebp], ecx
	mov	esp, ebp
	pop	ebp
	ret	4
?DisplayInit@DrawableClass@@UAEXPAVImageBuffer@@@Z ENDP	; DrawableClass::DisplayInit
_TEXT	ENDS
; Function compile flags: /Odtp
; File c:\users\zhitao li\documents\visual studio 2012\projects\freefalcon\sim\include\drawable.h
;	COMDAT ?Display@DrawableClass@@UAEXPAVVirtualDisplay@@@Z
_TEXT	SEGMENT
_this$ = -4						; size = 4
___formal$ = 8						; size = 4
?Display@DrawableClass@@UAEXPAVVirtualDisplay@@@Z PROC	; DrawableClass::Display, COMDAT
; _this$ = ecx

; 136  :       virtual void Display(VirtualDisplay*)		{ ShiWarning( "No Display!" ); };

	push	ebp
	mov	ebp, esp
	push	ecx
	mov	DWORD PTR _this$[ebp], ecx
	mov	esp, ebp
	pop	ebp
	ret	4
?Display@DrawableClass@@UAEXPAVVirtualDisplay@@@Z ENDP	; DrawableClass::Display
_TEXT	ENDS
; Function compile flags: /Odtp
; File c:\users\zhitao li\documents\visual studio 2012\projects\freefalcon\sim\include\drawable.h
;	COMDAT ??1DrawableClass@@UAE@XZ
_TEXT	SEGMENT
_this$ = -4						; size = 4
??1DrawableClass@@UAE@XZ PROC				; DrawableClass::~DrawableClass, COMDAT
; _this$ = ecx

; 132  :       virtual ~DrawableClass (void)				{};

	push	ebp
	mov	ebp, esp
	push	ecx
	mov	DWORD PTR _this$[ebp], ecx
	mov	eax, DWORD PTR _this$[ebp]
	mov	DWORD PTR [eax], OFFSET ??_7DrawableClass@@6B@
	mov	esp, ebp
	pop	ebp
	ret	0
??1DrawableClass@@UAE@XZ ENDP				; DrawableClass::~DrawableClass
_TEXT	ENDS
; Function compile flags: /Odtp
; File c:\users\zhitao li\documents\visual studio 2012\projects\freefalcon\sim\include\drawable.h
;	COMDAT ??0DrawableClass@@IAE@XZ
_TEXT	SEGMENT
_this$ = -4						; size = 4
??0DrawableClass@@IAE@XZ PROC				; DrawableClass::DrawableClass, COMDAT
; _this$ = ecx

; 126  :       DrawableClass(void) {privateDisplay = display = NULL; viewPoint = NULL; drawFlags = 0;};

	push	ebp
	mov	ebp, esp
	push	ecx
	mov	DWORD PTR _this$[ebp], ecx
	mov	eax, DWORD PTR _this$[ebp]
	mov	DWORD PTR [eax], OFFSET ??_7DrawableClass@@6B@
	mov	ecx, DWORD PTR _this$[ebp]
	mov	DWORD PTR [ecx+20], 0
	mov	edx, DWORD PTR _this$[ebp]
	mov	DWORD PTR [edx+24], 0
	mov	eax, DWORD PTR _this$[ebp]
	mov	DWORD PTR [eax+16], 0
	mov	ecx, DWORD PTR _this$[ebp]
	mov	DWORD PTR [ecx+8], 0
	mov	eax, DWORD PTR _this$[ebp]
	mov	esp, ebp
	pop	ebp
	ret	0
??0DrawableClass@@IAE@XZ ENDP				; DrawableClass::DrawableClass
_TEXT	ENDS
; Function compile flags: /Odtp
; File c:\program files (x86)\microsoft visual studio 11.0\vc\include\xstring
;	COMDAT ?_Xran@?$basic_string@DU?$char_traits@D@std@@V?$allocator@D@2@@std@@QBEXXZ
_TEXT	SEGMENT
_this$ = -4						; size = 4
?_Xran@?$basic_string@DU?$char_traits@D@std@@V?$allocator@D@2@@std@@QBEXXZ PROC ; std::basic_string<char,std::char_traits<char>,std::allocator<char> >::_Xran, COMDAT
; _this$ = ecx

; 2275 : 		{	// report an out_of_range error

	push	ebp
	mov	ebp, esp
	push	ecx
	mov	DWORD PTR _this$[ebp], ecx

; 2276 : 		_Xout_of_range("invalid string position");

	push	OFFSET ??_C@_0BI@CFPLBAOH@invalid?5string?5position?$AA@
	call	?_Xout_of_range@std@@YAXPBD@Z		; std::_Xout_of_range
$LN2@Xran:

; 2277 : 		}

	mov	esp, ebp
	pop	ebp
	ret	0
?_Xran@?$basic_string@DU?$char_traits@D@std@@V?$allocator@D@2@@std@@QBEXXZ ENDP ; std::basic_string<char,std::char_traits<char>,std::allocator<char> >::_Xran
_TEXT	ENDS
; Function compile flags: /Odtp
; File c:\program files (x86)\microsoft visual studio 11.0\vc\include\xstring
;	COMDAT ?_Xlen@?$basic_string@DU?$char_traits@D@std@@V?$allocator@D@2@@std@@QBEXXZ
_TEXT	SEGMENT
_this$ = -4						; size = 4
?_Xlen@?$basic_string@DU?$char_traits@D@std@@V?$allocator@D@2@@std@@QBEXXZ PROC ; std::basic_string<char,std::char_traits<char>,std::allocator<char> >::_Xlen, COMDAT
; _this$ = ecx

; 2270 : 		{	// report a length_error

	push	ebp
	mov	ebp, esp
	push	ecx
	mov	DWORD PTR _this$[ebp], ecx

; 2271 : 		_Xlength_error("string too long");

	push	OFFSET ??_C@_0BA@JFNIOLAK@string?5too?5long?$AA@
	call	?_Xlength_error@std@@YAXPBD@Z		; std::_Xlength_error
$LN2@Xlen:

; 2272 : 		}

	mov	esp, ebp
	pop	ebp
	ret	0
?_Xlen@?$basic_string@DU?$char_traits@D@std@@V?$allocator@D@2@@std@@QBEXXZ ENDP ; std::basic_string<char,std::char_traits<char>,std::allocator<char> >::_Xlen
_TEXT	ENDS
; Function compile flags: /Odtp
; File c:\program files (x86)\microsoft visual studio 11.0\vc\include\xstring
;	COMDAT ?_Tidy@?$basic_string@DU?$char_traits@D@std@@V?$allocator@D@2@@std@@QAEX_NI@Z
_TEXT	SEGMENT
__Ptr$1 = -12						; size = 4
_this$ = -8						; size = 4
$T2 = -2						; size = 1
$T3 = -1						; size = 1
__Built$ = 8						; size = 1
__Newsize$ = 12						; size = 4
?_Tidy@?$basic_string@DU?$char_traits@D@std@@V?$allocator@D@2@@std@@QAEX_NI@Z PROC ; std::basic_string<char,std::char_traits<char>,std::allocator<char> >::_Tidy, COMDAT
; _this$ = ecx

; 2253 : 		{	// initialize buffer, deallocating any storage

	push	ebp
	mov	ebp, esp
	sub	esp, 12					; 0000000cH
	mov	DWORD PTR _this$[ebp], ecx

; 2254 : 		if (!_Built)

	movzx	eax, BYTE PTR __Built$[ebp]
	test	eax, eax
	jne	SHORT $LN4@Tidy
	jmp	SHORT $LN3@Tidy
$LN4@Tidy:

; 2255 : 			;
; 2256 : 		else if (this->_BUF_SIZE <= this->_Myres)

	mov	ecx, DWORD PTR _this$[ebp]
	cmp	DWORD PTR [ecx+20], 16			; 00000010H
	jb	SHORT $LN3@Tidy

; 2257 : 			{	// copy any leftovers to small buffer and deallocate
; 2258 : 			pointer _Ptr = this->_Bx._Ptr;

	mov	edx, DWORD PTR _this$[ebp]
	mov	eax, DWORD PTR [edx]
	mov	DWORD PTR __Ptr$1[ebp], eax

; 2259 : 			this->_Getal().destroy(&this->_Bx._Ptr);

	mov	ecx, DWORD PTR _this$[ebp]
	push	ecx
	lea	edx, DWORD PTR $T3[ebp]
	push	edx
	mov	ecx, DWORD PTR _this$[ebp]
	call	?_Getal@?$_String_alloc@$0A@U?$_String_base_types@DV?$allocator@D@std@@@std@@@std@@QBE?AU?$_Wrap_alloc@V?$allocator@D@std@@@2@XZ ; std::_String_alloc<0,std::_String_base_types<char,std::allocator<char> > >::_Getal
	mov	ecx, eax
	call	??$destroy@PAD@?$_Wrap_alloc@V?$allocator@D@std@@@std@@QAEXPAPAD@Z ; std::_Wrap_alloc<std::allocator<char> >::destroy<char *>

; 2260 : 			if (0 < _Newsize)

	cmp	DWORD PTR __Newsize$[ebp], 0
	jbe	SHORT $LN1@Tidy

; 2261 : 				_Traits::copy(this->_Bx._Buf,
; 2262 : 					_STD addressof(*_Ptr), _Newsize);

	mov	eax, DWORD PTR __Newsize$[ebp]
	push	eax
	mov	ecx, DWORD PTR __Ptr$1[ebp]
	push	ecx
	call	??$addressof@D@std@@YAPADAAD@Z		; std::addressof<char>
	add	esp, 4
	push	eax
	mov	edx, DWORD PTR _this$[ebp]
	push	edx
	call	?copy@?$char_traits@D@std@@SAPADPADPBDI@Z ; std::char_traits<char>::copy
	add	esp, 12					; 0000000cH
$LN1@Tidy:

; 2263 : 			this->_Getal().deallocate(_Ptr, this->_Myres + 1);

	mov	eax, DWORD PTR _this$[ebp]
	mov	ecx, DWORD PTR [eax+20]
	add	ecx, 1
	push	ecx
	mov	edx, DWORD PTR __Ptr$1[ebp]
	push	edx
	lea	eax, DWORD PTR $T2[ebp]
	push	eax
	mov	ecx, DWORD PTR _this$[ebp]
	call	?_Getal@?$_String_alloc@$0A@U?$_String_base_types@DV?$allocator@D@std@@@std@@@std@@QBE?AU?$_Wrap_alloc@V?$allocator@D@std@@@2@XZ ; std::_String_alloc<0,std::_String_base_types<char,std::allocator<char> > >::_Getal
	mov	ecx, eax
	call	?deallocate@?$_Wrap_alloc@V?$allocator@D@std@@@std@@QAEXPADI@Z ; std::_Wrap_alloc<std::allocator<char> >::deallocate
$LN3@Tidy:

; 2264 : 			}
; 2265 : 		this->_Myres = this->_BUF_SIZE - 1;

	mov	ecx, DWORD PTR _this$[ebp]
	mov	DWORD PTR [ecx+20], 15			; 0000000fH

; 2266 : 		_Eos(_Newsize);

	mov	edx, DWORD PTR __Newsize$[ebp]
	push	edx
	mov	ecx, DWORD PTR _this$[ebp]
	call	?_Eos@?$basic_string@DU?$char_traits@D@std@@V?$allocator@D@2@@std@@QAEXI@Z ; std::basic_string<char,std::char_traits<char>,std::allocator<char> >::_Eos

; 2267 : 		}

	mov	esp, ebp
	pop	ebp
	ret	8
?_Tidy@?$basic_string@DU?$char_traits@D@std@@V?$allocator@D@2@@std@@QAEX_NI@Z ENDP ; std::basic_string<char,std::char_traits<char>,std::allocator<char> >::_Tidy
_TEXT	ENDS
; Function compile flags: /Odtp
; File c:\program files (x86)\microsoft visual studio 11.0\vc\include\xstring
;	COMDAT ?_Inside@?$basic_string@DU?$char_traits@D@std@@V?$allocator@D@2@@std@@QAE_NPBD@Z
_TEXT	SEGMENT
_this$ = -4						; size = 4
__Ptr$ = 8						; size = 4
?_Inside@?$basic_string@DU?$char_traits@D@std@@V?$allocator@D@2@@std@@QAE_NPBD@Z PROC ; std::basic_string<char,std::char_traits<char>,std::allocator<char> >::_Inside, COMDAT
; _this$ = ecx

; 2237 : 		{	// test if _Ptr points inside string

	push	ebp
	mov	ebp, esp
	push	ecx
	mov	DWORD PTR _this$[ebp], ecx

; 2238 : 		if (_Ptr == 0 || _Ptr < this->_Myptr()
; 2239 : 			|| this->_Myptr() + this->_Mysize <= _Ptr)

	cmp	DWORD PTR __Ptr$[ebp], 0
	je	SHORT $LN2@Inside
	mov	ecx, DWORD PTR _this$[ebp]
	call	?_Myptr@?$_String_val@U?$_Simple_types@D@std@@@std@@QAEPADXZ ; std::_String_val<std::_Simple_types<char> >::_Myptr
	cmp	DWORD PTR __Ptr$[ebp], eax
	jb	SHORT $LN2@Inside
	mov	ecx, DWORD PTR _this$[ebp]
	call	?_Myptr@?$_String_val@U?$_Simple_types@D@std@@@std@@QAEPADXZ ; std::_String_val<std::_Simple_types<char> >::_Myptr
	mov	ecx, DWORD PTR _this$[ebp]
	add	eax, DWORD PTR [ecx+16]
	cmp	eax, DWORD PTR __Ptr$[ebp]
	ja	SHORT $LN3@Inside
$LN2@Inside:

; 2240 : 			return (false);	// don't ask

	xor	al, al
	jmp	SHORT $LN4@Inside

; 2241 : 		else

	jmp	SHORT $LN4@Inside
$LN3@Inside:

; 2242 : 			return (true);

	mov	al, 1
$LN4@Inside:

; 2243 : 		}

	mov	esp, ebp
	pop	ebp
	ret	4
?_Inside@?$basic_string@DU?$char_traits@D@std@@V?$allocator@D@2@@std@@QAE_NPBD@Z ENDP ; std::basic_string<char,std::char_traits<char>,std::allocator<char> >::_Inside
_TEXT	ENDS
; Function compile flags: /Odtp
; File c:\program files (x86)\microsoft visual studio 11.0\vc\include\xstring
;	COMDAT ?_Grow@?$basic_string@DU?$char_traits@D@std@@V?$allocator@D@2@@std@@QAE_NI_N@Z
_TEXT	SEGMENT
tv136 = -12						; size = 4
tv129 = -8						; size = 4
_this$ = -4						; size = 4
__Newsize$ = 8						; size = 4
__Trim$ = 12						; size = 1
?_Grow@?$basic_string@DU?$char_traits@D@std@@V?$allocator@D@2@@std@@QAE_NI_N@Z PROC ; std::basic_string<char,std::char_traits<char>,std::allocator<char> >::_Grow, COMDAT
; _this$ = ecx

; 2223 : 		{	// ensure buffer is big enough, trim to size if _Trim is true

	push	ebp
	mov	ebp, esp
	sub	esp, 12					; 0000000cH
	mov	DWORD PTR _this$[ebp], ecx

; 2224 : 		if (max_size() < _Newsize)

	mov	ecx, DWORD PTR _this$[ebp]
	call	?max_size@?$basic_string@DU?$char_traits@D@std@@V?$allocator@D@2@@std@@QBEIXZ ; std::basic_string<char,std::char_traits<char>,std::allocator<char> >::max_size
	cmp	eax, DWORD PTR __Newsize$[ebp]
	jae	SHORT $LN6@Grow

; 2225 : 			_Xlen();	// result too long

	mov	ecx, DWORD PTR _this$[ebp]
	call	?_Xlen@?$basic_string@DU?$char_traits@D@std@@V?$allocator@D@2@@std@@QBEXXZ ; std::basic_string<char,std::char_traits<char>,std::allocator<char> >::_Xlen
$LN6@Grow:

; 2226 : 		if (this->_Myres < _Newsize)

	mov	eax, DWORD PTR _this$[ebp]
	mov	ecx, DWORD PTR [eax+20]
	cmp	ecx, DWORD PTR __Newsize$[ebp]
	jae	SHORT $LN5@Grow

; 2227 : 			_Copy(_Newsize, this->_Mysize);	// reallocate to grow

	mov	edx, DWORD PTR _this$[ebp]
	mov	eax, DWORD PTR [edx+16]
	push	eax
	mov	ecx, DWORD PTR __Newsize$[ebp]
	push	ecx
	mov	ecx, DWORD PTR _this$[ebp]
	call	?_Copy@?$basic_string@DU?$char_traits@D@std@@V?$allocator@D@2@@std@@QAEXII@Z ; std::basic_string<char,std::char_traits<char>,std::allocator<char> >::_Copy
	jmp	SHORT $LN4@Grow
$LN5@Grow:

; 2228 : 		else if (_Trim && _Newsize < this->_BUF_SIZE)

	movzx	edx, BYTE PTR __Trim$[ebp]
	test	edx, edx
	je	SHORT $LN3@Grow
	cmp	DWORD PTR __Newsize$[ebp], 16		; 00000010H
	jae	SHORT $LN3@Grow

; 2229 : 			_Tidy(true,	// copy and deallocate if trimming to small string
; 2230 : 				_Newsize < this->_Mysize ? _Newsize : this->_Mysize);

	mov	eax, DWORD PTR _this$[ebp]
	mov	ecx, DWORD PTR __Newsize$[ebp]
	cmp	ecx, DWORD PTR [eax+16]
	jae	SHORT $LN9@Grow
	mov	edx, DWORD PTR __Newsize$[ebp]
	mov	DWORD PTR tv129[ebp], edx
	jmp	SHORT $LN10@Grow
$LN9@Grow:
	mov	eax, DWORD PTR _this$[ebp]
	mov	ecx, DWORD PTR [eax+16]
	mov	DWORD PTR tv129[ebp], ecx
$LN10@Grow:
	mov	edx, DWORD PTR tv129[ebp]
	push	edx
	push	1
	mov	ecx, DWORD PTR _this$[ebp]
	call	?_Tidy@?$basic_string@DU?$char_traits@D@std@@V?$allocator@D@2@@std@@QAEX_NI@Z ; std::basic_string<char,std::char_traits<char>,std::allocator<char> >::_Tidy
	jmp	SHORT $LN4@Grow
$LN3@Grow:

; 2231 : 		else if (_Newsize == 0)

	cmp	DWORD PTR __Newsize$[ebp], 0
	jne	SHORT $LN4@Grow

; 2232 : 			_Eos(0);	// new size is zero, just null terminate

	push	0
	mov	ecx, DWORD PTR _this$[ebp]
	call	?_Eos@?$basic_string@DU?$char_traits@D@std@@V?$allocator@D@2@@std@@QAEXI@Z ; std::basic_string<char,std::char_traits<char>,std::allocator<char> >::_Eos
$LN4@Grow:

; 2233 : 		return (0 < _Newsize);	// return true only if more work to do

	cmp	DWORD PTR __Newsize$[ebp], 0
	jbe	SHORT $LN11@Grow
	mov	DWORD PTR tv136[ebp], 1
	jmp	SHORT $LN12@Grow
$LN11@Grow:
	mov	DWORD PTR tv136[ebp], 0
$LN12@Grow:
	mov	al, BYTE PTR tv136[ebp]
$LN8@Grow:

; 2234 : 		}

	mov	esp, ebp
	pop	ebp
	ret	8
?_Grow@?$basic_string@DU?$char_traits@D@std@@V?$allocator@D@2@@std@@QAE_NI_N@Z ENDP ; std::basic_string<char,std::char_traits<char>,std::allocator<char> >::_Grow
_TEXT	ENDS
; Function compile flags: /Odtp
; File c:\program files (x86)\microsoft visual studio 11.0\vc\include\xstring
;	COMDAT ?_Eos@?$basic_string@DU?$char_traits@D@std@@V?$allocator@D@2@@std@@QAEXI@Z
_TEXT	SEGMENT
_this$ = -8						; size = 4
$T1 = -1						; size = 1
__Newsize$ = 8						; size = 4
?_Eos@?$basic_string@DU?$char_traits@D@std@@V?$allocator@D@2@@std@@QAEXI@Z PROC ; std::basic_string<char,std::char_traits<char>,std::allocator<char> >::_Eos, COMDAT
; _this$ = ecx

; 2217 : 		{	// set new length and null terminator

	push	ebp
	mov	ebp, esp
	sub	esp, 8
	mov	DWORD PTR _this$[ebp], ecx

; 2218 : 		_Traits::assign(this->_Myptr()[this->_Mysize = _Newsize], _Elem());

	mov	BYTE PTR $T1[ebp], 0
	mov	eax, DWORD PTR _this$[ebp]
	mov	ecx, DWORD PTR __Newsize$[ebp]
	mov	DWORD PTR [eax+16], ecx
	lea	edx, DWORD PTR $T1[ebp]
	push	edx
	mov	ecx, DWORD PTR _this$[ebp]
	call	?_Myptr@?$_String_val@U?$_Simple_types@D@std@@@std@@QAEPADXZ ; std::_String_val<std::_Simple_types<char> >::_Myptr
	add	eax, DWORD PTR __Newsize$[ebp]
	push	eax
	call	?assign@?$char_traits@D@std@@SAXAADABD@Z ; std::char_traits<char>::assign
	add	esp, 8

; 2219 : 		}

	mov	esp, ebp
	pop	ebp
	ret	4
?_Eos@?$basic_string@DU?$char_traits@D@std@@V?$allocator@D@2@@std@@QAEXI@Z ENDP ; std::basic_string<char,std::char_traits<char>,std::allocator<char> >::_Eos
_TEXT	ENDS
; Function compile flags: /Odtp
; File c:\program files (x86)\microsoft visual studio 11.0\vc\include\xstring
;	COMDAT ?_Copy@?$basic_string@DU?$char_traits@D@std@@V?$allocator@D@2@@std@@QAEXII@Z
_TEXT	SEGMENT
tv205 = -48						; size = 4
tv204 = -44						; size = 4
tv203 = -40						; size = 4
tv202 = -36						; size = 4
__Ptr$ = -32						; size = 4
__Newres$ = -28						; size = 4
_this$ = -24						; size = 4
$T2 = -19						; size = 1
$T3 = -18						; size = 1
$T4 = -17						; size = 1
__$EHRec$ = -16						; size = 16
__Newsize$ = 8						; size = 4
__Oldlen$ = 12						; size = 4
?_Copy@?$basic_string@DU?$char_traits@D@std@@V?$allocator@D@2@@std@@QAEXII@Z PROC ; std::basic_string<char,std::char_traits<char>,std::allocator<char> >::_Copy, COMDAT
; _this$ = ecx

; 2182 : 		{	// copy _Oldlen elements to newly allocated buffer

	push	ebp
	mov	ebp, esp
	push	-1
	push	__ehhandler$?_Copy@?$basic_string@DU?$char_traits@D@std@@V?$allocator@D@2@@std@@QAEXII@Z
	mov	eax, DWORD PTR fs:0
	push	eax
	push	ecx
	sub	esp, 32					; 00000020H
	push	ebx
	push	esi
	push	edi
	mov	eax, DWORD PTR ___security_cookie
	xor	eax, ebp
	push	eax
	lea	eax, DWORD PTR __$EHRec$[ebp+4]
	mov	DWORD PTR fs:0, eax
	mov	DWORD PTR __$EHRec$[ebp], esp
	mov	DWORD PTR _this$[ebp], ecx

; 2183 : 		size_type _Newres = _Newsize | this->_ALLOC_MASK;

	mov	eax, DWORD PTR __Newsize$[ebp]
	or	eax, 15					; 0000000fH
	mov	DWORD PTR __Newres$[ebp], eax

; 2184 : 		if (max_size() < _Newres)

	mov	ecx, DWORD PTR _this$[ebp]
	call	?max_size@?$basic_string@DU?$char_traits@D@std@@V?$allocator@D@2@@std@@QBEIXZ ; std::basic_string<char,std::char_traits<char>,std::allocator<char> >::max_size
	cmp	eax, DWORD PTR __Newres$[ebp]
	jae	SHORT $LN9@Copy

; 2185 : 			_Newres = _Newsize;	// undo roundup if too big

	mov	ecx, DWORD PTR __Newsize$[ebp]
	mov	DWORD PTR __Newres$[ebp], ecx
	jmp	SHORT $LN8@Copy
$LN9@Copy:

; 2186 : 		else if (this->_Myres / 2 <= _Newres / 3)

	mov	eax, DWORD PTR __Newres$[ebp]
	xor	edx, edx
	mov	ecx, 3
	div	ecx
	mov	edx, DWORD PTR _this$[ebp]
	mov	ecx, DWORD PTR [edx+20]
	shr	ecx, 1
	cmp	ecx, eax
	ja	SHORT $LN7@Copy
	jmp	SHORT $LN8@Copy
$LN7@Copy:

; 2187 : 			;
; 2188 : 		else if (this->_Myres <= max_size() - this->_Myres / 2)

	mov	edx, DWORD PTR _this$[ebp]
	mov	esi, DWORD PTR [edx+20]
	shr	esi, 1
	mov	ecx, DWORD PTR _this$[ebp]
	call	?max_size@?$basic_string@DU?$char_traits@D@std@@V?$allocator@D@2@@std@@QBEIXZ ; std::basic_string<char,std::char_traits<char>,std::allocator<char> >::max_size
	sub	eax, esi
	mov	ecx, DWORD PTR _this$[ebp]
	cmp	DWORD PTR [ecx+20], eax
	ja	SHORT $LN5@Copy

; 2189 : 			_Newres = this->_Myres
; 2190 : 				+ this->_Myres / 2;	// grow exponentially if possible

	mov	edx, DWORD PTR _this$[ebp]
	mov	eax, DWORD PTR [edx+20]
	shr	eax, 1
	mov	ecx, DWORD PTR _this$[ebp]
	add	eax, DWORD PTR [ecx+20]
	mov	DWORD PTR __Newres$[ebp], eax

; 2191 : 		else

	jmp	SHORT $LN8@Copy
$LN5@Copy:

; 2192 : 			_Newres = max_size();	// settle for max_size()

	mov	ecx, DWORD PTR _this$[ebp]
	call	?max_size@?$basic_string@DU?$char_traits@D@std@@V?$allocator@D@2@@std@@QBEIXZ ; std::basic_string<char,std::char_traits<char>,std::allocator<char> >::max_size
	mov	DWORD PTR __Newres$[ebp], eax
$LN8@Copy:

; 2193 : 
; 2194 : 		_Elem *_Ptr;
; 2195 : 		_TRY_BEGIN

	mov	DWORD PTR __$EHRec$[ebp+12], 0

; 2196 : 			_Ptr = this->_Getal().allocate(_Newres + 1);

	lea	edx, DWORD PTR $T4[ebp]
	push	edx
	mov	ecx, DWORD PTR _this$[ebp]
	call	?_Getal@?$_String_alloc@$0A@U?$_String_base_types@DV?$allocator@D@std@@@std@@@std@@QBE?AU?$_Wrap_alloc@V?$allocator@D@std@@@2@XZ ; std::_String_alloc<0,std::_String_base_types<char,std::allocator<char> > >::_Getal
	mov	DWORD PTR tv202[ebp], eax
	mov	eax, DWORD PTR __Newres$[ebp]
	add	eax, 1
	push	eax
	mov	ecx, DWORD PTR tv202[ebp]
	call	?allocate@?$_Wrap_alloc@V?$allocator@D@std@@@std@@QAEPADI@Z ; std::_Wrap_alloc<std::allocator<char> >::allocate
	mov	DWORD PTR tv203[ebp], eax
	mov	ecx, DWORD PTR tv203[ebp]
	mov	DWORD PTR __Ptr$[ebp], ecx
	jmp	SHORT $LN12@Copy
__catch$?_Copy@?$basic_string@DU?$char_traits@D@std@@V?$allocator@D@2@@std@@QAEXII@Z$0:

; 2197 : 		_CATCH_ALL

	mov	DWORD PTR __$EHRec$[ebp], esp

; 2198 : 			_Newres = _Newsize;	// allocation failed, undo roundup and retry

	mov	edx, DWORD PTR __Newsize$[ebp]
	mov	DWORD PTR __Newres$[ebp], edx

; 2199 : 			_TRY_BEGIN

	mov	BYTE PTR __$EHRec$[ebp+12], 2

; 2200 : 				_Ptr = this->_Getal().allocate(_Newres + 1);

	lea	eax, DWORD PTR $T3[ebp]
	push	eax
	mov	ecx, DWORD PTR _this$[ebp]
	call	?_Getal@?$_String_alloc@$0A@U?$_String_base_types@DV?$allocator@D@std@@@std@@@std@@QBE?AU?$_Wrap_alloc@V?$allocator@D@std@@@2@XZ ; std::_String_alloc<0,std::_String_base_types<char,std::allocator<char> > >::_Getal
	mov	DWORD PTR tv204[ebp], eax
	mov	ecx, DWORD PTR __Newres$[ebp]
	add	ecx, 1
	push	ecx
	mov	ecx, DWORD PTR tv204[ebp]
	call	?allocate@?$_Wrap_alloc@V?$allocator@D@std@@@std@@QAEPADI@Z ; std::_Wrap_alloc<std::allocator<char> >::allocate
	mov	DWORD PTR tv205[ebp], eax
	mov	edx, DWORD PTR tv205[ebp]
	mov	DWORD PTR __Ptr$[ebp], edx
	jmp	SHORT $LN14@Copy
__catch$?_Copy@?$basic_string@DU?$char_traits@D@std@@V?$allocator@D@2@@std@@QAEXII@Z$1:

; 2201 : 			_CATCH_ALL
; 2202 : 			_Tidy(true);	// failed again, discard storage and reraise

	push	0
	push	1
	mov	ecx, DWORD PTR _this$[ebp]
	call	?_Tidy@?$basic_string@DU?$char_traits@D@std@@V?$allocator@D@2@@std@@QAEX_NI@Z ; std::basic_string<char,std::char_traits<char>,std::allocator<char> >::_Tidy

; 2203 : 			_RERAISE;

	push	0
	push	0
	call	__CxxThrowException@8

; 2204 : 			_CATCH_END

	mov	eax, $LN17@Copy
	ret	0
$LN14@Copy:
	mov	DWORD PTR __$EHRec$[ebp+12], 1
	jmp	SHORT __tryend$?_Copy@?$basic_string@DU?$char_traits@D@std@@V?$allocator@D@2@@std@@QAEXII@Z$2
$LN17@Copy:
	mov	DWORD PTR __$EHRec$[ebp+12], 1
__tryend$?_Copy@?$basic_string@DU?$char_traits@D@std@@V?$allocator@D@2@@std@@QAEXII@Z$2:

; 2205 : 		_CATCH_END

	mov	eax, $LN19@Copy
	ret	0
$LN12@Copy:
	mov	DWORD PTR __$EHRec$[ebp+12], -1
	jmp	SHORT __tryend$?_Copy@?$basic_string@DU?$char_traits@D@std@@V?$allocator@D@2@@std@@QAEXII@Z$3
$LN19@Copy:
	mov	DWORD PTR __$EHRec$[ebp+12], -1
__tryend$?_Copy@?$basic_string@DU?$char_traits@D@std@@V?$allocator@D@2@@std@@QAEXII@Z$3:

; 2206 : 
; 2207 : 		if (0 < _Oldlen)

	cmp	DWORD PTR __Oldlen$[ebp], 0
	jbe	SHORT $LN1@Copy

; 2208 : 			_Traits::copy(_Ptr, this->_Myptr(),
; 2209 : 				_Oldlen);	// copy existing elements

	mov	eax, DWORD PTR __Oldlen$[ebp]
	push	eax
	mov	ecx, DWORD PTR _this$[ebp]
	call	?_Myptr@?$_String_val@U?$_Simple_types@D@std@@@std@@QAEPADXZ ; std::_String_val<std::_Simple_types<char> >::_Myptr
	push	eax
	mov	ecx, DWORD PTR __Ptr$[ebp]
	push	ecx
	call	?copy@?$char_traits@D@std@@SAPADPADPBDI@Z ; std::char_traits<char>::copy
	add	esp, 12					; 0000000cH
$LN1@Copy:

; 2210 : 		_Tidy(true);

	push	0
	push	1
	mov	ecx, DWORD PTR _this$[ebp]
	call	?_Tidy@?$basic_string@DU?$char_traits@D@std@@V?$allocator@D@2@@std@@QAEX_NI@Z ; std::basic_string<char,std::char_traits<char>,std::allocator<char> >::_Tidy

; 2211 : 		this->_Getal().construct(&this->_Bx._Ptr, _Ptr);

	lea	edx, DWORD PTR __Ptr$[ebp]
	push	edx
	mov	eax, DWORD PTR _this$[ebp]
	push	eax
	lea	ecx, DWORD PTR $T2[ebp]
	push	ecx
	mov	ecx, DWORD PTR _this$[ebp]
	call	?_Getal@?$_String_alloc@$0A@U?$_String_base_types@DV?$allocator@D@std@@@std@@@std@@QBE?AU?$_Wrap_alloc@V?$allocator@D@std@@@2@XZ ; std::_String_alloc<0,std::_String_base_types<char,std::allocator<char> > >::_Getal
	mov	ecx, eax
	call	??$construct@PADAAPAD@?$_Wrap_alloc@V?$allocator@D@std@@@std@@QAEXPAPADAAPAD@Z ; std::_Wrap_alloc<std::allocator<char> >::construct<char *,char * &>

; 2212 : 		this->_Myres = _Newres;

	mov	edx, DWORD PTR _this$[ebp]
	mov	eax, DWORD PTR __Newres$[ebp]
	mov	DWORD PTR [edx+20], eax

; 2213 : 		_Eos(_Oldlen);

	mov	ecx, DWORD PTR __Oldlen$[ebp]
	push	ecx
	mov	ecx, DWORD PTR _this$[ebp]
	call	?_Eos@?$basic_string@DU?$char_traits@D@std@@V?$allocator@D@2@@std@@QAEXI@Z ; std::basic_string<char,std::char_traits<char>,std::allocator<char> >::_Eos
$LN11@Copy:

; 2214 : 		}

	mov	ecx, DWORD PTR __$EHRec$[ebp+4]
	mov	DWORD PTR fs:0, ecx
	pop	ecx
	pop	edi
	pop	esi
	pop	ebx
	mov	esp, ebp
	pop	ebp
	ret	8
_TEXT	ENDS
;	COMDAT text$x
text$x	SEGMENT
__ehhandler$?_Copy@?$basic_string@DU?$char_traits@D@std@@V?$allocator@D@2@@std@@QAEXII@Z:
	mov	edx, DWORD PTR [esp+8]
	lea	eax, DWORD PTR [edx+12]
	mov	ecx, DWORD PTR [edx-52]
	xor	ecx, eax
	call	@__security_check_cookie@4
	mov	eax, OFFSET __ehfuncinfo$?_Copy@?$basic_string@DU?$char_traits@D@std@@V?$allocator@D@2@@std@@QAEXII@Z
	jmp	___CxxFrameHandler3
text$x	ENDS
?_Copy@?$basic_string@DU?$char_traits@D@std@@V?$allocator@D@2@@std@@QAEXII@Z ENDP ; std::basic_string<char,std::char_traits<char>,std::allocator<char> >::_Copy
; Function compile flags: /Odtp
; File c:\program files (x86)\microsoft visual studio 11.0\vc\include\xstring
;	COMDAT ?max_size@?$basic_string@DU?$char_traits@D@std@@V?$allocator@D@2@@std@@QBEIXZ
_TEXT	SEGMENT
_this$ = -16						; size = 4
tv75 = -12						; size = 4
__Num$ = -8						; size = 4
$T1 = -1						; size = 1
?max_size@?$basic_string@DU?$char_traits@D@std@@V?$allocator@D@2@@std@@QBEIXZ PROC ; std::basic_string<char,std::char_traits<char>,std::allocator<char> >::max_size, COMDAT
; _this$ = ecx

; 1737 : 		{	// return maximum possible length of sequence

	push	ebp
	mov	ebp, esp
	sub	esp, 16					; 00000010H
	mov	DWORD PTR _this$[ebp], ecx

; 1738 : 		size_type _Num = this->_Getal().max_size();

	lea	eax, DWORD PTR $T1[ebp]
	push	eax
	mov	ecx, DWORD PTR _this$[ebp]
	call	?_Getal@?$_String_alloc@$0A@U?$_String_base_types@DV?$allocator@D@std@@@std@@@std@@QBE?AU?$_Wrap_alloc@V?$allocator@D@std@@@2@XZ ; std::_String_alloc<0,std::_String_base_types<char,std::allocator<char> > >::_Getal
	mov	ecx, eax
	call	?max_size@?$_Wrap_alloc@V?$allocator@D@std@@@std@@QBEIXZ ; std::_Wrap_alloc<std::allocator<char> >::max_size
	mov	DWORD PTR __Num$[ebp], eax

; 1739 : 		return (_Num <= 1 ? 1 : _Num - 1);

	cmp	DWORD PTR __Num$[ebp], 1
	ja	SHORT $LN3@max_size
	mov	DWORD PTR tv75[ebp], 1
	jmp	SHORT $LN4@max_size
$LN3@max_size:
	mov	ecx, DWORD PTR __Num$[ebp]
	sub	ecx, 1
	mov	DWORD PTR tv75[ebp], ecx
$LN4@max_size:
	mov	eax, DWORD PTR tv75[ebp]

; 1740 : 		}

	mov	esp, ebp
	pop	ebp
	ret	0
?max_size@?$basic_string@DU?$char_traits@D@std@@V?$allocator@D@2@@std@@QBEIXZ ENDP ; std::basic_string<char,std::char_traits<char>,std::allocator<char> >::max_size
_TEXT	ENDS
; Function compile flags: /Odtp
; File c:\program files (x86)\microsoft visual studio 11.0\vc\include\xstring
;	COMDAT ?size@?$basic_string@DU?$char_traits@D@std@@V?$allocator@D@2@@std@@QBEIXZ
_TEXT	SEGMENT
_this$ = -4						; size = 4
?size@?$basic_string@DU?$char_traits@D@std@@V?$allocator@D@2@@std@@QBEIXZ PROC ; std::basic_string<char,std::char_traits<char>,std::allocator<char> >::size, COMDAT
; _this$ = ecx

; 1732 : 		{	// return length of sequence

	push	ebp
	mov	ebp, esp
	push	ecx
	mov	DWORD PTR _this$[ebp], ecx

; 1733 : 		return (this->_Mysize);

	mov	eax, DWORD PTR _this$[ebp]
	mov	eax, DWORD PTR [eax+16]

; 1734 : 		}

	mov	esp, ebp
	pop	ebp
	ret	0
?size@?$basic_string@DU?$char_traits@D@std@@V?$allocator@D@2@@std@@QBEIXZ ENDP ; std::basic_string<char,std::char_traits<char>,std::allocator<char> >::size
_TEXT	ENDS
; Function compile flags: /Odtp
; File c:\program files (x86)\microsoft visual studio 11.0\vc\include\xstring
;	COMDAT ?erase@?$basic_string@DU?$char_traits@D@std@@V?$allocator@D@2@@std@@QAEAAV12@II@Z
_TEXT	SEGMENT
__Newsize$1 = -12					; size = 4
__Ptr$2 = -8						; size = 4
_this$ = -4						; size = 4
__Off$ = 8						; size = 4
__Count$ = 12						; size = 4
?erase@?$basic_string@DU?$char_traits@D@std@@V?$allocator@D@2@@std@@QAEAAV12@II@Z PROC ; std::basic_string<char,std::char_traits<char>,std::allocator<char> >::erase, COMDAT
; _this$ = ecx

; 1317 : 		{	// erase elements [_Off, _Off + _Count)

	push	ebp
	mov	ebp, esp
	sub	esp, 12					; 0000000cH
	mov	DWORD PTR _this$[ebp], ecx

; 1318 : 		if (this->_Mysize < _Off)

	mov	eax, DWORD PTR _this$[ebp]
	mov	ecx, DWORD PTR [eax+16]
	cmp	ecx, DWORD PTR __Off$[ebp]
	jae	SHORT $LN4@erase

; 1319 : 			_Xran();	// _Off off end

	mov	ecx, DWORD PTR _this$[ebp]
	call	?_Xran@?$basic_string@DU?$char_traits@D@std@@V?$allocator@D@2@@std@@QBEXXZ ; std::basic_string<char,std::char_traits<char>,std::allocator<char> >::_Xran
$LN4@erase:

; 1320 : 		if (this->_Mysize - _Off <= _Count)

	mov	edx, DWORD PTR _this$[ebp]
	mov	eax, DWORD PTR [edx+16]
	sub	eax, DWORD PTR __Off$[ebp]
	cmp	eax, DWORD PTR __Count$[ebp]
	ja	SHORT $LN3@erase

; 1321 : 			_Eos(_Off);	// erase elements [_Off, ...)

	mov	ecx, DWORD PTR __Off$[ebp]
	push	ecx
	mov	ecx, DWORD PTR _this$[ebp]
	call	?_Eos@?$basic_string@DU?$char_traits@D@std@@V?$allocator@D@2@@std@@QAEXI@Z ; std::basic_string<char,std::char_traits<char>,std::allocator<char> >::_Eos
	jmp	SHORT $LN2@erase
$LN3@erase:

; 1322 : 		else if (0 < _Count)

	cmp	DWORD PTR __Count$[ebp], 0
	jbe	SHORT $LN2@erase

; 1323 : 			{	// move elements down
; 1324 : 			value_type *_Ptr = this->_Myptr() + _Off;

	mov	ecx, DWORD PTR _this$[ebp]
	call	?_Myptr@?$_String_val@U?$_Simple_types@D@std@@@std@@QAEPADXZ ; std::_String_val<std::_Simple_types<char> >::_Myptr
	add	eax, DWORD PTR __Off$[ebp]
	mov	DWORD PTR __Ptr$2[ebp], eax

; 1325 : 			size_type _Newsize = this->_Mysize - _Count;

	mov	edx, DWORD PTR _this$[ebp]
	mov	eax, DWORD PTR [edx+16]
	sub	eax, DWORD PTR __Count$[ebp]
	mov	DWORD PTR __Newsize$1[ebp], eax

; 1326 : 			_Traits::move(_Ptr, _Ptr + _Count, _Newsize - _Off);

	mov	ecx, DWORD PTR __Newsize$1[ebp]
	sub	ecx, DWORD PTR __Off$[ebp]
	push	ecx
	mov	edx, DWORD PTR __Ptr$2[ebp]
	add	edx, DWORD PTR __Count$[ebp]
	push	edx
	mov	eax, DWORD PTR __Ptr$2[ebp]
	push	eax
	call	?move@?$char_traits@D@std@@SAPADPADPBDI@Z ; std::char_traits<char>::move
	add	esp, 12					; 0000000cH

; 1327 : 			_Eos(_Newsize);

	mov	ecx, DWORD PTR __Newsize$1[ebp]
	push	ecx
	mov	ecx, DWORD PTR _this$[ebp]
	call	?_Eos@?$basic_string@DU?$char_traits@D@std@@V?$allocator@D@2@@std@@QAEXI@Z ; std::basic_string<char,std::char_traits<char>,std::allocator<char> >::_Eos
$LN2@erase:

; 1328 : 			}
; 1329 : 		return (*this);

	mov	eax, DWORD PTR _this$[ebp]
$LN6@erase:

; 1330 : 		}

	mov	esp, ebp
	pop	ebp
	ret	8
?erase@?$basic_string@DU?$char_traits@D@std@@V?$allocator@D@2@@std@@QAEAAV12@II@Z ENDP ; std::basic_string<char,std::char_traits<char>,std::allocator<char> >::erase
_TEXT	ENDS
; Function compile flags: /Odtp
; File c:\program files (x86)\microsoft visual studio 11.0\vc\include\xstring
;	COMDAT ?erase@?$basic_string@DU?$char_traits@D@std@@V?$allocator@D@2@@std@@QAEAAV12@I@Z
_TEXT	SEGMENT
_this$ = -4						; size = 4
__Off$ = 8						; size = 4
?erase@?$basic_string@DU?$char_traits@D@std@@V?$allocator@D@2@@std@@QAEAAV12@I@Z PROC ; std::basic_string<char,std::char_traits<char>,std::allocator<char> >::erase, COMDAT
; _this$ = ecx

; 1309 : 		{	// erase elements [_Off, ...)

	push	ebp
	mov	ebp, esp
	push	ecx
	mov	DWORD PTR _this$[ebp], ecx

; 1310 : 		if (this->_Mysize < _Off)

	mov	eax, DWORD PTR _this$[ebp]
	mov	ecx, DWORD PTR [eax+16]
	cmp	ecx, DWORD PTR __Off$[ebp]
	jae	SHORT $LN1@erase

; 1311 : 			_Xran();	// _Off off end

	mov	ecx, DWORD PTR _this$[ebp]
	call	?_Xran@?$basic_string@DU?$char_traits@D@std@@V?$allocator@D@2@@std@@QBEXXZ ; std::basic_string<char,std::char_traits<char>,std::allocator<char> >::_Xran
$LN1@erase:

; 1312 : 		_Eos(_Off);

	mov	edx, DWORD PTR __Off$[ebp]
	push	edx
	mov	ecx, DWORD PTR _this$[ebp]
	call	?_Eos@?$basic_string@DU?$char_traits@D@std@@V?$allocator@D@2@@std@@QAEXI@Z ; std::basic_string<char,std::char_traits<char>,std::allocator<char> >::_Eos

; 1313 : 		return (*this);

	mov	eax, DWORD PTR _this$[ebp]
$LN3@erase:

; 1314 : 		}

	mov	esp, ebp
	pop	ebp
	ret	4
?erase@?$basic_string@DU?$char_traits@D@std@@V?$allocator@D@2@@std@@QAEAAV12@I@Z ENDP ; std::basic_string<char,std::char_traits<char>,std::allocator<char> >::erase
_TEXT	ENDS
; Function compile flags: /Odtp
; File c:\program files (x86)\microsoft visual studio 11.0\vc\include\xstring
;	COMDAT ?assign@?$basic_string@DU?$char_traits@D@std@@V?$allocator@D@2@@std@@QAEAAV12@PBD@Z
_TEXT	SEGMENT
_this$ = -4						; size = 4
__Ptr$ = 8						; size = 4
?assign@?$basic_string@DU?$char_traits@D@std@@V?$allocator@D@2@@std@@QAEAAV12@PBD@Z PROC ; std::basic_string<char,std::char_traits<char>,std::allocator<char> >::assign, COMDAT
; _this$ = ecx

; 1142 : 		{	// assign [_Ptr, <null>)

	push	ebp
	mov	ebp, esp
	push	ecx
	mov	DWORD PTR _this$[ebp], ecx

; 1143 : 		_DEBUG_POINTER(_Ptr);
; 1144 : 		return (assign(_Ptr, _Traits::length(_Ptr)));

	mov	eax, DWORD PTR __Ptr$[ebp]
	push	eax
	call	?length@?$char_traits@D@std@@SAIPBD@Z	; std::char_traits<char>::length
	add	esp, 4
	push	eax
	mov	ecx, DWORD PTR __Ptr$[ebp]
	push	ecx
	mov	ecx, DWORD PTR _this$[ebp]
	call	?assign@?$basic_string@DU?$char_traits@D@std@@V?$allocator@D@2@@std@@QAEAAV12@PBDI@Z ; std::basic_string<char,std::char_traits<char>,std::allocator<char> >::assign

; 1145 : 		}

	mov	esp, ebp
	pop	ebp
	ret	4
?assign@?$basic_string@DU?$char_traits@D@std@@V?$allocator@D@2@@std@@QAEAAV12@PBD@Z ENDP ; std::basic_string<char,std::char_traits<char>,std::allocator<char> >::assign
_TEXT	ENDS
; Function compile flags: /Odtp
; File c:\program files (x86)\microsoft visual studio 11.0\vc\include\xstring
;	COMDAT ?assign@?$basic_string@DU?$char_traits@D@std@@V?$allocator@D@2@@std@@QAEAAV12@PBDI@Z
_TEXT	SEGMENT
_this$ = -4						; size = 4
__Ptr$ = 8						; size = 4
__Count$ = 12						; size = 4
?assign@?$basic_string@DU?$char_traits@D@std@@V?$allocator@D@2@@std@@QAEAAV12@PBDI@Z PROC ; std::basic_string<char,std::char_traits<char>,std::allocator<char> >::assign, COMDAT
; _this$ = ecx

; 1123 : 		{	// assign [_Ptr, _Ptr + _Count)

	push	ebp
	mov	ebp, esp
	push	ecx
	mov	DWORD PTR _this$[ebp], ecx

; 1124 :  #if _ITERATOR_DEBUG_LEVEL == 2
; 1125 : 		if (_Count != 0)
; 1126 : 			_DEBUG_POINTER(_Ptr);
; 1127 :  #endif /* _ITERATOR_DEBUG_LEVEL == 2 */
; 1128 : 
; 1129 : 		if (_Inside(_Ptr))

	mov	eax, DWORD PTR __Ptr$[ebp]
	push	eax
	mov	ecx, DWORD PTR _this$[ebp]
	call	?_Inside@?$basic_string@DU?$char_traits@D@std@@V?$allocator@D@2@@std@@QAE_NPBD@Z ; std::basic_string<char,std::char_traits<char>,std::allocator<char> >::_Inside
	movzx	ecx, al
	test	ecx, ecx
	je	SHORT $LN2@assign

; 1130 : 			return (assign(*this,
; 1131 : 				_Ptr - this->_Myptr(), _Count));	// substring

	mov	edx, DWORD PTR __Count$[ebp]
	push	edx
	mov	ecx, DWORD PTR _this$[ebp]
	call	?_Myptr@?$_String_val@U?$_Simple_types@D@std@@@std@@QAEPADXZ ; std::_String_val<std::_Simple_types<char> >::_Myptr
	mov	ecx, DWORD PTR __Ptr$[ebp]
	sub	ecx, eax
	push	ecx
	mov	edx, DWORD PTR _this$[ebp]
	push	edx
	mov	ecx, DWORD PTR _this$[ebp]
	call	?assign@?$basic_string@DU?$char_traits@D@std@@V?$allocator@D@2@@std@@QAEAAV12@ABV12@II@Z ; std::basic_string<char,std::char_traits<char>,std::allocator<char> >::assign
	jmp	SHORT $LN3@assign
$LN2@assign:

; 1132 : 
; 1133 : 		if (_Grow(_Count))

	push	0
	mov	eax, DWORD PTR __Count$[ebp]
	push	eax
	mov	ecx, DWORD PTR _this$[ebp]
	call	?_Grow@?$basic_string@DU?$char_traits@D@std@@V?$allocator@D@2@@std@@QAE_NI_N@Z ; std::basic_string<char,std::char_traits<char>,std::allocator<char> >::_Grow
	movzx	ecx, al
	test	ecx, ecx
	je	SHORT $LN1@assign

; 1134 : 			{	// make room and assign new stuff
; 1135 : 			_Traits::copy(this->_Myptr(), _Ptr, _Count);

	mov	edx, DWORD PTR __Count$[ebp]
	push	edx
	mov	eax, DWORD PTR __Ptr$[ebp]
	push	eax
	mov	ecx, DWORD PTR _this$[ebp]
	call	?_Myptr@?$_String_val@U?$_Simple_types@D@std@@@std@@QAEPADXZ ; std::_String_val<std::_Simple_types<char> >::_Myptr
	push	eax
	call	?copy@?$char_traits@D@std@@SAPADPADPBDI@Z ; std::char_traits<char>::copy
	add	esp, 12					; 0000000cH

; 1136 : 			_Eos(_Count);

	mov	ecx, DWORD PTR __Count$[ebp]
	push	ecx
	mov	ecx, DWORD PTR _this$[ebp]
	call	?_Eos@?$basic_string@DU?$char_traits@D@std@@V?$allocator@D@2@@std@@QAEXI@Z ; std::basic_string<char,std::char_traits<char>,std::allocator<char> >::_Eos
$LN1@assign:

; 1137 : 			}
; 1138 : 		return (*this);

	mov	eax, DWORD PTR _this$[ebp]
$LN3@assign:

; 1139 : 		}

	mov	esp, ebp
	pop	ebp
	ret	8
?assign@?$basic_string@DU?$char_traits@D@std@@V?$allocator@D@2@@std@@QAEAAV12@PBDI@Z ENDP ; std::basic_string<char,std::char_traits<char>,std::allocator<char> >::assign
_TEXT	ENDS
; Function compile flags: /Odtp
; File c:\program files (x86)\microsoft visual studio 11.0\vc\include\xstring
;	COMDAT ?assign@?$basic_string@DU?$char_traits@D@std@@V?$allocator@D@2@@std@@QAEAAV12@ABV12@II@Z
_TEXT	SEGMENT
__Num$ = -8						; size = 4
_this$ = -4						; size = 4
__Right$ = 8						; size = 4
__Roff$ = 12						; size = 4
__Count$ = 16						; size = 4
?assign@?$basic_string@DU?$char_traits@D@std@@V?$allocator@D@2@@std@@QAEAAV12@ABV12@II@Z PROC ; std::basic_string<char,std::char_traits<char>,std::allocator<char> >::assign, COMDAT
; _this$ = ecx

; 1104 : 		{	// assign _Right [_Roff, _Roff + _Count)

	push	ebp
	mov	ebp, esp
	sub	esp, 8
	mov	DWORD PTR _this$[ebp], ecx

; 1105 : 		if (_Right.size() < _Roff)

	mov	ecx, DWORD PTR __Right$[ebp]
	call	?size@?$basic_string@DU?$char_traits@D@std@@V?$allocator@D@2@@std@@QBEIXZ ; std::basic_string<char,std::char_traits<char>,std::allocator<char> >::size
	cmp	eax, DWORD PTR __Roff$[ebp]
	jae	SHORT $LN5@assign

; 1106 : 			_Xran();	// _Roff off end

	mov	ecx, DWORD PTR _this$[ebp]
	call	?_Xran@?$basic_string@DU?$char_traits@D@std@@V?$allocator@D@2@@std@@QBEXXZ ; std::basic_string<char,std::char_traits<char>,std::allocator<char> >::_Xran
$LN5@assign:

; 1107 : 		size_type _Num = _Right.size() - _Roff;

	mov	ecx, DWORD PTR __Right$[ebp]
	call	?size@?$basic_string@DU?$char_traits@D@std@@V?$allocator@D@2@@std@@QBEIXZ ; std::basic_string<char,std::char_traits<char>,std::allocator<char> >::size
	sub	eax, DWORD PTR __Roff$[ebp]
	mov	DWORD PTR __Num$[ebp], eax

; 1108 : 		if (_Count < _Num)

	mov	eax, DWORD PTR __Count$[ebp]
	cmp	eax, DWORD PTR __Num$[ebp]
	jae	SHORT $LN4@assign

; 1109 : 			_Num = _Count;	// trim _Num to size

	mov	ecx, DWORD PTR __Count$[ebp]
	mov	DWORD PTR __Num$[ebp], ecx
$LN4@assign:

; 1110 : 
; 1111 : 		if (this == &_Right)

	mov	edx, DWORD PTR _this$[ebp]
	cmp	edx, DWORD PTR __Right$[ebp]
	jne	SHORT $LN3@assign

; 1112 : 			erase((size_type)(_Roff + _Num)), erase(0, _Roff);	// substring

	mov	eax, DWORD PTR __Roff$[ebp]
	add	eax, DWORD PTR __Num$[ebp]
	push	eax
	mov	ecx, DWORD PTR _this$[ebp]
	call	?erase@?$basic_string@DU?$char_traits@D@std@@V?$allocator@D@2@@std@@QAEAAV12@I@Z ; std::basic_string<char,std::char_traits<char>,std::allocator<char> >::erase
	mov	ecx, DWORD PTR __Roff$[ebp]
	push	ecx
	push	0
	mov	ecx, DWORD PTR _this$[ebp]
	call	?erase@?$basic_string@DU?$char_traits@D@std@@V?$allocator@D@2@@std@@QAEAAV12@II@Z ; std::basic_string<char,std::char_traits<char>,std::allocator<char> >::erase
	jmp	SHORT $LN2@assign
$LN3@assign:

; 1113 : 		else if (_Grow(_Num))

	push	0
	mov	edx, DWORD PTR __Num$[ebp]
	push	edx
	mov	ecx, DWORD PTR _this$[ebp]
	call	?_Grow@?$basic_string@DU?$char_traits@D@std@@V?$allocator@D@2@@std@@QAE_NI_N@Z ; std::basic_string<char,std::char_traits<char>,std::allocator<char> >::_Grow
	movzx	eax, al
	test	eax, eax
	je	SHORT $LN2@assign

; 1114 : 			{	// make room and assign new stuff
; 1115 : 			_Traits::copy(this->_Myptr(),
; 1116 : 				_Right._Myptr() + _Roff, _Num);

	mov	ecx, DWORD PTR __Num$[ebp]
	push	ecx
	mov	ecx, DWORD PTR __Right$[ebp]
	call	?_Myptr@?$_String_val@U?$_Simple_types@D@std@@@std@@QBEPBDXZ ; std::_String_val<std::_Simple_types<char> >::_Myptr
	add	eax, DWORD PTR __Roff$[ebp]
	push	eax
	mov	ecx, DWORD PTR _this$[ebp]
	call	?_Myptr@?$_String_val@U?$_Simple_types@D@std@@@std@@QAEPADXZ ; std::_String_val<std::_Simple_types<char> >::_Myptr
	push	eax
	call	?copy@?$char_traits@D@std@@SAPADPADPBDI@Z ; std::char_traits<char>::copy
	add	esp, 12					; 0000000cH

; 1117 : 			_Eos(_Num);

	mov	edx, DWORD PTR __Num$[ebp]
	push	edx
	mov	ecx, DWORD PTR _this$[ebp]
	call	?_Eos@?$basic_string@DU?$char_traits@D@std@@V?$allocator@D@2@@std@@QAEXI@Z ; std::basic_string<char,std::char_traits<char>,std::allocator<char> >::_Eos
$LN2@assign:

; 1118 : 			}
; 1119 : 		return (*this);

	mov	eax, DWORD PTR _this$[ebp]
$LN7@assign:

; 1120 : 		}

	mov	esp, ebp
	pop	ebp
	ret	12					; 0000000cH
?assign@?$basic_string@DU?$char_traits@D@std@@V?$allocator@D@2@@std@@QAEAAV12@ABV12@II@Z ENDP ; std::basic_string<char,std::char_traits<char>,std::allocator<char> >::assign
_TEXT	ENDS
; Function compile flags: /Odtp
; File c:\program files (x86)\microsoft visual studio 11.0\vc\include\xstring
;	COMDAT ??0?$basic_string@DU?$char_traits@D@std@@V?$allocator@D@2@@std@@QAE@PBD@Z
_TEXT	SEGMENT
_this$ = -8						; size = 4
$T1 = -1						; size = 1
__Ptr$ = 8						; size = 4
??0?$basic_string@DU?$char_traits@D@std@@V?$allocator@D@2@@std@@QAE@PBD@Z PROC ; std::basic_string<char,std::char_traits<char>,std::allocator<char> >::basic_string<char,std::char_traits<char>,std::allocator<char> >, COMDAT
; _this$ = ecx

; 791  : 		{	// construct from [_Ptr, <null>)

	push	ebp
	mov	ebp, esp
	sub	esp, 8
	mov	DWORD PTR _this$[ebp], ecx
	lea	ecx, DWORD PTR $T1[ebp]
	call	??0?$allocator@D@std@@QAE@XZ		; std::allocator<char>::allocator<char>
	push	eax
	mov	ecx, DWORD PTR _this$[ebp]
	call	??0?$_String_alloc@$0A@U?$_String_base_types@DV?$allocator@D@std@@@std@@@std@@QAE@ABV?$allocator@D@1@@Z ; std::_String_alloc<0,std::_String_base_types<char,std::allocator<char> > >::_String_alloc<0,std::_String_base_types<char,std::allocator<char> > >

; 792  : 		_Tidy();

	push	0
	push	0
	mov	ecx, DWORD PTR _this$[ebp]
	call	?_Tidy@?$basic_string@DU?$char_traits@D@std@@V?$allocator@D@2@@std@@QAEX_NI@Z ; std::basic_string<char,std::char_traits<char>,std::allocator<char> >::_Tidy

; 793  : 		assign(_Ptr);

	mov	eax, DWORD PTR __Ptr$[ebp]
	push	eax
	mov	ecx, DWORD PTR _this$[ebp]
	call	?assign@?$basic_string@DU?$char_traits@D@std@@V?$allocator@D@2@@std@@QAEAAV12@PBD@Z ; std::basic_string<char,std::char_traits<char>,std::allocator<char> >::assign

; 794  : 		}

	mov	eax, DWORD PTR _this$[ebp]
	mov	esp, ebp
	pop	ebp
	ret	4
??0?$basic_string@DU?$char_traits@D@std@@V?$allocator@D@2@@std@@QAE@PBD@Z ENDP ; std::basic_string<char,std::char_traits<char>,std::allocator<char> >::basic_string<char,std::char_traits<char>,std::allocator<char> >
_TEXT	ENDS
; Function compile flags: /Odtp
; File c:\program files (x86)\microsoft visual studio 11.0\vc\include\xstring
;	COMDAT ?_Getal@?$_String_alloc@$0A@U?$_String_base_types@DV?$allocator@D@std@@@std@@@std@@QBE?AU?$_Wrap_alloc@V?$allocator@D@std@@@2@XZ
_TEXT	SEGMENT
_this$ = -4						; size = 4
___$ReturnUdt$ = 8					; size = 4
?_Getal@?$_String_alloc@$0A@U?$_String_base_types@DV?$allocator@D@std@@@std@@@std@@QBE?AU?$_Wrap_alloc@V?$allocator@D@std@@@2@XZ PROC ; std::_String_alloc<0,std::_String_base_types<char,std::allocator<char> > >::_Getal, COMDAT
; _this$ = ecx

; 688  : 		{	// get reference to allocator

	push	ebp
	mov	ebp, esp
	push	ecx
	mov	DWORD PTR _this$[ebp], ecx

; 689  : 		return (_Alty());

	mov	ecx, DWORD PTR ___$ReturnUdt$[ebp]
	call	??0?$_Wrap_alloc@V?$allocator@D@std@@@std@@QAE@XZ ; std::_Wrap_alloc<std::allocator<char> >::_Wrap_alloc<std::allocator<char> >
	mov	eax, DWORD PTR ___$ReturnUdt$[ebp]

; 690  : 		}

	mov	esp, ebp
	pop	ebp
	ret	4
?_Getal@?$_String_alloc@$0A@U?$_String_base_types@DV?$allocator@D@std@@@std@@@std@@QBE?AU?$_Wrap_alloc@V?$allocator@D@std@@@2@XZ ENDP ; std::_String_alloc<0,std::_String_base_types<char,std::allocator<char> > >::_Getal
_TEXT	ENDS
; Function compile flags: /Odtp
; File c:\program files (x86)\microsoft visual studio 11.0\vc\include\xstring
;	COMDAT ??0?$_String_alloc@$0A@U?$_String_base_types@DV?$allocator@D@std@@@std@@@std@@QAE@ABV?$allocator@D@1@@Z
_TEXT	SEGMENT
_this$ = -4						; size = 4
___formal$ = 8						; size = 4
??0?$_String_alloc@$0A@U?$_String_base_types@DV?$allocator@D@std@@@std@@@std@@QAE@ABV?$allocator@D@1@@Z PROC ; std::_String_alloc<0,std::_String_base_types<char,std::allocator<char> > >::_String_alloc<0,std::_String_base_types<char,std::allocator<char> > >, COMDAT
; _this$ = ecx

; 635  : 	_String_alloc(const _Alloc& = _Alloc())

	push	ebp
	mov	ebp, esp
	push	ecx
	mov	DWORD PTR _this$[ebp], ecx
	mov	ecx, DWORD PTR _this$[ebp]
	call	??0?$_String_val@U?$_Simple_types@D@std@@@std@@QAE@XZ ; std::_String_val<std::_Simple_types<char> >::_String_val<std::_Simple_types<char> >

; 636  : 		{	// construct allocator from _Al
; 637  : 		}

	mov	eax, DWORD PTR _this$[ebp]
	mov	esp, ebp
	pop	ebp
	ret	4
??0?$_String_alloc@$0A@U?$_String_base_types@DV?$allocator@D@std@@@std@@@std@@QAE@ABV?$allocator@D@1@@Z ENDP ; std::_String_alloc<0,std::_String_base_types<char,std::allocator<char> > >::_String_alloc<0,std::_String_base_types<char,std::allocator<char> > >
_TEXT	ENDS
; Function compile flags: /Odtp
; File c:\program files (x86)\microsoft visual studio 11.0\vc\include\xstring
;	COMDAT ?_Myptr@?$_String_val@U?$_Simple_types@D@std@@@std@@QBEPBDXZ
_TEXT	SEGMENT
tv72 = -8						; size = 4
_this$ = -4						; size = 4
?_Myptr@?$_String_val@U?$_Simple_types@D@std@@@std@@QBEPBDXZ PROC ; std::_String_val<std::_Simple_types<char> >::_Myptr, COMDAT
; _this$ = ecx

; 521  : 		{	// determine current pointer to buffer for nonmutable string

	push	ebp
	mov	ebp, esp
	sub	esp, 8
	mov	DWORD PTR _this$[ebp], ecx

; 522  : 		return (this->_BUF_SIZE <= this->_Myres
; 523  : 			? _STD addressof(*this->_Bx._Ptr)
; 524  : 			: this->_Bx._Buf);

	mov	eax, DWORD PTR _this$[ebp]
	cmp	DWORD PTR [eax+20], 16			; 00000010H
	jb	SHORT $LN3@Myptr
	mov	ecx, DWORD PTR _this$[ebp]
	mov	edx, DWORD PTR [ecx]
	push	edx
	call	??$addressof@D@std@@YAPADAAD@Z		; std::addressof<char>
	add	esp, 4
	mov	DWORD PTR tv72[ebp], eax
	jmp	SHORT $LN4@Myptr
$LN3@Myptr:
	mov	eax, DWORD PTR _this$[ebp]
	mov	DWORD PTR tv72[ebp], eax
$LN4@Myptr:
	mov	eax, DWORD PTR tv72[ebp]

; 525  : 		}

	mov	esp, ebp
	pop	ebp
	ret	0
?_Myptr@?$_String_val@U?$_Simple_types@D@std@@@std@@QBEPBDXZ ENDP ; std::_String_val<std::_Simple_types<char> >::_Myptr
_TEXT	ENDS
; Function compile flags: /Odtp
; File c:\program files (x86)\microsoft visual studio 11.0\vc\include\xstring
;	COMDAT ?_Myptr@?$_String_val@U?$_Simple_types@D@std@@@std@@QAEPADXZ
_TEXT	SEGMENT
tv72 = -8						; size = 4
_this$ = -4						; size = 4
?_Myptr@?$_String_val@U?$_Simple_types@D@std@@@std@@QAEPADXZ PROC ; std::_String_val<std::_Simple_types<char> >::_Myptr, COMDAT
; _this$ = ecx

; 514  : 		{	// determine current pointer to buffer for mutable string

	push	ebp
	mov	ebp, esp
	sub	esp, 8
	mov	DWORD PTR _this$[ebp], ecx

; 515  : 		return (this->_BUF_SIZE <= this->_Myres
; 516  : 			? _STD addressof(*this->_Bx._Ptr)
; 517  : 			: this->_Bx._Buf);

	mov	eax, DWORD PTR _this$[ebp]
	cmp	DWORD PTR [eax+20], 16			; 00000010H
	jb	SHORT $LN3@Myptr
	mov	ecx, DWORD PTR _this$[ebp]
	mov	edx, DWORD PTR [ecx]
	push	edx
	call	??$addressof@D@std@@YAPADAAD@Z		; std::addressof<char>
	add	esp, 4
	mov	DWORD PTR tv72[ebp], eax
	jmp	SHORT $LN4@Myptr
$LN3@Myptr:
	mov	eax, DWORD PTR _this$[ebp]
	mov	DWORD PTR tv72[ebp], eax
$LN4@Myptr:
	mov	eax, DWORD PTR tv72[ebp]

; 518  : 		}

	mov	esp, ebp
	pop	ebp
	ret	0
?_Myptr@?$_String_val@U?$_Simple_types@D@std@@@std@@QAEPADXZ ENDP ; std::_String_val<std::_Simple_types<char> >::_Myptr
_TEXT	ENDS
; Function compile flags: /Odtp
; File c:\program files (x86)\microsoft visual studio 11.0\vc\include\xstring
;	COMDAT ??0?$_String_val@U?$_Simple_types@D@std@@@std@@QAE@XZ
_TEXT	SEGMENT
_this$ = -4						; size = 4
??0?$_String_val@U?$_Simple_types@D@std@@@std@@QAE@XZ PROC ; std::_String_val<std::_Simple_types<char> >::_String_val<std::_Simple_types<char> >, COMDAT
; _this$ = ecx

; 496  : 	_String_val()

	push	ebp
	mov	ebp, esp
	push	ecx
	mov	DWORD PTR _this$[ebp], ecx

; 497  : 		{	// initialize values
; 498  : 		_Mysize = 0;

	mov	eax, DWORD PTR _this$[ebp]
	mov	DWORD PTR [eax+16], 0

; 499  : 		_Myres = 0;

	mov	ecx, DWORD PTR _this$[ebp]
	mov	DWORD PTR [ecx+20], 0

; 500  : 		}

	mov	eax, DWORD PTR _this$[ebp]
	mov	esp, ebp
	pop	ebp
	ret	0
??0?$_String_val@U?$_Simple_types@D@std@@@std@@QAE@XZ ENDP ; std::_String_val<std::_Simple_types<char> >::_String_val<std::_Simple_types<char> >
_TEXT	ENDS
; Function compile flags: /Odtp
; File c:\program files (x86)\microsoft visual studio 11.0\vc\include\xmemory0
;	COMDAT ?max_size@?$_Wrap_alloc@V?$allocator@D@std@@@std@@QBEIXZ
_TEXT	SEGMENT
_this$ = -4						; size = 4
?max_size@?$_Wrap_alloc@V?$allocator@D@std@@@std@@QBEIXZ PROC ; std::_Wrap_alloc<std::allocator<char> >::max_size, COMDAT
; _this$ = ecx

; 913  : 		{	// get maximum size

	push	ebp
	mov	ebp, esp
	push	ecx
	mov	DWORD PTR _this$[ebp], ecx

; 914  : 		return (_Mytraits::max_size(*this));

	mov	eax, DWORD PTR _this$[ebp]
	push	eax
	call	?max_size@?$allocator_traits@V?$allocator@D@std@@@std@@SAIABV?$allocator@D@2@@Z ; std::allocator_traits<std::allocator<char> >::max_size
	add	esp, 4

; 915  : 		}

	mov	esp, ebp
	pop	ebp
	ret	0
?max_size@?$_Wrap_alloc@V?$allocator@D@std@@@std@@QBEIXZ ENDP ; std::_Wrap_alloc<std::allocator<char> >::max_size
_TEXT	ENDS
; Function compile flags: /Odtp
; File c:\program files (x86)\microsoft visual studio 11.0\vc\include\xmemory0
;	COMDAT ?deallocate@?$_Wrap_alloc@V?$allocator@D@std@@@std@@QAEXPADI@Z
_TEXT	SEGMENT
_this$ = -4						; size = 4
__Ptr$ = 8						; size = 4
__Count$ = 12						; size = 4
?deallocate@?$_Wrap_alloc@V?$allocator@D@std@@@std@@QAEXPADI@Z PROC ; std::_Wrap_alloc<std::allocator<char> >::deallocate, COMDAT
; _this$ = ecx

; 886  : 		{	// deallocate object at _Ptr, ignore size

	push	ebp
	mov	ebp, esp
	push	ecx
	mov	DWORD PTR _this$[ebp], ecx

; 887  : 		_Mybase::deallocate(_Ptr, _Count);

	mov	eax, DWORD PTR __Count$[ebp]
	push	eax
	mov	ecx, DWORD PTR __Ptr$[ebp]
	push	ecx
	mov	ecx, DWORD PTR _this$[ebp]
	call	?deallocate@?$allocator@D@std@@QAEXPADI@Z ; std::allocator<char>::deallocate

; 888  : 		}

	mov	esp, ebp
	pop	ebp
	ret	8
?deallocate@?$_Wrap_alloc@V?$allocator@D@std@@@std@@QAEXPADI@Z ENDP ; std::_Wrap_alloc<std::allocator<char> >::deallocate
_TEXT	ENDS
; Function compile flags: /Odtp
; File c:\program files (x86)\microsoft visual studio 11.0\vc\include\xmemory0
;	COMDAT ?allocate@?$_Wrap_alloc@V?$allocator@D@std@@@std@@QAEPADI@Z
_TEXT	SEGMENT
_this$ = -4						; size = 4
__Count$ = 8						; size = 4
?allocate@?$_Wrap_alloc@V?$allocator@D@std@@@std@@QAEPADI@Z PROC ; std::_Wrap_alloc<std::allocator<char> >::allocate, COMDAT
; _this$ = ecx

; 875  : 		{	// allocate array of _Count elements

	push	ebp
	mov	ebp, esp
	push	ecx
	mov	DWORD PTR _this$[ebp], ecx

; 876  : 		return (_Mybase::allocate(_Count));

	mov	eax, DWORD PTR __Count$[ebp]
	push	eax
	mov	ecx, DWORD PTR _this$[ebp]
	call	?allocate@?$allocator@D@std@@QAEPADI@Z	; std::allocator<char>::allocate

; 877  : 		}

	mov	esp, ebp
	pop	ebp
	ret	4
?allocate@?$_Wrap_alloc@V?$allocator@D@std@@@std@@QAEPADI@Z ENDP ; std::_Wrap_alloc<std::allocator<char> >::allocate
_TEXT	ENDS
; Function compile flags: /Odtp
; File c:\program files (x86)\microsoft visual studio 11.0\vc\include\xmemory0
;	COMDAT ??0?$_Wrap_alloc@V?$allocator@D@std@@@std@@QAE@XZ
_TEXT	SEGMENT
_this$ = -4						; size = 4
??0?$_Wrap_alloc@V?$allocator@D@std@@@std@@QAE@XZ PROC	; std::_Wrap_alloc<std::allocator<char> >::_Wrap_alloc<std::allocator<char> >, COMDAT
; _this$ = ecx

; 830  : 		{	// construct default allocator (do nothing)

	push	ebp
	mov	ebp, esp
	push	ecx
	mov	DWORD PTR _this$[ebp], ecx
	mov	ecx, DWORD PTR _this$[ebp]
	call	??0?$allocator@D@std@@QAE@XZ		; std::allocator<char>::allocator<char>

; 831  : 		}

	mov	eax, DWORD PTR _this$[ebp]
	mov	esp, ebp
	pop	ebp
	ret	0
??0?$_Wrap_alloc@V?$allocator@D@std@@@std@@QAE@XZ ENDP	; std::_Wrap_alloc<std::allocator<char> >::_Wrap_alloc<std::allocator<char> >
_TEXT	ENDS
; Function compile flags: /Odtp
; File c:\program files (x86)\microsoft visual studio 11.0\vc\include\xmemory0
;	COMDAT ?max_size@?$allocator_traits@V?$allocator@D@std@@@std@@SAIABV?$allocator@D@2@@Z
_TEXT	SEGMENT
__Al$ = 8						; size = 4
?max_size@?$allocator_traits@V?$allocator@D@std@@@std@@SAIABV?$allocator@D@2@@Z PROC ; std::allocator_traits<std::allocator<char> >::max_size, COMDAT

; 761  : 		{	// get maximum size

	push	ebp
	mov	ebp, esp

; 762  : 		return (_Al.max_size());

	mov	ecx, DWORD PTR __Al$[ebp]
	call	?max_size@?$allocator@D@std@@QBEIXZ	; std::allocator<char>::max_size

; 763  : 		}

	pop	ebp
	ret	0
?max_size@?$allocator_traits@V?$allocator@D@std@@@std@@SAIABV?$allocator@D@2@@Z ENDP ; std::allocator_traits<std::allocator<char> >::max_size
_TEXT	ENDS
; Function compile flags: /Odtp
; File c:\program files (x86)\microsoft visual studio 11.0\vc\include\xmemory0
;	COMDAT ?max_size@?$allocator@D@std@@QBEIXZ
_TEXT	SEGMENT
_this$ = -4						; size = 4
?max_size@?$allocator@D@std@@QBEIXZ PROC		; std::allocator<char>::max_size, COMDAT
; _this$ = ecx

; 627  : 		{	// estimate maximum array size

	push	ebp
	mov	ebp, esp
	push	ecx
	mov	DWORD PTR _this$[ebp], ecx

; 628  : 		return ((size_t)(-1) / sizeof (_Ty));

	or	eax, -1

; 629  : 		}

	mov	esp, ebp
	pop	ebp
	ret	0
?max_size@?$allocator@D@std@@QBEIXZ ENDP		; std::allocator<char>::max_size
_TEXT	ENDS
; Function compile flags: /Odtp
; File c:\program files (x86)\microsoft visual studio 11.0\vc\include\xmemory0
;	COMDAT ?allocate@?$allocator@D@std@@QAEPADI@Z
_TEXT	SEGMENT
_this$ = -4						; size = 4
__Count$ = 8						; size = 4
?allocate@?$allocator@D@std@@QAEPADI@Z PROC		; std::allocator<char>::allocate, COMDAT
; _this$ = ecx

; 590  : 		{	// allocate array of _Count elements

	push	ebp
	mov	ebp, esp
	push	ecx
	mov	DWORD PTR _this$[ebp], ecx

; 591  : 		return (_Allocate(_Count, (pointer)0));

	push	0
	mov	eax, DWORD PTR __Count$[ebp]
	push	eax
	call	??$_Allocate@D@std@@YAPADIPAD@Z		; std::_Allocate<char>
	add	esp, 8

; 592  : 		}

	mov	esp, ebp
	pop	ebp
	ret	4
?allocate@?$allocator@D@std@@QAEPADI@Z ENDP		; std::allocator<char>::allocate
_TEXT	ENDS
; Function compile flags: /Odtp
; File c:\program files (x86)\microsoft visual studio 11.0\vc\include\xmemory0
;	COMDAT ?deallocate@?$allocator@D@std@@QAEXPADI@Z
_TEXT	SEGMENT
_this$ = -4						; size = 4
__Ptr$ = 8						; size = 4
___formal$ = 12						; size = 4
?deallocate@?$allocator@D@std@@QAEXPADI@Z PROC		; std::allocator<char>::deallocate, COMDAT
; _this$ = ecx

; 585  : 		{	// deallocate object at _Ptr, ignore size

	push	ebp
	mov	ebp, esp
	push	ecx
	mov	DWORD PTR _this$[ebp], ecx

; 586  : 		::operator delete(_Ptr);

	mov	eax, DWORD PTR __Ptr$[ebp]
	push	eax
	call	??3@YAXPAX@Z				; operator delete
	add	esp, 4

; 587  : 		}

	mov	esp, ebp
	pop	ebp
	ret	8
?deallocate@?$allocator@D@std@@QAEXPADI@Z ENDP		; std::allocator<char>::deallocate
_TEXT	ENDS
; Function compile flags: /Odtp
; File c:\program files (x86)\microsoft visual studio 11.0\vc\include\xmemory0
;	COMDAT ??0?$allocator@D@std@@QAE@XZ
_TEXT	SEGMENT
_this$ = -4						; size = 4
??0?$allocator@D@std@@QAE@XZ PROC			; std::allocator<char>::allocator<char>, COMDAT
; _this$ = ecx

; 565  : 	allocator() _THROW0()

	push	ebp
	mov	ebp, esp
	push	ecx
	mov	DWORD PTR _this$[ebp], ecx

; 566  : 		{	// construct default allocator (do nothing)
; 567  : 		}

	mov	eax, DWORD PTR _this$[ebp]
	mov	esp, ebp
	pop	ebp
	ret	0
??0?$allocator@D@std@@QAE@XZ ENDP			; std::allocator<char>::allocator<char>
_TEXT	ENDS
; Function compile flags: /Odtp
; File c:\program files (x86)\microsoft visual studio 11.0\vc\include\xutility
;	COMDAT ??__Eallocator_arg@std@@YAXXZ
text$yc	SEGMENT
$T1 = -1						; size = 1
??__Eallocator_arg@std@@YAXXZ PROC			; std::`dynamic initializer for 'allocator_arg'', COMDAT

; 3644 : const allocator_arg_t allocator_arg = allocator_arg_t();

	push	ebp
	mov	ebp, esp
	push	ecx
	xor	eax, eax
	mov	BYTE PTR $T1[ebp], al
	mov	esp, ebp
	pop	ebp
	ret	0
??__Eallocator_arg@std@@YAXXZ ENDP			; std::`dynamic initializer for 'allocator_arg''
text$yc	ENDS
; Function compile flags: /Odtp
; File c:\program files (x86)\microsoft visual studio 11.0\vc\include\utility
;	COMDAT ??__Epiecewise_construct@std@@YAXXZ
text$yc	SEGMENT
$T1 = -1						; size = 1
??__Epiecewise_construct@std@@YAXXZ PROC		; std::`dynamic initializer for 'piecewise_construct'', COMDAT

; 65   : 	piecewise_construct_t();

	push	ebp
	mov	ebp, esp
	push	ecx
	xor	eax, eax
	mov	BYTE PTR $T1[ebp], al
	mov	esp, ebp
	pop	ebp
	ret	0
??__Epiecewise_construct@std@@YAXXZ ENDP		; std::`dynamic initializer for 'piecewise_construct''
text$yc	ENDS
; Function compile flags: /Odtp
; File c:\program files (x86)\microsoft visual studio 11.0\vc\include\iosfwd
;	COMDAT ?assign@?$char_traits@D@std@@SAXAADABD@Z
_TEXT	SEGMENT
__Left$ = 8						; size = 4
__Right$ = 12						; size = 4
?assign@?$char_traits@D@std@@SAXAADABD@Z PROC		; std::char_traits<char>::assign, COMDAT

; 563  : 		{	// assign an element

	push	ebp
	mov	ebp, esp

; 564  : 		_Left = _Right;

	mov	eax, DWORD PTR __Left$[ebp]
	mov	ecx, DWORD PTR __Right$[ebp]
	mov	dl, BYTE PTR [ecx]
	mov	BYTE PTR [eax], dl

; 565  : 		}

	pop	ebp
	ret	0
?assign@?$char_traits@D@std@@SAXAADABD@Z ENDP		; std::char_traits<char>::assign
_TEXT	ENDS
; Function compile flags: /Odtp
; File c:\program files (x86)\microsoft visual studio 11.0\vc\include\iosfwd
;	COMDAT ?move@?$char_traits@D@std@@SAPADPADPBDI@Z
_TEXT	SEGMENT
tv69 = -4						; size = 4
__First1$ = 8						; size = 4
__First2$ = 12						; size = 4
__Count$ = 16						; size = 4
?move@?$char_traits@D@std@@SAPADPADPBDI@Z PROC		; std::char_traits<char>::move, COMDAT

; 551  : 		{	// copy [_First2, _First2 + _Count) to [_First1, ...)

	push	ebp
	mov	ebp, esp
	push	ecx

; 552  : 		return (_Count == 0 ? _First1
; 553  : 			: (_Elem *)_CSTD memmove(_First1, _First2, _Count));

	cmp	DWORD PTR __Count$[ebp], 0
	jne	SHORT $LN3@move
	mov	eax, DWORD PTR __First1$[ebp]
	mov	DWORD PTR tv69[ebp], eax
	jmp	SHORT $LN4@move
$LN3@move:
	mov	ecx, DWORD PTR __Count$[ebp]
	push	ecx
	mov	edx, DWORD PTR __First2$[ebp]
	push	edx
	mov	eax, DWORD PTR __First1$[ebp]
	push	eax
	call	_memmove
	add	esp, 12					; 0000000cH
	mov	DWORD PTR tv69[ebp], eax
$LN4@move:
	mov	eax, DWORD PTR tv69[ebp]

; 554  : 		}

	mov	esp, ebp
	pop	ebp
	ret	0
?move@?$char_traits@D@std@@SAPADPADPBDI@Z ENDP		; std::char_traits<char>::move
_TEXT	ENDS
; Function compile flags: /Odtp
; File c:\program files (x86)\microsoft visual studio 11.0\vc\include\iosfwd
;	COMDAT ?copy@?$char_traits@D@std@@SAPADPADPBDI@Z
_TEXT	SEGMENT
tv69 = -4						; size = 4
__First1$ = 8						; size = 4
__First2$ = 12						; size = 4
__Count$ = 16						; size = 4
?copy@?$char_traits@D@std@@SAPADPADPBDI@Z PROC		; std::char_traits<char>::copy, COMDAT

; 528  : 		{	// copy [_First2, _First2 + _Count) to [_First1, ...)

	push	ebp
	mov	ebp, esp
	push	ecx

; 529  : 		return (_Count == 0 ? _First1
; 530  : 			: (_Elem *)_CSTD memcpy(_First1, _First2, _Count));

	cmp	DWORD PTR __Count$[ebp], 0
	jne	SHORT $LN3@copy
	mov	eax, DWORD PTR __First1$[ebp]
	mov	DWORD PTR tv69[ebp], eax
	jmp	SHORT $LN4@copy
$LN3@copy:
	mov	ecx, DWORD PTR __Count$[ebp]
	push	ecx
	mov	edx, DWORD PTR __First2$[ebp]
	push	edx
	mov	eax, DWORD PTR __First1$[ebp]
	push	eax
	call	_memcpy
	add	esp, 12					; 0000000cH
	mov	DWORD PTR tv69[ebp], eax
$LN4@copy:
	mov	eax, DWORD PTR tv69[ebp]

; 531  : 		}

	mov	esp, ebp
	pop	ebp
	ret	0
?copy@?$char_traits@D@std@@SAPADPADPBDI@Z ENDP		; std::char_traits<char>::copy
_TEXT	ENDS
; Function compile flags: /Odtp
; File c:\program files (x86)\microsoft visual studio 11.0\vc\include\iosfwd
;	COMDAT ?length@?$char_traits@D@std@@SAIPBD@Z
_TEXT	SEGMENT
tv68 = -4						; size = 4
__First$ = 8						; size = 4
?length@?$char_traits@D@std@@SAIPBD@Z PROC		; std::char_traits<char>::length, COMDAT

; 521  : 		{	// find length of null-terminated string

	push	ebp
	mov	ebp, esp
	push	ecx

; 522  : 		return (*_First == 0 ? 0
; 523  : 			: _CSTD strlen(_First));

	mov	eax, DWORD PTR __First$[ebp]
	movsx	ecx, BYTE PTR [eax]
	test	ecx, ecx
	jne	SHORT $LN3@length
	mov	DWORD PTR tv68[ebp], 0
	jmp	SHORT $LN4@length
$LN3@length:
	mov	edx, DWORD PTR __First$[ebp]
	push	edx
	call	_strlen
	add	esp, 4
	mov	DWORD PTR tv68[ebp], eax
$LN4@length:
	mov	eax, DWORD PTR tv68[ebp]

; 524  : 		}

	mov	esp, ebp
	pop	ebp
	ret	0
?length@?$char_traits@D@std@@SAIPBD@Z ENDP		; std::char_traits<char>::length
_TEXT	ENDS
; Function compile flags: /Odtp
; File c:\program files (x86)\microsoft visual studio 11.0\vc\include\new
;	COMDAT ??3@YAXPAX0@Z
_TEXT	SEGMENT
___formal$ = 8						; size = 4
___formal$ = 12						; size = 4
??3@YAXPAX0@Z PROC					; operator delete, COMDAT

; 64   : 	{	// delete if placement new fails

	push	ebp
	mov	ebp, esp

; 65   : 	}

	pop	ebp
	ret	0
??3@YAXPAX0@Z ENDP					; operator delete
_TEXT	ENDS
; Function compile flags: /Odtp
; File c:\program files (x86)\microsoft visual studio 11.0\vc\include\new
;	COMDAT ??2@YAPAXIPAX@Z
_TEXT	SEGMENT
___formal$ = 8						; size = 4
__Where$ = 12						; size = 4
??2@YAPAXIPAX@Z PROC					; operator new, COMDAT

; 59   : 	{	// construct array with placement at _Where

	push	ebp
	mov	ebp, esp

; 60   : 	return (_Where);

	mov	eax, DWORD PTR __Where$[ebp]

; 61   : 	}

	pop	ebp
	ret	0
??2@YAPAXIPAX@Z ENDP					; operator new
_TEXT	ENDS
; Function compile flags: /Odtp
; File c:\users\zhitao li\documents\visual studio 2012\projects\freefalcon\vu2\include\vuentity.h
;	COMDAT ?Roll@VuEntity@@QBEMXZ
_TEXT	SEGMENT
_this$ = -4						; size = 4
?Roll@VuEntity@@QBEMXZ PROC				; VuEntity::Roll, COMDAT
; _this$ = ecx

; 166  : 	SM_SCALAR Roll() const { return orient_.roll_; }

	push	ebp
	mov	ebp, esp
	push	ecx
	mov	DWORD PTR _this$[ebp], ecx
	mov	eax, DWORD PTR _this$[ebp]
	fld	DWORD PTR [eax+68]
	mov	esp, ebp
	pop	ebp
	ret	0
?Roll@VuEntity@@QBEMXZ ENDP				; VuEntity::Roll
_TEXT	ENDS
; Function compile flags: /Odtp
; File c:\users\zhitao li\documents\visual studio 2012\projects\freefalcon\vu2\include\vuentity.h
;	COMDAT ?Pitch@VuEntity@@QBEMXZ
_TEXT	SEGMENT
_this$ = -4						; size = 4
?Pitch@VuEntity@@QBEMXZ PROC				; VuEntity::Pitch, COMDAT
; _this$ = ecx

; 165  : 	SM_SCALAR Pitch() const { return orient_.pitch_; }

	push	ebp
	mov	ebp, esp
	push	ecx
	mov	DWORD PTR _this$[ebp], ecx
	mov	eax, DWORD PTR _this$[ebp]
	fld	DWORD PTR [eax+64]
	mov	esp, ebp
	pop	ebp
	ret	0
?Pitch@VuEntity@@QBEMXZ ENDP				; VuEntity::Pitch
_TEXT	ENDS
; Function compile flags: /Odtp
; File c:\program files (x86)\microsoft visual studio 11.0\vc\include\math.h
;	COMDAT ?fabs@@YAMM@Z
_TEXT	SEGMENT
__X$ = 8						; size = 4
?fabs@@YAMM@Z PROC					; fabs, COMDAT

; 517  :         {return (fabsf(_X)); }

	push	ebp
	mov	ebp, esp
	push	ecx
	movss	xmm0, DWORD PTR __X$[ebp]
	movss	DWORD PTR [esp], xmm0
	call	_fabsf
	add	esp, 4
	pop	ebp
	ret	0
?fabs@@YAMM@Z ENDP					; fabs
_TEXT	ENDS
; Function compile flags: /Odtp
; File c:\program files (x86)\microsoft visual studio 11.0\vc\include\math.h
;	COMDAT _fabsf
_TEXT	SEGMENT
tv74 = -12						; size = 8
tv76 = -4						; size = 4
__X$ = 8						; size = 4
_fabsf	PROC						; COMDAT

; 392  :         {return ((float)fabs((double)_X)); }

	push	ebp
	mov	ebp, esp
	sub	esp, 12					; 0000000cH
	cvtss2sd xmm0, DWORD PTR __X$[ebp]
	sub	esp, 8
	movsd	QWORD PTR [esp], xmm0
	call	_fabs
	add	esp, 8
	fstp	QWORD PTR tv74[ebp]
	movsd	xmm0, QWORD PTR tv74[ebp]
	cvtsd2ss xmm0, xmm0
	movss	DWORD PTR tv76[ebp], xmm0
	fld	DWORD PTR tv76[ebp]
	mov	esp, ebp
	pop	ebp
	ret	0
_fabsf	ENDP
_TEXT	ENDS
END
