; Listing generated by Microsoft (R) Optimizing Compiler Version 17.00.51106.1 

	TITLE	C:\Users\Zhitao Li\Documents\Visual Studio 2012\Projects\Freefalcon\Graphics\Objects\draw2d.cpp
	.686P
	.XMM
	include listing.inc
	.model	flat

INCLUDELIB LIBCMT
INCLUDELIB OLDNAMES

PUBLIC	?gTexUV@@3PAUUV@@A				; gTexUV
PUBLIC	?glowCrossVerts@@3PAUTpoint@@A			; glowCrossVerts
PUBLIC	?numGlowCrossVerts@@3HA				; numGlowCrossVerts
PUBLIC	?glowCircleVerts@@3PAUTpoint@@A			; glowCircleVerts
PUBLIC	?numGlowCircleVerts@@3HA			; numGlowCircleVerts
PUBLIC	?glowSquareVerts@@3PAUTpoint@@A			; glowSquareVerts
PUBLIC	?numGlowSquareVerts@@3HA			; numGlowSquareVerts
PUBLIC	?glowStarVerts@@3PAUTpoint@@A			; glowStarVerts
PUBLIC	?numGlowStarVerts@@3HA				; numGlowStarVerts
PUBLIC	?coneDim@@3UTpoint@@A				; coneDim
PUBLIC	?lensFlareVerts@@3PAUTpoint@@A			; lensFlareVerts
PUBLIC	?lensAlphas@@3PAMA				; lensAlphas
PUBLIC	?lensRadius@@3PAMA				; lensRadius
PUBLIC	?lensDist@@3PAMA				; lensDist
PUBLIC	?lensRGB@@3PAUTcolor@@A				; lensRGB
PUBLIC	?lensCenterRGB@@3PAUTcolor@@A			; lensCenterRGB
PUBLIC	?is_signed@?$numeric_limits@_K@std@@2_NB	; std::numeric_limits<unsigned __int64>::is_signed
PUBLIC	?digits@?$numeric_limits@_K@std@@2HB		; std::numeric_limits<unsigned __int64>::digits
PUBLIC	?digits10@?$numeric_limits@_K@std@@2HB		; std::numeric_limits<unsigned __int64>::digits10
PUBLIC	?digits@?$numeric_limits@M@std@@2HB		; std::numeric_limits<float>::digits
PUBLIC	?digits10@?$numeric_limits@M@std@@2HB		; std::numeric_limits<float>::digits10
PUBLIC	?max_digits10@?$numeric_limits@M@std@@2HB	; std::numeric_limits<float>::max_digits10
PUBLIC	?max_exponent@?$numeric_limits@M@std@@2HB	; std::numeric_limits<float>::max_exponent
PUBLIC	?max_exponent10@?$numeric_limits@M@std@@2HB	; std::numeric_limits<float>::max_exponent10
PUBLIC	?min_exponent@?$numeric_limits@M@std@@2HB	; std::numeric_limits<float>::min_exponent
PUBLIC	?min_exponent10@?$numeric_limits@M@std@@2HB	; std::numeric_limits<float>::min_exponent10
PUBLIC	?value@?$integral_constant@I$0A@@std@@2IB	; std::integral_constant<unsigned int,0>::value
PUBLIC	?digits@?$numeric_limits@N@std@@2HB		; std::numeric_limits<double>::digits
PUBLIC	?digits10@?$numeric_limits@N@std@@2HB		; std::numeric_limits<double>::digits10
PUBLIC	?max_digits10@?$numeric_limits@N@std@@2HB	; std::numeric_limits<double>::max_digits10
PUBLIC	?max_exponent@?$numeric_limits@N@std@@2HB	; std::numeric_limits<double>::max_exponent
PUBLIC	?max_exponent10@?$numeric_limits@N@std@@2HB	; std::numeric_limits<double>::max_exponent10
PUBLIC	?min_exponent@?$numeric_limits@N@std@@2HB	; std::numeric_limits<double>::min_exponent
PUBLIC	?min_exponent10@?$numeric_limits@N@std@@2HB	; std::numeric_limits<double>::min_exponent10
PUBLIC	?digits@?$numeric_limits@O@std@@2HB		; std::numeric_limits<long double>::digits
PUBLIC	?digits10@?$numeric_limits@O@std@@2HB		; std::numeric_limits<long double>::digits10
PUBLIC	?max_digits10@?$numeric_limits@O@std@@2HB	; std::numeric_limits<long double>::max_digits10
PUBLIC	?max_exponent@?$numeric_limits@O@std@@2HB	; std::numeric_limits<long double>::max_exponent
PUBLIC	?max_exponent10@?$numeric_limits@O@std@@2HB	; std::numeric_limits<long double>::max_exponent10
PUBLIC	?min_exponent@?$numeric_limits@O@std@@2HB	; std::numeric_limits<long double>::min_exponent
PUBLIC	?min_exponent10@?$numeric_limits@O@std@@2HB	; std::numeric_limits<long double>::min_exponent10
PUBLIC	?value@?$_Sizeof@U_Nil@std@@U12@U12@U12@U12@U12@U12@U12@@std@@2IB ; std::_Sizeof<std::_Nil,std::_Nil,std::_Nil,std::_Nil,std::_Nil,std::_Nil,std::_Nil,std::_Nil>::value
PUBLIC	?skipws@?$_Iosb@H@std@@2W4_Fmtflags@12@B	; std::_Iosb<int>::skipws
PUBLIC	?unitbuf@?$_Iosb@H@std@@2W4_Fmtflags@12@B	; std::_Iosb<int>::unitbuf
PUBLIC	?uppercase@?$_Iosb@H@std@@2W4_Fmtflags@12@B	; std::_Iosb<int>::uppercase
PUBLIC	?showbase@?$_Iosb@H@std@@2W4_Fmtflags@12@B	; std::_Iosb<int>::showbase
PUBLIC	?showpoint@?$_Iosb@H@std@@2W4_Fmtflags@12@B	; std::_Iosb<int>::showpoint
PUBLIC	?showpos@?$_Iosb@H@std@@2W4_Fmtflags@12@B	; std::_Iosb<int>::showpos
PUBLIC	?left@?$_Iosb@H@std@@2W4_Fmtflags@12@B		; std::_Iosb<int>::left
PUBLIC	?right@?$_Iosb@H@std@@2W4_Fmtflags@12@B		; std::_Iosb<int>::right
PUBLIC	?internal@?$_Iosb@H@std@@2W4_Fmtflags@12@B	; std::_Iosb<int>::internal
PUBLIC	?dec@?$_Iosb@H@std@@2W4_Fmtflags@12@B		; std::_Iosb<int>::dec
PUBLIC	?oct@?$_Iosb@H@std@@2W4_Fmtflags@12@B		; std::_Iosb<int>::oct
PUBLIC	?hex@?$_Iosb@H@std@@2W4_Fmtflags@12@B		; std::_Iosb<int>::hex
PUBLIC	?scientific@?$_Iosb@H@std@@2W4_Fmtflags@12@B	; std::_Iosb<int>::scientific
PUBLIC	?fixed@?$_Iosb@H@std@@2W4_Fmtflags@12@B		; std::_Iosb<int>::fixed
PUBLIC	?hexfloat@?$_Iosb@H@std@@2W4_Fmtflags@12@B	; std::_Iosb<int>::hexfloat
PUBLIC	?boolalpha@?$_Iosb@H@std@@2W4_Fmtflags@12@B	; std::_Iosb<int>::boolalpha
PUBLIC	?_Stdio@?$_Iosb@H@std@@2W4_Fmtflags@12@B	; std::_Iosb<int>::_Stdio
PUBLIC	?adjustfield@?$_Iosb@H@std@@2W4_Fmtflags@12@B	; std::_Iosb<int>::adjustfield
PUBLIC	?basefield@?$_Iosb@H@std@@2W4_Fmtflags@12@B	; std::_Iosb<int>::basefield
PUBLIC	?floatfield@?$_Iosb@H@std@@2W4_Fmtflags@12@B	; std::_Iosb<int>::floatfield
PUBLIC	?goodbit@?$_Iosb@H@std@@2W4_Iostate@12@B	; std::_Iosb<int>::goodbit
PUBLIC	?eofbit@?$_Iosb@H@std@@2W4_Iostate@12@B		; std::_Iosb<int>::eofbit
PUBLIC	?failbit@?$_Iosb@H@std@@2W4_Iostate@12@B	; std::_Iosb<int>::failbit
PUBLIC	?has_denorm@_Num_base@std@@2W4float_denorm_style@2@B ; std::_Num_base::has_denorm
PUBLIC	?badbit@?$_Iosb@H@std@@2W4_Iostate@12@B		; std::_Iosb<int>::badbit
PUBLIC	?has_denorm_loss@_Num_base@std@@2_NB		; std::_Num_base::has_denorm_loss
PUBLIC	?_Hardfail@?$_Iosb@H@std@@2W4_Iostate@12@B	; std::_Iosb<int>::_Hardfail
PUBLIC	?has_infinity@_Num_base@std@@2_NB		; std::_Num_base::has_infinity
PUBLIC	?has_quiet_NaN@_Num_base@std@@2_NB		; std::_Num_base::has_quiet_NaN
PUBLIC	?in@?$_Iosb@H@std@@2W4_Openmode@12@B		; std::_Iosb<int>::in
PUBLIC	?out@?$_Iosb@H@std@@2W4_Openmode@12@B		; std::_Iosb<int>::out
PUBLIC	?has_signaling_NaN@_Num_base@std@@2_NB		; std::_Num_base::has_signaling_NaN
PUBLIC	?ate@?$_Iosb@H@std@@2W4_Openmode@12@B		; std::_Iosb<int>::ate
PUBLIC	?is_bounded@_Num_base@std@@2_NB			; std::_Num_base::is_bounded
PUBLIC	?is_exact@_Num_base@std@@2_NB			; std::_Num_base::is_exact
PUBLIC	?app@?$_Iosb@H@std@@2W4_Openmode@12@B		; std::_Iosb<int>::app
PUBLIC	?is_iec559@_Num_base@std@@2_NB			; std::_Num_base::is_iec559
PUBLIC	?trunc@?$_Iosb@H@std@@2W4_Openmode@12@B		; std::_Iosb<int>::trunc
PUBLIC	?_Nocreate@?$_Iosb@H@std@@2W4_Openmode@12@B	; std::_Iosb<int>::_Nocreate
PUBLIC	?is_integer@_Num_base@std@@2_NB			; std::_Num_base::is_integer
PUBLIC	?_Noreplace@?$_Iosb@H@std@@2W4_Openmode@12@B	; std::_Iosb<int>::_Noreplace
PUBLIC	?is_modulo@_Num_base@std@@2_NB			; std::_Num_base::is_modulo
PUBLIC	?is_signed@_Num_base@std@@2_NB			; std::_Num_base::is_signed
PUBLIC	?binary@?$_Iosb@H@std@@2W4_Openmode@12@B	; std::_Iosb<int>::binary
PUBLIC	?is_specialized@_Num_base@std@@2_NB		; std::_Num_base::is_specialized
PUBLIC	?beg@?$_Iosb@H@std@@2W4_Seekdir@12@B		; std::_Iosb<int>::beg
PUBLIC	?tinyness_before@_Num_base@std@@2_NB		; std::_Num_base::tinyness_before
PUBLIC	?cur@?$_Iosb@H@std@@2W4_Seekdir@12@B		; std::_Iosb<int>::cur
PUBLIC	?traps@_Num_base@std@@2_NB			; std::_Num_base::traps
PUBLIC	?end@?$_Iosb@H@std@@2W4_Seekdir@12@B		; std::_Iosb<int>::end
PUBLIC	?round_style@_Num_base@std@@2W4float_round_style@2@B ; std::_Num_base::round_style
PUBLIC	?digits@_Num_base@std@@2HB			; std::_Num_base::digits
PUBLIC	?digits10@_Num_base@std@@2HB			; std::_Num_base::digits10
PUBLIC	?max_digits10@_Num_base@std@@2HB		; std::_Num_base::max_digits10
PUBLIC	?max_exponent@_Num_base@std@@2HB		; std::_Num_base::max_exponent
PUBLIC	?max_exponent10@_Num_base@std@@2HB		; std::_Num_base::max_exponent10
PUBLIC	?min_exponent@_Num_base@std@@2HB		; std::_Num_base::min_exponent
PUBLIC	?min_exponent10@_Num_base@std@@2HB		; std::_Num_base::min_exponent10
PUBLIC	?radix@_Num_base@std@@2HB			; std::_Num_base::radix
PUBLIC	?_Stream_err@failure@ios_base@std@@0W4io_errc@43@B ; std::ios_base::failure::_Stream_err
PUBLIC	?is_bounded@_Num_int_base@std@@2_NB		; std::_Num_int_base::is_bounded
PUBLIC	?is_exact@_Num_int_base@std@@2_NB		; std::_Num_int_base::is_exact
PUBLIC	?is_integer@_Num_int_base@std@@2_NB		; std::_Num_int_base::is_integer
PUBLIC	?is_modulo@_Num_int_base@std@@2_NB		; std::_Num_int_base::is_modulo
PUBLIC	?is_specialized@_Num_int_base@std@@2_NB		; std::_Num_int_base::is_specialized
PUBLIC	?radix@_Num_int_base@std@@2HB			; std::_Num_int_base::radix
PUBLIC	?has_denorm@_Num_float_base@std@@2W4float_denorm_style@2@B ; std::_Num_float_base::has_denorm
PUBLIC	?has_denorm_loss@_Num_float_base@std@@2_NB	; std::_Num_float_base::has_denorm_loss
PUBLIC	?has_infinity@_Num_float_base@std@@2_NB		; std::_Num_float_base::has_infinity
PUBLIC	?has_quiet_NaN@_Num_float_base@std@@2_NB	; std::_Num_float_base::has_quiet_NaN
PUBLIC	?has_signaling_NaN@_Num_float_base@std@@2_NB	; std::_Num_float_base::has_signaling_NaN
PUBLIC	?is_bounded@_Num_float_base@std@@2_NB		; std::_Num_float_base::is_bounded
PUBLIC	?is_exact@_Num_float_base@std@@2_NB		; std::_Num_float_base::is_exact
PUBLIC	?is_iec559@_Num_float_base@std@@2_NB		; std::_Num_float_base::is_iec559
PUBLIC	?is_integer@_Num_float_base@std@@2_NB		; std::_Num_float_base::is_integer
PUBLIC	?is_modulo@_Num_float_base@std@@2_NB		; std::_Num_float_base::is_modulo
PUBLIC	?is_signed@_Num_float_base@std@@2_NB		; std::_Num_float_base::is_signed
PUBLIC	?is_specialized@_Num_float_base@std@@2_NB	; std::_Num_float_base::is_specialized
PUBLIC	?tinyness_before@_Num_float_base@std@@2_NB	; std::_Num_float_base::tinyness_before
PUBLIC	?traps@_Num_float_base@std@@2_NB		; std::_Num_float_base::traps
PUBLIC	?round_style@_Num_float_base@std@@2W4float_round_style@2@B ; std::_Num_float_base::round_style
PUBLIC	?radix@_Num_float_base@std@@2HB			; std::_Num_float_base::radix
PUBLIC	?is_signed@?$numeric_limits@D@std@@2_NB		; std::numeric_limits<char>::is_signed
PUBLIC	?digits@?$numeric_limits@D@std@@2HB		; std::numeric_limits<char>::digits
PUBLIC	?digits10@?$numeric_limits@D@std@@2HB		; std::numeric_limits<char>::digits10
PUBLIC	?value@?$integral_constant@_N$0A@@std@@2_NB	; std::integral_constant<bool,0>::value
PUBLIC	?is_signed@?$numeric_limits@_W@std@@2_NB	; std::numeric_limits<wchar_t>::is_signed
PUBLIC	?digits@?$numeric_limits@_W@std@@2HB		; std::numeric_limits<wchar_t>::digits
PUBLIC	?digits10@?$numeric_limits@_W@std@@2HB		; std::numeric_limits<wchar_t>::digits10
PUBLIC	?value@?$integral_constant@_N$00@std@@2_NB	; std::integral_constant<bool,1>::value
PUBLIC	?is_modulo@?$numeric_limits@_N@std@@2_NB	; std::numeric_limits<bool>::is_modulo
PUBLIC	?is_signed@?$numeric_limits@_N@std@@2_NB	; std::numeric_limits<bool>::is_signed
PUBLIC	?digits@?$numeric_limits@_N@std@@2HB		; std::numeric_limits<bool>::digits
PUBLIC	?digits10@?$numeric_limits@_N@std@@2HB		; std::numeric_limits<bool>::digits10
PUBLIC	?is_signed@?$numeric_limits@C@std@@2_NB		; std::numeric_limits<signed char>::is_signed
PUBLIC	?digits@?$numeric_limits@C@std@@2HB		; std::numeric_limits<signed char>::digits
PUBLIC	?digits10@?$numeric_limits@C@std@@2HB		; std::numeric_limits<signed char>::digits10
PUBLIC	?is_signed@?$numeric_limits@E@std@@2_NB		; std::numeric_limits<unsigned char>::is_signed
PUBLIC	?digits@?$numeric_limits@E@std@@2HB		; std::numeric_limits<unsigned char>::digits
PUBLIC	?digits10@?$numeric_limits@E@std@@2HB		; std::numeric_limits<unsigned char>::digits10
PUBLIC	?collate@?$_Locbase@H@std@@2HB			; std::_Locbase<int>::collate
PUBLIC	?ctype@?$_Locbase@H@std@@2HB			; std::_Locbase<int>::ctype
PUBLIC	?monetary@?$_Locbase@H@std@@2HB			; std::_Locbase<int>::monetary
PUBLIC	?numeric@?$_Locbase@H@std@@2HB			; std::_Locbase<int>::numeric
PUBLIC	?DRAW2D_MAXTYPES@@3HB				; DRAW2D_MAXTYPES
PUBLIC	?time@?$_Locbase@H@std@@2HB			; std::_Locbase<int>::time
PUBLIC	?messages@?$_Locbase@H@std@@2HB			; std::_Locbase<int>::messages
PUBLIC	?all@?$_Locbase@H@std@@2HB			; std::_Locbase<int>::all
PUBLIC	?is_signed@?$numeric_limits@F@std@@2_NB		; std::numeric_limits<short>::is_signed
PUBLIC	?none@?$_Locbase@H@std@@2HB			; std::_Locbase<int>::none
PUBLIC	?digits@?$numeric_limits@F@std@@2HB		; std::numeric_limits<short>::digits
PUBLIC	?digits10@?$numeric_limits@F@std@@2HB		; std::numeric_limits<short>::digits10
PUBLIC	?is_signed@?$numeric_limits@G@std@@2_NB		; std::numeric_limits<unsigned short>::is_signed
PUBLIC	?digits@?$numeric_limits@G@std@@2HB		; std::numeric_limits<unsigned short>::digits
PUBLIC	?digits10@?$numeric_limits@G@std@@2HB		; std::numeric_limits<unsigned short>::digits10
PUBLIC	?is_signed@?$numeric_limits@H@std@@2_NB		; std::numeric_limits<int>::is_signed
PUBLIC	?value@?$_Sizeof@HU_Nil@std@@U12@U12@U12@U12@U12@U12@@std@@2IB ; std::_Sizeof<int,std::_Nil,std::_Nil,std::_Nil,std::_Nil,std::_Nil,std::_Nil,std::_Nil>::value
PUBLIC	?digits@?$numeric_limits@H@std@@2HB		; std::numeric_limits<int>::digits
PUBLIC	?digits10@?$numeric_limits@H@std@@2HB		; std::numeric_limits<int>::digits10
PUBLIC	?table_size@?$ctype@D@std@@2IB			; std::ctype<char>::table_size
PUBLIC	?is_signed@?$numeric_limits@I@std@@2_NB		; std::numeric_limits<unsigned int>::is_signed
PUBLIC	?digits@?$numeric_limits@I@std@@2HB		; std::numeric_limits<unsigned int>::digits
PUBLIC	?digits10@?$numeric_limits@I@std@@2HB		; std::numeric_limits<unsigned int>::digits10
PUBLIC	?is_signed@?$numeric_limits@J@std@@2_NB		; std::numeric_limits<long>::is_signed
PUBLIC	?digits@?$numeric_limits@J@std@@2HB		; std::numeric_limits<long>::digits
PUBLIC	?digits10@?$numeric_limits@J@std@@2HB		; std::numeric_limits<long>::digits10
PUBLIC	?is_signed@?$numeric_limits@K@std@@2_NB		; std::numeric_limits<unsigned long>::is_signed
PUBLIC	?digits@?$numeric_limits@K@std@@2HB		; std::numeric_limits<unsigned long>::digits
PUBLIC	?sGreenMode@@3HA				; sGreenMode
PUBLIC	?digits10@?$numeric_limits@K@std@@2HB		; std::numeric_limits<unsigned long>::digits10
PUBLIC	?gFireScatterPoints@@3PAY0M@UTpoint@@A		; gFireScatterPoints
PUBLIC	?gSmokeScatterPoints@@3PAY00UTpoint@@A		; gSmokeScatterPoints
PUBLIC	?is_signed@?$numeric_limits@_J@std@@2_NB	; std::numeric_limits<__int64>::is_signed
PUBLIC	?gExplodeScatterPoints@@3PAY09UTpoint@@A	; gExplodeScatterPoints
PUBLIC	?digits@?$numeric_limits@_J@std@@2HB		; std::numeric_limits<__int64>::digits
PUBLIC	?digits10@?$numeric_limits@_J@std@@2HB		; std::numeric_limits<__int64>::digits10
_BSS	SEGMENT
?glowCircleVerts@@3PAUTpoint@@A DB 0f0H DUP (?)		; glowCircleVerts
?glowSquareVerts@@3PAUTpoint@@A DB 030H DUP (?)		; glowSquareVerts
?glowStarVerts@@3PAUTpoint@@A DB 0f0H DUP (?)		; glowStarVerts
?lensFlareVerts@@3PAUTpoint@@A DB 0c0H DUP (?)		; lensFlareVerts
?sGreenMode@@3HA DD 01H DUP (?)				; sGreenMode
?gFireScatterPoints@@3PAY0M@UTpoint@@A DB 0480H DUP (?)	; gFireScatterPoints
?gSmokeScatterPoints@@3PAY00UTpoint@@A DB 0cH DUP (?)	; gSmokeScatterPoints
?gExplodeScatterPoints@@3PAY09UTpoint@@A DB 078H DUP (?) ; gExplodeScatterPoints
_BSS	ENDS
;	COMDAT ?digits10@?$numeric_limits@_J@std@@2HB
CONST	SEGMENT
?digits10@?$numeric_limits@_J@std@@2HB DD 012H		; std::numeric_limits<__int64>::digits10
CONST	ENDS
;	COMDAT ?digits@?$numeric_limits@_J@std@@2HB
CONST	SEGMENT
?digits@?$numeric_limits@_J@std@@2HB DD 03fH		; std::numeric_limits<__int64>::digits
CONST	ENDS
;	COMDAT ?is_signed@?$numeric_limits@_J@std@@2_NB
CONST	SEGMENT
?is_signed@?$numeric_limits@_J@std@@2_NB DB 01H		; std::numeric_limits<__int64>::is_signed
CONST	ENDS
;	COMDAT ?digits10@?$numeric_limits@K@std@@2HB
CONST	SEGMENT
?digits10@?$numeric_limits@K@std@@2HB DD 09H		; std::numeric_limits<unsigned long>::digits10
CONST	ENDS
;	COMDAT ?digits@?$numeric_limits@K@std@@2HB
CONST	SEGMENT
?digits@?$numeric_limits@K@std@@2HB DD 020H		; std::numeric_limits<unsigned long>::digits
CONST	ENDS
;	COMDAT ?is_signed@?$numeric_limits@K@std@@2_NB
CONST	SEGMENT
?is_signed@?$numeric_limits@K@std@@2_NB DB 00H		; std::numeric_limits<unsigned long>::is_signed
CONST	ENDS
;	COMDAT ?digits10@?$numeric_limits@J@std@@2HB
CONST	SEGMENT
?digits10@?$numeric_limits@J@std@@2HB DD 09H		; std::numeric_limits<long>::digits10
CONST	ENDS
;	COMDAT ?digits@?$numeric_limits@J@std@@2HB
CONST	SEGMENT
?digits@?$numeric_limits@J@std@@2HB DD 01fH		; std::numeric_limits<long>::digits
CONST	ENDS
;	COMDAT ?is_signed@?$numeric_limits@J@std@@2_NB
CONST	SEGMENT
?is_signed@?$numeric_limits@J@std@@2_NB DB 01H		; std::numeric_limits<long>::is_signed
CONST	ENDS
;	COMDAT ?digits10@?$numeric_limits@I@std@@2HB
CONST	SEGMENT
?digits10@?$numeric_limits@I@std@@2HB DD 09H		; std::numeric_limits<unsigned int>::digits10
CONST	ENDS
;	COMDAT ?digits@?$numeric_limits@I@std@@2HB
CONST	SEGMENT
?digits@?$numeric_limits@I@std@@2HB DD 020H		; std::numeric_limits<unsigned int>::digits
CONST	ENDS
;	COMDAT ?is_signed@?$numeric_limits@I@std@@2_NB
CONST	SEGMENT
?is_signed@?$numeric_limits@I@std@@2_NB DB 00H		; std::numeric_limits<unsigned int>::is_signed
CONST	ENDS
;	COMDAT ?table_size@?$ctype@D@std@@2IB
CONST	SEGMENT
?table_size@?$ctype@D@std@@2IB DD 0100H			; std::ctype<char>::table_size
CONST	ENDS
;	COMDAT ?digits10@?$numeric_limits@H@std@@2HB
CONST	SEGMENT
?digits10@?$numeric_limits@H@std@@2HB DD 09H		; std::numeric_limits<int>::digits10
CONST	ENDS
;	COMDAT ?digits@?$numeric_limits@H@std@@2HB
CONST	SEGMENT
?digits@?$numeric_limits@H@std@@2HB DD 01fH		; std::numeric_limits<int>::digits
CONST	ENDS
;	COMDAT ?value@?$_Sizeof@HU_Nil@std@@U12@U12@U12@U12@U12@U12@@std@@2IB
CONST	SEGMENT
?value@?$_Sizeof@HU_Nil@std@@U12@U12@U12@U12@U12@U12@@std@@2IB DD 01H ; std::_Sizeof<int,std::_Nil,std::_Nil,std::_Nil,std::_Nil,std::_Nil,std::_Nil,std::_Nil>::value
CONST	ENDS
;	COMDAT ?is_signed@?$numeric_limits@H@std@@2_NB
CONST	SEGMENT
?is_signed@?$numeric_limits@H@std@@2_NB DB 01H		; std::numeric_limits<int>::is_signed
CONST	ENDS
;	COMDAT ?digits10@?$numeric_limits@G@std@@2HB
CONST	SEGMENT
?digits10@?$numeric_limits@G@std@@2HB DD 04H		; std::numeric_limits<unsigned short>::digits10
CONST	ENDS
;	COMDAT ?digits@?$numeric_limits@G@std@@2HB
CONST	SEGMENT
?digits@?$numeric_limits@G@std@@2HB DD 010H		; std::numeric_limits<unsigned short>::digits
CONST	ENDS
;	COMDAT ?is_signed@?$numeric_limits@G@std@@2_NB
CONST	SEGMENT
?is_signed@?$numeric_limits@G@std@@2_NB DB 00H		; std::numeric_limits<unsigned short>::is_signed
CONST	ENDS
;	COMDAT ?digits10@?$numeric_limits@F@std@@2HB
CONST	SEGMENT
?digits10@?$numeric_limits@F@std@@2HB DD 04H		; std::numeric_limits<short>::digits10
CONST	ENDS
;	COMDAT ?digits@?$numeric_limits@F@std@@2HB
CONST	SEGMENT
?digits@?$numeric_limits@F@std@@2HB DD 0fH		; std::numeric_limits<short>::digits
CONST	ENDS
;	COMDAT ?none@?$_Locbase@H@std@@2HB
CONST	SEGMENT
?none@?$_Locbase@H@std@@2HB DD 00H			; std::_Locbase<int>::none
CONST	ENDS
;	COMDAT ?is_signed@?$numeric_limits@F@std@@2_NB
CONST	SEGMENT
?is_signed@?$numeric_limits@F@std@@2_NB DB 01H		; std::numeric_limits<short>::is_signed
CONST	ENDS
;	COMDAT ?all@?$_Locbase@H@std@@2HB
CONST	SEGMENT
?all@?$_Locbase@H@std@@2HB DD 03fH			; std::_Locbase<int>::all
CONST	ENDS
;	COMDAT ?messages@?$_Locbase@H@std@@2HB
CONST	SEGMENT
?messages@?$_Locbase@H@std@@2HB DD 020H			; std::_Locbase<int>::messages
CONST	ENDS
;	COMDAT ?time@?$_Locbase@H@std@@2HB
CONST	SEGMENT
?time@?$_Locbase@H@std@@2HB DD 010H			; std::_Locbase<int>::time
CONST	ENDS
CONST	SEGMENT
?DRAW2D_MAXTYPES@@3HB DD 040H				; DRAW2D_MAXTYPES
_L_2	DD	03f317218r			; 0.693147
_NEAR_CLIP DD	03f800000r			; 1
CONST	ENDS
;	COMDAT ?numeric@?$_Locbase@H@std@@2HB
CONST	SEGMENT
?numeric@?$_Locbase@H@std@@2HB DD 08H			; std::_Locbase<int>::numeric
CONST	ENDS
;	COMDAT ?monetary@?$_Locbase@H@std@@2HB
CONST	SEGMENT
?monetary@?$_Locbase@H@std@@2HB DD 04H			; std::_Locbase<int>::monetary
CONST	ENDS
;	COMDAT ?ctype@?$_Locbase@H@std@@2HB
CONST	SEGMENT
?ctype@?$_Locbase@H@std@@2HB DD 02H			; std::_Locbase<int>::ctype
CONST	ENDS
;	COMDAT ?collate@?$_Locbase@H@std@@2HB
CONST	SEGMENT
?collate@?$_Locbase@H@std@@2HB DD 01H			; std::_Locbase<int>::collate
CONST	ENDS
;	COMDAT ?digits10@?$numeric_limits@E@std@@2HB
CONST	SEGMENT
?digits10@?$numeric_limits@E@std@@2HB DD 02H		; std::numeric_limits<unsigned char>::digits10
CONST	ENDS
;	COMDAT ?digits@?$numeric_limits@E@std@@2HB
CONST	SEGMENT
?digits@?$numeric_limits@E@std@@2HB DD 08H		; std::numeric_limits<unsigned char>::digits
CONST	ENDS
;	COMDAT ?is_signed@?$numeric_limits@E@std@@2_NB
CONST	SEGMENT
?is_signed@?$numeric_limits@E@std@@2_NB DB 00H		; std::numeric_limits<unsigned char>::is_signed
CONST	ENDS
;	COMDAT ?digits10@?$numeric_limits@C@std@@2HB
CONST	SEGMENT
?digits10@?$numeric_limits@C@std@@2HB DD 02H		; std::numeric_limits<signed char>::digits10
CONST	ENDS
;	COMDAT ?digits@?$numeric_limits@C@std@@2HB
CONST	SEGMENT
?digits@?$numeric_limits@C@std@@2HB DD 07H		; std::numeric_limits<signed char>::digits
CONST	ENDS
;	COMDAT ?is_signed@?$numeric_limits@C@std@@2_NB
CONST	SEGMENT
?is_signed@?$numeric_limits@C@std@@2_NB DB 01H		; std::numeric_limits<signed char>::is_signed
CONST	ENDS
;	COMDAT ?digits10@?$numeric_limits@_N@std@@2HB
CONST	SEGMENT
?digits10@?$numeric_limits@_N@std@@2HB DD 00H		; std::numeric_limits<bool>::digits10
CONST	ENDS
;	COMDAT ?digits@?$numeric_limits@_N@std@@2HB
CONST	SEGMENT
?digits@?$numeric_limits@_N@std@@2HB DD 01H		; std::numeric_limits<bool>::digits
CONST	ENDS
;	COMDAT ?is_signed@?$numeric_limits@_N@std@@2_NB
CONST	SEGMENT
?is_signed@?$numeric_limits@_N@std@@2_NB DB 00H		; std::numeric_limits<bool>::is_signed
CONST	ENDS
;	COMDAT ?is_modulo@?$numeric_limits@_N@std@@2_NB
CONST	SEGMENT
?is_modulo@?$numeric_limits@_N@std@@2_NB DB 00H		; std::numeric_limits<bool>::is_modulo
CONST	ENDS
;	COMDAT ?value@?$integral_constant@_N$00@std@@2_NB
CONST	SEGMENT
?value@?$integral_constant@_N$00@std@@2_NB DB 01H	; std::integral_constant<bool,1>::value
CONST	ENDS
;	COMDAT ?digits10@?$numeric_limits@_W@std@@2HB
CONST	SEGMENT
?digits10@?$numeric_limits@_W@std@@2HB DD 04H		; std::numeric_limits<wchar_t>::digits10
CONST	ENDS
;	COMDAT ?digits@?$numeric_limits@_W@std@@2HB
CONST	SEGMENT
?digits@?$numeric_limits@_W@std@@2HB DD 010H		; std::numeric_limits<wchar_t>::digits
CONST	ENDS
;	COMDAT ?is_signed@?$numeric_limits@_W@std@@2_NB
CONST	SEGMENT
?is_signed@?$numeric_limits@_W@std@@2_NB DB 00H		; std::numeric_limits<wchar_t>::is_signed
CONST	ENDS
;	COMDAT ?value@?$integral_constant@_N$0A@@std@@2_NB
CONST	SEGMENT
?value@?$integral_constant@_N$0A@@std@@2_NB DB 00H	; std::integral_constant<bool,0>::value
CONST	ENDS
;	COMDAT ?digits10@?$numeric_limits@D@std@@2HB
CONST	SEGMENT
?digits10@?$numeric_limits@D@std@@2HB DD 02H		; std::numeric_limits<char>::digits10
CONST	ENDS
;	COMDAT ?digits@?$numeric_limits@D@std@@2HB
CONST	SEGMENT
?digits@?$numeric_limits@D@std@@2HB DD 07H		; std::numeric_limits<char>::digits
CONST	ENDS
;	COMDAT ?is_signed@?$numeric_limits@D@std@@2_NB
CONST	SEGMENT
?is_signed@?$numeric_limits@D@std@@2_NB DB 01H		; std::numeric_limits<char>::is_signed
CONST	ENDS
;	COMDAT ?radix@_Num_float_base@std@@2HB
CONST	SEGMENT
?radix@_Num_float_base@std@@2HB DD 02H			; std::_Num_float_base::radix
CONST	ENDS
;	COMDAT ?round_style@_Num_float_base@std@@2W4float_round_style@2@B
CONST	SEGMENT
?round_style@_Num_float_base@std@@2W4float_round_style@2@B DD 01H ; std::_Num_float_base::round_style
CONST	ENDS
;	COMDAT ?traps@_Num_float_base@std@@2_NB
CONST	SEGMENT
?traps@_Num_float_base@std@@2_NB DB 00H			; std::_Num_float_base::traps
CONST	ENDS
;	COMDAT ?tinyness_before@_Num_float_base@std@@2_NB
CONST	SEGMENT
?tinyness_before@_Num_float_base@std@@2_NB DB 01H	; std::_Num_float_base::tinyness_before
CONST	ENDS
;	COMDAT ?is_specialized@_Num_float_base@std@@2_NB
CONST	SEGMENT
?is_specialized@_Num_float_base@std@@2_NB DB 01H	; std::_Num_float_base::is_specialized
CONST	ENDS
;	COMDAT ?is_signed@_Num_float_base@std@@2_NB
CONST	SEGMENT
?is_signed@_Num_float_base@std@@2_NB DB 01H		; std::_Num_float_base::is_signed
CONST	ENDS
;	COMDAT ?is_modulo@_Num_float_base@std@@2_NB
CONST	SEGMENT
?is_modulo@_Num_float_base@std@@2_NB DB 00H		; std::_Num_float_base::is_modulo
CONST	ENDS
;	COMDAT ?is_integer@_Num_float_base@std@@2_NB
CONST	SEGMENT
?is_integer@_Num_float_base@std@@2_NB DB 00H		; std::_Num_float_base::is_integer
CONST	ENDS
;	COMDAT ?is_iec559@_Num_float_base@std@@2_NB
CONST	SEGMENT
?is_iec559@_Num_float_base@std@@2_NB DB 01H		; std::_Num_float_base::is_iec559
CONST	ENDS
;	COMDAT ?is_exact@_Num_float_base@std@@2_NB
CONST	SEGMENT
?is_exact@_Num_float_base@std@@2_NB DB 00H		; std::_Num_float_base::is_exact
CONST	ENDS
;	COMDAT ?is_bounded@_Num_float_base@std@@2_NB
CONST	SEGMENT
?is_bounded@_Num_float_base@std@@2_NB DB 01H		; std::_Num_float_base::is_bounded
CONST	ENDS
;	COMDAT ?has_signaling_NaN@_Num_float_base@std@@2_NB
CONST	SEGMENT
?has_signaling_NaN@_Num_float_base@std@@2_NB DB 01H	; std::_Num_float_base::has_signaling_NaN
CONST	ENDS
;	COMDAT ?has_quiet_NaN@_Num_float_base@std@@2_NB
CONST	SEGMENT
?has_quiet_NaN@_Num_float_base@std@@2_NB DB 01H		; std::_Num_float_base::has_quiet_NaN
CONST	ENDS
;	COMDAT ?has_infinity@_Num_float_base@std@@2_NB
CONST	SEGMENT
?has_infinity@_Num_float_base@std@@2_NB DB 01H		; std::_Num_float_base::has_infinity
CONST	ENDS
;	COMDAT ?has_denorm_loss@_Num_float_base@std@@2_NB
CONST	SEGMENT
?has_denorm_loss@_Num_float_base@std@@2_NB DB 01H	; std::_Num_float_base::has_denorm_loss
CONST	ENDS
;	COMDAT ?has_denorm@_Num_float_base@std@@2W4float_denorm_style@2@B
CONST	SEGMENT
?has_denorm@_Num_float_base@std@@2W4float_denorm_style@2@B DD 01H ; std::_Num_float_base::has_denorm
CONST	ENDS
;	COMDAT ?radix@_Num_int_base@std@@2HB
CONST	SEGMENT
?radix@_Num_int_base@std@@2HB DD 02H			; std::_Num_int_base::radix
CONST	ENDS
;	COMDAT ?is_specialized@_Num_int_base@std@@2_NB
CONST	SEGMENT
?is_specialized@_Num_int_base@std@@2_NB DB 01H		; std::_Num_int_base::is_specialized
CONST	ENDS
;	COMDAT ?is_modulo@_Num_int_base@std@@2_NB
CONST	SEGMENT
?is_modulo@_Num_int_base@std@@2_NB DB 01H		; std::_Num_int_base::is_modulo
CONST	ENDS
;	COMDAT ?is_integer@_Num_int_base@std@@2_NB
CONST	SEGMENT
?is_integer@_Num_int_base@std@@2_NB DB 01H		; std::_Num_int_base::is_integer
CONST	ENDS
;	COMDAT ?is_exact@_Num_int_base@std@@2_NB
CONST	SEGMENT
?is_exact@_Num_int_base@std@@2_NB DB 01H		; std::_Num_int_base::is_exact
CONST	ENDS
;	COMDAT ?is_bounded@_Num_int_base@std@@2_NB
CONST	SEGMENT
?is_bounded@_Num_int_base@std@@2_NB DB 01H		; std::_Num_int_base::is_bounded
CONST	ENDS
;	COMDAT ?_Stream_err@failure@ios_base@std@@0W4io_errc@43@B
CONST	SEGMENT
?_Stream_err@failure@ios_base@std@@0W4io_errc@43@B DD 01H ; std::ios_base::failure::_Stream_err
CONST	ENDS
;	COMDAT ?radix@_Num_base@std@@2HB
CONST	SEGMENT
?radix@_Num_base@std@@2HB DD 00H			; std::_Num_base::radix
CONST	ENDS
;	COMDAT ?min_exponent10@_Num_base@std@@2HB
CONST	SEGMENT
?min_exponent10@_Num_base@std@@2HB DD 00H		; std::_Num_base::min_exponent10
CONST	ENDS
;	COMDAT ?min_exponent@_Num_base@std@@2HB
CONST	SEGMENT
?min_exponent@_Num_base@std@@2HB DD 00H			; std::_Num_base::min_exponent
CONST	ENDS
;	COMDAT ?max_exponent10@_Num_base@std@@2HB
CONST	SEGMENT
?max_exponent10@_Num_base@std@@2HB DD 00H		; std::_Num_base::max_exponent10
CONST	ENDS
;	COMDAT ?max_exponent@_Num_base@std@@2HB
CONST	SEGMENT
?max_exponent@_Num_base@std@@2HB DD 00H			; std::_Num_base::max_exponent
CONST	ENDS
;	COMDAT ?max_digits10@_Num_base@std@@2HB
CONST	SEGMENT
?max_digits10@_Num_base@std@@2HB DD 00H			; std::_Num_base::max_digits10
CONST	ENDS
;	COMDAT ?digits10@_Num_base@std@@2HB
CONST	SEGMENT
?digits10@_Num_base@std@@2HB DD 00H			; std::_Num_base::digits10
CONST	ENDS
;	COMDAT ?digits@_Num_base@std@@2HB
CONST	SEGMENT
?digits@_Num_base@std@@2HB DD 00H			; std::_Num_base::digits
CONST	ENDS
;	COMDAT ?round_style@_Num_base@std@@2W4float_round_style@2@B
CONST	SEGMENT
?round_style@_Num_base@std@@2W4float_round_style@2@B DD 00H ; std::_Num_base::round_style
CONST	ENDS
;	COMDAT ?end@?$_Iosb@H@std@@2W4_Seekdir@12@B
CONST	SEGMENT
?end@?$_Iosb@H@std@@2W4_Seekdir@12@B DD 02H		; std::_Iosb<int>::end
CONST	ENDS
;	COMDAT ?traps@_Num_base@std@@2_NB
CONST	SEGMENT
?traps@_Num_base@std@@2_NB DB 00H			; std::_Num_base::traps
CONST	ENDS
;	COMDAT ?cur@?$_Iosb@H@std@@2W4_Seekdir@12@B
CONST	SEGMENT
?cur@?$_Iosb@H@std@@2W4_Seekdir@12@B DD 01H		; std::_Iosb<int>::cur
CONST	ENDS
;	COMDAT ?tinyness_before@_Num_base@std@@2_NB
CONST	SEGMENT
?tinyness_before@_Num_base@std@@2_NB DB 00H		; std::_Num_base::tinyness_before
CONST	ENDS
;	COMDAT ?beg@?$_Iosb@H@std@@2W4_Seekdir@12@B
CONST	SEGMENT
?beg@?$_Iosb@H@std@@2W4_Seekdir@12@B DD 00H		; std::_Iosb<int>::beg
CONST	ENDS
;	COMDAT ?is_specialized@_Num_base@std@@2_NB
CONST	SEGMENT
?is_specialized@_Num_base@std@@2_NB DB 00H		; std::_Num_base::is_specialized
CONST	ENDS
;	COMDAT ?binary@?$_Iosb@H@std@@2W4_Openmode@12@B
CONST	SEGMENT
?binary@?$_Iosb@H@std@@2W4_Openmode@12@B DD 020H	; std::_Iosb<int>::binary
CONST	ENDS
;	COMDAT ?is_signed@_Num_base@std@@2_NB
CONST	SEGMENT
?is_signed@_Num_base@std@@2_NB DB 00H			; std::_Num_base::is_signed
CONST	ENDS
;	COMDAT ?is_modulo@_Num_base@std@@2_NB
CONST	SEGMENT
?is_modulo@_Num_base@std@@2_NB DB 00H			; std::_Num_base::is_modulo
CONST	ENDS
;	COMDAT ?_Noreplace@?$_Iosb@H@std@@2W4_Openmode@12@B
CONST	SEGMENT
?_Noreplace@?$_Iosb@H@std@@2W4_Openmode@12@B DD 080H	; std::_Iosb<int>::_Noreplace
CONST	ENDS
;	COMDAT ?is_integer@_Num_base@std@@2_NB
CONST	SEGMENT
?is_integer@_Num_base@std@@2_NB DB 00H			; std::_Num_base::is_integer
CONST	ENDS
;	COMDAT ?_Nocreate@?$_Iosb@H@std@@2W4_Openmode@12@B
CONST	SEGMENT
?_Nocreate@?$_Iosb@H@std@@2W4_Openmode@12@B DD 040H	; std::_Iosb<int>::_Nocreate
CONST	ENDS
;	COMDAT ?trunc@?$_Iosb@H@std@@2W4_Openmode@12@B
CONST	SEGMENT
?trunc@?$_Iosb@H@std@@2W4_Openmode@12@B DD 010H		; std::_Iosb<int>::trunc
CONST	ENDS
;	COMDAT ?is_iec559@_Num_base@std@@2_NB
CONST	SEGMENT
?is_iec559@_Num_base@std@@2_NB DB 00H			; std::_Num_base::is_iec559
CONST	ENDS
;	COMDAT ?app@?$_Iosb@H@std@@2W4_Openmode@12@B
CONST	SEGMENT
?app@?$_Iosb@H@std@@2W4_Openmode@12@B DD 08H		; std::_Iosb<int>::app
CONST	ENDS
;	COMDAT ?is_exact@_Num_base@std@@2_NB
CONST	SEGMENT
?is_exact@_Num_base@std@@2_NB DB 00H			; std::_Num_base::is_exact
CONST	ENDS
;	COMDAT ?is_bounded@_Num_base@std@@2_NB
CONST	SEGMENT
?is_bounded@_Num_base@std@@2_NB DB 00H			; std::_Num_base::is_bounded
CONST	ENDS
;	COMDAT ?ate@?$_Iosb@H@std@@2W4_Openmode@12@B
CONST	SEGMENT
?ate@?$_Iosb@H@std@@2W4_Openmode@12@B DD 04H		; std::_Iosb<int>::ate
CONST	ENDS
;	COMDAT ?has_signaling_NaN@_Num_base@std@@2_NB
CONST	SEGMENT
?has_signaling_NaN@_Num_base@std@@2_NB DB 00H		; std::_Num_base::has_signaling_NaN
CONST	ENDS
;	COMDAT ?out@?$_Iosb@H@std@@2W4_Openmode@12@B
CONST	SEGMENT
?out@?$_Iosb@H@std@@2W4_Openmode@12@B DD 02H		; std::_Iosb<int>::out
CONST	ENDS
;	COMDAT ?in@?$_Iosb@H@std@@2W4_Openmode@12@B
CONST	SEGMENT
?in@?$_Iosb@H@std@@2W4_Openmode@12@B DD 01H		; std::_Iosb<int>::in
CONST	ENDS
;	COMDAT ?has_quiet_NaN@_Num_base@std@@2_NB
CONST	SEGMENT
?has_quiet_NaN@_Num_base@std@@2_NB DB 00H		; std::_Num_base::has_quiet_NaN
CONST	ENDS
;	COMDAT ?has_infinity@_Num_base@std@@2_NB
CONST	SEGMENT
?has_infinity@_Num_base@std@@2_NB DB 00H		; std::_Num_base::has_infinity
CONST	ENDS
;	COMDAT ?_Hardfail@?$_Iosb@H@std@@2W4_Iostate@12@B
CONST	SEGMENT
?_Hardfail@?$_Iosb@H@std@@2W4_Iostate@12@B DD 010H	; std::_Iosb<int>::_Hardfail
CONST	ENDS
;	COMDAT ?has_denorm_loss@_Num_base@std@@2_NB
CONST	SEGMENT
?has_denorm_loss@_Num_base@std@@2_NB DB 00H		; std::_Num_base::has_denorm_loss
CONST	ENDS
;	COMDAT ?badbit@?$_Iosb@H@std@@2W4_Iostate@12@B
CONST	SEGMENT
?badbit@?$_Iosb@H@std@@2W4_Iostate@12@B DD 04H		; std::_Iosb<int>::badbit
CONST	ENDS
;	COMDAT ?has_denorm@_Num_base@std@@2W4float_denorm_style@2@B
CONST	SEGMENT
?has_denorm@_Num_base@std@@2W4float_denorm_style@2@B DD 00H ; std::_Num_base::has_denorm
CONST	ENDS
;	COMDAT ?failbit@?$_Iosb@H@std@@2W4_Iostate@12@B
CONST	SEGMENT
?failbit@?$_Iosb@H@std@@2W4_Iostate@12@B DD 02H		; std::_Iosb<int>::failbit
CONST	ENDS
;	COMDAT ?eofbit@?$_Iosb@H@std@@2W4_Iostate@12@B
CONST	SEGMENT
?eofbit@?$_Iosb@H@std@@2W4_Iostate@12@B DD 01H		; std::_Iosb<int>::eofbit
CONST	ENDS
;	COMDAT ?goodbit@?$_Iosb@H@std@@2W4_Iostate@12@B
CONST	SEGMENT
?goodbit@?$_Iosb@H@std@@2W4_Iostate@12@B DD 00H		; std::_Iosb<int>::goodbit
CONST	ENDS
;	COMDAT ?floatfield@?$_Iosb@H@std@@2W4_Fmtflags@12@B
CONST	SEGMENT
?floatfield@?$_Iosb@H@std@@2W4_Fmtflags@12@B DD 03000H	; std::_Iosb<int>::floatfield
CONST	ENDS
;	COMDAT ?basefield@?$_Iosb@H@std@@2W4_Fmtflags@12@B
CONST	SEGMENT
?basefield@?$_Iosb@H@std@@2W4_Fmtflags@12@B DD 0e00H	; std::_Iosb<int>::basefield
CONST	ENDS
;	COMDAT ?adjustfield@?$_Iosb@H@std@@2W4_Fmtflags@12@B
CONST	SEGMENT
?adjustfield@?$_Iosb@H@std@@2W4_Fmtflags@12@B DD 01c0H	; std::_Iosb<int>::adjustfield
CONST	ENDS
;	COMDAT ?_Stdio@?$_Iosb@H@std@@2W4_Fmtflags@12@B
CONST	SEGMENT
?_Stdio@?$_Iosb@H@std@@2W4_Fmtflags@12@B DD 08000H	; std::_Iosb<int>::_Stdio
CONST	ENDS
;	COMDAT ?boolalpha@?$_Iosb@H@std@@2W4_Fmtflags@12@B
CONST	SEGMENT
?boolalpha@?$_Iosb@H@std@@2W4_Fmtflags@12@B DD 04000H	; std::_Iosb<int>::boolalpha
CONST	ENDS
;	COMDAT ?hexfloat@?$_Iosb@H@std@@2W4_Fmtflags@12@B
CONST	SEGMENT
?hexfloat@?$_Iosb@H@std@@2W4_Fmtflags@12@B DD 03000H	; std::_Iosb<int>::hexfloat
CONST	ENDS
;	COMDAT ?fixed@?$_Iosb@H@std@@2W4_Fmtflags@12@B
CONST	SEGMENT
?fixed@?$_Iosb@H@std@@2W4_Fmtflags@12@B DD 02000H	; std::_Iosb<int>::fixed
CONST	ENDS
;	COMDAT ?scientific@?$_Iosb@H@std@@2W4_Fmtflags@12@B
CONST	SEGMENT
?scientific@?$_Iosb@H@std@@2W4_Fmtflags@12@B DD 01000H	; std::_Iosb<int>::scientific
CONST	ENDS
;	COMDAT ?hex@?$_Iosb@H@std@@2W4_Fmtflags@12@B
CONST	SEGMENT
?hex@?$_Iosb@H@std@@2W4_Fmtflags@12@B DD 0800H		; std::_Iosb<int>::hex
CONST	ENDS
;	COMDAT ?oct@?$_Iosb@H@std@@2W4_Fmtflags@12@B
CONST	SEGMENT
?oct@?$_Iosb@H@std@@2W4_Fmtflags@12@B DD 0400H		; std::_Iosb<int>::oct
CONST	ENDS
;	COMDAT ?dec@?$_Iosb@H@std@@2W4_Fmtflags@12@B
CONST	SEGMENT
?dec@?$_Iosb@H@std@@2W4_Fmtflags@12@B DD 0200H		; std::_Iosb<int>::dec
CONST	ENDS
;	COMDAT ?internal@?$_Iosb@H@std@@2W4_Fmtflags@12@B
CONST	SEGMENT
?internal@?$_Iosb@H@std@@2W4_Fmtflags@12@B DD 0100H	; std::_Iosb<int>::internal
CONST	ENDS
;	COMDAT ?right@?$_Iosb@H@std@@2W4_Fmtflags@12@B
CONST	SEGMENT
?right@?$_Iosb@H@std@@2W4_Fmtflags@12@B DD 080H		; std::_Iosb<int>::right
CONST	ENDS
;	COMDAT ?left@?$_Iosb@H@std@@2W4_Fmtflags@12@B
CONST	SEGMENT
?left@?$_Iosb@H@std@@2W4_Fmtflags@12@B DD 040H		; std::_Iosb<int>::left
CONST	ENDS
;	COMDAT ?showpos@?$_Iosb@H@std@@2W4_Fmtflags@12@B
CONST	SEGMENT
?showpos@?$_Iosb@H@std@@2W4_Fmtflags@12@B DD 020H	; std::_Iosb<int>::showpos
CONST	ENDS
;	COMDAT ?showpoint@?$_Iosb@H@std@@2W4_Fmtflags@12@B
CONST	SEGMENT
?showpoint@?$_Iosb@H@std@@2W4_Fmtflags@12@B DD 010H	; std::_Iosb<int>::showpoint
CONST	ENDS
;	COMDAT ?showbase@?$_Iosb@H@std@@2W4_Fmtflags@12@B
CONST	SEGMENT
?showbase@?$_Iosb@H@std@@2W4_Fmtflags@12@B DD 08H	; std::_Iosb<int>::showbase
CONST	ENDS
;	COMDAT ?uppercase@?$_Iosb@H@std@@2W4_Fmtflags@12@B
CONST	SEGMENT
?uppercase@?$_Iosb@H@std@@2W4_Fmtflags@12@B DD 04H	; std::_Iosb<int>::uppercase
CONST	ENDS
;	COMDAT ?unitbuf@?$_Iosb@H@std@@2W4_Fmtflags@12@B
CONST	SEGMENT
?unitbuf@?$_Iosb@H@std@@2W4_Fmtflags@12@B DD 02H	; std::_Iosb<int>::unitbuf
CONST	ENDS
;	COMDAT ?skipws@?$_Iosb@H@std@@2W4_Fmtflags@12@B
CONST	SEGMENT
?skipws@?$_Iosb@H@std@@2W4_Fmtflags@12@B DD 01H		; std::_Iosb<int>::skipws
CONST	ENDS
;	COMDAT ?value@?$_Sizeof@U_Nil@std@@U12@U12@U12@U12@U12@U12@U12@@std@@2IB
CONST	SEGMENT
?value@?$_Sizeof@U_Nil@std@@U12@U12@U12@U12@U12@U12@U12@@std@@2IB DD 00H ; std::_Sizeof<std::_Nil,std::_Nil,std::_Nil,std::_Nil,std::_Nil,std::_Nil,std::_Nil,std::_Nil>::value
CONST	ENDS
;	COMDAT ?min_exponent10@?$numeric_limits@O@std@@2HB
CONST	SEGMENT
?min_exponent10@?$numeric_limits@O@std@@2HB DD 0fffffecdH ; std::numeric_limits<long double>::min_exponent10
CONST	ENDS
;	COMDAT ?min_exponent@?$numeric_limits@O@std@@2HB
CONST	SEGMENT
?min_exponent@?$numeric_limits@O@std@@2HB DD 0fffffc03H	; std::numeric_limits<long double>::min_exponent
CONST	ENDS
;	COMDAT ?max_exponent10@?$numeric_limits@O@std@@2HB
CONST	SEGMENT
?max_exponent10@?$numeric_limits@O@std@@2HB DD 0134H	; std::numeric_limits<long double>::max_exponent10
CONST	ENDS
;	COMDAT ?max_exponent@?$numeric_limits@O@std@@2HB
CONST	SEGMENT
?max_exponent@?$numeric_limits@O@std@@2HB DD 0400H	; std::numeric_limits<long double>::max_exponent
CONST	ENDS
;	COMDAT ?max_digits10@?$numeric_limits@O@std@@2HB
CONST	SEGMENT
?max_digits10@?$numeric_limits@O@std@@2HB DD 011H	; std::numeric_limits<long double>::max_digits10
CONST	ENDS
;	COMDAT ?digits10@?$numeric_limits@O@std@@2HB
CONST	SEGMENT
?digits10@?$numeric_limits@O@std@@2HB DD 0fH		; std::numeric_limits<long double>::digits10
CONST	ENDS
;	COMDAT ?digits@?$numeric_limits@O@std@@2HB
CONST	SEGMENT
?digits@?$numeric_limits@O@std@@2HB DD 035H		; std::numeric_limits<long double>::digits
CONST	ENDS
;	COMDAT ?min_exponent10@?$numeric_limits@N@std@@2HB
CONST	SEGMENT
?min_exponent10@?$numeric_limits@N@std@@2HB DD 0fffffecdH ; std::numeric_limits<double>::min_exponent10
CONST	ENDS
;	COMDAT ?min_exponent@?$numeric_limits@N@std@@2HB
CONST	SEGMENT
?min_exponent@?$numeric_limits@N@std@@2HB DD 0fffffc03H	; std::numeric_limits<double>::min_exponent
CONST	ENDS
;	COMDAT ?max_exponent10@?$numeric_limits@N@std@@2HB
CONST	SEGMENT
?max_exponent10@?$numeric_limits@N@std@@2HB DD 0134H	; std::numeric_limits<double>::max_exponent10
CONST	ENDS
;	COMDAT ?max_exponent@?$numeric_limits@N@std@@2HB
CONST	SEGMENT
?max_exponent@?$numeric_limits@N@std@@2HB DD 0400H	; std::numeric_limits<double>::max_exponent
CONST	ENDS
;	COMDAT ?max_digits10@?$numeric_limits@N@std@@2HB
CONST	SEGMENT
?max_digits10@?$numeric_limits@N@std@@2HB DD 011H	; std::numeric_limits<double>::max_digits10
CONST	ENDS
;	COMDAT ?digits10@?$numeric_limits@N@std@@2HB
CONST	SEGMENT
?digits10@?$numeric_limits@N@std@@2HB DD 0fH		; std::numeric_limits<double>::digits10
CONST	ENDS
;	COMDAT ?digits@?$numeric_limits@N@std@@2HB
CONST	SEGMENT
?digits@?$numeric_limits@N@std@@2HB DD 035H		; std::numeric_limits<double>::digits
CONST	ENDS
;	COMDAT ?value@?$integral_constant@I$0A@@std@@2IB
CONST	SEGMENT
?value@?$integral_constant@I$0A@@std@@2IB DD 00H	; std::integral_constant<unsigned int,0>::value
CONST	ENDS
;	COMDAT ?min_exponent10@?$numeric_limits@M@std@@2HB
CONST	SEGMENT
?min_exponent10@?$numeric_limits@M@std@@2HB DD 0ffffffdbH ; std::numeric_limits<float>::min_exponent10
CONST	ENDS
;	COMDAT ?min_exponent@?$numeric_limits@M@std@@2HB
CONST	SEGMENT
?min_exponent@?$numeric_limits@M@std@@2HB DD 0ffffff83H	; std::numeric_limits<float>::min_exponent
CONST	ENDS
;	COMDAT ?max_exponent10@?$numeric_limits@M@std@@2HB
CONST	SEGMENT
?max_exponent10@?$numeric_limits@M@std@@2HB DD 026H	; std::numeric_limits<float>::max_exponent10
CONST	ENDS
;	COMDAT ?max_exponent@?$numeric_limits@M@std@@2HB
CONST	SEGMENT
?max_exponent@?$numeric_limits@M@std@@2HB DD 080H	; std::numeric_limits<float>::max_exponent
CONST	ENDS
;	COMDAT ?max_digits10@?$numeric_limits@M@std@@2HB
CONST	SEGMENT
?max_digits10@?$numeric_limits@M@std@@2HB DD 09H	; std::numeric_limits<float>::max_digits10
CONST	ENDS
;	COMDAT ?digits10@?$numeric_limits@M@std@@2HB
CONST	SEGMENT
?digits10@?$numeric_limits@M@std@@2HB DD 06H		; std::numeric_limits<float>::digits10
CONST	ENDS
;	COMDAT ?digits@?$numeric_limits@M@std@@2HB
CONST	SEGMENT
?digits@?$numeric_limits@M@std@@2HB DD 018H		; std::numeric_limits<float>::digits
CONST	ENDS
;	COMDAT ?digits10@?$numeric_limits@_K@std@@2HB
CONST	SEGMENT
?digits10@?$numeric_limits@_K@std@@2HB DD 013H		; std::numeric_limits<unsigned __int64>::digits10
CONST	ENDS
;	COMDAT ?digits@?$numeric_limits@_K@std@@2HB
CONST	SEGMENT
?digits@?$numeric_limits@_K@std@@2HB DD 040H		; std::numeric_limits<unsigned __int64>::digits
CONST	ENDS
;	COMDAT ?is_signed@?$numeric_limits@_K@std@@2_NB
CONST	SEGMENT
?is_signed@?$numeric_limits@_K@std@@2_NB DB 00H		; std::numeric_limits<unsigned __int64>::is_signed
CONST	ENDS
_DATA	SEGMENT
?gTexUV@@3PAUUV@@A DD 03b03126fr		; 0.002	; gTexUV
	DD	03b03126fr			; 0.002
	DD	03e810625r			; 0.252
	DD	03b03126fr			; 0.002
	DD	03f008312r			; 0.502
	DD	03b03126fr			; 0.002
	DD	03f408312r			; 0.752
	DD	03b03126fr			; 0.002
	DD	03b03126fr			; 0.002
	DD	03e810625r			; 0.252
	DD	03e810625r			; 0.252
	DD	03e810625r			; 0.252
	DD	03f008312r			; 0.502
	DD	03e810625r			; 0.252
	DD	03f408312r			; 0.752
	DD	03e810625r			; 0.252
	DD	03b03126fr			; 0.002
	DD	03f008312r			; 0.502
	DD	03e810625r			; 0.252
	DD	03f008312r			; 0.502
	DD	03f008312r			; 0.502
	DD	03f008312r			; 0.502
	DD	03f408312r			; 0.752
	DD	03f008312r			; 0.502
	DD	03b03126fr			; 0.002
	DD	03f408312r			; 0.752
	DD	03e810625r			; 0.252
	DD	03f408312r			; 0.752
	DD	03f008312r			; 0.502
	DD	03f408312r			; 0.752
	DD	03f408312r			; 0.752
	DD	03f408312r			; 0.752
_lightLevel DD	03f800000r			; 1
?numGlowCrossVerts@@3HA DD 0cH				; numGlowCrossVerts
?glowCrossVerts@@3PAUTpoint@@A DD 000000000r	; 0	; glowCrossVerts
	DD	000000000r			; 0
	DD	0c1600000r			; -14
	DD	000000000r			; 0
	DD	03f800000r			; 1
	DD	0c0000000r			; -2
	DD	000000000r			; 0
	DD	040000000r			; 2
	DD	0bf800000r			; -1
	DD	000000000r			; 0
	DD	041600000r			; 14
	DD	000000000r			; 0
	DD	000000000r			; 0
	DD	040000000r			; 2
	DD	03f800000r			; 1
	DD	000000000r			; 0
	DD	03f800000r			; 1
	DD	040000000r			; 2
	DD	000000000r			; 0
	DD	000000000r			; 0
	DD	041600000r			; 14
	DD	000000000r			; 0
	DD	0bf800000r			; -1
	DD	040000000r			; 2
	DD	000000000r			; 0
	DD	0c0000000r			; -2
	DD	03f800000r			; 1
	DD	000000000r			; 0
	DD	0c1600000r			; -14
	DD	000000000r			; 0
	DD	000000000r			; 0
	DD	0c0000000r			; -2
	DD	0bf800000r			; -1
	DD	000000000r			; 0
	DD	0bf800000r			; -1
	DD	0c0000000r			; -2
?numGlowCircleVerts@@3HA DD 014H			; numGlowCircleVerts
?numGlowSquareVerts@@3HA DD 04H				; numGlowSquareVerts
?numGlowStarVerts@@3HA DD 014H				; numGlowStarVerts
?coneDim@@3UTpoint@@A DD 040900000r		; 4.5	; coneDim
	DD	040000000r			; 2
	DD	040000000r			; 2
?lensAlphas@@3PAMA DD 03e8f5c29r		; 0.28	; lensAlphas
	DD	03ebd70a4r			; 0.37
	DD	03e4ccccdr			; 0.2
	DD	03e75c28fr			; 0.24
	DD	03e8f5c29r			; 0.28
	DD	03e99999ar			; 0.3
	DD	03e851eb8r			; 0.26
	DD	03eb33333r			; 0.35
	DD	03e800000r			; 0.25
	DD	03e6147aer			; 0.22
?lensRadius@@3PAMA DD 0400147aer		; 2.02	; lensRadius
	DD	04043d70ar			; 3.06
	DD	03f866666r			; 1.05
	DD	03ee66666r			; 0.45
	DD	03f400000r			; 0.75
	DD	03fb0a3d7r			; 1.38
	DD	03f5eb852r			; 0.87
	DD	040c0f5c3r			; 6.03
	DD	040e2e148r			; 7.09
	DD	0412c7ae1r			; 10.78
?lensDist@@3PAMA DD 0c1400000r			; -12	; lensDist
	DD	0c2000000r			; -32
	DD	0c28c0000r			; -70
	DD	0c2f20000r			; -121
	DD	0c3350000r			; -181
	DD	0428c0000r			; 70
	DD	042fa0000r			; 125
	DD	041200000r			; 10
	DD	043250000r			; 165
	DD	042d20000r			; 105
?lensRGB@@3PAUTcolor@@A DD 03f800000r		; 1	; lensRGB
	DD	03f800000r			; 1
	DD	03f19999ar			; 0.6
	DD	03f800000r			; 1
	DD	03f4ccccdr			; 0.8
	DD	03f800000r			; 1
	DD	03f666666r			; 0.9
	DD	03f800000r			; 1
	DD	03f4ccccdr			; 0.8
	DD	03f800000r			; 1
	DD	03f4ccccdr			; 0.8
	DD	03f4ccccdr			; 0.8
	DD	03f800000r			; 1
	DD	03f666666r			; 0.9
	DD	03f800000r			; 1
	DD	03f4ccccdr			; 0.8
	DD	03f733333r			; 0.95
	DD	03f19999ar			; 0.6
	DD	03f800000r			; 1
	DD	03ecccccdr			; 0.4
	DD	03f4ccccdr			; 0.8
	DD	03f800000r			; 1
	DD	03f800000r			; 1
	DD	03f000000r			; 0.5
	DD	03f800000r			; 1
	DD	03e4ccccdr			; 0.2
	DD	03f800000r			; 1
	DD	03f333333r			; 0.7
	DD	03f333333r			; 0.7
	DD	03f800000r			; 1
?lensCenterRGB@@3PAUTcolor@@A DD 03e99999ar	; 0.3	; lensCenterRGB
	DD	03e99999ar			; 0.3
	DD	03f800000r			; 1
	DD	03f19999ar			; 0.6
	DD	03e4ccccdr			; 0.2
	DD	03e99999ar			; 0.3
	DD	03e4ccccdr			; 0.2
	DD	03e4ccccdr			; 0.2
	DD	03f800000r			; 1
	DD	03f333333r			; 0.7
	DD	03e99999ar			; 0.3
	DD	03f800000r			; 1
	DD	03e4ccccdr			; 0.2
	DD	03e4ccccdr			; 0.2
	DD	03f4ccccdr			; 0.8
	DD	03f800000r			; 1
	DD	03ecccccdr			; 0.4
	DD	03f666666r			; 0.9
	DD	03f333333r			; 0.7
	DD	03f333333r			; 0.7
	DD	03f800000r			; 1
	DD	03e99999ar			; 0.3
	DD	03f800000r			; 1
	DD	03f666666r			; 0.9
	DD	03ecccccdr			; 0.4
	DD	03f666666r			; 0.9
	DD	03f800000r			; 1
	DD	03dcccccdr			; 0.1
	DD	03f800000r			; 1
	DD	03f19999ar			; 0.6
_cloudPntList DD 0c5bcc000r			; -6040
	DD	0c4070000r			; -540
	DD	0c694ac00r			; -19030
	DD	0c6de1c00r			; -28430
	DD	0c4dfc000r			; -1790
	DD	046dcc800r			; 28260
	DD	047104200r			; 36930
	DD	045732000r			; 3890
	DD	04744ea00r			; 50410
	DD	045336000r			; 2870
	DD	0c4d48000r			; -1700
	DD	04736da00r			; 46810
	DD	0c763ee00r			; -58350
	DD	0c4d48000r			; -1700
	DD	0c64c1000r			; -13060
	DD	046f2bc00r			; 31070
	DD	045480000r			; 3200
	DD	0c7293800r			; -43320
	DD	0c7bdc400r			; -97160
	DD	0c4d48000r			; -1700
	DD	04576e000r			; 3950
	DD	0c792e000r			; -75200
	DD	0c4bb8000r			; -1500
	DD	047957400r			; 76520
	DD	04759ee00r			; 55790
	DD	0c5a1e000r			; -5180
	DD	0c7a24e00r			; -83100
	DD	0c7473800r			; -51000
	DD	0c3a00000r			; -320
	DD	0c7829100r			; -66850
	DD	047733400r			; 62260
	DD	0c3a00000r			; -320
	DD	047708200r			; 61570
	DD	0c7710e00r			; -61710
	DD	0c550c000r			; -3340
	DD	046fb7c00r			; 32190
	DD	0c7719a00r			; -61850
	DD	0c7483200r			; -51250
	DD	047543a00r			; 54330
	DD	0c5bcc000r			; -6040
	DD	0c7495400r			; -51540
	DD	0c694ac00r			; -19030
	DD	0c6a7a800r			; -21460
	DD	0c74b0200r			; -51970
	DD	0468e8000r			; 18240
	DD	047298800r			; 43400
	DD	0c74bf200r			; -52210
	DD	046bc7000r			; 24120
	DD	0c749f400r			; -51700
	DD	0c74bc000r			; -52160
	DD	046948400r			; 19010
	DD	0c605e800r			; -8570
	DD	0c7488200r			; -51330
	DD	0c74ca600r			; -52390
	DD	04731bc00r			; 45500
	DD	0c7509800r			; -53400
	DD	0c6725800r			; -15510
	DD	0c7719a00r			; -61850
	DD	0c7483200r			; -51250
	DD	047543a00r			; 54330
	DD	047553400r			; 54580
	DD	0c74ddc00r			; -52700
	DD	0479a5600r			; 79020
	DD	047a7e400r			; 85960
	DD	0c74c5600r			; -52310
	DD	0477d4800r			; 64840
	DD	0c7c44500r			; -100490
	DD	0c74d1400r			; -52500
	DD	047ac2600r			; 88140
	DD	0c7a1ae00r			; -82780
	DD	0c749ea00r			; -51690
	DD	0c7bce300r			; -96710
	DD	0c6126800r			; -9370
	DD	0c7495400r			; -51540
	DD	043cd0000r			; 410
	DD	0c6a7a800r			; -21460
	DD	0c74a8a00r			; -51850
	DD	0473fae00r			; 49070
	DD	0457c8000r			; 4040
	DD	0c74e4a00r			; -52810
	DD	047871e00r			; 69180
	DD	0c6cbc000r			; -26080
	DD	0c74bc000r			; -52160
	DD	046984400r			; 19490
	DD	0452fa000r			; 2810
	DD	0c7488200r			; -51330
	DD	0c7081800r			; -34840
	DD	0c7719a00r			; -61850
	DD	0c749d600r			; -51670
	DD	047b17600r			; 90860
	DD	047553400r			; 54580
	DD	0c74ddc00r			; -52700
	DD	0479a5600r			; 79020
	DD	047a7e400r			; 85960
	DD	0c74c5600r			; -52310
	DD	0477d4800r			; 64840
	DD	0c7c44500r			; -100490
	DD	0c74d1400r			; -52500
	DD	047ac2600r			; 88140
	DD	047c04e00r			; 98460
	DD	0c74d1400r			; -52500
	DD	0c732a200r			; -45730
	DD	0467b9000r			; 16100
	DD	0c7487800r			; -51320
	DD	0c749a400r			; -51620
	DD	047636c00r			; 58220
	DD	0c74e0400r			; -52740
	DD	0c760b000r			; -57520
	DD	0c6126800r			; -9370
	DD	0c4070000r			; -540
	DD	043cd0000r			; 410
	DD	0c4e60000r			; -1840
	DD	0c6a30c00r			; -20870
	DD	0470a6600r			; 35430
	DD	0c7230c00r			; -41740
	DD	046924000r			; 18720
	DD	04797d600r			; 77740
	DD	0460d9000r			; 9060
	DD	0c616c800r			; -9650
	DD	0c7921300r			; -74790
_lightningPosList DD 041300000r			; 11
	DD	000000000r			; 0
	DD	040e00000r			; 7
	DD	040a00000r			; 5
	DD	041100000r			; 9
	DD	041000000r			; 8
	DD	041000000r			; 8
	DD	041600000r			; 14
	DD	041800000r			; 16
	DD	041a00000r			; 20
	DD	041200000r			; 10
	DD	041c00000r			; 24
	DD	041300000r			; 11
	DD	041d80000r			; 27
	DD	040c00000r			; 6
	DD	041f00000r			; 30
	DD	040e00000r			; 7
	DD	042040000r			; 33
	DD	03f800000r			; 1
	DD	042180000r			; 38
	DD	040a00000r			; 5
	DD	042280000r			; 42
	DD	040a00000r			; 5
	DD	042340000r			; 45
	DD	041400000r			; 12
	DD	042400000r			; 48
	DD	041a00000r			; 20
	DD	042500000r			; 52
	DD	041a00000r			; 20
	DD	042680000r			; 58
	DD	041b80000r			; 23
	DD	042740000r			; 61
	DD	041b00000r			; 22
	DD	0427c0000r			; 63
	DD	041b00000r			; 22
	DD	042840000r			; 66
	DD	041c80000r			; 25
	DD	042880000r			; 68
	DD	041a00000r			; 20
	DD	0428c0000r			; 70
	DD	041c00000r			; 24
	DD	042960000r			; 75
	DD	041c00000r			; 24
	DD	0429a0000r			; 77
	DD	041f80000r			; 31
	DD	042a00000r			; 80
	DD	041f80000r			; 31
	DD	042a60000r			; 83
	DD	042040000r			; 33
	DD	042b00000r			; 88
	DD	041f80000r			; 31
	DD	042b80000r			; 92
	DD	0423c0000r			; 47
	DD	042ce0000r			; 103
	DD	042380000r			; 46
	DD	042d20000r			; 105
	DD	0423c0000r			; 47
	DD	042d60000r			; 107
	DD	042340000r			; 45
	DD	042e00000r			; 112
	DD	042400000r			; 48
	DD	042e40000r			; 114
	DD	042380000r			; 46
	DD	042ea0000r			; 117
	DD	0422c0000r			; 43
	DD	043000000r			; 128
_sLOD	DD	03f800000r			; 1
_sMaxScreenRes DD 03f800000r			; 1
_DATA	ENDS
PUBLIC	_fabsf
PUBLIC	_cosf
PUBLIC	_sinf
PUBLIC	?cos@@YAMM@Z					; cos
PUBLIC	?fabs@@YAMM@Z					; fabs
PUBLIC	?sin@@YAMM@Z					; sin
PUBLIC	?GetClockTime@TimeManager@@QAEKXZ		; TimeManager::GetClockTime
PUBLIC	?GetTextureLightingColor@CTimeOfDay@@QAEXPAUTcolor@@@Z ; CTimeOfDay::GetTextureLightingColor
PUBLIC	?GetLightLevel@CTimeOfDay@@QAEMXZ		; CTimeOfDay::GetLightLevel
PUBLIC	?ThereIsASun@CTimeOfDay@@QAEHXZ			; CTimeOfDay::ThereIsASun
PUBLIC	??2@YAPAXIPAX@Z					; operator new
PUBLIC	??3@YAXPAX0@Z					; operator delete
PUBLIC	?length@?$char_traits@D@std@@SAIPBD@Z		; std::char_traits<char>::length
PUBLIC	?copy@?$char_traits@D@std@@SAPADPADPBDI@Z	; std::char_traits<char>::copy
PUBLIC	?move@?$char_traits@D@std@@SAPADPADPBDI@Z	; std::char_traits<char>::move
PUBLIC	?assign@?$char_traits@D@std@@SAXAADABD@Z	; std::char_traits<char>::assign
PUBLIC	??0?$allocator@D@std@@QAE@XZ			; std::allocator<char>::allocator<char>
PUBLIC	?deallocate@?$allocator@D@std@@QAEXPADI@Z	; std::allocator<char>::deallocate
PUBLIC	?allocate@?$allocator@D@std@@QAEPADI@Z		; std::allocator<char>::allocate
PUBLIC	?max_size@?$allocator@D@std@@QBEIXZ		; std::allocator<char>::max_size
PUBLIC	?max_size@?$allocator_traits@V?$allocator@D@std@@@std@@SAIABV?$allocator@D@2@@Z ; std::allocator_traits<std::allocator<char> >::max_size
PUBLIC	??0?$_Wrap_alloc@V?$allocator@D@std@@@std@@QAE@XZ ; std::_Wrap_alloc<std::allocator<char> >::_Wrap_alloc<std::allocator<char> >
PUBLIC	?allocate@?$_Wrap_alloc@V?$allocator@D@std@@@std@@QAEPADI@Z ; std::_Wrap_alloc<std::allocator<char> >::allocate
PUBLIC	?deallocate@?$_Wrap_alloc@V?$allocator@D@std@@@std@@QAEXPADI@Z ; std::_Wrap_alloc<std::allocator<char> >::deallocate
PUBLIC	?max_size@?$_Wrap_alloc@V?$allocator@D@std@@@std@@QBEIXZ ; std::_Wrap_alloc<std::allocator<char> >::max_size
PUBLIC	??0?$_String_val@U?$_Simple_types@D@std@@@std@@QAE@XZ ; std::_String_val<std::_Simple_types<char> >::_String_val<std::_Simple_types<char> >
PUBLIC	?_Myptr@?$_String_val@U?$_Simple_types@D@std@@@std@@QAEPADXZ ; std::_String_val<std::_Simple_types<char> >::_Myptr
PUBLIC	?_Myptr@?$_String_val@U?$_Simple_types@D@std@@@std@@QBEPBDXZ ; std::_String_val<std::_Simple_types<char> >::_Myptr
PUBLIC	??0?$_String_alloc@$0A@U?$_String_base_types@DV?$allocator@D@std@@@std@@@std@@QAE@ABV?$allocator@D@1@@Z ; std::_String_alloc<0,std::_String_base_types<char,std::allocator<char> > >::_String_alloc<0,std::_String_base_types<char,std::allocator<char> > >
PUBLIC	?_Getal@?$_String_alloc@$0A@U?$_String_base_types@DV?$allocator@D@std@@@std@@@std@@QBE?AU?$_Wrap_alloc@V?$allocator@D@std@@@2@XZ ; std::_String_alloc<0,std::_String_base_types<char,std::allocator<char> > >::_Getal
PUBLIC	??0?$basic_string@DU?$char_traits@D@std@@V?$allocator@D@2@@std@@QAE@PBD@Z ; std::basic_string<char,std::char_traits<char>,std::allocator<char> >::basic_string<char,std::char_traits<char>,std::allocator<char> >
PUBLIC	?assign@?$basic_string@DU?$char_traits@D@std@@V?$allocator@D@2@@std@@QAEAAV12@ABV12@II@Z ; std::basic_string<char,std::char_traits<char>,std::allocator<char> >::assign
PUBLIC	?assign@?$basic_string@DU?$char_traits@D@std@@V?$allocator@D@2@@std@@QAEAAV12@PBDI@Z ; std::basic_string<char,std::char_traits<char>,std::allocator<char> >::assign
PUBLIC	?assign@?$basic_string@DU?$char_traits@D@std@@V?$allocator@D@2@@std@@QAEAAV12@PBD@Z ; std::basic_string<char,std::char_traits<char>,std::allocator<char> >::assign
PUBLIC	?erase@?$basic_string@DU?$char_traits@D@std@@V?$allocator@D@2@@std@@QAEAAV12@I@Z ; std::basic_string<char,std::char_traits<char>,std::allocator<char> >::erase
PUBLIC	?erase@?$basic_string@DU?$char_traits@D@std@@V?$allocator@D@2@@std@@QAEAAV12@II@Z ; std::basic_string<char,std::char_traits<char>,std::allocator<char> >::erase
PUBLIC	?size@?$basic_string@DU?$char_traits@D@std@@V?$allocator@D@2@@std@@QBEIXZ ; std::basic_string<char,std::char_traits<char>,std::allocator<char> >::size
PUBLIC	?max_size@?$basic_string@DU?$char_traits@D@std@@V?$allocator@D@2@@std@@QBEIXZ ; std::basic_string<char,std::char_traits<char>,std::allocator<char> >::max_size
PUBLIC	?_Copy@?$basic_string@DU?$char_traits@D@std@@V?$allocator@D@2@@std@@QAEXII@Z ; std::basic_string<char,std::char_traits<char>,std::allocator<char> >::_Copy
PUBLIC	?_Eos@?$basic_string@DU?$char_traits@D@std@@V?$allocator@D@2@@std@@QAEXI@Z ; std::basic_string<char,std::char_traits<char>,std::allocator<char> >::_Eos
PUBLIC	?_Grow@?$basic_string@DU?$char_traits@D@std@@V?$allocator@D@2@@std@@QAE_NI_N@Z ; std::basic_string<char,std::char_traits<char>,std::allocator<char> >::_Grow
PUBLIC	?_Inside@?$basic_string@DU?$char_traits@D@std@@V?$allocator@D@2@@std@@QAE_NPBD@Z ; std::basic_string<char,std::char_traits<char>,std::allocator<char> >::_Inside
PUBLIC	?_Tidy@?$basic_string@DU?$char_traits@D@std@@V?$allocator@D@2@@std@@QAEX_NI@Z ; std::basic_string<char,std::char_traits<char>,std::allocator<char> >::_Tidy
PUBLIC	?_Xlen@?$basic_string@DU?$char_traits@D@std@@V?$allocator@D@2@@std@@QBEXXZ ; std::basic_string<char,std::char_traits<char>,std::allocator<char> >::_Xlen
PUBLIC	?_Xran@?$basic_string@DU?$char_traits@D@std@@V?$allocator@D@2@@std@@QBEXXZ ; std::basic_string<char,std::char_traits<char>,std::allocator<char> >::_Xran
PUBLIC	??0id@locale@std@@QAE@I@Z			; std::locale::id::id
PUBLIC	?generic_category@std@@YAABVerror_category@1@XZ	; std::generic_category
PUBLIC	?system_category@std@@YAABVerror_category@1@XZ	; std::system_category
PUBLIC	??0error_category@std@@QAE@XZ			; std::error_category::error_category
PUBLIC	??1error_category@std@@UAE@XZ			; std::error_category::~error_category
PUBLIC	?default_error_condition@error_category@std@@UBE?AVerror_condition@2@H@Z ; std::error_category::default_error_condition
PUBLIC	?equivalent@error_category@std@@UBE_NHABVerror_condition@2@@Z ; std::error_category::equivalent
PUBLIC	?equivalent@error_category@std@@UBE_NABVerror_code@2@H@Z ; std::error_category::equivalent
PUBLIC	??8error_category@std@@QBE_NABV01@@Z		; std::error_category::operator==
PUBLIC	??_Gerror_category@std@@UAEPAXI@Z		; std::error_category::`scalar deleting destructor'
PUBLIC	?value@error_code@std@@QBEHXZ			; std::error_code::value
PUBLIC	?category@error_code@std@@QBEABVerror_category@2@XZ ; std::error_code::category
PUBLIC	??0error_condition@std@@QAE@HABVerror_category@1@@Z ; std::error_condition::error_condition
PUBLIC	?value@error_condition@std@@QBEHXZ		; std::error_condition::value
PUBLIC	?category@error_condition@std@@QBEABVerror_category@2@XZ ; std::error_condition::category
PUBLIC	??8error_condition@std@@QBE_NABV01@@Z		; std::error_condition::operator==
PUBLIC	??0_Generic_error_category@std@@QAE@XZ		; std::_Generic_error_category::_Generic_error_category
PUBLIC	?name@_Generic_error_category@std@@UBEPBDXZ	; std::_Generic_error_category::name
PUBLIC	?message@_Generic_error_category@std@@UBE?AV?$basic_string@DU?$char_traits@D@std@@V?$allocator@D@2@@2@H@Z ; std::_Generic_error_category::message
PUBLIC	??1_Generic_error_category@std@@UAE@XZ		; std::_Generic_error_category::~_Generic_error_category
PUBLIC	??_G_Generic_error_category@std@@UAEPAXI@Z	; std::_Generic_error_category::`scalar deleting destructor'
PUBLIC	??0_Iostream_error_category@std@@QAE@XZ		; std::_Iostream_error_category::_Iostream_error_category
PUBLIC	?name@_Iostream_error_category@std@@UBEPBDXZ	; std::_Iostream_error_category::name
PUBLIC	?message@_Iostream_error_category@std@@UBE?AV?$basic_string@DU?$char_traits@D@std@@V?$allocator@D@2@@2@H@Z ; std::_Iostream_error_category::message
PUBLIC	??1_Iostream_error_category@std@@UAE@XZ		; std::_Iostream_error_category::~_Iostream_error_category
PUBLIC	??_G_Iostream_error_category@std@@UAEPAXI@Z	; std::_Iostream_error_category::`scalar deleting destructor'
PUBLIC	??0_System_error_category@std@@QAE@XZ		; std::_System_error_category::_System_error_category
PUBLIC	?name@_System_error_category@std@@UBEPBDXZ	; std::_System_error_category::name
PUBLIC	?message@_System_error_category@std@@UBE?AV?$basic_string@DU?$char_traits@D@std@@V?$allocator@D@2@@2@H@Z ; std::_System_error_category::message
PUBLIC	?default_error_condition@_System_error_category@std@@UBE?AVerror_condition@2@H@Z ; std::_System_error_category::default_error_condition
PUBLIC	??1_System_error_category@std@@UAE@XZ		; std::_System_error_category::~_System_error_category
PUBLIC	??_G_System_error_category@std@@UAEPAXI@Z	; std::_System_error_category::`scalar deleting destructor'
PUBLIC	?SetPalette@Texture@@QAEXPAVPalette@@@Z		; Texture::SetPalette
PUBLIC	?GetPalette@Texture@@QAEPAVPalette@@XZ		; Texture::GetPalette
PUBLIC	?TexHandle@Texture@@QAEKXZ			; Texture::TexHandle
PUBLIC	?GetTopPixel@VirtualDisplay@@QAEMXZ		; VirtualDisplay::GetTopPixel
PUBLIC	?GetBottomPixel@VirtualDisplay@@QAEMXZ		; VirtualDisplay::GetBottomPixel
PUBLIC	?GetLeftPixel@VirtualDisplay@@QAEMXZ		; VirtualDisplay::GetLeftPixel
PUBLIC	?GetRightPixel@VirtualDisplay@@QAEMXZ		; VirtualDisplay::GetRightPixel
PUBLIC	?GetFOV@Render3D@@QAEMXZ			; Render3D::GetFOV
PUBLIC	?X@Render3D@@QAEMXZ				; Render3D::X
PUBLIC	?Y@Render3D@@QAEMXZ				; Render3D::Y
PUBLIC	?Z@Render3D@@QAEMXZ				; Render3D::Z
PUBLIC	?GetAt@Render3D@@QAEXPAUTpoint@@@Z		; Render3D::GetAt
PUBLIC	?GetLeft@Render3D@@QAEXPAUTpoint@@@Z		; Render3D::GetLeft
PUBLIC	?GetUp@Render3D@@QAEXPAUTpoint@@@Z		; Render3D::GetUp
PUBLIC	?GetFilteringMode@RenderOTW@@QAEHXZ		; RenderOTW::GetFilteringMode
PUBLIC	??0DrawableObject@@QAE@M@Z			; DrawableObject::DrawableObject
PUBLIC	??1DrawableObject@@UAE@XZ			; DrawableObject::~DrawableObject
PUBLIC	?GetRadarSign@DrawableObject@@UAEMXZ		; DrawableObject::GetRadarSign
PUBLIC	?SetLabel@DrawableObject@@UAEXPADK@Z		; DrawableObject::SetLabel
PUBLIC	?SetInhibitFlag@DrawableObject@@UAEXH@Z		; DrawableObject::SetInhibitFlag
PUBLIC	?Draw@DrawableObject@@UAEXPAVRender3D@@@Z	; DrawableObject::Draw
PUBLIC	?GetRayHit@DrawableObject@@UAEHPBUTpoint@@0PAU2@M@Z ; DrawableObject::GetRayHit
PUBLIC	?SetParentList@DrawableObject@@MAEXPAVObjectDisplayList@@@Z ; DrawableObject::SetParentList
PUBLIC	??_GDrawableObject@@UAEPAXI@Z			; DrawableObject::`scalar deleting destructor'
PUBLIC	?GenerateFastRandom@@YAJXZ			; GenerateFastRandom
PUBLIC	?PRANDFloat@@YAMXZ				; PRANDFloat
PUBLIC	??0Drawable2D@@QAE@HMPAUTpoint@@@Z		; Drawable2D::Drawable2D
PUBLIC	??0Drawable2D@@QAE@HMPAUTpoint@@PAUTrotation@@@Z ; Drawable2D::Drawable2D
PUBLIC	??0Drawable2D@@QAE@HMPAUTpoint@@H00@Z		; Drawable2D::Drawable2D
PUBLIC	??1Drawable2D@@UAE@XZ				; Drawable2D::~Drawable2D
PUBLIC	?Draw@Drawable2D@@UAEXPAVRenderOTW@@H@Z		; Drawable2D::Draw
PUBLIC	?Update@Drawable2D@@UAEXPBUTpoint@@PBUTrotation@@@Z ; Drawable2D::Update
PUBLIC	?SetPosition@Drawable2D@@QAEXPAUTpoint@@@Z	; Drawable2D::SetPosition
PUBLIC	?SetStartTime@Drawable2D@@QAEXKK@Z		; Drawable2D::SetStartTime
PUBLIC	?GetAlphaTimeToLive@Drawable2D@@QAEMXZ		; Drawable2D::GetAlphaTimeToLive
PUBLIC	?SetLOD@Drawable2D@@SAXM@Z			; Drawable2D::SetLOD
PUBLIC	?SetGreenMode@Drawable2D@@SAXH@Z		; Drawable2D::SetGreenMode
PUBLIC	?DrawGlowSphere@Drawable2D@@SAXPAVRenderOTW@@PAUTpoint@@MM@Z ; Drawable2D::DrawGlowSphere
PUBLIC	?DrawGlowSphere@Drawable2D@@IAEXPAVRenderOTW@@H@Z ; Drawable2D::DrawGlowSphere
PUBLIC	?DrawGouraudTri@Drawable2D@@IAEXPAVRenderOTW@@H@Z ; Drawable2D::DrawGouraudTri
PUBLIC	?DrawTexturedCone@Drawable2D@@IAEXPAVRenderOTW@@H@Z ; Drawable2D::DrawTexturedCone
PUBLIC	?GetAnimFrame@Drawable2D@@IAEHHK@Z		; Drawable2D::GetAnimFrame
PUBLIC	?ScatterPlot@Drawable2D@@IAEXPAVRenderOTW@@@Z	; Drawable2D::ScatterPlot
PUBLIC	?APLScatterPlot@Drawable2D@@IAEXPAVRenderOTW@@@Z ; Drawable2D::APLScatterPlot
PUBLIC	?TimeUpdateCallback@Drawable2D@@KAXPAX@Z	; Drawable2D::TimeUpdateCallback
PUBLIC	?SetupTexturesOnDevice@Drawable2D@@SAXPAVDXContext@@@Z ; Drawable2D::SetupTexturesOnDevice
PUBLIC	?ReleaseTexturesOnDevice@Drawable2D@@SAXPAVDXContext@@@Z ; Drawable2D::ReleaseTexturesOnDevice
PUBLIC	??_GDrawable2D@@UAEPAXI@Z			; Drawable2D::`scalar deleting destructor'
PUBLIC	?Draw2DLensFlare@@YAXPAVRenderOTW@@@Z		; Draw2DLensFlare
PUBLIC	?Draw2DSunGlowEffect@@YAXPAVRenderOTW@@PAUTpoint@@MM@Z ; Draw2DSunGlowEffect
PUBLIC	?F_I32@@YAKM@Z					; F_I32
PUBLIC	?InsideOvercast@RealWeather@@QAE_NXZ		; RealWeather::InsideOvercast
PUBLIC	?UnderOvercast@RealWeather@@QAE_NXZ		; RealWeather::UnderOvercast
PUBLIC	??$construct@PADAAPAD@?$_Wrap_alloc@V?$allocator@D@std@@@std@@QAEXPAPADAAPAD@Z ; std::_Wrap_alloc<std::allocator<char> >::construct<char *,char * &>
PUBLIC	??$destroy@PAD@?$_Wrap_alloc@V?$allocator@D@std@@@std@@QAEXPAPAD@Z ; std::_Wrap_alloc<std::allocator<char> >::destroy<char *>
PUBLIC	??$addressof@D@std@@YAPADAAD@Z			; std::addressof<char>
PUBLIC	??$_Allocate@D@std@@YAPADIPAD@Z			; std::_Allocate<char>
PUBLIC	??$forward@AAPAD@std@@YAAAPADAAPAD@Z		; std::forward<char * &>
PUBLIC	??$construct@PADAAPAD@?$allocator_traits@V?$allocator@D@std@@@std@@SAXAAV?$allocator@D@1@PAPADAAPAD@Z ; std::allocator_traits<std::allocator<char> >::construct<char *,char * &>
PUBLIC	??$destroy@PAD@?$allocator_traits@V?$allocator@D@std@@@std@@SAXAAV?$allocator@D@1@PAPAD@Z ; std::allocator_traits<std::allocator<char> >::destroy<char *>
PUBLIC	??$construct@PADAAPAD@?$allocator@D@std@@QAEXPAPADAAPAD@Z ; std::allocator<char>::construct<char *,char * &>
PUBLIC	??$destroy@PAD@?$allocator@D@std@@QAEXPAPAD@Z	; std::allocator<char>::destroy<char *>
PUBLIC	??_7error_category@std@@6B@			; std::error_category::`vftable'
PUBLIC	??_7_Generic_error_category@std@@6B@		; std::_Generic_error_category::`vftable'
PUBLIC	??_C@_07DCLBNMLN@generic?$AA@			; `string'
PUBLIC	??_C@_0O@BFJCFAAK@unknown?5error?$AA@		; `string'
PUBLIC	??_7_Iostream_error_category@std@@6B@		; std::_Iostream_error_category::`vftable'
PUBLIC	??_C@_08LLGCOLLL@iostream?$AA@			; `string'
PUBLIC	??_C@_0BG@PADBLCHM@iostream?5stream?5error?$AA@	; `string'
PUBLIC	??_7_System_error_category@std@@6B@		; std::_System_error_category::`vftable'
PUBLIC	??_C@_06FHFOAHML@system?$AA@			; `string'
PUBLIC	?_Generic_object@?$_Error_objects@H@std@@2V_Generic_error_category@2@A ; std::_Error_objects<int>::_Generic_object
PUBLIC	?_Iostream_object@?$_Error_objects@H@std@@2V_Iostream_error_category@2@A ; std::_Error_objects<int>::_Iostream_object
PUBLIC	?_System_object@?$_Error_objects@H@std@@2V_System_error_category@2@A ; std::_Error_objects<int>::_System_object
PUBLIC	?id@?$num_put@DV?$back_insert_iterator@V?$basic_string@DU?$char_traits@D@std@@V?$allocator@D@2@@std@@@std@@@std@@2V0locale@2@A ; std::num_put<char,std::back_insert_iterator<std::basic_string<char,std::char_traits<char>,std::allocator<char> > > >::id
PUBLIC	?id@?$num_put@_WV?$back_insert_iterator@V?$basic_string@_WU?$char_traits@_W@std@@V?$allocator@_W@2@@std@@@std@@@std@@2V0locale@2@A ; std::num_put<wchar_t,std::back_insert_iterator<std::basic_string<wchar_t,std::char_traits<wchar_t>,std::allocator<wchar_t> > > >::id
PUBLIC	??_7DrawableObject@@6B@				; DrawableObject::`vftable'
PUBLIC	?LastRandom@?1??GenerateFastRandom@@YAJXZ@4JA	; `GenerateFastRandom'::`2'::LastRandom
PUBLIC	??_7Drawable2D@@6B@				; Drawable2D::`vftable'
PUBLIC	?gGlobTextures@@3PAVTexture@@A			; gGlobTextures
PUBLIC	?gAplTextures@@3PAVTexture@@A			; gAplTextures
PUBLIC	?gAplTexturesGreen@@3PAVTexture@@A		; gAplTexturesGreen
PUBLIC	?gTypeTable@@3PAU_TYPES2D@@A			; gTypeTable
PUBLIC	??_C@_0O@NBIDGJOC@bom00?$CF02d?4gif?$AA@	; `string'
PUBLIC	??_C@_09FLKLCKMH@sfx01?4APL?$AA@		; `string'
PUBLIC	??_C@_0M@GBKBOKB@sfx?$CF02d?4APL?$AA@		; `string'
PUBLIC	??_C@_0L@HIALBIMO@sfxg01?4GIF?$AA@		; `string'
PUBLIC	??_C@_0N@HGIAOOL@sfxg?$CF02d?4GIF?$AA@		; `string'
PUBLIC	?id@?$numpunct@D@std@@2V0locale@2@A		; std::numpunct<char>::id
PUBLIC	?id@?$numpunct@_W@std@@2V0locale@2@A		; std::numpunct<wchar_t>::id
PUBLIC	??_C@_0BI@CFPLBAOH@invalid?5string?5position?$AA@ ; `string'
PUBLIC	??_C@_0BA@JFNIOLAK@string?5too?5long?$AA@	; `string'
PUBLIC	??_R4error_category@std@@6B@			; std::error_category::`RTTI Complete Object Locator'
PUBLIC	??_R0?AVerror_category@std@@@8			; std::error_category `RTTI Type Descriptor'
PUBLIC	??_R3error_category@std@@8			; std::error_category::`RTTI Class Hierarchy Descriptor'
PUBLIC	??_R2error_category@std@@8			; std::error_category::`RTTI Base Class Array'
PUBLIC	??_R1A@?0A@EA@error_category@std@@8		; std::error_category::`RTTI Base Class Descriptor at (0,-1,0,64)'
PUBLIC	??_R4_Generic_error_category@std@@6B@		; std::_Generic_error_category::`RTTI Complete Object Locator'
PUBLIC	??_R0?AV_Generic_error_category@std@@@8		; std::_Generic_error_category `RTTI Type Descriptor'
PUBLIC	??_R3_Generic_error_category@std@@8		; std::_Generic_error_category::`RTTI Class Hierarchy Descriptor'
PUBLIC	??_R2_Generic_error_category@std@@8		; std::_Generic_error_category::`RTTI Base Class Array'
PUBLIC	??_R1A@?0A@EA@_Generic_error_category@std@@8	; std::_Generic_error_category::`RTTI Base Class Descriptor at (0,-1,0,64)'
PUBLIC	??_R4_Iostream_error_category@std@@6B@		; std::_Iostream_error_category::`RTTI Complete Object Locator'
PUBLIC	??_R0?AV_Iostream_error_category@std@@@8	; std::_Iostream_error_category `RTTI Type Descriptor'
PUBLIC	??_R3_Iostream_error_category@std@@8		; std::_Iostream_error_category::`RTTI Class Hierarchy Descriptor'
PUBLIC	??_R2_Iostream_error_category@std@@8		; std::_Iostream_error_category::`RTTI Base Class Array'
PUBLIC	??_R1A@?0A@EA@_Iostream_error_category@std@@8	; std::_Iostream_error_category::`RTTI Base Class Descriptor at (0,-1,0,64)'
PUBLIC	??_R4_System_error_category@std@@6B@		; std::_System_error_category::`RTTI Complete Object Locator'
PUBLIC	??_R0?AV_System_error_category@std@@@8		; std::_System_error_category `RTTI Type Descriptor'
PUBLIC	??_R3_System_error_category@std@@8		; std::_System_error_category::`RTTI Class Hierarchy Descriptor'
PUBLIC	??_R2_System_error_category@std@@8		; std::_System_error_category::`RTTI Base Class Array'
PUBLIC	??_R1A@?0A@EA@_System_error_category@std@@8	; std::_System_error_category::`RTTI Base Class Descriptor at (0,-1,0,64)'
PUBLIC	??_R4DrawableObject@@6B@			; DrawableObject::`RTTI Complete Object Locator'
PUBLIC	??_R0?AVDrawableObject@@@8			; DrawableObject `RTTI Type Descriptor'
PUBLIC	??_R3DrawableObject@@8				; DrawableObject::`RTTI Class Hierarchy Descriptor'
PUBLIC	??_R2DrawableObject@@8				; DrawableObject::`RTTI Base Class Array'
PUBLIC	??_R1A@?0A@EA@DrawableObject@@8			; DrawableObject::`RTTI Base Class Descriptor at (0,-1,0,64)'
PUBLIC	??_R4Drawable2D@@6B@				; Drawable2D::`RTTI Complete Object Locator'
PUBLIC	??_R0?AVDrawable2D@@@8				; Drawable2D `RTTI Type Descriptor'
PUBLIC	??_R3Drawable2D@@8				; Drawable2D::`RTTI Class Hierarchy Descriptor'
PUBLIC	??_R2Drawable2D@@8				; Drawable2D::`RTTI Base Class Array'
PUBLIC	??_R1A@?0A@EA@Drawable2D@@8			; Drawable2D::`RTTI Base Class Descriptor at (0,-1,0,64)'
PUBLIC	__real@00000000
PUBLIC	__real@3727c5ac
PUBLIC	__real@377ba882
PUBLIC	__real@3827c5ac
PUBLIC	__real@3851b717
PUBLIC	__real@387ba882
PUBLIC	__real@3892ccf7
PUBLIC	__real@38d1b717
PUBLIC	__real@3951b717
PUBLIC	__real@399d4952
PUBLIC	__real@39ebedfa
PUBLIC	__real@3a03126f
PUBLIC	__real@3a378034
PUBLIC	__real@3a6bedfa
PUBLIC	__real@3a83126f
PUBLIC	__real@3ac49ba6
PUBLIC	__real@3ca3d70a
PUBLIC	__real@3d4ccccd
PUBLIC	__real@3dcccccd
PUBLIC	__real@3dfbe76d
PUBLIC	__real@3e19999a
PUBLIC	__real@3e4ccccd
PUBLIC	__real@3e7be76d
PUBLIC	__real@3e800000
PUBLIC	__real@3e99999a
PUBLIC	__real@3ecccccd
PUBLIC	__real@3ee66666
PUBLIC	__real@3f000000
PUBLIC	__real@3f0ccccd
PUBLIC	__real@3f19999a
PUBLIC	__real@3f1a36e2eb1c432d
PUBLIC	__real@3f266666
PUBLIC	__real@3f333333
PUBLIC	__real@3f4ccccd
PUBLIC	__real@3f666666
PUBLIC	__real@3f800000
PUBLIC	__real@3f860a91
PUBLIC	__real@3f99999a
PUBLIC	__real@3fc00000
PUBLIC	__real@3fe66666
PUBLIC	__real@40000000
PUBLIC	__real@40400000
PUBLIC	__real@40c90fdb
PUBLIC	__real@41000000
PUBLIC	__real@41200000
PUBLIC	__real@41400000
PUBLIC	__real@41700000
PUBLIC	__real@41800000
PUBLIC	__real@41a00000
PUBLIC	__real@41f00000
PUBLIC	__real@42200000
PUBLIC	__real@42480000
PUBLIC	__real@42700000
PUBLIC	__real@42a00000
PUBLIC	__real@42b40000
PUBLIC	__real@42c80000
PUBLIC	__real@42f00000
PUBLIC	__real@42ff0000
PUBLIC	__real@437fe666
PUBLIC	__real@43960000
PUBLIC	__real@43c80000
PUBLIC	__real@43f00000
PUBLIC	__real@43fa0000
PUBLIC	__real@447a0000
PUBLIC	__real@459c4000
PUBLIC	__real@461c4000
PUBLIC	__real@466a6000
PUBLIC	__real@46ea6000
PUBLIC	__real@46fffe00
PUBLIC	__real@477fff00
PUBLIC	__real@bf333333
PUBLIC	__real@bf800000
PUBLIC	__real@c1a00000
PUBLIC	__real@c32a0000
PUBLIC	__xmm@41f00000000000000000000000000000
PUBLIC	__xmm@80000000800000008000000080000000
EXTRN	??_L@YGXPAXIHP6EX0@Z1@Z:PROC			; `eh vector constructor iterator'
EXTRN	??_M@YGXPAXIHP6EX0@Z@Z:PROC			; `eh vector destructor iterator'
EXTRN	__purecall:PROC
EXTRN	??2@YAPAXI@Z:PROC				; operator new
EXTRN	??3@YAXPAX@Z:PROC				; operator delete
EXTRN	_atexit:PROC
EXTRN	_cos:PROC
EXTRN	_fabs:PROC
EXTRN	_sin:PROC
EXTRN	_rand:PROC
EXTRN	_memcpy:PROC
EXTRN	_strlen:PROC
EXTRN	_memmove:PROC
EXTRN	_sprintf:PROC
EXTRN	?RegisterTimeUpdateCB@TimeManager@@QAEXP6AXPAX@Z0@Z:PROC ; TimeManager::RegisterTimeUpdateCB
EXTRN	?ReleaseTimeUpdateCB@TimeManager@@QAEXP6AXPAX@Z0@Z:PROC ; TimeManager::ReleaseTimeUpdateCB
EXTRN	?GetLightDirection@CTimeOfDay@@QAEXPAUTpoint@@@Z:PROC ; CTimeOfDay::GetLightDirection
EXTRN	?CalculateSunMoonPos@CTimeOfDay@@QAEXPAUTpoint@@H@Z:PROC ; CTimeOfDay::CalculateSunMoonPos
EXTRN	?_Xbad_alloc@std@@YAXXZ:PROC			; std::_Xbad_alloc
EXTRN	?_Xlength_error@std@@YAXPBD@Z:PROC		; std::_Xlength_error
EXTRN	?_Xout_of_range@std@@YAXPBD@Z:PROC		; std::_Xout_of_range
EXTRN	??_Eerror_category@std@@UAEPAXI@Z:PROC		; std::error_category::`vector deleting destructor'
EXTRN	?_Syserror_map@std@@YAPBDH@Z:PROC		; std::_Syserror_map
EXTRN	?_Winerror_map@std@@YAPBDH@Z:PROC		; std::_Winerror_map
EXTRN	??_E_Generic_error_category@std@@UAEPAXI@Z:PROC	; std::_Generic_error_category::`vector deleting destructor'
EXTRN	??_E_Iostream_error_category@std@@UAEPAXI@Z:PROC ; std::_Iostream_error_category::`vector deleting destructor'
EXTRN	??_E_System_error_category@std@@UAEPAXI@Z:PROC	; std::_System_error_category::`vector deleting destructor'
EXTRN	?SetState@ContextMPR@@QAEXGK@Z:PROC		; ContextMPR::SetState
EXTRN	?SelectTexture1@ContextMPR@@QAEXH@Z:PROC	; ContextMPR::SelectTexture1
EXTRN	?RestoreState@ContextMPR@@QAEXH@Z:PROC		; ContextMPR::RestoreState
EXTRN	?UpdateMPR@Palette@@QAEXPAK@Z:PROC		; Palette::UpdateMPR
EXTRN	?LightTexturePalette@Palette@@QAEXPAUTcolor@@@Z:PROC ; Palette::LightTexturePalette
EXTRN	?LightTexturePaletteRange@Palette@@QAEXPAUTcolor@@HH@Z:PROC ; Palette::LightTexturePaletteRange
EXTRN	??0Texture@@QAE@XZ:PROC				; Texture::Texture
EXTRN	??1Texture@@QAE@XZ:PROC				; Texture::~Texture
EXTRN	?LoadAndCreate@Texture@@QAEHPADK@Z:PROC		; Texture::LoadAndCreate
EXTRN	?FreeAll@Texture@@QAEXXZ:PROC			; Texture::FreeAll
EXTRN	?SetClipFlags@Render2D@@QAEXPAUTwoDVertex@@@Z:PROC ; Render2D::SetClipFlags
EXTRN	?ClipAndDraw2DFan@Render2D@@QAEXPAPAUTwoDVertex@@I_N@Z:PROC ; Render2D::ClipAndDraw2DFan
EXTRN	?TransformPoint@Render3D@@QAEXPAUTpoint@@PAUThreeDVertex@@@Z:PROC ; Render3D::TransformPoint
EXTRN	?TransformPointToView@Render3D@@QAEXPAUTpoint@@0@Z:PROC ; Render3D::TransformPointToView
EXTRN	?TransformBillboardPoint@Render3D@@QAEXPAUTpoint@@0PAUThreeDVertex@@@Z:PROC ; Render3D::TransformBillboardPoint
EXTRN	?TransformTreePoint@Render3D@@QAEXPAUTpoint@@0PAUThreeDVertex@@@Z:PROC ; Render3D::TransformTreePoint
EXTRN	?TransformCameraCentricPoint@Render3D@@QAEXPAUTpoint@@PAUThreeDVertex@@@Z:PROC ; Render3D::TransformCameraCentricPoint
EXTRN	?DrawSquare@Render3D@@QAEXPAUThreeDVertex@@000H_N1@Z:PROC ; Render3D::DrawSquare
EXTRN	?DrawTriangle@Render3D@@QAEXPAUThreeDVertex@@00H_N1@Z:PROC ; Render3D::DrawTriangle
EXTRN	??_EDrawableObject@@UAEPAXI@Z:PROC		; DrawableObject::`vector deleting destructor'
EXTRN	??_EDrawable2D@@UAEPAXI@Z:PROC			; Drawable2D::`vector deleting destructor'
EXTRN	?DX2D_AddQuad@CDXEngine@@QAEXKKPAUD3DXVECTOR3@@PAUD3DDYNVERTEX@@MK@Z:PROC ; CDXEngine::DX2D_AddQuad
EXTRN	?DX2D_AddPoly@CDXEngine@@QAEXKKPAUD3DXVECTOR3@@PAUD3DDYNVERTEX@@MKK@Z:PROC ; CDXEngine::DX2D_AddPoly
EXTRN	@__security_check_cookie@4:PROC
EXTRN	__CxxThrowException@8:PROC
EXTRN	___CxxFrameHandler3:PROC
EXTRN	?TheTimeManager@@3VTimeManager@@A:BYTE		; TheTimeManager
EXTRN	?TheTimeOfDay@@3VCTimeOfDay@@A:BYTE		; TheTimeOfDay
EXTRN	??_7type_info@@6B@:QWORD			; type_info::`vftable'
EXTRN	?TheDXEngine@@3VCDXEngine@@A:BYTE		; TheDXEngine
EXTRN	?realWeather@@3PAVRealWeather@@A:DWORD		; realWeather
EXTRN	?g_nGfxFix@@3HA:DWORD				; g_nGfxFix
EXTRN	___security_cookie:DWORD
EXTRN	__fltused:DWORD
_BSS	SEGMENT
_piecewise_construct DB 01H DUP (?)
	ALIGN	4

_allocator_arg DB 01H DUP (?)
_BSS	ENDS
;	COMDAT ?_Generic_object@?$_Error_objects@H@std@@2V_Generic_error_category@2@A
_BSS	SEGMENT
?_Generic_object@?$_Error_objects@H@std@@2V_Generic_error_category@2@A DD 01H DUP (?) ; std::_Error_objects<int>::_Generic_object
_BSS	ENDS
;	COMDAT ?_Iostream_object@?$_Error_objects@H@std@@2V_Iostream_error_category@2@A
_BSS	SEGMENT
?_Iostream_object@?$_Error_objects@H@std@@2V_Iostream_error_category@2@A DD 01H DUP (?) ; std::_Error_objects<int>::_Iostream_object
_BSS	ENDS
;	COMDAT ?_System_object@?$_Error_objects@H@std@@2V_System_error_category@2@A
_BSS	SEGMENT
?_System_object@?$_Error_objects@H@std@@2V_System_error_category@2@A DD 01H DUP (?) ; std::_Error_objects<int>::_System_object
_BSS	ENDS
;	COMDAT ?id@?$num_put@DV?$back_insert_iterator@V?$basic_string@DU?$char_traits@D@std@@V?$allocator@D@2@@std@@@std@@@std@@2V0locale@2@A
_BSS	SEGMENT
?id@?$num_put@DV?$back_insert_iterator@V?$basic_string@DU?$char_traits@D@std@@V?$allocator@D@2@@std@@@std@@@std@@2V0locale@2@A DD 01H DUP (?) ; std::num_put<char,std::back_insert_iterator<std::basic_string<char,std::char_traits<char>,std::allocator<char> > > >::id
_BSS	ENDS
;	COMDAT ?id@?$num_put@_WV?$back_insert_iterator@V?$basic_string@_WU?$char_traits@_W@std@@V?$allocator@_W@2@@std@@@std@@@std@@2V0locale@2@A
_BSS	SEGMENT
?id@?$num_put@_WV?$back_insert_iterator@V?$basic_string@_WU?$char_traits@_W@std@@V?$allocator@_W@2@@std@@@std@@@std@@2V0locale@2@A DD 01H DUP (?) ; std::num_put<wchar_t,std::back_insert_iterator<std::basic_string<wchar_t,std::char_traits<wchar_t>,std::allocator<wchar_t> > > >::id
_BSS	ENDS
;	COMDAT ?LastRandom@?1??GenerateFastRandom@@YAJXZ@4JA
_BSS	SEGMENT
?LastRandom@?1??GenerateFastRandom@@YAJXZ@4JA DD 01H DUP (?) ; `GenerateFastRandom'::`2'::LastRandom
_BSS	ENDS
_BSS	SEGMENT
	ALIGN	4

_gLight	DB	0cH DUP (?)
?gGlobTextures@@3PAVTexture@@A DB 0300H DUP (?)		; gGlobTextures
?gAplTextures@@3PAVTexture@@A DB 0108H DUP (?)		; gAplTextures
?gAplTexturesGreen@@3PAVTexture@@A DB 0108H DUP (?)	; gAplTexturesGreen
_BSS	ENDS
;	COMDAT ?id@?$numpunct@D@std@@2V0locale@2@A
_BSS	SEGMENT
?id@?$numpunct@D@std@@2V0locale@2@A DD 01H DUP (?)	; std::numpunct<char>::id
_BSS	ENDS
;	COMDAT ?id@?$numpunct@_W@std@@2V0locale@2@A
_BSS	SEGMENT
?id@?$numpunct@_W@std@@2V0locale@2@A DD 01H DUP (?)	; std::numpunct<wchar_t>::id
_BSS	ENDS
CRT$XCU	SEGMENT
_piecewise_construct$initializer$ DD FLAT:??__Epiecewise_construct@std@@YAXXZ
CRT$XCU	ENDS
;	COMDAT __xmm@80000000800000008000000080000000
CONST	SEGMENT
__xmm@80000000800000008000000080000000 DB 00H, 00H, 00H, 080H, 00H, 00H, 00H
	DB	080H, 00H, 00H, 00H, 080H, 00H, 00H, 00H, 080H
CONST	ENDS
;	COMDAT __xmm@41f00000000000000000000000000000
CONST	SEGMENT
__xmm@41f00000000000000000000000000000 DB 00H, 00H, 00H, 00H, 00H, 00H, 00H
	DB	00H, 00H, 00H, 00H, 00H, 00H, 00H, 0f0H, 'A'
CONST	ENDS
;	COMDAT __real@c32a0000
CONST	SEGMENT
__real@c32a0000 DD 0c32a0000r			; -170
CONST	ENDS
;	COMDAT __real@c1a00000
CONST	SEGMENT
__real@c1a00000 DD 0c1a00000r			; -20
CONST	ENDS
;	COMDAT __real@bf800000
CONST	SEGMENT
__real@bf800000 DD 0bf800000r			; -1
CONST	ENDS
;	COMDAT __real@bf333333
CONST	SEGMENT
__real@bf333333 DD 0bf333333r			; -0.7
CONST	ENDS
;	COMDAT __real@477fff00
CONST	SEGMENT
__real@477fff00 DD 0477fff00r			; 65535
CONST	ENDS
;	COMDAT __real@46fffe00
CONST	SEGMENT
__real@46fffe00 DD 046fffe00r			; 32767
CONST	ENDS
;	COMDAT __real@46ea6000
CONST	SEGMENT
__real@46ea6000 DD 046ea6000r			; 30000
CONST	ENDS
;	COMDAT __real@466a6000
CONST	SEGMENT
__real@466a6000 DD 0466a6000r			; 15000
CONST	ENDS
;	COMDAT __real@461c4000
CONST	SEGMENT
__real@461c4000 DD 0461c4000r			; 10000
CONST	ENDS
;	COMDAT __real@459c4000
CONST	SEGMENT
__real@459c4000 DD 0459c4000r			; 5000
CONST	ENDS
;	COMDAT __real@447a0000
CONST	SEGMENT
__real@447a0000 DD 0447a0000r			; 1000
CONST	ENDS
;	COMDAT __real@43fa0000
CONST	SEGMENT
__real@43fa0000 DD 043fa0000r			; 500
CONST	ENDS
;	COMDAT __real@43f00000
CONST	SEGMENT
__real@43f00000 DD 043f00000r			; 480
CONST	ENDS
;	COMDAT __real@43c80000
CONST	SEGMENT
__real@43c80000 DD 043c80000r			; 400
CONST	ENDS
;	COMDAT __real@43960000
CONST	SEGMENT
__real@43960000 DD 043960000r			; 300
CONST	ENDS
;	COMDAT __real@437fe666
CONST	SEGMENT
__real@437fe666 DD 0437fe666r			; 255.9
CONST	ENDS
;	COMDAT __real@42ff0000
CONST	SEGMENT
__real@42ff0000 DD 042ff0000r			; 127.5
CONST	ENDS
;	COMDAT __real@42f00000
CONST	SEGMENT
__real@42f00000 DD 042f00000r			; 120
CONST	ENDS
;	COMDAT __real@42c80000
CONST	SEGMENT
__real@42c80000 DD 042c80000r			; 100
CONST	ENDS
;	COMDAT __real@42b40000
CONST	SEGMENT
__real@42b40000 DD 042b40000r			; 90
CONST	ENDS
;	COMDAT __real@42a00000
CONST	SEGMENT
__real@42a00000 DD 042a00000r			; 80
CONST	ENDS
;	COMDAT __real@42700000
CONST	SEGMENT
__real@42700000 DD 042700000r			; 60
CONST	ENDS
;	COMDAT __real@42480000
CONST	SEGMENT
__real@42480000 DD 042480000r			; 50
CONST	ENDS
;	COMDAT __real@42200000
CONST	SEGMENT
__real@42200000 DD 042200000r			; 40
CONST	ENDS
;	COMDAT __real@41f00000
CONST	SEGMENT
__real@41f00000 DD 041f00000r			; 30
CONST	ENDS
;	COMDAT __real@41a00000
CONST	SEGMENT
__real@41a00000 DD 041a00000r			; 20
CONST	ENDS
;	COMDAT __real@41800000
CONST	SEGMENT
__real@41800000 DD 041800000r			; 16
CONST	ENDS
;	COMDAT __real@41700000
CONST	SEGMENT
__real@41700000 DD 041700000r			; 15
CONST	ENDS
;	COMDAT __real@41400000
CONST	SEGMENT
__real@41400000 DD 041400000r			; 12
CONST	ENDS
;	COMDAT __real@41200000
CONST	SEGMENT
__real@41200000 DD 041200000r			; 10
CONST	ENDS
;	COMDAT __real@41000000
CONST	SEGMENT
__real@41000000 DD 041000000r			; 8
CONST	ENDS
;	COMDAT __real@40c90fdb
CONST	SEGMENT
__real@40c90fdb DD 040c90fdbr			; 6.28319
CONST	ENDS
;	COMDAT __real@40400000
CONST	SEGMENT
__real@40400000 DD 040400000r			; 3
CONST	ENDS
;	COMDAT __real@40000000
CONST	SEGMENT
__real@40000000 DD 040000000r			; 2
CONST	ENDS
;	COMDAT __real@3fe66666
CONST	SEGMENT
__real@3fe66666 DD 03fe66666r			; 1.8
CONST	ENDS
;	COMDAT __real@3fc00000
CONST	SEGMENT
__real@3fc00000 DD 03fc00000r			; 1.5
CONST	ENDS
;	COMDAT __real@3f99999a
CONST	SEGMENT
__real@3f99999a DD 03f99999ar			; 1.2
CONST	ENDS
;	COMDAT __real@3f860a91
CONST	SEGMENT
__real@3f860a91 DD 03f860a91r			; 1.0472
CONST	ENDS
;	COMDAT __real@3f800000
CONST	SEGMENT
__real@3f800000 DD 03f800000r			; 1
CONST	ENDS
;	COMDAT __real@3f666666
CONST	SEGMENT
__real@3f666666 DD 03f666666r			; 0.9
CONST	ENDS
;	COMDAT __real@3f4ccccd
CONST	SEGMENT
__real@3f4ccccd DD 03f4ccccdr			; 0.8
CONST	ENDS
;	COMDAT __real@3f333333
CONST	SEGMENT
__real@3f333333 DD 03f333333r			; 0.7
CONST	ENDS
;	COMDAT __real@3f266666
CONST	SEGMENT
__real@3f266666 DD 03f266666r			; 0.65
CONST	ENDS
;	COMDAT __real@3f1a36e2eb1c432d
CONST	SEGMENT
__real@3f1a36e2eb1c432d DQ 03f1a36e2eb1c432dr	; 0.0001
CONST	ENDS
;	COMDAT __real@3f19999a
CONST	SEGMENT
__real@3f19999a DD 03f19999ar			; 0.6
CONST	ENDS
;	COMDAT __real@3f0ccccd
CONST	SEGMENT
__real@3f0ccccd DD 03f0ccccdr			; 0.55
CONST	ENDS
;	COMDAT __real@3f000000
CONST	SEGMENT
__real@3f000000 DD 03f000000r			; 0.5
CONST	ENDS
;	COMDAT __real@3ee66666
CONST	SEGMENT
__real@3ee66666 DD 03ee66666r			; 0.45
CONST	ENDS
;	COMDAT __real@3ecccccd
CONST	SEGMENT
__real@3ecccccd DD 03ecccccdr			; 0.4
CONST	ENDS
;	COMDAT __real@3e99999a
CONST	SEGMENT
__real@3e99999a DD 03e99999ar			; 0.3
CONST	ENDS
;	COMDAT __real@3e800000
CONST	SEGMENT
__real@3e800000 DD 03e800000r			; 0.25
CONST	ENDS
;	COMDAT __real@3e7be76d
CONST	SEGMENT
__real@3e7be76d DD 03e7be76dr			; 0.246
CONST	ENDS
;	COMDAT __real@3e4ccccd
CONST	SEGMENT
__real@3e4ccccd DD 03e4ccccdr			; 0.2
CONST	ENDS
;	COMDAT __real@3e19999a
CONST	SEGMENT
__real@3e19999a DD 03e19999ar			; 0.15
CONST	ENDS
;	COMDAT __real@3dfbe76d
CONST	SEGMENT
__real@3dfbe76d DD 03dfbe76dr			; 0.123
CONST	ENDS
;	COMDAT __real@3dcccccd
CONST	SEGMENT
__real@3dcccccd DD 03dcccccdr			; 0.1
CONST	ENDS
;	COMDAT __real@3d4ccccd
CONST	SEGMENT
__real@3d4ccccd DD 03d4ccccdr			; 0.05
CONST	ENDS
;	COMDAT __real@3ca3d70a
CONST	SEGMENT
__real@3ca3d70a DD 03ca3d70ar			; 0.02
CONST	ENDS
;	COMDAT __real@3ac49ba6
CONST	SEGMENT
__real@3ac49ba6 DD 03ac49ba6r			; 0.0015
CONST	ENDS
;	COMDAT __real@3a83126f
CONST	SEGMENT
__real@3a83126f DD 03a83126fr			; 0.001
CONST	ENDS
;	COMDAT __real@3a6bedfa
CONST	SEGMENT
__real@3a6bedfa DD 03a6bedfar			; 0.0009
CONST	ENDS
;	COMDAT __real@3a378034
CONST	SEGMENT
__real@3a378034 DD 03a378034r			; 0.0007
CONST	ENDS
;	COMDAT __real@3a03126f
CONST	SEGMENT
__real@3a03126f DD 03a03126fr			; 0.0005
CONST	ENDS
;	COMDAT __real@39ebedfa
CONST	SEGMENT
__real@39ebedfa DD 039ebedfar			; 0.00045
CONST	ENDS
;	COMDAT __real@399d4952
CONST	SEGMENT
__real@399d4952 DD 0399d4952r			; 0.0003
CONST	ENDS
;	COMDAT __real@3951b717
CONST	SEGMENT
__real@3951b717 DD 03951b717r			; 0.0002
CONST	ENDS
;	COMDAT __real@38d1b717
CONST	SEGMENT
__real@38d1b717 DD 038d1b717r			; 0.0001
CONST	ENDS
;	COMDAT __real@3892ccf7
CONST	SEGMENT
__real@3892ccf7 DD 03892ccf7r			; 7e-005
CONST	ENDS
;	COMDAT __real@387ba882
CONST	SEGMENT
__real@387ba882 DD 0387ba882r			; 6e-005
CONST	ENDS
;	COMDAT __real@3851b717
CONST	SEGMENT
__real@3851b717 DD 03851b717r			; 5e-005
CONST	ENDS
;	COMDAT __real@3827c5ac
CONST	SEGMENT
__real@3827c5ac DD 03827c5acr			; 4e-005
CONST	ENDS
;	COMDAT __real@377ba882
CONST	SEGMENT
__real@377ba882 DD 0377ba882r			; 1.5e-005
CONST	ENDS
;	COMDAT __real@3727c5ac
CONST	SEGMENT
__real@3727c5ac DD 03727c5acr			; 1e-005
CONST	ENDS
;	COMDAT __real@00000000
CONST	SEGMENT
__real@00000000 DD 000000000r			; 0
CONST	ENDS
;	COMDAT ??_R1A@?0A@EA@Drawable2D@@8
rdata$r	SEGMENT
??_R1A@?0A@EA@Drawable2D@@8 DD FLAT:??_R0?AVDrawable2D@@@8 ; Drawable2D::`RTTI Base Class Descriptor at (0,-1,0,64)'
	DD	01H
	DD	00H
	DD	0ffffffffH
	DD	00H
	DD	040H
	DD	FLAT:??_R3Drawable2D@@8
rdata$r	ENDS
;	COMDAT ??_R2Drawable2D@@8
rdata$r	SEGMENT
??_R2Drawable2D@@8 DD FLAT:??_R1A@?0A@EA@Drawable2D@@8	; Drawable2D::`RTTI Base Class Array'
	DD	FLAT:??_R1A@?0A@EA@DrawableObject@@8
rdata$r	ENDS
;	COMDAT ??_R3Drawable2D@@8
rdata$r	SEGMENT
??_R3Drawable2D@@8 DD 00H				; Drawable2D::`RTTI Class Hierarchy Descriptor'
	DD	00H
	DD	02H
	DD	FLAT:??_R2Drawable2D@@8
rdata$r	ENDS
;	COMDAT ??_R0?AVDrawable2D@@@8
_DATA	SEGMENT
??_R0?AVDrawable2D@@@8 DD FLAT:??_7type_info@@6B@	; Drawable2D `RTTI Type Descriptor'
	DD	00H
	DB	'.?AVDrawable2D@@', 00H
_DATA	ENDS
;	COMDAT ??_R4Drawable2D@@6B@
rdata$r	SEGMENT
??_R4Drawable2D@@6B@ DD 00H				; Drawable2D::`RTTI Complete Object Locator'
	DD	00H
	DD	00H
	DD	FLAT:??_R0?AVDrawable2D@@@8
	DD	FLAT:??_R3Drawable2D@@8
rdata$r	ENDS
;	COMDAT ??_R1A@?0A@EA@DrawableObject@@8
rdata$r	SEGMENT
??_R1A@?0A@EA@DrawableObject@@8 DD FLAT:??_R0?AVDrawableObject@@@8 ; DrawableObject::`RTTI Base Class Descriptor at (0,-1,0,64)'
	DD	00H
	DD	00H
	DD	0ffffffffH
	DD	00H
	DD	040H
	DD	FLAT:??_R3DrawableObject@@8
rdata$r	ENDS
;	COMDAT ??_R2DrawableObject@@8
rdata$r	SEGMENT
??_R2DrawableObject@@8 DD FLAT:??_R1A@?0A@EA@DrawableObject@@8 ; DrawableObject::`RTTI Base Class Array'
rdata$r	ENDS
;	COMDAT ??_R3DrawableObject@@8
rdata$r	SEGMENT
??_R3DrawableObject@@8 DD 00H				; DrawableObject::`RTTI Class Hierarchy Descriptor'
	DD	00H
	DD	01H
	DD	FLAT:??_R2DrawableObject@@8
rdata$r	ENDS
;	COMDAT ??_R0?AVDrawableObject@@@8
_DATA	SEGMENT
??_R0?AVDrawableObject@@@8 DD FLAT:??_7type_info@@6B@	; DrawableObject `RTTI Type Descriptor'
	DD	00H
	DB	'.?AVDrawableObject@@', 00H
_DATA	ENDS
;	COMDAT ??_R4DrawableObject@@6B@
rdata$r	SEGMENT
??_R4DrawableObject@@6B@ DD 00H				; DrawableObject::`RTTI Complete Object Locator'
	DD	00H
	DD	00H
	DD	FLAT:??_R0?AVDrawableObject@@@8
	DD	FLAT:??_R3DrawableObject@@8
rdata$r	ENDS
;	COMDAT ??_R1A@?0A@EA@_System_error_category@std@@8
rdata$r	SEGMENT
??_R1A@?0A@EA@_System_error_category@std@@8 DD FLAT:??_R0?AV_System_error_category@std@@@8 ; std::_System_error_category::`RTTI Base Class Descriptor at (0,-1,0,64)'
	DD	02H
	DD	00H
	DD	0ffffffffH
	DD	00H
	DD	040H
	DD	FLAT:??_R3_System_error_category@std@@8
rdata$r	ENDS
;	COMDAT ??_R2_System_error_category@std@@8
rdata$r	SEGMENT
??_R2_System_error_category@std@@8 DD FLAT:??_R1A@?0A@EA@_System_error_category@std@@8 ; std::_System_error_category::`RTTI Base Class Array'
	DD	FLAT:??_R1A@?0A@EA@_Generic_error_category@std@@8
	DD	FLAT:??_R1A@?0A@EA@error_category@std@@8
rdata$r	ENDS
;	COMDAT ??_R3_System_error_category@std@@8
rdata$r	SEGMENT
??_R3_System_error_category@std@@8 DD 00H		; std::_System_error_category::`RTTI Class Hierarchy Descriptor'
	DD	00H
	DD	03H
	DD	FLAT:??_R2_System_error_category@std@@8
rdata$r	ENDS
;	COMDAT ??_R0?AV_System_error_category@std@@@8
_DATA	SEGMENT
??_R0?AV_System_error_category@std@@@8 DD FLAT:??_7type_info@@6B@ ; std::_System_error_category `RTTI Type Descriptor'
	DD	00H
	DB	'.?AV_System_error_category@std@@', 00H
_DATA	ENDS
;	COMDAT ??_R4_System_error_category@std@@6B@
rdata$r	SEGMENT
??_R4_System_error_category@std@@6B@ DD 00H		; std::_System_error_category::`RTTI Complete Object Locator'
	DD	00H
	DD	00H
	DD	FLAT:??_R0?AV_System_error_category@std@@@8
	DD	FLAT:??_R3_System_error_category@std@@8
rdata$r	ENDS
;	COMDAT ??_R1A@?0A@EA@_Iostream_error_category@std@@8
rdata$r	SEGMENT
??_R1A@?0A@EA@_Iostream_error_category@std@@8 DD FLAT:??_R0?AV_Iostream_error_category@std@@@8 ; std::_Iostream_error_category::`RTTI Base Class Descriptor at (0,-1,0,64)'
	DD	02H
	DD	00H
	DD	0ffffffffH
	DD	00H
	DD	040H
	DD	FLAT:??_R3_Iostream_error_category@std@@8
rdata$r	ENDS
;	COMDAT ??_R2_Iostream_error_category@std@@8
rdata$r	SEGMENT
??_R2_Iostream_error_category@std@@8 DD FLAT:??_R1A@?0A@EA@_Iostream_error_category@std@@8 ; std::_Iostream_error_category::`RTTI Base Class Array'
	DD	FLAT:??_R1A@?0A@EA@_Generic_error_category@std@@8
	DD	FLAT:??_R1A@?0A@EA@error_category@std@@8
rdata$r	ENDS
;	COMDAT ??_R3_Iostream_error_category@std@@8
rdata$r	SEGMENT
??_R3_Iostream_error_category@std@@8 DD 00H		; std::_Iostream_error_category::`RTTI Class Hierarchy Descriptor'
	DD	00H
	DD	03H
	DD	FLAT:??_R2_Iostream_error_category@std@@8
rdata$r	ENDS
;	COMDAT ??_R0?AV_Iostream_error_category@std@@@8
_DATA	SEGMENT
??_R0?AV_Iostream_error_category@std@@@8 DD FLAT:??_7type_info@@6B@ ; std::_Iostream_error_category `RTTI Type Descriptor'
	DD	00H
	DB	'.?AV_Iostream_error_category@std@@', 00H
_DATA	ENDS
;	COMDAT ??_R4_Iostream_error_category@std@@6B@
rdata$r	SEGMENT
??_R4_Iostream_error_category@std@@6B@ DD 00H		; std::_Iostream_error_category::`RTTI Complete Object Locator'
	DD	00H
	DD	00H
	DD	FLAT:??_R0?AV_Iostream_error_category@std@@@8
	DD	FLAT:??_R3_Iostream_error_category@std@@8
rdata$r	ENDS
;	COMDAT ??_R1A@?0A@EA@_Generic_error_category@std@@8
rdata$r	SEGMENT
??_R1A@?0A@EA@_Generic_error_category@std@@8 DD FLAT:??_R0?AV_Generic_error_category@std@@@8 ; std::_Generic_error_category::`RTTI Base Class Descriptor at (0,-1,0,64)'
	DD	01H
	DD	00H
	DD	0ffffffffH
	DD	00H
	DD	040H
	DD	FLAT:??_R3_Generic_error_category@std@@8
rdata$r	ENDS
;	COMDAT ??_R2_Generic_error_category@std@@8
rdata$r	SEGMENT
??_R2_Generic_error_category@std@@8 DD FLAT:??_R1A@?0A@EA@_Generic_error_category@std@@8 ; std::_Generic_error_category::`RTTI Base Class Array'
	DD	FLAT:??_R1A@?0A@EA@error_category@std@@8
rdata$r	ENDS
;	COMDAT ??_R3_Generic_error_category@std@@8
rdata$r	SEGMENT
??_R3_Generic_error_category@std@@8 DD 00H		; std::_Generic_error_category::`RTTI Class Hierarchy Descriptor'
	DD	00H
	DD	02H
	DD	FLAT:??_R2_Generic_error_category@std@@8
rdata$r	ENDS
;	COMDAT ??_R0?AV_Generic_error_category@std@@@8
_DATA	SEGMENT
??_R0?AV_Generic_error_category@std@@@8 DD FLAT:??_7type_info@@6B@ ; std::_Generic_error_category `RTTI Type Descriptor'
	DD	00H
	DB	'.?AV_Generic_error_category@std@@', 00H
_DATA	ENDS
;	COMDAT ??_R4_Generic_error_category@std@@6B@
rdata$r	SEGMENT
??_R4_Generic_error_category@std@@6B@ DD 00H		; std::_Generic_error_category::`RTTI Complete Object Locator'
	DD	00H
	DD	00H
	DD	FLAT:??_R0?AV_Generic_error_category@std@@@8
	DD	FLAT:??_R3_Generic_error_category@std@@8
rdata$r	ENDS
;	COMDAT ??_R1A@?0A@EA@error_category@std@@8
rdata$r	SEGMENT
??_R1A@?0A@EA@error_category@std@@8 DD FLAT:??_R0?AVerror_category@std@@@8 ; std::error_category::`RTTI Base Class Descriptor at (0,-1,0,64)'
	DD	00H
	DD	00H
	DD	0ffffffffH
	DD	00H
	DD	040H
	DD	FLAT:??_R3error_category@std@@8
rdata$r	ENDS
;	COMDAT ??_R2error_category@std@@8
rdata$r	SEGMENT
??_R2error_category@std@@8 DD FLAT:??_R1A@?0A@EA@error_category@std@@8 ; std::error_category::`RTTI Base Class Array'
rdata$r	ENDS
;	COMDAT ??_R3error_category@std@@8
rdata$r	SEGMENT
??_R3error_category@std@@8 DD 00H			; std::error_category::`RTTI Class Hierarchy Descriptor'
	DD	00H
	DD	01H
	DD	FLAT:??_R2error_category@std@@8
rdata$r	ENDS
;	COMDAT ??_R0?AVerror_category@std@@@8
_DATA	SEGMENT
??_R0?AVerror_category@std@@@8 DD FLAT:??_7type_info@@6B@ ; std::error_category `RTTI Type Descriptor'
	DD	00H
	DB	'.?AVerror_category@std@@', 00H
_DATA	ENDS
;	COMDAT ??_R4error_category@std@@6B@
rdata$r	SEGMENT
??_R4error_category@std@@6B@ DD 00H			; std::error_category::`RTTI Complete Object Locator'
	DD	00H
	DD	00H
	DD	FLAT:??_R0?AVerror_category@std@@@8
	DD	FLAT:??_R3error_category@std@@8
rdata$r	ENDS
;	COMDAT ??_C@_0BA@JFNIOLAK@string?5too?5long?$AA@
CONST	SEGMENT
??_C@_0BA@JFNIOLAK@string?5too?5long?$AA@ DB 'string too long', 00H ; `string'
CONST	ENDS
;	COMDAT ??_C@_0BI@CFPLBAOH@invalid?5string?5position?$AA@
CONST	SEGMENT
??_C@_0BI@CFPLBAOH@invalid?5string?5position?$AA@ DB 'invalid string posi'
	DB	'tion', 00H					; `string'
CONST	ENDS
;	COMDAT ??_C@_0N@HGIAOOL@sfxg?$CF02d?4GIF?$AA@
CONST	SEGMENT
??_C@_0N@HGIAOOL@sfxg?$CF02d?4GIF?$AA@ DB 'sfxg%02d.GIF', 00H ; `string'
CONST	ENDS
;	COMDAT ??_C@_0L@HIALBIMO@sfxg01?4GIF?$AA@
CONST	SEGMENT
??_C@_0L@HIALBIMO@sfxg01?4GIF?$AA@ DB 'sfxg01.GIF', 00H	; `string'
CONST	ENDS
;	COMDAT ??_C@_0M@GBKBOKB@sfx?$CF02d?4APL?$AA@
CONST	SEGMENT
??_C@_0M@GBKBOKB@sfx?$CF02d?4APL?$AA@ DB 'sfx%02d.APL', 00H ; `string'
CONST	ENDS
;	COMDAT ??_C@_09FLKLCKMH@sfx01?4APL?$AA@
CONST	SEGMENT
??_C@_09FLKLCKMH@sfx01?4APL?$AA@ DB 'sfx01.APL', 00H	; `string'
CONST	ENDS
;	COMDAT ??_C@_0O@NBIDGJOC@bom00?$CF02d?4gif?$AA@
CONST	SEGMENT
??_C@_0O@NBIDGJOC@bom00?$CF02d?4gif?$AA@ DB 'bom00%02d.gif', 00H ; `string'
CONST	ENDS
_DATA	SEGMENT
?gTypeTable@@3PAU_TYPES2D@@A DD 0200021H		; gTypeTable
	DD	03f800000r			; 1
	DD	000000000r			; 0
	DD	01H
	DD	00H
	DD	010H
	DD	041a00000r			; 20
	DD	00H
	DD	00H
	DD	0461c4000r			; 10000
	DD	0201001H
	DD	03f800000r			; 1
	DD	000000000r			; 0
	DD	00H
	DD	00H
	DD	0cH
	DD	000000000r			; 0
	DD	00H
	DD	00H
	DD	0461c4000r			; 10000
	DD	0800024H
	DD	03f666666r			; 0.9
	DD	03851b717r			; 5e-005
	DD	0aH
	DD	0cH
	DD	01H
	DD	041f00000r			; 30
	DD	00H
	DD	00H
	DD	043960000r			; 300
	DD	04H
	DD	03f800000r			; 1
	DD	000000000r			; 0
	DD	04H
	DD	0eH
	DD	01H
	DD	000000000r			; 0
	DD	00H
	DD	00H
	DD	0461c4000r			; 10000
	DD	051001H
	DD	03f4ccccdr			; 0.8
	DD	000000000r			; 0
	DD	01H
	DD	00H
	DD	010H
	DD	000000000r			; 0
	DD	00H
	DD	01H
	DD	0461c4000r			; 10000
	DD	022H
	DD	03f800000r			; 1
	DD	03a51b717r			; 0.0008
	DD	03H
	DD	0fH
	DD	01H
	DD	043f00000r			; 480
	DD	00H
	DD	00H
	DD	0461c4000r			; 10000
	DD	0201001H
	DD	03f800000r			; 1
	DD	000000000r			; 0
	DD	06H
	DD	00H
	DD	010H
	DD	000000000r			; 0
	DD	00H
	DD	00H
	DD	0461c4000r			; 10000
	DD	051001H
	DD	03f4ccccdr			; 0.8
	DD	000000000r			; 0
	DD	06H
	DD	00H
	DD	010H
	DD	000000000r			; 0
	DD	00H
	DD	01H
	DD	0461c4000r			; 10000
	DD	0201001H
	DD	03f800000r			; 1
	DD	000000000r			; 0
	DD	04H
	DD	00H
	DD	0eH
	DD	000000000r			; 0
	DD	00H
	DD	00H
	DD	0461c4000r			; 10000
	DD	051001H
	DD	03f4ccccdr			; 0.8
	DD	000000000r			; 0
	DD	04H
	DD	00H
	DD	0eH
	DD	000000000r			; 0
	DD	00H
	DD	01H
	DD	0461c4000r			; 10000
	DD	0102H
	DD	03f800000r			; 1
	DD	000000000r			; 0
	DD	03H
	DD	0dH
	DD	01H
	DD	000000000r			; 0
	DD	00H
	DD	00H
	DD	0461c4000r			; 10000
	DD	0800024H
	DD	03f4ccccdr			; 0.8
	DD	03851b717r			; 5e-005
	DD	08H
	DD	0dH
	DD	01H
	DD	041a00000r			; 20
	DD	00H
	DD	01H
	DD	043960000r			; 300
	DD	024H
	DD	03f4ccccdr			; 0.8
	DD	038d1b717r			; 0.0001
	DD	06H
	DD	08H
	DD	08H
	DD	041a00000r			; 20
	DD	00H
	DD	00H
	DD	043960000r			; 300
	DD	0800024H
	DD	03f800000r			; 1
	DD	03951b717r			; 0.0002
	DD	0aH
	DD	0cH
	DD	01H
	DD	041a00000r			; 20
	DD	00H
	DD	01H
	DD	043c80000r			; 400
	DD	01004a0H
	DD	03f800000r			; 1
	DD	03a1d4952r			; 0.0006
	DD	00H
	DD	00H
	DD	00H
	DD	000000000r			; 0
	DD	FLAT:?glowSquareVerts@@3PAUTpoint@@A
	ORG $+1968
_DATA	ENDS
;	COMDAT ??_7Drawable2D@@6B@
CONST	SEGMENT
??_7Drawable2D@@6B@ DD FLAT:??_R4Drawable2D@@6B@	; Drawable2D::`vftable'
	DD	FLAT:??_EDrawable2D@@UAEPAXI@Z
	DD	FLAT:?GetRadarSign@DrawableObject@@UAEMXZ
	DD	FLAT:?SetLabel@DrawableObject@@UAEXPADK@Z
	DD	FLAT:?SetInhibitFlag@DrawableObject@@UAEXH@Z
	DD	FLAT:?Draw@DrawableObject@@UAEXPAVRender3D@@@Z
	DD	FLAT:?Draw@Drawable2D@@UAEXPAVRenderOTW@@H@Z
	DD	FLAT:?GetRayHit@DrawableObject@@UAEHPBUTpoint@@0PAU2@M@Z
	DD	FLAT:?SetParentList@DrawableObject@@MAEXPAVObjectDisplayList@@@Z
	DD	FLAT:?Update@Drawable2D@@UAEXPBUTpoint@@PBUTrotation@@@Z
CONST	ENDS
;	COMDAT ??_7DrawableObject@@6B@
CONST	SEGMENT
??_7DrawableObject@@6B@ DD FLAT:??_R4DrawableObject@@6B@ ; DrawableObject::`vftable'
	DD	FLAT:??_EDrawableObject@@UAEPAXI@Z
	DD	FLAT:?GetRadarSign@DrawableObject@@UAEMXZ
	DD	FLAT:?SetLabel@DrawableObject@@UAEXPADK@Z
	DD	FLAT:?SetInhibitFlag@DrawableObject@@UAEXH@Z
	DD	FLAT:?Draw@DrawableObject@@UAEXPAVRender3D@@@Z
	DD	FLAT:__purecall
	DD	FLAT:?GetRayHit@DrawableObject@@UAEHPBUTpoint@@0PAU2@M@Z
	DD	FLAT:?SetParentList@DrawableObject@@MAEXPAVObjectDisplayList@@@Z
CONST	ENDS
;	COMDAT ??_C@_06FHFOAHML@system?$AA@
CONST	SEGMENT
??_C@_06FHFOAHML@system?$AA@ DB 'system', 00H		; `string'
CONST	ENDS
;	COMDAT ??_7_System_error_category@std@@6B@
CONST	SEGMENT
??_7_System_error_category@std@@6B@ DD FLAT:??_R4_System_error_category@std@@6B@ ; std::_System_error_category::`vftable'
	DD	FLAT:??_E_System_error_category@std@@UAEPAXI@Z
	DD	FLAT:?name@_System_error_category@std@@UBEPBDXZ
	DD	FLAT:?message@_System_error_category@std@@UBE?AV?$basic_string@DU?$char_traits@D@std@@V?$allocator@D@2@@2@H@Z
	DD	FLAT:?default_error_condition@_System_error_category@std@@UBE?AVerror_condition@2@H@Z
	DD	FLAT:?equivalent@error_category@std@@UBE_NABVerror_code@2@H@Z
	DD	FLAT:?equivalent@error_category@std@@UBE_NHABVerror_condition@2@@Z
CONST	ENDS
;	COMDAT ??_C@_0BG@PADBLCHM@iostream?5stream?5error?$AA@
CONST	SEGMENT
??_C@_0BG@PADBLCHM@iostream?5stream?5error?$AA@ DB 'iostream stream error'
	DB	00H						; `string'
CONST	ENDS
;	COMDAT ??_C@_08LLGCOLLL@iostream?$AA@
CONST	SEGMENT
??_C@_08LLGCOLLL@iostream?$AA@ DB 'iostream', 00H	; `string'
CONST	ENDS
;	COMDAT ??_7_Iostream_error_category@std@@6B@
CONST	SEGMENT
??_7_Iostream_error_category@std@@6B@ DD FLAT:??_R4_Iostream_error_category@std@@6B@ ; std::_Iostream_error_category::`vftable'
	DD	FLAT:??_E_Iostream_error_category@std@@UAEPAXI@Z
	DD	FLAT:?name@_Iostream_error_category@std@@UBEPBDXZ
	DD	FLAT:?message@_Iostream_error_category@std@@UBE?AV?$basic_string@DU?$char_traits@D@std@@V?$allocator@D@2@@2@H@Z
	DD	FLAT:?default_error_condition@error_category@std@@UBE?AVerror_condition@2@H@Z
	DD	FLAT:?equivalent@error_category@std@@UBE_NABVerror_code@2@H@Z
	DD	FLAT:?equivalent@error_category@std@@UBE_NHABVerror_condition@2@@Z
CONST	ENDS
;	COMDAT ??_C@_0O@BFJCFAAK@unknown?5error?$AA@
CONST	SEGMENT
??_C@_0O@BFJCFAAK@unknown?5error?$AA@ DB 'unknown error', 00H ; `string'
CONST	ENDS
;	COMDAT ??_C@_07DCLBNMLN@generic?$AA@
CONST	SEGMENT
??_C@_07DCLBNMLN@generic?$AA@ DB 'generic', 00H		; `string'
CONST	ENDS
;	COMDAT ??_7_Generic_error_category@std@@6B@
CONST	SEGMENT
??_7_Generic_error_category@std@@6B@ DD FLAT:??_R4_Generic_error_category@std@@6B@ ; std::_Generic_error_category::`vftable'
	DD	FLAT:??_E_Generic_error_category@std@@UAEPAXI@Z
	DD	FLAT:?name@_Generic_error_category@std@@UBEPBDXZ
	DD	FLAT:?message@_Generic_error_category@std@@UBE?AV?$basic_string@DU?$char_traits@D@std@@V?$allocator@D@2@@2@H@Z
	DD	FLAT:?default_error_condition@error_category@std@@UBE?AVerror_condition@2@H@Z
	DD	FLAT:?equivalent@error_category@std@@UBE_NABVerror_code@2@H@Z
	DD	FLAT:?equivalent@error_category@std@@UBE_NHABVerror_condition@2@@Z
CONST	ENDS
;	COMDAT ??_7error_category@std@@6B@
CONST	SEGMENT
??_7error_category@std@@6B@ DD FLAT:??_R4error_category@std@@6B@ ; std::error_category::`vftable'
	DD	FLAT:??_Eerror_category@std@@UAEPAXI@Z
	DD	FLAT:__purecall
	DD	FLAT:__purecall
	DD	FLAT:?default_error_condition@error_category@std@@UBE?AVerror_condition@2@H@Z
	DD	FLAT:?equivalent@error_category@std@@UBE_NABVerror_code@2@H@Z
	DD	FLAT:?equivalent@error_category@std@@UBE_NHABVerror_condition@2@@Z
CONST	ENDS
;	COMDAT xdata$x
xdata$x	SEGMENT
__unwindtable$??$construct@PADAAPAD@?$allocator@D@std@@QAEXPAPADAAPAD@Z DD 0ffffffffH
	DD	FLAT:__unwindfunclet$??$construct@PADAAPAD@?$allocator@D@std@@QAEXPAPADAAPAD@Z$0
__ehfuncinfo$??$construct@PADAAPAD@?$allocator@D@std@@QAEXPAPADAAPAD@Z DD 019930522H
	DD	01H
	DD	FLAT:__unwindtable$??$construct@PADAAPAD@?$allocator@D@std@@QAEXPAPADAAPAD@Z
	DD	2 DUP(00H)
	DD	2 DUP(00H)
	DD	00H
	DD	01H
xdata$x	ENDS
;	COMDAT xdata$x
xdata$x	SEGMENT
__catchsym$?_Copy@?$basic_string@DU?$char_traits@D@std@@V?$allocator@D@2@@std@@QAEXII@Z$5 DD 040H
	DD	00H
	DD	00H
	DD	FLAT:__catch$?_Copy@?$basic_string@DU?$char_traits@D@std@@V?$allocator@D@2@@std@@QAEXII@Z$0
__catchsym$?_Copy@?$basic_string@DU?$char_traits@D@std@@V?$allocator@D@2@@std@@QAEXII@Z$4 DD 040H
	DD	00H
	DD	00H
	DD	FLAT:__catch$?_Copy@?$basic_string@DU?$char_traits@D@std@@V?$allocator@D@2@@std@@QAEXII@Z$1
__unwindtable$?_Copy@?$basic_string@DU?$char_traits@D@std@@V?$allocator@D@2@@std@@QAEXII@Z DD 0ffffffffH
	DD	00H
	DD	0ffffffffH
	DD	00H
	DD	01H
	DD	00H
	DD	01H
	DD	00H
__ehfuncinfo$?_Copy@?$basic_string@DU?$char_traits@D@std@@V?$allocator@D@2@@std@@QAEXII@Z DD 019930522H
	DD	04H
	DD	FLAT:__unwindtable$?_Copy@?$basic_string@DU?$char_traits@D@std@@V?$allocator@D@2@@std@@QAEXII@Z
	DD	02H
	DD	FLAT:__tryblocktable$?_Copy@?$basic_string@DU?$char_traits@D@std@@V?$allocator@D@2@@std@@QAEXII@Z
	DD	2 DUP(00H)
	DD	00H
	DD	01H
__tryblocktable$?_Copy@?$basic_string@DU?$char_traits@D@std@@V?$allocator@D@2@@std@@QAEXII@Z DD 02H
	DD	02H
	DD	03H
	DD	01H
	DD	FLAT:__catchsym$?_Copy@?$basic_string@DU?$char_traits@D@std@@V?$allocator@D@2@@std@@QAEXII@Z$4
	DD	00H
	DD	00H
	DD	03H
	DD	01H
	DD	FLAT:__catchsym$?_Copy@?$basic_string@DU?$char_traits@D@std@@V?$allocator@D@2@@std@@QAEXII@Z$5
xdata$x	ENDS
CRT$XCU	SEGMENT
_allocator_arg$initializer$ DD FLAT:??__Eallocator_arg@std@@YAXXZ
CRT$XCU	ENDS
CRT$XCU	SEGMENT
_gGlobTextures$initializer$ DD FLAT:??__EgGlobTextures@@YAXXZ
CRT$XCU	ENDS
CRT$XCU	SEGMENT
_gAplTextures$initializer$ DD FLAT:??__EgAplTextures@@YAXXZ
CRT$XCU	ENDS
CRT$XCU	SEGMENT
_gAplTexturesGreen$initializer$ DD FLAT:??__EgAplTexturesGreen@@YAXXZ
CRT$XCU	ENDS
CRT$XCU	SEGMENT
_gTypeTable$initializer$ DD FLAT:??__EgTypeTable@@YAXXZ
CRT$XCU	ENDS
;	COMDAT CRT$XCU
CRT$XCU	SEGMENT
?_Generic_object$initializer$@?$_Error_objects@H@std@@2P6AXXZA DD FLAT:??__E?_Generic_object@?$_Error_objects@H@std@@2V_Generic_error_category@2@A@@YAXXZ ; std::_Error_objects<int>::_Generic_object$initializer$
CRT$XCU	ENDS
;	COMDAT CRT$XCU
CRT$XCU	SEGMENT
?_Iostream_object$initializer$@?$_Error_objects@H@std@@2P6AXXZA DD FLAT:??__E?_Iostream_object@?$_Error_objects@H@std@@2V_Iostream_error_category@2@A@@YAXXZ ; std::_Error_objects<int>::_Iostream_object$initializer$
CRT$XCU	ENDS
;	COMDAT CRT$XCU
CRT$XCU	SEGMENT
?_System_object$initializer$@?$_Error_objects@H@std@@2P6AXXZA DD FLAT:??__E?_System_object@?$_Error_objects@H@std@@2V_System_error_category@2@A@@YAXXZ ; std::_Error_objects<int>::_System_object$initializer$
CRT$XCU	ENDS
;	COMDAT CRT$XCU
CRT$XCU	SEGMENT
?id$initializer$@?$num_put@DV?$back_insert_iterator@V?$basic_string@DU?$char_traits@D@std@@V?$allocator@D@2@@std@@@std@@@std@@2P6AXXZA DD FLAT:??__E?id@?$num_put@DV?$back_insert_iterator@V?$basic_string@DU?$char_traits@D@std@@V?$allocator@D@2@@std@@@std@@@std@@2V0locale@2@A@@YAXXZ ; std::num_put<char,std::back_insert_iterator<std::basic_string<char,std::char_traits<char>,std::allocator<char> > > >::id$initializer$
CRT$XCU	ENDS
;	COMDAT CRT$XCU
CRT$XCU	SEGMENT
?id$initializer$@?$num_put@_WV?$back_insert_iterator@V?$basic_string@_WU?$char_traits@_W@std@@V?$allocator@_W@2@@std@@@std@@@std@@2P6AXXZA DD FLAT:??__E?id@?$num_put@_WV?$back_insert_iterator@V?$basic_string@_WU?$char_traits@_W@std@@V?$allocator@_W@2@@std@@@std@@@std@@2V0locale@2@A@@YAXXZ ; std::num_put<wchar_t,std::back_insert_iterator<std::basic_string<wchar_t,std::char_traits<wchar_t>,std::allocator<wchar_t> > > >::id$initializer$
CRT$XCU	ENDS
;	COMDAT CRT$XCU
CRT$XCU	SEGMENT
?id$initializer$@?$numpunct@D@std@@2P6AXXZA DD FLAT:??__E?id@?$numpunct@D@std@@2V0locale@2@A@@YAXXZ ; std::numpunct<char>::id$initializer$
CRT$XCU	ENDS
;	COMDAT CRT$XCU
CRT$XCU	SEGMENT
?id$initializer$@?$numpunct@_W@std@@2P6AXXZA DD FLAT:??__E?id@?$numpunct@_W@std@@2V0locale@2@A@@YAXXZ ; std::numpunct<wchar_t>::id$initializer$
CRT$XCU	ENDS
; Function compile flags: /Odtp
; File c:\program files (x86)\microsoft visual studio 11.0\vc\include\xmemory0
;	COMDAT ??$destroy@PAD@?$allocator@D@std@@QAEXPAPAD@Z
_TEXT	SEGMENT
_this$ = -4						; size = 4
__Ptr$ = 8						; size = 4
??$destroy@PAD@?$allocator@D@std@@QAEXPAPAD@Z PROC	; std::allocator<char>::destroy<char *>, COMDAT
; _this$ = ecx

; 621  : 		void destroy(_Uty *_Ptr)

	push	ebp
	mov	ebp, esp
	push	ecx
	mov	DWORD PTR _this$[ebp], ecx

; 622  : 		{	// destroy object at _Ptr
; 623  : 		_Ptr->~_Uty();
; 624  : 		}

	mov	esp, ebp
	pop	ebp
	ret	4
??$destroy@PAD@?$allocator@D@std@@QAEXPAPAD@Z ENDP	; std::allocator<char>::destroy<char *>
_TEXT	ENDS
; Function compile flags: /Odtp
; File c:\program files (x86)\microsoft visual studio 11.0\vc\include\xmemory0
;	COMDAT ??$construct@PADAAPAD@?$allocator@D@std@@QAEXPAPADAAPAD@Z
_TEXT	SEGMENT
$T2 = -28						; size = 4
_this$ = -24						; size = 4
tv73 = -20						; size = 4
$T3 = -16						; size = 4
__$EHRec$ = -12						; size = 12
__Ptr$ = 8						; size = 4
__V0$ = 12						; size = 4
??$construct@PADAAPAD@?$allocator@D@std@@QAEXPAPADAAPAD@Z PROC ; std::allocator<char>::construct<char *,char * &>, COMDAT
; _this$ = ecx

; 617  : _VARIADIC_EXPAND_0X(_ALLOC_MEMBER_CONSTRUCT, , , , )

	push	ebp
	mov	ebp, esp
	push	-1
	push	__ehhandler$??$construct@PADAAPAD@?$allocator@D@std@@QAEXPAPADAAPAD@Z
	mov	eax, DWORD PTR fs:0
	push	eax
	sub	esp, 16					; 00000010H
	mov	eax, DWORD PTR ___security_cookie
	xor	eax, ebp
	push	eax
	lea	eax, DWORD PTR __$EHRec$[ebp]
	mov	DWORD PTR fs:0, eax
	mov	DWORD PTR _this$[ebp], ecx
	mov	eax, DWORD PTR __Ptr$[ebp]
	push	eax
	push	4
	call	??2@YAPAXIPAX@Z				; operator new
	add	esp, 8
	mov	DWORD PTR $T3[ebp], eax
	mov	DWORD PTR __$EHRec$[ebp+8], 0
	cmp	DWORD PTR $T3[ebp], 0
	je	SHORT $LN3@construct
	mov	ecx, DWORD PTR __V0$[ebp]
	push	ecx
	call	??$forward@AAPAD@std@@YAAAPADAAPAD@Z	; std::forward<char * &>
	add	esp, 4
	mov	edx, DWORD PTR $T3[ebp]
	mov	eax, DWORD PTR [eax]
	mov	DWORD PTR [edx], eax
	mov	ecx, DWORD PTR $T3[ebp]
	mov	DWORD PTR tv73[ebp], ecx
	jmp	SHORT $LN4@construct
$LN3@construct:
	mov	DWORD PTR tv73[ebp], 0
$LN4@construct:
	mov	edx, DWORD PTR tv73[ebp]
	mov	DWORD PTR $T2[ebp], edx
	mov	DWORD PTR __$EHRec$[ebp+8], -1
	mov	ecx, DWORD PTR __$EHRec$[ebp]
	mov	DWORD PTR fs:0, ecx
	pop	ecx
	mov	esp, ebp
	pop	ebp
	ret	8
_TEXT	ENDS
;	COMDAT text$x
text$x	SEGMENT
__unwindfunclet$??$construct@PADAAPAD@?$allocator@D@std@@QAEXPAPADAAPAD@Z$0:
	mov	eax, DWORD PTR __Ptr$[ebp]
	push	eax
	mov	eax, DWORD PTR $T3[ebp]
	push	eax
	call	??3@YAXPAX0@Z				; operator delete
	add	esp, 8
	ret	0
__ehhandler$??$construct@PADAAPAD@?$allocator@D@std@@QAEXPAPADAAPAD@Z:
	mov	edx, DWORD PTR [esp+8]
	lea	eax, DWORD PTR [edx+12]
	mov	ecx, DWORD PTR [edx-20]
	xor	ecx, eax
	call	@__security_check_cookie@4
	mov	eax, OFFSET __ehfuncinfo$??$construct@PADAAPAD@?$allocator@D@std@@QAEXPAPADAAPAD@Z
	jmp	___CxxFrameHandler3
text$x	ENDS
??$construct@PADAAPAD@?$allocator@D@std@@QAEXPAPADAAPAD@Z ENDP ; std::allocator<char>::construct<char *,char * &>
; Function compile flags: /Odtp
; File c:\program files (x86)\microsoft visual studio 11.0\vc\include\xlocnum
;	COMDAT ??__E?id@?$numpunct@_W@std@@2V0locale@2@A@@YAXXZ
text$yc	SEGMENT
??__E?id@?$numpunct@_W@std@@2V0locale@2@A@@YAXXZ PROC	; `dynamic initializer for 'std::numpunct<wchar_t>::id'', COMDAT

; 155  : 		void _Getvals(wchar_t, const lconv *_Ptr, _Locinfo::_Cvtvec)

	push	ebp
	mov	ebp, esp
	push	0
	mov	ecx, OFFSET ?id@?$numpunct@_W@std@@2V0locale@2@A ; std::numpunct<wchar_t>::id
	call	??0id@locale@std@@QAE@I@Z		; std::locale::id::id
	pop	ebp
	ret	0
??__E?id@?$numpunct@_W@std@@2V0locale@2@A@@YAXXZ ENDP	; `dynamic initializer for 'std::numpunct<wchar_t>::id''
text$yc	ENDS
; Function compile flags: /Odtp
; File c:\program files (x86)\microsoft visual studio 11.0\vc\include\xlocnum
;	COMDAT ??__E?id@?$numpunct@D@std@@2V0locale@2@A@@YAXXZ
text$yc	SEGMENT
??__E?id@?$numpunct@D@std@@2V0locale@2@A@@YAXXZ PROC	; `dynamic initializer for 'std::numpunct<char>::id'', COMDAT

; 155  : 		void _Getvals(wchar_t, const lconv *_Ptr, _Locinfo::_Cvtvec)

	push	ebp
	mov	ebp, esp
	push	0
	mov	ecx, OFFSET ?id@?$numpunct@D@std@@2V0locale@2@A ; std::numpunct<char>::id
	call	??0id@locale@std@@QAE@I@Z		; std::locale::id::id
	pop	ebp
	ret	0
??__E?id@?$numpunct@D@std@@2V0locale@2@A@@YAXXZ ENDP	; `dynamic initializer for 'std::numpunct<char>::id''
text$yc	ENDS
; Function compile flags: /Odtp
; File c:\program files (x86)\microsoft visual studio 11.0\vc\include\xlocnum
;	COMDAT ??__E?id@?$num_put@_WV?$back_insert_iterator@V?$basic_string@_WU?$char_traits@_W@std@@V?$allocator@_W@2@@std@@@std@@@std@@2V0locale@2@A@@YAXXZ
text$yc	SEGMENT
??__E?id@?$num_put@_WV?$back_insert_iterator@V?$basic_string@_WU?$char_traits@_W@std@@V?$allocator@_W@2@@std@@@std@@@std@@2V0locale@2@A@@YAXXZ PROC ; `dynamic initializer for 'std::num_put<wchar_t,std::back_insert_iterator<std::basic_string<wchar_t,std::char_traits<wchar_t>,std::allocator<wchar_t> > > >::id'', COMDAT

; 155  : 		void _Getvals(wchar_t, const lconv *_Ptr, _Locinfo::_Cvtvec)

	push	ebp
	mov	ebp, esp
	push	0
	mov	ecx, OFFSET ?id@?$num_put@_WV?$back_insert_iterator@V?$basic_string@_WU?$char_traits@_W@std@@V?$allocator@_W@2@@std@@@std@@@std@@2V0locale@2@A ; std::num_put<wchar_t,std::back_insert_iterator<std::basic_string<wchar_t,std::char_traits<wchar_t>,std::allocator<wchar_t> > > >::id
	call	??0id@locale@std@@QAE@I@Z		; std::locale::id::id
	pop	ebp
	ret	0
??__E?id@?$num_put@_WV?$back_insert_iterator@V?$basic_string@_WU?$char_traits@_W@std@@V?$allocator@_W@2@@std@@@std@@@std@@2V0locale@2@A@@YAXXZ ENDP ; `dynamic initializer for 'std::num_put<wchar_t,std::back_insert_iterator<std::basic_string<wchar_t,std::char_traits<wchar_t>,std::allocator<wchar_t> > > >::id''
text$yc	ENDS
; Function compile flags: /Odtp
; File c:\program files (x86)\microsoft visual studio 11.0\vc\include\xlocnum
;	COMDAT ??__E?id@?$num_put@DV?$back_insert_iterator@V?$basic_string@DU?$char_traits@D@std@@V?$allocator@D@2@@std@@@std@@@std@@2V0locale@2@A@@YAXXZ
text$yc	SEGMENT
??__E?id@?$num_put@DV?$back_insert_iterator@V?$basic_string@DU?$char_traits@D@std@@V?$allocator@D@2@@std@@@std@@@std@@2V0locale@2@A@@YAXXZ PROC ; `dynamic initializer for 'std::num_put<char,std::back_insert_iterator<std::basic_string<char,std::char_traits<char>,std::allocator<char> > > >::id'', COMDAT

; 155  : 		void _Getvals(wchar_t, const lconv *_Ptr, _Locinfo::_Cvtvec)

	push	ebp
	mov	ebp, esp
	push	0
	mov	ecx, OFFSET ?id@?$num_put@DV?$back_insert_iterator@V?$basic_string@DU?$char_traits@D@std@@V?$allocator@D@2@@std@@@std@@@std@@2V0locale@2@A ; std::num_put<char,std::back_insert_iterator<std::basic_string<char,std::char_traits<char>,std::allocator<char> > > >::id
	call	??0id@locale@std@@QAE@I@Z		; std::locale::id::id
	pop	ebp
	ret	0
??__E?id@?$num_put@DV?$back_insert_iterator@V?$basic_string@DU?$char_traits@D@std@@V?$allocator@D@2@@std@@@std@@@std@@2V0locale@2@A@@YAXXZ ENDP ; `dynamic initializer for 'std::num_put<char,std::back_insert_iterator<std::basic_string<char,std::char_traits<char>,std::allocator<char> > > >::id''
text$yc	ENDS
; Function compile flags: /Odtp
; File c:\program files (x86)\microsoft visual studio 11.0\vc\include\xmemory0
;	COMDAT ??$destroy@PAD@?$allocator_traits@V?$allocator@D@std@@@std@@SAXAAV?$allocator@D@1@PAPAD@Z
_TEXT	SEGMENT
__Al$ = 8						; size = 4
__Ptr$ = 12						; size = 4
??$destroy@PAD@?$allocator_traits@V?$allocator@D@std@@@std@@SAXAAV?$allocator@D@1@PAPAD@Z PROC ; std::allocator_traits<std::allocator<char> >::destroy<char *>, COMDAT

; 755  : 		static void destroy(_Alloc& _Al, _Uty *_Ptr)

	push	ebp
	mov	ebp, esp

; 756  : 		{	// destroy object at _Ptr
; 757  : 		_Al.destroy(_Ptr);

	mov	eax, DWORD PTR __Ptr$[ebp]
	push	eax
	mov	ecx, DWORD PTR __Al$[ebp]
	call	??$destroy@PAD@?$allocator@D@std@@QAEXPAPAD@Z ; std::allocator<char>::destroy<char *>

; 758  : 		}

	pop	ebp
	ret	0
??$destroy@PAD@?$allocator_traits@V?$allocator@D@std@@@std@@SAXAAV?$allocator@D@1@PAPAD@Z ENDP ; std::allocator_traits<std::allocator<char> >::destroy<char *>
_TEXT	ENDS
; Function compile flags: /Odtp
; File c:\program files (x86)\microsoft visual studio 11.0\vc\include\xmemory0
;	COMDAT ??$construct@PADAAPAD@?$allocator_traits@V?$allocator@D@std@@@std@@SAXAAV?$allocator@D@1@PAPADAAPAD@Z
_TEXT	SEGMENT
__Al$ = 8						; size = 4
__Ptr$ = 12						; size = 4
__V0$ = 16						; size = 4
??$construct@PADAAPAD@?$allocator_traits@V?$allocator@D@std@@@std@@SAXAAV?$allocator@D@1@PAPADAAPAD@Z PROC ; std::allocator_traits<std::allocator<char> >::construct<char *,char * &>, COMDAT

; 751  : _VARIADIC_EXPAND_0X(_ALLOC_TRAITS_SPECIAL_CONSTRUCT, , , , )

	push	ebp
	mov	ebp, esp
	mov	eax, DWORD PTR __V0$[ebp]
	push	eax
	call	??$forward@AAPAD@std@@YAAAPADAAPAD@Z	; std::forward<char * &>
	add	esp, 4
	push	eax
	mov	ecx, DWORD PTR __Ptr$[ebp]
	push	ecx
	mov	ecx, DWORD PTR __Al$[ebp]
	call	??$construct@PADAAPAD@?$allocator@D@std@@QAEXPAPADAAPAD@Z ; std::allocator<char>::construct<char *,char * &>
	pop	ebp
	ret	0
??$construct@PADAAPAD@?$allocator_traits@V?$allocator@D@std@@@std@@SAXAAV?$allocator@D@1@PAPADAAPAD@Z ENDP ; std::allocator_traits<std::allocator<char> >::construct<char *,char * &>
_TEXT	ENDS
; Function compile flags: /Odtp
; File c:\program files (x86)\microsoft visual studio 11.0\vc\include\type_traits
;	COMDAT ??$forward@AAPAD@std@@YAAAPADAAPAD@Z
_TEXT	SEGMENT
__Arg$ = 8						; size = 4
??$forward@AAPAD@std@@YAAAPADAAPAD@Z PROC		; std::forward<char * &>, COMDAT

; 1775 : 	{	// forward an lvalue

	push	ebp
	mov	ebp, esp

; 1776 : 	return (static_cast<_Ty&&>(_Arg));

	mov	eax, DWORD PTR __Arg$[ebp]

; 1777 : 	}

	pop	ebp
	ret	0
??$forward@AAPAD@std@@YAAAPADAAPAD@Z ENDP		; std::forward<char * &>
_TEXT	ENDS
; Function compile flags: /Odtp
;	COMDAT ??__F?_System_object@?$_Error_objects@H@std@@2V_System_error_category@2@A@@YAXXZ
text$yd	SEGMENT
??__F?_System_object@?$_Error_objects@H@std@@2V_System_error_category@2@A@@YAXXZ PROC ; `dynamic atexit destructor for 'std::_Error_objects<int>::_System_object'', COMDAT
	push	ebp
	mov	ebp, esp
	mov	ecx, OFFSET ?_System_object@?$_Error_objects@H@std@@2V_System_error_category@2@A ; std::_Error_objects<int>::_System_object
	call	??1_System_error_category@std@@UAE@XZ
	pop	ebp
	ret	0
??__F?_System_object@?$_Error_objects@H@std@@2V_System_error_category@2@A@@YAXXZ ENDP ; `dynamic atexit destructor for 'std::_Error_objects<int>::_System_object''
text$yd	ENDS
; Function compile flags: /Odtp
; File c:\program files (x86)\microsoft visual studio 11.0\vc\include\xmemory0
;	COMDAT ??__E?_System_object@?$_Error_objects@H@std@@2V_System_error_category@2@A@@YAXXZ
text$yc	SEGMENT
??__E?_System_object@?$_Error_objects@H@std@@2V_System_error_category@2@A@@YAXXZ PROC ; `dynamic initializer for 'std::_Error_objects<int>::_System_object'', COMDAT

; 627  : 		{	// estimate maximum array size

	push	ebp
	mov	ebp, esp
	mov	ecx, OFFSET ?_System_object@?$_Error_objects@H@std@@2V_System_error_category@2@A ; std::_Error_objects<int>::_System_object
	call	??0_System_error_category@std@@QAE@XZ	; std::_System_error_category::_System_error_category
	push	OFFSET ??__F?_System_object@?$_Error_objects@H@std@@2V_System_error_category@2@A@@YAXXZ ; `dynamic atexit destructor for 'std::_Error_objects<int>::_System_object''
	call	_atexit
	add	esp, 4
	pop	ebp
	ret	0
??__E?_System_object@?$_Error_objects@H@std@@2V_System_error_category@2@A@@YAXXZ ENDP ; `dynamic initializer for 'std::_Error_objects<int>::_System_object''
text$yc	ENDS
; Function compile flags: /Odtp
;	COMDAT ??__F?_Iostream_object@?$_Error_objects@H@std@@2V_Iostream_error_category@2@A@@YAXXZ
text$yd	SEGMENT
??__F?_Iostream_object@?$_Error_objects@H@std@@2V_Iostream_error_category@2@A@@YAXXZ PROC ; `dynamic atexit destructor for 'std::_Error_objects<int>::_Iostream_object'', COMDAT
	push	ebp
	mov	ebp, esp
	mov	ecx, OFFSET ?_Iostream_object@?$_Error_objects@H@std@@2V_Iostream_error_category@2@A ; std::_Error_objects<int>::_Iostream_object
	call	??1_Iostream_error_category@std@@UAE@XZ
	pop	ebp
	ret	0
??__F?_Iostream_object@?$_Error_objects@H@std@@2V_Iostream_error_category@2@A@@YAXXZ ENDP ; `dynamic atexit destructor for 'std::_Error_objects<int>::_Iostream_object''
text$yd	ENDS
; Function compile flags: /Odtp
; File c:\program files (x86)\microsoft visual studio 11.0\vc\include\xmemory0
;	COMDAT ??__E?_Iostream_object@?$_Error_objects@H@std@@2V_Iostream_error_category@2@A@@YAXXZ
text$yc	SEGMENT
??__E?_Iostream_object@?$_Error_objects@H@std@@2V_Iostream_error_category@2@A@@YAXXZ PROC ; `dynamic initializer for 'std::_Error_objects<int>::_Iostream_object'', COMDAT

; 627  : 		{	// estimate maximum array size

	push	ebp
	mov	ebp, esp
	mov	ecx, OFFSET ?_Iostream_object@?$_Error_objects@H@std@@2V_Iostream_error_category@2@A ; std::_Error_objects<int>::_Iostream_object
	call	??0_Iostream_error_category@std@@QAE@XZ	; std::_Iostream_error_category::_Iostream_error_category
	push	OFFSET ??__F?_Iostream_object@?$_Error_objects@H@std@@2V_Iostream_error_category@2@A@@YAXXZ ; `dynamic atexit destructor for 'std::_Error_objects<int>::_Iostream_object''
	call	_atexit
	add	esp, 4
	pop	ebp
	ret	0
??__E?_Iostream_object@?$_Error_objects@H@std@@2V_Iostream_error_category@2@A@@YAXXZ ENDP ; `dynamic initializer for 'std::_Error_objects<int>::_Iostream_object''
text$yc	ENDS
; Function compile flags: /Odtp
;	COMDAT ??__F?_Generic_object@?$_Error_objects@H@std@@2V_Generic_error_category@2@A@@YAXXZ
text$yd	SEGMENT
??__F?_Generic_object@?$_Error_objects@H@std@@2V_Generic_error_category@2@A@@YAXXZ PROC ; `dynamic atexit destructor for 'std::_Error_objects<int>::_Generic_object'', COMDAT
	push	ebp
	mov	ebp, esp
	mov	ecx, OFFSET ?_Generic_object@?$_Error_objects@H@std@@2V_Generic_error_category@2@A ; std::_Error_objects<int>::_Generic_object
	call	??1_Generic_error_category@std@@UAE@XZ
	pop	ebp
	ret	0
??__F?_Generic_object@?$_Error_objects@H@std@@2V_Generic_error_category@2@A@@YAXXZ ENDP ; `dynamic atexit destructor for 'std::_Error_objects<int>::_Generic_object''
text$yd	ENDS
; Function compile flags: /Odtp
; File c:\program files (x86)\microsoft visual studio 11.0\vc\include\xmemory0
;	COMDAT ??__E?_Generic_object@?$_Error_objects@H@std@@2V_Generic_error_category@2@A@@YAXXZ
text$yc	SEGMENT
??__E?_Generic_object@?$_Error_objects@H@std@@2V_Generic_error_category@2@A@@YAXXZ PROC ; `dynamic initializer for 'std::_Error_objects<int>::_Generic_object'', COMDAT

; 627  : 		{	// estimate maximum array size

	push	ebp
	mov	ebp, esp
	mov	ecx, OFFSET ?_Generic_object@?$_Error_objects@H@std@@2V_Generic_error_category@2@A ; std::_Error_objects<int>::_Generic_object
	call	??0_Generic_error_category@std@@QAE@XZ	; std::_Generic_error_category::_Generic_error_category
	push	OFFSET ??__F?_Generic_object@?$_Error_objects@H@std@@2V_Generic_error_category@2@A@@YAXXZ ; `dynamic atexit destructor for 'std::_Error_objects<int>::_Generic_object''
	call	_atexit
	add	esp, 4
	pop	ebp
	ret	0
??__E?_Generic_object@?$_Error_objects@H@std@@2V_Generic_error_category@2@A@@YAXXZ ENDP ; `dynamic initializer for 'std::_Error_objects<int>::_Generic_object''
text$yc	ENDS
; Function compile flags: /Odtp
; File c:\program files (x86)\microsoft visual studio 11.0\vc\include\xmemory0
;	COMDAT ??$_Allocate@D@std@@YAPADIPAD@Z
_TEXT	SEGMENT
__Ptr$ = -4						; size = 4
__Count$ = 8						; size = 4
___formal$ = 12						; size = 4
??$_Allocate@D@std@@YAPADIPAD@Z PROC			; std::_Allocate<char>, COMDAT

; 22   : 	{	// allocate storage for _Count elements of type _Ty

	push	ebp
	mov	ebp, esp
	push	ecx

; 23   : 	void *_Ptr = 0;

	mov	DWORD PTR __Ptr$[ebp], 0

; 24   : 
; 25   : 	if (_Count == 0)

	cmp	DWORD PTR __Count$[ebp], 0
	jne	SHORT $LN4@Allocate

; 26   : 		;
; 27   : 	else if (((size_t)(-1) / sizeof (_Ty) < _Count)

	jmp	SHORT $LN3@Allocate
$LN4@Allocate:

; 28   : 		|| (_Ptr = ::operator new(_Count * sizeof (_Ty))) == 0)

	cmp	DWORD PTR __Count$[ebp], -1
	ja	SHORT $LN1@Allocate
	mov	eax, DWORD PTR __Count$[ebp]
	push	eax
	call	??2@YAPAXI@Z				; operator new
	add	esp, 4
	mov	DWORD PTR __Ptr$[ebp], eax
	cmp	DWORD PTR __Ptr$[ebp], 0
	jne	SHORT $LN3@Allocate
$LN1@Allocate:

; 29   : 		_Xbad_alloc();	// report no memory

	call	?_Xbad_alloc@std@@YAXXZ			; std::_Xbad_alloc
$LN3@Allocate:

; 30   : 
; 31   : 	return ((_Ty *)_Ptr);

	mov	eax, DWORD PTR __Ptr$[ebp]
$LN6@Allocate:

; 32   : 	}

	mov	esp, ebp
	pop	ebp
	ret	0
??$_Allocate@D@std@@YAPADIPAD@Z ENDP			; std::_Allocate<char>
_TEXT	ENDS
; Function compile flags: /Odtp
; File c:\program files (x86)\microsoft visual studio 11.0\vc\include\xstddef
;	COMDAT ??$addressof@D@std@@YAPADAAD@Z
_TEXT	SEGMENT
__Val$ = 8						; size = 4
??$addressof@D@std@@YAPADAAD@Z PROC			; std::addressof<char>, COMDAT

; 85   : 	{	// return address of _Val

	push	ebp
	mov	ebp, esp

; 86   : 	return (reinterpret_cast<_Ty *>(
; 87   : 		(&const_cast<char&>(
; 88   : 		reinterpret_cast<const volatile char&>(_Val)))));

	mov	eax, DWORD PTR __Val$[ebp]

; 89   : 	}

	pop	ebp
	ret	0
??$addressof@D@std@@YAPADAAD@Z ENDP			; std::addressof<char>
_TEXT	ENDS
; Function compile flags: /Odtp
; File c:\program files (x86)\microsoft visual studio 11.0\vc\include\xmemory0
;	COMDAT ??$destroy@PAD@?$_Wrap_alloc@V?$allocator@D@std@@@std@@QAEXPAPAD@Z
_TEXT	SEGMENT
_this$ = -4						; size = 4
__Ptr$ = 8						; size = 4
??$destroy@PAD@?$_Wrap_alloc@V?$allocator@D@std@@@std@@QAEXPAPAD@Z PROC ; std::_Wrap_alloc<std::allocator<char> >::destroy<char *>, COMDAT
; _this$ = ecx

; 907  : 		void destroy(_Ty *_Ptr)

	push	ebp
	mov	ebp, esp
	push	ecx
	mov	DWORD PTR _this$[ebp], ecx

; 908  : 		{	// destroy object at _Ptr
; 909  : 		_Mytraits::destroy(*this, _Ptr);

	mov	eax, DWORD PTR __Ptr$[ebp]
	push	eax
	mov	ecx, DWORD PTR _this$[ebp]
	push	ecx
	call	??$destroy@PAD@?$allocator_traits@V?$allocator@D@std@@@std@@SAXAAV?$allocator@D@1@PAPAD@Z ; std::allocator_traits<std::allocator<char> >::destroy<char *>
	add	esp, 8

; 910  : 		}

	mov	esp, ebp
	pop	ebp
	ret	4
??$destroy@PAD@?$_Wrap_alloc@V?$allocator@D@std@@@std@@QAEXPAPAD@Z ENDP ; std::_Wrap_alloc<std::allocator<char> >::destroy<char *>
_TEXT	ENDS
; Function compile flags: /Odtp
; File c:\program files (x86)\microsoft visual studio 11.0\vc\include\xmemory0
;	COMDAT ??$construct@PADAAPAD@?$_Wrap_alloc@V?$allocator@D@std@@@std@@QAEXPAPADAAPAD@Z
_TEXT	SEGMENT
_this$ = -4						; size = 4
__Ptr$ = 8						; size = 4
__V0$ = 12						; size = 4
??$construct@PADAAPAD@?$_Wrap_alloc@V?$allocator@D@std@@@std@@QAEXPAPADAAPAD@Z PROC ; std::_Wrap_alloc<std::allocator<char> >::construct<char *,char * &>, COMDAT
; _this$ = ecx

; 903  : _VARIADIC_EXPAND_0X(_WRAP_ALLOC_CONSTRUCT, , , , )

	push	ebp
	mov	ebp, esp
	push	ecx
	mov	DWORD PTR _this$[ebp], ecx
	mov	eax, DWORD PTR __V0$[ebp]
	push	eax
	call	??$forward@AAPAD@std@@YAAAPADAAPAD@Z	; std::forward<char * &>
	add	esp, 4
	push	eax
	mov	ecx, DWORD PTR __Ptr$[ebp]
	push	ecx
	mov	edx, DWORD PTR _this$[ebp]
	push	edx
	call	??$construct@PADAAPAD@?$allocator_traits@V?$allocator@D@std@@@std@@SAXAAV?$allocator@D@1@PAPADAAPAD@Z ; std::allocator_traits<std::allocator<char> >::construct<char *,char * &>
	add	esp, 12					; 0000000cH
	mov	esp, ebp
	pop	ebp
	ret	8
??$construct@PADAAPAD@?$_Wrap_alloc@V?$allocator@D@std@@@std@@QAEXPAPADAAPAD@Z ENDP ; std::_Wrap_alloc<std::allocator<char> >::construct<char *,char * &>
_TEXT	ENDS
; Function compile flags: /Odtp
; File c:\users\zhitao li\documents\visual studio 2012\projects\freefalcon\graphics\objects\draw2d.cpp
;	COMDAT ??__EgTypeTable@@YAXXZ
text$yc	SEGMENT
??__EgTypeTable@@YAXXZ PROC				; `dynamic initializer for 'gTypeTable'', COMDAT

; 406  : 		numGlowSquareVerts,					// numGlowVerts

	push	ebp
	mov	ebp, esp
	mov	eax, DWORD PTR ?numGlowSquareVerts@@3HA	; numGlowSquareVerts
	mov	DWORD PTR ?gTypeTable@@3PAU_TYPES2D@@A+592, eax

; 407  : 		10000.0f,							// maxExpand

	movss	xmm0, DWORD PTR __real@461c4000
	movss	DWORD PTR ?gTypeTable@@3PAU_TYPES2D@@A+596, xmm0

; 408  : 	},
; 409  : 	// missile Glowing Object
; 410  : 	{
; 411  : 		GLOW_SPHERE | GLOW_RAND_POINTS,		// flags

	mov	DWORD PTR ?gTypeTable@@3PAU_TYPES2D@@A+600, 3072 ; 00000c00H

; 412  : 		0.9f,								// initAlpha

	movss	xmm0, DWORD PTR __real@3f666666
	movss	DWORD PTR ?gTypeTable@@3PAU_TYPES2D@@A+604, xmm0

; 413  : 		0.0f,								// fadeRate

	movss	xmm0, DWORD PTR __real@00000000
	movss	DWORD PTR ?gTypeTable@@3PAU_TYPES2D@@A+608, xmm0

; 414  : 		NULL,								// texture id sequence

	mov	DWORD PTR ?gTypeTable@@3PAU_TYPES2D@@A+612, 0

; 415  : 		0, 									// numTextures

	mov	DWORD PTR ?gTypeTable@@3PAU_TYPES2D@@A+616, 0

; 416  : 		0, 									// numTextures

	mov	DWORD PTR ?gTypeTable@@3PAU_TYPES2D@@A+620, 0

; 417  : 		0.0f,								// expandRate

	movss	xmm0, DWORD PTR __real@00000000
	movss	DWORD PTR ?gTypeTable@@3PAU_TYPES2D@@A+624, xmm0

; 418  : 		glowStarVerts,						// glowVerts

	mov	DWORD PTR ?gTypeTable@@3PAU_TYPES2D@@A+628, OFFSET ?glowStarVerts@@3PAUTpoint@@A ; glowStarVerts

; 419  : 		numGlowStarVerts,					// numGlowVerts

	mov	ecx, DWORD PTR ?numGlowStarVerts@@3HA	; numGlowStarVerts
	mov	DWORD PTR ?gTypeTable@@3PAU_TYPES2D@@A+632, ecx

; 420  : 		10000.0f,							// maxExpand

	movss	xmm0, DWORD PTR __real@461c4000
	movss	DWORD PTR ?gTypeTable@@3PAU_TYPES2D@@A+636, xmm0

; 421  : 	},
; 422  : 	// Glowing explosion Object Sphere
; 423  : 	{
; 424  : 		GLOW_SPHERE | ALPHA_BRIGHTEN | ALPHA_DAYLIGHT,						// flags

	mov	DWORD PTR ?gTypeTable@@3PAU_TYPES2D@@A+640, 1049728 ; 00100480H

; 425  : 		0.6f,								// initAlpha

	movss	xmm0, DWORD PTR __real@3f19999a
	movss	DWORD PTR ?gTypeTable@@3PAU_TYPES2D@@A+644, xmm0

; 426  : 		0.0f,								// fadeRate

	movss	xmm0, DWORD PTR __real@00000000
	movss	DWORD PTR ?gTypeTable@@3PAU_TYPES2D@@A+648, xmm0

; 427  : 		NULL,								// texture id sequence

	mov	DWORD PTR ?gTypeTable@@3PAU_TYPES2D@@A+652, 0

; 428  : 		0, 									// numTextures

	mov	DWORD PTR ?gTypeTable@@3PAU_TYPES2D@@A+656, 0

; 429  : 		0, 									// numTextures

	mov	DWORD PTR ?gTypeTable@@3PAU_TYPES2D@@A+660, 0

; 430  : 		0.0f,								// expandRate

	movss	xmm0, DWORD PTR __real@00000000
	movss	DWORD PTR ?gTypeTable@@3PAU_TYPES2D@@A+664, xmm0

; 431  : 		glowCircleVerts,						// glowVerts

	mov	DWORD PTR ?gTypeTable@@3PAU_TYPES2D@@A+668, OFFSET ?glowCircleVerts@@3PAUTpoint@@A ; glowCircleVerts

; 432  : 		numGlowCircleVerts,					// numGlowVerts

	mov	edx, DWORD PTR ?numGlowCircleVerts@@3HA	; numGlowCircleVerts
	mov	DWORD PTR ?gTypeTable@@3PAU_TYPES2D@@A+672, edx

; 433  : 		10000.0f,							// maxExpand

	movss	xmm0, DWORD PTR __real@461c4000
	movss	DWORD PTR ?gTypeTable@@3PAU_TYPES2D@@A+676, xmm0

; 434  : 	},
; 435  : 	// Glowing explosion Object Cross
; 436  : 	{
; 437  : 		GLOW_SPHERE ,						// flags

	mov	DWORD PTR ?gTypeTable@@3PAU_TYPES2D@@A+680, 1024 ; 00000400H

; 438  : 		1.0f,								// initAlpha

	movss	xmm0, DWORD PTR __real@3f800000
	movss	DWORD PTR ?gTypeTable@@3PAU_TYPES2D@@A+684, xmm0

; 439  : 		.0009f,								// fadeRate

	movss	xmm0, DWORD PTR __real@3a6bedfa
	movss	DWORD PTR ?gTypeTable@@3PAU_TYPES2D@@A+688, xmm0

; 440  : 		0,									// texture id sequence

	mov	DWORD PTR ?gTypeTable@@3PAU_TYPES2D@@A+692, 0

; 441  : 		0, 									// numTextures

	mov	DWORD PTR ?gTypeTable@@3PAU_TYPES2D@@A+696, 0

; 442  : 		0, 									// numTextures

	mov	DWORD PTR ?gTypeTable@@3PAU_TYPES2D@@A+700, 0

; 443  : 		50.0f,								// expandRate

	movss	xmm0, DWORD PTR __real@42480000
	movss	DWORD PTR ?gTypeTable@@3PAU_TYPES2D@@A+704, xmm0

; 444  : 		glowCrossVerts,						// glowVerts

	mov	DWORD PTR ?gTypeTable@@3PAU_TYPES2D@@A+708, OFFSET ?glowCrossVerts@@3PAUTpoint@@A ; glowCrossVerts

; 445  : 		numGlowCrossVerts,					// numGlowVerts

	mov	eax, DWORD PTR ?numGlowCrossVerts@@3HA	; numGlowCrossVerts
	mov	DWORD PTR ?gTypeTable@@3PAU_TYPES2D@@A+712, eax

; 446  : 		10000.0f,							// maxExpand

	movss	xmm0, DWORD PTR __real@461c4000
	movss	DWORD PTR ?gTypeTable@@3PAU_TYPES2D@@A+716, xmm0

; 447  : 	},
; 448  : 	// Crater 1
; 449  : 	{
; 450  : 		ANIM_HOLD_LAST,						// flags

	mov	DWORD PTR ?gTypeTable@@3PAU_TYPES2D@@A+720, 2

; 451  : 		1.0f,								// initAlpha

	movss	xmm0, DWORD PTR __real@3f800000
	movss	DWORD PTR ?gTypeTable@@3PAU_TYPES2D@@A+724, xmm0

; 452  : 		0.0f,								// fadeRate

	movss	xmm0, DWORD PTR __real@00000000
	movss	DWORD PTR ?gTypeTable@@3PAU_TYPES2D@@A+728, xmm0

; 453  : 		3,

	mov	DWORD PTR ?gTypeTable@@3PAU_TYPES2D@@A+732, 3

; 454  : 		14,									// start Textures

	mov	DWORD PTR ?gTypeTable@@3PAU_TYPES2D@@A+736, 14 ; 0000000eH

; 455  : 		1,									// numTextures

	mov	DWORD PTR ?gTypeTable@@3PAU_TYPES2D@@A+740, 1

; 456  : 		0.0f,								// expandRate

	movss	xmm0, DWORD PTR __real@00000000
	movss	DWORD PTR ?gTypeTable@@3PAU_TYPES2D@@A+744, xmm0

; 457  : 		NULL,								// glowVerts

	mov	DWORD PTR ?gTypeTable@@3PAU_TYPES2D@@A+748, 0

; 458  : 		0,									// numGlowVerts

	mov	DWORD PTR ?gTypeTable@@3PAU_TYPES2D@@A+752, 0

; 459  : 		10000.0f,							// maxExpand

	movss	xmm0, DWORD PTR __real@461c4000
	movss	DWORD PTR ?gTypeTable@@3PAU_TYPES2D@@A+756, xmm0

; 460  : 	},
; 461  : 	// Crater 2
; 462  : 	{
; 463  : 		ANIM_HOLD_LAST,						// flags

	mov	DWORD PTR ?gTypeTable@@3PAU_TYPES2D@@A+760, 2

; 464  : 		1.0f,								// initAlpha

	movss	xmm0, DWORD PTR __real@3f800000
	movss	DWORD PTR ?gTypeTable@@3PAU_TYPES2D@@A+764, xmm0

; 465  : 		0.0f,								// fadeRate

	movss	xmm0, DWORD PTR __real@00000000
	movss	DWORD PTR ?gTypeTable@@3PAU_TYPES2D@@A+768, xmm0

; 466  : 		3,

	mov	DWORD PTR ?gTypeTable@@3PAU_TYPES2D@@A+772, 3

; 467  : 		14,									// start Textures

	mov	DWORD PTR ?gTypeTable@@3PAU_TYPES2D@@A+776, 14 ; 0000000eH

; 468  : 		1,									// numTextures

	mov	DWORD PTR ?gTypeTable@@3PAU_TYPES2D@@A+780, 1

; 469  : 		0.0f,								// expandRate

	movss	xmm0, DWORD PTR __real@00000000
	movss	DWORD PTR ?gTypeTable@@3PAU_TYPES2D@@A+784, xmm0

; 470  : 		NULL,								// glowVerts

	mov	DWORD PTR ?gTypeTable@@3PAU_TYPES2D@@A+788, 0

; 471  : 		0,									// numGlowVerts

	mov	DWORD PTR ?gTypeTable@@3PAU_TYPES2D@@A+792, 0

; 472  : 		10000.0f,							// maxExpand

	movss	xmm0, DWORD PTR __real@461c4000
	movss	DWORD PTR ?gTypeTable@@3PAU_TYPES2D@@A+796, xmm0

; 473  : 	},
; 474  : 	// Crater 3
; 475  : 	{
; 476  : 		ANIM_HOLD_LAST,						// flags

	mov	DWORD PTR ?gTypeTable@@3PAU_TYPES2D@@A+800, 2

; 477  : 		1.0f,								// initAlpha

	movss	xmm0, DWORD PTR __real@3f800000
	movss	DWORD PTR ?gTypeTable@@3PAU_TYPES2D@@A+804, xmm0

; 478  : 		0.0f,								// fadeRate

	movss	xmm0, DWORD PTR __real@00000000
	movss	DWORD PTR ?gTypeTable@@3PAU_TYPES2D@@A+808, xmm0

; 479  : 		3,

	mov	DWORD PTR ?gTypeTable@@3PAU_TYPES2D@@A+812, 3

; 480  : 		14,									// start Textures

	mov	DWORD PTR ?gTypeTable@@3PAU_TYPES2D@@A+816, 14 ; 0000000eH

; 481  : 		1,									// numTextures

	mov	DWORD PTR ?gTypeTable@@3PAU_TYPES2D@@A+820, 1

; 482  : 		0.0f,								// expandRate

	movss	xmm0, DWORD PTR __real@00000000
	movss	DWORD PTR ?gTypeTable@@3PAU_TYPES2D@@A+824, xmm0

; 483  : 		NULL,								// glowVerts

	mov	DWORD PTR ?gTypeTable@@3PAU_TYPES2D@@A+828, 0

; 484  : 		0,									// numGlowVerts

	mov	DWORD PTR ?gTypeTable@@3PAU_TYPES2D@@A+832, 0

; 485  : 		10000.0f,							// maxExpand

	movss	xmm0, DWORD PTR __real@461c4000
	movss	DWORD PTR ?gTypeTable@@3PAU_TYPES2D@@A+836, xmm0

; 486  : 	},
; 487  : 	// FIRE
; 488  : 	{
; 489  : 		RAND_START_FRAME | ANIM_LOOP | SEQ_SCATTER_ANIM | FIRE_SCATTER_PLOT | ALPHA_PER_TEXEL,			// flags

	mov	DWORD PTR ?gTypeTable@@3PAU_TYPES2D@@A+840, 42082308 ; 02822004H

; 490  : 		0.9f,								// initAlpha

	movss	xmm0, DWORD PTR __real@3f666666
	movss	DWORD PTR ?gTypeTable@@3PAU_TYPES2D@@A+844, xmm0

; 491  : 		0.0f,								// fadeRate

	movss	xmm0, DWORD PTR __real@00000000
	movss	DWORD PTR ?gTypeTable@@3PAU_TYPES2D@@A+848, xmm0

; 492  : 		0,

	mov	DWORD PTR ?gTypeTable@@3PAU_TYPES2D@@A+852, 0

; 493  : 		0,									// startTexture

	mov	DWORD PTR ?gTypeTable@@3PAU_TYPES2D@@A+856, 0

; 494  : 		6,									// numTextures

	mov	DWORD PTR ?gTypeTable@@3PAU_TYPES2D@@A+860, 6

; 495  : 		0.0f,								// expandRate

	movss	xmm0, DWORD PTR __real@00000000
	movss	DWORD PTR ?gTypeTable@@3PAU_TYPES2D@@A+864, xmm0

; 496  : 		NULL,								// glowVerts

	mov	DWORD PTR ?gTypeTable@@3PAU_TYPES2D@@A+868, 0

; 497  : 		NUM_FIRE_SCATTER_FRAMES,			// numGlowVerts

	mov	DWORD PTR ?gTypeTable@@3PAU_TYPES2D@@A+872, 8

; 498  : 		10000.0f,							// maxExpand

	movss	xmm0, DWORD PTR __real@461c4000
	movss	DWORD PTR ?gTypeTable@@3PAU_TYPES2D@@A+876, xmm0

; 499  : 	},
; 500  : 	// GROUND STRIKE
; 501  : 	{
; 502  : 		USES_TREE_MATRIX,					// flags

	mov	DWORD PTR ?gTypeTable@@3PAU_TYPES2D@@A+880, 512 ; 00000200H

; 503  : 		0.8f,								// initAlpha

	movss	xmm0, DWORD PTR __real@3f4ccccd
	movss	DWORD PTR ?gTypeTable@@3PAU_TYPES2D@@A+884, xmm0

; 504  : 		0.0f,								// fadeRate

	movss	xmm0, DWORD PTR __real@00000000
	movss	DWORD PTR ?gTypeTable@@3PAU_TYPES2D@@A+888, xmm0

; 505  : 		5,

	mov	DWORD PTR ?gTypeTable@@3PAU_TYPES2D@@A+892, 5

; 506  : 		0,									// startTexture

	mov	DWORD PTR ?gTypeTable@@3PAU_TYPES2D@@A+896, 0

; 507  : 		16,									// numTextures

	mov	DWORD PTR ?gTypeTable@@3PAU_TYPES2D@@A+900, 16 ; 00000010H

; 508  : 		0.0f,								// expandRate

	movss	xmm0, DWORD PTR __real@00000000
	movss	DWORD PTR ?gTypeTable@@3PAU_TYPES2D@@A+904, xmm0

; 509  : 		NULL,								// glowVerts

	mov	DWORD PTR ?gTypeTable@@3PAU_TYPES2D@@A+908, 0

; 510  : 		0,									// numGlowVerts

	mov	DWORD PTR ?gTypeTable@@3PAU_TYPES2D@@A+912, 0

; 511  : 		10000.0f,							// maxExpand

	movss	xmm0, DWORD PTR __real@461c4000
	movss	DWORD PTR ?gTypeTable@@3PAU_TYPES2D@@A+916, xmm0

; 512  : 	},
; 513  : 	// Water STRIKE
; 514  : 	{
; 515  : 		USES_TREE_MATRIX,					// flags

	mov	DWORD PTR ?gTypeTable@@3PAU_TYPES2D@@A+920, 512 ; 00000200H

; 516  : 		0.8f,								// initAlpha

	movss	xmm0, DWORD PTR __real@3f4ccccd
	movss	DWORD PTR ?gTypeTable@@3PAU_TYPES2D@@A+924, xmm0

; 517  : 		0.0f,								// fadeRate

	movss	xmm0, DWORD PTR __real@00000000
	movss	DWORD PTR ?gTypeTable@@3PAU_TYPES2D@@A+928, xmm0

; 518  : 		2,

	mov	DWORD PTR ?gTypeTable@@3PAU_TYPES2D@@A+932, 2

; 519  : 		0,									// startTexture

	mov	DWORD PTR ?gTypeTable@@3PAU_TYPES2D@@A+936, 0

; 520  : 		16,									// numTextures

	mov	DWORD PTR ?gTypeTable@@3PAU_TYPES2D@@A+940, 16 ; 00000010H

; 521  : 		0.0f,								// expandRate

	movss	xmm0, DWORD PTR __real@00000000
	movss	DWORD PTR ?gTypeTable@@3PAU_TYPES2D@@A+944, xmm0

; 522  : 		NULL,								// glowVerts

	mov	DWORD PTR ?gTypeTable@@3PAU_TYPES2D@@A+948, 0

; 523  : 		0,									// numGlowVerts

	mov	DWORD PTR ?gTypeTable@@3PAU_TYPES2D@@A+952, 0

; 524  : 		10000.0f,							// maxExpand

	movss	xmm0, DWORD PTR __real@461c4000
	movss	DWORD PTR ?gTypeTable@@3PAU_TYPES2D@@A+956, xmm0

; 525  : 	},
; 526  : 	// Hit Explosion
; 527  : 	{
; 528  : 		ANIM_HALF_RATE | ANIM_STOP | EXPLODE_SCATTER_PLOT | ANIM_NO_CLAMP,							// flags

	mov	DWORD PTR ?gTypeTable@@3PAU_TYPES2D@@A+960, 331777 ; 00051001H

; 529  : 		0.8f,								// initAlpha

	movss	xmm0, DWORD PTR __real@3f4ccccd
	movss	DWORD PTR ?gTypeTable@@3PAU_TYPES2D@@A+964, xmm0

; 530  : 		0.0f,								// fadeRate

	movss	xmm0, DWORD PTR __real@00000000
	movss	DWORD PTR ?gTypeTable@@3PAU_TYPES2D@@A+968, xmm0

; 531  : 		0,

	mov	DWORD PTR ?gTypeTable@@3PAU_TYPES2D@@A+972, 0

; 532  : 		0,									// startTexture

	mov	DWORD PTR ?gTypeTable@@3PAU_TYPES2D@@A+976, 0

; 533  : 		12,									// numTextures

	mov	DWORD PTR ?gTypeTable@@3PAU_TYPES2D@@A+980, 12 ; 0000000cH

; 534  : 		0.0f,								// expandRate

	movss	xmm0, DWORD PTR __real@00000000
	movss	DWORD PTR ?gTypeTable@@3PAU_TYPES2D@@A+984, xmm0

; 535  : 		NULL,								// glowVerts

	mov	DWORD PTR ?gTypeTable@@3PAU_TYPES2D@@A+988, 0

; 536  : 		NUM_EXPLODE_SCATTER_FRAMES,			// numGlowVerts

	mov	DWORD PTR ?gTypeTable@@3PAU_TYPES2D@@A+992, 1

; 537  : 		10000.0f,							// maxExpand

	movss	xmm0, DWORD PTR __real@461c4000
	movss	DWORD PTR ?gTypeTable@@3PAU_TYPES2D@@A+996, xmm0

; 538  : 	},
; 539  : 	// Sparks
; 540  : 	/*
; 541  : 	{
; 542  : 		ANIM_STOP | USES_BB_MATRIX | ANIM_HALF_RATE,							// flags
; 543  : 		1.0f,								// initAlpha
; 544  : 		0.0f,								// fadeRate
; 545  : 		0,
; 546  : 		12,									// startTexture
; 547  : 		4,									// numTextures
; 548  : 		0.0f,								// expandRate
; 549  : 		NULL,								// glowVerts
; 550  : 		0,									// numGlowVerts
; 551  : 		10000.0f,							// maxExpand
; 552  : 	},
; 553  : 	*/
; 554  : 	// SPARKS explosion Object Star
; 555  : 	{
; 556  : 		FADE_START | ALPHA_DAYLIGHT | ALPHA_BRIGHTEN | GLOW_SPHERE | GLOW_RAND_POINTS,		// flags

	mov	DWORD PTR ?gTypeTable@@3PAU_TYPES2D@@A+1000, 1051808 ; 00100ca0H

; 557  : 		1.0f,								// initAlpha

	movss	xmm0, DWORD PTR __real@3f800000
	movss	DWORD PTR ?gTypeTable@@3PAU_TYPES2D@@A+1004, xmm0

; 558  : 		.0015f,								// fadeRate

	movss	xmm0, DWORD PTR __real@3ac49ba6
	movss	DWORD PTR ?gTypeTable@@3PAU_TYPES2D@@A+1008, xmm0

; 559  : 		NULL,								// texture id sequence

	mov	DWORD PTR ?gTypeTable@@3PAU_TYPES2D@@A+1012, 0

; 560  : 		0, 									// numTextures

	mov	DWORD PTR ?gTypeTable@@3PAU_TYPES2D@@A+1016, 0

; 561  : 		0, 									// numTextures

	mov	DWORD PTR ?gTypeTable@@3PAU_TYPES2D@@A+1020, 0

; 562  : 		0.0f,								// expandRate

	movss	xmm0, DWORD PTR __real@00000000
	movss	DWORD PTR ?gTypeTable@@3PAU_TYPES2D@@A+1024, xmm0

; 563  : 		glowCircleVerts,						// glowVerts

	mov	DWORD PTR ?gTypeTable@@3PAU_TYPES2D@@A+1028, OFFSET ?glowCircleVerts@@3PAUTpoint@@A ; glowCircleVerts

; 564  : 		numGlowCircleVerts,					// numGlowVerts

	mov	ecx, DWORD PTR ?numGlowCircleVerts@@3HA	; numGlowCircleVerts
	mov	DWORD PTR ?gTypeTable@@3PAU_TYPES2D@@A+1032, ecx

; 565  : 		10000.0f,							// maxExpand

	movss	xmm0, DWORD PTR __real@461c4000
	movss	DWORD PTR ?gTypeTable@@3PAU_TYPES2D@@A+1036, xmm0

; 566  : 	},
; 567  : 	// Artillery Explosion
; 568  : 	{
; 569  : 		USES_TREE_MATRIX | ANIM_STOP,					// flags

	mov	DWORD PTR ?gTypeTable@@3PAU_TYPES2D@@A+1040, 513 ; 00000201H

; 570  : 		0.8f,								// initAlpha

	movss	xmm0, DWORD PTR __real@3f4ccccd
	movss	DWORD PTR ?gTypeTable@@3PAU_TYPES2D@@A+1044, xmm0

; 571  : 		0.0f,								// fadeRate

	movss	xmm0, DWORD PTR __real@00000000
	movss	DWORD PTR ?gTypeTable@@3PAU_TYPES2D@@A+1048, xmm0

; 572  : 		3,

	mov	DWORD PTR ?gTypeTable@@3PAU_TYPES2D@@A+1052, 3

; 573  : 		0,									// startTexture

	mov	DWORD PTR ?gTypeTable@@3PAU_TYPES2D@@A+1056, 0

; 574  : 		10,									// numTextures

	mov	DWORD PTR ?gTypeTable@@3PAU_TYPES2D@@A+1060, 10 ; 0000000aH

; 575  : 		0.0f,								// expandRate

	movss	xmm0, DWORD PTR __real@00000000
	movss	DWORD PTR ?gTypeTable@@3PAU_TYPES2D@@A+1064, xmm0

; 576  : 		NULL,								// glowVerts

	mov	DWORD PTR ?gTypeTable@@3PAU_TYPES2D@@A+1068, 0

; 577  : 		0,									// numGlowVerts

	mov	DWORD PTR ?gTypeTable@@3PAU_TYPES2D@@A+1072, 0

; 578  : 		10000.0f,							// maxExpand

	movss	xmm0, DWORD PTR __real@461c4000
	movss	DWORD PTR ?gTypeTable@@3PAU_TYPES2D@@A+1076, xmm0

; 579  : 	},
; 580  : 	// shock ring
; 581  : 	{
; 582  : 		USES_TREE_MATRIX | FADE_START | ANIM_HOLD_LAST,	// flags

	mov	DWORD PTR ?gTypeTable@@3PAU_TYPES2D@@A+1080, 546 ; 00000222H

; 583  : 		0.5f,								// initAlpha

	movss	xmm0, DWORD PTR __real@3f000000
	movss	DWORD PTR ?gTypeTable@@3PAU_TYPES2D@@A+1084, xmm0

; 584  : 		0.0007f,							// fadeRate

	movss	xmm0, DWORD PTR __real@3a378034
	movss	DWORD PTR ?gTypeTable@@3PAU_TYPES2D@@A+1088, xmm0

; 585  : 		4,

	mov	DWORD PTR ?gTypeTable@@3PAU_TYPES2D@@A+1092, 4

; 586  : 		15,									// startTexture

	mov	DWORD PTR ?gTypeTable@@3PAU_TYPES2D@@A+1096, 15 ; 0000000fH

; 587  : 		1,									// numTextures

	mov	DWORD PTR ?gTypeTable@@3PAU_TYPES2D@@A+1100, 1

; 588  : 		480.0f,								// expandRate

	movss	xmm0, DWORD PTR __real@43f00000
	movss	DWORD PTR ?gTypeTable@@3PAU_TYPES2D@@A+1104, xmm0

; 589  : 		NULL,								// glowVerts

	mov	DWORD PTR ?gTypeTable@@3PAU_TYPES2D@@A+1108, 0

; 590  : 		0,									// numGlowVerts

	mov	DWORD PTR ?gTypeTable@@3PAU_TYPES2D@@A+1112, 0

; 591  : 		10000.0f,							// maxExpand

	movss	xmm0, DWORD PTR __real@461c4000
	movss	DWORD PTR ?gTypeTable@@3PAU_TYPES2D@@A+1116, xmm0

; 592  : 	},
; 593  : 	// long hanging smoke
; 594  : 	{
; 595  : 		ANIM_HALF_RATE | ANIM_LOOP | FADE_START | DO_FIVE_POINTS,		// flags

	mov	DWORD PTR ?gTypeTable@@3PAU_TYPES2D@@A+1120, 2101284 ; 00201024H

; 596  : 		1.0f,								// initAlpha

	movss	xmm0, DWORD PTR __real@3f800000
	movss	DWORD PTR ?gTypeTable@@3PAU_TYPES2D@@A+1124, xmm0

; 597  : 		.00001f,								// fadeRate

	movss	xmm0, DWORD PTR __real@3727c5ac
	movss	DWORD PTR ?gTypeTable@@3PAU_TYPES2D@@A+1128, xmm0

; 598  : 		6,

	mov	DWORD PTR ?gTypeTable@@3PAU_TYPES2D@@A+1132, 6

; 599  : 		0,									// startTexture

	mov	DWORD PTR ?gTypeTable@@3PAU_TYPES2D@@A+1136, 0

; 600  : 		8,									// numTextures

	mov	DWORD PTR ?gTypeTable@@3PAU_TYPES2D@@A+1140, 8

; 601  : 		10.0f,								// expandRate

	movss	xmm0, DWORD PTR __real@41200000
	movss	DWORD PTR ?gTypeTable@@3PAU_TYPES2D@@A+1144, xmm0

; 602  : 		NULL,								// glowVerts

	mov	DWORD PTR ?gTypeTable@@3PAU_TYPES2D@@A+1148, 0

; 603  : 		0,									// numGlowVerts

	mov	DWORD PTR ?gTypeTable@@3PAU_TYPES2D@@A+1152, 0

; 604  : 		500.0f,							// maxExpand

	movss	xmm0, DWORD PTR __real@43fa0000
	movss	DWORD PTR ?gTypeTable@@3PAU_TYPES2D@@A+1156, xmm0

; 605  : 	},
; 606  : 	// Shaped FIRE DEBRIS
; 607  : 	{
; 608  : 		ANIM_LOOP | TEXTURED_CONE | FADE_START,					// flags

	mov	DWORD PTR ?gTypeTable@@3PAU_TYPES2D@@A+1160, 32804 ; 00008024H

; 609  : 		1.0f,								// initAlpha

	movss	xmm0, DWORD PTR __real@3f800000
	movss	DWORD PTR ?gTypeTable@@3PAU_TYPES2D@@A+1164, xmm0

; 610  : 		0.0001f,								// fadeRate

	movss	xmm0, DWORD PTR __real@38d1b717
	movss	DWORD PTR ?gTypeTable@@3PAU_TYPES2D@@A+1168, xmm0

; 611  : 		6,

	mov	DWORD PTR ?gTypeTable@@3PAU_TYPES2D@@A+1172, 6

; 612  : 		8,									// startTexture

	mov	DWORD PTR ?gTypeTable@@3PAU_TYPES2D@@A+1176, 8

; 613  : 		8,									// numTextures

	mov	DWORD PTR ?gTypeTable@@3PAU_TYPES2D@@A+1180, 8

; 614  : 		0.0f,								// expandRate

	movss	xmm0, DWORD PTR __real@00000000
	movss	DWORD PTR ?gTypeTable@@3PAU_TYPES2D@@A+1184, xmm0

; 615  : 		&coneDim,								// glowVerts

	mov	DWORD PTR ?gTypeTable@@3PAU_TYPES2D@@A+1188, OFFSET ?coneDim@@3UTpoint@@A ; coneDim

; 616  : 		1,									// numGlowVerts

	mov	DWORD PTR ?gTypeTable@@3PAU_TYPES2D@@A+1192, 1

; 617  : 		10000.0f,							// maxExpand

	movss	xmm0, DWORD PTR __real@461c4000
	movss	DWORD PTR ?gTypeTable@@3PAU_TYPES2D@@A+1196, xmm0

; 618  : 	},
; 619  : 
; 620  : 	// Water CLOUD
; 621  : 	{
; 622  : 		ANIM_LOOP | FADE_START | ALPHA_PER_TEXEL,		// flags

	mov	DWORD PTR ?gTypeTable@@3PAU_TYPES2D@@A+1200, 8388644 ; 00800024H

; 623  : 		0.6f,								// initAlpha

	movss	xmm0, DWORD PTR __real@3f19999a
	movss	DWORD PTR ?gTypeTable@@3PAU_TYPES2D@@A+1204, xmm0

; 624  : 		.0001f,								// fadeRate

	movss	xmm0, DWORD PTR __real@38d1b717
	movss	DWORD PTR ?gTypeTable@@3PAU_TYPES2D@@A+1208, xmm0

; 625  : 		7,

	mov	DWORD PTR ?gTypeTable@@3PAU_TYPES2D@@A+1212, 7

; 626  : 		14,									// startTexture

	mov	DWORD PTR ?gTypeTable@@3PAU_TYPES2D@@A+1216, 14 ; 0000000eH

; 627  : 		1,									// numTextures

	mov	DWORD PTR ?gTypeTable@@3PAU_TYPES2D@@A+1220, 1

; 628  : 		20.0f,								// expandRate

	movss	xmm0, DWORD PTR __real@41a00000
	movss	DWORD PTR ?gTypeTable@@3PAU_TYPES2D@@A+1224, xmm0

; 629  : 		NULL,								// glowVerts

	mov	DWORD PTR ?gTypeTable@@3PAU_TYPES2D@@A+1228, 0

; 630  : 		NUM_SMOKE_SCATTER_FRAMES,			// numGlowVerts

	mov	DWORD PTR ?gTypeTable@@3PAU_TYPES2D@@A+1232, 1

; 631  : 		100.0f,							// maxExpand

	movss	xmm0, DWORD PTR __real@42c80000
	movss	DWORD PTR ?gTypeTable@@3PAU_TYPES2D@@A+1236, xmm0

; 632  : 	},
; 633  : 	// DARK DEBRIS
; 634  : 	{
; 635  : 		GOURAUD_TRI | GLOW_RAND_POINTS,		 // flags

	mov	DWORD PTR ?gTypeTable@@3PAU_TYPES2D@@A+1240, 526336 ; 00080800H

; 636  : 		1.0f,								// initAlpha

	movss	xmm0, DWORD PTR __real@3f800000
	movss	DWORD PTR ?gTypeTable@@3PAU_TYPES2D@@A+1244, xmm0

; 637  : 		0.0f,								// fadeRate

	movss	xmm0, DWORD PTR __real@00000000
	movss	DWORD PTR ?gTypeTable@@3PAU_TYPES2D@@A+1248, xmm0

; 638  : 		NULL,								// texture id sequence

	mov	DWORD PTR ?gTypeTable@@3PAU_TYPES2D@@A+1252, 0

; 639  : 		0,									// startTexture

	mov	DWORD PTR ?gTypeTable@@3PAU_TYPES2D@@A+1256, 0

; 640  : 		0,									// numTextures

	mov	DWORD PTR ?gTypeTable@@3PAU_TYPES2D@@A+1260, 0

; 641  : 		0.0f,								// expandRate

	movss	xmm0, DWORD PTR __real@00000000
	movss	DWORD PTR ?gTypeTable@@3PAU_TYPES2D@@A+1264, xmm0

; 642  : 		NULL,								// glowVerts

	mov	DWORD PTR ?gTypeTable@@3PAU_TYPES2D@@A+1268, 0

; 643  : 		0,									// numGlowVerts

	mov	DWORD PTR ?gTypeTable@@3PAU_TYPES2D@@A+1272, 0

; 644  : 		10000.0f,							// maxExpand

	movss	xmm0, DWORD PTR __real@461c4000
	movss	DWORD PTR ?gTypeTable@@3PAU_TYPES2D@@A+1276, xmm0

; 645  : 	},
; 646  : 	// FIRE DEBRIS
; 647  : 	{
; 648  : 		GOURAUD_TRI | GLOW_RAND_POINTS,		 // flags

	mov	DWORD PTR ?gTypeTable@@3PAU_TYPES2D@@A+1280, 526336 ; 00080800H

; 649  : 		1.0f,								// initAlpha

	movss	xmm0, DWORD PTR __real@3f800000
	movss	DWORD PTR ?gTypeTable@@3PAU_TYPES2D@@A+1284, xmm0

; 650  : 		0.0f,								// fadeRate

	movss	xmm0, DWORD PTR __real@00000000
	movss	DWORD PTR ?gTypeTable@@3PAU_TYPES2D@@A+1288, xmm0

; 651  : 		NULL,								// texture id sequence

	mov	DWORD PTR ?gTypeTable@@3PAU_TYPES2D@@A+1292, 0

; 652  : 		0,									// startTexture

	mov	DWORD PTR ?gTypeTable@@3PAU_TYPES2D@@A+1296, 0

; 653  : 		0,									// numTextures

	mov	DWORD PTR ?gTypeTable@@3PAU_TYPES2D@@A+1300, 0

; 654  : 		0.0f,								// expandRate

	movss	xmm0, DWORD PTR __real@00000000
	movss	DWORD PTR ?gTypeTable@@3PAU_TYPES2D@@A+1304, xmm0

; 655  : 		NULL,								// glowVerts

	mov	DWORD PTR ?gTypeTable@@3PAU_TYPES2D@@A+1308, 0

; 656  : 		0,									// numGlowVerts

	mov	DWORD PTR ?gTypeTable@@3PAU_TYPES2D@@A+1312, 0

; 657  : 		10000.0f,							// maxExpand

	movss	xmm0, DWORD PTR __real@461c4000
	movss	DWORD PTR ?gTypeTable@@3PAU_TYPES2D@@A+1316, xmm0

; 658  : 	},
; 659  : 	// LIGHT DEBRIS
; 660  : 	{
; 661  : 		GOURAUD_TRI | GLOW_RAND_POINTS,		 // flags

	mov	DWORD PTR ?gTypeTable@@3PAU_TYPES2D@@A+1320, 526336 ; 00080800H

; 662  : 		1.0f,								// initAlpha

	movss	xmm0, DWORD PTR __real@3f800000
	movss	DWORD PTR ?gTypeTable@@3PAU_TYPES2D@@A+1324, xmm0

; 663  : 		0.0f,								// fadeRate

	movss	xmm0, DWORD PTR __real@00000000
	movss	DWORD PTR ?gTypeTable@@3PAU_TYPES2D@@A+1328, xmm0

; 664  : 		NULL,								// texture id sequence

	mov	DWORD PTR ?gTypeTable@@3PAU_TYPES2D@@A+1332, 0

; 665  : 		0,									// startTexture

	mov	DWORD PTR ?gTypeTable@@3PAU_TYPES2D@@A+1336, 0

; 666  : 		0,									// numTextures

	mov	DWORD PTR ?gTypeTable@@3PAU_TYPES2D@@A+1340, 0

; 667  : 		0.0f,								// expandRate

	movss	xmm0, DWORD PTR __real@00000000
	movss	DWORD PTR ?gTypeTable@@3PAU_TYPES2D@@A+1344, xmm0

; 668  : 		NULL,								// glowVerts

	mov	DWORD PTR ?gTypeTable@@3PAU_TYPES2D@@A+1348, 0

; 669  : 		0,									// numGlowVerts

	mov	DWORD PTR ?gTypeTable@@3PAU_TYPES2D@@A+1352, 0

; 670  : 		10000.0f,							// maxExpand

	movss	xmm0, DWORD PTR __real@461c4000
	movss	DWORD PTR ?gTypeTable@@3PAU_TYPES2D@@A+1356, xmm0

; 671  : 	},
; 672  : 	// Glowing explosion Object Sphere
; 673  : 	{
; 674  : 		GLOW_SPHERE | ALPHA_BRIGHTEN | ALPHA_DAYLIGHT,						// flags

	mov	DWORD PTR ?gTypeTable@@3PAU_TYPES2D@@A+1360, 1049728 ; 00100480H

; 675  : 		0.8f,								// initAlpha

	movss	xmm0, DWORD PTR __real@3f4ccccd
	movss	DWORD PTR ?gTypeTable@@3PAU_TYPES2D@@A+1364, xmm0

; 676  : 		0.0009f,								// fadeRate

	movss	xmm0, DWORD PTR __real@3a6bedfa
	movss	DWORD PTR ?gTypeTable@@3PAU_TYPES2D@@A+1368, xmm0

; 677  : 		NULL,								// texture id sequence

	mov	DWORD PTR ?gTypeTable@@3PAU_TYPES2D@@A+1372, 0

; 678  : 		0, 									// numTextures

	mov	DWORD PTR ?gTypeTable@@3PAU_TYPES2D@@A+1376, 0

; 679  : 		0, 									// numTextures

	mov	DWORD PTR ?gTypeTable@@3PAU_TYPES2D@@A+1380, 0

; 680  : 		10.0f,								// expandRate

	movss	xmm0, DWORD PTR __real@41200000
	movss	DWORD PTR ?gTypeTable@@3PAU_TYPES2D@@A+1384, xmm0

; 681  : 		glowCircleVerts,						// glowVerts

	mov	DWORD PTR ?gTypeTable@@3PAU_TYPES2D@@A+1388, OFFSET ?glowCircleVerts@@3PAUTpoint@@A ; glowCircleVerts

; 682  : 		numGlowCircleVerts,					// numGlowVerts

	mov	edx, DWORD PTR ?numGlowCircleVerts@@3HA	; numGlowCircleVerts
	mov	DWORD PTR ?gTypeTable@@3PAU_TYPES2D@@A+1392, edx

; 683  : 		100.0f,							// maxExpand

	movss	xmm0, DWORD PTR __real@42c80000
	movss	DWORD PTR ?gTypeTable@@3PAU_TYPES2D@@A+1396, xmm0

; 684  : 	},
; 685  : 	// shock ring -- small
; 686  : 	{
; 687  : 		USES_TREE_MATRIX | FADE_START | ANIM_HOLD_LAST,	// flags

	mov	DWORD PTR ?gTypeTable@@3PAU_TYPES2D@@A+1400, 546 ; 00000222H

; 688  : 		0.6f,								// initAlpha

	movss	xmm0, DWORD PTR __real@3f19999a
	movss	DWORD PTR ?gTypeTable@@3PAU_TYPES2D@@A+1404, xmm0

; 689  : 		0.0007f,							// fadeRate

	movss	xmm0, DWORD PTR __real@3a378034
	movss	DWORD PTR ?gTypeTable@@3PAU_TYPES2D@@A+1408, xmm0

; 690  : 		4,

	mov	DWORD PTR ?gTypeTable@@3PAU_TYPES2D@@A+1412, 4

; 691  : 		15,									// startTexture

	mov	DWORD PTR ?gTypeTable@@3PAU_TYPES2D@@A+1416, 15 ; 0000000fH

; 692  : 		1,									// numTextures

	mov	DWORD PTR ?gTypeTable@@3PAU_TYPES2D@@A+1420, 1

; 693  : 		100.0f,								// expandRate

	movss	xmm0, DWORD PTR __real@42c80000
	movss	DWORD PTR ?gTypeTable@@3PAU_TYPES2D@@A+1424, xmm0

; 694  : 		NULL,								// glowVerts

	mov	DWORD PTR ?gTypeTable@@3PAU_TYPES2D@@A+1428, 0

; 695  : 		0,									// numGlowVerts

	mov	DWORD PTR ?gTypeTable@@3PAU_TYPES2D@@A+1432, 0

; 696  : 		10000.0f,							// maxExpand

	movss	xmm0, DWORD PTR __real@461c4000
	movss	DWORD PTR ?gTypeTable@@3PAU_TYPES2D@@A+1436, xmm0

; 697  : 	},
; 698  : 	// fast fading cloud
; 699  : 	{
; 700  : 		ANIM_HALF_RATE | ANIM_LOOP | FADE_START | DO_FIVE_POINTS,		// flags

	mov	DWORD PTR ?gTypeTable@@3PAU_TYPES2D@@A+1440, 2101284 ; 00201024H

; 701  : 		1.0f,								// initAlpha

	movss	xmm0, DWORD PTR __real@3f800000
	movss	DWORD PTR ?gTypeTable@@3PAU_TYPES2D@@A+1444, xmm0

; 702  : 		.0005f,								// fadeRate

	movss	xmm0, DWORD PTR __real@3a03126f
	movss	DWORD PTR ?gTypeTable@@3PAU_TYPES2D@@A+1448, xmm0

; 703  : 		6,

	mov	DWORD PTR ?gTypeTable@@3PAU_TYPES2D@@A+1452, 6

; 704  : 		0,									// startTexture

	mov	DWORD PTR ?gTypeTable@@3PAU_TYPES2D@@A+1456, 0

; 705  : 		8,									// numTextures

	mov	DWORD PTR ?gTypeTable@@3PAU_TYPES2D@@A+1460, 8

; 706  : 		60.0f,								// expandRate

	movss	xmm0, DWORD PTR __real@42700000
	movss	DWORD PTR ?gTypeTable@@3PAU_TYPES2D@@A+1464, xmm0

; 707  : 		NULL,								// glowVerts

	mov	DWORD PTR ?gTypeTable@@3PAU_TYPES2D@@A+1468, 0

; 708  : 		0,									// numGlowVerts

	mov	DWORD PTR ?gTypeTable@@3PAU_TYPES2D@@A+1472, 0

; 709  : 		10000.0f,							// maxExpand

	movss	xmm0, DWORD PTR __real@461c4000
	movss	DWORD PTR ?gTypeTable@@3PAU_TYPES2D@@A+1476, xmm0

; 710  : 	},
; 711  : 	// long hanging smoke 2
; 712  : 	{
; 713  : 		ANIM_LOOP | FADE_START | ALPHA_PER_TEXEL,		// flags

	mov	DWORD PTR ?gTypeTable@@3PAU_TYPES2D@@A+1480, 8388644 ; 00800024H

; 714  : 		0.5f,								// initAlpha

	movss	xmm0, DWORD PTR __real@3f000000
	movss	DWORD PTR ?gTypeTable@@3PAU_TYPES2D@@A+1484, xmm0

; 715  : 		.000015f,								// fadeRate

	movss	xmm0, DWORD PTR __real@377ba882
	movss	DWORD PTR ?gTypeTable@@3PAU_TYPES2D@@A+1488, xmm0

; 716  : 		6,

	mov	DWORD PTR ?gTypeTable@@3PAU_TYPES2D@@A+1492, 6

; 717  : 		12,									// startTexture

	mov	DWORD PTR ?gTypeTable@@3PAU_TYPES2D@@A+1496, 12 ; 0000000cH

; 718  : 		1,									// numTextures

	mov	DWORD PTR ?gTypeTable@@3PAU_TYPES2D@@A+1500, 1

; 719  : 		15.0f,								// expandRate

	movss	xmm0, DWORD PTR __real@41700000
	movss	DWORD PTR ?gTypeTable@@3PAU_TYPES2D@@A+1504, xmm0

; 720  : 		NULL,								// glowVerts

	mov	DWORD PTR ?gTypeTable@@3PAU_TYPES2D@@A+1508, 0

; 721  : 		NUM_EXPLODE_SCATTER_FRAMES,			// numGlowVerts

	mov	DWORD PTR ?gTypeTable@@3PAU_TYPES2D@@A+1512, 1

; 722  : 		500.0f,							// maxExpand

	movss	xmm0, DWORD PTR __real@43fa0000
	movss	DWORD PTR ?gTypeTable@@3PAU_TYPES2D@@A+1516, xmm0

; 723  : 	},
; 724  : 	// FLAME
; 725  : 	{
; 726  : 		ANIM_LOOP | DO_FIVE_POINTS,			// flags

	mov	DWORD PTR ?gTypeTable@@3PAU_TYPES2D@@A+1520, 2097156 ; 00200004H

; 727  : 		0.7f,								// initAlpha

	movss	xmm0, DWORD PTR __real@3f333333
	movss	DWORD PTR ?gTypeTable@@3PAU_TYPES2D@@A+1524, xmm0

; 728  : 		0.0f,								// fadeRate

	movss	xmm0, DWORD PTR __real@00000000
	movss	DWORD PTR ?gTypeTable@@3PAU_TYPES2D@@A+1528, xmm0

; 729  : 		4,

	mov	DWORD PTR ?gTypeTable@@3PAU_TYPES2D@@A+1532, 4

; 730  : 		0,									// startTexture

	mov	DWORD PTR ?gTypeTable@@3PAU_TYPES2D@@A+1536, 0

; 731  : 		8,									// numTextures

	mov	DWORD PTR ?gTypeTable@@3PAU_TYPES2D@@A+1540, 8

; 732  : 		0.0f,								// expandRate

	movss	xmm0, DWORD PTR __real@00000000
	movss	DWORD PTR ?gTypeTable@@3PAU_TYPES2D@@A+1544, xmm0

; 733  : 		NULL,								// glowVerts

	mov	DWORD PTR ?gTypeTable@@3PAU_TYPES2D@@A+1548, 0

; 734  : 		0,									// numGlowVerts

	mov	DWORD PTR ?gTypeTable@@3PAU_TYPES2D@@A+1552, 0

; 735  : 		10000.0f,							// maxExpand

	movss	xmm0, DWORD PTR __real@461c4000
	movss	DWORD PTR ?gTypeTable@@3PAU_TYPES2D@@A+1556, xmm0

; 736  : 	},
; 737  : 	// FIRE EXPANDING
; 738  : 	{
; 739  : 		FADE_START | RAND_START_FRAME | ANIM_LOOP | SEQ_SCATTER_ANIM | FIRE_SCATTER_PLOT | ALPHA_PER_TEXEL,			// flags

	mov	DWORD PTR ?gTypeTable@@3PAU_TYPES2D@@A+1560, 42082340 ; 02822024H

; 740  : 		0.6f,								// initAlpha

	movss	xmm0, DWORD PTR __real@3f19999a
	movss	DWORD PTR ?gTypeTable@@3PAU_TYPES2D@@A+1564, xmm0

; 741  : 		.00045f,								// fadeRate

	movss	xmm0, DWORD PTR __real@39ebedfa
	movss	DWORD PTR ?gTypeTable@@3PAU_TYPES2D@@A+1568, xmm0

; 742  : 		0,

	mov	DWORD PTR ?gTypeTable@@3PAU_TYPES2D@@A+1572, 0

; 743  : 		0,									// startTexture

	mov	DWORD PTR ?gTypeTable@@3PAU_TYPES2D@@A+1576, 0

; 744  : 		6,									// numTextures

	mov	DWORD PTR ?gTypeTable@@3PAU_TYPES2D@@A+1580, 6

; 745  : 		30.0f,								// expandRate

	movss	xmm0, DWORD PTR __real@41f00000
	movss	DWORD PTR ?gTypeTable@@3PAU_TYPES2D@@A+1584, xmm0

; 746  : 		NULL,								// glowVerts

	mov	DWORD PTR ?gTypeTable@@3PAU_TYPES2D@@A+1588, 0

; 747  : 		NUM_FIRE_SCATTER_FRAMES,			// numGlowVerts

	mov	DWORD PTR ?gTypeTable@@3PAU_TYPES2D@@A+1592, 8

; 748  : 		10000.0f,							// maxExpand

	movss	xmm0, DWORD PTR __real@461c4000
	movss	DWORD PTR ?gTypeTable@@3PAU_TYPES2D@@A+1596, xmm0

; 749  : 	},
; 750  : 	// Dustcloud
; 751  : 	{
; 752  : 		ANIM_LOOP | FADE_START | ALPHA_PER_TEXEL,		// flags

	mov	DWORD PTR ?gTypeTable@@3PAU_TYPES2D@@A+1600, 8388644 ; 00800024H

; 753  : 		0.4f,								// initAlpha

	movss	xmm0, DWORD PTR __real@3ecccccd
	movss	DWORD PTR ?gTypeTable@@3PAU_TYPES2D@@A+1604, xmm0

; 754  : 		.00004f,							// fadeRate

	movss	xmm0, DWORD PTR __real@3827c5ac
	movss	DWORD PTR ?gTypeTable@@3PAU_TYPES2D@@A+1608, xmm0

; 755  : 		8,

	mov	DWORD PTR ?gTypeTable@@3PAU_TYPES2D@@A+1612, 8

; 756  : 		13,									// startTexture

	mov	DWORD PTR ?gTypeTable@@3PAU_TYPES2D@@A+1616, 13 ; 0000000dH

; 757  : 		1,									// numTextures

	mov	DWORD PTR ?gTypeTable@@3PAU_TYPES2D@@A+1620, 1

; 758  : 		30.0f,								// expandRate

	movss	xmm0, DWORD PTR __real@41f00000
	movss	DWORD PTR ?gTypeTable@@3PAU_TYPES2D@@A+1624, xmm0

; 759  : 		NULL,								// glowVerts

	mov	DWORD PTR ?gTypeTable@@3PAU_TYPES2D@@A+1628, 0

; 760  : 		1,									// numGlowVerts

	mov	DWORD PTR ?gTypeTable@@3PAU_TYPES2D@@A+1632, 1

; 761  : 		50.0f,								// maxExpand

	movss	xmm0, DWORD PTR __real@42480000
	movss	DWORD PTR ?gTypeTable@@3PAU_TYPES2D@@A+1636, xmm0

; 762  : 	},
; 763  : 	// fire hot
; 764  : 	{
; 765  : 		ANIM_LOOP | SEQ_SCATTER_ANIM | FIRE_SCATTER_PLOT | ALPHA_PER_TEXEL,			// flags

	mov	DWORD PTR ?gTypeTable@@3PAU_TYPES2D@@A+1640, 8527876 ; 00822004H

; 766  : 		0.7f,								// initAlpha

	movss	xmm0, DWORD PTR __real@3f333333
	movss	DWORD PTR ?gTypeTable@@3PAU_TYPES2D@@A+1644, xmm0

; 767  : 		.0009f,								// fadeRate

	movss	xmm0, DWORD PTR __real@3a6bedfa
	movss	DWORD PTR ?gTypeTable@@3PAU_TYPES2D@@A+1648, xmm0

; 768  : 		0,

	mov	DWORD PTR ?gTypeTable@@3PAU_TYPES2D@@A+1652, 0

; 769  : 		0,									// startTexture

	mov	DWORD PTR ?gTypeTable@@3PAU_TYPES2D@@A+1656, 0

; 770  : 		2,									// numTextures

	mov	DWORD PTR ?gTypeTable@@3PAU_TYPES2D@@A+1660, 2

; 771  : 		10.0f,								// expandRate

	movss	xmm0, DWORD PTR __real@41200000
	movss	DWORD PTR ?gTypeTable@@3PAU_TYPES2D@@A+1664, xmm0

; 772  : 		NULL,								// glowVerts

	mov	DWORD PTR ?gTypeTable@@3PAU_TYPES2D@@A+1668, 0

; 773  : 		NUM_FIRE_SCATTER_FRAMES,			// numGlowVerts

	mov	DWORD PTR ?gTypeTable@@3PAU_TYPES2D@@A+1672, 8

; 774  : 		10000.0f,							// maxExpand

	movss	xmm0, DWORD PTR __real@461c4000
	movss	DWORD PTR ?gTypeTable@@3PAU_TYPES2D@@A+1676, xmm0

; 775  : 	},
; 776  : 	// fire med
; 777  : 	{
; 778  : 		ANIM_LOOP | SEQ_SCATTER_ANIM | FIRE_SCATTER_PLOT | ALPHA_PER_TEXEL,			// flags

	mov	DWORD PTR ?gTypeTable@@3PAU_TYPES2D@@A+1680, 8527876 ; 00822004H

; 779  : 		0.6f,								// initAlpha

	movss	xmm0, DWORD PTR __real@3f19999a
	movss	DWORD PTR ?gTypeTable@@3PAU_TYPES2D@@A+1684, xmm0

; 780  : 		.0009f,								// fadeRate

	movss	xmm0, DWORD PTR __real@3a6bedfa
	movss	DWORD PTR ?gTypeTable@@3PAU_TYPES2D@@A+1688, xmm0

; 781  : 		2,

	mov	DWORD PTR ?gTypeTable@@3PAU_TYPES2D@@A+1692, 2

; 782  : 		0,									// startTexture

	mov	DWORD PTR ?gTypeTable@@3PAU_TYPES2D@@A+1696, 0

; 783  : 		2,									// numTextures

	mov	DWORD PTR ?gTypeTable@@3PAU_TYPES2D@@A+1700, 2

; 784  : 		20.0f,								// expandRate

	movss	xmm0, DWORD PTR __real@41a00000
	movss	DWORD PTR ?gTypeTable@@3PAU_TYPES2D@@A+1704, xmm0

; 785  : 		NULL,								// glowVerts

	mov	DWORD PTR ?gTypeTable@@3PAU_TYPES2D@@A+1708, 0

; 786  : 		NUM_FIRE_SCATTER_FRAMES,			// numGlowVerts

	mov	DWORD PTR ?gTypeTable@@3PAU_TYPES2D@@A+1712, 8

; 787  : 		10000.0f,							// maxExpand

	movss	xmm0, DWORD PTR __real@461c4000
	movss	DWORD PTR ?gTypeTable@@3PAU_TYPES2D@@A+1716, xmm0

; 788  : 	},
; 789  : 	// fire cool
; 790  : 	{
; 791  : 		ANIM_LOOP | SEQ_SCATTER_ANIM | FIRE_SCATTER_PLOT | ALPHA_PER_TEXEL,			// flags

	mov	DWORD PTR ?gTypeTable@@3PAU_TYPES2D@@A+1720, 8527876 ; 00822004H

; 792  : 		0.4f,								// initAlpha

	movss	xmm0, DWORD PTR __real@3ecccccd
	movss	DWORD PTR ?gTypeTable@@3PAU_TYPES2D@@A+1724, xmm0

; 793  : 		.0009f,								// fadeRate

	movss	xmm0, DWORD PTR __real@3a6bedfa
	movss	DWORD PTR ?gTypeTable@@3PAU_TYPES2D@@A+1728, xmm0

; 794  : 		4,

	mov	DWORD PTR ?gTypeTable@@3PAU_TYPES2D@@A+1732, 4

; 795  : 		0,									// startTexture

	mov	DWORD PTR ?gTypeTable@@3PAU_TYPES2D@@A+1736, 0

; 796  : 		2,									// numTextures

	mov	DWORD PTR ?gTypeTable@@3PAU_TYPES2D@@A+1740, 2

; 797  : 		30.0f,								// expandRate

	movss	xmm0, DWORD PTR __real@41f00000
	movss	DWORD PTR ?gTypeTable@@3PAU_TYPES2D@@A+1744, xmm0

; 798  : 		NULL,								// glowVerts

	mov	DWORD PTR ?gTypeTable@@3PAU_TYPES2D@@A+1748, 0

; 799  : 		NUM_FIRE_SCATTER_FRAMES,			// numGlowVerts

	mov	DWORD PTR ?gTypeTable@@3PAU_TYPES2D@@A+1752, 8

; 800  : 		10000.0f,							// maxExpand

	movss	xmm0, DWORD PTR __real@461c4000
	movss	DWORD PTR ?gTypeTable@@3PAU_TYPES2D@@A+1756, xmm0

; 801  : 	},
; 802  : 	// fire 1
; 803  : 	{
; 804  : 		FADE_LAST | ANIM_LOOP | SEQ_SCATTER_ANIM | SMOKE_SCATTER_PLOT | ALPHA_PER_TEXEL,			// flags

	mov	DWORD PTR ?gTypeTable@@3PAU_TYPES2D@@A+1760, 8536084 ; 00824014H

; 805  : 		1.0f,								// initAlpha

	movss	xmm0, DWORD PTR __real@3f800000
	movss	DWORD PTR ?gTypeTable@@3PAU_TYPES2D@@A+1764, xmm0

; 806  : 		0.0001f,								// fadeRate

	movss	xmm0, DWORD PTR __real@38d1b717
	movss	DWORD PTR ?gTypeTable@@3PAU_TYPES2D@@A+1768, xmm0

; 807  : 		0,

	mov	DWORD PTR ?gTypeTable@@3PAU_TYPES2D@@A+1772, 0

; 808  : 		0,									// startTexture

	mov	DWORD PTR ?gTypeTable@@3PAU_TYPES2D@@A+1776, 0

; 809  : 		2,									// numTextures

	mov	DWORD PTR ?gTypeTable@@3PAU_TYPES2D@@A+1780, 2

; 810  : 		50.0f,								// expandRate

	movss	xmm0, DWORD PTR __real@42480000
	movss	DWORD PTR ?gTypeTable@@3PAU_TYPES2D@@A+1784, xmm0

; 811  : 		NULL,								// glowVerts

	mov	DWORD PTR ?gTypeTable@@3PAU_TYPES2D@@A+1788, 0

; 812  : 		1,			// numGlowVerts

	mov	DWORD PTR ?gTypeTable@@3PAU_TYPES2D@@A+1792, 1

; 813  : 		120.0f,							// maxExpand

	movss	xmm0, DWORD PTR __real@42f00000
	movss	DWORD PTR ?gTypeTable@@3PAU_TYPES2D@@A+1796, xmm0

; 814  : 	},
; 815  : 	// fire 2
; 816  : 	{
; 817  : 		FADE_START | ANIM_LOOP | SEQ_SCATTER_ANIM | FIRE_SCATTER_PLOT | ALPHA_PER_TEXEL,			// flags

	mov	DWORD PTR ?gTypeTable@@3PAU_TYPES2D@@A+1800, 8527908 ; 00822024H

; 818  : 		0.6f,								// initAlpha

	movss	xmm0, DWORD PTR __real@3f19999a
	movss	DWORD PTR ?gTypeTable@@3PAU_TYPES2D@@A+1804, xmm0

; 819  : 		0.0001f,								// fadeRate

	movss	xmm0, DWORD PTR __real@38d1b717
	movss	DWORD PTR ?gTypeTable@@3PAU_TYPES2D@@A+1808, xmm0

; 820  : 		0,

	mov	DWORD PTR ?gTypeTable@@3PAU_TYPES2D@@A+1812, 0

; 821  : 		0,									// startTexture

	mov	DWORD PTR ?gTypeTable@@3PAU_TYPES2D@@A+1816, 0

; 822  : 		2,									// numTextures

	mov	DWORD PTR ?gTypeTable@@3PAU_TYPES2D@@A+1820, 2

; 823  : 		20.0f,								// expandRate

	movss	xmm0, DWORD PTR __real@41a00000
	movss	DWORD PTR ?gTypeTable@@3PAU_TYPES2D@@A+1824, xmm0

; 824  : 		NULL,								// glowVerts

	mov	DWORD PTR ?gTypeTable@@3PAU_TYPES2D@@A+1828, 0

; 825  : 		NUM_FIRE_SCATTER_FRAMES,			// numGlowVerts

	mov	DWORD PTR ?gTypeTable@@3PAU_TYPES2D@@A+1832, 8

; 826  : 		10000.0f,							// maxExpand

	movss	xmm0, DWORD PTR __real@461c4000
	movss	DWORD PTR ?gTypeTable@@3PAU_TYPES2D@@A+1836, xmm0

; 827  : 	},
; 828  : 	// fire 3
; 829  : 	{
; 830  : 		FADE_START | ANIM_LOOP | SEQ_SCATTER_ANIM | FIRE_SCATTER_PLOT | ALPHA_PER_TEXEL,			// flags

	mov	DWORD PTR ?gTypeTable@@3PAU_TYPES2D@@A+1840, 8527908 ; 00822024H

; 831  : 		0.4f,								// initAlpha

	movss	xmm0, DWORD PTR __real@3ecccccd
	movss	DWORD PTR ?gTypeTable@@3PAU_TYPES2D@@A+1844, xmm0

; 832  : 		0.0001f,								// fadeRate

	movss	xmm0, DWORD PTR __real@38d1b717
	movss	DWORD PTR ?gTypeTable@@3PAU_TYPES2D@@A+1848, xmm0

; 833  : 		2,

	mov	DWORD PTR ?gTypeTable@@3PAU_TYPES2D@@A+1852, 2

; 834  : 		0,									// startTexture

	mov	DWORD PTR ?gTypeTable@@3PAU_TYPES2D@@A+1856, 0

; 835  : 		2,									// numTextures

	mov	DWORD PTR ?gTypeTable@@3PAU_TYPES2D@@A+1860, 2

; 836  : 		10.0f,								// expandRate

	movss	xmm0, DWORD PTR __real@41200000
	movss	DWORD PTR ?gTypeTable@@3PAU_TYPES2D@@A+1864, xmm0

; 837  : 		NULL,								// glowVerts

	mov	DWORD PTR ?gTypeTable@@3PAU_TYPES2D@@A+1868, 0

; 838  : 		NUM_FIRE_SCATTER_FRAMES,			// numGlowVerts

	mov	DWORD PTR ?gTypeTable@@3PAU_TYPES2D@@A+1872, 8

; 839  : 		10000.0f,							// maxExpand

	movss	xmm0, DWORD PTR __real@461c4000
	movss	DWORD PTR ?gTypeTable@@3PAU_TYPES2D@@A+1876, xmm0

; 840  : 	},
; 841  : 	// fire 4
; 842  : 	{
; 843  : 		FADE_START | ANIM_LOOP | SEQ_SCATTER_ANIM | SMOKE_SCATTER_PLOT | ALPHA_PER_TEXEL,			// flags

	mov	DWORD PTR ?gTypeTable@@3PAU_TYPES2D@@A+1880, 8536100 ; 00824024H

; 844  : 		0.9f,								// initAlpha

	movss	xmm0, DWORD PTR __real@3f666666
	movss	DWORD PTR ?gTypeTable@@3PAU_TYPES2D@@A+1884, xmm0

; 845  : 		0.00007f,								// fadeRate

	movss	xmm0, DWORD PTR __real@3892ccf7
	movss	DWORD PTR ?gTypeTable@@3PAU_TYPES2D@@A+1888, xmm0

; 846  : 		0,

	mov	DWORD PTR ?gTypeTable@@3PAU_TYPES2D@@A+1892, 0

; 847  : 		0,									// startTexture

	mov	DWORD PTR ?gTypeTable@@3PAU_TYPES2D@@A+1896, 0

; 848  : 		2,									// numTextures

	mov	DWORD PTR ?gTypeTable@@3PAU_TYPES2D@@A+1900, 2

; 849  : 		30.0f,								// expandRate

	movss	xmm0, DWORD PTR __real@41f00000
	movss	DWORD PTR ?gTypeTable@@3PAU_TYPES2D@@A+1904, xmm0

; 850  : 		NULL,								// glowVerts

	mov	DWORD PTR ?gTypeTable@@3PAU_TYPES2D@@A+1908, 0

; 851  : 		1,									// numGlowVerts

	mov	DWORD PTR ?gTypeTable@@3PAU_TYPES2D@@A+1912, 1

; 852  : 		10000.0f,							// maxExpand

	movss	xmm0, DWORD PTR __real@461c4000
	movss	DWORD PTR ?gTypeTable@@3PAU_TYPES2D@@A+1916, xmm0

; 853  : 	},
; 854  : 	// fire 5
; 855  : 	{
; 856  : 		FADE_START | ANIM_LOOP | SEQ_SCATTER_ANIM | FIRE_SCATTER_PLOT | ALPHA_PER_TEXEL,			// flags

	mov	DWORD PTR ?gTypeTable@@3PAU_TYPES2D@@A+1920, 8527908 ; 00822024H

; 857  : 		0.9f,								// initAlpha

	movss	xmm0, DWORD PTR __real@3f666666
	movss	DWORD PTR ?gTypeTable@@3PAU_TYPES2D@@A+1924, xmm0

; 858  : 		0.00007f,								// fadeRate

	movss	xmm0, DWORD PTR __real@3892ccf7
	movss	DWORD PTR ?gTypeTable@@3PAU_TYPES2D@@A+1928, xmm0

; 859  : 		0,

	mov	DWORD PTR ?gTypeTable@@3PAU_TYPES2D@@A+1932, 0

; 860  : 		0,									// startTexture

	mov	DWORD PTR ?gTypeTable@@3PAU_TYPES2D@@A+1936, 0

; 861  : 		2,									// numTextures

	mov	DWORD PTR ?gTypeTable@@3PAU_TYPES2D@@A+1940, 2

; 862  : 		30.0f,								// expandRate

	movss	xmm0, DWORD PTR __real@41f00000
	movss	DWORD PTR ?gTypeTable@@3PAU_TYPES2D@@A+1944, xmm0

; 863  : 		NULL,								// glowVerts

	mov	DWORD PTR ?gTypeTable@@3PAU_TYPES2D@@A+1948, 0

; 864  : 		1,			// numGlowVerts

	mov	DWORD PTR ?gTypeTable@@3PAU_TYPES2D@@A+1952, 1

; 865  : 		10000.0f,							// maxExpand

	movss	xmm0, DWORD PTR __real@461c4000
	movss	DWORD PTR ?gTypeTable@@3PAU_TYPES2D@@A+1956, xmm0

; 866  : 	},
; 867  : 	// fire 6
; 868  : 	{
; 869  : 		FADE_START | ANIM_LOOP | SEQ_SCATTER_ANIM | FIRE_SCATTER_PLOT | ALPHA_PER_TEXEL,			// flags

	mov	DWORD PTR ?gTypeTable@@3PAU_TYPES2D@@A+1960, 8527908 ; 00822024H

; 870  : 		0.8f,								// initAlpha

	movss	xmm0, DWORD PTR __real@3f4ccccd
	movss	DWORD PTR ?gTypeTable@@3PAU_TYPES2D@@A+1964, xmm0

; 871  : 		0.0001f,								// fadeRate

	movss	xmm0, DWORD PTR __real@38d1b717
	movss	DWORD PTR ?gTypeTable@@3PAU_TYPES2D@@A+1968, xmm0

; 872  : 		0,

	mov	DWORD PTR ?gTypeTable@@3PAU_TYPES2D@@A+1972, 0

; 873  : 		0,									// startTexture

	mov	DWORD PTR ?gTypeTable@@3PAU_TYPES2D@@A+1976, 0

; 874  : 		2,									// numTextures

	mov	DWORD PTR ?gTypeTable@@3PAU_TYPES2D@@A+1980, 2

; 875  : 		3.0f,								// expandRate

	movss	xmm0, DWORD PTR __real@40400000
	movss	DWORD PTR ?gTypeTable@@3PAU_TYPES2D@@A+1984, xmm0

; 876  : 		NULL,								// glowVerts

	mov	DWORD PTR ?gTypeTable@@3PAU_TYPES2D@@A+1988, 0

; 877  : 		NUM_FIRE_SCATTER_FRAMES,			// numGlowVerts

	mov	DWORD PTR ?gTypeTable@@3PAU_TYPES2D@@A+1992, 8

; 878  : 		10000.0f,							// maxExpand

	movss	xmm0, DWORD PTR __real@461c4000
	movss	DWORD PTR ?gTypeTable@@3PAU_TYPES2D@@A+1996, xmm0

; 879  : 	},
; 880  : 	// Fire Smoke
; 881  : 	{
; 882  : 		ANIM_LOOP | FADE_START | ALPHA_PER_TEXEL,				// flags

	mov	DWORD PTR ?gTypeTable@@3PAU_TYPES2D@@A+2000, 8388644 ; 00800024H

; 883  : 		0.9f, // COBRA - RED - a Little More visible: was 0.8f,	// initAlpha

	movss	xmm0, DWORD PTR __real@3f666666
	movss	DWORD PTR ?gTypeTable@@3PAU_TYPES2D@@A+2004, xmm0

; 884  : 		.00005f,												// fadeRate

	movss	xmm0, DWORD PTR __real@3851b717
	movss	DWORD PTR ?gTypeTable@@3PAU_TYPES2D@@A+2008, xmm0

; 885  : 		6,

	mov	DWORD PTR ?gTypeTable@@3PAU_TYPES2D@@A+2012, 6

; 886  : 		12,									// startTexture

	mov	DWORD PTR ?gTypeTable@@3PAU_TYPES2D@@A+2016, 12 ; 0000000cH

; 887  : 		1,									// numTextures

	mov	DWORD PTR ?gTypeTable@@3PAU_TYPES2D@@A+2020, 1

; 888  : 		30.0f,								// expandRate

	movss	xmm0, DWORD PTR __real@41f00000
	movss	DWORD PTR ?gTypeTable@@3PAU_TYPES2D@@A+2024, xmm0

; 889  : 		NULL,								// glowVerts

	mov	DWORD PTR ?gTypeTable@@3PAU_TYPES2D@@A+2028, 0

; 890  : 		NUM_SMOKE_SCATTER_FRAMES,			// numGlowVerts

	mov	DWORD PTR ?gTypeTable@@3PAU_TYPES2D@@A+2032, 1

; 891  : 		300.0f,							// maxExpand

	movss	xmm0, DWORD PTR __real@43960000
	movss	DWORD PTR ?gTypeTable@@3PAU_TYPES2D@@A+2036, xmm0

; 892  : 	},
; 893  : 	// Trail Smoke
; 894  : 	{
; 895  : 		ANIM_LOOP | FADE_START | ALPHA_PER_TEXEL,		// flags

	mov	DWORD PTR ?gTypeTable@@3PAU_TYPES2D@@A+2040, 8388644 ; 00800024H

; 896  : 		1.0f,								// initAlpha

	movss	xmm0, DWORD PTR __real@3f800000
	movss	DWORD PTR ?gTypeTable@@3PAU_TYPES2D@@A+2044, xmm0

; 897  : 		.0002f,								// fadeRate

	movss	xmm0, DWORD PTR __real@3951b717
	movss	DWORD PTR ?gTypeTable@@3PAU_TYPES2D@@A+2048, xmm0

; 898  : 		10,

	mov	DWORD PTR ?gTypeTable@@3PAU_TYPES2D@@A+2052, 10 ; 0000000aH

; 899  : 		12,									// startTexture

	mov	DWORD PTR ?gTypeTable@@3PAU_TYPES2D@@A+2056, 12 ; 0000000cH

; 900  : 		1,									// numTextures

	mov	DWORD PTR ?gTypeTable@@3PAU_TYPES2D@@A+2060, 1

; 901  : 		30.0f,								// expandRate

	movss	xmm0, DWORD PTR __real@41f00000
	movss	DWORD PTR ?gTypeTable@@3PAU_TYPES2D@@A+2064, xmm0

; 902  : 		NULL,								// glowVerts

	mov	DWORD PTR ?gTypeTable@@3PAU_TYPES2D@@A+2068, 0

; 903  : 		NUM_SMOKE_SCATTER_FRAMES,			// numGlowVerts

	mov	DWORD PTR ?gTypeTable@@3PAU_TYPES2D@@A+2072, 1

; 904  : 		40.0f,							// maxExpand

	movss	xmm0, DWORD PTR __real@42200000
	movss	DWORD PTR ?gTypeTable@@3PAU_TYPES2D@@A+2076, xmm0

; 905  : 	},
; 906  : 	// Trail Dust
; 907  : 	{
; 908  : 		ANIM_LOOP | FADE_START | ALPHA_PER_TEXEL,					// flags

	mov	DWORD PTR ?gTypeTable@@3PAU_TYPES2D@@A+2080, 8388644 ; 00800024H

; 909  : 		0.5f, // COBRA - RED - a Little Less visible: was 0.8f,		// initAlpha

	movss	xmm0, DWORD PTR __real@3f000000
	movss	DWORD PTR ?gTypeTable@@3PAU_TYPES2D@@A+2084, xmm0

; 910  : 		.0002f,														// fadeRate

	movss	xmm0, DWORD PTR __real@3951b717
	movss	DWORD PTR ?gTypeTable@@3PAU_TYPES2D@@A+2088, xmm0

; 911  : 		8,

	mov	DWORD PTR ?gTypeTable@@3PAU_TYPES2D@@A+2092, 8

; 912  : 		13,									// startTexture

	mov	DWORD PTR ?gTypeTable@@3PAU_TYPES2D@@A+2096, 13 ; 0000000dH

; 913  : 		1,									// numTextures

	mov	DWORD PTR ?gTypeTable@@3PAU_TYPES2D@@A+2100, 1

; 914  : 		30.0f,								// expandRate

	movss	xmm0, DWORD PTR __real@41f00000
	movss	DWORD PTR ?gTypeTable@@3PAU_TYPES2D@@A+2104, xmm0

; 915  : 		NULL,								// glowVerts

	mov	DWORD PTR ?gTypeTable@@3PAU_TYPES2D@@A+2108, 0

; 916  : 		NUM_SMOKE_SCATTER_FRAMES,			// numGlowVerts

	mov	DWORD PTR ?gTypeTable@@3PAU_TYPES2D@@A+2112, 1

; 917  : 		50.0f,							// maxExpand

	movss	xmm0, DWORD PTR __real@42480000
	movss	DWORD PTR ?gTypeTable@@3PAU_TYPES2D@@A+2116, xmm0

; 918  : 	},
; 919  : 	// fire 7
; 920  : 	{
; 921  : 		ANIM_LOOP | SEQ_SCATTER_ANIM | FIRE_SCATTER_PLOT | ALPHA_PER_TEXEL,			// flags

	mov	DWORD PTR ?gTypeTable@@3PAU_TYPES2D@@A+2120, 8527876 ; 00822004H

; 922  : 		0.15f,								// initAlpha

	movss	xmm0, DWORD PTR __real@3e19999a
	movss	DWORD PTR ?gTypeTable@@3PAU_TYPES2D@@A+2124, xmm0

; 923  : 		0.0001f,								// fadeRate

	movss	xmm0, DWORD PTR __real@38d1b717
	movss	DWORD PTR ?gTypeTable@@3PAU_TYPES2D@@A+2128, xmm0

; 924  : 		6,

	mov	DWORD PTR ?gTypeTable@@3PAU_TYPES2D@@A+2132, 6

; 925  : 		0,									// startTexture

	mov	DWORD PTR ?gTypeTable@@3PAU_TYPES2D@@A+2136, 0

; 926  : 		1,									// numTextures

	mov	DWORD PTR ?gTypeTable@@3PAU_TYPES2D@@A+2140, 1

; 927  : 		40.0f,								// expandRate

	movss	xmm0, DWORD PTR __real@42200000
	movss	DWORD PTR ?gTypeTable@@3PAU_TYPES2D@@A+2144, xmm0

; 928  : 		NULL,								// glowVerts

	mov	DWORD PTR ?gTypeTable@@3PAU_TYPES2D@@A+2148, 0

; 929  : 		NUM_FIRE_SCATTER_FRAMES,			// numGlowVerts

	mov	DWORD PTR ?gTypeTable@@3PAU_TYPES2D@@A+2152, 8

; 930  : 		10000.0f,							// maxExpand

	movss	xmm0, DWORD PTR __real@461c4000
	movss	DWORD PTR ?gTypeTable@@3PAU_TYPES2D@@A+2156, xmm0

; 931  : 	},
; 932  : 	// Blue Cloud
; 933  : 	{
; 934  : 		ANIM_LOOP | FADE_START | ALPHA_PER_TEXEL,		// flags

	mov	DWORD PTR ?gTypeTable@@3PAU_TYPES2D@@A+2160, 8388644 ; 00800024H

; 935  : 		0.6f,								// initAlpha

	movss	xmm0, DWORD PTR __real@3f19999a
	movss	DWORD PTR ?gTypeTable@@3PAU_TYPES2D@@A+2164, xmm0

; 936  : 		.0003f,								// fadeRate

	movss	xmm0, DWORD PTR __real@399d4952
	movss	DWORD PTR ?gTypeTable@@3PAU_TYPES2D@@A+2168, xmm0

; 937  : 		9,

	mov	DWORD PTR ?gTypeTable@@3PAU_TYPES2D@@A+2172, 9

; 938  : 		0,									// startTexture

	mov	DWORD PTR ?gTypeTable@@3PAU_TYPES2D@@A+2176, 0

; 939  : 		1,									// numTextures

	mov	DWORD PTR ?gTypeTable@@3PAU_TYPES2D@@A+2180, 1

; 940  : 		10.0f,								// expandRate

	movss	xmm0, DWORD PTR __real@41200000
	movss	DWORD PTR ?gTypeTable@@3PAU_TYPES2D@@A+2184, xmm0

; 941  : 		NULL,								// glowVerts

	mov	DWORD PTR ?gTypeTable@@3PAU_TYPES2D@@A+2188, 0

; 942  : 		NUM_SMOKE_SCATTER_FRAMES,			// numGlowVerts

	mov	DWORD PTR ?gTypeTable@@3PAU_TYPES2D@@A+2192, 1

; 943  : 		100.0f,							// maxExpand

	movss	xmm0, DWORD PTR __real@42c80000
	movss	DWORD PTR ?gTypeTable@@3PAU_TYPES2D@@A+2196, xmm0

; 944  : 	},
; 945  : 	// STEAM CLOUD
; 946  : 	{
; 947  : 		ANIM_LOOP | FADE_START | ALPHA_PER_TEXEL,		// flags

	mov	DWORD PTR ?gTypeTable@@3PAU_TYPES2D@@A+2200, 8388644 ; 00800024H

; 948  : 		0.8f,								// initAlpha

	movss	xmm0, DWORD PTR __real@3f4ccccd
	movss	DWORD PTR ?gTypeTable@@3PAU_TYPES2D@@A+2204, xmm0

; 949  : 		.00005f,								// fadeRate

	movss	xmm0, DWORD PTR __real@3851b717
	movss	DWORD PTR ?gTypeTable@@3PAU_TYPES2D@@A+2208, xmm0

; 950  : 		7,

	mov	DWORD PTR ?gTypeTable@@3PAU_TYPES2D@@A+2212, 7

; 951  : 		14,									// startTexture

	mov	DWORD PTR ?gTypeTable@@3PAU_TYPES2D@@A+2216, 14 ; 0000000eH

; 952  : 		1,									// numTextures

	mov	DWORD PTR ?gTypeTable@@3PAU_TYPES2D@@A+2220, 1

; 953  : 		40.0f,								// expandRate

	movss	xmm0, DWORD PTR __real@42200000
	movss	DWORD PTR ?gTypeTable@@3PAU_TYPES2D@@A+2224, xmm0

; 954  : 		NULL,								// glowVerts

	mov	DWORD PTR ?gTypeTable@@3PAU_TYPES2D@@A+2228, 0

; 955  : 		NUM_SMOKE_SCATTER_FRAMES,			// numGlowVerts

	mov	DWORD PTR ?gTypeTable@@3PAU_TYPES2D@@A+2232, 1

; 956  : 		400.0f,							// maxExpand

	movss	xmm0, DWORD PTR __real@43c80000
	movss	DWORD PTR ?gTypeTable@@3PAU_TYPES2D@@A+2236, xmm0

; 957  : 	},
; 958  : 	// Ground Flash
; 959  : 	{
; 960  : 		GROUND_GLOW | GLOW_RAND_POINTS | GLOW_SPHERE | ALPHA_BRIGHTEN | ALPHA_DAYLIGHT,						// flags

	mov	DWORD PTR ?gTypeTable@@3PAU_TYPES2D@@A+2240, 68160640 ; 04100c80H

; 961  : 		0.4f,								// initAlpha

	movss	xmm0, DWORD PTR __real@3ecccccd
	movss	DWORD PTR ?gTypeTable@@3PAU_TYPES2D@@A+2244, xmm0

; 962  : 		0.0005f,								// fadeRate

	movss	xmm0, DWORD PTR __real@3a03126f
	movss	DWORD PTR ?gTypeTable@@3PAU_TYPES2D@@A+2248, xmm0

; 963  : 		NULL,								// texture id sequence

	mov	DWORD PTR ?gTypeTable@@3PAU_TYPES2D@@A+2252, 0

; 964  : 		0, 									// numTextures

	mov	DWORD PTR ?gTypeTable@@3PAU_TYPES2D@@A+2256, 0

; 965  : 		0, 									// numTextures

	mov	DWORD PTR ?gTypeTable@@3PAU_TYPES2D@@A+2260, 0

; 966  : 		-170.0f,								// expandRate

	movss	xmm0, DWORD PTR __real@c32a0000
	movss	DWORD PTR ?gTypeTable@@3PAU_TYPES2D@@A+2264, xmm0

; 967  : 		glowCircleVerts,						// glowVerts

	mov	DWORD PTR ?gTypeTable@@3PAU_TYPES2D@@A+2268, OFFSET ?glowCircleVerts@@3PAUTpoint@@A ; glowCircleVerts

; 968  : 		numGlowCircleVerts,					// numGlowVerts

	mov	eax, DWORD PTR ?numGlowCircleVerts@@3HA	; numGlowCircleVerts
	mov	DWORD PTR ?gTypeTable@@3PAU_TYPES2D@@A+2272, eax

; 969  : 		10000.0f,							// maxExpand

	movss	xmm0, DWORD PTR __real@461c4000
	movss	DWORD PTR ?gTypeTable@@3PAU_TYPES2D@@A+2276, xmm0

; 970  : 	},
; 971  : 	// Ground Glow
; 972  : 	{
; 973  : 		GROUND_GLOW | GLOW_RAND_POINTS | GLOW_SPHERE | ALPHA_BRIGHTEN | ALPHA_DAYLIGHT,						// flags

	mov	DWORD PTR ?gTypeTable@@3PAU_TYPES2D@@A+2280, 68160640 ; 04100c80H

; 974  : 		0.2f,								// initAlpha

	movss	xmm0, DWORD PTR __real@3e4ccccd
	movss	DWORD PTR ?gTypeTable@@3PAU_TYPES2D@@A+2284, xmm0

; 975  : 		0.0f,								// fadeRate

	movss	xmm0, DWORD PTR __real@00000000
	movss	DWORD PTR ?gTypeTable@@3PAU_TYPES2D@@A+2288, xmm0

; 976  : 		NULL,								// texture id sequence

	mov	DWORD PTR ?gTypeTable@@3PAU_TYPES2D@@A+2292, 0

; 977  : 		0, 									// numTextures

	mov	DWORD PTR ?gTypeTable@@3PAU_TYPES2D@@A+2296, 0

; 978  : 		0, 									// numTextures

	mov	DWORD PTR ?gTypeTable@@3PAU_TYPES2D@@A+2300, 0

; 979  : 		0.0f,								// expandRate

	movss	xmm0, DWORD PTR __real@00000000
	movss	DWORD PTR ?gTypeTable@@3PAU_TYPES2D@@A+2304, xmm0

; 980  : 		glowCircleVerts,						// glowVerts

	mov	DWORD PTR ?gTypeTable@@3PAU_TYPES2D@@A+2308, OFFSET ?glowCircleVerts@@3PAUTpoint@@A ; glowCircleVerts

; 981  : 		numGlowCircleVerts,					// numGlowVerts

	mov	ecx, DWORD PTR ?numGlowCircleVerts@@3HA	; numGlowCircleVerts
	mov	DWORD PTR ?gTypeTable@@3PAU_TYPES2D@@A+2312, ecx

; 982  : 		10000.0f,							// maxExpand

	movss	xmm0, DWORD PTR __real@461c4000
	movss	DWORD PTR ?gTypeTable@@3PAU_TYPES2D@@A+2316, xmm0

; 983  : 	},
; 984  : 	// Missile Ground Glow
; 985  : 	{
; 986  : 		GROUND_GLOW | GLOW_RAND_POINTS | GLOW_SPHERE | ALPHA_BRIGHTEN | ALPHA_DAYLIGHT,						// flags

	mov	DWORD PTR ?gTypeTable@@3PAU_TYPES2D@@A+2320, 68160640 ; 04100c80H

; 987  : 		0.2f,								// initAlpha

	movss	xmm0, DWORD PTR __real@3e4ccccd
	movss	DWORD PTR ?gTypeTable@@3PAU_TYPES2D@@A+2324, xmm0

; 988  : 		0.0f,								// fadeRate

	movss	xmm0, DWORD PTR __real@00000000
	movss	DWORD PTR ?gTypeTable@@3PAU_TYPES2D@@A+2328, xmm0

; 989  : 		NULL,								// texture id sequence

	mov	DWORD PTR ?gTypeTable@@3PAU_TYPES2D@@A+2332, 0

; 990  : 		0, 									// numTextures

	mov	DWORD PTR ?gTypeTable@@3PAU_TYPES2D@@A+2336, 0

; 991  : 		0, 									// numTextures

	mov	DWORD PTR ?gTypeTable@@3PAU_TYPES2D@@A+2340, 0

; 992  : 		0.0f,								// expandRate

	movss	xmm0, DWORD PTR __real@00000000
	movss	DWORD PTR ?gTypeTable@@3PAU_TYPES2D@@A+2344, xmm0

; 993  : 		glowCircleVerts,						// glowVerts

	mov	DWORD PTR ?gTypeTable@@3PAU_TYPES2D@@A+2348, OFFSET ?glowCircleVerts@@3PAUTpoint@@A ; glowCircleVerts

; 994  : 		numGlowCircleVerts,					// numGlowVerts

	mov	edx, DWORD PTR ?numGlowCircleVerts@@3HA	; numGlowCircleVerts
	mov	DWORD PTR ?gTypeTable@@3PAU_TYPES2D@@A+2352, edx

; 995  : 		10000.0f,							// maxExpand

	movss	xmm0, DWORD PTR __real@461c4000
	movss	DWORD PTR ?gTypeTable@@3PAU_TYPES2D@@A+2356, xmm0

; 996  : 	},
; 997  : 	// Big Smoke 1
; 998  : 	{
; 999  : 		ANIM_LOOP | FADE_START | ALPHA_PER_TEXEL,		// flags

	mov	DWORD PTR ?gTypeTable@@3PAU_TYPES2D@@A+2360, 8388644 ; 00800024H

; 1000 : 		1.0f,								// initAlpha

	movss	xmm0, DWORD PTR __real@3f800000
	movss	DWORD PTR ?gTypeTable@@3PAU_TYPES2D@@A+2364, xmm0

; 1001 : 		.00005f,								// fadeRate

	movss	xmm0, DWORD PTR __real@3851b717
	movss	DWORD PTR ?gTypeTable@@3PAU_TYPES2D@@A+2368, xmm0

; 1002 : 		10,

	mov	DWORD PTR ?gTypeTable@@3PAU_TYPES2D@@A+2372, 10 ; 0000000aH

; 1003 : 		12,									// startTexture

	mov	DWORD PTR ?gTypeTable@@3PAU_TYPES2D@@A+2376, 12 ; 0000000cH

; 1004 : 		1,									// numTextures

	mov	DWORD PTR ?gTypeTable@@3PAU_TYPES2D@@A+2380, 1

; 1005 : 		20.0f,								// expandRate

	movss	xmm0, DWORD PTR __real@41a00000
	movss	DWORD PTR ?gTypeTable@@3PAU_TYPES2D@@A+2384, xmm0

; 1006 : 		NULL,								// glowVerts

	mov	DWORD PTR ?gTypeTable@@3PAU_TYPES2D@@A+2388, 0

; 1007 : 		0,			// numGlowVerts

	mov	DWORD PTR ?gTypeTable@@3PAU_TYPES2D@@A+2392, 0

; 1008 : 		30000.0f,							// maxExpand

	movss	xmm0, DWORD PTR __real@46ea6000
	movss	DWORD PTR ?gTypeTable@@3PAU_TYPES2D@@A+2396, xmm0

; 1009 : 	},
; 1010 : 	// Big Smoke 2
; 1011 : 	{
; 1012 : 		ANIM_LOOP | FADE_START | ALPHA_PER_TEXEL,		// flags

	mov	DWORD PTR ?gTypeTable@@3PAU_TYPES2D@@A+2400, 8388644 ; 00800024H

; 1013 : 		1.0f,								// initAlpha

	movss	xmm0, DWORD PTR __real@3f800000
	movss	DWORD PTR ?gTypeTable@@3PAU_TYPES2D@@A+2404, xmm0

; 1014 : 		.00005f,								// fadeRate

	movss	xmm0, DWORD PTR __real@3851b717
	movss	DWORD PTR ?gTypeTable@@3PAU_TYPES2D@@A+2408, xmm0

; 1015 : 		6,

	mov	DWORD PTR ?gTypeTable@@3PAU_TYPES2D@@A+2412, 6

; 1016 : 		12,									// startTexture

	mov	DWORD PTR ?gTypeTable@@3PAU_TYPES2D@@A+2416, 12 ; 0000000cH

; 1017 : 		1,									// numTextures

	mov	DWORD PTR ?gTypeTable@@3PAU_TYPES2D@@A+2420, 1

; 1018 : 		20.0f,								// expandRate

	movss	xmm0, DWORD PTR __real@41a00000
	movss	DWORD PTR ?gTypeTable@@3PAU_TYPES2D@@A+2424, xmm0

; 1019 : 		NULL,								// glowVerts

	mov	DWORD PTR ?gTypeTable@@3PAU_TYPES2D@@A+2428, 0

; 1020 : 		NUM_SMOKE_SCATTER_FRAMES,			// numGlowVerts

	mov	DWORD PTR ?gTypeTable@@3PAU_TYPES2D@@A+2432, 1

; 1021 : 		30000.0f,							// maxExpand

	movss	xmm0, DWORD PTR __real@46ea6000
	movss	DWORD PTR ?gTypeTable@@3PAU_TYPES2D@@A+2436, xmm0

; 1022 : 	},
; 1023 : 	// Big Dust 1
; 1024 : 	{
; 1025 : 		ANIM_LOOP | FADE_START | ALPHA_PER_TEXEL,		// flags

	mov	DWORD PTR ?gTypeTable@@3PAU_TYPES2D@@A+2440, 8388644 ; 00800024H

; 1026 : 		1.0f,								// initAlpha

	movss	xmm0, DWORD PTR __real@3f800000
	movss	DWORD PTR ?gTypeTable@@3PAU_TYPES2D@@A+2444, xmm0

; 1027 : 		.00006f,							// fadeRate

	movss	xmm0, DWORD PTR __real@387ba882
	movss	DWORD PTR ?gTypeTable@@3PAU_TYPES2D@@A+2448, xmm0

; 1028 : 		8,

	mov	DWORD PTR ?gTypeTable@@3PAU_TYPES2D@@A+2452, 8

; 1029 : 		13,									// startTexture

	mov	DWORD PTR ?gTypeTable@@3PAU_TYPES2D@@A+2456, 13 ; 0000000dH

; 1030 : 		1,									// numTextures

	mov	DWORD PTR ?gTypeTable@@3PAU_TYPES2D@@A+2460, 1

; 1031 : 		20.0f,								// expandRate

	movss	xmm0, DWORD PTR __real@41a00000
	movss	DWORD PTR ?gTypeTable@@3PAU_TYPES2D@@A+2464, xmm0

; 1032 : 		NULL,								// glowVerts

	mov	DWORD PTR ?gTypeTable@@3PAU_TYPES2D@@A+2468, 0

; 1033 : 		NUM_SMOKE_SCATTER_FRAMES,			// numGlowVerts

	mov	DWORD PTR ?gTypeTable@@3PAU_TYPES2D@@A+2472, 1

; 1034 : 		30000.0f,							// maxExpand

	movss	xmm0, DWORD PTR __real@46ea6000
	movss	DWORD PTR ?gTypeTable@@3PAU_TYPES2D@@A+2476, xmm0

; 1035 : 	},
; 1036 : 	// Incendiary Explosion 
; 1037 : 	{
; 1038 : 		FADE_START | ANIM_LOOP | ANIM_HALF_RATE | EXPLODE_SCATTER_PLOT | ANIM_NO_CLAMP,							// flags

	mov	DWORD PTR ?gTypeTable@@3PAU_TYPES2D@@A+2480, 331812 ; 00051024H

; 1039 : 		1.0f,								// initAlpha

	movss	xmm0, DWORD PTR __real@3f800000
	movss	DWORD PTR ?gTypeTable@@3PAU_TYPES2D@@A+2484, xmm0

; 1040 : 		0.0001f,								// fadeRate

	movss	xmm0, DWORD PTR __real@38d1b717
	movss	DWORD PTR ?gTypeTable@@3PAU_TYPES2D@@A+2488, xmm0

; 1041 : 		1,

	mov	DWORD PTR ?gTypeTable@@3PAU_TYPES2D@@A+2492, 1

; 1042 : 		0,									// startTexture

	mov	DWORD PTR ?gTypeTable@@3PAU_TYPES2D@@A+2496, 0

; 1043 : 		16,									// numTextures

	mov	DWORD PTR ?gTypeTable@@3PAU_TYPES2D@@A+2500, 16 ; 00000010H

; 1044 : 		80.0f,								// expandRate

	movss	xmm0, DWORD PTR __real@42a00000
	movss	DWORD PTR ?gTypeTable@@3PAU_TYPES2D@@A+2504, xmm0

; 1045 : 		NULL,								// glowVerts

	mov	DWORD PTR ?gTypeTable@@3PAU_TYPES2D@@A+2508, 0

; 1046 : 		NUM_EXPLODE_SCATTER_FRAMES,									// numGlowVerts

	mov	DWORD PTR ?gTypeTable@@3PAU_TYPES2D@@A+2512, 1

; 1047 : 		10000.0f,							// maxExpand

	movss	xmm0, DWORD PTR __real@461c4000
	movss	DWORD PTR ?gTypeTable@@3PAU_TYPES2D@@A+2516, xmm0

; 1048 : 	},
; 1049 : 		// Water Wake
; 1050 : 	{
; 1051 : 		ANIM_LOOP | FADE_START | ALPHA_PER_TEXEL,		// flags

	mov	DWORD PTR ?gTypeTable@@3PAU_TYPES2D@@A+2520, 8388644 ; 00800024H

; 1052 : 		0.6f,								// initAlpha

	movss	xmm0, DWORD PTR __real@3f19999a
	movss	DWORD PTR ?gTypeTable@@3PAU_TYPES2D@@A+2524, xmm0

; 1053 : 		0.00001f,								// fadeRate

	movss	xmm0, DWORD PTR __real@3727c5ac
	movss	DWORD PTR ?gTypeTable@@3PAU_TYPES2D@@A+2528, xmm0

; 1054 : 		7,									// texid

	mov	DWORD PTR ?gTypeTable@@3PAU_TYPES2D@@A+2532, 7

; 1055 : 		14,									// startTexture

	mov	DWORD PTR ?gTypeTable@@3PAU_TYPES2D@@A+2536, 14 ; 0000000eH

; 1056 : 		1,									// numTextures

	mov	DWORD PTR ?gTypeTable@@3PAU_TYPES2D@@A+2540, 1

; 1057 : 		10.0f,								// expandRate

	movss	xmm0, DWORD PTR __real@41200000
	movss	DWORD PTR ?gTypeTable@@3PAU_TYPES2D@@A+2544, xmm0

; 1058 : 		NULL,								// glowVerts

	mov	DWORD PTR ?gTypeTable@@3PAU_TYPES2D@@A+2548, 0

; 1059 : 		NUM_SMOKE_SCATTER_FRAMES,			// numGlowVerts

	mov	DWORD PTR ?gTypeTable@@3PAU_TYPES2D@@A+2552, 1

; 1060 : 		100.0f,							// maxExpand

	movss	xmm0, DWORD PTR __real@42c80000
	movss	DWORD PTR ?gTypeTable@@3PAU_TYPES2D@@A+2556, xmm0

; 1061 : 	},
; 1062 : 
; 1063 : };

	pop	ebp
	ret	0
??__EgTypeTable@@YAXXZ ENDP				; `dynamic initializer for 'gTypeTable''
text$yc	ENDS
; Function compile flags: /Odtp
;	COMDAT ??__FgAplTexturesGreen@@YAXXZ
text$yd	SEGMENT
??__FgAplTexturesGreen@@YAXXZ PROC			; `dynamic atexit destructor for 'gAplTexturesGreen'', COMDAT
	push	ebp
	mov	ebp, esp
	push	OFFSET ??1Texture@@QAE@XZ		; Texture::~Texture
	push	11					; 0000000bH
	push	24					; 00000018H
	push	OFFSET ?gAplTexturesGreen@@3PAVTexture@@A ; gAplTexturesGreen
	call	??_M@YGXPAXIHP6EX0@Z@Z
	pop	ebp
	ret	0
??__FgAplTexturesGreen@@YAXXZ ENDP			; `dynamic atexit destructor for 'gAplTexturesGreen''
text$yd	ENDS
; Function compile flags: /Odtp
; File c:\users\zhitao li\documents\visual studio 2012\projects\freefalcon\graphics\objects\draw2d.cpp
;	COMDAT ??__EgAplTexturesGreen@@YAXXZ
text$yc	SEGMENT
??__EgAplTexturesGreen@@YAXXZ PROC			; `dynamic initializer for 'gAplTexturesGreen'', COMDAT

; 50   : Texture		gAplTexturesGreen[NUM_APL_TEXTURES];

	push	ebp
	mov	ebp, esp
	push	OFFSET ??1Texture@@QAE@XZ		; Texture::~Texture
	push	OFFSET ??0Texture@@QAE@XZ		; Texture::Texture
	push	11					; 0000000bH
	push	24					; 00000018H
	push	OFFSET ?gAplTexturesGreen@@3PAVTexture@@A ; gAplTexturesGreen
	call	??_L@YGXPAXIHP6EX0@Z1@Z
	push	OFFSET ??__FgAplTexturesGreen@@YAXXZ	; `dynamic atexit destructor for 'gAplTexturesGreen''
	call	_atexit
	add	esp, 4
	pop	ebp
	ret	0
??__EgAplTexturesGreen@@YAXXZ ENDP			; `dynamic initializer for 'gAplTexturesGreen''
text$yc	ENDS
; Function compile flags: /Odtp
;	COMDAT ??__FgAplTextures@@YAXXZ
text$yd	SEGMENT
??__FgAplTextures@@YAXXZ PROC				; `dynamic atexit destructor for 'gAplTextures'', COMDAT
	push	ebp
	mov	ebp, esp
	push	OFFSET ??1Texture@@QAE@XZ		; Texture::~Texture
	push	11					; 0000000bH
	push	24					; 00000018H
	push	OFFSET ?gAplTextures@@3PAVTexture@@A	; gAplTextures
	call	??_M@YGXPAXIHP6EX0@Z@Z
	pop	ebp
	ret	0
??__FgAplTextures@@YAXXZ ENDP				; `dynamic atexit destructor for 'gAplTextures''
text$yd	ENDS
; Function compile flags: /Odtp
; File c:\users\zhitao li\documents\visual studio 2012\projects\freefalcon\graphics\objects\draw2d.cpp
;	COMDAT ??__EgAplTextures@@YAXXZ
text$yc	SEGMENT
??__EgAplTextures@@YAXXZ PROC				; `dynamic initializer for 'gAplTextures'', COMDAT

; 49   : Texture		gAplTextures[NUM_APL_TEXTURES];

	push	ebp
	mov	ebp, esp
	push	OFFSET ??1Texture@@QAE@XZ		; Texture::~Texture
	push	OFFSET ??0Texture@@QAE@XZ		; Texture::Texture
	push	11					; 0000000bH
	push	24					; 00000018H
	push	OFFSET ?gAplTextures@@3PAVTexture@@A	; gAplTextures
	call	??_L@YGXPAXIHP6EX0@Z1@Z
	push	OFFSET ??__FgAplTextures@@YAXXZ		; `dynamic atexit destructor for 'gAplTextures''
	call	_atexit
	add	esp, 4
	pop	ebp
	ret	0
??__EgAplTextures@@YAXXZ ENDP				; `dynamic initializer for 'gAplTextures''
text$yc	ENDS
; Function compile flags: /Odtp
;	COMDAT ??__FgGlobTextures@@YAXXZ
text$yd	SEGMENT
??__FgGlobTextures@@YAXXZ PROC				; `dynamic atexit destructor for 'gGlobTextures'', COMDAT
	push	ebp
	mov	ebp, esp
	push	OFFSET ??1Texture@@QAE@XZ		; Texture::~Texture
	push	32					; 00000020H
	push	24					; 00000018H
	push	OFFSET ?gGlobTextures@@3PAVTexture@@A	; gGlobTextures
	call	??_M@YGXPAXIHP6EX0@Z@Z
	pop	ebp
	ret	0
??__FgGlobTextures@@YAXXZ ENDP				; `dynamic atexit destructor for 'gGlobTextures''
text$yd	ENDS
; Function compile flags: /Odtp
; File c:\users\zhitao li\documents\visual studio 2012\projects\freefalcon\graphics\objects\draw2d.cpp
;	COMDAT ??__EgGlobTextures@@YAXXZ
text$yc	SEGMENT
??__EgGlobTextures@@YAXXZ PROC				; `dynamic initializer for 'gGlobTextures'', COMDAT

; 45   : Texture gGlobTextures[NUM_TEX_SHEETS];

	push	ebp
	mov	ebp, esp
	push	OFFSET ??1Texture@@QAE@XZ		; Texture::~Texture
	push	OFFSET ??0Texture@@QAE@XZ		; Texture::Texture
	push	32					; 00000020H
	push	24					; 00000018H
	push	OFFSET ?gGlobTextures@@3PAVTexture@@A	; gGlobTextures
	call	??_L@YGXPAXIHP6EX0@Z1@Z
	push	OFFSET ??__FgGlobTextures@@YAXXZ	; `dynamic atexit destructor for 'gGlobTextures''
	call	_atexit
	add	esp, 4
	pop	ebp
	ret	0
??__EgGlobTextures@@YAXXZ ENDP				; `dynamic initializer for 'gGlobTextures''
text$yc	ENDS
; Function compile flags: /Odtp
; File c:\users\zhitao li\documents\visual studio 2012\projects\freefalcon\graphics\include\realweather.h
;	COMDAT ?UnderOvercast@RealWeather@@QAE_NXZ
_TEXT	SEGMENT
_this$ = -4						; size = 4
?UnderOvercast@RealWeather@@QAE_NXZ PROC		; RealWeather::UnderOvercast, COMDAT
; _this$ = ecx

; 150  : 	bool	UnderOvercast() { return UnderOVCST; }

	push	ebp
	mov	ebp, esp
	push	ecx
	mov	DWORD PTR _this$[ebp], ecx
	mov	eax, DWORD PTR _this$[ebp]
	mov	al, BYTE PTR [eax+15996]
	mov	esp, ebp
	pop	ebp
	ret	0
?UnderOvercast@RealWeather@@QAE_NXZ ENDP		; RealWeather::UnderOvercast
_TEXT	ENDS
; Function compile flags: /Odtp
; File c:\users\zhitao li\documents\visual studio 2012\projects\freefalcon\graphics\include\realweather.h
;	COMDAT ?InsideOvercast@RealWeather@@QAE_NXZ
_TEXT	SEGMENT
_this$ = -4						; size = 4
?InsideOvercast@RealWeather@@QAE_NXZ PROC		; RealWeather::InsideOvercast, COMDAT
; _this$ = ecx

; 149  : 	bool	InsideOvercast() { return InsideOVCST; }

	push	ebp
	mov	ebp, esp
	push	ecx
	mov	DWORD PTR _this$[ebp], ecx
	mov	eax, DWORD PTR _this$[ebp]
	mov	al, BYTE PTR [eax+15998]
	mov	esp, ebp
	pop	ebp
	ret	0
?InsideOvercast@RealWeather@@QAE_NXZ ENDP		; RealWeather::InsideOvercast
_TEXT	ENDS
; Function compile flags: /Odtp
; File c:\users\zhitao li\documents\visual studio 2012\projects\freefalcon\fastmath.h
;	COMDAT ?F_I32@@YAKM@Z
_TEXT	SEGMENT
_r$ = -4						; size = 4
_x$ = 8							; size = 4
?F_I32@@YAKM@Z PROC					; F_I32, COMDAT

; 7    : {	DWORD	r;

	push	ebp
	mov	ebp, esp
	push	ecx

; 8    : 	_asm{ 
; 9    : 			fld		x

	fld	DWORD PTR _x$[ebp]

; 10   : 			fistp	r

	fistp	DWORD PTR _r$[ebp]

; 11   : 	}
; 12   : 	return r;

	mov	eax, DWORD PTR _r$[ebp]

; 13   : }

	mov	esp, ebp
	pop	ebp
	ret	0
?F_I32@@YAKM@Z ENDP					; F_I32
_TEXT	ENDS
; Function compile flags: /Odtp
; File c:\users\zhitao li\documents\visual studio 2012\projects\freefalcon\graphics\objects\draw2d.cpp
_TEXT	SEGMENT
tv691 = -364						; size = 4
tv623 = -360						; size = 4
_iradius$ = -356					; size = 4
_i$ = -352						; size = 4
_radius$ = -348						; size = 4
_gif$ = -341						; size = 1
_vLasti$ = -340						; size = 52
_vLast$ = -288						; size = 52
_v3$ = -236						; size = 52
_v2$ = -184						; size = 52
_v1$ = -132						; size = 52
_v0$ = -80						; size = 52
_os$ = -28						; size = 12
_center$ = -16						; size = 12
__$ArrayPad$ = -4					; size = 4
_renderer$ = 8						; size = 4
_cntr$ = 12						; size = 4
_dist$ = 16						; size = 4
_alpha$ = 20						; size = 4
?Draw2DSunGlowEffect@@YAXPAVRenderOTW@@PAUTpoint@@MM@Z PROC ; Draw2DSunGlowEffect

; 2840 : {

	push	ebp
	mov	ebp, esp
	sub	esp, 364				; 0000016cH
	mov	eax, DWORD PTR ___security_cookie
	xor	eax, ebp
	mov	DWORD PTR __$ArrayPad$[ebp], eax
	push	esi
	push	edi

; 2841 : 	Tpoint				center, os;
; 2842 : 	ThreeDVertex		v0, v1, v2, v3, vLast, vLasti;
; 2843 : 	int					i;
; 2844 : 	float				radius, iradius;
; 2845 : 	bool gif = false;

	mov	BYTE PTR _gif$[ebp], 0

; 2846 : 	
; 2847 : //	if ( !renderer->GetAlphaMode() )
; 2848 : //		return;
; 2849 : 
; 2850 : 	if ( alpha < 0.0001 )

	cvtss2sd xmm0, DWORD PTR _alpha$[ebp]
	movsd	xmm1, QWORD PTR __real@3f1a36e2eb1c432d
	comisd	xmm1, xmm0
	jbe	SHORT $LN10@Draw2DSunG

; 2851 : 		return;

	jmp	$LN11@Draw2DSunG
$LN10@Draw2DSunG:

; 2852 : 
; 2853 : 	center = *cntr;

	mov	eax, DWORD PTR _cntr$[ebp]
	mov	ecx, DWORD PTR [eax]
	mov	DWORD PTR _center$[ebp], ecx
	mov	edx, DWORD PTR [eax+4]
	mov	DWORD PTR _center$[ebp+4], edx
	mov	eax, DWORD PTR [eax+8]
	mov	DWORD PTR _center$[ebp+8], eax

; 2854 : 
; 2855 : 
; 2856 : 	center.x *= dist * 0.30f;

	movss	xmm0, DWORD PTR _dist$[ebp]
	mulss	xmm0, DWORD PTR __real@3e99999a
	mulss	xmm0, DWORD PTR _center$[ebp]
	movss	DWORD PTR _center$[ebp], xmm0

; 2857 : 	center.y *= dist * 0.30f;

	movss	xmm0, DWORD PTR _dist$[ebp]
	mulss	xmm0, DWORD PTR __real@3e99999a
	mulss	xmm0, DWORD PTR _center$[ebp+4]
	movss	DWORD PTR _center$[ebp+4], xmm0

; 2858 : 	center.z *= dist * 0.30f;

	movss	xmm0, DWORD PTR _dist$[ebp]
	mulss	xmm0, DWORD PTR __real@3e99999a
	mulss	xmm0, DWORD PTR _center$[ebp+8]
	movss	DWORD PTR _center$[ebp+8], xmm0

; 2859 : 
; 2860 : 	v0.r = 1.0f;

	movss	xmm0, DWORD PTR __real@3f800000
	movss	DWORD PTR _v0$[ebp+8], xmm0

; 2861 : 	v0.g = 1.0f;

	movss	xmm0, DWORD PTR __real@3f800000
	movss	DWORD PTR _v0$[ebp+12], xmm0

; 2862 : 	v0.b = 1.0f;

	movss	xmm0, DWORD PTR __real@3f800000
	movss	DWORD PTR _v0$[ebp+16], xmm0

; 2863 : 	v1.r = 1.0f;

	movss	xmm0, DWORD PTR __real@3f800000
	movss	DWORD PTR _v1$[ebp+8], xmm0

; 2864 : 	v1.g = 1.0f;

	movss	xmm0, DWORD PTR __real@3f800000
	movss	DWORD PTR _v1$[ebp+12], xmm0

; 2865 : 	v1.b = 1.0f;

	movss	xmm0, DWORD PTR __real@3f800000
	movss	DWORD PTR _v1$[ebp+16], xmm0

; 2866 : 	v2.r = 1.0f;

	movss	xmm0, DWORD PTR __real@3f800000
	movss	DWORD PTR _v2$[ebp+8], xmm0

; 2867 : 	v2.g = 1.0f;

	movss	xmm0, DWORD PTR __real@3f800000
	movss	DWORD PTR _v2$[ebp+12], xmm0

; 2868 : 	v2.b = 1.0f;

	movss	xmm0, DWORD PTR __real@3f800000
	movss	DWORD PTR _v2$[ebp+16], xmm0

; 2869 : 
; 2870 : 	/*
; 2871 : 	v1.r = 0.4f + NRANDPOS * 0.6f;
; 2872 : 	v1.g = 1.0f;
; 2873 : 	v1.b = 0.4f + NRANDPOS * 0.6f;
; 2874 : 
; 2875 : 	v2.r = 0.4f + NRANDPOS * 0.6f;
; 2876 : 	v2.g = 1.0f;
; 2877 : 	v2.b = 0.4f + NRANDPOS * 0.6f;
; 2878 : 	*/
; 2879 : 
; 2880 : 	v0.q = v1.q = v2.q = vLast.q = 0.0f;

	movss	xmm0, DWORD PTR __real@00000000
	movss	DWORD PTR _vLast$[ebp+32], xmm0
	movss	xmm0, DWORD PTR _vLast$[ebp+32]
	movss	DWORD PTR _v2$[ebp+32], xmm0
	movss	xmm0, DWORD PTR _v2$[ebp+32]
	movss	DWORD PTR _v1$[ebp+32], xmm0
	movss	xmm0, DWORD PTR _v1$[ebp+32]
	movss	DWORD PTR _v0$[ebp+32], xmm0

; 2881 : 
; 2882 : 	// Set up our drawing mode
; 2883 : 	renderer->context.RestoreState(STATE_ALPHA_GOURAUD);

	push	18					; 00000012H
	mov	ecx, DWORD PTR _renderer$[ebp]
	add	ecx, 100				; 00000064H
	call	?RestoreState@ContextMPR@@QAEXH@Z	; ContextMPR::RestoreState

; 2884 : 	renderer->context.SetState(MPR_STA_ALPHA_OP_FUNCTION,MPR_TO_MODULATE); //JAM 18Oct03

	push	4
	push	5
	mov	ecx, DWORD PTR _renderer$[ebp]
	add	ecx, 100				; 00000064H
	call	?SetState@ContextMPR@@QAEXGK@Z		; ContextMPR::SetState

; 2885 : 
; 2886 : 	// set alphas for this circle
; 2887 : 	v0.a = v1.a = v2.a = vLast.a = 0.0f;

	movss	xmm0, DWORD PTR __real@00000000
	movss	DWORD PTR _vLast$[ebp+20], xmm0
	movss	xmm0, DWORD PTR _vLast$[ebp+20]
	movss	DWORD PTR _v2$[ebp+20], xmm0
	movss	xmm0, DWORD PTR _v2$[ebp+20]
	movss	DWORD PTR _v1$[ebp+20], xmm0
	movss	xmm0, DWORD PTR _v1$[ebp+20]
	movss	DWORD PTR _v0$[ebp+20], xmm0

; 2888 : 
; 2889 : 	// clear center?
; 2890 : 	v0.a = alpha;

	movss	xmm0, DWORD PTR _alpha$[ebp]
	movss	DWORD PTR _v0$[ebp+20], xmm0

; 2891 : 
; 2892 : 	// set radius for this circle
; 2893 : 	radius = 1.8f;

	movss	xmm0, DWORD PTR __real@3fe66666
	movss	DWORD PTR _radius$[ebp], xmm0

; 2894 : 	if ( renderer->GetFOV() < 60.0f * DTR )

	mov	ecx, DWORD PTR _renderer$[ebp]
	call	?GetFOV@Render3D@@QAEMXZ		; Render3D::GetFOV
	fstp	DWORD PTR tv623[ebp]
	movss	xmm0, DWORD PTR __real@3f860a91
	comiss	xmm0, DWORD PTR tv623[ebp]
	jbe	SHORT $LN9@Draw2DSunG

; 2895 : 		radius *= 0.3f;

	movss	xmm0, DWORD PTR _radius$[ebp]
	mulss	xmm0, DWORD PTR __real@3e99999a
	movss	DWORD PTR _radius$[ebp], xmm0
$LN9@Draw2DSunG:

; 2896 : 
; 2897 : 	// do center point
; 2898 : 	renderer->TransformCameraCentricPoint( &center, &v0 );

	lea	ecx, DWORD PTR _v0$[ebp]
	push	ecx
	lea	edx, DWORD PTR _center$[ebp]
	push	edx
	mov	ecx, DWORD PTR _renderer$[ebp]
	call	?TransformCameraCentricPoint@Render3D@@QAEXPAUTpoint@@PAUThreeDVertex@@@Z ; Render3D::TransformCameraCentricPoint

; 2899 : 	center.y = v0.csX;

	movss	xmm0, DWORD PTR _v0$[ebp+40]
	movss	DWORD PTR _center$[ebp+4], xmm0

; 2900 : 	center.z = v0.csY;

	movss	xmm0, DWORD PTR _v0$[ebp+44]
	movss	DWORD PTR _center$[ebp+8], xmm0

; 2901 : 	center.x = v0.csZ;

	movss	xmm0, DWORD PTR _v0$[ebp+48]
	movss	DWORD PTR _center$[ebp], xmm0

; 2902 : 
; 2903 : 	// 1 SHIMMERY CIRCLE
; 2904 : 
; 2905 : 	// v1.r = 0.4f + NRANDPOS * 0.6f;
; 2906 : 	// v1.g = 1.0f;
; 2907 : 	// v1.b = 0.4f + NRANDPOS * 0.6f;
; 2908 : 
; 2909 : 	// do 1st point
; 2910 : 	os.x = 0.0f;

	movss	xmm0, DWORD PTR __real@00000000
	movss	DWORD PTR _os$[ebp], xmm0

; 2911 : 
; 2912 : 	os.y = lensFlareVerts[0].y * radius;

	mov	eax, 12					; 0000000cH
	imul	eax, 0
	movss	xmm0, DWORD PTR ?lensFlareVerts@@3PAUTpoint@@A[eax+4]
	mulss	xmm0, DWORD PTR _radius$[ebp]
	movss	DWORD PTR _os$[ebp+4], xmm0

; 2913 : 	os.z = lensFlareVerts[0].z * radius;

	mov	ecx, 12					; 0000000cH
	imul	ecx, 0
	movss	xmm0, DWORD PTR ?lensFlareVerts@@3PAUTpoint@@A[ecx+8]
	mulss	xmm0, DWORD PTR _radius$[ebp]
	movss	DWORD PTR _os$[ebp+8], xmm0

; 2914 : 
; 2915 : 	renderer->TransformBillboardPoint( &os, &center, &v1 );

	lea	edx, DWORD PTR _v1$[ebp]
	push	edx
	lea	eax, DWORD PTR _center$[ebp]
	push	eax
	lea	ecx, DWORD PTR _os$[ebp]
	push	ecx
	mov	ecx, DWORD PTR _renderer$[ebp]
	call	?TransformBillboardPoint@Render3D@@QAEXPAUTpoint@@0PAUThreeDVertex@@@Z ; Render3D::TransformBillboardPoint

; 2916 : 
; 2917 : 	// save it for last tri in strip
; 2918 : 	vLast = v1;

	mov	ecx, 13					; 0000000dH
	lea	esi, DWORD PTR _v1$[ebp]
	lea	edi, DWORD PTR _vLast$[ebp]
	rep movsd

; 2919 : 
; 2920 : 	if (g_nGfxFix & 0x04) // sun, sun glow and moon fix

	mov	edx, DWORD PTR ?g_nGfxFix@@3HA		; g_nGfxFix
	and	edx, 4
	je	SHORT $LN8@Draw2DSunG

; 2921 : 		gif = true;

	mov	BYTE PTR _gif$[ebp], 1
$LN8@Draw2DSunG:

; 2922 : 
; 2923 : 	for ( i = 1; i < numLensFlareVerts; i++ )

	mov	DWORD PTR _i$[ebp], 1
	jmp	SHORT $LN7@Draw2DSunG
$LN6@Draw2DSunG:
	mov	eax, DWORD PTR _i$[ebp]
	add	eax, 1
	mov	DWORD PTR _i$[ebp], eax
$LN7@Draw2DSunG:
	cmp	DWORD PTR _i$[ebp], 16			; 00000010H
	jge	$LN5@Draw2DSunG

; 2924 : 	{
; 2925 : 		os.y = lensFlareVerts[i].y * radius;

	mov	ecx, DWORD PTR _i$[ebp]
	imul	ecx, 12					; 0000000cH
	movss	xmm0, DWORD PTR ?lensFlareVerts@@3PAUTpoint@@A[ecx+4]
	mulss	xmm0, DWORD PTR _radius$[ebp]
	movss	DWORD PTR _os$[ebp+4], xmm0

; 2926 : 		os.z = lensFlareVerts[i].z * radius;

	mov	edx, DWORD PTR _i$[ebp]
	imul	edx, 12					; 0000000cH
	movss	xmm0, DWORD PTR ?lensFlareVerts@@3PAUTpoint@@A[edx+8]
	mulss	xmm0, DWORD PTR _radius$[ebp]
	movss	DWORD PTR _os$[ebp+8], xmm0

; 2927 : 	
; 2928 : 		// v2.r = 0.4f + NRANDPOS * 0.6f;
; 2929 : 		// v2.g = 1.0f;
; 2930 : 		// v2.b = 0.4f + NRANDPOS * 0.6f;
; 2931 : 
; 2932 : 		renderer->TransformBillboardPoint( &os, &center, &v2 );

	lea	eax, DWORD PTR _v2$[ebp]
	push	eax
	lea	ecx, DWORD PTR _center$[ebp]
	push	ecx
	lea	edx, DWORD PTR _os$[ebp]
	push	edx
	mov	ecx, DWORD PTR _renderer$[ebp]
	call	?TransformBillboardPoint@Render3D@@QAEXPAUTpoint@@0PAUThreeDVertex@@@Z ; Render3D::TransformBillboardPoint

; 2933 : 
; 2934 : 		renderer->DrawTriangle( &v0, &v1, &v2, CULL_ALLOW_ALL, gif );

	push	0
	movzx	eax, BYTE PTR _gif$[ebp]
	push	eax
	push	0
	lea	ecx, DWORD PTR _v2$[ebp]
	push	ecx
	lea	edx, DWORD PTR _v1$[ebp]
	push	edx
	lea	eax, DWORD PTR _v0$[ebp]
	push	eax
	mov	ecx, DWORD PTR _renderer$[ebp]
	call	?DrawTriangle@Render3D@@QAEXPAUThreeDVertex@@00H_N1@Z ; Render3D::DrawTriangle

; 2935 : 
; 2936 : 		// move v2 to v1 for next time thru loop
; 2937 : 		v1 = v2;

	mov	ecx, 13					; 0000000dH
	lea	esi, DWORD PTR _v2$[ebp]
	lea	edi, DWORD PTR _v1$[ebp]
	rep movsd

; 2938 : 	}

	jmp	$LN6@Draw2DSunG
$LN5@Draw2DSunG:

; 2939 : 
; 2940 : 
; 2941 : 
; 2942 : 
; 2943 : 	// kick out last triangle
; 2944 : 	renderer->DrawTriangle( &v0, &v1, &vLast, CULL_ALLOW_ALL, gif );

	push	0
	movzx	ecx, BYTE PTR _gif$[ebp]
	push	ecx
	push	0
	lea	edx, DWORD PTR _vLast$[ebp]
	push	edx
	lea	eax, DWORD PTR _v1$[ebp]
	push	eax
	lea	ecx, DWORD PTR _v0$[ebp]
	push	ecx
	mov	ecx, DWORD PTR _renderer$[ebp]
	call	?DrawTriangle@Render3D@@QAEXPAUThreeDVertex@@00H_N1@Z ; Render3D::DrawTriangle

; 2945 : 
; 2946 : #if 0
; 2947 : 
; 2948 : 	// 2 SHIMMERY STAR
; 2949 : 
; 2950 : 	// do 1st point
; 2951 : 	float randRadius;
; 2952 : 	randRadius = radius + PRANDFloat() * radius * 1.7f;
; 2953 : 	os.y = lensFlareVerts[0].y * randRadius;
; 2954 : 	os.z = lensFlareVerts[0].z * randRadius;
; 2955 : 
; 2956 : 	renderer->TransformBillboardPoint( &os, &center, &v1 );
; 2957 : 
; 2958 : 	v1.r = 1.0f;
; 2959 : 	v1.g = 1.0f;
; 2960 : 	v1.b = 1.0f;
; 2961 : 
; 2962 : 	// save it for last tri in strip
; 2963 : 	vLast = v1;
; 2964 : 	v0.a *= 0.8f;
; 2965 : 
; 2966 : 	for ( i = 1; i < numLensFlareVerts; i++ )
; 2967 : 	{
; 2968 : 		if ( i & 1 )
; 2969 : 		{
; 2970 : 			os.y = lensFlareVerts[i].y * radius * 0.1f;
; 2971 : 			os.z = lensFlareVerts[i].z * radius * 0.1f;
; 2972 : 		}
; 2973 : 		else
; 2974 : 		{
; 2975 : 			randRadius = radius + PRANDFloat() * radius * 1.7f;
; 2976 : 			os.y = lensFlareVerts[i].y * randRadius;
; 2977 : 			os.z = lensFlareVerts[i].z * randRadius;
; 2978 : 		}
; 2979 : 	
; 2980 : 		renderer->TransformBillboardPoint( &os, &center, &v2 );
; 2981 : 
; 2982 : 		renderer->DrawTriangle( &v0, &v1, &v2, CULL_ALLOW_ALL );
; 2983 : 
; 2984 : 		// move v2 to v1 for next time thru loop
; 2985 : 		v1 = v2;
; 2986 : 	}
; 2987 : 	// kick out last triangle
; 2988 : 	renderer->DrawTriangle( &v0, &v1, &vLast, CULL_ALLOW_ALL );
; 2989 : 
; 2990 : #endif
; 2991 : 
; 2992 : 
; 2993 : 	// 3 RING AROUND SUN
; 2994 : 
; 2995 : 	v1.r = 0.9f;

	movss	xmm0, DWORD PTR __real@3f666666
	movss	DWORD PTR _v1$[ebp+8], xmm0

; 2996 : 	v1.g = 0.6f;

	movss	xmm0, DWORD PTR __real@3f19999a
	movss	DWORD PTR _v1$[ebp+12], xmm0

; 2997 : 	v1.b = 0.6f;

	movss	xmm0, DWORD PTR __real@3f19999a
	movss	DWORD PTR _v1$[ebp+16], xmm0

; 2998 : 
; 2999 : 	v2.r = 0.9f;

	movss	xmm0, DWORD PTR __real@3f666666
	movss	DWORD PTR _v2$[ebp+8], xmm0

; 3000 : 	v2.g = 0.6f;

	movss	xmm0, DWORD PTR __real@3f19999a
	movss	DWORD PTR _v2$[ebp+12], xmm0

; 3001 : 	v2.b = 0.6f;

	movss	xmm0, DWORD PTR __real@3f19999a
	movss	DWORD PTR _v2$[ebp+16], xmm0

; 3002 : 
; 3003 : 	v0.r = 1.0f;

	movss	xmm0, DWORD PTR __real@3f800000
	movss	DWORD PTR _v0$[ebp+8], xmm0

; 3004 : 	v0.g = 1.0f;

	movss	xmm0, DWORD PTR __real@3f800000
	movss	DWORD PTR _v0$[ebp+12], xmm0

; 3005 : 	v0.b = 1.0f;

	movss	xmm0, DWORD PTR __real@3f800000
	movss	DWORD PTR _v0$[ebp+16], xmm0

; 3006 : 
; 3007 : 	v3.r = 1.0f;

	movss	xmm0, DWORD PTR __real@3f800000
	movss	DWORD PTR _v3$[ebp+8], xmm0

; 3008 : 	v3.g = 1.0f;

	movss	xmm0, DWORD PTR __real@3f800000
	movss	DWORD PTR _v3$[ebp+12], xmm0

; 3009 : 	v3.b = 1.0f;

	movss	xmm0, DWORD PTR __real@3f800000
	movss	DWORD PTR _v3$[ebp+16], xmm0

; 3010 : 
; 3011 : 
; 3012 : 	v0.q = v1.q = v2.q = v3.q = 0.0f;

	movss	xmm0, DWORD PTR __real@00000000
	movss	DWORD PTR _v3$[ebp+32], xmm0
	movss	xmm0, DWORD PTR _v3$[ebp+32]
	movss	DWORD PTR _v2$[ebp+32], xmm0
	movss	xmm0, DWORD PTR _v2$[ebp+32]
	movss	DWORD PTR _v1$[ebp+32], xmm0
	movss	xmm0, DWORD PTR _v1$[ebp+32]
	movss	DWORD PTR _v0$[ebp+32], xmm0

; 3013 : 
; 3014 : 	// Set up our drawing mode
; 3015 : 	renderer->context.RestoreState(STATE_ALPHA_GOURAUD);

	push	18					; 00000012H
	mov	ecx, DWORD PTR _renderer$[ebp]
	add	ecx, 100				; 00000064H
	call	?RestoreState@ContextMPR@@QAEXH@Z	; ContextMPR::RestoreState

; 3016 : 	renderer->context.SetState(MPR_STA_ALPHA_OP_FUNCTION,MPR_TO_MODULATE); //JAM 18Oct03

	push	4
	push	5
	mov	ecx, DWORD PTR _renderer$[ebp]
	add	ecx, 100				; 00000064H
	call	?SetState@ContextMPR@@QAEXGK@Z		; ContextMPR::SetState

; 3017 : 
; 3018 : 	// set alphas for this circle
; 3019 : 	v0.a = v3.a = 0.0f;

	movss	xmm0, DWORD PTR __real@00000000
	movss	DWORD PTR _v3$[ebp+20], xmm0
	movss	xmm0, DWORD PTR _v3$[ebp+20]
	movss	DWORD PTR _v0$[ebp+20], xmm0

; 3020 : 
; 3021 : 	// clear center?
; 3022 : 	v1.a = v2.a = alpha * 0.55f;

	movss	xmm0, DWORD PTR _alpha$[ebp]
	mulss	xmm0, DWORD PTR __real@3f0ccccd
	movss	DWORD PTR _v2$[ebp+20], xmm0
	movss	xmm0, DWORD PTR _v2$[ebp+20]
	movss	DWORD PTR _v1$[ebp+20], xmm0

; 3023 : 
; 3024 : 	// set radius for this circle
; 3025 : 	radius = 0.5f;

	movss	xmm0, DWORD PTR __real@3f000000
	movss	DWORD PTR _radius$[ebp], xmm0

; 3026 : 	iradius = 0.3f;

	movss	xmm0, DWORD PTR __real@3e99999a
	movss	DWORD PTR _iradius$[ebp], xmm0

; 3027 : 	if ( renderer->GetFOV() < 60.0f * DTR )

	mov	ecx, DWORD PTR _renderer$[ebp]
	call	?GetFOV@Render3D@@QAEMXZ		; Render3D::GetFOV
	fstp	DWORD PTR tv691[ebp]
	movss	xmm0, DWORD PTR __real@3f860a91
	comiss	xmm0, DWORD PTR tv691[ebp]
	jbe	SHORT $LN4@Draw2DSunG

; 3028 : 	{
; 3029 : 		radius *= 0.3f;

	movss	xmm0, DWORD PTR _radius$[ebp]
	mulss	xmm0, DWORD PTR __real@3e99999a
	movss	DWORD PTR _radius$[ebp], xmm0

; 3030 : 		iradius *= 0.3f;

	movss	xmm0, DWORD PTR _iradius$[ebp]
	mulss	xmm0, DWORD PTR __real@3e99999a
	movss	DWORD PTR _iradius$[ebp], xmm0
$LN4@Draw2DSunG:

; 3031 : 	}
; 3032 : 
; 3033 : 	// do 1st 2 points
; 3034 : 	os.y = lensFlareVerts[0].y * radius;

	mov	edx, 12					; 0000000cH
	imul	edx, 0
	movss	xmm0, DWORD PTR ?lensFlareVerts@@3PAUTpoint@@A[edx+4]
	mulss	xmm0, DWORD PTR _radius$[ebp]
	movss	DWORD PTR _os$[ebp+4], xmm0

; 3035 : 	os.z = lensFlareVerts[0].z * radius;

	mov	eax, 12					; 0000000cH
	imul	eax, 0
	movss	xmm0, DWORD PTR ?lensFlareVerts@@3PAUTpoint@@A[eax+8]
	mulss	xmm0, DWORD PTR _radius$[ebp]
	movss	DWORD PTR _os$[ebp+8], xmm0

; 3036 : 
; 3037 : 	renderer->TransformBillboardPoint( &os, &center, &v1 );

	lea	ecx, DWORD PTR _v1$[ebp]
	push	ecx
	lea	edx, DWORD PTR _center$[ebp]
	push	edx
	lea	eax, DWORD PTR _os$[ebp]
	push	eax
	mov	ecx, DWORD PTR _renderer$[ebp]
	call	?TransformBillboardPoint@Render3D@@QAEXPAUTpoint@@0PAUThreeDVertex@@@Z ; Render3D::TransformBillboardPoint

; 3038 : 
; 3039 : 	os.y = lensFlareVerts[0].y * iradius;

	mov	ecx, 12					; 0000000cH
	imul	ecx, 0
	movss	xmm0, DWORD PTR ?lensFlareVerts@@3PAUTpoint@@A[ecx+4]
	mulss	xmm0, DWORD PTR _iradius$[ebp]
	movss	DWORD PTR _os$[ebp+4], xmm0

; 3040 : 	os.z = lensFlareVerts[0].z * iradius;

	mov	edx, 12					; 0000000cH
	imul	edx, 0
	movss	xmm0, DWORD PTR ?lensFlareVerts@@3PAUTpoint@@A[edx+8]
	mulss	xmm0, DWORD PTR _iradius$[ebp]
	movss	DWORD PTR _os$[ebp+8], xmm0

; 3041 : 
; 3042 : 	renderer->TransformBillboardPoint( &os, &center, &v0 );

	lea	eax, DWORD PTR _v0$[ebp]
	push	eax
	lea	ecx, DWORD PTR _center$[ebp]
	push	ecx
	lea	edx, DWORD PTR _os$[ebp]
	push	edx
	mov	ecx, DWORD PTR _renderer$[ebp]
	call	?TransformBillboardPoint@Render3D@@QAEXPAUTpoint@@0PAUThreeDVertex@@@Z ; Render3D::TransformBillboardPoint

; 3043 : 
; 3044 : 
; 3045 : 	// save it for last tri in strip
; 3046 : 	vLast = v1;

	mov	ecx, 13					; 0000000dH
	lea	esi, DWORD PTR _v1$[ebp]
	lea	edi, DWORD PTR _vLast$[ebp]
	rep movsd

; 3047 : 	vLasti = v0;

	mov	ecx, 13					; 0000000dH
	lea	esi, DWORD PTR _v0$[ebp]
	lea	edi, DWORD PTR _vLasti$[ebp]
	rep movsd

; 3048 : 
; 3049 : 	for ( i = 1; i < numLensFlareVerts; i++ )

	mov	DWORD PTR _i$[ebp], 1
	jmp	SHORT $LN3@Draw2DSunG
$LN2@Draw2DSunG:
	mov	eax, DWORD PTR _i$[ebp]
	add	eax, 1
	mov	DWORD PTR _i$[ebp], eax
$LN3@Draw2DSunG:
	cmp	DWORD PTR _i$[ebp], 16			; 00000010H
	jge	$LN1@Draw2DSunG

; 3050 : 	{
; 3051 : 		os.y = lensFlareVerts[i].y * radius;

	mov	ecx, DWORD PTR _i$[ebp]
	imul	ecx, 12					; 0000000cH
	movss	xmm0, DWORD PTR ?lensFlareVerts@@3PAUTpoint@@A[ecx+4]
	mulss	xmm0, DWORD PTR _radius$[ebp]
	movss	DWORD PTR _os$[ebp+4], xmm0

; 3052 : 		os.z = lensFlareVerts[i].z * radius;

	mov	edx, DWORD PTR _i$[ebp]
	imul	edx, 12					; 0000000cH
	movss	xmm0, DWORD PTR ?lensFlareVerts@@3PAUTpoint@@A[edx+8]
	mulss	xmm0, DWORD PTR _radius$[ebp]
	movss	DWORD PTR _os$[ebp+8], xmm0

; 3053 : 	
; 3054 : 		renderer->TransformBillboardPoint( &os, &center, &v2 );

	lea	eax, DWORD PTR _v2$[ebp]
	push	eax
	lea	ecx, DWORD PTR _center$[ebp]
	push	ecx
	lea	edx, DWORD PTR _os$[ebp]
	push	edx
	mov	ecx, DWORD PTR _renderer$[ebp]
	call	?TransformBillboardPoint@Render3D@@QAEXPAUTpoint@@0PAUThreeDVertex@@@Z ; Render3D::TransformBillboardPoint

; 3055 : 
; 3056 : 		os.y = lensFlareVerts[i].y * iradius;

	mov	eax, DWORD PTR _i$[ebp]
	imul	eax, 12					; 0000000cH
	movss	xmm0, DWORD PTR ?lensFlareVerts@@3PAUTpoint@@A[eax+4]
	mulss	xmm0, DWORD PTR _iradius$[ebp]
	movss	DWORD PTR _os$[ebp+4], xmm0

; 3057 : 		os.z = lensFlareVerts[i].z * iradius;

	mov	ecx, DWORD PTR _i$[ebp]
	imul	ecx, 12					; 0000000cH
	movss	xmm0, DWORD PTR ?lensFlareVerts@@3PAUTpoint@@A[ecx+8]
	mulss	xmm0, DWORD PTR _iradius$[ebp]
	movss	DWORD PTR _os$[ebp+8], xmm0

; 3058 : 	
; 3059 : 		renderer->TransformBillboardPoint( &os, &center, &v3 );

	lea	edx, DWORD PTR _v3$[ebp]
	push	edx
	lea	eax, DWORD PTR _center$[ebp]
	push	eax
	lea	ecx, DWORD PTR _os$[ebp]
	push	ecx
	mov	ecx, DWORD PTR _renderer$[ebp]
	call	?TransformBillboardPoint@Render3D@@QAEXPAUTpoint@@0PAUThreeDVertex@@@Z ; Render3D::TransformBillboardPoint

; 3060 : 
; 3061 : 		renderer->DrawTriangle( &v0, &v1, &v2, CULL_ALLOW_ALL, gif );

	push	0
	movzx	edx, BYTE PTR _gif$[ebp]
	push	edx
	push	0
	lea	eax, DWORD PTR _v2$[ebp]
	push	eax
	lea	ecx, DWORD PTR _v1$[ebp]
	push	ecx
	lea	edx, DWORD PTR _v0$[ebp]
	push	edx
	mov	ecx, DWORD PTR _renderer$[ebp]
	call	?DrawTriangle@Render3D@@QAEXPAUThreeDVertex@@00H_N1@Z ; Render3D::DrawTriangle

; 3062 : 		renderer->DrawTriangle( &v0, &v2, &v3, CULL_ALLOW_ALL, gif );

	push	0
	movzx	eax, BYTE PTR _gif$[ebp]
	push	eax
	push	0
	lea	ecx, DWORD PTR _v3$[ebp]
	push	ecx
	lea	edx, DWORD PTR _v2$[ebp]
	push	edx
	lea	eax, DWORD PTR _v0$[ebp]
	push	eax
	mov	ecx, DWORD PTR _renderer$[ebp]
	call	?DrawTriangle@Render3D@@QAEXPAUThreeDVertex@@00H_N1@Z ; Render3D::DrawTriangle

; 3063 : 
; 3064 : 		// save current points to past points
; 3065 : 		v1 = v2;

	mov	ecx, 13					; 0000000dH
	lea	esi, DWORD PTR _v2$[ebp]
	lea	edi, DWORD PTR _v1$[ebp]
	rep movsd

; 3066 : 		v0 = v3;

	mov	ecx, 13					; 0000000dH
	lea	esi, DWORD PTR _v3$[ebp]
	lea	edi, DWORD PTR _v0$[ebp]
	rep movsd

; 3067 : 	}

	jmp	$LN2@Draw2DSunG
$LN1@Draw2DSunG:

; 3068 : 
; 3069 : 	// kick out last 2 triangle
; 3070 : 	renderer->DrawTriangle( &v0, &v1, &vLast, CULL_ALLOW_ALL, gif );

	push	0
	movzx	ecx, BYTE PTR _gif$[ebp]
	push	ecx
	push	0
	lea	edx, DWORD PTR _vLast$[ebp]
	push	edx
	lea	eax, DWORD PTR _v1$[ebp]
	push	eax
	lea	ecx, DWORD PTR _v0$[ebp]
	push	ecx
	mov	ecx, DWORD PTR _renderer$[ebp]
	call	?DrawTriangle@Render3D@@QAEXPAUThreeDVertex@@00H_N1@Z ; Render3D::DrawTriangle

; 3071 : 	renderer->DrawTriangle( &v0, &vLast, &vLasti, CULL_ALLOW_ALL, gif );

	push	0
	movzx	edx, BYTE PTR _gif$[ebp]
	push	edx
	push	0
	lea	eax, DWORD PTR _vLasti$[ebp]
	push	eax
	lea	ecx, DWORD PTR _vLast$[ebp]
	push	ecx
	lea	edx, DWORD PTR _v0$[ebp]
	push	edx
	mov	ecx, DWORD PTR _renderer$[ebp]
	call	?DrawTriangle@Render3D@@QAEXPAUThreeDVertex@@00H_N1@Z ; Render3D::DrawTriangle
$LN11@Draw2DSunG:

; 3072 : }

	pop	edi
	pop	esi
	mov	ecx, DWORD PTR __$ArrayPad$[ebp]
	xor	ecx, ebp
	call	@__security_check_cookie@4
	mov	esp, ebp
	pop	ebp
	ret	0
?Draw2DSunGlowEffect@@YAXPAVRenderOTW@@PAUTpoint@@MM@Z ENDP ; Draw2DSunGlowEffect
_TEXT	ENDS
; Function compile flags: /Odtp
; File c:\users\zhitao li\documents\visual studio 2012\projects\freefalcon\graphics\objects\draw2d.cpp
_TEXT	SEGMENT
_ColorIn$1 = -684					; size = 4
tv597 = -680						; size = 4
tv686 = -676						; size = 4
tv609 = -672						; size = 4
tv603 = -668						; size = 4
_dotp$ = -664						; size = 4
tv308 = -660						; size = 4
tv275 = -656						; size = 4
_Alpha$2 = -652						; size = 4
_ColorOut$3 = -648					; size = 4
_alphaPct$ = -644					; size = 4
_gif$ = -637						; size = 1
_j$ = -636						; size = 4
_radius$ = -632						; size = 4
_i$ = -628						; size = 4
_vLast$ = -624						; size = 28
_vLasti$ = -596						; size = 28
_center$ = -568						; size = 12
_position$ = -556					; size = 12
_atPosition$ = -544					; size = 12
_av$ = -532						; size = 12
_lv$ = -520						; size = 12
_v$ = -508						; size = 504
__$ArrayPad$ = -4					; size = 4
_renderer$ = 8						; size = 4
?Draw2DLensFlare@@YAXPAVRenderOTW@@@Z PROC		; Draw2DLensFlare

; 2690 : {

	push	ebp
	mov	ebp, esp
	sub	esp, 684				; 000002acH
	mov	eax, DWORD PTR ___security_cookie
	xor	eax, ebp
	mov	DWORD PTR __$ArrayPad$[ebp], eax
	push	esi
	push	edi

; 2691 : 	Tpoint				position, center, lv, av;
; 2692 : 	int					i,j;
; 2693 : 	float				dotp;
; 2694 : 	float				radius;
; 2695 : 	float				alphaPct;
; 2696 : 	Tpoint				atPosition;
; 2697 : 	bool gif = false;

	mov	BYTE PTR _gif$[ebp], 0

; 2698 : 
; 2699 : 
; 2700 : 	// If we're below the overcast layer, do not draw the lens flare.
; 2701 : 	if( realWeather->InsideOvercast() || realWeather->UnderOvercast()) return;

	mov	ecx, DWORD PTR ?realWeather@@3PAVRealWeather@@A ; realWeather
	call	?InsideOvercast@RealWeather@@QAE_NXZ	; RealWeather::InsideOvercast
	movzx	eax, al
	test	eax, eax
	jne	SHORT $LN19@Draw2DLens
	mov	ecx, DWORD PTR ?realWeather@@3PAVRealWeather@@A ; realWeather
	call	?UnderOvercast@RealWeather@@QAE_NXZ	; RealWeather::UnderOvercast
	movzx	ecx, al
	test	ecx, ecx
	je	SHORT $LN20@Draw2DLens
$LN19@Draw2DLens:
	jmp	$LN21@Draw2DLens
$LN20@Draw2DLens:

; 2702 : 
; 2703 : 	// is there a sun, if not return
; 2704 : 	if( !TheTimeOfDay.ThereIsASun() ) return;

	mov	ecx, OFFSET ?TheTimeOfDay@@3VCTimeOfDay@@A ; TheTimeOfDay
	call	?ThereIsASun@CTimeOfDay@@QAEHXZ		; CTimeOfDay::ThereIsASun
	test	eax, eax
	jne	SHORT $LN18@Draw2DLens
	jmp	$LN21@Draw2DLens
$LN18@Draw2DLens:

; 2705 : 
; 2706 : 	// get the Look At vector and lighting vector
; 2707 : 	renderer->GetAt( &av );

	lea	edx, DWORD PTR _av$[ebp]
	push	edx
	mov	ecx, DWORD PTR _renderer$[ebp]
	call	?GetAt@Render3D@@QAEXPAUTpoint@@@Z	; Render3D::GetAt

; 2708 : 	TheTimeOfDay.GetLightDirection( &lv );

	lea	eax, DWORD PTR _lv$[ebp]
	push	eax
	mov	ecx, OFFSET ?TheTimeOfDay@@3VCTimeOfDay@@A ; TheTimeOfDay
	call	?GetLightDirection@CTimeOfDay@@QAEXPAUTpoint@@@Z ; CTimeOfDay::GetLightDirection

; 2709 : 
; 2710 : 	// dot product between light and look at vector.  Both should be
; 2711 : 	// unit vectors and as the dotp approaches -1.0f, we should be
; 2712 : 	// approaching looking directly into the sun
; 2713 : 	dotp = av.x * -lv.x + av.y * -lv.y + av.z * -lv.z;

	movss	xmm0, DWORD PTR _lv$[ebp]
	xorps	xmm0, DWORD PTR __xmm@80000000800000008000000080000000
	mulss	xmm0, DWORD PTR _av$[ebp]
	movss	xmm1, DWORD PTR _lv$[ebp+4]
	xorps	xmm1, DWORD PTR __xmm@80000000800000008000000080000000
	mulss	xmm1, DWORD PTR _av$[ebp+4]
	addss	xmm0, xmm1
	movss	xmm1, DWORD PTR _lv$[ebp+8]
	xorps	xmm1, DWORD PTR __xmm@80000000800000008000000080000000
	mulss	xmm1, DWORD PTR _av$[ebp+8]
	addss	xmm0, xmm1
	movss	DWORD PTR _dotp$[ebp], xmm0

; 2714 : 
; 2715 : 	if ( dotp > -0.70f )

	movss	xmm0, DWORD PTR _dotp$[ebp]
	comiss	xmm0, DWORD PTR __real@bf333333
	jbe	SHORT $LN17@Draw2DLens

; 2716 : 		return;

	jmp	$LN21@Draw2DLens
$LN17@Draw2DLens:

; 2717 : 
; 2718 : 	alphaPct = (-dotp-0.70f)/0.30f;

	movss	xmm0, DWORD PTR _dotp$[ebp]
	xorps	xmm0, DWORD PTR __xmm@80000000800000008000000080000000
	subss	xmm0, DWORD PTR __real@3f333333
	divss	xmm0, DWORD PTR __real@3e99999a
	movss	DWORD PTR _alphaPct$[ebp], xmm0

; 2719 : 
; 2720 : 	// Get the center point of the body on a unit sphere in world space
; 2721 : 	TheTimeOfDay.CalculateSunMoonPos( &center, FALSE );

	push	0
	lea	ecx, DWORD PTR _center$[ebp]
	push	ecx
	mov	ecx, OFFSET ?TheTimeOfDay@@3VCTimeOfDay@@A ; TheTimeOfDay
	call	?CalculateSunMoonPos@CTimeOfDay@@QAEXPAUTpoint@@H@Z ; CTimeOfDay::CalculateSunMoonPos

; 2722 : 	radius = 40.0f + (alphaPct) * (20.0f - 40.0f);

	movss	xmm0, DWORD PTR _alphaPct$[ebp]
	mulss	xmm0, DWORD PTR __real@c1a00000
	addss	xmm0, DWORD PTR __real@42200000
	movss	DWORD PTR _radius$[ebp], xmm0

; 2723 : 
; 2724 : 	//JAM 04Oct03
; 2725 : 	if(0)

	xor	edx, edx
	je	SHORT $LN16@Draw2DLens

; 2726 : 		Draw2DSunGlowEffect(renderer,&center,radius,alphaPct*0.7f);

	movss	xmm0, DWORD PTR _alphaPct$[ebp]
	mulss	xmm0, DWORD PTR __real@3f333333
	push	ecx
	movss	DWORD PTR [esp], xmm0
	push	ecx
	movss	xmm0, DWORD PTR _radius$[ebp]
	movss	DWORD PTR [esp], xmm0
	lea	eax, DWORD PTR _center$[ebp]
	push	eax
	mov	ecx, DWORD PTR _renderer$[ebp]
	push	ecx
	call	?Draw2DSunGlowEffect@@YAXPAVRenderOTW@@PAUTpoint@@MM@Z ; Draw2DSunGlowEffect
	add	esp, 16					; 00000010H
$LN16@Draw2DLens:

; 2727 : 
; 2728 : 	if (g_nGfxFix & 0x04)

	mov	edx, DWORD PTR ?g_nGfxFix@@3HA		; g_nGfxFix
	and	edx, 4
	je	SHORT $LN15@Draw2DLens

; 2729 : 		gif = true;

	mov	BYTE PTR _gif$[ebp], 1
$LN15@Draw2DLens:

; 2730 : 
; 2731 : 	// now calculate where we want to start the first circle (world space)
; 2732 : 	// we'll head out from the viewpoint a ways along the lookat vector,
; 2733 : 	// and then from that point head along the light vector a ways
; 2734 : 	atPosition.x = renderer->X() + av.x * 90.0f - lv.x * 40.0f;

	mov	ecx, DWORD PTR _renderer$[ebp]
	call	?X@Render3D@@QAEMXZ			; Render3D::X
	fstp	DWORD PTR tv597[ebp]
	movss	xmm0, DWORD PTR tv597[ebp]
	movss	xmm1, DWORD PTR _av$[ebp]
	mulss	xmm1, DWORD PTR __real@42b40000
	addss	xmm0, xmm1
	movss	xmm1, DWORD PTR _lv$[ebp]
	mulss	xmm1, DWORD PTR __real@42200000
	subss	xmm0, xmm1
	movss	DWORD PTR _atPosition$[ebp], xmm0

; 2735 : 	atPosition.y = renderer->Y() + av.y * 90.0f - lv.y * 40.0f;

	mov	ecx, DWORD PTR _renderer$[ebp]
	call	?Y@Render3D@@QAEMXZ			; Render3D::Y
	fstp	DWORD PTR tv603[ebp]
	movss	xmm0, DWORD PTR tv603[ebp]
	movss	xmm1, DWORD PTR _av$[ebp+4]
	mulss	xmm1, DWORD PTR __real@42b40000
	addss	xmm0, xmm1
	movss	xmm1, DWORD PTR _lv$[ebp+4]
	mulss	xmm1, DWORD PTR __real@42200000
	subss	xmm0, xmm1
	movss	DWORD PTR _atPosition$[ebp+4], xmm0

; 2736 : 	atPosition.z = renderer->Z() + av.z * 90.0f - lv.z * 40.0f;

	mov	ecx, DWORD PTR _renderer$[ebp]
	call	?Z@Render3D@@QAEMXZ			; Render3D::Z
	fstp	DWORD PTR tv609[ebp]
	movss	xmm0, DWORD PTR tv609[ebp]
	movss	xmm1, DWORD PTR _av$[ebp+8]
	mulss	xmm1, DWORD PTR __real@42b40000
	addss	xmm0, xmm1
	movss	xmm1, DWORD PTR _lv$[ebp+8]
	mulss	xmm1, DWORD PTR __real@42200000
	subss	xmm0, xmm1
	movss	DWORD PTR _atPosition$[ebp+8], xmm0

; 2737 : 
; 2738 : 	
; 2739 : 	D3DDYNVERTEX	v[numLensFlareVerts+2], vLast, vLasti;
; 2740 : 
; 2741 : 	v[0].dwSpecular=v[1].dwSpecular=v[2].dwSpecular=v[3].dwSpecular=0x00000000;

	mov	eax, 28					; 0000001cH
	imul	eax, 3
	mov	DWORD PTR _v$[ebp+eax+16], 0
	mov	ecx, 28					; 0000001cH
	shl	ecx, 1
	mov	DWORD PTR _v$[ebp+ecx+16], 0
	mov	edx, 28					; 0000001cH
	shl	edx, 0
	mov	DWORD PTR _v$[ebp+edx+16], 0
	mov	eax, 28					; 0000001cH
	imul	eax, 0
	mov	DWORD PTR _v$[ebp+eax+16], 0

; 2742 : 	for ( j = 0; j < NUM_FLARE_CIRCLES; j++ )

	mov	DWORD PTR _j$[ebp], 0
	jmp	SHORT $LN14@Draw2DLens
$LN13@Draw2DLens:
	mov	ecx, DWORD PTR _j$[ebp]
	add	ecx, 1
	mov	DWORD PTR _j$[ebp], ecx
$LN14@Draw2DLens:
	cmp	DWORD PTR _j$[ebp], 10			; 0000000aH
	jge	$LN12@Draw2DLens

; 2743 : 	{
; 2744 : 		// now move the center point of the next circle
; 2745 : 		position.x = atPosition.x + lv.x * lensDist[j] * ( 1.2f - alphaPct );

	mov	edx, DWORD PTR _j$[ebp]
	movss	xmm0, DWORD PTR _lv$[ebp]
	mulss	xmm0, DWORD PTR ?lensDist@@3PAMA[edx*4]
	movss	xmm1, DWORD PTR __real@3f99999a
	subss	xmm1, DWORD PTR _alphaPct$[ebp]
	mulss	xmm0, xmm1
	addss	xmm0, DWORD PTR _atPosition$[ebp]
	movss	DWORD PTR _position$[ebp], xmm0

; 2746 : 		position.y = atPosition.y + lv.y * lensDist[j] * ( 1.2f - alphaPct );

	mov	eax, DWORD PTR _j$[ebp]
	movss	xmm0, DWORD PTR _lv$[ebp+4]
	mulss	xmm0, DWORD PTR ?lensDist@@3PAMA[eax*4]
	movss	xmm1, DWORD PTR __real@3f99999a
	subss	xmm1, DWORD PTR _alphaPct$[ebp]
	mulss	xmm0, xmm1
	addss	xmm0, DWORD PTR _atPosition$[ebp+4]
	movss	DWORD PTR _position$[ebp+4], xmm0

; 2747 : 		position.z = atPosition.z + lv.z * lensDist[j] * ( 1.2f - alphaPct );

	mov	ecx, DWORD PTR _j$[ebp]
	movss	xmm0, DWORD PTR _lv$[ebp+8]
	mulss	xmm0, DWORD PTR ?lensDist@@3PAMA[ecx*4]
	movss	xmm1, DWORD PTR __real@3f99999a
	subss	xmm1, DWORD PTR _alphaPct$[ebp]
	mulss	xmm0, xmm1
	addss	xmm0, DWORD PTR _atPosition$[ebp+8]
	movss	DWORD PTR _position$[ebp+8], xmm0

; 2748 : 
; 2749 : 		float	Alpha=lensAlphas[j]*alphaPct*lightLevel * 0.80f;

	mov	edx, DWORD PTR _j$[ebp]
	movss	xmm0, DWORD PTR ?lensAlphas@@3PAMA[edx*4]
	mulss	xmm0, DWORD PTR _alphaPct$[ebp]
	mulss	xmm0, DWORD PTR _lightLevel
	mulss	xmm0, DWORD PTR __real@3f4ccccd
	movss	DWORD PTR _Alpha$2[ebp], xmm0

; 2750 : 		DWORD	ColorOut, ColorIn;
; 2751 : 		ColorOut=v[2].dwColour=v[1].dwColour=F_TO_ARGB(Alpha, lensRGB[j].r, lensRGB[j].g, lensRGB[j].b);

	movss	xmm0, DWORD PTR _Alpha$2[ebp]
	mulss	xmm0, DWORD PTR __real@437fe666
	push	ecx
	movss	DWORD PTR [esp], xmm0
	call	?F_I32@@YAKM@Z				; F_I32
	add	esp, 4
	mov	esi, eax
	shl	esi, 24					; 00000018H
	mov	eax, DWORD PTR _j$[ebp]
	imul	eax, 12					; 0000000cH
	movss	xmm0, DWORD PTR ?lensRGB@@3PAUTcolor@@A[eax]
	mulss	xmm0, DWORD PTR __real@437fe666
	push	ecx
	movss	DWORD PTR [esp], xmm0
	call	?F_I32@@YAKM@Z				; F_I32
	add	esp, 4
	mov	edi, eax
	shl	edi, 16					; 00000010H
	mov	ecx, DWORD PTR _j$[ebp]
	imul	ecx, 12					; 0000000cH
	movss	xmm0, DWORD PTR ?lensRGB@@3PAUTcolor@@A[ecx+4]
	mulss	xmm0, DWORD PTR __real@437fe666
	push	ecx
	movss	DWORD PTR [esp], xmm0
	call	?F_I32@@YAKM@Z				; F_I32
	add	esp, 4
	shl	eax, 8
	or	edi, eax
	mov	edx, DWORD PTR _j$[ebp]
	imul	edx, 12					; 0000000cH
	movss	xmm0, DWORD PTR ?lensRGB@@3PAUTcolor@@A[edx+8]
	mulss	xmm0, DWORD PTR __real@437fe666
	push	ecx
	movss	DWORD PTR [esp], xmm0
	call	?F_I32@@YAKM@Z				; F_I32
	add	esp, 4
	or	edi, eax
	or	esi, edi
	mov	DWORD PTR tv275[ebp], esi
	mov	eax, 28					; 0000001cH
	shl	eax, 0
	mov	ecx, DWORD PTR tv275[ebp]
	mov	DWORD PTR _v$[ebp+eax+12], ecx
	mov	edx, 28					; 0000001cH
	shl	edx, 1
	mov	eax, DWORD PTR tv275[ebp]
	mov	DWORD PTR _v$[ebp+edx+12], eax
	mov	ecx, DWORD PTR tv275[ebp]
	mov	DWORD PTR _ColorOut$3[ebp], ecx

; 2752 : 		ColorIn=v[0].dwColour=v[3].dwColour=F_TO_ARGB(Alpha, lensCenterRGB[j].r, lensCenterRGB[j].g, lensCenterRGB[j].b);

	movss	xmm0, DWORD PTR _Alpha$2[ebp]
	mulss	xmm0, DWORD PTR __real@437fe666
	push	ecx
	movss	DWORD PTR [esp], xmm0
	call	?F_I32@@YAKM@Z				; F_I32
	add	esp, 4
	mov	esi, eax
	shl	esi, 24					; 00000018H
	mov	edx, DWORD PTR _j$[ebp]
	imul	edx, 12					; 0000000cH
	movss	xmm0, DWORD PTR ?lensCenterRGB@@3PAUTcolor@@A[edx]
	mulss	xmm0, DWORD PTR __real@437fe666
	push	ecx
	movss	DWORD PTR [esp], xmm0
	call	?F_I32@@YAKM@Z				; F_I32
	add	esp, 4
	mov	edi, eax
	shl	edi, 16					; 00000010H
	mov	eax, DWORD PTR _j$[ebp]
	imul	eax, 12					; 0000000cH
	movss	xmm0, DWORD PTR ?lensCenterRGB@@3PAUTcolor@@A[eax+4]
	mulss	xmm0, DWORD PTR __real@437fe666
	push	ecx
	movss	DWORD PTR [esp], xmm0
	call	?F_I32@@YAKM@Z				; F_I32
	add	esp, 4
	shl	eax, 8
	or	edi, eax
	mov	ecx, DWORD PTR _j$[ebp]
	imul	ecx, 12					; 0000000cH
	movss	xmm0, DWORD PTR ?lensCenterRGB@@3PAUTcolor@@A[ecx+8]
	mulss	xmm0, DWORD PTR __real@437fe666
	push	ecx
	movss	DWORD PTR [esp], xmm0
	call	?F_I32@@YAKM@Z				; F_I32
	add	esp, 4
	or	edi, eax
	or	esi, edi
	mov	DWORD PTR tv308[ebp], esi
	mov	edx, 28					; 0000001cH
	imul	edx, 3
	mov	eax, DWORD PTR tv308[ebp]
	mov	DWORD PTR _v$[ebp+edx+12], eax
	mov	ecx, 28					; 0000001cH
	imul	ecx, 0
	mov	edx, DWORD PTR tv308[ebp]
	mov	DWORD PTR _v$[ebp+ecx+12], edx
	mov	eax, DWORD PTR tv308[ebp]
	mov	DWORD PTR _ColorIn$1[ebp], eax

; 2753 : 
; 2754 : 		if(Alpha<0.001f) continue;

	movss	xmm0, DWORD PTR __real@3a83126f
	comiss	xmm0, DWORD PTR _Alpha$2[ebp]
	jbe	SHORT $LN11@Draw2DLens
	jmp	$LN13@Draw2DLens
$LN11@Draw2DLens:

; 2755 : 
; 2756 : 		v[0].dwColour&=0x00ffffff;

	mov	ecx, 28					; 0000001cH
	imul	ecx, 0
	mov	edx, DWORD PTR _v$[ebp+ecx+12]
	and	edx, 16777215				; 00ffffffH
	mov	eax, 28					; 0000001cH
	imul	eax, 0
	mov	DWORD PTR _v$[ebp+eax+12], edx

; 2757 : 
; 2758 : 		radius = lensRadius[j];

	mov	ecx, DWORD PTR _j$[ebp]
	movss	xmm0, DWORD PTR ?lensRadius@@3PAMA[ecx*4]
	movss	DWORD PTR _radius$[ebp], xmm0

; 2759 : 		if ( renderer->GetFOV() < 60.0f * DTR )

	mov	ecx, DWORD PTR _renderer$[ebp]
	call	?GetFOV@Render3D@@QAEMXZ		; Render3D::GetFOV
	fstp	DWORD PTR tv686[ebp]
	movss	xmm0, DWORD PTR __real@3f860a91
	comiss	xmm0, DWORD PTR tv686[ebp]
	jbe	SHORT $LN10@Draw2DLens

; 2760 : 			radius *= 0.3f;

	movss	xmm0, DWORD PTR _radius$[ebp]
	mulss	xmm0, DWORD PTR __real@3e99999a
	movss	DWORD PTR _radius$[ebp], xmm0
$LN10@Draw2DLens:

; 2761 : 
; 2762 : 		v[1].pos.x = lensFlareVerts[0].x * radius;

	mov	edx, 12					; 0000000cH
	imul	edx, 0
	movss	xmm0, DWORD PTR ?lensFlareVerts@@3PAUTpoint@@A[edx]
	mulss	xmm0, DWORD PTR _radius$[ebp]
	mov	eax, 28					; 0000001cH
	shl	eax, 0
	movss	DWORD PTR _v$[ebp+eax], xmm0

; 2763 : 		v[1].pos.y = lensFlareVerts[0].y * radius;

	mov	ecx, 12					; 0000000cH
	imul	ecx, 0
	movss	xmm0, DWORD PTR ?lensFlareVerts@@3PAUTpoint@@A[ecx+4]
	mulss	xmm0, DWORD PTR _radius$[ebp]
	mov	edx, 28					; 0000001cH
	shl	edx, 0
	movss	DWORD PTR _v$[ebp+edx+4], xmm0

; 2764 : 		v[1].pos.z = lensFlareVerts[0].z * radius;

	mov	eax, 12					; 0000000cH
	imul	eax, 0
	movss	xmm0, DWORD PTR ?lensFlareVerts@@3PAUTpoint@@A[eax+8]
	mulss	xmm0, DWORD PTR _radius$[ebp]
	mov	ecx, 28					; 0000001cH
	shl	ecx, 0
	movss	DWORD PTR _v$[ebp+ecx+8], xmm0

; 2765 : 
; 2766 : 
; 2767 : 
; 2768 : 		if ( j == 2 || j == 8 || j == 9 )

	cmp	DWORD PTR _j$[ebp], 2
	je	SHORT $LN8@Draw2DLens
	cmp	DWORD PTR _j$[ebp], 8
	je	SHORT $LN8@Draw2DLens
	cmp	DWORD PTR _j$[ebp], 9
	jne	$LN9@Draw2DLens
$LN8@Draw2DLens:

; 2769 : 		{
; 2770 : 			v[0].pos.x = lensFlareVerts[0].x * radius * 0.8f;

	mov	edx, 12					; 0000000cH
	imul	edx, 0
	movss	xmm0, DWORD PTR ?lensFlareVerts@@3PAUTpoint@@A[edx]
	mulss	xmm0, DWORD PTR _radius$[ebp]
	mulss	xmm0, DWORD PTR __real@3f4ccccd
	mov	eax, 28					; 0000001cH
	imul	eax, 0
	movss	DWORD PTR _v$[ebp+eax], xmm0

; 2771 : 			v[0].pos.y = lensFlareVerts[0].y * radius * 0.8f;

	mov	ecx, 12					; 0000000cH
	imul	ecx, 0
	movss	xmm0, DWORD PTR ?lensFlareVerts@@3PAUTpoint@@A[ecx+4]
	mulss	xmm0, DWORD PTR _radius$[ebp]
	mulss	xmm0, DWORD PTR __real@3f4ccccd
	mov	edx, 28					; 0000001cH
	imul	edx, 0
	movss	DWORD PTR _v$[ebp+edx+4], xmm0

; 2772 : 			v[0].pos.z = lensFlareVerts[0].z * radius * 0.8f;

	mov	eax, 12					; 0000000cH
	imul	eax, 0
	movss	xmm0, DWORD PTR ?lensFlareVerts@@3PAUTpoint@@A[eax+8]
	mulss	xmm0, DWORD PTR _radius$[ebp]
	mulss	xmm0, DWORD PTR __real@3f4ccccd
	mov	ecx, 28					; 0000001cH
	imul	ecx, 0
	movss	DWORD PTR _v$[ebp+ecx+8], xmm0

; 2773 : 
; 2774 : 			vLast = v[1];

	mov	edx, 28					; 0000001cH
	shl	edx, 0
	lea	esi, DWORD PTR _v$[ebp+edx]
	mov	ecx, 7
	lea	edi, DWORD PTR _vLast$[ebp]
	rep movsd

; 2775 : 			vLasti = v[0];

	mov	eax, 28					; 0000001cH
	imul	eax, 0
	lea	esi, DWORD PTR _v$[ebp+eax]
	mov	ecx, 7
	lea	edi, DWORD PTR _vLasti$[ebp]
	rep movsd

; 2776 : 
; 2777 : 			for ( i = 1; i < numLensFlareVerts; i++ )

	mov	DWORD PTR _i$[ebp], 1
	jmp	SHORT $LN7@Draw2DLens
$LN6@Draw2DLens:
	mov	ecx, DWORD PTR _i$[ebp]
	add	ecx, 1
	mov	DWORD PTR _i$[ebp], ecx
$LN7@Draw2DLens:
	cmp	DWORD PTR _i$[ebp], 16			; 00000010H
	jge	$LN5@Draw2DLens

; 2778 : 			{
; 2779 : 				v[2].pos.x = lensFlareVerts[i].x * radius;

	mov	edx, DWORD PTR _i$[ebp]
	imul	edx, 12					; 0000000cH
	movss	xmm0, DWORD PTR ?lensFlareVerts@@3PAUTpoint@@A[edx]
	mulss	xmm0, DWORD PTR _radius$[ebp]
	mov	eax, 28					; 0000001cH
	shl	eax, 1
	movss	DWORD PTR _v$[ebp+eax], xmm0

; 2780 : 				v[2].pos.y = lensFlareVerts[i].y * radius;

	mov	ecx, DWORD PTR _i$[ebp]
	imul	ecx, 12					; 0000000cH
	movss	xmm0, DWORD PTR ?lensFlareVerts@@3PAUTpoint@@A[ecx+4]
	mulss	xmm0, DWORD PTR _radius$[ebp]
	mov	edx, 28					; 0000001cH
	shl	edx, 1
	movss	DWORD PTR _v$[ebp+edx+4], xmm0

; 2781 : 				v[2].pos.z = lensFlareVerts[i].z * radius;

	mov	eax, DWORD PTR _i$[ebp]
	imul	eax, 12					; 0000000cH
	movss	xmm0, DWORD PTR ?lensFlareVerts@@3PAUTpoint@@A[eax+8]
	mulss	xmm0, DWORD PTR _radius$[ebp]
	mov	ecx, 28					; 0000001cH
	shl	ecx, 1
	movss	DWORD PTR _v$[ebp+ecx+8], xmm0

; 2782 : 
; 2783 : 				v[3].pos.x = lensFlareVerts[i].x * radius * 0.8f;

	mov	edx, DWORD PTR _i$[ebp]
	imul	edx, 12					; 0000000cH
	movss	xmm0, DWORD PTR ?lensFlareVerts@@3PAUTpoint@@A[edx]
	mulss	xmm0, DWORD PTR _radius$[ebp]
	mulss	xmm0, DWORD PTR __real@3f4ccccd
	mov	eax, 28					; 0000001cH
	imul	eax, 3
	movss	DWORD PTR _v$[ebp+eax], xmm0

; 2784 : 				v[3].pos.y = lensFlareVerts[i].y * radius * 0.8f;

	mov	ecx, DWORD PTR _i$[ebp]
	imul	ecx, 12					; 0000000cH
	movss	xmm0, DWORD PTR ?lensFlareVerts@@3PAUTpoint@@A[ecx+4]
	mulss	xmm0, DWORD PTR _radius$[ebp]
	mulss	xmm0, DWORD PTR __real@3f4ccccd
	mov	edx, 28					; 0000001cH
	imul	edx, 3
	movss	DWORD PTR _v$[ebp+edx+4], xmm0

; 2785 : 				v[3].pos.z = lensFlareVerts[i].z * radius * 0.8f;

	mov	eax, DWORD PTR _i$[ebp]
	imul	eax, 12					; 0000000cH
	movss	xmm0, DWORD PTR ?lensFlareVerts@@3PAUTpoint@@A[eax+8]
	mulss	xmm0, DWORD PTR _radius$[ebp]
	mulss	xmm0, DWORD PTR __real@3f4ccccd
	mov	ecx, 28					; 0000001cH
	imul	ecx, 3
	movss	DWORD PTR _v$[ebp+ecx+8], xmm0

; 2786 : 		
; 2787 : 				TheDXEngine.DX2D_AddQuad(LAYER_TOP, POLY_BB, (D3DXVECTOR3*)&position, v, radius, NULL);

	push	0
	push	ecx
	movss	xmm0, DWORD PTR _radius$[ebp]
	movss	DWORD PTR [esp], xmm0
	lea	edx, DWORD PTR _v$[ebp]
	push	edx
	lea	eax, DWORD PTR _position$[ebp]
	push	eax
	push	1
	push	5
	mov	ecx, OFFSET ?TheDXEngine@@3VCDXEngine@@A ; TheDXEngine
	call	?DX2D_AddQuad@CDXEngine@@QAEXKKPAUD3DXVECTOR3@@PAUD3DDYNVERTEX@@MK@Z ; CDXEngine::DX2D_AddQuad

; 2788 : 		
; 2789 : 				// move v2 to v1 for next time thru loop
; 2790 : 				v[1] = v[2];

	mov	ecx, 28					; 0000001cH
	shl	ecx, 1
	lea	esi, DWORD PTR _v$[ebp+ecx]
	mov	edx, 28					; 0000001cH
	shl	edx, 0
	lea	edi, DWORD PTR _v$[ebp+edx]
	mov	ecx, 7
	rep movsd

; 2791 : 				v[0] = v[3];

	mov	eax, 28					; 0000001cH
	imul	eax, 3
	lea	esi, DWORD PTR _v$[ebp+eax]
	mov	ecx, 28					; 0000001cH
	imul	ecx, 0
	lea	edi, DWORD PTR _v$[ebp+ecx]
	mov	ecx, 7
	rep movsd

; 2792 : 			}

	jmp	$LN6@Draw2DLens
$LN5@Draw2DLens:

; 2793 : 			v[2]=vLast; v[3]=vLasti;

	mov	edx, 28					; 0000001cH
	shl	edx, 1
	lea	edi, DWORD PTR _v$[ebp+edx]
	mov	ecx, 7
	lea	esi, DWORD PTR _vLast$[ebp]
	rep movsd
	mov	eax, 28					; 0000001cH
	imul	eax, 3
	lea	edi, DWORD PTR _v$[ebp+eax]
	mov	ecx, 7
	lea	esi, DWORD PTR _vLasti$[ebp]
	rep movsd

; 2794 : 			TheDXEngine.DX2D_AddQuad(LAYER_TOP, POLY_BB, (D3DXVECTOR3*)&position, v, radius, NULL);

	push	0
	push	ecx
	movss	xmm0, DWORD PTR _radius$[ebp]
	movss	DWORD PTR [esp], xmm0
	lea	ecx, DWORD PTR _v$[ebp]
	push	ecx
	lea	edx, DWORD PTR _position$[ebp]
	push	edx
	push	1
	push	5
	mov	ecx, OFFSET ?TheDXEngine@@3VCDXEngine@@A ; TheDXEngine
	call	?DX2D_AddQuad@CDXEngine@@QAEXKKPAUD3DXVECTOR3@@PAUD3DDYNVERTEX@@MK@Z ; CDXEngine::DX2D_AddQuad

; 2795 : 
; 2796 : 		}
; 2797 : 		else

	jmp	$LN4@Draw2DLens
$LN9@Draw2DLens:

; 2798 : 		{
; 2799 : 			// Setup the Center
; 2800 : 			v[0].pos.x = 0;

	mov	eax, 28					; 0000001cH
	imul	eax, 0
	movss	xmm0, DWORD PTR __real@00000000
	movss	DWORD PTR _v$[ebp+eax], xmm0

; 2801 : 			v[0].pos.y = 0;

	mov	ecx, 28					; 0000001cH
	imul	ecx, 0
	movss	xmm0, DWORD PTR __real@00000000
	movss	DWORD PTR _v$[ebp+ecx+4], xmm0

; 2802 : 			v[0].pos.z = 0;

	mov	edx, 28					; 0000001cH
	imul	edx, 0
	movss	xmm0, DWORD PTR __real@00000000
	movss	DWORD PTR _v$[ebp+edx+8], xmm0

; 2803 : 			v[0].dwSpecular=0x00000000;

	mov	eax, 28					; 0000001cH
	imul	eax, 0
	mov	DWORD PTR _v$[ebp+eax+16], 0

; 2804 : 			v[0].dwColour=ColorOut & 0x00ffffff;

	mov	ecx, DWORD PTR _ColorOut$3[ebp]
	and	ecx, 16777215				; 00ffffffH
	mov	edx, 28					; 0000001cH
	imul	edx, 0
	mov	DWORD PTR _v$[ebp+edx+12], ecx

; 2805 : 
; 2806 : 			// Now the circle vertices
; 2807 : 			for ( i = 0; i < numLensFlareVerts; i++ )

	mov	DWORD PTR _i$[ebp], 0
	jmp	SHORT $LN3@Draw2DLens
$LN2@Draw2DLens:
	mov	eax, DWORD PTR _i$[ebp]
	add	eax, 1
	mov	DWORD PTR _i$[ebp], eax
$LN3@Draw2DLens:
	cmp	DWORD PTR _i$[ebp], 16			; 00000010H
	jge	$LN1@Draw2DLens

; 2808 : 			{
; 2809 : 				v[i+1].pos.x = lensFlareVerts[i].x * radius;

	mov	ecx, DWORD PTR _i$[ebp]
	imul	ecx, 12					; 0000000cH
	movss	xmm0, DWORD PTR ?lensFlareVerts@@3PAUTpoint@@A[ecx]
	mulss	xmm0, DWORD PTR _radius$[ebp]
	mov	edx, DWORD PTR _i$[ebp]
	add	edx, 1
	imul	edx, 28					; 0000001cH
	movss	DWORD PTR _v$[ebp+edx], xmm0

; 2810 : 				v[i+1].pos.y = lensFlareVerts[i].y * radius;

	mov	eax, DWORD PTR _i$[ebp]
	imul	eax, 12					; 0000000cH
	movss	xmm0, DWORD PTR ?lensFlareVerts@@3PAUTpoint@@A[eax+4]
	mulss	xmm0, DWORD PTR _radius$[ebp]
	mov	ecx, DWORD PTR _i$[ebp]
	add	ecx, 1
	imul	ecx, 28					; 0000001cH
	movss	DWORD PTR _v$[ebp+ecx+4], xmm0

; 2811 : 				v[i+1].pos.z = lensFlareVerts[i].z * radius;

	mov	edx, DWORD PTR _i$[ebp]
	imul	edx, 12					; 0000000cH
	movss	xmm0, DWORD PTR ?lensFlareVerts@@3PAUTpoint@@A[edx+8]
	mulss	xmm0, DWORD PTR _radius$[ebp]
	mov	eax, DWORD PTR _i$[ebp]
	add	eax, 1
	imul	eax, 28					; 0000001cH
	movss	DWORD PTR _v$[ebp+eax+8], xmm0

; 2812 : 				v[i+1].dwSpecular=0x00000000;

	mov	ecx, DWORD PTR _i$[ebp]
	add	ecx, 1
	imul	ecx, 28					; 0000001cH
	mov	DWORD PTR _v$[ebp+ecx+16], 0

; 2813 : 				v[i+1].dwColour=ColorOut;

	mov	edx, DWORD PTR _i$[ebp]
	add	edx, 1
	imul	edx, 28					; 0000001cH
	mov	eax, DWORD PTR _ColorOut$3[ebp]
	mov	DWORD PTR _v$[ebp+edx+12], eax

; 2814 : 
; 2815 : 			}

	jmp	$LN2@Draw2DLens
$LN1@Draw2DLens:

; 2816 : 
; 2817 : 			// Close the Circle
; 2818 : 			v[i+1].pos.x = lensFlareVerts[0].x * radius;

	mov	ecx, 12					; 0000000cH
	imul	ecx, 0
	movss	xmm0, DWORD PTR ?lensFlareVerts@@3PAUTpoint@@A[ecx]
	mulss	xmm0, DWORD PTR _radius$[ebp]
	mov	edx, DWORD PTR _i$[ebp]
	add	edx, 1
	imul	edx, 28					; 0000001cH
	movss	DWORD PTR _v$[ebp+edx], xmm0

; 2819 : 			v[i+1].pos.y = lensFlareVerts[0].y * radius;

	mov	eax, 12					; 0000000cH
	imul	eax, 0
	movss	xmm0, DWORD PTR ?lensFlareVerts@@3PAUTpoint@@A[eax+4]
	mulss	xmm0, DWORD PTR _radius$[ebp]
	mov	ecx, DWORD PTR _i$[ebp]
	add	ecx, 1
	imul	ecx, 28					; 0000001cH
	movss	DWORD PTR _v$[ebp+ecx+4], xmm0

; 2820 : 			v[i+1].pos.z = lensFlareVerts[0].z * radius;

	mov	edx, 12					; 0000000cH
	imul	edx, 0
	movss	xmm0, DWORD PTR ?lensFlareVerts@@3PAUTpoint@@A[edx+8]
	mulss	xmm0, DWORD PTR _radius$[ebp]
	mov	eax, DWORD PTR _i$[ebp]
	add	eax, 1
	imul	eax, 28					; 0000001cH
	movss	DWORD PTR _v$[ebp+eax+8], xmm0

; 2821 : 			v[i+1].dwSpecular=0x00000000;

	mov	ecx, DWORD PTR _i$[ebp]
	add	ecx, 1
	imul	ecx, 28					; 0000001cH
	mov	DWORD PTR _v$[ebp+ecx+16], 0

; 2822 : 			v[i+1].dwColour=ColorOut;

	mov	edx, DWORD PTR _i$[ebp]
	add	edx, 1
	imul	edx, 28					; 0000001cH
	mov	eax, DWORD PTR _ColorOut$3[ebp]
	mov	DWORD PTR _v$[ebp+edx+12], eax

; 2823 : 
; 2824 : 			// And draw the FAN
; 2825 : 			TheDXEngine.DX2D_AddPoly(LAYER_TOP, POLY_BB | POLY_FAN, (D3DXVECTOR3*)&position, v, radius, numLensFlareVerts + 2, NULL);

	push	0
	push	18					; 00000012H
	push	ecx
	movss	xmm0, DWORD PTR _radius$[ebp]
	movss	DWORD PTR [esp], xmm0
	lea	ecx, DWORD PTR _v$[ebp]
	push	ecx
	lea	edx, DWORD PTR _position$[ebp]
	push	edx
	push	1048577					; 00100001H
	push	5
	mov	ecx, OFFSET ?TheDXEngine@@3VCDXEngine@@A ; TheDXEngine
	call	?DX2D_AddPoly@CDXEngine@@QAEXKKPAUD3DXVECTOR3@@PAUD3DDYNVERTEX@@MKK@Z ; CDXEngine::DX2D_AddPoly
$LN4@Draw2DLens:

; 2826 : 		}
; 2827 : 
; 2828 : 
; 2829 : 	} // end for number of circles

	jmp	$LN13@Draw2DLens
$LN12@Draw2DLens:
$LN21@Draw2DLens:

; 2830 : }

	pop	edi
	pop	esi
	mov	ecx, DWORD PTR __$ArrayPad$[ebp]
	xor	ecx, ebp
	call	@__security_check_cookie@4
	mov	esp, ebp
	pop	ebp
	ret	0
?Draw2DLensFlare@@YAXPAVRenderOTW@@@Z ENDP		; Draw2DLensFlare
_TEXT	ENDS
; Function compile flags: /Odtp
;	COMDAT ??_GDrawable2D@@UAEPAXI@Z
_TEXT	SEGMENT
_this$ = -4						; size = 4
___flags$ = 8						; size = 4
??_GDrawable2D@@UAEPAXI@Z PROC				; Drawable2D::`scalar deleting destructor', COMDAT
; _this$ = ecx
	push	ebp
	mov	ebp, esp
	push	ecx
	mov	DWORD PTR _this$[ebp], ecx
	mov	ecx, DWORD PTR _this$[ebp]
	call	??1Drawable2D@@UAE@XZ			; Drawable2D::~Drawable2D
	mov	eax, DWORD PTR ___flags$[ebp]
	and	eax, 1
	je	SHORT $LN1@scalar
	mov	ecx, DWORD PTR _this$[ebp]
	push	ecx
	call	??3@YAXPAX@Z				; operator delete
	add	esp, 4
$LN1@scalar:
	mov	eax, DWORD PTR _this$[ebp]
	mov	esp, ebp
	pop	ebp
	ret	4
??_GDrawable2D@@UAEPAXI@Z ENDP				; Drawable2D::`scalar deleting destructor'
_TEXT	ENDS
; Function compile flags: /Odtp
; File c:\users\zhitao li\documents\visual studio 2012\projects\freefalcon\graphics\objects\draw2d.cpp
_TEXT	SEGMENT
_i$ = -4						; size = 4
_rc$ = 8						; size = 4
?ReleaseTexturesOnDevice@Drawable2D@@SAXPAVDXContext@@@Z PROC ; Drawable2D::ReleaseTexturesOnDevice

; 2158 : {

	push	ebp
	mov	ebp, esp
	push	ecx

; 2159 : 	int i;
; 2160 : 
; 2161 : 	// Stop receiving time updates
; 2162 : 	TheTimeManager.ReleaseTimeUpdateCB( TimeUpdateCallback, NULL );

	push	0
	push	OFFSET ?TimeUpdateCallback@Drawable2D@@KAXPAX@Z ; Drawable2D::TimeUpdateCallback
	mov	ecx, OFFSET ?TheTimeManager@@3VTimeManager@@A ; TheTimeManager
	call	?ReleaseTimeUpdateCB@TimeManager@@QAEXP6AXPAX@Z0@Z ; TimeManager::ReleaseTimeUpdateCB

; 2163 : 
; 2164 : 
; 2165 : 	// release sheets
; 2166 : 	for ( i = 0; i < NUM_TEX_SHEETS; i++ )

	mov	DWORD PTR _i$[ebp], 0
	jmp	SHORT $LN9@ReleaseTex
$LN8@ReleaseTex:
	mov	eax, DWORD PTR _i$[ebp]
	add	eax, 1
	mov	DWORD PTR _i$[ebp], eax
$LN9@ReleaseTex:
	cmp	DWORD PTR _i$[ebp], 32			; 00000020H
	jge	SHORT $LN7@ReleaseTex

; 2167 : 	{
; 2168 : 		if ( i >= 0 && i < NUM_TEXTURES_USED || i >= 15 && i < 15 + NUM_TEXTURES_USED )

	cmp	DWORD PTR _i$[ebp], 0
	jl	SHORT $LN4@ReleaseTex
	cmp	DWORD PTR _i$[ebp], 7
	jl	SHORT $LN5@ReleaseTex
$LN4@ReleaseTex:
	cmp	DWORD PTR _i$[ebp], 15			; 0000000fH
	jl	SHORT $LN6@ReleaseTex
	cmp	DWORD PTR _i$[ebp], 22			; 00000016H
	jge	SHORT $LN6@ReleaseTex
$LN5@ReleaseTex:

; 2169 : 		{
; 2170 : 			gGlobTextures[i].FreeAll();

	mov	ecx, DWORD PTR _i$[ebp]
	imul	ecx, 24					; 00000018H
	add	ecx, OFFSET ?gGlobTextures@@3PAVTexture@@A ; gGlobTextures
	call	?FreeAll@Texture@@QAEXXZ		; Texture::FreeAll
$LN6@ReleaseTex:

; 2171 : 		}
; 2172 : 	}

	jmp	SHORT $LN8@ReleaseTex
$LN7@ReleaseTex:

; 2173 : 
; 2174 : 	// release apl textures
; 2175 : 	for ( i = 0; i < NUM_APL_TEXTURES; i++ )

	mov	DWORD PTR _i$[ebp], 0
	jmp	SHORT $LN3@ReleaseTex
$LN2@ReleaseTex:
	mov	ecx, DWORD PTR _i$[ebp]
	add	ecx, 1
	mov	DWORD PTR _i$[ebp], ecx
$LN3@ReleaseTex:
	cmp	DWORD PTR _i$[ebp], 11			; 0000000bH
	jge	SHORT $LN10@ReleaseTex

; 2176 : 	{
; 2177 : 		gAplTextures[i].FreeAll();

	mov	ecx, DWORD PTR _i$[ebp]
	imul	ecx, 24					; 00000018H
	add	ecx, OFFSET ?gAplTextures@@3PAVTexture@@A ; gAplTextures
	call	?FreeAll@Texture@@QAEXXZ		; Texture::FreeAll

; 2178 : 		gAplTexturesGreen[i].FreeAll();

	mov	ecx, DWORD PTR _i$[ebp]
	imul	ecx, 24					; 00000018H
	add	ecx, OFFSET ?gAplTexturesGreen@@3PAVTexture@@A ; gAplTexturesGreen
	call	?FreeAll@Texture@@QAEXXZ		; Texture::FreeAll

; 2179 : 	}

	jmp	SHORT $LN2@ReleaseTex
$LN10@ReleaseTex:

; 2180 : }

	mov	esp, ebp
	pop	ebp
	ret	0
?ReleaseTexturesOnDevice@Drawable2D@@SAXPAVDXContext@@@Z ENDP ; Drawable2D::ReleaseTexturesOnDevice
_TEXT	ENDS
; Function compile flags: /Odtp
; File c:\users\zhitao li\documents\visual studio 2012\projects\freefalcon\graphics\objects\draw2d.cpp
_TEXT	SEGMENT
tv1025 = -172						; size = 4
tv1134 = -168						; size = 4
tv1140 = -164						; size = 4
tv1006 = -160						; size = 4
tv1113 = -156						; size = 4
tv1138 = -152						; size = 4
tv1142 = -148						; size = 4
tv1076 = -144						; size = 4
tv1136 = -140						; size = 4
tv1043 = -136						; size = 4
tv1106 = -132						; size = 4
tv1132 = -128						; size = 4
_g$ = -124						; size = 4
_b$ = -120						; size = 4
_r$ = -116						; size = 4
tv180 = -112						; size = 4
_radius$ = -108						; size = 4
_radstep$ = -104					; size = 4
_aplPalI$1 = -100					; size = 4
_aplPal0$ = -96						; size = 4
_globPal$2 = -92					; size = 4
_intalp$ = -88						; size = 4
_rad$ = -84						; size = 4
_alp$ = -80						; size = 4
_j$ = -76						; size = 4
_i$ = -72						; size = 4
_texfile$ = -68						; size = 64
__$ArrayPad$ = -4					; size = 4
_rc$ = 8						; size = 4
?SetupTexturesOnDevice@Drawable2D@@SAXPAVDXContext@@@Z PROC ; Drawable2D::SetupTexturesOnDevice

; 1814 : {

	push	ebp
	mov	ebp, esp
	sub	esp, 172				; 000000acH
	mov	eax, DWORD PTR ___security_cookie
	xor	eax, ebp
	mov	DWORD PTR __$ArrayPad$[ebp], eax
	push	esi

; 1815 : 	int i, j;
; 1816 : 	char texfile[64];
; 1817 : 	float alp;
; 1818 : 	int intalp;
; 1819 : 	int r,g,b;
; 1820 : 
; 1821 : 	sLOD = 1.0f;

	movss	xmm0, DWORD PTR __real@3f800000
	movss	DWORD PTR _sLOD, xmm0

; 1822 : 	sGreenMode = 0;

	mov	DWORD PTR ?sGreenMode@@3HA, 0		; sGreenMode

; 1823 : 
; 1824 : 	for ( i = 0; i < NUM_TEX_SHEETS; i++ )

	mov	DWORD PTR _i$[ebp], 0
	jmp	SHORT $LN81@SetupTextu
$LN80@SetupTextu:
	mov	eax, DWORD PTR _i$[ebp]
	add	eax, 1
	mov	DWORD PTR _i$[ebp], eax
$LN81@SetupTextu:
	cmp	DWORD PTR _i$[ebp], 32			; 00000020H
	jge	$LN79@SetupTextu

; 1825 : 	{
; 1826 : 		if ( i >= 0 && i < NUM_TEXTURES_USED || i >= 15 && i < 15 + NUM_TEXTURES_USED )

	cmp	DWORD PTR _i$[ebp], 0
	jl	SHORT $LN76@SetupTextu
	cmp	DWORD PTR _i$[ebp], 7
	jl	SHORT $LN77@SetupTextu
$LN76@SetupTextu:
	cmp	DWORD PTR _i$[ebp], 15			; 0000000fH
	jl	$LN65@SetupTextu
	cmp	DWORD PTR _i$[ebp], 22			; 00000016H
	jge	$LN65@SetupTextu
$LN77@SetupTextu:

; 1827 : 		{
; 1828 : 			sprintf( texfile, "bom00%02d.gif", i+1 );

	mov	ecx, DWORD PTR _i$[ebp]
	add	ecx, 1
	push	ecx
	push	OFFSET ??_C@_0O@NBIDGJOC@bom00?$CF02d?4gif?$AA@
	lea	edx, DWORD PTR _texfile$[ebp]
	push	edx
	call	_sprintf
	add	esp, 12					; 0000000cH

; 1829 : 
; 1830 : 			// it looks like the way we share a palette is to set the texture
; 1831 : 			// palette prior to LoadAndCreate
; 1832 : 			if ( i > 0 && i < NUM_TEXTURES_USED )

	cmp	DWORD PTR _i$[ebp], 0
	jle	SHORT $LN75@SetupTextu
	cmp	DWORD PTR _i$[ebp], 7
	jge	SHORT $LN75@SetupTextu

; 1833 : 			{
; 1834 : 				gGlobTextures[i].SetPalette(gGlobTextures[0].GetPalette());

	mov	ecx, 24					; 00000018H
	imul	ecx, 0
	add	ecx, OFFSET ?gGlobTextures@@3PAVTexture@@A ; gGlobTextures
	call	?GetPalette@Texture@@QAEPAVPalette@@XZ	; Texture::GetPalette
	push	eax
	mov	ecx, DWORD PTR _i$[ebp]
	imul	ecx, 24					; 00000018H
	add	ecx, OFFSET ?gGlobTextures@@3PAVTexture@@A ; gGlobTextures
	call	?SetPalette@Texture@@QAEXPAVPalette@@@Z	; Texture::SetPalette
	jmp	SHORT $LN73@SetupTextu
$LN75@SetupTextu:

; 1835 : 			}
; 1836 : 			else if ( i > 15 && i < 15 + NUM_TEXTURES_USED )

	cmp	DWORD PTR _i$[ebp], 15			; 0000000fH
	jle	SHORT $LN73@SetupTextu
	cmp	DWORD PTR _i$[ebp], 22			; 00000016H
	jge	SHORT $LN73@SetupTextu

; 1837 : 			{
; 1838 : 				gGlobTextures[i].SetPalette(gGlobTextures[15].GetPalette());

	mov	ecx, 24					; 00000018H
	imul	ecx, 15					; 0000000fH
	add	ecx, OFFSET ?gGlobTextures@@3PAVTexture@@A ; gGlobTextures
	call	?GetPalette@Texture@@QAEPAVPalette@@XZ	; Texture::GetPalette
	push	eax
	mov	ecx, DWORD PTR _i$[ebp]
	imul	ecx, 24					; 00000018H
	add	ecx, OFFSET ?gGlobTextures@@3PAVTexture@@A ; gGlobTextures
	call	?SetPalette@Texture@@QAEXPAVPalette@@@Z	; Texture::SetPalette
$LN73@SetupTextu:

; 1839 : 			}
; 1840 : 
; 1841 : 			if ( i == 0 )

	cmp	DWORD PTR _i$[ebp], 0
	jne	$LN72@SetupTextu

; 1842 : 			{
; 1843 : 				gGlobTextures[0].LoadAndCreate( texfile, MPR_TI_CHROMAKEY | MPR_TI_PALETTE | MPR_TI_ALPHA );

	push	224					; 000000e0H
	lea	eax, DWORD PTR _texfile$[ebp]
	push	eax
	mov	ecx, 24					; 00000018H
	imul	ecx, 0
	add	ecx, OFFSET ?gGlobTextures@@3PAVTexture@@A ; gGlobTextures
	call	?LoadAndCreate@Texture@@QAEHPADK@Z	; Texture::LoadAndCreate

; 1844 : 				Palette *globPal = gGlobTextures[0].GetPalette();

	mov	ecx, 24					; 00000018H
	imul	ecx, 0
	add	ecx, OFFSET ?gGlobTextures@@3PAVTexture@@A ; gGlobTextures
	call	?GetPalette@Texture@@QAEPAVPalette@@XZ	; Texture::GetPalette
	mov	DWORD PTR _globPal$2[ebp], eax

; 1845 : 				for ( j = 0; j < 256; j++ )

	mov	DWORD PTR _j$[ebp], 0
	jmp	SHORT $LN71@SetupTextu
$LN70@SetupTextu:
	mov	ecx, DWORD PTR _j$[ebp]
	add	ecx, 1
	mov	DWORD PTR _j$[ebp], ecx
$LN71@SetupTextu:
	cmp	DWORD PTR _j$[ebp], 256			; 00000100H
	jge	$LN69@SetupTextu

; 1846 : 				{
; 1847 : 					intalp = (globPal->paletteData[j] >> 24);

	mov	edx, DWORD PTR _j$[ebp]
	mov	eax, DWORD PTR _globPal$2[ebp]
	mov	ecx, DWORD PTR [eax+edx*4]
	shr	ecx, 24					; 00000018H
	mov	DWORD PTR _intalp$[ebp], ecx

; 1848 : 					globPal->paletteData[j] &= 0x00ffffff;

	mov	edx, DWORD PTR _j$[ebp]
	mov	eax, DWORD PTR _globPal$2[ebp]
	mov	ecx, DWORD PTR [eax+edx*4]
	and	ecx, 16777215				; 00ffffffH
	mov	edx, DWORD PTR _j$[ebp]
	mov	eax, DWORD PTR _globPal$2[ebp]
	mov	DWORD PTR [eax+edx*4], ecx

; 1849 : 					if ( j == 0 )

	cmp	DWORD PTR _j$[ebp], 0
	jne	SHORT $LN68@SetupTextu

; 1850 : 						continue;

	jmp	SHORT $LN70@SetupTextu
$LN68@SetupTextu:

; 1851 : 					alp = 255.0f * 0.5f +  255.0f * 0.5f * NRANDPOS;

	call	_rand
	cvtsi2ss xmm0, eax
	divss	xmm0, DWORD PTR __real@46fffe00
	mulss	xmm0, DWORD PTR __real@42ff0000
	addss	xmm0, DWORD PTR __real@42ff0000
	movss	DWORD PTR _alp$[ebp], xmm0

; 1852 : 					intalp = FloatToInt32( alp );

	push	ecx
	movss	xmm0, DWORD PTR _alp$[ebp]
	movss	DWORD PTR [esp], xmm0
	call	?FloatToInt32@@YAHM@Z			; FloatToInt32
	add	esp, 4
	mov	DWORD PTR _intalp$[ebp], eax

; 1853 : 
; 1854 : 					r = (globPal->paletteData[j] & 0x000000ff);

	mov	ecx, DWORD PTR _j$[ebp]
	mov	edx, DWORD PTR _globPal$2[ebp]
	mov	eax, DWORD PTR [edx+ecx*4]
	and	eax, 255				; 000000ffH
	mov	DWORD PTR _r$[ebp], eax

; 1855 : 					g = (globPal->paletteData[j] & 0x0000ff00) >> 8;

	mov	ecx, DWORD PTR _j$[ebp]
	mov	edx, DWORD PTR _globPal$2[ebp]
	mov	eax, DWORD PTR [edx+ecx*4]
	and	eax, 65280				; 0000ff00H
	shr	eax, 8
	mov	DWORD PTR _g$[ebp], eax

; 1856 : 					b = (globPal->paletteData[j] & 0x00ff0000) >> 16;

	mov	ecx, DWORD PTR _j$[ebp]
	mov	edx, DWORD PTR _globPal$2[ebp]
	mov	eax, DWORD PTR [edx+ecx*4]
	and	eax, 16711680				; 00ff0000H
	shr	eax, 16					; 00000010H
	mov	DWORD PTR _b$[ebp], eax

; 1857 : 
; 1858 : 					intalp = max( ( r + b + g )/3, 120 );

	mov	eax, DWORD PTR _r$[ebp]
	add	eax, DWORD PTR _b$[ebp]
	add	eax, DWORD PTR _g$[ebp]
	cdq
	mov	ecx, 3
	idiv	ecx
	cmp	eax, 120				; 00000078H
	jle	SHORT $LN84@SetupTextu
	mov	eax, DWORD PTR _r$[ebp]
	add	eax, DWORD PTR _b$[ebp]
	add	eax, DWORD PTR _g$[ebp]
	cdq
	mov	ecx, 3
	idiv	ecx
	mov	DWORD PTR tv180[ebp], eax
	jmp	SHORT $LN85@SetupTextu
$LN84@SetupTextu:
	mov	DWORD PTR tv180[ebp], 120		; 00000078H
$LN85@SetupTextu:
	mov	edx, DWORD PTR tv180[ebp]
	mov	DWORD PTR _intalp$[ebp], edx

; 1859 : 					globPal->paletteData[j] |= ( intalp << 24 );

	mov	eax, DWORD PTR _intalp$[ebp]
	shl	eax, 24					; 00000018H
	mov	ecx, DWORD PTR _j$[ebp]
	mov	edx, DWORD PTR _globPal$2[ebp]
	or	eax, DWORD PTR [edx+ecx*4]
	mov	ecx, DWORD PTR _j$[ebp]
	mov	edx, DWORD PTR _globPal$2[ebp]
	mov	DWORD PTR [edx+ecx*4], eax

; 1860 : 				}

	jmp	$LN70@SetupTextu
$LN69@SetupTextu:

; 1861 : 				globPal->UpdateMPR( globPal->paletteData );

	mov	eax, DWORD PTR _globPal$2[ebp]
	push	eax
	mov	ecx, DWORD PTR _globPal$2[ebp]
	call	?UpdateMPR@Palette@@QAEXPAK@Z		; Palette::UpdateMPR
	jmp	SHORT $LN65@SetupTextu
$LN72@SetupTextu:

; 1862 : 			}
; 1863 : 			else if ( i < NUM_TEXTURES_USED )

	cmp	DWORD PTR _i$[ebp], 7
	jge	SHORT $LN66@SetupTextu

; 1864 : 			{
; 1865 : 				gGlobTextures[i].LoadAndCreate( texfile, MPR_TI_CHROMAKEY | MPR_TI_PALETTE | MPR_TI_ALPHA );

	push	224					; 000000e0H
	lea	ecx, DWORD PTR _texfile$[ebp]
	push	ecx
	mov	ecx, DWORD PTR _i$[ebp]
	imul	ecx, 24					; 00000018H
	add	ecx, OFFSET ?gGlobTextures@@3PAVTexture@@A ; gGlobTextures
	call	?LoadAndCreate@Texture@@QAEHPADK@Z	; Texture::LoadAndCreate

; 1866 : 			}
; 1867 : 			else

	jmp	SHORT $LN65@SetupTextu
$LN66@SetupTextu:

; 1868 : 			{
; 1869 : 				gGlobTextures[i].LoadAndCreate( texfile, MPR_TI_CHROMAKEY | MPR_TI_PALETTE );

	push	160					; 000000a0H
	lea	edx, DWORD PTR _texfile$[ebp]
	push	edx
	mov	ecx, DWORD PTR _i$[ebp]
	imul	ecx, 24					; 00000018H
	add	ecx, OFFSET ?gGlobTextures@@3PAVTexture@@A ; gGlobTextures
	call	?LoadAndCreate@Texture@@QAEHPADK@Z	; Texture::LoadAndCreate
$LN65@SetupTextu:

; 1870 : 			}
; 1871 : 		}
; 1872 : 	}

	jmp	$LN80@SetupTextu
$LN79@SetupTextu:

; 1873 : 
; 1874 : 	// setup the scatter plotting
; 1875 : 	for ( i = 0; i < NUM_FIRE_SCATTER_FRAMES; i++ )

	mov	DWORD PTR _i$[ebp], 0
	jmp	SHORT $LN64@SetupTextu
$LN63@SetupTextu:
	mov	eax, DWORD PTR _i$[ebp]
	add	eax, 1
	mov	DWORD PTR _i$[ebp], eax
$LN64@SetupTextu:
	cmp	DWORD PTR _i$[ebp], 8
	jge	$LN62@SetupTextu

; 1876 : 	{
; 1877 : 		for ( j = 0; j < NUM_FIRE_SCATTER_POINTS; j++ )

	mov	DWORD PTR _j$[ebp], 0
	jmp	SHORT $LN61@SetupTextu
$LN60@SetupTextu:
	mov	ecx, DWORD PTR _j$[ebp]
	add	ecx, 1
	mov	DWORD PTR _j$[ebp], ecx
$LN61@SetupTextu:
	cmp	DWORD PTR _j$[ebp], 12			; 0000000cH
	jge	$LN59@SetupTextu

; 1878 : 		{
; 1879 : 			if ( i == 0 )

	cmp	DWORD PTR _i$[ebp], 0
	jne	$LN58@SetupTextu

; 1880 : 			{
; 1881 : 				gFireScatterPoints[i][j].x = (float)((float)rand()/(float)RAND_MAX);

	call	_rand
	cvtsi2ss xmm0, eax
	divss	xmm0, DWORD PTR __real@46fffe00
	mov	edx, DWORD PTR _i$[ebp]
	imul	edx, 144				; 00000090H
	mov	eax, DWORD PTR _j$[ebp]
	imul	eax, 12					; 0000000cH
	movss	DWORD PTR ?gFireScatterPoints@@3PAY0M@UTpoint@@A[edx+eax], xmm0

; 1882 : 				if ( rand() & 1 )

	call	_rand
	and	eax, 1
	je	SHORT $LN57@SetupTextu

; 1883 : 					gFireScatterPoints[i][j].x = -gFireScatterPoints[i][j].x;

	mov	ecx, DWORD PTR _i$[ebp]
	imul	ecx, 144				; 00000090H
	mov	edx, DWORD PTR _j$[ebp]
	imul	edx, 12					; 0000000cH
	movss	xmm0, DWORD PTR ?gFireScatterPoints@@3PAY0M@UTpoint@@A[ecx+edx]
	xorps	xmm0, DWORD PTR __xmm@80000000800000008000000080000000
	mov	eax, DWORD PTR _i$[ebp]
	imul	eax, 144				; 00000090H
	mov	ecx, DWORD PTR _j$[ebp]
	imul	ecx, 12					; 0000000cH
	movss	DWORD PTR ?gFireScatterPoints@@3PAY0M@UTpoint@@A[eax+ecx], xmm0
$LN57@SetupTextu:

; 1884 : 				gFireScatterPoints[i][j].y = (float)((float)rand()/(float)RAND_MAX);

	call	_rand
	cvtsi2ss xmm0, eax
	divss	xmm0, DWORD PTR __real@46fffe00
	mov	edx, DWORD PTR _i$[ebp]
	imul	edx, 144				; 00000090H
	mov	eax, DWORD PTR _j$[ebp]
	imul	eax, 12					; 0000000cH
	movss	DWORD PTR ?gFireScatterPoints@@3PAY0M@UTpoint@@A[edx+eax+4], xmm0

; 1885 : 				if ( rand() & 1 )

	call	_rand
	and	eax, 1
	je	SHORT $LN56@SetupTextu

; 1886 : 					gFireScatterPoints[i][j].y = -gFireScatterPoints[i][j].y;

	mov	ecx, DWORD PTR _i$[ebp]
	imul	ecx, 144				; 00000090H
	mov	edx, DWORD PTR _j$[ebp]
	imul	edx, 12					; 0000000cH
	movss	xmm0, DWORD PTR ?gFireScatterPoints@@3PAY0M@UTpoint@@A[ecx+edx+4]
	xorps	xmm0, DWORD PTR __xmm@80000000800000008000000080000000
	mov	eax, DWORD PTR _i$[ebp]
	imul	eax, 144				; 00000090H
	mov	ecx, DWORD PTR _j$[ebp]
	imul	ecx, 12					; 0000000cH
	movss	DWORD PTR ?gFireScatterPoints@@3PAY0M@UTpoint@@A[eax+ecx+4], xmm0
$LN56@SetupTextu:

; 1887 : 				gFireScatterPoints[i][j].z = 0.3f + (float)((float)rand()/(float)RAND_MAX) * 0.7f;

	call	_rand
	cvtsi2ss xmm0, eax
	divss	xmm0, DWORD PTR __real@46fffe00
	mulss	xmm0, DWORD PTR __real@3f333333
	addss	xmm0, DWORD PTR __real@3e99999a
	mov	edx, DWORD PTR _i$[ebp]
	imul	edx, 144				; 00000090H
	mov	eax, DWORD PTR _j$[ebp]
	imul	eax, 12					; 0000000cH
	movss	DWORD PTR ?gFireScatterPoints@@3PAY0M@UTpoint@@A[edx+eax+8], xmm0

; 1888 : 										
; 1889 : 				continue;

	jmp	$LN60@SetupTextu
$LN58@SetupTextu:

; 1890 : 			}
; 1891 : 			gFireScatterPoints[i][j].x = gFireScatterPoints[i-1][j].x;

	mov	ecx, DWORD PTR _i$[ebp]
	sub	ecx, 1
	imul	ecx, 144				; 00000090H
	mov	edx, DWORD PTR _j$[ebp]
	imul	edx, 12					; 0000000cH
	mov	eax, DWORD PTR _i$[ebp]
	imul	eax, 144				; 00000090H
	mov	esi, DWORD PTR _j$[ebp]
	imul	esi, 12					; 0000000cH
	mov	ecx, DWORD PTR ?gFireScatterPoints@@3PAY0M@UTpoint@@A[ecx+edx]
	mov	DWORD PTR ?gFireScatterPoints@@3PAY0M@UTpoint@@A[eax+esi], ecx

; 1892 : 			gFireScatterPoints[i][j].y = gFireScatterPoints[i-1][j].y - 0.2f;

	mov	edx, DWORD PTR _i$[ebp]
	sub	edx, 1
	imul	edx, 144				; 00000090H
	mov	eax, DWORD PTR _j$[ebp]
	imul	eax, 12					; 0000000cH
	movss	xmm0, DWORD PTR ?gFireScatterPoints@@3PAY0M@UTpoint@@A[edx+eax+4]
	subss	xmm0, DWORD PTR __real@3e4ccccd
	mov	ecx, DWORD PTR _i$[ebp]
	imul	ecx, 144				; 00000090H
	mov	edx, DWORD PTR _j$[ebp]
	imul	edx, 12					; 0000000cH
	movss	DWORD PTR ?gFireScatterPoints@@3PAY0M@UTpoint@@A[ecx+edx+4], xmm0

; 1893 : 			gFireScatterPoints[i][j].z = gFireScatterPoints[i-1][j].z + 0.1f;

