; Listing generated by Microsoft (R) Optimizing Compiler Version 17.00.51106.1 

	TITLE	C:\Users\Zhitao Li\Documents\Visual Studio 2012\Projects\Freefalcon\UI\SRC\logbook\logbook.cpp
	.686P
	.XMM
	include listing.inc
	.model	flat

INCLUDELIB LIBCMT
INCLUDELIB OLDNAMES

PUBLIC	?traps@_Num_base@std@@2_NB			; std::_Num_base::traps
PUBLIC	?round_style@_Num_base@std@@2W4float_round_style@2@B ; std::_Num_base::round_style
PUBLIC	?digits@_Num_base@std@@2HB			; std::_Num_base::digits
PUBLIC	?digits10@_Num_base@std@@2HB			; std::_Num_base::digits10
PUBLIC	?max_digits10@_Num_base@std@@2HB		; std::_Num_base::max_digits10
PUBLIC	?max_exponent@_Num_base@std@@2HB		; std::_Num_base::max_exponent
PUBLIC	?max_exponent10@_Num_base@std@@2HB		; std::_Num_base::max_exponent10
PUBLIC	?min_exponent@_Num_base@std@@2HB		; std::_Num_base::min_exponent
PUBLIC	?min_exponent10@_Num_base@std@@2HB		; std::_Num_base::min_exponent10
PUBLIC	?radix@_Num_base@std@@2HB			; std::_Num_base::radix
PUBLIC	?is_bounded@_Num_int_base@std@@2_NB		; std::_Num_int_base::is_bounded
PUBLIC	?is_exact@_Num_int_base@std@@2_NB		; std::_Num_int_base::is_exact
PUBLIC	?is_integer@_Num_int_base@std@@2_NB		; std::_Num_int_base::is_integer
PUBLIC	?is_modulo@_Num_int_base@std@@2_NB		; std::_Num_int_base::is_modulo
PUBLIC	?is_specialized@_Num_int_base@std@@2_NB		; std::_Num_int_base::is_specialized
PUBLIC	?radix@_Num_int_base@std@@2HB			; std::_Num_int_base::radix
PUBLIC	?has_denorm@_Num_float_base@std@@2W4float_denorm_style@2@B ; std::_Num_float_base::has_denorm
PUBLIC	?has_denorm_loss@_Num_float_base@std@@2_NB	; std::_Num_float_base::has_denorm_loss
PUBLIC	?SIMDIRTYDATA_INTERVAL@FalconEntity@@2KB	; FalconEntity::SIMDIRTYDATA_INTERVAL
PUBLIC	?CMPDIRTYDATA_INTERVAL@FalconEntity@@2KB	; FalconEntity::CMPDIRTYDATA_INTERVAL
PUBLIC	?has_infinity@_Num_float_base@std@@2_NB		; std::_Num_float_base::has_infinity
PUBLIC	?has_quiet_NaN@_Num_float_base@std@@2_NB	; std::_Num_float_base::has_quiet_NaN
PUBLIC	?has_signaling_NaN@_Num_float_base@std@@2_NB	; std::_Num_float_base::has_signaling_NaN
PUBLIC	?is_bounded@_Num_float_base@std@@2_NB		; std::_Num_float_base::is_bounded
PUBLIC	?table_size@?$ctype@D@std@@2IB			; std::ctype<char>::table_size
PUBLIC	?is_exact@_Num_float_base@std@@2_NB		; std::_Num_float_base::is_exact
PUBLIC	?is_iec559@_Num_float_base@std@@2_NB		; std::_Num_float_base::is_iec559
PUBLIC	?is_integer@_Num_float_base@std@@2_NB		; std::_Num_float_base::is_integer
PUBLIC	?is_modulo@_Num_float_base@std@@2_NB		; std::_Num_float_base::is_modulo
PUBLIC	?is_signed@_Num_float_base@std@@2_NB		; std::_Num_float_base::is_signed
PUBLIC	?is_specialized@_Num_float_base@std@@2_NB	; std::_Num_float_base::is_specialized
PUBLIC	?MissionResult@@3HA				; MissionResult
PUBLIC	?tinyness_before@_Num_float_base@std@@2_NB	; std::_Num_float_base::tinyness_before
PUBLIC	?traps@_Num_float_base@std@@2_NB		; std::_Num_float_base::traps
PUBLIC	?round_style@_Num_float_base@std@@2W4float_round_style@2@B ; std::_Num_float_base::round_style
PUBLIC	?radix@_Num_float_base@std@@2HB			; std::_Num_float_base::radix
PUBLIC	?is_signed@?$numeric_limits@D@std@@2_NB		; std::numeric_limits<char>::is_signed
PUBLIC	?digits@?$numeric_limits@D@std@@2HB		; std::numeric_limits<char>::digits
PUBLIC	?digits10@?$numeric_limits@D@std@@2HB		; std::numeric_limits<char>::digits10
PUBLIC	?is_signed@?$numeric_limits@_W@std@@2_NB	; std::numeric_limits<wchar_t>::is_signed
PUBLIC	?digits@?$numeric_limits@_W@std@@2HB		; std::numeric_limits<wchar_t>::digits
PUBLIC	?digits10@?$numeric_limits@_W@std@@2HB		; std::numeric_limits<wchar_t>::digits10
PUBLIC	?is_modulo@?$numeric_limits@_N@std@@2_NB	; std::numeric_limits<bool>::is_modulo
PUBLIC	?is_signed@?$numeric_limits@_N@std@@2_NB	; std::numeric_limits<bool>::is_signed
PUBLIC	?digits@?$numeric_limits@_N@std@@2HB		; std::numeric_limits<bool>::digits
PUBLIC	?digits10@?$numeric_limits@_N@std@@2HB		; std::numeric_limits<bool>::digits10
PUBLIC	?nameWrank@@3PADA				; nameWrank
PUBLIC	?is_signed@?$numeric_limits@C@std@@2_NB		; std::numeric_limits<signed char>::is_signed
PUBLIC	?digits@?$numeric_limits@C@std@@2HB		; std::numeric_limits<signed char>::digits
PUBLIC	?digits10@?$numeric_limits@C@std@@2HB		; std::numeric_limits<signed char>::digits10
PUBLIC	?is_signed@?$numeric_limits@E@std@@2_NB		; std::numeric_limits<unsigned char>::is_signed
PUBLIC	?value@?$integral_constant@_N$0A@@std@@2_NB	; std::integral_constant<bool,0>::value
PUBLIC	?digits@?$numeric_limits@E@std@@2HB		; std::numeric_limits<unsigned char>::digits
PUBLIC	?digits10@?$numeric_limits@E@std@@2HB		; std::numeric_limits<unsigned char>::digits10
PUBLIC	?value@?$integral_constant@_N$00@std@@2_NB	; std::integral_constant<bool,1>::value
PUBLIC	?is_signed@?$numeric_limits@F@std@@2_NB		; std::numeric_limits<short>::is_signed
PUBLIC	?digits@?$numeric_limits@F@std@@2HB		; std::numeric_limits<short>::digits
PUBLIC	?digits10@?$numeric_limits@F@std@@2HB		; std::numeric_limits<short>::digits10
PUBLIC	?is_signed@?$numeric_limits@G@std@@2_NB		; std::numeric_limits<unsigned short>::is_signed
PUBLIC	?digits@?$numeric_limits@G@std@@2HB		; std::numeric_limits<unsigned short>::digits
PUBLIC	?digits10@?$numeric_limits@G@std@@2HB		; std::numeric_limits<unsigned short>::digits10
PUBLIC	?is_signed@?$numeric_limits@H@std@@2_NB		; std::numeric_limits<int>::is_signed
PUBLIC	?value@?$_Sizeof@HU_Nil@std@@U12@U12@U12@U12@U12@U12@@std@@2IB ; std::_Sizeof<int,std::_Nil,std::_Nil,std::_Nil,std::_Nil,std::_Nil,std::_Nil,std::_Nil>::value
PUBLIC	?digits@?$numeric_limits@H@std@@2HB		; std::numeric_limits<int>::digits
PUBLIC	?digits10@?$numeric_limits@H@std@@2HB		; std::numeric_limits<int>::digits10
PUBLIC	?is_signed@?$numeric_limits@I@std@@2_NB		; std::numeric_limits<unsigned int>::is_signed
PUBLIC	?digits@?$numeric_limits@I@std@@2HB		; std::numeric_limits<unsigned int>::digits
PUBLIC	?digits10@?$numeric_limits@I@std@@2HB		; std::numeric_limits<unsigned int>::digits10
PUBLIC	?is_signed@?$numeric_limits@J@std@@2_NB		; std::numeric_limits<long>::is_signed
PUBLIC	?digits@?$numeric_limits@J@std@@2HB		; std::numeric_limits<long>::digits
PUBLIC	?digits10@?$numeric_limits@J@std@@2HB		; std::numeric_limits<long>::digits10
PUBLIC	?is_signed@?$numeric_limits@K@std@@2_NB		; std::numeric_limits<unsigned long>::is_signed
PUBLIC	?digits@?$numeric_limits@K@std@@2HB		; std::numeric_limits<unsigned long>::digits
PUBLIC	?digits10@?$numeric_limits@K@std@@2HB		; std::numeric_limits<unsigned long>::digits10
PUBLIC	?is_signed@?$numeric_limits@_J@std@@2_NB	; std::numeric_limits<__int64>::is_signed
PUBLIC	?skipws@?$_Iosb@H@std@@2W4_Fmtflags@12@B	; std::_Iosb<int>::skipws
PUBLIC	?digits@?$numeric_limits@_J@std@@2HB		; std::numeric_limits<__int64>::digits
PUBLIC	?unitbuf@?$_Iosb@H@std@@2W4_Fmtflags@12@B	; std::_Iosb<int>::unitbuf
PUBLIC	?digits10@?$numeric_limits@_J@std@@2HB		; std::numeric_limits<__int64>::digits10
PUBLIC	?uppercase@?$_Iosb@H@std@@2W4_Fmtflags@12@B	; std::_Iosb<int>::uppercase
PUBLIC	?showbase@?$_Iosb@H@std@@2W4_Fmtflags@12@B	; std::_Iosb<int>::showbase
PUBLIC	?showpoint@?$_Iosb@H@std@@2W4_Fmtflags@12@B	; std::_Iosb<int>::showpoint
PUBLIC	?showpos@?$_Iosb@H@std@@2W4_Fmtflags@12@B	; std::_Iosb<int>::showpos
PUBLIC	?left@?$_Iosb@H@std@@2W4_Fmtflags@12@B		; std::_Iosb<int>::left
PUBLIC	?right@?$_Iosb@H@std@@2W4_Fmtflags@12@B		; std::_Iosb<int>::right
PUBLIC	?internal@?$_Iosb@H@std@@2W4_Fmtflags@12@B	; std::_Iosb<int>::internal
PUBLIC	?dec@?$_Iosb@H@std@@2W4_Fmtflags@12@B		; std::_Iosb<int>::dec
PUBLIC	?oct@?$_Iosb@H@std@@2W4_Fmtflags@12@B		; std::_Iosb<int>::oct
PUBLIC	?hex@?$_Iosb@H@std@@2W4_Fmtflags@12@B		; std::_Iosb<int>::hex
PUBLIC	?is_signed@?$numeric_limits@_K@std@@2_NB	; std::numeric_limits<unsigned __int64>::is_signed
PUBLIC	?scientific@?$_Iosb@H@std@@2W4_Fmtflags@12@B	; std::_Iosb<int>::scientific
PUBLIC	?fixed@?$_Iosb@H@std@@2W4_Fmtflags@12@B		; std::_Iosb<int>::fixed
PUBLIC	?digits@?$numeric_limits@_K@std@@2HB		; std::numeric_limits<unsigned __int64>::digits
PUBLIC	?hexfloat@?$_Iosb@H@std@@2W4_Fmtflags@12@B	; std::_Iosb<int>::hexfloat
PUBLIC	?digits10@?$numeric_limits@_K@std@@2HB		; std::numeric_limits<unsigned __int64>::digits10
PUBLIC	?boolalpha@?$_Iosb@H@std@@2W4_Fmtflags@12@B	; std::_Iosb<int>::boolalpha
PUBLIC	?_Stdio@?$_Iosb@H@std@@2W4_Fmtflags@12@B	; std::_Iosb<int>::_Stdio
PUBLIC	?adjustfield@?$_Iosb@H@std@@2W4_Fmtflags@12@B	; std::_Iosb<int>::adjustfield
PUBLIC	?basefield@?$_Iosb@H@std@@2W4_Fmtflags@12@B	; std::_Iosb<int>::basefield
PUBLIC	?floatfield@?$_Iosb@H@std@@2W4_Fmtflags@12@B	; std::_Iosb<int>::floatfield
PUBLIC	?goodbit@?$_Iosb@H@std@@2W4_Iostate@12@B	; std::_Iosb<int>::goodbit
PUBLIC	?eofbit@?$_Iosb@H@std@@2W4_Iostate@12@B		; std::_Iosb<int>::eofbit
PUBLIC	?failbit@?$_Iosb@H@std@@2W4_Iostate@12@B	; std::_Iosb<int>::failbit
PUBLIC	?badbit@?$_Iosb@H@std@@2W4_Iostate@12@B		; std::_Iosb<int>::badbit
PUBLIC	?digits@?$numeric_limits@M@std@@2HB		; std::numeric_limits<float>::digits
PUBLIC	?_Hardfail@?$_Iosb@H@std@@2W4_Iostate@12@B	; std::_Iosb<int>::_Hardfail
PUBLIC	?digits10@?$numeric_limits@M@std@@2HB		; std::numeric_limits<float>::digits10
PUBLIC	?max_digits10@?$numeric_limits@M@std@@2HB	; std::numeric_limits<float>::max_digits10
PUBLIC	?in@?$_Iosb@H@std@@2W4_Openmode@12@B		; std::_Iosb<int>::in
PUBLIC	?out@?$_Iosb@H@std@@2W4_Openmode@12@B		; std::_Iosb<int>::out
PUBLIC	?max_exponent@?$numeric_limits@M@std@@2HB	; std::numeric_limits<float>::max_exponent
PUBLIC	?ate@?$_Iosb@H@std@@2W4_Openmode@12@B		; std::_Iosb<int>::ate
PUBLIC	?max_exponent10@?$numeric_limits@M@std@@2HB	; std::numeric_limits<float>::max_exponent10
PUBLIC	?app@?$_Iosb@H@std@@2W4_Openmode@12@B		; std::_Iosb<int>::app
PUBLIC	?min_exponent@?$numeric_limits@M@std@@2HB	; std::numeric_limits<float>::min_exponent
PUBLIC	?trunc@?$_Iosb@H@std@@2W4_Openmode@12@B		; std::_Iosb<int>::trunc
PUBLIC	?_Nocreate@?$_Iosb@H@std@@2W4_Openmode@12@B	; std::_Iosb<int>::_Nocreate
PUBLIC	?min_exponent10@?$numeric_limits@M@std@@2HB	; std::numeric_limits<float>::min_exponent10
PUBLIC	?_Noreplace@?$_Iosb@H@std@@2W4_Openmode@12@B	; std::_Iosb<int>::_Noreplace
PUBLIC	?binary@?$_Iosb@H@std@@2W4_Openmode@12@B	; std::_Iosb<int>::binary
PUBLIC	?beg@?$_Iosb@H@std@@2W4_Seekdir@12@B		; std::_Iosb<int>::beg
PUBLIC	?cur@?$_Iosb@H@std@@2W4_Seekdir@12@B		; std::_Iosb<int>::cur
PUBLIC	?end@?$_Iosb@H@std@@2W4_Seekdir@12@B		; std::_Iosb<int>::end
PUBLIC	?value@?$integral_constant@I$0A@@std@@2IB	; std::integral_constant<unsigned int,0>::value
PUBLIC	?digits@?$numeric_limits@N@std@@2HB		; std::numeric_limits<double>::digits
PUBLIC	?digits10@?$numeric_limits@N@std@@2HB		; std::numeric_limits<double>::digits10
PUBLIC	?max_digits10@?$numeric_limits@N@std@@2HB	; std::numeric_limits<double>::max_digits10
PUBLIC	?max_exponent@?$numeric_limits@N@std@@2HB	; std::numeric_limits<double>::max_exponent
PUBLIC	?max_exponent10@?$numeric_limits@N@std@@2HB	; std::numeric_limits<double>::max_exponent10
PUBLIC	?_Stream_err@failure@ios_base@std@@0W4io_errc@43@B ; std::ios_base::failure::_Stream_err
PUBLIC	?min_exponent@?$numeric_limits@N@std@@2HB	; std::numeric_limits<double>::min_exponent
PUBLIC	?min_exponent10@?$numeric_limits@N@std@@2HB	; std::numeric_limits<double>::min_exponent10
PUBLIC	?digits@?$numeric_limits@O@std@@2HB		; std::numeric_limits<long double>::digits
PUBLIC	?digits10@?$numeric_limits@O@std@@2HB		; std::numeric_limits<long double>::digits10
PUBLIC	?max_digits10@?$numeric_limits@O@std@@2HB	; std::numeric_limits<long double>::max_digits10
PUBLIC	?max_exponent@?$numeric_limits@O@std@@2HB	; std::numeric_limits<long double>::max_exponent
PUBLIC	?max_exponent10@?$numeric_limits@O@std@@2HB	; std::numeric_limits<long double>::max_exponent10
PUBLIC	?min_exponent@?$numeric_limits@O@std@@2HB	; std::numeric_limits<long double>::min_exponent
PUBLIC	?min_exponent10@?$numeric_limits@O@std@@2HB	; std::numeric_limits<long double>::min_exponent10
PUBLIC	?value@?$_Sizeof@U_Nil@std@@U12@U12@U12@U12@U12@U12@U12@@std@@2IB ; std::_Sizeof<std::_Nil,std::_Nil,std::_Nil,std::_Nil,std::_Nil,std::_Nil,std::_Nil,std::_Nil>::value
PUBLIC	?has_denorm@_Num_base@std@@2W4float_denorm_style@2@B ; std::_Num_base::has_denorm
PUBLIC	?has_denorm_loss@_Num_base@std@@2_NB		; std::_Num_base::has_denorm_loss
PUBLIC	?has_infinity@_Num_base@std@@2_NB		; std::_Num_base::has_infinity
PUBLIC	?has_quiet_NaN@_Num_base@std@@2_NB		; std::_Num_base::has_quiet_NaN
PUBLIC	?has_signaling_NaN@_Num_base@std@@2_NB		; std::_Num_base::has_signaling_NaN
PUBLIC	?collate@?$_Locbase@H@std@@2HB			; std::_Locbase<int>::collate
PUBLIC	?ctype@?$_Locbase@H@std@@2HB			; std::_Locbase<int>::ctype
PUBLIC	?is_bounded@_Num_base@std@@2_NB			; std::_Num_base::is_bounded
PUBLIC	?monetary@?$_Locbase@H@std@@2HB			; std::_Locbase<int>::monetary
PUBLIC	?is_exact@_Num_base@std@@2_NB			; std::_Num_base::is_exact
PUBLIC	?numeric@?$_Locbase@H@std@@2HB			; std::_Locbase<int>::numeric
PUBLIC	?is_iec559@_Num_base@std@@2_NB			; std::_Num_base::is_iec559
PUBLIC	?time@?$_Locbase@H@std@@2HB			; std::_Locbase<int>::time
PUBLIC	?messages@?$_Locbase@H@std@@2HB			; std::_Locbase<int>::messages
PUBLIC	?is_integer@_Num_base@std@@2_NB			; std::_Num_base::is_integer
PUBLIC	?all@?$_Locbase@H@std@@2HB			; std::_Locbase<int>::all
PUBLIC	?none@?$_Locbase@H@std@@2HB			; std::_Locbase<int>::none
PUBLIC	?is_modulo@_Num_base@std@@2_NB			; std::_Num_base::is_modulo
PUBLIC	?is_signed@_Num_base@std@@2_NB			; std::_Num_base::is_signed
PUBLIC	?is_specialized@_Num_base@std@@2_NB		; std::_Num_base::is_specialized
PUBLIC	?tinyness_before@_Num_base@std@@2_NB		; std::_Num_base::tinyness_before
_BSS	SEGMENT
?MissionResult@@3HA DD 01H DUP (?)			; MissionResult
?nameWrank@@3PADA DB 0104H DUP (?)			; nameWrank
_BSS	ENDS
;	COMDAT ?tinyness_before@_Num_base@std@@2_NB
CONST	SEGMENT
?tinyness_before@_Num_base@std@@2_NB DB 00H		; std::_Num_base::tinyness_before
CONST	ENDS
;	COMDAT ?is_specialized@_Num_base@std@@2_NB
CONST	SEGMENT
?is_specialized@_Num_base@std@@2_NB DB 00H		; std::_Num_base::is_specialized
CONST	ENDS
;	COMDAT ?is_signed@_Num_base@std@@2_NB
CONST	SEGMENT
?is_signed@_Num_base@std@@2_NB DB 00H			; std::_Num_base::is_signed
CONST	ENDS
;	COMDAT ?is_modulo@_Num_base@std@@2_NB
CONST	SEGMENT
?is_modulo@_Num_base@std@@2_NB DB 00H			; std::_Num_base::is_modulo
CONST	ENDS
;	COMDAT ?none@?$_Locbase@H@std@@2HB
CONST	SEGMENT
?none@?$_Locbase@H@std@@2HB DD 00H			; std::_Locbase<int>::none
CONST	ENDS
;	COMDAT ?all@?$_Locbase@H@std@@2HB
CONST	SEGMENT
?all@?$_Locbase@H@std@@2HB DD 03fH			; std::_Locbase<int>::all
CONST	ENDS
;	COMDAT ?is_integer@_Num_base@std@@2_NB
CONST	SEGMENT
?is_integer@_Num_base@std@@2_NB DB 00H			; std::_Num_base::is_integer
CONST	ENDS
;	COMDAT ?messages@?$_Locbase@H@std@@2HB
CONST	SEGMENT
?messages@?$_Locbase@H@std@@2HB DD 020H			; std::_Locbase<int>::messages
CONST	ENDS
;	COMDAT ?time@?$_Locbase@H@std@@2HB
CONST	SEGMENT
?time@?$_Locbase@H@std@@2HB DD 010H			; std::_Locbase<int>::time
CONST	ENDS
;	COMDAT ?is_iec559@_Num_base@std@@2_NB
CONST	SEGMENT
?is_iec559@_Num_base@std@@2_NB DB 00H			; std::_Num_base::is_iec559
CONST	ENDS
;	COMDAT ?numeric@?$_Locbase@H@std@@2HB
CONST	SEGMENT
?numeric@?$_Locbase@H@std@@2HB DD 08H			; std::_Locbase<int>::numeric
CONST	ENDS
;	COMDAT ?is_exact@_Num_base@std@@2_NB
CONST	SEGMENT
?is_exact@_Num_base@std@@2_NB DB 00H			; std::_Num_base::is_exact
CONST	ENDS
;	COMDAT ?monetary@?$_Locbase@H@std@@2HB
CONST	SEGMENT
?monetary@?$_Locbase@H@std@@2HB DD 04H			; std::_Locbase<int>::monetary
CONST	ENDS
;	COMDAT ?is_bounded@_Num_base@std@@2_NB
CONST	SEGMENT
?is_bounded@_Num_base@std@@2_NB DB 00H			; std::_Num_base::is_bounded
CONST	ENDS
;	COMDAT ?ctype@?$_Locbase@H@std@@2HB
CONST	SEGMENT
?ctype@?$_Locbase@H@std@@2HB DD 02H			; std::_Locbase<int>::ctype
CONST	ENDS
;	COMDAT ?collate@?$_Locbase@H@std@@2HB
CONST	SEGMENT
?collate@?$_Locbase@H@std@@2HB DD 01H			; std::_Locbase<int>::collate
CONST	ENDS
;	COMDAT ?has_signaling_NaN@_Num_base@std@@2_NB
CONST	SEGMENT
?has_signaling_NaN@_Num_base@std@@2_NB DB 00H		; std::_Num_base::has_signaling_NaN
CONST	ENDS
;	COMDAT ?has_quiet_NaN@_Num_base@std@@2_NB
CONST	SEGMENT
?has_quiet_NaN@_Num_base@std@@2_NB DB 00H		; std::_Num_base::has_quiet_NaN
CONST	ENDS
;	COMDAT ?has_infinity@_Num_base@std@@2_NB
CONST	SEGMENT
?has_infinity@_Num_base@std@@2_NB DB 00H		; std::_Num_base::has_infinity
CONST	ENDS
;	COMDAT ?has_denorm_loss@_Num_base@std@@2_NB
CONST	SEGMENT
?has_denorm_loss@_Num_base@std@@2_NB DB 00H		; std::_Num_base::has_denorm_loss
CONST	ENDS
;	COMDAT ?has_denorm@_Num_base@std@@2W4float_denorm_style@2@B
CONST	SEGMENT
?has_denorm@_Num_base@std@@2W4float_denorm_style@2@B DD 00H ; std::_Num_base::has_denorm
CONST	ENDS
;	COMDAT ?value@?$_Sizeof@U_Nil@std@@U12@U12@U12@U12@U12@U12@U12@@std@@2IB
CONST	SEGMENT
?value@?$_Sizeof@U_Nil@std@@U12@U12@U12@U12@U12@U12@U12@@std@@2IB DD 00H ; std::_Sizeof<std::_Nil,std::_Nil,std::_Nil,std::_Nil,std::_Nil,std::_Nil,std::_Nil,std::_Nil>::value
CONST	ENDS
;	COMDAT ?min_exponent10@?$numeric_limits@O@std@@2HB
CONST	SEGMENT
?min_exponent10@?$numeric_limits@O@std@@2HB DD 0fffffecdH ; std::numeric_limits<long double>::min_exponent10
CONST	ENDS
;	COMDAT ?min_exponent@?$numeric_limits@O@std@@2HB
CONST	SEGMENT
?min_exponent@?$numeric_limits@O@std@@2HB DD 0fffffc03H	; std::numeric_limits<long double>::min_exponent
CONST	ENDS
;	COMDAT ?max_exponent10@?$numeric_limits@O@std@@2HB
CONST	SEGMENT
?max_exponent10@?$numeric_limits@O@std@@2HB DD 0134H	; std::numeric_limits<long double>::max_exponent10
CONST	ENDS
;	COMDAT ?max_exponent@?$numeric_limits@O@std@@2HB
CONST	SEGMENT
?max_exponent@?$numeric_limits@O@std@@2HB DD 0400H	; std::numeric_limits<long double>::max_exponent
CONST	ENDS
;	COMDAT ?max_digits10@?$numeric_limits@O@std@@2HB
CONST	SEGMENT
?max_digits10@?$numeric_limits@O@std@@2HB DD 011H	; std::numeric_limits<long double>::max_digits10
CONST	ENDS
;	COMDAT ?digits10@?$numeric_limits@O@std@@2HB
CONST	SEGMENT
?digits10@?$numeric_limits@O@std@@2HB DD 0fH		; std::numeric_limits<long double>::digits10
CONST	ENDS
;	COMDAT ?digits@?$numeric_limits@O@std@@2HB
CONST	SEGMENT
?digits@?$numeric_limits@O@std@@2HB DD 035H		; std::numeric_limits<long double>::digits
CONST	ENDS
;	COMDAT ?min_exponent10@?$numeric_limits@N@std@@2HB
CONST	SEGMENT
?min_exponent10@?$numeric_limits@N@std@@2HB DD 0fffffecdH ; std::numeric_limits<double>::min_exponent10
CONST	ENDS
;	COMDAT ?min_exponent@?$numeric_limits@N@std@@2HB
CONST	SEGMENT
?min_exponent@?$numeric_limits@N@std@@2HB DD 0fffffc03H	; std::numeric_limits<double>::min_exponent
CONST	ENDS
;	COMDAT ?_Stream_err@failure@ios_base@std@@0W4io_errc@43@B
CONST	SEGMENT
?_Stream_err@failure@ios_base@std@@0W4io_errc@43@B DD 01H ; std::ios_base::failure::_Stream_err
CONST	ENDS
;	COMDAT ?max_exponent10@?$numeric_limits@N@std@@2HB
CONST	SEGMENT
?max_exponent10@?$numeric_limits@N@std@@2HB DD 0134H	; std::numeric_limits<double>::max_exponent10
CONST	ENDS
;	COMDAT ?max_exponent@?$numeric_limits@N@std@@2HB
CONST	SEGMENT
?max_exponent@?$numeric_limits@N@std@@2HB DD 0400H	; std::numeric_limits<double>::max_exponent
CONST	ENDS
;	COMDAT ?max_digits10@?$numeric_limits@N@std@@2HB
CONST	SEGMENT
?max_digits10@?$numeric_limits@N@std@@2HB DD 011H	; std::numeric_limits<double>::max_digits10
CONST	ENDS
;	COMDAT ?digits10@?$numeric_limits@N@std@@2HB
CONST	SEGMENT
?digits10@?$numeric_limits@N@std@@2HB DD 0fH		; std::numeric_limits<double>::digits10
CONST	ENDS
;	COMDAT ?digits@?$numeric_limits@N@std@@2HB
CONST	SEGMENT
?digits@?$numeric_limits@N@std@@2HB DD 035H		; std::numeric_limits<double>::digits
CONST	ENDS
;	COMDAT ?value@?$integral_constant@I$0A@@std@@2IB
CONST	SEGMENT
?value@?$integral_constant@I$0A@@std@@2IB DD 00H	; std::integral_constant<unsigned int,0>::value
CONST	ENDS
;	COMDAT ?end@?$_Iosb@H@std@@2W4_Seekdir@12@B
CONST	SEGMENT
?end@?$_Iosb@H@std@@2W4_Seekdir@12@B DD 02H		; std::_Iosb<int>::end
CONST	ENDS
;	COMDAT ?cur@?$_Iosb@H@std@@2W4_Seekdir@12@B
CONST	SEGMENT
?cur@?$_Iosb@H@std@@2W4_Seekdir@12@B DD 01H		; std::_Iosb<int>::cur
CONST	ENDS
;	COMDAT ?beg@?$_Iosb@H@std@@2W4_Seekdir@12@B
CONST	SEGMENT
?beg@?$_Iosb@H@std@@2W4_Seekdir@12@B DD 00H		; std::_Iosb<int>::beg
CONST	ENDS
;	COMDAT ?binary@?$_Iosb@H@std@@2W4_Openmode@12@B
CONST	SEGMENT
?binary@?$_Iosb@H@std@@2W4_Openmode@12@B DD 020H	; std::_Iosb<int>::binary
CONST	ENDS
;	COMDAT ?_Noreplace@?$_Iosb@H@std@@2W4_Openmode@12@B
CONST	SEGMENT
?_Noreplace@?$_Iosb@H@std@@2W4_Openmode@12@B DD 080H	; std::_Iosb<int>::_Noreplace
CONST	ENDS
;	COMDAT ?min_exponent10@?$numeric_limits@M@std@@2HB
CONST	SEGMENT
?min_exponent10@?$numeric_limits@M@std@@2HB DD 0ffffffdbH ; std::numeric_limits<float>::min_exponent10
CONST	ENDS
;	COMDAT ?_Nocreate@?$_Iosb@H@std@@2W4_Openmode@12@B
CONST	SEGMENT
?_Nocreate@?$_Iosb@H@std@@2W4_Openmode@12@B DD 040H	; std::_Iosb<int>::_Nocreate
CONST	ENDS
;	COMDAT ?trunc@?$_Iosb@H@std@@2W4_Openmode@12@B
CONST	SEGMENT
?trunc@?$_Iosb@H@std@@2W4_Openmode@12@B DD 010H		; std::_Iosb<int>::trunc
CONST	ENDS
;	COMDAT ?min_exponent@?$numeric_limits@M@std@@2HB
CONST	SEGMENT
?min_exponent@?$numeric_limits@M@std@@2HB DD 0ffffff83H	; std::numeric_limits<float>::min_exponent
CONST	ENDS
;	COMDAT ?app@?$_Iosb@H@std@@2W4_Openmode@12@B
CONST	SEGMENT
?app@?$_Iosb@H@std@@2W4_Openmode@12@B DD 08H		; std::_Iosb<int>::app
CONST	ENDS
;	COMDAT ?max_exponent10@?$numeric_limits@M@std@@2HB
CONST	SEGMENT
?max_exponent10@?$numeric_limits@M@std@@2HB DD 026H	; std::numeric_limits<float>::max_exponent10
CONST	ENDS
;	COMDAT ?ate@?$_Iosb@H@std@@2W4_Openmode@12@B
CONST	SEGMENT
?ate@?$_Iosb@H@std@@2W4_Openmode@12@B DD 04H		; std::_Iosb<int>::ate
CONST	ENDS
;	COMDAT ?max_exponent@?$numeric_limits@M@std@@2HB
CONST	SEGMENT
?max_exponent@?$numeric_limits@M@std@@2HB DD 080H	; std::numeric_limits<float>::max_exponent
CONST	ENDS
;	COMDAT ?out@?$_Iosb@H@std@@2W4_Openmode@12@B
CONST	SEGMENT
?out@?$_Iosb@H@std@@2W4_Openmode@12@B DD 02H		; std::_Iosb<int>::out
CONST	ENDS
;	COMDAT ?in@?$_Iosb@H@std@@2W4_Openmode@12@B
CONST	SEGMENT
?in@?$_Iosb@H@std@@2W4_Openmode@12@B DD 01H		; std::_Iosb<int>::in
CONST	ENDS
;	COMDAT ?max_digits10@?$numeric_limits@M@std@@2HB
CONST	SEGMENT
?max_digits10@?$numeric_limits@M@std@@2HB DD 09H	; std::numeric_limits<float>::max_digits10
CONST	ENDS
;	COMDAT ?digits10@?$numeric_limits@M@std@@2HB
CONST	SEGMENT
?digits10@?$numeric_limits@M@std@@2HB DD 06H		; std::numeric_limits<float>::digits10
CONST	ENDS
;	COMDAT ?_Hardfail@?$_Iosb@H@std@@2W4_Iostate@12@B
CONST	SEGMENT
?_Hardfail@?$_Iosb@H@std@@2W4_Iostate@12@B DD 010H	; std::_Iosb<int>::_Hardfail
CONST	ENDS
;	COMDAT ?digits@?$numeric_limits@M@std@@2HB
CONST	SEGMENT
?digits@?$numeric_limits@M@std@@2HB DD 018H		; std::numeric_limits<float>::digits
CONST	ENDS
;	COMDAT ?badbit@?$_Iosb@H@std@@2W4_Iostate@12@B
CONST	SEGMENT
?badbit@?$_Iosb@H@std@@2W4_Iostate@12@B DD 04H		; std::_Iosb<int>::badbit
CONST	ENDS
;	COMDAT ?failbit@?$_Iosb@H@std@@2W4_Iostate@12@B
CONST	SEGMENT
?failbit@?$_Iosb@H@std@@2W4_Iostate@12@B DD 02H		; std::_Iosb<int>::failbit
CONST	ENDS
;	COMDAT ?eofbit@?$_Iosb@H@std@@2W4_Iostate@12@B
CONST	SEGMENT
?eofbit@?$_Iosb@H@std@@2W4_Iostate@12@B DD 01H		; std::_Iosb<int>::eofbit
CONST	ENDS
;	COMDAT ?goodbit@?$_Iosb@H@std@@2W4_Iostate@12@B
CONST	SEGMENT
?goodbit@?$_Iosb@H@std@@2W4_Iostate@12@B DD 00H		; std::_Iosb<int>::goodbit
CONST	ENDS
;	COMDAT ?floatfield@?$_Iosb@H@std@@2W4_Fmtflags@12@B
CONST	SEGMENT
?floatfield@?$_Iosb@H@std@@2W4_Fmtflags@12@B DD 03000H	; std::_Iosb<int>::floatfield
CONST	ENDS
;	COMDAT ?basefield@?$_Iosb@H@std@@2W4_Fmtflags@12@B
CONST	SEGMENT
?basefield@?$_Iosb@H@std@@2W4_Fmtflags@12@B DD 0e00H	; std::_Iosb<int>::basefield
CONST	ENDS
;	COMDAT ?adjustfield@?$_Iosb@H@std@@2W4_Fmtflags@12@B
CONST	SEGMENT
?adjustfield@?$_Iosb@H@std@@2W4_Fmtflags@12@B DD 01c0H	; std::_Iosb<int>::adjustfield
CONST	ENDS
;	COMDAT ?_Stdio@?$_Iosb@H@std@@2W4_Fmtflags@12@B
CONST	SEGMENT
?_Stdio@?$_Iosb@H@std@@2W4_Fmtflags@12@B DD 08000H	; std::_Iosb<int>::_Stdio
CONST	ENDS
;	COMDAT ?boolalpha@?$_Iosb@H@std@@2W4_Fmtflags@12@B
CONST	SEGMENT
?boolalpha@?$_Iosb@H@std@@2W4_Fmtflags@12@B DD 04000H	; std::_Iosb<int>::boolalpha
CONST	ENDS
;	COMDAT ?digits10@?$numeric_limits@_K@std@@2HB
CONST	SEGMENT
?digits10@?$numeric_limits@_K@std@@2HB DD 013H		; std::numeric_limits<unsigned __int64>::digits10
CONST	ENDS
;	COMDAT ?hexfloat@?$_Iosb@H@std@@2W4_Fmtflags@12@B
CONST	SEGMENT
?hexfloat@?$_Iosb@H@std@@2W4_Fmtflags@12@B DD 03000H	; std::_Iosb<int>::hexfloat
CONST	ENDS
;	COMDAT ?digits@?$numeric_limits@_K@std@@2HB
CONST	SEGMENT
?digits@?$numeric_limits@_K@std@@2HB DD 040H		; std::numeric_limits<unsigned __int64>::digits
CONST	ENDS
;	COMDAT ?fixed@?$_Iosb@H@std@@2W4_Fmtflags@12@B
CONST	SEGMENT
?fixed@?$_Iosb@H@std@@2W4_Fmtflags@12@B DD 02000H	; std::_Iosb<int>::fixed
CONST	ENDS
;	COMDAT ?scientific@?$_Iosb@H@std@@2W4_Fmtflags@12@B
CONST	SEGMENT
?scientific@?$_Iosb@H@std@@2W4_Fmtflags@12@B DD 01000H	; std::_Iosb<int>::scientific
CONST	ENDS
;	COMDAT ?is_signed@?$numeric_limits@_K@std@@2_NB
CONST	SEGMENT
?is_signed@?$numeric_limits@_K@std@@2_NB DB 00H		; std::numeric_limits<unsigned __int64>::is_signed
CONST	ENDS
;	COMDAT ?hex@?$_Iosb@H@std@@2W4_Fmtflags@12@B
CONST	SEGMENT
?hex@?$_Iosb@H@std@@2W4_Fmtflags@12@B DD 0800H		; std::_Iosb<int>::hex
CONST	ENDS
;	COMDAT ?oct@?$_Iosb@H@std@@2W4_Fmtflags@12@B
CONST	SEGMENT
?oct@?$_Iosb@H@std@@2W4_Fmtflags@12@B DD 0400H		; std::_Iosb<int>::oct
CONST	ENDS
;	COMDAT ?dec@?$_Iosb@H@std@@2W4_Fmtflags@12@B
CONST	SEGMENT
?dec@?$_Iosb@H@std@@2W4_Fmtflags@12@B DD 0200H		; std::_Iosb<int>::dec
CONST	ENDS
;	COMDAT ?internal@?$_Iosb@H@std@@2W4_Fmtflags@12@B
CONST	SEGMENT
?internal@?$_Iosb@H@std@@2W4_Fmtflags@12@B DD 0100H	; std::_Iosb<int>::internal
CONST	ENDS
;	COMDAT ?right@?$_Iosb@H@std@@2W4_Fmtflags@12@B
CONST	SEGMENT
?right@?$_Iosb@H@std@@2W4_Fmtflags@12@B DD 080H		; std::_Iosb<int>::right
CONST	ENDS
;	COMDAT ?left@?$_Iosb@H@std@@2W4_Fmtflags@12@B
CONST	SEGMENT
?left@?$_Iosb@H@std@@2W4_Fmtflags@12@B DD 040H		; std::_Iosb<int>::left
CONST	ENDS
;	COMDAT ?showpos@?$_Iosb@H@std@@2W4_Fmtflags@12@B
CONST	SEGMENT
?showpos@?$_Iosb@H@std@@2W4_Fmtflags@12@B DD 020H	; std::_Iosb<int>::showpos
CONST	ENDS
;	COMDAT ?showpoint@?$_Iosb@H@std@@2W4_Fmtflags@12@B
CONST	SEGMENT
?showpoint@?$_Iosb@H@std@@2W4_Fmtflags@12@B DD 010H	; std::_Iosb<int>::showpoint
CONST	ENDS
;	COMDAT ?showbase@?$_Iosb@H@std@@2W4_Fmtflags@12@B
CONST	SEGMENT
?showbase@?$_Iosb@H@std@@2W4_Fmtflags@12@B DD 08H	; std::_Iosb<int>::showbase
CONST	ENDS
;	COMDAT ?uppercase@?$_Iosb@H@std@@2W4_Fmtflags@12@B
CONST	SEGMENT
?uppercase@?$_Iosb@H@std@@2W4_Fmtflags@12@B DD 04H	; std::_Iosb<int>::uppercase
CONST	ENDS
;	COMDAT ?digits10@?$numeric_limits@_J@std@@2HB
CONST	SEGMENT
?digits10@?$numeric_limits@_J@std@@2HB DD 012H		; std::numeric_limits<__int64>::digits10
CONST	ENDS
;	COMDAT ?unitbuf@?$_Iosb@H@std@@2W4_Fmtflags@12@B
CONST	SEGMENT
?unitbuf@?$_Iosb@H@std@@2W4_Fmtflags@12@B DD 02H	; std::_Iosb<int>::unitbuf
CONST	ENDS
;	COMDAT ?digits@?$numeric_limits@_J@std@@2HB
CONST	SEGMENT
?digits@?$numeric_limits@_J@std@@2HB DD 03fH		; std::numeric_limits<__int64>::digits
CONST	ENDS
;	COMDAT ?skipws@?$_Iosb@H@std@@2W4_Fmtflags@12@B
CONST	SEGMENT
?skipws@?$_Iosb@H@std@@2W4_Fmtflags@12@B DD 01H		; std::_Iosb<int>::skipws
CONST	ENDS
;	COMDAT ?is_signed@?$numeric_limits@_J@std@@2_NB
CONST	SEGMENT
?is_signed@?$numeric_limits@_J@std@@2_NB DB 01H		; std::numeric_limits<__int64>::is_signed
CONST	ENDS
;	COMDAT ?digits10@?$numeric_limits@K@std@@2HB
CONST	SEGMENT
?digits10@?$numeric_limits@K@std@@2HB DD 09H		; std::numeric_limits<unsigned long>::digits10
CONST	ENDS
;	COMDAT ?digits@?$numeric_limits@K@std@@2HB
CONST	SEGMENT
?digits@?$numeric_limits@K@std@@2HB DD 020H		; std::numeric_limits<unsigned long>::digits
CONST	ENDS
;	COMDAT ?is_signed@?$numeric_limits@K@std@@2_NB
CONST	SEGMENT
?is_signed@?$numeric_limits@K@std@@2_NB DB 00H		; std::numeric_limits<unsigned long>::is_signed
CONST	ENDS
;	COMDAT ?digits10@?$numeric_limits@J@std@@2HB
CONST	SEGMENT
?digits10@?$numeric_limits@J@std@@2HB DD 09H		; std::numeric_limits<long>::digits10
CONST	ENDS
;	COMDAT ?digits@?$numeric_limits@J@std@@2HB
CONST	SEGMENT
?digits@?$numeric_limits@J@std@@2HB DD 01fH		; std::numeric_limits<long>::digits
CONST	ENDS
;	COMDAT ?is_signed@?$numeric_limits@J@std@@2_NB
CONST	SEGMENT
?is_signed@?$numeric_limits@J@std@@2_NB DB 01H		; std::numeric_limits<long>::is_signed
CONST	ENDS
;	COMDAT ?digits10@?$numeric_limits@I@std@@2HB
CONST	SEGMENT
?digits10@?$numeric_limits@I@std@@2HB DD 09H		; std::numeric_limits<unsigned int>::digits10
CONST	ENDS
;	COMDAT ?digits@?$numeric_limits@I@std@@2HB
CONST	SEGMENT
?digits@?$numeric_limits@I@std@@2HB DD 020H		; std::numeric_limits<unsigned int>::digits
CONST	ENDS
;	COMDAT ?is_signed@?$numeric_limits@I@std@@2_NB
CONST	SEGMENT
?is_signed@?$numeric_limits@I@std@@2_NB DB 00H		; std::numeric_limits<unsigned int>::is_signed
CONST	ENDS
;	COMDAT ?digits10@?$numeric_limits@H@std@@2HB
CONST	SEGMENT
?digits10@?$numeric_limits@H@std@@2HB DD 09H		; std::numeric_limits<int>::digits10
CONST	ENDS
;	COMDAT ?digits@?$numeric_limits@H@std@@2HB
CONST	SEGMENT
?digits@?$numeric_limits@H@std@@2HB DD 01fH		; std::numeric_limits<int>::digits
CONST	ENDS
;	COMDAT ?value@?$_Sizeof@HU_Nil@std@@U12@U12@U12@U12@U12@U12@@std@@2IB
CONST	SEGMENT
?value@?$_Sizeof@HU_Nil@std@@U12@U12@U12@U12@U12@U12@@std@@2IB DD 01H ; std::_Sizeof<int,std::_Nil,std::_Nil,std::_Nil,std::_Nil,std::_Nil,std::_Nil,std::_Nil>::value
CONST	ENDS
;	COMDAT ?is_signed@?$numeric_limits@H@std@@2_NB
CONST	SEGMENT
?is_signed@?$numeric_limits@H@std@@2_NB DB 01H		; std::numeric_limits<int>::is_signed
CONST	ENDS
;	COMDAT ?digits10@?$numeric_limits@G@std@@2HB
CONST	SEGMENT
?digits10@?$numeric_limits@G@std@@2HB DD 04H		; std::numeric_limits<unsigned short>::digits10
CONST	ENDS
;	COMDAT ?digits@?$numeric_limits@G@std@@2HB
CONST	SEGMENT
?digits@?$numeric_limits@G@std@@2HB DD 010H		; std::numeric_limits<unsigned short>::digits
CONST	ENDS
;	COMDAT ?is_signed@?$numeric_limits@G@std@@2_NB
CONST	SEGMENT
?is_signed@?$numeric_limits@G@std@@2_NB DB 00H		; std::numeric_limits<unsigned short>::is_signed
CONST	ENDS
;	COMDAT ?digits10@?$numeric_limits@F@std@@2HB
CONST	SEGMENT
?digits10@?$numeric_limits@F@std@@2HB DD 04H		; std::numeric_limits<short>::digits10
CONST	ENDS
;	COMDAT ?digits@?$numeric_limits@F@std@@2HB
CONST	SEGMENT
?digits@?$numeric_limits@F@std@@2HB DD 0fH		; std::numeric_limits<short>::digits
CONST	ENDS
;	COMDAT ?is_signed@?$numeric_limits@F@std@@2_NB
CONST	SEGMENT
?is_signed@?$numeric_limits@F@std@@2_NB DB 01H		; std::numeric_limits<short>::is_signed
CONST	ENDS
;	COMDAT ?value@?$integral_constant@_N$00@std@@2_NB
CONST	SEGMENT
?value@?$integral_constant@_N$00@std@@2_NB DB 01H	; std::integral_constant<bool,1>::value
CONST	ENDS
;	COMDAT ?digits10@?$numeric_limits@E@std@@2HB
CONST	SEGMENT
?digits10@?$numeric_limits@E@std@@2HB DD 02H		; std::numeric_limits<unsigned char>::digits10
CONST	ENDS
;	COMDAT ?digits@?$numeric_limits@E@std@@2HB
CONST	SEGMENT
?digits@?$numeric_limits@E@std@@2HB DD 08H		; std::numeric_limits<unsigned char>::digits
CONST	ENDS
;	COMDAT ?value@?$integral_constant@_N$0A@@std@@2_NB
CONST	SEGMENT
?value@?$integral_constant@_N$0A@@std@@2_NB DB 00H	; std::integral_constant<bool,0>::value
CONST	ENDS
;	COMDAT ?is_signed@?$numeric_limits@E@std@@2_NB
CONST	SEGMENT
?is_signed@?$numeric_limits@E@std@@2_NB DB 00H		; std::numeric_limits<unsigned char>::is_signed
CONST	ENDS
;	COMDAT ?digits10@?$numeric_limits@C@std@@2HB
CONST	SEGMENT
?digits10@?$numeric_limits@C@std@@2HB DD 02H		; std::numeric_limits<signed char>::digits10
CONST	ENDS
;	COMDAT ?digits@?$numeric_limits@C@std@@2HB
CONST	SEGMENT
?digits@?$numeric_limits@C@std@@2HB DD 07H		; std::numeric_limits<signed char>::digits
CONST	ENDS
;	COMDAT ?is_signed@?$numeric_limits@C@std@@2_NB
CONST	SEGMENT
?is_signed@?$numeric_limits@C@std@@2_NB DB 01H		; std::numeric_limits<signed char>::is_signed
CONST	ENDS
CONST	SEGMENT
_L_2	DD	03f317218r			; 0.693147
CONST	ENDS
;	COMDAT ?digits10@?$numeric_limits@_N@std@@2HB
CONST	SEGMENT
?digits10@?$numeric_limits@_N@std@@2HB DD 00H		; std::numeric_limits<bool>::digits10
CONST	ENDS
;	COMDAT ?digits@?$numeric_limits@_N@std@@2HB
CONST	SEGMENT
?digits@?$numeric_limits@_N@std@@2HB DD 01H		; std::numeric_limits<bool>::digits
CONST	ENDS
;	COMDAT ?is_signed@?$numeric_limits@_N@std@@2_NB
CONST	SEGMENT
?is_signed@?$numeric_limits@_N@std@@2_NB DB 00H		; std::numeric_limits<bool>::is_signed
CONST	ENDS
;	COMDAT ?is_modulo@?$numeric_limits@_N@std@@2_NB
CONST	SEGMENT
?is_modulo@?$numeric_limits@_N@std@@2_NB DB 00H		; std::numeric_limits<bool>::is_modulo
CONST	ENDS
_DATA	SEGMENT
_PwdMask DB	'Who needs a password!', 00H
	ORG $+2
_PwdMask2 DB	'Repent, Falcon is coming!', 00H
_DATA	ENDS
;	COMDAT ?digits10@?$numeric_limits@_W@std@@2HB
CONST	SEGMENT
?digits10@?$numeric_limits@_W@std@@2HB DD 04H		; std::numeric_limits<wchar_t>::digits10
CONST	ENDS
;	COMDAT ?digits@?$numeric_limits@_W@std@@2HB
CONST	SEGMENT
?digits@?$numeric_limits@_W@std@@2HB DD 010H		; std::numeric_limits<wchar_t>::digits
CONST	ENDS
;	COMDAT ?is_signed@?$numeric_limits@_W@std@@2_NB
CONST	SEGMENT
?is_signed@?$numeric_limits@_W@std@@2_NB DB 00H		; std::numeric_limits<wchar_t>::is_signed
CONST	ENDS
;	COMDAT ?digits10@?$numeric_limits@D@std@@2HB
CONST	SEGMENT
?digits10@?$numeric_limits@D@std@@2HB DD 02H		; std::numeric_limits<char>::digits10
CONST	ENDS
;	COMDAT ?digits@?$numeric_limits@D@std@@2HB
CONST	SEGMENT
?digits@?$numeric_limits@D@std@@2HB DD 07H		; std::numeric_limits<char>::digits
CONST	ENDS
;	COMDAT ?is_signed@?$numeric_limits@D@std@@2_NB
CONST	SEGMENT
?is_signed@?$numeric_limits@D@std@@2_NB DB 01H		; std::numeric_limits<char>::is_signed
CONST	ENDS
;	COMDAT ?radix@_Num_float_base@std@@2HB
CONST	SEGMENT
?radix@_Num_float_base@std@@2HB DD 02H			; std::_Num_float_base::radix
CONST	ENDS
;	COMDAT ?round_style@_Num_float_base@std@@2W4float_round_style@2@B
CONST	SEGMENT
?round_style@_Num_float_base@std@@2W4float_round_style@2@B DD 01H ; std::_Num_float_base::round_style
CONST	ENDS
;	COMDAT ?traps@_Num_float_base@std@@2_NB
CONST	SEGMENT
?traps@_Num_float_base@std@@2_NB DB 00H			; std::_Num_float_base::traps
CONST	ENDS
;	COMDAT ?tinyness_before@_Num_float_base@std@@2_NB
CONST	SEGMENT
?tinyness_before@_Num_float_base@std@@2_NB DB 01H	; std::_Num_float_base::tinyness_before
CONST	ENDS
;	COMDAT ?is_specialized@_Num_float_base@std@@2_NB
CONST	SEGMENT
?is_specialized@_Num_float_base@std@@2_NB DB 01H	; std::_Num_float_base::is_specialized
CONST	ENDS
;	COMDAT ?is_signed@_Num_float_base@std@@2_NB
CONST	SEGMENT
?is_signed@_Num_float_base@std@@2_NB DB 01H		; std::_Num_float_base::is_signed
CONST	ENDS
;	COMDAT ?is_modulo@_Num_float_base@std@@2_NB
CONST	SEGMENT
?is_modulo@_Num_float_base@std@@2_NB DB 00H		; std::_Num_float_base::is_modulo
CONST	ENDS
;	COMDAT ?is_integer@_Num_float_base@std@@2_NB
CONST	SEGMENT
?is_integer@_Num_float_base@std@@2_NB DB 00H		; std::_Num_float_base::is_integer
CONST	ENDS
;	COMDAT ?is_iec559@_Num_float_base@std@@2_NB
CONST	SEGMENT
?is_iec559@_Num_float_base@std@@2_NB DB 01H		; std::_Num_float_base::is_iec559
CONST	ENDS
;	COMDAT ?is_exact@_Num_float_base@std@@2_NB
CONST	SEGMENT
?is_exact@_Num_float_base@std@@2_NB DB 00H		; std::_Num_float_base::is_exact
CONST	ENDS
;	COMDAT ?table_size@?$ctype@D@std@@2IB
CONST	SEGMENT
?table_size@?$ctype@D@std@@2IB DD 0100H			; std::ctype<char>::table_size
CONST	ENDS
;	COMDAT ?is_bounded@_Num_float_base@std@@2_NB
CONST	SEGMENT
?is_bounded@_Num_float_base@std@@2_NB DB 01H		; std::_Num_float_base::is_bounded
CONST	ENDS
;	COMDAT ?has_signaling_NaN@_Num_float_base@std@@2_NB
CONST	SEGMENT
?has_signaling_NaN@_Num_float_base@std@@2_NB DB 01H	; std::_Num_float_base::has_signaling_NaN
CONST	ENDS
;	COMDAT ?has_quiet_NaN@_Num_float_base@std@@2_NB
CONST	SEGMENT
?has_quiet_NaN@_Num_float_base@std@@2_NB DB 01H		; std::_Num_float_base::has_quiet_NaN
CONST	ENDS
;	COMDAT ?has_infinity@_Num_float_base@std@@2_NB
CONST	SEGMENT
?has_infinity@_Num_float_base@std@@2_NB DB 01H		; std::_Num_float_base::has_infinity
CONST	ENDS
;	COMDAT ?CMPDIRTYDATA_INTERVAL@FalconEntity@@2KB
CONST	SEGMENT
?CMPDIRTYDATA_INTERVAL@FalconEntity@@2KB DD 0c8H	; FalconEntity::CMPDIRTYDATA_INTERVAL
CONST	ENDS
;	COMDAT ?SIMDIRTYDATA_INTERVAL@FalconEntity@@2KB
CONST	SEGMENT
?SIMDIRTYDATA_INTERVAL@FalconEntity@@2KB DD 0c8H	; FalconEntity::SIMDIRTYDATA_INTERVAL
CONST	ENDS
;	COMDAT ?has_denorm_loss@_Num_float_base@std@@2_NB
CONST	SEGMENT
?has_denorm_loss@_Num_float_base@std@@2_NB DB 01H	; std::_Num_float_base::has_denorm_loss
CONST	ENDS
;	COMDAT ?has_denorm@_Num_float_base@std@@2W4float_denorm_style@2@B
CONST	SEGMENT
?has_denorm@_Num_float_base@std@@2W4float_denorm_style@2@B DD 01H ; std::_Num_float_base::has_denorm
CONST	ENDS
;	COMDAT ?radix@_Num_int_base@std@@2HB
CONST	SEGMENT
?radix@_Num_int_base@std@@2HB DD 02H			; std::_Num_int_base::radix
CONST	ENDS
;	COMDAT ?is_specialized@_Num_int_base@std@@2_NB
CONST	SEGMENT
?is_specialized@_Num_int_base@std@@2_NB DB 01H		; std::_Num_int_base::is_specialized
CONST	ENDS
;	COMDAT ?is_modulo@_Num_int_base@std@@2_NB
CONST	SEGMENT
?is_modulo@_Num_int_base@std@@2_NB DB 01H		; std::_Num_int_base::is_modulo
CONST	ENDS
;	COMDAT ?is_integer@_Num_int_base@std@@2_NB
CONST	SEGMENT
?is_integer@_Num_int_base@std@@2_NB DB 01H		; std::_Num_int_base::is_integer
CONST	ENDS
;	COMDAT ?is_exact@_Num_int_base@std@@2_NB
CONST	SEGMENT
?is_exact@_Num_int_base@std@@2_NB DB 01H		; std::_Num_int_base::is_exact
CONST	ENDS
;	COMDAT ?is_bounded@_Num_int_base@std@@2_NB
CONST	SEGMENT
?is_bounded@_Num_int_base@std@@2_NB DB 01H		; std::_Num_int_base::is_bounded
CONST	ENDS
;	COMDAT ?radix@_Num_base@std@@2HB
CONST	SEGMENT
?radix@_Num_base@std@@2HB DD 00H			; std::_Num_base::radix
CONST	ENDS
;	COMDAT ?min_exponent10@_Num_base@std@@2HB
CONST	SEGMENT
?min_exponent10@_Num_base@std@@2HB DD 00H		; std::_Num_base::min_exponent10
CONST	ENDS
;	COMDAT ?min_exponent@_Num_base@std@@2HB
CONST	SEGMENT
?min_exponent@_Num_base@std@@2HB DD 00H			; std::_Num_base::min_exponent
CONST	ENDS
;	COMDAT ?max_exponent10@_Num_base@std@@2HB
CONST	SEGMENT
?max_exponent10@_Num_base@std@@2HB DD 00H		; std::_Num_base::max_exponent10
CONST	ENDS
;	COMDAT ?max_exponent@_Num_base@std@@2HB
CONST	SEGMENT
?max_exponent@_Num_base@std@@2HB DD 00H			; std::_Num_base::max_exponent
CONST	ENDS
;	COMDAT ?max_digits10@_Num_base@std@@2HB
CONST	SEGMENT
?max_digits10@_Num_base@std@@2HB DD 00H			; std::_Num_base::max_digits10
CONST	ENDS
;	COMDAT ?digits10@_Num_base@std@@2HB
CONST	SEGMENT
?digits10@_Num_base@std@@2HB DD 00H			; std::_Num_base::digits10
CONST	ENDS
;	COMDAT ?digits@_Num_base@std@@2HB
CONST	SEGMENT
?digits@_Num_base@std@@2HB DD 00H			; std::_Num_base::digits
CONST	ENDS
;	COMDAT ?round_style@_Num_base@std@@2W4float_round_style@2@B
CONST	SEGMENT
?round_style@_Num_base@std@@2W4float_round_style@2@B DD 00H ; std::_Num_base::round_style
CONST	ENDS
;	COMDAT ?traps@_Num_base@std@@2_NB
CONST	SEGMENT
?traps@_Num_base@std@@2_NB DB 00H			; std::_Num_base::traps
CONST	ENDS
PUBLIC	??2@YAPAXIPAX@Z					; operator new
PUBLIC	??3@YAXPAX0@Z					; operator delete
PUBLIC	?length@?$char_traits@D@std@@SAIPBD@Z		; std::char_traits<char>::length
PUBLIC	?copy@?$char_traits@D@std@@SAPADPADPBDI@Z	; std::char_traits<char>::copy
PUBLIC	?move@?$char_traits@D@std@@SAPADPADPBDI@Z	; std::char_traits<char>::move
PUBLIC	?assign@?$char_traits@D@std@@SAXAADABD@Z	; std::char_traits<char>::assign
PUBLIC	??0?$allocator@D@std@@QAE@XZ			; std::allocator<char>::allocator<char>
PUBLIC	?deallocate@?$allocator@D@std@@QAEXPADI@Z	; std::allocator<char>::deallocate
PUBLIC	?allocate@?$allocator@D@std@@QAEPADI@Z		; std::allocator<char>::allocate
PUBLIC	?max_size@?$allocator@D@std@@QBEIXZ		; std::allocator<char>::max_size
PUBLIC	?max_size@?$allocator_traits@V?$allocator@D@std@@@std@@SAIABV?$allocator@D@2@@Z ; std::allocator_traits<std::allocator<char> >::max_size
PUBLIC	??0?$_Wrap_alloc@V?$allocator@D@std@@@std@@QAE@XZ ; std::_Wrap_alloc<std::allocator<char> >::_Wrap_alloc<std::allocator<char> >
PUBLIC	?allocate@?$_Wrap_alloc@V?$allocator@D@std@@@std@@QAEPADI@Z ; std::_Wrap_alloc<std::allocator<char> >::allocate
PUBLIC	?deallocate@?$_Wrap_alloc@V?$allocator@D@std@@@std@@QAEXPADI@Z ; std::_Wrap_alloc<std::allocator<char> >::deallocate
PUBLIC	?max_size@?$_Wrap_alloc@V?$allocator@D@std@@@std@@QBEIXZ ; std::_Wrap_alloc<std::allocator<char> >::max_size
PUBLIC	??0?$_String_val@U?$_Simple_types@D@std@@@std@@QAE@XZ ; std::_String_val<std::_Simple_types<char> >::_String_val<std::_Simple_types<char> >
PUBLIC	?_Myptr@?$_String_val@U?$_Simple_types@D@std@@@std@@QAEPADXZ ; std::_String_val<std::_Simple_types<char> >::_Myptr
PUBLIC	?_Myptr@?$_String_val@U?$_Simple_types@D@std@@@std@@QBEPBDXZ ; std::_String_val<std::_Simple_types<char> >::_Myptr
PUBLIC	??0?$_String_alloc@$0A@U?$_String_base_types@DV?$allocator@D@std@@@std@@@std@@QAE@ABV?$allocator@D@1@@Z ; std::_String_alloc<0,std::_String_base_types<char,std::allocator<char> > >::_String_alloc<0,std::_String_base_types<char,std::allocator<char> > >
PUBLIC	?_Getal@?$_String_alloc@$0A@U?$_String_base_types@DV?$allocator@D@std@@@std@@@std@@QBE?AU?$_Wrap_alloc@V?$allocator@D@std@@@2@XZ ; std::_String_alloc<0,std::_String_base_types<char,std::allocator<char> > >::_Getal
PUBLIC	??0?$basic_string@DU?$char_traits@D@std@@V?$allocator@D@2@@std@@QAE@PBD@Z ; std::basic_string<char,std::char_traits<char>,std::allocator<char> >::basic_string<char,std::char_traits<char>,std::allocator<char> >
PUBLIC	?assign@?$basic_string@DU?$char_traits@D@std@@V?$allocator@D@2@@std@@QAEAAV12@ABV12@II@Z ; std::basic_string<char,std::char_traits<char>,std::allocator<char> >::assign
PUBLIC	?assign@?$basic_string@DU?$char_traits@D@std@@V?$allocator@D@2@@std@@QAEAAV12@PBDI@Z ; std::basic_string<char,std::char_traits<char>,std::allocator<char> >::assign
PUBLIC	?assign@?$basic_string@DU?$char_traits@D@std@@V?$allocator@D@2@@std@@QAEAAV12@PBD@Z ; std::basic_string<char,std::char_traits<char>,std::allocator<char> >::assign
PUBLIC	?erase@?$basic_string@DU?$char_traits@D@std@@V?$allocator@D@2@@std@@QAEAAV12@I@Z ; std::basic_string<char,std::char_traits<char>,std::allocator<char> >::erase
PUBLIC	?erase@?$basic_string@DU?$char_traits@D@std@@V?$allocator@D@2@@std@@QAEAAV12@II@Z ; std::basic_string<char,std::char_traits<char>,std::allocator<char> >::erase
PUBLIC	?size@?$basic_string@DU?$char_traits@D@std@@V?$allocator@D@2@@std@@QBEIXZ ; std::basic_string<char,std::char_traits<char>,std::allocator<char> >::size
PUBLIC	?max_size@?$basic_string@DU?$char_traits@D@std@@V?$allocator@D@2@@std@@QBEIXZ ; std::basic_string<char,std::char_traits<char>,std::allocator<char> >::max_size
PUBLIC	?_Copy@?$basic_string@DU?$char_traits@D@std@@V?$allocator@D@2@@std@@QAEXII@Z ; std::basic_string<char,std::char_traits<char>,std::allocator<char> >::_Copy
PUBLIC	?_Eos@?$basic_string@DU?$char_traits@D@std@@V?$allocator@D@2@@std@@QAEXI@Z ; std::basic_string<char,std::char_traits<char>,std::allocator<char> >::_Eos
PUBLIC	?_Grow@?$basic_string@DU?$char_traits@D@std@@V?$allocator@D@2@@std@@QAE_NI_N@Z ; std::basic_string<char,std::char_traits<char>,std::allocator<char> >::_Grow
PUBLIC	?_Inside@?$basic_string@DU?$char_traits@D@std@@V?$allocator@D@2@@std@@QAE_NPBD@Z ; std::basic_string<char,std::char_traits<char>,std::allocator<char> >::_Inside
PUBLIC	?_Tidy@?$basic_string@DU?$char_traits@D@std@@V?$allocator@D@2@@std@@QAEX_NI@Z ; std::basic_string<char,std::char_traits<char>,std::allocator<char> >::_Tidy
PUBLIC	?_Xlen@?$basic_string@DU?$char_traits@D@std@@V?$allocator@D@2@@std@@QBEXXZ ; std::basic_string<char,std::char_traits<char>,std::allocator<char> >::_Xlen
PUBLIC	?_Xran@?$basic_string@DU?$char_traits@D@std@@V?$allocator@D@2@@std@@QBEXXZ ; std::basic_string<char,std::char_traits<char>,std::allocator<char> >::_Xran
PUBLIC	?get@?$VuBin@VVuSessionEntity@@@@QBEPAVVuSessionEntity@@XZ ; VuBin<VuSessionEntity>::get
PUBLIC	__tcscmp
PUBLIC	?EncryptPwd@LogBookData@@AAEXXZ			; LogBookData::EncryptPwd
PUBLIC	?CalcRank@LogBookData@@AAEXXZ			; LogBookData::CalcRank
PUBLIC	?AwardMedals@LogBookData@@AAEXPAUCAMP_MISS_STRUCT@@@Z ; LogBookData::AwardMedals
PUBLIC	?MissionComplexity@LogBookData@@AAEMPAUCAMP_MISS_STRUCT@@@Z ; LogBookData::MissionComplexity
PUBLIC	?CampaignDifficulty@LogBookData@@AAEMXZ		; LogBookData::CampaignDifficulty
PUBLIC	??0LogBookData@@QAE@XZ				; LogBookData::LogBookData
PUBLIC	??1LogBookData@@QAE@XZ				; LogBookData::~LogBookData
PUBLIC	?Initialize@LogBookData@@QAEXXZ			; LogBookData::Initialize
PUBLIC	?Cleanup@LogBookData@@QAEXXZ			; LogBookData::Cleanup
PUBLIC	?Load@LogBookData@@QAEHXZ			; LogBookData::Load
PUBLIC	?LoadData@LogBookData@@QAEHPAD@Z		; LogBookData::LoadData
PUBLIC	?LoadData@LogBookData@@QAEHPAUPilot@@@Z		; LogBookData::LoadData
PUBLIC	?SaveData@LogBookData@@QAEHXZ			; LogBookData::SaveData
PUBLIC	?Clear@LogBookData@@QAEXXZ			; LogBookData::Clear
PUBLIC	?Encrypt@LogBookData@@QAEXXZ			; LogBookData::Encrypt
PUBLIC	?UpdateDogfight@LogBookData@@QAEXFMFFFFF@Z	; LogBookData::UpdateDogfight
PUBLIC	?UpdateCampaign@LogBookData@@QAEXPAUCAMP_MISS_STRUCT@@@Z ; LogBookData::UpdateCampaign
PUBLIC	?FinishCampaign@LogBookData@@QAEXF@Z		; LogBookData::FinishCampaign
PUBLIC	?UpdateFlightHours@LogBookData@@QAEXM@Z		; LogBookData::UpdateFlightHours
PUBLIC	?Name@LogBookData@@QAEPADXZ			; LogBookData::Name
PUBLIC	?NameWRank@LogBookData@@QAEPADXZ		; LogBookData::NameWRank
PUBLIC	?Callsign@LogBookData@@QAEPADXZ			; LogBookData::Callsign
PUBLIC	?CheckPassword@LogBookData@@QAEHPAD@Z		; LogBookData::CheckPassword
PUBLIC	?SetPassword@LogBookData@@QAEHPAD@Z		; LogBookData::SetPassword
PUBLIC	?GetPassword@LogBookData@@QAEHPAD@Z		; LogBookData::GetPassword
PUBLIC	?OptionsFile@LogBookData@@QAEPADXZ		; LogBookData::OptionsFile
PUBLIC	?AceFactor@LogBookData@@QAEMXZ			; LogBookData::AceFactor
PUBLIC	?Rank@LogBookData@@QAE?AW4LB_RANK@@XZ		; LogBookData::Rank
PUBLIC	?TotalKills@LogBookData@@QAEFXZ			; LogBookData::TotalKills
PUBLIC	?TotalKilled@LogBookData@@QAEFXZ		; LogBookData::TotalKilled
PUBLIC	?Voice@LogBookData@@QAEEXZ			; LogBookData::Voice
PUBLIC	?InvulnerableOn@PlayerOptionsClass@@QAEHXZ	; PlayerOptionsClass::InvulnerableOn
PUBLIC	??0id@locale@std@@QAE@I@Z			; std::locale::id::id
PUBLIC	?generic_category@std@@YAABVerror_category@1@XZ	; std::generic_category
PUBLIC	?system_category@std@@YAABVerror_category@1@XZ	; std::system_category
PUBLIC	??0error_category@std@@QAE@XZ			; std::error_category::error_category
PUBLIC	??1error_category@std@@UAE@XZ			; std::error_category::~error_category
PUBLIC	?default_error_condition@error_category@std@@UBE?AVerror_condition@2@H@Z ; std::error_category::default_error_condition
PUBLIC	?equivalent@error_category@std@@UBE_NHABVerror_condition@2@@Z ; std::error_category::equivalent
PUBLIC	?equivalent@error_category@std@@UBE_NABVerror_code@2@H@Z ; std::error_category::equivalent
PUBLIC	??8error_category@std@@QBE_NABV01@@Z		; std::error_category::operator==
PUBLIC	??_Gerror_category@std@@UAEPAXI@Z		; std::error_category::`scalar deleting destructor'
PUBLIC	?value@error_code@std@@QBEHXZ			; std::error_code::value
PUBLIC	?category@error_code@std@@QBEABVerror_category@2@XZ ; std::error_code::category
PUBLIC	??0error_condition@std@@QAE@HABVerror_category@1@@Z ; std::error_condition::error_condition
PUBLIC	?value@error_condition@std@@QBEHXZ		; std::error_condition::value
PUBLIC	?category@error_condition@std@@QBEABVerror_category@2@XZ ; std::error_condition::category
PUBLIC	??8error_condition@std@@QBE_NABV01@@Z		; std::error_condition::operator==
PUBLIC	??0_Generic_error_category@std@@QAE@XZ		; std::_Generic_error_category::_Generic_error_category
PUBLIC	?name@_Generic_error_category@std@@UBEPBDXZ	; std::_Generic_error_category::name
PUBLIC	?message@_Generic_error_category@std@@UBE?AV?$basic_string@DU?$char_traits@D@std@@V?$allocator@D@2@@2@H@Z ; std::_Generic_error_category::message
PUBLIC	??1_Generic_error_category@std@@UAE@XZ		; std::_Generic_error_category::~_Generic_error_category
PUBLIC	??_G_Generic_error_category@std@@UAEPAXI@Z	; std::_Generic_error_category::`scalar deleting destructor'
PUBLIC	??0_Iostream_error_category@std@@QAE@XZ		; std::_Iostream_error_category::_Iostream_error_category
PUBLIC	?name@_Iostream_error_category@std@@UBEPBDXZ	; std::_Iostream_error_category::name
PUBLIC	?message@_Iostream_error_category@std@@UBE?AV?$basic_string@DU?$char_traits@D@std@@V?$allocator@D@2@@2@H@Z ; std::_Iostream_error_category::message
PUBLIC	??1_Iostream_error_category@std@@UAE@XZ		; std::_Iostream_error_category::~_Iostream_error_category
PUBLIC	??_G_Iostream_error_category@std@@UAEPAXI@Z	; std::_Iostream_error_category::`scalar deleting destructor'
PUBLIC	??0_System_error_category@std@@QAE@XZ		; std::_System_error_category::_System_error_category
PUBLIC	?name@_System_error_category@std@@UBEPBDXZ	; std::_System_error_category::name
PUBLIC	?message@_System_error_category@std@@UBE?AV?$basic_string@DU?$char_traits@D@std@@V?$allocator@D@2@@2@H@Z ; std::_System_error_category::message
PUBLIC	?default_error_condition@_System_error_category@std@@UBE?AVerror_condition@2@H@Z ; std::_System_error_category::default_error_condition
PUBLIC	??1_System_error_category@std@@UAE@XZ		; std::_System_error_category::~_System_error_category
PUBLIC	??_G_System_error_category@std@@UAEPAXI@Z	; std::_System_error_category::`scalar deleting destructor'
PUBLIC	?SetVoiceID@FalconSessionEntity@@QAEXE@Z	; FalconSessionEntity::SetVoiceID
PUBLIC	??$construct@PADAAPAD@?$_Wrap_alloc@V?$allocator@D@std@@@std@@QAEXPAPADAAPAD@Z ; std::_Wrap_alloc<std::allocator<char> >::construct<char *,char * &>
PUBLIC	??$destroy@PAD@?$_Wrap_alloc@V?$allocator@D@std@@@std@@QAEXPAPAD@Z ; std::_Wrap_alloc<std::allocator<char> >::destroy<char *>
PUBLIC	??$addressof@D@std@@YAPADAAD@Z			; std::addressof<char>
PUBLIC	??$_Allocate@D@std@@YAPADIPAD@Z			; std::_Allocate<char>
PUBLIC	??$forward@AAPAD@std@@YAAAPADAAPAD@Z		; std::forward<char * &>
PUBLIC	??$construct@PADAAPAD@?$allocator_traits@V?$allocator@D@std@@@std@@SAXAAV?$allocator@D@1@PAPADAAPAD@Z ; std::allocator_traits<std::allocator<char> >::construct<char *,char * &>
PUBLIC	??$destroy@PAD@?$allocator_traits@V?$allocator@D@std@@@std@@SAXAAV?$allocator@D@1@PAPAD@Z ; std::allocator_traits<std::allocator<char> >::destroy<char *>
PUBLIC	??$construct@PADAAPAD@?$allocator@D@std@@QAEXPAPADAAPAD@Z ; std::allocator<char>::construct<char *,char * &>
PUBLIC	??$destroy@PAD@?$allocator@D@std@@QAEXPAPAD@Z	; std::allocator<char>::destroy<char *>
PUBLIC	??_C@_00CNPNBAHC@?$AA@				; `string'
PUBLIC	?LogBook@@3VLogBookData@@A			; LogBook
PUBLIC	??_7error_category@std@@6B@			; std::error_category::`vftable'
PUBLIC	??_7_Generic_error_category@std@@6B@		; std::_Generic_error_category::`vftable'
PUBLIC	??_C@_07DCLBNMLN@generic?$AA@			; `string'
PUBLIC	??_C@_0O@BFJCFAAK@unknown?5error?$AA@		; `string'
PUBLIC	??_7_Iostream_error_category@std@@6B@		; std::_Iostream_error_category::`vftable'
PUBLIC	??_C@_08LLGCOLLL@iostream?$AA@			; `string'
PUBLIC	??_C@_0BG@PADBLCHM@iostream?5stream?5error?$AA@	; `string'
PUBLIC	??_7_System_error_category@std@@6B@		; std::_System_error_category::`vftable'
PUBLIC	??_C@_06FHFOAHML@system?$AA@			; `string'
PUBLIC	?_Generic_object@?$_Error_objects@H@std@@2V_Generic_error_category@2@A ; std::_Error_objects<int>::_Generic_object
PUBLIC	?_Iostream_object@?$_Error_objects@H@std@@2V_Iostream_error_category@2@A ; std::_Error_objects<int>::_Iostream_object
PUBLIC	?_System_object@?$_Error_objects@H@std@@2V_System_error_category@2@A ; std::_Error_objects<int>::_System_object
PUBLIC	?id@?$num_put@DV?$back_insert_iterator@V?$basic_string@DU?$char_traits@D@std@@V?$allocator@D@2@@std@@@std@@@std@@2V0locale@2@A ; std::num_put<char,std::back_insert_iterator<std::basic_string<char,std::char_traits<char>,std::allocator<char> > > >::id
PUBLIC	?id@?$num_put@_WV?$back_insert_iterator@V?$basic_string@_WU?$char_traits@_W@std@@V?$allocator@_W@2@@std@@@std@@@std@@2V0locale@2@A ; std::num_put<wchar_t,std::back_insert_iterator<std::basic_string<wchar_t,std::char_traits<wchar_t>,std::allocator<wchar_t> > > >::id
PUBLIC	??_C@_02DKCKIIND@?$CFs?$AA@			; `string'
PUBLIC	??_C@_0BP@KOIEKLOO@Software?2MicroProse?2Falcon?24?40?$AA@ ; `string'
PUBLIC	??_C@_09DHEFBMO@PilotName?$AA@			; `string'
PUBLIC	??_C@_0O@BHDLDEML@PilotCallsign?$AA@		; `string'
PUBLIC	??_C@_0CB@GKGGACIB@Failed?5to?5get?5registry?5entries?4?6@ ; `string'
PUBLIC	??_C@_09KAAFLMEJ@Joe?5Pilot?$AA@		; `string'
PUBLIC	??_C@_05DIOCBCKJ@Viper?$AA@			; `string'
PUBLIC	??_C@_07MCAEODGB@Default?$AA@			; `string'
PUBLIC	??_C@_0P@HNKFAEAF@?$CF02d?4?$CF02d?4?$CF02d?$AA@ ; `string'
PUBLIC	??_C@_0P@HHHHAIGA@?$CF02d?1?$CF02d?1?$CF02d?$AA@ ; `string'
PUBLIC	??_C@_0BB@GMHLKLCO@?$CFs?2config?2?$CFs?4plc?$AA@ ; `string'
PUBLIC	??_C@_0BB@FCBNOHJF@?$CFs?2config?2?$CFs?4rul?$AA@ ; `string'
PUBLIC	??_C@_0BB@LEPDOEAL@?$CFs?2config?2?$CFs?4lbk?$AA@ ; `string'
PUBLIC	??_C@_02JDPG@rb?$AA@				; `string'
PUBLIC	??_C@_0BN@GDOMNNEK@Couldn?8t?5open?5?$CFs?8s?5logbook?4?6?$AA@ ; `string'
PUBLIC	??_C@_0CC@IOKEGJDH@?$CFs?8s?5logbook?5is?5old?5file?5format?4@ ; `string'
PUBLIC	??_C@_0BO@PBIEDHCE@Failed?5to?5read?5?$CFs?8s?5logbook?4?6?$AA@ ; `string'
PUBLIC	??_C@_0BA@BIACLFKH@Failed?5checksum?$AA@	; `string'
PUBLIC	??_C@_02GMLFBBN@wb?$AA@				; `string'
PUBLIC	??_C@_0BG@CMOOHMCL@Couldn?8t?5save?5logbook?$AA@ ; `string'
PUBLIC	??_C@_05DNIIFBMG@?$CFs?5?$CFs?$AA@		; `string'
PUBLIC	?id@?$numpunct@D@std@@2V0locale@2@A		; std::numpunct<char>::id
PUBLIC	?id@?$numpunct@_W@std@@2V0locale@2@A		; std::numpunct<wchar_t>::id
PUBLIC	??_C@_0BI@CFPLBAOH@invalid?5string?5position?$AA@ ; `string'
PUBLIC	??_C@_0BA@JFNIOLAK@string?5too?5long?$AA@	; `string'
PUBLIC	??_R4error_category@std@@6B@			; std::error_category::`RTTI Complete Object Locator'
PUBLIC	??_R0?AVerror_category@std@@@8			; std::error_category `RTTI Type Descriptor'
PUBLIC	??_R3error_category@std@@8			; std::error_category::`RTTI Class Hierarchy Descriptor'
PUBLIC	??_R2error_category@std@@8			; std::error_category::`RTTI Base Class Array'
PUBLIC	??_R1A@?0A@EA@error_category@std@@8		; std::error_category::`RTTI Base Class Descriptor at (0,-1,0,64)'
PUBLIC	??_R4_Generic_error_category@std@@6B@		; std::_Generic_error_category::`RTTI Complete Object Locator'
PUBLIC	??_R0?AV_Generic_error_category@std@@@8		; std::_Generic_error_category `RTTI Type Descriptor'
PUBLIC	??_R3_Generic_error_category@std@@8		; std::_Generic_error_category::`RTTI Class Hierarchy Descriptor'
PUBLIC	??_R2_Generic_error_category@std@@8		; std::_Generic_error_category::`RTTI Base Class Array'
PUBLIC	??_R1A@?0A@EA@_Generic_error_category@std@@8	; std::_Generic_error_category::`RTTI Base Class Descriptor at (0,-1,0,64)'
PUBLIC	??_R4_Iostream_error_category@std@@6B@		; std::_Iostream_error_category::`RTTI Complete Object Locator'
PUBLIC	??_R0?AV_Iostream_error_category@std@@@8	; std::_Iostream_error_category `RTTI Type Descriptor'
PUBLIC	??_R3_Iostream_error_category@std@@8		; std::_Iostream_error_category::`RTTI Class Hierarchy Descriptor'
PUBLIC	??_R2_Iostream_error_category@std@@8		; std::_Iostream_error_category::`RTTI Base Class Array'
PUBLIC	??_R1A@?0A@EA@_Iostream_error_category@std@@8	; std::_Iostream_error_category::`RTTI Base Class Descriptor at (0,-1,0,64)'
PUBLIC	??_R4_System_error_category@std@@6B@		; std::_System_error_category::`RTTI Complete Object Locator'
PUBLIC	??_R0?AV_System_error_category@std@@@8		; std::_System_error_category `RTTI Type Descriptor'
PUBLIC	??_R3_System_error_category@std@@8		; std::_System_error_category::`RTTI Class Hierarchy Descriptor'
PUBLIC	??_R2_System_error_category@std@@8		; std::_System_error_category::`RTTI Base Class Array'
PUBLIC	??_R1A@?0A@EA@_System_error_category@std@@8	; std::_System_error_category::`RTTI Base Class Descriptor at (0,-1,0,64)'
PUBLIC	__real@00000000
PUBLIC	__real@3f000000
PUBLIC	__real@3f333333
PUBLIC	__real@3f666666
PUBLIC	__real@3f800000
PUBLIC	__real@3fc00000
PUBLIC	__real@40400000
PUBLIC	__real@40800000
PUBLIC	__real@40a00000
PUBLIC	__real@40c00000
PUBLIC	__real@41000000
PUBLIC	__real@41200000
PUBLIC	__real@41400000
PUBLIC	__real@41500000
PUBLIC	__real@41700000
PUBLIC	__real@41800000
PUBLIC	__real@41f00000
PUBLIC	__real@421c0000
EXTRN	__purecall:PROC
EXTRN	??2@YAPAXI@Z:PROC				; operator new
EXTRN	??3@YAXPAX@Z:PROC				; operator delete
EXTRN	_atexit:PROC
EXTRN	_fclose:PROC
EXTRN	_fopen:PROC
EXTRN	_fread:PROC
EXTRN	_fseek:PROC
EXTRN	_ftell:PROC
EXTRN	_fwrite:PROC
EXTRN	_remove:PROC
EXTRN	_sprintf:PROC
EXTRN	_memcpy:PROC
EXTRN	_memset:PROC
EXTRN	_strcpy:PROC
EXTRN	_strlen:PROC
EXTRN	_memmove:PROC
EXTRN	_MonoPrint:PROC
EXTRN	__imp__GetSystemTime@4:PROC
EXTRN	__imp__RegCloseKey@4:PROC
EXTRN	__imp__RegOpenKeyExA@20:PROC
EXTRN	__imp__RegQueryValueExA@24:PROC
EXTRN	__imp__RegSetValueExA@24:PROC
EXTRN	?_Xbad_alloc@std@@YAXXZ:PROC			; std::_Xbad_alloc
EXTRN	?_Xlength_error@std@@YAXPBD@Z:PROC		; std::_Xlength_error
EXTRN	?_Xout_of_range@std@@YAXPBD@Z:PROC		; std::_Xout_of_range
EXTRN	__mbscmp:PROC
EXTRN	?LoadAllRules@@YAHPAD@Z:PROC			; LoadAllRules
EXTRN	?LoadOptions@PlayerOptionsClass@@QAEHPAD@Z:PROC	; PlayerOptionsClass::LoadOptions
EXTRN	??_Eerror_category@std@@UAEPAXI@Z:PROC		; std::error_category::`vector deleting destructor'
EXTRN	?_Syserror_map@std@@YAPBDH@Z:PROC		; std::_Syserror_map
EXTRN	?_Winerror_map@std@@YAPBDH@Z:PROC		; std::_Winerror_map
EXTRN	??_E_Generic_error_category@std@@UAEPAXI@Z:PROC	; std::_Generic_error_category::`vector deleting destructor'
EXTRN	??_E_Iostream_error_category@std@@UAEPAXI@Z:PROC ; std::_Iostream_error_category::`vector deleting destructor'
EXTRN	??_E_System_error_category@std@@UAEPAXI@Z:PROC	; std::_System_error_category::`vector deleting destructor'
EXTRN	?GetString@C_String@@QAEPADJ@Z:PROC		; C_String::GetString
EXTRN	?SetPlayerName@FalconSessionEntity@@QAEXPAD@Z:PROC ; FalconSessionEntity::SetPlayerName
EXTRN	?SetPlayerCallsign@FalconSessionEntity@@QAEXPAD@Z:PROC ; FalconSessionEntity::SetPlayerCallsign
EXTRN	?SetAceFactor@FalconSessionEntity@@QAEXM@Z:PROC	; FalconSessionEntity::SetAceFactor
EXTRN	?SetInitAceFactor@FalconSessionEntity@@QAEXM@Z:PROC ; FalconSessionEntity::SetInitAceFactor
EXTRN	?SetStatsFile@UIComms@@QAEXPAD@Z:PROC		; UIComms::SetStatsFile
EXTRN	?EncryptBuffer@@YAXEPAEJ@Z:PROC			; EncryptBuffer
EXTRN	?DecryptBuffer@@YAXEPAEJ@Z:PROC			; DecryptBuffer
EXTRN	@__security_check_cookie@4:PROC
EXTRN	__CxxThrowException@8:PROC
EXTRN	___CxxFrameHandler3:PROC
EXTRN	?vuLocalSessionEntity@@3V?$VuBin@VVuSessionEntity@@@@A:DWORD ; vuLocalSessionEntity
EXTRN	?FalconDataDirectory@@3PADA:BYTE		; FalconDataDirectory
EXTRN	?PlayerOptions@@3VPlayerOptionsClass@@A:BYTE	; PlayerOptions
EXTRN	??_7type_info@@6B@:QWORD			; type_info::`vftable'
EXTRN	?gStringMgr@@3PAVC_String@@A:DWORD		; gStringMgr
EXTRN	?gCommsMgr@@3PAVUIComms@@A:DWORD		; gCommsMgr
EXTRN	?TheCampaign@@3VCampaignClass@@A:BYTE		; TheCampaign
EXTRN	?gLangIDNum@@3HA:DWORD				; gLangIDNum
EXTRN	?LogState@@3HA:DWORD				; LogState
EXTRN	?g_bDisableCrashEjectCourtMartials@@3_NA:BYTE	; g_bDisableCrashEjectCourtMartials
EXTRN	?gRanksTxt@@3PAJA:BYTE				; gRanksTxt
EXTRN	_g_strLgbk:BYTE
EXTRN	___security_cookie:DWORD
EXTRN	__fltused:DWORD
_BSS	SEGMENT
_piecewise_construct DB 01H DUP (?)
	ALIGN	4

_allocator_arg DB 01H DUP (?)
	ALIGN	4

?LogBook@@3VLogBookData@@A DB 0174H DUP (?)		; LogBook
_BSS	ENDS
;	COMDAT ?_Generic_object@?$_Error_objects@H@std@@2V_Generic_error_category@2@A
_BSS	SEGMENT
?_Generic_object@?$_Error_objects@H@std@@2V_Generic_error_category@2@A DD 01H DUP (?) ; std::_Error_objects<int>::_Generic_object
_BSS	ENDS
;	COMDAT ?_Iostream_object@?$_Error_objects@H@std@@2V_Iostream_error_category@2@A
_BSS	SEGMENT
?_Iostream_object@?$_Error_objects@H@std@@2V_Iostream_error_category@2@A DD 01H DUP (?) ; std::_Error_objects<int>::_Iostream_object
_BSS	ENDS
;	COMDAT ?_System_object@?$_Error_objects@H@std@@2V_System_error_category@2@A
_BSS	SEGMENT
?_System_object@?$_Error_objects@H@std@@2V_System_error_category@2@A DD 01H DUP (?) ; std::_Error_objects<int>::_System_object
_BSS	ENDS
;	COMDAT ?id@?$num_put@DV?$back_insert_iterator@V?$basic_string@DU?$char_traits@D@std@@V?$allocator@D@2@@std@@@std@@@std@@2V0locale@2@A
_BSS	SEGMENT
?id@?$num_put@DV?$back_insert_iterator@V?$basic_string@DU?$char_traits@D@std@@V?$allocator@D@2@@std@@@std@@@std@@2V0locale@2@A DD 01H DUP (?) ; std::num_put<char,std::back_insert_iterator<std::basic_string<char,std::char_traits<char>,std::allocator<char> > > >::id
_BSS	ENDS
;	COMDAT ?id@?$num_put@_WV?$back_insert_iterator@V?$basic_string@_WU?$char_traits@_W@std@@V?$allocator@_W@2@@std@@@std@@@std@@2V0locale@2@A
_BSS	SEGMENT
?id@?$num_put@_WV?$back_insert_iterator@V?$basic_string@_WU?$char_traits@_W@std@@V?$allocator@_W@2@@std@@@std@@@std@@2V0locale@2@A DD 01H DUP (?) ; std::num_put<wchar_t,std::back_insert_iterator<std::basic_string<wchar_t,std::char_traits<wchar_t>,std::allocator<wchar_t> > > >::id
_BSS	ENDS
;	COMDAT ?id@?$numpunct@D@std@@2V0locale@2@A
_BSS	SEGMENT
?id@?$numpunct@D@std@@2V0locale@2@A DD 01H DUP (?)	; std::numpunct<char>::id
_BSS	ENDS
;	COMDAT ?id@?$numpunct@_W@std@@2V0locale@2@A
_BSS	SEGMENT
?id@?$numpunct@_W@std@@2V0locale@2@A DD 01H DUP (?)	; std::numpunct<wchar_t>::id
_BSS	ENDS
CRT$XCU	SEGMENT
_piecewise_construct$initializer$ DD FLAT:??__Epiecewise_construct@std@@YAXXZ
CRT$XCU	ENDS
;	COMDAT __real@421c0000
CONST	SEGMENT
__real@421c0000 DD 0421c0000r			; 39
CONST	ENDS
;	COMDAT __real@41f00000
CONST	SEGMENT
__real@41f00000 DD 041f00000r			; 30
CONST	ENDS
;	COMDAT __real@41800000
CONST	SEGMENT
__real@41800000 DD 041800000r			; 16
CONST	ENDS
;	COMDAT __real@41700000
CONST	SEGMENT
__real@41700000 DD 041700000r			; 15
CONST	ENDS
;	COMDAT __real@41500000
CONST	SEGMENT
__real@41500000 DD 041500000r			; 13
CONST	ENDS
;	COMDAT __real@41400000
CONST	SEGMENT
__real@41400000 DD 041400000r			; 12
CONST	ENDS
;	COMDAT __real@41200000
CONST	SEGMENT
__real@41200000 DD 041200000r			; 10
CONST	ENDS
;	COMDAT __real@41000000
CONST	SEGMENT
__real@41000000 DD 041000000r			; 8
CONST	ENDS
;	COMDAT __real@40c00000
CONST	SEGMENT
__real@40c00000 DD 040c00000r			; 6
CONST	ENDS
;	COMDAT __real@40a00000
CONST	SEGMENT
__real@40a00000 DD 040a00000r			; 5
CONST	ENDS
;	COMDAT __real@40800000
CONST	SEGMENT
__real@40800000 DD 040800000r			; 4
CONST	ENDS
;	COMDAT __real@40400000
CONST	SEGMENT
__real@40400000 DD 040400000r			; 3
CONST	ENDS
;	COMDAT __real@3fc00000
CONST	SEGMENT
__real@3fc00000 DD 03fc00000r			; 1.5
CONST	ENDS
;	COMDAT __real@3f800000
CONST	SEGMENT
__real@3f800000 DD 03f800000r			; 1
CONST	ENDS
;	COMDAT __real@3f666666
CONST	SEGMENT
__real@3f666666 DD 03f666666r			; 0.9
CONST	ENDS
;	COMDAT __real@3f333333
CONST	SEGMENT
__real@3f333333 DD 03f333333r			; 0.7
CONST	ENDS
;	COMDAT __real@3f000000
CONST	SEGMENT
__real@3f000000 DD 03f000000r			; 0.5
CONST	ENDS
;	COMDAT __real@00000000
CONST	SEGMENT
__real@00000000 DD 000000000r			; 0
CONST	ENDS
;	COMDAT ??_R1A@?0A@EA@_System_error_category@std@@8
rdata$r	SEGMENT
??_R1A@?0A@EA@_System_error_category@std@@8 DD FLAT:??_R0?AV_System_error_category@std@@@8 ; std::_System_error_category::`RTTI Base Class Descriptor at (0,-1,0,64)'
	DD	02H
	DD	00H
	DD	0ffffffffH
	DD	00H
	DD	040H
	DD	FLAT:??_R3_System_error_category@std@@8
rdata$r	ENDS
;	COMDAT ??_R2_System_error_category@std@@8
rdata$r	SEGMENT
??_R2_System_error_category@std@@8 DD FLAT:??_R1A@?0A@EA@_System_error_category@std@@8 ; std::_System_error_category::`RTTI Base Class Array'
	DD	FLAT:??_R1A@?0A@EA@_Generic_error_category@std@@8
	DD	FLAT:??_R1A@?0A@EA@error_category@std@@8
rdata$r	ENDS
;	COMDAT ??_R3_System_error_category@std@@8
rdata$r	SEGMENT
??_R3_System_error_category@std@@8 DD 00H		; std::_System_error_category::`RTTI Class Hierarchy Descriptor'
	DD	00H
	DD	03H
	DD	FLAT:??_R2_System_error_category@std@@8
rdata$r	ENDS
;	COMDAT ??_R0?AV_System_error_category@std@@@8
_DATA	SEGMENT
??_R0?AV_System_error_category@std@@@8 DD FLAT:??_7type_info@@6B@ ; std::_System_error_category `RTTI Type Descriptor'
	DD	00H
	DB	'.?AV_System_error_category@std@@', 00H
_DATA	ENDS
;	COMDAT ??_R4_System_error_category@std@@6B@
rdata$r	SEGMENT
??_R4_System_error_category@std@@6B@ DD 00H		; std::_System_error_category::`RTTI Complete Object Locator'
	DD	00H
	DD	00H
	DD	FLAT:??_R0?AV_System_error_category@std@@@8
	DD	FLAT:??_R3_System_error_category@std@@8
rdata$r	ENDS
;	COMDAT ??_R1A@?0A@EA@_Iostream_error_category@std@@8
rdata$r	SEGMENT
??_R1A@?0A@EA@_Iostream_error_category@std@@8 DD FLAT:??_R0?AV_Iostream_error_category@std@@@8 ; std::_Iostream_error_category::`RTTI Base Class Descriptor at (0,-1,0,64)'
	DD	02H
	DD	00H
	DD	0ffffffffH
	DD	00H
	DD	040H
	DD	FLAT:??_R3_Iostream_error_category@std@@8
rdata$r	ENDS
;	COMDAT ??_R2_Iostream_error_category@std@@8
rdata$r	SEGMENT
??_R2_Iostream_error_category@std@@8 DD FLAT:??_R1A@?0A@EA@_Iostream_error_category@std@@8 ; std::_Iostream_error_category::`RTTI Base Class Array'
	DD	FLAT:??_R1A@?0A@EA@_Generic_error_category@std@@8
	DD	FLAT:??_R1A@?0A@EA@error_category@std@@8
rdata$r	ENDS
;	COMDAT ??_R3_Iostream_error_category@std@@8
rdata$r	SEGMENT
??_R3_Iostream_error_category@std@@8 DD 00H		; std::_Iostream_error_category::`RTTI Class Hierarchy Descriptor'
	DD	00H
	DD	03H
	DD	FLAT:??_R2_Iostream_error_category@std@@8
rdata$r	ENDS
;	COMDAT ??_R0?AV_Iostream_error_category@std@@@8
_DATA	SEGMENT
??_R0?AV_Iostream_error_category@std@@@8 DD FLAT:??_7type_info@@6B@ ; std::_Iostream_error_category `RTTI Type Descriptor'
	DD	00H
	DB	'.?AV_Iostream_error_category@std@@', 00H
_DATA	ENDS
;	COMDAT ??_R4_Iostream_error_category@std@@6B@
rdata$r	SEGMENT
??_R4_Iostream_error_category@std@@6B@ DD 00H		; std::_Iostream_error_category::`RTTI Complete Object Locator'
	DD	00H
	DD	00H
	DD	FLAT:??_R0?AV_Iostream_error_category@std@@@8
	DD	FLAT:??_R3_Iostream_error_category@std@@8
rdata$r	ENDS
;	COMDAT ??_R1A@?0A@EA@_Generic_error_category@std@@8
rdata$r	SEGMENT
??_R1A@?0A@EA@_Generic_error_category@std@@8 DD FLAT:??_R0?AV_Generic_error_category@std@@@8 ; std::_Generic_error_category::`RTTI Base Class Descriptor at (0,-1,0,64)'
	DD	01H
	DD	00H
	DD	0ffffffffH
	DD	00H
	DD	040H
	DD	FLAT:??_R3_Generic_error_category@std@@8
rdata$r	ENDS
;	COMDAT ??_R2_Generic_error_category@std@@8
rdata$r	SEGMENT
??_R2_Generic_error_category@std@@8 DD FLAT:??_R1A@?0A@EA@_Generic_error_category@std@@8 ; std::_Generic_error_category::`RTTI Base Class Array'
	DD	FLAT:??_R1A@?0A@EA@error_category@std@@8
rdata$r	ENDS
;	COMDAT ??_R3_Generic_error_category@std@@8
rdata$r	SEGMENT
??_R3_Generic_error_category@std@@8 DD 00H		; std::_Generic_error_category::`RTTI Class Hierarchy Descriptor'
	DD	00H
	DD	02H
	DD	FLAT:??_R2_Generic_error_category@std@@8
rdata$r	ENDS
;	COMDAT ??_R0?AV_Generic_error_category@std@@@8
_DATA	SEGMENT
??_R0?AV_Generic_error_category@std@@@8 DD FLAT:??_7type_info@@6B@ ; std::_Generic_error_category `RTTI Type Descriptor'
	DD	00H
	DB	'.?AV_Generic_error_category@std@@', 00H
_DATA	ENDS
;	COMDAT ??_R4_Generic_error_category@std@@6B@
rdata$r	SEGMENT
??_R4_Generic_error_category@std@@6B@ DD 00H		; std::_Generic_error_category::`RTTI Complete Object Locator'
	DD	00H
	DD	00H
	DD	FLAT:??_R0?AV_Generic_error_category@std@@@8
	DD	FLAT:??_R3_Generic_error_category@std@@8
rdata$r	ENDS
;	COMDAT ??_R1A@?0A@EA@error_category@std@@8
rdata$r	SEGMENT
??_R1A@?0A@EA@error_category@std@@8 DD FLAT:??_R0?AVerror_category@std@@@8 ; std::error_category::`RTTI Base Class Descriptor at (0,-1,0,64)'
	DD	00H
	DD	00H
	DD	0ffffffffH
	DD	00H
	DD	040H
	DD	FLAT:??_R3error_category@std@@8
rdata$r	ENDS
;	COMDAT ??_R2error_category@std@@8
rdata$r	SEGMENT
??_R2error_category@std@@8 DD FLAT:??_R1A@?0A@EA@error_category@std@@8 ; std::error_category::`RTTI Base Class Array'
rdata$r	ENDS
;	COMDAT ??_R3error_category@std@@8
rdata$r	SEGMENT
??_R3error_category@std@@8 DD 00H			; std::error_category::`RTTI Class Hierarchy Descriptor'
	DD	00H
	DD	01H
	DD	FLAT:??_R2error_category@std@@8
rdata$r	ENDS
;	COMDAT ??_R0?AVerror_category@std@@@8
_DATA	SEGMENT
??_R0?AVerror_category@std@@@8 DD FLAT:??_7type_info@@6B@ ; std::error_category `RTTI Type Descriptor'
	DD	00H
	DB	'.?AVerror_category@std@@', 00H
_DATA	ENDS
;	COMDAT ??_R4error_category@std@@6B@
rdata$r	SEGMENT
??_R4error_category@std@@6B@ DD 00H			; std::error_category::`RTTI Complete Object Locator'
	DD	00H
	DD	00H
	DD	FLAT:??_R0?AVerror_category@std@@@8
	DD	FLAT:??_R3error_category@std@@8
rdata$r	ENDS
;	COMDAT ??_C@_0BA@JFNIOLAK@string?5too?5long?$AA@
CONST	SEGMENT
??_C@_0BA@JFNIOLAK@string?5too?5long?$AA@ DB 'string too long', 00H ; `string'
CONST	ENDS
;	COMDAT ??_C@_0BI@CFPLBAOH@invalid?5string?5position?$AA@
CONST	SEGMENT
??_C@_0BI@CFPLBAOH@invalid?5string?5position?$AA@ DB 'invalid string posi'
	DB	'tion', 00H					; `string'
CONST	ENDS
;	COMDAT ??_C@_05DNIIFBMG@?$CFs?5?$CFs?$AA@
CONST	SEGMENT
??_C@_05DNIIFBMG@?$CFs?5?$CFs?$AA@ DB '%s %s', 00H	; `string'
CONST	ENDS
;	COMDAT ??_C@_0BG@CMOOHMCL@Couldn?8t?5save?5logbook?$AA@
CONST	SEGMENT
??_C@_0BG@CMOOHMCL@Couldn?8t?5save?5logbook?$AA@ DB 'Couldn''t save logbo'
	DB	'ok', 00H					; `string'
CONST	ENDS
;	COMDAT ??_C@_02GMLFBBN@wb?$AA@
CONST	SEGMENT
??_C@_02GMLFBBN@wb?$AA@ DB 'wb', 00H			; `string'
CONST	ENDS
;	COMDAT ??_C@_0BA@BIACLFKH@Failed?5checksum?$AA@
CONST	SEGMENT
??_C@_0BA@BIACLFKH@Failed?5checksum?$AA@ DB 'Failed checksum', 00H ; `string'
CONST	ENDS
;	COMDAT ??_C@_0BO@PBIEDHCE@Failed?5to?5read?5?$CFs?8s?5logbook?4?6?$AA@
CONST	SEGMENT
??_C@_0BO@PBIEDHCE@Failed?5to?5read?5?$CFs?8s?5logbook?4?6?$AA@ DB 'Faile'
	DB	'd to read %s''s logbook.', 0aH, 00H		; `string'
CONST	ENDS
;	COMDAT ??_C@_0CC@IOKEGJDH@?$CFs?8s?5logbook?5is?5old?5file?5format?4@
CONST	SEGMENT
??_C@_0CC@IOKEGJDH@?$CFs?8s?5logbook?5is?5old?5file?5format?4@ DB '%s''s '
	DB	'logbook is old file format.', 0aH, 00H	; `string'
CONST	ENDS
;	COMDAT ??_C@_0BN@GDOMNNEK@Couldn?8t?5open?5?$CFs?8s?5logbook?4?6?$AA@
CONST	SEGMENT
??_C@_0BN@GDOMNNEK@Couldn?8t?5open?5?$CFs?8s?5logbook?4?6?$AA@ DB 'Couldn'
	DB	'''t open %s''s logbook.', 0aH, 00H		; `string'
CONST	ENDS
;	COMDAT ??_C@_02JDPG@rb?$AA@
CONST	SEGMENT
??_C@_02JDPG@rb?$AA@ DB 'rb', 00H			; `string'
CONST	ENDS
;	COMDAT ??_C@_0BB@LEPDOEAL@?$CFs?2config?2?$CFs?4lbk?$AA@
CONST	SEGMENT
??_C@_0BB@LEPDOEAL@?$CFs?2config?2?$CFs?4lbk?$AA@ DB '%s\config\%s.lbk', 00H ; `string'
CONST	ENDS
;	COMDAT ??_C@_0BB@FCBNOHJF@?$CFs?2config?2?$CFs?4rul?$AA@
CONST	SEGMENT
??_C@_0BB@FCBNOHJF@?$CFs?2config?2?$CFs?4rul?$AA@ DB '%s\config\%s.rul', 00H ; `string'
CONST	ENDS
;	COMDAT ??_C@_0BB@GMHLKLCO@?$CFs?2config?2?$CFs?4plc?$AA@
CONST	SEGMENT
??_C@_0BB@GMHLKLCO@?$CFs?2config?2?$CFs?4plc?$AA@ DB '%s\config\%s.plc', 00H ; `string'
CONST	ENDS
;	COMDAT ??_C@_0P@HHHHAIGA@?$CF02d?1?$CF02d?1?$CF02d?$AA@
CONST	SEGMENT
??_C@_0P@HHHHAIGA@?$CF02d?1?$CF02d?1?$CF02d?$AA@ DB '%02d/%02d/%02d', 00H ; `string'
CONST	ENDS
;	COMDAT ??_C@_0P@HNKFAEAF@?$CF02d?4?$CF02d?4?$CF02d?$AA@
CONST	SEGMENT
??_C@_0P@HNKFAEAF@?$CF02d?4?$CF02d?4?$CF02d?$AA@ DB '%02d.%02d.%02d', 00H ; `string'
CONST	ENDS
;	COMDAT ??_C@_07MCAEODGB@Default?$AA@
CONST	SEGMENT
??_C@_07MCAEODGB@Default?$AA@ DB 'Default', 00H		; `string'
CONST	ENDS
;	COMDAT ??_C@_05DIOCBCKJ@Viper?$AA@
CONST	SEGMENT
??_C@_05DIOCBCKJ@Viper?$AA@ DB 'Viper', 00H		; `string'
CONST	ENDS
;	COMDAT ??_C@_09KAAFLMEJ@Joe?5Pilot?$AA@
CONST	SEGMENT
??_C@_09KAAFLMEJ@Joe?5Pilot?$AA@ DB 'Joe Pilot', 00H	; `string'
CONST	ENDS
;	COMDAT ??_C@_0CB@GKGGACIB@Failed?5to?5get?5registry?5entries?4?6@
CONST	SEGMENT
??_C@_0CB@GKGGACIB@Failed?5to?5get?5registry?5entries?4?6@ DB 'Failed to '
	DB	'get registry entries.', 0aH, 00H		; `string'
CONST	ENDS
;	COMDAT ??_C@_0O@BHDLDEML@PilotCallsign?$AA@
CONST	SEGMENT
??_C@_0O@BHDLDEML@PilotCallsign?$AA@ DB 'PilotCallsign', 00H ; `string'
CONST	ENDS
;	COMDAT ??_C@_09DHEFBMO@PilotName?$AA@
CONST	SEGMENT
??_C@_09DHEFBMO@PilotName?$AA@ DB 'PilotName', 00H	; `string'
CONST	ENDS
;	COMDAT ??_C@_0BP@KOIEKLOO@Software?2MicroProse?2Falcon?24?40?$AA@
CONST	SEGMENT
??_C@_0BP@KOIEKLOO@Software?2MicroProse?2Falcon?24?40?$AA@ DB 'Software\M'
	DB	'icroProse\Falcon\4.0', 00H			; `string'
CONST	ENDS
;	COMDAT ??_C@_02DKCKIIND@?$CFs?$AA@
CONST	SEGMENT
??_C@_02DKCKIIND@?$CFs?$AA@ DB '%s', 00H		; `string'
CONST	ENDS
;	COMDAT ??_C@_06FHFOAHML@system?$AA@
CONST	SEGMENT
??_C@_06FHFOAHML@system?$AA@ DB 'system', 00H		; `string'
CONST	ENDS
;	COMDAT ??_7_System_error_category@std@@6B@
CONST	SEGMENT
??_7_System_error_category@std@@6B@ DD FLAT:??_R4_System_error_category@std@@6B@ ; std::_System_error_category::`vftable'
	DD	FLAT:??_E_System_error_category@std@@UAEPAXI@Z
	DD	FLAT:?name@_System_error_category@std@@UBEPBDXZ
	DD	FLAT:?message@_System_error_category@std@@UBE?AV?$basic_string@DU?$char_traits@D@std@@V?$allocator@D@2@@2@H@Z
	DD	FLAT:?default_error_condition@_System_error_category@std@@UBE?AVerror_condition@2@H@Z
	DD	FLAT:?equivalent@error_category@std@@UBE_NABVerror_code@2@H@Z
	DD	FLAT:?equivalent@error_category@std@@UBE_NHABVerror_condition@2@@Z
CONST	ENDS
;	COMDAT ??_C@_0BG@PADBLCHM@iostream?5stream?5error?$AA@
CONST	SEGMENT
??_C@_0BG@PADBLCHM@iostream?5stream?5error?$AA@ DB 'iostream stream error'
	DB	00H						; `string'
CONST	ENDS
;	COMDAT ??_C@_08LLGCOLLL@iostream?$AA@
CONST	SEGMENT
??_C@_08LLGCOLLL@iostream?$AA@ DB 'iostream', 00H	; `string'
CONST	ENDS
;	COMDAT ??_7_Iostream_error_category@std@@6B@
CONST	SEGMENT
??_7_Iostream_error_category@std@@6B@ DD FLAT:??_R4_Iostream_error_category@std@@6B@ ; std::_Iostream_error_category::`vftable'
	DD	FLAT:??_E_Iostream_error_category@std@@UAEPAXI@Z
	DD	FLAT:?name@_Iostream_error_category@std@@UBEPBDXZ
	DD	FLAT:?message@_Iostream_error_category@std@@UBE?AV?$basic_string@DU?$char_traits@D@std@@V?$allocator@D@2@@2@H@Z
	DD	FLAT:?default_error_condition@error_category@std@@UBE?AVerror_condition@2@H@Z
	DD	FLAT:?equivalent@error_category@std@@UBE_NABVerror_code@2@H@Z
	DD	FLAT:?equivalent@error_category@std@@UBE_NHABVerror_condition@2@@Z
CONST	ENDS
;	COMDAT ??_C@_0O@BFJCFAAK@unknown?5error?$AA@
CONST	SEGMENT
??_C@_0O@BFJCFAAK@unknown?5error?$AA@ DB 'unknown error', 00H ; `string'
CONST	ENDS
;	COMDAT ??_C@_07DCLBNMLN@generic?$AA@
CONST	SEGMENT
??_C@_07DCLBNMLN@generic?$AA@ DB 'generic', 00H		; `string'
CONST	ENDS
;	COMDAT ??_7_Generic_error_category@std@@6B@
CONST	SEGMENT
??_7_Generic_error_category@std@@6B@ DD FLAT:??_R4_Generic_error_category@std@@6B@ ; std::_Generic_error_category::`vftable'
	DD	FLAT:??_E_Generic_error_category@std@@UAEPAXI@Z
	DD	FLAT:?name@_Generic_error_category@std@@UBEPBDXZ
	DD	FLAT:?message@_Generic_error_category@std@@UBE?AV?$basic_string@DU?$char_traits@D@std@@V?$allocator@D@2@@2@H@Z
	DD	FLAT:?default_error_condition@error_category@std@@UBE?AVerror_condition@2@H@Z
	DD	FLAT:?equivalent@error_category@std@@UBE_NABVerror_code@2@H@Z
	DD	FLAT:?equivalent@error_category@std@@UBE_NHABVerror_condition@2@@Z
CONST	ENDS
;	COMDAT ??_7error_category@std@@6B@
CONST	SEGMENT
??_7error_category@std@@6B@ DD FLAT:??_R4error_category@std@@6B@ ; std::error_category::`vftable'
	DD	FLAT:??_Eerror_category@std@@UAEPAXI@Z
	DD	FLAT:__purecall
	DD	FLAT:__purecall
	DD	FLAT:?default_error_condition@error_category@std@@UBE?AVerror_condition@2@H@Z
	DD	FLAT:?equivalent@error_category@std@@UBE_NABVerror_code@2@H@Z
	DD	FLAT:?equivalent@error_category@std@@UBE_NHABVerror_condition@2@@Z
CONST	ENDS
;	COMDAT ??_C@_00CNPNBAHC@?$AA@
CONST	SEGMENT
??_C@_00CNPNBAHC@?$AA@ DB 00H				; `string'
CONST	ENDS
;	COMDAT xdata$x
xdata$x	SEGMENT
__unwindtable$??$construct@PADAAPAD@?$allocator@D@std@@QAEXPAPADAAPAD@Z DD 0ffffffffH
	DD	FLAT:__unwindfunclet$??$construct@PADAAPAD@?$allocator@D@std@@QAEXPAPADAAPAD@Z$0
__ehfuncinfo$??$construct@PADAAPAD@?$allocator@D@std@@QAEXPAPADAAPAD@Z DD 019930522H
	DD	01H
	DD	FLAT:__unwindtable$??$construct@PADAAPAD@?$allocator@D@std@@QAEXPAPADAAPAD@Z
	DD	2 DUP(00H)
	DD	2 DUP(00H)
	DD	00H
	DD	01H
xdata$x	ENDS
;	COMDAT xdata$x
xdata$x	SEGMENT
__catchsym$?_Copy@?$basic_string@DU?$char_traits@D@std@@V?$allocator@D@2@@std@@QAEXII@Z$5 DD 040H
	DD	00H
	DD	00H
	DD	FLAT:__catch$?_Copy@?$basic_string@DU?$char_traits@D@std@@V?$allocator@D@2@@std@@QAEXII@Z$0
__catchsym$?_Copy@?$basic_string@DU?$char_traits@D@std@@V?$allocator@D@2@@std@@QAEXII@Z$4 DD 040H
	DD	00H
	DD	00H
	DD	FLAT:__catch$?_Copy@?$basic_string@DU?$char_traits@D@std@@V?$allocator@D@2@@std@@QAEXII@Z$1
__unwindtable$?_Copy@?$basic_string@DU?$char_traits@D@std@@V?$allocator@D@2@@std@@QAEXII@Z DD 0ffffffffH
	DD	00H
	DD	0ffffffffH
	DD	00H
	DD	01H
	DD	00H
	DD	01H
	DD	00H
__ehfuncinfo$?_Copy@?$basic_string@DU?$char_traits@D@std@@V?$allocator@D@2@@std@@QAEXII@Z DD 019930522H
	DD	04H
	DD	FLAT:__unwindtable$?_Copy@?$basic_string@DU?$char_traits@D@std@@V?$allocator@D@2@@std@@QAEXII@Z
	DD	02H
	DD	FLAT:__tryblocktable$?_Copy@?$basic_string@DU?$char_traits@D@std@@V?$allocator@D@2@@std@@QAEXII@Z
	DD	2 DUP(00H)
	DD	00H
	DD	01H
__tryblocktable$?_Copy@?$basic_string@DU?$char_traits@D@std@@V?$allocator@D@2@@std@@QAEXII@Z DD 02H
	DD	02H
	DD	03H
	DD	01H
	DD	FLAT:__catchsym$?_Copy@?$basic_string@DU?$char_traits@D@std@@V?$allocator@D@2@@std@@QAEXII@Z$4
	DD	00H
	DD	00H
	DD	03H
	DD	01H
	DD	FLAT:__catchsym$?_Copy@?$basic_string@DU?$char_traits@D@std@@V?$allocator@D@2@@std@@QAEXII@Z$5
xdata$x	ENDS
CRT$XCU	SEGMENT
_allocator_arg$initializer$ DD FLAT:??__Eallocator_arg@std@@YAXXZ
CRT$XCU	ENDS
CRT$XCU	SEGMENT
_LogBook$initializer$ DD FLAT:??__ELogBook@@YAXXZ
CRT$XCU	ENDS
;	COMDAT CRT$XCU
CRT$XCU	SEGMENT
?_Generic_object$initializer$@?$_Error_objects@H@std@@2P6AXXZA DD FLAT:??__E?_Generic_object@?$_Error_objects@H@std@@2V_Generic_error_category@2@A@@YAXXZ ; std::_Error_objects<int>::_Generic_object$initializer$
CRT$XCU	ENDS
;	COMDAT CRT$XCU
CRT$XCU	SEGMENT
?_Iostream_object$initializer$@?$_Error_objects@H@std@@2P6AXXZA DD FLAT:??__E?_Iostream_object@?$_Error_objects@H@std@@2V_Iostream_error_category@2@A@@YAXXZ ; std::_Error_objects<int>::_Iostream_object$initializer$
CRT$XCU	ENDS
;	COMDAT CRT$XCU
CRT$XCU	SEGMENT
?_System_object$initializer$@?$_Error_objects@H@std@@2P6AXXZA DD FLAT:??__E?_System_object@?$_Error_objects@H@std@@2V_System_error_category@2@A@@YAXXZ ; std::_Error_objects<int>::_System_object$initializer$
CRT$XCU	ENDS
;	COMDAT CRT$XCU
CRT$XCU	SEGMENT
?id$initializer$@?$num_put@DV?$back_insert_iterator@V?$basic_string@DU?$char_traits@D@std@@V?$allocator@D@2@@std@@@std@@@std@@2P6AXXZA DD FLAT:??__E?id@?$num_put@DV?$back_insert_iterator@V?$basic_string@DU?$char_traits@D@std@@V?$allocator@D@2@@std@@@std@@@std@@2V0locale@2@A@@YAXXZ ; std::num_put<char,std::back_insert_iterator<std::basic_string<char,std::char_traits<char>,std::allocator<char> > > >::id$initializer$
CRT$XCU	ENDS
;	COMDAT CRT$XCU
CRT$XCU	SEGMENT
?id$initializer$@?$num_put@_WV?$back_insert_iterator@V?$basic_string@_WU?$char_traits@_W@std@@V?$allocator@_W@2@@std@@@std@@@std@@2P6AXXZA DD FLAT:??__E?id@?$num_put@_WV?$back_insert_iterator@V?$basic_string@_WU?$char_traits@_W@std@@V?$allocator@_W@2@@std@@@std@@@std@@2V0locale@2@A@@YAXXZ ; std::num_put<wchar_t,std::back_insert_iterator<std::basic_string<wchar_t,std::char_traits<wchar_t>,std::allocator<wchar_t> > > >::id$initializer$
CRT$XCU	ENDS
;	COMDAT CRT$XCU
CRT$XCU	SEGMENT
?id$initializer$@?$numpunct@D@std@@2P6AXXZA DD FLAT:??__E?id@?$numpunct@D@std@@2V0locale@2@A@@YAXXZ ; std::numpunct<char>::id$initializer$
CRT$XCU	ENDS
;	COMDAT CRT$XCU
CRT$XCU	SEGMENT
?id$initializer$@?$numpunct@_W@std@@2P6AXXZA DD FLAT:??__E?id@?$numpunct@_W@std@@2V0locale@2@A@@YAXXZ ; std::numpunct<wchar_t>::id$initializer$
CRT$XCU	ENDS
; Function compile flags: /Odtp
; File c:\program files (x86)\microsoft visual studio 11.0\vc\include\xmemory0
;	COMDAT ??$destroy@PAD@?$allocator@D@std@@QAEXPAPAD@Z
_TEXT	SEGMENT
_this$ = -4						; size = 4
__Ptr$ = 8						; size = 4
??$destroy@PAD@?$allocator@D@std@@QAEXPAPAD@Z PROC	; std::allocator<char>::destroy<char *>, COMDAT
; _this$ = ecx

; 621  : 		void destroy(_Uty *_Ptr)

	push	ebp
	mov	ebp, esp
	push	ecx
	mov	DWORD PTR _this$[ebp], ecx

; 622  : 		{	// destroy object at _Ptr
; 623  : 		_Ptr->~_Uty();
; 624  : 		}

	mov	esp, ebp
	pop	ebp
	ret	4
??$destroy@PAD@?$allocator@D@std@@QAEXPAPAD@Z ENDP	; std::allocator<char>::destroy<char *>
_TEXT	ENDS
; Function compile flags: /Odtp
; File c:\program files (x86)\microsoft visual studio 11.0\vc\include\xmemory0
;	COMDAT ??$construct@PADAAPAD@?$allocator@D@std@@QAEXPAPADAAPAD@Z
_TEXT	SEGMENT
$T2 = -28						; size = 4
_this$ = -24						; size = 4
tv73 = -20						; size = 4
$T3 = -16						; size = 4
__$EHRec$ = -12						; size = 12
__Ptr$ = 8						; size = 4
__V0$ = 12						; size = 4
??$construct@PADAAPAD@?$allocator@D@std@@QAEXPAPADAAPAD@Z PROC ; std::allocator<char>::construct<char *,char * &>, COMDAT
; _this$ = ecx

; 617  : _VARIADIC_EXPAND_0X(_ALLOC_MEMBER_CONSTRUCT, , , , )

	push	ebp
	mov	ebp, esp
	push	-1
	push	__ehhandler$??$construct@PADAAPAD@?$allocator@D@std@@QAEXPAPADAAPAD@Z
	mov	eax, DWORD PTR fs:0
	push	eax
	sub	esp, 16					; 00000010H
	mov	eax, DWORD PTR ___security_cookie
	xor	eax, ebp
	push	eax
	lea	eax, DWORD PTR __$EHRec$[ebp]
	mov	DWORD PTR fs:0, eax
	mov	DWORD PTR _this$[ebp], ecx
	mov	eax, DWORD PTR __Ptr$[ebp]
	push	eax
	push	4
	call	??2@YAPAXIPAX@Z				; operator new
	add	esp, 8
	mov	DWORD PTR $T3[ebp], eax
	mov	DWORD PTR __$EHRec$[ebp+8], 0
	cmp	DWORD PTR $T3[ebp], 0
	je	SHORT $LN3@construct
	mov	ecx, DWORD PTR __V0$[ebp]
	push	ecx
	call	??$forward@AAPAD@std@@YAAAPADAAPAD@Z	; std::forward<char * &>
	add	esp, 4
	mov	edx, DWORD PTR $T3[ebp]
	mov	eax, DWORD PTR [eax]
	mov	DWORD PTR [edx], eax
	mov	ecx, DWORD PTR $T3[ebp]
	mov	DWORD PTR tv73[ebp], ecx
	jmp	SHORT $LN4@construct
$LN3@construct:
	mov	DWORD PTR tv73[ebp], 0
$LN4@construct:
	mov	edx, DWORD PTR tv73[ebp]
	mov	DWORD PTR $T2[ebp], edx
	mov	DWORD PTR __$EHRec$[ebp+8], -1
	mov	ecx, DWORD PTR __$EHRec$[ebp]
	mov	DWORD PTR fs:0, ecx
	pop	ecx
	mov	esp, ebp
	pop	ebp
	ret	8
_TEXT	ENDS
;	COMDAT text$x
text$x	SEGMENT
__unwindfunclet$??$construct@PADAAPAD@?$allocator@D@std@@QAEXPAPADAAPAD@Z$0:
	mov	eax, DWORD PTR __Ptr$[ebp]
	push	eax
	mov	eax, DWORD PTR $T3[ebp]
	push	eax
	call	??3@YAXPAX0@Z				; operator delete
	add	esp, 8
	ret	0
__ehhandler$??$construct@PADAAPAD@?$allocator@D@std@@QAEXPAPADAAPAD@Z:
	mov	edx, DWORD PTR [esp+8]
	lea	eax, DWORD PTR [edx+12]
	mov	ecx, DWORD PTR [edx-20]
	xor	ecx, eax
	call	@__security_check_cookie@4
	mov	eax, OFFSET __ehfuncinfo$??$construct@PADAAPAD@?$allocator@D@std@@QAEXPAPADAAPAD@Z
	jmp	___CxxFrameHandler3
text$x	ENDS
??$construct@PADAAPAD@?$allocator@D@std@@QAEXPAPADAAPAD@Z ENDP ; std::allocator<char>::construct<char *,char * &>
; Function compile flags: /Odtp
; File c:\program files (x86)\microsoft visual studio 11.0\vc\include\xlocnum
;	COMDAT ??__E?id@?$numpunct@_W@std@@2V0locale@2@A@@YAXXZ
text$yc	SEGMENT
??__E?id@?$numpunct@_W@std@@2V0locale@2@A@@YAXXZ PROC	; `dynamic initializer for 'std::numpunct<wchar_t>::id'', COMDAT

; 155  : 		void _Getvals(wchar_t, const lconv *_Ptr, _Locinfo::_Cvtvec)

	push	ebp
	mov	ebp, esp
	push	0
	mov	ecx, OFFSET ?id@?$numpunct@_W@std@@2V0locale@2@A ; std::numpunct<wchar_t>::id
	call	??0id@locale@std@@QAE@I@Z		; std::locale::id::id
	pop	ebp
	ret	0
??__E?id@?$numpunct@_W@std@@2V0locale@2@A@@YAXXZ ENDP	; `dynamic initializer for 'std::numpunct<wchar_t>::id''
text$yc	ENDS
; Function compile flags: /Odtp
; File c:\program files (x86)\microsoft visual studio 11.0\vc\include\xlocnum
;	COMDAT ??__E?id@?$numpunct@D@std@@2V0locale@2@A@@YAXXZ
text$yc	SEGMENT
??__E?id@?$numpunct@D@std@@2V0locale@2@A@@YAXXZ PROC	; `dynamic initializer for 'std::numpunct<char>::id'', COMDAT

; 155  : 		void _Getvals(wchar_t, const lconv *_Ptr, _Locinfo::_Cvtvec)

	push	ebp
	mov	ebp, esp
	push	0
	mov	ecx, OFFSET ?id@?$numpunct@D@std@@2V0locale@2@A ; std::numpunct<char>::id
	call	??0id@locale@std@@QAE@I@Z		; std::locale::id::id
	pop	ebp
	ret	0
??__E?id@?$numpunct@D@std@@2V0locale@2@A@@YAXXZ ENDP	; `dynamic initializer for 'std::numpunct<char>::id''
text$yc	ENDS
; Function compile flags: /Odtp
; File c:\program files (x86)\microsoft visual studio 11.0\vc\include\xlocnum
;	COMDAT ??__E?id@?$num_put@_WV?$back_insert_iterator@V?$basic_string@_WU?$char_traits@_W@std@@V?$allocator@_W@2@@std@@@std@@@std@@2V0locale@2@A@@YAXXZ
text$yc	SEGMENT
??__E?id@?$num_put@_WV?$back_insert_iterator@V?$basic_string@_WU?$char_traits@_W@std@@V?$allocator@_W@2@@std@@@std@@@std@@2V0locale@2@A@@YAXXZ PROC ; `dynamic initializer for 'std::num_put<wchar_t,std::back_insert_iterator<std::basic_string<wchar_t,std::char_traits<wchar_t>,std::allocator<wchar_t> > > >::id'', COMDAT

; 155  : 		void _Getvals(wchar_t, const lconv *_Ptr, _Locinfo::_Cvtvec)

	push	ebp
	mov	ebp, esp
	push	0
	mov	ecx, OFFSET ?id@?$num_put@_WV?$back_insert_iterator@V?$basic_string@_WU?$char_traits@_W@std@@V?$allocator@_W@2@@std@@@std@@@std@@2V0locale@2@A ; std::num_put<wchar_t,std::back_insert_iterator<std::basic_string<wchar_t,std::char_traits<wchar_t>,std::allocator<wchar_t> > > >::id
	call	??0id@locale@std@@QAE@I@Z		; std::locale::id::id
	pop	ebp
	ret	0
??__E?id@?$num_put@_WV?$back_insert_iterator@V?$basic_string@_WU?$char_traits@_W@std@@V?$allocator@_W@2@@std@@@std@@@std@@2V0locale@2@A@@YAXXZ ENDP ; `dynamic initializer for 'std::num_put<wchar_t,std::back_insert_iterator<std::basic_string<wchar_t,std::char_traits<wchar_t>,std::allocator<wchar_t> > > >::id''
text$yc	ENDS
; Function compile flags: /Odtp
; File c:\program files (x86)\microsoft visual studio 11.0\vc\include\xlocnum
;	COMDAT ??__E?id@?$num_put@DV?$back_insert_iterator@V?$basic_string@DU?$char_traits@D@std@@V?$allocator@D@2@@std@@@std@@@std@@2V0locale@2@A@@YAXXZ
text$yc	SEGMENT
??__E?id@?$num_put@DV?$back_insert_iterator@V?$basic_string@DU?$char_traits@D@std@@V?$allocator@D@2@@std@@@std@@@std@@2V0locale@2@A@@YAXXZ PROC ; `dynamic initializer for 'std::num_put<char,std::back_insert_iterator<std::basic_string<char,std::char_traits<char>,std::allocator<char> > > >::id'', COMDAT

; 155  : 		void _Getvals(wchar_t, const lconv *_Ptr, _Locinfo::_Cvtvec)

	push	ebp
	mov	ebp, esp
	push	0
	mov	ecx, OFFSET ?id@?$num_put@DV?$back_insert_iterator@V?$basic_string@DU?$char_traits@D@std@@V?$allocator@D@2@@std@@@std@@@std@@2V0locale@2@A ; std::num_put<char,std::back_insert_iterator<std::basic_string<char,std::char_traits<char>,std::allocator<char> > > >::id
	call	??0id@locale@std@@QAE@I@Z		; std::locale::id::id
	pop	ebp
	ret	0
??__E?id@?$num_put@DV?$back_insert_iterator@V?$basic_string@DU?$char_traits@D@std@@V?$allocator@D@2@@std@@@std@@@std@@2V0locale@2@A@@YAXXZ ENDP ; `dynamic initializer for 'std::num_put<char,std::back_insert_iterator<std::basic_string<char,std::char_traits<char>,std::allocator<char> > > >::id''
text$yc	ENDS
; Function compile flags: /Odtp
; File c:\program files (x86)\microsoft visual studio 11.0\vc\include\xmemory0
;	COMDAT ??$destroy@PAD@?$allocator_traits@V?$allocator@D@std@@@std@@SAXAAV?$allocator@D@1@PAPAD@Z
_TEXT	SEGMENT
__Al$ = 8						; size = 4
__Ptr$ = 12						; size = 4
??$destroy@PAD@?$allocator_traits@V?$allocator@D@std@@@std@@SAXAAV?$allocator@D@1@PAPAD@Z PROC ; std::allocator_traits<std::allocator<char> >::destroy<char *>, COMDAT

; 755  : 		static void destroy(_Alloc& _Al, _Uty *_Ptr)

	push	ebp
	mov	ebp, esp

; 756  : 		{	// destroy object at _Ptr
; 757  : 		_Al.destroy(_Ptr);

	mov	eax, DWORD PTR __Ptr$[ebp]
	push	eax
	mov	ecx, DWORD PTR __Al$[ebp]
	call	??$destroy@PAD@?$allocator@D@std@@QAEXPAPAD@Z ; std::allocator<char>::destroy<char *>

; 758  : 		}

	pop	ebp
	ret	0
??$destroy@PAD@?$allocator_traits@V?$allocator@D@std@@@std@@SAXAAV?$allocator@D@1@PAPAD@Z ENDP ; std::allocator_traits<std::allocator<char> >::destroy<char *>
_TEXT	ENDS
; Function compile flags: /Odtp
; File c:\program files (x86)\microsoft visual studio 11.0\vc\include\xmemory0
;	COMDAT ??$construct@PADAAPAD@?$allocator_traits@V?$allocator@D@std@@@std@@SAXAAV?$allocator@D@1@PAPADAAPAD@Z
_TEXT	SEGMENT
__Al$ = 8						; size = 4
__Ptr$ = 12						; size = 4
__V0$ = 16						; size = 4
??$construct@PADAAPAD@?$allocator_traits@V?$allocator@D@std@@@std@@SAXAAV?$allocator@D@1@PAPADAAPAD@Z PROC ; std::allocator_traits<std::allocator<char> >::construct<char *,char * &>, COMDAT

; 751  : _VARIADIC_EXPAND_0X(_ALLOC_TRAITS_SPECIAL_CONSTRUCT, , , , )

	push	ebp
	mov	ebp, esp
	mov	eax, DWORD PTR __V0$[ebp]
	push	eax
	call	??$forward@AAPAD@std@@YAAAPADAAPAD@Z	; std::forward<char * &>
	add	esp, 4
	push	eax
	mov	ecx, DWORD PTR __Ptr$[ebp]
	push	ecx
	mov	ecx, DWORD PTR __Al$[ebp]
	call	??$construct@PADAAPAD@?$allocator@D@std@@QAEXPAPADAAPAD@Z ; std::allocator<char>::construct<char *,char * &>
	pop	ebp
	ret	0
??$construct@PADAAPAD@?$allocator_traits@V?$allocator@D@std@@@std@@SAXAAV?$allocator@D@1@PAPADAAPAD@Z ENDP ; std::allocator_traits<std::allocator<char> >::construct<char *,char * &>
_TEXT	ENDS
; Function compile flags: /Odtp
; File c:\program files (x86)\microsoft visual studio 11.0\vc\include\type_traits
;	COMDAT ??$forward@AAPAD@std@@YAAAPADAAPAD@Z
_TEXT	SEGMENT
__Arg$ = 8						; size = 4
??$forward@AAPAD@std@@YAAAPADAAPAD@Z PROC		; std::forward<char * &>, COMDAT

; 1775 : 	{	// forward an lvalue

	push	ebp
	mov	ebp, esp

; 1776 : 	return (static_cast<_Ty&&>(_Arg));

	mov	eax, DWORD PTR __Arg$[ebp]

; 1777 : 	}

	pop	ebp
	ret	0
??$forward@AAPAD@std@@YAAAPADAAPAD@Z ENDP		; std::forward<char * &>
_TEXT	ENDS
; Function compile flags: /Odtp
;	COMDAT ??__F?_System_object@?$_Error_objects@H@std@@2V_System_error_category@2@A@@YAXXZ
text$yd	SEGMENT
??__F?_System_object@?$_Error_objects@H@std@@2V_System_error_category@2@A@@YAXXZ PROC ; `dynamic atexit destructor for 'std::_Error_objects<int>::_System_object'', COMDAT
	push	ebp
	mov	ebp, esp
	mov	ecx, OFFSET ?_System_object@?$_Error_objects@H@std@@2V_System_error_category@2@A ; std::_Error_objects<int>::_System_object
	call	??1_System_error_category@std@@UAE@XZ
	pop	ebp
	ret	0
??__F?_System_object@?$_Error_objects@H@std@@2V_System_error_category@2@A@@YAXXZ ENDP ; `dynamic atexit destructor for 'std::_Error_objects<int>::_System_object''
text$yd	ENDS
; Function compile flags: /Odtp
; File c:\program files (x86)\microsoft visual studio 11.0\vc\include\xmemory0
;	COMDAT ??__E?_System_object@?$_Error_objects@H@std@@2V_System_error_category@2@A@@YAXXZ
text$yc	SEGMENT
??__E?_System_object@?$_Error_objects@H@std@@2V_System_error_category@2@A@@YAXXZ PROC ; `dynamic initializer for 'std::_Error_objects<int>::_System_object'', COMDAT

; 627  : 		{	// estimate maximum array size

	push	ebp
	mov	ebp, esp
	mov	ecx, OFFSET ?_System_object@?$_Error_objects@H@std@@2V_System_error_category@2@A ; std::_Error_objects<int>::_System_object
	call	??0_System_error_category@std@@QAE@XZ	; std::_System_error_category::_System_error_category
	push	OFFSET ??__F?_System_object@?$_Error_objects@H@std@@2V_System_error_category@2@A@@YAXXZ ; `dynamic atexit destructor for 'std::_Error_objects<int>::_System_object''
	call	_atexit
	add	esp, 4
	pop	ebp
	ret	0
??__E?_System_object@?$_Error_objects@H@std@@2V_System_error_category@2@A@@YAXXZ ENDP ; `dynamic initializer for 'std::_Error_objects<int>::_System_object''
text$yc	ENDS
; Function compile flags: /Odtp
;	COMDAT ??__F?_Iostream_object@?$_Error_objects@H@std@@2V_Iostream_error_category@2@A@@YAXXZ
text$yd	SEGMENT
??__F?_Iostream_object@?$_Error_objects@H@std@@2V_Iostream_error_category@2@A@@YAXXZ PROC ; `dynamic atexit destructor for 'std::_Error_objects<int>::_Iostream_object'', COMDAT
	push	ebp
	mov	ebp, esp
	mov	ecx, OFFSET ?_Iostream_object@?$_Error_objects@H@std@@2V_Iostream_error_category@2@A ; std::_Error_objects<int>::_Iostream_object
	call	??1_Iostream_error_category@std@@UAE@XZ
	pop	ebp
	ret	0
??__F?_Iostream_object@?$_Error_objects@H@std@@2V_Iostream_error_category@2@A@@YAXXZ ENDP ; `dynamic atexit destructor for 'std::_Error_objects<int>::_Iostream_object''
text$yd	ENDS
; Function compile flags: /Odtp
; File c:\program files (x86)\microsoft visual studio 11.0\vc\include\xmemory0
;	COMDAT ??__E?_Iostream_object@?$_Error_objects@H@std@@2V_Iostream_error_category@2@A@@YAXXZ
text$yc	SEGMENT
??__E?_Iostream_object@?$_Error_objects@H@std@@2V_Iostream_error_category@2@A@@YAXXZ PROC ; `dynamic initializer for 'std::_Error_objects<int>::_Iostream_object'', COMDAT

; 627  : 		{	// estimate maximum array size

	push	ebp
	mov	ebp, esp
	mov	ecx, OFFSET ?_Iostream_object@?$_Error_objects@H@std@@2V_Iostream_error_category@2@A ; std::_Error_objects<int>::_Iostream_object
	call	??0_Iostream_error_category@std@@QAE@XZ	; std::_Iostream_error_category::_Iostream_error_category
	push	OFFSET ??__F?_Iostream_object@?$_Error_objects@H@std@@2V_Iostream_error_category@2@A@@YAXXZ ; `dynamic atexit destructor for 'std::_Error_objects<int>::_Iostream_object''
	call	_atexit
	add	esp, 4
	pop	ebp
	ret	0
??__E?_Iostream_object@?$_Error_objects@H@std@@2V_Iostream_error_category@2@A@@YAXXZ ENDP ; `dynamic initializer for 'std::_Error_objects<int>::_Iostream_object''
text$yc	ENDS
; Function compile flags: /Odtp
;	COMDAT ??__F?_Generic_object@?$_Error_objects@H@std@@2V_Generic_error_category@2@A@@YAXXZ
text$yd	SEGMENT
??__F?_Generic_object@?$_Error_objects@H@std@@2V_Generic_error_category@2@A@@YAXXZ PROC ; `dynamic atexit destructor for 'std::_Error_objects<int>::_Generic_object'', COMDAT
	push	ebp
	mov	ebp, esp
	mov	ecx, OFFSET ?_Generic_object@?$_Error_objects@H@std@@2V_Generic_error_category@2@A ; std::_Error_objects<int>::_Generic_object
	call	??1_Generic_error_category@std@@UAE@XZ
	pop	ebp
	ret	0
??__F?_Generic_object@?$_Error_objects@H@std@@2V_Generic_error_category@2@A@@YAXXZ ENDP ; `dynamic atexit destructor for 'std::_Error_objects<int>::_Generic_object''
text$yd	ENDS
; Function compile flags: /Odtp
; File c:\program files (x86)\microsoft visual studio 11.0\vc\include\xmemory0
;	COMDAT ??__E?_Generic_object@?$_Error_objects@H@std@@2V_Generic_error_category@2@A@@YAXXZ
text$yc	SEGMENT
??__E?_Generic_object@?$_Error_objects@H@std@@2V_Generic_error_category@2@A@@YAXXZ PROC ; `dynamic initializer for 'std::_Error_objects<int>::_Generic_object'', COMDAT

; 627  : 		{	// estimate maximum array size

	push	ebp
	mov	ebp, esp
	mov	ecx, OFFSET ?_Generic_object@?$_Error_objects@H@std@@2V_Generic_error_category@2@A ; std::_Error_objects<int>::_Generic_object
	call	??0_Generic_error_category@std@@QAE@XZ	; std::_Generic_error_category::_Generic_error_category
	push	OFFSET ??__F?_Generic_object@?$_Error_objects@H@std@@2V_Generic_error_category@2@A@@YAXXZ ; `dynamic atexit destructor for 'std::_Error_objects<int>::_Generic_object''
	call	_atexit
	add	esp, 4
	pop	ebp
	ret	0
??__E?_Generic_object@?$_Error_objects@H@std@@2V_Generic_error_category@2@A@@YAXXZ ENDP ; `dynamic initializer for 'std::_Error_objects<int>::_Generic_object''
text$yc	ENDS
; Function compile flags: /Odtp
; File c:\program files (x86)\microsoft visual studio 11.0\vc\include\xmemory0
;	COMDAT ??$_Allocate@D@std@@YAPADIPAD@Z
_TEXT	SEGMENT
__Ptr$ = -4						; size = 4
__Count$ = 8						; size = 4
___formal$ = 12						; size = 4
??$_Allocate@D@std@@YAPADIPAD@Z PROC			; std::_Allocate<char>, COMDAT

; 22   : 	{	// allocate storage for _Count elements of type _Ty

	push	ebp
	mov	ebp, esp
	push	ecx

; 23   : 	void *_Ptr = 0;

	mov	DWORD PTR __Ptr$[ebp], 0

; 24   : 
; 25   : 	if (_Count == 0)

	cmp	DWORD PTR __Count$[ebp], 0
	jne	SHORT $LN4@Allocate

; 26   : 		;
; 27   : 	else if (((size_t)(-1) / sizeof (_Ty) < _Count)

	jmp	SHORT $LN3@Allocate
$LN4@Allocate:

; 28   : 		|| (_Ptr = ::operator new(_Count * sizeof (_Ty))) == 0)

	cmp	DWORD PTR __Count$[ebp], -1
	ja	SHORT $LN1@Allocate
	mov	eax, DWORD PTR __Count$[ebp]
	push	eax
	call	??2@YAPAXI@Z				; operator new
	add	esp, 4
	mov	DWORD PTR __Ptr$[ebp], eax
	cmp	DWORD PTR __Ptr$[ebp], 0
	jne	SHORT $LN3@Allocate
$LN1@Allocate:

; 29   : 		_Xbad_alloc();	// report no memory

	call	?_Xbad_alloc@std@@YAXXZ			; std::_Xbad_alloc
$LN3@Allocate:

; 30   : 
; 31   : 	return ((_Ty *)_Ptr);

	mov	eax, DWORD PTR __Ptr$[ebp]
$LN6@Allocate:

; 32   : 	}

	mov	esp, ebp
	pop	ebp
	ret	0
??$_Allocate@D@std@@YAPADIPAD@Z ENDP			; std::_Allocate<char>
_TEXT	ENDS
; Function compile flags: /Odtp
; File c:\program files (x86)\microsoft visual studio 11.0\vc\include\xstddef
;	COMDAT ??$addressof@D@std@@YAPADAAD@Z
_TEXT	SEGMENT
__Val$ = 8						; size = 4
??$addressof@D@std@@YAPADAAD@Z PROC			; std::addressof<char>, COMDAT

; 85   : 	{	// return address of _Val

	push	ebp
	mov	ebp, esp

; 86   : 	return (reinterpret_cast<_Ty *>(
; 87   : 		(&const_cast<char&>(
; 88   : 		reinterpret_cast<const volatile char&>(_Val)))));

	mov	eax, DWORD PTR __Val$[ebp]

; 89   : 	}

	pop	ebp
	ret	0
??$addressof@D@std@@YAPADAAD@Z ENDP			; std::addressof<char>
_TEXT	ENDS
; Function compile flags: /Odtp
; File c:\program files (x86)\microsoft visual studio 11.0\vc\include\xmemory0
;	COMDAT ??$destroy@PAD@?$_Wrap_alloc@V?$allocator@D@std@@@std@@QAEXPAPAD@Z
_TEXT	SEGMENT
_this$ = -4						; size = 4
__Ptr$ = 8						; size = 4
??$destroy@PAD@?$_Wrap_alloc@V?$allocator@D@std@@@std@@QAEXPAPAD@Z PROC ; std::_Wrap_alloc<std::allocator<char> >::destroy<char *>, COMDAT
; _this$ = ecx

; 907  : 		void destroy(_Ty *_Ptr)

	push	ebp
	mov	ebp, esp
	push	ecx
	mov	DWORD PTR _this$[ebp], ecx

; 908  : 		{	// destroy object at _Ptr
; 909  : 		_Mytraits::destroy(*this, _Ptr);

	mov	eax, DWORD PTR __Ptr$[ebp]
	push	eax
	mov	ecx, DWORD PTR _this$[ebp]
	push	ecx
	call	??$destroy@PAD@?$allocator_traits@V?$allocator@D@std@@@std@@SAXAAV?$allocator@D@1@PAPAD@Z ; std::allocator_traits<std::allocator<char> >::destroy<char *>
	add	esp, 8

; 910  : 		}

	mov	esp, ebp
	pop	ebp
	ret	4
??$destroy@PAD@?$_Wrap_alloc@V?$allocator@D@std@@@std@@QAEXPAPAD@Z ENDP ; std::_Wrap_alloc<std::allocator<char> >::destroy<char *>
_TEXT	ENDS
; Function compile flags: /Odtp
; File c:\program files (x86)\microsoft visual studio 11.0\vc\include\xmemory0
;	COMDAT ??$construct@PADAAPAD@?$_Wrap_alloc@V?$allocator@D@std@@@std@@QAEXPAPADAAPAD@Z
_TEXT	SEGMENT
_this$ = -4						; size = 4
__Ptr$ = 8						; size = 4
__V0$ = 12						; size = 4
??$construct@PADAAPAD@?$_Wrap_alloc@V?$allocator@D@std@@@std@@QAEXPAPADAAPAD@Z PROC ; std::_Wrap_alloc<std::allocator<char> >::construct<char *,char * &>, COMDAT
; _this$ = ecx

; 903  : _VARIADIC_EXPAND_0X(_WRAP_ALLOC_CONSTRUCT, , , , )

	push	ebp
	mov	ebp, esp
	push	ecx
	mov	DWORD PTR _this$[ebp], ecx
	mov	eax, DWORD PTR __V0$[ebp]
	push	eax
	call	??$forward@AAPAD@std@@YAAAPADAAPAD@Z	; std::forward<char * &>
	add	esp, 4
	push	eax
	mov	ecx, DWORD PTR __Ptr$[ebp]
	push	ecx
	mov	edx, DWORD PTR _this$[ebp]
	push	edx
	call	??$construct@PADAAPAD@?$allocator_traits@V?$allocator@D@std@@@std@@SAXAAV?$allocator@D@1@PAPADAAPAD@Z ; std::allocator_traits<std::allocator<char> >::construct<char *,char * &>
	add	esp, 12					; 0000000cH
	mov	esp, ebp
	pop	ebp
	ret	8
??$construct@PADAAPAD@?$_Wrap_alloc@V?$allocator@D@std@@@std@@QAEXPAPADAAPAD@Z ENDP ; std::_Wrap_alloc<std::allocator<char> >::construct<char *,char * &>
_TEXT	ENDS
; Function compile flags: /Odtp
;	COMDAT ??__FLogBook@@YAXXZ
text$yd	SEGMENT
??__FLogBook@@YAXXZ PROC				; `dynamic atexit destructor for 'LogBook'', COMDAT
	push	ebp
	mov	ebp, esp
	mov	ecx, OFFSET ?LogBook@@3VLogBookData@@A	; LogBook
	call	??1LogBookData@@QAE@XZ			; LogBookData::~LogBookData
	pop	ebp
	ret	0
??__FLogBook@@YAXXZ ENDP				; `dynamic atexit destructor for 'LogBook''
text$yd	ENDS
; Function compile flags: /Odtp
; File c:\users\zhitao li\documents\visual studio 2012\projects\freefalcon\ui\src\logbook\logbook.cpp
;	COMDAT ??__ELogBook@@YAXXZ
text$yc	SEGMENT
??__ELogBook@@YAXXZ PROC				; `dynamic initializer for 'LogBook'', COMDAT

; 18   : class LogBookData LogBook;

	push	ebp
	mov	ebp, esp
	mov	ecx, OFFSET ?LogBook@@3VLogBookData@@A	; LogBook
	call	??0LogBookData@@QAE@XZ			; LogBookData::LogBookData
	push	OFFSET ??__FLogBook@@YAXXZ		; `dynamic atexit destructor for 'LogBook''
	call	_atexit
	add	esp, 4
	pop	ebp
	ret	0
??__ELogBook@@YAXXZ ENDP				; `dynamic initializer for 'LogBook''
text$yc	ENDS
; Function compile flags: /Odtp
; File c:\users\zhitao li\documents\visual studio 2012\projects\freefalcon\falclib\include\falcsess.h
;	COMDAT ?SetVoiceID@FalconSessionEntity@@QAEXE@Z
_TEXT	SEGMENT
_this$ = -4						; size = 4
_v$ = 8							; size = 1
?SetVoiceID@FalconSessionEntity@@QAEXE@Z PROC		; FalconSessionEntity::SetVoiceID, COMDAT
; _this$ = ecx

; 186  : 	void SetVoiceID (uchar v)			{ voiceID = v; }

	push	ebp
	mov	ebp, esp
	push	ecx
	mov	DWORD PTR _this$[ebp], ecx
	mov	eax, DWORD PTR _this$[ebp]
	mov	cl, BYTE PTR _v$[ebp]
	mov	BYTE PTR [eax+522], cl
	mov	esp, ebp
	pop	ebp
	ret	4
?SetVoiceID@FalconSessionEntity@@QAEXE@Z ENDP		; FalconSessionEntity::SetVoiceID
_TEXT	ENDS
; Function compile flags: /Odtp
;	COMDAT ??_G_System_error_category@std@@UAEPAXI@Z
_TEXT	SEGMENT
_this$ = -4						; size = 4
___flags$ = 8						; size = 4
??_G_System_error_category@std@@UAEPAXI@Z PROC		; std::_System_error_category::`scalar deleting destructor', COMDAT
; _this$ = ecx
	push	ebp
	mov	ebp, esp
	push	ecx
	mov	DWORD PTR _this$[ebp], ecx
	mov	ecx, DWORD PTR _this$[ebp]
	call	??1_System_error_category@std@@UAE@XZ
	mov	eax, DWORD PTR ___flags$[ebp]
	and	eax, 1
	je	SHORT $LN1@scalar
	mov	ecx, DWORD PTR _this$[ebp]
	push	ecx
	call	??3@YAXPAX@Z				; operator delete
	add	esp, 4
$LN1@scalar:
	mov	eax, DWORD PTR _this$[ebp]
	mov	esp, ebp
	pop	ebp
	ret	4
??_G_System_error_category@std@@UAEPAXI@Z ENDP		; std::_System_error_category::`scalar deleting destructor'
_TEXT	ENDS
; Function compile flags: /Odtp
;	COMDAT ??1_System_error_category@std@@UAE@XZ
_TEXT	SEGMENT
_this$ = -4						; size = 4
??1_System_error_category@std@@UAE@XZ PROC		; std::_System_error_category::~_System_error_category, COMDAT
; _this$ = ecx
	push	ebp
	mov	ebp, esp
	push	ecx
	mov	DWORD PTR _this$[ebp], ecx
	mov	ecx, DWORD PTR _this$[ebp]
	call	??1_Generic_error_category@std@@UAE@XZ
	mov	esp, ebp
	pop	ebp
	ret	0
??1_System_error_category@std@@UAE@XZ ENDP		; std::_System_error_category::~_System_error_category
_TEXT	ENDS
; Function compile flags: /Odtp
; File c:\program files (x86)\microsoft visual studio 11.0\vc\include\system_error
;	COMDAT ?default_error_condition@_System_error_category@std@@UBE?AVerror_condition@2@H@Z
_TEXT	SEGMENT
_this$ = -4						; size = 4
___$ReturnUdt$ = 8					; size = 4
__Errval$ = 12						; size = 4
?default_error_condition@_System_error_category@std@@UBE?AVerror_condition@2@H@Z PROC ; std::_System_error_category::default_error_condition, COMDAT
; _this$ = ecx

; 641  : 		{	// make error_condition for error code (generic if possible)

	push	ebp
	mov	ebp, esp
	push	ecx
	mov	DWORD PTR _this$[ebp], ecx

; 642  : 		if (_Syserror_map(_Errval))

	mov	eax, DWORD PTR __Errval$[ebp]
	push	eax
	call	?_Syserror_map@std@@YAPBDH@Z		; std::_Syserror_map
	add	esp, 4
	test	eax, eax
	je	SHORT $LN2@default_er

; 643  : 			return (error_condition(_Errval, generic_category()));

	call	?generic_category@std@@YAABVerror_category@1@XZ ; std::generic_category
	push	eax
	mov	ecx, DWORD PTR __Errval$[ebp]
	push	ecx
	mov	ecx, DWORD PTR ___$ReturnUdt$[ebp]
	call	??0error_condition@std@@QAE@HABVerror_category@1@@Z ; std::error_condition::error_condition
	mov	eax, DWORD PTR ___$ReturnUdt$[ebp]
	jmp	SHORT $LN3@default_er

; 644  : 		else

	jmp	SHORT $LN3@default_er
$LN2@default_er:

; 645  : 			return (error_condition(_Errval, system_category()));

	call	?system_category@std@@YAABVerror_category@1@XZ ; std::system_category
	push	eax
	mov	edx, DWORD PTR __Errval$[ebp]
	push	edx
	mov	ecx, DWORD PTR ___$ReturnUdt$[ebp]
	call	??0error_condition@std@@QAE@HABVerror_category@1@@Z ; std::error_condition::error_condition
	mov	eax, DWORD PTR ___$ReturnUdt$[ebp]
$LN3@default_er:

; 646  : 		}

	mov	esp, ebp
	pop	ebp
	ret	8
?default_error_condition@_System_error_category@std@@UBE?AVerror_condition@2@H@Z ENDP ; std::_System_error_category::default_error_condition
_TEXT	ENDS
; Function compile flags: /Odtp
; File c:\program files (x86)\microsoft visual studio 11.0\vc\include\system_error
;	COMDAT ?message@_System_error_category@std@@UBE?AV?$basic_string@DU?$char_traits@D@std@@V?$allocator@D@2@@2@H@Z
_TEXT	SEGMENT
_this$ = -16						; size = 4
$T1 = -12						; size = 4
tv69 = -8						; size = 4
__Name$ = -4						; size = 4
___$ReturnUdt$ = 8					; size = 4
__Errcode$ = 12						; size = 4
?message@_System_error_category@std@@UBE?AV?$basic_string@DU?$char_traits@D@std@@V?$allocator@D@2@@2@H@Z PROC ; std::_System_error_category::message, COMDAT
; _this$ = ecx

; 634  : 		{	// convert to name of error

	push	ebp
	mov	ebp, esp
	sub	esp, 16					; 00000010H
	mov	DWORD PTR _this$[ebp], ecx
	mov	DWORD PTR $T1[ebp], 0

; 635  : 		const char *_Name = _Winerror_map(_Errcode);

	mov	eax, DWORD PTR __Errcode$[ebp]
	push	eax
	call	?_Winerror_map@std@@YAPBDH@Z		; std::_Winerror_map
	add	esp, 4
	mov	DWORD PTR __Name$[ebp], eax

; 636  : 		return (string(_Name != 0 ? _Name : "unknown error"));

	cmp	DWORD PTR __Name$[ebp], 0
	je	SHORT $LN3@message
	mov	ecx, DWORD PTR __Name$[ebp]
	mov	DWORD PTR tv69[ebp], ecx
	jmp	SHORT $LN4@message
$LN3@message:
	mov	DWORD PTR tv69[ebp], OFFSET ??_C@_0O@BFJCFAAK@unknown?5error?$AA@
$LN4@message:
	mov	edx, DWORD PTR tv69[ebp]
	push	edx
	mov	ecx, DWORD PTR ___$ReturnUdt$[ebp]
	call	??0?$basic_string@DU?$char_traits@D@std@@V?$allocator@D@2@@std@@QAE@PBD@Z ; std::basic_string<char,std::char_traits<char>,std::allocator<char> >::basic_string<char,std::char_traits<char>,std::allocator<char> >
	mov	eax, DWORD PTR $T1[ebp]
	or	eax, 1
	mov	DWORD PTR $T1[ebp], eax
	mov	eax, DWORD PTR ___$ReturnUdt$[ebp]

; 637  : 		}

	mov	esp, ebp
	pop	ebp
	ret	8
?message@_System_error_category@std@@UBE?AV?$basic_string@DU?$char_traits@D@std@@V?$allocator@D@2@@2@H@Z ENDP ; std::_System_error_category::message
_TEXT	ENDS
; Function compile flags: /Odtp
; File c:\program files (x86)\microsoft visual studio 11.0\vc\include\system_error
;	COMDAT ?name@_System_error_category@std@@UBEPBDXZ
_TEXT	SEGMENT
_this$ = -4						; size = 4
?name@_System_error_category@std@@UBEPBDXZ PROC		; std::_System_error_category::name, COMDAT
; _this$ = ecx

; 629  : 		{	// get name of category

	push	ebp
	mov	ebp, esp
	push	ecx
	mov	DWORD PTR _this$[ebp], ecx

; 630  : 		return ("system");

	mov	eax, OFFSET ??_C@_06FHFOAHML@system?$AA@

; 631  : 		}

	mov	esp, ebp
	pop	ebp
	ret	0
?name@_System_error_category@std@@UBEPBDXZ ENDP		; std::_System_error_category::name
_TEXT	ENDS
; Function compile flags: /Odtp
; File c:\program files (x86)\microsoft visual studio 11.0\vc\include\system_error
;	COMDAT ??0_System_error_category@std@@QAE@XZ
_TEXT	SEGMENT
_this$ = -4						; size = 4
??0_System_error_category@std@@QAE@XZ PROC		; std::_System_error_category::_System_error_category, COMDAT
; _this$ = ecx

; 624  : 	_System_error_category()

	push	ebp
	mov	ebp, esp
	push	ecx
	mov	DWORD PTR _this$[ebp], ecx
	mov	ecx, DWORD PTR _this$[ebp]
	call	??0_Generic_error_category@std@@QAE@XZ	; std::_Generic_error_category::_Generic_error_category
	mov	eax, DWORD PTR _this$[ebp]
	mov	DWORD PTR [eax], OFFSET ??_7_System_error_category@std@@6B@

; 625  : 		{	// default constructor
; 626  : 		}

	mov	eax, DWORD PTR _this$[ebp]
	mov	esp, ebp
	pop	ebp
	ret	0
??0_System_error_category@std@@QAE@XZ ENDP		; std::_System_error_category::_System_error_category
_TEXT	ENDS
; Function compile flags: /Odtp
;	COMDAT ??_G_Iostream_error_category@std@@UAEPAXI@Z
_TEXT	SEGMENT
_this$ = -4						; size = 4
___flags$ = 8						; size = 4
??_G_Iostream_error_category@std@@UAEPAXI@Z PROC	; std::_Iostream_error_category::`scalar deleting destructor', COMDAT
; _this$ = ecx
	push	ebp
	mov	ebp, esp
	push	ecx
	mov	DWORD PTR _this$[ebp], ecx
	mov	ecx, DWORD PTR _this$[ebp]
	call	??1_Iostream_error_category@std@@UAE@XZ
	mov	eax, DWORD PTR ___flags$[ebp]
	and	eax, 1
	je	SHORT $LN1@scalar
	mov	ecx, DWORD PTR _this$[ebp]
	push	ecx
	call	??3@YAXPAX@Z				; operator delete
	add	esp, 4
$LN1@scalar:
	mov	eax, DWORD PTR _this$[ebp]
	mov	esp, ebp
	pop	ebp
	ret	4
??_G_Iostream_error_category@std@@UAEPAXI@Z ENDP	; std::_Iostream_error_category::`scalar deleting destructor'
_TEXT	ENDS
; Function compile flags: /Odtp
;	COMDAT ??1_Iostream_error_category@std@@UAE@XZ
_TEXT	SEGMENT
_this$ = -4						; size = 4
??1_Iostream_error_category@std@@UAE@XZ PROC		; std::_Iostream_error_category::~_Iostream_error_category, COMDAT
; _this$ = ecx
	push	ebp
	mov	ebp, esp
	push	ecx
	mov	DWORD PTR _this$[ebp], ecx
	mov	ecx, DWORD PTR _this$[ebp]
	call	??1_Generic_error_category@std@@UAE@XZ
	mov	esp, ebp
	pop	ebp
	ret	0
??1_Iostream_error_category@std@@UAE@XZ ENDP		; std::_Iostream_error_category::~_Iostream_error_category
_TEXT	ENDS
; Function compile flags: /Odtp
; File c:\program files (x86)\microsoft visual studio 11.0\vc\include\system_error
;	COMDAT ?message@_Iostream_error_category@std@@UBE?AV?$basic_string@DU?$char_traits@D@std@@V?$allocator@D@2@@2@H@Z
_TEXT	SEGMENT
_this$ = -8						; size = 4
$T1 = -4						; size = 4
___$ReturnUdt$ = 8					; size = 4
__Errcode$ = 12						; size = 4
?message@_Iostream_error_category@std@@UBE?AV?$basic_string@DU?$char_traits@D@std@@V?$allocator@D@2@@2@H@Z PROC ; std::_Iostream_error_category::message, COMDAT
; _this$ = ecx

; 611  : 		{	// convert to name of error

	push	ebp
	mov	ebp, esp
	sub	esp, 8
	mov	DWORD PTR _this$[ebp], ecx
	mov	DWORD PTR $T1[ebp], 0

; 612  : 		if (_Errcode == (int)io_errc::stream)

	cmp	DWORD PTR __Errcode$[ebp], 1
	jne	SHORT $LN2@message

; 613  : 			return ("iostream stream error");

	push	OFFSET ??_C@_0BG@PADBLCHM@iostream?5stream?5error?$AA@
	mov	ecx, DWORD PTR ___$ReturnUdt$[ebp]
	call	??0?$basic_string@DU?$char_traits@D@std@@V?$allocator@D@2@@std@@QAE@PBD@Z ; std::basic_string<char,std::char_traits<char>,std::allocator<char> >::basic_string<char,std::char_traits<char>,std::allocator<char> >
	mov	eax, DWORD PTR $T1[ebp]
	or	eax, 1
	mov	DWORD PTR $T1[ebp], eax
	mov	eax, DWORD PTR ___$ReturnUdt$[ebp]
	jmp	SHORT $LN3@message

; 614  : 		else

	jmp	SHORT $LN3@message
$LN2@message:

; 615  : 			return (_Generic_error_category::message(_Errcode));

	mov	ecx, DWORD PTR __Errcode$[ebp]
	push	ecx
	mov	edx, DWORD PTR ___$ReturnUdt$[ebp]
	push	edx
	mov	ecx, DWORD PTR _this$[ebp]
	call	?message@_Generic_error_category@std@@UBE?AV?$basic_string@DU?$char_traits@D@std@@V?$allocator@D@2@@2@H@Z ; std::_Generic_error_category::message
	mov	eax, DWORD PTR $T1[ebp]
	or	eax, 1
	mov	DWORD PTR $T1[ebp], eax
	mov	eax, DWORD PTR ___$ReturnUdt$[ebp]
$LN3@message:

; 616  : 		}

	mov	esp, ebp
	pop	ebp
	ret	8
?message@_Iostream_error_category@std@@UBE?AV?$basic_string@DU?$char_traits@D@std@@V?$allocator@D@2@@2@H@Z ENDP ; std::_Iostream_error_category::message
_TEXT	ENDS
; Function compile flags: /Odtp
; File c:\program files (x86)\microsoft visual studio 11.0\vc\include\system_error
;	COMDAT ?name@_Iostream_error_category@std@@UBEPBDXZ
_TEXT	SEGMENT
_this$ = -4						; size = 4
?name@_Iostream_error_category@std@@UBEPBDXZ PROC	; std::_Iostream_error_category::name, COMDAT
; _this$ = ecx

; 606  : 		{	// get name of category

	push	ebp
	mov	ebp, esp
	push	ecx
	mov	DWORD PTR _this$[ebp], ecx

; 607  : 		return ("iostream");

	mov	eax, OFFSET ??_C@_08LLGCOLLL@iostream?$AA@

; 608  : 		}

	mov	esp, ebp
	pop	ebp
	ret	0
?name@_Iostream_error_category@std@@UBEPBDXZ ENDP	; std::_Iostream_error_category::name
_TEXT	ENDS
; Function compile flags: /Odtp
; File c:\program files (x86)\microsoft visual studio 11.0\vc\include\system_error
;	COMDAT ??0_Iostream_error_category@std@@QAE@XZ
_TEXT	SEGMENT
_this$ = -4						; size = 4
??0_Iostream_error_category@std@@QAE@XZ PROC		; std::_Iostream_error_category::_Iostream_error_category, COMDAT
; _this$ = ecx

; 601  : 	_Iostream_error_category()

	push	ebp
	mov	ebp, esp
	push	ecx
	mov	DWORD PTR _this$[ebp], ecx
	mov	ecx, DWORD PTR _this$[ebp]
	call	??0_Generic_error_category@std@@QAE@XZ	; std::_Generic_error_category::_Generic_error_category
	mov	eax, DWORD PTR _this$[ebp]
	mov	DWORD PTR [eax], OFFSET ??_7_Iostream_error_category@std@@6B@

; 602  : 		{	// default constructor
; 603  : 		}

	mov	eax, DWORD PTR _this$[ebp]
	mov	esp, ebp
	pop	ebp
	ret	0
??0_Iostream_error_category@std@@QAE@XZ ENDP		; std::_Iostream_error_category::_Iostream_error_category
_TEXT	ENDS
; Function compile flags: /Odtp
;	COMDAT ??_G_Generic_error_category@std@@UAEPAXI@Z
_TEXT	SEGMENT
_this$ = -4						; size = 4
___flags$ = 8						; size = 4
??_G_Generic_error_category@std@@UAEPAXI@Z PROC		; std::_Generic_error_category::`scalar deleting destructor', COMDAT
; _this$ = ecx
	push	ebp
	mov	ebp, esp
	push	ecx
	mov	DWORD PTR _this$[ebp], ecx
	mov	ecx, DWORD PTR _this$[ebp]
	call	??1_Generic_error_category@std@@UAE@XZ
	mov	eax, DWORD PTR ___flags$[ebp]
	and	eax, 1
	je	SHORT $LN1@scalar
	mov	ecx, DWORD PTR _this$[ebp]
	push	ecx
	call	??3@YAXPAX@Z				; operator delete
	add	esp, 4
$LN1@scalar:
	mov	eax, DWORD PTR _this$[ebp]
	mov	esp, ebp
	pop	ebp
	ret	4
??_G_Generic_error_category@std@@UAEPAXI@Z ENDP		; std::_Generic_error_category::`scalar deleting destructor'
_TEXT	ENDS
; Function compile flags: /Odtp
;	COMDAT ??1_Generic_error_category@std@@UAE@XZ
_TEXT	SEGMENT
_this$ = -4						; size = 4
??1_Generic_error_category@std@@UAE@XZ PROC		; std::_Generic_error_category::~_Generic_error_category, COMDAT
; _this$ = ecx
	push	ebp
	mov	ebp, esp
	push	ecx
	mov	DWORD PTR _this$[ebp], ecx
	mov	ecx, DWORD PTR _this$[ebp]
	call	??1error_category@std@@UAE@XZ		; std::error_category::~error_category
	mov	esp, ebp
	pop	ebp
	ret	0
??1_Generic_error_category@std@@UAE@XZ ENDP		; std::_Generic_error_category::~_Generic_error_category
_TEXT	ENDS
; Function compile flags: /Odtp
; File c:\program files (x86)\microsoft visual studio 11.0\vc\include\system_error
;	COMDAT ?message@_Generic_error_category@std@@UBE?AV?$basic_string@DU?$char_traits@D@std@@V?$allocator@D@2@@2@H@Z
_TEXT	SEGMENT
_this$ = -16						; size = 4
$T1 = -12						; size = 4
tv69 = -8						; size = 4
__Name$ = -4						; size = 4
___$ReturnUdt$ = 8					; size = 4
__Errcode$ = 12						; size = 4
?message@_Generic_error_category@std@@UBE?AV?$basic_string@DU?$char_traits@D@std@@V?$allocator@D@2@@2@H@Z PROC ; std::_Generic_error_category::message, COMDAT
; _this$ = ecx

; 590  : 		{	// convert to name of error

	push	ebp
	mov	ebp, esp
	sub	esp, 16					; 00000010H
	mov	DWORD PTR _this$[ebp], ecx
	mov	DWORD PTR $T1[ebp], 0

; 591  : 		const char *_Name = _Syserror_map(_Errcode);

	mov	eax, DWORD PTR __Errcode$[ebp]
	push	eax
	call	?_Syserror_map@std@@YAPBDH@Z		; std::_Syserror_map
	add	esp, 4
	mov	DWORD PTR __Name$[ebp], eax

; 592  : 		return (string(_Name != 0 ? _Name : "unknown error"));

	cmp	DWORD PTR __Name$[ebp], 0
	je	SHORT $LN3@message
	mov	ecx, DWORD PTR __Name$[ebp]
	mov	DWORD PTR tv69[ebp], ecx
	jmp	SHORT $LN4@message
$LN3@message:
	mov	DWORD PTR tv69[ebp], OFFSET ??_C@_0O@BFJCFAAK@unknown?5error?$AA@
$LN4@message:
	mov	edx, DWORD PTR tv69[ebp]
	push	edx
	mov	ecx, DWORD PTR ___$ReturnUdt$[ebp]
	call	??0?$basic_string@DU?$char_traits@D@std@@V?$allocator@D@2@@std@@QAE@PBD@Z ; std::basic_string<char,std::char_traits<char>,std::allocator<char> >::basic_string<char,std::char_traits<char>,std::allocator<char> >
	mov	eax, DWORD PTR $T1[ebp]
	or	eax, 1
	mov	DWORD PTR $T1[ebp], eax
	mov	eax, DWORD PTR ___$ReturnUdt$[ebp]

; 593  : 		}

	mov	esp, ebp
	pop	ebp
	ret	8
?message@_Generic_error_category@std@@UBE?AV?$basic_string@DU?$char_traits@D@std@@V?$allocator@D@2@@2@H@Z ENDP ; std::_Generic_error_category::message
_TEXT	ENDS
; Function compile flags: /Odtp
; File c:\program files (x86)\microsoft visual studio 11.0\vc\include\system_error
;	COMDAT ?name@_Generic_error_category@std@@UBEPBDXZ
_TEXT	SEGMENT
_this$ = -4						; size = 4
?name@_Generic_error_category@std@@UBEPBDXZ PROC	; std::_Generic_error_category::name, COMDAT
; _this$ = ecx

; 585  : 		{	// get name of category

	push	ebp
	mov	ebp, esp
	push	ecx
	mov	DWORD PTR _this$[ebp], ecx

; 586  : 		return ("generic");

	mov	eax, OFFSET ??_C@_07DCLBNMLN@generic?$AA@

; 587  : 		}

	mov	esp, ebp
	pop	ebp
	ret	0
?name@_Generic_error_category@std@@UBEPBDXZ ENDP	; std::_Generic_error_category::name
_TEXT	ENDS
; Function compile flags: /Odtp
; File c:\program files (x86)\microsoft visual studio 11.0\vc\include\system_error
;	COMDAT ??0_Generic_error_category@std@@QAE@XZ
_TEXT	SEGMENT
_this$ = -4						; size = 4
??0_Generic_error_category@std@@QAE@XZ PROC		; std::_Generic_error_category::_Generic_error_category, COMDAT
; _this$ = ecx

; 580  : 	_Generic_error_category()

	push	ebp
	mov	ebp, esp
	push	ecx
	mov	DWORD PTR _this$[ebp], ecx
	mov	ecx, DWORD PTR _this$[ebp]
	call	??0error_category@std@@QAE@XZ		; std::error_category::error_category
	mov	eax, DWORD PTR _this$[ebp]
	mov	DWORD PTR [eax], OFFSET ??_7_Generic_error_category@std@@6B@

; 581  : 		{	// default constructor
; 582  : 		}

	mov	eax, DWORD PTR _this$[ebp]
	mov	esp, ebp
	pop	ebp
	ret	0
??0_Generic_error_category@std@@QAE@XZ ENDP		; std::_Generic_error_category::_Generic_error_category
_TEXT	ENDS
; Function compile flags: /Odtp
; File c:\program files (x86)\microsoft visual studio 11.0\vc\include\system_error
;	COMDAT ??8error_condition@std@@QBE_NABV01@@Z
_TEXT	SEGMENT
tv78 = -8						; size = 4
_this$ = -4						; size = 4
__Right$ = 8						; size = 4
??8error_condition@std@@QBE_NABV01@@Z PROC		; std::error_condition::operator==, COMDAT
; _this$ = ecx

; 376  : 		{	// test if *this == _Right

	push	ebp
	mov	ebp, esp
	sub	esp, 8
	push	esi
	mov	DWORD PTR _this$[ebp], ecx

; 377  : 		return (category() == _Right.category()
; 378  : 			&& value() == _Right.value());

	mov	ecx, DWORD PTR __Right$[ebp]
	call	?category@error_condition@std@@QBEABVerror_category@2@XZ ; std::error_condition::category
	push	eax
	mov	ecx, DWORD PTR _this$[ebp]
	call	?category@error_condition@std@@QBEABVerror_category@2@XZ ; std::error_condition::category
	mov	ecx, eax
	call	??8error_category@std@@QBE_NABV01@@Z	; std::error_category::operator==
	movzx	eax, al
	test	eax, eax
	je	SHORT $LN3@operator
	mov	ecx, DWORD PTR _this$[ebp]
	call	?value@error_condition@std@@QBEHXZ	; std::error_condition::value
	mov	esi, eax
	mov	ecx, DWORD PTR __Right$[ebp]
	call	?value@error_condition@std@@QBEHXZ	; std::error_condition::value
	cmp	esi, eax
	jne	SHORT $LN3@operator
	mov	DWORD PTR tv78[ebp], 1
	jmp	SHORT $LN4@operator
$LN3@operator:
	mov	DWORD PTR tv78[ebp], 0
$LN4@operator:
	mov	al, BYTE PTR tv78[ebp]

; 379  : 		}

	pop	esi
	mov	esp, ebp
	pop	ebp
	ret	4
??8error_condition@std@@QBE_NABV01@@Z ENDP		; std::error_condition::operator==
_TEXT	ENDS
; Function compile flags: /Odtp
; File c:\program files (x86)\microsoft visual studio 11.0\vc\include\system_error
;	COMDAT ?category@error_condition@std@@QBEABVerror_category@2@XZ
_TEXT	SEGMENT
_this$ = -4						; size = 4
?category@error_condition@std@@QBEABVerror_category@2@XZ PROC ; std::error_condition::category, COMDAT
; _this$ = ecx

; 354  : 		{	// get category

	push	ebp
	mov	ebp, esp
	push	ecx
	mov	DWORD PTR _this$[ebp], ecx

; 355  : 		return (*_Mycat);

	mov	eax, DWORD PTR _this$[ebp]
	mov	eax, DWORD PTR [eax+4]

; 356  : 		}

	mov	esp, ebp
	pop	ebp
	ret	0
?category@error_condition@std@@QBEABVerror_category@2@XZ ENDP ; std::error_condition::category
_TEXT	ENDS
; Function compile flags: /Odtp
; File c:\program files (x86)\microsoft visual studio 11.0\vc\include\system_error
;	COMDAT ?value@error_condition@std@@QBEHXZ
_TEXT	SEGMENT
_this$ = -4						; size = 4
?value@error_condition@std@@QBEHXZ PROC			; std::error_condition::value, COMDAT
; _this$ = ecx

; 349  : 		{	// get error code

	push	ebp
	mov	ebp, esp
	push	ecx
	mov	DWORD PTR _this$[ebp], ecx

; 350  : 		return (_Myval);

	mov	eax, DWORD PTR _this$[ebp]
	mov	eax, DWORD PTR [eax]

; 351  : 		}

	mov	esp, ebp
	pop	ebp
	ret	0
?value@error_condition@std@@QBEHXZ ENDP			; std::error_condition::value
_TEXT	ENDS
; Function compile flags: /Odtp
; File c:\program files (x86)\microsoft visual studio 11.0\vc\include\system_error
;	COMDAT ??0error_condition@std@@QAE@HABVerror_category@1@@Z
_TEXT	SEGMENT
_this$ = -4						; size = 4
__Val$ = 8						; size = 4
__Cat$ = 12						; size = 4
??0error_condition@std@@QAE@HABVerror_category@1@@Z PROC ; std::error_condition::error_condition, COMDAT
; _this$ = ecx

; 316  : 		{	// construct from error code and category

	push	ebp
	mov	ebp, esp
	push	ecx
	mov	DWORD PTR _this$[ebp], ecx
	mov	eax, DWORD PTR _this$[ebp]
	mov	ecx, DWORD PTR __Val$[ebp]
	mov	DWORD PTR [eax], ecx
	mov	edx, DWORD PTR _this$[ebp]
	mov	eax, DWORD PTR __Cat$[ebp]
	mov	DWORD PTR [edx+4], eax

; 317  : 		}

	mov	eax, DWORD PTR _this$[ebp]
	mov	esp, ebp
	pop	ebp
	ret	8
??0error_condition@std@@QAE@HABVerror_category@1@@Z ENDP ; std::error_condition::error_condition
_TEXT	ENDS
; Function compile flags: /Odtp
; File c:\program files (x86)\microsoft visual studio 11.0\vc\include\system_error
;	COMDAT ?category@error_code@std@@QBEABVerror_category@2@XZ
_TEXT	SEGMENT
_this$ = -4						; size = 4
?category@error_code@std@@QBEABVerror_category@2@XZ PROC ; std::error_code::category, COMDAT
; _this$ = ecx

; 256  : 		{	// get category

	push	ebp
	mov	ebp, esp
	push	ecx
	mov	DWORD PTR _this$[ebp], ecx

; 257  : 		return (*_Mycat);

	mov	eax, DWORD PTR _this$[ebp]
	mov	eax, DWORD PTR [eax+4]

; 258  : 		}

	mov	esp, ebp
	pop	ebp
	ret	0
?category@error_code@std@@QBEABVerror_category@2@XZ ENDP ; std::error_code::category
_TEXT	ENDS
; Function compile flags: /Odtp
; File c:\program files (x86)\microsoft visual studio 11.0\vc\include\system_error
;	COMDAT ?value@error_code@std@@QBEHXZ
_TEXT	SEGMENT
_this$ = -4						; size = 4
?value@error_code@std@@QBEHXZ PROC			; std::error_code::value, COMDAT
; _this$ = ecx

; 251  : 		{	// get error code

	push	ebp
	mov	ebp, esp
	push	ecx
	mov	DWORD PTR _this$[ebp], ecx

; 252  : 		return (_Myval);

	mov	eax, DWORD PTR _this$[ebp]
	mov	eax, DWORD PTR [eax]

; 253  : 		}

	mov	esp, ebp
	pop	ebp
	ret	0
?value@error_code@std@@QBEHXZ ENDP			; std::error_code::value
_TEXT	ENDS
; Function compile flags: /Odtp
;	COMDAT ??_Gerror_category@std@@UAEPAXI@Z
_TEXT	SEGMENT
_this$ = -4						; size = 4
___flags$ = 8						; size = 4
??_Gerror_category@std@@UAEPAXI@Z PROC			; std::error_category::`scalar deleting destructor', COMDAT
; _this$ = ecx
	push	ebp
	mov	ebp, esp
	push	ecx
	mov	DWORD PTR _this$[ebp], ecx
	mov	ecx, DWORD PTR _this$[ebp]
	call	??1error_category@std@@UAE@XZ		; std::error_category::~error_category
	mov	eax, DWORD PTR ___flags$[ebp]
	and	eax, 1
	je	SHORT $LN1@scalar
	mov	ecx, DWORD PTR _this$[ebp]
	push	ecx
	call	??3@YAXPAX@Z				; operator delete
	add	esp, 4
$LN1@scalar:
	mov	eax, DWORD PTR _this$[ebp]
	mov	esp, ebp
	pop	ebp
	ret	4
??_Gerror_category@std@@UAEPAXI@Z ENDP			; std::error_category::`scalar deleting destructor'
_TEXT	ENDS
; Function compile flags: /Odtp
; File c:\program files (x86)\microsoft visual studio 11.0\vc\include\system_error
;	COMDAT ??8error_category@std@@QBE_NABV01@@Z
_TEXT	SEGMENT
_this$ = -8						; size = 4
tv65 = -4						; size = 4
__Right$ = 8						; size = 4
??8error_category@std@@QBE_NABV01@@Z PROC		; std::error_category::operator==, COMDAT
; _this$ = ecx

; 184  : 		{	// compare categories for equality

	push	ebp
	mov	ebp, esp
	sub	esp, 8
	mov	DWORD PTR _this$[ebp], ecx

; 185  : 		return (this == &_Right);

	mov	eax, DWORD PTR _this$[ebp]
	cmp	eax, DWORD PTR __Right$[ebp]
	jne	SHORT $LN3@operator
	mov	DWORD PTR tv65[ebp], 1
	jmp	SHORT $LN4@operator
$LN3@operator:
	mov	DWORD PTR tv65[ebp], 0
$LN4@operator:
	mov	al, BYTE PTR tv65[ebp]

; 186  : 		}

	mov	esp, ebp
	pop	ebp
	ret	4
??8error_category@std@@QBE_NABV01@@Z ENDP		; std::error_category::operator==
_TEXT	ENDS
; Function compile flags: /Odtp
; File c:\program files (x86)\microsoft visual studio 11.0\vc\include\system_error
;	COMDAT ?equivalent@error_category@std@@UBE_NABVerror_code@2@H@Z
_TEXT	SEGMENT
_this$ = -8						; size = 4
tv74 = -4						; size = 4
__Code$ = 8						; size = 4
__Errval$ = 12						; size = 4
?equivalent@error_category@std@@UBE_NABVerror_code@2@H@Z PROC ; std::error_category::equivalent, COMDAT
; _this$ = ecx

; 415  : 	{	// test if conditions same for this category

	push	ebp
	mov	ebp, esp
	sub	esp, 8
	mov	DWORD PTR _this$[ebp], ecx

; 416  : 	return (*this == _Code.category() && _Code.value() == _Errval);

	mov	ecx, DWORD PTR __Code$[ebp]
	call	?category@error_code@std@@QBEABVerror_category@2@XZ ; std::error_code::category
	push	eax
	mov	ecx, DWORD PTR _this$[ebp]
	call	??8error_category@std@@QBE_NABV01@@Z	; std::error_category::operator==
	movzx	eax, al
	test	eax, eax
	je	SHORT $LN3@equivalent
	mov	ecx, DWORD PTR __Code$[ebp]
	call	?value@error_code@std@@QBEHXZ		; std::error_code::value
	cmp	eax, DWORD PTR __Errval$[ebp]
	jne	SHORT $LN3@equivalent
	mov	DWORD PTR tv74[ebp], 1
	jmp	SHORT $LN4@equivalent
$LN3@equivalent:
	mov	DWORD PTR tv74[ebp], 0
$LN4@equivalent:
	mov	al, BYTE PTR tv74[ebp]

; 417  : 	}

	mov	esp, ebp
	pop	ebp
	ret	8
?equivalent@error_category@std@@UBE_NABVerror_code@2@H@Z ENDP ; std::error_category::equivalent
_TEXT	ENDS
; Function compile flags: /Odtp
; File c:\program files (x86)\microsoft visual studio 11.0\vc\include\system_error
;	COMDAT ?equivalent@error_category@std@@UBE_NHABVerror_condition@2@@Z
_TEXT	SEGMENT
$T1 = -12						; size = 8
_this$ = -4						; size = 4
__Errval$ = 8						; size = 4
__Cond$ = 12						; size = 4
?equivalent@error_category@std@@UBE_NHABVerror_condition@2@@Z PROC ; std::error_category::equivalent, COMDAT
; _this$ = ecx

; 408  : 	{	// test if error code same condition

	push	ebp
	mov	ebp, esp
	sub	esp, 12					; 0000000cH
	mov	DWORD PTR _this$[ebp], ecx

; 409  : 	return (default_error_condition(_Errval) == _Cond);

	mov	eax, DWORD PTR __Cond$[ebp]
	push	eax
	mov	ecx, DWORD PTR __Errval$[ebp]
	push	ecx
	lea	edx, DWORD PTR $T1[ebp]
	push	edx
	mov	eax, DWORD PTR _this$[ebp]
	mov	edx, DWORD PTR [eax]
	mov	ecx, DWORD PTR _this$[ebp]
	mov	eax, DWORD PTR [edx+12]
	call	eax
	mov	ecx, eax
	call	??8error_condition@std@@QBE_NABV01@@Z	; std::error_condition::operator==

; 410  : 	}

	mov	esp, ebp
	pop	ebp
	ret	8
?equivalent@error_category@std@@UBE_NHABVerror_condition@2@@Z ENDP ; std::error_category::equivalent
_TEXT	ENDS
; Function compile flags: /Odtp
; File c:\program files (x86)\microsoft visual studio 11.0\vc\include\system_error
;	COMDAT ?default_error_condition@error_category@std@@UBE?AVerror_condition@2@H@Z
_TEXT	SEGMENT
_this$ = -4						; size = 4
___$ReturnUdt$ = 8					; size = 4
__Errval$ = 12						; size = 4
?default_error_condition@error_category@std@@UBE?AVerror_condition@2@H@Z PROC ; std::error_category::default_error_condition, COMDAT
; _this$ = ecx

; 401  : 	{	// make error_condition for error code

	push	ebp
	mov	ebp, esp
	push	ecx
	mov	DWORD PTR _this$[ebp], ecx

; 402  : 	return (error_condition(_Errval, *this));

	mov	eax, DWORD PTR _this$[ebp]
	push	eax
	mov	ecx, DWORD PTR __Errval$[ebp]
	push	ecx
	mov	ecx, DWORD PTR ___$ReturnUdt$[ebp]
	call	??0error_condition@std@@QAE@HABVerror_category@1@@Z ; std::error_condition::error_condition
	mov	eax, DWORD PTR ___$ReturnUdt$[ebp]

; 403  : 	}

	mov	esp, ebp
	pop	ebp
	ret	8
?default_error_condition@error_category@std@@UBE?AVerror_condition@2@H@Z ENDP ; std::error_category::default_error_condition
_TEXT	ENDS
; Function compile flags: /Odtp
; File c:\program files (x86)\microsoft visual studio 11.0\vc\include\system_error
;	COMDAT ??1error_category@std@@UAE@XZ
_TEXT	SEGMENT
_this$ = -4						; size = 4
??1error_category@std@@UAE@XZ PROC			; std::error_category::~error_category, COMDAT
; _this$ = ecx

; 167  : 		{	// destroy the object

	push	ebp
	mov	ebp, esp
	push	ecx
	mov	DWORD PTR _this$[ebp], ecx
	mov	eax, DWORD PTR _this$[ebp]
	mov	DWORD PTR [eax], OFFSET ??_7error_category@std@@6B@

; 168  : 		}

	mov	esp, ebp
	pop	ebp
	ret	0
??1error_category@std@@UAE@XZ ENDP			; std::error_category::~error_category
_TEXT	ENDS
; Function compile flags: /Odtp
; File c:\program files (x86)\microsoft visual studio 11.0\vc\include\system_error
;	COMDAT ??0error_category@std@@QAE@XZ
_TEXT	SEGMENT
_this$ = -4						; size = 4
??0error_category@std@@QAE@XZ PROC			; std::error_category::error_category, COMDAT
; _this$ = ecx

; 162  : 	error_category()

	push	ebp
	mov	ebp, esp
	push	ecx
	mov	DWORD PTR _this$[ebp], ecx
	mov	eax, DWORD PTR _this$[ebp]
	mov	DWORD PTR [eax], OFFSET ??_7error_category@std@@6B@

; 163  : 		{	// default constructor
; 164  : 		}

	mov	eax, DWORD PTR _this$[ebp]
	mov	esp, ebp
	pop	ebp
	ret	0
??0error_category@std@@QAE@XZ ENDP			; std::error_category::error_category
_TEXT	ENDS
; Function compile flags: /Odtp
; File c:\program files (x86)\microsoft visual studio 11.0\vc\include\system_error
;	COMDAT ?system_category@std@@YAABVerror_category@1@XZ
_TEXT	SEGMENT
?system_category@std@@YAABVerror_category@1@XZ PROC	; std::system_category, COMDAT

; 679  : 	{	// get system_category

	push	ebp
	mov	ebp, esp

; 680  : 	return (_Error_objects<int>::_System_object);

	mov	eax, OFFSET ?_System_object@?$_Error_objects@H@std@@2V_System_error_category@2@A ; std::_Error_objects<int>::_System_object

; 681  : 	}

	pop	ebp
	ret	0
?system_category@std@@YAABVerror_category@1@XZ ENDP	; std::system_category
_TEXT	ENDS
; Function compile flags: /Odtp
; File c:\program files (x86)\microsoft visual studio 11.0\vc\include\system_error
;	COMDAT ?generic_category@std@@YAABVerror_category@1@XZ
_TEXT	SEGMENT
?generic_category@std@@YAABVerror_category@1@XZ PROC	; std::generic_category, COMDAT

; 669  : 	{	// get generic_category

	push	ebp
	mov	ebp, esp

; 670  : 	return (_Error_objects<int>::_Generic_object);

	mov	eax, OFFSET ?_Generic_object@?$_Error_objects@H@std@@2V_Generic_error_category@2@A ; std::_Error_objects<int>::_Generic_object

; 671  : 	}

	pop	ebp
	ret	0
?generic_category@std@@YAABVerror_category@1@XZ ENDP	; std::generic_category
_TEXT	ENDS
; Function compile flags: /Odtp
; File c:\program files (x86)\microsoft visual studio 11.0\vc\include\xlocale
;	COMDAT ??0id@locale@std@@QAE@I@Z
_TEXT	SEGMENT
_this$ = -4						; size = 4
__Val$ = 8						; size = 4
??0id@locale@std@@QAE@I@Z PROC				; std::locale::id::id, COMDAT
; _this$ = ecx

; 74   : 			{	// construct with specified stamp value

	push	ebp
	mov	ebp, esp
	push	ecx
	mov	DWORD PTR _this$[ebp], ecx
	mov	eax, DWORD PTR _this$[ebp]
	mov	ecx, DWORD PTR __Val$[ebp]
	mov	DWORD PTR [eax], ecx

; 75   : 			}

	mov	eax, DWORD PTR _this$[ebp]
	mov	esp, ebp
	pop	ebp
	ret	4
??0id@locale@std@@QAE@I@Z ENDP				; std::locale::id::id
_TEXT	ENDS
; Function compile flags: /Odtp
; File c:\users\zhitao li\documents\visual studio 2012\projects\freefalcon\falclib\include\playerop.h
;	COMDAT ?InvulnerableOn@PlayerOptionsClass@@QAEHXZ
_TEXT	SEGMENT
_this$ = -8						; size = 4
tv68 = -4						; size = 4
?InvulnerableOn@PlayerOptionsClass@@QAEHXZ PROC		; PlayerOptionsClass::InvulnerableOn, COMDAT
; _this$ = ecx

; 158  : 	int	InvulnerableOn(void)								{ return (SimFlags & SIM_INVULNERABLE) && TRUE; }

	push	ebp
	mov	ebp, esp
	sub	esp, 8
	mov	DWORD PTR _this$[ebp], ecx
	mov	eax, DWORD PTR _this$[ebp]
	mov	ecx, DWORD PTR [eax+52]
	and	ecx, 512				; 00000200H
	je	SHORT $LN3@Invulnerab
	mov	edx, 1
	test	edx, edx
	je	SHORT $LN3@Invulnerab
	mov	DWORD PTR tv68[ebp], 1
	jmp	SHORT $LN4@Invulnerab
$LN3@Invulnerab:
	mov	DWORD PTR tv68[ebp], 0
$LN4@Invulnerab:
	mov	eax, DWORD PTR tv68[ebp]
	mov	esp, ebp
	pop	ebp
	ret	0
?InvulnerableOn@PlayerOptionsClass@@QAEHXZ ENDP		; PlayerOptionsClass::InvulnerableOn
_TEXT	ENDS
; Function compile flags: /Odtp
; File c:\users\zhitao li\documents\visual studio 2012\projects\freefalcon\ui\include\logbook.h
;	COMDAT ?Voice@LogBookData@@QAEEXZ
_TEXT	SEGMENT
_this$ = -4						; size = 4
?Voice@LogBookData@@QAEEXZ PROC				; LogBookData::Voice, COMDAT
; _this$ = ecx

; 198  : 	uchar Voice(void)								{return (uchar)Pilot.voice;}

	push	ebp
	mov	ebp, esp
	push	ecx
	mov	DWORD PTR _this$[ebp], ecx
	mov	eax, DWORD PTR _this$[ebp]
	mov	al, BYTE PTR [eax+366]
	mov	esp, ebp
	pop	ebp
	ret	0
?Voice@LogBookData@@QAEEXZ ENDP				; LogBookData::Voice
_TEXT	ENDS
; Function compile flags: /Odtp
; File c:\users\zhitao li\documents\visual studio 2012\projects\freefalcon\ui\src\logbook\logbook.cpp
_TEXT	SEGMENT
_this$ = -4						; size = 4
?TotalKilled@LogBookData@@QAEFXZ PROC			; LogBookData::TotalKilled
; _this$ = ecx

; 329  : {

	push	ebp
	mov	ebp, esp
	push	ecx
	mov	DWORD PTR _this$[ebp], ecx

; 330  : 	return static_cast<short>(Pilot.Campaign.Killed + Pilot.Dogfight.Killed);

	mov	eax, DWORD PTR _this$[ebp]
	movsx	eax, WORD PTR [eax+120]
	mov	ecx, DWORD PTR _this$[ebp]
	movsx	edx, WORD PTR [ecx+94]
	add	eax, edx

; 331  : }

	mov	esp, ebp
	pop	ebp
	ret	0
?TotalKilled@LogBookData@@QAEFXZ ENDP			; LogBookData::TotalKilled
_TEXT	ENDS
; Function compile flags: /Odtp
; File c:\users\zhitao li\documents\visual studio 2012\projects\freefalcon\ui\src\logbook\logbook.cpp
_TEXT	SEGMENT
_this$ = -4						; size = 4
?TotalKills@LogBookData@@QAEFXZ PROC			; LogBookData::TotalKills
; _this$ = ecx

; 324  : {

	push	ebp
	mov	ebp, esp
	push	ecx
	mov	DWORD PTR _this$[ebp], ecx

; 325  : 	return static_cast<short>(Pilot.Campaign.Kills + Pilot.Dogfight.Kills);

	mov	eax, DWORD PTR _this$[ebp]
	movsx	eax, WORD PTR [eax+118]
	mov	ecx, DWORD PTR _this$[ebp]
	movsx	edx, WORD PTR [ecx+92]
	add	eax, edx

; 326  : }

	mov	esp, ebp
	pop	ebp
	ret	0
?TotalKills@LogBookData@@QAEFXZ ENDP			; LogBookData::TotalKills
_TEXT	ENDS
; Function compile flags: /Odtp
; File c:\users\zhitao li\documents\visual studio 2012\projects\freefalcon\ui\include\logbook.h
;	COMDAT ?Rank@LogBookData@@QAE?AW4LB_RANK@@XZ
_TEXT	SEGMENT
_this$ = -4						; size = 4
?Rank@LogBookData@@QAE?AW4LB_RANK@@XZ PROC		; LogBookData::Rank, COMDAT
; _this$ = ecx

; 190  : 	LB_RANK Rank(void)								{return Pilot.Rank;}

	push	ebp
	mov	ebp, esp
	push	ecx
	mov	DWORD PTR _this$[ebp], ecx
	mov	eax, DWORD PTR _this$[ebp]
	mov	eax, DWORD PTR [eax+80]
	mov	esp, ebp
	pop	ebp
	ret	0
?Rank@LogBookData@@QAE?AW4LB_RANK@@XZ ENDP		; LogBookData::Rank
_TEXT	ENDS
; Function compile flags: /Odtp
; File c:\users\zhitao li\documents\visual studio 2012\projects\freefalcon\ui\include\logbook.h
;	COMDAT ?AceFactor@LogBookData@@QAEMXZ
_TEXT	SEGMENT
_this$ = -4						; size = 4
?AceFactor@LogBookData@@QAEMXZ PROC			; LogBookData::AceFactor, COMDAT
; _this$ = ecx

; 187  : 	float	AceFactor(void)							{return Pilot.AceFactor;}

	push	ebp
	mov	ebp, esp
	push	ecx
	mov	DWORD PTR _this$[ebp], ecx
	mov	eax, DWORD PTR _this$[ebp]
	fld	DWORD PTR [eax+76]
	mov	esp, ebp
	pop	ebp
	ret	0
?AceFactor@LogBookData@@QAEMXZ ENDP			; LogBookData::AceFactor
_TEXT	ENDS
; Function compile flags: /Odtp
; File c:\users\zhitao li\documents\visual studio 2012\projects\freefalcon\ui\include\logbook.h
;	COMDAT ?OptionsFile@LogBookData@@QAEPADXZ
_TEXT	SEGMENT
_this$ = -4						; size = 4
?OptionsFile@LogBookData@@QAEPADXZ PROC			; LogBookData::OptionsFile, COMDAT
; _this$ = ecx

; 184  : 	_TCHAR *OptionsFile(void)						{return Pilot.OptionsFile;}

	push	ebp
	mov	ebp, esp
	push	ecx
	mov	DWORD PTR _this$[ebp], ecx
	mov	eax, DWORD PTR _this$[ebp]
	add	eax, 58					; 0000003aH
	mov	esp, ebp
	pop	ebp
	ret	0
?OptionsFile@LogBookData@@QAEPADXZ ENDP			; LogBookData::OptionsFile
_TEXT	ENDS
; Function compile flags: /Odtp
; File c:\users\zhitao li\documents\visual studio 2012\projects\freefalcon\ui\src\logbook\logbook.cpp
_TEXT	SEGMENT
_this$ = -4						; size = 4
_Pwd$ = 8						; size = 4
?GetPassword@LogBookData@@QAEHPAD@Z PROC		; LogBookData::GetPassword
; _this$ = ecx

; 402  : {

	push	ebp
	mov	ebp, esp
	push	ecx
	mov	DWORD PTR _this$[ebp], ecx

; 403  : 	if(Pilot.Password[0] == 0)

	mov	eax, 1
	imul	eax, 0
	mov	ecx, DWORD PTR _this$[ebp]
	movsx	edx, BYTE PTR [ecx+eax+34]
	test	edx, edx
	jne	SHORT $LN1@GetPasswor

; 404  : 		return FALSE;

	xor	eax, eax
	jmp	SHORT $LN2@GetPasswor
$LN1@GetPasswor:

; 405  : 
; 406  : 	EncryptPwd();

	mov	ecx, DWORD PTR _this$[ebp]
	call	?EncryptPwd@LogBookData@@AAEXXZ		; LogBookData::EncryptPwd

; 407  : 	_tcscpy( Pwd, Pilot.Password );

	mov	eax, DWORD PTR _this$[ebp]
	add	eax, 34					; 00000022H
	push	eax
	mov	ecx, DWORD PTR _Pwd$[ebp]
	push	ecx
	call	_strcpy
	add	esp, 8

; 408  : 	EncryptPwd();

	mov	ecx, DWORD PTR _this$[ebp]
	call	?EncryptPwd@LogBookData@@AAEXXZ		; LogBookData::EncryptPwd

; 409  : 	return TRUE;

	mov	eax, 1
$LN2@GetPasswor:

; 410  : }

	mov	esp, ebp
	pop	ebp
	ret	4
?GetPassword@LogBookData@@QAEHPAD@Z ENDP		; LogBookData::GetPassword
_TEXT	ENDS
; Function compile flags: /Odtp
; File c:\users\zhitao li\documents\visual studio 2012\projects\freefalcon\ui\src\logbook\logbook.cpp
_TEXT	SEGMENT
_this$ = -4						; size = 4
_Password$ = 8						; size = 4
?SetPassword@LogBookData@@QAEHPAD@Z PROC		; LogBookData::SetPassword
; _this$ = ecx

; 390  : {

	push	ebp
	mov	ebp, esp
	push	ecx
	mov	DWORD PTR _this$[ebp], ecx

; 391  : 	if(_tcslen(Password) <= PASSWORD_LEN) 

	mov	eax, DWORD PTR _Password$[ebp]
	push	eax
	call	_strlen
	add	esp, 4
	cmp	eax, 10					; 0000000aH
	ja	SHORT $LN1@SetPasswor

; 392  : 	{
; 393  : 		_tcscpy(Pilot.Password,Password);

	mov	ecx, DWORD PTR _Password$[ebp]
	push	ecx
	mov	edx, DWORD PTR _this$[ebp]
	add	edx, 34					; 00000022H
	push	edx
	call	_strcpy
	add	esp, 8

; 394  : 		EncryptPwd();

	mov	ecx, DWORD PTR _this$[ebp]
	call	?EncryptPwd@LogBookData@@AAEXXZ		; LogBookData::EncryptPwd

; 395  : 		return TRUE;

	mov	eax, 1
	jmp	SHORT $LN2@SetPasswor
$LN1@SetPasswor:

; 396  : 	}
; 397  : 
; 398  : 	return FALSE;

	xor	eax, eax
$LN2@SetPasswor:

; 399  : }

	mov	esp, ebp
	pop	ebp
	ret	4
?SetPassword@LogBookData@@QAEHPAD@Z ENDP		; LogBookData::SetPassword
_TEXT	ENDS
; Function compile flags: /Odtp
; File c:\users\zhitao li\documents\visual studio 2012\projects\freefalcon\ui\src\logbook\logbook.cpp
_TEXT	SEGMENT
_this$ = -4						; size = 4
_Pwd$ = 8						; size = 4
?CheckPassword@LogBookData@@QAEHPAD@Z PROC		; LogBookData::CheckPassword
; _this$ = ecx

; 372  : {

	push	ebp
	mov	ebp, esp
	push	ecx
	mov	DWORD PTR _this$[ebp], ecx

; 373  : 	//if(Pilot.Password[0] == 0)
; 374  : 		//return TRUE;
; 375  : 
; 376  : 	EncryptPwd();

	mov	ecx, DWORD PTR _this$[ebp]
	call	?EncryptPwd@LogBookData@@AAEXXZ		; LogBookData::EncryptPwd

; 377  : 	if( _tcscmp( Pwd, Pilot.Password) )

	mov	eax, DWORD PTR _this$[ebp]
	add	eax, 34					; 00000022H
	push	eax
	mov	ecx, DWORD PTR _Pwd$[ebp]
	push	ecx
	call	__tcscmp
	add	esp, 8
	test	eax, eax
	je	SHORT $LN2@CheckPassw

; 378  : 	{
; 379  : 		EncryptPwd();

	mov	ecx, DWORD PTR _this$[ebp]
	call	?EncryptPwd@LogBookData@@AAEXXZ		; LogBookData::EncryptPwd

; 380  : 		return FALSE;

	xor	eax, eax
	jmp	SHORT $LN3@CheckPassw

; 381  : 	}
; 382  : 	else

	jmp	SHORT $LN3@CheckPassw
$LN2@CheckPassw:

; 383  : 	{
; 384  : 		EncryptPwd();

	mov	ecx, DWORD PTR _this$[ebp]
	call	?EncryptPwd@LogBookData@@AAEXXZ		; LogBookData::EncryptPwd

; 385  : 		return TRUE;

	mov	eax, 1
$LN3@CheckPassw:

; 386  : 	}
; 387  : }

	mov	esp, ebp
	pop	ebp
	ret	4
?CheckPassword@LogBookData@@QAEHPAD@Z ENDP		; LogBookData::CheckPassword
_TEXT	ENDS
; Function compile flags: /Odtp
; File c:\users\zhitao li\documents\visual studio 2012\projects\freefalcon\ui\include\logbook.h
;	COMDAT ?Callsign@LogBookData@@QAEPADXZ
_TEXT	SEGMENT
_this$ = -4						; size = 4
?Callsign@LogBookData@@QAEPADXZ PROC			; LogBookData::Callsign, COMDAT
; _this$ = ecx

; 171  : 	_TCHAR *Callsign(void)							{return Pilot.Callsign;}

	push	ebp
	mov	ebp, esp
	push	ecx
	mov	DWORD PTR _this$[ebp], ecx
	mov	eax, DWORD PTR _this$[ebp]
	add	eax, 21					; 00000015H
	mov	esp, ebp
	pop	ebp
	ret	0
?Callsign@LogBookData@@QAEPADXZ ENDP			; LogBookData::Callsign
_TEXT	ENDS
; Function compile flags: /Odtp
; File c:\users\zhitao li\documents\visual studio 2012\projects\freefalcon\ui\src\logbook\logbook.cpp
_TEXT	SEGMENT
_rank$1 = -8						; size = 4
_this$ = -4						; size = 4
?NameWRank@LogBookData@@QAEPADXZ PROC			; LogBookData::NameWRank
; _this$ = ecx

; 415  : {

	push	ebp
	mov	ebp, esp
	sub	esp, 8
	mov	DWORD PTR _this$[ebp], ecx

; 416  : 	if(gStringMgr)

	cmp	DWORD PTR ?gStringMgr@@3PAVC_String@@A, 0 ; gStringMgr
	je	SHORT $LN1@NameWRank

; 417  : 	{
; 418  : 		_TCHAR *rank = gStringMgr->GetString(gRanksTxt[Rank()]);

	mov	ecx, DWORD PTR _this$[ebp]
	call	?Rank@LogBookData@@QAE?AW4LB_RANK@@XZ	; LogBookData::Rank
	mov	eax, DWORD PTR ?gRanksTxt@@3PAJA[eax*4]
	push	eax
	mov	ecx, DWORD PTR ?gStringMgr@@3PAVC_String@@A ; gStringMgr
	call	?GetString@C_String@@QAEPADJ@Z		; C_String::GetString
	mov	DWORD PTR _rank$1[ebp], eax

; 419  : 		_stprintf(nameWrank,"%s %s",rank,Pilot.Name);

	mov	ecx, DWORD PTR _this$[ebp]
	push	ecx
	mov	edx, DWORD PTR _rank$1[ebp]
	push	edx
	push	OFFSET ??_C@_05DNIIFBMG@?$CFs?5?$CFs?$AA@
	push	OFFSET ?nameWrank@@3PADA		; nameWrank
	call	_sprintf
	add	esp, 16					; 00000010H

; 420  : 		return nameWrank;

	mov	eax, OFFSET ?nameWrank@@3PADA		; nameWrank
	jmp	SHORT $LN2@NameWRank
$LN1@NameWRank:

; 421  : 	}
; 422  : 	return Name();

	mov	ecx, DWORD PTR _this$[ebp]
	call	?Name@LogBookData@@QAEPADXZ		; LogBookData::Name
$LN2@NameWRank:

; 423  : }

	mov	esp, ebp
	pop	ebp
	ret	0
?NameWRank@LogBookData@@QAEPADXZ ENDP			; LogBookData::NameWRank
_TEXT	ENDS
; Function compile flags: /Odtp
; File c:\users\zhitao li\documents\visual studio 2012\projects\freefalcon\ui\include\logbook.h
;	COMDAT ?Name@LogBookData@@QAEPADXZ
_TEXT	SEGMENT
_this$ = -4						; size = 4
?Name@LogBookData@@QAEPADXZ PROC			; LogBookData::Name, COMDAT
; _this$ = ecx

; 167  : 	_TCHAR *Name(void)								{return Pilot.Name;}

	push	ebp
	mov	ebp, esp
	push	ecx
	mov	DWORD PTR _this$[ebp], ecx
	mov	eax, DWORD PTR _this$[ebp]
	mov	esp, ebp
	pop	ebp
	ret	0
?Name@LogBookData@@QAEPADXZ ENDP			; LogBookData::Name
_TEXT	ENDS
; Function compile flags: /Odtp
; File c:\users\zhitao li\documents\visual studio 2012\projects\freefalcon\ui\include\logbook.h
;	COMDAT ?UpdateFlightHours@LogBookData@@QAEXM@Z
_TEXT	SEGMENT
_this$ = -4						; size = 4
_Hours$ = 8						; size = 4
?UpdateFlightHours@LogBookData@@QAEXM@Z PROC		; LogBookData::UpdateFlightHours, COMDAT
; _this$ = ecx

; 155  : 	void	UpdateFlightHours(float Hours)			{Pilot.FlightHours += Hours;}

	push	ebp
	mov	ebp, esp
	push	ecx
	mov	DWORD PTR _this$[ebp], ecx
	mov	eax, DWORD PTR _this$[ebp]
	movss	xmm0, DWORD PTR [eax+72]
	addss	xmm0, DWORD PTR _Hours$[ebp]
	mov	ecx, DWORD PTR _this$[ebp]
	movss	DWORD PTR [ecx+72], xmm0
	mov	esp, ebp
	pop	ebp
	ret	4
?UpdateFlightHours@LogBookData@@QAEXM@Z ENDP		; LogBookData::UpdateFlightHours
_TEXT	ENDS
; Function compile flags: /Odtp
; File c:\users\zhitao li\documents\visual studio 2012\projects\freefalcon\ui\src\logbook\logbook.cpp
_TEXT	SEGMENT
_this$ = -4						; size = 4
_WonLostTied$ = 8					; size = 2
?FinishCampaign@LogBookData@@QAEXF@Z PROC		; LogBookData::FinishCampaign
; _this$ = ecx

; 721  : {

	push	ebp
	mov	ebp, esp
	push	ecx
	mov	DWORD PTR _this$[ebp], ecx

; 722  : 	Pilot.Campaign.TotalScore += 10;

	mov	eax, DWORD PTR _this$[ebp]
	mov	ecx, DWORD PTR [eax+108]
	add	ecx, 10					; 0000000aH
	mov	edx, DWORD PTR _this$[ebp]
	mov	DWORD PTR [edx+108], ecx

; 723  : 
; 724  : 	if(WonLostTied > 0)

	movsx	eax, WORD PTR _WonLostTied$[ebp]
	test	eax, eax
	jle	SHORT $LN4@FinishCamp

; 725  : 	{
; 726  : 		Pilot.Campaign.GamesWon++;

	mov	ecx, DWORD PTR _this$[ebp]
	mov	dx, WORD PTR [ecx+100]
	add	dx, 1
	mov	eax, DWORD PTR _this$[ebp]
	mov	WORD PTR [eax+100], dx

; 727  : 		Pilot.Campaign.TotalScore += 10;

	mov	ecx, DWORD PTR _this$[ebp]
	mov	edx, DWORD PTR [ecx+108]
	add	edx, 10					; 0000000aH
	mov	eax, DWORD PTR _this$[ebp]
	mov	DWORD PTR [eax+108], edx

; 728  : 		Pilot.Medals[KOREA_CAMPAIGN]++;

	mov	ecx, 1
	shl	ecx, 2
	mov	edx, DWORD PTR _this$[ebp]
	mov	al, BYTE PTR [edx+ecx+140]
	add	al, 1
	mov	ecx, 1
	shl	ecx, 2
	mov	edx, DWORD PTR _this$[ebp]
	mov	BYTE PTR [edx+ecx+140], al

; 729  : 		MissionResult |= AWARD_MEDAL|MDL_KOR_CAMP;

	mov	eax, DWORD PTR ?MissionResult@@3HA	; MissionResult
	or	eax, 33					; 00000021H
	mov	DWORD PTR ?MissionResult@@3HA, eax	; MissionResult
	jmp	SHORT $LN3@FinishCamp
$LN4@FinishCamp:

; 730  : 	}
; 731  : 	else if(WonLostTied < 0)

	movsx	ecx, WORD PTR _WonLostTied$[ebp]
	test	ecx, ecx
	jge	SHORT $LN2@FinishCamp

; 732  : 	{
; 733  : 		Pilot.Campaign.GamesLost++;

	mov	edx, DWORD PTR _this$[ebp]
	mov	ax, WORD PTR [edx+102]
	add	ax, 1
	mov	ecx, DWORD PTR _this$[ebp]
	mov	WORD PTR [ecx+102], ax

; 734  : 	}
; 735  : 	else

	jmp	SHORT $LN3@FinishCamp
$LN2@FinishCamp:

; 736  : 		Pilot.Campaign.GamesTied++;

	mov	edx, DWORD PTR _this$[ebp]
	mov	ax, WORD PTR [edx+104]
	add	ax, 1
	mov	ecx, DWORD PTR _this$[ebp]
	mov	WORD PTR [ecx+104], ax
$LN3@FinishCamp:

; 737  : 
; 738  : 	SaveData();

	mov	ecx, DWORD PTR _this$[ebp]
	call	?SaveData@LogBookData@@QAEHXZ		; LogBookData::SaveData

; 739  : }

	mov	esp, ebp
	pop	ebp
	ret	4
?FinishCampaign@LogBookData@@QAEXF@Z ENDP		; LogBookData::FinishCampaign
_TEXT	ENDS
; Function compile flags: /Odtp
; File c:\users\zhitao li\documents\visual studio 2012\projects\freefalcon\ui\src\logbook\logbook.cpp
_TEXT	SEGMENT
tv472 = -24						; size = 4
tv562 = -20						; size = 4
tv468 = -16						; size = 4
tv560 = -12						; size = 4
_this$ = -8						; size = 4
_FrKills$ = -4						; size = 2
_MissStats$ = 8						; size = 4
?UpdateCampaign@LogBookData@@QAEXPAUCAMP_MISS_STRUCT@@@Z PROC ; LogBookData::UpdateCampaign
; _this$ = ecx

; 457  : {

	push	ebp
	mov	ebp, esp
	sub	esp, 24					; 00000018H
	mov	DWORD PTR _this$[ebp], ecx

; 458  : 	MissionResult = 0;

	mov	DWORD PTR ?MissionResult@@3HA, 0	; MissionResult

; 459  : 
; 460  : 	UpdateFlightHours(MissStats->FlightHours);

	mov	eax, DWORD PTR _MissStats$[ebp]
	push	ecx
	movss	xmm0, DWORD PTR [eax+4]
	movss	DWORD PTR [esp], xmm0
	mov	ecx, DWORD PTR _this$[ebp]
	call	?UpdateFlightHours@LogBookData@@QAEXM@Z	; LogBookData::UpdateFlightHours

; 461  : 
; 462  : 	if(MissStats->Flags & CRASH_UNDAMAGED && !g_bDisableCrashEjectCourtMartials) // JB 010118

	mov	ecx, DWORD PTR _MissStats$[ebp]
	movzx	edx, WORD PTR [ecx]
	and	edx, 4
	je	SHORT $LN30@UpdateCamp
	movzx	eax, BYTE PTR ?g_bDisableCrashEjectCourtMartials@@3_NA ; g_bDisableCrashEjectCourtMartials
	test	eax, eax
	jne	SHORT $LN30@UpdateCamp

; 463  : 	{
; 464  : 		Pilot.Campaign.TotalScore -= 25;

	mov	ecx, DWORD PTR _this$[ebp]
	mov	edx, DWORD PTR [ecx+108]
	sub	edx, 25					; 00000019H
	mov	eax, DWORD PTR _this$[ebp]
	mov	DWORD PTR [eax+108], edx

; 465  : 		MissionResult |= CM_CRASH|COURT_MARTIAL;

	mov	ecx, DWORD PTR ?MissionResult@@3HA	; MissionResult
	or	ecx, 2176				; 00000880H
	mov	DWORD PTR ?MissionResult@@3HA, ecx	; MissionResult
$LN30@UpdateCamp:

; 466  : 	}
; 467  : 
; 468  : 	if(MissStats->Flags & EJECT_UNDAMAGED && !g_bDisableCrashEjectCourtMartials) // JB 010118

	mov	edx, DWORD PTR _MissStats$[ebp]
	movzx	eax, WORD PTR [edx]
	and	eax, 8
	je	SHORT $LN29@UpdateCamp
	movzx	ecx, BYTE PTR ?g_bDisableCrashEjectCourtMartials@@3_NA ; g_bDisableCrashEjectCourtMartials
	test	ecx, ecx
	jne	SHORT $LN29@UpdateCamp

; 469  : 	{
; 470  : 		Pilot.Campaign.TotalScore -= 50;

	mov	edx, DWORD PTR _this$[ebp]
	mov	eax, DWORD PTR [edx+108]
	sub	eax, 50					; 00000032H
	mov	ecx, DWORD PTR _this$[ebp]
	mov	DWORD PTR [ecx+108], eax

; 471  : 		MissionResult |= CM_EJECT|COURT_MARTIAL;

	mov	edx, DWORD PTR ?MissionResult@@3HA	; MissionResult
	or	edx, 4224				; 00001080H
	mov	DWORD PTR ?MissionResult@@3HA, edx	; MissionResult
$LN29@UpdateCamp:

; 472  : 	}
; 473  : 
; 474  : 	short FrKills = static_cast<short>(MissStats->FriendlyFireKills);

	mov	eax, DWORD PTR _MissStats$[ebp]
	mov	cx, WORD PTR [eax+56]
	mov	WORD PTR _FrKills$[ebp], cx
$LN28@UpdateCamp:

; 475  : 	
; 476  : 	while(FrKills)

	movsx	edx, WORD PTR _FrKills$[ebp]
	test	edx, edx
	je	$LN27@UpdateCamp

; 477  : 	{
; 478  : 		if(Pilot.Campaign.FriendliesKilled == 0)

	mov	eax, DWORD PTR _this$[ebp]
	movsx	ecx, WORD PTR [eax+134]
	test	ecx, ecx
	jne	SHORT $LN26@UpdateCamp

; 479  : 		{
; 480  : 			Pilot.Campaign.TotalScore -= 100;

	mov	edx, DWORD PTR _this$[ebp]
	mov	eax, DWORD PTR [edx+108]
	sub	eax, 100				; 00000064H
	mov	ecx, DWORD PTR _this$[ebp]
	mov	DWORD PTR [ecx+108], eax

; 481  : 			MissionResult |= CM_FR_FIRE1|COURT_MARTIAL;

	mov	edx, DWORD PTR ?MissionResult@@3HA	; MissionResult
	or	edx, 384				; 00000180H
	mov	DWORD PTR ?MissionResult@@3HA, edx	; MissionResult
	jmp	$LN21@UpdateCamp
$LN26@UpdateCamp:

; 482  : 		}
; 483  : 		else if(Pilot.Campaign.FriendliesKilled == 1)

	mov	eax, DWORD PTR _this$[ebp]
	movsx	ecx, WORD PTR [eax+134]
	cmp	ecx, 1
	jne	SHORT $LN24@UpdateCamp

; 484  : 		{
; 485  : 			Pilot.Campaign.TotalScore -= 200;

	mov	edx, DWORD PTR _this$[ebp]
	mov	eax, DWORD PTR [edx+108]
	sub	eax, 200				; 000000c8H
	mov	ecx, DWORD PTR _this$[ebp]
	mov	DWORD PTR [ecx+108], eax

; 486  : 			MissionResult |= CM_FR_FIRE2|COURT_MARTIAL;

	mov	edx, DWORD PTR ?MissionResult@@3HA	; MissionResult
	or	edx, 640				; 00000280H
	mov	DWORD PTR ?MissionResult@@3HA, edx	; MissionResult

; 487  : 		}
; 488  : 		else

	jmp	SHORT $LN21@UpdateCamp
$LN24@UpdateCamp:

; 489  : 		{
; 490  : 			Pilot.Campaign.TotalScore -= 200;

	mov	eax, DWORD PTR _this$[ebp]
	mov	ecx, DWORD PTR [eax+108]
	sub	ecx, 200				; 000000c8H
	mov	edx, DWORD PTR _this$[ebp]
	mov	DWORD PTR [edx+108], ecx

; 491  : 			if(MissStats->Flags & FR_HUMAN_KILLED)

	mov	eax, DWORD PTR _MissStats$[ebp]
	movzx	ecx, WORD PTR [eax]
	and	ecx, 16					; 00000010H
	je	SHORT $LN22@UpdateCamp

; 492  : 			{
; 493  : 				Pilot.Campaign.TotalScore = 0;

	mov	edx, DWORD PTR _this$[ebp]
	mov	DWORD PTR [edx+108], 0

; 494  : 				Pilot.Rank = SEC_LT;

	mov	eax, DWORD PTR _this$[ebp]
	mov	DWORD PTR [eax+80], 0

; 495  : 				MissionResult |= CM_FR_FIRE3|COURT_MARTIAL;

	mov	ecx, DWORD PTR ?MissionResult@@3HA	; MissionResult
	or	ecx, 1152				; 00000480H
	mov	DWORD PTR ?MissionResult@@3HA, ecx	; MissionResult

; 496  : 			}
; 497  : 			else

	jmp	SHORT $LN21@UpdateCamp
$LN22@UpdateCamp:

; 498  : 				MissionResult |= CM_FR_FIRE2|COURT_MARTIAL;

	mov	edx, DWORD PTR ?MissionResult@@3HA	; MissionResult
	or	edx, 640				; 00000280H
	mov	DWORD PTR ?MissionResult@@3HA, edx	; MissionResult
$LN21@UpdateCamp:

; 499  : 		}
; 500  : 		Pilot.Campaign.FriendliesKilled++;

	mov	eax, DWORD PTR _this$[ebp]
	mov	cx, WORD PTR [eax+134]
	add	cx, 1
	mov	edx, DWORD PTR _this$[ebp]
	mov	WORD PTR [edx+134], cx

; 501  : 		FrKills--;

	mov	ax, WORD PTR _FrKills$[ebp]
	sub	ax, 1
	mov	WORD PTR _FrKills$[ebp], ax

; 502  : 	}

	jmp	$LN28@UpdateCamp
$LN27@UpdateCamp:

; 503  : 	
; 504  : 	//calculate new score using complexity, no mission pts if you get court martialed!
; 505  : 	if(!(MissionResult & COURT_MARTIAL))

	mov	ecx, DWORD PTR ?MissionResult@@3HA	; MissionResult
	and	ecx, 128				; 00000080H
	jne	SHORT $LN20@UpdateCamp

; 506  : 		Pilot.Campaign.TotalScore += FloatToInt32(MissStats->Score * MissionComplexity(MissStats) * CampaignDifficulty() *
; 507  : 										PlayerOptions.Realism/30.0F + MissStats->FlightHours);

	mov	edx, DWORD PTR _MissStats$[ebp]
	cvtsi2ss xmm0, DWORD PTR [edx+20]
	mov	eax, DWORD PTR _MissStats$[ebp]
	push	eax
	mov	ecx, DWORD PTR _this$[ebp]
	movss	DWORD PTR tv560[ebp], xmm0
	call	?MissionComplexity@LogBookData@@AAEMPAUCAMP_MISS_STRUCT@@@Z ; LogBookData::MissionComplexity
	fstp	DWORD PTR tv468[ebp]
	movss	xmm0, DWORD PTR tv560[ebp]
	mulss	xmm0, DWORD PTR tv468[ebp]
	mov	ecx, DWORD PTR _this$[ebp]
	movss	DWORD PTR tv562[ebp], xmm0
	call	?CampaignDifficulty@LogBookData@@AAEMXZ	; LogBookData::CampaignDifficulty
	fstp	DWORD PTR tv472[ebp]
	movss	xmm0, DWORD PTR tv562[ebp]
	mulss	xmm0, DWORD PTR tv472[ebp]
	mulss	xmm0, DWORD PTR ?PlayerOptions@@3VPlayerOptionsClass@@A+160
	divss	xmm0, DWORD PTR __real@41f00000
	mov	ecx, DWORD PTR _MissStats$[ebp]
	addss	xmm0, DWORD PTR [ecx+4]
	push	ecx
	movss	DWORD PTR [esp], xmm0
	call	?FloatToInt32@@YAHM@Z			; FloatToInt32
	add	esp, 4
	mov	edx, DWORD PTR _this$[ebp]
	add	eax, DWORD PTR [edx+108]
	mov	ecx, DWORD PTR _this$[ebp]
	mov	DWORD PTR [ecx+108], eax
$LN20@UpdateCamp:

; 508  : 
; 509  : 	if(Pilot.Campaign.TotalScore < 0)

	mov	edx, DWORD PTR _this$[ebp]
	cmp	DWORD PTR [edx+108], 0
	jge	SHORT $LN19@UpdateCamp

; 510  : 		Pilot.Campaign.TotalScore = 0;

	mov	eax, DWORD PTR _this$[ebp]
	mov	DWORD PTR [eax+108], 0
$LN19@UpdateCamp:

; 511  : 
; 512  : 	if (!(MissStats->Flags & DONT_SCORE_MISSION))

	mov	ecx, DWORD PTR _MissStats$[ebp]
	movzx	edx, WORD PTR [ecx]
	and	edx, 32					; 00000020H
	jne	$LN1@UpdateCamp

; 513  : 		{
; 514  : 		Pilot.Campaign.Missions++;

	mov	eax, DWORD PTR _this$[ebp]
	mov	cx, WORD PTR [eax+106]
	add	cx, 1
	mov	edx, DWORD PTR _this$[ebp]
	mov	WORD PTR [edx+106], cx

; 515  : 
; 516  : 		ShiAssert(MissStats->Score >= 0);
; 517  : 		Pilot.Campaign.TotalMissionScore += MissStats->Score;

	mov	eax, DWORD PTR _this$[ebp]
	mov	ecx, DWORD PTR [eax+112]
	mov	edx, DWORD PTR _MissStats$[ebp]
	add	ecx, DWORD PTR [edx+20]
	mov	eax, DWORD PTR _this$[ebp]
	mov	DWORD PTR [eax+112], ecx

; 518  : 
; 519  : 		Pilot.Campaign.TotalScore -= MissStats->WingmenLost * 5;

	mov	ecx, DWORD PTR _MissStats$[ebp]
	mov	edx, DWORD PTR [ecx+60]
	imul	edx, 5
	mov	eax, DWORD PTR _this$[ebp]
	mov	ecx, DWORD PTR [eax+108]
	sub	ecx, edx
	mov	edx, DWORD PTR _this$[ebp]
	mov	DWORD PTR [edx+108], ecx

; 520  : 
; 521  : 		ShiAssert(MissStats->Kills >= 0);
; 522  : 		if(MissStats->Kills > 0)

	mov	eax, DWORD PTR _MissStats$[ebp]
	cmp	DWORD PTR [eax+24], 0
	jle	SHORT $LN17@UpdateCamp

; 523  : 			Pilot.Campaign.Kills += MissStats->Kills;

	mov	ecx, DWORD PTR _this$[ebp]
	movsx	edx, WORD PTR [ecx+118]
	mov	eax, DWORD PTR _MissStats$[ebp]
	add	edx, DWORD PTR [eax+24]
	mov	ecx, DWORD PTR _this$[ebp]
	mov	WORD PTR [ecx+118], dx
$LN17@UpdateCamp:

; 524  : 		if(Pilot.Campaign.Kills < 0)

	mov	edx, DWORD PTR _this$[ebp]
	movsx	eax, WORD PTR [edx+118]
	test	eax, eax
	jge	SHORT $LN16@UpdateCamp

; 525  : 			Pilot.Campaign.Kills = 0;

	xor	ecx, ecx
	mov	edx, DWORD PTR _this$[ebp]
	mov	WORD PTR [edx+118], cx
$LN16@UpdateCamp:

; 526  : 
; 527  : 		ShiAssert(MissStats->Killed >= 0);
; 528  : 		if(MissStats->Killed > 0)

	mov	eax, DWORD PTR _MissStats$[ebp]
	cmp	DWORD PTR [eax+32], 0
	jle	SHORT $LN15@UpdateCamp

; 529  : 			Pilot.Campaign.Killed += MissStats->Killed;

	mov	ecx, DWORD PTR _this$[ebp]
	movsx	edx, WORD PTR [ecx+120]
	mov	eax, DWORD PTR _MissStats$[ebp]
	add	edx, DWORD PTR [eax+32]
	mov	ecx, DWORD PTR _this$[ebp]
	mov	WORD PTR [ecx+120], dx
$LN15@UpdateCamp:

; 530  : 		if(Pilot.Campaign.Killed < 0)

	mov	edx, DWORD PTR _this$[ebp]
	movsx	eax, WORD PTR [edx+120]
	test	eax, eax
	jge	SHORT $LN14@UpdateCamp

; 531  : 			Pilot.Campaign.Killed = 0;

	xor	ecx, ecx
	mov	edx, DWORD PTR _this$[ebp]
	mov	WORD PTR [edx+120], cx
$LN14@UpdateCamp:

; 532  : 
; 533  : 		ShiAssert(MissStats->HumanKills >= 0);
; 534  : 		if(MissStats->HumanKills > 0)

	mov	eax, DWORD PTR _MissStats$[ebp]
	cmp	DWORD PTR [eax+28], 0
	jle	SHORT $LN13@UpdateCamp

; 535  : 			Pilot.Campaign.HumanKills += MissStats->HumanKills;

	mov	ecx, DWORD PTR _this$[ebp]
	movsx	edx, WORD PTR [ecx+122]
	mov	eax, DWORD PTR _MissStats$[ebp]
	add	edx, DWORD PTR [eax+28]
	mov	ecx, DWORD PTR _this$[ebp]
	mov	WORD PTR [ecx+122], dx
$LN13@UpdateCamp:

; 536  : 		if(Pilot.Campaign.HumanKills < 0)

	mov	edx, DWORD PTR _this$[ebp]
	movsx	eax, WORD PTR [edx+122]
	test	eax, eax
	jge	SHORT $LN12@UpdateCamp

; 537  : 			Pilot.Campaign.HumanKills = 0;

	xor	ecx, ecx
	mov	edx, DWORD PTR _this$[ebp]
	mov	WORD PTR [edx+122], cx
$LN12@UpdateCamp:

; 538  : 
; 539  : 		ShiAssert(MissStats->KilledByHuman >= 0);
; 540  : 		if(MissStats->KilledByHuman > 0)

	mov	eax, DWORD PTR _MissStats$[ebp]
	cmp	DWORD PTR [eax+36], 0
	jle	SHORT $LN11@UpdateCamp

; 541  : 			Pilot.Campaign.KilledByHuman += MissStats->KilledByHuman;

	mov	ecx, DWORD PTR _this$[ebp]
	movsx	edx, WORD PTR [ecx+124]
	mov	eax, DWORD PTR _MissStats$[ebp]
	add	edx, DWORD PTR [eax+36]
	mov	ecx, DWORD PTR _this$[ebp]
	mov	WORD PTR [ecx+124], dx
$LN11@UpdateCamp:

; 542  : 		if(Pilot.Campaign.KilledByHuman < 0)

	mov	edx, DWORD PTR _this$[ebp]
	movsx	eax, WORD PTR [edx+124]
	test	eax, eax
	jge	SHORT $LN10@UpdateCamp

; 543  : 			Pilot.Campaign.KilledByHuman = 0;

	xor	ecx, ecx
	mov	edx, DWORD PTR _this$[ebp]
	mov	WORD PTR [edx+124], cx
$LN10@UpdateCamp:

; 544  : 
; 545  : 		ShiAssert(MissStats->KilledBySelf >= 0);
; 546  : 		if(MissStats->KilledBySelf > 0)

	mov	eax, DWORD PTR _MissStats$[ebp]
	cmp	DWORD PTR [eax+40], 0
	jle	SHORT $LN9@UpdateCamp

; 547  : 			Pilot.Campaign.KilledBySelf += MissStats->KilledBySelf;

	mov	ecx, DWORD PTR _this$[ebp]
	movsx	edx, WORD PTR [ecx+126]
	mov	eax, DWORD PTR _MissStats$[ebp]
	add	edx, DWORD PTR [eax+40]
	mov	ecx, DWORD PTR _this$[ebp]
	mov	WORD PTR [ecx+126], dx
$LN9@UpdateCamp:

; 548  : 		if(Pilot.Campaign.KilledBySelf < 0)

	mov	edx, DWORD PTR _this$[ebp]
	movsx	eax, WORD PTR [edx+126]
	test	eax, eax
	jge	SHORT $LN8@UpdateCamp

; 549  : 			Pilot.Campaign.KilledBySelf = 0;

	xor	ecx, ecx
	mov	edx, DWORD PTR _this$[ebp]
	mov	WORD PTR [edx+126], cx
$LN8@UpdateCamp:

; 550  : 
; 551  : 		ShiAssert(MissStats->GroundUnitsKilled >= 0);
; 552  : 		if(MissStats->GroundUnitsKilled > 0)

	mov	eax, DWORD PTR _MissStats$[ebp]
	cmp	DWORD PTR [eax+44], 0
	jle	SHORT $LN7@UpdateCamp

; 553  : 			Pilot.Campaign.AirToGround += MissStats->GroundUnitsKilled;

	mov	ecx, DWORD PTR _this$[ebp]
	movsx	edx, WORD PTR [ecx+128]
	mov	eax, DWORD PTR _MissStats$[ebp]
	add	edx, DWORD PTR [eax+44]
	mov	ecx, DWORD PTR _this$[ebp]
	mov	WORD PTR [ecx+128], dx
$LN7@UpdateCamp:

; 554  : 		if(Pilot.Campaign.AirToGround < 0)

	mov	edx, DWORD PTR _this$[ebp]
	movsx	eax, WORD PTR [edx+128]
	test	eax, eax
	jge	SHORT $LN6@UpdateCamp

; 555  : 			Pilot.Campaign.AirToGround = 0;

	xor	ecx, ecx
	mov	edx, DWORD PTR _this$[ebp]
	mov	WORD PTR [edx+128], cx
$LN6@UpdateCamp:

; 556  : 
; 557  : 		ShiAssert(MissStats->FeaturesDestroyed >= 0);
; 558  : 		if(MissStats->FeaturesDestroyed > 0)

	mov	eax, DWORD PTR _MissStats$[ebp]
	cmp	DWORD PTR [eax+48], 0
	jle	SHORT $LN5@UpdateCamp

; 559  : 			Pilot.Campaign.Static += MissStats->FeaturesDestroyed;

	mov	ecx, DWORD PTR _this$[ebp]
	movsx	edx, WORD PTR [ecx+130]
	mov	eax, DWORD PTR _MissStats$[ebp]
	add	edx, DWORD PTR [eax+48]
	mov	ecx, DWORD PTR _this$[ebp]
	mov	WORD PTR [ecx+130], dx
$LN5@UpdateCamp:

; 560  : 		if(Pilot.Campaign.Static < 0)

	mov	edx, DWORD PTR _this$[ebp]
	movsx	eax, WORD PTR [edx+130]
	test	eax, eax
	jge	SHORT $LN4@UpdateCamp

; 561  : 			Pilot.Campaign.Static = 0;

	xor	ecx, ecx
	mov	edx, DWORD PTR _this$[ebp]
	mov	WORD PTR [edx+130], cx
$LN4@UpdateCamp:

; 562  : 
; 563  : 		ShiAssert(MissStats->NavalUnitsKilled >= 0);
; 564  : 		if( MissStats->NavalUnitsKilled > 0)

	mov	eax, DWORD PTR _MissStats$[ebp]
	cmp	DWORD PTR [eax+52], 0
	jle	SHORT $LN3@UpdateCamp

; 565  : 			Pilot.Campaign.Naval += MissStats->NavalUnitsKilled;

	mov	ecx, DWORD PTR _this$[ebp]
	movsx	edx, WORD PTR [ecx+132]
	mov	eax, DWORD PTR _MissStats$[ebp]
	add	edx, DWORD PTR [eax+52]
	mov	ecx, DWORD PTR _this$[ebp]
	mov	WORD PTR [ecx+132], dx
$LN3@UpdateCamp:

; 566  : 		if(Pilot.Campaign.Naval < 0)

	mov	edx, DWORD PTR _this$[ebp]
	movsx	eax, WORD PTR [edx+132]
	test	eax, eax
	jge	SHORT $LN2@UpdateCamp

; 567  : 			Pilot.Campaign.Naval = 0;

	xor	ecx, ecx
	mov	edx, DWORD PTR _this$[ebp]
	mov	WORD PTR [edx+132], cx
$LN2@UpdateCamp:

; 568  : 
; 569  : 		if(!(MissionResult & COURT_MARTIAL))

	mov	eax, DWORD PTR ?MissionResult@@3HA	; MissionResult
	and	eax, 128				; 00000080H
	jne	SHORT $LN1@UpdateCamp

; 570  : 			AwardMedals(MissStats);

	mov	ecx, DWORD PTR _MissStats$[ebp]
	push	ecx
	mov	ecx, DWORD PTR _this$[ebp]
	call	?AwardMedals@LogBookData@@AAEXPAUCAMP_MISS_STRUCT@@@Z ; LogBookData::AwardMedals
$LN1@UpdateCamp:

; 571  : 		}
; 572  : 
; 573  : 	CalcRank();

	mov	ecx, DWORD PTR _this$[ebp]
	call	?CalcRank@LogBookData@@AAEXXZ		; LogBookData::CalcRank

; 574  : 
; 575  : 	SaveData();

	mov	ecx, DWORD PTR _this$[ebp]
	call	?SaveData@LogBookData@@QAEHXZ		; LogBookData::SaveData

; 576  : }

	mov	esp, ebp
	pop	ebp
	ret	4
?UpdateCampaign@LogBookData@@QAEXPAUCAMP_MISS_STRUCT@@@Z ENDP ; LogBookData::UpdateCampaign
_TEXT	ENDS
; Function compile flags: /Odtp
; File c:\users\zhitao li\documents\visual studio 2012\projects\freefalcon\ui\src\logbook\logbook.cpp
_TEXT	SEGMENT
_this$ = -4						; size = 4
_MatchWon$ = 8						; size = 2
_Hours$ = 12						; size = 4
_VsHuman$ = 16						; size = 2
_Kills$ = 20						; size = 2
_Killed$ = 24						; size = 2
_HumanKills$ = 28					; size = 2
_KilledByHuman$ = 32					; size = 2
?UpdateDogfight@LogBookData@@QAEXFMFFFFF@Z PROC		; LogBookData::UpdateDogfight
; _this$ = ecx

; 426  : {

	push	ebp
	mov	ebp, esp
	push	ecx
	mov	DWORD PTR _this$[ebp], ecx

; 427  : 	MissionResult = 0;

	mov	DWORD PTR ?MissionResult@@3HA, 0	; MissionResult

; 428  : 
; 429  : 	UpdateFlightHours(Hours);

	push	ecx
	movss	xmm0, DWORD PTR _Hours$[ebp]
	movss	DWORD PTR [esp], xmm0
	mov	ecx, DWORD PTR _this$[ebp]
	call	?UpdateFlightHours@LogBookData@@QAEXM@Z	; LogBookData::UpdateFlightHours

; 430  : 
; 431  : 	if(VsHuman)

	movsx	eax, WORD PTR _VsHuman$[ebp]
	test	eax, eax
	je	SHORT $LN8@UpdateDogf

; 432  : 	{
; 433  : 		if(MatchWon >= 1)

	movsx	ecx, WORD PTR _MatchWon$[ebp]
	cmp	ecx, 1
	jl	SHORT $LN10@UpdateDogf

; 434  : 			Pilot.Dogfight.MatchesWonVHum++;

	mov	edx, DWORD PTR _this$[ebp]
	mov	ax, WORD PTR [edx+88]
	add	ax, 1
	mov	ecx, DWORD PTR _this$[ebp]
	mov	WORD PTR [ecx+88], ax
	jmp	SHORT $LN8@UpdateDogf
$LN10@UpdateDogf:

; 435  : 		else if(MatchWon <= -1)

	movsx	edx, WORD PTR _MatchWon$[ebp]
	cmp	edx, -1
	jg	SHORT $LN8@UpdateDogf

; 436  : 			Pilot.Dogfight.MatchesLostVHum++;

	mov	eax, DWORD PTR _this$[ebp]
	mov	cx, WORD PTR [eax+90]
	add	cx, 1
	mov	edx, DWORD PTR _this$[ebp]
	mov	WORD PTR [edx+90], cx
$LN8@UpdateDogf:

; 437  : 	}
; 438  : 	
; 439  : 	if(MatchWon >= 1)

	movsx	eax, WORD PTR _MatchWon$[ebp]
	cmp	eax, 1
	jl	SHORT $LN7@UpdateDogf

; 440  : 		Pilot.Dogfight.MatchesWon ++;

	mov	ecx, DWORD PTR _this$[ebp]
	mov	dx, WORD PTR [ecx+84]
	add	dx, 1
	mov	eax, DWORD PTR _this$[ebp]
	mov	WORD PTR [eax+84], dx
	jmp	SHORT $LN5@UpdateDogf
$LN7@UpdateDogf:

; 441  : 	else if(MatchWon <= -1)

	movsx	ecx, WORD PTR _MatchWon$[ebp]
	cmp	ecx, -1
	jg	SHORT $LN5@UpdateDogf

; 442  : 		Pilot.Dogfight.MatchesLost++;

	mov	edx, DWORD PTR _this$[ebp]
	mov	ax, WORD PTR [edx+86]
	add	ax, 1
	mov	ecx, DWORD PTR _this$[ebp]
	mov	WORD PTR [ecx+86], ax
$LN5@UpdateDogf:

; 443  : 
; 444  : 	if(Kills > 0)

	movsx	edx, WORD PTR _Kills$[ebp]
	test	edx, edx
	jle	SHORT $LN4@UpdateDogf

; 445  : 		Pilot.Dogfight.Kills += Kills;

	movsx	eax, WORD PTR _Kills$[ebp]
	mov	ecx, DWORD PTR _this$[ebp]
	movsx	edx, WORD PTR [ecx+92]
	add	edx, eax
	mov	eax, DWORD PTR _this$[ebp]
	mov	WORD PTR [eax+92], dx
$LN4@UpdateDogf:

; 446  : 	if(Killed > 0)

	movsx	ecx, WORD PTR _Killed$[ebp]
	test	ecx, ecx
	jle	SHORT $LN3@UpdateDogf

; 447  : 		Pilot.Dogfight.Killed += Killed;

	movsx	edx, WORD PTR _Killed$[ebp]
	mov	eax, DWORD PTR _this$[ebp]
	movsx	ecx, WORD PTR [eax+94]
	add	ecx, edx
	mov	edx, DWORD PTR _this$[ebp]
	mov	WORD PTR [edx+94], cx
$LN3@UpdateDogf:

; 448  : 	if(HumanKills > 0)

	movsx	eax, WORD PTR _HumanKills$[ebp]
	test	eax, eax
	jle	SHORT $LN2@UpdateDogf

; 449  : 		Pilot.Dogfight.HumanKills += HumanKills;

	movsx	ecx, WORD PTR _HumanKills$[ebp]
	mov	edx, DWORD PTR _this$[ebp]
	movsx	eax, WORD PTR [edx+96]
	add	eax, ecx
	mov	ecx, DWORD PTR _this$[ebp]
	mov	WORD PTR [ecx+96], ax
$LN2@UpdateDogf:

; 450  : 	if(KilledByHuman > 0)

	movsx	edx, WORD PTR _KilledByHuman$[ebp]
	test	edx, edx
	jle	SHORT $LN1@UpdateDogf

; 451  : 		Pilot.Dogfight.KilledByHuman += KilledByHuman;

	movsx	eax, WORD PTR _KilledByHuman$[ebp]
	mov	ecx, DWORD PTR _this$[ebp]
	movsx	edx, WORD PTR [ecx+98]
	add	edx, eax
	mov	eax, DWORD PTR _this$[ebp]
	mov	WORD PTR [eax+98], dx
$LN1@UpdateDogf:

; 452  : 	
; 453  : 	SaveData();

	mov	ecx, DWORD PTR _this$[ebp]
	call	?SaveData@LogBookData@@QAEHXZ		; LogBookData::SaveData

; 454  : }

	mov	esp, ebp
	pop	ebp
	ret	28					; 0000001cH
?UpdateDogfight@LogBookData@@QAEXFMFFFFF@Z ENDP		; LogBookData::UpdateDogfight
_TEXT	ENDS
; Function compile flags: /Odtp
; File c:\users\zhitao li\documents\visual studio 2012\projects\freefalcon\ui\src\logbook\logbook.cpp
_TEXT	SEGMENT
_this$ = -4						; size = 4
?Encrypt@LogBookData@@QAEXXZ PROC			; LogBookData::Encrypt
; _this$ = ecx

; 337  : {

	push	ebp
	mov	ebp, esp
	push	ecx
	mov	DWORD PTR _this$[ebp], ecx

; 338  : #if 0 // This has been replaced by a routine with a checksum to make sure the user isn't modifying the data file
; 339  : 	int i;
; 340  : 	char *ptr;
; 341  : 
; 342  : 	ptr=(char *)&Pilot;
; 343  : 
; 344  : 	for(i=0;i<sizeof(LB_PILOT);i++)
; 345  : 	{
; 346  : 		*ptr ^= XorMask[i % strlen(XorMask)];
; 347  : 		*ptr ^= YorMask[i % strlen(YorMask)];
; 348  : 		ptr++;
; 349  : 	}
; 350  : #endif
; 351  : }

	mov	esp, ebp
	pop	ebp
	ret	0
?Encrypt@LogBookData@@QAEXXZ ENDP			; LogBookData::Encrypt
_TEXT	ENDS
; Function compile flags: /Odtp
; File c:\users\zhitao li\documents\visual studio 2012\projects\freefalcon\ui\src\logbook\logbook.cpp
_TEXT	SEGMENT
_this$ = -268						; size = 4
_path$ = -264						; size = 260
__$ArrayPad$ = -4					; size = 4
?Clear@LogBookData@@QAEXXZ PROC				; LogBookData::Clear
; _this$ = ecx

; 139  : {

	push	ebp
	mov	ebp, esp
	sub	esp, 268				; 0000010cH
	mov	eax, DWORD PTR ___security_cookie
	xor	eax, ebp
	mov	DWORD PTR __$ArrayPad$[ebp], eax
	mov	DWORD PTR _this$[ebp], ecx

; 140  : 	char path[MAX_PATH];
; 141  : 	_stprintf(path,_T("%s\\config\\%s.rul"),FalconDataDirectory,Pilot.Callsign);

	mov	eax, DWORD PTR _this$[ebp]
	add	eax, 21					; 00000015H
	push	eax
	push	OFFSET ?FalconDataDirectory@@3PADA	; FalconDataDirectory
	push	OFFSET ??_C@_0BB@FCBNOHJF@?$CFs?2config?2?$CFs?4rul?$AA@
	lea	ecx, DWORD PTR _path$[ebp]
	push	ecx
	call	_sprintf
	add	esp, 16					; 00000010H

; 142  : 	remove(path);

	lea	edx, DWORD PTR _path$[ebp]
	push	edx
	call	_remove
	add	esp, 4

; 143  : 	//JAM 29Dec03 - Duh.
; 144  : //	_stprintf(path,_T("%s\\config\\%s.pop"),FalconDataDirectory,Pilot.Callsign);
; 145  : //	remove(path);
; 146  : 	_stprintf(path,_T("%s\\config\\%s.lbk"),FalconDataDirectory,Pilot.Callsign);

	mov	eax, DWORD PTR _this$[ebp]
	add	eax, 21					; 00000015H
	push	eax
	push	OFFSET ?FalconDataDirectory@@3PADA	; FalconDataDirectory
	push	OFFSET ??_C@_0BB@LEPDOEAL@?$CFs?2config?2?$CFs?4lbk?$AA@
	lea	ecx, DWORD PTR _path$[ebp]
	push	ecx
	call	_sprintf
	add	esp, 16					; 00000010H

; 147  : 	remove(path);

	lea	edx, DWORD PTR _path$[ebp]
	push	edx
	call	_remove
	add	esp, 4

; 148  : 	_stprintf(path,_T("%s\\config\\%s.plc"),FalconDataDirectory,Pilot.Callsign);

	mov	eax, DWORD PTR _this$[ebp]
	add	eax, 21					; 00000015H
	push	eax
	push	OFFSET ?FalconDataDirectory@@3PADA	; FalconDataDirectory
	push	OFFSET ??_C@_0BB@GMHLKLCO@?$CFs?2config?2?$CFs?4plc?$AA@
	lea	ecx, DWORD PTR _path$[ebp]
	push	ecx
	call	_sprintf
	add	esp, 16					; 00000010H

; 149  : 	remove(path);

	lea	edx, DWORD PTR _path$[ebp]
	push	edx
	call	_remove
	add	esp, 4

; 150  : 	Initialize();

	mov	ecx, DWORD PTR _this$[ebp]
	call	?Initialize@LogBookData@@QAEXXZ		; LogBookData::Initialize

; 151  : 	/*
; 152  : 	Pilot.Rank = SEC_LT;
; 153  : 	Pilot.AceFactor = 1.0f;
; 154  : 	Pilot.FlightHours = 0.0F;
; 155  : 	memset(&Pilot.Campaign,0,sizeof(CAMP_STATS));
; 156  : 	memset(&Pilot.Dogfight,0,sizeof(DF_STATS));
; 157  : 	memset(Pilot.Medals,0,sizeof(uchar)*NUM_MEDALS);
; 158  : 	Pilot.Picture[0] = 0;
; 159  : 	Pilot.Patch[0] = 0;
; 160  : 	Pilot.Personal[0] = 0;
; 161  : 	Pilot.voice = 0;
; 162  : 	_TCHAR buf[COMM_LEN];
; 163  : 	_tstrdate(buf);
; 164  : 	_tcscpy(Pilot.Commissioned,buf);
; 165  : 	*/
; 166  : 
; 167  : }

	mov	ecx, DWORD PTR __$ArrayPad$[ebp]
	xor	ecx, ebp
	call	@__security_check_cookie@4
	mov	esp, ebp
	pop	ebp
	ret	0
?Clear@LogBookData@@QAEXXZ ENDP				; LogBookData::Clear
_TEXT	ENDS
; Function compile flags: /Odtp
; File c:\users\zhitao li\documents\visual studio 2012\projects\freefalcon\ui\src\logbook\logbook.cpp
_TEXT	SEGMENT
_size$ = -284						; size = 4
_theKey$ = -280						; size = 4
_fp$ = -276						; size = 4
_retval$ = -272						; size = 4
_this$ = -268						; size = 4
_path$ = -264						; size = 260
__$ArrayPad$ = -4					; size = 4
?SaveData@LogBookData@@QAEHXZ PROC			; LogBookData::SaveData
; _this$ = ecx

; 266  : {

	push	ebp
	mov	ebp, esp
	sub	esp, 284				; 0000011cH
	mov	eax, DWORD PTR ___security_cookie
	xor	eax, ebp
	mov	DWORD PTR __$ArrayPad$[ebp], eax
	mov	DWORD PTR _this$[ebp], ecx

; 267  : 	FILE		*fp;
; 268  : 	_TCHAR		path[_MAX_PATH];
; 269  : 	
; 270  : 	_stprintf(path,_T("%s\\config\\%s.lbk"),FalconDataDirectory,Pilot.Callsign);

	mov	eax, DWORD PTR _this$[ebp]
	add	eax, 21					; 00000015H
	push	eax
	push	OFFSET ?FalconDataDirectory@@3PADA	; FalconDataDirectory
	push	OFFSET ??_C@_0BB@LEPDOEAL@?$CFs?2config?2?$CFs?4lbk?$AA@
	lea	ecx, DWORD PTR _path$[ebp]
	push	ecx
	call	_sprintf
	add	esp, 16					; 00000010H

; 271  : 
; 272  : 	if((fp = _tfopen(path,_T("wb"))) == NULL)

	push	OFFSET ??_C@_02GMLFBBN@wb?$AA@
	lea	edx, DWORD PTR _path$[ebp]
	push	edx
	call	_fopen
	add	esp, 8
	mov	DWORD PTR _fp$[ebp], eax
	cmp	DWORD PTR _fp$[ebp], 0
	jne	SHORT $LN5@SaveData

; 273  : 	{
; 274  : 		MonoPrint(_T("Couldn't save logbook"));

	push	OFFSET ??_C@_0BG@CMOOHMCL@Couldn?8t?5save?5logbook?$AA@
	call	_MonoPrint
	add	esp, 4

; 275  : 		return FALSE;

	xor	eax, eax
	jmp	$LN6@SaveData
$LN5@SaveData:

; 276  : 	}
; 277  : 
; 278  : 	EncryptBuffer(0x58,(uchar*)&Pilot,sizeof(LB_PILOT));

	push	372					; 00000174H
	mov	eax, DWORD PTR _this$[ebp]
	push	eax
	push	88					; 00000058H
	call	?EncryptBuffer@@YAXEPAEJ@Z		; EncryptBuffer
	add	esp, 12					; 0000000cH

; 279  : 	
; 280  : 	fwrite(&Pilot, sizeof(LB_PILOT), 1, fp);

	mov	ecx, DWORD PTR _fp$[ebp]
	push	ecx
	push	1
	push	372					; 00000174H
	mov	edx, DWORD PTR _this$[ebp]
	push	edx
	call	_fwrite
	add	esp, 16					; 00000010H

; 281  : 	fclose(fp);

	mov	eax, DWORD PTR _fp$[ebp]
	push	eax
	call	_fclose
	add	esp, 4

; 282  : 
; 283  : 	DecryptBuffer(0x58,(uchar*)&Pilot,sizeof(LB_PILOT));

	push	372					; 00000174H
	mov	ecx, DWORD PTR _this$[ebp]
	push	ecx
	push	88					; 00000058H
	call	?DecryptBuffer@@YAXEPAEJ@Z		; DecryptBuffer
	add	esp, 12					; 0000000cH

; 284  : 
; 285  : 	if(gCommsMgr)

	cmp	DWORD PTR ?gCommsMgr@@3PAVUIComms@@A, 0	; gCommsMgr
	je	SHORT $LN4@SaveData

; 286  : 	{
; 287  : 		sprintf(path,"%s\\config\\%s.plc",FalconDataDirectory,Pilot.Callsign);

	mov	edx, DWORD PTR _this$[ebp]
	add	edx, 21					; 00000015H
	push	edx
	push	OFFSET ?FalconDataDirectory@@3PADA	; FalconDataDirectory
	push	OFFSET ??_C@_0BB@GMHLKLCO@?$CFs?2config?2?$CFs?4plc?$AA@
	lea	eax, DWORD PTR _path$[ebp]
	push	eax
	call	_sprintf
	add	esp, 16					; 00000010H

; 288  : 		gCommsMgr->SetStatsFile(path);

	lea	ecx, DWORD PTR _path$[ebp]
	push	ecx
	mov	ecx, DWORD PTR ?gCommsMgr@@3PAVUIComms@@A ; gCommsMgr
	call	?SetStatsFile@UIComms@@QAEXPAD@Z	; UIComms::SetStatsFile
$LN4@SaveData:

; 289  : 	}
; 290  : 
; 291  : #if _USE_REGISTRY_
; 292  : 	DWORD size;
; 293  : 	HKEY theKey;
; 294  : 	long retval;
; 295  : 
; 296  : 	retval = RegOpenKeyEx(HKEY_LOCAL_MACHINE, FALCON_REGISTRY_KEY,
; 297  : 		0, KEY_ALL_ACCESS, &theKey);

	lea	edx, DWORD PTR _theKey$[ebp]
	push	edx
	push	983103					; 000f003fH
	push	0
	push	OFFSET ??_C@_0BP@KOIEKLOO@Software?2MicroProse?2Falcon?24?40?$AA@
	push	-2147483646				; 80000002H
	call	DWORD PTR __imp__RegOpenKeyExA@20
	mov	DWORD PTR _retval$[ebp], eax

; 298  : 	size = _NAME_LEN_;

	mov	DWORD PTR _size$[ebp], 20		; 00000014H

; 299  : 	if(retval == ERROR_SUCCESS)

	cmp	DWORD PTR _retval$[ebp], 0
	jne	SHORT $LN3@SaveData

; 300  : 		retval = RegSetValueEx  (theKey, "PilotName", 0, REG_BINARY, (LPBYTE)Name(), size);	

	mov	eax, DWORD PTR _size$[ebp]
	push	eax
	mov	ecx, DWORD PTR _this$[ebp]
	call	?Name@LogBookData@@QAEPADXZ		; LogBookData::Name
	push	eax
	push	3
	push	0
	push	OFFSET ??_C@_09DHEFBMO@PilotName?$AA@
	mov	ecx, DWORD PTR _theKey$[ebp]
	push	ecx
	call	DWORD PTR __imp__RegSetValueExA@24
	mov	DWORD PTR _retval$[ebp], eax
$LN3@SaveData:

; 301  : 	size = _CALLSIGN_LEN_;

	mov	DWORD PTR _size$[ebp], 12		; 0000000cH

; 302  : 	if(retval == ERROR_SUCCESS)

	cmp	DWORD PTR _retval$[ebp], 0
	jne	SHORT $LN2@SaveData

; 303  : 		retval = RegSetValueEx  (theKey, "PilotCallsign", 0, REG_BINARY, (LPBYTE)Callsign(), size);	

	mov	edx, DWORD PTR _size$[ebp]
	push	edx
	mov	ecx, DWORD PTR _this$[ebp]
	call	?Callsign@LogBookData@@QAEPADXZ		; LogBookData::Callsign
	push	eax
	push	3
	push	0
	push	OFFSET ??_C@_0O@BHDLDEML@PilotCallsign?$AA@
	mov	eax, DWORD PTR _theKey$[ebp]
	push	eax
	call	DWORD PTR __imp__RegSetValueExA@24
	mov	DWORD PTR _retval$[ebp], eax
$LN2@SaveData:

; 304  : 	RegCloseKey(theKey);

	mov	ecx, DWORD PTR _theKey$[ebp]
	push	ecx
	call	DWORD PTR __imp__RegCloseKey@4

; 305  : #endif
; 306  : 
; 307  : 	if(this == &LogBook)

	cmp	DWORD PTR _this$[ebp], OFFSET ?LogBook@@3VLogBookData@@A ; LogBook
	jne	$LN1@SaveData

; 308  : 	{
; 309  : 		FalconLocalSession->SetPlayerName(NameWRank());

	mov	ecx, DWORD PTR _this$[ebp]
	call	?NameWRank@LogBookData@@QAEPADXZ	; LogBookData::NameWRank
	push	eax
	mov	ecx, OFFSET ?vuLocalSessionEntity@@3V?$VuBin@VVuSessionEntity@@@@A ; vuLocalSessionEntity
	call	?get@?$VuBin@VVuSessionEntity@@@@QBEPAVVuSessionEntity@@XZ ; VuBin<VuSessionEntity>::get
	mov	ecx, eax
	call	?SetPlayerName@FalconSessionEntity@@QAEXPAD@Z ; FalconSessionEntity::SetPlayerName

; 310  : 	 	FalconLocalSession->SetPlayerCallsign(Callsign());

	mov	ecx, DWORD PTR _this$[ebp]
	call	?Callsign@LogBookData@@QAEPADXZ		; LogBookData::Callsign
	push	eax
	mov	ecx, OFFSET ?vuLocalSessionEntity@@3V?$VuBin@VVuSessionEntity@@@@A ; vuLocalSessionEntity
	call	?get@?$VuBin@VVuSessionEntity@@@@QBEPAVVuSessionEntity@@XZ ; VuBin<VuSessionEntity>::get
	mov	ecx, eax
	call	?SetPlayerCallsign@FalconSessionEntity@@QAEXPAD@Z ; FalconSessionEntity::SetPlayerCallsign

; 311  : 		FalconLocalSession->SetAceFactor(AceFactor());

	mov	ecx, DWORD PTR _this$[ebp]
	call	?AceFactor@LogBookData@@QAEMXZ		; LogBookData::AceFactor
	push	ecx
	fstp	DWORD PTR [esp]
	mov	ecx, OFFSET ?vuLocalSessionEntity@@3V?$VuBin@VVuSessionEntity@@@@A ; vuLocalSessionEntity
	call	?get@?$VuBin@VVuSessionEntity@@@@QBEPAVVuSessionEntity@@XZ ; VuBin<VuSessionEntity>::get
	mov	ecx, eax
	call	?SetAceFactor@FalconSessionEntity@@QAEXM@Z ; FalconSessionEntity::SetAceFactor

; 312  : 		FalconLocalSession->SetInitAceFactor(LogBook.AceFactor());

	mov	ecx, OFFSET ?LogBook@@3VLogBookData@@A	; LogBook
	call	?AceFactor@LogBookData@@QAEMXZ		; LogBookData::AceFactor
	push	ecx
	fstp	DWORD PTR [esp]
	mov	ecx, OFFSET ?vuLocalSessionEntity@@3V?$VuBin@VVuSessionEntity@@@@A ; vuLocalSessionEntity
	call	?get@?$VuBin@VVuSessionEntity@@@@QBEPAVVuSessionEntity@@XZ ; VuBin<VuSessionEntity>::get
	mov	ecx, eax
	call	?SetInitAceFactor@FalconSessionEntity@@QAEXM@Z ; FalconSessionEntity::SetInitAceFactor

; 313  : 		FalconLocalSession->SetVoiceID(static_cast<uchar>(Voice()));

	mov	ecx, DWORD PTR _this$[ebp]
	call	?Voice@LogBookData@@QAEEXZ		; LogBookData::Voice
	movzx	edx, al
	push	edx
	mov	ecx, OFFSET ?vuLocalSessionEntity@@3V?$VuBin@VVuSessionEntity@@@@A ; vuLocalSessionEntity
	call	?get@?$VuBin@VVuSessionEntity@@@@QBEPAVVuSessionEntity@@XZ ; VuBin<VuSessionEntity>::get
	mov	ecx, eax
	call	?SetVoiceID@FalconSessionEntity@@QAEXE@Z ; FalconSessionEntity::SetVoiceID
$LN1@SaveData:

; 314  : 	}
; 315  : 
; 316  : 	return TRUE;

	mov	eax, 1
$LN6@SaveData:

; 317  : }

	mov	ecx, DWORD PTR __$ArrayPad$[ebp]
	xor	ecx, ebp
	call	@__security_check_cookie@4
	mov	esp, ebp
	pop	ebp
	ret	0
?SaveData@LogBookData@@QAEHXZ ENDP			; LogBookData::SaveData
_TEXT	ENDS
; Function compile flags: /Odtp
; File c:\users\zhitao li\documents\visual studio 2012\projects\freefalcon\ui\src\logbook\logbook.cpp
_TEXT	SEGMENT
_this$ = -4						; size = 4
_NewPilot$ = 8						; size = 4
?LoadData@LogBookData@@QAEHPAUPilot@@@Z PROC		; LogBookData::LoadData
; _this$ = ecx

; 245  : {

	push	ebp
	mov	ebp, esp
	push	ecx
	mov	DWORD PTR _this$[ebp], ecx

; 246  : 	if(NewPilot)

	cmp	DWORD PTR _NewPilot$[ebp], 0
	je	$LN2@LoadData

; 247  : 	{
; 248  : 		memcpy(&Pilot,NewPilot,sizeof(LB_PILOT));

	push	372					; 00000174H
	mov	eax, DWORD PTR _NewPilot$[ebp]
	push	eax
	mov	ecx, DWORD PTR _this$[ebp]
	push	ecx
	call	_memcpy
	add	esp, 12					; 0000000cH

; 249  : 		if(this == &LogBook)

	cmp	DWORD PTR _this$[ebp], OFFSET ?LogBook@@3VLogBookData@@A ; LogBook
	jne	$LN1@LoadData

; 250  : 		{
; 251  : 			FalconLocalSession->SetPlayerName(NameWRank());

	mov	ecx, DWORD PTR _this$[ebp]
	call	?NameWRank@LogBookData@@QAEPADXZ	; LogBookData::NameWRank
	push	eax
	mov	ecx, OFFSET ?vuLocalSessionEntity@@3V?$VuBin@VVuSessionEntity@@@@A ; vuLocalSessionEntity
	call	?get@?$VuBin@VVuSessionEntity@@@@QBEPAVVuSessionEntity@@XZ ; VuBin<VuSessionEntity>::get
	mov	ecx, eax
	call	?SetPlayerName@FalconSessionEntity@@QAEXPAD@Z ; FalconSessionEntity::SetPlayerName

; 252  : 	 		FalconLocalSession->SetPlayerCallsign(Callsign());

	mov	ecx, DWORD PTR _this$[ebp]
	call	?Callsign@LogBookData@@QAEPADXZ		; LogBookData::Callsign
	push	eax
	mov	ecx, OFFSET ?vuLocalSessionEntity@@3V?$VuBin@VVuSessionEntity@@@@A ; vuLocalSessionEntity
	call	?get@?$VuBin@VVuSessionEntity@@@@QBEPAVVuSessionEntity@@XZ ; VuBin<VuSessionEntity>::get
	mov	ecx, eax
	call	?SetPlayerCallsign@FalconSessionEntity@@QAEXPAD@Z ; FalconSessionEntity::SetPlayerCallsign

; 253  : 			FalconLocalSession->SetAceFactor(AceFactor());

	mov	ecx, DWORD PTR _this$[ebp]
	call	?AceFactor@LogBookData@@QAEMXZ		; LogBookData::AceFactor
	push	ecx
	fstp	DWORD PTR [esp]
	mov	ecx, OFFSET ?vuLocalSessionEntity@@3V?$VuBin@VVuSessionEntity@@@@A ; vuLocalSessionEntity
	call	?get@?$VuBin@VVuSessionEntity@@@@QBEPAVVuSessionEntity@@XZ ; VuBin<VuSessionEntity>::get
	mov	ecx, eax
	call	?SetAceFactor@FalconSessionEntity@@QAEXM@Z ; FalconSessionEntity::SetAceFactor

; 254  : 			FalconLocalSession->SetInitAceFactor(AceFactor());

	mov	ecx, DWORD PTR _this$[ebp]
	call	?AceFactor@LogBookData@@QAEMXZ		; LogBookData::AceFactor
	push	ecx
	fstp	DWORD PTR [esp]
	mov	ecx, OFFSET ?vuLocalSessionEntity@@3V?$VuBin@VVuSessionEntity@@@@A ; vuLocalSessionEntity
	call	?get@?$VuBin@VVuSessionEntity@@@@QBEPAVVuSessionEntity@@XZ ; VuBin<VuSessionEntity>::get
	mov	ecx, eax
	call	?SetInitAceFactor@FalconSessionEntity@@QAEXM@Z ; FalconSessionEntity::SetInitAceFactor

; 255  : 			FalconLocalSession->SetVoiceID(static_cast<uchar>(Voice()));

	mov	ecx, DWORD PTR _this$[ebp]
	call	?Voice@LogBookData@@QAEEXZ		; LogBookData::Voice
	movzx	edx, al
	push	edx
	mov	ecx, OFFSET ?vuLocalSessionEntity@@3V?$VuBin@VVuSessionEntity@@@@A ; vuLocalSessionEntity
	call	?get@?$VuBin@VVuSessionEntity@@@@QBEPAVVuSessionEntity@@XZ ; VuBin<VuSessionEntity>::get
	mov	ecx, eax
	call	?SetVoiceID@FalconSessionEntity@@QAEXE@Z ; FalconSessionEntity::SetVoiceID

; 256  : 			PlayerOptions.LoadOptions ();

	mov	ecx, OFFSET ?LogBook@@3VLogBookData@@A	; LogBook
	call	?OptionsFile@LogBookData@@QAEPADXZ	; LogBookData::OptionsFile
	push	eax
	mov	ecx, OFFSET ?PlayerOptions@@3VPlayerOptionsClass@@A ; PlayerOptions
	call	?LoadOptions@PlayerOptionsClass@@QAEHPAD@Z ; PlayerOptionsClass::LoadOptions

; 257  : 			LoadAllRules(Callsign());

	mov	ecx, DWORD PTR _this$[ebp]
	call	?Callsign@LogBookData@@QAEPADXZ		; LogBookData::Callsign
	push	eax
	call	?LoadAllRules@@YAHPAD@Z			; LoadAllRules
	add	esp, 4

; 258  : 			LogState |= LB_LOADED_ONCE;

	mov	eax, DWORD PTR ?LogState@@3HA		; LogState
	or	eax, 32					; 00000020H
	mov	DWORD PTR ?LogState@@3HA, eax		; LogState
$LN1@LoadData:

; 259  : 		}
; 260  : 		return TRUE;

	mov	eax, 1
	jmp	SHORT $LN3@LoadData
$LN2@LoadData:

; 261  : 	}
; 262  : 	return FALSE;

	xor	eax, eax
$LN3@LoadData:

; 263  : }

	mov	esp, ebp
	pop	ebp
	ret	4
?LoadData@LogBookData@@QAEHPAUPilot@@@Z ENDP		; LogBookData::LoadData
_TEXT	ENDS
; Function compile flags: /Odtp
; File c:\users\zhitao li\documents\visual studio 2012\projects\freefalcon\ui\src\logbook\logbook.cpp
_TEXT	SEGMENT
_size$ = -280						; size = 4
_success$ = -276					; size = 4
_fp$ = -272						; size = 4
_this$ = -268						; size = 4
_path$ = -264						; size = 260
__$ArrayPad$ = -4					; size = 4
_callsign$ = 8						; size = 4
?LoadData@LogBookData@@QAEHPAD@Z PROC			; LogBookData::LoadData
; _this$ = ecx

; 175  : {

	push	ebp
	mov	ebp, esp
	sub	esp, 280				; 00000118H
	mov	eax, DWORD PTR ___security_cookie
	xor	eax, ebp
	mov	DWORD PTR __$ArrayPad$[ebp], eax
	mov	DWORD PTR _this$[ebp], ecx

; 176  : 	DWORD size;
; 177  : 	FILE *fp;
; 178  : 	size_t		success = 0;

	mov	DWORD PTR _success$[ebp], 0

; 179  : 	_TCHAR		path[_MAX_PATH];
; 180  : 
; 181  : 	ShiAssert(callsign);
; 182  : 
; 183  : 	_stprintf(path,_T("%s\\config\\%s.lbk"),FalconDataDirectory,callsign);

	mov	eax, DWORD PTR _callsign$[ebp]
	push	eax
	push	OFFSET ?FalconDataDirectory@@3PADA	; FalconDataDirectory
	push	OFFSET ??_C@_0BB@LEPDOEAL@?$CFs?2config?2?$CFs?4lbk?$AA@
	lea	ecx, DWORD PTR _path$[ebp]
	push	ecx
	call	_sprintf
	add	esp, 16					; 00000010H

; 184  : 	
; 185  : 	fp = _tfopen(path,_T("rb"));

	push	OFFSET ??_C@_02JDPG@rb?$AA@
	lea	edx, DWORD PTR _path$[ebp]
	push	edx
	call	_fopen
	add	esp, 8
	mov	DWORD PTR _fp$[ebp], eax

; 186  : 	if(!fp)

	cmp	DWORD PTR _fp$[ebp], 0
	jne	SHORT $LN6@LoadData

; 187  : 	{
; 188  : 		MonoPrint(_T("Couldn't open %s's logbook.\n"),callsign);

	mov	eax, DWORD PTR _callsign$[ebp]
	push	eax
	push	OFFSET ??_C@_0BN@GDOMNNEK@Couldn?8t?5open?5?$CFs?8s?5logbook?4?6?$AA@
	call	_MonoPrint
	add	esp, 8

; 189  : 		Initialize();

	mov	ecx, DWORD PTR _this$[ebp]
	call	?Initialize@LogBookData@@QAEXXZ		; LogBookData::Initialize

; 190  : 		return FALSE;

	xor	eax, eax
	jmp	$LN7@LoadData
$LN6@LoadData:

; 191  : 	}
; 192  : 	
; 193  : 	fseek(fp,0,SEEK_END);

	push	2
	push	0
	mov	ecx, DWORD PTR _fp$[ebp]
	push	ecx
	call	_fseek
	add	esp, 12					; 0000000cH

; 194  : 	size = ftell(fp);

	mov	edx, DWORD PTR _fp$[ebp]
	push	edx
	call	_ftell
	add	esp, 4
	mov	DWORD PTR _size$[ebp], eax

; 195  : 	fseek(fp,0,SEEK_SET);

	push	0
	push	0
	mov	eax, DWORD PTR _fp$[ebp]
	push	eax
	call	_fseek
	add	esp, 12					; 0000000cH

; 196  : 
; 197  : 	if(size != sizeof(LB_PILOT))

	cmp	DWORD PTR _size$[ebp], 372		; 00000174H
	je	SHORT $LN5@LoadData

; 198  : 	{
; 199  : 		MonoPrint(_T("%s's logbook is old file format.\n"),callsign);

	mov	ecx, DWORD PTR _callsign$[ebp]
	push	ecx
	push	OFFSET ??_C@_0CC@IOKEGJDH@?$CFs?8s?5logbook?5is?5old?5file?5format?4@
	call	_MonoPrint
	add	esp, 8

; 200  : 		fclose(fp);

	mov	edx, DWORD PTR _fp$[ebp]
	push	edx
	call	_fclose
	add	esp, 4

; 201  : 		Initialize();

	mov	ecx, DWORD PTR _this$[ebp]
	call	?Initialize@LogBookData@@QAEXXZ		; LogBookData::Initialize

; 202  : 		return FALSE;

	xor	eax, eax
	jmp	$LN7@LoadData
$LN5@LoadData:

; 203  : 	}
; 204  : 
; 205  : 	success = fread(&Pilot, sizeof(LB_PILOT), 1, fp);

	mov	eax, DWORD PTR _fp$[ebp]
	push	eax
	push	1
	push	372					; 00000174H
	mov	ecx, DWORD PTR _this$[ebp]
	push	ecx
	call	_fread
	add	esp, 16					; 00000010H
	mov	DWORD PTR _success$[ebp], eax

; 206  : 	fclose(fp);

	mov	edx, DWORD PTR _fp$[ebp]
	push	edx
	call	_fclose
	add	esp, 4

; 207  : 	if(success != 1)

	cmp	DWORD PTR _success$[ebp], 1
	je	SHORT $LN4@LoadData

; 208  : 	{
; 209  : 		MonoPrint(_T("Failed to read %s's logbook.\n"),callsign);

	mov	eax, DWORD PTR _callsign$[ebp]
	push	eax
	push	OFFSET ??_C@_0BO@PBIEDHCE@Failed?5to?5read?5?$CFs?8s?5logbook?4?6?$AA@
	call	_MonoPrint
	add	esp, 8

; 210  : 		Initialize();

	mov	ecx, DWORD PTR _this$[ebp]
	call	?Initialize@LogBookData@@QAEXXZ		; LogBookData::Initialize

; 211  : 		return BAD_READ;

	mov	eax, 2
	jmp	$LN7@LoadData
$LN4@LoadData:

; 212  : 	}
; 213  : 
; 214  : 	DecryptBuffer(0x58,(uchar*)&Pilot,sizeof(LB_PILOT));

	push	372					; 00000174H
	mov	ecx, DWORD PTR _this$[ebp]
	push	ecx
	push	88					; 00000058H
	call	?DecryptBuffer@@YAXEPAEJ@Z		; DecryptBuffer
	add	esp, 12					; 0000000cH

; 215  : 
; 216  : 
; 217  : 	if(Pilot.CheckSum) // Somebody changed the data... init

	mov	edx, DWORD PTR _this$[ebp]
	cmp	DWORD PTR [edx+368], 0
	je	SHORT $LN3@LoadData

; 218  : 	{
; 219  : 		MonoPrint("Failed checksum");

	push	OFFSET ??_C@_0BA@BIACLFKH@Failed?5checksum?$AA@
	call	_MonoPrint
	add	esp, 4

; 220  : 		Initialize();

	mov	ecx, DWORD PTR _this$[ebp]
	call	?Initialize@LogBookData@@QAEXXZ		; LogBookData::Initialize

; 221  : 		return(FALSE);

	xor	eax, eax
	jmp	$LN7@LoadData
$LN3@LoadData:

; 222  : 	}
; 223  : 	if(gCommsMgr)

	cmp	DWORD PTR ?gCommsMgr@@3PAVUIComms@@A, 0	; gCommsMgr
	je	SHORT $LN2@LoadData

; 224  : 	{
; 225  : 		sprintf(path,"%s\\config\\%s.plc",FalconDataDirectory,callsign);

	mov	eax, DWORD PTR _callsign$[ebp]
	push	eax
	push	OFFSET ?FalconDataDirectory@@3PADA	; FalconDataDirectory
	push	OFFSET ??_C@_0BB@GMHLKLCO@?$CFs?2config?2?$CFs?4plc?$AA@
	lea	ecx, DWORD PTR _path$[ebp]
	push	ecx
	call	_sprintf
	add	esp, 16					; 00000010H

; 226  : 		gCommsMgr->SetStatsFile(path);

	lea	edx, DWORD PTR _path$[ebp]
	push	edx
	mov	ecx, DWORD PTR ?gCommsMgr@@3PAVUIComms@@A ; gCommsMgr
	call	?SetStatsFile@UIComms@@QAEXPAD@Z	; UIComms::SetStatsFile
$LN2@LoadData:

; 227  : 	}	
; 228  : 
; 229  : 	if(this == &LogBook)

	cmp	DWORD PTR _this$[ebp], OFFSET ?LogBook@@3VLogBookData@@A ; LogBook
	jne	$LN1@LoadData

; 230  : 	{
; 231  : 		FalconLocalSession->SetPlayerName(NameWRank());

	mov	ecx, DWORD PTR _this$[ebp]
	call	?NameWRank@LogBookData@@QAEPADXZ	; LogBookData::NameWRank
	push	eax
	mov	ecx, OFFSET ?vuLocalSessionEntity@@3V?$VuBin@VVuSessionEntity@@@@A ; vuLocalSessionEntity
	call	?get@?$VuBin@VVuSessionEntity@@@@QBEPAVVuSessionEntity@@XZ ; VuBin<VuSessionEntity>::get
	mov	ecx, eax
	call	?SetPlayerName@FalconSessionEntity@@QAEXPAD@Z ; FalconSessionEntity::SetPlayerName

; 232  : 	 	FalconLocalSession->SetPlayerCallsign(Callsign());

	mov	ecx, DWORD PTR _this$[ebp]
	call	?Callsign@LogBookData@@QAEPADXZ		; LogBookData::Callsign
	push	eax
	mov	ecx, OFFSET ?vuLocalSessionEntity@@3V?$VuBin@VVuSessionEntity@@@@A ; vuLocalSessionEntity
	call	?get@?$VuBin@VVuSessionEntity@@@@QBEPAVVuSessionEntity@@XZ ; VuBin<VuSessionEntity>::get
	mov	ecx, eax
	call	?SetPlayerCallsign@FalconSessionEntity@@QAEXPAD@Z ; FalconSessionEntity::SetPlayerCallsign

; 233  : 		FalconLocalSession->SetAceFactor(AceFactor());

	mov	ecx, DWORD PTR _this$[ebp]
	call	?AceFactor@LogBookData@@QAEMXZ		; LogBookData::AceFactor
	push	ecx
	fstp	DWORD PTR [esp]
	mov	ecx, OFFSET ?vuLocalSessionEntity@@3V?$VuBin@VVuSessionEntity@@@@A ; vuLocalSessionEntity
	call	?get@?$VuBin@VVuSessionEntity@@@@QBEPAVVuSessionEntity@@XZ ; VuBin<VuSessionEntity>::get
	mov	ecx, eax
	call	?SetAceFactor@FalconSessionEntity@@QAEXM@Z ; FalconSessionEntity::SetAceFactor

; 234  : 		FalconLocalSession->SetInitAceFactor(AceFactor());

	mov	ecx, DWORD PTR _this$[ebp]
	call	?AceFactor@LogBookData@@QAEMXZ		; LogBookData::AceFactor
	push	ecx
	fstp	DWORD PTR [esp]
	mov	ecx, OFFSET ?vuLocalSessionEntity@@3V?$VuBin@VVuSessionEntity@@@@A ; vuLocalSessionEntity
	call	?get@?$VuBin@VVuSessionEntity@@@@QBEPAVVuSessionEntity@@XZ ; VuBin<VuSessionEntity>::get
	mov	ecx, eax
	call	?SetInitAceFactor@FalconSessionEntity@@QAEXM@Z ; FalconSessionEntity::SetInitAceFactor

; 235  : 		FalconLocalSession->SetVoiceID(static_cast<uchar>(Voice()));

	mov	ecx, DWORD PTR _this$[ebp]
	call	?Voice@LogBookData@@QAEEXZ		; LogBookData::Voice
	movzx	eax, al
	push	eax
	mov	ecx, OFFSET ?vuLocalSessionEntity@@3V?$VuBin@VVuSessionEntity@@@@A ; vuLocalSessionEntity
	call	?get@?$VuBin@VVuSessionEntity@@@@QBEPAVVuSessionEntity@@XZ ; VuBin<VuSessionEntity>::get
	mov	ecx, eax
	call	?SetVoiceID@FalconSessionEntity@@QAEXE@Z ; FalconSessionEntity::SetVoiceID

; 236  : 		PlayerOptions.LoadOptions ();

	mov	ecx, OFFSET ?LogBook@@3VLogBookData@@A	; LogBook
	call	?OptionsFile@LogBookData@@QAEPADXZ	; LogBookData::OptionsFile
	push	eax
	mov	ecx, OFFSET ?PlayerOptions@@3VPlayerOptionsClass@@A ; PlayerOptions
	call	?LoadOptions@PlayerOptionsClass@@QAEHPAD@Z ; PlayerOptionsClass::LoadOptions

; 237  : 		LoadAllRules(Callsign());

	mov	ecx, DWORD PTR _this$[ebp]
	call	?Callsign@LogBookData@@QAEPADXZ		; LogBookData::Callsign
	push	eax
	call	?LoadAllRules@@YAHPAD@Z			; LoadAllRules
	add	esp, 4

; 238  : 		LogState |= LB_LOADED_ONCE;

	mov	ecx, DWORD PTR ?LogState@@3HA		; LogState
	or	ecx, 32					; 00000020H
	mov	DWORD PTR ?LogState@@3HA, ecx		; LogState
$LN1@LoadData:

; 239  : 	}
; 240  : 
; 241  : 	return TRUE;

	mov	eax, 1
$LN7@LoadData:

; 242  : }

	mov	ecx, DWORD PTR __$ArrayPad$[ebp]
	xor	ecx, ebp
	call	@__security_check_cookie@4
	mov	esp, ebp
	pop	ebp
	ret	4
?LoadData@LogBookData@@QAEHPAD@Z ENDP			; LogBookData::LoadData
_TEXT	ENDS
; Function compile flags: /Odtp
; File c:\users\zhitao li\documents\visual studio 2012\projects\freefalcon\ui\src\logbook\logbook.cpp
_TEXT	SEGMENT
_type$ = -20						; size = 4
_retval$ = -16						; size = 4
_theKey$ = -12						; size = 4
_size$ = -8						; size = 4
_this$ = -4						; size = 4
?Load@LogBookData@@QAEHXZ PROC				; LogBookData::Load
; _this$ = ecx

; 40   : {

	push	ebp
	mov	ebp, esp
	sub	esp, 20					; 00000014H
	mov	DWORD PTR _this$[ebp], ecx

; 41   : #if _USE_REGISTRY_
; 42   : 	DWORD type, size;
; 43   : 	HKEY theKey;
; 44   : 	long retval;
; 45   : 
; 46   : 	if (strlen(g_strLgbk) != 0){

	push	OFFSET _g_strLgbk
	call	_strlen
	add	esp, 4
	test	eax, eax
	je	SHORT $LN4@Load

; 47   : 		sprintf(Pilot.Callsign, "%s", g_strLgbk);

	push	OFFSET _g_strLgbk
	push	OFFSET ??_C@_02DKCKIIND@?$CFs?$AA@
	mov	eax, DWORD PTR _this$[ebp]
	add	eax, 21					; 00000015H
	push	eax
	call	_sprintf
	add	esp, 12					; 0000000cH

; 48   : 	}
; 49   : 	else {

	jmp	$LN3@Load
$LN4@Load:

; 50   : 		retval = RegOpenKeyEx(HKEY_LOCAL_MACHINE, FALCON_REGISTRY_KEY,
; 51   : 			0, KEY_READ, &theKey); //Pu239

	lea	ecx, DWORD PTR _theKey$[ebp]
	push	ecx
	push	131097					; 00020019H
	push	0
	push	OFFSET ??_C@_0BP@KOIEKLOO@Software?2MicroProse?2Falcon?24?40?$AA@
	push	-2147483646				; 80000002H
	call	DWORD PTR __imp__RegOpenKeyExA@20
	mov	DWORD PTR _retval$[ebp], eax

; 52   : 		size = _NAME_LEN_;

	mov	DWORD PTR _size$[ebp], 20		; 00000014H

; 53   : 		retval = RegQueryValueEx(theKey, "PilotName", 0, &type, (LPBYTE)Pilot.Name, &size);

	lea	edx, DWORD PTR _size$[ebp]
	push	edx
	mov	eax, DWORD PTR _this$[ebp]
	push	eax
	lea	ecx, DWORD PTR _type$[ebp]
	push	ecx
	push	0
	push	OFFSET ??_C@_09DHEFBMO@PilotName?$AA@
	mov	edx, DWORD PTR _theKey$[ebp]
	push	edx
	call	DWORD PTR __imp__RegQueryValueExA@24
	mov	DWORD PTR _retval$[ebp], eax

; 54   : 		size = _CALLSIGN_LEN_;

	mov	DWORD PTR _size$[ebp], 12		; 0000000cH

; 55   : 		retval = RegQueryValueEx(theKey, "PilotCallsign", 0, &type, (LPBYTE)Pilot.Callsign, &size);

	lea	eax, DWORD PTR _size$[ebp]
	push	eax
	mov	ecx, DWORD PTR _this$[ebp]
	add	ecx, 21					; 00000015H
	push	ecx
	lea	edx, DWORD PTR _type$[ebp]
	push	edx
	push	0
	push	OFFSET ??_C@_0O@BHDLDEML@PilotCallsign?$AA@
	mov	eax, DWORD PTR _theKey$[ebp]
	push	eax
	call	DWORD PTR __imp__RegQueryValueExA@24
	mov	DWORD PTR _retval$[ebp], eax

; 56   : 		RegCloseKey(theKey);

	mov	ecx, DWORD PTR _theKey$[ebp]
	push	ecx
	call	DWORD PTR __imp__RegCloseKey@4

; 57   : 
; 58   : 		if(retval != ERROR_SUCCESS)

	cmp	DWORD PTR _retval$[ebp], 0
	je	SHORT $LN3@Load

; 59   : 		{
; 60   : 			MonoPrint(_T("Failed to get registry entries.\n"));

	push	OFFSET ??_C@_0CB@GKGGACIB@Failed?5to?5get?5registry?5entries?4?6@
	call	_MonoPrint
	add	esp, 4

; 61   : 			Initialize();

	mov	ecx, DWORD PTR _this$[ebp]
	call	?Initialize@LogBookData@@QAEXXZ		; LogBookData::Initialize

; 62   : 			return FALSE;

	xor	eax, eax
	jmp	SHORT $LN5@Load
$LN3@Load:

; 63   : 		}
; 64   : 	}
; 65   : 
; 66   : 	if( !LoadData(Callsign()) )

	mov	ecx, DWORD PTR _this$[ebp]
	call	?Callsign@LogBookData@@QAEPADXZ		; LogBookData::Callsign
	push	eax
	mov	ecx, DWORD PTR _this$[ebp]
	call	?LoadData@LogBookData@@QAEHPAD@Z	; LogBookData::LoadData
	test	eax, eax
	jne	SHORT $LN1@Load

; 67   : 	{		
; 68   : 		return FALSE;

	xor	eax, eax
	jmp	SHORT $LN5@Load
$LN1@Load:

; 69   : 	}
; 70   : 	
; 71   : #else
; 72   : 	Initialize();
; 73   : 	return FALSE;
; 74   : #endif
; 75   : 	
; 76   : 	return TRUE;

	mov	eax, 1
$LN5@Load:

; 77   : }

	mov	esp, ebp
	pop	ebp
	ret	0
?Load@LogBookData@@QAEHXZ ENDP				; LogBookData::Load
_TEXT	ENDS
; Function compile flags: /Odtp
; File c:\users\zhitao li\documents\visual studio 2012\projects\freefalcon\ui\src\logbook\logbook.cpp
_TEXT	SEGMENT
_this$ = -4						; size = 4
?Cleanup@LogBookData@@QAEXXZ PROC			; LogBookData::Cleanup
; _this$ = ecx

; 170  : {

	push	ebp
	mov	ebp, esp
	push	ecx
	mov	DWORD PTR _this$[ebp], ecx

; 171  : }

	mov	esp, ebp
	pop	ebp
	ret	0
?Cleanup@LogBookData@@QAEXXZ ENDP			; LogBookData::Cleanup
_TEXT	ENDS
; Function compile flags: /Odtp
; File c:\users\zhitao li\documents\visual studio 2012\projects\freefalcon\ui\src\logbook\logbook.cpp
_TEXT	SEGMENT
_this$ = -284						; size = 4
_systime$ = -280					; size = 16
_path$ = -264						; size = 260
__$ArrayPad$ = -4					; size = 4
?Initialize@LogBookData@@QAEXXZ PROC			; LogBookData::Initialize
; _this$ = ecx

; 86   : {

	push	ebp
	mov	ebp, esp
	sub	esp, 284				; 0000011cH
	mov	eax, DWORD PTR ___security_cookie
	xor	eax, ebp
	mov	DWORD PTR __$ArrayPad$[ebp], eax
	mov	DWORD PTR _this$[ebp], ecx

; 87   : 	char path[MAX_PATH];
; 88   : 	if(gStringMgr){

	cmp	DWORD PTR ?gStringMgr@@3PAVC_String@@A, 0 ; gStringMgr
	je	SHORT $LN5@Initialize

; 89   : 		_tcscpy(Pilot.Name,gStringMgr->GetString(TXT_JOE_PILOT));

	push	414					; 0000019eH
	mov	ecx, DWORD PTR ?gStringMgr@@3PAVC_String@@A ; gStringMgr
	call	?GetString@C_String@@QAEPADJ@Z		; C_String::GetString
	push	eax
	mov	eax, DWORD PTR _this$[ebp]
	push	eax
	call	_strcpy
	add	esp, 8

; 90   : 	}
; 91   : 	else{

	jmp	SHORT $LN4@Initialize
$LN5@Initialize:

; 92   : 		_tcscpy(Pilot.Name,_T("Joe Pilot"));

	push	OFFSET ??_C@_09KAAFLMEJ@Joe?5Pilot?$AA@
	mov	ecx, DWORD PTR _this$[ebp]
	push	ecx
	call	_strcpy
	add	esp, 8
$LN4@Initialize:

; 93   : 	}
; 94   : 	_tcscpy(Pilot.Callsign,_T("Viper"));

	push	OFFSET ??_C@_05DIOCBCKJ@Viper?$AA@
	mov	edx, DWORD PTR _this$[ebp]
	add	edx, 21					; 00000015H
	push	edx
	call	_strcpy
	add	esp, 8

; 95   : 	_tcscpy(Pilot.OptionsFile,_T("Default"));

	push	OFFSET ??_C@_07MCAEODGB@Default?$AA@
	mov	eax, DWORD PTR _this$[ebp]
	add	eax, 58					; 0000003aH
	push	eax
	call	_strcpy
	add	esp, 8

; 96   : 	_tcscpy(Pilot.Password,_T(""));

	push	OFFSET ??_C@_00CNPNBAHC@?$AA@
	mov	ecx, DWORD PTR _this$[ebp]
	add	ecx, 34					; 00000022H
	push	ecx
	call	_strcpy
	add	esp, 8

; 97   : 	EncryptPwd();

	mov	ecx, DWORD PTR _this$[ebp]
	call	?EncryptPwd@LogBookData@@AAEXXZ		; LogBookData::EncryptPwd

; 98   : 	Pilot.Rank = SEC_LT;

	mov	edx, DWORD PTR _this$[ebp]
	mov	DWORD PTR [edx+80], 0

; 99   : 	Pilot.AceFactor = 1.0f;

	mov	eax, DWORD PTR _this$[ebp]
	movss	xmm0, DWORD PTR __real@3f800000
	movss	DWORD PTR [eax+76], xmm0

; 100  : 	Pilot.FlightHours = 0.0F;

	mov	ecx, DWORD PTR _this$[ebp]
	movss	xmm0, DWORD PTR __real@00000000
	movss	DWORD PTR [ecx+72], xmm0

; 101  : 	memset(&Pilot.Campaign,0,sizeof(CAMP_STATS));

	push	40					; 00000028H
	push	0
	mov	edx, DWORD PTR _this$[ebp]
	add	edx, 100				; 00000064H
	push	edx
	call	_memset
	add	esp, 12					; 0000000cH

; 102  : 	memset(&Pilot.Dogfight,0,sizeof(DF_STATS));

	push	16					; 00000010H
	push	0
	mov	eax, DWORD PTR _this$[ebp]
	add	eax, 84					; 00000054H
	push	eax
	call	_memset
	add	esp, 12					; 0000000cH

; 103  : 	memset(Pilot.Medals,0,sizeof(uchar)*NUM_MEDALS);

	push	6
	push	0
	mov	ecx, DWORD PTR _this$[ebp]
	add	ecx, 140				; 0000008cH
	push	ecx
	call	_memset
	add	esp, 12					; 0000000cH

; 104  : 	Pilot.Picture[0] = 0;

	mov	edx, 1
	imul	edx, 0
	mov	eax, DWORD PTR _this$[ebp]
	mov	BYTE PTR [eax+edx+152], 0

; 105  : 	Pilot.PictureResource = NOFACE;

	mov	ecx, DWORD PTR _this$[ebp]
	mov	DWORD PTR [ecx+148], 60000		; 0000ea60H

; 106  : 	Pilot.Patch[0] = 0;

	mov	edx, 1
	imul	edx, 0
	mov	eax, DWORD PTR _this$[ebp]
	mov	BYTE PTR [eax+edx+192], 0

; 107  : 	Pilot.PatchResource = NOPATCH;

	mov	ecx, DWORD PTR _this$[ebp]
	mov	DWORD PTR [ecx+188], 70050		; 000111a2H

; 108  : 	Pilot.Personal[0] = 0;

	mov	edx, 1
	imul	edx, 0
	mov	eax, DWORD PTR _this$[ebp]
	mov	BYTE PTR [eax+edx+225], 0

; 109  : 	Pilot.Squadron[0] = 0;

	mov	ecx, 1
	imul	ecx, 0
	mov	edx, DWORD PTR _this$[ebp]
	mov	BYTE PTR [edx+ecx+346], 0

; 110  : 	Pilot.voice = 0;

	xor	eax, eax
	mov	ecx, DWORD PTR _this$[ebp]
	mov	WORD PTR [ecx+366], ax

; 111  : 	
; 112  : 	SYSTEMTIME systime;
; 113  : //	_TCHAR buf[COMM_LEN + 1];
; 114  : //	time_t ltime;
; 115  : //	struct tm *today;
; 116  : 
; 117  : //	time( &ltime );
; 118  : //	today = localtime( &ltime );
; 119  : //	strftime( buf, COMM_LEN, "%x", today);
; 120  : 	// german hack... no time
; 121  : 	GetSystemTime(&systime);

	lea	edx, DWORD PTR _systime$[ebp]
	push	edx
	call	DWORD PTR __imp__GetSystemTime@4

; 122  : 	if (gLangIDNum != F4LANG_ENGLISH)

	cmp	DWORD PTR ?gLangIDNum@@3HA, 1		; gLangIDNum
	je	SHORT $LN3@Initialize

; 123  : 	{
; 124  : 		_stprintf(Pilot.Commissioned,"%02d.%02d.%02d",systime.wDay,systime.wMonth,systime.wYear%100);

	movzx	eax, WORD PTR _systime$[ebp]
	cdq
	mov	ecx, 100				; 00000064H
	idiv	ecx
	push	edx
	movzx	edx, WORD PTR _systime$[ebp+2]
	push	edx
	movzx	eax, WORD PTR _systime$[ebp+6]
	push	eax
	push	OFFSET ??_C@_0P@HNKFAEAF@?$CF02d?4?$CF02d?4?$CF02d?$AA@
	mov	ecx, DWORD PTR _this$[ebp]
	add	ecx, 45					; 0000002dH
	push	ecx
	call	_sprintf
	add	esp, 20					; 00000014H

; 125  : 	}
; 126  : 	else

	jmp	SHORT $LN2@Initialize
$LN3@Initialize:

; 127  : 	{
; 128  : 		_stprintf(Pilot.Commissioned,"%02d/%02d/%02d",systime.wMonth,systime.wDay,systime.wYear%100);

	movzx	eax, WORD PTR _systime$[ebp]
	cdq
	mov	ecx, 100				; 00000064H
	idiv	ecx
	push	edx
	movzx	edx, WORD PTR _systime$[ebp+6]
	push	edx
	movzx	eax, WORD PTR _systime$[ebp+2]
	push	eax
	push	OFFSET ??_C@_0P@HHHHAIGA@?$CF02d?1?$CF02d?1?$CF02d?$AA@
	mov	ecx, DWORD PTR _this$[ebp]
	add	ecx, 45					; 0000002dH
	push	ecx
	call	_sprintf
	add	esp, 20					; 00000014H
$LN2@Initialize:

; 129  : 	}
; 130  : 	Pilot.CheckSum=0;

	mov	edx, DWORD PTR _this$[ebp]
	mov	DWORD PTR [edx+368], 0

; 131  : 	if(gCommsMgr)

	cmp	DWORD PTR ?gCommsMgr@@3PAVUIComms@@A, 0	; gCommsMgr
	je	SHORT $LN1@Initialize

; 132  : 	{
; 133  : 		sprintf(path,"%s\\config\\%s.plc",FalconDataDirectory,Pilot.Callsign);

	mov	eax, DWORD PTR _this$[ebp]
	add	eax, 21					; 00000015H
	push	eax
	push	OFFSET ?FalconDataDirectory@@3PADA	; FalconDataDirectory
	push	OFFSET ??_C@_0BB@GMHLKLCO@?$CFs?2config?2?$CFs?4plc?$AA@
	lea	ecx, DWORD PTR _path$[ebp]
	push	ecx
	call	_sprintf
	add	esp, 16					; 00000010H

; 134  : 		gCommsMgr->SetStatsFile(path);

	lea	edx, DWORD PTR _path$[ebp]
	push	edx
	mov	ecx, DWORD PTR ?gCommsMgr@@3PAVUIComms@@A ; gCommsMgr
	call	?SetStatsFile@UIComms@@QAEXPAD@Z	; UIComms::SetStatsFile
$LN1@Initialize:

; 135  : 	}
; 136  : }

	mov	ecx, DWORD PTR __$ArrayPad$[ebp]
	xor	ecx, ebp
	call	@__security_check_cookie@4
	mov	esp, ebp
	pop	ebp
	ret	0
?Initialize@LogBookData@@QAEXXZ ENDP			; LogBookData::Initialize
_TEXT	ENDS
; Function compile flags: /Odtp
; File c:\users\zhitao li\documents\visual studio 2012\projects\freefalcon\ui\src\logbook\logbook.cpp
_TEXT	SEGMENT
_this$ = -4						; size = 4
??1LogBookData@@QAE@XZ PROC				; LogBookData::~LogBookData
; _this$ = ecx

; 80   : {

	push	ebp
	mov	ebp, esp
	push	ecx
	mov	DWORD PTR _this$[ebp], ecx

; 81   : 	Cleanup();

	mov	ecx, DWORD PTR _this$[ebp]
	call	?Cleanup@LogBookData@@QAEXXZ		; LogBookData::Cleanup

; 82   : }

	mov	esp, ebp
	pop	ebp
	ret	0
??1LogBookData@@QAE@XZ ENDP				; LogBookData::~LogBookData
_TEXT	ENDS
; Function compile flags: /Odtp
; File c:\users\zhitao li\documents\visual studio 2012\projects\freefalcon\ui\src\logbook\logbook.cpp
_TEXT	SEGMENT
_this$ = -4						; size = 4
??0LogBookData@@QAE@XZ PROC				; LogBookData::LogBookData
; _this$ = ecx

; 33   : {

	push	ebp
	mov	ebp, esp
	push	ecx
	mov	DWORD PTR _this$[ebp], ecx

; 34   : 	Initialize();

	mov	ecx, DWORD PTR _this$[ebp]
	call	?Initialize@LogBookData@@QAEXXZ		; LogBookData::Initialize

; 35   : }

	mov	eax, DWORD PTR _this$[ebp]
	mov	esp, ebp
	pop	ebp
	ret	0
??0LogBookData@@QAE@XZ ENDP				; LogBookData::LogBookData
_TEXT	ENDS
; Function compile flags: /Odtp
; File c:\users\zhitao li\documents\visual studio 2012\projects\freefalcon\ui\src\logbook\logbook.cpp
_TEXT	SEGMENT
_this$ = -8						; size = 4
tv90 = -4						; size = 4
?CampaignDifficulty@LogBookData@@AAEMXZ PROC		; LogBookData::CampaignDifficulty
; _this$ = ecx

; 649  : {

	push	ebp
	mov	ebp, esp
	sub	esp, 8
	mov	DWORD PTR _this$[ebp], ecx

; 650  : 	return (	(13.0F - TheCampaign.GroundRatio - TheCampaign.AirRatio -
; 651  : 						TheCampaign.AirDefenseRatio - TheCampaign.NavalRatio/4.0F)/39.0F  +
; 652  : 						(TheCampaign.EnemyAirExp + TheCampaign.EnemyADExp)/12.0F)*5.0F + 15.0F;

	movsx	eax, WORD PTR ?TheCampaign@@3VCampaignClass@@A+74
	cvtsi2ss xmm0, eax
	movss	xmm1, DWORD PTR __real@41500000
	subss	xmm1, xmm0
	movsx	ecx, WORD PTR ?TheCampaign@@3VCampaignClass@@A+76
	cvtsi2ss xmm0, ecx
	subss	xmm1, xmm0
	movsx	edx, WORD PTR ?TheCampaign@@3VCampaignClass@@A+78
	cvtsi2ss xmm0, edx
	subss	xmm1, xmm0
	movsx	eax, WORD PTR ?TheCampaign@@3VCampaignClass@@A+80
	cvtsi2ss xmm0, eax
	divss	xmm0, DWORD PTR __real@40800000
	subss	xmm1, xmm0
	divss	xmm1, DWORD PTR __real@421c0000
	movzx	ecx, BYTE PTR ?TheCampaign@@3VCampaignClass@@A+95
	movzx	edx, BYTE PTR ?TheCampaign@@3VCampaignClass@@A+96
	add	ecx, edx
	cvtsi2ss xmm0, ecx
	divss	xmm0, DWORD PTR __real@41400000
	addss	xmm1, xmm0
	mulss	xmm1, DWORD PTR __real@40a00000
	addss	xmm1, DWORD PTR __real@41700000
	movss	DWORD PTR tv90[ebp], xmm1
	fld	DWORD PTR tv90[ebp]

; 653  : }

	mov	esp, ebp
	pop	ebp
	ret	0
?CampaignDifficulty@LogBookData@@AAEMXZ ENDP		; LogBookData::CampaignDifficulty
_TEXT	ENDS
; Function compile flags: /Odtp
; File c:\users\zhitao li\documents\visual studio 2012\projects\freefalcon\ui\src\logbook\logbook.cpp
_TEXT	SEGMENT
_this$ = -24						; size = 4
tv139 = -20						; size = 4
_AircrftInPkg$ = -16					; size = 4
_ShotsAt$ = -12						; size = 4
_WeapExpended$ = -8					; size = 4
_Duration$ = -4						; size = 4
_MissStats$ = 8						; size = 4
?MissionComplexity@LogBookData@@AAEMPAUCAMP_MISS_STRUCT@@@Z PROC ; LogBookData::MissionComplexity
; _this$ = ecx

; 618  : {

	push	ebp
	mov	ebp, esp
	sub	esp, 24					; 00000018H
	mov	DWORD PTR _this$[ebp], ecx

; 619  : 	float Duration;
; 620  : 	float WeapExpended,ShotsAt,AircrftInPkg;
; 621  : 
; 622  : 	//determine mission complexity
; 623  : 	if(MissStats->FlightHours > 1.5f)

	mov	eax, DWORD PTR _MissStats$[ebp]
	movss	xmm0, DWORD PTR [eax+4]
	comiss	xmm0, DWORD PTR __real@3fc00000
	jbe	SHORT $LN8@MissionCom

; 624  : 		Duration = 1.5f;

	movss	xmm0, DWORD PTR __real@3fc00000
	movss	DWORD PTR _Duration$[ebp], xmm0

; 625  : 	else

	jmp	SHORT $LN7@MissionCom
$LN8@MissionCom:

; 626  : 		Duration = MissStats->FlightHours;

	mov	ecx, DWORD PTR _MissStats$[ebp]
	movss	xmm0, DWORD PTR [ecx+4]
	movss	DWORD PTR _Duration$[ebp], xmm0
$LN7@MissionCom:

; 627  : 
; 628  : 	if(MissStats->WeaponsExpended > 6)

	mov	edx, DWORD PTR _MissStats$[ebp]
	cmp	DWORD PTR [edx+8], 6
	jle	SHORT $LN6@MissionCom

; 629  : 		WeapExpended = 6;

	movss	xmm0, DWORD PTR __real@40c00000
	movss	DWORD PTR _WeapExpended$[ebp], xmm0

; 630  : 	else

	jmp	SHORT $LN5@MissionCom
$LN6@MissionCom:

; 631  : 		WeapExpended = static_cast<float>(MissStats->WeaponsExpended);

	mov	eax, DWORD PTR _MissStats$[ebp]
	cvtsi2ss xmm0, DWORD PTR [eax+8]
	movss	DWORD PTR _WeapExpended$[ebp], xmm0
$LN5@MissionCom:

; 632  : 
; 633  : 	if(MissStats->ShotsAtPlayer > 10)

	mov	ecx, DWORD PTR _MissStats$[ebp]
	cmp	DWORD PTR [ecx+12], 10			; 0000000aH
	jle	SHORT $LN4@MissionCom

; 634  : 		ShotsAt = 10;

	movss	xmm0, DWORD PTR __real@41200000
	movss	DWORD PTR _ShotsAt$[ebp], xmm0

; 635  : 	else

	jmp	SHORT $LN3@MissionCom
$LN4@MissionCom:

; 636  : 		ShotsAt = static_cast<float>(MissStats->ShotsAtPlayer);

	mov	edx, DWORD PTR _MissStats$[ebp]
	cvtsi2ss xmm0, DWORD PTR [edx+12]
	movss	DWORD PTR _ShotsAt$[ebp], xmm0
$LN3@MissionCom:

; 637  : 
; 638  : 	if(MissStats->AircraftInPackage > 8)

	mov	eax, DWORD PTR _MissStats$[ebp]
	cmp	DWORD PTR [eax+16], 8
	jle	SHORT $LN2@MissionCom

; 639  : 		AircrftInPkg = 8;

	movss	xmm0, DWORD PTR __real@41000000
	movss	DWORD PTR _AircrftInPkg$[ebp], xmm0

; 640  : 	else

	jmp	SHORT $LN1@MissionCom
$LN2@MissionCom:

; 641  : 		AircrftInPkg = static_cast<float>(MissStats->AircraftInPackage);

	mov	ecx, DWORD PTR _MissStats$[ebp]
	cvtsi2ss xmm0, DWORD PTR [ecx+16]
	movss	DWORD PTR _AircrftInPkg$[ebp], xmm0
$LN1@MissionCom:

; 642  : 
; 643  : 	
; 644  : 	return (Duration/3.0F + WeapExpended/6.0F + ShotsAt/10.0F + AircrftInPkg/16.0F + 3.0F);

	movss	xmm0, DWORD PTR _Duration$[ebp]
	divss	xmm0, DWORD PTR __real@40400000
	movss	xmm1, DWORD PTR _WeapExpended$[ebp]
	divss	xmm1, DWORD PTR __real@40c00000
	addss	xmm0, xmm1
	movss	xmm1, DWORD PTR _ShotsAt$[ebp]
	divss	xmm1, DWORD PTR __real@41200000
	addss	xmm0, xmm1
	movss	xmm1, DWORD PTR _AircrftInPkg$[ebp]
	divss	xmm1, DWORD PTR __real@41800000
	addss	xmm0, xmm1
	addss	xmm0, DWORD PTR __real@40400000
	movss	DWORD PTR tv139[ebp], xmm0
	fld	DWORD PTR tv139[ebp]

; 645  : }

	mov	esp, ebp
	pop	ebp
	ret	4
?MissionComplexity@LogBookData@@AAEMPAUCAMP_MISS_STRUCT@@@Z ENDP ; LogBookData::MissionComplexity
_TEXT	ENDS
; Function compile flags: /Odtp
; File c:\users\zhitao li\documents\visual studio 2012\projects\freefalcon\ui\src\logbook\logbook.cpp
_TEXT	SEGMENT
tv330 = -32						; size = 4
tv393 = -28						; size = 4
tv324 = -24						; size = 4
tv391 = -20						; size = 4
tv94 = -16						; size = 4
tv87 = -12						; size = 4
_MedalPts$1 = -8					; size = 4
_this$ = -4						; size = 4
_MissStats$ = 8						; size = 4
?AwardMedals@LogBookData@@AAEXPAUCAMP_MISS_STRUCT@@@Z PROC ; LogBookData::AwardMedals
; _this$ = ecx

; 656  : {

	push	ebp
	mov	ebp, esp
	sub	esp, 32					; 00000020H
	mov	DWORD PTR _this$[ebp], ecx

; 657  : 	if(MissStats->Score >= 3)

	mov	eax, DWORD PTR _MissStats$[ebp]
	cmp	DWORD PTR [eax+20], 3
	jl	$LN6@AwardMedal

; 658  : 	{
; 659  : 		int MedalPts =0;

	mov	DWORD PTR _MedalPts$1[ebp], 0

; 660  : 
; 661  : 		if(MissStats->Flags & DESTROYED_PRIMARY)

	mov	ecx, DWORD PTR _MissStats$[ebp]
	movzx	edx, WORD PTR [ecx]
	and	edx, 1
	je	SHORT $LN15@AwardMedal

; 662  : 			MedalPts+= 2;

	mov	eax, DWORD PTR _MedalPts$1[ebp]
	add	eax, 2
	mov	DWORD PTR _MedalPts$1[ebp], eax
$LN15@AwardMedal:

; 663  : 
; 664  : 		if(MissStats->Flags & LANDED_AIRCRAFT)

	mov	ecx, DWORD PTR _MissStats$[ebp]
	movzx	edx, WORD PTR [ecx]
	and	edx, 2
	je	SHORT $LN14@AwardMedal

; 665  : 			MedalPts++;

	mov	eax, DWORD PTR _MedalPts$1[ebp]
	add	eax, 1
	mov	DWORD PTR _MedalPts$1[ebp], eax
$LN14@AwardMedal:

; 666  : 
; 667  : 		if(!MissStats->WingmenLost)

	mov	ecx, DWORD PTR _MissStats$[ebp]
	cmp	DWORD PTR [ecx+60], 0
	jne	SHORT $LN13@AwardMedal

; 668  : 			MedalPts++;

	mov	edx, DWORD PTR _MedalPts$1[ebp]
	add	edx, 1
	mov	DWORD PTR _MedalPts$1[ebp], edx
$LN13@AwardMedal:

; 669  : 		
; 670  : 		MedalPts +=	MissStats->NavalUnitsKilled + MissStats->Kills + 
; 671  : 						min(10,MissStats->FeaturesDestroyed/2) + min(10,MissStats->GroundUnitsKilled/2);

	mov	eax, DWORD PTR _MissStats$[ebp]
	mov	eax, DWORD PTR [eax+48]
	cdq
	sub	eax, edx
	sar	eax, 1
	cmp	eax, 10					; 0000000aH
	jle	SHORT $LN19@AwardMedal
	mov	DWORD PTR tv87[ebp], 10			; 0000000aH
	jmp	SHORT $LN20@AwardMedal
$LN19@AwardMedal:
	mov	ecx, DWORD PTR _MissStats$[ebp]
	mov	eax, DWORD PTR [ecx+48]
	cdq
	sub	eax, edx
	sar	eax, 1
	mov	DWORD PTR tv87[ebp], eax
$LN20@AwardMedal:
	mov	edx, DWORD PTR _MissStats$[ebp]
	mov	eax, DWORD PTR [edx+44]
	cdq
	sub	eax, edx
	sar	eax, 1
	cmp	eax, 10					; 0000000aH
	jle	SHORT $LN21@AwardMedal
	mov	DWORD PTR tv94[ebp], 10			; 0000000aH
	jmp	SHORT $LN22@AwardMedal
$LN21@AwardMedal:
	mov	eax, DWORD PTR _MissStats$[ebp]
	mov	eax, DWORD PTR [eax+44]
	cdq
	sub	eax, edx
	sar	eax, 1
	mov	DWORD PTR tv94[ebp], eax
$LN22@AwardMedal:
	mov	ecx, DWORD PTR _MissStats$[ebp]
	mov	edx, DWORD PTR [ecx+52]
	mov	eax, DWORD PTR _MissStats$[ebp]
	add	edx, DWORD PTR [eax+24]
	add	edx, DWORD PTR tv87[ebp]
	add	edx, DWORD PTR tv94[ebp]
	add	edx, DWORD PTR _MedalPts$1[ebp]
	mov	DWORD PTR _MedalPts$1[ebp], edx

; 672  : 
; 673  : 		MedalPts = FloatToInt32(PlayerOptions.Realism * MedalPts * CampaignDifficulty() * MissStats->Score * MissionComplexity(MissStats));

	cvtsi2ss xmm0, DWORD PTR _MedalPts$1[ebp]
	mulss	xmm0, DWORD PTR ?PlayerOptions@@3VPlayerOptionsClass@@A+160
	mov	ecx, DWORD PTR _this$[ebp]
	movss	DWORD PTR tv391[ebp], xmm0
	call	?CampaignDifficulty@LogBookData@@AAEMXZ	; LogBookData::CampaignDifficulty
	fstp	DWORD PTR tv324[ebp]
	movss	xmm0, DWORD PTR tv391[ebp]
	mulss	xmm0, DWORD PTR tv324[ebp]
	mov	ecx, DWORD PTR _MissStats$[ebp]
	cvtsi2ss xmm1, DWORD PTR [ecx+20]
	mulss	xmm0, xmm1
	mov	edx, DWORD PTR _MissStats$[ebp]
	push	edx
	mov	ecx, DWORD PTR _this$[ebp]
	movss	DWORD PTR tv393[ebp], xmm0
	call	?MissionComplexity@LogBookData@@AAEMPAUCAMP_MISS_STRUCT@@@Z ; LogBookData::MissionComplexity
	fstp	DWORD PTR tv330[ebp]
	movss	xmm0, DWORD PTR tv393[ebp]
	mulss	xmm0, DWORD PTR tv330[ebp]
	push	ecx
	movss	DWORD PTR [esp], xmm0
	call	?FloatToInt32@@YAHM@Z			; FloatToInt32
	add	esp, 4
	mov	DWORD PTR _MedalPts$1[ebp], eax

; 674  : 
; 675  : 		if( (MedalPts > 9600) && (PlayerOptions.Realism > 0.9f) && MissStats->Score >= 4 )

	cmp	DWORD PTR _MedalPts$1[ebp], 9600	; 00002580H
	jle	SHORT $LN12@AwardMedal
	movss	xmm0, DWORD PTR ?PlayerOptions@@3VPlayerOptionsClass@@A+160
	comiss	xmm0, DWORD PTR __real@3f666666
	jbe	SHORT $LN12@AwardMedal
	mov	eax, DWORD PTR _MissStats$[ebp]
	cmp	DWORD PTR [eax+20], 4
	jl	SHORT $LN12@AwardMedal

; 676  : 		{
; 677  : 			MissionResult |= AWARD_MEDAL|MDL_AFCROSS;

	mov	ecx, DWORD PTR ?MissionResult@@3HA	; MissionResult
	or	ecx, 3
	mov	DWORD PTR ?MissionResult@@3HA, ecx	; MissionResult

; 678  : 			Pilot.Medals[AIR_FORCE_CROSS]++;

	mov	edx, 1
	imul	edx, 0
	mov	eax, DWORD PTR _this$[ebp]
	mov	cl, BYTE PTR [eax+edx+140]
	add	cl, 1
	mov	edx, 1
	imul	edx, 0
	mov	eax, DWORD PTR _this$[ebp]
	mov	BYTE PTR [eax+edx+140], cl

; 679  : 			Pilot.Campaign.TotalScore += 20;

	mov	ecx, DWORD PTR _this$[ebp]
	mov	edx, DWORD PTR [ecx+108]
	add	edx, 20					; 00000014H
	mov	eax, DWORD PTR _this$[ebp]
	mov	DWORD PTR [eax+108], edx
	jmp	$LN6@AwardMedal
$LN12@AwardMedal:

; 680  : 		}
; 681  : 		else if( (MedalPts > 7800) && (PlayerOptions.Realism > 0.7f))

	cmp	DWORD PTR _MedalPts$1[ebp], 7800	; 00001e78H
	jle	SHORT $LN10@AwardMedal
	movss	xmm0, DWORD PTR ?PlayerOptions@@3VPlayerOptionsClass@@A+160
	comiss	xmm0, DWORD PTR __real@3f333333
	jbe	SHORT $LN10@AwardMedal

; 682  : 		{
; 683  : 			MissionResult |= AWARD_MEDAL|MDL_SILVERSTAR;

	mov	ecx, DWORD PTR ?MissionResult@@3HA	; MissionResult
	or	ecx, 5
	mov	DWORD PTR ?MissionResult@@3HA, ecx	; MissionResult

; 684  : 			Pilot.Medals[SILVER_STAR]++;

	mov	edx, 1
	shl	edx, 0
	mov	eax, DWORD PTR _this$[ebp]
	mov	cl, BYTE PTR [eax+edx+140]
	add	cl, 1
	mov	edx, 1
	shl	edx, 0
	mov	eax, DWORD PTR _this$[ebp]
	mov	BYTE PTR [eax+edx+140], cl

; 685  : 			Pilot.Campaign.TotalScore += 15;

	mov	ecx, DWORD PTR _this$[ebp]
	mov	edx, DWORD PTR [ecx+108]
	add	edx, 15					; 0000000fH
	mov	eax, DWORD PTR _this$[ebp]
	mov	DWORD PTR [eax+108], edx
	jmp	$LN6@AwardMedal
$LN10@AwardMedal:

; 686  : 		}
; 687  : 		else if(MedalPts > 6000 && (PlayerOptions.Realism > 0.5f))

	cmp	DWORD PTR _MedalPts$1[ebp], 6000	; 00001770H
	jle	SHORT $LN8@AwardMedal
	movss	xmm0, DWORD PTR ?PlayerOptions@@3VPlayerOptionsClass@@A+160
	comiss	xmm0, DWORD PTR __real@3f000000
	jbe	SHORT $LN8@AwardMedal

; 688  : 		{
; 689  : 			MissionResult |= AWARD_MEDAL|MDL_DIST_FLY;

	mov	ecx, DWORD PTR ?MissionResult@@3HA	; MissionResult
	or	ecx, 9
	mov	DWORD PTR ?MissionResult@@3HA, ecx	; MissionResult

; 690  : 			Pilot.Medals[DIST_FLY_CROSS]++;

	mov	edx, 1
	shl	edx, 1
	mov	eax, DWORD PTR _this$[ebp]
	mov	cl, BYTE PTR [eax+edx+140]
	add	cl, 1
	mov	edx, 1
	shl	edx, 1
	mov	eax, DWORD PTR _this$[ebp]
	mov	BYTE PTR [eax+edx+140], cl

; 691  : 			Pilot.Campaign.TotalScore += 10;

	mov	ecx, DWORD PTR _this$[ebp]
	mov	edx, DWORD PTR [ecx+108]
	add	edx, 10					; 0000000aH
	mov	eax, DWORD PTR _this$[ebp]
	mov	DWORD PTR [eax+108], edx
	jmp	SHORT $LN6@AwardMedal
$LN8@AwardMedal:

; 692  : 		}
; 693  : 		else if(MedalPts > 4800)

	cmp	DWORD PTR _MedalPts$1[ebp], 4800	; 000012c0H
	jle	SHORT $LN6@AwardMedal

; 694  : 		{
; 695  : 			MissionResult |= AWARD_MEDAL|MDL_AIR_MDL;

	mov	ecx, DWORD PTR ?MissionResult@@3HA	; MissionResult
	or	ecx, 17					; 00000011H
	mov	DWORD PTR ?MissionResult@@3HA, ecx	; MissionResult

; 696  : 			Pilot.Medals[AIR_MEDAL]++;

	mov	edx, 1
	imul	edx, 3
	mov	eax, DWORD PTR _this$[ebp]
	mov	cl, BYTE PTR [eax+edx+140]
	add	cl, 1
	mov	edx, 1
	imul	edx, 3
	mov	eax, DWORD PTR _this$[ebp]
	mov	BYTE PTR [eax+edx+140], cl

; 697  : 			Pilot.Campaign.TotalScore += 5;

	mov	ecx, DWORD PTR _this$[ebp]
	mov	edx, DWORD PTR [ecx+108]
	add	edx, 5
	mov	eax, DWORD PTR _this$[ebp]
	mov	DWORD PTR [eax+108], edx
$LN6@AwardMedal:

; 698  : 		}
; 699  : }
; 700  : 
; 701  : 
; 702  : 	if(MissStats->Killed || MissStats->KilledByHuman || MissStats->KilledBySelf)

	mov	ecx, DWORD PTR _MissStats$[ebp]
	cmp	DWORD PTR [ecx+32], 0
	jne	SHORT $LN4@AwardMedal
	mov	edx, DWORD PTR _MissStats$[ebp]
	cmp	DWORD PTR [edx+36], 0
	jne	SHORT $LN4@AwardMedal
	mov	eax, DWORD PTR _MissStats$[ebp]
	cmp	DWORD PTR [eax+40], 0
	je	SHORT $LN5@AwardMedal
$LN4@AwardMedal:

; 703  : 	{
; 704  : 		Pilot.Campaign.ConsecMissions = 0;

	xor	ecx, ecx
	mov	edx, DWORD PTR _this$[ebp]
	mov	WORD PTR [edx+116], cx

; 705  : 	}
; 706  : 	else

	jmp	SHORT $LN2@AwardMedal
$LN5@AwardMedal:

; 707  : 	{
; 708  : 		if(!PlayerOptions.InvulnerableOn())

	mov	ecx, OFFSET ?PlayerOptions@@3VPlayerOptionsClass@@A ; PlayerOptions
	call	?InvulnerableOn@PlayerOptionsClass@@QAEHXZ ; PlayerOptionsClass::InvulnerableOn
	test	eax, eax
	jne	SHORT $LN2@AwardMedal

; 709  : 			Pilot.Campaign.ConsecMissions++;

	mov	eax, DWORD PTR _this$[ebp]
	mov	cx, WORD PTR [eax+116]
	add	cx, 1
	mov	edx, DWORD PTR _this$[ebp]
	mov	WORD PTR [edx+116], cx
$LN2@AwardMedal:

; 710  : 	}
; 711  : 
; 712  : 	if(Pilot.Campaign.ConsecMissions >= 100)

	mov	eax, DWORD PTR _this$[ebp]
	movsx	ecx, WORD PTR [eax+116]
	cmp	ecx, 100				; 00000064H
	jl	SHORT $LN1@AwardMedal

; 713  : 	{
; 714  : 		MissionResult |= AWARD_MEDAL|MDL_LONGEVITY;

	mov	edx, DWORD PTR ?MissionResult@@3HA	; MissionResult
	or	edx, 65					; 00000041H
	mov	DWORD PTR ?MissionResult@@3HA, edx	; MissionResult

; 715  : 		Pilot.Campaign.ConsecMissions = 0;

	xor	eax, eax
	mov	ecx, DWORD PTR _this$[ebp]
	mov	WORD PTR [ecx+116], ax

; 716  : 		Pilot.Medals[LONGEVITY]++;

	mov	edx, 1
	imul	edx, 5
	mov	eax, DWORD PTR _this$[ebp]
	mov	cl, BYTE PTR [eax+edx+140]
	add	cl, 1
	mov	edx, 1
	imul	edx, 5
	mov	eax, DWORD PTR _this$[ebp]
	mov	BYTE PTR [eax+edx+140], cl
$LN1@AwardMedal:

; 717  : 	}
; 718  : }

	mov	esp, ebp
	pop	ebp
	ret	4
?AwardMedals@LogBookData@@AAEXPAUCAMP_MISS_STRUCT@@@Z ENDP ; LogBookData::AwardMedals
_TEXT	ENDS
; Function compile flags: /Odtp
; File c:\users\zhitao li\documents\visual studio 2012\projects\freefalcon\ui\src\logbook\logbook.cpp
_TEXT	SEGMENT
_NewRank$ = -8						; size = 4
_this$ = -4						; size = 4
?CalcRank@LogBookData@@AAEXXZ PROC			; LogBookData::CalcRank
; _this$ = ecx

; 579  : {

	push	ebp
	mov	ebp, esp
	sub	esp, 8
	mov	DWORD PTR _this$[ebp], ecx

; 580  : 	LB_RANK NewRank = SEC_LT;

	mov	DWORD PTR _NewRank$[ebp], 0

; 581  : 
; 582  : 	if((Pilot.Campaign.TotalScore > 3200) && Pilot.Campaign.GamesWon)

	mov	eax, DWORD PTR _this$[ebp]
	cmp	DWORD PTR [eax+108], 3200		; 00000c80H
	jle	SHORT $LN13@CalcRank
	mov	ecx, DWORD PTR _this$[ebp]
	movsx	edx, WORD PTR [ecx+100]
	test	edx, edx
	je	SHORT $LN13@CalcRank

; 583  : 	{
; 584  : 		NewRank = COLONEL;

	mov	DWORD PTR _NewRank$[ebp], 5

; 585  : 	}
; 586  : 	else if( (Pilot.Campaign.TotalScore > 1600) &&	\

	jmp	$LN12@CalcRank
$LN13@CalcRank:

; 587  : 				( Pilot.Campaign.GamesWon|| Pilot.Campaign.GamesTied) )

	mov	eax, DWORD PTR _this$[ebp]
	cmp	DWORD PTR [eax+108], 1600		; 00000640H
	jle	SHORT $LN11@CalcRank
	mov	ecx, DWORD PTR _this$[ebp]
	movsx	edx, WORD PTR [ecx+100]
	test	edx, edx
	jne	SHORT $LN10@CalcRank
	mov	eax, DWORD PTR _this$[ebp]
	movsx	ecx, WORD PTR [eax+104]
	test	ecx, ecx
	je	SHORT $LN11@CalcRank
$LN10@CalcRank:

; 588  : 	{
; 589  : 		NewRank = LT_COL;

	mov	DWORD PTR _NewRank$[ebp], 4

; 590  : 	}
; 591  : 	else if( (Pilot.Campaign.TotalScore > 800) &&	\

	jmp	SHORT $LN12@CalcRank
$LN11@CalcRank:

; 592  : 				( Pilot.Campaign.GamesWon|| Pilot.Campaign.GamesTied || Pilot.Campaign.GamesLost) )

	mov	edx, DWORD PTR _this$[ebp]
	cmp	DWORD PTR [edx+108], 800		; 00000320H
	jle	SHORT $LN8@CalcRank
	mov	eax, DWORD PTR _this$[ebp]
	movsx	ecx, WORD PTR [eax+100]
	test	ecx, ecx
	jne	SHORT $LN7@CalcRank
	mov	edx, DWORD PTR _this$[ebp]
	movsx	eax, WORD PTR [edx+104]
	test	eax, eax
	jne	SHORT $LN7@CalcRank
	mov	ecx, DWORD PTR _this$[ebp]
	movsx	edx, WORD PTR [ecx+102]
	test	edx, edx
	je	SHORT $LN8@CalcRank
$LN7@CalcRank:

; 593  : 	{
; 594  : 		NewRank = MAJOR;

	mov	DWORD PTR _NewRank$[ebp], 3
	jmp	SHORT $LN12@CalcRank
$LN8@CalcRank:

; 595  : 	}
; 596  : 	else if(Pilot.Campaign.TotalScore > 300)

	mov	eax, DWORD PTR _this$[ebp]
	cmp	DWORD PTR [eax+108], 300		; 0000012cH
	jle	SHORT $LN5@CalcRank

; 597  : 	{
; 598  : 		NewRank = CAPTAIN;

	mov	DWORD PTR _NewRank$[ebp], 2
	jmp	SHORT $LN12@CalcRank
$LN5@CalcRank:

; 599  : 	}
; 600  : 	else if(Pilot.Campaign.TotalScore > 150)

	mov	ecx, DWORD PTR _this$[ebp]
	cmp	DWORD PTR [ecx+108], 150		; 00000096H
	jle	SHORT $LN3@CalcRank

; 601  : 	{
; 602  : 		NewRank = LEIUTENANT;

	mov	DWORD PTR _NewRank$[ebp], 1

; 603  : 	}
; 604  : 	else 

	jmp	SHORT $LN12@CalcRank
$LN3@CalcRank:

; 605  : 	{
; 606  : 		NewRank = SEC_LT;

	mov	DWORD PTR _NewRank$[ebp], 0
$LN12@CalcRank:

; 607  : 	}
; 608  : 
; 609  : 	if(NewRank > Pilot.Rank )

	mov	edx, DWORD PTR _this$[ebp]
	mov	eax, DWORD PTR _NewRank$[ebp]
	cmp	eax, DWORD PTR [edx+80]
	jle	SHORT $LN14@CalcRank

; 610  : 	{
; 611  : 		MissionResult |= PROMOTION;

	mov	ecx, DWORD PTR ?MissionResult@@3HA	; MissionResult
	or	ecx, 8192				; 00002000H
	mov	DWORD PTR ?MissionResult@@3HA, ecx	; MissionResult

; 612  : 		Pilot.Rank = NewRank;

	mov	edx, DWORD PTR _this$[ebp]
	mov	eax, DWORD PTR _NewRank$[ebp]
	mov	DWORD PTR [edx+80], eax
$LN14@CalcRank:

; 613  : 	}
; 614  : }

	mov	esp, ebp
	pop	ebp
	ret	0
?CalcRank@LogBookData@@AAEXXZ ENDP			; LogBookData::CalcRank
_TEXT	ENDS
; Function compile flags: /Odtp
; File c:\users\zhitao li\documents\visual studio 2012\projects\freefalcon\ui\src\logbook\logbook.cpp
_TEXT	SEGMENT
_this$ = -12						; size = 4
_i$ = -8						; size = 4
_ptr$ = -4						; size = 4
?EncryptPwd@LogBookData@@AAEXXZ PROC			; LogBookData::EncryptPwd
; _this$ = ecx

; 357  : {

	push	ebp
	mov	ebp, esp
	sub	esp, 12					; 0000000cH
	mov	DWORD PTR _this$[ebp], ecx

; 358  : 	int i;
; 359  : 	char *ptr;
; 360  : 
; 361  : 	ptr=(char *)Pilot.Password;

	mov	eax, DWORD PTR _this$[ebp]
	add	eax, 34					; 00000022H
	mov	DWORD PTR _ptr$[ebp], eax

; 362  : 
; 363  : 	for(i=0;i<PASSWORD_LEN;i++)

	mov	DWORD PTR _i$[ebp], 0
	jmp	SHORT $LN3@EncryptPwd
$LN2@EncryptPwd:
	mov	ecx, DWORD PTR _i$[ebp]
	add	ecx, 1
	mov	DWORD PTR _i$[ebp], ecx
$LN3@EncryptPwd:
	cmp	DWORD PTR _i$[ebp], 10			; 0000000aH
	jge	SHORT $LN4@EncryptPwd

; 364  : 	{
; 365  : 		*ptr ^= PwdMask[i % strlen(PwdMask)];

	push	OFFSET _PwdMask
	call	_strlen
	add	esp, 4
	mov	ecx, eax
	mov	eax, DWORD PTR _i$[ebp]
	xor	edx, edx
	div	ecx
	movsx	edx, BYTE PTR _PwdMask[edx]
	mov	eax, DWORD PTR _ptr$[ebp]
	movsx	ecx, BYTE PTR [eax]
	xor	ecx, edx
	mov	edx, DWORD PTR _ptr$[ebp]
	mov	BYTE PTR [edx], cl

; 366  : 		*ptr ^= PwdMask2[i % strlen(PwdMask2)];

	push	OFFSET _PwdMask2
	call	_strlen
	add	esp, 4
	mov	ecx, eax
	mov	eax, DWORD PTR _i$[ebp]
	xor	edx, edx
	div	ecx
	movsx	edx, BYTE PTR _PwdMask2[edx]
	mov	eax, DWORD PTR _ptr$[ebp]
	movsx	ecx, BYTE PTR [eax]
	xor	ecx, edx
	mov	edx, DWORD PTR _ptr$[ebp]
	mov	BYTE PTR [edx], cl

; 367  : 		ptr++;

	mov	eax, DWORD PTR _ptr$[ebp]
	add	eax, 1
	mov	DWORD PTR _ptr$[ebp], eax

; 368  : 	}

	jmp	SHORT $LN2@EncryptPwd
$LN4@EncryptPwd:

; 369  : }

	mov	esp, ebp
	pop	ebp
	ret	0
?EncryptPwd@LogBookData@@AAEXXZ ENDP			; LogBookData::EncryptPwd
_TEXT	ENDS
; Function compile flags: /Odtp
; File c:\program files (x86)\microsoft visual studio 11.0\vc\include\tchar.h
;	COMDAT __tcscmp
_TEXT	SEGMENT
__s1$ = 8						; size = 4
__s2$ = 12						; size = 4
__tcscmp PROC						; COMDAT

; 1651 : _Check_return_ __inline int _tcscmp(_In_ _CPC _s1,_In_ _CPC _s2) {return _mbscmp((_CPUC)_s1,(_CPUC)_s2);}

	push	ebp
	mov	ebp, esp
	mov	eax, DWORD PTR __s2$[ebp]
	push	eax
	mov	ecx, DWORD PTR __s1$[ebp]
	push	ecx
	call	__mbscmp
	add	esp, 8
	pop	ebp
	ret	0
__tcscmp ENDP
_TEXT	ENDS
; Function compile flags: /Odtp
; File c:\users\zhitao li\documents\visual studio 2012\projects\freefalcon\vu2\include\vu_templates.h
;	COMDAT ?get@?$VuBin@VVuSessionEntity@@@@QBEPAVVuSessionEntity@@XZ
_TEXT	SEGMENT
_this$ = -4						; size = 4
?get@?$VuBin@VVuSessionEntity@@@@QBEPAVVuSessionEntity@@XZ PROC ; VuBin<VuSessionEntity>::get, COMDAT
; _this$ = ecx

; 55   : 	E *get() const{

	push	ebp
	mov	ebp, esp
	push	ecx
	mov	DWORD PTR _this$[ebp], ecx

; 56   : 		return e;

	mov	eax, DWORD PTR _this$[ebp]
	mov	eax, DWORD PTR [eax]

; 57   : 	}

	mov	esp, ebp
	pop	ebp
	ret	0
?get@?$VuBin@VVuSessionEntity@@@@QBEPAVVuSessionEntity@@XZ ENDP ; VuBin<VuSessionEntity>::get
_TEXT	ENDS
; Function compile flags: /Odtp
; File c:\program files (x86)\microsoft visual studio 11.0\vc\include\xstring
;	COMDAT ?_Xran@?$basic_string@DU?$char_traits@D@std@@V?$allocator@D@2@@std@@QBEXXZ
_TEXT	SEGMENT
_this$ = -4						; size = 4
?_Xran@?$basic_string@DU?$char_traits@D@std@@V?$allocator@D@2@@std@@QBEXXZ PROC ; std::basic_string<char,std::char_traits<char>,std::allocator<char> >::_Xran, COMDAT
; _this$ = ecx

; 2275 : 		{	// report an out_of_range error

	push	ebp
	mov	ebp, esp
	push	ecx
	mov	DWORD PTR _this$[ebp], ecx

; 2276 : 		_Xout_of_range("invalid string position");

	push	OFFSET ??_C@_0BI@CFPLBAOH@invalid?5string?5position?$AA@
	call	?_Xout_of_range@std@@YAXPBD@Z		; std::_Xout_of_range
$LN2@Xran:

; 2277 : 		}

	mov	esp, ebp
	pop	ebp
	ret	0
?_Xran@?$basic_string@DU?$char_traits@D@std@@V?$allocator@D@2@@std@@QBEXXZ ENDP ; std::basic_string<char,std::char_traits<char>,std::allocator<char> >::_Xran
_TEXT	ENDS
; Function compile flags: /Odtp
; File c:\program files (x86)\microsoft visual studio 11.0\vc\include\xstring
;	COMDAT ?_Xlen@?$basic_string@DU?$char_traits@D@std@@V?$allocator@D@2@@std@@QBEXXZ
_TEXT	SEGMENT
_this$ = -4						; size = 4
?_Xlen@?$basic_string@DU?$char_traits@D@std@@V?$allocator@D@2@@std@@QBEXXZ PROC ; std::basic_string<char,std::char_traits<char>,std::allocator<char> >::_Xlen, COMDAT
; _this$ = ecx

; 2270 : 		{	// report a length_error

	push	ebp
	mov	ebp, esp
	push	ecx
	mov	DWORD PTR _this$[ebp], ecx

; 2271 : 		_Xlength_error("string too long");

	push	OFFSET ??_C@_0BA@JFNIOLAK@string?5too?5long?$AA@
	call	?_Xlength_error@std@@YAXPBD@Z		; std::_Xlength_error
$LN2@Xlen:

; 2272 : 		}

	mov	esp, ebp
	pop	ebp
	ret	0
?_Xlen@?$basic_string@DU?$char_traits@D@std@@V?$allocator@D@2@@std@@QBEXXZ ENDP ; std::basic_string<char,std::char_traits<char>,std::allocator<char> >::_Xlen
_TEXT	ENDS
; Function compile flags: /Odtp
; File c:\program files (x86)\microsoft visual studio 11.0\vc\include\xstring
;	COMDAT ?_Tidy@?$basic_string@DU?$char_traits@D@std@@V?$allocator@D@2@@std@@QAEX_NI@Z
_TEXT	SEGMENT
__Ptr$1 = -12						; size = 4
_this$ = -8						; size = 4
$T2 = -2						; size = 1
$T3 = -1						; size = 1
__Built$ = 8						; size = 1
__Newsize$ = 12						; size = 4
?_Tidy@?$basic_string@DU?$char_traits@D@std@@V?$allocator@D@2@@std@@QAEX_NI@Z PROC ; std::basic_string<char,std::char_traits<char>,std::allocator<char> >::_Tidy, COMDAT
; _this$ = ecx

; 2253 : 		{	// initialize buffer, deallocating any storage

	push	ebp
	mov	ebp, esp
	sub	esp, 12					; 0000000cH
	mov	DWORD PTR _this$[ebp], ecx

; 2254 : 		if (!_Built)

	movzx	eax, BYTE PTR __Built$[ebp]
	test	eax, eax
	jne	SHORT $LN4@Tidy
	jmp	SHORT $LN3@Tidy
$LN4@Tidy:

; 2255 : 			;
; 2256 : 		else if (this->_BUF_SIZE <= this->_Myres)

	mov	ecx, DWORD PTR _this$[ebp]
	cmp	DWORD PTR [ecx+20], 16			; 00000010H
	jb	SHORT $LN3@Tidy

; 2257 : 			{	// copy any leftovers to small buffer and deallocate
; 2258 : 			pointer _Ptr = this->_Bx._Ptr;

	mov	edx, DWORD PTR _this$[ebp]
	mov	eax, DWORD PTR [edx]
	mov	DWORD PTR __Ptr$1[ebp], eax

; 2259 : 			this->_Getal().destroy(&this->_Bx._Ptr);

	mov	ecx, DWORD PTR _this$[ebp]
	push	ecx
	lea	edx, DWORD PTR $T3[ebp]
	push	edx
	mov	ecx, DWORD PTR _this$[ebp]
	call	?_Getal@?$_String_alloc@$0A@U?$_String_base_types@DV?$allocator@D@std@@@std@@@std@@QBE?AU?$_Wrap_alloc@V?$allocator@D@std@@@2@XZ ; std::_String_alloc<0,std::_String_base_types<char,std::allocator<char> > >::_Getal
	mov	ecx, eax
	call	??$destroy@PAD@?$_Wrap_alloc@V?$allocator@D@std@@@std@@QAEXPAPAD@Z ; std::_Wrap_alloc<std::allocator<char> >::destroy<char *>

; 2260 : 			if (0 < _Newsize)

	cmp	DWORD PTR __Newsize$[ebp], 0
	jbe	SHORT $LN1@Tidy

; 2261 : 				_Traits::copy(this->_Bx._Buf,
; 2262 : 					_STD addressof(*_Ptr), _Newsize);

	mov	eax, DWORD PTR __Newsize$[ebp]
	push	eax
	mov	ecx, DWORD PTR __Ptr$1[ebp]
	push	ecx
	call	??$addressof@D@std@@YAPADAAD@Z		; std::addressof<char>
	add	esp, 4
	push	eax
	mov	edx, DWORD PTR _this$[ebp]
	push	edx
	call	?copy@?$char_traits@D@std@@SAPADPADPBDI@Z ; std::char_traits<char>::copy
	add	esp, 12					; 0000000cH
$LN1@Tidy:

; 2263 : 			this->_Getal().deallocate(_Ptr, this->_Myres + 1);

	mov	eax, DWORD PTR _this$[ebp]
	mov	ecx, DWORD PTR [eax+20]
	add	ecx, 1
	push	ecx
	mov	edx, DWORD PTR __Ptr$1[ebp]
	push	edx
	lea	eax, DWORD PTR $T2[ebp]
	push	eax
	mov	ecx, DWORD PTR _this$[ebp]
	call	?_Getal@?$_String_alloc@$0A@U?$_String_base_types@DV?$allocator@D@std@@@std@@@std@@QBE?AU?$_Wrap_alloc@V?$allocator@D@std@@@2@XZ ; std::_String_alloc<0,std::_String_base_types<char,std::allocator<char> > >::_Getal
	mov	ecx, eax
	call	?deallocate@?$_Wrap_alloc@V?$allocator@D@std@@@std@@QAEXPADI@Z ; std::_Wrap_alloc<std::allocator<char> >::deallocate
$LN3@Tidy:

; 2264 : 			}
; 2265 : 		this->_Myres = this->_BUF_SIZE - 1;

	mov	ecx, DWORD PTR _this$[ebp]
	mov	DWORD PTR [ecx+20], 15			; 0000000fH

; 2266 : 		_Eos(_Newsize);

	mov	edx, DWORD PTR __Newsize$[ebp]
	push	edx
	mov	ecx, DWORD PTR _this$[ebp]
	call	?_Eos@?$basic_string@DU?$char_traits@D@std@@V?$allocator@D@2@@std@@QAEXI@Z ; std::basic_string<char,std::char_traits<char>,std::allocator<char> >::_Eos

; 2267 : 		}

	mov	esp, ebp
	pop	ebp
	ret	8
?_Tidy@?$basic_string@DU?$char_traits@D@std@@V?$allocator@D@2@@std@@QAEX_NI@Z ENDP ; std::basic_string<char,std::char_traits<char>,std::allocator<char> >::_Tidy
_TEXT	ENDS
; Function compile flags: /Odtp
; File c:\program files (x86)\microsoft visual studio 11.0\vc\include\xstring
;	COMDAT ?_Inside@?$basic_string@DU?$char_traits@D@std@@V?$allocator@D@2@@std@@QAE_NPBD@Z
_TEXT	SEGMENT
_this$ = -4						; size = 4
__Ptr$ = 8						; size = 4
?_Inside@?$basic_string@DU?$char_traits@D@std@@V?$allocator@D@2@@std@@QAE_NPBD@Z PROC ; std::basic_string<char,std::char_traits<char>,std::allocator<char> >::_Inside, COMDAT
; _this$ = ecx

; 2237 : 		{	// test if _Ptr points inside string

	push	ebp
	mov	ebp, esp
	push	ecx
	mov	DWORD PTR _this$[ebp], ecx

; 2238 : 		if (_Ptr == 0 || _Ptr < this->_Myptr()
; 2239 : 			|| this->_Myptr() + this->_Mysize <= _Ptr)

	cmp	DWORD PTR __Ptr$[ebp], 0
	je	SHORT $LN2@Inside
	mov	ecx, DWORD PTR _this$[ebp]
	call	?_Myptr@?$_String_val@U?$_Simple_types@D@std@@@std@@QAEPADXZ ; std::_String_val<std::_Simple_types<char> >::_Myptr
	cmp	DWORD PTR __Ptr$[ebp], eax
	jb	SHORT $LN2@Inside
	mov	ecx, DWORD PTR _this$[ebp]
	call	?_Myptr@?$_String_val@U?$_Simple_types@D@std@@@std@@QAEPADXZ ; std::_String_val<std::_Simple_types<char> >::_Myptr
	mov	ecx, DWORD PTR _this$[ebp]
	add	eax, DWORD PTR [ecx+16]
	cmp	eax, DWORD PTR __Ptr$[ebp]
	ja	SHORT $LN3@Inside
$LN2@Inside:

; 2240 : 			return (false);	// don't ask

	xor	al, al
	jmp	SHORT $LN4@Inside

; 2241 : 		else

	jmp	SHORT $LN4@Inside
$LN3@Inside:

; 2242 : 			return (true);

	mov	al, 1
$LN4@Inside:

; 2243 : 		}

	mov	esp, ebp
	pop	ebp
	ret	4
?_Inside@?$basic_string@DU?$char_traits@D@std@@V?$allocator@D@2@@std@@QAE_NPBD@Z ENDP ; std::basic_string<char,std::char_traits<char>,std::allocator<char> >::_Inside
_TEXT	ENDS
; Function compile flags: /Odtp
; File c:\program files (x86)\microsoft visual studio 11.0\vc\include\xstring
;	COMDAT ?_Grow@?$basic_string@DU?$char_traits@D@std@@V?$allocator@D@2@@std@@QAE_NI_N@Z
_TEXT	SEGMENT
tv136 = -12						; size = 4
tv129 = -8						; size = 4
_this$ = -4						; size = 4
__Newsize$ = 8						; size = 4
__Trim$ = 12						; size = 1
?_Grow@?$basic_string@DU?$char_traits@D@std@@V?$allocator@D@2@@std@@QAE_NI_N@Z PROC ; std::basic_string<char,std::char_traits<char>,std::allocator<char> >::_Grow, COMDAT
; _this$ = ecx

; 2223 : 		{	// ensure buffer is big enough, trim to size if _Trim is true

	push	ebp
	mov	ebp, esp
	sub	esp, 12					; 0000000cH
	mov	DWORD PTR _this$[ebp], ecx

; 2224 : 		if (max_size() < _Newsize)

	mov	ecx, DWORD PTR _this$[ebp]
	call	?max_size@?$basic_string@DU?$char_traits@D@std@@V?$allocator@D@2@@std@@QBEIXZ ; std::basic_string<char,std::char_traits<char>,std::allocator<char> >::max_size
	cmp	eax, DWORD PTR __Newsize$[ebp]
	jae	SHORT $LN6@Grow

; 2225 : 			_Xlen();	// result too long

	mov	ecx, DWORD PTR _this$[ebp]
	call	?_Xlen@?$basic_string@DU?$char_traits@D@std@@V?$allocator@D@2@@std@@QBEXXZ ; std::basic_string<char,std::char_traits<char>,std::allocator<char> >::_Xlen
$LN6@Grow:

; 2226 : 		if (this->_Myres < _Newsize)

	mov	eax, DWORD PTR _this$[ebp]
	mov	ecx, DWORD PTR [eax+20]
	cmp	ecx, DWORD PTR __Newsize$[ebp]
	jae	SHORT $LN5@Grow

; 2227 : 			_Copy(_Newsize, this->_Mysize);	// reallocate to grow

	mov	edx, DWORD PTR _this$[ebp]
	mov	eax, DWORD PTR [edx+16]
	push	eax
	mov	ecx, DWORD PTR __Newsize$[ebp]
	push	ecx
	mov	ecx, DWORD PTR _this$[ebp]
	call	?_Copy@?$basic_string@DU?$char_traits@D@std@@V?$allocator@D@2@@std@@QAEXII@Z ; std::basic_string<char,std::char_traits<char>,std::allocator<char> >::_Copy
	jmp	SHORT $LN4@Grow
$LN5@Grow:

; 2228 : 		else if (_Trim && _Newsize < this->_BUF_SIZE)

	movzx	edx, BYTE PTR __Trim$[ebp]
	test	edx, edx
	je	SHORT $LN3@Grow
	cmp	DWORD PTR __Newsize$[ebp], 16		; 00000010H
	jae	SHORT $LN3@Grow

; 2229 : 			_Tidy(true,	// copy and deallocate if trimming to small string
; 2230 : 				_Newsize < this->_Mysize ? _Newsize : this->_Mysize);

	mov	eax, DWORD PTR _this$[ebp]
	mov	ecx, DWORD PTR __Newsize$[ebp]
	cmp	ecx, DWORD PTR [eax+16]
	jae	SHORT $LN9@Grow
	mov	edx, DWORD PTR __Newsize$[ebp]
	mov	DWORD PTR tv129[ebp], edx
	jmp	SHORT $LN10@Grow
$LN9@Grow:
	mov	eax, DWORD PTR _this$[ebp]
	mov	ecx, DWORD PTR [eax+16]
	mov	DWORD PTR tv129[ebp], ecx
$LN10@Grow:
	mov	edx, DWORD PTR tv129[ebp]
	push	edx
	push	1
	mov	ecx, DWORD PTR _this$[ebp]
	call	?_Tidy@?$basic_string@DU?$char_traits@D@std@@V?$allocator@D@2@@std@@QAEX_NI@Z ; std::basic_string<char,std::char_traits<char>,std::allocator<char> >::_Tidy
	jmp	SHORT $LN4@Grow
$LN3@Grow:

; 2231 : 		else if (_Newsize == 0)

	cmp	DWORD PTR __Newsize$[ebp], 0
	jne	SHORT $LN4@Grow

; 2232 : 			_Eos(0);	// new size is zero, just null terminate

	push	0
	mov	ecx, DWORD PTR _this$[ebp]
	call	?_Eos@?$basic_string@DU?$char_traits@D@std@@V?$allocator@D@2@@std@@QAEXI@Z ; std::basic_string<char,std::char_traits<char>,std::allocator<char> >::_Eos
$LN4@Grow:

; 2233 : 		return (0 < _Newsize);	// return true only if more work to do

	cmp	DWORD PTR __Newsize$[ebp], 0
	jbe	SHORT $LN11@Grow
	mov	DWORD PTR tv136[ebp], 1
	jmp	SHORT $LN12@Grow
$LN11@Grow:
	mov	DWORD PTR tv136[ebp], 0
$LN12@Grow:
	mov	al, BYTE PTR tv136[ebp]
$LN8@Grow:

; 2234 : 		}

	mov	esp, ebp
	pop	ebp
	ret	8
?_Grow@?$basic_string@DU?$char_traits@D@std@@V?$allocator@D@2@@std@@QAE_NI_N@Z ENDP ; std::basic_string<char,std::char_traits<char>,std::allocator<char> >::_Grow
_TEXT	ENDS
; Function compile flags: /Odtp
; File c:\program files (x86)\microsoft visual studio 11.0\vc\include\xstring
;	COMDAT ?_Eos@?$basic_string@DU?$char_traits@D@std@@V?$allocator@D@2@@std@@QAEXI@Z
_TEXT	SEGMENT
_this$ = -8						; size = 4
$T1 = -1						; size = 1
__Newsize$ = 8						; size = 4
?_Eos@?$basic_string@DU?$char_traits@D@std@@V?$allocator@D@2@@std@@QAEXI@Z PROC ; std::basic_string<char,std::char_traits<char>,std::allocator<char> >::_Eos, COMDAT
; _this$ = ecx

; 2217 : 		{	// set new length and null terminator

	push	ebp
	mov	ebp, esp
	sub	esp, 8
	mov	DWORD PTR _this$[ebp], ecx

; 2218 : 		_Traits::assign(this->_Myptr()[this->_Mysize = _Newsize], _Elem());

	mov	BYTE PTR $T1[ebp], 0
	mov	eax, DWORD PTR _this$[ebp]
	mov	ecx, DWORD PTR __Newsize$[ebp]
	mov	DWORD PTR [eax+16], ecx
	lea	edx, DWORD PTR $T1[ebp]
	push	edx
	mov	ecx, DWORD PTR _this$[ebp]
	call	?_Myptr@?$_String_val@U?$_Simple_types@D@std@@@std@@QAEPADXZ ; std::_String_val<std::_Simple_types<char> >::_Myptr
	add	eax, DWORD PTR __Newsize$[ebp]
	push	eax
	call	?assign@?$char_traits@D@std@@SAXAADABD@Z ; std::char_traits<char>::assign
	add	esp, 8

; 2219 : 		}

	mov	esp, ebp
	pop	ebp
	ret	4
?_Eos@?$basic_string@DU?$char_traits@D@std@@V?$allocator@D@2@@std@@QAEXI@Z ENDP ; std::basic_string<char,std::char_traits<char>,std::allocator<char> >::_Eos
_TEXT	ENDS
; Function compile flags: /Odtp
; File c:\program files (x86)\microsoft visual studio 11.0\vc\include\xstring
;	COMDAT ?_Copy@?$basic_string@DU?$char_traits@D@std@@V?$allocator@D@2@@std@@QAEXII@Z
_TEXT	SEGMENT
tv205 = -48						; size = 4
tv204 = -44						; size = 4
tv203 = -40						; size = 4
tv202 = -36						; size = 4
__Ptr$ = -32						; size = 4
__Newres$ = -28						; size = 4
_this$ = -24						; size = 4
$T2 = -19						; size = 1
$T3 = -18						; size = 1
$T4 = -17						; size = 1
__$EHRec$ = -16						; size = 16
__Newsize$ = 8						; size = 4
__Oldlen$ = 12						; size = 4
?_Copy@?$basic_string@DU?$char_traits@D@std@@V?$allocator@D@2@@std@@QAEXII@Z PROC ; std::basic_string<char,std::char_traits<char>,std::allocator<char> >::_Copy, COMDAT
; _this$ = ecx

; 2182 : 		{	// copy _Oldlen elements to newly allocated buffer

	push	ebp
	mov	ebp, esp
	push	-1
	push	__ehhandler$?_Copy@?$basic_string@DU?$char_traits@D@std@@V?$allocator@D@2@@std@@QAEXII@Z
	mov	eax, DWORD PTR fs:0
	push	eax
	push	ecx
	sub	esp, 32					; 00000020H
	push	ebx
	push	esi
	push	edi
	mov	eax, DWORD PTR ___security_cookie
	xor	eax, ebp
	push	eax
	lea	eax, DWORD PTR __$EHRec$[ebp+4]
	mov	DWORD PTR fs:0, eax
	mov	DWORD PTR __$EHRec$[ebp], esp
	mov	DWORD PTR _this$[ebp], ecx

; 2183 : 		size_type _Newres = _Newsize | this->_ALLOC_MASK;

	mov	eax, DWORD PTR __Newsize$[ebp]
	or	eax, 15					; 0000000fH
	mov	DWORD PTR __Newres$[ebp], eax

; 2184 : 		if (max_size() < _Newres)

	mov	ecx, DWORD PTR _this$[ebp]
	call	?max_size@?$basic_string@DU?$char_traits@D@std@@V?$allocator@D@2@@std@@QBEIXZ ; std::basic_string<char,std::char_traits<char>,std::allocator<char> >::max_size
	cmp	eax, DWORD PTR __Newres$[ebp]
	jae	SHORT $LN9@Copy

; 2185 : 			_Newres = _Newsize;	// undo roundup if too big

	mov	ecx, DWORD PTR __Newsize$[ebp]
	mov	DWORD PTR __Newres$[ebp], ecx
	jmp	SHORT $LN8@Copy
$LN9@Copy:

; 2186 : 		else if (this->_Myres / 2 <= _Newres / 3)

	mov	eax, DWORD PTR __Newres$[ebp]
	xor	edx, edx
	mov	ecx, 3
	div	ecx
	mov	edx, DWORD PTR _this$[ebp]
	mov	ecx, DWORD PTR [edx+20]
	shr	ecx, 1
	cmp	ecx, eax
	ja	SHORT $LN7@Copy
	jmp	SHORT $LN8@Copy
$LN7@Copy:

; 2187 : 			;
; 2188 : 		else if (this->_Myres <= max_size() - this->_Myres / 2)

	mov	edx, DWORD PTR _this$[ebp]
	mov	esi, DWORD PTR [edx+20]
	shr	esi, 1
	mov	ecx, DWORD PTR _this$[ebp]
	call	?max_size@?$basic_string@DU?$char_traits@D@std@@V?$allocator@D@2@@std@@QBEIXZ ; std::basic_string<char,std::char_traits<char>,std::allocator<char> >::max_size
	sub	eax, esi
	mov	ecx, DWORD PTR _this$[ebp]
	cmp	DWORD PTR [ecx+20], eax
	ja	SHORT $LN5@Copy

; 2189 : 			_Newres = this->_Myres
; 2190 : 				+ this->_Myres / 2;	// grow exponentially if possible

	mov	edx, DWORD PTR _this$[ebp]
	mov	eax, DWORD PTR [edx+20]
	shr	eax, 1
	mov	ecx, DWORD PTR _this$[ebp]
	add	eax, DWORD PTR [ecx+20]
	mov	DWORD PTR __Newres$[ebp], eax

; 2191 : 		else

	jmp	SHORT $LN8@Copy
$LN5@Copy:

; 2192 : 			_Newres = max_size();	// settle for max_size()

	mov	ecx, DWORD PTR _this$[ebp]
	call	?max_size@?$basic_string@DU?$char_traits@D@std@@V?$allocator@D@2@@std@@QBEIXZ ; std::basic_string<char,std::char_traits<char>,std::allocator<char> >::max_size
	mov	DWORD PTR __Newres$[ebp], eax
$LN8@Copy:

; 2193 : 
; 2194 : 		_Elem *_Ptr;
; 2195 : 		_TRY_BEGIN

	mov	DWORD PTR __$EHRec$[ebp+12], 0

; 2196 : 			_Ptr = this->_Getal().allocate(_Newres + 1);

	lea	edx, DWORD PTR $T4[ebp]
	push	edx
	mov	ecx, DWORD PTR _this$[ebp]
	call	?_Getal@?$_String_alloc@$0A@U?$_String_base_types@DV?$allocator@D@std@@@std@@@std@@QBE?AU?$_Wrap_alloc@V?$allocator@D@std@@@2@XZ ; std::_String_alloc<0,std::_String_base_types<char,std::allocator<char> > >::_Getal
	mov	DWORD PTR tv202[ebp], eax
	mov	eax, DWORD PTR __Newres$[ebp]
	add	eax, 1
	push	eax
	mov	ecx, DWORD PTR tv202[ebp]
	call	?allocate@?$_Wrap_alloc@V?$allocator@D@std@@@std@@QAEPADI@Z ; std::_Wrap_alloc<std::allocator<char> >::allocate
	mov	DWORD PTR tv203[ebp], eax
	mov	ecx, DWORD PTR tv203[ebp]
	mov	DWORD PTR __Ptr$[ebp], ecx
	jmp	SHORT $LN12@Copy
__catch$?_Copy@?$basic_string@DU?$char_traits@D@std@@V?$allocator@D@2@@std@@QAEXII@Z$0:

; 2197 : 		_CATCH_ALL

	mov	DWORD PTR __$EHRec$[ebp], esp

; 2198 : 			_Newres = _Newsize;	// allocation failed, undo roundup and retry

	mov	edx, DWORD PTR __Newsize$[ebp]
	mov	DWORD PTR __Newres$[ebp], edx

; 2199 : 			_TRY_BEGIN

	mov	BYTE PTR __$EHRec$[ebp+12], 2

; 2200 : 				_Ptr = this->_Getal().allocate(_Newres + 1);

	lea	eax, DWORD PTR $T3[ebp]
	push	eax
	mov	ecx, DWORD PTR _this$[ebp]
	call	?_Getal@?$_String_alloc@$0A@U?$_String_base_types@DV?$allocator@D@std@@@std@@@std@@QBE?AU?$_Wrap_alloc@V?$allocator@D@std@@@2@XZ ; std::_String_alloc<0,std::_String_base_types<char,std::allocator<char> > >::_Getal
	mov	DWORD PTR tv204[ebp], eax
	mov	ecx, DWORD PTR __Newres$[ebp]
	add	ecx, 1
	push	ecx
	mov	ecx, DWORD PTR tv204[ebp]
	call	?allocate@?$_Wrap_alloc@V?$allocator@D@std@@@std@@QAEPADI@Z ; std::_Wrap_alloc<std::allocator<char> >::allocate
	mov	DWORD PTR tv205[ebp], eax
	mov	edx, DWORD PTR tv205[ebp]
	mov	DWORD PTR __Ptr$[ebp], edx
	jmp	SHORT $LN14@Copy
__catch$?_Copy@?$basic_string@DU?$char_traits@D@std@@V?$allocator@D@2@@std@@QAEXII@Z$1:

; 2201 : 			_CATCH_ALL
; 2202 : 			_Tidy(true);	// failed again, discard storage and reraise

	push	0
	push	1
	mov	ecx, DWORD PTR _this$[ebp]
	call	?_Tidy@?$basic_string@DU?$char_traits@D@std@@V?$allocator@D@2@@std@@QAEX_NI@Z ; std::basic_string<char,std::char_traits<char>,std::allocator<char> >::_Tidy

; 2203 : 			_RERAISE;

	push	0
	push	0
	call	__CxxThrowException@8

; 2204 : 			_CATCH_END

	mov	eax, $LN17@Copy
	ret	0
$LN14@Copy:
	mov	DWORD PTR __$EHRec$[ebp+12], 1
	jmp	SHORT __tryend$?_Copy@?$basic_string@DU?$char_traits@D@std@@V?$allocator@D@2@@std@@QAEXII@Z$2
$LN17@Copy:
	mov	DWORD PTR __$EHRec$[ebp+12], 1
__tryend$?_Copy@?$basic_string@DU?$char_traits@D@std@@V?$allocator@D@2@@std@@QAEXII@Z$2:

; 2205 : 		_CATCH_END

	mov	eax, $LN19@Copy
	ret	0
$LN12@Copy:
	mov	DWORD PTR __$EHRec$[ebp+12], -1
	jmp	SHORT __tryend$?_Copy@?$basic_string@DU?$char_traits@D@std@@V?$allocator@D@2@@std@@QAEXII@Z$3
$LN19@Copy:
	mov	DWORD PTR __$EHRec$[ebp+12], -1
__tryend$?_Copy@?$basic_string@DU?$char_traits@D@std@@V?$allocator@D@2@@std@@QAEXII@Z$3:

; 2206 : 
; 2207 : 		if (0 < _Oldlen)

	cmp	DWORD PTR __Oldlen$[ebp], 0
	jbe	SHORT $LN1@Copy

; 2208 : 			_Traits::copy(_Ptr, this->_Myptr(),
; 2209 : 				_Oldlen);	// copy existing elements

	mov	eax, DWORD PTR __Oldlen$[ebp]
	push	eax
	mov	ecx, DWORD PTR _this$[ebp]
	call	?_Myptr@?$_String_val@U?$_Simple_types@D@std@@@std@@QAEPADXZ ; std::_String_val<std::_Simple_types<char> >::_Myptr
	push	eax
	mov	ecx, DWORD PTR __Ptr$[ebp]
	push	ecx
	call	?copy@?$char_traits@D@std@@SAPADPADPBDI@Z ; std::char_traits<char>::copy
	add	esp, 12					; 0000000cH
$LN1@Copy:

; 2210 : 		_Tidy(true);

	push	0
	push	1
	mov	ecx, DWORD PTR _this$[ebp]
	call	?_Tidy@?$basic_string@DU?$char_traits@D@std@@V?$allocator@D@2@@std@@QAEX_NI@Z ; std::basic_string<char,std::char_traits<char>,std::allocator<char> >::_Tidy

; 2211 : 		this->_Getal().construct(&this->_Bx._Ptr, _Ptr);

	lea	edx, DWORD PTR __Ptr$[ebp]
	push	edx
	mov	eax, DWORD PTR _this$[ebp]
	push	eax
	lea	ecx, DWORD PTR $T2[ebp]
	push	ecx
	mov	ecx, DWORD PTR _this$[ebp]
	call	?_Getal@?$_String_alloc@$0A@U?$_String_base_types@DV?$allocator@D@std@@@std@@@std@@QBE?AU?$_Wrap_alloc@V?$allocator@D@std@@@2@XZ ; std::_String_alloc<0,std::_String_base_types<char,std::allocator<char> > >::_Getal
	mov	ecx, eax
	call	??$construct@PADAAPAD@?$_Wrap_alloc@V?$allocator@D@std@@@std@@QAEXPAPADAAPAD@Z ; std::_Wrap_alloc<std::allocator<char> >::construct<char *,char * &>

; 2212 : 		this->_Myres = _Newres;

	mov	edx, DWORD PTR _this$[ebp]
	mov	eax, DWORD PTR __Newres$[ebp]
	mov	DWORD PTR [edx+20], eax

; 2213 : 		_Eos(_Oldlen);

	mov	ecx, DWORD PTR __Oldlen$[ebp]
	push	ecx
	mov	ecx, DWORD PTR _this$[ebp]
	call	?_Eos@?$basic_string@DU?$char_traits@D@std@@V?$allocator@D@2@@std@@QAEXI@Z ; std::basic_string<char,std::char_traits<char>,std::allocator<char> >::_Eos
$LN11@Copy:

; 2214 : 		}

	mov	ecx, DWORD PTR __$EHRec$[ebp+4]
	mov	DWORD PTR fs:0, ecx
	pop	ecx
	pop	edi
	pop	esi
	pop	ebx
	mov	esp, ebp
	pop	ebp
	ret	8
_TEXT	ENDS
;	COMDAT text$x
text$x	SEGMENT
__ehhandler$?_Copy@?$basic_string@DU?$char_traits@D@std@@V?$allocator@D@2@@std@@QAEXII@Z:
	mov	edx, DWORD PTR [esp+8]
	lea	eax, DWORD PTR [edx+12]
	mov	ecx, DWORD PTR [edx-52]
	xor	ecx, eax
	call	@__security_check_cookie@4
	mov	eax, OFFSET __ehfuncinfo$?_Copy@?$basic_string@DU?$char_traits@D@std@@V?$allocator@D@2@@std@@QAEXII@Z
	jmp	___CxxFrameHandler3
text$x	ENDS
?_Copy@?$basic_string@DU?$char_traits@D@std@@V?$allocator@D@2@@std@@QAEXII@Z ENDP ; std::basic_string<char,std::char_traits<char>,std::allocator<char> >::_Copy
; Function compile flags: /Odtp
; File c:\program files (x86)\microsoft visual studio 11.0\vc\include\xstring
;	COMDAT ?max_size@?$basic_string@DU?$char_traits@D@std@@V?$allocator@D@2@@std@@QBEIXZ
_TEXT	SEGMENT
_this$ = -16						; size = 4
tv75 = -12						; size = 4
__Num$ = -8						; size = 4
$T1 = -1						; size = 1
?max_size@?$basic_string@DU?$char_traits@D@std@@V?$allocator@D@2@@std@@QBEIXZ PROC ; std::basic_string<char,std::char_traits<char>,std::allocator<char> >::max_size, COMDAT
; _this$ = ecx

; 1737 : 		{	// return maximum possible length of sequence

	push	ebp
	mov	ebp, esp
	sub	esp, 16					; 00000010H
	mov	DWORD PTR _this$[ebp], ecx

; 1738 : 		size_type _Num = this->_Getal().max_size();

	lea	eax, DWORD PTR $T1[ebp]
	push	eax
	mov	ecx, DWORD PTR _this$[ebp]
	call	?_Getal@?$_String_alloc@$0A@U?$_String_base_types@DV?$allocator@D@std@@@std@@@std@@QBE?AU?$_Wrap_alloc@V?$allocator@D@std@@@2@XZ ; std::_String_alloc<0,std::_String_base_types<char,std::allocator<char> > >::_Getal
	mov	ecx, eax
	call	?max_size@?$_Wrap_alloc@V?$allocator@D@std@@@std@@QBEIXZ ; std::_Wrap_alloc<std::allocator<char> >::max_size
	mov	DWORD PTR __Num$[ebp], eax

; 1739 : 		return (_Num <= 1 ? 1 : _Num - 1);

	cmp	DWORD PTR __Num$[ebp], 1
	ja	SHORT $LN3@max_size
	mov	DWORD PTR tv75[ebp], 1
	jmp	SHORT $LN4@max_size
$LN3@max_size:
	mov	ecx, DWORD PTR __Num$[ebp]
	sub	ecx, 1
	mov	DWORD PTR tv75[ebp], ecx
$LN4@max_size:
	mov	eax, DWORD PTR tv75[ebp]

; 1740 : 		}

	mov	esp, ebp
	pop	ebp
	ret	0
?max_size@?$basic_string@DU?$char_traits@D@std@@V?$allocator@D@2@@std@@QBEIXZ ENDP ; std::basic_string<char,std::char_traits<char>,std::allocator<char> >::max_size
_TEXT	ENDS
; Function compile flags: /Odtp
; File c:\program files (x86)\microsoft visual studio 11.0\vc\include\xstring
;	COMDAT ?size@?$basic_string@DU?$char_traits@D@std@@V?$allocator@D@2@@std@@QBEIXZ
_TEXT	SEGMENT
_this$ = -4						; size = 4
?size@?$basic_string@DU?$char_traits@D@std@@V?$allocator@D@2@@std@@QBEIXZ PROC ; std::basic_string<char,std::char_traits<char>,std::allocator<char> >::size, COMDAT
; _this$ = ecx

; 1732 : 		{	// return length of sequence

	push	ebp
	mov	ebp, esp
	push	ecx
	mov	DWORD PTR _this$[ebp], ecx

; 1733 : 		return (this->_Mysize);

	mov	eax, DWORD PTR _this$[ebp]
	mov	eax, DWORD PTR [eax+16]

; 1734 : 		}

	mov	esp, ebp
	pop	ebp
	ret	0
?size@?$basic_string@DU?$char_traits@D@std@@V?$allocator@D@2@@std@@QBEIXZ ENDP ; std::basic_string<char,std::char_traits<char>,std::allocator<char> >::size
_TEXT	ENDS
; Function compile flags: /Odtp
; File c:\program files (x86)\microsoft visual studio 11.0\vc\include\xstring
;	COMDAT ?erase@?$basic_string@DU?$char_traits@D@std@@V?$allocator@D@2@@std@@QAEAAV12@II@Z
_TEXT	SEGMENT
__Newsize$1 = -12					; size = 4
__Ptr$2 = -8						; size = 4
_this$ = -4						; size = 4
__Off$ = 8						; size = 4
__Count$ = 12						; size = 4
?erase@?$basic_string@DU?$char_traits@D@std@@V?$allocator@D@2@@std@@QAEAAV12@II@Z PROC ; std::basic_string<char,std::char_traits<char>,std::allocator<char> >::erase, COMDAT
; _this$ = ecx

; 1317 : 		{	// erase elements [_Off, _Off + _Count)

	push	ebp
	mov	ebp, esp
	sub	esp, 12					; 0000000cH
	mov	DWORD PTR _this$[ebp], ecx

; 1318 : 		if (this->_Mysize < _Off)

	mov	eax, DWORD PTR _this$[ebp]
	mov	ecx, DWORD PTR [eax+16]
	cmp	ecx, DWORD PTR __Off$[ebp]
	jae	SHORT $LN4@erase

; 1319 : 			_Xran();	// _Off off end

	mov	ecx, DWORD PTR _this$[ebp]
	call	?_Xran@?$basic_string@DU?$char_traits@D@std@@V?$allocator@D@2@@std@@QBEXXZ ; std::basic_string<char,std::char_traits<char>,std::allocator<char> >::_Xran
$LN4@erase:

; 1320 : 		if (this->_Mysize - _Off <= _Count)

	mov	edx, DWORD PTR _this$[ebp]
	mov	eax, DWORD PTR [edx+16]
	sub	eax, DWORD PTR __Off$[ebp]
	cmp	eax, DWORD PTR __Count$[ebp]
	ja	SHORT $LN3@erase

; 1321 : 			_Eos(_Off);	// erase elements [_Off, ...)

	mov	ecx, DWORD PTR __Off$[ebp]
	push	ecx
	mov	ecx, DWORD PTR _this$[ebp]
	call	?_Eos@?$basic_string@DU?$char_traits@D@std@@V?$allocator@D@2@@std@@QAEXI@Z ; std::basic_string<char,std::char_traits<char>,std::allocator<char> >::_Eos
	jmp	SHORT $LN2@erase
$LN3@erase:

; 1322 : 		else if (0 < _Count)

	cmp	DWORD PTR __Count$[ebp], 0
	jbe	SHORT $LN2@erase

; 1323 : 			{	// move elements down
; 1324 : 			value_type *_Ptr = this->_Myptr() + _Off;

	mov	ecx, DWORD PTR _this$[ebp]
	call	?_Myptr@?$_String_val@U?$_Simple_types@D@std@@@std@@QAEPADXZ ; std::_String_val<std::_Simple_types<char> >::_Myptr
	add	eax, DWORD PTR __Off$[ebp]
	mov	DWORD PTR __Ptr$2[ebp], eax

; 1325 : 			size_type _Newsize = this->_Mysize - _Count;

	mov	edx, DWORD PTR _this$[ebp]
	mov	eax, DWORD PTR [edx+16]
	sub	eax, DWORD PTR __Count$[ebp]
	mov	DWORD PTR __Newsize$1[ebp], eax

; 1326 : 			_Traits::move(_Ptr, _Ptr + _Count, _Newsize - _Off);

	mov	ecx, DWORD PTR __Newsize$1[ebp]
	sub	ecx, DWORD PTR __Off$[ebp]
	push	ecx
	mov	edx, DWORD PTR __Ptr$2[ebp]
	add	edx, DWORD PTR __Count$[ebp]
	push	edx
	mov	eax, DWORD PTR __Ptr$2[ebp]
	push	eax
	call	?move@?$char_traits@D@std@@SAPADPADPBDI@Z ; std::char_traits<char>::move
	add	esp, 12					; 0000000cH

; 1327 : 			_Eos(_Newsize);

	mov	ecx, DWORD PTR __Newsize$1[ebp]
	push	ecx
	mov	ecx, DWORD PTR _this$[ebp]
	call	?_Eos@?$basic_string@DU?$char_traits@D@std@@V?$allocator@D@2@@std@@QAEXI@Z ; std::basic_string<char,std::char_traits<char>,std::allocator<char> >::_Eos
$LN2@erase:

; 1328 : 			}
; 1329 : 		return (*this);

	mov	eax, DWORD PTR _this$[ebp]
$LN6@erase:

; 1330 : 		}

	mov	esp, ebp
	pop	ebp
	ret	8
?erase@?$basic_string@DU?$char_traits@D@std@@V?$allocator@D@2@@std@@QAEAAV12@II@Z ENDP ; std::basic_string<char,std::char_traits<char>,std::allocator<char> >::erase
_TEXT	ENDS
; Function compile flags: /Odtp
; File c:\program files (x86)\microsoft visual studio 11.0\vc\include\xstring
;	COMDAT ?erase@?$basic_string@DU?$char_traits@D@std@@V?$allocator@D@2@@std@@QAEAAV12@I@Z
_TEXT	SEGMENT
_this$ = -4						; size = 4
__Off$ = 8						; size = 4
?erase@?$basic_string@DU?$char_traits@D@std@@V?$allocator@D@2@@std@@QAEAAV12@I@Z PROC ; std::basic_string<char,std::char_traits<char>,std::allocator<char> >::erase, COMDAT
; _this$ = ecx

; 1309 : 		{	// erase elements [_Off, ...)

	push	ebp
	mov	ebp, esp
	push	ecx
	mov	DWORD PTR _this$[ebp], ecx

; 1310 : 		if (this->_Mysize < _Off)

	mov	eax, DWORD PTR _this$[ebp]
	mov	ecx, DWORD PTR [eax+16]
	cmp	ecx, DWORD PTR __Off$[ebp]
	jae	SHORT $LN1@erase

; 1311 : 			_Xran();	// _Off off end

	mov	ecx, DWORD PTR _this$[ebp]
	call	?_Xran@?$basic_string@DU?$char_traits@D@std@@V?$allocator@D@2@@std@@QBEXXZ ; std::basic_string<char,std::char_traits<char>,std::allocator<char> >::_Xran
$LN1@erase:

; 1312 : 		_Eos(_Off);

	mov	edx, DWORD PTR __Off$[ebp]
	push	edx
	mov	ecx, DWORD PTR _this$[ebp]
	call	?_Eos@?$basic_string@DU?$char_traits@D@std@@V?$allocator@D@2@@std@@QAEXI@Z ; std::basic_string<char,std::char_traits<char>,std::allocator<char> >::_Eos

; 1313 : 		return (*this);

	mov	eax, DWORD PTR _this$[ebp]
$LN3@erase:

; 1314 : 		}

	mov	esp, ebp
	pop	ebp
	ret	4
?erase@?$basic_string@DU?$char_traits@D@std@@V?$allocator@D@2@@std@@QAEAAV12@I@Z ENDP ; std::basic_string<char,std::char_traits<char>,std::allocator<char> >::erase
_TEXT	ENDS
; Function compile flags: /Odtp
; File c:\program files (x86)\microsoft visual studio 11.0\vc\include\xstring
;	COMDAT ?assign@?$basic_string@DU?$char_traits@D@std@@V?$allocator@D@2@@std@@QAEAAV12@PBD@Z
_TEXT	SEGMENT
_this$ = -4						; size = 4
__Ptr$ = 8						; size = 4
?assign@?$basic_string@DU?$char_traits@D@std@@V?$allocator@D@2@@std@@QAEAAV12@PBD@Z PROC ; std::basic_string<char,std::char_traits<char>,std::allocator<char> >::assign, COMDAT
; _this$ = ecx

; 1142 : 		{	// assign [_Ptr, <null>)

	push	ebp
	mov	ebp, esp
	push	ecx
	mov	DWORD PTR _this$[ebp], ecx

; 1143 : 		_DEBUG_POINTER(_Ptr);
; 1144 : 		return (assign(_Ptr, _Traits::length(_Ptr)));

	mov	eax, DWORD PTR __Ptr$[ebp]
	push	eax
	call	?length@?$char_traits@D@std@@SAIPBD@Z	; std::char_traits<char>::length
	add	esp, 4
	push	eax
	mov	ecx, DWORD PTR __Ptr$[ebp]
	push	ecx
	mov	ecx, DWORD PTR _this$[ebp]
	call	?assign@?$basic_string@DU?$char_traits@D@std@@V?$allocator@D@2@@std@@QAEAAV12@PBDI@Z ; std::basic_string<char,std::char_traits<char>,std::allocator<char> >::assign

; 1145 : 		}

	mov	esp, ebp
	pop	ebp
	ret	4
?assign@?$basic_string@DU?$char_traits@D@std@@V?$allocator@D@2@@std@@QAEAAV12@PBD@Z ENDP ; std::basic_string<char,std::char_traits<char>,std::allocator<char> >::assign
_TEXT	ENDS
; Function compile flags: /Odtp
; File c:\program files (x86)\microsoft visual studio 11.0\vc\include\xstring
;	COMDAT ?assign@?$basic_string@DU?$char_traits@D@std@@V?$allocator@D@2@@std@@QAEAAV12@PBDI@Z
_TEXT	SEGMENT
_this$ = -4						; size = 4
__Ptr$ = 8						; size = 4
__Count$ = 12						; size = 4
