; Listing generated by Microsoft (R) Optimizing Compiler Version 17.00.51106.1 

	TITLE	C:\Users\Zhitao Li\Documents\Visual Studio 2012\Projects\Freefalcon\SIM\GROUND\Weapon.cpp
	.686P
	.XMM
	include listing.inc
	.model	flat

INCLUDELIB LIBCMT
INCLUDELIB OLDNAMES

PUBLIC	?traps@_Num_base@std@@2_NB			; std::_Num_base::traps
PUBLIC	?round_style@_Num_base@std@@2W4float_round_style@2@B ; std::_Num_base::round_style
PUBLIC	?digits@_Num_base@std@@2HB			; std::_Num_base::digits
PUBLIC	?digits10@_Num_base@std@@2HB			; std::_Num_base::digits10
PUBLIC	?max_digits10@_Num_base@std@@2HB		; std::_Num_base::max_digits10
PUBLIC	?max_exponent@_Num_base@std@@2HB		; std::_Num_base::max_exponent
PUBLIC	?max_exponent10@_Num_base@std@@2HB		; std::_Num_base::max_exponent10
PUBLIC	?min_exponent@_Num_base@std@@2HB		; std::_Num_base::min_exponent
PUBLIC	?min_exponent10@_Num_base@std@@2HB		; std::_Num_base::min_exponent10
PUBLIC	?radix@_Num_base@std@@2HB			; std::_Num_base::radix
PUBLIC	?is_bounded@_Num_int_base@std@@2_NB		; std::_Num_int_base::is_bounded
PUBLIC	?is_exact@_Num_int_base@std@@2_NB		; std::_Num_int_base::is_exact
PUBLIC	?is_integer@_Num_int_base@std@@2_NB		; std::_Num_int_base::is_integer
PUBLIC	?is_modulo@_Num_int_base@std@@2_NB		; std::_Num_int_base::is_modulo
PUBLIC	?is_specialized@_Num_int_base@std@@2_NB		; std::_Num_int_base::is_specialized
PUBLIC	?radix@_Num_int_base@std@@2HB			; std::_Num_int_base::radix
PUBLIC	?has_denorm@_Num_float_base@std@@2W4float_denorm_style@2@B ; std::_Num_float_base::has_denorm
PUBLIC	?has_denorm_loss@_Num_float_base@std@@2_NB	; std::_Num_float_base::has_denorm_loss
PUBLIC	?SIMDIRTYDATA_INTERVAL@FalconEntity@@2KB	; FalconEntity::SIMDIRTYDATA_INTERVAL
PUBLIC	?CMPDIRTYDATA_INTERVAL@FalconEntity@@2KB	; FalconEntity::CMPDIRTYDATA_INTERVAL
PUBLIC	?has_infinity@_Num_float_base@std@@2_NB		; std::_Num_float_base::has_infinity
PUBLIC	?has_quiet_NaN@_Num_float_base@std@@2_NB	; std::_Num_float_base::has_quiet_NaN
PUBLIC	?has_signaling_NaN@_Num_float_base@std@@2_NB	; std::_Num_float_base::has_signaling_NaN
PUBLIC	?is_bounded@_Num_float_base@std@@2_NB		; std::_Num_float_base::is_bounded
PUBLIC	?skipws@?$_Iosb@H@std@@2W4_Fmtflags@12@B	; std::_Iosb<int>::skipws
PUBLIC	?is_exact@_Num_float_base@std@@2_NB		; std::_Num_float_base::is_exact
PUBLIC	?unitbuf@?$_Iosb@H@std@@2W4_Fmtflags@12@B	; std::_Iosb<int>::unitbuf
PUBLIC	?is_iec559@_Num_float_base@std@@2_NB		; std::_Num_float_base::is_iec559
PUBLIC	?uppercase@?$_Iosb@H@std@@2W4_Fmtflags@12@B	; std::_Iosb<int>::uppercase
PUBLIC	?is_integer@_Num_float_base@std@@2_NB		; std::_Num_float_base::is_integer
PUBLIC	?showbase@?$_Iosb@H@std@@2W4_Fmtflags@12@B	; std::_Iosb<int>::showbase
PUBLIC	?is_modulo@_Num_float_base@std@@2_NB		; std::_Num_float_base::is_modulo
PUBLIC	?showpoint@?$_Iosb@H@std@@2W4_Fmtflags@12@B	; std::_Iosb<int>::showpoint
PUBLIC	?is_signed@_Num_float_base@std@@2_NB		; std::_Num_float_base::is_signed
PUBLIC	?showpos@?$_Iosb@H@std@@2W4_Fmtflags@12@B	; std::_Iosb<int>::showpos
PUBLIC	?is_specialized@_Num_float_base@std@@2_NB	; std::_Num_float_base::is_specialized
PUBLIC	?left@?$_Iosb@H@std@@2W4_Fmtflags@12@B		; std::_Iosb<int>::left
PUBLIC	?tinyness_before@_Num_float_base@std@@2_NB	; std::_Num_float_base::tinyness_before
PUBLIC	?right@?$_Iosb@H@std@@2W4_Fmtflags@12@B		; std::_Iosb<int>::right
PUBLIC	?traps@_Num_float_base@std@@2_NB		; std::_Num_float_base::traps
PUBLIC	?internal@?$_Iosb@H@std@@2W4_Fmtflags@12@B	; std::_Iosb<int>::internal
PUBLIC	?round_style@_Num_float_base@std@@2W4float_round_style@2@B ; std::_Num_float_base::round_style
PUBLIC	?dec@?$_Iosb@H@std@@2W4_Fmtflags@12@B		; std::_Iosb<int>::dec
PUBLIC	?radix@_Num_float_base@std@@2HB			; std::_Num_float_base::radix
PUBLIC	?oct@?$_Iosb@H@std@@2W4_Fmtflags@12@B		; std::_Iosb<int>::oct
PUBLIC	?hex@?$_Iosb@H@std@@2W4_Fmtflags@12@B		; std::_Iosb<int>::hex
PUBLIC	?scientific@?$_Iosb@H@std@@2W4_Fmtflags@12@B	; std::_Iosb<int>::scientific
PUBLIC	?fixed@?$_Iosb@H@std@@2W4_Fmtflags@12@B		; std::_Iosb<int>::fixed
PUBLIC	?hexfloat@?$_Iosb@H@std@@2W4_Fmtflags@12@B	; std::_Iosb<int>::hexfloat
PUBLIC	?boolalpha@?$_Iosb@H@std@@2W4_Fmtflags@12@B	; std::_Iosb<int>::boolalpha
PUBLIC	?_Stdio@?$_Iosb@H@std@@2W4_Fmtflags@12@B	; std::_Iosb<int>::_Stdio
PUBLIC	?is_signed@?$numeric_limits@D@std@@2_NB		; std::numeric_limits<char>::is_signed
PUBLIC	?adjustfield@?$_Iosb@H@std@@2W4_Fmtflags@12@B	; std::_Iosb<int>::adjustfield
PUBLIC	?digits@?$numeric_limits@D@std@@2HB		; std::numeric_limits<char>::digits
PUBLIC	?basefield@?$_Iosb@H@std@@2W4_Fmtflags@12@B	; std::_Iosb<int>::basefield
PUBLIC	?digits10@?$numeric_limits@D@std@@2HB		; std::numeric_limits<char>::digits10
PUBLIC	?floatfield@?$_Iosb@H@std@@2W4_Fmtflags@12@B	; std::_Iosb<int>::floatfield
PUBLIC	?goodbit@?$_Iosb@H@std@@2W4_Iostate@12@B	; std::_Iosb<int>::goodbit
PUBLIC	?eofbit@?$_Iosb@H@std@@2W4_Iostate@12@B		; std::_Iosb<int>::eofbit
PUBLIC	?failbit@?$_Iosb@H@std@@2W4_Iostate@12@B	; std::_Iosb<int>::failbit
PUBLIC	?badbit@?$_Iosb@H@std@@2W4_Iostate@12@B		; std::_Iosb<int>::badbit
PUBLIC	?_Hardfail@?$_Iosb@H@std@@2W4_Iostate@12@B	; std::_Iosb<int>::_Hardfail
PUBLIC	?in@?$_Iosb@H@std@@2W4_Openmode@12@B		; std::_Iosb<int>::in
PUBLIC	?out@?$_Iosb@H@std@@2W4_Openmode@12@B		; std::_Iosb<int>::out
PUBLIC	?ate@?$_Iosb@H@std@@2W4_Openmode@12@B		; std::_Iosb<int>::ate
PUBLIC	?is_signed@?$numeric_limits@_W@std@@2_NB	; std::numeric_limits<wchar_t>::is_signed
PUBLIC	?app@?$_Iosb@H@std@@2W4_Openmode@12@B		; std::_Iosb<int>::app
PUBLIC	?digits@?$numeric_limits@_W@std@@2HB		; std::numeric_limits<wchar_t>::digits
PUBLIC	?trunc@?$_Iosb@H@std@@2W4_Openmode@12@B		; std::_Iosb<int>::trunc
PUBLIC	?_Nocreate@?$_Iosb@H@std@@2W4_Openmode@12@B	; std::_Iosb<int>::_Nocreate
PUBLIC	?digits10@?$numeric_limits@_W@std@@2HB		; std::numeric_limits<wchar_t>::digits10
PUBLIC	?_Noreplace@?$_Iosb@H@std@@2W4_Openmode@12@B	; std::_Iosb<int>::_Noreplace
PUBLIC	?binary@?$_Iosb@H@std@@2W4_Openmode@12@B	; std::_Iosb<int>::binary
PUBLIC	?beg@?$_Iosb@H@std@@2W4_Seekdir@12@B		; std::_Iosb<int>::beg
PUBLIC	?cur@?$_Iosb@H@std@@2W4_Seekdir@12@B		; std::_Iosb<int>::cur
PUBLIC	?end@?$_Iosb@H@std@@2W4_Seekdir@12@B		; std::_Iosb<int>::end
PUBLIC	?is_modulo@?$numeric_limits@_N@std@@2_NB	; std::numeric_limits<bool>::is_modulo
PUBLIC	?is_signed@?$numeric_limits@_N@std@@2_NB	; std::numeric_limits<bool>::is_signed
PUBLIC	?digits@?$numeric_limits@_N@std@@2HB		; std::numeric_limits<bool>::digits
PUBLIC	?digits10@?$numeric_limits@_N@std@@2HB		; std::numeric_limits<bool>::digits10
PUBLIC	?_Stream_err@failure@ios_base@std@@0W4io_errc@43@B ; std::ios_base::failure::_Stream_err
PUBLIC	?is_signed@?$numeric_limits@C@std@@2_NB		; std::numeric_limits<signed char>::is_signed
PUBLIC	?digits@?$numeric_limits@C@std@@2HB		; std::numeric_limits<signed char>::digits
PUBLIC	?digits10@?$numeric_limits@C@std@@2HB		; std::numeric_limits<signed char>::digits10
PUBLIC	?is_signed@?$numeric_limits@E@std@@2_NB		; std::numeric_limits<unsigned char>::is_signed
PUBLIC	?value@?$integral_constant@_N$0A@@std@@2_NB	; std::integral_constant<bool,0>::value
PUBLIC	?digits@?$numeric_limits@E@std@@2HB		; std::numeric_limits<unsigned char>::digits
PUBLIC	?digits10@?$numeric_limits@E@std@@2HB		; std::numeric_limits<unsigned char>::digits10
PUBLIC	?value@?$integral_constant@_N$00@std@@2_NB	; std::integral_constant<bool,1>::value
PUBLIC	?is_signed@?$numeric_limits@F@std@@2_NB		; std::numeric_limits<short>::is_signed
PUBLIC	?digits@?$numeric_limits@F@std@@2HB		; std::numeric_limits<short>::digits
PUBLIC	?digits10@?$numeric_limits@F@std@@2HB		; std::numeric_limits<short>::digits10
PUBLIC	?is_signed@?$numeric_limits@G@std@@2_NB		; std::numeric_limits<unsigned short>::is_signed
PUBLIC	?digits@?$numeric_limits@G@std@@2HB		; std::numeric_limits<unsigned short>::digits
PUBLIC	?digits10@?$numeric_limits@G@std@@2HB		; std::numeric_limits<unsigned short>::digits10
PUBLIC	?is_signed@?$numeric_limits@H@std@@2_NB		; std::numeric_limits<int>::is_signed
PUBLIC	?value@?$_Sizeof@HU_Nil@std@@U12@U12@U12@U12@U12@U12@@std@@2IB ; std::_Sizeof<int,std::_Nil,std::_Nil,std::_Nil,std::_Nil,std::_Nil,std::_Nil,std::_Nil>::value
PUBLIC	?digits@?$numeric_limits@H@std@@2HB		; std::numeric_limits<int>::digits
PUBLIC	?digits10@?$numeric_limits@H@std@@2HB		; std::numeric_limits<int>::digits10
PUBLIC	?is_signed@?$numeric_limits@I@std@@2_NB		; std::numeric_limits<unsigned int>::is_signed
PUBLIC	?digits@?$numeric_limits@I@std@@2HB		; std::numeric_limits<unsigned int>::digits
PUBLIC	?digits10@?$numeric_limits@I@std@@2HB		; std::numeric_limits<unsigned int>::digits10
PUBLIC	?is_signed@?$numeric_limits@J@std@@2_NB		; std::numeric_limits<long>::is_signed
PUBLIC	?digits@?$numeric_limits@J@std@@2HB		; std::numeric_limits<long>::digits
PUBLIC	?digits10@?$numeric_limits@J@std@@2HB		; std::numeric_limits<long>::digits10
PUBLIC	?is_signed@?$numeric_limits@K@std@@2_NB		; std::numeric_limits<unsigned long>::is_signed
PUBLIC	?collate@?$_Locbase@H@std@@2HB			; std::_Locbase<int>::collate
PUBLIC	?digits@?$numeric_limits@K@std@@2HB		; std::numeric_limits<unsigned long>::digits
PUBLIC	?ctype@?$_Locbase@H@std@@2HB			; std::_Locbase<int>::ctype
PUBLIC	?monetary@?$_Locbase@H@std@@2HB			; std::_Locbase<int>::monetary
PUBLIC	?digits10@?$numeric_limits@K@std@@2HB		; std::numeric_limits<unsigned long>::digits10
PUBLIC	?numeric@?$_Locbase@H@std@@2HB			; std::_Locbase<int>::numeric
PUBLIC	?time@?$_Locbase@H@std@@2HB			; std::_Locbase<int>::time
PUBLIC	?messages@?$_Locbase@H@std@@2HB			; std::_Locbase<int>::messages
PUBLIC	?all@?$_Locbase@H@std@@2HB			; std::_Locbase<int>::all
PUBLIC	?none@?$_Locbase@H@std@@2HB			; std::_Locbase<int>::none
PUBLIC	?is_signed@?$numeric_limits@_J@std@@2_NB	; std::numeric_limits<__int64>::is_signed
PUBLIC	?digits@?$numeric_limits@_J@std@@2HB		; std::numeric_limits<__int64>::digits
PUBLIC	?digits10@?$numeric_limits@_J@std@@2HB		; std::numeric_limits<__int64>::digits10
PUBLIC	?is_signed@?$numeric_limits@_K@std@@2_NB	; std::numeric_limits<unsigned __int64>::is_signed
PUBLIC	?digits@?$numeric_limits@_K@std@@2HB		; std::numeric_limits<unsigned __int64>::digits
PUBLIC	?digits10@?$numeric_limits@_K@std@@2HB		; std::numeric_limits<unsigned __int64>::digits10
PUBLIC	?digits@?$numeric_limits@M@std@@2HB		; std::numeric_limits<float>::digits
PUBLIC	?digits10@?$numeric_limits@M@std@@2HB		; std::numeric_limits<float>::digits10
PUBLIC	?max_digits10@?$numeric_limits@M@std@@2HB	; std::numeric_limits<float>::max_digits10
PUBLIC	?max_exponent@?$numeric_limits@M@std@@2HB	; std::numeric_limits<float>::max_exponent
PUBLIC	?max_exponent10@?$numeric_limits@M@std@@2HB	; std::numeric_limits<float>::max_exponent10
PUBLIC	?table_size@?$ctype@D@std@@2IB			; std::ctype<char>::table_size
PUBLIC	?min_exponent@?$numeric_limits@M@std@@2HB	; std::numeric_limits<float>::min_exponent
PUBLIC	?min_exponent10@?$numeric_limits@M@std@@2HB	; std::numeric_limits<float>::min_exponent10
PUBLIC	?value@?$integral_constant@I$0A@@std@@2IB	; std::integral_constant<unsigned int,0>::value
PUBLIC	?digits@?$numeric_limits@N@std@@2HB		; std::numeric_limits<double>::digits
PUBLIC	?digits10@?$numeric_limits@N@std@@2HB		; std::numeric_limits<double>::digits10
PUBLIC	?max_digits10@?$numeric_limits@N@std@@2HB	; std::numeric_limits<double>::max_digits10
PUBLIC	?max_exponent@?$numeric_limits@N@std@@2HB	; std::numeric_limits<double>::max_exponent
PUBLIC	?max_exponent10@?$numeric_limits@N@std@@2HB	; std::numeric_limits<double>::max_exponent10
PUBLIC	?min_exponent@?$numeric_limits@N@std@@2HB	; std::numeric_limits<double>::min_exponent
PUBLIC	?min_exponent10@?$numeric_limits@N@std@@2HB	; std::numeric_limits<double>::min_exponent10
PUBLIC	?digits@?$numeric_limits@O@std@@2HB		; std::numeric_limits<long double>::digits
PUBLIC	?digits10@?$numeric_limits@O@std@@2HB		; std::numeric_limits<long double>::digits10
PUBLIC	?max_digits10@?$numeric_limits@O@std@@2HB	; std::numeric_limits<long double>::max_digits10
PUBLIC	?max_exponent@?$numeric_limits@O@std@@2HB	; std::numeric_limits<long double>::max_exponent
PUBLIC	?max_exponent10@?$numeric_limits@O@std@@2HB	; std::numeric_limits<long double>::max_exponent10
PUBLIC	?min_exponent@?$numeric_limits@O@std@@2HB	; std::numeric_limits<long double>::min_exponent
PUBLIC	?min_exponent10@?$numeric_limits@O@std@@2HB	; std::numeric_limits<long double>::min_exponent10
PUBLIC	?value@?$_Sizeof@U_Nil@std@@U12@U12@U12@U12@U12@U12@U12@@std@@2IB ; std::_Sizeof<std::_Nil,std::_Nil,std::_Nil,std::_Nil,std::_Nil,std::_Nil,std::_Nil,std::_Nil>::value
PUBLIC	?has_denorm@_Num_base@std@@2W4float_denorm_style@2@B ; std::_Num_base::has_denorm
PUBLIC	?has_denorm_loss@_Num_base@std@@2_NB		; std::_Num_base::has_denorm_loss
PUBLIC	?has_infinity@_Num_base@std@@2_NB		; std::_Num_base::has_infinity
PUBLIC	?has_quiet_NaN@_Num_base@std@@2_NB		; std::_Num_base::has_quiet_NaN
PUBLIC	?has_signaling_NaN@_Num_base@std@@2_NB		; std::_Num_base::has_signaling_NaN
PUBLIC	?is_bounded@_Num_base@std@@2_NB			; std::_Num_base::is_bounded
PUBLIC	?is_exact@_Num_base@std@@2_NB			; std::_Num_base::is_exact
PUBLIC	?is_iec559@_Num_base@std@@2_NB			; std::_Num_base::is_iec559
PUBLIC	?is_integer@_Num_base@std@@2_NB			; std::_Num_base::is_integer
PUBLIC	?is_modulo@_Num_base@std@@2_NB			; std::_Num_base::is_modulo
PUBLIC	?is_signed@_Num_base@std@@2_NB			; std::_Num_base::is_signed
PUBLIC	?is_specialized@_Num_base@std@@2_NB		; std::_Num_base::is_specialized
PUBLIC	?tinyness_before@_Num_base@std@@2_NB		; std::_Num_base::tinyness_before
;	COMDAT ?tinyness_before@_Num_base@std@@2_NB
CONST	SEGMENT
?tinyness_before@_Num_base@std@@2_NB DB 00H		; std::_Num_base::tinyness_before
CONST	ENDS
;	COMDAT ?is_specialized@_Num_base@std@@2_NB
CONST	SEGMENT
?is_specialized@_Num_base@std@@2_NB DB 00H		; std::_Num_base::is_specialized
CONST	ENDS
;	COMDAT ?is_signed@_Num_base@std@@2_NB
CONST	SEGMENT
?is_signed@_Num_base@std@@2_NB DB 00H			; std::_Num_base::is_signed
CONST	ENDS
;	COMDAT ?is_modulo@_Num_base@std@@2_NB
CONST	SEGMENT
?is_modulo@_Num_base@std@@2_NB DB 00H			; std::_Num_base::is_modulo
CONST	ENDS
;	COMDAT ?is_integer@_Num_base@std@@2_NB
CONST	SEGMENT
?is_integer@_Num_base@std@@2_NB DB 00H			; std::_Num_base::is_integer
CONST	ENDS
;	COMDAT ?is_iec559@_Num_base@std@@2_NB
CONST	SEGMENT
?is_iec559@_Num_base@std@@2_NB DB 00H			; std::_Num_base::is_iec559
CONST	ENDS
;	COMDAT ?is_exact@_Num_base@std@@2_NB
CONST	SEGMENT
?is_exact@_Num_base@std@@2_NB DB 00H			; std::_Num_base::is_exact
CONST	ENDS
;	COMDAT ?is_bounded@_Num_base@std@@2_NB
CONST	SEGMENT
?is_bounded@_Num_base@std@@2_NB DB 00H			; std::_Num_base::is_bounded
CONST	ENDS
;	COMDAT ?has_signaling_NaN@_Num_base@std@@2_NB
CONST	SEGMENT
?has_signaling_NaN@_Num_base@std@@2_NB DB 00H		; std::_Num_base::has_signaling_NaN
CONST	ENDS
;	COMDAT ?has_quiet_NaN@_Num_base@std@@2_NB
CONST	SEGMENT
?has_quiet_NaN@_Num_base@std@@2_NB DB 00H		; std::_Num_base::has_quiet_NaN
CONST	ENDS
;	COMDAT ?has_infinity@_Num_base@std@@2_NB
CONST	SEGMENT
?has_infinity@_Num_base@std@@2_NB DB 00H		; std::_Num_base::has_infinity
CONST	ENDS
;	COMDAT ?has_denorm_loss@_Num_base@std@@2_NB
CONST	SEGMENT
?has_denorm_loss@_Num_base@std@@2_NB DB 00H		; std::_Num_base::has_denorm_loss
CONST	ENDS
;	COMDAT ?has_denorm@_Num_base@std@@2W4float_denorm_style@2@B
CONST	SEGMENT
?has_denorm@_Num_base@std@@2W4float_denorm_style@2@B DD 00H ; std::_Num_base::has_denorm
CONST	ENDS
;	COMDAT ?value@?$_Sizeof@U_Nil@std@@U12@U12@U12@U12@U12@U12@U12@@std@@2IB
CONST	SEGMENT
?value@?$_Sizeof@U_Nil@std@@U12@U12@U12@U12@U12@U12@U12@@std@@2IB DD 00H ; std::_Sizeof<std::_Nil,std::_Nil,std::_Nil,std::_Nil,std::_Nil,std::_Nil,std::_Nil,std::_Nil>::value
CONST	ENDS
_DATA	SEGMENT
_cloudPntList DD 0c5bcc000r			; -6040
	DD	0c4070000r			; -540
	DD	0c694ac00r			; -19030
	DD	0c6de1c00r			; -28430
	DD	0c4dfc000r			; -1790
	DD	046dcc800r			; 28260
	DD	047104200r			; 36930
	DD	045732000r			; 3890
	DD	04744ea00r			; 50410
	DD	045336000r			; 2870
	DD	0c4d48000r			; -1700
	DD	04736da00r			; 46810
	DD	0c763ee00r			; -58350
	DD	0c4d48000r			; -1700
	DD	0c64c1000r			; -13060
	DD	046f2bc00r			; 31070
	DD	045480000r			; 3200
	DD	0c7293800r			; -43320
	DD	0c7bdc400r			; -97160
	DD	0c4d48000r			; -1700
	DD	04576e000r			; 3950
	DD	0c792e000r			; -75200
	DD	0c4bb8000r			; -1500
	DD	047957400r			; 76520
	DD	04759ee00r			; 55790
	DD	0c5a1e000r			; -5180
	DD	0c7a24e00r			; -83100
	DD	0c7473800r			; -51000
	DD	0c3a00000r			; -320
	DD	0c7829100r			; -66850
	DD	047733400r			; 62260
	DD	0c3a00000r			; -320
	DD	047708200r			; 61570
	DD	0c7710e00r			; -61710
	DD	0c550c000r			; -3340
	DD	046fb7c00r			; 32190
	DD	0c7719a00r			; -61850
	DD	0c7483200r			; -51250
	DD	047543a00r			; 54330
	DD	0c5bcc000r			; -6040
	DD	0c7495400r			; -51540
	DD	0c694ac00r			; -19030
	DD	0c6a7a800r			; -21460
	DD	0c74b0200r			; -51970
	DD	0468e8000r			; 18240
	DD	047298800r			; 43400
	DD	0c74bf200r			; -52210
	DD	046bc7000r			; 24120
	DD	0c749f400r			; -51700
	DD	0c74bc000r			; -52160
	DD	046948400r			; 19010
	DD	0c605e800r			; -8570
	DD	0c7488200r			; -51330
	DD	0c74ca600r			; -52390
	DD	04731bc00r			; 45500
	DD	0c7509800r			; -53400
	DD	0c6725800r			; -15510
	DD	0c7719a00r			; -61850
	DD	0c7483200r			; -51250
	DD	047543a00r			; 54330
	DD	047553400r			; 54580
	DD	0c74ddc00r			; -52700
	DD	0479a5600r			; 79020
	DD	047a7e400r			; 85960
	DD	0c74c5600r			; -52310
	DD	0477d4800r			; 64840
	DD	0c7c44500r			; -100490
	DD	0c74d1400r			; -52500
	DD	047ac2600r			; 88140
	DD	0c7a1ae00r			; -82780
	DD	0c749ea00r			; -51690
	DD	0c7bce300r			; -96710
	DD	0c6126800r			; -9370
	DD	0c7495400r			; -51540
	DD	043cd0000r			; 410
	DD	0c6a7a800r			; -21460
	DD	0c74a8a00r			; -51850
	DD	0473fae00r			; 49070
	DD	0457c8000r			; 4040
	DD	0c74e4a00r			; -52810
	DD	047871e00r			; 69180
	DD	0c6cbc000r			; -26080
	DD	0c74bc000r			; -52160
	DD	046984400r			; 19490
	DD	0452fa000r			; 2810
	DD	0c7488200r			; -51330
	DD	0c7081800r			; -34840
	DD	0c7719a00r			; -61850
	DD	0c749d600r			; -51670
	DD	047b17600r			; 90860
	DD	047553400r			; 54580
	DD	0c74ddc00r			; -52700
	DD	0479a5600r			; 79020
	DD	047a7e400r			; 85960
	DD	0c74c5600r			; -52310
	DD	0477d4800r			; 64840
	DD	0c7c44500r			; -100490
	DD	0c74d1400r			; -52500
	DD	047ac2600r			; 88140
	DD	047c04e00r			; 98460
	DD	0c74d1400r			; -52500
	DD	0c732a200r			; -45730
	DD	0467b9000r			; 16100
	DD	0c7487800r			; -51320
	DD	0c749a400r			; -51620
	DD	047636c00r			; 58220
	DD	0c74e0400r			; -52740
	DD	0c760b000r			; -57520
	DD	0c6126800r			; -9370
	DD	0c4070000r			; -540
	DD	043cd0000r			; 410
	DD	0c4e60000r			; -1840
	DD	0c6a30c00r			; -20870
	DD	0470a6600r			; 35430
	DD	0c7230c00r			; -41740
	DD	046924000r			; 18720
	DD	04797d600r			; 77740
	DD	0460d9000r			; 9060
	DD	0c616c800r			; -9650
	DD	0c7921300r			; -74790
_lightningPosList DD 041300000r			; 11
	DD	000000000r			; 0
	DD	040e00000r			; 7
	DD	040a00000r			; 5
	DD	041100000r			; 9
	DD	041000000r			; 8
	DD	041000000r			; 8
	DD	041600000r			; 14
	DD	041800000r			; 16
	DD	041a00000r			; 20
	DD	041200000r			; 10
	DD	041c00000r			; 24
	DD	041300000r			; 11
	DD	041d80000r			; 27
	DD	040c00000r			; 6
	DD	041f00000r			; 30
	DD	040e00000r			; 7
	DD	042040000r			; 33
	DD	03f800000r			; 1
	DD	042180000r			; 38
	DD	040a00000r			; 5
	DD	042280000r			; 42
	DD	040a00000r			; 5
	DD	042340000r			; 45
	DD	041400000r			; 12
	DD	042400000r			; 48
	DD	041a00000r			; 20
	DD	042500000r			; 52
	DD	041a00000r			; 20
	DD	042680000r			; 58
	DD	041b80000r			; 23
	DD	042740000r			; 61
	DD	041b00000r			; 22
	DD	0427c0000r			; 63
	DD	041b00000r			; 22
	DD	042840000r			; 66
	DD	041c80000r			; 25
	DD	042880000r			; 68
	DD	041a00000r			; 20
	DD	0428c0000r			; 70
	DD	041c00000r			; 24
	DD	042960000r			; 75
	DD	041c00000r			; 24
	DD	0429a0000r			; 77
	DD	041f80000r			; 31
	DD	042a00000r			; 80
	DD	041f80000r			; 31
	DD	042a60000r			; 83
	DD	042040000r			; 33
	DD	042b00000r			; 88
	DD	041f80000r			; 31
	DD	042b80000r			; 92
	DD	0423c0000r			; 47
	DD	042ce0000r			; 103
	DD	042380000r			; 46
	DD	042d20000r			; 105
	DD	0423c0000r			; 47
	DD	042d60000r			; 107
	DD	042340000r			; 45
	DD	042e00000r			; 112
	DD	042400000r			; 48
	DD	042e40000r			; 114
	DD	042380000r			; 46
	DD	042ea0000r			; 117
	DD	0422c0000r			; 43
	DD	043000000r			; 128
_DATA	ENDS
;	COMDAT ?min_exponent10@?$numeric_limits@O@std@@2HB
CONST	SEGMENT
?min_exponent10@?$numeric_limits@O@std@@2HB DD 0fffffecdH ; std::numeric_limits<long double>::min_exponent10
CONST	ENDS
;	COMDAT ?min_exponent@?$numeric_limits@O@std@@2HB
CONST	SEGMENT
?min_exponent@?$numeric_limits@O@std@@2HB DD 0fffffc03H	; std::numeric_limits<long double>::min_exponent
CONST	ENDS
;	COMDAT ?max_exponent10@?$numeric_limits@O@std@@2HB
CONST	SEGMENT
?max_exponent10@?$numeric_limits@O@std@@2HB DD 0134H	; std::numeric_limits<long double>::max_exponent10
CONST	ENDS
;	COMDAT ?max_exponent@?$numeric_limits@O@std@@2HB
CONST	SEGMENT
?max_exponent@?$numeric_limits@O@std@@2HB DD 0400H	; std::numeric_limits<long double>::max_exponent
CONST	ENDS
;	COMDAT ?max_digits10@?$numeric_limits@O@std@@2HB
CONST	SEGMENT
?max_digits10@?$numeric_limits@O@std@@2HB DD 011H	; std::numeric_limits<long double>::max_digits10
CONST	ENDS
;	COMDAT ?digits10@?$numeric_limits@O@std@@2HB
CONST	SEGMENT
?digits10@?$numeric_limits@O@std@@2HB DD 0fH		; std::numeric_limits<long double>::digits10
CONST	ENDS
;	COMDAT ?digits@?$numeric_limits@O@std@@2HB
CONST	SEGMENT
?digits@?$numeric_limits@O@std@@2HB DD 035H		; std::numeric_limits<long double>::digits
CONST	ENDS
;	COMDAT ?min_exponent10@?$numeric_limits@N@std@@2HB
CONST	SEGMENT
?min_exponent10@?$numeric_limits@N@std@@2HB DD 0fffffecdH ; std::numeric_limits<double>::min_exponent10
CONST	ENDS
;	COMDAT ?min_exponent@?$numeric_limits@N@std@@2HB
CONST	SEGMENT
?min_exponent@?$numeric_limits@N@std@@2HB DD 0fffffc03H	; std::numeric_limits<double>::min_exponent
CONST	ENDS
;	COMDAT ?max_exponent10@?$numeric_limits@N@std@@2HB
CONST	SEGMENT
?max_exponent10@?$numeric_limits@N@std@@2HB DD 0134H	; std::numeric_limits<double>::max_exponent10
CONST	ENDS
;	COMDAT ?max_exponent@?$numeric_limits@N@std@@2HB
CONST	SEGMENT
?max_exponent@?$numeric_limits@N@std@@2HB DD 0400H	; std::numeric_limits<double>::max_exponent
CONST	ENDS
;	COMDAT ?max_digits10@?$numeric_limits@N@std@@2HB
CONST	SEGMENT
?max_digits10@?$numeric_limits@N@std@@2HB DD 011H	; std::numeric_limits<double>::max_digits10
CONST	ENDS
;	COMDAT ?digits10@?$numeric_limits@N@std@@2HB
CONST	SEGMENT
?digits10@?$numeric_limits@N@std@@2HB DD 0fH		; std::numeric_limits<double>::digits10
CONST	ENDS
;	COMDAT ?digits@?$numeric_limits@N@std@@2HB
CONST	SEGMENT
?digits@?$numeric_limits@N@std@@2HB DD 035H		; std::numeric_limits<double>::digits
CONST	ENDS
;	COMDAT ?value@?$integral_constant@I$0A@@std@@2IB
CONST	SEGMENT
?value@?$integral_constant@I$0A@@std@@2IB DD 00H	; std::integral_constant<unsigned int,0>::value
CONST	ENDS
;	COMDAT ?min_exponent10@?$numeric_limits@M@std@@2HB
CONST	SEGMENT
?min_exponent10@?$numeric_limits@M@std@@2HB DD 0ffffffdbH ; std::numeric_limits<float>::min_exponent10
CONST	ENDS
;	COMDAT ?min_exponent@?$numeric_limits@M@std@@2HB
CONST	SEGMENT
?min_exponent@?$numeric_limits@M@std@@2HB DD 0ffffff83H	; std::numeric_limits<float>::min_exponent
CONST	ENDS
;	COMDAT ?table_size@?$ctype@D@std@@2IB
CONST	SEGMENT
?table_size@?$ctype@D@std@@2IB DD 0100H			; std::ctype<char>::table_size
CONST	ENDS
;	COMDAT ?max_exponent10@?$numeric_limits@M@std@@2HB
CONST	SEGMENT
?max_exponent10@?$numeric_limits@M@std@@2HB DD 026H	; std::numeric_limits<float>::max_exponent10
CONST	ENDS
;	COMDAT ?max_exponent@?$numeric_limits@M@std@@2HB
CONST	SEGMENT
?max_exponent@?$numeric_limits@M@std@@2HB DD 080H	; std::numeric_limits<float>::max_exponent
CONST	ENDS
;	COMDAT ?max_digits10@?$numeric_limits@M@std@@2HB
CONST	SEGMENT
?max_digits10@?$numeric_limits@M@std@@2HB DD 09H	; std::numeric_limits<float>::max_digits10
CONST	ENDS
;	COMDAT ?digits10@?$numeric_limits@M@std@@2HB
CONST	SEGMENT
?digits10@?$numeric_limits@M@std@@2HB DD 06H		; std::numeric_limits<float>::digits10
CONST	ENDS
;	COMDAT ?digits@?$numeric_limits@M@std@@2HB
CONST	SEGMENT
?digits@?$numeric_limits@M@std@@2HB DD 018H		; std::numeric_limits<float>::digits
CONST	ENDS
;	COMDAT ?digits10@?$numeric_limits@_K@std@@2HB
CONST	SEGMENT
?digits10@?$numeric_limits@_K@std@@2HB DD 013H		; std::numeric_limits<unsigned __int64>::digits10
CONST	ENDS
;	COMDAT ?digits@?$numeric_limits@_K@std@@2HB
CONST	SEGMENT
?digits@?$numeric_limits@_K@std@@2HB DD 040H		; std::numeric_limits<unsigned __int64>::digits
CONST	ENDS
;	COMDAT ?is_signed@?$numeric_limits@_K@std@@2_NB
CONST	SEGMENT
?is_signed@?$numeric_limits@_K@std@@2_NB DB 00H		; std::numeric_limits<unsigned __int64>::is_signed
CONST	ENDS
;	COMDAT ?digits10@?$numeric_limits@_J@std@@2HB
CONST	SEGMENT
?digits10@?$numeric_limits@_J@std@@2HB DD 012H		; std::numeric_limits<__int64>::digits10
CONST	ENDS
;	COMDAT ?digits@?$numeric_limits@_J@std@@2HB
CONST	SEGMENT
?digits@?$numeric_limits@_J@std@@2HB DD 03fH		; std::numeric_limits<__int64>::digits
CONST	ENDS
;	COMDAT ?is_signed@?$numeric_limits@_J@std@@2_NB
CONST	SEGMENT
?is_signed@?$numeric_limits@_J@std@@2_NB DB 01H		; std::numeric_limits<__int64>::is_signed
CONST	ENDS
;	COMDAT ?none@?$_Locbase@H@std@@2HB
CONST	SEGMENT
?none@?$_Locbase@H@std@@2HB DD 00H			; std::_Locbase<int>::none
CONST	ENDS
;	COMDAT ?all@?$_Locbase@H@std@@2HB
CONST	SEGMENT
?all@?$_Locbase@H@std@@2HB DD 03fH			; std::_Locbase<int>::all
CONST	ENDS
;	COMDAT ?messages@?$_Locbase@H@std@@2HB
CONST	SEGMENT
?messages@?$_Locbase@H@std@@2HB DD 020H			; std::_Locbase<int>::messages
CONST	ENDS
;	COMDAT ?time@?$_Locbase@H@std@@2HB
CONST	SEGMENT
?time@?$_Locbase@H@std@@2HB DD 010H			; std::_Locbase<int>::time
CONST	ENDS
;	COMDAT ?numeric@?$_Locbase@H@std@@2HB
CONST	SEGMENT
?numeric@?$_Locbase@H@std@@2HB DD 08H			; std::_Locbase<int>::numeric
CONST	ENDS
;	COMDAT ?digits10@?$numeric_limits@K@std@@2HB
CONST	SEGMENT
?digits10@?$numeric_limits@K@std@@2HB DD 09H		; std::numeric_limits<unsigned long>::digits10
CONST	ENDS
;	COMDAT ?monetary@?$_Locbase@H@std@@2HB
CONST	SEGMENT
?monetary@?$_Locbase@H@std@@2HB DD 04H			; std::_Locbase<int>::monetary
CONST	ENDS
;	COMDAT ?ctype@?$_Locbase@H@std@@2HB
CONST	SEGMENT
?ctype@?$_Locbase@H@std@@2HB DD 02H			; std::_Locbase<int>::ctype
CONST	ENDS
;	COMDAT ?digits@?$numeric_limits@K@std@@2HB
CONST	SEGMENT
?digits@?$numeric_limits@K@std@@2HB DD 020H		; std::numeric_limits<unsigned long>::digits
CONST	ENDS
;	COMDAT ?collate@?$_Locbase@H@std@@2HB
CONST	SEGMENT
?collate@?$_Locbase@H@std@@2HB DD 01H			; std::_Locbase<int>::collate
CONST	ENDS
;	COMDAT ?is_signed@?$numeric_limits@K@std@@2_NB
CONST	SEGMENT
?is_signed@?$numeric_limits@K@std@@2_NB DB 00H		; std::numeric_limits<unsigned long>::is_signed
CONST	ENDS
;	COMDAT ?digits10@?$numeric_limits@J@std@@2HB
CONST	SEGMENT
?digits10@?$numeric_limits@J@std@@2HB DD 09H		; std::numeric_limits<long>::digits10
CONST	ENDS
;	COMDAT ?digits@?$numeric_limits@J@std@@2HB
CONST	SEGMENT
?digits@?$numeric_limits@J@std@@2HB DD 01fH		; std::numeric_limits<long>::digits
CONST	ENDS
;	COMDAT ?is_signed@?$numeric_limits@J@std@@2_NB
CONST	SEGMENT
?is_signed@?$numeric_limits@J@std@@2_NB DB 01H		; std::numeric_limits<long>::is_signed
CONST	ENDS
;	COMDAT ?digits10@?$numeric_limits@I@std@@2HB
CONST	SEGMENT
?digits10@?$numeric_limits@I@std@@2HB DD 09H		; std::numeric_limits<unsigned int>::digits10
CONST	ENDS
;	COMDAT ?digits@?$numeric_limits@I@std@@2HB
CONST	SEGMENT
?digits@?$numeric_limits@I@std@@2HB DD 020H		; std::numeric_limits<unsigned int>::digits
CONST	ENDS
;	COMDAT ?is_signed@?$numeric_limits@I@std@@2_NB
CONST	SEGMENT
?is_signed@?$numeric_limits@I@std@@2_NB DB 00H		; std::numeric_limits<unsigned int>::is_signed
CONST	ENDS
;	COMDAT ?digits10@?$numeric_limits@H@std@@2HB
CONST	SEGMENT
?digits10@?$numeric_limits@H@std@@2HB DD 09H		; std::numeric_limits<int>::digits10
CONST	ENDS
;	COMDAT ?digits@?$numeric_limits@H@std@@2HB
CONST	SEGMENT
?digits@?$numeric_limits@H@std@@2HB DD 01fH		; std::numeric_limits<int>::digits
CONST	ENDS
;	COMDAT ?value@?$_Sizeof@HU_Nil@std@@U12@U12@U12@U12@U12@U12@@std@@2IB
CONST	SEGMENT
?value@?$_Sizeof@HU_Nil@std@@U12@U12@U12@U12@U12@U12@@std@@2IB DD 01H ; std::_Sizeof<int,std::_Nil,std::_Nil,std::_Nil,std::_Nil,std::_Nil,std::_Nil,std::_Nil>::value
CONST	ENDS
;	COMDAT ?is_signed@?$numeric_limits@H@std@@2_NB
CONST	SEGMENT
?is_signed@?$numeric_limits@H@std@@2_NB DB 01H		; std::numeric_limits<int>::is_signed
CONST	ENDS
;	COMDAT ?digits10@?$numeric_limits@G@std@@2HB
CONST	SEGMENT
?digits10@?$numeric_limits@G@std@@2HB DD 04H		; std::numeric_limits<unsigned short>::digits10
CONST	ENDS
;	COMDAT ?digits@?$numeric_limits@G@std@@2HB
CONST	SEGMENT
?digits@?$numeric_limits@G@std@@2HB DD 010H		; std::numeric_limits<unsigned short>::digits
CONST	ENDS
;	COMDAT ?is_signed@?$numeric_limits@G@std@@2_NB
CONST	SEGMENT
?is_signed@?$numeric_limits@G@std@@2_NB DB 00H		; std::numeric_limits<unsigned short>::is_signed
CONST	ENDS
;	COMDAT ?digits10@?$numeric_limits@F@std@@2HB
CONST	SEGMENT
?digits10@?$numeric_limits@F@std@@2HB DD 04H		; std::numeric_limits<short>::digits10
CONST	ENDS
;	COMDAT ?digits@?$numeric_limits@F@std@@2HB
CONST	SEGMENT
?digits@?$numeric_limits@F@std@@2HB DD 0fH		; std::numeric_limits<short>::digits
CONST	ENDS
;	COMDAT ?is_signed@?$numeric_limits@F@std@@2_NB
CONST	SEGMENT
?is_signed@?$numeric_limits@F@std@@2_NB DB 01H		; std::numeric_limits<short>::is_signed
CONST	ENDS
;	COMDAT ?value@?$integral_constant@_N$00@std@@2_NB
CONST	SEGMENT
?value@?$integral_constant@_N$00@std@@2_NB DB 01H	; std::integral_constant<bool,1>::value
CONST	ENDS
;	COMDAT ?digits10@?$numeric_limits@E@std@@2HB
CONST	SEGMENT
?digits10@?$numeric_limits@E@std@@2HB DD 02H		; std::numeric_limits<unsigned char>::digits10
CONST	ENDS
;	COMDAT ?digits@?$numeric_limits@E@std@@2HB
CONST	SEGMENT
?digits@?$numeric_limits@E@std@@2HB DD 08H		; std::numeric_limits<unsigned char>::digits
CONST	ENDS
;	COMDAT ?value@?$integral_constant@_N$0A@@std@@2_NB
CONST	SEGMENT
?value@?$integral_constant@_N$0A@@std@@2_NB DB 00H	; std::integral_constant<bool,0>::value
CONST	ENDS
;	COMDAT ?is_signed@?$numeric_limits@E@std@@2_NB
CONST	SEGMENT
?is_signed@?$numeric_limits@E@std@@2_NB DB 00H		; std::numeric_limits<unsigned char>::is_signed
CONST	ENDS
;	COMDAT ?digits10@?$numeric_limits@C@std@@2HB
CONST	SEGMENT
?digits10@?$numeric_limits@C@std@@2HB DD 02H		; std::numeric_limits<signed char>::digits10
CONST	ENDS
;	COMDAT ?digits@?$numeric_limits@C@std@@2HB
CONST	SEGMENT
?digits@?$numeric_limits@C@std@@2HB DD 07H		; std::numeric_limits<signed char>::digits
CONST	ENDS
;	COMDAT ?is_signed@?$numeric_limits@C@std@@2_NB
CONST	SEGMENT
?is_signed@?$numeric_limits@C@std@@2_NB DB 01H		; std::numeric_limits<signed char>::is_signed
CONST	ENDS
CONST	SEGMENT
_L_2	DD	03f317218r			; 0.693147
_NEAR_CLIP DD	03f800000r			; 1
CONST	ENDS
;	COMDAT ?_Stream_err@failure@ios_base@std@@0W4io_errc@43@B
CONST	SEGMENT
?_Stream_err@failure@ios_base@std@@0W4io_errc@43@B DD 01H ; std::ios_base::failure::_Stream_err
CONST	ENDS
;	COMDAT ?digits10@?$numeric_limits@_N@std@@2HB
CONST	SEGMENT
?digits10@?$numeric_limits@_N@std@@2HB DD 00H		; std::numeric_limits<bool>::digits10
CONST	ENDS
;	COMDAT ?digits@?$numeric_limits@_N@std@@2HB
CONST	SEGMENT
?digits@?$numeric_limits@_N@std@@2HB DD 01H		; std::numeric_limits<bool>::digits
CONST	ENDS
;	COMDAT ?is_signed@?$numeric_limits@_N@std@@2_NB
CONST	SEGMENT
?is_signed@?$numeric_limits@_N@std@@2_NB DB 00H		; std::numeric_limits<bool>::is_signed
CONST	ENDS
;	COMDAT ?is_modulo@?$numeric_limits@_N@std@@2_NB
CONST	SEGMENT
?is_modulo@?$numeric_limits@_N@std@@2_NB DB 00H		; std::numeric_limits<bool>::is_modulo
CONST	ENDS
;	COMDAT ?end@?$_Iosb@H@std@@2W4_Seekdir@12@B
CONST	SEGMENT
?end@?$_Iosb@H@std@@2W4_Seekdir@12@B DD 02H		; std::_Iosb<int>::end
CONST	ENDS
;	COMDAT ?cur@?$_Iosb@H@std@@2W4_Seekdir@12@B
CONST	SEGMENT
?cur@?$_Iosb@H@std@@2W4_Seekdir@12@B DD 01H		; std::_Iosb<int>::cur
CONST	ENDS
;	COMDAT ?beg@?$_Iosb@H@std@@2W4_Seekdir@12@B
CONST	SEGMENT
?beg@?$_Iosb@H@std@@2W4_Seekdir@12@B DD 00H		; std::_Iosb<int>::beg
CONST	ENDS
;	COMDAT ?binary@?$_Iosb@H@std@@2W4_Openmode@12@B
CONST	SEGMENT
?binary@?$_Iosb@H@std@@2W4_Openmode@12@B DD 020H	; std::_Iosb<int>::binary
CONST	ENDS
;	COMDAT ?_Noreplace@?$_Iosb@H@std@@2W4_Openmode@12@B
CONST	SEGMENT
?_Noreplace@?$_Iosb@H@std@@2W4_Openmode@12@B DD 080H	; std::_Iosb<int>::_Noreplace
CONST	ENDS
;	COMDAT ?digits10@?$numeric_limits@_W@std@@2HB
CONST	SEGMENT
?digits10@?$numeric_limits@_W@std@@2HB DD 04H		; std::numeric_limits<wchar_t>::digits10
CONST	ENDS
;	COMDAT ?_Nocreate@?$_Iosb@H@std@@2W4_Openmode@12@B
CONST	SEGMENT
?_Nocreate@?$_Iosb@H@std@@2W4_Openmode@12@B DD 040H	; std::_Iosb<int>::_Nocreate
CONST	ENDS
;	COMDAT ?trunc@?$_Iosb@H@std@@2W4_Openmode@12@B
CONST	SEGMENT
?trunc@?$_Iosb@H@std@@2W4_Openmode@12@B DD 010H		; std::_Iosb<int>::trunc
CONST	ENDS
;	COMDAT ?digits@?$numeric_limits@_W@std@@2HB
CONST	SEGMENT
?digits@?$numeric_limits@_W@std@@2HB DD 010H		; std::numeric_limits<wchar_t>::digits
CONST	ENDS
;	COMDAT ?app@?$_Iosb@H@std@@2W4_Openmode@12@B
CONST	SEGMENT
?app@?$_Iosb@H@std@@2W4_Openmode@12@B DD 08H		; std::_Iosb<int>::app
CONST	ENDS
;	COMDAT ?is_signed@?$numeric_limits@_W@std@@2_NB
CONST	SEGMENT
?is_signed@?$numeric_limits@_W@std@@2_NB DB 00H		; std::numeric_limits<wchar_t>::is_signed
CONST	ENDS
;	COMDAT ?ate@?$_Iosb@H@std@@2W4_Openmode@12@B
CONST	SEGMENT
?ate@?$_Iosb@H@std@@2W4_Openmode@12@B DD 04H		; std::_Iosb<int>::ate
CONST	ENDS
;	COMDAT ?out@?$_Iosb@H@std@@2W4_Openmode@12@B
CONST	SEGMENT
?out@?$_Iosb@H@std@@2W4_Openmode@12@B DD 02H		; std::_Iosb<int>::out
CONST	ENDS
;	COMDAT ?in@?$_Iosb@H@std@@2W4_Openmode@12@B
CONST	SEGMENT
?in@?$_Iosb@H@std@@2W4_Openmode@12@B DD 01H		; std::_Iosb<int>::in
CONST	ENDS
;	COMDAT ?_Hardfail@?$_Iosb@H@std@@2W4_Iostate@12@B
CONST	SEGMENT
?_Hardfail@?$_Iosb@H@std@@2W4_Iostate@12@B DD 010H	; std::_Iosb<int>::_Hardfail
CONST	ENDS
;	COMDAT ?badbit@?$_Iosb@H@std@@2W4_Iostate@12@B
CONST	SEGMENT
?badbit@?$_Iosb@H@std@@2W4_Iostate@12@B DD 04H		; std::_Iosb<int>::badbit
CONST	ENDS
;	COMDAT ?failbit@?$_Iosb@H@std@@2W4_Iostate@12@B
CONST	SEGMENT
?failbit@?$_Iosb@H@std@@2W4_Iostate@12@B DD 02H		; std::_Iosb<int>::failbit
CONST	ENDS
;	COMDAT ?eofbit@?$_Iosb@H@std@@2W4_Iostate@12@B
CONST	SEGMENT
?eofbit@?$_Iosb@H@std@@2W4_Iostate@12@B DD 01H		; std::_Iosb<int>::eofbit
CONST	ENDS
;	COMDAT ?goodbit@?$_Iosb@H@std@@2W4_Iostate@12@B
CONST	SEGMENT
?goodbit@?$_Iosb@H@std@@2W4_Iostate@12@B DD 00H		; std::_Iosb<int>::goodbit
CONST	ENDS
;	COMDAT ?floatfield@?$_Iosb@H@std@@2W4_Fmtflags@12@B
CONST	SEGMENT
?floatfield@?$_Iosb@H@std@@2W4_Fmtflags@12@B DD 03000H	; std::_Iosb<int>::floatfield
CONST	ENDS
;	COMDAT ?digits10@?$numeric_limits@D@std@@2HB
CONST	SEGMENT
?digits10@?$numeric_limits@D@std@@2HB DD 02H		; std::numeric_limits<char>::digits10
CONST	ENDS
;	COMDAT ?basefield@?$_Iosb@H@std@@2W4_Fmtflags@12@B
CONST	SEGMENT
?basefield@?$_Iosb@H@std@@2W4_Fmtflags@12@B DD 0e00H	; std::_Iosb<int>::basefield
CONST	ENDS
;	COMDAT ?digits@?$numeric_limits@D@std@@2HB
CONST	SEGMENT
?digits@?$numeric_limits@D@std@@2HB DD 07H		; std::numeric_limits<char>::digits
CONST	ENDS
;	COMDAT ?adjustfield@?$_Iosb@H@std@@2W4_Fmtflags@12@B
CONST	SEGMENT
?adjustfield@?$_Iosb@H@std@@2W4_Fmtflags@12@B DD 01c0H	; std::_Iosb<int>::adjustfield
CONST	ENDS
;	COMDAT ?is_signed@?$numeric_limits@D@std@@2_NB
CONST	SEGMENT
?is_signed@?$numeric_limits@D@std@@2_NB DB 01H		; std::numeric_limits<char>::is_signed
CONST	ENDS
;	COMDAT ?_Stdio@?$_Iosb@H@std@@2W4_Fmtflags@12@B
CONST	SEGMENT
?_Stdio@?$_Iosb@H@std@@2W4_Fmtflags@12@B DD 08000H	; std::_Iosb<int>::_Stdio
CONST	ENDS
;	COMDAT ?boolalpha@?$_Iosb@H@std@@2W4_Fmtflags@12@B
CONST	SEGMENT
?boolalpha@?$_Iosb@H@std@@2W4_Fmtflags@12@B DD 04000H	; std::_Iosb<int>::boolalpha
CONST	ENDS
;	COMDAT ?hexfloat@?$_Iosb@H@std@@2W4_Fmtflags@12@B
CONST	SEGMENT
?hexfloat@?$_Iosb@H@std@@2W4_Fmtflags@12@B DD 03000H	; std::_Iosb<int>::hexfloat
CONST	ENDS
;	COMDAT ?fixed@?$_Iosb@H@std@@2W4_Fmtflags@12@B
CONST	SEGMENT
?fixed@?$_Iosb@H@std@@2W4_Fmtflags@12@B DD 02000H	; std::_Iosb<int>::fixed
CONST	ENDS
;	COMDAT ?scientific@?$_Iosb@H@std@@2W4_Fmtflags@12@B
CONST	SEGMENT
?scientific@?$_Iosb@H@std@@2W4_Fmtflags@12@B DD 01000H	; std::_Iosb<int>::scientific
CONST	ENDS
;	COMDAT ?hex@?$_Iosb@H@std@@2W4_Fmtflags@12@B
CONST	SEGMENT
?hex@?$_Iosb@H@std@@2W4_Fmtflags@12@B DD 0800H		; std::_Iosb<int>::hex
CONST	ENDS
;	COMDAT ?oct@?$_Iosb@H@std@@2W4_Fmtflags@12@B
CONST	SEGMENT
?oct@?$_Iosb@H@std@@2W4_Fmtflags@12@B DD 0400H		; std::_Iosb<int>::oct
CONST	ENDS
;	COMDAT ?radix@_Num_float_base@std@@2HB
CONST	SEGMENT
?radix@_Num_float_base@std@@2HB DD 02H			; std::_Num_float_base::radix
CONST	ENDS
;	COMDAT ?dec@?$_Iosb@H@std@@2W4_Fmtflags@12@B
CONST	SEGMENT
?dec@?$_Iosb@H@std@@2W4_Fmtflags@12@B DD 0200H		; std::_Iosb<int>::dec
CONST	ENDS
;	COMDAT ?round_style@_Num_float_base@std@@2W4float_round_style@2@B
CONST	SEGMENT
?round_style@_Num_float_base@std@@2W4float_round_style@2@B DD 01H ; std::_Num_float_base::round_style
CONST	ENDS
;	COMDAT ?internal@?$_Iosb@H@std@@2W4_Fmtflags@12@B
CONST	SEGMENT
?internal@?$_Iosb@H@std@@2W4_Fmtflags@12@B DD 0100H	; std::_Iosb<int>::internal
CONST	ENDS
;	COMDAT ?traps@_Num_float_base@std@@2_NB
CONST	SEGMENT
?traps@_Num_float_base@std@@2_NB DB 00H			; std::_Num_float_base::traps
CONST	ENDS
;	COMDAT ?right@?$_Iosb@H@std@@2W4_Fmtflags@12@B
CONST	SEGMENT
?right@?$_Iosb@H@std@@2W4_Fmtflags@12@B DD 080H		; std::_Iosb<int>::right
CONST	ENDS
;	COMDAT ?tinyness_before@_Num_float_base@std@@2_NB
CONST	SEGMENT
?tinyness_before@_Num_float_base@std@@2_NB DB 01H	; std::_Num_float_base::tinyness_before
CONST	ENDS
;	COMDAT ?left@?$_Iosb@H@std@@2W4_Fmtflags@12@B
CONST	SEGMENT
?left@?$_Iosb@H@std@@2W4_Fmtflags@12@B DD 040H		; std::_Iosb<int>::left
CONST	ENDS
;	COMDAT ?is_specialized@_Num_float_base@std@@2_NB
CONST	SEGMENT
?is_specialized@_Num_float_base@std@@2_NB DB 01H	; std::_Num_float_base::is_specialized
CONST	ENDS
;	COMDAT ?showpos@?$_Iosb@H@std@@2W4_Fmtflags@12@B
CONST	SEGMENT
?showpos@?$_Iosb@H@std@@2W4_Fmtflags@12@B DD 020H	; std::_Iosb<int>::showpos
CONST	ENDS
;	COMDAT ?is_signed@_Num_float_base@std@@2_NB
CONST	SEGMENT
?is_signed@_Num_float_base@std@@2_NB DB 01H		; std::_Num_float_base::is_signed
CONST	ENDS
;	COMDAT ?showpoint@?$_Iosb@H@std@@2W4_Fmtflags@12@B
CONST	SEGMENT
?showpoint@?$_Iosb@H@std@@2W4_Fmtflags@12@B DD 010H	; std::_Iosb<int>::showpoint
CONST	ENDS
;	COMDAT ?is_modulo@_Num_float_base@std@@2_NB
CONST	SEGMENT
?is_modulo@_Num_float_base@std@@2_NB DB 00H		; std::_Num_float_base::is_modulo
CONST	ENDS
;	COMDAT ?showbase@?$_Iosb@H@std@@2W4_Fmtflags@12@B
CONST	SEGMENT
?showbase@?$_Iosb@H@std@@2W4_Fmtflags@12@B DD 08H	; std::_Iosb<int>::showbase
CONST	ENDS
;	COMDAT ?is_integer@_Num_float_base@std@@2_NB
CONST	SEGMENT
?is_integer@_Num_float_base@std@@2_NB DB 00H		; std::_Num_float_base::is_integer
CONST	ENDS
;	COMDAT ?uppercase@?$_Iosb@H@std@@2W4_Fmtflags@12@B
CONST	SEGMENT
?uppercase@?$_Iosb@H@std@@2W4_Fmtflags@12@B DD 04H	; std::_Iosb<int>::uppercase
CONST	ENDS
;	COMDAT ?is_iec559@_Num_float_base@std@@2_NB
CONST	SEGMENT
?is_iec559@_Num_float_base@std@@2_NB DB 01H		; std::_Num_float_base::is_iec559
CONST	ENDS
;	COMDAT ?unitbuf@?$_Iosb@H@std@@2W4_Fmtflags@12@B
CONST	SEGMENT
?unitbuf@?$_Iosb@H@std@@2W4_Fmtflags@12@B DD 02H	; std::_Iosb<int>::unitbuf
CONST	ENDS
;	COMDAT ?is_exact@_Num_float_base@std@@2_NB
CONST	SEGMENT
?is_exact@_Num_float_base@std@@2_NB DB 00H		; std::_Num_float_base::is_exact
CONST	ENDS
;	COMDAT ?skipws@?$_Iosb@H@std@@2W4_Fmtflags@12@B
CONST	SEGMENT
?skipws@?$_Iosb@H@std@@2W4_Fmtflags@12@B DD 01H		; std::_Iosb<int>::skipws
CONST	ENDS
;	COMDAT ?is_bounded@_Num_float_base@std@@2_NB
CONST	SEGMENT
?is_bounded@_Num_float_base@std@@2_NB DB 01H		; std::_Num_float_base::is_bounded
CONST	ENDS
;	COMDAT ?has_signaling_NaN@_Num_float_base@std@@2_NB
CONST	SEGMENT
?has_signaling_NaN@_Num_float_base@std@@2_NB DB 01H	; std::_Num_float_base::has_signaling_NaN
CONST	ENDS
;	COMDAT ?has_quiet_NaN@_Num_float_base@std@@2_NB
CONST	SEGMENT
?has_quiet_NaN@_Num_float_base@std@@2_NB DB 01H		; std::_Num_float_base::has_quiet_NaN
CONST	ENDS
;	COMDAT ?has_infinity@_Num_float_base@std@@2_NB
CONST	SEGMENT
?has_infinity@_Num_float_base@std@@2_NB DB 01H		; std::_Num_float_base::has_infinity
CONST	ENDS
;	COMDAT ?CMPDIRTYDATA_INTERVAL@FalconEntity@@2KB
CONST	SEGMENT
?CMPDIRTYDATA_INTERVAL@FalconEntity@@2KB DD 0c8H	; FalconEntity::CMPDIRTYDATA_INTERVAL
CONST	ENDS
;	COMDAT ?SIMDIRTYDATA_INTERVAL@FalconEntity@@2KB
CONST	SEGMENT
?SIMDIRTYDATA_INTERVAL@FalconEntity@@2KB DD 0c8H	; FalconEntity::SIMDIRTYDATA_INTERVAL
CONST	ENDS
;	COMDAT ?has_denorm_loss@_Num_float_base@std@@2_NB
CONST	SEGMENT
?has_denorm_loss@_Num_float_base@std@@2_NB DB 01H	; std::_Num_float_base::has_denorm_loss
CONST	ENDS
;	COMDAT ?has_denorm@_Num_float_base@std@@2W4float_denorm_style@2@B
CONST	SEGMENT
?has_denorm@_Num_float_base@std@@2W4float_denorm_style@2@B DD 01H ; std::_Num_float_base::has_denorm
CONST	ENDS
;	COMDAT ?radix@_Num_int_base@std@@2HB
CONST	SEGMENT
?radix@_Num_int_base@std@@2HB DD 02H			; std::_Num_int_base::radix
CONST	ENDS
;	COMDAT ?is_specialized@_Num_int_base@std@@2_NB
CONST	SEGMENT
?is_specialized@_Num_int_base@std@@2_NB DB 01H		; std::_Num_int_base::is_specialized
CONST	ENDS
;	COMDAT ?is_modulo@_Num_int_base@std@@2_NB
CONST	SEGMENT
?is_modulo@_Num_int_base@std@@2_NB DB 01H		; std::_Num_int_base::is_modulo
CONST	ENDS
;	COMDAT ?is_integer@_Num_int_base@std@@2_NB
CONST	SEGMENT
?is_integer@_Num_int_base@std@@2_NB DB 01H		; std::_Num_int_base::is_integer
CONST	ENDS
;	COMDAT ?is_exact@_Num_int_base@std@@2_NB
CONST	SEGMENT
?is_exact@_Num_int_base@std@@2_NB DB 01H		; std::_Num_int_base::is_exact
CONST	ENDS
;	COMDAT ?is_bounded@_Num_int_base@std@@2_NB
CONST	SEGMENT
?is_bounded@_Num_int_base@std@@2_NB DB 01H		; std::_Num_int_base::is_bounded
CONST	ENDS
;	COMDAT ?radix@_Num_base@std@@2HB
CONST	SEGMENT
?radix@_Num_base@std@@2HB DD 00H			; std::_Num_base::radix
CONST	ENDS
;	COMDAT ?min_exponent10@_Num_base@std@@2HB
CONST	SEGMENT
?min_exponent10@_Num_base@std@@2HB DD 00H		; std::_Num_base::min_exponent10
CONST	ENDS
;	COMDAT ?min_exponent@_Num_base@std@@2HB
CONST	SEGMENT
?min_exponent@_Num_base@std@@2HB DD 00H			; std::_Num_base::min_exponent
CONST	ENDS
;	COMDAT ?max_exponent10@_Num_base@std@@2HB
CONST	SEGMENT
?max_exponent10@_Num_base@std@@2HB DD 00H		; std::_Num_base::max_exponent10
CONST	ENDS
;	COMDAT ?max_exponent@_Num_base@std@@2HB
CONST	SEGMENT
?max_exponent@_Num_base@std@@2HB DD 00H			; std::_Num_base::max_exponent
CONST	ENDS
;	COMDAT ?max_digits10@_Num_base@std@@2HB
CONST	SEGMENT
?max_digits10@_Num_base@std@@2HB DD 00H			; std::_Num_base::max_digits10
CONST	ENDS
;	COMDAT ?digits10@_Num_base@std@@2HB
CONST	SEGMENT
?digits10@_Num_base@std@@2HB DD 00H			; std::_Num_base::digits10
CONST	ENDS
;	COMDAT ?digits@_Num_base@std@@2HB
CONST	SEGMENT
?digits@_Num_base@std@@2HB DD 00H			; std::_Num_base::digits
CONST	ENDS
;	COMDAT ?round_style@_Num_base@std@@2W4float_round_style@2@B
CONST	SEGMENT
?round_style@_Num_base@std@@2W4float_round_style@2@B DD 00H ; std::_Num_base::round_style
CONST	ENDS
;	COMDAT ?traps@_Num_base@std@@2_NB
CONST	SEGMENT
?traps@_Num_base@std@@2_NB DB 00H			; std::_Num_base::traps
CONST	ENDS
PUBLIC	_fabsf
PUBLIC	_atanf
PUBLIC	?atan@@YAMM@Z					; atan
PUBLIC	?fabs@@YAMM@Z					; fabs
PUBLIC	?Type@VuEntity@@QBEGXZ				; VuEntity::Type
PUBLIC	?XPos@VuEntity@@QBEMXZ				; VuEntity::XPos
PUBLIC	?YPos@VuEntity@@QBEMXZ				; VuEntity::YPos
PUBLIC	?ZPos@VuEntity@@QBEMXZ				; VuEntity::ZPos
PUBLIC	?XDelta@VuEntity@@QBEMXZ			; VuEntity::XDelta
PUBLIC	?YDelta@VuEntity@@QBEMXZ			; VuEntity::YDelta
PUBLIC	?ZDelta@VuEntity@@QBEMXZ			; VuEntity::ZDelta
PUBLIC	?Yaw@VuEntity@@QBEMXZ				; VuEntity::Yaw
PUBLIC	?Pitch@VuEntity@@QBEMXZ				; VuEntity::Pitch
PUBLIC	??2@YAPAXIPAX@Z					; operator new
PUBLIC	??3@YAXPAX0@Z					; operator delete
PUBLIC	?length@?$char_traits@D@std@@SAIPBD@Z		; std::char_traits<char>::length
PUBLIC	?copy@?$char_traits@D@std@@SAPADPADPBDI@Z	; std::char_traits<char>::copy
PUBLIC	?move@?$char_traits@D@std@@SAPADPADPBDI@Z	; std::char_traits<char>::move
PUBLIC	?assign@?$char_traits@D@std@@SAXAADABD@Z	; std::char_traits<char>::assign
PUBLIC	??0?$allocator@D@std@@QAE@XZ			; std::allocator<char>::allocator<char>
PUBLIC	?deallocate@?$allocator@D@std@@QAEXPADI@Z	; std::allocator<char>::deallocate
PUBLIC	?allocate@?$allocator@D@std@@QAEPADI@Z		; std::allocator<char>::allocate
PUBLIC	?max_size@?$allocator@D@std@@QBEIXZ		; std::allocator<char>::max_size
PUBLIC	?max_size@?$allocator_traits@V?$allocator@D@std@@@std@@SAIABV?$allocator@D@2@@Z ; std::allocator_traits<std::allocator<char> >::max_size
PUBLIC	??0?$_Wrap_alloc@V?$allocator@D@std@@@std@@QAE@XZ ; std::_Wrap_alloc<std::allocator<char> >::_Wrap_alloc<std::allocator<char> >
PUBLIC	?allocate@?$_Wrap_alloc@V?$allocator@D@std@@@std@@QAEPADI@Z ; std::_Wrap_alloc<std::allocator<char> >::allocate
PUBLIC	?deallocate@?$_Wrap_alloc@V?$allocator@D@std@@@std@@QAEXPADI@Z ; std::_Wrap_alloc<std::allocator<char> >::deallocate
PUBLIC	?max_size@?$_Wrap_alloc@V?$allocator@D@std@@@std@@QBEIXZ ; std::_Wrap_alloc<std::allocator<char> >::max_size
PUBLIC	??0?$_String_val@U?$_Simple_types@D@std@@@std@@QAE@XZ ; std::_String_val<std::_Simple_types<char> >::_String_val<std::_Simple_types<char> >
PUBLIC	?_Myptr@?$_String_val@U?$_Simple_types@D@std@@@std@@QAEPADXZ ; std::_String_val<std::_Simple_types<char> >::_Myptr
PUBLIC	?_Myptr@?$_String_val@U?$_Simple_types@D@std@@@std@@QBEPBDXZ ; std::_String_val<std::_Simple_types<char> >::_Myptr
PUBLIC	??0?$_String_alloc@$0A@U?$_String_base_types@DV?$allocator@D@std@@@std@@@std@@QAE@ABV?$allocator@D@1@@Z ; std::_String_alloc<0,std::_String_base_types<char,std::allocator<char> > >::_String_alloc<0,std::_String_base_types<char,std::allocator<char> > >
PUBLIC	?_Getal@?$_String_alloc@$0A@U?$_String_base_types@DV?$allocator@D@std@@@std@@@std@@QBE?AU?$_Wrap_alloc@V?$allocator@D@std@@@2@XZ ; std::_String_alloc<0,std::_String_base_types<char,std::allocator<char> > >::_Getal
PUBLIC	??0?$basic_string@DU?$char_traits@D@std@@V?$allocator@D@2@@std@@QAE@PBD@Z ; std::basic_string<char,std::char_traits<char>,std::allocator<char> >::basic_string<char,std::char_traits<char>,std::allocator<char> >
PUBLIC	?assign@?$basic_string@DU?$char_traits@D@std@@V?$allocator@D@2@@std@@QAEAAV12@ABV12@II@Z ; std::basic_string<char,std::char_traits<char>,std::allocator<char> >::assign
PUBLIC	?assign@?$basic_string@DU?$char_traits@D@std@@V?$allocator@D@2@@std@@QAEAAV12@PBDI@Z ; std::basic_string<char,std::char_traits<char>,std::allocator<char> >::assign
PUBLIC	?assign@?$basic_string@DU?$char_traits@D@std@@V?$allocator@D@2@@std@@QAEAAV12@PBD@Z ; std::basic_string<char,std::char_traits<char>,std::allocator<char> >::assign
PUBLIC	?erase@?$basic_string@DU?$char_traits@D@std@@V?$allocator@D@2@@std@@QAEAAV12@I@Z ; std::basic_string<char,std::char_traits<char>,std::allocator<char> >::erase
PUBLIC	?erase@?$basic_string@DU?$char_traits@D@std@@V?$allocator@D@2@@std@@QAEAAV12@II@Z ; std::basic_string<char,std::char_traits<char>,std::allocator<char> >::erase
PUBLIC	?size@?$basic_string@DU?$char_traits@D@std@@V?$allocator@D@2@@std@@QBEIXZ ; std::basic_string<char,std::char_traits<char>,std::allocator<char> >::size
PUBLIC	?max_size@?$basic_string@DU?$char_traits@D@std@@V?$allocator@D@2@@std@@QBEIXZ ; std::basic_string<char,std::char_traits<char>,std::allocator<char> >::max_size
PUBLIC	?_Copy@?$basic_string@DU?$char_traits@D@std@@V?$allocator@D@2@@std@@QAEXII@Z ; std::basic_string<char,std::char_traits<char>,std::allocator<char> >::_Copy
PUBLIC	?_Eos@?$basic_string@DU?$char_traits@D@std@@V?$allocator@D@2@@std@@QAEXI@Z ; std::basic_string<char,std::char_traits<char>,std::allocator<char> >::_Eos
PUBLIC	?_Grow@?$basic_string@DU?$char_traits@D@std@@V?$allocator@D@2@@std@@QAE_NI_N@Z ; std::basic_string<char,std::char_traits<char>,std::allocator<char> >::_Grow
PUBLIC	?_Inside@?$basic_string@DU?$char_traits@D@std@@V?$allocator@D@2@@std@@QAE_NPBD@Z ; std::basic_string<char,std::char_traits<char>,std::allocator<char> >::_Inside
PUBLIC	?_Tidy@?$basic_string@DU?$char_traits@D@std@@V?$allocator@D@2@@std@@QAEX_NI@Z ; std::basic_string<char,std::char_traits<char>,std::allocator<char> >::_Tidy
PUBLIC	?_Xlen@?$basic_string@DU?$char_traits@D@std@@V?$allocator@D@2@@std@@QBEXXZ ; std::basic_string<char,std::char_traits<char>,std::allocator<char> >::_Xlen
PUBLIC	?_Xran@?$basic_string@DU?$char_traits@D@std@@V?$allocator@D@2@@std@@QBEXXZ ; std::basic_string<char,std::char_traits<char>,std::allocator<char> >::_Xran
PUBLIC	?IsSim@FalconEntity@@QAEHXZ			; FalconEntity::IsSim
PUBLIC	?mlSinCos@@YAXPAUmlTrig@@M@Z			; mlSinCos
PUBLIC	?checked_atan2@@YANNN@Z				; checked_atan2
PUBLIC	?get@?$VuBin@VCampBaseClass@@@@QBEPAVCampBaseClass@@XZ ; VuBin<CampBaseClass>::get
PUBLIC	?GetCampaignObject@SimBaseClass@@QAEPAVCampBaseClass@@XZ ; SimBaseClass::GetCampaignObject
PUBLIC	?get@?$VuBin@VFalconEntity@@@@QBEPAVFalconEntity@@XZ ; VuBin<FalconEntity>::get
PUBLIC	?SetDOF@SimMoverClass@@QAEXHM@Z			; SimMoverClass::SetDOF
PUBLIC	?SetDOFInc@SimMoverClass@@QAEXHM@Z		; SimMoverClass::SetDOFInc
PUBLIC	?GetDOFValue@SimMoverClass@@QAEMH@Z		; SimMoverClass::GetDOFValue
PUBLIC	??0?$VuBin@VSimWeaponClass@@@@QAE@PAVSimWeaponClass@@@Z ; VuBin<SimWeaponClass>::VuBin<SimWeaponClass>
PUBLIC	??1?$VuBin@VSimWeaponClass@@@@QAE@XZ		; VuBin<SimWeaponClass>::~VuBin<SimWeaponClass>
PUBLIC	??7?$VuBin@VSimWeaponClass@@@@QBE_NXZ		; VuBin<SimWeaponClass>::operator!
PUBLIC	??C?$VuBin@VSimWeaponClass@@@@QBEPAVSimWeaponClass@@XZ ; VuBin<SimWeaponClass>::operator->
PUBLIC	?get@?$VuBin@VSimWeaponClass@@@@QBEPAVSimWeaponClass@@XZ ; VuBin<SimWeaponClass>::get
PUBLIC	?Type@SensorClass@@QAE?AW4SensorType@1@XZ	; SensorClass::Type
PUBLIC	?CurrentTarget@SensorClass@@QAEPAVSimObjectType@@XZ ; SensorClass::CurrentTarget
PUBLIC	?GetCurrentWeaponHardpoint@SMSBaseClass@@QAEHXZ	; SMSBaseClass::GetCurrentWeaponHardpoint
PUBLIC	?NumHardpoints@SMSBaseClass@@QAEHXZ		; SMSBaseClass::NumHardpoints
PUBLIC	?CurHardpoint@SMSBaseClass@@QAEHXZ		; SMSBaseClass::CurHardpoint
PUBLIC	??0id@locale@std@@QAE@I@Z			; std::locale::id::id
PUBLIC	?generic_category@std@@YAABVerror_category@1@XZ	; std::generic_category
PUBLIC	?system_category@std@@YAABVerror_category@1@XZ	; std::system_category
PUBLIC	??0error_category@std@@QAE@XZ			; std::error_category::error_category
PUBLIC	??1error_category@std@@UAE@XZ			; std::error_category::~error_category
PUBLIC	?default_error_condition@error_category@std@@UBE?AVerror_condition@2@H@Z ; std::error_category::default_error_condition
PUBLIC	?equivalent@error_category@std@@UBE_NHABVerror_condition@2@@Z ; std::error_category::equivalent
PUBLIC	?equivalent@error_category@std@@UBE_NABVerror_code@2@H@Z ; std::error_category::equivalent
PUBLIC	??8error_category@std@@QBE_NABV01@@Z		; std::error_category::operator==
PUBLIC	??_Gerror_category@std@@UAEPAXI@Z		; std::error_category::`scalar deleting destructor'
PUBLIC	?value@error_code@std@@QBEHXZ			; std::error_code::value
PUBLIC	?category@error_code@std@@QBEABVerror_category@2@XZ ; std::error_code::category
PUBLIC	??0error_condition@std@@QAE@HABVerror_category@1@@Z ; std::error_condition::error_condition
PUBLIC	?value@error_condition@std@@QBEHXZ		; std::error_condition::value
PUBLIC	?category@error_condition@std@@QBEABVerror_category@2@XZ ; std::error_condition::category
PUBLIC	??8error_condition@std@@QBE_NABV01@@Z		; std::error_condition::operator==
PUBLIC	??0_Generic_error_category@std@@QAE@XZ		; std::_Generic_error_category::_Generic_error_category
PUBLIC	?name@_Generic_error_category@std@@UBEPBDXZ	; std::_Generic_error_category::name
PUBLIC	?message@_Generic_error_category@std@@UBE?AV?$basic_string@DU?$char_traits@D@std@@V?$allocator@D@2@@2@H@Z ; std::_Generic_error_category::message
PUBLIC	??1_Generic_error_category@std@@UAE@XZ		; std::_Generic_error_category::~_Generic_error_category
PUBLIC	??_G_Generic_error_category@std@@UAEPAXI@Z	; std::_Generic_error_category::`scalar deleting destructor'
PUBLIC	??0_Iostream_error_category@std@@QAE@XZ		; std::_Iostream_error_category::_Iostream_error_category
PUBLIC	?name@_Iostream_error_category@std@@UBEPBDXZ	; std::_Iostream_error_category::name
PUBLIC	?message@_Iostream_error_category@std@@UBE?AV?$basic_string@DU?$char_traits@D@std@@V?$allocator@D@2@@2@H@Z ; std::_Iostream_error_category::message
PUBLIC	??1_Iostream_error_category@std@@UAE@XZ		; std::_Iostream_error_category::~_Iostream_error_category
PUBLIC	??_G_Iostream_error_category@std@@UAEPAXI@Z	; std::_Iostream_error_category::`scalar deleting destructor'
PUBLIC	??0_System_error_category@std@@QAE@XZ		; std::_System_error_category::_System_error_category
PUBLIC	?name@_System_error_category@std@@UBEPBDXZ	; std::_System_error_category::name
PUBLIC	?message@_System_error_category@std@@UBE?AV?$basic_string@DU?$char_traits@D@std@@V?$allocator@D@2@@2@H@Z ; std::_System_error_category::message
PUBLIC	?default_error_condition@_System_error_category@std@@UBE?AVerror_condition@2@H@Z ; std::_System_error_category::default_error_condition
PUBLIC	??1_System_error_category@std@@UAE@XZ		; std::_System_error_category::~_System_error_category
PUBLIC	??_G_System_error_category@std@@UAEPAXI@Z	; std::_System_error_category::`scalar deleting destructor'
PUBLIC	?BaseData@SimObjectType@@QAEPAVFalconEntity@@XZ	; SimObjectType::BaseData
PUBLIC	?GetComponents@CampBaseClass@@QBEPAVTailInsertList@@XZ ; CampBaseClass::GetComponents
PUBLIC	?GenerateFastRandom@@YAJXZ			; GenerateFastRandom
PUBLIC	?PRANDFloat@@YAMXZ				; PRANDFloat
PUBLIC	?PRANDFloatPos@@YAMXZ				; PRANDFloatPos
PUBLIC	?MissileTrack@GroundClass@@QAEHXZ		; GroundClass::MissileTrack
PUBLIC	?GunTrack@GroundClass@@QAEHXZ			; GroundClass::GunTrack
PUBLIC	?FindBattalionFireControl@GroundClass@@QAEXXZ	; GroundClass::FindBattalionFireControl
PUBLIC	?IsGunFiring@GroundClass@@QAEHH@Z		; GroundClass::IsGunFiring
PUBLIC	?SetGunFiring@GroundClass@@QAEXH@Z		; GroundClass::SetGunFiring
PUBLIC	?UnSetGunFiring@GroundClass@@QAEXH@Z		; GroundClass::UnSetGunFiring
PUBLIC	?DoWeapons@GroundClass@@QAEHXZ			; GroundClass::DoWeapons
PUBLIC	?RotateTurret@GroundClass@@QAEXXZ		; GroundClass::RotateTurret
PUBLIC	?WeaponKeepAlive@GroundClass@@UAEXXZ		; GroundClass::WeaponKeepAlive
PUBLIC	??$construct@PADAAPAD@?$_Wrap_alloc@V?$allocator@D@std@@@std@@QAEXPAPADAAPAD@Z ; std::_Wrap_alloc<std::allocator<char> >::construct<char *,char * &>
PUBLIC	??$destroy@PAD@?$_Wrap_alloc@V?$allocator@D@std@@@std@@QAEXPAPAD@Z ; std::_Wrap_alloc<std::allocator<char> >::destroy<char *>
PUBLIC	??$addressof@D@std@@YAPADAAD@Z			; std::addressof<char>
PUBLIC	??$_Allocate@D@std@@YAPADIPAD@Z			; std::_Allocate<char>
PUBLIC	??$forward@AAPAD@std@@YAAAPADAAPAD@Z		; std::forward<char * &>
PUBLIC	??$construct@PADAAPAD@?$allocator_traits@V?$allocator@D@std@@@std@@SAXAAV?$allocator@D@1@PAPADAAPAD@Z ; std::allocator_traits<std::allocator<char> >::construct<char *,char * &>
PUBLIC	??$destroy@PAD@?$allocator_traits@V?$allocator@D@std@@@std@@SAXAAV?$allocator@D@1@PAPAD@Z ; std::allocator_traits<std::allocator<char> >::destroy<char *>
PUBLIC	??$construct@PADAAPAD@?$allocator@D@std@@QAEXPAPADAAPAD@Z ; std::allocator<char>::construct<char *,char * &>
PUBLIC	??$destroy@PAD@?$allocator@D@std@@QAEXPAPAD@Z	; std::allocator<char>::destroy<char *>
PUBLIC	??_7error_category@std@@6B@			; std::error_category::`vftable'
PUBLIC	??_7_Generic_error_category@std@@6B@		; std::_Generic_error_category::`vftable'
PUBLIC	??_C@_07DCLBNMLN@generic?$AA@			; `string'
PUBLIC	??_C@_0O@BFJCFAAK@unknown?5error?$AA@		; `string'
PUBLIC	??_7_Iostream_error_category@std@@6B@		; std::_Iostream_error_category::`vftable'
PUBLIC	??_C@_08LLGCOLLL@iostream?$AA@			; `string'
PUBLIC	??_C@_0BG@PADBLCHM@iostream?5stream?5error?$AA@	; `string'
PUBLIC	??_7_System_error_category@std@@6B@		; std::_System_error_category::`vftable'
PUBLIC	??_C@_06FHFOAHML@system?$AA@			; `string'
PUBLIC	?_Generic_object@?$_Error_objects@H@std@@2V_Generic_error_category@2@A ; std::_Error_objects<int>::_Generic_object
PUBLIC	?_Iostream_object@?$_Error_objects@H@std@@2V_Iostream_error_category@2@A ; std::_Error_objects<int>::_Iostream_object
PUBLIC	?_System_object@?$_Error_objects@H@std@@2V_System_error_category@2@A ; std::_Error_objects<int>::_System_object
PUBLIC	?id@?$num_put@DV?$back_insert_iterator@V?$basic_string@DU?$char_traits@D@std@@V?$allocator@D@2@@std@@@std@@@std@@2V0locale@2@A ; std::num_put<char,std::back_insert_iterator<std::basic_string<char,std::char_traits<char>,std::allocator<char> > > >::id
PUBLIC	?id@?$num_put@_WV?$back_insert_iterator@V?$basic_string@_WU?$char_traits@_W@std@@V?$allocator@_W@2@@std@@@std@@@std@@2V0locale@2@A ; std::num_put<wchar_t,std::back_insert_iterator<std::basic_string<wchar_t,std::char_traits<wchar_t>,std::allocator<wchar_t> > > >::id
PUBLIC	?LastRandom@?1??GenerateFastRandom@@YAJXZ@4JA	; `GenerateFastRandom'::`2'::LastRandom
PUBLIC	??_C@_0EG@PGMHPFGC@Tracer?5keepalive?5stopped?4?5?5Zpos?5@ ; `string'
PUBLIC	?id@?$numpunct@D@std@@2V0locale@2@A		; std::numpunct<char>::id
PUBLIC	?id@?$numpunct@_W@std@@2V0locale@2@A		; std::numpunct<wchar_t>::id
PUBLIC	??_C@_0BI@CFPLBAOH@invalid?5string?5position?$AA@ ; `string'
PUBLIC	??_C@_0BA@JFNIOLAK@string?5too?5long?$AA@	; `string'
PUBLIC	??_R4error_category@std@@6B@			; std::error_category::`RTTI Complete Object Locator'
PUBLIC	??_R0?AVerror_category@std@@@8			; std::error_category `RTTI Type Descriptor'
PUBLIC	??_R3error_category@std@@8			; std::error_category::`RTTI Class Hierarchy Descriptor'
PUBLIC	??_R2error_category@std@@8			; std::error_category::`RTTI Base Class Array'
PUBLIC	??_R1A@?0A@EA@error_category@std@@8		; std::error_category::`RTTI Base Class Descriptor at (0,-1,0,64)'
PUBLIC	??_R4_Generic_error_category@std@@6B@		; std::_Generic_error_category::`RTTI Complete Object Locator'
PUBLIC	??_R0?AV_Generic_error_category@std@@@8		; std::_Generic_error_category `RTTI Type Descriptor'
PUBLIC	??_R3_Generic_error_category@std@@8		; std::_Generic_error_category::`RTTI Class Hierarchy Descriptor'
PUBLIC	??_R2_Generic_error_category@std@@8		; std::_Generic_error_category::`RTTI Base Class Array'
PUBLIC	??_R1A@?0A@EA@_Generic_error_category@std@@8	; std::_Generic_error_category::`RTTI Base Class Descriptor at (0,-1,0,64)'
PUBLIC	??_R4_Iostream_error_category@std@@6B@		; std::_Iostream_error_category::`RTTI Complete Object Locator'
PUBLIC	??_R0?AV_Iostream_error_category@std@@@8	; std::_Iostream_error_category `RTTI Type Descriptor'
PUBLIC	??_R3_Iostream_error_category@std@@8		; std::_Iostream_error_category::`RTTI Class Hierarchy Descriptor'
PUBLIC	??_R2_Iostream_error_category@std@@8		; std::_Iostream_error_category::`RTTI Base Class Array'
PUBLIC	??_R1A@?0A@EA@_Iostream_error_category@std@@8	; std::_Iostream_error_category::`RTTI Base Class Descriptor at (0,-1,0,64)'
PUBLIC	??_R4_System_error_category@std@@6B@		; std::_System_error_category::`RTTI Complete Object Locator'
PUBLIC	??_R0?AV_System_error_category@std@@@8		; std::_System_error_category `RTTI Type Descriptor'
PUBLIC	??_R3_System_error_category@std@@8		; std::_System_error_category::`RTTI Class Hierarchy Descriptor'
PUBLIC	??_R2_System_error_category@std@@8		; std::_System_error_category::`RTTI Base Class Array'
PUBLIC	??_R1A@?0A@EA@_System_error_category@std@@8	; std::_System_error_category::`RTTI Base Class Descriptor at (0,-1,0,64)'
PUBLIC	__real@00000000
PUBLIC	__real@0000000000000000
PUBLIC	__real@3c8efa34
PUBLIC	__real@3db2b8c1
PUBLIC	__real@3dcccccd
PUBLIC	__real@3e860a91
PUBLIC	__real@3f060a91
PUBLIC	__real@3f2a7efa
PUBLIC	__real@3f333333
PUBLIC	__real@3f490fd9
PUBLIC	__real@3f800000
PUBLIC	__real@3fbde44d
PUBLIC	__real@3ff921fb54442d18
PUBLIC	__real@40000000
PUBLIC	__real@400921fb54442d18
PUBLIC	__real@40400000
PUBLIC	__real@40490fd9
PUBLIC	__real@40800000
PUBLIC	__real@40a00000
PUBLIC	__real@40c90fd9
PUBLIC	__real@41f00000
PUBLIC	__real@42b40000
PUBLIC	__real@454cffae
PUBLIC	__real@45bde1b0
PUBLIC	__real@477fff00
PUBLIC	__real@8000000000000000
PUBLIC	__real@bf800000
PUBLIC	__real@bff921fb54442d18
PUBLIC	__real@c0490fd9
PUBLIC	__real@c0800000
PUBLIC	__real@c2000000
PUBLIC	__real@c47a0000
PUBLIC	__real@c4fa0000
PUBLIC	__xmm@41f00000000000000000000000000000
PUBLIC	__xmm@80000000800000008000000080000000
EXTRN	__purecall:PROC
EXTRN	??2@YAPAXI@Z:PROC				; operator new
EXTRN	??3@YAXPAX@Z:PROC				; operator delete
EXTRN	_atexit:PROC
EXTRN	_atan:PROC
EXTRN	_fabs:PROC
EXTRN	_rand:PROC
EXTRN	_memcpy:PROC
EXTRN	_strlen:PROC
EXTRN	_memmove:PROC
EXTRN	_MonoPrint:PROC
EXTRN	?VuReferenceEntity@@YAHPAVVuEntity@@@Z:PROC	; VuReferenceEntity
EXTRN	?VuDeReferenceEntity@@YAHPAVVuEntity@@@Z:PROC	; VuDeReferenceEntity
EXTRN	?SetPosition@VuEntity@@QAEXMMM@Z:PROC		; VuEntity::SetPosition
EXTRN	?_Xbad_alloc@std@@YAXXZ:PROC			; std::_Xbad_alloc
EXTRN	?_Xlength_error@std@@YAXPBD@Z:PROC		; std::_Xlength_error
EXTRN	?_Xout_of_range@std@@YAXPBD@Z:PROC		; std::_Xout_of_range
EXTRN	?Insert@VuDatabase@@QAEHPAVVuEntity@@@Z:PROC	; VuDatabase::Insert
EXTRN	??0VuListIterator@@QAE@PAVVuLinkedList@@@Z:PROC	; VuListIterator::VuListIterator
EXTRN	??1VuListIterator@@UAE@XZ:PROC			; VuListIterator::~VuListIterator
EXTRN	?GetFirst@VuListIterator@@QAEPAVVuEntity@@XZ:PROC ; VuListIterator::GetFirst
EXTRN	?GetNext@VuListIterator@@QAEPAVVuEntity@@XZ:PROC ; VuListIterator::GetNext
EXTRN	?CalcRelAzElRangeAta@@YAXPAVSimBaseClass@@PAVSimObjectType@@@Z:PROC ; CalcRelAzElRangeAta
EXTRN	?FindCollisionPoint@@YAHPAVSimBaseClass@@0PAUvector@@M@Z:PROC ; FindCollisionPoint
EXTRN	?Sfx@F4SoundPos@@QAEXHHMM@Z:PROC		; F4SoundPos::Sfx
EXTRN	?SetTarget@SimMoverClass@@QAEXPAVSimObjectType@@@Z:PROC ; SimMoverClass::SetTarget
EXTRN	?GetWCD@SimWeaponClass@@QAEPAUWeaponClassDataType@@XZ:PROC ; SimWeaponClass::GetWCD
EXTRN	?FindSensor@@YAPAVSensorClass@@PAVSimMoverClass@@H@Z:PROC ; FindSensor
EXTRN	?CanDetectObject@IrstClass@@QAEHPAVSimObjectType@@@Z:PROC ; IrstClass::CanDetectObject
EXTRN	?GetGun@SMSBaseClass@@QAEPAVGunClass@@H@Z:PROC	; SMSBaseClass::GetGun
EXTRN	?LaunchWeapon@SMSBaseClass@@QAEXXZ:PROC		; SMSBaseClass::LaunchWeapon
EXTRN	?SetPosition@GunClass@@QAEXMMMMM@Z:PROC		; GunClass::SetPosition
EXTRN	?Exec@GunClass@@QAEHPAHQAY02MPAVObjectGeometry@@PAVSimObjectType@@H@Z:PROC ; GunClass::Exec
EXTRN	?IsShell@GunClass@@QAEHXZ:PROC			; GunClass::IsShell
EXTRN	?IsTracer@GunClass@@QAEHXZ:PROC			; GunClass::IsTracer
EXTRN	?FireShell@GunClass@@QAEXPAVSimObjectType@@@Z:PROC ; GunClass::FireShell
EXTRN	??_Eerror_category@std@@UAEPAXI@Z:PROC		; std::error_category::`vector deleting destructor'
EXTRN	?_Syserror_map@std@@YAPBDH@Z:PROC		; std::_Syserror_map
EXTRN	?_Winerror_map@std@@YAPBDH@Z:PROC		; std::_Winerror_map
EXTRN	??_E_Generic_error_category@std@@UAEPAXI@Z:PROC	; std::_Generic_error_category::`vector deleting destructor'
EXTRN	??_E_Iostream_error_category@std@@UAEPAXI@Z:PROC ; std::_Iostream_error_category::`vector deleting destructor'
EXTRN	??_E_System_error_category@std@@UAEPAXI@Z:PROC	; std::_System_error_category::`vector deleting destructor'
EXTRN	?GetGroundLevel@OTWDriverClass@@QAEMMMPAUTpoint@@@Z:PROC ; OTWDriverClass::GetGroundLevel
EXTRN	?GetVehicleClassData@@YAPAUVehicleClassDataType@@H@Z:PROC ; GetVehicleClassData
EXTRN	?GetTotalVehicles@UnitClass@@QAEHXZ:PROC	; UnitClass::GetTotalVehicles
EXTRN	?SendFireMessage@SimVehicleClass@@QAEXPAVSimWeaponClass@@HHPAVSimObjectType@@VVU_ID@@@Z:PROC ; SimVehicleClass::SendFireMessage
EXTRN	?Start@MissileClass@@QAEXPAVSimObjectType@@@Z:PROC ; MissileClass::Start
EXTRN	?SetTarget@MissileClass@@QAEXPAVSimObjectType@@@Z:PROC ; MissileClass::SetTarget
EXTRN	?GetRMax@MissileClass@@QAEMMMMMM@Z:PROC		; MissileClass::GetRMax
EXTRN	?SetGuidancePlatform@BeamRiderClass@@QAEXPAVFalconEntity@@@Z:PROC ; BeamRiderClass::SetGuidancePlatform
EXTRN	?PS_AddParticleEx@DrawableParticleSys@@SAXHPAUTpoint@@0@Z:PROC ; DrawableParticleSys::PS_AddParticleEx
EXTRN	@__security_check_cookie@4:PROC
EXTRN	__CxxThrowException@8:PROC
EXTRN	___CxxFrameHandler3:PROC
EXTRN	?vuDatabase@@3PAVVuDatabase@@A:DWORD		; vuDatabase
EXTRN	?vuxRealTime@@3KA:DWORD				; vuxRealTime
EXTRN	?FalconNullId@@3VVU_ID@@A:QWORD			; FalconNullId
EXTRN	?SimLibMajorFrameTime@@3MA:DWORD		; SimLibMajorFrameTime
EXTRN	?SimLibElapsedTime@@3KA:DWORD			; SimLibElapsedTime
EXTRN	?WeaponDataTable@@3PAUWeaponClassDataType@@A:DWORD ; WeaponDataTable
EXTRN	?SimWeaponDataTable@@3PAUSimWeaponDataType@@A:DWORD ; SimWeaponDataTable
EXTRN	?Falcon4ClassTable@@3PAUFalcon4EntityClassType@@A:DWORD ; Falcon4ClassTable
EXTRN	??_7type_info@@6B@:QWORD			; type_info::`vftable'
EXTRN	?OTWDriver@@3VOTWDriverClass@@A:BYTE		; OTWDriver
EXTRN	?radarDatFileTable@@3PAURadarDataSet@@A:DWORD	; radarDatFileTable
EXTRN	?missileDataset@@3PAVMissileDataSetClass@@A:DWORD ; missileDataset
EXTRN	?numMissileDatasets@@3HA:DWORD			; numMissileDatasets
EXTRN	?g_fTracerAccuracyFactor@@3MA:DWORD		; g_fTracerAccuracyFactor
EXTRN	?g_bToggleAAAGunFlag@@3_NA:BYTE			; g_bToggleAAAGunFlag
EXTRN	?g_bFireOntheMove@@3_NA:BYTE			; g_bFireOntheMove
EXTRN	___security_cookie:DWORD
EXTRN	__fltused:DWORD
_BSS	SEGMENT
_piecewise_construct DB 01H DUP (?)
_allocator_arg DB 01H DUP (?)
_BSS	ENDS
;	COMDAT ?_Generic_object@?$_Error_objects@H@std@@2V_Generic_error_category@2@A
_BSS	SEGMENT
?_Generic_object@?$_Error_objects@H@std@@2V_Generic_error_category@2@A DD 01H DUP (?) ; std::_Error_objects<int>::_Generic_object
_BSS	ENDS
;	COMDAT ?_Iostream_object@?$_Error_objects@H@std@@2V_Iostream_error_category@2@A
_BSS	SEGMENT
?_Iostream_object@?$_Error_objects@H@std@@2V_Iostream_error_category@2@A DD 01H DUP (?) ; std::_Error_objects<int>::_Iostream_object
_BSS	ENDS
;	COMDAT ?_System_object@?$_Error_objects@H@std@@2V_System_error_category@2@A
_BSS	SEGMENT
?_System_object@?$_Error_objects@H@std@@2V_System_error_category@2@A DD 01H DUP (?) ; std::_Error_objects<int>::_System_object
_BSS	ENDS
;	COMDAT ?id@?$num_put@DV?$back_insert_iterator@V?$basic_string@DU?$char_traits@D@std@@V?$allocator@D@2@@std@@@std@@@std@@2V0locale@2@A
_BSS	SEGMENT
?id@?$num_put@DV?$back_insert_iterator@V?$basic_string@DU?$char_traits@D@std@@V?$allocator@D@2@@std@@@std@@@std@@2V0locale@2@A DD 01H DUP (?) ; std::num_put<char,std::back_insert_iterator<std::basic_string<char,std::char_traits<char>,std::allocator<char> > > >::id
_BSS	ENDS
;	COMDAT ?id@?$num_put@_WV?$back_insert_iterator@V?$basic_string@_WU?$char_traits@_W@std@@V?$allocator@_W@2@@std@@@std@@@std@@2V0locale@2@A
_BSS	SEGMENT
?id@?$num_put@_WV?$back_insert_iterator@V?$basic_string@_WU?$char_traits@_W@std@@V?$allocator@_W@2@@std@@@std@@@std@@2V0locale@2@A DD 01H DUP (?) ; std::num_put<wchar_t,std::back_insert_iterator<std::basic_string<wchar_t,std::char_traits<wchar_t>,std::allocator<wchar_t> > > >::id
_BSS	ENDS
;	COMDAT ?LastRandom@?1??GenerateFastRandom@@YAJXZ@4JA
_BSS	SEGMENT
?LastRandom@?1??GenerateFastRandom@@YAJXZ@4JA DD 01H DUP (?) ; `GenerateFastRandom'::`2'::LastRandom
_BSS	ENDS
;	COMDAT ?id@?$numpunct@D@std@@2V0locale@2@A
_BSS	SEGMENT
?id@?$numpunct@D@std@@2V0locale@2@A DD 01H DUP (?)	; std::numpunct<char>::id
_BSS	ENDS
;	COMDAT ?id@?$numpunct@_W@std@@2V0locale@2@A
_BSS	SEGMENT
?id@?$numpunct@_W@std@@2V0locale@2@A DD 01H DUP (?)	; std::numpunct<wchar_t>::id
_BSS	ENDS
CRT$XCU	SEGMENT
_piecewise_construct$initializer$ DD FLAT:??__Epiecewise_construct@std@@YAXXZ
CRT$XCU	ENDS
;	COMDAT __xmm@80000000800000008000000080000000
CONST	SEGMENT
__xmm@80000000800000008000000080000000 DB 00H, 00H, 00H, 080H, 00H, 00H, 00H
	DB	080H, 00H, 00H, 00H, 080H, 00H, 00H, 00H, 080H
CONST	ENDS
;	COMDAT __xmm@41f00000000000000000000000000000
CONST	SEGMENT
__xmm@41f00000000000000000000000000000 DB 00H, 00H, 00H, 00H, 00H, 00H, 00H
	DB	00H, 00H, 00H, 00H, 00H, 00H, 00H, 0f0H, 'A'
CONST	ENDS
;	COMDAT __real@c4fa0000
CONST	SEGMENT
__real@c4fa0000 DD 0c4fa0000r			; -2000
CONST	ENDS
;	COMDAT __real@c47a0000
CONST	SEGMENT
__real@c47a0000 DD 0c47a0000r			; -1000
CONST	ENDS
;	COMDAT __real@c2000000
CONST	SEGMENT
__real@c2000000 DD 0c2000000r			; -32
CONST	ENDS
;	COMDAT __real@c0800000
CONST	SEGMENT
__real@c0800000 DD 0c0800000r			; -4
CONST	ENDS
;	COMDAT __real@c0490fd9
CONST	SEGMENT
__real@c0490fd9 DD 0c0490fd9r			; -3.14159
CONST	ENDS
;	COMDAT __real@bff921fb54442d18
CONST	SEGMENT
__real@bff921fb54442d18 DQ 0bff921fb54442d18r	; -1.5708
CONST	ENDS
;	COMDAT __real@bf800000
CONST	SEGMENT
__real@bf800000 DD 0bf800000r			; -1
CONST	ENDS
;	COMDAT __real@8000000000000000
CONST	SEGMENT
__real@8000000000000000 DQ 08000000000000000r	; -0
CONST	ENDS
;	COMDAT __real@477fff00
CONST	SEGMENT
__real@477fff00 DD 0477fff00r			; 65535
CONST	ENDS
;	COMDAT __real@45bde1b0
CONST	SEGMENT
__real@45bde1b0 DD 045bde1b0r			; 6076.21
CONST	ENDS
;	COMDAT __real@454cffae
CONST	SEGMENT
__real@454cffae DD 0454cffaer			; 3279.98
CONST	ENDS
;	COMDAT __real@42b40000
CONST	SEGMENT
__real@42b40000 DD 042b40000r			; 90
CONST	ENDS
;	COMDAT __real@41f00000
CONST	SEGMENT
__real@41f00000 DD 041f00000r			; 30
CONST	ENDS
;	COMDAT __real@40c90fd9
CONST	SEGMENT
__real@40c90fd9 DD 040c90fd9r			; 6.28318
CONST	ENDS
;	COMDAT __real@40a00000
CONST	SEGMENT
__real@40a00000 DD 040a00000r			; 5
CONST	ENDS
;	COMDAT __real@40800000
CONST	SEGMENT
__real@40800000 DD 040800000r			; 4
CONST	ENDS
;	COMDAT __real@40490fd9
CONST	SEGMENT
__real@40490fd9 DD 040490fd9r			; 3.14159
CONST	ENDS
;	COMDAT __real@40400000
CONST	SEGMENT
__real@40400000 DD 040400000r			; 3
CONST	ENDS
;	COMDAT __real@400921fb54442d18
CONST	SEGMENT
__real@400921fb54442d18 DQ 0400921fb54442d18r	; 3.14159
CONST	ENDS
;	COMDAT __real@40000000
CONST	SEGMENT
__real@40000000 DD 040000000r			; 2
CONST	ENDS
;	COMDAT __real@3ff921fb54442d18
CONST	SEGMENT
__real@3ff921fb54442d18 DQ 03ff921fb54442d18r	; 1.5708
CONST	ENDS
;	COMDAT __real@3fbde44d
CONST	SEGMENT
__real@3fbde44d DD 03fbde44dr			; 1.48353
CONST	ENDS
;	COMDAT __real@3f800000
CONST	SEGMENT
__real@3f800000 DD 03f800000r			; 1
CONST	ENDS
;	COMDAT __real@3f490fd9
CONST	SEGMENT
__real@3f490fd9 DD 03f490fd9r			; 0.785398
CONST	ENDS
;	COMDAT __real@3f333333
CONST	SEGMENT
__real@3f333333 DD 03f333333r			; 0.7
CONST	ENDS
;	COMDAT __real@3f2a7efa
CONST	SEGMENT
__real@3f2a7efa DD 03f2a7efar			; 0.666
CONST	ENDS
;	COMDAT __real@3f060a91
CONST	SEGMENT
__real@3f060a91 DD 03f060a91r			; 0.523599
CONST	ENDS
;	COMDAT __real@3e860a91
CONST	SEGMENT
__real@3e860a91 DD 03e860a91r			; 0.261799
CONST	ENDS
;	COMDAT __real@3dcccccd
CONST	SEGMENT
__real@3dcccccd DD 03dcccccdr			; 0.1
CONST	ENDS
;	COMDAT __real@3db2b8c1
CONST	SEGMENT
__real@3db2b8c1 DD 03db2b8c1r			; 0.0872665
CONST	ENDS
;	COMDAT __real@3c8efa34
CONST	SEGMENT
__real@3c8efa34 DD 03c8efa34r			; 0.0174533
CONST	ENDS
;	COMDAT __real@0000000000000000
CONST	SEGMENT
__real@0000000000000000 DQ 00000000000000000r	; 0
CONST	ENDS
;	COMDAT __real@00000000
CONST	SEGMENT
__real@00000000 DD 000000000r			; 0
CONST	ENDS
;	COMDAT ??_R1A@?0A@EA@_System_error_category@std@@8
rdata$r	SEGMENT
??_R1A@?0A@EA@_System_error_category@std@@8 DD FLAT:??_R0?AV_System_error_category@std@@@8 ; std::_System_error_category::`RTTI Base Class Descriptor at (0,-1,0,64)'
	DD	02H
	DD	00H
	DD	0ffffffffH
	DD	00H
	DD	040H
	DD	FLAT:??_R3_System_error_category@std@@8
rdata$r	ENDS
;	COMDAT ??_R2_System_error_category@std@@8
rdata$r	SEGMENT
??_R2_System_error_category@std@@8 DD FLAT:??_R1A@?0A@EA@_System_error_category@std@@8 ; std::_System_error_category::`RTTI Base Class Array'
	DD	FLAT:??_R1A@?0A@EA@_Generic_error_category@std@@8
	DD	FLAT:??_R1A@?0A@EA@error_category@std@@8
rdata$r	ENDS
;	COMDAT ??_R3_System_error_category@std@@8
rdata$r	SEGMENT
??_R3_System_error_category@std@@8 DD 00H		; std::_System_error_category::`RTTI Class Hierarchy Descriptor'
	DD	00H
	DD	03H
	DD	FLAT:??_R2_System_error_category@std@@8
rdata$r	ENDS
;	COMDAT ??_R0?AV_System_error_category@std@@@8
_DATA	SEGMENT
??_R0?AV_System_error_category@std@@@8 DD FLAT:??_7type_info@@6B@ ; std::_System_error_category `RTTI Type Descriptor'
	DD	00H
	DB	'.?AV_System_error_category@std@@', 00H
_DATA	ENDS
;	COMDAT ??_R4_System_error_category@std@@6B@
rdata$r	SEGMENT
??_R4_System_error_category@std@@6B@ DD 00H		; std::_System_error_category::`RTTI Complete Object Locator'
	DD	00H
	DD	00H
	DD	FLAT:??_R0?AV_System_error_category@std@@@8
	DD	FLAT:??_R3_System_error_category@std@@8
rdata$r	ENDS
;	COMDAT ??_R1A@?0A@EA@_Iostream_error_category@std@@8
rdata$r	SEGMENT
??_R1A@?0A@EA@_Iostream_error_category@std@@8 DD FLAT:??_R0?AV_Iostream_error_category@std@@@8 ; std::_Iostream_error_category::`RTTI Base Class Descriptor at (0,-1,0,64)'
	DD	02H
	DD	00H
	DD	0ffffffffH
	DD	00H
	DD	040H
	DD	FLAT:??_R3_Iostream_error_category@std@@8
rdata$r	ENDS
;	COMDAT ??_R2_Iostream_error_category@std@@8
rdata$r	SEGMENT
??_R2_Iostream_error_category@std@@8 DD FLAT:??_R1A@?0A@EA@_Iostream_error_category@std@@8 ; std::_Iostream_error_category::`RTTI Base Class Array'
	DD	FLAT:??_R1A@?0A@EA@_Generic_error_category@std@@8
	DD	FLAT:??_R1A@?0A@EA@error_category@std@@8
rdata$r	ENDS
;	COMDAT ??_R3_Iostream_error_category@std@@8
rdata$r	SEGMENT
??_R3_Iostream_error_category@std@@8 DD 00H		; std::_Iostream_error_category::`RTTI Class Hierarchy Descriptor'
	DD	00H
	DD	03H
	DD	FLAT:??_R2_Iostream_error_category@std@@8
rdata$r	ENDS
;	COMDAT ??_R0?AV_Iostream_error_category@std@@@8
_DATA	SEGMENT
??_R0?AV_Iostream_error_category@std@@@8 DD FLAT:??_7type_info@@6B@ ; std::_Iostream_error_category `RTTI Type Descriptor'
	DD	00H
	DB	'.?AV_Iostream_error_category@std@@', 00H
_DATA	ENDS
;	COMDAT ??_R4_Iostream_error_category@std@@6B@
rdata$r	SEGMENT
??_R4_Iostream_error_category@std@@6B@ DD 00H		; std::_Iostream_error_category::`RTTI Complete Object Locator'
	DD	00H
	DD	00H
	DD	FLAT:??_R0?AV_Iostream_error_category@std@@@8
	DD	FLAT:??_R3_Iostream_error_category@std@@8
rdata$r	ENDS
;	COMDAT ??_R1A@?0A@EA@_Generic_error_category@std@@8
rdata$r	SEGMENT
??_R1A@?0A@EA@_Generic_error_category@std@@8 DD FLAT:??_R0?AV_Generic_error_category@std@@@8 ; std::_Generic_error_category::`RTTI Base Class Descriptor at (0,-1,0,64)'
	DD	01H
	DD	00H
	DD	0ffffffffH
	DD	00H
	DD	040H
	DD	FLAT:??_R3_Generic_error_category@std@@8
rdata$r	ENDS
;	COMDAT ??_R2_Generic_error_category@std@@8
rdata$r	SEGMENT
??_R2_Generic_error_category@std@@8 DD FLAT:??_R1A@?0A@EA@_Generic_error_category@std@@8 ; std::_Generic_error_category::`RTTI Base Class Array'
	DD	FLAT:??_R1A@?0A@EA@error_category@std@@8
rdata$r	ENDS
;	COMDAT ??_R3_Generic_error_category@std@@8
rdata$r	SEGMENT
??_R3_Generic_error_category@std@@8 DD 00H		; std::_Generic_error_category::`RTTI Class Hierarchy Descriptor'
	DD	00H
	DD	02H
	DD	FLAT:??_R2_Generic_error_category@std@@8
rdata$r	ENDS
;	COMDAT ??_R0?AV_Generic_error_category@std@@@8
_DATA	SEGMENT
??_R0?AV_Generic_error_category@std@@@8 DD FLAT:??_7type_info@@6B@ ; std::_Generic_error_category `RTTI Type Descriptor'
	DD	00H
	DB	'.?AV_Generic_error_category@std@@', 00H
_DATA	ENDS
;	COMDAT ??_R4_Generic_error_category@std@@6B@
rdata$r	SEGMENT
??_R4_Generic_error_category@std@@6B@ DD 00H		; std::_Generic_error_category::`RTTI Complete Object Locator'
	DD	00H
	DD	00H
	DD	FLAT:??_R0?AV_Generic_error_category@std@@@8
	DD	FLAT:??_R3_Generic_error_category@std@@8
rdata$r	ENDS
;	COMDAT ??_R1A@?0A@EA@error_category@std@@8
rdata$r	SEGMENT
??_R1A@?0A@EA@error_category@std@@8 DD FLAT:??_R0?AVerror_category@std@@@8 ; std::error_category::`RTTI Base Class Descriptor at (0,-1,0,64)'
	DD	00H
	DD	00H
	DD	0ffffffffH
	DD	00H
	DD	040H
	DD	FLAT:??_R3error_category@std@@8
rdata$r	ENDS
;	COMDAT ??_R2error_category@std@@8
rdata$r	SEGMENT
??_R2error_category@std@@8 DD FLAT:??_R1A@?0A@EA@error_category@std@@8 ; std::error_category::`RTTI Base Class Array'
rdata$r	ENDS
;	COMDAT ??_R3error_category@std@@8
rdata$r	SEGMENT
??_R3error_category@std@@8 DD 00H			; std::error_category::`RTTI Class Hierarchy Descriptor'
	DD	00H
	DD	01H
	DD	FLAT:??_R2error_category@std@@8
rdata$r	ENDS
;	COMDAT ??_R0?AVerror_category@std@@@8
_DATA	SEGMENT
??_R0?AVerror_category@std@@@8 DD FLAT:??_7type_info@@6B@ ; std::error_category `RTTI Type Descriptor'
	DD	00H
	DB	'.?AVerror_category@std@@', 00H
_DATA	ENDS
;	COMDAT ??_R4error_category@std@@6B@
rdata$r	SEGMENT
??_R4error_category@std@@6B@ DD 00H			; std::error_category::`RTTI Complete Object Locator'
	DD	00H
	DD	00H
	DD	FLAT:??_R0?AVerror_category@std@@@8
	DD	FLAT:??_R3error_category@std@@8
rdata$r	ENDS
;	COMDAT ??_C@_0BA@JFNIOLAK@string?5too?5long?$AA@
CONST	SEGMENT
??_C@_0BA@JFNIOLAK@string?5too?5long?$AA@ DB 'string too long', 00H ; `string'
CONST	ENDS
;	COMDAT ??_C@_0BI@CFPLBAOH@invalid?5string?5position?$AA@
CONST	SEGMENT
??_C@_0BI@CFPLBAOH@invalid?5string?5position?$AA@ DB 'invalid string posi'
	DB	'tion', 00H					; `string'
CONST	ENDS
;	COMDAT ??_C@_0EG@PGMHPFGC@Tracer?5keepalive?5stopped?4?5?5Zpos?5@
CONST	SEGMENT
??_C@_0EG@PGMHPFGC@Tracer?5keepalive?5stopped?4?5?5Zpos?5@ DB 'Tracer kee'
	DB	'palive stopped.  Zpos = %3.3f Ground = %3.3f, GunZ = %3.3f', 0aH
	DB	00H						; `string'
CONST	ENDS
;	COMDAT ??_C@_06FHFOAHML@system?$AA@
CONST	SEGMENT
??_C@_06FHFOAHML@system?$AA@ DB 'system', 00H		; `string'
CONST	ENDS
;	COMDAT ??_7_System_error_category@std@@6B@
CONST	SEGMENT
??_7_System_error_category@std@@6B@ DD FLAT:??_R4_System_error_category@std@@6B@ ; std::_System_error_category::`vftable'
	DD	FLAT:??_E_System_error_category@std@@UAEPAXI@Z
	DD	FLAT:?name@_System_error_category@std@@UBEPBDXZ
	DD	FLAT:?message@_System_error_category@std@@UBE?AV?$basic_string@DU?$char_traits@D@std@@V?$allocator@D@2@@2@H@Z
	DD	FLAT:?default_error_condition@_System_error_category@std@@UBE?AVerror_condition@2@H@Z
	DD	FLAT:?equivalent@error_category@std@@UBE_NABVerror_code@2@H@Z
	DD	FLAT:?equivalent@error_category@std@@UBE_NHABVerror_condition@2@@Z
CONST	ENDS
;	COMDAT ??_C@_0BG@PADBLCHM@iostream?5stream?5error?$AA@
CONST	SEGMENT
??_C@_0BG@PADBLCHM@iostream?5stream?5error?$AA@ DB 'iostream stream error'
	DB	00H						; `string'
CONST	ENDS
;	COMDAT ??_C@_08LLGCOLLL@iostream?$AA@
CONST	SEGMENT
??_C@_08LLGCOLLL@iostream?$AA@ DB 'iostream', 00H	; `string'
CONST	ENDS
;	COMDAT ??_7_Iostream_error_category@std@@6B@
CONST	SEGMENT
??_7_Iostream_error_category@std@@6B@ DD FLAT:??_R4_Iostream_error_category@std@@6B@ ; std::_Iostream_error_category::`vftable'
	DD	FLAT:??_E_Iostream_error_category@std@@UAEPAXI@Z
	DD	FLAT:?name@_Iostream_error_category@std@@UBEPBDXZ
	DD	FLAT:?message@_Iostream_error_category@std@@UBE?AV?$basic_string@DU?$char_traits@D@std@@V?$allocator@D@2@@2@H@Z
	DD	FLAT:?default_error_condition@error_category@std@@UBE?AVerror_condition@2@H@Z
	DD	FLAT:?equivalent@error_category@std@@UBE_NABVerror_code@2@H@Z
	DD	FLAT:?equivalent@error_category@std@@UBE_NHABVerror_condition@2@@Z
CONST	ENDS
;	COMDAT ??_C@_0O@BFJCFAAK@unknown?5error?$AA@
CONST	SEGMENT
??_C@_0O@BFJCFAAK@unknown?5error?$AA@ DB 'unknown error', 00H ; `string'
CONST	ENDS
;	COMDAT ??_C@_07DCLBNMLN@generic?$AA@
CONST	SEGMENT
??_C@_07DCLBNMLN@generic?$AA@ DB 'generic', 00H		; `string'
CONST	ENDS
;	COMDAT ??_7_Generic_error_category@std@@6B@
CONST	SEGMENT
??_7_Generic_error_category@std@@6B@ DD FLAT:??_R4_Generic_error_category@std@@6B@ ; std::_Generic_error_category::`vftable'
	DD	FLAT:??_E_Generic_error_category@std@@UAEPAXI@Z
	DD	FLAT:?name@_Generic_error_category@std@@UBEPBDXZ
	DD	FLAT:?message@_Generic_error_category@std@@UBE?AV?$basic_string@DU?$char_traits@D@std@@V?$allocator@D@2@@2@H@Z
	DD	FLAT:?default_error_condition@error_category@std@@UBE?AVerror_condition@2@H@Z
	DD	FLAT:?equivalent@error_category@std@@UBE_NABVerror_code@2@H@Z
	DD	FLAT:?equivalent@error_category@std@@UBE_NHABVerror_condition@2@@Z
CONST	ENDS
;	COMDAT ??_7error_category@std@@6B@
CONST	SEGMENT
??_7error_category@std@@6B@ DD FLAT:??_R4error_category@std@@6B@ ; std::error_category::`vftable'
	DD	FLAT:??_Eerror_category@std@@UAEPAXI@Z
	DD	FLAT:__purecall
	DD	FLAT:__purecall
	DD	FLAT:?default_error_condition@error_category@std@@UBE?AVerror_condition@2@H@Z
	DD	FLAT:?equivalent@error_category@std@@UBE_NABVerror_code@2@H@Z
	DD	FLAT:?equivalent@error_category@std@@UBE_NHABVerror_condition@2@@Z
CONST	ENDS
;	COMDAT xdata$x
xdata$x	SEGMENT
__unwindtable$??$construct@PADAAPAD@?$allocator@D@std@@QAEXPAPADAAPAD@Z DD 0ffffffffH
	DD	FLAT:__unwindfunclet$??$construct@PADAAPAD@?$allocator@D@std@@QAEXPAPADAAPAD@Z$0
__ehfuncinfo$??$construct@PADAAPAD@?$allocator@D@std@@QAEXPAPADAAPAD@Z DD 019930522H
	DD	01H
	DD	FLAT:__unwindtable$??$construct@PADAAPAD@?$allocator@D@std@@QAEXPAPADAAPAD@Z
	DD	2 DUP(00H)
	DD	2 DUP(00H)
	DD	00H
	DD	01H
xdata$x	ENDS
xdata$x	SEGMENT
__unwindtable$?DoWeapons@GroundClass@@QAEHXZ DD 0ffffffffH
	DD	FLAT:__unwindfunclet$?DoWeapons@GroundClass@@QAEHXZ$0
__unwindtable$?FindBattalionFireControl@GroundClass@@QAEXXZ DD 0ffffffffH
	DD	FLAT:__unwindfunclet$?FindBattalionFireControl@GroundClass@@QAEXXZ$0
__ehfuncinfo$?DoWeapons@GroundClass@@QAEHXZ DD 019930522H
	DD	01H
	DD	FLAT:__unwindtable$?DoWeapons@GroundClass@@QAEHXZ
	DD	2 DUP(00H)
	DD	2 DUP(00H)
	DD	00H
	DD	01H
__ehfuncinfo$?FindBattalionFireControl@GroundClass@@QAEXXZ DD 019930522H
	DD	01H
	DD	FLAT:__unwindtable$?FindBattalionFireControl@GroundClass@@QAEXXZ
	DD	2 DUP(00H)
	DD	2 DUP(00H)
	DD	00H
	DD	01H
xdata$x	ENDS
;	COMDAT xdata$x
xdata$x	SEGMENT
__catchsym$?_Copy@?$basic_string@DU?$char_traits@D@std@@V?$allocator@D@2@@std@@QAEXII@Z$5 DD 040H
	DD	00H
	DD	00H
	DD	FLAT:__catch$?_Copy@?$basic_string@DU?$char_traits@D@std@@V?$allocator@D@2@@std@@QAEXII@Z$0
__catchsym$?_Copy@?$basic_string@DU?$char_traits@D@std@@V?$allocator@D@2@@std@@QAEXII@Z$4 DD 040H
	DD	00H
	DD	00H
	DD	FLAT:__catch$?_Copy@?$basic_string@DU?$char_traits@D@std@@V?$allocator@D@2@@std@@QAEXII@Z$1
__unwindtable$?_Copy@?$basic_string@DU?$char_traits@D@std@@V?$allocator@D@2@@std@@QAEXII@Z DD 0ffffffffH
	DD	00H
	DD	0ffffffffH
	DD	00H
	DD	01H
	DD	00H
	DD	01H
	DD	00H
__ehfuncinfo$?_Copy@?$basic_string@DU?$char_traits@D@std@@V?$allocator@D@2@@std@@QAEXII@Z DD 019930522H
	DD	04H
	DD	FLAT:__unwindtable$?_Copy@?$basic_string@DU?$char_traits@D@std@@V?$allocator@D@2@@std@@QAEXII@Z
	DD	02H
	DD	FLAT:__tryblocktable$?_Copy@?$basic_string@DU?$char_traits@D@std@@V?$allocator@D@2@@std@@QAEXII@Z
	DD	2 DUP(00H)
	DD	00H
	DD	01H
__tryblocktable$?_Copy@?$basic_string@DU?$char_traits@D@std@@V?$allocator@D@2@@std@@QAEXII@Z DD 02H
	DD	02H
	DD	03H
	DD	01H
	DD	FLAT:__catchsym$?_Copy@?$basic_string@DU?$char_traits@D@std@@V?$allocator@D@2@@std@@QAEXII@Z$4
	DD	00H
	DD	00H
	DD	03H
	DD	01H
	DD	FLAT:__catchsym$?_Copy@?$basic_string@DU?$char_traits@D@std@@V?$allocator@D@2@@std@@QAEXII@Z$5
xdata$x	ENDS
CRT$XCU	SEGMENT
_allocator_arg$initializer$ DD FLAT:??__Eallocator_arg@std@@YAXXZ
CRT$XCU	ENDS
;	COMDAT CRT$XCU
CRT$XCU	SEGMENT
?_Generic_object$initializer$@?$_Error_objects@H@std@@2P6AXXZA DD FLAT:??__E?_Generic_object@?$_Error_objects@H@std@@2V_Generic_error_category@2@A@@YAXXZ ; std::_Error_objects<int>::_Generic_object$initializer$
CRT$XCU	ENDS
;	COMDAT CRT$XCU
CRT$XCU	SEGMENT
?_Iostream_object$initializer$@?$_Error_objects@H@std@@2P6AXXZA DD FLAT:??__E?_Iostream_object@?$_Error_objects@H@std@@2V_Iostream_error_category@2@A@@YAXXZ ; std::_Error_objects<int>::_Iostream_object$initializer$
CRT$XCU	ENDS
;	COMDAT CRT$XCU
CRT$XCU	SEGMENT
?_System_object$initializer$@?$_Error_objects@H@std@@2P6AXXZA DD FLAT:??__E?_System_object@?$_Error_objects@H@std@@2V_System_error_category@2@A@@YAXXZ ; std::_Error_objects<int>::_System_object$initializer$
CRT$XCU	ENDS
;	COMDAT CRT$XCU
CRT$XCU	SEGMENT
?id$initializer$@?$num_put@DV?$back_insert_iterator@V?$basic_string@DU?$char_traits@D@std@@V?$allocator@D@2@@std@@@std@@@std@@2P6AXXZA DD FLAT:??__E?id@?$num_put@DV?$back_insert_iterator@V?$basic_string@DU?$char_traits@D@std@@V?$allocator@D@2@@std@@@std@@@std@@2V0locale@2@A@@YAXXZ ; std::num_put<char,std::back_insert_iterator<std::basic_string<char,std::char_traits<char>,std::allocator<char> > > >::id$initializer$
CRT$XCU	ENDS
;	COMDAT CRT$XCU
CRT$XCU	SEGMENT
?id$initializer$@?$num_put@_WV?$back_insert_iterator@V?$basic_string@_WU?$char_traits@_W@std@@V?$allocator@_W@2@@std@@@std@@@std@@2P6AXXZA DD FLAT:??__E?id@?$num_put@_WV?$back_insert_iterator@V?$basic_string@_WU?$char_traits@_W@std@@V?$allocator@_W@2@@std@@@std@@@std@@2V0locale@2@A@@YAXXZ ; std::num_put<wchar_t,std::back_insert_iterator<std::basic_string<wchar_t,std::char_traits<wchar_t>,std::allocator<wchar_t> > > >::id$initializer$
CRT$XCU	ENDS
;	COMDAT CRT$XCU
CRT$XCU	SEGMENT
?id$initializer$@?$numpunct@D@std@@2P6AXXZA DD FLAT:??__E?id@?$numpunct@D@std@@2V0locale@2@A@@YAXXZ ; std::numpunct<char>::id$initializer$
CRT$XCU	ENDS
;	COMDAT CRT$XCU
CRT$XCU	SEGMENT
?id$initializer$@?$numpunct@_W@std@@2P6AXXZA DD FLAT:??__E?id@?$numpunct@_W@std@@2V0locale@2@A@@YAXXZ ; std::numpunct<wchar_t>::id$initializer$
CRT$XCU	ENDS
; Function compile flags: /Odtp
; File c:\program files (x86)\microsoft visual studio 11.0\vc\include\xmemory0
;	COMDAT ??$destroy@PAD@?$allocator@D@std@@QAEXPAPAD@Z
_TEXT	SEGMENT
_this$ = -4						; size = 4
__Ptr$ = 8						; size = 4
??$destroy@PAD@?$allocator@D@std@@QAEXPAPAD@Z PROC	; std::allocator<char>::destroy<char *>, COMDAT
; _this$ = ecx

; 621  : 		void destroy(_Uty *_Ptr)

	push	ebp
	mov	ebp, esp
	push	ecx
	mov	DWORD PTR _this$[ebp], ecx

; 622  : 		{	// destroy object at _Ptr
; 623  : 		_Ptr->~_Uty();
; 624  : 		}

	mov	esp, ebp
	pop	ebp
	ret	4
??$destroy@PAD@?$allocator@D@std@@QAEXPAPAD@Z ENDP	; std::allocator<char>::destroy<char *>
_TEXT	ENDS
; Function compile flags: /Odtp
; File c:\program files (x86)\microsoft visual studio 11.0\vc\include\xmemory0
;	COMDAT ??$construct@PADAAPAD@?$allocator@D@std@@QAEXPAPADAAPAD@Z
_TEXT	SEGMENT
$T2 = -28						; size = 4
_this$ = -24						; size = 4
tv73 = -20						; size = 4
$T3 = -16						; size = 4
__$EHRec$ = -12						; size = 12
__Ptr$ = 8						; size = 4
__V0$ = 12						; size = 4
??$construct@PADAAPAD@?$allocator@D@std@@QAEXPAPADAAPAD@Z PROC ; std::allocator<char>::construct<char *,char * &>, COMDAT
; _this$ = ecx

; 617  : _VARIADIC_EXPAND_0X(_ALLOC_MEMBER_CONSTRUCT, , , , )

	push	ebp
	mov	ebp, esp
	push	-1
	push	__ehhandler$??$construct@PADAAPAD@?$allocator@D@std@@QAEXPAPADAAPAD@Z
	mov	eax, DWORD PTR fs:0
	push	eax
	sub	esp, 16					; 00000010H
	mov	eax, DWORD PTR ___security_cookie
	xor	eax, ebp
	push	eax
	lea	eax, DWORD PTR __$EHRec$[ebp]
	mov	DWORD PTR fs:0, eax
	mov	DWORD PTR _this$[ebp], ecx
	mov	eax, DWORD PTR __Ptr$[ebp]
	push	eax
	push	4
	call	??2@YAPAXIPAX@Z				; operator new
	add	esp, 8
	mov	DWORD PTR $T3[ebp], eax
	mov	DWORD PTR __$EHRec$[ebp+8], 0
	cmp	DWORD PTR $T3[ebp], 0
	je	SHORT $LN3@construct
	mov	ecx, DWORD PTR __V0$[ebp]
	push	ecx
	call	??$forward@AAPAD@std@@YAAAPADAAPAD@Z	; std::forward<char * &>
	add	esp, 4
	mov	edx, DWORD PTR $T3[ebp]
	mov	eax, DWORD PTR [eax]
	mov	DWORD PTR [edx], eax
	mov	ecx, DWORD PTR $T3[ebp]
	mov	DWORD PTR tv73[ebp], ecx
	jmp	SHORT $LN4@construct
$LN3@construct:
	mov	DWORD PTR tv73[ebp], 0
$LN4@construct:
	mov	edx, DWORD PTR tv73[ebp]
	mov	DWORD PTR $T2[ebp], edx
	mov	DWORD PTR __$EHRec$[ebp+8], -1
	mov	ecx, DWORD PTR __$EHRec$[ebp]
	mov	DWORD PTR fs:0, ecx
	pop	ecx
	mov	esp, ebp
	pop	ebp
	ret	8
_TEXT	ENDS
;	COMDAT text$x
text$x	SEGMENT
__unwindfunclet$??$construct@PADAAPAD@?$allocator@D@std@@QAEXPAPADAAPAD@Z$0:
	mov	eax, DWORD PTR __Ptr$[ebp]
	push	eax
	mov	eax, DWORD PTR $T3[ebp]
	push	eax
	call	??3@YAXPAX0@Z				; operator delete
	add	esp, 8
	ret	0
__ehhandler$??$construct@PADAAPAD@?$allocator@D@std@@QAEXPAPADAAPAD@Z:
	mov	edx, DWORD PTR [esp+8]
	lea	eax, DWORD PTR [edx+12]
	mov	ecx, DWORD PTR [edx-20]
	xor	ecx, eax
	call	@__security_check_cookie@4
	mov	eax, OFFSET __ehfuncinfo$??$construct@PADAAPAD@?$allocator@D@std@@QAEXPAPADAAPAD@Z
	jmp	___CxxFrameHandler3
text$x	ENDS
??$construct@PADAAPAD@?$allocator@D@std@@QAEXPAPADAAPAD@Z ENDP ; std::allocator<char>::construct<char *,char * &>
; Function compile flags: /Odtp
; File c:\program files (x86)\microsoft visual studio 11.0\vc\include\xlocnum
;	COMDAT ??__E?id@?$numpunct@_W@std@@2V0locale@2@A@@YAXXZ
text$yc	SEGMENT
??__E?id@?$numpunct@_W@std@@2V0locale@2@A@@YAXXZ PROC	; `dynamic initializer for 'std::numpunct<wchar_t>::id'', COMDAT

; 155  : 		void _Getvals(wchar_t, const lconv *_Ptr, _Locinfo::_Cvtvec)

	push	ebp
	mov	ebp, esp
	push	0
	mov	ecx, OFFSET ?id@?$numpunct@_W@std@@2V0locale@2@A ; std::numpunct<wchar_t>::id
	call	??0id@locale@std@@QAE@I@Z		; std::locale::id::id
	pop	ebp
	ret	0
??__E?id@?$numpunct@_W@std@@2V0locale@2@A@@YAXXZ ENDP	; `dynamic initializer for 'std::numpunct<wchar_t>::id''
text$yc	ENDS
; Function compile flags: /Odtp
; File c:\program files (x86)\microsoft visual studio 11.0\vc\include\xlocnum
;	COMDAT ??__E?id@?$numpunct@D@std@@2V0locale@2@A@@YAXXZ
text$yc	SEGMENT
??__E?id@?$numpunct@D@std@@2V0locale@2@A@@YAXXZ PROC	; `dynamic initializer for 'std::numpunct<char>::id'', COMDAT

; 155  : 		void _Getvals(wchar_t, const lconv *_Ptr, _Locinfo::_Cvtvec)

	push	ebp
	mov	ebp, esp
	push	0
	mov	ecx, OFFSET ?id@?$numpunct@D@std@@2V0locale@2@A ; std::numpunct<char>::id
	call	??0id@locale@std@@QAE@I@Z		; std::locale::id::id
	pop	ebp
	ret	0
??__E?id@?$numpunct@D@std@@2V0locale@2@A@@YAXXZ ENDP	; `dynamic initializer for 'std::numpunct<char>::id''
text$yc	ENDS
; Function compile flags: /Odtp
; File c:\program files (x86)\microsoft visual studio 11.0\vc\include\xlocnum
;	COMDAT ??__E?id@?$num_put@_WV?$back_insert_iterator@V?$basic_string@_WU?$char_traits@_W@std@@V?$allocator@_W@2@@std@@@std@@@std@@2V0locale@2@A@@YAXXZ
text$yc	SEGMENT
??__E?id@?$num_put@_WV?$back_insert_iterator@V?$basic_string@_WU?$char_traits@_W@std@@V?$allocator@_W@2@@std@@@std@@@std@@2V0locale@2@A@@YAXXZ PROC ; `dynamic initializer for 'std::num_put<wchar_t,std::back_insert_iterator<std::basic_string<wchar_t,std::char_traits<wchar_t>,std::allocator<wchar_t> > > >::id'', COMDAT

; 155  : 		void _Getvals(wchar_t, const lconv *_Ptr, _Locinfo::_Cvtvec)

	push	ebp
	mov	ebp, esp
	push	0
	mov	ecx, OFFSET ?id@?$num_put@_WV?$back_insert_iterator@V?$basic_string@_WU?$char_traits@_W@std@@V?$allocator@_W@2@@std@@@std@@@std@@2V0locale@2@A ; std::num_put<wchar_t,std::back_insert_iterator<std::basic_string<wchar_t,std::char_traits<wchar_t>,std::allocator<wchar_t> > > >::id
	call	??0id@locale@std@@QAE@I@Z		; std::locale::id::id
	pop	ebp
	ret	0
??__E?id@?$num_put@_WV?$back_insert_iterator@V?$basic_string@_WU?$char_traits@_W@std@@V?$allocator@_W@2@@std@@@std@@@std@@2V0locale@2@A@@YAXXZ ENDP ; `dynamic initializer for 'std::num_put<wchar_t,std::back_insert_iterator<std::basic_string<wchar_t,std::char_traits<wchar_t>,std::allocator<wchar_t> > > >::id''
text$yc	ENDS
; Function compile flags: /Odtp
; File c:\program files (x86)\microsoft visual studio 11.0\vc\include\xlocnum
;	COMDAT ??__E?id@?$num_put@DV?$back_insert_iterator@V?$basic_string@DU?$char_traits@D@std@@V?$allocator@D@2@@std@@@std@@@std@@2V0locale@2@A@@YAXXZ
text$yc	SEGMENT
??__E?id@?$num_put@DV?$back_insert_iterator@V?$basic_string@DU?$char_traits@D@std@@V?$allocator@D@2@@std@@@std@@@std@@2V0locale@2@A@@YAXXZ PROC ; `dynamic initializer for 'std::num_put<char,std::back_insert_iterator<std::basic_string<char,std::char_traits<char>,std::allocator<char> > > >::id'', COMDAT

; 155  : 		void _Getvals(wchar_t, const lconv *_Ptr, _Locinfo::_Cvtvec)

	push	ebp
	mov	ebp, esp
	push	0
	mov	ecx, OFFSET ?id@?$num_put@DV?$back_insert_iterator@V?$basic_string@DU?$char_traits@D@std@@V?$allocator@D@2@@std@@@std@@@std@@2V0locale@2@A ; std::num_put<char,std::back_insert_iterator<std::basic_string<char,std::char_traits<char>,std::allocator<char> > > >::id
	call	??0id@locale@std@@QAE@I@Z		; std::locale::id::id
	pop	ebp
	ret	0
??__E?id@?$num_put@DV?$back_insert_iterator@V?$basic_string@DU?$char_traits@D@std@@V?$allocator@D@2@@std@@@std@@@std@@2V0locale@2@A@@YAXXZ ENDP ; `dynamic initializer for 'std::num_put<char,std::back_insert_iterator<std::basic_string<char,std::char_traits<char>,std::allocator<char> > > >::id''
text$yc	ENDS
; Function compile flags: /Odtp
; File c:\program files (x86)\microsoft visual studio 11.0\vc\include\xmemory0
;	COMDAT ??$destroy@PAD@?$allocator_traits@V?$allocator@D@std@@@std@@SAXAAV?$allocator@D@1@PAPAD@Z
_TEXT	SEGMENT
__Al$ = 8						; size = 4
__Ptr$ = 12						; size = 4
??$destroy@PAD@?$allocator_traits@V?$allocator@D@std@@@std@@SAXAAV?$allocator@D@1@PAPAD@Z PROC ; std::allocator_traits<std::allocator<char> >::destroy<char *>, COMDAT

; 755  : 		static void destroy(_Alloc& _Al, _Uty *_Ptr)

	push	ebp
	mov	ebp, esp

; 756  : 		{	// destroy object at _Ptr
; 757  : 		_Al.destroy(_Ptr);

	mov	eax, DWORD PTR __Ptr$[ebp]
	push	eax
	mov	ecx, DWORD PTR __Al$[ebp]
	call	??$destroy@PAD@?$allocator@D@std@@QAEXPAPAD@Z ; std::allocator<char>::destroy<char *>

; 758  : 		}

	pop	ebp
	ret	0
??$destroy@PAD@?$allocator_traits@V?$allocator@D@std@@@std@@SAXAAV?$allocator@D@1@PAPAD@Z ENDP ; std::allocator_traits<std::allocator<char> >::destroy<char *>
_TEXT	ENDS
; Function compile flags: /Odtp
; File c:\program files (x86)\microsoft visual studio 11.0\vc\include\xmemory0
;	COMDAT ??$construct@PADAAPAD@?$allocator_traits@V?$allocator@D@std@@@std@@SAXAAV?$allocator@D@1@PAPADAAPAD@Z
_TEXT	SEGMENT
__Al$ = 8						; size = 4
__Ptr$ = 12						; size = 4
__V0$ = 16						; size = 4
??$construct@PADAAPAD@?$allocator_traits@V?$allocator@D@std@@@std@@SAXAAV?$allocator@D@1@PAPADAAPAD@Z PROC ; std::allocator_traits<std::allocator<char> >::construct<char *,char * &>, COMDAT

; 751  : _VARIADIC_EXPAND_0X(_ALLOC_TRAITS_SPECIAL_CONSTRUCT, , , , )

	push	ebp
	mov	ebp, esp
	mov	eax, DWORD PTR __V0$[ebp]
	push	eax
	call	??$forward@AAPAD@std@@YAAAPADAAPAD@Z	; std::forward<char * &>
	add	esp, 4
	push	eax
	mov	ecx, DWORD PTR __Ptr$[ebp]
	push	ecx
	mov	ecx, DWORD PTR __Al$[ebp]
	call	??$construct@PADAAPAD@?$allocator@D@std@@QAEXPAPADAAPAD@Z ; std::allocator<char>::construct<char *,char * &>
	pop	ebp
	ret	0
??$construct@PADAAPAD@?$allocator_traits@V?$allocator@D@std@@@std@@SAXAAV?$allocator@D@1@PAPADAAPAD@Z ENDP ; std::allocator_traits<std::allocator<char> >::construct<char *,char * &>
_TEXT	ENDS
; Function compile flags: /Odtp
; File c:\program files (x86)\microsoft visual studio 11.0\vc\include\type_traits
;	COMDAT ??$forward@AAPAD@std@@YAAAPADAAPAD@Z
_TEXT	SEGMENT
__Arg$ = 8						; size = 4
??$forward@AAPAD@std@@YAAAPADAAPAD@Z PROC		; std::forward<char * &>, COMDAT

; 1775 : 	{	// forward an lvalue

	push	ebp
	mov	ebp, esp

; 1776 : 	return (static_cast<_Ty&&>(_Arg));

	mov	eax, DWORD PTR __Arg$[ebp]

; 1777 : 	}

	pop	ebp
	ret	0
??$forward@AAPAD@std@@YAAAPADAAPAD@Z ENDP		; std::forward<char * &>
_TEXT	ENDS
; Function compile flags: /Odtp
;	COMDAT ??__F?_System_object@?$_Error_objects@H@std@@2V_System_error_category@2@A@@YAXXZ
text$yd	SEGMENT
??__F?_System_object@?$_Error_objects@H@std@@2V_System_error_category@2@A@@YAXXZ PROC ; `dynamic atexit destructor for 'std::_Error_objects<int>::_System_object'', COMDAT
	push	ebp
	mov	ebp, esp
	mov	ecx, OFFSET ?_System_object@?$_Error_objects@H@std@@2V_System_error_category@2@A ; std::_Error_objects<int>::_System_object
	call	??1_System_error_category@std@@UAE@XZ
	pop	ebp
	ret	0
??__F?_System_object@?$_Error_objects@H@std@@2V_System_error_category@2@A@@YAXXZ ENDP ; `dynamic atexit destructor for 'std::_Error_objects<int>::_System_object''
text$yd	ENDS
; Function compile flags: /Odtp
; File c:\program files (x86)\microsoft visual studio 11.0\vc\include\xmemory0
;	COMDAT ??__E?_System_object@?$_Error_objects@H@std@@2V_System_error_category@2@A@@YAXXZ
text$yc	SEGMENT
??__E?_System_object@?$_Error_objects@H@std@@2V_System_error_category@2@A@@YAXXZ PROC ; `dynamic initializer for 'std::_Error_objects<int>::_System_object'', COMDAT

; 627  : 		{	// estimate maximum array size

	push	ebp
	mov	ebp, esp
	mov	ecx, OFFSET ?_System_object@?$_Error_objects@H@std@@2V_System_error_category@2@A ; std::_Error_objects<int>::_System_object
	call	??0_System_error_category@std@@QAE@XZ	; std::_System_error_category::_System_error_category
	push	OFFSET ??__F?_System_object@?$_Error_objects@H@std@@2V_System_error_category@2@A@@YAXXZ ; `dynamic atexit destructor for 'std::_Error_objects<int>::_System_object''
	call	_atexit
	add	esp, 4
	pop	ebp
	ret	0
??__E?_System_object@?$_Error_objects@H@std@@2V_System_error_category@2@A@@YAXXZ ENDP ; `dynamic initializer for 'std::_Error_objects<int>::_System_object''
text$yc	ENDS
; Function compile flags: /Odtp
;	COMDAT ??__F?_Iostream_object@?$_Error_objects@H@std@@2V_Iostream_error_category@2@A@@YAXXZ
text$yd	SEGMENT
??__F?_Iostream_object@?$_Error_objects@H@std@@2V_Iostream_error_category@2@A@@YAXXZ PROC ; `dynamic atexit destructor for 'std::_Error_objects<int>::_Iostream_object'', COMDAT
	push	ebp
	mov	ebp, esp
	mov	ecx, OFFSET ?_Iostream_object@?$_Error_objects@H@std@@2V_Iostream_error_category@2@A ; std::_Error_objects<int>::_Iostream_object
	call	??1_Iostream_error_category@std@@UAE@XZ
	pop	ebp
	ret	0
??__F?_Iostream_object@?$_Error_objects@H@std@@2V_Iostream_error_category@2@A@@YAXXZ ENDP ; `dynamic atexit destructor for 'std::_Error_objects<int>::_Iostream_object''
text$yd	ENDS
; Function compile flags: /Odtp
; File c:\program files (x86)\microsoft visual studio 11.0\vc\include\xmemory0
;	COMDAT ??__E?_Iostream_object@?$_Error_objects@H@std@@2V_Iostream_error_category@2@A@@YAXXZ
text$yc	SEGMENT
??__E?_Iostream_object@?$_Error_objects@H@std@@2V_Iostream_error_category@2@A@@YAXXZ PROC ; `dynamic initializer for 'std::_Error_objects<int>::_Iostream_object'', COMDAT

; 627  : 		{	// estimate maximum array size

	push	ebp
	mov	ebp, esp
	mov	ecx, OFFSET ?_Iostream_object@?$_Error_objects@H@std@@2V_Iostream_error_category@2@A ; std::_Error_objects<int>::_Iostream_object
	call	??0_Iostream_error_category@std@@QAE@XZ	; std::_Iostream_error_category::_Iostream_error_category
	push	OFFSET ??__F?_Iostream_object@?$_Error_objects@H@std@@2V_Iostream_error_category@2@A@@YAXXZ ; `dynamic atexit destructor for 'std::_Error_objects<int>::_Iostream_object''
	call	_atexit
	add	esp, 4
	pop	ebp
	ret	0
??__E?_Iostream_object@?$_Error_objects@H@std@@2V_Iostream_error_category@2@A@@YAXXZ ENDP ; `dynamic initializer for 'std::_Error_objects<int>::_Iostream_object''
text$yc	ENDS
; Function compile flags: /Odtp
;	COMDAT ??__F?_Generic_object@?$_Error_objects@H@std@@2V_Generic_error_category@2@A@@YAXXZ
text$yd	SEGMENT
??__F?_Generic_object@?$_Error_objects@H@std@@2V_Generic_error_category@2@A@@YAXXZ PROC ; `dynamic atexit destructor for 'std::_Error_objects<int>::_Generic_object'', COMDAT
	push	ebp
	mov	ebp, esp
	mov	ecx, OFFSET ?_Generic_object@?$_Error_objects@H@std@@2V_Generic_error_category@2@A ; std::_Error_objects<int>::_Generic_object
	call	??1_Generic_error_category@std@@UAE@XZ
	pop	ebp
	ret	0
??__F?_Generic_object@?$_Error_objects@H@std@@2V_Generic_error_category@2@A@@YAXXZ ENDP ; `dynamic atexit destructor for 'std::_Error_objects<int>::_Generic_object''
text$yd	ENDS
; Function compile flags: /Odtp
; File c:\program files (x86)\microsoft visual studio 11.0\vc\include\xmemory0
;	COMDAT ??__E?_Generic_object@?$_Error_objects@H@std@@2V_Generic_error_category@2@A@@YAXXZ
text$yc	SEGMENT
??__E?_Generic_object@?$_Error_objects@H@std@@2V_Generic_error_category@2@A@@YAXXZ PROC ; `dynamic initializer for 'std::_Error_objects<int>::_Generic_object'', COMDAT

; 627  : 		{	// estimate maximum array size

	push	ebp
	mov	ebp, esp
	mov	ecx, OFFSET ?_Generic_object@?$_Error_objects@H@std@@2V_Generic_error_category@2@A ; std::_Error_objects<int>::_Generic_object
	call	??0_Generic_error_category@std@@QAE@XZ	; std::_Generic_error_category::_Generic_error_category
	push	OFFSET ??__F?_Generic_object@?$_Error_objects@H@std@@2V_Generic_error_category@2@A@@YAXXZ ; `dynamic atexit destructor for 'std::_Error_objects<int>::_Generic_object''
	call	_atexit
	add	esp, 4
	pop	ebp
	ret	0
??__E?_Generic_object@?$_Error_objects@H@std@@2V_Generic_error_category@2@A@@YAXXZ ENDP ; `dynamic initializer for 'std::_Error_objects<int>::_Generic_object''
text$yc	ENDS
; Function compile flags: /Odtp
; File c:\program files (x86)\microsoft visual studio 11.0\vc\include\xmemory0
;	COMDAT ??$_Allocate@D@std@@YAPADIPAD@Z
_TEXT	SEGMENT
__Ptr$ = -4						; size = 4
__Count$ = 8						; size = 4
___formal$ = 12						; size = 4
??$_Allocate@D@std@@YAPADIPAD@Z PROC			; std::_Allocate<char>, COMDAT

; 22   : 	{	// allocate storage for _Count elements of type _Ty

	push	ebp
	mov	ebp, esp
	push	ecx

; 23   : 	void *_Ptr = 0;

	mov	DWORD PTR __Ptr$[ebp], 0

; 24   : 
; 25   : 	if (_Count == 0)

	cmp	DWORD PTR __Count$[ebp], 0
	jne	SHORT $LN4@Allocate

; 26   : 		;
; 27   : 	else if (((size_t)(-1) / sizeof (_Ty) < _Count)

	jmp	SHORT $LN3@Allocate
$LN4@Allocate:

; 28   : 		|| (_Ptr = ::operator new(_Count * sizeof (_Ty))) == 0)

	cmp	DWORD PTR __Count$[ebp], -1
	ja	SHORT $LN1@Allocate
	mov	eax, DWORD PTR __Count$[ebp]
	push	eax
	call	??2@YAPAXI@Z				; operator new
	add	esp, 4
	mov	DWORD PTR __Ptr$[ebp], eax
	cmp	DWORD PTR __Ptr$[ebp], 0
	jne	SHORT $LN3@Allocate
$LN1@Allocate:

; 29   : 		_Xbad_alloc();	// report no memory

	call	?_Xbad_alloc@std@@YAXXZ			; std::_Xbad_alloc
$LN3@Allocate:

; 30   : 
; 31   : 	return ((_Ty *)_Ptr);

	mov	eax, DWORD PTR __Ptr$[ebp]
$LN6@Allocate:

; 32   : 	}

	mov	esp, ebp
	pop	ebp
	ret	0
??$_Allocate@D@std@@YAPADIPAD@Z ENDP			; std::_Allocate<char>
_TEXT	ENDS
; Function compile flags: /Odtp
; File c:\program files (x86)\microsoft visual studio 11.0\vc\include\xstddef
;	COMDAT ??$addressof@D@std@@YAPADAAD@Z
_TEXT	SEGMENT
__Val$ = 8						; size = 4
??$addressof@D@std@@YAPADAAD@Z PROC			; std::addressof<char>, COMDAT

; 85   : 	{	// return address of _Val

	push	ebp
	mov	ebp, esp

; 86   : 	return (reinterpret_cast<_Ty *>(
; 87   : 		(&const_cast<char&>(
; 88   : 		reinterpret_cast<const volatile char&>(_Val)))));

	mov	eax, DWORD PTR __Val$[ebp]

; 89   : 	}

	pop	ebp
	ret	0
??$addressof@D@std@@YAPADAAD@Z ENDP			; std::addressof<char>
_TEXT	ENDS
; Function compile flags: /Odtp
; File c:\program files (x86)\microsoft visual studio 11.0\vc\include\xmemory0
;	COMDAT ??$destroy@PAD@?$_Wrap_alloc@V?$allocator@D@std@@@std@@QAEXPAPAD@Z
_TEXT	SEGMENT
_this$ = -4						; size = 4
__Ptr$ = 8						; size = 4
??$destroy@PAD@?$_Wrap_alloc@V?$allocator@D@std@@@std@@QAEXPAPAD@Z PROC ; std::_Wrap_alloc<std::allocator<char> >::destroy<char *>, COMDAT
; _this$ = ecx

; 907  : 		void destroy(_Ty *_Ptr)

	push	ebp
	mov	ebp, esp
	push	ecx
	mov	DWORD PTR _this$[ebp], ecx

; 908  : 		{	// destroy object at _Ptr
; 909  : 		_Mytraits::destroy(*this, _Ptr);

	mov	eax, DWORD PTR __Ptr$[ebp]
	push	eax
	mov	ecx, DWORD PTR _this$[ebp]
	push	ecx
	call	??$destroy@PAD@?$allocator_traits@V?$allocator@D@std@@@std@@SAXAAV?$allocator@D@1@PAPAD@Z ; std::allocator_traits<std::allocator<char> >::destroy<char *>
	add	esp, 8

; 910  : 		}

	mov	esp, ebp
	pop	ebp
	ret	4
??$destroy@PAD@?$_Wrap_alloc@V?$allocator@D@std@@@std@@QAEXPAPAD@Z ENDP ; std::_Wrap_alloc<std::allocator<char> >::destroy<char *>
_TEXT	ENDS
; Function compile flags: /Odtp
; File c:\program files (x86)\microsoft visual studio 11.0\vc\include\xmemory0
;	COMDAT ??$construct@PADAAPAD@?$_Wrap_alloc@V?$allocator@D@std@@@std@@QAEXPAPADAAPAD@Z
_TEXT	SEGMENT
_this$ = -4						; size = 4
__Ptr$ = 8						; size = 4
__V0$ = 12						; size = 4
??$construct@PADAAPAD@?$_Wrap_alloc@V?$allocator@D@std@@@std@@QAEXPAPADAAPAD@Z PROC ; std::_Wrap_alloc<std::allocator<char> >::construct<char *,char * &>, COMDAT
; _this$ = ecx

; 903  : _VARIADIC_EXPAND_0X(_WRAP_ALLOC_CONSTRUCT, , , , )

	push	ebp
	mov	ebp, esp
	push	ecx
	mov	DWORD PTR _this$[ebp], ecx
	mov	eax, DWORD PTR __V0$[ebp]
	push	eax
	call	??$forward@AAPAD@std@@YAAAPADAAPAD@Z	; std::forward<char * &>
	add	esp, 4
	push	eax
	mov	ecx, DWORD PTR __Ptr$[ebp]
	push	ecx
	mov	edx, DWORD PTR _this$[ebp]
	push	edx
	call	??$construct@PADAAPAD@?$allocator_traits@V?$allocator@D@std@@@std@@SAXAAV?$allocator@D@1@PAPADAAPAD@Z ; std::allocator_traits<std::allocator<char> >::construct<char *,char * &>
	add	esp, 12					; 0000000cH
	mov	esp, ebp
	pop	ebp
	ret	8
??$construct@PADAAPAD@?$_Wrap_alloc@V?$allocator@D@std@@@std@@QAEXPAPADAAPAD@Z ENDP ; std::_Wrap_alloc<std::allocator<char> >::construct<char *,char * &>
_TEXT	ENDS
; Function compile flags: /Odtp
; File c:\users\zhitao li\documents\visual studio 2012\projects\freefalcon\sim\ground\weapon.cpp
_TEXT	SEGMENT
tv347 = -72						; size = 4
tv351 = -68						; size = 4
tv334 = -64						; size = 4
tv355 = -60						; size = 4
tv322 = -56						; size = 4
_whatWasHit$ = -52					; size = 4
_keepAliveCheck$ = -48					; size = 4
_fire$ = -44						; size = 4
_i$ = -40						; size = 4
_Gun$ = -36						; size = 4
_this$ = -32						; size = 4
_pos$ = -28						; size = 12
_vec$ = -16						; size = 12
__$ArrayPad$ = -4					; size = 4
?WeaponKeepAlive@GroundClass@@UAEXXZ PROC		; GroundClass::WeaponKeepAlive
; _this$ = ecx

; 42   : {

	push	ebp
	mov	ebp, esp
	sub	esp, 72					; 00000048H
	mov	eax, DWORD PTR ___security_cookie
	xor	eax, ebp
	mov	DWORD PTR __$ArrayPad$[ebp], eax
	mov	DWORD PTR _this$[ebp], ecx

; 43   : 	static const int	numToFly = 3;
; 44   : 	Tpoint				pos, vec;
; 45   : 	int					i;
; 46   : 	int					fire;
; 47   : 	int					whatWasHit;
; 48   : 	GunClass			*Gun;
; 49   : 	BOOL				keepAliveCheck = FALSE;

	mov	DWORD PTR _keepAliveCheck$[ebp], 0

; 50   : 
; 51   : 	// Rewritten by Kevin on 6/22
; 52   : 	// loop thru all weapons looking for guns
; 53   :     for (i=0; i<Sms->NumHardpoints(); i++)

	mov	DWORD PTR _i$[ebp], 0
	jmp	SHORT $LN12@WeaponKeep
$LN11@WeaponKeep:
	mov	eax, DWORD PTR _i$[ebp]
	add	eax, 1
	mov	DWORD PTR _i$[ebp], eax
$LN12@WeaponKeep:
	mov	ecx, DWORD PTR _this$[ebp]
	mov	ecx, DWORD PTR [ecx+780]
	call	?NumHardpoints@SMSBaseClass@@QAEHXZ	; SMSBaseClass::NumHardpoints
	cmp	DWORD PTR _i$[ebp], eax
	jge	$LN10@WeaponKeep

; 54   : 		{
; 55   : 		// point to Gun Class
; 56   : 		Gun = Sms->GetGun(i);

	mov	edx, DWORD PTR _i$[ebp]
	push	edx
	mov	eax, DWORD PTR _this$[ebp]
	mov	ecx, DWORD PTR [eax+780]
	call	?GetGun@SMSBaseClass@@QAEPAVGunClass@@H@Z ; SMSBaseClass::GetGun
	mov	DWORD PTR _Gun$[ebp], eax

; 57   : 		if (Gun)

	cmp	DWORD PTR _Gun$[ebp], 0
	je	$LN1@WeaponKeep

; 58   : 			{
; 59   : 			// make sure a relative position is set
; 60   : 			Gun->SetPosition( 2.0f, 0.0f, -4.0f, 0.0f, 0.0f );

	push	ecx
	movss	xmm0, DWORD PTR __real@00000000
	movss	DWORD PTR [esp], xmm0
	push	ecx
	movss	xmm0, DWORD PTR __real@00000000
	movss	DWORD PTR [esp], xmm0
	push	ecx
	movss	xmm0, DWORD PTR __real@c0800000
	movss	DWORD PTR [esp], xmm0
	push	ecx
	movss	xmm0, DWORD PTR __real@00000000
	movss	DWORD PTR [esp], xmm0
	push	ecx
	movss	xmm0, DWORD PTR __real@40000000
	movss	DWORD PTR [esp], xmm0
	mov	ecx, DWORD PTR _Gun$[ebp]
	call	?SetPosition@GunClass@@QAEXMMMMM@Z	; GunClass::SetPosition

; 61   : 
; 62   : 			// if its a tracer....
; 63   : 			if ( Gun->IsTracer() )

	mov	ecx, DWORD PTR _Gun$[ebp]
	call	?IsTracer@GunClass@@QAEHXZ		; GunClass::IsTracer
	test	eax, eax
	je	$LN8@WeaponKeep

; 64   : 			{
; 65   : 				// if the Z component of the X basis vector (dir of fire) is pointing
; 66   : 				// downward or level, allow only 1 shot to fly.  This will prevent
; 67   : 				// shots that go into the ground causing continual fire
; 68   : 				// if ( gunDmx[0][2] >= 0.0f )
; 69   : 				// 	numToFly = 1;
; 70   : 			
; 71   : 				// edg NOTE: I think it will work out better to keep tracer fire going
; 72   : 				// once they've started firing until the next process cycle.  This logic
; 73   : 				// will have to change once we have differentiated gun types.  The original
; 74   : 				// gun matrix (when started firing) is now kept in the ground class...
; 75   : 				if ( Gun->numFlying )

	mov	ecx, DWORD PTR _Gun$[ebp]
	cmp	DWORD PTR [ecx+824], 0
	je	$LN3@WeaponKeep

; 76   : 				{
; 77   : 					keepAliveCheck = TRUE;

	mov	DWORD PTR _keepAliveCheck$[ebp], 1

; 78   : 
; 79   : 					// allow a limited number of tracers to be firing in the keepalive stage
; 80   : 					if ( IsGunFiring(i) && Gun->numFlying < numToFly )

	mov	edx, DWORD PTR _i$[ebp]
	push	edx
	mov	ecx, DWORD PTR _this$[ebp]
	call	?IsGunFiring@GroundClass@@QAEHH@Z	; GroundClass::IsGunFiring
	test	eax, eax
	je	$LN6@WeaponKeep
	mov	eax, DWORD PTR _Gun$[ebp]
	cmp	DWORD PTR [eax+824], 3
	jge	$LN6@WeaponKeep

; 81   : 					{
; 82   : 						fire = TRUE;

	mov	DWORD PTR _fire$[ebp], 1

; 83   : 						SoundPos.Sfx( SFX_MCGUN, 0, 1.0, 0);

	push	ecx
	movss	xmm0, DWORD PTR __real@00000000
	movss	DWORD PTR [esp], xmm0
	push	ecx
	movss	xmm0, DWORD PTR __real@3f800000
	movss	DWORD PTR [esp], xmm0
	push	0
	push	49					; 00000031H
	mov	ecx, DWORD PTR _this$[ebp]
	add	ecx, 444				; 000001bcH
	call	?Sfx@F4SoundPos@@QAEXHHMM@Z		; F4SoundPos::Sfx

; 84   : 			
; 85   : 						pos.x = XPos();

	mov	ecx, DWORD PTR _this$[ebp]
	call	?XPos@VuEntity@@QBEMXZ			; VuEntity::XPos
	fstp	DWORD PTR _pos$[ebp]

; 86   : 						pos.y = YPos();

	mov	ecx, DWORD PTR _this$[ebp]
	call	?YPos@VuEntity@@QBEMXZ			; VuEntity::YPos
	fstp	DWORD PTR _pos$[ebp+4]

; 87   : 						pos.z = ZPos() - 5.0f;

	mov	ecx, DWORD PTR _this$[ebp]
	call	?ZPos@VuEntity@@QBEMXZ			; VuEntity::ZPos
	fstp	DWORD PTR tv322[ebp]
	movss	xmm0, DWORD PTR tv322[ebp]
	subss	xmm0, DWORD PTR __real@40a00000
	movss	DWORD PTR _pos$[ebp+8], xmm0

; 88   : 
; 89   : 						// this is a hack right now -- it seems like the
; 90   : 						// unit aren't always set right on the ground
; 91   : 						SetPosition(
; 92   : 							XPos(),
; 93   : 							YPos(),
; 94   : 	  						OTWDriver.GetGroundLevel( XPos(), YPos() ) - 0.7f);

	push	0
	mov	ecx, DWORD PTR _this$[ebp]
	call	?YPos@VuEntity@@QBEMXZ			; VuEntity::YPos
	push	ecx
	fstp	DWORD PTR [esp]
	mov	ecx, DWORD PTR _this$[ebp]
	call	?XPos@VuEntity@@QBEMXZ			; VuEntity::XPos
	push	ecx
	fstp	DWORD PTR [esp]
	mov	ecx, OFFSET ?OTWDriver@@3VOTWDriverClass@@A ; OTWDriver
	call	?GetGroundLevel@OTWDriverClass@@QAEMMMPAUTpoint@@@Z ; OTWDriverClass::GetGroundLevel
	fstp	DWORD PTR tv334[ebp]
	movss	xmm0, DWORD PTR tv334[ebp]
	subss	xmm0, DWORD PTR __real@3f333333
	push	ecx
	movss	DWORD PTR [esp], xmm0
	mov	ecx, DWORD PTR _this$[ebp]
	call	?YPos@VuEntity@@QBEMXZ			; VuEntity::YPos
	push	ecx
	fstp	DWORD PTR [esp]
	mov	ecx, DWORD PTR _this$[ebp]
	call	?XPos@VuEntity@@QBEMXZ			; VuEntity::XPos
	push	ecx
	fstp	DWORD PTR [esp]
	mov	ecx, DWORD PTR _this$[ebp]
	call	?SetPosition@VuEntity@@QAEXMMM@Z	; VuEntity::SetPosition

; 95   : 			
; 96   : 						vec.x = PRANDFloat() * 30.0f;

	call	?PRANDFloat@@YAMXZ			; PRANDFloat
	fstp	DWORD PTR tv347[ebp]
	movss	xmm0, DWORD PTR tv347[ebp]
	mulss	xmm0, DWORD PTR __real@41f00000
	movss	DWORD PTR _vec$[ebp], xmm0

; 97   : 						vec.y = PRANDFloat() * 30.0f;

	call	?PRANDFloat@@YAMXZ			; PRANDFloat
	fstp	DWORD PTR tv351[ebp]
	movss	xmm0, DWORD PTR tv351[ebp]
	mulss	xmm0, DWORD PTR __real@41f00000
	movss	DWORD PTR _vec$[ebp+4], xmm0

; 98   : 						vec.z = -PRANDFloatPos() * 30.0f;

	call	?PRANDFloatPos@@YAMXZ			; PRANDFloatPos
	fstp	DWORD PTR tv355[ebp]
	movss	xmm0, DWORD PTR tv355[ebp]
	xorps	xmm0, DWORD PTR __xmm@80000000800000008000000080000000
	mulss	xmm0, DWORD PTR __real@41f00000
	movss	DWORD PTR _vec$[ebp+8], xmm0

; 99   : 			
; 100  : 						//RV - I-Hawk - changing all LIGHT_CLOUD weapons effects calls
; 101  : 						// to more appropriate GUNSMOKE effect
; 102  : 						/*
; 103  : 						OTWDriver.AddSfxRequest(
; 104  : 							new SfxClass ( SFX_GUNSMOKE,		// type
; 105  : 							SFX_MOVES,
; 106  : 							&pos,					// world pos
; 107  : 							&vec,					// vel vector
; 108  : 							2.3F,					// time to live
; 109  : 							2.0f ) );				// scale
; 110  : 							*/
; 111  : 						DrawableParticleSys::PS_AddParticleEx((SFX_GUNSMOKE + 1),
; 112  : 									&pos,
; 113  : 									&vec);

	lea	ecx, DWORD PTR _vec$[ebp]
	push	ecx
	lea	edx, DWORD PTR _pos$[ebp]
	push	edx
	push	16					; 00000010H
	call	?PS_AddParticleEx@DrawableParticleSys@@SAXHPAUTpoint@@0@Z ; DrawableParticleSys::PS_AddParticleEx
	add	esp, 12					; 0000000cH

; 114  : 					}
; 115  : 					else

	jmp	SHORT $LN5@WeaponKeep
$LN6@WeaponKeep:

; 116  : 					{
; 117  : 						fire = FALSE;

	mov	DWORD PTR _fire$[ebp], 0

; 118  : 						UnSetGunFiring( i );

	mov	eax, DWORD PTR _i$[ebp]
	push	eax
	mov	ecx, DWORD PTR _this$[ebp]
	call	?UnSetGunFiring@GroundClass@@QAEXH@Z	; GroundClass::UnSetGunFiring
$LN5@WeaponKeep:

; 119  : 					}
; 120  : 
; 121  : 					// service the guns.   We need to keep any tracers that have been fired
; 122  : 					// flying and detecting collisions.  The 2nd 2 args aren't used when
; 123  : 					// we aren't actually starting new tracers.
; 124  : 					whatWasHit = Gun->Exec(&fire, gunDmx, &platformAngles, targetPtr, FALSE );

	push	0
	mov	ecx, DWORD PTR _this$[ebp]
	mov	edx, DWORD PTR [ecx+656]
	push	edx
	mov	eax, DWORD PTR _this$[ebp]
	add	eax, 340				; 00000154H
	push	eax
	mov	ecx, DWORD PTR _this$[ebp]
	add	ecx, 792				; 00000318H
	push	ecx
	lea	edx, DWORD PTR _fire$[ebp]
	push	edx
	mov	ecx, DWORD PTR _Gun$[ebp]
	call	?Exec@GunClass@@QAEHPAHQAY02MPAVObjectGeometry@@PAVSimObjectType@@H@Z ; GunClass::Exec
	mov	DWORD PTR _whatWasHit$[ebp], eax

; 125  : 
; 126  : 					// if we hit something, stop firing....
; 127  : 					if ( whatWasHit != TRACER_HIT_NOTHING )

	cmp	DWORD PTR _whatWasHit$[ebp], 0
	je	SHORT $LN3@WeaponKeep

; 128  : 					{
; 129  : 						UnSetGunFiring( i );

	mov	eax, DWORD PTR _i$[ebp]
	push	eax
	mov	ecx, DWORD PTR _this$[ebp]
	call	?UnSetGunFiring@GroundClass@@QAEXH@Z	; GroundClass::UnSetGunFiring

; 130  : 
; 131  : 						// debug....
; 132  : 						if ( whatWasHit & TRACER_HIT_GROUND )

	mov	ecx, DWORD PTR _whatWasHit$[ebp]
	and	ecx, 4
	je	SHORT $LN3@WeaponKeep

; 133  : 						{
; 134  : 							MonoPrint( "Tracer keepalive stopped.  Zpos = %3.3f Ground = %3.3f, GunZ = %3.3f\n",
; 135  : 										ZPos(),
; 136  : 	  									OTWDriver.GetGroundLevel( XPos(), YPos() ),
; 137  : 										gunDmx[0][2] );

	mov	edx, 12					; 0000000cH
	imul	edx, 0
	mov	eax, DWORD PTR _this$[ebp]
	lea	ecx, DWORD PTR [eax+edx+792]
	mov	edx, 4
	shl	edx, 1
	cvtss2sd xmm0, DWORD PTR [ecx+edx]
	sub	esp, 8
	movsd	QWORD PTR [esp], xmm0
	push	0
	mov	ecx, DWORD PTR _this$[ebp]
	call	?YPos@VuEntity@@QBEMXZ			; VuEntity::YPos
	push	ecx
	fstp	DWORD PTR [esp]
	mov	ecx, DWORD PTR _this$[ebp]
	call	?XPos@VuEntity@@QBEMXZ			; VuEntity::XPos
	push	ecx
	fstp	DWORD PTR [esp]
	mov	ecx, OFFSET ?OTWDriver@@3VOTWDriverClass@@A ; OTWDriver
	call	?GetGroundLevel@OTWDriverClass@@QAEMMMPAUTpoint@@@Z ; OTWDriverClass::GetGroundLevel
	sub	esp, 8
	fstp	QWORD PTR [esp]
	mov	ecx, DWORD PTR _this$[ebp]
	call	?ZPos@VuEntity@@QBEMXZ			; VuEntity::ZPos
	sub	esp, 8
	fstp	QWORD PTR [esp]
	push	OFFSET ??_C@_0EG@PGMHPFGC@Tracer?5keepalive?5stopped?4?5?5Zpos?5@
	call	_MonoPrint
	add	esp, 28					; 0000001cH
$LN3@WeaponKeep:

; 138  : 						}
; 139  : 					}
; 140  : 			
; 141  : 				}
; 142  : 			}
; 143  : 			else // a shell

	jmp	SHORT $LN1@WeaponKeep
$LN8@WeaponKeep:

; 144  : 			{
; 145  : 				if ( Gun->shellTargetPtr )

	mov	eax, DWORD PTR _Gun$[ebp]
	cmp	DWORD PTR [eax+848], 0
	je	SHORT $LN1@WeaponKeep

; 146  : 				{
; 147  : 					// service the guns.   We need to keep any tracers that have been fired
; 148  : 					// flying and detecting collisions.  The 2nd 2 args aren't used when
; 149  : 					// we aren't actually starting new tracers.
; 150  : 					Gun->Exec(&fire, gunDmx, &platformAngles, targetPtr, FALSE );

	push	0
	mov	ecx, DWORD PTR _this$[ebp]
	mov	edx, DWORD PTR [ecx+656]
	push	edx
	mov	eax, DWORD PTR _this$[ebp]
	add	eax, 340				; 00000154H
	push	eax
	mov	ecx, DWORD PTR _this$[ebp]
	add	ecx, 792				; 00000318H
	push	ecx
	lea	edx, DWORD PTR _fire$[ebp]
	push	edx
	mov	ecx, DWORD PTR _Gun$[ebp]
	call	?Exec@GunClass@@QAEHPAHQAY02MPAVObjectGeometry@@PAVSimObjectType@@H@Z ; GunClass::Exec

; 151  : 					keepAliveCheck = TRUE;

	mov	DWORD PTR _keepAliveCheck$[ebp], 1
$LN1@WeaponKeep:

; 152  : 				}
; 153  : 			}
; 154  :         } // end is gun
; 155  :     } // end for

	jmp	$LN11@WeaponKeep
$LN10@WeaponKeep:

; 156  : 
; 157  : 	// set need for future keepalives
; 158  : 	needKeepAlive = keepAliveCheck;

	mov	eax, DWORD PTR _keepAliveCheck$[ebp]
	and	eax, 1
	shl	eax, 4
	mov	ecx, DWORD PTR _this$[ebp]
	mov	edx, DWORD PTR [ecx+772]
	and	edx, -17				; ffffffefH
	or	edx, eax
	mov	eax, DWORD PTR _this$[ebp]
	mov	DWORD PTR [eax+772], edx

; 159  : }

	mov	ecx, DWORD PTR __$ArrayPad$[ebp]
	xor	ecx, ebp
	call	@__security_check_cookie@4
	mov	esp, ebp
	pop	ebp
	ret	0
?WeaponKeepAlive@GroundClass@@UAEXXZ ENDP		; GroundClass::WeaponKeepAlive
_TEXT	ENDS
; Function compile flags: /Odtp
; File c:\users\zhitao li\documents\visual studio 2012\projects\freefalcon\sim\ground\weapon.cpp
_TEXT	SEGMENT
tv537 = -108						; size = 4
tv509 = -104						; size = 4
tv498 = -100						; size = 4
tv480 = -96						; size = 4
tv473 = -92						; size = 4
tv464 = -88						; size = 4
tv453 = -84						; size = 4
_newEl$1 = -80						; size = 4
_newAz$2 = -76						; size = 4
tv434 = -72						; size = 4
tv428 = -68						; size = 4
tv367 = -64						; size = 4
_newAz$ = -60						; size = 4
tv366 = -56						; size = 4
tv353 = -52						; size = 4
tv307 = -48						; size = 4
tv306 = -44						; size = 4
tv287 = -40						; size = 4
tv218 = -36						; size = 4
tv193 = -32						; size = 4
tv149 = -28						; size = 4
_maxAz$3 = -24						; size = 4
_vc$4 = -20						; size = 4
_newEl$ = -16						; size = 4
_maxEl$5 = -12						; size = 4
_delta$6 = -8						; size = 4
_this$ = -4						; size = 4
?RotateTurret@GroundClass@@QAEXXZ PROC			; GroundClass::RotateTurret
; _this$ = ecx

; 347  : {

	push	ebp
	mov	ebp, esp
	sub	esp, 108				; 0000006cH
	push	esi
	mov	DWORD PTR _this$[ebp], ecx

; 348  : 	float newAz, newEl;
; 349  : 
; 350  : 	if ( isFootSquad )

	mov	eax, DWORD PTR _this$[ebp]
	mov	ecx, DWORD PTR [eax+772]
	and	ecx, 1
	je	SHORT $LN19@RotateTurr

; 351  : 	{
; 352  : 		float newAz = targetPtr->localData->az - Yaw();	

	mov	edx, DWORD PTR _this$[ebp]
	mov	eax, DWORD PTR [edx+656]
	mov	esi, DWORD PTR [eax+12]
	mov	ecx, DWORD PTR _this$[ebp]
	call	?Yaw@VuEntity@@QBEMXZ			; VuEntity::Yaw
	fstp	DWORD PTR tv428[ebp]
	movss	xmm0, DWORD PTR [esi+16]
	subss	xmm0, DWORD PTR tv428[ebp]
	movss	DWORD PTR _newAz$2[ebp], xmm0

; 353  : 		float newEl = targetPtr->localData->el - Pitch();

	mov	ecx, DWORD PTR _this$[ebp]
	mov	edx, DWORD PTR [ecx+656]
	mov	esi, DWORD PTR [edx+12]
	mov	ecx, DWORD PTR _this$[ebp]
	call	?Pitch@VuEntity@@QBEMXZ			; VuEntity::Pitch
	fstp	DWORD PTR tv434[ebp]
	movss	xmm0, DWORD PTR [esi+28]
	subss	xmm0, DWORD PTR tv434[ebp]
	movss	DWORD PTR _newEl$1[ebp], xmm0

; 354  : 		//Let foot soldiers have instant aiming ability
; 355  : 		SetDOF(AIRDEF_AZIMUTH, newAz);

	push	ecx
	movss	xmm0, DWORD PTR _newAz$2[ebp]
	movss	DWORD PTR [esp], xmm0
	push	0
	mov	ecx, DWORD PTR _this$[ebp]
	call	?SetDOF@SimMoverClass@@QAEXHM@Z		; SimMoverClass::SetDOF

; 356  : 		SetDOF(AIRDEF_ELEV, newEl);

	push	ecx
	movss	xmm0, DWORD PTR _newEl$1[ebp]
	movss	DWORD PTR [esp], xmm0
	push	1
	mov	ecx, DWORD PTR _this$[ebp]
	call	?SetDOF@SimMoverClass@@QAEXHM@Z		; SimMoverClass::SetDOF

; 357  : 	}
; 358  : 	else

	jmp	$LN1@RotateTurr
$LN19@RotateTurr:

; 359  : 	{
; 360  : 		if(!targetPtr->BaseData()->OnGround() && !isAirDefense)

	mov	eax, DWORD PTR _this$[ebp]
	mov	ecx, DWORD PTR [eax+656]
	call	?BaseData@SimObjectType@@QAEPAVFalconEntity@@XZ ; SimObjectType::BaseData
	mov	DWORD PTR tv149[ebp], eax
	mov	ecx, DWORD PTR tv149[ebp]
	mov	edx, DWORD PTR [ecx]
	mov	ecx, DWORD PTR tv149[ebp]
	mov	eax, DWORD PTR [edx+148]
	call	eax
	test	eax, eax
	jne	SHORT $LN17@RotateTurr
	mov	ecx, DWORD PTR _this$[ebp]
	mov	edx, DWORD PTR [ecx+772]
	shr	edx, 7
	and	edx, 1
	jne	SHORT $LN17@RotateTurr

; 361  : 		{
; 362  : 			newAz = 0.0F;

	movss	xmm0, DWORD PTR __real@00000000
	movss	DWORD PTR _newAz$[ebp], xmm0

; 363  : 			newEl = 0.0F;

	movss	xmm0, DWORD PTR __real@00000000
	movss	DWORD PTR _newEl$[ebp], xmm0

; 364  : 		}
; 365  : 		else

	jmp	$LN14@RotateTurr
$LN17@RotateTurr:

; 366  : 		{
; 367  : 			newAz = targetPtr->localData->az - Yaw();	

	mov	eax, DWORD PTR _this$[ebp]
	mov	ecx, DWORD PTR [eax+656]
	mov	esi, DWORD PTR [ecx+12]
	mov	ecx, DWORD PTR _this$[ebp]
	call	?Yaw@VuEntity@@QBEMXZ			; VuEntity::Yaw
	fstp	DWORD PTR tv453[ebp]
	movss	xmm0, DWORD PTR [esi+16]
	subss	xmm0, DWORD PTR tv453[ebp]
	movss	DWORD PTR _newAz$[ebp], xmm0

; 368  : 
; 369  : 			if(isAirDefense)

	mov	edx, DWORD PTR _this$[ebp]
	mov	eax, DWORD PTR [edx+772]
	shr	eax, 7
	and	eax, 1
	je	SHORT $LN15@RotateTurr

; 370  : 				newEl = min(targetPtr->localData->el, 85.0F*DTR) - Pitch();

	mov	ecx, DWORD PTR _this$[ebp]
	mov	edx, DWORD PTR [ecx+656]
	mov	eax, DWORD PTR [edx+12]
	movss	xmm0, DWORD PTR __real@3fbde44d
	comiss	xmm0, DWORD PTR [eax+28]
	jbe	SHORT $LN22@RotateTurr
	mov	ecx, DWORD PTR _this$[ebp]
	mov	edx, DWORD PTR [ecx+656]
	mov	eax, DWORD PTR [edx+12]
	movss	xmm0, DWORD PTR [eax+28]
	movss	DWORD PTR tv193[ebp], xmm0
	jmp	SHORT $LN23@RotateTurr
$LN22@RotateTurr:
	movss	xmm0, DWORD PTR __real@3fbde44d
	movss	DWORD PTR tv193[ebp], xmm0
$LN23@RotateTurr:
	mov	ecx, DWORD PTR _this$[ebp]
	call	?Pitch@VuEntity@@QBEMXZ			; VuEntity::Pitch
	fstp	DWORD PTR tv464[ebp]
	movss	xmm0, DWORD PTR tv193[ebp]
	subss	xmm0, DWORD PTR tv464[ebp]
	movss	DWORD PTR _newEl$[ebp], xmm0

; 371  : 			else

	jmp	SHORT $LN14@RotateTurr
$LN15@RotateTurr:

; 372  : 				newEl = min(targetPtr->localData->el, 45.0F*DTR) - Pitch();

	mov	ecx, DWORD PTR _this$[ebp]
	mov	edx, DWORD PTR [ecx+656]
	mov	eax, DWORD PTR [edx+12]
	movss	xmm0, DWORD PTR __real@3f490fd9
	comiss	xmm0, DWORD PTR [eax+28]
	jbe	SHORT $LN24@RotateTurr
	mov	ecx, DWORD PTR _this$[ebp]
	mov	edx, DWORD PTR [ecx+656]
	mov	eax, DWORD PTR [edx+12]
	movss	xmm0, DWORD PTR [eax+28]
	movss	DWORD PTR tv218[ebp], xmm0
	jmp	SHORT $LN25@RotateTurr
$LN24@RotateTurr:
	movss	xmm0, DWORD PTR __real@3f490fd9
	movss	DWORD PTR tv218[ebp], xmm0
$LN25@RotateTurr:
	mov	ecx, DWORD PTR _this$[ebp]
	call	?Pitch@VuEntity@@QBEMXZ			; VuEntity::Pitch
	fstp	DWORD PTR tv473[ebp]
	movss	xmm0, DWORD PTR tv218[ebp]
	subss	xmm0, DWORD PTR tv473[ebp]
	movss	DWORD PTR _newEl$[ebp], xmm0
$LN14@RotateTurr:

; 373  : 		}
; 374  : 		// Rotate our DOFs towards our target, if any - or toward front
; 375  : 		// KCK: This stuff could be LODed out with ed's IsHidden() check to save time
; 376  : 		float maxAz = TURRET_ROTATE_RATE * SimLibMajorFrameTime;

	movss	xmm0, DWORD PTR __real@3f060a91
	mulss	xmm0, DWORD PTR ?SimLibMajorFrameTime@@3MA
	movss	DWORD PTR _maxAz$3[ebp], xmm0

; 377  : 		float maxEl = TURRET_ELEVATE_RATE * SimLibMajorFrameTime;

	movss	xmm0, DWORD PTR __real@3e860a91
	mulss	xmm0, DWORD PTR ?SimLibMajorFrameTime@@3MA
	movss	DWORD PTR _maxEl$5[ebp], xmm0

; 378  : 		
; 379  : 		float delta = newEl - GetDOFValue(AIRDEF_ELEV);

	push	1
	mov	ecx, DWORD PTR _this$[ebp]
	call	?GetDOFValue@SimMoverClass@@QAEMH@Z	; SimMoverClass::GetDOFValue
	fstp	DWORD PTR tv480[ebp]
	movss	xmm0, DWORD PTR _newEl$[ebp]
	subss	xmm0, DWORD PTR tv480[ebp]
	movss	DWORD PTR _delta$6[ebp], xmm0

; 380  : 		if(delta > 180.0F*DTR)

	movss	xmm0, DWORD PTR _delta$6[ebp]
	comiss	xmm0, DWORD PTR __real@40490fd9
	jbe	SHORT $LN13@RotateTurr

; 381  : 			delta -= 360.0F*DTR;

	movss	xmm0, DWORD PTR _delta$6[ebp]
	subss	xmm0, DWORD PTR __real@40c90fd9
	movss	DWORD PTR _delta$6[ebp], xmm0
	jmp	SHORT $LN11@RotateTurr
$LN13@RotateTurr:

; 382  : 		else if(delta < -180.0F*DTR)

	movss	xmm0, DWORD PTR __real@c0490fd9
	comiss	xmm0, DWORD PTR _delta$6[ebp]
	jbe	SHORT $LN11@RotateTurr

; 383  : 			delta += 360.0F*DTR;

	movss	xmm0, DWORD PTR _delta$6[ebp]
	addss	xmm0, DWORD PTR __real@40c90fd9
	movss	DWORD PTR _delta$6[ebp], xmm0
$LN11@RotateTurr:

; 384  : 
; 385  : 		// Do elevation adjustments
; 386  : 		if (delta > maxEl)

	movss	xmm0, DWORD PTR _delta$6[ebp]
	comiss	xmm0, DWORD PTR _maxEl$5[ebp]
	jbe	SHORT $LN10@RotateTurr

; 387  : 		    SetDOFInc(AIRDEF_ELEV, maxEl);

	push	ecx
	movss	xmm0, DWORD PTR _maxEl$5[ebp]
	movss	DWORD PTR [esp], xmm0
	push	1
	mov	ecx, DWORD PTR _this$[ebp]
	call	?SetDOFInc@SimMoverClass@@QAEXHM@Z	; SimMoverClass::SetDOFInc
	jmp	SHORT $LN7@RotateTurr
$LN10@RotateTurr:

; 388  : 		else if (delta < -maxEl)

	movss	xmm0, DWORD PTR _maxEl$5[ebp]
	xorps	xmm0, DWORD PTR __xmm@80000000800000008000000080000000
	comiss	xmm0, DWORD PTR _delta$6[ebp]
	jbe	SHORT $LN8@RotateTurr

; 389  : 		    SetDOFInc(AIRDEF_ELEV, -maxEl);

	movss	xmm0, DWORD PTR _maxEl$5[ebp]
	xorps	xmm0, DWORD PTR __xmm@80000000800000008000000080000000
	push	ecx
	movss	DWORD PTR [esp], xmm0
	push	1
	mov	ecx, DWORD PTR _this$[ebp]
	call	?SetDOFInc@SimMoverClass@@QAEXHM@Z	; SimMoverClass::SetDOFInc

; 390  : 		else

	jmp	SHORT $LN7@RotateTurr
$LN8@RotateTurr:

; 391  : 		    SetDOF(AIRDEF_ELEV, newEl);

	push	ecx
	movss	xmm0, DWORD PTR _newEl$[ebp]
	movss	DWORD PTR [esp], xmm0
	push	1
	mov	ecx, DWORD PTR _this$[ebp]
	call	?SetDOF@SimMoverClass@@QAEXHM@Z		; SimMoverClass::SetDOF
$LN7@RotateTurr:

; 392  : 
; 393  : 		SetDOF(AIRDEF_ELEV, min(85.0F*DTR, max(GetDOFValue(AIRDEF_ELEV), 0.0F)));

	push	1
	mov	ecx, DWORD PTR _this$[ebp]
	call	?GetDOFValue@SimMoverClass@@QAEMH@Z	; SimMoverClass::GetDOFValue
	fstp	DWORD PTR tv498[ebp]
	movss	xmm0, DWORD PTR tv498[ebp]
	comiss	xmm0, DWORD PTR __real@00000000
	jbe	SHORT $LN26@RotateTurr
	push	1
	mov	ecx, DWORD PTR _this$[ebp]
	call	?GetDOFValue@SimMoverClass@@QAEMH@Z	; SimMoverClass::GetDOFValue
	fstp	DWORD PTR tv287[ebp]
	jmp	SHORT $LN27@RotateTurr
$LN26@RotateTurr:
	movss	xmm0, DWORD PTR __real@00000000
	movss	DWORD PTR tv287[ebp], xmm0
$LN27@RotateTurr:
	movss	xmm0, DWORD PTR tv287[ebp]
	comiss	xmm0, DWORD PTR __real@3fbde44d
	jbe	SHORT $LN30@RotateTurr
	movss	xmm0, DWORD PTR __real@3fbde44d
	movss	DWORD PTR tv307[ebp], xmm0
	jmp	SHORT $LN31@RotateTurr
$LN30@RotateTurr:
	push	1
	mov	ecx, DWORD PTR _this$[ebp]
	call	?GetDOFValue@SimMoverClass@@QAEMH@Z	; SimMoverClass::GetDOFValue
	fstp	DWORD PTR tv509[ebp]
	movss	xmm0, DWORD PTR tv509[ebp]
	comiss	xmm0, DWORD PTR __real@00000000
	jbe	SHORT $LN28@RotateTurr
	push	1
	mov	ecx, DWORD PTR _this$[ebp]
	call	?GetDOFValue@SimMoverClass@@QAEMH@Z	; SimMoverClass::GetDOFValue
	fstp	DWORD PTR tv306[ebp]
	jmp	SHORT $LN29@RotateTurr
$LN28@RotateTurr:
	movss	xmm0, DWORD PTR __real@00000000
	movss	DWORD PTR tv306[ebp], xmm0
$LN29@RotateTurr:
	movss	xmm0, DWORD PTR tv306[ebp]
	movss	DWORD PTR tv307[ebp], xmm0
$LN31@RotateTurr:
	push	ecx
	movss	xmm0, DWORD PTR tv307[ebp]
	movss	DWORD PTR [esp], xmm0
	push	1
	mov	ecx, DWORD PTR _this$[ebp]
	call	?SetDOF@SimMoverClass@@QAEXHM@Z		; SimMoverClass::SetDOF

; 394  : 		SetDOF(AIRDEF_ELEV2, GetDOFValue(AIRDEF_ELEV));

	push	1
	mov	ecx, DWORD PTR _this$[ebp]
	call	?GetDOFValue@SimMoverClass@@QAEMH@Z	; SimMoverClass::GetDOFValue
	push	ecx
	fstp	DWORD PTR [esp]
	push	2
	mov	ecx, DWORD PTR _this$[ebp]
	call	?SetDOF@SimMoverClass@@QAEXHM@Z		; SimMoverClass::SetDOF

; 395  : 		
; 396  : 		// RV - Biker - For vehicles which have radar not looking forward by default read offset from FueFlow data
; 397  : 		VehicleClassDataType* vc = GetVehicleClassData(Type() - VU_LAST_ENTITY_TYPE);

	mov	ecx, DWORD PTR _this$[ebp]
	call	?Type@VuEntity@@QBEGXZ			; VuEntity::Type
	movzx	ecx, ax
	sub	ecx, 100				; 00000064H
	push	ecx
	call	?GetVehicleClassData@@YAPAUVehicleClassDataType@@H@Z ; GetVehicleClassData
	add	esp, 4
	mov	DWORD PTR _vc$4[ebp], eax

; 398  : 
; 399  : 		delta = newAz - GetDOFValue(AIRDEF_AZIMUTH) - min(max(0.0F, vc->FuelEcon*DTR), 360.0F*DTR);

	mov	edx, DWORD PTR _vc$4[ebp]
	movsx	eax, WORD PTR [edx+44]
	cvtsi2ss xmm0, eax
	mulss	xmm0, DWORD PTR __real@3c8efa34
	movss	xmm1, DWORD PTR __real@00000000
	comiss	xmm1, xmm0
	jbe	SHORT $LN32@RotateTurr
	movss	xmm0, DWORD PTR __real@00000000
	movss	DWORD PTR tv353[ebp], xmm0
	jmp	SHORT $LN33@RotateTurr
$LN32@RotateTurr:
	mov	ecx, DWORD PTR _vc$4[ebp]
	movsx	edx, WORD PTR [ecx+44]
	cvtsi2ss xmm0, edx
	mulss	xmm0, DWORD PTR __real@3c8efa34
	movss	DWORD PTR tv353[ebp], xmm0
$LN33@RotateTurr:
	movss	xmm0, DWORD PTR __real@40c90fd9
	comiss	xmm0, DWORD PTR tv353[ebp]
	jbe	SHORT $LN36@RotateTurr
	mov	eax, DWORD PTR _vc$4[ebp]
	movsx	ecx, WORD PTR [eax+44]
	cvtsi2ss xmm0, ecx
	mulss	xmm0, DWORD PTR __real@3c8efa34
	movss	xmm1, DWORD PTR __real@00000000
	comiss	xmm1, xmm0
	jbe	SHORT $LN34@RotateTurr
	movss	xmm0, DWORD PTR __real@00000000
	movss	DWORD PTR tv366[ebp], xmm0
	jmp	SHORT $LN35@RotateTurr
$LN34@RotateTurr:
	mov	edx, DWORD PTR _vc$4[ebp]
	movsx	eax, WORD PTR [edx+44]
	cvtsi2ss xmm0, eax
	mulss	xmm0, DWORD PTR __real@3c8efa34
	movss	DWORD PTR tv366[ebp], xmm0
$LN35@RotateTurr:
	movss	xmm0, DWORD PTR tv366[ebp]
	movss	DWORD PTR tv367[ebp], xmm0
	jmp	SHORT $LN37@RotateTurr
$LN36@RotateTurr:
	movss	xmm0, DWORD PTR __real@40c90fd9
	movss	DWORD PTR tv367[ebp], xmm0
$LN37@RotateTurr:
	push	0
	mov	ecx, DWORD PTR _this$[ebp]
	call	?GetDOFValue@SimMoverClass@@QAEMH@Z	; SimMoverClass::GetDOFValue
	fstp	DWORD PTR tv537[ebp]
	movss	xmm0, DWORD PTR _newAz$[ebp]
	subss	xmm0, DWORD PTR tv537[ebp]
	subss	xmm0, DWORD PTR tv367[ebp]
	movss	DWORD PTR _delta$6[ebp], xmm0

; 400  : 
; 401  : 		if(delta > 180.0F*DTR)

	movss	xmm0, DWORD PTR _delta$6[ebp]
	comiss	xmm0, DWORD PTR __real@40490fd9
	jbe	SHORT $LN6@RotateTurr

; 402  : 			delta -= 360.0F*DTR;

	movss	xmm0, DWORD PTR _delta$6[ebp]
	subss	xmm0, DWORD PTR __real@40c90fd9
	movss	DWORD PTR _delta$6[ebp], xmm0
	jmp	SHORT $LN4@RotateTurr
$LN6@RotateTurr:

; 403  : 		else if(delta < -180.0F*DTR)

	movss	xmm0, DWORD PTR __real@c0490fd9
	comiss	xmm0, DWORD PTR _delta$6[ebp]
	jbe	SHORT $LN4@RotateTurr

; 404  : 			delta += 360.0F*DTR;

	movss	xmm0, DWORD PTR _delta$6[ebp]
	addss	xmm0, DWORD PTR __real@40c90fd9
	movss	DWORD PTR _delta$6[ebp], xmm0
$LN4@RotateTurr:

; 405  : 
; 406  : 		// Now do the azmuth adjustments
; 407  : 		if (delta > maxAz)

	movss	xmm0, DWORD PTR _delta$6[ebp]
	comiss	xmm0, DWORD PTR _maxAz$3[ebp]
	jbe	SHORT $LN3@RotateTurr

; 408  : 		    SetDOFInc(AIRDEF_AZIMUTH, maxAz);

	push	ecx
	movss	xmm0, DWORD PTR _maxAz$3[ebp]
	movss	DWORD PTR [esp], xmm0
	push	0
	mov	ecx, DWORD PTR _this$[ebp]
	call	?SetDOFInc@SimMoverClass@@QAEXHM@Z	; SimMoverClass::SetDOFInc
	jmp	SHORT $LN1@RotateTurr
$LN3@RotateTurr:

; 409  : 		else if (delta < -maxAz)

	movss	xmm0, DWORD PTR _maxAz$3[ebp]
	xorps	xmm0, DWORD PTR __xmm@80000000800000008000000080000000
	comiss	xmm0, DWORD PTR _delta$6[ebp]
	jbe	SHORT $LN1@RotateTurr

; 410  : 		    SetDOFInc(AIRDEF_AZIMUTH, -maxAz);

	movss	xmm0, DWORD PTR _maxAz$3[ebp]
	xorps	xmm0, DWORD PTR __xmm@80000000800000008000000080000000
	push	ecx
	movss	DWORD PTR [esp], xmm0
	push	0
	mov	ecx, DWORD PTR _this$[ebp]
	call	?SetDOFInc@SimMoverClass@@QAEXHM@Z	; SimMoverClass::SetDOFInc
$LN1@RotateTurr:

; 411  : 		// RV - Biker - Don't do this
; 412  : 		//else
; 413  : 		//	SetDOF(AIRDEF_AZIMUTH, newAz);
; 414  : 	}
; 415  : 	
; 416  : }

	pop	esi
	mov	esp, ebp
	pop	ebp
	ret	0
?RotateTurret@GroundClass@@QAEXXZ ENDP			; GroundClass::RotateTurret
_TEXT	ENDS
; Function compile flags: /Odtp
; File c:\users\zhitao li\documents\visual studio 2012\projects\freefalcon\sim\ground\weapon.cpp
_TEXT	SEGMENT
_vc$2 = -136						; size = 4
$T3 = -132						; size = 4
$T4 = -128						; size = 4
$T5 = -124						; size = 4
$T6 = -120						; size = 4
$T7 = -116						; size = 4
tv252 = -112						; size = 4
tv406 = -108						; size = 4
tv227 = -104						; size = 4
tv331 = -100						; size = 4
tv361 = -96						; size = 4
tv87 = -92						; size = 4
_radarData$8 = -88					; size = 4
_radarData$9 = -84					; size = 4
tv387 = -80						; size = 4
_numVeh$10 = -76					; size = 4
_rate$11 = -72						; size = 4
_theMissile$12 = -68					; size = 4
_Gun$13 = -64						; size = 4
_theWeapon$ = -60					; size = 4
_this$ = -56						; size = 4
_vec$14 = -52						; size = 12
_PSvec$ = -40						; size = 12
_pos$ = -28						; size = 12
__$ArrayPad$ = -16					; size = 4
__$EHRec$ = -12						; size = 12
?DoWeapons@GroundClass@@QAEHXZ PROC			; GroundClass::DoWeapons
; _this$ = ecx

; 161  : BOOL GroundClass::DoWeapons (void){

	push	ebp
	mov	ebp, esp
	push	-1
	push	__ehhandler$?DoWeapons@GroundClass@@QAEHXZ
	mov	eax, DWORD PTR fs:0
	push	eax
	sub	esp, 124				; 0000007cH
	mov	eax, DWORD PTR ___security_cookie
	xor	eax, ebp
	mov	DWORD PTR __$ArrayPad$[ebp], eax
	push	esi
	push	eax
	lea	eax, DWORD PTR __$EHRec$[ebp]
	mov	DWORD PTR fs:0, eax
	mov	DWORD PTR _this$[ebp], ecx

; 162  : 
; 163  : 	Tpoint pos;
; 164  : 
; 165  : 	//RV - I-Hawk - Added a 0 vector for RV new PS calls
; 166  : 	Tpoint PSvec;
; 167  : 	PSvec.x = 0;

	movss	xmm0, DWORD PTR __real@00000000
	movss	DWORD PTR _PSvec$[ebp], xmm0

; 168  : 	PSvec.y = 0;

	movss	xmm0, DWORD PTR __real@00000000
	movss	DWORD PTR _PSvec$[ebp+4], xmm0

; 169  : 	PSvec.z = 0;

	movss	xmm0, DWORD PTR __real@00000000
	movss	DWORD PTR _PSvec$[ebp+8], xmm0

; 170  : 
; 171  : 	// sfr: we need the bin to avoid weapon destruction when its detached
; 172  : 	VuBin<SimWeaponClass> theWeapon(Sms->GetCurrentWeapon());

	mov	eax, DWORD PTR _this$[ebp]
	mov	ecx, DWORD PTR [eax+780]
	mov	edx, DWORD PTR _this$[ebp]
	mov	eax, DWORD PTR [ecx]
	mov	ecx, DWORD PTR [edx+780]
	mov	edx, DWORD PTR [eax+12]
	call	edx
	push	eax
	lea	ecx, DWORD PTR _theWeapon$[ebp]
	call	??0?$VuBin@VSimWeaponClass@@@@QAE@PAVSimWeaponClass@@@Z ; VuBin<SimWeaponClass>::VuBin<SimWeaponClass>
	mov	DWORD PTR __$EHRec$[ebp+8], 0

; 173  : 	//SimWeaponClass *theWeapon;
; 174  : 	//theWeapon.reset(Sms->GetCurrentWeapon());
; 175  : 	//theWeapon.reset(Sms->GetCurrentWeapon());
; 176  : 	if (!theWeapon){ return FALSE; }

	lea	ecx, DWORD PTR _theWeapon$[ebp]
	call	??7?$VuBin@VSimWeaponClass@@@@QBE_NXZ	; VuBin<SimWeaponClass>::operator!
	movzx	eax, al
	test	eax, eax
	je	SHORT $LN22@DoWeapons
	mov	DWORD PTR $T6[ebp], 0
	mov	DWORD PTR __$EHRec$[ebp+8], -1
	lea	ecx, DWORD PTR _theWeapon$[ebp]
	call	??1?$VuBin@VSimWeaponClass@@@@QAE@XZ	; VuBin<SimWeaponClass>::~VuBin<SimWeaponClass>
	mov	eax, DWORD PTR $T6[ebp]
	jmp	$LN23@DoWeapons
$LN22@DoWeapons:

; 177  : 
; 178  : 	// RV - Biker - Don't do missiles when heavy damaged
; 179  : 	//if (theWeapon->IsMissile() && pctStrength < 0.5f) { return FALSE; }
; 180  : 
; 181  : 	// RV - Biker - Don't do guns when heavy damaged
; 182  : 	//if (theWeapon->IsGun() && pctStrength < 0.0f) { return FALSE; }
; 183  : 
; 184  : 	if (theWeapon->IsGun()){

	lea	ecx, DWORD PTR _theWeapon$[ebp]
	call	??C?$VuBin@VSimWeaponClass@@@@QBEPAVSimWeaponClass@@XZ ; VuBin<SimWeaponClass>::operator->
	mov	DWORD PTR tv87[ebp], eax
	mov	ecx, DWORD PTR tv87[ebp]
	mov	edx, DWORD PTR [ecx]
	mov	ecx, DWORD PTR tv87[ebp]
	mov	eax, DWORD PTR [edx+168]
	call	eax
	test	eax, eax
	je	$LN21@DoWeapons

; 185  : 		// point to Gun Class
; 186  : 		GunClass *Gun = static_cast<GunClass*>(theWeapon.get());

	lea	ecx, DWORD PTR _theWeapon$[ebp]
	call	?get@?$VuBin@VSimWeaponClass@@@@QBEPAVSimWeaponClass@@XZ ; VuBin<SimWeaponClass>::get
	mov	DWORD PTR _Gun$13[ebp], eax

; 187  : 		//GunClass *Gun = static_cast<GunClass*>(theWeapon);
; 188  : 		
; 189  : 		// make sure a relative position is set
; 190  : 		Gun->SetPosition( 2.0f, 0.0f, -4.0f, 0.0f, 0.0f );

	push	ecx
	movss	xmm0, DWORD PTR __real@00000000
	movss	DWORD PTR [esp], xmm0
	push	ecx
	movss	xmm0, DWORD PTR __real@00000000
	movss	DWORD PTR [esp], xmm0
	push	ecx
	movss	xmm0, DWORD PTR __real@c0800000
	movss	DWORD PTR [esp], xmm0
	push	ecx
	movss	xmm0, DWORD PTR __real@00000000
	movss	DWORD PTR [esp], xmm0
	push	ecx
	movss	xmm0, DWORD PTR __real@40000000
	movss	DWORD PTR [esp], xmm0
	mov	ecx, DWORD PTR _Gun$13[ebp]
	call	?SetPosition@GunClass@@QAEXMMMMM@Z	; GunClass::SetPosition

; 191  : 		
; 192  : 		if (GunTrack()){

	mov	ecx, DWORD PTR _this$[ebp]
	call	?GunTrack@GroundClass@@QAEHXZ		; GroundClass::GunTrack
	test	eax, eax
	je	$LN20@DoWeapons

; 193  : 			if (!IsGunFiring(Sms->GetCurrentWeaponHardpoint()) || Gun->IsShell() ){

	mov	ecx, DWORD PTR _this$[ebp]
	mov	ecx, DWORD PTR [ecx+780]
	call	?GetCurrentWeaponHardpoint@SMSBaseClass@@QAEHXZ ; SMSBaseClass::GetCurrentWeaponHardpoint
	push	eax
	mov	ecx, DWORD PTR _this$[ebp]
	call	?IsGunFiring@GroundClass@@QAEHH@Z	; GroundClass::IsGunFiring
	test	eax, eax
	je	SHORT $LN18@DoWeapons
	mov	ecx, DWORD PTR _Gun$13[ebp]
	call	?IsShell@GunClass@@QAEHXZ		; GunClass::IsShell
	test	eax, eax
	je	SHORT $LN19@DoWeapons
$LN18@DoWeapons:

; 194  : 				//me123 disabled for now...its looking realy strange in mp 
; 195  : 				if (!Gun->FiremsgsendTime){

	mov	edx, DWORD PTR _Gun$13[ebp]
	cmp	DWORD PTR [edx+828], 0
	jne	SHORT $LN17@DoWeapons

; 196  : 					SendFireMessage ((SimWeaponClass*)Gun, FalconWeaponsFire::GUN, TRUE, targetPtr);

	mov	eax, DWORD PTR ?FalconNullId@@3VVU_ID@@A+4
	push	eax
	mov	ecx, DWORD PTR ?FalconNullId@@3VVU_ID@@A
	push	ecx
	mov	edx, DWORD PTR _this$[ebp]
	mov	eax, DWORD PTR [edx+656]
	push	eax
	push	1
	push	0
	mov	ecx, DWORD PTR _Gun$13[ebp]
	push	ecx
	mov	ecx, DWORD PTR _this$[ebp]
	call	?SendFireMessage@SimVehicleClass@@QAEXPAVSimWeaponClass@@HHPAVSimObjectType@@VVU_ID@@@Z ; SimVehicleClass::SendFireMessage
$LN17@DoWeapons:

; 197  : 				}
; 198  : 				Gun->FiremsgsendTime = vuxRealTime;

	mov	edx, DWORD PTR _Gun$13[ebp]
	mov	eax, DWORD PTR ?vuxRealTime@@3KA	; vuxRealTime
	mov	DWORD PTR [edx+828], eax
$LN19@DoWeapons:

; 199  : 			}
; 200  : 
; 201  : 			if ( Gun->IsTracer() ){

	mov	ecx, DWORD PTR _Gun$13[ebp]
	call	?IsTracer@GunClass@@QAEHXZ		; GunClass::IsTracer
	test	eax, eax
	je	SHORT $LN16@DoWeapons

; 202  : 				SoundPos.Sfx( SFX_MCGUN);

	push	ecx
	movss	xmm0, DWORD PTR __real@00000000
	movss	DWORD PTR [esp], xmm0
	push	ecx
	movss	xmm0, DWORD PTR __real@3f800000
	movss	DWORD PTR [esp], xmm0
	push	0
	push	49					; 00000031H
	mov	ecx, DWORD PTR _this$[ebp]
	add	ecx, 444				; 000001bcH
	call	?Sfx@F4SoundPos@@QAEXHHMM@Z		; F4SoundPos::Sfx

; 203  : 				SetGunFiring(Sms->GetCurrentWeaponHardpoint());

	mov	ecx, DWORD PTR _this$[ebp]
	mov	ecx, DWORD PTR [ecx+780]
	call	?GetCurrentWeaponHardpoint@SMSBaseClass@@QAEHXZ ; SMSBaseClass::GetCurrentWeaponHardpoint
	push	eax
	mov	ecx, DWORD PTR _this$[ebp]
	call	?SetGunFiring@GroundClass@@QAEXH@Z	; GroundClass::SetGunFiring

; 204  : 				// 2000-10-12 MODIFIED BY S.G. THIS IS TO SAY WE TOOK A TRACER GUN SHOT
; 205  : 				// 2000-10-27 ADDED BY S.G. 
; 206  : 				// SO GUNS CAN HAVE DIFFERENT FIRE RATE... BUT NOT IN RP4 SO REMOVED FROM HERE AS WELL
; 207  : 				//if (Gun->wcPtr->Flags & 0x80)
; 208  : 					return TRUE + 1;			// Slow fire rate gun

	mov	DWORD PTR $T7[ebp], 2
	mov	DWORD PTR __$EHRec$[ebp+8], -1
	lea	ecx, DWORD PTR _theWeapon$[ebp]
	call	??1?$VuBin@VSimWeaponClass@@@@QAE@XZ	; VuBin<SimWeaponClass>::~VuBin<SimWeaponClass>
	mov	eax, DWORD PTR $T7[ebp]
	jmp	$LN23@DoWeapons
$LN16@DoWeapons:

; 209  : 				//else
; 210  : 				//	return TRUE + 2;			// Fast fire rate gun
; 211  : 				// END OF MODIFIED SECTION
; 212  : 			}
; 213  : 			return TRUE;	// We took a shot

	mov	DWORD PTR $T4[ebp], 1
	mov	DWORD PTR __$EHRec$[ebp+8], -1
	lea	ecx, DWORD PTR _theWeapon$[ebp]
	call	??1?$VuBin@VSimWeaponClass@@@@QAE@XZ	; VuBin<SimWeaponClass>::~VuBin<SimWeaponClass>
	mov	eax, DWORD PTR $T4[ebp]
	jmp	$LN23@DoWeapons

; 214  : 		}
; 215  : 		else {

	jmp	SHORT $LN15@DoWeapons
$LN20@DoWeapons:

; 216  : 			if (1/*IsGunFiring(Sms->GetCurrentWeaponHardpoint())*/){

	mov	edx, 1
	test	edx, edx
	je	SHORT $LN13@DoWeapons

; 217  : 				if (Gun->FiremsgsendTime && vuxRealTime - Gun->FiremsgsendTime > 20000){

	mov	eax, DWORD PTR _Gun$13[ebp]
	cmp	DWORD PTR [eax+828], 0
	je	SHORT $LN13@DoWeapons
	mov	ecx, DWORD PTR _Gun$13[ebp]
	mov	edx, DWORD PTR ?vuxRealTime@@3KA	; vuxRealTime
	sub	edx, DWORD PTR [ecx+828]
	cmp	edx, 20000				; 00004e20H
	jbe	SHORT $LN13@DoWeapons

; 218  : 					//me123 disabled for now...its looking realy strange in mp	
; 219  : 					SendFireMessage ((SimWeaponClass*)Gun, FalconWeaponsFire::GUN, FALSE, targetPtr);

	mov	eax, DWORD PTR ?FalconNullId@@3VVU_ID@@A+4
	push	eax
	mov	ecx, DWORD PTR ?FalconNullId@@3VVU_ID@@A
	push	ecx
	mov	edx, DWORD PTR _this$[ebp]
	mov	eax, DWORD PTR [edx+656]
	push	eax
	push	0
	push	0
	mov	ecx, DWORD PTR _Gun$13[ebp]
	push	ecx
	mov	ecx, DWORD PTR _this$[ebp]
	call	?SendFireMessage@SimVehicleClass@@QAEXPAVSimWeaponClass@@HHPAVSimObjectType@@VVU_ID@@@Z ; SimVehicleClass::SendFireMessage

; 220  : 					Gun->FiremsgsendTime =0;

	mov	edx, DWORD PTR _Gun$13[ebp]
	mov	DWORD PTR [edx+828], 0
$LN13@DoWeapons:

; 221  : 				}
; 222  : 			}
; 223  : 			UnSetGunFiring(Sms->GetCurrentWeaponHardpoint());

	mov	eax, DWORD PTR _this$[ebp]
	mov	ecx, DWORD PTR [eax+780]
	call	?GetCurrentWeaponHardpoint@SMSBaseClass@@QAEHXZ ; SMSBaseClass::GetCurrentWeaponHardpoint
	push	eax
	mov	ecx, DWORD PTR _this$[ebp]
	call	?UnSetGunFiring@GroundClass@@QAEXH@Z	; GroundClass::UnSetGunFiring
$LN15@DoWeapons:

; 224  : 		}

	jmp	$LN10@DoWeapons
$LN21@DoWeapons:

; 225  : 	}
; 226  : 	else if (theWeapon->IsMissile()){

	lea	ecx, DWORD PTR _theWeapon$[ebp]
	call	??C?$VuBin@VSimWeaponClass@@@@QBEPAVSimWeaponClass@@XZ ; VuBin<SimWeaponClass>::operator->
	mov	DWORD PTR tv227[ebp], eax
	mov	ecx, DWORD PTR tv227[ebp]
	mov	edx, DWORD PTR [ecx]
	mov	ecx, DWORD PTR tv227[ebp]
	mov	eax, DWORD PTR [edx+156]
	call	eax
	test	eax, eax
	je	$LN10@DoWeapons

; 227  : 		// point to the missile
; 228  : 		MissileClass *theMissile = static_cast<MissileClass*>(theWeapon.get());

	lea	ecx, DWORD PTR _theWeapon$[ebp]
	call	?get@?$VuBin@VSimWeaponClass@@@@QBEPAVSimWeaponClass@@XZ ; VuBin<SimWeaponClass>::get
	mov	DWORD PTR _theMissile$12[ebp], eax

; 229  : 		//MissileClass *theMissile = static_cast<MissileClass*>(theWeapon);
; 230  : 		if (MissileTrack()){

	mov	ecx, DWORD PTR _this$[ebp]
	call	?MissileTrack@GroundClass@@QAEHXZ	; GroundClass::MissileTrack
	test	eax, eax
	je	$LN10@DoWeapons

; 231  : 			// 2002-02-28 MODIFIED BY S.G. 
; 232  : 			// Valid for campaign object as well, not just sim! 
; 233  : 			// We're testing inside for SIM or CAMPAIGN ANYWAY! Otherwise nextSamFireTime is NEVER adjusted
; 234  : 			if (
; 235  : 				gai->battalionCommand && 
; 236  : 				/* targetPtr->BaseData()->IsSim() &&*/ 
; 237  : 				!targetPtr->BaseData()->OnGround()
; 238  : 			){

	mov	ecx, DWORD PTR _this$[ebp]
	mov	edx, DWORD PTR [ecx+744]
	cmp	DWORD PTR [edx+80], 0
	je	$LN9@DoWeapons
	mov	eax, DWORD PTR _this$[ebp]
	mov	ecx, DWORD PTR [eax+656]
	call	?BaseData@SimObjectType@@QAEPAVFalconEntity@@XZ ; SimObjectType::BaseData
	mov	DWORD PTR tv252[ebp], eax
	mov	ecx, DWORD PTR tv252[ebp]
	mov	edx, DWORD PTR [ecx]
	mov	ecx, DWORD PTR tv252[ebp]
	mov	eax, DWORD PTR [edx+148]
	call	eax
	test	eax, eax
	jne	$LN9@DoWeapons

; 239  : 				gai->battalionCommand->self->allowSamFire = FALSE;

	mov	ecx, DWORD PTR _this$[ebp]
	mov	edx, DWORD PTR [ecx+744]
	mov	eax, DWORD PTR [edx+80]
	mov	ecx, DWORD PTR [eax+72]
	mov	edx, DWORD PTR [ecx+772]
	and	edx, -257				; fffffeffH
	mov	eax, DWORD PTR _this$[ebp]
	mov	ecx, DWORD PTR [eax+744]
	mov	eax, DWORD PTR [ecx+80]
	mov	ecx, DWORD PTR [eax+72]
	mov	DWORD PTR [ecx+772], edx

; 240  : 				int numVeh = 1;

	mov	DWORD PTR _numVeh$10[ebp], 1

; 241  : 				// 2002-02-28 MODIFIED BY S.G. Different way of doing Joel's "011018" CTD fix. 
; 242  : 				// If it's not a sim object, it doesn't have a campaignObject member variable so that test isn't valid
; 243  : 				if (targetPtr->BaseData()->IsSim()) { 

	mov	edx, DWORD PTR _this$[ebp]
	mov	ecx, DWORD PTR [edx+656]
	call	?BaseData@SimObjectType@@QAEPAVFalconEntity@@XZ ; SimObjectType::BaseData
	mov	ecx, eax
	call	?IsSim@FalconEntity@@QAEHXZ		; FalconEntity::IsSim
	test	eax, eax
	je	SHORT $LN8@DoWeapons

; 244  : 					if (((SimBaseClass*)targetPtr->BaseData())->GetCampaignObject()){

	mov	eax, DWORD PTR _this$[ebp]
	mov	ecx, DWORD PTR [eax+656]
	call	?BaseData@SimObjectType@@QAEPAVFalconEntity@@XZ ; SimObjectType::BaseData
	mov	ecx, eax
	call	?GetCampaignObject@SimBaseClass@@QAEPAVCampBaseClass@@XZ ; SimBaseClass::GetCampaignObject
	test	eax, eax
	je	SHORT $LN7@DoWeapons

; 245  : 						numVeh = max(
; 246  : 							1, ((Unit)((SimBaseClass*)targetPtr->BaseData())->GetCampaignObject())->GetTotalVehicles()/2
; 247  : 						);

	mov	ecx, DWORD PTR _this$[ebp]
	mov	ecx, DWORD PTR [ecx+656]
	call	?BaseData@SimObjectType@@QAEPAVFalconEntity@@XZ ; SimObjectType::BaseData
	mov	ecx, eax
	call	?GetCampaignObject@SimBaseClass@@QAEPAVCampBaseClass@@XZ ; SimBaseClass::GetCampaignObject
	mov	ecx, eax
	call	?GetTotalVehicles@UnitClass@@QAEHXZ	; UnitClass::GetTotalVehicles
	cdq
	sub	eax, edx
	sar	eax, 1
	cmp	eax, 1
	jge	SHORT $LN25@DoWeapons
	mov	DWORD PTR tv331[ebp], 1
	jmp	SHORT $LN26@DoWeapons
$LN25@DoWeapons:
	mov	edx, DWORD PTR _this$[ebp]
	mov	ecx, DWORD PTR [edx+656]
	call	?BaseData@SimObjectType@@QAEPAVFalconEntity@@XZ ; SimObjectType::BaseData
	mov	ecx, eax
	call	?GetCampaignObject@SimBaseClass@@QAEPAVCampBaseClass@@XZ ; SimBaseClass::GetCampaignObject
	mov	ecx, eax
	call	?GetTotalVehicles@UnitClass@@QAEHXZ	; UnitClass::GetTotalVehicles
	cdq
	sub	eax, edx
	sar	eax, 1
	mov	DWORD PTR tv331[ebp], eax
$LN26@DoWeapons:
	mov	eax, DWORD PTR tv331[ebp]
	mov	DWORD PTR _numVeh$10[ebp], eax
$LN7@DoWeapons:

; 248  : 					}
; 249  : 				}
; 250  : 				else {

	jmp	SHORT $LN6@DoWeapons
$LN8@DoWeapons:

; 251  : 					numVeh = max(1, ((Unit)targetPtr->BaseData())->GetTotalVehicles()/2);

	mov	ecx, DWORD PTR _this$[ebp]
	mov	ecx, DWORD PTR [ecx+656]
	call	?BaseData@SimObjectType@@QAEPAVFalconEntity@@XZ ; SimObjectType::BaseData
	mov	ecx, eax
	call	?GetTotalVehicles@UnitClass@@QAEHXZ	; UnitClass::GetTotalVehicles
	cdq
	sub	eax, edx
	sar	eax, 1
	cmp	eax, 1
	jge	SHORT $LN27@DoWeapons
	mov	DWORD PTR tv361[ebp], 1
	jmp	SHORT $LN28@DoWeapons
$LN27@DoWeapons:
	mov	edx, DWORD PTR _this$[ebp]
	mov	ecx, DWORD PTR [edx+656]
	call	?BaseData@SimObjectType@@QAEPAVFalconEntity@@XZ ; SimObjectType::BaseData
	mov	ecx, eax
	call	?GetTotalVehicles@UnitClass@@QAEHXZ	; UnitClass::GetTotalVehicles
	cdq
	sub	eax, edx
	sar	eax, 1
	mov	DWORD PTR tv361[ebp], eax
$LN28@DoWeapons:
	mov	eax, DWORD PTR tv361[ebp]
	mov	DWORD PTR _numVeh$10[ebp], eax
$LN6@DoWeapons:

; 252  : 				}
; 253  : 				
; 254  : 				int rate;
; 255  : 				// 2002-02-28 MODIFIED BY S.G. 
; 256  : 				// A GetRadarType() will return 0 (RDR_NO_RADAR) 
; 257  : 				// if it has no radar but radarDatFileTable has something there so it's being used. That's not right.
; 258  : 				//if (radarData->AirFireRate) rate = radarData->AirFireRate;
; 259  : 				// Default to MAX_SAM_FIRE_RATE
; 260  : 				
; 261  : 				// RV - Biker - For IR missiles we don't have a fire rate
; 262  : 				rate = MAX_SAM_FIRE_RATE;

	mov	DWORD PTR _rate$11[ebp], 10000		; 00002710H

; 263  : 				VehicleClassDataType* vc = GetVehicleClassData(Type() - VU_LAST_ENTITY_TYPE);

	mov	ecx, DWORD PTR _this$[ebp]
	call	?Type@VuEntity@@QBEGXZ			; VuEntity::Type
	movzx	ecx, ax
	sub	ecx, 100				; 00000064H
	push	ecx
	call	?GetVehicleClassData@@YAPAUVehicleClassDataType@@H@Z ; GetVehicleClassData
	add	esp, 4
	mov	DWORD PTR _vc$2[ebp], eax

; 264  : 				ShiAssert (vc);
; 265  : 				// If the vehicle's VEH_USES_UNIT_RADAR flag is set, 
; 266  : 				// forget about your own (if you have one) and use the unit's radar vehicle
; 267  : 				if (vc->Flags & VEH_USES_UNIT_RADAR) 

	mov	edx, DWORD PTR _vc$2[ebp]
	mov	eax, DWORD PTR [edx+4]
	and	eax, 1048576				; 00100000H
	je	SHORT $LN5@DoWeapons

; 268  : 				{
; 269  : 					RadarDataSet* radarData = &radarDatFileTable[GetCampaignObject()->GetRadarType()];

	mov	ecx, DWORD PTR _this$[ebp]
	call	?GetCampaignObject@SimBaseClass@@QAEPAVCampBaseClass@@XZ ; SimBaseClass::GetCampaignObject
	mov	DWORD PTR tv387[ebp], eax
	mov	ecx, DWORD PTR tv387[ebp]
	mov	edx, DWORD PTR [ecx]
	mov	ecx, DWORD PTR tv387[ebp]
	mov	eax, DWORD PTR [edx+292]
	call	eax
	imul	eax, 180				; 000000b4H
	add	eax, DWORD PTR ?radarDatFileTable@@3PAURadarDataSet@@A ; radarDatFileTable
	mov	DWORD PTR _radarData$9[ebp], eax

; 270  : 					if (radarData->AirFireRate && GetCampaignObject()->GetRadarType())

	mov	ecx, DWORD PTR _radarData$9[ebp]
	cmp	DWORD PTR [ecx+128], 0
	je	SHORT $LN4@DoWeapons
	mov	ecx, DWORD PTR _this$[ebp]
	call	?GetCampaignObject@SimBaseClass@@QAEPAVCampBaseClass@@XZ ; SimBaseClass::GetCampaignObject
	mov	DWORD PTR tv406[ebp], eax
	mov	edx, DWORD PTR tv406[ebp]
	mov	eax, DWORD PTR [edx]
	mov	ecx, DWORD PTR tv406[ebp]
	mov	edx, DWORD PTR [eax+292]
	call	edx
	test	eax, eax
	je	SHORT $LN4@DoWeapons

; 271  : 					{
; 272  : 						rate = radarData->AirFireRate;

	mov	eax, DWORD PTR _radarData$9[ebp]
	mov	ecx, DWORD PTR [eax+128]
	mov	DWORD PTR _rate$11[ebp], ecx
$LN4@DoWeapons:

; 273  : 					}
; 274  : 				}
; 275  : 				// Otherwise rate will be what our own radar AirFireRate says
; 276  : 				else 

	jmp	SHORT $LN2@DoWeapons
$LN5@DoWeapons:

; 277  : 				{
; 278  : 					RadarDataSet* radarData = &radarDatFileTable[GetRadarType()];

	mov	edx, DWORD PTR _this$[ebp]
	mov	eax, DWORD PTR [edx]
	mov	ecx, DWORD PTR _this$[ebp]
	mov	edx, DWORD PTR [eax+292]
	call	edx
	imul	eax, 180				; 000000b4H
	add	eax, DWORD PTR ?radarDatFileTable@@3PAURadarDataSet@@A ; radarDatFileTable
	mov	DWORD PTR _radarData$8[ebp], eax

; 279  : 					if (radarData->AirFireRate && GetRadarType())

	mov	eax, DWORD PTR _radarData$8[ebp]
	cmp	DWORD PTR [eax+128], 0
	je	SHORT $LN2@DoWeapons
	mov	ecx, DWORD PTR _this$[ebp]
	mov	edx, DWORD PTR [ecx]
	mov	ecx, DWORD PTR _this$[ebp]
	mov	eax, DWORD PTR [edx+292]
	call	eax
	test	eax, eax
	je	SHORT $LN2@DoWeapons

; 280  : 					{
; 281  : 						rate = radarData->AirFireRate;

	mov	ecx, DWORD PTR _radarData$8[ebp]
	mov	edx, DWORD PTR [ecx+128]
	mov	DWORD PTR _rate$11[ebp], edx
$LN2@DoWeapons:

; 282  : 					}
; 283  : 				}
; 284  : 				// rate is the value for aces, scale it down based on skill
; 285  : 				rate += rate - rate / (5 - gai->skillLevel);

	mov	eax, DWORD PTR _this$[ebp]
	mov	ecx, DWORD PTR [eax+744]
	mov	esi, 5
	sub	esi, DWORD PTR [ecx+104]
	mov	eax, DWORD PTR _rate$11[ebp]
	cdq
	idiv	esi
	mov	edx, DWORD PTR _rate$11[ebp]
	sub	edx, eax
	add	edx, DWORD PTR _rate$11[ebp]
	mov	DWORD PTR _rate$11[ebp], edx

; 286  : 				// END OF MODIFIED SECTION 2002-02-28
; 287  : 
; 288  : 				gai->battalionCommand->self->nextSamFireTime = SimLibElapsedTime + rate/numVeh;

	mov	eax, DWORD PTR _rate$11[ebp]
	cdq
	idiv	DWORD PTR _numVeh$10[ebp]
	add	eax, DWORD PTR ?SimLibElapsedTime@@3KA	; SimLibElapsedTime
	mov	ecx, DWORD PTR _this$[ebp]
	mov	edx, DWORD PTR [ecx+744]
	mov	ecx, DWORD PTR [edx+80]
	mov	edx, DWORD PTR [ecx+72]
	mov	DWORD PTR [edx+768], eax
$LN9@DoWeapons:

; 289  : 			}
; 290  : 
; 291  : 			SendFireMessage (theMissile, FalconWeaponsFire::MRM, TRUE, targetPtr);

	mov	eax, DWORD PTR ?FalconNullId@@3VVU_ID@@A+4
	push	eax
	mov	ecx, DWORD PTR ?FalconNullId@@3VVU_ID@@A
	push	ecx
	mov	edx, DWORD PTR _this$[ebp]
	mov	eax, DWORD PTR [edx+656]
	push	eax
	push	1
	push	1
	mov	ecx, DWORD PTR _theMissile$12[ebp]
	push	ecx
	mov	ecx, DWORD PTR _this$[ebp]
	call	?SendFireMessage@SimVehicleClass@@QAEXPAVSimWeaponClass@@HHPAVSimObjectType@@VVU_ID@@@Z ; SimVehicleClass::SendFireMessage

; 292  : 			
; 293  : 			// Special case for beam riders
; 294  : 			if ( theMissile->sensorArray && theMissile->sensorArray[0]->Type() == SensorClass::RadarHoming )

	mov	edx, DWORD PTR _theMissile$12[ebp]
	cmp	DWORD PTR [edx+648], 0
	je	SHORT $LN1@DoWeapons
	mov	eax, 4
	imul	eax, 0
	mov	ecx, DWORD PTR _theMissile$12[ebp]
	mov	edx, DWORD PTR [ecx+648]
	mov	ecx, DWORD PTR [edx+eax]
	call	?Type@SensorClass@@QAE?AW4SensorType@1@XZ ; SensorClass::Type
	cmp	eax, 6
	jne	SHORT $LN1@DoWeapons

; 295  : 			{
; 296  : 				// Have the missile use the radar vehicle's radar for guidance
; 297  : 				((BeamRiderClass*)theMissile->sensorArray[0])->SetGuidancePlatform( battalionFireControl );

	mov	eax, DWORD PTR _this$[ebp]
	mov	ecx, DWORD PTR [eax+784]
	push	ecx
	mov	edx, 4
	imul	edx, 0
	mov	eax, DWORD PTR _theMissile$12[ebp]
	mov	ecx, DWORD PTR [eax+648]
	mov	ecx, DWORD PTR [ecx+edx]
	call	?SetGuidancePlatform@BeamRiderClass@@QAEXPAVFalconEntity@@@Z ; BeamRiderClass::SetGuidancePlatform
$LN1@DoWeapons:

; 298  : 			}
; 299  : 			
; 300  : 			// Get it in the air
; 301  : 			Sms->LaunchWeapon();

	mov	edx, DWORD PTR _this$[ebp]
	mov	ecx, DWORD PTR [edx+780]
	call	?LaunchWeapon@SMSBaseClass@@QAEXXZ	; SMSBaseClass::LaunchWeapon

; 302  : 			theMissile->Start(targetPtr);

	mov	eax, DWORD PTR _this$[ebp]
	mov	ecx, DWORD PTR [eax+656]
	push	ecx
	mov	ecx, DWORD PTR _theMissile$12[ebp]
	call	?Start@MissileClass@@QAEXPAVSimObjectType@@@Z ; MissileClass::Start

; 303  : 			
; 304  : 			// It's Alive!
; 305  : 			vuDatabase->/*Quick*/Insert(theWeapon.get());

	lea	ecx, DWORD PTR _theWeapon$[ebp]
	call	?get@?$VuBin@VSimWeaponClass@@@@QBEPAVSimWeaponClass@@XZ ; VuBin<SimWeaponClass>::get
	push	eax
	mov	ecx, DWORD PTR ?vuDatabase@@3PAVVuDatabase@@A ; vuDatabase
	call	?Insert@VuDatabase@@QAEHPAVVuEntity@@@Z	; VuDatabase::Insert

; 306  : 			//vuDatabase->/*Quick*/Insert(theWeapon);
; 307  : 			theMissile->Wake();

	mov	edx, DWORD PTR _theMissile$12[ebp]
	mov	eax, DWORD PTR [edx]
	mov	ecx, DWORD PTR _theMissile$12[ebp]
	mov	edx, DWORD PTR [eax+104]
	call	edx

; 308  : 			SoundPos.Sfx( SFX_MISSILE1, 0, 1.0, 0);

	push	ecx
	movss	xmm0, DWORD PTR __real@00000000
	movss	DWORD PTR [esp], xmm0
	push	ecx
	movss	xmm0, DWORD PTR __real@3f800000
	movss	DWORD PTR [esp], xmm0
	push	0
	push	10					; 0000000aH
	mov	ecx, DWORD PTR _this$[ebp]
	add	ecx, 444				; 000001bcH
	call	?Sfx@F4SoundPos@@QAEXHHMM@Z		; F4SoundPos::Sfx

; 309  : 			
; 310  : 			pos.x = XPos();

	mov	ecx, DWORD PTR _this$[ebp]
	call	?XPos@VuEntity@@QBEMXZ			; VuEntity::XPos
	fstp	DWORD PTR _pos$[ebp]

; 311  : 			pos.y = YPos();

	mov	ecx, DWORD PTR _this$[ebp]
	call	?YPos@VuEntity@@QBEMXZ			; VuEntity::YPos
	fstp	DWORD PTR _pos$[ebp+4]

; 312  : 			pos.z = ZPos();

	mov	ecx, DWORD PTR _this$[ebp]
	call	?ZPos@VuEntity@@QBEMXZ			; VuEntity::ZPos
	fstp	DWORD PTR _pos$[ebp+8]

; 313  : 			
; 314  : 			// Add a glow arround the launcher
; 315  : 			/*
; 316  : 			OTWDriver.AddSfxRequest(
; 317  : 				new SfxClass ( SFX_GROUND_FLASH,	// type
; 318  : 				&pos,								// world pos
; 319  : 				1.0f,								// time to live
; 320  : 				201.5f ) );							// scale
; 321  : 				*/
; 322  : 			DrawableParticleSys::PS_AddParticleEx((SFX_GROUND_FLASH + 1),	&pos, &PSvec);

	lea	eax, DWORD PTR _PSvec$[ebp]
	push	eax
	lea	ecx, DWORD PTR _pos$[ebp]
	push	ecx
	push	104					; 00000068H
	call	?PS_AddParticleEx@DrawableParticleSys@@SAXHPAUTpoint@@0@Z ; DrawableParticleSys::PS_AddParticleEx
	add	esp, 12					; 0000000cH

; 323  : 
; 324  : 			// RV - Biker - Add some smoke to the launcher
; 325  : 			Tpoint vec;
; 326  : 			vec.x = 0.0f;

	movss	xmm0, DWORD PTR __real@00000000
	movss	DWORD PTR _vec$14[ebp], xmm0

; 327  : 			vec.y = 0.0f;

	movss	xmm0, DWORD PTR __real@00000000
	movss	DWORD PTR _vec$14[ebp+4], xmm0

; 328  : 			vec.z = 0.0f;

	movss	xmm0, DWORD PTR __real@00000000
	movss	DWORD PTR _vec$14[ebp+8], xmm0

; 329  : 			/*
; 330  : 			OTWDriver.AddSfxRequest( new SfxClass( SFX_SAM_LAUNCH,
; 331  : 								SFX_MOVES | SFX_NO_GROUND_CHECK,
; 332  : 								&pos,
; 333  : 								&vec,
; 334  : 								2.0f,
; 335  : 								1.0f ) );
; 336  : 								*/
; 337  : 			DrawableParticleSys::PS_AddParticleEx((SFX_SAM_LAUNCH + 1), &pos, &vec);

	lea	edx, DWORD PTR _vec$14[ebp]
	push	edx
	lea	eax, DWORD PTR _pos$[ebp]
	push	eax
	push	21					; 00000015H
	call	?PS_AddParticleEx@DrawableParticleSys@@SAXHPAUTpoint@@0@Z ; DrawableParticleSys::PS_AddParticleEx
	add	esp, 12					; 0000000cH

; 338  : 
; 339  : 			return TRUE;	// We took a shot

	mov	DWORD PTR $T5[ebp], 1
	mov	DWORD PTR __$EHRec$[ebp+8], -1
	lea	ecx, DWORD PTR _theWeapon$[ebp]
	call	??1?$VuBin@VSimWeaponClass@@@@QAE@XZ	; VuBin<SimWeaponClass>::~VuBin<SimWeaponClass>
	mov	eax, DWORD PTR $T5[ebp]
	jmp	SHORT $LN23@DoWeapons
$LN10@DoWeapons:

; 340  : 		}
; 341  : 	}
; 342  : 
; 343  : 	return FALSE;	// We didn't take a shot

	mov	DWORD PTR $T3[ebp], 0
	mov	DWORD PTR __$EHRec$[ebp+8], -1
	lea	ecx, DWORD PTR _theWeapon$[ebp]
	call	??1?$VuBin@VSimWeaponClass@@@@QAE@XZ	; VuBin<SimWeaponClass>::~VuBin<SimWeaponClass>
	mov	eax, DWORD PTR $T3[ebp]
$LN23@DoWeapons:

; 344  : }

	mov	ecx, DWORD PTR __$EHRec$[ebp]
	mov	DWORD PTR fs:0, ecx
	pop	ecx
	pop	esi
	mov	ecx, DWORD PTR __$ArrayPad$[ebp]
	xor	ecx, ebp
	call	@__security_check_cookie@4
	mov	esp, ebp
	pop	ebp
	ret	0
_TEXT	ENDS
text$x	SEGMENT
__unwindfunclet$?DoWeapons@GroundClass@@QAEHXZ$0:
	lea	ecx, DWORD PTR _theWeapon$[ebp]
	jmp	??1?$VuBin@VSimWeaponClass@@@@QAE@XZ	; VuBin<SimWeaponClass>::~VuBin<SimWeaponClass>
__ehhandler$?DoWeapons@GroundClass@@QAEHXZ:
	mov	edx, DWORD PTR [esp+8]
	lea	eax, DWORD PTR [edx+12]
	mov	ecx, DWORD PTR [edx-132]
	xor	ecx, eax
	call	@__security_check_cookie@4
	mov	ecx, DWORD PTR [edx-4]
	xor	ecx, eax
	call	@__security_check_cookie@4
	mov	eax, OFFSET __ehfuncinfo$?DoWeapons@GroundClass@@QAEHXZ
	jmp	___CxxFrameHandler3
text$x	ENDS
?DoWeapons@GroundClass@@QAEHXZ ENDP			; GroundClass::DoWeapons
; Function compile flags: /Odtp
; File c:\users\zhitao li\documents\visual studio 2012\projects\freefalcon\sim\include\ground.h
;	COMDAT ?UnSetGunFiring@GroundClass@@QAEXH@Z
_TEXT	SEGMENT
_this$ = -4						; size = 4
_i$ = 8							; size = 4
?UnSetGunFiring@GroundClass@@QAEXH@Z PROC		; GroundClass::UnSetGunFiring, COMDAT
; _this$ = ecx

; 75   : 	void UnSetGunFiring ( int i )	{ gunFireFlags &= ~(1 << i); };

	push	ebp
	mov	ebp, esp
	push	ecx
	mov	DWORD PTR _this$[ebp], ecx
	mov	eax, 1
	mov	ecx, DWORD PTR _i$[ebp]
	shl	eax, cl
	not	eax
	mov	ecx, DWORD PTR _this$[ebp]
	and	eax, DWORD PTR [ecx+788]
	mov	edx, DWORD PTR _this$[ebp]
	mov	DWORD PTR [edx+788], eax
	mov	esp, ebp
	pop	ebp
	ret	4
?UnSetGunFiring@GroundClass@@QAEXH@Z ENDP		; GroundClass::UnSetGunFiring
_TEXT	ENDS
; Function compile flags: /Odtp
; File c:\users\zhitao li\documents\visual studio 2012\projects\freefalcon\sim\include\ground.h
;	COMDAT ?SetGunFiring@GroundClass@@QAEXH@Z
_TEXT	SEGMENT
_this$ = -4						; size = 4
_i$ = 8							; size = 4
?SetGunFiring@GroundClass@@QAEXH@Z PROC			; GroundClass::SetGunFiring, COMDAT
; _this$ = ecx

; 74   : 	void SetGunFiring ( int i )	{ gunFireFlags |= (1 << i);  };

	push	ebp
	mov	ebp, esp
	push	ecx
	mov	DWORD PTR _this$[ebp], ecx
	mov	eax, 1
	mov	ecx, DWORD PTR _i$[ebp]
	shl	eax, cl
	mov	ecx, DWORD PTR _this$[ebp]
	or	eax, DWORD PTR [ecx+788]
	mov	edx, DWORD PTR _this$[ebp]
	mov	DWORD PTR [edx+788], eax
	mov	esp, ebp
	pop	ebp
	ret	4
?SetGunFiring@GroundClass@@QAEXH@Z ENDP			; GroundClass::SetGunFiring
_TEXT	ENDS
; Function compile flags: /Odtp
; File c:\users\zhitao li\documents\visual studio 2012\projects\freefalcon\sim\include\ground.h
;	COMDAT ?IsGunFiring@GroundClass@@QAEHH@Z
_TEXT	SEGMENT
_this$ = -4						; size = 4
_i$ = 8							; size = 4
?IsGunFiring@GroundClass@@QAEHH@Z PROC			; GroundClass::IsGunFiring, COMDAT
; _this$ = ecx

; 73   : 	BOOL IsGunFiring ( int i )	{ return (gunFireFlags & (1 << i) ); };

	push	ebp
	mov	ebp, esp
	push	ecx
	mov	DWORD PTR _this$[ebp], ecx
	mov	eax, 1
	mov	ecx, DWORD PTR _i$[ebp]
	shl	eax, cl
	mov	ecx, DWORD PTR _this$[ebp]
	and	eax, DWORD PTR [ecx+788]
	mov	esp, ebp
	pop	ebp
	ret	4
?IsGunFiring@GroundClass@@QAEHH@Z ENDP			; GroundClass::IsGunFiring
_TEXT	ENDS
; Function compile flags: /Odtp
; File c:\users\zhitao li\documents\visual studio 2012\projects\freefalcon\sim\ground\weapon.cpp
_TEXT	SEGMENT
_battalionIterator$ = -40				; size = 12
_battRadarType$ = -28					; size = 4
_batt$ = -24						; size = 4
_firectl$ = -20						; size = 4
_this$ = -16						; size = 4
__$EHRec$ = -12						; size = 12
?FindBattalionFireControl@GroundClass@@QAEXXZ PROC	; GroundClass::FindBattalionFireControl
; _this$ = ecx

; 942  : {

	push	ebp
	mov	ebp, esp
	push	-1
	push	__ehhandler$?FindBattalionFireControl@GroundClass@@QAEXXZ
	mov	eax, DWORD PTR fs:0
	push	eax
	sub	esp, 28					; 0000001cH
	mov	eax, DWORD PTR ___security_cookie
	xor	eax, ebp
	push	eax
	lea	eax, DWORD PTR __$EHRec$[ebp]
	mov	DWORD PTR fs:0, eax
	mov	DWORD PTR _this$[ebp], ecx

; 943  : 	GroundClass		*firectl;
; 944  : 	CampBaseClass	*batt;
; 945  : 	int				battRadarType;
; 946  : 
; 947  : 	// do we already have one?
; 948  : 	if ( battalionFireControl )

	mov	eax, DWORD PTR _this$[ebp]
	cmp	DWORD PTR [eax+784], 0
	je	SHORT $LN10@FindBattal

; 949  : 	{
; 950  : 		if ( !battalionFireControl->IsDead() )

	mov	ecx, DWORD PTR _this$[ebp]
	mov	edx, DWORD PTR [ecx+784]
	mov	eax, DWORD PTR _this$[ebp]
	mov	edx, DWORD PTR [edx]
	mov	ecx, DWORD PTR [eax+784]
	mov	eax, DWORD PTR [edx+340]
	call	eax
	test	eax, eax
	jne	SHORT $LN9@FindBattal

; 951  : 		{
; 952  : 			// Can still use the one we've got
; 953  : 			return;

	jmp	$LN11@FindBattal

; 954  : 		} else {

	jmp	SHORT $LN10@FindBattal
$LN9@FindBattal:

; 955  : 			VuDeReferenceEntity( battalionFireControl );

	mov	ecx, DWORD PTR _this$[ebp]
	mov	edx, DWORD PTR [ecx+784]
	push	edx
	call	?VuDeReferenceEntity@@YAHPAVVuEntity@@@Z ; VuDeReferenceEntity
	add	esp, 4

; 956  : 			battalionFireControl = NULL;

	mov	eax, DWORD PTR _this$[ebp]
	mov	DWORD PTR [eax+784], 0
$LN10@FindBattal:

; 957  : 		}
; 958  : 	}
; 959  : 
; 960  : 	// are we an emitter?
; 961  : 	if ( isEmitter )

	mov	ecx, DWORD PTR _this$[ebp]
	mov	edx, DWORD PTR [ecx+772]
	shr	edx, 2
	and	edx, 1
	je	SHORT $LN7@FindBattal

; 962  : 	{
; 963  : 		battalionFireControl = this;

	mov	eax, DWORD PTR _this$[ebp]
	mov	ecx, DWORD PTR _this$[ebp]
	mov	DWORD PTR [eax+784], ecx

; 964  : 		VuReferenceEntity( battalionFireControl );

	mov	edx, DWORD PTR _this$[ebp]
	mov	eax, DWORD PTR [edx+784]
	push	eax
	call	?VuReferenceEntity@@YAHPAVVuEntity@@@Z	; VuReferenceEntity
	add	esp, 4

; 965  : 		return;

	jmp	$LN11@FindBattal
$LN7@FindBattal:

; 966  : 	}
; 967  : 
; 968  : 
; 969  : 	// Get the type of radar the battalion thinks it has
; 970  : 	batt = GetCampaignObject();

	mov	ecx, DWORD PTR _this$[ebp]
	call	?GetCampaignObject@SimBaseClass@@QAEPAVCampBaseClass@@XZ ; SimBaseClass::GetCampaignObject
	mov	DWORD PTR _batt$[ebp], eax

; 971  : 	ShiAssert( batt );					// We'de better belong to a battalion
; 972  : 	ShiAssert( batt->GetComponents() );	// If there aren't components, then WHAT ARE WE???
; 973  : 	if (!batt || batt->GetComponents() == NULL)  // Should never have been changed...

	cmp	DWORD PTR _batt$[ebp], 0
	je	SHORT $LN5@FindBattal
	mov	ecx, DWORD PTR _batt$[ebp]
	call	?GetComponents@CampBaseClass@@QBEPAVTailInsertList@@XZ ; CampBaseClass::GetComponents
	test	eax, eax
	jne	SHORT $LN6@FindBattal
$LN5@FindBattal:

; 974  : 		return;

	jmp	$LN11@FindBattal
$LN6@FindBattal:

; 975  : 	
; 976  : 	battRadarType = batt->GetRadarType();

	mov	ecx, DWORD PTR _batt$[ebp]
	mov	edx, DWORD PTR [ecx]
	mov	ecx, DWORD PTR _batt$[ebp]
	mov	eax, DWORD PTR [edx+292]
	call	eax
	mov	DWORD PTR _battRadarType$[ebp], eax

; 977  : 
; 978  : 	// If the battalion is blind, so are we...
; 979  : 	if (!battRadarType) {

	cmp	DWORD PTR _battRadarType$[ebp], 0
	jne	SHORT $LN4@FindBattal

; 980  : 		ShiAssert( battalionFireControl == NULL );	// Should never have been changed...
; 981  : 		return;

	jmp	$LN11@FindBattal
$LN4@FindBattal:

; 982  : 	}
; 983  : 
; 984  : 
; 985  : 	// Get the list of sim entities in our battalion
; 986  : 	VuListIterator	battalionIterator(batt->GetComponents());

	mov	ecx, DWORD PTR _batt$[ebp]
	call	?GetComponents@CampBaseClass@@QBEPAVTailInsertList@@XZ ; CampBaseClass::GetComponents
	push	eax
	lea	ecx, DWORD PTR _battalionIterator$[ebp]
	call	??0VuListIterator@@QAE@PAVVuLinkedList@@@Z ; VuListIterator::VuListIterator
	mov	DWORD PTR __$EHRec$[ebp+8], 0

; 987  : 	firectl = (GroundClass*) battalionIterator.GetFirst();

	lea	ecx, DWORD PTR _battalionIterator$[ebp]
	call	?GetFirst@VuListIterator@@QAEPAVVuEntity@@XZ ; VuListIterator::GetFirst
	mov	DWORD PTR _firectl$[ebp], eax
$LN3@FindBattal:

; 988  : 	// Search the list for a battalion radar vehicle
; 989  : 	while ( firectl )

	cmp	DWORD PTR _firectl$[ebp], 0
	je	SHORT $LN2@FindBattal

; 990  : 	{
; 991  : 		if ( firectl->GetRadarType() == battRadarType && !firectl->IsDead() )

	mov	ecx, DWORD PTR _firectl$[ebp]
	mov	edx, DWORD PTR [ecx]
	mov	ecx, DWORD PTR _firectl$[ebp]
	mov	eax, DWORD PTR [edx+292]
	call	eax
	cmp	eax, DWORD PTR _battRadarType$[ebp]
	jne	SHORT $LN1@FindBattal
	mov	ecx, DWORD PTR _firectl$[ebp]
	mov	edx, DWORD PTR [ecx]
	mov	ecx, DWORD PTR _firectl$[ebp]
	mov	eax, DWORD PTR [edx+340]
	call	eax
	test	eax, eax
	jne	SHORT $LN1@FindBattal

; 992  : 		{
; 993  : 			battalionFireControl = firectl;

	mov	ecx, DWORD PTR _this$[ebp]
	mov	edx, DWORD PTR _firectl$[ebp]
	mov	DWORD PTR [ecx+784], edx

; 994  : 			VuReferenceEntity( battalionFireControl );

	mov	eax, DWORD PTR _this$[ebp]
	mov	ecx, DWORD PTR [eax+784]
	push	ecx
	call	?VuReferenceEntity@@YAHPAVVuEntity@@@Z	; VuReferenceEntity
	add	esp, 4

; 995  : 			break;

	jmp	SHORT $LN2@FindBattal
$LN1@FindBattal:

; 996  : 		}
; 997  : 		firectl = (GroundClass*) battalionIterator.GetNext();

	lea	ecx, DWORD PTR _battalionIterator$[ebp]
	call	?GetNext@VuListIterator@@QAEPAVVuEntity@@XZ ; VuListIterator::GetNext
	mov	DWORD PTR _firectl$[ebp], eax

; 998  : 	}

	jmp	SHORT $LN3@FindBattal
$LN2@FindBattal:

; 999  : }

	mov	DWORD PTR __$EHRec$[ebp+8], -1
	lea	ecx, DWORD PTR _battalionIterator$[ebp]
	call	??1VuListIterator@@UAE@XZ		; VuListIterator::~VuListIterator
$LN11@FindBattal:
	mov	ecx, DWORD PTR __$EHRec$[ebp]
	mov	DWORD PTR fs:0, ecx
	pop	ecx
	mov	esp, ebp
	pop	ebp
	ret	0
_TEXT	ENDS
text$x	SEGMENT
__unwindfunclet$?FindBattalionFireControl@GroundClass@@QAEXXZ$0:
	lea	ecx, DWORD PTR _battalionIterator$[ebp]
	jmp	??1VuListIterator@@UAE@XZ		; VuListIterator::~VuListIterator
__ehhandler$?FindBattalionFireControl@GroundClass@@QAEXXZ:
	mov	edx, DWORD PTR [esp+8]
	lea	eax, DWORD PTR [edx+12]
	mov	ecx, DWORD PTR [edx-32]
	xor	ecx, eax
	call	@__security_check_cookie@4
	mov	eax, OFFSET __ehfuncinfo$?FindBattalionFireControl@GroundClass@@QAEXXZ
	jmp	___CxxFrameHandler3
text$x	ENDS
?FindBattalionFireControl@GroundClass@@QAEXXZ ENDP	; GroundClass::FindBattalionFireControl
; Function compile flags: /Odtp
; File c:\users\zhitao li\documents\visual studio 2012\projects\freefalcon\sim\ground\weapon.cpp
_TEXT	SEGMENT
tv795 = -292						; size = 8
tv826 = -284						; size = 8
_wc$ = -276						; size = 4
tv1100 = -272						; size = 4
tv883 = -268						; size = 4
tv809 = -264						; size = 4
tv818 = -260						; size = 4
tv805 = -256						; size = 4
tv814 = -252						; size = 4
tv787 = -248						; size = 4
tv895 = -244						; size = 4
tv862 = -240						; size = 4
tv866 = -236						; size = 4
tv852 = -232						; size = 4
tv1104 = -228						; size = 4
_theWeapon$ = -224					; size = 4
tv1085 = -220						; size = 4
tv834 = -216						; size = 4
tv1077 = -212						; size = 4
tv1110 = -208						; size = 4
tv1069 = -204						; size = 4
tv888 = -200						; size = 4
tv1048 = -196						; size = 4
tv878 = -192						; size = 4
tv1112 = -188						; size = 4
tv1108 = -184						; size = 4
tv1044 = -180						; size = 4
tv857 = -176						; size = 4
tv947 = -172						; size = 4
tv1106 = -168						; size = 4
_az$ = -164						; size = 4
tv843 = -160						; size = 4
tv936 = -156						; size = 4
tv838 = -152						; size = 4
tv920 = -148						; size = 4
tv1102 = -144						; size = 4
tv914 = -140						; size = 4
tv903 = -136						; size = 4
tv847 = -132						; size = 4
_maxFireRange$1 = -128					; size = 4
tv554 = -124						; size = 4
_wc$2 = -120						; size = 4
tv823 = -116						; size = 4
tv481 = -112						; size = 4
_realRange$ = -108					; size = 4
tv792 = -104						; size = 4
_trigtha$ = -100					; size = 8
_trigpsi$ = -92						; size = 8
_el$ = -84						; size = 4
_tof$ = -80						; size = 4
_fire$ = -76						; size = 4
_zft$ = -72						; size = 4
_Gun$ = -68						; size = 4
_delta$ = -64						; size = 4
_xft$ = -60						; size = 4
_yft$ = -56						; size = 4
_tracerError$ = -52					; size = 4
_target$ = -48						; size = 4
_this$ = -44						; size = 4
_PSvec$ = -40						; size = 12
_pos$ = -28						; size = 12
_vec$ = -16						; size = 12
__$ArrayPad$ = -4					; size = 4
?GunTrack@GroundClass@@QAEHXZ PROC			; GroundClass::GunTrack
; _this$ = ecx

; 419  : {

	push	ebp
	mov	ebp, esp
	sub	esp, 292				; 00000124H
	mov	eax, DWORD PTR ___security_cookie
	xor	eax, ebp
	mov	DWORD PTR __$ArrayPad$[ebp], eax
	push	esi
	mov	DWORD PTR _this$[ebp], ecx

; 420  : 	float xft, yft, zft;
; 421  : 	float az, el, tof;
; 422  : 	FalconEntity	*target;
; 423  : 	int fire = FALSE;

	mov	DWORD PTR _fire$[ebp], 0

; 424  : 	float realRange, delta;
; 425  : 	Tpoint pos, vec;
; 426  : 	mlTrig trigtha,trigpsi;
; 427  : 	SimWeaponClass	*theWeapon;
; 428  : 	WeaponClassDataType *wc;
; 429  : 
; 430  : 	//RV - I-Hawk - Added a 0 vector for RV new PS calls
; 431  : 	Tpoint PSvec;
; 432  : 	PSvec.x = 0;

	movss	xmm0, DWORD PTR __real@00000000
	movss	DWORD PTR _PSvec$[ebp], xmm0

; 433  : 	PSvec.y = 0;

	movss	xmm0, DWORD PTR __real@00000000
	movss	DWORD PTR _PSvec$[ebp+4], xmm0

; 434  : 	PSvec.z = 0;

	movss	xmm0, DWORD PTR __real@00000000
	movss	DWORD PTR _PSvec$[ebp+8], xmm0

; 435  : 
; 436  : 	theWeapon = Sms->GetCurrentWeapon();

	mov	eax, DWORD PTR _this$[ebp]
	mov	ecx, DWORD PTR [eax+780]
	mov	edx, DWORD PTR _this$[ebp]
	mov	eax, DWORD PTR [ecx]
	mov	ecx, DWORD PTR [edx+780]
	mov	edx, DWORD PTR [eax+12]
	call	edx
	mov	DWORD PTR _theWeapon$[ebp], eax

; 437  : 
; 438  : 	ShiAssert( targetPtr );
; 439  : 	ShiAssert( theWeapon );
; 440  : 	ShiAssert( theWeapon->IsGun() );
; 441  : 
; 442  : 
; 443  : 	// point to Gun Class
; 444  : 	GunClass	*Gun = (GunClass*)theWeapon;

	mov	eax, DWORD PTR _theWeapon$[ebp]
	mov	DWORD PTR _Gun$[ebp], eax

; 445  : 
; 446  : 	wc = &WeaponDataTable[Sms->hardPoint[Sms->CurHardpoint()]->weaponId];

	mov	ecx, DWORD PTR _this$[ebp]
	mov	esi, DWORD PTR [ecx+780]
	mov	edx, DWORD PTR _this$[ebp]
	mov	ecx, DWORD PTR [edx+780]
	call	?CurHardpoint@SMSBaseClass@@QAEHXZ	; SMSBaseClass::CurHardpoint
	mov	ecx, DWORD PTR [esi+4]
	mov	edx, DWORD PTR [ecx+eax*4]
	movsx	eax, WORD PTR [edx+8]
	imul	eax, 60					; 0000003cH
	add	eax, DWORD PTR ?WeaponDataTable@@3PAUWeaponClassDataType@@A ; WeaponDataTable
	mov	DWORD PTR _wc$[ebp], eax

; 447  : 
; 448  : 	target = targetPtr->BaseData();

	mov	ecx, DWORD PTR _this$[ebp]
	mov	ecx, DWORD PTR [ecx+656]
	call	?BaseData@SimObjectType@@QAEPAVFalconEntity@@XZ ; SimObjectType::BaseData
	mov	DWORD PTR _target$[ebp], eax

; 449  : 	if (!target)

	cmp	DWORD PTR _target$[ebp], 0
	jne	SHORT $LN23@GunTrack

; 450  : 		return FALSE;

	xor	eax, eax
	jmp	$LN24@GunTrack
$LN23@GunTrack:

; 451  : 
; 452  : 	// make guns less accurate by randomizing target position when in air, unless its AAA
; 453  : // 2000-10-19 MODIFIED BY S.G. NEW TEST FOR AAA AND REGULAR GUNS. IF FIRST BIT OF NEW FIELD IS A 1, IT'S AN AAA GUN.
; 454  : //	if (!target->OnGround() && !isAirDefense)
; 455  : 	float tracerError; // JB 010106
; 456  : 	if ((((unsigned char *)Gun->wcPtr)[31] & 1) == (g_bToggleAAAGunFlag & 1) && !target->OnGround()) // 2002-03-12 MODIFIED BY S.G. Added the 'g_bToggleAAAGunFlag' check to possibly reverse the check. RP5 reversed the check so this deals with it

	mov	edx, 1
	imul	edx, 31					; 0000001fH
	mov	eax, DWORD PTR _Gun$[ebp]
	mov	ecx, DWORD PTR [eax+868]
	movzx	edx, BYTE PTR [ecx+edx]
	and	edx, 1
	movzx	eax, BYTE PTR ?g_bToggleAAAGunFlag@@3_NA ; g_bToggleAAAGunFlag
	and	eax, 1
	cmp	edx, eax
	jne	$LN22@GunTrack
	mov	ecx, DWORD PTR _target$[ebp]
	mov	edx, DWORD PTR [ecx]
	mov	ecx, DWORD PTR _target$[ebp]
	mov	eax, DWORD PTR [edx+148]
	call	eax
	test	eax, eax
	jne	$LN22@GunTrack

; 457  : 	{
; 458  : 		//float tracerError; // JB 010106
; 459  : 		tracerError = PRANDFloatPos() / (float)(gai->skillLevel+1);

	call	?PRANDFloatPos@@YAMXZ			; PRANDFloatPos
	fstp	DWORD PTR tv787[ebp]
	movss	xmm0, DWORD PTR tv787[ebp]
	mov	ecx, DWORD PTR _this$[ebp]
	mov	edx, DWORD PTR [ecx+744]
	mov	eax, DWORD PTR [edx+104]
	add	eax, 1
	cvtsi2ss xmm1, eax
	divss	xmm0, xmm1
	movss	DWORD PTR _tracerError$[ebp], xmm0

; 460  : // 2000-10-19 MODIFIED BY S.G. THE TRACE ERROR WILL BE BASED ON THE GUN'S PERFORMANCE WHICH IS STORED IN THE LAST BYTE OF THE NAME OF THE WEAPON IN VAL / 4 FORMAT
; 461  : //		tracerError = (5.0f + tracerError) * 360.0f;
; 462  : //		tracerError = (5.0f + tracerError) * (float)(((unsigned int)(((unsigned char *)Gun->wcPtr)[31])) << 2);
; 463  : // 2002-03-12 MODIFIED BY S.G. Looking at the assembly of RP5, this was coded wrong here :-(
; 464  : 		tracerError = 5.0f + (tracerError * (float)(((unsigned int)(((unsigned char *)Gun->wcPtr)[31])) << 2));

	mov	ecx, 1
	imul	ecx, 31					; 0000001fH
	mov	edx, DWORD PTR _Gun$[ebp]
	mov	eax, DWORD PTR [edx+868]
	movzx	ecx, BYTE PTR [eax+ecx]
	shl	ecx, 2
	mov	DWORD PTR tv792[ebp], ecx
	cvtsi2sd xmm0, DWORD PTR tv792[ebp]
	mov	edx, DWORD PTR tv792[ebp]
	shr	edx, 31					; 0000001fH
	addsd	xmm0, QWORD PTR __xmm@41f00000000000000000000000000000[edx*8]
	movsd	QWORD PTR tv795[ebp], xmm0
	cvtsd2ss xmm0, QWORD PTR tv795[ebp]
	mulss	xmm0, DWORD PTR _tracerError$[ebp]
	addss	xmm0, DWORD PTR __real@40a00000
	movss	DWORD PTR _tracerError$[ebp], xmm0

; 465  : 
; 466  : 		tracerError *= g_fTracerAccuracyFactor; // JB 010104 hack to make AAA more accurate 2002-03-12 MODIFIED BY S.G. Use the exported g_fTracerAccuracyFactor variable instead so we can tweak it without editing the code

	movss	xmm0, DWORD PTR _tracerError$[ebp]
	mulss	xmm0, DWORD PTR ?g_fTracerAccuracyFactor@@3MA
	movss	DWORD PTR _tracerError$[ebp], xmm0

; 467  : 
; 468  : 		xft = target->XPos() + tracerError * PRANDFloat();

	mov	ecx, DWORD PTR _target$[ebp]
	call	?XPos@VuEntity@@QBEMXZ			; VuEntity::XPos
	fstp	DWORD PTR tv805[ebp]
	movss	xmm0, DWORD PTR tv805[ebp]
	movss	DWORD PTR tv1100[ebp], xmm0
	call	?PRANDFloat@@YAMXZ			; PRANDFloat
	fstp	DWORD PTR tv809[ebp]
	movss	xmm0, DWORD PTR tv809[ebp]
	mulss	xmm0, DWORD PTR _tracerError$[ebp]
	movss	xmm1, DWORD PTR tv1100[ebp]
	addss	xmm1, xmm0
	movss	DWORD PTR _xft$[ebp], xmm1

; 469  : 		yft = target->YPos() + tracerError * PRANDFloat();

	mov	ecx, DWORD PTR _target$[ebp]
	call	?YPos@VuEntity@@QBEMXZ			; VuEntity::YPos
	fstp	DWORD PTR tv814[ebp]
	movss	xmm0, DWORD PTR tv814[ebp]
	movss	DWORD PTR tv1102[ebp], xmm0
	call	?PRANDFloat@@YAMXZ			; PRANDFloat
	fstp	DWORD PTR tv818[ebp]
	movss	xmm0, DWORD PTR tv818[ebp]
	mulss	xmm0, DWORD PTR _tracerError$[ebp]
	movss	xmm1, DWORD PTR tv1102[ebp]
	addss	xmm1, xmm0
	movss	DWORD PTR _yft$[ebp], xmm1

; 470  : 	}
; 471  : 	else

	jmp	$LN21@GunTrack
$LN22@GunTrack:

; 472  : 	{
; 473  : // 2000-10-12 MODIFIED BY S.G. isAirDefense VEHICLE NEEDS TO VARIATE A BIT AS WELL
; 474  : //		xft = target->XPos();
; 475  : //		yft = target->YPos();
; 476  : // 2000-10-19 MODIFIED BY S.G. THE TRACE ERROR WILL BE BASED ON THE GUN'S PERFORMANCE WHICH IS STORED IN THE LAST BYTE OF THE NAME OF THE WEAPON IN VAL / 4 FORMAT
; 477  : 		tracerError = (float)(((unsigned int)(((unsigned char *)Gun->wcPtr)[31])) << 2); // JB 010106

	mov	eax, 1
	imul	eax, 31					; 0000001fH
	mov	ecx, DWORD PTR _Gun$[ebp]
	mov	edx, DWORD PTR [ecx+868]
	movzx	eax, BYTE PTR [edx+eax]
	shl	eax, 2
	mov	DWORD PTR tv823[ebp], eax
	cvtsi2sd xmm0, DWORD PTR tv823[ebp]
	mov	ecx, DWORD PTR tv823[ebp]
	shr	ecx, 31					; 0000001fH
	addsd	xmm0, QWORD PTR __xmm@41f00000000000000000000000000000[ecx*8]
	movsd	QWORD PTR tv826[ebp], xmm0
	cvtsd2ss xmm0, QWORD PTR tv826[ebp]
	movss	DWORD PTR _tracerError$[ebp], xmm0

; 478  : 
; 479  : 		tracerError *= g_fTracerAccuracyFactor; // JB 010106 hack to make AAA more accurate 2002-03-12 MODIFIED BY S.G. Use the exported g_fTracerAccuracyFactor variable instead so we can tweak it without editing the code

	movss	xmm0, DWORD PTR _tracerError$[ebp]
	mulss	xmm0, DWORD PTR ?g_fTracerAccuracyFactor@@3MA
	movss	DWORD PTR _tracerError$[ebp], xmm0

; 480  : 
; 481  : 		xft = target->XPos() + tracerError * PRANDFloat();

	mov	ecx, DWORD PTR _target$[ebp]
	call	?XPos@VuEntity@@QBEMXZ			; VuEntity::XPos
	fstp	DWORD PTR tv834[ebp]
	movss	xmm0, DWORD PTR tv834[ebp]
	movss	DWORD PTR tv1104[ebp], xmm0
	call	?PRANDFloat@@YAMXZ			; PRANDFloat
	fstp	DWORD PTR tv838[ebp]
	movss	xmm0, DWORD PTR tv838[ebp]
	mulss	xmm0, DWORD PTR _tracerError$[ebp]
	movss	xmm1, DWORD PTR tv1104[ebp]
	addss	xmm1, xmm0
	movss	DWORD PTR _xft$[ebp], xmm1

; 482  : 		yft = target->YPos() + tracerError * PRANDFloat();

	mov	ecx, DWORD PTR _target$[ebp]
	call	?YPos@VuEntity@@QBEMXZ			; VuEntity::YPos
	fstp	DWORD PTR tv843[ebp]
	movss	xmm0, DWORD PTR tv843[ebp]
	movss	DWORD PTR tv1106[ebp], xmm0
	call	?PRANDFloat@@YAMXZ			; PRANDFloat
	fstp	DWORD PTR tv847[ebp]
	movss	xmm0, DWORD PTR tv847[ebp]
	mulss	xmm0, DWORD PTR _tracerError$[ebp]
	movss	xmm1, DWORD PTR tv1106[ebp]
	addss	xmm1, xmm0
	movss	DWORD PTR _yft$[ebp], xmm1
$LN21@GunTrack:

; 483  : 	}
; 484  : 
; 485  : 	xft -= XPos();

	mov	ecx, DWORD PTR _this$[ebp]
	call	?XPos@VuEntity@@QBEMXZ			; VuEntity::XPos
	fstp	DWORD PTR tv852[ebp]
	movss	xmm0, DWORD PTR _xft$[ebp]
	subss	xmm0, DWORD PTR tv852[ebp]
	movss	DWORD PTR _xft$[ebp], xmm0

; 486  : 	yft -= YPos();

	mov	ecx, DWORD PTR _this$[ebp]
	call	?YPos@VuEntity@@QBEMXZ			; VuEntity::YPos
	fstp	DWORD PTR tv857[ebp]
	movss	xmm0, DWORD PTR _yft$[ebp]
	subss	xmm0, DWORD PTR tv857[ebp]
	movss	DWORD PTR _yft$[ebp], xmm0

; 487  : 	zft = target->ZPos() - ZPos() + 4.0f;

	mov	ecx, DWORD PTR _target$[ebp]
	call	?ZPos@VuEntity@@QBEMXZ			; VuEntity::ZPos
	fstp	DWORD PTR tv862[ebp]
	movss	xmm0, DWORD PTR tv862[ebp]
	mov	ecx, DWORD PTR _this$[ebp]
	movss	DWORD PTR tv1108[ebp], xmm0
	call	?ZPos@VuEntity@@QBEMXZ			; VuEntity::ZPos
	fstp	DWORD PTR tv866[ebp]
	movss	xmm0, DWORD PTR tv1108[ebp]
	subss	xmm0, DWORD PTR tv866[ebp]
	addss	xmm0, DWORD PTR __real@40800000
	movss	DWORD PTR _zft$[ebp], xmm0

; 488  : 	realRange = (float)sqrt( xft * xft + yft * yft + zft * zft );

	movss	xmm0, DWORD PTR _xft$[ebp]
	mulss	xmm0, DWORD PTR _xft$[ebp]
	movss	xmm1, DWORD PTR _yft$[ebp]
	mulss	xmm1, DWORD PTR _yft$[ebp]
	addss	xmm0, xmm1
	movss	xmm1, DWORD PTR _zft$[ebp]
	mulss	xmm1, DWORD PTR _zft$[ebp]
	addss	xmm0, xmm1
	push	ecx
	movss	DWORD PTR [esp], xmm0
	call	?SqrtSSE@@YAMM@Z			; SqrtSSE
	add	esp, 4
	fstp	DWORD PTR _realRange$[ebp]

; 489  : 
; 490  : 	// Guess TOF
; 491  : 	tof = realRange / Gun->initBulletVelocity;

	mov	edx, DWORD PTR _Gun$[ebp]
	movss	xmm0, DWORD PTR _realRange$[ebp]
	divss	xmm0, DWORD PTR [edx+792]
	movss	DWORD PTR _tof$[ebp], xmm0

; 492  : 
; 493  : 	// now get vector to where we're aiming
; 494  : 	xft += target->XDelta() * tof;

	mov	ecx, DWORD PTR _target$[ebp]
	call	?XDelta@VuEntity@@QBEMXZ		; VuEntity::XDelta
	fstp	DWORD PTR tv878[ebp]
	movss	xmm0, DWORD PTR tv878[ebp]
	mulss	xmm0, DWORD PTR _tof$[ebp]
	addss	xmm0, DWORD PTR _xft$[ebp]
	movss	DWORD PTR _xft$[ebp], xmm0

; 495  : 	yft += target->YDelta() * tof;

	mov	ecx, DWORD PTR _target$[ebp]
	call	?YDelta@VuEntity@@QBEMXZ		; VuEntity::YDelta
	fstp	DWORD PTR tv883[ebp]
	movss	xmm0, DWORD PTR tv883[ebp]
	mulss	xmm0, DWORD PTR _tof$[ebp]
	addss	xmm0, DWORD PTR _yft$[ebp]
	movss	DWORD PTR _yft$[ebp], xmm0

; 496  : 	zft += target->ZDelta() * tof;

	mov	ecx, DWORD PTR _target$[ebp]
	call	?ZDelta@VuEntity@@QBEMXZ		; VuEntity::ZDelta
	fstp	DWORD PTR tv888[ebp]
	movss	xmm0, DWORD PTR tv888[ebp]
	mulss	xmm0, DWORD PTR _tof$[ebp]
	addss	xmm0, DWORD PTR _zft$[ebp]
	movss	DWORD PTR _zft$[ebp], xmm0

; 497  : 
; 498  : 	// Correct for gravity
; 499  : // 2000-10-24 I'LL CALCULATE THE GRAVITY THE 'RIGHT' WAY (NOT IN RP4 SO REMOVED - IN FACT, zft IS NOT ADJUSTED IN RP4)
; 500  : //	zft += 0.5F * GRAVITY * tof * tof;
; 501  : //	zft -= (tof * tof + tof) / 2 * GRAVITY;
; 502  : 
; 503  : 	// KCK : Copy these values into our targetPtr.
; 504  : 	// Note: This factors our induced error and target's vector into the Rel Geometry data,
; 505  : 	// but as we use this only for aiming and targetting, it shouldn't matter.
; 506  : 	targetPtr->localData->az = (float)atan2(yft,xft);

	cvtss2sd xmm0, DWORD PTR _xft$[ebp]
	sub	esp, 8
	movsd	QWORD PTR [esp], xmm0
	cvtss2sd xmm0, DWORD PTR _yft$[ebp]
	sub	esp, 8
	movsd	QWORD PTR [esp], xmm0
	call	?checked_atan2@@YANNN@Z			; checked_atan2
	add	esp, 16					; 00000010H
	fstp	DWORD PTR tv895[ebp]
	fld	DWORD PTR tv895[ebp]
	mov	eax, DWORD PTR _this$[ebp]
	mov	ecx, DWORD PTR [eax+656]
	mov	edx, DWORD PTR [ecx+12]
	fstp	DWORD PTR [edx+16]

; 507  : 	targetPtr->localData->el = (float)atan(-zft/(float)sqrt(xft*xft + yft*yft +0.1F));

	movss	xmm0, DWORD PTR _zft$[ebp]
	xorps	xmm0, DWORD PTR __xmm@80000000800000008000000080000000
	movss	xmm1, DWORD PTR _xft$[ebp]
	mulss	xmm1, DWORD PTR _xft$[ebp]
	movss	xmm2, DWORD PTR _yft$[ebp]
	mulss	xmm2, DWORD PTR _yft$[ebp]
	addss	xmm1, xmm2
	addss	xmm1, DWORD PTR __real@3dcccccd
	push	ecx
	movss	DWORD PTR [esp], xmm1
	movss	DWORD PTR tv1110[ebp], xmm0
	call	?SqrtSSE@@YAMM@Z			; SqrtSSE
	add	esp, 4
	fstp	DWORD PTR tv903[ebp]
	movss	xmm0, DWORD PTR tv1110[ebp]
	divss	xmm0, DWORD PTR tv903[ebp]
	push	ecx
	movss	DWORD PTR [esp], xmm0
	call	?atan@@YAMM@Z				; atan
	add	esp, 4
	mov	eax, DWORD PTR _this$[ebp]
	mov	ecx, DWORD PTR [eax+656]
	mov	edx, DWORD PTR [ecx+12]
	fstp	DWORD PTR [edx+28]

; 508  : 	targetPtr->localData->range = realRange;

	mov	eax, DWORD PTR _this$[ebp]
	mov	ecx, DWORD PTR [eax+656]
	mov	edx, DWORD PTR [ecx+12]
	movss	xmm0, DWORD PTR _realRange$[ebp]
	movss	DWORD PTR [edx+44], xmm0

; 509  : 
; 510  : 	az = targetPtr->localData->az - Yaw();

	mov	eax, DWORD PTR _this$[ebp]
	mov	ecx, DWORD PTR [eax+656]
	mov	esi, DWORD PTR [ecx+12]
	mov	ecx, DWORD PTR _this$[ebp]
	call	?Yaw@VuEntity@@QBEMXZ			; VuEntity::Yaw
	fstp	DWORD PTR tv914[ebp]
	movss	xmm0, DWORD PTR [esi+16]
	subss	xmm0, DWORD PTR tv914[ebp]
	movss	DWORD PTR _az$[ebp], xmm0

; 511  : 	el = targetPtr->localData->el - Pitch();

	mov	edx, DWORD PTR _this$[ebp]
	mov	eax, DWORD PTR [edx+656]
	mov	esi, DWORD PTR [eax+12]
	mov	ecx, DWORD PTR _this$[ebp]
	call	?Pitch@VuEntity@@QBEMXZ			; VuEntity::Pitch
	fstp	DWORD PTR tv920[ebp]
	movss	xmm0, DWORD PTR [esi+28]
	subss	xmm0, DWORD PTR tv920[ebp]
	movss	DWORD PTR _el$[ebp], xmm0

; 512  : 
; 513  : 	RotateTurret();

	mov	ecx, DWORD PTR _this$[ebp]
	call	?RotateTurret@GroundClass@@QAEXXZ	; GroundClass::RotateTurret

; 514  : 
; 515  : 	// if we are not an air defense unit, but we're shooting guns at something in
; 516  : 	// the air, it will be small arms so it is irrelevant which way our main gun
; 517  : 	// is pointing
; 518  : 	if(target->OnGround() || isAirDefense)

	mov	ecx, DWORD PTR _target$[ebp]
	mov	edx, DWORD PTR [ecx]
	mov	ecx, DWORD PTR _target$[ebp]
	mov	eax, DWORD PTR [edx+148]
	call	eax
	test	eax, eax
	jne	SHORT $LN19@GunTrack
	mov	ecx, DWORD PTR _this$[ebp]
	mov	edx, DWORD PTR [ecx+772]
	shr	edx, 7
	and	edx, 1
	je	$LN13@GunTrack
$LN19@GunTrack:

; 519  : 	{
; 520  : 		// Check our limits
; 521  : 		if (el > 85*DTR || (el < 5*DTR && !target->OnGround()))

	movss	xmm0, DWORD PTR _el$[ebp]
	comiss	xmm0, DWORD PTR __real@3fbde44d
	ja	SHORT $LN17@GunTrack
	movss	xmm0, DWORD PTR __real@3db2b8c1
	comiss	xmm0, DWORD PTR _el$[ebp]
	jbe	SHORT $LN18@GunTrack
	mov	eax, DWORD PTR _target$[ebp]
	mov	edx, DWORD PTR [eax]
	mov	ecx, DWORD PTR _target$[ebp]
	mov	eax, DWORD PTR [edx+148]
	call	eax
	test	eax, eax
	jne	SHORT $LN18@GunTrack
$LN17@GunTrack:

; 522  : 			return FALSE;

	xor	eax, eax
	jmp	$LN24@GunTrack
$LN18@GunTrack:

; 523  : 
; 524  : 		delta = (float)fabs(GetDOFValue(AIRDEF_AZIMUTH) - az);

	push	0
	mov	ecx, DWORD PTR _this$[ebp]
	call	?GetDOFValue@SimMoverClass@@QAEMH@Z	; SimMoverClass::GetDOFValue
	fstp	DWORD PTR tv936[ebp]
	movss	xmm0, DWORD PTR tv936[ebp]
	subss	xmm0, DWORD PTR _az$[ebp]
	push	ecx
	movss	DWORD PTR [esp], xmm0
	call	?fabs@@YAMM@Z				; fabs
	add	esp, 4
	fstp	DWORD PTR _delta$[ebp]

; 525  : 		if(delta > 180.0F*DTR)

	movss	xmm0, DWORD PTR _delta$[ebp]
	comiss	xmm0, DWORD PTR __real@40490fd9
	jbe	SHORT $LN16@GunTrack

; 526  : 			delta -= 180.0F*DTR;

	movss	xmm0, DWORD PTR _delta$[ebp]
	subss	xmm0, DWORD PTR __real@40490fd9
	movss	DWORD PTR _delta$[ebp], xmm0
$LN16@GunTrack:

; 527  : 		if ( delta > 15*DTR )

	movss	xmm0, DWORD PTR _delta$[ebp]
	comiss	xmm0, DWORD PTR __real@3e860a91
	jbe	SHORT $LN15@GunTrack

; 528  : 			return FALSE;

	xor	eax, eax
	jmp	$LN24@GunTrack
$LN15@GunTrack:

; 529  : 
; 530  : 		delta = (float)fabs(GetDOFValue(AIRDEF_ELEV) - el);

	push	1
	mov	ecx, DWORD PTR _this$[ebp]
	call	?GetDOFValue@SimMoverClass@@QAEMH@Z	; SimMoverClass::GetDOFValue
	fstp	DWORD PTR tv947[ebp]
	movss	xmm0, DWORD PTR tv947[ebp]
	subss	xmm0, DWORD PTR _el$[ebp]
	push	ecx
	movss	DWORD PTR [esp], xmm0
	call	?fabs@@YAMM@Z				; fabs
	add	esp, 4
	fstp	DWORD PTR _delta$[ebp]

; 531  : 		if(delta > 180.0F*DTR)

	movss	xmm0, DWORD PTR _delta$[ebp]
	comiss	xmm0, DWORD PTR __real@40490fd9
	jbe	SHORT $LN14@GunTrack

; 532  : 			delta -= 180.0F*DTR;

	movss	xmm0, DWORD PTR _delta$[ebp]
	subss	xmm0, DWORD PTR __real@40490fd9
	movss	DWORD PTR _delta$[ebp], xmm0
$LN14@GunTrack:

; 533  : 		if ( delta > 15*DTR )

	movss	xmm0, DWORD PTR _delta$[ebp]
	comiss	xmm0, DWORD PTR __real@3e860a91
	jbe	SHORT $LN13@GunTrack

; 534  : 			return FALSE;

	xor	eax, eax
	jmp	$LN24@GunTrack
$LN13@GunTrack:

; 535  : 	}
; 536  : 
; 537  : 	// KCK: I've noticed some vehicles (ie: artillery) don't use/have DOFs. 
; 538  : 	// An idea to think about is physically rotating the vehicle instead. 
; 539  : 	// Just food for thought right now
; 540  : 	mlSinCos (&trigtha, targetPtr->localData->el);

	mov	ecx, DWORD PTR _this$[ebp]
	mov	edx, DWORD PTR [ecx+656]
	mov	eax, DWORD PTR [edx+12]
	push	ecx
	movss	xmm0, DWORD PTR [eax+28]
	movss	DWORD PTR [esp], xmm0
	lea	ecx, DWORD PTR _trigtha$[ebp]
	push	ecx
	call	?mlSinCos@@YAXPAUmlTrig@@M@Z		; mlSinCos
	add	esp, 8

; 541  : 	mlSinCos (&trigpsi, targetPtr->localData->az);

	mov	edx, DWORD PTR _this$[ebp]
	mov	eax, DWORD PTR [edx+656]
	mov	ecx, DWORD PTR [eax+12]
	push	ecx
	movss	xmm0, DWORD PTR [ecx+16]
	movss	DWORD PTR [esp], xmm0
	lea	edx, DWORD PTR _trigpsi$[ebp]
	push	edx
	call	?mlSinCos@@YAXPAUmlTrig@@M@Z		; mlSinCos
	add	esp, 8

; 542  : 
; 543  : 	gunDmx[0][0] = trigpsi.cos*trigtha.cos;

	movss	xmm0, DWORD PTR _trigpsi$[ebp+4]
	mulss	xmm0, DWORD PTR _trigtha$[ebp+4]
	mov	eax, 12					; 0000000cH
	imul	eax, 0
	mov	ecx, DWORD PTR _this$[ebp]
	lea	edx, DWORD PTR [ecx+eax+792]
	mov	eax, 4
	imul	eax, 0
	movss	DWORD PTR [edx+eax], xmm0

; 544  : 	gunDmx[0][1] = trigpsi.sin*trigtha.cos;

	movss	xmm0, DWORD PTR _trigpsi$[ebp]
	mulss	xmm0, DWORD PTR _trigtha$[ebp+4]
	mov	ecx, 12					; 0000000cH
	imul	ecx, 0
	mov	edx, DWORD PTR _this$[ebp]
	lea	eax, DWORD PTR [edx+ecx+792]
	mov	ecx, 4
	shl	ecx, 0
	movss	DWORD PTR [eax+ecx], xmm0

; 545  : 	gunDmx[0][2] = -trigtha.sin;

	movss	xmm0, DWORD PTR _trigtha$[ebp]
	xorps	xmm0, DWORD PTR __xmm@80000000800000008000000080000000
	mov	edx, 12					; 0000000cH
	imul	edx, 0
	mov	eax, DWORD PTR _this$[ebp]
	lea	ecx, DWORD PTR [eax+edx+792]
	mov	edx, 4
	shl	edx, 1
	movss	DWORD PTR [ecx+edx], xmm0

; 546  : 
; 547  : 	gunDmx[1][0] = -trigpsi.sin;

	movss	xmm0, DWORD PTR _trigpsi$[ebp]
	xorps	xmm0, DWORD PTR __xmm@80000000800000008000000080000000
	mov	eax, 12					; 0000000cH
	shl	eax, 0
	mov	ecx, DWORD PTR _this$[ebp]
	lea	edx, DWORD PTR [ecx+eax+792]
	mov	eax, 4
	imul	eax, 0
	movss	DWORD PTR [edx+eax], xmm0

; 548  : 	gunDmx[1][1] = trigpsi.cos;

	mov	ecx, 12					; 0000000cH
	shl	ecx, 0
	mov	edx, DWORD PTR _this$[ebp]
	lea	eax, DWORD PTR [edx+ecx+792]
	mov	ecx, 4
	shl	ecx, 0
	movss	xmm0, DWORD PTR _trigpsi$[ebp+4]
	movss	DWORD PTR [eax+ecx], xmm0

; 549  : 	gunDmx[1][2] = 0.0f;

	mov	edx, 12					; 0000000cH
	shl	edx, 0
	mov	eax, DWORD PTR _this$[ebp]
	lea	ecx, DWORD PTR [eax+edx+792]
	mov	edx, 4
	shl	edx, 1
	movss	xmm0, DWORD PTR __real@00000000
	movss	DWORD PTR [ecx+edx], xmm0

; 550  : 
; 551  : 	gunDmx[2][0] = trigpsi.cos*trigtha.sin;

	movss	xmm0, DWORD PTR _trigpsi$[ebp+4]
	mulss	xmm0, DWORD PTR _trigtha$[ebp]
	mov	eax, 12					; 0000000cH
	shl	eax, 1
	mov	ecx, DWORD PTR _this$[ebp]
	lea	edx, DWORD PTR [ecx+eax+792]
	mov	eax, 4
	imul	eax, 0
	movss	DWORD PTR [edx+eax], xmm0

; 552  : 	gunDmx[2][1] = trigpsi.sin*trigtha.sin;

	movss	xmm0, DWORD PTR _trigpsi$[ebp]
	mulss	xmm0, DWORD PTR _trigtha$[ebp]
	mov	ecx, 12					; 0000000cH
	shl	ecx, 1
	mov	edx, DWORD PTR _this$[ebp]
	lea	eax, DWORD PTR [edx+ecx+792]
	mov	ecx, 4
	shl	ecx, 0
	movss	DWORD PTR [eax+ecx], xmm0

; 553  : 	gunDmx[2][2] = trigtha.cos;

	mov	edx, 12					; 0000000cH
	shl	edx, 1
	mov	eax, DWORD PTR _this$[ebp]
	lea	ecx, DWORD PTR [eax+edx+792]
	mov	edx, 4
	shl	edx, 1
	movss	xmm0, DWORD PTR _trigtha$[ebp+4]
	movss	DWORD PTR [ecx+edx], xmm0

; 554  : 
; 555  : 	fire = TRUE;

	mov	DWORD PTR _fire$[ebp], 1

; 556  : 
; 557  : 	if ( Gun->IsTracer() )

	mov	ecx, DWORD PTR _Gun$[ebp]
	call	?IsTracer@GunClass@@QAEHXZ		; GunClass::IsTracer
	test	eax, eax
	je	SHORT $LN12@GunTrack

; 558  : 		{
; 559  : 
; 560  : 		Gun->Exec(&fire, gunDmx, &platformAngles, targetPtr, FALSE );

	push	0
	mov	eax, DWORD PTR _this$[ebp]
	mov	ecx, DWORD PTR [eax+656]
	push	ecx
	mov	edx, DWORD PTR _this$[ebp]
	add	edx, 340				; 00000154H
	push	edx
	mov	eax, DWORD PTR _this$[ebp]
	add	eax, 792				; 00000318H
	push	eax
	lea	ecx, DWORD PTR _fire$[ebp]
	push	ecx
	mov	ecx, DWORD PTR _Gun$[ebp]
	call	?Exec@GunClass@@QAEHPAHQAY02MPAVObjectGeometry@@PAVSimObjectType@@H@Z ; GunClass::Exec

; 561  : 		if ( fire )

	cmp	DWORD PTR _fire$[ebp], 0
	je	SHORT $LN11@GunTrack

; 562  : 			{
; 563  : 			needKeepAlive = TRUE;

	mov	edx, DWORD PTR _this$[ebp]
	mov	eax, DWORD PTR [edx+772]
	or	eax, 16					; 00000010H
	mov	ecx, DWORD PTR _this$[ebp]
	mov	DWORD PTR [ecx+772], eax

; 564  : 			SoundPos.Sfx( SFX_MCGUN, 0, 1.0, 0);

	push	ecx
	movss	xmm0, DWORD PTR __real@00000000
	movss	DWORD PTR [esp], xmm0
	push	ecx
	movss	xmm0, DWORD PTR __real@3f800000
	movss	DWORD PTR [esp], xmm0
	push	0
	push	49					; 00000031H
	mov	ecx, DWORD PTR _this$[ebp]
	add	ecx, 444				; 000001bcH
	call	?Sfx@F4SoundPos@@QAEXHHMM@Z		; F4SoundPos::Sfx
$LN11@GunTrack:

; 565  : //			MonoPrint( "Ground Unit Firing tracers at %s, flying = %d, rounds = %d, unlim = %d\n",
; 566  : //					   target->OnGround() ? "Ground Unit" : "Air Unit",
; 567  : //					   Gun->numFlying,
; 568  : //					   Gun->numRoundsRemaining,
; 569  : //					   Gun->unlimitedAmmo );
; 570  : 			}
; 571  : 		else
; 572  : 			{
; 573  : //			MonoPrint( "Ground Unit unable to fire tracer flying = %d, rounds = %d, unlim = %d\n",
; 574  : //					   Gun->numFlying,
; 575  : //					   Gun->numRoundsRemaining,
; 576  : //					   Gun->unlimitedAmmo );
; 577  : 			}
; 578  : 		}
; 579  : 	// RV - Biker check max firing height for AAA (flak)
; 580  : 	else {

	jmp	$LN9@GunTrack
$LN12@GunTrack:

; 581  : 		if (!targetPtr->BaseData()->OnGround()) {

	mov	edx, DWORD PTR _this$[ebp]
	mov	ecx, DWORD PTR [edx+656]
	call	?BaseData@SimObjectType@@QAEPAVFalconEntity@@XZ ; SimObjectType::BaseData
	mov	DWORD PTR tv481[ebp], eax
	mov	eax, DWORD PTR tv481[ebp]
	mov	edx, DWORD PTR [eax]
	mov	ecx, DWORD PTR tv481[ebp]
	mov	eax, DWORD PTR [edx+148]
	call	eax
	test	eax, eax
	jne	$LN4@GunTrack

; 582  : 			WeaponClassDataType* wc = Gun->GetWCD();

	mov	ecx, DWORD PTR _Gun$[ebp]
	call	?GetWCD@SimWeaponClass@@QAEPAUWeaponClassDataType@@XZ ; SimWeaponClass::GetWCD
	mov	DWORD PTR _wc$2[ebp], eax

; 583  : 			float maxFireRange;
; 584  : 
; 585  : 			if (battalionFireControl || rand()%100 < 10)

	mov	ecx, DWORD PTR _this$[ebp]
	cmp	DWORD PTR [ecx+784], 0
	jne	SHORT $LN6@GunTrack
	call	_rand
	cdq
	mov	ecx, 100				; 00000064H
	idiv	ecx
	cmp	edx, 10					; 0000000aH
	jge	SHORT $LN7@GunTrack
$LN6@GunTrack:

; 586  : 				maxFireRange = float(wc->Range*KM_TO_FT);

	mov	edx, DWORD PTR _wc$2[ebp]
	movsx	eax, WORD PTR [edx+8]
	cvtsi2ss xmm0, eax
	mulss	xmm0, DWORD PTR __real@454cffae
	movss	DWORD PTR _maxFireRange$1[ebp], xmm0

; 587  : 			else

	jmp	SHORT $LN5@GunTrack
$LN7@GunTrack:

; 588  : 				maxFireRange = float(wc->MaxAlt*KM_TO_FT*0.666f);

	mov	ecx, DWORD PTR _wc$2[ebp]
	movsx	edx, BYTE PTR [ecx+58]
	cvtsi2ss xmm0, edx
	mulss	xmm0, DWORD PTR __real@454cffae
	mulss	xmm0, DWORD PTR __real@3f2a7efa
	movss	DWORD PTR _maxFireRange$1[ebp], xmm0
$LN5@GunTrack:

; 589  : 
; 590  : 			if (targetPtr->localData->range > maxFireRange)

	mov	eax, DWORD PTR _this$[ebp]
	mov	ecx, DWORD PTR [eax+656]
	mov	edx, DWORD PTR [ecx+12]
	movss	xmm0, DWORD PTR [edx+44]
	comiss	xmm0, DWORD PTR _maxFireRange$1[ebp]
	jbe	SHORT $LN4@GunTrack

; 591  : 				return FALSE;

	xor	eax, eax
	jmp	$LN24@GunTrack
$LN4@GunTrack:

; 592  : 		}
; 593  : 
; 594  : 		// edg: not really the best place for this, but....
; 595  : 		// we need to prevent flak from firing when aircraft are flying
; 596  : 		// low -- it should be a gameplay feature.  SelectWeapon isn't
; 597  : 		// being granular enough....
; 598  : 		if ( !targetPtr->BaseData()->OnGround() &&
; 599  : 			 targetPtr->BaseData()->IsSim() &&
; 600  : 			 targetPtr->BaseData()->ZPos() - ZPos() > -2000.0f )

	mov	eax, DWORD PTR _this$[ebp]
	mov	ecx, DWORD PTR [eax+656]
	call	?BaseData@SimObjectType@@QAEPAVFalconEntity@@XZ ; SimObjectType::BaseData
	mov	DWORD PTR tv554[ebp], eax
	mov	ecx, DWORD PTR tv554[ebp]
	mov	edx, DWORD PTR [ecx]
	mov	ecx, DWORD PTR tv554[ebp]
	mov	eax, DWORD PTR [edx+148]
	call	eax
	test	eax, eax
	jne	SHORT $LN3@GunTrack
	mov	ecx, DWORD PTR _this$[ebp]
	mov	ecx, DWORD PTR [ecx+656]
	call	?BaseData@SimObjectType@@QAEPAVFalconEntity@@XZ ; SimObjectType::BaseData
	mov	ecx, eax
	call	?IsSim@FalconEntity@@QAEHXZ		; FalconEntity::IsSim
	test	eax, eax
	je	SHORT $LN3@GunTrack
	mov	edx, DWORD PTR _this$[ebp]
	mov	ecx, DWORD PTR [edx+656]
	call	?BaseData@SimObjectType@@QAEPAVFalconEntity@@XZ ; SimObjectType::BaseData
	mov	ecx, eax
	call	?ZPos@VuEntity@@QBEMXZ			; VuEntity::ZPos
	fstp	DWORD PTR tv1044[ebp]
	movss	xmm0, DWORD PTR tv1044[ebp]
	mov	ecx, DWORD PTR _this$[ebp]
	movss	DWORD PTR tv1112[ebp], xmm0
	call	?ZPos@VuEntity@@QBEMXZ			; VuEntity::ZPos
	fstp	DWORD PTR tv1048[ebp]
	movss	xmm0, DWORD PTR tv1112[ebp]
	subss	xmm0, DWORD PTR tv1048[ebp]
	comiss	xmm0, DWORD PTR __real@c4fa0000
	jbe	SHORT $LN3@GunTrack

; 601  : 	 	{
; 602  : 			return FALSE;

	xor	eax, eax
	jmp	$LN24@GunTrack
$LN3@GunTrack:

; 603  : 		}
; 604  : 
; 605  : 		needKeepAlive = TRUE;

	mov	eax, DWORD PTR _this$[ebp]
	mov	ecx, DWORD PTR [eax+772]
	or	ecx, 16					; 00000010H
	mov	edx, DWORD PTR _this$[ebp]
	mov	DWORD PTR [edx+772], ecx

; 606  : 		Gun->FireShell( targetPtr );

	mov	eax, DWORD PTR _this$[ebp]
	mov	ecx, DWORD PTR [eax+656]
	push	ecx
	mov	ecx, DWORD PTR _Gun$[ebp]
	call	?FireShell@GunClass@@QAEXPAVSimObjectType@@@Z ; GunClass::FireShell

; 607  : 
; 608  : //		MonoPrint( "Ground Unit Firing shell at %s\n",
; 609  : //				   target->OnGround() ? "Ground Unit" : "Air Unit" );
; 610  : 
; 611  : 		// sound effect
; 612  : 		if ( rand() & 1 )

	call	_rand
	and	eax, 1
	je	SHORT $LN2@GunTrack

; 613  : 			SoundPos.Sfx( SFX_BIGGUN1, 0, 1.0, 0);

	push	ecx
	movss	xmm0, DWORD PTR __real@00000000
	movss	DWORD PTR [esp], xmm0
	push	ecx
	movss	xmm0, DWORD PTR __real@3f800000
	movss	DWORD PTR [esp], xmm0
	push	0
	push	1
	mov	ecx, DWORD PTR _this$[ebp]
	add	ecx, 444				; 000001bcH
	call	?Sfx@F4SoundPos@@QAEXHHMM@Z		; F4SoundPos::Sfx

; 614  : 		else

	jmp	SHORT $LN1@GunTrack
$LN2@GunTrack:

; 615  : 			SoundPos.Sfx( SFX_BIGGUN2, 0, 1.0, 0);

	push	ecx
	movss	xmm0, DWORD PTR __real@00000000
	movss	DWORD PTR [esp], xmm0
	push	ecx
	movss	xmm0, DWORD PTR __real@3f800000
	movss	DWORD PTR [esp], xmm0
	push	0
	push	2
	mov	ecx, DWORD PTR _this$[ebp]
	add	ecx, 444				; 000001bcH
	call	?Sfx@F4SoundPos@@QAEXHHMM@Z		; F4SoundPos::Sfx
$LN1@GunTrack:

; 616  : 
; 617  : 		pos.x = XPos() + gunDmx[0][0] * 5.0f;

	mov	ecx, DWORD PTR _this$[ebp]
	call	?XPos@VuEntity@@QBEMXZ			; VuEntity::XPos
	fstp	DWORD PTR tv1069[ebp]
	movss	xmm0, DWORD PTR tv1069[ebp]
	mov	edx, 12					; 0000000cH
	imul	edx, 0
	mov	eax, DWORD PTR _this$[ebp]
	lea	ecx, DWORD PTR [eax+edx+792]
	mov	edx, 4
	imul	edx, 0
	movss	xmm1, DWORD PTR [ecx+edx]
	mulss	xmm1, DWORD PTR __real@40a00000
	addss	xmm0, xmm1
	movss	DWORD PTR _pos$[ebp], xmm0

; 618  : 		pos.y = YPos() + gunDmx[0][1] * 5.0f;

	mov	ecx, DWORD PTR _this$[ebp]
	call	?YPos@VuEntity@@QBEMXZ			; VuEntity::YPos
	fstp	DWORD PTR tv1077[ebp]
	movss	xmm0, DWORD PTR tv1077[ebp]
	mov	eax, 12					; 0000000cH
	imul	eax, 0
	mov	ecx, DWORD PTR _this$[ebp]
	lea	edx, DWORD PTR [ecx+eax+792]
	mov	eax, 4
	shl	eax, 0
	movss	xmm1, DWORD PTR [edx+eax]
	mulss	xmm1, DWORD PTR __real@40a00000
	addss	xmm0, xmm1
	movss	DWORD PTR _pos$[ebp+4], xmm0

; 619  : 		pos.z = ZPos() - 5.0f + gunDmx[0][2] * 5.0f;

	mov	ecx, DWORD PTR _this$[ebp]
	call	?ZPos@VuEntity@@QBEMXZ			; VuEntity::ZPos
	fstp	DWORD PTR tv1085[ebp]
	movss	xmm0, DWORD PTR tv1085[ebp]
	subss	xmm0, DWORD PTR __real@40a00000
	mov	ecx, 12					; 0000000cH
	imul	ecx, 0
	mov	edx, DWORD PTR _this$[ebp]
	lea	eax, DWORD PTR [edx+ecx+792]
	mov	ecx, 4
	shl	ecx, 1
	movss	xmm1, DWORD PTR [eax+ecx]
	mulss	xmm1, DWORD PTR __real@40a00000
	addss	xmm0, xmm1
	movss	DWORD PTR _pos$[ebp+8], xmm0

; 620  : 
; 621  : 		vec.x = XDelta();

	mov	ecx, DWORD PTR _this$[ebp]
	call	?XDelta@VuEntity@@QBEMXZ		; VuEntity::XDelta
	fstp	DWORD PTR _vec$[ebp]

; 622  : 		vec.y = YDelta();

	mov	ecx, DWORD PTR _this$[ebp]
	call	?YDelta@VuEntity@@QBEMXZ		; VuEntity::YDelta
	fstp	DWORD PTR _vec$[ebp+4]

; 623  : 		vec.z = 0.0f;

	movss	xmm0, DWORD PTR __real@00000000
	movss	DWORD PTR _vec$[ebp+8], xmm0

; 624  : //Cobra TJL Change this to SFX_GUN_SMOKE
; 625  : 		/*
; 626  : 		OTWDriver.AddSfxRequest(
; 627  : 			new SfxClass ( SFX_GUN_SMOKE,		// type
; 628  : 			SFX_MOVES,
; 629  : 			&pos,					// world pos
; 630  : 			&vec,					// world pos
; 631  : 			1.3f,					// time to live
; 632  : 			7.0f ) );				// scale
; 633  : 			*/
; 634  : 		DrawableParticleSys::PS_AddParticleEx((SFX_GUN_SMOKE + 1),
; 635  : 									&pos,
; 636  : 									&vec);

	lea	edx, DWORD PTR _vec$[ebp]
	push	edx
	lea	eax, DWORD PTR _pos$[ebp]
	push	eax
	push	132					; 00000084H
	call	?PS_AddParticleEx@DrawableParticleSys@@SAXHPAUTpoint@@0@Z ; DrawableParticleSys::PS_AddParticleEx
	add	esp, 12					; 0000000cH
$LN9@GunTrack:

; 637  : /*
; 638  : 		pos.x = XPos() + gunDmx[0][0] * 8.0f;
; 639  : 		pos.y = YPos() + gunDmx[0][1] * 8.0f;
; 640  : 		pos.z = ZPos() - 5.0f + gunDmx[0][2] * 8.0f;
; 641  : 
; 642  : 		vec.z = -10.0f;*/
; 643  : /* Cobra TJL 11/06/04 Removed per Steve for new PS file.
; 644  : 		OTWDriver.AddSfxRequest(
; 645  : 			new SfxClass ( SFX_LIGHT_CLOUD,		// type
; 646  : 			SFX_MOVES,
; 647  : 			&pos,					// world pos
; 648  : 			&vec,					// vel vector
; 649  : 			4.3f,					// time to live
; 650  : 			0.5f ) );				// scale
; 651  : 
; 652  : 		pos.x = XPos() + gunDmx[0][0] * 13.0f;
; 653  : 		pos.y = YPos() + gunDmx[0][1] * 13.0f;
; 654  : 		pos.z = ZPos() - 5.0f + gunDmx[0][2] * 13.0f;
; 655  : 
; 656  : 		OTWDriver.AddSfxRequest(
; 657  : 			new SfxClass ( SFX_LIGHT_CLOUD,		// type
; 658  : 			SFX_MOVES,
; 659  : 			&pos,					// world pos
; 660  : 			&vec,					// vel vector
; 661  : 			4.3f,					// time to live
; 662  : 			1.0f ) );				// scale
; 663  : 
; 664  : 		pos.x = XPos() + gunDmx[0][0] * 20.0f;
; 665  : 		pos.y = YPos() + gunDmx[0][1] * 20.0f;
; 666  : 		pos.z = ZPos() - 5.0f + gunDmx[0][2] * 20.0f;
; 667  : 
; 668  : 		OTWDriver.AddSfxRequest(
; 669  : 			new SfxClass ( SFX_LIGHT_CLOUD,		// type
; 670  : 			SFX_MOVES,
; 671  : 			&pos,					// world pos
; 672  : 			&vec,					// vel vector
; 673  : 			4.3f,					// time to live
; 674  : 			1.5f ) );				// scale
; 675  : 
; 676  : 		pos.x = XPos();
; 677  : 		pos.y = YPos();
; 678  : 		pos.z = ZPos();
; 679  : 		
; 680  : 		OTWDriver.AddSfxRequest(
; 681  : 			new SfxClass ( SFX_GROUND_FLASH,		// type
; 682  : 			&pos,					// world pos
; 683  : 			4.3f,					// time to live
; 684  : 			201.5f ) );				// scale */
; 685  : 		}
; 686  : 	return (fire);

	mov	eax, DWORD PTR _fire$[ebp]
$LN24@GunTrack:

; 687  : }

	pop	esi
	mov	ecx, DWORD PTR __$ArrayPad$[ebp]
	xor	ecx, ebp
	call	@__security_check_cookie@4
	mov	esp, ebp
	pop	ebp
	ret	0
?GunTrack@GroundClass@@QAEHXZ ENDP			; GroundClass::GunTrack
_TEXT	ENDS
; Function compile flags: /Odtp
; File c:\users\zhitao li\documents\visual studio 2012\projects\freefalcon\sim\ground\weapon.cpp
_TEXT	SEGMENT
_psi$1 = -180						; size = 8
tv901 = -172						; size = 4
tv835 = -168						; size = 4
_theObject$2 = -164					; size = 4
_az$ = -160						; size = 4
tv770 = -156						; size = 4
tv982 = -152						; size = 4
tv840 = -148						; size = 4
tv976 = -144						; size = 4
tv894 = -140						; size = 4
tv957 = -136						; size = 4
tv874 = -132						; size = 4
tv944 = -128						; size = 4
tv845 = -124						; size = 4
tv905 = -120						; size = 4
tv1014 = -116						; size = 4
tv880 = -112						; size = 4
_wpnDefinition$ = -108					; size = 4
tv156 = -104						; size = 4
tv654 = -100						; size = 4
_zft$ = -96						; size = 4
tv607 = -92						; size = 4
tv88 = -88						; size = 4
tv519 = -84						; size = 4
_range$3 = -80						; size = 4
_maxAlt$ = -76						; size = 4
_rx_t$4 = -72						; size = 4
_target$ = -68						; size = 4
_xft$5 = -64						; size = 4
_minAlt$ = -60						; size = 4
_radarData$ = -56					; size = 4
_el$ = -52						; size = 4
_yft$6 = -48						; size = 4
_radar$7 = -44						; size = 4
_zft$8 = -40						; size = 4
_auxData$ = -36						; size = 4
_wc$ = -32						; size = 4
_theMissile$ = -28					; size = 4
_BUMP$ = -24						; size = 4
_this$ = -20						; size = 4
_collPoint$9 = -16					; size = 12
__$ArrayPad$ = -4					; size = 4
?MissileTrack@GroundClass@@QAEHXZ PROC			; GroundClass::MissileTrack
; _this$ = ecx

; 690  : {

	push	ebp
	mov	ebp, esp
	sub	esp, 180				; 000000b4H
	mov	eax, DWORD PTR ___security_cookie
	xor	eax, ebp
	mov	DWORD PTR __$ArrayPad$[ebp], eax
	push	esi
	mov	DWORD PTR _this$[ebp], ecx

; 691  : 	float				zft;
; 692  : 	float				az, el;
; 693  : 	FalconEntity		*target;
; 694  : 	MissileClass		*theMissile;
; 695  : 	WeaponClassDataType	*wc;
; 696  : 	float				minAlt, maxAlt;
; 697  : 
; 698  : 	theMissile = (MissileClass*)Sms->GetCurrentWeapon();

	mov	eax, DWORD PTR _this$[ebp]
	mov	ecx, DWORD PTR [eax+780]
	mov	edx, DWORD PTR _this$[ebp]
	mov	eax, DWORD PTR [ecx]
	mov	ecx, DWORD PTR [edx+780]
	mov	edx, DWORD PTR [eax+12]
	call	edx
	mov	DWORD PTR _theMissile$[ebp], eax

; 699  : 
; 700  : 	ShiAssert( targetPtr );
; 701  : 	ShiAssert( theMissile );
; 702  : 	ShiAssert( theMissile->IsMissile() );
; 703  : 	RadarDataSet* radarData = &radarDatFileTable[GetCampaignObject()->GetRadarType()];

	mov	ecx, DWORD PTR _this$[ebp]
	call	?GetCampaignObject@SimBaseClass@@QAEPAVCampBaseClass@@XZ ; SimBaseClass::GetCampaignObject
	mov	DWORD PTR tv88[ebp], eax
	mov	eax, DWORD PTR tv88[ebp]
	mov	edx, DWORD PTR [eax]
	mov	ecx, DWORD PTR tv88[ebp]
	mov	eax, DWORD PTR [edx+292]
	call	eax
	imul	eax, 180				; 000000b4H
	add	eax, DWORD PTR ?radarDatFileTable@@3PAURadarDataSet@@A ; radarDatFileTable
	mov	DWORD PTR _radarData$[ebp], eax

; 704  : 
; 705  : 
; 706  : 	// We don't want to shoot missiles while we're on the move
; 707  : 	// TODO:  Would be nice to track "Set up" as a state and have some
; 708  : 	//        delay between stop of motion and ready to fire (several 
; 709  : 	//        minutes at least)
; 710  : 
; 711  : 	// RV - Biker - Think here is a problem
; 712  : 	// FRB - Increased VT = 1 to VT = 3, same as GMT threshold
; 713  : 	if (!isShip && (GetVt() > 3.0f && !g_bFireOntheMove))

	mov	ecx, DWORD PTR _this$[ebp]
	mov	edx, DWORD PTR [ecx+772]
	shr	edx, 9
	and	edx, 1
	jne	SHORT $LN31@MissileTra
	mov	eax, DWORD PTR _this$[ebp]
	mov	edx, DWORD PTR [eax]
	mov	ecx, DWORD PTR _this$[ebp]
	mov	eax, DWORD PTR [edx+220]
	call	eax
	fstp	DWORD PTR tv770[ebp]
	movss	xmm0, DWORD PTR tv770[ebp]
	comiss	xmm0, DWORD PTR __real@40400000
	jbe	SHORT $LN31@MissileTra
	movzx	ecx, BYTE PTR ?g_bFireOntheMove@@3_NA	; g_bFireOntheMove
	test	ecx, ecx
	jne	SHORT $LN31@MissileTra

; 714  : 		return FALSE;

	xor	eax, eax
	jmp	$LN32@MissileTra
$LN31@MissileTra:

; 715  : 
; 716  : 	// check for radar-guided missiles
; 717  : 	if (theMissile->sensorArray) {

	mov	edx, DWORD PTR _theMissile$[ebp]
	cmp	DWORD PTR [edx+648], 0
	je	$LN28@MissileTra

; 718  : 		switch ( theMissile->sensorArray[0]->Type() )

	mov	eax, 4
	imul	eax, 0
	mov	ecx, DWORD PTR _theMissile$[ebp]
	mov	edx, DWORD PTR [ecx+648]
	mov	ecx, DWORD PTR [edx+eax]
	call	?Type@SensorClass@@QAE?AW4SensorType@1@XZ ; SensorClass::Type
	mov	DWORD PTR tv156[ebp], eax
	cmp	DWORD PTR tv156[ebp], 0
	je	$LN21@MissileTra
	cmp	DWORD PTR tv156[ebp], 6
	je	SHORT $LN27@MissileTra
	jmp	$LN28@MissileTra
$LN27@MissileTra:

; 719  : 		{
; 720  : 		  case SensorClass::RadarHoming:
; 721  : 			{
; 722  : 				// Make sure this battalion at least has a radar assigned to it (though it could be dead)
; 723  : 				ShiAssert( GetCampaignObject()->GetRadarType() );
; 724  : 				
; 725  : 				// if we don't have a fire control radar, don't launch
; 726  : 				if ( !battalionFireControl)

	mov	eax, DWORD PTR _this$[ebp]
	cmp	DWORD PTR [eax+784], 0
	jne	SHORT $LN26@MissileTra

; 727  : 					return FALSE;

	xor	eax, eax
	jmp	$LN32@MissileTra
$LN26@MissileTra:

; 728  : 				
; 729  : 				// Shoot at our fire control radar's target
; 730  : 				// (Kinda annoying to go to the trouble of picking a target for this vehicle,
; 731  : 				// then ignoring the choice here, but oh well.)
; 732  : 				RadarClass *radar = (RadarClass*)FindSensor( battalionFireControl, SensorClass::Radar );

	push	1
	mov	ecx, DWORD PTR _this$[ebp]
	mov	edx, DWORD PTR [ecx+784]
	push	edx
	call	?FindSensor@@YAPAVSensorClass@@PAVSimMoverClass@@H@Z ; FindSensor
	add	esp, 8
	mov	DWORD PTR _radar$7[ebp], eax

; 733  : 				ShiAssert( radar );
; 734  : 				if(!radar->CurrentTarget() || targetPtr->BaseData() != radar->CurrentTarget()->BaseData())

	mov	ecx, DWORD PTR _radar$7[ebp]
	call	?CurrentTarget@SensorClass@@QAEPAVSimObjectType@@XZ ; SensorClass::CurrentTarget
	test	eax, eax
	je	SHORT $LN24@MissileTra
	mov	eax, DWORD PTR _this$[ebp]
	mov	ecx, DWORD PTR [eax+656]
	call	?BaseData@SimObjectType@@QAEPAVFalconEntity@@XZ ; SimObjectType::BaseData
	mov	esi, eax
	mov	ecx, DWORD PTR _radar$7[ebp]
	call	?CurrentTarget@SensorClass@@QAEPAVSimObjectType@@XZ ; SensorClass::CurrentTarget
	mov	ecx, eax
	call	?BaseData@SimObjectType@@QAEPAVFalconEntity@@XZ ; SimObjectType::BaseData
	cmp	esi, eax
	je	SHORT $LN25@MissileTra
$LN24@MissileTra:

; 735  : 					SetTarget( radar->CurrentTarget() );

	mov	ecx, DWORD PTR _radar$7[ebp]
	call	?CurrentTarget@SensorClass@@QAEPAVSimObjectType@@XZ ; SensorClass::CurrentTarget
	push	eax
	mov	ecx, DWORD PTR _this$[ebp]
	call	?SetTarget@SimMoverClass@@QAEXPAVSimObjectType@@@Z ; SimMoverClass::SetTarget
$LN25@MissileTra:

; 736  : 
; 737  : // ADDED BY S.G. SO SAM DO NOT NORMALLY FIRE WHEN JAMMED. DEPENDING ON THE SKILL, THEY MIGHT FIRE THOUGH
; 738  : 				if (radar->CurrentTarget() && radar->CurrentTarget()->localData->sensorState[SensorClass::Radar] != SensorClass::SensorTrack && (rand() % 1000 >= (4 - gai->skillLevel) * (4 - gai->skillLevel) * 10))

	mov	ecx, DWORD PTR _radar$7[ebp]
	call	?CurrentTarget@SensorClass@@QAEPAVSimObjectType@@XZ ; SensorClass::CurrentTarget
	test	eax, eax
	je	SHORT $LN23@MissileTra
	mov	ecx, DWORD PTR _radar$7[ebp]
	call	?CurrentTarget@SensorClass@@QAEPAVSimObjectType@@XZ ; SensorClass::CurrentTarget
	mov	ecx, DWORD PTR [eax+12]
	mov	edx, 4
	shl	edx, 0
	cmp	DWORD PTR [ecx+edx+192], 3
	je	SHORT $LN23@MissileTra
	call	_rand
	cdq
	mov	ecx, 1000				; 000003e8H
	idiv	ecx
	mov	eax, DWORD PTR _this$[ebp]
	mov	ecx, DWORD PTR [eax+744]
	mov	eax, 4
	sub	eax, DWORD PTR [ecx+104]
	mov	ecx, DWORD PTR _this$[ebp]
	mov	ecx, DWORD PTR [ecx+744]
	mov	esi, 4
	sub	esi, DWORD PTR [ecx+104]
	imul	eax, esi
	imul	eax, 10					; 0000000aH
	cmp	edx, eax
	jl	SHORT $LN23@MissileTra

; 739  : 					return FALSE;

	xor	eax, eax
	jmp	$LN32@MissileTra
$LN23@MissileTra:

; 740  : // END OF ADDED SECTION				
; 741  : 
; 742  : 				// Make sure we still have a target after all the above contortions
; 743  : 				if ( !targetPtr )

	mov	edx, DWORD PTR _this$[ebp]
	cmp	DWORD PTR [edx+656], 0
	jne	SHORT $LN22@MissileTra

; 744  : 					return FALSE;

	xor	eax, eax
	jmp	$LN32@MissileTra
$LN22@MissileTra:

; 745  : 			}
; 746  : 			break;

	jmp	SHORT $LN28@MissileTra
$LN21@MissileTra:

; 747  : 			
; 748  : 		  case SensorClass::IRST:
; 749  : 			{
; 750  : 				// Don't launch until the seeker sees the target
; 751  : 				theMissile->SetPosition( XPos(), YPos(), ZPos() );

	mov	ecx, DWORD PTR _this$[ebp]
	call	?ZPos@VuEntity@@QBEMXZ			; VuEntity::ZPos
	push	ecx
	fstp	DWORD PTR [esp]
	mov	ecx, DWORD PTR _this$[ebp]
	call	?YPos@VuEntity@@QBEMXZ			; VuEntity::YPos
	push	ecx
	fstp	DWORD PTR [esp]
	mov	ecx, DWORD PTR _this$[ebp]
	call	?XPos@VuEntity@@QBEMXZ			; VuEntity::XPos
	push	ecx
	fstp	DWORD PTR [esp]
	mov	ecx, DWORD PTR _theMissile$[ebp]
	call	?SetPosition@VuEntity@@QAEXMMM@Z	; VuEntity::SetPosition

; 752  : 				if ( !((IrstClass*)theMissile->sensorArray[0])->CanDetectObject( targetPtr ) )

	mov	eax, DWORD PTR _this$[ebp]
	mov	ecx, DWORD PTR [eax+656]
	push	ecx
	mov	edx, 4
	imul	edx, 0
	mov	eax, DWORD PTR _theMissile$[ebp]
	mov	ecx, DWORD PTR [eax+648]
	mov	ecx, DWORD PTR [ecx+edx]
	call	?CanDetectObject@IrstClass@@QAEHPAVSimObjectType@@@Z ; IrstClass::CanDetectObject
	test	eax, eax
	jne	SHORT $LN20@MissileTra

; 753  : 				{
; 754  : 					return FALSE;

	xor	eax, eax
	jmp	$LN32@MissileTra
$LN20@MissileTra:
$LN28@MissileTra:

; 755  : 				}
; 756  : 			}
; 757  : 			break;
; 758  : 		}
; 759  : 	}
; 760  : 	
; 761  : 	// get target entity
; 762  : 	target = targetPtr->BaseData();

	mov	edx, DWORD PTR _this$[ebp]
	mov	ecx, DWORD PTR [edx+656]
	call	?BaseData@SimObjectType@@QAEPAVFalconEntity@@XZ ; SimObjectType::BaseData
	mov	DWORD PTR _target$[ebp], eax

; 763  : 	ShiAssert( target );
; 764  : 
; 765  : 
; 766  : 
; 767  : 	
; 768  : 	if (radarData->AverageSpeed)//me123

	mov	eax, DWORD PTR _radarData$[ebp]
	cmp	DWORD PTR [eax+144], 0
	je	$LN19@MissileTra

; 769  : 	{
; 770  : 	vector collPoint;
; 771  : 	FindCollisionPoint ((SimBaseClass*)targetPtr->BaseData(), (SimVehicleClass*)this, &collPoint, radarData->AverageSpeed*NM_TO_FT);

	mov	ecx, DWORD PTR _radarData$[ebp]
	cvtsi2ss xmm0, DWORD PTR [ecx+144]
	mulss	xmm0, DWORD PTR __real@45bde1b0
	push	ecx
	movss	DWORD PTR [esp], xmm0
	lea	edx, DWORD PTR _collPoint$9[ebp]
	push	edx
	mov	eax, DWORD PTR _this$[ebp]
	push	eax
	mov	ecx, DWORD PTR _this$[ebp]
	mov	ecx, DWORD PTR [ecx+656]
	call	?BaseData@SimObjectType@@QAEPAVFalconEntity@@XZ ; SimObjectType::BaseData
	push	eax
	call	?FindCollisionPoint@@YAHPAVSimBaseClass@@0PAUvector@@M@Z ; FindCollisionPoint
	add	esp, 16					; 00000010H

; 772  : 	float xft,yft,zft,rx_t;
; 773  : 	float range;
; 774  : 	FalconEntity* theObject;
; 775  : 	mlTrig	psi;
; 776  : 
; 777  : 	theObject = targetPtr->BaseData();

	mov	edx, DWORD PTR _this$[ebp]
	mov	ecx, DWORD PTR [edx+656]
	call	?BaseData@SimObjectType@@QAEPAVFalconEntity@@XZ ; SimObjectType::BaseData
	mov	DWORD PTR _theObject$2[ebp], eax

; 778  : 
; 779  : 	xft = collPoint.x - this->XPos();

	mov	ecx, DWORD PTR _this$[ebp]
	call	?XPos@VuEntity@@QBEMXZ			; VuEntity::XPos
	fstp	DWORD PTR tv835[ebp]
	movss	xmm0, DWORD PTR _collPoint$9[ebp]
	subss	xmm0, DWORD PTR tv835[ebp]
	movss	DWORD PTR _xft$5[ebp], xmm0

; 780  : 	yft = collPoint.y - this->YPos();

	mov	ecx, DWORD PTR _this$[ebp]
	call	?YPos@VuEntity@@QBEMXZ			; VuEntity::YPos
	fstp	DWORD PTR tv840[ebp]
	movss	xmm0, DWORD PTR _collPoint$9[ebp+4]
	subss	xmm0, DWORD PTR tv840[ebp]
	movss	DWORD PTR _yft$6[ebp], xmm0

; 781  : 	zft = collPoint.z - this->ZPos();

	mov	ecx, DWORD PTR _this$[ebp]
	call	?ZPos@VuEntity@@QBEMXZ			; VuEntity::ZPos
	fstp	DWORD PTR tv845[ebp]
	movss	xmm0, DWORD PTR _collPoint$9[ebp+8]
	subss	xmm0, DWORD PTR tv845[ebp]
	movss	DWORD PTR _zft$8[ebp], xmm0

; 782  : 	
; 783  : 	// This is the only place CalcTransformMatrix() happens (other than Init()) for 
; 784  : 	// ground vehicles, I think. It's quite possible we can do away with it entirely,
; 785  : 	// as Ed isn't using it anywhere any how.
; 786  : 	// CalcTransformMatrix();
; 787  : 	
; 788  : 	mlSinCos (&psi, theObject->Yaw());

	mov	ecx, DWORD PTR _theObject$2[ebp]
	call	?Yaw@VuEntity@@QBEMXZ			; VuEntity::Yaw
	push	ecx
	fstp	DWORD PTR [esp]
	lea	eax, DWORD PTR _psi$1[ebp]
	push	eax
	call	?mlSinCos@@YAXPAUmlTrig@@M@Z		; mlSinCos
	add	esp, 8

; 789  : 	rx_t = -(psi.cos*xft + psi.sin*yft);

	movss	xmm0, DWORD PTR _psi$1[ebp+4]
	mulss	xmm0, DWORD PTR _xft$5[ebp]
	movss	xmm1, DWORD PTR _psi$1[ebp]
	mulss	xmm1, DWORD PTR _yft$6[ebp]
	addss	xmm0, xmm1
	xorps	xmm0, DWORD PTR __xmm@80000000800000008000000080000000
	movss	DWORD PTR _rx_t$4[ebp], xmm0

; 790  : 
; 791  : 	range = (float)(xft*xft + yft*yft + zft*zft);

	movss	xmm0, DWORD PTR _xft$5[ebp]
	mulss	xmm0, DWORD PTR _xft$5[ebp]
	movss	xmm1, DWORD PTR _yft$6[ebp]
	mulss	xmm1, DWORD PTR _yft$6[ebp]
	addss	xmm0, xmm1
	movss	xmm1, DWORD PTR _zft$8[ebp]
	mulss	xmm1, DWORD PTR _zft$8[ebp]
	addss	xmm0, xmm1
	movss	DWORD PTR _range$3[ebp], xmm0

; 792  : 
; 793  : 	targetPtr->localData->range	= (float)sqrt(range);

	push	ecx
	movss	xmm0, DWORD PTR _range$3[ebp]
	movss	DWORD PTR [esp], xmm0
	call	?SqrtSSE@@YAMM@Z			; SqrtSSE
	add	esp, 4
	mov	ecx, DWORD PTR _this$[ebp]
	mov	edx, DWORD PTR [ecx+656]
	mov	eax, DWORD PTR [edx+12]
	fstp	DWORD PTR [eax+44]

; 794  : 	targetPtr->localData->ataFrom	= (float)atan2(sqrt(range-rx_t*rx_t),rx_t);

	cvtss2sd xmm0, DWORD PTR _rx_t$4[ebp]
	sub	esp, 8
	movsd	QWORD PTR [esp], xmm0
	movss	xmm0, DWORD PTR _rx_t$4[ebp]
	mulss	xmm0, DWORD PTR _rx_t$4[ebp]
	movss	xmm1, DWORD PTR _range$3[ebp]
	subss	xmm1, xmm0
	push	ecx
	movss	DWORD PTR [esp], xmm1
	call	?SqrtSSE@@YAMM@Z			; SqrtSSE
	add	esp, -4					; fffffffcH
	fstp	QWORD PTR [esp]
	call	?checked_atan2@@YANNN@Z			; checked_atan2
	add	esp, 16					; 00000010H
	fstp	DWORD PTR tv874[ebp]
	fld	DWORD PTR tv874[ebp]
	mov	ecx, DWORD PTR _this$[ebp]
	mov	edx, DWORD PTR [ecx+656]
	mov	eax, DWORD PTR [edx+12]
	fstp	DWORD PTR [eax+4]

; 795  : 	targetPtr->localData->az		= (float)atan2(yft,xft);

	cvtss2sd xmm0, DWORD PTR _xft$5[ebp]
	sub	esp, 8
	movsd	QWORD PTR [esp], xmm0
	cvtss2sd xmm0, DWORD PTR _yft$6[ebp]
	sub	esp, 8
	movsd	QWORD PTR [esp], xmm0
	call	?checked_atan2@@YANNN@Z			; checked_atan2
	add	esp, 16					; 00000010H
	fstp	DWORD PTR tv880[ebp]
	fld	DWORD PTR tv880[ebp]
	mov	ecx, DWORD PTR _this$[ebp]
	mov	edx, DWORD PTR [ecx+656]
	mov	eax, DWORD PTR [edx+12]
	fstp	DWORD PTR [eax+16]

; 796  : 	targetPtr->localData->el		= (float)atan2(-zft,sqrt(range-zft*zft));

	movss	xmm0, DWORD PTR _zft$8[ebp]
	mulss	xmm0, DWORD PTR _zft$8[ebp]
	movss	xmm1, DWORD PTR _range$3[ebp]
	subss	xmm1, xmm0
	push	ecx
	movss	DWORD PTR [esp], xmm1
	call	?SqrtSSE@@YAMM@Z			; SqrtSSE
	add	esp, -4					; fffffffcH
	fstp	QWORD PTR [esp]
	movss	xmm0, DWORD PTR _zft$8[ebp]
	xorps	xmm0, DWORD PTR __xmm@80000000800000008000000080000000
	cvtss2sd xmm0, xmm0
	sub	esp, 8
	movsd	QWORD PTR [esp], xmm0
	call	?checked_atan2@@YANNN@Z			; checked_atan2
	add	esp, 16					; 00000010H
	fstp	DWORD PTR tv894[ebp]
	fld	DWORD PTR tv894[ebp]
	mov	ecx, DWORD PTR _this$[ebp]
	mov	edx, DWORD PTR [ecx+656]
	mov	eax, DWORD PTR [edx+12]
	fstp	DWORD PTR [eax+28]

; 797  : 	}
; 798  : 	else 	// KCK: Do our ground version of CalcRelGeometry to get needed info

	jmp	SHORT $LN18@MissileTra
$LN19@MissileTra:

; 799  : 	CalcRelAzElRangeAta (this, targetPtr);

	mov	ecx, DWORD PTR _this$[ebp]
	mov	edx, DWORD PTR [ecx+656]
	push	edx
	mov	eax, DWORD PTR _this$[ebp]
	push	eax
	call	?CalcRelAzElRangeAta@@YAXPAVSimBaseClass@@PAVSimObjectType@@@Z ; CalcRelAzElRangeAta
	add	esp, 8
$LN18@MissileTra:

; 800  : 	// edg: get real range.  Since we don't update targets every frame
; 801  : 	// anymore, we should get a current range for more accuracy
; 802  : 	// KCK: all but zft are calculated in the CalRelAzElRangeAta function, so this doesn't
; 803  : 	// need to be done anymore
; 804  : //	xft = target->XPos() - XPos();
; 805  : //	yft = target->YPos() - YPos();
; 806  : 	zft = target->ZPos() - ZPos();

	mov	ecx, DWORD PTR _target$[ebp]
	call	?ZPos@VuEntity@@QBEMXZ			; VuEntity::ZPos
	fstp	DWORD PTR tv901[ebp]
	movss	xmm0, DWORD PTR tv901[ebp]
	mov	ecx, DWORD PTR _this$[ebp]
	movss	DWORD PTR tv1014[ebp], xmm0
	call	?ZPos@VuEntity@@QBEMXZ			; VuEntity::ZPos
	fstp	DWORD PTR tv905[ebp]
	movss	xmm0, DWORD PTR tv1014[ebp]
	subss	xmm0, DWORD PTR tv905[ebp]
	movss	DWORD PTR _zft$[ebp], xmm0

; 807  : //	realRange = sqrt( xft * xft + yft * yft + zft * zft );
; 808  : 
; 809  : 	wc = theMissile->GetWCD(); // MLR

	mov	ecx, DWORD PTR _theMissile$[ebp]
	call	?GetWCD@SimWeaponClass@@QAEPAUWeaponClassDataType@@XZ ; SimWeaponClass::GetWCD
	mov	DWORD PTR _wc$[ebp], eax

; 810  : 	//wc = &WeaponDataTable[Sms->hardPoint[Sms->CurHardpoint()]->weaponId];
; 811  : 	
; 812  : 	// 2002-03-08 ADDED BY S.G. Will use the new missile auxiliary data file for MinEngagementAlt and MinEngagementRange
; 813  : 	SimWeaponDataType* wpnDefinition = &SimWeaponDataTable[Falcon4ClassTable[wc->Index].vehicleDataIndex];

	mov	ecx, DWORD PTR _wc$[ebp]
	movsx	edx, WORD PTR [ecx]
	imul	edx, 81					; 00000051H
	mov	eax, DWORD PTR ?Falcon4ClassTable@@3PAUFalcon4EntityClassType@@A ; Falcon4ClassTable
	movsx	ecx, WORD PTR [eax+edx+74]
	imul	ecx, 52					; 00000034H
	add	ecx, DWORD PTR ?SimWeaponDataTable@@3PAUSimWeaponDataType@@A ; SimWeaponDataTable
	mov	DWORD PTR _wpnDefinition$[ebp], ecx

; 814  : 	MissileAuxData *auxData = NULL;

	mov	DWORD PTR _auxData$[ebp], 0

; 815  : 	if (wpnDefinition->dataIdx < numMissileDatasets)

	mov	edx, DWORD PTR _wpnDefinition$[ebp]
	mov	eax, DWORD PTR [edx+48]
	cmp	eax, DWORD PTR ?numMissileDatasets@@3HA	; numMissileDatasets
	jge	SHORT $LN17@MissileTra

; 816  : 		auxData = missileDataset[wpnDefinition->dataIdx].auxData;

	mov	ecx, DWORD PTR _wpnDefinition$[ebp]
	mov	edx, DWORD PTR [ecx+48]
	imul	edx, 100				; 00000064H
	mov	eax, DWORD PTR ?missileDataset@@3PAVMissileDataSetClass@@A ; missileDataset
	mov	ecx, DWORD PTR [eax+edx+96]
	mov	DWORD PTR _auxData$[ebp], ecx
$LN17@MissileTra:

; 817  : 	// END OF ADDED SECTION 2002-03-08
; 818  : 
; 819  : 	// edg: wc->maxAlt is a value in the range of 0 - 100
; 820  : 	// I'm going to assume:
; 821  : 	//		1) 100 is equivalent to 100000 ft
; 822  : 	//		2) 0 has no air capability
; 823  : 	//		3) not 0 has no surf-surf capability
; 824  : 	maxAlt = -1000.0f * wc->MaxAlt;

	mov	edx, DWORD PTR _wc$[ebp]
	movsx	eax, BYTE PTR [edx+58]
	cvtsi2ss xmm0, eax
	mulss	xmm0, DWORD PTR __real@c47a0000
	movss	DWORD PTR _maxAlt$[ebp], xmm0

; 825  : // 2001-02-18 MODIFIED BY S.G. SO minAlt IS NO LONGER BASED ON maxAlt
; 826  : //  minAlt = max(-1500.0F, maxAlt * 0.1f);
; 827  : //	minAlt = (float)(wc->Name[18]) * -32.0F;
; 828  : // 2002-02-26 MN the radar data now decides on that
; 829  : // 2002-03-09 MN mea culpa - minAlt above put back in - this makes is weapon dependant !!
; 830  : 	//	minAlt = (float)-(radarData->MinEngagementAlt);
; 831  : // 2002-03-09 MODIFIED BY S.G. Uses the new missile auxiliary data file instead of the radar file so it's more granular
; 832  : 	if (auxData)

	cmp	DWORD PTR _auxData$[ebp], 0
	je	SHORT $LN16@MissileTra

; 833  : 		minAlt = (float)-auxData->MinEngagementAlt;

	mov	ecx, DWORD PTR _auxData$[ebp]
	movss	xmm0, DWORD PTR [ecx+28]
	xorps	xmm0, DWORD PTR __xmm@80000000800000008000000080000000
	movss	DWORD PTR _minAlt$[ebp], xmm0

; 834  : 	else

	jmp	SHORT $LN15@MissileTra
$LN16@MissileTra:

; 835  : 		minAlt = 1.0f; // Because I do a '-' in front of the previous statement, I need to make it 1.0 instead of -1.0

	movss	xmm0, DWORD PTR __real@3f800000
	movss	DWORD PTR _minAlt$[ebp], xmm0
$LN15@MissileTra:

; 836  : 
; 837  : 	// If we haven't entered the MinEngagementAlt yet, use the one in the Falcon4.WCD file
; 838  : 	if (minAlt > 0.0f)

	movss	xmm0, DWORD PTR _minAlt$[ebp]
	comiss	xmm0, DWORD PTR __real@00000000
	jbe	SHORT $LN14@MissileTra

; 839  : 		minAlt = (float)(wc->Name[18]) * -32.0F;

	mov	edx, 1
	imul	edx, 18					; 00000012H
	mov	eax, DWORD PTR _wc$[ebp]
	movsx	ecx, BYTE PTR [eax+edx+12]
	cvtsi2ss xmm0, ecx
	mulss	xmm0, DWORD PTR __real@c2000000
	movss	DWORD PTR _minAlt$[ebp], xmm0
$LN14@MissileTra:

; 840  : 
; 841  : 	if (!target->OnGround() )

	mov	edx, DWORD PTR _target$[ebp]
	mov	eax, DWORD PTR [edx]
	mov	ecx, DWORD PTR _target$[ebp]
	mov	edx, DWORD PTR [eax+148]
	call	edx
	test	eax, eax
	jne	$LN13@MissileTra

; 842  : 	{
; 843  : 		if ( maxAlt == 0.0f )

	movss	xmm0, DWORD PTR _maxAlt$[ebp]
	ucomiss	xmm0, DWORD PTR __real@00000000
	lahf
	test	ah, 68					; 00000044H
	jp	SHORT $LN12@MissileTra

; 844  : 			return FALSE;

	xor	eax, eax
	jmp	$LN32@MissileTra
$LN12@MissileTra:

; 845  : 
; 846  : 		// edg: I'm leaving these in for now, however this should all be
; 847  : 		// moved into weapon selection.  I've commented them out in guns.
; 848  : 		if (zft < maxAlt || zft > minAlt)

	movss	xmm0, DWORD PTR _maxAlt$[ebp]
	comiss	xmm0, DWORD PTR _zft$[ebp]
	ja	SHORT $LN10@MissileTra
	movss	xmm0, DWORD PTR _zft$[ebp]
	comiss	xmm0, DWORD PTR _minAlt$[ebp]
	jbe	SHORT $LN11@MissileTra
$LN10@MissileTra:

; 849  : 			return FALSE;

	xor	eax, eax
	jmp	$LN32@MissileTra
$LN11@MissileTra:

; 850  : //		if (targetPtr->localData->range > wc->Range*KM_TO_FT /*|| targetPtr->localData->range < wc->Range*KM_TO_FT*0.1F */)
; 851  : //			return FALSE;
; 852  : 		if (targetPtr->localData->range > theMissile->GetRMax(-target->ZPos(), 0, 
; 853  : 			targetPtr->localData->az, targetPtr->BaseData()->GetVt(), targetPtr->localData->ataFrom))

	mov	eax, DWORD PTR _this$[ebp]
	mov	ecx, DWORD PTR [eax+656]
	call	?BaseData@SimObjectType@@QAEPAVFalconEntity@@XZ ; SimObjectType::BaseData
	mov	DWORD PTR tv519[ebp], eax
	mov	ecx, DWORD PTR _this$[ebp]
	mov	edx, DWORD PTR [ecx+656]
	mov	eax, DWORD PTR [edx+12]
	push	ecx
	movss	xmm0, DWORD PTR [eax+4]
	movss	DWORD PTR [esp], xmm0
	mov	ecx, DWORD PTR tv519[ebp]
	mov	edx, DWORD PTR [ecx]
	mov	ecx, DWORD PTR tv519[ebp]
	mov	eax, DWORD PTR [edx+220]
	call	eax
	push	ecx
	fstp	DWORD PTR [esp]
	mov	ecx, DWORD PTR _this$[ebp]
	mov	edx, DWORD PTR [ecx+656]
	mov	eax, DWORD PTR [edx+12]
	push	ecx
	movss	xmm0, DWORD PTR [eax+16]
	movss	DWORD PTR [esp], xmm0
	push	ecx
	movss	xmm0, DWORD PTR __real@00000000
	movss	DWORD PTR [esp], xmm0
	mov	ecx, DWORD PTR _target$[ebp]
	call	?ZPos@VuEntity@@QBEMXZ			; VuEntity::ZPos
	fstp	DWORD PTR tv944[ebp]
	movss	xmm0, DWORD PTR tv944[ebp]
	xorps	xmm0, DWORD PTR __xmm@80000000800000008000000080000000
	push	ecx
	movss	DWORD PTR [esp], xmm0
	mov	ecx, DWORD PTR _theMissile$[ebp]
	call	?GetRMax@MissileClass@@QAEMMMMMM@Z	; MissileClass::GetRMax
	fstp	DWORD PTR tv957[ebp]
	mov	ecx, DWORD PTR _this$[ebp]
	mov	edx, DWORD PTR [ecx+656]
	mov	eax, DWORD PTR [edx+12]
	movss	xmm0, DWORD PTR [eax+44]
	comiss	xmm0, DWORD PTR tv957[ebp]
	jbe	SHORT $LN9@MissileTra

; 854  : 			return FALSE;

	xor	eax, eax
	jmp	$LN32@MissileTra
$LN9@MissileTra:

; 855  : 
; 856  : 		if (auxData)

	cmp	DWORD PTR _auxData$[ebp], 0
	je	SHORT $LN7@MissileTra

; 857  : 		{
; 858  : 			if(targetPtr->localData->range < auxData->MinEngagementRange) // 2002-03-09 MODIFIED BY S.G. Uses the MISSILES data file, more granular than the radar data file

	mov	ecx, DWORD PTR _this$[ebp]
	mov	edx, DWORD PTR [ecx+656]
	mov	eax, DWORD PTR [edx+12]
	mov	ecx, DWORD PTR _auxData$[ebp]
	movss	xmm0, DWORD PTR [ecx+24]
	comiss	xmm0, DWORD PTR [eax+44]
	jbe	SHORT $LN7@MissileTra

; 859  : 			return FALSE;

	xor	eax, eax
	jmp	$LN32@MissileTra
$LN7@MissileTra:

; 860  : 		}
; 861  : 
; 862  : // SCR 11/20/98  Lets let the seeker and kinematics deal with this...
; 863  : /*
; 864  : 		// Check for aspect (KCK WARNING: This assumes ataFrom is -PI to PI, not 0 to 2*PI
; 865  : 		if (wc->Flags & WEAP_FRONT_ASPECT && fabs(targetPtr->localData->ataFrom) > 90*DTR)
; 866  : 			return FALSE;
; 867  : 		if (wc->Flags & WEAP_REAR_ASPECT && fabs(targetPtr->localData->ataFrom) < 90*DTR)
; 868  : 			return FALSE;
; 869  : */
; 870  : 	}

	jmp	SHORT $LN5@MissileTra
$LN13@MissileTra:

; 871  : 	// target on ground
; 872  : 	else if (maxAlt != 0.0f || targetPtr->localData->range > wc->Range*KM_TO_FT)

	movss	xmm0, DWORD PTR _maxAlt$[ebp]
	ucomiss	xmm0, DWORD PTR __real@00000000
	lahf
	test	ah, 68					; 00000044H
	jp	SHORT $LN4@MissileTra
	mov	edx, DWORD PTR _this$[ebp]
	mov	eax, DWORD PTR [edx+656]
	mov	ecx, DWORD PTR [eax+12]
	mov	edx, DWORD PTR _wc$[ebp]
	movsx	eax, WORD PTR [edx+8]
	cvtsi2ss xmm0, eax
	mulss	xmm0, DWORD PTR __real@454cffae
	movss	xmm1, DWORD PTR [ecx+44]
	comiss	xmm1, xmm0
	jbe	SHORT $LN5@MissileTra
$LN4@MissileTra:

; 873  : 		return FALSE;

	xor	eax, eax
	jmp	$LN32@MissileTra
$LN5@MissileTra:

; 874  : 
; 875  : 	// az and el are relative from our vehicles orientation so subtract
; 876  : 	// out yaw and pitch
; 877  : 	az = targetPtr->localData->az - Yaw();

	mov	ecx, DWORD PTR _this$[ebp]
	mov	edx, DWORD PTR [ecx+656]
	mov	esi, DWORD PTR [edx+12]
	mov	ecx, DWORD PTR _this$[ebp]
	call	?Yaw@VuEntity@@QBEMXZ			; VuEntity::Yaw
	fstp	DWORD PTR tv976[ebp]
	movss	xmm0, DWORD PTR [esi+16]
	subss	xmm0, DWORD PTR tv976[ebp]
	movss	DWORD PTR _az$[ebp], xmm0

; 878  : 	el = targetPtr->localData->el - Pitch();

	mov	eax, DWORD PTR _this$[ebp]
	mov	ecx, DWORD PTR [eax+656]
	mov	esi, DWORD PTR [ecx+12]
	mov	ecx, DWORD PTR _this$[ebp]
	call	?Pitch@VuEntity@@QBEMXZ			; VuEntity::Pitch
	fstp	DWORD PTR tv982[ebp]
	movss	xmm0, DWORD PTR [esi+28]
	subss	xmm0, DWORD PTR tv982[ebp]
	movss	DWORD PTR _el$[ebp], xmm0

; 879  : 
; 880  : 	// Bump up elevation to account for gravity, etc.
; 881  : /*	static const float BUMP_AMOUNT = 30.0f*DTR;
; 882  : 	if (el < 45.0f*DTR - BUMP_AMOUNT) {
; 883  : 		el = 45.0f*DTR;
; 884  : 	}
; 885  : 	else if (el < 60.0f*DTR)
; 886  : 	{
; 887  : 		el += BUMP_AMOUNT;
; 888  : 	}*/
; 889  : 
; 890  : 	//static const float BUMP_AMOUNT = 15.0f*DTR;
; 891  : 	//if (el < 45.0f*DTR) {
; 892  : 	float BUMP;
; 893  : 	if (	GetCampaignObject()		&&  // MLR 5/27/2004 - CTD ?
; 894  : 		 /*!((BattalionClass*)GetCampaignObject())->GetMissilesFlying())*/
; 895  : 		 //Cobra TJL 10/30/04
; 896  : 		 !GetCampaignObject()->GetMissilesFlying()){

	mov	ecx, DWORD PTR _this$[ebp]
	call	?GetCampaignObject@SimBaseClass@@QAEPAVCampBaseClass@@XZ ; SimBaseClass::GetCampaignObject
	test	eax, eax
	je	SHORT $LN3@MissileTra
	mov	ecx, DWORD PTR _this$[ebp]
	call	?GetCampaignObject@SimBaseClass@@QAEPAVCampBaseClass@@XZ ; SimBaseClass::GetCampaignObject
	mov	DWORD PTR tv607[ebp], eax
	mov	edx, DWORD PTR tv607[ebp]
	mov	eax, DWORD PTR [edx]
	mov	ecx, DWORD PTR tv607[ebp]
	mov	edx, DWORD PTR [eax+448]
	call	edx
	test	eax, eax
	jne	SHORT $LN3@MissileTra

; 897  : 
; 898  : 		BUMP = static_cast<float>(radarData->Elevationbumpamounta);

	mov	eax, DWORD PTR _radarData$[ebp]
	cvtsi2ss xmm0, DWORD PTR [eax+136]
	movss	DWORD PTR _BUMP$[ebp], xmm0

; 899  : 	}
; 900  : 	else {

	jmp	SHORT $LN2@MissileTra
$LN3@MissileTra:

; 901  : 		BUMP = static_cast<float>(radarData->Elevationbumpamountb);

	mov	ecx, DWORD PTR _radarData$[ebp]
	cvtsi2ss xmm0, DWORD PTR [ecx+140]
	movss	DWORD PTR _BUMP$[ebp], xmm0
$LN2@MissileTra:

; 902  : 	}
; 903  : 	if (BUMP > 90) BUMP = (BUMP -90) * -1.0f;

	movss	xmm0, DWORD PTR _BUMP$[ebp]
	comiss	xmm0, DWORD PTR __real@42b40000
	jbe	SHORT $LN1@MissileTra
	movss	xmm0, DWORD PTR _BUMP$[ebp]
	subss	xmm0, DWORD PTR __real@42b40000
	mulss	xmm0, DWORD PTR __real@bf800000
	movss	DWORD PTR _BUMP$[ebp], xmm0
$LN1@MissileTra:

; 904  : 	BUMP *= DTR;

	movss	xmm0, DWORD PTR _BUMP$[ebp]
	mulss	xmm0, DWORD PTR __real@3c8efa34
	movss	DWORD PTR _BUMP$[ebp], xmm0

; 905  : 		el = max(5.0F*DTR, el + targetPtr->localData->range/(wc->Range*KM_TO_FT)*BUMP);

	mov	edx, DWORD PTR _this$[ebp]
	mov	eax, DWORD PTR [edx+656]
	mov	ecx, DWORD PTR [eax+12]
	mov	edx, DWORD PTR _wc$[ebp]
	movsx	eax, WORD PTR [edx+8]
	cvtsi2ss xmm0, eax
	mulss	xmm0, DWORD PTR __real@454cffae
	movss	xmm1, DWORD PTR [ecx+44]
	divss	xmm1, xmm0
	mulss	xmm1, DWORD PTR _BUMP$[ebp]
	addss	xmm1, DWORD PTR _el$[ebp]
	movss	xmm0, DWORD PTR __real@3db2b8c1
	comiss	xmm0, xmm1
	jbe	SHORT $LN34@MissileTra
	movss	xmm0, DWORD PTR __real@3db2b8c1
	movss	DWORD PTR tv654[ebp], xmm0
	jmp	SHORT $LN35@MissileTra
$LN34@MissileTra:
	mov	ecx, DWORD PTR _this$[ebp]
	mov	edx, DWORD PTR [ecx+656]
	mov	eax, DWORD PTR [edx+12]
	mov	ecx, DWORD PTR _wc$[ebp]
	movsx	edx, WORD PTR [ecx+8]
	cvtsi2ss xmm0, edx
	mulss	xmm0, DWORD PTR __real@454cffae
	movss	xmm1, DWORD PTR [eax+44]
	divss	xmm1, xmm0
	mulss	xmm1, DWORD PTR _BUMP$[ebp]
	addss	xmm1, DWORD PTR _el$[ebp]
	movss	DWORD PTR tv654[ebp], xmm1
$LN35@MissileTra:
	movss	xmm0, DWORD PTR tv654[ebp]
	movss	DWORD PTR _el$[ebp], xmm0

; 906  : 	//}
; 907  : 
; 908  : 	// if we're within an acceptable tolerance, just snap to target and return TRUE,
; 909  : 	// otherwise, update our target data and keep rotating our DOFs
; 910  : 	/*
; 911  : 	** edg: I dunno about this.  It's fine in theory, however I think its
; 912  : 	** defeating the fire rate by also making them wait to get their turrets
; 913  : 	** around (and therefore surf-air not firing enough).  Just snap.
; 914  : 	** Also, I think there's a bug here in that at doesn't account for 360
; 915  : 	** deg wrap.
; 916  : 	*/
; 917  : #if 0
; 918  : 	if ( fabs(DOFData[0] - az) > 45*DTR )
; 919  : 		return FALSE;
; 920  : 	if ( fabs(DOFData[1] - el) > 45*DTR )
; 921  : 		return FALSE;
; 922  : #else
; 923  : 	SetDOF(AIRDEF_ELEV, el);

	push	ecx
	movss	xmm0, DWORD PTR _el$[ebp]
	movss	DWORD PTR [esp], xmm0
	push	1
	mov	ecx, DWORD PTR _this$[ebp]
	call	?SetDOF@SimMoverClass@@QAEXHM@Z		; SimMoverClass::SetDOF

; 924  : 	SetDOF(AIRDEF_AZIMUTH, az);

	push	ecx
	movss	xmm0, DWORD PTR _az$[ebp]
	movss	DWORD PTR [esp], xmm0
	push	0
	mov	ecx, DWORD PTR _this$[ebp]
	call	?SetDOF@SimMoverClass@@QAEXHM@Z		; SimMoverClass::SetDOF

; 925  : #endif
; 926  : 
; 927  : 	// Set the missile's target
; 928  : 	theMissile->SetTarget( targetPtr );

	mov	eax, DWORD PTR _this$[ebp]
	mov	ecx, DWORD PTR [eax+656]
	push	ecx
	mov	ecx, DWORD PTR _theMissile$[ebp]
	call	?SetTarget@MissileClass@@QAEXPAVSimObjectType@@@Z ; MissileClass::SetTarget

; 929  : 
; 930  : 	return TRUE;

	mov	eax, 1
$LN32@MissileTra:

; 931  : }

	pop	esi
	mov	ecx, DWORD PTR __$ArrayPad$[ebp]
	xor	ecx, ebp
	call	@__security_check_cookie@4
	mov	esp, ebp
	pop	ebp
	ret	0
?MissileTrack@GroundClass@@QAEHXZ ENDP			; GroundClass::MissileTrack
_TEXT	ENDS
; Function compile flags: /Odtp
; File c:\users\zhitao li\documents\visual studio 2012\projects\freefalcon\falclib\include\fakerand.h
;	COMDAT ?PRANDFloatPos@@YAMXZ
_TEXT	SEGMENT
tv72 = -8						; size = 4
_x$ = -4						; size = 4
?PRANDFloatPos@@YAMXZ PROC				; PRANDFloatPos, COMDAT

; 150  : {

	push	ebp
	mov	ebp, esp
	sub	esp, 8

; 151  : //	return NRANDPOS;
; 152  : 	float	x=	(float)(GenerateFastRandom()&0xffff);

	call	?GenerateFastRandom@@YAJXZ		; GenerateFastRandom
	and	eax, 65535				; 0000ffffH
	cvtsi2ss xmm0, eax
	movss	DWORD PTR _x$[ebp], xmm0

; 153  : 	return( x / 65535.0f);

	movss	xmm0, DWORD PTR _x$[ebp]
	divss	xmm0, DWORD PTR __real@477fff00
	movss	DWORD PTR tv72[ebp], xmm0
	fld	DWORD PTR tv72[ebp]

; 154  : }

	mov	esp, ebp
	pop	ebp
	ret	0
?PRANDFloatPos@@YAMXZ ENDP				; PRANDFloatPos
_TEXT	ENDS
; Function compile flags: /Odtp
; File c:\users\zhitao li\documents\visual studio 2012\projects\freefalcon\falclib\include\fakerand.h
;	COMDAT ?PRANDFloat@@YAMXZ
_TEXT	SEGMENT
tv75 = -8						; size = 4
_x$ = -4						; size = 4
?PRANDFloat@@YAMXZ PROC					; PRANDFloat, COMDAT

; 143  : {

	push	ebp
	mov	ebp, esp
	sub	esp, 8

; 144  : //	return NRAND;
; 145  : 	float	x=	(float)(GenerateFastRandom()&0xffff);

	call	?GenerateFastRandom@@YAJXZ		; GenerateFastRandom
	and	eax, 65535				; 0000ffffH
	cvtsi2ss xmm0, eax
	movss	DWORD PTR _x$[ebp], xmm0

; 146  : 	return( 1 - 2 * x / 65535.0f);

	movss	xmm0, DWORD PTR __real@40000000
	mulss	xmm0, DWORD PTR _x$[ebp]
	divss	xmm0, DWORD PTR __real@477fff00
	movss	xmm1, DWORD PTR __real@3f800000
	subss	xmm1, xmm0
	movss	DWORD PTR tv75[ebp], xmm1
	fld	DWORD PTR tv75[ebp]

; 147  : }

	mov	esp, ebp
	pop	ebp
	ret	0
?PRANDFloat@@YAMXZ ENDP					; PRANDFloat
_TEXT	ENDS
; Function compile flags: /Odtp
; File c:\users\zhitao li\documents\visual studio 2012\projects\freefalcon\falclib\include\fakerand.h
;	COMDAT ?GenerateFastRandom@@YAJXZ
_TEXT	SEGMENT
_FastRandom$ = -4					; size = 4
?GenerateFastRandom@@YAJXZ PROC				; GenerateFastRandom, COMDAT

; 108  : {

	push	ebp
	mov	ebp, esp
	push	ecx

; 109  : 	static long LastRandom;
; 110  : 	long	FastRandom;														// The Random Variable
; 111  : 	_asm {	
; 112  : 			push	edx

	push	edx

; 113  : 			push	eax

	push	eax

; 114  : 			RDTSC

	rdtsc

; 115  : 			add	DWORD PTR FastRandom,edx

	add	DWORD PTR _FastRandom$[ebp], edx

; 116  : 			xor	DWORD PTR FastRandom,eax

	xor	DWORD PTR _FastRandom$[ebp], eax

; 117  : 			mov	eax, DWORD PTR LastRandom

	mov	eax, DWORD PTR ?LastRandom@?1??GenerateFastRandom@@YAJXZ@4JA ; `GenerateFastRandom'::`2'::LastRandom

; 118  : 			add	DWORD PTR FastRandom,eax

	add	DWORD PTR _FastRandom$[ebp], eax

; 119  : 			add	DWORD PTR LastRandom,edx

	add	DWORD PTR ?LastRandom@?1??GenerateFastRandom@@YAJXZ@4JA, edx ; `GenerateFastRandom'::`2'::LastRandom

; 120  : 			pop	eax

	pop	eax

; 121  : 			pop	edx

	pop	edx

; 122  : 	}
; 123  : 	return(FastRandom);

	mov	eax, DWORD PTR _FastRandom$[ebp]

; 124  : }

	mov	esp, ebp
	pop	ebp
	ret	0
?GenerateFastRandom@@YAJXZ ENDP				; GenerateFastRandom
_TEXT	ENDS
; Function compile flags: /Odtp
; File c:\users\zhitao li\documents\visual studio 2012\projects\freefalcon\campaign\include\campbase.h
;	COMDAT ?GetComponents@CampBaseClass@@QBEPAVTailInsertList@@XZ
_TEXT	SEGMENT
_this$ = -4						; size = 4
?GetComponents@CampBaseClass@@QBEPAVTailInsertList@@XZ PROC ; CampBaseClass::GetComponents, COMDAT
; _this$ = ecx

; 141  : 	TailInsertList *GetComponents() const		{	return components; }

	push	ebp
	mov	ebp, esp
	push	ecx
	mov	DWORD PTR _this$[ebp], ecx
	mov	eax, DWORD PTR _this$[ebp]
	mov	eax, DWORD PTR [eax+160]
	mov	esp, ebp
	pop	ebp
	ret	0
?GetComponents@CampBaseClass@@QBEPAVTailInsertList@@XZ ENDP ; CampBaseClass::GetComponents
_TEXT	ENDS
; Function compile flags: /Odtp
; File c:\users\zhitao li\documents\visual studio 2012\projects\freefalcon\sim\include\object.h
;	COMDAT ?BaseData@SimObjectType@@QAEPAVFalconEntity@@XZ
_TEXT	SEGMENT
_this$ = -4						; size = 4
?BaseData@SimObjectType@@QAEPAVFalconEntity@@XZ PROC	; SimObjectType::BaseData, COMDAT
; _this$ = ecx

; 92   : 	FalconEntity* BaseData(void) { return baseData.get(); };

	push	ebp
	mov	ebp, esp
	push	ecx
	mov	DWORD PTR _this$[ebp], ecx
	mov	ecx, DWORD PTR _this$[ebp]
	call	?get@?$VuBin@VFalconEntity@@@@QBEPAVFalconEntity@@XZ ; VuBin<FalconEntity>::get
	mov	esp, ebp
	pop	ebp
	ret	0
?BaseData@SimObjectType@@QAEPAVFalconEntity@@XZ ENDP	; SimObjectType::BaseData
_TEXT	ENDS
; Function compile flags: /Odtp
;	COMDAT ??_G_System_error_category@std@@UAEPAXI@Z
_TEXT	SEGMENT
_this$ = -4						; size = 4
___flags$ = 8						; size = 4
??_G_System_error_category@std@@UAEPAXI@Z PROC		; std::_System_error_category::`scalar deleting destructor', COMDAT
; _this$ = ecx
	push	ebp
	mov	ebp, esp
	push	ecx
	mov	DWORD PTR _this$[ebp], ecx
	mov	ecx, DWORD PTR _this$[ebp]
	call	??1_System_error_category@std@@UAE@XZ
	mov	eax, DWORD PTR ___flags$[ebp]
	and	eax, 1
	je	SHORT $LN1@scalar
	mov	ecx, DWORD PTR _this$[ebp]
	push	ecx
	call	??3@YAXPAX@Z				; operator delete
	add	esp, 4
$LN1@scalar:
	mov	eax, DWORD PTR _this$[ebp]
	mov	esp, ebp
	pop	ebp
	ret	4
??_G_System_error_category@std@@UAEPAXI@Z ENDP		; std::_System_error_category::`scalar deleting destructor'
_TEXT	ENDS
; Function compile flags: /Odtp
;	COMDAT ??1_System_error_category@std@@UAE@XZ
_TEXT	SEGMENT
_this$ = -4						; size = 4
??1_System_error_category@std@@UAE@XZ PROC		; std::_System_error_category::~_System_error_category, COMDAT
; _this$ = ecx
	push	ebp
	mov	ebp, esp
	push	ecx
	mov	DWORD PTR _this$[ebp], ecx
	mov	ecx, DWORD PTR _this$[ebp]
	call	??1_Generic_error_category@std@@UAE@XZ
	mov	esp, ebp
	pop	ebp
	ret	0
??1_System_error_category@std@@UAE@XZ ENDP		; std::_System_error_category::~_System_error_category
_TEXT	ENDS
; Function compile flags: /Odtp
; File c:\program files (x86)\microsoft visual studio 11.0\vc\include\system_error
;	COMDAT ?default_error_condition@_System_error_category@std@@UBE?AVerror_condition@2@H@Z
_TEXT	SEGMENT
_this$ = -4						; size = 4
___$ReturnUdt$ = 8					; size = 4
__Errval$ = 12						; size = 4
?default_error_condition@_System_error_category@std@@UBE?AVerror_condition@2@H@Z PROC ; std::_System_error_category::default_error_condition, COMDAT
; _this$ = ecx

; 641  : 		{	// make error_condition for error code (generic if possible)

	push	ebp
	mov	ebp, esp
	push	ecx
	mov	DWORD PTR _this$[ebp], ecx

; 642  : 		if (_Syserror_map(_Errval))

	mov	eax, DWORD PTR __Errval$[ebp]
	push	eax
	call	?_Syserror_map@std@@YAPBDH@Z		; std::_Syserror_map
	add	esp, 4
	test	eax, eax
	je	SHORT $LN2@default_er

; 643  : 			return (error_condition(_Errval, generic_category()));

	call	?generic_category@std@@YAABVerror_category@1@XZ ; std::generic_category
	push	eax
	mov	ecx, DWORD PTR __Errval$[ebp]
	push	ecx
	mov	ecx, DWORD PTR ___$ReturnUdt$[ebp]
	call	??0error_condition@std@@QAE@HABVerror_category@1@@Z ; std::error_condition::error_condition
	mov	eax, DWORD PTR ___$ReturnUdt$[ebp]
	jmp	SHORT $LN3@default_er

; 644  : 		else

	jmp	SHORT $LN3@default_er
$LN2@default_er:

; 645  : 			return (error_condition(_Errval, system_category()));

	call	?system_category@std@@YAABVerror_category@1@XZ ; std::system_category
	push	eax
	mov	edx, DWORD PTR __Errval$[ebp]
	push	edx
	mov	ecx, DWORD PTR ___$ReturnUdt$[ebp]
	call	??0error_condition@std@@QAE@HABVerror_category@1@@Z ; std::error_condition::error_condition
	mov	eax, DWORD PTR ___$ReturnUdt$[ebp]
$LN3@default_er:

; 646  : 		}

	mov	esp, ebp
	pop	ebp
	ret	8
?default_error_condition@_System_error_category@std@@UBE?AVerror_condition@2@H@Z ENDP ; std::_System_error_category::default_error_condition
_TEXT	ENDS
; Function compile flags: /Odtp
; File c:\program files (x86)\microsoft visual studio 11.0\vc\include\system_error
;	COMDAT ?message@_System_error_category@std@@UBE?AV?$basic_string@DU?$char_traits@D@std@@V?$allocator@D@2@@2@H@Z
_TEXT	SEGMENT
_this$ = -16						; size = 4
$T1 = -12						; size = 4
tv69 = -8						; size = 4
__Name$ = -4						; size = 4
___$ReturnUdt$ = 8					; size = 4
__Errcode$ = 12						; size = 4
?message@_System_error_category@std@@UBE?AV?$basic_string@DU?$char_traits@D@std@@V?$allocator@D@2@@2@H@Z PROC ; std::_System_error_category::message, COMDAT
; _this$ = ecx

; 634  : 		{	// convert to name of error

	push	ebp
	mov	ebp, esp
	sub	esp, 16					; 00000010H
	mov	DWORD PTR _this$[ebp], ecx
	mov	DWORD PTR $T1[ebp], 0

; 635  : 		const char *_Name = _Winerror_map(_Errcode);

	mov	eax, DWORD PTR __Errcode$[ebp]
	push	eax
	call	?_Winerror_map@std@@YAPBDH@Z		; std::_Winerror_map
	add	esp, 4
	mov	DWORD PTR __Name$[ebp], eax

; 636  : 		return (string(_Name != 0 ? _Name : "unknown error"));

	cmp	DWORD PTR __Name$[ebp], 0
	je	SHORT $LN3@message
	mov	ecx, DWORD PTR __Name$[ebp]
	mov	DWORD PTR tv69[ebp], ecx
	jmp	SHORT $LN4@message
$LN3@message:
	mov	DWORD PTR tv69[ebp], OFFSET ??_C@_0O@BFJCFAAK@unknown?5error?$AA@
$LN4@message:
	mov	edx, DWORD PTR tv69[ebp]
	push	edx
	mov	ecx, DWORD PTR ___$ReturnUdt$[ebp]
	call	??0?$basic_string@DU?$char_traits@D@std@@V?$allocator@D@2@@std@@QAE@PBD@Z ; std::basic_string<char,std::char_traits<char>,std::allocator<char> >::basic_string<char,std::char_traits<char>,std::allocator<char> >
	mov	eax, DWORD PTR $T1[ebp]
	or	eax, 1
	mov	DWORD PTR $T1[ebp], eax
	mov	eax, DWORD PTR ___$ReturnUdt$[ebp]

; 637  : 		}

	mov	esp, ebp
	pop	ebp
	ret	8
?message@_System_error_category@std@@UBE?AV?$basic_string@DU?$char_traits@D@std@@V?$allocator@D@2@@2@H@Z ENDP ; std::_System_error_category::message
_TEXT	ENDS
; Function compile flags: /Odtp
; File c:\program files (x86)\microsoft visual studio 11.0\vc\include\system_error
;	COMDAT ?name@_System_error_category@std@@UBEPBDXZ
_TEXT	SEGMENT
_this$ = -4						; size = 4
?name@_System_error_category@std@@UBEPBDXZ PROC		; std::_System_error_category::name, COMDAT
; _this$ = ecx

; 629  : 		{	// get name of category

	push	ebp
	mov	ebp, esp
	push	ecx
	mov	DWORD PTR _this$[ebp], ecx

; 630  : 		return ("system");

	mov	eax, OFFSET ??_C@_06FHFOAHML@system?$AA@

; 631  : 		}

	mov	esp, ebp
	pop	ebp
	ret	0
?name@_System_error_category@std@@UBEPBDXZ ENDP		; std::_System_error_category::name
_TEXT	ENDS
; Function compile flags: /Odtp
; File c:\program files (x86)\microsoft visual studio 11.0\vc\include\system_error
;	COMDAT ??0_System_error_category@std@@QAE@XZ
_TEXT	SEGMENT
_this$ = -4						; size = 4
??0_System_error_category@std@@QAE@XZ PROC		; std::_System_error_category::_System_error_category, COMDAT
; _this$ = ecx

; 624  : 	_System_error_category()

	push	ebp
	mov	ebp, esp
	push	ecx
	mov	DWORD PTR _this$[ebp], ecx
	mov	ecx, DWORD PTR _this$[ebp]
	call	??0_Generic_error_category@std@@QAE@XZ	; std::_Generic_error_category::_Generic_error_category
	mov	eax, DWORD PTR _this$[ebp]
	mov	DWORD PTR [eax], OFFSET ??_7_System_error_category@std@@6B@

; 625  : 		{	// default constructor
; 626  : 		}

	mov	eax, DWORD PTR _this$[ebp]
	mov	esp, ebp
	pop	ebp
	ret	0
??0_System_error_category@std@@QAE@XZ ENDP		; std::_System_error_category::_System_error_category
_TEXT	ENDS
; Function compile flags: /Odtp
;	COMDAT ??_G_Iostream_error_category@std@@UAEPAXI@Z
_TEXT	SEGMENT
_this$ = -4						; size = 4
___flags$ = 8						; size = 4
??_G_Iostream_error_category@std@@UAEPAXI@Z PROC	; std::_Iostream_error_category::`scalar deleting destructor', COMDAT
; _this$ = ecx
	push	ebp
	mov	ebp, esp
	push	ecx
	mov	DWORD PTR _this$[ebp], ecx
	mov	ecx, DWORD PTR _this$[ebp]
	call	??1_Iostream_error_category@std@@UAE@XZ
	mov	eax, DWORD PTR ___flags$[ebp]
	and	eax, 1
	je	SHORT $LN1@scalar
	mov	ecx, DWORD PTR _this$[ebp]
	push	ecx
	call	??3@YAXPAX@Z				; operator delete
	add	esp, 4
$LN1@scalar:
	mov	eax, DWORD PTR _this$[ebp]
	mov	esp, ebp
	pop	ebp
	ret	4
??_G_Iostream_error_category@std@@UAEPAXI@Z ENDP	; std::_Iostream_error_category::`scalar deleting destructor'
_TEXT	ENDS
; Function compile flags: /Odtp
;	COMDAT ??1_Iostream_error_category@std@@UAE@XZ
_TEXT	SEGMENT
_this$ = -4						; size = 4
??1_Iostream_error_category@std@@UAE@XZ PROC		; std::_Iostream_error_category::~_Iostream_error_category, COMDAT
; _this$ = ecx
	push	ebp
	mov	ebp, esp
	push	ecx
	mov	DWORD PTR _this$[ebp], ecx
	mov	ecx, DWORD PTR _this$[ebp]
	call	??1_Generic_error_category@std@@UAE@XZ
	mov	esp, ebp
	pop	ebp
	ret	0
??1_Iostream_error_category@std@@UAE@XZ ENDP		; std::_Iostream_error_category::~_Iostream_error_category
_TEXT	ENDS
; Function compile flags: /Odtp
; File c:\program files (x86)\microsoft visual studio 11.0\vc\include\system_error
;	COMDAT ?message@_Iostream_error_category@std@@UBE?AV?$basic_string@DU?$char_traits@D@std@@V?$allocator@D@2@@2@H@Z
_TEXT	SEGMENT
_this$ = -8						; size = 4
$T1 = -4						; size = 4
___$ReturnUdt$ = 8					; size = 4
__Errcode$ = 12						; size = 4
?message@_Iostream_error_category@std@@UBE?AV?$basic_string@DU?$char_traits@D@std@@V?$allocator@D@2@@2@H@Z PROC ; std::_Iostream_error_category::message, COMDAT
; _this$ = ecx

; 611  : 		{	// convert to name of error

	push	ebp
	mov	ebp, esp
	sub	esp, 8
	mov	DWORD PTR _this$[ebp], ecx
	mov	DWORD PTR $T1[ebp], 0

; 612  : 		if (_Errcode == (int)io_errc::stream)

	cmp	DWORD PTR __Errcode$[ebp], 1
	jne	SHORT $LN2@message

; 613  : 			return ("iostream stream error");

	push	OFFSET ??_C@_0BG@PADBLCHM@iostream?5stream?5error?$AA@
	mov	ecx, DWORD PTR ___$ReturnUdt$[ebp]
	call	??0?$basic_string@DU?$char_traits@D@std@@V?$allocator@D@2@@std@@QAE@PBD@Z ; std::basic_string<char,std::char_traits<char>,std::allocator<char> >::basic_string<char,std::char_traits<char>,std::allocator<char> >
	mov	eax, DWORD PTR $T1[ebp]
	or	eax, 1
	mov	DWORD PTR $T1[ebp], eax
	mov	eax, DWORD PTR ___$ReturnUdt$[ebp]
	jmp	SHORT $LN3@message

; 614  : 		else

	jmp	SHORT $LN3@message
$LN2@message:

; 615  : 			return (_Generic_error_category::message(_Errcode));

	mov	ecx, DWORD PTR __Errcode$[ebp]
	push	ecx
	mov	edx, DWORD PTR ___$ReturnUdt$[ebp]
	push	edx
	mov	ecx, DWORD PTR _this$[ebp]
	call	?message@_Generic_error_category@std@@UBE?AV?$basic_string@DU?$char_traits@D@std@@V?$allocator@D@2@@2@H@Z ; std::_Generic_error_category::message
	mov	eax, DWORD PTR $T1[ebp]
	or	eax, 1
	mov	DWORD PTR $T1[ebp], eax
	mov	eax, DWORD PTR ___$ReturnUdt$[ebp]
$LN3@message:

; 616  : 		}

	mov	esp, ebp
	pop	ebp
	ret	8
?message@_Iostream_error_category@std@@UBE?AV?$basic_string@DU?$char_traits@D@std@@V?$allocator@D@2@@2@H@Z ENDP ; std::_Iostream_error_category::message
_TEXT	ENDS
; Function compile flags: /Odtp
; File c:\program files (x86)\microsoft visual studio 11.0\vc\include\system_error
;	COMDAT ?name@_Iostream_error_category@std@@UBEPBDXZ
_TEXT	SEGMENT
_this$ = -4						; size = 4
?name@_Iostream_error_category@std@@UBEPBDXZ PROC	; std::_Iostream_error_category::name, COMDAT
; _this$ = ecx

; 606  : 		{	// get name of category

	push	ebp
	mov	ebp, esp
	push	ecx
	mov	DWORD PTR _this$[ebp], ecx

; 607  : 		return ("iostream");

	mov	eax, OFFSET ??_C@_08LLGCOLLL@iostream?$AA@

; 608  : 		}

	mov	esp, ebp
	pop	ebp
	ret	0
?name@_Iostream_error_category@std@@UBEPBDXZ ENDP	; std::_Iostream_error_category::name
_TEXT	ENDS
; Function compile flags: /Odtp
; File c:\program files (x86)\microsoft visual studio 11.0\vc\include\system_error
;	COMDAT ??0_Iostream_error_category@std@@QAE@XZ
_TEXT	SEGMENT
_this$ = -4						; size = 4
??0_Iostream_error_category@std@@QAE@XZ PROC		; std::_Iostream_error_category::_Iostream_error_category, COMDAT
; _this$ = ecx

; 601  : 	_Iostream_error_category()

	push	ebp
	mov	ebp, esp
	push	ecx
	mov	DWORD PTR _this$[ebp], ecx
	mov	ecx, DWORD PTR _this$[ebp]
	call	??0_Generic_error_category@std@@QAE@XZ	; std::_Generic_error_category::_Generic_error_category
	mov	eax, DWORD PTR _this$[ebp]
	mov	DWORD PTR [eax], OFFSET ??_7_Iostream_error_category@std@@6B@

; 602  : 		{	// default constructor
; 603  : 		}

	mov	eax, DWORD PTR _this$[ebp]
	mov	esp, ebp
	pop	ebp
	ret	0
??0_Iostream_error_category@std@@QAE@XZ ENDP		; std::_Iostream_error_category::_Iostream_error_category
_TEXT	ENDS
; Function compile flags: /Odtp
;	COMDAT ??_G_Generic_error_category@std@@UAEPAXI@Z
_TEXT	SEGMENT
_this$ = -4						; size = 4
___flags$ = 8						; size = 4
??_G_Generic_error_category@std@@UAEPAXI@Z PROC		; std::_Generic_error_category::`scalar deleting destructor', COMDAT
; _this$ = ecx
	push	ebp
	mov	ebp, esp
	push	ecx
	mov	DWORD PTR _this$[ebp], ecx
	mov	ecx, DWORD PTR _this$[ebp]
	call	??1_Generic_error_category@std@@UAE@XZ
	mov	eax, DWORD PTR ___flags$[ebp]
	and	eax, 1
	je	SHORT $LN1@scalar
	mov	ecx, DWORD PTR _this$[ebp]
	push	ecx
	call	??3@YAXPAX@Z				; operator delete
	add	esp, 4
$LN1@scalar:
	mov	eax, DWORD PTR _this$[ebp]
	mov	esp, ebp
	pop	ebp
	ret	4
??_G_Generic_error_category@std@@UAEPAXI@Z ENDP		; std::_Generic_error_category::`scalar deleting destructor'
_TEXT	ENDS
; Function compile flags: /Odtp
;	COMDAT ??1_Generic_error_category@std@@UAE@XZ
_TEXT	SEGMENT
_this$ = -4						; size = 4
??1_Generic_error_category@std@@UAE@XZ PROC		; std::_Generic_error_category::~_Generic_error_category, COMDAT
; _this$ = ecx
	push	ebp
	mov	ebp, esp
	push	ecx
	mov	DWORD PTR _this$[ebp], ecx
	mov	ecx, DWORD PTR _this$[ebp]
	call	??1error_category@std@@UAE@XZ		; std::error_category::~error_category
	mov	esp, ebp
	pop	ebp
	ret	0
??1_Generic_error_category@std@@UAE@XZ ENDP		; std::_Generic_error_category::~_Generic_error_category
_TEXT	ENDS
; Function compile flags: /Odtp
; File c:\program files (x86)\microsoft visual studio 11.0\vc\include\system_error
;	COMDAT ?message@_Generic_error_category@std@@UBE?AV?$basic_string@DU?$char_traits@D@std@@V?$allocator@D@2@@2@H@Z
_TEXT	SEGMENT
_this$ = -16						; size = 4
$T1 = -12						; size = 4
tv69 = -8						; size = 4
__Name$ = -4						; size = 4
___$ReturnUdt$ = 8					; size = 4
__Errcode$ = 12						; size = 4
?message@_Generic_error_category@std@@UBE?AV?$basic_string@DU?$char_traits@D@std@@V?$allocator@D@2@@2@H@Z PROC ; std::_Generic_error_category::message, COMDAT
; _this$ = ecx

; 590  : 		{	// convert to name of error

	push	ebp
	mov	ebp, esp
	sub	esp, 16					; 00000010H
	mov	DWORD PTR _this$[ebp], ecx
	mov	DWORD PTR $T1[ebp], 0

; 591  : 		const char *_Name = _Syserror_map(_Errcode);

	mov	eax, DWORD PTR __Errcode$[ebp]
	push	eax
	call	?_Syserror_map@std@@YAPBDH@Z		; std::_Syserror_map
	add	esp, 4
	mov	DWORD PTR __Name$[ebp], eax

; 592  : 		return (string(_Name != 0 ? _Name : "unknown error"));

	cmp	DWORD PTR __Name$[ebp], 0
	je	SHORT $LN3@message
	mov	ecx, DWORD PTR __Name$[ebp]
	mov	DWORD PTR tv69[ebp], ecx
	jmp	SHORT $LN4@message
$LN3@message:
	mov	DWORD PTR tv69[ebp], OFFSET ??_C@_0O@BFJCFAAK@unknown?5error?$AA@
$LN4@message:
	mov	edx, DWORD PTR tv69[ebp]
	push	edx
	mov	ecx, DWORD PTR ___$ReturnUdt$[ebp]
	call	??0?$basic_string@DU?$char_traits@D@std@@V?$allocator@D@2@@std@@QAE@PBD@Z ; std::basic_string<char,std::char_traits<char>,std::allocator<char> >::basic_string<char,std::char_traits<char>,std::allocator<char> >
	mov	eax, DWORD PTR $T1[ebp]
	or	eax, 1
	mov	DWORD PTR $T1[ebp], eax
	mov	eax, DWORD PTR ___$ReturnUdt$[ebp]

; 593  : 		}

	mov	esp, ebp
	pop	ebp
	ret	8
?message@_Generic_error_category@std@@UBE?AV?$basic_string@DU?$char_traits@D@std@@V?$allocator@D@2@@2@H@Z ENDP ; std::_Generic_error_category::message
_TEXT	ENDS
; Function compile flags: /Odtp
; File c:\program files (x86)\microsoft visual studio 11.0\vc\include\system_error
;	COMDAT ?name@_Generic_error_category@std@@UBEPBDXZ
_TEXT	SEGMENT
_this$ = -4						; size = 4
?name@_Generic_error_category@std@@UBEPBDXZ PROC	; std::_Generic_error_category::name, COMDAT
; _this$ = ecx

; 585  : 		{	// get name of category

	push	ebp
	mov	ebp, esp
	push	ecx
	mov	DWORD PTR _this$[ebp], ecx

; 586  : 		return ("generic");

	mov	eax, OFFSET ??_C@_07DCLBNMLN@generic?$AA@

; 587  : 		}

	mov	esp, ebp
	pop	ebp
	ret	0
?name@_Generic_error_category@std@@UBEPBDXZ ENDP	; std::_Generic_error_category::name
_TEXT	ENDS
; Function compile flags: /Odtp
; File c:\program files (x86)\microsoft visual studio 11.0\vc\include\system_error
;	COMDAT ??0_Generic_error_category@std@@QAE@XZ
_TEXT	SEGMENT
_this$ = -4						; size = 4
??0_Generic_error_category@std@@QAE@XZ PROC		; std::_Generic_error_category::_Generic_error_category, COMDAT
; _this$ = ecx

; 580  : 	_Generic_error_category()

	push	ebp
	mov	ebp, esp
	push	ecx
	mov	DWORD PTR _this$[ebp], ecx
	mov	ecx, DWORD PTR _this$[ebp]
	call	??0error_category@std@@QAE@XZ		; std::error_category::error_category
	mov	eax, DWORD PTR _this$[ebp]
	mov	DWORD PTR [eax], OFFSET ??_7_Generic_error_category@std@@6B@

; 581  : 		{	// default constructor
; 582  : 		}

	mov	eax, DWORD PTR _this$[ebp]
	mov	esp, ebp
	pop	ebp
	ret	0
??0_Generic_error_category@std@@QAE@XZ ENDP		; std::_Generic_error_category::_Generic_error_category
_TEXT	ENDS
; Function compile flags: /Odtp
