; Listing generated by Microsoft (R) Optimizing Compiler Version 17.00.51106.1 

	TITLE	C:\Users\Zhitao Li\Documents\Visual Studio 2012\Projects\Freefalcon\UI\SRC\campaign\campmenu.cpp
	.686P
	.XMM
	include listing.inc
	.model	flat

INCLUDELIB LIBCMT
INCLUDELIB OLDNAMES

PUBLIC	?is_modulo@?$numeric_limits@_N@std@@2_NB	; std::numeric_limits<bool>::is_modulo
PUBLIC	?is_signed@?$numeric_limits@_N@std@@2_NB	; std::numeric_limits<bool>::is_signed
PUBLIC	?digits@?$numeric_limits@_N@std@@2HB		; std::numeric_limits<bool>::digits
PUBLIC	?digits10@?$numeric_limits@_N@std@@2HB		; std::numeric_limits<bool>::digits10
PUBLIC	?is_signed@?$numeric_limits@C@std@@2_NB		; std::numeric_limits<signed char>::is_signed
PUBLIC	?digits@?$numeric_limits@C@std@@2HB		; std::numeric_limits<signed char>::digits
PUBLIC	?digits10@?$numeric_limits@C@std@@2HB		; std::numeric_limits<signed char>::digits10
PUBLIC	?is_signed@?$numeric_limits@E@std@@2_NB		; std::numeric_limits<unsigned char>::is_signed
PUBLIC	?digits@?$numeric_limits@E@std@@2HB		; std::numeric_limits<unsigned char>::digits
PUBLIC	?digits10@?$numeric_limits@E@std@@2HB		; std::numeric_limits<unsigned char>::digits10
PUBLIC	?collate@?$_Locbase@H@std@@2HB			; std::_Locbase<int>::collate
PUBLIC	?ctype@?$_Locbase@H@std@@2HB			; std::_Locbase<int>::ctype
PUBLIC	?monetary@?$_Locbase@H@std@@2HB			; std::_Locbase<int>::monetary
PUBLIC	?numeric@?$_Locbase@H@std@@2HB			; std::_Locbase<int>::numeric
PUBLIC	?time@?$_Locbase@H@std@@2HB			; std::_Locbase<int>::time
PUBLIC	?messages@?$_Locbase@H@std@@2HB			; std::_Locbase<int>::messages
PUBLIC	?all@?$_Locbase@H@std@@2HB			; std::_Locbase<int>::all
PUBLIC	?is_signed@?$numeric_limits@F@std@@2_NB		; std::numeric_limits<short>::is_signed
PUBLIC	?none@?$_Locbase@H@std@@2HB			; std::_Locbase<int>::none
PUBLIC	?digits@?$numeric_limits@F@std@@2HB		; std::numeric_limits<short>::digits
PUBLIC	?digits10@?$numeric_limits@F@std@@2HB		; std::numeric_limits<short>::digits10
PUBLIC	?is_signed@?$numeric_limits@G@std@@2_NB		; std::numeric_limits<unsigned short>::is_signed
PUBLIC	?digits@?$numeric_limits@G@std@@2HB		; std::numeric_limits<unsigned short>::digits
PUBLIC	?digits10@?$numeric_limits@G@std@@2HB		; std::numeric_limits<unsigned short>::digits10
PUBLIC	?is_signed@?$numeric_limits@H@std@@2_NB		; std::numeric_limits<int>::is_signed
PUBLIC	?value@?$_Sizeof@HU_Nil@std@@U12@U12@U12@U12@U12@U12@@std@@2IB ; std::_Sizeof<int,std::_Nil,std::_Nil,std::_Nil,std::_Nil,std::_Nil,std::_Nil,std::_Nil>::value
PUBLIC	?digits@?$numeric_limits@H@std@@2HB		; std::numeric_limits<int>::digits
PUBLIC	?digits10@?$numeric_limits@H@std@@2HB		; std::numeric_limits<int>::digits10
PUBLIC	?table_size@?$ctype@D@std@@2IB			; std::ctype<char>::table_size
PUBLIC	?is_signed@?$numeric_limits@I@std@@2_NB		; std::numeric_limits<unsigned int>::is_signed
PUBLIC	?digits@?$numeric_limits@I@std@@2HB		; std::numeric_limits<unsigned int>::digits
PUBLIC	?digits10@?$numeric_limits@I@std@@2HB		; std::numeric_limits<unsigned int>::digits10
PUBLIC	?is_signed@?$numeric_limits@J@std@@2_NB		; std::numeric_limits<long>::is_signed
PUBLIC	?digits@?$numeric_limits@J@std@@2HB		; std::numeric_limits<long>::digits
PUBLIC	?digits10@?$numeric_limits@J@std@@2HB		; std::numeric_limits<long>::digits10
PUBLIC	?is_signed@?$numeric_limits@K@std@@2_NB		; std::numeric_limits<unsigned long>::is_signed
PUBLIC	?digits@?$numeric_limits@K@std@@2HB		; std::numeric_limits<unsigned long>::digits
PUBLIC	?digits10@?$numeric_limits@K@std@@2HB		; std::numeric_limits<unsigned long>::digits10
PUBLIC	?is_signed@?$numeric_limits@_J@std@@2_NB	; std::numeric_limits<__int64>::is_signed
PUBLIC	?digits@?$numeric_limits@_J@std@@2HB		; std::numeric_limits<__int64>::digits
PUBLIC	?digits10@?$numeric_limits@_J@std@@2HB		; std::numeric_limits<__int64>::digits10
PUBLIC	?is_signed@?$numeric_limits@_K@std@@2_NB	; std::numeric_limits<unsigned __int64>::is_signed
PUBLIC	?digits@?$numeric_limits@_K@std@@2HB		; std::numeric_limits<unsigned __int64>::digits
PUBLIC	?digits10@?$numeric_limits@_K@std@@2HB		; std::numeric_limits<unsigned __int64>::digits10
PUBLIC	?digits@?$numeric_limits@M@std@@2HB		; std::numeric_limits<float>::digits
PUBLIC	?digits10@?$numeric_limits@M@std@@2HB		; std::numeric_limits<float>::digits10
PUBLIC	?max_digits10@?$numeric_limits@M@std@@2HB	; std::numeric_limits<float>::max_digits10
PUBLIC	?max_exponent@?$numeric_limits@M@std@@2HB	; std::numeric_limits<float>::max_exponent
PUBLIC	?max_exponent10@?$numeric_limits@M@std@@2HB	; std::numeric_limits<float>::max_exponent10
PUBLIC	?min_exponent@?$numeric_limits@M@std@@2HB	; std::numeric_limits<float>::min_exponent
PUBLIC	?min_exponent10@?$numeric_limits@M@std@@2HB	; std::numeric_limits<float>::min_exponent10
PUBLIC	?value@?$integral_constant@I$0A@@std@@2IB	; std::integral_constant<unsigned int,0>::value
PUBLIC	?digits@?$numeric_limits@N@std@@2HB		; std::numeric_limits<double>::digits
PUBLIC	?digits10@?$numeric_limits@N@std@@2HB		; std::numeric_limits<double>::digits10
PUBLIC	?max_digits10@?$numeric_limits@N@std@@2HB	; std::numeric_limits<double>::max_digits10
PUBLIC	?max_exponent@?$numeric_limits@N@std@@2HB	; std::numeric_limits<double>::max_exponent
PUBLIC	?max_exponent10@?$numeric_limits@N@std@@2HB	; std::numeric_limits<double>::max_exponent10
PUBLIC	?min_exponent@?$numeric_limits@N@std@@2HB	; std::numeric_limits<double>::min_exponent
PUBLIC	?min_exponent10@?$numeric_limits@N@std@@2HB	; std::numeric_limits<double>::min_exponent10
PUBLIC	?digits@?$numeric_limits@O@std@@2HB		; std::numeric_limits<long double>::digits
PUBLIC	?digits10@?$numeric_limits@O@std@@2HB		; std::numeric_limits<long double>::digits10
PUBLIC	?max_digits10@?$numeric_limits@O@std@@2HB	; std::numeric_limits<long double>::max_digits10
PUBLIC	?max_exponent@?$numeric_limits@O@std@@2HB	; std::numeric_limits<long double>::max_exponent
PUBLIC	?max_exponent10@?$numeric_limits@O@std@@2HB	; std::numeric_limits<long double>::max_exponent10
PUBLIC	?TargetTree@@3PAVC_TreeList@@A			; TargetTree
PUBLIC	?min_exponent@?$numeric_limits@O@std@@2HB	; std::numeric_limits<long double>::min_exponent
PUBLIC	?min_exponent10@?$numeric_limits@O@std@@2HB	; std::numeric_limits<long double>::min_exponent10
PUBLIC	?filterState@FilterSaveStuff@@3PA_NA		; FilterSaveStuff::filterState
PUBLIC	?value@?$_Sizeof@U_Nil@std@@U12@U12@U12@U12@U12@U12@U12@@std@@2IB ; std::_Sizeof<std::_Nil,std::_Nil,std::_Nil,std::_Nil,std::_Nil,std::_Nil,std::_Nil,std::_Nil>::value
PUBLIC	?skipws@?$_Iosb@H@std@@2W4_Fmtflags@12@B	; std::_Iosb<int>::skipws
PUBLIC	?unitbuf@?$_Iosb@H@std@@2W4_Fmtflags@12@B	; std::_Iosb<int>::unitbuf
PUBLIC	?uppercase@?$_Iosb@H@std@@2W4_Fmtflags@12@B	; std::_Iosb<int>::uppercase
PUBLIC	?showbase@?$_Iosb@H@std@@2W4_Fmtflags@12@B	; std::_Iosb<int>::showbase
PUBLIC	?showpoint@?$_Iosb@H@std@@2W4_Fmtflags@12@B	; std::_Iosb<int>::showpoint
PUBLIC	?showpos@?$_Iosb@H@std@@2W4_Fmtflags@12@B	; std::_Iosb<int>::showpos
PUBLIC	?left@?$_Iosb@H@std@@2W4_Fmtflags@12@B		; std::_Iosb<int>::left
PUBLIC	?right@?$_Iosb@H@std@@2W4_Fmtflags@12@B		; std::_Iosb<int>::right
PUBLIC	?internal@?$_Iosb@H@std@@2W4_Fmtflags@12@B	; std::_Iosb<int>::internal
PUBLIC	?dec@?$_Iosb@H@std@@2W4_Fmtflags@12@B		; std::_Iosb<int>::dec
PUBLIC	?oct@?$_Iosb@H@std@@2W4_Fmtflags@12@B		; std::_Iosb<int>::oct
PUBLIC	?hex@?$_Iosb@H@std@@2W4_Fmtflags@12@B		; std::_Iosb<int>::hex
PUBLIC	?scientific@?$_Iosb@H@std@@2W4_Fmtflags@12@B	; std::_Iosb<int>::scientific
PUBLIC	?fixed@?$_Iosb@H@std@@2W4_Fmtflags@12@B		; std::_Iosb<int>::fixed
PUBLIC	?hexfloat@?$_Iosb@H@std@@2W4_Fmtflags@12@B	; std::_Iosb<int>::hexfloat
PUBLIC	?boolalpha@?$_Iosb@H@std@@2W4_Fmtflags@12@B	; std::_Iosb<int>::boolalpha
PUBLIC	?SIMDIRTYDATA_INTERVAL@FalconEntity@@2KB	; FalconEntity::SIMDIRTYDATA_INTERVAL
PUBLIC	?_Stdio@?$_Iosb@H@std@@2W4_Fmtflags@12@B	; std::_Iosb<int>::_Stdio
PUBLIC	?CMPDIRTYDATA_INTERVAL@FalconEntity@@2KB	; FalconEntity::CMPDIRTYDATA_INTERVAL
PUBLIC	?adjustfield@?$_Iosb@H@std@@2W4_Fmtflags@12@B	; std::_Iosb<int>::adjustfield
PUBLIC	?basefield@?$_Iosb@H@std@@2W4_Fmtflags@12@B	; std::_Iosb<int>::basefield
PUBLIC	?floatfield@?$_Iosb@H@std@@2W4_Fmtflags@12@B	; std::_Iosb<int>::floatfield
PUBLIC	?goodbit@?$_Iosb@H@std@@2W4_Iostate@12@B	; std::_Iosb<int>::goodbit
PUBLIC	?eofbit@?$_Iosb@H@std@@2W4_Iostate@12@B		; std::_Iosb<int>::eofbit
PUBLIC	?failbit@?$_Iosb@H@std@@2W4_Iostate@12@B	; std::_Iosb<int>::failbit
PUBLIC	?has_denorm@_Num_base@std@@2W4float_denorm_style@2@B ; std::_Num_base::has_denorm
PUBLIC	?badbit@?$_Iosb@H@std@@2W4_Iostate@12@B		; std::_Iosb<int>::badbit
PUBLIC	?has_denorm_loss@_Num_base@std@@2_NB		; std::_Num_base::has_denorm_loss
PUBLIC	?_Hardfail@?$_Iosb@H@std@@2W4_Iostate@12@B	; std::_Iosb<int>::_Hardfail
PUBLIC	?has_infinity@_Num_base@std@@2_NB		; std::_Num_base::has_infinity
PUBLIC	?has_quiet_NaN@_Num_base@std@@2_NB		; std::_Num_base::has_quiet_NaN
PUBLIC	?in@?$_Iosb@H@std@@2W4_Openmode@12@B		; std::_Iosb<int>::in
PUBLIC	?out@?$_Iosb@H@std@@2W4_Openmode@12@B		; std::_Iosb<int>::out
PUBLIC	?has_signaling_NaN@_Num_base@std@@2_NB		; std::_Num_base::has_signaling_NaN
PUBLIC	?ate@?$_Iosb@H@std@@2W4_Openmode@12@B		; std::_Iosb<int>::ate
PUBLIC	?is_bounded@_Num_base@std@@2_NB			; std::_Num_base::is_bounded
PUBLIC	?is_exact@_Num_base@std@@2_NB			; std::_Num_base::is_exact
PUBLIC	?app@?$_Iosb@H@std@@2W4_Openmode@12@B		; std::_Iosb<int>::app
PUBLIC	?is_iec559@_Num_base@std@@2_NB			; std::_Num_base::is_iec559
PUBLIC	?trunc@?$_Iosb@H@std@@2W4_Openmode@12@B		; std::_Iosb<int>::trunc
PUBLIC	?_Nocreate@?$_Iosb@H@std@@2W4_Openmode@12@B	; std::_Iosb<int>::_Nocreate
PUBLIC	?is_integer@_Num_base@std@@2_NB			; std::_Num_base::is_integer
PUBLIC	?_Noreplace@?$_Iosb@H@std@@2W4_Openmode@12@B	; std::_Iosb<int>::_Noreplace
PUBLIC	?is_modulo@_Num_base@std@@2_NB			; std::_Num_base::is_modulo
PUBLIC	?is_signed@_Num_base@std@@2_NB			; std::_Num_base::is_signed
PUBLIC	?binary@?$_Iosb@H@std@@2W4_Openmode@12@B	; std::_Iosb<int>::binary
PUBLIC	?is_specialized@_Num_base@std@@2_NB		; std::_Num_base::is_specialized
PUBLIC	?beg@?$_Iosb@H@std@@2W4_Seekdir@12@B		; std::_Iosb<int>::beg
PUBLIC	?tinyness_before@_Num_base@std@@2_NB		; std::_Num_base::tinyness_before
PUBLIC	?cur@?$_Iosb@H@std@@2W4_Seekdir@12@B		; std::_Iosb<int>::cur
PUBLIC	?traps@_Num_base@std@@2_NB			; std::_Num_base::traps
PUBLIC	?end@?$_Iosb@H@std@@2W4_Seekdir@12@B		; std::_Iosb<int>::end
PUBLIC	?round_style@_Num_base@std@@2W4float_round_style@2@B ; std::_Num_base::round_style
PUBLIC	?digits@_Num_base@std@@2HB			; std::_Num_base::digits
PUBLIC	?digits10@_Num_base@std@@2HB			; std::_Num_base::digits10
PUBLIC	?max_digits10@_Num_base@std@@2HB		; std::_Num_base::max_digits10
PUBLIC	?max_exponent@_Num_base@std@@2HB		; std::_Num_base::max_exponent
PUBLIC	?max_exponent10@_Num_base@std@@2HB		; std::_Num_base::max_exponent10
PUBLIC	?min_exponent@_Num_base@std@@2HB		; std::_Num_base::min_exponent
PUBLIC	?min_exponent10@_Num_base@std@@2HB		; std::_Num_base::min_exponent10
PUBLIC	?radix@_Num_base@std@@2HB			; std::_Num_base::radix
PUBLIC	?_Stream_err@failure@ios_base@std@@0W4io_errc@43@B ; std::ios_base::failure::_Stream_err
PUBLIC	?is_bounded@_Num_int_base@std@@2_NB		; std::_Num_int_base::is_bounded
PUBLIC	?is_exact@_Num_int_base@std@@2_NB		; std::_Num_int_base::is_exact
PUBLIC	?is_integer@_Num_int_base@std@@2_NB		; std::_Num_int_base::is_integer
PUBLIC	?is_modulo@_Num_int_base@std@@2_NB		; std::_Num_int_base::is_modulo
PUBLIC	?is_specialized@_Num_int_base@std@@2_NB		; std::_Num_int_base::is_specialized
PUBLIC	?radix@_Num_int_base@std@@2HB			; std::_Num_int_base::radix
PUBLIC	?has_denorm@_Num_float_base@std@@2W4float_denorm_style@2@B ; std::_Num_float_base::has_denorm
PUBLIC	?has_denorm_loss@_Num_float_base@std@@2_NB	; std::_Num_float_base::has_denorm_loss
PUBLIC	?has_infinity@_Num_float_base@std@@2_NB		; std::_Num_float_base::has_infinity
PUBLIC	?has_quiet_NaN@_Num_float_base@std@@2_NB	; std::_Num_float_base::has_quiet_NaN
PUBLIC	?has_signaling_NaN@_Num_float_base@std@@2_NB	; std::_Num_float_base::has_signaling_NaN
PUBLIC	?is_bounded@_Num_float_base@std@@2_NB		; std::_Num_float_base::is_bounded
PUBLIC	?is_exact@_Num_float_base@std@@2_NB		; std::_Num_float_base::is_exact
PUBLIC	?is_iec559@_Num_float_base@std@@2_NB		; std::_Num_float_base::is_iec559
PUBLIC	?is_integer@_Num_float_base@std@@2_NB		; std::_Num_float_base::is_integer
PUBLIC	?is_modulo@_Num_float_base@std@@2_NB		; std::_Num_float_base::is_modulo
PUBLIC	?is_signed@_Num_float_base@std@@2_NB		; std::_Num_float_base::is_signed
PUBLIC	?is_specialized@_Num_float_base@std@@2_NB	; std::_Num_float_base::is_specialized
PUBLIC	?tinyness_before@_Num_float_base@std@@2_NB	; std::_Num_float_base::tinyness_before
PUBLIC	?traps@_Num_float_base@std@@2_NB		; std::_Num_float_base::traps
PUBLIC	?round_style@_Num_float_base@std@@2W4float_round_style@2@B ; std::_Num_float_base::round_style
PUBLIC	?radix@_Num_float_base@std@@2HB			; std::_Num_float_base::radix
PUBLIC	?is_signed@?$numeric_limits@D@std@@2_NB		; std::numeric_limits<char>::is_signed
PUBLIC	?digits@?$numeric_limits@D@std@@2HB		; std::numeric_limits<char>::digits
PUBLIC	?digits10@?$numeric_limits@D@std@@2HB		; std::numeric_limits<char>::digits10
PUBLIC	?value@?$integral_constant@_N$0A@@std@@2_NB	; std::integral_constant<bool,0>::value
PUBLIC	?is_signed@?$numeric_limits@_W@std@@2_NB	; std::numeric_limits<wchar_t>::is_signed
PUBLIC	?digits@?$numeric_limits@_W@std@@2HB		; std::numeric_limits<wchar_t>::digits
PUBLIC	?digits10@?$numeric_limits@_W@std@@2HB		; std::numeric_limits<wchar_t>::digits10
PUBLIC	?value@?$integral_constant@_N$00@std@@2_NB	; std::integral_constant<bool,1>::value
_BSS	SEGMENT
?TargetTree@@3PAVC_TreeList@@A DD 01H DUP (?)		; TargetTree
_BSS	ENDS
;	COMDAT ?value@?$integral_constant@_N$00@std@@2_NB
CONST	SEGMENT
?value@?$integral_constant@_N$00@std@@2_NB DB 01H	; std::integral_constant<bool,1>::value
CONST	ENDS
;	COMDAT ?digits10@?$numeric_limits@_W@std@@2HB
CONST	SEGMENT
?digits10@?$numeric_limits@_W@std@@2HB DD 04H		; std::numeric_limits<wchar_t>::digits10
CONST	ENDS
;	COMDAT ?digits@?$numeric_limits@_W@std@@2HB
CONST	SEGMENT
?digits@?$numeric_limits@_W@std@@2HB DD 010H		; std::numeric_limits<wchar_t>::digits
CONST	ENDS
;	COMDAT ?is_signed@?$numeric_limits@_W@std@@2_NB
CONST	SEGMENT
?is_signed@?$numeric_limits@_W@std@@2_NB DB 00H		; std::numeric_limits<wchar_t>::is_signed
CONST	ENDS
;	COMDAT ?value@?$integral_constant@_N$0A@@std@@2_NB
CONST	SEGMENT
?value@?$integral_constant@_N$0A@@std@@2_NB DB 00H	; std::integral_constant<bool,0>::value
CONST	ENDS
;	COMDAT ?digits10@?$numeric_limits@D@std@@2HB
CONST	SEGMENT
?digits10@?$numeric_limits@D@std@@2HB DD 02H		; std::numeric_limits<char>::digits10
CONST	ENDS
;	COMDAT ?digits@?$numeric_limits@D@std@@2HB
CONST	SEGMENT
?digits@?$numeric_limits@D@std@@2HB DD 07H		; std::numeric_limits<char>::digits
CONST	ENDS
;	COMDAT ?is_signed@?$numeric_limits@D@std@@2_NB
CONST	SEGMENT
?is_signed@?$numeric_limits@D@std@@2_NB DB 01H		; std::numeric_limits<char>::is_signed
CONST	ENDS
;	COMDAT ?radix@_Num_float_base@std@@2HB
CONST	SEGMENT
?radix@_Num_float_base@std@@2HB DD 02H			; std::_Num_float_base::radix
CONST	ENDS
;	COMDAT ?round_style@_Num_float_base@std@@2W4float_round_style@2@B
CONST	SEGMENT
?round_style@_Num_float_base@std@@2W4float_round_style@2@B DD 01H ; std::_Num_float_base::round_style
CONST	ENDS
;	COMDAT ?traps@_Num_float_base@std@@2_NB
CONST	SEGMENT
?traps@_Num_float_base@std@@2_NB DB 00H			; std::_Num_float_base::traps
CONST	ENDS
;	COMDAT ?tinyness_before@_Num_float_base@std@@2_NB
CONST	SEGMENT
?tinyness_before@_Num_float_base@std@@2_NB DB 01H	; std::_Num_float_base::tinyness_before
CONST	ENDS
;	COMDAT ?is_specialized@_Num_float_base@std@@2_NB
CONST	SEGMENT
?is_specialized@_Num_float_base@std@@2_NB DB 01H	; std::_Num_float_base::is_specialized
CONST	ENDS
;	COMDAT ?is_signed@_Num_float_base@std@@2_NB
CONST	SEGMENT
?is_signed@_Num_float_base@std@@2_NB DB 01H		; std::_Num_float_base::is_signed
CONST	ENDS
;	COMDAT ?is_modulo@_Num_float_base@std@@2_NB
CONST	SEGMENT
?is_modulo@_Num_float_base@std@@2_NB DB 00H		; std::_Num_float_base::is_modulo
CONST	ENDS
;	COMDAT ?is_integer@_Num_float_base@std@@2_NB
CONST	SEGMENT
?is_integer@_Num_float_base@std@@2_NB DB 00H		; std::_Num_float_base::is_integer
CONST	ENDS
;	COMDAT ?is_iec559@_Num_float_base@std@@2_NB
CONST	SEGMENT
?is_iec559@_Num_float_base@std@@2_NB DB 01H		; std::_Num_float_base::is_iec559
CONST	ENDS
;	COMDAT ?is_exact@_Num_float_base@std@@2_NB
CONST	SEGMENT
?is_exact@_Num_float_base@std@@2_NB DB 00H		; std::_Num_float_base::is_exact
CONST	ENDS
;	COMDAT ?is_bounded@_Num_float_base@std@@2_NB
CONST	SEGMENT
?is_bounded@_Num_float_base@std@@2_NB DB 01H		; std::_Num_float_base::is_bounded
CONST	ENDS
;	COMDAT ?has_signaling_NaN@_Num_float_base@std@@2_NB
CONST	SEGMENT
?has_signaling_NaN@_Num_float_base@std@@2_NB DB 01H	; std::_Num_float_base::has_signaling_NaN
CONST	ENDS
;	COMDAT ?has_quiet_NaN@_Num_float_base@std@@2_NB
CONST	SEGMENT
?has_quiet_NaN@_Num_float_base@std@@2_NB DB 01H		; std::_Num_float_base::has_quiet_NaN
CONST	ENDS
;	COMDAT ?has_infinity@_Num_float_base@std@@2_NB
CONST	SEGMENT
?has_infinity@_Num_float_base@std@@2_NB DB 01H		; std::_Num_float_base::has_infinity
CONST	ENDS
;	COMDAT ?has_denorm_loss@_Num_float_base@std@@2_NB
CONST	SEGMENT
?has_denorm_loss@_Num_float_base@std@@2_NB DB 01H	; std::_Num_float_base::has_denorm_loss
CONST	ENDS
;	COMDAT ?has_denorm@_Num_float_base@std@@2W4float_denorm_style@2@B
CONST	SEGMENT
?has_denorm@_Num_float_base@std@@2W4float_denorm_style@2@B DD 01H ; std::_Num_float_base::has_denorm
CONST	ENDS
;	COMDAT ?radix@_Num_int_base@std@@2HB
CONST	SEGMENT
?radix@_Num_int_base@std@@2HB DD 02H			; std::_Num_int_base::radix
CONST	ENDS
;	COMDAT ?is_specialized@_Num_int_base@std@@2_NB
CONST	SEGMENT
?is_specialized@_Num_int_base@std@@2_NB DB 01H		; std::_Num_int_base::is_specialized
CONST	ENDS
;	COMDAT ?is_modulo@_Num_int_base@std@@2_NB
CONST	SEGMENT
?is_modulo@_Num_int_base@std@@2_NB DB 01H		; std::_Num_int_base::is_modulo
CONST	ENDS
;	COMDAT ?is_integer@_Num_int_base@std@@2_NB
CONST	SEGMENT
?is_integer@_Num_int_base@std@@2_NB DB 01H		; std::_Num_int_base::is_integer
CONST	ENDS
;	COMDAT ?is_exact@_Num_int_base@std@@2_NB
CONST	SEGMENT
?is_exact@_Num_int_base@std@@2_NB DB 01H		; std::_Num_int_base::is_exact
CONST	ENDS
;	COMDAT ?is_bounded@_Num_int_base@std@@2_NB
CONST	SEGMENT
?is_bounded@_Num_int_base@std@@2_NB DB 01H		; std::_Num_int_base::is_bounded
CONST	ENDS
;	COMDAT ?_Stream_err@failure@ios_base@std@@0W4io_errc@43@B
CONST	SEGMENT
?_Stream_err@failure@ios_base@std@@0W4io_errc@43@B DD 01H ; std::ios_base::failure::_Stream_err
CONST	ENDS
;	COMDAT ?radix@_Num_base@std@@2HB
CONST	SEGMENT
?radix@_Num_base@std@@2HB DD 00H			; std::_Num_base::radix
CONST	ENDS
;	COMDAT ?min_exponent10@_Num_base@std@@2HB
CONST	SEGMENT
?min_exponent10@_Num_base@std@@2HB DD 00H		; std::_Num_base::min_exponent10
CONST	ENDS
;	COMDAT ?min_exponent@_Num_base@std@@2HB
CONST	SEGMENT
?min_exponent@_Num_base@std@@2HB DD 00H			; std::_Num_base::min_exponent
CONST	ENDS
;	COMDAT ?max_exponent10@_Num_base@std@@2HB
CONST	SEGMENT
?max_exponent10@_Num_base@std@@2HB DD 00H		; std::_Num_base::max_exponent10
CONST	ENDS
;	COMDAT ?max_exponent@_Num_base@std@@2HB
CONST	SEGMENT
?max_exponent@_Num_base@std@@2HB DD 00H			; std::_Num_base::max_exponent
CONST	ENDS
;	COMDAT ?max_digits10@_Num_base@std@@2HB
CONST	SEGMENT
?max_digits10@_Num_base@std@@2HB DD 00H			; std::_Num_base::max_digits10
CONST	ENDS
;	COMDAT ?digits10@_Num_base@std@@2HB
CONST	SEGMENT
?digits10@_Num_base@std@@2HB DD 00H			; std::_Num_base::digits10
CONST	ENDS
;	COMDAT ?digits@_Num_base@std@@2HB
CONST	SEGMENT
?digits@_Num_base@std@@2HB DD 00H			; std::_Num_base::digits
CONST	ENDS
;	COMDAT ?round_style@_Num_base@std@@2W4float_round_style@2@B
CONST	SEGMENT
?round_style@_Num_base@std@@2W4float_round_style@2@B DD 00H ; std::_Num_base::round_style
CONST	ENDS
;	COMDAT ?end@?$_Iosb@H@std@@2W4_Seekdir@12@B
CONST	SEGMENT
?end@?$_Iosb@H@std@@2W4_Seekdir@12@B DD 02H		; std::_Iosb<int>::end
CONST	ENDS
;	COMDAT ?traps@_Num_base@std@@2_NB
CONST	SEGMENT
?traps@_Num_base@std@@2_NB DB 00H			; std::_Num_base::traps
CONST	ENDS
;	COMDAT ?cur@?$_Iosb@H@std@@2W4_Seekdir@12@B
CONST	SEGMENT
?cur@?$_Iosb@H@std@@2W4_Seekdir@12@B DD 01H		; std::_Iosb<int>::cur
CONST	ENDS
;	COMDAT ?tinyness_before@_Num_base@std@@2_NB
CONST	SEGMENT
?tinyness_before@_Num_base@std@@2_NB DB 00H		; std::_Num_base::tinyness_before
CONST	ENDS
;	COMDAT ?beg@?$_Iosb@H@std@@2W4_Seekdir@12@B
CONST	SEGMENT
?beg@?$_Iosb@H@std@@2W4_Seekdir@12@B DD 00H		; std::_Iosb<int>::beg
CONST	ENDS
;	COMDAT ?is_specialized@_Num_base@std@@2_NB
CONST	SEGMENT
?is_specialized@_Num_base@std@@2_NB DB 00H		; std::_Num_base::is_specialized
CONST	ENDS
;	COMDAT ?binary@?$_Iosb@H@std@@2W4_Openmode@12@B
CONST	SEGMENT
?binary@?$_Iosb@H@std@@2W4_Openmode@12@B DD 020H	; std::_Iosb<int>::binary
CONST	ENDS
;	COMDAT ?is_signed@_Num_base@std@@2_NB
CONST	SEGMENT
?is_signed@_Num_base@std@@2_NB DB 00H			; std::_Num_base::is_signed
CONST	ENDS
CONST	SEGMENT
_L_2	DD	03f317218r			; 0.693147
CONST	ENDS
;	COMDAT ?is_modulo@_Num_base@std@@2_NB
CONST	SEGMENT
?is_modulo@_Num_base@std@@2_NB DB 00H			; std::_Num_base::is_modulo
CONST	ENDS
;	COMDAT ?_Noreplace@?$_Iosb@H@std@@2W4_Openmode@12@B
CONST	SEGMENT
?_Noreplace@?$_Iosb@H@std@@2W4_Openmode@12@B DD 080H	; std::_Iosb<int>::_Noreplace
CONST	ENDS
;	COMDAT ?is_integer@_Num_base@std@@2_NB
CONST	SEGMENT
?is_integer@_Num_base@std@@2_NB DB 00H			; std::_Num_base::is_integer
CONST	ENDS
;	COMDAT ?_Nocreate@?$_Iosb@H@std@@2W4_Openmode@12@B
CONST	SEGMENT
?_Nocreate@?$_Iosb@H@std@@2W4_Openmode@12@B DD 040H	; std::_Iosb<int>::_Nocreate
CONST	ENDS
;	COMDAT ?trunc@?$_Iosb@H@std@@2W4_Openmode@12@B
CONST	SEGMENT
?trunc@?$_Iosb@H@std@@2W4_Openmode@12@B DD 010H		; std::_Iosb<int>::trunc
CONST	ENDS
;	COMDAT ?is_iec559@_Num_base@std@@2_NB
CONST	SEGMENT
?is_iec559@_Num_base@std@@2_NB DB 00H			; std::_Num_base::is_iec559
CONST	ENDS
;	COMDAT ?app@?$_Iosb@H@std@@2W4_Openmode@12@B
CONST	SEGMENT
?app@?$_Iosb@H@std@@2W4_Openmode@12@B DD 08H		; std::_Iosb<int>::app
CONST	ENDS
;	COMDAT ?is_exact@_Num_base@std@@2_NB
CONST	SEGMENT
?is_exact@_Num_base@std@@2_NB DB 00H			; std::_Num_base::is_exact
CONST	ENDS
;	COMDAT ?is_bounded@_Num_base@std@@2_NB
CONST	SEGMENT
?is_bounded@_Num_base@std@@2_NB DB 00H			; std::_Num_base::is_bounded
CONST	ENDS
;	COMDAT ?ate@?$_Iosb@H@std@@2W4_Openmode@12@B
CONST	SEGMENT
?ate@?$_Iosb@H@std@@2W4_Openmode@12@B DD 04H		; std::_Iosb<int>::ate
CONST	ENDS
;	COMDAT ?has_signaling_NaN@_Num_base@std@@2_NB
CONST	SEGMENT
?has_signaling_NaN@_Num_base@std@@2_NB DB 00H		; std::_Num_base::has_signaling_NaN
CONST	ENDS
;	COMDAT ?out@?$_Iosb@H@std@@2W4_Openmode@12@B
CONST	SEGMENT
?out@?$_Iosb@H@std@@2W4_Openmode@12@B DD 02H		; std::_Iosb<int>::out
CONST	ENDS
;	COMDAT ?in@?$_Iosb@H@std@@2W4_Openmode@12@B
CONST	SEGMENT
?in@?$_Iosb@H@std@@2W4_Openmode@12@B DD 01H		; std::_Iosb<int>::in
CONST	ENDS
;	COMDAT ?has_quiet_NaN@_Num_base@std@@2_NB
CONST	SEGMENT
?has_quiet_NaN@_Num_base@std@@2_NB DB 00H		; std::_Num_base::has_quiet_NaN
CONST	ENDS
;	COMDAT ?has_infinity@_Num_base@std@@2_NB
CONST	SEGMENT
?has_infinity@_Num_base@std@@2_NB DB 00H		; std::_Num_base::has_infinity
CONST	ENDS
;	COMDAT ?_Hardfail@?$_Iosb@H@std@@2W4_Iostate@12@B
CONST	SEGMENT
?_Hardfail@?$_Iosb@H@std@@2W4_Iostate@12@B DD 010H	; std::_Iosb<int>::_Hardfail
CONST	ENDS
;	COMDAT ?has_denorm_loss@_Num_base@std@@2_NB
CONST	SEGMENT
?has_denorm_loss@_Num_base@std@@2_NB DB 00H		; std::_Num_base::has_denorm_loss
CONST	ENDS
;	COMDAT ?badbit@?$_Iosb@H@std@@2W4_Iostate@12@B
CONST	SEGMENT
?badbit@?$_Iosb@H@std@@2W4_Iostate@12@B DD 04H		; std::_Iosb<int>::badbit
CONST	ENDS
;	COMDAT ?has_denorm@_Num_base@std@@2W4float_denorm_style@2@B
CONST	SEGMENT
?has_denorm@_Num_base@std@@2W4float_denorm_style@2@B DD 00H ; std::_Num_base::has_denorm
CONST	ENDS
;	COMDAT ?failbit@?$_Iosb@H@std@@2W4_Iostate@12@B
CONST	SEGMENT
?failbit@?$_Iosb@H@std@@2W4_Iostate@12@B DD 02H		; std::_Iosb<int>::failbit
CONST	ENDS
;	COMDAT ?eofbit@?$_Iosb@H@std@@2W4_Iostate@12@B
CONST	SEGMENT
?eofbit@?$_Iosb@H@std@@2W4_Iostate@12@B DD 01H		; std::_Iosb<int>::eofbit
CONST	ENDS
;	COMDAT ?goodbit@?$_Iosb@H@std@@2W4_Iostate@12@B
CONST	SEGMENT
?goodbit@?$_Iosb@H@std@@2W4_Iostate@12@B DD 00H		; std::_Iosb<int>::goodbit
CONST	ENDS
;	COMDAT ?floatfield@?$_Iosb@H@std@@2W4_Fmtflags@12@B
CONST	SEGMENT
?floatfield@?$_Iosb@H@std@@2W4_Fmtflags@12@B DD 03000H	; std::_Iosb<int>::floatfield
CONST	ENDS
;	COMDAT ?basefield@?$_Iosb@H@std@@2W4_Fmtflags@12@B
CONST	SEGMENT
?basefield@?$_Iosb@H@std@@2W4_Fmtflags@12@B DD 0e00H	; std::_Iosb<int>::basefield
CONST	ENDS
;	COMDAT ?adjustfield@?$_Iosb@H@std@@2W4_Fmtflags@12@B
CONST	SEGMENT
?adjustfield@?$_Iosb@H@std@@2W4_Fmtflags@12@B DD 01c0H	; std::_Iosb<int>::adjustfield
CONST	ENDS
;	COMDAT ?CMPDIRTYDATA_INTERVAL@FalconEntity@@2KB
CONST	SEGMENT
?CMPDIRTYDATA_INTERVAL@FalconEntity@@2KB DD 0c8H	; FalconEntity::CMPDIRTYDATA_INTERVAL
CONST	ENDS
;	COMDAT ?_Stdio@?$_Iosb@H@std@@2W4_Fmtflags@12@B
CONST	SEGMENT
?_Stdio@?$_Iosb@H@std@@2W4_Fmtflags@12@B DD 08000H	; std::_Iosb<int>::_Stdio
CONST	ENDS
;	COMDAT ?SIMDIRTYDATA_INTERVAL@FalconEntity@@2KB
CONST	SEGMENT
?SIMDIRTYDATA_INTERVAL@FalconEntity@@2KB DD 0c8H	; FalconEntity::SIMDIRTYDATA_INTERVAL
CONST	ENDS
;	COMDAT ?boolalpha@?$_Iosb@H@std@@2W4_Fmtflags@12@B
CONST	SEGMENT
?boolalpha@?$_Iosb@H@std@@2W4_Fmtflags@12@B DD 04000H	; std::_Iosb<int>::boolalpha
CONST	ENDS
;	COMDAT ?hexfloat@?$_Iosb@H@std@@2W4_Fmtflags@12@B
CONST	SEGMENT
?hexfloat@?$_Iosb@H@std@@2W4_Fmtflags@12@B DD 03000H	; std::_Iosb<int>::hexfloat
CONST	ENDS
;	COMDAT ?fixed@?$_Iosb@H@std@@2W4_Fmtflags@12@B
CONST	SEGMENT
?fixed@?$_Iosb@H@std@@2W4_Fmtflags@12@B DD 02000H	; std::_Iosb<int>::fixed
CONST	ENDS
;	COMDAT ?scientific@?$_Iosb@H@std@@2W4_Fmtflags@12@B
CONST	SEGMENT
?scientific@?$_Iosb@H@std@@2W4_Fmtflags@12@B DD 01000H	; std::_Iosb<int>::scientific
CONST	ENDS
;	COMDAT ?hex@?$_Iosb@H@std@@2W4_Fmtflags@12@B
CONST	SEGMENT
?hex@?$_Iosb@H@std@@2W4_Fmtflags@12@B DD 0800H		; std::_Iosb<int>::hex
CONST	ENDS
;	COMDAT ?oct@?$_Iosb@H@std@@2W4_Fmtflags@12@B
CONST	SEGMENT
?oct@?$_Iosb@H@std@@2W4_Fmtflags@12@B DD 0400H		; std::_Iosb<int>::oct
CONST	ENDS
;	COMDAT ?dec@?$_Iosb@H@std@@2W4_Fmtflags@12@B
CONST	SEGMENT
?dec@?$_Iosb@H@std@@2W4_Fmtflags@12@B DD 0200H		; std::_Iosb<int>::dec
CONST	ENDS
;	COMDAT ?internal@?$_Iosb@H@std@@2W4_Fmtflags@12@B
CONST	SEGMENT
?internal@?$_Iosb@H@std@@2W4_Fmtflags@12@B DD 0100H	; std::_Iosb<int>::internal
CONST	ENDS
;	COMDAT ?right@?$_Iosb@H@std@@2W4_Fmtflags@12@B
CONST	SEGMENT
?right@?$_Iosb@H@std@@2W4_Fmtflags@12@B DD 080H		; std::_Iosb<int>::right
CONST	ENDS
;	COMDAT ?left@?$_Iosb@H@std@@2W4_Fmtflags@12@B
CONST	SEGMENT
?left@?$_Iosb@H@std@@2W4_Fmtflags@12@B DD 040H		; std::_Iosb<int>::left
CONST	ENDS
;	COMDAT ?showpos@?$_Iosb@H@std@@2W4_Fmtflags@12@B
CONST	SEGMENT
?showpos@?$_Iosb@H@std@@2W4_Fmtflags@12@B DD 020H	; std::_Iosb<int>::showpos
CONST	ENDS
;	COMDAT ?showpoint@?$_Iosb@H@std@@2W4_Fmtflags@12@B
CONST	SEGMENT
?showpoint@?$_Iosb@H@std@@2W4_Fmtflags@12@B DD 010H	; std::_Iosb<int>::showpoint
CONST	ENDS
;	COMDAT ?showbase@?$_Iosb@H@std@@2W4_Fmtflags@12@B
CONST	SEGMENT
?showbase@?$_Iosb@H@std@@2W4_Fmtflags@12@B DD 08H	; std::_Iosb<int>::showbase
CONST	ENDS
;	COMDAT ?uppercase@?$_Iosb@H@std@@2W4_Fmtflags@12@B
CONST	SEGMENT
?uppercase@?$_Iosb@H@std@@2W4_Fmtflags@12@B DD 04H	; std::_Iosb<int>::uppercase
CONST	ENDS
;	COMDAT ?unitbuf@?$_Iosb@H@std@@2W4_Fmtflags@12@B
CONST	SEGMENT
?unitbuf@?$_Iosb@H@std@@2W4_Fmtflags@12@B DD 02H	; std::_Iosb<int>::unitbuf
CONST	ENDS
;	COMDAT ?skipws@?$_Iosb@H@std@@2W4_Fmtflags@12@B
CONST	SEGMENT
?skipws@?$_Iosb@H@std@@2W4_Fmtflags@12@B DD 01H		; std::_Iosb<int>::skipws
CONST	ENDS
;	COMDAT ?value@?$_Sizeof@U_Nil@std@@U12@U12@U12@U12@U12@U12@U12@@std@@2IB
CONST	SEGMENT
?value@?$_Sizeof@U_Nil@std@@U12@U12@U12@U12@U12@U12@U12@@std@@2IB DD 00H ; std::_Sizeof<std::_Nil,std::_Nil,std::_Nil,std::_Nil,std::_Nil,std::_Nil,std::_Nil,std::_Nil>::value
CONST	ENDS
_DATA	SEGMENT
?filterState@FilterSaveStuff@@3PA_NA DB 00H		; FilterSaveStuff::filterState
	DB	00H
	DB	01H
	DB	00H
	DB	00H
	DB	00H
	DB	00H
	DB	00H
	DB	00H
	DB	00H
	DB	00H
	DB	00H
	DB	00H
	DB	00H
	DB	00H
	DB	00H
	DB	00H
	DB	01H
	DB	00H
	DB	00H
	DB	00H
	DB	00H
	DB	01H
	DB	00H
	DB	00H
	DB	00H
	DB	00H
	DB	01H
	DB	00H
	DB	00H
	DB	00H
	DB	00H
	DB	00H
	DB	00H
_DATA	ENDS
;	COMDAT ?min_exponent10@?$numeric_limits@O@std@@2HB
CONST	SEGMENT
?min_exponent10@?$numeric_limits@O@std@@2HB DD 0fffffecdH ; std::numeric_limits<long double>::min_exponent10
CONST	ENDS
;	COMDAT ?min_exponent@?$numeric_limits@O@std@@2HB
CONST	SEGMENT
?min_exponent@?$numeric_limits@O@std@@2HB DD 0fffffc03H	; std::numeric_limits<long double>::min_exponent
CONST	ENDS
;	COMDAT ?max_exponent10@?$numeric_limits@O@std@@2HB
CONST	SEGMENT
?max_exponent10@?$numeric_limits@O@std@@2HB DD 0134H	; std::numeric_limits<long double>::max_exponent10
CONST	ENDS
;	COMDAT ?max_exponent@?$numeric_limits@O@std@@2HB
CONST	SEGMENT
?max_exponent@?$numeric_limits@O@std@@2HB DD 0400H	; std::numeric_limits<long double>::max_exponent
CONST	ENDS
;	COMDAT ?max_digits10@?$numeric_limits@O@std@@2HB
CONST	SEGMENT
?max_digits10@?$numeric_limits@O@std@@2HB DD 011H	; std::numeric_limits<long double>::max_digits10
CONST	ENDS
;	COMDAT ?digits10@?$numeric_limits@O@std@@2HB
CONST	SEGMENT
?digits10@?$numeric_limits@O@std@@2HB DD 0fH		; std::numeric_limits<long double>::digits10
CONST	ENDS
;	COMDAT ?digits@?$numeric_limits@O@std@@2HB
CONST	SEGMENT
?digits@?$numeric_limits@O@std@@2HB DD 035H		; std::numeric_limits<long double>::digits
CONST	ENDS
;	COMDAT ?min_exponent10@?$numeric_limits@N@std@@2HB
CONST	SEGMENT
?min_exponent10@?$numeric_limits@N@std@@2HB DD 0fffffecdH ; std::numeric_limits<double>::min_exponent10
CONST	ENDS
;	COMDAT ?min_exponent@?$numeric_limits@N@std@@2HB
CONST	SEGMENT
?min_exponent@?$numeric_limits@N@std@@2HB DD 0fffffc03H	; std::numeric_limits<double>::min_exponent
CONST	ENDS
;	COMDAT ?max_exponent10@?$numeric_limits@N@std@@2HB
CONST	SEGMENT
?max_exponent10@?$numeric_limits@N@std@@2HB DD 0134H	; std::numeric_limits<double>::max_exponent10
CONST	ENDS
;	COMDAT ?max_exponent@?$numeric_limits@N@std@@2HB
CONST	SEGMENT
?max_exponent@?$numeric_limits@N@std@@2HB DD 0400H	; std::numeric_limits<double>::max_exponent
CONST	ENDS
;	COMDAT ?max_digits10@?$numeric_limits@N@std@@2HB
CONST	SEGMENT
?max_digits10@?$numeric_limits@N@std@@2HB DD 011H	; std::numeric_limits<double>::max_digits10
CONST	ENDS
;	COMDAT ?digits10@?$numeric_limits@N@std@@2HB
CONST	SEGMENT
?digits10@?$numeric_limits@N@std@@2HB DD 0fH		; std::numeric_limits<double>::digits10
CONST	ENDS
;	COMDAT ?digits@?$numeric_limits@N@std@@2HB
CONST	SEGMENT
?digits@?$numeric_limits@N@std@@2HB DD 035H		; std::numeric_limits<double>::digits
CONST	ENDS
;	COMDAT ?value@?$integral_constant@I$0A@@std@@2IB
CONST	SEGMENT
?value@?$integral_constant@I$0A@@std@@2IB DD 00H	; std::integral_constant<unsigned int,0>::value
CONST	ENDS
;	COMDAT ?min_exponent10@?$numeric_limits@M@std@@2HB
CONST	SEGMENT
?min_exponent10@?$numeric_limits@M@std@@2HB DD 0ffffffdbH ; std::numeric_limits<float>::min_exponent10
CONST	ENDS
;	COMDAT ?min_exponent@?$numeric_limits@M@std@@2HB
CONST	SEGMENT
?min_exponent@?$numeric_limits@M@std@@2HB DD 0ffffff83H	; std::numeric_limits<float>::min_exponent
CONST	ENDS
;	COMDAT ?max_exponent10@?$numeric_limits@M@std@@2HB
CONST	SEGMENT
?max_exponent10@?$numeric_limits@M@std@@2HB DD 026H	; std::numeric_limits<float>::max_exponent10
CONST	ENDS
;	COMDAT ?max_exponent@?$numeric_limits@M@std@@2HB
CONST	SEGMENT
?max_exponent@?$numeric_limits@M@std@@2HB DD 080H	; std::numeric_limits<float>::max_exponent
CONST	ENDS
;	COMDAT ?max_digits10@?$numeric_limits@M@std@@2HB
CONST	SEGMENT
?max_digits10@?$numeric_limits@M@std@@2HB DD 09H	; std::numeric_limits<float>::max_digits10
CONST	ENDS
;	COMDAT ?digits10@?$numeric_limits@M@std@@2HB
CONST	SEGMENT
?digits10@?$numeric_limits@M@std@@2HB DD 06H		; std::numeric_limits<float>::digits10
CONST	ENDS
;	COMDAT ?digits@?$numeric_limits@M@std@@2HB
CONST	SEGMENT
?digits@?$numeric_limits@M@std@@2HB DD 018H		; std::numeric_limits<float>::digits
CONST	ENDS
;	COMDAT ?digits10@?$numeric_limits@_K@std@@2HB
CONST	SEGMENT
?digits10@?$numeric_limits@_K@std@@2HB DD 013H		; std::numeric_limits<unsigned __int64>::digits10
CONST	ENDS
;	COMDAT ?digits@?$numeric_limits@_K@std@@2HB
CONST	SEGMENT
?digits@?$numeric_limits@_K@std@@2HB DD 040H		; std::numeric_limits<unsigned __int64>::digits
CONST	ENDS
;	COMDAT ?is_signed@?$numeric_limits@_K@std@@2_NB
CONST	SEGMENT
?is_signed@?$numeric_limits@_K@std@@2_NB DB 00H		; std::numeric_limits<unsigned __int64>::is_signed
CONST	ENDS
;	COMDAT ?digits10@?$numeric_limits@_J@std@@2HB
CONST	SEGMENT
?digits10@?$numeric_limits@_J@std@@2HB DD 012H		; std::numeric_limits<__int64>::digits10
CONST	ENDS
;	COMDAT ?digits@?$numeric_limits@_J@std@@2HB
CONST	SEGMENT
?digits@?$numeric_limits@_J@std@@2HB DD 03fH		; std::numeric_limits<__int64>::digits
CONST	ENDS
;	COMDAT ?is_signed@?$numeric_limits@_J@std@@2_NB
CONST	SEGMENT
?is_signed@?$numeric_limits@_J@std@@2_NB DB 01H		; std::numeric_limits<__int64>::is_signed
CONST	ENDS
;	COMDAT ?digits10@?$numeric_limits@K@std@@2HB
CONST	SEGMENT
?digits10@?$numeric_limits@K@std@@2HB DD 09H		; std::numeric_limits<unsigned long>::digits10
CONST	ENDS
;	COMDAT ?digits@?$numeric_limits@K@std@@2HB
CONST	SEGMENT
?digits@?$numeric_limits@K@std@@2HB DD 020H		; std::numeric_limits<unsigned long>::digits
CONST	ENDS
;	COMDAT ?is_signed@?$numeric_limits@K@std@@2_NB
CONST	SEGMENT
?is_signed@?$numeric_limits@K@std@@2_NB DB 00H		; std::numeric_limits<unsigned long>::is_signed
CONST	ENDS
;	COMDAT ?digits10@?$numeric_limits@J@std@@2HB
CONST	SEGMENT
?digits10@?$numeric_limits@J@std@@2HB DD 09H		; std::numeric_limits<long>::digits10
CONST	ENDS
;	COMDAT ?digits@?$numeric_limits@J@std@@2HB
CONST	SEGMENT
?digits@?$numeric_limits@J@std@@2HB DD 01fH		; std::numeric_limits<long>::digits
CONST	ENDS
;	COMDAT ?is_signed@?$numeric_limits@J@std@@2_NB
CONST	SEGMENT
?is_signed@?$numeric_limits@J@std@@2_NB DB 01H		; std::numeric_limits<long>::is_signed
CONST	ENDS
;	COMDAT ?digits10@?$numeric_limits@I@std@@2HB
CONST	SEGMENT
?digits10@?$numeric_limits@I@std@@2HB DD 09H		; std::numeric_limits<unsigned int>::digits10
CONST	ENDS
;	COMDAT ?digits@?$numeric_limits@I@std@@2HB
CONST	SEGMENT
?digits@?$numeric_limits@I@std@@2HB DD 020H		; std::numeric_limits<unsigned int>::digits
CONST	ENDS
;	COMDAT ?is_signed@?$numeric_limits@I@std@@2_NB
CONST	SEGMENT
?is_signed@?$numeric_limits@I@std@@2_NB DB 00H		; std::numeric_limits<unsigned int>::is_signed
CONST	ENDS
;	COMDAT ?table_size@?$ctype@D@std@@2IB
CONST	SEGMENT
?table_size@?$ctype@D@std@@2IB DD 0100H			; std::ctype<char>::table_size
CONST	ENDS
;	COMDAT ?digits10@?$numeric_limits@H@std@@2HB
CONST	SEGMENT
?digits10@?$numeric_limits@H@std@@2HB DD 09H		; std::numeric_limits<int>::digits10
CONST	ENDS
;	COMDAT ?digits@?$numeric_limits@H@std@@2HB
CONST	SEGMENT
?digits@?$numeric_limits@H@std@@2HB DD 01fH		; std::numeric_limits<int>::digits
CONST	ENDS
;	COMDAT ?value@?$_Sizeof@HU_Nil@std@@U12@U12@U12@U12@U12@U12@@std@@2IB
CONST	SEGMENT
?value@?$_Sizeof@HU_Nil@std@@U12@U12@U12@U12@U12@U12@@std@@2IB DD 01H ; std::_Sizeof<int,std::_Nil,std::_Nil,std::_Nil,std::_Nil,std::_Nil,std::_Nil,std::_Nil>::value
CONST	ENDS
;	COMDAT ?is_signed@?$numeric_limits@H@std@@2_NB
CONST	SEGMENT
?is_signed@?$numeric_limits@H@std@@2_NB DB 01H		; std::numeric_limits<int>::is_signed
CONST	ENDS
;	COMDAT ?digits10@?$numeric_limits@G@std@@2HB
CONST	SEGMENT
?digits10@?$numeric_limits@G@std@@2HB DD 04H		; std::numeric_limits<unsigned short>::digits10
CONST	ENDS
;	COMDAT ?digits@?$numeric_limits@G@std@@2HB
CONST	SEGMENT
?digits@?$numeric_limits@G@std@@2HB DD 010H		; std::numeric_limits<unsigned short>::digits
CONST	ENDS
;	COMDAT ?is_signed@?$numeric_limits@G@std@@2_NB
CONST	SEGMENT
?is_signed@?$numeric_limits@G@std@@2_NB DB 00H		; std::numeric_limits<unsigned short>::is_signed
CONST	ENDS
;	COMDAT ?digits10@?$numeric_limits@F@std@@2HB
CONST	SEGMENT
?digits10@?$numeric_limits@F@std@@2HB DD 04H		; std::numeric_limits<short>::digits10
CONST	ENDS
;	COMDAT ?digits@?$numeric_limits@F@std@@2HB
CONST	SEGMENT
?digits@?$numeric_limits@F@std@@2HB DD 0fH		; std::numeric_limits<short>::digits
CONST	ENDS
;	COMDAT ?none@?$_Locbase@H@std@@2HB
CONST	SEGMENT
?none@?$_Locbase@H@std@@2HB DD 00H			; std::_Locbase<int>::none
CONST	ENDS
;	COMDAT ?is_signed@?$numeric_limits@F@std@@2_NB
CONST	SEGMENT
?is_signed@?$numeric_limits@F@std@@2_NB DB 01H		; std::numeric_limits<short>::is_signed
CONST	ENDS
;	COMDAT ?all@?$_Locbase@H@std@@2HB
CONST	SEGMENT
?all@?$_Locbase@H@std@@2HB DD 03fH			; std::_Locbase<int>::all
CONST	ENDS
;	COMDAT ?messages@?$_Locbase@H@std@@2HB
CONST	SEGMENT
?messages@?$_Locbase@H@std@@2HB DD 020H			; std::_Locbase<int>::messages
CONST	ENDS
;	COMDAT ?time@?$_Locbase@H@std@@2HB
CONST	SEGMENT
?time@?$_Locbase@H@std@@2HB DD 010H			; std::_Locbase<int>::time
CONST	ENDS
;	COMDAT ?numeric@?$_Locbase@H@std@@2HB
CONST	SEGMENT
?numeric@?$_Locbase@H@std@@2HB DD 08H			; std::_Locbase<int>::numeric
CONST	ENDS
;	COMDAT ?monetary@?$_Locbase@H@std@@2HB
CONST	SEGMENT
?monetary@?$_Locbase@H@std@@2HB DD 04H			; std::_Locbase<int>::monetary
CONST	ENDS
;	COMDAT ?ctype@?$_Locbase@H@std@@2HB
CONST	SEGMENT
?ctype@?$_Locbase@H@std@@2HB DD 02H			; std::_Locbase<int>::ctype
CONST	ENDS
;	COMDAT ?collate@?$_Locbase@H@std@@2HB
CONST	SEGMENT
?collate@?$_Locbase@H@std@@2HB DD 01H			; std::_Locbase<int>::collate
CONST	ENDS
;	COMDAT ?digits10@?$numeric_limits@E@std@@2HB
CONST	SEGMENT
?digits10@?$numeric_limits@E@std@@2HB DD 02H		; std::numeric_limits<unsigned char>::digits10
CONST	ENDS
;	COMDAT ?digits@?$numeric_limits@E@std@@2HB
CONST	SEGMENT
?digits@?$numeric_limits@E@std@@2HB DD 08H		; std::numeric_limits<unsigned char>::digits
CONST	ENDS
;	COMDAT ?is_signed@?$numeric_limits@E@std@@2_NB
CONST	SEGMENT
?is_signed@?$numeric_limits@E@std@@2_NB DB 00H		; std::numeric_limits<unsigned char>::is_signed
CONST	ENDS
;	COMDAT ?digits10@?$numeric_limits@C@std@@2HB
CONST	SEGMENT
?digits10@?$numeric_limits@C@std@@2HB DD 02H		; std::numeric_limits<signed char>::digits10
CONST	ENDS
;	COMDAT ?digits@?$numeric_limits@C@std@@2HB
CONST	SEGMENT
?digits@?$numeric_limits@C@std@@2HB DD 07H		; std::numeric_limits<signed char>::digits
CONST	ENDS
;	COMDAT ?is_signed@?$numeric_limits@C@std@@2_NB
CONST	SEGMENT
?is_signed@?$numeric_limits@C@std@@2_NB DB 01H		; std::numeric_limits<signed char>::is_signed
CONST	ENDS
;	COMDAT ?digits10@?$numeric_limits@_N@std@@2HB
CONST	SEGMENT
?digits10@?$numeric_limits@_N@std@@2HB DD 00H		; std::numeric_limits<bool>::digits10
CONST	ENDS
;	COMDAT ?digits@?$numeric_limits@_N@std@@2HB
CONST	SEGMENT
?digits@?$numeric_limits@_N@std@@2HB DD 01H		; std::numeric_limits<bool>::digits
CONST	ENDS
;	COMDAT ?is_signed@?$numeric_limits@_N@std@@2_NB
CONST	SEGMENT
?is_signed@?$numeric_limits@_N@std@@2_NB DB 00H		; std::numeric_limits<bool>::is_signed
CONST	ENDS
;	COMDAT ?is_modulo@?$numeric_limits@_N@std@@2_NB
CONST	SEGMENT
?is_modulo@?$numeric_limits@_N@std@@2_NB DB 00H		; std::numeric_limits<bool>::is_modulo
CONST	ENDS
PUBLIC	??2@YAPAXIPAX@Z					; operator new
PUBLIC	??3@YAXPAX0@Z					; operator delete
PUBLIC	?length@?$char_traits@D@std@@SAIPBD@Z		; std::char_traits<char>::length
PUBLIC	?copy@?$char_traits@D@std@@SAPADPADPBDI@Z	; std::char_traits<char>::copy
PUBLIC	?move@?$char_traits@D@std@@SAPADPADPBDI@Z	; std::char_traits<char>::move
PUBLIC	?assign@?$char_traits@D@std@@SAXAADABD@Z	; std::char_traits<char>::assign
PUBLIC	??0?$allocator@D@std@@QAE@XZ			; std::allocator<char>::allocator<char>
PUBLIC	?deallocate@?$allocator@D@std@@QAEXPADI@Z	; std::allocator<char>::deallocate
PUBLIC	?allocate@?$allocator@D@std@@QAEPADI@Z		; std::allocator<char>::allocate
PUBLIC	?max_size@?$allocator@D@std@@QBEIXZ		; std::allocator<char>::max_size
PUBLIC	?max_size@?$allocator_traits@V?$allocator@D@std@@@std@@SAIABV?$allocator@D@2@@Z ; std::allocator_traits<std::allocator<char> >::max_size
PUBLIC	??0?$_Wrap_alloc@V?$allocator@D@std@@@std@@QAE@XZ ; std::_Wrap_alloc<std::allocator<char> >::_Wrap_alloc<std::allocator<char> >
PUBLIC	?allocate@?$_Wrap_alloc@V?$allocator@D@std@@@std@@QAEPADI@Z ; std::_Wrap_alloc<std::allocator<char> >::allocate
PUBLIC	?deallocate@?$_Wrap_alloc@V?$allocator@D@std@@@std@@QAEXPADI@Z ; std::_Wrap_alloc<std::allocator<char> >::deallocate
PUBLIC	?max_size@?$_Wrap_alloc@V?$allocator@D@std@@@std@@QBEIXZ ; std::_Wrap_alloc<std::allocator<char> >::max_size
PUBLIC	??0?$_String_val@U?$_Simple_types@D@std@@@std@@QAE@XZ ; std::_String_val<std::_Simple_types<char> >::_String_val<std::_Simple_types<char> >
PUBLIC	?_Myptr@?$_String_val@U?$_Simple_types@D@std@@@std@@QAEPADXZ ; std::_String_val<std::_Simple_types<char> >::_Myptr
PUBLIC	?_Myptr@?$_String_val@U?$_Simple_types@D@std@@@std@@QBEPBDXZ ; std::_String_val<std::_Simple_types<char> >::_Myptr
PUBLIC	??0?$_String_alloc@$0A@U?$_String_base_types@DV?$allocator@D@std@@@std@@@std@@QAE@ABV?$allocator@D@1@@Z ; std::_String_alloc<0,std::_String_base_types<char,std::allocator<char> > >::_String_alloc<0,std::_String_base_types<char,std::allocator<char> > >
PUBLIC	?_Getal@?$_String_alloc@$0A@U?$_String_base_types@DV?$allocator@D@std@@@std@@@std@@QBE?AU?$_Wrap_alloc@V?$allocator@D@std@@@2@XZ ; std::_String_alloc<0,std::_String_base_types<char,std::allocator<char> > >::_Getal
PUBLIC	??0?$basic_string@DU?$char_traits@D@std@@V?$allocator@D@2@@std@@QAE@PBD@Z ; std::basic_string<char,std::char_traits<char>,std::allocator<char> >::basic_string<char,std::char_traits<char>,std::allocator<char> >
PUBLIC	?assign@?$basic_string@DU?$char_traits@D@std@@V?$allocator@D@2@@std@@QAEAAV12@ABV12@II@Z ; std::basic_string<char,std::char_traits<char>,std::allocator<char> >::assign
PUBLIC	?assign@?$basic_string@DU?$char_traits@D@std@@V?$allocator@D@2@@std@@QAEAAV12@PBDI@Z ; std::basic_string<char,std::char_traits<char>,std::allocator<char> >::assign
PUBLIC	?assign@?$basic_string@DU?$char_traits@D@std@@V?$allocator@D@2@@std@@QAEAAV12@PBD@Z ; std::basic_string<char,std::char_traits<char>,std::allocator<char> >::assign
PUBLIC	?erase@?$basic_string@DU?$char_traits@D@std@@V?$allocator@D@2@@std@@QAEAAV12@I@Z ; std::basic_string<char,std::char_traits<char>,std::allocator<char> >::erase
PUBLIC	?erase@?$basic_string@DU?$char_traits@D@std@@V?$allocator@D@2@@std@@QAEAAV12@II@Z ; std::basic_string<char,std::char_traits<char>,std::allocator<char> >::erase
PUBLIC	?size@?$basic_string@DU?$char_traits@D@std@@V?$allocator@D@2@@std@@QBEIXZ ; std::basic_string<char,std::char_traits<char>,std::allocator<char> >::size
PUBLIC	?max_size@?$basic_string@DU?$char_traits@D@std@@V?$allocator@D@2@@std@@QBEIXZ ; std::basic_string<char,std::char_traits<char>,std::allocator<char> >::max_size
PUBLIC	?_Copy@?$basic_string@DU?$char_traits@D@std@@V?$allocator@D@2@@std@@QAEXII@Z ; std::basic_string<char,std::char_traits<char>,std::allocator<char> >::_Copy
PUBLIC	?_Eos@?$basic_string@DU?$char_traits@D@std@@V?$allocator@D@2@@std@@QAEXI@Z ; std::basic_string<char,std::char_traits<char>,std::allocator<char> >::_Eos
PUBLIC	?_Grow@?$basic_string@DU?$char_traits@D@std@@V?$allocator@D@2@@std@@QAE_NI_N@Z ; std::basic_string<char,std::char_traits<char>,std::allocator<char> >::_Grow
PUBLIC	?_Inside@?$basic_string@DU?$char_traits@D@std@@V?$allocator@D@2@@std@@QAE_NPBD@Z ; std::basic_string<char,std::char_traits<char>,std::allocator<char> >::_Inside
PUBLIC	?_Tidy@?$basic_string@DU?$char_traits@D@std@@V?$allocator@D@2@@std@@QAEX_NI@Z ; std::basic_string<char,std::char_traits<char>,std::allocator<char> >::_Tidy
PUBLIC	?_Xlen@?$basic_string@DU?$char_traits@D@std@@V?$allocator@D@2@@std@@QBEXXZ ; std::basic_string<char,std::char_traits<char>,std::allocator<char> >::_Xlen
PUBLIC	?_Xran@?$basic_string@DU?$char_traits@D@std@@V?$allocator@D@2@@std@@QBEXXZ ; std::basic_string<char,std::char_traits<char>,std::allocator<char> >::_Xran
PUBLIC	??0id@locale@std@@QAE@I@Z			; std::locale::id::id
PUBLIC	?generic_category@std@@YAABVerror_category@1@XZ	; std::generic_category
PUBLIC	?system_category@std@@YAABVerror_category@1@XZ	; std::system_category
PUBLIC	??0error_category@std@@QAE@XZ			; std::error_category::error_category
PUBLIC	??1error_category@std@@UAE@XZ			; std::error_category::~error_category
PUBLIC	?default_error_condition@error_category@std@@UBE?AVerror_condition@2@H@Z ; std::error_category::default_error_condition
PUBLIC	?equivalent@error_category@std@@UBE_NHABVerror_condition@2@@Z ; std::error_category::equivalent
PUBLIC	?equivalent@error_category@std@@UBE_NABVerror_code@2@H@Z ; std::error_category::equivalent
PUBLIC	??8error_category@std@@QBE_NABV01@@Z		; std::error_category::operator==
PUBLIC	??_Gerror_category@std@@UAEPAXI@Z		; std::error_category::`scalar deleting destructor'
PUBLIC	?value@error_code@std@@QBEHXZ			; std::error_code::value
PUBLIC	?category@error_code@std@@QBEABVerror_category@2@XZ ; std::error_code::category
PUBLIC	??0error_condition@std@@QAE@HABVerror_category@1@@Z ; std::error_condition::error_condition
PUBLIC	?value@error_condition@std@@QBEHXZ		; std::error_condition::value
PUBLIC	?category@error_condition@std@@QBEABVerror_category@2@XZ ; std::error_condition::category
PUBLIC	??8error_condition@std@@QBE_NABV01@@Z		; std::error_condition::operator==
PUBLIC	??0_Generic_error_category@std@@QAE@XZ		; std::_Generic_error_category::_Generic_error_category
PUBLIC	?name@_Generic_error_category@std@@UBEPBDXZ	; std::_Generic_error_category::name
PUBLIC	?message@_Generic_error_category@std@@UBE?AV?$basic_string@DU?$char_traits@D@std@@V?$allocator@D@2@@2@H@Z ; std::_Generic_error_category::message
PUBLIC	??1_Generic_error_category@std@@UAE@XZ		; std::_Generic_error_category::~_Generic_error_category
PUBLIC	??_G_Generic_error_category@std@@UAEPAXI@Z	; std::_Generic_error_category::`scalar deleting destructor'
PUBLIC	??0_Iostream_error_category@std@@QAE@XZ		; std::_Iostream_error_category::_Iostream_error_category
PUBLIC	?name@_Iostream_error_category@std@@UBEPBDXZ	; std::_Iostream_error_category::name
PUBLIC	?message@_Iostream_error_category@std@@UBE?AV?$basic_string@DU?$char_traits@D@std@@V?$allocator@D@2@@2@H@Z ; std::_Iostream_error_category::message
PUBLIC	??1_Iostream_error_category@std@@UAE@XZ		; std::_Iostream_error_category::~_Iostream_error_category
PUBLIC	??_G_Iostream_error_category@std@@UAEPAXI@Z	; std::_Iostream_error_category::`scalar deleting destructor'
PUBLIC	??0_System_error_category@std@@QAE@XZ		; std::_System_error_category::_System_error_category
PUBLIC	?name@_System_error_category@std@@UBEPBDXZ	; std::_System_error_category::name
PUBLIC	?message@_System_error_category@std@@UBE?AV?$basic_string@DU?$char_traits@D@std@@V?$allocator@D@2@@2@H@Z ; std::_System_error_category::message
PUBLIC	?default_error_condition@_System_error_category@std@@UBE?AVerror_condition@2@H@Z ; std::_System_error_category::default_error_condition
PUBLIC	??1_System_error_category@std@@UAE@XZ		; std::_System_error_category::~_System_error_category
PUBLIC	??_G_System_error_category@std@@UAEPAXI@Z	; std::_System_error_category::`scalar deleting destructor'
PUBLIC	??8VU_SESSION_ID@@QBEHABV0@@Z			; VU_SESSION_ID::operator==
PUBLIC	??9VU_ID@@QBE_NABV0@@Z				; VU_ID::operator!=
PUBLIC	?Id@VuEntity@@QBE?AVVU_ID@@XZ			; VuEntity::Id
PUBLIC	?XPos@VuEntity@@QBEMXZ				; VuEntity::XPos
PUBLIC	?YPos@VuEntity@@QBEMXZ				; VuEntity::YPos
PUBLIC	?ZPos@VuEntity@@QBEMXZ				; VuEntity::ZPos
PUBLIC	?GetType@C_Base@@QAEFXZ				; C_Base::GetType
PUBLIC	?_GetCType_@C_Base@@QAEFXZ			; C_Base::_GetCType_
PUBLIC	?GetX@C_Base@@QAEJXZ				; C_Base::GetX
PUBLIC	?GetY@C_Base@@QAEJXZ				; C_Base::GetY
PUBLIC	?GetRoot@C_TreeList@@QAEPAVTREELIST@@XZ		; C_TreeList::GetRoot
PUBLIC	?GetLastItem@C_TreeList@@QAEPAVTREELIST@@XZ	; C_TreeList::GetLastItem
PUBLIC	?SetOpenCallback@C_PopupList@@QAEXP6AXPAVC_Base@@0@Z@Z ; C_PopupList::SetOpenCallback
PUBLIC	?GetCallingType@C_PopupMgr@@QAEFXZ		; C_PopupMgr::GetCallingType
PUBLIC	?GetCallingControl@C_PopupMgr@@QAEPAVC_Base@@XZ	; C_PopupMgr::GetCallingControl
PUBLIC	?GetID@C_Window@@QAEJXZ				; C_Window::GetID
PUBLIC	?GetX@C_Window@@QAEFXZ				; C_Window::GetX
PUBLIC	?GetY@C_Window@@QAEFXZ				; C_Window::GetY
PUBLIC	?GetIconID@C_MapIcon@@QAEJXZ			; C_MapIcon::GetIconID
PUBLIC	?GetLast@C_Waypoint@@QAEPAVWAYPOINTLIST@@XZ	; C_Waypoint::GetLast
PUBLIC	?GetIconID@C_DrawList@@QAEJXZ			; C_DrawList::GetIconID
PUBLIC	?GetLastItem@C_DrawList@@QAEPAVMAPICONLIST@@XZ	; C_DrawList::GetLastItem
PUBLIC	?SetWPRouteAction@WayPointClass@@QAEXH@Z	; WayPointClass::SetWPRouteAction
PUBLIC	?SetWPFormation@WayPointClass@@QAEXH@Z		; WayPointClass::SetWPFormation
PUBLIC	?SetWPFlag@WayPointClass@@QAEXK@Z		; WayPointClass::SetWPFlag
PUBLIC	?UnSetWPFlag@WayPointClass@@QAEXK@Z		; WayPointClass::UnSetWPFlag
PUBLIC	?GetWPAction@WayPointClass@@QAEHXZ		; WayPointClass::GetWPAction
PUBLIC	?GetWPRouteAction@WayPointClass@@QAEHXZ		; WayPointClass::GetWPRouteAction
PUBLIC	?GetWPFormation@WayPointClass@@QAEHXZ		; WayPointClass::GetWPFormation
PUBLIC	?GetWPFlags@WayPointClass@@QAEKXZ		; WayPointClass::GetWPFlags
PUBLIC	?GetNextWP@WayPointClass@@QAEPAV1@XZ		; WayPointClass::GetNextWP
PUBLIC	?GetPrevWP@WayPointClass@@QAEPAV1@XZ		; WayPointClass::GetPrevWP
PUBLIC	?GetIdentified@CampBaseClass@@QAEHE@Z		; CampBaseClass::GetIdentified
PUBLIC	?GetFirstUnitWP@UnitClass@@QAEPAVWayPointClass@@XZ ; UnitClass::GetFirstUnitWP
PUBLIC	?GetCurWP@C_Map@@QAEPAVC_Waypoint@@XZ		; C_Map::GetCurWP
PUBLIC	?GetCurWPID@C_Map@@QAE?AVVU_ID@@XZ		; C_Map::GetCurWPID
PUBLIC	?GetMaxY@C_Map@@QAEMXZ				; C_Map::GetMaxY
PUBLIC	?GetMapScale@C_Map@@QAEMXZ			; C_Map::GetMapScale
PUBLIC	?GetMapRelativeXY@C_Map@@QAEXPAF0@Z		; C_Map::GetMapRelativeXY
PUBLIC	??0C_3dViewer@@QAE@XZ				; C_3dViewer::C_3dViewer
PUBLIC	??1C_3dViewer@@QAE@XZ				; C_3dViewer::~C_3dViewer
PUBLIC	??_GC_3dViewer@@QAEPAXI@Z			; C_3dViewer::`scalar deleting destructor'
PUBLIC	?GetTeamNo@GlobalPositioningSystem@@QAEJXZ	; GlobalPositioningSystem::GetTeamNo
PUBLIC	?GetID@UI_Refresher@@QAE?AVVU_ID@@XZ		; UI_Refresher::GetID
PUBLIC	?GetDivID@UI_Refresher@@QAEFXZ			; UI_Refresher::GetDivID
PUBLIC	?GetType@UI_Refresher@@QAEEXZ			; UI_Refresher::GetType
PUBLIC	?GetSide@UI_Refresher@@QAEEXZ			; UI_Refresher::GetSide
PUBLIC	?MenuToggleObjectiveCB@@YAXJFPAVC_Base@@@Z	; MenuToggleObjectiveCB
PUBLIC	?MenuToggleUnitCB@@YAXJFPAVC_Base@@@Z		; MenuToggleUnitCB
PUBLIC	?MenuToggleNamesCB@@YAXJFPAVC_Base@@@Z		; MenuToggleNamesCB
PUBLIC	?MenuToggleBullseyeCB@@YAXJFPAVC_Base@@@Z	; MenuToggleBullseyeCB
PUBLIC	?MenuSetCirclesCB@@YAXJFPAVC_Base@@@Z		; MenuSetCirclesCB
PUBLIC	?MenuToggleTroupBoundariesCB@@YAXJFPAVC_Base@@@Z ; MenuToggleTroupBoundariesCB
PUBLIC	?MenuToggleMovementArrowsCB@@YAXJFPAVC_Base@@@Z	; MenuToggleMovementArrowsCB
PUBLIC	?MenuObjReconCB@@YAXJFPAVC_Base@@@Z		; MenuObjReconCB
PUBLIC	?MenuAlternateCB@@YAXJFPAVC_Base@@@Z		; MenuAlternateCB
PUBLIC	?GetSelectedWayPoint@@YAPAVWayPointClass@@XZ	; GetSelectedWayPoint
PUBLIC	?SteerPointMenuOpenCB@@YAXPAVC_Base@@0@Z	; SteerPointMenuOpenCB
PUBLIC	?MenuUnitDeleteCB@@YAXJFPAVC_Base@@@Z		; MenuUnitDeleteCB
PUBLIC	?MenuReconCB@@YAXJFPAVC_Base@@@Z		; MenuReconCB
PUBLIC	?MenuStatusCB@@YAXJFPAVC_Base@@@Z		; MenuStatusCB
PUBLIC	?MenuUnitStatusCB@@YAXJFPAVC_Base@@@Z		; MenuUnitStatusCB
PUBLIC	?MenuShowSquadronsCB@@YAXJFPAVC_Base@@@Z	; MenuShowSquadronsCB
PUBLIC	?MenuOpenWpWindowCB@@YAXJFPAVC_Base@@@Z		; MenuOpenWpWindowCB
PUBLIC	?MenuLockCB@@YAXJFPAVC_Base@@@Z			; MenuLockCB
PUBLIC	?MenuClimbCB@@YAXJFPAVC_Base@@@Z		; MenuClimbCB
PUBLIC	?MenuFormationCB@@YAXJFPAVC_Base@@@Z		; MenuFormationCB
PUBLIC	?MenuEnrouteCB@@YAXJFPAVC_Base@@@Z		; MenuEnrouteCB
PUBLIC	?MenuActionCB@@YAXJFPAVC_Base@@@Z		; MenuActionCB
PUBLIC	?MenuAddWPCB@@YAXJFPAVC_Base@@@Z		; MenuAddWPCB
PUBLIC	?MenuDeleteWPCB@@YAXJFPAVC_Base@@@Z		; MenuDeleteWPCB
PUBLIC	?MenuEditPackageCB@@YAXJFPAVC_Base@@@Z		; MenuEditPackageCB
PUBLIC	?MenuSetOwnerCB@@YAXJFPAVC_Base@@@Z		; MenuSetOwnerCB
PUBLIC	?MenuAddUnitCB@@YAXJFPAVC_Base@@@Z		; MenuAddUnitCB
PUBLIC	?MenuAddVCCB@@YAXJFPAVC_Base@@@Z		; MenuAddVCCB
PUBLIC	?SetMapSettings@@YAXXZ				; SetMapSettings
PUBLIC	?SetupCampaignMenus@@YAXXZ			; SetupCampaignMenus
PUBLIC	?SetupTacEngMenus@@YAXF@Z			; SetupTacEngMenus
PUBLIC	?MapMenuOpenCB@@YAXPAVC_Base@@0@Z		; MapMenuOpenCB
PUBLIC	?OpenUnitMenuCB@@YAXPAVC_Base@@0@Z		; OpenUnitMenuCB
PUBLIC	?OpenNavalMenuCB@@YAXPAVC_Base@@0@Z		; OpenNavalMenuCB
PUBLIC	?ObjMenuOpenCB@@YAXPAVC_Base@@0@Z		; ObjMenuOpenCB
PUBLIC	?HookupCampaignMenus@@YAXXZ			; HookupCampaignMenus
PUBLIC	??$construct@PADAAPAD@?$_Wrap_alloc@V?$allocator@D@std@@@std@@QAEXPAPADAAPAD@Z ; std::_Wrap_alloc<std::allocator<char> >::construct<char *,char * &>
PUBLIC	??$destroy@PAD@?$_Wrap_alloc@V?$allocator@D@std@@@std@@QAEXPAPAD@Z ; std::_Wrap_alloc<std::allocator<char> >::destroy<char *>
PUBLIC	??$addressof@D@std@@YAPADAAD@Z			; std::addressof<char>
PUBLIC	??$_Allocate@D@std@@YAPADIPAD@Z			; std::_Allocate<char>
PUBLIC	??$forward@AAPAD@std@@YAAAPADAAPAD@Z		; std::forward<char * &>
PUBLIC	??$construct@PADAAPAD@?$allocator_traits@V?$allocator@D@std@@@std@@SAXAAV?$allocator@D@1@PAPADAAPAD@Z ; std::allocator_traits<std::allocator<char> >::construct<char *,char * &>
PUBLIC	??$destroy@PAD@?$allocator_traits@V?$allocator@D@std@@@std@@SAXAAV?$allocator@D@1@PAPAD@Z ; std::allocator_traits<std::allocator<char> >::destroy<char *>
PUBLIC	??$construct@PADAAPAD@?$allocator@D@std@@QAEXPAPADAAPAD@Z ; std::allocator<char>::construct<char *,char * &>
PUBLIC	??$destroy@PAD@?$allocator@D@std@@QAEXPAPAD@Z	; std::allocator<char>::destroy<char *>
PUBLIC	??_7error_category@std@@6B@			; std::error_category::`vftable'
PUBLIC	??_7_Generic_error_category@std@@6B@		; std::_Generic_error_category::`vftable'
PUBLIC	??_C@_07DCLBNMLN@generic?$AA@			; `string'
PUBLIC	??_C@_0O@BFJCFAAK@unknown?5error?$AA@		; `string'
PUBLIC	??_7_Iostream_error_category@std@@6B@		; std::_Iostream_error_category::`vftable'
PUBLIC	??_C@_08LLGCOLLL@iostream?$AA@			; `string'
PUBLIC	??_C@_0BG@PADBLCHM@iostream?5stream?5error?$AA@	; `string'
PUBLIC	??_7_System_error_category@std@@6B@		; std::_System_error_category::`vftable'
PUBLIC	??_C@_06FHFOAHML@system?$AA@			; `string'
PUBLIC	?_Generic_object@?$_Error_objects@H@std@@2V_Generic_error_category@2@A ; std::_Error_objects<int>::_Generic_object
PUBLIC	?_Iostream_object@?$_Error_objects@H@std@@2V_Iostream_error_category@2@A ; std::_Error_objects<int>::_Iostream_object
PUBLIC	?_System_object@?$_Error_objects@H@std@@2V_System_error_category@2@A ; std::_Error_objects<int>::_System_object
PUBLIC	?id@?$num_put@DV?$back_insert_iterator@V?$basic_string@DU?$char_traits@D@std@@V?$allocator@D@2@@std@@@std@@@std@@2V0locale@2@A ; std::num_put<char,std::back_insert_iterator<std::basic_string<char,std::char_traits<char>,std::allocator<char> > > >::id
PUBLIC	?id@?$num_put@_WV?$back_insert_iterator@V?$basic_string@_WU?$char_traits@_W@std@@V?$allocator@_W@2@@std@@@std@@@std@@2V0locale@2@A ; std::num_put<wchar_t,std::back_insert_iterator<std::basic_string<wchar_t,std::char_traits<wchar_t>,std::allocator<wchar_t> > > >::id
PUBLIC	?id@?$numpunct@D@std@@2V0locale@2@A		; std::numpunct<char>::id
PUBLIC	?id@?$numpunct@_W@std@@2V0locale@2@A		; std::numpunct<wchar_t>::id
PUBLIC	??_C@_0BI@CFPLBAOH@invalid?5string?5position?$AA@ ; `string'
PUBLIC	??_C@_0BA@JFNIOLAK@string?5too?5long?$AA@	; `string'
PUBLIC	??_R4error_category@std@@6B@			; std::error_category::`RTTI Complete Object Locator'
PUBLIC	??_R0?AVerror_category@std@@@8			; std::error_category `RTTI Type Descriptor'
PUBLIC	??_R3error_category@std@@8			; std::error_category::`RTTI Class Hierarchy Descriptor'
PUBLIC	??_R2error_category@std@@8			; std::error_category::`RTTI Base Class Array'
PUBLIC	??_R1A@?0A@EA@error_category@std@@8		; std::error_category::`RTTI Base Class Descriptor at (0,-1,0,64)'
PUBLIC	??_R4_Generic_error_category@std@@6B@		; std::_Generic_error_category::`RTTI Complete Object Locator'
PUBLIC	??_R0?AV_Generic_error_category@std@@@8		; std::_Generic_error_category `RTTI Type Descriptor'
PUBLIC	??_R3_Generic_error_category@std@@8		; std::_Generic_error_category::`RTTI Class Hierarchy Descriptor'
PUBLIC	??_R2_Generic_error_category@std@@8		; std::_Generic_error_category::`RTTI Base Class Array'
PUBLIC	??_R1A@?0A@EA@_Generic_error_category@std@@8	; std::_Generic_error_category::`RTTI Base Class Descriptor at (0,-1,0,64)'
PUBLIC	??_R4_Iostream_error_category@std@@6B@		; std::_Iostream_error_category::`RTTI Complete Object Locator'
PUBLIC	??_R0?AV_Iostream_error_category@std@@@8	; std::_Iostream_error_category `RTTI Type Descriptor'
PUBLIC	??_R3_Iostream_error_category@std@@8		; std::_Iostream_error_category::`RTTI Class Hierarchy Descriptor'
PUBLIC	??_R2_Iostream_error_category@std@@8		; std::_Iostream_error_category::`RTTI Base Class Array'
PUBLIC	??_R1A@?0A@EA@_Iostream_error_category@std@@8	; std::_Iostream_error_category::`RTTI Base Class Descriptor at (0,-1,0,64)'
PUBLIC	??_R4_System_error_category@std@@6B@		; std::_System_error_category::`RTTI Complete Object Locator'
PUBLIC	??_R0?AV_System_error_category@std@@@8		; std::_System_error_category `RTTI Type Descriptor'
PUBLIC	??_R3_System_error_category@std@@8		; std::_System_error_category::`RTTI Class Hierarchy Descriptor'
PUBLIC	??_R2_System_error_category@std@@8		; std::_System_error_category::`RTTI Base Class Array'
PUBLIC	??_R1A@?0A@EA@_System_error_category@std@@8	; std::_System_error_category::`RTTI Base Class Descriptor at (0,-1,0,64)'
PUBLIC	__real@00000000
PUBLIC	__real@3f800000
PUBLIC	__real@40a00000
PUBLIC	__real@41f00000
PUBLIC	__real@428c0000
PUBLIC	__real@42b40000
PUBLIC	__real@437a0000
PUBLIC	__real@44160000
PUBLIC	__real@44480000
PUBLIC	__real@447a0000
PUBLIC	__real@45bb8000
PUBLIC	__real@461c4000
PUBLIC	__real@468ca000
PUBLIC	__real@46ea6000
PUBLIC	__real@47001fcd
PUBLIC	__real@bf800000
EXTRN	__purecall:PROC
EXTRN	??2@YAPAXI@Z:PROC				; operator new
EXTRN	??3@YAXPAX@Z:PROC				; operator delete
EXTRN	_atexit:PROC
EXTRN	___report_rangecheckfailure:PROC
EXTRN	_memcpy:PROC
EXTRN	_strlen:PROC
EXTRN	_memmove:PROC
EXTRN	__imp__SetCursor@4:PROC
EXTRN	?_Xbad_alloc@std@@YAXXZ:PROC			; std::_Xbad_alloc
EXTRN	?_Xlength_error@std@@YAXPBD@Z:PROC		; std::_Xlength_error
EXTRN	?_Xout_of_range@std@@YAXPBD@Z:PROC		; std::_Xout_of_range
EXTRN	??_Eerror_category@std@@UAEPAXI@Z:PROC		; std::error_category::`vector deleting destructor'
EXTRN	?_Syserror_map@std@@YAPBDH@Z:PROC		; std::_Syserror_map
EXTRN	?_Winerror_map@std@@YAPBDH@Z:PROC		; std::_Winerror_map
EXTRN	??_E_Generic_error_category@std@@UAEPAXI@Z:PROC	; std::_Generic_error_category::`vector deleting destructor'
EXTRN	??_E_Iostream_error_category@std@@UAEPAXI@Z:PROC ; std::_Iostream_error_category::`vector deleting destructor'
EXTRN	??_E_System_error_category@std@@UAEPAXI@Z:PROC	; std::_System_error_category::`vector deleting destructor'
EXTRN	?WaitLoader@Loader@@QAEXXZ:PROC			; Loader::WaitLoader
EXTRN	?Find@VuDatabase@@QBEPAVVuEntity@@VVU_ID@@@Z:PROC ; VuDatabase::Find
EXTRN	?GetUserNumber@C_Base@@QAEJJ@Z:PROC		; C_Base::GetUserNumber
EXTRN	?GetUserPtr@C_Base@@QAEPAXJ@Z:PROC		; C_Base::GetUserPtr
EXTRN	?DeleteBranch@C_TreeList@@QAEXPAVTREELIST@@@Z:PROC ; C_TreeList::DeleteBranch
EXTRN	?RecalcSize@C_TreeList@@QAEXXZ:PROC		; C_TreeList::RecalcSize
EXTRN	?AddItem@C_PopupList@@QAEHJFPADJ@Z:PROC		; C_PopupList::AddItem
EXTRN	?SetCallback@C_PopupList@@QAEXJP6AXJFPAVC_Base@@@Z@Z:PROC ; C_PopupList::SetCallback
EXTRN	?SetItemFlagBitOn@C_PopupList@@QAEXJJ@Z:PROC	; C_PopupList::SetItemFlagBitOn
EXTRN	?SetItemFlagBitOff@C_PopupList@@QAEXJJ@Z:PROC	; C_PopupList::SetItemFlagBitOff
EXTRN	?SetItemState@C_PopupList@@QAEXJF@Z:PROC	; C_PopupList::SetItemState
EXTRN	?GetItemState@C_PopupList@@QAEFJ@Z:PROC		; C_PopupList::GetItemState
EXTRN	?SetItemGroup@C_PopupList@@QAEXJJ@Z:PROC	; C_PopupList::SetItemGroup
EXTRN	?SetItemLabel@C_PopupList@@QAEXJPAD@Z:PROC	; C_PopupList::SetItemLabel
EXTRN	?GetMenu@C_PopupMgr@@QAEPAVC_PopupList@@J@Z:PROC ; C_PopupMgr::GetMenu
EXTRN	?CloseMenu@C_PopupMgr@@QAEXXZ:PROC		; C_PopupMgr::CloseMenu
EXTRN	?ScanClientAreas@C_Window@@QAEXXZ:PROC		; C_Window::ScanClientAreas
EXTRN	?RefreshWindow@C_Window@@QAEXXZ:PROC		; C_Window::RefreshWindow
EXTRN	?ShowWindow@C_Handler@@QAEHPAVC_Window@@@Z:PROC	; C_Handler::ShowWindow
EXTRN	?WindowToFront@C_Handler@@QAEXPAVC_Window@@@Z:PROC ; C_Handler::WindowToFront
EXTRN	?FindWindowA@C_Handler@@QAEPAVC_Window@@J@Z:PROC ; C_Handler::FindWindowA
EXTRN	?SplitWP@WayPointClass@@QAEXXZ:PROC		; WayPointClass::SplitWP
EXTRN	?Remove@CampBaseClass@@QAEHXZ:PROC		; CampBaseClass::Remove
EXTRN	?DeleteUnitWP@UnitClass@@QAEXPAVWayPointClass@@@Z:PROC ; UnitClass::DeleteUnitWP
EXTRN	?FindUnit@@YAPAVUnitClass@@VVU_ID@@@Z:PROC	; FindUnit
EXTRN	?GetName@TeamClass@@QAEPADXZ:PROC		; TeamClass::GetName
EXTRN	?SetUnitLevel@C_Map@@QAEXJ@Z:PROC		; C_Map::SetUnitLevel
EXTRN	?ShowObjectiveType@C_Map@@QAEXJ@Z:PROC		; C_Map::ShowObjectiveType
EXTRN	?HideObjectiveType@C_Map@@QAEXJ@Z:PROC		; C_Map::HideObjectiveType
EXTRN	?ShowUnitType@C_Map@@QAEXJ@Z:PROC		; C_Map::ShowUnitType
EXTRN	?HideUnitType@C_Map@@QAEXJ@Z:PROC		; C_Map::HideUnitType
EXTRN	?ShowAirUnitType@C_Map@@QAEXJ@Z:PROC		; C_Map::ShowAirUnitType
EXTRN	?HideAirUnitType@C_Map@@QAEXJ@Z:PROC		; C_Map::HideAirUnitType
EXTRN	?RefreshAllAirUnitType@C_Map@@QAEXXZ:PROC	; C_Map::RefreshAllAirUnitType
EXTRN	?ShowNavalUnitType@C_Map@@QAEXJ@Z:PROC		; C_Map::ShowNavalUnitType
EXTRN	?HideNavalUnitType@C_Map@@QAEXJ@Z:PROC		; C_Map::HideNavalUnitType
EXTRN	?ShowThreatType@C_Map@@QAEXJ@Z:PROC		; C_Map::ShowThreatType
EXTRN	?HideThreatType@C_Map@@QAEXJ@Z:PROC		; C_Map::HideThreatType
EXTRN	?SetCurrentWaypointList@C_Map@@QAEHVVU_ID@@@Z:PROC ; C_Map::SetCurrentWaypointList
EXTRN	?TurnOnNames@C_Map@@QAEXXZ:PROC			; C_Map::TurnOnNames
EXTRN	?TurnOffNames@C_Map@@QAEXXZ:PROC		; C_Map::TurnOffNames
EXTRN	?TurnOnBullseye@C_Map@@QAEXXZ:PROC		; C_Map::TurnOnBullseye
EXTRN	?TurnOffBullseye@C_Map@@QAEXXZ:PROC		; C_Map::TurnOffBullseye
EXTRN	?DrawMap@C_Map@@QAEXXZ:PROC			; C_Map::DrawMap
EXTRN	?Setup@C_3dViewer@@QAEHXZ:PROC			; C_3dViewer::Setup
EXTRN	?Cleanup@C_3dViewer@@QAEHXZ:PROC		; C_3dViewer::Cleanup
EXTRN	?Viewport@C_3dViewer@@QAEXPAVC_Window@@J@Z:PROC	; C_3dViewer::Viewport
EXTRN	?SetPosition@C_3dViewer@@QAEXMMM@Z:PROC		; C_3dViewer::SetPosition
EXTRN	?InitOTW@C_3dViewer@@QAEHMH@Z:PROC		; C_3dViewer::InitOTW
EXTRN	?AddAllToView@C_3dViewer@@QAEHXZ:PROC		; C_3dViewer::AddAllToView
EXTRN	?Find@GlobalPositioningSystem@@QAEPAXJ@Z:PROC	; GlobalPositioningSystem::Find
EXTRN	?Update@GlobalPositioningSystem@@QAEXXZ:PROC	; GlobalPositioningSystem::Update
EXTRN	?AddObjectiveToTargetTree@@YAXPAVObjectiveClass@@@Z:PROC ; AddObjectiveToTargetTree
EXTRN	?SetBullsEye@@YAXPAVC_Window@@@Z:PROC		; SetBullsEye
EXTRN	?SetSlantRange@@YAXPAVC_Window@@@Z:PROC		; SetSlantRange
EXTRN	?SetHeading@@YAXPAVC_Window@@@Z:PROC		; SetHeading
EXTRN	?PositionCamera@@YAXPAUOBJECTINFO@@PAVC_Window@@J@Z:PROC ; PositionCamera
EXTRN	?SetupUnitInfoWindow@@YAXVVU_ID@@@Z:PROC	; SetupUnitInfoWindow
EXTRN	?SetupDivisionInfoWindow@@YAXJF@Z:PROC		; SetupDivisionInfoWindow
EXTRN	?GetGroundUnitsNear@@YAXMMM@Z:PROC		; GetGroundUnitsNear
EXTRN	?ReconArea@@YAXMMM@Z:PROC			; ReconArea
EXTRN	?BuildSpecificTargetList@@YAXVVU_ID@@@Z:PROC	; BuildSpecificTargetList
EXTRN	?set_waypoint_action@@YAXPAVWayPointClass@@H@Z:PROC ; set_waypoint_action
EXTRN	?refresh_waypoint@@YAXPAVWayPointClass@@@Z:PROC	; refresh_waypoint
EXTRN	?tactical_add_victory_condition@@YAXVVU_ID@@PAVC_Base@@@Z:PROC ; tactical_add_victory_condition
EXTRN	?tactical_add_squadron@@YAXVVU_ID@@@Z:PROC	; tactical_add_squadron
EXTRN	?tactical_add_flight@@YAXVVU_ID@@PAVC_Base@@@Z:PROC ; tactical_add_flight
EXTRN	?tactical_add_package@@YAXVVU_ID@@PAVC_Base@@@Z:PROC ; tactical_add_package
EXTRN	?tactical_add_battalion@@YAXVVU_ID@@PAVC_Base@@@Z:PROC ; tactical_add_battalion
EXTRN	?recalculate_waypoints@@YAXPAVWayPointClass@@@Z:PROC ; recalculate_waypoints
EXTRN	?tactical_edit_package@@YAXVVU_ID@@PAVC_Base@@@Z:PROC ; tactical_edit_package
EXTRN	?fixup_unit@@YAXPAVUnitClass@@@Z:PROC		; fixup_unit
EXTRN	?SetupSquadronInfoWindow@@YAXVVU_ID@@@Z:PROC	; SetupSquadronInfoWindow
EXTRN	?CloseAllRenderers@@YAXJ@Z:PROC			; CloseAllRenderers
EXTRN	@__security_check_cookie@4:PROC
EXTRN	__CxxThrowException@8:PROC
EXTRN	___CxxFrameHandler3:PROC
EXTRN	?IMatrix@@3UTrotation@@B:BYTE			; IMatrix
EXTRN	??_7type_info@@6B@:QWORD			; type_info::`vftable'
EXTRN	?TheLoader@@3VLoader@@A:BYTE			; TheLoader
EXTRN	?vuDatabase@@3PAVVuDatabase@@A:DWORD		; vuDatabase
EXTRN	?FalconNullId@@3VVU_ID@@A:QWORD			; FalconNullId
EXTRN	?gPopupMgr@@3PAVC_PopupMgr@@A:DWORD		; gPopupMgr
EXTRN	?gCursors@@3PAPAUHICON__@@A:BYTE		; gCursors
EXTRN	?TheCampaign@@3VCampaignClass@@A:BYTE		; TheCampaign
EXTRN	?TeamInfo@@3PAPAVTeamClass@@A:BYTE		; TeamInfo
EXTRN	?gUIViewer@@3PAVC_3dViewer@@A:DWORD		; gUIViewer
EXTRN	?WPActStr@@3PAY0BE@DA:BYTE			; WPActStr
EXTRN	?gMainHandler@@3PAVC_Handler@@A:DWORD		; gMainHandler
EXTRN	?gMapMgr@@3PAVC_Map@@A:DWORD			; gMapMgr
EXTRN	?Recon@@3UOBJECTINFO@@A:BYTE			; Recon
EXTRN	?gGps@@3PAVGlobalPositioningSystem@@A:DWORD	; gGps
EXTRN	?gActiveFlightID@@3VVU_ID@@A:QWORD		; gActiveFlightID
EXTRN	?gCurrentFlightID@@3VVU_ID@@A:QWORD		; gCurrentFlightID
EXTRN	?g_nUnidentifiedInUI@@3HA:DWORD			; g_nUnidentifiedInUI
EXTRN	?gShowUnknown@@3HA:DWORD			; gShowUnknown
EXTRN	___security_cookie:DWORD
EXTRN	__fltused:DWORD
_BSS	SEGMENT
_piecewise_construct DB 01H DUP (?)
	ALIGN	4

_allocator_arg DB 01H DUP (?)
_BSS	ENDS
;	COMDAT ?_Generic_object@?$_Error_objects@H@std@@2V_Generic_error_category@2@A
_BSS	SEGMENT
?_Generic_object@?$_Error_objects@H@std@@2V_Generic_error_category@2@A DD 01H DUP (?) ; std::_Error_objects<int>::_Generic_object
_BSS	ENDS
;	COMDAT ?_Iostream_object@?$_Error_objects@H@std@@2V_Iostream_error_category@2@A
_BSS	SEGMENT
?_Iostream_object@?$_Error_objects@H@std@@2V_Iostream_error_category@2@A DD 01H DUP (?) ; std::_Error_objects<int>::_Iostream_object
_BSS	ENDS
;	COMDAT ?_System_object@?$_Error_objects@H@std@@2V_System_error_category@2@A
_BSS	SEGMENT
?_System_object@?$_Error_objects@H@std@@2V_System_error_category@2@A DD 01H DUP (?) ; std::_Error_objects<int>::_System_object
_BSS	ENDS
;	COMDAT ?id@?$num_put@DV?$back_insert_iterator@V?$basic_string@DU?$char_traits@D@std@@V?$allocator@D@2@@std@@@std@@@std@@2V0locale@2@A
_BSS	SEGMENT
?id@?$num_put@DV?$back_insert_iterator@V?$basic_string@DU?$char_traits@D@std@@V?$allocator@D@2@@std@@@std@@@std@@2V0locale@2@A DD 01H DUP (?) ; std::num_put<char,std::back_insert_iterator<std::basic_string<char,std::char_traits<char>,std::allocator<char> > > >::id
_BSS	ENDS
;	COMDAT ?id@?$num_put@_WV?$back_insert_iterator@V?$basic_string@_WU?$char_traits@_W@std@@V?$allocator@_W@2@@std@@@std@@@std@@2V0locale@2@A
_BSS	SEGMENT
?id@?$num_put@_WV?$back_insert_iterator@V?$basic_string@_WU?$char_traits@_W@std@@V?$allocator@_W@2@@std@@@std@@@std@@2V0locale@2@A DD 01H DUP (?) ; std::num_put<wchar_t,std::back_insert_iterator<std::basic_string<wchar_t,std::char_traits<wchar_t>,std::allocator<wchar_t> > > >::id
_BSS	ENDS
_BSS	SEGMENT
	ALIGN	4

_GameType DD	01H DUP (?)
_EditMode DD	01H DUP (?)
_BSS	ENDS
;	COMDAT ?id@?$numpunct@D@std@@2V0locale@2@A
_BSS	SEGMENT
?id@?$numpunct@D@std@@2V0locale@2@A DD 01H DUP (?)	; std::numpunct<char>::id
_BSS	ENDS
;	COMDAT ?id@?$numpunct@_W@std@@2V0locale@2@A
_BSS	SEGMENT
?id@?$numpunct@_W@std@@2V0locale@2@A DD 01H DUP (?)	; std::numpunct<wchar_t>::id
_BSS	ENDS
CRT$XCU	SEGMENT
_piecewise_construct$initializer$ DD FLAT:??__Epiecewise_construct@std@@YAXXZ
CRT$XCU	ENDS
;	COMDAT __real@bf800000
CONST	SEGMENT
__real@bf800000 DD 0bf800000r			; -1
CONST	ENDS
;	COMDAT __real@47001fcd
CONST	SEGMENT
__real@47001fcd DD 047001fcdr			; 32799.8
CONST	ENDS
;	COMDAT __real@46ea6000
CONST	SEGMENT
__real@46ea6000 DD 046ea6000r			; 30000
CONST	ENDS
;	COMDAT __real@468ca000
CONST	SEGMENT
__real@468ca000 DD 0468ca000r			; 18000
CONST	ENDS
;	COMDAT __real@461c4000
CONST	SEGMENT
__real@461c4000 DD 0461c4000r			; 10000
CONST	ENDS
;	COMDAT __real@45bb8000
CONST	SEGMENT
__real@45bb8000 DD 045bb8000r			; 6000
CONST	ENDS
;	COMDAT __real@447a0000
CONST	SEGMENT
__real@447a0000 DD 0447a0000r			; 1000
CONST	ENDS
;	COMDAT __real@44480000
CONST	SEGMENT
__real@44480000 DD 044480000r			; 800
CONST	ENDS
;	COMDAT __real@44160000
CONST	SEGMENT
__real@44160000 DD 044160000r			; 600
CONST	ENDS
;	COMDAT __real@437a0000
CONST	SEGMENT
__real@437a0000 DD 0437a0000r			; 250
CONST	ENDS
;	COMDAT __real@42b40000
CONST	SEGMENT
__real@42b40000 DD 042b40000r			; 90
CONST	ENDS
;	COMDAT __real@428c0000
CONST	SEGMENT
__real@428c0000 DD 0428c0000r			; 70
CONST	ENDS
;	COMDAT __real@41f00000
CONST	SEGMENT
__real@41f00000 DD 041f00000r			; 30
CONST	ENDS
;	COMDAT __real@40a00000
CONST	SEGMENT
__real@40a00000 DD 040a00000r			; 5
CONST	ENDS
;	COMDAT __real@3f800000
CONST	SEGMENT
__real@3f800000 DD 03f800000r			; 1
CONST	ENDS
;	COMDAT __real@00000000
CONST	SEGMENT
__real@00000000 DD 000000000r			; 0
CONST	ENDS
;	COMDAT ??_R1A@?0A@EA@_System_error_category@std@@8
rdata$r	SEGMENT
??_R1A@?0A@EA@_System_error_category@std@@8 DD FLAT:??_R0?AV_System_error_category@std@@@8 ; std::_System_error_category::`RTTI Base Class Descriptor at (0,-1,0,64)'
	DD	02H
	DD	00H
	DD	0ffffffffH
	DD	00H
	DD	040H
	DD	FLAT:??_R3_System_error_category@std@@8
rdata$r	ENDS
;	COMDAT ??_R2_System_error_category@std@@8
rdata$r	SEGMENT
??_R2_System_error_category@std@@8 DD FLAT:??_R1A@?0A@EA@_System_error_category@std@@8 ; std::_System_error_category::`RTTI Base Class Array'
	DD	FLAT:??_R1A@?0A@EA@_Generic_error_category@std@@8
	DD	FLAT:??_R1A@?0A@EA@error_category@std@@8
rdata$r	ENDS
;	COMDAT ??_R3_System_error_category@std@@8
rdata$r	SEGMENT
??_R3_System_error_category@std@@8 DD 00H		; std::_System_error_category::`RTTI Class Hierarchy Descriptor'
	DD	00H
	DD	03H
	DD	FLAT:??_R2_System_error_category@std@@8
rdata$r	ENDS
;	COMDAT ??_R0?AV_System_error_category@std@@@8
_DATA	SEGMENT
??_R0?AV_System_error_category@std@@@8 DD FLAT:??_7type_info@@6B@ ; std::_System_error_category `RTTI Type Descriptor'
	DD	00H
	DB	'.?AV_System_error_category@std@@', 00H
_DATA	ENDS
;	COMDAT ??_R4_System_error_category@std@@6B@
rdata$r	SEGMENT
??_R4_System_error_category@std@@6B@ DD 00H		; std::_System_error_category::`RTTI Complete Object Locator'
	DD	00H
	DD	00H
	DD	FLAT:??_R0?AV_System_error_category@std@@@8
	DD	FLAT:??_R3_System_error_category@std@@8
rdata$r	ENDS
;	COMDAT ??_R1A@?0A@EA@_Iostream_error_category@std@@8
rdata$r	SEGMENT
??_R1A@?0A@EA@_Iostream_error_category@std@@8 DD FLAT:??_R0?AV_Iostream_error_category@std@@@8 ; std::_Iostream_error_category::`RTTI Base Class Descriptor at (0,-1,0,64)'
	DD	02H
	DD	00H
	DD	0ffffffffH
	DD	00H
	DD	040H
	DD	FLAT:??_R3_Iostream_error_category@std@@8
rdata$r	ENDS
;	COMDAT ??_R2_Iostream_error_category@std@@8
rdata$r	SEGMENT
??_R2_Iostream_error_category@std@@8 DD FLAT:??_R1A@?0A@EA@_Iostream_error_category@std@@8 ; std::_Iostream_error_category::`RTTI Base Class Array'
	DD	FLAT:??_R1A@?0A@EA@_Generic_error_category@std@@8
	DD	FLAT:??_R1A@?0A@EA@error_category@std@@8
rdata$r	ENDS
;	COMDAT ??_R3_Iostream_error_category@std@@8
rdata$r	SEGMENT
??_R3_Iostream_error_category@std@@8 DD 00H		; std::_Iostream_error_category::`RTTI Class Hierarchy Descriptor'
	DD	00H
	DD	03H
	DD	FLAT:??_R2_Iostream_error_category@std@@8
rdata$r	ENDS
;	COMDAT ??_R0?AV_Iostream_error_category@std@@@8
_DATA	SEGMENT
??_R0?AV_Iostream_error_category@std@@@8 DD FLAT:??_7type_info@@6B@ ; std::_Iostream_error_category `RTTI Type Descriptor'
	DD	00H
	DB	'.?AV_Iostream_error_category@std@@', 00H
_DATA	ENDS
;	COMDAT ??_R4_Iostream_error_category@std@@6B@
rdata$r	SEGMENT
??_R4_Iostream_error_category@std@@6B@ DD 00H		; std::_Iostream_error_category::`RTTI Complete Object Locator'
	DD	00H
	DD	00H
	DD	FLAT:??_R0?AV_Iostream_error_category@std@@@8
	DD	FLAT:??_R3_Iostream_error_category@std@@8
rdata$r	ENDS
;	COMDAT ??_R1A@?0A@EA@_Generic_error_category@std@@8
rdata$r	SEGMENT
??_R1A@?0A@EA@_Generic_error_category@std@@8 DD FLAT:??_R0?AV_Generic_error_category@std@@@8 ; std::_Generic_error_category::`RTTI Base Class Descriptor at (0,-1,0,64)'
	DD	01H
	DD	00H
	DD	0ffffffffH
	DD	00H
	DD	040H
	DD	FLAT:??_R3_Generic_error_category@std@@8
rdata$r	ENDS
;	COMDAT ??_R2_Generic_error_category@std@@8
rdata$r	SEGMENT
??_R2_Generic_error_category@std@@8 DD FLAT:??_R1A@?0A@EA@_Generic_error_category@std@@8 ; std::_Generic_error_category::`RTTI Base Class Array'
	DD	FLAT:??_R1A@?0A@EA@error_category@std@@8
rdata$r	ENDS
;	COMDAT ??_R3_Generic_error_category@std@@8
rdata$r	SEGMENT
??_R3_Generic_error_category@std@@8 DD 00H		; std::_Generic_error_category::`RTTI Class Hierarchy Descriptor'
	DD	00H
	DD	02H
	DD	FLAT:??_R2_Generic_error_category@std@@8
rdata$r	ENDS
;	COMDAT ??_R0?AV_Generic_error_category@std@@@8
_DATA	SEGMENT
??_R0?AV_Generic_error_category@std@@@8 DD FLAT:??_7type_info@@6B@ ; std::_Generic_error_category `RTTI Type Descriptor'
	DD	00H
	DB	'.?AV_Generic_error_category@std@@', 00H
_DATA	ENDS
;	COMDAT ??_R4_Generic_error_category@std@@6B@
rdata$r	SEGMENT
??_R4_Generic_error_category@std@@6B@ DD 00H		; std::_Generic_error_category::`RTTI Complete Object Locator'
	DD	00H
	DD	00H
	DD	FLAT:??_R0?AV_Generic_error_category@std@@@8
	DD	FLAT:??_R3_Generic_error_category@std@@8
rdata$r	ENDS
;	COMDAT ??_R1A@?0A@EA@error_category@std@@8
rdata$r	SEGMENT
??_R1A@?0A@EA@error_category@std@@8 DD FLAT:??_R0?AVerror_category@std@@@8 ; std::error_category::`RTTI Base Class Descriptor at (0,-1,0,64)'
	DD	00H
	DD	00H
	DD	0ffffffffH
	DD	00H
	DD	040H
	DD	FLAT:??_R3error_category@std@@8
rdata$r	ENDS
;	COMDAT ??_R2error_category@std@@8
rdata$r	SEGMENT
??_R2error_category@std@@8 DD FLAT:??_R1A@?0A@EA@error_category@std@@8 ; std::error_category::`RTTI Base Class Array'
rdata$r	ENDS
;	COMDAT ??_R3error_category@std@@8
rdata$r	SEGMENT
??_R3error_category@std@@8 DD 00H			; std::error_category::`RTTI Class Hierarchy Descriptor'
	DD	00H
	DD	01H
	DD	FLAT:??_R2error_category@std@@8
rdata$r	ENDS
;	COMDAT ??_R0?AVerror_category@std@@@8
_DATA	SEGMENT
??_R0?AVerror_category@std@@@8 DD FLAT:??_7type_info@@6B@ ; std::error_category `RTTI Type Descriptor'
	DD	00H
	DB	'.?AVerror_category@std@@', 00H
_DATA	ENDS
;	COMDAT ??_R4error_category@std@@6B@
rdata$r	SEGMENT
??_R4error_category@std@@6B@ DD 00H			; std::error_category::`RTTI Complete Object Locator'
	DD	00H
	DD	00H
	DD	FLAT:??_R0?AVerror_category@std@@@8
	DD	FLAT:??_R3error_category@std@@8
rdata$r	ENDS
;	COMDAT ??_C@_0BA@JFNIOLAK@string?5too?5long?$AA@
CONST	SEGMENT
??_C@_0BA@JFNIOLAK@string?5too?5long?$AA@ DB 'string too long', 00H ; `string'
CONST	ENDS
;	COMDAT ??_C@_0BI@CFPLBAOH@invalid?5string?5position?$AA@
CONST	SEGMENT
??_C@_0BI@CFPLBAOH@invalid?5string?5position?$AA@ DB 'invalid string posi'
	DB	'tion', 00H					; `string'
CONST	ENDS
;	COMDAT ??_C@_06FHFOAHML@system?$AA@
CONST	SEGMENT
??_C@_06FHFOAHML@system?$AA@ DB 'system', 00H		; `string'
CONST	ENDS
;	COMDAT ??_7_System_error_category@std@@6B@
CONST	SEGMENT
??_7_System_error_category@std@@6B@ DD FLAT:??_R4_System_error_category@std@@6B@ ; std::_System_error_category::`vftable'
	DD	FLAT:??_E_System_error_category@std@@UAEPAXI@Z
	DD	FLAT:?name@_System_error_category@std@@UBEPBDXZ
	DD	FLAT:?message@_System_error_category@std@@UBE?AV?$basic_string@DU?$char_traits@D@std@@V?$allocator@D@2@@2@H@Z
	DD	FLAT:?default_error_condition@_System_error_category@std@@UBE?AVerror_condition@2@H@Z
	DD	FLAT:?equivalent@error_category@std@@UBE_NABVerror_code@2@H@Z
	DD	FLAT:?equivalent@error_category@std@@UBE_NHABVerror_condition@2@@Z
CONST	ENDS
;	COMDAT ??_C@_0BG@PADBLCHM@iostream?5stream?5error?$AA@
CONST	SEGMENT
??_C@_0BG@PADBLCHM@iostream?5stream?5error?$AA@ DB 'iostream stream error'
	DB	00H						; `string'
CONST	ENDS
;	COMDAT ??_C@_08LLGCOLLL@iostream?$AA@
CONST	SEGMENT
??_C@_08LLGCOLLL@iostream?$AA@ DB 'iostream', 00H	; `string'
CONST	ENDS
;	COMDAT ??_7_Iostream_error_category@std@@6B@
CONST	SEGMENT
??_7_Iostream_error_category@std@@6B@ DD FLAT:??_R4_Iostream_error_category@std@@6B@ ; std::_Iostream_error_category::`vftable'
	DD	FLAT:??_E_Iostream_error_category@std@@UAEPAXI@Z
	DD	FLAT:?name@_Iostream_error_category@std@@UBEPBDXZ
	DD	FLAT:?message@_Iostream_error_category@std@@UBE?AV?$basic_string@DU?$char_traits@D@std@@V?$allocator@D@2@@2@H@Z
	DD	FLAT:?default_error_condition@error_category@std@@UBE?AVerror_condition@2@H@Z
	DD	FLAT:?equivalent@error_category@std@@UBE_NABVerror_code@2@H@Z
	DD	FLAT:?equivalent@error_category@std@@UBE_NHABVerror_condition@2@@Z
CONST	ENDS
;	COMDAT ??_C@_0O@BFJCFAAK@unknown?5error?$AA@
CONST	SEGMENT
??_C@_0O@BFJCFAAK@unknown?5error?$AA@ DB 'unknown error', 00H ; `string'
CONST	ENDS
;	COMDAT ??_C@_07DCLBNMLN@generic?$AA@
CONST	SEGMENT
??_C@_07DCLBNMLN@generic?$AA@ DB 'generic', 00H		; `string'
CONST	ENDS
;	COMDAT ??_7_Generic_error_category@std@@6B@
CONST	SEGMENT
??_7_Generic_error_category@std@@6B@ DD FLAT:??_R4_Generic_error_category@std@@6B@ ; std::_Generic_error_category::`vftable'
	DD	FLAT:??_E_Generic_error_category@std@@UAEPAXI@Z
	DD	FLAT:?name@_Generic_error_category@std@@UBEPBDXZ
	DD	FLAT:?message@_Generic_error_category@std@@UBE?AV?$basic_string@DU?$char_traits@D@std@@V?$allocator@D@2@@2@H@Z
	DD	FLAT:?default_error_condition@error_category@std@@UBE?AVerror_condition@2@H@Z
	DD	FLAT:?equivalent@error_category@std@@UBE_NABVerror_code@2@H@Z
	DD	FLAT:?equivalent@error_category@std@@UBE_NHABVerror_condition@2@@Z
CONST	ENDS
;	COMDAT ??_7error_category@std@@6B@
CONST	SEGMENT
??_7error_category@std@@6B@ DD FLAT:??_R4error_category@std@@6B@ ; std::error_category::`vftable'
	DD	FLAT:??_Eerror_category@std@@UAEPAXI@Z
	DD	FLAT:__purecall
	DD	FLAT:__purecall
	DD	FLAT:?default_error_condition@error_category@std@@UBE?AVerror_condition@2@H@Z
	DD	FLAT:?equivalent@error_category@std@@UBE_NABVerror_code@2@H@Z
	DD	FLAT:?equivalent@error_category@std@@UBE_NHABVerror_condition@2@@Z
CONST	ENDS
;	COMDAT xdata$x
xdata$x	SEGMENT
__unwindtable$??$construct@PADAAPAD@?$allocator@D@std@@QAEXPAPADAAPAD@Z DD 0ffffffffH
	DD	FLAT:__unwindfunclet$??$construct@PADAAPAD@?$allocator@D@std@@QAEXPAPADAAPAD@Z$0
__ehfuncinfo$??$construct@PADAAPAD@?$allocator@D@std@@QAEXPAPADAAPAD@Z DD 019930522H
	DD	01H
	DD	FLAT:__unwindtable$??$construct@PADAAPAD@?$allocator@D@std@@QAEXPAPADAAPAD@Z
	DD	2 DUP(00H)
	DD	2 DUP(00H)
	DD	00H
	DD	01H
xdata$x	ENDS
xdata$x	SEGMENT
__unwindtable$?MenuObjReconCB@@YAXJFPAVC_Base@@@Z DD 0ffffffffH
	DD	FLAT:__unwindfunclet$?MenuObjReconCB@@YAXJFPAVC_Base@@@Z$0
__ehfuncinfo$?MenuObjReconCB@@YAXJFPAVC_Base@@@Z DD 019930522H
	DD	01H
	DD	FLAT:__unwindtable$?MenuObjReconCB@@YAXJFPAVC_Base@@@Z
	DD	2 DUP(00H)
	DD	2 DUP(00H)
	DD	00H
	DD	01H
xdata$x	ENDS
;	COMDAT xdata$x
xdata$x	SEGMENT
__catchsym$?_Copy@?$basic_string@DU?$char_traits@D@std@@V?$allocator@D@2@@std@@QAEXII@Z$5 DD 040H
	DD	00H
	DD	00H
	DD	FLAT:__catch$?_Copy@?$basic_string@DU?$char_traits@D@std@@V?$allocator@D@2@@std@@QAEXII@Z$0
__catchsym$?_Copy@?$basic_string@DU?$char_traits@D@std@@V?$allocator@D@2@@std@@QAEXII@Z$4 DD 040H
	DD	00H
	DD	00H
	DD	FLAT:__catch$?_Copy@?$basic_string@DU?$char_traits@D@std@@V?$allocator@D@2@@std@@QAEXII@Z$1
__unwindtable$?_Copy@?$basic_string@DU?$char_traits@D@std@@V?$allocator@D@2@@std@@QAEXII@Z DD 0ffffffffH
	DD	00H
	DD	0ffffffffH
	DD	00H
	DD	01H
	DD	00H
	DD	01H
	DD	00H
__ehfuncinfo$?_Copy@?$basic_string@DU?$char_traits@D@std@@V?$allocator@D@2@@std@@QAEXII@Z DD 019930522H
	DD	04H
	DD	FLAT:__unwindtable$?_Copy@?$basic_string@DU?$char_traits@D@std@@V?$allocator@D@2@@std@@QAEXII@Z
	DD	02H
	DD	FLAT:__tryblocktable$?_Copy@?$basic_string@DU?$char_traits@D@std@@V?$allocator@D@2@@std@@QAEXII@Z
	DD	2 DUP(00H)
	DD	00H
	DD	01H
__tryblocktable$?_Copy@?$basic_string@DU?$char_traits@D@std@@V?$allocator@D@2@@std@@QAEXII@Z DD 02H
	DD	02H
	DD	03H
	DD	01H
	DD	FLAT:__catchsym$?_Copy@?$basic_string@DU?$char_traits@D@std@@V?$allocator@D@2@@std@@QAEXII@Z$4
	DD	00H
	DD	00H
	DD	03H
	DD	01H
	DD	FLAT:__catchsym$?_Copy@?$basic_string@DU?$char_traits@D@std@@V?$allocator@D@2@@std@@QAEXII@Z$5
xdata$x	ENDS
CRT$XCU	SEGMENT
_allocator_arg$initializer$ DD FLAT:??__Eallocator_arg@std@@YAXXZ
CRT$XCU	ENDS
;	COMDAT CRT$XCU
CRT$XCU	SEGMENT
?_Generic_object$initializer$@?$_Error_objects@H@std@@2P6AXXZA DD FLAT:??__E?_Generic_object@?$_Error_objects@H@std@@2V_Generic_error_category@2@A@@YAXXZ ; std::_Error_objects<int>::_Generic_object$initializer$
CRT$XCU	ENDS
;	COMDAT CRT$XCU
CRT$XCU	SEGMENT
?_Iostream_object$initializer$@?$_Error_objects@H@std@@2P6AXXZA DD FLAT:??__E?_Iostream_object@?$_Error_objects@H@std@@2V_Iostream_error_category@2@A@@YAXXZ ; std::_Error_objects<int>::_Iostream_object$initializer$
CRT$XCU	ENDS
;	COMDAT CRT$XCU
CRT$XCU	SEGMENT
?_System_object$initializer$@?$_Error_objects@H@std@@2P6AXXZA DD FLAT:??__E?_System_object@?$_Error_objects@H@std@@2V_System_error_category@2@A@@YAXXZ ; std::_Error_objects<int>::_System_object$initializer$
CRT$XCU	ENDS
;	COMDAT CRT$XCU
CRT$XCU	SEGMENT
?id$initializer$@?$num_put@DV?$back_insert_iterator@V?$basic_string@DU?$char_traits@D@std@@V?$allocator@D@2@@std@@@std@@@std@@2P6AXXZA DD FLAT:??__E?id@?$num_put@DV?$back_insert_iterator@V?$basic_string@DU?$char_traits@D@std@@V?$allocator@D@2@@std@@@std@@@std@@2V0locale@2@A@@YAXXZ ; std::num_put<char,std::back_insert_iterator<std::basic_string<char,std::char_traits<char>,std::allocator<char> > > >::id$initializer$
CRT$XCU	ENDS
;	COMDAT CRT$XCU
CRT$XCU	SEGMENT
?id$initializer$@?$num_put@_WV?$back_insert_iterator@V?$basic_string@_WU?$char_traits@_W@std@@V?$allocator@_W@2@@std@@@std@@@std@@2P6AXXZA DD FLAT:??__E?id@?$num_put@_WV?$back_insert_iterator@V?$basic_string@_WU?$char_traits@_W@std@@V?$allocator@_W@2@@std@@@std@@@std@@2V0locale@2@A@@YAXXZ ; std::num_put<wchar_t,std::back_insert_iterator<std::basic_string<wchar_t,std::char_traits<wchar_t>,std::allocator<wchar_t> > > >::id$initializer$
CRT$XCU	ENDS
;	COMDAT CRT$XCU
CRT$XCU	SEGMENT
?id$initializer$@?$numpunct@D@std@@2P6AXXZA DD FLAT:??__E?id@?$numpunct@D@std@@2V0locale@2@A@@YAXXZ ; std::numpunct<char>::id$initializer$
CRT$XCU	ENDS
;	COMDAT CRT$XCU
CRT$XCU	SEGMENT
?id$initializer$@?$numpunct@_W@std@@2P6AXXZA DD FLAT:??__E?id@?$numpunct@_W@std@@2V0locale@2@A@@YAXXZ ; std::numpunct<wchar_t>::id$initializer$
CRT$XCU	ENDS
; Function compile flags: /Odtp
; File c:\program files (x86)\microsoft visual studio 11.0\vc\include\xmemory0
;	COMDAT ??$destroy@PAD@?$allocator@D@std@@QAEXPAPAD@Z
_TEXT	SEGMENT
_this$ = -4						; size = 4
__Ptr$ = 8						; size = 4
??$destroy@PAD@?$allocator@D@std@@QAEXPAPAD@Z PROC	; std::allocator<char>::destroy<char *>, COMDAT
; _this$ = ecx

; 621  : 		void destroy(_Uty *_Ptr)

	push	ebp
	mov	ebp, esp
	push	ecx
	mov	DWORD PTR _this$[ebp], ecx

; 622  : 		{	// destroy object at _Ptr
; 623  : 		_Ptr->~_Uty();
; 624  : 		}

	mov	esp, ebp
	pop	ebp
	ret	4
??$destroy@PAD@?$allocator@D@std@@QAEXPAPAD@Z ENDP	; std::allocator<char>::destroy<char *>
_TEXT	ENDS
; Function compile flags: /Odtp
; File c:\program files (x86)\microsoft visual studio 11.0\vc\include\xmemory0
;	COMDAT ??$construct@PADAAPAD@?$allocator@D@std@@QAEXPAPADAAPAD@Z
_TEXT	SEGMENT
$T2 = -28						; size = 4
_this$ = -24						; size = 4
tv73 = -20						; size = 4
$T3 = -16						; size = 4
__$EHRec$ = -12						; size = 12
__Ptr$ = 8						; size = 4
__V0$ = 12						; size = 4
??$construct@PADAAPAD@?$allocator@D@std@@QAEXPAPADAAPAD@Z PROC ; std::allocator<char>::construct<char *,char * &>, COMDAT
; _this$ = ecx

; 617  : _VARIADIC_EXPAND_0X(_ALLOC_MEMBER_CONSTRUCT, , , , )

	push	ebp
	mov	ebp, esp
	push	-1
	push	__ehhandler$??$construct@PADAAPAD@?$allocator@D@std@@QAEXPAPADAAPAD@Z
	mov	eax, DWORD PTR fs:0
	push	eax
	sub	esp, 16					; 00000010H
	mov	eax, DWORD PTR ___security_cookie
	xor	eax, ebp
	push	eax
	lea	eax, DWORD PTR __$EHRec$[ebp]
	mov	DWORD PTR fs:0, eax
	mov	DWORD PTR _this$[ebp], ecx
	mov	eax, DWORD PTR __Ptr$[ebp]
	push	eax
	push	4
	call	??2@YAPAXIPAX@Z				; operator new
	add	esp, 8
	mov	DWORD PTR $T3[ebp], eax
	mov	DWORD PTR __$EHRec$[ebp+8], 0
	cmp	DWORD PTR $T3[ebp], 0
	je	SHORT $LN3@construct
	mov	ecx, DWORD PTR __V0$[ebp]
	push	ecx
	call	??$forward@AAPAD@std@@YAAAPADAAPAD@Z	; std::forward<char * &>
	add	esp, 4
	mov	edx, DWORD PTR $T3[ebp]
	mov	eax, DWORD PTR [eax]
	mov	DWORD PTR [edx], eax
	mov	ecx, DWORD PTR $T3[ebp]
	mov	DWORD PTR tv73[ebp], ecx
	jmp	SHORT $LN4@construct
$LN3@construct:
	mov	DWORD PTR tv73[ebp], 0
$LN4@construct:
	mov	edx, DWORD PTR tv73[ebp]
	mov	DWORD PTR $T2[ebp], edx
	mov	DWORD PTR __$EHRec$[ebp+8], -1
	mov	ecx, DWORD PTR __$EHRec$[ebp]
	mov	DWORD PTR fs:0, ecx
	pop	ecx
	mov	esp, ebp
	pop	ebp
	ret	8
_TEXT	ENDS
;	COMDAT text$x
text$x	SEGMENT
__unwindfunclet$??$construct@PADAAPAD@?$allocator@D@std@@QAEXPAPADAAPAD@Z$0:
	mov	eax, DWORD PTR __Ptr$[ebp]
	push	eax
	mov	eax, DWORD PTR $T3[ebp]
	push	eax
	call	??3@YAXPAX0@Z				; operator delete
	add	esp, 8
	ret	0
__ehhandler$??$construct@PADAAPAD@?$allocator@D@std@@QAEXPAPADAAPAD@Z:
	mov	edx, DWORD PTR [esp+8]
	lea	eax, DWORD PTR [edx+12]
	mov	ecx, DWORD PTR [edx-20]
	xor	ecx, eax
	call	@__security_check_cookie@4
	mov	eax, OFFSET __ehfuncinfo$??$construct@PADAAPAD@?$allocator@D@std@@QAEXPAPADAAPAD@Z
	jmp	___CxxFrameHandler3
text$x	ENDS
??$construct@PADAAPAD@?$allocator@D@std@@QAEXPAPADAAPAD@Z ENDP ; std::allocator<char>::construct<char *,char * &>
; Function compile flags: /Odtp
; File c:\program files (x86)\microsoft visual studio 11.0\vc\include\xlocnum
;	COMDAT ??__E?id@?$numpunct@_W@std@@2V0locale@2@A@@YAXXZ
text$yc	SEGMENT
??__E?id@?$numpunct@_W@std@@2V0locale@2@A@@YAXXZ PROC	; `dynamic initializer for 'std::numpunct<wchar_t>::id'', COMDAT

; 155  : 		void _Getvals(wchar_t, const lconv *_Ptr, _Locinfo::_Cvtvec)

	push	ebp
	mov	ebp, esp
	push	0
	mov	ecx, OFFSET ?id@?$numpunct@_W@std@@2V0locale@2@A ; std::numpunct<wchar_t>::id
	call	??0id@locale@std@@QAE@I@Z		; std::locale::id::id
	pop	ebp
	ret	0
??__E?id@?$numpunct@_W@std@@2V0locale@2@A@@YAXXZ ENDP	; `dynamic initializer for 'std::numpunct<wchar_t>::id''
text$yc	ENDS
; Function compile flags: /Odtp
; File c:\program files (x86)\microsoft visual studio 11.0\vc\include\xlocnum
;	COMDAT ??__E?id@?$numpunct@D@std@@2V0locale@2@A@@YAXXZ
text$yc	SEGMENT
??__E?id@?$numpunct@D@std@@2V0locale@2@A@@YAXXZ PROC	; `dynamic initializer for 'std::numpunct<char>::id'', COMDAT

; 155  : 		void _Getvals(wchar_t, const lconv *_Ptr, _Locinfo::_Cvtvec)

	push	ebp
	mov	ebp, esp
	push	0
	mov	ecx, OFFSET ?id@?$numpunct@D@std@@2V0locale@2@A ; std::numpunct<char>::id
	call	??0id@locale@std@@QAE@I@Z		; std::locale::id::id
	pop	ebp
	ret	0
??__E?id@?$numpunct@D@std@@2V0locale@2@A@@YAXXZ ENDP	; `dynamic initializer for 'std::numpunct<char>::id''
text$yc	ENDS
; Function compile flags: /Odtp
; File c:\program files (x86)\microsoft visual studio 11.0\vc\include\xlocnum
;	COMDAT ??__E?id@?$num_put@_WV?$back_insert_iterator@V?$basic_string@_WU?$char_traits@_W@std@@V?$allocator@_W@2@@std@@@std@@@std@@2V0locale@2@A@@YAXXZ
text$yc	SEGMENT
??__E?id@?$num_put@_WV?$back_insert_iterator@V?$basic_string@_WU?$char_traits@_W@std@@V?$allocator@_W@2@@std@@@std@@@std@@2V0locale@2@A@@YAXXZ PROC ; `dynamic initializer for 'std::num_put<wchar_t,std::back_insert_iterator<std::basic_string<wchar_t,std::char_traits<wchar_t>,std::allocator<wchar_t> > > >::id'', COMDAT

; 155  : 		void _Getvals(wchar_t, const lconv *_Ptr, _Locinfo::_Cvtvec)

	push	ebp
	mov	ebp, esp
	push	0
	mov	ecx, OFFSET ?id@?$num_put@_WV?$back_insert_iterator@V?$basic_string@_WU?$char_traits@_W@std@@V?$allocator@_W@2@@std@@@std@@@std@@2V0locale@2@A ; std::num_put<wchar_t,std::back_insert_iterator<std::basic_string<wchar_t,std::char_traits<wchar_t>,std::allocator<wchar_t> > > >::id
	call	??0id@locale@std@@QAE@I@Z		; std::locale::id::id
	pop	ebp
	ret	0
??__E?id@?$num_put@_WV?$back_insert_iterator@V?$basic_string@_WU?$char_traits@_W@std@@V?$allocator@_W@2@@std@@@std@@@std@@2V0locale@2@A@@YAXXZ ENDP ; `dynamic initializer for 'std::num_put<wchar_t,std::back_insert_iterator<std::basic_string<wchar_t,std::char_traits<wchar_t>,std::allocator<wchar_t> > > >::id''
text$yc	ENDS
; Function compile flags: /Odtp
; File c:\program files (x86)\microsoft visual studio 11.0\vc\include\xlocnum
;	COMDAT ??__E?id@?$num_put@DV?$back_insert_iterator@V?$basic_string@DU?$char_traits@D@std@@V?$allocator@D@2@@std@@@std@@@std@@2V0locale@2@A@@YAXXZ
text$yc	SEGMENT
??__E?id@?$num_put@DV?$back_insert_iterator@V?$basic_string@DU?$char_traits@D@std@@V?$allocator@D@2@@std@@@std@@@std@@2V0locale@2@A@@YAXXZ PROC ; `dynamic initializer for 'std::num_put<char,std::back_insert_iterator<std::basic_string<char,std::char_traits<char>,std::allocator<char> > > >::id'', COMDAT

; 155  : 		void _Getvals(wchar_t, const lconv *_Ptr, _Locinfo::_Cvtvec)

	push	ebp
	mov	ebp, esp
	push	0
	mov	ecx, OFFSET ?id@?$num_put@DV?$back_insert_iterator@V?$basic_string@DU?$char_traits@D@std@@V?$allocator@D@2@@std@@@std@@@std@@2V0locale@2@A ; std::num_put<char,std::back_insert_iterator<std::basic_string<char,std::char_traits<char>,std::allocator<char> > > >::id
	call	??0id@locale@std@@QAE@I@Z		; std::locale::id::id
	pop	ebp
	ret	0
??__E?id@?$num_put@DV?$back_insert_iterator@V?$basic_string@DU?$char_traits@D@std@@V?$allocator@D@2@@std@@@std@@@std@@2V0locale@2@A@@YAXXZ ENDP ; `dynamic initializer for 'std::num_put<char,std::back_insert_iterator<std::basic_string<char,std::char_traits<char>,std::allocator<char> > > >::id''
text$yc	ENDS
; Function compile flags: /Odtp
; File c:\program files (x86)\microsoft visual studio 11.0\vc\include\xmemory0
;	COMDAT ??$destroy@PAD@?$allocator_traits@V?$allocator@D@std@@@std@@SAXAAV?$allocator@D@1@PAPAD@Z
_TEXT	SEGMENT
__Al$ = 8						; size = 4
__Ptr$ = 12						; size = 4
??$destroy@PAD@?$allocator_traits@V?$allocator@D@std@@@std@@SAXAAV?$allocator@D@1@PAPAD@Z PROC ; std::allocator_traits<std::allocator<char> >::destroy<char *>, COMDAT

; 755  : 		static void destroy(_Alloc& _Al, _Uty *_Ptr)

	push	ebp
	mov	ebp, esp

; 756  : 		{	// destroy object at _Ptr
; 757  : 		_Al.destroy(_Ptr);

	mov	eax, DWORD PTR __Ptr$[ebp]
	push	eax
	mov	ecx, DWORD PTR __Al$[ebp]
	call	??$destroy@PAD@?$allocator@D@std@@QAEXPAPAD@Z ; std::allocator<char>::destroy<char *>

; 758  : 		}

	pop	ebp
	ret	0
??$destroy@PAD@?$allocator_traits@V?$allocator@D@std@@@std@@SAXAAV?$allocator@D@1@PAPAD@Z ENDP ; std::allocator_traits<std::allocator<char> >::destroy<char *>
_TEXT	ENDS
; Function compile flags: /Odtp
; File c:\program files (x86)\microsoft visual studio 11.0\vc\include\xmemory0
;	COMDAT ??$construct@PADAAPAD@?$allocator_traits@V?$allocator@D@std@@@std@@SAXAAV?$allocator@D@1@PAPADAAPAD@Z
_TEXT	SEGMENT
__Al$ = 8						; size = 4
__Ptr$ = 12						; size = 4
__V0$ = 16						; size = 4
??$construct@PADAAPAD@?$allocator_traits@V?$allocator@D@std@@@std@@SAXAAV?$allocator@D@1@PAPADAAPAD@Z PROC ; std::allocator_traits<std::allocator<char> >::construct<char *,char * &>, COMDAT

; 751  : _VARIADIC_EXPAND_0X(_ALLOC_TRAITS_SPECIAL_CONSTRUCT, , , , )

	push	ebp
	mov	ebp, esp
	mov	eax, DWORD PTR __V0$[ebp]
	push	eax
	call	??$forward@AAPAD@std@@YAAAPADAAPAD@Z	; std::forward<char * &>
	add	esp, 4
	push	eax
	mov	ecx, DWORD PTR __Ptr$[ebp]
	push	ecx
	mov	ecx, DWORD PTR __Al$[ebp]
	call	??$construct@PADAAPAD@?$allocator@D@std@@QAEXPAPADAAPAD@Z ; std::allocator<char>::construct<char *,char * &>
	pop	ebp
	ret	0
??$construct@PADAAPAD@?$allocator_traits@V?$allocator@D@std@@@std@@SAXAAV?$allocator@D@1@PAPADAAPAD@Z ENDP ; std::allocator_traits<std::allocator<char> >::construct<char *,char * &>
_TEXT	ENDS
; Function compile flags: /Odtp
; File c:\program files (x86)\microsoft visual studio 11.0\vc\include\type_traits
;	COMDAT ??$forward@AAPAD@std@@YAAAPADAAPAD@Z
_TEXT	SEGMENT
__Arg$ = 8						; size = 4
??$forward@AAPAD@std@@YAAAPADAAPAD@Z PROC		; std::forward<char * &>, COMDAT

; 1775 : 	{	// forward an lvalue

	push	ebp
	mov	ebp, esp

; 1776 : 	return (static_cast<_Ty&&>(_Arg));

	mov	eax, DWORD PTR __Arg$[ebp]

; 1777 : 	}

	pop	ebp
	ret	0
??$forward@AAPAD@std@@YAAAPADAAPAD@Z ENDP		; std::forward<char * &>
_TEXT	ENDS
; Function compile flags: /Odtp
;	COMDAT ??__F?_System_object@?$_Error_objects@H@std@@2V_System_error_category@2@A@@YAXXZ
text$yd	SEGMENT
??__F?_System_object@?$_Error_objects@H@std@@2V_System_error_category@2@A@@YAXXZ PROC ; `dynamic atexit destructor for 'std::_Error_objects<int>::_System_object'', COMDAT
	push	ebp
	mov	ebp, esp
	mov	ecx, OFFSET ?_System_object@?$_Error_objects@H@std@@2V_System_error_category@2@A ; std::_Error_objects<int>::_System_object
	call	??1_System_error_category@std@@UAE@XZ
	pop	ebp
	ret	0
??__F?_System_object@?$_Error_objects@H@std@@2V_System_error_category@2@A@@YAXXZ ENDP ; `dynamic atexit destructor for 'std::_Error_objects<int>::_System_object''
text$yd	ENDS
; Function compile flags: /Odtp
; File c:\program files (x86)\microsoft visual studio 11.0\vc\include\xmemory0
;	COMDAT ??__E?_System_object@?$_Error_objects@H@std@@2V_System_error_category@2@A@@YAXXZ
text$yc	SEGMENT
??__E?_System_object@?$_Error_objects@H@std@@2V_System_error_category@2@A@@YAXXZ PROC ; `dynamic initializer for 'std::_Error_objects<int>::_System_object'', COMDAT

; 627  : 		{	// estimate maximum array size

	push	ebp
	mov	ebp, esp
	mov	ecx, OFFSET ?_System_object@?$_Error_objects@H@std@@2V_System_error_category@2@A ; std::_Error_objects<int>::_System_object
	call	??0_System_error_category@std@@QAE@XZ	; std::_System_error_category::_System_error_category
	push	OFFSET ??__F?_System_object@?$_Error_objects@H@std@@2V_System_error_category@2@A@@YAXXZ ; `dynamic atexit destructor for 'std::_Error_objects<int>::_System_object''
	call	_atexit
	add	esp, 4
	pop	ebp
	ret	0
??__E?_System_object@?$_Error_objects@H@std@@2V_System_error_category@2@A@@YAXXZ ENDP ; `dynamic initializer for 'std::_Error_objects<int>::_System_object''
text$yc	ENDS
; Function compile flags: /Odtp
;	COMDAT ??__F?_Iostream_object@?$_Error_objects@H@std@@2V_Iostream_error_category@2@A@@YAXXZ
text$yd	SEGMENT
??__F?_Iostream_object@?$_Error_objects@H@std@@2V_Iostream_error_category@2@A@@YAXXZ PROC ; `dynamic atexit destructor for 'std::_Error_objects<int>::_Iostream_object'', COMDAT
	push	ebp
	mov	ebp, esp
	mov	ecx, OFFSET ?_Iostream_object@?$_Error_objects@H@std@@2V_Iostream_error_category@2@A ; std::_Error_objects<int>::_Iostream_object
	call	??1_Iostream_error_category@std@@UAE@XZ
	pop	ebp
	ret	0
??__F?_Iostream_object@?$_Error_objects@H@std@@2V_Iostream_error_category@2@A@@YAXXZ ENDP ; `dynamic atexit destructor for 'std::_Error_objects<int>::_Iostream_object''
text$yd	ENDS
; Function compile flags: /Odtp
; File c:\program files (x86)\microsoft visual studio 11.0\vc\include\xmemory0
;	COMDAT ??__E?_Iostream_object@?$_Error_objects@H@std@@2V_Iostream_error_category@2@A@@YAXXZ
text$yc	SEGMENT
??__E?_Iostream_object@?$_Error_objects@H@std@@2V_Iostream_error_category@2@A@@YAXXZ PROC ; `dynamic initializer for 'std::_Error_objects<int>::_Iostream_object'', COMDAT

; 627  : 		{	// estimate maximum array size

	push	ebp
	mov	ebp, esp
	mov	ecx, OFFSET ?_Iostream_object@?$_Error_objects@H@std@@2V_Iostream_error_category@2@A ; std::_Error_objects<int>::_Iostream_object
	call	??0_Iostream_error_category@std@@QAE@XZ	; std::_Iostream_error_category::_Iostream_error_category
	push	OFFSET ??__F?_Iostream_object@?$_Error_objects@H@std@@2V_Iostream_error_category@2@A@@YAXXZ ; `dynamic atexit destructor for 'std::_Error_objects<int>::_Iostream_object''
	call	_atexit
	add	esp, 4
	pop	ebp
	ret	0
??__E?_Iostream_object@?$_Error_objects@H@std@@2V_Iostream_error_category@2@A@@YAXXZ ENDP ; `dynamic initializer for 'std::_Error_objects<int>::_Iostream_object''
text$yc	ENDS
; Function compile flags: /Odtp
;	COMDAT ??__F?_Generic_object@?$_Error_objects@H@std@@2V_Generic_error_category@2@A@@YAXXZ
text$yd	SEGMENT
??__F?_Generic_object@?$_Error_objects@H@std@@2V_Generic_error_category@2@A@@YAXXZ PROC ; `dynamic atexit destructor for 'std::_Error_objects<int>::_Generic_object'', COMDAT
	push	ebp
	mov	ebp, esp
	mov	ecx, OFFSET ?_Generic_object@?$_Error_objects@H@std@@2V_Generic_error_category@2@A ; std::_Error_objects<int>::_Generic_object
	call	??1_Generic_error_category@std@@UAE@XZ
	pop	ebp
	ret	0
??__F?_Generic_object@?$_Error_objects@H@std@@2V_Generic_error_category@2@A@@YAXXZ ENDP ; `dynamic atexit destructor for 'std::_Error_objects<int>::_Generic_object''
text$yd	ENDS
; Function compile flags: /Odtp
; File c:\program files (x86)\microsoft visual studio 11.0\vc\include\xmemory0
;	COMDAT ??__E?_Generic_object@?$_Error_objects@H@std@@2V_Generic_error_category@2@A@@YAXXZ
text$yc	SEGMENT
??__E?_Generic_object@?$_Error_objects@H@std@@2V_Generic_error_category@2@A@@YAXXZ PROC ; `dynamic initializer for 'std::_Error_objects<int>::_Generic_object'', COMDAT

; 627  : 		{	// estimate maximum array size

	push	ebp
	mov	ebp, esp
	mov	ecx, OFFSET ?_Generic_object@?$_Error_objects@H@std@@2V_Generic_error_category@2@A ; std::_Error_objects<int>::_Generic_object
	call	??0_Generic_error_category@std@@QAE@XZ	; std::_Generic_error_category::_Generic_error_category
	push	OFFSET ??__F?_Generic_object@?$_Error_objects@H@std@@2V_Generic_error_category@2@A@@YAXXZ ; `dynamic atexit destructor for 'std::_Error_objects<int>::_Generic_object''
	call	_atexit
	add	esp, 4
	pop	ebp
	ret	0
??__E?_Generic_object@?$_Error_objects@H@std@@2V_Generic_error_category@2@A@@YAXXZ ENDP ; `dynamic initializer for 'std::_Error_objects<int>::_Generic_object''
text$yc	ENDS
; Function compile flags: /Odtp
; File c:\program files (x86)\microsoft visual studio 11.0\vc\include\xmemory0
;	COMDAT ??$_Allocate@D@std@@YAPADIPAD@Z
_TEXT	SEGMENT
__Ptr$ = -4						; size = 4
__Count$ = 8						; size = 4
___formal$ = 12						; size = 4
??$_Allocate@D@std@@YAPADIPAD@Z PROC			; std::_Allocate<char>, COMDAT

; 22   : 	{	// allocate storage for _Count elements of type _Ty

	push	ebp
	mov	ebp, esp
	push	ecx

; 23   : 	void *_Ptr = 0;

	mov	DWORD PTR __Ptr$[ebp], 0

; 24   : 
; 25   : 	if (_Count == 0)

	cmp	DWORD PTR __Count$[ebp], 0
	jne	SHORT $LN4@Allocate

; 26   : 		;
; 27   : 	else if (((size_t)(-1) / sizeof (_Ty) < _Count)

	jmp	SHORT $LN3@Allocate
$LN4@Allocate:

; 28   : 		|| (_Ptr = ::operator new(_Count * sizeof (_Ty))) == 0)

	cmp	DWORD PTR __Count$[ebp], -1
	ja	SHORT $LN1@Allocate
	mov	eax, DWORD PTR __Count$[ebp]
	push	eax
	call	??2@YAPAXI@Z				; operator new
	add	esp, 4
	mov	DWORD PTR __Ptr$[ebp], eax
	cmp	DWORD PTR __Ptr$[ebp], 0
	jne	SHORT $LN3@Allocate
$LN1@Allocate:

; 29   : 		_Xbad_alloc();	// report no memory

	call	?_Xbad_alloc@std@@YAXXZ			; std::_Xbad_alloc
$LN3@Allocate:

; 30   : 
; 31   : 	return ((_Ty *)_Ptr);

	mov	eax, DWORD PTR __Ptr$[ebp]
$LN6@Allocate:

; 32   : 	}

	mov	esp, ebp
	pop	ebp
	ret	0
??$_Allocate@D@std@@YAPADIPAD@Z ENDP			; std::_Allocate<char>
_TEXT	ENDS
; Function compile flags: /Odtp
; File c:\program files (x86)\microsoft visual studio 11.0\vc\include\xstddef
;	COMDAT ??$addressof@D@std@@YAPADAAD@Z
_TEXT	SEGMENT
__Val$ = 8						; size = 4
??$addressof@D@std@@YAPADAAD@Z PROC			; std::addressof<char>, COMDAT

; 85   : 	{	// return address of _Val

	push	ebp
	mov	ebp, esp

; 86   : 	return (reinterpret_cast<_Ty *>(
; 87   : 		(&const_cast<char&>(
; 88   : 		reinterpret_cast<const volatile char&>(_Val)))));

	mov	eax, DWORD PTR __Val$[ebp]

; 89   : 	}

	pop	ebp
	ret	0
??$addressof@D@std@@YAPADAAD@Z ENDP			; std::addressof<char>
_TEXT	ENDS
; Function compile flags: /Odtp
; File c:\program files (x86)\microsoft visual studio 11.0\vc\include\xmemory0
;	COMDAT ??$destroy@PAD@?$_Wrap_alloc@V?$allocator@D@std@@@std@@QAEXPAPAD@Z
_TEXT	SEGMENT
_this$ = -4						; size = 4
__Ptr$ = 8						; size = 4
??$destroy@PAD@?$_Wrap_alloc@V?$allocator@D@std@@@std@@QAEXPAPAD@Z PROC ; std::_Wrap_alloc<std::allocator<char> >::destroy<char *>, COMDAT
; _this$ = ecx

; 907  : 		void destroy(_Ty *_Ptr)

	push	ebp
	mov	ebp, esp
	push	ecx
	mov	DWORD PTR _this$[ebp], ecx

; 908  : 		{	// destroy object at _Ptr
; 909  : 		_Mytraits::destroy(*this, _Ptr);

	mov	eax, DWORD PTR __Ptr$[ebp]
	push	eax
	mov	ecx, DWORD PTR _this$[ebp]
	push	ecx
	call	??$destroy@PAD@?$allocator_traits@V?$allocator@D@std@@@std@@SAXAAV?$allocator@D@1@PAPAD@Z ; std::allocator_traits<std::allocator<char> >::destroy<char *>
	add	esp, 8

; 910  : 		}

	mov	esp, ebp
	pop	ebp
	ret	4
??$destroy@PAD@?$_Wrap_alloc@V?$allocator@D@std@@@std@@QAEXPAPAD@Z ENDP ; std::_Wrap_alloc<std::allocator<char> >::destroy<char *>
_TEXT	ENDS
; Function compile flags: /Odtp
; File c:\program files (x86)\microsoft visual studio 11.0\vc\include\xmemory0
;	COMDAT ??$construct@PADAAPAD@?$_Wrap_alloc@V?$allocator@D@std@@@std@@QAEXPAPADAAPAD@Z
_TEXT	SEGMENT
_this$ = -4						; size = 4
__Ptr$ = 8						; size = 4
__V0$ = 12						; size = 4
??$construct@PADAAPAD@?$_Wrap_alloc@V?$allocator@D@std@@@std@@QAEXPAPADAAPAD@Z PROC ; std::_Wrap_alloc<std::allocator<char> >::construct<char *,char * &>, COMDAT
; _this$ = ecx

; 903  : _VARIADIC_EXPAND_0X(_WRAP_ALLOC_CONSTRUCT, , , , )

	push	ebp
	mov	ebp, esp
	push	ecx
	mov	DWORD PTR _this$[ebp], ecx
	mov	eax, DWORD PTR __V0$[ebp]
	push	eax
	call	??$forward@AAPAD@std@@YAAAPADAAPAD@Z	; std::forward<char * &>
	add	esp, 4
	push	eax
	mov	ecx, DWORD PTR __Ptr$[ebp]
	push	ecx
	mov	edx, DWORD PTR _this$[ebp]
	push	edx
	call	??$construct@PADAAPAD@?$allocator_traits@V?$allocator@D@std@@@std@@SAXAAV?$allocator@D@1@PAPADAAPAD@Z ; std::allocator_traits<std::allocator<char> >::construct<char *,char * &>
	add	esp, 12					; 0000000cH
	mov	esp, ebp
	pop	ebp
	ret	8
??$construct@PADAAPAD@?$_Wrap_alloc@V?$allocator@D@std@@@std@@QAEXPAPADAAPAD@Z ENDP ; std::_Wrap_alloc<std::allocator<char> >::construct<char *,char * &>
_TEXT	ENDS
; Function compile flags: /Odtp
; File c:\users\zhitao li\documents\visual studio 2012\projects\freefalcon\ui\src\campaign\campmenu.cpp
_TEXT	SEGMENT
_i$ = -8						; size = 4
_menu$ = -4						; size = 4
?HookupCampaignMenus@@YAXXZ PROC			; HookupCampaignMenus

; 2068 : {

	push	ebp
	mov	ebp, esp
	sub	esp, 8

; 2069 : 	C_PopupList *menu;
; 2070 : 	int			i;
; 2071 : 
; 2072 : 	menu=gPopupMgr->GetMenu(MAP_POP);

	push	86000					; 00014ff0H
	mov	ecx, DWORD PTR ?gPopupMgr@@3PAVC_PopupMgr@@A ; gPopupMgr
	call	?GetMenu@C_PopupMgr@@QAEPAVC_PopupList@@J@Z ; C_PopupMgr::GetMenu
	mov	DWORD PTR _menu$[ebp], eax

; 2073 : 	if(menu)

	cmp	DWORD PTR _menu$[ebp], 0
	je	$LN17@HookupCamp

; 2074 : 	{
; 2075 : 		menu->SetOpenCallback(MapMenuOpenCB);

	push	OFFSET ?MapMenuOpenCB@@YAXPAVC_Base@@0@Z ; MapMenuOpenCB
	mov	ecx, DWORD PTR _menu$[ebp]
	call	?SetOpenCallback@C_PopupList@@QAEXP6AXPAVC_Base@@0@Z@Z ; C_PopupList::SetOpenCallback

; 2076 : 
; 2077 : 		menu->SetCallback(MID_RECON,MenuReconCB);

	push	OFFSET ?MenuReconCB@@YAXJFPAVC_Base@@@Z	; MenuReconCB
	push	86111					; 0001505fH
	mov	ecx, DWORD PTR _menu$[ebp]
	call	?SetCallback@C_PopupList@@QAEXJP6AXJFPAVC_Base@@@Z@Z ; C_PopupList::SetCallback

; 2078 : 		menu->SetCallback(MID_ADD_FLIGHT,MenuAddUnitCB);

	push	OFFSET ?MenuAddUnitCB@@YAXJFPAVC_Base@@@Z ; MenuAddUnitCB
	push	40083					; 00009c93H
	mov	ecx, DWORD PTR _menu$[ebp]
	call	?SetCallback@C_PopupList@@QAEXJP6AXJFPAVC_Base@@@Z@Z ; C_PopupList::SetCallback

; 2079 : 		menu->SetCallback(MID_ADD_PACKAGE,MenuAddUnitCB);

	push	OFFSET ?MenuAddUnitCB@@YAXJFPAVC_Base@@@Z ; MenuAddUnitCB
	push	86112					; 00015060H
	mov	ecx, DWORD PTR _menu$[ebp]
	call	?SetCallback@C_PopupList@@QAEXJP6AXJFPAVC_Base@@@Z@Z ; C_PopupList::SetCallback

; 2080 : 		menu->SetCallback(MID_ADD_BATTALION,MenuAddUnitCB);

	push	OFFSET ?MenuAddUnitCB@@YAXJFPAVC_Base@@@Z ; MenuAddUnitCB
	push	86113					; 00015061H
	mov	ecx, DWORD PTR _menu$[ebp]
	call	?SetCallback@C_PopupList@@QAEXJP6AXJFPAVC_Base@@@Z@Z ; C_PopupList::SetCallback

; 2081 : 		menu->SetCallback(MID_ADD_SQUADRON, MenuAddUnitCB);

	push	OFFSET ?MenuAddUnitCB@@YAXJFPAVC_Base@@@Z ; MenuAddUnitCB
	push	18114					; 000046c2H
	mov	ecx, DWORD PTR _menu$[ebp]
	call	?SetCallback@C_PopupList@@QAEXJP6AXJFPAVC_Base@@@Z@Z ; C_PopupList::SetCallback

; 2082 : 		// Legend stuff
; 2083 : 		menu->SetCallback(MID_LEG_NAMES,MenuToggleNamesCB);

	push	OFFSET ?MenuToggleNamesCB@@YAXJFPAVC_Base@@@Z ; MenuToggleNamesCB
	push	86010					; 00014ffaH
	mov	ecx, DWORD PTR _menu$[ebp]
	call	?SetCallback@C_PopupList@@QAEXJP6AXJFPAVC_Base@@@Z@Z ; C_PopupList::SetCallback

; 2084 : 		menu->SetCallback(MID_LEG_BULLSEYE,MenuToggleBullseyeCB);

	push	OFFSET ?MenuToggleBullseyeCB@@YAXJFPAVC_Base@@@Z ; MenuToggleBullseyeCB
	push	86124					; 0001506cH
	mov	ecx, DWORD PTR _menu$[ebp]
	call	?SetCallback@C_PopupList@@QAEXJP6AXJFPAVC_Base@@@Z@Z ; C_PopupList::SetCallback

; 2085 : 
; 2086 : 		// Objectives
; 2087 : 		menu->SetCallback(MID_INST_AF,MenuToggleObjectiveCB);

	push	OFFSET ?MenuToggleObjectiveCB@@YAXJFPAVC_Base@@@Z ; MenuToggleObjectiveCB
	push	86019					; 00015003H
	mov	ecx, DWORD PTR _menu$[ebp]
	call	?SetCallback@C_PopupList@@QAEXJP6AXJFPAVC_Base@@@Z@Z ; C_PopupList::SetCallback

; 2088 : 		menu->SetCallback(MID_INST_AD,MenuToggleObjectiveCB);

	push	OFFSET ?MenuToggleObjectiveCB@@YAXJFPAVC_Base@@@Z ; MenuToggleObjectiveCB
	push	86020					; 00015004H
	mov	ecx, DWORD PTR _menu$[ebp]
	call	?SetCallback@C_PopupList@@QAEXJP6AXJFPAVC_Base@@@Z@Z ; C_PopupList::SetCallback

; 2089 : 		menu->SetCallback(MID_INST_ARMY,MenuToggleObjectiveCB);

	push	OFFSET ?MenuToggleObjectiveCB@@YAXJFPAVC_Base@@@Z ; MenuToggleObjectiveCB
	push	86021					; 00015005H
	mov	ecx, DWORD PTR _menu$[ebp]
	call	?SetCallback@C_PopupList@@QAEXJP6AXJFPAVC_Base@@@Z@Z ; C_PopupList::SetCallback

; 2090 : 		menu->SetCallback(MID_INST_CCC,MenuToggleObjectiveCB);

	push	OFFSET ?MenuToggleObjectiveCB@@YAXJFPAVC_Base@@@Z ; MenuToggleObjectiveCB
	push	86022					; 00015006H
	mov	ecx, DWORD PTR _menu$[ebp]
	call	?SetCallback@C_PopupList@@QAEXJP6AXJFPAVC_Base@@@Z@Z ; C_PopupList::SetCallback

; 2091 : 		menu->SetCallback(MID_INST_POLITICAL,MenuToggleObjectiveCB);

	push	OFFSET ?MenuToggleObjectiveCB@@YAXJFPAVC_Base@@@Z ; MenuToggleObjectiveCB
	push	86023					; 00015007H
	mov	ecx, DWORD PTR _menu$[ebp]
	call	?SetCallback@C_PopupList@@QAEXJP6AXJFPAVC_Base@@@Z@Z ; C_PopupList::SetCallback

; 2092 : 		menu->SetCallback(MID_INST_INFRA,MenuToggleObjectiveCB);

	push	OFFSET ?MenuToggleObjectiveCB@@YAXJFPAVC_Base@@@Z ; MenuToggleObjectiveCB
	push	86024					; 00015008H
	mov	ecx, DWORD PTR _menu$[ebp]
	call	?SetCallback@C_PopupList@@QAEXJP6AXJFPAVC_Base@@@Z@Z ; C_PopupList::SetCallback

; 2093 : 		menu->SetCallback(MID_INST_LOG,MenuToggleObjectiveCB);

	push	OFFSET ?MenuToggleObjectiveCB@@YAXJFPAVC_Base@@@Z ; MenuToggleObjectiveCB
	push	86025					; 00015009H
	mov	ecx, DWORD PTR _menu$[ebp]
	call	?SetCallback@C_PopupList@@QAEXJP6AXJFPAVC_Base@@@Z@Z ; C_PopupList::SetCallback

; 2094 : 		menu->SetCallback(MID_INST_WARPROD,MenuToggleObjectiveCB);

	push	OFFSET ?MenuToggleObjectiveCB@@YAXJFPAVC_Base@@@Z ; MenuToggleObjectiveCB
	push	86026					; 0001500aH
	mov	ecx, DWORD PTR _menu$[ebp]
	call	?SetCallback@C_PopupList@@QAEXJP6AXJFPAVC_Base@@@Z@Z ; C_PopupList::SetCallback

; 2095 : 		menu->SetCallback(MID_INST_NAV,MenuToggleObjectiveCB);

	push	OFFSET ?MenuToggleObjectiveCB@@YAXJFPAVC_Base@@@Z ; MenuToggleObjectiveCB
	push	86027					; 0001500bH
	mov	ecx, DWORD PTR _menu$[ebp]
	call	?SetCallback@C_PopupList@@QAEXJP6AXJFPAVC_Base@@@Z@Z ; C_PopupList::SetCallback

; 2096 : 		menu->SetCallback(MID_INST_OTHER,MenuToggleObjectiveCB);

	push	OFFSET ?MenuToggleObjectiveCB@@YAXJFPAVC_Base@@@Z ; MenuToggleObjectiveCB
	push	86028					; 0001500cH
	mov	ecx, DWORD PTR _menu$[ebp]
	call	?SetCallback@C_PopupList@@QAEXJP6AXJFPAVC_Base@@@Z@Z ; C_PopupList::SetCallback

; 2097 : 		menu->SetCallback(MID_INST_NAVAL,MenuToggleObjectiveCB);

	push	OFFSET ?MenuToggleObjectiveCB@@YAXJFPAVC_Base@@@Z ; MenuToggleObjectiveCB
	push	86029					; 0001500dH
	mov	ecx, DWORD PTR _menu$[ebp]
	call	?SetCallback@C_PopupList@@QAEXJP6AXJFPAVC_Base@@@Z@Z ; C_PopupList::SetCallback

; 2098 : 		menu->SetCallback(MID_SHOW_VC,MenuToggleObjectiveCB);

	push	OFFSET ?MenuToggleObjectiveCB@@YAXJFPAVC_Base@@@Z ; MenuToggleObjectiveCB
	push	40085					; 00009c95H
	mov	ecx, DWORD PTR _menu$[ebp]
	call	?SetCallback@C_PopupList@@QAEXJP6AXJFPAVC_Base@@@Z@Z ; C_PopupList::SetCallback

; 2099 : 
; 2100 : 		// Units
; 2101 : 		menu->SetCallback(MID_UNITS_SQUAD_SQUADRON,MenuToggleUnitCB);

	push	OFFSET ?MenuToggleUnitCB@@YAXJFPAVC_Base@@@Z ; MenuToggleUnitCB
	push	86049					; 00015021H
	mov	ecx, DWORD PTR _menu$[ebp]
	call	?SetCallback@C_PopupList@@QAEXJP6AXJFPAVC_Base@@@Z@Z ; C_PopupList::SetCallback

; 2102 : 		menu->SetCallback(MID_UNITS_SQUAD_PACKAGE,MenuToggleUnitCB);

	push	OFFSET ?MenuToggleUnitCB@@YAXJFPAVC_Base@@@Z ; MenuToggleUnitCB
	push	86050					; 00015022H
	mov	ecx, DWORD PTR _menu$[ebp]
	call	?SetCallback@C_PopupList@@QAEXJP6AXJFPAVC_Base@@@Z@Z ; C_PopupList::SetCallback

; 2103 : 		menu->SetCallback(MID_UNITS_DIV,MenuToggleUnitCB);

	push	OFFSET ?MenuToggleUnitCB@@YAXJFPAVC_Base@@@Z ; MenuToggleUnitCB
	push	86030					; 0001500eH
	mov	ecx, DWORD PTR _menu$[ebp]
	call	?SetCallback@C_PopupList@@QAEXJP6AXJFPAVC_Base@@@Z@Z ; C_PopupList::SetCallback

; 2104 : 		menu->SetCallback(MID_UNITS_BRIG,MenuToggleUnitCB);

	push	OFFSET ?MenuToggleUnitCB@@YAXJFPAVC_Base@@@Z ; MenuToggleUnitCB
	push	86031					; 0001500fH
	mov	ecx, DWORD PTR _menu$[ebp]
	call	?SetCallback@C_PopupList@@QAEXJP6AXJFPAVC_Base@@@Z@Z ; C_PopupList::SetCallback

; 2105 : 		menu->SetCallback(MID_UNITS_BAT,MenuToggleUnitCB);

	push	OFFSET ?MenuToggleUnitCB@@YAXJFPAVC_Base@@@Z ; MenuToggleUnitCB
	push	86032					; 00015010H
	mov	ecx, DWORD PTR _menu$[ebp]
	call	?SetCallback@C_PopupList@@QAEXJP6AXJFPAVC_Base@@@Z@Z ; C_PopupList::SetCallback

; 2106 : 		menu->SetCallback(MID_UNITS_COMBAT,MenuToggleUnitCB);

	push	OFFSET ?MenuToggleUnitCB@@YAXJFPAVC_Base@@@Z ; MenuToggleUnitCB
	push	86033					; 00015011H
	mov	ecx, DWORD PTR _menu$[ebp]
	call	?SetCallback@C_PopupList@@QAEXJP6AXJFPAVC_Base@@@Z@Z ; C_PopupList::SetCallback

; 2107 : 		menu->SetCallback(MID_UNITS_AD,MenuToggleUnitCB);

	push	OFFSET ?MenuToggleUnitCB@@YAXJFPAVC_Base@@@Z ; MenuToggleUnitCB
	push	86034					; 00015012H
	mov	ecx, DWORD PTR _menu$[ebp]
	call	?SetCallback@C_PopupList@@QAEXJP6AXJFPAVC_Base@@@Z@Z ; C_PopupList::SetCallback

; 2108 : 		menu->SetCallback(MID_UNITS_SUPPORT,MenuToggleUnitCB);

	push	OFFSET ?MenuToggleUnitCB@@YAXJFPAVC_Base@@@Z ; MenuToggleUnitCB
	push	86035					; 00015013H
	mov	ecx, DWORD PTR _menu$[ebp]
	call	?SetCallback@C_PopupList@@QAEXJP6AXJFPAVC_Base@@@Z@Z ; C_PopupList::SetCallback

; 2109 : 		menu->SetCallback(MID_UNITS_SQUAD_FIGHTER,MenuToggleUnitCB);

	push	OFFSET ?MenuToggleUnitCB@@YAXJFPAVC_Base@@@Z ; MenuToggleUnitCB
	push	86037					; 00015015H
	mov	ecx, DWORD PTR _menu$[ebp]
	call	?SetCallback@C_PopupList@@QAEXJP6AXJFPAVC_Base@@@Z@Z ; C_PopupList::SetCallback

; 2110 : 		menu->SetCallback(MID_UNITS_SQUAD_FIGHTBOMB,MenuToggleUnitCB);

	push	OFFSET ?MenuToggleUnitCB@@YAXJFPAVC_Base@@@Z ; MenuToggleUnitCB
	push	86038					; 00015016H
	mov	ecx, DWORD PTR _menu$[ebp]
	call	?SetCallback@C_PopupList@@QAEXJP6AXJFPAVC_Base@@@Z@Z ; C_PopupList::SetCallback

; 2111 : 		menu->SetCallback(MID_UNITS_SQUAD_ATTACK,MenuToggleUnitCB);

	push	OFFSET ?MenuToggleUnitCB@@YAXJFPAVC_Base@@@Z ; MenuToggleUnitCB
	push	86039					; 00015017H
	mov	ecx, DWORD PTR _menu$[ebp]
	call	?SetCallback@C_PopupList@@QAEXJP6AXJFPAVC_Base@@@Z@Z ; C_PopupList::SetCallback

; 2112 : 		menu->SetCallback(MID_UNITS_SQUAD_BOMBER,MenuToggleUnitCB);

	push	OFFSET ?MenuToggleUnitCB@@YAXJFPAVC_Base@@@Z ; MenuToggleUnitCB
	push	86040					; 00015018H
	mov	ecx, DWORD PTR _menu$[ebp]
	call	?SetCallback@C_PopupList@@QAEXJP6AXJFPAVC_Base@@@Z@Z ; C_PopupList::SetCallback

; 2113 : 		menu->SetCallback(MID_UNITS_SQUAD_SUPPORT,MenuToggleUnitCB);

	push	OFFSET ?MenuToggleUnitCB@@YAXJFPAVC_Base@@@Z ; MenuToggleUnitCB
	push	86041					; 00015019H
	mov	ecx, DWORD PTR _menu$[ebp]
	call	?SetCallback@C_PopupList@@QAEXJP6AXJFPAVC_Base@@@Z@Z ; C_PopupList::SetCallback

; 2114 : 		menu->SetCallback(MID_UNITS_SQUAD_HELI,MenuToggleUnitCB);

	push	OFFSET ?MenuToggleUnitCB@@YAXJFPAVC_Base@@@Z ; MenuToggleUnitCB
	push	86042					; 0001501aH
	mov	ecx, DWORD PTR _menu$[ebp]
	call	?SetCallback@C_PopupList@@QAEXJP6AXJFPAVC_Base@@@Z@Z ; C_PopupList::SetCallback

; 2115 : 		if (g_nUnidentifiedInUI) menu->SetCallback(MID_UNITS_SQUAD_UNKNOWN,MenuToggleUnitCB);// 2002-02-21 ADDED BY S.G. For 'Unknown' type of flight

	cmp	DWORD PTR ?g_nUnidentifiedInUI@@3HA, 0	; g_nUnidentifiedInUI
	je	SHORT $LN16@HookupCamp
	push	OFFSET ?MenuToggleUnitCB@@YAXJFPAVC_Base@@@Z ; MenuToggleUnitCB
	push	86051					; 00015023H
	mov	ecx, DWORD PTR _menu$[ebp]
	call	?SetCallback@C_PopupList@@QAEXJP6AXJFPAVC_Base@@@Z@Z ; C_PopupList::SetCallback
$LN16@HookupCamp:

; 2116 : 		menu->SetCallback(MID_UNITS_NAVY_COMBAT,MenuToggleUnitCB);

	push	OFFSET ?MenuToggleUnitCB@@YAXJFPAVC_Base@@@Z ; MenuToggleUnitCB
	push	86043					; 0001501bH
	mov	ecx, DWORD PTR _menu$[ebp]
	call	?SetCallback@C_PopupList@@QAEXJP6AXJFPAVC_Base@@@Z@Z ; C_PopupList::SetCallback

; 2117 : 		menu->SetCallback(MID_UNITS_NAVY_SUPPLY,MenuToggleUnitCB);

	push	OFFSET ?MenuToggleUnitCB@@YAXJFPAVC_Base@@@Z ; MenuToggleUnitCB
	push	86044					; 0001501cH
	mov	ecx, DWORD PTR _menu$[ebp]
	call	?SetCallback@C_PopupList@@QAEXJP6AXJFPAVC_Base@@@Z@Z ; C_PopupList::SetCallback

; 2118 : 
; 2119 : 		// Sams/Radar
; 2120 : 		menu->SetCallback(MID_OFF,MenuSetCirclesCB);

	push	OFFSET ?MenuSetCirclesCB@@YAXJFPAVC_Base@@@Z ; MenuSetCirclesCB
	push	86100					; 00015054H
	mov	ecx, DWORD PTR _menu$[ebp]
	call	?SetCallback@C_PopupList@@QAEXJP6AXJFPAVC_Base@@@Z@Z ; C_PopupList::SetCallback

; 2121 : 		menu->SetCallback(MID_CIRCLE_SAM_LOW,MenuSetCirclesCB);

	push	OFFSET ?MenuSetCirclesCB@@YAXJFPAVC_Base@@@Z ; MenuSetCirclesCB
	push	86045					; 0001501dH
	mov	ecx, DWORD PTR _menu$[ebp]
	call	?SetCallback@C_PopupList@@QAEXJP6AXJFPAVC_Base@@@Z@Z ; C_PopupList::SetCallback

; 2122 : 		menu->SetCallback(MID_CIRCLE_SAM_HIGH,MenuSetCirclesCB);

	push	OFFSET ?MenuSetCirclesCB@@YAXJFPAVC_Base@@@Z ; MenuSetCirclesCB
	push	86046					; 0001501eH
	mov	ecx, DWORD PTR _menu$[ebp]
	call	?SetCallback@C_PopupList@@QAEXJP6AXJFPAVC_Base@@@Z@Z ; C_PopupList::SetCallback

; 2123 : 		menu->SetCallback(MID_CIRCLE_RADAR_LOW,MenuSetCirclesCB);

	push	OFFSET ?MenuSetCirclesCB@@YAXJFPAVC_Base@@@Z ; MenuSetCirclesCB
	push	86047					; 0001501fH
	mov	ecx, DWORD PTR _menu$[ebp]
	call	?SetCallback@C_PopupList@@QAEXJP6AXJFPAVC_Base@@@Z@Z ; C_PopupList::SetCallback

; 2124 : 		menu->SetCallback(MID_CIRCLE_RADAR_HIGH,MenuSetCirclesCB);

	push	OFFSET ?MenuSetCirclesCB@@YAXJFPAVC_Base@@@Z ; MenuSetCirclesCB
	push	86048					; 00015020H
	mov	ecx, DWORD PTR _menu$[ebp]
	call	?SetCallback@C_PopupList@@QAEXJP6AXJFPAVC_Base@@@Z@Z ; C_PopupList::SetCallback
$LN17@HookupCamp:

; 2125 : 	}
; 2126 : 
; 2127 : 	menu=gPopupMgr->GetMenu(OBJECTIVE_POP);

	push	18199					; 00004717H
	mov	ecx, DWORD PTR ?gPopupMgr@@3PAVC_PopupMgr@@A ; gPopupMgr
	call	?GetMenu@C_PopupMgr@@QAEPAVC_PopupList@@J@Z ; C_PopupMgr::GetMenu
	mov	DWORD PTR _menu$[ebp], eax

; 2128 : 	if(menu)

	cmp	DWORD PTR _menu$[ebp], 0
	je	$LN15@HookupCamp

; 2129 : 	{
; 2130 : 		menu->SetOpenCallback(ObjMenuOpenCB);

	push	OFFSET ?ObjMenuOpenCB@@YAXPAVC_Base@@0@Z ; ObjMenuOpenCB
	mov	ecx, DWORD PTR _menu$[ebp]
	call	?SetOpenCallback@C_PopupList@@QAEXP6AXPAVC_Base@@0@Z@Z ; C_PopupList::SetOpenCallback

; 2131 : 
; 2132 : 		menu->SetCallback(MID_RECON,MenuReconCB);

	push	OFFSET ?MenuReconCB@@YAXJFPAVC_Base@@@Z	; MenuReconCB
	push	86111					; 0001505fH
	mov	ecx, DWORD PTR _menu$[ebp]
	call	?SetCallback@C_PopupList@@QAEXJP6AXJFPAVC_Base@@@Z@Z ; C_PopupList::SetCallback

; 2133 : 		menu->SetCallback(MID_STATUS,MenuStatusCB);

	push	OFFSET ?MenuStatusCB@@YAXJFPAVC_Base@@@Z ; MenuStatusCB
	push	18202					; 0000471aH
	mov	ecx, DWORD PTR _menu$[ebp]
	call	?SetCallback@C_PopupList@@QAEXJP6AXJFPAVC_Base@@@Z@Z ; C_PopupList::SetCallback

; 2134 : 		menu->SetCallback(MID_ADD_FLIGHT,MenuAddUnitCB);

	push	OFFSET ?MenuAddUnitCB@@YAXJFPAVC_Base@@@Z ; MenuAddUnitCB
	push	40083					; 00009c93H
	mov	ecx, DWORD PTR _menu$[ebp]
	call	?SetCallback@C_PopupList@@QAEXJP6AXJFPAVC_Base@@@Z@Z ; C_PopupList::SetCallback

; 2135 : 		menu->SetCallback(MID_ADD_PACKAGE,MenuAddUnitCB);

	push	OFFSET ?MenuAddUnitCB@@YAXJFPAVC_Base@@@Z ; MenuAddUnitCB
	push	86112					; 00015060H
	mov	ecx, DWORD PTR _menu$[ebp]
	call	?SetCallback@C_PopupList@@QAEXJP6AXJFPAVC_Base@@@Z@Z ; C_PopupList::SetCallback

; 2136 : 		menu->SetCallback(MID_ADD_BATTALION,MenuAddUnitCB);

	push	OFFSET ?MenuAddUnitCB@@YAXJFPAVC_Base@@@Z ; MenuAddUnitCB
	push	86113					; 00015061H
	mov	ecx, DWORD PTR _menu$[ebp]
	call	?SetCallback@C_PopupList@@QAEXJP6AXJFPAVC_Base@@@Z@Z ; C_PopupList::SetCallback

; 2137 : 		menu->SetCallback(MID_ADD_SQUADRON,MenuAddUnitCB);

	push	OFFSET ?MenuAddUnitCB@@YAXJFPAVC_Base@@@Z ; MenuAddUnitCB
	push	18114					; 000046c2H
	mov	ecx, DWORD PTR _menu$[ebp]
	call	?SetCallback@C_PopupList@@QAEXJP6AXJFPAVC_Base@@@Z@Z ; C_PopupList::SetCallback

; 2138 : 		menu->SetCallback(MID_ADD_VC,MenuAddVCCB);

	push	OFFSET ?MenuAddVCCB@@YAXJFPAVC_Base@@@Z	; MenuAddVCCB
	push	86116					; 00015064H
	mov	ecx, DWORD PTR _menu$[ebp]
	call	?SetCallback@C_PopupList@@QAEXJP6AXJFPAVC_Base@@@Z@Z ; C_PopupList::SetCallback

; 2139 : 		menu->SetCallback(MID_TEAM_0,MenuSetOwnerCB);

	push	OFFSET ?MenuSetOwnerCB@@YAXJFPAVC_Base@@@Z ; MenuSetOwnerCB
	push	18122					; 000046caH
	mov	ecx, DWORD PTR _menu$[ebp]
	call	?SetCallback@C_PopupList@@QAEXJP6AXJFPAVC_Base@@@Z@Z ; C_PopupList::SetCallback

; 2140 : 		menu->SetCallback(MID_TEAM_1,MenuSetOwnerCB);

	push	OFFSET ?MenuSetOwnerCB@@YAXJFPAVC_Base@@@Z ; MenuSetOwnerCB
	push	18123					; 000046cbH
	mov	ecx, DWORD PTR _menu$[ebp]
	call	?SetCallback@C_PopupList@@QAEXJP6AXJFPAVC_Base@@@Z@Z ; C_PopupList::SetCallback

; 2141 : 		menu->SetCallback(MID_TEAM_2,MenuSetOwnerCB);

	push	OFFSET ?MenuSetOwnerCB@@YAXJFPAVC_Base@@@Z ; MenuSetOwnerCB
	push	18124					; 000046ccH
	mov	ecx, DWORD PTR _menu$[ebp]
	call	?SetCallback@C_PopupList@@QAEXJP6AXJFPAVC_Base@@@Z@Z ; C_PopupList::SetCallback

; 2142 : 		menu->SetCallback(MID_TEAM_3,MenuSetOwnerCB);

	push	OFFSET ?MenuSetOwnerCB@@YAXJFPAVC_Base@@@Z ; MenuSetOwnerCB
	push	18125					; 000046cdH
	mov	ecx, DWORD PTR _menu$[ebp]
	call	?SetCallback@C_PopupList@@QAEXJP6AXJFPAVC_Base@@@Z@Z ; C_PopupList::SetCallback

; 2143 : 		menu->SetCallback(MID_TEAM_4,MenuSetOwnerCB);

	push	OFFSET ?MenuSetOwnerCB@@YAXJFPAVC_Base@@@Z ; MenuSetOwnerCB
	push	18126					; 000046ceH
	mov	ecx, DWORD PTR _menu$[ebp]
	call	?SetCallback@C_PopupList@@QAEXJP6AXJFPAVC_Base@@@Z@Z ; C_PopupList::SetCallback

; 2144 : 		menu->SetCallback(MID_TEAM_5,MenuSetOwnerCB);

	push	OFFSET ?MenuSetOwnerCB@@YAXJFPAVC_Base@@@Z ; MenuSetOwnerCB
	push	18127					; 000046cfH
	mov	ecx, DWORD PTR _menu$[ebp]
	call	?SetCallback@C_PopupList@@QAEXJP6AXJFPAVC_Base@@@Z@Z ; C_PopupList::SetCallback

; 2145 : 		menu->SetCallback(MID_TEAM_6,MenuSetOwnerCB);

	push	OFFSET ?MenuSetOwnerCB@@YAXJFPAVC_Base@@@Z ; MenuSetOwnerCB
	push	18128					; 000046d0H
	mov	ecx, DWORD PTR _menu$[ebp]
	call	?SetCallback@C_PopupList@@QAEXJP6AXJFPAVC_Base@@@Z@Z ; C_PopupList::SetCallback

; 2146 : 		menu->SetCallback(MID_TEAM_7,MenuSetOwnerCB);

	push	OFFSET ?MenuSetOwnerCB@@YAXJFPAVC_Base@@@Z ; MenuSetOwnerCB
	push	18129					; 000046d1H
	mov	ecx, DWORD PTR _menu$[ebp]
	call	?SetCallback@C_PopupList@@QAEXJP6AXJFPAVC_Base@@@Z@Z ; C_PopupList::SetCallback
$LN15@HookupCamp:

; 2147 : 	}
; 2148 : 
; 2149 : 	menu=gPopupMgr->GetMenu(SQUADRON_POP);

	push	18216					; 00004728H
	mov	ecx, DWORD PTR ?gPopupMgr@@3PAVC_PopupMgr@@A ; gPopupMgr
	call	?GetMenu@C_PopupMgr@@QAEPAVC_PopupList@@J@Z ; C_PopupMgr::GetMenu
	mov	DWORD PTR _menu$[ebp], eax

; 2150 : 	if(menu)

	cmp	DWORD PTR _menu$[ebp], 0
	je	SHORT $LN14@HookupCamp

; 2151 : 	{
; 2152 : 		menu->SetCallback(MID_RECON,MenuReconCB);

	push	OFFSET ?MenuReconCB@@YAXJFPAVC_Base@@@Z	; MenuReconCB
	push	86111					; 0001505fH
	mov	ecx, DWORD PTR _menu$[ebp]
	call	?SetCallback@C_PopupList@@QAEXJP6AXJFPAVC_Base@@@Z@Z ; C_PopupList::SetCallback

; 2153 : 		menu->SetCallback(MID_ADD_FLIGHT,MenuAddUnitCB);

	push	OFFSET ?MenuAddUnitCB@@YAXJFPAVC_Base@@@Z ; MenuAddUnitCB
	push	40083					; 00009c93H
	mov	ecx, DWORD PTR _menu$[ebp]
	call	?SetCallback@C_PopupList@@QAEXJP6AXJFPAVC_Base@@@Z@Z ; C_PopupList::SetCallback

; 2154 : 		menu->SetCallback(MID_ADD_PACKAGE,MenuAddUnitCB);

	push	OFFSET ?MenuAddUnitCB@@YAXJFPAVC_Base@@@Z ; MenuAddUnitCB
	push	86112					; 00015060H
	mov	ecx, DWORD PTR _menu$[ebp]
	call	?SetCallback@C_PopupList@@QAEXJP6AXJFPAVC_Base@@@Z@Z ; C_PopupList::SetCallback

; 2155 : 		menu->SetCallback(MID_ADD_BATTALION,MenuAddUnitCB);

	push	OFFSET ?MenuAddUnitCB@@YAXJFPAVC_Base@@@Z ; MenuAddUnitCB
	push	86113					; 00015061H
	mov	ecx, DWORD PTR _menu$[ebp]
	call	?SetCallback@C_PopupList@@QAEXJP6AXJFPAVC_Base@@@Z@Z ; C_PopupList::SetCallback

; 2156 : 		menu->SetCallback(MID_STATUS,MenuUnitStatusCB);

	push	OFFSET ?MenuUnitStatusCB@@YAXJFPAVC_Base@@@Z ; MenuUnitStatusCB
	push	18202					; 0000471aH
	mov	ecx, DWORD PTR _menu$[ebp]
	call	?SetCallback@C_PopupList@@QAEXJP6AXJFPAVC_Base@@@Z@Z ; C_PopupList::SetCallback

; 2157 : 		menu->SetCallback(MID_DELETE_UNIT,MenuUnitDeleteCB);

	push	OFFSET ?MenuUnitDeleteCB@@YAXJFPAVC_Base@@@Z ; MenuUnitDeleteCB
	push	18204					; 0000471cH
	mov	ecx, DWORD PTR _menu$[ebp]
	call	?SetCallback@C_PopupList@@QAEXJP6AXJFPAVC_Base@@@Z@Z ; C_PopupList::SetCallback

; 2158 : 		menu->SetCallback(MID_ADD_VC,MenuAddVCCB);

	push	OFFSET ?MenuAddVCCB@@YAXJFPAVC_Base@@@Z	; MenuAddVCCB
	push	86116					; 00015064H
	mov	ecx, DWORD PTR _menu$[ebp]
	call	?SetCallback@C_PopupList@@QAEXJP6AXJFPAVC_Base@@@Z@Z ; C_PopupList::SetCallback
$LN14@HookupCamp:

; 2159 : 	}
; 2160 : 
; 2161 : 	menu=gPopupMgr->GetMenu(UNIT_POP);

	push	18200					; 00004718H
	mov	ecx, DWORD PTR ?gPopupMgr@@3PAVC_PopupMgr@@A ; gPopupMgr
	call	?GetMenu@C_PopupMgr@@QAEPAVC_PopupList@@J@Z ; C_PopupMgr::GetMenu
	mov	DWORD PTR _menu$[ebp], eax

; 2162 : 	if(menu)

	cmp	DWORD PTR _menu$[ebp], 0
	je	$LN13@HookupCamp

; 2163 : 	{
; 2164 : 		menu->SetOpenCallback(OpenUnitMenuCB);

	push	OFFSET ?OpenUnitMenuCB@@YAXPAVC_Base@@0@Z ; OpenUnitMenuCB
	mov	ecx, DWORD PTR _menu$[ebp]
	call	?SetOpenCallback@C_PopupList@@QAEXP6AXPAVC_Base@@0@Z@Z ; C_PopupList::SetOpenCallback

; 2165 : 		menu->SetCallback(MID_RECON,MenuReconCB);

	push	OFFSET ?MenuReconCB@@YAXJFPAVC_Base@@@Z	; MenuReconCB
	push	86111					; 0001505fH
	mov	ecx, DWORD PTR _menu$[ebp]
	call	?SetCallback@C_PopupList@@QAEXJP6AXJFPAVC_Base@@@Z@Z ; C_PopupList::SetCallback

; 2166 : 		menu->SetCallback(MID_ADD_FLIGHT,MenuAddUnitCB);

	push	OFFSET ?MenuAddUnitCB@@YAXJFPAVC_Base@@@Z ; MenuAddUnitCB
	push	40083					; 00009c93H
	mov	ecx, DWORD PTR _menu$[ebp]
	call	?SetCallback@C_PopupList@@QAEXJP6AXJFPAVC_Base@@@Z@Z ; C_PopupList::SetCallback

; 2167 : 		menu->SetCallback(MID_ADD_PACKAGE,MenuAddUnitCB);

	push	OFFSET ?MenuAddUnitCB@@YAXJFPAVC_Base@@@Z ; MenuAddUnitCB
	push	86112					; 00015060H
	mov	ecx, DWORD PTR _menu$[ebp]
	call	?SetCallback@C_PopupList@@QAEXJP6AXJFPAVC_Base@@@Z@Z ; C_PopupList::SetCallback

; 2168 : 		menu->SetCallback(MID_ADD_BATTALION,MenuAddUnitCB);

	push	OFFSET ?MenuAddUnitCB@@YAXJFPAVC_Base@@@Z ; MenuAddUnitCB
	push	86113					; 00015061H
	mov	ecx, DWORD PTR _menu$[ebp]
	call	?SetCallback@C_PopupList@@QAEXJP6AXJFPAVC_Base@@@Z@Z ; C_PopupList::SetCallback

; 2169 : 		menu->SetCallback(MID_STATUS,MenuUnitStatusCB);

	push	OFFSET ?MenuUnitStatusCB@@YAXJFPAVC_Base@@@Z ; MenuUnitStatusCB
	push	18202					; 0000471aH
	mov	ecx, DWORD PTR _menu$[ebp]
	call	?SetCallback@C_PopupList@@QAEXJP6AXJFPAVC_Base@@@Z@Z ; C_PopupList::SetCallback

; 2170 : 		menu->SetCallback(MID_DELETE_UNIT,MenuUnitDeleteCB);

	push	OFFSET ?MenuUnitDeleteCB@@YAXJFPAVC_Base@@@Z ; MenuUnitDeleteCB
	push	18204					; 0000471cH
	mov	ecx, DWORD PTR _menu$[ebp]
	call	?SetCallback@C_PopupList@@QAEXJP6AXJFPAVC_Base@@@Z@Z ; C_PopupList::SetCallback

; 2171 : 		menu->SetCallback(MID_ADD_VC,MenuAddVCCB);

	push	OFFSET ?MenuAddVCCB@@YAXJFPAVC_Base@@@Z	; MenuAddVCCB
	push	86116					; 00015064H
	mov	ecx, DWORD PTR _menu$[ebp]
	call	?SetCallback@C_PopupList@@QAEXJP6AXJFPAVC_Base@@@Z@Z ; C_PopupList::SetCallback

; 2172 : 		menu->SetCallback(MID_TEAM_0,MenuSetOwnerCB);

	push	OFFSET ?MenuSetOwnerCB@@YAXJFPAVC_Base@@@Z ; MenuSetOwnerCB
	push	18122					; 000046caH
	mov	ecx, DWORD PTR _menu$[ebp]
	call	?SetCallback@C_PopupList@@QAEXJP6AXJFPAVC_Base@@@Z@Z ; C_PopupList::SetCallback

; 2173 : 		menu->SetCallback(MID_TEAM_1,MenuSetOwnerCB);

	push	OFFSET ?MenuSetOwnerCB@@YAXJFPAVC_Base@@@Z ; MenuSetOwnerCB
	push	18123					; 000046cbH
	mov	ecx, DWORD PTR _menu$[ebp]
	call	?SetCallback@C_PopupList@@QAEXJP6AXJFPAVC_Base@@@Z@Z ; C_PopupList::SetCallback

; 2174 : 		menu->SetCallback(MID_TEAM_2,MenuSetOwnerCB);

	push	OFFSET ?MenuSetOwnerCB@@YAXJFPAVC_Base@@@Z ; MenuSetOwnerCB
	push	18124					; 000046ccH
	mov	ecx, DWORD PTR _menu$[ebp]
	call	?SetCallback@C_PopupList@@QAEXJP6AXJFPAVC_Base@@@Z@Z ; C_PopupList::SetCallback

; 2175 : 		menu->SetCallback(MID_TEAM_3,MenuSetOwnerCB);

	push	OFFSET ?MenuSetOwnerCB@@YAXJFPAVC_Base@@@Z ; MenuSetOwnerCB
	push	18125					; 000046cdH
	mov	ecx, DWORD PTR _menu$[ebp]
	call	?SetCallback@C_PopupList@@QAEXJP6AXJFPAVC_Base@@@Z@Z ; C_PopupList::SetCallback

; 2176 : 		menu->SetCallback(MID_TEAM_4,MenuSetOwnerCB);

	push	OFFSET ?MenuSetOwnerCB@@YAXJFPAVC_Base@@@Z ; MenuSetOwnerCB
	push	18126					; 000046ceH
	mov	ecx, DWORD PTR _menu$[ebp]
	call	?SetCallback@C_PopupList@@QAEXJP6AXJFPAVC_Base@@@Z@Z ; C_PopupList::SetCallback

; 2177 : 		menu->SetCallback(MID_TEAM_5,MenuSetOwnerCB);

	push	OFFSET ?MenuSetOwnerCB@@YAXJFPAVC_Base@@@Z ; MenuSetOwnerCB
	push	18127					; 000046cfH
	mov	ecx, DWORD PTR _menu$[ebp]
	call	?SetCallback@C_PopupList@@QAEXJP6AXJFPAVC_Base@@@Z@Z ; C_PopupList::SetCallback

; 2178 : 		menu->SetCallback(MID_TEAM_6,MenuSetOwnerCB);

	push	OFFSET ?MenuSetOwnerCB@@YAXJFPAVC_Base@@@Z ; MenuSetOwnerCB
	push	18128					; 000046d0H
	mov	ecx, DWORD PTR _menu$[ebp]
	call	?SetCallback@C_PopupList@@QAEXJP6AXJFPAVC_Base@@@Z@Z ; C_PopupList::SetCallback

; 2179 : 		menu->SetCallback(MID_TEAM_7,MenuSetOwnerCB);

	push	OFFSET ?MenuSetOwnerCB@@YAXJFPAVC_Base@@@Z ; MenuSetOwnerCB
	push	18129					; 000046d1H
	mov	ecx, DWORD PTR _menu$[ebp]
	call	?SetCallback@C_PopupList@@QAEXJP6AXJFPAVC_Base@@@Z@Z ; C_PopupList::SetCallback
$LN13@HookupCamp:

; 2180 : 	}
; 2181 : 
; 2182 : 	menu=gPopupMgr->GetMenu(AIRUNIT_MENU);

	push	18710					; 00004916H
	mov	ecx, DWORD PTR ?gPopupMgr@@3PAVC_PopupMgr@@A ; gPopupMgr
	call	?GetMenu@C_PopupMgr@@QAEPAVC_PopupList@@J@Z ; C_PopupMgr::GetMenu
	mov	DWORD PTR _menu$[ebp], eax

; 2183 : 	if(menu)

	cmp	DWORD PTR _menu$[ebp], 0
	je	$LN12@HookupCamp

; 2184 : 	{
; 2185 : 		menu->SetOpenCallback(OpenUnitMenuCB);

	push	OFFSET ?OpenUnitMenuCB@@YAXPAVC_Base@@0@Z ; OpenUnitMenuCB
	mov	ecx, DWORD PTR _menu$[ebp]
	call	?SetOpenCallback@C_PopupList@@QAEXP6AXPAVC_Base@@0@Z@Z ; C_PopupList::SetOpenCallback

; 2186 : 		menu->SetCallback(MID_RECON,MenuReconCB);

	push	OFFSET ?MenuReconCB@@YAXJFPAVC_Base@@@Z	; MenuReconCB
	push	86111					; 0001505fH
	mov	ecx, DWORD PTR _menu$[ebp]
	call	?SetCallback@C_PopupList@@QAEXJP6AXJFPAVC_Base@@@Z@Z ; C_PopupList::SetCallback

; 2187 : 		menu->SetCallback(MID_ADD_FLIGHT,MenuAddUnitCB);

	push	OFFSET ?MenuAddUnitCB@@YAXJFPAVC_Base@@@Z ; MenuAddUnitCB
	push	40083					; 00009c93H
	mov	ecx, DWORD PTR _menu$[ebp]
	call	?SetCallback@C_PopupList@@QAEXJP6AXJFPAVC_Base@@@Z@Z ; C_PopupList::SetCallback

; 2188 : 		menu->SetCallback(MID_ADD_PACKAGE,MenuAddUnitCB);

	push	OFFSET ?MenuAddUnitCB@@YAXJFPAVC_Base@@@Z ; MenuAddUnitCB
	push	86112					; 00015060H
	mov	ecx, DWORD PTR _menu$[ebp]
	call	?SetCallback@C_PopupList@@QAEXJP6AXJFPAVC_Base@@@Z@Z ; C_PopupList::SetCallback

; 2189 : 		menu->SetCallback(MID_ADD_BATTALION,MenuAddUnitCB);

	push	OFFSET ?MenuAddUnitCB@@YAXJFPAVC_Base@@@Z ; MenuAddUnitCB
	push	86113					; 00015061H
	mov	ecx, DWORD PTR _menu$[ebp]
	call	?SetCallback@C_PopupList@@QAEXJP6AXJFPAVC_Base@@@Z@Z ; C_PopupList::SetCallback

; 2190 : 		menu->SetCallback(MID_STATUS,MenuUnitStatusCB);

	push	OFFSET ?MenuUnitStatusCB@@YAXJFPAVC_Base@@@Z ; MenuUnitStatusCB
	push	18202					; 0000471aH
	mov	ecx, DWORD PTR _menu$[ebp]
	call	?SetCallback@C_PopupList@@QAEXJP6AXJFPAVC_Base@@@Z@Z ; C_PopupList::SetCallback

; 2191 : 		menu->SetCallback(MID_DELETE_UNIT,MenuUnitDeleteCB);

	push	OFFSET ?MenuUnitDeleteCB@@YAXJFPAVC_Base@@@Z ; MenuUnitDeleteCB
	push	18204					; 0000471cH
	mov	ecx, DWORD PTR _menu$[ebp]
	call	?SetCallback@C_PopupList@@QAEXJP6AXJFPAVC_Base@@@Z@Z ; C_PopupList::SetCallback

; 2192 : 		menu->SetCallback(MID_ADD_VC,MenuAddVCCB);

	push	OFFSET ?MenuAddVCCB@@YAXJFPAVC_Base@@@Z	; MenuAddVCCB
	push	86116					; 00015064H
	mov	ecx, DWORD PTR _menu$[ebp]
	call	?SetCallback@C_PopupList@@QAEXJP6AXJFPAVC_Base@@@Z@Z ; C_PopupList::SetCallback

; 2193 : 		menu->SetCallback(MID_TEAM_0,MenuSetOwnerCB);

	push	OFFSET ?MenuSetOwnerCB@@YAXJFPAVC_Base@@@Z ; MenuSetOwnerCB
	push	18122					; 000046caH
	mov	ecx, DWORD PTR _menu$[ebp]
	call	?SetCallback@C_PopupList@@QAEXJP6AXJFPAVC_Base@@@Z@Z ; C_PopupList::SetCallback

; 2194 : 		menu->SetCallback(MID_TEAM_1,MenuSetOwnerCB);

	push	OFFSET ?MenuSetOwnerCB@@YAXJFPAVC_Base@@@Z ; MenuSetOwnerCB
	push	18123					; 000046cbH
	mov	ecx, DWORD PTR _menu$[ebp]
	call	?SetCallback@C_PopupList@@QAEXJP6AXJFPAVC_Base@@@Z@Z ; C_PopupList::SetCallback

; 2195 : 		menu->SetCallback(MID_TEAM_2,MenuSetOwnerCB);

	push	OFFSET ?MenuSetOwnerCB@@YAXJFPAVC_Base@@@Z ; MenuSetOwnerCB
	push	18124					; 000046ccH
	mov	ecx, DWORD PTR _menu$[ebp]
	call	?SetCallback@C_PopupList@@QAEXJP6AXJFPAVC_Base@@@Z@Z ; C_PopupList::SetCallback

; 2196 : 		menu->SetCallback(MID_TEAM_3,MenuSetOwnerCB);

	push	OFFSET ?MenuSetOwnerCB@@YAXJFPAVC_Base@@@Z ; MenuSetOwnerCB
	push	18125					; 000046cdH
	mov	ecx, DWORD PTR _menu$[ebp]
	call	?SetCallback@C_PopupList@@QAEXJP6AXJFPAVC_Base@@@Z@Z ; C_PopupList::SetCallback

; 2197 : 		menu->SetCallback(MID_TEAM_4,MenuSetOwnerCB);

	push	OFFSET ?MenuSetOwnerCB@@YAXJFPAVC_Base@@@Z ; MenuSetOwnerCB
	push	18126					; 000046ceH
	mov	ecx, DWORD PTR _menu$[ebp]
	call	?SetCallback@C_PopupList@@QAEXJP6AXJFPAVC_Base@@@Z@Z ; C_PopupList::SetCallback

; 2198 : 		menu->SetCallback(MID_TEAM_5,MenuSetOwnerCB);

	push	OFFSET ?MenuSetOwnerCB@@YAXJFPAVC_Base@@@Z ; MenuSetOwnerCB
	push	18127					; 000046cfH
	mov	ecx, DWORD PTR _menu$[ebp]
	call	?SetCallback@C_PopupList@@QAEXJP6AXJFPAVC_Base@@@Z@Z ; C_PopupList::SetCallback

; 2199 : 		menu->SetCallback(MID_TEAM_6,MenuSetOwnerCB);

	push	OFFSET ?MenuSetOwnerCB@@YAXJFPAVC_Base@@@Z ; MenuSetOwnerCB
	push	18128					; 000046d0H
	mov	ecx, DWORD PTR _menu$[ebp]
	call	?SetCallback@C_PopupList@@QAEXJP6AXJFPAVC_Base@@@Z@Z ; C_PopupList::SetCallback

; 2200 : 		menu->SetCallback(MID_TEAM_7,MenuSetOwnerCB);

	push	OFFSET ?MenuSetOwnerCB@@YAXJFPAVC_Base@@@Z ; MenuSetOwnerCB
	push	18129					; 000046d1H
	mov	ecx, DWORD PTR _menu$[ebp]
	call	?SetCallback@C_PopupList@@QAEXJP6AXJFPAVC_Base@@@Z@Z ; C_PopupList::SetCallback
$LN12@HookupCamp:

; 2201 : 	}
; 2202 : 
; 2203 : 	menu=gPopupMgr->GetMenu(NAVAL_POP);

	push	18197					; 00004715H
	mov	ecx, DWORD PTR ?gPopupMgr@@3PAVC_PopupMgr@@A ; gPopupMgr
	call	?GetMenu@C_PopupMgr@@QAEPAVC_PopupList@@J@Z ; C_PopupMgr::GetMenu
	mov	DWORD PTR _menu$[ebp], eax

; 2204 : 	if(menu)

	cmp	DWORD PTR _menu$[ebp], 0
	je	$LN11@HookupCamp

; 2205 : 	{
; 2206 : 		menu->SetOpenCallback(OpenNavalMenuCB);

	push	OFFSET ?OpenNavalMenuCB@@YAXPAVC_Base@@0@Z ; OpenNavalMenuCB
	mov	ecx, DWORD PTR _menu$[ebp]
	call	?SetOpenCallback@C_PopupList@@QAEXP6AXPAVC_Base@@0@Z@Z ; C_PopupList::SetOpenCallback

; 2207 : 		menu->SetCallback(MID_RECON,MenuReconCB);

	push	OFFSET ?MenuReconCB@@YAXJFPAVC_Base@@@Z	; MenuReconCB
	push	86111					; 0001505fH
	mov	ecx, DWORD PTR _menu$[ebp]
	call	?SetCallback@C_PopupList@@QAEXJP6AXJFPAVC_Base@@@Z@Z ; C_PopupList::SetCallback

; 2208 : 		menu->SetCallback(MID_ADD_FLIGHT,MenuAddUnitCB);

	push	OFFSET ?MenuAddUnitCB@@YAXJFPAVC_Base@@@Z ; MenuAddUnitCB
	push	40083					; 00009c93H
	mov	ecx, DWORD PTR _menu$[ebp]
	call	?SetCallback@C_PopupList@@QAEXJP6AXJFPAVC_Base@@@Z@Z ; C_PopupList::SetCallback

; 2209 : 		menu->SetCallback(MID_ADD_PACKAGE,MenuAddUnitCB);

	push	OFFSET ?MenuAddUnitCB@@YAXJFPAVC_Base@@@Z ; MenuAddUnitCB
	push	86112					; 00015060H
	mov	ecx, DWORD PTR _menu$[ebp]
	call	?SetCallback@C_PopupList@@QAEXJP6AXJFPAVC_Base@@@Z@Z ; C_PopupList::SetCallback

; 2210 : 		menu->SetCallback(MID_ADD_BATTALION,MenuAddUnitCB);

	push	OFFSET ?MenuAddUnitCB@@YAXJFPAVC_Base@@@Z ; MenuAddUnitCB
	push	86113					; 00015061H
	mov	ecx, DWORD PTR _menu$[ebp]
	call	?SetCallback@C_PopupList@@QAEXJP6AXJFPAVC_Base@@@Z@Z ; C_PopupList::SetCallback

; 2211 : 		menu->SetCallback(MID_STATUS,MenuUnitStatusCB);

	push	OFFSET ?MenuUnitStatusCB@@YAXJFPAVC_Base@@@Z ; MenuUnitStatusCB
	push	18202					; 0000471aH
	mov	ecx, DWORD PTR _menu$[ebp]
	call	?SetCallback@C_PopupList@@QAEXJP6AXJFPAVC_Base@@@Z@Z ; C_PopupList::SetCallback

; 2212 : 		menu->SetCallback(MID_DELETE_UNIT,MenuUnitDeleteCB);

	push	OFFSET ?MenuUnitDeleteCB@@YAXJFPAVC_Base@@@Z ; MenuUnitDeleteCB
	push	18204					; 0000471cH
	mov	ecx, DWORD PTR _menu$[ebp]
	call	?SetCallback@C_PopupList@@QAEXJP6AXJFPAVC_Base@@@Z@Z ; C_PopupList::SetCallback

; 2213 : 		menu->SetCallback(MID_ADD_VC,MenuAddVCCB);

	push	OFFSET ?MenuAddVCCB@@YAXJFPAVC_Base@@@Z	; MenuAddVCCB
	push	86116					; 00015064H
	mov	ecx, DWORD PTR _menu$[ebp]
	call	?SetCallback@C_PopupList@@QAEXJP6AXJFPAVC_Base@@@Z@Z ; C_PopupList::SetCallback

; 2214 : 		menu->SetCallback(MID_TEAM_0,MenuSetOwnerCB);

	push	OFFSET ?MenuSetOwnerCB@@YAXJFPAVC_Base@@@Z ; MenuSetOwnerCB
	push	18122					; 000046caH
	mov	ecx, DWORD PTR _menu$[ebp]
	call	?SetCallback@C_PopupList@@QAEXJP6AXJFPAVC_Base@@@Z@Z ; C_PopupList::SetCallback

; 2215 : 		menu->SetCallback(MID_TEAM_1,MenuSetOwnerCB);

	push	OFFSET ?MenuSetOwnerCB@@YAXJFPAVC_Base@@@Z ; MenuSetOwnerCB
	push	18123					; 000046cbH
	mov	ecx, DWORD PTR _menu$[ebp]
	call	?SetCallback@C_PopupList@@QAEXJP6AXJFPAVC_Base@@@Z@Z ; C_PopupList::SetCallback

; 2216 : 		menu->SetCallback(MID_TEAM_2,MenuSetOwnerCB);

	push	OFFSET ?MenuSetOwnerCB@@YAXJFPAVC_Base@@@Z ; MenuSetOwnerCB
	push	18124					; 000046ccH
	mov	ecx, DWORD PTR _menu$[ebp]
	call	?SetCallback@C_PopupList@@QAEXJP6AXJFPAVC_Base@@@Z@Z ; C_PopupList::SetCallback

; 2217 : 		menu->SetCallback(MID_TEAM_3,MenuSetOwnerCB);

	push	OFFSET ?MenuSetOwnerCB@@YAXJFPAVC_Base@@@Z ; MenuSetOwnerCB
	push	18125					; 000046cdH
	mov	ecx, DWORD PTR _menu$[ebp]
	call	?SetCallback@C_PopupList@@QAEXJP6AXJFPAVC_Base@@@Z@Z ; C_PopupList::SetCallback

; 2218 : 		menu->SetCallback(MID_TEAM_4,MenuSetOwnerCB);

	push	OFFSET ?MenuSetOwnerCB@@YAXJFPAVC_Base@@@Z ; MenuSetOwnerCB
	push	18126					; 000046ceH
	mov	ecx, DWORD PTR _menu$[ebp]
	call	?SetCallback@C_PopupList@@QAEXJP6AXJFPAVC_Base@@@Z@Z ; C_PopupList::SetCallback

; 2219 : 		menu->SetCallback(MID_TEAM_5,MenuSetOwnerCB);

	push	OFFSET ?MenuSetOwnerCB@@YAXJFPAVC_Base@@@Z ; MenuSetOwnerCB
	push	18127					; 000046cfH
	mov	ecx, DWORD PTR _menu$[ebp]
	call	?SetCallback@C_PopupList@@QAEXJP6AXJFPAVC_Base@@@Z@Z ; C_PopupList::SetCallback

; 2220 : 		menu->SetCallback(MID_TEAM_6,MenuSetOwnerCB);

	push	OFFSET ?MenuSetOwnerCB@@YAXJFPAVC_Base@@@Z ; MenuSetOwnerCB
	push	18128					; 000046d0H
	mov	ecx, DWORD PTR _menu$[ebp]
	call	?SetCallback@C_PopupList@@QAEXJP6AXJFPAVC_Base@@@Z@Z ; C_PopupList::SetCallback

; 2221 : 		menu->SetCallback(MID_TEAM_7,MenuSetOwnerCB);

	push	OFFSET ?MenuSetOwnerCB@@YAXJFPAVC_Base@@@Z ; MenuSetOwnerCB
	push	18129					; 000046d1H
	mov	ecx, DWORD PTR _menu$[ebp]
	call	?SetCallback@C_PopupList@@QAEXJP6AXJFPAVC_Base@@@Z@Z ; C_PopupList::SetCallback
$LN11@HookupCamp:

; 2222 : 	}
; 2223 : 
; 2224 : 	menu=gPopupMgr->GetMenu(PACKAGE_POP);

	push	18348					; 000047acH
	mov	ecx, DWORD PTR ?gPopupMgr@@3PAVC_PopupMgr@@A ; gPopupMgr
	call	?GetMenu@C_PopupMgr@@QAEPAVC_PopupList@@J@Z ; C_PopupMgr::GetMenu
	mov	DWORD PTR _menu$[ebp], eax

; 2225 : 	if(menu)

	cmp	DWORD PTR _menu$[ebp], 0
	je	SHORT $LN10@HookupCamp

; 2226 : 	{
; 2227 : 		menu->SetCallback(MID_RECON,MenuReconCB);

	push	OFFSET ?MenuReconCB@@YAXJFPAVC_Base@@@Z	; MenuReconCB
	push	86111					; 0001505fH
	mov	ecx, DWORD PTR _menu$[ebp]
	call	?SetCallback@C_PopupList@@QAEXJP6AXJFPAVC_Base@@@Z@Z ; C_PopupList::SetCallback

; 2228 : 		menu->SetCallback(MID_SHOW_FLIGHTS,MenuEditPackageCB);

	push	OFFSET ?MenuEditPackageCB@@YAXJFPAVC_Base@@@Z ; MenuEditPackageCB
	push	18349					; 000047adH
	mov	ecx, DWORD PTR _menu$[ebp]
	call	?SetCallback@C_PopupList@@QAEXJP6AXJFPAVC_Base@@@Z@Z ; C_PopupList::SetCallback

; 2229 : 		menu->SetCallback(MID_DELETE_UNIT,MenuUnitDeleteCB);

	push	OFFSET ?MenuUnitDeleteCB@@YAXJFPAVC_Base@@@Z ; MenuUnitDeleteCB
	push	18204					; 0000471cH
	mov	ecx, DWORD PTR _menu$[ebp]
	call	?SetCallback@C_PopupList@@QAEXJP6AXJFPAVC_Base@@@Z@Z ; C_PopupList::SetCallback

; 2230 : 		menu->SetCallback(MID_ADD_FLIGHT,MenuAddUnitCB);

	push	OFFSET ?MenuAddUnitCB@@YAXJFPAVC_Base@@@Z ; MenuAddUnitCB
	push	40083					; 00009c93H
	mov	ecx, DWORD PTR _menu$[ebp]
	call	?SetCallback@C_PopupList@@QAEXJP6AXJFPAVC_Base@@@Z@Z ; C_PopupList::SetCallback

; 2231 : 		menu->SetCallback(MID_ADD_PACKAGE,MenuAddUnitCB);

	push	OFFSET ?MenuAddUnitCB@@YAXJFPAVC_Base@@@Z ; MenuAddUnitCB
	push	86112					; 00015060H
	mov	ecx, DWORD PTR _menu$[ebp]
	call	?SetCallback@C_PopupList@@QAEXJP6AXJFPAVC_Base@@@Z@Z ; C_PopupList::SetCallback

; 2232 : 		menu->SetCallback(MID_ADD_VC,MenuAddVCCB);

	push	OFFSET ?MenuAddVCCB@@YAXJFPAVC_Base@@@Z	; MenuAddVCCB
	push	86116					; 00015064H
	mov	ecx, DWORD PTR _menu$[ebp]
	call	?SetCallback@C_PopupList@@QAEXJP6AXJFPAVC_Base@@@Z@Z ; C_PopupList::SetCallback
$LN10@HookupCamp:

; 2233 : 	}
; 2234 : 	menu=gPopupMgr->GetMenu(STEERPOINT_POP);

	push	18198					; 00004716H
	mov	ecx, DWORD PTR ?gPopupMgr@@3PAVC_PopupMgr@@A ; gPopupMgr
	call	?GetMenu@C_PopupMgr@@QAEPAVC_PopupList@@J@Z ; C_PopupMgr::GetMenu
	mov	DWORD PTR _menu$[ebp], eax

; 2235 : 	if(menu)

	cmp	DWORD PTR _menu$[ebp], 0
	je	$LN18@HookupCamp

; 2236 : 	{
; 2237 : 		menu->SetOpenCallback(SteerPointMenuOpenCB);

	push	OFFSET ?SteerPointMenuOpenCB@@YAXPAVC_Base@@0@Z ; SteerPointMenuOpenCB
	mov	ecx, DWORD PTR _menu$[ebp]
	call	?SetOpenCallback@C_PopupList@@QAEXP6AXPAVC_Base@@0@Z@Z ; C_PopupList::SetOpenCallback

; 2238 : 		
; 2239 : 		menu->SetCallback(MID_ADD_STPT,MenuAddWPCB);

	push	OFFSET ?MenuAddWPCB@@YAXJFPAVC_Base@@@Z	; MenuAddWPCB
	push	18115					; 000046c3H
	mov	ecx, DWORD PTR _menu$[ebp]
	call	?SetCallback@C_PopupList@@QAEXJP6AXJFPAVC_Base@@@Z@Z ; C_PopupList::SetCallback

; 2240 : 		menu->SetCallback(MID_DELETE_STPT,MenuDeleteWPCB);

	push	OFFSET ?MenuDeleteWPCB@@YAXJFPAVC_Base@@@Z ; MenuDeleteWPCB
	push	18112					; 000046c0H
	mov	ecx, DWORD PTR _menu$[ebp]
	call	?SetCallback@C_PopupList@@QAEXJP6AXJFPAVC_Base@@@Z@Z ; C_PopupList::SetCallback

; 2241 : 		menu->SetCallback(MID_RECON,MenuReconCB);

	push	OFFSET ?MenuReconCB@@YAXJFPAVC_Base@@@Z	; MenuReconCB
	push	86111					; 0001505fH
	mov	ecx, DWORD PTR _menu$[ebp]
	call	?SetCallback@C_PopupList@@QAEXJP6AXJFPAVC_Base@@@Z@Z ; C_PopupList::SetCallback

; 2242 : 
; 2243 : 		// Main
; 2244 : 		menu->SetCallback(MID_DETAILS,MenuOpenWpWindowCB);

	push	OFFSET ?MenuOpenWpWindowCB@@YAXJFPAVC_Base@@@Z ; MenuOpenWpWindowCB
	push	18105					; 000046b9H
	mov	ecx, DWORD PTR _menu$[ebp]
	call	?SetCallback@C_PopupList@@QAEXJP6AXJFPAVC_Base@@@Z@Z ; C_PopupList::SetCallback

; 2245 : 		menu->SetCallback(MID_LOCK_TOS,MenuLockCB);

	push	OFFSET ?MenuLockCB@@YAXJFPAVC_Base@@@Z	; MenuLockCB
	push	18106					; 000046baH
	mov	ecx, DWORD PTR _menu$[ebp]
	call	?SetCallback@C_PopupList@@QAEXJP6AXJFPAVC_Base@@@Z@Z ; C_PopupList::SetCallback

; 2246 : 		menu->SetCallback(MID_LOCK_SPEED,MenuLockCB);

	push	OFFSET ?MenuLockCB@@YAXJFPAVC_Base@@@Z	; MenuLockCB
	push	18107					; 000046bbH
	mov	ecx, DWORD PTR _menu$[ebp]
	call	?SetCallback@C_PopupList@@QAEXJP6AXJFPAVC_Base@@@Z@Z ; C_PopupList::SetCallback

; 2247 : 
; 2248 : 		// Climb Menu
; 2249 : 		menu->SetCallback(CLIMB_IMMEDIATE,MenuClimbCB);

	push	OFFSET ?MenuClimbCB@@YAXJFPAVC_Base@@@Z	; MenuClimbCB
	push	13059					; 00003303H
	mov	ecx, DWORD PTR _menu$[ebp]
	call	?SetCallback@C_PopupList@@QAEXJP6AXJFPAVC_Base@@@Z@Z ; C_PopupList::SetCallback

; 2250 : 		menu->SetCallback(CLIMB_DELAY,MenuClimbCB);

	push	OFFSET ?MenuClimbCB@@YAXJFPAVC_Base@@@Z	; MenuClimbCB
	push	13060					; 00003304H
	mov	ecx, DWORD PTR _menu$[ebp]
	call	?SetCallback@C_PopupList@@QAEXJP6AXJFPAVC_Base@@@Z@Z ; C_PopupList::SetCallback

; 2251 : 
; 2252 : 		// Formation Menu
; 2253 : 		for (i=1; i<9; i++)

	mov	DWORD PTR _i$[ebp], 1
	jmp	SHORT $LN8@HookupCamp
$LN7@HookupCamp:
	mov	eax, DWORD PTR _i$[ebp]
	add	eax, 1
	mov	DWORD PTR _i$[ebp], eax
$LN8@HookupCamp:
	cmp	DWORD PTR _i$[ebp], 9
	jge	SHORT $LN6@HookupCamp

; 2254 : 			menu->SetCallback(i,MenuFormationCB);

	push	OFFSET ?MenuFormationCB@@YAXJFPAVC_Base@@@Z ; MenuFormationCB
	mov	ecx, DWORD PTR _i$[ebp]
	push	ecx
	mov	ecx, DWORD PTR _menu$[ebp]
	call	?SetCallback@C_PopupList@@QAEXJP6AXJFPAVC_Base@@@Z@Z ; C_PopupList::SetCallback
	jmp	SHORT $LN7@HookupCamp
$LN6@HookupCamp:

; 2255 : 
; 2256 : 		// Enroute menu (hand add the valid ones)
; 2257 : 		menu->AddItem(WP_NOTHING | 0x100, C_TYPE_RADIO, WPActStr[39], MID_ENR_ACTION);

	push	18110					; 000046beH
	mov	edx, 20					; 00000014H
	imul	edx, 39					; 00000027H
	add	edx, OFFSET ?WPActStr@@3PAY0BE@DA	; WPActStr
	push	edx
	push	27					; 0000001bH
	push	256					; 00000100H
	mov	ecx, DWORD PTR _menu$[ebp]
	call	?AddItem@C_PopupList@@QAEHJFPADJ@Z	; C_PopupList::AddItem

; 2258 : 		menu->SetCallback(WP_NOTHING | 0x100,MenuEnrouteCB);

	push	OFFSET ?MenuEnrouteCB@@YAXJFPAVC_Base@@@Z ; MenuEnrouteCB
	push	256					; 00000100H
	mov	ecx, DWORD PTR _menu$[ebp]
	call	?SetCallback@C_PopupList@@QAEXJP6AXJFPAVC_Base@@@Z@Z ; C_PopupList::SetCallback

; 2259 : 		menu->SetItemGroup(WP_NOTHING | 0x100,3);

	push	3
	push	256					; 00000100H
	mov	ecx, DWORD PTR _menu$[ebp]
	call	?SetItemGroup@C_PopupList@@QAEXJJ@Z	; C_PopupList::SetItemGroup

; 2260 : 		menu->AddItem(WP_CA | 0x100, C_TYPE_RADIO, WPActStr[WP_CA], MID_ENR_ACTION);

	push	18110					; 000046beH
	mov	eax, 20					; 00000014H
	imul	eax, 11					; 0000000bH
	add	eax, OFFSET ?WPActStr@@3PAY0BE@DA	; WPActStr
	push	eax
	push	27					; 0000001bH
	push	267					; 0000010bH
	mov	ecx, DWORD PTR _menu$[ebp]
	call	?AddItem@C_PopupList@@QAEHJFPADJ@Z	; C_PopupList::AddItem

; 2261 : 		menu->SetCallback(WP_CA | 0x100,MenuEnrouteCB);

	push	OFFSET ?MenuEnrouteCB@@YAXJFPAVC_Base@@@Z ; MenuEnrouteCB
	push	267					; 0000010bH
	mov	ecx, DWORD PTR _menu$[ebp]
	call	?SetCallback@C_PopupList@@QAEXJP6AXJFPAVC_Base@@@Z@Z ; C_PopupList::SetCallback

; 2262 : 		menu->SetItemGroup(WP_CA | 0x100,3);

	push	3
	push	267					; 0000010bH
	mov	ecx, DWORD PTR _menu$[ebp]
	call	?SetItemGroup@C_PopupList@@QAEXJJ@Z	; C_PopupList::SetItemGroup

; 2263 : 		menu->AddItem(WP_ESCORT | 0x100, C_TYPE_RADIO, WPActStr[WP_ESCORT], MID_ENR_ACTION);

	push	18110					; 000046beH
	mov	ecx, 20					; 00000014H
	imul	ecx, 10					; 0000000aH
	add	ecx, OFFSET ?WPActStr@@3PAY0BE@DA	; WPActStr
	push	ecx
	push	27					; 0000001bH
	push	266					; 0000010aH
	mov	ecx, DWORD PTR _menu$[ebp]
	call	?AddItem@C_PopupList@@QAEHJFPADJ@Z	; C_PopupList::AddItem

; 2264 : 		menu->SetCallback(WP_ESCORT | 0x100,MenuEnrouteCB);

	push	OFFSET ?MenuEnrouteCB@@YAXJFPAVC_Base@@@Z ; MenuEnrouteCB
	push	266					; 0000010aH
	mov	ecx, DWORD PTR _menu$[ebp]
	call	?SetCallback@C_PopupList@@QAEXJP6AXJFPAVC_Base@@@Z@Z ; C_PopupList::SetCallback

; 2265 : 		menu->SetItemGroup(WP_ESCORT | 0x100,3);

	push	3
	push	266					; 0000010aH
	mov	ecx, DWORD PTR _menu$[ebp]
	call	?SetItemGroup@C_PopupList@@QAEXJJ@Z	; C_PopupList::SetItemGroup

; 2266 : 		menu->AddItem(WP_SEAD | 0x100, C_TYPE_RADIO, WPActStr[WP_SEAD], MID_ENR_ACTION);

	push	18110					; 000046beH
	mov	edx, 20					; 00000014H
	imul	edx, 19					; 00000013H
	add	edx, OFFSET ?WPActStr@@3PAY0BE@DA	; WPActStr
	push	edx
	push	27					; 0000001bH
	push	275					; 00000113H
	mov	ecx, DWORD PTR _menu$[ebp]
	call	?AddItem@C_PopupList@@QAEHJFPADJ@Z	; C_PopupList::AddItem

; 2267 : 		menu->SetCallback(WP_SEAD | 0x100,MenuEnrouteCB);

	push	OFFSET ?MenuEnrouteCB@@YAXJFPAVC_Base@@@Z ; MenuEnrouteCB
	push	275					; 00000113H
	mov	ecx, DWORD PTR _menu$[ebp]
	call	?SetCallback@C_PopupList@@QAEXJP6AXJFPAVC_Base@@@Z@Z ; C_PopupList::SetCallback

; 2268 : 		menu->SetItemGroup(WP_SEAD | 0x100,3);

	push	3
	push	275					; 00000113H
	mov	ecx, DWORD PTR _menu$[ebp]
	call	?SetItemGroup@C_PopupList@@QAEXJJ@Z	; C_PopupList::SetItemGroup

; 2269 : 		menu->AddItem(WP_SAD | 0x100, C_TYPE_RADIO, WPActStr[WP_SAD], MID_ENR_ACTION);

	push	18110					; 000046beH
	mov	eax, 20					; 00000014H
	shl	eax, 4
	add	eax, OFFSET ?WPActStr@@3PAY0BE@DA	; WPActStr
	push	eax
	push	27					; 0000001bH
	push	272					; 00000110H
	mov	ecx, DWORD PTR _menu$[ebp]
	call	?AddItem@C_PopupList@@QAEHJFPADJ@Z	; C_PopupList::AddItem

; 2270 : 		menu->SetCallback(WP_SAD | 0x100,MenuEnrouteCB);

	push	OFFSET ?MenuEnrouteCB@@YAXJFPAVC_Base@@@Z ; MenuEnrouteCB
	push	272					; 00000110H
	mov	ecx, DWORD PTR _menu$[ebp]
	call	?SetCallback@C_PopupList@@QAEXJP6AXJFPAVC_Base@@@Z@Z ; C_PopupList::SetCallback

; 2271 : 		menu->SetItemGroup(WP_SAD | 0x100,3);

	push	3
	push	272					; 00000110H
	mov	ecx, DWORD PTR _menu$[ebp]
	call	?SetItemGroup@C_PopupList@@QAEXJJ@Z	; C_PopupList::SetItemGroup

; 2272 : 		menu->AddItem(WP_ELINT | 0x100, C_TYPE_RADIO, WPActStr[WP_ELINT], MID_ENR_ACTION);

	push	18110					; 000046beH
	mov	ecx, 20					; 00000014H
	imul	ecx, 20					; 00000014H
	add	ecx, OFFSET ?WPActStr@@3PAY0BE@DA	; WPActStr
	push	ecx
	push	27					; 0000001bH
	push	276					; 00000114H
	mov	ecx, DWORD PTR _menu$[ebp]
	call	?AddItem@C_PopupList@@QAEHJFPADJ@Z	; C_PopupList::AddItem

; 2273 : 		menu->SetCallback(WP_ELINT | 0x100,MenuEnrouteCB);

	push	OFFSET ?MenuEnrouteCB@@YAXJFPAVC_Base@@@Z ; MenuEnrouteCB
	push	276					; 00000114H
	mov	ecx, DWORD PTR _menu$[ebp]
	call	?SetCallback@C_PopupList@@QAEXJP6AXJFPAVC_Base@@@Z@Z ; C_PopupList::SetCallback

; 2274 : 		menu->SetItemGroup(WP_ELINT | 0x100,3);

	push	3
	push	276					; 00000114H
	mov	ecx, DWORD PTR _menu$[ebp]
	call	?SetItemGroup@C_PopupList@@QAEXJJ@Z	; C_PopupList::SetItemGroup

; 2275 : 		menu->AddItem(WP_TANKER | 0x100, C_TYPE_RADIO, WPActStr[WP_TANKER], MID_ENR_ACTION);

	push	18110					; 000046beH
	mov	edx, 20					; 00000014H
	imul	edx, 24					; 00000018H
	add	edx, OFFSET ?WPActStr@@3PAY0BE@DA	; WPActStr
	push	edx
	push	27					; 0000001bH
	push	280					; 00000118H
	mov	ecx, DWORD PTR _menu$[ebp]
	call	?AddItem@C_PopupList@@QAEHJFPADJ@Z	; C_PopupList::AddItem

; 2276 : 		menu->SetCallback(WP_TANKER | 0x100,MenuEnrouteCB);

	push	OFFSET ?MenuEnrouteCB@@YAXJFPAVC_Base@@@Z ; MenuEnrouteCB
	push	280					; 00000118H
	mov	ecx, DWORD PTR _menu$[ebp]
	call	?SetCallback@C_PopupList@@QAEXJP6AXJFPAVC_Base@@@Z@Z ; C_PopupList::SetCallback

; 2277 : 		menu->SetItemGroup(WP_TANKER | 0x100,3);

	push	3
	push	280					; 00000118H
	mov	ecx, DWORD PTR _menu$[ebp]
	call	?SetItemGroup@C_PopupList@@QAEXJJ@Z	; C_PopupList::SetItemGroup

; 2278 : 		menu->AddItem(WP_JAM | 0x100, C_TYPE_RADIO, WPActStr[WP_JAM], MID_ENR_ACTION);

	push	18110					; 000046beH
	mov	eax, 20					; 00000014H
	imul	eax, 26					; 0000001aH
	add	eax, OFFSET ?WPActStr@@3PAY0BE@DA	; WPActStr
	push	eax
	push	27					; 0000001bH
	push	282					; 0000011aH
	mov	ecx, DWORD PTR _menu$[ebp]
	call	?AddItem@C_PopupList@@QAEHJFPADJ@Z	; C_PopupList::AddItem

; 2279 : 		menu->SetCallback(WP_JAM | 0x100,MenuEnrouteCB);

	push	OFFSET ?MenuEnrouteCB@@YAXJFPAVC_Base@@@Z ; MenuEnrouteCB
	push	282					; 0000011aH
	mov	ecx, DWORD PTR _menu$[ebp]
	call	?SetCallback@C_PopupList@@QAEXJP6AXJFPAVC_Base@@@Z@Z ; C_PopupList::SetCallback

; 2280 : 		menu->SetItemGroup(WP_JAM | 0x100,3);

	push	3
	push	282					; 0000011aH
	mov	ecx, DWORD PTR _menu$[ebp]
	call	?SetItemGroup@C_PopupList@@QAEXJJ@Z	; C_PopupList::SetItemGroup

; 2281 : 		menu->AddItem(WP_ASW | 0x100, C_TYPE_RADIO, WPActStr[WP_ASW], MID_ENR_ACTION);

	push	18110					; 000046beH
	mov	ecx, 20					; 00000014H
	imul	ecx, 23					; 00000017H
	add	ecx, OFFSET ?WPActStr@@3PAY0BE@DA	; WPActStr
	push	ecx
	push	27					; 0000001bH
	push	279					; 00000117H
	mov	ecx, DWORD PTR _menu$[ebp]
	call	?AddItem@C_PopupList@@QAEHJFPADJ@Z	; C_PopupList::AddItem

; 2282 : 		menu->SetCallback(WP_ASW | 0x100,MenuEnrouteCB);

	push	OFFSET ?MenuEnrouteCB@@YAXJFPAVC_Base@@@Z ; MenuEnrouteCB
	push	279					; 00000117H
	mov	ecx, DWORD PTR _menu$[ebp]
	call	?SetCallback@C_PopupList@@QAEXJP6AXJFPAVC_Base@@@Z@Z ; C_PopupList::SetCallback

; 2283 : 		menu->SetItemGroup(WP_ASW | 0x100,3);

	push	3
	push	279					; 00000117H
	mov	ecx, DWORD PTR _menu$[ebp]
	call	?SetItemGroup@C_PopupList@@QAEXJJ@Z	; C_PopupList::SetItemGroup

; 2284 : 		menu->AddItem(WP_RECON | 0x100, C_TYPE_RADIO, WPActStr[WP_RECON], MID_ENR_ACTION);

	push	18110					; 000046beH
	mov	edx, 20					; 00000014H
	imul	edx, 21					; 00000015H
	add	edx, OFFSET ?WPActStr@@3PAY0BE@DA	; WPActStr
	push	edx
	push	27					; 0000001bH
	push	277					; 00000115H
	mov	ecx, DWORD PTR _menu$[ebp]
	call	?AddItem@C_PopupList@@QAEHJFPADJ@Z	; C_PopupList::AddItem

; 2285 : 		menu->SetCallback(WP_RECON | 0x100,MenuEnrouteCB);

	push	OFFSET ?MenuEnrouteCB@@YAXJFPAVC_Base@@@Z ; MenuEnrouteCB
	push	277					; 00000115H
	mov	ecx, DWORD PTR _menu$[ebp]
	call	?SetCallback@C_PopupList@@QAEXJP6AXJFPAVC_Base@@@Z@Z ; C_PopupList::SetCallback

; 2286 : 		menu->SetItemGroup(WP_RECON | 0x100,3);

	push	3
	push	277					; 00000115H
	mov	ecx, DWORD PTR _menu$[ebp]
	call	?SetItemGroup@C_PopupList@@QAEXJJ@Z	; C_PopupList::SetItemGroup

; 2287 : 
; 2288 : 		// Action Menu
; 2289 : 		for (i=0; i<=WP_FAC; i++)

	mov	DWORD PTR _i$[ebp], 0
	jmp	SHORT $LN5@HookupCamp
$LN4@HookupCamp:
	mov	eax, DWORD PTR _i$[ebp]
	add	eax, 1
	mov	DWORD PTR _i$[ebp], eax
$LN5@HookupCamp:
	cmp	DWORD PTR _i$[ebp], 30			; 0000001eH
	jg	$LN18@HookupCamp

; 2290 : 		{
; 2291 : 			if (!i)

	cmp	DWORD PTR _i$[ebp], 0
	jne	SHORT $LN2@HookupCamp

; 2292 : 				menu->AddItem(i | 0x200, C_TYPE_RADIO, WPActStr[39], MID_ACTION);

	push	18111					; 000046bfH
	mov	ecx, 20					; 00000014H
	imul	ecx, 39					; 00000027H
	add	ecx, OFFSET ?WPActStr@@3PAY0BE@DA	; WPActStr
	push	ecx
	push	27					; 0000001bH
	mov	edx, DWORD PTR _i$[ebp]
	or	edx, 512				; 00000200H
	push	edx
	mov	ecx, DWORD PTR _menu$[ebp]
	call	?AddItem@C_PopupList@@QAEHJFPADJ@Z	; C_PopupList::AddItem

; 2293 : 			else

	jmp	SHORT $LN1@HookupCamp
$LN2@HookupCamp:

; 2294 : 				menu->AddItem(i | 0x200, C_TYPE_RADIO, WPActStr[i], MID_ACTION);

	push	18111					; 000046bfH
	mov	eax, DWORD PTR _i$[ebp]
	imul	eax, 20					; 00000014H
	add	eax, OFFSET ?WPActStr@@3PAY0BE@DA	; WPActStr
	push	eax
	push	27					; 0000001bH
	mov	ecx, DWORD PTR _i$[ebp]
	or	ecx, 512				; 00000200H
	push	ecx
	mov	ecx, DWORD PTR _menu$[ebp]
	call	?AddItem@C_PopupList@@QAEHJFPADJ@Z	; C_PopupList::AddItem
$LN1@HookupCamp:

; 2295 : 			menu->SetCallback(i | 0x200,MenuActionCB);

	push	OFFSET ?MenuActionCB@@YAXJFPAVC_Base@@@Z ; MenuActionCB
	mov	edx, DWORD PTR _i$[ebp]
	or	edx, 512				; 00000200H
	push	edx
	mov	ecx, DWORD PTR _menu$[ebp]
	call	?SetCallback@C_PopupList@@QAEXJP6AXJFPAVC_Base@@@Z@Z ; C_PopupList::SetCallback

; 2296 : 			menu->SetItemGroup(i | 0x200,4);

	push	4
	mov	eax, DWORD PTR _i$[ebp]
	or	eax, 512				; 00000200H
	push	eax
	mov	ecx, DWORD PTR _menu$[ebp]
	call	?SetItemGroup@C_PopupList@@QAEXJJ@Z	; C_PopupList::SetItemGroup

; 2297 : 		}

	jmp	$LN4@HookupCamp
$LN18@HookupCamp:

; 2298 : 	}
; 2299 : }

	mov	esp, ebp
	pop	ebp
	ret	0
?HookupCampaignMenus@@YAXXZ ENDP			; HookupCampaignMenus
_TEXT	ENDS
; Function compile flags: /Odtp
; File c:\users\zhitao li\documents\visual studio 2012\projects\freefalcon\ui\src\campaign\campmenu.cpp
_TEXT	SEGMENT
_icon$1 = -12						; size = 4
_menu$ = -8						; size = 4
_isAirbase$ = -1					; size = 1
_themenu$ = 8						; size = 4
_caller$ = 12						; size = 4
?ObjMenuOpenCB@@YAXPAVC_Base@@0@Z PROC			; ObjMenuOpenCB

; 1974 : {

	push	ebp
	mov	ebp, esp
	sub	esp, 12					; 0000000cH

; 1975 : 	C_PopupList *menu;
; 1976 : 	bool isAirbase = false;

	mov	BYTE PTR _isAirbase$[ebp], 0

; 1977 : 
; 1978 : 	if(!themenu || !caller || !caller->Parent_)

	cmp	DWORD PTR _themenu$[ebp], 0
	je	SHORT $LN28@ObjMenuOpe
	cmp	DWORD PTR _caller$[ebp], 0
	je	SHORT $LN28@ObjMenuOpe
	mov	eax, DWORD PTR _caller$[ebp]
	cmp	DWORD PTR [eax+48], 0
	jne	SHORT $LN29@ObjMenuOpe
$LN28@ObjMenuOpe:

; 1979 : 		return;

	jmp	$LN30@ObjMenuOpe
$LN29@ObjMenuOpe:

; 1980 : 
; 1981 : 	if(caller->_GetCType_() == _CNTL_DRAWLIST_){

	mov	ecx, DWORD PTR _caller$[ebp]
	call	?_GetCType_@C_Base@@QAEFXZ		; C_Base::_GetCType_
	movsx	ecx, ax
	cmp	ecx, 16416				; 00004020H
	jne	SHORT $LN27@ObjMenuOpe

; 1982 : 		MAPICONLIST *icon;
; 1983 : 
; 1984 : 		icon=((C_DrawList*)caller)->GetLastItem();

	mov	ecx, DWORD PTR _caller$[ebp]
	call	?GetLastItem@C_DrawList@@QAEPAVMAPICONLIST@@XZ ; C_DrawList::GetLastItem
	mov	DWORD PTR _icon$1[ebp], eax

; 1985 : 		if(icon && icon->Owner){

	cmp	DWORD PTR _icon$1[ebp], 0
	je	SHORT $LN26@ObjMenuOpe
	mov	edx, DWORD PTR _icon$1[ebp]
	cmp	DWORD PTR [edx+44], 0
	je	SHORT $LN26@ObjMenuOpe

; 1986 : 			if(icon->Owner->GetType() == _OBTV_AIR_FIELDS){

	mov	eax, DWORD PTR _icon$1[ebp]
	mov	ecx, DWORD PTR [eax+44]
	call	?GetType@C_Base@@QAEFXZ			; C_Base::GetType
	movsx	ecx, ax
	cmp	ecx, 2
	jne	SHORT $LN26@ObjMenuOpe

; 1987 : 				isAirbase = true;

	mov	BYTE PTR _isAirbase$[ebp], 1
$LN26@ObjMenuOpe:

; 1988 : 			}
; 1989 : 		}
; 1990 : 	}

	jmp	SHORT $LN24@ObjMenuOpe
$LN27@ObjMenuOpe:

; 1991 : 	else if(caller->_GetCType_() == _CNTL_MAPICON_){

	mov	ecx, DWORD PTR _caller$[ebp]
	call	?_GetCType_@C_Base@@QAEFXZ		; C_Base::_GetCType_
	movsx	edx, ax
	cmp	edx, 16389				; 00004005H
	jne	SHORT $LN23@ObjMenuOpe

; 1992 : 		if(caller->GetType() == _OBTV_AIR_FIELDS){

	mov	ecx, DWORD PTR _caller$[ebp]
	call	?GetType@C_Base@@QAEFXZ			; C_Base::GetType
	cwde
	cmp	eax, 2
	jne	SHORT $LN22@ObjMenuOpe

; 1993 : 			isAirbase = true;

	mov	BYTE PTR _isAirbase$[ebp], 1
$LN22@ObjMenuOpe:

; 1994 : 		}
; 1995 : 	}

	jmp	SHORT $LN24@ObjMenuOpe
$LN23@ObjMenuOpe:

; 1996 : 	else if(caller->_GetCType_() == _CNTL_TREELIST_){

	mov	ecx, DWORD PTR _caller$[ebp]
	call	?_GetCType_@C_Base@@QAEFXZ		; C_Base::_GetCType_
$LN24@ObjMenuOpe:

; 1997 : 	}
; 1998 : 
; 1999 : 	menu=(C_PopupList*)themenu;

	mov	edx, DWORD PTR _themenu$[ebp]
	mov	DWORD PTR _menu$[ebp], edx

; 2000 : 
; 2001 : 	if(isAirbase) // Airbase

	movzx	eax, BYTE PTR _isAirbase$[ebp]
	test	eax, eax
	je	SHORT $LN19@ObjMenuOpe

; 2002 : 	{
; 2003 : 		menu->SetItemFlagBitOn(MID_SQUADRONS,C_BIT_ENABLED);

	push	2048					; 00000800H
	push	86118					; 00015066H
	mov	ecx, DWORD PTR _menu$[ebp]
	call	?SetItemFlagBitOn@C_PopupList@@QAEXJJ@Z	; C_PopupList::SetItemFlagBitOn

; 2004 : 		menu->SetItemFlagBitOff(MID_SQUADRONS,C_BIT_INVISIBLE);

	push	8192					; 00002000H
	push	86118					; 00015066H
	mov	ecx, DWORD PTR _menu$[ebp]
	call	?SetItemFlagBitOff@C_PopupList@@QAEXJJ@Z ; C_PopupList::SetItemFlagBitOff

; 2005 : 		if(GameType == 1 || !EditMode)

	cmp	DWORD PTR _GameType, 1
	je	SHORT $LN17@ObjMenuOpe
	cmp	DWORD PTR _EditMode, 0
	jne	SHORT $LN18@ObjMenuOpe
$LN17@ObjMenuOpe:

; 2006 : 			menu->SetItemFlagBitOff(MID_ADD_SQUADRON,C_BIT_ENABLED);

	push	2048					; 00000800H
	push	18114					; 000046c2H
	mov	ecx, DWORD PTR _menu$[ebp]
	call	?SetItemFlagBitOff@C_PopupList@@QAEXJJ@Z ; C_PopupList::SetItemFlagBitOff

; 2007 : 		else

	jmp	SHORT $LN16@ObjMenuOpe
$LN18@ObjMenuOpe:

; 2008 : 			menu->SetItemFlagBitOn(MID_ADD_SQUADRON,C_BIT_ENABLED);

	push	2048					; 00000800H
	push	18114					; 000046c2H
	mov	ecx, DWORD PTR _menu$[ebp]
	call	?SetItemFlagBitOn@C_PopupList@@QAEXJJ@Z	; C_PopupList::SetItemFlagBitOn
$LN16@ObjMenuOpe:

; 2009 : 	}
; 2010 : 	else

	jmp	SHORT $LN15@ObjMenuOpe
$LN19@ObjMenuOpe:

; 2011 : 	{
; 2012 : 		menu->SetItemFlagBitOff(MID_SQUADRONS,C_BIT_ENABLED);

	push	2048					; 00000800H
	push	86118					; 00015066H
	mov	ecx, DWORD PTR _menu$[ebp]
	call	?SetItemFlagBitOff@C_PopupList@@QAEXJJ@Z ; C_PopupList::SetItemFlagBitOff

; 2013 : 		menu->SetItemFlagBitOn(MID_SQUADRONS,C_BIT_INVISIBLE);

	push	8192					; 00002000H
	push	86118					; 00015066H
	mov	ecx, DWORD PTR _menu$[ebp]
	call	?SetItemFlagBitOn@C_PopupList@@QAEXJJ@Z	; C_PopupList::SetItemFlagBitOn

; 2014 : 		menu->SetItemFlagBitOff(MID_ADD_SQUADRON,C_BIT_ENABLED);

	push	2048					; 00000800H
	push	18114					; 000046c2H
	mov	ecx, DWORD PTR _menu$[ebp]
	call	?SetItemFlagBitOff@C_PopupList@@QAEXJJ@Z ; C_PopupList::SetItemFlagBitOff
$LN15@ObjMenuOpe:

; 2015 : 	}
; 2016 : 	if(TeamInfo[1])

	mov	ecx, 4
	shl	ecx, 0
	cmp	DWORD PTR ?TeamInfo@@3PAPAVTeamClass@@A[ecx], 0
	je	SHORT $LN14@ObjMenuOpe

; 2017 : 	{
; 2018 : 		menu->SetItemLabel(MID_TEAM_1,TeamInfo[1]->GetName());

	mov	edx, 4
	shl	edx, 0
	mov	ecx, DWORD PTR ?TeamInfo@@3PAPAVTeamClass@@A[edx]
	call	?GetName@TeamClass@@QAEPADXZ		; TeamClass::GetName
	push	eax
	push	18123					; 000046cbH
	mov	ecx, DWORD PTR _menu$[ebp]
	call	?SetItemLabel@C_PopupList@@QAEXJPAD@Z	; C_PopupList::SetItemLabel

; 2019 : 		menu->SetItemFlagBitOff(MID_TEAM_1,C_BIT_INVISIBLE);

	push	8192					; 00002000H
	push	18123					; 000046cbH
	mov	ecx, DWORD PTR _menu$[ebp]
	call	?SetItemFlagBitOff@C_PopupList@@QAEXJJ@Z ; C_PopupList::SetItemFlagBitOff

; 2020 : 	}
; 2021 : 	else

	jmp	SHORT $LN13@ObjMenuOpe
$LN14@ObjMenuOpe:

; 2022 : 		menu->SetItemFlagBitOn(MID_TEAM_1,C_BIT_INVISIBLE);

	push	8192					; 00002000H
	push	18123					; 000046cbH
	mov	ecx, DWORD PTR _menu$[ebp]
	call	?SetItemFlagBitOn@C_PopupList@@QAEXJJ@Z	; C_PopupList::SetItemFlagBitOn
$LN13@ObjMenuOpe:

; 2023 : 	if(TeamInfo[2])

	mov	eax, 4
	shl	eax, 1
	cmp	DWORD PTR ?TeamInfo@@3PAPAVTeamClass@@A[eax], 0
	je	SHORT $LN12@ObjMenuOpe

; 2024 : 	{
; 2025 : 		menu->SetItemLabel(MID_TEAM_2,TeamInfo[2]->GetName());

	mov	ecx, 4
	shl	ecx, 1
	mov	ecx, DWORD PTR ?TeamInfo@@3PAPAVTeamClass@@A[ecx]
	call	?GetName@TeamClass@@QAEPADXZ		; TeamClass::GetName
	push	eax
	push	18124					; 000046ccH
	mov	ecx, DWORD PTR _menu$[ebp]
	call	?SetItemLabel@C_PopupList@@QAEXJPAD@Z	; C_PopupList::SetItemLabel

; 2026 : 		menu->SetItemFlagBitOff(MID_TEAM_2,C_BIT_INVISIBLE);

	push	8192					; 00002000H
	push	18124					; 000046ccH
	mov	ecx, DWORD PTR _menu$[ebp]
	call	?SetItemFlagBitOff@C_PopupList@@QAEXJJ@Z ; C_PopupList::SetItemFlagBitOff

; 2027 : 	}
; 2028 : 	else

	jmp	SHORT $LN11@ObjMenuOpe
$LN12@ObjMenuOpe:

; 2029 : 		menu->SetItemFlagBitOn(MID_TEAM_2,C_BIT_INVISIBLE);

	push	8192					; 00002000H
	push	18124					; 000046ccH
	mov	ecx, DWORD PTR _menu$[ebp]
	call	?SetItemFlagBitOn@C_PopupList@@QAEXJJ@Z	; C_PopupList::SetItemFlagBitOn
$LN11@ObjMenuOpe:

; 2030 : 	if(TeamInfo[3])

	mov	edx, 4
	imul	edx, 3
	cmp	DWORD PTR ?TeamInfo@@3PAPAVTeamClass@@A[edx], 0
	je	SHORT $LN10@ObjMenuOpe

; 2031 : 	{
; 2032 : 		menu->SetItemLabel(MID_TEAM_3,TeamInfo[3]->GetName());

	mov	eax, 4
	imul	eax, 3
	mov	ecx, DWORD PTR ?TeamInfo@@3PAPAVTeamClass@@A[eax]
	call	?GetName@TeamClass@@QAEPADXZ		; TeamClass::GetName
	push	eax
	push	18125					; 000046cdH
	mov	ecx, DWORD PTR _menu$[ebp]
	call	?SetItemLabel@C_PopupList@@QAEXJPAD@Z	; C_PopupList::SetItemLabel

; 2033 : 		menu->SetItemFlagBitOff(MID_TEAM_3,C_BIT_INVISIBLE);

	push	8192					; 00002000H
	push	18125					; 000046cdH
	mov	ecx, DWORD PTR _menu$[ebp]
	call	?SetItemFlagBitOff@C_PopupList@@QAEXJJ@Z ; C_PopupList::SetItemFlagBitOff

; 2034 : 	}
; 2035 : 	else

	jmp	SHORT $LN9@ObjMenuOpe
$LN10@ObjMenuOpe:

; 2036 : 		menu->SetItemFlagBitOn(MID_TEAM_3,C_BIT_INVISIBLE);

	push	8192					; 00002000H
	push	18125					; 000046cdH
	mov	ecx, DWORD PTR _menu$[ebp]
	call	?SetItemFlagBitOn@C_PopupList@@QAEXJJ@Z	; C_PopupList::SetItemFlagBitOn
$LN9@ObjMenuOpe:

; 2037 : 	if(TeamInfo[4])

	mov	ecx, 4
	shl	ecx, 2
	cmp	DWORD PTR ?TeamInfo@@3PAPAVTeamClass@@A[ecx], 0
	je	SHORT $LN8@ObjMenuOpe

; 2038 : 	{
; 2039 : 		menu->SetItemLabel(MID_TEAM_4,TeamInfo[4]->GetName());

	mov	edx, 4
	shl	edx, 2
	mov	ecx, DWORD PTR ?TeamInfo@@3PAPAVTeamClass@@A[edx]
	call	?GetName@TeamClass@@QAEPADXZ		; TeamClass::GetName
	push	eax
	push	18126					; 000046ceH
	mov	ecx, DWORD PTR _menu$[ebp]
	call	?SetItemLabel@C_PopupList@@QAEXJPAD@Z	; C_PopupList::SetItemLabel

; 2040 : 		menu->SetItemFlagBitOff(MID_TEAM_4,C_BIT_INVISIBLE);

	push	8192					; 00002000H
	push	18126					; 000046ceH
	mov	ecx, DWORD PTR _menu$[ebp]
	call	?SetItemFlagBitOff@C_PopupList@@QAEXJJ@Z ; C_PopupList::SetItemFlagBitOff

; 2041 : 	}
; 2042 : 	else

	jmp	SHORT $LN7@ObjMenuOpe
$LN8@ObjMenuOpe:

; 2043 : 		menu->SetItemFlagBitOn(MID_TEAM_4,C_BIT_INVISIBLE);

	push	8192					; 00002000H
	push	18126					; 000046ceH
	mov	ecx, DWORD PTR _menu$[ebp]
	call	?SetItemFlagBitOn@C_PopupList@@QAEXJJ@Z	; C_PopupList::SetItemFlagBitOn
$LN7@ObjMenuOpe:

; 2044 : 	if(TeamInfo[5])

	mov	eax, 4
	imul	eax, 5
	cmp	DWORD PTR ?TeamInfo@@3PAPAVTeamClass@@A[eax], 0
	je	SHORT $LN6@ObjMenuOpe

; 2045 : 	{
; 2046 : 		menu->SetItemLabel(MID_TEAM_5,TeamInfo[5]->GetName());

	mov	ecx, 4
	imul	ecx, 5
	mov	ecx, DWORD PTR ?TeamInfo@@3PAPAVTeamClass@@A[ecx]
	call	?GetName@TeamClass@@QAEPADXZ		; TeamClass::GetName
	push	eax
	push	18127					; 000046cfH
	mov	ecx, DWORD PTR _menu$[ebp]
	call	?SetItemLabel@C_PopupList@@QAEXJPAD@Z	; C_PopupList::SetItemLabel

; 2047 : 		menu->SetItemFlagBitOff(MID_TEAM_5,C_BIT_INVISIBLE);

	push	8192					; 00002000H
	push	18127					; 000046cfH
	mov	ecx, DWORD PTR _menu$[ebp]
	call	?SetItemFlagBitOff@C_PopupList@@QAEXJJ@Z ; C_PopupList::SetItemFlagBitOff

; 2048 : 	}
; 2049 : 	else

	jmp	SHORT $LN5@ObjMenuOpe
$LN6@ObjMenuOpe:

; 2050 : 		menu->SetItemFlagBitOn(MID_TEAM_5,C_BIT_INVISIBLE);

	push	8192					; 00002000H
	push	18127					; 000046cfH
	mov	ecx, DWORD PTR _menu$[ebp]
	call	?SetItemFlagBitOn@C_PopupList@@QAEXJJ@Z	; C_PopupList::SetItemFlagBitOn
$LN5@ObjMenuOpe:

; 2051 : 	if(TeamInfo[6])

	mov	edx, 4
	imul	edx, 6
	cmp	DWORD PTR ?TeamInfo@@3PAPAVTeamClass@@A[edx], 0
	je	SHORT $LN4@ObjMenuOpe

; 2052 : 	{
; 2053 : 		menu->SetItemLabel(MID_TEAM_6,TeamInfo[6]->GetName());

	mov	eax, 4
	imul	eax, 6
	mov	ecx, DWORD PTR ?TeamInfo@@3PAPAVTeamClass@@A[eax]
	call	?GetName@TeamClass@@QAEPADXZ		; TeamClass::GetName
	push	eax
	push	18128					; 000046d0H
	mov	ecx, DWORD PTR _menu$[ebp]
	call	?SetItemLabel@C_PopupList@@QAEXJPAD@Z	; C_PopupList::SetItemLabel

; 2054 : 		menu->SetItemFlagBitOff(MID_TEAM_6,C_BIT_INVISIBLE);

	push	8192					; 00002000H
	push	18128					; 000046d0H
	mov	ecx, DWORD PTR _menu$[ebp]
	call	?SetItemFlagBitOff@C_PopupList@@QAEXJJ@Z ; C_PopupList::SetItemFlagBitOff

; 2055 : 	}
; 2056 : 	else

	jmp	SHORT $LN3@ObjMenuOpe
$LN4@ObjMenuOpe:

; 2057 : 		menu->SetItemFlagBitOn(MID_TEAM_6,C_BIT_INVISIBLE);

	push	8192					; 00002000H
	push	18128					; 000046d0H
	mov	ecx, DWORD PTR _menu$[ebp]
	call	?SetItemFlagBitOn@C_PopupList@@QAEXJJ@Z	; C_PopupList::SetItemFlagBitOn
$LN3@ObjMenuOpe:

; 2058 : 	if(TeamInfo[7])

	mov	ecx, 4
	imul	ecx, 7
	cmp	DWORD PTR ?TeamInfo@@3PAPAVTeamClass@@A[ecx], 0
	je	SHORT $LN2@ObjMenuOpe

; 2059 : 	{
; 2060 : 		menu->SetItemLabel(MID_TEAM_7,TeamInfo[7]->GetName());

	mov	edx, 4
	imul	edx, 7
	mov	ecx, DWORD PTR ?TeamInfo@@3PAPAVTeamClass@@A[edx]
	call	?GetName@TeamClass@@QAEPADXZ		; TeamClass::GetName
	push	eax
	push	18129					; 000046d1H
	mov	ecx, DWORD PTR _menu$[ebp]
	call	?SetItemLabel@C_PopupList@@QAEXJPAD@Z	; C_PopupList::SetItemLabel

; 2061 : 		menu->SetItemFlagBitOff(MID_TEAM_7,C_BIT_INVISIBLE);

	push	8192					; 00002000H
	push	18129					; 000046d1H
	mov	ecx, DWORD PTR _menu$[ebp]
	call	?SetItemFlagBitOff@C_PopupList@@QAEXJJ@Z ; C_PopupList::SetItemFlagBitOff

; 2062 : 	}
; 2063 : 	else

	jmp	SHORT $LN30@ObjMenuOpe
$LN2@ObjMenuOpe:

; 2064 : 		menu->SetItemFlagBitOn(MID_TEAM_7,C_BIT_INVISIBLE);

	push	8192					; 00002000H
	push	18129					; 000046d1H
	mov	ecx, DWORD PTR _menu$[ebp]
	call	?SetItemFlagBitOn@C_PopupList@@QAEXJJ@Z	; C_PopupList::SetItemFlagBitOn
$LN30@ObjMenuOpe:

; 2065 : }

	mov	esp, ebp
	pop	ebp
	ret	0
?ObjMenuOpenCB@@YAXPAVC_Base@@0@Z ENDP			; ObjMenuOpenCB
_TEXT	ENDS
; Function compile flags: /Odtp
; File c:\users\zhitao li\documents\visual studio 2012\projects\freefalcon\ui\src\campaign\campmenu.cpp
_TEXT	SEGMENT
_menu$ = -4						; size = 4
_themenu$ = 8						; size = 4
_caller$ = 12						; size = 4
?OpenNavalMenuCB@@YAXPAVC_Base@@0@Z PROC		; OpenNavalMenuCB

; 1912 : {

	push	ebp
	mov	ebp, esp
	push	ecx

; 1913 : 	C_PopupList *menu;
; 1914 : 
; 1915 : 	if(!themenu || !caller || !caller->Parent_)

	cmp	DWORD PTR _themenu$[ebp], 0
	je	SHORT $LN16@OpenNavalM
	cmp	DWORD PTR _caller$[ebp], 0
	je	SHORT $LN16@OpenNavalM
	mov	eax, DWORD PTR _caller$[ebp]
	cmp	DWORD PTR [eax+48], 0
	jne	SHORT $LN17@OpenNavalM
$LN16@OpenNavalM:

; 1916 : 		return;

	jmp	$LN18@OpenNavalM
$LN17@OpenNavalM:

; 1917 : 
; 1918 : 	menu=(C_PopupList*)themenu;

	mov	ecx, DWORD PTR _themenu$[ebp]
	mov	DWORD PTR _menu$[ebp], ecx

; 1919 : 	if(menu)

	cmp	DWORD PTR _menu$[ebp], 0
	je	$LN18@OpenNavalM

; 1920 : 	{
; 1921 : 		if(TeamInfo[1])

	mov	edx, 4
	shl	edx, 0
	cmp	DWORD PTR ?TeamInfo@@3PAPAVTeamClass@@A[edx], 0
	je	SHORT $LN14@OpenNavalM

; 1922 : 		{
; 1923 : 			menu->SetItemLabel(MID_TEAM_1,TeamInfo[1]->GetName());

	mov	eax, 4
	shl	eax, 0
	mov	ecx, DWORD PTR ?TeamInfo@@3PAPAVTeamClass@@A[eax]
	call	?GetName@TeamClass@@QAEPADXZ		; TeamClass::GetName
	push	eax
	push	18123					; 000046cbH
	mov	ecx, DWORD PTR _menu$[ebp]
	call	?SetItemLabel@C_PopupList@@QAEXJPAD@Z	; C_PopupList::SetItemLabel

; 1924 : 			menu->SetItemFlagBitOff(MID_TEAM_1,C_BIT_INVISIBLE);

	push	8192					; 00002000H
	push	18123					; 000046cbH
	mov	ecx, DWORD PTR _menu$[ebp]
	call	?SetItemFlagBitOff@C_PopupList@@QAEXJJ@Z ; C_PopupList::SetItemFlagBitOff

; 1925 : 		}
; 1926 : 		else

	jmp	SHORT $LN13@OpenNavalM
$LN14@OpenNavalM:

; 1927 : 			menu->SetItemFlagBitOn(MID_TEAM_1,C_BIT_INVISIBLE);

	push	8192					; 00002000H
	push	18123					; 000046cbH
	mov	ecx, DWORD PTR _menu$[ebp]
	call	?SetItemFlagBitOn@C_PopupList@@QAEXJJ@Z	; C_PopupList::SetItemFlagBitOn
$LN13@OpenNavalM:

; 1928 : 		if(TeamInfo[2])

	mov	ecx, 4
	shl	ecx, 1
	cmp	DWORD PTR ?TeamInfo@@3PAPAVTeamClass@@A[ecx], 0
	je	SHORT $LN12@OpenNavalM

; 1929 : 		{
; 1930 : 			menu->SetItemLabel(MID_TEAM_2,TeamInfo[2]->GetName());

	mov	edx, 4
	shl	edx, 1
	mov	ecx, DWORD PTR ?TeamInfo@@3PAPAVTeamClass@@A[edx]
	call	?GetName@TeamClass@@QAEPADXZ		; TeamClass::GetName
	push	eax
	push	18124					; 000046ccH
	mov	ecx, DWORD PTR _menu$[ebp]
	call	?SetItemLabel@C_PopupList@@QAEXJPAD@Z	; C_PopupList::SetItemLabel

; 1931 : 			menu->SetItemFlagBitOff(MID_TEAM_2,C_BIT_INVISIBLE);

	push	8192					; 00002000H
	push	18124					; 000046ccH
	mov	ecx, DWORD PTR _menu$[ebp]
	call	?SetItemFlagBitOff@C_PopupList@@QAEXJJ@Z ; C_PopupList::SetItemFlagBitOff

; 1932 : 		}
; 1933 : 		else

	jmp	SHORT $LN11@OpenNavalM
$LN12@OpenNavalM:

; 1934 : 			menu->SetItemFlagBitOn(MID_TEAM_2,C_BIT_INVISIBLE);

	push	8192					; 00002000H
	push	18124					; 000046ccH
	mov	ecx, DWORD PTR _menu$[ebp]
	call	?SetItemFlagBitOn@C_PopupList@@QAEXJJ@Z	; C_PopupList::SetItemFlagBitOn
$LN11@OpenNavalM:

; 1935 : 		if(TeamInfo[3])

	mov	eax, 4
	imul	eax, 3
	cmp	DWORD PTR ?TeamInfo@@3PAPAVTeamClass@@A[eax], 0
	je	SHORT $LN10@OpenNavalM

; 1936 : 		{
; 1937 : 			menu->SetItemLabel(MID_TEAM_3,TeamInfo[3]->GetName());

	mov	ecx, 4
	imul	ecx, 3
	mov	ecx, DWORD PTR ?TeamInfo@@3PAPAVTeamClass@@A[ecx]
	call	?GetName@TeamClass@@QAEPADXZ		; TeamClass::GetName
	push	eax
	push	18125					; 000046cdH
	mov	ecx, DWORD PTR _menu$[ebp]
	call	?SetItemLabel@C_PopupList@@QAEXJPAD@Z	; C_PopupList::SetItemLabel

; 1938 : 			menu->SetItemFlagBitOff(MID_TEAM_3,C_BIT_INVISIBLE);

	push	8192					; 00002000H
	push	18125					; 000046cdH
	mov	ecx, DWORD PTR _menu$[ebp]
	call	?SetItemFlagBitOff@C_PopupList@@QAEXJJ@Z ; C_PopupList::SetItemFlagBitOff

; 1939 : 		}
; 1940 : 		else

	jmp	SHORT $LN9@OpenNavalM
$LN10@OpenNavalM:

; 1941 : 			menu->SetItemFlagBitOn(MID_TEAM_3,C_BIT_INVISIBLE);

	push	8192					; 00002000H
	push	18125					; 000046cdH
	mov	ecx, DWORD PTR _menu$[ebp]
	call	?SetItemFlagBitOn@C_PopupList@@QAEXJJ@Z	; C_PopupList::SetItemFlagBitOn
$LN9@OpenNavalM:

; 1942 : 		if(TeamInfo[4])

	mov	edx, 4
	shl	edx, 2
	cmp	DWORD PTR ?TeamInfo@@3PAPAVTeamClass@@A[edx], 0
	je	SHORT $LN8@OpenNavalM

; 1943 : 		{
; 1944 : 			menu->SetItemLabel(MID_TEAM_4,TeamInfo[4]->GetName());

	mov	eax, 4
	shl	eax, 2
	mov	ecx, DWORD PTR ?TeamInfo@@3PAPAVTeamClass@@A[eax]
	call	?GetName@TeamClass@@QAEPADXZ		; TeamClass::GetName
	push	eax
	push	18126					; 000046ceH
	mov	ecx, DWORD PTR _menu$[ebp]
	call	?SetItemLabel@C_PopupList@@QAEXJPAD@Z	; C_PopupList::SetItemLabel

; 1945 : 			menu->SetItemFlagBitOff(MID_TEAM_4,C_BIT_INVISIBLE);

	push	8192					; 00002000H
	push	18126					; 000046ceH
	mov	ecx, DWORD PTR _menu$[ebp]
	call	?SetItemFlagBitOff@C_PopupList@@QAEXJJ@Z ; C_PopupList::SetItemFlagBitOff

; 1946 : 		}
; 1947 : 		else

	jmp	SHORT $LN7@OpenNavalM
$LN8@OpenNavalM:

; 1948 : 			menu->SetItemFlagBitOn(MID_TEAM_4,C_BIT_INVISIBLE);

	push	8192					; 00002000H
	push	18126					; 000046ceH
	mov	ecx, DWORD PTR _menu$[ebp]
	call	?SetItemFlagBitOn@C_PopupList@@QAEXJJ@Z	; C_PopupList::SetItemFlagBitOn
$LN7@OpenNavalM:

; 1949 : 		if(TeamInfo[5])

	mov	ecx, 4
	imul	ecx, 5
	cmp	DWORD PTR ?TeamInfo@@3PAPAVTeamClass@@A[ecx], 0
	je	SHORT $LN6@OpenNavalM

; 1950 : 		{
; 1951 : 			menu->SetItemLabel(MID_TEAM_5,TeamInfo[5]->GetName());

	mov	edx, 4
	imul	edx, 5
	mov	ecx, DWORD PTR ?TeamInfo@@3PAPAVTeamClass@@A[edx]
	call	?GetName@TeamClass@@QAEPADXZ		; TeamClass::GetName
	push	eax
	push	18127					; 000046cfH
	mov	ecx, DWORD PTR _menu$[ebp]
	call	?SetItemLabel@C_PopupList@@QAEXJPAD@Z	; C_PopupList::SetItemLabel

; 1952 : 			menu->SetItemFlagBitOff(MID_TEAM_5,C_BIT_INVISIBLE);

	push	8192					; 00002000H
	push	18127					; 000046cfH
	mov	ecx, DWORD PTR _menu$[ebp]
	call	?SetItemFlagBitOff@C_PopupList@@QAEXJJ@Z ; C_PopupList::SetItemFlagBitOff

; 1953 : 		}
; 1954 : 		else

	jmp	SHORT $LN5@OpenNavalM
$LN6@OpenNavalM:

; 1955 : 			menu->SetItemFlagBitOn(MID_TEAM_5,C_BIT_INVISIBLE);

	push	8192					; 00002000H
	push	18127					; 000046cfH
	mov	ecx, DWORD PTR _menu$[ebp]
	call	?SetItemFlagBitOn@C_PopupList@@QAEXJJ@Z	; C_PopupList::SetItemFlagBitOn
$LN5@OpenNavalM:

; 1956 : 		if(TeamInfo[6])

	mov	eax, 4
	imul	eax, 6
	cmp	DWORD PTR ?TeamInfo@@3PAPAVTeamClass@@A[eax], 0
	je	SHORT $LN4@OpenNavalM

; 1957 : 		{
; 1958 : 			menu->SetItemLabel(MID_TEAM_6,TeamInfo[6]->GetName());

	mov	ecx, 4
	imul	ecx, 6
	mov	ecx, DWORD PTR ?TeamInfo@@3PAPAVTeamClass@@A[ecx]
	call	?GetName@TeamClass@@QAEPADXZ		; TeamClass::GetName
	push	eax
	push	18128					; 000046d0H
	mov	ecx, DWORD PTR _menu$[ebp]
	call	?SetItemLabel@C_PopupList@@QAEXJPAD@Z	; C_PopupList::SetItemLabel

; 1959 : 			menu->SetItemFlagBitOff(MID_TEAM_6,C_BIT_INVISIBLE);

	push	8192					; 00002000H
	push	18128					; 000046d0H
	mov	ecx, DWORD PTR _menu$[ebp]
	call	?SetItemFlagBitOff@C_PopupList@@QAEXJJ@Z ; C_PopupList::SetItemFlagBitOff

; 1960 : 		}
; 1961 : 		else

	jmp	SHORT $LN3@OpenNavalM
$LN4@OpenNavalM:

; 1962 : 			menu->SetItemFlagBitOn(MID_TEAM_6,C_BIT_INVISIBLE);

	push	8192					; 00002000H
	push	18128					; 000046d0H
	mov	ecx, DWORD PTR _menu$[ebp]
	call	?SetItemFlagBitOn@C_PopupList@@QAEXJJ@Z	; C_PopupList::SetItemFlagBitOn
$LN3@OpenNavalM:

; 1963 : 		if(TeamInfo[7])

	mov	edx, 4
	imul	edx, 7
	cmp	DWORD PTR ?TeamInfo@@3PAPAVTeamClass@@A[edx], 0
	je	SHORT $LN2@OpenNavalM

; 1964 : 		{
; 1965 : 			menu->SetItemLabel(MID_TEAM_7,TeamInfo[7]->GetName());

	mov	eax, 4
	imul	eax, 7
	mov	ecx, DWORD PTR ?TeamInfo@@3PAPAVTeamClass@@A[eax]
	call	?GetName@TeamClass@@QAEPADXZ		; TeamClass::GetName
	push	eax
	push	18129					; 000046d1H
	mov	ecx, DWORD PTR _menu$[ebp]
	call	?SetItemLabel@C_PopupList@@QAEXJPAD@Z	; C_PopupList::SetItemLabel

; 1966 : 			menu->SetItemFlagBitOff(MID_TEAM_7,C_BIT_INVISIBLE);

	push	8192					; 00002000H
	push	18129					; 000046d1H
	mov	ecx, DWORD PTR _menu$[ebp]
	call	?SetItemFlagBitOff@C_PopupList@@QAEXJJ@Z ; C_PopupList::SetItemFlagBitOff

; 1967 : 		}
; 1968 : 		else

	jmp	SHORT $LN18@OpenNavalM
$LN2@OpenNavalM:

; 1969 : 			menu->SetItemFlagBitOn(MID_TEAM_7,C_BIT_INVISIBLE);

	push	8192					; 00002000H
	push	18129					; 000046d1H
	mov	ecx, DWORD PTR _menu$[ebp]
	call	?SetItemFlagBitOn@C_PopupList@@QAEXJJ@Z	; C_PopupList::SetItemFlagBitOn
$LN18@OpenNavalM:

; 1970 : 	}
; 1971 : }

	mov	esp, ebp
	pop	ebp
	ret	0
?OpenNavalMenuCB@@YAXPAVC_Base@@0@Z ENDP		; OpenNavalMenuCB
_TEXT	ENDS
; Function compile flags: /Odtp
; File c:\users\zhitao li\documents\visual studio 2012\projects\freefalcon\ui\src\campaign\campmenu.cpp
_TEXT	SEGMENT
_menu$ = -4						; size = 4
_themenu$ = 8						; size = 4
_caller$ = 12						; size = 4
?OpenUnitMenuCB@@YAXPAVC_Base@@0@Z PROC			; OpenUnitMenuCB

; 1850 : {

	push	ebp
	mov	ebp, esp
	push	ecx

; 1851 : 	C_PopupList *menu;
; 1852 : 
; 1853 : 	if(!themenu || !caller || !caller->Parent_)

	cmp	DWORD PTR _themenu$[ebp], 0
	je	SHORT $LN16@OpenUnitMe
	cmp	DWORD PTR _caller$[ebp], 0
	je	SHORT $LN16@OpenUnitMe
	mov	eax, DWORD PTR _caller$[ebp]
	cmp	DWORD PTR [eax+48], 0
	jne	SHORT $LN17@OpenUnitMe
$LN16@OpenUnitMe:

; 1854 : 		return;

	jmp	$LN18@OpenUnitMe
$LN17@OpenUnitMe:

; 1855 : 
; 1856 : 	menu=(C_PopupList*)themenu;

	mov	ecx, DWORD PTR _themenu$[ebp]
	mov	DWORD PTR _menu$[ebp], ecx

; 1857 : 	if(menu)

	cmp	DWORD PTR _menu$[ebp], 0
	je	$LN18@OpenUnitMe

; 1858 : 	{
; 1859 : 		if(TeamInfo[1])

	mov	edx, 4
	shl	edx, 0
	cmp	DWORD PTR ?TeamInfo@@3PAPAVTeamClass@@A[edx], 0
	je	SHORT $LN14@OpenUnitMe

; 1860 : 		{
; 1861 : 			menu->SetItemLabel(MID_TEAM_1,TeamInfo[1]->GetName());

	mov	eax, 4
	shl	eax, 0
	mov	ecx, DWORD PTR ?TeamInfo@@3PAPAVTeamClass@@A[eax]
	call	?GetName@TeamClass@@QAEPADXZ		; TeamClass::GetName
	push	eax
	push	18123					; 000046cbH
	mov	ecx, DWORD PTR _menu$[ebp]
	call	?SetItemLabel@C_PopupList@@QAEXJPAD@Z	; C_PopupList::SetItemLabel

; 1862 : 			menu->SetItemFlagBitOff(MID_TEAM_1,C_BIT_INVISIBLE);

	push	8192					; 00002000H
	push	18123					; 000046cbH
	mov	ecx, DWORD PTR _menu$[ebp]
	call	?SetItemFlagBitOff@C_PopupList@@QAEXJJ@Z ; C_PopupList::SetItemFlagBitOff

; 1863 : 		}
; 1864 : 		else

	jmp	SHORT $LN13@OpenUnitMe
$LN14@OpenUnitMe:

; 1865 : 			menu->SetItemFlagBitOn(MID_TEAM_1,C_BIT_INVISIBLE);

	push	8192					; 00002000H
	push	18123					; 000046cbH
	mov	ecx, DWORD PTR _menu$[ebp]
	call	?SetItemFlagBitOn@C_PopupList@@QAEXJJ@Z	; C_PopupList::SetItemFlagBitOn
$LN13@OpenUnitMe:

; 1866 : 		if(TeamInfo[2])

	mov	ecx, 4
	shl	ecx, 1
	cmp	DWORD PTR ?TeamInfo@@3PAPAVTeamClass@@A[ecx], 0
	je	SHORT $LN12@OpenUnitMe

; 1867 : 		{
; 1868 : 			menu->SetItemLabel(MID_TEAM_2,TeamInfo[2]->GetName());

	mov	edx, 4
	shl	edx, 1
	mov	ecx, DWORD PTR ?TeamInfo@@3PAPAVTeamClass@@A[edx]
	call	?GetName@TeamClass@@QAEPADXZ		; TeamClass::GetName
	push	eax
	push	18124					; 000046ccH
	mov	ecx, DWORD PTR _menu$[ebp]
	call	?SetItemLabel@C_PopupList@@QAEXJPAD@Z	; C_PopupList::SetItemLabel

; 1869 : 			menu->SetItemFlagBitOff(MID_TEAM_2,C_BIT_INVISIBLE);

	push	8192					; 00002000H
	push	18124					; 000046ccH
	mov	ecx, DWORD PTR _menu$[ebp]
	call	?SetItemFlagBitOff@C_PopupList@@QAEXJJ@Z ; C_PopupList::SetItemFlagBitOff

; 1870 : 		}
; 1871 : 		else

	jmp	SHORT $LN11@OpenUnitMe
$LN12@OpenUnitMe:

; 1872 : 			menu->SetItemFlagBitOn(MID_TEAM_2,C_BIT_INVISIBLE);

	push	8192					; 00002000H
	push	18124					; 000046ccH
	mov	ecx, DWORD PTR _menu$[ebp]
	call	?SetItemFlagBitOn@C_PopupList@@QAEXJJ@Z	; C_PopupList::SetItemFlagBitOn
$LN11@OpenUnitMe:

; 1873 : 		if(TeamInfo[3])

	mov	eax, 4
	imul	eax, 3
	cmp	DWORD PTR ?TeamInfo@@3PAPAVTeamClass@@A[eax], 0
	je	SHORT $LN10@OpenUnitMe

; 1874 : 		{
; 1875 : 			menu->SetItemLabel(MID_TEAM_3,TeamInfo[3]->GetName());

	mov	ecx, 4
	imul	ecx, 3
	mov	ecx, DWORD PTR ?TeamInfo@@3PAPAVTeamClass@@A[ecx]
	call	?GetName@TeamClass@@QAEPADXZ		; TeamClass::GetName
	push	eax
	push	18125					; 000046cdH
	mov	ecx, DWORD PTR _menu$[ebp]
	call	?SetItemLabel@C_PopupList@@QAEXJPAD@Z	; C_PopupList::SetItemLabel

; 1876 : 			menu->SetItemFlagBitOff(MID_TEAM_3,C_BIT_INVISIBLE);

	push	8192					; 00002000H
	push	18125					; 000046cdH
	mov	ecx, DWORD PTR _menu$[ebp]
	call	?SetItemFlagBitOff@C_PopupList@@QAEXJJ@Z ; C_PopupList::SetItemFlagBitOff

; 1877 : 		}
; 1878 : 		else

	jmp	SHORT $LN9@OpenUnitMe
$LN10@OpenUnitMe:

; 1879 : 			menu->SetItemFlagBitOn(MID_TEAM_3,C_BIT_INVISIBLE);

	push	8192					; 00002000H
	push	18125					; 000046cdH
	mov	ecx, DWORD PTR _menu$[ebp]
	call	?SetItemFlagBitOn@C_PopupList@@QAEXJJ@Z	; C_PopupList::SetItemFlagBitOn
$LN9@OpenUnitMe:

; 1880 : 		if(TeamInfo[4])

	mov	edx, 4
	shl	edx, 2
	cmp	DWORD PTR ?TeamInfo@@3PAPAVTeamClass@@A[edx], 0
	je	SHORT $LN8@OpenUnitMe

; 1881 : 		{
; 1882 : 			menu->SetItemLabel(MID_TEAM_4,TeamInfo[4]->GetName());

	mov	eax, 4
	shl	eax, 2
	mov	ecx, DWORD PTR ?TeamInfo@@3PAPAVTeamClass@@A[eax]
	call	?GetName@TeamClass@@QAEPADXZ		; TeamClass::GetName
	push	eax
	push	18126					; 000046ceH
	mov	ecx, DWORD PTR _menu$[ebp]
	call	?SetItemLabel@C_PopupList@@QAEXJPAD@Z	; C_PopupList::SetItemLabel

; 1883 : 			menu->SetItemFlagBitOff(MID_TEAM_4,C_BIT_INVISIBLE);

	push	8192					; 00002000H
	push	18126					; 000046ceH
	mov	ecx, DWORD PTR _menu$[ebp]
	call	?SetItemFlagBitOff@C_PopupList@@QAEXJJ@Z ; C_PopupList::SetItemFlagBitOff

; 1884 : 		}
; 1885 : 		else

	jmp	SHORT $LN7@OpenUnitMe
$LN8@OpenUnitMe:

; 1886 : 			menu->SetItemFlagBitOn(MID_TEAM_4,C_BIT_INVISIBLE);

	push	8192					; 00002000H
	push	18126					; 000046ceH
	mov	ecx, DWORD PTR _menu$[ebp]
	call	?SetItemFlagBitOn@C_PopupList@@QAEXJJ@Z	; C_PopupList::SetItemFlagBitOn
$LN7@OpenUnitMe:

; 1887 : 		if(TeamInfo[5])

	mov	ecx, 4
	imul	ecx, 5
	cmp	DWORD PTR ?TeamInfo@@3PAPAVTeamClass@@A[ecx], 0
	je	SHORT $LN6@OpenUnitMe

; 1888 : 		{
; 1889 : 			menu->SetItemLabel(MID_TEAM_5,TeamInfo[5]->GetName());

	mov	edx, 4
	imul	edx, 5
	mov	ecx, DWORD PTR ?TeamInfo@@3PAPAVTeamClass@@A[edx]
	call	?GetName@TeamClass@@QAEPADXZ		; TeamClass::GetName
	push	eax
	push	18127					; 000046cfH
	mov	ecx, DWORD PTR _menu$[ebp]
	call	?SetItemLabel@C_PopupList@@QAEXJPAD@Z	; C_PopupList::SetItemLabel

; 1890 : 			menu->SetItemFlagBitOff(MID_TEAM_5,C_BIT_INVISIBLE);

	push	8192					; 00002000H
	push	18127					; 000046cfH
	mov	ecx, DWORD PTR _menu$[ebp]
	call	?SetItemFlagBitOff@C_PopupList@@QAEXJJ@Z ; C_PopupList::SetItemFlagBitOff

; 1891 : 		}
; 1892 : 		else

	jmp	SHORT $LN5@OpenUnitMe
$LN6@OpenUnitMe:

; 1893 : 			menu->SetItemFlagBitOn(MID_TEAM_5,C_BIT_INVISIBLE);

	push	8192					; 00002000H
	push	18127					; 000046cfH
	mov	ecx, DWORD PTR _menu$[ebp]
	call	?SetItemFlagBitOn@C_PopupList@@QAEXJJ@Z	; C_PopupList::SetItemFlagBitOn
$LN5@OpenUnitMe:

; 1894 : 		if(TeamInfo[6])

	mov	eax, 4
	imul	eax, 6
	cmp	DWORD PTR ?TeamInfo@@3PAPAVTeamClass@@A[eax], 0
	je	SHORT $LN4@OpenUnitMe

; 1895 : 		{
; 1896 : 			menu->SetItemLabel(MID_TEAM_6,TeamInfo[6]->GetName());

	mov	ecx, 4
	imul	ecx, 6
	mov	ecx, DWORD PTR ?TeamInfo@@3PAPAVTeamClass@@A[ecx]
	call	?GetName@TeamClass@@QAEPADXZ		; TeamClass::GetName
	push	eax
	push	18128					; 000046d0H
	mov	ecx, DWORD PTR _menu$[ebp]
	call	?SetItemLabel@C_PopupList@@QAEXJPAD@Z	; C_PopupList::SetItemLabel

; 1897 : 			menu->SetItemFlagBitOff(MID_TEAM_6,C_BIT_INVISIBLE);

	push	8192					; 00002000H
	push	18128					; 000046d0H
	mov	ecx, DWORD PTR _menu$[ebp]
	call	?SetItemFlagBitOff@C_PopupList@@QAEXJJ@Z ; C_PopupList::SetItemFlagBitOff

; 1898 : 		}
; 1899 : 		else

	jmp	SHORT $LN3@OpenUnitMe
$LN4@OpenUnitMe:

; 1900 : 			menu->SetItemFlagBitOn(MID_TEAM_6,C_BIT_INVISIBLE);

	push	8192					; 00002000H
	push	18128					; 000046d0H
	mov	ecx, DWORD PTR _menu$[ebp]
	call	?SetItemFlagBitOn@C_PopupList@@QAEXJJ@Z	; C_PopupList::SetItemFlagBitOn
$LN3@OpenUnitMe:

; 1901 : 		if(TeamInfo[7])

	mov	edx, 4
	imul	edx, 7
	cmp	DWORD PTR ?TeamInfo@@3PAPAVTeamClass@@A[edx], 0
	je	SHORT $LN2@OpenUnitMe

; 1902 : 		{
; 1903 : 			menu->SetItemLabel(MID_TEAM_7,TeamInfo[7]->GetName());

	mov	eax, 4
	imul	eax, 7
	mov	ecx, DWORD PTR ?TeamInfo@@3PAPAVTeamClass@@A[eax]
	call	?GetName@TeamClass@@QAEPADXZ		; TeamClass::GetName
	push	eax
	push	18129					; 000046d1H
	mov	ecx, DWORD PTR _menu$[ebp]
	call	?SetItemLabel@C_PopupList@@QAEXJPAD@Z	; C_PopupList::SetItemLabel

; 1904 : 			menu->SetItemFlagBitOff(MID_TEAM_7,C_BIT_INVISIBLE);

	push	8192					; 00002000H
	push	18129					; 000046d1H
	mov	ecx, DWORD PTR _menu$[ebp]
	call	?SetItemFlagBitOff@C_PopupList@@QAEXJJ@Z ; C_PopupList::SetItemFlagBitOff

; 1905 : 		}
; 1906 : 		else

	jmp	SHORT $LN18@OpenUnitMe
$LN2@OpenUnitMe:

; 1907 : 			menu->SetItemFlagBitOn(MID_TEAM_7,C_BIT_INVISIBLE);

	push	8192					; 00002000H
	push	18129					; 000046d1H
	mov	ecx, DWORD PTR _menu$[ebp]
	call	?SetItemFlagBitOn@C_PopupList@@QAEXJJ@Z	; C_PopupList::SetItemFlagBitOn
$LN18@OpenUnitMe:

; 1908 : 	}
; 1909 : }

	mov	esp, ebp
	pop	ebp
	ret	0
?OpenUnitMenuCB@@YAXPAVC_Base@@0@Z ENDP			; OpenUnitMenuCB
_TEXT	ENDS
; Function compile flags: /Odtp
; File c:\users\zhitao li\documents\visual studio 2012\projects\freefalcon\ui\src\campaign\campmenu.cpp
_TEXT	SEGMENT
_menu$ = -4						; size = 4
_themenu$ = 8						; size = 4
_caller$ = 12						; size = 4
?MapMenuOpenCB@@YAXPAVC_Base@@0@Z PROC			; MapMenuOpenCB

; 1814 : {

	push	ebp
	mov	ebp, esp
	push	ecx

; 1815 : 	C_PopupList *menu;
; 1816 : 
; 1817 : 	if(!themenu || !caller || !caller->Parent_)

	cmp	DWORD PTR _themenu$[ebp], 0
	je	SHORT $LN5@MapMenuOpe
	cmp	DWORD PTR _caller$[ebp], 0
	je	SHORT $LN5@MapMenuOpe
	mov	eax, DWORD PTR _caller$[ebp]
	cmp	DWORD PTR [eax+48], 0
	jne	SHORT $LN6@MapMenuOpe
$LN5@MapMenuOpe:

; 1818 : 		return;

	jmp	$LN7@MapMenuOpe
$LN6@MapMenuOpe:

; 1819 : 
; 1820 : 	menu=(C_PopupList*)themenu;

	mov	ecx, DWORD PTR _themenu$[ebp]
	mov	DWORD PTR _menu$[ebp], ecx

; 1821 : 
; 1822 : 	// Enable certain stuff for TE VC window
; 1823 : 	if(caller->Parent_->GetID() == TAC_VC_WIN)

	mov	edx, DWORD PTR _caller$[ebp]
	mov	ecx, DWORD PTR [edx+48]
	call	?GetID@C_Window@@QAEJXZ			; C_Window::GetID
	cmp	eax, 40025				; 00009c59H
	jne	SHORT $LN4@MapMenuOpe

; 1824 : 	{
; 1825 : 		menu->SetItemFlagBitOn(MID_ADD_VC,C_BIT_ENABLED);

	push	2048					; 00000800H
	push	86116					; 00015064H
	mov	ecx, DWORD PTR _menu$[ebp]
	call	?SetItemFlagBitOn@C_PopupList@@QAEXJJ@Z	; C_PopupList::SetItemFlagBitOn

; 1826 : 		menu->SetItemFlagBitOff(MID_ADD_FLIGHT,C_BIT_ENABLED);

	push	2048					; 00000800H
	push	40083					; 00009c93H
	mov	ecx, DWORD PTR _menu$[ebp]
	call	?SetItemFlagBitOff@C_PopupList@@QAEXJJ@Z ; C_PopupList::SetItemFlagBitOff

; 1827 : 		menu->SetItemFlagBitOff(MID_ADD_PACKAGE,C_BIT_ENABLED);

	push	2048					; 00000800H
	push	86112					; 00015060H
	mov	ecx, DWORD PTR _menu$[ebp]
	call	?SetItemFlagBitOff@C_PopupList@@QAEXJJ@Z ; C_PopupList::SetItemFlagBitOff

; 1828 : 		menu->SetItemFlagBitOff(MID_ADD_BATTALION,C_BIT_ENABLED);

	push	2048					; 00000800H
	push	86113					; 00015061H
	mov	ecx, DWORD PTR _menu$[ebp]
	call	?SetItemFlagBitOff@C_PopupList@@QAEXJJ@Z ; C_PopupList::SetItemFlagBitOff

; 1829 : 	}
; 1830 : 	else

	jmp	$LN7@MapMenuOpe
$LN4@MapMenuOpe:

; 1831 : 	{
; 1832 : 		if(EditMode)

	cmp	DWORD PTR _EditMode, 0
	je	SHORT $LN2@MapMenuOpe

; 1833 : 		{
; 1834 : 			menu->SetItemFlagBitOn(MID_ADD_VC,C_BIT_ENABLED);

	push	2048					; 00000800H
	push	86116					; 00015064H
	mov	ecx, DWORD PTR _menu$[ebp]
	call	?SetItemFlagBitOn@C_PopupList@@QAEXJJ@Z	; C_PopupList::SetItemFlagBitOn

; 1835 : 			menu->SetItemFlagBitOn(MID_ADD_FLIGHT,C_BIT_ENABLED);

	push	2048					; 00000800H
	push	40083					; 00009c93H
	mov	ecx, DWORD PTR _menu$[ebp]
	call	?SetItemFlagBitOn@C_PopupList@@QAEXJJ@Z	; C_PopupList::SetItemFlagBitOn

; 1836 : 			menu->SetItemFlagBitOn(MID_ADD_PACKAGE,C_BIT_ENABLED);

	push	2048					; 00000800H
	push	86112					; 00015060H
	mov	ecx, DWORD PTR _menu$[ebp]
	call	?SetItemFlagBitOn@C_PopupList@@QAEXJJ@Z	; C_PopupList::SetItemFlagBitOn

; 1837 : 			menu->SetItemFlagBitOn(MID_ADD_BATTALION,C_BIT_ENABLED);

	push	2048					; 00000800H
	push	86113					; 00015061H
	mov	ecx, DWORD PTR _menu$[ebp]
	call	?SetItemFlagBitOn@C_PopupList@@QAEXJJ@Z	; C_PopupList::SetItemFlagBitOn

; 1838 : 		}
; 1839 : 		else

	jmp	SHORT $LN7@MapMenuOpe
$LN2@MapMenuOpe:

; 1840 : 		{
; 1841 : 			menu->SetItemFlagBitOff(MID_ADD_VC,C_BIT_ENABLED);

	push	2048					; 00000800H
	push	86116					; 00015064H
	mov	ecx, DWORD PTR _menu$[ebp]
	call	?SetItemFlagBitOff@C_PopupList@@QAEXJJ@Z ; C_PopupList::SetItemFlagBitOff

; 1842 : 			menu->SetItemFlagBitOff(MID_ADD_FLIGHT,C_BIT_ENABLED);

	push	2048					; 00000800H
	push	40083					; 00009c93H
	mov	ecx, DWORD PTR _menu$[ebp]
	call	?SetItemFlagBitOff@C_PopupList@@QAEXJJ@Z ; C_PopupList::SetItemFlagBitOff

; 1843 : 			menu->SetItemFlagBitOn(MID_ADD_PACKAGE,C_BIT_ENABLED);

	push	2048					; 00000800H
	push	86112					; 00015060H
	mov	ecx, DWORD PTR _menu$[ebp]
	call	?SetItemFlagBitOn@C_PopupList@@QAEXJJ@Z	; C_PopupList::SetItemFlagBitOn

; 1844 : 			menu->SetItemFlagBitOff(MID_ADD_BATTALION,C_BIT_ENABLED);

	push	2048					; 00000800H
	push	86113					; 00015061H
	mov	ecx, DWORD PTR _menu$[ebp]
	call	?SetItemFlagBitOff@C_PopupList@@QAEXJJ@Z ; C_PopupList::SetItemFlagBitOff
$LN7@MapMenuOpe:

; 1845 : 		}
; 1846 : 	}
; 1847 : }

	mov	esp, ebp
	pop	ebp
	ret	0
?MapMenuOpenCB@@YAXPAVC_Base@@0@Z ENDP			; MapMenuOpenCB
_TEXT	ENDS
; Function compile flags: /Odtp
; File c:\users\zhitao li\documents\visual studio 2012\projects\freefalcon\ui\src\campaign\campmenu.cpp
_TEXT	SEGMENT
_menu$ = -4						; size = 4
_Mode$ = 8						; size = 2
?SetupTacEngMenus@@YAXF@Z PROC				; SetupTacEngMenus

; 1663 : {

	push	ebp
	mov	ebp, esp
	push	ecx

; 1664 : 	C_PopupList *menu;
; 1665 : 
; 1666 : 	GameType=2;

	mov	DWORD PTR _GameType, 2

; 1667 : 	EditMode=Mode;

	movsx	eax, WORD PTR _Mode$[ebp]
	mov	DWORD PTR _EditMode, eax

; 1668 : 
; 1669 : 	// Map Menu
; 1670 : 	menu=gPopupMgr->GetMenu(MAP_POP);

	push	86000					; 00014ff0H
	mov	ecx, DWORD PTR ?gPopupMgr@@3PAVC_PopupMgr@@A ; gPopupMgr
	call	?GetMenu@C_PopupMgr@@QAEPAVC_PopupList@@J@Z ; C_PopupMgr::GetMenu
	mov	DWORD PTR _menu$[ebp], eax

; 1671 : 	if(menu)

	cmp	DWORD PTR _menu$[ebp], 0
	je	SHORT $LN19@SetupTacEn

; 1672 : 	{
; 1673 : 		menu->SetItemFlagBitOff(MID_ADD_FLIGHT,C_BIT_INVISIBLE);

	push	8192					; 00002000H
	push	40083					; 00009c93H
	mov	ecx, DWORD PTR _menu$[ebp]
	call	?SetItemFlagBitOff@C_PopupList@@QAEXJJ@Z ; C_PopupList::SetItemFlagBitOff

; 1674 : 		menu->SetItemFlagBitOff(MID_ADD_PACKAGE,C_BIT_INVISIBLE);

	push	8192					; 00002000H
	push	86112					; 00015060H
	mov	ecx, DWORD PTR _menu$[ebp]
	call	?SetItemFlagBitOff@C_PopupList@@QAEXJJ@Z ; C_PopupList::SetItemFlagBitOff

; 1675 : 		menu->SetItemFlagBitOn(MID_ADD_FLIGHT,C_BIT_ENABLED);

	push	2048					; 00000800H
	push	40083					; 00009c93H
	mov	ecx, DWORD PTR _menu$[ebp]
	call	?SetItemFlagBitOn@C_PopupList@@QAEXJJ@Z	; C_PopupList::SetItemFlagBitOn

; 1676 : 		menu->SetItemFlagBitOn(MID_ADD_PACKAGE,C_BIT_ENABLED);

	push	2048					; 00000800H
	push	86112					; 00015060H
	mov	ecx, DWORD PTR _menu$[ebp]
	call	?SetItemFlagBitOn@C_PopupList@@QAEXJJ@Z	; C_PopupList::SetItemFlagBitOn

; 1677 : 
; 1678 : 		menu->SetItemFlagBitOff(MID_SHOW_VC,C_BIT_INVISIBLE);

	push	8192					; 00002000H
	push	40085					; 00009c95H
	mov	ecx, DWORD PTR _menu$[ebp]
	call	?SetItemFlagBitOff@C_PopupList@@QAEXJJ@Z ; C_PopupList::SetItemFlagBitOff
$LN19@SetupTacEn:

; 1679 : 	}
; 1680 : 
; 1681 : 	// Objective Menu
; 1682 : 	menu=gPopupMgr->GetMenu(OBJECTIVE_POP);

	push	18199					; 00004717H
	mov	ecx, DWORD PTR ?gPopupMgr@@3PAVC_PopupMgr@@A ; gPopupMgr
	call	?GetMenu@C_PopupMgr@@QAEPAVC_PopupList@@J@Z ; C_PopupMgr::GetMenu
	mov	DWORD PTR _menu$[ebp], eax

; 1683 : 	if(menu)

	cmp	DWORD PTR _menu$[ebp], 0
	je	$LN18@SetupTacEn

; 1684 : 	{
; 1685 : 		menu->SetItemFlagBitOff(MID_ADD_FLIGHT,C_BIT_INVISIBLE);

	push	8192					; 00002000H
	push	40083					; 00009c93H
	mov	ecx, DWORD PTR _menu$[ebp]
	call	?SetItemFlagBitOff@C_PopupList@@QAEXJJ@Z ; C_PopupList::SetItemFlagBitOff

; 1686 : 		menu->SetItemFlagBitOff(MID_ADD_PACKAGE,C_BIT_INVISIBLE);

	push	8192					; 00002000H
	push	86112					; 00015060H
	mov	ecx, DWORD PTR _menu$[ebp]
	call	?SetItemFlagBitOff@C_PopupList@@QAEXJJ@Z ; C_PopupList::SetItemFlagBitOff

; 1687 : 		menu->SetItemFlagBitOn(MID_ADD_FLIGHT,C_BIT_ENABLED);

	push	2048					; 00000800H
	push	40083					; 00009c93H
	mov	ecx, DWORD PTR _menu$[ebp]
	call	?SetItemFlagBitOn@C_PopupList@@QAEXJJ@Z	; C_PopupList::SetItemFlagBitOn

; 1688 : 		menu->SetItemFlagBitOn(MID_ADD_PACKAGE,C_BIT_ENABLED);

	push	2048					; 00000800H
	push	86112					; 00015060H
	mov	ecx, DWORD PTR _menu$[ebp]
	call	?SetItemFlagBitOn@C_PopupList@@QAEXJJ@Z	; C_PopupList::SetItemFlagBitOn

; 1689 : 
; 1690 : 		menu->SetItemFlagBitOff(MID_ADD_VC,C_BIT_INVISIBLE);

	push	8192					; 00002000H
	push	86116					; 00015064H
	mov	ecx, DWORD PTR _menu$[ebp]
	call	?SetItemFlagBitOff@C_PopupList@@QAEXJJ@Z ; C_PopupList::SetItemFlagBitOff

; 1691 : 		menu->SetItemFlagBitOff(MID_SET_OWNER,C_BIT_INVISIBLE);

	push	8192					; 00002000H
	push	86117					; 00015065H
	mov	ecx, DWORD PTR _menu$[ebp]
	call	?SetItemFlagBitOff@C_PopupList@@QAEXJJ@Z ; C_PopupList::SetItemFlagBitOff

; 1692 : 		menu->SetItemFlagBitOn(MID_SQUADRONS,C_BIT_INVISIBLE);

	push	8192					; 00002000H
	push	86118					; 00015066H
	mov	ecx, DWORD PTR _menu$[ebp]
	call	?SetItemFlagBitOn@C_PopupList@@QAEXJJ@Z	; C_PopupList::SetItemFlagBitOn

; 1693 : 		if(EditMode)

	cmp	DWORD PTR _EditMode, 0
	je	SHORT $LN17@SetupTacEn

; 1694 : 		{
; 1695 : 			menu->SetItemFlagBitOn(MID_ADD_VC,C_BIT_ENABLED);

	push	2048					; 00000800H
	push	86116					; 00015064H
	mov	ecx, DWORD PTR _menu$[ebp]
	call	?SetItemFlagBitOn@C_PopupList@@QAEXJJ@Z	; C_PopupList::SetItemFlagBitOn

; 1696 : 			menu->SetItemFlagBitOn(MID_SET_OWNER,C_BIT_ENABLED);

	push	2048					; 00000800H
	push	86117					; 00015065H
	mov	ecx, DWORD PTR _menu$[ebp]
	call	?SetItemFlagBitOn@C_PopupList@@QAEXJJ@Z	; C_PopupList::SetItemFlagBitOn

; 1697 : 			menu->SetItemFlagBitOff(MID_ADD_BATTALION,C_BIT_INVISIBLE);

	push	8192					; 00002000H
	push	86113					; 00015061H
	mov	ecx, DWORD PTR _menu$[ebp]
	call	?SetItemFlagBitOff@C_PopupList@@QAEXJJ@Z ; C_PopupList::SetItemFlagBitOff

; 1698 : 		}
; 1699 : 		else

	jmp	SHORT $LN18@SetupTacEn
$LN17@SetupTacEn:

; 1700 : 		{
; 1701 : 			menu->SetItemFlagBitOff(MID_ADD_VC,C_BIT_ENABLED);

	push	2048					; 00000800H
	push	86116					; 00015064H
	mov	ecx, DWORD PTR _menu$[ebp]
	call	?SetItemFlagBitOff@C_PopupList@@QAEXJJ@Z ; C_PopupList::SetItemFlagBitOff

; 1702 : 			menu->SetItemFlagBitOff(MID_SET_OWNER,C_BIT_ENABLED);

	push	2048					; 00000800H
	push	86117					; 00015065H
	mov	ecx, DWORD PTR _menu$[ebp]
	call	?SetItemFlagBitOff@C_PopupList@@QAEXJJ@Z ; C_PopupList::SetItemFlagBitOff

; 1703 : 			menu->SetItemFlagBitOn(MID_ADD_BATTALION,C_BIT_INVISIBLE);

	push	8192					; 00002000H
	push	86113					; 00015061H
	mov	ecx, DWORD PTR _menu$[ebp]
	call	?SetItemFlagBitOn@C_PopupList@@QAEXJJ@Z	; C_PopupList::SetItemFlagBitOn
$LN18@SetupTacEn:

; 1704 : 		}
; 1705 : 	}
; 1706 : 
; 1707 : 	// Unit Menu
; 1708 : 	menu=gPopupMgr->GetMenu(UNIT_POP);

	push	18200					; 00004718H
	mov	ecx, DWORD PTR ?gPopupMgr@@3PAVC_PopupMgr@@A ; gPopupMgr
	call	?GetMenu@C_PopupMgr@@QAEPAVC_PopupList@@J@Z ; C_PopupMgr::GetMenu
	mov	DWORD PTR _menu$[ebp], eax

; 1709 : 	if(menu)

	cmp	DWORD PTR _menu$[ebp], 0
	je	$LN15@SetupTacEn

; 1710 : 	{
; 1711 : 		menu->SetItemFlagBitOff(MID_ADD_FLIGHT,C_BIT_INVISIBLE);

	push	8192					; 00002000H
	push	40083					; 00009c93H
	mov	ecx, DWORD PTR _menu$[ebp]
	call	?SetItemFlagBitOff@C_PopupList@@QAEXJJ@Z ; C_PopupList::SetItemFlagBitOff

; 1712 : 		menu->SetItemFlagBitOff(MID_ADD_PACKAGE,C_BIT_INVISIBLE);

	push	8192					; 00002000H
	push	86112					; 00015060H
	mov	ecx, DWORD PTR _menu$[ebp]
	call	?SetItemFlagBitOff@C_PopupList@@QAEXJJ@Z ; C_PopupList::SetItemFlagBitOff

; 1713 : 		menu->SetItemFlagBitOn(MID_ADD_FLIGHT,C_BIT_ENABLED);

	push	2048					; 00000800H
	push	40083					; 00009c93H
	mov	ecx, DWORD PTR _menu$[ebp]
	call	?SetItemFlagBitOn@C_PopupList@@QAEXJJ@Z	; C_PopupList::SetItemFlagBitOn

; 1714 : 		menu->SetItemFlagBitOn(MID_ADD_PACKAGE,C_BIT_ENABLED);

	push	2048					; 00000800H
	push	86112					; 00015060H
	mov	ecx, DWORD PTR _menu$[ebp]
	call	?SetItemFlagBitOn@C_PopupList@@QAEXJJ@Z	; C_PopupList::SetItemFlagBitOn

; 1715 : 
; 1716 : 		menu->SetItemFlagBitOff(MID_DELETE_UNIT,C_BIT_INVISIBLE);

	push	8192					; 00002000H
	push	18204					; 0000471cH
	mov	ecx, DWORD PTR _menu$[ebp]
	call	?SetItemFlagBitOff@C_PopupList@@QAEXJJ@Z ; C_PopupList::SetItemFlagBitOff

; 1717 : 		if(EditMode)

	cmp	DWORD PTR _EditMode, 0
	je	SHORT $LN14@SetupTacEn

; 1718 : 		{
; 1719 : 			menu->SetItemFlagBitOn(MID_DELETE_UNIT,C_BIT_ENABLED);

	push	2048					; 00000800H
	push	18204					; 0000471cH
	mov	ecx, DWORD PTR _menu$[ebp]
	call	?SetItemFlagBitOn@C_PopupList@@QAEXJJ@Z	; C_PopupList::SetItemFlagBitOn

; 1720 : 			menu->SetItemFlagBitOn(MID_ADD_VC,C_BIT_ENABLED);

	push	2048					; 00000800H
	push	86116					; 00015064H
	mov	ecx, DWORD PTR _menu$[ebp]
	call	?SetItemFlagBitOn@C_PopupList@@QAEXJJ@Z	; C_PopupList::SetItemFlagBitOn

; 1721 : 			menu->SetItemFlagBitOn(MID_SET_OWNER,C_BIT_ENABLED);

	push	2048					; 00000800H
	push	86117					; 00015065H
	mov	ecx, DWORD PTR _menu$[ebp]
	call	?SetItemFlagBitOn@C_PopupList@@QAEXJJ@Z	; C_PopupList::SetItemFlagBitOn

; 1722 : 			menu->SetItemFlagBitOff(MID_ADD_BATTALION,C_BIT_INVISIBLE);

	push	8192					; 00002000H
	push	86113					; 00015061H
	mov	ecx, DWORD PTR _menu$[ebp]
	call	?SetItemFlagBitOff@C_PopupList@@QAEXJJ@Z ; C_PopupList::SetItemFlagBitOff

; 1723 : 		}
; 1724 : 		else

	jmp	SHORT $LN15@SetupTacEn
$LN14@SetupTacEn:

; 1725 : 		{
; 1726 : 			menu->SetItemFlagBitOff(MID_DELETE_UNIT,C_BIT_ENABLED);

	push	2048					; 00000800H
	push	18204					; 0000471cH
	mov	ecx, DWORD PTR _menu$[ebp]
	call	?SetItemFlagBitOff@C_PopupList@@QAEXJJ@Z ; C_PopupList::SetItemFlagBitOff

; 1727 : 			menu->SetItemFlagBitOff(MID_ADD_VC,C_BIT_ENABLED);

	push	2048					; 00000800H
	push	86116					; 00015064H
	mov	ecx, DWORD PTR _menu$[ebp]
	call	?SetItemFlagBitOff@C_PopupList@@QAEXJJ@Z ; C_PopupList::SetItemFlagBitOff

; 1728 : 			menu->SetItemFlagBitOff(MID_SET_OWNER,C_BIT_ENABLED);

	push	2048					; 00000800H
	push	86117					; 00015065H
	mov	ecx, DWORD PTR _menu$[ebp]
	call	?SetItemFlagBitOff@C_PopupList@@QAEXJJ@Z ; C_PopupList::SetItemFlagBitOff

; 1729 : 			menu->SetItemFlagBitOn(MID_ADD_BATTALION,C_BIT_INVISIBLE);

	push	8192					; 00002000H
	push	86113					; 00015061H
	mov	ecx, DWORD PTR _menu$[ebp]
	call	?SetItemFlagBitOn@C_PopupList@@QAEXJJ@Z	; C_PopupList::SetItemFlagBitOn
$LN15@SetupTacEn:

; 1730 : 		}
; 1731 : 	}
; 1732 : 
; 1733 : 	// Unit Menu
; 1734 : 	menu=gPopupMgr->GetMenu(NAVAL_POP);

	push	18197					; 00004715H
	mov	ecx, DWORD PTR ?gPopupMgr@@3PAVC_PopupMgr@@A ; gPopupMgr
	call	?GetMenu@C_PopupMgr@@QAEPAVC_PopupList@@J@Z ; C_PopupMgr::GetMenu
	mov	DWORD PTR _menu$[ebp], eax

; 1735 : 	if(menu)

	cmp	DWORD PTR _menu$[ebp], 0
	je	$LN12@SetupTacEn

; 1736 : 	{
; 1737 : 		menu->SetItemFlagBitOff(MID_ADD_FLIGHT,C_BIT_INVISIBLE);

	push	8192					; 00002000H
	push	40083					; 00009c93H
	mov	ecx, DWORD PTR _menu$[ebp]
	call	?SetItemFlagBitOff@C_PopupList@@QAEXJJ@Z ; C_PopupList::SetItemFlagBitOff

; 1738 : 		menu->SetItemFlagBitOff(MID_ADD_PACKAGE,C_BIT_INVISIBLE);

	push	8192					; 00002000H
	push	86112					; 00015060H
	mov	ecx, DWORD PTR _menu$[ebp]
	call	?SetItemFlagBitOff@C_PopupList@@QAEXJJ@Z ; C_PopupList::SetItemFlagBitOff

; 1739 : 		menu->SetItemFlagBitOn(MID_ADD_FLIGHT,C_BIT_ENABLED);

	push	2048					; 00000800H
	push	40083					; 00009c93H
	mov	ecx, DWORD PTR _menu$[ebp]
	call	?SetItemFlagBitOn@C_PopupList@@QAEXJJ@Z	; C_PopupList::SetItemFlagBitOn

; 1740 : 		menu->SetItemFlagBitOn(MID_ADD_PACKAGE,C_BIT_ENABLED);

	push	2048					; 00000800H
	push	86112					; 00015060H
	mov	ecx, DWORD PTR _menu$[ebp]
	call	?SetItemFlagBitOn@C_PopupList@@QAEXJJ@Z	; C_PopupList::SetItemFlagBitOn

; 1741 : 
; 1742 : 		menu->SetItemFlagBitOff(MID_DELETE_UNIT,C_BIT_INVISIBLE);

	push	8192					; 00002000H
	push	18204					; 0000471cH
	mov	ecx, DWORD PTR _menu$[ebp]
	call	?SetItemFlagBitOff@C_PopupList@@QAEXJJ@Z ; C_PopupList::SetItemFlagBitOff

; 1743 : 		if(EditMode)

	cmp	DWORD PTR _EditMode, 0
	je	SHORT $LN11@SetupTacEn

; 1744 : 		{
; 1745 : 			menu->SetItemFlagBitOn(MID_DELETE_UNIT,C_BIT_ENABLED);

	push	2048					; 00000800H
	push	18204					; 0000471cH
	mov	ecx, DWORD PTR _menu$[ebp]
	call	?SetItemFlagBitOn@C_PopupList@@QAEXJJ@Z	; C_PopupList::SetItemFlagBitOn

; 1746 : 			menu->SetItemFlagBitOn(MID_ADD_VC,C_BIT_ENABLED);

	push	2048					; 00000800H
	push	86116					; 00015064H
	mov	ecx, DWORD PTR _menu$[ebp]
	call	?SetItemFlagBitOn@C_PopupList@@QAEXJJ@Z	; C_PopupList::SetItemFlagBitOn

; 1747 : 			menu->SetItemFlagBitOn(MID_SET_OWNER,C_BIT_ENABLED);

	push	2048					; 00000800H
	push	86117					; 00015065H
	mov	ecx, DWORD PTR _menu$[ebp]
	call	?SetItemFlagBitOn@C_PopupList@@QAEXJJ@Z	; C_PopupList::SetItemFlagBitOn

; 1748 : 			menu->SetItemFlagBitOff(MID_ADD_BATTALION,C_BIT_INVISIBLE);

	push	8192					; 00002000H
	push	86113					; 00015061H
	mov	ecx, DWORD PTR _menu$[ebp]
	call	?SetItemFlagBitOff@C_PopupList@@QAEXJJ@Z ; C_PopupList::SetItemFlagBitOff

; 1749 : 		}
; 1750 : 		else

	jmp	SHORT $LN12@SetupTacEn
$LN11@SetupTacEn:

; 1751 : 		{
; 1752 : 			menu->SetItemFlagBitOff(MID_DELETE_UNIT,C_BIT_ENABLED);

	push	2048					; 00000800H
	push	18204					; 0000471cH
	mov	ecx, DWORD PTR _menu$[ebp]
	call	?SetItemFlagBitOff@C_PopupList@@QAEXJJ@Z ; C_PopupList::SetItemFlagBitOff

; 1753 : 			menu->SetItemFlagBitOff(MID_ADD_VC,C_BIT_ENABLED);

	push	2048					; 00000800H
	push	86116					; 00015064H
	mov	ecx, DWORD PTR _menu$[ebp]
	call	?SetItemFlagBitOff@C_PopupList@@QAEXJJ@Z ; C_PopupList::SetItemFlagBitOff

; 1754 : 			menu->SetItemFlagBitOff(MID_SET_OWNER,C_BIT_ENABLED);

	push	2048					; 00000800H
	push	86117					; 00015065H
	mov	ecx, DWORD PTR _menu$[ebp]
	call	?SetItemFlagBitOff@C_PopupList@@QAEXJJ@Z ; C_PopupList::SetItemFlagBitOff

; 1755 : 			menu->SetItemFlagBitOn(MID_ADD_BATTALION,C_BIT_INVISIBLE);

	push	8192					; 00002000H
	push	86113					; 00015061H
	mov	ecx, DWORD PTR _menu$[ebp]
	call	?SetItemFlagBitOn@C_PopupList@@QAEXJJ@Z	; C_PopupList::SetItemFlagBitOn
$LN12@SetupTacEn:

; 1756 : 		}
; 1757 : 	}
; 1758 : 
; 1759 : 	// Unit Menu
; 1760 : 	menu=gPopupMgr->GetMenu(AIRUNIT_MENU);

	push	18710					; 00004916H
	mov	ecx, DWORD PTR ?gPopupMgr@@3PAVC_PopupMgr@@A ; gPopupMgr
	call	?GetMenu@C_PopupMgr@@QAEPAVC_PopupList@@J@Z ; C_PopupMgr::GetMenu
	mov	DWORD PTR _menu$[ebp], eax

; 1761 : 	if(menu)

	cmp	DWORD PTR _menu$[ebp], 0
	je	$LN9@SetupTacEn

; 1762 : 	{
; 1763 : 		menu->SetItemFlagBitOff(MID_ADD_FLIGHT,C_BIT_INVISIBLE);

	push	8192					; 00002000H
	push	40083					; 00009c93H
	mov	ecx, DWORD PTR _menu$[ebp]
	call	?SetItemFlagBitOff@C_PopupList@@QAEXJJ@Z ; C_PopupList::SetItemFlagBitOff

; 1764 : 		menu->SetItemFlagBitOff(MID_ADD_PACKAGE,C_BIT_INVISIBLE);

	push	8192					; 00002000H
	push	86112					; 00015060H
	mov	ecx, DWORD PTR _menu$[ebp]
	call	?SetItemFlagBitOff@C_PopupList@@QAEXJJ@Z ; C_PopupList::SetItemFlagBitOff

; 1765 : 		menu->SetItemFlagBitOn(MID_ADD_FLIGHT,C_BIT_ENABLED);

	push	2048					; 00000800H
	push	40083					; 00009c93H
	mov	ecx, DWORD PTR _menu$[ebp]
	call	?SetItemFlagBitOn@C_PopupList@@QAEXJJ@Z	; C_PopupList::SetItemFlagBitOn

; 1766 : 		menu->SetItemFlagBitOn(MID_ADD_PACKAGE,C_BIT_ENABLED);

	push	2048					; 00000800H
	push	86112					; 00015060H
	mov	ecx, DWORD PTR _menu$[ebp]
	call	?SetItemFlagBitOn@C_PopupList@@QAEXJJ@Z	; C_PopupList::SetItemFlagBitOn

; 1767 : 
; 1768 : 		menu->SetItemFlagBitOff(MID_DELETE_UNIT,C_BIT_INVISIBLE);

	push	8192					; 00002000H
	push	18204					; 0000471cH
	mov	ecx, DWORD PTR _menu$[ebp]
	call	?SetItemFlagBitOff@C_PopupList@@QAEXJJ@Z ; C_PopupList::SetItemFlagBitOff

; 1769 : 		if(EditMode)

	cmp	DWORD PTR _EditMode, 0
	je	SHORT $LN8@SetupTacEn

; 1770 : 		{
; 1771 : 			menu->SetItemFlagBitOn(MID_DELETE_UNIT,C_BIT_ENABLED);

	push	2048					; 00000800H
	push	18204					; 0000471cH
	mov	ecx, DWORD PTR _menu$[ebp]
	call	?SetItemFlagBitOn@C_PopupList@@QAEXJJ@Z	; C_PopupList::SetItemFlagBitOn

; 1772 : 			menu->SetItemFlagBitOn(MID_ADD_VC,C_BIT_ENABLED);

	push	2048					; 00000800H
	push	86116					; 00015064H
	mov	ecx, DWORD PTR _menu$[ebp]
	call	?SetItemFlagBitOn@C_PopupList@@QAEXJJ@Z	; C_PopupList::SetItemFlagBitOn

; 1773 : 			menu->SetItemFlagBitOn(MID_SET_OWNER,C_BIT_ENABLED);

	push	2048					; 00000800H
	push	86117					; 00015065H
	mov	ecx, DWORD PTR _menu$[ebp]
	call	?SetItemFlagBitOn@C_PopupList@@QAEXJJ@Z	; C_PopupList::SetItemFlagBitOn

; 1774 : 			menu->SetItemFlagBitOff(MID_ADD_BATTALION,C_BIT_INVISIBLE);

	push	8192					; 00002000H
	push	86113					; 00015061H
	mov	ecx, DWORD PTR _menu$[ebp]
	call	?SetItemFlagBitOff@C_PopupList@@QAEXJJ@Z ; C_PopupList::SetItemFlagBitOff

; 1775 : 		}
; 1776 : 		else

	jmp	SHORT $LN9@SetupTacEn
$LN8@SetupTacEn:

; 1777 : 		{
; 1778 : 			menu->SetItemFlagBitOff(MID_DELETE_UNIT,C_BIT_ENABLED);

	push	2048					; 00000800H
	push	18204					; 0000471cH
	mov	ecx, DWORD PTR _menu$[ebp]
	call	?SetItemFlagBitOff@C_PopupList@@QAEXJJ@Z ; C_PopupList::SetItemFlagBitOff

; 1779 : 			menu->SetItemFlagBitOff(MID_ADD_VC,C_BIT_ENABLED);

	push	2048					; 00000800H
	push	86116					; 00015064H
	mov	ecx, DWORD PTR _menu$[ebp]
	call	?SetItemFlagBitOff@C_PopupList@@QAEXJJ@Z ; C_PopupList::SetItemFlagBitOff

; 1780 : 			menu->SetItemFlagBitOff(MID_SET_OWNER,C_BIT_ENABLED);

	push	2048					; 00000800H
	push	86117					; 00015065H
	mov	ecx, DWORD PTR _menu$[ebp]
	call	?SetItemFlagBitOff@C_PopupList@@QAEXJJ@Z ; C_PopupList::SetItemFlagBitOff

; 1781 : 			menu->SetItemFlagBitOn(MID_ADD_BATTALION,C_BIT_INVISIBLE);

	push	8192					; 00002000H
	push	86113					; 00015061H
	mov	ecx, DWORD PTR _menu$[ebp]
	call	?SetItemFlagBitOn@C_PopupList@@QAEXJJ@Z	; C_PopupList::SetItemFlagBitOn
$LN9@SetupTacEn:

; 1782 : 		}
; 1783 : 	}
; 1784 : 
; 1785 : 	// Package Menu
; 1786 : 	menu=gPopupMgr->GetMenu(PACKAGE_POP);

	push	18348					; 000047acH
	mov	ecx, DWORD PTR ?gPopupMgr@@3PAVC_PopupMgr@@A ; gPopupMgr
	call	?GetMenu@C_PopupMgr@@QAEPAVC_PopupList@@J@Z ; C_PopupMgr::GetMenu
	mov	DWORD PTR _menu$[ebp], eax

; 1787 : 	if(menu)

	cmp	DWORD PTR _menu$[ebp], 0
	je	SHORT $LN6@SetupTacEn

; 1788 : 	{
; 1789 : 		menu->SetItemFlagBitOff(MID_DELETE_UNIT,C_BIT_INVISIBLE);

	push	8192					; 00002000H
	push	18204					; 0000471cH
	mov	ecx, DWORD PTR _menu$[ebp]
	call	?SetItemFlagBitOff@C_PopupList@@QAEXJJ@Z ; C_PopupList::SetItemFlagBitOff

; 1790 : 		if(EditMode)

	cmp	DWORD PTR _EditMode, 0
	je	SHORT $LN5@SetupTacEn

; 1791 : 			menu->SetItemFlagBitOn(MID_DELETE_UNIT,C_BIT_ENABLED);

	push	2048					; 00000800H
	push	18204					; 0000471cH
	mov	ecx, DWORD PTR _menu$[ebp]
	call	?SetItemFlagBitOn@C_PopupList@@QAEXJJ@Z	; C_PopupList::SetItemFlagBitOn

; 1792 : 		else

	jmp	SHORT $LN6@SetupTacEn
$LN5@SetupTacEn:

; 1793 : 			menu->SetItemFlagBitOff(MID_DELETE_UNIT,C_BIT_ENABLED);

	push	2048					; 00000800H
	push	18204					; 0000471cH
	mov	ecx, DWORD PTR _menu$[ebp]
	call	?SetItemFlagBitOff@C_PopupList@@QAEXJJ@Z ; C_PopupList::SetItemFlagBitOff
$LN6@SetupTacEn:

; 1794 : 	}
; 1795 : 
; 1796 : 	// VC Menu
; 1797 : 	menu=gPopupMgr->GetMenu(VC_POP);

	push	18350					; 000047aeH
	mov	ecx, DWORD PTR ?gPopupMgr@@3PAVC_PopupMgr@@A ; gPopupMgr
	call	?GetMenu@C_PopupMgr@@QAEPAVC_PopupList@@J@Z ; C_PopupMgr::GetMenu
	mov	DWORD PTR _menu$[ebp], eax

; 1798 : 	if(menu)

	cmp	DWORD PTR _menu$[ebp], 0
	je	SHORT $LN20@SetupTacEn

; 1799 : 	{
; 1800 : 		if(EditMode)

	cmp	DWORD PTR _EditMode, 0
	je	SHORT $LN2@SetupTacEn

; 1801 : 		{
; 1802 : 			menu->SetItemFlagBitOn(MID_DELETE_UNIT,C_BIT_ENABLED);

	push	2048					; 00000800H
	push	18204					; 0000471cH
	mov	ecx, DWORD PTR _menu$[ebp]
	call	?SetItemFlagBitOn@C_PopupList@@QAEXJJ@Z	; C_PopupList::SetItemFlagBitOn

; 1803 : 			menu->SetItemFlagBitOn(MID_SET_OWNER,C_BIT_ENABLED);

	push	2048					; 00000800H
	push	86117					; 00015065H
	mov	ecx, DWORD PTR _menu$[ebp]
	call	?SetItemFlagBitOn@C_PopupList@@QAEXJJ@Z	; C_PopupList::SetItemFlagBitOn

; 1804 : 		}
; 1805 : 		else

	jmp	SHORT $LN20@SetupTacEn
$LN2@SetupTacEn:

; 1806 : 		{
; 1807 : 			menu->SetItemFlagBitOff(MID_DELETE_UNIT,C_BIT_ENABLED);

	push	2048					; 00000800H
	push	18204					; 0000471cH
	mov	ecx, DWORD PTR _menu$[ebp]
	call	?SetItemFlagBitOff@C_PopupList@@QAEXJJ@Z ; C_PopupList::SetItemFlagBitOff

; 1808 : 			menu->SetItemFlagBitOff(MID_SET_OWNER,C_BIT_ENABLED);

	push	2048					; 00000800H
	push	86117					; 00015065H
	mov	ecx, DWORD PTR _menu$[ebp]
	call	?SetItemFlagBitOff@C_PopupList@@QAEXJJ@Z ; C_PopupList::SetItemFlagBitOff
$LN20@SetupTacEn:

; 1809 : 		}
; 1810 : 	}
; 1811 : }

	mov	esp, ebp
	pop	ebp
	ret	0
?SetupTacEngMenus@@YAXF@Z ENDP				; SetupTacEngMenus
_TEXT	ENDS
; Function compile flags: /Odtp
; File c:\users\zhitao li\documents\visual studio 2012\projects\freefalcon\ui\src\campaign\campmenu.cpp
_TEXT	SEGMENT
_menu$ = -4						; size = 4
?SetupCampaignMenus@@YAXXZ PROC				; SetupCampaignMenus

; 1589 : {

	push	ebp
	mov	ebp, esp
	push	ecx

; 1590 : 	C_PopupList *menu;
; 1591 : 
; 1592 : 	GameType=1;

	mov	DWORD PTR _GameType, 1

; 1593 : 	EditMode=0;

	mov	DWORD PTR _EditMode, 0

; 1594 : 	// Map Menu
; 1595 : 	menu=gPopupMgr->GetMenu(MAP_POP);

	push	86000					; 00014ff0H
	mov	ecx, DWORD PTR ?gPopupMgr@@3PAVC_PopupMgr@@A ; gPopupMgr
	call	?GetMenu@C_PopupMgr@@QAEPAVC_PopupList@@J@Z ; C_PopupMgr::GetMenu
	mov	DWORD PTR _menu$[ebp], eax

; 1596 : 	if(menu)

	cmp	DWORD PTR _menu$[ebp], 0
	je	SHORT $LN6@SetupCampa

; 1597 : 	{
; 1598 : 		menu->SetItemFlagBitOn(MID_ADD_FLIGHT,C_BIT_INVISIBLE);

	push	8192					; 00002000H
	push	40083					; 00009c93H
	mov	ecx, DWORD PTR _menu$[ebp]
	call	?SetItemFlagBitOn@C_PopupList@@QAEXJJ@Z	; C_PopupList::SetItemFlagBitOn

; 1599 : 		// sfr: add package
; 1600 : 		//menu->SetItemFlagBitOn(MID_ADD_PACKAGE,C_BIT_INVISIBLE);
; 1601 : 		menu->SetItemFlagBitOn(MID_ADD_BATTALION,C_BIT_INVISIBLE);

	push	8192					; 00002000H
	push	86113					; 00015061H
	mov	ecx, DWORD PTR _menu$[ebp]
	call	?SetItemFlagBitOn@C_PopupList@@QAEXJJ@Z	; C_PopupList::SetItemFlagBitOn

; 1602 : 		menu->SetItemFlagBitOn(MID_SHOW_VC,C_BIT_INVISIBLE);

	push	8192					; 00002000H
	push	40085					; 00009c95H
	mov	ecx, DWORD PTR _menu$[ebp]
	call	?SetItemFlagBitOn@C_PopupList@@QAEXJJ@Z	; C_PopupList::SetItemFlagBitOn
$LN6@SetupCampa:

; 1603 : 	}
; 1604 : 
; 1605 : 	// Objective Menu
; 1606 : 	menu=gPopupMgr->GetMenu(OBJECTIVE_POP);

	push	18199					; 00004717H
	mov	ecx, DWORD PTR ?gPopupMgr@@3PAVC_PopupMgr@@A ; gPopupMgr
	call	?GetMenu@C_PopupMgr@@QAEPAVC_PopupList@@J@Z ; C_PopupMgr::GetMenu
	mov	DWORD PTR _menu$[ebp], eax

; 1607 : 	if(menu)

	cmp	DWORD PTR _menu$[ebp], 0
	je	SHORT $LN5@SetupCampa

; 1608 : 	{
; 1609 : 		menu->SetItemFlagBitOn(MID_ADD_FLIGHT,C_BIT_INVISIBLE);

	push	8192					; 00002000H
	push	40083					; 00009c93H
	mov	ecx, DWORD PTR _menu$[ebp]
	call	?SetItemFlagBitOn@C_PopupList@@QAEXJJ@Z	; C_PopupList::SetItemFlagBitOn

; 1610 : 		menu->SetItemFlagBitOn(MID_ADD_PACKAGE,C_BIT_INVISIBLE);

	push	8192					; 00002000H
	push	86112					; 00015060H
	mov	ecx, DWORD PTR _menu$[ebp]
	call	?SetItemFlagBitOn@C_PopupList@@QAEXJJ@Z	; C_PopupList::SetItemFlagBitOn

; 1611 : 		menu->SetItemFlagBitOn(MID_ADD_BATTALION,C_BIT_INVISIBLE);

	push	8192					; 00002000H
	push	86113					; 00015061H
	mov	ecx, DWORD PTR _menu$[ebp]
	call	?SetItemFlagBitOn@C_PopupList@@QAEXJJ@Z	; C_PopupList::SetItemFlagBitOn

; 1612 : 		menu->SetItemFlagBitOn(MID_ADD_VC,C_BIT_INVISIBLE);

	push	8192					; 00002000H
	push	86116					; 00015064H
	mov	ecx, DWORD PTR _menu$[ebp]
	call	?SetItemFlagBitOn@C_PopupList@@QAEXJJ@Z	; C_PopupList::SetItemFlagBitOn

; 1613 : 		menu->SetItemFlagBitOn(MID_SET_OWNER,C_BIT_INVISIBLE);

	push	8192					; 00002000H
	push	86117					; 00015065H
	mov	ecx, DWORD PTR _menu$[ebp]
	call	?SetItemFlagBitOn@C_PopupList@@QAEXJJ@Z	; C_PopupList::SetItemFlagBitOn

; 1614 : 		menu->SetItemFlagBitOn(MID_SQUADRONS,C_BIT_INVISIBLE);

	push	8192					; 00002000H
	push	86118					; 00015066H
	mov	ecx, DWORD PTR _menu$[ebp]
	call	?SetItemFlagBitOn@C_PopupList@@QAEXJJ@Z	; C_PopupList::SetItemFlagBitOn
$LN5@SetupCampa:

; 1615 : 	}
; 1616 : 
; 1617 : 	// Unit Menu
; 1618 : 	menu=gPopupMgr->GetMenu(UNIT_POP);

	push	18200					; 00004718H
	mov	ecx, DWORD PTR ?gPopupMgr@@3PAVC_PopupMgr@@A ; gPopupMgr
	call	?GetMenu@C_PopupMgr@@QAEPAVC_PopupList@@J@Z ; C_PopupMgr::GetMenu
	mov	DWORD PTR _menu$[ebp], eax

; 1619 : 	if(menu)

	cmp	DWORD PTR _menu$[ebp], 0
	je	SHORT $LN4@SetupCampa

; 1620 : 	{
; 1621 : 		menu->SetItemFlagBitOn(MID_DELETE_UNIT,C_BIT_INVISIBLE);

	push	8192					; 00002000H
	push	18204					; 0000471cH
	mov	ecx, DWORD PTR _menu$[ebp]
	call	?SetItemFlagBitOn@C_PopupList@@QAEXJJ@Z	; C_PopupList::SetItemFlagBitOn

; 1622 : 		menu->SetItemFlagBitOn(MID_ADD_FLIGHT,C_BIT_INVISIBLE);

	push	8192					; 00002000H
	push	40083					; 00009c93H
	mov	ecx, DWORD PTR _menu$[ebp]
	call	?SetItemFlagBitOn@C_PopupList@@QAEXJJ@Z	; C_PopupList::SetItemFlagBitOn

; 1623 : 		menu->SetItemFlagBitOn(MID_ADD_PACKAGE,C_BIT_INVISIBLE);

	push	8192					; 00002000H
	push	86112					; 00015060H
	mov	ecx, DWORD PTR _menu$[ebp]
	call	?SetItemFlagBitOn@C_PopupList@@QAEXJJ@Z	; C_PopupList::SetItemFlagBitOn

; 1624 : 		menu->SetItemFlagBitOn(MID_ADD_BATTALION,C_BIT_INVISIBLE);

	push	8192					; 00002000H
	push	86113					; 00015061H
	mov	ecx, DWORD PTR _menu$[ebp]
	call	?SetItemFlagBitOn@C_PopupList@@QAEXJJ@Z	; C_PopupList::SetItemFlagBitOn

; 1625 : 		menu->SetItemFlagBitOn(MID_ADD_VC,C_BIT_INVISIBLE);

	push	8192					; 00002000H
	push	86116					; 00015064H
	mov	ecx, DWORD PTR _menu$[ebp]
	call	?SetItemFlagBitOn@C_PopupList@@QAEXJJ@Z	; C_PopupList::SetItemFlagBitOn

; 1626 : 		menu->SetItemFlagBitOn(MID_SET_OWNER,C_BIT_INVISIBLE);

	push	8192					; 00002000H
	push	86117					; 00015065H
	mov	ecx, DWORD PTR _menu$[ebp]
	call	?SetItemFlagBitOn@C_PopupList@@QAEXJJ@Z	; C_PopupList::SetItemFlagBitOn
$LN4@SetupCampa:

; 1627 : 	}
; 1628 : 
; 1629 : 	// Unit Menu
; 1630 : 	menu=gPopupMgr->GetMenu(NAVAL_POP);

	push	18197					; 00004715H
	mov	ecx, DWORD PTR ?gPopupMgr@@3PAVC_PopupMgr@@A ; gPopupMgr
	call	?GetMenu@C_PopupMgr@@QAEPAVC_PopupList@@J@Z ; C_PopupMgr::GetMenu
	mov	DWORD PTR _menu$[ebp], eax

; 1631 : 	if(menu)

	cmp	DWORD PTR _menu$[ebp], 0
	je	SHORT $LN3@SetupCampa

; 1632 : 	{
; 1633 : 		menu->SetItemFlagBitOn(MID_DELETE_UNIT,C_BIT_INVISIBLE);

	push	8192					; 00002000H
	push	18204					; 0000471cH
	mov	ecx, DWORD PTR _menu$[ebp]
	call	?SetItemFlagBitOn@C_PopupList@@QAEXJJ@Z	; C_PopupList::SetItemFlagBitOn

; 1634 : 		menu->SetItemFlagBitOn(MID_ADD_FLIGHT,C_BIT_INVISIBLE);

	push	8192					; 00002000H
	push	40083					; 00009c93H
	mov	ecx, DWORD PTR _menu$[ebp]
	call	?SetItemFlagBitOn@C_PopupList@@QAEXJJ@Z	; C_PopupList::SetItemFlagBitOn

; 1635 : 		menu->SetItemFlagBitOn(MID_ADD_PACKAGE,C_BIT_INVISIBLE);

	push	8192					; 00002000H
	push	86112					; 00015060H
	mov	ecx, DWORD PTR _menu$[ebp]
	call	?SetItemFlagBitOn@C_PopupList@@QAEXJJ@Z	; C_PopupList::SetItemFlagBitOn

; 1636 : 		menu->SetItemFlagBitOn(MID_ADD_BATTALION,C_BIT_INVISIBLE);

	push	8192					; 00002000H
	push	86113					; 00015061H
	mov	ecx, DWORD PTR _menu$[ebp]
	call	?SetItemFlagBitOn@C_PopupList@@QAEXJJ@Z	; C_PopupList::SetItemFlagBitOn

; 1637 : 		menu->SetItemFlagBitOn(MID_ADD_VC,C_BIT_INVISIBLE);

	push	8192					; 00002000H
	push	86116					; 00015064H
	mov	ecx, DWORD PTR _menu$[ebp]
	call	?SetItemFlagBitOn@C_PopupList@@QAEXJJ@Z	; C_PopupList::SetItemFlagBitOn

; 1638 : 		menu->SetItemFlagBitOn(MID_SET_OWNER,C_BIT_INVISIBLE);

	push	8192					; 00002000H
	push	86117					; 00015065H
	mov	ecx, DWORD PTR _menu$[ebp]
	call	?SetItemFlagBitOn@C_PopupList@@QAEXJJ@Z	; C_PopupList::SetItemFlagBitOn
$LN3@SetupCampa:

; 1639 : 	}
; 1640 : 
; 1641 : 	// Unit Menu
; 1642 : 	menu=gPopupMgr->GetMenu(AIRUNIT_MENU);

	push	18710					; 00004916H
	mov	ecx, DWORD PTR ?gPopupMgr@@3PAVC_PopupMgr@@A ; gPopupMgr
	call	?GetMenu@C_PopupMgr@@QAEPAVC_PopupList@@J@Z ; C_PopupMgr::GetMenu
	mov	DWORD PTR _menu$[ebp], eax

; 1643 : 	if(menu)

	cmp	DWORD PTR _menu$[ebp], 0
	je	SHORT $LN2@SetupCampa

; 1644 : 	{
; 1645 : 		menu->SetItemFlagBitOn(MID_DELETE_UNIT,C_BIT_INVISIBLE);

	push	8192					; 00002000H
	push	18204					; 0000471cH
	mov	ecx, DWORD PTR _menu$[ebp]
	call	?SetItemFlagBitOn@C_PopupList@@QAEXJJ@Z	; C_PopupList::SetItemFlagBitOn

; 1646 : 		menu->SetItemFlagBitOn(MID_ADD_FLIGHT,C_BIT_INVISIBLE);

	push	8192					; 00002000H
	push	40083					; 00009c93H
	mov	ecx, DWORD PTR _menu$[ebp]
	call	?SetItemFlagBitOn@C_PopupList@@QAEXJJ@Z	; C_PopupList::SetItemFlagBitOn

; 1647 : 		menu->SetItemFlagBitOn(MID_ADD_PACKAGE,C_BIT_INVISIBLE);

	push	8192					; 00002000H
	push	86112					; 00015060H
	mov	ecx, DWORD PTR _menu$[ebp]
	call	?SetItemFlagBitOn@C_PopupList@@QAEXJJ@Z	; C_PopupList::SetItemFlagBitOn

; 1648 : 		menu->SetItemFlagBitOn(MID_ADD_VC,C_BIT_INVISIBLE);

	push	8192					; 00002000H
	push	86116					; 00015064H
	mov	ecx, DWORD PTR _menu$[ebp]
	call	?SetItemFlagBitOn@C_PopupList@@QAEXJJ@Z	; C_PopupList::SetItemFlagBitOn

; 1649 : 		menu->SetItemFlagBitOn(MID_SET_OWNER,C_BIT_INVISIBLE);

	push	8192					; 00002000H
	push	86117					; 00015065H
	mov	ecx, DWORD PTR _menu$[ebp]
	call	?SetItemFlagBitOn@C_PopupList@@QAEXJJ@Z	; C_PopupList::SetItemFlagBitOn
$LN2@SetupCampa:

; 1650 : 	}
; 1651 : 
; 1652 : 	// Package Menu
; 1653 : 	menu=gPopupMgr->GetMenu(PACKAGE_POP);

	push	18348					; 000047acH
	mov	ecx, DWORD PTR ?gPopupMgr@@3PAVC_PopupMgr@@A ; gPopupMgr
	call	?GetMenu@C_PopupMgr@@QAEPAVC_PopupList@@J@Z ; C_PopupMgr::GetMenu
	mov	DWORD PTR _menu$[ebp], eax

; 1654 : 	if(menu)

	cmp	DWORD PTR _menu$[ebp], 0
	je	SHORT $LN7@SetupCampa

; 1655 : 	{
; 1656 : 		menu->SetItemFlagBitOn(MID_DELETE_UNIT,C_BIT_INVISIBLE);

	push	8192					; 00002000H
	push	18204					; 0000471cH
	mov	ecx, DWORD PTR _menu$[ebp]
	call	?SetItemFlagBitOn@C_PopupList@@QAEXJJ@Z	; C_PopupList::SetItemFlagBitOn
$LN7@SetupCampa:

; 1657 : 	}
; 1658 : 
; 1659 : }

	mov	esp, ebp
	pop	ebp
	ret	0
?SetupCampaignMenus@@YAXXZ ENDP				; SetupCampaignMenus
_TEXT	ENDS
; Function compile flags: /Odtp
; File c:\users\zhitao li\documents\visual studio 2012\projects\freefalcon\ui\src\campaign\campmenu.cpp
_TEXT	SEGMENT
_menu$ = -4						; size = 4
?SetMapSettings@@YAXXZ PROC				; SetMapSettings

; 1442 : {

	push	ebp
	mov	ebp, esp
	push	ecx

; 1443 : 	C_PopupList *menu;
; 1444 : 
; 1445 : 	menu=gPopupMgr->GetMenu(MAP_POP);

	push	86000					; 00014ff0H
	mov	ecx, DWORD PTR ?gPopupMgr@@3PAVC_PopupMgr@@A ; gPopupMgr
	call	?GetMenu@C_PopupMgr@@QAEPAVC_PopupList@@J@Z ; C_PopupMgr::GetMenu
	mov	DWORD PTR _menu$[ebp], eax

; 1446 : 
; 1447 : // following block Retro 26/10/03 - re-inits the map filters
; 1448 : 	{	// trying to keep the namespace scope down..
; 1449 : 		// works as following.. if a filter was set before the map screen was destructed, the corresponding
; 1450 : 		// variable in the array should be TRUE.. I then make the UI code believe the filter is checked in the UI so
; 1451 : 		// that the 'show this item' code is executed.
; 1452 : 		// the normal, original UI init code follows after this block.
; 1453 : 	using namespace FilterSaveStuff;
; 1454 : 
; 1455 : 	// Legend stuff
; 1456 : 	if (filterState[LE_BULLSEYE])

	mov	eax, 1
	imul	eax, 0
	movzx	ecx, BYTE PTR ?filterState@FilterSaveStuff@@3PA_NA[eax]
	test	ecx, ecx
	je	SHORT $LN37@SetMapSett

; 1457 : 		menu->SetItemState(MID_LEG_BULLSEYE,1);

	push	1
	push	86124					; 0001506cH
	mov	ecx, DWORD PTR _menu$[ebp]
	call	?SetItemState@C_PopupList@@QAEXJF@Z	; C_PopupList::SetItemState
$LN37@SetMapSett:

; 1458 : 	if (filterState[LE_LABELS])

	mov	edx, 1
	shl	edx, 0
	movzx	eax, BYTE PTR ?filterState@FilterSaveStuff@@3PA_NA[edx]
	test	eax, eax
	je	SHORT $LN36@SetMapSett

; 1459 : 		menu->SetItemState(MID_LEG_NAMES,1);

	push	1
	push	86010					; 00014ffaH
	mov	ecx, DWORD PTR _menu$[ebp]
	call	?SetItemState@C_PopupList@@QAEXJF@Z	; C_PopupList::SetItemState
$LN36@SetMapSett:

; 1460 : 
; 1461 : 	// Objectives
; 1462 : 	if (filterState[OBJ_AIRFIELDS])

	mov	ecx, 1
	shl	ecx, 1
	movzx	edx, BYTE PTR ?filterState@FilterSaveStuff@@3PA_NA[ecx]
	test	edx, edx
	je	SHORT $LN35@SetMapSett

; 1463 : 		menu->SetItemState(MID_INST_AF,1);

	push	1
	push	86019					; 00015003H
	mov	ecx, DWORD PTR _menu$[ebp]
	call	?SetItemState@C_PopupList@@QAEXJF@Z	; C_PopupList::SetItemState
$LN35@SetMapSett:

; 1464 : 	if (filterState[OBJ_AIRDEFENSE])

	mov	eax, 1
	imul	eax, 3
	movzx	ecx, BYTE PTR ?filterState@FilterSaveStuff@@3PA_NA[eax]
	test	ecx, ecx
	je	SHORT $LN34@SetMapSett

; 1465 : 		menu->SetItemState(MID_INST_AD,1);

	push	1
	push	86020					; 00015004H
	mov	ecx, DWORD PTR _menu$[ebp]
	call	?SetItemState@C_PopupList@@QAEXJF@Z	; C_PopupList::SetItemState
$LN34@SetMapSett:

; 1466 : 	if (filterState[OBJ_ARMY])

	mov	edx, 1
	shl	edx, 2
	movzx	eax, BYTE PTR ?filterState@FilterSaveStuff@@3PA_NA[edx]
	test	eax, eax
	je	SHORT $LN33@SetMapSett

; 1467 : 		menu->SetItemState(MID_INST_ARMY,1);

	push	1
	push	86021					; 00015005H
	mov	ecx, DWORD PTR _menu$[ebp]
	call	?SetItemState@C_PopupList@@QAEXJF@Z	; C_PopupList::SetItemState
$LN33@SetMapSett:

; 1468 : 	if (filterState[OBJ_CCC])

	mov	ecx, 1
	imul	ecx, 5
	movzx	edx, BYTE PTR ?filterState@FilterSaveStuff@@3PA_NA[ecx]
	test	edx, edx
	je	SHORT $LN32@SetMapSett

; 1469 : 		menu->SetItemState(MID_INST_CCC,1);

	push	1
	push	86022					; 00015006H
	mov	ecx, DWORD PTR _menu$[ebp]
	call	?SetItemState@C_PopupList@@QAEXJF@Z	; C_PopupList::SetItemState
$LN32@SetMapSett:

; 1470 : 	if (filterState[OBJ_POLITICAL])

	mov	eax, 1
	imul	eax, 6
	movzx	ecx, BYTE PTR ?filterState@FilterSaveStuff@@3PA_NA[eax]
	test	ecx, ecx
	je	SHORT $LN31@SetMapSett

; 1471 : 		menu->SetItemState(MID_INST_POLITICAL,1);

	push	1
	push	86023					; 00015007H
	mov	ecx, DWORD PTR _menu$[ebp]
	call	?SetItemState@C_PopupList@@QAEXJF@Z	; C_PopupList::SetItemState
$LN31@SetMapSett:

; 1472 : 	if (filterState[OBJ_INFRA])

	mov	edx, 1
	imul	edx, 7
	movzx	eax, BYTE PTR ?filterState@FilterSaveStuff@@3PA_NA[edx]
	test	eax, eax
	je	SHORT $LN30@SetMapSett

; 1473 : 		menu->SetItemState(MID_INST_INFRA,1);

	push	1
	push	86024					; 00015008H
	mov	ecx, DWORD PTR _menu$[ebp]
	call	?SetItemState@C_PopupList@@QAEXJF@Z	; C_PopupList::SetItemState
$LN30@SetMapSett:

; 1474 : 	if (filterState[OBJ_LOGISTICS])

	mov	ecx, 1
	shl	ecx, 3
	movzx	edx, BYTE PTR ?filterState@FilterSaveStuff@@3PA_NA[ecx]
	test	edx, edx
	je	SHORT $LN29@SetMapSett

; 1475 : 		menu->SetItemState(MID_INST_LOG,1);

	push	1
	push	86025					; 00015009H
	mov	ecx, DWORD PTR _menu$[ebp]
	call	?SetItemState@C_PopupList@@QAEXJF@Z	; C_PopupList::SetItemState
$LN29@SetMapSett:

; 1476 : 	if (filterState[OBJ_WARPRODUCTION])

	mov	eax, 1
	imul	eax, 9
	movzx	ecx, BYTE PTR ?filterState@FilterSaveStuff@@3PA_NA[eax]
	test	ecx, ecx
	je	SHORT $LN28@SetMapSett

; 1477 : 		menu->SetItemState(MID_INST_WARPROD,1);

	push	1
	push	86026					; 0001500aH
	mov	ecx, DWORD PTR _menu$[ebp]
	call	?SetItemState@C_PopupList@@QAEXJF@Z	; C_PopupList::SetItemState
$LN28@SetMapSett:

; 1478 : 	if (filterState[OBJ_NAVIGATION])

	mov	edx, 1
	imul	edx, 10					; 0000000aH
	movzx	eax, BYTE PTR ?filterState@FilterSaveStuff@@3PA_NA[edx]
	test	eax, eax
	je	SHORT $LN27@SetMapSett

; 1479 : 		menu->SetItemState(MID_INST_NAV,1);

	push	1
	push	86027					; 0001500bH
	mov	ecx, DWORD PTR _menu$[ebp]
	call	?SetItemState@C_PopupList@@QAEXJF@Z	; C_PopupList::SetItemState
$LN27@SetMapSett:

; 1480 : 	if (filterState[OBJ_OTHER])

	mov	ecx, 1
	imul	ecx, 11					; 0000000bH
	movzx	edx, BYTE PTR ?filterState@FilterSaveStuff@@3PA_NA[ecx]
	test	edx, edx
	je	SHORT $LN26@SetMapSett

; 1481 : 		menu->SetItemState(MID_INST_OTHER,1);

	push	1
	push	86028					; 0001500cH
	mov	ecx, DWORD PTR _menu$[ebp]
	call	?SetItemState@C_PopupList@@QAEXJF@Z	; C_PopupList::SetItemState
$LN26@SetMapSett:

; 1482 : 	if (filterState[OBJ_NAVAL])

	mov	eax, 1
	imul	eax, 12					; 0000000cH
	movzx	ecx, BYTE PTR ?filterState@FilterSaveStuff@@3PA_NA[eax]
	test	ecx, ecx
	je	SHORT $LN25@SetMapSett

; 1483 : 		menu->SetItemState(MID_INST_NAVAL,1);

	push	1
	push	86029					; 0001500dH
	mov	ecx, DWORD PTR _menu$[ebp]
	call	?SetItemState@C_PopupList@@QAEXJF@Z	; C_PopupList::SetItemState
$LN25@SetMapSett:

; 1484 : 	if (filterState[OBJ_VICTORYCOND])

	mov	edx, 1
	imul	edx, 13					; 0000000dH
	movzx	eax, BYTE PTR ?filterState@FilterSaveStuff@@3PA_NA[edx]
	test	eax, eax
	je	SHORT $LN24@SetMapSett

; 1485 : 		menu->SetItemState(MID_SHOW_VC,1);

	push	1
	push	40085					; 00009c95H
	mov	ecx, DWORD PTR _menu$[ebp]
	call	?SetItemState@C_PopupList@@QAEXJF@Z	; C_PopupList::SetItemState
$LN24@SetMapSett:

; 1486 : 
; 1487 : 	// Units
; 1488 : 
; 1489 : #if 0	// screwy, doesnt work yet
; 1490 : 	/* this is a radio box so only 1 of the 3 may be active */
; 1491 : 	if (filterState[UNITS_DIV])
; 1492 : 		menu->SetItemState(MID_UNITS_DIV,1);
; 1493 : 	else if (filterState[UNITS_BRIG])
; 1494 : 		menu->SetItemState(MID_UNITS_BRIG,1);
; 1495 : 	else if (filterState[UNITS_BAT])
; 1496 : 		menu->SetItemState(MID_UNITS_BAT,1);
; 1497 : #endif
; 1498 : 
; 1499 : 	if (filterState[UNITS_COMBAT])

	mov	ecx, 1
	imul	ecx, 17					; 00000011H
	movzx	edx, BYTE PTR ?filterState@FilterSaveStuff@@3PA_NA[ecx]
	test	edx, edx
	je	SHORT $LN23@SetMapSett

; 1500 : 		menu->SetItemState(MID_UNITS_COMBAT,1);

	push	1
	push	86033					; 00015011H
	mov	ecx, DWORD PTR _menu$[ebp]
	call	?SetItemState@C_PopupList@@QAEXJF@Z	; C_PopupList::SetItemState
$LN23@SetMapSett:

; 1501 : 	if (filterState[UNITS_AIR_DEFENSE])

	mov	eax, 1
	imul	eax, 18					; 00000012H
	movzx	ecx, BYTE PTR ?filterState@FilterSaveStuff@@3PA_NA[eax]
	test	ecx, ecx
	je	SHORT $LN22@SetMapSett

; 1502 : 		menu->SetItemState(MID_UNITS_AD,1);

	push	1
	push	86034					; 00015012H
	mov	ecx, DWORD PTR _menu$[ebp]
	call	?SetItemState@C_PopupList@@QAEXJF@Z	; C_PopupList::SetItemState
$LN22@SetMapSett:

; 1503 : 	if (filterState[UNITS_SUPPORT])

	mov	edx, 1
	imul	edx, 19					; 00000013H
	movzx	eax, BYTE PTR ?filterState@FilterSaveStuff@@3PA_NA[edx]
	test	eax, eax
	je	SHORT $LN21@SetMapSett

; 1504 : 		menu->SetItemState(MID_UNITS_SUPPORT,1);

	push	1
	push	86035					; 00015013H
	mov	ecx, DWORD PTR _menu$[ebp]
	call	?SetItemState@C_PopupList@@QAEXJF@Z	; C_PopupList::SetItemState
$LN21@SetMapSett:

; 1505 : 	if (filterState[UNITS_SQUAD_SQUADRON])

	mov	ecx, 1
	imul	ecx, 20					; 00000014H
	movzx	edx, BYTE PTR ?filterState@FilterSaveStuff@@3PA_NA[ecx]
	test	edx, edx
	je	SHORT $LN20@SetMapSett

; 1506 : 		menu->SetItemState(MID_UNITS_SQUAD_SQUADRON,1);

	push	1
	push	86049					; 00015021H
	mov	ecx, DWORD PTR _menu$[ebp]
	call	?SetItemState@C_PopupList@@QAEXJF@Z	; C_PopupList::SetItemState
$LN20@SetMapSett:

; 1507 : 	if (filterState[UNITS_SQUAD_PACKAGE])

	mov	eax, 1
	imul	eax, 21					; 00000015H
	movzx	ecx, BYTE PTR ?filterState@FilterSaveStuff@@3PA_NA[eax]
	test	ecx, ecx
	je	SHORT $LN19@SetMapSett

; 1508 : 		menu->SetItemState(MID_UNITS_SQUAD_PACKAGE,1);

	push	1
	push	86050					; 00015022H
	mov	ecx, DWORD PTR _menu$[ebp]
	call	?SetItemState@C_PopupList@@QAEXJF@Z	; C_PopupList::SetItemState
$LN19@SetMapSett:

; 1509 : 	if (filterState[UNITS_SQUAD_FIGHTER])

	mov	edx, 1
	imul	edx, 22					; 00000016H
	movzx	eax, BYTE PTR ?filterState@FilterSaveStuff@@3PA_NA[edx]
	test	eax, eax
	je	SHORT $LN18@SetMapSett

; 1510 : 		menu->SetItemState(MID_UNITS_SQUAD_FIGHTER,1);

	push	1
	push	86037					; 00015015H
	mov	ecx, DWORD PTR _menu$[ebp]
	call	?SetItemState@C_PopupList@@QAEXJF@Z	; C_PopupList::SetItemState
$LN18@SetMapSett:

; 1511 : 	if (filterState[UNITS_SQUAD_ATTACK])

	mov	ecx, 1
	imul	ecx, 23					; 00000017H
	movzx	edx, BYTE PTR ?filterState@FilterSaveStuff@@3PA_NA[ecx]
	test	edx, edx
	je	SHORT $LN17@SetMapSett

; 1512 : 		menu->SetItemState(MID_UNITS_SQUAD_ATTACK,1);

	push	1
	push	86039					; 00015017H
	mov	ecx, DWORD PTR _menu$[ebp]
	call	?SetItemState@C_PopupList@@QAEXJF@Z	; C_PopupList::SetItemState
$LN17@SetMapSett:

; 1513 : 	if (filterState[UNITS_SQUAD_BOMBER])

	mov	eax, 1
	imul	eax, 24					; 00000018H
	movzx	ecx, BYTE PTR ?filterState@FilterSaveStuff@@3PA_NA[eax]
	test	ecx, ecx
	je	SHORT $LN16@SetMapSett

; 1514 : 		menu->SetItemState(MID_UNITS_SQUAD_BOMBER,1);

	push	1
	push	86040					; 00015018H
	mov	ecx, DWORD PTR _menu$[ebp]
	call	?SetItemState@C_PopupList@@QAEXJF@Z	; C_PopupList::SetItemState
$LN16@SetMapSett:

; 1515 : 	if (filterState[UNITS_SQUAD_SUPPORT])

	mov	edx, 1
	imul	edx, 25					; 00000019H
	movzx	eax, BYTE PTR ?filterState@FilterSaveStuff@@3PA_NA[edx]
	test	eax, eax
	je	SHORT $LN15@SetMapSett

; 1516 : 		menu->SetItemState(MID_UNITS_SQUAD_SUPPORT,1);

	push	1
	push	86041					; 00015019H
	mov	ecx, DWORD PTR _menu$[ebp]
	call	?SetItemState@C_PopupList@@QAEXJF@Z	; C_PopupList::SetItemState
$LN15@SetMapSett:

; 1517 : 	if (filterState[UNITS_HELICOPTER])

	mov	ecx, 1
	imul	ecx, 26					; 0000001aH
	movzx	edx, BYTE PTR ?filterState@FilterSaveStuff@@3PA_NA[ecx]
	test	edx, edx
	je	SHORT $LN14@SetMapSett

; 1518 : 		menu->SetItemState(MID_UNITS_SQUAD_HELI,1);

	push	1
	push	86042					; 0001501aH
	mov	ecx, DWORD PTR _menu$[ebp]
	call	?SetItemState@C_PopupList@@QAEXJF@Z	; C_PopupList::SetItemState
$LN14@SetMapSett:

; 1519 : 	if (filterState[UNITS_NAVY_COMBAT])

	mov	eax, 1
	imul	eax, 28					; 0000001cH
	movzx	ecx, BYTE PTR ?filterState@FilterSaveStuff@@3PA_NA[eax]
	test	ecx, ecx
	je	SHORT $LN13@SetMapSett

; 1520 : 		menu->SetItemState(MID_UNITS_NAVY_COMBAT,1);

	push	1
	push	86043					; 0001501bH
	mov	ecx, DWORD PTR _menu$[ebp]
	call	?SetItemState@C_PopupList@@QAEXJF@Z	; C_PopupList::SetItemState
$LN13@SetMapSett:

; 1521 : 	if (filterState[UNITS_NAVY_SUPPORT])

	mov	edx, 1
	imul	edx, 29					; 0000001dH
	movzx	eax, BYTE PTR ?filterState@FilterSaveStuff@@3PA_NA[edx]
	test	eax, eax
	je	SHORT $LN12@SetMapSett

; 1522 : 		menu->SetItemState(MID_UNITS_NAVY_SUPPLY,1);

	push	1
	push	86044					; 0001501cH
	mov	ecx, DWORD PTR _menu$[ebp]
	call	?SetItemState@C_PopupList@@QAEXJF@Z	; C_PopupList::SetItemState
$LN12@SetMapSett:

; 1523 : 
; 1524 : 	/* not saved yet - WTF is this anyway ? */
; 1525 : //	if (filterState[UNITS_SQUAD_FIGHTBOMB])
; 1526 : //		menu->SetItemState(MID_UNITS_SQUAD_FIGHTBOMB,1);
; 1527 : 	
; 1528 : 	if (g_nUnidentifiedInUI)

	cmp	DWORD PTR ?g_nUnidentifiedInUI@@3HA, 0	; g_nUnidentifiedInUI
	je	SHORT $LN11@SetMapSett

; 1529 : 		if (filterState[UNITS_SQUAD_UNKNOWN])

	mov	ecx, 1
	imul	ecx, 27					; 0000001bH
	movzx	edx, BYTE PTR ?filterState@FilterSaveStuff@@3PA_NA[ecx]
	test	edx, edx
	je	SHORT $LN11@SetMapSett

; 1530 : 			menu->SetItemState(MID_UNITS_SQUAD_UNKNOWN,1);

	push	1
	push	86051					; 00015023H
	mov	ecx, DWORD PTR _menu$[ebp]
	call	?SetItemState@C_PopupList@@QAEXJF@Z	; C_PopupList::SetItemState
$LN11@SetMapSett:

; 1531 : 
; 1532 : 	// Sams/Radar
; 1533 : 	if (filterState[CIRCLE_SAM_LOW])

	mov	eax, 1
	imul	eax, 30					; 0000001eH
	movzx	ecx, BYTE PTR ?filterState@FilterSaveStuff@@3PA_NA[eax]
	test	ecx, ecx
	je	SHORT $LN9@SetMapSett

; 1534 : 		menu->SetItemState(MID_CIRCLE_SAM_LOW,1);

	push	1
	push	86045					; 0001501dH
	mov	ecx, DWORD PTR _menu$[ebp]
	call	?SetItemState@C_PopupList@@QAEXJF@Z	; C_PopupList::SetItemState
	jmp	SHORT $LN8@SetMapSett
$LN9@SetMapSett:

; 1535 : 	else if (filterState[CIRCLE_SAM_HIGH])

	mov	edx, 1
	imul	edx, 31					; 0000001fH
	movzx	eax, BYTE PTR ?filterState@FilterSaveStuff@@3PA_NA[edx]
	test	eax, eax
	je	SHORT $LN7@SetMapSett

; 1536 : 		menu->SetItemState(MID_CIRCLE_SAM_HIGH,1);

	push	1
	push	86046					; 0001501eH
	mov	ecx, DWORD PTR _menu$[ebp]
	call	?SetItemState@C_PopupList@@QAEXJF@Z	; C_PopupList::SetItemState
	jmp	SHORT $LN8@SetMapSett
$LN7@SetMapSett:

; 1537 : 	else if (filterState[CIRCLE_RADAR_LOW])

	mov	ecx, 1
	shl	ecx, 5
	movzx	edx, BYTE PTR ?filterState@FilterSaveStuff@@3PA_NA[ecx]
	test	edx, edx
	je	SHORT $LN5@SetMapSett

; 1538 : 		menu->SetItemState(MID_CIRCLE_RADAR_LOW,1);

	push	1
	push	86047					; 0001501fH
	mov	ecx, DWORD PTR _menu$[ebp]
	call	?SetItemState@C_PopupList@@QAEXJF@Z	; C_PopupList::SetItemState
	jmp	SHORT $LN8@SetMapSett
$LN5@SetMapSett:

; 1539 : 	else if (filterState[CIRCLE_RADAR_HIGH])

	mov	eax, 1
	imul	eax, 33					; 00000021H
	movzx	ecx, BYTE PTR ?filterState@FilterSaveStuff@@3PA_NA[eax]
	test	ecx, ecx
	je	SHORT $LN8@SetMapSett

; 1540 : 		menu->SetItemState(MID_CIRCLE_RADAR_HIGH,1);

	push	1
	push	86048					; 00015020H
	mov	ecx, DWORD PTR _menu$[ebp]
	call	?SetItemState@C_PopupList@@QAEXJF@Z	; C_PopupList::SetItemState
$LN8@SetMapSett:

; 1541 : 
; 1542 : 	}	// namespace-scope ends here, Retro 26/10/03 ends here
; 1543 : 
; 1544 : 	if(menu)

	cmp	DWORD PTR _menu$[ebp], 0
	je	$LN38@SetMapSett

; 1545 : 	{
; 1546 : 		// Legend stuff
; 1547 : 		MenuToggleNamesCB(MID_LEG_NAMES,C_TYPE_LMOUSEUP,menu);

	mov	edx, DWORD PTR _menu$[ebp]
	push	edx
	push	52					; 00000034H
	push	86010					; 00014ffaH
	call	?MenuToggleNamesCB@@YAXJFPAVC_Base@@@Z	; MenuToggleNamesCB
	add	esp, 12					; 0000000cH

; 1548 : 		MenuToggleBullseyeCB(MID_LEG_BULLSEYE,C_TYPE_LMOUSEUP,menu);

	mov	eax, DWORD PTR _menu$[ebp]
	push	eax
	push	52					; 00000034H
	push	86124					; 0001506cH
	call	?MenuToggleBullseyeCB@@YAXJFPAVC_Base@@@Z ; MenuToggleBullseyeCB
	add	esp, 12					; 0000000cH

; 1549 : 
; 1550 : 		// Objectives
; 1551 : 		MenuToggleObjectiveCB(MID_INST_AF,C_TYPE_LMOUSEUP,menu);

	mov	ecx, DWORD PTR _menu$[ebp]
	push	ecx
	push	52					; 00000034H
	push	86019					; 00015003H
	call	?MenuToggleObjectiveCB@@YAXJFPAVC_Base@@@Z ; MenuToggleObjectiveCB
	add	esp, 12					; 0000000cH

; 1552 : 		MenuToggleObjectiveCB(MID_INST_AD,C_TYPE_LMOUSEUP,menu);

	mov	edx, DWORD PTR _menu$[ebp]
	push	edx
	push	52					; 00000034H
	push	86020					; 00015004H
	call	?MenuToggleObjectiveCB@@YAXJFPAVC_Base@@@Z ; MenuToggleObjectiveCB
	add	esp, 12					; 0000000cH

; 1553 : 		MenuToggleObjectiveCB(MID_INST_ARMY,C_TYPE_LMOUSEUP,menu);

	mov	eax, DWORD PTR _menu$[ebp]
	push	eax
	push	52					; 00000034H
	push	86021					; 00015005H
	call	?MenuToggleObjectiveCB@@YAXJFPAVC_Base@@@Z ; MenuToggleObjectiveCB
	add	esp, 12					; 0000000cH

; 1554 : 		MenuToggleObjectiveCB(MID_INST_CCC,C_TYPE_LMOUSEUP,menu);

	mov	ecx, DWORD PTR _menu$[ebp]
	push	ecx
	push	52					; 00000034H
	push	86022					; 00015006H
	call	?MenuToggleObjectiveCB@@YAXJFPAVC_Base@@@Z ; MenuToggleObjectiveCB
	add	esp, 12					; 0000000cH

; 1555 : 		MenuToggleObjectiveCB(MID_INST_POLITICAL,C_TYPE_LMOUSEUP,menu);

	mov	edx, DWORD PTR _menu$[ebp]
	push	edx
	push	52					; 00000034H
	push	86023					; 00015007H
	call	?MenuToggleObjectiveCB@@YAXJFPAVC_Base@@@Z ; MenuToggleObjectiveCB
	add	esp, 12					; 0000000cH

; 1556 : 		MenuToggleObjectiveCB(MID_INST_INFRA,C_TYPE_LMOUSEUP,menu);

	mov	eax, DWORD PTR _menu$[ebp]
	push	eax
	push	52					; 00000034H
	push	86024					; 00015008H
	call	?MenuToggleObjectiveCB@@YAXJFPAVC_Base@@@Z ; MenuToggleObjectiveCB
	add	esp, 12					; 0000000cH

; 1557 : 		MenuToggleObjectiveCB(MID_INST_LOG,C_TYPE_LMOUSEUP,menu);

	mov	ecx, DWORD PTR _menu$[ebp]
	push	ecx
	push	52					; 00000034H
	push	86025					; 00015009H
	call	?MenuToggleObjectiveCB@@YAXJFPAVC_Base@@@Z ; MenuToggleObjectiveCB
	add	esp, 12					; 0000000cH

; 1558 : 		MenuToggleObjectiveCB(MID_INST_WARPROD,C_TYPE_LMOUSEUP,menu);

	mov	edx, DWORD PTR _menu$[ebp]
	push	edx
	push	52					; 00000034H
	push	86026					; 0001500aH
	call	?MenuToggleObjectiveCB@@YAXJFPAVC_Base@@@Z ; MenuToggleObjectiveCB
	add	esp, 12					; 0000000cH

; 1559 : 		MenuToggleObjectiveCB(MID_INST_NAV,C_TYPE_LMOUSEUP,menu);

	mov	eax, DWORD PTR _menu$[ebp]
	push	eax
	push	52					; 00000034H
	push	86027					; 0001500bH
	call	?MenuToggleObjectiveCB@@YAXJFPAVC_Base@@@Z ; MenuToggleObjectiveCB
	add	esp, 12					; 0000000cH

; 1560 : 		MenuToggleObjectiveCB(MID_INST_OTHER,C_TYPE_LMOUSEUP,menu);

	mov	ecx, DWORD PTR _menu$[ebp]
	push	ecx
	push	52					; 00000034H
	push	86028					; 0001500cH
	call	?MenuToggleObjectiveCB@@YAXJFPAVC_Base@@@Z ; MenuToggleObjectiveCB
	add	esp, 12					; 0000000cH

; 1561 : 		MenuToggleObjectiveCB(MID_INST_NAVAL,C_TYPE_LMOUSEUP,menu);

	mov	edx, DWORD PTR _menu$[ebp]
	push	edx
	push	52					; 00000034H
	push	86029					; 0001500dH
	call	?MenuToggleObjectiveCB@@YAXJFPAVC_Base@@@Z ; MenuToggleObjectiveCB
	add	esp, 12					; 0000000cH

; 1562 : 		MenuToggleObjectiveCB(MID_SHOW_VC,C_TYPE_LMOUSEUP,menu);

	mov	eax, DWORD PTR _menu$[ebp]
	push	eax
	push	52					; 00000034H
	push	40085					; 00009c95H
	call	?MenuToggleObjectiveCB@@YAXJFPAVC_Base@@@Z ; MenuToggleObjectiveCB
	add	esp, 12					; 0000000cH

; 1563 : 
; 1564 : 		// Units
; 1565 : 		MenuToggleUnitCB(MID_UNITS_SQUAD_SQUADRON,C_TYPE_LMOUSEUP,menu);

	mov	ecx, DWORD PTR _menu$[ebp]
	push	ecx
	push	52					; 00000034H
	push	86049					; 00015021H
	call	?MenuToggleUnitCB@@YAXJFPAVC_Base@@@Z	; MenuToggleUnitCB
	add	esp, 12					; 0000000cH

; 1566 : 		MenuToggleUnitCB(MID_UNITS_SQUAD_PACKAGE,C_TYPE_LMOUSEUP,menu);

	mov	edx, DWORD PTR _menu$[ebp]
	push	edx
	push	52					; 00000034H
	push	86050					; 00015022H
	call	?MenuToggleUnitCB@@YAXJFPAVC_Base@@@Z	; MenuToggleUnitCB
	add	esp, 12					; 0000000cH

; 1567 : 		MenuToggleUnitCB(MID_UNITS_DIV,C_TYPE_LMOUSEUP,menu);

	mov	eax, DWORD PTR _menu$[ebp]
	push	eax
	push	52					; 00000034H
	push	86030					; 0001500eH
	call	?MenuToggleUnitCB@@YAXJFPAVC_Base@@@Z	; MenuToggleUnitCB
	add	esp, 12					; 0000000cH

; 1568 : 		MenuToggleUnitCB(MID_UNITS_BRIG,C_TYPE_LMOUSEUP,menu);

	mov	ecx, DWORD PTR _menu$[ebp]
	push	ecx
	push	52					; 00000034H
	push	86031					; 0001500fH
	call	?MenuToggleUnitCB@@YAXJFPAVC_Base@@@Z	; MenuToggleUnitCB
	add	esp, 12					; 0000000cH

; 1569 : 		MenuToggleUnitCB(MID_UNITS_BAT,C_TYPE_LMOUSEUP,menu);

	mov	edx, DWORD PTR _menu$[ebp]
	push	edx
	push	52					; 00000034H
	push	86032					; 00015010H
	call	?MenuToggleUnitCB@@YAXJFPAVC_Base@@@Z	; MenuToggleUnitCB
	add	esp, 12					; 0000000cH

; 1570 : 		MenuToggleUnitCB(MID_UNITS_COMBAT,C_TYPE_LMOUSEUP,menu);

	mov	eax, DWORD PTR _menu$[ebp]
	push	eax
	push	52					; 00000034H
	push	86033					; 00015011H
	call	?MenuToggleUnitCB@@YAXJFPAVC_Base@@@Z	; MenuToggleUnitCB
	add	esp, 12					; 0000000cH

; 1571 : 		MenuToggleUnitCB(MID_UNITS_AD,C_TYPE_LMOUSEUP,menu);

	mov	ecx, DWORD PTR _menu$[ebp]
	push	ecx
	push	52					; 00000034H
	push	86034					; 00015012H
	call	?MenuToggleUnitCB@@YAXJFPAVC_Base@@@Z	; MenuToggleUnitCB
	add	esp, 12					; 0000000cH

; 1572 : 		MenuToggleUnitCB(MID_UNITS_SUPPORT,C_TYPE_LMOUSEUP,menu);

	mov	edx, DWORD PTR _menu$[ebp]
	push	edx
	push	52					; 00000034H
	push	86035					; 00015013H
	call	?MenuToggleUnitCB@@YAXJFPAVC_Base@@@Z	; MenuToggleUnitCB
	add	esp, 12					; 0000000cH

; 1573 : 		MenuToggleUnitCB(MID_UNITS_SQUAD_FIGHTER,C_TYPE_LMOUSEUP,menu);

	mov	eax, DWORD PTR _menu$[ebp]
	push	eax
	push	52					; 00000034H
	push	86037					; 00015015H
	call	?MenuToggleUnitCB@@YAXJFPAVC_Base@@@Z	; MenuToggleUnitCB
	add	esp, 12					; 0000000cH

; 1574 : 		MenuToggleUnitCB(MID_UNITS_SQUAD_FIGHTBOMB,C_TYPE_LMOUSEUP,menu);

	mov	ecx, DWORD PTR _menu$[ebp]
	push	ecx
	push	52					; 00000034H
	push	86038					; 00015016H
	call	?MenuToggleUnitCB@@YAXJFPAVC_Base@@@Z	; MenuToggleUnitCB
	add	esp, 12					; 0000000cH

; 1575 : 		MenuToggleUnitCB(MID_UNITS_SQUAD_ATTACK,C_TYPE_LMOUSEUP,menu);

	mov	edx, DWORD PTR _menu$[ebp]
	push	edx
	push	52					; 00000034H
	push	86039					; 00015017H
	call	?MenuToggleUnitCB@@YAXJFPAVC_Base@@@Z	; MenuToggleUnitCB
	add	esp, 12					; 0000000cH

; 1576 : 		MenuToggleUnitCB(MID_UNITS_SQUAD_BOMBER,C_TYPE_LMOUSEUP,menu);

	mov	eax, DWORD PTR _menu$[ebp]
	push	eax
	push	52					; 00000034H
	push	86040					; 00015018H
	call	?MenuToggleUnitCB@@YAXJFPAVC_Base@@@Z	; MenuToggleUnitCB
	add	esp, 12					; 0000000cH

; 1577 : 		MenuToggleUnitCB(MID_UNITS_SQUAD_SUPPORT,C_TYPE_LMOUSEUP,menu);

	mov	ecx, DWORD PTR _menu$[ebp]
	push	ecx
	push	52					; 00000034H
	push	86041					; 00015019H
	call	?MenuToggleUnitCB@@YAXJFPAVC_Base@@@Z	; MenuToggleUnitCB
	add	esp, 12					; 0000000cH

; 1578 : 		MenuToggleUnitCB(MID_UNITS_SQUAD_HELI,C_TYPE_LMOUSEUP,menu);

	mov	edx, DWORD PTR _menu$[ebp]
	push	edx
	push	52					; 00000034H
	push	86042					; 0001501aH
	call	?MenuToggleUnitCB@@YAXJFPAVC_Base@@@Z	; MenuToggleUnitCB
	add	esp, 12					; 0000000cH

; 1579 : 		if (g_nUnidentifiedInUI) MenuToggleUnitCB(MID_UNITS_SQUAD_UNKNOWN,C_TYPE_LMOUSEUP,menu); // 2002-02-21 ADDED BY S.G. For 'Unknown' type of flight

	cmp	DWORD PTR ?g_nUnidentifiedInUI@@3HA, 0	; g_nUnidentifiedInUI
	je	SHORT $LN1@SetMapSett
	mov	eax, DWORD PTR _menu$[ebp]
	push	eax
	push	52					; 00000034H
	push	86051					; 00015023H
	call	?MenuToggleUnitCB@@YAXJFPAVC_Base@@@Z	; MenuToggleUnitCB
	add	esp, 12					; 0000000cH
$LN1@SetMapSett:

; 1580 : 		MenuToggleUnitCB(MID_UNITS_NAVY_COMBAT,C_TYPE_LMOUSEUP,menu);

	mov	ecx, DWORD PTR _menu$[ebp]
	push	ecx
	push	52					; 00000034H
	push	86043					; 0001501bH
	call	?MenuToggleUnitCB@@YAXJFPAVC_Base@@@Z	; MenuToggleUnitCB
	add	esp, 12					; 0000000cH

; 1581 : 		MenuToggleUnitCB(MID_UNITS_NAVY_SUPPLY,C_TYPE_LMOUSEUP,menu);

	mov	edx, DWORD PTR _menu$[ebp]
	push	edx
	push	52					; 00000034H
	push	86044					; 0001501cH
	call	?MenuToggleUnitCB@@YAXJFPAVC_Base@@@Z	; MenuToggleUnitCB
	add	esp, 12					; 0000000cH

; 1582 : 
; 1583 : 		// Sams/Radar
; 1584 : 		MenuSetCirclesCB(MID_OFF,C_TYPE_LMOUSEUP,menu);

	mov	eax, DWORD PTR _menu$[ebp]
	push	eax
	push	52					; 00000034H
	push	86100					; 00015054H
	call	?MenuSetCirclesCB@@YAXJFPAVC_Base@@@Z	; MenuSetCirclesCB
	add	esp, 12					; 0000000cH
$LN38@SetMapSett:

; 1585 : 	}
; 1586 : }	

	mov	esp, ebp
	pop	ebp
	ret	0
?SetMapSettings@@YAXXZ ENDP				; SetMapSettings
_TEXT	ENDS
; Function compile flags: /Odtp
; File c:\users\zhitao li\documents\visual studio 2012\projects\freefalcon\ui\src\campaign\campmenu.cpp
_TEXT	SEGMENT
$T1 = -36						; size = 8
_tree$ = -28						; size = 4
_piggy$ = -24						; size = 4
_icon$ = -20						; size = 4
_item$ = -16						; size = 4
_iconid$ = -12						; size = 4
_urec$ = -8						; size = 4
_caller$ = -4						; size = 4
___formal$ = 8						; size = 4
___formal$ = 12						; size = 2
___formal$ = 16						; size = 4
?MenuAddVCCB@@YAXJFPAVC_Base@@@Z PROC			; MenuAddVCCB

; 1390 : {

	push	ebp
	mov	ebp, esp
	sub	esp, 36					; 00000024H

; 1391 : 	C_Base *caller;
; 1392 : 	C_MapIcon *icon;
; 1393 : 	C_DrawList *piggy;
; 1394 : 	C_TreeList *tree;
; 1395 : 	long iconid;
; 1396 : 	TREELIST *item;
; 1397 : 	UI_Refresher *urec;
; 1398 : 	
; 1399 : 	urec = NULL;

	mov	DWORD PTR _urec$[ebp], 0

; 1400 : 
; 1401 : 	caller = gPopupMgr->GetCallingControl ();

	mov	ecx, DWORD PTR ?gPopupMgr@@3PAVC_PopupMgr@@A ; gPopupMgr
	call	?GetCallingControl@C_PopupMgr@@QAEPAVC_Base@@XZ ; C_PopupMgr::GetCallingControl
	mov	DWORD PTR _caller$[ebp], eax

; 1402 : 
; 1403 : 	if(caller == NULL)

	cmp	DWORD PTR _caller$[ebp], 0
	jne	SHORT $LN7@MenuAddVCC

; 1404 : 	{
; 1405 : 		return;

	jmp	$LN8@MenuAddVCC
$LN7@MenuAddVCC:

; 1406 : 	}
; 1407 : 
; 1408 : 	if (caller->_GetCType_() == _CNTL_MAPICON_)

	mov	ecx, DWORD PTR _caller$[ebp]
	call	?_GetCType_@C_Base@@QAEFXZ		; C_Base::_GetCType_
	cwde
	cmp	eax, 16389				; 00004005H
	jne	SHORT $LN6@MenuAddVCC

; 1409 : 	{
; 1410 : 		icon = (C_MapIcon *) caller;

	mov	ecx, DWORD PTR _caller$[ebp]
	mov	DWORD PTR _icon$[ebp], ecx

; 1411 : 
; 1412 : 		iconid = icon->GetIconID ();

	mov	ecx, DWORD PTR _icon$[ebp]
	call	?GetIconID@C_MapIcon@@QAEJXZ		; C_MapIcon::GetIconID
	mov	DWORD PTR _iconid$[ebp], eax

; 1413 : 
; 1414 : 		urec = (UI_Refresher *) gGps->Find (iconid);

	mov	edx, DWORD PTR _iconid$[ebp]
	push	edx
	mov	ecx, DWORD PTR ?gGps@@3PAVGlobalPositioningSystem@@A ; gGps
	call	?Find@GlobalPositioningSystem@@QAEPAXJ@Z ; GlobalPositioningSystem::Find
	mov	DWORD PTR _urec$[ebp], eax
	jmp	SHORT $LN5@MenuAddVCC
$LN6@MenuAddVCC:

; 1415 : 	}
; 1416 : 	else if (caller->_GetCType_() == _CNTL_DRAWLIST_)

	mov	ecx, DWORD PTR _caller$[ebp]
	call	?_GetCType_@C_Base@@QAEFXZ		; C_Base::_GetCType_
	cwde
	cmp	eax, 16416				; 00004020H
	jne	SHORT $LN4@MenuAddVCC

; 1417 : 	{
; 1418 : 		piggy = (C_DrawList *) caller;

	mov	ecx, DWORD PTR _caller$[ebp]
	mov	DWORD PTR _piggy$[ebp], ecx

; 1419 : 
; 1420 : 		iconid = piggy->GetIconID ();

	mov	ecx, DWORD PTR _piggy$[ebp]
	call	?GetIconID@C_DrawList@@QAEJXZ		; C_DrawList::GetIconID
	mov	DWORD PTR _iconid$[ebp], eax

; 1421 : 
; 1422 : 		urec = (UI_Refresher *) gGps->Find (iconid);

	mov	edx, DWORD PTR _iconid$[ebp]
	push	edx
	mov	ecx, DWORD PTR ?gGps@@3PAVGlobalPositioningSystem@@A ; gGps
	call	?Find@GlobalPositioningSystem@@QAEPAXJ@Z ; GlobalPositioningSystem::Find
	mov	DWORD PTR _urec$[ebp], eax
	jmp	SHORT $LN5@MenuAddVCC
$LN4@MenuAddVCC:

; 1423 : 	}
; 1424 : 	else if (caller->_GetCType_() == _CNTL_TREELIST_)

	mov	ecx, DWORD PTR _caller$[ebp]
	call	?_GetCType_@C_Base@@QAEFXZ		; C_Base::_GetCType_
	cwde
	cmp	eax, 16397				; 0000400dH
	jne	SHORT $LN5@MenuAddVCC

; 1425 : 	{
; 1426 : 		tree = (C_TreeList *) caller;

	mov	ecx, DWORD PTR _caller$[ebp]
	mov	DWORD PTR _tree$[ebp], ecx

; 1427 : 
; 1428 : 		item = tree->GetLastItem ();

	mov	ecx, DWORD PTR _tree$[ebp]
	call	?GetLastItem@C_TreeList@@QAEPAVTREELIST@@XZ ; C_TreeList::GetLastItem
	mov	DWORD PTR _item$[ebp], eax

; 1429 : 
; 1430 : 		if (item)

	cmp	DWORD PTR _item$[ebp], 0
	je	SHORT $LN5@MenuAddVCC

; 1431 : 		{
; 1432 : 			urec = (UI_Refresher *) gGps->Find (item->ID_);

	mov	edx, DWORD PTR _item$[ebp]
	mov	eax, DWORD PTR [edx]
	push	eax
	mov	ecx, DWORD PTR ?gGps@@3PAVGlobalPositioningSystem@@A ; gGps
	call	?Find@GlobalPositioningSystem@@QAEPAXJ@Z ; GlobalPositioningSystem::Find
	mov	DWORD PTR _urec$[ebp], eax
$LN5@MenuAddVCC:

; 1433 : 		}
; 1434 : 	}
; 1435 : 
; 1436 : 	tactical_add_victory_condition (urec->GetID (),NULL);

	push	0
	lea	ecx, DWORD PTR $T1[ebp]
	push	ecx
	mov	ecx, DWORD PTR _urec$[ebp]
	call	?GetID@UI_Refresher@@QAE?AVVU_ID@@XZ	; UI_Refresher::GetID
	mov	edx, DWORD PTR [eax+4]
	push	edx
	mov	eax, DWORD PTR [eax]
	push	eax
	call	?tactical_add_victory_condition@@YAXVVU_ID@@PAVC_Base@@@Z ; tactical_add_victory_condition
	add	esp, 12					; 0000000cH

; 1437 : 
; 1438 : 	gPopupMgr->CloseMenu ();

	mov	ecx, DWORD PTR ?gPopupMgr@@3PAVC_PopupMgr@@A ; gPopupMgr
	call	?CloseMenu@C_PopupMgr@@QAEXXZ		; C_PopupMgr::CloseMenu
$LN8@MenuAddVCC:

; 1439 : }

	mov	esp, ebp
	pop	ebp
	ret	0
?MenuAddVCCB@@YAXJFPAVC_Base@@@Z ENDP			; MenuAddVCCB
_TEXT	ENDS
; Function compile flags: /Odtp
; File c:\users\zhitao li\documents\visual studio 2012\projects\freefalcon\ui\src\campaign\campmenu.cpp
_TEXT	SEGMENT
$T1 = -64						; size = 8
$T2 = -56						; size = 8
$T3 = -48						; size = 8
_vid$ = -40						; size = 8
_tree$ = -32						; size = 4
_piggy$ = -28						; size = 4
_icon$ = -24						; size = 4
_item$ = -20						; size = 4
_iconid$ = -16						; size = 4
tv155 = -12						; size = 4
_caller$ = -8						; size = 4
_urec$ = -4						; size = 4
_ID$ = 8						; size = 4
___formal$ = 12						; size = 2
_control$ = 16						; size = 4
?MenuAddUnitCB@@YAXJFPAVC_Base@@@Z PROC			; MenuAddUnitCB

; 1327 : {

	push	ebp
	mov	ebp, esp
	sub	esp, 64					; 00000040H

; 1328 : 	C_Base			*caller;
; 1329 : 	C_MapIcon		*icon;
; 1330 : 	C_DrawList		*piggy;
; 1331 : 	C_TreeList		*tree;
; 1332 : 	long			iconid;
; 1333 : 	TREELIST		*item;
; 1334 : 	UI_Refresher	*urec;
; 1335 : 	VU_ID			vid = FalconNullId;

	mov	eax, DWORD PTR ?FalconNullId@@3VVU_ID@@A
	mov	DWORD PTR _vid$[ebp], eax
	mov	ecx, DWORD PTR ?FalconNullId@@3VVU_ID@@A+4
	mov	DWORD PTR _vid$[ebp+4], ecx

; 1336 : 	
; 1337 : 	urec = NULL;

	mov	DWORD PTR _urec$[ebp], 0

; 1338 : 	caller = gPopupMgr->GetCallingControl ();

	mov	ecx, DWORD PTR ?gPopupMgr@@3PAVC_PopupMgr@@A ; gPopupMgr
	call	?GetCallingControl@C_PopupMgr@@QAEPAVC_Base@@XZ ; C_PopupMgr::GetCallingControl
	mov	DWORD PTR _caller$[ebp], eax

; 1339 : 	if(!caller)

	cmp	DWORD PTR _caller$[ebp], 0
	jne	SHORT $LN16@MenuAddUni

; 1340 : 		return;

	jmp	$LN17@MenuAddUni
$LN16@MenuAddUni:

; 1341 : 
; 1342 : 	if (caller->_GetCType_() == _CNTL_MAPICON_)

	mov	ecx, DWORD PTR _caller$[ebp]
	call	?_GetCType_@C_Base@@QAEFXZ		; C_Base::_GetCType_
	movsx	edx, ax
	cmp	edx, 16389				; 00004005H
	jne	SHORT $LN15@MenuAddUni

; 1343 : 	{
; 1344 : 		icon = (C_MapIcon *) caller;

	mov	eax, DWORD PTR _caller$[ebp]
	mov	DWORD PTR _icon$[ebp], eax

; 1345 : 		iconid = icon->GetIconID ();

	mov	ecx, DWORD PTR _icon$[ebp]
	call	?GetIconID@C_MapIcon@@QAEJXZ		; C_MapIcon::GetIconID
	mov	DWORD PTR _iconid$[ebp], eax

; 1346 : 		urec = (UI_Refresher *) gGps->Find (iconid);

	mov	ecx, DWORD PTR _iconid$[ebp]
	push	ecx
	mov	ecx, DWORD PTR ?gGps@@3PAVGlobalPositioningSystem@@A ; gGps
	call	?Find@GlobalPositioningSystem@@QAEPAXJ@Z ; GlobalPositioningSystem::Find
	mov	DWORD PTR _urec$[ebp], eax

; 1347 : 		if (urec)

	cmp	DWORD PTR _urec$[ebp], 0
	je	SHORT $LN14@MenuAddUni

; 1348 : 			vid = urec->GetID();

	lea	edx, DWORD PTR $T3[ebp]
	push	edx
	mov	ecx, DWORD PTR _urec$[ebp]
	call	?GetID@UI_Refresher@@QAE?AVVU_ID@@XZ	; UI_Refresher::GetID
	mov	ecx, DWORD PTR [eax]
	mov	edx, DWORD PTR [eax+4]
	mov	DWORD PTR _vid$[ebp], ecx
	mov	DWORD PTR _vid$[ebp+4], edx
$LN14@MenuAddUni:

; 1349 : 	}

	jmp	$LN13@MenuAddUni
$LN15@MenuAddUni:

; 1350 : 	else if (caller->_GetCType_() == _CNTL_DRAWLIST_)

	mov	ecx, DWORD PTR _caller$[ebp]
	call	?_GetCType_@C_Base@@QAEFXZ		; C_Base::_GetCType_
	cwde
	cmp	eax, 16416				; 00004020H
	jne	SHORT $LN12@MenuAddUni

; 1351 : 	{
; 1352 : 		piggy = (C_DrawList *) caller;

	mov	ecx, DWORD PTR _caller$[ebp]
	mov	DWORD PTR _piggy$[ebp], ecx

; 1353 : 		iconid = piggy->GetIconID ();

	mov	ecx, DWORD PTR _piggy$[ebp]
	call	?GetIconID@C_DrawList@@QAEJXZ		; C_DrawList::GetIconID
	mov	DWORD PTR _iconid$[ebp], eax

; 1354 : 		urec = (UI_Refresher *) gGps->Find (iconid);

	mov	edx, DWORD PTR _iconid$[ebp]
	push	edx
	mov	ecx, DWORD PTR ?gGps@@3PAVGlobalPositioningSystem@@A ; gGps
	call	?Find@GlobalPositioningSystem@@QAEPAXJ@Z ; GlobalPositioningSystem::Find
	mov	DWORD PTR _urec$[ebp], eax

; 1355 : 		if (urec)

	cmp	DWORD PTR _urec$[ebp], 0
	je	SHORT $LN11@MenuAddUni

; 1356 : 			vid = urec->GetID();

	lea	eax, DWORD PTR $T2[ebp]
	push	eax
	mov	ecx, DWORD PTR _urec$[ebp]
	call	?GetID@UI_Refresher@@QAE?AVVU_ID@@XZ	; UI_Refresher::GetID
	mov	ecx, DWORD PTR [eax]
	mov	edx, DWORD PTR [eax+4]
	mov	DWORD PTR _vid$[ebp], ecx
	mov	DWORD PTR _vid$[ebp+4], edx
$LN11@MenuAddUni:

; 1357 : 	}

	jmp	SHORT $LN13@MenuAddUni
$LN12@MenuAddUni:

; 1358 : 	else if (caller->_GetCType_() == _CNTL_TREELIST_)

	mov	ecx, DWORD PTR _caller$[ebp]
	call	?_GetCType_@C_Base@@QAEFXZ		; C_Base::_GetCType_
	cwde
	cmp	eax, 16397				; 0000400dH
	jne	SHORT $LN13@MenuAddUni

; 1359 : 	{
; 1360 : 		tree = (C_TreeList *) caller;

	mov	ecx, DWORD PTR _caller$[ebp]
	mov	DWORD PTR _tree$[ebp], ecx

; 1361 : 		item = tree->GetLastItem ();

	mov	ecx, DWORD PTR _tree$[ebp]
	call	?GetLastItem@C_TreeList@@QAEPAVTREELIST@@XZ ; C_TreeList::GetLastItem
	mov	DWORD PTR _item$[ebp], eax

; 1362 : 		if (item)

	cmp	DWORD PTR _item$[ebp], 0
	je	SHORT $LN13@MenuAddUni

; 1363 : 			{
; 1364 : 			urec = (UI_Refresher *) gGps->Find (item->ID_);

	mov	edx, DWORD PTR _item$[ebp]
	mov	eax, DWORD PTR [edx]
	push	eax
	mov	ecx, DWORD PTR ?gGps@@3PAVGlobalPositioningSystem@@A ; gGps
	call	?Find@GlobalPositioningSystem@@QAEPAXJ@Z ; GlobalPositioningSystem::Find
	mov	DWORD PTR _urec$[ebp], eax

; 1365 : 			if (urec)

	cmp	DWORD PTR _urec$[ebp], 0
	je	SHORT $LN13@MenuAddUni

; 1366 : 				vid = urec->GetID();

	lea	ecx, DWORD PTR $T1[ebp]
	push	ecx
	mov	ecx, DWORD PTR _urec$[ebp]
	call	?GetID@UI_Refresher@@QAE?AVVU_ID@@XZ	; UI_Refresher::GetID
	mov	edx, DWORD PTR [eax]
	mov	eax, DWORD PTR [eax+4]
	mov	DWORD PTR _vid$[ebp], edx
	mov	DWORD PTR _vid$[ebp+4], eax
$LN13@MenuAddUni:

; 1367 : 			}
; 1368 : 	}
; 1369 : 
; 1370 : 	switch (ID)

	mov	ecx, DWORD PTR _ID$[ebp]
	mov	DWORD PTR tv155[ebp], ecx
	cmp	DWORD PTR tv155[ebp], 86112		; 00015060H
	jg	SHORT $LN19@MenuAddUni
	cmp	DWORD PTR tv155[ebp], 86112		; 00015060H
	je	SHORT $LN3@MenuAddUni
	cmp	DWORD PTR tv155[ebp], 18114		; 000046c2H
	je	SHORT $LN1@MenuAddUni
	cmp	DWORD PTR tv155[ebp], 40083		; 00009c93H
	je	SHORT $LN4@MenuAddUni
	jmp	SHORT $LN5@MenuAddUni
$LN19@MenuAddUni:
	cmp	DWORD PTR tv155[ebp], 86113		; 00015061H
	je	SHORT $LN2@MenuAddUni
	jmp	SHORT $LN5@MenuAddUni
$LN4@MenuAddUni:

; 1371 : 		{
; 1372 : 		case MID_ADD_FLIGHT:
; 1373 : 			tactical_add_flight (vid,control);

	mov	edx, DWORD PTR _control$[ebp]
	push	edx
	mov	eax, DWORD PTR _vid$[ebp+4]
	push	eax
	mov	ecx, DWORD PTR _vid$[ebp]
	push	ecx
	call	?tactical_add_flight@@YAXVVU_ID@@PAVC_Base@@@Z ; tactical_add_flight
	add	esp, 12					; 0000000cH

; 1374 : 			break;

	jmp	SHORT $LN5@MenuAddUni
$LN3@MenuAddUni:

; 1375 : 		case MID_ADD_PACKAGE:
; 1376 : 			tactical_add_package (vid,control);

	mov	edx, DWORD PTR _control$[ebp]
	push	edx
	mov	eax, DWORD PTR _vid$[ebp+4]
	push	eax
	mov	ecx, DWORD PTR _vid$[ebp]
	push	ecx
	call	?tactical_add_package@@YAXVVU_ID@@PAVC_Base@@@Z ; tactical_add_package
	add	esp, 12					; 0000000cH

; 1377 : 			break;

	jmp	SHORT $LN5@MenuAddUni
$LN2@MenuAddUni:

; 1378 : 		case MID_ADD_BATTALION:
; 1379 : 			tactical_add_battalion (vid,control);

	mov	edx, DWORD PTR _control$[ebp]
	push	edx
	mov	eax, DWORD PTR _vid$[ebp+4]
	push	eax
	mov	ecx, DWORD PTR _vid$[ebp]
	push	ecx
	call	?tactical_add_battalion@@YAXVVU_ID@@PAVC_Base@@@Z ; tactical_add_battalion
	add	esp, 12					; 0000000cH

; 1380 : 			break;

	jmp	SHORT $LN5@MenuAddUni
$LN1@MenuAddUni:

; 1381 : 		case MID_ADD_SQUADRON:
; 1382 : 			tactical_add_squadron (vid);

	mov	edx, DWORD PTR _vid$[ebp+4]
	push	edx
	mov	eax, DWORD PTR _vid$[ebp]
	push	eax
	call	?tactical_add_squadron@@YAXVVU_ID@@@Z	; tactical_add_squadron
	add	esp, 8
$LN5@MenuAddUni:

; 1383 : 			break;
; 1384 : 		}
; 1385 : 
; 1386 : 	gPopupMgr->CloseMenu ();

	mov	ecx, DWORD PTR ?gPopupMgr@@3PAVC_PopupMgr@@A ; gPopupMgr
	call	?CloseMenu@C_PopupMgr@@QAEXXZ		; C_PopupMgr::CloseMenu
$LN17@MenuAddUni:

; 1387 : }

	mov	esp, ebp
	pop	ebp
	ret	0
?MenuAddUnitCB@@YAXJFPAVC_Base@@@Z ENDP			; MenuAddUnitCB
_TEXT	ENDS
; Function compile flags: /Odtp
; File c:\users\zhitao li\documents\visual studio 2012\projects\freefalcon\ui\src\campaign\campmenu.cpp
_TEXT	SEGMENT
$T1 = -48						; size = 8
_tree$ = -40						; size = 4
_piggy$ = -36						; size = 4
_icon$ = -32						; size = 4
_item$ = -28						; size = 4
_ent$2 = -24						; size = 4
_iconid$ = -20						; size = 4
tv142 = -16						; size = 4
_urec$ = -12						; size = 4
_caller$ = -8						; size = 4
_teamid$3 = -4						; size = 2
_ID$ = 8						; size = 4
___formal$ = 12						; size = 2
___formal$ = 16						; size = 4
?MenuSetOwnerCB@@YAXJFPAVC_Base@@@Z PROC		; MenuSetOwnerCB

; 1245 : {

	push	ebp
	mov	ebp, esp
	sub	esp, 48					; 00000030H

; 1246 : 	C_Base *caller;
; 1247 : 	C_MapIcon *icon;
; 1248 : 	C_DrawList *piggy;
; 1249 : 	C_TreeList *tree;
; 1250 : 	long iconid;
; 1251 : 	TREELIST *item;
; 1252 : 	UI_Refresher *urec;
; 1253 : 	
; 1254 : 	urec = NULL;

	mov	DWORD PTR _urec$[ebp], 0

; 1255 : 
; 1256 : 	caller = gPopupMgr->GetCallingControl ();

	mov	ecx, DWORD PTR ?gPopupMgr@@3PAVC_PopupMgr@@A ; gPopupMgr
	call	?GetCallingControl@C_PopupMgr@@QAEPAVC_Base@@XZ ; C_PopupMgr::GetCallingControl
	mov	DWORD PTR _caller$[ebp], eax

; 1257 : 
; 1258 : 	if(caller == NULL)

	cmp	DWORD PTR _caller$[ebp], 0
	jne	SHORT $LN19@MenuSetOwn

; 1259 : 	{
; 1260 : 		return;

	jmp	$LN20@MenuSetOwn
$LN19@MenuSetOwn:

; 1261 : 	}
; 1262 : 
; 1263 : 	gPopupMgr->CloseMenu ();

	mov	ecx, DWORD PTR ?gPopupMgr@@3PAVC_PopupMgr@@A ; gPopupMgr
	call	?CloseMenu@C_PopupMgr@@QAEXXZ		; C_PopupMgr::CloseMenu

; 1264 : 
; 1265 : 	if (caller->_GetCType_() == _CNTL_MAPICON_)

	mov	ecx, DWORD PTR _caller$[ebp]
	call	?_GetCType_@C_Base@@QAEFXZ		; C_Base::_GetCType_
	cwde
	cmp	eax, 16389				; 00004005H
	jne	SHORT $LN18@MenuSetOwn

; 1266 : 	{
; 1267 : 		icon = (C_MapIcon *) caller;

	mov	ecx, DWORD PTR _caller$[ebp]
	mov	DWORD PTR _icon$[ebp], ecx

; 1268 : 		iconid = icon->GetIconID ();

	mov	ecx, DWORD PTR _icon$[ebp]
	call	?GetIconID@C_MapIcon@@QAEJXZ		; C_MapIcon::GetIconID
	mov	DWORD PTR _iconid$[ebp], eax

; 1269 : 		urec = (UI_Refresher *) gGps->Find (iconid);

	mov	edx, DWORD PTR _iconid$[ebp]
	push	edx
	mov	ecx, DWORD PTR ?gGps@@3PAVGlobalPositioningSystem@@A ; gGps
	call	?Find@GlobalPositioningSystem@@QAEPAXJ@Z ; GlobalPositioningSystem::Find
	mov	DWORD PTR _urec$[ebp], eax
	jmp	SHORT $LN17@MenuSetOwn
$LN18@MenuSetOwn:

; 1270 : 	}
; 1271 : 	else if (caller->_GetCType_() == _CNTL_DRAWLIST_)

	mov	ecx, DWORD PTR _caller$[ebp]
	call	?_GetCType_@C_Base@@QAEFXZ		; C_Base::_GetCType_
	cwde
	cmp	eax, 16416				; 00004020H
	jne	SHORT $LN16@MenuSetOwn

; 1272 : 	{
; 1273 : 		piggy = (C_DrawList *) caller;

	mov	ecx, DWORD PTR _caller$[ebp]
	mov	DWORD PTR _piggy$[ebp], ecx

; 1274 : 		iconid = piggy->GetIconID ();

	mov	ecx, DWORD PTR _piggy$[ebp]
	call	?GetIconID@C_DrawList@@QAEJXZ		; C_DrawList::GetIconID
	mov	DWORD PTR _iconid$[ebp], eax

; 1275 : 		urec = (UI_Refresher *) gGps->Find (iconid);

	mov	edx, DWORD PTR _iconid$[ebp]
	push	edx
	mov	ecx, DWORD PTR ?gGps@@3PAVGlobalPositioningSystem@@A ; gGps
	call	?Find@GlobalPositioningSystem@@QAEPAXJ@Z ; GlobalPositioningSystem::Find
	mov	DWORD PTR _urec$[ebp], eax
	jmp	SHORT $LN17@MenuSetOwn
$LN16@MenuSetOwn:

; 1276 : 	}
; 1277 : 	else if (caller->_GetCType_() == _CNTL_TREELIST_)

	mov	ecx, DWORD PTR _caller$[ebp]
	call	?_GetCType_@C_Base@@QAEFXZ		; C_Base::_GetCType_
	cwde
	cmp	eax, 16397				; 0000400dH
	jne	SHORT $LN17@MenuSetOwn

; 1278 : 	{
; 1279 : 		tree = (C_TreeList *) caller;

	mov	ecx, DWORD PTR _caller$[ebp]
	mov	DWORD PTR _tree$[ebp], ecx

; 1280 : 		item = tree->GetLastItem ();

	mov	ecx, DWORD PTR _tree$[ebp]
	call	?GetLastItem@C_TreeList@@QAEPAVTREELIST@@XZ ; C_TreeList::GetLastItem
	mov	DWORD PTR _item$[ebp], eax

; 1281 : 		if (item)

	cmp	DWORD PTR _item$[ebp], 0
	je	SHORT $LN17@MenuSetOwn

; 1282 : 		{
; 1283 : 			urec = (UI_Refresher *) gGps->Find (item->ID_);

	mov	edx, DWORD PTR _item$[ebp]
	mov	eax, DWORD PTR [edx]
	push	eax
	mov	ecx, DWORD PTR ?gGps@@3PAVGlobalPositioningSystem@@A ; gGps
	call	?Find@GlobalPositioningSystem@@QAEPAXJ@Z ; GlobalPositioningSystem::Find
	mov	DWORD PTR _urec$[ebp], eax
$LN17@MenuSetOwn:

; 1284 : 		}
; 1285 : 	}
; 1286 : 	if(urec)

	cmp	DWORD PTR _urec$[ebp], 0
	je	$LN20@MenuSetOwn

; 1287 : 	{
; 1288 : 		CampEntity ent;
; 1289 : 		short teamid=0;

	xor	ecx, ecx
	mov	WORD PTR _teamid$3[ebp], cx

; 1290 : 
; 1291 : 		switch(ID)

	mov	edx, DWORD PTR _ID$[ebp]
	mov	DWORD PTR tv142[ebp], edx
	mov	eax, DWORD PTR tv142[ebp]
	sub	eax, 18123				; 000046cbH
	mov	DWORD PTR tv142[ebp], eax
	cmp	DWORD PTR tv142[ebp], 6
	ja	SHORT $LN2@MenuSetOwn
	mov	ecx, DWORD PTR tv142[ebp]
	jmp	DWORD PTR $LN22@MenuSetOwn[ecx*4]
$LN9@MenuSetOwn:

; 1292 : 		{
; 1293 : 			case MID_TEAM_1:
; 1294 : 				teamid=1;

	mov	edx, 1
	mov	WORD PTR _teamid$3[ebp], dx

; 1295 : 				break;

	jmp	SHORT $LN10@MenuSetOwn
$LN8@MenuSetOwn:

; 1296 : 			case MID_TEAM_2:
; 1297 : 				teamid=2;

	mov	eax, 2
	mov	WORD PTR _teamid$3[ebp], ax

; 1298 : 				break;

	jmp	SHORT $LN10@MenuSetOwn
$LN7@MenuSetOwn:

; 1299 : 			case MID_TEAM_3:
; 1300 : 				teamid=3;

	mov	ecx, 3
	mov	WORD PTR _teamid$3[ebp], cx

; 1301 : 				break;

	jmp	SHORT $LN10@MenuSetOwn
$LN6@MenuSetOwn:

; 1302 : 			case MID_TEAM_4:
; 1303 : 				teamid=4;

	mov	edx, 4
	mov	WORD PTR _teamid$3[ebp], dx

; 1304 : 				break;

	jmp	SHORT $LN10@MenuSetOwn
$LN5@MenuSetOwn:

; 1305 : 			case MID_TEAM_5:
; 1306 : 				teamid=5;

	mov	eax, 5
	mov	WORD PTR _teamid$3[ebp], ax

; 1307 : 				break;

	jmp	SHORT $LN10@MenuSetOwn
$LN4@MenuSetOwn:

; 1308 : 			case MID_TEAM_6:
; 1309 : 				teamid=6;

	mov	ecx, 6
	mov	WORD PTR _teamid$3[ebp], cx

; 1310 : 				break;

	jmp	SHORT $LN10@MenuSetOwn
$LN3@MenuSetOwn:

; 1311 : 			case MID_TEAM_7:
; 1312 : 				teamid=7;

	mov	edx, 7
	mov	WORD PTR _teamid$3[ebp], dx

; 1313 : 				break;

	jmp	SHORT $LN10@MenuSetOwn
$LN2@MenuSetOwn:

; 1314 : 			default:
; 1315 : 				teamid=0;

	xor	eax, eax
	mov	WORD PTR _teamid$3[ebp], ax
$LN10@MenuSetOwn:

; 1316 : 				break;
; 1317 : 		}
; 1318 : 		ent=(CampEntity)vuDatabase->Find(urec->GetID());

	lea	ecx, DWORD PTR $T1[ebp]
	push	ecx
	mov	ecx, DWORD PTR _urec$[ebp]
	call	?GetID@UI_Refresher@@QAE?AVVU_ID@@XZ	; UI_Refresher::GetID
	mov	edx, DWORD PTR [eax+4]
	push	edx
	mov	eax, DWORD PTR [eax]
	push	eax
	mov	ecx, DWORD PTR ?vuDatabase@@3PAVVuDatabase@@A ; vuDatabase
	call	?Find@VuDatabase@@QBEPAVVuEntity@@VVU_ID@@@Z ; VuDatabase::Find
	mov	DWORD PTR _ent$2[ebp], eax

; 1319 : 		if(ent)

	cmp	DWORD PTR _ent$2[ebp], 0
	je	SHORT $LN20@MenuSetOwn

; 1320 : 		{
; 1321 : 			ent->SetOwner(static_cast<uchar>(teamid));

	movzx	ecx, BYTE PTR _teamid$3[ebp]
	push	ecx
	mov	edx, DWORD PTR _ent$2[ebp]
	mov	eax, DWORD PTR [edx]
	mov	ecx, DWORD PTR _ent$2[ebp]
	mov	edx, DWORD PTR [eax+320]
	call	edx
$LN20@MenuSetOwn:

; 1322 : 		}
; 1323 : 	}
; 1324 : }

	mov	esp, ebp
	pop	ebp
	ret	0
	npad	2
$LN22@MenuSetOwn:
	DD	$LN9@MenuSetOwn
	DD	$LN8@MenuSetOwn
	DD	$LN7@MenuSetOwn
	DD	$LN6@MenuSetOwn
	DD	$LN5@MenuSetOwn
	DD	$LN4@MenuSetOwn
	DD	$LN3@MenuSetOwn
?MenuSetOwnerCB@@YAXJFPAVC_Base@@@Z ENDP		; MenuSetOwnerCB
_TEXT	ENDS
; Function compile flags: /Odtp
; File c:\users\zhitao li\documents\visual studio 2012\projects\freefalcon\ui\src\campaign\campmenu.cpp
_TEXT	SEGMENT
$T1 = -36						; size = 8
_tree$ = -28						; size = 4
_piggy$ = -24						; size = 4
_icon$ = -20						; size = 4
_item$ = -16						; size = 4
_urec$ = -12						; size = 4
_iconid$ = -8						; size = 4
_caller$ = -4						; size = 4
___formal$ = 8						; size = 4
___formal$ = 12						; size = 2
_control$ = 16						; size = 4
?MenuEditPackageCB@@YAXJFPAVC_Base@@@Z PROC		; MenuEditPackageCB

; 1201 : {

	push	ebp
	mov	ebp, esp
	sub	esp, 36					; 00000024H

; 1202 : 	C_Base *caller;
; 1203 : 	C_MapIcon *icon;
; 1204 : 	C_DrawList *piggy;
; 1205 : 	C_TreeList *tree;
; 1206 : 	TREELIST *item;
; 1207 : 	long iconid=0;

	mov	DWORD PTR _iconid$[ebp], 0

; 1208 : 	UI_Refresher *urec=NULL;

	mov	DWORD PTR _urec$[ebp], 0

; 1209 : 
; 1210 : 	gPopupMgr->CloseMenu();

	mov	ecx, DWORD PTR ?gPopupMgr@@3PAVC_PopupMgr@@A ; gPopupMgr
	call	?CloseMenu@C_PopupMgr@@QAEXXZ		; C_PopupMgr::CloseMenu

; 1211 : 
; 1212 : 	caller=gPopupMgr->GetCallingControl();

	mov	ecx, DWORD PTR ?gPopupMgr@@3PAVC_PopupMgr@@A ; gPopupMgr
	call	?GetCallingControl@C_PopupMgr@@QAEPAVC_Base@@XZ ; C_PopupMgr::GetCallingControl
	mov	DWORD PTR _caller$[ebp], eax

; 1213 : 	if(caller == NULL)

	cmp	DWORD PTR _caller$[ebp], 0
	jne	SHORT $LN8@MenuEditPa

; 1214 : 		return;

	jmp	$LN9@MenuEditPa
$LN8@MenuEditPa:

; 1215 : 
; 1216 : 	if(caller->_GetCType_() == _CNTL_MAPICON_)

	mov	ecx, DWORD PTR _caller$[ebp]
	call	?_GetCType_@C_Base@@QAEFXZ		; C_Base::_GetCType_
	cwde
	cmp	eax, 16389				; 00004005H
	jne	SHORT $LN7@MenuEditPa

; 1217 : 	{
; 1218 : 		icon=(C_MapIcon *)caller;

	mov	ecx, DWORD PTR _caller$[ebp]
	mov	DWORD PTR _icon$[ebp], ecx

; 1219 : 		iconid=icon->GetIconID();

	mov	ecx, DWORD PTR _icon$[ebp]
	call	?GetIconID@C_MapIcon@@QAEJXZ		; C_MapIcon::GetIconID
	mov	DWORD PTR _iconid$[ebp], eax

; 1220 : 		urec=(UI_Refresher *)gGps->Find(iconid);

	mov	edx, DWORD PTR _iconid$[ebp]
	push	edx
	mov	ecx, DWORD PTR ?gGps@@3PAVGlobalPositioningSystem@@A ; gGps
	call	?Find@GlobalPositioningSystem@@QAEPAXJ@Z ; GlobalPositioningSystem::Find
	mov	DWORD PTR _urec$[ebp], eax
	jmp	SHORT $LN6@MenuEditPa
$LN7@MenuEditPa:

; 1221 : 	}
; 1222 : 	else if(caller->_GetCType_() == _CNTL_DRAWLIST_)

	mov	ecx, DWORD PTR _caller$[ebp]
	call	?_GetCType_@C_Base@@QAEFXZ		; C_Base::_GetCType_
	cwde
	cmp	eax, 16416				; 00004020H
	jne	SHORT $LN5@MenuEditPa

; 1223 : 	{
; 1224 : 		piggy=(C_DrawList *)caller;

	mov	ecx, DWORD PTR _caller$[ebp]
	mov	DWORD PTR _piggy$[ebp], ecx

; 1225 : 		iconid=piggy->GetIconID();

	mov	ecx, DWORD PTR _piggy$[ebp]
	call	?GetIconID@C_DrawList@@QAEJXZ		; C_DrawList::GetIconID
	mov	DWORD PTR _iconid$[ebp], eax

; 1226 : 		urec=(UI_Refresher *)gGps->Find(iconid);

	mov	edx, DWORD PTR _iconid$[ebp]
	push	edx
	mov	ecx, DWORD PTR ?gGps@@3PAVGlobalPositioningSystem@@A ; gGps
	call	?Find@GlobalPositioningSystem@@QAEPAXJ@Z ; GlobalPositioningSystem::Find
	mov	DWORD PTR _urec$[ebp], eax
	jmp	SHORT $LN6@MenuEditPa
$LN5@MenuEditPa:

; 1227 : 	}
; 1228 : 	else if(caller->_GetCType_() == _CNTL_TREELIST_)

	mov	ecx, DWORD PTR _caller$[ebp]
	call	?_GetCType_@C_Base@@QAEFXZ		; C_Base::_GetCType_
	cwde
	cmp	eax, 16397				; 0000400dH
	jne	SHORT $LN6@MenuEditPa

; 1229 : 	{
; 1230 : 		tree=(C_TreeList *)caller;

	mov	ecx, DWORD PTR _caller$[ebp]
	mov	DWORD PTR _tree$[ebp], ecx

; 1231 : 		item=tree->GetLastItem();

	mov	ecx, DWORD PTR _tree$[ebp]
	call	?GetLastItem@C_TreeList@@QAEPAVTREELIST@@XZ ; C_TreeList::GetLastItem
	mov	DWORD PTR _item$[ebp], eax

; 1232 : 		if(item)

	cmp	DWORD PTR _item$[ebp], 0
	je	SHORT $LN6@MenuEditPa

; 1233 : 		{
; 1234 : 			iconid=item->ID_;

	mov	edx, DWORD PTR _item$[ebp]
	mov	eax, DWORD PTR [edx]
	mov	DWORD PTR _iconid$[ebp], eax

; 1235 : 			urec=(UI_Refresher *)gGps->Find(item->ID_ & 0x00ffffff); // strip off team (incase it is a division)

	mov	ecx, DWORD PTR _item$[ebp]
	mov	edx, DWORD PTR [ecx]
	and	edx, 16777215				; 00ffffffH
	push	edx
	mov	ecx, DWORD PTR ?gGps@@3PAVGlobalPositioningSystem@@A ; gGps
	call	?Find@GlobalPositioningSystem@@QAEPAXJ@Z ; GlobalPositioningSystem::Find
	mov	DWORD PTR _urec$[ebp], eax
$LN6@MenuEditPa:

; 1236 : 		}
; 1237 : 	}
; 1238 : 	if(urec)

	cmp	DWORD PTR _urec$[ebp], 0
	je	SHORT $LN9@MenuEditPa

; 1239 : 	{
; 1240 : 		tactical_edit_package(urec->GetID(),control);

	mov	eax, DWORD PTR _control$[ebp]
	push	eax
	lea	ecx, DWORD PTR $T1[ebp]
	push	ecx
	mov	ecx, DWORD PTR _urec$[ebp]
	call	?GetID@UI_Refresher@@QAE?AVVU_ID@@XZ	; UI_Refresher::GetID
	mov	edx, DWORD PTR [eax+4]
	push	edx
	mov	eax, DWORD PTR [eax]
	push	eax
	call	?tactical_edit_package@@YAXVVU_ID@@PAVC_Base@@@Z ; tactical_edit_package
	add	esp, 12					; 0000000cH
$LN9@MenuEditPa:

; 1241 : 	}
; 1242 : }

	mov	esp, ebp
	pop	ebp
	ret	0
?MenuEditPackageCB@@YAXJFPAVC_Base@@@Z ENDP		; MenuEditPackageCB
_TEXT	ENDS
; Function compile flags: /Odtp
; File c:\users\zhitao li\documents\visual studio 2012\projects\freefalcon\ui\src\campaign\campmenu.cpp
_TEXT	SEGMENT
$T1 = -28						; size = 8
$T2 = -20						; size = 8
_rw$ = -12						; size = 4
_wp$ = -8						; size = 4
_un$ = -4						; size = 4
___formal$ = 8						; size = 4
_hittype$ = 12						; size = 2
___formal$ = 16						; size = 4
?MenuDeleteWPCB@@YAXJFPAVC_Base@@@Z PROC		; MenuDeleteWPCB

; 1169 : {

	push	ebp
	mov	ebp, esp
	sub	esp, 28					; 0000001cH

; 1170 : 	WayPoint		wp,rw;
; 1171 : 	Unit			un;
; 1172 : 
; 1173 : 	un = (Unit)vuDatabase->Find(gMapMgr->GetCurWPID());

	lea	eax, DWORD PTR $T2[ebp]
	push	eax
	mov	ecx, DWORD PTR ?gMapMgr@@3PAVC_Map@@A	; gMapMgr
	call	?GetCurWPID@C_Map@@QAE?AVVU_ID@@XZ	; C_Map::GetCurWPID
	mov	ecx, DWORD PTR [eax+4]
	push	ecx
	mov	edx, DWORD PTR [eax]
	push	edx
	mov	ecx, DWORD PTR ?vuDatabase@@3PAVVuDatabase@@A ; vuDatabase
	call	?Find@VuDatabase@@QBEPAVVuEntity@@VVU_ID@@@Z ; VuDatabase::Find
	mov	DWORD PTR _un$[ebp], eax

; 1174 : 	if(!un)

	cmp	DWORD PTR _un$[ebp], 0
	jne	SHORT $LN4@MenuDelete

; 1175 : 		return;

	jmp	$LN5@MenuDelete
$LN4@MenuDelete:

; 1176 : 
; 1177 : 	if(hittype != C_TYPE_LMOUSEUP)

	movsx	eax, WORD PTR _hittype$[ebp]
	cmp	eax, 52					; 00000034H
	je	SHORT $LN3@MenuDelete

; 1178 : 		return;

	jmp	$LN5@MenuDelete
$LN3@MenuDelete:

; 1179 : 
; 1180 : 	gPopupMgr->CloseMenu();

	mov	ecx, DWORD PTR ?gPopupMgr@@3PAVC_PopupMgr@@A ; gPopupMgr
	call	?CloseMenu@C_PopupMgr@@QAEXXZ		; C_PopupMgr::CloseMenu

; 1181 : 
; 1182 : 	wp = GetSelectedWayPoint();

	call	?GetSelectedWayPoint@@YAPAVWayPointClass@@XZ ; GetSelectedWayPoint
	mov	DWORD PTR _wp$[ebp], eax

; 1183 : 	if (wp && (wp->GetPrevWP()) && (wp->GetNextWP()))

	cmp	DWORD PTR _wp$[ebp], 0
	je	SHORT $LN2@MenuDelete
	mov	ecx, DWORD PTR _wp$[ebp]
	call	?GetPrevWP@WayPointClass@@QAEPAV1@XZ	; WayPointClass::GetPrevWP
	test	eax, eax
	je	SHORT $LN2@MenuDelete
	mov	ecx, DWORD PTR _wp$[ebp]
	call	?GetNextWP@WayPointClass@@QAEPAV1@XZ	; WayPointClass::GetNextWP
	test	eax, eax
	je	SHORT $LN2@MenuDelete

; 1184 : 		{
; 1185 : 		rw = wp->GetPrevWP();

	mov	ecx, DWORD PTR _wp$[ebp]
	call	?GetPrevWP@WayPointClass@@QAEPAV1@XZ	; WayPointClass::GetPrevWP
	mov	DWORD PTR _rw$[ebp], eax

; 1186 : 		un->DeleteUnitWP(wp);

	mov	ecx, DWORD PTR _wp$[ebp]
	push	ecx
	mov	ecx, DWORD PTR _un$[ebp]
	call	?DeleteUnitWP@UnitClass@@QAEXPAVWayPointClass@@@Z ; UnitClass::DeleteUnitWP

; 1187 : 		recalculate_waypoints(rw);

	mov	edx, DWORD PTR _rw$[ebp]
	push	edx
	call	?recalculate_waypoints@@YAXPAVWayPointClass@@@Z ; recalculate_waypoints
	add	esp, 4
$LN2@MenuDelete:

; 1188 : 		}
; 1189 : 
; 1190 : 	gMapMgr->SetCurrentWaypointList (un->Id());

	lea	eax, DWORD PTR $T1[ebp]
	push	eax
	mov	ecx, DWORD PTR _un$[ebp]
	call	?Id@VuEntity@@QBE?AVVU_ID@@XZ		; VuEntity::Id
	mov	ecx, DWORD PTR [eax+4]
	push	ecx
	mov	edx, DWORD PTR [eax]
	push	edx
	mov	ecx, DWORD PTR ?gMapMgr@@3PAVC_Map@@A	; gMapMgr
	call	?SetCurrentWaypointList@C_Map@@QAEHVVU_ID@@@Z ; C_Map::SetCurrentWaypointList

; 1191 : 
; 1192 : 	if ((TheCampaign.Flags & CAMP_TACTICAL_EDIT) && un->IsFlight())

	mov	eax, DWORD PTR ?TheCampaign@@3VCampaignClass@@A+64
	and	eax, 524288				; 00080000H
	je	SHORT $LN5@MenuDelete
	mov	ecx, DWORD PTR _un$[ebp]
	mov	edx, DWORD PTR [ecx]
	mov	ecx, DWORD PTR _un$[ebp]
	mov	eax, DWORD PTR [edx+248]
	call	eax
	test	eax, eax
	je	SHORT $LN5@MenuDelete

; 1193 : 	{
; 1194 : 		fixup_unit (un);

	mov	ecx, DWORD PTR _un$[ebp]
	push	ecx
	call	?fixup_unit@@YAXPAVUnitClass@@@Z	; fixup_unit
	add	esp, 4

; 1195 : 		gGps->Update();

	mov	ecx, DWORD PTR ?gGps@@3PAVGlobalPositioningSystem@@A ; gGps
	call	?Update@GlobalPositioningSystem@@QAEXXZ	; GlobalPositioningSystem::Update

; 1196 : 		gMapMgr->DrawMap();

	mov	ecx, DWORD PTR ?gMapMgr@@3PAVC_Map@@A	; gMapMgr
	call	?DrawMap@C_Map@@QAEXXZ			; C_Map::DrawMap
$LN5@MenuDelete:

; 1197 : 	}
; 1198 : }

	mov	esp, ebp
	pop	ebp
	ret	0
?MenuDeleteWPCB@@YAXJFPAVC_Base@@@Z ENDP		; MenuDeleteWPCB
_TEXT	ENDS
; Function compile flags: /Odtp
; File c:\users\zhitao li\documents\visual studio 2012\projects\freefalcon\ui\src\campaign\campmenu.cpp
_TEXT	SEGMENT
$T1 = -36						; size = 8
$T2 = -28						; size = 8
_wps$ = -20						; size = 4
_cwp$ = -16						; size = 4
_un$ = -12						; size = 4
_num$ = -8						; size = 4
_wp$ = -4						; size = 4
___formal$ = 8						; size = 4
___formal$ = 12						; size = 2
___formal$ = 16						; size = 4
?MenuAddWPCB@@YAXJFPAVC_Base@@@Z PROC			; MenuAddWPCB

; 1126 : {

	push	ebp
	mov	ebp, esp
	sub	esp, 36					; 00000024H

; 1127 : 	C_Waypoint
; 1128 : 		*cwp;
; 1129 : 
; 1130 : 	WayPoint
; 1131 : 		wp;
; 1132 : 
; 1133 : 	WAYPOINTLIST
; 1134 : 		*wps;
; 1135 : 
; 1136 : 	Unit
; 1137 : 		un;
; 1138 : 
; 1139 : 	int
; 1140 : 		num;
; 1141 : 
; 1142 : 	cwp = (C_Waypoint *) gPopupMgr->GetCallingControl ();

	mov	ecx, DWORD PTR ?gPopupMgr@@3PAVC_PopupMgr@@A ; gPopupMgr
	call	?GetCallingControl@C_PopupMgr@@QAEPAVC_Base@@XZ ; C_PopupMgr::GetCallingControl
	mov	DWORD PTR _cwp$[ebp], eax

; 1143 : 
; 1144 : 	un = (Unit)vuDatabase->Find(gMapMgr->GetCurWPID());

	lea	eax, DWORD PTR $T2[ebp]
	push	eax
	mov	ecx, DWORD PTR ?gMapMgr@@3PAVC_Map@@A	; gMapMgr
	call	?GetCurWPID@C_Map@@QAE?AVVU_ID@@XZ	; C_Map::GetCurWPID
	mov	ecx, DWORD PTR [eax+4]
	push	ecx
	mov	edx, DWORD PTR [eax]
	push	edx
	mov	ecx, DWORD PTR ?vuDatabase@@3PAVVuDatabase@@A ; vuDatabase
	call	?Find@VuDatabase@@QBEPAVVuEntity@@VVU_ID@@@Z ; VuDatabase::Find
	mov	DWORD PTR _un$[ebp], eax

; 1145 : 	if(!un)

	cmp	DWORD PTR _un$[ebp], 0
	jne	SHORT $LN3@MenuAddWPC

; 1146 : 		return;

	jmp	SHORT $LN4@MenuAddWPC
$LN3@MenuAddWPC:

; 1147 : 
; 1148 : 	wp = un->GetFirstUnitWP ();

	mov	ecx, DWORD PTR _un$[ebp]
	call	?GetFirstUnitWP@UnitClass@@QAEPAVWayPointClass@@XZ ; UnitClass::GetFirstUnitWP
	mov	DWORD PTR _wp$[ebp], eax

; 1149 : 	// if(un->GetCurrentUnitWP() != wp)
; 1150 : 	//	return;
; 1151 : 
; 1152 : 	wps = cwp->GetLast ();

	mov	ecx, DWORD PTR _cwp$[ebp]
	call	?GetLast@C_Waypoint@@QAEPAVWAYPOINTLIST@@XZ ; C_Waypoint::GetLast
	mov	DWORD PTR _wps$[ebp], eax

; 1153 : 
; 1154 : 	num = wps->ID & 0xff;

	mov	eax, DWORD PTR _wps$[ebp]
	mov	ecx, DWORD PTR [eax]
	and	ecx, 255				; 000000ffH
	mov	DWORD PTR _num$[ebp], ecx
$LN2@MenuAddWPC:

; 1155 : 
; 1156 : 	while ((num > 1) && (wp))

	cmp	DWORD PTR _num$[ebp], 1
	jle	SHORT $LN1@MenuAddWPC
	cmp	DWORD PTR _wp$[ebp], 0
	je	SHORT $LN1@MenuAddWPC

; 1157 : 	{
; 1158 : 		wp = wp->GetNextWP ();

	mov	ecx, DWORD PTR _wp$[ebp]
	call	?GetNextWP@WayPointClass@@QAEPAV1@XZ	; WayPointClass::GetNextWP
	mov	DWORD PTR _wp$[ebp], eax

; 1159 : 		num --;

	mov	edx, DWORD PTR _num$[ebp]
	sub	edx, 1
	mov	DWORD PTR _num$[ebp], edx

; 1160 : 	}

	jmp	SHORT $LN2@MenuAddWPC
$LN1@MenuAddWPC:

; 1161 : 
; 1162 : 	wp->SplitWP ();

	mov	ecx, DWORD PTR _wp$[ebp]
	call	?SplitWP@WayPointClass@@QAEXXZ		; WayPointClass::SplitWP

; 1163 : 
; 1164 : 	gMapMgr->SetCurrentWaypointList (un->Id ());

	lea	eax, DWORD PTR $T1[ebp]
	push	eax
	mov	ecx, DWORD PTR _un$[ebp]
	call	?Id@VuEntity@@QBE?AVVU_ID@@XZ		; VuEntity::Id
	mov	ecx, DWORD PTR [eax+4]
	push	ecx
	mov	edx, DWORD PTR [eax]
	push	edx
	mov	ecx, DWORD PTR ?gMapMgr@@3PAVC_Map@@A	; gMapMgr
	call	?SetCurrentWaypointList@C_Map@@QAEHVVU_ID@@@Z ; C_Map::SetCurrentWaypointList

; 1165 : 	gPopupMgr->CloseMenu ();

	mov	ecx, DWORD PTR ?gPopupMgr@@3PAVC_PopupMgr@@A ; gPopupMgr
	call	?CloseMenu@C_PopupMgr@@QAEXXZ		; C_PopupMgr::CloseMenu
$LN4@MenuAddWPC:

; 1166 : }

	mov	esp, ebp
	pop	ebp
	ret	0
?MenuAddWPCB@@YAXJFPAVC_Base@@@Z ENDP			; MenuAddWPCB
_TEXT	ENDS
; Function compile flags: /Odtp
; File c:\users\zhitao li\documents\visual studio 2012\projects\freefalcon\ui\src\campaign\campmenu.cpp
_TEXT	SEGMENT
_action$ = -8						; size = 4
_wp$ = -4						; size = 4
_ID$ = 8						; size = 4
___formal$ = 12						; size = 2
___formal$ = 16						; size = 4
?MenuActionCB@@YAXJFPAVC_Base@@@Z PROC			; MenuActionCB

; 1110 : 	{

	push	ebp
	mov	ebp, esp
	sub	esp, 8

; 1111 : 	WayPoint	wp = NULL;

	mov	DWORD PTR _wp$[ebp], 0

; 1112 : 	int			action;
; 1113 : 	
; 1114 : 	gPopupMgr->CloseMenu();

	mov	ecx, DWORD PTR ?gPopupMgr@@3PAVC_PopupMgr@@A ; gPopupMgr
	call	?CloseMenu@C_PopupMgr@@QAEXXZ		; C_PopupMgr::CloseMenu

; 1115 : 
; 1116 : 	wp = GetSelectedWayPoint();

	call	?GetSelectedWayPoint@@YAPAVWayPointClass@@XZ ; GetSelectedWayPoint
	mov	DWORD PTR _wp$[ebp], eax

; 1117 : 	if (wp)

	cmp	DWORD PTR _wp$[ebp], 0
	je	SHORT $LN2@MenuAction

; 1118 : 		{
; 1119 : 		action = ID & 0xff;

	mov	eax, DWORD PTR _ID$[ebp]
	and	eax, 255				; 000000ffH
	mov	DWORD PTR _action$[ebp], eax

; 1120 : 		set_waypoint_action(wp,action);

	mov	ecx, DWORD PTR _action$[ebp]
	push	ecx
	mov	edx, DWORD PTR _wp$[ebp]
	push	edx
	call	?set_waypoint_action@@YAXPAVWayPointClass@@H@Z ; set_waypoint_action
	add	esp, 8

; 1121 : 		refresh_waypoint (wp);

	mov	eax, DWORD PTR _wp$[ebp]
	push	eax
	call	?refresh_waypoint@@YAXPAVWayPointClass@@@Z ; refresh_waypoint
	add	esp, 4
$LN2@MenuAction:

; 1122 : 		}
; 1123 : 	}

	mov	esp, ebp
	pop	ebp
	ret	0
?MenuActionCB@@YAXJFPAVC_Base@@@Z ENDP			; MenuActionCB
_TEXT	ENDS
; Function compile flags: /Odtp
; File c:\users\zhitao li\documents\visual studio 2012\projects\freefalcon\ui\src\campaign\campmenu.cpp
_TEXT	SEGMENT
_action$ = -8						; size = 4
_wp$ = -4						; size = 4
_ID$ = 8						; size = 4
___formal$ = 12						; size = 2
___formal$ = 16						; size = 4
?MenuEnrouteCB@@YAXJFPAVC_Base@@@Z PROC			; MenuEnrouteCB

; 1094 : 	{

	push	ebp
	mov	ebp, esp
	sub	esp, 8

; 1095 : 	WayPoint	wp = NULL;

	mov	DWORD PTR _wp$[ebp], 0

; 1096 : 	int			action;
; 1097 : 	
; 1098 : 	gPopupMgr->CloseMenu();

	mov	ecx, DWORD PTR ?gPopupMgr@@3PAVC_PopupMgr@@A ; gPopupMgr
	call	?CloseMenu@C_PopupMgr@@QAEXXZ		; C_PopupMgr::CloseMenu

; 1099 : 
; 1100 : 	wp = GetSelectedWayPoint();

	call	?GetSelectedWayPoint@@YAPAVWayPointClass@@XZ ; GetSelectedWayPoint
	mov	DWORD PTR _wp$[ebp], eax

; 1101 : 	if (wp)

	cmp	DWORD PTR _wp$[ebp], 0
	je	SHORT $LN2@MenuEnrout

; 1102 : 		{
; 1103 : 		action = ID & 0xff;

	mov	eax, DWORD PTR _ID$[ebp]
	and	eax, 255				; 000000ffH
	mov	DWORD PTR _action$[ebp], eax

; 1104 : 		wp->SetWPRouteAction(action);

	mov	ecx, DWORD PTR _action$[ebp]
	push	ecx
	mov	ecx, DWORD PTR _wp$[ebp]
	call	?SetWPRouteAction@WayPointClass@@QAEXH@Z ; WayPointClass::SetWPRouteAction

; 1105 : 		refresh_waypoint (wp);

	mov	edx, DWORD PTR _wp$[ebp]
	push	edx
	call	?refresh_waypoint@@YAXPAVWayPointClass@@@Z ; refresh_waypoint
	add	esp, 4
$LN2@MenuEnrout:

; 1106 : 		}
; 1107 : 	}

	mov	esp, ebp
	pop	ebp
	ret	0
?MenuEnrouteCB@@YAXJFPAVC_Base@@@Z ENDP			; MenuEnrouteCB
_TEXT	ENDS
; Function compile flags: /Odtp
; File c:\users\zhitao li\documents\visual studio 2012\projects\freefalcon\ui\src\campaign\campmenu.cpp
_TEXT	SEGMENT
_formation$ = -8					; size = 4
_wp$ = -4						; size = 4
_ID$ = 8						; size = 4
___formal$ = 12						; size = 2
___formal$ = 16						; size = 4
?MenuFormationCB@@YAXJFPAVC_Base@@@Z PROC		; MenuFormationCB

; 1078 : 	{

	push	ebp
	mov	ebp, esp
	sub	esp, 8

; 1079 : 	WayPoint	wp = NULL;

	mov	DWORD PTR _wp$[ebp], 0

; 1080 : 	int			formation;
; 1081 : 	
; 1082 : 	gPopupMgr->CloseMenu();

	mov	ecx, DWORD PTR ?gPopupMgr@@3PAVC_PopupMgr@@A ; gPopupMgr
	call	?CloseMenu@C_PopupMgr@@QAEXXZ		; C_PopupMgr::CloseMenu

; 1083 : 
; 1084 : 	wp = GetSelectedWayPoint();

	call	?GetSelectedWayPoint@@YAPAVWayPointClass@@XZ ; GetSelectedWayPoint
	mov	DWORD PTR _wp$[ebp], eax

; 1085 : 	if (wp)

	cmp	DWORD PTR _wp$[ebp], 0
	je	SHORT $LN2@MenuFormat

; 1086 : 		{
; 1087 : 		formation = ID & 0xff;

	mov	eax, DWORD PTR _ID$[ebp]
	and	eax, 255				; 000000ffH
	mov	DWORD PTR _formation$[ebp], eax

; 1088 : 		wp->SetWPFormation(formation-1);

	mov	ecx, DWORD PTR _formation$[ebp]
	sub	ecx, 1
	push	ecx
	mov	ecx, DWORD PTR _wp$[ebp]
	call	?SetWPFormation@WayPointClass@@QAEXH@Z	; WayPointClass::SetWPFormation

; 1089 : 		refresh_waypoint (wp);

	mov	edx, DWORD PTR _wp$[ebp]
	push	edx
	call	?refresh_waypoint@@YAXPAVWayPointClass@@@Z ; refresh_waypoint
	add	esp, 4
$LN2@MenuFormat:

; 1090 : 		}
; 1091 : 	}

	mov	esp, ebp
	pop	ebp
	ret	0
?MenuFormationCB@@YAXJFPAVC_Base@@@Z ENDP		; MenuFormationCB
_TEXT	ENDS
; Function compile flags: /Odtp
; File c:\users\zhitao li\documents\visual studio 2012\projects\freefalcon\ui\src\campaign\campmenu.cpp
_TEXT	SEGMENT
_wp$ = -4						; size = 4
_ID$ = 8						; size = 4
___formal$ = 12						; size = 2
___formal$ = 16						; size = 4
?MenuClimbCB@@YAXJFPAVC_Base@@@Z PROC			; MenuClimbCB

; 1061 : 	{

	push	ebp
	mov	ebp, esp
	push	ecx

; 1062 : 	WayPoint	wp = NULL;

	mov	DWORD PTR _wp$[ebp], 0

; 1063 : 	
; 1064 : 	gPopupMgr->CloseMenu();

	mov	ecx, DWORD PTR ?gPopupMgr@@3PAVC_PopupMgr@@A ; gPopupMgr
	call	?CloseMenu@C_PopupMgr@@QAEXXZ		; C_PopupMgr::CloseMenu

; 1065 : 
; 1066 : 	wp = GetSelectedWayPoint();

	call	?GetSelectedWayPoint@@YAPAVWayPointClass@@XZ ; GetSelectedWayPoint
	mov	DWORD PTR _wp$[ebp], eax

; 1067 : 	if (wp)

	cmp	DWORD PTR _wp$[ebp], 0
	je	SHORT $LN4@MenuClimbC

; 1068 : 		{
; 1069 : 		if (ID == CLIMB_DELAY)

	cmp	DWORD PTR _ID$[ebp], 13060		; 00003304H
	jne	SHORT $LN2@MenuClimbC

; 1070 : 			wp->SetWPFlag(WPF_HOLDCURRENT);

	push	2048					; 00000800H
	mov	ecx, DWORD PTR _wp$[ebp]
	call	?SetWPFlag@WayPointClass@@QAEXK@Z	; WayPointClass::SetWPFlag

; 1071 : 		else

	jmp	SHORT $LN1@MenuClimbC
$LN2@MenuClimbC:

; 1072 : 			wp->UnSetWPFlag(WPF_HOLDCURRENT);

	push	2048					; 00000800H
	mov	ecx, DWORD PTR _wp$[ebp]
	call	?UnSetWPFlag@WayPointClass@@QAEXK@Z	; WayPointClass::UnSetWPFlag
$LN1@MenuClimbC:

; 1073 : 		refresh_waypoint (wp);

	mov	eax, DWORD PTR _wp$[ebp]
	push	eax
	call	?refresh_waypoint@@YAXPAVWayPointClass@@@Z ; refresh_waypoint
	add	esp, 4
$LN4@MenuClimbC:

; 1074 : 		}
; 1075 : 	}

	mov	esp, ebp
	pop	ebp
	ret	0
?MenuClimbCB@@YAXJFPAVC_Base@@@Z ENDP			; MenuClimbCB
_TEXT	ENDS
; Function compile flags: /Odtp
; File c:\users\zhitao li\documents\visual studio 2012\projects\freefalcon\ui\src\campaign\campmenu.cpp
_TEXT	SEGMENT
_wp$ = -4						; size = 4
_ID$ = 8						; size = 4
___formal$ = 12						; size = 2
___formal$ = 16						; size = 4
?MenuLockCB@@YAXJFPAVC_Base@@@Z PROC			; MenuLockCB

; 1044 : 	{

	push	ebp
	mov	ebp, esp
	push	ecx

; 1045 : 	WayPoint	wp = NULL;

	mov	DWORD PTR _wp$[ebp], 0

; 1046 : 	
; 1047 : 	gPopupMgr->CloseMenu();

	mov	ecx, DWORD PTR ?gPopupMgr@@3PAVC_PopupMgr@@A ; gPopupMgr
	call	?CloseMenu@C_PopupMgr@@QAEXXZ		; C_PopupMgr::CloseMenu

; 1048 : 
; 1049 : 	wp = GetSelectedWayPoint();

	call	?GetSelectedWayPoint@@YAPAVWayPointClass@@XZ ; GetSelectedWayPoint
	mov	DWORD PTR _wp$[ebp], eax

; 1050 : 	if (wp)

	cmp	DWORD PTR _wp$[ebp], 0
	je	SHORT $LN4@MenuLockCB

; 1051 : 		{
; 1052 : 		if (ID == MID_LOCK_TOS)

	cmp	DWORD PTR _ID$[ebp], 18106		; 000046baH
	jne	SHORT $LN2@MenuLockCB

; 1053 : 			wp->SetWPFlag(WPF_TIME_LOCKED);

	push	16384					; 00004000H
	mov	ecx, DWORD PTR _wp$[ebp]
	call	?SetWPFlag@WayPointClass@@QAEXK@Z	; WayPointClass::SetWPFlag
$LN2@MenuLockCB:

; 1054 : 		if (ID == MID_LOCK_SPEED)

	cmp	DWORD PTR _ID$[ebp], 18107		; 000046bbH
	jne	SHORT $LN1@MenuLockCB

; 1055 : 			wp->SetWPFlag(WPF_SPEED_LOCKED);

	push	32768					; 00008000H
	mov	ecx, DWORD PTR _wp$[ebp]
	call	?SetWPFlag@WayPointClass@@QAEXK@Z	; WayPointClass::SetWPFlag
$LN1@MenuLockCB:

; 1056 : 		refresh_waypoint (wp);

	mov	eax, DWORD PTR _wp$[ebp]
	push	eax
	call	?refresh_waypoint@@YAXPAVWayPointClass@@@Z ; refresh_waypoint
	add	esp, 4
$LN4@MenuLockCB:

; 1057 : 		}
; 1058 : 	}

	mov	esp, ebp
	pop	ebp
	ret	0
?MenuLockCB@@YAXJFPAVC_Base@@@Z ENDP			; MenuLockCB
_TEXT	ENDS
; Function compile flags: /Odtp
; File c:\users\zhitao li\documents\visual studio 2012\projects\freefalcon\ui\src\campaign\campmenu.cpp
_TEXT	SEGMENT
___formal$ = 8						; size = 4
___formal$ = 12						; size = 2
___formal$ = 16						; size = 4
?MenuOpenWpWindowCB@@YAXJFPAVC_Base@@@Z PROC		; MenuOpenWpWindowCB

; 1040 : {

	push	ebp
	mov	ebp, esp

; 1041 : }

	pop	ebp
	ret	0
?MenuOpenWpWindowCB@@YAXJFPAVC_Base@@@Z ENDP		; MenuOpenWpWindowCB
_TEXT	ENDS
; Function compile flags: /Odtp
; File c:\users\zhitao li\documents\visual studio 2012\projects\freefalcon\ui\src\campaign\campmenu.cpp
_TEXT	SEGMENT
___formal$ = 8						; size = 4
___formal$ = 12						; size = 2
___formal$ = 16						; size = 4
?MenuShowSquadronsCB@@YAXJFPAVC_Base@@@Z PROC		; MenuShowSquadronsCB

; 1036 : {

	push	ebp
	mov	ebp, esp

; 1037 : }

	pop	ebp
	ret	0
?MenuShowSquadronsCB@@YAXJFPAVC_Base@@@Z ENDP		; MenuShowSquadronsCB
_TEXT	ENDS
; Function compile flags: /Odtp
; File c:\users\zhitao li\documents\visual studio 2012\projects\freefalcon\ui\src\campaign\campmenu.cpp
_TEXT	SEGMENT
$T1 = -68						; size = 8
$T2 = -60						; size = 8
$T3 = -52						; size = 8
$T4 = -44						; size = 8
_win$ = -36						; size = 4
_tree$ = -32						; size = 4
_piggy$ = -28						; size = 4
_icon$ = -24						; size = 4
_item$ = -20						; size = 4
_iconid$ = -16						; size = 4
_caller$ = -12						; size = 4
_urec$ = -8						; size = 4
_ent$ = -4						; size = 4
___formal$ = 8						; size = 4
___formal$ = 12						; size = 2
___formal$ = 16						; size = 4
?MenuUnitStatusCB@@YAXJFPAVC_Base@@@Z PROC		; MenuUnitStatusCB

; 960  : {

	push	ebp
	mov	ebp, esp
	sub	esp, 68					; 00000044H
	push	esi

; 961  : 	C_Window *win;
; 962  : 	C_Base *caller;
; 963  : 	C_MapIcon *icon;
; 964  : 	C_DrawList *piggy;
; 965  : 	C_TreeList *tree;
; 966  : 	long iconid=0;

	mov	DWORD PTR _iconid$[ebp], 0

; 967  : 	TREELIST *item;
; 968  : 	CampEntity ent;
; 969  : 	UI_Refresher *urec=NULL;

	mov	DWORD PTR _urec$[ebp], 0

; 970  : 
; 971  : 	gPopupMgr->CloseMenu();

	mov	ecx, DWORD PTR ?gPopupMgr@@3PAVC_PopupMgr@@A ; gPopupMgr
	call	?CloseMenu@C_PopupMgr@@QAEXXZ		; C_PopupMgr::CloseMenu

; 972  : 
; 973  : 	caller=gPopupMgr->GetCallingControl();

	mov	ecx, DWORD PTR ?gPopupMgr@@3PAVC_PopupMgr@@A ; gPopupMgr
	call	?GetCallingControl@C_PopupMgr@@QAEPAVC_Base@@XZ ; C_PopupMgr::GetCallingControl
	mov	DWORD PTR _caller$[ebp], eax

; 974  : 	if(caller == NULL)

	cmp	DWORD PTR _caller$[ebp], 0
	jne	SHORT $LN19@MenuUnitSt

; 975  : 		return;

	jmp	$LN20@MenuUnitSt
$LN19@MenuUnitSt:

; 976  : 
; 977  : 	if(caller->_GetCType_() == _CNTL_MAPICON_)

	mov	ecx, DWORD PTR _caller$[ebp]
	call	?_GetCType_@C_Base@@QAEFXZ		; C_Base::_GetCType_
	cwde
	cmp	eax, 16389				; 00004005H
	jne	SHORT $LN18@MenuUnitSt

; 978  : 	{
; 979  : 		icon=(C_MapIcon *)caller;

	mov	ecx, DWORD PTR _caller$[ebp]
	mov	DWORD PTR _icon$[ebp], ecx

; 980  : 		iconid=icon->GetIconID();

	mov	ecx, DWORD PTR _icon$[ebp]
	call	?GetIconID@C_MapIcon@@QAEJXZ		; C_MapIcon::GetIconID
	mov	DWORD PTR _iconid$[ebp], eax

; 981  : 		urec=(UI_Refresher *)gGps->Find(iconid);

	mov	edx, DWORD PTR _iconid$[ebp]
	push	edx
	mov	ecx, DWORD PTR ?gGps@@3PAVGlobalPositioningSystem@@A ; gGps
	call	?Find@GlobalPositioningSystem@@QAEPAXJ@Z ; GlobalPositioningSystem::Find
	mov	DWORD PTR _urec$[ebp], eax
	jmp	SHORT $LN17@MenuUnitSt
$LN18@MenuUnitSt:

; 982  : 	}
; 983  : 	else if(caller->_GetCType_() == _CNTL_DRAWLIST_)

	mov	ecx, DWORD PTR _caller$[ebp]
	call	?_GetCType_@C_Base@@QAEFXZ		; C_Base::_GetCType_
	cwde
	cmp	eax, 16416				; 00004020H
	jne	SHORT $LN16@MenuUnitSt

; 984  : 	{
; 985  : 		piggy=(C_DrawList *)caller;

	mov	ecx, DWORD PTR _caller$[ebp]
	mov	DWORD PTR _piggy$[ebp], ecx

; 986  : 		iconid=piggy->GetIconID();

	mov	ecx, DWORD PTR _piggy$[ebp]
	call	?GetIconID@C_DrawList@@QAEJXZ		; C_DrawList::GetIconID
	mov	DWORD PTR _iconid$[ebp], eax

; 987  : 		urec=(UI_Refresher *)gGps->Find(iconid);

	mov	edx, DWORD PTR _iconid$[ebp]
	push	edx
	mov	ecx, DWORD PTR ?gGps@@3PAVGlobalPositioningSystem@@A ; gGps
	call	?Find@GlobalPositioningSystem@@QAEPAXJ@Z ; GlobalPositioningSystem::Find
	mov	DWORD PTR _urec$[ebp], eax
	jmp	SHORT $LN17@MenuUnitSt
$LN16@MenuUnitSt:

; 988  : 	}
; 989  : 	else if(caller->_GetCType_() == _CNTL_TREELIST_)

	mov	ecx, DWORD PTR _caller$[ebp]
	call	?_GetCType_@C_Base@@QAEFXZ		; C_Base::_GetCType_
	cwde
	cmp	eax, 16397				; 0000400dH
	jne	SHORT $LN17@MenuUnitSt

; 990  : 	{
; 991  : 		tree=(C_TreeList *)caller;

	mov	ecx, DWORD PTR _caller$[ebp]
	mov	DWORD PTR _tree$[ebp], ecx

; 992  : 		item=tree->GetLastItem();

	mov	ecx, DWORD PTR _tree$[ebp]
	call	?GetLastItem@C_TreeList@@QAEPAVTREELIST@@XZ ; C_TreeList::GetLastItem
	mov	DWORD PTR _item$[ebp], eax

; 993  : 		if(item)

	cmp	DWORD PTR _item$[ebp], 0
	je	SHORT $LN17@MenuUnitSt

; 994  : 		{
; 995  : 			iconid=item->ID_;

	mov	edx, DWORD PTR _item$[ebp]
	mov	eax, DWORD PTR [edx]
	mov	DWORD PTR _iconid$[ebp], eax

; 996  : 			urec=(UI_Refresher *)gGps->Find(item->ID_ & 0x00ffffff); // strip off team (incase it is a division)

	mov	ecx, DWORD PTR _item$[ebp]
	mov	edx, DWORD PTR [ecx]
	and	edx, 16777215				; 00ffffffH
	push	edx
	mov	ecx, DWORD PTR ?gGps@@3PAVGlobalPositioningSystem@@A ; gGps
	call	?Find@GlobalPositioningSystem@@QAEPAXJ@Z ; GlobalPositioningSystem::Find
	mov	DWORD PTR _urec$[ebp], eax
$LN17@MenuUnitSt:

; 997  : 		}
; 998  : 	}
; 999  : 	if(urec)

	cmp	DWORD PTR _urec$[ebp], 0
	je	$LN20@MenuUnitSt

; 1000 : 	{
; 1001 : 		win=gMainHandler->FindWindow(UNIT_WIN);

	push	13500					; 000034bcH
	mov	ecx, DWORD PTR ?gMainHandler@@3PAVC_Handler@@A ; gMainHandler
	call	?FindWindowA@C_Handler@@QAEPAVC_Window@@J@Z ; C_Handler::FindWindowA
	mov	DWORD PTR _win$[ebp], eax

; 1002 : 		if(win)

	cmp	DWORD PTR _win$[ebp], 0
	je	$LN20@MenuUnitSt

; 1003 : 		{
; 1004 : 			if(urec && urec->GetType() == GPS_DIVISION)

	cmp	DWORD PTR _urec$[ebp], 0
	je	SHORT $LN10@MenuUnitSt
	mov	ecx, DWORD PTR _urec$[ebp]
	call	?GetType@UI_Refresher@@QAEEXZ		; UI_Refresher::GetType
	movzx	eax, al
	cmp	eax, 4
	jne	SHORT $LN10@MenuUnitSt

; 1005 : 				SetupDivisionInfoWindow(urec->GetDivID(),urec->GetSide()); // Map & Tree save team # in top 8 bits (Needed to find division by team)

	mov	ecx, DWORD PTR _urec$[ebp]
	call	?GetSide@UI_Refresher@@QAEEXZ		; UI_Refresher::GetSide
	movzx	cx, al
	movzx	edx, cx
	push	edx
	mov	ecx, DWORD PTR _urec$[ebp]
	call	?GetDivID@UI_Refresher@@QAEFXZ		; UI_Refresher::GetDivID
	cwde
	push	eax
	call	?SetupDivisionInfoWindow@@YAXJF@Z	; SetupDivisionInfoWindow
	add	esp, 8

; 1006 : 			else

	jmp	$LN20@MenuUnitSt
$LN10@MenuUnitSt:

; 1007 : 			{
; 1008 : 				ent=(CampEntity)vuDatabase->Find(urec->GetID());

	lea	ecx, DWORD PTR $T4[ebp]
	push	ecx
	mov	ecx, DWORD PTR _urec$[ebp]
	call	?GetID@UI_Refresher@@QAE?AVVU_ID@@XZ	; UI_Refresher::GetID
	mov	edx, DWORD PTR [eax+4]
	push	edx
	mov	eax, DWORD PTR [eax]
	push	eax
	mov	ecx, DWORD PTR ?vuDatabase@@3PAVVuDatabase@@A ; vuDatabase
	call	?Find@VuDatabase@@QBEPAVVuEntity@@VVU_ID@@@Z ; VuDatabase::Find
	mov	DWORD PTR _ent$[ebp], eax

; 1009 : 				if(ent && ent->IsUnit())

	cmp	DWORD PTR _ent$[ebp], 0
	je	$LN20@MenuUnitSt
	mov	ecx, DWORD PTR _ent$[ebp]
	mov	edx, DWORD PTR [ecx]
	mov	ecx, DWORD PTR _ent$[ebp]
	mov	eax, DWORD PTR [edx+232]
	call	eax
	test	eax, eax
	je	$LN20@MenuUnitSt

; 1010 : 				{
; 1011 : 					if(ent->IsFlight() || ent->IsSquadron())

	mov	ecx, DWORD PTR _ent$[ebp]
	mov	edx, DWORD PTR [ecx]
	mov	ecx, DWORD PTR _ent$[ebp]
	mov	eax, DWORD PTR [edx+248]
	call	eax
	test	eax, eax
	jne	SHORT $LN6@MenuUnitSt
	mov	ecx, DWORD PTR _ent$[ebp]
	mov	edx, DWORD PTR [ecx]
	mov	ecx, DWORD PTR _ent$[ebp]
	mov	eax, DWORD PTR [edx+252]
	call	eax
	test	eax, eax
	je	SHORT $LN7@MenuUnitSt
$LN6@MenuUnitSt:

; 1012 : 					{
; 1013 : 						// 2002-02-21 ADDED BY S.G. If not spotted by the player's team or not editing a TE, can't get its status...
; 1014 : 						if (
; 1015 : 							(TheCampaign.Flags & CAMP_TACTICAL_EDIT) || 
; 1016 : 							(gGps->GetTeamNo() == ent->GetTeam()) || 
; 1017 : 							ent->GetIdentified(static_cast<Team>(gGps->GetTeamNo()))
; 1018 : 						){

	mov	ecx, DWORD PTR ?TheCampaign@@3VCampaignClass@@A+64
	and	ecx, 524288				; 00080000H
	jne	SHORT $LN4@MenuUnitSt
	mov	ecx, DWORD PTR ?gGps@@3PAVGlobalPositioningSystem@@A ; gGps
	call	?GetTeamNo@GlobalPositioningSystem@@QAEJXZ ; GlobalPositioningSystem::GetTeamNo
	mov	esi, eax
	mov	edx, DWORD PTR _ent$[ebp]
	mov	eax, DWORD PTR [edx]
	mov	ecx, DWORD PTR _ent$[ebp]
	mov	edx, DWORD PTR [eax+116]
	call	edx
	movzx	eax, al
	cmp	esi, eax
	je	SHORT $LN4@MenuUnitSt
	mov	ecx, DWORD PTR ?gGps@@3PAVGlobalPositioningSystem@@A ; gGps
	call	?GetTeamNo@GlobalPositioningSystem@@QAEJXZ ; GlobalPositioningSystem::GetTeamNo
	push	eax
	mov	ecx, DWORD PTR _ent$[ebp]
	call	?GetIdentified@CampBaseClass@@QAEHE@Z	; CampBaseClass::GetIdentified
	test	eax, eax
	je	SHORT $LN5@MenuUnitSt
$LN4@MenuUnitSt:

; 1019 : 							// END OF ADDED SECTION 2002-02-21
; 1020 : 							SetupSquadronInfoWindow(urec->GetID());

	lea	ecx, DWORD PTR $T3[ebp]
	push	ecx
	mov	ecx, DWORD PTR _urec$[ebp]
	call	?GetID@UI_Refresher@@QAE?AVVU_ID@@XZ	; UI_Refresher::GetID
	mov	edx, DWORD PTR [eax+4]
	push	edx
	mov	eax, DWORD PTR [eax]
	push	eax
	call	?SetupSquadronInfoWindow@@YAXVVU_ID@@@Z	; SetupSquadronInfoWindow
	add	esp, 8
$LN5@MenuUnitSt:

; 1021 : 						}
; 1022 : 					}

	jmp	SHORT $LN20@MenuUnitSt
$LN7@MenuUnitSt:

; 1023 : 					else if(ent->IsTaskForce())

	mov	ecx, DWORD PTR _ent$[ebp]
	mov	edx, DWORD PTR [ecx]
	mov	ecx, DWORD PTR _ent$[ebp]
	mov	eax, DWORD PTR [edx+264]
	call	eax
	test	eax, eax
	je	SHORT $LN2@MenuUnitSt

; 1024 : 					{
; 1025 : 						BuildSpecificTargetList(urec->GetID());

	lea	ecx, DWORD PTR $T2[ebp]
	push	ecx
	mov	ecx, DWORD PTR _urec$[ebp]
	call	?GetID@UI_Refresher@@QAE?AVVU_ID@@XZ	; UI_Refresher::GetID
	mov	edx, DWORD PTR [eax+4]
	push	edx
	mov	eax, DWORD PTR [eax]
	push	eax
	call	?BuildSpecificTargetList@@YAXVVU_ID@@@Z	; BuildSpecificTargetList
	add	esp, 8

; 1026 : 					}
; 1027 : 					else

	jmp	SHORT $LN20@MenuUnitSt
$LN2@MenuUnitSt:

; 1028 : 						SetupUnitInfoWindow(urec->GetID());

	lea	ecx, DWORD PTR $T1[ebp]
	push	ecx
	mov	ecx, DWORD PTR _urec$[ebp]
	call	?GetID@UI_Refresher@@QAE?AVVU_ID@@XZ	; UI_Refresher::GetID
	mov	edx, DWORD PTR [eax+4]
	push	edx
	mov	eax, DWORD PTR [eax]
	push	eax
	call	?SetupUnitInfoWindow@@YAXVVU_ID@@@Z	; SetupUnitInfoWindow
	add	esp, 8
$LN20@MenuUnitSt:

; 1029 : 				}
; 1030 : 			}
; 1031 : 		}
; 1032 : 	}
; 1033 : }

	pop	esi
	mov	esp, ebp
	pop	ebp
	ret	0
?MenuUnitStatusCB@@YAXJFPAVC_Base@@@Z ENDP		; MenuUnitStatusCB
_TEXT	ENDS
; Function compile flags: /Odtp
; File c:\users\zhitao li\documents\visual studio 2012\projects\freefalcon\ui\src\campaign\campmenu.cpp
_TEXT	SEGMENT
$T1 = -48						; size = 8
$T2 = -40						; size = 8
_tree$ = -32						; size = 4
_piggy$ = -28						; size = 4
_icon$ = -24						; size = 4
_ent$ = -20						; size = 4
_item$ = -16						; size = 4
_iconid$ = -12						; size = 4
_urec$ = -8						; size = 4
_caller$ = -4						; size = 4
___formal$ = 8						; size = 4
___formal$ = 12						; size = 2
___formal$ = 16						; size = 4
?MenuStatusCB@@YAXJFPAVC_Base@@@Z PROC			; MenuStatusCB

; 910  : {

	push	ebp
	mov	ebp, esp
	sub	esp, 48					; 00000030H

; 911  : 	C_Base *caller;
; 912  : 	C_MapIcon *icon;
; 913  : 	C_DrawList *piggy;
; 914  : 	C_TreeList *tree;
; 915  : 	TREELIST *item;
; 916  : 	long iconid;
; 917  : 	UI_Refresher *urec=NULL;

	mov	DWORD PTR _urec$[ebp], 0

; 918  : 	CampEntity ent;
; 919  : 
; 920  : 	gPopupMgr->CloseMenu();

	mov	ecx, DWORD PTR ?gPopupMgr@@3PAVC_PopupMgr@@A ; gPopupMgr
	call	?CloseMenu@C_PopupMgr@@QAEXXZ		; C_PopupMgr::CloseMenu

; 921  : 
; 922  : 	caller=gPopupMgr->GetCallingControl();

	mov	ecx, DWORD PTR ?gPopupMgr@@3PAVC_PopupMgr@@A ; gPopupMgr
	call	?GetCallingControl@C_PopupMgr@@QAEPAVC_Base@@XZ ; C_PopupMgr::GetCallingControl
	mov	DWORD PTR _caller$[ebp], eax

; 923  : 	if(caller == NULL)

	cmp	DWORD PTR _caller$[ebp], 0
	jne	SHORT $LN10@MenuStatus

; 924  : 		return;

	jmp	$LN11@MenuStatus
$LN10@MenuStatus:

; 925  : 
; 926  : 	if(gPopupMgr->GetCallingType() == C_TYPE_CONTROL)

	mov	ecx, DWORD PTR ?gPopupMgr@@3PAVC_PopupMgr@@A ; gPopupMgr
	call	?GetCallingType@C_PopupMgr@@QAEFXZ	; C_PopupMgr::GetCallingType
	cwde
	cmp	eax, 72					; 00000048H
	jne	$LN11@MenuStatus

; 927  : 	{
; 928  : 		// Recon this + very close Objects
; 929  : 		if(caller->_GetCType_() == _CNTL_MAPICON_)

	mov	ecx, DWORD PTR _caller$[ebp]
	call	?_GetCType_@C_Base@@QAEFXZ		; C_Base::_GetCType_
	movsx	ecx, ax
	cmp	ecx, 16389				; 00004005H
	jne	SHORT $LN8@MenuStatus

; 930  : 		{
; 931  : 			icon=(C_MapIcon *)caller;

	mov	edx, DWORD PTR _caller$[ebp]
	mov	DWORD PTR _icon$[ebp], edx

; 932  : 			iconid=icon->GetIconID();

	mov	ecx, DWORD PTR _icon$[ebp]
	call	?GetIconID@C_MapIcon@@QAEJXZ		; C_MapIcon::GetIconID
	mov	DWORD PTR _iconid$[ebp], eax

; 933  : 			urec=(UI_Refresher *)gGps->Find(iconid);

	mov	eax, DWORD PTR _iconid$[ebp]
	push	eax
	mov	ecx, DWORD PTR ?gGps@@3PAVGlobalPositioningSystem@@A ; gGps
	call	?Find@GlobalPositioningSystem@@QAEPAXJ@Z ; GlobalPositioningSystem::Find
	mov	DWORD PTR _urec$[ebp], eax
	jmp	SHORT $LN7@MenuStatus
$LN8@MenuStatus:

; 934  : 		}
; 935  : 		else if(caller->_GetCType_() == _CNTL_DRAWLIST_)

	mov	ecx, DWORD PTR _caller$[ebp]
	call	?_GetCType_@C_Base@@QAEFXZ		; C_Base::_GetCType_
	movsx	ecx, ax
	cmp	ecx, 16416				; 00004020H
	jne	SHORT $LN6@MenuStatus

; 936  : 		{
; 937  : 			piggy=(C_DrawList *)caller;

	mov	edx, DWORD PTR _caller$[ebp]
	mov	DWORD PTR _piggy$[ebp], edx

; 938  : 			iconid=piggy->GetIconID();

	mov	ecx, DWORD PTR _piggy$[ebp]
	call	?GetIconID@C_DrawList@@QAEJXZ		; C_DrawList::GetIconID
	mov	DWORD PTR _iconid$[ebp], eax

; 939  : 			urec=(UI_Refresher *)gGps->Find(iconid);

	mov	eax, DWORD PTR _iconid$[ebp]
	push	eax
	mov	ecx, DWORD PTR ?gGps@@3PAVGlobalPositioningSystem@@A ; gGps
	call	?Find@GlobalPositioningSystem@@QAEPAXJ@Z ; GlobalPositioningSystem::Find
	mov	DWORD PTR _urec$[ebp], eax
	jmp	SHORT $LN7@MenuStatus
$LN6@MenuStatus:

; 940  : 		}
; 941  : 		else if(caller->_GetCType_() == _CNTL_TREELIST_)

	mov	ecx, DWORD PTR _caller$[ebp]
	call	?_GetCType_@C_Base@@QAEFXZ		; C_Base::_GetCType_
	movsx	ecx, ax
	cmp	ecx, 16397				; 0000400dH
	jne	SHORT $LN7@MenuStatus

; 942  : 		{
; 943  : 			tree=(C_TreeList *)caller;

	mov	edx, DWORD PTR _caller$[ebp]
	mov	DWORD PTR _tree$[ebp], edx

; 944  : 			item=tree->GetLastItem();

	mov	ecx, DWORD PTR _tree$[ebp]
	call	?GetLastItem@C_TreeList@@QAEPAVTREELIST@@XZ ; C_TreeList::GetLastItem
	mov	DWORD PTR _item$[ebp], eax

; 945  : 			if(item)

	cmp	DWORD PTR _item$[ebp], 0
	je	SHORT $LN7@MenuStatus

; 946  : 				urec=(UI_Refresher *)gGps->Find(item->ID_);

	mov	eax, DWORD PTR _item$[ebp]
	mov	ecx, DWORD PTR [eax]
	push	ecx
	mov	ecx, DWORD PTR ?gGps@@3PAVGlobalPositioningSystem@@A ; gGps
	call	?Find@GlobalPositioningSystem@@QAEPAXJ@Z ; GlobalPositioningSystem::Find
	mov	DWORD PTR _urec$[ebp], eax
$LN7@MenuStatus:

; 947  : 		}
; 948  : 		if(urec)

	cmp	DWORD PTR _urec$[ebp], 0
	je	SHORT $LN11@MenuStatus

; 949  : 		{
; 950  : 			ent=(CampEntity)vuDatabase->Find(urec->GetID());

	lea	edx, DWORD PTR $T2[ebp]
	push	edx
	mov	ecx, DWORD PTR _urec$[ebp]
	call	?GetID@UI_Refresher@@QAE?AVVU_ID@@XZ	; UI_Refresher::GetID
	mov	ecx, DWORD PTR [eax+4]
	push	ecx
	mov	edx, DWORD PTR [eax]
	push	edx
	mov	ecx, DWORD PTR ?vuDatabase@@3PAVVuDatabase@@A ; vuDatabase
	call	?Find@VuDatabase@@QBEPAVVuEntity@@VVU_ID@@@Z ; VuDatabase::Find
	mov	DWORD PTR _ent$[ebp], eax

; 951  : 			if(ent)

	cmp	DWORD PTR _ent$[ebp], 0
	je	SHORT $LN11@MenuStatus

; 952  : 			{
; 953  : 				BuildSpecificTargetList(ent->Id());

	lea	eax, DWORD PTR $T1[ebp]
	push	eax
	mov	ecx, DWORD PTR _ent$[ebp]
	call	?Id@VuEntity@@QBE?AVVU_ID@@XZ		; VuEntity::Id
	mov	ecx, DWORD PTR [eax+4]
	push	ecx
	mov	edx, DWORD PTR [eax]
	push	edx
	call	?BuildSpecificTargetList@@YAXVVU_ID@@@Z	; BuildSpecificTargetList
	add	esp, 8
$LN11@MenuStatus:

; 954  : 			}
; 955  : 		}
; 956  : 	}
; 957  : }

	mov	esp, ebp
	pop	ebp
	ret	0
?MenuStatusCB@@YAXJFPAVC_Base@@@Z ENDP			; MenuStatusCB
_TEXT	ENDS
; Function compile flags: /Odtp
; File c:\users\zhitao li\documents\visual studio 2012\projects\freefalcon\ui\src\campaign\campmenu.cpp
_TEXT	SEGMENT
$T1 = -76						; size = 8
_maxy$ = -68						; size = 4
_tree$ = -64						; size = 4
_piggy$ = -60						; size = 4
_icon$ = -56						; size = 4
_scale$ = -52						; size = 4
_item$ = -48						; size = 4
_wp$ = -44						; size = 4
_iconid$ = -40						; size = 4
_wpicon$ = -36						; size = 4
_x$ = -32						; size = 4
_y$ = -28						; size = 4
_urec$ = -24						; size = 4
_range$ = -20						; size = 4
_ent$ = -16						; size = 4
_caller$ = -12						; size = 4
_rely$ = -8						; size = 2
_relx$ = -4						; size = 2
___formal$ = 8						; size = 4
___formal$ = 12						; size = 2
___formal$ = 16						; size = 4
?MenuReconCB@@YAXJFPAVC_Base@@@Z PROC			; MenuReconCB

; 808  : {

	push	ebp
	mov	ebp, esp
	sub	esp, 76					; 0000004cH
	push	esi

; 809  : 	C_Base *caller;
; 810  : 	C_MapIcon *icon;
; 811  : 	C_DrawList *piggy;
; 812  : 	C_TreeList *tree;
; 813  : 	C_Waypoint *wp;
; 814  : 	TREELIST *item;
; 815  : 	WAYPOINTLIST *wpicon;
; 816  : 	long iconid;
; 817  : 	UI_Refresher *urec=NULL;

	mov	DWORD PTR _urec$[ebp], 0

; 818  : 	float x=0.0f,y=0.0f,range=0.0f;

	movss	xmm0, DWORD PTR __real@00000000
	movss	DWORD PTR _x$[ebp], xmm0
	movss	xmm0, DWORD PTR __real@00000000
	movss	DWORD PTR _y$[ebp], xmm0
	movss	xmm0, DWORD PTR __real@00000000
	movss	DWORD PTR _range$[ebp], xmm0

; 819  : 	short relx,rely;
; 820  : 	float maxy, scale;
; 821  : 	CampEntity ent;
; 822  : 
; 823  : 	gPopupMgr->CloseMenu();

	mov	ecx, DWORD PTR ?gPopupMgr@@3PAVC_PopupMgr@@A ; gPopupMgr
	call	?CloseMenu@C_PopupMgr@@QAEXXZ		; C_PopupMgr::CloseMenu

; 824  : 
; 825  : 	caller=gPopupMgr->GetCallingControl();

	mov	ecx, DWORD PTR ?gPopupMgr@@3PAVC_PopupMgr@@A ; gPopupMgr
	call	?GetCallingControl@C_PopupMgr@@QAEPAVC_Base@@XZ ; C_PopupMgr::GetCallingControl
	mov	DWORD PTR _caller$[ebp], eax

; 826  : 	if(caller == NULL)

	cmp	DWORD PTR _caller$[ebp], 0
	jne	SHORT $LN19@MenuReconC

; 827  : 		return;

	jmp	$LN20@MenuReconC
$LN19@MenuReconC:

; 828  : 
; 829  : 	if(gPopupMgr->GetCallingType() == C_TYPE_CONTROL)

	mov	ecx, DWORD PTR ?gPopupMgr@@3PAVC_PopupMgr@@A ; gPopupMgr
	call	?GetCallingType@C_PopupMgr@@QAEFXZ	; C_PopupMgr::GetCallingType
	cwde
	cmp	eax, 72					; 00000048H
	jne	$LN2@MenuReconC

; 830  : 	{
; 831  : 		// Recon this + very close Objects
; 832  : 		if(caller->_GetCType_() == _CNTL_MAPICON_)

	mov	ecx, DWORD PTR _caller$[ebp]
	call	?_GetCType_@C_Base@@QAEFXZ		; C_Base::_GetCType_
	movsx	ecx, ax
	cmp	ecx, 16389				; 00004005H
	jne	SHORT $LN17@MenuReconC

; 833  : 		{
; 834  : 			icon=(C_MapIcon *)caller;

	mov	edx, DWORD PTR _caller$[ebp]
	mov	DWORD PTR _icon$[ebp], edx

; 835  : 			iconid=icon->GetIconID();

	mov	ecx, DWORD PTR _icon$[ebp]
	call	?GetIconID@C_MapIcon@@QAEJXZ		; C_MapIcon::GetIconID
	mov	DWORD PTR _iconid$[ebp], eax

; 836  : 			urec=(UI_Refresher *)gGps->Find(iconid);

	mov	eax, DWORD PTR _iconid$[ebp]
	push	eax
	mov	ecx, DWORD PTR ?gGps@@3PAVGlobalPositioningSystem@@A ; gGps
	call	?Find@GlobalPositioningSystem@@QAEPAXJ@Z ; GlobalPositioningSystem::Find
	mov	DWORD PTR _urec$[ebp], eax
	jmp	$LN6@MenuReconC
$LN17@MenuReconC:

; 837  : 		}
; 838  : 		else if(caller->_GetCType_() == _CNTL_WAYPOINT_)

	mov	ecx, DWORD PTR _caller$[ebp]
	call	?_GetCType_@C_Base@@QAEFXZ		; C_Base::_GetCType_
	movsx	ecx, ax
	cmp	ecx, 16406				; 00004016H
	jne	SHORT $LN15@MenuReconC

; 839  : 		{
; 840  : 			wp=(C_Waypoint *)caller;

	mov	edx, DWORD PTR _caller$[ebp]
	mov	DWORD PTR _wp$[ebp], edx

; 841  : 			if(wp)

	cmp	DWORD PTR _wp$[ebp], 0
	je	SHORT $LN13@MenuReconC

; 842  : 			{
; 843  : 				wpicon=wp->GetLast();

	mov	ecx, DWORD PTR _wp$[ebp]
	call	?GetLast@C_Waypoint@@QAEPAVWAYPOINTLIST@@XZ ; C_Waypoint::GetLast
	mov	DWORD PTR _wpicon$[ebp], eax

; 844  : 				if(wpicon)

	cmp	DWORD PTR _wpicon$[ebp], 0
	je	SHORT $LN13@MenuReconC

; 845  : 				{
; 846  : 					x=caller->GetUserNumber(0)-wpicon->worldy;

	push	0
	mov	ecx, DWORD PTR _caller$[ebp]
	call	?GetUserNumber@C_Base@@QAEJJ@Z		; C_Base::GetUserNumber
	cvtsi2ss xmm0, eax
	mov	eax, DWORD PTR _wpicon$[ebp]
	subss	xmm0, DWORD PTR [eax+28]
	movss	DWORD PTR _x$[ebp], xmm0

; 847  : 					y=wpicon->worldx;

	mov	ecx, DWORD PTR _wpicon$[ebp]
	movss	xmm0, DWORD PTR [ecx+24]
	movss	DWORD PTR _y$[ebp], xmm0

; 848  : 					range=18000.0f;

	movss	xmm0, DWORD PTR __real@468ca000
	movss	DWORD PTR _range$[ebp], xmm0
$LN13@MenuReconC:

; 849  : 				}
; 850  : 			}
; 851  : 		}

	jmp	$LN6@MenuReconC
$LN15@MenuReconC:

; 852  : 		else if(caller->_GetCType_() == _CNTL_DRAWLIST_)

	mov	ecx, DWORD PTR _caller$[ebp]
	call	?_GetCType_@C_Base@@QAEFXZ		; C_Base::_GetCType_
	movsx	edx, ax
	cmp	edx, 16416				; 00004020H
	jne	SHORT $LN11@MenuReconC

; 853  : 		{
; 854  : 			piggy=(C_DrawList *)caller;

	mov	eax, DWORD PTR _caller$[ebp]
	mov	DWORD PTR _piggy$[ebp], eax

; 855  : 			iconid=piggy->GetIconID();

	mov	ecx, DWORD PTR _piggy$[ebp]
	call	?GetIconID@C_DrawList@@QAEJXZ		; C_DrawList::GetIconID
	mov	DWORD PTR _iconid$[ebp], eax

; 856  : 			urec=(UI_Refresher *)gGps->Find(iconid);

	mov	ecx, DWORD PTR _iconid$[ebp]
	push	ecx
	mov	ecx, DWORD PTR ?gGps@@3PAVGlobalPositioningSystem@@A ; gGps
	call	?Find@GlobalPositioningSystem@@QAEPAXJ@Z ; GlobalPositioningSystem::Find
	mov	DWORD PTR _urec$[ebp], eax
	jmp	$LN6@MenuReconC
$LN11@MenuReconC:

; 857  : 		}
; 858  : 		else if(caller->_GetCType_() == _CNTL_TREELIST_)

	mov	ecx, DWORD PTR _caller$[ebp]
	call	?_GetCType_@C_Base@@QAEFXZ		; C_Base::_GetCType_
	movsx	edx, ax
	cmp	edx, 16397				; 0000400dH
	jne	SHORT $LN9@MenuReconC

; 859  : 		{
; 860  : 			tree=(C_TreeList *)caller;

	mov	eax, DWORD PTR _caller$[ebp]
	mov	DWORD PTR _tree$[ebp], eax

; 861  : 			item=tree->GetLastItem();

	mov	ecx, DWORD PTR _tree$[ebp]
	call	?GetLastItem@C_TreeList@@QAEPAVTREELIST@@XZ ; C_TreeList::GetLastItem
	mov	DWORD PTR _item$[ebp], eax

; 862  : 			if(item)

	cmp	DWORD PTR _item$[ebp], 0
	je	SHORT $LN8@MenuReconC

; 863  : 				urec=(UI_Refresher *)gGps->Find(item->ID_);

	mov	ecx, DWORD PTR _item$[ebp]
	mov	edx, DWORD PTR [ecx]
	push	edx
	mov	ecx, DWORD PTR ?gGps@@3PAVGlobalPositioningSystem@@A ; gGps
	call	?Find@GlobalPositioningSystem@@QAEPAXJ@Z ; GlobalPositioningSystem::Find
	mov	DWORD PTR _urec$[ebp], eax
$LN8@MenuReconC:

; 864  : 		}

	jmp	$LN6@MenuReconC
$LN9@MenuReconC:

; 865  : 		else if(caller->_GetCType_() == _CNTL_MAP_MOVER_)

	mov	ecx, DWORD PTR _caller$[ebp]
	call	?_GetCType_@C_Base@@QAEFXZ		; C_Base::_GetCType_
	cwde
	cmp	eax, 16405				; 00004015H
	jne	$LN6@MenuReconC

; 866  : 		{
; 867  : 			// Recon Area...
; 868  : 			range=18000.0f;

	movss	xmm0, DWORD PTR __real@468ca000
	movss	DWORD PTR _range$[ebp], xmm0

; 869  : 
; 870  : 			relx=static_cast<short>(((C_MapMover*)caller)->GetRelX() + caller->GetX() + caller->Parent_->GetX());

	mov	ecx, DWORD PTR _caller$[ebp]
	mov	edx, DWORD PTR [ecx]
	mov	ecx, DWORD PTR _caller$[ebp]
	mov	eax, DWORD PTR [edx+104]
	call	eax
	mov	esi, eax
	mov	ecx, DWORD PTR _caller$[ebp]
	call	?GetX@C_Base@@QAEJXZ			; C_Base::GetX
	add	esi, eax
	mov	ecx, DWORD PTR _caller$[ebp]
	mov	ecx, DWORD PTR [ecx+48]
	call	?GetX@C_Window@@QAEFXZ			; C_Window::GetX
	movsx	edx, ax
	add	esi, edx
	mov	WORD PTR _relx$[ebp], si

; 871  : 			rely=static_cast<short>(((C_MapMover*)caller)->GetRelY() + caller->GetY() + caller->Parent_->GetY());

	mov	eax, DWORD PTR _caller$[ebp]
	mov	edx, DWORD PTR [eax]
	mov	ecx, DWORD PTR _caller$[ebp]
	mov	eax, DWORD PTR [edx+108]
	call	eax
	mov	esi, eax
	mov	ecx, DWORD PTR _caller$[ebp]
	call	?GetY@C_Base@@QAEJXZ			; C_Base::GetY
	add	esi, eax
	mov	ecx, DWORD PTR _caller$[ebp]
	mov	ecx, DWORD PTR [ecx+48]
	call	?GetY@C_Window@@QAEFXZ			; C_Window::GetY
	movsx	edx, ax
	add	esi, edx
	mov	WORD PTR _rely$[ebp], si

; 872  : 			gMapMgr->GetMapRelativeXY (&relx, &rely);

	lea	eax, DWORD PTR _rely$[ebp]
	push	eax
	lea	ecx, DWORD PTR _relx$[ebp]
	push	ecx
	mov	ecx, DWORD PTR ?gMapMgr@@3PAVC_Map@@A	; gMapMgr
	call	?GetMapRelativeXY@C_Map@@QAEXPAF0@Z	; C_Map::GetMapRelativeXY

; 873  : 
; 874  : 			scale = gMapMgr->GetMapScale ();

	mov	ecx, DWORD PTR ?gMapMgr@@3PAVC_Map@@A	; gMapMgr
	call	?GetMapScale@C_Map@@QAEMXZ		; C_Map::GetMapScale
	fstp	DWORD PTR _scale$[ebp]

; 875  : 			maxy = gMapMgr->GetMaxY ();

	mov	ecx, DWORD PTR ?gMapMgr@@3PAVC_Map@@A	; gMapMgr
	call	?GetMaxY@C_Map@@QAEMXZ			; C_Map::GetMaxY
	fstp	DWORD PTR _maxy$[ebp]

; 876  : 
; 877  : 			// x & y are reversed for SIM
; 878  : 			y = relx / scale;

	movsx	edx, WORD PTR _relx$[ebp]
	cvtsi2ss xmm0, edx
	divss	xmm0, DWORD PTR _scale$[ebp]
	movss	DWORD PTR _y$[ebp], xmm0

; 879  : 			x = maxy - rely / scale;

	movsx	eax, WORD PTR _rely$[ebp]
	cvtsi2ss xmm0, eax
	divss	xmm0, DWORD PTR _scale$[ebp]
	movss	xmm1, DWORD PTR _maxy$[ebp]
	subss	xmm1, xmm0
	movss	DWORD PTR _x$[ebp], xmm1
$LN6@MenuReconC:

; 880  : 		}
; 881  : 
; 882  : 		if(urec)

	cmp	DWORD PTR _urec$[ebp], 0
	je	$LN2@MenuReconC

; 883  : 		{
; 884  : 			ent=(CampEntity)vuDatabase->Find(urec->GetID());

	lea	ecx, DWORD PTR $T1[ebp]
	push	ecx
	mov	ecx, DWORD PTR _urec$[ebp]
	call	?GetID@UI_Refresher@@QAE?AVVU_ID@@XZ	; UI_Refresher::GetID
	mov	edx, DWORD PTR [eax+4]
	push	edx
	mov	eax, DWORD PTR [eax]
	push	eax
	mov	ecx, DWORD PTR ?vuDatabase@@3PAVVuDatabase@@A ; vuDatabase
	call	?Find@VuDatabase@@QBEPAVVuEntity@@VVU_ID@@@Z ; VuDatabase::Find
	mov	DWORD PTR _ent$[ebp], eax

; 885  : 			if(ent)

	cmp	DWORD PTR _ent$[ebp], 0
	je	$LN2@MenuReconC

; 886  : 			{
; 887  : 				// 2002-02-21 ADDED BY S.G. If not spotted by the player's team or not editing a TE, can't recon...
; 888  : 				if (
; 889  : 					!(TheCampaign.Flags & CAMP_TACTICAL_EDIT) && 
; 890  : 					ent->IsFlight() && 
; 891  : 					(gGps->GetTeamNo() != ent->GetTeam()) && 
; 892  : 					!ent->GetIdentified(static_cast<Team>(gGps->GetTeamNo()))
; 893  : 				){

	mov	ecx, DWORD PTR ?TheCampaign@@3VCampaignClass@@A+64
	and	ecx, 524288				; 00080000H
	jne	SHORT $LN3@MenuReconC
	mov	edx, DWORD PTR _ent$[ebp]
	mov	eax, DWORD PTR [edx]
	mov	ecx, DWORD PTR _ent$[ebp]
	mov	edx, DWORD PTR [eax+248]
	call	edx
	test	eax, eax
	je	SHORT $LN3@MenuReconC
	mov	ecx, DWORD PTR ?gGps@@3PAVGlobalPositioningSystem@@A ; gGps
	call	?GetTeamNo@GlobalPositioningSystem@@QAEJXZ ; GlobalPositioningSystem::GetTeamNo
	mov	esi, eax
	mov	eax, DWORD PTR _ent$[ebp]
	mov	edx, DWORD PTR [eax]
	mov	ecx, DWORD PTR _ent$[ebp]
	mov	eax, DWORD PTR [edx+116]
	call	eax
	movzx	ecx, al
	cmp	esi, ecx
	je	SHORT $LN3@MenuReconC
	mov	ecx, DWORD PTR ?gGps@@3PAVGlobalPositioningSystem@@A ; gGps
	call	?GetTeamNo@GlobalPositioningSystem@@QAEJXZ ; GlobalPositioningSystem::GetTeamNo
	push	eax
	mov	ecx, DWORD PTR _ent$[ebp]
	call	?GetIdentified@CampBaseClass@@QAEHE@Z	; CampBaseClass::GetIdentified
	test	eax, eax
	jne	SHORT $LN3@MenuReconC

; 894  : 					range=0.0f;

	movss	xmm0, DWORD PTR __real@00000000
	movss	DWORD PTR _range$[ebp], xmm0

; 895  : 				}
; 896  : 				else {

	jmp	SHORT $LN2@MenuReconC
$LN3@MenuReconC:

; 897  : 					// END OF ADDED SECTION 2002-02-21
; 898  : 					range=6000.0f;

	movss	xmm0, DWORD PTR __real@45bb8000
	movss	DWORD PTR _range$[ebp], xmm0

; 899  : 					x=ent->XPos();

	mov	ecx, DWORD PTR _ent$[ebp]
	call	?XPos@VuEntity@@QBEMXZ			; VuEntity::XPos
	fstp	DWORD PTR _x$[ebp]

; 900  : 					y=ent->YPos();

	mov	ecx, DWORD PTR _ent$[ebp]
	call	?YPos@VuEntity@@QBEMXZ			; VuEntity::YPos
	fstp	DWORD PTR _y$[ebp]
$LN2@MenuReconC:

; 901  : 				}
; 902  : 			}
; 903  : 		}
; 904  : 	}
; 905  : 	if(range > 1.0f)

	movss	xmm0, DWORD PTR _range$[ebp]
	comiss	xmm0, DWORD PTR __real@3f800000
	jbe	SHORT $LN1@MenuReconC

; 906  : 		ReconArea(x,y,range);

	push	ecx
	movss	xmm0, DWORD PTR _range$[ebp]
	movss	DWORD PTR [esp], xmm0
	push	ecx
	movss	xmm0, DWORD PTR _y$[ebp]
	movss	DWORD PTR [esp], xmm0
	push	ecx
	movss	xmm0, DWORD PTR _x$[ebp]
	movss	DWORD PTR [esp], xmm0
	call	?ReconArea@@YAXMMM@Z			; ReconArea
	add	esp, 12					; 0000000cH
$LN1@MenuReconC:
$LN20@MenuReconC:

; 907  : }

	pop	esi
	mov	esp, ebp
	pop	ebp
	ret	0
?MenuReconCB@@YAXJFPAVC_Base@@@Z ENDP			; MenuReconCB
_TEXT	ENDS
; Function compile flags: /Odtp
; File c:\users\zhitao li\documents\visual studio 2012\projects\freefalcon\ui\src\campaign\campmenu.cpp
_TEXT	SEGMENT
$T1 = -52						; size = 8
_tree$ = -44						; size = 4
_piggy$ = -40						; size = 4
_icon$ = -36						; size = 4
_item$ = -32						; size = 4
_count$ = -28						; size = 4
_sec$ = -24						; size = 4
_iconid$ = -20						; size = 4
_urec$ = -16						; size = 4
_caller$ = -12						; size = 4
_unit$ = -8						; size = 4
_pkg$ = -4						; size = 4
___formal$ = 8						; size = 4
___formal$ = 12						; size = 2
___formal$ = 16						; size = 4
?MenuUnitDeleteCB@@YAXJFPAVC_Base@@@Z PROC		; MenuUnitDeleteCB

; 737  : {

	push	ebp
	mov	ebp, esp
	sub	esp, 52					; 00000034H

; 738  : 	C_Base *caller;
; 739  : 	C_MapIcon *icon;
; 740  : 	C_DrawList *piggy;
; 741  : 	C_TreeList *tree;
; 742  : 	TREELIST *item;
; 743  : 	long iconid,count;
; 744  : 	UI_Refresher *urec=NULL;

	mov	DWORD PTR _urec$[ebp], 0

; 745  : 	Unit unit,sec;
; 746  : 	Package pkg;
; 747  : 
; 748  : 	gPopupMgr->CloseMenu();

	mov	ecx, DWORD PTR ?gPopupMgr@@3PAVC_PopupMgr@@A ; gPopupMgr
	call	?CloseMenu@C_PopupMgr@@QAEXXZ		; C_PopupMgr::CloseMenu

; 749  : 
; 750  : 	caller=gPopupMgr->GetCallingControl();

	mov	ecx, DWORD PTR ?gPopupMgr@@3PAVC_PopupMgr@@A ; gPopupMgr
	call	?GetCallingControl@C_PopupMgr@@QAEPAVC_Base@@XZ ; C_PopupMgr::GetCallingControl
	mov	DWORD PTR _caller$[ebp], eax

; 751  : 	if(caller == NULL)

	cmp	DWORD PTR _caller$[ebp], 0
	jne	SHORT $LN17@MenuUnitDe

; 752  : 		return;

	jmp	$LN18@MenuUnitDe
$LN17@MenuUnitDe:

; 753  : 
; 754  : 	if(gPopupMgr->GetCallingType() == C_TYPE_CONTROL)

	mov	ecx, DWORD PTR ?gPopupMgr@@3PAVC_PopupMgr@@A ; gPopupMgr
	call	?GetCallingType@C_PopupMgr@@QAEFXZ	; C_PopupMgr::GetCallingType
	cwde
	cmp	eax, 72					; 00000048H
	jne	$LN18@MenuUnitDe

; 755  : 	{
; 756  : 		// Recon this + very close Objects
; 757  : 		if(caller->_GetCType_() == _CNTL_MAPICON_)

	mov	ecx, DWORD PTR _caller$[ebp]
	call	?_GetCType_@C_Base@@QAEFXZ		; C_Base::_GetCType_
	movsx	ecx, ax
	cmp	ecx, 16389				; 00004005H
	jne	SHORT $LN15@MenuUnitDe

; 758  : 		{
; 759  : 			icon=(C_MapIcon *)caller;

	mov	edx, DWORD PTR _caller$[ebp]
	mov	DWORD PTR _icon$[ebp], edx

; 760  : 			iconid=icon->GetIconID();

	mov	ecx, DWORD PTR _icon$[ebp]
	call	?GetIconID@C_MapIcon@@QAEJXZ		; C_MapIcon::GetIconID
	mov	DWORD PTR _iconid$[ebp], eax

; 761  : 			urec=(UI_Refresher *)gGps->Find(iconid);

	mov	eax, DWORD PTR _iconid$[ebp]
	push	eax
	mov	ecx, DWORD PTR ?gGps@@3PAVGlobalPositioningSystem@@A ; gGps
	call	?Find@GlobalPositioningSystem@@QAEPAXJ@Z ; GlobalPositioningSystem::Find
	mov	DWORD PTR _urec$[ebp], eax
	jmp	SHORT $LN14@MenuUnitDe
$LN15@MenuUnitDe:

; 762  : 		}
; 763  : 		else if(caller->_GetCType_() == _CNTL_DRAWLIST_)

	mov	ecx, DWORD PTR _caller$[ebp]
	call	?_GetCType_@C_Base@@QAEFXZ		; C_Base::_GetCType_
	movsx	ecx, ax
	cmp	ecx, 16416				; 00004020H
	jne	SHORT $LN13@MenuUnitDe

; 764  : 		{
; 765  : 			piggy=(C_DrawList *)caller;

	mov	edx, DWORD PTR _caller$[ebp]
	mov	DWORD PTR _piggy$[ebp], edx

; 766  : 			iconid=piggy->GetIconID();

	mov	ecx, DWORD PTR _piggy$[ebp]
	call	?GetIconID@C_DrawList@@QAEJXZ		; C_DrawList::GetIconID
	mov	DWORD PTR _iconid$[ebp], eax

; 767  : 			urec=(UI_Refresher *)gGps->Find(iconid);

	mov	eax, DWORD PTR _iconid$[ebp]
	push	eax
	mov	ecx, DWORD PTR ?gGps@@3PAVGlobalPositioningSystem@@A ; gGps
	call	?Find@GlobalPositioningSystem@@QAEPAXJ@Z ; GlobalPositioningSystem::Find
	mov	DWORD PTR _urec$[ebp], eax
	jmp	SHORT $LN14@MenuUnitDe
$LN13@MenuUnitDe:

; 768  : 		}
; 769  : 		else if(caller->_GetCType_() == _CNTL_TREELIST_)

	mov	ecx, DWORD PTR _caller$[ebp]
	call	?_GetCType_@C_Base@@QAEFXZ		; C_Base::_GetCType_
	movsx	ecx, ax
	cmp	ecx, 16397				; 0000400dH
	jne	SHORT $LN14@MenuUnitDe

; 770  : 		{
; 771  : 			tree=(C_TreeList *)caller;

	mov	edx, DWORD PTR _caller$[ebp]
	mov	DWORD PTR _tree$[ebp], edx

; 772  : 			item=tree->GetLastItem();

	mov	ecx, DWORD PTR _tree$[ebp]
	call	?GetLastItem@C_TreeList@@QAEPAVTREELIST@@XZ ; C_TreeList::GetLastItem
	mov	DWORD PTR _item$[ebp], eax

; 773  : 			if(item)

	cmp	DWORD PTR _item$[ebp], 0
	je	SHORT $LN14@MenuUnitDe

; 774  : 				urec=(UI_Refresher *)gGps->Find(item->ID_);

	mov	eax, DWORD PTR _item$[ebp]
	mov	ecx, DWORD PTR [eax]
	push	ecx
	mov	ecx, DWORD PTR ?gGps@@3PAVGlobalPositioningSystem@@A ; gGps
	call	?Find@GlobalPositioningSystem@@QAEPAXJ@Z ; GlobalPositioningSystem::Find
	mov	DWORD PTR _urec$[ebp], eax
$LN14@MenuUnitDe:

; 775  : 		}
; 776  : 		if(urec)

	cmp	DWORD PTR _urec$[ebp], 0
	je	$LN18@MenuUnitDe

; 777  : 		{
; 778  : 			unit=(Unit)vuDatabase->Find(urec->GetID());

	lea	edx, DWORD PTR $T1[ebp]
	push	edx
	mov	ecx, DWORD PTR _urec$[ebp]
	call	?GetID@UI_Refresher@@QAE?AVVU_ID@@XZ	; UI_Refresher::GetID
	mov	ecx, DWORD PTR [eax+4]
	push	ecx
	mov	edx, DWORD PTR [eax]
	push	edx
	mov	ecx, DWORD PTR ?vuDatabase@@3PAVVuDatabase@@A ; vuDatabase
	call	?Find@VuDatabase@@QBEPAVVuEntity@@VVU_ID@@@Z ; VuDatabase::Find
	mov	DWORD PTR _unit$[ebp], eax

; 779  : 			if(unit && unit->IsUnit())

	cmp	DWORD PTR _unit$[ebp], 0
	je	$LN18@MenuUnitDe
	mov	eax, DWORD PTR _unit$[ebp]
	mov	edx, DWORD PTR [eax]
	mov	ecx, DWORD PTR _unit$[ebp]
	mov	eax, DWORD PTR [edx+232]
	call	eax
	test	eax, eax
	je	$LN18@MenuUnitDe

; 780  : 			{
; 781  : 				pkg=NULL;

	mov	DWORD PTR _pkg$[ebp], 0

; 782  : 				count=0;

	mov	DWORD PTR _count$[ebp], 0

; 783  : 				if(unit->IsFlight())

	mov	ecx, DWORD PTR _unit$[ebp]
	mov	edx, DWORD PTR [ecx]
	mov	ecx, DWORD PTR _unit$[ebp]
	mov	eax, DWORD PTR [edx+248]
	call	eax
	test	eax, eax
	je	SHORT $LN7@MenuUnitDe

; 784  : 				{
; 785  : 					pkg=(Package)unit->GetUnitParent();

	mov	ecx, DWORD PTR _unit$[ebp]
	mov	edx, DWORD PTR [ecx]
	mov	ecx, DWORD PTR _unit$[ebp]
	mov	eax, DWORD PTR [edx+944]
	call	eax
	mov	DWORD PTR _pkg$[ebp], eax

; 786  : 					if(pkg && pkg->IsPackage())

	cmp	DWORD PTR _pkg$[ebp], 0
	je	SHORT $LN6@MenuUnitDe
	mov	ecx, DWORD PTR _pkg$[ebp]
	mov	edx, DWORD PTR [ecx]
	mov	ecx, DWORD PTR _pkg$[ebp]
	mov	eax, DWORD PTR [edx+256]
	call	eax
	test	eax, eax
	je	SHORT $LN6@MenuUnitDe

; 787  : 					{
; 788  : 						sec=pkg->GetFirstUnitElement();

	mov	ecx, DWORD PTR _pkg$[ebp]
	mov	edx, DWORD PTR [ecx]
	mov	ecx, DWORD PTR _pkg$[ebp]
	mov	eax, DWORD PTR [edx+996]
	call	eax
	mov	DWORD PTR _sec$[ebp], eax
$LN5@MenuUnitDe:

; 789  : 						while(sec)

	cmp	DWORD PTR _sec$[ebp], 0
	je	SHORT $LN4@MenuUnitDe

; 790  : 						{
; 791  : 							if(sec != unit)

	mov	ecx, DWORD PTR _sec$[ebp]
	cmp	ecx, DWORD PTR _unit$[ebp]
	je	SHORT $LN3@MenuUnitDe

; 792  : 								count++;

	mov	edx, DWORD PTR _count$[ebp]
	add	edx, 1
	mov	DWORD PTR _count$[ebp], edx
$LN3@MenuUnitDe:

; 793  : 							sec=pkg->GetNextUnitElement();

	mov	eax, DWORD PTR _pkg$[ebp]
	mov	edx, DWORD PTR [eax]
	mov	ecx, DWORD PTR _pkg$[ebp]
	mov	eax, DWORD PTR [edx+1000]
	call	eax
	mov	DWORD PTR _sec$[ebp], eax

; 794  : 						}

	jmp	SHORT $LN5@MenuUnitDe
$LN4@MenuUnitDe:

; 795  : 					}
; 796  : 					else

	jmp	SHORT $LN7@MenuUnitDe
$LN6@MenuUnitDe:

; 797  : 						pkg=NULL;

	mov	DWORD PTR _pkg$[ebp], 0
$LN7@MenuUnitDe:

; 798  : 				}
; 799  : 				unit->Remove();

	mov	ecx, DWORD PTR _unit$[ebp]
	call	?Remove@CampBaseClass@@QAEHXZ		; CampBaseClass::Remove

; 800  : 				if(pkg && !count)

	cmp	DWORD PTR _pkg$[ebp], 0
	je	SHORT $LN18@MenuUnitDe
	cmp	DWORD PTR _count$[ebp], 0
	jne	SHORT $LN18@MenuUnitDe

; 801  : 					pkg->Remove();

	mov	ecx, DWORD PTR _pkg$[ebp]
	call	?Remove@CampBaseClass@@QAEHXZ		; CampBaseClass::Remove
$LN18@MenuUnitDe:

; 802  : 			}
; 803  : 		}
; 804  : 	}
; 805  : }

	mov	esp, ebp
	pop	ebp
	ret	0
?MenuUnitDeleteCB@@YAXJFPAVC_Base@@@Z ENDP		; MenuUnitDeleteCB
_TEXT	ENDS
; Function compile flags: /Odtp
; File c:\users\zhitao li\documents\visual studio 2012\projects\freefalcon\ui\src\campaign\campmenu.cpp
_TEXT	SEGMENT
_wp$ = -8						; size = 4
_menu$ = -4						; size = 4
___formal$ = 8						; size = 4
___formal$ = 12						; size = 4
?SteerPointMenuOpenCB@@YAXPAVC_Base@@0@Z PROC		; SteerPointMenuOpenCB

; 708  : 	{

	push	ebp
	mov	ebp, esp
	sub	esp, 8

; 709  : 	C_PopupList *menu;
; 710  : 	WayPoint	wp;
; 711  : 
; 712  : 	// We've opened a steerpoint's popup menu. Setup current values!
; 713  : 	wp = GetSelectedWayPoint();

	call	?GetSelectedWayPoint@@YAPAVWayPointClass@@XZ ; GetSelectedWayPoint
	mov	DWORD PTR _wp$[ebp], eax

; 714  : 
; 715  : 	menu=gPopupMgr->GetMenu(STEERPOINT_POP);

	push	18198					; 00004716H
	mov	ecx, DWORD PTR ?gPopupMgr@@3PAVC_PopupMgr@@A ; gPopupMgr
	call	?GetMenu@C_PopupMgr@@QAEPAVC_PopupList@@J@Z ; C_PopupMgr::GetMenu
	mov	DWORD PTR _menu$[ebp], eax

; 716  : 	if(menu && wp)

	cmp	DWORD PTR _menu$[ebp], 0
	je	$LN8@SteerPoint
	cmp	DWORD PTR _wp$[ebp], 0
	je	$LN8@SteerPoint

; 717  : 		{
; 718  : 		if (wp->GetWPFlags() & WPF_TIME_LOCKED)

	mov	ecx, DWORD PTR _wp$[ebp]
	call	?GetWPFlags@WayPointClass@@QAEKXZ	; WayPointClass::GetWPFlags
	and	eax, 16384				; 00004000H
	je	SHORT $LN6@SteerPoint

; 719  : 			menu->SetItemState(MID_LOCK_TOS,1);

	push	1
	push	18106					; 000046baH
	mov	ecx, DWORD PTR _menu$[ebp]
	call	?SetItemState@C_PopupList@@QAEXJF@Z	; C_PopupList::SetItemState

; 720  : 		else

	jmp	SHORT $LN5@SteerPoint
$LN6@SteerPoint:

; 721  : 			menu->SetItemState(MID_LOCK_TOS,0);

	push	0
	push	18106					; 000046baH
	mov	ecx, DWORD PTR _menu$[ebp]
	call	?SetItemState@C_PopupList@@QAEXJF@Z	; C_PopupList::SetItemState
$LN5@SteerPoint:

; 722  : 		if (wp->GetWPFlags() & WPF_SPEED_LOCKED)

	mov	ecx, DWORD PTR _wp$[ebp]
	call	?GetWPFlags@WayPointClass@@QAEKXZ	; WayPointClass::GetWPFlags
	and	eax, 32768				; 00008000H
	je	SHORT $LN4@SteerPoint

; 723  : 			menu->SetItemState(MID_LOCK_SPEED,1);

	push	1
	push	18107					; 000046bbH
	mov	ecx, DWORD PTR _menu$[ebp]
	call	?SetItemState@C_PopupList@@QAEXJF@Z	; C_PopupList::SetItemState

; 724  : 		else

	jmp	SHORT $LN3@SteerPoint
$LN4@SteerPoint:

; 725  : 			menu->SetItemState(MID_LOCK_SPEED,0);

	push	0
	push	18107					; 000046bbH
	mov	ecx, DWORD PTR _menu$[ebp]
	call	?SetItemState@C_PopupList@@QAEXJF@Z	; C_PopupList::SetItemState
$LN3@SteerPoint:

; 726  : 		if (wp->GetWPFlags() & WPF_HOLDCURRENT)

	mov	ecx, DWORD PTR _wp$[ebp]
	call	?GetWPFlags@WayPointClass@@QAEKXZ	; WayPointClass::GetWPFlags
	and	eax, 2048				; 00000800H
	je	SHORT $LN2@SteerPoint

; 727  : 			menu->SetItemState(CLIMB_DELAY,1);

	push	1
	push	13060					; 00003304H
	mov	ecx, DWORD PTR _menu$[ebp]
	call	?SetItemState@C_PopupList@@QAEXJF@Z	; C_PopupList::SetItemState

; 728  : 		else

	jmp	SHORT $LN1@SteerPoint
$LN2@SteerPoint:

; 729  : 			menu->SetItemState(CLIMB_IMMEDIATE,1);

	push	1
	push	13059					; 00003303H
	mov	ecx, DWORD PTR _menu$[ebp]
	call	?SetItemState@C_PopupList@@QAEXJF@Z	; C_PopupList::SetItemState
$LN1@SteerPoint:

; 730  : 		menu->SetItemState(wp->GetWPFormation()+1,1);

	push	1
	mov	ecx, DWORD PTR _wp$[ebp]
	call	?GetWPFormation@WayPointClass@@QAEHXZ	; WayPointClass::GetWPFormation
	add	eax, 1
	push	eax
	mov	ecx, DWORD PTR _menu$[ebp]
	call	?SetItemState@C_PopupList@@QAEXJF@Z	; C_PopupList::SetItemState

; 731  : 		menu->SetItemState(wp->GetWPAction() | 0x200,1);

	push	1
	mov	ecx, DWORD PTR _wp$[ebp]
	call	?GetWPAction@WayPointClass@@QAEHXZ	; WayPointClass::GetWPAction
	or	eax, 512				; 00000200H
	push	eax
	mov	ecx, DWORD PTR _menu$[ebp]
	call	?SetItemState@C_PopupList@@QAEXJF@Z	; C_PopupList::SetItemState

; 732  : 		menu->SetItemState(wp->GetWPRouteAction() | 0x100,1);

	push	1
	mov	ecx, DWORD PTR _wp$[ebp]
	call	?GetWPRouteAction@WayPointClass@@QAEHXZ	; WayPointClass::GetWPRouteAction
	or	eax, 256				; 00000100H
	push	eax
	mov	ecx, DWORD PTR _menu$[ebp]
	call	?SetItemState@C_PopupList@@QAEXJF@Z	; C_PopupList::SetItemState
$LN8@SteerPoint:

; 733  : 		}
; 734  : 	}

	mov	esp, ebp
	pop	ebp
	ret	0
?SteerPointMenuOpenCB@@YAXPAVC_Base@@0@Z ENDP		; SteerPointMenuOpenCB
_TEXT	ENDS
; Function compile flags: /Odtp
; File c:\users\zhitao li\documents\visual studio 2012\projects\freefalcon\ui\src\campaign\campmenu.cpp
_TEXT	SEGMENT
_tmpID$ = -32						; size = 4
_i$ = -28						; size = 4
_caller$ = -24						; size = 4
_wp$ = -20						; size = 4
_control$ = -16						; size = 4
_unit$ = -12						; size = 4
_tmpID$1 = -8						; size = 4
_cwp$ = -4						; size = 4
?GetSelectedWayPoint@@YAPAVWayPointClass@@XZ PROC	; GetSelectedWayPoint

; 649  : 	{

	push	ebp
	mov	ebp, esp
	sub	esp, 32					; 00000020H

; 650  : 	C_Base			*caller;
; 651  : 	C_Base			*control;
; 652  : 	C_Waypoint		*cwp;
; 653  : 	VU_ID			*tmpID;
; 654  : 	Unit			unit;
; 655  : 	WayPoint		wp;
; 656  : 	int				i;
; 657  : 
; 658  : 	caller=gPopupMgr->GetCallingControl();

	mov	ecx, DWORD PTR ?gPopupMgr@@3PAVC_PopupMgr@@A ; gPopupMgr
	call	?GetCallingControl@C_PopupMgr@@QAEPAVC_Base@@XZ ; C_PopupMgr::GetCallingControl
	mov	DWORD PTR _caller$[ebp], eax

; 659  : 	if(caller == NULL)

	cmp	DWORD PTR _caller$[ebp], 0
	jne	SHORT $LN10@GetSelecte

; 660  : 		return NULL;

	xor	eax, eax
	jmp	$LN11@GetSelecte
$LN10@GetSelecte:

; 661  : 
; 662  : 	if (gPopupMgr->GetCallingType() == C_TYPE_CONTROL && caller->_GetCType_() == _CNTL_WAYPOINT_)

	mov	ecx, DWORD PTR ?gPopupMgr@@3PAVC_PopupMgr@@A ; gPopupMgr
	call	?GetCallingType@C_PopupMgr@@QAEFXZ	; C_PopupMgr::GetCallingType
	cwde
	cmp	eax, 72					; 00000048H
	jne	$LN9@GetSelecte
	mov	ecx, DWORD PTR _caller$[ebp]
	call	?_GetCType_@C_Base@@QAEFXZ		; C_Base::_GetCType_
	movsx	ecx, ax
	cmp	ecx, 16406				; 00004016H
	jne	$LN9@GetSelecte

; 663  : 	{
; 664  : 		// Waypoint
; 665  : 		cwp = (C_Waypoint *)caller;

	mov	edx, DWORD PTR _caller$[ebp]
	mov	DWORD PTR _cwp$[ebp], edx

; 666  : 		if (cwp && cwp->GetLast())

	cmp	DWORD PTR _cwp$[ebp], 0
	je	$LN9@GetSelecte
	mov	ecx, DWORD PTR _cwp$[ebp]
	call	?GetLast@C_Waypoint@@QAEPAVWAYPOINTLIST@@XZ ; C_Waypoint::GetLast
	test	eax, eax
	je	$LN9@GetSelecte

; 667  : 		{
; 668  : 			control = cwp->GetLast()->Icon;

	mov	ecx, DWORD PTR _cwp$[ebp]
	call	?GetLast@C_Waypoint@@QAEPAVWAYPOINTLIST@@XZ ; C_Waypoint::GetLast
	mov	eax, DWORD PTR [eax+32]
	mov	DWORD PTR _control$[ebp], eax

; 669  : 			if (!control)

	cmp	DWORD PTR _control$[ebp], 0
	jne	SHORT $LN7@GetSelecte

; 670  : 				return NULL;

	xor	eax, eax
	jmp	$LN11@GetSelecte
$LN7@GetSelecte:

; 671  : 
; 672  : 			tmpID=(VU_ID *)control->GetUserPtr(C_STATE_0);

	push	0
	mov	ecx, DWORD PTR _control$[ebp]
	call	?GetUserPtr@C_Base@@QAEPAXJ@Z		; C_Base::GetUserPtr
	mov	DWORD PTR _tmpID$[ebp], eax

; 673  : 			if (!tmpID) 

	cmp	DWORD PTR _tmpID$[ebp], 0
	jne	SHORT $LN6@GetSelecte

; 674  : 				return NULL;

	xor	eax, eax
	jmp	$LN11@GetSelecte
$LN6@GetSelecte:

; 675  : 
; 676  : 			// Check if this is our current waypoint set, and make sure our
; 677  : 			// global ids match this information.
; 678  : 			if (gMapMgr->GetCurWP() == cwp)

	mov	ecx, DWORD PTR ?gMapMgr@@3PAVC_Map@@A	; gMapMgr
	call	?GetCurWP@C_Map@@QAEPAVC_Waypoint@@XZ	; C_Map::GetCurWP
	cmp	eax, DWORD PTR _cwp$[ebp]
	jne	SHORT $LN5@GetSelecte

; 679  : 			{
; 680  : 				VU_ID			*tmpID;
; 681  : 
; 682  : 				tmpID=(VU_ID *)control->GetUserPtr(C_STATE_0);

	push	0
	mov	ecx, DWORD PTR _control$[ebp]
	call	?GetUserPtr@C_Base@@QAEPAXJ@Z		; C_Base::GetUserPtr
	mov	DWORD PTR _tmpID$1[ebp], eax

; 683  : 				if (tmpID && *tmpID != gActiveFlightID)

	cmp	DWORD PTR _tmpID$1[ebp], 0
	je	SHORT $LN5@GetSelecte
	push	OFFSET ?gActiveFlightID@@3VVU_ID@@A	; gActiveFlightID
	mov	ecx, DWORD PTR _tmpID$1[ebp]
	call	??9VU_ID@@QBE_NABV0@@Z			; VU_ID::operator!=
	movzx	ecx, al
	test	ecx, ecx
	je	SHORT $LN5@GetSelecte

; 684  : 				{
; 685  : 					gActiveFlightID = *tmpID;

	mov	edx, DWORD PTR _tmpID$1[ebp]
	mov	eax, DWORD PTR [edx]
	mov	ecx, DWORD PTR [edx+4]
	mov	DWORD PTR ?gActiveFlightID@@3VVU_ID@@A, eax
	mov	DWORD PTR ?gActiveFlightID@@3VVU_ID@@A+4, ecx

; 686  : 					gCurrentFlightID = *tmpID;

	mov	edx, DWORD PTR _tmpID$1[ebp]
	mov	eax, DWORD PTR [edx]
	mov	ecx, DWORD PTR [edx+4]
	mov	DWORD PTR ?gCurrentFlightID@@3VVU_ID@@A, eax
	mov	DWORD PTR ?gCurrentFlightID@@3VVU_ID@@A+4, ecx
$LN5@GetSelecte:

; 687  : 				}
; 688  : 			}
; 689  : 
; 690  : 			unit = FindUnit(*tmpID);

	mov	edx, DWORD PTR _tmpID$[ebp]
	mov	eax, DWORD PTR [edx+4]
	push	eax
	mov	ecx, DWORD PTR [edx]
	push	ecx
	call	?FindUnit@@YAPAVUnitClass@@VVU_ID@@@Z	; FindUnit
	add	esp, 8
	mov	DWORD PTR _unit$[ebp], eax

; 691  : 			if (unit && unit->IsFlight())

	cmp	DWORD PTR _unit$[ebp], 0
	je	SHORT $LN9@GetSelecte
	mov	edx, DWORD PTR _unit$[ebp]
	mov	eax, DWORD PTR [edx]
	mov	ecx, DWORD PTR _unit$[ebp]
	mov	edx, DWORD PTR [eax+248]
	call	edx
	test	eax, eax
	je	SHORT $LN9@GetSelecte

; 692  : 			{
; 693  : 				wp = unit->GetFirstUnitWP();

	mov	ecx, DWORD PTR _unit$[ebp]
	call	?GetFirstUnitWP@UnitClass@@QAEPAVWayPointClass@@XZ ; UnitClass::GetFirstUnitWP
	mov	DWORD PTR _wp$[ebp], eax

; 694  : 				i = 1;

	mov	DWORD PTR _i$[ebp], 1
$LN2@GetSelecte:

; 695  : 				while(i < control->GetUserNumber(C_STATE_1) && wp)

	push	1
	mov	ecx, DWORD PTR _control$[ebp]
	call	?GetUserNumber@C_Base@@QAEJJ@Z		; C_Base::GetUserNumber
	cmp	DWORD PTR _i$[ebp], eax
	jge	SHORT $LN1@GetSelecte
	cmp	DWORD PTR _wp$[ebp], 0
	je	SHORT $LN1@GetSelecte

; 696  : 				{
; 697  : 					wp=wp->GetNextWP();

	mov	ecx, DWORD PTR _wp$[ebp]
	call	?GetNextWP@WayPointClass@@QAEPAV1@XZ	; WayPointClass::GetNextWP
	mov	DWORD PTR _wp$[ebp], eax

; 698  : 					i++;

	mov	eax, DWORD PTR _i$[ebp]
	add	eax, 1
	mov	DWORD PTR _i$[ebp], eax

; 699  : 				}

	jmp	SHORT $LN2@GetSelecte
$LN1@GetSelecte:

; 700  : 				return wp;

	mov	eax, DWORD PTR _wp$[ebp]
	jmp	SHORT $LN11@GetSelecte
$LN9@GetSelecte:

; 701  : 			}
; 702  : 		}
; 703  : 	}
; 704  : 	return NULL;

	xor	eax, eax
$LN11@GetSelecte:

; 705  : }

	mov	esp, ebp
	pop	ebp
	ret	0
?GetSelectedWayPoint@@YAPAVWayPointClass@@XZ ENDP	; GetSelectedWayPoint
_TEXT	ENDS
; Function compile flags: /Odtp
; File c:\users\zhitao li\documents\visual studio 2012\projects\freefalcon\ui\src\campaign\campmenu.cpp
_TEXT	SEGMENT
_tree$ = -28						; size = 4
_piggy$ = -24						; size = 4
_icon$ = -20						; size = 4
_item$ = -16						; size = 4
_urec$ = -12						; size = 4
_iconid$ = -8						; size = 4
_caller$ = -4						; size = 4
___formal$ = 8						; size = 4
___formal$ = 12						; size = 2
___formal$ = 16						; size = 4
?MenuAlternateCB@@YAXJFPAVC_Base@@@Z PROC		; MenuAlternateCB

; 612  : {

	push	ebp
	mov	ebp, esp
	sub	esp, 28					; 0000001cH

; 613  : 	C_Base *caller;
; 614  : 	C_MapIcon *icon;
; 615  : 	C_DrawList *piggy;
; 616  : 	C_TreeList *tree;
; 617  : 	TREELIST *item;
; 618  : 	long iconid;
; 619  : 	UI_Refresher *urec=NULL;

	mov	DWORD PTR _urec$[ebp], 0

; 620  : 
; 621  : 	gPopupMgr->CloseMenu();

	mov	ecx, DWORD PTR ?gPopupMgr@@3PAVC_PopupMgr@@A ; gPopupMgr
	call	?CloseMenu@C_PopupMgr@@QAEXXZ		; C_PopupMgr::CloseMenu

; 622  : 
; 623  : 	caller=gPopupMgr->GetCallingControl();

	mov	ecx, DWORD PTR ?gPopupMgr@@3PAVC_PopupMgr@@A ; gPopupMgr
	call	?GetCallingControl@C_PopupMgr@@QAEPAVC_Base@@XZ ; C_PopupMgr::GetCallingControl
	mov	DWORD PTR _caller$[ebp], eax

; 624  : 	if(caller == NULL)

	cmp	DWORD PTR _caller$[ebp], 0
	jne	SHORT $LN7@MenuAltern

; 625  : 		return;

	jmp	$LN8@MenuAltern
$LN7@MenuAltern:

; 626  : 
; 627  : 	if(caller->_GetCType_() == _CNTL_MAPICON_)

	mov	ecx, DWORD PTR _caller$[ebp]
	call	?_GetCType_@C_Base@@QAEFXZ		; C_Base::_GetCType_
	cwde
	cmp	eax, 16389				; 00004005H
	jne	SHORT $LN6@MenuAltern

; 628  : 	{
; 629  : 		icon=(C_MapIcon *)caller;

	mov	ecx, DWORD PTR _caller$[ebp]
	mov	DWORD PTR _icon$[ebp], ecx

; 630  : 		iconid=icon->GetIconID();

	mov	ecx, DWORD PTR _icon$[ebp]
	call	?GetIconID@C_MapIcon@@QAEJXZ		; C_MapIcon::GetIconID
	mov	DWORD PTR _iconid$[ebp], eax

; 631  : 		urec=(UI_Refresher *)gGps->Find(iconid);

	mov	edx, DWORD PTR _iconid$[ebp]
	push	edx
	mov	ecx, DWORD PTR ?gGps@@3PAVGlobalPositioningSystem@@A ; gGps
	call	?Find@GlobalPositioningSystem@@QAEPAXJ@Z ; GlobalPositioningSystem::Find
	mov	DWORD PTR _urec$[ebp], eax
	jmp	SHORT $LN8@MenuAltern
$LN6@MenuAltern:

; 632  : 	}
; 633  : 	else if(caller->_GetCType_() == _CNTL_DRAWLIST_)

	mov	ecx, DWORD PTR _caller$[ebp]
	call	?_GetCType_@C_Base@@QAEFXZ		; C_Base::_GetCType_
	cwde
	cmp	eax, 16416				; 00004020H
	jne	SHORT $LN4@MenuAltern

; 634  : 	{
; 635  : 		piggy=(C_DrawList *)caller;

	mov	ecx, DWORD PTR _caller$[ebp]
	mov	DWORD PTR _piggy$[ebp], ecx

; 636  : 		iconid=piggy->GetIconID();

	mov	ecx, DWORD PTR _piggy$[ebp]
	call	?GetIconID@C_DrawList@@QAEJXZ		; C_DrawList::GetIconID
	mov	DWORD PTR _iconid$[ebp], eax

; 637  : 		urec=(UI_Refresher *)gGps->Find(iconid);

	mov	edx, DWORD PTR _iconid$[ebp]
	push	edx
	mov	ecx, DWORD PTR ?gGps@@3PAVGlobalPositioningSystem@@A ; gGps
	call	?Find@GlobalPositioningSystem@@QAEPAXJ@Z ; GlobalPositioningSystem::Find
	mov	DWORD PTR _urec$[ebp], eax
	jmp	SHORT $LN8@MenuAltern
$LN4@MenuAltern:

; 638  : 	}
; 639  : 	else if(caller->_GetCType_() == _CNTL_TREELIST_)

	mov	ecx, DWORD PTR _caller$[ebp]
	call	?_GetCType_@C_Base@@QAEFXZ		; C_Base::_GetCType_
	cwde
	cmp	eax, 16397				; 0000400dH
	jne	SHORT $LN8@MenuAltern

; 640  : 	{
; 641  : 		tree=(C_TreeList *)caller;

	mov	ecx, DWORD PTR _caller$[ebp]
	mov	DWORD PTR _tree$[ebp], ecx

; 642  : 		item=tree->GetLastItem();

	mov	ecx, DWORD PTR _tree$[ebp]
	call	?GetLastItem@C_TreeList@@QAEPAVTREELIST@@XZ ; C_TreeList::GetLastItem
	mov	DWORD PTR _item$[ebp], eax

; 643  : 		if(item)

	cmp	DWORD PTR _item$[ebp], 0
	je	SHORT $LN8@MenuAltern

; 644  : 			urec=(UI_Refresher *)gGps->Find(item->ID_);

	mov	edx, DWORD PTR _item$[ebp]
	mov	eax, DWORD PTR [edx]
	push	eax
	mov	ecx, DWORD PTR ?gGps@@3PAVGlobalPositioningSystem@@A ; gGps
	call	?Find@GlobalPositioningSystem@@QAEPAXJ@Z ; GlobalPositioningSystem::Find
	mov	DWORD PTR _urec$[ebp], eax
$LN8@MenuAltern:

; 645  : 	}
; 646  : }

	mov	esp, ebp
	pop	ebp
	ret	0
?MenuAlternateCB@@YAXJFPAVC_Base@@@Z ENDP		; MenuAlternateCB
_TEXT	ENDS
; Function compile flags: /Odtp
; File c:\users\zhitao li\documents\visual studio 2012\projects\freefalcon\ui\src\campaign\campmenu.cpp
_TEXT	SEGMENT
$T2 = -80						; size = 8
$T3 = -72						; size = 4
tv181 = -68						; size = 4
$T4 = -64						; size = 4
_tree$ = -60						; size = 4
_piggy$ = -56						; size = 4
_icon$ = -52						; size = 4
tv189 = -48						; size = 4
$T5 = -44						; size = 4
$T6 = -40						; size = 4
_item$ = -36						; size = 4
_iconid$ = -32						; size = 4
_urec$ = -28						; size = 4
_objective$ = -24					; size = 4
_caller$ = -20						; size = 4
_win$ = -16						; size = 4
__$EHRec$ = -12						; size = 12
___formal$ = 8						; size = 4
___formal$ = 12						; size = 2
___formal$ = 16						; size = 4
?MenuObjReconCB@@YAXJFPAVC_Base@@@Z PROC		; MenuObjReconCB

; 499  : {

	push	ebp
	mov	ebp, esp
	push	-1
	push	__ehhandler$?MenuObjReconCB@@YAXJFPAVC_Base@@@Z
	mov	eax, DWORD PTR fs:0
	push	eax
	sub	esp, 68					; 00000044H
	mov	eax, DWORD PTR ___security_cookie
	xor	eax, ebp
	push	eax
	lea	eax, DWORD PTR __$EHRec$[ebp]
	mov	DWORD PTR fs:0, eax

; 500  : 	Objective objective;
; 501  : 	C_Window *win;
; 502  : 	C_Base *caller;
; 503  : 	C_MapIcon *icon;
; 504  : 	C_DrawList *piggy;
; 505  : 	C_TreeList *tree;
; 506  : 	TREELIST *item;
; 507  : 	long iconid;
; 508  : 	UI_Refresher *urec=NULL;

	mov	DWORD PTR _urec$[ebp], 0

; 509  : 
; 510  : 	gPopupMgr->CloseMenu();

	mov	ecx, DWORD PTR ?gPopupMgr@@3PAVC_PopupMgr@@A ; gPopupMgr
	call	?CloseMenu@C_PopupMgr@@QAEXXZ		; C_PopupMgr::CloseMenu

; 511  : 
; 512  : 	caller=gPopupMgr->GetCallingControl();

	mov	ecx, DWORD PTR ?gPopupMgr@@3PAVC_PopupMgr@@A ; gPopupMgr
	call	?GetCallingControl@C_PopupMgr@@QAEPAVC_Base@@XZ ; C_PopupMgr::GetCallingControl
	mov	DWORD PTR _caller$[ebp], eax

; 513  : 	if(caller == NULL)

	cmp	DWORD PTR _caller$[ebp], 0
	jne	SHORT $LN14@MenuObjRec

; 514  : 		return;

	jmp	$LN15@MenuObjRec
$LN14@MenuObjRec:

; 515  : 
; 516  : 	if(caller->_GetCType_() == _CNTL_MAPICON_)

	mov	ecx, DWORD PTR _caller$[ebp]
	call	?_GetCType_@C_Base@@QAEFXZ		; C_Base::_GetCType_
	cwde
	cmp	eax, 16389				; 00004005H
	jne	SHORT $LN13@MenuObjRec

; 517  : 	{
; 518  : 		icon=(C_MapIcon *)caller;

	mov	ecx, DWORD PTR _caller$[ebp]
	mov	DWORD PTR _icon$[ebp], ecx

; 519  : 		iconid=icon->GetIconID();

	mov	ecx, DWORD PTR _icon$[ebp]
	call	?GetIconID@C_MapIcon@@QAEJXZ		; C_MapIcon::GetIconID
	mov	DWORD PTR _iconid$[ebp], eax

; 520  : 		urec=(UI_Refresher *)gGps->Find(iconid);

	mov	edx, DWORD PTR _iconid$[ebp]
	push	edx
	mov	ecx, DWORD PTR ?gGps@@3PAVGlobalPositioningSystem@@A ; gGps
	call	?Find@GlobalPositioningSystem@@QAEPAXJ@Z ; GlobalPositioningSystem::Find
	mov	DWORD PTR _urec$[ebp], eax
	jmp	SHORT $LN8@MenuObjRec
$LN13@MenuObjRec:

; 521  : 	}
; 522  : 	else if(caller->_GetCType_() == _CNTL_DRAWLIST_)

	mov	ecx, DWORD PTR _caller$[ebp]
	call	?_GetCType_@C_Base@@QAEFXZ		; C_Base::_GetCType_
	cwde
	cmp	eax, 16416				; 00004020H
	jne	SHORT $LN11@MenuObjRec

; 523  : 	{
; 524  : 		piggy=(C_DrawList *)caller;

	mov	ecx, DWORD PTR _caller$[ebp]
	mov	DWORD PTR _piggy$[ebp], ecx

; 525  : 		iconid=piggy->GetIconID();

	mov	ecx, DWORD PTR _piggy$[ebp]
	call	?GetIconID@C_DrawList@@QAEJXZ		; C_DrawList::GetIconID
	mov	DWORD PTR _iconid$[ebp], eax

; 526  : 		urec=(UI_Refresher *)gGps->Find(iconid);

	mov	edx, DWORD PTR _iconid$[ebp]
	push	edx
	mov	ecx, DWORD PTR ?gGps@@3PAVGlobalPositioningSystem@@A ; gGps
	call	?Find@GlobalPositioningSystem@@QAEPAXJ@Z ; GlobalPositioningSystem::Find
	mov	DWORD PTR _urec$[ebp], eax
	jmp	SHORT $LN8@MenuObjRec
$LN11@MenuObjRec:

; 527  : 	}
; 528  : 	else if(caller->_GetCType_() == _CNTL_TREELIST_)

	mov	ecx, DWORD PTR _caller$[ebp]
	call	?_GetCType_@C_Base@@QAEFXZ		; C_Base::_GetCType_
	cwde
	cmp	eax, 16397				; 0000400dH
	jne	SHORT $LN8@MenuObjRec

; 529  : 	{
; 530  : 		tree=(C_TreeList *)caller;

	mov	ecx, DWORD PTR _caller$[ebp]
	mov	DWORD PTR _tree$[ebp], ecx

; 531  : 		item=tree->GetLastItem();

	mov	ecx, DWORD PTR _tree$[ebp]
	call	?GetLastItem@C_TreeList@@QAEPAVTREELIST@@XZ ; C_TreeList::GetLastItem
	mov	DWORD PTR _item$[ebp], eax

; 532  : 		if(item)

	cmp	DWORD PTR _item$[ebp], 0
	je	SHORT $LN8@MenuObjRec

; 533  : 			urec=(UI_Refresher *)gGps->Find(item->ID_);

	mov	edx, DWORD PTR _item$[ebp]
	mov	eax, DWORD PTR [edx]
	push	eax
	mov	ecx, DWORD PTR ?gGps@@3PAVGlobalPositioningSystem@@A ; gGps
	call	?Find@GlobalPositioningSystem@@QAEPAXJ@Z ; GlobalPositioningSystem::Find
	mov	DWORD PTR _urec$[ebp], eax
$LN8@MenuObjRec:

; 534  : 	}
; 535  : 
; 536  : 	gPopupMgr->CloseMenu();

	mov	ecx, DWORD PTR ?gPopupMgr@@3PAVC_PopupMgr@@A ; gPopupMgr
	call	?CloseMenu@C_PopupMgr@@QAEXXZ		; C_PopupMgr::CloseMenu

; 537  : 
; 538  : 	SetCursor(gCursors[CRSR_WAIT]);

	mov	ecx, 4
	imul	ecx, 19					; 00000013H
	mov	edx, DWORD PTR ?gCursors@@3PAPAUHICON__@@A[ecx]
	push	edx
	call	DWORD PTR __imp__SetCursor@4

; 539  : 
; 540  : 	win=gMainHandler->FindWindow(RECON_WIN);

	push	18000					; 00004650H
	mov	ecx, DWORD PTR ?gMainHandler@@3PAVC_Handler@@A ; gMainHandler
	call	?FindWindowA@C_Handler@@QAEPAVC_Window@@J@Z ; C_Handler::FindWindowA
	mov	DWORD PTR _win$[ebp], eax

; 541  : 	if(win)

	cmp	DWORD PTR _win$[ebp], 0
	je	$LN7@MenuObjRec

; 542  : 	{
; 543  : 		CloseAllRenderers(RECON_WIN);

	push	18000					; 00004650H
	call	?CloseAllRenderers@@YAXJ@Z		; CloseAllRenderers
	add	esp, 4

; 544  : 		if(TargetTree)

	cmp	DWORD PTR ?TargetTree@@3PAVC_TreeList@@A, 0 ; TargetTree
	je	SHORT $LN6@MenuObjRec

; 545  : 			TargetTree->DeleteBranch(TargetTree->GetRoot());

	mov	ecx, DWORD PTR ?TargetTree@@3PAVC_TreeList@@A ; TargetTree
	call	?GetRoot@C_TreeList@@QAEPAVTREELIST@@XZ	; C_TreeList::GetRoot
	push	eax
	mov	ecx, DWORD PTR ?TargetTree@@3PAVC_TreeList@@A ; TargetTree
	call	?DeleteBranch@C_TreeList@@QAEXPAVTREELIST@@@Z ; C_TreeList::DeleteBranch
$LN6@MenuObjRec:

; 546  : 
; 547  : 		objective=(Objective)vuDatabase->Find(urec->GetID());

	lea	eax, DWORD PTR $T2[ebp]
	push	eax
	mov	ecx, DWORD PTR _urec$[ebp]
	call	?GetID@UI_Refresher@@QAE?AVVU_ID@@XZ	; UI_Refresher::GetID
	mov	ecx, DWORD PTR [eax+4]
	push	ecx
	mov	edx, DWORD PTR [eax]
	push	edx
	mov	ecx, DWORD PTR ?vuDatabase@@3PAVVuDatabase@@A ; vuDatabase
	call	?Find@VuDatabase@@QBEPAVVuEntity@@VVU_ID@@@Z ; VuDatabase::Find
	mov	DWORD PTR _objective$[ebp], eax

; 548  : 		if(objective == NULL)

	cmp	DWORD PTR _objective$[ebp], 0
	jne	SHORT $LN5@MenuObjRec

; 549  : 			return;

	jmp	$LN15@MenuObjRec
$LN5@MenuObjRec:

; 550  : 
; 551  : 		if(!objective->IsObjective())

	mov	eax, DWORD PTR _objective$[ebp]
	mov	edx, DWORD PTR [eax]
	mov	ecx, DWORD PTR _objective$[ebp]
	mov	eax, DWORD PTR [edx+236]
	call	eax
	test	eax, eax
	jne	SHORT $LN4@MenuObjRec

; 552  : 			return;

	jmp	$LN15@MenuObjRec
$LN4@MenuObjRec:

; 553  : 
; 554  : 		if(gUIViewer)

	cmp	DWORD PTR ?gUIViewer@@3PAVC_3dViewer@@A, 0 ; gUIViewer
	je	SHORT $LN18@MenuObjRec

; 555  : 		{
; 556  : 			gUIViewer->Cleanup();

	mov	ecx, DWORD PTR ?gUIViewer@@3PAVC_3dViewer@@A ; gUIViewer
	call	?Cleanup@C_3dViewer@@QAEHXZ		; C_3dViewer::Cleanup

; 557  : 			delete gUIViewer;

	mov	ecx, DWORD PTR ?gUIViewer@@3PAVC_3dViewer@@A ; gUIViewer
	mov	DWORD PTR $T4[ebp], ecx
	mov	edx, DWORD PTR $T4[ebp]
	mov	DWORD PTR $T6[ebp], edx
	cmp	DWORD PTR $T6[ebp], 0
	je	SHORT $LN17@MenuObjRec
	push	1
	mov	ecx, DWORD PTR $T6[ebp]
	call	??_GC_3dViewer@@QAEPAXI@Z
	mov	DWORD PTR tv181[ebp], eax
	jmp	SHORT $LN18@MenuObjRec
$LN17@MenuObjRec:
	mov	DWORD PTR tv181[ebp], 0
$LN18@MenuObjRec:

; 558  : 		}
; 559  : 
; 560  : 		gUIViewer=new C_3dViewer;

	push	180					; 000000b4H
	call	??2@YAPAXI@Z				; operator new
	add	esp, 4
	mov	DWORD PTR $T5[ebp], eax
	mov	DWORD PTR __$EHRec$[ebp+8], 0
	cmp	DWORD PTR $T5[ebp], 0
	je	SHORT $LN19@MenuObjRec
	mov	ecx, DWORD PTR $T5[ebp]
	call	??0C_3dViewer@@QAE@XZ			; C_3dViewer::C_3dViewer
	mov	DWORD PTR tv189[ebp], eax
	jmp	SHORT $LN20@MenuObjRec
$LN19@MenuObjRec:
	mov	DWORD PTR tv189[ebp], 0
$LN20@MenuObjRec:
	mov	eax, DWORD PTR tv189[ebp]
	mov	DWORD PTR $T3[ebp], eax
	mov	DWORD PTR __$EHRec$[ebp+8], -1
	mov	ecx, DWORD PTR $T3[ebp]
	mov	DWORD PTR ?gUIViewer@@3PAVC_3dViewer@@A, ecx ; gUIViewer

; 561  : 		gUIViewer->Setup();

	mov	ecx, DWORD PTR ?gUIViewer@@3PAVC_3dViewer@@A ; gUIViewer
	call	?Setup@C_3dViewer@@QAEHXZ		; C_3dViewer::Setup

; 562  : 		gUIViewer->Viewport(win,0); // use client 0 for this window

	push	0
	mov	edx, DWORD PTR _win$[ebp]
	push	edx
	mov	ecx, DWORD PTR ?gUIViewer@@3PAVC_3dViewer@@A ; gUIViewer
	call	?Viewport@C_3dViewer@@QAEXPAVC_Window@@J@Z ; C_3dViewer::Viewport

; 563  : 
; 564  : 		Recon.Heading=0.0f;

	movss	xmm0, DWORD PTR __real@00000000
	movss	DWORD PTR ?Recon@@3UOBJECTINFO@@A, xmm0

; 565  : 		Recon.Pitch=70.0f;

	movss	xmm0, DWORD PTR __real@428c0000
	movss	DWORD PTR ?Recon@@3UOBJECTINFO@@A+4, xmm0

; 566  : 		Recon.Distance=1000.0f;

	movss	xmm0, DWORD PTR __real@447a0000
	movss	DWORD PTR ?Recon@@3UOBJECTINFO@@A+8, xmm0

; 567  : 		Recon.Direction=0.0f;

	movss	xmm0, DWORD PTR __real@00000000
	movss	DWORD PTR ?Recon@@3UOBJECTINFO@@A+12, xmm0

; 568  : 
; 569  : 		Recon.MinDistance=250.0f;

	movss	xmm0, DWORD PTR __real@437a0000
	movss	DWORD PTR ?Recon@@3UOBJECTINFO@@A+40, xmm0

; 570  : 		Recon.MaxDistance=30000.0f;

	movss	xmm0, DWORD PTR __real@46ea6000
	movss	DWORD PTR ?Recon@@3UOBJECTINFO@@A+44, xmm0

; 571  : 		Recon.MinPitch=5;

	movss	xmm0, DWORD PTR __real@40a00000
	movss	DWORD PTR ?Recon@@3UOBJECTINFO@@A+52, xmm0

; 572  : 		Recon.MaxPitch=90;

	movss	xmm0, DWORD PTR __real@42b40000
	movss	DWORD PTR ?Recon@@3UOBJECTINFO@@A+56, xmm0

; 573  : 		Recon.CheckPitch=TRUE;

	mov	DWORD PTR ?Recon@@3UOBJECTINFO@@A+48, 1

; 574  : 
; 575  : 		Recon.PosX=objective->XPos();

	mov	ecx, DWORD PTR _objective$[ebp]
	call	?XPos@VuEntity@@QBEMXZ			; VuEntity::XPos
	fstp	DWORD PTR ?Recon@@3UOBJECTINFO@@A+16

; 576  : 		Recon.PosY=objective->YPos();

	mov	ecx, DWORD PTR _objective$[ebp]
	call	?YPos@VuEntity@@QBEMXZ			; VuEntity::YPos
	fstp	DWORD PTR ?Recon@@3UOBJECTINFO@@A+20

; 577  : 		Recon.PosZ=objective->ZPos();

	mov	ecx, DWORD PTR _objective$[ebp]
	call	?ZPos@VuEntity@@QBEMXZ			; VuEntity::ZPos
	fstp	DWORD PTR ?Recon@@3UOBJECTINFO@@A+24

; 578  : 
; 579  : 		AddObjectiveToTargetTree (objective);

	mov	eax, DWORD PTR _objective$[ebp]
	push	eax
	call	?AddObjectiveToTargetTree@@YAXPAVObjectiveClass@@@Z ; AddObjectiveToTargetTree

; 580  : 		GetGroundUnitsNear(Recon.PosX,Recon.PosY,10000.0f);

	movss	xmm0, DWORD PTR __real@461c4000
	movss	DWORD PTR [esp], xmm0
	push	ecx
	movss	xmm0, DWORD PTR ?Recon@@3UOBJECTINFO@@A+20
	movss	DWORD PTR [esp], xmm0
	push	ecx
	movss	xmm0, DWORD PTR ?Recon@@3UOBJECTINFO@@A+16
	movss	DWORD PTR [esp], xmm0
	call	?GetGroundUnitsNear@@YAXMMM@Z		; GetGroundUnitsNear
	add	esp, 12					; 0000000cH

; 581  : 
; 582  : 		SetBullsEye(win);

	mov	ecx, DWORD PTR _win$[ebp]
	push	ecx
	call	?SetBullsEye@@YAXPAVC_Window@@@Z	; SetBullsEye
	add	esp, 4

; 583  : 		SetSlantRange(win);

	mov	edx, DWORD PTR _win$[ebp]
	push	edx
	call	?SetSlantRange@@YAXPAVC_Window@@@Z	; SetSlantRange
	add	esp, 4

; 584  : 		SetHeading(win);

	mov	eax, DWORD PTR _win$[ebp]
	push	eax
	call	?SetHeading@@YAXPAVC_Window@@@Z		; SetHeading

; 585  : 
; 586  : 		gUIViewer->SetPosition(Recon.PosX,Recon.PosY,Recon.PosZ);

	movss	xmm0, DWORD PTR ?Recon@@3UOBJECTINFO@@A+24
	movss	DWORD PTR [esp], xmm0
	push	ecx
	movss	xmm0, DWORD PTR ?Recon@@3UOBJECTINFO@@A+20
	movss	DWORD PTR [esp], xmm0
	push	ecx
	movss	xmm0, DWORD PTR ?Recon@@3UOBJECTINFO@@A+16
	movss	DWORD PTR [esp], xmm0
	mov	ecx, DWORD PTR ?gUIViewer@@3PAVC_3dViewer@@A ; gUIViewer
	call	?SetPosition@C_3dViewer@@QAEXMMM@Z	; C_3dViewer::SetPosition

; 587  : 		gUIViewer->InitOTW(30.0f,FALSE);

	push	0
	push	ecx
	movss	xmm0, DWORD PTR __real@41f00000
	movss	DWORD PTR [esp], xmm0
	mov	ecx, DWORD PTR ?gUIViewer@@3PAVC_3dViewer@@A ; gUIViewer
	call	?InitOTW@C_3dViewer@@QAEHMH@Z		; C_3dViewer::InitOTW

; 588  : 		gUIViewer->AddAllToView();

	mov	ecx, DWORD PTR ?gUIViewer@@3PAVC_3dViewer@@A ; gUIViewer
	call	?AddAllToView@C_3dViewer@@QAEHXZ	; C_3dViewer::AddAllToView

; 589  : 
; 590  : 		win->ScanClientAreas();

	mov	ecx, DWORD PTR _win$[ebp]
	call	?ScanClientAreas@C_Window@@QAEXXZ	; C_Window::ScanClientAreas

; 591  : 		win->RefreshWindow();

	mov	ecx, DWORD PTR _win$[ebp]
	call	?RefreshWindow@C_Window@@QAEXXZ		; C_Window::RefreshWindow

; 592  : 
; 593  : 		PositionCamera(&Recon,win,0);

	push	0
	mov	ecx, DWORD PTR _win$[ebp]
	push	ecx
	push	OFFSET ?Recon@@3UOBJECTINFO@@A		; Recon
	call	?PositionCamera@@YAXPAUOBJECTINFO@@PAVC_Window@@J@Z ; PositionCamera
	add	esp, 12					; 0000000cH

; 594  : 		TheLoader.WaitLoader();

	mov	ecx, OFFSET ?TheLoader@@3VLoader@@A	; TheLoader
	call	?WaitLoader@Loader@@QAEXXZ		; Loader::WaitLoader

; 595  : 		PositionCamera(&Recon,win,0);

	push	0
	mov	edx, DWORD PTR _win$[ebp]
	push	edx
	push	OFFSET ?Recon@@3UOBJECTINFO@@A		; Recon
	call	?PositionCamera@@YAXPAUOBJECTINFO@@PAVC_Window@@J@Z ; PositionCamera
	add	esp, 12					; 0000000cH

; 596  : 
; 597  : 		gMainHandler->ShowWindow(win);

	mov	eax, DWORD PTR _win$[ebp]
	push	eax
	mov	ecx, DWORD PTR ?gMainHandler@@3PAVC_Handler@@A ; gMainHandler
	call	?ShowWindow@C_Handler@@QAEHPAVC_Window@@@Z ; C_Handler::ShowWindow

; 598  : 		gMainHandler->WindowToFront(win);

	mov	ecx, DWORD PTR _win$[ebp]
	push	ecx
	mov	ecx, DWORD PTR ?gMainHandler@@3PAVC_Handler@@A ; gMainHandler
	call	?WindowToFront@C_Handler@@QAEXPAVC_Window@@@Z ; C_Handler::WindowToFront
$LN7@MenuObjRec:

; 599  : 	}
; 600  : 	win=gMainHandler->FindWindow(RECON_LIST_WIN);

	push	18351					; 000047afH
	mov	ecx, DWORD PTR ?gMainHandler@@3PAVC_Handler@@A ; gMainHandler
	call	?FindWindowA@C_Handler@@QAEPAVC_Window@@J@Z ; C_Handler::FindWindowA
	mov	DWORD PTR _win$[ebp], eax

; 601  : 	if(win)

	cmp	DWORD PTR _win$[ebp], 0
	je	SHORT $LN2@MenuObjRec

; 602  : 	{
; 603  : 		if(TargetTree)

	cmp	DWORD PTR ?TargetTree@@3PAVC_TreeList@@A, 0 ; TargetTree
	je	SHORT $LN1@MenuObjRec

; 604  : 			TargetTree->RecalcSize();

	mov	ecx, DWORD PTR ?TargetTree@@3PAVC_TreeList@@A ; TargetTree
	call	?RecalcSize@C_TreeList@@QAEXXZ		; C_TreeList::RecalcSize
$LN1@MenuObjRec:

; 605  : 		gMainHandler->ShowWindow(win);

	mov	edx, DWORD PTR _win$[ebp]
	push	edx
	mov	ecx, DWORD PTR ?gMainHandler@@3PAVC_Handler@@A ; gMainHandler
	call	?ShowWindow@C_Handler@@QAEHPAVC_Window@@@Z ; C_Handler::ShowWindow

; 606  : 		gMainHandler->WindowToFront(win);

	mov	eax, DWORD PTR _win$[ebp]
	push	eax
	mov	ecx, DWORD PTR ?gMainHandler@@3PAVC_Handler@@A ; gMainHandler
	call	?WindowToFront@C_Handler@@QAEXPAVC_Window@@@Z ; C_Handler::WindowToFront
$LN2@MenuObjRec:

; 607  : 	}
; 608  : 	SetCursor(gCursors[CRSR_F16]);

	mov	ecx, 4
	shl	ecx, 0
	mov	edx, DWORD PTR ?gCursors@@3PAPAUHICON__@@A[ecx]
	push	edx
	call	DWORD PTR __imp__SetCursor@4
$LN15@MenuObjRec:

; 609  : }

	mov	ecx, DWORD PTR __$EHRec$[ebp]
	mov	DWORD PTR fs:0, ecx
	pop	ecx
	mov	esp, ebp
	pop	ebp
	ret	0
_TEXT	ENDS
text$x	SEGMENT
__unwindfunclet$?MenuObjReconCB@@YAXJFPAVC_Base@@@Z$0:
	mov	eax, DWORD PTR $T5[ebp]
	push	eax
	call	??3@YAXPAX@Z				; operator delete
	pop	ecx
	ret	0
__ehhandler$?MenuObjReconCB@@YAXJFPAVC_Base@@@Z:
	mov	edx, DWORD PTR [esp+8]
	lea	eax, DWORD PTR [edx+12]
	mov	ecx, DWORD PTR [edx-72]
	xor	ecx, eax
	call	@__security_check_cookie@4
	mov	eax, OFFSET __ehfuncinfo$?MenuObjReconCB@@YAXJFPAVC_Base@@@Z
	jmp	___CxxFrameHandler3
text$x	ENDS
?MenuObjReconCB@@YAXJFPAVC_Base@@@Z ENDP		; MenuObjReconCB
; Function compile flags: /Odtp
; File c:\users\zhitao li\documents\visual studio 2012\projects\freefalcon\ui\src\campaign\campmenu.cpp
_TEXT	SEGMENT
___formal$ = 8						; size = 4
___formal$ = 12						; size = 2
___formal$ = 16						; size = 4
?MenuToggleMovementArrowsCB@@YAXJFPAVC_Base@@@Z PROC	; MenuToggleMovementArrowsCB

; 492  : {

	push	ebp
	mov	ebp, esp

; 493  : }

	pop	ebp
	ret	0
?MenuToggleMovementArrowsCB@@YAXJFPAVC_Base@@@Z ENDP	; MenuToggleMovementArrowsCB
_TEXT	ENDS
; Function compile flags: /Odtp
; File c:\users\zhitao li\documents\visual studio 2012\projects\freefalcon\ui\src\campaign\campmenu.cpp
_TEXT	SEGMENT
___formal$ = 8						; size = 4
___formal$ = 12						; size = 2
___formal$ = 16						; size = 4
?MenuToggleTroupBoundariesCB@@YAXJFPAVC_Base@@@Z PROC	; MenuToggleTroupBoundariesCB

; 488  : {

	push	ebp
	mov	ebp, esp

; 489  : }

	pop	ebp
	ret	0
?MenuToggleTroupBoundariesCB@@YAXJFPAVC_Base@@@Z ENDP	; MenuToggleTroupBoundariesCB
_TEXT	ENDS
; Function compile flags: /Odtp
; File c:\users\zhitao li\documents\visual studio 2012\projects\freefalcon\ui\src\campaign\campmenu.cpp
_TEXT	SEGMENT
$T1 = -24						; size = 4
$T2 = -20						; size = 4
$T3 = -16						; size = 4
$T4 = -12						; size = 4
$T5 = -8						; size = 4
_menu$ = -4						; size = 4
___formal$ = 8						; size = 4
___formal$ = 12						; size = 2
___formal$ = 16						; size = 4
?MenuSetCirclesCB@@YAXJFPAVC_Base@@@Z PROC		; MenuSetCirclesCB

; 449  : {

	push	ebp
	mov	ebp, esp
	sub	esp, 24					; 00000018H

; 450  : 	using namespace FilterSaveStuff;	// Retro 26/10/03. Here I take note if a threat filter is enabled or disabled.
; 451  : 										// this works as radiobutton so only one may be active
; 452  : 
; 453  : 	C_PopupList *menu;
; 454  : 
; 455  : 	menu=gPopupMgr->GetMenu(MAP_POP);

	push	86000					; 00014ff0H
	mov	ecx, DWORD PTR ?gPopupMgr@@3PAVC_PopupMgr@@A ; gPopupMgr
	call	?GetMenu@C_PopupMgr@@QAEPAVC_PopupList@@J@Z ; C_PopupMgr::GetMenu
	mov	DWORD PTR _menu$[ebp], eax

; 456  : 	if(menu)

	cmp	DWORD PTR _menu$[ebp], 0
	je	$LN11@MenuSetCir

; 457  : 	{
; 458  : 		if(menu->GetItemState(MID_CIRCLE_SAM_LOW))

	push	86045					; 0001501dH
	mov	ecx, DWORD PTR _menu$[ebp]
	call	?GetItemState@C_PopupList@@QAEFJ@Z	; C_PopupList::GetItemState
	cwde
	test	eax, eax
	je	SHORT $LN8@MenuSetCir

; 459  : 		{
; 460  : 			filterState[CIRCLE_SAM_LOW] = true; filterState[CIRCLE_SAM_HIGH] = filterState[CIRCLE_RADAR_LOW] = filterState[CIRCLE_RADAR_HIGH] = false;

	mov	ecx, 1
	imul	ecx, 30					; 0000001eH
	mov	BYTE PTR ?filterState@FilterSaveStuff@@3PA_NA[ecx], 1
	mov	edx, 1
	imul	edx, 33					; 00000021H
	mov	DWORD PTR $T5[ebp], edx
	cmp	DWORD PTR $T5[ebp], 34			; 00000022H
	jae	SHORT $LN12@MenuSetCir
	jmp	SHORT $LN13@MenuSetCir
$LN12@MenuSetCir:
	call	___report_rangecheckfailure
$LN13@MenuSetCir:
	mov	eax, DWORD PTR $T5[ebp]
	mov	BYTE PTR ?filterState@FilterSaveStuff@@3PA_NA[eax], 0
	mov	ecx, 1
	shl	ecx, 5
	mov	BYTE PTR ?filterState@FilterSaveStuff@@3PA_NA[ecx], 0
	mov	edx, 1
	imul	edx, 31					; 0000001fH
	mov	BYTE PTR ?filterState@FilterSaveStuff@@3PA_NA[edx], 0

; 461  : 			gMapMgr->ShowThreatType(_THR_SAM_LOW);

	push	1
	mov	ecx, DWORD PTR ?gMapMgr@@3PAVC_Map@@A	; gMapMgr
	call	?ShowThreatType@C_Map@@QAEXJ@Z		; C_Map::ShowThreatType
	jmp	$LN7@MenuSetCir
$LN8@MenuSetCir:

; 462  : 		}
; 463  : 		else if(menu->GetItemState(MID_CIRCLE_SAM_HIGH))

	push	86046					; 0001501eH
	mov	ecx, DWORD PTR _menu$[ebp]
	call	?GetItemState@C_PopupList@@QAEFJ@Z	; C_PopupList::GetItemState
	cwde
	test	eax, eax
	je	SHORT $LN6@MenuSetCir

; 464  : 		{
; 465  : 			filterState[CIRCLE_SAM_HIGH] = true; filterState[CIRCLE_SAM_LOW] = filterState[CIRCLE_RADAR_LOW] = filterState[CIRCLE_RADAR_HIGH] = false;

	mov	ecx, 1
	imul	ecx, 31					; 0000001fH
	mov	BYTE PTR ?filterState@FilterSaveStuff@@3PA_NA[ecx], 1
	mov	edx, 1
	imul	edx, 33					; 00000021H
	mov	DWORD PTR $T4[ebp], edx
	cmp	DWORD PTR $T4[ebp], 34			; 00000022H
	jae	SHORT $LN14@MenuSetCir
	jmp	SHORT $LN15@MenuSetCir
$LN14@MenuSetCir:
	call	___report_rangecheckfailure
$LN15@MenuSetCir:
	mov	eax, DWORD PTR $T4[ebp]
	mov	BYTE PTR ?filterState@FilterSaveStuff@@3PA_NA[eax], 0
	mov	ecx, 1
	shl	ecx, 5
	mov	BYTE PTR ?filterState@FilterSaveStuff@@3PA_NA[ecx], 0
	mov	edx, 1
	imul	edx, 30					; 0000001eH
	mov	BYTE PTR ?filterState@FilterSaveStuff@@3PA_NA[edx], 0

; 466  : 			gMapMgr->ShowThreatType(_THR_SAM_HIGH);

	push	2
	mov	ecx, DWORD PTR ?gMapMgr@@3PAVC_Map@@A	; gMapMgr
	call	?ShowThreatType@C_Map@@QAEXJ@Z		; C_Map::ShowThreatType
	jmp	$LN7@MenuSetCir
$LN6@MenuSetCir:

; 467  : 		}
; 468  : 		else if(menu->GetItemState(MID_CIRCLE_RADAR_LOW))

	push	86047					; 0001501fH
	mov	ecx, DWORD PTR _menu$[ebp]
	call	?GetItemState@C_PopupList@@QAEFJ@Z	; C_PopupList::GetItemState
	cwde
	test	eax, eax
	je	SHORT $LN4@MenuSetCir

; 469  : 		{
; 470  : 			filterState[CIRCLE_RADAR_LOW] = true; filterState[CIRCLE_SAM_LOW] = filterState[CIRCLE_SAM_HIGH] = filterState[CIRCLE_RADAR_HIGH] = false;

	mov	ecx, 1
	shl	ecx, 5
	mov	BYTE PTR ?filterState@FilterSaveStuff@@3PA_NA[ecx], 1
	mov	edx, 1
	imul	edx, 33					; 00000021H
	mov	DWORD PTR $T3[ebp], edx
	cmp	DWORD PTR $T3[ebp], 34			; 00000022H
	jae	SHORT $LN16@MenuSetCir
	jmp	SHORT $LN17@MenuSetCir
$LN16@MenuSetCir:
	call	___report_rangecheckfailure
$LN17@MenuSetCir:
	mov	eax, DWORD PTR $T3[ebp]
	mov	BYTE PTR ?filterState@FilterSaveStuff@@3PA_NA[eax], 0
	mov	ecx, 1
	imul	ecx, 31					; 0000001fH
	mov	BYTE PTR ?filterState@FilterSaveStuff@@3PA_NA[ecx], 0
	mov	edx, 1
	imul	edx, 30					; 0000001eH
	mov	BYTE PTR ?filterState@FilterSaveStuff@@3PA_NA[edx], 0

; 471  : 			gMapMgr->ShowThreatType(_THR_RADAR_LOW);

	push	4
	mov	ecx, DWORD PTR ?gMapMgr@@3PAVC_Map@@A	; gMapMgr
	call	?ShowThreatType@C_Map@@QAEXJ@Z		; C_Map::ShowThreatType
	jmp	$LN7@MenuSetCir
$LN4@MenuSetCir:

; 472  : 		}
; 473  : 		else if(menu->GetItemState(MID_CIRCLE_RADAR_HIGH))

	push	86048					; 00015020H
	mov	ecx, DWORD PTR _menu$[ebp]
	call	?GetItemState@C_PopupList@@QAEFJ@Z	; C_PopupList::GetItemState
	cwde
	test	eax, eax
	je	SHORT $LN2@MenuSetCir

; 474  : 		{
; 475  : 			filterState[CIRCLE_RADAR_HIGH] = true; filterState[CIRCLE_SAM_LOW] = filterState[CIRCLE_SAM_HIGH] = filterState[CIRCLE_RADAR_LOW] = false;

	mov	ecx, 1
	imul	ecx, 33					; 00000021H
	mov	BYTE PTR ?filterState@FilterSaveStuff@@3PA_NA[ecx], 1
	mov	edx, 1
	shl	edx, 5
	mov	DWORD PTR $T2[ebp], edx
	cmp	DWORD PTR $T2[ebp], 34			; 00000022H
	jae	SHORT $LN18@MenuSetCir
	jmp	SHORT $LN19@MenuSetCir
$LN18@MenuSetCir:
	call	___report_rangecheckfailure
$LN19@MenuSetCir:
	mov	eax, DWORD PTR $T2[ebp]
	mov	BYTE PTR ?filterState@FilterSaveStuff@@3PA_NA[eax], 0
	mov	ecx, 1
	imul	ecx, 31					; 0000001fH
	mov	BYTE PTR ?filterState@FilterSaveStuff@@3PA_NA[ecx], 0
	mov	edx, 1
	imul	edx, 30					; 0000001eH
	mov	BYTE PTR ?filterState@FilterSaveStuff@@3PA_NA[edx], 0

; 476  : 			gMapMgr->ShowThreatType(_THR_RADAR_HIGH);

	push	8
	mov	ecx, DWORD PTR ?gMapMgr@@3PAVC_Map@@A	; gMapMgr
	call	?ShowThreatType@C_Map@@QAEXJ@Z		; C_Map::ShowThreatType

; 477  : 		}
; 478  : 		else

	jmp	SHORT $LN7@MenuSetCir
$LN2@MenuSetCir:

; 479  : 		{
; 480  : 			filterState[CIRCLE_SAM_LOW] = filterState[CIRCLE_SAM_HIGH] = filterState[CIRCLE_RADAR_LOW] = filterState[CIRCLE_RADAR_HIGH] = false;

	mov	eax, 1
	imul	eax, 33					; 00000021H
	mov	DWORD PTR $T1[ebp], eax
	cmp	DWORD PTR $T1[ebp], 34			; 00000022H
	jae	SHORT $LN20@MenuSetCir
	jmp	SHORT $LN21@MenuSetCir
$LN20@MenuSetCir:
	call	___report_rangecheckfailure
$LN21@MenuSetCir:
	mov	ecx, DWORD PTR $T1[ebp]
	mov	BYTE PTR ?filterState@FilterSaveStuff@@3PA_NA[ecx], 0
	mov	edx, 1
	shl	edx, 5
	mov	BYTE PTR ?filterState@FilterSaveStuff@@3PA_NA[edx], 0
	mov	eax, 1
	imul	eax, 31					; 0000001fH
	mov	BYTE PTR ?filterState@FilterSaveStuff@@3PA_NA[eax], 0
	mov	ecx, 1
	imul	ecx, 30					; 0000001eH
	mov	BYTE PTR ?filterState@FilterSaveStuff@@3PA_NA[ecx], 0

; 481  : 			gMapMgr->HideThreatType(_THR_SAM_LOW|_THR_SAM_HIGH|_THR_RADAR_LOW|_THR_RADAR_HIGH);

	push	15					; 0000000fH
	mov	ecx, DWORD PTR ?gMapMgr@@3PAVC_Map@@A	; gMapMgr
	call	?HideThreatType@C_Map@@QAEXJ@Z		; C_Map::HideThreatType
$LN7@MenuSetCir:

; 482  : 		}
; 483  : 		gMapMgr->DrawMap();

	mov	ecx, DWORD PTR ?gMapMgr@@3PAVC_Map@@A	; gMapMgr
	call	?DrawMap@C_Map@@QAEXXZ			; C_Map::DrawMap
$LN11@MenuSetCir:

; 484  : 	}
; 485  : }

	mov	esp, ebp
	pop	ebp
	ret	0
?MenuSetCirclesCB@@YAXJFPAVC_Base@@@Z ENDP		; MenuSetCirclesCB
_TEXT	ENDS
; Function compile flags: /Odtp
; File c:\users\zhitao li\documents\visual studio 2012\projects\freefalcon\ui\src\campaign\campmenu.cpp
_TEXT	SEGMENT
$T1 = -4						; size = 4
_ID$ = 8						; size = 4
___formal$ = 12						; size = 2
_control$ = 16						; size = 4
?MenuToggleBullseyeCB@@YAXJFPAVC_Base@@@Z PROC		; MenuToggleBullseyeCB

; 435  : {

	push	ebp
	mov	ebp, esp
	push	ecx

; 436  : 	using namespace FilterSaveStuff;	// Retro 26/10/03. Here I take note if the bullseye is enabled or disabled
; 437  : 
; 438  : 	if(((C_PopupList *)control)->GetItemState(ID))

	mov	eax, DWORD PTR _ID$[ebp]
	push	eax
	mov	ecx, DWORD PTR _control$[ebp]
	call	?GetItemState@C_PopupList@@QAEFJ@Z	; C_PopupList::GetItemState
	movsx	ecx, ax
	test	ecx, ecx
	je	SHORT $LN2@MenuToggle

; 439  : 	{
; 440  : 		gMapMgr->TurnOnBullseye();filterState[LE_BULLSEYE] = true;

	mov	ecx, DWORD PTR ?gMapMgr@@3PAVC_Map@@A	; gMapMgr
	call	?TurnOnBullseye@C_Map@@QAEXXZ		; C_Map::TurnOnBullseye
	mov	edx, 1
	imul	edx, 0
	mov	BYTE PTR ?filterState@FilterSaveStuff@@3PA_NA[edx], 1

; 441  : 	}
; 442  : 	else

	jmp	SHORT $LN1@MenuToggle
$LN2@MenuToggle:

; 443  : 	{
; 444  : 		gMapMgr->TurnOffBullseye();filterState[LE_BULLSEYE] = false;

	mov	ecx, DWORD PTR ?gMapMgr@@3PAVC_Map@@A	; gMapMgr
	call	?TurnOffBullseye@C_Map@@QAEXXZ		; C_Map::TurnOffBullseye
	mov	eax, 1
	imul	eax, 0
	mov	DWORD PTR $T1[ebp], eax
	cmp	DWORD PTR $T1[ebp], 34			; 00000022H
	jae	SHORT $LN5@MenuToggle
	jmp	SHORT $LN6@MenuToggle
$LN5@MenuToggle:
	call	___report_rangecheckfailure
$LN6@MenuToggle:
	mov	ecx, DWORD PTR $T1[ebp]
	mov	BYTE PTR ?filterState@FilterSaveStuff@@3PA_NA[ecx], 0
$LN1@MenuToggle:

; 445  : 	}
; 446  : 	gMapMgr->DrawMap();

	mov	ecx, DWORD PTR ?gMapMgr@@3PAVC_Map@@A	; gMapMgr
	call	?DrawMap@C_Map@@QAEXXZ			; C_Map::DrawMap
$LN4@MenuToggle:

; 447  : }

	mov	esp, ebp
	pop	ebp
	ret	0
?MenuToggleBullseyeCB@@YAXJFPAVC_Base@@@Z ENDP		; MenuToggleBullseyeCB
_TEXT	ENDS
; Function compile flags: /Odtp
; File c:\users\zhitao li\documents\visual studio 2012\projects\freefalcon\ui\src\campaign\campmenu.cpp
_TEXT	SEGMENT
$T1 = -4						; size = 4
_ID$ = 8						; size = 4
___formal$ = 12						; size = 2
_control$ = 16						; size = 4
?MenuToggleNamesCB@@YAXJFPAVC_Base@@@Z PROC		; MenuToggleNamesCB

; 420  : {

	push	ebp
	mov	ebp, esp
	push	ecx

; 421  : 	using namespace FilterSaveStuff;	// Retro 26/10/03. Here I take note if map names are enabled or disabled
; 422  : 
; 423  : 	if(((C_PopupList *)control)->GetItemState(ID))

	mov	eax, DWORD PTR _ID$[ebp]
	push	eax
	mov	ecx, DWORD PTR _control$[ebp]
	call	?GetItemState@C_PopupList@@QAEFJ@Z	; C_PopupList::GetItemState
	movsx	ecx, ax
	test	ecx, ecx
	je	SHORT $LN2@MenuToggle

; 424  : 	{
; 425  : 		gMapMgr->TurnOnNames();filterState[LE_LABELS] = true;

	mov	ecx, DWORD PTR ?gMapMgr@@3PAVC_Map@@A	; gMapMgr
	call	?TurnOnNames@C_Map@@QAEXXZ		; C_Map::TurnOnNames
	mov	edx, 1
	shl	edx, 0
	mov	BYTE PTR ?filterState@FilterSaveStuff@@3PA_NA[edx], 1

; 426  : 	}
; 427  : 	else

	jmp	SHORT $LN1@MenuToggle
$LN2@MenuToggle:

; 428  : 	{
; 429  : 		gMapMgr->TurnOffNames();filterState[LE_LABELS] = false;

	mov	ecx, DWORD PTR ?gMapMgr@@3PAVC_Map@@A	; gMapMgr
	call	?TurnOffNames@C_Map@@QAEXXZ		; C_Map::TurnOffNames
	mov	DWORD PTR $T1[ebp], 1
	cmp	DWORD PTR $T1[ebp], 34			; 00000022H
	jae	SHORT $LN5@MenuToggle
	jmp	SHORT $LN6@MenuToggle
$LN5@MenuToggle:
	call	___report_rangecheckfailure
$LN6@MenuToggle:
	mov	eax, DWORD PTR $T1[ebp]
	mov	BYTE PTR ?filterState@FilterSaveStuff@@3PA_NA[eax], 0
$LN1@MenuToggle:

; 430  : 	}
; 431  : 	gMapMgr->DrawMap();

	mov	ecx, DWORD PTR ?gMapMgr@@3PAVC_Map@@A	; gMapMgr
	call	?DrawMap@C_Map@@QAEXXZ			; C_Map::DrawMap
$LN4@MenuToggle:

; 432  : }

	mov	esp, ebp
	pop	ebp
	ret	0
?MenuToggleNamesCB@@YAXJFPAVC_Base@@@Z ENDP		; MenuToggleNamesCB
_TEXT	ENDS
; Function compile flags: /Odtp
; File c:\users\zhitao li\documents\visual studio 2012\projects\freefalcon\ui\src\campaign\campmenu.cpp
_TEXT	SEGMENT
$T1 = -68						; size = 4
$T2 = -64						; size = 4
$T3 = -60						; size = 4
$T4 = -56						; size = 4
$T5 = -52						; size = 4
$T6 = -48						; size = 4
$T7 = -44						; size = 4
$T8 = -40						; size = 4
$T9 = -36						; size = 4
$T10 = -32						; size = 4
$T11 = -28						; size = 4
$T12 = -24						; size = 4
$T13 = -20						; size = 4
$T14 = -16						; size = 4
$T15 = -12						; size = 4
$T16 = -8						; size = 4
tv64 = -4						; size = 4
_ID$ = 8						; size = 4
___formal$ = 12						; size = 2
_control$ = 16						; size = 4
?MenuToggleUnitCB@@YAXJFPAVC_Base@@@Z PROC		; MenuToggleUnitCB

; 264  : {

	push	ebp
	mov	ebp, esp
	sub	esp, 68					; 00000044H

; 265  : 	using namespace FilterSaveStuff;	// Retro 26/10/03. Here I take note if a certain unit filter is enabled or disabled
; 266  : 
; 267  : 	switch(ID)

	mov	eax, DWORD PTR _ID$[ebp]
	mov	DWORD PTR tv64[ebp], eax
	mov	ecx, DWORD PTR tv64[ebp]
	sub	ecx, 86030				; 0001500eH
	mov	DWORD PTR tv64[ebp], ecx
	cmp	DWORD PTR tv64[ebp], 21			; 00000015H
	ja	$LN44@MenuToggle
	mov	edx, DWORD PTR tv64[ebp]
	jmp	DWORD PTR $LN80@MenuToggle[edx*4]
$LN43@MenuToggle:

; 268  : 	{
; 269  : 		case MID_UNITS_DIV:
; 270  : 			gMapMgr->SetUnitLevel(0); filterState[UNITS_DIV] = true; filterState[UNITS_BRIG] = filterState[UNITS_BAT] = false;

	push	0
	mov	ecx, DWORD PTR ?gMapMgr@@3PAVC_Map@@A	; gMapMgr
	call	?SetUnitLevel@C_Map@@QAEXJ@Z		; C_Map::SetUnitLevel
	mov	eax, 1
	imul	eax, 14					; 0000000eH
	mov	BYTE PTR ?filterState@FilterSaveStuff@@3PA_NA[eax], 1
	mov	ecx, 1
	shl	ecx, 4
	mov	DWORD PTR $T16[ebp], ecx
	cmp	DWORD PTR $T16[ebp], 34			; 00000022H
	jae	SHORT $LN48@MenuToggle
	jmp	SHORT $LN49@MenuToggle
$LN48@MenuToggle:
	call	___report_rangecheckfailure
$LN49@MenuToggle:
	mov	edx, DWORD PTR $T16[ebp]
	mov	BYTE PTR ?filterState@FilterSaveStuff@@3PA_NA[edx], 0
	mov	eax, 1
	imul	eax, 15					; 0000000fH
	mov	BYTE PTR ?filterState@FilterSaveStuff@@3PA_NA[eax], 0

; 271  : 			break;

	jmp	$LN44@MenuToggle
$LN42@MenuToggle:

; 272  : 		case MID_UNITS_BRIG:
; 273  : 			gMapMgr->SetUnitLevel(1); filterState[UNITS_BRIG] = true; filterState[UNITS_DIV] = filterState[UNITS_BAT] = false;

	push	1
	mov	ecx, DWORD PTR ?gMapMgr@@3PAVC_Map@@A	; gMapMgr
	call	?SetUnitLevel@C_Map@@QAEXJ@Z		; C_Map::SetUnitLevel
	mov	ecx, 1
	imul	ecx, 15					; 0000000fH
	mov	BYTE PTR ?filterState@FilterSaveStuff@@3PA_NA[ecx], 1
	mov	edx, 1
	shl	edx, 4
	mov	DWORD PTR $T15[ebp], edx
	cmp	DWORD PTR $T15[ebp], 34			; 00000022H
	jae	SHORT $LN50@MenuToggle
	jmp	SHORT $LN51@MenuToggle
$LN50@MenuToggle:
	call	___report_rangecheckfailure
$LN51@MenuToggle:
	mov	eax, DWORD PTR $T15[ebp]
	mov	BYTE PTR ?filterState@FilterSaveStuff@@3PA_NA[eax], 0
	mov	ecx, 1
	imul	ecx, 14					; 0000000eH
	mov	BYTE PTR ?filterState@FilterSaveStuff@@3PA_NA[ecx], 0

; 274  : 			break;

	jmp	$LN44@MenuToggle
$LN41@MenuToggle:

; 275  : 		case MID_UNITS_BAT:
; 276  : 			gMapMgr->SetUnitLevel(2); filterState[UNITS_BAT] = true; filterState[UNITS_DIV] = filterState[UNITS_BRIG] = false;

	push	2
	mov	ecx, DWORD PTR ?gMapMgr@@3PAVC_Map@@A	; gMapMgr
	call	?SetUnitLevel@C_Map@@QAEXJ@Z		; C_Map::SetUnitLevel
	mov	edx, 1
	shl	edx, 4
	mov	BYTE PTR ?filterState@FilterSaveStuff@@3PA_NA[edx], 1
	mov	eax, 1
	imul	eax, 15					; 0000000fH
	mov	DWORD PTR $T14[ebp], eax
	cmp	DWORD PTR $T14[ebp], 34			; 00000022H
	jae	SHORT $LN52@MenuToggle
	jmp	SHORT $LN53@MenuToggle
$LN52@MenuToggle:
	call	___report_rangecheckfailure
$LN53@MenuToggle:
	mov	ecx, DWORD PTR $T14[ebp]
	mov	BYTE PTR ?filterState@FilterSaveStuff@@3PA_NA[ecx], 0
	mov	edx, 1
	imul	edx, 14					; 0000000eH
	mov	BYTE PTR ?filterState@FilterSaveStuff@@3PA_NA[edx], 0

; 277  : 			break;

	jmp	$LN44@MenuToggle
$LN40@MenuToggle:

; 278  : 		case MID_UNITS_COMBAT:
; 279  : 			if(((C_PopupList *)control)->GetItemState(ID))

	mov	eax, DWORD PTR _ID$[ebp]
	push	eax
	mov	ecx, DWORD PTR _control$[ebp]
	call	?GetItemState@C_PopupList@@QAEFJ@Z	; C_PopupList::GetItemState
	movsx	ecx, ax
	test	ecx, ecx
	je	SHORT $LN39@MenuToggle

; 280  : 			{
; 281  : 				gMapMgr->ShowUnitType(_UNIT_COMBAT); filterState[UNITS_COMBAT] = true;

	push	2
	mov	ecx, DWORD PTR ?gMapMgr@@3PAVC_Map@@A	; gMapMgr
	call	?ShowUnitType@C_Map@@QAEXJ@Z		; C_Map::ShowUnitType
	mov	edx, 1
	imul	edx, 17					; 00000011H
	mov	BYTE PTR ?filterState@FilterSaveStuff@@3PA_NA[edx], 1

; 282  : 			}
; 283  : 			else

	jmp	SHORT $LN38@MenuToggle
$LN39@MenuToggle:

; 284  : 			{
; 285  : 				gMapMgr->HideUnitType(_UNIT_COMBAT); filterState[UNITS_COMBAT] = false;

	push	2
	mov	ecx, DWORD PTR ?gMapMgr@@3PAVC_Map@@A	; gMapMgr
	call	?HideUnitType@C_Map@@QAEXJ@Z		; C_Map::HideUnitType
	mov	eax, 1
	imul	eax, 17					; 00000011H
	mov	DWORD PTR $T13[ebp], eax
	cmp	DWORD PTR $T13[ebp], 34			; 00000022H
	jae	SHORT $LN54@MenuToggle
	jmp	SHORT $LN55@MenuToggle
$LN54@MenuToggle:
	call	___report_rangecheckfailure
$LN55@MenuToggle:
	mov	ecx, DWORD PTR $T13[ebp]
	mov	BYTE PTR ?filterState@FilterSaveStuff@@3PA_NA[ecx], 0
$LN38@MenuToggle:

; 286  : 			}
; 287  : 			break;

	jmp	$LN44@MenuToggle
$LN37@MenuToggle:

; 288  : 		case MID_UNITS_AD:
; 289  : 			if(((C_PopupList *)control)->GetItemState(ID))

	mov	edx, DWORD PTR _ID$[ebp]
	push	edx
	mov	ecx, DWORD PTR _control$[ebp]
	call	?GetItemState@C_PopupList@@QAEFJ@Z	; C_PopupList::GetItemState
	cwde
	test	eax, eax
	je	SHORT $LN36@MenuToggle

; 290  : 			{
; 291  : 				gMapMgr->ShowUnitType(_UNIT_AIR_DEFENSE); filterState[UNITS_AIR_DEFENSE] = true;

	push	1
	mov	ecx, DWORD PTR ?gMapMgr@@3PAVC_Map@@A	; gMapMgr
	call	?ShowUnitType@C_Map@@QAEXJ@Z		; C_Map::ShowUnitType
	mov	ecx, 1
	imul	ecx, 18					; 00000012H
	mov	BYTE PTR ?filterState@FilterSaveStuff@@3PA_NA[ecx], 1

; 292  : 			}
; 293  : 			else

	jmp	SHORT $LN35@MenuToggle
$LN36@MenuToggle:

; 294  : 			{
; 295  : 				gMapMgr->HideUnitType(_UNIT_AIR_DEFENSE); filterState[UNITS_AIR_DEFENSE] = false;

	push	1
	mov	ecx, DWORD PTR ?gMapMgr@@3PAVC_Map@@A	; gMapMgr
	call	?HideUnitType@C_Map@@QAEXJ@Z		; C_Map::HideUnitType
	mov	edx, 1
	imul	edx, 18					; 00000012H
	mov	DWORD PTR $T12[ebp], edx
	cmp	DWORD PTR $T12[ebp], 34			; 00000022H
	jae	SHORT $LN56@MenuToggle
	jmp	SHORT $LN57@MenuToggle
$LN56@MenuToggle:
	call	___report_rangecheckfailure
$LN57@MenuToggle:
	mov	eax, DWORD PTR $T12[ebp]
	mov	BYTE PTR ?filterState@FilterSaveStuff@@3PA_NA[eax], 0
$LN35@MenuToggle:

; 296  : 			}
; 297  : 			break;

	jmp	$LN44@MenuToggle
$LN34@MenuToggle:

; 298  : 		case MID_UNITS_SUPPORT:
; 299  : 			if(((C_PopupList *)control)->GetItemState(ID))

	mov	ecx, DWORD PTR _ID$[ebp]
	push	ecx
	mov	ecx, DWORD PTR _control$[ebp]
	call	?GetItemState@C_PopupList@@QAEFJ@Z	; C_PopupList::GetItemState
	movsx	edx, ax
	test	edx, edx
	je	SHORT $LN33@MenuToggle

; 300  : 				{
; 301  : 				gMapMgr->ShowUnitType(_UNIT_SUPPORT); filterState[UNITS_SUPPORT] = true;

	push	4
	mov	ecx, DWORD PTR ?gMapMgr@@3PAVC_Map@@A	; gMapMgr
	call	?ShowUnitType@C_Map@@QAEXJ@Z		; C_Map::ShowUnitType
	mov	eax, 1
	imul	eax, 19					; 00000013H
	mov	BYTE PTR ?filterState@FilterSaveStuff@@3PA_NA[eax], 1

; 302  : 				}
; 303  : 			else

	jmp	SHORT $LN32@MenuToggle
$LN33@MenuToggle:

; 304  : 				{
; 305  : 				gMapMgr->HideUnitType(_UNIT_SUPPORT); filterState[UNITS_SUPPORT] = false;

	push	4
	mov	ecx, DWORD PTR ?gMapMgr@@3PAVC_Map@@A	; gMapMgr
	call	?HideUnitType@C_Map@@QAEXJ@Z		; C_Map::HideUnitType
	mov	ecx, 1
	imul	ecx, 19					; 00000013H
	mov	DWORD PTR $T11[ebp], ecx
	cmp	DWORD PTR $T11[ebp], 34			; 00000022H
	jae	SHORT $LN58@MenuToggle
	jmp	SHORT $LN59@MenuToggle
$LN58@MenuToggle:
	call	___report_rangecheckfailure
$LN59@MenuToggle:
	mov	edx, DWORD PTR $T11[ebp]
	mov	BYTE PTR ?filterState@FilterSaveStuff@@3PA_NA[edx], 0
$LN32@MenuToggle:

; 306  : 				}
; 307  : 			break;

	jmp	$LN44@MenuToggle
$LN31@MenuToggle:

; 308  : 		case MID_UNITS_SQUAD_SQUADRON:
; 309  : 			if(((C_PopupList *)control)->GetItemState(ID))

	mov	eax, DWORD PTR _ID$[ebp]
	push	eax
	mov	ecx, DWORD PTR _control$[ebp]
	call	?GetItemState@C_PopupList@@QAEFJ@Z	; C_PopupList::GetItemState
	movsx	ecx, ax
	test	ecx, ecx
	je	SHORT $LN30@MenuToggle

; 310  : 				{
; 311  : 				gMapMgr->ShowObjectiveType(_UNIT_SQUADRON); filterState[UNITS_SQUAD_SQUADRON] = true;

	push	2048					; 00000800H
	mov	ecx, DWORD PTR ?gMapMgr@@3PAVC_Map@@A	; gMapMgr
	call	?ShowObjectiveType@C_Map@@QAEXJ@Z	; C_Map::ShowObjectiveType
	mov	edx, 1
	imul	edx, 20					; 00000014H
	mov	BYTE PTR ?filterState@FilterSaveStuff@@3PA_NA[edx], 1

; 312  : 				}
; 313  : 			else

	jmp	SHORT $LN29@MenuToggle
$LN30@MenuToggle:

; 314  : 				{
; 315  : 				gMapMgr->HideObjectiveType(_UNIT_SQUADRON); filterState[UNITS_SQUAD_SQUADRON] = false;

	push	2048					; 00000800H
	mov	ecx, DWORD PTR ?gMapMgr@@3PAVC_Map@@A	; gMapMgr
	call	?HideObjectiveType@C_Map@@QAEXJ@Z	; C_Map::HideObjectiveType
	mov	eax, 1
	imul	eax, 20					; 00000014H
	mov	DWORD PTR $T10[ebp], eax
	cmp	DWORD PTR $T10[ebp], 34			; 00000022H
	jae	SHORT $LN60@MenuToggle
	jmp	SHORT $LN61@MenuToggle
$LN60@MenuToggle:
	call	___report_rangecheckfailure
$LN61@MenuToggle:
	mov	ecx, DWORD PTR $T10[ebp]
	mov	BYTE PTR ?filterState@FilterSaveStuff@@3PA_NA[ecx], 0
$LN29@MenuToggle:

; 316  : 				}
; 317  : 			break;

	jmp	$LN44@MenuToggle
$LN28@MenuToggle:

; 318  : 		case MID_UNITS_SQUAD_PACKAGE:
; 319  : 			if(((C_PopupList *)control)->GetItemState(ID))

	mov	edx, DWORD PTR _ID$[ebp]
	push	edx
	mov	ecx, DWORD PTR _control$[ebp]
	call	?GetItemState@C_PopupList@@QAEFJ@Z	; C_PopupList::GetItemState
	cwde
	test	eax, eax
	je	SHORT $LN27@MenuToggle

; 320  : 				{
; 321  : 				gMapMgr->ShowObjectiveType(_UNIT_PACKAGE); filterState[UNITS_SQUAD_PACKAGE] = true;

	push	4096					; 00001000H
	mov	ecx, DWORD PTR ?gMapMgr@@3PAVC_Map@@A	; gMapMgr
	call	?ShowObjectiveType@C_Map@@QAEXJ@Z	; C_Map::ShowObjectiveType
	mov	ecx, 1
	imul	ecx, 21					; 00000015H
	mov	BYTE PTR ?filterState@FilterSaveStuff@@3PA_NA[ecx], 1

; 322  : 				}
; 323  : 			else

	jmp	SHORT $LN26@MenuToggle
$LN27@MenuToggle:

; 324  : 				{
; 325  : 				gMapMgr->HideObjectiveType(_UNIT_PACKAGE); filterState[UNITS_SQUAD_PACKAGE] = false;

	push	4096					; 00001000H
	mov	ecx, DWORD PTR ?gMapMgr@@3PAVC_Map@@A	; gMapMgr
	call	?HideObjectiveType@C_Map@@QAEXJ@Z	; C_Map::HideObjectiveType
	mov	edx, 1
	imul	edx, 21					; 00000015H
	mov	DWORD PTR $T9[ebp], edx
	cmp	DWORD PTR $T9[ebp], 34			; 00000022H
	jae	SHORT $LN62@MenuToggle
	jmp	SHORT $LN63@MenuToggle
$LN62@MenuToggle:
	call	___report_rangecheckfailure
$LN63@MenuToggle:
	mov	eax, DWORD PTR $T9[ebp]
	mov	BYTE PTR ?filterState@FilterSaveStuff@@3PA_NA[eax], 0
$LN26@MenuToggle:

; 326  : 				}
; 327  : 			break;

	jmp	$LN44@MenuToggle
$LN25@MenuToggle:

; 328  : 		case MID_UNITS_SQUAD_FIGHTER:
; 329  : 			if(((C_PopupList *)control)->GetItemState(ID))

	mov	ecx, DWORD PTR _ID$[ebp]
	push	ecx
	mov	ecx, DWORD PTR _control$[ebp]
	call	?GetItemState@C_PopupList@@QAEFJ@Z	; C_PopupList::GetItemState
	movsx	edx, ax
	test	edx, edx
	je	SHORT $LN24@MenuToggle

; 330  : 				{
; 331  : 				gMapMgr->ShowAirUnitType(_UNIT_FIGHTER); filterState[UNITS_SQUAD_FIGHTER] = true;

	push	128					; 00000080H
	mov	ecx, DWORD PTR ?gMapMgr@@3PAVC_Map@@A	; gMapMgr
	call	?ShowAirUnitType@C_Map@@QAEXJ@Z		; C_Map::ShowAirUnitType
	mov	eax, 1
	imul	eax, 22					; 00000016H
	mov	BYTE PTR ?filterState@FilterSaveStuff@@3PA_NA[eax], 1

; 332  : 				}
; 333  : 			else

	jmp	SHORT $LN23@MenuToggle
$LN24@MenuToggle:

; 334  : 				{
; 335  : 				gMapMgr->HideAirUnitType(_UNIT_FIGHTER); filterState[UNITS_SQUAD_FIGHTER] = false;

	push	128					; 00000080H
	mov	ecx, DWORD PTR ?gMapMgr@@3PAVC_Map@@A	; gMapMgr
	call	?HideAirUnitType@C_Map@@QAEXJ@Z		; C_Map::HideAirUnitType
	mov	ecx, 1
	imul	ecx, 22					; 00000016H
	mov	DWORD PTR $T8[ebp], ecx
	cmp	DWORD PTR $T8[ebp], 34			; 00000022H
	jae	SHORT $LN64@MenuToggle
	jmp	SHORT $LN65@MenuToggle
$LN64@MenuToggle:
	call	___report_rangecheckfailure
$LN65@MenuToggle:
	mov	edx, DWORD PTR $T8[ebp]
	mov	BYTE PTR ?filterState@FilterSaveStuff@@3PA_NA[edx], 0
$LN23@MenuToggle:

; 336  : 				}
; 337  : 			break;

	jmp	$LN44@MenuToggle
$LN22@MenuToggle:

; 338  : 		case MID_UNITS_SQUAD_ATTACK:
; 339  : 			if(((C_PopupList *)control)->GetItemState(ID))

	mov	eax, DWORD PTR _ID$[ebp]
	push	eax
	mov	ecx, DWORD PTR _control$[ebp]
	call	?GetItemState@C_PopupList@@QAEFJ@Z	; C_PopupList::GetItemState
	movsx	ecx, ax
	test	ecx, ecx
	je	SHORT $LN21@MenuToggle

; 340  : 				{
; 341  : 				gMapMgr->ShowAirUnitType(_UNIT_ATTACK); filterState[UNITS_SQUAD_ATTACK] = true;

	push	16					; 00000010H
	mov	ecx, DWORD PTR ?gMapMgr@@3PAVC_Map@@A	; gMapMgr
	call	?ShowAirUnitType@C_Map@@QAEXJ@Z		; C_Map::ShowAirUnitType
	mov	edx, 1
	imul	edx, 23					; 00000017H
	mov	BYTE PTR ?filterState@FilterSaveStuff@@3PA_NA[edx], 1

; 342  : 				}
; 343  : 			else

	jmp	SHORT $LN20@MenuToggle
$LN21@MenuToggle:

; 344  : 				{
; 345  : 				gMapMgr->HideAirUnitType(_UNIT_ATTACK); filterState[UNITS_SQUAD_ATTACK] = false;

	push	16					; 00000010H
	mov	ecx, DWORD PTR ?gMapMgr@@3PAVC_Map@@A	; gMapMgr
	call	?HideAirUnitType@C_Map@@QAEXJ@Z		; C_Map::HideAirUnitType
	mov	eax, 1
	imul	eax, 23					; 00000017H
	mov	DWORD PTR $T7[ebp], eax
	cmp	DWORD PTR $T7[ebp], 34			; 00000022H
	jae	SHORT $LN66@MenuToggle
	jmp	SHORT $LN67@MenuToggle
$LN66@MenuToggle:
	call	___report_rangecheckfailure
$LN67@MenuToggle:
	mov	ecx, DWORD PTR $T7[ebp]
	mov	BYTE PTR ?filterState@FilterSaveStuff@@3PA_NA[ecx], 0
$LN20@MenuToggle:

; 346  : 				}
; 347  : 			break;

	jmp	$LN44@MenuToggle
$LN19@MenuToggle:

; 348  : 		case MID_UNITS_SQUAD_BOMBER:
; 349  : 			if(((C_PopupList *)control)->GetItemState(ID))

	mov	edx, DWORD PTR _ID$[ebp]
	push	edx
	mov	ecx, DWORD PTR _control$[ebp]
	call	?GetItemState@C_PopupList@@QAEFJ@Z	; C_PopupList::GetItemState
	cwde
	test	eax, eax
	je	SHORT $LN18@MenuToggle

; 350  : 				{
; 351  : 				gMapMgr->ShowAirUnitType(_UNIT_BOMBER); filterState[UNITS_SQUAD_BOMBER] = true;

	push	64					; 00000040H
	mov	ecx, DWORD PTR ?gMapMgr@@3PAVC_Map@@A	; gMapMgr
	call	?ShowAirUnitType@C_Map@@QAEXJ@Z		; C_Map::ShowAirUnitType
	mov	ecx, 1
	imul	ecx, 24					; 00000018H
	mov	BYTE PTR ?filterState@FilterSaveStuff@@3PA_NA[ecx], 1

; 352  : 				}
; 353  : 			else

	jmp	SHORT $LN17@MenuToggle
$LN18@MenuToggle:

; 354  : 				{
; 355  : 				gMapMgr->HideAirUnitType(_UNIT_BOMBER); filterState[UNITS_SQUAD_BOMBER] = false;

	push	64					; 00000040H
	mov	ecx, DWORD PTR ?gMapMgr@@3PAVC_Map@@A	; gMapMgr
	call	?HideAirUnitType@C_Map@@QAEXJ@Z		; C_Map::HideAirUnitType
	mov	edx, 1
	imul	edx, 24					; 00000018H
	mov	DWORD PTR $T6[ebp], edx
	cmp	DWORD PTR $T6[ebp], 34			; 00000022H
	jae	SHORT $LN68@MenuToggle
	jmp	SHORT $LN69@MenuToggle
$LN68@MenuToggle:
	call	___report_rangecheckfailure
$LN69@MenuToggle:
	mov	eax, DWORD PTR $T6[ebp]
	mov	BYTE PTR ?filterState@FilterSaveStuff@@3PA_NA[eax], 0
$LN17@MenuToggle:

; 356  : 				}
; 357  : 			break;

	jmp	$LN44@MenuToggle
$LN16@MenuToggle:

; 358  : 		case MID_UNITS_SQUAD_SUPPORT:
; 359  : 			if(((C_PopupList *)control)->GetItemState(ID))

	mov	ecx, DWORD PTR _ID$[ebp]
	push	ecx
	mov	ecx, DWORD PTR _control$[ebp]
	call	?GetItemState@C_PopupList@@QAEFJ@Z	; C_PopupList::GetItemState
	movsx	edx, ax
	test	edx, edx
	je	SHORT $LN15@MenuToggle

; 360  : 				{
; 361  : 				gMapMgr->ShowAirUnitType(_UNIT_SUPPORT); filterState[UNITS_SQUAD_SUPPORT] = true;

	push	4
	mov	ecx, DWORD PTR ?gMapMgr@@3PAVC_Map@@A	; gMapMgr
	call	?ShowAirUnitType@C_Map@@QAEXJ@Z		; C_Map::ShowAirUnitType
	mov	eax, 1
	imul	eax, 25					; 00000019H
	mov	BYTE PTR ?filterState@FilterSaveStuff@@3PA_NA[eax], 1

; 362  : 				}
; 363  : 			else

	jmp	SHORT $LN14@MenuToggle
$LN15@MenuToggle:

; 364  : 				{
; 365  : 				gMapMgr->HideAirUnitType(_UNIT_SUPPORT); filterState[UNITS_SQUAD_SUPPORT] = false;

	push	4
	mov	ecx, DWORD PTR ?gMapMgr@@3PAVC_Map@@A	; gMapMgr
	call	?HideAirUnitType@C_Map@@QAEXJ@Z		; C_Map::HideAirUnitType
	mov	ecx, 1
	imul	ecx, 25					; 00000019H
	mov	DWORD PTR $T5[ebp], ecx
	cmp	DWORD PTR $T5[ebp], 34			; 00000022H
	jae	SHORT $LN70@MenuToggle
	jmp	SHORT $LN71@MenuToggle
$LN70@MenuToggle:
	call	___report_rangecheckfailure
$LN71@MenuToggle:
	mov	edx, DWORD PTR $T5[ebp]
	mov	BYTE PTR ?filterState@FilterSaveStuff@@3PA_NA[edx], 0
$LN14@MenuToggle:

; 366  : 				}
; 367  : 			break;

	jmp	$LN44@MenuToggle
$LN13@MenuToggle:

; 368  : 		case MID_UNITS_SQUAD_HELI:
; 369  : 			if(((C_PopupList *)control)->GetItemState(ID))

	mov	eax, DWORD PTR _ID$[ebp]
	push	eax
	mov	ecx, DWORD PTR _control$[ebp]
	call	?GetItemState@C_PopupList@@QAEFJ@Z	; C_PopupList::GetItemState
	movsx	ecx, ax
	test	ecx, ecx
	je	SHORT $LN12@MenuToggle

; 370  : 				{
; 371  : 				gMapMgr->ShowAirUnitType(_UNIT_HELICOPTER); filterState[UNITS_HELICOPTER] = true;

	push	32					; 00000020H
	mov	ecx, DWORD PTR ?gMapMgr@@3PAVC_Map@@A	; gMapMgr
	call	?ShowAirUnitType@C_Map@@QAEXJ@Z		; C_Map::ShowAirUnitType
	mov	edx, 1
	imul	edx, 26					; 0000001aH
	mov	BYTE PTR ?filterState@FilterSaveStuff@@3PA_NA[edx], 1

; 372  : 				}
; 373  : 			else

	jmp	SHORT $LN11@MenuToggle
$LN12@MenuToggle:

; 374  : 				{
; 375  : 				gMapMgr->HideAirUnitType(_UNIT_HELICOPTER); filterState[UNITS_HELICOPTER] = false;

	push	32					; 00000020H
	mov	ecx, DWORD PTR ?gMapMgr@@3PAVC_Map@@A	; gMapMgr
	call	?HideAirUnitType@C_Map@@QAEXJ@Z		; C_Map::HideAirUnitType
	mov	eax, 1
	imul	eax, 26					; 0000001aH
	mov	DWORD PTR $T4[ebp], eax
	cmp	DWORD PTR $T4[ebp], 34			; 00000022H
	jae	SHORT $LN72@MenuToggle
	jmp	SHORT $LN73@MenuToggle
$LN72@MenuToggle:
	call	___report_rangecheckfailure
$LN73@MenuToggle:
	mov	ecx, DWORD PTR $T4[ebp]
	mov	BYTE PTR ?filterState@FilterSaveStuff@@3PA_NA[ecx], 0
$LN11@MenuToggle:

; 376  : 				}
; 377  : 			break;

	jmp	$LN44@MenuToggle
$LN10@MenuToggle:

; 378  : 		// 2002-02-21 ADDED BY S.G. Our new 'Unknown' option to Flights page so we can display unknown type of flight as well as identified one
; 379  : 		case MID_UNITS_SQUAD_UNKNOWN:
; 380  : 			if(((C_PopupList *)control)->GetItemState(ID))

	mov	edx, DWORD PTR _ID$[ebp]
	push	edx
	mov	ecx, DWORD PTR _control$[ebp]
	call	?GetItemState@C_PopupList@@QAEFJ@Z	; C_PopupList::GetItemState
	cwde
	test	eax, eax
	je	SHORT $LN9@MenuToggle

; 381  : 			{
; 382  : 				filterState[UNITS_SQUAD_UNKNOWN] = true;

	mov	ecx, 1
	imul	ecx, 27					; 0000001bH
	mov	BYTE PTR ?filterState@FilterSaveStuff@@3PA_NA[ecx], 1

; 383  : 				gShowUnknown = 1;

	mov	DWORD PTR ?gShowUnknown@@3HA, 1		; gShowUnknown

; 384  : 			}
; 385  : 			else

	jmp	SHORT $LN8@MenuToggle
$LN9@MenuToggle:

; 386  : 			{
; 387  : 				filterState[UNITS_SQUAD_UNKNOWN] = false;

	mov	edx, 1
	imul	edx, 27					; 0000001bH
	mov	DWORD PTR $T3[ebp], edx
	cmp	DWORD PTR $T3[ebp], 34			; 00000022H
	jae	SHORT $LN74@MenuToggle
	jmp	SHORT $LN75@MenuToggle
$LN74@MenuToggle:
	call	___report_rangecheckfailure
$LN75@MenuToggle:
	mov	eax, DWORD PTR $T3[ebp]
	mov	BYTE PTR ?filterState@FilterSaveStuff@@3PA_NA[eax], 0

; 388  : 				gShowUnknown = 0;

	mov	DWORD PTR ?gShowUnknown@@3HA, 0		; gShowUnknown
$LN8@MenuToggle:

; 389  : 			}
; 390  : 
; 391  : 			if (gGps)

	cmp	DWORD PTR ?gGps@@3PAVGlobalPositioningSystem@@A, 0 ; gGps
	je	SHORT $LN7@MenuToggle

; 392  : 				gGps->Update();

	mov	ecx, DWORD PTR ?gGps@@3PAVGlobalPositioningSystem@@A ; gGps
	call	?Update@GlobalPositioningSystem@@QAEXXZ	; GlobalPositioningSystem::Update
$LN7@MenuToggle:

; 393  : 			gMapMgr->RefreshAllAirUnitType();

	mov	ecx, DWORD PTR ?gMapMgr@@3PAVC_Map@@A	; gMapMgr
	call	?RefreshAllAirUnitType@C_Map@@QAEXXZ	; C_Map::RefreshAllAirUnitType

; 394  : 			break;

	jmp	$LN44@MenuToggle
$LN6@MenuToggle:

; 395  : 		case MID_UNITS_NAVY_COMBAT:
; 396  : 			if(((C_PopupList *)control)->GetItemState(ID))

	mov	ecx, DWORD PTR _ID$[ebp]
	push	ecx
	mov	ecx, DWORD PTR _control$[ebp]
	call	?GetItemState@C_PopupList@@QAEFJ@Z	; C_PopupList::GetItemState
	movsx	edx, ax
	test	edx, edx
	je	SHORT $LN5@MenuToggle

; 397  : 				{
; 398  : 				gMapMgr->ShowNavalUnitType(_UNIT_COMBAT); filterState[UNITS_NAVY_COMBAT] = true;

	push	2
	mov	ecx, DWORD PTR ?gMapMgr@@3PAVC_Map@@A	; gMapMgr
	call	?ShowNavalUnitType@C_Map@@QAEXJ@Z	; C_Map::ShowNavalUnitType
	mov	eax, 1
	imul	eax, 28					; 0000001cH
	mov	BYTE PTR ?filterState@FilterSaveStuff@@3PA_NA[eax], 1

; 399  : 				}
; 400  : 			else

	jmp	SHORT $LN4@MenuToggle
$LN5@MenuToggle:

; 401  : 				{
; 402  : 				gMapMgr->HideNavalUnitType(_UNIT_COMBAT); filterState[UNITS_NAVY_COMBAT] = false;

	push	2
	mov	ecx, DWORD PTR ?gMapMgr@@3PAVC_Map@@A	; gMapMgr
	call	?HideNavalUnitType@C_Map@@QAEXJ@Z	; C_Map::HideNavalUnitType
	mov	ecx, 1
	imul	ecx, 28					; 0000001cH
	mov	DWORD PTR $T2[ebp], ecx
	cmp	DWORD PTR $T2[ebp], 34			; 00000022H
	jae	SHORT $LN76@MenuToggle
	jmp	SHORT $LN77@MenuToggle
$LN76@MenuToggle:
	call	___report_rangecheckfailure
$LN77@MenuToggle:
	mov	edx, DWORD PTR $T2[ebp]
	mov	BYTE PTR ?filterState@FilterSaveStuff@@3PA_NA[edx], 0
$LN4@MenuToggle:

; 403  : 				}
; 404  : 			break;

	jmp	SHORT $LN44@MenuToggle
$LN3@MenuToggle:

; 405  : 		case MID_UNITS_NAVY_SUPPLY:
; 406  : 			if(((C_PopupList *)control)->GetItemState(ID))

	mov	eax, DWORD PTR _ID$[ebp]
	push	eax
	mov	ecx, DWORD PTR _control$[ebp]
	call	?GetItemState@C_PopupList@@QAEFJ@Z	; C_PopupList::GetItemState
	movsx	ecx, ax
	test	ecx, ecx
	je	SHORT $LN2@MenuToggle

; 407  : 				{
; 408  : 				gMapMgr->ShowNavalUnitType(_UNIT_SUPPORT); filterState[UNITS_NAVY_SUPPORT] = true;

	push	4
	mov	ecx, DWORD PTR ?gMapMgr@@3PAVC_Map@@A	; gMapMgr
	call	?ShowNavalUnitType@C_Map@@QAEXJ@Z	; C_Map::ShowNavalUnitType
	mov	edx, 1
	imul	edx, 29					; 0000001dH
	mov	BYTE PTR ?filterState@FilterSaveStuff@@3PA_NA[edx], 1

; 409  : 				}
; 410  : 			else

	jmp	SHORT $LN44@MenuToggle
$LN2@MenuToggle:

; 411  : 				{
; 412  : 				gMapMgr->HideNavalUnitType(_UNIT_SUPPORT); filterState[UNITS_NAVY_SUPPORT] = false;

	push	4
	mov	ecx, DWORD PTR ?gMapMgr@@3PAVC_Map@@A	; gMapMgr
	call	?HideNavalUnitType@C_Map@@QAEXJ@Z	; C_Map::HideNavalUnitType
	mov	eax, 1
	imul	eax, 29					; 0000001dH
	mov	DWORD PTR $T1[ebp], eax
	cmp	DWORD PTR $T1[ebp], 34			; 00000022H
	jae	SHORT $LN78@MenuToggle
	jmp	SHORT $LN79@MenuToggle
$LN78@MenuToggle:
	call	___report_rangecheckfailure
$LN79@MenuToggle:
	mov	ecx, DWORD PTR $T1[ebp]
	mov	BYTE PTR ?filterState@FilterSaveStuff@@3PA_NA[ecx], 0
$LN44@MenuToggle:

; 413  : 				}
; 414  : 			break;
; 415  : 	}
; 416  : 	gMapMgr->DrawMap();

	mov	ecx, DWORD PTR ?gMapMgr@@3PAVC_Map@@A	; gMapMgr
	call	?DrawMap@C_Map@@QAEXXZ			; C_Map::DrawMap
$LN47@MenuToggle:

; 417  : }

	mov	esp, ebp
	pop	ebp
	ret	0
	npad	3
$LN80@MenuToggle:
	DD	$LN43@MenuToggle
	DD	$LN42@MenuToggle
	DD	$LN41@MenuToggle
	DD	$LN40@MenuToggle
	DD	$LN37@MenuToggle
	DD	$LN34@MenuToggle
	DD	$LN44@MenuToggle
	DD	$LN25@MenuToggle
	DD	$LN44@MenuToggle
	DD	$LN22@MenuToggle
	DD	$LN19@MenuToggle
	DD	$LN16@MenuToggle
	DD	$LN13@MenuToggle
	DD	$LN6@MenuToggle
	DD	$LN3@MenuToggle
	DD	$LN44@MenuToggle
	DD	$LN44@MenuToggle
	DD	$LN44@MenuToggle
	DD	$LN44@MenuToggle
	DD	$LN31@MenuToggle
	DD	$LN28@MenuToggle
	DD	$LN10@MenuToggle
?MenuToggleUnitCB@@YAXJFPAVC_Base@@@Z ENDP		; MenuToggleUnitCB
_TEXT	ENDS
; Function compile flags: /Odtp
; File c:\users\zhitao li\documents\visual studio 2012\projects\freefalcon\ui\src\campaign\campmenu.cpp
_TEXT	SEGMENT
$T1 = -52						; size = 4
$T2 = -48						; size = 4
$T3 = -44						; size = 4
$T4 = -40						; size = 4
$T5 = -36						; size = 4
$T6 = -32						; size = 4
$T7 = -28						; size = 4
$T8 = -24						; size = 4
$T9 = -20						; size = 4
$T10 = -16						; size = 4
$T11 = -12						; size = 4
$T12 = -8						; size = 4
tv64 = -4						; size = 4
_ID$ = 8						; size = 4
___formal$ = 12						; size = 2
_control$ = 16						; size = 4
?MenuToggleObjectiveCB@@YAXJFPAVC_Base@@@Z PROC		; MenuToggleObjectiveCB

; 134  : {

	push	ebp
	mov	ebp, esp
	sub	esp, 52					; 00000034H

; 135  : 	using namespace FilterSaveStuff;	// Retro 26/10/03. Here I take note if a certain objective filter is enabled or disabled
; 136  : 
; 137  : 	switch(ID)

	mov	eax, DWORD PTR _ID$[ebp]
	mov	DWORD PTR tv64[ebp], eax
	cmp	DWORD PTR tv64[ebp], 86019		; 00015003H
	jg	SHORT $LN65@MenuToggle
	cmp	DWORD PTR tv64[ebp], 86019		; 00015003H
	je	SHORT $LN36@MenuToggle
	cmp	DWORD PTR tv64[ebp], 40085		; 00009c95H
	je	$LN3@MenuToggle
	jmp	$LN37@MenuToggle
$LN65@MenuToggle:
	mov	ecx, DWORD PTR tv64[ebp]
	sub	ecx, 86020				; 00015004H
	mov	DWORD PTR tv64[ebp], ecx
	cmp	DWORD PTR tv64[ebp], 9
	ja	$LN37@MenuToggle
	mov	edx, DWORD PTR tv64[ebp]
	jmp	DWORD PTR $LN66@MenuToggle[edx*4]
$LN36@MenuToggle:

; 138  : 	{
; 139  : 		case MID_INST_AF:
; 140  : 			if(((C_PopupList *)control)->GetItemState(ID))

	mov	eax, DWORD PTR _ID$[ebp]
	push	eax
	mov	ecx, DWORD PTR _control$[ebp]
	call	?GetItemState@C_PopupList@@QAEFJ@Z	; C_PopupList::GetItemState
	movsx	ecx, ax
	test	ecx, ecx
	je	SHORT $LN35@MenuToggle

; 141  : 			{
; 142  : 				gMapMgr->ShowObjectiveType(_OBTV_AIR_FIELDS);filterState[OBJ_AIRFIELDS] = true;

	push	2
	mov	ecx, DWORD PTR ?gMapMgr@@3PAVC_Map@@A	; gMapMgr
	call	?ShowObjectiveType@C_Map@@QAEXJ@Z	; C_Map::ShowObjectiveType
	mov	edx, 1
	shl	edx, 1
	mov	BYTE PTR ?filterState@FilterSaveStuff@@3PA_NA[edx], 1

; 143  : 			}
; 144  : 			else

	jmp	SHORT $LN34@MenuToggle
$LN35@MenuToggle:

; 145  : 			{
; 146  : 				gMapMgr->HideObjectiveType(_OBTV_AIR_FIELDS);filterState[OBJ_AIRFIELDS] = false;

	push	2
	mov	ecx, DWORD PTR ?gMapMgr@@3PAVC_Map@@A	; gMapMgr
	call	?HideObjectiveType@C_Map@@QAEXJ@Z	; C_Map::HideObjectiveType
	mov	eax, 1
	shl	eax, 1
	mov	DWORD PTR $T12[ebp], eax
	cmp	DWORD PTR $T12[ebp], 34			; 00000022H
	jae	SHORT $LN41@MenuToggle
	jmp	SHORT $LN42@MenuToggle
$LN41@MenuToggle:
	call	___report_rangecheckfailure
$LN42@MenuToggle:
	mov	ecx, DWORD PTR $T12[ebp]
	mov	BYTE PTR ?filterState@FilterSaveStuff@@3PA_NA[ecx], 0
$LN34@MenuToggle:

; 147  : 			}
; 148  : 			break;

	jmp	$LN37@MenuToggle
$LN33@MenuToggle:

; 149  : 		case MID_INST_AD:
; 150  : 			if(((C_PopupList *)control)->GetItemState(ID))

	mov	edx, DWORD PTR _ID$[ebp]
	push	edx
	mov	ecx, DWORD PTR _control$[ebp]
	call	?GetItemState@C_PopupList@@QAEFJ@Z	; C_PopupList::GetItemState
	cwde
	test	eax, eax
	je	SHORT $LN32@MenuToggle

; 151  : 				{
; 152  : 				gMapMgr->ShowObjectiveType(_OBTV_AIR_DEFENSE);filterState[OBJ_AIRDEFENSE] = true;

	push	1
	mov	ecx, DWORD PTR ?gMapMgr@@3PAVC_Map@@A	; gMapMgr
	call	?ShowObjectiveType@C_Map@@QAEXJ@Z	; C_Map::ShowObjectiveType
	mov	ecx, 1
	imul	ecx, 3
	mov	BYTE PTR ?filterState@FilterSaveStuff@@3PA_NA[ecx], 1

; 153  : 				}
; 154  : 			else

	jmp	SHORT $LN31@MenuToggle
$LN32@MenuToggle:

; 155  : 				{
; 156  : 				gMapMgr->HideObjectiveType(_OBTV_AIR_DEFENSE);filterState[OBJ_AIRDEFENSE] = false;

	push	1
	mov	ecx, DWORD PTR ?gMapMgr@@3PAVC_Map@@A	; gMapMgr
	call	?HideObjectiveType@C_Map@@QAEXJ@Z	; C_Map::HideObjectiveType
	mov	edx, 1
	imul	edx, 3
	mov	DWORD PTR $T11[ebp], edx
	cmp	DWORD PTR $T11[ebp], 34			; 00000022H
	jae	SHORT $LN43@MenuToggle
	jmp	SHORT $LN44@MenuToggle
$LN43@MenuToggle:
	call	___report_rangecheckfailure
$LN44@MenuToggle:
	mov	eax, DWORD PTR $T11[ebp]
	mov	BYTE PTR ?filterState@FilterSaveStuff@@3PA_NA[eax], 0
$LN31@MenuToggle:

; 157  : 				}
; 158  : 			break;

	jmp	$LN37@MenuToggle
$LN30@MenuToggle:

; 159  : 		case MID_INST_ARMY:
; 160  : 			if(((C_PopupList *)control)->GetItemState(ID))

	mov	ecx, DWORD PTR _ID$[ebp]
	push	ecx
	mov	ecx, DWORD PTR _control$[ebp]
	call	?GetItemState@C_PopupList@@QAEFJ@Z	; C_PopupList::GetItemState
	movsx	edx, ax
	test	edx, edx
	je	SHORT $LN29@MenuToggle

; 161  : 				{
; 162  : 				gMapMgr->ShowObjectiveType(_OBTV_ARMY);filterState[OBJ_ARMY] = true;

	push	4
	mov	ecx, DWORD PTR ?gMapMgr@@3PAVC_Map@@A	; gMapMgr
	call	?ShowObjectiveType@C_Map@@QAEXJ@Z	; C_Map::ShowObjectiveType
	mov	eax, 1
	shl	eax, 2
	mov	BYTE PTR ?filterState@FilterSaveStuff@@3PA_NA[eax], 1

; 163  : 				}
; 164  : 			else

	jmp	SHORT $LN28@MenuToggle
$LN29@MenuToggle:

; 165  : 				{
; 166  : 				gMapMgr->HideObjectiveType(_OBTV_ARMY);filterState[OBJ_ARMY] = false;

	push	4
	mov	ecx, DWORD PTR ?gMapMgr@@3PAVC_Map@@A	; gMapMgr
	call	?HideObjectiveType@C_Map@@QAEXJ@Z	; C_Map::HideObjectiveType
	mov	ecx, 1
	shl	ecx, 2
	mov	DWORD PTR $T10[ebp], ecx
	cmp	DWORD PTR $T10[ebp], 34			; 00000022H
	jae	SHORT $LN45@MenuToggle
	jmp	SHORT $LN46@MenuToggle
$LN45@MenuToggle:
	call	___report_rangecheckfailure
$LN46@MenuToggle:
	mov	edx, DWORD PTR $T10[ebp]
	mov	BYTE PTR ?filterState@FilterSaveStuff@@3PA_NA[edx], 0
$LN28@MenuToggle:

; 167  : 				}
; 168  : 			break;

	jmp	$LN37@MenuToggle
$LN27@MenuToggle:

; 169  : 		case MID_INST_CCC:
; 170  : 			if(((C_PopupList *)control)->GetItemState(ID))

	mov	eax, DWORD PTR _ID$[ebp]
	push	eax
	mov	ecx, DWORD PTR _control$[ebp]
	call	?GetItemState@C_PopupList@@QAEFJ@Z	; C_PopupList::GetItemState
	movsx	ecx, ax
	test	ecx, ecx
	je	SHORT $LN26@MenuToggle

; 171  : 				{
; 172  : 				gMapMgr->ShowObjectiveType(_OBTV_CCC);filterState[OBJ_CCC] = true;

	push	8
	mov	ecx, DWORD PTR ?gMapMgr@@3PAVC_Map@@A	; gMapMgr
	call	?ShowObjectiveType@C_Map@@QAEXJ@Z	; C_Map::ShowObjectiveType
	mov	edx, 1
	imul	edx, 5
	mov	BYTE PTR ?filterState@FilterSaveStuff@@3PA_NA[edx], 1

; 173  : 				}
; 174  : 			else

	jmp	SHORT $LN25@MenuToggle
$LN26@MenuToggle:

; 175  : 				{
; 176  : 				gMapMgr->HideObjectiveType(_OBTV_CCC);filterState[OBJ_CCC] = false;

	push	8
	mov	ecx, DWORD PTR ?gMapMgr@@3PAVC_Map@@A	; gMapMgr
	call	?HideObjectiveType@C_Map@@QAEXJ@Z	; C_Map::HideObjectiveType
	mov	eax, 1
	imul	eax, 5
	mov	DWORD PTR $T9[ebp], eax
	cmp	DWORD PTR $T9[ebp], 34			; 00000022H
	jae	SHORT $LN47@MenuToggle
	jmp	SHORT $LN48@MenuToggle
$LN47@MenuToggle:
	call	___report_rangecheckfailure
$LN48@MenuToggle:
	mov	ecx, DWORD PTR $T9[ebp]
	mov	BYTE PTR ?filterState@FilterSaveStuff@@3PA_NA[ecx], 0
$LN25@MenuToggle:

; 177  : 				}
; 178  : 			break;

	jmp	$LN37@MenuToggle
$LN24@MenuToggle:

; 179  : 		case MID_INST_POLITICAL:
; 180  : 			if(((C_PopupList *)control)->GetItemState(ID))

	mov	edx, DWORD PTR _ID$[ebp]
	push	edx
	mov	ecx, DWORD PTR _control$[ebp]
	call	?GetItemState@C_PopupList@@QAEFJ@Z	; C_PopupList::GetItemState
	cwde
	test	eax, eax
	je	SHORT $LN23@MenuToggle

; 181  : 				{
; 182  : 				gMapMgr->ShowObjectiveType(_OBTV_POLITICAL);filterState[OBJ_POLITICAL] = true;

	push	256					; 00000100H
	mov	ecx, DWORD PTR ?gMapMgr@@3PAVC_Map@@A	; gMapMgr
	call	?ShowObjectiveType@C_Map@@QAEXJ@Z	; C_Map::ShowObjectiveType
	mov	ecx, 1
	imul	ecx, 6
	mov	BYTE PTR ?filterState@FilterSaveStuff@@3PA_NA[ecx], 1

; 183  : 				}
; 184  : 			else

	jmp	SHORT $LN22@MenuToggle
$LN23@MenuToggle:

; 185  : 				{
; 186  : 				gMapMgr->HideObjectiveType(_OBTV_POLITICAL);filterState[OBJ_POLITICAL] = false;

	push	256					; 00000100H
	mov	ecx, DWORD PTR ?gMapMgr@@3PAVC_Map@@A	; gMapMgr
	call	?HideObjectiveType@C_Map@@QAEXJ@Z	; C_Map::HideObjectiveType
	mov	edx, 1
	imul	edx, 6
	mov	DWORD PTR $T8[ebp], edx
	cmp	DWORD PTR $T8[ebp], 34			; 00000022H
	jae	SHORT $LN49@MenuToggle
	jmp	SHORT $LN50@MenuToggle
$LN49@MenuToggle:
	call	___report_rangecheckfailure
$LN50@MenuToggle:
	mov	eax, DWORD PTR $T8[ebp]
	mov	BYTE PTR ?filterState@FilterSaveStuff@@3PA_NA[eax], 0
$LN22@MenuToggle:

; 187  : 				}
; 188  : 			break;

	jmp	$LN37@MenuToggle
$LN21@MenuToggle:

; 189  : 		case MID_INST_INFRA:
; 190  : 			if(((C_PopupList *)control)->GetItemState(ID))

	mov	ecx, DWORD PTR _ID$[ebp]
	push	ecx
	mov	ecx, DWORD PTR _control$[ebp]
	call	?GetItemState@C_PopupList@@QAEFJ@Z	; C_PopupList::GetItemState
	movsx	edx, ax
	test	edx, edx
	je	SHORT $LN20@MenuToggle

; 191  : 				{
; 192  : 				gMapMgr->ShowObjectiveType(_OBTV_INFRASTRUCTURE);filterState[OBJ_INFRA] = true;

	push	16					; 00000010H
	mov	ecx, DWORD PTR ?gMapMgr@@3PAVC_Map@@A	; gMapMgr
	call	?ShowObjectiveType@C_Map@@QAEXJ@Z	; C_Map::ShowObjectiveType
	mov	eax, 1
	imul	eax, 7
	mov	BYTE PTR ?filterState@FilterSaveStuff@@3PA_NA[eax], 1

; 193  : 				}
; 194  : 			else

	jmp	SHORT $LN19@MenuToggle
$LN20@MenuToggle:

; 195  : 				{
; 196  : 				gMapMgr->HideObjectiveType(_OBTV_INFRASTRUCTURE);filterState[OBJ_INFRA] = false;

	push	16					; 00000010H
	mov	ecx, DWORD PTR ?gMapMgr@@3PAVC_Map@@A	; gMapMgr
	call	?HideObjectiveType@C_Map@@QAEXJ@Z	; C_Map::HideObjectiveType
	mov	ecx, 1
	imul	ecx, 7
	mov	DWORD PTR $T7[ebp], ecx
	cmp	DWORD PTR $T7[ebp], 34			; 00000022H
	jae	SHORT $LN51@MenuToggle
	jmp	SHORT $LN52@MenuToggle
$LN51@MenuToggle:
	call	___report_rangecheckfailure
$LN52@MenuToggle:
	mov	edx, DWORD PTR $T7[ebp]
	mov	BYTE PTR ?filterState@FilterSaveStuff@@3PA_NA[edx], 0
$LN19@MenuToggle:

; 197  : 				}
; 198  : 			break;

	jmp	$LN37@MenuToggle
$LN18@MenuToggle:

; 199  : 		case MID_INST_LOG:
; 200  : 			if(((C_PopupList *)control)->GetItemState(ID))

	mov	eax, DWORD PTR _ID$[ebp]
	push	eax
	mov	ecx, DWORD PTR _control$[ebp]
	call	?GetItemState@C_PopupList@@QAEFJ@Z	; C_PopupList::GetItemState
	movsx	ecx, ax
	test	ecx, ecx
	je	SHORT $LN17@MenuToggle

; 201  : 				{
; 202  : 				gMapMgr->ShowObjectiveType(_OBTV_LOGISTICS);filterState[OBJ_LOGISTICS] = true;

	push	32					; 00000020H
	mov	ecx, DWORD PTR ?gMapMgr@@3PAVC_Map@@A	; gMapMgr
	call	?ShowObjectiveType@C_Map@@QAEXJ@Z	; C_Map::ShowObjectiveType
	mov	edx, 1
	shl	edx, 3
	mov	BYTE PTR ?filterState@FilterSaveStuff@@3PA_NA[edx], 1

; 203  : 				}
; 204  : 			else

	jmp	SHORT $LN16@MenuToggle
$LN17@MenuToggle:

; 205  : 				{
; 206  : 				gMapMgr->HideObjectiveType(_OBTV_LOGISTICS);filterState[OBJ_LOGISTICS] = false;

	push	32					; 00000020H
	mov	ecx, DWORD PTR ?gMapMgr@@3PAVC_Map@@A	; gMapMgr
	call	?HideObjectiveType@C_Map@@QAEXJ@Z	; C_Map::HideObjectiveType
	mov	eax, 1
	shl	eax, 3
	mov	DWORD PTR $T6[ebp], eax
	cmp	DWORD PTR $T6[ebp], 34			; 00000022H
	jae	SHORT $LN53@MenuToggle
	jmp	SHORT $LN54@MenuToggle
$LN53@MenuToggle:
	call	___report_rangecheckfailure
$LN54@MenuToggle:
	mov	ecx, DWORD PTR $T6[ebp]
	mov	BYTE PTR ?filterState@FilterSaveStuff@@3PA_NA[ecx], 0
$LN16@MenuToggle:

; 207  : 				}
; 208  : 			break;

	jmp	$LN37@MenuToggle
$LN15@MenuToggle:

; 209  : 		case MID_INST_WARPROD:
; 210  : 			if(((C_PopupList *)control)->GetItemState(ID))

	mov	edx, DWORD PTR _ID$[ebp]
	push	edx
	mov	ecx, DWORD PTR _control$[ebp]
	call	?GetItemState@C_PopupList@@QAEFJ@Z	; C_PopupList::GetItemState
	cwde
	test	eax, eax
	je	SHORT $LN14@MenuToggle

; 211  : 				{
; 212  : 				gMapMgr->ShowObjectiveType(_OBTV_WAR_PRODUCTION);filterState[OBJ_WARPRODUCTION] = true;

	push	512					; 00000200H
	mov	ecx, DWORD PTR ?gMapMgr@@3PAVC_Map@@A	; gMapMgr
	call	?ShowObjectiveType@C_Map@@QAEXJ@Z	; C_Map::ShowObjectiveType
	mov	ecx, 1
	imul	ecx, 9
	mov	BYTE PTR ?filterState@FilterSaveStuff@@3PA_NA[ecx], 1

; 213  : 				}
; 214  : 			else

	jmp	SHORT $LN13@MenuToggle
$LN14@MenuToggle:

; 215  : 				{
; 216  : 				gMapMgr->HideObjectiveType(_OBTV_WAR_PRODUCTION);filterState[OBJ_WARPRODUCTION] = false;

	push	512					; 00000200H
	mov	ecx, DWORD PTR ?gMapMgr@@3PAVC_Map@@A	; gMapMgr
	call	?HideObjectiveType@C_Map@@QAEXJ@Z	; C_Map::HideObjectiveType
	mov	edx, 1
	imul	edx, 9
	mov	DWORD PTR $T5[ebp], edx
	cmp	DWORD PTR $T5[ebp], 34			; 00000022H
	jae	SHORT $LN55@MenuToggle
	jmp	SHORT $LN56@MenuToggle
$LN55@MenuToggle:
	call	___report_rangecheckfailure
$LN56@MenuToggle:
	mov	eax, DWORD PTR $T5[ebp]
	mov	BYTE PTR ?filterState@FilterSaveStuff@@3PA_NA[eax], 0
$LN13@MenuToggle:

; 217  : 				}
; 218  : 			break;

	jmp	$LN37@MenuToggle
$LN12@MenuToggle:

; 219  : 		case MID_INST_NAV:
; 220  : 			if(((C_PopupList *)control)->GetItemState(ID))

	mov	ecx, DWORD PTR _ID$[ebp]
	push	ecx
	mov	ecx, DWORD PTR _control$[ebp]
	call	?GetItemState@C_PopupList@@QAEFJ@Z	; C_PopupList::GetItemState
	movsx	edx, ax
	test	edx, edx
	je	SHORT $LN11@MenuToggle

; 221  : 				{
; 222  : 				gMapMgr->ShowObjectiveType(_OBTV_NAVIGATION);filterState[OBJ_NAVIGATION] = true;

	push	128					; 00000080H
	mov	ecx, DWORD PTR ?gMapMgr@@3PAVC_Map@@A	; gMapMgr
	call	?ShowObjectiveType@C_Map@@QAEXJ@Z	; C_Map::ShowObjectiveType
	mov	eax, 1
	imul	eax, 10					; 0000000aH
	mov	BYTE PTR ?filterState@FilterSaveStuff@@3PA_NA[eax], 1

; 223  : 				}
; 224  : 			else

	jmp	SHORT $LN10@MenuToggle
$LN11@MenuToggle:

; 225  : 				{
; 226  : 				gMapMgr->HideObjectiveType(_OBTV_NAVIGATION);filterState[OBJ_NAVIGATION] = false;

	push	128					; 00000080H
	mov	ecx, DWORD PTR ?gMapMgr@@3PAVC_Map@@A	; gMapMgr
	call	?HideObjectiveType@C_Map@@QAEXJ@Z	; C_Map::HideObjectiveType
	mov	ecx, 1
	imul	ecx, 10					; 0000000aH
	mov	DWORD PTR $T4[ebp], ecx
	cmp	DWORD PTR $T4[ebp], 34			; 00000022H
	jae	SHORT $LN57@MenuToggle
	jmp	SHORT $LN58@MenuToggle
$LN57@MenuToggle:
	call	___report_rangecheckfailure
$LN58@MenuToggle:
	mov	edx, DWORD PTR $T4[ebp]
	mov	BYTE PTR ?filterState@FilterSaveStuff@@3PA_NA[edx], 0
$LN10@MenuToggle:

; 227  : 				}
; 228  : 			break;

	jmp	$LN37@MenuToggle
$LN9@MenuToggle:

; 229  : 		case MID_INST_OTHER:
; 230  : 			if(((C_PopupList *)control)->GetItemState(ID))

	mov	eax, DWORD PTR _ID$[ebp]
	push	eax
	mov	ecx, DWORD PTR _control$[ebp]
	call	?GetItemState@C_PopupList@@QAEFJ@Z	; C_PopupList::GetItemState
	movsx	ecx, ax
	test	ecx, ecx
	je	SHORT $LN8@MenuToggle

; 231  : 				{
; 232  : 				gMapMgr->ShowObjectiveType(_OBTV_OTHER);filterState[OBJ_OTHER] = true;

	push	64					; 00000040H
	mov	ecx, DWORD PTR ?gMapMgr@@3PAVC_Map@@A	; gMapMgr
	call	?ShowObjectiveType@C_Map@@QAEXJ@Z	; C_Map::ShowObjectiveType
	mov	edx, 1
	imul	edx, 11					; 0000000bH
	mov	BYTE PTR ?filterState@FilterSaveStuff@@3PA_NA[edx], 1

; 233  : 				}
; 234  : 			else

	jmp	SHORT $LN7@MenuToggle
$LN8@MenuToggle:

; 235  : 				{
; 236  : 				gMapMgr->HideObjectiveType(_OBTV_OTHER);filterState[OBJ_OTHER] = false;

	push	64					; 00000040H
	mov	ecx, DWORD PTR ?gMapMgr@@3PAVC_Map@@A	; gMapMgr
	call	?HideObjectiveType@C_Map@@QAEXJ@Z	; C_Map::HideObjectiveType
	mov	eax, 1
	imul	eax, 11					; 0000000bH
	mov	DWORD PTR $T3[ebp], eax
	cmp	DWORD PTR $T3[ebp], 34			; 00000022H
	jae	SHORT $LN59@MenuToggle
	jmp	SHORT $LN60@MenuToggle
$LN59@MenuToggle:
	call	___report_rangecheckfailure
$LN60@MenuToggle:
	mov	ecx, DWORD PTR $T3[ebp]
	mov	BYTE PTR ?filterState@FilterSaveStuff@@3PA_NA[ecx], 0
$LN7@MenuToggle:

; 237  : 				}
; 238  : 			break;

	jmp	$LN37@MenuToggle
$LN6@MenuToggle:

; 239  : 		case MID_INST_NAVAL:
; 240  : 			if(((C_PopupList *)control)->GetItemState(ID))

	mov	edx, DWORD PTR _ID$[ebp]
	push	edx
	mov	ecx, DWORD PTR _control$[ebp]
	call	?GetItemState@C_PopupList@@QAEFJ@Z	; C_PopupList::GetItemState
	cwde
	test	eax, eax
	je	SHORT $LN5@MenuToggle

; 241  : 				{
; 242  : 				gMapMgr->ShowObjectiveType(_OBTV_NAVAL);filterState[OBJ_NAVAL] = true;

	push	1024					; 00000400H
	mov	ecx, DWORD PTR ?gMapMgr@@3PAVC_Map@@A	; gMapMgr
	call	?ShowObjectiveType@C_Map@@QAEXJ@Z	; C_Map::ShowObjectiveType
	mov	ecx, 1
	imul	ecx, 12					; 0000000cH
	mov	BYTE PTR ?filterState@FilterSaveStuff@@3PA_NA[ecx], 1

; 243  : 				}
; 244  : 			else

	jmp	SHORT $LN4@MenuToggle
$LN5@MenuToggle:

; 245  : 				{
; 246  : 				gMapMgr->HideObjectiveType(_OBTV_NAVAL);filterState[OBJ_NAVAL] = false;

	push	1024					; 00000400H
	mov	ecx, DWORD PTR ?gMapMgr@@3PAVC_Map@@A	; gMapMgr
	call	?HideObjectiveType@C_Map@@QAEXJ@Z	; C_Map::HideObjectiveType
	mov	edx, 1
	imul	edx, 12					; 0000000cH
	mov	DWORD PTR $T2[ebp], edx
	cmp	DWORD PTR $T2[ebp], 34			; 00000022H
	jae	SHORT $LN61@MenuToggle
	jmp	SHORT $LN62@MenuToggle
$LN61@MenuToggle:
	call	___report_rangecheckfailure
$LN62@MenuToggle:
	mov	eax, DWORD PTR $T2[ebp]
	mov	BYTE PTR ?filterState@FilterSaveStuff@@3PA_NA[eax], 0
$LN4@MenuToggle:

; 247  : 				}
; 248  : 			break;

	jmp	SHORT $LN37@MenuToggle
$LN3@MenuToggle:

; 249  : 		case MID_SHOW_VC:
; 250  : 			if(((C_PopupList *)control)->GetItemState(ID))

	mov	ecx, DWORD PTR _ID$[ebp]
	push	ecx
	mov	ecx, DWORD PTR _control$[ebp]
	call	?GetItemState@C_PopupList@@QAEFJ@Z	; C_PopupList::GetItemState
	movsx	edx, ax
	test	edx, edx
	je	SHORT $LN2@MenuToggle

; 251  : 				{
; 252  : 				gMapMgr->ShowObjectiveType(_VC_CONDITION_);filterState[OBJ_VICTORYCOND] = true;

	push	8192					; 00002000H
	mov	ecx, DWORD PTR ?gMapMgr@@3PAVC_Map@@A	; gMapMgr
	call	?ShowObjectiveType@C_Map@@QAEXJ@Z	; C_Map::ShowObjectiveType
	mov	eax, 1
	imul	eax, 13					; 0000000dH
	mov	BYTE PTR ?filterState@FilterSaveStuff@@3PA_NA[eax], 1

; 253  : 				}
; 254  : 			else

	jmp	SHORT $LN37@MenuToggle
$LN2@MenuToggle:

; 255  : 				{
; 256  : 				gMapMgr->HideObjectiveType(_VC_CONDITION_);filterState[OBJ_VICTORYCOND] = false;

	push	8192					; 00002000H
	mov	ecx, DWORD PTR ?gMapMgr@@3PAVC_Map@@A	; gMapMgr
	call	?HideObjectiveType@C_Map@@QAEXJ@Z	; C_Map::HideObjectiveType
	mov	ecx, 1
	imul	ecx, 13					; 0000000dH
	mov	DWORD PTR $T1[ebp], ecx
	cmp	DWORD PTR $T1[ebp], 34			; 00000022H
	jae	SHORT $LN63@MenuToggle
	jmp	SHORT $LN64@MenuToggle
$LN63@MenuToggle:
	call	___report_rangecheckfailure
$LN64@MenuToggle:
	mov	edx, DWORD PTR $T1[ebp]
	mov	BYTE PTR ?filterState@FilterSaveStuff@@3PA_NA[edx], 0
$LN37@MenuToggle:

; 257  : 				}
; 258  : 			break;
; 259  : 	}
; 260  : 	gMapMgr->DrawMap();

	mov	ecx, DWORD PTR ?gMapMgr@@3PAVC_Map@@A	; gMapMgr
	call	?DrawMap@C_Map@@QAEXXZ			; C_Map::DrawMap
$LN40@MenuToggle:

; 261  : }

	mov	esp, ebp
	pop	ebp
	ret	0
	npad	1
$LN66@MenuToggle:
	DD	$LN33@MenuToggle
	DD	$LN30@MenuToggle
	DD	$LN27@MenuToggle
	DD	$LN24@MenuToggle
	DD	$LN21@MenuToggle
	DD	$LN18@MenuToggle
	DD	$LN15@MenuToggle
	DD	$LN12@MenuToggle
	DD	$LN9@MenuToggle
	DD	$LN6@MenuToggle
?MenuToggleObjectiveCB@@YAXJFPAVC_Base@@@Z ENDP		; MenuToggleObjectiveCB
_TEXT	ENDS
; Function compile flags: /Odtp
; File c:\users\zhitao li\documents\visual studio 2012\projects\freefalcon\ui\include\urefresh.h
;	COMDAT ?GetSide@UI_Refresher@@QAEEXZ
_TEXT	SEGMENT
_this$ = -4						; size = 4
?GetSide@UI_Refresher@@QAEEXZ PROC			; UI_Refresher::GetSide, COMDAT
; _this$ = ecx

; 61   : 		uchar GetSide() { return(Side_); }

	push	ebp
	mov	ebp, esp
	push	ecx
	mov	DWORD PTR _this$[ebp], ecx
	mov	eax, DWORD PTR _this$[ebp]
	mov	al, BYTE PTR [eax+7]
	mov	esp, ebp
	pop	ebp
	ret	0
?GetSide@UI_Refresher@@QAEEXZ ENDP			; UI_Refresher::GetSide
_TEXT	ENDS
; Function compile flags: /Odtp
; File c:\users\zhitao li\documents\visual studio 2012\projects\freefalcon\ui\include\urefresh.h
;	COMDAT ?GetType@UI_Refresher@@QAEEXZ
_TEXT	SEGMENT
_this$ = -4						; size = 4
?GetType@UI_Refresher@@QAEEXZ PROC			; UI_Refresher::GetType, COMDAT
; _this$ = ecx

; 58   : 		uchar GetType() { return(Type_); }

	push	ebp
	mov	ebp, esp
	push	ecx
	mov	DWORD PTR _this$[ebp], ecx
	mov	eax, DWORD PTR _this$[ebp]
	mov	al, BYTE PTR [eax+6]
	mov	esp, ebp
	pop	ebp
	ret	0
?GetType@UI_Refresher@@QAEEXZ ENDP			; UI_Refresher::GetType
_TEXT	ENDS
; Function compile flags: /Odtp
; File c:\users\zhitao li\documents\visual studio 2012\projects\freefalcon\ui\include\urefresh.h
;	COMDAT ?GetDivID@UI_Refresher@@QAEFXZ
_TEXT	SEGMENT
_this$ = -4						; size = 4
?GetDivID@UI_Refresher@@QAEFXZ PROC			; UI_Refresher::GetDivID, COMDAT
; _this$ = ecx

; 55   : 		short GetDivID() { return(DivID_); }

	push	ebp
	mov	ebp, esp
	push	ecx
	mov	DWORD PTR _this$[ebp], ecx
	mov	eax, DWORD PTR _this$[ebp]
	mov	ax, WORD PTR [eax+2]
	mov	esp, ebp
	pop	ebp
	ret	0
?GetDivID@UI_Refresher@@QAEFXZ ENDP			; UI_Refresher::GetDivID
_TEXT	ENDS
; Function compile flags: /Odtp
; File c:\users\zhitao li\documents\visual studio 2012\projects\freefalcon\ui\include\urefresh.h
;	COMDAT ?GetID@UI_Refresher@@QAE?AVVU_ID@@XZ
_TEXT	SEGMENT
_this$ = -4						; size = 4
___$ReturnUdt$ = 8					; size = 4
?GetID@UI_Refresher@@QAE?AVVU_ID@@XZ PROC		; UI_Refresher::GetID, COMDAT
; _this$ = ecx

; 52   : 		VU_ID GetID() { return(ID_); }

	push	ebp
	mov	ebp, esp
	push	ecx
	mov	DWORD PTR _this$[ebp], ecx
	mov	eax, DWORD PTR _this$[ebp]
	mov	ecx, DWORD PTR [eax+8]
	mov	edx, DWORD PTR [eax+12]
	mov	eax, DWORD PTR ___$ReturnUdt$[ebp]
	mov	DWORD PTR [eax], ecx
	mov	DWORD PTR [eax+4], edx
	mov	eax, DWORD PTR ___$ReturnUdt$[ebp]
	mov	esp, ebp
	pop	ebp
	ret	4
?GetID@UI_Refresher@@QAE?AVVU_ID@@XZ ENDP		; UI_Refresher::GetID
_TEXT	ENDS
; Function compile flags: /Odtp
; File c:\users\zhitao li\documents\visual studio 2012\projects\freefalcon\ui\include\gps.h
;	COMDAT ?GetTeamNo@GlobalPositioningSystem@@QAEJXZ
_TEXT	SEGMENT
_this$ = -4						; size = 4
?GetTeamNo@GlobalPositioningSystem@@QAEJXZ PROC		; GlobalPositioningSystem::GetTeamNo, COMDAT
; _this$ = ecx

; 77   : 		long GetTeamNo()						{ return(TeamNo_); }

	push	ebp
	mov	ebp, esp
	push	ecx
	mov	DWORD PTR _this$[ebp], ecx
	mov	eax, DWORD PTR _this$[ebp]
	mov	eax, DWORD PTR [eax+56]
	mov	esp, ebp
	pop	ebp
	ret	0
?GetTeamNo@GlobalPositioningSystem@@QAEJXZ ENDP		; GlobalPositioningSystem::GetTeamNo
_TEXT	ENDS
; Function compile flags: /Odtp
;	COMDAT ??_GC_3dViewer@@QAEPAXI@Z
_TEXT	SEGMENT
_this$ = -4						; size = 4
___flags$ = 8						; size = 4
??_GC_3dViewer@@QAEPAXI@Z PROC				; C_3dViewer::`scalar deleting destructor', COMDAT
; _this$ = ecx
	push	ebp
	mov	ebp, esp
	push	ecx
	mov	DWORD PTR _this$[ebp], ecx
	mov	ecx, DWORD PTR _this$[ebp]
	call	??1C_3dViewer@@QAE@XZ			; C_3dViewer::~C_3dViewer
	mov	eax, DWORD PTR ___flags$[ebp]
	and	eax, 1
	je	SHORT $LN1@scalar
	mov	ecx, DWORD PTR _this$[ebp]
	push	ecx
	call	??3@YAXPAX@Z				; operator delete
	add	esp, 4
$LN1@scalar:
	mov	eax, DWORD PTR _this$[ebp]
	mov	esp, ebp
	pop	ebp
	ret	4
??_GC_3dViewer@@QAEPAXI@Z ENDP				; C_3dViewer::`scalar deleting destructor'
_TEXT	ENDS
; Function compile flags: /Odtp
; File c:\users\zhitao li\documents\visual studio 2012\projects\freefalcon\ui\include\c3dview.h
;	COMDAT ??1C_3dViewer@@QAE@XZ
_TEXT	SEGMENT
_this$ = -4						; size = 4
??1C_3dViewer@@QAE@XZ PROC				; C_3dViewer::~C_3dViewer, COMDAT
; _this$ = ecx

; 65   : 		~C_3dViewer() { Cleanup(); }

	push	ebp
	mov	ebp, esp
	push	ecx
	mov	DWORD PTR _this$[ebp], ecx
	mov	ecx, DWORD PTR _this$[ebp]
	call	?Cleanup@C_3dViewer@@QAEHXZ		; C_3dViewer::Cleanup
	mov	esp, ebp
	pop	ebp
	ret	0
??1C_3dViewer@@QAE@XZ ENDP				; C_3dViewer::~C_3dViewer
_TEXT	ENDS
; Function compile flags: /Odtp
; File c:\users\zhitao li\documents\visual studio 2012\projects\freefalcon\ui\include\c3dview.h
;	COMDAT ??0C_3dViewer@@QAE@XZ
_TEXT	SEGMENT
_this$ = -4						; size = 4
??0C_3dViewer@@QAE@XZ PROC				; C_3dViewer::C_3dViewer, COMDAT
; _this$ = ecx

; 37   : 		C_3dViewer()

	push	ebp
	mov	ebp, esp
	push	ecx
	push	esi
	push	edi
	mov	DWORD PTR _this$[ebp], ecx

; 38   : 		{
; 39   : 			rend3d_=NULL;

	mov	eax, DWORD PTR _this$[ebp]
	mov	DWORD PTR [eax], 0

; 40   : 			rendOTW_=NULL;

	mov	ecx, DWORD PTR _this$[ebp]
	mov	DWORD PTR [ecx+4], 0

; 41   : 			viewPoint_=NULL;

	mov	edx, DWORD PTR _this$[ebp]
	mov	DWORD PTR [edx+8], 0

; 42   : 			objects_=NULL;

	mov	eax, DWORD PTR _this$[ebp]
	mov	DWORD PTR [eax+96], 0

; 43   : 			l=-1.0f; t=1.0f;r=1.0f;b=-1.0f;

	mov	ecx, DWORD PTR _this$[ebp]
	movss	xmm0, DWORD PTR __real@bf800000
	movss	DWORD PTR [ecx+132], xmm0
	mov	edx, DWORD PTR _this$[ebp]
	movss	xmm0, DWORD PTR __real@3f800000
	movss	DWORD PTR [edx+136], xmm0
	mov	eax, DWORD PTR _this$[ebp]
	movss	xmm0, DWORD PTR __real@3f800000
	movss	DWORD PTR [eax+140], xmm0
	mov	ecx, DWORD PTR _this$[ebp]
	movss	xmm0, DWORD PTR __real@bf800000
	movss	DWORD PTR [ecx+144], xmm0

; 44   : 			viewPos_.x=0.0f;

	mov	edx, DWORD PTR _this$[ebp]
	movss	xmm0, DWORD PTR __real@00000000
	movss	DWORD PTR [edx+24], xmm0

; 45   : 			viewPos_.y=0.0f;

	mov	eax, DWORD PTR _this$[ebp]
	movss	xmm0, DWORD PTR __real@00000000
	movss	DWORD PTR [eax+28], xmm0

; 46   : 			viewPos_.z=0.0f;

	mov	ecx, DWORD PTR _this$[ebp]
	movss	xmm0, DWORD PTR __real@00000000
	movss	DWORD PTR [ecx+32], xmm0

; 47   : 			zeroPos_=viewPos_;

	mov	edx, DWORD PTR _this$[ebp]
	add	edx, 24					; 00000018H
	mov	eax, DWORD PTR _this$[ebp]
	add	eax, 12					; 0000000cH
	mov	ecx, DWORD PTR [edx]
	mov	DWORD PTR [eax], ecx
	mov	ecx, DWORD PTR [edx+4]
	mov	DWORD PTR [eax+4], ecx
	mov	edx, DWORD PTR [edx+8]
	mov	DWORD PTR [eax+8], edx

; 48   : 			currentPos_=viewPos_;

	mov	eax, DWORD PTR _this$[ebp]
	add	eax, 24					; 00000018H
	mov	ecx, DWORD PTR _this$[ebp]
	add	ecx, 48					; 00000030H
	mov	edx, DWORD PTR [eax]
	mov	DWORD PTR [ecx], edx
	mov	edx, DWORD PTR [eax+4]
	mov	DWORD PTR [ecx+4], edx
	mov	eax, DWORD PTR [eax+8]
	mov	DWORD PTR [ecx+8], eax

; 49   : 			CameraPos_=viewPos_;

	mov	ecx, DWORD PTR _this$[ebp]
	add	ecx, 24					; 00000018H
	mov	edx, DWORD PTR _this$[ebp]
	add	edx, 36					; 00000024H
	mov	eax, DWORD PTR [ecx]
	mov	DWORD PTR [edx], eax
	mov	eax, DWORD PTR [ecx+4]
	mov	DWORD PTR [edx+4], eax
	mov	ecx, DWORD PTR [ecx+8]
	mov	DWORD PTR [edx+8], ecx

; 50   : 			currentRot_=IMatrix;

	mov	edi, DWORD PTR _this$[ebp]
	add	edi, 60					; 0000003cH
	mov	ecx, 9
	mov	esi, OFFSET ?IMatrix@@3UTrotation@@B	; IMatrix
	rep movsd

; 51   : 			CameraHeading_=0.0f;

	mov	edx, DWORD PTR _this$[ebp]
	movss	xmm0, DWORD PTR __real@00000000
	movss	DWORD PTR [edx+104], xmm0

; 52   : 			CameraPitch_=0.0f;

	mov	eax, DWORD PTR _this$[ebp]
	movss	xmm0, DWORD PTR __real@00000000
	movss	DWORD PTR [eax+108], xmm0

; 53   : 			CameraRoll_=0.0f;

	mov	ecx, DWORD PTR _this$[ebp]
	movss	xmm0, DWORD PTR __real@00000000
	movss	DWORD PTR [ecx+112], xmm0

; 54   : 			ViewDistance_=10.0f * FEET_PER_KM;

	mov	edx, DWORD PTR _this$[ebp]
	movss	xmm0, DWORD PTR __real@47001fcd
	movss	DWORD PTR [edx+116], xmm0

; 55   : 			Time_=12l * 60l * 60l * 1000l;

	mov	eax, DWORD PTR _this$[ebp]
	mov	DWORD PTR [eax+120], 43200000		; 02932e00H

; 56   : 			MinTexture_=0;

	mov	ecx, DWORD PTR _this$[ebp]
	mov	DWORD PTR [ecx+124], 0

; 57   : 			MaxTexture_=1;

	mov	edx, DWORD PTR _this$[ebp]
	mov	DWORD PTR [edx+128], 1

; 58   : 			Weather_=0;

	mov	eax, DWORD PTR _this$[ebp]
	movss	xmm0, DWORD PTR __real@00000000
	movss	DWORD PTR [eax+156], xmm0

; 59   : //			TextureLevel_=2;
; 60   : //			SmoothShading_=TRUE;
; 61   : 			sw=800; sh=600;

	mov	ecx, DWORD PTR _this$[ebp]
	movss	xmm0, DWORD PTR __real@44480000
	movss	DWORD PTR [ecx+148], xmm0
	mov	edx, DWORD PTR _this$[ebp]
	movss	xmm0, DWORD PTR __real@44160000
	movss	DWORD PTR [edx+152], xmm0

; 62   : 			LockOnView_=0;

	mov	eax, DWORD PTR _this$[ebp]
	mov	DWORD PTR [eax+160], 0

; 63   : 			m_pImgGray = NULL;	// OW

	mov	ecx, DWORD PTR _this$[ebp]
	mov	DWORD PTR [ecx+100], 0

; 64   : 		}

	mov	eax, DWORD PTR _this$[ebp]
	pop	edi
	pop	esi
	mov	esp, ebp
	pop	ebp
	ret	0
??0C_3dViewer@@QAE@XZ ENDP				; C_3dViewer::C_3dViewer
_TEXT	ENDS
; Function compile flags: /Odtp
; File c:\users\zhitao li\documents\visual studio 2012\projects\freefalcon\ui\include\cmap.h
;	COMDAT ?GetMapRelativeXY@C_Map@@QAEXPAF0@Z
_TEXT	SEGMENT
_this$ = -4						; size = 4
_x$ = 8							; size = 4
_y$ = 12						; size = 4
?GetMapRelativeXY@C_Map@@QAEXPAF0@Z PROC		; C_Map::GetMapRelativeXY, COMDAT
; _this$ = ecx

; 246  : 		{	

	push	ebp
	mov	ebp, esp
	push	ecx
	push	esi
	mov	DWORD PTR _this$[ebp], ecx

; 247  : 			if(DrawWindow_) 

	mov	eax, DWORD PTR _this$[ebp]
	cmp	DWORD PTR [eax+1124], 0
	je	SHORT $LN2@GetMapRela

; 248  : 			{
; 249  : 				*x = static_cast<short>(*x - DrawWindow_->GetX() - DrawWindow_->VX_[0]); 

	mov	ecx, DWORD PTR _x$[ebp]
	movsx	esi, WORD PTR [ecx]
	mov	edx, DWORD PTR _this$[ebp]
	mov	ecx, DWORD PTR [edx+1124]
	call	?GetX@C_Window@@QAEFXZ			; C_Window::GetX
	cwde
	sub	esi, eax
	mov	ecx, DWORD PTR _this$[ebp]
	mov	edx, DWORD PTR [ecx+1124]
	mov	eax, 4
	imul	eax, 0
	sub	esi, DWORD PTR [edx+eax+480]
	mov	ecx, DWORD PTR _x$[ebp]
	mov	WORD PTR [ecx], si

; 250  : 				*y = static_cast<short>(*y - DrawWindow_->GetY() - DrawWindow_->VY_[0]); 

	mov	edx, DWORD PTR _y$[ebp]
	movsx	esi, WORD PTR [edx]
	mov	eax, DWORD PTR _this$[ebp]
	mov	ecx, DWORD PTR [eax+1124]
	call	?GetY@C_Window@@QAEFXZ			; C_Window::GetY
	movsx	ecx, ax
	sub	esi, ecx
	mov	edx, DWORD PTR _this$[ebp]
	mov	eax, DWORD PTR [edx+1124]
	mov	ecx, 4
	imul	ecx, 0
	sub	esi, DWORD PTR [eax+ecx+512]
	mov	edx, DWORD PTR _y$[ebp]
	mov	WORD PTR [edx], si
$LN2@GetMapRela:

; 251  : 			} 
; 252  : 		}

	pop	esi
	mov	esp, ebp
	pop	ebp
	ret	8
?GetMapRelativeXY@C_Map@@QAEXPAF0@Z ENDP		; C_Map::GetMapRelativeXY
_TEXT	ENDS
; Function compile flags: /Odtp
; File c:\users\zhitao li\documents\visual studio 2012\projects\freefalcon\ui\include\cmap.h
;	COMDAT ?GetMapScale@C_Map@@QAEMXZ
_TEXT	SEGMENT
tv68 = -8						; size = 4
_this$ = -4						; size = 4
?GetMapScale@C_Map@@QAEMXZ PROC				; C_Map::GetMapScale, COMDAT
; _this$ = ecx

; 203  : 		float GetMapScale() { return(scale_); }

	push	ebp
	mov	ebp, esp
	sub	esp, 8
	mov	DWORD PTR _this$[ebp], ecx
	mov	eax, DWORD PTR _this$[ebp]
	movss	xmm0, DWORD PTR [eax+728]
	movss	DWORD PTR tv68[ebp], xmm0
	fld	DWORD PTR tv68[ebp]
	mov	esp, ebp
	pop	ebp
	ret	0
?GetMapScale@C_Map@@QAEMXZ ENDP				; C_Map::GetMapScale
_TEXT	ENDS
; Function compile flags: /Odtp
; File c:\users\zhitao li\documents\visual studio 2012\projects\freefalcon\ui\include\cmap.h
;	COMDAT ?GetMaxY@C_Map@@QAEMXZ
_TEXT	SEGMENT
tv68 = -8						; size = 4
_this$ = -4						; size = 4
?GetMaxY@C_Map@@QAEMXZ PROC				; C_Map::GetMaxY, COMDAT
; _this$ = ecx

; 202  : 		float GetMaxY() { return(maxy); }

	push	ebp
	mov	ebp, esp
	sub	esp, 8
	mov	DWORD PTR _this$[ebp], ecx
	mov	eax, DWORD PTR _this$[ebp]
	movss	xmm0, DWORD PTR [eax+732]
	movss	DWORD PTR tv68[ebp], xmm0
	fld	DWORD PTR tv68[ebp]
	mov	esp, ebp
	pop	ebp
	ret	0
?GetMaxY@C_Map@@QAEMXZ ENDP				; C_Map::GetMaxY
_TEXT	ENDS
; Function compile flags: /Odtp
; File c:\users\zhitao li\documents\visual studio 2012\projects\freefalcon\ui\include\cmap.h
;	COMDAT ?GetCurWPID@C_Map@@QAE?AVVU_ID@@XZ
_TEXT	SEGMENT
_this$ = -4						; size = 4
___$ReturnUdt$ = 8					; size = 4
?GetCurWPID@C_Map@@QAE?AVVU_ID@@XZ PROC			; C_Map::GetCurWPID, COMDAT
; _this$ = ecx

; 171  : 		VU_ID GetCurWPID() { return(WPUnitID_); }

	push	ebp
	mov	ebp, esp
	push	ecx
	mov	DWORD PTR _this$[ebp], ecx
	mov	eax, DWORD PTR _this$[ebp]
	mov	ecx, DWORD PTR [eax+1084]
	mov	edx, DWORD PTR [eax+1088]
	mov	eax, DWORD PTR ___$ReturnUdt$[ebp]
	mov	DWORD PTR [eax], ecx
	mov	DWORD PTR [eax+4], edx
	mov	eax, DWORD PTR ___$ReturnUdt$[ebp]
	mov	esp, ebp
	pop	ebp
	ret	4
?GetCurWPID@C_Map@@QAE?AVVU_ID@@XZ ENDP			; C_Map::GetCurWPID
_TEXT	ENDS
; Function compile flags: /Odtp
; File c:\users\zhitao li\documents\visual studio 2012\projects\freefalcon\ui\include\cmap.h
;	COMDAT ?GetCurWP@C_Map@@QAEPAVC_Waypoint@@XZ
_TEXT	SEGMENT
_this$ = -4						; size = 4
?GetCurWP@C_Map@@QAEPAVC_Waypoint@@XZ PROC		; C_Map::GetCurWP, COMDAT
; _this$ = ecx

; 169  : 		C_Waypoint *GetCurWP() { return(CurWP_); }

	push	ebp
	mov	ebp, esp
	push	ecx
	mov	DWORD PTR _this$[ebp], ecx
	mov	eax, DWORD PTR _this$[ebp]
	mov	eax, DWORD PTR [eax+1092]
	mov	esp, ebp
	pop	ebp
	ret	0
?GetCurWP@C_Map@@QAEPAVC_Waypoint@@XZ ENDP		; C_Map::GetCurWP
_TEXT	ENDS
; Function compile flags: /Odtp
; File c:\users\zhitao li\documents\visual studio 2012\projects\freefalcon\campaign\include\unit.h
;	COMDAT ?GetFirstUnitWP@UnitClass@@QAEPAVWayPointClass@@XZ
_TEXT	SEGMENT
_this$ = -4						; size = 4
?GetFirstUnitWP@UnitClass@@QAEPAVWayPointClass@@XZ PROC	; UnitClass::GetFirstUnitWP, COMDAT
; _this$ = ecx

; 431  : 	WayPoint GetFirstUnitWP()				{ return wp_list; }

	push	ebp
	mov	ebp, esp
	push	ecx
	mov	DWORD PTR _this$[ebp], ecx
	mov	eax, DWORD PTR _this$[ebp]
	mov	eax, DWORD PTR [eax+244]
	mov	esp, ebp
	pop	ebp
	ret	0
?GetFirstUnitWP@UnitClass@@QAEPAVWayPointClass@@XZ ENDP	; UnitClass::GetFirstUnitWP
_TEXT	ENDS
; Function compile flags: /Odtp
; File c:\users\zhitao li\documents\visual studio 2012\projects\freefalcon\campaign\include\campbase.h
;	COMDAT ?GetIdentified@CampBaseClass@@QAEHE@Z
_TEXT	SEGMENT
_this$ = -4						; size = 4
_t$ = 8							; size = 1
?GetIdentified@CampBaseClass@@QAEHE@Z PROC		; CampBaseClass::GetIdentified, COMDAT
; _this$ = ecx

; 294  : 	int GetIdentified (Team t)					{   return (spotted >> (t + 8)) & 0x01; } // 2002-02-11 ADDED BY S.G. Getter to know if the target is identified or not.

	push	ebp
	mov	ebp, esp
	push	ecx
	mov	DWORD PTR _this$[ebp], ecx
	mov	eax, DWORD PTR _this$[ebp]
	movsx	eax, WORD PTR [eax+148]
	movzx	ecx, BYTE PTR _t$[ebp]
	add	ecx, 8
	sar	eax, cl
	and	eax, 1
	mov	esp, ebp
	pop	ebp
	ret	4
?GetIdentified@CampBaseClass@@QAEHE@Z ENDP		; CampBaseClass::GetIdentified
_TEXT	ENDS
; Function compile flags: /Odtp
; File c:\users\zhitao li\documents\visual studio 2012\projects\freefalcon\campaign\include\campwp.h
;	COMDAT ?GetPrevWP@WayPointClass@@QAEPAV1@XZ
_TEXT	SEGMENT
_this$ = -4						; size = 4
?GetPrevWP@WayPointClass@@QAEPAV1@XZ PROC		; WayPointClass::GetPrevWP, COMDAT
; _this$ = ecx

; 176  : 	WayPoint GetPrevWP (void)						{ return PrevWP; }

	push	ebp
	mov	ebp, esp
	push	ecx
	mov	DWORD PTR _this$[ebp], ecx
	mov	eax, DWORD PTR _this$[ebp]
	mov	eax, DWORD PTR [eax+40]
	mov	esp, ebp
	pop	ebp
	ret	0
?GetPrevWP@WayPointClass@@QAEPAV1@XZ ENDP		; WayPointClass::GetPrevWP
_TEXT	ENDS
; Function compile flags: /Odtp
; File c:\users\zhitao li\documents\visual studio 2012\projects\freefalcon\campaign\include\campwp.h
;	COMDAT ?GetNextWP@WayPointClass@@QAEPAV1@XZ
_TEXT	SEGMENT
_this$ = -4						; size = 4
?GetNextWP@WayPointClass@@QAEPAV1@XZ PROC		; WayPointClass::GetNextWP, COMDAT
; _this$ = ecx

; 175  : 	WayPoint GetNextWP (void)						{ return NextWP; }

	push	ebp
	mov	ebp, esp
	push	ecx
	mov	DWORD PTR _this$[ebp], ecx
	mov	eax, DWORD PTR _this$[ebp]
	mov	eax, DWORD PTR [eax+44]
	mov	esp, ebp
	pop	ebp
	ret	0
?GetNextWP@WayPointClass@@QAEPAV1@XZ ENDP		; WayPointClass::GetNextWP
_TEXT	ENDS
; Function compile flags: /Odtp
; File c:\users\zhitao li\documents\visual studio 2012\projects\freefalcon\campaign\include\campwp.h
;	COMDAT ?GetWPFlags@WayPointClass@@QAEKXZ
_TEXT	SEGMENT
_this$ = -4						; size = 4
?GetWPFlags@WayPointClass@@QAEKXZ PROC			; WayPointClass::GetWPFlags, COMDAT
; _this$ = ecx

; 173  : 	ulong GetWPFlags (void)							{ return (ulong)Flags; }

	push	ebp
	mov	ebp, esp
	push	ecx
	mov	DWORD PTR _this$[ebp], ecx
	mov	eax, DWORD PTR _this$[ebp]
	mov	eax, DWORD PTR [eax+28]
	mov	esp, ebp
	pop	ebp
	ret	0
?GetWPFlags@WayPointClass@@QAEKXZ ENDP			; WayPointClass::GetWPFlags
_TEXT	ENDS
; Function compile flags: /Odtp
; File c:\users\zhitao li\documents\visual studio 2012\projects\freefalcon\campaign\include\campwp.h
;	COMDAT ?GetWPFormation@WayPointClass@@QAEHXZ
_TEXT	SEGMENT
_this$ = -4						; size = 4
?GetWPFormation@WayPointClass@@QAEHXZ PROC		; WayPointClass::GetWPFormation, COMDAT
; _this$ = ecx

; 172  : 	int GetWPFormation (void)						{ return (int)Formation; }

	push	ebp
	mov	ebp, esp
	push	ecx
	mov	DWORD PTR _this$[ebp], ecx
	mov	eax, DWORD PTR _this$[ebp]
	movzx	eax, BYTE PTR [eax+26]
	mov	esp, ebp
	pop	ebp
	ret	0
?GetWPFormation@WayPointClass@@QAEHXZ ENDP		; WayPointClass::GetWPFormation
_TEXT	ENDS
; Function compile flags: /Odtp
; File c:\users\zhitao li\documents\visual studio 2012\projects\freefalcon\campaign\include\campwp.h
;	COMDAT ?GetWPRouteAction@WayPointClass@@QAEHXZ
_TEXT	SEGMENT
_this$ = -4						; size = 4
?GetWPRouteAction@WayPointClass@@QAEHXZ PROC		; WayPointClass::GetWPRouteAction, COMDAT
; _this$ = ecx

; 171  : 	int GetWPRouteAction(void)						{ return (int)RouteAction; }

	push	ebp
	mov	ebp, esp
	push	ecx
	mov	DWORD PTR _this$[ebp], ecx
	mov	eax, DWORD PTR _this$[ebp]
	movzx	eax, BYTE PTR [eax+25]
	mov	esp, ebp
	pop	ebp
	ret	0
?GetWPRouteAction@WayPointClass@@QAEHXZ ENDP		; WayPointClass::GetWPRouteAction
_TEXT	ENDS
; Function compile flags: /Odtp
; File c:\users\zhitao li\documents\visual studio 2012\projects\freefalcon\campaign\include\campwp.h
;	COMDAT ?GetWPAction@WayPointClass@@QAEHXZ
_TEXT	SEGMENT
_this$ = -4						; size = 4
?GetWPAction@WayPointClass@@QAEHXZ PROC			; WayPointClass::GetWPAction, COMDAT
; _this$ = ecx

; 170  : 	int GetWPAction(void)							{ return (int)Action; }

	push	ebp
	mov	ebp, esp
	push	ecx
	mov	DWORD PTR _this$[ebp], ecx
	mov	eax, DWORD PTR _this$[ebp]
	movzx	eax, BYTE PTR [eax+24]
	mov	esp, ebp
	pop	ebp
	ret	0
?GetWPAction@WayPointClass@@QAEHXZ ENDP			; WayPointClass::GetWPAction
_TEXT	ENDS
; Function compile flags: /Odtp
; File c:\users\zhitao li\documents\visual studio 2012\projects\freefalcon\campaign\include\campwp.h
;	COMDAT ?UnSetWPFlag@WayPointClass@@QAEXK@Z
_TEXT	SEGMENT
_this$ = -4						; size = 4
_f$ = 8							; size = 4
?UnSetWPFlag@WayPointClass@@QAEXK@Z PROC		; WayPointClass::UnSetWPFlag, COMDAT
; _this$ = ecx

; 165  : 	void UnSetWPFlag (ulong f)						{ Flags &= ~((ulong)(f)); }

	push	ebp
	mov	ebp, esp
	push	ecx
	mov	DWORD PTR _this$[ebp], ecx
	mov	eax, DWORD PTR _f$[ebp]
	not	eax
	mov	ecx, DWORD PTR _this$[ebp]
	and	eax, DWORD PTR [ecx+28]
	mov	edx, DWORD PTR _this$[ebp]
	mov	DWORD PTR [edx+28], eax
	mov	esp, ebp
	pop	ebp
	ret	4
?UnSetWPFlag@WayPointClass@@QAEXK@Z ENDP		; WayPointClass::UnSetWPFlag
_TEXT	ENDS
; Function compile flags: /Odtp
; File c:\users\zhitao li\documents\visual studio 2012\projects\freefalcon\campaign\include\campwp.h
;	COMDAT ?SetWPFlag@WayPointClass@@QAEXK@Z
_TEXT	SEGMENT
_this$ = -4						; size = 4
_f$ = 8							; size = 4
?SetWPFlag@WayPointClass@@QAEXK@Z PROC			; WayPointClass::SetWPFlag, COMDAT
; _this$ = ecx

; 164  : 	void SetWPFlag (ulong f)						{ Flags |= (ulong) f; }

	push	ebp
	mov	ebp, esp
	push	ecx
	mov	DWORD PTR _this$[ebp], ecx
	mov	eax, DWORD PTR _this$[ebp]
	mov	ecx, DWORD PTR [eax+28]
	or	ecx, DWORD PTR _f$[ebp]
	mov	edx, DWORD PTR _this$[ebp]
	mov	DWORD PTR [edx+28], ecx
	mov	esp, ebp
	pop	ebp
	ret	4
?SetWPFlag@WayPointClass@@QAEXK@Z ENDP			; WayPointClass::SetWPFlag
_TEXT	ENDS
; Function compile flags: /Odtp
; File c:\users\zhitao li\documents\visual studio 2012\projects\freefalcon\campaign\include\campwp.h
;	COMDAT ?SetWPFormation@WayPointClass@@QAEXH@Z
_TEXT	SEGMENT
_this$ = -4						; size = 4
_f$ = 8							; size = 4
?SetWPFormation@WayPointClass@@QAEXH@Z PROC		; WayPointClass::SetWPFormation, COMDAT
; _this$ = ecx

; 162  : 	void SetWPFormation (int f)						{ Formation = (uchar) f; }

	push	ebp
	mov	ebp, esp
	push	ecx
	mov	DWORD PTR _this$[ebp], ecx
	mov	eax, DWORD PTR _this$[ebp]
	mov	cl, BYTE PTR _f$[ebp]
	mov	BYTE PTR [eax+26], cl
	mov	esp, ebp
	pop	ebp
	ret	4
?SetWPFormation@WayPointClass@@QAEXH@Z ENDP		; WayPointClass::SetWPFormation
_TEXT	ENDS
; Function compile flags: /Odtp
; File c:\users\zhitao li\documents\visual studio 2012\projects\freefalcon\campaign\include\campwp.h
;	COMDAT ?SetWPRouteAction@WayPointClass@@QAEXH@Z
_TEXT	SEGMENT
_this$ = -4						; size = 4
_a$ = 8							; size = 4
?SetWPRouteAction@WayPointClass@@QAEXH@Z PROC		; WayPointClass::SetWPRouteAction, COMDAT
; _this$ = ecx

; 161  : 	void SetWPRouteAction (int a)					{ RouteAction = (uchar) a; }

	push	ebp
	mov	ebp, esp
	push	ecx
	mov	DWORD PTR _this$[ebp], ecx
	mov	eax, DWORD PTR _this$[ebp]
	mov	cl, BYTE PTR _a$[ebp]
	mov	BYTE PTR [eax+25], cl
	mov	esp, ebp
	pop	ebp
	ret	4
?SetWPRouteAction@WayPointClass@@QAEXH@Z ENDP		; WayPointClass::SetWPRouteAction
_TEXT	ENDS
; Function compile flags: /Odtp
; File c:\users\zhitao li\documents\visual studio 2012\projects\freefalcon\ui95_ext\cdrawlst.h
;	COMDAT ?GetLastItem@C_DrawList@@QAEPAVMAPICONLIST@@XZ
_TEXT	SEGMENT
_this$ = -4						; size = 4
?GetLastItem@C_DrawList@@QAEPAVMAPICONLIST@@XZ PROC	; C_DrawList::GetLastItem, COMDAT
; _this$ = ecx

; 33   :  		MAPICONLIST	*GetLastItem() { return(Last_); }

	push	ebp
	mov	ebp, esp
	push	ecx
	mov	DWORD PTR _this$[ebp], ecx
	mov	eax, DWORD PTR _this$[ebp]
	mov	eax, DWORD PTR [eax+108]
	mov	esp, ebp
	pop	ebp
	ret	0
?GetLastItem@C_DrawList@@QAEPAVMAPICONLIST@@XZ ENDP	; C_DrawList::GetLastItem
_TEXT	ENDS
; Function compile flags: /Odtp
; File c:\users\zhitao li\documents\visual studio 2012\projects\freefalcon\ui95_ext\cdrawlst.h
;	COMDAT ?GetIconID@C_DrawList@@QAEJXZ
_TEXT	SEGMENT
_this$ = -4						; size = 4
?GetIconID@C_DrawList@@QAEJXZ PROC			; C_DrawList::GetIconID, COMDAT
; _this$ = ecx

; 31   : 		long GetIconID() { if(Last_) return(Last_->ID); return(0); }

	push	ebp
	mov	ebp, esp
	push	ecx
	mov	DWORD PTR _this$[ebp], ecx
	mov	eax, DWORD PTR _this$[ebp]
	cmp	DWORD PTR [eax+108], 0
	je	SHORT $LN1@GetIconID
	mov	ecx, DWORD PTR _this$[ebp]
	mov	edx, DWORD PTR [ecx+108]
	mov	eax, DWORD PTR [edx]
	jmp	SHORT $LN2@GetIconID
$LN1@GetIconID:
	xor	eax, eax
$LN2@GetIconID:
	mov	esp, ebp
	pop	ebp
	ret	0
?GetIconID@C_DrawList@@QAEJXZ ENDP			; C_DrawList::GetIconID
_TEXT	ENDS
; Function compile flags: /Odtp
; File c:\users\zhitao li\documents\visual studio 2012\projects\freefalcon\ui95_ext\cwaypnt.h
;	COMDAT ?GetLast@C_Waypoint@@QAEPAVWAYPOINTLIST@@XZ
_TEXT	SEGMENT
_this$ = -4						; size = 4
?GetLast@C_Waypoint@@QAEPAVWAYPOINTLIST@@XZ PROC	; C_Waypoint::GetLast, COMDAT
; _this$ = ecx

; 92   : 		WAYPOINTLIST *GetLast() { return(LastWP_); }

	push	ebp
	mov	ebp, esp
	push	ecx
	mov	DWORD PTR _this$[ebp], ecx
	mov	eax, DWORD PTR _this$[ebp]
	mov	eax, DWORD PTR [eax+104]
	mov	esp, ebp
	pop	ebp
	ret	0
?GetLast@C_Waypoint@@QAEPAVWAYPOINTLIST@@XZ ENDP	; C_Waypoint::GetLast
_TEXT	ENDS
; Function compile flags: /Odtp
; File c:\users\zhitao li\documents\visual studio 2012\projects\freefalcon\ui95_ext\cicons.h
;	COMDAT ?GetIconID@C_MapIcon@@QAEJXZ
_TEXT	SEGMENT
_this$ = -4						; size = 4
?GetIconID@C_MapIcon@@QAEJXZ PROC			; C_MapIcon::GetIconID, COMDAT
; _this$ = ecx

; 132  : 		long GetIconID() { if(Last_) return(Last_->ID); return(0); }

	push	ebp
	mov	ebp, esp
	push	ecx
	mov	DWORD PTR _this$[ebp], ecx
	mov	eax, DWORD PTR _this$[ebp]
	cmp	DWORD PTR [eax+132], 0
	je	SHORT $LN1@GetIconID
	mov	ecx, DWORD PTR _this$[ebp]
	mov	edx, DWORD PTR [ecx+132]
	mov	eax, DWORD PTR [edx]
	jmp	SHORT $LN2@GetIconID
$LN1@GetIconID:
	xor	eax, eax
$LN2@GetIconID:
	mov	esp, ebp
	pop	ebp
	ret	0
?GetIconID@C_MapIcon@@QAEJXZ ENDP			; C_MapIcon::GetIconID
_TEXT	ENDS
; Function compile flags: /Odtp
; File c:\users\zhitao li\documents\visual studio 2012\projects\freefalcon\ui95\cwindow.h
;	COMDAT ?GetY@C_Window@@QAEFXZ
_TEXT	SEGMENT
_this$ = -4						; size = 4
?GetY@C_Window@@QAEFXZ PROC				; C_Window::GetY, COMDAT
; _this$ = ecx

; 311  : 		short GetY() { return(y_); }

	push	ebp
	mov	ebp, esp
	push	ecx
	mov	DWORD PTR _this$[ebp], ecx
	mov	eax, DWORD PTR _this$[ebp]
	mov	ax, WORD PTR [eax+430]
	mov	esp, ebp
	pop	ebp
	ret	0
?GetY@C_Window@@QAEFXZ ENDP				; C_Window::GetY
_TEXT	ENDS
; Function compile flags: /Odtp
; File c:\users\zhitao li\documents\visual studio 2012\projects\freefalcon\ui95\cwindow.h
;	COMDAT ?GetX@C_Window@@QAEFXZ
_TEXT	SEGMENT
_this$ = -4						; size = 4
?GetX@C_Window@@QAEFXZ PROC				; C_Window::GetX, COMDAT
; _this$ = ecx

; 310  : 		short GetX() { return(x_); }

	push	ebp
	mov	ebp, esp
	push	ecx
	mov	DWORD PTR _this$[ebp], ecx
	mov	eax, DWORD PTR _this$[ebp]
	mov	ax, WORD PTR [eax+428]
	mov	esp, ebp
	pop	ebp
	ret	0
?GetX@C_Window@@QAEFXZ ENDP				; C_Window::GetX
_TEXT	ENDS
; Function compile flags: /Odtp
; File c:\users\zhitao li\documents\visual studio 2012\projects\freefalcon\ui95\cwindow.h
;	COMDAT ?GetID@C_Window@@QAEJXZ
_TEXT	SEGMENT
_this$ = -4						; size = 4
?GetID@C_Window@@QAEJXZ PROC				; C_Window::GetID, COMDAT
; _this$ = ecx

; 302  : 		long GetID() { return(ID_); }

	push	ebp
	mov	ebp, esp
	push	ecx
	mov	DWORD PTR _this$[ebp], ecx
	mov	eax, DWORD PTR _this$[ebp]
	mov	eax, DWORD PTR [eax]
	mov	esp, ebp
	pop	ebp
	ret	0
?GetID@C_Window@@QAEJXZ ENDP				; C_Window::GetID
_TEXT	ENDS
; Function compile flags: /Odtp
; File c:\users\zhitao li\documents\visual studio 2012\projects\freefalcon\ui95\cpopmgr.h
;	COMDAT ?GetCallingControl@C_PopupMgr@@QAEPAVC_Base@@XZ
_TEXT	SEGMENT
_this$ = -4						; size = 4
?GetCallingControl@C_PopupMgr@@QAEPAVC_Base@@XZ PROC	; C_PopupMgr::GetCallingControl, COMDAT
; _this$ = ecx

; 58   : 		C_Base *GetCallingControl() { return(Control_); }

	push	ebp
	mov	ebp, esp
	push	ecx
	mov	DWORD PTR _this$[ebp], ecx
	mov	eax, DWORD PTR _this$[ebp]
	mov	eax, DWORD PTR [eax+24]
	mov	esp, ebp
	pop	ebp
	ret	0
?GetCallingControl@C_PopupMgr@@QAEPAVC_Base@@XZ ENDP	; C_PopupMgr::GetCallingControl
_TEXT	ENDS
; Function compile flags: /Odtp
; File c:\users\zhitao li\documents\visual studio 2012\projects\freefalcon\ui95\cpopmgr.h
;	COMDAT ?GetCallingType@C_PopupMgr@@QAEFXZ
_TEXT	SEGMENT
_this$ = -4						; size = 4
?GetCallingType@C_PopupMgr@@QAEFXZ PROC			; C_PopupMgr::GetCallingType, COMDAT
; _this$ = ecx

; 56   : 		short GetCallingType() { return(CurrentType_); }

	push	ebp
	mov	ebp, esp
	push	ecx
	mov	DWORD PTR _this$[ebp], ecx
	mov	eax, DWORD PTR _this$[ebp]
	mov	ax, WORD PTR [eax+4]
	mov	esp, ebp
	pop	ebp
	ret	0
?GetCallingType@C_PopupMgr@@QAEFXZ ENDP			; C_PopupMgr::GetCallingType
_TEXT	ENDS
; Function compile flags: /Odtp
; File c:\users\zhitao li\documents\visual studio 2012\projects\freefalcon\ui95\cpopup.h
;	COMDAT ?SetOpenCallback@C_PopupList@@QAEXP6AXPAVC_Base@@0@Z@Z
_TEXT	SEGMENT
_this$ = -4						; size = 4
_cb$ = 8						; size = 4
?SetOpenCallback@C_PopupList@@QAEXP6AXPAVC_Base@@0@Z@Z PROC ; C_PopupList::SetOpenCallback, COMDAT
; _this$ = ecx

; 96   : 		void SetOpenCallback(void (*cb)(C_Base *menu,C_Base *caller)) { OpenCallback_=cb; }

	push	ebp
	mov	ebp, esp
	push	ecx
	mov	DWORD PTR _this$[ebp], ecx
	mov	eax, DWORD PTR _this$[ebp]
	mov	ecx, DWORD PTR _cb$[ebp]
	mov	DWORD PTR [eax+164], ecx
	mov	esp, ebp
	pop	ebp
	ret	4
?SetOpenCallback@C_PopupList@@QAEXP6AXPAVC_Base@@0@Z@Z ENDP ; C_PopupList::SetOpenCallback
_TEXT	ENDS
; Function compile flags: /Odtp
; File c:\users\zhitao li\documents\visual studio 2012\projects\freefalcon\ui95\ctree.h
;	COMDAT ?GetLastItem@C_TreeList@@QAEPAVTREELIST@@XZ
_TEXT	SEGMENT
_this$ = -4						; size = 4
?GetLastItem@C_TreeList@@QAEPAVTREELIST@@XZ PROC	; C_TreeList::GetLastItem, COMDAT
; _this$ = ecx

; 119  : 		TREELIST *GetLastItem() { return(LastFound_); }

	push	ebp
	mov	ebp, esp
	push	ecx
	mov	DWORD PTR _this$[ebp], ecx
	mov	eax, DWORD PTR _this$[ebp]
	mov	eax, DWORD PTR [eax+140]
	mov	esp, ebp
	pop	ebp
	ret	0
?GetLastItem@C_TreeList@@QAEPAVTREELIST@@XZ ENDP	; C_TreeList::GetLastItem
_TEXT	ENDS
; Function compile flags: /Odtp
; File c:\users\zhitao li\documents\visual studio 2012\projects\freefalcon\ui95\ctree.h
;	COMDAT ?GetRoot@C_TreeList@@QAEPAVTREELIST@@XZ
_TEXT	SEGMENT
_this$ = -4						; size = 4
?GetRoot@C_TreeList@@QAEPAVTREELIST@@XZ PROC		; C_TreeList::GetRoot, COMDAT
; _this$ = ecx

; 118  : 		TREELIST *GetRoot() { return(Root_); }

	push	ebp
	mov	ebp, esp
	push	ecx
	mov	DWORD PTR _this$[ebp], ecx
	mov	eax, DWORD PTR _this$[ebp]
	mov	eax, DWORD PTR [eax+136]
	mov	esp, ebp
	pop	ebp
	ret	0
?GetRoot@C_TreeList@@QAEPAVTREELIST@@XZ ENDP		; C_TreeList::GetRoot
_TEXT	ENDS
; Function compile flags: /Odtp
; File c:\users\zhitao li\documents\visual studio 2012\projects\freefalcon\ui95\cbase.h
;	COMDAT ?GetY@C_Base@@QAEJXZ
_TEXT	SEGMENT
_this$ = -4						; size = 4
?GetY@C_Base@@QAEJXZ PROC				; C_Base::GetY, COMDAT
; _this$ = ecx

; 142  : 		long GetY()					{ return(y_); }

	push	ebp
	mov	ebp, esp
	push	ecx
	mov	DWORD PTR _this$[ebp], ecx
	mov	eax, DWORD PTR _this$[ebp]
	mov	eax, DWORD PTR [eax+28]
	mov	esp, ebp
	pop	ebp
	ret	0
?GetY@C_Base@@QAEJXZ ENDP				; C_Base::GetY
_TEXT	ENDS
; Function compile flags: /Odtp
; File c:\users\zhitao li\documents\visual studio 2012\projects\freefalcon\ui95\cbase.h
;	COMDAT ?GetX@C_Base@@QAEJXZ
_TEXT	SEGMENT
_this$ = -4						; size = 4
?GetX@C_Base@@QAEJXZ PROC				; C_Base::GetX, COMDAT
; _this$ = ecx

; 141  : 		long GetX()					{ return(x_); }

	push	ebp
	mov	ebp, esp
	push	ecx
	mov	DWORD PTR _this$[ebp], ecx
	mov	eax, DWORD PTR _this$[ebp]
	mov	eax, DWORD PTR [eax+24]
	mov	esp, ebp
	pop	ebp
	ret	0
?GetX@C_Base@@QAEJXZ ENDP				; C_Base::GetX
_TEXT	ENDS
; Function compile flags: /Odtp
; File c:\users\zhitao li\documents\visual studio 2012\projects\freefalcon\ui95\cbase.h
;	COMDAT ?_GetCType_@C_Base@@QAEFXZ
_TEXT	SEGMENT
_this$ = -4						; size = 4
?_GetCType_@C_Base@@QAEFXZ PROC				; C_Base::_GetCType_, COMDAT
; _this$ = ecx

; 136  : 		short _GetCType_()			{ return(_CType_); }

	push	ebp
	mov	ebp, esp
	push	ecx
	mov	DWORD PTR _this$[ebp], ecx
	mov	eax, DWORD PTR _this$[ebp]
	mov	ax, WORD PTR [eax+20]
	mov	esp, ebp
	pop	ebp
	ret	0
?_GetCType_@C_Base@@QAEFXZ ENDP				; C_Base::_GetCType_
_TEXT	ENDS
; Function compile flags: /Odtp
; File c:\users\zhitao li\documents\visual studio 2012\projects\freefalcon\ui95\cbase.h
;	COMDAT ?GetType@C_Base@@QAEFXZ
_TEXT	SEGMENT
_this$ = -4						; size = 4
?GetType@C_Base@@QAEFXZ PROC				; C_Base::GetType, COMDAT
; _this$ = ecx

; 135  : 		short GetType()				{ return(Type_); }

	push	ebp
	mov	ebp, esp
	push	ecx
	mov	DWORD PTR _this$[ebp], ecx
	mov	eax, DWORD PTR _this$[ebp]
	mov	ax, WORD PTR [eax+22]
	mov	esp, ebp
	pop	ebp
	ret	0
?GetType@C_Base@@QAEFXZ ENDP				; C_Base::GetType
_TEXT	ENDS
; Function compile flags: /Odtp
; File c:\users\zhitao li\documents\visual studio 2012\projects\freefalcon\vu2\include\vuentity.h
;	COMDAT ?ZPos@VuEntity@@QBEMXZ
_TEXT	SEGMENT
_this$ = -4						; size = 4
?ZPos@VuEntity@@QBEMXZ PROC				; VuEntity::ZPos, COMDAT
; _this$ = ecx

; 160  : 	BIG_SCALAR ZPos()	const { return pos_.z_; }

	push	ebp
	mov	ebp, esp
	push	ecx
	mov	DWORD PTR _this$[ebp], ecx
	mov	eax, DWORD PTR _this$[ebp]
	fld	DWORD PTR [eax+44]
	mov	esp, ebp
	pop	ebp
	ret	0
?ZPos@VuEntity@@QBEMXZ ENDP				; VuEntity::ZPos
_TEXT	ENDS
; Function compile flags: /Odtp
; File c:\users\zhitao li\documents\visual studio 2012\projects\freefalcon\vu2\include\vuentity.h
;	COMDAT ?YPos@VuEntity@@QBEMXZ
_TEXT	SEGMENT
_this$ = -4						; size = 4
?YPos@VuEntity@@QBEMXZ PROC				; VuEntity::YPos, COMDAT
; _this$ = ecx

; 159  : 	BIG_SCALAR YPos()	const { return pos_.y_; }

	push	ebp
	mov	ebp, esp
	push	ecx
	mov	DWORD PTR _this$[ebp], ecx
	mov	eax, DWORD PTR _this$[ebp]
	fld	DWORD PTR [eax+40]
	mov	esp, ebp
	pop	ebp
	ret	0
?YPos@VuEntity@@QBEMXZ ENDP				; VuEntity::YPos
_TEXT	ENDS
; Function compile flags: /Odtp
; File c:\users\zhitao li\documents\visual studio 2012\projects\freefalcon\vu2\include\vuentity.h
;	COMDAT ?XPos@VuEntity@@QBEMXZ
_TEXT	SEGMENT
_this$ = -4						; size = 4
?XPos@VuEntity@@QBEMXZ PROC				; VuEntity::XPos, COMDAT
; _this$ = ecx

; 158  : 	BIG_SCALAR XPos() const { return pos_.x_; }

	push	ebp
	mov	ebp, esp
	push	ecx
	mov	DWORD PTR _this$[ebp], ecx
	mov	eax, DWORD PTR _this$[ebp]
	fld	DWORD PTR [eax+36]
	mov	esp, ebp
	pop	ebp
	ret	0
?XPos@VuEntity@@QBEMXZ ENDP				; VuEntity::XPos
_TEXT	ENDS
; Function compile flags: /Odtp
; File c:\users\zhitao li\documents\visual studio 2012\projects\freefalcon\vu2\include\vuentity.h
;	COMDAT ?Id@VuEntity@@QBE?AVVU_ID@@XZ
_TEXT	SEGMENT
_this$ = -4						; size = 4
___$ReturnUdt$ = 8					; size = 4
?Id@VuEntity@@QBE?AVVU_ID@@XZ PROC			; VuEntity::Id, COMDAT
; _this$ = ecx

; 131  : 	VU_ID Id() const	{ return share_.id_; }

	push	ebp
	mov	ebp, esp
	push	ecx
	mov	DWORD PTR _this$[ebp], ecx
	mov	eax, DWORD PTR _this$[ebp]
	mov	ecx, DWORD PTR [eax+12]
	mov	edx, DWORD PTR [eax+16]
	mov	eax, DWORD PTR ___$ReturnUdt$[ebp]
	mov	DWORD PTR [eax], ecx
	mov	DWORD PTR [eax+4], edx
	mov	eax, DWORD PTR ___$ReturnUdt$[ebp]
	mov	esp, ebp
	pop	ebp
	ret	4
?Id@VuEntity@@QBE?AVVU_ID@@XZ ENDP			; VuEntity::Id
_TEXT	ENDS
; Function compile flags: /Odtp
; File c:\users\zhitao li\documents\visual studio 2012\projects\freefalcon\falclib\include\vutypes.h
;	COMDAT ??9VU_ID@@QBE_NABV0@@Z
_TEXT	SEGMENT
_this$ = -8						; size = 4
tv74 = -2						; size = 1
tv73 = -1						; size = 1
_rhs$ = 8						; size = 4
??9VU_ID@@QBE_NABV0@@Z PROC				; VU_ID::operator!=, COMDAT
; _this$ = ecx

; 111  : 	bool operator != (const VU_ID &rhs) const { 

	push	ebp
	mov	ebp, esp
	sub	esp, 8
	mov	DWORD PTR _this$[ebp], ecx

; 112  : 		return (
; 113  : 			num_ == rhs.num_ ? 
; 114  : 			(creator_ == rhs.creator_ ? false : true) : 
; 115  : 			true
; 116  : 		); 

	mov	eax, DWORD PTR _this$[ebp]
	mov	ecx, DWORD PTR _rhs$[ebp]
	mov	edx, DWORD PTR [eax]
	cmp	edx, DWORD PTR [ecx]
	jne	SHORT $LN5@operator
	mov	eax, DWORD PTR _rhs$[ebp]
	add	eax, 4
	push	eax
	mov	ecx, DWORD PTR _this$[ebp]
	add	ecx, 4
	call	??8VU_SESSION_ID@@QBEHABV0@@Z		; VU_SESSION_ID::operator==
	test	eax, eax
	je	SHORT $LN3@operator
	mov	BYTE PTR tv73[ebp], 0
	jmp	SHORT $LN4@operator
$LN3@operator:
	mov	BYTE PTR tv73[ebp], 1
$LN4@operator:
	mov	cl, BYTE PTR tv73[ebp]
	mov	BYTE PTR tv74[ebp], cl
	jmp	SHORT $LN6@operator
$LN5@operator:
	mov	BYTE PTR tv74[ebp], 1
$LN6@operator:
	mov	al, BYTE PTR tv74[ebp]

; 117  : 	}

	mov	esp, ebp
	pop	ebp
	ret	4
??9VU_ID@@QBE_NABV0@@Z ENDP				; VU_ID::operator!=
_TEXT	ENDS
; Function compile flags: /Odtp
; File c:\users\zhitao li\documents\visual studio 2012\projects\freefalcon\falclib\include\vutypes.h
;	COMDAT ??8VU_SESSION_ID@@QBEHABV0@@Z
_TEXT	SEGMENT
_this$ = -8						; size = 4
tv67 = -4						; size = 4
_rhs$ = 8						; size = 4
??8VU_SESSION_ID@@QBEHABV0@@Z PROC			; VU_SESSION_ID::operator==, COMDAT
; _this$ = ecx

; 55   : 	int operator == (const VU_SESSION_ID &rhs) const{

	push	ebp
	mov	ebp, esp
	sub	esp, 8
	mov	DWORD PTR _this$[ebp], ecx

; 56   : 		return (value_ == rhs.value_ ? TRUE : FALSE); 

	mov	eax, DWORD PTR _this$[ebp]
	mov	ecx, DWORD PTR _rhs$[ebp]
	mov	edx, DWORD PTR [eax]
	cmp	edx, DWORD PTR [ecx]
	jne	SHORT $LN3@operator
	mov	DWORD PTR tv67[ebp], 1
	jmp	SHORT $LN4@operator
$LN3@operator:
	mov	DWORD PTR tv67[ebp], 0
$LN4@operator:
	mov	eax, DWORD PTR tv67[ebp]

; 57   : 	}

	mov	esp, ebp
	pop	ebp
	ret	4
??8VU_SESSION_ID@@QBEHABV0@@Z ENDP			; VU_SESSION_ID::operator==
_TEXT	ENDS
; Function compile flags: /Odtp
;	COMDAT ??_G_System_error_category@std@@UAEPAXI@Z
_TEXT	SEGMENT
_this$ = -4						; size = 4
___flags$ = 8						; size = 4
??_G_System_error_category@std@@UAEPAXI@Z PROC		; std::_System_error_category::`scalar deleting destructor', COMDAT
; _this$ = ecx
	push	ebp
	mov	ebp, esp
	push	ecx
	mov	DWORD PTR _this$[ebp], ecx
	mov	ecx, DWORD PTR _this$[ebp]
	call	??1_System_error_category@std@@UAE@XZ
	mov	eax, DWORD PTR ___flags$[ebp]
	and	eax, 1
	je	SHORT $LN1@scalar
	mov	ecx, DWORD PTR _this$[ebp]
	push	ecx
	call	??3@YAXPAX@Z				; operator delete
	add	esp, 4
$LN1@scalar:
	mov	eax, DWORD PTR _this$[ebp]
	mov	esp, ebp
	pop	ebp
	ret	4
??_G_System_error_category@std@@UAEPAXI@Z ENDP		; std::_System_error_category::`scalar deleting destructor'
_TEXT	ENDS
; Function compile flags: /Odtp
;	COMDAT ??1_System_error_category@std@@UAE@XZ
_TEXT	SEGMENT
_this$ = -4						; size = 4
??1_System_error_category@std@@UAE@XZ PROC		; std::_System_error_category::~_System_error_category, COMDAT
; _this$ = ecx
	push	ebp
	mov	ebp, esp
	push	ecx
	mov	DWORD PTR _this$[ebp], ecx
	mov	ecx, DWORD PTR _this$[ebp]
	call	??1_Generic_error_category@std@@UAE@XZ
	mov	esp, ebp
	pop	ebp
	ret	0
??1_System_error_category@std@@UAE@XZ ENDP		; std::_System_error_category::~_System_error_category
_TEXT	ENDS
; Function compile flags: /Odtp
; File c:\program files (x86)\microsoft visual studio 11.0\vc\include\system_error
;	COMDAT ?default_error_condition@_System_error_category@std@@UBE?AVerror_condition@2@H@Z
_TEXT	SEGMENT
_this$ = -4						; size = 4
___$ReturnUdt$ = 8					; size = 4
__Errval$ = 12						; size = 4
?default_error_condition@_System_error_category@std@@UBE?AVerror_condition@2@H@Z PROC ; std::_System_error_category::default_error_condition, COMDAT
; _this$ = ecx

; 641  : 		{	// make error_condition for error code (generic if possible)

	push	ebp
	mov	ebp, esp
	push	ecx
	mov	DWORD PTR _this$[ebp], ecx

; 642  : 		if (_Syserror_map(_Errval))

	mov	eax, DWORD PTR __Errval$[ebp]
	push	eax
	call	?_Syserror_map@std@@YAPBDH@Z		; std::_Syserror_map
	add	esp, 4
	test	eax, eax
	je	SHORT $LN2@default_er

; 643  : 			return (error_condition(_Errval, generic_category()));

	call	?generic_category@std@@YAABVerror_category@1@XZ ; std::generic_category
	push	eax
	mov	ecx, DWORD PTR __Errval$[ebp]
	push	ecx
	mov	ecx, DWORD PTR ___$ReturnUdt$[ebp]
	call	??0error_condition@std@@QAE@HABVerror_category@1@@Z ; std::error_condition::error_condition
	mov	eax, DWORD PTR ___$ReturnUdt$[ebp]
	jmp	SHORT $LN3@default_er

; 644  : 		else

	jmp	SHORT $LN3@default_er
$LN2@default_er:

; 645  : 			return (error_condition(_Errval, system_category()));

	call	?system_category@std@@YAABVerror_category@1@XZ ; std::system_category
	push	eax
	mov	edx, DWORD PTR __Errval$[ebp]
	push	edx
	mov	ecx, DWORD PTR ___$ReturnUdt$[ebp]
	call	??0error_condition@std@@QAE@HABVerror_category@1@@Z ; std::error_condition::error_condition
	mov	eax, DWORD PTR ___$ReturnUdt$[ebp]
$LN3@default_er:

; 646  : 		}

	mov	esp, ebp
	pop	ebp
	ret	8
?default_error_condition@_System_error_category@std@@UBE?AVerror_condition@2@H@Z ENDP ; std::_System_error_category::default_error_condition
_TEXT	ENDS
; Function compile flags: /Odtp
; File c:\program files (x86)\microsoft visual studio 11.0\vc\include\system_error
;	COMDAT ?message@_System_error_category@std@@UBE?AV?$basic_string@DU?$char_traits@D@std@@V?$allocator@D@2@@2@H@Z
_TEXT	SEGMENT
_this$ = -16						; size = 4
$T1 = -12						; size = 4
tv69 = -8						; size = 4
__Name$ = -4						; size = 4
___$ReturnUdt$ = 8					; size = 4
__Errcode$ = 12						; size = 4
?message@_System_error_category@std@@UBE?AV?$basic_string@DU?$char_traits@D@std@@V?$allocator@D@2@@2@H@Z PROC ; std::_System_error_category::message, COMDAT
; _this$ = ecx

; 634  : 		{	// convert to name of error

	push	ebp
	mov	ebp, esp
	sub	esp, 16					; 00000010H
	mov	DWORD PTR _this$[ebp], ecx
	mov	DWORD PTR $T1[ebp], 0

; 635  : 		const char *_Name = _Winerror_map(_Errcode);

	mov	eax, DWORD PTR __Errcode$[ebp]
	push	eax
	call	?_Winerror_map@std@@YAPBDH@Z		; std::_Winerror_map
	add	esp, 4
	mov	DWORD PTR __Name$[ebp], eax

; 636  : 		return (string(_Name != 0 ? _Name : "unknown error"));

	cmp	DWORD PTR __Name$[ebp], 0
	je	SHORT $LN3@message
	mov	ecx, DWORD PTR __Name$[ebp]
	mov	DWORD PTR tv69[ebp], ecx
	jmp	SHORT $LN4@message
$LN3@message:
	mov	DWORD PTR tv69[ebp], OFFSET ??_C@_0O@BFJCFAAK@unknown?5error?$AA@
$LN4@message:
	mov	edx, DWORD PTR tv69[ebp]
	push	edx
	mov	ecx, DWORD PTR ___$ReturnUdt$[ebp]
	call	??0?$basic_string@DU?$char_traits@D@std@@V?$allocator@D@2@@std@@QAE@PBD@Z ; std::basic_string<char,std::char_traits<char>,std::allocator<char> >::basic_string<char,std::char_traits<char>,std::allocator<char> >
	mov	eax, DWORD PTR $T1[ebp]
	or	eax, 1
	mov	DWORD PTR $T1[ebp], eax
	mov	eax, DWORD PTR ___$ReturnUdt$[ebp]

; 637  : 		}

	mov	esp, ebp
	pop	ebp
	ret	8
?message@_System_error_category@std@@UBE?AV?$basic_string@DU?$char_traits@D@std@@V?$allocator@D@2@@2@H@Z ENDP ; std::_System_error_category::message
_TEXT	ENDS
; Function compile flags: /Odtp
; File c:\program files (x86)\microsoft visual studio 11.0\vc\include\system_error
;	COMDAT ?name@_System_error_category@std@@UBEPBDXZ
_TEXT	SEGMENT
_this$ = -4						; size = 4
?name@_System_error_category@std@@UBEPBDXZ PROC		; std::_System_error_category::name, COMDAT
; _this$ = ecx

; 629  : 		{	// get name of category

	push	ebp
	mov	ebp, esp
	push	ecx
	mov	DWORD PTR _this$[ebp], ecx

; 630  : 		return ("system");

	mov	eax, OFFSET ??_C@_06FHFOAHML@system?$AA@

; 631  : 		}

	mov	esp, ebp
	pop	ebp
	ret	0
?name@_System_error_category@std@@UBEPBDXZ ENDP		; std::_System_error_category::name
_TEXT	ENDS
; Function compile flags: /Odtp
; File c:\program files (x86)\microsoft visual studio 11.0\vc\include\system_error
;	COMDAT ??0_System_error_category@std@@QAE@XZ
_TEXT	SEGMENT
_this$ = -4						; size = 4
??0_System_error_category@std@@QAE@XZ PROC		; std::_System_error_category::_System_error_category, COMDAT
; _this$ = ecx

; 624  : 	_System_error_category()

	push	ebp
	mov	ebp, esp
	push	ecx
	mov	DWORD PTR _this$[ebp], ecx
	mov	ecx, DWORD PTR _this$[ebp]
	call	??0_Generic_error_category@std@@QAE@XZ	; std::_Generic_error_category::_Generic_error_category
	mov	eax, DWORD PTR _this$[ebp]
	mov	DWORD PTR [eax], OFFSET ??_7_System_error_category@std@@6B@

; 625  : 		{	// default constructor
; 626  : 		}

	mov	eax, DWORD PTR _this$[ebp]
	mov	esp, ebp
	pop	ebp
	ret	0
??0_System_error_category@std@@QAE@XZ ENDP		; std::_System_error_category::_System_error_category
_TEXT	ENDS
; Function compile flags: /Odtp
;	COMDAT ??_G_Iostream_error_category@std@@UAEPAXI@Z
_TEXT	SEGMENT
_this$ = -4						; size = 4
___flags$ = 8						; size = 4
??_G_Iostream_error_category@std@@UAEPAXI@Z PROC	; std::_Iostream_error_category::`scalar deleting destructor', COMDAT
; _this$ = ecx
	push	ebp
	mov	ebp, esp
	push	ecx
	mov	DWORD PTR _this$[ebp], ecx
	mov	ecx, DWORD PTR _this$[ebp]
	call	??1_Iostream_error_category@std@@UAE@XZ
	mov	eax, DWORD PTR ___flags$[ebp]
	and	eax, 1
	je	SHORT $LN1@scalar
	mov	ecx, DWORD PTR _this$[ebp]
	push	ecx
	call	??3@YAXPAX@Z				; operator delete
	add	esp, 4
$LN1@scalar:
	mov	eax, DWORD PTR _this$[ebp]
	mov	esp, ebp
	pop	ebp
	ret	4
??_G_Iostream_error_category@std@@UAEPAXI@Z ENDP	; std::_Iostream_error_category::`scalar deleting destructor'
_TEXT	ENDS
; Function compile flags: /Odtp
;	COMDAT ??1_Iostream_error_category@std@@UAE@XZ
_TEXT	SEGMENT
_this$ = -4						; size = 4
??1_Iostream_error_category@std@@UAE@XZ PROC		; std::_Iostream_error_category::~_Iostream_error_category, COMDAT
; _this$ = ecx
	push	ebp
	mov	ebp, esp
	push	ecx
	mov	DWORD PTR _this$[ebp], ecx
	mov	ecx, DWORD PTR _this$[ebp]
	call	??1_Generic_error_category@std@@UAE@XZ
	mov	esp, ebp
	pop	ebp
	ret	0
??1_Iostream_error_category@std@@UAE@XZ ENDP		; std::_Iostream_error_category::~_Iostream_error_category
_TEXT	ENDS
; Function compile flags: /Odtp
; File c:\program files (x86)\microsoft visual studio 11.0\vc\include\system_error
;	COMDAT ?message@_Iostream_error_category@std@@UBE?AV?$basic_string@DU?$char_traits@D@std@@V?$allocator@D@2@@2@H@Z
_TEXT	SEGMENT
_this$ = -8						; size = 4
$T1 = -4						; size = 4
___$ReturnUdt$ = 8					; size = 4
__Errcode$ = 12						; size = 4
?message@_Iostream_error_category@std@@UBE?AV?$basic_string@DU?$char_traits@D@std@@V?$allocator@D@2@@2@H@Z PROC ; std::_Iostream_error_category::message, COMDAT
; _this$ = ecx

; 611  : 		{	// convert to name of error

	push	ebp
	mov	ebp, esp
	sub	esp, 8
	mov	DWORD PTR _this$[ebp], ecx
	mov	DWORD PTR $T1[ebp], 0

; 612  : 		if (_Errcode == (int)io_errc::stream)

	cmp	DWORD PTR __Errcode$[ebp], 1
	jne	SHORT $LN2@message

; 613  : 			return ("iostream stream error");

	push	OFFSET ??_C@_0BG@PADBLCHM@iostream?5stream?5error?$AA@
	mov	ecx, DWORD PTR ___$ReturnUdt$[ebp]
	call	??0?$basic_string@DU?$char_traits@D@std@@V?$allocator@D@2@@std@@QAE@PBD@Z ; std::basic_string<char,std::char_traits<char>,std::allocator<char> >::basic_string<char,std::char_traits<char>,std::allocator<char> >
	mov	eax, DWORD PTR $T1[ebp]
	or	eax, 1
	mov	DWORD PTR $T1[ebp], eax
	mov	eax, DWORD PTR ___$ReturnUdt$[ebp]
	jmp	SHORT $LN3@message

; 614  : 		else

	jmp	SHORT $LN3@message
$LN2@message:

; 615  : 			return (_Generic_error_category::message(_Errcode));

	mov	ecx, DWORD PTR __Errcode$[ebp]
	push	ecx
	mov	edx, DWORD PTR ___$ReturnUdt$[ebp]
	push	edx
	mov	ecx, DWORD PTR _this$[ebp]
	call	?message@_Generic_error_category@std@@UBE?AV?$basic_string@DU?$char_traits@D@std@@V?$allocator@D@2@@2@H@Z ; std::_Generic_error_category::message
	mov	eax, DWORD PTR $T1[ebp]
	or	eax, 1
	mov	DWORD PTR $T1[ebp], eax
	mov	eax, DWORD PTR ___$ReturnUdt$[ebp]
$LN3@message:

; 616  : 		}

	mov	esp, ebp
	pop	ebp
	ret	8
?message@_Iostream_error_category@std@@UBE?AV?$basic_string@DU?$char_traits@D@std@@V?$allocator@D@2@@2@H@Z ENDP ; std::_Iostream_error_category::message
_TEXT	ENDS
; Function compile flags: /Odtp
; File c:\program files (x86)\microsoft visual studio 11.0\vc\include\system_error
;	COMDAT ?name@_Iostream_error_category@std@@UBEPBDXZ
_TEXT	SEGMENT
_this$ = -4						; size = 4
?name@_Iostream_error_category@std@@UBEPBDXZ PROC	; std::_Iostream_error_category::name, COMDAT
; _this$ = ecx

; 606  : 		{	// get name of category

	push	ebp
	mov	ebp, esp
	push	ecx
	mov	DWORD PTR _this$[ebp], ecx

; 607  : 		return ("iostream");

	mov	eax, OFFSET ??_C@_08LLGCOLLL@iostream?$AA@

; 608  : 		}

	mov	esp, ebp
	pop	ebp
	ret	0
?name@_Iostream_error_category@std@@UBEPBDXZ ENDP	; std::_Iostream_error_category::name
_TEXT	ENDS
; Function compile flags: /Odtp
; File c:\program files (x86)\microsoft visual studio 11.0\vc\include\system_error
;	COMDAT ??0_Iostream_error_category@std@@QAE@XZ
_TEXT	SEGMENT
_this$ = -4						; size = 4
??0_Iostream_error_category@std@@QAE@XZ PROC		; std::_Iostream_error_category::_Iostream_error_category, COMDAT
; _this$ = ecx

; 601  : 	_Iostream_error_category()

	push	ebp
	mov	ebp, esp
	push	ecx
	mov	DWORD PTR _this$[ebp], ecx
	mov	ecx, DWORD PTR _this$[ebp]
	call	??0_Generic_error_category@std@@QAE@XZ	; std::_Generic_error_category::_Generic_error_category
	mov	eax, DWORD PTR _this$[ebp]
	mov	DWORD PTR [eax], OFFSET ??_7_Iostream_error_category@std@@6B@

; 602  : 		{	// default constructor
; 603  : 		}

	mov	eax, DWORD PTR _this$[ebp]
	mov	esp, ebp
	pop	ebp
	ret	0
??0_Iostream_error_category@std@@QAE@XZ ENDP		; std::_Iostream_error_category::_Iostream_error_category
_TEXT	ENDS
; Function compile flags: /Odtp
;	COMDAT ??_G_Generic_error_category@std@@UAEPAXI@Z
_TEXT	SEGMENT
_this$ = -4						; size = 4
___flags$ = 8						; size = 4
??_G_Generic_error_category@std@@UAEPAXI@Z PROC		; std::_Generic_error_category::`scalar deleting destructor', COMDAT
; _this$ = ecx
	push	ebp
	mov	ebp, esp
	push	ecx
	mov	DWORD PTR _this$[ebp], ecx
	mov	ecx, DWORD PTR _this$[ebp]
	call	??1_Generic_error_category@std@@UAE@XZ
	mov	eax, DWORD PTR ___flags$[ebp]
	and	eax, 1
	je	SHORT $LN1@scalar
	mov	ecx, DWORD PTR _this$[ebp]
	push	ecx
	call	??3@YAXPAX@Z				; operator delete
	add	esp, 4
$LN1@scalar:
	mov	eax, DWORD PTR _this$[ebp]
	mov	esp, ebp
	pop	ebp
	ret	4
??_G_Generic_error_category@std@@UAEPAXI@Z ENDP		; std::_Generic_error_category::`scalar deleting destructor'
_TEXT	ENDS
; Function compile flags: /Odtp
;	COMDAT ??1_Generic_error_category@std@@UAE@XZ
_TEXT	SEGMENT
_this$ = -4						; size = 4
??1_Generic_error_category@std@@UAE@XZ PROC		; std::_Generic_error_category::~_Generic_error_category, COMDAT
; _this$ = ecx
	push	ebp
	mov	ebp, esp
	push	ecx
	mov	DWORD PTR _this$[ebp], ecx
	mov	ecx, DWORD PTR _this$[ebp]
	call	??1error_category@std@@UAE@XZ		; std::error_category::~error_category
	mov	esp, ebp
	pop	ebp
	ret	0
??1_Generic_error_category@std@@UAE@XZ ENDP		; std::_Generic_error_category::~_Generic_error_category
_TEXT	ENDS
; Function compile flags: /Odtp
; File c:\program files (x86)\microsoft visual studio 11.0\vc\include\system_error
;	COMDAT ?message@_Generic_error_category@std@@UBE?AV?$basic_string@DU?$char_traits@D@std@@V?$allocator@D@2@@2@H@Z
_TEXT	SEGMENT
_this$ = -16						; size = 4
$T1 = -12						; size = 4
tv69 = -8						; size = 4
__Name$ = -4						; size = 4
___$ReturnUdt$ = 8					; size = 4
__Errcode$ = 12						; size = 4
?message@_Generic_error_category@std@@UBE?AV?$basic_string@DU?$char_traits@D@std@@V?$allocator@D@2@@2@H@Z PROC ; std::_Generic_error_category::message, COMDAT
; _this$ = ecx

; 590  : 		{	// convert to name of error

	push	ebp
	mov	ebp, esp
	sub	esp, 16					; 00000010H
	mov	DWORD PTR _this$[ebp], ecx
	mov	DWORD PTR $T1[ebp], 0

; 591  : 		const char *_Name = _Syserror_map(_Errcode);

	mov	eax, DWORD PTR __Errcode$[ebp]
	push	eax
	call	?_Syserror_map@std@@YAPBDH@Z		; std::_Syserror_map
	add	esp, 4
	mov	DWORD PTR __Name$[ebp], eax

; 592  : 		return (string(_Name != 0 ? _Name : "unknown error"));

	cmp	DWORD PTR __Name$[ebp], 0
	je	SHORT $LN3@message
	mov	ecx, DWORD PTR __Name$[ebp]
	mov	DWORD PTR tv69[ebp], ecx
	jmp	SHORT $LN4@message
$LN3@message:
	mov	DWORD PTR tv69[ebp], OFFSET ??_C@_0O@BFJCFAAK@unknown?5error?$AA@
$LN4@message:
	mov	edx, DWORD PTR tv69[ebp]
	push	edx
	mov	ecx, DWORD PTR ___$ReturnUdt$[ebp]
	call	??0?$basic_string@DU?$char_traits@D@std@@V?$allocator@D@2@@std@@QAE@PBD@Z ; std::basic_string<char,std::char_traits<char>,std::allocator<char> >::basic_string<char,std::char_traits<char>,std::allocator<char> >
	mov	eax, DWORD PTR $T1[ebp]
	or	eax, 1
	mov	DWORD PTR $T1[ebp], eax
	mov	eax, DWORD PTR ___$ReturnUdt$[ebp]

; 593  : 		}

	mov	esp, ebp
	pop	ebp
	ret	8
?message@_Generic_error_category@std@@UBE?AV?$basic_string@DU?$char_traits@D@std@@V?$allocator@D@2@@2@H@Z ENDP ; std::_Generic_error_category::message
_TEXT	ENDS
; Function compile flags: /Odtp
; File c:\program files (x86)\microsoft visual studio 11.0\vc\include\system_error
;	COMDAT ?name@_Generic_error_category@std@@UBEPBDXZ
_TEXT	SEGMENT
_this$ = -4						; size = 4
?name@_Generic_error_category@std@@UBEPBDXZ PROC	; std::_Generic_error_category::name, COMDAT
; _this$ = ecx

; 585  : 		{	// get name of category

	push	ebp
	mov	ebp, esp
	push	ecx
	mov	DWORD PTR _this$[ebp], ecx

; 586  : 		return ("generic");

	mov	eax, OFFSET ??_C@_07DCLBNMLN@generic?$AA@

; 587  : 		}

	mov	esp, ebp
	pop	ebp
	ret	0
?name@_Generic_error_category@std@@UBEPBDXZ ENDP	; std::_Generic_error_category::name
_TEXT	ENDS
; Function compile flags: /Odtp
; File c:\program files (x86)\microsoft visual studio 11.0\vc\include\system_error
;	COMDAT ??0_Generic_error_category@std@@QAE@XZ
_TEXT	SEGMENT
_this$ = -4						; size = 4
??0_Generic_error_category@std@@QAE@XZ PROC		; std::_Generic_error_category::_Generic_error_category, COMDAT
; _this$ = ecx

; 580  : 	_Generic_error_category()

	push	ebp
	mov	ebp, esp
	push	ecx
	mov	DWORD PTR _this$[ebp], ecx
	mov	ecx, DWORD PTR _this$[ebp]
	call	??0error_category@std@@QAE@XZ		; std::error_category::error_category
	mov	eax, DWORD PTR _this$[ebp]
	mov	DWORD PTR [eax], OFFSET ??_7_Generic_error_category@std@@6B@

; 581  : 		{	// default constructor
; 582  : 		}

	mov	eax, DWORD PTR _this$[ebp]
	mov	esp, ebp
	pop	ebp
	ret	0
??0_Generic_error_category@std@@QAE@XZ ENDP		; std::_Generic_error_category::_Generic_error_category
_TEXT	ENDS
; Function compile flags: /Odtp
; File c:\program files (x86)\microsoft visual studio 11.0\vc\include\system_error
;	COMDAT ??8error_condition@std@@QBE_NABV01@@Z
_TEXT	SEGMENT
tv78 = -8						; size = 4
_this$ = -4						; size = 4
__Right$ = 8						; size = 4
??8error_condition@std@@QBE_NABV01@@Z PROC		; std::error_condition::operator==, COMDAT
; _this$ = ecx

; 376  : 		{	// test if *this == _Right

	push	ebp
	mov	ebp, esp
	sub	esp, 8
	push	esi
	mov	DWORD PTR _this$[ebp], ecx

; 377  : 		return (category() == _Right.category()
; 378  : 			&& value() == _Right.value());

	mov	ecx, DWORD PTR __Right$[ebp]
	call	?category@error_condition@std@@QBEABVerror_category@2@XZ ; std::error_condition::category
	push	eax
	mov	ecx, DWORD PTR _this$[ebp]
	call	?category@error_condition@std@@QBEABVerror_category@2@XZ ; std::error_condition::category
	mov	ecx, eax
	call	??8error_category@std@@QBE_NABV01@@Z	; std::error_category::operator==
	movzx	eax, al
	test	eax, eax
	je	SHORT $LN3@operator
	mov	ecx, DWORD PTR _this$[ebp]
	call	?value@error_condition@std@@QBEHXZ	; std::error_condition::value
	mov	esi, eax
	mov	ecx, DWORD PTR __Right$[ebp]
	call	?value@error_condition@std@@QBEHXZ	; std::error_condition::value
	cmp	esi, eax
	jne	SHORT $LN3@operator
	mov	DWORD PTR tv78[ebp], 1
	jmp	SHORT $LN4@operator
$LN3@operator:
	mov	DWORD PTR tv78[ebp], 0
$LN4@operator:
	mov	al, BYTE PTR tv78[ebp]

; 379  : 		}

	pop	esi
	mov	esp, ebp
	pop	ebp
	ret	4
??8error_condition@std@@QBE_NABV01@@Z ENDP		; std::error_condition::operator==
_TEXT	ENDS
; Function compile flags: /Odtp
; File c:\program files (x86)\microsoft visual studio 11.0\vc\include\system_error
;	COMDAT ?category@error_condition@std@@QBEABVerror_category@2@XZ
_TEXT	SEGMENT
_this$ = -4						; size = 4
?category@error_condition@std@@QBEABVerror_category@2@XZ PROC ; std::error_condition::category, COMDAT
; _this$ = ecx

; 354  : 		{	// get category

	push	ebp
	mov	ebp, esp
	push	ecx
	mov	DWORD PTR _this$[ebp], ecx

; 355  : 		return (*_Mycat);

	mov	eax, DWORD PTR _this$[ebp]
	mov	eax, DWORD PTR [eax+4]

; 356  : 		}

	mov	esp, ebp
	pop	ebp
	ret	0
?category@error_condition@std@@QBEABVerror_category@2@XZ ENDP ; std::error_condition::category
_TEXT	ENDS
; Function compile flags: /Odtp
; File c:\program files (x86)\microsoft visual studio 11.0\vc\include\system_error
;	COMDAT ?value@error_condition@std@@QBEHXZ
_TEXT	SEGMENT
_this$ = -4						; size = 4
?value@error_condition@std@@QBEHXZ PROC			; std::error_condition::value, COMDAT
; _this$ = ecx

; 349  : 		{	// get error code

	push	ebp
	mov	ebp, esp
	push	ecx
	mov	DWORD PTR _this$[ebp], ecx

; 350  : 		return (_Myval);

	mov	eax, DWORD PTR _this$[ebp]
	mov	eax, DWORD PTR [eax]

; 351  : 		}

	mov	esp, ebp
	pop	ebp
	ret	0
?value@error_condition@std@@QBEHXZ ENDP			; std::error_condition::value
_TEXT	ENDS
; Function compile flags: /Odtp
; File c:\program files (x86)\microsoft visual studio 11.0\vc\include\system_error
;	COMDAT ??0error_condition@std@@QAE@HABVerror_category@1@@Z
_TEXT	SEGMENT
_this$ = -4						; size = 4
__Val$ = 8						; size = 4
__Cat$ = 12						; size = 4
??0error_condition@std@@QAE@HABVerror_category@1@@Z PROC ; std::error_condition::error_condition, COMDAT
; _this$ = ecx

; 316  : 		{	// construct from error code and category

	push	ebp
	mov	ebp, esp
	push	ecx
	mov	DWORD PTR _this$[ebp], ecx
	mov	eax, DWORD PTR _this$[ebp]
	mov	ecx, DWORD PTR __Val$[ebp]
	mov	DWORD PTR [eax], ecx
	mov	edx, DWORD PTR _this$[ebp]
	mov	eax, DWORD PTR __Cat$[ebp]
	mov	DWORD PTR [edx+4], eax

; 317  : 		}

	mov	eax, DWORD PTR _this$[ebp]
	mov	esp, ebp
	pop	ebp
	ret	8
??0error_condition@std@@QAE@HABVerror_category@1@@Z ENDP ; std::error_condition::error_condition
_TEXT	ENDS
; Function compile flags: /Odtp
; File c:\program files (x86)\microsoft visual studio 11.0\vc\include\system_error
;	COMDAT ?category@error_code@std@@QBEABVerror_category@2@XZ
_TEXT	SEGMENT
_this$ = -4						; size = 4
?category@error_code@std@@QBEABVerror_category@2@XZ PROC ; std::error_code::category, COMDAT
; _this$ = ecx

; 256  : 		{	// get category

	push	ebp
	mov	ebp, esp
	push	ecx
	mov	DWORD PTR _this$[ebp], ecx

; 257  : 		return (*_Mycat);

	mov	eax, DWORD PTR _this$[ebp]
	mov	eax, DWORD PTR [eax+4]

; 258  : 		}

	mov	esp, ebp
	pop	ebp
	ret	0
?category@error_code@std@@QBEABVerror_category@2@XZ ENDP ; std::error_code::category
_TEXT	ENDS
; Function compile flags: /Odtp
; File c:\program files (x86)\microsoft visual studio 11.0\vc\include\system_error
;	COMDAT ?value@error_code@std@@QBEHXZ
_TEXT	SEGMENT
_this$ = -4						; size = 4
?value@error_code@std@@QBEHXZ PROC			; std::error_code::value, COMDAT
; _this$ = ecx

; 251  : 		{	// get error code

	push	ebp
	mov	ebp, esp
	push	ecx
	mov	DWORD PTR _this$[ebp], ecx

; 252  : 		return (_Myval);

	mov	eax, DWORD PTR _this$[ebp]
	mov	eax, DWORD PTR [eax]

; 253  : 		}

	mov	esp, ebp
	pop	ebp
	ret	0
?value@error_code@std@@QBEHXZ ENDP			; std::error_code::value
_TEXT	ENDS
; Function compile flags: /Odtp
;	COMDAT ??_Gerror_category@std@@UAEPAXI@Z
_TEXT	SEGMENT
_this$ = -4						; size = 4
___flags$ = 8						; size = 4
??_Gerror_category@std@@UAEPAXI@Z PROC			; std::error_category::`scalar deleting destructor', COMDAT
; _this$ = ecx
	push	ebp
	mov	ebp, esp
	push	ecx
	mov	DWORD PTR _this$[ebp], ecx
	mov	ecx, DWORD PTR _this$[ebp]
	call	??1error_category@std@@UAE@XZ		; std::error_category::~error_category
	mov	eax, DWORD PTR ___flags$[ebp]
	and	eax, 1
	je	SHORT $LN1@scalar
	mov	ecx, DWORD PTR _this$[ebp]
	push	ecx
	call	??3@YAXPAX@Z				; operator delete
	add	esp, 4
$LN1@scalar:
	mov	eax, DWORD PTR _this$[ebp]
	mov	esp, ebp
	pop	ebp
	ret	4
??_Gerror_category@std@@UAEPAXI@Z ENDP			; std::error_category::`scalar deleting destructor'
_TEXT	ENDS
; Function compile flags: /Odtp
; File c:\program files (x86)\microsoft visual studio 11.0\vc\include\system_error
;	COMDAT ??8error_category@std@@QBE_NABV01@@Z
_TEXT	SEGMENT
_this$ = -8						; size = 4
tv65 = -4						; size = 4
__Right$ = 8						; size = 4
??8error_category@std@@QBE_NABV01@@Z PROC		; std::error_category::operator==, COMDAT
; _this$ = ecx

; 184  : 		{	// compare categories for equality

	push	ebp
	mov	ebp, esp
	sub	esp, 8
	mov	DWORD PTR _this$[ebp], ecx

; 185  : 		return (this == &_Right);

	mov	eax, DWORD PTR _this$[ebp]
	cmp	eax, DWORD PTR __Right$[ebp]
	jne	SHORT $LN3@operator
	mov	DWORD PTR tv65[ebp], 1
	jmp	SHORT $LN4@operator
$LN3@operator:
	mov	DWORD PTR tv65[ebp], 0
$LN4@operator:
	mov	al, BYTE PTR tv65[ebp]

; 186  : 		}

	mov	esp, ebp
	pop	ebp
	ret	4
??8error_category@std@@QBE_NABV01@@Z ENDP		; std::error_category::operator==
_TEXT	ENDS
; Function compile flags: /Odtp
; File c:\program files (x86)\microsoft visual studio 11.0\vc\include\system_error
;	COMDAT ?equivalent@error_category@std@@UBE_NABVerror_code@2@H@Z
_TEXT	SEGMENT
_this$ = -8						; size = 4
tv74 = -4						; size = 4
__Code$ = 8						; size = 4
__Errval$ = 12						; size = 4
?equivalent@error_category@std@@UBE_NABVerror_code@2@H@Z PROC ; std::error_category::equivalent, COMDAT
; _this$ = ecx

; 415  : 	{	// test if conditions same for this category

	push	ebp
	mov	ebp, esp
	sub	esp, 8
	mov	DWORD PTR _this$[ebp], ecx

; 416  : 	return (*this == _Code.category() && _Code.value() == _Errval);

	mov	ecx, DWORD PTR __Code$[ebp]
	call	?category@error_code@std@@QBEABVerror_category@2@XZ ; std::error_code::category
	push	eax
	mov	ecx, DWORD PTR _this$[ebp]
	call	??8error_category@std@@QBE_NABV01@@Z	; std::error_category::operator==
	movzx	eax, al
	test	eax, eax
	je	SHORT $LN3@equivalent
	mov	ecx, DWORD PTR __Code$[ebp]
	call	?value@error_code@std@@QBEHXZ		; std::error_code::value
	cmp	eax, DWORD PTR __Errval$[ebp]
	jne	SHORT $LN3@equivalent
	mov	DWORD PTR tv74[ebp], 1
	jmp	SHORT $LN4@equivalent
$LN3@equivalent:
	mov	DWORD PTR tv74[ebp], 0
$LN4@equivalent:
	mov	al, BYTE PTR tv74[ebp]

; 417  : 	}

	mov	esp, ebp
	pop	ebp
	ret	8
?equivalent@error_category@std@@UBE_NABVerror_code@2@H@Z ENDP ; std::error_category::equivalent
_TEXT	ENDS
; Function compile flags: /Odtp
; File c:\program files (x86)\microsoft visual studio 11.0\vc\include\system_error
;	COMDAT ?equivalent@error_category@std@@UBE_NHABVerror_condition@2@@Z
_TEXT	SEGMENT
$T1 = -12						; size = 8
_this$ = -4						; size = 4
__Errval$ = 8						; size = 4
__Cond$ = 12						; size = 4
?equivalent@error_category@std@@UBE_NHABVerror_condition@2@@Z PROC ; std::error_category::equivalent, COMDAT
; _this$ = ecx

; 408  : 	{	// test if error code same condition

	push	ebp
	mov	ebp, esp
	sub	esp, 12					; 0000000cH
	mov	DWORD PTR _this$[ebp], ecx

; 409  : 	return (default_error_condition(_Errval) == _Cond);

	mov	eax, DWORD PTR __Cond$[ebp]
	push	eax
	mov	ecx, DWORD PTR __Errval$[ebp]
	push	ecx
	lea	edx, DWORD PTR $T1[ebp]
	push	edx
	mov	eax, DWORD PTR _this$[ebp]
	mov	edx, DWORD PTR [eax]
	mov	ecx, DWORD PTR _this$[ebp]
	mov	eax, DWORD PTR [edx+12]
	call	eax
	mov	ecx, eax
	call	??8error_condition@std@@QBE_NABV01@@Z	; std::error_condition::operator==

; 410  : 	}

	mov	esp, ebp
	pop	ebp
	ret	8
?equivalent@error_category@std@@UBE_NHABVerror_condition@2@@Z ENDP ; std::error_category::equivalent
_TEXT	ENDS
; Function compile flags: /Odtp
; File c:\program files (x86)\microsoft visual studio 11.0\vc\include\system_error
;	COMDAT ?default_error_condition@error_category@std@@UBE?AVerror_condition@2@H@Z
_TEXT	SEGMENT
_this$ = -4						; size = 4
___$ReturnUdt$ = 8					; size = 4
__Errval$ = 12						; size = 4
?default_error_condition@error_category@std@@UBE?AVerror_condition@2@H@Z PROC ; std::error_category::default_error_condition, COMDAT
; _this$ = ecx

; 401  : 	{	// make error_condition for error code

	push	ebp
	mov	ebp, esp
	push	ecx
	mov	DWORD PTR _this$[ebp], ecx

; 402  : 	return (error_condition(_Errval, *this));

	mov	eax, DWORD PTR _this$[ebp]
	push	eax
	mov	ecx, DWORD PTR __Errval$[ebp]
	push	ecx
	mov	ecx, DWORD PTR ___$ReturnUdt$[ebp]
	call	??0error_condition@std@@QAE@HABVerror_category@1@@Z ; std::error_condition::error_condition
	mov	eax, DWORD PTR ___$ReturnUdt$[ebp]

; 403  : 	}

	mov	esp, ebp
	pop	ebp
	ret	8
?default_error_condition@error_category@std@@UBE?AVerror_condition@2@H@Z ENDP ; std::error_category::default_error_condition
_TEXT	ENDS
; Function compile flags: /Odtp
; File c:\program files (x86)\microsoft visual studio 11.0\vc\include\system_error
;	COMDAT ??1error_category@std@@UAE@XZ
_TEXT	SEGMENT
_this$ = -4						; size = 4
??1error_category@std@@UAE@XZ PROC			; std::error_category::~error_category, COMDAT
; _this$ = ecx

; 167  : 		{	// destroy the object

	push	ebp
	mov	ebp, esp
	push	ecx
	mov	DWORD PTR _this$[ebp], ecx
	mov	eax, DWORD PTR _this$[ebp]
	mov	DWORD PTR [eax], OFFSET ??_7error_category@std@@6B@

; 168  : 		}

	mov	esp, ebp
	pop	ebp
	ret	0
??1error_category@std@@UAE@XZ ENDP			; std::error_category::~error_category
_TEXT	ENDS
; Function compile flags: /Odtp
; File c:\program files (x86)\microsoft visual studio 11.0\vc\include\system_error
;	COMDAT ??0error_category@std@@QAE@XZ
_TEXT	SEGMENT
_this$ = -4						; size = 4
??0error_category@std@@QAE@XZ PROC			; std::error_category::error_category, COMDAT
; _this$ = ecx

; 162  : 	error_category()

	push	ebp
	mov	ebp, esp
	push	ecx
	mov	DWORD PTR _this$[ebp], ecx
	mov	eax, DWORD PTR _this$[ebp]
	mov	DWORD PTR [eax], OFFSET ??_7error_category@std@@6B@

; 163  : 		{	// default constructor
; 164  : 		}

	mov	eax, DWORD PTR _this$[ebp]
	mov	esp, ebp
	pop	ebp
	ret	0
??0error_category@std@@QAE@XZ ENDP			; std::error_category::error_category
_TEXT	ENDS
; Function compile flags: /Odtp
; File c:\program files (x86)\microsoft visual studio 11.0\vc\include\system_error
;	COMDAT ?system_category@std@@YAABVerror_category@1@XZ
_TEXT	SEGMENT
?system_category@std@@YAABVerror_category@1@XZ PROC	; std::system_category, COMDAT

; 679  : 	{	// get system_category

	push	ebp
	mov	ebp, esp

; 680  : 	return (_Error_objects<int>::_System_object);

	mov	eax, OFFSET ?_System_object@?$_Error_objects@H@std@@2V_System_error_category@2@A ; std::_Error_objects<int>::_System_object

; 681  : 	}

	pop	ebp
	ret	0
?system_category@std@@YAABVerror_category@1@XZ ENDP	; std::system_category
_TEXT	ENDS
; Function compile flags: /Odtp
; File c:\program files (x86)\microsoft visual studio 11.0\vc\include\system_error
;	COMDAT ?generic_category@std@@YAABVerror_category@1@XZ
_TEXT	SEGMENT
?generic_category@std@@YAABVerror_category@1@XZ PROC	; std::generic_category, COMDAT

; 669  : 	{	// get generic_category

	push	ebp
	mov	ebp, esp

; 670  : 	return (_Error_objects<int>::_Generic_object);

	mov	eax, OFFSET ?_Generic_object@?$_Error_objects@H@std@@2V_Generic_error_category@2@A ; std::_Error_objects<int>::_Generic_object

; 671  : 	}

	pop	ebp
	ret	0
?generic_category@std@@YAABVerror_category@1@XZ ENDP	; std::generic_category
_TEXT	ENDS
; Function compile flags: /Odtp
; File c:\program files (x86)\microsoft visual studio 11.0\vc\include\xlocale
;	COMDAT ??0id@locale@std@@QAE@I@Z
_TEXT	SEGMENT
_this$ = -4						; size = 4
__Val$ = 8						; size = 4
??0id@locale@std@@QAE@I@Z PROC				; std::locale::id::id, COMDAT
; _this$ = ecx

; 74   : 			{	// construct with specified stamp value

	push	ebp
	mov	ebp, esp
	push	ecx
	mov	DWORD PTR _this$[ebp], ecx
	mov	eax, DWORD PTR _this$[ebp]
	mov	ecx, DWORD PTR __Val$[ebp]
	mov	DWORD PTR [eax], ecx

; 75   : 			}

	mov	eax, DWORD PTR _this$[ebp]
	mov	esp, ebp
	pop	ebp
	ret	4
??0id@locale@std@@QAE@I@Z ENDP				; std::locale::id::id
_TEXT	ENDS
; Function compile flags: /Odtp
; File c:\program files (x86)\microsoft visual studio 11.0\vc\include\xstring
;	COMDAT ?_Xran@?$basic_string@DU?$char_traits@D@std@@V?$allocator@D@2@@std@@QBEXXZ
_TEXT	SEGMENT
_this$ = -4						; size = 4
?_Xran@?$basic_string@DU?$char_traits@D@std@@V?$allocator@D@2@@std@@QBEXXZ PROC ; std::basic_string<char,std::char_traits<char>,std::allocator<char> >::_Xran, COMDAT
; _this$ = ecx

; 2275 : 		{	// report an out_of_range error

	push	ebp
	mov	ebp, esp
	push	ecx
	mov	DWORD PTR _this$[ebp], ecx

; 2276 : 		_Xout_of_range("invalid string position");

	push	OFFSET ??_C@_0BI@CFPLBAOH@invalid?5string?5position?$AA@
	call	?_Xout_of_range@std@@YAXPBD@Z		; std::_Xout_of_range
$LN2@Xran:

; 2277 : 		}

	mov	esp, ebp
	pop	ebp
	ret	0
?_Xran@?$basic_string@DU?$char_traits@D@std@@V?$allocator@D@2@@std@@QBEXXZ ENDP ; std::basic_string<char,std::char_traits<char>,std::allocator<char> >::_Xran
_TEXT	ENDS
; Function compile flags: /Odtp
; File c:\program files (x86)\microsoft visual studio 11.0\vc\include\xstring
;	COMDAT ?_Xlen@?$basic_string@DU?$char_traits@D@std@@V?$allocator@D@2@@std@@QBEXXZ
_TEXT	SEGMENT
_this$ = -4						; size = 4
?_Xlen@?$basic_string@DU?$char_traits@D@std@@V?$allocator@D@2@@std@@QBEXXZ PROC ; std::basic_string<char,std::char_traits<char>,std::allocator<char> >::_Xlen, COMDAT
; _this$ = ecx

; 2270 : 		{	// report a length_error

	push	ebp
	mov	ebp, esp
	push	ecx
	mov	DWORD PTR _this$[ebp], ecx

; 2271 : 		_Xlength_error("string too long");

	push	OFFSET ??_C@_0BA@JFNIOLAK@string?5too?5long?$AA@
	call	?_Xlength_error@std@@YAXPBD@Z		; std::_Xlength_error
$LN2@Xlen:

; 2272 : 		}

	mov	esp, ebp
	pop	ebp
	ret	0
?_Xlen@?$basic_string@DU?$char_traits@D@std@@V?$allocator@D@2@@std@@QBEXXZ ENDP ; std::basic_string<char,std::char_traits<char>,std::allocator<char> >::_Xlen
_TEXT	ENDS
; Function compile flags: /Odtp
; File c:\program files (x86)\microsoft visual studio 11.0\vc\include\xstring
;	COMDAT ?_Tidy@?$basic_string@DU?$char_traits@D@std@@V?$allocator@D@2@@std@@QAEX_NI@Z
_TEXT	SEGMENT
__Ptr$1 = -12						; size = 4
_this$ = -8						; size = 4
$T2 = -2						; size = 1
$T3 = -1						; size = 1
__Built$ = 8						; size = 1
__Newsize$ = 12						; size = 4
?_Tidy@?$basic_string@DU?$char_traits@D@std@@V?$allocator@D@2@@std@@QAEX_NI@Z PROC ; std::basic_string<char,std::char_traits<char>,std::allocator<char> >::_Tidy, COMDAT
; _this$ = ecx

; 2253 : 		{	// initialize buffer, deallocating any storage

	push	ebp
	mov	ebp, esp
	sub	esp, 12					; 0000000cH
	mov	DWORD PTR _this$[ebp], ecx

; 2254 : 		if (!_Built)

	movzx	eax, BYTE PTR __Built$[ebp]
	test	eax, eax
	jne	SHORT $LN4@Tidy
	jmp	SHORT $LN3@Tidy
$LN4@Tidy:

; 2255 : 			;
; 2256 : 		else if (this->_BUF_SIZE <= this->_Myres)

	mov	ecx, DWORD PTR _this$[ebp]
	cmp	DWORD PTR [ecx+20], 16			; 00000010H
	jb	SHORT $LN3@Tidy

; 2257 : 			{	// copy any leftovers to small buffer and deallocate
; 2258 : 			pointer _Ptr = this->_Bx._Ptr;

	mov	edx, DWORD PTR _this$[ebp]
	mov	eax, DWORD PTR [edx]
	mov	DWORD PTR __Ptr$1[ebp], eax

; 2259 : 			this->_Getal().destroy(&this->_Bx._Ptr);

	mov	ecx, DWORD PTR _this$[ebp]
	push	ecx
	lea	edx, DWORD PTR $T3[ebp]
	push	edx
	mov	ecx, DWORD PTR _this$[ebp]
	call	?_Getal@?$_String_alloc@$0A@U?$_String_base_types@DV?$allocator@D@std@@@std@@@std@@QBE?AU?$_Wrap_alloc@V?$allocator@D@std@@@2@XZ ; std::_String_alloc<0,std::_String_base_types<char,std::allocator<char> > >::_Getal
	mov	ecx, eax
	call	??$destroy@PAD@?$_Wrap_alloc@V?$allocator@D@std@@@std@@QAEXPAPAD@Z ; std::_Wrap_alloc<std::allocator<char> >::destroy<char *>

; 2260 : 			if (0 < _Newsize)

	cmp	DWORD PTR __Newsize$[ebp], 0
	jbe	SHORT $LN1@Tidy

; 2261 : 				_Traits::copy(this->_Bx._Buf,
; 2262 : 					_STD addressof(*_Ptr), _Newsize);

	mov	eax, DWORD PTR __Newsize$[ebp]
	push	eax
	mov	ecx, DWORD PTR __Ptr$1[ebp]
	push	ecx
	call	??$addressof@D@std@@YAPADAAD@Z		; std::addressof<char>
	add	esp, 4
	push	eax
	mov	edx, DWORD PTR _this$[ebp]
	push	edx
	call	?copy@?$char_traits@D@std@@SAPADPADPBDI@Z ; std::char_traits<char>::copy
	add	esp, 12					; 0000000cH
$LN1@Tidy:

; 2263 : 			this->_Getal().deallocate(_Ptr, this->_Myres + 1);

	mov	eax, DWORD PTR _this$[ebp]
	mov	ecx, DWORD PTR [eax+20]
	add	ecx, 1
	push	ecx
	mov	edx, DWORD PTR __Ptr$1[ebp]
	push	edx
	lea	eax, DWORD PTR $T2[ebp]
	push	eax
	mov	ecx, DWORD PTR _this$[ebp]
	call	?_Getal@?$_String_alloc@$0A@U?$_String_base_types@DV?$allocator@D@std@@@std@@@std@@QBE?AU?$_Wrap_alloc@V?$allocator@D@std@@@2@XZ ; std::_String_alloc<0,std::_String_base_types<char,std::allocator<char> > >::_Getal
	mov	ecx, eax
	call	?deallocate@?$_Wrap_alloc@V?$allocator@D@std@@@std@@QAEXPADI@Z ; std::_Wrap_alloc<std::allocator<char> >::deallocate
$LN3@Tidy:

; 2264 : 			}
; 2265 : 		this->_Myres = this->_BUF_SIZE - 1;

	mov	ecx, DWORD PTR _this$[ebp]
	mov	DWORD PTR [ecx+20], 15			; 0000000fH

; 2266 : 		_Eos(_Newsize);

	mov	edx, DWORD PTR __Newsize$[ebp]
	push	edx
	mov	ecx, DWORD PTR _this$[ebp]
	call	?_Eos@?$basic_string@DU?$char_traits@D@std@@V?$allocator@D@2@@std@@QAEXI@Z ; std::basic_string<char,std::char_traits<char>,std::allocator<char> >::_Eos

; 2267 : 		}

	mov	esp, ebp
	pop	ebp
	ret	8
?_Tidy@?$basic_string@DU?$char_traits@D@std@@V?$allocator@D@2@@std@@QAEX_NI@Z ENDP ; std::basic_string<char,std::char_traits<char>,std::allocator<char> >::_Tidy
_TEXT	ENDS
; Function compile flags: /Odtp
; File c:\program files (x86)\microsoft visual studio 11.0\vc\include\xstring
;	COMDAT ?_Inside@?$basic_string@DU?$char_traits@D@std@@V?$allocator@D@2@@std@@QAE_NPBD@Z
_TEXT	SEGMENT
_this$ = -4						; size = 4
__Ptr$ = 8						; size = 4
?_Inside@?$basic_string@DU?$char_traits@D@std@@V?$allocator@D@2@@std@@QAE_NPBD@Z PROC ; std::basic_string<char,std::char_traits<char>,std::allocator<char> >::_Inside, COMDAT
; _this$ = ecx

; 2237 : 		{	// test if _Ptr points inside string

	push	ebp
	mov	ebp, esp
	push	ecx
	mov	DWORD PTR _this$[ebp], ecx

; 2238 : 		if (_Ptr == 0 || _Ptr < this->_Myptr()
; 2239 : 			|| this->_Myptr() + this->_Mysize <= _Ptr)

	cmp	DWORD PTR __Ptr$[ebp], 0
	je	SHORT $LN2@Inside
	mov	ecx, DWORD PTR _this$[ebp]
	call	?_Myptr@?$_String_val@U?$_Simple_types@D@std@@@std@@QAEPADXZ ; std::_String_val<std::_Simple_types<char> >::_Myptr
	cmp	DWORD PTR __Ptr$[ebp], eax
	jb	SHORT $LN2@Inside
	mov	ecx, DWORD PTR _this$[ebp]
	call	?_Myptr@?$_String_val@U?$_Simple_types@D@std@@@std@@QAEPADXZ ; std::_String_val<std::_Simple_types<char> >::_Myptr
	mov	ecx, DWORD PTR _this$[ebp]
	add	eax, DWORD PTR [ecx+16]
	cmp	eax, DWORD PTR __Ptr$[ebp]
	ja	SHORT $LN3@Inside
$LN2@Inside:

; 2240 : 			return (false);	// don't ask

	xor	al, al
	jmp	SHORT $LN4@Inside

; 2241 : 		else

	jmp	SHORT $LN4@Inside
$LN3@Inside:

; 2242 : 			return (true);

	mov	al, 1
$LN4@Inside:

; 2243 : 		}

	mov	esp, ebp
	pop	ebp
	ret	4
?_Inside@?$basic_string@DU?$char_traits@D@std@@V?$allocator@D@2@@std@@QAE_NPBD@Z ENDP ; std::basic_string<char,std::char_traits<char>,std::allocator<char> >::_Inside
_TEXT	ENDS
; Function compile flags: /Odtp
; File c:\program files (x86)\microsoft visual studio 11.0\vc\include\xstring
;	COMDAT ?_Grow@?$basic_string@DU?$char_traits@D@std@@V?$allocator@D@2@@std@@QAE_NI_N@Z
_TEXT	SEGMENT
tv136 = -12						; size = 4
tv129 = -8						; size = 4
_this$ = -4						; size = 4
__Newsize$ = 8						; size = 4
__Trim$ = 12						; size = 1
?_Grow@?$basic_string@DU?$char_traits@D@std@@V?$allocator@D@2@@std@@QAE_NI_N@Z PROC ; std::basic_string<char,std::char_traits<char>,std::allocator<char> >::_Grow, COMDAT
; _this$ = ecx

; 2223 : 		{	// ensure buffer is big enough, trim to size if _Trim is true

	push	ebp
	mov	ebp, esp
	sub	esp, 12					; 0000000cH
	mov	DWORD PTR _this$[ebp], ecx

; 2224 : 		if (max_size() < _Newsize)

	mov	ecx, DWORD PTR _this$[ebp]
	call	?max_size@?$basic_string@DU?$char_traits@D@std@@V?$allocator@D@2@@std@@QBEIXZ ; std::basic_string<char,std::char_traits<char>,std::allocator<char> >::max_size
	cmp	eax, DWORD PTR __Newsize$[ebp]
	jae	SHORT $LN6@Grow

; 2225 : 			_Xlen();	// result too long

	mov	ecx, DWORD PTR _this$[ebp]
	call	?_Xlen@?$basic_string@DU?$char_traits@D@std@@V?$allocator@D@2@@std@@QBEXXZ ; std::basic_string<char,std::char_traits<char>,std::allocator<char> >::_Xlen
$LN6@Grow:

; 2226 : 		if (this->_Myres < _Newsize)

	mov	eax, DWORD PTR _this$[ebp]
	mov	ecx, DWORD PTR [eax+20]
	cmp	ecx, DWORD PTR __Newsize$[ebp]
	jae	SHORT $LN5@Grow

; 2227 : 			_Copy(_Newsize, this->_Mysize);	// reallocate to grow

	mov	edx, DWORD PTR _this$[ebp]
	mov	eax, DWORD PTR [edx+16]
	push	eax
	mov	ecx, DWORD PTR __Newsize$[ebp]
	push	ecx
	mov	ecx, DWORD PTR _this$[ebp]
	call	?_Copy@?$basic_string@DU?$char_traits@D@std@@V?$allocator@D@2@@std@@QAEXII@Z ; std::basic_string<char,std::char_traits<char>,std::allocator<char> >::_Copy
	jmp	SHORT $LN4@Grow
$LN5@Grow:

; 2228 : 		else if (_Trim && _Newsize < this->_BUF_SIZE)

	movzx	edx, BYTE PTR __Trim$[ebp]
	test	edx, edx
	je	SHORT $LN3@Grow
	cmp	DWORD PTR __Newsize$[ebp], 16		; 00000010H
	jae	SHORT $LN3@Grow

; 2229 : 			_Tidy(true,	// copy and deallocate if trimming to small string
; 2230 : 				_Newsize < this->_Mysize ? _Newsize : this->_Mysize);

	mov	eax, DWORD PTR _this$[ebp]
	mov	ecx, DWORD PTR __Newsize$[ebp]
	cmp	ecx, DWORD PTR [eax+16]
	jae	SHORT $LN9@Grow
	mov	edx, DWORD PTR __Newsize$[ebp]
	mov	DWORD PTR tv129[ebp], edx
	jmp	SHORT $LN10@Grow
$LN9@Grow:
	mov	eax, DWORD PTR _this$[ebp]
	mov	ecx, DWORD PTR [eax+16]
	mov	DWORD PTR tv129[ebp], ecx
$LN10@Grow:
	mov	edx, DWORD PTR tv129[ebp]
	push	edx
	push	1
	mov	ecx, DWORD PTR _this$[ebp]
	call	?_Tidy@?$basic_string@DU?$char_traits@D@std@@V?$allocator@D@2@@std@@QAEX_NI@Z ; std::basic_string<char,std::char_traits<char>,std::allocator<char> >::_Tidy
	jmp	SHORT $LN4@Grow
$LN3@Grow:

; 2231 : 		else if (_Newsize == 0)

	cmp	DWORD PTR __Newsize$[ebp], 0
	jne	SHORT $LN4@Grow

; 2232 : 			_Eos(0);	// new size is zero, just null terminate

	push	0
	mov	ecx, DWORD PTR _this$[ebp]
	call	?_Eos@?$basic_string@DU?$char_traits@D@std@@V?$allocator@D@2@@std@@QAEXI@Z ; std::basic_string<char,std::char_traits<char>,std::allocator<char> >::_Eos
$LN4@Grow:

; 2233 : 		return (0 < _Newsize);	// return true only if more work to do

	cmp	DWORD PTR __Newsize$[ebp], 0
	jbe	SHORT $LN11@Grow
	mov	DWORD PTR tv136[ebp], 1
	jmp	SHORT $LN12@Grow
$LN11@Grow:
	mov	DWORD PTR tv136[ebp], 0
$LN12@Grow:
	mov	al, BYTE PTR tv136[ebp]
$LN8@Grow:

; 2234 : 		}

	mov	esp, ebp
	pop	ebp
	ret	8
?_Grow@?$basic_string@DU?$char_traits@D@std@@V?$allocator@D@2@@std@@QAE_NI_N@Z ENDP ; std::basic_string<char,std::char_traits<char>,std::allocator<char> >::_Grow
_TEXT	ENDS
; Function compile flags: /Odtp
; File c:\program files (x86)\microsoft visual studio 11.0\vc\include\xstring
;	COMDAT ?_Eos@?$basic_string@DU?$char_traits@D@std@@V?$allocator@D@2@@std@@QAEXI@Z
_TEXT	SEGMENT
_this$ = -8						; size = 4
$T1 = -1						; size = 1
__Newsize$ = 8						; size = 4
?_Eos@?$basic_string@DU?$char_traits@D@std@@V?$allocator@D@2@@std@@QAEXI@Z PROC ; std::basic_string<char,std::char_traits<char>,std::allocator<char> >::_Eos, COMDAT
; _this$ = ecx

; 2217 : 		{	// set new length and null terminator

	push	ebp
	mov	ebp, esp
	sub	esp, 8
	mov	DWORD PTR _this$[ebp], ecx

; 2218 : 		_Traits::assign(this->_Myptr()[this->_Mysize = _Newsize], _Elem());

	mov	BYTE PTR $T1[ebp], 0
	mov	eax, DWORD PTR _this$[ebp]
	mov	ecx, DWORD PTR __Newsize$[ebp]
	mov	DWORD PTR [eax+16], ecx
	lea	edx, DWORD PTR $T1[ebp]
	push	edx
	mov	ecx, DWORD PTR _this$[ebp]
	call	?_Myptr@?$_String_val@U?$_Simple_types@D@std@@@std@@QAEPADXZ ; std::_String_val<std::_Simple_types<char> >::_Myptr
	add	eax, DWORD PTR __Newsize$[ebp]
	push	eax
	call	?assign@?$char_traits@D@std@@SAXAADABD@Z ; std::char_traits<char>::assign
	add	esp, 8

; 2219 : 		}

	mov	esp, ebp
	pop	ebp
	ret	4
?_Eos@?$basic_string@DU?$char_traits@D@std@@V?$allocator@D@2@@std@@QAEXI@Z ENDP ; std::basic_string<char,std::char_traits<char>,std::allocator<char> >::_Eos
_TEXT	ENDS
; Function compile flags: /Odtp
; File c:\program files (x86)\microsoft visual studio 11.0\vc\include\xstring
;	COMDAT ?_Copy@?$basic_string@DU?$char_traits@D@std@@V?$allocator@D@2@@std@@QAEXII@Z
_TEXT	SEGMENT
tv205 = -48						; size = 4
tv204 = -44						; size = 4
tv203 = -40						; size = 4
tv202 = -36						; size = 4
__Ptr$ = -32						; size = 4
__Newres$ = -28						; size = 4
_this$ = -24						; size = 4
$T2 = -19						; size = 1
$T3 = -18						; size = 1
$T4 = -17						; size = 1
__$EHRec$ = -16						; size = 16
__Newsize$ = 8						; size = 4
__Oldlen$ = 12						; size = 4
?_Copy@?$basic_string@DU?$char_traits@D@std@@V?$allocator@D@2@@std@@QAEXII@Z PROC ; std::basic_string<char,std::char_traits<char>,std::allocator<char> >::_Copy, COMDAT
; _this$ = ecx

; 2182 : 		{	// copy _Oldlen elements to newly allocated buffer

	push	ebp
	mov	ebp, esp
	push	-1
	push	__ehhandler$?_Copy@?$basic_string@DU?$char_traits@D@std@@V?$allocator@D@2@@std@@QAEXII@Z
	mov	eax, DWORD PTR fs:0
	push	eax
	push	ecx
	sub	esp, 32					; 00000020H
	push	ebx
	push	esi
	push	edi
	mov	eax, DWORD PTR ___security_cookie
	xor	eax, ebp
	push	eax
	lea	eax, DWORD PTR __$EHRec$[ebp+4]
	mov	DWORD PTR fs:0, eax
	mov	DWORD PTR __$EHRec$[ebp], esp
	mov	DWORD PTR _this$[ebp], ecx

; 2183 : 		size_type _Newres = _Newsize | this->_ALLOC_MASK;

	mov	eax, DWORD PTR __Newsize$[ebp]
	or	eax, 15					; 0000000fH
	mov	DWORD PTR __Newres$[ebp], eax

; 2184 : 		if (max_size() < _Newres)

	mov	ecx, DWORD PTR _this$[ebp]
	call	?max_size@?$basic_string@DU?$char_traits@D@std@@V?$allocator@D@2@@std@@QBEIXZ ; std::basic_string<char,std::char_traits<char>,std::allocator<char> >::max_size
	cmp	eax, DWORD PTR __Newres$[ebp]
	jae	SHORT $LN9@Copy

; 2185 : 			_Newres = _Newsize;	// undo roundup if too big

	mov	ecx, DWORD PTR __Newsize$[ebp]
	mov	DWORD PTR __Newres$[ebp], ecx
	jmp	SHORT $LN8@Copy
$LN9@Copy:

; 2186 : 		else if (this->_Myres / 2 <= _Newres / 3)

	mov	eax, DWORD PTR __Newres$[ebp]
	xor	edx, edx
	mov	ecx, 3
	div	ecx
	mov	edx, DWORD PTR _this$[ebp]
	mov	ecx, DWORD PTR [edx+20]
	shr	ecx, 1
	cmp	ecx, eax
	ja	SHORT $LN7@Copy
	jmp	SHORT $LN8@Copy
$LN7@Copy:

; 2187 : 			;
; 2188 : 		else if (this->_Myres <= max_size() - this->_Myres / 2)

	mov	edx, DWORD PTR _this$[ebp]
	mov	esi, DWORD PTR [edx+20]
	shr	esi, 1
	mov	ecx, DWORD PTR _this$[ebp]
	call	?max_size@?$basic_string@DU?$char_traits@D@std@@V?$allocator@D@2@@std@@QBEIXZ ; std::basic_string<char,std::char_traits<char>,std::allocator<char> >::max_size
	sub	eax, esi
	mov	ecx, DWORD PTR _this$[ebp]
	cmp	DWORD PTR [ecx+20], eax
	ja	SHORT $LN5@Copy

; 2189 : 			_Newres = this->_Myres
; 2190 : 				+ this->_Myres / 2;	// grow exponentially if possible

	mov	edx, DWORD PTR _this$[ebp]
	mov	eax, DWORD PTR [edx+20]
	shr	eax, 1
	mov	ecx, DWORD PTR _this$[ebp]
	add	eax, DWORD PTR [ecx+20]
	mov	DWORD PTR __Newres$[ebp], eax

; 2191 : 		else

	jmp	SHORT $LN8@Copy
$LN5@Copy:

; 2192 : 			_Newres = max_size();	// settle for max_size()

	mov	ecx, DWORD PTR _this$[ebp]
	call	?max_size@?$basic_string@DU?$char_traits@D@std@@V?$allocator@D@2@@std@@QBEIXZ ; std::basic_string<char,std::char_traits<char>,std::allocator<char> >::max_size
	mov	DWORD PTR __Newres$[ebp], eax
$LN8@Copy:

; 2193 : 
; 2194 : 		_Elem *_Ptr;
; 2195 : 		_TRY_BEGIN

	mov	DWORD PTR __$EHRec$[ebp+12], 0

; 2196 : 			_Ptr = this->_Getal().allocate(_Newres + 1);

	lea	edx, DWORD PTR $T4[ebp]
	push	edx
	mov	ecx, DWORD PTR _this$[ebp]
	call	?_Getal@?$_String_alloc@$0A@U?$_String_base_types@DV?$allocator@D@std@@@std@@@std@@QBE?AU?$_Wrap_alloc@V?$allocator@D@std@@@2@XZ ; std::_String_alloc<0,std::_String_base_types<char,std::allocator<char> > >::_Getal
	mov	DWORD PTR tv202[ebp], eax
	mov	eax, DWORD PTR __Newres$[ebp]
	add	eax, 1
	push	eax
	mov	ecx, DWORD PTR tv202[ebp]
	call	?allocate@?$_Wrap_alloc@V?$allocator@D@std@@@std@@QAEPADI@Z ; std::_Wrap_alloc<std::allocator<char> >::allocate
	mov	DWORD PTR tv203[ebp], eax
	mov	ecx, DWORD PTR tv203[ebp]
	mov	DWORD PTR __Ptr$[ebp], ecx
	jmp	SHORT $LN12@Copy
__catch$?_Copy@?$basic_string@DU?$char_traits@D@std@@V?$allocator@D@2@@std@@QAEXII@Z$0:

; 2197 : 		_CATCH_ALL

	mov	DWORD PTR __$EHRec$[ebp], esp

; 2198 : 			_Newres = _Newsize;	// allocation failed, undo roundup and retry

	mov	edx, DWORD PTR __Newsize$[ebp]
	mov	DWORD PTR __Newres$[ebp], edx

; 2199 : 			_TRY_BEGIN

	mov	BYTE PTR __$EHRec$[ebp+12], 2

; 2200 : 				_Ptr = this->_Getal().allocate(_Newres + 1);

	lea	eax, DWORD PTR $T3[ebp]
	push	eax
	mov	ecx, DWORD PTR _this$[ebp]
	call	?_Getal@?$_String_alloc@$0A@U?$_String_base_types@DV?$allocator@D@std@@@std@@@std@@QBE?AU?$_Wrap_alloc@V?$allocator@D@std@@@2@XZ ; std::_String_alloc<0,std::_String_base_types<char,std::allocator<char> > >::_Getal
	mov	DWORD PTR tv204[ebp], eax
	mov	ecx, DWORD PTR __Newres$[ebp]
	add	ecx, 1
	push	ecx
	mov	ecx, DWORD PTR tv204[ebp]
	call	?allocate@?$_Wrap_alloc@V?$allocator@D@std@@@std@@QAEPADI@Z ; std::_Wrap_alloc<std::allocator<char> >::allocate
	mov	DWORD PTR tv205[ebp], eax
	mov	edx, DWORD PTR tv205[ebp]
	mov	DWORD PTR __Ptr$[ebp], edx
	jmp	SHORT $LN14@Copy
__catch$?_Copy@?$basic_string@DU?$char_traits@D@std@@V?$allocator@D@2@@std@@QAEXII@Z$1:

; 2201 : 			_CATCH_ALL
; 2202 : 			_Tidy(true);	// failed again, discard storage and reraise

	push	0
	push	1
	mov	ecx, DWORD PTR _this$[ebp]
	call	?_Tidy@?$basic_string@DU?$char_traits@D@std@@V?$allocator@D@2@@std@@QAEX_NI@Z ; std::basic_string<char,std::char_traits<char>,std::allocator<char> >::_Tidy

; 2203 : 			_RERAISE;

	push	0
	push	0
	call	__CxxThrowException@8

; 2204 : 			_CATCH_END

	mov	eax, $LN17@Copy
	ret	0
$LN14@Copy:
	mov	DWORD PTR __$EHRec$[ebp+12], 1
	jmp	SHORT __tryend$?_Copy@?$basic_string@DU?$char_traits@D@std@@V?$allocator@D@2@@std@@QAEXII@Z$2
$LN17@Copy:
	mov	DWORD PTR __$EHRec$[ebp+12], 1
__tryend$?_Copy@?$basic_string@DU?$char_traits@D@std@@V?$allocator@D@2@@std@@QAEXII@Z$2:

; 2205 : 		_CATCH_END

	mov	eax, $LN19@Copy
	ret	0
$LN12@Copy:
	mov	DWORD PTR __$EHRec$[ebp+12], -1
	jmp	SHORT __tryend$?_Copy@?$basic_string@DU?$char_traits@D@std@@V?$allocator@D@2@@std@@QAEXII@Z$3
$LN19@Copy:
	mov	DWORD PTR __$EHRec$[ebp+12], -1
__tryend$?_Copy@?$basic_string@DU?$char_traits@D@std@@V?$allocator@D@2@@std@@QAEXII@Z$3:

; 2206 : 
; 2207 : 		if (0 < _Oldlen)

	cmp	DWORD PTR __Oldlen$[ebp], 0
	jbe	SHORT $LN1@Copy

; 2208 : 			_Traits::copy(_Ptr, this->_Myptr(),
; 2209 : 				_Oldlen);	// copy existing elements

	mov	eax, DWORD PTR __Oldlen$[ebp]
	push	eax
	mov	ecx, DWORD PTR _this$[ebp]
	call	?_Myptr@?$_String_val@U?$_Simple_types@D@std@@@std@@QAEPADXZ ; std::_String_val<std::_Simple_types<char> >::_Myptr
	push	eax
	mov	ecx, DWORD PTR __Ptr$[ebp]
	push	ecx
	call	?copy@?$char_traits@D@std@@SAPADPADPBDI@Z ; std::char_traits<char>::copy
	add	esp, 12					; 0000000cH
$LN1@Copy:

; 2210 : 		_Tidy(true);

	push	0
	push	1
	mov	ecx, DWORD PTR _this$[ebp]
	call	?_Tidy@?$basic_string@DU?$char_traits@D@std@@V?$allocator@D@2@@std@@QAEX_NI@Z ; std::basic_string<char,std::char_traits<char>,std::allocator<char> >::_Tidy

; 2211 : 		this->_Getal().construct(&this->_Bx._Ptr, _Ptr);

	lea	edx, DWORD PTR __Ptr$[ebp]
	push	edx
	mov	eax, DWORD PTR _this$[ebp]
	push	eax
	lea	ecx, DWORD PTR $T2[ebp]
	push	ecx
	mov	ecx, DWORD PTR _this$[ebp]
	call	?_Getal@?$_String_alloc@$0A@U?$_String_base_types@DV?$allocator@D@std@@@std@@@std@@QBE?AU?$_Wrap_alloc@V?$allocator@D@std@@@2@XZ ; std::_String_alloc<0,std::_String_base_types<char,std::allocator<char> > >::_Getal
	mov	ecx, eax
	call	??$construct@PADAAPAD@?$_Wrap_alloc@V?$allocator@D@std@@@std@@QAEXPAPADAAPAD@Z ; std::_Wrap_alloc<std::allocator<char> >::construct<char *,char * &>

; 2212 : 		this->_Myres = _Newres;

	mov	edx, DWORD PTR _this$[ebp]
	mov	eax, DWORD PTR __Newres$[ebp]
	mov	DWORD PTR [edx+20], eax

; 2213 : 		_Eos(_Oldlen);

	mov	ecx, DWORD PTR __Oldlen$[ebp]
	push	ecx
	mov	ecx, DWORD PTR _this$[ebp]
	call	?_Eos@?$basic_string@DU?$char_traits@D@std@@V?$allocator@D@2@@std@@QAEXI@Z ; std::basic_string<char,std::char_traits<char>,std::allocator<char> >::_Eos
$LN11@Copy:

; 2214 : 		}

	mov	ecx, DWORD PTR __$EHRec$[ebp+4]
	mov	DWORD PTR fs:0, ecx
	pop	ecx
	pop	edi
	pop	esi
	pop	ebx
	mov	esp, ebp
	pop	ebp
	ret	8
_TEXT	ENDS
;	COMDAT text$x
text$x	SEGMENT
__ehhandler$?_Copy@?$basic_string@DU?$char_traits@D@std@@V?$allocator@D@2@@std@@QAEXII@Z:
	mov	edx, DWORD PTR [esp+8]
	lea	eax, DWORD PTR [edx+12]
	mov	ecx, DWORD PTR [edx-52]
	xor	ecx, eax
	call	@__security_check_cookie@4
	mov	eax, OFFSET __ehfuncinfo$?_Copy@?$basic_string@DU?$char_traits@D@std@@V?$allocator@D@2@@std@@QAEXII@Z
	jmp	___CxxFrameHandler3
text$x	ENDS
?_Copy@?$basic_string@DU?$char_traits@D@std@@V?$allocator@D@2@@std@@QAEXII@Z ENDP ; std::basic_string<char,std::char_traits<char>,std::allocator<char> >::_Copy
; Function compile flags: /Odtp
; File c:\program files (x86)\microsoft visual studio 11.0\vc\include\xstring
;	COMDAT ?max_size@?$basic_string@DU?$char_traits@D@std@@V?$allocator@D@2@@std@@QBEIXZ
_TEXT	SEGMENT
_this$ = -16						; size = 4
tv75 = -12						; size = 4
__Num$ = -8						; size = 4
$T1 = -1						; size = 1
?max_size@?$basic_string@DU?$char_traits@D@std@@V?$allocator@D@2@@std@@QBEIXZ PROC ; std::basic_string<char,std::char_traits<char>,std::allocator<char> >::max_size, COMDAT
; _this$ = ecx

; 1737 : 		{	// return maximum possible length of sequence

	push	ebp
	mov	ebp, esp
	sub	esp, 16					; 00000010H
	mov	DWORD PTR _this$[ebp], ecx

; 1738 : 		size_type _Num = this->_Getal().max_size();

	lea	eax, DWORD PTR $T1[ebp]
	push	eax
	mov	ecx, DWORD PTR _this$[ebp]
	call	?_Getal@?$_String_alloc@$0A@U?$_String_base_types@DV?$allocator@D@std@@@std@@@std@@QBE?AU?$_Wrap_alloc@V?$allocator@D@std@@@2@XZ ; std::_String_alloc<0,std::_String_base_types<char,std::allocator<char> > >::_Getal
	mov	ecx, eax
	call	?max_size@?$_Wrap_alloc@V?$allocator@D@std@@@std@@QBEIXZ ; std::_Wrap_alloc<std::allocator<char> >::max_size
	mov	DWORD PTR __Num$[ebp], eax

; 1739 : 		return (_Num <= 1 ? 1 : _Num - 1);

	cmp	DWORD PTR __Num$[ebp], 1
	ja	SHORT $LN3@max_size
	mov	DWORD PTR tv75[ebp], 1
	jmp	SHORT $LN4@max_size
$LN3@max_size:
	mov	ecx, DWORD PTR __Num$[ebp]
	sub	ecx, 1
	mov	DWORD PTR tv75[ebp], ecx
$LN4@max_size:
	mov	eax, DWORD PTR tv75[ebp]

; 1740 : 		}

	mov	esp, ebp
	pop	ebp
	ret	0
?max_size@?$basic_string@DU?$char_traits@D@std@@V?$allocator@D@2@@std@@QBEIXZ ENDP ; std::basic_string<char,std::char_traits<char>,std::allocator<char> >::max_size
_TEXT	ENDS
; Function compile flags: /Odtp
; File c:\program files (x86)\microsoft visual studio 11.0\vc\include\xstring
;	COMDAT ?size@?$basic_string@DU?$char_traits@D@std@@V?$allocator@D@2@@std@@QBEIXZ
_TEXT	SEGMENT
_this$ = -4						; size = 4
?size@?$basic_string@DU?$char_traits@D@std@@V?$allocator@D@2@@std@@QBEIXZ PROC ; std::basic_string<char,std::char_traits<char>,std::allocator<char> >::size, COMDAT
; _this$ = ecx

; 1732 : 		{	// return length of sequence

	push	ebp
	mov	ebp, esp
	push	ecx
	mov	DWORD PTR _this$[ebp], ecx

; 1733 : 		return (this->_Mysize);

	mov	eax, DWORD PTR _this$[ebp]
	mov	eax, DWORD PTR [eax+16]

; 1734 : 		}

	mov	esp, ebp
	pop	ebp
	ret	0
?size@?$basic_string@DU?$char_traits@D@std@@V?$allocator@D@2@@std@@QBEIXZ ENDP ; std::basic_string<char,std::char_traits<char>,std::allocator<char> >::size
_TEXT	ENDS
; Function compile flags: /Odtp
; File c:\program files (x86)\microsoft visual studio 11.0\vc\include\xstring
;	COMDAT ?erase@?$basic_string@DU?$char_traits@D@std@@V?$allocator@D@2@@std@@QAEAAV12@II@Z
_TEXT	SEGMENT
__Newsize$1 = -12					; size = 4
__Ptr$2 = -8						; size = 4
_this$ = -4						; size = 4
__Off$ = 8						; size = 4
__Count$ = 12						; size = 4
?erase@?$basic_string@DU?$char_traits@D@std@@V?$allocator@D@2@@std@@QAEAAV12@II@Z PROC ; std::basic_string<char,std::char_traits<char>,std::allocator<char> >::erase, COMDAT
; _this$ = ecx

; 1317 : 		{	// erase elements [_Off, _Off + _Count)

	push	ebp
	mov	ebp, esp
	sub	esp, 12					; 0000000cH
	mov	DWORD PTR _this$[ebp], ecx

; 1318 : 		if (this->_Mysize < _Off)

	mov	eax, DWORD PTR _this$[ebp]
	mov	ecx, DWORD PTR [eax+16]
	cmp	ecx, DWORD PTR __Off$[ebp]
	jae	SHORT $LN4@erase

; 1319 : 			_Xran();	// _Off off end

	mov	ecx, DWORD PTR _this$[ebp]
	call	?_Xran@?$basic_string@DU?$char_traits@D@std@@V?$allocator@D@2@@std@@QBEXXZ ; std::basic_string<char,std::char_traits<char>,std::allocator<char> >::_Xran
$LN4@erase:

; 1320 : 		if (this->_Mysize - _Off <= _Count)

	mov	edx, DWORD PTR _this$[ebp]
	mov	eax, DWORD PTR [edx+16]
	sub	eax, DWORD PTR __Off$[ebp]
	cmp	eax, DWORD PTR __Count$[ebp]
	ja	SHORT $LN3@erase

; 1321 : 			_Eos(_Off);	// erase elements [_Off, ...)

	mov	ecx, DWORD PTR __Off$[ebp]
	push	ecx
	mov	ecx, DWORD PTR _this$[ebp]
	call	?_Eos@?$basic_string@DU?$char_traits@D@std@@V?$allocator@D@2@@std@@QAEXI@Z ; std::basic_string<char,std::char_traits<char>,std::allocator<char> >::_Eos
	jmp	SHORT $LN2@erase
$LN3@erase:

; 1322 : 		else if (0 < _Count)

	cmp	DWORD PTR __Count$[ebp], 0
	jbe	SHORT $LN2@erase

; 1323 : 			{	// move elements down
; 1324 : 			value_type *_Ptr = this->_Myptr() + _Off;

	mov	ecx, DWORD PTR _this$[ebp]
	call	?_Myptr@?$_String_val@U?$_Simple_types@D@std@@@std@@QAEPADXZ ; std::_String_val<std::_Simple_types<char> >::_Myptr
	add	eax, DWORD PTR __Off$[ebp]
	mov	DWORD PTR __Ptr$2[ebp], eax

; 1325 : 			size_type _Newsize = this->_Mysize - _Count;

	mov	edx, DWORD PTR _this$[ebp]
	mov	eax, DWORD PTR [edx+16]
	sub	eax, DWORD PTR __Count$[ebp]
	mov	DWORD PTR __Newsize$1[ebp], eax

; 1326 : 			_Traits::move(_Ptr, _Ptr + _Count, _Newsize - _Off);

	mov	ecx, DWORD PTR __Newsize$1[ebp]
	sub	ecx, DWORD PTR __Off$[ebp]
	push	ecx
	mov	edx, DWORD PTR __Ptr$2[ebp]
	add	edx, DWORD PTR __Count$[ebp]
	push	edx
	mov	eax, DWORD PTR __Ptr$2[ebp]
	push	eax
	call	?move@?$char_traits@D@std@@SAPADPADPBDI@Z ; std::char_traits<char>::move
	add	esp, 12					; 0000000cH

; 1327 : 			_Eos(_Newsize);

	mov	ecx, DWORD PTR __Newsize$1[ebp]
	push	ecx
	mov	ecx, DWORD PTR _this$[ebp]
	call	?_Eos@?$basic_string@DU?$char_traits@D@std@@V?$allocator@D@2@@std@@QAEXI@Z ; std::basic_string<char,std::char_traits<char>,std::allocator<char> >::_Eos
$LN2@erase:

; 1328 : 			}
; 1329 : 		return (*this);

	mov	eax, DWORD PTR _this$[ebp]
$LN6@erase:

; 1330 : 		}

	mov	esp, ebp
	pop	ebp
	ret	8
?erase@?$basic_string@DU?$char_traits@D@std@@V?$allocator@D@2@@std@@QAEAAV12@II@Z ENDP ; std::basic_string<char,std::char_traits<char>,std::allocator<char> >::erase
_TEXT	ENDS
; Function compile flags: /Odtp
; File c:\program files (x86)\microsoft visual studio 11.0\vc\include\xstring
;	COMDAT ?erase@?$basic_string@DU?$char_traits@D@std@@V?$allocator@D@2@@std@@QAEAAV12@I@Z
_TEXT	SEGMENT
_this$ = -4						; size = 4
__Off$ = 8						; size = 4
?erase@?$basic_string@DU?$char_traits@D@std@@V?$allocator@D@2@@std@@QAEAAV12@I@Z PROC ; std::basic_string<char,std::char_traits<char>,std::allocator<char> >::erase, COMDAT
; _this$ = ecx

; 1309 : 		{	// erase elements [_Off, ...)

	push	ebp
	mov	ebp, esp
	push	ecx
	mov	DWORD PTR _this$[ebp], ecx

; 1310 : 		if (this->_Mysize < _Off)

	mov	eax, DWORD PTR _this$[ebp]
	mov	ecx, DWORD PTR [eax+16]
	cmp	ecx, DWORD PTR __Off$[ebp]
	jae	SHORT $LN1@erase

; 1311 : 			_Xran();	// _Off off end

	mov	ecx, DWORD PTR _this$[ebp]
	call	?_Xran@?$basic_string@DU?$char_traits@D@std@@V?$allocator@D@2@@std@@QBEXXZ ; std::basic_string<char,std::char_traits<char>,std::allocator<char> >::_Xran
$LN1@erase:

; 1312 : 		_Eos(_Off);

	mov	edx, DWORD PTR __Off$[ebp]
	push	edx
	mov	ecx, DWORD PTR _this$[ebp]
	call	?_Eos@?$basic_string@DU?$char_traits@D@std@@V?$allocator@D@2@@std@@QAEXI@Z ; std::basic_string<char,std::char_traits<char>,std::allocator<char> >::_Eos

; 1313 : 		return (*this);

	mov	eax, DWORD PTR _this$[ebp]
$LN3@erase:

; 1314 : 		}

	mov	esp, ebp
	pop	ebp
	ret	4
?erase@?$basic_string@DU?$char_traits@D@std@@V?$allocator@D@2@@std@@QAEAAV12@I@Z ENDP ; std::basic_string<char,std::char_traits<char>,std::allocator<char> >::erase
_TEXT	ENDS
; Function compile flags: /Odtp
; File c:\program files (x86)\microsoft visual studio 11.0\vc\include\xstring
;	COMDAT ?assign@?$basic_string@DU?$char_traits@D@std@@V?$allocator@D@2@@std@@QAEAAV12@PBD@Z
_TEXT	SEGMENT
_this$ = -4						; size = 4
__Ptr$ = 8						; size = 4
?assign@?$basic_string@DU?$char_traits@D@std@@V?$allocator@D@2@@std@@QAEAAV12@PBD@Z PROC ; std::basic_string<char,std::char_traits<char>,std::allocator<char> >::assign, COMDAT
; _this$ = ecx

; 1142 : 		{	// assign [_Ptr, <null>)

	push	ebp
	mov	ebp, esp
	push	ecx
	mov	DWORD PTR _this$[ebp], ecx

; 1143 : 		_DEBUG_POINTER(_Ptr);
; 1144 : 		return (assign(_Ptr, _Traits::length(_Ptr)));

	mov	eax, DWORD PTR __Ptr$[ebp]
	push	eax
	call	?length@?$char_traits@D@std@@SAIPBD@Z	; std::char_traits<char>::length
	add	esp, 4
	push	eax
	mov	ecx, DWORD PTR __Ptr$[ebp]
	push	ecx
	mov	ecx, DWORD PTR _this$[ebp]
	call	?assign@?$basic_string@DU?$char_traits@D@std@@V?$allocator@D@2@@std@@QAEAAV12@PBDI@Z ; std::basic_string<char,std::char_traits<char>,std::allocator<char> >::assign

; 1145 : 		}

	mov	esp, ebp
	pop	ebp
	ret	4
?assign@?$basic_string@DU?$char_traits@D@std@@V?$allocator@D@2@@std@@QAEAAV12@PBD@Z ENDP ; std::basic_string<char,std::char_traits<char>,std::allocator<char> >::assign
_TEXT	ENDS
; Function compile flags: /Odtp
; File c:\program files (x86)\microsoft visual studio 11.0\vc\include\xstring
;	COMDAT ?assign@?$basic_string@DU?$char_traits@D@std@@V?$allocator@D@2@@std@@QAEAAV12@PBDI@Z
_TEXT	SEGMENT
_this$ = -4						; size = 4
__Ptr$ = 8						; size = 4
__Count$ = 12						; size = 4
?assign@?$basic_string@DU?$char_traits@D@std@@V?$allocator@D@2@@std@@QAEAAV12@PBDI@Z PROC ; std::basic_string<char,std::char_traits<char>,std::allocator<char> >::assign, COMDAT
; _this$ = ecx

; 1123 : 		{	// assign [_Ptr, _Ptr + _Count)

	push	ebp
	mov	ebp, esp
	push	ecx
	mov	DWORD PTR _this$[ebp], ecx

; 1124 :  #if _ITERATOR_DEBUG_LEVEL == 2
; 1125 : 		if (_Count != 0)
; 1126 : 			_DEBUG_POINTER(_Ptr);
; 1127 :  #endif /* _ITERATOR_DEBUG_LEVEL == 2 */
; 1128 : 
; 1129 : 		if (_Inside(_Ptr))

	mov	eax, DWORD PTR __Ptr$[ebp]
	push	eax
	mov	ecx, DWORD PTR _this$[ebp]
	call	?_Inside@?$basic_string@DU?$char_traits@D@std@@V?$allocator@D@2@@std@@QAE_NPBD@Z ; std::basic_string<char,std::char_traits<char>,std::allocator<char> >::_Inside
	movzx	ecx, al
	test	ecx, ecx
	je	SHORT $LN2@assign

; 1130 : 			return (assign(*this,
; 1131 : 				_Ptr - this->_Myptr(), _Count));	// substring

	mov	edx, DWORD PTR __Count$[ebp]
	push	edx
	mov	ecx, DWORD PTR _this$[ebp]
	call	?_Myptr@?$_String_val@U?$_Simple_types@D@std@@@std@@QAEPADXZ ; std::_String_val<std::_Simple_types<char> >::_Myptr
	mov	ecx, DWORD PTR __Ptr$[ebp]
	sub	ecx, eax
	push	ecx
	mov	edx, DWORD PTR _this$[ebp]
	push	edx
	mov	ecx, DWORD PTR _this$[ebp]
	call	?assign@?$basic_string@DU?$char_traits@D@std@@V?$allocator@D@2@@std@@QAEAAV12@ABV12@II@Z ; std::basic_string<char,std::char_traits<char>,std::allocator<char> >::assign
	jmp	SHORT $LN3@assign
$LN2@assign:

; 1132 : 
; 1133 : 		if (_Grow(_Count))

	push	0
	mov	eax, DWORD PTR __Count$[ebp]
	push	eax
	mov	ecx, DWORD PTR _this$[ebp]
	call	?_Grow@?$basic_string@DU?$char_traits@D@std@@V?$allocator@D@2@@std@@QAE_NI_N@Z ; std::basic_string<char,std::char_traits<char>,std::allocator<char> >::_Grow
	movzx	ecx, al
	test	ecx, ecx
	je	SHORT $LN1@assign

; 1134 : 			{	// make room and assign new stuff
; 1135 : 			_Traits::copy(this->_Myptr(), _Ptr, _Count);

	mov	edx, DWORD PTR __Count$[ebp]
	push	edx
	mov	eax, DWORD PTR __Ptr$[ebp]
	push	eax
	mov	ecx, DWORD PTR _this$[ebp]
	call	?_Myptr@?$_String_val@U?$_Simple_types@D@std@@@std@@QAEPADXZ ; std::_String_val<std::_Simple_types<char> >::_Myptr
	push	eax
	call	?copy@?$char_traits@D@std@@SAPADPADPBDI@Z ; std::char_traits<char>::copy
	add	esp, 12					; 0000000cH

; 1136 : 			_Eos(_Count);

	mov	ecx, DWORD PTR __Count$[ebp]
	push	ecx
	mov	ecx, DWORD PTR _this$[ebp]
	call	?_Eos@?$basic_string@DU?$char_traits@D@std@@V?$allocator@D@2@@std@@QAEXI@Z ; std::basic_string<char,std::char_traits<char>,std::allocator<char> >::_Eos
$LN1@assign:

; 1137 : 			}
; 1138 : 		return (*this);

	mov	eax, DWORD PTR _this$[ebp]
$LN3@assign:

; 1139 : 		}

	mov	esp, ebp
	pop	ebp
	ret	8
?assign@?$basic_string@DU?$char_traits@D@std@@V?$allocator@D@2@@std@@QAEAAV12@PBDI@Z ENDP ; std::basic_string<char,std::char_traits<char>,std::allocator<char> >::assign
_TEXT	ENDS
; Function compile flags: /Odtp
; File c:\program files (x86)\microsoft visual studio 11.0\vc\include\xstring
;	COMDAT ?assign@?$basic_string@DU?$char_traits@D@std@@V?$allocator@D@2@@std@@QAEAAV12@ABV12@II@Z
_TEXT	SEGMENT
__Num$ = -8						; size = 4
_this$ = -4						; size = 4
__Right$ = 8						; size = 4
__Roff$ = 12						; size = 4
__Count$ = 16						; size = 4
?assign@?$basic_string@DU?$char_traits@D@std@@V?$allocator@D@2@@std@@QAEAAV12@ABV12@II@Z PROC ; std::basic_string<char,std::char_traits<char>,std::allocator<char> >::assign, COMDAT
; _this$ = ecx

; 1104 : 		{	// assign _Right [_Roff, _Roff + _Count)

	push	ebp
	mov	ebp, esp
	sub	esp, 8
	mov	DWORD PTR _this$[ebp], ecx

; 1105 : 		if (_Right.size() < _Roff)

	mov	ecx, DWORD PTR __Right$[ebp]
	call	?size@?$basic_string@DU?$char_traits@D@std@@V?$allocator@D@2@@std@@QBEIXZ ; std::basic_string<char,std::char_traits<char>,std::allocator<char> >::size
	cmp	eax, DWORD PTR __Roff$[ebp]
	jae	SHORT $LN5@assign

; 1106 : 			_Xran();	// _Roff off end

	mov	ecx, DWORD PTR _this$[ebp]
	call	?_Xran@?$basic_string@DU?$char_traits@D@std@@V?$allocator@D@2@@std@@QBEXXZ ; std::basic_string<char,std::char_traits<char>,std::allocator<char> >::_Xran
$LN5@assign:

; 1107 : 		size_type _Num = _Right.size() - _Roff;

	mov	ecx, DWORD PTR __Right$[ebp]
	call	?size@?$basic_string@DU?$char_traits@D@std@@V?$allocator@D@2@@std@@QBEIXZ ; std::basic_string<char,std::char_traits<char>,std::allocator<char> >::size
	sub	eax, DWORD PTR __Roff$[ebp]
	mov	DWORD PTR __Num$[ebp], eax

; 1108 : 		if (_Count < _Num)

	mov	eax, DWORD PTR __Count$[ebp]
	cmp	eax, DWORD PTR __Num$[ebp]
	jae	SHORT $LN4@assign

; 1109 : 			_Num = _Count;	// trim _Num to size

	mov	ecx, DWORD PTR __Count$[ebp]
	mov	DWORD PTR __Num$[ebp], ecx
$LN4@assign:

; 1110 : 
; 1111 : 		if (this == &_Right)

	mov	edx, DWORD PTR _this$[ebp]
	cmp	edx, DWORD PTR __Right$[ebp]
	jne	SHORT $LN3@assign

; 1112 : 			erase((size_type)(_Roff + _Num)), erase(0, _Roff);	// substring

	mov	eax, DWORD PTR __Roff$[ebp]
	add	eax, DWORD PTR __Num$[ebp]
	push	eax
	mov	ecx, DWORD PTR _this$[ebp]
	call	?erase@?$basic_string@DU?$char_traits@D@std@@V?$allocator@D@2@@std@@QAEAAV12@I@Z ; std::basic_string<char,std::char_traits<char>,std::allocator<char> >::erase
	mov	ecx, DWORD PTR __Roff$[ebp]
	push	ecx
	push	0
	mov	ecx, DWORD PTR _this$[ebp]
	call	?erase@?$basic_string@DU?$char_traits@D@std@@V?$allocator@D@2@@std@@QAEAAV12@II@Z ; std::basic_string<char,std::char_traits<char>,std::allocator<char> >::erase
	jmp	SHORT $LN2@assign
$LN3@assign:

; 1113 : 		else if (_Grow(_Num))

	push	0
	mov	edx, DWORD PTR __Num$[ebp]
	push	edx
	mov	ecx, DWORD PTR _this$[ebp]
	call	?_Grow@?$basic_string@DU?$char_traits@D@std@@V?$allocator@D@2@@std@@QAE_NI_N@Z ; std::basic_string<char,std::char_traits<char>,std::allocator<char> >::_Grow
	movzx	eax, al
	test	eax, eax
	je	SHORT $LN2@assign

; 1114 : 			{	// make room and assign new stuff
; 1115 : 			_Traits::copy(this->_Myptr(),
; 1116 : 				_Right._Myptr() + _Roff, _Num);

	mov	ecx, DWORD PTR __Num$[ebp]
	push	ecx
	mov	ecx, DWORD PTR __Right$[ebp]
	call	?_Myptr@?$_String_val@U?$_Simple_types@D@std@@@std@@QBEPBDXZ ; std::_String_val<std::_Simple_types<char> >::_Myptr
	add	eax, DWORD PTR __Roff$[ebp]
	push	eax
	mov	ecx, DWORD PTR _this$[ebp]
	call	?_Myptr@?$_String_val@U?$_Simple_types@D@std@@@std@@QAEPADXZ ; std::_String_val<std::_Simple_types<char> >::_Myptr
	push	eax
	call	?copy@?$char_traits@D@std@@SAPADPADPBDI@Z ; std::char_traits<char>::copy
	add	esp, 12					; 0000000cH

; 1117 : 			_Eos(_Num);

	mov	edx, DWORD PTR __Num$[ebp]
	push	edx
	mov	ecx, DWORD PTR _this$[ebp]
	call	?_Eos@?$basic_string@DU?$char_traits@D@std@@V?$allocator@D@2@@std@@QAEXI@Z ; std::basic_string<char,std::char_traits<char>,std::allocator<char> >::_Eos
$LN2@assign:

; 1118 : 			}
; 1119 : 		return (*this);

	mov	eax, DWORD PTR _this$[ebp]
$LN7@assign:

; 1120 : 		}

	mov	esp, ebp
	pop	ebp
	ret	12					; 0000000cH
?assign@?$basic_string@DU?$char_traits@D@std@@V?$allocator@D@2@@std@@QAEAAV12@ABV12@II@Z ENDP ; std::basic_string<char,std::char_traits<char>,std::allocator<char> >::assign
_TEXT	ENDS
; Function compile flags: /Odtp
; File c:\program files (x86)\microsoft visual studio 11.0\vc\include\xstring
;	COMDAT ??0?$basic_string@DU?$char_traits@D@std@@V?$allocator@D@2@@std@@QAE@PBD@Z
_TEXT	SEGMENT
_this$ = -8						; size = 4
$T1 = -1						; size = 1
__Ptr$ = 8						; size = 4
??0?$basic_string@DU?$char_traits@D@std@@V?$allocator@D@2@@std@@QAE@PBD@Z PROC ; std::basic_string<char,std::char_traits<char>,std::allocator<char> >::basic_string<char,std::char_traits<char>,std::allocator<char> >, COMDAT
; _this$ = ecx

; 791  : 		{	// construct from [_Ptr, <null>)

	push	ebp
	mov	ebp, esp
	sub	esp, 8
	mov	DWORD PTR _this$[ebp], ecx
	lea	ecx, DWORD PTR $T1[ebp]
	call	??0?$allocator@D@std@@QAE@XZ		; std::allocator<char>::allocator<char>
	push	eax
	mov	ecx, DWORD PTR _this$[ebp]
	call	??0?$_String_alloc@$0A@U?$_String_base_types@DV?$allocator@D@std@@@std@@@std@@QAE@ABV?$allocator@D@1@@Z ; std::_String_alloc<0,std::_String_base_types<char,std::allocator<char> > >::_String_alloc<0,std::_String_base_types<char,std::allocator<char> > >

; 792  : 		_Tidy();

	push	0
	push	0
	mov	ecx, DWORD PTR _this$[ebp]
	call	?_Tidy@?$basic_string@DU?$char_traits@D@std@@V?$allocator@D@2@@std@@QAEX_NI@Z ; std::basic_string<char,std::char_traits<char>,std::allocator<char> >::_Tidy

; 793  : 		assign(_Ptr);

	mov	eax, DWORD PTR __Ptr$[ebp]
	push	eax
	mov	ecx, DWORD PTR _this$[ebp]
	call	?assign@?$basic_string@DU?$char_traits@D@std@@V?$allocator@D@2@@std@@QAEAAV12@PBD@Z ; std::basic_string<char,std::char_traits<char>,std::allocator<char> >::assign

; 794  : 		}

	mov	eax, DWORD PTR _this$[ebp]
	mov	esp, ebp
	pop	ebp
	ret	4
??0?$basic_string@DU?$char_traits@D@std@@V?$allocator@D@2@@std@@QAE@PBD@Z ENDP ; std::basic_string<char,std::char_traits<char>,std::allocator<char> >::basic_string<char,std::char_traits<char>,std::allocator<char> >
_TEXT	ENDS
; Function compile flags: /Odtp
; File c:\program files (x86)\microsoft visual studio 11.0\vc\include\xstring
;	COMDAT ?_Getal@?$_String_alloc@$0A@U?$_String_base_types@DV?$allocator@D@std@@@std@@@std@@QBE?AU?$_Wrap_alloc@V?$allocator@D@std@@@2@XZ
_TEXT	SEGMENT
_this$ = -4						; size = 4
___$ReturnUdt$ = 8					; size = 4
?_Getal@?$_String_alloc@$0A@U?$_String_base_types@DV?$allocator@D@std@@@std@@@std@@QBE?AU?$_Wrap_alloc@V?$allocator@D@std@@@2@XZ PROC ; std::_String_alloc<0,std::_String_base_types<char,std::allocator<char> > >::_Getal, COMDAT
; _this$ = ecx

; 688  : 		{	// get reference to allocator

	push	ebp
	mov	ebp, esp
	push	ecx
	mov	DWORD PTR _this$[ebp], ecx

; 689  : 		return (_Alty());

	mov	ecx, DWORD PTR ___$ReturnUdt$[ebp]
	call	??0?$_Wrap_alloc@V?$allocator@D@std@@@std@@QAE@XZ ; std::_Wrap_alloc<std::allocator<char> >::_Wrap_alloc<std::allocator<char> >
	mov	eax, DWORD PTR ___$ReturnUdt$[ebp]

; 690  : 		}

	mov	esp, ebp
	pop	ebp
	ret	4
?_Getal@?$_String_alloc@$0A@U?$_String_base_types@DV?$allocator@D@std@@@std@@@std@@QBE?AU?$_Wrap_alloc@V?$allocator@D@std@@@2@XZ ENDP ; std::_String_alloc<0,std::_String_base_types<char,std::allocator<char> > >::_Getal
_TEXT	ENDS
; Function compile flags: /Odtp
; File c:\program files (x86)\microsoft visual studio 11.0\vc\include\xstring
;	COMDAT ??0?$_String_alloc@$0A@U?$_String_base_types@DV?$allocator@D@std@@@std@@@std@@QAE@ABV?$allocator@D@1@@Z
_TEXT	SEGMENT
_this$ = -4						; size = 4
___formal$ = 8						; size = 4
??0?$_String_alloc@$0A@U?$_String_base_types@DV?$allocator@D@std@@@std@@@std@@QAE@ABV?$allocator@D@1@@Z PROC ; std::_String_alloc<0,std::_String_base_types<char,std::allocator<char> > >::_String_alloc<0,std::_String_base_types<char,std::allocator<char> > >, COMDAT
; _this$ = ecx

; 635  : 	_String_alloc(const _Alloc& = _Alloc())

	push	ebp
	mov	ebp, esp
	push	ecx
	mov	DWORD PTR _this$[ebp], ecx
	mov	ecx, DWORD PTR _this$[ebp]
	call	??0?$_String_val@U?$_Simple_types@D@std@@@std@@QAE@XZ ; std::_String_val<std::_Simple_types<char> >::_String_val<std::_Simple_types<char> >

; 636  : 		{	// construct allocator from _Al
; 637  : 		}

	mov	eax, DWORD PTR _this$[ebp]
	mov	esp, ebp
	pop	ebp
	ret	4
??0?$_String_alloc@$0A@U?$_String_base_types@DV?$allocator@D@std@@@std@@@std@@QAE@ABV?$allocator@D@1@@Z ENDP ; std::_String_alloc<0,std::_String_base_types<char,std::allocator<char> > >::_String_alloc<0,std::_String_base_types<char,std::allocator<char> > >
_TEXT	ENDS
; Function compile flags: /Odtp
; File c:\program files (x86)\microsoft visual studio 11.0\vc\include\xstring
;	COMDAT ?_Myptr@?$_String_val@U?$_Simple_types@D@std@@@std@@QBEPBDXZ
_TEXT	SEGMENT
tv72 = -8						; size = 4
_this$ = -4						; size = 4
?_Myptr@?$_String_val@U?$_Simple_types@D@std@@@std@@QBEPBDXZ PROC ; std::_String_val<std::_Simple_types<char> >::_Myptr, COMDAT
; _this$ = ecx

; 521  : 		{	// determine current pointer to buffer for nonmutable string

	push	ebp
	mov	ebp, esp
	sub	esp, 8
	mov	DWORD PTR _this$[ebp], ecx

; 522  : 		return (this->_BUF_SIZE <= this->_Myres
; 523  : 			? _STD addressof(*this->_Bx._Ptr)
; 524  : 			: this->_Bx._Buf);

	mov	eax, DWORD PTR _this$[ebp]
	cmp	DWORD PTR [eax+20], 16			; 00000010H
	jb	SHORT $LN3@Myptr
	mov	ecx, DWORD PTR _this$[ebp]
	mov	edx, DWORD PTR [ecx]
	push	edx
	call	??$addressof@D@std@@YAPADAAD@Z		; std::addressof<char>
	add	esp, 4
	mov	DWORD PTR tv72[ebp], eax
	jmp	SHORT $LN4@Myptr
$LN3@Myptr:
	mov	eax, DWORD PTR _this$[ebp]
	mov	DWORD PTR tv72[ebp], eax
$LN4@Myptr:
	mov	eax, DWORD PTR tv72[ebp]

; 525  : 		}

	mov	esp, ebp
	pop	ebp
	ret	0
?_Myptr@?$_String_val@U?$_Simple_types@D@std@@@std@@QBEPBDXZ ENDP ; std::_String_val<std::_Simple_types<char> >::_Myptr
_TEXT	ENDS
; Function compile flags: /Odtp
; File c:\program files (x86)\microsoft visual studio 11.0\vc\include\xstring
;	COMDAT ?_Myptr@?$_String_val@U?$_Simple_types@D@std@@@std@@QAEPADXZ
_TEXT	SEGMENT
tv72 = -8						; size = 4
_this$ = -4						; size = 4
?_Myptr@?$_String_val@U?$_Simple_types@D@std@@@std@@QAEPADXZ PROC ; std::_String_val<std::_Simple_types<char> >::_Myptr, COMDAT
; _this$ = ecx

; 514  : 		{	// determine current pointer to buffer for mutable string

	push	ebp
	mov	ebp, esp
	sub	esp, 8
	mov	DWORD PTR _this$[ebp], ecx

; 515  : 		return (this->_BUF_SIZE <= this->_Myres
; 516  : 			? _STD addressof(*this->_Bx._Ptr)
; 517  : 			: this->_Bx._Buf);

	mov	eax, DWORD PTR _this$[ebp]
	cmp	DWORD PTR [eax+20], 16			; 00000010H
	jb	SHORT $LN3@Myptr
	mov	ecx, DWORD PTR _this$[ebp]
	mov	edx, DWORD PTR [ecx]
	push	edx
	call	??$addressof@D@std@@YAPADAAD@Z		; std::addressof<char>
	add	esp, 4
	mov	DWORD PTR tv72[ebp], eax
	jmp	SHORT $LN4@Myptr
$LN3@Myptr:
	mov	eax, DWORD PTR _this$[ebp]
	mov	DWORD PTR tv72[ebp], eax
$LN4@Myptr:
	mov	eax, DWORD PTR tv72[ebp]

; 518  : 		}

	mov	esp, ebp
	pop	ebp
	ret	0
?_Myptr@?$_String_val@U?$_Simple_types@D@std@@@std@@QAEPADXZ ENDP ; std::_String_val<std::_Simple_types<char> >::_Myptr
_TEXT	ENDS
; Function compile flags: /Odtp
; File c:\program files (x86)\microsoft visual studio 11.0\vc\include\xstring
;	COMDAT ??0?$_String_val@U?$_Simple_types@D@std@@@std@@QAE@XZ
_TEXT	SEGMENT
_this$ = -4						; size = 4
??0?$_String_val@U?$_Simple_types@D@std@@@std@@QAE@XZ PROC ; std::_String_val<std::_Simple_types<char> >::_String_val<std::_Simple_types<char> >, COMDAT
; _this$ = ecx

; 496  : 	_String_val()

	push	ebp
	mov	ebp, esp
	push	ecx
	mov	DWORD PTR _this$[ebp], ecx

; 497  : 		{	// initialize values
; 498  : 		_Mysize = 0;

	mov	eax, DWORD PTR _this$[ebp]
	mov	DWORD PTR [eax+16], 0

; 499  : 		_Myres = 0;

	mov	ecx, DWORD PTR _this$[ebp]
	mov	DWORD PTR [ecx+20], 0

; 500  : 		}

	mov	eax, DWORD PTR _this$[ebp]
	mov	esp, ebp
	pop	ebp
	ret	0
??0?$_String_val@U?$_Simple_types@D@std@@@std@@QAE@XZ ENDP ; std::_String_val<std::_Simple_types<char> >::_String_val<std::_Simple_types<char> >
_TEXT	ENDS
; Function compile flags: /Odtp
; File c:\program files (x86)\microsoft visual studio 11.0\vc\include\xmemory0
;	COMDAT ?max_size@?$_Wrap_alloc@V?$allocator@D@std@@@std@@QBEIXZ
_TEXT	SEGMENT
_this$ = -4						; size = 4
?max_size@?$_Wrap_alloc@V?$allocator@D@std@@@std@@QBEIXZ PROC ; std::_Wrap_alloc<std::allocator<char> >::max_size, COMDAT
; _this$ = ecx

; 913  : 		{	// get maximum size

	push	ebp
	mov	ebp, esp
	push	ecx
	mov	DWORD PTR _this$[ebp], ecx

; 914  : 		return (_Mytraits::max_size(*this));

	mov	eax, DWORD PTR _this$[ebp]
	push	eax
	call	?max_size@?$allocator_traits@V?$allocator@D@std@@@std@@SAIABV?$allocator@D@2@@Z ; std::allocator_traits<std::allocator<char> >::max_size
	add	esp, 4

; 915  : 		}

	mov	esp, ebp
	pop	ebp
	ret	0
?max_size@?$_Wrap_alloc@V?$allocator@D@std@@@std@@QBEIXZ ENDP ; std::_Wrap_alloc<std::allocator<char> >::max_size
_TEXT	ENDS
; Function compile flags: /Odtp
; File c:\program files (x86)\microsoft visual studio 11.0\vc\include\xmemory0
;	COMDAT ?deallocate@?$_Wrap_alloc@V?$allocator@D@std@@@std@@QAEXPADI@Z
_TEXT	SEGMENT
_this$ = -4						; size = 4
__Ptr$ = 8						; size = 4
__Count$ = 12						; size = 4
?deallocate@?$_Wrap_alloc@V?$allocator@D@std@@@std@@QAEXPADI@Z PROC ; std::_Wrap_alloc<std::allocator<char> >::deallocate, COMDAT
; _this$ = ecx

; 886  : 		{	// deallocate object at _Ptr, ignore size

	push	ebp
	mov	ebp, esp
	push	ecx
	mov	DWORD PTR _this$[ebp], ecx

; 887  : 		_Mybase::deallocate(_Ptr, _Count);

	mov	eax, DWORD PTR __Count$[ebp]
	push	eax
	mov	ecx, DWORD PTR __Ptr$[ebp]
	push	ecx
	mov	ecx, DWORD PTR _this$[ebp]
	call	?deallocate@?$allocator@D@std@@QAEXPADI@Z ; std::allocator<char>::deallocate

; 888  : 		}

	mov	esp, ebp
	pop	ebp
	ret	8
?deallocate@?$_Wrap_alloc@V?$allocator@D@std@@@std@@QAEXPADI@Z ENDP ; std::_Wrap_alloc<std::allocator<char> >::deallocate
_TEXT	ENDS
; Function compile flags: /Odtp
; File c:\program files (x86)\microsoft visual studio 11.0\vc\include\xmemory0
;	COMDAT ?allocate@?$_Wrap_alloc@V?$allocator@D@std@@@std@@QAEPADI@Z
_TEXT	SEGMENT
_this$ = -4						; size = 4
__Count$ = 8						; size = 4
?allocate@?$_Wrap_alloc@V?$allocator@D@std@@@std@@QAEPADI@Z PROC ; std::_Wrap_alloc<std::allocator<char> >::allocate, COMDAT
; _this$ = ecx

; 875  : 		{	// allocate array of _Count elements

	push	ebp
	mov	ebp, esp
	push	ecx
	mov	DWORD PTR _this$[ebp], ecx

; 876  : 		return (_Mybase::allocate(_Count));

	mov	eax, DWORD PTR __Count$[ebp]
	push	eax
	mov	ecx, DWORD PTR _this$[ebp]
	call	?allocate@?$allocator@D@std@@QAEPADI@Z	; std::allocator<char>::allocate

; 877  : 		}

	mov	esp, ebp
	pop	ebp
	ret	4
?allocate@?$_Wrap_alloc@V?$allocator@D@std@@@std@@QAEPADI@Z ENDP ; std::_Wrap_alloc<std::allocator<char> >::allocate
_TEXT	ENDS
; Function compile flags: /Odtp
; File c:\program files (x86)\microsoft visual studio 11.0\vc\include\xmemory0
;	COMDAT ??0?$_Wrap_alloc@V?$allocator@D@std@@@std@@QAE@XZ
_TEXT	SEGMENT
_this$ = -4						; size = 4
??0?$_Wrap_alloc@V?$allocator@D@std@@@std@@QAE@XZ PROC	; std::_Wrap_alloc<std::allocator<char> >::_Wrap_alloc<std::allocator<char> >, COMDAT
; _this$ = ecx

; 830  : 		{	// construct default allocator (do nothing)

	push	ebp
	mov	ebp, esp
	push	ecx
	mov	DWORD PTR _this$[ebp], ecx
	mov	ecx, DWORD PTR _this$[ebp]
	call	??0?$allocator@D@std@@QAE@XZ		; std::allocator<char>::allocator<char>

; 831  : 		}

	mov	eax, DWORD PTR _this$[ebp]
	mov	esp, ebp
	pop	ebp
	ret	0
??0?$_Wrap_alloc@V?$allocator@D@std@@@std@@QAE@XZ ENDP	; std::_Wrap_alloc<std::allocator<char> >::_Wrap_alloc<std::allocator<char> >
_TEXT	ENDS
; Function compile flags: /Odtp
; File c:\program files (x86)\microsoft visual studio 11.0\vc\include\xmemory0
;	COMDAT ?max_size@?$allocator_traits@V?$allocator@D@std@@@std@@SAIABV?$allocator@D@2@@Z
_TEXT	SEGMENT
__Al$ = 8						; size = 4
?max_size@?$allocator_traits@V?$allocator@D@std@@@std@@SAIABV?$allocator@D@2@@Z PROC ; std::allocator_traits<std::allocator<char> >::max_size, COMDAT

; 761  : 		{	// get maximum size

	push	ebp
	mov	ebp, esp

; 762  : 		return (_Al.max_size());

	mov	ecx, DWORD PTR __Al$[ebp]
	call	?max_size@?$allocator@D@std@@QBEIXZ	; std::allocator<char>::max_size

; 763  : 		}

	pop	ebp
	ret	0
?max_size@?$allocator_traits@V?$allocator@D@std@@@std@@SAIABV?$allocator@D@2@@Z ENDP ; std::allocator_traits<std::allocator<char> >::max_size
_TEXT	ENDS
; Function compile flags: /Odtp
; File c:\program files (x86)\microsoft visual studio 11.0\vc\include\xmemory0
;	COMDAT ?max_size@?$allocator@D@std@@QBEIXZ
_TEXT	SEGMENT
_this$ = -4						; size = 4
?max_size@?$allocator@D@std@@QBEIXZ PROC		; std::allocator<char>::max_size, COMDAT
; _this$ = ecx

; 627  : 		{	// estimate maximum array size

	push	ebp
	mov	ebp, esp
	push	ecx
	mov	DWORD PTR _this$[ebp], ecx

; 628  : 		return ((size_t)(-1) / sizeof (_Ty));

	or	eax, -1

; 629  : 		}

	mov	esp, ebp
	pop	ebp
	ret	0
?max_size@?$allocator@D@std@@QBEIXZ ENDP		; std::allocator<char>::max_size
_TEXT	ENDS
; Function compile flags: /Odtp
; File c:\program files (x86)\microsoft visual studio 11.0\vc\include\xmemory0
;	COMDAT ?allocate@?$allocator@D@std@@QAEPADI@Z
_TEXT	SEGMENT
_this$ = -4						; size = 4
__Count$ = 8						; size = 4
?allocate@?$allocator@D@std@@QAEPADI@Z PROC		; std::allocator<char>::allocate, COMDAT
; _this$ = ecx

; 590  : 		{	// allocate array of _Count elements

	push	ebp
	mov	ebp, esp
	push	ecx
	mov	DWORD PTR _this$[ebp], ecx

; 591  : 		return (_Allocate(_Count, (pointer)0));

	push	0
	mov	eax, DWORD PTR __Count$[ebp]
	push	eax
	call	??$_Allocate@D@std@@YAPADIPAD@Z		; std::_Allocate<char>
	add	esp, 8

; 592  : 		}

	mov	esp, ebp
	pop	ebp
	ret	4
?allocate@?$allocator@D@std@@QAEPADI@Z ENDP		; std::allocator<char>::allocate
_TEXT	ENDS
; Function compile flags: /Odtp
; File c:\program files (x86)\microsoft visual studio 11.0\vc\include\xmemory0
;	COMDAT ?deallocate@?$allocator@D@std@@QAEXPADI@Z
_TEXT	SEGMENT
_this$ = -4						; size = 4
__Ptr$ = 8						; size = 4
___formal$ = 12						; size = 4
?deallocate@?$allocator@D@std@@QAEXPADI@Z PROC		; std::allocator<char>::deallocate, COMDAT
; _this$ = ecx

; 585  : 		{	// deallocate object at _Ptr, ignore size

	push	ebp
	mov	ebp, esp
	push	ecx
	mov	DWORD PTR _this$[ebp], ecx

; 586  : 		::operator delete(_Ptr);

	mov	eax, DWORD PTR __Ptr$[ebp]
	push	eax
	call	??3@YAXPAX@Z				; operator delete
	add	esp, 4

; 587  : 		}

	mov	esp, ebp
	pop	ebp
	ret	8
?deallocate@?$allocator@D@std@@QAEXPADI@Z ENDP		; std::allocator<char>::deallocate
_TEXT	ENDS
; Function compile flags: /Odtp
; File c:\program files (x86)\microsoft visual studio 11.0\vc\include\xmemory0
;	COMDAT ??0?$allocator@D@std@@QAE@XZ
_TEXT	SEGMENT
_this$ = -4						; size = 4
??0?$allocator@D@std@@QAE@XZ PROC			; std::allocator<char>::allocator<char>, COMDAT
; _this$ = ecx

; 565  : 	allocator() _THROW0()

	push	ebp
	mov	ebp, esp
	push	ecx
	mov	DWORD PTR _this$[ebp], ecx

; 566  : 		{	// construct default allocator (do nothing)
; 567  : 		}

	mov	eax, DWORD PTR _this$[ebp]
	mov	esp, ebp
	pop	ebp
	ret	0
??0?$allocator@D@std@@QAE@XZ ENDP			; std::allocator<char>::allocator<char>
_TEXT	ENDS
; Function compile flags: /Odtp
; File c:\program files (x86)\microsoft visual studio 11.0\vc\include\xutility
;	COMDAT ??__Eallocator_arg@std@@YAXXZ
text$yc	SEGMENT
$T1 = -1						; size = 1
??__Eallocator_arg@std@@YAXXZ PROC			; std::`dynamic initializer for 'allocator_arg'', COMDAT

; 3644 : const allocator_arg_t allocator_arg = allocator_arg_t();

	push	ebp
	mov	ebp, esp
	push	ecx
	xor	eax, eax
	mov	BYTE PTR $T1[ebp], al
	mov	esp, ebp
	pop	ebp
	ret	0
??__Eallocator_arg@std@@YAXXZ ENDP			; std::`dynamic initializer for 'allocator_arg''
text$yc	ENDS
; Function compile flags: /Odtp
; File c:\program files (x86)\microsoft visual studio 11.0\vc\include\utility
;	COMDAT ??__Epiecewise_construct@std@@YAXXZ
text$yc	SEGMENT
$T1 = -1						; size = 1
??__Epiecewise_construct@std@@YAXXZ PROC		; std::`dynamic initializer for 'piecewise_construct'', COMDAT

; 65   : 	piecewise_construct_t();

	push	ebp
	mov	ebp, esp
	push	ecx
	xor	eax, eax
	mov	BYTE PTR $T1[ebp], al
	mov	esp, ebp
	pop	ebp
	ret	0
??__Epiecewise_construct@std@@YAXXZ ENDP		; std::`dynamic initializer for 'piecewise_construct''
text$yc	ENDS
; Function compile flags: /Odtp
; File c:\program files (x86)\microsoft visual studio 11.0\vc\include\iosfwd
;	COMDAT ?assign@?$char_traits@D@std@@SAXAADABD@Z
_TEXT	SEGMENT
__Left$ = 8						; size = 4
__Right$ = 12						; size = 4
?assign@?$char_traits@D@std@@SAXAADABD@Z PROC		; std::char_traits<char>::assign, COMDAT

; 563  : 		{	// assign an element

	push	ebp
	mov	ebp, esp

; 564  : 		_Left = _Right;

	mov	eax, DWORD PTR __Left$[ebp]
	mov	ecx, DWORD PTR __Right$[ebp]
	mov	dl, BYTE PTR [ecx]
	mov	BYTE PTR [eax], dl

; 565  : 		}

	pop	ebp
	ret	0
?assign@?$char_traits@D@std@@SAXAADABD@Z ENDP		; std::char_traits<char>::assign
_TEXT	ENDS
; Function compile flags: /Odtp
; File c:\program files (x86)\microsoft visual studio 11.0\vc\include\iosfwd
;	COMDAT ?move@?$char_traits@D@std@@SAPADPADPBDI@Z
_TEXT	SEGMENT
tv69 = -4						; size = 4
__First1$ = 8						; size = 4
__First2$ = 12						; size = 4
__Count$ = 16						; size = 4
?move@?$char_traits@D@std@@SAPADPADPBDI@Z PROC		; std::char_traits<char>::move, COMDAT

; 551  : 		{	// copy [_First2, _First2 + _Count) to [_First1, ...)

	push	ebp
	mov	ebp, esp
	push	ecx

; 552  : 		return (_Count == 0 ? _First1
; 553  : 			: (_Elem *)_CSTD memmove(_First1, _First2, _Count));

	cmp	DWORD PTR __Count$[ebp], 0
	jne	SHORT $LN3@move
	mov	eax, DWORD PTR __First1$[ebp]
	mov	DWORD PTR tv69[ebp], eax
	jmp	SHORT $LN4@move
$LN3@move:
	mov	ecx, DWORD PTR __Count$[ebp]
	push	ecx
	mov	edx, DWORD PTR __First2$[ebp]
	push	edx
	mov	eax, DWORD PTR __First1$[ebp]
	push	eax
	call	_memmove
	add	esp, 12					; 0000000cH
	mov	DWORD PTR tv69[ebp], eax
$LN4@move:
	mov	eax, DWORD PTR tv69[ebp]

; 554  : 		}

	mov	esp, ebp
	pop	ebp
	ret	0
?move@?$char_traits@D@std@@SAPADPADPBDI@Z ENDP		; std::char_traits<char>::move
_TEXT	ENDS
; Function compile flags: /Odtp
; File c:\program files (x86)\microsoft visual studio 11.0\vc\include\iosfwd
;	COMDAT ?copy@?$char_traits@D@std@@SAPADPADPBDI@Z
_TEXT	SEGMENT
tv69 = -4						; size = 4
__First1$ = 8						; size = 4
__First2$ = 12						; size = 4
__Count$ = 16						; size = 4
?copy@?$char_traits@D@std@@SAPADPADPBDI@Z PROC		; std::char_traits<char>::copy, COMDAT

; 528  : 		{	// copy [_First2, _First2 + _Count) to [_First1, ...)

	push	ebp
	mov	ebp, esp
	push	ecx

; 529  : 		return (_Count == 0 ? _First1
; 530  : 			: (_Elem *)_CSTD memcpy(_First1, _First2, _Count));

	cmp	DWORD PTR __Count$[ebp], 0
	jne	SHORT $LN3@copy
	mov	eax, DWORD PTR __First1$[ebp]
	mov	DWORD PTR tv69[ebp], eax
	jmp	SHORT $LN4@copy
$LN3@copy:
	mov	ecx, DWORD PTR __Count$[ebp]
	push	ecx
	mov	edx, DWORD PTR __First2$[ebp]
	push	edx
	mov	eax, DWORD PTR __First1$[ebp]
	push	eax
	call	_memcpy
	add	esp, 12					; 0000000cH
	mov	DWORD PTR tv69[ebp], eax
$LN4@copy:
	mov	eax, DWORD PTR tv69[ebp]

; 531  : 		}

	mov	esp, ebp
	pop	ebp
	ret	0
?copy@?$char_traits@D@std@@SAPADPADPBDI@Z ENDP		; std::char_traits<char>::copy
_TEXT	ENDS
; Function compile flags: /Odtp
; File c:\program files (x86)\microsoft visual studio 11.0\vc\include\iosfwd
;	COMDAT ?length@?$char_traits@D@std@@SAIPBD@Z
_TEXT	SEGMENT
tv68 = -4						; size = 4
__First$ = 8						; size = 4
?length@?$char_traits@D@std@@SAIPBD@Z PROC		; std::char_traits<char>::length, COMDAT

; 521  : 		{	// find length of null-terminated string

	push	ebp
	mov	ebp, esp
	push	ecx

; 522  : 		return (*_First == 0 ? 0
; 523  : 			: _CSTD strlen(_First));

	mov	eax, DWORD PTR __First$[ebp]
	movsx	ecx, BYTE PTR [eax]
	test	ecx, ecx
	jne	SHORT $LN3@length
	mov	DWORD PTR tv68[ebp], 0
	jmp	SHORT $LN4@length
$LN3@length:
	mov	edx, DWORD PTR __First$[ebp]
	push	edx
	call	_strlen
	add	esp, 4
	mov	DWORD PTR tv68[ebp], eax
$LN4@length:
	mov	eax, DWORD PTR tv68[ebp]

; 524  : 		}

	mov	esp, ebp
	pop	ebp
	ret	0
?length@?$char_traits@D@std@@SAIPBD@Z ENDP		; std::char_traits<char>::length
_TEXT	ENDS
; Function compile flags: /Odtp
; File c:\program files (x86)\microsoft visual studio 11.0\vc\include\new
;	COMDAT ??3@YAXPAX0@Z
_TEXT	SEGMENT
___formal$ = 8						; size = 4
___formal$ = 12						; size = 4
??3@YAXPAX0@Z PROC					; operator delete, COMDAT

; 64   : 	{	// delete if placement new fails

	push	ebp
	mov	ebp, esp

; 65   : 	}

	pop	ebp
	ret	0
??3@YAXPAX0@Z ENDP					; operator delete
_TEXT	ENDS
; Function compile flags: /Odtp
; File c:\program files (x86)\microsoft visual studio 11.0\vc\include\new
;	COMDAT ??2@YAPAXIPAX@Z
_TEXT	SEGMENT
___formal$ = 8						; size = 4
__Where$ = 12						; size = 4
??2@YAPAXIPAX@Z PROC					; operator new, COMDAT

; 59   : 	{	// construct array with placement at _Where

	push	ebp
	mov	ebp, esp

; 60   : 	return (_Where);

	mov	eax, DWORD PTR __Where$[ebp]

; 61   : 	}

	pop	ebp
	ret	0
??2@YAPAXIPAX@Z ENDP					; operator new
_TEXT	ENDS
END
