; Listing generated by Microsoft (R) Optimizing Compiler Version 17.00.51106.1 

	TITLE	C:\Users\Zhitao Li\Documents\Visual Studio 2012\Projects\Freefalcon\UI\SRC\campaign\cmap.cpp
	.686P
	.XMM
	include listing.inc
	.model	flat

INCLUDELIB LIBCMT
INCLUDELIB OLDNAMES

PUBLIC	?boolalpha@?$_Iosb@H@std@@2W4_Fmtflags@12@B	; std::_Iosb<int>::boolalpha
PUBLIC	?_Stdio@?$_Iosb@H@std@@2W4_Fmtflags@12@B	; std::_Iosb<int>::_Stdio
PUBLIC	?adjustfield@?$_Iosb@H@std@@2W4_Fmtflags@12@B	; std::_Iosb<int>::adjustfield
PUBLIC	?basefield@?$_Iosb@H@std@@2W4_Fmtflags@12@B	; std::_Iosb<int>::basefield
PUBLIC	?floatfield@?$_Iosb@H@std@@2W4_Fmtflags@12@B	; std::_Iosb<int>::floatfield
PUBLIC	?goodbit@?$_Iosb@H@std@@2W4_Iostate@12@B	; std::_Iosb<int>::goodbit
PUBLIC	?eofbit@?$_Iosb@H@std@@2W4_Iostate@12@B		; std::_Iosb<int>::eofbit
PUBLIC	?failbit@?$_Iosb@H@std@@2W4_Iostate@12@B	; std::_Iosb<int>::failbit
PUBLIC	?is_signed@?$numeric_limits@K@std@@2_NB		; std::numeric_limits<unsigned long>::is_signed
PUBLIC	?badbit@?$_Iosb@H@std@@2W4_Iostate@12@B		; std::_Iosb<int>::badbit
PUBLIC	?digits@?$numeric_limits@K@std@@2HB		; std::numeric_limits<unsigned long>::digits
PUBLIC	?_Hardfail@?$_Iosb@H@std@@2W4_Iostate@12@B	; std::_Iosb<int>::_Hardfail
PUBLIC	?digits10@?$numeric_limits@K@std@@2HB		; std::numeric_limits<unsigned long>::digits10
PUBLIC	?in@?$_Iosb@H@std@@2W4_Openmode@12@B		; std::_Iosb<int>::in
PUBLIC	?out@?$_Iosb@H@std@@2W4_Openmode@12@B		; std::_Iosb<int>::out
PUBLIC	?ate@?$_Iosb@H@std@@2W4_Openmode@12@B		; std::_Iosb<int>::ate
PUBLIC	?app@?$_Iosb@H@std@@2W4_Openmode@12@B		; std::_Iosb<int>::app
PUBLIC	?trunc@?$_Iosb@H@std@@2W4_Openmode@12@B		; std::_Iosb<int>::trunc
PUBLIC	?_Nocreate@?$_Iosb@H@std@@2W4_Openmode@12@B	; std::_Iosb<int>::_Nocreate
PUBLIC	?_Noreplace@?$_Iosb@H@std@@2W4_Openmode@12@B	; std::_Iosb<int>::_Noreplace
PUBLIC	?binary@?$_Iosb@H@std@@2W4_Openmode@12@B	; std::_Iosb<int>::binary
PUBLIC	?beg@?$_Iosb@H@std@@2W4_Seekdir@12@B		; std::_Iosb<int>::beg
PUBLIC	?cur@?$_Iosb@H@std@@2W4_Seekdir@12@B		; std::_Iosb<int>::cur
PUBLIC	?is_signed@?$numeric_limits@_J@std@@2_NB	; std::numeric_limits<__int64>::is_signed
PUBLIC	?end@?$_Iosb@H@std@@2W4_Seekdir@12@B		; std::_Iosb<int>::end
PUBLIC	?digits@?$numeric_limits@_J@std@@2HB		; std::numeric_limits<__int64>::digits
PUBLIC	?digits10@?$numeric_limits@_J@std@@2HB		; std::numeric_limits<__int64>::digits10
PUBLIC	?_Stream_err@failure@ios_base@std@@0W4io_errc@43@B ; std::ios_base::failure::_Stream_err
PUBLIC	?is_signed@?$numeric_limits@_K@std@@2_NB	; std::numeric_limits<unsigned __int64>::is_signed
PUBLIC	?digits@?$numeric_limits@_K@std@@2HB		; std::numeric_limits<unsigned __int64>::digits
PUBLIC	?digits10@?$numeric_limits@_K@std@@2HB		; std::numeric_limits<unsigned __int64>::digits10
PUBLIC	?digits@?$numeric_limits@M@std@@2HB		; std::numeric_limits<float>::digits
PUBLIC	?digits10@?$numeric_limits@M@std@@2HB		; std::numeric_limits<float>::digits10
PUBLIC	?max_digits10@?$numeric_limits@M@std@@2HB	; std::numeric_limits<float>::max_digits10
PUBLIC	?max_exponent@?$numeric_limits@M@std@@2HB	; std::numeric_limits<float>::max_exponent
PUBLIC	?max_exponent10@?$numeric_limits@M@std@@2HB	; std::numeric_limits<float>::max_exponent10
PUBLIC	?min_exponent@?$numeric_limits@M@std@@2HB	; std::numeric_limits<float>::min_exponent
PUBLIC	?min_exponent10@?$numeric_limits@M@std@@2HB	; std::numeric_limits<float>::min_exponent10
PUBLIC	?value@?$integral_constant@I$0A@@std@@2IB	; std::integral_constant<unsigned int,0>::value
PUBLIC	?digits@?$numeric_limits@N@std@@2HB		; std::numeric_limits<double>::digits
PUBLIC	?digits10@?$numeric_limits@N@std@@2HB		; std::numeric_limits<double>::digits10
PUBLIC	?max_digits10@?$numeric_limits@N@std@@2HB	; std::numeric_limits<double>::max_digits10
PUBLIC	?max_exponent@?$numeric_limits@N@std@@2HB	; std::numeric_limits<double>::max_exponent
PUBLIC	?max_exponent10@?$numeric_limits@N@std@@2HB	; std::numeric_limits<double>::max_exponent10
PUBLIC	?min_exponent@?$numeric_limits@N@std@@2HB	; std::numeric_limits<double>::min_exponent
PUBLIC	?min_exponent10@?$numeric_limits@N@std@@2HB	; std::numeric_limits<double>::min_exponent10
PUBLIC	?digits@?$numeric_limits@O@std@@2HB		; std::numeric_limits<long double>::digits
PUBLIC	?digits10@?$numeric_limits@O@std@@2HB		; std::numeric_limits<long double>::digits10
PUBLIC	?max_digits10@?$numeric_limits@O@std@@2HB	; std::numeric_limits<long double>::max_digits10
PUBLIC	?max_exponent@?$numeric_limits@O@std@@2HB	; std::numeric_limits<long double>::max_exponent
PUBLIC	?max_exponent10@?$numeric_limits@O@std@@2HB	; std::numeric_limits<long double>::max_exponent10
PUBLIC	?min_exponent@?$numeric_limits@O@std@@2HB	; std::numeric_limits<long double>::min_exponent
PUBLIC	?min_exponent10@?$numeric_limits@O@std@@2HB	; std::numeric_limits<long double>::min_exponent10
PUBLIC	?collate@?$_Locbase@H@std@@2HB			; std::_Locbase<int>::collate
PUBLIC	?ctype@?$_Locbase@H@std@@2HB			; std::_Locbase<int>::ctype
PUBLIC	?monetary@?$_Locbase@H@std@@2HB			; std::_Locbase<int>::monetary
PUBLIC	?numeric@?$_Locbase@H@std@@2HB			; std::_Locbase<int>::numeric
PUBLIC	?time@?$_Locbase@H@std@@2HB			; std::_Locbase<int>::time
PUBLIC	?value@?$_Sizeof@U_Nil@std@@U12@U12@U12@U12@U12@U12@U12@@std@@2IB ; std::_Sizeof<std::_Nil,std::_Nil,std::_Nil,std::_Nil,std::_Nil,std::_Nil,std::_Nil,std::_Nil>::value
PUBLIC	?messages@?$_Locbase@H@std@@2HB			; std::_Locbase<int>::messages
PUBLIC	?all@?$_Locbase@H@std@@2HB			; std::_Locbase<int>::all
PUBLIC	?none@?$_Locbase@H@std@@2HB			; std::_Locbase<int>::none
PUBLIC	?has_denorm@_Num_base@std@@2W4float_denorm_style@2@B ; std::_Num_base::has_denorm
PUBLIC	?has_denorm_loss@_Num_base@std@@2_NB		; std::_Num_base::has_denorm_loss
PUBLIC	?has_infinity@_Num_base@std@@2_NB		; std::_Num_base::has_infinity
PUBLIC	?has_quiet_NaN@_Num_base@std@@2_NB		; std::_Num_base::has_quiet_NaN
PUBLIC	?has_signaling_NaN@_Num_base@std@@2_NB		; std::_Num_base::has_signaling_NaN
PUBLIC	?is_bounded@_Num_base@std@@2_NB			; std::_Num_base::is_bounded
PUBLIC	?is_exact@_Num_base@std@@2_NB			; std::_Num_base::is_exact
PUBLIC	?is_iec559@_Num_base@std@@2_NB			; std::_Num_base::is_iec559
PUBLIC	?is_integer@_Num_base@std@@2_NB			; std::_Num_base::is_integer
PUBLIC	?is_modulo@_Num_base@std@@2_NB			; std::_Num_base::is_modulo
PUBLIC	?table_size@?$ctype@D@std@@2IB			; std::ctype<char>::table_size
PUBLIC	?is_signed@_Num_base@std@@2_NB			; std::_Num_base::is_signed
PUBLIC	?is_specialized@_Num_base@std@@2_NB		; std::_Num_base::is_specialized
PUBLIC	?tinyness_before@_Num_base@std@@2_NB		; std::_Num_base::tinyness_before
PUBLIC	?traps@_Num_base@std@@2_NB			; std::_Num_base::traps
PUBLIC	?round_style@_Num_base@std@@2W4float_round_style@2@B ; std::_Num_base::round_style
PUBLIC	?digits@_Num_base@std@@2HB			; std::_Num_base::digits
PUBLIC	?digits10@_Num_base@std@@2HB			; std::_Num_base::digits10
PUBLIC	?max_digits10@_Num_base@std@@2HB		; std::_Num_base::max_digits10
PUBLIC	?max_exponent@_Num_base@std@@2HB		; std::_Num_base::max_exponent
PUBLIC	?max_exponent10@_Num_base@std@@2HB		; std::_Num_base::max_exponent10
PUBLIC	?min_exponent@_Num_base@std@@2HB		; std::_Num_base::min_exponent
PUBLIC	?min_exponent10@_Num_base@std@@2HB		; std::_Num_base::min_exponent10
PUBLIC	?radix@_Num_base@std@@2HB			; std::_Num_base::radix
PUBLIC	?is_bounded@_Num_int_base@std@@2_NB		; std::_Num_int_base::is_bounded
PUBLIC	?is_exact@_Num_int_base@std@@2_NB		; std::_Num_int_base::is_exact
PUBLIC	?is_integer@_Num_int_base@std@@2_NB		; std::_Num_int_base::is_integer
PUBLIC	?is_modulo@_Num_int_base@std@@2_NB		; std::_Num_int_base::is_modulo
PUBLIC	?is_specialized@_Num_int_base@std@@2_NB		; std::_Num_int_base::is_specialized
PUBLIC	?radix@_Num_int_base@std@@2HB			; std::_Num_int_base::radix
PUBLIC	?has_denorm@_Num_float_base@std@@2W4float_denorm_style@2@B ; std::_Num_float_base::has_denorm
PUBLIC	?has_denorm_loss@_Num_float_base@std@@2_NB	; std::_Num_float_base::has_denorm_loss
PUBLIC	?SIMDIRTYDATA_INTERVAL@FalconEntity@@2KB	; FalconEntity::SIMDIRTYDATA_INTERVAL
PUBLIC	?CMPDIRTYDATA_INTERVAL@FalconEntity@@2KB	; FalconEntity::CMPDIRTYDATA_INTERVAL
PUBLIC	?has_infinity@_Num_float_base@std@@2_NB		; std::_Num_float_base::has_infinity
PUBLIC	?has_quiet_NaN@_Num_float_base@std@@2_NB	; std::_Num_float_base::has_quiet_NaN
PUBLIC	?has_signaling_NaN@_Num_float_base@std@@2_NB	; std::_Num_float_base::has_signaling_NaN
PUBLIC	?is_bounded@_Num_float_base@std@@2_NB		; std::_Num_float_base::is_bounded
PUBLIC	?is_exact@_Num_float_base@std@@2_NB		; std::_Num_float_base::is_exact
PUBLIC	?is_iec559@_Num_float_base@std@@2_NB		; std::_Num_float_base::is_iec559
PUBLIC	?is_integer@_Num_float_base@std@@2_NB		; std::_Num_float_base::is_integer
PUBLIC	?is_modulo@_Num_float_base@std@@2_NB		; std::_Num_float_base::is_modulo
PUBLIC	?is_signed@_Num_float_base@std@@2_NB		; std::_Num_float_base::is_signed
PUBLIC	?is_specialized@_Num_float_base@std@@2_NB	; std::_Num_float_base::is_specialized
PUBLIC	?tinyness_before@_Num_float_base@std@@2_NB	; std::_Num_float_base::tinyness_before
PUBLIC	?traps@_Num_float_base@std@@2_NB		; std::_Num_float_base::traps
PUBLIC	?round_style@_Num_float_base@std@@2W4float_round_style@2@B ; std::_Num_float_base::round_style
PUBLIC	?radix@_Num_float_base@std@@2HB			; std::_Num_float_base::radix
PUBLIC	?is_signed@?$numeric_limits@D@std@@2_NB		; std::numeric_limits<char>::is_signed
PUBLIC	?digits@?$numeric_limits@D@std@@2HB		; std::numeric_limits<char>::digits
PUBLIC	?digits10@?$numeric_limits@D@std@@2HB		; std::numeric_limits<char>::digits10
PUBLIC	?is_signed@?$numeric_limits@_W@std@@2_NB	; std::numeric_limits<wchar_t>::is_signed
PUBLIC	?digits@?$numeric_limits@_W@std@@2HB		; std::numeric_limits<wchar_t>::digits
PUBLIC	?digits10@?$numeric_limits@_W@std@@2HB		; std::numeric_limits<wchar_t>::digits10
PUBLIC	?is_modulo@?$numeric_limits@_N@std@@2_NB	; std::numeric_limits<bool>::is_modulo
PUBLIC	?is_signed@?$numeric_limits@_N@std@@2_NB	; std::numeric_limits<bool>::is_signed
PUBLIC	?digits@?$numeric_limits@_N@std@@2HB		; std::numeric_limits<bool>::digits
PUBLIC	?digits10@?$numeric_limits@_N@std@@2HB		; std::numeric_limits<bool>::digits10
PUBLIC	?is_signed@?$numeric_limits@C@std@@2_NB		; std::numeric_limits<signed char>::is_signed
PUBLIC	?digits@?$numeric_limits@C@std@@2HB		; std::numeric_limits<signed char>::digits
PUBLIC	?digits10@?$numeric_limits@C@std@@2HB		; std::numeric_limits<signed char>::digits10
PUBLIC	?is_signed@?$numeric_limits@E@std@@2_NB		; std::numeric_limits<unsigned char>::is_signed
PUBLIC	?value@?$integral_constant@_N$0A@@std@@2_NB	; std::integral_constant<bool,0>::value
PUBLIC	?digits@?$numeric_limits@E@std@@2HB		; std::numeric_limits<unsigned char>::digits
PUBLIC	?digits10@?$numeric_limits@E@std@@2HB		; std::numeric_limits<unsigned char>::digits10
PUBLIC	?value@?$integral_constant@_N$00@std@@2_NB	; std::integral_constant<bool,1>::value
PUBLIC	?is_signed@?$numeric_limits@F@std@@2_NB		; std::numeric_limits<short>::is_signed
PUBLIC	?digits@?$numeric_limits@F@std@@2HB		; std::numeric_limits<short>::digits
PUBLIC	?digits10@?$numeric_limits@F@std@@2HB		; std::numeric_limits<short>::digits10
PUBLIC	?is_signed@?$numeric_limits@G@std@@2_NB		; std::numeric_limits<unsigned short>::is_signed
PUBLIC	?digits@?$numeric_limits@G@std@@2HB		; std::numeric_limits<unsigned short>::digits
PUBLIC	?digits10@?$numeric_limits@G@std@@2HB		; std::numeric_limits<unsigned short>::digits10
PUBLIC	?is_signed@?$numeric_limits@H@std@@2_NB		; std::numeric_limits<int>::is_signed
PUBLIC	?value@?$_Sizeof@HU_Nil@std@@U12@U12@U12@U12@U12@U12@@std@@2IB ; std::_Sizeof<int,std::_Nil,std::_Nil,std::_Nil,std::_Nil,std::_Nil,std::_Nil,std::_Nil>::value
PUBLIC	?digits@?$numeric_limits@H@std@@2HB		; std::numeric_limits<int>::digits
PUBLIC	?digits10@?$numeric_limits@H@std@@2HB		; std::numeric_limits<int>::digits10
PUBLIC	?is_signed@?$numeric_limits@I@std@@2_NB		; std::numeric_limits<unsigned int>::is_signed
PUBLIC	?digits@?$numeric_limits@I@std@@2HB		; std::numeric_limits<unsigned int>::digits
PUBLIC	?skipws@?$_Iosb@H@std@@2W4_Fmtflags@12@B	; std::_Iosb<int>::skipws
PUBLIC	?digits10@?$numeric_limits@I@std@@2HB		; std::numeric_limits<unsigned int>::digits10
PUBLIC	?unitbuf@?$_Iosb@H@std@@2W4_Fmtflags@12@B	; std::_Iosb<int>::unitbuf
PUBLIC	?uppercase@?$_Iosb@H@std@@2W4_Fmtflags@12@B	; std::_Iosb<int>::uppercase
PUBLIC	?showbase@?$_Iosb@H@std@@2W4_Fmtflags@12@B	; std::_Iosb<int>::showbase
PUBLIC	?showpoint@?$_Iosb@H@std@@2W4_Fmtflags@12@B	; std::_Iosb<int>::showpoint
PUBLIC	?showpos@?$_Iosb@H@std@@2W4_Fmtflags@12@B	; std::_Iosb<int>::showpos
PUBLIC	?left@?$_Iosb@H@std@@2W4_Fmtflags@12@B		; std::_Iosb<int>::left
PUBLIC	?right@?$_Iosb@H@std@@2W4_Fmtflags@12@B		; std::_Iosb<int>::right
PUBLIC	?internal@?$_Iosb@H@std@@2W4_Fmtflags@12@B	; std::_Iosb<int>::internal
PUBLIC	?dec@?$_Iosb@H@std@@2W4_Fmtflags@12@B		; std::_Iosb<int>::dec
PUBLIC	?oct@?$_Iosb@H@std@@2W4_Fmtflags@12@B		; std::_Iosb<int>::oct
PUBLIC	?is_signed@?$numeric_limits@J@std@@2_NB		; std::numeric_limits<long>::is_signed
PUBLIC	?hex@?$_Iosb@H@std@@2W4_Fmtflags@12@B		; std::_Iosb<int>::hex
PUBLIC	?scientific@?$_Iosb@H@std@@2W4_Fmtflags@12@B	; std::_Iosb<int>::scientific
PUBLIC	?digits@?$numeric_limits@J@std@@2HB		; std::numeric_limits<long>::digits
PUBLIC	?fixed@?$_Iosb@H@std@@2W4_Fmtflags@12@B		; std::_Iosb<int>::fixed
PUBLIC	?digits10@?$numeric_limits@J@std@@2HB		; std::numeric_limits<long>::digits10
PUBLIC	?hexfloat@?$_Iosb@H@std@@2W4_Fmtflags@12@B	; std::_Iosb<int>::hexfloat
;	COMDAT ?hexfloat@?$_Iosb@H@std@@2W4_Fmtflags@12@B
CONST	SEGMENT
?hexfloat@?$_Iosb@H@std@@2W4_Fmtflags@12@B DD 03000H	; std::_Iosb<int>::hexfloat
CONST	ENDS
;	COMDAT ?digits10@?$numeric_limits@J@std@@2HB
CONST	SEGMENT
?digits10@?$numeric_limits@J@std@@2HB DD 09H		; std::numeric_limits<long>::digits10
CONST	ENDS
;	COMDAT ?fixed@?$_Iosb@H@std@@2W4_Fmtflags@12@B
CONST	SEGMENT
?fixed@?$_Iosb@H@std@@2W4_Fmtflags@12@B DD 02000H	; std::_Iosb<int>::fixed
CONST	ENDS
;	COMDAT ?digits@?$numeric_limits@J@std@@2HB
CONST	SEGMENT
?digits@?$numeric_limits@J@std@@2HB DD 01fH		; std::numeric_limits<long>::digits
CONST	ENDS
;	COMDAT ?scientific@?$_Iosb@H@std@@2W4_Fmtflags@12@B
CONST	SEGMENT
?scientific@?$_Iosb@H@std@@2W4_Fmtflags@12@B DD 01000H	; std::_Iosb<int>::scientific
CONST	ENDS
;	COMDAT ?hex@?$_Iosb@H@std@@2W4_Fmtflags@12@B
CONST	SEGMENT
?hex@?$_Iosb@H@std@@2W4_Fmtflags@12@B DD 0800H		; std::_Iosb<int>::hex
CONST	ENDS
;	COMDAT ?is_signed@?$numeric_limits@J@std@@2_NB
CONST	SEGMENT
?is_signed@?$numeric_limits@J@std@@2_NB DB 01H		; std::numeric_limits<long>::is_signed
CONST	ENDS
;	COMDAT ?oct@?$_Iosb@H@std@@2W4_Fmtflags@12@B
CONST	SEGMENT
?oct@?$_Iosb@H@std@@2W4_Fmtflags@12@B DD 0400H		; std::_Iosb<int>::oct
CONST	ENDS
;	COMDAT ?dec@?$_Iosb@H@std@@2W4_Fmtflags@12@B
CONST	SEGMENT
?dec@?$_Iosb@H@std@@2W4_Fmtflags@12@B DD 0200H		; std::_Iosb<int>::dec
CONST	ENDS
;	COMDAT ?internal@?$_Iosb@H@std@@2W4_Fmtflags@12@B
CONST	SEGMENT
?internal@?$_Iosb@H@std@@2W4_Fmtflags@12@B DD 0100H	; std::_Iosb<int>::internal
CONST	ENDS
;	COMDAT ?right@?$_Iosb@H@std@@2W4_Fmtflags@12@B
CONST	SEGMENT
?right@?$_Iosb@H@std@@2W4_Fmtflags@12@B DD 080H		; std::_Iosb<int>::right
CONST	ENDS
;	COMDAT ?left@?$_Iosb@H@std@@2W4_Fmtflags@12@B
CONST	SEGMENT
?left@?$_Iosb@H@std@@2W4_Fmtflags@12@B DD 040H		; std::_Iosb<int>::left
CONST	ENDS
;	COMDAT ?showpos@?$_Iosb@H@std@@2W4_Fmtflags@12@B
CONST	SEGMENT
?showpos@?$_Iosb@H@std@@2W4_Fmtflags@12@B DD 020H	; std::_Iosb<int>::showpos
CONST	ENDS
;	COMDAT ?showpoint@?$_Iosb@H@std@@2W4_Fmtflags@12@B
CONST	SEGMENT
?showpoint@?$_Iosb@H@std@@2W4_Fmtflags@12@B DD 010H	; std::_Iosb<int>::showpoint
CONST	ENDS
;	COMDAT ?showbase@?$_Iosb@H@std@@2W4_Fmtflags@12@B
CONST	SEGMENT
?showbase@?$_Iosb@H@std@@2W4_Fmtflags@12@B DD 08H	; std::_Iosb<int>::showbase
CONST	ENDS
;	COMDAT ?uppercase@?$_Iosb@H@std@@2W4_Fmtflags@12@B
CONST	SEGMENT
?uppercase@?$_Iosb@H@std@@2W4_Fmtflags@12@B DD 04H	; std::_Iosb<int>::uppercase
CONST	ENDS
;	COMDAT ?unitbuf@?$_Iosb@H@std@@2W4_Fmtflags@12@B
CONST	SEGMENT
?unitbuf@?$_Iosb@H@std@@2W4_Fmtflags@12@B DD 02H	; std::_Iosb<int>::unitbuf
CONST	ENDS
;	COMDAT ?digits10@?$numeric_limits@I@std@@2HB
CONST	SEGMENT
?digits10@?$numeric_limits@I@std@@2HB DD 09H		; std::numeric_limits<unsigned int>::digits10
CONST	ENDS
;	COMDAT ?skipws@?$_Iosb@H@std@@2W4_Fmtflags@12@B
CONST	SEGMENT
?skipws@?$_Iosb@H@std@@2W4_Fmtflags@12@B DD 01H		; std::_Iosb<int>::skipws
CONST	ENDS
;	COMDAT ?digits@?$numeric_limits@I@std@@2HB
CONST	SEGMENT
?digits@?$numeric_limits@I@std@@2HB DD 020H		; std::numeric_limits<unsigned int>::digits
CONST	ENDS
;	COMDAT ?is_signed@?$numeric_limits@I@std@@2_NB
CONST	SEGMENT
?is_signed@?$numeric_limits@I@std@@2_NB DB 00H		; std::numeric_limits<unsigned int>::is_signed
CONST	ENDS
;	COMDAT ?digits10@?$numeric_limits@H@std@@2HB
CONST	SEGMENT
?digits10@?$numeric_limits@H@std@@2HB DD 09H		; std::numeric_limits<int>::digits10
CONST	ENDS
;	COMDAT ?digits@?$numeric_limits@H@std@@2HB
CONST	SEGMENT
?digits@?$numeric_limits@H@std@@2HB DD 01fH		; std::numeric_limits<int>::digits
CONST	ENDS
;	COMDAT ?value@?$_Sizeof@HU_Nil@std@@U12@U12@U12@U12@U12@U12@@std@@2IB
CONST	SEGMENT
?value@?$_Sizeof@HU_Nil@std@@U12@U12@U12@U12@U12@U12@@std@@2IB DD 01H ; std::_Sizeof<int,std::_Nil,std::_Nil,std::_Nil,std::_Nil,std::_Nil,std::_Nil,std::_Nil>::value
CONST	ENDS
;	COMDAT ?is_signed@?$numeric_limits@H@std@@2_NB
CONST	SEGMENT
?is_signed@?$numeric_limits@H@std@@2_NB DB 01H		; std::numeric_limits<int>::is_signed
CONST	ENDS
;	COMDAT ?digits10@?$numeric_limits@G@std@@2HB
CONST	SEGMENT
?digits10@?$numeric_limits@G@std@@2HB DD 04H		; std::numeric_limits<unsigned short>::digits10
CONST	ENDS
;	COMDAT ?digits@?$numeric_limits@G@std@@2HB
CONST	SEGMENT
?digits@?$numeric_limits@G@std@@2HB DD 010H		; std::numeric_limits<unsigned short>::digits
CONST	ENDS
;	COMDAT ?is_signed@?$numeric_limits@G@std@@2_NB
CONST	SEGMENT
?is_signed@?$numeric_limits@G@std@@2_NB DB 00H		; std::numeric_limits<unsigned short>::is_signed
CONST	ENDS
;	COMDAT ?digits10@?$numeric_limits@F@std@@2HB
CONST	SEGMENT
?digits10@?$numeric_limits@F@std@@2HB DD 04H		; std::numeric_limits<short>::digits10
CONST	ENDS
;	COMDAT ?digits@?$numeric_limits@F@std@@2HB
CONST	SEGMENT
?digits@?$numeric_limits@F@std@@2HB DD 0fH		; std::numeric_limits<short>::digits
CONST	ENDS
;	COMDAT ?is_signed@?$numeric_limits@F@std@@2_NB
CONST	SEGMENT
?is_signed@?$numeric_limits@F@std@@2_NB DB 01H		; std::numeric_limits<short>::is_signed
CONST	ENDS
;	COMDAT ?value@?$integral_constant@_N$00@std@@2_NB
CONST	SEGMENT
?value@?$integral_constant@_N$00@std@@2_NB DB 01H	; std::integral_constant<bool,1>::value
CONST	ENDS
;	COMDAT ?digits10@?$numeric_limits@E@std@@2HB
CONST	SEGMENT
?digits10@?$numeric_limits@E@std@@2HB DD 02H		; std::numeric_limits<unsigned char>::digits10
CONST	ENDS
;	COMDAT ?digits@?$numeric_limits@E@std@@2HB
CONST	SEGMENT
?digits@?$numeric_limits@E@std@@2HB DD 08H		; std::numeric_limits<unsigned char>::digits
CONST	ENDS
;	COMDAT ?value@?$integral_constant@_N$0A@@std@@2_NB
CONST	SEGMENT
?value@?$integral_constant@_N$0A@@std@@2_NB DB 00H	; std::integral_constant<bool,0>::value
CONST	ENDS
;	COMDAT ?is_signed@?$numeric_limits@E@std@@2_NB
CONST	SEGMENT
?is_signed@?$numeric_limits@E@std@@2_NB DB 00H		; std::numeric_limits<unsigned char>::is_signed
CONST	ENDS
;	COMDAT ?digits10@?$numeric_limits@C@std@@2HB
CONST	SEGMENT
?digits10@?$numeric_limits@C@std@@2HB DD 02H		; std::numeric_limits<signed char>::digits10
CONST	ENDS
;	COMDAT ?digits@?$numeric_limits@C@std@@2HB
CONST	SEGMENT
?digits@?$numeric_limits@C@std@@2HB DD 07H		; std::numeric_limits<signed char>::digits
CONST	ENDS
;	COMDAT ?is_signed@?$numeric_limits@C@std@@2_NB
CONST	SEGMENT
?is_signed@?$numeric_limits@C@std@@2_NB DB 01H		; std::numeric_limits<signed char>::is_signed
CONST	ENDS
CONST	SEGMENT
_L_2	DD	03f317218r			; 0.693147
CONST	ENDS
;	COMDAT ?digits10@?$numeric_limits@_N@std@@2HB
CONST	SEGMENT
?digits10@?$numeric_limits@_N@std@@2HB DD 00H		; std::numeric_limits<bool>::digits10
CONST	ENDS
;	COMDAT ?digits@?$numeric_limits@_N@std@@2HB
CONST	SEGMENT
?digits@?$numeric_limits@_N@std@@2HB DD 01H		; std::numeric_limits<bool>::digits
CONST	ENDS
;	COMDAT ?is_signed@?$numeric_limits@_N@std@@2_NB
CONST	SEGMENT
?is_signed@?$numeric_limits@_N@std@@2_NB DB 00H		; std::numeric_limits<bool>::is_signed
CONST	ENDS
;	COMDAT ?is_modulo@?$numeric_limits@_N@std@@2_NB
CONST	SEGMENT
?is_modulo@?$numeric_limits@_N@std@@2_NB DB 00H		; std::numeric_limits<bool>::is_modulo
CONST	ENDS
;	COMDAT ?digits10@?$numeric_limits@_W@std@@2HB
CONST	SEGMENT
?digits10@?$numeric_limits@_W@std@@2HB DD 04H		; std::numeric_limits<wchar_t>::digits10
CONST	ENDS
;	COMDAT ?digits@?$numeric_limits@_W@std@@2HB
CONST	SEGMENT
?digits@?$numeric_limits@_W@std@@2HB DD 010H		; std::numeric_limits<wchar_t>::digits
CONST	ENDS
;	COMDAT ?is_signed@?$numeric_limits@_W@std@@2_NB
CONST	SEGMENT
?is_signed@?$numeric_limits@_W@std@@2_NB DB 00H		; std::numeric_limits<wchar_t>::is_signed
CONST	ENDS
;	COMDAT ?digits10@?$numeric_limits@D@std@@2HB
CONST	SEGMENT
?digits10@?$numeric_limits@D@std@@2HB DD 02H		; std::numeric_limits<char>::digits10
CONST	ENDS
;	COMDAT ?digits@?$numeric_limits@D@std@@2HB
CONST	SEGMENT
?digits@?$numeric_limits@D@std@@2HB DD 07H		; std::numeric_limits<char>::digits
CONST	ENDS
;	COMDAT ?is_signed@?$numeric_limits@D@std@@2_NB
CONST	SEGMENT
?is_signed@?$numeric_limits@D@std@@2_NB DB 01H		; std::numeric_limits<char>::is_signed
CONST	ENDS
;	COMDAT ?radix@_Num_float_base@std@@2HB
CONST	SEGMENT
?radix@_Num_float_base@std@@2HB DD 02H			; std::_Num_float_base::radix
CONST	ENDS
;	COMDAT ?round_style@_Num_float_base@std@@2W4float_round_style@2@B
CONST	SEGMENT
?round_style@_Num_float_base@std@@2W4float_round_style@2@B DD 01H ; std::_Num_float_base::round_style
CONST	ENDS
;	COMDAT ?traps@_Num_float_base@std@@2_NB
CONST	SEGMENT
?traps@_Num_float_base@std@@2_NB DB 00H			; std::_Num_float_base::traps
CONST	ENDS
;	COMDAT ?tinyness_before@_Num_float_base@std@@2_NB
CONST	SEGMENT
?tinyness_before@_Num_float_base@std@@2_NB DB 01H	; std::_Num_float_base::tinyness_before
CONST	ENDS
;	COMDAT ?is_specialized@_Num_float_base@std@@2_NB
CONST	SEGMENT
?is_specialized@_Num_float_base@std@@2_NB DB 01H	; std::_Num_float_base::is_specialized
CONST	ENDS
;	COMDAT ?is_signed@_Num_float_base@std@@2_NB
CONST	SEGMENT
?is_signed@_Num_float_base@std@@2_NB DB 01H		; std::_Num_float_base::is_signed
CONST	ENDS
;	COMDAT ?is_modulo@_Num_float_base@std@@2_NB
CONST	SEGMENT
?is_modulo@_Num_float_base@std@@2_NB DB 00H		; std::_Num_float_base::is_modulo
CONST	ENDS
;	COMDAT ?is_integer@_Num_float_base@std@@2_NB
CONST	SEGMENT
?is_integer@_Num_float_base@std@@2_NB DB 00H		; std::_Num_float_base::is_integer
CONST	ENDS
;	COMDAT ?is_iec559@_Num_float_base@std@@2_NB
CONST	SEGMENT
?is_iec559@_Num_float_base@std@@2_NB DB 01H		; std::_Num_float_base::is_iec559
CONST	ENDS
;	COMDAT ?is_exact@_Num_float_base@std@@2_NB
CONST	SEGMENT
?is_exact@_Num_float_base@std@@2_NB DB 00H		; std::_Num_float_base::is_exact
CONST	ENDS
;	COMDAT ?is_bounded@_Num_float_base@std@@2_NB
CONST	SEGMENT
?is_bounded@_Num_float_base@std@@2_NB DB 01H		; std::_Num_float_base::is_bounded
CONST	ENDS
;	COMDAT ?has_signaling_NaN@_Num_float_base@std@@2_NB
CONST	SEGMENT
?has_signaling_NaN@_Num_float_base@std@@2_NB DB 01H	; std::_Num_float_base::has_signaling_NaN
CONST	ENDS
;	COMDAT ?has_quiet_NaN@_Num_float_base@std@@2_NB
CONST	SEGMENT
?has_quiet_NaN@_Num_float_base@std@@2_NB DB 01H		; std::_Num_float_base::has_quiet_NaN
CONST	ENDS
;	COMDAT ?has_infinity@_Num_float_base@std@@2_NB
CONST	SEGMENT
?has_infinity@_Num_float_base@std@@2_NB DB 01H		; std::_Num_float_base::has_infinity
CONST	ENDS
;	COMDAT ?CMPDIRTYDATA_INTERVAL@FalconEntity@@2KB
CONST	SEGMENT
?CMPDIRTYDATA_INTERVAL@FalconEntity@@2KB DD 0c8H	; FalconEntity::CMPDIRTYDATA_INTERVAL
CONST	ENDS
;	COMDAT ?SIMDIRTYDATA_INTERVAL@FalconEntity@@2KB
CONST	SEGMENT
?SIMDIRTYDATA_INTERVAL@FalconEntity@@2KB DD 0c8H	; FalconEntity::SIMDIRTYDATA_INTERVAL
CONST	ENDS
;	COMDAT ?has_denorm_loss@_Num_float_base@std@@2_NB
CONST	SEGMENT
?has_denorm_loss@_Num_float_base@std@@2_NB DB 01H	; std::_Num_float_base::has_denorm_loss
CONST	ENDS
;	COMDAT ?has_denorm@_Num_float_base@std@@2W4float_denorm_style@2@B
CONST	SEGMENT
?has_denorm@_Num_float_base@std@@2W4float_denorm_style@2@B DD 01H ; std::_Num_float_base::has_denorm
CONST	ENDS
;	COMDAT ?radix@_Num_int_base@std@@2HB
CONST	SEGMENT
?radix@_Num_int_base@std@@2HB DD 02H			; std::_Num_int_base::radix
CONST	ENDS
;	COMDAT ?is_specialized@_Num_int_base@std@@2_NB
CONST	SEGMENT
?is_specialized@_Num_int_base@std@@2_NB DB 01H		; std::_Num_int_base::is_specialized
CONST	ENDS
;	COMDAT ?is_modulo@_Num_int_base@std@@2_NB
CONST	SEGMENT
?is_modulo@_Num_int_base@std@@2_NB DB 01H		; std::_Num_int_base::is_modulo
CONST	ENDS
;	COMDAT ?is_integer@_Num_int_base@std@@2_NB
CONST	SEGMENT
?is_integer@_Num_int_base@std@@2_NB DB 01H		; std::_Num_int_base::is_integer
CONST	ENDS
;	COMDAT ?is_exact@_Num_int_base@std@@2_NB
CONST	SEGMENT
?is_exact@_Num_int_base@std@@2_NB DB 01H		; std::_Num_int_base::is_exact
CONST	ENDS
;	COMDAT ?is_bounded@_Num_int_base@std@@2_NB
CONST	SEGMENT
?is_bounded@_Num_int_base@std@@2_NB DB 01H		; std::_Num_int_base::is_bounded
CONST	ENDS
;	COMDAT ?radix@_Num_base@std@@2HB
CONST	SEGMENT
?radix@_Num_base@std@@2HB DD 00H			; std::_Num_base::radix
CONST	ENDS
;	COMDAT ?min_exponent10@_Num_base@std@@2HB
CONST	SEGMENT
?min_exponent10@_Num_base@std@@2HB DD 00H		; std::_Num_base::min_exponent10
CONST	ENDS
;	COMDAT ?min_exponent@_Num_base@std@@2HB
CONST	SEGMENT
?min_exponent@_Num_base@std@@2HB DD 00H			; std::_Num_base::min_exponent
CONST	ENDS
;	COMDAT ?max_exponent10@_Num_base@std@@2HB
CONST	SEGMENT
?max_exponent10@_Num_base@std@@2HB DD 00H		; std::_Num_base::max_exponent10
CONST	ENDS
;	COMDAT ?max_exponent@_Num_base@std@@2HB
CONST	SEGMENT
?max_exponent@_Num_base@std@@2HB DD 00H			; std::_Num_base::max_exponent
CONST	ENDS
;	COMDAT ?max_digits10@_Num_base@std@@2HB
CONST	SEGMENT
?max_digits10@_Num_base@std@@2HB DD 00H			; std::_Num_base::max_digits10
CONST	ENDS
;	COMDAT ?digits10@_Num_base@std@@2HB
CONST	SEGMENT
?digits10@_Num_base@std@@2HB DD 00H			; std::_Num_base::digits10
CONST	ENDS
;	COMDAT ?digits@_Num_base@std@@2HB
CONST	SEGMENT
?digits@_Num_base@std@@2HB DD 00H			; std::_Num_base::digits
CONST	ENDS
;	COMDAT ?round_style@_Num_base@std@@2W4float_round_style@2@B
CONST	SEGMENT
?round_style@_Num_base@std@@2W4float_round_style@2@B DD 00H ; std::_Num_base::round_style
CONST	ENDS
;	COMDAT ?traps@_Num_base@std@@2_NB
CONST	SEGMENT
?traps@_Num_base@std@@2_NB DB 00H			; std::_Num_base::traps
CONST	ENDS
;	COMDAT ?tinyness_before@_Num_base@std@@2_NB
CONST	SEGMENT
?tinyness_before@_Num_base@std@@2_NB DB 00H		; std::_Num_base::tinyness_before
CONST	ENDS
;	COMDAT ?is_specialized@_Num_base@std@@2_NB
CONST	SEGMENT
?is_specialized@_Num_base@std@@2_NB DB 00H		; std::_Num_base::is_specialized
CONST	ENDS
;	COMDAT ?is_signed@_Num_base@std@@2_NB
CONST	SEGMENT
?is_signed@_Num_base@std@@2_NB DB 00H			; std::_Num_base::is_signed
CONST	ENDS
;	COMDAT ?table_size@?$ctype@D@std@@2IB
CONST	SEGMENT
?table_size@?$ctype@D@std@@2IB DD 0100H			; std::ctype<char>::table_size
CONST	ENDS
;	COMDAT ?is_modulo@_Num_base@std@@2_NB
CONST	SEGMENT
?is_modulo@_Num_base@std@@2_NB DB 00H			; std::_Num_base::is_modulo
CONST	ENDS
;	COMDAT ?is_integer@_Num_base@std@@2_NB
CONST	SEGMENT
?is_integer@_Num_base@std@@2_NB DB 00H			; std::_Num_base::is_integer
CONST	ENDS
;	COMDAT ?is_iec559@_Num_base@std@@2_NB
CONST	SEGMENT
?is_iec559@_Num_base@std@@2_NB DB 00H			; std::_Num_base::is_iec559
CONST	ENDS
;	COMDAT ?is_exact@_Num_base@std@@2_NB
CONST	SEGMENT
?is_exact@_Num_base@std@@2_NB DB 00H			; std::_Num_base::is_exact
CONST	ENDS
;	COMDAT ?is_bounded@_Num_base@std@@2_NB
CONST	SEGMENT
?is_bounded@_Num_base@std@@2_NB DB 00H			; std::_Num_base::is_bounded
CONST	ENDS
;	COMDAT ?has_signaling_NaN@_Num_base@std@@2_NB
CONST	SEGMENT
?has_signaling_NaN@_Num_base@std@@2_NB DB 00H		; std::_Num_base::has_signaling_NaN
CONST	ENDS
;	COMDAT ?has_quiet_NaN@_Num_base@std@@2_NB
CONST	SEGMENT
?has_quiet_NaN@_Num_base@std@@2_NB DB 00H		; std::_Num_base::has_quiet_NaN
CONST	ENDS
;	COMDAT ?has_infinity@_Num_base@std@@2_NB
CONST	SEGMENT
?has_infinity@_Num_base@std@@2_NB DB 00H		; std::_Num_base::has_infinity
CONST	ENDS
;	COMDAT ?has_denorm_loss@_Num_base@std@@2_NB
CONST	SEGMENT
?has_denorm_loss@_Num_base@std@@2_NB DB 00H		; std::_Num_base::has_denorm_loss
CONST	ENDS
;	COMDAT ?has_denorm@_Num_base@std@@2W4float_denorm_style@2@B
CONST	SEGMENT
?has_denorm@_Num_base@std@@2W4float_denorm_style@2@B DD 00H ; std::_Num_base::has_denorm
CONST	ENDS
;	COMDAT ?none@?$_Locbase@H@std@@2HB
CONST	SEGMENT
?none@?$_Locbase@H@std@@2HB DD 00H			; std::_Locbase<int>::none
CONST	ENDS
;	COMDAT ?all@?$_Locbase@H@std@@2HB
CONST	SEGMENT
?all@?$_Locbase@H@std@@2HB DD 03fH			; std::_Locbase<int>::all
CONST	ENDS
;	COMDAT ?messages@?$_Locbase@H@std@@2HB
CONST	SEGMENT
?messages@?$_Locbase@H@std@@2HB DD 020H			; std::_Locbase<int>::messages
CONST	ENDS
;	COMDAT ?value@?$_Sizeof@U_Nil@std@@U12@U12@U12@U12@U12@U12@U12@@std@@2IB
CONST	SEGMENT
?value@?$_Sizeof@U_Nil@std@@U12@U12@U12@U12@U12@U12@U12@@std@@2IB DD 00H ; std::_Sizeof<std::_Nil,std::_Nil,std::_Nil,std::_Nil,std::_Nil,std::_Nil,std::_Nil,std::_Nil>::value
CONST	ENDS
;	COMDAT ?time@?$_Locbase@H@std@@2HB
CONST	SEGMENT
?time@?$_Locbase@H@std@@2HB DD 010H			; std::_Locbase<int>::time
CONST	ENDS
;	COMDAT ?numeric@?$_Locbase@H@std@@2HB
CONST	SEGMENT
?numeric@?$_Locbase@H@std@@2HB DD 08H			; std::_Locbase<int>::numeric
CONST	ENDS
;	COMDAT ?monetary@?$_Locbase@H@std@@2HB
CONST	SEGMENT
?monetary@?$_Locbase@H@std@@2HB DD 04H			; std::_Locbase<int>::monetary
CONST	ENDS
;	COMDAT ?ctype@?$_Locbase@H@std@@2HB
CONST	SEGMENT
?ctype@?$_Locbase@H@std@@2HB DD 02H			; std::_Locbase<int>::ctype
CONST	ENDS
;	COMDAT ?collate@?$_Locbase@H@std@@2HB
CONST	SEGMENT
?collate@?$_Locbase@H@std@@2HB DD 01H			; std::_Locbase<int>::collate
CONST	ENDS
;	COMDAT ?min_exponent10@?$numeric_limits@O@std@@2HB
CONST	SEGMENT
?min_exponent10@?$numeric_limits@O@std@@2HB DD 0fffffecdH ; std::numeric_limits<long double>::min_exponent10
CONST	ENDS
;	COMDAT ?min_exponent@?$numeric_limits@O@std@@2HB
CONST	SEGMENT
?min_exponent@?$numeric_limits@O@std@@2HB DD 0fffffc03H	; std::numeric_limits<long double>::min_exponent
CONST	ENDS
;	COMDAT ?max_exponent10@?$numeric_limits@O@std@@2HB
CONST	SEGMENT
?max_exponent10@?$numeric_limits@O@std@@2HB DD 0134H	; std::numeric_limits<long double>::max_exponent10
CONST	ENDS
;	COMDAT ?max_exponent@?$numeric_limits@O@std@@2HB
CONST	SEGMENT
?max_exponent@?$numeric_limits@O@std@@2HB DD 0400H	; std::numeric_limits<long double>::max_exponent
CONST	ENDS
;	COMDAT ?max_digits10@?$numeric_limits@O@std@@2HB
CONST	SEGMENT
?max_digits10@?$numeric_limits@O@std@@2HB DD 011H	; std::numeric_limits<long double>::max_digits10
CONST	ENDS
;	COMDAT ?digits10@?$numeric_limits@O@std@@2HB
CONST	SEGMENT
?digits10@?$numeric_limits@O@std@@2HB DD 0fH		; std::numeric_limits<long double>::digits10
CONST	ENDS
;	COMDAT ?digits@?$numeric_limits@O@std@@2HB
CONST	SEGMENT
?digits@?$numeric_limits@O@std@@2HB DD 035H		; std::numeric_limits<long double>::digits
CONST	ENDS
;	COMDAT ?min_exponent10@?$numeric_limits@N@std@@2HB
CONST	SEGMENT
?min_exponent10@?$numeric_limits@N@std@@2HB DD 0fffffecdH ; std::numeric_limits<double>::min_exponent10
CONST	ENDS
;	COMDAT ?min_exponent@?$numeric_limits@N@std@@2HB
CONST	SEGMENT
?min_exponent@?$numeric_limits@N@std@@2HB DD 0fffffc03H	; std::numeric_limits<double>::min_exponent
CONST	ENDS
;	COMDAT ?max_exponent10@?$numeric_limits@N@std@@2HB
CONST	SEGMENT
?max_exponent10@?$numeric_limits@N@std@@2HB DD 0134H	; std::numeric_limits<double>::max_exponent10
CONST	ENDS
;	COMDAT ?max_exponent@?$numeric_limits@N@std@@2HB
CONST	SEGMENT
?max_exponent@?$numeric_limits@N@std@@2HB DD 0400H	; std::numeric_limits<double>::max_exponent
CONST	ENDS
;	COMDAT ?max_digits10@?$numeric_limits@N@std@@2HB
CONST	SEGMENT
?max_digits10@?$numeric_limits@N@std@@2HB DD 011H	; std::numeric_limits<double>::max_digits10
CONST	ENDS
;	COMDAT ?digits10@?$numeric_limits@N@std@@2HB
CONST	SEGMENT
?digits10@?$numeric_limits@N@std@@2HB DD 0fH		; std::numeric_limits<double>::digits10
CONST	ENDS
;	COMDAT ?digits@?$numeric_limits@N@std@@2HB
CONST	SEGMENT
?digits@?$numeric_limits@N@std@@2HB DD 035H		; std::numeric_limits<double>::digits
CONST	ENDS
;	COMDAT ?value@?$integral_constant@I$0A@@std@@2IB
CONST	SEGMENT
?value@?$integral_constant@I$0A@@std@@2IB DD 00H	; std::integral_constant<unsigned int,0>::value
CONST	ENDS
;	COMDAT ?min_exponent10@?$numeric_limits@M@std@@2HB
CONST	SEGMENT
?min_exponent10@?$numeric_limits@M@std@@2HB DD 0ffffffdbH ; std::numeric_limits<float>::min_exponent10
CONST	ENDS
;	COMDAT ?min_exponent@?$numeric_limits@M@std@@2HB
CONST	SEGMENT
?min_exponent@?$numeric_limits@M@std@@2HB DD 0ffffff83H	; std::numeric_limits<float>::min_exponent
CONST	ENDS
;	COMDAT ?max_exponent10@?$numeric_limits@M@std@@2HB
CONST	SEGMENT
?max_exponent10@?$numeric_limits@M@std@@2HB DD 026H	; std::numeric_limits<float>::max_exponent10
CONST	ENDS
;	COMDAT ?max_exponent@?$numeric_limits@M@std@@2HB
CONST	SEGMENT
?max_exponent@?$numeric_limits@M@std@@2HB DD 080H	; std::numeric_limits<float>::max_exponent
CONST	ENDS
;	COMDAT ?max_digits10@?$numeric_limits@M@std@@2HB
CONST	SEGMENT
?max_digits10@?$numeric_limits@M@std@@2HB DD 09H	; std::numeric_limits<float>::max_digits10
CONST	ENDS
;	COMDAT ?digits10@?$numeric_limits@M@std@@2HB
CONST	SEGMENT
?digits10@?$numeric_limits@M@std@@2HB DD 06H		; std::numeric_limits<float>::digits10
CONST	ENDS
;	COMDAT ?digits@?$numeric_limits@M@std@@2HB
CONST	SEGMENT
?digits@?$numeric_limits@M@std@@2HB DD 018H		; std::numeric_limits<float>::digits
CONST	ENDS
;	COMDAT ?digits10@?$numeric_limits@_K@std@@2HB
CONST	SEGMENT
?digits10@?$numeric_limits@_K@std@@2HB DD 013H		; std::numeric_limits<unsigned __int64>::digits10
CONST	ENDS
;	COMDAT ?digits@?$numeric_limits@_K@std@@2HB
CONST	SEGMENT
?digits@?$numeric_limits@_K@std@@2HB DD 040H		; std::numeric_limits<unsigned __int64>::digits
CONST	ENDS
;	COMDAT ?is_signed@?$numeric_limits@_K@std@@2_NB
CONST	SEGMENT
?is_signed@?$numeric_limits@_K@std@@2_NB DB 00H		; std::numeric_limits<unsigned __int64>::is_signed
CONST	ENDS
;	COMDAT ?_Stream_err@failure@ios_base@std@@0W4io_errc@43@B
CONST	SEGMENT
?_Stream_err@failure@ios_base@std@@0W4io_errc@43@B DD 01H ; std::ios_base::failure::_Stream_err
CONST	ENDS
;	COMDAT ?digits10@?$numeric_limits@_J@std@@2HB
CONST	SEGMENT
?digits10@?$numeric_limits@_J@std@@2HB DD 012H		; std::numeric_limits<__int64>::digits10
CONST	ENDS
;	COMDAT ?digits@?$numeric_limits@_J@std@@2HB
CONST	SEGMENT
?digits@?$numeric_limits@_J@std@@2HB DD 03fH		; std::numeric_limits<__int64>::digits
CONST	ENDS
;	COMDAT ?end@?$_Iosb@H@std@@2W4_Seekdir@12@B
CONST	SEGMENT
?end@?$_Iosb@H@std@@2W4_Seekdir@12@B DD 02H		; std::_Iosb<int>::end
CONST	ENDS
;	COMDAT ?is_signed@?$numeric_limits@_J@std@@2_NB
CONST	SEGMENT
?is_signed@?$numeric_limits@_J@std@@2_NB DB 01H		; std::numeric_limits<__int64>::is_signed
CONST	ENDS
;	COMDAT ?cur@?$_Iosb@H@std@@2W4_Seekdir@12@B
CONST	SEGMENT
?cur@?$_Iosb@H@std@@2W4_Seekdir@12@B DD 01H		; std::_Iosb<int>::cur
CONST	ENDS
;	COMDAT ?beg@?$_Iosb@H@std@@2W4_Seekdir@12@B
CONST	SEGMENT
?beg@?$_Iosb@H@std@@2W4_Seekdir@12@B DD 00H		; std::_Iosb<int>::beg
CONST	ENDS
;	COMDAT ?binary@?$_Iosb@H@std@@2W4_Openmode@12@B
CONST	SEGMENT
?binary@?$_Iosb@H@std@@2W4_Openmode@12@B DD 020H	; std::_Iosb<int>::binary
CONST	ENDS
;	COMDAT ?_Noreplace@?$_Iosb@H@std@@2W4_Openmode@12@B
CONST	SEGMENT
?_Noreplace@?$_Iosb@H@std@@2W4_Openmode@12@B DD 080H	; std::_Iosb<int>::_Noreplace
CONST	ENDS
;	COMDAT ?_Nocreate@?$_Iosb@H@std@@2W4_Openmode@12@B
CONST	SEGMENT
?_Nocreate@?$_Iosb@H@std@@2W4_Openmode@12@B DD 040H	; std::_Iosb<int>::_Nocreate
CONST	ENDS
;	COMDAT ?trunc@?$_Iosb@H@std@@2W4_Openmode@12@B
CONST	SEGMENT
?trunc@?$_Iosb@H@std@@2W4_Openmode@12@B DD 010H		; std::_Iosb<int>::trunc
CONST	ENDS
;	COMDAT ?app@?$_Iosb@H@std@@2W4_Openmode@12@B
CONST	SEGMENT
?app@?$_Iosb@H@std@@2W4_Openmode@12@B DD 08H		; std::_Iosb<int>::app
CONST	ENDS
;	COMDAT ?ate@?$_Iosb@H@std@@2W4_Openmode@12@B
CONST	SEGMENT
?ate@?$_Iosb@H@std@@2W4_Openmode@12@B DD 04H		; std::_Iosb<int>::ate
CONST	ENDS
;	COMDAT ?out@?$_Iosb@H@std@@2W4_Openmode@12@B
CONST	SEGMENT
?out@?$_Iosb@H@std@@2W4_Openmode@12@B DD 02H		; std::_Iosb<int>::out
CONST	ENDS
;	COMDAT ?in@?$_Iosb@H@std@@2W4_Openmode@12@B
CONST	SEGMENT
?in@?$_Iosb@H@std@@2W4_Openmode@12@B DD 01H		; std::_Iosb<int>::in
CONST	ENDS
;	COMDAT ?digits10@?$numeric_limits@K@std@@2HB
CONST	SEGMENT
?digits10@?$numeric_limits@K@std@@2HB DD 09H		; std::numeric_limits<unsigned long>::digits10
CONST	ENDS
;	COMDAT ?_Hardfail@?$_Iosb@H@std@@2W4_Iostate@12@B
CONST	SEGMENT
?_Hardfail@?$_Iosb@H@std@@2W4_Iostate@12@B DD 010H	; std::_Iosb<int>::_Hardfail
CONST	ENDS
;	COMDAT ?digits@?$numeric_limits@K@std@@2HB
CONST	SEGMENT
?digits@?$numeric_limits@K@std@@2HB DD 020H		; std::numeric_limits<unsigned long>::digits
CONST	ENDS
;	COMDAT ?badbit@?$_Iosb@H@std@@2W4_Iostate@12@B
CONST	SEGMENT
?badbit@?$_Iosb@H@std@@2W4_Iostate@12@B DD 04H		; std::_Iosb<int>::badbit
CONST	ENDS
;	COMDAT ?is_signed@?$numeric_limits@K@std@@2_NB
CONST	SEGMENT
?is_signed@?$numeric_limits@K@std@@2_NB DB 00H		; std::numeric_limits<unsigned long>::is_signed
CONST	ENDS
;	COMDAT ?failbit@?$_Iosb@H@std@@2W4_Iostate@12@B
CONST	SEGMENT
?failbit@?$_Iosb@H@std@@2W4_Iostate@12@B DD 02H		; std::_Iosb<int>::failbit
CONST	ENDS
;	COMDAT ?eofbit@?$_Iosb@H@std@@2W4_Iostate@12@B
CONST	SEGMENT
?eofbit@?$_Iosb@H@std@@2W4_Iostate@12@B DD 01H		; std::_Iosb<int>::eofbit
CONST	ENDS
;	COMDAT ?goodbit@?$_Iosb@H@std@@2W4_Iostate@12@B
CONST	SEGMENT
?goodbit@?$_Iosb@H@std@@2W4_Iostate@12@B DD 00H		; std::_Iosb<int>::goodbit
CONST	ENDS
;	COMDAT ?floatfield@?$_Iosb@H@std@@2W4_Fmtflags@12@B
CONST	SEGMENT
?floatfield@?$_Iosb@H@std@@2W4_Fmtflags@12@B DD 03000H	; std::_Iosb<int>::floatfield
CONST	ENDS
;	COMDAT ?basefield@?$_Iosb@H@std@@2W4_Fmtflags@12@B
CONST	SEGMENT
?basefield@?$_Iosb@H@std@@2W4_Fmtflags@12@B DD 0e00H	; std::_Iosb<int>::basefield
CONST	ENDS
;	COMDAT ?adjustfield@?$_Iosb@H@std@@2W4_Fmtflags@12@B
CONST	SEGMENT
?adjustfield@?$_Iosb@H@std@@2W4_Fmtflags@12@B DD 01c0H	; std::_Iosb<int>::adjustfield
CONST	ENDS
;	COMDAT ?_Stdio@?$_Iosb@H@std@@2W4_Fmtflags@12@B
CONST	SEGMENT
?_Stdio@?$_Iosb@H@std@@2W4_Fmtflags@12@B DD 08000H	; std::_Iosb<int>::_Stdio
CONST	ENDS
;	COMDAT ?boolalpha@?$_Iosb@H@std@@2W4_Fmtflags@12@B
CONST	SEGMENT
?boolalpha@?$_Iosb@H@std@@2W4_Fmtflags@12@B DD 04000H	; std::_Iosb<int>::boolalpha
CONST	ENDS
PUBLIC	??0VU_SESSION_ID@@QAE@K@Z			; VU_SESSION_ID::VU_SESSION_ID
PUBLIC	??8VU_SESSION_ID@@QBEHABV0@@Z			; VU_SESSION_ID::operator==
PUBLIC	??0VU_ID@@QAE@XZ				; VU_ID::VU_ID
PUBLIC	??8VU_ID@@QBE_NABV0@@Z				; VU_ID::operator==
PUBLIC	??9VU_ID@@QBE_NABV0@@Z				; VU_ID::operator!=
PUBLIC	?Id@VuEntity@@QBE?AVVU_ID@@XZ			; VuEntity::Id
PUBLIC	?XPos@VuEntity@@QBEMXZ				; VuEntity::XPos
PUBLIC	?YPos@VuEntity@@QBEMXZ				; VuEntity::YPos
PUBLIC	?EntityType@VuEntity@@QBEPAUVuEntityType@@XZ	; VuEntity::EntityType
PUBLIC	??2@YAPAXIPAX@Z					; operator new
PUBLIC	??3@YAXPAX0@Z					; operator delete
PUBLIC	?length@?$char_traits@D@std@@SAIPBD@Z		; std::char_traits<char>::length
PUBLIC	?copy@?$char_traits@D@std@@SAPADPADPBDI@Z	; std::char_traits<char>::copy
PUBLIC	?move@?$char_traits@D@std@@SAPADPADPBDI@Z	; std::char_traits<char>::move
PUBLIC	?assign@?$char_traits@D@std@@SAXAADABD@Z	; std::char_traits<char>::assign
PUBLIC	??0?$allocator@D@std@@QAE@XZ			; std::allocator<char>::allocator<char>
PUBLIC	?deallocate@?$allocator@D@std@@QAEXPADI@Z	; std::allocator<char>::deallocate
PUBLIC	?allocate@?$allocator@D@std@@QAEPADI@Z		; std::allocator<char>::allocate
PUBLIC	?max_size@?$allocator@D@std@@QBEIXZ		; std::allocator<char>::max_size
PUBLIC	?max_size@?$allocator_traits@V?$allocator@D@std@@@std@@SAIABV?$allocator@D@2@@Z ; std::allocator_traits<std::allocator<char> >::max_size
PUBLIC	??0?$_Wrap_alloc@V?$allocator@D@std@@@std@@QAE@XZ ; std::_Wrap_alloc<std::allocator<char> >::_Wrap_alloc<std::allocator<char> >
PUBLIC	?allocate@?$_Wrap_alloc@V?$allocator@D@std@@@std@@QAEPADI@Z ; std::_Wrap_alloc<std::allocator<char> >::allocate
PUBLIC	?deallocate@?$_Wrap_alloc@V?$allocator@D@std@@@std@@QAEXPADI@Z ; std::_Wrap_alloc<std::allocator<char> >::deallocate
PUBLIC	?max_size@?$_Wrap_alloc@V?$allocator@D@std@@@std@@QBEIXZ ; std::_Wrap_alloc<std::allocator<char> >::max_size
PUBLIC	??0?$_String_val@U?$_Simple_types@D@std@@@std@@QAE@XZ ; std::_String_val<std::_Simple_types<char> >::_String_val<std::_Simple_types<char> >
PUBLIC	?_Myptr@?$_String_val@U?$_Simple_types@D@std@@@std@@QAEPADXZ ; std::_String_val<std::_Simple_types<char> >::_Myptr
PUBLIC	?_Myptr@?$_String_val@U?$_Simple_types@D@std@@@std@@QBEPBDXZ ; std::_String_val<std::_Simple_types<char> >::_Myptr
PUBLIC	??0?$_String_alloc@$0A@U?$_String_base_types@DV?$allocator@D@std@@@std@@@std@@QAE@ABV?$allocator@D@1@@Z ; std::_String_alloc<0,std::_String_base_types<char,std::allocator<char> > >::_String_alloc<0,std::_String_base_types<char,std::allocator<char> > >
PUBLIC	?_Getal@?$_String_alloc@$0A@U?$_String_base_types@DV?$allocator@D@std@@@std@@@std@@QBE?AU?$_Wrap_alloc@V?$allocator@D@std@@@2@XZ ; std::_String_alloc<0,std::_String_base_types<char,std::allocator<char> > >::_Getal
PUBLIC	??0?$basic_string@DU?$char_traits@D@std@@V?$allocator@D@2@@std@@QAE@PBD@Z ; std::basic_string<char,std::char_traits<char>,std::allocator<char> >::basic_string<char,std::char_traits<char>,std::allocator<char> >
PUBLIC	?assign@?$basic_string@DU?$char_traits@D@std@@V?$allocator@D@2@@std@@QAEAAV12@ABV12@II@Z ; std::basic_string<char,std::char_traits<char>,std::allocator<char> >::assign
PUBLIC	?assign@?$basic_string@DU?$char_traits@D@std@@V?$allocator@D@2@@std@@QAEAAV12@PBDI@Z ; std::basic_string<char,std::char_traits<char>,std::allocator<char> >::assign
PUBLIC	?assign@?$basic_string@DU?$char_traits@D@std@@V?$allocator@D@2@@std@@QAEAAV12@PBD@Z ; std::basic_string<char,std::char_traits<char>,std::allocator<char> >::assign
PUBLIC	?erase@?$basic_string@DU?$char_traits@D@std@@V?$allocator@D@2@@std@@QAEAAV12@I@Z ; std::basic_string<char,std::char_traits<char>,std::allocator<char> >::erase
PUBLIC	?erase@?$basic_string@DU?$char_traits@D@std@@V?$allocator@D@2@@std@@QAEAAV12@II@Z ; std::basic_string<char,std::char_traits<char>,std::allocator<char> >::erase
PUBLIC	?size@?$basic_string@DU?$char_traits@D@std@@V?$allocator@D@2@@std@@QBEIXZ ; std::basic_string<char,std::char_traits<char>,std::allocator<char> >::size
PUBLIC	?max_size@?$basic_string@DU?$char_traits@D@std@@V?$allocator@D@2@@std@@QBEIXZ ; std::basic_string<char,std::char_traits<char>,std::allocator<char> >::max_size
PUBLIC	?_Copy@?$basic_string@DU?$char_traits@D@std@@V?$allocator@D@2@@std@@QAEXII@Z ; std::basic_string<char,std::char_traits<char>,std::allocator<char> >::_Copy
PUBLIC	?_Eos@?$basic_string@DU?$char_traits@D@std@@V?$allocator@D@2@@std@@QAEXI@Z ; std::basic_string<char,std::char_traits<char>,std::allocator<char> >::_Eos
PUBLIC	?_Grow@?$basic_string@DU?$char_traits@D@std@@V?$allocator@D@2@@std@@QAE_NI_N@Z ; std::basic_string<char,std::char_traits<char>,std::allocator<char> >::_Grow
PUBLIC	?_Inside@?$basic_string@DU?$char_traits@D@std@@V?$allocator@D@2@@std@@QAE_NPBD@Z ; std::basic_string<char,std::char_traits<char>,std::allocator<char> >::_Inside
PUBLIC	?_Tidy@?$basic_string@DU?$char_traits@D@std@@V?$allocator@D@2@@std@@QAEX_NI@Z ; std::basic_string<char,std::char_traits<char>,std::allocator<char> >::_Tidy
PUBLIC	?_Xlen@?$basic_string@DU?$char_traits@D@std@@V?$allocator@D@2@@std@@QBEXXZ ; std::basic_string<char,std::char_traits<char>,std::allocator<char> >::_Xlen
PUBLIC	?_Xran@?$basic_string@DU?$char_traits@D@std@@V?$allocator@D@2@@std@@QBEXXZ ; std::basic_string<char,std::char_traits<char>,std::allocator<char> >::_Xran
PUBLIC	?GetWPTarget@WayPointClass@@QAEPAVCampBaseClass@@XZ ; WayPointClass::GetWPTarget
PUBLIC	?GetWPAction@WayPointClass@@QAEHXZ		; WayPointClass::GetWPAction
PUBLIC	?GetWPFlags@WayPointClass@@QAEKXZ		; WayPointClass::GetWPFlags
PUBLIC	?GetNextWP@WayPointClass@@QAEPAV1@XZ		; WayPointClass::GetNextWP
PUBLIC	?GetPrevWP@WayPointClass@@QAEPAV1@XZ		; WayPointClass::GetPrevWP
PUBLIC	?GetWPArrivalTime@WayPointClass@@QAEKXZ		; WayPointClass::GetWPArrivalTime
PUBLIC	?GetWPDepartureTime@WayPointClass@@QAEKXZ	; WayPointClass::GetWPDepartureTime
PUBLIC	?GetSType@CampBaseClass@@QBEEXZ			; CampBaseClass::GetSType
PUBLIC	?CampEnterCriticalSection@@YAXXZ		; CampEnterCriticalSection
PUBLIC	?CampLeaveCriticalSection@@YAXXZ		; CampLeaveCriticalSection
PUBLIC	?Final@UnitClass@@QBEHXZ			; UnitClass::Final
PUBLIC	?GetUnitNameID@UnitClass@@QAEHXZ		; UnitClass::GetUnitNameID
PUBLIC	?GetFirstUnitWP@UnitClass@@QAEPAVWayPointClass@@XZ ; UnitClass::GetFirstUnitWP
PUBLIC	?GetLocation@DivisionClass@@QAEXPAF0@Z		; DivisionClass::GetLocation
PUBLIC	?GetDivisionType@DivisionClass@@QAEEXZ		; DivisionClass::GetDivisionType
PUBLIC	?GetLastDirection@FlightClass@@QAEEXZ		; FlightClass::GetLastDirection
PUBLIC	??0id@locale@std@@QAE@I@Z			; std::locale::id::id
PUBLIC	?generic_category@std@@YAABVerror_category@1@XZ	; std::generic_category
PUBLIC	?system_category@std@@YAABVerror_category@1@XZ	; std::system_category
PUBLIC	??0error_category@std@@QAE@XZ			; std::error_category::error_category
PUBLIC	??1error_category@std@@UAE@XZ			; std::error_category::~error_category
PUBLIC	?default_error_condition@error_category@std@@UBE?AVerror_condition@2@H@Z ; std::error_category::default_error_condition
PUBLIC	?equivalent@error_category@std@@UBE_NHABVerror_condition@2@@Z ; std::error_category::equivalent
PUBLIC	?equivalent@error_category@std@@UBE_NABVerror_code@2@H@Z ; std::error_category::equivalent
PUBLIC	??8error_category@std@@QBE_NABV01@@Z		; std::error_category::operator==
PUBLIC	??_Gerror_category@std@@UAEPAXI@Z		; std::error_category::`scalar deleting destructor'
PUBLIC	?value@error_code@std@@QBEHXZ			; std::error_code::value
PUBLIC	?category@error_code@std@@QBEABVerror_category@2@XZ ; std::error_code::category
PUBLIC	??0error_condition@std@@QAE@HABVerror_category@1@@Z ; std::error_condition::error_condition
PUBLIC	?value@error_condition@std@@QBEHXZ		; std::error_condition::value
PUBLIC	?category@error_condition@std@@QBEABVerror_category@2@XZ ; std::error_condition::category
PUBLIC	??8error_condition@std@@QBE_NABV01@@Z		; std::error_condition::operator==
PUBLIC	??0_Generic_error_category@std@@QAE@XZ		; std::_Generic_error_category::_Generic_error_category
PUBLIC	?name@_Generic_error_category@std@@UBEPBDXZ	; std::_Generic_error_category::name
PUBLIC	?message@_Generic_error_category@std@@UBE?AV?$basic_string@DU?$char_traits@D@std@@V?$allocator@D@2@@2@H@Z ; std::_Generic_error_category::message
PUBLIC	??1_Generic_error_category@std@@UAE@XZ		; std::_Generic_error_category::~_Generic_error_category
PUBLIC	??_G_Generic_error_category@std@@UAEPAXI@Z	; std::_Generic_error_category::`scalar deleting destructor'
PUBLIC	??0_Iostream_error_category@std@@QAE@XZ		; std::_Iostream_error_category::_Iostream_error_category
PUBLIC	?name@_Iostream_error_category@std@@UBEPBDXZ	; std::_Iostream_error_category::name
PUBLIC	?message@_Iostream_error_category@std@@UBE?AV?$basic_string@DU?$char_traits@D@std@@V?$allocator@D@2@@2@H@Z ; std::_Iostream_error_category::message
PUBLIC	??1_Iostream_error_category@std@@UAE@XZ		; std::_Iostream_error_category::~_Iostream_error_category
PUBLIC	??_G_Iostream_error_category@std@@UAEPAXI@Z	; std::_Iostream_error_category::`scalar deleting destructor'
PUBLIC	??0_System_error_category@std@@QAE@XZ		; std::_System_error_category::_System_error_category
PUBLIC	?name@_System_error_category@std@@UBEPBDXZ	; std::_System_error_category::name
PUBLIC	?message@_System_error_category@std@@UBE?AV?$basic_string@DU?$char_traits@D@std@@V?$allocator@D@2@@2@H@Z ; std::_System_error_category::message
PUBLIC	?default_error_condition@_System_error_category@std@@UBE?AVerror_condition@2@H@Z ; std::_System_error_category::default_error_condition
PUBLIC	??1_System_error_category@std@@UAE@XZ		; std::_System_error_category::~_System_error_category
PUBLIC	??_G_System_error_category@std@@UAEPAXI@Z	; std::_System_error_category::`scalar deleting destructor'
PUBLIC	?SetSrcRect@O_Output@@QAEXPAUUI95_RECT@@@Z	; O_Output::SetSrcRect
PUBLIC	?SetDestRect@O_Output@@QAEXPAUUI95_RECT@@@Z	; O_Output::SetDestRect
PUBLIC	?SetClient@C_Base@@QAEXF@Z			; C_Base::SetClient
PUBLIC	?GetID@C_Base@@QAEJXZ				; C_Base::GetID
PUBLIC	?GetW@C_Base@@QAEJXZ				; C_Base::GetW
PUBLIC	?GetH@C_Base@@QAEJXZ				; C_Base::GetH
PUBLIC	?GetOverlay@C_ScaleBitmap@@QAEPAEXZ		; C_ScaleBitmap::GetOverlay
PUBLIC	?UseOverlay@C_ScaleBitmap@@QAEXXZ		; C_ScaleBitmap::UseOverlay
PUBLIC	?NoOverlay@C_ScaleBitmap@@QAEXXZ		; C_ScaleBitmap::NoOverlay
PUBLIC	?SetSrcRect@C_ScaleBitmap@@QAEXPAUUI95_RECT@@@Z	; C_ScaleBitmap::SetSrcRect
PUBLIC	?SetDestRect@C_ScaleBitmap@@QAEXPAUUI95_RECT@@@Z ; C_ScaleBitmap::SetDestRect
PUBLIC	?SetScaleInfo@C_ScaleBitmap@@QAEXJ@Z		; C_ScaleBitmap::SetScaleInfo
PUBLIC	?AddIconToList@C_MapIcon@@QAEPAVMAPICONLIST@@JFJMMFPADJJJJJ@Z ; C_MapIcon::AddIconToList
PUBLIC	?AddIconToList@C_MapIcon@@QAEPAVMAPICONLIST@@JFJMMFPADJJ@Z ; C_MapIcon::AddIconToList
PUBLIC	?SetTeam@C_MapIcon@@QAEXF@Z			; C_MapIcon::SetTeam
PUBLIC	?GetThreat@C_Threat@@QAEPAUTHREAT_CIRCLE@@J@Z	; C_Threat::GetThreat
PUBLIC	?SetWorldRange@C_Waypoint@@QAEXMMMM@Z		; C_Waypoint::SetWorldRange
PUBLIC	?GetRoot@C_Waypoint@@QAEPAVWAYPOINTLIST@@XZ	; C_Waypoint::GetRoot
PUBLIC	?Dragging@C_Waypoint@@QAEFXZ			; C_Waypoint::Dragging
PUBLIC	?SetColor@C_BullsEye@@QAEXK@Z			; C_BullsEye::SetColor
PUBLIC	?CalculateDrawingParams@C_Map@@AAEXXZ		; C_Map::CalculateDrawingParams
PUBLIC	?BuildWPList@C_Map@@AAEXPAVC_Waypoint@@0PAVUnitClass@@@Z ; C_Map::BuildWPList
PUBLIC	?BuildCurrentWPList@C_Map@@AAEXPAVUnitClass@@@Z	; C_Map::BuildCurrentWPList
PUBLIC	?AddListsToWindow@C_Map@@AAEXXZ			; C_Map::AddListsToWindow
PUBLIC	?RemoveListsFromWindow@C_Map@@AAEXXZ		; C_Map::RemoveListsFromWindow
PUBLIC	?SetTeamScales@C_Map@@AAEXXZ			; C_Map::SetTeamScales
PUBLIC	??0C_Map@@QAE@XZ				; C_Map::C_Map
PUBLIC	??1C_Map@@QAE@XZ				; C_Map::~C_Map
PUBLIC	?SetupOverlay@C_Map@@QAEXXZ			; C_Map::SetupOverlay
PUBLIC	?Cleanup@C_Map@@QAEXXZ				; C_Map::Cleanup
PUBLIC	?SetMapImage@C_Map@@QAEXJ@Z			; C_Map::SetMapImage
PUBLIC	?SetWindow@C_Map@@QAEXPAVC_Window@@@Z		; C_Map::SetWindow
PUBLIC	?SetWPZWindow@C_Map@@QAEXPAVC_Window@@@Z	; C_Map::SetWPZWindow
PUBLIC	?SetTeamFlags@C_Map@@QAEXJJ@Z			; C_Map::SetTeamFlags
PUBLIC	?GetTeamFlags@C_Map@@QAEJJ@Z			; C_Map::GetTeamFlags
PUBLIC	?FitFlightPlan@C_Map@@QAEXXZ			; C_Map::FitFlightPlan
PUBLIC	?SetZoomLevel@C_Map@@QAEXF@Z			; C_Map::SetZoomLevel
PUBLIC	?ZoomIn@C_Map@@QAEXXZ				; C_Map::ZoomIn
PUBLIC	?ZoomOut@C_Map@@QAEXXZ				; C_Map::ZoomOut
PUBLIC	?SetBullsEye@C_Map@@QAEXMM@Z			; C_Map::SetBullsEye
PUBLIC	?SetUnitLevel@C_Map@@QAEXJ@Z			; C_Map::SetUnitLevel
PUBLIC	?ShowObjectiveType@C_Map@@QAEXJ@Z		; C_Map::ShowObjectiveType
PUBLIC	?HideObjectiveType@C_Map@@QAEXJ@Z		; C_Map::HideObjectiveType
PUBLIC	?ShowUnitType@C_Map@@QAEXJ@Z			; C_Map::ShowUnitType
PUBLIC	?HideUnitType@C_Map@@QAEXJ@Z			; C_Map::HideUnitType
PUBLIC	?ShowAirUnitType@C_Map@@QAEXJ@Z			; C_Map::ShowAirUnitType
PUBLIC	?HideAirUnitType@C_Map@@QAEXJ@Z			; C_Map::HideAirUnitType
PUBLIC	?RefreshAllAirUnitType@C_Map@@QAEXXZ		; C_Map::RefreshAllAirUnitType
PUBLIC	?ShowNavalUnitType@C_Map@@QAEXJ@Z		; C_Map::ShowNavalUnitType
PUBLIC	?HideNavalUnitType@C_Map@@QAEXJ@Z		; C_Map::HideNavalUnitType
PUBLIC	?ShowThreatType@C_Map@@QAEXJ@Z			; C_Map::ShowThreatType
PUBLIC	?HideThreatType@C_Map@@QAEXJ@Z			; C_Map::HideThreatType
PUBLIC	?SetMapCenter@C_Map@@QAEXJJ@Z			; C_Map::SetMapCenter
PUBLIC	?MoveCenter@C_Map@@QAEXJJ@Z			; C_Map::MoveCenter
PUBLIC	?SetWaypointList@C_Map@@QAEHVVU_ID@@@Z		; C_Map::SetWaypointList
PUBLIC	?SetCurrentWaypointList@C_Map@@QAEHVVU_ID@@@Z	; C_Map::SetCurrentWaypointList
PUBLIC	?RemoveCurWPList@C_Map@@QAEXXZ			; C_Map::RemoveCurWPList
PUBLIC	?RemoveAllWaypoints@C_Map@@QAEXF@Z		; C_Map::RemoveAllWaypoints
PUBLIC	?RemoveWaypoints@C_Map@@QAEXFJ@Z		; C_Map::RemoveWaypoints
PUBLIC	?RemoveAllEntities@C_Map@@QAEXXZ		; C_Map::RemoveAllEntities
PUBLIC	?RemoveFromCurIcons@C_Map@@QAEXJ@Z		; C_Map::RemoveFromCurIcons
PUBLIC	?AddToCurIcons@C_Map@@QAEXPAVMAPICONLIST@@@Z	; C_Map::AddToCurIcons
PUBLIC	?CenterOnIcon@C_Map@@QAEXPAVMAPICONLIST@@@Z	; C_Map::CenterOnIcon
PUBLIC	?AddThreat@C_Map@@QAEPAUTHREAT_LIST@@PAVCampBaseClass@@@Z ; C_Map::AddThreat
PUBLIC	?AddObjective@C_Map@@QAEPAVMAPICONLIST@@PAVObjectiveClass@@@Z ; C_Map::AddObjective
PUBLIC	?AddDivision@C_Map@@QAEPAVMAPICONLIST@@PAVDivisionClass@@@Z ; C_Map::AddDivision
PUBLIC	?AddUnit@C_Map@@QAEPAVMAPICONLIST@@PAVUnitClass@@@Z ; C_Map::AddUnit
PUBLIC	?AddFlight@C_Map@@QAEPAVMAPICONLIST@@PAVFlightClass@@@Z ; C_Map::AddFlight
PUBLIC	?AddSquadron@C_Map@@QAEPAVMAPICONLIST@@PAVSquadronClass@@@Z ; C_Map::AddSquadron
PUBLIC	?AddPackage@C_Map@@QAEPAVMAPICONLIST@@PAVPackageClass@@@Z ; C_Map::AddPackage
PUBLIC	?AddVC@C_Map@@QAEPAVMAPICONLIST@@PAVvictory_condition@@@Z ; C_Map::AddVC
PUBLIC	?UpdateWaypoint@C_Map@@QAEXPAVFlightClass@@@Z	; C_Map::UpdateWaypoint
PUBLIC	?UpdateVC@C_Map@@QAEXPAVvictory_condition@@@Z	; C_Map::UpdateVC
PUBLIC	?RemoveVC@C_Map@@QAEXJJ@Z			; C_Map::RemoveVC
PUBLIC	?RemoveOldWaypoints@C_Map@@QAEXXZ		; C_Map::RemoveOldWaypoints
PUBLIC	?TurnOnNames@C_Map@@QAEXXZ			; C_Map::TurnOnNames
PUBLIC	?TurnOnBoundaries@C_Map@@QAEXXZ			; C_Map::TurnOnBoundaries
PUBLIC	?TurnOnArrows@C_Map@@QAEXXZ			; C_Map::TurnOnArrows
PUBLIC	?TurnOffNames@C_Map@@QAEXXZ			; C_Map::TurnOffNames
PUBLIC	?TurnOffBoundaries@C_Map@@QAEXXZ		; C_Map::TurnOffBoundaries
PUBLIC	?TurnOffArrows@C_Map@@QAEXXZ			; C_Map::TurnOffArrows
PUBLIC	?TurnOnBullseye@C_Map@@QAEXXZ			; C_Map::TurnOnBullseye
PUBLIC	?TurnOffBullseye@C_Map@@QAEXXZ			; C_Map::TurnOffBullseye
PUBLIC	?DrawMap@C_Map@@QAEXXZ				; C_Map::DrawMap
PUBLIC	?SetAllObjCallbacks@C_Map@@QAEXP6AXJFPAVC_Base@@@Z@Z ; C_Map::SetAllObjCallbacks
PUBLIC	?SetAllAirUnitCallbacks@C_Map@@QAEXP6AXJFPAVC_Base@@@Z@Z ; C_Map::SetAllAirUnitCallbacks
PUBLIC	?SetAllGroundUnitCallbacks@C_Map@@QAEXP6AXJFPAVC_Base@@@Z@Z ; C_Map::SetAllGroundUnitCallbacks
PUBLIC	?SetAllNavalUnitCallbacks@C_Map@@QAEXP6AXJFPAVC_Base@@@Z@Z ; C_Map::SetAllNavalUnitCallbacks
PUBLIC	?SetObjCallbacks@C_Map@@QAEXJP6AXJFPAVC_Base@@@Z@Z ; C_Map::SetObjCallbacks
PUBLIC	?SetAirUnitCallbacks@C_Map@@QAEXJP6AXJFPAVC_Base@@@Z@Z ; C_Map::SetAirUnitCallbacks
PUBLIC	?SetGroundUnitCallbacks@C_Map@@QAEXJJP6AXJFPAVC_Base@@@Z@Z ; C_Map::SetGroundUnitCallbacks
PUBLIC	?SetNavalUnitCallbacks@C_Map@@QAEXJP6AXJFPAVC_Base@@@Z@Z ; C_Map::SetNavalUnitCallbacks
PUBLIC	?GetObjIconList@C_Map@@QAEPAVC_MapIcon@@JJ@Z	; C_Map::GetObjIconList
PUBLIC	?RecalcWaypointZs@C_Map@@QAEXJ@Z		; C_Map::RecalcWaypointZs
PUBLIC	?RemapTeamColors@C_Map@@QAEXJ@Z			; C_Map::RemapTeamColors
PUBLIC	?GetTeamNo@GlobalPositioningSystem@@QAEJXZ	; GlobalPositioningSystem::GetTeamNo
PUBLIC	??$construct@PADAAPAD@?$_Wrap_alloc@V?$allocator@D@std@@@std@@QAEXPAPADAAPAD@Z ; std::_Wrap_alloc<std::allocator<char> >::construct<char *,char * &>
PUBLIC	??$destroy@PAD@?$_Wrap_alloc@V?$allocator@D@std@@@std@@QAEXPAPAD@Z ; std::_Wrap_alloc<std::allocator<char> >::destroy<char *>
PUBLIC	??$addressof@D@std@@YAPADAAD@Z			; std::addressof<char>
PUBLIC	??$_Allocate@D@std@@YAPADIPAD@Z			; std::_Allocate<char>
PUBLIC	??$forward@AAPAD@std@@YAAAPADAAPAD@Z		; std::forward<char * &>
PUBLIC	??$construct@PADAAPAD@?$allocator_traits@V?$allocator@D@std@@@std@@SAXAAV?$allocator@D@1@PAPADAAPAD@Z ; std::allocator_traits<std::allocator<char> >::construct<char *,char * &>
PUBLIC	??$destroy@PAD@?$allocator_traits@V?$allocator@D@std@@@std@@SAXAAV?$allocator@D@1@PAPAD@Z ; std::allocator_traits<std::allocator<char> >::destroy<char *>
PUBLIC	??$construct@PADAAPAD@?$allocator@D@std@@QAEXPAPADAAPAD@Z ; std::allocator<char>::construct<char *,char * &>
PUBLIC	??$destroy@PAD@?$allocator@D@std@@QAEXPAPAD@Z	; std::allocator<char>::destroy<char *>
PUBLIC	??_7error_category@std@@6B@			; std::error_category::`vftable'
PUBLIC	??_7_Generic_error_category@std@@6B@		; std::_Generic_error_category::`vftable'
PUBLIC	??_C@_07DCLBNMLN@generic?$AA@			; `string'
PUBLIC	??_C@_0O@BFJCFAAK@unknown?5error?$AA@		; `string'
PUBLIC	??_7_Iostream_error_category@std@@6B@		; std::_Iostream_error_category::`vftable'
PUBLIC	??_C@_08LLGCOLLL@iostream?$AA@			; `string'
PUBLIC	??_C@_0BG@PADBLCHM@iostream?5stream?5error?$AA@	; `string'
PUBLIC	??_7_System_error_category@std@@6B@		; std::_System_error_category::`vftable'
PUBLIC	??_C@_06FHFOAHML@system?$AA@			; `string'
PUBLIC	?_Generic_object@?$_Error_objects@H@std@@2V_Generic_error_category@2@A ; std::_Error_objects<int>::_Generic_object
PUBLIC	?_Iostream_object@?$_Error_objects@H@std@@2V_Iostream_error_category@2@A ; std::_Error_objects<int>::_Iostream_object
PUBLIC	?_System_object@?$_Error_objects@H@std@@2V_System_error_category@2@A ; std::_Error_objects<int>::_System_object
PUBLIC	?id@?$num_put@DV?$back_insert_iterator@V?$basic_string@DU?$char_traits@D@std@@V?$allocator@D@2@@std@@@std@@@std@@2V0locale@2@A ; std::num_put<char,std::back_insert_iterator<std::basic_string<char,std::char_traits<char>,std::allocator<char> > > >::id
PUBLIC	?id@?$num_put@_WV?$back_insert_iterator@V?$basic_string@_WU?$char_traits@_W@std@@V?$allocator@_W@2@@std@@@std@@@std@@2V0locale@2@A ; std::num_put<wchar_t,std::back_insert_iterator<std::basic_string<wchar_t,std::char_traits<wchar_t>,std::allocator<wchar_t> > > >::id
PUBLIC	??_C@_05NCAJEJLJ@?$DMunk?$DO?$AA@		; `string'
PUBLIC	??_C@_07PAINCAHD@?$CFs?5?$CF1ld?$AA@		; `string'
PUBLIC	??_C@_05NDPOMAGE@?$CF1?41f?$AA@			; `string'
PUBLIC	??_C@_03GNGPFOOL@?$CF1d?$AA@			; `string'
PUBLIC	??_C@_02DKCKIIND@?$CFs?$AA@			; `string'
PUBLIC	??_C@_0BB@IPEEPKNC@Start?5at?5?$CF1ld?4?4?4?$AA@ ; `string'
PUBLIC	??_C@_0BB@DJFFJCHP@Total?5time?$DN?$CF1ld?6?$AA@ ; `string'
PUBLIC	?id@?$numpunct@D@std@@2V0locale@2@A		; std::numpunct<char>::id
PUBLIC	?id@?$numpunct@_W@std@@2V0locale@2@A		; std::numpunct<wchar_t>::id
PUBLIC	??_C@_0BI@CFPLBAOH@invalid?5string?5position?$AA@ ; `string'
PUBLIC	??_C@_0BA@JFNIOLAK@string?5too?5long?$AA@	; `string'
PUBLIC	??_R4error_category@std@@6B@			; std::error_category::`RTTI Complete Object Locator'
PUBLIC	??_R0?AVerror_category@std@@@8			; std::error_category `RTTI Type Descriptor'
PUBLIC	??_R3error_category@std@@8			; std::error_category::`RTTI Class Hierarchy Descriptor'
PUBLIC	??_R2error_category@std@@8			; std::error_category::`RTTI Base Class Array'
PUBLIC	??_R1A@?0A@EA@error_category@std@@8		; std::error_category::`RTTI Base Class Descriptor at (0,-1,0,64)'
PUBLIC	??_R4_Generic_error_category@std@@6B@		; std::_Generic_error_category::`RTTI Complete Object Locator'
PUBLIC	??_R0?AV_Generic_error_category@std@@@8		; std::_Generic_error_category `RTTI Type Descriptor'
PUBLIC	??_R3_Generic_error_category@std@@8		; std::_Generic_error_category::`RTTI Class Hierarchy Descriptor'
PUBLIC	??_R2_Generic_error_category@std@@8		; std::_Generic_error_category::`RTTI Base Class Array'
PUBLIC	??_R1A@?0A@EA@_Generic_error_category@std@@8	; std::_Generic_error_category::`RTTI Base Class Descriptor at (0,-1,0,64)'
PUBLIC	??_R4_Iostream_error_category@std@@6B@		; std::_Iostream_error_category::`RTTI Complete Object Locator'
PUBLIC	??_R0?AV_Iostream_error_category@std@@@8	; std::_Iostream_error_category `RTTI Type Descriptor'
PUBLIC	??_R3_Iostream_error_category@std@@8		; std::_Iostream_error_category::`RTTI Class Hierarchy Descriptor'
PUBLIC	??_R2_Iostream_error_category@std@@8		; std::_Iostream_error_category::`RTTI Base Class Array'
PUBLIC	??_R1A@?0A@EA@_Iostream_error_category@std@@8	; std::_Iostream_error_category::`RTTI Base Class Descriptor at (0,-1,0,64)'
PUBLIC	??_R4_System_error_category@std@@6B@		; std::_System_error_category::`RTTI Complete Object Locator'
PUBLIC	??_R0?AV_System_error_category@std@@@8		; std::_System_error_category `RTTI Type Descriptor'
PUBLIC	??_R3_System_error_category@std@@8		; std::_System_error_category::`RTTI Class Hierarchy Descriptor'
PUBLIC	??_R2_System_error_category@std@@8		; std::_System_error_category::`RTTI Base Class Array'
PUBLIC	??_R1A@?0A@EA@_System_error_category@std@@8	; std::_System_error_category::`RTTI Base Class Descriptor at (0,-1,0,64)'
PUBLIC	__real@00000000
PUBLIC	__real@0000000000000000
PUBLIC	__real@392c987a
PUBLIC	__real@399fcd90
PUBLIC	__real@3f09fbe7
PUBLIC	__real@3f800000
PUBLIC	__real@3fe0000000000000
PUBLIC	__real@40000000
PUBLIC	__real@42c80000
PUBLIC	__real@44ccffae
PUBLIC	__real@44cd0000
PUBLIC	__real@45000000
PUBLIC	__real@454cffae
EXTRN	__purecall:PROC
EXTRN	??2@YAPAXI@Z:PROC				; operator new
EXTRN	??3@YAXPAX@Z:PROC				; operator delete
EXTRN	_atexit:PROC
EXTRN	___report_rangecheckfailure:PROC
EXTRN	_memcpy:PROC
EXTRN	_memset:PROC
EXTRN	_strcpy:PROC
EXTRN	_strlen:PROC
EXTRN	_memmove:PROC
EXTRN	__imp__GetTickCount@0:PROC
EXTRN	__snprintf:PROC
EXTRN	_sprintf:PROC
EXTRN	_MonoPrint:PROC
EXTRN	??_U@YAPAXI@Z:PROC				; operator new[]
EXTRN	?_Xbad_alloc@std@@YAXXZ:PROC			; std::_Xbad_alloc
EXTRN	?_Xlength_error@std@@YAXPBD@Z:PROC		; std::_Xlength_error
EXTRN	?_Xout_of_range@std@@YAXPBD@Z:PROC		; std::_Xout_of_range
EXTRN	?Find@VuDatabase@@QBEPAVVuEntity@@VVU_ID@@@Z:PROC ; VuDatabase::Find
EXTRN	?GetLocation@FalconEntity@@QBEXPAF0@Z:PROC	; FalconEntity::GetLocation
EXTRN	?GetLocation@WayPointClass@@QBEXPAM00@Z:PROC	; WayPointClass::GetLocation
EXTRN	?GetVehicleClassData@@YAPAUVehicleClassDataType@@H@Z:PROC ; GetVehicleClassData
EXTRN	_F4EnterCriticalSection:PROC
EXTRN	_F4LeaveCriticalSection:PROC
EXTRN	?GetBullseyeLocation@CampaignClass@@QAEXPAF0@Z:PROC ; CampaignClass::GetBullseyeLocation
EXTRN	?GetUnitClassData@UnitClass@@QAEPAUUnitClassDataType@@XZ:PROC ; UnitClass::GetUnitClassData
EXTRN	?GetVehicleID@UnitClass@@QAEFH@Z:PROC		; UnitClass::GetVehicleID
EXTRN	?GetTotalVehicles@UnitClass@@QAEHXZ:PROC	; UnitClass::GetTotalVehicles
EXTRN	?GetFullstrengthVehicles@UnitClass@@QAEHXZ:PROC	; UnitClass::GetFullstrengthVehicles
EXTRN	?GetCurrentUnitWP@UnitClass@@QBEPAVWayPointClass@@XZ:PROC ; UnitClass::GetCurrentUnitWP
EXTRN	?HasRadarRanges@ObjectiveClass@@QAEHXZ:PROC	; ObjectiveClass::HasRadarRanges
EXTRN	?GetObjectiveClassData@ObjectiveClass@@QAEPAUObjClassDataType@@XZ:PROC ; ObjectiveClass::GetObjectiveClassData
EXTRN	?FindUnit@@YAPAVUnitClass@@VVU_ID@@@Z:PROC	; FindUnit
EXTRN	?GetName@DivisionClass@@QAEPADPADHH@Z:PROC	; DivisionClass::GetName
EXTRN	?GetFirstUnitElement@DivisionClass@@QAEPAVUnitClass@@XZ:PROC ; DivisionClass::GetFirstUnitElement
EXTRN	?GetCallsign@@YAXPAVFlightClass@@PAD@Z:PROC	; GetCallsign
EXTRN	?GetOverrideWP@FlightClass@@QAEPAVWayPointClass@@XZ:PROC ; FlightClass::GetOverrideWP
EXTRN	??_Eerror_category@std@@UAEPAXI@Z:PROC		; std::error_category::`vector deleting destructor'
EXTRN	?_Syserror_map@std@@YAPBDH@Z:PROC		; std::_Syserror_map
EXTRN	?_Winerror_map@std@@YAPBDH@Z:PROC		; std::_Winerror_map
EXTRN	??_E_Generic_error_category@std@@UAEPAXI@Z:PROC	; std::_Generic_error_category::`vector deleting destructor'
EXTRN	??_E_Iostream_error_category@std@@UAEPAXI@Z:PROC ; std::_Iostream_error_category::`vector deleting destructor'
EXTRN	??_E_System_error_category@std@@UAEPAXI@Z:PROC	; std::_System_error_category::`vector deleting destructor'
EXTRN	?Find@C_Hash@@QAEPAXJ@Z:PROC			; C_Hash::Find
EXTRN	?GetString@C_String@@QAEPADJ@Z:PROC		; C_String::GetString
EXTRN	?AddText@C_String@@QAEJPBD@Z:PROC		; C_String::AddText
EXTRN	?GetText@C_String@@QAEPADJ@Z:PROC		; C_String::GetText
EXTRN	?SetScaleInfo@O_Output@@QAEXJ@Z:PROC		; O_Output::SetScaleInfo
EXTRN	?UI_Enter@@YAPAUF4CSECTIONHANDLE@@PAVC_Window@@@Z:PROC ; UI_Enter
EXTRN	?UI_Leave@@YAXPAUF4CSECTIONHANDLE@@@Z:PROC	; UI_Leave
EXTRN	?SetUserNumber@C_Base@@QAEXJJ@Z:PROC		; C_Base::SetUserNumber
EXTRN	?SetUserCleanupPtr@C_Base@@QAEXJPAX@Z:PROC	; C_Base::SetUserCleanupPtr
EXTRN	?SetText@C_Button@@QAEXFJ@Z:PROC		; C_Button::SetText
EXTRN	??0C_ScaleBitmap@@QAE@XZ:PROC			; C_ScaleBitmap::C_ScaleBitmap
EXTRN	?Setup@C_ScaleBitmap@@QAEXJFJ@Z:PROC		; C_ScaleBitmap::Setup
EXTRN	?InitOverlay@C_ScaleBitmap@@QAEXXZ:PROC		; C_ScaleBitmap::InitOverlay
EXTRN	?ClearOverlay@C_ScaleBitmap@@QAEXXZ:PROC	; C_ScaleBitmap::ClearOverlay
EXTRN	?PreparePalette@C_ScaleBitmap@@QAEXK@Z:PROC	; C_ScaleBitmap::PreparePalette
EXTRN	?SetImage@C_ScaleBitmap@@QAEXJ@Z:PROC		; C_ScaleBitmap::SetImage
EXTRN	?AddControl@C_Window@@QAEXPAVC_Base@@@Z:PROC	; C_Window::AddControl
EXTRN	?RemoveControl@C_Window@@QAEXJ@Z:PROC		; C_Window::RemoveControl
EXTRN	?RefreshWindow@C_Window@@QAEXXZ:PROC		; C_Window::RefreshWindow
EXTRN	??0C_MapIcon@@QAE@XZ:PROC			; C_MapIcon::C_MapIcon
EXTRN	?Setup@C_MapIcon@@QAEXJF@Z:PROC			; C_MapIcon::Setup
EXTRN	?SetMainImage@C_MapIcon@@QAEXFJJ@Z:PROC		; C_MapIcon::SetMainImage
EXTRN	?SetMainImage@C_MapIcon@@QAEXJJ@Z:PROC		; C_MapIcon::SetMainImage
EXTRN	?AddIconToList@C_MapIcon@@QAEPAVMAPICONLIST@@JFJMMFPADJJJJJPAUDETECTOR@@@Z:PROC ; C_MapIcon::AddIconToList
EXTRN	?RemoveIcon@C_MapIcon@@QAEXJ@Z:PROC		; C_MapIcon::RemoveIcon
EXTRN	?SetScaleFactor@C_MapIcon@@QAEXM@Z:PROC		; C_MapIcon::SetScaleFactor
EXTRN	?FindID@C_MapIcon@@QAEPAVMAPICONLIST@@J@Z:PROC	; C_MapIcon::FindID
EXTRN	?RemapIconImages@C_MapIcon@@QAEXXZ:PROC		; C_MapIcon::RemapIconImages
EXTRN	??0C_Threat@@QAE@XZ:PROC			; C_Threat::C_Threat
EXTRN	?Setup@C_Threat@@QAEXJJ@Z:PROC			; C_Threat::Setup
EXTRN	?AddCircle@C_Threat@@QAEXJJJJJ@Z:PROC		; C_Threat::AddCircle
EXTRN	?SetRadius@C_Threat@@QAEXJJJ@Z:PROC		; C_Threat::SetRadius
EXTRN	?BuildOverlay@C_Threat@@QAEXPAEJJM@Z:PROC	; C_Threat::BuildOverlay
EXTRN	??0C_Waypoint@@QAE@XZ:PROC			; C_Waypoint::C_Waypoint
EXTRN	?Setup@C_Waypoint@@QAEXJF@Z:PROC		; C_Waypoint::Setup
EXTRN	?AddWaypointToList@C_Waypoint@@QAEPAVWAYPOINTLIST@@JFJJJMMF@Z:PROC ; C_Waypoint::AddWaypointToList
EXTRN	?EraseWaypointList@C_Waypoint@@QAEXXZ:PROC	; C_Waypoint::EraseWaypointList
EXTRN	?EraseWaypointGroup@C_Waypoint@@QAEXJ@Z:PROC	; C_Waypoint::EraseWaypointGroup
EXTRN	?SetScaleFactor@C_Waypoint@@QAEXM@Z:PROC	; C_Waypoint::SetScaleFactor
EXTRN	?SetScaleType@C_Waypoint@@QAEXF@Z:PROC		; C_Waypoint::SetScaleType
EXTRN	?SetWPGroup@C_Waypoint@@QAEXJJ@Z:PROC		; C_Waypoint::SetWPGroup
EXTRN	?SetState@C_Waypoint@@QAEXJF@Z:PROC		; C_Waypoint::SetState
EXTRN	?SetGroupState@C_Waypoint@@QAEXJF@Z:PROC	; C_Waypoint::SetGroupState
EXTRN	?SetLabel@C_Waypoint@@QAEXJPAD@Z:PROC		; C_Waypoint::SetLabel
EXTRN	?SetLabelColor@C_Waypoint@@QAEXJKKK@Z:PROC	; C_Waypoint::SetLabelColor
EXTRN	?SetLineColor@C_Waypoint@@QAEXJKKK@Z:PROC	; C_Waypoint::SetLineColor
EXTRN	?SetTextOffset@C_Waypoint@@QAEXJFF@Z:PROC	; C_Waypoint::SetTextOffset
EXTRN	??0C_DrawList@@QAE@XZ:PROC			; C_DrawList::C_DrawList
EXTRN	?Setup@C_DrawList@@QAEXJF@Z:PROC		; C_DrawList::Setup
EXTRN	?Add@C_DrawList@@QAEXPAVMAPICONLIST@@@Z:PROC	; C_DrawList::Add
EXTRN	?Remove@C_DrawList@@QAEXJ@Z:PROC		; C_DrawList::Remove
EXTRN	??0C_BullsEye@@QAE@XZ:PROC			; C_BullsEye::C_BullsEye
EXTRN	?Setup@C_BullsEye@@QAEXJF@Z:PROC		; C_BullsEye::Setup
EXTRN	?SetPos@C_BullsEye@@QAEXMM@Z:PROC		; C_BullsEye::SetPos
EXTRN	?SetScale@C_BullsEye@@QAEXM@Z:PROC		; C_BullsEye::SetScale
EXTRN	?FindTypeIndex@@YAJJQAJH@Z:PROC			; FindTypeIndex
EXTRN	?GetObjectiveType@@YAJPAVCampBaseClass@@@Z:PROC	; GetObjectiveType
EXTRN	?GetAirIcon@@YAJE@Z:PROC			; GetAirIcon
EXTRN	?FindDivisionType@@YAJE@Z:PROC			; FindDivisionType
EXTRN	?FindUnitType@@YAJPAVUnitClass@@@Z:PROC		; FindUnitType
EXTRN	?get_team@victory_condition@@QAEHXZ:PROC	; victory_condition::get_team
EXTRN	?get_vu_id@victory_condition@@QAE?AVVU_ID@@XZ:PROC ; victory_condition::get_vu_id
EXTRN	?get_number@victory_condition@@QAEHXZ:PROC	; victory_condition::get_number
EXTRN	?Find@GlobalPositioningSystem@@QAEPAXJ@Z:PROC	; GlobalPositioningSystem::Find
EXTRN	?WaypointCB@@YAXJFPAVC_Base@@@Z:PROC		; WaypointCB
EXTRN	?UnitCB@@YAXJFPAVC_Base@@@Z:PROC		; UnitCB
EXTRN	?IsValidWP@@YAHPAVWayPointClass@@PAVFlightClass@@@Z:PROC ; IsValidWP
EXTRN	?Uni_Float@@YAXPAD@Z:PROC			; Uni_Float
EXTRN	@__security_check_cookie@4:PROC
EXTRN	__CxxThrowException@8:PROC
EXTRN	___CxxFrameHandler3:PROC
EXTRN	?vuDatabase@@3PAVVuDatabase@@A:DWORD		; vuDatabase
EXTRN	?FalconNullId@@3VVU_ID@@A:QWORD			; FalconNullId
EXTRN	?Map_Max_Y@@3FA:WORD				; Map_Max_Y
EXTRN	??_7type_info@@6B@:QWORD			; type_info::`vftable'
EXTRN	?campCritical@@3PAUF4CSECTIONHANDLE@@A:DWORD	; campCritical
EXTRN	?TheCampaign@@3VCampaignClass@@A:BYTE		; TheCampaign
EXTRN	?gStringMgr@@3PAVC_String@@A:DWORD		; gStringMgr
EXTRN	?AirIcons@@3PAUAIR_ICONS@@A:BYTE		; AirIcons
EXTRN	?OBJ_TypeList@@3PAJA:BYTE			; OBJ_TypeList
EXTRN	?NAV_TypeList@@3PAJA:QWORD			; NAV_TypeList
EXTRN	?AIR_TypeList@@3PAJA:BYTE			; AIR_TypeList
EXTRN	?GND_TypeList@@3PAJA:BYTE			; GND_TypeList
EXTRN	?GND_LevelList@@3PAJA:BYTE			; GND_LevelList
EXTRN	?THR_TypeList@@3PAJA:BYTE			; THR_TypeList
EXTRN	?gActiveFlightID@@3VVU_ID@@A:QWORD		; gActiveFlightID
EXTRN	?gMoveBattalion@@3HA:DWORD			; gMoveBattalion
EXTRN	?gGps@@3PAVGlobalPositioningSystem@@A:DWORD	; gGps
EXTRN	?g_bAWACSBackground@@3_NA:BYTE			; g_bAWACSBackground
EXTRN	___security_cookie:DWORD
EXTRN	__fltused:DWORD
_BSS	SEGMENT
_piecewise_construct DB 01H DUP (?)
_allocator_arg DB 01H DUP (?)
_BSS	ENDS
;	COMDAT ?_Generic_object@?$_Error_objects@H@std@@2V_Generic_error_category@2@A
_BSS	SEGMENT
?_Generic_object@?$_Error_objects@H@std@@2V_Generic_error_category@2@A DD 01H DUP (?) ; std::_Error_objects<int>::_Generic_object
_BSS	ENDS
;	COMDAT ?_Iostream_object@?$_Error_objects@H@std@@2V_Iostream_error_category@2@A
_BSS	SEGMENT
?_Iostream_object@?$_Error_objects@H@std@@2V_Iostream_error_category@2@A DD 01H DUP (?) ; std::_Error_objects<int>::_Iostream_object
_BSS	ENDS
;	COMDAT ?_System_object@?$_Error_objects@H@std@@2V_System_error_category@2@A
_BSS	SEGMENT
?_System_object@?$_Error_objects@H@std@@2V_System_error_category@2@A DD 01H DUP (?) ; std::_Error_objects<int>::_System_object
_BSS	ENDS
;	COMDAT ?id@?$num_put@DV?$back_insert_iterator@V?$basic_string@DU?$char_traits@D@std@@V?$allocator@D@2@@std@@@std@@@std@@2V0locale@2@A
_BSS	SEGMENT
?id@?$num_put@DV?$back_insert_iterator@V?$basic_string@DU?$char_traits@D@std@@V?$allocator@D@2@@std@@@std@@@std@@2V0locale@2@A DD 01H DUP (?) ; std::num_put<char,std::back_insert_iterator<std::basic_string<char,std::char_traits<char>,std::allocator<char> > > >::id
_BSS	ENDS
;	COMDAT ?id@?$num_put@_WV?$back_insert_iterator@V?$basic_string@_WU?$char_traits@_W@std@@V?$allocator@_W@2@@std@@@std@@@std@@2V0locale@2@A
_BSS	SEGMENT
?id@?$num_put@_WV?$back_insert_iterator@V?$basic_string@_WU?$char_traits@_W@std@@V?$allocator@_W@2@@std@@@std@@@std@@2V0locale@2@A DD 01H DUP (?) ; std::num_put<wchar_t,std::back_insert_iterator<std::basic_string<wchar_t,std::char_traits<wchar_t>,std::allocator<wchar_t> > > >::id
_BSS	ENDS
;	COMDAT ?id@?$numpunct@D@std@@2V0locale@2@A
_BSS	SEGMENT
?id@?$numpunct@D@std@@2V0locale@2@A DD 01H DUP (?)	; std::numpunct<char>::id
_BSS	ENDS
;	COMDAT ?id@?$numpunct@_W@std@@2V0locale@2@A
_BSS	SEGMENT
?id@?$numpunct@_W@std@@2V0locale@2@A DD 01H DUP (?)	; std::numpunct<wchar_t>::id
_BSS	ENDS
CRT$XCU	SEGMENT
_piecewise_construct$initializer$ DD FLAT:??__Epiecewise_construct@std@@YAXXZ
CRT$XCU	ENDS
;	COMDAT __real@454cffae
CONST	SEGMENT
__real@454cffae DD 0454cffaer			; 3279.98
CONST	ENDS
;	COMDAT __real@45000000
CONST	SEGMENT
__real@45000000 DD 045000000r			; 2048
CONST	ENDS
;	COMDAT __real@44cd0000
CONST	SEGMENT
__real@44cd0000 DD 044cd0000r			; 1640
CONST	ENDS
;	COMDAT __real@44ccffae
CONST	SEGMENT
__real@44ccffae DD 044ccffaer			; 1639.99
CONST	ENDS
;	COMDAT __real@42c80000
CONST	SEGMENT
__real@42c80000 DD 042c80000r			; 100
CONST	ENDS
;	COMDAT __real@40000000
CONST	SEGMENT
__real@40000000 DD 040000000r			; 2
CONST	ENDS
;	COMDAT __real@3fe0000000000000
CONST	SEGMENT
__real@3fe0000000000000 DQ 03fe0000000000000r	; 0.5
CONST	ENDS
;	COMDAT __real@3f800000
CONST	SEGMENT
__real@3f800000 DD 03f800000r			; 1
CONST	ENDS
;	COMDAT __real@3f09fbe7
CONST	SEGMENT
__real@3f09fbe7 DD 03f09fbe7r			; 0.539
CONST	ENDS
;	COMDAT __real@399fcd90
CONST	SEGMENT
__real@399fcd90 DD 0399fcd90r			; 0.0003048
CONST	ENDS
;	COMDAT __real@392c987a
CONST	SEGMENT
__real@392c987a DD 0392c987ar			; 0.0001646
CONST	ENDS
;	COMDAT __real@0000000000000000
CONST	SEGMENT
__real@0000000000000000 DQ 00000000000000000r	; 0
CONST	ENDS
;	COMDAT __real@00000000
CONST	SEGMENT
__real@00000000 DD 000000000r			; 0
CONST	ENDS
;	COMDAT ??_R1A@?0A@EA@_System_error_category@std@@8
rdata$r	SEGMENT
??_R1A@?0A@EA@_System_error_category@std@@8 DD FLAT:??_R0?AV_System_error_category@std@@@8 ; std::_System_error_category::`RTTI Base Class Descriptor at (0,-1,0,64)'
	DD	02H
	DD	00H
	DD	0ffffffffH
	DD	00H
	DD	040H
	DD	FLAT:??_R3_System_error_category@std@@8
rdata$r	ENDS
;	COMDAT ??_R2_System_error_category@std@@8
rdata$r	SEGMENT
??_R2_System_error_category@std@@8 DD FLAT:??_R1A@?0A@EA@_System_error_category@std@@8 ; std::_System_error_category::`RTTI Base Class Array'
	DD	FLAT:??_R1A@?0A@EA@_Generic_error_category@std@@8
	DD	FLAT:??_R1A@?0A@EA@error_category@std@@8
rdata$r	ENDS
;	COMDAT ??_R3_System_error_category@std@@8
rdata$r	SEGMENT
??_R3_System_error_category@std@@8 DD 00H		; std::_System_error_category::`RTTI Class Hierarchy Descriptor'
	DD	00H
	DD	03H
	DD	FLAT:??_R2_System_error_category@std@@8
rdata$r	ENDS
;	COMDAT ??_R0?AV_System_error_category@std@@@8
_DATA	SEGMENT
??_R0?AV_System_error_category@std@@@8 DD FLAT:??_7type_info@@6B@ ; std::_System_error_category `RTTI Type Descriptor'
	DD	00H
	DB	'.?AV_System_error_category@std@@', 00H
_DATA	ENDS
;	COMDAT ??_R4_System_error_category@std@@6B@
rdata$r	SEGMENT
??_R4_System_error_category@std@@6B@ DD 00H		; std::_System_error_category::`RTTI Complete Object Locator'
	DD	00H
	DD	00H
	DD	FLAT:??_R0?AV_System_error_category@std@@@8
	DD	FLAT:??_R3_System_error_category@std@@8
rdata$r	ENDS
;	COMDAT ??_R1A@?0A@EA@_Iostream_error_category@std@@8
rdata$r	SEGMENT
??_R1A@?0A@EA@_Iostream_error_category@std@@8 DD FLAT:??_R0?AV_Iostream_error_category@std@@@8 ; std::_Iostream_error_category::`RTTI Base Class Descriptor at (0,-1,0,64)'
	DD	02H
	DD	00H
	DD	0ffffffffH
	DD	00H
	DD	040H
	DD	FLAT:??_R3_Iostream_error_category@std@@8
rdata$r	ENDS
;	COMDAT ??_R2_Iostream_error_category@std@@8
rdata$r	SEGMENT
??_R2_Iostream_error_category@std@@8 DD FLAT:??_R1A@?0A@EA@_Iostream_error_category@std@@8 ; std::_Iostream_error_category::`RTTI Base Class Array'
	DD	FLAT:??_R1A@?0A@EA@_Generic_error_category@std@@8
	DD	FLAT:??_R1A@?0A@EA@error_category@std@@8
rdata$r	ENDS
;	COMDAT ??_R3_Iostream_error_category@std@@8
rdata$r	SEGMENT
??_R3_Iostream_error_category@std@@8 DD 00H		; std::_Iostream_error_category::`RTTI Class Hierarchy Descriptor'
	DD	00H
	DD	03H
	DD	FLAT:??_R2_Iostream_error_category@std@@8
rdata$r	ENDS
;	COMDAT ??_R0?AV_Iostream_error_category@std@@@8
_DATA	SEGMENT
??_R0?AV_Iostream_error_category@std@@@8 DD FLAT:??_7type_info@@6B@ ; std::_Iostream_error_category `RTTI Type Descriptor'
	DD	00H
	DB	'.?AV_Iostream_error_category@std@@', 00H
_DATA	ENDS
;	COMDAT ??_R4_Iostream_error_category@std@@6B@
rdata$r	SEGMENT
??_R4_Iostream_error_category@std@@6B@ DD 00H		; std::_Iostream_error_category::`RTTI Complete Object Locator'
	DD	00H
	DD	00H
	DD	FLAT:??_R0?AV_Iostream_error_category@std@@@8
	DD	FLAT:??_R3_Iostream_error_category@std@@8
rdata$r	ENDS
;	COMDAT ??_R1A@?0A@EA@_Generic_error_category@std@@8
rdata$r	SEGMENT
??_R1A@?0A@EA@_Generic_error_category@std@@8 DD FLAT:??_R0?AV_Generic_error_category@std@@@8 ; std::_Generic_error_category::`RTTI Base Class Descriptor at (0,-1,0,64)'
	DD	01H
	DD	00H
	DD	0ffffffffH
	DD	00H
	DD	040H
	DD	FLAT:??_R3_Generic_error_category@std@@8
rdata$r	ENDS
;	COMDAT ??_R2_Generic_error_category@std@@8
rdata$r	SEGMENT
??_R2_Generic_error_category@std@@8 DD FLAT:??_R1A@?0A@EA@_Generic_error_category@std@@8 ; std::_Generic_error_category::`RTTI Base Class Array'
	DD	FLAT:??_R1A@?0A@EA@error_category@std@@8
rdata$r	ENDS
;	COMDAT ??_R3_Generic_error_category@std@@8
rdata$r	SEGMENT
??_R3_Generic_error_category@std@@8 DD 00H		; std::_Generic_error_category::`RTTI Class Hierarchy Descriptor'
	DD	00H
	DD	02H
	DD	FLAT:??_R2_Generic_error_category@std@@8
rdata$r	ENDS
;	COMDAT ??_R0?AV_Generic_error_category@std@@@8
_DATA	SEGMENT
??_R0?AV_Generic_error_category@std@@@8 DD FLAT:??_7type_info@@6B@ ; std::_Generic_error_category `RTTI Type Descriptor'
	DD	00H
	DB	'.?AV_Generic_error_category@std@@', 00H
_DATA	ENDS
;	COMDAT ??_R4_Generic_error_category@std@@6B@
rdata$r	SEGMENT
??_R4_Generic_error_category@std@@6B@ DD 00H		; std::_Generic_error_category::`RTTI Complete Object Locator'
	DD	00H
	DD	00H
	DD	FLAT:??_R0?AV_Generic_error_category@std@@@8
	DD	FLAT:??_R3_Generic_error_category@std@@8
rdata$r	ENDS
;	COMDAT ??_R1A@?0A@EA@error_category@std@@8
rdata$r	SEGMENT
??_R1A@?0A@EA@error_category@std@@8 DD FLAT:??_R0?AVerror_category@std@@@8 ; std::error_category::`RTTI Base Class Descriptor at (0,-1,0,64)'
	DD	00H
	DD	00H
	DD	0ffffffffH
	DD	00H
	DD	040H
	DD	FLAT:??_R3error_category@std@@8
rdata$r	ENDS
;	COMDAT ??_R2error_category@std@@8
rdata$r	SEGMENT
??_R2error_category@std@@8 DD FLAT:??_R1A@?0A@EA@error_category@std@@8 ; std::error_category::`RTTI Base Class Array'
rdata$r	ENDS
;	COMDAT ??_R3error_category@std@@8
rdata$r	SEGMENT
??_R3error_category@std@@8 DD 00H			; std::error_category::`RTTI Class Hierarchy Descriptor'
	DD	00H
	DD	01H
	DD	FLAT:??_R2error_category@std@@8
rdata$r	ENDS
;	COMDAT ??_R0?AVerror_category@std@@@8
_DATA	SEGMENT
??_R0?AVerror_category@std@@@8 DD FLAT:??_7type_info@@6B@ ; std::error_category `RTTI Type Descriptor'
	DD	00H
	DB	'.?AVerror_category@std@@', 00H
_DATA	ENDS
;	COMDAT ??_R4error_category@std@@6B@
rdata$r	SEGMENT
??_R4error_category@std@@6B@ DD 00H			; std::error_category::`RTTI Complete Object Locator'
	DD	00H
	DD	00H
	DD	FLAT:??_R0?AVerror_category@std@@@8
	DD	FLAT:??_R3error_category@std@@8
rdata$r	ENDS
;	COMDAT ??_C@_0BA@JFNIOLAK@string?5too?5long?$AA@
CONST	SEGMENT
??_C@_0BA@JFNIOLAK@string?5too?5long?$AA@ DB 'string too long', 00H ; `string'
CONST	ENDS
;	COMDAT ??_C@_0BI@CFPLBAOH@invalid?5string?5position?$AA@
CONST	SEGMENT
??_C@_0BI@CFPLBAOH@invalid?5string?5position?$AA@ DB 'invalid string posi'
	DB	'tion', 00H					; `string'
CONST	ENDS
;	COMDAT ??_C@_0BB@DJFFJCHP@Total?5time?$DN?$CF1ld?6?$AA@
CONST	SEGMENT
??_C@_0BB@DJFFJCHP@Total?5time?$DN?$CF1ld?6?$AA@ DB 'Total time=%1ld', 0aH
	DB	00H						; `string'
CONST	ENDS
;	COMDAT ??_C@_0BB@IPEEPKNC@Start?5at?5?$CF1ld?4?4?4?$AA@
CONST	SEGMENT
??_C@_0BB@IPEEPKNC@Start?5at?5?$CF1ld?4?4?4?$AA@ DB 'Start at %1ld...', 00H ; `string'
CONST	ENDS
;	COMDAT ??_C@_02DKCKIIND@?$CFs?$AA@
CONST	SEGMENT
??_C@_02DKCKIIND@?$CFs?$AA@ DB '%s', 00H		; `string'
CONST	ENDS
;	COMDAT ??_C@_03GNGPFOOL@?$CF1d?$AA@
CONST	SEGMENT
??_C@_03GNGPFOOL@?$CF1d?$AA@ DB '%1d', 00H		; `string'
CONST	ENDS
;	COMDAT ??_C@_05NDPOMAGE@?$CF1?41f?$AA@
CONST	SEGMENT
??_C@_05NDPOMAGE@?$CF1?41f?$AA@ DB '%1.1f', 00H		; `string'
CONST	ENDS
;	COMDAT ??_C@_07PAINCAHD@?$CFs?5?$CF1ld?$AA@
CONST	SEGMENT
??_C@_07PAINCAHD@?$CFs?5?$CF1ld?$AA@ DB '%s %1ld', 00H	; `string'
CONST	ENDS
;	COMDAT ??_C@_05NCAJEJLJ@?$DMunk?$DO?$AA@
CONST	SEGMENT
??_C@_05NCAJEJLJ@?$DMunk?$DO?$AA@ DB '<unk>', 00H	; `string'
CONST	ENDS
;	COMDAT ??_C@_06FHFOAHML@system?$AA@
CONST	SEGMENT
??_C@_06FHFOAHML@system?$AA@ DB 'system', 00H		; `string'
CONST	ENDS
;	COMDAT ??_7_System_error_category@std@@6B@
CONST	SEGMENT
??_7_System_error_category@std@@6B@ DD FLAT:??_R4_System_error_category@std@@6B@ ; std::_System_error_category::`vftable'
	DD	FLAT:??_E_System_error_category@std@@UAEPAXI@Z
	DD	FLAT:?name@_System_error_category@std@@UBEPBDXZ
	DD	FLAT:?message@_System_error_category@std@@UBE?AV?$basic_string@DU?$char_traits@D@std@@V?$allocator@D@2@@2@H@Z
	DD	FLAT:?default_error_condition@_System_error_category@std@@UBE?AVerror_condition@2@H@Z
	DD	FLAT:?equivalent@error_category@std@@UBE_NABVerror_code@2@H@Z
	DD	FLAT:?equivalent@error_category@std@@UBE_NHABVerror_condition@2@@Z
CONST	ENDS
;	COMDAT ??_C@_0BG@PADBLCHM@iostream?5stream?5error?$AA@
CONST	SEGMENT
??_C@_0BG@PADBLCHM@iostream?5stream?5error?$AA@ DB 'iostream stream error'
	DB	00H						; `string'
CONST	ENDS
;	COMDAT ??_C@_08LLGCOLLL@iostream?$AA@
CONST	SEGMENT
??_C@_08LLGCOLLL@iostream?$AA@ DB 'iostream', 00H	; `string'
CONST	ENDS
;	COMDAT ??_7_Iostream_error_category@std@@6B@
CONST	SEGMENT
??_7_Iostream_error_category@std@@6B@ DD FLAT:??_R4_Iostream_error_category@std@@6B@ ; std::_Iostream_error_category::`vftable'
	DD	FLAT:??_E_Iostream_error_category@std@@UAEPAXI@Z
	DD	FLAT:?name@_Iostream_error_category@std@@UBEPBDXZ
	DD	FLAT:?message@_Iostream_error_category@std@@UBE?AV?$basic_string@DU?$char_traits@D@std@@V?$allocator@D@2@@2@H@Z
	DD	FLAT:?default_error_condition@error_category@std@@UBE?AVerror_condition@2@H@Z
	DD	FLAT:?equivalent@error_category@std@@UBE_NABVerror_code@2@H@Z
	DD	FLAT:?equivalent@error_category@std@@UBE_NHABVerror_condition@2@@Z
CONST	ENDS
;	COMDAT ??_C@_0O@BFJCFAAK@unknown?5error?$AA@
CONST	SEGMENT
??_C@_0O@BFJCFAAK@unknown?5error?$AA@ DB 'unknown error', 00H ; `string'
CONST	ENDS
;	COMDAT ??_C@_07DCLBNMLN@generic?$AA@
CONST	SEGMENT
??_C@_07DCLBNMLN@generic?$AA@ DB 'generic', 00H		; `string'
CONST	ENDS
;	COMDAT ??_7_Generic_error_category@std@@6B@
CONST	SEGMENT
??_7_Generic_error_category@std@@6B@ DD FLAT:??_R4_Generic_error_category@std@@6B@ ; std::_Generic_error_category::`vftable'
	DD	FLAT:??_E_Generic_error_category@std@@UAEPAXI@Z
	DD	FLAT:?name@_Generic_error_category@std@@UBEPBDXZ
	DD	FLAT:?message@_Generic_error_category@std@@UBE?AV?$basic_string@DU?$char_traits@D@std@@V?$allocator@D@2@@2@H@Z
	DD	FLAT:?default_error_condition@error_category@std@@UBE?AVerror_condition@2@H@Z
	DD	FLAT:?equivalent@error_category@std@@UBE_NABVerror_code@2@H@Z
	DD	FLAT:?equivalent@error_category@std@@UBE_NHABVerror_condition@2@@Z
CONST	ENDS
;	COMDAT ??_7error_category@std@@6B@
CONST	SEGMENT
??_7error_category@std@@6B@ DD FLAT:??_R4error_category@std@@6B@ ; std::error_category::`vftable'
	DD	FLAT:??_Eerror_category@std@@UAEPAXI@Z
	DD	FLAT:__purecall
	DD	FLAT:__purecall
	DD	FLAT:?default_error_condition@error_category@std@@UBE?AVerror_condition@2@H@Z
	DD	FLAT:?equivalent@error_category@std@@UBE_NABVerror_code@2@H@Z
	DD	FLAT:?equivalent@error_category@std@@UBE_NHABVerror_condition@2@@Z
CONST	ENDS
;	COMDAT xdata$x
xdata$x	SEGMENT
__unwindtable$??$construct@PADAAPAD@?$allocator@D@std@@QAEXPAPADAAPAD@Z DD 0ffffffffH
	DD	FLAT:__unwindfunclet$??$construct@PADAAPAD@?$allocator@D@std@@QAEXPAPADAAPAD@Z$0
__ehfuncinfo$??$construct@PADAAPAD@?$allocator@D@std@@QAEXPAPADAAPAD@Z DD 019930522H
	DD	01H
	DD	FLAT:__unwindtable$??$construct@PADAAPAD@?$allocator@D@std@@QAEXPAPADAAPAD@Z
	DD	2 DUP(00H)
	DD	2 DUP(00H)
	DD	00H
	DD	01H
xdata$x	ENDS
xdata$x	SEGMENT
__unwindtable$?SetMapImage@C_Map@@QAEXJ@Z DD 0ffffffffH
	DD	FLAT:__unwindfunclet$?SetMapImage@C_Map@@QAEXJ@Z$0
__unwindtable$?BuildWPList@C_Map@@AAEXPAVC_Waypoint@@0PAVUnitClass@@@Z DD 0ffffffffH
	DD	FLAT:__unwindfunclet$?BuildWPList@C_Map@@AAEXPAVC_Waypoint@@0PAVUnitClass@@@Z$0
__unwindtable$?BuildCurrentWPList@C_Map@@AAEXPAVUnitClass@@@Z DD 0ffffffffH
	DD	FLAT:__unwindfunclet$?BuildCurrentWPList@C_Map@@AAEXPAVUnitClass@@@Z$0
	DD	0ffffffffH
	DD	FLAT:__unwindfunclet$?BuildCurrentWPList@C_Map@@AAEXPAVUnitClass@@@Z$1
	DD	0ffffffffH
	DD	FLAT:__unwindfunclet$?BuildCurrentWPList@C_Map@@AAEXPAVUnitClass@@@Z$2
	DD	0ffffffffH
	DD	FLAT:__unwindfunclet$?BuildCurrentWPList@C_Map@@AAEXPAVUnitClass@@@Z$3
__ehfuncinfo$?SetMapImage@C_Map@@QAEXJ@Z DD 019930522H
	DD	01H
	DD	FLAT:__unwindtable$?SetMapImage@C_Map@@QAEXJ@Z
	DD	2 DUP(00H)
	DD	2 DUP(00H)
	DD	00H
	DD	01H
__ehfuncinfo$?AddListsToWindow@C_Map@@AAEXXZ DD 019930522H
	DD	0bH
	DD	FLAT:__unwindtable$?AddListsToWindow@C_Map@@AAEXXZ
	DD	2 DUP(00H)
	DD	2 DUP(00H)
	DD	00H
	DD	01H
__ehfuncinfo$?BuildCurrentWPList@C_Map@@AAEXPAVUnitClass@@@Z DD 019930522H
	DD	04H
	DD	FLAT:__unwindtable$?BuildCurrentWPList@C_Map@@AAEXPAVUnitClass@@@Z
	DD	2 DUP(00H)
	DD	2 DUP(00H)
	DD	00H
	DD	01H
__ehfuncinfo$?BuildWPList@C_Map@@AAEXPAVC_Waypoint@@0PAVUnitClass@@@Z DD 019930522H
	DD	01H
	DD	FLAT:__unwindtable$?BuildWPList@C_Map@@AAEXPAVC_Waypoint@@0PAVUnitClass@@@Z
	DD	2 DUP(00H)
	DD	2 DUP(00H)
	DD	00H
	DD	01H
__unwindtable$?AddListsToWindow@C_Map@@AAEXXZ DD 0ffffffffH
	DD	FLAT:__unwindfunclet$?AddListsToWindow@C_Map@@AAEXXZ$0
	DD	0ffffffffH
	DD	FLAT:__unwindfunclet$?AddListsToWindow@C_Map@@AAEXXZ$1
	DD	0ffffffffH
	DD	FLAT:__unwindfunclet$?AddListsToWindow@C_Map@@AAEXXZ$2
	DD	0ffffffffH
	DD	FLAT:__unwindfunclet$?AddListsToWindow@C_Map@@AAEXXZ$3
	DD	0ffffffffH
	DD	FLAT:__unwindfunclet$?AddListsToWindow@C_Map@@AAEXXZ$4
	DD	0ffffffffH
	DD	FLAT:__unwindfunclet$?AddListsToWindow@C_Map@@AAEXXZ$5
	DD	0ffffffffH
	DD	FLAT:__unwindfunclet$?AddListsToWindow@C_Map@@AAEXXZ$6
	DD	0ffffffffH
	DD	FLAT:__unwindfunclet$?AddListsToWindow@C_Map@@AAEXXZ$7
	DD	0ffffffffH
	DD	FLAT:__unwindfunclet$?AddListsToWindow@C_Map@@AAEXXZ$8
	DD	0ffffffffH
	DD	FLAT:__unwindfunclet$?AddListsToWindow@C_Map@@AAEXXZ$9
	DD	0ffffffffH
	DD	FLAT:__unwindfunclet$?AddListsToWindow@C_Map@@AAEXXZ$10
xdata$x	ENDS
;	COMDAT xdata$x
xdata$x	SEGMENT
__catchsym$?_Copy@?$basic_string@DU?$char_traits@D@std@@V?$allocator@D@2@@std@@QAEXII@Z$5 DD 040H
	DD	00H
	DD	00H
	DD	FLAT:__catch$?_Copy@?$basic_string@DU?$char_traits@D@std@@V?$allocator@D@2@@std@@QAEXII@Z$0
__catchsym$?_Copy@?$basic_string@DU?$char_traits@D@std@@V?$allocator@D@2@@std@@QAEXII@Z$4 DD 040H
	DD	00H
	DD	00H
	DD	FLAT:__catch$?_Copy@?$basic_string@DU?$char_traits@D@std@@V?$allocator@D@2@@std@@QAEXII@Z$1
__unwindtable$?_Copy@?$basic_string@DU?$char_traits@D@std@@V?$allocator@D@2@@std@@QAEXII@Z DD 0ffffffffH
	DD	00H
	DD	0ffffffffH
	DD	00H
	DD	01H
	DD	00H
	DD	01H
	DD	00H
__ehfuncinfo$?_Copy@?$basic_string@DU?$char_traits@D@std@@V?$allocator@D@2@@std@@QAEXII@Z DD 019930522H
	DD	04H
	DD	FLAT:__unwindtable$?_Copy@?$basic_string@DU?$char_traits@D@std@@V?$allocator@D@2@@std@@QAEXII@Z
	DD	02H
	DD	FLAT:__tryblocktable$?_Copy@?$basic_string@DU?$char_traits@D@std@@V?$allocator@D@2@@std@@QAEXII@Z
	DD	2 DUP(00H)
	DD	00H
	DD	01H
__tryblocktable$?_Copy@?$basic_string@DU?$char_traits@D@std@@V?$allocator@D@2@@std@@QAEXII@Z DD 02H
	DD	02H
	DD	03H
	DD	01H
	DD	FLAT:__catchsym$?_Copy@?$basic_string@DU?$char_traits@D@std@@V?$allocator@D@2@@std@@QAEXII@Z$4
	DD	00H
	DD	00H
	DD	03H
	DD	01H
	DD	FLAT:__catchsym$?_Copy@?$basic_string@DU?$char_traits@D@std@@V?$allocator@D@2@@std@@QAEXII@Z$5
xdata$x	ENDS
CRT$XCU	SEGMENT
_allocator_arg$initializer$ DD FLAT:??__Eallocator_arg@std@@YAXXZ
CRT$XCU	ENDS
;	COMDAT CRT$XCU
CRT$XCU	SEGMENT
?_Generic_object$initializer$@?$_Error_objects@H@std@@2P6AXXZA DD FLAT:??__E?_Generic_object@?$_Error_objects@H@std@@2V_Generic_error_category@2@A@@YAXXZ ; std::_Error_objects<int>::_Generic_object$initializer$
CRT$XCU	ENDS
;	COMDAT CRT$XCU
CRT$XCU	SEGMENT
?_Iostream_object$initializer$@?$_Error_objects@H@std@@2P6AXXZA DD FLAT:??__E?_Iostream_object@?$_Error_objects@H@std@@2V_Iostream_error_category@2@A@@YAXXZ ; std::_Error_objects<int>::_Iostream_object$initializer$
CRT$XCU	ENDS
;	COMDAT CRT$XCU
CRT$XCU	SEGMENT
?_System_object$initializer$@?$_Error_objects@H@std@@2P6AXXZA DD FLAT:??__E?_System_object@?$_Error_objects@H@std@@2V_System_error_category@2@A@@YAXXZ ; std::_Error_objects<int>::_System_object$initializer$
CRT$XCU	ENDS
;	COMDAT CRT$XCU
CRT$XCU	SEGMENT
?id$initializer$@?$num_put@DV?$back_insert_iterator@V?$basic_string@DU?$char_traits@D@std@@V?$allocator@D@2@@std@@@std@@@std@@2P6AXXZA DD FLAT:??__E?id@?$num_put@DV?$back_insert_iterator@V?$basic_string@DU?$char_traits@D@std@@V?$allocator@D@2@@std@@@std@@@std@@2V0locale@2@A@@YAXXZ ; std::num_put<char,std::back_insert_iterator<std::basic_string<char,std::char_traits<char>,std::allocator<char> > > >::id$initializer$
CRT$XCU	ENDS
;	COMDAT CRT$XCU
CRT$XCU	SEGMENT
?id$initializer$@?$num_put@_WV?$back_insert_iterator@V?$basic_string@_WU?$char_traits@_W@std@@V?$allocator@_W@2@@std@@@std@@@std@@2P6AXXZA DD FLAT:??__E?id@?$num_put@_WV?$back_insert_iterator@V?$basic_string@_WU?$char_traits@_W@std@@V?$allocator@_W@2@@std@@@std@@@std@@2V0locale@2@A@@YAXXZ ; std::num_put<wchar_t,std::back_insert_iterator<std::basic_string<wchar_t,std::char_traits<wchar_t>,std::allocator<wchar_t> > > >::id$initializer$
CRT$XCU	ENDS
;	COMDAT CRT$XCU
CRT$XCU	SEGMENT
?id$initializer$@?$numpunct@D@std@@2P6AXXZA DD FLAT:??__E?id@?$numpunct@D@std@@2V0locale@2@A@@YAXXZ ; std::numpunct<char>::id$initializer$
CRT$XCU	ENDS
;	COMDAT CRT$XCU
CRT$XCU	SEGMENT
?id$initializer$@?$numpunct@_W@std@@2P6AXXZA DD FLAT:??__E?id@?$numpunct@_W@std@@2V0locale@2@A@@YAXXZ ; std::numpunct<wchar_t>::id$initializer$
CRT$XCU	ENDS
; Function compile flags: /Odtp
; File c:\program files (x86)\microsoft visual studio 11.0\vc\include\xmemory0
;	COMDAT ??$destroy@PAD@?$allocator@D@std@@QAEXPAPAD@Z
_TEXT	SEGMENT
_this$ = -4						; size = 4
__Ptr$ = 8						; size = 4
??$destroy@PAD@?$allocator@D@std@@QAEXPAPAD@Z PROC	; std::allocator<char>::destroy<char *>, COMDAT
; _this$ = ecx

; 621  : 		void destroy(_Uty *_Ptr)

	push	ebp
	mov	ebp, esp
	push	ecx
	mov	DWORD PTR _this$[ebp], ecx

; 622  : 		{	// destroy object at _Ptr
; 623  : 		_Ptr->~_Uty();
; 624  : 		}

	mov	esp, ebp
	pop	ebp
	ret	4
??$destroy@PAD@?$allocator@D@std@@QAEXPAPAD@Z ENDP	; std::allocator<char>::destroy<char *>
_TEXT	ENDS
; Function compile flags: /Odtp
; File c:\program files (x86)\microsoft visual studio 11.0\vc\include\xmemory0
;	COMDAT ??$construct@PADAAPAD@?$allocator@D@std@@QAEXPAPADAAPAD@Z
_TEXT	SEGMENT
$T2 = -28						; size = 4
_this$ = -24						; size = 4
tv73 = -20						; size = 4
$T3 = -16						; size = 4
__$EHRec$ = -12						; size = 12
__Ptr$ = 8						; size = 4
__V0$ = 12						; size = 4
??$construct@PADAAPAD@?$allocator@D@std@@QAEXPAPADAAPAD@Z PROC ; std::allocator<char>::construct<char *,char * &>, COMDAT
; _this$ = ecx

; 617  : _VARIADIC_EXPAND_0X(_ALLOC_MEMBER_CONSTRUCT, , , , )

	push	ebp
	mov	ebp, esp
	push	-1
	push	__ehhandler$??$construct@PADAAPAD@?$allocator@D@std@@QAEXPAPADAAPAD@Z
	mov	eax, DWORD PTR fs:0
	push	eax
	sub	esp, 16					; 00000010H
	mov	eax, DWORD PTR ___security_cookie
	xor	eax, ebp
	push	eax
	lea	eax, DWORD PTR __$EHRec$[ebp]
	mov	DWORD PTR fs:0, eax
	mov	DWORD PTR _this$[ebp], ecx
	mov	eax, DWORD PTR __Ptr$[ebp]
	push	eax
	push	4
	call	??2@YAPAXIPAX@Z				; operator new
	add	esp, 8
	mov	DWORD PTR $T3[ebp], eax
	mov	DWORD PTR __$EHRec$[ebp+8], 0
	cmp	DWORD PTR $T3[ebp], 0
	je	SHORT $LN3@construct
	mov	ecx, DWORD PTR __V0$[ebp]
	push	ecx
	call	??$forward@AAPAD@std@@YAAAPADAAPAD@Z	; std::forward<char * &>
	add	esp, 4
	mov	edx, DWORD PTR $T3[ebp]
	mov	eax, DWORD PTR [eax]
	mov	DWORD PTR [edx], eax
	mov	ecx, DWORD PTR $T3[ebp]
	mov	DWORD PTR tv73[ebp], ecx
	jmp	SHORT $LN4@construct
$LN3@construct:
	mov	DWORD PTR tv73[ebp], 0
$LN4@construct:
	mov	edx, DWORD PTR tv73[ebp]
	mov	DWORD PTR $T2[ebp], edx
	mov	DWORD PTR __$EHRec$[ebp+8], -1
	mov	ecx, DWORD PTR __$EHRec$[ebp]
	mov	DWORD PTR fs:0, ecx
	pop	ecx
	mov	esp, ebp
	pop	ebp
	ret	8
_TEXT	ENDS
;	COMDAT text$x
text$x	SEGMENT
__unwindfunclet$??$construct@PADAAPAD@?$allocator@D@std@@QAEXPAPADAAPAD@Z$0:
	mov	eax, DWORD PTR __Ptr$[ebp]
	push	eax
	mov	eax, DWORD PTR $T3[ebp]
	push	eax
	call	??3@YAXPAX0@Z				; operator delete
	add	esp, 8
	ret	0
__ehhandler$??$construct@PADAAPAD@?$allocator@D@std@@QAEXPAPADAAPAD@Z:
	mov	edx, DWORD PTR [esp+8]
	lea	eax, DWORD PTR [edx+12]
	mov	ecx, DWORD PTR [edx-20]
	xor	ecx, eax
	call	@__security_check_cookie@4
	mov	eax, OFFSET __ehfuncinfo$??$construct@PADAAPAD@?$allocator@D@std@@QAEXPAPADAAPAD@Z
	jmp	___CxxFrameHandler3
text$x	ENDS
??$construct@PADAAPAD@?$allocator@D@std@@QAEXPAPADAAPAD@Z ENDP ; std::allocator<char>::construct<char *,char * &>
; Function compile flags: /Odtp
; File c:\program files (x86)\microsoft visual studio 11.0\vc\include\xlocnum
;	COMDAT ??__E?id@?$numpunct@_W@std@@2V0locale@2@A@@YAXXZ
text$yc	SEGMENT
??__E?id@?$numpunct@_W@std@@2V0locale@2@A@@YAXXZ PROC	; `dynamic initializer for 'std::numpunct<wchar_t>::id'', COMDAT

; 155  : 		void _Getvals(wchar_t, const lconv *_Ptr, _Locinfo::_Cvtvec)

	push	ebp
	mov	ebp, esp
	push	0
	mov	ecx, OFFSET ?id@?$numpunct@_W@std@@2V0locale@2@A ; std::numpunct<wchar_t>::id
	call	??0id@locale@std@@QAE@I@Z		; std::locale::id::id
	pop	ebp
	ret	0
??__E?id@?$numpunct@_W@std@@2V0locale@2@A@@YAXXZ ENDP	; `dynamic initializer for 'std::numpunct<wchar_t>::id''
text$yc	ENDS
; Function compile flags: /Odtp
; File c:\program files (x86)\microsoft visual studio 11.0\vc\include\xlocnum
;	COMDAT ??__E?id@?$numpunct@D@std@@2V0locale@2@A@@YAXXZ
text$yc	SEGMENT
??__E?id@?$numpunct@D@std@@2V0locale@2@A@@YAXXZ PROC	; `dynamic initializer for 'std::numpunct<char>::id'', COMDAT

; 155  : 		void _Getvals(wchar_t, const lconv *_Ptr, _Locinfo::_Cvtvec)

	push	ebp
	mov	ebp, esp
	push	0
	mov	ecx, OFFSET ?id@?$numpunct@D@std@@2V0locale@2@A ; std::numpunct<char>::id
	call	??0id@locale@std@@QAE@I@Z		; std::locale::id::id
	pop	ebp
	ret	0
??__E?id@?$numpunct@D@std@@2V0locale@2@A@@YAXXZ ENDP	; `dynamic initializer for 'std::numpunct<char>::id''
text$yc	ENDS
; Function compile flags: /Odtp
; File c:\program files (x86)\microsoft visual studio 11.0\vc\include\xlocnum
;	COMDAT ??__E?id@?$num_put@_WV?$back_insert_iterator@V?$basic_string@_WU?$char_traits@_W@std@@V?$allocator@_W@2@@std@@@std@@@std@@2V0locale@2@A@@YAXXZ
text$yc	SEGMENT
??__E?id@?$num_put@_WV?$back_insert_iterator@V?$basic_string@_WU?$char_traits@_W@std@@V?$allocator@_W@2@@std@@@std@@@std@@2V0locale@2@A@@YAXXZ PROC ; `dynamic initializer for 'std::num_put<wchar_t,std::back_insert_iterator<std::basic_string<wchar_t,std::char_traits<wchar_t>,std::allocator<wchar_t> > > >::id'', COMDAT

; 155  : 		void _Getvals(wchar_t, const lconv *_Ptr, _Locinfo::_Cvtvec)

	push	ebp
	mov	ebp, esp
	push	0
	mov	ecx, OFFSET ?id@?$num_put@_WV?$back_insert_iterator@V?$basic_string@_WU?$char_traits@_W@std@@V?$allocator@_W@2@@std@@@std@@@std@@2V0locale@2@A ; std::num_put<wchar_t,std::back_insert_iterator<std::basic_string<wchar_t,std::char_traits<wchar_t>,std::allocator<wchar_t> > > >::id
	call	??0id@locale@std@@QAE@I@Z		; std::locale::id::id
	pop	ebp
	ret	0
??__E?id@?$num_put@_WV?$back_insert_iterator@V?$basic_string@_WU?$char_traits@_W@std@@V?$allocator@_W@2@@std@@@std@@@std@@2V0locale@2@A@@YAXXZ ENDP ; `dynamic initializer for 'std::num_put<wchar_t,std::back_insert_iterator<std::basic_string<wchar_t,std::char_traits<wchar_t>,std::allocator<wchar_t> > > >::id''
text$yc	ENDS
; Function compile flags: /Odtp
; File c:\program files (x86)\microsoft visual studio 11.0\vc\include\xlocnum
;	COMDAT ??__E?id@?$num_put@DV?$back_insert_iterator@V?$basic_string@DU?$char_traits@D@std@@V?$allocator@D@2@@std@@@std@@@std@@2V0locale@2@A@@YAXXZ
text$yc	SEGMENT
??__E?id@?$num_put@DV?$back_insert_iterator@V?$basic_string@DU?$char_traits@D@std@@V?$allocator@D@2@@std@@@std@@@std@@2V0locale@2@A@@YAXXZ PROC ; `dynamic initializer for 'std::num_put<char,std::back_insert_iterator<std::basic_string<char,std::char_traits<char>,std::allocator<char> > > >::id'', COMDAT

; 155  : 		void _Getvals(wchar_t, const lconv *_Ptr, _Locinfo::_Cvtvec)

	push	ebp
	mov	ebp, esp
	push	0
	mov	ecx, OFFSET ?id@?$num_put@DV?$back_insert_iterator@V?$basic_string@DU?$char_traits@D@std@@V?$allocator@D@2@@std@@@std@@@std@@2V0locale@2@A ; std::num_put<char,std::back_insert_iterator<std::basic_string<char,std::char_traits<char>,std::allocator<char> > > >::id
	call	??0id@locale@std@@QAE@I@Z		; std::locale::id::id
	pop	ebp
	ret	0
??__E?id@?$num_put@DV?$back_insert_iterator@V?$basic_string@DU?$char_traits@D@std@@V?$allocator@D@2@@std@@@std@@@std@@2V0locale@2@A@@YAXXZ ENDP ; `dynamic initializer for 'std::num_put<char,std::back_insert_iterator<std::basic_string<char,std::char_traits<char>,std::allocator<char> > > >::id''
text$yc	ENDS
; Function compile flags: /Odtp
; File c:\program files (x86)\microsoft visual studio 11.0\vc\include\xmemory0
;	COMDAT ??$destroy@PAD@?$allocator_traits@V?$allocator@D@std@@@std@@SAXAAV?$allocator@D@1@PAPAD@Z
_TEXT	SEGMENT
__Al$ = 8						; size = 4
__Ptr$ = 12						; size = 4
??$destroy@PAD@?$allocator_traits@V?$allocator@D@std@@@std@@SAXAAV?$allocator@D@1@PAPAD@Z PROC ; std::allocator_traits<std::allocator<char> >::destroy<char *>, COMDAT

; 755  : 		static void destroy(_Alloc& _Al, _Uty *_Ptr)

	push	ebp
	mov	ebp, esp

; 756  : 		{	// destroy object at _Ptr
; 757  : 		_Al.destroy(_Ptr);

	mov	eax, DWORD PTR __Ptr$[ebp]
	push	eax
	mov	ecx, DWORD PTR __Al$[ebp]
	call	??$destroy@PAD@?$allocator@D@std@@QAEXPAPAD@Z ; std::allocator<char>::destroy<char *>

; 758  : 		}

	pop	ebp
	ret	0
??$destroy@PAD@?$allocator_traits@V?$allocator@D@std@@@std@@SAXAAV?$allocator@D@1@PAPAD@Z ENDP ; std::allocator_traits<std::allocator<char> >::destroy<char *>
_TEXT	ENDS
; Function compile flags: /Odtp
; File c:\program files (x86)\microsoft visual studio 11.0\vc\include\xmemory0
;	COMDAT ??$construct@PADAAPAD@?$allocator_traits@V?$allocator@D@std@@@std@@SAXAAV?$allocator@D@1@PAPADAAPAD@Z
_TEXT	SEGMENT
__Al$ = 8						; size = 4
__Ptr$ = 12						; size = 4
__V0$ = 16						; size = 4
??$construct@PADAAPAD@?$allocator_traits@V?$allocator@D@std@@@std@@SAXAAV?$allocator@D@1@PAPADAAPAD@Z PROC ; std::allocator_traits<std::allocator<char> >::construct<char *,char * &>, COMDAT

; 751  : _VARIADIC_EXPAND_0X(_ALLOC_TRAITS_SPECIAL_CONSTRUCT, , , , )

	push	ebp
	mov	ebp, esp
	mov	eax, DWORD PTR __V0$[ebp]
	push	eax
	call	??$forward@AAPAD@std@@YAAAPADAAPAD@Z	; std::forward<char * &>
	add	esp, 4
	push	eax
	mov	ecx, DWORD PTR __Ptr$[ebp]
	push	ecx
	mov	ecx, DWORD PTR __Al$[ebp]
	call	??$construct@PADAAPAD@?$allocator@D@std@@QAEXPAPADAAPAD@Z ; std::allocator<char>::construct<char *,char * &>
	pop	ebp
	ret	0
??$construct@PADAAPAD@?$allocator_traits@V?$allocator@D@std@@@std@@SAXAAV?$allocator@D@1@PAPADAAPAD@Z ENDP ; std::allocator_traits<std::allocator<char> >::construct<char *,char * &>
_TEXT	ENDS
; Function compile flags: /Odtp
; File c:\program files (x86)\microsoft visual studio 11.0\vc\include\type_traits
;	COMDAT ??$forward@AAPAD@std@@YAAAPADAAPAD@Z
_TEXT	SEGMENT
__Arg$ = 8						; size = 4
??$forward@AAPAD@std@@YAAAPADAAPAD@Z PROC		; std::forward<char * &>, COMDAT

; 1775 : 	{	// forward an lvalue

	push	ebp
	mov	ebp, esp

; 1776 : 	return (static_cast<_Ty&&>(_Arg));

	mov	eax, DWORD PTR __Arg$[ebp]

; 1777 : 	}

	pop	ebp
	ret	0
??$forward@AAPAD@std@@YAAAPADAAPAD@Z ENDP		; std::forward<char * &>
_TEXT	ENDS
; Function compile flags: /Odtp
;	COMDAT ??__F?_System_object@?$_Error_objects@H@std@@2V_System_error_category@2@A@@YAXXZ
text$yd	SEGMENT
??__F?_System_object@?$_Error_objects@H@std@@2V_System_error_category@2@A@@YAXXZ PROC ; `dynamic atexit destructor for 'std::_Error_objects<int>::_System_object'', COMDAT
	push	ebp
	mov	ebp, esp
	mov	ecx, OFFSET ?_System_object@?$_Error_objects@H@std@@2V_System_error_category@2@A ; std::_Error_objects<int>::_System_object
	call	??1_System_error_category@std@@UAE@XZ
	pop	ebp
	ret	0
??__F?_System_object@?$_Error_objects@H@std@@2V_System_error_category@2@A@@YAXXZ ENDP ; `dynamic atexit destructor for 'std::_Error_objects<int>::_System_object''
text$yd	ENDS
; Function compile flags: /Odtp
; File c:\program files (x86)\microsoft visual studio 11.0\vc\include\xmemory0
;	COMDAT ??__E?_System_object@?$_Error_objects@H@std@@2V_System_error_category@2@A@@YAXXZ
text$yc	SEGMENT
??__E?_System_object@?$_Error_objects@H@std@@2V_System_error_category@2@A@@YAXXZ PROC ; `dynamic initializer for 'std::_Error_objects<int>::_System_object'', COMDAT

; 627  : 		{	// estimate maximum array size

	push	ebp
	mov	ebp, esp
	mov	ecx, OFFSET ?_System_object@?$_Error_objects@H@std@@2V_System_error_category@2@A ; std::_Error_objects<int>::_System_object
	call	??0_System_error_category@std@@QAE@XZ	; std::_System_error_category::_System_error_category
	push	OFFSET ??__F?_System_object@?$_Error_objects@H@std@@2V_System_error_category@2@A@@YAXXZ ; `dynamic atexit destructor for 'std::_Error_objects<int>::_System_object''
	call	_atexit
	add	esp, 4
	pop	ebp
	ret	0
??__E?_System_object@?$_Error_objects@H@std@@2V_System_error_category@2@A@@YAXXZ ENDP ; `dynamic initializer for 'std::_Error_objects<int>::_System_object''
text$yc	ENDS
; Function compile flags: /Odtp
;	COMDAT ??__F?_Iostream_object@?$_Error_objects@H@std@@2V_Iostream_error_category@2@A@@YAXXZ
text$yd	SEGMENT
??__F?_Iostream_object@?$_Error_objects@H@std@@2V_Iostream_error_category@2@A@@YAXXZ PROC ; `dynamic atexit destructor for 'std::_Error_objects<int>::_Iostream_object'', COMDAT
	push	ebp
	mov	ebp, esp
	mov	ecx, OFFSET ?_Iostream_object@?$_Error_objects@H@std@@2V_Iostream_error_category@2@A ; std::_Error_objects<int>::_Iostream_object
	call	??1_Iostream_error_category@std@@UAE@XZ
	pop	ebp
	ret	0
??__F?_Iostream_object@?$_Error_objects@H@std@@2V_Iostream_error_category@2@A@@YAXXZ ENDP ; `dynamic atexit destructor for 'std::_Error_objects<int>::_Iostream_object''
text$yd	ENDS
; Function compile flags: /Odtp
; File c:\program files (x86)\microsoft visual studio 11.0\vc\include\xmemory0
;	COMDAT ??__E?_Iostream_object@?$_Error_objects@H@std@@2V_Iostream_error_category@2@A@@YAXXZ
text$yc	SEGMENT
??__E?_Iostream_object@?$_Error_objects@H@std@@2V_Iostream_error_category@2@A@@YAXXZ PROC ; `dynamic initializer for 'std::_Error_objects<int>::_Iostream_object'', COMDAT

; 627  : 		{	// estimate maximum array size

	push	ebp
	mov	ebp, esp
	mov	ecx, OFFSET ?_Iostream_object@?$_Error_objects@H@std@@2V_Iostream_error_category@2@A ; std::_Error_objects<int>::_Iostream_object
	call	??0_Iostream_error_category@std@@QAE@XZ	; std::_Iostream_error_category::_Iostream_error_category
	push	OFFSET ??__F?_Iostream_object@?$_Error_objects@H@std@@2V_Iostream_error_category@2@A@@YAXXZ ; `dynamic atexit destructor for 'std::_Error_objects<int>::_Iostream_object''
	call	_atexit
	add	esp, 4
	pop	ebp
	ret	0
??__E?_Iostream_object@?$_Error_objects@H@std@@2V_Iostream_error_category@2@A@@YAXXZ ENDP ; `dynamic initializer for 'std::_Error_objects<int>::_Iostream_object''
text$yc	ENDS
; Function compile flags: /Odtp
;	COMDAT ??__F?_Generic_object@?$_Error_objects@H@std@@2V_Generic_error_category@2@A@@YAXXZ
text$yd	SEGMENT
??__F?_Generic_object@?$_Error_objects@H@std@@2V_Generic_error_category@2@A@@YAXXZ PROC ; `dynamic atexit destructor for 'std::_Error_objects<int>::_Generic_object'', COMDAT
	push	ebp
	mov	ebp, esp
	mov	ecx, OFFSET ?_Generic_object@?$_Error_objects@H@std@@2V_Generic_error_category@2@A ; std::_Error_objects<int>::_Generic_object
	call	??1_Generic_error_category@std@@UAE@XZ
	pop	ebp
	ret	0
??__F?_Generic_object@?$_Error_objects@H@std@@2V_Generic_error_category@2@A@@YAXXZ ENDP ; `dynamic atexit destructor for 'std::_Error_objects<int>::_Generic_object''
text$yd	ENDS
; Function compile flags: /Odtp
; File c:\program files (x86)\microsoft visual studio 11.0\vc\include\xmemory0
;	COMDAT ??__E?_Generic_object@?$_Error_objects@H@std@@2V_Generic_error_category@2@A@@YAXXZ
text$yc	SEGMENT
??__E?_Generic_object@?$_Error_objects@H@std@@2V_Generic_error_category@2@A@@YAXXZ PROC ; `dynamic initializer for 'std::_Error_objects<int>::_Generic_object'', COMDAT

; 627  : 		{	// estimate maximum array size

	push	ebp
	mov	ebp, esp
	mov	ecx, OFFSET ?_Generic_object@?$_Error_objects@H@std@@2V_Generic_error_category@2@A ; std::_Error_objects<int>::_Generic_object
	call	??0_Generic_error_category@std@@QAE@XZ	; std::_Generic_error_category::_Generic_error_category
	push	OFFSET ??__F?_Generic_object@?$_Error_objects@H@std@@2V_Generic_error_category@2@A@@YAXXZ ; `dynamic atexit destructor for 'std::_Error_objects<int>::_Generic_object''
	call	_atexit
	add	esp, 4
	pop	ebp
	ret	0
??__E?_Generic_object@?$_Error_objects@H@std@@2V_Generic_error_category@2@A@@YAXXZ ENDP ; `dynamic initializer for 'std::_Error_objects<int>::_Generic_object''
text$yc	ENDS
; Function compile flags: /Odtp
; File c:\program files (x86)\microsoft visual studio 11.0\vc\include\xmemory0
;	COMDAT ??$_Allocate@D@std@@YAPADIPAD@Z
_TEXT	SEGMENT
__Ptr$ = -4						; size = 4
__Count$ = 8						; size = 4
___formal$ = 12						; size = 4
??$_Allocate@D@std@@YAPADIPAD@Z PROC			; std::_Allocate<char>, COMDAT

; 22   : 	{	// allocate storage for _Count elements of type _Ty

	push	ebp
	mov	ebp, esp
	push	ecx

; 23   : 	void *_Ptr = 0;

	mov	DWORD PTR __Ptr$[ebp], 0

; 24   : 
; 25   : 	if (_Count == 0)

	cmp	DWORD PTR __Count$[ebp], 0
	jne	SHORT $LN4@Allocate

; 26   : 		;
; 27   : 	else if (((size_t)(-1) / sizeof (_Ty) < _Count)

	jmp	SHORT $LN3@Allocate
$LN4@Allocate:

; 28   : 		|| (_Ptr = ::operator new(_Count * sizeof (_Ty))) == 0)

	cmp	DWORD PTR __Count$[ebp], -1
	ja	SHORT $LN1@Allocate
	mov	eax, DWORD PTR __Count$[ebp]
	push	eax
	call	??2@YAPAXI@Z				; operator new
	add	esp, 4
	mov	DWORD PTR __Ptr$[ebp], eax
	cmp	DWORD PTR __Ptr$[ebp], 0
	jne	SHORT $LN3@Allocate
$LN1@Allocate:

; 29   : 		_Xbad_alloc();	// report no memory

	call	?_Xbad_alloc@std@@YAXXZ			; std::_Xbad_alloc
$LN3@Allocate:

; 30   : 
; 31   : 	return ((_Ty *)_Ptr);

	mov	eax, DWORD PTR __Ptr$[ebp]
$LN6@Allocate:

; 32   : 	}

	mov	esp, ebp
	pop	ebp
	ret	0
??$_Allocate@D@std@@YAPADIPAD@Z ENDP			; std::_Allocate<char>
_TEXT	ENDS
; Function compile flags: /Odtp
; File c:\program files (x86)\microsoft visual studio 11.0\vc\include\xstddef
;	COMDAT ??$addressof@D@std@@YAPADAAD@Z
_TEXT	SEGMENT
__Val$ = 8						; size = 4
??$addressof@D@std@@YAPADAAD@Z PROC			; std::addressof<char>, COMDAT

; 85   : 	{	// return address of _Val

	push	ebp
	mov	ebp, esp

; 86   : 	return (reinterpret_cast<_Ty *>(
; 87   : 		(&const_cast<char&>(
; 88   : 		reinterpret_cast<const volatile char&>(_Val)))));

	mov	eax, DWORD PTR __Val$[ebp]

; 89   : 	}

	pop	ebp
	ret	0
??$addressof@D@std@@YAPADAAD@Z ENDP			; std::addressof<char>
_TEXT	ENDS
; Function compile flags: /Odtp
; File c:\program files (x86)\microsoft visual studio 11.0\vc\include\xmemory0
;	COMDAT ??$destroy@PAD@?$_Wrap_alloc@V?$allocator@D@std@@@std@@QAEXPAPAD@Z
_TEXT	SEGMENT
_this$ = -4						; size = 4
__Ptr$ = 8						; size = 4
??$destroy@PAD@?$_Wrap_alloc@V?$allocator@D@std@@@std@@QAEXPAPAD@Z PROC ; std::_Wrap_alloc<std::allocator<char> >::destroy<char *>, COMDAT
; _this$ = ecx

; 907  : 		void destroy(_Ty *_Ptr)

	push	ebp
	mov	ebp, esp
	push	ecx
	mov	DWORD PTR _this$[ebp], ecx

; 908  : 		{	// destroy object at _Ptr
; 909  : 		_Mytraits::destroy(*this, _Ptr);

	mov	eax, DWORD PTR __Ptr$[ebp]
	push	eax
	mov	ecx, DWORD PTR _this$[ebp]
	push	ecx
	call	??$destroy@PAD@?$allocator_traits@V?$allocator@D@std@@@std@@SAXAAV?$allocator@D@1@PAPAD@Z ; std::allocator_traits<std::allocator<char> >::destroy<char *>
	add	esp, 8

; 910  : 		}

	mov	esp, ebp
	pop	ebp
	ret	4
??$destroy@PAD@?$_Wrap_alloc@V?$allocator@D@std@@@std@@QAEXPAPAD@Z ENDP ; std::_Wrap_alloc<std::allocator<char> >::destroy<char *>
_TEXT	ENDS
; Function compile flags: /Odtp
; File c:\program files (x86)\microsoft visual studio 11.0\vc\include\xmemory0
;	COMDAT ??$construct@PADAAPAD@?$_Wrap_alloc@V?$allocator@D@std@@@std@@QAEXPAPADAAPAD@Z
_TEXT	SEGMENT
_this$ = -4						; size = 4
__Ptr$ = 8						; size = 4
__V0$ = 12						; size = 4
??$construct@PADAAPAD@?$_Wrap_alloc@V?$allocator@D@std@@@std@@QAEXPAPADAAPAD@Z PROC ; std::_Wrap_alloc<std::allocator<char> >::construct<char *,char * &>, COMDAT
; _this$ = ecx

; 903  : _VARIADIC_EXPAND_0X(_WRAP_ALLOC_CONSTRUCT, , , , )

	push	ebp
	mov	ebp, esp
	push	ecx
	mov	DWORD PTR _this$[ebp], ecx
	mov	eax, DWORD PTR __V0$[ebp]
	push	eax
	call	??$forward@AAPAD@std@@YAAAPADAAPAD@Z	; std::forward<char * &>
	add	esp, 4
	push	eax
	mov	ecx, DWORD PTR __Ptr$[ebp]
	push	ecx
	mov	edx, DWORD PTR _this$[ebp]
	push	edx
	call	??$construct@PADAAPAD@?$allocator_traits@V?$allocator@D@std@@@std@@SAXAAV?$allocator@D@1@PAPADAAPAD@Z ; std::allocator_traits<std::allocator<char> >::construct<char *,char * &>
	add	esp, 12					; 0000000cH
	mov	esp, ebp
	pop	ebp
	ret	8
??$construct@PADAAPAD@?$_Wrap_alloc@V?$allocator@D@std@@@std@@QAEXPAPADAAPAD@Z ENDP ; std::_Wrap_alloc<std::allocator<char> >::construct<char *,char * &>
_TEXT	ENDS
; Function compile flags: /Odtp
; File c:\users\zhitao li\documents\visual studio 2012\projects\freefalcon\ui\include\gps.h
;	COMDAT ?GetTeamNo@GlobalPositioningSystem@@QAEJXZ
_TEXT	SEGMENT
_this$ = -4						; size = 4
?GetTeamNo@GlobalPositioningSystem@@QAEJXZ PROC		; GlobalPositioningSystem::GetTeamNo, COMDAT
; _this$ = ecx

; 77   : 		long GetTeamNo()						{ return(TeamNo_); }

	push	ebp
	mov	ebp, esp
	push	ecx
	mov	DWORD PTR _this$[ebp], ecx
	mov	eax, DWORD PTR _this$[ebp]
	mov	eax, DWORD PTR [eax+56]
	mov	esp, ebp
	pop	ebp
	ret	0
?GetTeamNo@GlobalPositioningSystem@@QAEJXZ ENDP		; GlobalPositioningSystem::GetTeamNo
_TEXT	ENDS
; Function compile flags: /Odtp
; File c:\users\zhitao li\documents\visual studio 2012\projects\freefalcon\ui\src\campaign\cmap.cpp
_TEXT	SEGMENT
_this$ = -12						; size = 4
_k$ = -8						; size = 2
_j$ = -4						; size = 2
_team$ = 8						; size = 4
?RemapTeamColors@C_Map@@QAEXJ@Z PROC			; C_Map::RemapTeamColors
; _this$ = ecx

; 1635 : {

	push	ebp
	mov	ebp, esp
	sub	esp, 12					; 0000000cH
	mov	DWORD PTR _this$[ebp], ecx

; 1636 : 	short j,k;
; 1637 : 	if(team >= NUM_TEAMS)

	cmp	DWORD PTR _team$[ebp], 8
	jl	SHORT $LN20@RemapTeamC

; 1638 : 		return;

	jmp	$LN21@RemapTeamC
$LN20@RemapTeamC:

; 1639 : 
; 1640 : 	if(Team_[team].Objectives)

	mov	eax, DWORD PTR _team$[ebp]
	imul	eax, 24					; 00000018H
	mov	ecx, DWORD PTR _this$[ebp]
	cmp	DWORD PTR [ecx+eax+876], 0
	je	$LN19@RemapTeamC

; 1641 : 	{
; 1642 : 		for(j=0;j<_MAP_NUM_OBJ_TYPES_;j++)

	xor	edx, edx
	mov	WORD PTR _j$[ebp], dx
	jmp	SHORT $LN18@RemapTeamC
$LN17@RemapTeamC:
	mov	ax, WORD PTR _j$[ebp]
	add	ax, 1
	mov	WORD PTR _j$[ebp], ax
$LN18@RemapTeamC:
	movsx	ecx, WORD PTR _j$[ebp]
	cmp	ecx, 14					; 0000000eH
	jge	SHORT $LN19@RemapTeamC

; 1643 : 		{
; 1644 : 			Team_[team].Objectives->Type[j]->SetMainImage(ObjIconIDs_[team][0],ObjIconIDs_[team][1]);

	mov	edx, DWORD PTR _team$[ebp]
	mov	eax, DWORD PTR _this$[ebp]
	lea	ecx, DWORD PTR [eax+edx*8+640]
	mov	edx, 4
	shl	edx, 0
	mov	eax, DWORD PTR [ecx+edx]
	push	eax
	mov	ecx, DWORD PTR _team$[ebp]
	mov	edx, DWORD PTR _this$[ebp]
	lea	eax, DWORD PTR [edx+ecx*8+640]
	mov	ecx, 4
	imul	ecx, 0
	mov	edx, DWORD PTR [eax+ecx]
	push	edx
	mov	eax, DWORD PTR _team$[ebp]
	imul	eax, 24					; 00000018H
	mov	ecx, DWORD PTR _this$[ebp]
	mov	edx, DWORD PTR [ecx+eax+876]
	movsx	eax, WORD PTR _j$[ebp]
	mov	ecx, DWORD PTR [edx+eax*4+56]
	call	?SetMainImage@C_MapIcon@@QAEXJJ@Z	; C_MapIcon::SetMainImage

; 1645 : 			Team_[team].Objectives->Type[j]->RemapIconImages();

	mov	ecx, DWORD PTR _team$[ebp]
	imul	ecx, 24					; 00000018H
	mov	edx, DWORD PTR _this$[ebp]
	mov	eax, DWORD PTR [edx+ecx+876]
	movsx	ecx, WORD PTR _j$[ebp]
	mov	ecx, DWORD PTR [eax+ecx*4+56]
	call	?RemapIconImages@C_MapIcon@@QAEXXZ	; C_MapIcon::RemapIconImages

; 1646 : 		}

	jmp	$LN17@RemapTeamC
$LN19@RemapTeamC:

; 1647 : 	}
; 1648 : 	if(Team_[team].NavalUnits)

	mov	edx, DWORD PTR _team$[ebp]
	imul	edx, 24					; 00000018H
	mov	eax, DWORD PTR _this$[ebp]
	cmp	DWORD PTR [eax+edx+872], 0
	je	$LN15@RemapTeamC

; 1649 : 	{
; 1650 : 		for(j=0;j<_MAP_NUM_NAV_TYPES_;j++)

	xor	ecx, ecx
	mov	WORD PTR _j$[ebp], cx
	jmp	SHORT $LN14@RemapTeamC
$LN13@RemapTeamC:
	mov	dx, WORD PTR _j$[ebp]
	add	dx, 1
	mov	WORD PTR _j$[ebp], dx
$LN14@RemapTeamC:
	movsx	eax, WORD PTR _j$[ebp]
	cmp	eax, 2
	jge	SHORT $LN15@RemapTeamC

; 1651 : 		{
; 1652 : 			Team_[team].NavalUnits->Type[j]->SetMainImage(NavyIconIDs_[team][0],NavyIconIDs_[team][1]);

	mov	ecx, DWORD PTR _team$[ebp]
	mov	edx, DWORD PTR _this$[ebp]
	lea	eax, DWORD PTR [edx+ecx*8+576]
	mov	ecx, 4
	shl	ecx, 0
	mov	edx, DWORD PTR [eax+ecx]
	push	edx
	mov	eax, DWORD PTR _team$[ebp]
	mov	ecx, DWORD PTR _this$[ebp]
	lea	edx, DWORD PTR [ecx+eax*8+576]
	mov	eax, 4
	imul	eax, 0
	mov	ecx, DWORD PTR [edx+eax]
	push	ecx
	mov	edx, DWORD PTR _team$[ebp]
	imul	edx, 24					; 00000018H
	mov	eax, DWORD PTR _this$[ebp]
	mov	ecx, DWORD PTR [eax+edx+872]
	movsx	edx, WORD PTR _j$[ebp]
	mov	ecx, DWORD PTR [ecx+edx*4+8]
	call	?SetMainImage@C_MapIcon@@QAEXJJ@Z	; C_MapIcon::SetMainImage

; 1653 : 			Team_[team].NavalUnits->Type[j]->RemapIconImages();

	mov	eax, DWORD PTR _team$[ebp]
	imul	eax, 24					; 00000018H
	mov	ecx, DWORD PTR _this$[ebp]
	mov	edx, DWORD PTR [ecx+eax+872]
	movsx	eax, WORD PTR _j$[ebp]
	mov	ecx, DWORD PTR [edx+eax*4+8]
	call	?RemapIconImages@C_MapIcon@@QAEXXZ	; C_MapIcon::RemapIconImages

; 1654 : 		}

	jmp	$LN13@RemapTeamC
$LN15@RemapTeamC:

; 1655 : 	}
; 1656 : 	if(Team_[team].Units)

	mov	ecx, DWORD PTR _team$[ebp]
	imul	ecx, 24					; 00000018H
	mov	edx, DWORD PTR _this$[ebp]
	cmp	DWORD PTR [edx+ecx+868], 0
	je	$LN11@RemapTeamC

; 1657 : 	{
; 1658 : 		for(j=0;j<_MAP_NUM_GND_TYPES_;j++)

	xor	eax, eax
	mov	WORD PTR _j$[ebp], ax
	jmp	SHORT $LN10@RemapTeamC
$LN9@RemapTeamC:
	mov	cx, WORD PTR _j$[ebp]
	add	cx, 1
	mov	WORD PTR _j$[ebp], cx
$LN10@RemapTeamC:
	movsx	edx, WORD PTR _j$[ebp]
	cmp	edx, 4
	jge	$LN11@RemapTeamC

; 1659 : 		{
; 1660 : 			for(k=0;k<_MAP_NUM_GND_LEVELS_;k++)

	xor	eax, eax
	mov	WORD PTR _k$[ebp], ax
	jmp	SHORT $LN7@RemapTeamC
$LN6@RemapTeamC:
	mov	cx, WORD PTR _k$[ebp]
	add	cx, 1
	mov	WORD PTR _k$[ebp], cx
$LN7@RemapTeamC:
	movsx	edx, WORD PTR _k$[ebp]
	cmp	edx, 3
	jge	$LN5@RemapTeamC

; 1661 : 			{
; 1662 : 				Team_[team].Units->Type[j]->Levels[k]->SetMainImage(ArmyIconIDs_[team][0],ArmyIconIDs_[team][1]);

	mov	eax, DWORD PTR _team$[ebp]
	mov	ecx, DWORD PTR _this$[ebp]
	lea	edx, DWORD PTR [ecx+eax*8+512]
	mov	eax, 4
	shl	eax, 0
	mov	ecx, DWORD PTR [edx+eax]
	push	ecx
	mov	edx, DWORD PTR _team$[ebp]
	mov	eax, DWORD PTR _this$[ebp]
	lea	ecx, DWORD PTR [eax+edx*8+512]
	mov	edx, 4
	imul	edx, 0
	mov	eax, DWORD PTR [ecx+edx]
	push	eax
	mov	ecx, DWORD PTR _team$[ebp]
	imul	ecx, 24					; 00000018H
	mov	edx, DWORD PTR _this$[ebp]
	mov	eax, DWORD PTR [edx+ecx+868]
	movsx	ecx, WORD PTR _j$[ebp]
	mov	edx, DWORD PTR [eax+ecx*4+16]
	movsx	eax, WORD PTR _k$[ebp]
	mov	ecx, DWORD PTR [edx+eax*4+12]
	call	?SetMainImage@C_MapIcon@@QAEXJJ@Z	; C_MapIcon::SetMainImage

; 1663 : 				Team_[team].Units->Type[j]->Levels[k]->RemapIconImages();

	mov	ecx, DWORD PTR _team$[ebp]
	imul	ecx, 24					; 00000018H
	mov	edx, DWORD PTR _this$[ebp]
	mov	eax, DWORD PTR [edx+ecx+868]
	movsx	ecx, WORD PTR _j$[ebp]
	mov	edx, DWORD PTR [eax+ecx*4+16]
	movsx	eax, WORD PTR _k$[ebp]
	mov	ecx, DWORD PTR [edx+eax*4+12]
	call	?RemapIconImages@C_MapIcon@@QAEXXZ	; C_MapIcon::RemapIconImages

; 1664 : 			}

	jmp	$LN6@RemapTeamC
$LN5@RemapTeamC:

; 1665 : 		}

	jmp	$LN9@RemapTeamC
$LN11@RemapTeamC:

; 1666 : 	}
; 1667 : 
; 1668 : 	if(Team_[team].AirUnits)

	mov	ecx, DWORD PTR _team$[ebp]
	imul	ecx, 24					; 00000018H
	mov	edx, DWORD PTR _this$[ebp]
	cmp	DWORD PTR [edx+ecx+864], 0
	je	$LN21@RemapTeamC

; 1669 : 	{
; 1670 : 		for(j=0;j<_MAP_NUM_AIR_TYPES_;j++)

	xor	eax, eax
	mov	WORD PTR _j$[ebp], ax
	jmp	SHORT $LN3@RemapTeamC
$LN2@RemapTeamC:
	mov	cx, WORD PTR _j$[ebp]
	add	cx, 1
	mov	WORD PTR _j$[ebp], cx
$LN3@RemapTeamC:
	movsx	edx, WORD PTR _j$[ebp]
	cmp	edx, 5
	jge	$LN21@RemapTeamC

; 1671 : 		{
; 1672 : 			Team_[team].AirUnits->Type[j]->SetMainImage(C_STATE_0,AirIconIDs_[team][0][0],AirIconIDs_[team][0][1]);

	mov	eax, DWORD PTR _team$[ebp]
	shl	eax, 6
	add	eax, DWORD PTR _this$[ebp]
	mov	ecx, 8
	imul	ecx, 0
	add	eax, ecx
	mov	edx, 4
	shl	edx, 0
	mov	eax, DWORD PTR [eax+edx]
	push	eax
	mov	ecx, DWORD PTR _team$[ebp]
	shl	ecx, 6
	add	ecx, DWORD PTR _this$[ebp]
	mov	edx, 8
	imul	edx, 0
	add	ecx, edx
	mov	eax, 4
	imul	eax, 0
	mov	ecx, DWORD PTR [ecx+eax]
	push	ecx
	push	0
	mov	edx, DWORD PTR _team$[ebp]
	imul	edx, 24					; 00000018H
	mov	eax, DWORD PTR _this$[ebp]
	mov	ecx, DWORD PTR [eax+edx+864]
	movsx	edx, WORD PTR _j$[ebp]
	mov	ecx, DWORD PTR [ecx+edx*4+20]
	call	?SetMainImage@C_MapIcon@@QAEXFJJ@Z	; C_MapIcon::SetMainImage

; 1673 : 			Team_[team].AirUnits->Type[j]->SetMainImage(C_STATE_1,AirIconIDs_[team][1][0],AirIconIDs_[team][1][1]);

	mov	eax, DWORD PTR _team$[ebp]
	shl	eax, 6
	add	eax, DWORD PTR _this$[ebp]
	mov	ecx, 8
	shl	ecx, 0
	add	eax, ecx
	mov	edx, 4
	shl	edx, 0
	mov	eax, DWORD PTR [eax+edx]
	push	eax
	mov	ecx, DWORD PTR _team$[ebp]
	shl	ecx, 6
	add	ecx, DWORD PTR _this$[ebp]
	mov	edx, 8
	shl	edx, 0
	add	ecx, edx
	mov	eax, 4
	imul	eax, 0
	mov	ecx, DWORD PTR [ecx+eax]
	push	ecx
	push	1
	mov	edx, DWORD PTR _team$[ebp]
	imul	edx, 24					; 00000018H
	mov	eax, DWORD PTR _this$[ebp]
	mov	ecx, DWORD PTR [eax+edx+864]
	movsx	edx, WORD PTR _j$[ebp]
	mov	ecx, DWORD PTR [ecx+edx*4+20]
	call	?SetMainImage@C_MapIcon@@QAEXFJJ@Z	; C_MapIcon::SetMainImage

; 1674 : 			Team_[team].AirUnits->Type[j]->SetMainImage(C_STATE_2,AirIconIDs_[team][2][0],AirIconIDs_[team][2][1]);

	mov	eax, DWORD PTR _team$[ebp]
	shl	eax, 6
	add	eax, DWORD PTR _this$[ebp]
	mov	ecx, 8
	shl	ecx, 1
	add	eax, ecx
	mov	edx, 4
	shl	edx, 0
	mov	eax, DWORD PTR [eax+edx]
	push	eax
	mov	ecx, DWORD PTR _team$[ebp]
	shl	ecx, 6
	add	ecx, DWORD PTR _this$[ebp]
	mov	edx, 8
	shl	edx, 1
	add	ecx, edx
	mov	eax, 4
	imul	eax, 0
	mov	ecx, DWORD PTR [ecx+eax]
	push	ecx
	push	2
	mov	edx, DWORD PTR _team$[ebp]
	imul	edx, 24					; 00000018H
	mov	eax, DWORD PTR _this$[ebp]
	mov	ecx, DWORD PTR [eax+edx+864]
	movsx	edx, WORD PTR _j$[ebp]
	mov	ecx, DWORD PTR [ecx+edx*4+20]
	call	?SetMainImage@C_MapIcon@@QAEXFJJ@Z	; C_MapIcon::SetMainImage

; 1675 : 			Team_[team].AirUnits->Type[j]->SetMainImage(C_STATE_3,AirIconIDs_[team][3][0],AirIconIDs_[team][3][1]);

	mov	eax, DWORD PTR _team$[ebp]
	shl	eax, 6
	add	eax, DWORD PTR _this$[ebp]
	mov	ecx, 8
	imul	ecx, 3
	add	eax, ecx
	mov	edx, 4
	shl	edx, 0
	mov	eax, DWORD PTR [eax+edx]
	push	eax
	mov	ecx, DWORD PTR _team$[ebp]
	shl	ecx, 6
	add	ecx, DWORD PTR _this$[ebp]
	mov	edx, 8
	imul	edx, 3
	add	ecx, edx
	mov	eax, 4
	imul	eax, 0
	mov	ecx, DWORD PTR [ecx+eax]
	push	ecx
	push	3
	mov	edx, DWORD PTR _team$[ebp]
	imul	edx, 24					; 00000018H
	mov	eax, DWORD PTR _this$[ebp]
	mov	ecx, DWORD PTR [eax+edx+864]
	movsx	edx, WORD PTR _j$[ebp]
	mov	ecx, DWORD PTR [ecx+edx*4+20]
	call	?SetMainImage@C_MapIcon@@QAEXFJJ@Z	; C_MapIcon::SetMainImage

; 1676 : 			Team_[team].AirUnits->Type[j]->SetMainImage(C_STATE_4,AirIconIDs_[team][4][0],AirIconIDs_[team][4][1]);

	mov	eax, DWORD PTR _team$[ebp]
	shl	eax, 6
	add	eax, DWORD PTR _this$[ebp]
	mov	ecx, 8
	shl	ecx, 2
	add	eax, ecx
	mov	edx, 4
	shl	edx, 0
	mov	eax, DWORD PTR [eax+edx]
	push	eax
	mov	ecx, DWORD PTR _team$[ebp]
	shl	ecx, 6
	add	ecx, DWORD PTR _this$[ebp]
	mov	edx, 8
	shl	edx, 2
	add	ecx, edx
	mov	eax, 4
	imul	eax, 0
	mov	ecx, DWORD PTR [ecx+eax]
	push	ecx
	push	4
	mov	edx, DWORD PTR _team$[ebp]
	imul	edx, 24					; 00000018H
	mov	eax, DWORD PTR _this$[ebp]
	mov	ecx, DWORD PTR [eax+edx+864]
	movsx	edx, WORD PTR _j$[ebp]
	mov	ecx, DWORD PTR [ecx+edx*4+20]
	call	?SetMainImage@C_MapIcon@@QAEXFJJ@Z	; C_MapIcon::SetMainImage

; 1677 : 			Team_[team].AirUnits->Type[j]->SetMainImage(C_STATE_5,AirIconIDs_[team][5][0],AirIconIDs_[team][5][1]);

	mov	eax, DWORD PTR _team$[ebp]
	shl	eax, 6
	add	eax, DWORD PTR _this$[ebp]
	mov	ecx, 8
	imul	ecx, 5
	add	eax, ecx
	mov	edx, 4
	shl	edx, 0
	mov	eax, DWORD PTR [eax+edx]
	push	eax
	mov	ecx, DWORD PTR _team$[ebp]
	shl	ecx, 6
	add	ecx, DWORD PTR _this$[ebp]
	mov	edx, 8
	imul	edx, 5
	add	ecx, edx
	mov	eax, 4
	imul	eax, 0
	mov	ecx, DWORD PTR [ecx+eax]
	push	ecx
	push	5
	mov	edx, DWORD PTR _team$[ebp]
	imul	edx, 24					; 00000018H
	mov	eax, DWORD PTR _this$[ebp]
	mov	ecx, DWORD PTR [eax+edx+864]
	movsx	edx, WORD PTR _j$[ebp]
	mov	ecx, DWORD PTR [ecx+edx*4+20]
	call	?SetMainImage@C_MapIcon@@QAEXFJJ@Z	; C_MapIcon::SetMainImage

; 1678 : 			Team_[team].AirUnits->Type[j]->SetMainImage(C_STATE_6,AirIconIDs_[team][6][0],AirIconIDs_[team][6][1]);

	mov	eax, DWORD PTR _team$[ebp]
	shl	eax, 6
	add	eax, DWORD PTR _this$[ebp]
	mov	ecx, 8
	imul	ecx, 6
	add	eax, ecx
	mov	edx, 4
	shl	edx, 0
	mov	eax, DWORD PTR [eax+edx]
	push	eax
	mov	ecx, DWORD PTR _team$[ebp]
	shl	ecx, 6
	add	ecx, DWORD PTR _this$[ebp]
	mov	edx, 8
	imul	edx, 6
	add	ecx, edx
	mov	eax, 4
	imul	eax, 0
	mov	ecx, DWORD PTR [ecx+eax]
	push	ecx
	push	6
	mov	edx, DWORD PTR _team$[ebp]
	imul	edx, 24					; 00000018H
	mov	eax, DWORD PTR _this$[ebp]
	mov	ecx, DWORD PTR [eax+edx+864]
	movsx	edx, WORD PTR _j$[ebp]
	mov	ecx, DWORD PTR [ecx+edx*4+20]
	call	?SetMainImage@C_MapIcon@@QAEXFJJ@Z	; C_MapIcon::SetMainImage

; 1679 : 			Team_[team].AirUnits->Type[j]->SetMainImage(C_STATE_7,AirIconIDs_[team][7][0],AirIconIDs_[team][7][1]);

	mov	eax, DWORD PTR _team$[ebp]
	shl	eax, 6
	add	eax, DWORD PTR _this$[ebp]
	mov	ecx, 8
	imul	ecx, 7
	add	eax, ecx
	mov	edx, 4
	shl	edx, 0
	mov	eax, DWORD PTR [eax+edx]
	push	eax
	mov	ecx, DWORD PTR _team$[ebp]
	shl	ecx, 6
	add	ecx, DWORD PTR _this$[ebp]
	mov	edx, 8
	imul	edx, 7
	add	ecx, edx
	mov	eax, 4
	imul	eax, 0
	mov	ecx, DWORD PTR [ecx+eax]
	push	ecx
	push	7
	mov	edx, DWORD PTR _team$[ebp]
	imul	edx, 24					; 00000018H
	mov	eax, DWORD PTR _this$[ebp]
	mov	ecx, DWORD PTR [eax+edx+864]
	movsx	edx, WORD PTR _j$[ebp]
	mov	ecx, DWORD PTR [ecx+edx*4+20]
	call	?SetMainImage@C_MapIcon@@QAEXFJJ@Z	; C_MapIcon::SetMainImage

; 1680 : 			Team_[team].AirUnits->Type[j]->RemapIconImages();

	mov	eax, DWORD PTR _team$[ebp]
	imul	eax, 24					; 00000018H
	mov	ecx, DWORD PTR _this$[ebp]
	mov	edx, DWORD PTR [ecx+eax+864]
	movsx	eax, WORD PTR _j$[ebp]
	mov	ecx, DWORD PTR [edx+eax*4+20]
	call	?RemapIconImages@C_MapIcon@@QAEXXZ	; C_MapIcon::RemapIconImages

; 1681 : 		}

	jmp	$LN2@RemapTeamC
$LN21@RemapTeamC:

; 1682 : 	}
; 1683 : }

	mov	esp, ebp
	pop	ebp
	ret	4
?RemapTeamColors@C_Map@@QAEXJ@Z ENDP			; C_Map::RemapTeamColors
_TEXT	ENDS
; Function compile flags: /Odtp
; File c:\users\zhitao li\documents\visual studio 2012\projects\freefalcon\ui\src\campaign\cmap.cpp
_TEXT	SEGMENT
_this$ = -4						; size = 4
_scaletype$ = 8						; size = 4
?RecalcWaypointZs@C_Map@@QAEXJ@Z PROC			; C_Map::RecalcWaypointZs
; _this$ = ecx

; 2700 : {

	push	ebp
	mov	ebp, esp
	push	ecx
	mov	DWORD PTR _this$[ebp], ecx

; 2701 : 	if(scaletype == 1)

	cmp	DWORD PTR _scaletype$[ebp], 1
	jne	SHORT $LN5@RecalcWayp

; 2702 : 	{
; 2703 : 		if(CurWPZ_)

	mov	eax, DWORD PTR _this$[ebp]
	cmp	DWORD PTR [eax+1096], 0
	je	SHORT $LN4@RecalcWayp

; 2704 : 		{
; 2705 : 			CurWPZ_->SetWorldRange(LogMinX_,LogMinY_,LogMaxX_,LogMaxY_);

	mov	ecx, DWORD PTR _this$[ebp]
	push	ecx
	movss	xmm0, DWORD PTR [ecx+764]
	movss	DWORD PTR [esp], xmm0
	mov	edx, DWORD PTR _this$[ebp]
	push	ecx
	movss	xmm0, DWORD PTR [edx+760]
	movss	DWORD PTR [esp], xmm0
	mov	eax, DWORD PTR _this$[ebp]
	push	ecx
	movss	xmm0, DWORD PTR [eax+756]
	movss	DWORD PTR [esp], xmm0
	mov	ecx, DWORD PTR _this$[ebp]
	push	ecx
	movss	xmm0, DWORD PTR [ecx+752]
	movss	DWORD PTR [esp], xmm0
	mov	edx, DWORD PTR _this$[ebp]
	mov	ecx, DWORD PTR [edx+1096]
	call	?SetWorldRange@C_Waypoint@@QAEXMMMM@Z	; C_Waypoint::SetWorldRange

; 2706 : 			CurWPZ_->SetScaleType(static_cast<short>(scaletype));

	movzx	eax, WORD PTR _scaletype$[ebp]
	push	eax
	mov	ecx, DWORD PTR _this$[ebp]
	mov	ecx, DWORD PTR [ecx+1096]
	call	?SetScaleType@C_Waypoint@@QAEXF@Z	; C_Waypoint::SetScaleType
$LN4@RecalcWayp:

; 2707 : 		}
; 2708 : 	}

	jmp	SHORT $LN1@RecalcWayp
$LN5@RecalcWayp:

; 2709 : 	else if(scaletype == 2)

	cmp	DWORD PTR _scaletype$[ebp], 2
	jne	SHORT $LN1@RecalcWayp

; 2710 : 	{
; 2711 : 		if(CurWPZ_)

	mov	edx, DWORD PTR _this$[ebp]
	cmp	DWORD PTR [edx+1096], 0
	je	SHORT $LN1@RecalcWayp

; 2712 : 		{
; 2713 : 			CurWPZ_->SetWorldRange(StrtMinX_,StrtMinY_,StrtMaxX_,StrtMaxY_);

	mov	eax, DWORD PTR _this$[ebp]
	push	ecx
	movss	xmm0, DWORD PTR [eax+780]
	movss	DWORD PTR [esp], xmm0
	mov	ecx, DWORD PTR _this$[ebp]
	push	ecx
	movss	xmm0, DWORD PTR [ecx+776]
	movss	DWORD PTR [esp], xmm0
	mov	edx, DWORD PTR _this$[ebp]
	push	ecx
	movss	xmm0, DWORD PTR [edx+772]
	movss	DWORD PTR [esp], xmm0
	mov	eax, DWORD PTR _this$[ebp]
	push	ecx
	movss	xmm0, DWORD PTR [eax+768]
	movss	DWORD PTR [esp], xmm0
	mov	ecx, DWORD PTR _this$[ebp]
	mov	ecx, DWORD PTR [ecx+1096]
	call	?SetWorldRange@C_Waypoint@@QAEXMMMM@Z	; C_Waypoint::SetWorldRange

; 2714 : 			CurWPZ_->SetScaleType(static_cast<short>(scaletype));

	movzx	edx, WORD PTR _scaletype$[ebp]
	push	edx
	mov	eax, DWORD PTR _this$[ebp]
	mov	ecx, DWORD PTR [eax+1096]
	call	?SetScaleType@C_Waypoint@@QAEXF@Z	; C_Waypoint::SetScaleType
$LN1@RecalcWayp:

; 2715 : 		}
; 2716 : 	}
; 2717 : }

	mov	esp, ebp
	pop	ebp
	ret	4
?RecalcWaypointZs@C_Map@@QAEXJ@Z ENDP			; C_Map::RecalcWaypointZs
_TEXT	ENDS
; Function compile flags: /Odtp
; File c:\users\zhitao li\documents\visual studio 2012\projects\freefalcon\ui\src\campaign\cmap.cpp
_TEXT	SEGMENT
_this$ = -4						; size = 4
_team$ = 8						; size = 4
_type$ = 12						; size = 4
?GetObjIconList@C_Map@@QAEPAVC_MapIcon@@JJ@Z PROC	; C_Map::GetObjIconList
; _this$ = ecx

; 2358 : {

	push	ebp
	mov	ebp, esp
	push	ecx
	mov	DWORD PTR _this$[ebp], ecx

; 2359 : 	return(Team_[team].Objectives->Type[type]);

	mov	eax, DWORD PTR _team$[ebp]
	imul	eax, 24					; 00000018H
	mov	ecx, DWORD PTR _this$[ebp]
	mov	edx, DWORD PTR [ecx+eax+876]
	mov	eax, DWORD PTR _type$[ebp]
	mov	eax, DWORD PTR [edx+eax*4+56]

; 2360 : }

	mov	esp, ebp
	pop	ebp
	ret	8
?GetObjIconList@C_Map@@QAEPAVC_MapIcon@@JJ@Z ENDP	; C_Map::GetObjIconList
_TEXT	ENDS
; Function compile flags: /Odtp
; File c:\users\zhitao li\documents\visual studio 2012\projects\freefalcon\ui\src\campaign\cmap.cpp
_TEXT	SEGMENT
_this$ = -8						; size = 4
_i$ = -4						; size = 4
_type$ = 8						; size = 4
_cb$ = 12						; size = 4
?SetNavalUnitCallbacks@C_Map@@QAEXJP6AXJFPAVC_Base@@@Z@Z PROC ; C_Map::SetNavalUnitCallbacks
; _this$ = ecx

; 2349 : {

	push	ebp
	mov	ebp, esp
	sub	esp, 8
	push	esi
	mov	DWORD PTR _this$[ebp], ecx

; 2350 : 	long i;
; 2351 : 
; 2352 : 	for(i=0;i<_MAX_TEAMS_;i++)

	mov	DWORD PTR _i$[ebp], 0
	jmp	SHORT $LN4@SetNavalUn
$LN3@SetNavalUn:
	mov	eax, DWORD PTR _i$[ebp]
	add	eax, 1
	mov	DWORD PTR _i$[ebp], eax
$LN4@SetNavalUn:
	cmp	DWORD PTR _i$[ebp], 8
	jge	SHORT $LN5@SetNavalUn

; 2353 : 		if(Team_[i].NavalUnits->Type[type])

	mov	ecx, DWORD PTR _i$[ebp]
	imul	ecx, 24					; 00000018H
	mov	edx, DWORD PTR _this$[ebp]
	mov	eax, DWORD PTR [edx+ecx+872]
	mov	ecx, DWORD PTR _type$[ebp]
	cmp	DWORD PTR [eax+ecx*4+8], 0
	je	SHORT $LN1@SetNavalUn

; 2354 : 			Team_[i].NavalUnits->Type[type]->SetCallback(cb);

	mov	edx, DWORD PTR _cb$[ebp]
	push	edx
	mov	eax, DWORD PTR _i$[ebp]
	imul	eax, 24					; 00000018H
	mov	ecx, DWORD PTR _this$[ebp]
	mov	edx, DWORD PTR [ecx+eax+872]
	mov	eax, DWORD PTR _type$[ebp]
	mov	ecx, DWORD PTR [edx+eax*4+8]
	mov	edx, DWORD PTR _i$[ebp]
	imul	edx, 24					; 00000018H
	mov	eax, DWORD PTR _this$[ebp]
	mov	edx, DWORD PTR [eax+edx+872]
	mov	eax, DWORD PTR _type$[ebp]
	mov	esi, DWORD PTR [ecx]
	mov	ecx, DWORD PTR [edx+eax*4+8]
	mov	edx, DWORD PTR [esi+100]
	call	edx
$LN1@SetNavalUn:

; 2355 : }

	jmp	SHORT $LN3@SetNavalUn
$LN5@SetNavalUn:
	pop	esi
	mov	esp, ebp
	pop	ebp
	ret	8
?SetNavalUnitCallbacks@C_Map@@QAEXJP6AXJFPAVC_Base@@@Z@Z ENDP ; C_Map::SetNavalUnitCallbacks
_TEXT	ENDS
; Function compile flags: /Odtp
; File c:\users\zhitao li\documents\visual studio 2012\projects\freefalcon\ui\src\campaign\cmap.cpp
_TEXT	SEGMENT
_this$ = -8						; size = 4
_i$ = -4						; size = 4
_level$ = 8						; size = 4
_type$ = 12						; size = 4
_cb$ = 16						; size = 4
?SetGroundUnitCallbacks@C_Map@@QAEXJJP6AXJFPAVC_Base@@@Z@Z PROC ; C_Map::SetGroundUnitCallbacks
; _this$ = ecx

; 2339 : {

	push	ebp
	mov	ebp, esp
	sub	esp, 8
	mov	DWORD PTR _this$[ebp], ecx

; 2340 : 	long i;
; 2341 : 
; 2342 : 	for(i=0;i<_MAX_TEAMS_;i++)

	mov	DWORD PTR _i$[ebp], 0
	jmp	SHORT $LN5@SetGroundU
$LN4@SetGroundU:
	mov	eax, DWORD PTR _i$[ebp]
	add	eax, 1
	mov	DWORD PTR _i$[ebp], eax
$LN5@SetGroundU:
	cmp	DWORD PTR _i$[ebp], 8
	jge	$LN6@SetGroundU

; 2343 : 		if(Team_[i].Units->Type[type])

	mov	ecx, DWORD PTR _i$[ebp]
	imul	ecx, 24					; 00000018H
	mov	edx, DWORD PTR _this$[ebp]
	mov	eax, DWORD PTR [edx+ecx+868]
	mov	ecx, DWORD PTR _type$[ebp]
	cmp	DWORD PTR [eax+ecx*4+16], 0
	je	SHORT $LN2@SetGroundU

; 2344 : 			if(Team_[i].Units->Type[type]->Levels[level])

	mov	edx, DWORD PTR _i$[ebp]
	imul	edx, 24					; 00000018H
	mov	eax, DWORD PTR _this$[ebp]
	mov	ecx, DWORD PTR [eax+edx+868]
	mov	edx, DWORD PTR _type$[ebp]
	mov	eax, DWORD PTR [ecx+edx*4+16]
	mov	ecx, DWORD PTR _level$[ebp]
	cmp	DWORD PTR [eax+ecx*4+12], 0
	je	SHORT $LN2@SetGroundU

; 2345 : 				Team_[i].Units->Type[type]->Levels[level]->SetCallback(cb);

	mov	edx, DWORD PTR _cb$[ebp]
	push	edx
	mov	eax, DWORD PTR _i$[ebp]
	imul	eax, 24					; 00000018H
	mov	ecx, DWORD PTR _this$[ebp]
	mov	edx, DWORD PTR [ecx+eax+868]
	mov	eax, DWORD PTR _type$[ebp]
	mov	ecx, DWORD PTR [edx+eax*4+16]
	mov	edx, DWORD PTR _level$[ebp]
	mov	eax, DWORD PTR [ecx+edx*4+12]
	mov	ecx, DWORD PTR _i$[ebp]
	imul	ecx, 24					; 00000018H
	mov	edx, DWORD PTR _this$[ebp]
	mov	ecx, DWORD PTR [edx+ecx+868]
	mov	edx, DWORD PTR _type$[ebp]
	mov	ecx, DWORD PTR [ecx+edx*4+16]
	mov	edx, DWORD PTR _level$[ebp]
	mov	eax, DWORD PTR [eax]
	mov	ecx, DWORD PTR [ecx+edx*4+12]
	mov	edx, DWORD PTR [eax+100]
	call	edx
$LN2@SetGroundU:

; 2346 : }

	jmp	$LN4@SetGroundU
$LN6@SetGroundU:
	mov	esp, ebp
	pop	ebp
	ret	12					; 0000000cH
?SetGroundUnitCallbacks@C_Map@@QAEXJJP6AXJFPAVC_Base@@@Z@Z ENDP ; C_Map::SetGroundUnitCallbacks
_TEXT	ENDS
; Function compile flags: /Odtp
; File c:\users\zhitao li\documents\visual studio 2012\projects\freefalcon\ui\src\campaign\cmap.cpp
_TEXT	SEGMENT
_this$ = -8						; size = 4
_i$ = -4						; size = 4
_type$ = 8						; size = 4
_cb$ = 12						; size = 4
?SetAirUnitCallbacks@C_Map@@QAEXJP6AXJFPAVC_Base@@@Z@Z PROC ; C_Map::SetAirUnitCallbacks
; _this$ = ecx

; 2329 : {

	push	ebp
	mov	ebp, esp
	sub	esp, 8
	push	esi
	mov	DWORD PTR _this$[ebp], ecx

; 2330 : 	long i;
; 2331 : 
; 2332 : 	for(i=0;i<_MAX_TEAMS_;i++)

	mov	DWORD PTR _i$[ebp], 0
	jmp	SHORT $LN4@SetAirUnit
$LN3@SetAirUnit:
	mov	eax, DWORD PTR _i$[ebp]
	add	eax, 1
	mov	DWORD PTR _i$[ebp], eax
$LN4@SetAirUnit:
	cmp	DWORD PTR _i$[ebp], 8
	jge	SHORT $LN5@SetAirUnit

; 2333 : 		if(Team_[i].AirUnits->Type[type])

	mov	ecx, DWORD PTR _i$[ebp]
	imul	ecx, 24					; 00000018H
	mov	edx, DWORD PTR _this$[ebp]
	mov	eax, DWORD PTR [edx+ecx+864]
	mov	ecx, DWORD PTR _type$[ebp]
	cmp	DWORD PTR [eax+ecx*4+20], 0
	je	SHORT $LN1@SetAirUnit

; 2334 : 			Team_[i].AirUnits->Type[type]->SetCallback(cb);

	mov	edx, DWORD PTR _cb$[ebp]
	push	edx
	mov	eax, DWORD PTR _i$[ebp]
	imul	eax, 24					; 00000018H
	mov	ecx, DWORD PTR _this$[ebp]
	mov	edx, DWORD PTR [ecx+eax+864]
	mov	eax, DWORD PTR _type$[ebp]
	mov	ecx, DWORD PTR [edx+eax*4+20]
	mov	edx, DWORD PTR _i$[ebp]
	imul	edx, 24					; 00000018H
	mov	eax, DWORD PTR _this$[ebp]
	mov	edx, DWORD PTR [eax+edx+864]
	mov	eax, DWORD PTR _type$[ebp]
	mov	esi, DWORD PTR [ecx]
	mov	ecx, DWORD PTR [edx+eax*4+20]
	mov	edx, DWORD PTR [esi+100]
	call	edx
$LN1@SetAirUnit:

; 2335 : }

	jmp	SHORT $LN3@SetAirUnit
$LN5@SetAirUnit:
	pop	esi
	mov	esp, ebp
	pop	ebp
	ret	8
?SetAirUnitCallbacks@C_Map@@QAEXJP6AXJFPAVC_Base@@@Z@Z ENDP ; C_Map::SetAirUnitCallbacks
_TEXT	ENDS
; Function compile flags: /Odtp
; File c:\users\zhitao li\documents\visual studio 2012\projects\freefalcon\ui\src\campaign\cmap.cpp
_TEXT	SEGMENT
_this$ = -8						; size = 4
_i$ = -4						; size = 4
_type$ = 8						; size = 4
_cb$ = 12						; size = 4
?SetObjCallbacks@C_Map@@QAEXJP6AXJFPAVC_Base@@@Z@Z PROC	; C_Map::SetObjCallbacks
; _this$ = ecx

; 2275 : {

	push	ebp
	mov	ebp, esp
	sub	esp, 8
	push	esi
	mov	DWORD PTR _this$[ebp], ecx

; 2276 : 	long i;
; 2277 : 
; 2278 : 	if(type < _MAP_NUM_OBJ_TYPES_)

	cmp	DWORD PTR _type$[ebp], 14		; 0000000eH
	jge	SHORT $LN6@SetObjCall

; 2279 : 	{
; 2280 : 		for(i=0;i<_MAX_TEAMS_;i++)

	mov	DWORD PTR _i$[ebp], 0
	jmp	SHORT $LN4@SetObjCall
$LN3@SetObjCall:
	mov	eax, DWORD PTR _i$[ebp]
	add	eax, 1
	mov	DWORD PTR _i$[ebp], eax
$LN4@SetObjCall:
	cmp	DWORD PTR _i$[ebp], 8
	jge	SHORT $LN6@SetObjCall

; 2281 : 			if(Team_[i].Objectives->Type[type])

	mov	ecx, DWORD PTR _i$[ebp]
	imul	ecx, 24					; 00000018H
	mov	edx, DWORD PTR _this$[ebp]
	mov	eax, DWORD PTR [edx+ecx+876]
	mov	ecx, DWORD PTR _type$[ebp]
	cmp	DWORD PTR [eax+ecx*4+56], 0
	je	SHORT $LN1@SetObjCall

; 2282 : 				Team_[i].Objectives->Type[type]->SetCallback(cb);

	mov	edx, DWORD PTR _cb$[ebp]
	push	edx
	mov	eax, DWORD PTR _i$[ebp]
	imul	eax, 24					; 00000018H
	mov	ecx, DWORD PTR _this$[ebp]
	mov	edx, DWORD PTR [ecx+eax+876]
	mov	eax, DWORD PTR _type$[ebp]
	mov	ecx, DWORD PTR [edx+eax*4+56]
	mov	edx, DWORD PTR _i$[ebp]
	imul	edx, 24					; 00000018H
	mov	eax, DWORD PTR _this$[ebp]
	mov	edx, DWORD PTR [eax+edx+876]
	mov	eax, DWORD PTR _type$[ebp]
	mov	esi, DWORD PTR [ecx]
	mov	ecx, DWORD PTR [edx+eax*4+56]
	mov	edx, DWORD PTR [esi+100]
	call	edx
$LN1@SetObjCall:

; 2283 : 	}

	jmp	SHORT $LN3@SetObjCall
$LN6@SetObjCall:

; 2284 : }

	pop	esi
	mov	esp, ebp
	pop	ebp
	ret	8
?SetObjCallbacks@C_Map@@QAEXJP6AXJFPAVC_Base@@@Z@Z ENDP	; C_Map::SetObjCallbacks
_TEXT	ENDS
; Function compile flags: /Odtp
; File c:\users\zhitao li\documents\visual studio 2012\projects\freefalcon\ui\src\campaign\cmap.cpp
_TEXT	SEGMENT
_this$ = -12						; size = 4
_j$ = -8						; size = 4
_i$ = -4						; size = 4
_cb$ = 8						; size = 4
?SetAllNavalUnitCallbacks@C_Map@@QAEXP6AXJFPAVC_Base@@@Z@Z PROC ; C_Map::SetAllNavalUnitCallbacks
; _this$ = ecx

; 2319 : {

	push	ebp
	mov	ebp, esp
	sub	esp, 12					; 0000000cH
	mov	DWORD PTR _this$[ebp], ecx

; 2320 : 	long i,j;
; 2321 : 
; 2322 : 	for(i=0;i<_MAX_TEAMS_;i++)

	mov	DWORD PTR _i$[ebp], 0
	jmp	SHORT $LN7@SetAllNava
$LN6@SetAllNava:
	mov	eax, DWORD PTR _i$[ebp]
	add	eax, 1
	mov	DWORD PTR _i$[ebp], eax
$LN7@SetAllNava:
	cmp	DWORD PTR _i$[ebp], 8
	jge	SHORT $LN8@SetAllNava

; 2323 : 		for(j=0;j<_MAP_NUM_NAV_TYPES_;j++)

	mov	DWORD PTR _j$[ebp], 0
	jmp	SHORT $LN4@SetAllNava
$LN3@SetAllNava:
	mov	ecx, DWORD PTR _j$[ebp]
	add	ecx, 1
	mov	DWORD PTR _j$[ebp], ecx
$LN4@SetAllNava:
	cmp	DWORD PTR _j$[ebp], 2
	jge	SHORT $LN2@SetAllNava

; 2324 : 			if(Team_[i].NavalUnits->Type[j])

	mov	edx, DWORD PTR _i$[ebp]
	imul	edx, 24					; 00000018H
	mov	eax, DWORD PTR _this$[ebp]
	mov	ecx, DWORD PTR [eax+edx+872]
	mov	edx, DWORD PTR _j$[ebp]
	cmp	DWORD PTR [ecx+edx*4+8], 0
	je	SHORT $LN1@SetAllNava

; 2325 : 				Team_[i].NavalUnits->Type[j]->SetCallback(cb);

	mov	eax, DWORD PTR _cb$[ebp]
	push	eax
	mov	ecx, DWORD PTR _i$[ebp]
	imul	ecx, 24					; 00000018H
	mov	edx, DWORD PTR _this$[ebp]
	mov	eax, DWORD PTR [edx+ecx+872]
	mov	ecx, DWORD PTR _j$[ebp]
	mov	edx, DWORD PTR [eax+ecx*4+8]
	mov	eax, DWORD PTR _i$[ebp]
	imul	eax, 24					; 00000018H
	mov	ecx, DWORD PTR _this$[ebp]
	mov	eax, DWORD PTR [ecx+eax+872]
	mov	ecx, DWORD PTR _j$[ebp]
	mov	edx, DWORD PTR [edx]
	mov	ecx, DWORD PTR [eax+ecx*4+8]
	mov	eax, DWORD PTR [edx+100]
	call	eax
$LN1@SetAllNava:

; 2326 : }

	jmp	SHORT $LN3@SetAllNava
$LN2@SetAllNava:
	jmp	SHORT $LN6@SetAllNava
$LN8@SetAllNava:
	mov	esp, ebp
	pop	ebp
	ret	4
?SetAllNavalUnitCallbacks@C_Map@@QAEXP6AXJFPAVC_Base@@@Z@Z ENDP ; C_Map::SetAllNavalUnitCallbacks
_TEXT	ENDS
; Function compile flags: /Odtp
; File c:\users\zhitao li\documents\visual studio 2012\projects\freefalcon\ui\src\campaign\cmap.cpp
_TEXT	SEGMENT
_this$ = -16						; size = 4
_k$ = -12						; size = 4
_j$ = -8						; size = 4
_i$ = -4						; size = 4
_cb$ = 8						; size = 4
?SetAllGroundUnitCallbacks@C_Map@@QAEXP6AXJFPAVC_Base@@@Z@Z PROC ; C_Map::SetAllGroundUnitCallbacks
; _this$ = ecx

; 2307 : {

	push	ebp
	mov	ebp, esp
	sub	esp, 16					; 00000010H
	mov	DWORD PTR _this$[ebp], ecx

; 2308 : 	long i,j,k;
; 2309 : 
; 2310 : 	for(i=0;i<_MAX_TEAMS_;i++)

	mov	DWORD PTR _i$[ebp], 0
	jmp	SHORT $LN11@SetAllGrou
$LN10@SetAllGrou:
	mov	eax, DWORD PTR _i$[ebp]
	add	eax, 1
	mov	DWORD PTR _i$[ebp], eax
$LN11@SetAllGrou:
	cmp	DWORD PTR _i$[ebp], 8
	jge	$LN12@SetAllGrou

; 2311 : 		for(j=0;j<_MAP_NUM_GND_TYPES_;j++)

	mov	DWORD PTR _j$[ebp], 0
	jmp	SHORT $LN8@SetAllGrou
$LN7@SetAllGrou:
	mov	ecx, DWORD PTR _j$[ebp]
	add	ecx, 1
	mov	DWORD PTR _j$[ebp], ecx
$LN8@SetAllGrou:
	cmp	DWORD PTR _j$[ebp], 4
	jge	$LN6@SetAllGrou

; 2312 : 			for(k=0;k<_MAP_NUM_GND_LEVELS_;k++)

	mov	DWORD PTR _k$[ebp], 0
	jmp	SHORT $LN5@SetAllGrou
$LN4@SetAllGrou:
	mov	edx, DWORD PTR _k$[ebp]
	add	edx, 1
	mov	DWORD PTR _k$[ebp], edx
$LN5@SetAllGrou:
	cmp	DWORD PTR _k$[ebp], 3
	jge	$LN3@SetAllGrou

; 2313 : 				if(Team_[i].Units->Type[j])

	mov	eax, DWORD PTR _i$[ebp]
	imul	eax, 24					; 00000018H
	mov	ecx, DWORD PTR _this$[ebp]
	mov	edx, DWORD PTR [ecx+eax+868]
	mov	eax, DWORD PTR _j$[ebp]
	cmp	DWORD PTR [edx+eax*4+16], 0
	je	SHORT $LN2@SetAllGrou

; 2314 : 					if(Team_[i].Units->Type[j]->Levels[k])

	mov	ecx, DWORD PTR _i$[ebp]
	imul	ecx, 24					; 00000018H
	mov	edx, DWORD PTR _this$[ebp]
	mov	eax, DWORD PTR [edx+ecx+868]
	mov	ecx, DWORD PTR _j$[ebp]
	mov	edx, DWORD PTR [eax+ecx*4+16]
	mov	eax, DWORD PTR _k$[ebp]
	cmp	DWORD PTR [edx+eax*4+12], 0
	je	SHORT $LN2@SetAllGrou

; 2315 : 						Team_[i].Units->Type[j]->Levels[k]->SetCallback(cb);

	mov	ecx, DWORD PTR _cb$[ebp]
	push	ecx
	mov	edx, DWORD PTR _i$[ebp]
	imul	edx, 24					; 00000018H
	mov	eax, DWORD PTR _this$[ebp]
	mov	ecx, DWORD PTR [eax+edx+868]
	mov	edx, DWORD PTR _j$[ebp]
	mov	eax, DWORD PTR [ecx+edx*4+16]
	mov	ecx, DWORD PTR _k$[ebp]
	mov	edx, DWORD PTR [eax+ecx*4+12]
	mov	eax, DWORD PTR _i$[ebp]
	imul	eax, 24					; 00000018H
	mov	ecx, DWORD PTR _this$[ebp]
	mov	eax, DWORD PTR [ecx+eax+868]
	mov	ecx, DWORD PTR _j$[ebp]
	mov	eax, DWORD PTR [eax+ecx*4+16]
	mov	ecx, DWORD PTR _k$[ebp]
	mov	edx, DWORD PTR [edx]
	mov	ecx, DWORD PTR [eax+ecx*4+12]
	mov	eax, DWORD PTR [edx+100]
	call	eax
$LN2@SetAllGrou:

; 2316 : }

	jmp	$LN4@SetAllGrou
$LN3@SetAllGrou:
	jmp	$LN7@SetAllGrou
$LN6@SetAllGrou:
	jmp	$LN10@SetAllGrou
$LN12@SetAllGrou:
	mov	esp, ebp
	pop	ebp
	ret	4
?SetAllGroundUnitCallbacks@C_Map@@QAEXP6AXJFPAVC_Base@@@Z@Z ENDP ; C_Map::SetAllGroundUnitCallbacks
_TEXT	ENDS
; Function compile flags: /Odtp
; File c:\users\zhitao li\documents\visual studio 2012\projects\freefalcon\ui\src\campaign\cmap.cpp
_TEXT	SEGMENT
_this$ = -12						; size = 4
_j$ = -8						; size = 4
_i$ = -4						; size = 4
_cb$ = 8						; size = 4
?SetAllAirUnitCallbacks@C_Map@@QAEXP6AXJFPAVC_Base@@@Z@Z PROC ; C_Map::SetAllAirUnitCallbacks
; _this$ = ecx

; 2297 : {

	push	ebp
	mov	ebp, esp
	sub	esp, 12					; 0000000cH
	mov	DWORD PTR _this$[ebp], ecx

; 2298 : 	long i,j;
; 2299 : 
; 2300 : 	for(i=0;i<_MAX_TEAMS_;i++)

	mov	DWORD PTR _i$[ebp], 0
	jmp	SHORT $LN7@SetAllAirU
$LN6@SetAllAirU:
	mov	eax, DWORD PTR _i$[ebp]
	add	eax, 1
	mov	DWORD PTR _i$[ebp], eax
$LN7@SetAllAirU:
	cmp	DWORD PTR _i$[ebp], 8
	jge	SHORT $LN8@SetAllAirU

; 2301 : 		for(j=0;j<_MAP_NUM_AIR_TYPES_;j++)

	mov	DWORD PTR _j$[ebp], 0
	jmp	SHORT $LN4@SetAllAirU
$LN3@SetAllAirU:
	mov	ecx, DWORD PTR _j$[ebp]
	add	ecx, 1
	mov	DWORD PTR _j$[ebp], ecx
$LN4@SetAllAirU:
	cmp	DWORD PTR _j$[ebp], 5
	jge	SHORT $LN2@SetAllAirU

; 2302 : 			if(Team_[i].AirUnits->Type[j])

	mov	edx, DWORD PTR _i$[ebp]
	imul	edx, 24					; 00000018H
	mov	eax, DWORD PTR _this$[ebp]
	mov	ecx, DWORD PTR [eax+edx+864]
	mov	edx, DWORD PTR _j$[ebp]
	cmp	DWORD PTR [ecx+edx*4+20], 0
	je	SHORT $LN1@SetAllAirU

; 2303 : 				Team_[i].AirUnits->Type[j]->SetCallback(cb);

	mov	eax, DWORD PTR _cb$[ebp]
	push	eax
	mov	ecx, DWORD PTR _i$[ebp]
	imul	ecx, 24					; 00000018H
	mov	edx, DWORD PTR _this$[ebp]
	mov	eax, DWORD PTR [edx+ecx+864]
	mov	ecx, DWORD PTR _j$[ebp]
	mov	edx, DWORD PTR [eax+ecx*4+20]
	mov	eax, DWORD PTR _i$[ebp]
	imul	eax, 24					; 00000018H
	mov	ecx, DWORD PTR _this$[ebp]
	mov	eax, DWORD PTR [ecx+eax+864]
	mov	ecx, DWORD PTR _j$[ebp]
	mov	edx, DWORD PTR [edx]
	mov	ecx, DWORD PTR [eax+ecx*4+20]
	mov	eax, DWORD PTR [edx+100]
	call	eax
$LN1@SetAllAirU:

; 2304 : }

	jmp	SHORT $LN3@SetAllAirU
$LN2@SetAllAirU:
	jmp	SHORT $LN6@SetAllAirU
$LN8@SetAllAirU:
	mov	esp, ebp
	pop	ebp
	ret	4
?SetAllAirUnitCallbacks@C_Map@@QAEXP6AXJFPAVC_Base@@@Z@Z ENDP ; C_Map::SetAllAirUnitCallbacks
_TEXT	ENDS
; Function compile flags: /Odtp
; File c:\users\zhitao li\documents\visual studio 2012\projects\freefalcon\ui\src\campaign\cmap.cpp
_TEXT	SEGMENT
_this$ = -12						; size = 4
_j$ = -8						; size = 4
_i$ = -4						; size = 4
_cb$ = 8						; size = 4
?SetAllObjCallbacks@C_Map@@QAEXP6AXJFPAVC_Base@@@Z@Z PROC ; C_Map::SetAllObjCallbacks
; _this$ = ecx

; 2287 : {

	push	ebp
	mov	ebp, esp
	sub	esp, 12					; 0000000cH
	mov	DWORD PTR _this$[ebp], ecx

; 2288 : 	long i,j;
; 2289 : 
; 2290 : 	for(i=0;i<_MAX_TEAMS_;i++)

	mov	DWORD PTR _i$[ebp], 0
	jmp	SHORT $LN7@SetAllObjC
$LN6@SetAllObjC:
	mov	eax, DWORD PTR _i$[ebp]
	add	eax, 1
	mov	DWORD PTR _i$[ebp], eax
$LN7@SetAllObjC:
	cmp	DWORD PTR _i$[ebp], 8
	jge	SHORT $LN8@SetAllObjC

; 2291 : 		for(j=0;j<_MAP_NUM_OBJ_TYPES_;j++)

	mov	DWORD PTR _j$[ebp], 0
	jmp	SHORT $LN4@SetAllObjC
$LN3@SetAllObjC:
	mov	ecx, DWORD PTR _j$[ebp]
	add	ecx, 1
	mov	DWORD PTR _j$[ebp], ecx
$LN4@SetAllObjC:
	cmp	DWORD PTR _j$[ebp], 14			; 0000000eH
	jge	SHORT $LN2@SetAllObjC

; 2292 : 			if(Team_[i].Objectives->Type[j])

	mov	edx, DWORD PTR _i$[ebp]
	imul	edx, 24					; 00000018H
	mov	eax, DWORD PTR _this$[ebp]
	mov	ecx, DWORD PTR [eax+edx+876]
	mov	edx, DWORD PTR _j$[ebp]
	cmp	DWORD PTR [ecx+edx*4+56], 0
	je	SHORT $LN1@SetAllObjC

; 2293 : 				Team_[i].Objectives->Type[j]->SetCallback(cb);

	mov	eax, DWORD PTR _cb$[ebp]
	push	eax
	mov	ecx, DWORD PTR _i$[ebp]
	imul	ecx, 24					; 00000018H
	mov	edx, DWORD PTR _this$[ebp]
	mov	eax, DWORD PTR [edx+ecx+876]
	mov	ecx, DWORD PTR _j$[ebp]
	mov	edx, DWORD PTR [eax+ecx*4+56]
	mov	eax, DWORD PTR _i$[ebp]
	imul	eax, 24					; 00000018H
	mov	ecx, DWORD PTR _this$[ebp]
	mov	eax, DWORD PTR [ecx+eax+876]
	mov	ecx, DWORD PTR _j$[ebp]
	mov	edx, DWORD PTR [edx]
	mov	ecx, DWORD PTR [eax+ecx*4+56]
	mov	eax, DWORD PTR [edx+100]
	call	eax
$LN1@SetAllObjC:

; 2294 : }

	jmp	SHORT $LN3@SetAllObjC
$LN2@SetAllObjC:
	jmp	SHORT $LN6@SetAllObjC
$LN8@SetAllObjC:
	mov	esp, ebp
	pop	ebp
	ret	4
?SetAllObjCallbacks@C_Map@@QAEXP6AXJFPAVC_Base@@@Z@Z ENDP ; C_Map::SetAllObjCallbacks
_TEXT	ENDS
; Function compile flags: /Odtp
; File c:\users\zhitao li\documents\visual studio 2012\projects\freefalcon\ui\src\campaign\cmap.cpp
_TEXT	SEGMENT
_this$ = -24						; size = 4
_x$ = -20						; size = 2
_y$ = -16						; size = 2
_k$ = -12						; size = 2
_j$ = -8						; size = 2
_i$ = -4						; size = 2
?DrawMap@C_Map@@QAEXXZ PROC				; C_Map::DrawMap
; _this$ = ecx

; 2720 : {

	push	ebp
	mov	ebp, esp
	sub	esp, 24					; 00000018H
	push	esi
	push	edi
	mov	DWORD PTR _this$[ebp], ecx

; 2721 : 	short i,j,k;
; 2722 : 	short x,y;
; 2723 : 
; 2724 : 	if(flags_ & (I_NEED_TO_DRAW|I_NEED_TO_DRAW_MAP))

	mov	eax, DWORD PTR _this$[ebp]
	mov	ecx, DWORD PTR [eax+736]
	and	ecx, 3
	je	$LN48@DrawMap

; 2725 : 	{
; 2726 : // 2002-04-16 MN update the bullseye location when it changed
; 2727 : 		TheCampaign.GetBullseyeLocation(&x,&y);

	lea	edx, DWORD PTR _y$[ebp]
	push	edx
	lea	eax, DWORD PTR _x$[ebp]
	push	eax
	mov	ecx, OFFSET ?TheCampaign@@3VCampaignClass@@A ; TheCampaign
	call	?GetBullseyeLocation@CampaignClass@@QAEXPAF0@Z ; CampaignClass::GetBullseyeLocation

; 2728 : 		if (x != BullsEyeX_ || y != BullsEyeY_)

	movsx	ecx, WORD PTR _x$[ebp]
	cvtsi2ss xmm0, ecx
	mov	edx, DWORD PTR _this$[ebp]
	ucomiss	xmm0, DWORD PTR [edx+744]
	lahf
	test	ah, 68					; 00000044H
	jp	SHORT $LN46@DrawMap
	movsx	eax, WORD PTR _y$[ebp]
	cvtsi2ss xmm0, eax
	mov	ecx, DWORD PTR _this$[ebp]
	ucomiss	xmm0, DWORD PTR [ecx+748]
	lahf
	test	ah, 68					; 00000044H
	jnp	SHORT $LN47@DrawMap
$LN46@DrawMap:

; 2729 : 			SetBullsEye(x * FEET_PER_KM,(TheCampaign.TheaterSizeY-y) * FEET_PER_KM);

	movsx	edx, WORD PTR ?TheCampaign@@3VCampaignClass@@A+88
	movsx	eax, WORD PTR _y$[ebp]
	sub	edx, eax
	cvtsi2ss xmm0, edx
	mulss	xmm0, DWORD PTR __real@454cffae
	push	ecx
	movss	DWORD PTR [esp], xmm0
	movsx	ecx, WORD PTR _x$[ebp]
	cvtsi2ss xmm0, ecx
	mulss	xmm0, DWORD PTR __real@454cffae
	push	ecx
	movss	DWORD PTR [esp], xmm0
	mov	ecx, DWORD PTR _this$[ebp]
	call	?SetBullsEye@C_Map@@QAEXMM@Z		; C_Map::SetBullsEye
$LN47@DrawMap:

; 2730 : 
; 2731 : 		if(flags_ & I_NEED_TO_DRAW_MAP)

	mov	edx, DWORD PTR _this$[ebp]
	mov	eax, DWORD PTR [edx+736]
	and	eax, 2
	je	SHORT $LN45@DrawMap

; 2732 : 		{
; 2733 : 
; 2734 : 			if (Map_)

	mov	ecx, DWORD PTR _this$[ebp]
	cmp	DWORD PTR [ecx+808], 0
	je	SHORT $LN44@DrawMap

; 2735 : 			{
; 2736 : 				Map_->Refresh();

	mov	edx, DWORD PTR _this$[ebp]
	mov	eax, DWORD PTR [edx+808]
	mov	ecx, DWORD PTR _this$[ebp]
	mov	edx, DWORD PTR [eax]
	mov	ecx, DWORD PTR [ecx+808]
	mov	eax, DWORD PTR [edx+160]
	call	eax
$LN44@DrawMap:

; 2737 : 			}
; 2738 : 			flags_ ^= I_NEED_TO_DRAW_MAP;

	mov	ecx, DWORD PTR _this$[ebp]
	mov	edx, DWORD PTR [ecx+736]
	xor	edx, 2
	mov	eax, DWORD PTR _this$[ebp]
	mov	DWORD PTR [eax+736], edx
$LN45@DrawMap:

; 2739 : 		}
; 2740 : 
; 2741 : 		if(BullsEye_)

	mov	ecx, DWORD PTR _this$[ebp]
	cmp	DWORD PTR [ecx+1148], 0
	je	SHORT $LN43@DrawMap

; 2742 : 			BullsEye_->Refresh();

	mov	edx, DWORD PTR _this$[ebp]
	mov	eax, DWORD PTR [edx+1148]
	mov	ecx, DWORD PTR _this$[ebp]
	mov	edx, DWORD PTR [eax]
	mov	ecx, DWORD PTR [ecx+1148]
	mov	eax, DWORD PTR [edx+160]
	call	eax
$LN43@DrawMap:

; 2743 : 		for(i=0;i<_MAX_TEAMS_;i++)

	xor	ecx, ecx
	mov	WORD PTR _i$[ebp], cx
	jmp	SHORT $LN42@DrawMap
$LN41@DrawMap:
	mov	dx, WORD PTR _i$[ebp]
	add	dx, 1
	mov	WORD PTR _i$[ebp], dx
$LN42@DrawMap:
	movsx	eax, WORD PTR _i$[ebp]
	cmp	eax, 8
	jge	$LN40@DrawMap

; 2744 : 			if((TeamFlags_[i] & _MAP_OBJECTIVES_) && Team_[i].Objectives)

	movsx	ecx, WORD PTR _i$[ebp]
	mov	edx, DWORD PTR _this$[ebp]
	mov	eax, DWORD PTR [edx+ecx*4+828]
	and	eax, 16777216				; 01000000H
	je	$LN36@DrawMap
	movsx	ecx, WORD PTR _i$[ebp]
	imul	ecx, 24					; 00000018H
	mov	edx, DWORD PTR _this$[ebp]
	cmp	DWORD PTR [edx+ecx+876], 0
	je	SHORT $LN36@DrawMap

; 2745 : 			{
; 2746 : 				for(j=0;j<_MAP_NUM_OBJ_TYPES_;j++)

	xor	eax, eax
	mov	WORD PTR _j$[ebp], ax
	jmp	SHORT $LN38@DrawMap
$LN37@DrawMap:
	mov	cx, WORD PTR _j$[ebp]
	add	cx, 1
	mov	WORD PTR _j$[ebp], cx
$LN38@DrawMap:
	movsx	edx, WORD PTR _j$[ebp]
	cmp	edx, 14					; 0000000eH
	jge	SHORT $LN36@DrawMap

; 2747 : 				{
; 2748 : 					if(Team_[i].Objectives->Flags[j])

	movsx	eax, WORD PTR _i$[ebp]
	imul	eax, 24					; 00000018H
	mov	ecx, DWORD PTR _this$[ebp]
	mov	edx, DWORD PTR [ecx+eax+876]
	movsx	eax, WORD PTR _j$[ebp]
	cmp	DWORD PTR [edx+eax*4], 0
	je	SHORT $LN35@DrawMap

; 2749 : 						Team_[i].Objectives->Type[j]->Refresh();

	movsx	ecx, WORD PTR _i$[ebp]
	imul	ecx, 24					; 00000018H
	mov	edx, DWORD PTR _this$[ebp]
	mov	eax, DWORD PTR [edx+ecx+876]
	movsx	ecx, WORD PTR _j$[ebp]
	mov	edx, DWORD PTR [eax+ecx*4+56]
	movsx	eax, WORD PTR _j$[ebp]
	movsx	ecx, WORD PTR _i$[ebp]
	imul	ecx, 24					; 00000018H
	mov	esi, DWORD PTR _this$[ebp]
	mov	ecx, DWORD PTR [esi+ecx+876]
	mov	edx, DWORD PTR [edx]
	mov	ecx, DWORD PTR [ecx+eax*4+56]
	mov	eax, DWORD PTR [edx+160]
	call	eax
$LN35@DrawMap:

; 2750 : 				}

	jmp	SHORT $LN37@DrawMap
$LN36@DrawMap:
	jmp	$LN41@DrawMap
$LN40@DrawMap:

; 2751 : 			}
; 2752 : 		for(i=0;i<_MAX_TEAMS_;i++)

	xor	ecx, ecx
	mov	WORD PTR _i$[ebp], cx
	jmp	SHORT $LN34@DrawMap
$LN33@DrawMap:
	mov	dx, WORD PTR _i$[ebp]
	add	dx, 1
	mov	WORD PTR _i$[ebp], dx
$LN34@DrawMap:
	movsx	eax, WORD PTR _i$[ebp]
	cmp	eax, 8
	jge	$LN32@DrawMap

; 2753 : 			if((TeamFlags_[i] & _MAP_NAVAL_UNITS_) && Team_[i].NavalUnits)

	movsx	ecx, WORD PTR _i$[ebp]
	mov	edx, DWORD PTR _this$[ebp]
	mov	eax, DWORD PTR [edx+ecx*4+828]
	and	eax, 134217728				; 08000000H
	je	$LN28@DrawMap
	movsx	ecx, WORD PTR _i$[ebp]
	imul	ecx, 24					; 00000018H
	mov	edx, DWORD PTR _this$[ebp]
	cmp	DWORD PTR [edx+ecx+872], 0
	je	SHORT $LN28@DrawMap

; 2754 : 			{
; 2755 : 				for(j=0;j<_MAP_NUM_NAV_TYPES_;j++)

	xor	eax, eax
	mov	WORD PTR _j$[ebp], ax
	jmp	SHORT $LN30@DrawMap
$LN29@DrawMap:
	mov	cx, WORD PTR _j$[ebp]
	add	cx, 1
	mov	WORD PTR _j$[ebp], cx
$LN30@DrawMap:
	movsx	edx, WORD PTR _j$[ebp]
	cmp	edx, 2
	jge	SHORT $LN28@DrawMap

; 2756 : 				{
; 2757 : 					if(Team_[i].NavalUnits->Flags[j])

	movsx	eax, WORD PTR _i$[ebp]
	imul	eax, 24					; 00000018H
	mov	ecx, DWORD PTR _this$[ebp]
	mov	edx, DWORD PTR [ecx+eax+872]
	movsx	eax, WORD PTR _j$[ebp]
	cmp	DWORD PTR [edx+eax*4], 0
	je	SHORT $LN27@DrawMap

; 2758 : 						Team_[i].NavalUnits->Type[j]->Refresh();

	movsx	ecx, WORD PTR _i$[ebp]
	imul	ecx, 24					; 00000018H
	mov	edx, DWORD PTR _this$[ebp]
	mov	eax, DWORD PTR [edx+ecx+872]
	movsx	ecx, WORD PTR _j$[ebp]
	mov	edx, DWORD PTR [eax+ecx*4+8]
	movsx	eax, WORD PTR _j$[ebp]
	movsx	ecx, WORD PTR _i$[ebp]
	imul	ecx, 24					; 00000018H
	mov	esi, DWORD PTR _this$[ebp]
	mov	ecx, DWORD PTR [esi+ecx+872]
	mov	edx, DWORD PTR [edx]
	mov	ecx, DWORD PTR [ecx+eax*4+8]
	mov	eax, DWORD PTR [edx+160]
	call	eax
$LN27@DrawMap:

; 2759 : 				}

	jmp	SHORT $LN29@DrawMap
$LN28@DrawMap:
	jmp	$LN33@DrawMap
$LN32@DrawMap:

; 2760 : 			}
; 2761 : 		for(i=0;i<_MAX_TEAMS_;i++)

	xor	ecx, ecx
	mov	WORD PTR _i$[ebp], cx
	jmp	SHORT $LN26@DrawMap
$LN25@DrawMap:
	mov	dx, WORD PTR _i$[ebp]
	add	dx, 1
	mov	WORD PTR _i$[ebp], dx
$LN26@DrawMap:
	movsx	eax, WORD PTR _i$[ebp]
	cmp	eax, 8
	jge	$LN24@DrawMap

; 2762 : 			if((TeamFlags_[i] & _MAP_UNITS_) && Team_[i].Units)

	movsx	ecx, WORD PTR _i$[ebp]
	mov	edx, DWORD PTR _this$[ebp]
	mov	eax, DWORD PTR [edx+ecx*4+828]
	and	eax, 33554432				; 02000000H
	je	$LN20@DrawMap
	movsx	ecx, WORD PTR _i$[ebp]
	imul	ecx, 24					; 00000018H
	mov	edx, DWORD PTR _this$[ebp]
	cmp	DWORD PTR [edx+ecx+868], 0
	je	$LN20@DrawMap

; 2763 : 			{
; 2764 : 				for(j=0;j<_MAP_NUM_GND_TYPES_;j++)

	xor	eax, eax
	mov	WORD PTR _j$[ebp], ax
	jmp	SHORT $LN22@DrawMap
$LN21@DrawMap:
	mov	cx, WORD PTR _j$[ebp]
	add	cx, 1
	mov	WORD PTR _j$[ebp], cx
$LN22@DrawMap:
	movsx	edx, WORD PTR _j$[ebp]
	cmp	edx, 4
	jge	$LN20@DrawMap

; 2765 : 				{
; 2766 : 					if(Team_[i].Units->Flags[j])

	movsx	eax, WORD PTR _i$[ebp]
	imul	eax, 24					; 00000018H
	mov	ecx, DWORD PTR _this$[ebp]
	mov	edx, DWORD PTR [ecx+eax+868]
	movsx	eax, WORD PTR _j$[ebp]
	cmp	DWORD PTR [edx+eax*4], 0
	je	$LN16@DrawMap

; 2767 : 					{
; 2768 : 						for(k=0;k<_MAP_NUM_GND_LEVELS_;k++)

	xor	ecx, ecx
	mov	WORD PTR _k$[ebp], cx
	jmp	SHORT $LN18@DrawMap
$LN17@DrawMap:
	mov	dx, WORD PTR _k$[ebp]
	add	dx, 1
	mov	WORD PTR _k$[ebp], dx
$LN18@DrawMap:
	movsx	eax, WORD PTR _k$[ebp]
	cmp	eax, 3
	jge	SHORT $LN16@DrawMap

; 2769 : 						{
; 2770 : 							if(Team_[i].Units->Type[j]->Flags[k])

	movsx	ecx, WORD PTR _i$[ebp]
	imul	ecx, 24					; 00000018H
	mov	edx, DWORD PTR _this$[ebp]
	mov	eax, DWORD PTR [edx+ecx+868]
	movsx	ecx, WORD PTR _j$[ebp]
	mov	edx, DWORD PTR [eax+ecx*4+16]
	movsx	eax, WORD PTR _k$[ebp]
	cmp	DWORD PTR [edx+eax*4], 0
	je	SHORT $LN15@DrawMap

; 2771 : 								Team_[i].Units->Type[j]->Levels[k]->Refresh();

	movsx	ecx, WORD PTR _i$[ebp]
	imul	ecx, 24					; 00000018H
	mov	edx, DWORD PTR _this$[ebp]
	mov	eax, DWORD PTR [edx+ecx+868]
	movsx	ecx, WORD PTR _j$[ebp]
	mov	edx, DWORD PTR [eax+ecx*4+16]
	movsx	eax, WORD PTR _k$[ebp]
	mov	ecx, DWORD PTR [edx+eax*4+12]
	movsx	edx, WORD PTR _k$[ebp]
	movsx	eax, WORD PTR _j$[ebp]
	movsx	esi, WORD PTR _i$[ebp]
	imul	esi, 24					; 00000018H
	mov	edi, DWORD PTR _this$[ebp]
	mov	esi, DWORD PTR [edi+esi+868]
	mov	eax, DWORD PTR [esi+eax*4+16]
	mov	esi, DWORD PTR [ecx]
	mov	ecx, DWORD PTR [eax+edx*4+12]
	mov	edx, DWORD PTR [esi+160]
	call	edx
$LN15@DrawMap:

; 2772 : 						}

	jmp	$LN17@DrawMap
$LN16@DrawMap:

; 2773 : 					}
; 2774 : 				}

	jmp	$LN21@DrawMap
$LN20@DrawMap:
	jmp	$LN25@DrawMap
$LN24@DrawMap:

; 2775 : 			}
; 2776 : 		for(i=0;i<_MAX_TEAMS_;i++)

	xor	eax, eax
	mov	WORD PTR _i$[ebp], ax
	jmp	SHORT $LN14@DrawMap
$LN13@DrawMap:
	mov	cx, WORD PTR _i$[ebp]
	add	cx, 1
	mov	WORD PTR _i$[ebp], cx
$LN14@DrawMap:
	movsx	edx, WORD PTR _i$[ebp]
	cmp	edx, 8
	jge	SHORT $LN12@DrawMap

; 2777 : 			if((TeamFlags_[i] & _MAP_WAYPOINTS_) && Team_[i].Waypoints)

	movsx	eax, WORD PTR _i$[ebp]
	mov	ecx, DWORD PTR _this$[ebp]
	mov	edx, DWORD PTR [ecx+eax*4+828]
	and	edx, 268435456				; 10000000H
	je	SHORT $LN11@DrawMap
	movsx	eax, WORD PTR _i$[ebp]
	imul	eax, 24					; 00000018H
	mov	ecx, DWORD PTR _this$[ebp]
	cmp	DWORD PTR [ecx+eax+880], 0
	je	SHORT $LN11@DrawMap

; 2778 : 				Team_[i].Waypoints->Refresh();

	movsx	edx, WORD PTR _i$[ebp]
	imul	edx, 24					; 00000018H
	mov	eax, DWORD PTR _this$[ebp]
	mov	ecx, DWORD PTR [eax+edx+880]
	movsx	edx, WORD PTR _i$[ebp]
	imul	edx, 24					; 00000018H
	mov	eax, DWORD PTR _this$[ebp]
	mov	esi, DWORD PTR [ecx]
	mov	ecx, DWORD PTR [eax+edx+880]
	mov	edx, DWORD PTR [esi+160]
	call	edx
$LN11@DrawMap:

; 2779 : 		for(i=0;i<_MAX_TEAMS_;i++)

	jmp	SHORT $LN13@DrawMap
$LN12@DrawMap:
	xor	eax, eax
	mov	WORD PTR _i$[ebp], ax
	jmp	SHORT $LN10@DrawMap
$LN9@DrawMap:
	mov	cx, WORD PTR _i$[ebp]
	add	cx, 1
	mov	WORD PTR _i$[ebp], cx
$LN10@DrawMap:
	movsx	edx, WORD PTR _i$[ebp]
	cmp	edx, 8
	jge	$LN8@DrawMap

; 2780 : 			if((TeamFlags_[i] & _MAP_AIR_UNITS_) && Team_[i].AirUnits)

	movsx	eax, WORD PTR _i$[ebp]
	mov	ecx, DWORD PTR _this$[ebp]
	mov	edx, DWORD PTR [ecx+eax*4+828]
	and	edx, 67108864				; 04000000H
	je	$LN4@DrawMap
	movsx	eax, WORD PTR _i$[ebp]
	imul	eax, 24					; 00000018H
	mov	ecx, DWORD PTR _this$[ebp]
	cmp	DWORD PTR [ecx+eax+864], 0
	je	SHORT $LN4@DrawMap

; 2781 : 			{
; 2782 : 				for(j=0;j<_MAP_NUM_AIR_TYPES_;j++)

	xor	edx, edx
	mov	WORD PTR _j$[ebp], dx
	jmp	SHORT $LN6@DrawMap
$LN5@DrawMap:
	mov	ax, WORD PTR _j$[ebp]
	add	ax, 1
	mov	WORD PTR _j$[ebp], ax
$LN6@DrawMap:
	movsx	ecx, WORD PTR _j$[ebp]
	cmp	ecx, 5
	jge	SHORT $LN4@DrawMap

; 2783 : 				{
; 2784 : 					if(Team_[i].AirUnits->Flags[j])

	movsx	edx, WORD PTR _i$[ebp]
	imul	edx, 24					; 00000018H
	mov	eax, DWORD PTR _this$[ebp]
	mov	ecx, DWORD PTR [eax+edx+864]
	movsx	edx, WORD PTR _j$[ebp]
	cmp	DWORD PTR [ecx+edx*4], 0
	je	SHORT $LN3@DrawMap

; 2785 : 						Team_[i].AirUnits->Type[j]->Refresh();

	movsx	eax, WORD PTR _i$[ebp]
	imul	eax, 24					; 00000018H
	mov	ecx, DWORD PTR _this$[ebp]
	mov	edx, DWORD PTR [ecx+eax+864]
	movsx	eax, WORD PTR _j$[ebp]
	mov	ecx, DWORD PTR [edx+eax*4+20]
	movsx	edx, WORD PTR _j$[ebp]
	movsx	eax, WORD PTR _i$[ebp]
	imul	eax, 24					; 00000018H
	mov	esi, DWORD PTR _this$[ebp]
	mov	eax, DWORD PTR [esi+eax+864]
	mov	esi, DWORD PTR [ecx]
	mov	ecx, DWORD PTR [eax+edx*4+20]
	mov	edx, DWORD PTR [esi+160]
	call	edx
$LN3@DrawMap:

; 2786 : 				}

	jmp	SHORT $LN5@DrawMap
$LN4@DrawMap:
	jmp	$LN9@DrawMap
$LN8@DrawMap:

; 2787 : 			}
; 2788 : 		if(CurIcons_)

	mov	eax, DWORD PTR _this$[ebp]
	cmp	DWORD PTR [eax+1116], 0
	je	SHORT $LN2@DrawMap

; 2789 : 			CurIcons_->Refresh();

	mov	ecx, DWORD PTR _this$[ebp]
	mov	edx, DWORD PTR [ecx+1116]
	mov	eax, DWORD PTR _this$[ebp]
	mov	edx, DWORD PTR [edx]
	mov	ecx, DWORD PTR [eax+1116]
	mov	eax, DWORD PTR [edx+160]
	call	eax
$LN2@DrawMap:

; 2790 : 		if(CurWP_)

	mov	ecx, DWORD PTR _this$[ebp]
	cmp	DWORD PTR [ecx+1092], 0
	je	SHORT $LN1@DrawMap

; 2791 : 			CurWP_->Refresh();

	mov	edx, DWORD PTR _this$[ebp]
	mov	eax, DWORD PTR [edx+1092]
	mov	ecx, DWORD PTR _this$[ebp]
	mov	edx, DWORD PTR [eax]
	mov	ecx, DWORD PTR [ecx+1092]
	mov	eax, DWORD PTR [edx+160]
	call	eax
$LN1@DrawMap:

; 2792 : 		flags_ ^= I_NEED_TO_DRAW;

	mov	ecx, DWORD PTR _this$[ebp]
	mov	edx, DWORD PTR [ecx+736]
	xor	edx, 1
	mov	eax, DWORD PTR _this$[ebp]
	mov	DWORD PTR [eax+736], edx
$LN48@DrawMap:

; 2793 : 	}
; 2794 : }

	pop	edi
	pop	esi
	mov	esp, ebp
	pop	ebp
	ret	0
?DrawMap@C_Map@@QAEXXZ ENDP				; C_Map::DrawMap
_TEXT	ENDS
; Function compile flags: /Odtp
; File c:\users\zhitao li\documents\visual studio 2012\projects\freefalcon\ui\src\campaign\cmap.cpp
_TEXT	SEGMENT
_this$ = -4						; size = 4
?TurnOffBullseye@C_Map@@QAEXXZ PROC			; C_Map::TurnOffBullseye
; _this$ = ecx

; 1625 : {

	push	ebp
	mov	ebp, esp
	push	ecx
	mov	DWORD PTR _this$[ebp], ecx

; 1626 : 	if(BullsEye_)

	mov	eax, DWORD PTR _this$[ebp]
	cmp	DWORD PTR [eax+1148], 0
	je	SHORT $LN3@TurnOffBul

; 1627 : 	{
; 1628 : 		BullsEye_->SetFlagBitOn(C_BIT_INVISIBLE);

	push	8192					; 00002000H
	mov	ecx, DWORD PTR _this$[ebp]
	mov	edx, DWORD PTR [ecx+1148]
	mov	eax, DWORD PTR _this$[ebp]
	mov	edx, DWORD PTR [edx]
	mov	ecx, DWORD PTR [eax+1148]
	mov	eax, DWORD PTR [edx+8]
	call	eax

; 1629 : 		if(DrawWindow_)

	mov	ecx, DWORD PTR _this$[ebp]
	cmp	DWORD PTR [ecx+1124], 0
	je	SHORT $LN3@TurnOffBul

; 1630 : 			DrawWindow_->RefreshWindow();

	mov	edx, DWORD PTR _this$[ebp]
	mov	ecx, DWORD PTR [edx+1124]
	call	?RefreshWindow@C_Window@@QAEXXZ		; C_Window::RefreshWindow
$LN3@TurnOffBul:

; 1631 : 	}
; 1632 : }

	mov	esp, ebp
	pop	ebp
	ret	0
?TurnOffBullseye@C_Map@@QAEXXZ ENDP			; C_Map::TurnOffBullseye
_TEXT	ENDS
; Function compile flags: /Odtp
; File c:\users\zhitao li\documents\visual studio 2012\projects\freefalcon\ui\src\campaign\cmap.cpp
_TEXT	SEGMENT
_this$ = -4						; size = 4
?TurnOnBullseye@C_Map@@QAEXXZ PROC			; C_Map::TurnOnBullseye
; _this$ = ecx

; 1615 : {

	push	ebp
	mov	ebp, esp
	push	ecx
	mov	DWORD PTR _this$[ebp], ecx

; 1616 : 	if(BullsEye_)

	mov	eax, DWORD PTR _this$[ebp]
	cmp	DWORD PTR [eax+1148], 0
	je	SHORT $LN3@TurnOnBull

; 1617 : 	{
; 1618 : 		BullsEye_->SetFlagBitOff(C_BIT_INVISIBLE);

	push	8192					; 00002000H
	mov	ecx, DWORD PTR _this$[ebp]
	mov	edx, DWORD PTR [ecx+1148]
	mov	eax, DWORD PTR _this$[ebp]
	mov	edx, DWORD PTR [edx]
	mov	ecx, DWORD PTR [eax+1148]
	mov	eax, DWORD PTR [edx+12]
	call	eax

; 1619 : 		if(DrawWindow_)

	mov	ecx, DWORD PTR _this$[ebp]
	cmp	DWORD PTR [ecx+1124], 0
	je	SHORT $LN3@TurnOnBull

; 1620 : 			DrawWindow_->RefreshWindow();

	mov	edx, DWORD PTR _this$[ebp]
	mov	ecx, DWORD PTR [edx+1124]
	call	?RefreshWindow@C_Window@@QAEXXZ		; C_Window::RefreshWindow
$LN3@TurnOnBull:

; 1621 : 	}
; 1622 : }

	mov	esp, ebp
	pop	ebp
	ret	0
?TurnOnBullseye@C_Map@@QAEXXZ ENDP			; C_Map::TurnOnBullseye
_TEXT	ENDS
; Function compile flags: /Odtp
; File c:\users\zhitao li\documents\visual studio 2012\projects\freefalcon\ui\src\campaign\cmap.cpp
_TEXT	SEGMENT
_this$ = -4						; size = 4
?TurnOffArrows@C_Map@@QAEXXZ PROC			; C_Map::TurnOffArrows
; _this$ = ecx

; 2271 : {

	push	ebp
	mov	ebp, esp
	push	ecx
	mov	DWORD PTR _this$[ebp], ecx

; 2272 : }

	mov	esp, ebp
	pop	ebp
	ret	0
?TurnOffArrows@C_Map@@QAEXXZ ENDP			; C_Map::TurnOffArrows
_TEXT	ENDS
; Function compile flags: /Odtp
; File c:\users\zhitao li\documents\visual studio 2012\projects\freefalcon\ui\src\campaign\cmap.cpp
_TEXT	SEGMENT
_this$ = -4						; size = 4
?TurnOffBoundaries@C_Map@@QAEXXZ PROC			; C_Map::TurnOffBoundaries
; _this$ = ecx

; 2267 : {

	push	ebp
	mov	ebp, esp
	push	ecx
	mov	DWORD PTR _this$[ebp], ecx

; 2268 : }

	mov	esp, ebp
	pop	ebp
	ret	0
?TurnOffBoundaries@C_Map@@QAEXXZ ENDP			; C_Map::TurnOffBoundaries
_TEXT	ENDS
; Function compile flags: /Odtp
; File c:\users\zhitao li\documents\visual studio 2012\projects\freefalcon\ui\src\campaign\cmap.cpp
_TEXT	SEGMENT
_this$ = -16						; size = 4
_k$ = -12						; size = 2
_i$ = -8						; size = 2
_j$ = -4						; size = 2
?TurnOffNames@C_Map@@QAEXXZ PROC			; C_Map::TurnOffNames
; _this$ = ecx

; 2248 : {

	push	ebp
	mov	ebp, esp
	sub	esp, 16					; 00000010H
	push	esi
	push	edi
	mov	DWORD PTR _this$[ebp], ecx

; 2249 : 	short i,j,k;
; 2250 : 
; 2251 : 	for(i=0;i<_MAX_TEAMS_;i++)

	xor	eax, eax
	mov	WORD PTR _i$[ebp], ax
	jmp	SHORT $LN18@TurnOffNam
$LN17@TurnOffNam:
	mov	cx, WORD PTR _i$[ebp]
	add	cx, 1
	mov	WORD PTR _i$[ebp], cx
$LN18@TurnOffNam:
	movsx	edx, WORD PTR _i$[ebp]
	cmp	edx, 8
	jge	$LN16@TurnOffNam

; 2252 : 	{
; 2253 : 		for(j=0;j<_MAP_NUM_OBJ_TYPES_;j++)

	xor	eax, eax
	mov	WORD PTR _j$[ebp], ax
	jmp	SHORT $LN15@TurnOffNam
$LN14@TurnOffNam:
	mov	cx, WORD PTR _j$[ebp]
	add	cx, 1
	mov	WORD PTR _j$[ebp], cx
$LN15@TurnOffNam:
	movsx	edx, WORD PTR _j$[ebp]
	cmp	edx, 14					; 0000000eH
	jge	SHORT $LN13@TurnOffNam

; 2254 : 			Team_[i].Objectives->Type[j]->SetFlagBitOn(C_BIT_NOLABEL);

	push	16777216				; 01000000H
	movsx	eax, WORD PTR _i$[ebp]
	imul	eax, 24					; 00000018H
	mov	ecx, DWORD PTR _this$[ebp]
	mov	edx, DWORD PTR [ecx+eax+876]
	movsx	eax, WORD PTR _j$[ebp]
	mov	ecx, DWORD PTR [edx+eax*4+56]
	movsx	edx, WORD PTR _j$[ebp]
	movsx	eax, WORD PTR _i$[ebp]
	imul	eax, 24					; 00000018H
	mov	esi, DWORD PTR _this$[ebp]
	mov	eax, DWORD PTR [esi+eax+876]
	mov	esi, DWORD PTR [ecx]
	mov	ecx, DWORD PTR [eax+edx*4+56]
	mov	edx, DWORD PTR [esi+8]
	call	edx
	jmp	SHORT $LN14@TurnOffNam
$LN13@TurnOffNam:

; 2255 : 		for(j=0;j<_MAP_NUM_NAV_TYPES_;j++)

	xor	eax, eax
	mov	WORD PTR _j$[ebp], ax
	jmp	SHORT $LN12@TurnOffNam
$LN11@TurnOffNam:
	mov	cx, WORD PTR _j$[ebp]
	add	cx, 1
	mov	WORD PTR _j$[ebp], cx
$LN12@TurnOffNam:
	movsx	edx, WORD PTR _j$[ebp]
	cmp	edx, 2
	jge	SHORT $LN10@TurnOffNam

; 2256 : 			Team_[i].NavalUnits->Type[j]->SetFlagBitOn(C_BIT_NOLABEL);

	push	16777216				; 01000000H
	movsx	eax, WORD PTR _i$[ebp]
	imul	eax, 24					; 00000018H
	mov	ecx, DWORD PTR _this$[ebp]
	mov	edx, DWORD PTR [ecx+eax+872]
	movsx	eax, WORD PTR _j$[ebp]
	mov	ecx, DWORD PTR [edx+eax*4+8]
	movsx	edx, WORD PTR _j$[ebp]
	movsx	eax, WORD PTR _i$[ebp]
	imul	eax, 24					; 00000018H
	mov	esi, DWORD PTR _this$[ebp]
	mov	eax, DWORD PTR [esi+eax+872]
	mov	esi, DWORD PTR [ecx]
	mov	ecx, DWORD PTR [eax+edx*4+8]
	mov	edx, DWORD PTR [esi+8]
	call	edx
	jmp	SHORT $LN11@TurnOffNam
$LN10@TurnOffNam:

; 2257 : 		for(j=0;j<_MAP_NUM_GND_TYPES_;j++)

	xor	eax, eax
	mov	WORD PTR _j$[ebp], ax
	jmp	SHORT $LN9@TurnOffNam
$LN8@TurnOffNam:
	mov	cx, WORD PTR _j$[ebp]
	add	cx, 1
	mov	WORD PTR _j$[ebp], cx
$LN9@TurnOffNam:
	movsx	edx, WORD PTR _j$[ebp]
	cmp	edx, 4
	jge	SHORT $LN7@TurnOffNam

; 2258 : 			for(k=0;k<_MAP_NUM_GND_LEVELS_;k++)

	xor	eax, eax
	mov	WORD PTR _k$[ebp], ax
	jmp	SHORT $LN6@TurnOffNam
$LN5@TurnOffNam:
	mov	cx, WORD PTR _k$[ebp]
	add	cx, 1
	mov	WORD PTR _k$[ebp], cx
$LN6@TurnOffNam:
	movsx	edx, WORD PTR _k$[ebp]
	cmp	edx, 3
	jge	SHORT $LN4@TurnOffNam

; 2259 : 				Team_[i].Units->Type[j]->Levels[k]->SetFlagBitOn(C_BIT_NOLABEL);

	push	16777216				; 01000000H
	movsx	eax, WORD PTR _i$[ebp]
	imul	eax, 24					; 00000018H
	mov	ecx, DWORD PTR _this$[ebp]
	mov	edx, DWORD PTR [ecx+eax+868]
	movsx	eax, WORD PTR _j$[ebp]
	mov	ecx, DWORD PTR [edx+eax*4+16]
	movsx	edx, WORD PTR _k$[ebp]
	mov	eax, DWORD PTR [ecx+edx*4+12]
	movsx	ecx, WORD PTR _k$[ebp]
	movsx	edx, WORD PTR _j$[ebp]
	movsx	esi, WORD PTR _i$[ebp]
	imul	esi, 24					; 00000018H
	mov	edi, DWORD PTR _this$[ebp]
	mov	esi, DWORD PTR [edi+esi+868]
	mov	edx, DWORD PTR [esi+edx*4+16]
	mov	eax, DWORD PTR [eax]
	mov	ecx, DWORD PTR [edx+ecx*4+12]
	mov	edx, DWORD PTR [eax+8]
	call	edx
	jmp	SHORT $LN5@TurnOffNam
$LN4@TurnOffNam:
	jmp	$LN8@TurnOffNam
$LN7@TurnOffNam:

; 2260 : 		for(j=0;j<_MAP_NUM_AIR_TYPES_;j++)

	xor	eax, eax
	mov	WORD PTR _j$[ebp], ax
	jmp	SHORT $LN3@TurnOffNam
$LN2@TurnOffNam:
	mov	cx, WORD PTR _j$[ebp]
	add	cx, 1
	mov	WORD PTR _j$[ebp], cx
$LN3@TurnOffNam:
	movsx	edx, WORD PTR _j$[ebp]
	cmp	edx, 5
	jge	SHORT $LN1@TurnOffNam

; 2261 : 			Team_[i].AirUnits->Type[j]->SetFlagBitOn(C_BIT_NOLABEL);

	push	16777216				; 01000000H
	movsx	eax, WORD PTR _i$[ebp]
	imul	eax, 24					; 00000018H
	mov	ecx, DWORD PTR _this$[ebp]
	mov	edx, DWORD PTR [ecx+eax+864]
	movsx	eax, WORD PTR _j$[ebp]
	mov	ecx, DWORD PTR [edx+eax*4+20]
	movsx	edx, WORD PTR _j$[ebp]
	movsx	eax, WORD PTR _i$[ebp]
	imul	eax, 24					; 00000018H
	mov	esi, DWORD PTR _this$[ebp]
	mov	eax, DWORD PTR [esi+eax+864]
	mov	esi, DWORD PTR [ecx]
	mov	ecx, DWORD PTR [eax+edx*4+20]
	mov	edx, DWORD PTR [esi+8]
	call	edx
	jmp	SHORT $LN2@TurnOffNam
$LN1@TurnOffNam:

; 2262 : 	}

	jmp	$LN17@TurnOffNam
$LN16@TurnOffNam:

; 2263 : 	flags_ |= I_NEED_TO_DRAW_MAP;

	mov	eax, DWORD PTR _this$[ebp]
	mov	ecx, DWORD PTR [eax+736]
	or	ecx, 2
	mov	edx, DWORD PTR _this$[ebp]
	mov	DWORD PTR [edx+736], ecx

; 2264 : }

	pop	edi
	pop	esi
	mov	esp, ebp
	pop	ebp
	ret	0
?TurnOffNames@C_Map@@QAEXXZ ENDP			; C_Map::TurnOffNames
_TEXT	ENDS
; Function compile flags: /Odtp
; File c:\users\zhitao li\documents\visual studio 2012\projects\freefalcon\ui\src\campaign\cmap.cpp
_TEXT	SEGMENT
_this$ = -4						; size = 4
?TurnOnArrows@C_Map@@QAEXXZ PROC			; C_Map::TurnOnArrows
; _this$ = ecx

; 2244 : {

	push	ebp
	mov	ebp, esp
	push	ecx
	mov	DWORD PTR _this$[ebp], ecx

; 2245 : }

	mov	esp, ebp
	pop	ebp
	ret	0
?TurnOnArrows@C_Map@@QAEXXZ ENDP			; C_Map::TurnOnArrows
_TEXT	ENDS
; Function compile flags: /Odtp
; File c:\users\zhitao li\documents\visual studio 2012\projects\freefalcon\ui\src\campaign\cmap.cpp
_TEXT	SEGMENT
_this$ = -4						; size = 4
?TurnOnBoundaries@C_Map@@QAEXXZ PROC			; C_Map::TurnOnBoundaries
; _this$ = ecx

; 2240 : {

	push	ebp
	mov	ebp, esp
	push	ecx
	mov	DWORD PTR _this$[ebp], ecx

; 2241 : }

	mov	esp, ebp
	pop	ebp
	ret	0
?TurnOnBoundaries@C_Map@@QAEXXZ ENDP			; C_Map::TurnOnBoundaries
_TEXT	ENDS
; Function compile flags: /Odtp
; File c:\users\zhitao li\documents\visual studio 2012\projects\freefalcon\ui\src\campaign\cmap.cpp
_TEXT	SEGMENT
_this$ = -16						; size = 4
_k$ = -12						; size = 2
_i$ = -8						; size = 2
_j$ = -4						; size = 2
?TurnOnNames@C_Map@@QAEXXZ PROC				; C_Map::TurnOnNames
; _this$ = ecx

; 2221 : {

	push	ebp
	mov	ebp, esp
	sub	esp, 16					; 00000010H
	push	esi
	push	edi
	mov	DWORD PTR _this$[ebp], ecx

; 2222 : 	short i,j,k;
; 2223 : 
; 2224 : 	for(i=0;i<_MAX_TEAMS_;i++)

	xor	eax, eax
	mov	WORD PTR _i$[ebp], ax
	jmp	SHORT $LN18@TurnOnName
$LN17@TurnOnName:
	mov	cx, WORD PTR _i$[ebp]
	add	cx, 1
	mov	WORD PTR _i$[ebp], cx
$LN18@TurnOnName:
	movsx	edx, WORD PTR _i$[ebp]
	cmp	edx, 8
	jge	$LN16@TurnOnName

; 2225 : 	{
; 2226 : 		for(j=0;j<_MAP_NUM_OBJ_TYPES_;j++)

	xor	eax, eax
	mov	WORD PTR _j$[ebp], ax
	jmp	SHORT $LN15@TurnOnName
$LN14@TurnOnName:
	mov	cx, WORD PTR _j$[ebp]
	add	cx, 1
	mov	WORD PTR _j$[ebp], cx
$LN15@TurnOnName:
	movsx	edx, WORD PTR _j$[ebp]
	cmp	edx, 14					; 0000000eH
	jge	SHORT $LN13@TurnOnName

; 2227 : 			Team_[i].Objectives->Type[j]->SetFlagBitOff(C_BIT_NOLABEL);

	push	16777216				; 01000000H
	movsx	eax, WORD PTR _i$[ebp]
	imul	eax, 24					; 00000018H
	mov	ecx, DWORD PTR _this$[ebp]
	mov	edx, DWORD PTR [ecx+eax+876]
	movsx	eax, WORD PTR _j$[ebp]
	mov	ecx, DWORD PTR [edx+eax*4+56]
	movsx	edx, WORD PTR _j$[ebp]
	movsx	eax, WORD PTR _i$[ebp]
	imul	eax, 24					; 00000018H
	mov	esi, DWORD PTR _this$[ebp]
	mov	eax, DWORD PTR [esi+eax+876]
	mov	esi, DWORD PTR [ecx]
	mov	ecx, DWORD PTR [eax+edx*4+56]
	mov	edx, DWORD PTR [esi+12]
	call	edx
	jmp	SHORT $LN14@TurnOnName
$LN13@TurnOnName:

; 2228 : 		for(j=0;j<_MAP_NUM_NAV_TYPES_;j++)

	xor	eax, eax
	mov	WORD PTR _j$[ebp], ax
	jmp	SHORT $LN12@TurnOnName
$LN11@TurnOnName:
	mov	cx, WORD PTR _j$[ebp]
	add	cx, 1
	mov	WORD PTR _j$[ebp], cx
$LN12@TurnOnName:
	movsx	edx, WORD PTR _j$[ebp]
	cmp	edx, 2
	jge	SHORT $LN10@TurnOnName

; 2229 : 			Team_[i].NavalUnits->Type[j]->SetFlagBitOff(C_BIT_NOLABEL);

	push	16777216				; 01000000H
	movsx	eax, WORD PTR _i$[ebp]
	imul	eax, 24					; 00000018H
	mov	ecx, DWORD PTR _this$[ebp]
	mov	edx, DWORD PTR [ecx+eax+872]
	movsx	eax, WORD PTR _j$[ebp]
	mov	ecx, DWORD PTR [edx+eax*4+8]
	movsx	edx, WORD PTR _j$[ebp]
	movsx	eax, WORD PTR _i$[ebp]
	imul	eax, 24					; 00000018H
	mov	esi, DWORD PTR _this$[ebp]
	mov	eax, DWORD PTR [esi+eax+872]
	mov	esi, DWORD PTR [ecx]
	mov	ecx, DWORD PTR [eax+edx*4+8]
	mov	edx, DWORD PTR [esi+12]
	call	edx
	jmp	SHORT $LN11@TurnOnName
$LN10@TurnOnName:

; 2230 : 		for(j=0;j<_MAP_NUM_GND_TYPES_;j++)

	xor	eax, eax
	mov	WORD PTR _j$[ebp], ax
	jmp	SHORT $LN9@TurnOnName
$LN8@TurnOnName:
	mov	cx, WORD PTR _j$[ebp]
	add	cx, 1
	mov	WORD PTR _j$[ebp], cx
$LN9@TurnOnName:
	movsx	edx, WORD PTR _j$[ebp]
	cmp	edx, 4
	jge	SHORT $LN7@TurnOnName

; 2231 : 			for(k=0;k<_MAP_NUM_GND_LEVELS_;k++)

	xor	eax, eax
	mov	WORD PTR _k$[ebp], ax
	jmp	SHORT $LN6@TurnOnName
$LN5@TurnOnName:
	mov	cx, WORD PTR _k$[ebp]
	add	cx, 1
	mov	WORD PTR _k$[ebp], cx
$LN6@TurnOnName:
	movsx	edx, WORD PTR _k$[ebp]
	cmp	edx, 3
	jge	SHORT $LN4@TurnOnName

; 2232 : 				Team_[i].Units->Type[j]->Levels[k]->SetFlagBitOff(C_BIT_NOLABEL);

	push	16777216				; 01000000H
	movsx	eax, WORD PTR _i$[ebp]
	imul	eax, 24					; 00000018H
	mov	ecx, DWORD PTR _this$[ebp]
	mov	edx, DWORD PTR [ecx+eax+868]
	movsx	eax, WORD PTR _j$[ebp]
	mov	ecx, DWORD PTR [edx+eax*4+16]
	movsx	edx, WORD PTR _k$[ebp]
	mov	eax, DWORD PTR [ecx+edx*4+12]
	movsx	ecx, WORD PTR _k$[ebp]
	movsx	edx, WORD PTR _j$[ebp]
	movsx	esi, WORD PTR _i$[ebp]
	imul	esi, 24					; 00000018H
	mov	edi, DWORD PTR _this$[ebp]
	mov	esi, DWORD PTR [edi+esi+868]
	mov	edx, DWORD PTR [esi+edx*4+16]
	mov	eax, DWORD PTR [eax]
	mov	ecx, DWORD PTR [edx+ecx*4+12]
	mov	edx, DWORD PTR [eax+12]
	call	edx
	jmp	SHORT $LN5@TurnOnName
$LN4@TurnOnName:
	jmp	$LN8@TurnOnName
$LN7@TurnOnName:

; 2233 : 		for(j=0;j<_MAP_NUM_AIR_TYPES_;j++)

	xor	eax, eax
	mov	WORD PTR _j$[ebp], ax
	jmp	SHORT $LN3@TurnOnName
$LN2@TurnOnName:
	mov	cx, WORD PTR _j$[ebp]
	add	cx, 1
	mov	WORD PTR _j$[ebp], cx
$LN3@TurnOnName:
	movsx	edx, WORD PTR _j$[ebp]
	cmp	edx, 5
	jge	SHORT $LN1@TurnOnName

; 2234 : 			Team_[i].AirUnits->Type[j]->SetFlagBitOff(C_BIT_NOLABEL);

	push	16777216				; 01000000H
	movsx	eax, WORD PTR _i$[ebp]
	imul	eax, 24					; 00000018H
	mov	ecx, DWORD PTR _this$[ebp]
	mov	edx, DWORD PTR [ecx+eax+864]
	movsx	eax, WORD PTR _j$[ebp]
	mov	ecx, DWORD PTR [edx+eax*4+20]
	movsx	edx, WORD PTR _j$[ebp]
	movsx	eax, WORD PTR _i$[ebp]
	imul	eax, 24					; 00000018H
	mov	esi, DWORD PTR _this$[ebp]
	mov	eax, DWORD PTR [esi+eax+864]
	mov	esi, DWORD PTR [ecx]
	mov	ecx, DWORD PTR [eax+edx*4+20]
	mov	edx, DWORD PTR [esi+12]
	call	edx
	jmp	SHORT $LN2@TurnOnName
$LN1@TurnOnName:

; 2235 : 	}

	jmp	$LN17@TurnOnName
$LN16@TurnOnName:

; 2236 : 	flags_ |= I_NEED_TO_DRAW_MAP;

	mov	eax, DWORD PTR _this$[ebp]
	mov	ecx, DWORD PTR [eax+736]
	or	ecx, 2
	mov	edx, DWORD PTR _this$[ebp]
	mov	DWORD PTR [edx+736], ecx

; 2237 : }

	pop	edi
	pop	esi
	mov	esp, ebp
	pop	ebp
	ret	0
?TurnOnNames@C_Map@@QAEXXZ ENDP				; C_Map::TurnOnNames
_TEXT	ENDS
; Function compile flags: /Odtp
; File c:\users\zhitao li\documents\visual studio 2012\projects\freefalcon\ui\src\campaign\cmap.cpp
_TEXT	SEGMENT
_un$ = -8						; size = 4
_this$ = -4						; size = 4
?RemoveOldWaypoints@C_Map@@QAEXXZ PROC			; C_Map::RemoveOldWaypoints
; _this$ = ecx

; 1579 : {

	push	ebp
	mov	ebp, esp
	sub	esp, 8
	mov	DWORD PTR _this$[ebp], ecx

; 1580 : 	Unit un;
; 1581 : 
; 1582 : 	// remove current set
; 1583 : 	if(WPUnitID_ != FalconNullId)

	push	OFFSET ?FalconNullId@@3VVU_ID@@A	; FalconNullId
	mov	ecx, DWORD PTR _this$[ebp]
	add	ecx, 1084				; 0000043cH
	call	??9VU_ID@@QBE_NABV0@@Z			; VU_ID::operator!=
	movzx	eax, al
	test	eax, eax
	je	SHORT $LN3@RemoveOldW

; 1584 : 	{
; 1585 : 		un=(Unit)vuDatabase->Find(WPUnitID_);

	mov	ecx, DWORD PTR _this$[ebp]
	mov	edx, DWORD PTR [ecx+1088]
	push	edx
	mov	eax, DWORD PTR [ecx+1084]
	push	eax
	mov	ecx, DWORD PTR ?vuDatabase@@3PAVVuDatabase@@A ; vuDatabase
	call	?Find@VuDatabase@@QBEPAVVuEntity@@VVU_ID@@@Z ; VuDatabase::Find
	mov	DWORD PTR _un$[ebp], eax

; 1586 : 		if(!un)

	cmp	DWORD PTR _un$[ebp], 0
	jne	SHORT $LN3@RemoveOldW

; 1587 : 			RemoveCurWPList();

	mov	ecx, DWORD PTR _this$[ebp]
	call	?RemoveCurWPList@C_Map@@QAEXXZ		; C_Map::RemoveCurWPList
$LN3@RemoveOldW:

; 1588 : 	}
; 1589 : 
; 1590 : 	// go through the teams and remove old WP lists
; 1591 : }

	mov	esp, ebp
	pop	ebp
	ret	0
?RemoveOldWaypoints@C_Map@@QAEXXZ ENDP			; C_Map::RemoveOldWaypoints
_TEXT	ENDS
; Function compile flags: /Odtp
; File c:\users\zhitao li\documents\visual studio 2012\projects\freefalcon\ui\src\campaign\cmap.cpp
_TEXT	SEGMENT
_Leave$ = -12						; size = 4
_TypeID$ = -8						; size = 4
_this$ = -4						; size = 4
_team$ = 8						; size = 4
_ID$ = 12						; size = 4
?RemoveVC@C_Map@@QAEXJJ@Z PROC				; C_Map::RemoveVC
; _this$ = ecx

; 889  : {

	push	ebp
	mov	ebp, esp
	sub	esp, 12					; 0000000cH
	mov	DWORD PTR _this$[ebp], ecx

; 890  : 	long TypeID;
; 891  : 	F4CSECTIONHANDLE *Leave;
; 892  : 
; 893  : 	TypeID=FindTypeIndex(_VC_CONDITION_,OBJ_TypeList,_MAP_NUM_OBJ_TYPES_);

	push	14					; 0000000eH
	push	OFFSET ?OBJ_TypeList@@3PAJA		; OBJ_TypeList
	push	8192					; 00002000H
	call	?FindTypeIndex@@YAJJQAJH@Z		; FindTypeIndex
	add	esp, 12					; 0000000cH
	mov	DWORD PTR _TypeID$[ebp], eax

; 894  : 	if(TypeID != -1)

	cmp	DWORD PTR _TypeID$[ebp], -1
	je	SHORT $LN2@RemoveVC

; 895  : 	{
; 896  : 		Leave=UI_Enter(DrawWindow_);

	mov	eax, DWORD PTR _this$[ebp]
	mov	ecx, DWORD PTR [eax+1124]
	push	ecx
	call	?UI_Enter@@YAPAUF4CSECTIONHANDLE@@PAVC_Window@@@Z ; UI_Enter
	add	esp, 4
	mov	DWORD PTR _Leave$[ebp], eax

; 897  : 		Team_[team].Objectives->Type[TypeID]->RemoveIcon(ID);

	mov	edx, DWORD PTR _ID$[ebp]
	push	edx
	mov	eax, DWORD PTR _team$[ebp]
	imul	eax, 24					; 00000018H
	mov	ecx, DWORD PTR _this$[ebp]
	mov	edx, DWORD PTR [ecx+eax+876]
	mov	eax, DWORD PTR _TypeID$[ebp]
	mov	ecx, DWORD PTR [edx+eax*4+56]
	call	?RemoveIcon@C_MapIcon@@QAEXJ@Z		; C_MapIcon::RemoveIcon

; 898  : 		UI_Leave(Leave);

	mov	ecx, DWORD PTR _Leave$[ebp]
	push	ecx
	call	?UI_Leave@@YAXPAUF4CSECTIONHANDLE@@@Z	; UI_Leave
	add	esp, 4
$LN2@RemoveVC:

; 899  : 	}
; 900  : }

	mov	esp, ebp
	pop	ebp
	ret	8
?RemoveVC@C_Map@@QAEXJJ@Z ENDP				; C_Map::RemoveVC
_TEXT	ENDS
; Function compile flags: /Odtp
; File c:\users\zhitao li\documents\visual studio 2012\projects\freefalcon\ui\src\campaign\cmap.cpp
_TEXT	SEGMENT
$T1 = -28						; size = 8
tv219 = -20						; size = 4
_TypeID$ = -16						; size = 4
_this$ = -12						; size = 4
_vcicon$ = -8						; size = 4
_ent$ = -4						; size = 4
_vc$ = 8						; size = 4
?UpdateVC@C_Map@@QAEXPAVvictory_condition@@@Z PROC	; C_Map::UpdateVC
; _this$ = ecx

; 858  : {

	push	ebp
	mov	ebp, esp
	sub	esp, 28					; 0000001cH
	mov	DWORD PTR _this$[ebp], ecx

; 859  : 	long TypeID;
; 860  : 	CampEntity ent;
; 861  : 	MAPICONLIST *vcicon;
; 862  : 
; 863  : 	ent=(CampEntity)vuDatabase->Find(vc->get_vu_id());

	lea	eax, DWORD PTR $T1[ebp]
	push	eax
	mov	ecx, DWORD PTR _vc$[ebp]
	call	?get_vu_id@victory_condition@@QAE?AVVU_ID@@XZ ; victory_condition::get_vu_id
	mov	ecx, DWORD PTR [eax+4]
	push	ecx
	mov	edx, DWORD PTR [eax]
	push	edx
	mov	ecx, DWORD PTR ?vuDatabase@@3PAVVuDatabase@@A ; vuDatabase
	call	?Find@VuDatabase@@QBEPAVVuEntity@@VVU_ID@@@Z ; VuDatabase::Find
	mov	DWORD PTR _ent$[ebp], eax

; 864  : 	if(ent)

	cmp	DWORD PTR _ent$[ebp], 0
	je	SHORT $LN5@UpdateVC

; 865  : 	{
; 866  : 		if(!ent->IsUnit() && !ent->IsObjective())

	mov	eax, DWORD PTR _ent$[ebp]
	mov	edx, DWORD PTR [eax]
	mov	ecx, DWORD PTR _ent$[ebp]
	mov	eax, DWORD PTR [edx+232]
	call	eax
	test	eax, eax
	jne	SHORT $LN5@UpdateVC
	mov	ecx, DWORD PTR _ent$[ebp]
	mov	edx, DWORD PTR [ecx]
	mov	ecx, DWORD PTR _ent$[ebp]
	mov	eax, DWORD PTR [edx+236]
	call	eax
	test	eax, eax
	jne	SHORT $LN5@UpdateVC

; 867  : 			ent=NULL;

	mov	DWORD PTR _ent$[ebp], 0
$LN5@UpdateVC:

; 868  : 	}
; 869  : 
; 870  : 	TypeID=FindTypeIndex(_VC_CONDITION_,OBJ_TypeList,_MAP_NUM_OBJ_TYPES_);

	push	14					; 0000000eH
	push	OFFSET ?OBJ_TypeList@@3PAJA		; OBJ_TypeList
	push	8192					; 00002000H
	call	?FindTypeIndex@@YAJJQAJH@Z		; FindTypeIndex
	add	esp, 12					; 0000000cH
	mov	DWORD PTR _TypeID$[ebp], eax

; 871  : 	if(TypeID != -1)

	cmp	DWORD PTR _TypeID$[ebp], -1
	je	$LN1@UpdateVC

; 872  : 	{
; 873  : 		vcicon=Team_[vc->get_team()].Objectives->Type[TypeID]->FindID(vc->get_number());

	mov	ecx, DWORD PTR _vc$[ebp]
	call	?get_number@victory_condition@@QAEHXZ	; victory_condition::get_number
	push	eax
	mov	ecx, DWORD PTR _vc$[ebp]
	call	?get_team@victory_condition@@QAEHXZ	; victory_condition::get_team
	imul	eax, 24					; 00000018H
	mov	ecx, DWORD PTR _this$[ebp]
	mov	edx, DWORD PTR [ecx+eax+876]
	mov	eax, DWORD PTR _TypeID$[ebp]
	mov	ecx, DWORD PTR [edx+eax*4+56]
	call	?FindID@C_MapIcon@@QAEPAVMAPICONLIST@@J@Z ; C_MapIcon::FindID
	mov	DWORD PTR _vcicon$[ebp], eax

; 874  : 		if(!ent)

	cmp	DWORD PTR _ent$[ebp], 0
	jne	SHORT $LN3@UpdateVC

; 875  : 		{
; 876  : 			Team_[vc->get_team()].Objectives->Type[TypeID]->RemoveIcon(vc->get_number());

	mov	ecx, DWORD PTR _vc$[ebp]
	call	?get_number@victory_condition@@QAEHXZ	; victory_condition::get_number
	push	eax
	mov	ecx, DWORD PTR _vc$[ebp]
	call	?get_team@victory_condition@@QAEHXZ	; victory_condition::get_team
	imul	eax, 24					; 00000018H
	mov	ecx, DWORD PTR _this$[ebp]
	mov	edx, DWORD PTR [ecx+eax+876]
	mov	eax, DWORD PTR _TypeID$[ebp]
	mov	ecx, DWORD PTR [edx+eax*4+56]
	call	?RemoveIcon@C_MapIcon@@QAEXJ@Z		; C_MapIcon::RemoveIcon
	jmp	SHORT $LN1@UpdateVC
$LN3@UpdateVC:

; 877  : 		}
; 878  : 		else if (vcicon)

	cmp	DWORD PTR _vcicon$[ebp], 0
	je	SHORT $LN1@UpdateVC

; 879  : 		{
; 880  : 			vcicon->worldx=ent->YPos();

	mov	ecx, DWORD PTR _ent$[ebp]
	call	?YPos@VuEntity@@QBEMXZ			; VuEntity::YPos
	mov	ecx, DWORD PTR _vcicon$[ebp]
	fstp	DWORD PTR [ecx+20]

; 881  : 			vcicon->worldy=maxy-ent->XPos();

	mov	ecx, DWORD PTR _ent$[ebp]
	call	?XPos@VuEntity@@QBEMXZ			; VuEntity::XPos
	fstp	DWORD PTR tv219[ebp]
	mov	edx, DWORD PTR _this$[ebp]
	movss	xmm0, DWORD PTR [edx+732]
	subss	xmm0, DWORD PTR tv219[ebp]
	mov	eax, DWORD PTR _vcicon$[ebp]
	movss	DWORD PTR [eax+24], xmm0

; 882  : 			vcicon->x=static_cast<short>(vcicon->worldx*scale_);

	mov	ecx, DWORD PTR _vcicon$[ebp]
	mov	edx, DWORD PTR _this$[ebp]
	movss	xmm0, DWORD PTR [ecx+20]
	mulss	xmm0, DWORD PTR [edx+728]
	cvttss2si eax, xmm0
	mov	ecx, DWORD PTR _vcicon$[ebp]
	mov	WORD PTR [ecx+16], ax

; 883  : 			vcicon->y=static_cast<short>(vcicon->worldy*scale_);

	mov	edx, DWORD PTR _vcicon$[ebp]
	mov	eax, DWORD PTR _this$[ebp]
	movss	xmm0, DWORD PTR [edx+24]
	mulss	xmm0, DWORD PTR [eax+728]
	cvttss2si ecx, xmm0
	mov	edx, DWORD PTR _vcicon$[ebp]
	mov	WORD PTR [edx+18], cx
$LN1@UpdateVC:

; 884  : 		}
; 885  : 	}
; 886  : }

	mov	esp, ebp
	pop	ebp
	ret	4
?UpdateVC@C_Map@@QAEXPAVvictory_condition@@@Z ENDP	; C_Map::UpdateVC
_TEXT	ENDS
; Function compile flags: /Odtp
; File c:\users\zhitao li\documents\visual studio 2012\projects\freefalcon\ui\src\campaign\cmap.cpp
_TEXT	SEGMENT
$T1 = -32						; size = 8
tv494 = -24						; size = 4
_nub$ = -20						; size = 4
_wp$ = -16						; size = 4
_this$ = -12						; size = 4
_check$ = -8						; size = 2
_i$ = -4						; size = 2
_flt$ = 8						; size = 4
?UpdateWaypoint@C_Map@@QAEXPAVFlightClass@@@Z PROC	; C_Map::UpdateWaypoint
; _this$ = ecx

; 1482 : {

	push	ebp
	mov	ebp, esp
	sub	esp, 32					; 00000020H
	push	esi
	mov	DWORD PTR _this$[ebp], ecx

; 1483 : 	WayPoint wp;
; 1484 : 	WAYPOINTLIST *nub;
; 1485 : 	short i,check;
; 1486 : 
; 1487 : 	if(flt->Id() == WPUnitID_)

	mov	eax, DWORD PTR _this$[ebp]
	add	eax, 1084				; 0000043cH
	push	eax
	lea	ecx, DWORD PTR $T1[ebp]
	push	ecx
	mov	ecx, DWORD PTR _flt$[ebp]
	call	?Id@VuEntity@@QBE?AVVU_ID@@XZ		; VuEntity::Id
	mov	ecx, eax
	call	??8VU_ID@@QBE_NABV0@@Z			; VU_ID::operator==
	movzx	edx, al
	test	edx, edx
	je	$LN17@UpdateWayp

; 1488 : 	{
; 1489 : 		// We have to traverse all our waypoints to check for validity
; 1490 : 		if(flt->GetCurrentUnitWP() == flt->GetFirstUnitWP())

	mov	ecx, DWORD PTR _flt$[ebp]
	call	?GetCurrentUnitWP@UnitClass@@QBEPAVWayPointClass@@XZ ; UnitClass::GetCurrentUnitWP
	mov	esi, eax
	mov	ecx, DWORD PTR _flt$[ebp]
	call	?GetFirstUnitWP@UnitClass@@QAEPAVWayPointClass@@XZ ; UnitClass::GetFirstUnitWP
	cmp	esi, eax
	jne	SHORT $LN16@UpdateWayp

; 1491 : 			check=1;

	mov	eax, 1
	mov	WORD PTR _check$[ebp], ax

; 1492 : 		else

	jmp	SHORT $LN15@UpdateWayp
$LN16@UpdateWayp:

; 1493 : 			check=0;

	xor	ecx, ecx
	mov	WORD PTR _check$[ebp], cx
$LN15@UpdateWayp:

; 1494 : 		i=1;

	mov	edx, 1
	mov	WORD PTR _i$[ebp], dx

; 1495 : 		wp=flt->GetFirstUnitWP();

	mov	ecx, DWORD PTR _flt$[ebp]
	call	?GetFirstUnitWP@UnitClass@@QAEPAVWayPointClass@@XZ ; UnitClass::GetFirstUnitWP
	mov	DWORD PTR _wp$[ebp], eax
$LN14@UpdateWayp:

; 1496 : 		while(wp)

	cmp	DWORD PTR _wp$[ebp], 0
	je	$LN13@UpdateWayp

; 1497 : 			{
; 1498 : 			if (!IsValidWP(wp,flt) && check)

	mov	eax, DWORD PTR _flt$[ebp]
	push	eax
	mov	ecx, DWORD PTR _wp$[ebp]
	push	ecx
	call	?IsValidWP@@YAHPAVWayPointClass@@PAVFlightClass@@@Z ; IsValidWP
	add	esp, 8
	test	eax, eax
	jne	$LN12@UpdateWayp
	movsx	edx, WORD PTR _check$[ebp]
	test	edx, edx
	je	$LN12@UpdateWayp

; 1499 : 				{
; 1500 : 				CurWP_->SetState((flt->GetCampID() << 8)+i,2);

	push	2
	mov	eax, DWORD PTR _flt$[ebp]
	mov	edx, DWORD PTR [eax]
	mov	ecx, DWORD PTR _flt$[ebp]
	mov	eax, DWORD PTR [edx+112]
	call	eax
	movsx	ecx, ax
	shl	ecx, 8
	movsx	edx, WORD PTR _i$[ebp]
	add	ecx, edx
	push	ecx
	mov	eax, DWORD PTR _this$[ebp]
	mov	ecx, DWORD PTR [eax+1092]
	call	?SetState@C_Waypoint@@QAEXJF@Z		; C_Waypoint::SetState

; 1501 : 				CurWP_->SetState(0x40000000|(flt->GetCampID() << 8)+i,2);

	push	2
	mov	ecx, DWORD PTR _flt$[ebp]
	mov	edx, DWORD PTR [ecx]
	mov	ecx, DWORD PTR _flt$[ebp]
	mov	eax, DWORD PTR [edx+112]
	call	eax
	movsx	ecx, ax
	shl	ecx, 8
	movsx	edx, WORD PTR _i$[ebp]
	add	ecx, edx
	or	ecx, 1073741824				; 40000000H
	push	ecx
	mov	eax, DWORD PTR _this$[ebp]
	mov	ecx, DWORD PTR [eax+1092]
	call	?SetState@C_Waypoint@@QAEXJF@Z		; C_Waypoint::SetState

; 1502 : 				CurWPZ_->SetState((flt->GetCampID() << 8)+i,2);

	push	2
	mov	ecx, DWORD PTR _flt$[ebp]
	mov	edx, DWORD PTR [ecx]
	mov	ecx, DWORD PTR _flt$[ebp]
	mov	eax, DWORD PTR [edx+112]
	call	eax
	movsx	ecx, ax
	shl	ecx, 8
	movsx	edx, WORD PTR _i$[ebp]
	add	ecx, edx
	push	ecx
	mov	eax, DWORD PTR _this$[ebp]
	mov	ecx, DWORD PTR [eax+1096]
	call	?SetState@C_Waypoint@@QAEXJF@Z		; C_Waypoint::SetState
	jmp	$LN11@UpdateWayp
$LN12@UpdateWayp:

; 1503 : 				}
; 1504 : 			else if (wp == flt->GetCurrentUnitWP())

	mov	ecx, DWORD PTR _flt$[ebp]
	call	?GetCurrentUnitWP@UnitClass@@QBEPAVWayPointClass@@XZ ; UnitClass::GetCurrentUnitWP
	cmp	DWORD PTR _wp$[ebp], eax
	jne	$LN10@UpdateWayp

; 1505 : 				{
; 1506 : 				CurWP_->SetState((flt->GetCampID() << 8)+i,1);

	push	1
	mov	ecx, DWORD PTR _flt$[ebp]
	mov	edx, DWORD PTR [ecx]
	mov	ecx, DWORD PTR _flt$[ebp]
	mov	eax, DWORD PTR [edx+112]
	call	eax
	movsx	ecx, ax
	shl	ecx, 8
	movsx	edx, WORD PTR _i$[ebp]
	add	ecx, edx
	push	ecx
	mov	eax, DWORD PTR _this$[ebp]
	mov	ecx, DWORD PTR [eax+1092]
	call	?SetState@C_Waypoint@@QAEXJF@Z		; C_Waypoint::SetState

; 1507 : 				CurWP_->SetState(0x40000000|(flt->GetCampID() << 8)+i,1);

	push	1
	mov	ecx, DWORD PTR _flt$[ebp]
	mov	edx, DWORD PTR [ecx]
	mov	ecx, DWORD PTR _flt$[ebp]
	mov	eax, DWORD PTR [edx+112]
	call	eax
	movsx	ecx, ax
	shl	ecx, 8
	movsx	edx, WORD PTR _i$[ebp]
	add	ecx, edx
	or	ecx, 1073741824				; 40000000H
	push	ecx
	mov	eax, DWORD PTR _this$[ebp]
	mov	ecx, DWORD PTR [eax+1092]
	call	?SetState@C_Waypoint@@QAEXJF@Z		; C_Waypoint::SetState

; 1508 : 				CurWPZ_->SetState((flt->GetCampID() << 8)+i,1);

	push	1
	mov	ecx, DWORD PTR _flt$[ebp]
	mov	edx, DWORD PTR [ecx]
	mov	ecx, DWORD PTR _flt$[ebp]
	mov	eax, DWORD PTR [edx+112]
	call	eax
	movsx	ecx, ax
	shl	ecx, 8
	movsx	edx, WORD PTR _i$[ebp]
	add	ecx, edx
	push	ecx
	mov	eax, DWORD PTR _this$[ebp]
	mov	ecx, DWORD PTR [eax+1096]
	call	?SetState@C_Waypoint@@QAEXJF@Z		; C_Waypoint::SetState

; 1509 : 				}
; 1510 : 			else

	jmp	$LN11@UpdateWayp
$LN10@UpdateWayp:

; 1511 : 				{
; 1512 : 				CurWP_->SetState((flt->GetCampID() << 8)+i,0);

	push	0
	mov	ecx, DWORD PTR _flt$[ebp]
	mov	edx, DWORD PTR [ecx]
	mov	ecx, DWORD PTR _flt$[ebp]
	mov	eax, DWORD PTR [edx+112]
	call	eax
	movsx	ecx, ax
	shl	ecx, 8
	movsx	edx, WORD PTR _i$[ebp]
	add	ecx, edx
	push	ecx
	mov	eax, DWORD PTR _this$[ebp]
	mov	ecx, DWORD PTR [eax+1092]
	call	?SetState@C_Waypoint@@QAEXJF@Z		; C_Waypoint::SetState

; 1513 : 				CurWP_->SetState(0x40000000|(flt->GetCampID() << 8)+i,0);

	push	0
	mov	ecx, DWORD PTR _flt$[ebp]
	mov	edx, DWORD PTR [ecx]
	mov	ecx, DWORD PTR _flt$[ebp]
	mov	eax, DWORD PTR [edx+112]
	call	eax
	movsx	ecx, ax
	shl	ecx, 8
	movsx	edx, WORD PTR _i$[ebp]
	add	ecx, edx
	or	ecx, 1073741824				; 40000000H
	push	ecx
	mov	eax, DWORD PTR _this$[ebp]
	mov	ecx, DWORD PTR [eax+1092]
	call	?SetState@C_Waypoint@@QAEXJF@Z		; C_Waypoint::SetState

; 1514 : 				CurWPZ_->SetState((flt->GetCampID() << 8)+i,0);

	push	0
	mov	ecx, DWORD PTR _flt$[ebp]
	mov	edx, DWORD PTR [ecx]
	mov	ecx, DWORD PTR _flt$[ebp]
	mov	eax, DWORD PTR [edx+112]
	call	eax
	movsx	ecx, ax
	shl	ecx, 8
	movsx	edx, WORD PTR _i$[ebp]
	add	ecx, edx
	push	ecx
	mov	eax, DWORD PTR _this$[ebp]
	mov	ecx, DWORD PTR [eax+1096]
	call	?SetState@C_Waypoint@@QAEXJF@Z		; C_Waypoint::SetState
$LN11@UpdateWayp:

; 1515 : 				}
; 1516 : 			i++;

	mov	cx, WORD PTR _i$[ebp]
	add	cx, 1
	mov	WORD PTR _i$[ebp], cx

; 1517 : 			wp=wp->GetNextWP();

	mov	ecx, DWORD PTR _wp$[ebp]
	call	?GetNextWP@WayPointClass@@QAEPAV1@XZ	; WayPointClass::GetNextWP
	mov	DWORD PTR _wp$[ebp], eax

; 1518 : 			}

	jmp	$LN14@UpdateWayp
$LN13@UpdateWayp:

; 1519 : 
; 1520 : 		if(!(TheCampaign.Flags & CAMP_TACTICAL_EDIT))

	mov	edx, DWORD PTR ?TheCampaign@@3VCampaignClass@@A+64
	and	edx, 524288				; 00080000H
	jne	$LN8@UpdateWayp

; 1521 : 		{
; 1522 : 			if(i > 1)

	movsx	eax, WORD PTR _i$[ebp]
	cmp	eax, 1
	jle	$LN8@UpdateWayp

; 1523 : 			{
; 1524 : 				nub=CurWP_->GetRoot();

	mov	ecx, DWORD PTR _this$[ebp]
	mov	ecx, DWORD PTR [ecx+1092]
	call	?GetRoot@C_Waypoint@@QAEPAVWAYPOINTLIST@@XZ ; C_Waypoint::GetRoot
	mov	DWORD PTR _nub$[ebp], eax
$LN6@UpdateWayp:

; 1525 : 				while(nub)

	cmp	DWORD PTR _nub$[ebp], 0
	je	SHORT $LN5@UpdateWayp

; 1526 : 				{
; 1527 : 					if(nub->ID & 0x40000000)

	mov	edx, DWORD PTR _nub$[ebp]
	mov	eax, DWORD PTR [edx]
	and	eax, 1073741824				; 40000000H
	je	SHORT $LN4@UpdateWayp

; 1528 : 					{
; 1529 : 						nub->Icon->SetText(0,TXT_SPACE);

	push	153					; 00000099H
	push	0
	mov	ecx, DWORD PTR _nub$[ebp]
	mov	ecx, DWORD PTR [ecx+32]
	call	?SetText@C_Button@@QAEXFJ@Z		; C_Button::SetText

; 1530 : 						nub->Icon->SetText(1,TXT_SPACE);

	push	153					; 00000099H
	push	1
	mov	edx, DWORD PTR _nub$[ebp]
	mov	ecx, DWORD PTR [edx+32]
	call	?SetText@C_Button@@QAEXFJ@Z		; C_Button::SetText

; 1531 : 						nub->Icon->SetText(2,TXT_SPACE);

	push	153					; 00000099H
	push	2
	mov	eax, DWORD PTR _nub$[ebp]
	mov	ecx, DWORD PTR [eax+32]
	call	?SetText@C_Button@@QAEXFJ@Z		; C_Button::SetText

; 1532 : 						nub->Icon->SetFlagBitOff(C_BIT_ENABLED);

	push	2048					; 00000800H
	mov	ecx, DWORD PTR _nub$[ebp]
	mov	edx, DWORD PTR [ecx+32]
	mov	eax, DWORD PTR _nub$[ebp]
	mov	edx, DWORD PTR [edx]
	mov	ecx, DWORD PTR [eax+32]
	mov	eax, DWORD PTR [edx+12]
	call	eax
$LN4@UpdateWayp:

; 1533 : 					}
; 1534 : 					nub=nub->Next;

	mov	ecx, DWORD PTR _nub$[ebp]
	mov	edx, DWORD PTR [ecx+52]
	mov	DWORD PTR _nub$[ebp], edx

; 1535 : 				}

	jmp	SHORT $LN6@UpdateWayp
$LN5@UpdateWayp:

; 1536 : 				CurWP_->SetFlagBitOff(C_BIT_DRAGABLE);

	push	4096					; 00001000H
	mov	eax, DWORD PTR _this$[ebp]
	mov	ecx, DWORD PTR [eax+1092]
	mov	edx, DWORD PTR _this$[ebp]
	mov	eax, DWORD PTR [ecx]
	mov	ecx, DWORD PTR [edx+1092]
	mov	edx, DWORD PTR [eax+12]
	call	edx

; 1537 : 				CurWPZ_->SetFlagBitOff(C_BIT_DRAGABLE);

	push	4096					; 00001000H
	mov	eax, DWORD PTR _this$[ebp]
	mov	ecx, DWORD PTR [eax+1096]
	mov	edx, DWORD PTR _this$[ebp]
	mov	eax, DWORD PTR [ecx]
	mov	ecx, DWORD PTR [edx+1096]
	mov	edx, DWORD PTR [eax+12]
	call	edx
$LN8@UpdateWayp:

; 1538 : 			}
; 1539 : 		}
; 1540 : 		CurWP_->Refresh();

	mov	eax, DWORD PTR _this$[ebp]
	mov	ecx, DWORD PTR [eax+1092]
	mov	edx, DWORD PTR _this$[ebp]
	mov	eax, DWORD PTR [ecx]
	mov	ecx, DWORD PTR [edx+1092]
	mov	edx, DWORD PTR [eax+160]
	call	edx

; 1541 : 		CurWPZ_->Refresh();

	mov	eax, DWORD PTR _this$[ebp]
	mov	ecx, DWORD PTR [eax+1096]
	mov	edx, DWORD PTR _this$[ebp]
	mov	eax, DWORD PTR [ecx]
	mov	ecx, DWORD PTR [edx+1096]
	mov	edx, DWORD PTR [eax+160]
	call	edx

; 1542 : 	}
; 1543 : 	else

	jmp	$LN18@UpdateWayp
$LN17@UpdateWayp:

; 1544 : 	{
; 1545 : 		i=1;

	mov	eax, 1
	mov	WORD PTR _i$[ebp], ax

; 1546 : 		wp=flt->GetFirstUnitWP();

	mov	ecx, DWORD PTR _flt$[ebp]
	call	?GetFirstUnitWP@UnitClass@@QAEPAVWayPointClass@@XZ ; UnitClass::GetFirstUnitWP
	mov	DWORD PTR _wp$[ebp], eax
$LN2@UpdateWayp:

; 1547 : 		while(wp && wp != flt->GetCurrentUnitWP())

	cmp	DWORD PTR _wp$[ebp], 0
	je	SHORT $LN1@UpdateWayp
	mov	ecx, DWORD PTR _flt$[ebp]
	call	?GetCurrentUnitWP@UnitClass@@QBEPAVWayPointClass@@XZ ; UnitClass::GetCurrentUnitWP
	cmp	DWORD PTR _wp$[ebp], eax
	je	SHORT $LN1@UpdateWayp

; 1548 : 		{
; 1549 : 			i++;

	mov	cx, WORD PTR _i$[ebp]
	add	cx, 1
	mov	WORD PTR _i$[ebp], cx

; 1550 : 			wp=wp->GetNextWP();

	mov	ecx, DWORD PTR _wp$[ebp]
	call	?GetNextWP@WayPointClass@@QAEPAV1@XZ	; WayPointClass::GetNextWP
	mov	DWORD PTR _wp$[ebp], eax

; 1551 : 		}

	jmp	SHORT $LN2@UpdateWayp
$LN1@UpdateWayp:

; 1552 : 
; 1553 : 		Team_[flt->GetTeam()].Waypoints->SetGroupState(flt->GetCampID() << 8,0);

	push	0
	mov	edx, DWORD PTR _flt$[ebp]
	mov	eax, DWORD PTR [edx]
	mov	ecx, DWORD PTR _flt$[ebp]
	mov	edx, DWORD PTR [eax+112]
	call	edx
	cwde
	shl	eax, 8
	push	eax
	mov	ecx, DWORD PTR _flt$[ebp]
	mov	edx, DWORD PTR [ecx]
	mov	ecx, DWORD PTR _flt$[ebp]
	mov	eax, DWORD PTR [edx+116]
	call	eax
	movzx	ecx, al
	imul	ecx, 24					; 00000018H
	mov	edx, DWORD PTR _this$[ebp]
	mov	ecx, DWORD PTR [edx+ecx+880]
	call	?SetGroupState@C_Waypoint@@QAEXJF@Z	; C_Waypoint::SetGroupState

; 1554 : 		Team_[flt->GetTeam()].Waypoints->SetState((flt->GetCampID() << 8)+i,1);

	push	1
	mov	eax, DWORD PTR _flt$[ebp]
	mov	edx, DWORD PTR [eax]
	mov	ecx, DWORD PTR _flt$[ebp]
	mov	eax, DWORD PTR [edx+112]
	call	eax
	movsx	ecx, ax
	shl	ecx, 8
	movsx	edx, WORD PTR _i$[ebp]
	add	ecx, edx
	push	ecx
	mov	eax, DWORD PTR _flt$[ebp]
	mov	edx, DWORD PTR [eax]
	mov	ecx, DWORD PTR _flt$[ebp]
	mov	eax, DWORD PTR [edx+116]
	call	eax
	movzx	ecx, al
	imul	ecx, 24					; 00000018H
	mov	edx, DWORD PTR _this$[ebp]
	mov	ecx, DWORD PTR [edx+ecx+880]
	call	?SetState@C_Waypoint@@QAEXJF@Z		; C_Waypoint::SetState

; 1555 : 		Team_[flt->GetTeam()].Waypoints->SetState(0x40000000|(flt->GetCampID() << 8)+i,1);

	push	1
	mov	eax, DWORD PTR _flt$[ebp]
	mov	edx, DWORD PTR [eax]
	mov	ecx, DWORD PTR _flt$[ebp]
	mov	eax, DWORD PTR [edx+112]
	call	eax
	movsx	ecx, ax
	shl	ecx, 8
	movsx	edx, WORD PTR _i$[ebp]
	add	ecx, edx
	or	ecx, 1073741824				; 40000000H
	push	ecx
	mov	eax, DWORD PTR _flt$[ebp]
	mov	edx, DWORD PTR [eax]
	mov	ecx, DWORD PTR _flt$[ebp]
	mov	eax, DWORD PTR [edx+116]
	call	eax
	movzx	ecx, al
	imul	ecx, 24					; 00000018H
	mov	edx, DWORD PTR _this$[ebp]
	mov	ecx, DWORD PTR [edx+ecx+880]
	call	?SetState@C_Waypoint@@QAEXJF@Z		; C_Waypoint::SetState

; 1556 : 		Team_[flt->GetTeam()].Waypoints->Refresh();

	mov	eax, DWORD PTR _flt$[ebp]
	mov	edx, DWORD PTR [eax]
	mov	ecx, DWORD PTR _flt$[ebp]
	mov	eax, DWORD PTR [edx+116]
	call	eax
	movzx	ecx, al
	imul	ecx, 24					; 00000018H
	mov	edx, DWORD PTR _this$[ebp]
	mov	eax, DWORD PTR [edx+ecx+880]
	mov	DWORD PTR tv494[ebp], eax
	mov	ecx, DWORD PTR tv494[ebp]
	mov	edx, DWORD PTR [ecx]
	mov	ecx, DWORD PTR tv494[ebp]
	mov	eax, DWORD PTR [edx+160]
	call	eax
$LN18@UpdateWayp:

; 1557 : 	}
; 1558 : }

	pop	esi
	mov	esp, ebp
	pop	ebp
	ret	4
?UpdateWaypoint@C_Map@@QAEXPAVFlightClass@@@Z ENDP	; C_Map::UpdateWaypoint
_TEXT	ENDS
; Function compile flags: /Odtp
; File c:\users\zhitao li\documents\visual studio 2012\projects\freefalcon\ui\src\campaign\cmap.cpp
_TEXT	SEGMENT
$T1 = -60						; size = 8
tv205 = -52						; size = 4
_this$ = -48						; size = 4
_TypeID$ = -44						; size = 4
_ent$ = -40						; size = 4
_Buffer$ = -36						; size = 32
__$ArrayPad$ = -4					; size = 4
_vc$ = 8						; size = 4
?AddVC@C_Map@@QAEPAVMAPICONLIST@@PAVvictory_condition@@@Z PROC ; C_Map::AddVC
; _this$ = ecx

; 826  : {

	push	ebp
	mov	ebp, esp
	sub	esp, 60					; 0000003cH
	mov	eax, DWORD PTR ___security_cookie
	xor	eax, ebp
	mov	DWORD PTR __$ArrayPad$[ebp], eax
	mov	DWORD PTR _this$[ebp], ecx

; 827  : 	long TypeID;
; 828  : 	_TCHAR Buffer[32];
; 829  : 	CampEntity ent;
; 830  : 
; 831  : 	ent=(CampEntity)vuDatabase->Find(vc->get_vu_id());

	lea	eax, DWORD PTR $T1[ebp]
	push	eax
	mov	ecx, DWORD PTR _vc$[ebp]
	call	?get_vu_id@victory_condition@@QAE?AVVU_ID@@XZ ; victory_condition::get_vu_id
	mov	ecx, DWORD PTR [eax+4]
	push	ecx
	mov	edx, DWORD PTR [eax]
	push	edx
	mov	ecx, DWORD PTR ?vuDatabase@@3PAVVuDatabase@@A ; vuDatabase
	call	?Find@VuDatabase@@QBEPAVVuEntity@@VVU_ID@@@Z ; VuDatabase::Find
	mov	DWORD PTR _ent$[ebp], eax

; 832  : 	if(ent)

	cmp	DWORD PTR _ent$[ebp], 0
	je	SHORT $LN4@AddVC

; 833  : 	{
; 834  : 		if(!ent->IsUnit() && !ent->IsObjective())

	mov	eax, DWORD PTR _ent$[ebp]
	mov	edx, DWORD PTR [eax]
	mov	ecx, DWORD PTR _ent$[ebp]
	mov	eax, DWORD PTR [edx+232]
	call	eax
	test	eax, eax
	jne	SHORT $LN3@AddVC
	mov	ecx, DWORD PTR _ent$[ebp]
	mov	edx, DWORD PTR [ecx]
	mov	ecx, DWORD PTR _ent$[ebp]
	mov	eax, DWORD PTR [edx+236]
	call	eax
	test	eax, eax
	jne	SHORT $LN3@AddVC

; 835  : 			return(NULL);

	xor	eax, eax
	jmp	$LN5@AddVC
$LN3@AddVC:

; 836  : 	}
; 837  : 	else

	jmp	SHORT $LN2@AddVC
$LN4@AddVC:

; 838  : 		return(NULL);

	xor	eax, eax
	jmp	$LN5@AddVC
$LN2@AddVC:

; 839  : 
; 840  : 	TypeID=FindTypeIndex(_VC_CONDITION_,OBJ_TypeList,_MAP_NUM_OBJ_TYPES_);

	push	14					; 0000000eH
	push	OFFSET ?OBJ_TypeList@@3PAJA		; OBJ_TypeList
	push	8192					; 00002000H
	call	?FindTypeIndex@@YAJJQAJH@Z		; FindTypeIndex
	add	esp, 12					; 0000000cH
	mov	DWORD PTR _TypeID$[ebp], eax

; 841  : 	if(TypeID != -1)

	cmp	DWORD PTR _TypeID$[ebp], -1
	je	$LN1@AddVC

; 842  : 	{
; 843  : 		_stprintf(Buffer,"%s %1ld",gStringMgr->GetString(TXT_VC),vc->get_number());

	mov	ecx, DWORD PTR _vc$[ebp]
	call	?get_number@victory_condition@@QAEHXZ	; victory_condition::get_number
	push	eax
	push	201					; 000000c9H
	mov	ecx, DWORD PTR ?gStringMgr@@3PAVC_String@@A ; gStringMgr
	call	?GetString@C_String@@QAEPADJ@Z		; C_String::GetString
	push	eax
	push	OFFSET ??_C@_07PAINCAHD@?$CFs?5?$CF1ld?$AA@
	lea	ecx, DWORD PTR _Buffer$[ebp]
	push	ecx
	call	_sprintf
	add	esp, 16					; 00000010H

; 844  : 		return(Team_[vc->get_team()].Objectives->Type[TypeID]->AddIconToList(
; 845  : 			vc->get_number(),
; 846  : 			_VC_CONDITION_,
; 847  : 			10119,
; 848  : 			ent->YPos(),
; 849  : 			maxy - ent->XPos(),
; 850  : 			FALSE,
; 851  : 			Buffer,0,0,0,0,0,NULL)
; 852  : 		);

	push	0
	push	0
	push	0
	push	0
	push	0
	push	0
	lea	edx, DWORD PTR _Buffer$[ebp]
	push	edx
	push	0
	mov	ecx, DWORD PTR _ent$[ebp]
	call	?XPos@VuEntity@@QBEMXZ			; VuEntity::XPos
	fstp	DWORD PTR tv205[ebp]
	mov	eax, DWORD PTR _this$[ebp]
	movss	xmm0, DWORD PTR [eax+732]
	subss	xmm0, DWORD PTR tv205[ebp]
	push	ecx
	movss	DWORD PTR [esp], xmm0
	mov	ecx, DWORD PTR _ent$[ebp]
	call	?YPos@VuEntity@@QBEMXZ			; VuEntity::YPos
	push	ecx
	fstp	DWORD PTR [esp]
	push	10119					; 00002787H
	push	8192					; 00002000H
	mov	ecx, DWORD PTR _vc$[ebp]
	call	?get_number@victory_condition@@QAEHXZ	; victory_condition::get_number
	push	eax
	mov	ecx, DWORD PTR _vc$[ebp]
	call	?get_team@victory_condition@@QAEHXZ	; victory_condition::get_team
	imul	eax, 24					; 00000018H
	mov	ecx, DWORD PTR _this$[ebp]
	mov	edx, DWORD PTR [ecx+eax+876]
	mov	eax, DWORD PTR _TypeID$[ebp]
	mov	ecx, DWORD PTR [edx+eax*4+56]
	call	?AddIconToList@C_MapIcon@@QAEPAVMAPICONLIST@@JFJMMFPADJJJJJPAUDETECTOR@@@Z ; C_MapIcon::AddIconToList
	jmp	SHORT $LN5@AddVC
$LN1@AddVC:

; 853  : 	}
; 854  : 	return(NULL);

	xor	eax, eax
$LN5@AddVC:

; 855  : }

	mov	ecx, DWORD PTR __$ArrayPad$[ebp]
	xor	ecx, ebp
	call	@__security_check_cookie@4
	mov	esp, ebp
	pop	ebp
	ret	4
?AddVC@C_Map@@QAEPAVMAPICONLIST@@PAVvictory_condition@@@Z ENDP ; C_Map::AddVC
_TEXT	ENDS
; Function compile flags: /Odtp
; File c:\users\zhitao li\documents\visual studio 2012\projects\freefalcon\ui\src\campaign\cmap.cpp
_TEXT	SEGMENT
tv194 = -52						; size = 4
_this$ = -48						; size = 4
_TypeID$ = -44						; size = 4
_UnitType$ = -40					; size = 4
_Buffer$ = -36						; size = 32
__$ArrayPad$ = -4					; size = 4
_package$ = 8						; size = 4
?AddPackage@C_Map@@QAEPAVMAPICONLIST@@PAVPackageClass@@@Z PROC ; C_Map::AddPackage
; _this$ = ecx

; 801  : {

	push	ebp
	mov	ebp, esp
	sub	esp, 52					; 00000034H
	mov	eax, DWORD PTR ___security_cookie
	xor	eax, ebp
	mov	DWORD PTR __$ArrayPad$[ebp], eax
	mov	DWORD PTR _this$[ebp], ecx

; 802  : 	long UnitType,TypeID;
; 803  : 	_TCHAR Buffer[32];
; 804  : 
; 805  : 	UnitType=GetObjectiveType(package);

	mov	eax, DWORD PTR _package$[ebp]
	push	eax
	call	?GetObjectiveType@@YAJPAVCampBaseClass@@@Z ; GetObjectiveType
	add	esp, 4
	mov	DWORD PTR _UnitType$[ebp], eax

; 806  : 	TypeID=FindTypeIndex(UnitType,OBJ_TypeList,_MAP_NUM_OBJ_TYPES_);

	push	14					; 0000000eH
	push	OFFSET ?OBJ_TypeList@@3PAJA		; OBJ_TypeList
	mov	ecx, DWORD PTR _UnitType$[ebp]
	push	ecx
	call	?FindTypeIndex@@YAJJQAJH@Z		; FindTypeIndex
	add	esp, 12					; 0000000cH
	mov	DWORD PTR _TypeID$[ebp], eax

; 807  : 	if(TypeID != -1)

	cmp	DWORD PTR _TypeID$[ebp], -1
	je	$LN1@AddPackage

; 808  : 	{
; 809  : 		if(UnitType)

	cmp	DWORD PTR _UnitType$[ebp], 0
	je	$LN1@AddPackage

; 810  : 		{
; 811  : 			_stprintf(Buffer,"%s %1ld",gStringMgr->GetString(TXT_PACKAGE),package->GetCampID());

	mov	edx, DWORD PTR _package$[ebp]
	mov	eax, DWORD PTR [edx]
	mov	ecx, DWORD PTR _package$[ebp]
	mov	edx, DWORD PTR [eax+112]
	call	edx
	cwde
	push	eax
	push	91					; 0000005bH
	mov	ecx, DWORD PTR ?gStringMgr@@3PAVC_String@@A ; gStringMgr
	call	?GetString@C_String@@QAEPADJ@Z		; C_String::GetString
	push	eax
	push	OFFSET ??_C@_07PAINCAHD@?$CFs?5?$CF1ld?$AA@
	lea	ecx, DWORD PTR _Buffer$[ebp]
	push	ecx
	call	_sprintf
	add	esp, 16					; 00000010H

; 812  : 			return(Team_[package->GetTeam()].Objectives->Type[TypeID]->AddIconToList(
; 813  : 				package->GetCampID(),
; 814  : 				static_cast<short>(UnitType),
; 815  : 				10118,
; 816  : 				package->YPos(),
; 817  : 				maxy - package->XPos(),
; 818  : 				FALSE,Buffer,0,0,0,0,0,NULL)
; 819  : 			);

	push	0
	push	0
	push	0
	push	0
	push	0
	push	0
	lea	edx, DWORD PTR _Buffer$[ebp]
	push	edx
	push	0
	mov	ecx, DWORD PTR _package$[ebp]
	call	?XPos@VuEntity@@QBEMXZ			; VuEntity::XPos
	fstp	DWORD PTR tv194[ebp]
	mov	eax, DWORD PTR _this$[ebp]
	movss	xmm0, DWORD PTR [eax+732]
	subss	xmm0, DWORD PTR tv194[ebp]
	push	ecx
	movss	DWORD PTR [esp], xmm0
	mov	ecx, DWORD PTR _package$[ebp]
	call	?YPos@VuEntity@@QBEMXZ			; VuEntity::YPos
	push	ecx
	fstp	DWORD PTR [esp]
	push	10118					; 00002786H
	movzx	ecx, WORD PTR _UnitType$[ebp]
	push	ecx
	mov	edx, DWORD PTR _package$[ebp]
	mov	eax, DWORD PTR [edx]
	mov	ecx, DWORD PTR _package$[ebp]
	mov	edx, DWORD PTR [eax+112]
	call	edx
	cwde
	push	eax
	mov	ecx, DWORD PTR _package$[ebp]
	mov	edx, DWORD PTR [ecx]
	mov	ecx, DWORD PTR _package$[ebp]
	mov	eax, DWORD PTR [edx+116]
	call	eax
	movzx	ecx, al
	imul	ecx, 24					; 00000018H
	mov	edx, DWORD PTR _this$[ebp]
	mov	eax, DWORD PTR [edx+ecx+876]
	mov	ecx, DWORD PTR _TypeID$[ebp]
	mov	ecx, DWORD PTR [eax+ecx*4+56]
	call	?AddIconToList@C_MapIcon@@QAEPAVMAPICONLIST@@JFJMMFPADJJJJJPAUDETECTOR@@@Z ; C_MapIcon::AddIconToList
	jmp	SHORT $LN3@AddPackage
$LN1@AddPackage:

; 820  : 		}
; 821  : 	}
; 822  : 	return(NULL);

	xor	eax, eax
$LN3@AddPackage:

; 823  : }

	mov	ecx, DWORD PTR __$ArrayPad$[ebp]
	xor	ecx, ebp
	call	@__security_check_cookie@4
	mov	esp, ebp
	pop	ebp
	ret	4
?AddPackage@C_Map@@QAEPAVMAPICONLIST@@PAVPackageClass@@@Z ENDP ; C_Map::AddPackage
_TEXT	ENDS
; Function compile flags: /Odtp
; File c:\users\zhitao li\documents\visual studio 2012\projects\freefalcon\ui\src\campaign\cmap.cpp
_TEXT	SEGMENT
_UnitPtr$ = -64						; size = 4
tv194 = -60						; size = 4
_this$ = -56						; size = 4
_TypeID$ = -52						; size = 4
_UnitType$ = -48					; size = 4
_Buffer$ = -44						; size = 40
__$ArrayPad$ = -4					; size = 4
_squadron$ = 8						; size = 4
?AddSquadron@C_Map@@QAEPAVMAPICONLIST@@PAVSquadronClass@@@Z PROC ; C_Map::AddSquadron
; _this$ = ecx

; 774  : {

	push	ebp
	mov	ebp, esp
	sub	esp, 64					; 00000040H
	mov	eax, DWORD PTR ___security_cookie
	xor	eax, ebp
	mov	DWORD PTR __$ArrayPad$[ebp], eax
	mov	DWORD PTR _this$[ebp], ecx

; 775  : 	long UnitType,TypeID;
; 776  : 	UnitClassDataType *UnitPtr;
; 777  : 	_TCHAR Buffer[40];
; 778  : 
; 779  : 	UnitType=GetObjectiveType(squadron);

	mov	eax, DWORD PTR _squadron$[ebp]
	push	eax
	call	?GetObjectiveType@@YAJPAVCampBaseClass@@@Z ; GetObjectiveType
	add	esp, 4
	mov	DWORD PTR _UnitType$[ebp], eax

; 780  : 	TypeID=FindTypeIndex(UnitType,OBJ_TypeList,_MAP_NUM_OBJ_TYPES_);

	push	14					; 0000000eH
	push	OFFSET ?OBJ_TypeList@@3PAJA		; OBJ_TypeList
	mov	ecx, DWORD PTR _UnitType$[ebp]
	push	ecx
	call	?FindTypeIndex@@YAJJQAJH@Z		; FindTypeIndex
	add	esp, 12					; 0000000cH
	mov	DWORD PTR _TypeID$[ebp], eax

; 781  : 	if(TypeID != -1){

	cmp	DWORD PTR _TypeID$[ebp], -1
	je	$LN1@AddSquadro

; 782  : 		if(UnitType){

	cmp	DWORD PTR _UnitType$[ebp], 0
	je	$LN1@AddSquadro

; 783  : 			UnitPtr=squadron->GetUnitClassData();

	mov	ecx, DWORD PTR _squadron$[ebp]
	call	?GetUnitClassData@UnitClass@@QAEPAUUnitClassDataType@@XZ ; UnitClass::GetUnitClassData
	mov	DWORD PTR _UnitPtr$[ebp], eax

; 784  : 			if(UnitPtr){

	cmp	DWORD PTR _UnitPtr$[ebp], 0
	je	$LN1@AddSquadro

; 785  : 				squadron->GetName(Buffer,39,FALSE);

	push	0
	push	39					; 00000027H
	lea	edx, DWORD PTR _Buffer$[ebp]
	push	edx
	mov	eax, DWORD PTR _squadron$[ebp]
	mov	edx, DWORD PTR [eax]
	mov	ecx, DWORD PTR _squadron$[ebp]
	mov	eax, DWORD PTR [edx+380]
	call	eax

; 786  : 				return(Team_[squadron->GetTeam()].Objectives->Type[TypeID]->AddIconToList(
; 787  : 					squadron->GetCampID(),
; 788  : 					static_cast<short>(UnitType),
; 789  : 					10117,
; 790  : 					squadron->YPos(),
; 791  : 					maxy - squadron->XPos(),
; 792  : 					FALSE,Buffer,0,0,0,0,0,NULL)
; 793  : 				);

	push	0
	push	0
	push	0
	push	0
	push	0
	push	0
	lea	ecx, DWORD PTR _Buffer$[ebp]
	push	ecx
	push	0
	mov	ecx, DWORD PTR _squadron$[ebp]
	call	?XPos@VuEntity@@QBEMXZ			; VuEntity::XPos
	fstp	DWORD PTR tv194[ebp]
	mov	edx, DWORD PTR _this$[ebp]
	movss	xmm0, DWORD PTR [edx+732]
	subss	xmm0, DWORD PTR tv194[ebp]
	push	ecx
	movss	DWORD PTR [esp], xmm0
	mov	ecx, DWORD PTR _squadron$[ebp]
	call	?YPos@VuEntity@@QBEMXZ			; VuEntity::YPos
	push	ecx
	fstp	DWORD PTR [esp]
	push	10117					; 00002785H
	movzx	eax, WORD PTR _UnitType$[ebp]
	push	eax
	mov	ecx, DWORD PTR _squadron$[ebp]
	mov	edx, DWORD PTR [ecx]
	mov	ecx, DWORD PTR _squadron$[ebp]
	mov	eax, DWORD PTR [edx+112]
	call	eax
	movsx	ecx, ax
	push	ecx
	mov	edx, DWORD PTR _squadron$[ebp]
	mov	eax, DWORD PTR [edx]
	mov	ecx, DWORD PTR _squadron$[ebp]
	mov	edx, DWORD PTR [eax+116]
	call	edx
	movzx	eax, al
	imul	eax, 24					; 00000018H
	mov	ecx, DWORD PTR _this$[ebp]
	mov	edx, DWORD PTR [ecx+eax+876]
	mov	eax, DWORD PTR _TypeID$[ebp]
	mov	ecx, DWORD PTR [edx+eax*4+56]
	call	?AddIconToList@C_MapIcon@@QAEPAVMAPICONLIST@@JFJMMFPADJJJJJPAUDETECTOR@@@Z ; C_MapIcon::AddIconToList
	jmp	SHORT $LN4@AddSquadro
$LN1@AddSquadro:

; 794  : 			}
; 795  : 		}
; 796  : 	}
; 797  : 	return(NULL);

	xor	eax, eax
$LN4@AddSquadro:

; 798  : }

	mov	ecx, DWORD PTR __$ArrayPad$[ebp]
	xor	ecx, ebp
	call	@__security_check_cookie@4
	mov	esp, ebp
	pop	ebp
	ret	4
?AddSquadron@C_Map@@QAEPAVMAPICONLIST@@PAVSquadronClass@@@Z ENDP ; C_Map::AddSquadron
_TEXT	ENDS
; Function compile flags: /Odtp
; File c:\users\zhitao li\documents\visual studio 2012\projects\freefalcon\ui\src\campaign\cmap.cpp
_TEXT	SEGMENT
tv238 = -76						; size = 4
_vid$1 = -72						; size = 4
_vc$2 = -68						; size = 4
tv149 = -64						; size = 4
_idx$ = -60						; size = 4
_TypeID$ = -56						; size = 4
_this$ = -52						; size = 4
_UnitPtr$ = -48						; size = 4
_Buffer$ = -44						; size = 40
__$ArrayPad$ = -4					; size = 4
_flight$ = 8						; size = 4
?AddFlight@C_Map@@QAEPAVMAPICONLIST@@PAVFlightClass@@@Z PROC ; C_Map::AddFlight
; _this$ = ecx

; 735  : {

	push	ebp
	mov	ebp, esp
	sub	esp, 76					; 0000004cH
	mov	eax, DWORD PTR ___security_cookie
	xor	eax, ebp
	mov	DWORD PTR __$ArrayPad$[ebp], eax
	push	esi
	mov	DWORD PTR _this$[ebp], ecx

; 736  : 	long idx;
; 737  : 	long TypeID;
; 738  : 	UnitClassDataType *UnitPtr;
; 739  : 	_TCHAR Buffer[40];
; 740  : 
; 741  : 	UnitPtr=flight->GetUnitClassData();

	mov	ecx, DWORD PTR _flight$[ebp]
	call	?GetUnitClassData@UnitClass@@QAEPAUUnitClassDataType@@XZ ; UnitClass::GetUnitClassData
	mov	DWORD PTR _UnitPtr$[ebp], eax

; 742  : 	if(UnitPtr){

	cmp	DWORD PTR _UnitPtr$[ebp], 0
	je	$LN3@AddFlight

; 743  : 		idx=GetAirIcon(flight->GetSType());

	mov	ecx, DWORD PTR _flight$[ebp]
	call	?GetSType@CampBaseClass@@QBEEXZ		; CampBaseClass::GetSType
	movzx	eax, al
	push	eax
	call	?GetAirIcon@@YAJE@Z			; GetAirIcon
	add	esp, 4
	mov	DWORD PTR _idx$[ebp], eax

; 744  : 		TypeID=FindTypeIndex(AirIcons[idx].UIType,AIR_TypeList,_MAP_NUM_AIR_TYPES_);

	push	5
	push	OFFSET ?AIR_TypeList@@3PAJA		; AIR_TypeList
	mov	ecx, DWORD PTR _idx$[ebp]
	imul	ecx, 20					; 00000014H
	mov	edx, DWORD PTR ?AirIcons@@3PAUAIR_ICONS@@A[ecx+16]
	push	edx
	call	?FindTypeIndex@@YAJJQAJH@Z		; FindTypeIndex
	add	esp, 12					; 0000000cH
	mov	DWORD PTR _TypeID$[ebp], eax

; 745  : 
; 746  : 		if(TypeID != -1){

	cmp	DWORD PTR _TypeID$[ebp], -1
	je	$LN3@AddFlight

; 747  : 			if(UnitPtr->IconIndex){

	mov	eax, DWORD PTR _UnitPtr$[ebp]
	movsx	ecx, WORD PTR [eax+332]
	test	ecx, ecx
	je	$LN3@AddFlight

; 748  : 				if (gGps->GetTeamNo() == flight->GetTeam()){

	mov	ecx, DWORD PTR ?gGps@@3PAVGlobalPositioningSystem@@A ; gGps
	call	?GetTeamNo@GlobalPositioningSystem@@QAEJXZ ; GlobalPositioningSystem::GetTeamNo
	mov	esi, eax
	mov	edx, DWORD PTR _flight$[ebp]
	mov	eax, DWORD PTR [edx]
	mov	ecx, DWORD PTR _flight$[ebp]
	mov	edx, DWORD PTR [eax+116]
	call	edx
	movzx	eax, al
	cmp	esi, eax
	jne	SHORT $LN2@AddFlight

; 749  : 					GetCallsign(flight,Buffer);

	lea	ecx, DWORD PTR _Buffer$[ebp]
	push	ecx
	mov	edx, DWORD PTR _flight$[ebp]
	push	edx
	call	?GetCallsign@@YAXPAVFlightClass@@PAD@Z	; GetCallsign
	add	esp, 8

; 750  : 				}
; 751  : 			    else {

	jmp	SHORT $LN1@AddFlight
$LN2@AddFlight:

; 752  : 					int vid = flight->GetVehicleID(0);

	push	0
	mov	ecx, DWORD PTR _flight$[ebp]
	call	?GetVehicleID@UnitClass@@QAEFH@Z	; UnitClass::GetVehicleID
	cwde
	mov	DWORD PTR _vid$1[ebp], eax

; 753  : 					VehicleClassDataType *vc = GetVehicleClassData(vid);

	mov	ecx, DWORD PTR _vid$1[ebp]
	push	ecx
	call	?GetVehicleClassData@@YAPAUVehicleClassDataType@@H@Z ; GetVehicleClassData
	add	esp, 4
	mov	DWORD PTR _vc$2[ebp], eax

; 754  : 					strcpy(Buffer, vc ? vc->Name : "<unk>");

	cmp	DWORD PTR _vc$2[ebp], 0
	je	SHORT $LN8@AddFlight
	mov	edx, DWORD PTR _vc$2[ebp]
	add	edx, 8
	mov	DWORD PTR tv149[ebp], edx
	jmp	SHORT $LN9@AddFlight
$LN8@AddFlight:
	mov	DWORD PTR tv149[ebp], OFFSET ??_C@_05NCAJEJLJ@?$DMunk?$DO?$AA@
$LN9@AddFlight:
	mov	eax, DWORD PTR tv149[ebp]
	push	eax
	lea	ecx, DWORD PTR _Buffer$[ebp]
	push	ecx
	call	_strcpy
	add	esp, 8
$LN1@AddFlight:

; 755  : 			    }
; 756  : 			    return (Team_[flight->GetTeam()].AirUnits->Type[TypeID]->AddIconToList(
; 757  : 					flight->GetCampID(),
; 758  : 					static_cast<short>(AirIcons[idx].UIType),
; 759  : 					UnitPtr->IconIndex,
; 760  : 					flight->YPos(),
; 761  : 					maxy - flight->XPos(),
; 762  : 					static_cast<short>(gMoveBattalion),
; 763  : 					Buffer,
; 764  : 					0,
; 765  : 					((Flight)flight)->GetLastDirection()&0x7
; 766  : 				));

	mov	ecx, DWORD PTR _flight$[ebp]
	call	?GetLastDirection@FlightClass@@QAEEXZ	; FlightClass::GetLastDirection
	movzx	edx, al
	and	edx, 7
	push	edx
	push	0
	lea	eax, DWORD PTR _Buffer$[ebp]
	push	eax
	movzx	ecx, WORD PTR ?gMoveBattalion@@3HA
	push	ecx
	mov	ecx, DWORD PTR _flight$[ebp]
	call	?XPos@VuEntity@@QBEMXZ			; VuEntity::XPos
	fstp	DWORD PTR tv238[ebp]
	mov	edx, DWORD PTR _this$[ebp]
	movss	xmm0, DWORD PTR [edx+732]
	subss	xmm0, DWORD PTR tv238[ebp]
	push	ecx
	movss	DWORD PTR [esp], xmm0
	mov	ecx, DWORD PTR _flight$[ebp]
	call	?YPos@VuEntity@@QBEMXZ			; VuEntity::YPos
	push	ecx
	fstp	DWORD PTR [esp]
	mov	eax, DWORD PTR _UnitPtr$[ebp]
	movsx	ecx, WORD PTR [eax+332]
	push	ecx
	mov	edx, DWORD PTR _idx$[ebp]
	imul	edx, 20					; 00000014H
	movzx	eax, WORD PTR ?AirIcons@@3PAUAIR_ICONS@@A[edx+16]
	push	eax
	mov	ecx, DWORD PTR _flight$[ebp]
	mov	edx, DWORD PTR [ecx]
	mov	ecx, DWORD PTR _flight$[ebp]
	mov	eax, DWORD PTR [edx+112]
	call	eax
	movsx	ecx, ax
	push	ecx
	mov	edx, DWORD PTR _flight$[ebp]
	mov	eax, DWORD PTR [edx]
	mov	ecx, DWORD PTR _flight$[ebp]
	mov	edx, DWORD PTR [eax+116]
	call	edx
	movzx	eax, al
	imul	eax, 24					; 00000018H
	mov	ecx, DWORD PTR _this$[ebp]
	mov	edx, DWORD PTR [ecx+eax+864]
	mov	eax, DWORD PTR _TypeID$[ebp]
	mov	ecx, DWORD PTR [edx+eax*4+20]
	call	?AddIconToList@C_MapIcon@@QAEPAVMAPICONLIST@@JFJMMFPADJJ@Z ; C_MapIcon::AddIconToList
	jmp	SHORT $LN6@AddFlight
$LN3@AddFlight:

; 767  : 			}
; 768  : 		}
; 769  : 	}
; 770  : 	return(NULL);

	xor	eax, eax
$LN6@AddFlight:

; 771  : }

	pop	esi
	mov	ecx, DWORD PTR __$ArrayPad$[ebp]
	xor	ecx, ebp
	call	@__security_check_cookie@4
	mov	esp, ebp
	pop	ebp
	ret	4
?AddFlight@C_Map@@QAEPAVMAPICONLIST@@PAVFlightClass@@@Z ENDP ; C_Map::AddFlight
_TEXT	ENDS
; Function compile flags: /Odtp
; File c:\users\zhitao li\documents\visual studio 2012\projects\freefalcon\ui\src\campaign\cmap.cpp
_TEXT	SEGMENT
$T1 = -152						; size = 4
$T2 = -148						; size = 4
tv575 = -144						; size = 4
_curstr$ = -140						; size = 4
tv540 = -136						; size = 4
$T3 = -132						; size = 4
_radar_long$ = -128					; size = 4
_sam_long$ = -124					; size = 4
_upar$ = -120						; size = 4
_sam_short$ = -116					; size = 4
_radar_short$ = -112					; size = 4
_numarcs$ = -108					; size = 4
_totalstr$ = -104					; size = 4
_batid$ = -100						; size = 4
_UnitPtr$ = -96						; size = 4
_brigid$ = -92						; size = 4
_perc$ = -88						; size = 4
_this$ = -84						; size = 4
_TypeID$ = -80						; size = 4
_LevelID$ = -76						; size = 4
_UnitType$ = -72					; size = 4
_detect$ = -68						; size = 4
_Buffer$ = -64						; size = 60
__$ArrayPad$ = -4					; size = 4
_u$ = 8							; size = 4
?AddUnit@C_Map@@QAEPAVMAPICONLIST@@PAVUnitClass@@@Z PROC ; C_Map::AddUnit
; _this$ = ecx

; 597  : {

	push	ebp
	mov	ebp, esp
	sub	esp, 152				; 00000098H
	mov	eax, DWORD PTR ___security_cookie
	xor	eax, ebp
	mov	DWORD PTR __$ArrayPad$[ebp], eax
	mov	DWORD PTR _this$[ebp], ecx

; 598  : 	long UnitType,TypeID,LevelID = -1,brigid,batid,numarcs;//! 

	mov	DWORD PTR _LevelID$[ebp], -1

; 599  : 	Unit upar;
; 600  : 	UnitClassDataType *UnitPtr;
; 601  : 	float totalstr,curstr,perc;
; 602  : 	DETECTOR *detect;
; 603  : 	float sam_short;
; 604  : 	float sam_long;
; 605  : 	float radar_short;
; 606  : 	float radar_long;
; 607  : 	_TCHAR Buffer[60];
; 608  : 
; 609  : 	UnitType=FindUnitType(u);

	mov	eax, DWORD PTR _u$[ebp]
	push	eax
	call	?FindUnitType@@YAJPAVUnitClass@@@Z	; FindUnitType
	add	esp, 4
	mov	DWORD PTR _UnitType$[ebp], eax

; 610  : 	TypeID=-1;

	mov	DWORD PTR _TypeID$[ebp], -1

; 611  : 
; 612  : 	// Figure out Status
; 613  : 	curstr=(float)u->GetTotalVehicles();

	mov	ecx, DWORD PTR _u$[ebp]
	call	?GetTotalVehicles@UnitClass@@QAEHXZ	; UnitClass::GetTotalVehicles
	cvtsi2ss xmm0, eax
	movss	DWORD PTR _curstr$[ebp], xmm0

; 614  : 	totalstr=(float)u->GetFullstrengthVehicles();

	mov	ecx, DWORD PTR _u$[ebp]
	call	?GetFullstrengthVehicles@UnitClass@@QAEHXZ ; UnitClass::GetFullstrengthVehicles
	cvtsi2ss xmm0, eax
	movss	DWORD PTR _totalstr$[ebp], xmm0

; 615  : 	if(totalstr < 1) totalstr=1;

	movss	xmm0, DWORD PTR __real@3f800000
	comiss	xmm0, DWORD PTR _totalstr$[ebp]
	jbe	SHORT $LN23@AddUnit
	movss	xmm0, DWORD PTR __real@3f800000
	movss	DWORD PTR _totalstr$[ebp], xmm0
$LN23@AddUnit:

; 616  : 	perc=(curstr/totalstr) * 100.0f;

	movss	xmm0, DWORD PTR _curstr$[ebp]
	divss	xmm0, DWORD PTR _totalstr$[ebp]
	mulss	xmm0, DWORD PTR __real@42c80000
	movss	DWORD PTR _perc$[ebp], xmm0

; 617  : 	if(perc > 100.0f) perc=100.0f;

	movss	xmm0, DWORD PTR _perc$[ebp]
	comiss	xmm0, DWORD PTR __real@42c80000
	jbe	SHORT $LN22@AddUnit
	movss	xmm0, DWORD PTR __real@42c80000
	movss	DWORD PTR _perc$[ebp], xmm0
$LN22@AddUnit:

; 618  : 
; 619  : 	if(UnitType & _UNIT_GROUND_MASK)

	mov	ecx, DWORD PTR _UnitType$[ebp]
	and	ecx, 117440512				; 07000000H
	je	SHORT $LN21@AddUnit

; 620  : 	{
; 621  : 		TypeID=FindTypeIndex(UnitType & 0x0fff,GND_TypeList,_MAP_NUM_GND_TYPES_);

	push	4
	push	OFFSET ?GND_TypeList@@3PAJA		; GND_TypeList
	mov	edx, DWORD PTR _UnitType$[ebp]
	and	edx, 4095				; 00000fffH
	push	edx
	call	?FindTypeIndex@@YAJJQAJH@Z		; FindTypeIndex
	add	esp, 12					; 0000000cH
	mov	DWORD PTR _TypeID$[ebp], eax

; 622  : 		if(TypeID != -1)

	cmp	DWORD PTR _TypeID$[ebp], -1
	je	SHORT $LN20@AddUnit

; 623  : 			LevelID=FindTypeIndex(UnitType & _UNIT_GROUND_MASK,GND_LevelList,_MAP_NUM_GND_LEVELS_);

	push	3
	push	OFFSET ?GND_LevelList@@3PAJA		; GND_LevelList
	mov	eax, DWORD PTR _UnitType$[ebp]
	and	eax, 117440512				; 07000000H
	push	eax
	call	?FindTypeIndex@@YAJJQAJH@Z		; FindTypeIndex
	add	esp, 12					; 0000000cH
	mov	DWORD PTR _LevelID$[ebp], eax

; 624  : 		else

	jmp	SHORT $LN19@AddUnit
$LN20@AddUnit:

; 625  : 			LevelID = -1;

	mov	DWORD PTR _LevelID$[ebp], -1
$LN19@AddUnit:
	jmp	SHORT $LN17@AddUnit
$LN21@AddUnit:

; 626  : 	}
; 627  : 	else if(UnitType & _UNIT_NAVAL_MASK)

	mov	ecx, DWORD PTR _UnitType$[ebp]
	and	ecx, 134217728				; 08000000H
	je	SHORT $LN17@AddUnit

; 628  : 	{
; 629  : 		TypeID=FindTypeIndex(UnitType & 0x0fff,NAV_TypeList,_MAP_NUM_NAV_TYPES_);

	push	2
	push	OFFSET ?NAV_TypeList@@3PAJA		; NAV_TypeList
	mov	edx, DWORD PTR _UnitType$[ebp]
	and	edx, 4095				; 00000fffH
	push	edx
	call	?FindTypeIndex@@YAJJQAJH@Z		; FindTypeIndex
	add	esp, 12					; 0000000cH
	mov	DWORD PTR _TypeID$[ebp], eax

; 630  : 		LevelID=1;

	mov	DWORD PTR _LevelID$[ebp], 1
$LN17@AddUnit:

; 631  : 	}
; 632  : 	if(TypeID != -1 && LevelID != -1)

	cmp	DWORD PTR _TypeID$[ebp], -1
	je	$LN1@AddUnit
	cmp	DWORD PTR _LevelID$[ebp], -1
	je	$LN1@AddUnit

; 633  : 	{
; 634  : 		UnitPtr=u->GetUnitClassData();

	mov	ecx, DWORD PTR _u$[ebp]
	call	?GetUnitClassData@UnitClass@@QAEPAUUnitClassDataType@@XZ ; UnitClass::GetUnitClassData
	mov	DWORD PTR _UnitPtr$[ebp], eax

; 635  : 		if(UnitPtr)

	cmp	DWORD PTR _UnitPtr$[ebp], 0
	je	$LN1@AddUnit

; 636  : 		{
; 637  : 			if(UnitType & _UNIT_GROUND_MASK)

	mov	eax, DWORD PTR _UnitType$[ebp]
	and	eax, 117440512				; 07000000H
	je	$LN14@AddUnit

; 638  : 			{
; 639  : 				if(LevelID == 1)

	cmp	DWORD PTR _LevelID$[ebp], 1
	jne	SHORT $LN13@AddUnit

; 640  : 				{
; 641  : 					brigid=u->GetUnitNameID();

	mov	ecx, DWORD PTR _u$[ebp]
	call	?GetUnitNameID@UnitClass@@QAEHXZ	; UnitClass::GetUnitNameID
	mov	DWORD PTR _brigid$[ebp], eax

; 642  : 					batid=0;

	mov	DWORD PTR _batid$[ebp], 0
	jmp	SHORT $LN8@AddUnit
$LN13@AddUnit:

; 643  : 				}
; 644  : 				else if(LevelID == 2)

	cmp	DWORD PTR _LevelID$[ebp], 2
	jne	SHORT $LN11@AddUnit

; 645  : 				{
; 646  : 					upar=u->GetUnitParent();

	mov	ecx, DWORD PTR _u$[ebp]
	mov	edx, DWORD PTR [ecx]
	mov	ecx, DWORD PTR _u$[ebp]
	mov	eax, DWORD PTR [edx+944]
	call	eax
	mov	DWORD PTR _upar$[ebp], eax

; 647  : 					if(upar)

	cmp	DWORD PTR _upar$[ebp], 0
	je	SHORT $LN10@AddUnit

; 648  : 						brigid=upar->GetUnitNameID();

	mov	ecx, DWORD PTR _upar$[ebp]
	call	?GetUnitNameID@UnitClass@@QAEHXZ	; UnitClass::GetUnitNameID
	mov	DWORD PTR _brigid$[ebp], eax

; 649  : 					else

	jmp	SHORT $LN9@AddUnit
$LN10@AddUnit:

; 650  : 						brigid=0;

	mov	DWORD PTR _brigid$[ebp], 0
$LN9@AddUnit:

; 651  : 					batid=u->GetUnitNameID();

	mov	ecx, DWORD PTR _u$[ebp]
	call	?GetUnitNameID@UnitClass@@QAEHXZ	; UnitClass::GetUnitNameID
	mov	DWORD PTR _batid$[ebp], eax

; 652  : 				}
; 653  : 				else

	jmp	SHORT $LN8@AddUnit
$LN11@AddUnit:

; 654  : 				{
; 655  : 					brigid=0;

	mov	DWORD PTR _brigid$[ebp], 0

; 656  : 					batid=0;

	mov	DWORD PTR _batid$[ebp], 0
$LN8@AddUnit:

; 657  : 				}
; 658  : 				detect=NULL;

	mov	DWORD PTR _detect$[ebp], 0

; 659  : 				if(u->IsBattalion())

	mov	ecx, DWORD PTR _u$[ebp]
	mov	edx, DWORD PTR [ecx]
	mov	ecx, DWORD PTR _u$[ebp]
	mov	eax, DWORD PTR [edx+240]
	call	eax
	test	eax, eax
	je	$LN3@AddUnit

; 660  : 				{
; 661  : 					radar_short=static_cast<float>(u->GetElectronicDetectionRange(LowAir));

	push	4
	mov	ecx, DWORD PTR _u$[ebp]
	mov	edx, DWORD PTR [ecx]
	mov	ecx, DWORD PTR _u$[ebp]
	mov	eax, DWORD PTR [edx+420]
	call	eax
	cvtsi2ss xmm0, eax
	movss	DWORD PTR _radar_short$[ebp], xmm0

; 662  : 					radar_long=static_cast<float>(u->GetElectronicDetectionRange(Air));

	push	5
	mov	ecx, DWORD PTR _u$[ebp]
	mov	edx, DWORD PTR [ecx]
	mov	ecx, DWORD PTR _u$[ebp]
	mov	eax, DWORD PTR [edx+420]
	call	eax
	cvtsi2ss xmm0, eax
	movss	DWORD PTR _radar_long$[ebp], xmm0

; 663  : 					sam_short=static_cast<float>(u->GetAproxWeaponRange(LowAir));

	push	4
	mov	ecx, DWORD PTR _u$[ebp]
	mov	edx, DWORD PTR [ecx]
	mov	ecx, DWORD PTR _u$[ebp]
	mov	eax, DWORD PTR [edx+412]
	call	eax
	cvtsi2ss xmm0, eax
	movss	DWORD PTR _sam_short$[ebp], xmm0

; 664  : 					sam_long=static_cast<float>(u->GetAproxWeaponRange(Air));

	push	5
	mov	ecx, DWORD PTR _u$[ebp]
	mov	edx, DWORD PTR [ecx]
	mov	ecx, DWORD PTR _u$[ebp]
	mov	eax, DWORD PTR [edx+412]
	call	eax
	cvtsi2ss xmm0, eax
	movss	DWORD PTR _sam_long$[ebp], xmm0

; 665  : 					if(radar_short || radar_long || sam_short || sam_long)

	movss	xmm0, DWORD PTR _radar_short$[ebp]
	ucomiss	xmm0, DWORD PTR __real@00000000
	lahf
	test	ah, 68					; 00000044H
	jp	SHORT $LN5@AddUnit
	movss	xmm0, DWORD PTR _radar_long$[ebp]
	ucomiss	xmm0, DWORD PTR __real@00000000
	lahf
	test	ah, 68					; 00000044H
	jp	SHORT $LN5@AddUnit
	movss	xmm0, DWORD PTR _sam_short$[ebp]
	ucomiss	xmm0, DWORD PTR __real@00000000
	lahf
	test	ah, 68					; 00000044H
	jp	SHORT $LN5@AddUnit
	movss	xmm0, DWORD PTR _sam_long$[ebp]
	ucomiss	xmm0, DWORD PTR __real@00000000
	lahf
	test	ah, 68					; 00000044H
	jnp	$LN3@AddUnit
$LN5@AddUnit:

; 666  : 					{
; 667  : 						#ifdef USE_SH_POOLS
; 668  : 						detect = (DETECTOR *)MemAllocPtr(UI_Pools[UI_GENERAL_POOL],sizeof(DETECTOR),FALSE);
; 669  : 						#else
; 670  : 						detect=new DETECTOR;

	push	16					; 00000010H
	call	??2@YAPAXI@Z				; operator new
	add	esp, 4
	mov	DWORD PTR $T1[ebp], eax
	mov	ecx, DWORD PTR $T1[ebp]
	mov	DWORD PTR _detect$[ebp], ecx

; 671  : 						#endif
; 672  : 						detect->HighSam=sam_long * KM_TO_FT;

	movss	xmm0, DWORD PTR _sam_long$[ebp]
	mulss	xmm0, DWORD PTR __real@454cffae
	mov	edx, DWORD PTR _detect$[ebp]
	movss	DWORD PTR [edx+8], xmm0

; 673  : 						detect->HighRadar=radar_long * KM_TO_FT;

	movss	xmm0, DWORD PTR _radar_long$[ebp]
	mulss	xmm0, DWORD PTR __real@454cffae
	mov	eax, DWORD PTR _detect$[ebp]
	movss	DWORD PTR [eax+12], xmm0

; 674  : 						detect->LowSam=sam_short * KM_TO_FT;

	movss	xmm0, DWORD PTR _sam_short$[ebp]
	mulss	xmm0, DWORD PTR __real@454cffae
	mov	ecx, DWORD PTR _detect$[ebp]
	movss	DWORD PTR [ecx+4], xmm0

; 675  : 
; 676  : 						if(radar_short)

	movss	xmm0, DWORD PTR _radar_short$[ebp]
	ucomiss	xmm0, DWORD PTR __real@00000000
	lahf
	test	ah, 68					; 00000044H
	jnp	$LN4@AddUnit

; 677  : 						{
; 678  : 							numarcs=u->GetNumberOfArcs();

	mov	edx, DWORD PTR _u$[ebp]
	mov	eax, DWORD PTR [edx]
	mov	ecx, DWORD PTR _u$[ebp]
	mov	edx, DWORD PTR [eax+432]
	call	edx
	mov	DWORD PTR _numarcs$[ebp], eax

; 679  : 							numarcs=1; // TEMP kludge

	mov	DWORD PTR _numarcs$[ebp], 1

; 680  : 
; 681  : 							#ifdef USE_SH_POOLS
; 682  : 							detect->LowRadar = (ARC_LIST *)MemAllocPtr(UI_Pools[UI_GENERAL_POOL],sizeof(ARC_LIST),FALSE);
; 683  : 							#else
; 684  : 							detect->LowRadar=new ARC_LIST;

	push	8
	call	??2@YAPAXI@Z				; operator new
	add	esp, 4
	mov	DWORD PTR $T3[ebp], eax
	mov	eax, DWORD PTR _detect$[ebp]
	mov	ecx, DWORD PTR $T3[ebp]
	mov	DWORD PTR [eax], ecx

; 685  : 							#endif
; 686  : 							detect->LowRadar->numarcs=static_cast<short>(numarcs);

	mov	edx, DWORD PTR _detect$[ebp]
	mov	eax, DWORD PTR [edx]
	mov	cx, WORD PTR _numarcs$[ebp]
	mov	WORD PTR [eax], cx

; 687  : 							#ifdef USE_SH_POOLS
; 688  : 							detect->LowRadar->arcs = (ARC_REC *)MemAllocPtr(UI_Pools[UI_GENERAL_POOL],sizeof(ARC_REC)*numarcs,FALSE);
; 689  : 							#else
; 690  : 							detect->LowRadar->arcs=new ARC_REC[numarcs];

	xor	ecx, ecx
	mov	eax, DWORD PTR _numarcs$[ebp]
	mov	edx, 8
	mul	edx
	seto	cl
	neg	ecx
	or	ecx, eax
	push	ecx
	call	??_U@YAPAXI@Z				; operator new[]
	add	esp, 4
	mov	DWORD PTR $T2[ebp], eax
	mov	eax, DWORD PTR _detect$[ebp]
	mov	ecx, DWORD PTR [eax]
	mov	edx, DWORD PTR $T2[ebp]
	mov	DWORD PTR [ecx+4], edx

; 691  : 							#endif
; 692  : 
; 693  : 							// after getting rid of kludges...
; 694  : 							// figure out how to do arcs right
; 695  : 							// kludge
; 696  : 							detect->LowRadar->arcs[0].arc=0;

	mov	eax, DWORD PTR _detect$[ebp]
	mov	ecx, DWORD PTR [eax]
	mov	edx, 8
	imul	edx, 0
	mov	eax, DWORD PTR [ecx+4]
	xor	ecx, ecx
	mov	WORD PTR [eax+edx], cx

; 697  : 							detect->LowRadar->arcs[0].range=radar_short;

	mov	edx, DWORD PTR _detect$[ebp]
	mov	eax, DWORD PTR [edx]
	mov	ecx, 8
	imul	ecx, 0
	mov	edx, DWORD PTR [eax+4]
	movss	xmm0, DWORD PTR _radar_short$[ebp]
	movss	DWORD PTR [edx+ecx+4], xmm0

; 698  : 						}
; 699  : 						else

	jmp	SHORT $LN3@AddUnit
$LN4@AddUnit:

; 700  : 							detect->LowRadar=NULL;

	mov	eax, DWORD PTR _detect$[ebp]
	mov	DWORD PTR [eax], 0
$LN3@AddUnit:

; 701  : 					}
; 702  : 				}
; 703  : 				u->GetName(Buffer,49,FALSE);

	push	0
	push	49					; 00000031H
	lea	ecx, DWORD PTR _Buffer$[ebp]
	push	ecx
	mov	edx, DWORD PTR _u$[ebp]
	mov	eax, DWORD PTR [edx]
	mov	ecx, DWORD PTR _u$[ebp]
	mov	edx, DWORD PTR [eax+380]
	call	edx

; 704  : 				return(Team_[u->GetTeam()].Units->Type[TypeID]->Levels[LevelID]->AddIconToList(
; 705  : 					u->GetCampID(),
; 706  : 					static_cast<short>(UnitType),
; 707  : 					UnitPtr->IconIndex,
; 708  : 					u->YPos(),
; 709  : 					maxy - u->XPos(),
; 710  : 					static_cast<short>(gMoveBattalion),
; 711  : 					Buffer,
; 712  : 					u->GetUnitDivision(),
; 713  : 					brigid,batid,
; 714  : 					(long)perc,0,detect)
; 715  : 				);

	mov	eax, DWORD PTR _detect$[ebp]
	push	eax
	push	0
	cvttss2si ecx, DWORD PTR _perc$[ebp]
	push	ecx
	mov	edx, DWORD PTR _batid$[ebp]
	push	edx
	mov	eax, DWORD PTR _brigid$[ebp]
	push	eax
	mov	ecx, DWORD PTR _u$[ebp]
	mov	edx, DWORD PTR [ecx]
	mov	ecx, DWORD PTR _u$[ebp]
	mov	eax, DWORD PTR [edx+904]
	call	eax
	push	eax
	lea	ecx, DWORD PTR _Buffer$[ebp]
	push	ecx
	movzx	edx, WORD PTR ?gMoveBattalion@@3HA
	push	edx
	mov	ecx, DWORD PTR _u$[ebp]
	call	?XPos@VuEntity@@QBEMXZ			; VuEntity::XPos
	fstp	DWORD PTR tv540[ebp]
	mov	eax, DWORD PTR _this$[ebp]
	movss	xmm0, DWORD PTR [eax+732]
	subss	xmm0, DWORD PTR tv540[ebp]
	push	ecx
	movss	DWORD PTR [esp], xmm0
	mov	ecx, DWORD PTR _u$[ebp]
	call	?YPos@VuEntity@@QBEMXZ			; VuEntity::YPos
	push	ecx
	fstp	DWORD PTR [esp]
	mov	ecx, DWORD PTR _UnitPtr$[ebp]
	movsx	edx, WORD PTR [ecx+332]
	push	edx
	movzx	eax, WORD PTR _UnitType$[ebp]
	push	eax
	mov	ecx, DWORD PTR _u$[ebp]
	mov	edx, DWORD PTR [ecx]
	mov	ecx, DWORD PTR _u$[ebp]
	mov	eax, DWORD PTR [edx+112]
	call	eax
	movsx	ecx, ax
	push	ecx
	mov	edx, DWORD PTR _u$[ebp]
	mov	eax, DWORD PTR [edx]
	mov	ecx, DWORD PTR _u$[ebp]
	mov	edx, DWORD PTR [eax+116]
	call	edx
	movzx	eax, al
	imul	eax, 24					; 00000018H
	mov	ecx, DWORD PTR _this$[ebp]
	mov	edx, DWORD PTR [ecx+eax+868]
	mov	eax, DWORD PTR _TypeID$[ebp]
	mov	ecx, DWORD PTR [edx+eax*4+16]
	mov	edx, DWORD PTR _LevelID$[ebp]
	mov	ecx, DWORD PTR [ecx+edx*4+12]
	call	?AddIconToList@C_MapIcon@@QAEPAVMAPICONLIST@@JFJMMFPADJJJJJPAUDETECTOR@@@Z ; C_MapIcon::AddIconToList
	jmp	$LN24@AddUnit
	jmp	$LN1@AddUnit
$LN14@AddUnit:

; 716  : 			}
; 717  : 			else if(UnitType & _UNIT_NAVAL_MASK)

	mov	eax, DWORD PTR _UnitType$[ebp]
	and	eax, 134217728				; 08000000H
	je	$LN1@AddUnit

; 718  : 			{
; 719  : 				u->GetName(Buffer,49,FALSE);

	push	0
	push	49					; 00000031H
	lea	ecx, DWORD PTR _Buffer$[ebp]
	push	ecx
	mov	edx, DWORD PTR _u$[ebp]
	mov	eax, DWORD PTR [edx]
	mov	ecx, DWORD PTR _u$[ebp]
	mov	edx, DWORD PTR [eax+380]
	call	edx

; 720  : 				return(Team_[u->GetTeam()].NavalUnits->Type[TypeID]->AddIconToList(
; 721  : 					u->GetCampID(),
; 722  : 					static_cast<short>(UnitType),
; 723  : 					UnitPtr->IconIndex,
; 724  : 					u->YPos(),
; 725  : 					maxy - u->XPos(),
; 726  : 					static_cast<short>(gMoveBattalion),Buffer,(long)perc,0)
; 727  : 				);

	push	0
	cvttss2si eax, DWORD PTR _perc$[ebp]
	push	eax
	lea	ecx, DWORD PTR _Buffer$[ebp]
	push	ecx
	movzx	edx, WORD PTR ?gMoveBattalion@@3HA
	push	edx
	mov	ecx, DWORD PTR _u$[ebp]
	call	?XPos@VuEntity@@QBEMXZ			; VuEntity::XPos
	fstp	DWORD PTR tv575[ebp]
	mov	eax, DWORD PTR _this$[ebp]
	movss	xmm0, DWORD PTR [eax+732]
	subss	xmm0, DWORD PTR tv575[ebp]
	push	ecx
	movss	DWORD PTR [esp], xmm0
	mov	ecx, DWORD PTR _u$[ebp]
	call	?YPos@VuEntity@@QBEMXZ			; VuEntity::YPos
	push	ecx
	fstp	DWORD PTR [esp]
	mov	ecx, DWORD PTR _UnitPtr$[ebp]
	movsx	edx, WORD PTR [ecx+332]
	push	edx
	movzx	eax, WORD PTR _UnitType$[ebp]
	push	eax
	mov	ecx, DWORD PTR _u$[ebp]
	mov	edx, DWORD PTR [ecx]
	mov	ecx, DWORD PTR _u$[ebp]
	mov	eax, DWORD PTR [edx+112]
	call	eax
	movsx	ecx, ax
	push	ecx
	mov	edx, DWORD PTR _u$[ebp]
	mov	eax, DWORD PTR [edx]
	mov	ecx, DWORD PTR _u$[ebp]
	mov	edx, DWORD PTR [eax+116]
	call	edx
	movzx	eax, al
	imul	eax, 24					; 00000018H
	mov	ecx, DWORD PTR _this$[ebp]
	mov	edx, DWORD PTR [ecx+eax+872]
	mov	eax, DWORD PTR _TypeID$[ebp]
	mov	ecx, DWORD PTR [edx+eax*4+8]
	call	?AddIconToList@C_MapIcon@@QAEPAVMAPICONLIST@@JFJMMFPADJJ@Z ; C_MapIcon::AddIconToList
	jmp	SHORT $LN24@AddUnit
$LN1@AddUnit:

; 728  : 			}
; 729  : 		}
; 730  : 	}
; 731  : 	return(NULL);

	xor	eax, eax
$LN24@AddUnit:

; 732  : }

	mov	ecx, DWORD PTR __$ArrayPad$[ebp]
	xor	ecx, ebp
	call	@__security_check_cookie@4
	mov	esp, ebp
	pop	ebp
	ret	4
?AddUnit@C_Map@@QAEPAVMAPICONLIST@@PAVUnitClass@@@Z ENDP ; C_Map::AddUnit
_TEXT	ENDS
; Function compile flags: /Odtp
; File c:\users\zhitao li\documents\visual studio 2012\projects\freefalcon\ui\src\campaign\cmap.cpp
_TEXT	SEGMENT
_curstr$ = -88						; size = 4
_cur$ = -84						; size = 4
_UnitPtr$ = -80						; size = 4
_UnitType$ = -76					; size = 4
_totalstr$ = -72					; size = 4
_perc$ = -68						; size = 4
_Type$ = -64						; size = 4
_x$ = -60						; size = 2
_y$ = -56						; size = 2
_this$ = -52						; size = 4
_u$ = -48						; size = 4
_Buffer$ = -44						; size = 40
__$ArrayPad$ = -4					; size = 4
_div$ = 8						; size = 4
?AddDivision@C_Map@@QAEPAVMAPICONLIST@@PAVDivisionClass@@@Z PROC ; C_Map::AddDivision
; _this$ = ecx

; 551  : {

	push	ebp
	mov	ebp, esp
	sub	esp, 88					; 00000058H
	mov	eax, DWORD PTR ___security_cookie
	xor	eax, ebp
	mov	DWORD PTR __$ArrayPad$[ebp], eax
	mov	DWORD PTR _this$[ebp], ecx

; 552  : 	UnitClassDataType *UnitPtr;
; 553  : 	Unit     u;
; 554  : 	MAPICONLIST *cur;
; 555  : 	GridIndex x,y;
; 556  : 	long UnitType,Type;
; 557  : 	long totalstr,curstr,perc;
; 558  : 	_TCHAR Buffer[40];
; 559  : 
; 560  : 	u=div->GetFirstUnitElement();

	mov	ecx, DWORD PTR _div$[ebp]
	call	?GetFirstUnitElement@DivisionClass@@QAEPAVUnitClass@@XZ ; DivisionClass::GetFirstUnitElement
	mov	DWORD PTR _u$[ebp], eax

; 561  : 	if(u)

	cmp	DWORD PTR _u$[ebp], 0
	je	$LN1@AddDivisio

; 562  : 	{
; 563  : 		UnitType=FindDivisionType(div->GetDivisionType()) & 0xffffff;

	mov	ecx, DWORD PTR _div$[ebp]
	call	?GetDivisionType@DivisionClass@@QAEEXZ	; DivisionClass::GetDivisionType
	movzx	eax, al
	push	eax
	call	?FindDivisionType@@YAJE@Z		; FindDivisionType
	add	esp, 4
	and	eax, 16777215				; 00ffffffH
	mov	DWORD PTR _UnitType$[ebp], eax

; 564  : 		Type=FindTypeIndex(UnitType & 0x0fff,GND_TypeList,_MAP_NUM_GND_TYPES_);

	push	4
	push	OFFSET ?GND_TypeList@@3PAJA		; GND_TypeList
	mov	ecx, DWORD PTR _UnitType$[ebp]
	and	ecx, 4095				; 00000fffH
	push	ecx
	call	?FindTypeIndex@@YAJJQAJH@Z		; FindTypeIndex
	add	esp, 12					; 0000000cH
	mov	DWORD PTR _Type$[ebp], eax

; 565  : 
; 566  : 		// Figure out Status
; 567  : 		curstr=u->GetTotalVehicles();

	mov	ecx, DWORD PTR _u$[ebp]
	call	?GetTotalVehicles@UnitClass@@QAEHXZ	; UnitClass::GetTotalVehicles
	mov	DWORD PTR _curstr$[ebp], eax

; 568  : 		totalstr=u->GetFullstrengthVehicles();

	mov	ecx, DWORD PTR _u$[ebp]
	call	?GetFullstrengthVehicles@UnitClass@@QAEHXZ ; UnitClass::GetFullstrengthVehicles
	mov	DWORD PTR _totalstr$[ebp], eax

; 569  : 		if(totalstr < 1) totalstr=1;

	cmp	DWORD PTR _totalstr$[ebp], 1
	jge	SHORT $LN3@AddDivisio
	mov	DWORD PTR _totalstr$[ebp], 1
$LN3@AddDivisio:

; 570  : 		perc=(curstr * 100)/totalstr;

	mov	eax, DWORD PTR _curstr$[ebp]
	imul	eax, 100				; 00000064H
	cdq
	idiv	DWORD PTR _totalstr$[ebp]
	mov	DWORD PTR _perc$[ebp], eax

; 571  : 		if(perc > 100) perc=100;

	cmp	DWORD PTR _perc$[ebp], 100		; 00000064H
	jle	SHORT $LN2@AddDivisio
	mov	DWORD PTR _perc$[ebp], 100		; 00000064H
$LN2@AddDivisio:

; 572  : 
; 573  : 		cur=Team_[u->GetTeam()].Units->Type[Type]->Levels[0]->FindID(UR_DIVISION | div->nid);

	mov	edx, DWORD PTR _div$[ebp]
	movsx	eax, WORD PTR [edx+4]
	or	eax, 65536				; 00010000H
	push	eax
	mov	ecx, DWORD PTR _u$[ebp]
	mov	edx, DWORD PTR [ecx]
	mov	ecx, DWORD PTR _u$[ebp]
	mov	eax, DWORD PTR [edx+116]
	call	eax
	movzx	ecx, al
	imul	ecx, 24					; 00000018H
	mov	edx, DWORD PTR _this$[ebp]
	mov	eax, DWORD PTR [edx+ecx+868]
	mov	ecx, DWORD PTR _Type$[ebp]
	mov	edx, DWORD PTR [eax+ecx*4+16]
	mov	eax, 4
	imul	eax, 0
	mov	ecx, DWORD PTR [edx+eax+12]
	call	?FindID@C_MapIcon@@QAEPAVMAPICONLIST@@J@Z ; C_MapIcon::FindID
	mov	DWORD PTR _cur$[ebp], eax

; 574  : 		if(cur == NULL)

	cmp	DWORD PTR _cur$[ebp], 0
	jne	$LN1@AddDivisio

; 575  : 		{
; 576  : 			div->GetName(Buffer,39,FALSE);

	push	0
	push	39					; 00000027H
	lea	ecx, DWORD PTR _Buffer$[ebp]
	push	ecx
	mov	ecx, DWORD PTR _div$[ebp]
	call	?GetName@DivisionClass@@QAEPADPADHH@Z	; DivisionClass::GetName

; 577  : 			UnitPtr=u->GetUnitClassData();

	mov	ecx, DWORD PTR _u$[ebp]
	call	?GetUnitClassData@UnitClass@@QAEPAUUnitClassDataType@@XZ ; UnitClass::GetUnitClassData
	mov	DWORD PTR _UnitPtr$[ebp], eax

; 578  : 			div->GetLocation(&x,&y);

	lea	edx, DWORD PTR _y$[ebp]
	push	edx
	lea	eax, DWORD PTR _x$[ebp]
	push	eax
	mov	ecx, DWORD PTR _div$[ebp]
	call	?GetLocation@DivisionClass@@QAEXPAF0@Z	; DivisionClass::GetLocation

; 579  : 
; 580  : 			return(Team_[u->GetTeam()].Units->Type[Type]->Levels[0]->AddIconToList(
; 581  : 				UR_DIVISION | div->nid,
; 582  : 				static_cast<short>(Type | _UNIT_DIVISION),
; 583  : 				UnitPtr->IconIndex,
; 584  : 				x*FEET_PER_KM,
; 585  : 				maxy - y*FEET_PER_KM,
; 586  : 				FALSE,
; 587  : 				Buffer,
; 588  : 				div->nid,
; 589  : 				0,0,(long)perc,0)
; 590  : 			);

	push	0
	mov	ecx, DWORD PTR _perc$[ebp]
	push	ecx
	push	0
	push	0
	mov	edx, DWORD PTR _div$[ebp]
	movsx	eax, WORD PTR [edx+4]
	push	eax
	lea	ecx, DWORD PTR _Buffer$[ebp]
	push	ecx
	push	0
	movsx	edx, WORD PTR _y$[ebp]
	cvtsi2ss xmm0, edx
	mulss	xmm0, DWORD PTR __real@454cffae
	mov	eax, DWORD PTR _this$[ebp]
	movss	xmm1, DWORD PTR [eax+732]
	subss	xmm1, xmm0
	push	ecx
	movss	DWORD PTR [esp], xmm1
	movsx	ecx, WORD PTR _x$[ebp]
	cvtsi2ss xmm0, ecx
	mulss	xmm0, DWORD PTR __real@454cffae
	push	ecx
	movss	DWORD PTR [esp], xmm0
	mov	edx, DWORD PTR _UnitPtr$[ebp]
	movsx	eax, WORD PTR [edx+332]
	push	eax
	mov	ecx, DWORD PTR _Type$[ebp]
	or	ecx, 67108864				; 04000000H
	push	ecx
	mov	edx, DWORD PTR _div$[ebp]
	movsx	eax, WORD PTR [edx+4]
	or	eax, 65536				; 00010000H
	push	eax
	mov	ecx, DWORD PTR _u$[ebp]
	mov	edx, DWORD PTR [ecx]
	mov	ecx, DWORD PTR _u$[ebp]
	mov	eax, DWORD PTR [edx+116]
	call	eax
	movzx	ecx, al
	imul	ecx, 24					; 00000018H
	mov	edx, DWORD PTR _this$[ebp]
	mov	eax, DWORD PTR [edx+ecx+868]
	mov	ecx, DWORD PTR _Type$[ebp]
	mov	edx, DWORD PTR [eax+ecx*4+16]
	mov	eax, 4
	imul	eax, 0
	mov	ecx, DWORD PTR [edx+eax+12]
	call	?AddIconToList@C_MapIcon@@QAEPAVMAPICONLIST@@JFJMMFPADJJJJJ@Z ; C_MapIcon::AddIconToList
	jmp	SHORT $LN5@AddDivisio
$LN1@AddDivisio:

; 591  : 		}
; 592  : 	}
; 593  : 	return(NULL);

	xor	eax, eax
$LN5@AddDivisio:

; 594  : }

	mov	ecx, DWORD PTR __$ArrayPad$[ebp]
	xor	ecx, ebp
	call	@__security_check_cookie@4
	mov	esp, ebp
	pop	ebp
	ret	4
?AddDivision@C_Map@@QAEPAVMAPICONLIST@@PAVDivisionClass@@@Z ENDP ; C_Map::AddDivision
_TEXT	ENDS
; Function compile flags: /Odtp
; File c:\users\zhitao li\documents\visual studio 2012\projects\freefalcon\ui\src\campaign\cmap.cpp
_TEXT	SEGMENT
$T1 = -92						; size = 4
$T2 = -88						; size = 4
tv320 = -84						; size = 4
$T3 = -80						; size = 4
_radar_long$ = -76					; size = 4
_ObjPtr$ = -72						; size = 4
_TypeID$ = -68						; size = 4
_this$ = -64						; size = 4
_ObjType$ = -60						; size = 4
_radar_short$ = -56					; size = 4
_numarcs$ = -52						; size = 2
_detect$ = -48						; size = 4
_Buffer$ = -44						; size = 40
__$ArrayPad$ = -4					; size = 4
_Obj$ = 8						; size = 4
?AddObjective@C_Map@@QAEPAVMAPICONLIST@@PAVObjectiveClass@@@Z PROC ; C_Map::AddObjective
; _this$ = ecx

; 479  : {

	push	ebp
	mov	ebp, esp
	sub	esp, 92					; 0000005cH
	mov	eax, DWORD PTR ___security_cookie
	xor	eax, ebp
	mov	DWORD PTR __$ArrayPad$[ebp], eax
	mov	DWORD PTR _this$[ebp], ecx

; 480  : 	long ObjType,TypeID;
; 481  : 	short numarcs;
; 482  : 	float radar_short,radar_long;
; 483  : 	ObjClassDataType *ObjPtr;
; 484  : 	_TCHAR Buffer[40];
; 485  : 	DETECTOR *detect;
; 486  : 
; 487  : 	ObjType=GetObjectiveType(Obj);

	mov	eax, DWORD PTR _Obj$[ebp]
	push	eax
	call	?GetObjectiveType@@YAJPAVCampBaseClass@@@Z ; GetObjectiveType
	add	esp, 4
	mov	DWORD PTR _ObjType$[ebp], eax

; 488  : 	TypeID=FindTypeIndex(ObjType,OBJ_TypeList,_MAP_NUM_OBJ_TYPES_);

	push	14					; 0000000eH
	push	OFFSET ?OBJ_TypeList@@3PAJA		; OBJ_TypeList
	mov	ecx, DWORD PTR _ObjType$[ebp]
	push	ecx
	call	?FindTypeIndex@@YAJJQAJH@Z		; FindTypeIndex
	add	esp, 12					; 0000000cH
	mov	DWORD PTR _TypeID$[ebp], eax

; 489  : 	if(TypeID != -1)

	cmp	DWORD PTR _TypeID$[ebp], -1
	je	$LN5@AddObjecti

; 490  : 	{
; 491  : 		if(ObjType)

	cmp	DWORD PTR _ObjType$[ebp], 0
	je	$LN5@AddObjecti

; 492  : 		{
; 493  : 			ObjPtr=Obj->GetObjectiveClassData();

	mov	ecx, DWORD PTR _Obj$[ebp]
	call	?GetObjectiveClassData@ObjectiveClass@@QAEPAUObjClassDataType@@XZ ; ObjectiveClass::GetObjectiveClassData
	mov	DWORD PTR _ObjPtr$[ebp], eax

; 494  : 			if(ObjPtr)

	cmp	DWORD PTR _ObjPtr$[ebp], 0
	je	$LN5@AddObjecti

; 495  : 			{
; 496  : 				Obj->GetName(Buffer,39,TRUE);

	push	1
	push	39					; 00000027H
	lea	edx, DWORD PTR _Buffer$[ebp]
	push	edx
	mov	eax, DWORD PTR _Obj$[ebp]
	mov	edx, DWORD PTR [eax]
	mov	ecx, DWORD PTR _Obj$[ebp]
	mov	eax, DWORD PTR [edx+380]
	call	eax

; 497  : 				detect=NULL;

	mov	DWORD PTR _detect$[ebp], 0

; 498  : 				radar_short=static_cast<float>(Obj->GetElectronicDetectionRange(LowAir));

	push	4
	mov	ecx, DWORD PTR _Obj$[ebp]
	mov	edx, DWORD PTR [ecx]
	mov	ecx, DWORD PTR _Obj$[ebp]
	mov	eax, DWORD PTR [edx+420]
	call	eax
	cvtsi2ss xmm0, eax
	movss	DWORD PTR _radar_short$[ebp], xmm0

; 499  : 				radar_long=static_cast<float>(Obj->GetElectronicDetectionRange(Air));

	push	5
	mov	ecx, DWORD PTR _Obj$[ebp]
	mov	edx, DWORD PTR [ecx]
	mov	ecx, DWORD PTR _Obj$[ebp]
	mov	eax, DWORD PTR [edx+420]
	call	eax
	cvtsi2ss xmm0, eax
	movss	DWORD PTR _radar_long$[ebp], xmm0

; 500  : 				if(radar_short || radar_long)

	movss	xmm0, DWORD PTR _radar_short$[ebp]
	ucomiss	xmm0, DWORD PTR __real@00000000
	lahf
	test	ah, 68					; 00000044H
	jp	SHORT $LN3@AddObjecti
	movss	xmm0, DWORD PTR _radar_long$[ebp]
	ucomiss	xmm0, DWORD PTR __real@00000000
	lahf
	test	ah, 68					; 00000044H
	jnp	$LN1@AddObjecti
$LN3@AddObjecti:

; 501  : 				{
; 502  : 					#ifdef USE_SH_POOLS
; 503  : 					detect = (DETECTOR *)MemAllocPtr(UI_Pools[UI_GENERAL_POOL],sizeof(DETECTOR),FALSE);
; 504  : 					#else
; 505  : 					detect=new DETECTOR;

	push	16					; 00000010H
	call	??2@YAPAXI@Z				; operator new
	add	esp, 4
	mov	DWORD PTR $T1[ebp], eax
	mov	ecx, DWORD PTR $T1[ebp]
	mov	DWORD PTR _detect$[ebp], ecx

; 506  : 					#endif
; 507  : 					detect->HighSam=0.0f;

	mov	edx, DWORD PTR _detect$[ebp]
	movss	xmm0, DWORD PTR __real@00000000
	movss	DWORD PTR [edx+8], xmm0

; 508  : 					detect->HighRadar=radar_long * KM_TO_FT;

	movss	xmm0, DWORD PTR _radar_long$[ebp]
	mulss	xmm0, DWORD PTR __real@454cffae
	mov	eax, DWORD PTR _detect$[ebp]
	movss	DWORD PTR [eax+12], xmm0

; 509  : 					detect->LowSam=0.0f;

	mov	ecx, DWORD PTR _detect$[ebp]
	movss	xmm0, DWORD PTR __real@00000000
	movss	DWORD PTR [ecx+4], xmm0

; 510  : 
; 511  : 					if(radar_short)

	movss	xmm0, DWORD PTR _radar_short$[ebp]
	ucomiss	xmm0, DWORD PTR __real@00000000
	lahf
	test	ah, 68					; 00000044H
	jnp	$LN2@AddObjecti

; 512  : 					{
; 513  : 						numarcs=static_cast<short>(Obj->GetNumberOfArcs());

	mov	edx, DWORD PTR _Obj$[ebp]
	mov	eax, DWORD PTR [edx]
	mov	ecx, DWORD PTR _Obj$[ebp]
	mov	edx, DWORD PTR [eax+432]
	call	edx
	mov	WORD PTR _numarcs$[ebp], ax

; 514  : 						numarcs=1; // TEMP kludge

	mov	eax, 1
	mov	WORD PTR _numarcs$[ebp], ax

; 515  : 						#ifdef USE_SH_POOLS
; 516  : 						detect->LowRadar = (ARC_LIST *)MemAllocPtr(UI_Pools[UI_GENERAL_POOL],sizeof(ARC_LIST),FALSE);
; 517  : 						#else
; 518  : 						detect->LowRadar=new ARC_LIST;

	push	8
	call	??2@YAPAXI@Z				; operator new
	add	esp, 4
	mov	DWORD PTR $T3[ebp], eax
	mov	ecx, DWORD PTR _detect$[ebp]
	mov	edx, DWORD PTR $T3[ebp]
	mov	DWORD PTR [ecx], edx

; 519  : 						#endif
; 520  : 						detect->LowRadar->numarcs=numarcs;

	mov	eax, DWORD PTR _detect$[ebp]
	mov	ecx, DWORD PTR [eax]
	mov	dx, WORD PTR _numarcs$[ebp]
	mov	WORD PTR [ecx], dx

; 521  : 						#ifdef USE_SH_POOLS
; 522  : 						detect->LowRadar->arcs = (ARC_REC *)MemAllocPtr(UI_Pools[UI_GENERAL_POOL],sizeof(ARC_REC)*numarcs,FALSE);
; 523  : 						#else
; 524  : 						detect->LowRadar->arcs=new ARC_REC[numarcs];

	movsx	eax, WORD PTR _numarcs$[ebp]
	xor	ecx, ecx
	mov	edx, 8
	mul	edx
	seto	cl
	neg	ecx
	or	ecx, eax
	push	ecx
	call	??_U@YAPAXI@Z				; operator new[]
	add	esp, 4
	mov	DWORD PTR $T2[ebp], eax
	mov	eax, DWORD PTR _detect$[ebp]
	mov	ecx, DWORD PTR [eax]
	mov	edx, DWORD PTR $T2[ebp]
	mov	DWORD PTR [ecx+4], edx

; 525  : 						#endif
; 526  : 						// after getting rid of kludges...
; 527  : 						// figure out how to do arcs right
; 528  : 						// kludge
; 529  : 						detect->LowRadar->arcs[0].arc=0;

	mov	eax, DWORD PTR _detect$[ebp]
	mov	ecx, DWORD PTR [eax]
	mov	edx, 8
	imul	edx, 0
	mov	eax, DWORD PTR [ecx+4]
	xor	ecx, ecx
	mov	WORD PTR [eax+edx], cx

; 530  : 						detect->LowRadar->arcs[0].range=radar_short;

	mov	edx, DWORD PTR _detect$[ebp]
	mov	eax, DWORD PTR [edx]
	mov	ecx, 8
	imul	ecx, 0
	mov	edx, DWORD PTR [eax+4]
	movss	xmm0, DWORD PTR _radar_short$[ebp]
	movss	DWORD PTR [edx+ecx+4], xmm0

; 531  : 					}
; 532  : 					else

	jmp	SHORT $LN1@AddObjecti
$LN2@AddObjecti:

; 533  : 						detect->LowRadar=NULL;

	mov	eax, DWORD PTR _detect$[ebp]
	mov	DWORD PTR [eax], 0
$LN1@AddObjecti:

; 534  : 				}
; 535  : 				return (Team_[Obj->GetTeam()].Objectives->Type[TypeID]->AddIconToList(
; 536  : 					Obj->GetCampID(),
; 537  : 					static_cast<short>(ObjType),
; 538  : 					ObjPtr->IconIndex,
; 539  : 					Obj->YPos(),
; 540  : 					maxy - Obj->XPos(),
; 541  : 					FALSE,
; 542  : 					Buffer, 0, 0, 0, 0, 0, detect)
; 543  : 				);

	mov	ecx, DWORD PTR _detect$[ebp]
	push	ecx
	push	0
	push	0
	push	0
	push	0
	push	0
	lea	edx, DWORD PTR _Buffer$[ebp]
	push	edx
	push	0
	mov	ecx, DWORD PTR _Obj$[ebp]
	call	?XPos@VuEntity@@QBEMXZ			; VuEntity::XPos
	fstp	DWORD PTR tv320[ebp]
	mov	eax, DWORD PTR _this$[ebp]
	movss	xmm0, DWORD PTR [eax+732]
	subss	xmm0, DWORD PTR tv320[ebp]
	push	ecx
	movss	DWORD PTR [esp], xmm0
	mov	ecx, DWORD PTR _Obj$[ebp]
	call	?YPos@VuEntity@@QBEMXZ			; VuEntity::YPos
	push	ecx
	fstp	DWORD PTR [esp]
	mov	ecx, DWORD PTR _ObjPtr$[ebp]
	movsx	edx, WORD PTR [ecx+48]
	push	edx
	movzx	eax, WORD PTR _ObjType$[ebp]
	push	eax
	mov	ecx, DWORD PTR _Obj$[ebp]
	mov	edx, DWORD PTR [ecx]
	mov	ecx, DWORD PTR _Obj$[ebp]
	mov	eax, DWORD PTR [edx+112]
	call	eax
	movsx	ecx, ax
	push	ecx
	mov	edx, DWORD PTR _Obj$[ebp]
	mov	eax, DWORD PTR [edx]
	mov	ecx, DWORD PTR _Obj$[ebp]
	mov	edx, DWORD PTR [eax+116]
	call	edx
	movzx	eax, al
	imul	eax, 24					; 00000018H
	mov	ecx, DWORD PTR _this$[ebp]
	mov	edx, DWORD PTR [ecx+eax+876]
	mov	eax, DWORD PTR _TypeID$[ebp]
	mov	ecx, DWORD PTR [edx+eax*4+56]
	call	?AddIconToList@C_MapIcon@@QAEPAVMAPICONLIST@@JFJMMFPADJJJJJPAUDETECTOR@@@Z ; C_MapIcon::AddIconToList
	jmp	SHORT $LN8@AddObjecti
$LN5@AddObjecti:

; 544  : 			}
; 545  : 		}
; 546  : 	}
; 547  : 	return(NULL);

	xor	eax, eax
$LN8@AddObjecti:

; 548  : }

	mov	ecx, DWORD PTR __$ArrayPad$[ebp]
	xor	ecx, ebp
	call	@__security_check_cookie@4
	mov	esp, ebp
	pop	ebp
	ret	4
?AddObjective@C_Map@@QAEPAVMAPICONLIST@@PAVObjectiveClass@@@Z ENDP ; C_Map::AddObjective
_TEXT	ENDS
; Function compile flags: /Odtp
; File c:\users\zhitao li\documents\visual studio 2012\projects\freefalcon\ui\src\campaign\cmap.cpp
_TEXT	SEGMENT
$T1 = -92						; size = 4
tv1249 = -88						; size = 4
tv1243 = -84						; size = 4
tv1175 = -80						; size = 4
tv1169 = -76						; size = 4
$T2 = -72						; size = 4
$T3 = -68						; size = 4
tv1061 = -64						; size = 4
tv1055 = -60						; size = 4
$T4 = -56						; size = 4
tv856 = -52						; size = 4
tv637 = -48						; size = 4
tv334 = -44						; size = 4
tv331 = -40						; size = 4
_sam_long$ = -36					; size = 4
_sam_short$ = -32					; size = 4
_radar_long$ = -28					; size = 4
_threat$ = -24						; size = 4
_radar_short$ = -20					; size = 4
_this$ = -16						; size = 4
_x$ = -12						; size = 2
_y$ = -8						; size = 2
_i$ = -4						; size = 2
_ent$ = 8						; size = 4
?AddThreat@C_Map@@QAEPAUTHREAT_LIST@@PAVCampBaseClass@@@Z PROC ; C_Map::AddThreat
; _this$ = ecx

; 354  : {

	push	ebp
	mov	ebp, esp
	sub	esp, 92					; 0000005cH
	mov	DWORD PTR _this$[ebp], ecx

; 355  : 	THREAT_LIST *threat;
; 356  : 	long radar_short;
; 357  : 	long radar_long;
; 358  : 	long sam_short;
; 359  : 	long sam_long;
; 360  : 	short i;
; 361  : 	GridIndex x,y;
; 362  : 
; 363  : 	threat=NULL;

	mov	DWORD PTR _threat$[ebp], 0

; 364  : 	if(ent->IsObjective() && ent->IsEmitting())

	mov	eax, DWORD PTR _ent$[ebp]
	mov	edx, DWORD PTR [eax]
	mov	ecx, DWORD PTR _ent$[ebp]
	mov	eax, DWORD PTR [edx+236]
	call	eax
	test	eax, eax
	je	$LN26@AddThreat
	mov	ecx, DWORD PTR _ent$[ebp]
	mov	edx, DWORD PTR [ecx]
	mov	ecx, DWORD PTR _ent$[ebp]
	mov	eax, DWORD PTR [edx+216]
	call	eax
	test	eax, eax
	je	$LN26@AddThreat

; 365  : 	{
; 366  : 		ent->GetLocation(&x,&y);

	lea	ecx, DWORD PTR _y$[ebp]
	push	ecx
	lea	edx, DWORD PTR _x$[ebp]
	push	edx
	mov	ecx, DWORD PTR _ent$[ebp]
	call	?GetLocation@FalconEntity@@QBEXPAF0@Z	; FalconEntity::GetLocation

; 367  : 		ShiAssert(Map_Max_Y>0);
; 368  : 		y=static_cast<short>(Map_Max_Y-y);

	movsx	eax, WORD PTR ?Map_Max_Y@@3FA		; Map_Max_Y
	movsx	ecx, WORD PTR _y$[ebp]
	sub	eax, ecx
	mov	WORD PTR _y$[ebp], ax

; 369  : 		ShiAssert(y >= 0);
; 370  : 
; 371  : 		radar_short=ent->GetElectronicDetectionRange(LowAir);

	push	4
	mov	edx, DWORD PTR _ent$[ebp]
	mov	eax, DWORD PTR [edx]
	mov	ecx, DWORD PTR _ent$[ebp]
	mov	edx, DWORD PTR [eax+420]
	call	edx
	mov	DWORD PTR _radar_short$[ebp], eax

; 372  : 		radar_long=ent->GetElectronicDetectionRange(Air);

	push	5
	mov	eax, DWORD PTR _ent$[ebp]
	mov	edx, DWORD PTR [eax]
	mov	ecx, DWORD PTR _ent$[ebp]
	mov	eax, DWORD PTR [edx+420]
	call	eax
	mov	DWORD PTR _radar_long$[ebp], eax

; 373  : 		if(radar_short || radar_long)

	cmp	DWORD PTR _radar_short$[ebp], 0
	jne	SHORT $LN25@AddThreat
	cmp	DWORD PTR _radar_long$[ebp], 0
	je	$LN26@AddThreat
$LN25@AddThreat:

; 374  : 		{
; 375  : 			#ifdef USE_SH_POOLS
; 376  : 			threat = (THREAT_LIST *)MemAllocPtr(UI_Pools[UI_GENERAL_POOL],sizeof(THREAT_LIST),FALSE);
; 377  : 			#else
; 378  : 			threat=new THREAT_LIST;

	push	16					; 00000010H
	call	??2@YAPAXI@Z				; operator new
	add	esp, 4
	mov	DWORD PTR $T4[ebp], eax
	mov	ecx, DWORD PTR $T4[ebp]
	mov	DWORD PTR _threat$[ebp], ecx

; 379  : 			#endif
; 380  : 			memset(threat,0,sizeof(THREAT_LIST));

	push	16					; 00000010H
	push	0
	mov	edx, DWORD PTR _threat$[ebp]
	push	edx
	call	_memset
	add	esp, 12					; 0000000cH

; 381  : 
; 382  : 			if(Team_[ent->GetTeam()].Threats)

	mov	eax, DWORD PTR _ent$[ebp]
	mov	edx, DWORD PTR [eax]
	mov	ecx, DWORD PTR _ent$[ebp]
	mov	eax, DWORD PTR [edx+116]
	call	eax
	movzx	ecx, al
	imul	ecx, 24					; 00000018H
	mov	edx, DWORD PTR _this$[ebp]
	cmp	DWORD PTR [edx+ecx+860], 0
	je	$LN22@AddThreat

; 383  : 			{
; 384  : 				if(Team_[ent->GetTeam()].Threats->Type[_THREAT_RADAR_HIGH_])

	mov	eax, DWORD PTR _ent$[ebp]
	mov	edx, DWORD PTR [eax]
	mov	ecx, DWORD PTR _ent$[ebp]
	mov	eax, DWORD PTR [edx+116]
	call	eax
	movzx	ecx, al
	imul	ecx, 24					; 00000018H
	mov	edx, DWORD PTR _this$[ebp]
	mov	eax, DWORD PTR [edx+ecx+860]
	mov	ecx, 4
	imul	ecx, 3
	cmp	DWORD PTR [eax+ecx+16], 0
	je	$LN23@AddThreat

; 385  : 				{
; 386  : 					Team_[ent->GetTeam()].Threats->Type[_THREAT_RADAR_HIGH_]->AddCircle(ent->GetCampID(),C_Threat::THR_CIRCLE,x,y,radar_long);

	mov	edx, DWORD PTR _radar_long$[ebp]
	push	edx
	movsx	eax, WORD PTR _y$[ebp]
	push	eax
	movsx	ecx, WORD PTR _x$[ebp]
	push	ecx
	push	0
	mov	edx, DWORD PTR _ent$[ebp]
	mov	eax, DWORD PTR [edx]
	mov	ecx, DWORD PTR _ent$[ebp]
	mov	edx, DWORD PTR [eax+112]
	call	edx
	cwde
	push	eax
	mov	ecx, DWORD PTR _ent$[ebp]
	mov	edx, DWORD PTR [ecx]
	mov	ecx, DWORD PTR _ent$[ebp]
	mov	eax, DWORD PTR [edx+116]
	call	eax
	movzx	ecx, al
	imul	ecx, 24					; 00000018H
	mov	edx, DWORD PTR _this$[ebp]
	mov	eax, DWORD PTR [edx+ecx+860]
	mov	ecx, 4
	imul	ecx, 3
	mov	ecx, DWORD PTR [eax+ecx+16]
	call	?AddCircle@C_Threat@@QAEXJJJJJ@Z	; C_Threat::AddCircle

; 387  : 					threat->RadarHigh=Team_[ent->GetTeam()].Threats->Type[_THREAT_RADAR_HIGH_]->GetThreat(ent->GetCampID());

	mov	edx, DWORD PTR _ent$[ebp]
	mov	eax, DWORD PTR [edx]
	mov	ecx, DWORD PTR _ent$[ebp]
	mov	edx, DWORD PTR [eax+112]
	call	edx
	cwde
	push	eax
	mov	ecx, DWORD PTR _ent$[ebp]
	mov	edx, DWORD PTR [ecx]
	mov	ecx, DWORD PTR _ent$[ebp]
	mov	eax, DWORD PTR [edx+116]
	call	eax
	movzx	ecx, al
	imul	ecx, 24					; 00000018H
	mov	edx, DWORD PTR _this$[ebp]
	mov	eax, DWORD PTR [edx+ecx+860]
	mov	ecx, 4
	imul	ecx, 3
	mov	ecx, DWORD PTR [eax+ecx+16]
	call	?GetThreat@C_Threat@@QAEPAUTHREAT_CIRCLE@@J@Z ; C_Threat::GetThreat
	mov	edx, DWORD PTR _threat$[ebp]
	mov	DWORD PTR [edx+12], eax
$LN23@AddThreat:

; 388  : 				}
; 389  : 				if(Team_[ent->GetTeam()].Threats->Type[_THREAT_RADAR_LOW_] && radar_short)

	mov	eax, DWORD PTR _ent$[ebp]
	mov	edx, DWORD PTR [eax]
	mov	ecx, DWORD PTR _ent$[ebp]
	mov	eax, DWORD PTR [edx+116]
	call	eax
	movzx	ecx, al
	imul	ecx, 24					; 00000018H
	mov	edx, DWORD PTR _this$[ebp]
	mov	eax, DWORD PTR [edx+ecx+860]
	mov	ecx, 4
	shl	ecx, 1
	cmp	DWORD PTR [eax+ecx+16], 0
	je	$LN22@AddThreat
	cmp	DWORD PTR _radar_short$[ebp], 0
	je	$LN22@AddThreat

; 390  : 				{
; 391  : 					Team_[ent->GetTeam()].Threats->Type[_THREAT_RADAR_LOW_]->AddCircle(ent->GetCampID(),C_Threat::THR_SLICE,x,y,radar_short);

	mov	edx, DWORD PTR _radar_short$[ebp]
	push	edx
	movsx	eax, WORD PTR _y$[ebp]
	push	eax
	movsx	ecx, WORD PTR _x$[ebp]
	push	ecx
	push	1
	mov	edx, DWORD PTR _ent$[ebp]
	mov	eax, DWORD PTR [edx]
	mov	ecx, DWORD PTR _ent$[ebp]
	mov	edx, DWORD PTR [eax+112]
	call	edx
	cwde
	push	eax
	mov	ecx, DWORD PTR _ent$[ebp]
	mov	edx, DWORD PTR [ecx]
	mov	ecx, DWORD PTR _ent$[ebp]
	mov	eax, DWORD PTR [edx+116]
	call	eax
	movzx	ecx, al
	imul	ecx, 24					; 00000018H
	mov	edx, DWORD PTR _this$[ebp]
	mov	eax, DWORD PTR [edx+ecx+860]
	mov	ecx, 4
	shl	ecx, 1
	mov	ecx, DWORD PTR [eax+ecx+16]
	call	?AddCircle@C_Threat@@QAEXJJJJJ@Z	; C_Threat::AddCircle

; 392  : 					for(i=0;i<8;i++)

	xor	edx, edx
	mov	WORD PTR _i$[ebp], dx
	jmp	SHORT $LN21@AddThreat
$LN20@AddThreat:
	mov	ax, WORD PTR _i$[ebp]
	add	ax, 1
	mov	WORD PTR _i$[ebp], ax
$LN21@AddThreat:
	movsx	ecx, WORD PTR _i$[ebp]
	cmp	ecx, 8
	jge	$LN19@AddThreat

; 393  : // 2001-03-14 MODIFIED BY S.G. SO IF THERE IS NO RADAR RANGE DATA, THE radar_short VALUE IS USED INSTEAD
; 394  : //						Team_[ent->GetTeam()].Threats->Type[_THREAT_RADAR_LOW_]->SetRadius(ent->GetCampID(),i,static_cast<long>(min(ent->GetArcRange(i)*FT_TO_KM,radar_short)));
; 395  : 						Team_[ent->GetTeam()].Threats->Type[_THREAT_RADAR_LOW_]->SetRadius(ent->GetCampID(),i,static_cast<long>(((ObjectiveClass *)ent)->HasRadarRanges() ? (min(ent->GetArcRange(i)*FT_TO_KM,radar_short)) : radar_short));

	mov	ecx, DWORD PTR _ent$[ebp]
	call	?HasRadarRanges@ObjectiveClass@@QAEHXZ	; ObjectiveClass::HasRadarRanges
	test	eax, eax
	je	SHORT $LN32@AddThreat
	movsx	edx, WORD PTR _i$[ebp]
	push	edx
	mov	eax, DWORD PTR _ent$[ebp]
	mov	edx, DWORD PTR [eax]
	mov	ecx, DWORD PTR _ent$[ebp]
	mov	eax, DWORD PTR [edx+440]
	call	eax
	fstp	DWORD PTR tv1055[ebp]
	movss	xmm0, DWORD PTR tv1055[ebp]
	mulss	xmm0, DWORD PTR __real@399fcd90
	cvtsi2ss xmm1, DWORD PTR _radar_short$[ebp]
	comiss	xmm1, xmm0
	jbe	SHORT $LN30@AddThreat
	movsx	ecx, WORD PTR _i$[ebp]
	push	ecx
	mov	edx, DWORD PTR _ent$[ebp]
	mov	eax, DWORD PTR [edx]
	mov	ecx, DWORD PTR _ent$[ebp]
	mov	edx, DWORD PTR [eax+440]
	call	edx
	fstp	DWORD PTR tv1061[ebp]
	movss	xmm0, DWORD PTR tv1061[ebp]
	mulss	xmm0, DWORD PTR __real@399fcd90
	movss	DWORD PTR tv331[ebp], xmm0
	jmp	SHORT $LN31@AddThreat
$LN30@AddThreat:
	cvtsi2ss xmm0, DWORD PTR _radar_short$[ebp]
	movss	DWORD PTR tv331[ebp], xmm0
$LN31@AddThreat:
	movss	xmm0, DWORD PTR tv331[ebp]
	movss	DWORD PTR tv334[ebp], xmm0
	jmp	SHORT $LN33@AddThreat
$LN32@AddThreat:
	cvtsi2ss xmm0, DWORD PTR _radar_short$[ebp]
	movss	DWORD PTR tv334[ebp], xmm0
$LN33@AddThreat:
	cvttss2si eax, DWORD PTR tv334[ebp]
	push	eax
	movsx	ecx, WORD PTR _i$[ebp]
	push	ecx
	mov	edx, DWORD PTR _ent$[ebp]
	mov	eax, DWORD PTR [edx]
	mov	ecx, DWORD PTR _ent$[ebp]
	mov	edx, DWORD PTR [eax+112]
	call	edx
	cwde
	push	eax
	mov	ecx, DWORD PTR _ent$[ebp]
	mov	edx, DWORD PTR [ecx]
	mov	ecx, DWORD PTR _ent$[ebp]
	mov	eax, DWORD PTR [edx+116]
	call	eax
	movzx	ecx, al
	imul	ecx, 24					; 00000018H
	mov	edx, DWORD PTR _this$[ebp]
	mov	eax, DWORD PTR [edx+ecx+860]
	mov	ecx, 4
	shl	ecx, 1
	mov	ecx, DWORD PTR [eax+ecx+16]
	call	?SetRadius@C_Threat@@QAEXJJJ@Z		; C_Threat::SetRadius
	jmp	$LN20@AddThreat
$LN19@AddThreat:

; 396  : 					threat->RadarLow=Team_[ent->GetTeam()].Threats->Type[_THREAT_RADAR_LOW_]->GetThreat(ent->GetCampID());

	mov	edx, DWORD PTR _ent$[ebp]
	mov	eax, DWORD PTR [edx]
	mov	ecx, DWORD PTR _ent$[ebp]
	mov	edx, DWORD PTR [eax+112]
	call	edx
	cwde
	push	eax
	mov	ecx, DWORD PTR _ent$[ebp]
	mov	edx, DWORD PTR [ecx]
	mov	ecx, DWORD PTR _ent$[ebp]
	mov	eax, DWORD PTR [edx+116]
	call	eax
	movzx	ecx, al
	imul	ecx, 24					; 00000018H
	mov	edx, DWORD PTR _this$[ebp]
	mov	eax, DWORD PTR [edx+ecx+860]
	mov	ecx, 4
	shl	ecx, 1
	mov	ecx, DWORD PTR [eax+ecx+16]
	call	?GetThreat@C_Threat@@QAEPAUTHREAT_CIRCLE@@J@Z ; C_Threat::GetThreat
	mov	edx, DWORD PTR _threat$[ebp]
	mov	DWORD PTR [edx+8], eax
$LN22@AddThreat:

; 397  : 				}
; 398  : 			}
; 399  : 			delete threat; // JPO - no idea what this threat variable is for!!!

	mov	eax, DWORD PTR _threat$[ebp]
	mov	DWORD PTR $T3[ebp], eax
	mov	ecx, DWORD PTR $T3[ebp]
	push	ecx
	call	??3@YAXPAX@Z				; operator delete
	add	esp, 4
$LN26@AddThreat:

; 400  : 		}
; 401  : 	}
; 402  : // 2001-05-08 MODIFIED BY S.G. UNITS CAN STILL FIRE AT YOU, EVEN IF NOT EMITING THEMSELF SO RESERVE THE 'IsEmitting' FOR THREAT_RADAR_* CODE
; 403  : //	if(ent->IsUnit() && ent->IsEmitting())
