; Listing generated by Microsoft (R) Optimizing Compiler Version 17.00.51106.1 

	TITLE	C:\Users\Zhitao Li\Documents\Visual Studio 2012\Projects\Freefalcon\UI\SRC\setup\ControlTab.cpp
	.686P
	.XMM
	include listing.inc
	.model	flat

INCLUDELIB LIBCMT
INCLUDELIB OLDNAMES

PUBLIC	?traps@_Num_base@std@@2_NB			; std::_Num_base::traps
PUBLIC	?fixed@?$_Iosb@H@std@@2W4_Fmtflags@12@B		; std::_Iosb<int>::fixed
PUBLIC	?round_style@_Num_base@std@@2W4float_round_style@2@B ; std::_Num_base::round_style
PUBLIC	?hexfloat@?$_Iosb@H@std@@2W4_Fmtflags@12@B	; std::_Iosb<int>::hexfloat
PUBLIC	?digits@_Num_base@std@@2HB			; std::_Num_base::digits
PUBLIC	?boolalpha@?$_Iosb@H@std@@2W4_Fmtflags@12@B	; std::_Iosb<int>::boolalpha
PUBLIC	?digits10@_Num_base@std@@2HB			; std::_Num_base::digits10
PUBLIC	?_Stdio@?$_Iosb@H@std@@2W4_Fmtflags@12@B	; std::_Iosb<int>::_Stdio
PUBLIC	?max_digits10@_Num_base@std@@2HB		; std::_Num_base::max_digits10
PUBLIC	?adjustfield@?$_Iosb@H@std@@2W4_Fmtflags@12@B	; std::_Iosb<int>::adjustfield
PUBLIC	?max_exponent@_Num_base@std@@2HB		; std::_Num_base::max_exponent
PUBLIC	?basefield@?$_Iosb@H@std@@2W4_Fmtflags@12@B	; std::_Iosb<int>::basefield
PUBLIC	?max_exponent10@_Num_base@std@@2HB		; std::_Num_base::max_exponent10
PUBLIC	?floatfield@?$_Iosb@H@std@@2W4_Fmtflags@12@B	; std::_Iosb<int>::floatfield
PUBLIC	?min_exponent@_Num_base@std@@2HB		; std::_Num_base::min_exponent
PUBLIC	?min_exponent10@_Num_base@std@@2HB		; std::_Num_base::min_exponent10
PUBLIC	?goodbit@?$_Iosb@H@std@@2W4_Iostate@12@B	; std::_Iosb<int>::goodbit
PUBLIC	?radix@_Num_base@std@@2HB			; std::_Num_base::radix
PUBLIC	?eofbit@?$_Iosb@H@std@@2W4_Iostate@12@B		; std::_Iosb<int>::eofbit
PUBLIC	?failbit@?$_Iosb@H@std@@2W4_Iostate@12@B	; std::_Iosb<int>::failbit
PUBLIC	?badbit@?$_Iosb@H@std@@2W4_Iostate@12@B		; std::_Iosb<int>::badbit
PUBLIC	?_Hardfail@?$_Iosb@H@std@@2W4_Iostate@12@B	; std::_Iosb<int>::_Hardfail
PUBLIC	?in@?$_Iosb@H@std@@2W4_Openmode@12@B		; std::_Iosb<int>::in
PUBLIC	?out@?$_Iosb@H@std@@2W4_Openmode@12@B		; std::_Iosb<int>::out
PUBLIC	?ate@?$_Iosb@H@std@@2W4_Openmode@12@B		; std::_Iosb<int>::ate
PUBLIC	?app@?$_Iosb@H@std@@2W4_Openmode@12@B		; std::_Iosb<int>::app
PUBLIC	?trunc@?$_Iosb@H@std@@2W4_Openmode@12@B		; std::_Iosb<int>::trunc
PUBLIC	?_Nocreate@?$_Iosb@H@std@@2W4_Openmode@12@B	; std::_Iosb<int>::_Nocreate
PUBLIC	?is_bounded@_Num_int_base@std@@2_NB		; std::_Num_int_base::is_bounded
PUBLIC	?_Noreplace@?$_Iosb@H@std@@2W4_Openmode@12@B	; std::_Iosb<int>::_Noreplace
PUBLIC	?is_exact@_Num_int_base@std@@2_NB		; std::_Num_int_base::is_exact
PUBLIC	?binary@?$_Iosb@H@std@@2W4_Openmode@12@B	; std::_Iosb<int>::binary
PUBLIC	?is_integer@_Num_int_base@std@@2_NB		; std::_Num_int_base::is_integer
PUBLIC	?is_modulo@_Num_int_base@std@@2_NB		; std::_Num_int_base::is_modulo
PUBLIC	?beg@?$_Iosb@H@std@@2W4_Seekdir@12@B		; std::_Iosb<int>::beg
PUBLIC	?is_specialized@_Num_int_base@std@@2_NB		; std::_Num_int_base::is_specialized
PUBLIC	?cur@?$_Iosb@H@std@@2W4_Seekdir@12@B		; std::_Iosb<int>::cur
PUBLIC	?radix@_Num_int_base@std@@2HB			; std::_Num_int_base::radix
PUBLIC	?end@?$_Iosb@H@std@@2W4_Seekdir@12@B		; std::_Iosb<int>::end
PUBLIC	?has_denorm@_Num_float_base@std@@2W4float_denorm_style@2@B ; std::_Num_float_base::has_denorm
PUBLIC	?has_denorm_loss@_Num_float_base@std@@2_NB	; std::_Num_float_base::has_denorm_loss
PUBLIC	?SIMDIRTYDATA_INTERVAL@FalconEntity@@2KB	; FalconEntity::SIMDIRTYDATA_INTERVAL
PUBLIC	?CMPDIRTYDATA_INTERVAL@FalconEntity@@2KB	; FalconEntity::CMPDIRTYDATA_INTERVAL
PUBLIC	?has_infinity@_Num_float_base@std@@2_NB		; std::_Num_float_base::has_infinity
PUBLIC	?has_quiet_NaN@_Num_float_base@std@@2_NB	; std::_Num_float_base::has_quiet_NaN
PUBLIC	?has_signaling_NaN@_Num_float_base@std@@2_NB	; std::_Num_float_base::has_signaling_NaN
PUBLIC	?is_bounded@_Num_float_base@std@@2_NB		; std::_Num_float_base::is_bounded
PUBLIC	?is_exact@_Num_float_base@std@@2_NB		; std::_Num_float_base::is_exact
PUBLIC	?_Stream_err@failure@ios_base@std@@0W4io_errc@43@B ; std::ios_base::failure::_Stream_err
PUBLIC	?is_iec559@_Num_float_base@std@@2_NB		; std::_Num_float_base::is_iec559
PUBLIC	?is_integer@_Num_float_base@std@@2_NB		; std::_Num_float_base::is_integer
PUBLIC	?is_modulo@_Num_float_base@std@@2_NB		; std::_Num_float_base::is_modulo
PUBLIC	?is_signed@_Num_float_base@std@@2_NB		; std::_Num_float_base::is_signed
PUBLIC	?is_specialized@_Num_float_base@std@@2_NB	; std::_Num_float_base::is_specialized
PUBLIC	?tinyness_before@_Num_float_base@std@@2_NB	; std::_Num_float_base::tinyness_before
PUBLIC	?traps@_Num_float_base@std@@2_NB		; std::_Num_float_base::traps
PUBLIC	?round_style@_Num_float_base@std@@2W4float_round_style@2@B ; std::_Num_float_base::round_style
PUBLIC	?radix@_Num_float_base@std@@2HB			; std::_Num_float_base::radix
PUBLIC	?is_signed@?$numeric_limits@D@std@@2_NB		; std::numeric_limits<char>::is_signed
PUBLIC	?digits@?$numeric_limits@D@std@@2HB		; std::numeric_limits<char>::digits
PUBLIC	?digits10@?$numeric_limits@D@std@@2HB		; std::numeric_limits<char>::digits10
PUBLIC	?is_signed@?$numeric_limits@_W@std@@2_NB	; std::numeric_limits<wchar_t>::is_signed
PUBLIC	?digits@?$numeric_limits@_W@std@@2HB		; std::numeric_limits<wchar_t>::digits
PUBLIC	?digits10@?$numeric_limits@_W@std@@2HB		; std::numeric_limits<wchar_t>::digits10
PUBLIC	?is_modulo@?$numeric_limits@_N@std@@2_NB	; std::numeric_limits<bool>::is_modulo
PUBLIC	?is_signed@?$numeric_limits@_N@std@@2_NB	; std::numeric_limits<bool>::is_signed
PUBLIC	?digits@?$numeric_limits@_N@std@@2HB		; std::numeric_limits<bool>::digits
PUBLIC	?digits10@?$numeric_limits@_N@std@@2HB		; std::numeric_limits<bool>::digits10
PUBLIC	?is_signed@?$numeric_limits@C@std@@2_NB		; std::numeric_limits<signed char>::is_signed
PUBLIC	?digits@?$numeric_limits@C@std@@2HB		; std::numeric_limits<signed char>::digits
PUBLIC	?digits10@?$numeric_limits@C@std@@2HB		; std::numeric_limits<signed char>::digits10
PUBLIC	?is_signed@?$numeric_limits@E@std@@2_NB		; std::numeric_limits<unsigned char>::is_signed
PUBLIC	?value@?$integral_constant@_N$0A@@std@@2_NB	; std::integral_constant<bool,0>::value
PUBLIC	?digits@?$numeric_limits@E@std@@2HB		; std::numeric_limits<unsigned char>::digits
PUBLIC	?digits10@?$numeric_limits@E@std@@2HB		; std::numeric_limits<unsigned char>::digits10
PUBLIC	?value@?$integral_constant@_N$00@std@@2_NB	; std::integral_constant<bool,1>::value
PUBLIC	?is_signed@?$numeric_limits@F@std@@2_NB		; std::numeric_limits<short>::is_signed
PUBLIC	?digits@?$numeric_limits@F@std@@2HB		; std::numeric_limits<short>::digits
PUBLIC	?digits10@?$numeric_limits@F@std@@2HB		; std::numeric_limits<short>::digits10
PUBLIC	?is_signed@?$numeric_limits@G@std@@2_NB		; std::numeric_limits<unsigned short>::is_signed
PUBLIC	?digits@?$numeric_limits@G@std@@2HB		; std::numeric_limits<unsigned short>::digits
PUBLIC	?digits10@?$numeric_limits@G@std@@2HB		; std::numeric_limits<unsigned short>::digits10
PUBLIC	?collate@?$_Locbase@H@std@@2HB			; std::_Locbase<int>::collate
PUBLIC	?ctype@?$_Locbase@H@std@@2HB			; std::_Locbase<int>::ctype
PUBLIC	?monetary@?$_Locbase@H@std@@2HB			; std::_Locbase<int>::monetary
PUBLIC	?numeric@?$_Locbase@H@std@@2HB			; std::_Locbase<int>::numeric
PUBLIC	?time@?$_Locbase@H@std@@2HB			; std::_Locbase<int>::time
PUBLIC	?messages@?$_Locbase@H@std@@2HB			; std::_Locbase<int>::messages
PUBLIC	?all@?$_Locbase@H@std@@2HB			; std::_Locbase<int>::all
PUBLIC	?none@?$_Locbase@H@std@@2HB			; std::_Locbase<int>::none
PUBLIC	?is_signed@?$numeric_limits@H@std@@2_NB		; std::numeric_limits<int>::is_signed
PUBLIC	?value@?$_Sizeof@HU_Nil@std@@U12@U12@U12@U12@U12@U12@@std@@2IB ; std::_Sizeof<int,std::_Nil,std::_Nil,std::_Nil,std::_Nil,std::_Nil,std::_Nil,std::_Nil>::value
PUBLIC	?digits@?$numeric_limits@H@std@@2HB		; std::numeric_limits<int>::digits
PUBLIC	?digits10@?$numeric_limits@H@std@@2HB		; std::numeric_limits<int>::digits10
PUBLIC	?is_signed@?$numeric_limits@I@std@@2_NB		; std::numeric_limits<unsigned int>::is_signed
PUBLIC	?digits@?$numeric_limits@I@std@@2HB		; std::numeric_limits<unsigned int>::digits
PUBLIC	?digits10@?$numeric_limits@I@std@@2HB		; std::numeric_limits<unsigned int>::digits10
PUBLIC	?is_signed@?$numeric_limits@J@std@@2_NB		; std::numeric_limits<long>::is_signed
PUBLIC	?digits@?$numeric_limits@J@std@@2HB		; std::numeric_limits<long>::digits
PUBLIC	?digits10@?$numeric_limits@J@std@@2HB		; std::numeric_limits<long>::digits10
PUBLIC	?table_size@?$ctype@D@std@@2IB			; std::ctype<char>::table_size
PUBLIC	?is_signed@?$numeric_limits@K@std@@2_NB		; std::numeric_limits<unsigned long>::is_signed
PUBLIC	?digits@?$numeric_limits@K@std@@2HB		; std::numeric_limits<unsigned long>::digits
PUBLIC	?digits10@?$numeric_limits@K@std@@2HB		; std::numeric_limits<unsigned long>::digits10
PUBLIC	?JoyEffectPlaying@@3_NA				; JoyEffectPlaying
PUBLIC	?is_signed@?$numeric_limits@_J@std@@2_NB	; std::numeric_limits<__int64>::is_signed
PUBLIC	?digits@?$numeric_limits@_J@std@@2HB		; std::numeric_limits<__int64>::digits
PUBLIC	?digits10@?$numeric_limits@_J@std@@2HB		; std::numeric_limits<__int64>::digits10
PUBLIC	?KeyVar@@3UKeyVars@@A				; KeyVar
PUBLIC	?is_signed@?$numeric_limits@_K@std@@2_NB	; std::numeric_limits<unsigned __int64>::is_signed
PUBLIC	?digits@?$numeric_limits@_K@std@@2HB		; std::numeric_limits<unsigned __int64>::digits
PUBLIC	?UndisplayedKeys@@3PAUKeyMap@@A			; UndisplayedKeys
PUBLIC	?NumUndispKeys@@3HA				; NumUndispKeys
PUBLIC	?NumDispKeys@@3HA				; NumDispKeys
PUBLIC	?digits10@?$numeric_limits@_K@std@@2HB		; std::numeric_limits<unsigned __int64>::digits10
PUBLIC	?InitializeValueBars@@3HA			; InitializeValueBars
PUBLIC	?digits@?$numeric_limits@M@std@@2HB		; std::numeric_limits<float>::digits
PUBLIC	?digits10@?$numeric_limits@M@std@@2HB		; std::numeric_limits<float>::digits10
PUBLIC	?max_digits10@?$numeric_limits@M@std@@2HB	; std::numeric_limits<float>::max_digits10
PUBLIC	?max_exponent@?$numeric_limits@M@std@@2HB	; std::numeric_limits<float>::max_exponent
PUBLIC	?max_exponent10@?$numeric_limits@M@std@@2HB	; std::numeric_limits<float>::max_exponent10
PUBLIC	?min_exponent@?$numeric_limits@M@std@@2HB	; std::numeric_limits<float>::min_exponent
PUBLIC	?min_exponent10@?$numeric_limits@M@std@@2HB	; std::numeric_limits<float>::min_exponent10
PUBLIC	?value@?$integral_constant@I$0A@@std@@2IB	; std::integral_constant<unsigned int,0>::value
PUBLIC	?digits@?$numeric_limits@N@std@@2HB		; std::numeric_limits<double>::digits
PUBLIC	?digits10@?$numeric_limits@N@std@@2HB		; std::numeric_limits<double>::digits10
PUBLIC	?max_digits10@?$numeric_limits@N@std@@2HB	; std::numeric_limits<double>::max_digits10
PUBLIC	?max_exponent@?$numeric_limits@N@std@@2HB	; std::numeric_limits<double>::max_exponent
PUBLIC	?max_exponent10@?$numeric_limits@N@std@@2HB	; std::numeric_limits<double>::max_exponent10
PUBLIC	?min_exponent@?$numeric_limits@N@std@@2HB	; std::numeric_limits<double>::min_exponent
PUBLIC	?min_exponent10@?$numeric_limits@N@std@@2HB	; std::numeric_limits<double>::min_exponent10
PUBLIC	?digits@?$numeric_limits@O@std@@2HB		; std::numeric_limits<long double>::digits
PUBLIC	?digits10@?$numeric_limits@O@std@@2HB		; std::numeric_limits<long double>::digits10
PUBLIC	?max_digits10@?$numeric_limits@O@std@@2HB	; std::numeric_limits<long double>::max_digits10
PUBLIC	?max_exponent@?$numeric_limits@O@std@@2HB	; std::numeric_limits<long double>::max_exponent
PUBLIC	?max_exponent10@?$numeric_limits@O@std@@2HB	; std::numeric_limits<long double>::max_exponent10
PUBLIC	?min_exponent@?$numeric_limits@O@std@@2HB	; std::numeric_limits<long double>::min_exponent
PUBLIC	?min_exponent10@?$numeric_limits@O@std@@2HB	; std::numeric_limits<long double>::min_exponent10
PUBLIC	?UIInputStuff@@3PAUUIInputStuff_t@@A		; UIInputStuff
PUBLIC	?value@?$_Sizeof@U_Nil@std@@U12@U12@U12@U12@U12@U12@U12@@std@@2IB ; std::_Sizeof<std::_Nil,std::_Nil,std::_Nil,std::_Nil,std::_Nil,std::_Nil,std::_Nil,std::_Nil>::value
PUBLIC	?has_denorm@_Num_base@std@@2W4float_denorm_style@2@B ; std::_Num_base::has_denorm
PUBLIC	?skipws@?$_Iosb@H@std@@2W4_Fmtflags@12@B	; std::_Iosb<int>::skipws
PUBLIC	?has_denorm_loss@_Num_base@std@@2_NB		; std::_Num_base::has_denorm_loss
PUBLIC	?unitbuf@?$_Iosb@H@std@@2W4_Fmtflags@12@B	; std::_Iosb<int>::unitbuf
PUBLIC	?has_infinity@_Num_base@std@@2_NB		; std::_Num_base::has_infinity
PUBLIC	?uppercase@?$_Iosb@H@std@@2W4_Fmtflags@12@B	; std::_Iosb<int>::uppercase
PUBLIC	?has_quiet_NaN@_Num_base@std@@2_NB		; std::_Num_base::has_quiet_NaN
PUBLIC	?showbase@?$_Iosb@H@std@@2W4_Fmtflags@12@B	; std::_Iosb<int>::showbase
PUBLIC	?has_signaling_NaN@_Num_base@std@@2_NB		; std::_Num_base::has_signaling_NaN
PUBLIC	?showpoint@?$_Iosb@H@std@@2W4_Fmtflags@12@B	; std::_Iosb<int>::showpoint
PUBLIC	?is_bounded@_Num_base@std@@2_NB			; std::_Num_base::is_bounded
PUBLIC	?showpos@?$_Iosb@H@std@@2W4_Fmtflags@12@B	; std::_Iosb<int>::showpos
PUBLIC	?is_exact@_Num_base@std@@2_NB			; std::_Num_base::is_exact
PUBLIC	?left@?$_Iosb@H@std@@2W4_Fmtflags@12@B		; std::_Iosb<int>::left
PUBLIC	?is_iec559@_Num_base@std@@2_NB			; std::_Num_base::is_iec559
PUBLIC	?right@?$_Iosb@H@std@@2W4_Fmtflags@12@B		; std::_Iosb<int>::right
PUBLIC	?is_integer@_Num_base@std@@2_NB			; std::_Num_base::is_integer
PUBLIC	?internal@?$_Iosb@H@std@@2W4_Fmtflags@12@B	; std::_Iosb<int>::internal
PUBLIC	?is_modulo@_Num_base@std@@2_NB			; std::_Num_base::is_modulo
PUBLIC	?dec@?$_Iosb@H@std@@2W4_Fmtflags@12@B		; std::_Iosb<int>::dec
PUBLIC	?is_signed@_Num_base@std@@2_NB			; std::_Num_base::is_signed
PUBLIC	?oct@?$_Iosb@H@std@@2W4_Fmtflags@12@B		; std::_Iosb<int>::oct
PUBLIC	?is_specialized@_Num_base@std@@2_NB		; std::_Num_base::is_specialized
PUBLIC	?hex@?$_Iosb@H@std@@2W4_Fmtflags@12@B		; std::_Iosb<int>::hex
PUBLIC	?tinyness_before@_Num_base@std@@2_NB		; std::_Num_base::tinyness_before
PUBLIC	?scientific@?$_Iosb@H@std@@2W4_Fmtflags@12@B	; std::_Iosb<int>::scientific
EXTRN	?AxisMap@@3UAxisMapping@@A:BYTE			; AxisMap
_BSS	SEGMENT
?JoyEffectPlaying@@3_NA DB 01H DUP (?)			; JoyEffectPlaying
	ALIGN	4

?KeyVar@@3UKeyVars@@A DB 01cH DUP (?)			; KeyVar
?UndisplayedKeys@@3PAUKeyMap@@A DB 015630H DUP (?)	; UndisplayedKeys
?NumUndispKeys@@3HA DD 01H DUP (?)			; NumUndispKeys
?NumDispKeys@@3HA DD 01H DUP (?)			; NumDispKeys
_BSS	ENDS
;	COMDAT ?scientific@?$_Iosb@H@std@@2W4_Fmtflags@12@B
CONST	SEGMENT
?scientific@?$_Iosb@H@std@@2W4_Fmtflags@12@B DD 01000H	; std::_Iosb<int>::scientific
CONST	ENDS
;	COMDAT ?tinyness_before@_Num_base@std@@2_NB
CONST	SEGMENT
?tinyness_before@_Num_base@std@@2_NB DB 00H		; std::_Num_base::tinyness_before
CONST	ENDS
;	COMDAT ?hex@?$_Iosb@H@std@@2W4_Fmtflags@12@B
CONST	SEGMENT
?hex@?$_Iosb@H@std@@2W4_Fmtflags@12@B DD 0800H		; std::_Iosb<int>::hex
CONST	ENDS
;	COMDAT ?is_specialized@_Num_base@std@@2_NB
CONST	SEGMENT
?is_specialized@_Num_base@std@@2_NB DB 00H		; std::_Num_base::is_specialized
CONST	ENDS
;	COMDAT ?oct@?$_Iosb@H@std@@2W4_Fmtflags@12@B
CONST	SEGMENT
?oct@?$_Iosb@H@std@@2W4_Fmtflags@12@B DD 0400H		; std::_Iosb<int>::oct
CONST	ENDS
;	COMDAT ?is_signed@_Num_base@std@@2_NB
CONST	SEGMENT
?is_signed@_Num_base@std@@2_NB DB 00H			; std::_Num_base::is_signed
CONST	ENDS
;	COMDAT ?dec@?$_Iosb@H@std@@2W4_Fmtflags@12@B
CONST	SEGMENT
?dec@?$_Iosb@H@std@@2W4_Fmtflags@12@B DD 0200H		; std::_Iosb<int>::dec
CONST	ENDS
;	COMDAT ?is_modulo@_Num_base@std@@2_NB
CONST	SEGMENT
?is_modulo@_Num_base@std@@2_NB DB 00H			; std::_Num_base::is_modulo
CONST	ENDS
;	COMDAT ?internal@?$_Iosb@H@std@@2W4_Fmtflags@12@B
CONST	SEGMENT
?internal@?$_Iosb@H@std@@2W4_Fmtflags@12@B DD 0100H	; std::_Iosb<int>::internal
CONST	ENDS
;	COMDAT ?is_integer@_Num_base@std@@2_NB
CONST	SEGMENT
?is_integer@_Num_base@std@@2_NB DB 00H			; std::_Num_base::is_integer
CONST	ENDS
;	COMDAT ?right@?$_Iosb@H@std@@2W4_Fmtflags@12@B
CONST	SEGMENT
?right@?$_Iosb@H@std@@2W4_Fmtflags@12@B DD 080H		; std::_Iosb<int>::right
CONST	ENDS
;	COMDAT ?is_iec559@_Num_base@std@@2_NB
CONST	SEGMENT
?is_iec559@_Num_base@std@@2_NB DB 00H			; std::_Num_base::is_iec559
CONST	ENDS
;	COMDAT ?left@?$_Iosb@H@std@@2W4_Fmtflags@12@B
CONST	SEGMENT
?left@?$_Iosb@H@std@@2W4_Fmtflags@12@B DD 040H		; std::_Iosb<int>::left
CONST	ENDS
;	COMDAT ?is_exact@_Num_base@std@@2_NB
CONST	SEGMENT
?is_exact@_Num_base@std@@2_NB DB 00H			; std::_Num_base::is_exact
CONST	ENDS
;	COMDAT ?showpos@?$_Iosb@H@std@@2W4_Fmtflags@12@B
CONST	SEGMENT
?showpos@?$_Iosb@H@std@@2W4_Fmtflags@12@B DD 020H	; std::_Iosb<int>::showpos
CONST	ENDS
;	COMDAT ?is_bounded@_Num_base@std@@2_NB
CONST	SEGMENT
?is_bounded@_Num_base@std@@2_NB DB 00H			; std::_Num_base::is_bounded
CONST	ENDS
;	COMDAT ?showpoint@?$_Iosb@H@std@@2W4_Fmtflags@12@B
CONST	SEGMENT
?showpoint@?$_Iosb@H@std@@2W4_Fmtflags@12@B DD 010H	; std::_Iosb<int>::showpoint
CONST	ENDS
;	COMDAT ?has_signaling_NaN@_Num_base@std@@2_NB
CONST	SEGMENT
?has_signaling_NaN@_Num_base@std@@2_NB DB 00H		; std::_Num_base::has_signaling_NaN
CONST	ENDS
;	COMDAT ?showbase@?$_Iosb@H@std@@2W4_Fmtflags@12@B
CONST	SEGMENT
?showbase@?$_Iosb@H@std@@2W4_Fmtflags@12@B DD 08H	; std::_Iosb<int>::showbase
CONST	ENDS
;	COMDAT ?has_quiet_NaN@_Num_base@std@@2_NB
CONST	SEGMENT
?has_quiet_NaN@_Num_base@std@@2_NB DB 00H		; std::_Num_base::has_quiet_NaN
CONST	ENDS
;	COMDAT ?uppercase@?$_Iosb@H@std@@2W4_Fmtflags@12@B
CONST	SEGMENT
?uppercase@?$_Iosb@H@std@@2W4_Fmtflags@12@B DD 04H	; std::_Iosb<int>::uppercase
CONST	ENDS
;	COMDAT ?has_infinity@_Num_base@std@@2_NB
CONST	SEGMENT
?has_infinity@_Num_base@std@@2_NB DB 00H		; std::_Num_base::has_infinity
CONST	ENDS
;	COMDAT ?unitbuf@?$_Iosb@H@std@@2W4_Fmtflags@12@B
CONST	SEGMENT
?unitbuf@?$_Iosb@H@std@@2W4_Fmtflags@12@B DD 02H	; std::_Iosb<int>::unitbuf
CONST	ENDS
;	COMDAT ?has_denorm_loss@_Num_base@std@@2_NB
CONST	SEGMENT
?has_denorm_loss@_Num_base@std@@2_NB DB 00H		; std::_Num_base::has_denorm_loss
CONST	ENDS
;	COMDAT ?skipws@?$_Iosb@H@std@@2W4_Fmtflags@12@B
CONST	SEGMENT
?skipws@?$_Iosb@H@std@@2W4_Fmtflags@12@B DD 01H		; std::_Iosb<int>::skipws
CONST	ENDS
;	COMDAT ?has_denorm@_Num_base@std@@2W4float_denorm_style@2@B
CONST	SEGMENT
?has_denorm@_Num_base@std@@2W4float_denorm_style@2@B DD 00H ; std::_Num_base::has_denorm
CONST	ENDS
;	COMDAT ?value@?$_Sizeof@U_Nil@std@@U12@U12@U12@U12@U12@U12@U12@@std@@2IB
CONST	SEGMENT
?value@?$_Sizeof@U_Nil@std@@U12@U12@U12@U12@U12@U12@U12@@std@@2IB DD 00H ; std::_Sizeof<std::_Nil,std::_Nil,std::_Nil,std::_Nil,std::_Nil,std::_Nil,std::_Nil,std::_Nil>::value
CONST	ENDS
;	COMDAT ?min_exponent10@?$numeric_limits@O@std@@2HB
CONST	SEGMENT
?min_exponent10@?$numeric_limits@O@std@@2HB DD 0fffffecdH ; std::numeric_limits<long double>::min_exponent10
CONST	ENDS
;	COMDAT ?min_exponent@?$numeric_limits@O@std@@2HB
CONST	SEGMENT
?min_exponent@?$numeric_limits@O@std@@2HB DD 0fffffc03H	; std::numeric_limits<long double>::min_exponent
CONST	ENDS
;	COMDAT ?max_exponent10@?$numeric_limits@O@std@@2HB
CONST	SEGMENT
?max_exponent10@?$numeric_limits@O@std@@2HB DD 0134H	; std::numeric_limits<long double>::max_exponent10
CONST	ENDS
;	COMDAT ?max_exponent@?$numeric_limits@O@std@@2HB
CONST	SEGMENT
?max_exponent@?$numeric_limits@O@std@@2HB DD 0400H	; std::numeric_limits<long double>::max_exponent
CONST	ENDS
;	COMDAT ?max_digits10@?$numeric_limits@O@std@@2HB
CONST	SEGMENT
?max_digits10@?$numeric_limits@O@std@@2HB DD 011H	; std::numeric_limits<long double>::max_digits10
CONST	ENDS
;	COMDAT ?digits10@?$numeric_limits@O@std@@2HB
CONST	SEGMENT
?digits10@?$numeric_limits@O@std@@2HB DD 0fH		; std::numeric_limits<long double>::digits10
CONST	ENDS
;	COMDAT ?digits@?$numeric_limits@O@std@@2HB
CONST	SEGMENT
?digits@?$numeric_limits@O@std@@2HB DD 035H		; std::numeric_limits<long double>::digits
CONST	ENDS
;	COMDAT ?min_exponent10@?$numeric_limits@N@std@@2HB
CONST	SEGMENT
?min_exponent10@?$numeric_limits@N@std@@2HB DD 0fffffecdH ; std::numeric_limits<double>::min_exponent10
CONST	ENDS
;	COMDAT ?min_exponent@?$numeric_limits@N@std@@2HB
CONST	SEGMENT
?min_exponent@?$numeric_limits@N@std@@2HB DD 0fffffc03H	; std::numeric_limits<double>::min_exponent
CONST	ENDS
;	COMDAT ?max_exponent10@?$numeric_limits@N@std@@2HB
CONST	SEGMENT
?max_exponent10@?$numeric_limits@N@std@@2HB DD 0134H	; std::numeric_limits<double>::max_exponent10
CONST	ENDS
;	COMDAT ?max_exponent@?$numeric_limits@N@std@@2HB
CONST	SEGMENT
?max_exponent@?$numeric_limits@N@std@@2HB DD 0400H	; std::numeric_limits<double>::max_exponent
CONST	ENDS
;	COMDAT ?max_digits10@?$numeric_limits@N@std@@2HB
CONST	SEGMENT
?max_digits10@?$numeric_limits@N@std@@2HB DD 011H	; std::numeric_limits<double>::max_digits10
CONST	ENDS
;	COMDAT ?digits10@?$numeric_limits@N@std@@2HB
CONST	SEGMENT
?digits10@?$numeric_limits@N@std@@2HB DD 0fH		; std::numeric_limits<double>::digits10
CONST	ENDS
;	COMDAT ?digits@?$numeric_limits@N@std@@2HB
CONST	SEGMENT
?digits@?$numeric_limits@N@std@@2HB DD 035H		; std::numeric_limits<double>::digits
CONST	ENDS
;	COMDAT ?value@?$integral_constant@I$0A@@std@@2IB
CONST	SEGMENT
?value@?$integral_constant@I$0A@@std@@2IB DD 00H	; std::integral_constant<unsigned int,0>::value
CONST	ENDS
;	COMDAT ?min_exponent10@?$numeric_limits@M@std@@2HB
CONST	SEGMENT
?min_exponent10@?$numeric_limits@M@std@@2HB DD 0ffffffdbH ; std::numeric_limits<float>::min_exponent10
CONST	ENDS
;	COMDAT ?min_exponent@?$numeric_limits@M@std@@2HB
CONST	SEGMENT
?min_exponent@?$numeric_limits@M@std@@2HB DD 0ffffff83H	; std::numeric_limits<float>::min_exponent
CONST	ENDS
;	COMDAT ?max_exponent10@?$numeric_limits@M@std@@2HB
CONST	SEGMENT
?max_exponent10@?$numeric_limits@M@std@@2HB DD 026H	; std::numeric_limits<float>::max_exponent10
CONST	ENDS
;	COMDAT ?max_exponent@?$numeric_limits@M@std@@2HB
CONST	SEGMENT
?max_exponent@?$numeric_limits@M@std@@2HB DD 080H	; std::numeric_limits<float>::max_exponent
CONST	ENDS
;	COMDAT ?max_digits10@?$numeric_limits@M@std@@2HB
CONST	SEGMENT
?max_digits10@?$numeric_limits@M@std@@2HB DD 09H	; std::numeric_limits<float>::max_digits10
CONST	ENDS
;	COMDAT ?digits10@?$numeric_limits@M@std@@2HB
CONST	SEGMENT
?digits10@?$numeric_limits@M@std@@2HB DD 06H		; std::numeric_limits<float>::digits10
CONST	ENDS
;	COMDAT ?digits@?$numeric_limits@M@std@@2HB
CONST	SEGMENT
?digits@?$numeric_limits@M@std@@2HB DD 018H		; std::numeric_limits<float>::digits
CONST	ENDS
_DATA	SEGMENT
?InitializeValueBars@@3HA DD 01H			; InitializeValueBars
	ORG $+4
?UIInputStuff@@3PAUUIInputStuff_t@@A DD 00H		; UIInputStuff
	DD	00H
	DD	0112c8H
	DD	01125aH
	DD	01128cH
	DD	00H
	DD	FLAT:?AxisMap@@3UAxisMapping@@A+24
	DD	01H
	DD	00H
	DD	0112c9H
	DD	01125bH
	DD	01128dH
	DD	00H
	DD	FLAT:?AxisMap@@3UAxisMapping@@A+40
	DD	09H
	DD	011250H
	DD	0112bbH
	DD	00H
	DD	011294H
	DD	011263H
	DD	FLAT:?AxisMap@@3UAxisMapping@@A+136
	DD	02H
	DD	011252H
	DD	0112b6H
	DD	011259H
	DD	01128eH
	DD	01125eH
	DD	FLAT:?AxisMap@@3UAxisMapping@@A+56
	DD	03H
	DD	011253H
	DD	0112b4H
	DD	00H
	DD	01128fH
	DD	00H
	DD	FLAT:?AxisMap@@3UAxisMapping@@A+72
	DD	04H
	DD	01127fH
	DD	0112b5H
	DD	00H
	DD	0112a0H
	DD	00H
	DD	FLAT:?AxisMap@@3UAxisMapping@@A+88
	DD	07H
	DD	011251H
	DD	0112b7H
	DD	011257H
	DD	011291H
	DD	011261H
	DD	FLAT:?AxisMap@@3UAxisMapping@@A+184
	DD	05H
	DD	01124eH
	DD	0112b8H
	DD	011256H
	DD	011290H
	DD	011260H
	DD	FLAT:?AxisMap@@3UAxisMapping@@A+152
	DD	06H
	DD	01124fH
	DD	0112b9H
	DD	011258H
	DD	011292H
	DD	011262H
	DD	FLAT:?AxisMap@@3UAxisMapping@@A+168
	DD	08H
	DD	01127bH
	DD	0112baH
	DD	00H
	DD	011293H
	DD	01127dH
	DD	FLAT:?AxisMap@@3UAxisMapping@@A+104
	DD	0aH
	DD	01125cH
	DD	0112bdH
	DD	01125dH
	DD	011295H
	DD	011264H
	DD	FLAT:?AxisMap@@3UAxisMapping@@A+200
	DD	0bH
	DD	011269H
	DD	0112beH
	DD	011285H
	DD	011296H
	DD	011272H
	DD	FLAT:?AxisMap@@3UAxisMapping@@A+232
	DD	0cH
	DD	01126aH
	DD	0112bfH
	DD	011286H
	DD	011297H
	DD	011273H
	DD	FLAT:?AxisMap@@3UAxisMapping@@A+248
	DD	0dH
	DD	01126bH
	DD	0112c0H
	DD	011287H
	DD	011298H
	DD	011274H
	DD	FLAT:?AxisMap@@3UAxisMapping@@A+216
	DD	0eH
	DD	01126cH
	DD	0112c1H
	DD	00H
	DD	011299H
	DD	011275H
	DD	FLAT:?AxisMap@@3UAxisMapping@@A+264
	DD	0fH
	DD	01126dH
	DD	0112c2H
	DD	00H
	DD	01129aH
	DD	011276H
	DD	FLAT:?AxisMap@@3UAxisMapping@@A+280
	DD	010H
	DD	01126eH
	DD	0112c3H
	DD	00H
	DD	01129bH
	DD	011277H
	DD	FLAT:?AxisMap@@3UAxisMapping@@A+296
	DD	011H
	DD	01126fH
	DD	0112c4H
	DD	00H
	DD	01129cH
	DD	011278H
	DD	FLAT:?AxisMap@@3UAxisMapping@@A+312
	DD	012H
	DD	011270H
	DD	0112c5H
	DD	00H
	DD	01129dH
	DD	011279H
	DD	FLAT:?AxisMap@@3UAxisMapping@@A+344
	DD	013H
	DD	011271H
	DD	0112c6H
	DD	00H
	DD	01129eH
	DD	01127aH
	DD	FLAT:?AxisMap@@3UAxisMapping@@A+360
	DD	014H
	DD	0112a2H
	DD	0112bcH
	DD	00H
	DD	0112a3H
	DD	0112a4H
	DD	FLAT:?AxisMap@@3UAxisMapping@@A+376
	DD	015H
	DD	0112b0H
	DD	0112c7H
	DD	00H
	DD	0112b1H
	DD	0112b2H
	DD	FLAT:?AxisMap@@3UAxisMapping@@A+328
_DATA	ENDS
;	COMDAT ?digits10@?$numeric_limits@_K@std@@2HB
CONST	SEGMENT
?digits10@?$numeric_limits@_K@std@@2HB DD 013H		; std::numeric_limits<unsigned __int64>::digits10
CONST	ENDS
;	COMDAT ?digits@?$numeric_limits@_K@std@@2HB
CONST	SEGMENT
?digits@?$numeric_limits@_K@std@@2HB DD 040H		; std::numeric_limits<unsigned __int64>::digits
CONST	ENDS
;	COMDAT ?is_signed@?$numeric_limits@_K@std@@2_NB
CONST	SEGMENT
?is_signed@?$numeric_limits@_K@std@@2_NB DB 00H		; std::numeric_limits<unsigned __int64>::is_signed
CONST	ENDS
;	COMDAT ?digits10@?$numeric_limits@_J@std@@2HB
CONST	SEGMENT
?digits10@?$numeric_limits@_J@std@@2HB DD 012H		; std::numeric_limits<__int64>::digits10
CONST	ENDS
;	COMDAT ?digits@?$numeric_limits@_J@std@@2HB
CONST	SEGMENT
?digits@?$numeric_limits@_J@std@@2HB DD 03fH		; std::numeric_limits<__int64>::digits
CONST	ENDS
;	COMDAT ?is_signed@?$numeric_limits@_J@std@@2_NB
CONST	SEGMENT
?is_signed@?$numeric_limits@_J@std@@2_NB DB 01H		; std::numeric_limits<__int64>::is_signed
CONST	ENDS
;	COMDAT ?digits10@?$numeric_limits@K@std@@2HB
CONST	SEGMENT
?digits10@?$numeric_limits@K@std@@2HB DD 09H		; std::numeric_limits<unsigned long>::digits10
CONST	ENDS
;	COMDAT ?digits@?$numeric_limits@K@std@@2HB
CONST	SEGMENT
?digits@?$numeric_limits@K@std@@2HB DD 020H		; std::numeric_limits<unsigned long>::digits
CONST	ENDS
;	COMDAT ?is_signed@?$numeric_limits@K@std@@2_NB
CONST	SEGMENT
?is_signed@?$numeric_limits@K@std@@2_NB DB 00H		; std::numeric_limits<unsigned long>::is_signed
CONST	ENDS
;	COMDAT ?table_size@?$ctype@D@std@@2IB
CONST	SEGMENT
?table_size@?$ctype@D@std@@2IB DD 0100H			; std::ctype<char>::table_size
CONST	ENDS
;	COMDAT ?digits10@?$numeric_limits@J@std@@2HB
CONST	SEGMENT
?digits10@?$numeric_limits@J@std@@2HB DD 09H		; std::numeric_limits<long>::digits10
CONST	ENDS
;	COMDAT ?digits@?$numeric_limits@J@std@@2HB
CONST	SEGMENT
?digits@?$numeric_limits@J@std@@2HB DD 01fH		; std::numeric_limits<long>::digits
CONST	ENDS
;	COMDAT ?is_signed@?$numeric_limits@J@std@@2_NB
CONST	SEGMENT
?is_signed@?$numeric_limits@J@std@@2_NB DB 01H		; std::numeric_limits<long>::is_signed
CONST	ENDS
;	COMDAT ?digits10@?$numeric_limits@I@std@@2HB
CONST	SEGMENT
?digits10@?$numeric_limits@I@std@@2HB DD 09H		; std::numeric_limits<unsigned int>::digits10
CONST	ENDS
;	COMDAT ?digits@?$numeric_limits@I@std@@2HB
CONST	SEGMENT
?digits@?$numeric_limits@I@std@@2HB DD 020H		; std::numeric_limits<unsigned int>::digits
CONST	ENDS
;	COMDAT ?is_signed@?$numeric_limits@I@std@@2_NB
CONST	SEGMENT
?is_signed@?$numeric_limits@I@std@@2_NB DB 00H		; std::numeric_limits<unsigned int>::is_signed
CONST	ENDS
;	COMDAT ?digits10@?$numeric_limits@H@std@@2HB
CONST	SEGMENT
?digits10@?$numeric_limits@H@std@@2HB DD 09H		; std::numeric_limits<int>::digits10
CONST	ENDS
;	COMDAT ?digits@?$numeric_limits@H@std@@2HB
CONST	SEGMENT
?digits@?$numeric_limits@H@std@@2HB DD 01fH		; std::numeric_limits<int>::digits
CONST	ENDS
;	COMDAT ?value@?$_Sizeof@HU_Nil@std@@U12@U12@U12@U12@U12@U12@@std@@2IB
CONST	SEGMENT
?value@?$_Sizeof@HU_Nil@std@@U12@U12@U12@U12@U12@U12@@std@@2IB DD 01H ; std::_Sizeof<int,std::_Nil,std::_Nil,std::_Nil,std::_Nil,std::_Nil,std::_Nil,std::_Nil>::value
CONST	ENDS
;	COMDAT ?is_signed@?$numeric_limits@H@std@@2_NB
CONST	SEGMENT
?is_signed@?$numeric_limits@H@std@@2_NB DB 01H		; std::numeric_limits<int>::is_signed
CONST	ENDS
;	COMDAT ?none@?$_Locbase@H@std@@2HB
CONST	SEGMENT
?none@?$_Locbase@H@std@@2HB DD 00H			; std::_Locbase<int>::none
CONST	ENDS
;	COMDAT ?all@?$_Locbase@H@std@@2HB
CONST	SEGMENT
?all@?$_Locbase@H@std@@2HB DD 03fH			; std::_Locbase<int>::all
CONST	ENDS
;	COMDAT ?messages@?$_Locbase@H@std@@2HB
CONST	SEGMENT
?messages@?$_Locbase@H@std@@2HB DD 020H			; std::_Locbase<int>::messages
CONST	ENDS
;	COMDAT ?time@?$_Locbase@H@std@@2HB
CONST	SEGMENT
?time@?$_Locbase@H@std@@2HB DD 010H			; std::_Locbase<int>::time
CONST	ENDS
;	COMDAT ?numeric@?$_Locbase@H@std@@2HB
CONST	SEGMENT
?numeric@?$_Locbase@H@std@@2HB DD 08H			; std::_Locbase<int>::numeric
CONST	ENDS
;	COMDAT ?monetary@?$_Locbase@H@std@@2HB
CONST	SEGMENT
?monetary@?$_Locbase@H@std@@2HB DD 04H			; std::_Locbase<int>::monetary
CONST	ENDS
;	COMDAT ?ctype@?$_Locbase@H@std@@2HB
CONST	SEGMENT
?ctype@?$_Locbase@H@std@@2HB DD 02H			; std::_Locbase<int>::ctype
CONST	ENDS
;	COMDAT ?collate@?$_Locbase@H@std@@2HB
CONST	SEGMENT
?collate@?$_Locbase@H@std@@2HB DD 01H			; std::_Locbase<int>::collate
CONST	ENDS
;	COMDAT ?digits10@?$numeric_limits@G@std@@2HB
CONST	SEGMENT
?digits10@?$numeric_limits@G@std@@2HB DD 04H		; std::numeric_limits<unsigned short>::digits10
CONST	ENDS
;	COMDAT ?digits@?$numeric_limits@G@std@@2HB
CONST	SEGMENT
?digits@?$numeric_limits@G@std@@2HB DD 010H		; std::numeric_limits<unsigned short>::digits
CONST	ENDS
;	COMDAT ?is_signed@?$numeric_limits@G@std@@2_NB
CONST	SEGMENT
?is_signed@?$numeric_limits@G@std@@2_NB DB 00H		; std::numeric_limits<unsigned short>::is_signed
CONST	ENDS
;	COMDAT ?digits10@?$numeric_limits@F@std@@2HB
CONST	SEGMENT
?digits10@?$numeric_limits@F@std@@2HB DD 04H		; std::numeric_limits<short>::digits10
CONST	ENDS
;	COMDAT ?digits@?$numeric_limits@F@std@@2HB
CONST	SEGMENT
?digits@?$numeric_limits@F@std@@2HB DD 0fH		; std::numeric_limits<short>::digits
CONST	ENDS
;	COMDAT ?is_signed@?$numeric_limits@F@std@@2_NB
CONST	SEGMENT
?is_signed@?$numeric_limits@F@std@@2_NB DB 01H		; std::numeric_limits<short>::is_signed
CONST	ENDS
;	COMDAT ?value@?$integral_constant@_N$00@std@@2_NB
CONST	SEGMENT
?value@?$integral_constant@_N$00@std@@2_NB DB 01H	; std::integral_constant<bool,1>::value
CONST	ENDS
;	COMDAT ?digits10@?$numeric_limits@E@std@@2HB
CONST	SEGMENT
?digits10@?$numeric_limits@E@std@@2HB DD 02H		; std::numeric_limits<unsigned char>::digits10
CONST	ENDS
;	COMDAT ?digits@?$numeric_limits@E@std@@2HB
CONST	SEGMENT
?digits@?$numeric_limits@E@std@@2HB DD 08H		; std::numeric_limits<unsigned char>::digits
CONST	ENDS
;	COMDAT ?value@?$integral_constant@_N$0A@@std@@2_NB
CONST	SEGMENT
?value@?$integral_constant@_N$0A@@std@@2_NB DB 00H	; std::integral_constant<bool,0>::value
CONST	ENDS
;	COMDAT ?is_signed@?$numeric_limits@E@std@@2_NB
CONST	SEGMENT
?is_signed@?$numeric_limits@E@std@@2_NB DB 00H		; std::numeric_limits<unsigned char>::is_signed
CONST	ENDS
;	COMDAT ?digits10@?$numeric_limits@C@std@@2HB
CONST	SEGMENT
?digits10@?$numeric_limits@C@std@@2HB DD 02H		; std::numeric_limits<signed char>::digits10
CONST	ENDS
;	COMDAT ?digits@?$numeric_limits@C@std@@2HB
CONST	SEGMENT
?digits@?$numeric_limits@C@std@@2HB DD 07H		; std::numeric_limits<signed char>::digits
CONST	ENDS
;	COMDAT ?is_signed@?$numeric_limits@C@std@@2_NB
CONST	SEGMENT
?is_signed@?$numeric_limits@C@std@@2_NB DB 01H		; std::numeric_limits<signed char>::is_signed
CONST	ENDS
CONST	SEGMENT
_L_2	DD	03f317218r			; 0.693147
CONST	ENDS
;	COMDAT ?digits10@?$numeric_limits@_N@std@@2HB
CONST	SEGMENT
?digits10@?$numeric_limits@_N@std@@2HB DD 00H		; std::numeric_limits<bool>::digits10
CONST	ENDS
;	COMDAT ?digits@?$numeric_limits@_N@std@@2HB
CONST	SEGMENT
?digits@?$numeric_limits@_N@std@@2HB DD 01H		; std::numeric_limits<bool>::digits
CONST	ENDS
;	COMDAT ?is_signed@?$numeric_limits@_N@std@@2_NB
CONST	SEGMENT
?is_signed@?$numeric_limits@_N@std@@2_NB DB 00H		; std::numeric_limits<bool>::is_signed
CONST	ENDS
;	COMDAT ?is_modulo@?$numeric_limits@_N@std@@2_NB
CONST	SEGMENT
?is_modulo@?$numeric_limits@_N@std@@2_NB DB 00H		; std::numeric_limits<bool>::is_modulo
CONST	ENDS
;	COMDAT ?digits10@?$numeric_limits@_W@std@@2HB
CONST	SEGMENT
?digits10@?$numeric_limits@_W@std@@2HB DD 04H		; std::numeric_limits<wchar_t>::digits10
CONST	ENDS
;	COMDAT ?digits@?$numeric_limits@_W@std@@2HB
CONST	SEGMENT
?digits@?$numeric_limits@_W@std@@2HB DD 010H		; std::numeric_limits<wchar_t>::digits
CONST	ENDS
;	COMDAT ?is_signed@?$numeric_limits@_W@std@@2_NB
CONST	SEGMENT
?is_signed@?$numeric_limits@_W@std@@2_NB DB 00H		; std::numeric_limits<wchar_t>::is_signed
CONST	ENDS
;	COMDAT ?digits10@?$numeric_limits@D@std@@2HB
CONST	SEGMENT
?digits10@?$numeric_limits@D@std@@2HB DD 02H		; std::numeric_limits<char>::digits10
CONST	ENDS
;	COMDAT ?digits@?$numeric_limits@D@std@@2HB
CONST	SEGMENT
?digits@?$numeric_limits@D@std@@2HB DD 07H		; std::numeric_limits<char>::digits
CONST	ENDS
;	COMDAT ?is_signed@?$numeric_limits@D@std@@2_NB
CONST	SEGMENT
?is_signed@?$numeric_limits@D@std@@2_NB DB 01H		; std::numeric_limits<char>::is_signed
CONST	ENDS
;	COMDAT ?radix@_Num_float_base@std@@2HB
CONST	SEGMENT
?radix@_Num_float_base@std@@2HB DD 02H			; std::_Num_float_base::radix
CONST	ENDS
;	COMDAT ?round_style@_Num_float_base@std@@2W4float_round_style@2@B
CONST	SEGMENT
?round_style@_Num_float_base@std@@2W4float_round_style@2@B DD 01H ; std::_Num_float_base::round_style
CONST	ENDS
;	COMDAT ?traps@_Num_float_base@std@@2_NB
CONST	SEGMENT
?traps@_Num_float_base@std@@2_NB DB 00H			; std::_Num_float_base::traps
CONST	ENDS
;	COMDAT ?tinyness_before@_Num_float_base@std@@2_NB
CONST	SEGMENT
?tinyness_before@_Num_float_base@std@@2_NB DB 01H	; std::_Num_float_base::tinyness_before
CONST	ENDS
;	COMDAT ?is_specialized@_Num_float_base@std@@2_NB
CONST	SEGMENT
?is_specialized@_Num_float_base@std@@2_NB DB 01H	; std::_Num_float_base::is_specialized
CONST	ENDS
;	COMDAT ?is_signed@_Num_float_base@std@@2_NB
CONST	SEGMENT
?is_signed@_Num_float_base@std@@2_NB DB 01H		; std::_Num_float_base::is_signed
CONST	ENDS
;	COMDAT ?is_modulo@_Num_float_base@std@@2_NB
CONST	SEGMENT
?is_modulo@_Num_float_base@std@@2_NB DB 00H		; std::_Num_float_base::is_modulo
CONST	ENDS
;	COMDAT ?is_integer@_Num_float_base@std@@2_NB
CONST	SEGMENT
?is_integer@_Num_float_base@std@@2_NB DB 00H		; std::_Num_float_base::is_integer
CONST	ENDS
;	COMDAT ?is_iec559@_Num_float_base@std@@2_NB
CONST	SEGMENT
?is_iec559@_Num_float_base@std@@2_NB DB 01H		; std::_Num_float_base::is_iec559
CONST	ENDS
;	COMDAT ?_Stream_err@failure@ios_base@std@@0W4io_errc@43@B
CONST	SEGMENT
?_Stream_err@failure@ios_base@std@@0W4io_errc@43@B DD 01H ; std::ios_base::failure::_Stream_err
CONST	ENDS
;	COMDAT ?is_exact@_Num_float_base@std@@2_NB
CONST	SEGMENT
?is_exact@_Num_float_base@std@@2_NB DB 00H		; std::_Num_float_base::is_exact
CONST	ENDS
;	COMDAT ?is_bounded@_Num_float_base@std@@2_NB
CONST	SEGMENT
?is_bounded@_Num_float_base@std@@2_NB DB 01H		; std::_Num_float_base::is_bounded
CONST	ENDS
;	COMDAT ?has_signaling_NaN@_Num_float_base@std@@2_NB
CONST	SEGMENT
?has_signaling_NaN@_Num_float_base@std@@2_NB DB 01H	; std::_Num_float_base::has_signaling_NaN
CONST	ENDS
;	COMDAT ?has_quiet_NaN@_Num_float_base@std@@2_NB
CONST	SEGMENT
?has_quiet_NaN@_Num_float_base@std@@2_NB DB 01H		; std::_Num_float_base::has_quiet_NaN
CONST	ENDS
;	COMDAT ?has_infinity@_Num_float_base@std@@2_NB
CONST	SEGMENT
?has_infinity@_Num_float_base@std@@2_NB DB 01H		; std::_Num_float_base::has_infinity
CONST	ENDS
;	COMDAT ?CMPDIRTYDATA_INTERVAL@FalconEntity@@2KB
CONST	SEGMENT
?CMPDIRTYDATA_INTERVAL@FalconEntity@@2KB DD 0c8H	; FalconEntity::CMPDIRTYDATA_INTERVAL
CONST	ENDS
;	COMDAT ?SIMDIRTYDATA_INTERVAL@FalconEntity@@2KB
CONST	SEGMENT
?SIMDIRTYDATA_INTERVAL@FalconEntity@@2KB DD 0c8H	; FalconEntity::SIMDIRTYDATA_INTERVAL
CONST	ENDS
;	COMDAT ?has_denorm_loss@_Num_float_base@std@@2_NB
CONST	SEGMENT
?has_denorm_loss@_Num_float_base@std@@2_NB DB 01H	; std::_Num_float_base::has_denorm_loss
CONST	ENDS
;	COMDAT ?has_denorm@_Num_float_base@std@@2W4float_denorm_style@2@B
CONST	SEGMENT
?has_denorm@_Num_float_base@std@@2W4float_denorm_style@2@B DD 01H ; std::_Num_float_base::has_denorm
CONST	ENDS
;	COMDAT ?end@?$_Iosb@H@std@@2W4_Seekdir@12@B
CONST	SEGMENT
?end@?$_Iosb@H@std@@2W4_Seekdir@12@B DD 02H		; std::_Iosb<int>::end
CONST	ENDS
;	COMDAT ?radix@_Num_int_base@std@@2HB
CONST	SEGMENT
?radix@_Num_int_base@std@@2HB DD 02H			; std::_Num_int_base::radix
CONST	ENDS
;	COMDAT ?cur@?$_Iosb@H@std@@2W4_Seekdir@12@B
CONST	SEGMENT
?cur@?$_Iosb@H@std@@2W4_Seekdir@12@B DD 01H		; std::_Iosb<int>::cur
CONST	ENDS
;	COMDAT ?is_specialized@_Num_int_base@std@@2_NB
CONST	SEGMENT
?is_specialized@_Num_int_base@std@@2_NB DB 01H		; std::_Num_int_base::is_specialized
CONST	ENDS
;	COMDAT ?beg@?$_Iosb@H@std@@2W4_Seekdir@12@B
CONST	SEGMENT
?beg@?$_Iosb@H@std@@2W4_Seekdir@12@B DD 00H		; std::_Iosb<int>::beg
CONST	ENDS
;	COMDAT ?is_modulo@_Num_int_base@std@@2_NB
CONST	SEGMENT
?is_modulo@_Num_int_base@std@@2_NB DB 01H		; std::_Num_int_base::is_modulo
CONST	ENDS
;	COMDAT ?is_integer@_Num_int_base@std@@2_NB
CONST	SEGMENT
?is_integer@_Num_int_base@std@@2_NB DB 01H		; std::_Num_int_base::is_integer
CONST	ENDS
;	COMDAT ?binary@?$_Iosb@H@std@@2W4_Openmode@12@B
CONST	SEGMENT
?binary@?$_Iosb@H@std@@2W4_Openmode@12@B DD 020H	; std::_Iosb<int>::binary
CONST	ENDS
;	COMDAT ?is_exact@_Num_int_base@std@@2_NB
CONST	SEGMENT
?is_exact@_Num_int_base@std@@2_NB DB 01H		; std::_Num_int_base::is_exact
CONST	ENDS
;	COMDAT ?_Noreplace@?$_Iosb@H@std@@2W4_Openmode@12@B
CONST	SEGMENT
?_Noreplace@?$_Iosb@H@std@@2W4_Openmode@12@B DD 080H	; std::_Iosb<int>::_Noreplace
CONST	ENDS
;	COMDAT ?is_bounded@_Num_int_base@std@@2_NB
CONST	SEGMENT
?is_bounded@_Num_int_base@std@@2_NB DB 01H		; std::_Num_int_base::is_bounded
CONST	ENDS
;	COMDAT ?_Nocreate@?$_Iosb@H@std@@2W4_Openmode@12@B
CONST	SEGMENT
?_Nocreate@?$_Iosb@H@std@@2W4_Openmode@12@B DD 040H	; std::_Iosb<int>::_Nocreate
CONST	ENDS
;	COMDAT ?trunc@?$_Iosb@H@std@@2W4_Openmode@12@B
CONST	SEGMENT
?trunc@?$_Iosb@H@std@@2W4_Openmode@12@B DD 010H		; std::_Iosb<int>::trunc
CONST	ENDS
;	COMDAT ?app@?$_Iosb@H@std@@2W4_Openmode@12@B
CONST	SEGMENT
?app@?$_Iosb@H@std@@2W4_Openmode@12@B DD 08H		; std::_Iosb<int>::app
CONST	ENDS
;	COMDAT ?ate@?$_Iosb@H@std@@2W4_Openmode@12@B
CONST	SEGMENT
?ate@?$_Iosb@H@std@@2W4_Openmode@12@B DD 04H		; std::_Iosb<int>::ate
CONST	ENDS
;	COMDAT ?out@?$_Iosb@H@std@@2W4_Openmode@12@B
CONST	SEGMENT
?out@?$_Iosb@H@std@@2W4_Openmode@12@B DD 02H		; std::_Iosb<int>::out
CONST	ENDS
;	COMDAT ?in@?$_Iosb@H@std@@2W4_Openmode@12@B
CONST	SEGMENT
?in@?$_Iosb@H@std@@2W4_Openmode@12@B DD 01H		; std::_Iosb<int>::in
CONST	ENDS
;	COMDAT ?_Hardfail@?$_Iosb@H@std@@2W4_Iostate@12@B
CONST	SEGMENT
?_Hardfail@?$_Iosb@H@std@@2W4_Iostate@12@B DD 010H	; std::_Iosb<int>::_Hardfail
CONST	ENDS
;	COMDAT ?badbit@?$_Iosb@H@std@@2W4_Iostate@12@B
CONST	SEGMENT
?badbit@?$_Iosb@H@std@@2W4_Iostate@12@B DD 04H		; std::_Iosb<int>::badbit
CONST	ENDS
;	COMDAT ?failbit@?$_Iosb@H@std@@2W4_Iostate@12@B
CONST	SEGMENT
?failbit@?$_Iosb@H@std@@2W4_Iostate@12@B DD 02H		; std::_Iosb<int>::failbit
CONST	ENDS
;	COMDAT ?eofbit@?$_Iosb@H@std@@2W4_Iostate@12@B
CONST	SEGMENT
?eofbit@?$_Iosb@H@std@@2W4_Iostate@12@B DD 01H		; std::_Iosb<int>::eofbit
CONST	ENDS
;	COMDAT ?radix@_Num_base@std@@2HB
CONST	SEGMENT
?radix@_Num_base@std@@2HB DD 00H			; std::_Num_base::radix
CONST	ENDS
;	COMDAT ?goodbit@?$_Iosb@H@std@@2W4_Iostate@12@B
CONST	SEGMENT
?goodbit@?$_Iosb@H@std@@2W4_Iostate@12@B DD 00H		; std::_Iosb<int>::goodbit
CONST	ENDS
;	COMDAT ?min_exponent10@_Num_base@std@@2HB
CONST	SEGMENT
?min_exponent10@_Num_base@std@@2HB DD 00H		; std::_Num_base::min_exponent10
CONST	ENDS
;	COMDAT ?min_exponent@_Num_base@std@@2HB
CONST	SEGMENT
?min_exponent@_Num_base@std@@2HB DD 00H			; std::_Num_base::min_exponent
CONST	ENDS
;	COMDAT ?floatfield@?$_Iosb@H@std@@2W4_Fmtflags@12@B
CONST	SEGMENT
?floatfield@?$_Iosb@H@std@@2W4_Fmtflags@12@B DD 03000H	; std::_Iosb<int>::floatfield
CONST	ENDS
;	COMDAT ?max_exponent10@_Num_base@std@@2HB
CONST	SEGMENT
?max_exponent10@_Num_base@std@@2HB DD 00H		; std::_Num_base::max_exponent10
CONST	ENDS
;	COMDAT ?basefield@?$_Iosb@H@std@@2W4_Fmtflags@12@B
CONST	SEGMENT
?basefield@?$_Iosb@H@std@@2W4_Fmtflags@12@B DD 0e00H	; std::_Iosb<int>::basefield
CONST	ENDS
;	COMDAT ?max_exponent@_Num_base@std@@2HB
CONST	SEGMENT
?max_exponent@_Num_base@std@@2HB DD 00H			; std::_Num_base::max_exponent
CONST	ENDS
;	COMDAT ?adjustfield@?$_Iosb@H@std@@2W4_Fmtflags@12@B
CONST	SEGMENT
?adjustfield@?$_Iosb@H@std@@2W4_Fmtflags@12@B DD 01c0H	; std::_Iosb<int>::adjustfield
CONST	ENDS
;	COMDAT ?max_digits10@_Num_base@std@@2HB
CONST	SEGMENT
?max_digits10@_Num_base@std@@2HB DD 00H			; std::_Num_base::max_digits10
CONST	ENDS
;	COMDAT ?_Stdio@?$_Iosb@H@std@@2W4_Fmtflags@12@B
CONST	SEGMENT
?_Stdio@?$_Iosb@H@std@@2W4_Fmtflags@12@B DD 08000H	; std::_Iosb<int>::_Stdio
CONST	ENDS
;	COMDAT ?digits10@_Num_base@std@@2HB
CONST	SEGMENT
?digits10@_Num_base@std@@2HB DD 00H			; std::_Num_base::digits10
CONST	ENDS
;	COMDAT ?boolalpha@?$_Iosb@H@std@@2W4_Fmtflags@12@B
CONST	SEGMENT
?boolalpha@?$_Iosb@H@std@@2W4_Fmtflags@12@B DD 04000H	; std::_Iosb<int>::boolalpha
CONST	ENDS
;	COMDAT ?digits@_Num_base@std@@2HB
CONST	SEGMENT
?digits@_Num_base@std@@2HB DD 00H			; std::_Num_base::digits
CONST	ENDS
;	COMDAT ?hexfloat@?$_Iosb@H@std@@2W4_Fmtflags@12@B
CONST	SEGMENT
?hexfloat@?$_Iosb@H@std@@2W4_Fmtflags@12@B DD 03000H	; std::_Iosb<int>::hexfloat
CONST	ENDS
;	COMDAT ?round_style@_Num_base@std@@2W4float_round_style@2@B
CONST	SEGMENT
?round_style@_Num_base@std@@2W4float_round_style@2@B DD 00H ; std::_Num_base::round_style
CONST	ENDS
;	COMDAT ?fixed@?$_Iosb@H@std@@2W4_Fmtflags@12@B
CONST	SEGMENT
?fixed@?$_Iosb@H@std@@2W4_Fmtflags@12@B DD 02000H	; std::_Iosb<int>::fixed
CONST	ENDS
;	COMDAT ?traps@_Num_base@std@@2_NB
CONST	SEGMENT
?traps@_Num_base@std@@2_NB DB 00H			; std::_Num_base::traps
CONST	ENDS
PUBLIC	??2@YAPAXIPAX@Z					; operator new
PUBLIC	??3@YAXPAX0@Z					; operator delete
PUBLIC	?length@?$char_traits@D@std@@SAIPBD@Z		; std::char_traits<char>::length
PUBLIC	?copy@?$char_traits@D@std@@SAPADPADPBDI@Z	; std::char_traits<char>::copy
PUBLIC	?move@?$char_traits@D@std@@SAPADPADPBDI@Z	; std::char_traits<char>::move
PUBLIC	?assign@?$char_traits@D@std@@SAXAADABD@Z	; std::char_traits<char>::assign
PUBLIC	??0?$allocator@D@std@@QAE@XZ			; std::allocator<char>::allocator<char>
PUBLIC	?deallocate@?$allocator@D@std@@QAEXPADI@Z	; std::allocator<char>::deallocate
PUBLIC	?allocate@?$allocator@D@std@@QAEPADI@Z		; std::allocator<char>::allocate
PUBLIC	?max_size@?$allocator@D@std@@QBEIXZ		; std::allocator<char>::max_size
PUBLIC	?max_size@?$allocator_traits@V?$allocator@D@std@@@std@@SAIABV?$allocator@D@2@@Z ; std::allocator_traits<std::allocator<char> >::max_size
PUBLIC	??0?$_Wrap_alloc@V?$allocator@D@std@@@std@@QAE@XZ ; std::_Wrap_alloc<std::allocator<char> >::_Wrap_alloc<std::allocator<char> >
PUBLIC	?allocate@?$_Wrap_alloc@V?$allocator@D@std@@@std@@QAEPADI@Z ; std::_Wrap_alloc<std::allocator<char> >::allocate
PUBLIC	?deallocate@?$_Wrap_alloc@V?$allocator@D@std@@@std@@QAEXPADI@Z ; std::_Wrap_alloc<std::allocator<char> >::deallocate
PUBLIC	?max_size@?$_Wrap_alloc@V?$allocator@D@std@@@std@@QBEIXZ ; std::_Wrap_alloc<std::allocator<char> >::max_size
PUBLIC	??0?$_String_val@U?$_Simple_types@D@std@@@std@@QAE@XZ ; std::_String_val<std::_Simple_types<char> >::_String_val<std::_Simple_types<char> >
PUBLIC	?_Myptr@?$_String_val@U?$_Simple_types@D@std@@@std@@QAEPADXZ ; std::_String_val<std::_Simple_types<char> >::_Myptr
PUBLIC	?_Myptr@?$_String_val@U?$_Simple_types@D@std@@@std@@QBEPBDXZ ; std::_String_val<std::_Simple_types<char> >::_Myptr
PUBLIC	??0?$_String_alloc@$0A@U?$_String_base_types@DV?$allocator@D@std@@@std@@@std@@QAE@ABV?$allocator@D@1@@Z ; std::_String_alloc<0,std::_String_base_types<char,std::allocator<char> > >::_String_alloc<0,std::_String_base_types<char,std::allocator<char> > >
PUBLIC	?_Getal@?$_String_alloc@$0A@U?$_String_base_types@DV?$allocator@D@std@@@std@@@std@@QBE?AU?$_Wrap_alloc@V?$allocator@D@std@@@2@XZ ; std::_String_alloc<0,std::_String_base_types<char,std::allocator<char> > >::_Getal
PUBLIC	??0?$basic_string@DU?$char_traits@D@std@@V?$allocator@D@2@@std@@QAE@PBD@Z ; std::basic_string<char,std::char_traits<char>,std::allocator<char> >::basic_string<char,std::char_traits<char>,std::allocator<char> >
PUBLIC	?assign@?$basic_string@DU?$char_traits@D@std@@V?$allocator@D@2@@std@@QAEAAV12@ABV12@II@Z ; std::basic_string<char,std::char_traits<char>,std::allocator<char> >::assign
PUBLIC	?assign@?$basic_string@DU?$char_traits@D@std@@V?$allocator@D@2@@std@@QAEAAV12@PBDI@Z ; std::basic_string<char,std::char_traits<char>,std::allocator<char> >::assign
PUBLIC	?assign@?$basic_string@DU?$char_traits@D@std@@V?$allocator@D@2@@std@@QAEAAV12@PBD@Z ; std::basic_string<char,std::char_traits<char>,std::allocator<char> >::assign
PUBLIC	?erase@?$basic_string@DU?$char_traits@D@std@@V?$allocator@D@2@@std@@QAEAAV12@I@Z ; std::basic_string<char,std::char_traits<char>,std::allocator<char> >::erase
PUBLIC	?erase@?$basic_string@DU?$char_traits@D@std@@V?$allocator@D@2@@std@@QAEAAV12@II@Z ; std::basic_string<char,std::char_traits<char>,std::allocator<char> >::erase
PUBLIC	?size@?$basic_string@DU?$char_traits@D@std@@V?$allocator@D@2@@std@@QBEIXZ ; std::basic_string<char,std::char_traits<char>,std::allocator<char> >::size
PUBLIC	?max_size@?$basic_string@DU?$char_traits@D@std@@V?$allocator@D@2@@std@@QBEIXZ ; std::basic_string<char,std::char_traits<char>,std::allocator<char> >::max_size
PUBLIC	?_Copy@?$basic_string@DU?$char_traits@D@std@@V?$allocator@D@2@@std@@QAEXII@Z ; std::basic_string<char,std::char_traits<char>,std::allocator<char> >::_Copy
PUBLIC	?_Eos@?$basic_string@DU?$char_traits@D@std@@V?$allocator@D@2@@std@@QAEXI@Z ; std::basic_string<char,std::char_traits<char>,std::allocator<char> >::_Eos
PUBLIC	?_Grow@?$basic_string@DU?$char_traits@D@std@@V?$allocator@D@2@@std@@QAE_NI_N@Z ; std::basic_string<char,std::char_traits<char>,std::allocator<char> >::_Grow
PUBLIC	?_Inside@?$basic_string@DU?$char_traits@D@std@@V?$allocator@D@2@@std@@QAE_NPBD@Z ; std::basic_string<char,std::char_traits<char>,std::allocator<char> >::_Inside
PUBLIC	?_Tidy@?$basic_string@DU?$char_traits@D@std@@V?$allocator@D@2@@std@@QAEX_NI@Z ; std::basic_string<char,std::char_traits<char>,std::allocator<char> >::_Tidy
PUBLIC	?_Xlen@?$basic_string@DU?$char_traits@D@std@@V?$allocator@D@2@@std@@QBEXXZ ; std::basic_string<char,std::char_traits<char>,std::allocator<char> >::_Xlen
PUBLIC	?_Xran@?$basic_string@DU?$char_traits@D@std@@V?$allocator@D@2@@std@@QBEXXZ ; std::basic_string<char,std::char_traits<char>,std::allocator<char> >::_Xran
PUBLIC	??0id@locale@std@@QAE@I@Z			; std::locale::id::id
PUBLIC	?generic_category@std@@YAABVerror_category@1@XZ	; std::generic_category
PUBLIC	?system_category@std@@YAABVerror_category@1@XZ	; std::system_category
PUBLIC	??0error_category@std@@QAE@XZ			; std::error_category::error_category
PUBLIC	??1error_category@std@@UAE@XZ			; std::error_category::~error_category
PUBLIC	?default_error_condition@error_category@std@@UBE?AVerror_condition@2@H@Z ; std::error_category::default_error_condition
PUBLIC	?equivalent@error_category@std@@UBE_NHABVerror_condition@2@@Z ; std::error_category::equivalent
PUBLIC	?equivalent@error_category@std@@UBE_NABVerror_code@2@H@Z ; std::error_category::equivalent
PUBLIC	??8error_category@std@@QBE_NABV01@@Z		; std::error_category::operator==
PUBLIC	??_Gerror_category@std@@UAEPAXI@Z		; std::error_category::`scalar deleting destructor'
PUBLIC	?value@error_code@std@@QBEHXZ			; std::error_code::value
PUBLIC	?category@error_code@std@@QBEABVerror_category@2@XZ ; std::error_code::category
PUBLIC	??0error_condition@std@@QAE@HABVerror_category@1@@Z ; std::error_condition::error_condition
PUBLIC	?value@error_condition@std@@QBEHXZ		; std::error_condition::value
PUBLIC	?category@error_condition@std@@QBEABVerror_category@2@XZ ; std::error_condition::category
PUBLIC	??8error_condition@std@@QBE_NABV01@@Z		; std::error_condition::operator==
PUBLIC	??0_Generic_error_category@std@@QAE@XZ		; std::_Generic_error_category::_Generic_error_category
PUBLIC	?name@_Generic_error_category@std@@UBEPBDXZ	; std::_Generic_error_category::name
PUBLIC	?message@_Generic_error_category@std@@UBE?AV?$basic_string@DU?$char_traits@D@std@@V?$allocator@D@2@@2@H@Z ; std::_Generic_error_category::message
PUBLIC	??1_Generic_error_category@std@@UAE@XZ		; std::_Generic_error_category::~_Generic_error_category
PUBLIC	??_G_Generic_error_category@std@@UAEPAXI@Z	; std::_Generic_error_category::`scalar deleting destructor'
PUBLIC	??0_Iostream_error_category@std@@QAE@XZ		; std::_Iostream_error_category::_Iostream_error_category
PUBLIC	?name@_Iostream_error_category@std@@UBEPBDXZ	; std::_Iostream_error_category::name
PUBLIC	?message@_Iostream_error_category@std@@UBE?AV?$basic_string@DU?$char_traits@D@std@@V?$allocator@D@2@@2@H@Z ; std::_Iostream_error_category::message
PUBLIC	??1_Iostream_error_category@std@@UAE@XZ		; std::_Iostream_error_category::~_Iostream_error_category
PUBLIC	??_G_Iostream_error_category@std@@UAEPAXI@Z	; std::_Iostream_error_category::`scalar deleting destructor'
PUBLIC	??0_System_error_category@std@@QAE@XZ		; std::_System_error_category::_System_error_category
PUBLIC	?name@_System_error_category@std@@UBEPBDXZ	; std::_System_error_category::name
PUBLIC	?message@_System_error_category@std@@UBE?AV?$basic_string@DU?$char_traits@D@std@@V?$allocator@D@2@@2@H@Z ; std::_System_error_category::message
PUBLIC	?default_error_condition@_System_error_category@std@@UBE?AVerror_condition@2@H@Z ; std::_System_error_category::default_error_condition
PUBLIC	??1_System_error_category@std@@UAE@XZ		; std::_System_error_category::~_System_error_category
PUBLIC	??_G_System_error_category@std@@UAEPAXI@Z	; std::_System_error_category::`scalar deleting destructor'
PUBLIC	?GetText@O_Output@@QAEPADXZ			; O_Output::GetText
PUBLIC	?GetFgColor@O_Output@@QAEKXZ			; O_Output::GetFgColor
PUBLIC	?GetBgColor@O_Output@@QAEKXZ			; O_Output::GetBgColor
PUBLIC	?SetGroup@C_Base@@QAEXJ@Z			; C_Base::SetGroup
PUBLIC	?SetCluster@C_Base@@QAEXJ@Z			; C_Base::SetCluster
PUBLIC	?SetClient@C_Base@@QAEXF@Z			; C_Base::SetClient
PUBLIC	?GetID@C_Base@@QAEJXZ				; C_Base::GetID
PUBLIC	?GetType@C_Base@@QAEFXZ				; C_Base::GetType
PUBLIC	?GetGroup@C_Base@@QAEJXZ			; C_Base::GetGroup
PUBLIC	?GetCluster@C_Base@@QAEJXZ			; C_Base::GetCluster
PUBLIC	?GetFlags@C_Base@@QAEJXZ			; C_Base::GetFlags
PUBLIC	?GetClient@C_Base@@QAEFXZ			; C_Base::GetClient
PUBLIC	?GetX@C_Base@@QAEJXZ				; C_Base::GetX
PUBLIC	?GetY@C_Base@@QAEJXZ				; C_Base::GetY
PUBLIC	?GetW@C_Base@@QAEJXZ				; C_Base::GetW
PUBLIC	?GetH@C_Base@@QAEJXZ				; C_Base::GetH
PUBLIC	?SetHotSpot@C_Button@@QAEXJJJJ@Z		; C_Button::SetHotSpot
PUBLIC	?GetTextID@C_ListBox@@QAEJXZ			; C_ListBox::GetTextID
PUBLIC	?GetText@C_Text@@QAEPADXZ			; C_Text::GetText
PUBLIC	?GetFGColor@C_Text@@QAEKXZ			; C_Text::GetFGColor
PUBLIC	?GetBGColor@C_Text@@QAEKXZ			; C_Text::GetBGColor
PUBLIC	?GetSliderMax@C_Slider@@QAEJXZ			; C_Slider::GetSliderMax
PUBLIC	?GetSliderMin@C_Slider@@QAEJXZ			; C_Slider::GetSliderMin
PUBLIC	?GetSliderPos@C_Slider@@QAEJXZ			; C_Slider::GetSliderPos
PUBLIC	?SetVirtualY@C_Window@@QAEXJJ@Z			; C_Window::SetVirtualY
PUBLIC	?GetClientArea@C_Window@@QAE?AUUI95_RECT@@J@Z	; C_Window::GetClientArea
PUBLIC	?Get2dTrackIR@PlayerOptionsClass@@QBE_NXZ	; PlayerOptionsClass::Get2dTrackIR
PUBLIC	?Get3dTrackIR@PlayerOptionsClass@@QBE_NXZ	; PlayerOptionsClass::Get3dTrackIR
PUBLIC	?GetFFB@PlayerOptionsClass@@QBE_NXZ		; PlayerOptionsClass::GetFFB
PUBLIC	?GetMouseLook@PlayerOptionsClass@@QBE_NXZ	; PlayerOptionsClass::GetMouseLook
PUBLIC	?GetTouchBuddy@PlayerOptionsClass@@QBE_NXZ	; PlayerOptionsClass::GetTouchBuddy
PUBLIC	?GetKeyfile@PlayerOptionsClass@@QAEPADXZ	; PlayerOptionsClass::GetKeyfile
PUBLIC	?SetTrackIR2d@PlayerOptionsClass@@QAEX_N@Z	; PlayerOptionsClass::SetTrackIR2d
PUBLIC	?SetTrackIR3d@PlayerOptionsClass@@QAEX_N@Z	; PlayerOptionsClass::SetTrackIR3d
PUBLIC	?SetFFB@PlayerOptionsClass@@QAEX_N@Z		; PlayerOptionsClass::SetFFB
PUBLIC	?SetTouchBuddy@PlayerOptionsClass@@QAEX_N@Z	; PlayerOptionsClass::SetTouchBuddy
PUBLIC	?SetMouseLook@PlayerOptionsClass@@QAEX_N@Z	; PlayerOptionsClass::SetMouseLook
PUBLIC	?SetMouseLookSensitivity@PlayerOptionsClass@@QAEXM@Z ; PlayerOptionsClass::SetMouseLookSensitivity
PUBLIC	?GetMouseLookSensitivity@PlayerOptionsClass@@QAEMXZ ; PlayerOptionsClass::GetMouseLookSensitivity
PUBLIC	?SetMouseWheelSensitivity@PlayerOptionsClass@@QAEXH@Z ; PlayerOptionsClass::SetMouseWheelSensitivity
PUBLIC	?GetMouseWheelSensitivity@PlayerOptionsClass@@QAEHXZ ; PlayerOptionsClass::GetMouseWheelSensitivity
PUBLIC	?SetKeyboardPOVPanningSensitivity@PlayerOptionsClass@@QAEXH@Z ; PlayerOptionsClass::SetKeyboardPOVPanningSensitivity
PUBLIC	?GetKeyboardPOVPanningSensitivity@PlayerOptionsClass@@QAEHXZ ; PlayerOptionsClass::GetKeyboardPOVPanningSensitivity
PUBLIC	?GetClickablePitMode@PlayerOptionsClass@@QAE_NXZ ; PlayerOptionsClass::GetClickablePitMode
PUBLIC	?SetClickablePitMode@PlayerOptionsClass@@QAEX_N@Z ; PlayerOptionsClass::SetClickablePitMode
PUBLIC	?GetAxisShaping@PlayerOptionsClass@@QAE_NXZ	; PlayerOptionsClass::GetAxisShaping
PUBLIC	?SetAxisShaping@PlayerOptionsClass@@QAEX_N@Z	; PlayerOptionsClass::SetAxisShaping
PUBLIC	?AnalogIsUsed@SIMLIB_IO_CLASS@@QAE_NW4GameAxis_t@@@Z ; SIMLIB_IO_CLASS::AnalogIsUsed
PUBLIC	?AnalogIsReversed@SIMLIB_IO_CLASS@@QAE_NW4GameAxis_t@@@Z ; SIMLIB_IO_CLASS::AnalogIsReversed
PUBLIC	?SetAnalogIsReversed@SIMLIB_IO_CLASS@@QAEXW4GameAxis_t@@_N@Z ; SIMLIB_IO_CLASS::SetAnalogIsReversed
PUBLIC	?MouseWheelExists@SIMLIB_IO_CLASS@@QAE_NXZ	; SIMLIB_IO_CLASS::MouseWheelExists
PUBLIC	?SetThrottleAndRudderBars@@YAXPAVC_Base@@@Z	; SetThrottleAndRudderBars
PUBLIC	?HideKeyStatusLines@@YAXPAVC_Window@@@Z		; HideKeyStatusLines
PUBLIC	?SetButtonColor@@YAXPAVC_Button@@@Z		; SetButtonColor
PUBLIC	?RecenterJoystickCB@@YAXJFPAVC_Base@@@Z		; RecenterJoystickCB
PUBLIC	?SetListBoxItemData@@YA_NPAVC_ListBox@@JFJ@Z	; SetListBoxItemData
PUBLIC	?GetListBoxItemData@@YAJPAVC_ListBox@@HJ@Z	; GetListBoxItemData
PUBLIC	?SaveAxisMappings@@YAXPAVC_Window@@@Z		; SaveAxisMappings
PUBLIC	?SetupControlTabsCB@@YAXJFPAVC_Base@@@Z		; SetupControlTabsCB
PUBLIC	?AdvancedControlApplyCB@@YAXJFPAVC_Base@@@Z	; AdvancedControlApplyCB
PUBLIC	?AdvancedControlOKCB@@YAXJFPAVC_Base@@@Z	; AdvancedControlOKCB
PUBLIC	?AdvancedControlCancelCB@@YAXJFPAVC_Base@@@Z	; AdvancedControlCancelCB
PUBLIC	?MouseLookCB@@YAXJFPAVC_Base@@@Z		; MouseLookCB
PUBLIC	?TouchBuddyCB@@YAXJFPAVC_Base@@@Z		; TouchBuddyCB
PUBLIC	?EnableFFBCB@@YAXJFPAVC_Base@@@Z		; EnableFFBCB
PUBLIC	?ToggleClickableModeCB@@YAXJFPAVC_Base@@@Z	; ToggleClickableModeCB
PUBLIC	?TrackIR2dCB@@YAXJFPAVC_Base@@@Z		; TrackIR2dCB
PUBLIC	?TrackIR3dCB@@YAXJFPAVC_Base@@@Z		; TrackIR3dCB
PUBLIC	?AxisShapingCB@@YAXJFPAVC_Base@@@Z		; AxisShapingCB
PUBLIC	?MouseLookSensitivityCB@@YAXJFPAVC_Base@@@Z	; MouseLookSensitivityCB
PUBLIC	?MouseWheelSensitivityCB@@YAXJFPAVC_Base@@@Z	; MouseWheelSensitivityCB
PUBLIC	?KeyPOVPanningSensitivityCB@@YAXJFPAVC_Base@@@Z	; KeyPOVPanningSensitivityCB
PUBLIC	?MarkMappedAxis@@YAXXZ				; MarkMappedAxis
PUBLIC	?FillListBox@@YAXPAVC_ListBox@@H@Z		; FillListBox
PUBLIC	?PopulateAllListBoxes@@YAXPAVC_Window@@@Z	; PopulateAllListBoxes
PUBLIC	?RePopulateAllListBoxes@@YAXPAVC_Window@@@Z	; RePopulateAllListBoxes
PUBLIC	?AxisChangeCB@@YAXJFPAVC_Base@@@Z		; AxisChangeCB
PUBLIC	?AdvancedControlCB@@YAXJFPAVC_Base@@@Z		; AdvancedControlCB
PUBLIC	?SetABDetentCB@@YAXJFPAVC_Base@@@Z		; SetABDetentCB
PUBLIC	?RefreshJoystickCB@@YAXJFPAVC_Base@@@Z		; RefreshJoystickCB
PUBLIC	?CalibrateFile@@YAHXZ				; CalibrateFile
PUBLIC	?DoShiftStates@@YAXPADH@Z			; DoShiftStates
PUBLIC	?KeystrokeCB@@YAHEEEJ@Z				; KeystrokeCB
PUBLIC	?KeycodeCB@@YAXJFPAVC_Base@@@Z			; KeycodeCB
PUBLIC	?AddUndisplayedKey@@YAHAAUKeyMap@@@Z		; AddUndisplayedKey
PUBLIC	?AddKeyMapLines@@YAHPAVC_Window@@PAVC_Line@@1H@Z ; AddKeyMapLines
PUBLIC	?UpdateKeyMapButton@@YAXPAVC_Button@@AAUKeyMap@@H@Z ; UpdateKeyMapButton
PUBLIC	?UpdateKeyMap@@YAHPAVC_Window@@PAVC_Button@@HAAUKeyMap@@UHotSpotStruct@@H@Z ; UpdateKeyMap
PUBLIC	?UpdateMappingDescrip@@YAHPAVC_Window@@PAVC_Text@@HPADH@Z ; UpdateMappingDescrip
PUBLIC	?SetHdrStatusLine@@YAHPAVC_Window@@PAVC_Button@@PAVC_Line@@AAUKeyMap@@UHotSpotStruct@@H@Z ; SetHdrStatusLine
PUBLIC	?SaveKeyMapList@@YAHPAD@Z			; SaveKeyMapList
PUBLIC	?SaveKeyCB@@YAXJFPAVC_Base@@@Z			; SaveKeyCB
PUBLIC	?VerifySaveKeyCB@@YAXJFPAVC_Base@@@Z		; VerifySaveKeyCB
PUBLIC	?SaveKeyButtonCB@@YAXJFPAVC_Base@@@Z		; SaveKeyButtonCB
PUBLIC	?RemoveExcessControls@@YAHPAVC_Window@@H@Z	; RemoveExcessControls
PUBLIC	?UpdateKeyMapList@@YAHPADH@Z			; UpdateKeyMapList
PUBLIC	?LoadKeyCB@@YAXJFPAVC_Base@@@Z			; LoadKeyCB
PUBLIC	?LoadKeyButtonCB@@YAXJFPAVC_Base@@@Z		; LoadKeyButtonCB
PUBLIC	?CreateKeyMapList@@YAHPAD@Z			; CreateKeyMapList
PUBLIC	?SetKeyDefaultCB@@YAXJFPAVC_Base@@@Z		; SetKeyDefaultCB
PUBLIC	?SetJoystickAndPOVSymbols@@YAX_NPAVC_Base@@@Z	; SetJoystickAndPOVSymbols
PUBLIC	?ControllerSelectCB@@YAXJFPAVC_Base@@@Z		; ControllerSelectCB
PUBLIC	?BuildControllerList@@YAXPAVC_ListBox@@@Z	; BuildControllerList
PUBLIC	??$construct@PADAAPAD@?$_Wrap_alloc@V?$allocator@D@std@@@std@@QAEXPAPADAAPAD@Z ; std::_Wrap_alloc<std::allocator<char> >::construct<char *,char * &>
PUBLIC	??$destroy@PAD@?$_Wrap_alloc@V?$allocator@D@std@@@std@@QAEXPAPAD@Z ; std::_Wrap_alloc<std::allocator<char> >::destroy<char *>
PUBLIC	??$addressof@D@std@@YAPADAAD@Z			; std::addressof<char>
PUBLIC	??$_Allocate@D@std@@YAPADIPAD@Z			; std::_Allocate<char>
PUBLIC	??$forward@AAPAD@std@@YAAAPADAAPAD@Z		; std::forward<char * &>
PUBLIC	??$construct@PADAAPAD@?$allocator_traits@V?$allocator@D@std@@@std@@SAXAAV?$allocator@D@1@PAPADAAPAD@Z ; std::allocator_traits<std::allocator<char> >::construct<char *,char * &>
PUBLIC	??$destroy@PAD@?$allocator_traits@V?$allocator@D@std@@@std@@SAXAAV?$allocator@D@1@PAPAD@Z ; std::allocator_traits<std::allocator<char> >::destroy<char *>
PUBLIC	??$construct@PADAAPAD@?$allocator@D@std@@QAEXPAPADAAPAD@Z ; std::allocator<char>::construct<char *,char * &>
PUBLIC	??$destroy@PAD@?$allocator@D@std@@QAEXPAPAD@Z	; std::allocator<char>::destroy<char *>
PUBLIC	??_C@_00CNPNBAHC@?$AA@				; `string'
PUBLIC	??_7error_category@std@@6B@			; std::error_category::`vftable'
PUBLIC	??_7_Generic_error_category@std@@6B@		; std::_Generic_error_category::`vftable'
PUBLIC	??_C@_07DCLBNMLN@generic?$AA@			; `string'
PUBLIC	??_C@_0O@BFJCFAAK@unknown?5error?$AA@		; `string'
PUBLIC	??_7_Iostream_error_category@std@@6B@		; std::_Iostream_error_category::`vftable'
PUBLIC	??_C@_08LLGCOLLL@iostream?$AA@			; `string'
PUBLIC	??_C@_0BG@PADBLCHM@iostream?5stream?5error?$AA@	; `string'
PUBLIC	??_7_System_error_category@std@@6B@		; std::_System_error_category::`vftable'
PUBLIC	??_C@_06FHFOAHML@system?$AA@			; `string'
PUBLIC	?_Generic_object@?$_Error_objects@H@std@@2V_Generic_error_category@2@A ; std::_Error_objects<int>::_Generic_object
PUBLIC	?_Iostream_object@?$_Error_objects@H@std@@2V_Iostream_error_category@2@A ; std::_Error_objects<int>::_Iostream_object
PUBLIC	?_System_object@?$_Error_objects@H@std@@2V_System_error_category@2@A ; std::_Error_objects<int>::_System_object
PUBLIC	?id@?$num_put@DV?$back_insert_iterator@V?$basic_string@DU?$char_traits@D@std@@V?$allocator@D@2@@std@@@std@@@std@@2V0locale@2@A ; std::num_put<char,std::back_insert_iterator<std::basic_string<char,std::char_traits<char>,std::allocator<char> > > >::id
PUBLIC	?id@?$num_put@_WV?$back_insert_iterator@V?$basic_string@_WU?$char_traits@_W@std@@V?$allocator@_W@2@@std@@@std@@@std@@2V0locale@2@A ; std::num_put<wchar_t,std::back_insert_iterator<std::basic_string<wchar_t,std::char_traits<wchar_t>,std::allocator<wchar_t> > > >::id
PUBLIC	??_C@_05DIALNFFA@?$CFs?5?$CFd?$AA@		; `string'
PUBLIC	??_C@_0L@EEMIHBGL@?$CFs?5?$CFd?5?3?5?$CFs?$AA@	; `string'
PUBLIC	??_C@_0BH@HILJPBML@?$CFs?2config?2joystick?4dat?$AA@ ; `string'
PUBLIC	??_C@_02JDPG@rb?$AA@				; `string'
PUBLIC	??_C@_01MIFGBAGJ@?$CL?$AA@			; `string'
PUBLIC	??_C@_01CLKCMJKC@?5?$AA@			; `string'
PUBLIC	??_C@_0M@LLNEAKEK@?$CFs?$CFs?5?3?5?$CFs?$CFs?$AA@ ; `string'
PUBLIC	??_C@_0BB@FEJPLKOE@?$CFs?2config?2?$CFs?4key?$AA@ ; `string'
PUBLIC	??_C@_02BKFDOEMK@wt?$AA@			; `string'
PUBLIC	??_C@_06HBILFICH@?$CFc?$CFs?$CFc?$AA@		; `string'
PUBLIC	??_C@_0BO@EHHCAPGE@?$CFs?5?$CFd?5?$CFd?5?$CF?$CDX?5?$CFX?5?$CF?$CDX?5?$CFX?5?$CFd?5?$CFs?6?$AA@ ; `string'
PUBLIC	??_C@_0BO@NJENKKIJ@?$CFs?5?$CFd?5?$CFd?5?$CF?$CDX?5?$CFd?5?$CF?$CDX?5?$CFd?5?$CFd?5?$CFs?6?$AA@ ; `string'
PUBLIC	??_C@_0BF@CPNLFIBF@?$CFs?5?$CFd?5?$CFd?5?92?50?50x0?50?6?$AA@ ; `string'
PUBLIC	??_C@_0BG@LPBAKBJO@?$CFs?5?$CFd?5?$CFd?5?93?5?$CFd?50x0?50?6?$AA@ ; `string'
PUBLIC	??_C@_0O@KLAEKGNF@config?2?$CFs?4key?$AA@	; `string'
PUBLIC	??_C@_01KDCPPGHE@r?$AA@				; `string'
PUBLIC	??_C@_0N@IAEPOJDM@config?2?$CK?4KEY?$AA@	; `string'
PUBLIC	??_C@_0BJ@IKOFGMEL@?$CFs?2config?2keystrokes?4key?$AA@ ; `string'
PUBLIC	??_C@_02BMJICGCB@rt?$AA@			; `string'
PUBLIC	??_C@_0BP@FOPAGOHB@?$CFs?5?$CFd?5?$CFd?5?$CFx?5?$CFx?5?$CFx?5?$CFx?5?$CFd?5?$CF?$FL?$FO?6?$FNs?$AA@ ; `string'
PUBLIC	??_C@_06JMBGPIAA@laptop?$AA@			; `string'
PUBLIC	??_C@_0BG@KLGACDKK@HOTAS?5Cougar?5Joystick?$AA@	; `string'
PUBLIC	??_C@_02IDBFPDIL@tm?$AA@			; `string'
PUBLIC	??_C@_0N@GAAPHFEJ@Thrustmaster?$AA@		; `string'
PUBLIC	?id@?$numpunct@D@std@@2V0locale@2@A		; std::numpunct<char>::id
PUBLIC	?id@?$numpunct@_W@std@@2V0locale@2@A		; std::numpunct<wchar_t>::id
PUBLIC	??_C@_0BI@CFPLBAOH@invalid?5string?5position?$AA@ ; `string'
PUBLIC	??_C@_0BA@JFNIOLAK@string?5too?5long?$AA@	; `string'
PUBLIC	??_R4error_category@std@@6B@			; std::error_category::`RTTI Complete Object Locator'
PUBLIC	??_R0?AVerror_category@std@@@8			; std::error_category `RTTI Type Descriptor'
PUBLIC	??_R3error_category@std@@8			; std::error_category::`RTTI Class Hierarchy Descriptor'
PUBLIC	??_R2error_category@std@@8			; std::error_category::`RTTI Base Class Array'
PUBLIC	??_R1A@?0A@EA@error_category@std@@8		; std::error_category::`RTTI Base Class Descriptor at (0,-1,0,64)'
PUBLIC	??_R4_Generic_error_category@std@@6B@		; std::_Generic_error_category::`RTTI Complete Object Locator'
PUBLIC	??_R0?AV_Generic_error_category@std@@@8		; std::_Generic_error_category `RTTI Type Descriptor'
PUBLIC	??_R3_Generic_error_category@std@@8		; std::_Generic_error_category::`RTTI Class Hierarchy Descriptor'
PUBLIC	??_R2_Generic_error_category@std@@8		; std::_Generic_error_category::`RTTI Base Class Array'
PUBLIC	??_R1A@?0A@EA@_Generic_error_category@std@@8	; std::_Generic_error_category::`RTTI Base Class Descriptor at (0,-1,0,64)'
PUBLIC	??_R4_Iostream_error_category@std@@6B@		; std::_Iostream_error_category::`RTTI Complete Object Locator'
PUBLIC	??_R0?AV_Iostream_error_category@std@@@8	; std::_Iostream_error_category `RTTI Type Descriptor'
PUBLIC	??_R3_Iostream_error_category@std@@8		; std::_Iostream_error_category::`RTTI Class Hierarchy Descriptor'
PUBLIC	??_R2_Iostream_error_category@std@@8		; std::_Iostream_error_category::`RTTI Base Class Array'
PUBLIC	??_R1A@?0A@EA@_Iostream_error_category@std@@8	; std::_Iostream_error_category::`RTTI Base Class Descriptor at (0,-1,0,64)'
PUBLIC	??_R4_System_error_category@std@@6B@		; std::_System_error_category::`RTTI Complete Object Locator'
PUBLIC	??_R0?AV_System_error_category@std@@@8		; std::_System_error_category `RTTI Type Descriptor'
PUBLIC	??_R3_System_error_category@std@@8		; std::_System_error_category::`RTTI Class Hierarchy Descriptor'
PUBLIC	??_R2_System_error_category@std@@8		; std::_System_error_category::`RTTI Base Class Array'
PUBLIC	??_R1A@?0A@EA@_System_error_category@std@@8	; std::_System_error_category::`RTTI Base Class Descriptor at (0,-1,0,64)'
PUBLIC	__real@00000000
PUBLIC	__real@3fe0000000000000
PUBLIC	__real@4000000000000000
PUBLIC	__real@447a0000
PUBLIC	__real@466a6000
PUBLIC	__real@469c4000
EXTRN	__purecall:PROC
EXTRN	??2@YAPAXI@Z:PROC				; operator new
EXTRN	??3@YAXPAX@Z:PROC				; operator delete
EXTRN	_atexit:PROC
EXTRN	___report_rangecheckfailure:PROC
EXTRN	_fclose:PROC
EXTRN	_fgets:PROC
EXTRN	_fopen:PROC
EXTRN	_fprintf:PROC
EXTRN	_fread:PROC
EXTRN	_sscanf:PROC
EXTRN	_sprintf:PROC
EXTRN	_memcpy:PROC
EXTRN	_strcpy:PROC
EXTRN	_strcat:PROC
EXTRN	_strcmp:PROC
EXTRN	_strlen:PROC
EXTRN	_memmove:PROC
EXTRN	_stricmp:PROC
EXTRN	__imp__GetAsyncKeyState@4:PROC
EXTRN	__imp__SetCursor@4:PROC
EXTRN	??_V@YAXPAX@Z:PROC				; operator delete[]
EXTRN	??_U@YAPAXI@Z:PROC				; operator new[]
EXTRN	?_Xbad_alloc@std@@YAXXZ:PROC			; std::_Xbad_alloc
EXTRN	?_Xlength_error@std@@YAXPBD@Z:PROC		; std::_Xlength_error
EXTRN	?_Xout_of_range@std@@YAXPBD@Z:PROC		; std::_Xout_of_range
EXTRN	??_Eerror_category@std@@UAEPAXI@Z:PROC		; std::error_category::`vector deleting destructor'
EXTRN	?_Syserror_map@std@@YAPBDH@Z:PROC		; std::_Syserror_map
EXTRN	?_Winerror_map@std@@YAPBDH@Z:PROC		; std::_Winerror_map
EXTRN	??_E_Generic_error_category@std@@UAEPAXI@Z:PROC	; std::_Generic_error_category::`vector deleting destructor'
EXTRN	??_E_Iostream_error_category@std@@UAEPAXI@Z:PROC ; std::_Iostream_error_category::`vector deleting destructor'
EXTRN	??_E_System_error_category@std@@UAEPAXI@Z:PROC	; std::_System_error_category::`vector deleting destructor'
EXTRN	?GetString@C_String@@QAEPADJ@Z:PROC		; C_String::GetString
EXTRN	?SetUserNumber@C_Base@@QAEXJJ@Z:PROC		; C_Base::SetUserNumber
EXTRN	?SetUserPtr@C_Base@@QAEXJPAX@Z:PROC		; C_Base::SetUserPtr
EXTRN	?GetUserNumber@C_Base@@QAEJJ@Z:PROC		; C_Base::GetUserNumber
EXTRN	?GetUserPtr@C_Base@@QAEPAXJ@Z:PROC		; C_Base::GetUserPtr
EXTRN	??0C_Button@@QAE@XZ:PROC			; C_Button::C_Button
EXTRN	?Setup@C_Button@@QAEXJFJJ@Z:PROC		; C_Button::Setup
EXTRN	?SetText@C_Button@@QAEXFPBD@Z:PROC		; C_Button::SetText
EXTRN	?SetText@C_Button@@QAEXFJ@Z:PROC		; C_Button::SetText
EXTRN	?SetFgColor@C_Button@@QAEXFK@Z:PROC		; C_Button::SetFgColor
EXTRN	?AddItem@C_ListBox@@QAEPAV1@JFPAD@Z:PROC	; C_ListBox::AddItem
EXTRN	?AddItem@C_ListBox@@QAEPAV1@JFJ@Z:PROC		; C_ListBox::AddItem
EXTRN	?RemoveAllItems@C_ListBox@@QAEXXZ:PROC		; C_ListBox::RemoveAllItems
EXTRN	?SetItemFlags@C_ListBox@@QAEXJJ@Z:PROC		; C_ListBox::SetItemFlags
EXTRN	?SetItemUserData@C_ListBox@@QAEXJFJ@Z:PROC	; C_ListBox::SetItemUserData
EXTRN	?FindID@C_ListBox@@QAEPAVLISTBOX@@J@Z:PROC	; C_ListBox::FindID
EXTRN	?SetValue@C_ListBox@@QAEXJ@Z:PROC		; C_ListBox::SetValue
EXTRN	?GetText@C_EditBox@@QAEPADXZ:PROC		; C_EditBox::GetText
EXTRN	??0C_Text@@QAE@XZ:PROC				; C_Text::C_Text
EXTRN	?SetFGColor@C_Text@@QAEXK@Z:PROC		; C_Text::SetFGColor
EXTRN	?SetBGColor@C_Text@@QAEXK@Z:PROC		; C_Text::SetBGColor
EXTRN	??0C_Line@@QAE@XZ:PROC				; C_Line::C_Line
EXTRN	?Setup@C_Line@@QAEXJF@Z:PROC			; C_Line::Setup
EXTRN	?SetColor@C_Line@@QAEXK@Z:PROC			; C_Line::SetColor
EXTRN	?SetSliderRange@C_Slider@@QAEXJJ@Z:PROC		; C_Slider::SetSliderRange
EXTRN	?SetSliderPos@C_Slider@@QAEXJ@Z:PROC		; C_Slider::SetSliderPos
EXTRN	?AdjustScrollbar@C_Window@@QAEXJ@Z:PROC		; C_Window::AdjustScrollbar
EXTRN	?AddControl@C_Window@@QAEXPAVC_Base@@@Z:PROC	; C_Window::AddControl
EXTRN	?RemoveControl@C_Window@@QAEXJ@Z:PROC		; C_Window::RemoveControl
EXTRN	?UnHideCluster@C_Window@@QAEXJ@Z:PROC		; C_Window::UnHideCluster
EXTRN	?HideCluster@C_Window@@QAEXJ@Z:PROC		; C_Window::HideCluster
EXTRN	?RefreshWindow@C_Window@@QAEXXZ:PROC		; C_Window::RefreshWindow
EXTRN	?RefreshClient@C_Window@@QAEXJ@Z:PROC		; C_Window::RefreshClient
EXTRN	?FindControl@C_Window@@QAEPAVC_Base@@J@Z:PROC	; C_Window::FindControl
EXTRN	?ShowWindow@C_Handler@@QAEHPAVC_Window@@@Z:PROC	; C_Handler::ShowWindow
EXTRN	?HideWindow@C_Handler@@QAEHPAVC_Window@@@Z:PROC	; C_Handler::HideWindow
EXTRN	?WindowToFront@C_Handler@@QAEXPAVC_Window@@@Z:PROC ; C_Handler::WindowToFront
EXTRN	?FindWindowA@C_Handler@@QAEPAVC_Window@@J@Z:PROC ; C_Handler::FindWindowA
EXTRN	?GetJoystickInput@@YAXXZ:PROC			; GetJoystickInput
EXTRN	?SaveFile@SIMLIB_IO_CLASS@@QAEHXZ:PROC		; SIMLIB_IO_CLASS::SaveFile
EXTRN	?WriteAxisMappingFile@SIMLIB_IO_CLASS@@QAEHXZ:PROC ; SIMLIB_IO_CLASS::WriteAxisMappingFile
EXTRN	?LoadAxisCalibrationFile@SIMLIB_IO_CLASS@@QAEHXZ:PROC ; SIMLIB_IO_CLASS::LoadAxisCalibrationFile
EXTRN	?Reset@SIMLIB_IO_CLASS@@QAEXXZ:PROC		; SIMLIB_IO_CLASS::Reset
EXTRN	?AddFunction@InputFunctionHashTable@@QAEXHHHHP6AXKHPAX@Z@Z:PROC ; InputFunctionHashTable::AddFunction
EXTRN	?RemoveFunction@InputFunctionHashTable@@QAEXHH@Z:PROC ; InputFunctionHashTable::RemoveFunction
EXTRN	?ClearTable@InputFunctionHashTable@@QAEXXZ:PROC	; InputFunctionHashTable::ClearTable
EXTRN	?GetFunction@InputFunctionHashTable@@QAEP6AXKHPAX@ZHHPAH1@Z:PROC ; InputFunctionHashTable::GetFunction
EXTRN	?GetControl@InputFunctionHashTable@@QAEJHH@Z:PROC ; InputFunctionHashTable::GetControl
EXTRN	?SetControl@InputFunctionHashTable@@QAEHHHJ@Z:PROC ; InputFunctionHashTable::SetControl
EXTRN	?SetButtonFunction@InputFunctionHashTable@@QAEHHP6AXKHPAX@ZH@Z:PROC ; InputFunctionHashTable::SetButtonFunction
EXTRN	?GetButtonFunction@InputFunctionHashTable@@QAEP6AXKHPAX@ZHPAH@Z:PROC ; InputFunctionHashTable::GetButtonFunction
EXTRN	?SetPOVFunction@InputFunctionHashTable@@QAEHHHP6AXKHPAX@ZH@Z:PROC ; InputFunctionHashTable::SetPOVFunction
EXTRN	?GetPOVFunction@InputFunctionHashTable@@QAEP6AXKHPAX@ZHHPAH@Z:PROC ; InputFunctionHashTable::GetPOVFunction
EXTRN	?LoadFunctionTables@@YAXPAD@Z:PROC		; LoadFunctionTables
EXTRN	?FindFunctionFromString@@YAP6AXKHPAX@ZPAD@Z:PROC ; FindFunctionFromString
EXTRN	?FindStringFromFunction@@YAPADP6AXKHPAX@Z@Z:PROC ; FindStringFromFunction
EXTRN	?JoystickPlayEffect@@YAHHH@Z:PROC		; JoystickPlayEffect
EXTRN	?JoystickStopEffect@@YAXH@Z:PROC		; JoystickStopEffect
EXTRN	?SetDeleteCallback@@YAXP6AXJFPAVC_Base@@@Z@Z:PROC ; SetDeleteCallback
EXTRN	?SaveAFile@@YAXJPADQAPADP6AXJFPAVC_Base@@@Z30@Z:PROC ; SaveAFile
EXTRN	?LoadAFile@@YAXJPADQAPADP6AXJFPAVC_Base@@@Z3@Z:PROC ; LoadAFile
EXTRN	?CloseWindowCB@@YAXJFPAVC_Base@@@Z:PROC		; CloseWindowCB
EXTRN	?AreYouSure@@YAXJJP6AXJFPAVC_Base@@@Z1@Z:PROC	; AreYouSure
EXTRN	?SetJoystickCenter@@YAXXZ:PROC			; SetJoystickCenter
EXTRN	?DelKeyFileCB@@YAXJFPAVC_Base@@@Z:PROC		; DelKeyFileCB
EXTRN	?SetupGameAxis@@YAXXZ:PROC			; SetupGameAxis
EXTRN	?CheckForForceFeedback@@YAHH@Z:PROC		; CheckForForceFeedback
EXTRN	@__security_check_cookie@4:PROC
EXTRN	__CxxThrowException@8:PROC
EXTRN	___CxxFrameHandler3:PROC
EXTRN	_memset:PROC
EXTRN	??_7type_info@@6B@:QWORD			; type_info::`vftable'
EXTRN	?gStringMgr@@3PAVC_String@@A:DWORD		; gStringMgr
EXTRN	?gCursors@@3PAPAUHICON__@@A:BYTE		; gCursors
EXTRN	?PlayerOptions@@3VPlayerOptionsClass@@A:BYTE	; PlayerOptions
EXTRN	?gpDIDevice@@3PAPAUIDirectInputDevice8A@@A:BYTE	; gpDIDevice
EXTRN	?gTotalJoy@@3HA:DWORD				; gTotalJoy
EXTRN	?gDIDevNames@@3PAPADA:BYTE			; gDIDevNames
EXTRN	?IO@@3VSIMLIB_IO_CLASS@@A:BYTE			; IO
EXTRN	?JoyScale@@3MA:DWORD				; JoyScale
EXTRN	?RudderScale@@3MA:DWORD				; RudderScale
EXTRN	?ThrottleScale@@3MA:DWORD			; ThrottleScale
EXTRN	?Rudder@@3UtagRECT@@A:BYTE			; Rudder
EXTRN	?Throttle@@3UtagRECT@@A:BYTE			; Throttle
EXTRN	?UserFunctionTable@@3VInputFunctionHashTable@@A:BYTE ; UserFunctionTable
EXTRN	?FalconDataDirectory@@3PADA:BYTE		; FalconDataDirectory
EXTRN	?gMainHandler@@3PAVC_Handler@@A:DWORD		; gMainHandler
EXTRN	?KeyDescrips@@3PAPADA:DWORD			; KeyDescrips
EXTRN	?Cluster@@3JA:DWORD				; Cluster
EXTRN	?g_bEmptyFilenameFix@@3_NA:BYTE			; g_bEmptyFilenameFix
EXTRN	?mHelmetIsUR@@3JA:DWORD				; mHelmetIsUR
EXTRN	?mHelmetID@@3JA:DWORD				; mHelmetID
EXTRN	?setABdetent@@3HA:DWORD				; setABdetent
EXTRN	?setIdleCutoff@@3HA:DWORD			; setIdleCutoff
EXTRN	?NumberOfPOVs@@3IA:DWORD			; NumberOfPOVs
EXTRN	?hasForceFeedback@@3HA:DWORD			; hasForceFeedback
EXTRN	?g_nSaturationSmall@@3HA:DWORD			; g_nSaturationSmall
EXTRN	?g_nSaturationMedium@@3HA:DWORD			; g_nSaturationMedium
EXTRN	?g_nSaturationLarge@@3HA:DWORD			; g_nSaturationLarge
EXTRN	?g_nDeadzoneSmall@@3HA:DWORD			; g_nDeadzoneSmall
EXTRN	?g_nDeadzoneMedium@@3HA:DWORD			; g_nDeadzoneMedium
EXTRN	?g_nDeadzoneLarge@@3HA:DWORD			; g_nDeadzoneLarge
EXTRN	?g_nDeadzoneHuge@@3HA:DWORD			; g_nDeadzoneHuge
EXTRN	?g_nMouseLookSensMax@@3HA:DWORD			; g_nMouseLookSensMax
EXTRN	?g_nMouseLookSensMin@@3HA:DWORD			; g_nMouseLookSensMin
EXTRN	?g_nMouseWheelSensMax@@3HA:DWORD		; g_nMouseWheelSensMax
EXTRN	?g_nMouseWheelSensMin@@3HA:DWORD		; g_nMouseWheelSensMin
EXTRN	?g_nKeyPOVSensMax@@3HA:DWORD			; g_nKeyPOVSensMax
EXTRN	?g_nKeyPOVSensMin@@3HA:DWORD			; g_nKeyPOVSensMin
EXTRN	?DIAxisNames@@3PAUAxisIDStuff@@A:BYTE		; DIAxisNames
EXTRN	?AxisSetup@@3PAUGameAxisSetup_t@@A:BYTE		; AxisSetup
EXTRN	?AxisValueBoxWScale@@3MA:DWORD			; AxisValueBoxWScale
EXTRN	?g_bEnableTrackIR@@3_NA:BYTE			; g_bEnableTrackIR
EXTRN	___security_cookie:DWORD
EXTRN	__fltused:DWORD
_BSS	SEGMENT
_piecewise_construct DB 01H DUP (?)
	ALIGN	4

_allocator_arg DB 01H DUP (?)
_BSS	ENDS
;	COMDAT ?_Generic_object@?$_Error_objects@H@std@@2V_Generic_error_category@2@A
_BSS	SEGMENT
?_Generic_object@?$_Error_objects@H@std@@2V_Generic_error_category@2@A DD 01H DUP (?) ; std::_Error_objects<int>::_Generic_object
_BSS	ENDS
;	COMDAT ?_Iostream_object@?$_Error_objects@H@std@@2V_Iostream_error_category@2@A
_BSS	SEGMENT
?_Iostream_object@?$_Error_objects@H@std@@2V_Iostream_error_category@2@A DD 01H DUP (?) ; std::_Error_objects<int>::_Iostream_object
_BSS	ENDS
;	COMDAT ?_System_object@?$_Error_objects@H@std@@2V_System_error_category@2@A
_BSS	SEGMENT
?_System_object@?$_Error_objects@H@std@@2V_System_error_category@2@A DD 01H DUP (?) ; std::_Error_objects<int>::_System_object
_BSS	ENDS
;	COMDAT ?id@?$num_put@DV?$back_insert_iterator@V?$basic_string@DU?$char_traits@D@std@@V?$allocator@D@2@@std@@@std@@@std@@2V0locale@2@A
_BSS	SEGMENT
?id@?$num_put@DV?$back_insert_iterator@V?$basic_string@DU?$char_traits@D@std@@V?$allocator@D@2@@std@@@std@@@std@@2V0locale@2@A DD 01H DUP (?) ; std::num_put<char,std::back_insert_iterator<std::basic_string<char,std::char_traits<char>,std::allocator<char> > > >::id
_BSS	ENDS
;	COMDAT ?id@?$num_put@_WV?$back_insert_iterator@V?$basic_string@_WU?$char_traits@_W@std@@V?$allocator@_W@2@@std@@@std@@@std@@2V0locale@2@A
_BSS	SEGMENT
?id@?$num_put@_WV?$back_insert_iterator@V?$basic_string@_WU?$char_traits@_W@std@@V?$allocator@_W@2@@std@@@std@@@std@@2V0locale@2@A DD 01H DUP (?) ; std::num_put<wchar_t,std::back_insert_iterator<std::basic_string<wchar_t,std::char_traits<wchar_t>,std::allocator<wchar_t> > > >::id
_BSS	ENDS
;	COMDAT ?JoyXPrev@?1??RefreshJoystickCB@@YAXJFPAVC_Base@@@Z@4MA
_BSS	SEGMENT
?JoyXPrev@?1??RefreshJoystickCB@@YAXJFPAVC_Base@@@Z@4MA DD 01H DUP (?) ; `RefreshJoystickCB'::`2'::JoyXPrev
_BSS	ENDS
;	COMDAT ?JoyYPrev@?1??RefreshJoystickCB@@YAXJFPAVC_Base@@@Z@4MA
_BSS	SEGMENT
?JoyYPrev@?1??RefreshJoystickCB@@YAXJFPAVC_Base@@@Z@4MA DD 01H DUP (?) ; `RefreshJoystickCB'::`2'::JoyYPrev
_BSS	ENDS
;	COMDAT ?RudderPrev@?1??RefreshJoystickCB@@YAXJFPAVC_Base@@@Z@4MA
_BSS	SEGMENT
?RudderPrev@?1??RefreshJoystickCB@@YAXJFPAVC_Base@@@Z@4MA DD 01H DUP (?) ; `RefreshJoystickCB'::`2'::RudderPrev
_BSS	ENDS
;	COMDAT ?ThrottlePrev@?1??RefreshJoystickCB@@YAXJFPAVC_Base@@@Z@4MA
_BSS	SEGMENT
?ThrottlePrev@?1??RefreshJoystickCB@@YAXJFPAVC_Base@@@Z@4MA DD 01H DUP (?) ; `RefreshJoystickCB'::`2'::ThrottlePrev
_BSS	ENDS
;	COMDAT ?ABDetentPrev@?1??RefreshJoystickCB@@YAXJFPAVC_Base@@@Z@4MA
_BSS	SEGMENT
?ABDetentPrev@?1??RefreshJoystickCB@@YAXJFPAVC_Base@@@Z@4MA DD 01H DUP (?) ; `RefreshJoystickCB'::`2'::ABDetentPrev
_BSS	ENDS
;	COMDAT ?IdleCutoffPrev@?1??RefreshJoystickCB@@YAXJFPAVC_Base@@@Z@4MA
_BSS	SEGMENT
?IdleCutoffPrev@?1??RefreshJoystickCB@@YAXJFPAVC_Base@@@Z@4MA DD 01H DUP (?) ; `RefreshJoystickCB'::`2'::IdleCutoffPrev
_BSS	ENDS
;	COMDAT ?POVPrev@?1??RefreshJoystickCB@@YAXJFPAVC_Base@@@Z@4KA
_BSS	SEGMENT
?POVPrev@?1??RefreshJoystickCB@@YAXJFPAVC_Base@@@Z@4KA DD 01H DUP (?) ; `RefreshJoystickCB'::`2'::POVPrev
_BSS	ENDS
;	COMDAT ?id@?$numpunct@D@std@@2V0locale@2@A
_BSS	SEGMENT
?id@?$numpunct@D@std@@2V0locale@2@A DD 01H DUP (?)	; std::numpunct<char>::id
_BSS	ENDS
;	COMDAT ?id@?$numpunct@_W@std@@2V0locale@2@A
_BSS	SEGMENT
?id@?$numpunct@_W@std@@2V0locale@2@A DD 01H DUP (?)	; std::numpunct<wchar_t>::id
_BSS	ENDS
CRT$XCU	SEGMENT
_piecewise_construct$initializer$ DD FLAT:??__Epiecewise_construct@std@@YAXXZ
CRT$XCU	ENDS
;	COMDAT __real@469c4000
CONST	SEGMENT
__real@469c4000 DD 0469c4000r			; 20000
CONST	ENDS
;	COMDAT __real@466a6000
CONST	SEGMENT
__real@466a6000 DD 0466a6000r			; 15000
CONST	ENDS
;	COMDAT __real@447a0000
CONST	SEGMENT
__real@447a0000 DD 0447a0000r			; 1000
CONST	ENDS
;	COMDAT __real@4000000000000000
CONST	SEGMENT
__real@4000000000000000 DQ 04000000000000000r	; 2
CONST	ENDS
;	COMDAT __real@3fe0000000000000
CONST	SEGMENT
__real@3fe0000000000000 DQ 03fe0000000000000r	; 0.5
CONST	ENDS
;	COMDAT __real@00000000
CONST	SEGMENT
__real@00000000 DD 000000000r			; 0
CONST	ENDS
;	COMDAT ??_R1A@?0A@EA@_System_error_category@std@@8
rdata$r	SEGMENT
??_R1A@?0A@EA@_System_error_category@std@@8 DD FLAT:??_R0?AV_System_error_category@std@@@8 ; std::_System_error_category::`RTTI Base Class Descriptor at (0,-1,0,64)'
	DD	02H
	DD	00H
	DD	0ffffffffH
	DD	00H
	DD	040H
	DD	FLAT:??_R3_System_error_category@std@@8
rdata$r	ENDS
;	COMDAT ??_R2_System_error_category@std@@8
rdata$r	SEGMENT
??_R2_System_error_category@std@@8 DD FLAT:??_R1A@?0A@EA@_System_error_category@std@@8 ; std::_System_error_category::`RTTI Base Class Array'
	DD	FLAT:??_R1A@?0A@EA@_Generic_error_category@std@@8
	DD	FLAT:??_R1A@?0A@EA@error_category@std@@8
rdata$r	ENDS
;	COMDAT ??_R3_System_error_category@std@@8
rdata$r	SEGMENT
??_R3_System_error_category@std@@8 DD 00H		; std::_System_error_category::`RTTI Class Hierarchy Descriptor'
	DD	00H
	DD	03H
	DD	FLAT:??_R2_System_error_category@std@@8
rdata$r	ENDS
;	COMDAT ??_R0?AV_System_error_category@std@@@8
_DATA	SEGMENT
??_R0?AV_System_error_category@std@@@8 DD FLAT:??_7type_info@@6B@ ; std::_System_error_category `RTTI Type Descriptor'
	DD	00H
	DB	'.?AV_System_error_category@std@@', 00H
_DATA	ENDS
;	COMDAT ??_R4_System_error_category@std@@6B@
rdata$r	SEGMENT
??_R4_System_error_category@std@@6B@ DD 00H		; std::_System_error_category::`RTTI Complete Object Locator'
	DD	00H
	DD	00H
	DD	FLAT:??_R0?AV_System_error_category@std@@@8
	DD	FLAT:??_R3_System_error_category@std@@8
rdata$r	ENDS
;	COMDAT ??_R1A@?0A@EA@_Iostream_error_category@std@@8
rdata$r	SEGMENT
??_R1A@?0A@EA@_Iostream_error_category@std@@8 DD FLAT:??_R0?AV_Iostream_error_category@std@@@8 ; std::_Iostream_error_category::`RTTI Base Class Descriptor at (0,-1,0,64)'
	DD	02H
	DD	00H
	DD	0ffffffffH
	DD	00H
	DD	040H
	DD	FLAT:??_R3_Iostream_error_category@std@@8
rdata$r	ENDS
;	COMDAT ??_R2_Iostream_error_category@std@@8
rdata$r	SEGMENT
??_R2_Iostream_error_category@std@@8 DD FLAT:??_R1A@?0A@EA@_Iostream_error_category@std@@8 ; std::_Iostream_error_category::`RTTI Base Class Array'
	DD	FLAT:??_R1A@?0A@EA@_Generic_error_category@std@@8
	DD	FLAT:??_R1A@?0A@EA@error_category@std@@8
rdata$r	ENDS
;	COMDAT ??_R3_Iostream_error_category@std@@8
rdata$r	SEGMENT
??_R3_Iostream_error_category@std@@8 DD 00H		; std::_Iostream_error_category::`RTTI Class Hierarchy Descriptor'
	DD	00H
	DD	03H
	DD	FLAT:??_R2_Iostream_error_category@std@@8
rdata$r	ENDS
;	COMDAT ??_R0?AV_Iostream_error_category@std@@@8
_DATA	SEGMENT
??_R0?AV_Iostream_error_category@std@@@8 DD FLAT:??_7type_info@@6B@ ; std::_Iostream_error_category `RTTI Type Descriptor'
	DD	00H
	DB	'.?AV_Iostream_error_category@std@@', 00H
_DATA	ENDS
;	COMDAT ??_R4_Iostream_error_category@std@@6B@
rdata$r	SEGMENT
??_R4_Iostream_error_category@std@@6B@ DD 00H		; std::_Iostream_error_category::`RTTI Complete Object Locator'
	DD	00H
	DD	00H
	DD	FLAT:??_R0?AV_Iostream_error_category@std@@@8
	DD	FLAT:??_R3_Iostream_error_category@std@@8
rdata$r	ENDS
;	COMDAT ??_R1A@?0A@EA@_Generic_error_category@std@@8
rdata$r	SEGMENT
??_R1A@?0A@EA@_Generic_error_category@std@@8 DD FLAT:??_R0?AV_Generic_error_category@std@@@8 ; std::_Generic_error_category::`RTTI Base Class Descriptor at (0,-1,0,64)'
	DD	01H
	DD	00H
	DD	0ffffffffH
	DD	00H
	DD	040H
	DD	FLAT:??_R3_Generic_error_category@std@@8
rdata$r	ENDS
;	COMDAT ??_R2_Generic_error_category@std@@8
rdata$r	SEGMENT
??_R2_Generic_error_category@std@@8 DD FLAT:??_R1A@?0A@EA@_Generic_error_category@std@@8 ; std::_Generic_error_category::`RTTI Base Class Array'
	DD	FLAT:??_R1A@?0A@EA@error_category@std@@8
rdata$r	ENDS
;	COMDAT ??_R3_Generic_error_category@std@@8
rdata$r	SEGMENT
??_R3_Generic_error_category@std@@8 DD 00H		; std::_Generic_error_category::`RTTI Class Hierarchy Descriptor'
	DD	00H
	DD	02H
	DD	FLAT:??_R2_Generic_error_category@std@@8
rdata$r	ENDS
;	COMDAT ??_R0?AV_Generic_error_category@std@@@8
_DATA	SEGMENT
??_R0?AV_Generic_error_category@std@@@8 DD FLAT:??_7type_info@@6B@ ; std::_Generic_error_category `RTTI Type Descriptor'
	DD	00H
	DB	'.?AV_Generic_error_category@std@@', 00H
_DATA	ENDS
;	COMDAT ??_R4_Generic_error_category@std@@6B@
rdata$r	SEGMENT
??_R4_Generic_error_category@std@@6B@ DD 00H		; std::_Generic_error_category::`RTTI Complete Object Locator'
	DD	00H
	DD	00H
	DD	FLAT:??_R0?AV_Generic_error_category@std@@@8
	DD	FLAT:??_R3_Generic_error_category@std@@8
rdata$r	ENDS
;	COMDAT ??_R1A@?0A@EA@error_category@std@@8
rdata$r	SEGMENT
??_R1A@?0A@EA@error_category@std@@8 DD FLAT:??_R0?AVerror_category@std@@@8 ; std::error_category::`RTTI Base Class Descriptor at (0,-1,0,64)'
	DD	00H
	DD	00H
	DD	0ffffffffH
	DD	00H
	DD	040H
	DD	FLAT:??_R3error_category@std@@8
rdata$r	ENDS
;	COMDAT ??_R2error_category@std@@8
rdata$r	SEGMENT
??_R2error_category@std@@8 DD FLAT:??_R1A@?0A@EA@error_category@std@@8 ; std::error_category::`RTTI Base Class Array'
rdata$r	ENDS
;	COMDAT ??_R3error_category@std@@8
rdata$r	SEGMENT
??_R3error_category@std@@8 DD 00H			; std::error_category::`RTTI Class Hierarchy Descriptor'
	DD	00H
	DD	01H
	DD	FLAT:??_R2error_category@std@@8
rdata$r	ENDS
;	COMDAT ??_R0?AVerror_category@std@@@8
_DATA	SEGMENT
??_R0?AVerror_category@std@@@8 DD FLAT:??_7type_info@@6B@ ; std::error_category `RTTI Type Descriptor'
	DD	00H
	DB	'.?AVerror_category@std@@', 00H
_DATA	ENDS
;	COMDAT ??_R4error_category@std@@6B@
rdata$r	SEGMENT
??_R4error_category@std@@6B@ DD 00H			; std::error_category::`RTTI Complete Object Locator'
	DD	00H
	DD	00H
	DD	FLAT:??_R0?AVerror_category@std@@@8
	DD	FLAT:??_R3error_category@std@@8
rdata$r	ENDS
;	COMDAT ??_C@_0BA@JFNIOLAK@string?5too?5long?$AA@
CONST	SEGMENT
??_C@_0BA@JFNIOLAK@string?5too?5long?$AA@ DB 'string too long', 00H ; `string'
CONST	ENDS
;	COMDAT ??_C@_0BI@CFPLBAOH@invalid?5string?5position?$AA@
CONST	SEGMENT
??_C@_0BI@CFPLBAOH@invalid?5string?5position?$AA@ DB 'invalid string posi'
	DB	'tion', 00H					; `string'
CONST	ENDS
;	COMDAT ??_C@_0N@GAAPHFEJ@Thrustmaster?$AA@
CONST	SEGMENT
??_C@_0N@GAAPHFEJ@Thrustmaster?$AA@ DB 'Thrustmaster', 00H ; `string'
CONST	ENDS
;	COMDAT ??_C@_02IDBFPDIL@tm?$AA@
CONST	SEGMENT
??_C@_02IDBFPDIL@tm?$AA@ DB 'tm', 00H			; `string'
CONST	ENDS
;	COMDAT ??_C@_0BG@KLGACDKK@HOTAS?5Cougar?5Joystick?$AA@
CONST	SEGMENT
??_C@_0BG@KLGACDKK@HOTAS?5Cougar?5Joystick?$AA@ DB 'HOTAS Cougar Joystick'
	DB	00H						; `string'
CONST	ENDS
;	COMDAT ??_C@_06JMBGPIAA@laptop?$AA@
CONST	SEGMENT
??_C@_06JMBGPIAA@laptop?$AA@ DB 'laptop', 00H		; `string'
CONST	ENDS
;	COMDAT ??_C@_0BP@FOPAGOHB@?$CFs?5?$CFd?5?$CFd?5?$CFx?5?$CFx?5?$CFx?5?$CFx?5?$CFd?5?$CF?$FL?$FO?6?$FNs?$AA@
CONST	SEGMENT
??_C@_0BP@FOPAGOHB@?$CFs?5?$CFd?5?$CFd?5?$CFx?5?$CFx?5?$CFx?5?$CFx?5?$CFd?5?$CF?$FL?$FO?6?$FNs?$AA@ DB '%'
	DB	's %d %d %x %x %x %x %d %[^', 0aH, ']s', 00H	; `string'
CONST	ENDS
;	COMDAT ??_C@_02BMJICGCB@rt?$AA@
CONST	SEGMENT
??_C@_02BMJICGCB@rt?$AA@ DB 'rt', 00H			; `string'
CONST	ENDS
;	COMDAT ??_C@_0BJ@IKOFGMEL@?$CFs?2config?2keystrokes?4key?$AA@
CONST	SEGMENT
??_C@_0BJ@IKOFGMEL@?$CFs?2config?2keystrokes?4key?$AA@ DB '%s\config\keys'
	DB	'trokes.key', 00H				; `string'
CONST	ENDS
;	COMDAT ??_C@_0N@IAEPOJDM@config?2?$CK?4KEY?$AA@
CONST	SEGMENT
??_C@_0N@IAEPOJDM@config?2?$CK?4KEY?$AA@ DB 'config\*.KEY', 00H ; `string'
CONST	ENDS
;	COMDAT ??_C@_01KDCPPGHE@r?$AA@
CONST	SEGMENT
??_C@_01KDCPPGHE@r?$AA@ DB 'r', 00H			; `string'
CONST	ENDS
;	COMDAT ??_C@_0O@KLAEKGNF@config?2?$CFs?4key?$AA@
CONST	SEGMENT
??_C@_0O@KLAEKGNF@config?2?$CFs?4key?$AA@ DB 'config\%s.key', 00H ; `string'
CONST	ENDS
;	COMDAT ??_C@_0BG@LPBAKBJO@?$CFs?5?$CFd?5?$CFd?5?93?5?$CFd?50x0?50?6?$AA@
CONST	SEGMENT
??_C@_0BG@LPBAKBJO@?$CFs?5?$CFd?5?$CFd?5?93?5?$CFd?50x0?50?6?$AA@ DB '%s '
	DB	'%d %d -3 %d 0x0 0', 0aH, 00H		; `string'
CONST	ENDS
;	COMDAT ??_C@_0BF@CPNLFIBF@?$CFs?5?$CFd?5?$CFd?5?92?50?50x0?50?6?$AA@
CONST	SEGMENT
??_C@_0BF@CPNLFIBF@?$CFs?5?$CFd?5?$CFd?5?92?50?50x0?50?6?$AA@ DB '%s %d %'
	DB	'd -2 0 0x0 0', 0aH, 00H			; `string'
CONST	ENDS
;	COMDAT ??_C@_0BO@NJENKKIJ@?$CFs?5?$CFd?5?$CFd?5?$CF?$CDX?5?$CFd?5?$CF?$CDX?5?$CFd?5?$CFd?5?$CFs?6?$AA@
CONST	SEGMENT
??_C@_0BO@NJENKKIJ@?$CFs?5?$CFd?5?$CFd?5?$CF?$CDX?5?$CFd?5?$CF?$CDX?5?$CFd?5?$CFd?5?$CFs?6?$AA@ DB '%'
	DB	's %d %d %#X %d %#X %d %d %s', 0aH, 00H	; `string'
CONST	ENDS
;	COMDAT ??_C@_0BO@EHHCAPGE@?$CFs?5?$CFd?5?$CFd?5?$CF?$CDX?5?$CFX?5?$CF?$CDX?5?$CFX?5?$CFd?5?$CFs?6?$AA@
CONST	SEGMENT
??_C@_0BO@EHHCAPGE@?$CFs?5?$CFd?5?$CFd?5?$CF?$CDX?5?$CFX?5?$CF?$CDX?5?$CFX?5?$CFd?5?$CFs?6?$AA@ DB '%'
	DB	's %d %d %#X %X %#X %X %d %s', 0aH, 00H	; `string'
CONST	ENDS
;	COMDAT ??_C@_06HBILFICH@?$CFc?$CFs?$CFc?$AA@
CONST	SEGMENT
??_C@_06HBILFICH@?$CFc?$CFs?$CFc?$AA@ DB '%c%s%c', 00H	; `string'
CONST	ENDS
;	COMDAT ??_C@_02BKFDOEMK@wt?$AA@
CONST	SEGMENT
??_C@_02BKFDOEMK@wt?$AA@ DB 'wt', 00H			; `string'
CONST	ENDS
;	COMDAT ??_C@_0BB@FEJPLKOE@?$CFs?2config?2?$CFs?4key?$AA@
CONST	SEGMENT
??_C@_0BB@FEJPLKOE@?$CFs?2config?2?$CFs?4key?$AA@ DB '%s\config\%s.key', 00H ; `string'
CONST	ENDS
;	COMDAT ??_C@_0M@LLNEAKEK@?$CFs?$CFs?5?3?5?$CFs?$CFs?$AA@
CONST	SEGMENT
??_C@_0M@LLNEAKEK@?$CFs?$CFs?5?3?5?$CFs?$CFs?$AA@ DB '%s%s : %s%s', 00H ; `string'
CONST	ENDS
;	COMDAT ??_C@_01CLKCMJKC@?5?$AA@
CONST	SEGMENT
??_C@_01CLKCMJKC@?5?$AA@ DB ' ', 00H			; `string'
CONST	ENDS
;	COMDAT ??_C@_01MIFGBAGJ@?$CL?$AA@
CONST	SEGMENT
??_C@_01MIFGBAGJ@?$CL?$AA@ DB '+', 00H			; `string'
CONST	ENDS
;	COMDAT ??_C@_02JDPG@rb?$AA@
CONST	SEGMENT
??_C@_02JDPG@rb?$AA@ DB 'rb', 00H			; `string'
CONST	ENDS
;	COMDAT ??_C@_0BH@HILJPBML@?$CFs?2config?2joystick?4dat?$AA@
CONST	SEGMENT
??_C@_0BH@HILJPBML@?$CFs?2config?2joystick?4dat?$AA@ DB '%s\config\joysti'
	DB	'ck.dat', 00H				; `string'
CONST	ENDS
;	COMDAT ??_C@_0L@EEMIHBGL@?$CFs?5?$CFd?5?3?5?$CFs?$AA@
CONST	SEGMENT
??_C@_0L@EEMIHBGL@?$CFs?5?$CFd?5?3?5?$CFs?$AA@ DB '%s %d : %s', 00H ; `string'
CONST	ENDS
;	COMDAT ??_C@_05DIALNFFA@?$CFs?5?$CFd?$AA@
CONST	SEGMENT
??_C@_05DIALNFFA@?$CFs?5?$CFd?$AA@ DB '%s %d', 00H	; `string'
CONST	ENDS
;	COMDAT ??_C@_06FHFOAHML@system?$AA@
CONST	SEGMENT
??_C@_06FHFOAHML@system?$AA@ DB 'system', 00H		; `string'
CONST	ENDS
;	COMDAT ??_7_System_error_category@std@@6B@
CONST	SEGMENT
??_7_System_error_category@std@@6B@ DD FLAT:??_R4_System_error_category@std@@6B@ ; std::_System_error_category::`vftable'
	DD	FLAT:??_E_System_error_category@std@@UAEPAXI@Z
	DD	FLAT:?name@_System_error_category@std@@UBEPBDXZ
	DD	FLAT:?message@_System_error_category@std@@UBE?AV?$basic_string@DU?$char_traits@D@std@@V?$allocator@D@2@@2@H@Z
	DD	FLAT:?default_error_condition@_System_error_category@std@@UBE?AVerror_condition@2@H@Z
	DD	FLAT:?equivalent@error_category@std@@UBE_NABVerror_code@2@H@Z
	DD	FLAT:?equivalent@error_category@std@@UBE_NHABVerror_condition@2@@Z
CONST	ENDS
;	COMDAT ??_C@_0BG@PADBLCHM@iostream?5stream?5error?$AA@
CONST	SEGMENT
??_C@_0BG@PADBLCHM@iostream?5stream?5error?$AA@ DB 'iostream stream error'
	DB	00H						; `string'
CONST	ENDS
;	COMDAT ??_C@_08LLGCOLLL@iostream?$AA@
CONST	SEGMENT
??_C@_08LLGCOLLL@iostream?$AA@ DB 'iostream', 00H	; `string'
CONST	ENDS
;	COMDAT ??_7_Iostream_error_category@std@@6B@
CONST	SEGMENT
??_7_Iostream_error_category@std@@6B@ DD FLAT:??_R4_Iostream_error_category@std@@6B@ ; std::_Iostream_error_category::`vftable'
	DD	FLAT:??_E_Iostream_error_category@std@@UAEPAXI@Z
	DD	FLAT:?name@_Iostream_error_category@std@@UBEPBDXZ
	DD	FLAT:?message@_Iostream_error_category@std@@UBE?AV?$basic_string@DU?$char_traits@D@std@@V?$allocator@D@2@@2@H@Z
	DD	FLAT:?default_error_condition@error_category@std@@UBE?AVerror_condition@2@H@Z
	DD	FLAT:?equivalent@error_category@std@@UBE_NABVerror_code@2@H@Z
	DD	FLAT:?equivalent@error_category@std@@UBE_NHABVerror_condition@2@@Z
CONST	ENDS
;	COMDAT ??_C@_0O@BFJCFAAK@unknown?5error?$AA@
CONST	SEGMENT
??_C@_0O@BFJCFAAK@unknown?5error?$AA@ DB 'unknown error', 00H ; `string'
CONST	ENDS
;	COMDAT ??_C@_07DCLBNMLN@generic?$AA@
CONST	SEGMENT
??_C@_07DCLBNMLN@generic?$AA@ DB 'generic', 00H		; `string'
CONST	ENDS
;	COMDAT ??_7_Generic_error_category@std@@6B@
CONST	SEGMENT
??_7_Generic_error_category@std@@6B@ DD FLAT:??_R4_Generic_error_category@std@@6B@ ; std::_Generic_error_category::`vftable'
	DD	FLAT:??_E_Generic_error_category@std@@UAEPAXI@Z
	DD	FLAT:?name@_Generic_error_category@std@@UBEPBDXZ
	DD	FLAT:?message@_Generic_error_category@std@@UBE?AV?$basic_string@DU?$char_traits@D@std@@V?$allocator@D@2@@2@H@Z
	DD	FLAT:?default_error_condition@error_category@std@@UBE?AVerror_condition@2@H@Z
	DD	FLAT:?equivalent@error_category@std@@UBE_NABVerror_code@2@H@Z
	DD	FLAT:?equivalent@error_category@std@@UBE_NHABVerror_condition@2@@Z
CONST	ENDS
;	COMDAT ??_7error_category@std@@6B@
CONST	SEGMENT
??_7error_category@std@@6B@ DD FLAT:??_R4error_category@std@@6B@ ; std::error_category::`vftable'
	DD	FLAT:??_Eerror_category@std@@UAEPAXI@Z
	DD	FLAT:__purecall
	DD	FLAT:__purecall
	DD	FLAT:?default_error_condition@error_category@std@@UBE?AVerror_condition@2@H@Z
	DD	FLAT:?equivalent@error_category@std@@UBE_NABVerror_code@2@H@Z
	DD	FLAT:?equivalent@error_category@std@@UBE_NHABVerror_condition@2@@Z
CONST	ENDS
;	COMDAT ??_C@_00CNPNBAHC@?$AA@
CONST	SEGMENT
??_C@_00CNPNBAHC@?$AA@ DB 00H				; `string'
CONST	ENDS
;	COMDAT xdata$x
xdata$x	SEGMENT
__unwindtable$??$construct@PADAAPAD@?$allocator@D@std@@QAEXPAPADAAPAD@Z DD 0ffffffffH
	DD	FLAT:__unwindfunclet$??$construct@PADAAPAD@?$allocator@D@std@@QAEXPAPADAAPAD@Z$0
__ehfuncinfo$??$construct@PADAAPAD@?$allocator@D@std@@QAEXPAPADAAPAD@Z DD 019930522H
	DD	01H
	DD	FLAT:__unwindtable$??$construct@PADAAPAD@?$allocator@D@std@@QAEXPAPADAAPAD@Z
	DD	2 DUP(00H)
	DD	2 DUP(00H)
	DD	00H
	DD	01H
xdata$x	ENDS
xdata$x	SEGMENT
__unwindtable$?SetHdrStatusLine@@YAHPAVC_Window@@PAVC_Button@@PAVC_Line@@AAUKeyMap@@UHotSpotStruct@@H@Z DD 0ffffffffH
	DD	FLAT:__unwindfunclet$?SetHdrStatusLine@@YAHPAVC_Window@@PAVC_Button@@PAVC_Line@@AAUKeyMap@@UHotSpotStruct@@H@Z$0
__unwindtable$?UpdateMappingDescrip@@YAHPAVC_Window@@PAVC_Text@@HPADH@Z DD 0ffffffffH
	DD	FLAT:__unwindfunclet$?UpdateMappingDescrip@@YAHPAVC_Window@@PAVC_Text@@HPADH@Z$0
__unwindtable$?UpdateKeyMap@@YAHPAVC_Window@@PAVC_Button@@HAAUKeyMap@@UHotSpotStruct@@H@Z DD 0ffffffffH
	DD	FLAT:__unwindfunclet$?UpdateKeyMap@@YAHPAVC_Window@@PAVC_Button@@HAAUKeyMap@@UHotSpotStruct@@H@Z$0
__unwindtable$?AddKeyMapLines@@YAHPAVC_Window@@PAVC_Line@@1H@Z DD 0ffffffffH
	DD	FLAT:__unwindfunclet$?AddKeyMapLines@@YAHPAVC_Window@@PAVC_Line@@1H@Z$0
	DD	0ffffffffH
	DD	FLAT:__unwindfunclet$?AddKeyMapLines@@YAHPAVC_Window@@PAVC_Line@@1H@Z$1
__ehfuncinfo$?SetHdrStatusLine@@YAHPAVC_Window@@PAVC_Button@@PAVC_Line@@AAUKeyMap@@UHotSpotStruct@@H@Z DD 019930522H
	DD	01H
	DD	FLAT:__unwindtable$?SetHdrStatusLine@@YAHPAVC_Window@@PAVC_Button@@PAVC_Line@@AAUKeyMap@@UHotSpotStruct@@H@Z
	DD	2 DUP(00H)
	DD	2 DUP(00H)
	DD	00H
	DD	01H
__ehfuncinfo$?UpdateMappingDescrip@@YAHPAVC_Window@@PAVC_Text@@HPADH@Z DD 019930522H
	DD	01H
	DD	FLAT:__unwindtable$?UpdateMappingDescrip@@YAHPAVC_Window@@PAVC_Text@@HPADH@Z
	DD	2 DUP(00H)
	DD	2 DUP(00H)
	DD	00H
	DD	01H
__ehfuncinfo$?UpdateKeyMap@@YAHPAVC_Window@@PAVC_Button@@HAAUKeyMap@@UHotSpotStruct@@H@Z DD 019930522H
	DD	01H
	DD	FLAT:__unwindtable$?UpdateKeyMap@@YAHPAVC_Window@@PAVC_Button@@HAAUKeyMap@@UHotSpotStruct@@H@Z
	DD	2 DUP(00H)
	DD	2 DUP(00H)
	DD	00H
	DD	01H
__ehfuncinfo$?AddKeyMapLines@@YAHPAVC_Window@@PAVC_Line@@1H@Z DD 019930522H
	DD	02H
	DD	FLAT:__unwindtable$?AddKeyMapLines@@YAHPAVC_Window@@PAVC_Line@@1H@Z
	DD	2 DUP(00H)
	DD	2 DUP(00H)
	DD	00H
	DD	01H
xdata$x	ENDS
;	COMDAT xdata$x
xdata$x	SEGMENT
__catchsym$?_Copy@?$basic_string@DU?$char_traits@D@std@@V?$allocator@D@2@@std@@QAEXII@Z$5 DD 040H
	DD	00H
	DD	00H
	DD	FLAT:__catch$?_Copy@?$basic_string@DU?$char_traits@D@std@@V?$allocator@D@2@@std@@QAEXII@Z$0
__catchsym$?_Copy@?$basic_string@DU?$char_traits@D@std@@V?$allocator@D@2@@std@@QAEXII@Z$4 DD 040H
	DD	00H
	DD	00H
	DD	FLAT:__catch$?_Copy@?$basic_string@DU?$char_traits@D@std@@V?$allocator@D@2@@std@@QAEXII@Z$1
__unwindtable$?_Copy@?$basic_string@DU?$char_traits@D@std@@V?$allocator@D@2@@std@@QAEXII@Z DD 0ffffffffH
	DD	00H
	DD	0ffffffffH
	DD	00H
	DD	01H
	DD	00H
	DD	01H
	DD	00H
__ehfuncinfo$?_Copy@?$basic_string@DU?$char_traits@D@std@@V?$allocator@D@2@@std@@QAEXII@Z DD 019930522H
	DD	04H
	DD	FLAT:__unwindtable$?_Copy@?$basic_string@DU?$char_traits@D@std@@V?$allocator@D@2@@std@@QAEXII@Z
	DD	02H
	DD	FLAT:__tryblocktable$?_Copy@?$basic_string@DU?$char_traits@D@std@@V?$allocator@D@2@@std@@QAEXII@Z
	DD	2 DUP(00H)
	DD	00H
	DD	01H
__tryblocktable$?_Copy@?$basic_string@DU?$char_traits@D@std@@V?$allocator@D@2@@std@@QAEXII@Z DD 02H
	DD	02H
	DD	03H
	DD	01H
	DD	FLAT:__catchsym$?_Copy@?$basic_string@DU?$char_traits@D@std@@V?$allocator@D@2@@std@@QAEXII@Z$4
	DD	00H
	DD	00H
	DD	03H
	DD	01H
	DD	FLAT:__catchsym$?_Copy@?$basic_string@DU?$char_traits@D@std@@V?$allocator@D@2@@std@@QAEXII@Z$5
xdata$x	ENDS
CRT$XCU	SEGMENT
_allocator_arg$initializer$ DD FLAT:??__Eallocator_arg@std@@YAXXZ
CRT$XCU	ENDS
;	COMDAT CRT$XCU
CRT$XCU	SEGMENT
?_Generic_object$initializer$@?$_Error_objects@H@std@@2P6AXXZA DD FLAT:??__E?_Generic_object@?$_Error_objects@H@std@@2V_Generic_error_category@2@A@@YAXXZ ; std::_Error_objects<int>::_Generic_object$initializer$
CRT$XCU	ENDS
;	COMDAT CRT$XCU
CRT$XCU	SEGMENT
?_Iostream_object$initializer$@?$_Error_objects@H@std@@2P6AXXZA DD FLAT:??__E?_Iostream_object@?$_Error_objects@H@std@@2V_Iostream_error_category@2@A@@YAXXZ ; std::_Error_objects<int>::_Iostream_object$initializer$
CRT$XCU	ENDS
;	COMDAT CRT$XCU
CRT$XCU	SEGMENT
?_System_object$initializer$@?$_Error_objects@H@std@@2P6AXXZA DD FLAT:??__E?_System_object@?$_Error_objects@H@std@@2V_System_error_category@2@A@@YAXXZ ; std::_Error_objects<int>::_System_object$initializer$
CRT$XCU	ENDS
;	COMDAT CRT$XCU
CRT$XCU	SEGMENT
?id$initializer$@?$num_put@DV?$back_insert_iterator@V?$basic_string@DU?$char_traits@D@std@@V?$allocator@D@2@@std@@@std@@@std@@2P6AXXZA DD FLAT:??__E?id@?$num_put@DV?$back_insert_iterator@V?$basic_string@DU?$char_traits@D@std@@V?$allocator@D@2@@std@@@std@@@std@@2V0locale@2@A@@YAXXZ ; std::num_put<char,std::back_insert_iterator<std::basic_string<char,std::char_traits<char>,std::allocator<char> > > >::id$initializer$
CRT$XCU	ENDS
;	COMDAT CRT$XCU
CRT$XCU	SEGMENT
?id$initializer$@?$num_put@_WV?$back_insert_iterator@V?$basic_string@_WU?$char_traits@_W@std@@V?$allocator@_W@2@@std@@@std@@@std@@2P6AXXZA DD FLAT:??__E?id@?$num_put@_WV?$back_insert_iterator@V?$basic_string@_WU?$char_traits@_W@std@@V?$allocator@_W@2@@std@@@std@@@std@@2V0locale@2@A@@YAXXZ ; std::num_put<wchar_t,std::back_insert_iterator<std::basic_string<wchar_t,std::char_traits<wchar_t>,std::allocator<wchar_t> > > >::id$initializer$
CRT$XCU	ENDS
;	COMDAT CRT$XCU
CRT$XCU	SEGMENT
?id$initializer$@?$numpunct@D@std@@2P6AXXZA DD FLAT:??__E?id@?$numpunct@D@std@@2V0locale@2@A@@YAXXZ ; std::numpunct<char>::id$initializer$
CRT$XCU	ENDS
;	COMDAT CRT$XCU
CRT$XCU	SEGMENT
?id$initializer$@?$numpunct@_W@std@@2P6AXXZA DD FLAT:??__E?id@?$numpunct@_W@std@@2V0locale@2@A@@YAXXZ ; std::numpunct<wchar_t>::id$initializer$
CRT$XCU	ENDS
; Function compile flags: /Odtp
; File c:\program files (x86)\microsoft visual studio 11.0\vc\include\xmemory0
;	COMDAT ??$destroy@PAD@?$allocator@D@std@@QAEXPAPAD@Z
_TEXT	SEGMENT
_this$ = -4						; size = 4
__Ptr$ = 8						; size = 4
??$destroy@PAD@?$allocator@D@std@@QAEXPAPAD@Z PROC	; std::allocator<char>::destroy<char *>, COMDAT
; _this$ = ecx

; 621  : 		void destroy(_Uty *_Ptr)

	push	ebp
	mov	ebp, esp
	push	ecx
	mov	DWORD PTR _this$[ebp], ecx

; 622  : 		{	// destroy object at _Ptr
; 623  : 		_Ptr->~_Uty();
; 624  : 		}

	mov	esp, ebp
	pop	ebp
	ret	4
??$destroy@PAD@?$allocator@D@std@@QAEXPAPAD@Z ENDP	; std::allocator<char>::destroy<char *>
_TEXT	ENDS
; Function compile flags: /Odtp
; File c:\program files (x86)\microsoft visual studio 11.0\vc\include\xmemory0
;	COMDAT ??$construct@PADAAPAD@?$allocator@D@std@@QAEXPAPADAAPAD@Z
_TEXT	SEGMENT
$T2 = -28						; size = 4
_this$ = -24						; size = 4
tv73 = -20						; size = 4
$T3 = -16						; size = 4
__$EHRec$ = -12						; size = 12
__Ptr$ = 8						; size = 4
__V0$ = 12						; size = 4
??$construct@PADAAPAD@?$allocator@D@std@@QAEXPAPADAAPAD@Z PROC ; std::allocator<char>::construct<char *,char * &>, COMDAT
; _this$ = ecx

; 617  : _VARIADIC_EXPAND_0X(_ALLOC_MEMBER_CONSTRUCT, , , , )

	push	ebp
	mov	ebp, esp
	push	-1
	push	__ehhandler$??$construct@PADAAPAD@?$allocator@D@std@@QAEXPAPADAAPAD@Z
	mov	eax, DWORD PTR fs:0
	push	eax
	sub	esp, 16					; 00000010H
	mov	eax, DWORD PTR ___security_cookie
	xor	eax, ebp
	push	eax
	lea	eax, DWORD PTR __$EHRec$[ebp]
	mov	DWORD PTR fs:0, eax
	mov	DWORD PTR _this$[ebp], ecx
	mov	eax, DWORD PTR __Ptr$[ebp]
	push	eax
	push	4
	call	??2@YAPAXIPAX@Z				; operator new
	add	esp, 8
	mov	DWORD PTR $T3[ebp], eax
	mov	DWORD PTR __$EHRec$[ebp+8], 0
	cmp	DWORD PTR $T3[ebp], 0
	je	SHORT $LN3@construct
	mov	ecx, DWORD PTR __V0$[ebp]
	push	ecx
	call	??$forward@AAPAD@std@@YAAAPADAAPAD@Z	; std::forward<char * &>
	add	esp, 4
	mov	edx, DWORD PTR $T3[ebp]
	mov	eax, DWORD PTR [eax]
	mov	DWORD PTR [edx], eax
	mov	ecx, DWORD PTR $T3[ebp]
	mov	DWORD PTR tv73[ebp], ecx
	jmp	SHORT $LN4@construct
$LN3@construct:
	mov	DWORD PTR tv73[ebp], 0
$LN4@construct:
	mov	edx, DWORD PTR tv73[ebp]
	mov	DWORD PTR $T2[ebp], edx
	mov	DWORD PTR __$EHRec$[ebp+8], -1
	mov	ecx, DWORD PTR __$EHRec$[ebp]
	mov	DWORD PTR fs:0, ecx
	pop	ecx
	mov	esp, ebp
	pop	ebp
	ret	8
_TEXT	ENDS
;	COMDAT text$x
text$x	SEGMENT
__unwindfunclet$??$construct@PADAAPAD@?$allocator@D@std@@QAEXPAPADAAPAD@Z$0:
	mov	eax, DWORD PTR __Ptr$[ebp]
	push	eax
	mov	eax, DWORD PTR $T3[ebp]
	push	eax
	call	??3@YAXPAX0@Z				; operator delete
	add	esp, 8
	ret	0
__ehhandler$??$construct@PADAAPAD@?$allocator@D@std@@QAEXPAPADAAPAD@Z:
	mov	edx, DWORD PTR [esp+8]
	lea	eax, DWORD PTR [edx+12]
	mov	ecx, DWORD PTR [edx-20]
	xor	ecx, eax
	call	@__security_check_cookie@4
	mov	eax, OFFSET __ehfuncinfo$??$construct@PADAAPAD@?$allocator@D@std@@QAEXPAPADAAPAD@Z
	jmp	___CxxFrameHandler3
text$x	ENDS
??$construct@PADAAPAD@?$allocator@D@std@@QAEXPAPADAAPAD@Z ENDP ; std::allocator<char>::construct<char *,char * &>
; Function compile flags: /Odtp
; File c:\program files (x86)\microsoft visual studio 11.0\vc\include\xlocnum
;	COMDAT ??__E?id@?$numpunct@_W@std@@2V0locale@2@A@@YAXXZ
text$yc	SEGMENT
??__E?id@?$numpunct@_W@std@@2V0locale@2@A@@YAXXZ PROC	; `dynamic initializer for 'std::numpunct<wchar_t>::id'', COMDAT

; 155  : 		void _Getvals(wchar_t, const lconv *_Ptr, _Locinfo::_Cvtvec)

	push	ebp
	mov	ebp, esp
	push	0
	mov	ecx, OFFSET ?id@?$numpunct@_W@std@@2V0locale@2@A ; std::numpunct<wchar_t>::id
	call	??0id@locale@std@@QAE@I@Z		; std::locale::id::id
	pop	ebp
	ret	0
??__E?id@?$numpunct@_W@std@@2V0locale@2@A@@YAXXZ ENDP	; `dynamic initializer for 'std::numpunct<wchar_t>::id''
text$yc	ENDS
; Function compile flags: /Odtp
; File c:\program files (x86)\microsoft visual studio 11.0\vc\include\xlocnum
;	COMDAT ??__E?id@?$numpunct@D@std@@2V0locale@2@A@@YAXXZ
text$yc	SEGMENT
??__E?id@?$numpunct@D@std@@2V0locale@2@A@@YAXXZ PROC	; `dynamic initializer for 'std::numpunct<char>::id'', COMDAT

; 155  : 		void _Getvals(wchar_t, const lconv *_Ptr, _Locinfo::_Cvtvec)

	push	ebp
	mov	ebp, esp
	push	0
	mov	ecx, OFFSET ?id@?$numpunct@D@std@@2V0locale@2@A ; std::numpunct<char>::id
	call	??0id@locale@std@@QAE@I@Z		; std::locale::id::id
	pop	ebp
	ret	0
??__E?id@?$numpunct@D@std@@2V0locale@2@A@@YAXXZ ENDP	; `dynamic initializer for 'std::numpunct<char>::id''
text$yc	ENDS
; Function compile flags: /Odtp
; File c:\program files (x86)\microsoft visual studio 11.0\vc\include\xlocnum
;	COMDAT ??__E?id@?$num_put@_WV?$back_insert_iterator@V?$basic_string@_WU?$char_traits@_W@std@@V?$allocator@_W@2@@std@@@std@@@std@@2V0locale@2@A@@YAXXZ
text$yc	SEGMENT
??__E?id@?$num_put@_WV?$back_insert_iterator@V?$basic_string@_WU?$char_traits@_W@std@@V?$allocator@_W@2@@std@@@std@@@std@@2V0locale@2@A@@YAXXZ PROC ; `dynamic initializer for 'std::num_put<wchar_t,std::back_insert_iterator<std::basic_string<wchar_t,std::char_traits<wchar_t>,std::allocator<wchar_t> > > >::id'', COMDAT

; 155  : 		void _Getvals(wchar_t, const lconv *_Ptr, _Locinfo::_Cvtvec)

	push	ebp
	mov	ebp, esp
	push	0
	mov	ecx, OFFSET ?id@?$num_put@_WV?$back_insert_iterator@V?$basic_string@_WU?$char_traits@_W@std@@V?$allocator@_W@2@@std@@@std@@@std@@2V0locale@2@A ; std::num_put<wchar_t,std::back_insert_iterator<std::basic_string<wchar_t,std::char_traits<wchar_t>,std::allocator<wchar_t> > > >::id
	call	??0id@locale@std@@QAE@I@Z		; std::locale::id::id
	pop	ebp
	ret	0
??__E?id@?$num_put@_WV?$back_insert_iterator@V?$basic_string@_WU?$char_traits@_W@std@@V?$allocator@_W@2@@std@@@std@@@std@@2V0locale@2@A@@YAXXZ ENDP ; `dynamic initializer for 'std::num_put<wchar_t,std::back_insert_iterator<std::basic_string<wchar_t,std::char_traits<wchar_t>,std::allocator<wchar_t> > > >::id''
text$yc	ENDS
; Function compile flags: /Odtp
; File c:\program files (x86)\microsoft visual studio 11.0\vc\include\xlocnum
;	COMDAT ??__E?id@?$num_put@DV?$back_insert_iterator@V?$basic_string@DU?$char_traits@D@std@@V?$allocator@D@2@@std@@@std@@@std@@2V0locale@2@A@@YAXXZ
text$yc	SEGMENT
??__E?id@?$num_put@DV?$back_insert_iterator@V?$basic_string@DU?$char_traits@D@std@@V?$allocator@D@2@@std@@@std@@@std@@2V0locale@2@A@@YAXXZ PROC ; `dynamic initializer for 'std::num_put<char,std::back_insert_iterator<std::basic_string<char,std::char_traits<char>,std::allocator<char> > > >::id'', COMDAT

; 155  : 		void _Getvals(wchar_t, const lconv *_Ptr, _Locinfo::_Cvtvec)

	push	ebp
	mov	ebp, esp
	push	0
	mov	ecx, OFFSET ?id@?$num_put@DV?$back_insert_iterator@V?$basic_string@DU?$char_traits@D@std@@V?$allocator@D@2@@std@@@std@@@std@@2V0locale@2@A ; std::num_put<char,std::back_insert_iterator<std::basic_string<char,std::char_traits<char>,std::allocator<char> > > >::id
	call	??0id@locale@std@@QAE@I@Z		; std::locale::id::id
	pop	ebp
	ret	0
??__E?id@?$num_put@DV?$back_insert_iterator@V?$basic_string@DU?$char_traits@D@std@@V?$allocator@D@2@@std@@@std@@@std@@2V0locale@2@A@@YAXXZ ENDP ; `dynamic initializer for 'std::num_put<char,std::back_insert_iterator<std::basic_string<char,std::char_traits<char>,std::allocator<char> > > >::id''
text$yc	ENDS
; Function compile flags: /Odtp
; File c:\program files (x86)\microsoft visual studio 11.0\vc\include\xmemory0
;	COMDAT ??$destroy@PAD@?$allocator_traits@V?$allocator@D@std@@@std@@SAXAAV?$allocator@D@1@PAPAD@Z
_TEXT	SEGMENT
__Al$ = 8						; size = 4
__Ptr$ = 12						; size = 4
??$destroy@PAD@?$allocator_traits@V?$allocator@D@std@@@std@@SAXAAV?$allocator@D@1@PAPAD@Z PROC ; std::allocator_traits<std::allocator<char> >::destroy<char *>, COMDAT

; 755  : 		static void destroy(_Alloc& _Al, _Uty *_Ptr)

	push	ebp
	mov	ebp, esp

; 756  : 		{	// destroy object at _Ptr
; 757  : 		_Al.destroy(_Ptr);

	mov	eax, DWORD PTR __Ptr$[ebp]
	push	eax
	mov	ecx, DWORD PTR __Al$[ebp]
	call	??$destroy@PAD@?$allocator@D@std@@QAEXPAPAD@Z ; std::allocator<char>::destroy<char *>

; 758  : 		}

	pop	ebp
	ret	0
??$destroy@PAD@?$allocator_traits@V?$allocator@D@std@@@std@@SAXAAV?$allocator@D@1@PAPAD@Z ENDP ; std::allocator_traits<std::allocator<char> >::destroy<char *>
_TEXT	ENDS
; Function compile flags: /Odtp
; File c:\program files (x86)\microsoft visual studio 11.0\vc\include\xmemory0
;	COMDAT ??$construct@PADAAPAD@?$allocator_traits@V?$allocator@D@std@@@std@@SAXAAV?$allocator@D@1@PAPADAAPAD@Z
_TEXT	SEGMENT
__Al$ = 8						; size = 4
__Ptr$ = 12						; size = 4
__V0$ = 16						; size = 4
??$construct@PADAAPAD@?$allocator_traits@V?$allocator@D@std@@@std@@SAXAAV?$allocator@D@1@PAPADAAPAD@Z PROC ; std::allocator_traits<std::allocator<char> >::construct<char *,char * &>, COMDAT

; 751  : _VARIADIC_EXPAND_0X(_ALLOC_TRAITS_SPECIAL_CONSTRUCT, , , , )

	push	ebp
	mov	ebp, esp
	mov	eax, DWORD PTR __V0$[ebp]
	push	eax
	call	??$forward@AAPAD@std@@YAAAPADAAPAD@Z	; std::forward<char * &>
	add	esp, 4
	push	eax
	mov	ecx, DWORD PTR __Ptr$[ebp]
	push	ecx
	mov	ecx, DWORD PTR __Al$[ebp]
	call	??$construct@PADAAPAD@?$allocator@D@std@@QAEXPAPADAAPAD@Z ; std::allocator<char>::construct<char *,char * &>
	pop	ebp
	ret	0
??$construct@PADAAPAD@?$allocator_traits@V?$allocator@D@std@@@std@@SAXAAV?$allocator@D@1@PAPADAAPAD@Z ENDP ; std::allocator_traits<std::allocator<char> >::construct<char *,char * &>
_TEXT	ENDS
; Function compile flags: /Odtp
; File c:\program files (x86)\microsoft visual studio 11.0\vc\include\type_traits
;	COMDAT ??$forward@AAPAD@std@@YAAAPADAAPAD@Z
_TEXT	SEGMENT
__Arg$ = 8						; size = 4
??$forward@AAPAD@std@@YAAAPADAAPAD@Z PROC		; std::forward<char * &>, COMDAT

; 1775 : 	{	// forward an lvalue

	push	ebp
	mov	ebp, esp

; 1776 : 	return (static_cast<_Ty&&>(_Arg));

	mov	eax, DWORD PTR __Arg$[ebp]

; 1777 : 	}

	pop	ebp
	ret	0
??$forward@AAPAD@std@@YAAAPADAAPAD@Z ENDP		; std::forward<char * &>
_TEXT	ENDS
; Function compile flags: /Odtp
;	COMDAT ??__F?_System_object@?$_Error_objects@H@std@@2V_System_error_category@2@A@@YAXXZ
text$yd	SEGMENT
??__F?_System_object@?$_Error_objects@H@std@@2V_System_error_category@2@A@@YAXXZ PROC ; `dynamic atexit destructor for 'std::_Error_objects<int>::_System_object'', COMDAT
	push	ebp
	mov	ebp, esp
	mov	ecx, OFFSET ?_System_object@?$_Error_objects@H@std@@2V_System_error_category@2@A ; std::_Error_objects<int>::_System_object
	call	??1_System_error_category@std@@UAE@XZ
	pop	ebp
	ret	0
??__F?_System_object@?$_Error_objects@H@std@@2V_System_error_category@2@A@@YAXXZ ENDP ; `dynamic atexit destructor for 'std::_Error_objects<int>::_System_object''
text$yd	ENDS
; Function compile flags: /Odtp
; File c:\program files (x86)\microsoft visual studio 11.0\vc\include\xmemory0
;	COMDAT ??__E?_System_object@?$_Error_objects@H@std@@2V_System_error_category@2@A@@YAXXZ
text$yc	SEGMENT
??__E?_System_object@?$_Error_objects@H@std@@2V_System_error_category@2@A@@YAXXZ PROC ; `dynamic initializer for 'std::_Error_objects<int>::_System_object'', COMDAT

; 627  : 		{	// estimate maximum array size

	push	ebp
	mov	ebp, esp
	mov	ecx, OFFSET ?_System_object@?$_Error_objects@H@std@@2V_System_error_category@2@A ; std::_Error_objects<int>::_System_object
	call	??0_System_error_category@std@@QAE@XZ	; std::_System_error_category::_System_error_category
	push	OFFSET ??__F?_System_object@?$_Error_objects@H@std@@2V_System_error_category@2@A@@YAXXZ ; `dynamic atexit destructor for 'std::_Error_objects<int>::_System_object''
	call	_atexit
	add	esp, 4
	pop	ebp
	ret	0
??__E?_System_object@?$_Error_objects@H@std@@2V_System_error_category@2@A@@YAXXZ ENDP ; `dynamic initializer for 'std::_Error_objects<int>::_System_object''
text$yc	ENDS
; Function compile flags: /Odtp
;	COMDAT ??__F?_Iostream_object@?$_Error_objects@H@std@@2V_Iostream_error_category@2@A@@YAXXZ
text$yd	SEGMENT
??__F?_Iostream_object@?$_Error_objects@H@std@@2V_Iostream_error_category@2@A@@YAXXZ PROC ; `dynamic atexit destructor for 'std::_Error_objects<int>::_Iostream_object'', COMDAT
	push	ebp
	mov	ebp, esp
	mov	ecx, OFFSET ?_Iostream_object@?$_Error_objects@H@std@@2V_Iostream_error_category@2@A ; std::_Error_objects<int>::_Iostream_object
	call	??1_Iostream_error_category@std@@UAE@XZ
	pop	ebp
	ret	0
??__F?_Iostream_object@?$_Error_objects@H@std@@2V_Iostream_error_category@2@A@@YAXXZ ENDP ; `dynamic atexit destructor for 'std::_Error_objects<int>::_Iostream_object''
text$yd	ENDS
; Function compile flags: /Odtp
; File c:\program files (x86)\microsoft visual studio 11.0\vc\include\xmemory0
;	COMDAT ??__E?_Iostream_object@?$_Error_objects@H@std@@2V_Iostream_error_category@2@A@@YAXXZ
text$yc	SEGMENT
??__E?_Iostream_object@?$_Error_objects@H@std@@2V_Iostream_error_category@2@A@@YAXXZ PROC ; `dynamic initializer for 'std::_Error_objects<int>::_Iostream_object'', COMDAT

; 627  : 		{	// estimate maximum array size

	push	ebp
	mov	ebp, esp
	mov	ecx, OFFSET ?_Iostream_object@?$_Error_objects@H@std@@2V_Iostream_error_category@2@A ; std::_Error_objects<int>::_Iostream_object
	call	??0_Iostream_error_category@std@@QAE@XZ	; std::_Iostream_error_category::_Iostream_error_category
	push	OFFSET ??__F?_Iostream_object@?$_Error_objects@H@std@@2V_Iostream_error_category@2@A@@YAXXZ ; `dynamic atexit destructor for 'std::_Error_objects<int>::_Iostream_object''
	call	_atexit
	add	esp, 4
	pop	ebp
	ret	0
??__E?_Iostream_object@?$_Error_objects@H@std@@2V_Iostream_error_category@2@A@@YAXXZ ENDP ; `dynamic initializer for 'std::_Error_objects<int>::_Iostream_object''
text$yc	ENDS
; Function compile flags: /Odtp
;	COMDAT ??__F?_Generic_object@?$_Error_objects@H@std@@2V_Generic_error_category@2@A@@YAXXZ
text$yd	SEGMENT
??__F?_Generic_object@?$_Error_objects@H@std@@2V_Generic_error_category@2@A@@YAXXZ PROC ; `dynamic atexit destructor for 'std::_Error_objects<int>::_Generic_object'', COMDAT
	push	ebp
	mov	ebp, esp
	mov	ecx, OFFSET ?_Generic_object@?$_Error_objects@H@std@@2V_Generic_error_category@2@A ; std::_Error_objects<int>::_Generic_object
	call	??1_Generic_error_category@std@@UAE@XZ
	pop	ebp
	ret	0
??__F?_Generic_object@?$_Error_objects@H@std@@2V_Generic_error_category@2@A@@YAXXZ ENDP ; `dynamic atexit destructor for 'std::_Error_objects<int>::_Generic_object''
text$yd	ENDS
; Function compile flags: /Odtp
; File c:\program files (x86)\microsoft visual studio 11.0\vc\include\xmemory0
;	COMDAT ??__E?_Generic_object@?$_Error_objects@H@std@@2V_Generic_error_category@2@A@@YAXXZ
text$yc	SEGMENT
??__E?_Generic_object@?$_Error_objects@H@std@@2V_Generic_error_category@2@A@@YAXXZ PROC ; `dynamic initializer for 'std::_Error_objects<int>::_Generic_object'', COMDAT

; 627  : 		{	// estimate maximum array size

	push	ebp
	mov	ebp, esp
	mov	ecx, OFFSET ?_Generic_object@?$_Error_objects@H@std@@2V_Generic_error_category@2@A ; std::_Error_objects<int>::_Generic_object
	call	??0_Generic_error_category@std@@QAE@XZ	; std::_Generic_error_category::_Generic_error_category
	push	OFFSET ??__F?_Generic_object@?$_Error_objects@H@std@@2V_Generic_error_category@2@A@@YAXXZ ; `dynamic atexit destructor for 'std::_Error_objects<int>::_Generic_object''
	call	_atexit
	add	esp, 4
	pop	ebp
	ret	0
??__E?_Generic_object@?$_Error_objects@H@std@@2V_Generic_error_category@2@A@@YAXXZ ENDP ; `dynamic initializer for 'std::_Error_objects<int>::_Generic_object''
text$yc	ENDS
; Function compile flags: /Odtp
; File c:\program files (x86)\microsoft visual studio 11.0\vc\include\xmemory0
;	COMDAT ??$_Allocate@D@std@@YAPADIPAD@Z
_TEXT	SEGMENT
__Ptr$ = -4						; size = 4
__Count$ = 8						; size = 4
___formal$ = 12						; size = 4
??$_Allocate@D@std@@YAPADIPAD@Z PROC			; std::_Allocate<char>, COMDAT

; 22   : 	{	// allocate storage for _Count elements of type _Ty

	push	ebp
	mov	ebp, esp
	push	ecx

; 23   : 	void *_Ptr = 0;

	mov	DWORD PTR __Ptr$[ebp], 0

; 24   : 
; 25   : 	if (_Count == 0)

	cmp	DWORD PTR __Count$[ebp], 0
	jne	SHORT $LN4@Allocate

; 26   : 		;
; 27   : 	else if (((size_t)(-1) / sizeof (_Ty) < _Count)

	jmp	SHORT $LN3@Allocate
$LN4@Allocate:

; 28   : 		|| (_Ptr = ::operator new(_Count * sizeof (_Ty))) == 0)

	cmp	DWORD PTR __Count$[ebp], -1
	ja	SHORT $LN1@Allocate
	mov	eax, DWORD PTR __Count$[ebp]
	push	eax
	call	??2@YAPAXI@Z				; operator new
	add	esp, 4
	mov	DWORD PTR __Ptr$[ebp], eax
	cmp	DWORD PTR __Ptr$[ebp], 0
	jne	SHORT $LN3@Allocate
$LN1@Allocate:

; 29   : 		_Xbad_alloc();	// report no memory

	call	?_Xbad_alloc@std@@YAXXZ			; std::_Xbad_alloc
$LN3@Allocate:

; 30   : 
; 31   : 	return ((_Ty *)_Ptr);

	mov	eax, DWORD PTR __Ptr$[ebp]
$LN6@Allocate:

; 32   : 	}

	mov	esp, ebp
	pop	ebp
	ret	0
??$_Allocate@D@std@@YAPADIPAD@Z ENDP			; std::_Allocate<char>
_TEXT	ENDS
; Function compile flags: /Odtp
; File c:\program files (x86)\microsoft visual studio 11.0\vc\include\xstddef
;	COMDAT ??$addressof@D@std@@YAPADAAD@Z
_TEXT	SEGMENT
__Val$ = 8						; size = 4
??$addressof@D@std@@YAPADAAD@Z PROC			; std::addressof<char>, COMDAT

; 85   : 	{	// return address of _Val

	push	ebp
	mov	ebp, esp

; 86   : 	return (reinterpret_cast<_Ty *>(
; 87   : 		(&const_cast<char&>(
; 88   : 		reinterpret_cast<const volatile char&>(_Val)))));

	mov	eax, DWORD PTR __Val$[ebp]

; 89   : 	}

	pop	ebp
	ret	0
??$addressof@D@std@@YAPADAAD@Z ENDP			; std::addressof<char>
_TEXT	ENDS
; Function compile flags: /Odtp
; File c:\program files (x86)\microsoft visual studio 11.0\vc\include\xmemory0
;	COMDAT ??$destroy@PAD@?$_Wrap_alloc@V?$allocator@D@std@@@std@@QAEXPAPAD@Z
_TEXT	SEGMENT
_this$ = -4						; size = 4
__Ptr$ = 8						; size = 4
??$destroy@PAD@?$_Wrap_alloc@V?$allocator@D@std@@@std@@QAEXPAPAD@Z PROC ; std::_Wrap_alloc<std::allocator<char> >::destroy<char *>, COMDAT
; _this$ = ecx

; 907  : 		void destroy(_Ty *_Ptr)

	push	ebp
	mov	ebp, esp
	push	ecx
	mov	DWORD PTR _this$[ebp], ecx

; 908  : 		{	// destroy object at _Ptr
; 909  : 		_Mytraits::destroy(*this, _Ptr);

	mov	eax, DWORD PTR __Ptr$[ebp]
	push	eax
	mov	ecx, DWORD PTR _this$[ebp]
	push	ecx
	call	??$destroy@PAD@?$allocator_traits@V?$allocator@D@std@@@std@@SAXAAV?$allocator@D@1@PAPAD@Z ; std::allocator_traits<std::allocator<char> >::destroy<char *>
	add	esp, 8

; 910  : 		}

	mov	esp, ebp
	pop	ebp
	ret	4
??$destroy@PAD@?$_Wrap_alloc@V?$allocator@D@std@@@std@@QAEXPAPAD@Z ENDP ; std::_Wrap_alloc<std::allocator<char> >::destroy<char *>
_TEXT	ENDS
; Function compile flags: /Odtp
; File c:\program files (x86)\microsoft visual studio 11.0\vc\include\xmemory0
;	COMDAT ??$construct@PADAAPAD@?$_Wrap_alloc@V?$allocator@D@std@@@std@@QAEXPAPADAAPAD@Z
_TEXT	SEGMENT
_this$ = -4						; size = 4
__Ptr$ = 8						; size = 4
__V0$ = 12						; size = 4
??$construct@PADAAPAD@?$_Wrap_alloc@V?$allocator@D@std@@@std@@QAEXPAPADAAPAD@Z PROC ; std::_Wrap_alloc<std::allocator<char> >::construct<char *,char * &>, COMDAT
; _this$ = ecx

; 903  : _VARIADIC_EXPAND_0X(_WRAP_ALLOC_CONSTRUCT, , , , )

	push	ebp
	mov	ebp, esp
	push	ecx
	mov	DWORD PTR _this$[ebp], ecx
	mov	eax, DWORD PTR __V0$[ebp]
	push	eax
	call	??$forward@AAPAD@std@@YAAAPADAAPAD@Z	; std::forward<char * &>
	add	esp, 4
	push	eax
	mov	ecx, DWORD PTR __Ptr$[ebp]
	push	ecx
	mov	edx, DWORD PTR _this$[ebp]
	push	edx
	call	??$construct@PADAAPAD@?$allocator_traits@V?$allocator@D@std@@@std@@SAXAAV?$allocator@D@1@PAPADAAPAD@Z ; std::allocator_traits<std::allocator<char> >::construct<char *,char * &>
	add	esp, 12					; 0000000cH
	mov	esp, ebp
	pop	ebp
	ret	8
??$construct@PADAAPAD@?$_Wrap_alloc@V?$allocator@D@std@@@std@@QAEXPAPADAAPAD@Z ENDP ; std::_Wrap_alloc<std::allocator<char> >::construct<char *,char * &>
_TEXT	ENDS
; Function compile flags: /Odtp
; File c:\users\zhitao li\documents\visual studio 2012\projects\freefalcon\ui\src\setup\controltab.cpp
_TEXT	SEGMENT
$T1 = -12						; size = 4
$T2 = -8						; size = 4
_i$3 = -4						; size = 4
_lbox$ = 8						; size = 4
?BuildControllerList@@YAXPAVC_ListBox@@@Z PROC		; BuildControllerList

; 3696 : {	

	push	ebp
	mov	ebp, esp
	sub	esp, 12					; 0000000cH

; 3697 : 	lbox->RemoveAllItems();

	mov	ecx, DWORD PTR _lbox$[ebp]
	call	?RemoveAllItems@C_ListBox@@QAEXXZ	; C_ListBox::RemoveAllItems

; 3698 : 	
; 3699 : 	//lbox->AddItem(SIM_MOUSE + 1,C_TYPE_ITEM,TXT_MOUSE);
; 3700 : 	lbox->AddItem(SIM_KEYBOARD + 1,C_TYPE_ITEM,TXT_KEYBOARD);

	push	197					; 000000c5H
	push	50					; 00000032H
	push	2
	mov	ecx, DWORD PTR _lbox$[ebp]
	call	?AddItem@C_ListBox@@QAEPAV1@JFJ@Z	; C_ListBox::AddItem

; 3701 : 	//lbox->AddItem(SIM_NUMDEVICES + 1,C_TYPE_ITEM,TXT_INTELLIPOINT);
; 3702 : 
; 3703 : 	if(gTotalJoy)

	cmp	DWORD PTR ?gTotalJoy@@3HA, 0		; gTotalJoy
	je	$LN6@BuildContr

; 3704 : 	{
; 3705 : 		for(int i = 0; i < gTotalJoy; i++)

	mov	DWORD PTR _i$3[ebp], 0
	jmp	SHORT $LN5@BuildContr
$LN4@BuildContr:
	mov	eax, DWORD PTR _i$3[ebp]
	add	eax, 1
	mov	DWORD PTR _i$3[ebp], eax
$LN5@BuildContr:
	mov	ecx, DWORD PTR _i$3[ebp]
	cmp	ecx, DWORD PTR ?gTotalJoy@@3HA		; gTotalJoy
	jge	$LN6@BuildContr

; 3706 : 		{
; 3707 : 			if(!stricmp(gDIDevNames[SIM_JOYSTICK1 + i],"tm"))

	push	OFFSET ??_C@_02IDBFPDIL@tm?$AA@
	mov	edx, DWORD PTR _i$3[ebp]
	mov	eax, DWORD PTR ?gDIDevNames@@3PAPADA[edx*4+8]
	push	eax
	call	_stricmp
	add	esp, 8
	test	eax, eax
	jne	SHORT $LN2@BuildContr

; 3708 : 			{
; 3709 : 				delete [] gDIDevNames[SIM_JOYSTICK1 + i];

	mov	ecx, DWORD PTR _i$3[ebp]
	mov	edx, DWORD PTR ?gDIDevNames@@3PAPADA[ecx*4+8]
	mov	DWORD PTR $T2[ebp], edx
	mov	eax, DWORD PTR $T2[ebp]
	push	eax
	call	??_V@YAXPAX@Z				; operator delete[]
	add	esp, 4

; 3710 : 				gDIDevNames[SIM_JOYSTICK1 + i] = new TCHAR[MAX_PATH];

	push	260					; 00000104H
	call	??_U@YAPAXI@Z				; operator new[]
	add	esp, 4
	mov	DWORD PTR $T1[ebp], eax
	mov	ecx, DWORD PTR _i$3[ebp]
	mov	edx, DWORD PTR $T1[ebp]
	mov	DWORD PTR ?gDIDevNames@@3PAPADA[ecx*4+8], edx

; 3711 : 				_tcscpy(gDIDevNames[SIM_JOYSTICK1 + i],"Thrustmaster");

	push	OFFSET ??_C@_0N@GAAPHFEJ@Thrustmaster?$AA@
	mov	eax, DWORD PTR _i$3[ebp]
	mov	ecx, DWORD PTR ?gDIDevNames@@3PAPADA[eax*4+8]
	push	ecx
	call	_strcpy
	add	esp, 8
$LN2@BuildContr:

; 3712 : 			}
; 3713 : 
; 3714 : 			lbox->AddItem(i + SIM_JOYSTICK1 + 1,C_TYPE_ITEM,gDIDevNames[SIM_JOYSTICK1 + i]);

	mov	edx, DWORD PTR _i$3[ebp]
	mov	eax, DWORD PTR ?gDIDevNames@@3PAPADA[edx*4+8]
	push	eax
	push	50					; 00000032H
	mov	ecx, DWORD PTR _i$3[ebp]
	add	ecx, 3
	push	ecx
	mov	ecx, DWORD PTR _lbox$[ebp]
	call	?AddItem@C_ListBox@@QAEPAV1@JFPAD@Z	; C_ListBox::AddItem

; 3715 : 			if(mHelmetIsUR && i == mHelmetID)

	cmp	DWORD PTR ?mHelmetIsUR@@3JA, 0		; mHelmetIsUR
	je	SHORT $LN1@BuildContr
	mov	edx, DWORD PTR _i$3[ebp]
	cmp	edx, DWORD PTR ?mHelmetID@@3JA		; mHelmetID
	jne	SHORT $LN1@BuildContr

; 3716 : 				lbox->SetItemFlags(i + SIM_JOYSTICK1 + 1,0);

	push	0
	mov	eax, DWORD PTR _i$3[ebp]
	add	eax, 3
	push	eax
	mov	ecx, DWORD PTR _lbox$[ebp]
	call	?SetItemFlags@C_ListBox@@QAEXJJ@Z	; C_ListBox::SetItemFlags
$LN1@BuildContr:

; 3717 : 		}

	jmp	$LN4@BuildContr
$LN6@BuildContr:

; 3718 : 	}
; 3719 : 	lbox->Refresh();

	mov	ecx, DWORD PTR _lbox$[ebp]
	mov	edx, DWORD PTR [ecx]
	mov	ecx, DWORD PTR _lbox$[ebp]
	mov	eax, DWORD PTR [edx+160]
	call	eax

; 3720 : }

	mov	esp, ebp
	pop	ebp
	ret	0
?BuildControllerList@@YAXPAVC_ListBox@@@Z ENDP		; BuildControllerList
_TEXT	ENDS
; Function compile flags: /Odtp
; File c:\users\zhitao li\documents\visual studio 2012\projects\freefalcon\ui\src\setup\controltab.cpp
_TEXT	SEGMENT
_POVSymbolCount$1 = -420				; size = 4
_line$2 = -416						; size = 4
_lbox$ = -412						; size = 4
_hasPOV$3 = -408					; size = 4
_i$4 = -404						; size = 4
_button$5 = -400					; size = 4
_hres$6 = -396						; size = 4
_weHaveACougerUser$7 = -389				; size = 1
_newcontroller$ = -388					; size = 4
_devobj$8 = -384					; size = 316
_CurJoyCaps$9 = -68					; size = 44
_POVSymbols$10 = -24					; size = 20
__$ArrayPad$ = -4					; size = 4
___formal$ = 8						; size = 4
_hittype$ = 12						; size = 2
_control$ = 16						; size = 4
?ControllerSelectCB@@YAXJFPAVC_Base@@@Z PROC		; ControllerSelectCB

; 3533 : {

	push	ebp
	mov	ebp, esp
	sub	esp, 420				; 000001a4H
	mov	eax, DWORD PTR ___security_cookie
	xor	eax, ebp
	mov	DWORD PTR __$ArrayPad$[ebp], eax

; 3534 : 	if(hittype != C_TYPE_SELECT)

	movsx	eax, WORD PTR _hittype$[ebp]
	cmp	eax, 28					; 0000001cH
	je	SHORT $LN26@Controller

; 3535 : 		return;

	jmp	$LN27@Controller
$LN26@Controller:

; 3536 : 
; 3537 : 	/************************************************************************/
; 3538 : 	// Retro 31Dec2003
; 3539 : 	// Totally rewrote that callback..
; 3540 : 	/************************************************************************/
; 3541 : 	C_ListBox *lbox;
; 3542 : 	lbox = (C_ListBox *)control;

	mov	ecx, DWORD PTR _control$[ebp]
	mov	DWORD PTR _lbox$[ebp], ecx

; 3543 : 	int newcontroller;
; 3544 : 
; 3545 : 	newcontroller = lbox->GetTextID() - 1;

	mov	ecx, DWORD PTR _lbox$[ebp]
	call	?GetTextID@C_ListBox@@QAEJXZ		; C_ListBox::GetTextID
	sub	eax, 1
	mov	DWORD PTR _newcontroller$[ebp], eax

; 3546 : 
; 3547 : 	if(newcontroller == AxisMap.FlightControlDevice)	// nothing changed, so no action required

	mov	edx, DWORD PTR _newcontroller$[ebp]
	cmp	edx, DWORD PTR ?AxisMap@@3UAxisMapping@@A
	jne	SHORT $LN25@Controller

; 3548 : 	{
; 3549 : 		return;

	jmp	$LN27@Controller
$LN25@Controller:

; 3550 : 	}
; 3551 : 
; 3552 : 	IO.Reset();	// set all axis (real and game) back to nada (off)

	mov	ecx, OFFSET ?IO@@3VSIMLIB_IO_CLASS@@A	; IO
	call	?Reset@SIMLIB_IO_CLASS@@QAEXXZ		; SIMLIB_IO_CLASS::Reset

; 3553 : 
; 3554 : 	if(AxisMap.FlightControlDevice == SIM_KEYBOARD)	// hrmmm... no sure whats up here

	cmp	DWORD PTR ?AxisMap@@3UAxisMapping@@A, 1
	jne	SHORT $LN24@Controller

; 3555 : 	{
; 3556 : 		SaveKeyMapList("laptop");

	push	OFFSET ??_C@_06JMBGPIAA@laptop?$AA@
	call	?SaveKeyMapList@@YAHPAD@Z		; SaveKeyMapList
	add	esp, 4

; 3557 : 		UpdateKeyMapList( PlayerOptions.GetKeyfile(),TRUE );

	push	1
	mov	ecx, OFFSET ?PlayerOptions@@3VPlayerOptionsClass@@A ; PlayerOptions
	call	?GetKeyfile@PlayerOptionsClass@@QAEPADXZ ; PlayerOptionsClass::GetKeyfile
	push	eax
	call	?UpdateKeyMapList@@YAHPADH@Z		; UpdateKeyMapList
	add	esp, 8
$LN24@Controller:

; 3558 : 	}
; 3559 : 
; 3560 : 	if((newcontroller == SIM_MOUSE)||(newcontroller == SIM_NUMDEVICES))

	cmp	DWORD PTR _newcontroller$[ebp], 0
	je	SHORT $LN22@Controller
	cmp	DWORD PTR _newcontroller$[ebp], 16	; 00000010H
	jne	SHORT $LN23@Controller
$LN22@Controller:

; 3561 : 	{
; 3562 : 		// ??? not allowed !
; 3563 : 		ShiAssert(false);
; 3564 : 	}
; 3565 : 	else if(newcontroller == SIM_KEYBOARD)	// hrmmm... no sure whats up here

	jmp	$LN21@Controller
$LN23@Controller:
	cmp	DWORD PTR _newcontroller$[ebp], 1
	jne	SHORT $LN20@Controller

; 3566 : 	{
; 3567 : 		SaveKeyMapList(PlayerOptions.GetKeyfile());

	mov	ecx, OFFSET ?PlayerOptions@@3VPlayerOptionsClass@@A ; PlayerOptions
	call	?GetKeyfile@PlayerOptionsClass@@QAEPADXZ ; PlayerOptionsClass::GetKeyfile
	push	eax
	call	?SaveKeyMapList@@YAHPAD@Z		; SaveKeyMapList
	add	esp, 4

; 3568 : 		UpdateKeyMapList("laptop",TRUE );

	push	1
	push	OFFSET ??_C@_06JMBGPIAA@laptop?$AA@
	call	?UpdateKeyMapList@@YAHPADH@Z		; UpdateKeyMapList
	add	esp, 8

; 3569 : 
; 3570 : 		SetJoystickAndPOVSymbols(false,control);	// kill POV symbol (the keyboard has none)

	mov	eax, DWORD PTR _control$[ebp]
	push	eax
	push	0
	call	?SetJoystickAndPOVSymbols@@YAX_NPAVC_Base@@@Z ; SetJoystickAndPOVSymbols
	add	esp, 8

; 3571 : 	}
; 3572 : 	else	// at last, a reasonable user

	jmp	$LN21@Controller
$LN20@Controller:

; 3573 : 	{
; 3574 : 		C_Line		*line = NULL;

	mov	DWORD PTR _line$2[ebp], 0

; 3575 : 		C_Button	*button = NULL;

	mov	DWORD PTR _button$5[ebp], 0

; 3576 : 		int			hasPOV = FALSE;

	mov	DWORD PTR _hasPOV$3[ebp], 0

; 3577 : 
; 3578 : 
; 3579 : 		// Retro 27Jan2004 - disable custon axis shaping first
; 3580 : 		PlayerOptions.SetAxisShaping(false);

	push	0
	mov	ecx, OFFSET ?PlayerOptions@@3VPlayerOptionsClass@@A ; PlayerOptions
	call	?SetAxisShaping@PlayerOptionsClass@@QAEX_N@Z ; PlayerOptionsClass::SetAxisShaping

; 3581 : 
; 3582 : 		/* check if current device has a POV hat and enable/disable the symbols accordingly */
; 3583 : 
; 3584 : 		// Retro 26Dec2003
; 3585 : 		DIDEVCAPS CurJoyCaps;
; 3586 : 		CurJoyCaps.dwSize = sizeof(DIDEVCAPS);

	mov	DWORD PTR _CurJoyCaps$9[ebp], 44	; 0000002cH

; 3587 : 		gpDIDevice[newcontroller]->GetCapabilities(&CurJoyCaps);

	lea	ecx, DWORD PTR _CurJoyCaps$9[ebp]
	push	ecx
	mov	edx, DWORD PTR _newcontroller$[ebp]
	mov	eax, DWORD PTR ?gpDIDevice@@3PAPAUIDirectInputDevice8A@@A[edx*4]
	mov	ecx, DWORD PTR _newcontroller$[ebp]
	mov	edx, DWORD PTR ?gpDIDevice@@3PAPAUIDirectInputDevice8A@@A[ecx*4]
	mov	eax, DWORD PTR [eax]
	push	edx
	mov	ecx, DWORD PTR [eax+12]
	call	ecx

; 3588 : 
; 3589 : 		//NumberOfPOVs = (CurJoyCaps.dwPOVs>0)?1:0;	// Retro 26Dec2003
; 3590 : 		NumberOfPOVs = CurJoyCaps.dwPOVs;			// Wombat778 4-27-04 Dont limit to 1 POV

	mov	edx, DWORD PTR _CurJoyCaps$9[ebp+20]
	mov	DWORD PTR ?NumberOfPOVs@@3IA, edx	; NumberOfPOVs

; 3591 : 		if (NumberOfPOVs > 0)						// Retro 26Dec2003

	cmp	DWORD PTR ?NumberOfPOVs@@3IA, 0		; NumberOfPOVs
	jbe	SHORT $LN18@Controller

; 3592 : 			hasPOV = TRUE;							// Retro 26Dec2003

	mov	DWORD PTR _hasPOV$3[ebp], 1
$LN18@Controller:

; 3593 : 
; 3594 : 		int POVSymbols[] = { LEFT_HAT, RIGHT_HAT, CENTER_HAT, UP_HAT, DOWN_HAT };

	mov	DWORD PTR _POVSymbols$10[ebp], 70041	; 00011199H
	mov	DWORD PTR _POVSymbols$10[ebp+4], 70040	; 00011198H
	mov	DWORD PTR _POVSymbols$10[ebp+8], 70093	; 000111cdH
	mov	DWORD PTR _POVSymbols$10[ebp+12], 70042	; 0001119aH
	mov	DWORD PTR _POVSymbols$10[ebp+16], 70043	; 0001119bH

; 3595 : 		const int POVSymbolCount = sizeof(POVSymbols)/sizeof(int);

	mov	DWORD PTR _POVSymbolCount$1[ebp], 5

; 3596 : 
; 3597 : 		for (int i = 0; i < POVSymbolCount; i++)

	mov	DWORD PTR _i$4[ebp], 0
	jmp	SHORT $LN17@Controller
$LN16@Controller:
	mov	eax, DWORD PTR _i$4[ebp]
	add	eax, 1
	mov	DWORD PTR _i$4[ebp], eax
$LN17@Controller:
	cmp	DWORD PTR _i$4[ebp], 5
	jge	SHORT $LN15@Controller

; 3598 : 		{
; 3599 : 			button=(C_Button *)control->Parent_->FindControl(POVSymbols[i]);

	mov	ecx, DWORD PTR _i$4[ebp]
	mov	edx, DWORD PTR _POVSymbols$10[ebp+ecx*4]
	push	edx
	mov	eax, DWORD PTR _control$[ebp]
	mov	ecx, DWORD PTR [eax+48]
	call	?FindControl@C_Window@@QAEPAVC_Base@@J@Z ; C_Window::FindControl
	mov	DWORD PTR _button$5[ebp], eax

; 3600 : 			if(button != NULL)

	cmp	DWORD PTR _button$5[ebp], 0
	je	SHORT $LN11@Controller

; 3601 : 			{
; 3602 : 				if (!hasPOV)

	cmp	DWORD PTR _hasPOV$3[ebp], 0
	jne	SHORT $LN13@Controller

; 3603 : 					button->SetFlagBitOn(C_BIT_INVISIBLE);

	push	8192					; 00002000H
	mov	ecx, DWORD PTR _button$5[ebp]
	mov	edx, DWORD PTR [ecx]
	mov	ecx, DWORD PTR _button$5[ebp]
	mov	eax, DWORD PTR [edx+8]
	call	eax

; 3604 : 				else

	jmp	SHORT $LN12@Controller
$LN13@Controller:

; 3605 : 					button->SetFlagBitOff(C_BIT_INVISIBLE);

	push	8192					; 00002000H
	mov	ecx, DWORD PTR _button$5[ebp]
	mov	edx, DWORD PTR [ecx]
	mov	ecx, DWORD PTR _button$5[ebp]
	mov	eax, DWORD PTR [edx+12]
	call	eax
$LN12@Controller:

; 3606 : 				button->Refresh();

	mov	ecx, DWORD PTR _button$5[ebp]
	mov	edx, DWORD PTR [ecx]
	mov	ecx, DWORD PTR _button$5[ebp]
	mov	eax, DWORD PTR [edx+160]
	call	eax
$LN11@Controller:

; 3607 : 			}
; 3608 : 			else
; 3609 : 				ShiAssert(false);
; 3610 : 		}

	jmp	$LN16@Controller
$LN15@Controller:

; 3611 : 
; 3612 : // had the FFB check here, moved down a bit...
; 3613 : 
; 3614 : 		/* now check if device has x/y axis (pro forma I hope) */
; 3615 : 		DIDEVICEOBJECTINSTANCE devobj;
; 3616 : 		HRESULT hres;
; 3617 : 		devobj.dwSize = sizeof(DIDEVICEOBJECTINSTANCE);

	mov	DWORD PTR _devobj$8[ebp], 316		; 0000013cH

; 3618 : 		
; 3619 : 		hres = gpDIDevice[newcontroller]->GetObjectInfo(&devobj, DIJOFS_X, DIPH_BYOFFSET);

	push	1
	push	0
	lea	ecx, DWORD PTR _devobj$8[ebp]
	push	ecx
	mov	edx, DWORD PTR _newcontroller$[ebp]
	mov	eax, DWORD PTR ?gpDIDevice@@3PAPAUIDirectInputDevice8A@@A[edx*4]
	mov	ecx, DWORD PTR _newcontroller$[ebp]
	mov	edx, DWORD PTR ?gpDIDevice@@3PAPAUIDirectInputDevice8A@@A[ecx*4]
	mov	eax, DWORD PTR [eax]
	push	edx
	mov	ecx, DWORD PTR [eax+56]
	call	ecx
	mov	DWORD PTR _hres$6[ebp], eax

; 3620 : 		if (hres == DI_OK)

	cmp	DWORD PTR _hres$6[ebp], 0
	jne	SHORT $LN10@Controller

; 3621 : 		{
; 3622 : 			hres = gpDIDevice[newcontroller]->GetObjectInfo(&devobj, DIJOFS_Y, DIPH_BYOFFSET);

	push	1
	push	4
	lea	edx, DWORD PTR _devobj$8[ebp]
	push	edx
	mov	eax, DWORD PTR _newcontroller$[ebp]
	mov	ecx, DWORD PTR ?gpDIDevice@@3PAPAUIDirectInputDevice8A@@A[eax*4]
	mov	edx, DWORD PTR _newcontroller$[ebp]
	mov	eax, DWORD PTR ?gpDIDevice@@3PAPAUIDirectInputDevice8A@@A[edx*4]
	mov	ecx, DWORD PTR [ecx]
	push	eax
	mov	edx, DWORD PTR [ecx+56]
	call	edx
	mov	DWORD PTR _hres$6[ebp], eax

; 3623 : 			if (hres == DI_OK)

	cmp	DWORD PTR _hres$6[ebp], 0
	jne	SHORT $LN10@Controller

; 3624 : 			{
; 3625 : 				// I only allow complete 'sets' for the flight control device..
; 3626 : 				AxisMap.FlightControlDevice = newcontroller;

	mov	eax, DWORD PTR _newcontroller$[ebp]
	mov	DWORD PTR ?AxisMap@@3UAxisMapping@@A, eax

; 3627 : 				AxisMap.Bank.Axis = DX_XAXIS;

	mov	DWORD PTR ?AxisMap@@3UAxisMapping@@A+44, 0

; 3628 : 				AxisMap.Bank.Device = newcontroller;	// also not really necessary but nice for sanity..

	mov	ecx, DWORD PTR _newcontroller$[ebp]
	mov	DWORD PTR ?AxisMap@@3UAxisMapping@@A+40, ecx

; 3629 : 				AxisMap.Pitch.Axis = DX_YAXIS;

	mov	DWORD PTR ?AxisMap@@3UAxisMapping@@A+28, 1

; 3630 : 				AxisMap.Pitch.Device = newcontroller;	// also not really necessary but nice for sanity..

	mov	edx, DWORD PTR _newcontroller$[ebp]
	mov	DWORD PTR ?AxisMap@@3UAxisMapping@@A+24, edx
$LN10@Controller:

; 3631 : 			}
; 3632 : 		}
; 3633 : 
; 3634 : 		/* now check if device has a throttle */
; 3635 : 		bool weHaveACougerUser = false;	// ahh... that dumb metal POS has the throttle on RZ since it has no rudder.. or whatever..

	mov	BYTE PTR _weHaveACougerUser$7[ebp], 0

; 3636 : 		if (gDIDevNames[newcontroller])

	mov	eax, DWORD PTR _newcontroller$[ebp]
	cmp	DWORD PTR ?gDIDevNames@@3PAPADA[eax*4], 0
	je	SHORT $LN8@Controller

; 3637 : 		{
; 3638 : 			if (!strcmp(gDIDevNames[newcontroller],"HOTAS Cougar Joystick"))

	push	OFFSET ??_C@_0BG@KLGACDKK@HOTAS?5Cougar?5Joystick?$AA@
	mov	ecx, DWORD PTR _newcontroller$[ebp]
	mov	edx, DWORD PTR ?gDIDevNames@@3PAPADA[ecx*4]
	push	edx
	call	_strcmp
	add	esp, 8
	test	eax, eax
	jne	SHORT $LN8@Controller

; 3639 : 			{
; 3640 : 				weHaveACougerUser = true;

	mov	BYTE PTR _weHaveACougerUser$7[ebp], 1
$LN8@Controller:

; 3641 : 			}
; 3642 : 		}
; 3643 : 
; 3644 : 		if (weHaveACougerUser == false)

	movzx	eax, BYTE PTR _weHaveACougerUser$7[ebp]
	test	eax, eax
	jne	SHORT $LN6@Controller

; 3645 : 		{
; 3646 : 			hres = gpDIDevice[newcontroller]->GetObjectInfo(&devobj, DIJOFS_SLIDER(0), DIPH_BYOFFSET);

	push	1
	push	24					; 00000018H
	lea	ecx, DWORD PTR _devobj$8[ebp]
	push	ecx
	mov	edx, DWORD PTR _newcontroller$[ebp]
	mov	eax, DWORD PTR ?gpDIDevice@@3PAPAUIDirectInputDevice8A@@A[edx*4]
	mov	ecx, DWORD PTR _newcontroller$[ebp]
	mov	edx, DWORD PTR ?gpDIDevice@@3PAPAUIDirectInputDevice8A@@A[ecx*4]
	mov	eax, DWORD PTR [eax]
	push	edx
	mov	ecx, DWORD PTR [eax+56]
	call	ecx
	mov	DWORD PTR _hres$6[ebp], eax

; 3647 : 			if (hres == DI_OK)

	cmp	DWORD PTR _hres$6[ebp], 0
	jne	SHORT $LN5@Controller

; 3648 : 			{
; 3649 : 				AxisMap.Throttle.Device = newcontroller;

	mov	edx, DWORD PTR _newcontroller$[ebp]
	mov	DWORD PTR ?AxisMap@@3UAxisMapping@@A+72, edx

; 3650 : 				AxisMap.Throttle.Axis = DX_SLIDER0;

	mov	DWORD PTR ?AxisMap@@3UAxisMapping@@A+76, 6
$LN5@Controller:

; 3651 : 			}
; 3652 : 		}
; 3653 : 		else

	jmp	SHORT $LN4@Controller
$LN6@Controller:

; 3654 : 		{
; 3655 : 			hres = gpDIDevice[newcontroller]->GetObjectInfo(&devobj, DIJOFS_Z, DIPH_BYOFFSET);

	push	1
	push	8
	lea	eax, DWORD PTR _devobj$8[ebp]
	push	eax
	mov	ecx, DWORD PTR _newcontroller$[ebp]
	mov	edx, DWORD PTR ?gpDIDevice@@3PAPAUIDirectInputDevice8A@@A[ecx*4]
	mov	eax, DWORD PTR _newcontroller$[ebp]
	mov	ecx, DWORD PTR ?gpDIDevice@@3PAPAUIDirectInputDevice8A@@A[eax*4]
	mov	edx, DWORD PTR [edx]
	push	ecx
	mov	eax, DWORD PTR [edx+56]
	call	eax
	mov	DWORD PTR _hres$6[ebp], eax

; 3656 : 			if (hres == DI_OK)

	cmp	DWORD PTR _hres$6[ebp], 0
	jne	SHORT $LN4@Controller

; 3657 : 			{
; 3658 : 				weHaveACougerUser = true;

	mov	BYTE PTR _weHaveACougerUser$7[ebp], 1

; 3659 : 				AxisMap.Throttle.Device = newcontroller;

	mov	ecx, DWORD PTR _newcontroller$[ebp]
	mov	DWORD PTR ?AxisMap@@3UAxisMapping@@A+72, ecx

; 3660 : 				AxisMap.Throttle.Axis = DX_ZAXIS;

	mov	DWORD PTR ?AxisMap@@3UAxisMapping@@A+76, 2
$LN4@Controller:

; 3661 : 			}
; 3662 : 		}
; 3663 : 
; 3664 : 		/* now check if device has a rudder */
; 3665 : 		if (weHaveACougerUser == false)		// cougar has no rudder and the RZ is taken anyways..

	movzx	edx, BYTE PTR _weHaveACougerUser$7[ebp]
	test	edx, edx
	jne	SHORT $LN2@Controller

; 3666 : 		{
; 3667 : 			hres = gpDIDevice[newcontroller]->GetObjectInfo(&devobj, DIJOFS_RZ, DIPH_BYOFFSET);

	push	1
	push	20					; 00000014H
	lea	eax, DWORD PTR _devobj$8[ebp]
	push	eax
	mov	ecx, DWORD PTR _newcontroller$[ebp]
	mov	edx, DWORD PTR ?gpDIDevice@@3PAPAUIDirectInputDevice8A@@A[ecx*4]
	mov	eax, DWORD PTR _newcontroller$[ebp]
	mov	ecx, DWORD PTR ?gpDIDevice@@3PAPAUIDirectInputDevice8A@@A[eax*4]
	mov	edx, DWORD PTR [edx]
	push	ecx
	mov	eax, DWORD PTR [edx+56]
	call	eax
	mov	DWORD PTR _hres$6[ebp], eax

; 3668 : 			if (hres == DI_OK)

	cmp	DWORD PTR _hres$6[ebp], 0
	jne	SHORT $LN2@Controller

; 3669 : 			{
; 3670 : 				AxisMap.Yaw.Device = newcontroller;

	mov	ecx, DWORD PTR _newcontroller$[ebp]
	mov	DWORD PTR ?AxisMap@@3UAxisMapping@@A+56, ecx

; 3671 : 				AxisMap.Yaw.Axis = DX_RZAXIS;

	mov	DWORD PTR ?AxisMap@@3UAxisMapping@@A+60, 5
$LN2@Controller:

; 3672 : 			}
; 3673 : 		}
; 3674 : 
; 3675 : 		/* now check if this thing has FFB */
; 3676 : 		// return value intentionally disregarded
; 3677 : 		// (does only indicate the result anyway, FFB is activated/deactivated inside the function
; 3678 : 		CheckForForceFeedback(newcontroller-SIM_JOYSTICK1);

	mov	edx, DWORD PTR _newcontroller$[ebp]
	sub	edx, 2
	push	edx
	call	?CheckForForceFeedback@@YAHH@Z		; CheckForForceFeedback
	add	esp, 4

; 3679 : 
; 3680 : 		SetupGameAxis();

	call	?SetupGameAxis@@YAXXZ			; SetupGameAxis
$LN21@Controller:

; 3681 : 	}
; 3682 : 
; 3683 : 	// this function draws/hides the rudder/throttle bars, depending on if theyre mapped..
; 3684 : 	SetThrottleAndRudderBars(control);

	mov	eax, DWORD PTR _control$[ebp]
	push	eax
	call	?SetThrottleAndRudderBars@@YAXPAVC_Base@@@Z ; SetThrottleAndRudderBars
	add	esp, 4

; 3685 : 	IO.WriteAxisMappingFile();

	mov	ecx, OFFSET ?IO@@3VSIMLIB_IO_CLASS@@A	; IO
	call	?WriteAxisMappingFile@SIMLIB_IO_CLASS@@QAEHXZ ; SIMLIB_IO_CLASS::WriteAxisMappingFile

; 3686 : 	IO.SaveFile();	// for centering and ABDetent info

	mov	ecx, OFFSET ?IO@@3VSIMLIB_IO_CLASS@@A	; IO
	call	?SaveFile@SIMLIB_IO_CLASS@@QAEHXZ	; SIMLIB_IO_CLASS::SaveFile

; 3687 : 
; 3688 : 	InitializeValueBars = 1;	// Retro 26Dec2003

	mov	DWORD PTR ?InitializeValueBars@@3HA, 1	; InitializeValueBars
$LN27@Controller:

; 3689 : }

	mov	ecx, DWORD PTR __$ArrayPad$[ebp]
	xor	ecx, ebp
	call	@__security_check_cookie@4
	mov	esp, ebp
	pop	ebp
	ret	0
?ControllerSelectCB@@YAXJFPAVC_Base@@@Z ENDP		; ControllerSelectCB
_TEXT	ENDS
; Function compile flags: /Odtp
; File c:\users\zhitao li\documents\visual studio 2012\projects\freefalcon\ui\src\setup\controltab.cpp
_TEXT	SEGMENT
_POVSymbolCount$ = -36					; size = 4
_i$1 = -32						; size = 4
_button$ = -28						; size = 4
_POVSymbols$ = -24					; size = 20
__$ArrayPad$ = -4					; size = 4
_isActive$ = 8						; size = 1
_control$ = 12						; size = 4
?SetJoystickAndPOVSymbols@@YAX_NPAVC_Base@@@Z PROC	; SetJoystickAndPOVSymbols

; 3433 : {

	push	ebp
	mov	ebp, esp
	sub	esp, 36					; 00000024H
	mov	eax, DWORD PTR ___security_cookie
	xor	eax, ebp
	mov	DWORD PTR __$ArrayPad$[ebp], eax

; 3434 : 	const int POVSymbols[] = { LEFT_HAT, RIGHT_HAT, CENTER_HAT, UP_HAT, DOWN_HAT };

	mov	DWORD PTR _POVSymbols$[ebp], 70041	; 00011199H
	mov	DWORD PTR _POVSymbols$[ebp+4], 70040	; 00011198H
	mov	DWORD PTR _POVSymbols$[ebp+8], 70093	; 000111cdH
	mov	DWORD PTR _POVSymbols$[ebp+12], 70042	; 0001119aH
	mov	DWORD PTR _POVSymbols$[ebp+16], 70043	; 0001119bH

; 3435 : 	const int POVSymbolCount = sizeof(POVSymbols)/sizeof(int);

	mov	DWORD PTR _POVSymbolCount$[ebp], 5

; 3436 : 	C_Button	*button = NULL;

	mov	DWORD PTR _button$[ebp], 0

; 3437 : 
; 3438 : 	for (int i = 0; i < POVSymbolCount; i++)

	mov	DWORD PTR _i$1[ebp], 0
	jmp	SHORT $LN7@SetJoystic
$LN6@SetJoystic:
	mov	eax, DWORD PTR _i$1[ebp]
	add	eax, 1
	mov	DWORD PTR _i$1[ebp], eax
$LN7@SetJoystic:
	cmp	DWORD PTR _i$1[ebp], 5
	jge	SHORT $LN8@SetJoystic

; 3439 : 	{
; 3440 : 		button=(C_Button *)control->Parent_->FindControl(POVSymbols[i]);

	mov	ecx, DWORD PTR _i$1[ebp]
	mov	edx, DWORD PTR _POVSymbols$[ebp+ecx*4]
	push	edx
	mov	eax, DWORD PTR _control$[ebp]
	mov	ecx, DWORD PTR [eax+48]
	call	?FindControl@C_Window@@QAEPAVC_Base@@J@Z ; C_Window::FindControl
	mov	DWORD PTR _button$[ebp], eax

; 3441 : 		if(button != NULL)

	cmp	DWORD PTR _button$[ebp], 0
	je	SHORT $LN1@SetJoystic

; 3442 : 		{
; 3443 : 			if (!isActive)

	movzx	ecx, BYTE PTR _isActive$[ebp]
	test	ecx, ecx
	jne	SHORT $LN3@SetJoystic

; 3444 : 				button->SetFlagBitOn(C_BIT_INVISIBLE);

	push	8192					; 00002000H
	mov	edx, DWORD PTR _button$[ebp]
	mov	eax, DWORD PTR [edx]
	mov	ecx, DWORD PTR _button$[ebp]
	mov	edx, DWORD PTR [eax+8]
	call	edx

; 3445 : 			else

	jmp	SHORT $LN2@SetJoystic
$LN3@SetJoystic:

; 3446 : 				button->SetFlagBitOff(C_BIT_INVISIBLE);

	push	8192					; 00002000H
	mov	eax, DWORD PTR _button$[ebp]
	mov	edx, DWORD PTR [eax]
	mov	ecx, DWORD PTR _button$[ebp]
	mov	eax, DWORD PTR [edx+12]
	call	eax
$LN2@SetJoystic:

; 3447 : 			button->Refresh();

	mov	ecx, DWORD PTR _button$[ebp]
	mov	edx, DWORD PTR [ecx]
	mov	ecx, DWORD PTR _button$[ebp]
	mov	eax, DWORD PTR [edx+160]
	call	eax
$LN1@SetJoystic:

; 3448 : 		}
; 3449 : 		else
; 3450 : 			ShiAssert(false);
; 3451 : 	}

	jmp	SHORT $LN6@SetJoystic
$LN8@SetJoystic:

; 3452 : }

	mov	ecx, DWORD PTR __$ArrayPad$[ebp]
	xor	ecx, ebp
	call	@__security_check_cookie@4
	mov	esp, ebp
	pop	ebp
	ret	0
?SetJoystickAndPOVSymbols@@YAX_NPAVC_Base@@@Z ENDP	; SetJoystickAndPOVSymbols
_TEXT	ENDS
; Function compile flags: /Odtp
; File c:\users\zhitao li\documents\visual studio 2012\projects\freefalcon\ui\src\setup\controltab.cpp
_TEXT	SEGMENT
___formal$ = 8						; size = 4
___formal$ = 12						; size = 2
___formal$ = 16						; size = 4
?SetKeyDefaultCB@@YAXJFPAVC_Base@@@Z PROC		; SetKeyDefaultCB

; 3424 : {

	push	ebp
	mov	ebp, esp

; 3425 : 	if(UpdateKeyMapList( 0,USE_DEFAULT))

	push	0
	push	0
	call	?UpdateKeyMapList@@YAHPADH@Z		; UpdateKeyMapList
	add	esp, 8
	test	eax, eax
	je	SHORT $LN2@SetKeyDefa

; 3426 : 		KeyVar.Modified = TRUE;

	mov	DWORD PTR ?KeyVar@@3UKeyVars@@A+20, 1
$LN2@SetKeyDefa:

; 3427 : }

	pop	ebp
	ret	0
?SetKeyDefaultCB@@YAXJFPAVC_Base@@@Z ENDP		; SetKeyDefaultCB
_TEXT	ENDS
; Function compile flags: /Odtp
; File c:\users\zhitao li\documents\visual studio 2012\projects\freefalcon\ui\src\setup\controltab.cpp
_TEXT	SEGMENT
_mod2$ = -1716						; size = 4
_buttonId$ = -1712					; size = 4
_mod1$ = -1708						; size = 4
_Hline$ = -1704						; size = 4
_key1$ = -1700						; size = 4
_mouseSide$ = -1696					; size = 4
$T1 = -1692						; size = 4
_theFunc$ = -1688					; size = 4
_editable$ = -1684					; size = 4
$T2 = -1680						; size = 4
_key2$ = -1676						; size = 4
_parsed$ = -1672					; size = 4
_fp$ = -1668						; size = 4
_Mapping$ = -1664					; size = 4
_Vline$ = -1660						; size = 4
_Keycodes$ = -1656					; size = 4
_count$ = -1652						; size = 4
_win$ = -1648						; size = 4
_Map$3 = -1644						; size = 292
$T4 = -1352						; size = 16
_client$ = -1336					; size = 16
_HotSpot$ = -1320					; size = 16
_keydescrip$ = -1304					; size = 260
_funcName$ = -1044					; size = 260
_path$ = -784						; size = 260
_descrip$ = -524					; size = 260
_buff$ = -264						; size = 260
__$ArrayPad$ = -4					; size = 4
_filename$ = 8						; size = 4
?CreateKeyMapList@@YAHPAD@Z PROC			; CreateKeyMapList

; 3279 : {

	push	ebp
	mov	ebp, esp
	sub	esp, 1716				; 000006b4H
	mov	eax, DWORD PTR ___security_cookie
	xor	eax, ebp
	mov	DWORD PTR __$ArrayPad$[ebp], eax

; 3280 : 	FILE *fp;
; 3281 : 	char path[_MAX_PATH];
; 3282 : 
; 3283 : 	C_Window *win;
; 3284 : 
; 3285 : 	win = gMainHandler->FindWindow(SETUP_WIN);

	push	70002					; 00011172H
	mov	ecx, DWORD PTR ?gMainHandler@@3PAVC_Handler@@A ; gMainHandler
	call	?FindWindowA@C_Handler@@QAEPAVC_Window@@J@Z ; C_Handler::FindWindowA
	mov	DWORD PTR _win$[ebp], eax

; 3286 : 	if(!win)

	cmp	DWORD PTR _win$[ebp], 0
	jne	SHORT $LN16@CreateKeyM

; 3287 : 		return FALSE;

	xor	eax, eax
	jmp	$LN18@CreateKeyM
$LN16@CreateKeyM:

; 3288 : 
; 3289 : 	sprintf(path,"%s\\config\\%s.key",FalconDataDirectory,filename);

	mov	eax, DWORD PTR _filename$[ebp]
	push	eax
	push	OFFSET ?FalconDataDirectory@@3PADA	; FalconDataDirectory
	push	OFFSET ??_C@_0BB@FEJPLKOE@?$CFs?2config?2?$CFs?4key?$AA@
	lea	ecx, DWORD PTR _path$[ebp]
	push	ecx
	call	_sprintf
	add	esp, 16					; 00000010H

; 3290 : 	
; 3291 : 	fp = fopen(path,"rt");

	push	OFFSET ??_C@_02BMJICGCB@rt?$AA@
	lea	edx, DWORD PTR _path$[ebp]
	push	edx
	call	_fopen
	add	esp, 8
	mov	DWORD PTR _fp$[ebp], eax

; 3292 : 	if(!fp)

	cmp	DWORD PTR _fp$[ebp], 0
	jne	SHORT $LN15@CreateKeyM

; 3293 : 	{
; 3294 : 		sprintf(path,"%s\\config\\keystrokes.key",FalconDataDirectory);

	push	OFFSET ?FalconDataDirectory@@3PADA	; FalconDataDirectory
	push	OFFSET ??_C@_0BJ@IKOFGMEL@?$CFs?2config?2keystrokes?4key?$AA@
	lea	eax, DWORD PTR _path$[ebp]
	push	eax
	call	_sprintf
	add	esp, 12					; 0000000cH

; 3295 : 		fp = fopen(path,"rt");

	push	OFFSET ??_C@_02BMJICGCB@rt?$AA@
	lea	ecx, DWORD PTR _path$[ebp]
	push	ecx
	call	_fopen
	add	esp, 8
	mov	DWORD PTR _fp$[ebp], eax

; 3296 : 		if(!fp)

	cmp	DWORD PTR _fp$[ebp], 0
	jne	SHORT $LN15@CreateKeyM

; 3297 : 			return FALSE;

	xor	eax, eax
	jmp	$LN18@CreateKeyM
$LN15@CreateKeyM:

; 3298 : 	}
; 3299 : 	
; 3300 : 	int count = 0;

	mov	DWORD PTR _count$[ebp], 0

; 3301 : 	int key1, mod1;
; 3302 : 	int key2, mod2;
; 3303 : //	int flags =0,
; 3304 : 	int buttonId, mouseSide, editable;
; 3305 : 	InputFunctionType theFunc;
; 3306 : 	char buff[_MAX_PATH];
; 3307 : 	char funcName[_MAX_PATH];
; 3308 : 	char keydescrip[_MAX_PATH];
; 3309 : 	char descrip[_MAX_PATH];
; 3310 : 	char *parsed;
; 3311 : 	HotSpotStruct HotSpot;
; 3312 : 	//int	 HotX,HotY,HotW,HotH;
; 3313 : 	UI95_RECT	client;
; 3314 : 
; 3315 : 	C_Button *Keycodes;
; 3316 : 	C_Text *Mapping;
; 3317 : 	C_Line *Vline;
; 3318 : 	C_Line *Hline;
; 3319 : 
; 3320 : 	keydescrip[0] = 0;

	mov	edx, 1
	imul	edx, 0
	mov	DWORD PTR $T2[ebp], edx
	cmp	DWORD PTR $T2[ebp], 260			; 00000104H
	jae	SHORT $LN19@CreateKeyM
	jmp	SHORT $LN20@CreateKeyM
$LN19@CreateKeyM:
	call	___report_rangecheckfailure
$LN20@CreateKeyM:
	mov	eax, DWORD PTR $T2[ebp]
	mov	BYTE PTR _keydescrip$[ebp+eax], 0

; 3321 : 
; 3322 : 	client = win->GetClientArea(3);

	push	3
	lea	ecx, DWORD PTR $T4[ebp]
	push	ecx
	mov	ecx, DWORD PTR _win$[ebp]
	call	?GetClientArea@C_Window@@QAE?AUUI95_RECT@@J@Z ; C_Window::GetClientArea
	mov	edx, DWORD PTR [eax]
	mov	DWORD PTR _client$[ebp], edx
	mov	ecx, DWORD PTR [eax+4]
	mov	DWORD PTR _client$[ebp+4], ecx
	mov	edx, DWORD PTR [eax+8]
	mov	DWORD PTR _client$[ebp+8], edx
	mov	eax, DWORD PTR [eax+12]
	mov	DWORD PTR _client$[ebp+12], eax

; 3323 : 	Keycodes = (C_Button *)win->FindControl(KEYCODES); //define this as KEYCODES

	push	100000					; 000186a0H
	mov	ecx, DWORD PTR _win$[ebp]
	call	?FindControl@C_Window@@QAEPAVC_Base@@J@Z ; C_Window::FindControl
	mov	DWORD PTR _Keycodes$[ebp], eax

; 3324 : 	Mapping = (C_Text *)win->FindControl(MAPPING);     //define this as MAPPING

	push	110000					; 0001adb0H
	mov	ecx, DWORD PTR _win$[ebp]
	call	?FindControl@C_Window@@QAEPAVC_Base@@J@Z ; C_Window::FindControl
	mov	DWORD PTR _Mapping$[ebp], eax

; 3325 : 	Hline = (C_Line *)win->FindControl(HLINE);     //define this as HLINE

	push	120000					; 0001d4c0H
	mov	ecx, DWORD PTR _win$[ebp]
	call	?FindControl@C_Window@@QAEPAVC_Base@@J@Z ; C_Window::FindControl
	mov	DWORD PTR _Hline$[ebp], eax

; 3326 : 	Vline = (C_Line *)win->FindControl(VLINE);     //define this as VLINE

	push	130000					; 0001fbd0H
	mov	ecx, DWORD PTR _win$[ebp]
	call	?FindControl@C_Window@@QAEPAVC_Base@@J@Z ; C_Window::FindControl
	mov	DWORD PTR _Vline$[ebp], eax

; 3327 : 	
; 3328 : 	HotSpot.X = -3;

	mov	DWORD PTR _HotSpot$[ebp], -3		; fffffffdH

; 3329 : 	HotSpot.Y = -1;

	mov	DWORD PTR _HotSpot$[ebp+4], -1

; 3330 : 	if(Vline)

	cmp	DWORD PTR _Vline$[ebp], 0
	je	SHORT $LN13@CreateKeyM

; 3331 : 	{
; 3332 : 		HotSpot.W = Vline->GetX() -1;

	mov	ecx, DWORD PTR _Vline$[ebp]
	call	?GetX@C_Base@@QAEJXZ			; C_Base::GetX
	sub	eax, 1
	mov	DWORD PTR _HotSpot$[ebp+8], eax

; 3333 : 		HotSpot.H = Vline->GetH() - 1;

	mov	ecx, DWORD PTR _Vline$[ebp]
	call	?GetH@C_Base@@QAEJXZ			; C_Base::GetH
	sub	eax, 1
	mov	DWORD PTR _HotSpot$[ebp+12], eax

; 3334 : 	}
; 3335 : 	else

	jmp	SHORT $LN12@CreateKeyM
$LN13@CreateKeyM:

; 3336 : 	{
; 3337 : 		HotSpot.W = 30;

	mov	DWORD PTR _HotSpot$[ebp+8], 30		; 0000001eH

; 3338 : 		HotSpot.H = 12;

	mov	DWORD PTR _HotSpot$[ebp+12], 12		; 0000000cH
$LN12@CreateKeyM:

; 3339 : 	}
; 3340 : 
; 3341 : 	NumDispKeys = 0;

	mov	DWORD PTR ?NumDispKeys@@3HA, 0		; NumDispKeys

; 3342 : 	NumUndispKeys = 0;

	mov	DWORD PTR ?NumUndispKeys@@3HA, 0	; NumUndispKeys
$LN11@CreateKeyM:

; 3343 : 
; 3344 : 	while(fgets(buff,_MAX_PATH,fp) )

	mov	ecx, DWORD PTR _fp$[ebp]
	push	ecx
	push	260					; 00000104H
	lea	edx, DWORD PTR _buff$[ebp]
	push	edx
	call	_fgets
	add	esp, 12					; 0000000cH
	test	eax, eax
	je	$LN10@CreateKeyM

; 3345 : 	{
; 3346 : 		if (buff[0] == ';' || buff[0] == '\n' || buff[0] == '#')

	mov	eax, 1
	imul	eax, 0
	movsx	ecx, BYTE PTR _buff$[ebp+eax]
	cmp	ecx, 59					; 0000003bH
	je	SHORT $LN8@CreateKeyM
	mov	edx, 1
	imul	edx, 0
	movsx	eax, BYTE PTR _buff$[ebp+edx]
	cmp	eax, 10					; 0000000aH
	je	SHORT $LN8@CreateKeyM
	mov	ecx, 1
	imul	ecx, 0
	movsx	edx, BYTE PTR _buff$[ebp+ecx]
	cmp	edx, 35					; 00000023H
	jne	SHORT $LN9@CreateKeyM
$LN8@CreateKeyM:

; 3347 :                continue;

	jmp	SHORT $LN11@CreateKeyM
$LN9@CreateKeyM:

; 3348 : 		
; 3349 : 		if(sscanf (buff, "%s %d %d %x %x %x %x %d %[^\n]s", funcName, &buttonId, &mouseSide, &key2, &mod2, &key1, &mod1, &editable, &descrip) < 8)

	lea	eax, DWORD PTR _descrip$[ebp]
	push	eax
	lea	ecx, DWORD PTR _editable$[ebp]
	push	ecx
	lea	edx, DWORD PTR _mod1$[ebp]
	push	edx
	lea	eax, DWORD PTR _key1$[ebp]
	push	eax
	lea	ecx, DWORD PTR _mod2$[ebp]
	push	ecx
	lea	edx, DWORD PTR _key2$[ebp]
	push	edx
	lea	eax, DWORD PTR _mouseSide$[ebp]
	push	eax
	lea	ecx, DWORD PTR _buttonId$[ebp]
	push	ecx
	lea	edx, DWORD PTR _funcName$[ebp]
	push	edx
	push	OFFSET ??_C@_0BP@FOPAGOHB@?$CFs?5?$CFd?5?$CFd?5?$CFx?5?$CFx?5?$CFx?5?$CFx?5?$CFd?5?$CF?$FL?$FO?6?$FNs?$AA@
	lea	eax, DWORD PTR _buff$[ebp]
	push	eax
	call	_sscanf
	add	esp, 44					; 0000002cH
	cmp	eax, 8
	jge	SHORT $LN7@CreateKeyM

; 3350 : 			continue;

	jmp	$LN11@CreateKeyM
$LN7@CreateKeyM:

; 3351 : 
; 3352 : 		if(key2 == -2)

	cmp	DWORD PTR _key2$[ebp], -2		; fffffffeH
	jne	SHORT $LN6@CreateKeyM

; 3353 : 			continue;

	jmp	$LN11@CreateKeyM
$LN6@CreateKeyM:

; 3354 : 
; 3355 : 		theFunc = FindFunctionFromString (funcName);

	lea	ecx, DWORD PTR _funcName$[ebp]
	push	ecx
	call	?FindFunctionFromString@@YAP6AXKHPAX@ZPAD@Z ; FindFunctionFromString
	add	esp, 4
	mov	DWORD PTR _theFunc$[ebp], eax

; 3356 : 		
; 3357 : 		keydescrip[0] = 0;

	mov	edx, 1
	imul	edx, 0
	mov	DWORD PTR $T1[ebp], edx
	cmp	DWORD PTR $T1[ebp], 260			; 00000104H
	jae	SHORT $LN21@CreateKeyM
	jmp	SHORT $LN22@CreateKeyM
$LN21@CreateKeyM:
	call	___report_rangecheckfailure
$LN22@CreateKeyM:
	mov	eax, DWORD PTR $T1[ebp]
	mov	BYTE PTR _keydescrip$[ebp+eax], 0

; 3358 : 
; 3359 : 		if(!theFunc)

	cmp	DWORD PTR _theFunc$[ebp], 0
	jne	SHORT $LN5@CreateKeyM

; 3360 : 			continue;

	jmp	$LN11@CreateKeyM
$LN5@CreateKeyM:

; 3361 : 
; 3362 : 		KeyMap Map;
; 3363 : 		Map.func = theFunc;

	mov	ecx, DWORD PTR _theFunc$[ebp]
	mov	DWORD PTR _Map$3[ebp], ecx

; 3364 : 		Map.buttonId = buttonId;

	mov	edx, DWORD PTR _buttonId$[ebp]
	mov	DWORD PTR _Map$3[ebp+4], edx

; 3365 : 		Map.mouseSide = mouseSide;

	mov	eax, DWORD PTR _mouseSide$[ebp]
	mov	DWORD PTR _Map$3[ebp+8], eax

; 3366 : 		Map.editable = editable;

	mov	ecx, DWORD PTR _editable$[ebp]
	mov	DWORD PTR _Map$3[ebp+28], ecx

; 3367 : 		strcpy(Map.descrip, descrip);

	lea	edx, DWORD PTR _descrip$[ebp]
	push	edx
	lea	eax, DWORD PTR _Map$3[ebp+32]
	push	eax
	call	_strcpy
	add	esp, 8

; 3368 : 		Map.key1 = key1;

	mov	ecx, DWORD PTR _key1$[ebp]
	mov	DWORD PTR _Map$3[ebp+20], ecx

; 3369 : 		Map.mod1 = mod1;

	mov	edx, DWORD PTR _mod1$[ebp]
	mov	DWORD PTR _Map$3[ebp+24], edx

; 3370 : 		Map.key2 = key2;

	mov	eax, DWORD PTR _key2$[ebp]
	mov	DWORD PTR _Map$3[ebp+12], eax

; 3371 : 		Map.mod2 = mod2;

	mov	ecx, DWORD PTR _mod2$[ebp]
	mov	DWORD PTR _Map$3[ebp+16], ecx

; 3372 : 
; 3373 : 		if(editable == -2)

	cmp	DWORD PTR _editable$[ebp], -2		; fffffffeH
	jne	SHORT $LN4@CreateKeyM

; 3374 : 		{
; 3375 : 			AddUndisplayedKey(Map);

	lea	edx, DWORD PTR _Map$3[ebp]
	push	edx
	call	?AddUndisplayedKey@@YAHAAUKeyMap@@@Z	; AddUndisplayedKey
	add	esp, 4

; 3376 : 		
; 3377 : 			ShiAssert(NumUndispKeys < 300);
; 3378 : 
; 3379 : 			continue;

	jmp	$LN11@CreateKeyM
$LN4@CreateKeyM:

; 3380 : 		}
; 3381 : 
; 3382 : 		parsed = descrip +1;

	lea	eax, DWORD PTR _descrip$[ebp+1]
	mov	DWORD PTR _parsed$[ebp], eax

; 3383 : 		parsed[strlen(descrip) -2] = 0;

	lea	ecx, DWORD PTR _descrip$[ebp]
	push	ecx
	call	_strlen
	add	esp, 4
	mov	edx, DWORD PTR _parsed$[ebp]
	mov	BYTE PTR [edx+eax-2], 0

; 3384 : 		parsed[37] = 0;

	mov	eax, 1
	imul	eax, 37					; 00000025H
	mov	ecx, DWORD PTR _parsed$[ebp]
	mov	BYTE PTR [ecx+eax], 0

; 3385 : 
; 3386 : 		if(!count)

	cmp	DWORD PTR _count$[ebp], 0
	jne	$LN3@CreateKeyM

; 3387 : 		{
; 3388 : 			NumDispKeys++;

	mov	edx, DWORD PTR ?NumDispKeys@@3HA	; NumDispKeys
	add	edx, 1
	mov	DWORD PTR ?NumDispKeys@@3HA, edx	; NumDispKeys

; 3389 : 			//first time through .. special case
; 3390 : 			UpdateKeyMapButton(Keycodes, Map, count);

	mov	eax, DWORD PTR _count$[ebp]
	push	eax
	lea	ecx, DWORD PTR _Map$3[ebp]
	push	ecx
	mov	edx, DWORD PTR _Keycodes$[ebp]
	push	edx
	call	?UpdateKeyMapButton@@YAXPAVC_Button@@AAUKeyMap@@H@Z ; UpdateKeyMapButton
	add	esp, 12					; 0000000cH

; 3391 : 						
; 3392 : 			Keycodes->SetCallback(KeycodeCB);

	push	OFFSET ?KeycodeCB@@YAXJFPAVC_Base@@@Z	; KeycodeCB
	mov	eax, DWORD PTR _Keycodes$[ebp]
	mov	edx, DWORD PTR [eax]
	mov	ecx, DWORD PTR _Keycodes$[ebp]
	mov	eax, DWORD PTR [edx+100]
	call	eax

; 3393 : 			Keycodes->SetHotSpot(HotSpot.X, HotSpot.Y, HotSpot.W, HotSpot.H);		

	mov	ecx, DWORD PTR _HotSpot$[ebp+12]
	push	ecx
	mov	edx, DWORD PTR _HotSpot$[ebp+8]
	push	edx
	mov	eax, DWORD PTR _HotSpot$[ebp+4]
	push	eax
	mov	ecx, DWORD PTR _HotSpot$[ebp]
	push	ecx
	mov	ecx, DWORD PTR _Keycodes$[ebp]
	call	?SetHotSpot@C_Button@@QAEXJJJJ@Z	; C_Button::SetHotSpot

; 3394 : 			Keycodes->Refresh();

	mov	edx, DWORD PTR _Keycodes$[ebp]
	mov	eax, DWORD PTR [edx]
	mov	ecx, DWORD PTR _Keycodes$[ebp]
	mov	edx, DWORD PTR [eax+160]
	call	edx

; 3395 : 
; 3396 : 			Mapping->Refresh();

	mov	eax, DWORD PTR _Mapping$[ebp]
	mov	edx, DWORD PTR [eax]
	mov	ecx, DWORD PTR _Mapping$[ebp]
	mov	eax, DWORD PTR [edx+160]
	call	eax

; 3397 : 			Mapping->SetText(parsed);

	mov	ecx, DWORD PTR _parsed$[ebp]
	push	ecx
	mov	edx, DWORD PTR _Mapping$[ebp]
	mov	eax, DWORD PTR [edx]
	mov	ecx, DWORD PTR _Mapping$[ebp]
	mov	edx, DWORD PTR [eax+256]
	call	edx

; 3398 : 			Mapping->Refresh();

	mov	eax, DWORD PTR _Mapping$[ebp]
	mov	edx, DWORD PTR [eax]
	mov	ecx, DWORD PTR _Mapping$[ebp]
	mov	eax, DWORD PTR [edx+160]
	call	eax

; 3399 : 		}
; 3400 : 		else

	jmp	$LN2@CreateKeyM
$LN3@CreateKeyM:

; 3401 : 		{
; 3402 : 			NumDispKeys++;

	mov	ecx, DWORD PTR ?NumDispKeys@@3HA	; NumDispKeys
	add	ecx, 1
	mov	DWORD PTR ?NumDispKeys@@3HA, ecx	; NumDispKeys

; 3403 : 			SetHdrStatusLine(win, Keycodes, Vline, Map, HotSpot, count);

	mov	edx, DWORD PTR _count$[ebp]
	push	edx
	sub	esp, 16					; 00000010H
	mov	eax, esp
	mov	ecx, DWORD PTR _HotSpot$[ebp]
	mov	DWORD PTR [eax], ecx
	mov	edx, DWORD PTR _HotSpot$[ebp+4]
	mov	DWORD PTR [eax+4], edx
	mov	ecx, DWORD PTR _HotSpot$[ebp+8]
	mov	DWORD PTR [eax+8], ecx
	mov	edx, DWORD PTR _HotSpot$[ebp+12]
	mov	DWORD PTR [eax+12], edx
	lea	eax, DWORD PTR _Map$3[ebp]
	push	eax
	mov	ecx, DWORD PTR _Vline$[ebp]
	push	ecx
	mov	edx, DWORD PTR _Keycodes$[ebp]
	push	edx
	mov	eax, DWORD PTR _win$[ebp]
	push	eax
	call	?SetHdrStatusLine@@YAHPAVC_Window@@PAVC_Button@@PAVC_Line@@AAUKeyMap@@UHotSpotStruct@@H@Z ; SetHdrStatusLine
	add	esp, 36					; 00000024H

; 3404 : 			//the rest of the times through
; 3405 : 			UpdateKeyMap(win, Keycodes, Vline->GetH(), Map, HotSpot, count );

	mov	ecx, DWORD PTR _count$[ebp]
	push	ecx
	sub	esp, 16					; 00000010H
	mov	edx, esp
	mov	eax, DWORD PTR _HotSpot$[ebp]
	mov	DWORD PTR [edx], eax
	mov	ecx, DWORD PTR _HotSpot$[ebp+4]
	mov	DWORD PTR [edx+4], ecx
	mov	eax, DWORD PTR _HotSpot$[ebp+8]
	mov	DWORD PTR [edx+8], eax
	mov	ecx, DWORD PTR _HotSpot$[ebp+12]
	mov	DWORD PTR [edx+12], ecx
	lea	edx, DWORD PTR _Map$3[ebp]
	push	edx
	mov	ecx, DWORD PTR _Vline$[ebp]
	call	?GetH@C_Base@@QAEJXZ			; C_Base::GetH
	push	eax
	mov	eax, DWORD PTR _Keycodes$[ebp]
	push	eax
	mov	ecx, DWORD PTR _win$[ebp]
	push	ecx
	call	?UpdateKeyMap@@YAHPAVC_Window@@PAVC_Button@@HAAUKeyMap@@UHotSpotStruct@@H@Z ; UpdateKeyMap
	add	esp, 36					; 00000024H

; 3406 : 
; 3407 : 			UpdateMappingDescrip(win, Mapping, Vline->GetH(),parsed, count);//this will add the control if it doesn't exist

	mov	edx, DWORD PTR _count$[ebp]
	push	edx
	mov	eax, DWORD PTR _parsed$[ebp]
	push	eax
	mov	ecx, DWORD PTR _Vline$[ebp]
	call	?GetH@C_Base@@QAEJXZ			; C_Base::GetH
	push	eax
	mov	ecx, DWORD PTR _Mapping$[ebp]
	push	ecx
	mov	edx, DWORD PTR _win$[ebp]
	push	edx
	call	?UpdateMappingDescrip@@YAHPAVC_Window@@PAVC_Text@@HPADH@Z ; UpdateMappingDescrip
	add	esp, 20					; 00000014H

; 3408 : 
; 3409 : 			AddKeyMapLines(win, Hline, Vline, count);

	mov	eax, DWORD PTR _count$[ebp]
	push	eax
	mov	ecx, DWORD PTR _Vline$[ebp]
	push	ecx
	mov	edx, DWORD PTR _Hline$[ebp]
	push	edx
	mov	eax, DWORD PTR _win$[ebp]
	push	eax
	call	?AddKeyMapLines@@YAHPAVC_Window@@PAVC_Line@@1H@Z ; AddKeyMapLines
	add	esp, 16					; 00000010H
$LN2@CreateKeyM:

; 3410 : 		 }
; 3411 : 
; 3412 : 	count++;

	mov	ecx, DWORD PTR _count$[ebp]
	add	ecx, 1
	mov	DWORD PTR _count$[ebp], ecx

; 3413 : 	if(count > 10000)

	cmp	DWORD PTR _count$[ebp], 10000		; 00002710H
	jle	SHORT $LN1@CreateKeyM

; 3414 : 		break;

	jmp	SHORT $LN10@CreateKeyM
$LN1@CreateKeyM:

; 3415 : 	}

	jmp	$LN11@CreateKeyM
$LN10@CreateKeyM:

; 3416 :    	
; 3417 : 	fclose(fp);

	mov	edx, DWORD PTR _fp$[ebp]
	push	edx
	call	_fclose
	add	esp, 4

; 3418 : 	return FALSE;

	xor	eax, eax
$LN18@CreateKeyM:

; 3419 : 
; 3420 : }

	mov	ecx, DWORD PTR __$ArrayPad$[ebp]
	xor	ecx, ebp
	call	@__security_check_cookie@4
	mov	esp, ebp
	pop	ebp
	ret	0
?CreateKeyMapList@@YAHPAD@Z ENDP			; CreateKeyMapList
_TEXT	ENDS
; Function compile flags: /Odtp
; File c:\users\zhitao li\documents\visual studio 2012\projects\freefalcon\ui\src\setup\controltab.cpp
_TEXT	SEGMENT
___formal$ = 8						; size = 4
_hittype$ = 12						; size = 2
___formal$ = 16						; size = 4
?LoadKeyButtonCB@@YAXJFPAVC_Base@@@Z PROC		; LoadKeyButtonCB

; 3270 : {

	push	ebp
	mov	ebp, esp

; 3271 : 	if(hittype != C_TYPE_LMOUSEUP)

	movsx	eax, WORD PTR _hittype$[ebp]
	cmp	eax, 52					; 00000034H
	je	SHORT $LN1@LoadKeyBut

; 3272 : 		return;

	jmp	SHORT $LN2@LoadKeyBut
$LN1@LoadKeyBut:

; 3273 : 
; 3274 : 	SetDeleteCallback(DelKeyFileCB);

	push	OFFSET ?DelKeyFileCB@@YAXJFPAVC_Base@@@Z ; DelKeyFileCB
	call	?SetDeleteCallback@@YAXP6AXJFPAVC_Base@@@Z@Z ; SetDeleteCallback
	add	esp, 4

; 3275 : 	LoadAFile(TXT_LOAD_KEYBOARD,"config\\*.KEY",NULL,LoadKeyCB,CloseWindowCB);

	push	OFFSET ?CloseWindowCB@@YAXJFPAVC_Base@@@Z ; CloseWindowCB
	push	OFFSET ?LoadKeyCB@@YAXJFPAVC_Base@@@Z	; LoadKeyCB
	push	0
	push	OFFSET ??_C@_0N@IAEPOJDM@config?2?$CK?4KEY?$AA@
	push	229					; 000000e5H
	call	?LoadAFile@@YAXJPADQAPADP6AXJFPAVC_Base@@@Z3@Z ; LoadAFile
	add	esp, 20					; 00000014H
$LN2@LoadKeyBut:

; 3276 : }

	pop	ebp
	ret	0
?LoadKeyButtonCB@@YAXJFPAVC_Base@@@Z ENDP		; LoadKeyButtonCB
_TEXT	ENDS
; Function compile flags: /Odtp
; File c:\users\zhitao li\documents\visual studio 2012\projects\freefalcon\ui\src\setup\controltab.cpp
_TEXT	SEGMENT
$T1 = -276						; size = 4
_ebox$ = -272						; size = 4
_i$2 = -268						; size = 4
_fname$ = -264						; size = 260
__$ArrayPad$ = -4					; size = 4
___formal$ = 8						; size = 4
_hittype$ = 12						; size = 2
_control$ = 16						; size = 4
?LoadKeyCB@@YAXJFPAVC_Base@@@Z PROC			; LoadKeyCB

; 3241 : {

	push	ebp
	mov	ebp, esp
	sub	esp, 276				; 00000114H
	mov	eax, DWORD PTR ___security_cookie
	xor	eax, ebp
	mov	DWORD PTR __$ArrayPad$[ebp], eax

; 3242 : 	C_EditBox * ebox;
; 3243 : 	_TCHAR fname[MAX_PATH];
; 3244 : 
; 3245 : 	if(hittype != C_TYPE_LMOUSEUP)

	movsx	eax, WORD PTR _hittype$[ebp]
	cmp	eax, 52					; 00000034H
	je	SHORT $LN8@LoadKeyCB

; 3246 : 		return;

	jmp	$LN10@LoadKeyCB
$LN8@LoadKeyCB:

; 3247 : 
; 3248 : 	gMainHandler->HideWindow(control->Parent_);

	mov	ecx, DWORD PTR _control$[ebp]
	mov	edx, DWORD PTR [ecx+48]
	push	edx
	mov	ecx, DWORD PTR ?gMainHandler@@3PAVC_Handler@@A ; gMainHandler
	call	?HideWindow@C_Handler@@QAEHPAVC_Window@@@Z ; C_Handler::HideWindow

; 3249 : 
; 3250 : 	ebox=(C_EditBox*)control->Parent_->FindControl(FILE_NAME);

	push	501					; 000001f5H
	mov	eax, DWORD PTR _control$[ebp]
	mov	ecx, DWORD PTR [eax+48]
	call	?FindControl@C_Window@@QAEPAVC_Base@@J@Z ; C_Window::FindControl
	mov	DWORD PTR _ebox$[ebp], eax

; 3251 : 	if(ebox)

	cmp	DWORD PTR _ebox$[ebp], 0
	je	$LN10@LoadKeyCB

; 3252 : 	{
; 3253 : 		_tcscpy(fname,ebox->GetText());

	mov	ecx, DWORD PTR _ebox$[ebp]
	call	?GetText@C_EditBox@@QAEPADXZ		; C_EditBox::GetText
	push	eax
	lea	ecx, DWORD PTR _fname$[ebp]
	push	ecx
	call	_strcpy
	add	esp, 8

; 3254 : 		for(unsigned long i=0;i<_tcslen(fname);i++)

	mov	DWORD PTR _i$2[ebp], 0
	jmp	SHORT $LN6@LoadKeyCB
$LN5@LoadKeyCB:
	mov	edx, DWORD PTR _i$2[ebp]
	add	edx, 1
	mov	DWORD PTR _i$2[ebp], edx
$LN6@LoadKeyCB:
	lea	eax, DWORD PTR _fname$[ebp]
	push	eax
	call	_strlen
	add	esp, 4
	cmp	DWORD PTR _i$2[ebp], eax
	jae	SHORT $LN4@LoadKeyCB

; 3255 : 			if(fname[i] == '.')

	mov	ecx, DWORD PTR _i$2[ebp]
	movsx	edx, BYTE PTR _fname$[ebp+ecx]
	cmp	edx, 46					; 0000002eH
	jne	SHORT $LN3@LoadKeyCB

; 3256 : 				fname[i]=0;

	mov	eax, DWORD PTR _i$2[ebp]
	mov	DWORD PTR $T1[ebp], eax
	cmp	DWORD PTR $T1[ebp], 260			; 00000104H
	jae	SHORT $LN11@LoadKeyCB
	jmp	SHORT $LN12@LoadKeyCB
$LN11@LoadKeyCB:
	call	___report_rangecheckfailure
$LN12@LoadKeyCB:
	mov	ecx, DWORD PTR $T1[ebp]
	mov	BYTE PTR _fname$[ebp+ecx], 0
$LN3@LoadKeyCB:

; 3257 : 
; 3258 : 		if(fname[0] == 0)

	jmp	SHORT $LN5@LoadKeyCB
$LN4@LoadKeyCB:
	mov	edx, 1
	imul	edx, 0
	movsx	eax, BYTE PTR _fname$[ebp+edx]
	test	eax, eax
	jne	SHORT $LN2@LoadKeyCB

; 3259 : 			return;

	jmp	SHORT $LN10@LoadKeyCB
$LN2@LoadKeyCB:

; 3260 : 		
; 3261 : 		KeyVar.Modified = TRUE;

	mov	DWORD PTR ?KeyVar@@3UKeyVars@@A+20, 1

; 3262 : 		if(UpdateKeyMapList(fname, USE_FILENAME))

	push	1
	lea	ecx, DWORD PTR _fname$[ebp]
	push	ecx
	call	?UpdateKeyMapList@@YAHPADH@Z		; UpdateKeyMapList
	add	esp, 8
	test	eax, eax
	je	SHORT $LN10@LoadKeyCB

; 3263 : 			_tcscpy(PlayerOptions.keyfile,ebox->GetText());

	mov	ecx, DWORD PTR _ebox$[ebp]
	call	?GetText@C_EditBox@@QAEPADXZ		; C_EditBox::GetText
	push	eax
	push	OFFSET ?PlayerOptions@@3VPlayerOptionsClass@@A+164
	call	_strcpy
	add	esp, 8
$LN10@LoadKeyCB:

; 3264 : 		
; 3265 : 	}
; 3266 : }

	mov	ecx, DWORD PTR __$ArrayPad$[ebp]
	xor	ecx, ebp
	call	@__security_check_cookie@4
	mov	esp, ebp
	pop	ebp
	ret	0
?LoadKeyCB@@YAXJFPAVC_Base@@@Z ENDP			; LoadKeyCB
_TEXT	ENDS
; Function compile flags: /Odtp
; File c:\users\zhitao li\documents\visual studio 2012\projects\freefalcon\ui\src\setup\controltab.cpp
_TEXT	SEGMENT
tv304 = -1700						; size = 4
_mouseSide$ = -1696					; size = 4
_Hline$ = -1692						; size = 4
tv308 = -1688						; size = 4
_mod2$ = -1684						; size = 4
_text$ = -1680						; size = 4
_mod1$ = -1676						; size = 4
_key1$ = -1672						; size = 4
_buttonId$ = -1668					; size = 4
$T1 = -1664						; size = 4
_theFunc$ = -1660					; size = 4
_Keycodes$ = -1656					; size = 4
$T2 = -1652						; size = 4
_button$ = -1648					; size = 4
_editable$ = -1644					; size = 4
_key2$ = -1640						; size = 4
_fp$ = -1636						; size = 4
_parsed$ = -1632					; size = 4
_Mapping$ = -1628					; size = 4
_Vline$ = -1624						; size = 4
_win$ = -1620						; size = 4
_count$ = -1616						; size = 4
_Map$3 = -1612						; size = 292
_HotSpot$ = -1320					; size = 16
_keydescrip$ = -1304					; size = 260
_funcName$ = -1044					; size = 260
_filename$ = -784					; size = 260
_descrip$ = -524					; size = 260
_buff$ = -264						; size = 260
__$ArrayPad$ = -4					; size = 4
_fname$ = 8						; size = 4
_flag$ = 12						; size = 4
?UpdateKeyMapList@@YAHPADH@Z PROC			; UpdateKeyMapList

; 3088 : {

	push	ebp
	mov	ebp, esp
	sub	esp, 1700				; 000006a4H
	mov	eax, DWORD PTR ___security_cookie
	xor	eax, ebp
	mov	DWORD PTR __$ArrayPad$[ebp], eax

; 3089 : 	FILE *fp;
; 3090 : 	
; 3091 : 	char filename[_MAX_PATH];
; 3092 : 	C_Window *win;
; 3093 : 
; 3094 : 
; 3095 : 	win = gMainHandler->FindWindow(SETUP_WIN);

	push	70002					; 00011172H
	mov	ecx, DWORD PTR ?gMainHandler@@3PAVC_Handler@@A ; gMainHandler
	call	?FindWindowA@C_Handler@@QAEPAVC_Window@@J@Z ; C_Handler::FindWindowA
	mov	DWORD PTR _win$[ebp], eax

; 3096 : 	if(!win)

	cmp	DWORD PTR _win$[ebp], 0
	jne	SHORT $LN19@UpdateKeyM

; 3097 : 	{
; 3098 : 		KeyVar.NeedUpdate = TRUE;

	mov	DWORD PTR ?KeyVar@@3UKeyVars@@A+24, 1

; 3099 : 		return FALSE;

	xor	eax, eax
	jmp	$LN21@UpdateKeyM
$LN19@UpdateKeyM:

; 3100 : 	}
; 3101 : 
; 3102 : 	if(flag)

	cmp	DWORD PTR _flag$[ebp], 0
	je	SHORT $LN18@UpdateKeyM

; 3103 : 		sprintf(filename,"%s\\config\\%s.key",FalconDataDirectory,fname);

	mov	eax, DWORD PTR _fname$[ebp]
	push	eax
	push	OFFSET ?FalconDataDirectory@@3PADA	; FalconDataDirectory
	push	OFFSET ??_C@_0BB@FEJPLKOE@?$CFs?2config?2?$CFs?4key?$AA@
	lea	ecx, DWORD PTR _filename$[ebp]
	push	ecx
	call	_sprintf
	add	esp, 16					; 00000010H

; 3104 : 	else

	jmp	SHORT $LN17@UpdateKeyM
$LN18@UpdateKeyM:

; 3105 : 		sprintf(filename,"%s\\config\\keystrokes.key",FalconDataDirectory);

	push	OFFSET ?FalconDataDirectory@@3PADA	; FalconDataDirectory
	push	OFFSET ??_C@_0BJ@IKOFGMEL@?$CFs?2config?2keystrokes?4key?$AA@
	lea	edx, DWORD PTR _filename$[ebp]
	push	edx
	call	_sprintf
	add	esp, 12					; 0000000cH
$LN17@UpdateKeyM:

; 3106 : 
; 3107 : 	fp = fopen(filename,"rt");

	push	OFFSET ??_C@_02BMJICGCB@rt?$AA@
	lea	eax, DWORD PTR _filename$[ebp]
	push	eax
	call	_fopen
	add	esp, 8
	mov	DWORD PTR _fp$[ebp], eax

; 3108 : 	if(!fp)

	cmp	DWORD PTR _fp$[ebp], 0
	jne	SHORT $LN16@UpdateKeyM

; 3109 : 		return FALSE;

	xor	eax, eax
	jmp	$LN21@UpdateKeyM
$LN16@UpdateKeyM:

; 3110 : 	
; 3111 : 	UserFunctionTable.ClearTable();

	mov	ecx, OFFSET ?UserFunctionTable@@3VInputFunctionHashTable@@A ; UserFunctionTable
	call	?ClearTable@InputFunctionHashTable@@QAEXXZ ; InputFunctionHashTable::ClearTable

; 3112 : 	LoadFunctionTables(fname);

	mov	ecx, DWORD PTR _fname$[ebp]
	push	ecx
	call	?LoadFunctionTables@@YAXPAD@Z		; LoadFunctionTables
	add	esp, 4

; 3113 : 	
; 3114 : 	char keydescrip[_MAX_PATH];
; 3115 : 	C_Button	*button;
; 3116 : 	C_Text		*text;
; 3117 : 	
; 3118 : 	keydescrip[0] = 0;

	mov	edx, 1
	imul	edx, 0
	mov	DWORD PTR $T2[ebp], edx
	cmp	DWORD PTR $T2[ebp], 260			; 00000104H
	jae	SHORT $LN22@UpdateKeyM
	jmp	SHORT $LN23@UpdateKeyM
$LN22@UpdateKeyM:
	call	___report_rangecheckfailure
$LN23@UpdateKeyM:
	mov	eax, DWORD PTR $T2[ebp]
	mov	BYTE PTR _keydescrip$[ebp+eax], 0

; 3119 : 		
; 3120 : 	int count = 0;

	mov	DWORD PTR _count$[ebp], 0

; 3121 : 	int key1, mod1;
; 3122 : 	int key2, mod2, editable;
; 3123 : //	int flags =0, 
; 3124 : 	int buttonId, mouseSide;
; 3125 : 	InputFunctionType theFunc;
; 3126 : 	char buff[_MAX_PATH];
; 3127 : 	char funcName[_MAX_PATH];
; 3128 : 	char descrip[_MAX_PATH];
; 3129 : 	char *parsed;
; 3130 : 	HotSpotStruct HotSpot;
; 3131 : 	
; 3132 : 	C_Line *Vline;
; 3133 : 	C_Line *Hline;
; 3134 : 	C_Button *Keycodes;
; 3135 : 	C_Text *Mapping;
; 3136 : 
; 3137 : 	Keycodes = button = (C_Button *)win->FindControl(KEYCODES); //define this as KEYCODES

	push	100000					; 000186a0H
	mov	ecx, DWORD PTR _win$[ebp]
	call	?FindControl@C_Window@@QAEPAVC_Base@@J@Z ; C_Window::FindControl
	mov	DWORD PTR _button$[ebp], eax
	mov	ecx, DWORD PTR _button$[ebp]
	mov	DWORD PTR _Keycodes$[ebp], ecx

; 3138 : 	Mapping = text = (C_Text *)win->FindControl(MAPPING);     //define this as MAPPING

	push	110000					; 0001adb0H
	mov	ecx, DWORD PTR _win$[ebp]
	call	?FindControl@C_Window@@QAEPAVC_Base@@J@Z ; C_Window::FindControl
	mov	DWORD PTR _text$[ebp], eax
	mov	edx, DWORD PTR _text$[ebp]
	mov	DWORD PTR _Mapping$[ebp], edx

; 3139 : 	Hline = (C_Line *)win->FindControl(HLINE);     //define this as HLINE

	push	120000					; 0001d4c0H
	mov	ecx, DWORD PTR _win$[ebp]
	call	?FindControl@C_Window@@QAEPAVC_Base@@J@Z ; C_Window::FindControl
	mov	DWORD PTR _Hline$[ebp], eax

; 3140 : 	Vline = (C_Line *)win->FindControl(VLINE);     //define this as VLINE

	push	130000					; 0001fbd0H
	mov	ecx, DWORD PTR _win$[ebp]
	call	?FindControl@C_Window@@QAEPAVC_Base@@J@Z ; C_Window::FindControl
	mov	DWORD PTR _Vline$[ebp], eax

; 3141 : 
; 3142 : 	HotSpot.X = -3;

	mov	DWORD PTR _HotSpot$[ebp], -3		; fffffffdH

; 3143 : 	HotSpot.Y = -1;

	mov	DWORD PTR _HotSpot$[ebp+4], -1

; 3144 : 	if(Vline)

	cmp	DWORD PTR _Vline$[ebp], 0
	je	SHORT $LN15@UpdateKeyM

; 3145 : 	{
; 3146 : 		HotSpot.W = Vline->GetX() -1;

	mov	ecx, DWORD PTR _Vline$[ebp]
	call	?GetX@C_Base@@QAEJXZ			; C_Base::GetX
	sub	eax, 1
	mov	DWORD PTR _HotSpot$[ebp+8], eax

; 3147 : 		HotSpot.H = Vline->GetH() - 1;

	mov	ecx, DWORD PTR _Vline$[ebp]
	call	?GetH@C_Base@@QAEJXZ			; C_Base::GetH
	sub	eax, 1
	mov	DWORD PTR _HotSpot$[ebp+12], eax

; 3148 : 	}
; 3149 : 	else

	jmp	SHORT $LN14@UpdateKeyM
$LN15@UpdateKeyM:

; 3150 : 	{
; 3151 : 		HotSpot.W = 30;

	mov	DWORD PTR _HotSpot$[ebp+8], 30		; 0000001eH

; 3152 : 		HotSpot.H = 12;

	mov	DWORD PTR _HotSpot$[ebp+12], 12		; 0000000cH
$LN14@UpdateKeyM:

; 3153 : 	}
; 3154 : 
; 3155 : 	KeyVar.Modified = FALSE;

	mov	DWORD PTR ?KeyVar@@3UKeyVars@@A+20, 0

; 3156 : 
; 3157 : 	NumUndispKeys = 0;

	mov	DWORD PTR ?NumUndispKeys@@3HA, 0	; NumUndispKeys

; 3158 : 	
; 3159 : 	SetCursor(gCursors[CRSR_WAIT]);

	mov	eax, 4
	imul	eax, 19					; 00000013H
	mov	ecx, DWORD PTR ?gCursors@@3PAPAUHICON__@@A[eax]
	push	ecx
	call	DWORD PTR __imp__SetCursor@4
$LN13@UpdateKeyM:

; 3160 : 	while(fgets(buff,_MAX_PATH,fp) )

	mov	edx, DWORD PTR _fp$[ebp]
	push	edx
	push	260					; 00000104H
	lea	eax, DWORD PTR _buff$[ebp]
	push	eax
	call	_fgets
	add	esp, 12					; 0000000cH
	test	eax, eax
	je	$LN12@UpdateKeyM

; 3161 : 	{
; 3162 : 		
; 3163 : 		if (buff[0] == ';' || buff[0] == '\n' || buff[0] == '#')

	mov	ecx, 1
	imul	ecx, 0
	movsx	edx, BYTE PTR _buff$[ebp+ecx]
	cmp	edx, 59					; 0000003bH
	je	SHORT $LN10@UpdateKeyM
	mov	eax, 1
	imul	eax, 0
	movsx	ecx, BYTE PTR _buff$[ebp+eax]
	cmp	ecx, 10					; 0000000aH
	je	SHORT $LN10@UpdateKeyM
	mov	edx, 1
	imul	edx, 0
	movsx	eax, BYTE PTR _buff$[ebp+edx]
	cmp	eax, 35					; 00000023H
	jne	SHORT $LN11@UpdateKeyM
$LN10@UpdateKeyM:

; 3164 :                continue;

	jmp	SHORT $LN13@UpdateKeyM
$LN11@UpdateKeyM:

; 3165 : 		
; 3166 : 		if(sscanf (buff, "%s %d %d %x %x %x %x %d %[^\n]s", funcName, &buttonId, &mouseSide, &key2, &mod2, &key1, &mod1, &editable, &descrip) < 8)

	lea	ecx, DWORD PTR _descrip$[ebp]
	push	ecx
	lea	edx, DWORD PTR _editable$[ebp]
	push	edx
	lea	eax, DWORD PTR _mod1$[ebp]
	push	eax
	lea	ecx, DWORD PTR _key1$[ebp]
	push	ecx
	lea	edx, DWORD PTR _mod2$[ebp]
	push	edx
	lea	eax, DWORD PTR _key2$[ebp]
	push	eax
	lea	ecx, DWORD PTR _mouseSide$[ebp]
	push	ecx
	lea	edx, DWORD PTR _buttonId$[ebp]
	push	edx
	lea	eax, DWORD PTR _funcName$[ebp]
	push	eax
	push	OFFSET ??_C@_0BP@FOPAGOHB@?$CFs?5?$CFd?5?$CFd?5?$CFx?5?$CFx?5?$CFx?5?$CFx?5?$CFd?5?$CF?$FL?$FO?6?$FNs?$AA@
	lea	ecx, DWORD PTR _buff$[ebp]
	push	ecx
	call	_sscanf
	add	esp, 44					; 0000002cH
	cmp	eax, 8
	jge	SHORT $LN9@UpdateKeyM

; 3167 : 			continue;

	jmp	$LN13@UpdateKeyM
$LN9@UpdateKeyM:

; 3168 : 
; 3169 : 		if(key2 < -1)

	cmp	DWORD PTR _key2$[ebp], -1
	jge	SHORT $LN8@UpdateKeyM

; 3170 : 			continue;

	jmp	$LN13@UpdateKeyM
$LN8@UpdateKeyM:

; 3171 : 
; 3172 : 		theFunc = FindFunctionFromString (funcName);

	lea	edx, DWORD PTR _funcName$[ebp]
	push	edx
	call	?FindFunctionFromString@@YAP6AXKHPAX@ZPAD@Z ; FindFunctionFromString
	add	esp, 4
	mov	DWORD PTR _theFunc$[ebp], eax

; 3173 : 		
; 3174 : 		keydescrip[0] = 0;

	mov	eax, 1
	imul	eax, 0
	mov	DWORD PTR $T1[ebp], eax
	cmp	DWORD PTR $T1[ebp], 260			; 00000104H
	jae	SHORT $LN24@UpdateKeyM
	jmp	SHORT $LN25@UpdateKeyM
$LN24@UpdateKeyM:
	call	___report_rangecheckfailure
$LN25@UpdateKeyM:
	mov	ecx, DWORD PTR $T1[ebp]
	mov	BYTE PTR _keydescrip$[ebp+ecx], 0

; 3175 : 
; 3176 : 		if(!theFunc)

	cmp	DWORD PTR _theFunc$[ebp], 0
	jne	SHORT $LN7@UpdateKeyM

; 3177 : 			continue;

	jmp	$LN13@UpdateKeyM
$LN7@UpdateKeyM:

; 3178 : 
; 3179 : 		KeyMap Map;
; 3180 : 		Map.func = theFunc;

	mov	edx, DWORD PTR _theFunc$[ebp]
	mov	DWORD PTR _Map$3[ebp], edx

; 3181 : 		Map.buttonId = buttonId;

	mov	eax, DWORD PTR _buttonId$[ebp]
	mov	DWORD PTR _Map$3[ebp+4], eax

; 3182 : 		Map.mouseSide = mouseSide;

	mov	ecx, DWORD PTR _mouseSide$[ebp]
	mov	DWORD PTR _Map$3[ebp+8], ecx

; 3183 : 		Map.editable = editable;

	mov	edx, DWORD PTR _editable$[ebp]
	mov	DWORD PTR _Map$3[ebp+28], edx

; 3184 : 		strcpy(Map.descrip, descrip);

	lea	eax, DWORD PTR _descrip$[ebp]
	push	eax
	lea	ecx, DWORD PTR _Map$3[ebp+32]
	push	ecx
	call	_strcpy
	add	esp, 8

; 3185 : 		Map.key1 = key1;

	mov	edx, DWORD PTR _key1$[ebp]
	mov	DWORD PTR _Map$3[ebp+20], edx

; 3186 : 		Map.mod1 = mod1;

	mov	eax, DWORD PTR _mod1$[ebp]
	mov	DWORD PTR _Map$3[ebp+24], eax

; 3187 : 		Map.key2 = key2;

	mov	ecx, DWORD PTR _key2$[ebp]
	mov	DWORD PTR _Map$3[ebp+12], ecx

; 3188 : 		Map.mod2 = mod2;

	mov	edx, DWORD PTR _mod2$[ebp]
	mov	DWORD PTR _Map$3[ebp+16], edx

; 3189 : 
; 3190 : 		if(editable == -2)

	cmp	DWORD PTR _editable$[ebp], -2		; fffffffeH
	jne	SHORT $LN6@UpdateKeyM

; 3191 : 		{
; 3192 : 			AddUndisplayedKey(Map);

	lea	eax, DWORD PTR _Map$3[ebp]
	push	eax
	call	?AddUndisplayedKey@@YAHAAUKeyMap@@@Z	; AddUndisplayedKey
	add	esp, 4

; 3193 : 		
; 3194 : 			ShiAssert(NumUndispKeys < 300);
; 3195 : 
; 3196 : 			continue;

	jmp	$LN13@UpdateKeyM
$LN6@UpdateKeyM:

; 3197 : 		}
; 3198 : 		
; 3199 : 		parsed = descrip +1;

	lea	ecx, DWORD PTR _descrip$[ebp+1]
	mov	DWORD PTR _parsed$[ebp], ecx

; 3200 : 		parsed[strlen(descrip) -2] = 0;

	lea	edx, DWORD PTR _descrip$[ebp]
	push	edx
	call	_strlen
	add	esp, 4
	mov	ecx, DWORD PTR _parsed$[ebp]
	mov	BYTE PTR [ecx+eax-2], 0

; 3201 : 		parsed[37] = 0;

	mov	edx, 1
	imul	edx, 37					; 00000025H
	mov	eax, DWORD PTR _parsed$[ebp]
	mov	BYTE PTR [eax+edx], 0

; 3202 : 
; 3203 : 		if(!count)

	cmp	DWORD PTR _count$[ebp], 0
	jne	SHORT $LN5@UpdateKeyM

; 3204 : 		{
; 3205 : 			//first time through .. special case
; 3206 : 			UpdateKeyMapButton(button, Map, count);

	mov	ecx, DWORD PTR _count$[ebp]
	push	ecx
	lea	edx, DWORD PTR _Map$3[ebp]
	push	edx
	mov	eax, DWORD PTR _button$[ebp]
	push	eax
	call	?UpdateKeyMapButton@@YAXPAVC_Button@@AAUKeyMap@@H@Z ; UpdateKeyMapButton
	add	esp, 12					; 0000000cH

; 3207 : 
; 3208 : 			Mapping->Refresh();

	mov	ecx, DWORD PTR _Mapping$[ebp]
	mov	edx, DWORD PTR [ecx]
	mov	ecx, DWORD PTR _Mapping$[ebp]
	mov	eax, DWORD PTR [edx+160]
	call	eax

; 3209 : 			Mapping->SetText(parsed);

	mov	ecx, DWORD PTR _parsed$[ebp]
	push	ecx
	mov	edx, DWORD PTR _Mapping$[ebp]
	mov	eax, DWORD PTR [edx]
	mov	ecx, DWORD PTR _Mapping$[ebp]
	mov	edx, DWORD PTR [eax+256]
	call	edx

; 3210 : 			Mapping->Refresh();

	mov	eax, DWORD PTR _Mapping$[ebp]
	mov	edx, DWORD PTR [eax]
	mov	ecx, DWORD PTR _Mapping$[ebp]
	mov	eax, DWORD PTR [edx+160]
	call	eax

; 3211 : 		}
; 3212 : 		else

	jmp	$LN4@UpdateKeyM
$LN5@UpdateKeyM:

; 3213 : 		{
; 3214 : 			SetHdrStatusLine(win, Keycodes, Vline, Map, HotSpot, count);

	mov	ecx, DWORD PTR _count$[ebp]
	push	ecx
	sub	esp, 16					; 00000010H
	mov	edx, esp
	mov	eax, DWORD PTR _HotSpot$[ebp]
	mov	DWORD PTR [edx], eax
	mov	ecx, DWORD PTR _HotSpot$[ebp+4]
	mov	DWORD PTR [edx+4], ecx
	mov	eax, DWORD PTR _HotSpot$[ebp+8]
	mov	DWORD PTR [edx+8], eax
	mov	ecx, DWORD PTR _HotSpot$[ebp+12]
	mov	DWORD PTR [edx+12], ecx
	lea	edx, DWORD PTR _Map$3[ebp]
	push	edx
	mov	eax, DWORD PTR _Vline$[ebp]
	push	eax
	mov	ecx, DWORD PTR _Keycodes$[ebp]
	push	ecx
	mov	edx, DWORD PTR _win$[ebp]
	push	edx
	call	?SetHdrStatusLine@@YAHPAVC_Window@@PAVC_Button@@PAVC_Line@@AAUKeyMap@@UHotSpotStruct@@H@Z ; SetHdrStatusLine
	add	esp, 36					; 00000024H

; 3215 : 			//the rest of the times through
; 3216 : 			UpdateKeyMap(win, Keycodes, Vline->GetH(), Map, HotSpot, count );

	mov	eax, DWORD PTR _count$[ebp]
	push	eax
	sub	esp, 16					; 00000010H
	mov	ecx, esp
	mov	edx, DWORD PTR _HotSpot$[ebp]
	mov	DWORD PTR [ecx], edx
	mov	eax, DWORD PTR _HotSpot$[ebp+4]
	mov	DWORD PTR [ecx+4], eax
	mov	edx, DWORD PTR _HotSpot$[ebp+8]
	mov	DWORD PTR [ecx+8], edx
	mov	eax, DWORD PTR _HotSpot$[ebp+12]
	mov	DWORD PTR [ecx+12], eax
	lea	ecx, DWORD PTR _Map$3[ebp]
	push	ecx
	mov	ecx, DWORD PTR _Vline$[ebp]
	call	?GetH@C_Base@@QAEJXZ			; C_Base::GetH
	push	eax
	mov	edx, DWORD PTR _Keycodes$[ebp]
	push	edx
	mov	eax, DWORD PTR _win$[ebp]
	push	eax
	call	?UpdateKeyMap@@YAHPAVC_Window@@PAVC_Button@@HAAUKeyMap@@UHotSpotStruct@@H@Z ; UpdateKeyMap
	add	esp, 36					; 00000024H

; 3217 : 
; 3218 : 			UpdateMappingDescrip(win, Mapping, Vline->GetH(),parsed, count);//this will add the control if it doesn't exist

	mov	ecx, DWORD PTR _count$[ebp]
	push	ecx
	mov	edx, DWORD PTR _parsed$[ebp]
	push	edx
	mov	ecx, DWORD PTR _Vline$[ebp]
	call	?GetH@C_Base@@QAEJXZ			; C_Base::GetH
	push	eax
	mov	eax, DWORD PTR _Mapping$[ebp]
	push	eax
	mov	ecx, DWORD PTR _win$[ebp]
	push	ecx
	call	?UpdateMappingDescrip@@YAHPAVC_Window@@PAVC_Text@@HPADH@Z ; UpdateMappingDescrip
	add	esp, 20					; 00000014H

; 3219 : 
; 3220 : 			AddKeyMapLines(win, Hline, Vline, count);

	mov	edx, DWORD PTR _count$[ebp]
	push	edx
	mov	eax, DWORD PTR _Vline$[ebp]
	push	eax
	mov	ecx, DWORD PTR _Hline$[ebp]
	push	ecx
	mov	edx, DWORD PTR _win$[ebp]
	push	edx
	call	?AddKeyMapLines@@YAHPAVC_Window@@PAVC_Line@@1H@Z ; AddKeyMapLines
	add	esp, 16					; 00000010H
$LN4@UpdateKeyM:

; 3221 : 		 }
; 3222 : 
; 3223 : 		count++;

	mov	eax, DWORD PTR _count$[ebp]
	add	eax, 1
	mov	DWORD PTR _count$[ebp], eax

; 3224 : 		if(count > 10000)

	cmp	DWORD PTR _count$[ebp], 10000		; 00002710H
	jle	SHORT $LN3@UpdateKeyM

; 3225 : 			break;

	jmp	SHORT $LN12@UpdateKeyM
$LN3@UpdateKeyM:

; 3226 : 	}

	jmp	$LN13@UpdateKeyM
$LN12@UpdateKeyM:

; 3227 : 
; 3228 : 	NumDispKeys = count;

	mov	ecx, DWORD PTR _count$[ebp]
	mov	DWORD PTR ?NumDispKeys@@3HA, ecx	; NumDispKeys

; 3229 : 
; 3230 : 	fclose(fp);

	mov	edx, DWORD PTR _fp$[ebp]
	push	edx
	call	_fclose
	add	esp, 4
$LN2@UpdateKeyM:

; 3231 : 
; 3232 : 	while(RemoveExcessControls(win,count++));

	mov	eax, DWORD PTR _count$[ebp]
	mov	DWORD PTR tv304[ebp], eax
	mov	ecx, DWORD PTR tv304[ebp]
	push	ecx
	mov	edx, DWORD PTR _win$[ebp]
	push	edx
	call	?RemoveExcessControls@@YAHPAVC_Window@@H@Z ; RemoveExcessControls
	add	esp, 8
	mov	DWORD PTR tv308[ebp], eax
	mov	eax, DWORD PTR _count$[ebp]
	add	eax, 1
	mov	DWORD PTR _count$[ebp], eax
	cmp	DWORD PTR tv308[ebp], 0
	je	SHORT $LN1@UpdateKeyM
	jmp	SHORT $LN2@UpdateKeyM
$LN1@UpdateKeyM:

; 3233 : 
; 3234 : 	gMainHandler->WindowToFront(win);

	mov	ecx, DWORD PTR _win$[ebp]
	push	ecx
	mov	ecx, DWORD PTR ?gMainHandler@@3PAVC_Handler@@A ; gMainHandler
	call	?WindowToFront@C_Handler@@QAEXPAVC_Window@@@Z ; C_Handler::WindowToFront

; 3235 : 
; 3236 : 	SetCursor(gCursors[CRSR_F16]);

	mov	edx, 4
	shl	edx, 0
	mov	eax, DWORD PTR ?gCursors@@3PAPAUHICON__@@A[edx]
	push	eax
	call	DWORD PTR __imp__SetCursor@4

; 3237 : 	return TRUE;

	mov	eax, 1
$LN21@UpdateKeyM:

; 3238 : }

	mov	ecx, DWORD PTR __$ArrayPad$[ebp]
	xor	ecx, ebp
	call	@__security_check_cookie@4
	mov	esp, ebp
	pop	ebp
	ret	0
?UpdateKeyMapList@@YAHPADH@Z ENDP			; UpdateKeyMapList
_TEXT	ENDS
; Function compile flags: /Odtp
; File c:\users\zhitao li\documents\visual studio 2012\projects\freefalcon\ui\src\setup\controltab.cpp
_TEXT	SEGMENT
_text$ = -16						; size = 4
_button$ = -12						; size = 4
_line$ = -8						; size = 4
_retval$ = -4						; size = 4
_win$ = 8						; size = 4
_count$ = 12						; size = 4
?RemoveExcessControls@@YAHPAVC_Window@@H@Z PROC		; RemoveExcessControls

; 3041 : {

	push	ebp
	mov	ebp, esp
	sub	esp, 16					; 00000010H

; 3042 : 	C_Button *button;
; 3043 : 	C_Text *text;
; 3044 : 	C_Line *line;
; 3045 : 	int retval = FALSE;

	mov	DWORD PTR _retval$[ebp], 0

; 3046 : 
; 3047 : 	button = (C_Button *)win->FindControl(KEYCODES + count);

	mov	eax, DWORD PTR _count$[ebp]
	add	eax, 100000				; 000186a0H
	push	eax
	mov	ecx, DWORD PTR _win$[ebp]
	call	?FindControl@C_Window@@QAEPAVC_Base@@J@Z ; C_Window::FindControl
	mov	DWORD PTR _button$[ebp], eax

; 3048 : 	if(button)

	cmp	DWORD PTR _button$[ebp], 0
	je	SHORT $LN5@RemoveExce

; 3049 : 	{
; 3050 : 		win->RemoveControl(KEYCODES + count);

	mov	ecx, DWORD PTR _count$[ebp]
	add	ecx, 100000				; 000186a0H
	push	ecx
	mov	ecx, DWORD PTR _win$[ebp]
	call	?RemoveControl@C_Window@@QAEXJ@Z	; C_Window::RemoveControl

; 3051 : 		retval = TRUE;

	mov	DWORD PTR _retval$[ebp], 1
$LN5@RemoveExce:

; 3052 : 	}
; 3053 : 
; 3054 : 	text = (C_Text *)win->FindControl(MAPPING + count);

	mov	edx, DWORD PTR _count$[ebp]
	add	edx, 110000				; 0001adb0H
	push	edx
	mov	ecx, DWORD PTR _win$[ebp]
	call	?FindControl@C_Window@@QAEPAVC_Base@@J@Z ; C_Window::FindControl
	mov	DWORD PTR _text$[ebp], eax

; 3055 : 	if(text)

	cmp	DWORD PTR _text$[ebp], 0
	je	SHORT $LN4@RemoveExce

; 3056 : 	{
; 3057 : 		win->RemoveControl(MAPPING + count);

	mov	eax, DWORD PTR _count$[ebp]
	add	eax, 110000				; 0001adb0H
	push	eax
	mov	ecx, DWORD PTR _win$[ebp]
	call	?RemoveControl@C_Window@@QAEXJ@Z	; C_Window::RemoveControl

; 3058 : 		retval = TRUE;

	mov	DWORD PTR _retval$[ebp], 1
$LN4@RemoveExce:

; 3059 : 	}
; 3060 : 
; 3061 : 	line = (C_Line *)win->FindControl(KEYCODES - count);

	mov	ecx, 100000				; 000186a0H
	sub	ecx, DWORD PTR _count$[ebp]
	push	ecx
	mov	ecx, DWORD PTR _win$[ebp]
	call	?FindControl@C_Window@@QAEPAVC_Base@@J@Z ; C_Window::FindControl
	mov	DWORD PTR _line$[ebp], eax

; 3062 : 	if(line)

	cmp	DWORD PTR _line$[ebp], 0
	je	SHORT $LN3@RemoveExce

; 3063 : 	{
; 3064 : 		win->RemoveControl(KEYCODES - count);

	mov	edx, 100000				; 000186a0H
	sub	edx, DWORD PTR _count$[ebp]
	push	edx
	mov	ecx, DWORD PTR _win$[ebp]
	call	?RemoveControl@C_Window@@QAEXJ@Z	; C_Window::RemoveControl

; 3065 : 		retval = TRUE;

	mov	DWORD PTR _retval$[ebp], 1
$LN3@RemoveExce:

; 3066 : 	}
; 3067 : 
; 3068 : 	line = (C_Line *)win->FindControl(HLINE + count);

	mov	eax, DWORD PTR _count$[ebp]
	add	eax, 120000				; 0001d4c0H
	push	eax
	mov	ecx, DWORD PTR _win$[ebp]
	call	?FindControl@C_Window@@QAEPAVC_Base@@J@Z ; C_Window::FindControl
	mov	DWORD PTR _line$[ebp], eax

; 3069 : 	if(line)

	cmp	DWORD PTR _line$[ebp], 0
	je	SHORT $LN2@RemoveExce

; 3070 : 	{
; 3071 : 		win->RemoveControl(HLINE + count);

	mov	ecx, DWORD PTR _count$[ebp]
	add	ecx, 120000				; 0001d4c0H
	push	ecx
	mov	ecx, DWORD PTR _win$[ebp]
	call	?RemoveControl@C_Window@@QAEXJ@Z	; C_Window::RemoveControl

; 3072 : 		retval = TRUE;

	mov	DWORD PTR _retval$[ebp], 1
$LN2@RemoveExce:

; 3073 : 	}
; 3074 : 
; 3075 : 	line = (C_Line *)win->FindControl(VLINE + count);

	mov	edx, DWORD PTR _count$[ebp]
	add	edx, 130000				; 0001fbd0H
	push	edx
	mov	ecx, DWORD PTR _win$[ebp]
	call	?FindControl@C_Window@@QAEPAVC_Base@@J@Z ; C_Window::FindControl
	mov	DWORD PTR _line$[ebp], eax

; 3076 : 	if(line)

	cmp	DWORD PTR _line$[ebp], 0
	je	SHORT $LN1@RemoveExce

; 3077 : 	{
; 3078 : 		win->RemoveControl(VLINE + count);

	mov	eax, DWORD PTR _count$[ebp]
	add	eax, 130000				; 0001fbd0H
	push	eax
	mov	ecx, DWORD PTR _win$[ebp]
	call	?RemoveControl@C_Window@@QAEXJ@Z	; C_Window::RemoveControl

; 3079 : 		retval = TRUE;

	mov	DWORD PTR _retval$[ebp], 1
$LN1@RemoveExce:

; 3080 : 	}
; 3081 : 	
; 3082 : 	//need to remove them if they exist
; 3083 : 	return retval;

	mov	eax, DWORD PTR _retval$[ebp]

; 3084 : }

	mov	esp, ebp
	pop	ebp
	ret	0
?RemoveExcessControls@@YAHPAVC_Window@@H@Z ENDP		; RemoveExcessControls
_TEXT	ENDS
; Function compile flags: /Odtp
; File c:\users\zhitao li\documents\visual studio 2012\projects\freefalcon\ui\src\setup\controltab.cpp
_TEXT	SEGMENT
___formal$ = 8						; size = 4
_hittype$ = 12						; size = 2
___formal$ = 16						; size = 4
?SaveKeyButtonCB@@YAXJFPAVC_Base@@@Z PROC		; SaveKeyButtonCB

; 3031 : {

	push	ebp
	mov	ebp, esp

; 3032 : 	if(hittype != C_TYPE_LMOUSEUP)

	movsx	eax, WORD PTR _hittype$[ebp]
	cmp	eax, 52					; 00000034H
	je	SHORT $LN1@SaveKeyBut

; 3033 : 		return;

	jmp	SHORT $LN2@SaveKeyBut
$LN1@SaveKeyBut:

; 3034 : 
; 3035 : 	SetDeleteCallback(DelKeyFileCB);

	push	OFFSET ?DelKeyFileCB@@YAXJFPAVC_Base@@@Z ; DelKeyFileCB
	call	?SetDeleteCallback@@YAXP6AXJFPAVC_Base@@@Z@Z ; SetDeleteCallback
	add	esp, 4

; 3036 : 	SaveAFile(TXT_SAVE_KEYBOARD,"config\\*.KEY",NULL,VerifySaveKeyCB,CloseWindowCB,"");

	push	OFFSET ??_C@_00CNPNBAHC@?$AA@
	push	OFFSET ?CloseWindowCB@@YAXJFPAVC_Base@@@Z ; CloseWindowCB
	push	OFFSET ?VerifySaveKeyCB@@YAXJFPAVC_Base@@@Z ; VerifySaveKeyCB
	push	0
	push	OFFSET ??_C@_0N@IAEPOJDM@config?2?$CK?4KEY?$AA@
	push	230					; 000000e6H
	call	?SaveAFile@@YAXJPADQAPADP6AXJFPAVC_Base@@@Z30@Z ; SaveAFile
	add	esp, 24					; 00000018H
$LN2@SaveKeyBut:

; 3037 : }

	pop	ebp
	ret	0
?SaveKeyButtonCB@@YAXJFPAVC_Base@@@Z ENDP		; SaveKeyButtonCB
_TEXT	ENDS
; Function compile flags: /Odtp
; File c:\users\zhitao li\documents\visual studio 2012\projects\freefalcon\ui\src\setup\controltab.cpp
_TEXT	SEGMENT
_fp$ = -272						; size = 4
_ebox$ = -268						; size = 4
_fname$ = -264						; size = 260
__$ArrayPad$ = -4					; size = 4
_ID$ = 8						; size = 4
_hittype$ = 12						; size = 2
_control$ = 16						; size = 4
?VerifySaveKeyCB@@YAXJFPAVC_Base@@@Z PROC		; VerifySaveKeyCB

; 2996 : {

	push	ebp
	mov	ebp, esp
	sub	esp, 272				; 00000110H
	mov	eax, DWORD PTR ___security_cookie
	xor	eax, ebp
	mov	DWORD PTR __$ArrayPad$[ebp], eax

; 2997 : 	C_EditBox * ebox;
; 2998 : 	_TCHAR fname[MAX_PATH];
; 2999 : 	FILE *fp;
; 3000 : 
; 3001 : 	if(hittype != C_TYPE_LMOUSEUP)

	movsx	eax, WORD PTR _hittype$[ebp]
	cmp	eax, 52					; 00000034H
	je	SHORT $LN6@VerifySave

; 3002 : 		return;

	jmp	$LN7@VerifySave
$LN6@VerifySave:

; 3003 : 
; 3004 : 	ebox=(C_EditBox*)control->Parent_->FindControl(FILE_NAME);

	push	501					; 000001f5H
	mov	ecx, DWORD PTR _control$[ebp]
	mov	ecx, DWORD PTR [ecx+48]
	call	?FindControl@C_Window@@QAEPAVC_Base@@J@Z ; C_Window::FindControl
	mov	DWORD PTR _ebox$[ebp], eax

; 3005 : 	if(ebox)

	cmp	DWORD PTR _ebox$[ebp], 0
	je	$LN7@VerifySave

; 3006 : 	{
; 3007 : 		//dpc EmptyFilenameSaveFix, modified by MN - added a warning to enter a filename
; 3008 : 		if (g_bEmptyFilenameFix)

	movzx	edx, BYTE PTR ?g_bEmptyFilenameFix@@3_NA ; g_bEmptyFilenameFix
	test	edx, edx
	je	SHORT $LN4@VerifySave

; 3009 : 		{
; 3010 : 			if (_tcslen(ebox->GetText()) == 0)

	mov	ecx, DWORD PTR _ebox$[ebp]
	call	?GetText@C_EditBox@@QAEPADXZ		; C_EditBox::GetText
	push	eax
	call	_strlen
	add	esp, 4
	test	eax, eax
	jne	SHORT $LN4@VerifySave

; 3011 : 			{
; 3012 : 				AreYouSure(TXT_WARNING, TXT_ENTER_FILENAME,CloseWindowCB,CloseWindowCB);

	push	OFFSET ?CloseWindowCB@@YAXJFPAVC_Base@@@Z ; CloseWindowCB
	push	OFFSET ?CloseWindowCB@@YAXJFPAVC_Base@@@Z ; CloseWindowCB
	push	467					; 000001d3H
	push	243					; 000000f3H
	call	?AreYouSure@@YAXJJP6AXJFPAVC_Base@@@Z1@Z ; AreYouSure
	add	esp, 16					; 00000010H

; 3013 : 				return;

	jmp	$LN7@VerifySave
$LN4@VerifySave:

; 3014 : 			}
; 3015 : 		}
; 3016 : 		//end EmptyFilenameSaveFix
; 3017 : 		_stprintf(fname,"config\\%s.key",ebox->GetText ());

	mov	ecx, DWORD PTR _ebox$[ebp]
	call	?GetText@C_EditBox@@QAEPADXZ		; C_EditBox::GetText
	push	eax
	push	OFFSET ??_C@_0O@KLAEKGNF@config?2?$CFs?4key?$AA@
	lea	eax, DWORD PTR _fname$[ebp]
	push	eax
	call	_sprintf
	add	esp, 12					; 0000000cH

; 3018 : 		fp=fopen(fname,"r");

	push	OFFSET ??_C@_01KDCPPGHE@r?$AA@
	lea	ecx, DWORD PTR _fname$[ebp]
	push	ecx
	call	_fopen
	add	esp, 8
	mov	DWORD PTR _fp$[ebp], eax

; 3019 : 		if(fp)

	cmp	DWORD PTR _fp$[ebp], 0
	je	SHORT $LN2@VerifySave

; 3020 : 		{
; 3021 : 			fclose(fp);

	mov	edx, DWORD PTR _fp$[ebp]
	push	edx
	call	_fclose
	add	esp, 4

; 3022 : 			AreYouSure(TXT_WARNING,TXT_FILE_EXISTS,SaveKeyCB,CloseWindowCB);

	push	OFFSET ?CloseWindowCB@@YAXJFPAVC_Base@@@Z ; CloseWindowCB
	push	OFFSET ?SaveKeyCB@@YAXJFPAVC_Base@@@Z	; SaveKeyCB
	push	241					; 000000f1H
	push	243					; 000000f3H
	call	?AreYouSure@@YAXJJP6AXJFPAVC_Base@@@Z1@Z ; AreYouSure
	add	esp, 16					; 00000010H

; 3023 : 		}
; 3024 : 		else

	jmp	SHORT $LN7@VerifySave
$LN2@VerifySave:

; 3025 : 			SaveKeyCB(ID,hittype,control);

	mov	eax, DWORD PTR _control$[ebp]
	push	eax
	movzx	ecx, WORD PTR _hittype$[ebp]
	push	ecx
	mov	edx, DWORD PTR _ID$[ebp]
	push	edx
	call	?SaveKeyCB@@YAXJFPAVC_Base@@@Z		; SaveKeyCB
	add	esp, 12					; 0000000cH
$LN7@VerifySave:

; 3026 : 	}
; 3027 : }

	mov	ecx, DWORD PTR __$ArrayPad$[ebp]
	xor	ecx, ebp
	call	@__security_check_cookie@4
	mov	esp, ebp
	pop	ebp
	ret	0
?VerifySaveKeyCB@@YAXJFPAVC_Base@@@Z ENDP		; VerifySaveKeyCB
_TEXT	ENDS
; Function compile flags: /Odtp
; File c:\users\zhitao li\documents\visual studio 2012\projects\freefalcon\ui\src\setup\controltab.cpp
_TEXT	SEGMENT
_win$ = -272						; size = 4
_ebox$ = -268						; size = 4
_fname$ = -264						; size = 260
__$ArrayPad$ = -4					; size = 4
___formal$ = 8						; size = 4
_hittype$ = 12						; size = 2
_control$ = 16						; size = 4
?SaveKeyCB@@YAXJFPAVC_Base@@@Z PROC			; SaveKeyCB

; 2965 : {

	push	ebp
	mov	ebp, esp
	sub	esp, 272				; 00000110H
	mov	eax, DWORD PTR ___security_cookie
	xor	eax, ebp
	mov	DWORD PTR __$ArrayPad$[ebp], eax

; 2966 : 	C_Window *win;
; 2967 : 	C_EditBox * ebox;
; 2968 : 	_TCHAR fname[MAX_PATH];
; 2969 : 
; 2970 : 	if(hittype != C_TYPE_LMOUSEUP)

	movsx	eax, WORD PTR _hittype$[ebp]
	cmp	eax, 52					; 00000034H
	je	SHORT $LN5@SaveKeyCB

; 2971 : 		return;

	jmp	$LN6@SaveKeyCB
$LN5@SaveKeyCB:

; 2972 : 
; 2973 : 	win=gMainHandler->FindWindow(SAVE_WIN);

	push	500					; 000001f4H
	mov	ecx, DWORD PTR ?gMainHandler@@3PAVC_Handler@@A ; gMainHandler
	call	?FindWindowA@C_Handler@@QAEPAVC_Window@@J@Z ; C_Handler::FindWindowA
	mov	DWORD PTR _win$[ebp], eax

; 2974 : 	if(!win)

	cmp	DWORD PTR _win$[ebp], 0
	jne	SHORT $LN4@SaveKeyCB

; 2975 : 		return;

	jmp	$LN6@SaveKeyCB
$LN4@SaveKeyCB:

; 2976 : 
; 2977 : 	gMainHandler->HideWindow(win);

	mov	ecx, DWORD PTR _win$[ebp]
	push	ecx
	mov	ecx, DWORD PTR ?gMainHandler@@3PAVC_Handler@@A ; gMainHandler
	call	?HideWindow@C_Handler@@QAEHPAVC_Window@@@Z ; C_Handler::HideWindow

; 2978 : 	gMainHandler->HideWindow(control->Parent_);

	mov	edx, DWORD PTR _control$[ebp]
	mov	eax, DWORD PTR [edx+48]
	push	eax
	mov	ecx, DWORD PTR ?gMainHandler@@3PAVC_Handler@@A ; gMainHandler
	call	?HideWindow@C_Handler@@QAEHPAVC_Window@@@Z ; C_Handler::HideWindow

; 2979 : 
; 2980 : 	ebox=(C_EditBox*)win->FindControl(FILE_NAME);

	push	501					; 000001f5H
	mov	ecx, DWORD PTR _win$[ebp]
	call	?FindControl@C_Window@@QAEPAVC_Base@@J@Z ; C_Window::FindControl
	mov	DWORD PTR _ebox$[ebp], eax

; 2981 : 	if(ebox)

	cmp	DWORD PTR _ebox$[ebp], 0
	je	SHORT $LN6@SaveKeyCB

; 2982 : 	{
; 2983 : 		_tcscpy(fname,ebox->GetText());

	mov	ecx, DWORD PTR _ebox$[ebp]
	call	?GetText@C_EditBox@@QAEPADXZ		; C_EditBox::GetText
	push	eax
	lea	ecx, DWORD PTR _fname$[ebp]
	push	ecx
	call	_strcpy
	add	esp, 8

; 2984 : 
; 2985 : 		if(fname[0] == 0)

	mov	edx, 1
	imul	edx, 0
	movsx	eax, BYTE PTR _fname$[ebp+edx]
	test	eax, eax
	jne	SHORT $LN2@SaveKeyCB

; 2986 : 			return;

	jmp	SHORT $LN6@SaveKeyCB
$LN2@SaveKeyCB:

; 2987 : 		
; 2988 : 		KeyVar.Modified = TRUE;

	mov	DWORD PTR ?KeyVar@@3UKeyVars@@A+20, 1

; 2989 : 		if(SaveKeyMapList(fname))

	lea	ecx, DWORD PTR _fname$[ebp]
	push	ecx
	call	?SaveKeyMapList@@YAHPAD@Z		; SaveKeyMapList
	add	esp, 4
	test	eax, eax
	je	SHORT $LN6@SaveKeyCB

; 2990 : 			_tcscpy(PlayerOptions.keyfile,ebox->GetText());

	mov	ecx, DWORD PTR _ebox$[ebp]
	call	?GetText@C_EditBox@@QAEPADXZ		; C_EditBox::GetText
	push	eax
	push	OFFSET ?PlayerOptions@@3VPlayerOptionsClass@@A+164
	call	_strcpy
	add	esp, 8
$LN6@SaveKeyCB:

; 2991 : 		
; 2992 : 	}
; 2993 : }

	mov	ecx, DWORD PTR __$ArrayPad$[ebp]
	xor	ecx, ebp
	call	@__security_check_cookie@4
	mov	esp, ebp
	pop	ebp
	ret	0
?SaveKeyCB@@YAXJFPAVC_Base@@@Z ENDP			; SaveKeyCB
_TEXT	ENDS
; Function compile flags: /Odtp
; File c:\users\zhitao li\documents\visual studio 2012\projects\freefalcon\ui\src\setup\controltab.cpp
_TEXT	SEGMENT
_cpButtonID$1 = -584					; size = 4
_mod2$ = -580						; size = 4
_cpButtonID$2 = -576					; size = 4
_text$ = -572						; size = 4
_mod1$ = -568						; size = 4
_key1$ = -564						; size = 4
_flags$ = -560						; size = 4
_count$ = -556						; size = 4
_win$ = -552						; size = 4
_j$3 = -548						; size = 4
_fp$ = -544						; size = 4
_funcDescrip$ = -540					; size = 4
_theFunc$ = -536					; size = 4
_button$ = -532						; size = 4
_i$ = -528						; size = 4
_path$ = -524						; size = 260
_descrip$ = -264					; size = 260
__$ArrayPad$ = -4					; size = 4
_filename$ = 8						; size = 4
?SaveKeyMapList@@YAHPAD@Z PROC				; SaveKeyMapList

; 2854 : {

	push	ebp
	mov	ebp, esp
	sub	esp, 584				; 00000248H
	mov	eax, DWORD PTR ___security_cookie
	xor	eax, ebp
	mov	DWORD PTR __$ArrayPad$[ebp], eax

; 2855 : 	if(!KeyVar.Modified)

	cmp	DWORD PTR ?KeyVar@@3UKeyVars@@A+20, 0
	jne	SHORT $LN22@SaveKeyMap

; 2856 : 		return TRUE;

	mov	eax, 1
	jmp	$LN23@SaveKeyMap
$LN22@SaveKeyMap:

; 2857 : 
; 2858 : 	KeyVar.Modified = FALSE;

	mov	DWORD PTR ?KeyVar@@3UKeyVars@@A+20, 0

; 2859 : 
; 2860 : 	FILE *fp;
; 2861 : 	C_Window *win;
; 2862 : 	C_Button *button;
; 2863 : 	InputFunctionType theFunc;
; 2864 : 	char *funcDescrip;
; 2865 : 	int i,key1,mod1,mod2,flags, count = 0;

	mov	DWORD PTR _count$[ebp], 0

; 2866 : 	
; 2867 : 	C_Text *text;
; 2868 : 	char descrip[_MAX_PATH];
; 2869 : 	
; 2870 : 	win = gMainHandler->FindWindow(SETUP_WIN);

	push	70002					; 00011172H
	mov	ecx, DWORD PTR ?gMainHandler@@3PAVC_Handler@@A ; gMainHandler
	call	?FindWindowA@C_Handler@@QAEPAVC_Window@@J@Z ; C_Handler::FindWindowA
	mov	DWORD PTR _win$[ebp], eax

; 2871 : 	if(!win)

	cmp	DWORD PTR _win$[ebp], 0
	jne	SHORT $LN21@SaveKeyMap

; 2872 : 		return FALSE;

	xor	eax, eax
	jmp	$LN23@SaveKeyMap
$LN21@SaveKeyMap:

; 2873 : 
; 2874 : 	char path[_MAX_PATH];
; 2875 : 	sprintf(path,"%s\\config\\%s.key",FalconDataDirectory,filename);

	mov	eax, DWORD PTR _filename$[ebp]
	push	eax
	push	OFFSET ?FalconDataDirectory@@3PADA	; FalconDataDirectory
	push	OFFSET ??_C@_0BB@FEJPLKOE@?$CFs?2config?2?$CFs?4key?$AA@
	lea	ecx, DWORD PTR _path$[ebp]
	push	ecx
	call	_sprintf
	add	esp, 16					; 00000010H

; 2876 : 
; 2877 : 	fp = fopen(path,"wt");

	push	OFFSET ??_C@_02BKFDOEMK@wt?$AA@
	lea	edx, DWORD PTR _path$[ebp]
	push	edx
	call	_fopen
	add	esp, 8
	mov	DWORD PTR _fp$[ebp], eax

; 2878 : 	if(!fp)

	cmp	DWORD PTR _fp$[ebp], 0
	jne	SHORT $LN20@SaveKeyMap

; 2879 : 		return FALSE;

	xor	eax, eax
	jmp	$LN23@SaveKeyMap
$LN20@SaveKeyMap:

; 2880 : 
; 2881 : 	button = (C_Button *)win->FindControl(KEYCODES); 

	push	100000					; 000186a0H
	mov	ecx, DWORD PTR _win$[ebp]
	call	?FindControl@C_Window@@QAEPAVC_Base@@J@Z ; C_Window::FindControl
	mov	DWORD PTR _button$[ebp], eax
$LN19@SaveKeyMap:

; 2882 : 
; 2883 : 	while(button)

	cmp	DWORD PTR _button$[ebp], 0
	je	$LN18@SaveKeyMap

; 2884 : 	{
; 2885 : 		//int pmouse,pbutton;
; 2886 : 
; 2887 : 		flags = button->GetUserNumber(FLAGS);

	push	1
	mov	ecx, DWORD PTR _button$[ebp]
	call	?GetUserNumber@C_Base@@QAEJJ@Z		; C_Base::GetUserNumber
	mov	DWORD PTR _flags$[ebp], eax

; 2888 : 		mod2 = flags & MOD2_MASK;

	mov	eax, DWORD PTR _flags$[ebp]
	and	eax, 255				; 000000ffH
	mov	DWORD PTR _mod2$[ebp], eax

; 2889 : 		key1 = (flags & KEY1_MASK) >> SECOND_KEY_SHIFT;

	mov	ecx, DWORD PTR _flags$[ebp]
	and	ecx, 65280				; 0000ff00H
	sar	ecx, 8
	mov	DWORD PTR _key1$[ebp], ecx

; 2890 : 		mod1 = (flags & MOD1_MASK) >> SECOND_KEY_MOD_SHIFT;

	mov	edx, DWORD PTR _flags$[ebp]
	and	edx, 16711680				; 00ff0000H
	sar	edx, 16					; 00000010H
	mov	DWORD PTR _mod1$[ebp], edx

; 2891 : 
; 2892 : 		theFunc = (InputFunctionType)button->GetUserPtr(FUNCTION_PTR);

	push	5
	mov	ecx, DWORD PTR _button$[ebp]
	call	?GetUserPtr@C_Base@@QAEPAXJ@Z		; C_Base::GetUserPtr
	mov	DWORD PTR _theFunc$[ebp], eax

; 2893 : 		funcDescrip = FindStringFromFunction(theFunc);

	mov	eax, DWORD PTR _theFunc$[ebp]
	push	eax
	call	?FindStringFromFunction@@YAPADP6AXKHPAX@Z@Z ; FindStringFromFunction
	add	esp, 4
	mov	DWORD PTR _funcDescrip$[ebp], eax

; 2894 : 
; 2895 : 		text = (C_Text *)win->FindControl(MAPPING + count);

	mov	ecx, DWORD PTR _count$[ebp]
	add	ecx, 110000				; 0001adb0H
	push	ecx
	mov	ecx, DWORD PTR _win$[ebp]
	call	?FindControl@C_Window@@QAEPAVC_Base@@J@Z ; C_Window::FindControl
	mov	DWORD PTR _text$[ebp], eax

; 2896 : 		if(text)

	cmp	DWORD PTR _text$[ebp], 0
	je	SHORT $LN17@SaveKeyMap

; 2897 : 			sprintf(descrip, "%c%s%c", '"', text->GetText(), '"');

	push	34					; 00000022H
	mov	ecx, DWORD PTR _text$[ebp]
	call	?GetText@C_Text@@QAEPADXZ		; C_Text::GetText
	push	eax
	push	34					; 00000022H
	push	OFFSET ??_C@_06HBILFICH@?$CFc?$CFs?$CFc?$AA@
	lea	edx, DWORD PTR _descrip$[ebp]
	push	edx
	call	_sprintf
	add	esp, 20					; 00000014H

; 2898 : 		else

	jmp	SHORT $LN16@SaveKeyMap
$LN17@SaveKeyMap:

; 2899 : 			strcpy(descrip,"");

	push	OFFSET ??_C@_00CNPNBAHC@?$AA@
	lea	eax, DWORD PTR _descrip$[ebp]
	push	eax
	call	_strcpy
	add	esp, 8
$LN16@SaveKeyMap:

; 2900 : 
; 2901 : 		if(key1 == 0xff)

	cmp	DWORD PTR _key1$[ebp], 255		; 000000ffH
	jne	SHORT $LN15@SaveKeyMap

; 2902 : 		{
; 2903 : 			key1 = -1;

	mov	DWORD PTR _key1$[ebp], -1

; 2904 : 			mod1 = 0;

	mov	DWORD PTR _mod1$[ebp], 0
$LN15@SaveKeyMap:

; 2905 : 		}
; 2906 : 
; 2907 : 		fprintf(fp,"%s %d %d %#X %X %#X %X %d %s\n",funcDescrip,button->GetUserNumber(BUTTON_ID),button->GetUserNumber(MOUSE_SIDE),button->GetUserNumber(KEY2),mod2,key1,mod1,button->GetUserNumber(EDITABLE),descrip);

	lea	ecx, DWORD PTR _descrip$[ebp]
	push	ecx
	push	4
	mov	ecx, DWORD PTR _button$[ebp]
	call	?GetUserNumber@C_Base@@QAEJJ@Z		; C_Base::GetUserNumber
	push	eax
	mov	edx, DWORD PTR _mod1$[ebp]
	push	edx
	mov	eax, DWORD PTR _key1$[ebp]
	push	eax
	mov	ecx, DWORD PTR _mod2$[ebp]
	push	ecx
	push	0
	mov	ecx, DWORD PTR _button$[ebp]
	call	?GetUserNumber@C_Base@@QAEJJ@Z		; C_Base::GetUserNumber
	push	eax
	push	3
	mov	ecx, DWORD PTR _button$[ebp]
	call	?GetUserNumber@C_Base@@QAEJJ@Z		; C_Base::GetUserNumber
	push	eax
	push	2
	mov	ecx, DWORD PTR _button$[ebp]
	call	?GetUserNumber@C_Base@@QAEJJ@Z		; C_Base::GetUserNumber
	push	eax
	mov	edx, DWORD PTR _funcDescrip$[ebp]
	push	edx
	push	OFFSET ??_C@_0BO@EHHCAPGE@?$CFs?5?$CFd?5?$CFd?5?$CF?$CDX?5?$CFX?5?$CF?$CDX?5?$CFX?5?$CFd?5?$CFs?6?$AA@
	mov	eax, DWORD PTR _fp$[ebp]
	push	eax
	call	_fprintf
	add	esp, 44					; 0000002cH

; 2908 : 
; 2909 : 		count++;

	mov	ecx, DWORD PTR _count$[ebp]
	add	ecx, 1
	mov	DWORD PTR _count$[ebp], ecx

; 2910 : 		button = (C_Button *)win->FindControl(KEYCODES + count);

	mov	edx, DWORD PTR _count$[ebp]
	add	edx, 100000				; 000186a0H
	push	edx
	mov	ecx, DWORD PTR _win$[ebp]
	call	?FindControl@C_Window@@QAEPAVC_Base@@J@Z ; C_Window::FindControl
	mov	DWORD PTR _button$[ebp], eax

; 2911 : 	}

	jmp	$LN19@SaveKeyMap
$LN18@SaveKeyMap:

; 2912 : 
; 2913 : 	for(i = 0; i < NumUndispKeys;i++)

	mov	DWORD PTR _i$[ebp], 0
	jmp	SHORT $LN14@SaveKeyMap
$LN13@SaveKeyMap:
	mov	eax, DWORD PTR _i$[ebp]
	add	eax, 1
	mov	DWORD PTR _i$[ebp], eax
$LN14@SaveKeyMap:
	mov	ecx, DWORD PTR _i$[ebp]
	cmp	ecx, DWORD PTR ?NumUndispKeys@@3HA	; NumUndispKeys
	jge	$LN12@SaveKeyMap

; 2914 : 	{
; 2915 : 		funcDescrip = FindStringFromFunction(UndisplayedKeys[i].func);

	mov	edx, DWORD PTR _i$[ebp]
	imul	edx, 292				; 00000124H
	mov	eax, DWORD PTR ?UndisplayedKeys@@3PAUKeyMap@@A[edx]
	push	eax
	call	?FindStringFromFunction@@YAPADP6AXKHPAX@Z@Z ; FindStringFromFunction
	add	esp, 4
	mov	DWORD PTR _funcDescrip$[ebp], eax

; 2916 : 
; 2917 : 		fprintf(fp,"%s %d %d %#X %d %#X %d %d %s\n",
; 2918 : 					funcDescrip,
; 2919 : 					UndisplayedKeys[i].buttonId ,
; 2920 : 					UndisplayedKeys[i].mouseSide,
; 2921 : 					UndisplayedKeys[i].key2,
; 2922 : 					UndisplayedKeys[i].mod2,
; 2923 : 					UndisplayedKeys[i].key1,
; 2924 : 					UndisplayedKeys[i].mod1,
; 2925 : 					UndisplayedKeys[i].editable,
; 2926 : 					UndisplayedKeys[i].descrip
; 2927 : 					);

	mov	ecx, DWORD PTR _i$[ebp]
	imul	ecx, 292				; 00000124H
	add	ecx, OFFSET ?UndisplayedKeys@@3PAUKeyMap@@A+32
	push	ecx
	mov	edx, DWORD PTR _i$[ebp]
	imul	edx, 292				; 00000124H
	mov	eax, DWORD PTR ?UndisplayedKeys@@3PAUKeyMap@@A[edx+28]
	push	eax
	mov	ecx, DWORD PTR _i$[ebp]
	imul	ecx, 292				; 00000124H
	mov	edx, DWORD PTR ?UndisplayedKeys@@3PAUKeyMap@@A[ecx+24]
	push	edx
	mov	eax, DWORD PTR _i$[ebp]
	imul	eax, 292				; 00000124H
	mov	ecx, DWORD PTR ?UndisplayedKeys@@3PAUKeyMap@@A[eax+20]
	push	ecx
	mov	edx, DWORD PTR _i$[ebp]
	imul	edx, 292				; 00000124H
	mov	eax, DWORD PTR ?UndisplayedKeys@@3PAUKeyMap@@A[edx+16]
	push	eax
	mov	ecx, DWORD PTR _i$[ebp]
	imul	ecx, 292				; 00000124H
	mov	edx, DWORD PTR ?UndisplayedKeys@@3PAUKeyMap@@A[ecx+12]
	push	edx
	mov	eax, DWORD PTR _i$[ebp]
	imul	eax, 292				; 00000124H
	mov	ecx, DWORD PTR ?UndisplayedKeys@@3PAUKeyMap@@A[eax+8]
	push	ecx
	mov	edx, DWORD PTR _i$[ebp]
	imul	edx, 292				; 00000124H
	mov	eax, DWORD PTR ?UndisplayedKeys@@3PAUKeyMap@@A[edx+4]
	push	eax
	mov	ecx, DWORD PTR _funcDescrip$[ebp]
	push	ecx
	push	OFFSET ??_C@_0BO@NJENKKIJ@?$CFs?5?$CFd?5?$CFd?5?$CF?$CDX?5?$CFd?5?$CF?$CDX?5?$CFd?5?$CFd?5?$CFs?6?$AA@
	mov	edx, DWORD PTR _fp$[ebp]
	push	edx
	call	_fprintf
	add	esp, 44					; 0000002cH

; 2928 : 	}

	jmp	$LN13@SaveKeyMap
$LN12@SaveKeyMap:

; 2929 : 
; 2930 : 	for(i =0;i<UserFunctionTable.NumButtons;i++)

	mov	DWORD PTR _i$[ebp], 0
	jmp	SHORT $LN11@SaveKeyMap
$LN10@SaveKeyMap:
	mov	eax, DWORD PTR _i$[ebp]
	add	eax, 1
	mov	DWORD PTR _i$[ebp], eax
$LN11@SaveKeyMap:
	cmp	DWORD PTR _i$[ebp], 512			; 00000200H
	jge	SHORT $LN9@SaveKeyMap

; 2931 : 	{
; 2932 : 		int cpButtonID;
; 2933 : 		theFunc = UserFunctionTable.GetButtonFunction(i, &cpButtonID);

	lea	ecx, DWORD PTR _cpButtonID$2[ebp]
	push	ecx
	mov	edx, DWORD PTR _i$[ebp]
	push	edx
	mov	ecx, OFFSET ?UserFunctionTable@@3VInputFunctionHashTable@@A ; UserFunctionTable
	call	?GetButtonFunction@InputFunctionHashTable@@QAEP6AXKHPAX@ZHPAH@Z ; InputFunctionHashTable::GetButtonFunction
	mov	DWORD PTR _theFunc$[ebp], eax

; 2934 : 		
; 2935 : 		if(theFunc)

	cmp	DWORD PTR _theFunc$[ebp], 0
	je	SHORT $LN8@SaveKeyMap

; 2936 : 		{
; 2937 : 			funcDescrip = FindStringFromFunction(theFunc);

	mov	eax, DWORD PTR _theFunc$[ebp]
	push	eax
	call	?FindStringFromFunction@@YAPADP6AXKHPAX@Z@Z ; FindStringFromFunction
	add	esp, 4
	mov	DWORD PTR _funcDescrip$[ebp], eax

; 2938 : 
; 2939 : 			fprintf(fp,"%s %d %d -2 0 0x0 0\n",funcDescrip,i,cpButtonID);

	mov	ecx, DWORD PTR _cpButtonID$2[ebp]
	push	ecx
	mov	edx, DWORD PTR _i$[ebp]
	push	edx
	mov	eax, DWORD PTR _funcDescrip$[ebp]
	push	eax
	push	OFFSET ??_C@_0BF@CPNLFIBF@?$CFs?5?$CFd?5?$CFd?5?92?50?50x0?50?6?$AA@
	mov	ecx, DWORD PTR _fp$[ebp]
	push	ecx
	call	_fprintf
	add	esp, 20					; 00000014H
$LN8@SaveKeyMap:

; 2940 : 		}
; 2941 : 	}

	jmp	$LN10@SaveKeyMap
$LN9@SaveKeyMap:

; 2942 : 
; 2943 : 	for(i =0;i<UserFunctionTable.NumPOVs;i++)

	mov	DWORD PTR _i$[ebp], 0
	jmp	SHORT $LN7@SaveKeyMap
$LN6@SaveKeyMap:
	mov	edx, DWORD PTR _i$[ebp]
	add	edx, 1
	mov	DWORD PTR _i$[ebp], edx
$LN7@SaveKeyMap:
	cmp	DWORD PTR _i$[ebp], 4
	jge	$LN5@SaveKeyMap

; 2944 : 	{
; 2945 : 		int cpButtonID;
; 2946 : 		for(int j=0; j < 8; j++)

	mov	DWORD PTR _j$3[ebp], 0
	jmp	SHORT $LN4@SaveKeyMap
$LN3@SaveKeyMap:
	mov	eax, DWORD PTR _j$3[ebp]
	add	eax, 1
	mov	DWORD PTR _j$3[ebp], eax
$LN4@SaveKeyMap:
	cmp	DWORD PTR _j$3[ebp], 8
	jge	SHORT $LN2@SaveKeyMap

; 2947 : 		{
; 2948 : 			theFunc = UserFunctionTable.GetPOVFunction(i,j, &cpButtonID);

	lea	ecx, DWORD PTR _cpButtonID$1[ebp]
	push	ecx
	mov	edx, DWORD PTR _j$3[ebp]
	push	edx
	mov	eax, DWORD PTR _i$[ebp]
	push	eax
	mov	ecx, OFFSET ?UserFunctionTable@@3VInputFunctionHashTable@@A ; UserFunctionTable
	call	?GetPOVFunction@InputFunctionHashTable@@QAEP6AXKHPAX@ZHHPAH@Z ; InputFunctionHashTable::GetPOVFunction
	mov	DWORD PTR _theFunc$[ebp], eax

; 2949 : 			
; 2950 : 			if(theFunc)

	cmp	DWORD PTR _theFunc$[ebp], 0
	je	SHORT $LN1@SaveKeyMap

; 2951 : 			{
; 2952 : 				funcDescrip = FindStringFromFunction(theFunc);

	mov	ecx, DWORD PTR _theFunc$[ebp]
	push	ecx
	call	?FindStringFromFunction@@YAPADP6AXKHPAX@Z@Z ; FindStringFromFunction
	add	esp, 4
	mov	DWORD PTR _funcDescrip$[ebp], eax

; 2953 : 
; 2954 : 				fprintf(fp,"%s %d %d -3 %d 0x0 0\n",funcDescrip,i,cpButtonID,j);

	mov	edx, DWORD PTR _j$3[ebp]
	push	edx
	mov	eax, DWORD PTR _cpButtonID$1[ebp]
	push	eax
	mov	ecx, DWORD PTR _i$[ebp]
	push	ecx
	mov	edx, DWORD PTR _funcDescrip$[ebp]
	push	edx
	push	OFFSET ??_C@_0BG@LPBAKBJO@?$CFs?5?$CFd?5?$CFd?5?93?5?$CFd?50x0?50?6?$AA@
	mov	eax, DWORD PTR _fp$[ebp]
	push	eax
	call	_fprintf
	add	esp, 24					; 00000018H
$LN1@SaveKeyMap:

; 2955 : 			}
; 2956 : 		}

	jmp	$LN3@SaveKeyMap
$LN2@SaveKeyMap:

; 2957 : 	}

	jmp	$LN6@SaveKeyMap
$LN5@SaveKeyMap:

; 2958 : 
; 2959 : 	fclose(fp);

	mov	ecx, DWORD PTR _fp$[ebp]
	push	ecx
	call	_fclose
	add	esp, 4

; 2960 : 
; 2961 : 	return TRUE;

	mov	eax, 1
$LN23@SaveKeyMap:

; 2962 : }

	mov	ecx, DWORD PTR __$ArrayPad$[ebp]
	xor	ecx, ebp
	call	@__security_check_cookie@4
	mov	esp, ebp
	pop	ebp
	ret	0
?SaveKeyMapList@@YAHPAD@Z ENDP				; SaveKeyMapList
_TEXT	ENDS
; Function compile flags: /Odtp
; File c:\users\zhitao li\documents\visual studio 2012\projects\freefalcon\ui\src\setup\controltab.cpp
_TEXT	SEGMENT
$T2 = -64						; size = 4
$T3 = -60						; size = 4
tv137 = -56						; size = 4
_line$ = -52						; size = 4
$T4 = -48						; size = 16
_client$5 = -32						; size = 16
__$ArrayPad$ = -16					; size = 4
__$EHRec$ = -12						; size = 12
_win$ = 8						; size = 4
_Keycodes$ = 12						; size = 4
_Vline$ = 16						; size = 4
_Map$ = 20						; size = 4
_HotSpot$ = 24						; size = 16
_count$ = 40						; size = 4
?SetHdrStatusLine@@YAHPAVC_Window@@PAVC_Button@@PAVC_Line@@AAUKeyMap@@UHotSpotStruct@@H@Z PROC ; SetHdrStatusLine

; 2800 : {

	push	ebp
	mov	ebp, esp
	push	-1
	push	__ehhandler$?SetHdrStatusLine@@YAHPAVC_Window@@PAVC_Button@@PAVC_Line@@AAUKeyMap@@UHotSpotStruct@@H@Z
	mov	eax, DWORD PTR fs:0
	push	eax
	sub	esp, 52					; 00000034H
	mov	eax, DWORD PTR ___security_cookie
	xor	eax, ebp
	mov	DWORD PTR __$ArrayPad$[ebp], eax
	push	esi
	push	eax
	lea	eax, DWORD PTR __$EHRec$[ebp]
	mov	DWORD PTR fs:0, eax

; 2801 : 	C_Line *line;
; 2802 : 
; 2803 : 	line = (C_Line *)win->FindControl(KEYCODES - count);

	mov	eax, 100000				; 000186a0H
	sub	eax, DWORD PTR _count$[ebp]
	push	eax
	mov	ecx, DWORD PTR _win$[ebp]
	call	?FindControl@C_Window@@QAEPAVC_Base@@J@Z ; C_Window::FindControl
	mov	DWORD PTR _line$[ebp], eax

; 2804 : 	if(line)

	cmp	DWORD PTR _line$[ebp], 0
	je	SHORT $LN6@SetHdrStat

; 2805 : 	{
; 2806 : 		if(Map.editable != -1)

	mov	ecx, DWORD PTR _Map$[ebp]
	cmp	DWORD PTR [ecx+28], -1
	je	SHORT $LN5@SetHdrStat

; 2807 : 		{
; 2808 : 			line->SetFlagBitOn(C_BIT_INVISIBLE);

	push	8192					; 00002000H
	mov	edx, DWORD PTR _line$[ebp]
	mov	eax, DWORD PTR [edx]
	mov	ecx, DWORD PTR _line$[ebp]
	mov	edx, DWORD PTR [eax+8]
	call	edx

; 2809 : 		}
; 2810 : 		else

	jmp	SHORT $LN4@SetHdrStat
$LN5@SetHdrStat:

; 2811 : 		{
; 2812 : 			line->SetFlagBitOff(C_BIT_INVISIBLE);

	push	8192					; 00002000H
	mov	eax, DWORD PTR _line$[ebp]
	mov	edx, DWORD PTR [eax]
	mov	ecx, DWORD PTR _line$[ebp]
	mov	eax, DWORD PTR [edx+12]
	call	eax
$LN4@SetHdrStat:

; 2813 : 		}
; 2814 : 		line->Refresh();

	mov	ecx, DWORD PTR _line$[ebp]
	mov	edx, DWORD PTR [ecx]
	mov	ecx, DWORD PTR _line$[ebp]
	mov	eax, DWORD PTR [edx+160]
	call	eax

; 2815 : 		return TRUE;

	mov	eax, 1
	jmp	$LN7@SetHdrStat

; 2816 : 	}
; 2817 : 	else

	jmp	$LN3@SetHdrStat
$LN6@SetHdrStat:

; 2818 : 	{
; 2819 : 		line = new C_Line;

	push	60					; 0000003cH
	call	??2@YAPAXI@Z				; operator new
	add	esp, 4
	mov	DWORD PTR $T3[ebp], eax
	mov	DWORD PTR __$EHRec$[ebp+8], 0
	cmp	DWORD PTR $T3[ebp], 0
	je	SHORT $LN9@SetHdrStat
	mov	ecx, DWORD PTR $T3[ebp]
	call	??0C_Line@@QAE@XZ			; C_Line::C_Line
	mov	DWORD PTR tv137[ebp], eax
	jmp	SHORT $LN10@SetHdrStat
$LN9@SetHdrStat:
	mov	DWORD PTR tv137[ebp], 0
$LN10@SetHdrStat:
	mov	ecx, DWORD PTR tv137[ebp]
	mov	DWORD PTR $T2[ebp], ecx
	mov	DWORD PTR __$EHRec$[ebp+8], -1
	mov	edx, DWORD PTR $T2[ebp]
	mov	DWORD PTR _line$[ebp], edx

; 2820 : 		if(line)

	cmp	DWORD PTR _line$[ebp], 0
	je	$LN3@SetHdrStat

; 2821 : 		{
; 2822 : 			UI95_RECT	client;
; 2823 : 			client = win->GetClientArea(3);

	push	3
	lea	eax, DWORD PTR $T4[ebp]
	push	eax
	mov	ecx, DWORD PTR _win$[ebp]
	call	?GetClientArea@C_Window@@QAE?AUUI95_RECT@@J@Z ; C_Window::GetClientArea
	mov	ecx, DWORD PTR [eax]
	mov	DWORD PTR _client$5[ebp], ecx
	mov	edx, DWORD PTR [eax+4]
	mov	DWORD PTR _client$5[ebp+4], edx
	mov	ecx, DWORD PTR [eax+8]
	mov	DWORD PTR _client$5[ebp+8], ecx
	mov	edx, DWORD PTR [eax+12]
	mov	DWORD PTR _client$5[ebp+12], edx

; 2824 : 
; 2825 : 			line->Setup(KEYCODES - count,0);

	push	0
	mov	eax, 100000				; 000186a0H
	sub	eax, DWORD PTR _count$[ebp]
	push	eax
	mov	ecx, DWORD PTR _line$[ebp]
	call	?Setup@C_Line@@QAEXJF@Z			; C_Line::Setup

; 2826 : 			//line->SetXYWH(	Keycodes->GetX() + HotX,
; 2827 : 			//				Keycodes->GetY() + Vline->GetH()*count + HotY,
; 2828 : 			//				HotW,HotH);
; 2829 : 			line->SetXYWH(	Keycodes->GetX() + HotSpot.X,
; 2830 : 							Keycodes->GetY() + Vline->GetH()*count + HotSpot.Y,
; 2831 : 							client.right - client.left,HotSpot.H);

	mov	ecx, DWORD PTR _HotSpot$[ebp+12]
	push	ecx
	mov	edx, DWORD PTR _client$5[ebp+8]
	sub	edx, DWORD PTR _client$5[ebp]
	push	edx
	mov	ecx, DWORD PTR _Keycodes$[ebp]
	call	?GetY@C_Base@@QAEJXZ			; C_Base::GetY
	mov	esi, eax
	mov	ecx, DWORD PTR _Vline$[ebp]
	call	?GetH@C_Base@@QAEJXZ			; C_Base::GetH
	imul	eax, DWORD PTR _count$[ebp]
	add	esi, DWORD PTR _HotSpot$[ebp+4]
	add	eax, esi
	push	eax
	mov	ecx, DWORD PTR _Keycodes$[ebp]
	call	?GetX@C_Base@@QAEJXZ			; C_Base::GetX
	add	eax, DWORD PTR _HotSpot$[ebp]
	push	eax
	mov	eax, DWORD PTR _line$[ebp]
	mov	edx, DWORD PTR [eax]
	mov	ecx, DWORD PTR _line$[ebp]
	mov	eax, DWORD PTR [edx+40]
	call	eax

; 2832 : 			
; 2833 : 			line->SetColor(RGB(65,128,173));//lt blue

	push	11370561				; 00ad8041H
	mov	ecx, DWORD PTR _line$[ebp]
	call	?SetColor@C_Line@@QAEXK@Z		; C_Line::SetColor

; 2834 : 			line->SetFlags(Vline->GetFlags());

	mov	ecx, DWORD PTR _Vline$[ebp]
	call	?GetFlags@C_Base@@QAEJXZ		; C_Base::GetFlags
	push	eax
	mov	ecx, DWORD PTR _line$[ebp]
	mov	edx, DWORD PTR [ecx]
	mov	ecx, DWORD PTR _line$[ebp]
	mov	eax, DWORD PTR [edx+4]
	call	eax

; 2835 : 			line->SetClient(Vline->GetClient());

	mov	ecx, DWORD PTR _Vline$[ebp]
	call	?GetClient@C_Base@@QAEFXZ		; C_Base::GetClient
	movzx	ecx, ax
	push	ecx
	mov	ecx, DWORD PTR _line$[ebp]
	call	?SetClient@C_Base@@QAEXF@Z		; C_Base::SetClient

; 2836 : 			line->SetGroup(Vline->GetGroup());

	mov	ecx, DWORD PTR _Vline$[ebp]
	call	?GetGroup@C_Base@@QAEJXZ		; C_Base::GetGroup
	push	eax
	mov	ecx, DWORD PTR _line$[ebp]
	call	?SetGroup@C_Base@@QAEXJ@Z		; C_Base::SetGroup

; 2837 : 			line->SetCluster(Vline->GetCluster());

	mov	ecx, DWORD PTR _Vline$[ebp]
	call	?GetCluster@C_Base@@QAEJXZ		; C_Base::GetCluster
	push	eax
	mov	ecx, DWORD PTR _line$[ebp]
	call	?SetCluster@C_Base@@QAEXJ@Z		; C_Base::SetCluster

; 2838 : 			win->AddControl(line);

	mov	edx, DWORD PTR _line$[ebp]
	push	edx
	mov	ecx, DWORD PTR _win$[ebp]
	call	?AddControl@C_Window@@QAEXPAVC_Base@@@Z	; C_Window::AddControl

; 2839 : 			line->Refresh();

	mov	eax, DWORD PTR _line$[ebp]
	mov	edx, DWORD PTR [eax]
	mov	ecx, DWORD PTR _line$[ebp]
	mov	eax, DWORD PTR [edx+160]
	call	eax

; 2840 : 			//this is a header, so we put a lt blue line behind it
; 2841 : 			if(Map.editable != -1)

	mov	ecx, DWORD PTR _Map$[ebp]
	cmp	DWORD PTR [ecx+28], -1
	je	SHORT $LN1@SetHdrStat

; 2842 : 			{
; 2843 : 				line->SetFlagBitOn(C_BIT_INVISIBLE);

	push	8192					; 00002000H
	mov	edx, DWORD PTR _line$[ebp]
	mov	eax, DWORD PTR [edx]
	mov	ecx, DWORD PTR _line$[ebp]
	mov	edx, DWORD PTR [eax+8]
	call	edx
$LN1@SetHdrStat:

; 2844 : 			}
; 2845 : 			line->Refresh();

	mov	eax, DWORD PTR _line$[ebp]
	mov	edx, DWORD PTR [eax]
	mov	ecx, DWORD PTR _line$[ebp]
	mov	eax, DWORD PTR [edx+160]
	call	eax

; 2846 : 			return TRUE;

	mov	eax, 1
	jmp	SHORT $LN7@SetHdrStat
$LN3@SetHdrStat:

; 2847 : 		}
; 2848 : 	}
; 2849 : 	return FALSE;

	xor	eax, eax
$LN7@SetHdrStat:

; 2850 : }

	mov	ecx, DWORD PTR __$EHRec$[ebp]
	mov	DWORD PTR fs:0, ecx
	pop	ecx
	pop	esi
	mov	ecx, DWORD PTR __$ArrayPad$[ebp]
	xor	ecx, ebp
	call	@__security_check_cookie@4
	mov	esp, ebp
	pop	ebp
	ret	0
_TEXT	ENDS
text$x	SEGMENT
__unwindfunclet$?SetHdrStatusLine@@YAHPAVC_Window@@PAVC_Button@@PAVC_Line@@AAUKeyMap@@UHotSpotStruct@@H@Z$0:
	mov	eax, DWORD PTR $T3[ebp]
	push	eax
	call	??3@YAXPAX@Z				; operator delete
	pop	ecx
	ret	0
__ehhandler$?SetHdrStatusLine@@YAHPAVC_Window@@PAVC_Button@@PAVC_Line@@AAUKeyMap@@UHotSpotStruct@@H@Z:
	mov	edx, DWORD PTR [esp+8]
	lea	eax, DWORD PTR [edx+12]
	mov	ecx, DWORD PTR [edx-60]
	xor	ecx, eax
	call	@__security_check_cookie@4
	mov	ecx, DWORD PTR [edx-4]
	xor	ecx, eax
	call	@__security_check_cookie@4
	mov	eax, OFFSET __ehfuncinfo$?SetHdrStatusLine@@YAHPAVC_Window@@PAVC_Button@@PAVC_Line@@AAUKeyMap@@UHotSpotStruct@@H@Z
	jmp	___CxxFrameHandler3
text$x	ENDS
?SetHdrStatusLine@@YAHPAVC_Window@@PAVC_Button@@PAVC_Line@@AAUKeyMap@@UHotSpotStruct@@H@Z ENDP ; SetHdrStatusLine
; Function compile flags: /Odtp
; File c:\users\zhitao li\documents\visual studio 2012\projects\freefalcon\ui\src\setup\controltab.cpp
_TEXT	SEGMENT
$T2 = -28						; size = 4
tv130 = -24						; size = 4
$T3 = -20						; size = 4
_text$ = -16						; size = 4
__$EHRec$ = -12						; size = 12
_win$ = 8						; size = 4
_Mapping$ = 12						; size = 4
_height$ = 16						; size = 4
_descrip$ = 20						; size = 4
_count$ = 24						; size = 4
?UpdateMappingDescrip@@YAHPAVC_Window@@PAVC_Text@@HPADH@Z PROC ; UpdateMappingDescrip

; 2764 : {

	push	ebp
	mov	ebp, esp
	push	-1
	push	__ehhandler$?UpdateMappingDescrip@@YAHPAVC_Window@@PAVC_Text@@HPADH@Z
	mov	eax, DWORD PTR fs:0
	push	eax
	sub	esp, 16					; 00000010H
	mov	eax, DWORD PTR ___security_cookie
	xor	eax, ebp
	push	eax
	lea	eax, DWORD PTR __$EHRec$[ebp]
	mov	DWORD PTR fs:0, eax

; 2765 : 	C_Text *text;
; 2766 : 
; 2767 : 	text = (C_Text *)win->FindControl(MAPPING+count);

	mov	eax, DWORD PTR _count$[ebp]
	add	eax, 110000				; 0001adb0H
	push	eax
	mov	ecx, DWORD PTR _win$[ebp]
	call	?FindControl@C_Window@@QAEPAVC_Base@@J@Z ; C_Window::FindControl
	mov	DWORD PTR _text$[ebp], eax

; 2768 : 	if(text)

	cmp	DWORD PTR _text$[ebp], 0
	je	SHORT $LN3@UpdateMapp

; 2769 : 	{
; 2770 : 		text->Refresh();

	mov	ecx, DWORD PTR _text$[ebp]
	mov	edx, DWORD PTR [ecx]
	mov	ecx, DWORD PTR _text$[ebp]
	mov	eax, DWORD PTR [edx+160]
	call	eax

; 2771 : 		text->SetText(descrip);

	mov	ecx, DWORD PTR _descrip$[ebp]
	push	ecx
	mov	edx, DWORD PTR _text$[ebp]
	mov	eax, DWORD PTR [edx]
	mov	ecx, DWORD PTR _text$[ebp]
	mov	edx, DWORD PTR [eax+256]
	call	edx

; 2772 : 		text->Refresh();

	mov	eax, DWORD PTR _text$[ebp]
	mov	edx, DWORD PTR [eax]
	mov	ecx, DWORD PTR _text$[ebp]
	mov	eax, DWORD PTR [edx+160]
	call	eax

; 2773 : 		return TRUE;

	mov	eax, 1
	jmp	$LN4@UpdateMapp

; 2774 : 	}
; 2775 : 	else

	jmp	$LN2@UpdateMapp
$LN3@UpdateMapp:

; 2776 : 	{
; 2777 : 		text = new C_Text;

	push	76					; 0000004cH
	call	??2@YAPAXI@Z				; operator new
	add	esp, 4
	mov	DWORD PTR $T3[ebp], eax
	mov	DWORD PTR __$EHRec$[ebp+8], 0
	cmp	DWORD PTR $T3[ebp], 0
	je	SHORT $LN6@UpdateMapp
	mov	ecx, DWORD PTR $T3[ebp]
	call	??0C_Text@@QAE@XZ			; C_Text::C_Text
	mov	DWORD PTR tv130[ebp], eax
	jmp	SHORT $LN7@UpdateMapp
$LN6@UpdateMapp:
	mov	DWORD PTR tv130[ebp], 0
$LN7@UpdateMapp:
	mov	ecx, DWORD PTR tv130[ebp]
	mov	DWORD PTR $T2[ebp], ecx
	mov	DWORD PTR __$EHRec$[ebp+8], -1
	mov	edx, DWORD PTR $T2[ebp]
	mov	DWORD PTR _text$[ebp], edx

; 2778 : 		if(text)

	cmp	DWORD PTR _text$[ebp], 0
	je	$LN2@UpdateMapp

; 2779 : 		{
; 2780 : 			text->Setup(MAPPING+count, Mapping->GetType());

	mov	ecx, DWORD PTR _Mapping$[ebp]
	call	?GetType@C_Base@@QAEFXZ			; C_Base::GetType
	movzx	eax, ax
	push	eax
	mov	ecx, DWORD PTR _count$[ebp]
	add	ecx, 110000				; 0001adb0H
	push	ecx
	mov	edx, DWORD PTR _text$[ebp]
	mov	eax, DWORD PTR [edx]
	mov	ecx, DWORD PTR _text$[ebp]
	mov	edx, DWORD PTR [eax+248]
	call	edx

; 2781 : 			text->SetFGColor(Mapping->GetFGColor());

	mov	ecx, DWORD PTR _Mapping$[ebp]
	call	?GetFGColor@C_Text@@QAEKXZ		; C_Text::GetFGColor
	push	eax
	mov	ecx, DWORD PTR _text$[ebp]
	call	?SetFGColor@C_Text@@QAEXK@Z		; C_Text::SetFGColor

; 2782 : 			text->SetBGColor(Mapping->GetBGColor());

	mov	ecx, DWORD PTR _Mapping$[ebp]
	call	?GetBGColor@C_Text@@QAEKXZ		; C_Text::GetBGColor
	push	eax
	mov	ecx, DWORD PTR _text$[ebp]
	call	?SetBGColor@C_Text@@QAEXK@Z		; C_Text::SetBGColor

; 2783 : 			text->SetClient(Mapping->GetClient());

	mov	ecx, DWORD PTR _Mapping$[ebp]
	call	?GetClient@C_Base@@QAEFXZ		; C_Base::GetClient
	movzx	eax, ax
	push	eax
	mov	ecx, DWORD PTR _text$[ebp]
	call	?SetClient@C_Base@@QAEXF@Z		; C_Base::SetClient

; 2784 : 			text->SetGroup(Mapping->GetGroup());

	mov	ecx, DWORD PTR _Mapping$[ebp]
	call	?GetGroup@C_Base@@QAEJXZ		; C_Base::GetGroup
	push	eax
	mov	ecx, DWORD PTR _text$[ebp]
	call	?SetGroup@C_Base@@QAEXJ@Z		; C_Base::SetGroup

; 2785 : 			text->SetCluster(Mapping->GetCluster());

	mov	ecx, DWORD PTR _Mapping$[ebp]
	call	?GetCluster@C_Base@@QAEJXZ		; C_Base::GetCluster
	push	eax
	mov	ecx, DWORD PTR _text$[ebp]
	call	?SetCluster@C_Base@@QAEXJ@Z		; C_Base::SetCluster

; 2786 : 			text->SetFont(Mapping->GetFont());

	mov	ecx, DWORD PTR _Mapping$[ebp]
	mov	edx, DWORD PTR [ecx]
	mov	ecx, DWORD PTR _Mapping$[ebp]
	mov	eax, DWORD PTR [edx+124]
	call	eax
	push	eax
	mov	ecx, DWORD PTR _text$[ebp]
	mov	edx, DWORD PTR [ecx]
	mov	ecx, DWORD PTR _text$[ebp]
	mov	eax, DWORD PTR [edx+68]
	call	eax

; 2787 : 			text->SetFlags(Mapping->GetFlags());

	mov	ecx, DWORD PTR _Mapping$[ebp]
	call	?GetFlags@C_Base@@QAEJXZ		; C_Base::GetFlags
	push	eax
	mov	ecx, DWORD PTR _text$[ebp]
	mov	edx, DWORD PTR [ecx]
	mov	ecx, DWORD PTR _text$[ebp]
	mov	eax, DWORD PTR [edx+4]
	call	eax

; 2788 : 			text->SetXY(Mapping->GetX(),Mapping->GetY() + height*count);

	mov	ecx, DWORD PTR _Mapping$[ebp]
	call	?GetY@C_Base@@QAEJXZ			; C_Base::GetY
	mov	ecx, DWORD PTR _height$[ebp]
	imul	ecx, DWORD PTR _count$[ebp]
	add	eax, ecx
	push	eax
	mov	ecx, DWORD PTR _Mapping$[ebp]
	call	?GetX@C_Base@@QAEJXZ			; C_Base::GetX
	push	eax
	mov	edx, DWORD PTR _text$[ebp]
	mov	eax, DWORD PTR [edx]
	mov	ecx, DWORD PTR _text$[ebp]
	mov	edx, DWORD PTR [eax+32]
	call	edx

; 2789 : 			text->SetText(descrip);

	mov	eax, DWORD PTR _descrip$[ebp]
	push	eax
	mov	ecx, DWORD PTR _text$[ebp]
	mov	edx, DWORD PTR [ecx]
	mov	ecx, DWORD PTR _text$[ebp]
	mov	eax, DWORD PTR [edx+256]
	call	eax

; 2790 : 
; 2791 : 			win->AddControl(text);

	mov	ecx, DWORD PTR _text$[ebp]
	push	ecx
	mov	ecx, DWORD PTR _win$[ebp]
	call	?AddControl@C_Window@@QAEXPAVC_Base@@@Z	; C_Window::AddControl

; 2792 : 			text->Refresh();

	mov	edx, DWORD PTR _text$[ebp]
	mov	eax, DWORD PTR [edx]
	mov	ecx, DWORD PTR _text$[ebp]
	mov	edx, DWORD PTR [eax+160]
	call	edx

; 2793 : 			return TRUE;

	mov	eax, 1
	jmp	SHORT $LN4@UpdateMapp
$LN2@UpdateMapp:

; 2794 : 		}
; 2795 : 	}
; 2796 : 	return FALSE;

	xor	eax, eax
$LN4@UpdateMapp:

; 2797 : }

	mov	ecx, DWORD PTR __$EHRec$[ebp]
	mov	DWORD PTR fs:0, ecx
	pop	ecx
	mov	esp, ebp
	pop	ebp
	ret	0
_TEXT	ENDS
text$x	SEGMENT
__unwindfunclet$?UpdateMappingDescrip@@YAHPAVC_Window@@PAVC_Text@@HPADH@Z$0:
	mov	eax, DWORD PTR $T3[ebp]
	push	eax
	call	??3@YAXPAX@Z				; operator delete
	pop	ecx
	ret	0
__ehhandler$?UpdateMappingDescrip@@YAHPAVC_Window@@PAVC_Text@@HPADH@Z:
	mov	edx, DWORD PTR [esp+8]
	lea	eax, DWORD PTR [edx+12]
	mov	ecx, DWORD PTR [edx-20]
	xor	ecx, eax
	call	@__security_check_cookie@4
	mov	eax, OFFSET __ehfuncinfo$?UpdateMappingDescrip@@YAHPAVC_Window@@PAVC_Text@@HPADH@Z
	jmp	___CxxFrameHandler3
text$x	ENDS
?UpdateMappingDescrip@@YAHPAVC_Window@@PAVC_Text@@HPADH@Z ENDP ; UpdateMappingDescrip
; Function compile flags: /Odtp
; File c:\users\zhitao li\documents\visual studio 2012\projects\freefalcon\ui\src\setup\controltab.cpp
_TEXT	SEGMENT
_flags$ = -32						; size = 4
$T2 = -28						; size = 4
tv136 = -24						; size = 4
$T3 = -20						; size = 4
_button$ = -16						; size = 4
__$EHRec$ = -12						; size = 12
_win$ = 8						; size = 4
_Keycodes$ = 12						; size = 4
_height$ = 16						; size = 4
_Map$ = 20						; size = 4
_HotSpot$ = 24						; size = 16
_count$ = 40						; size = 4
?UpdateKeyMap@@YAHPAVC_Window@@PAVC_Button@@HAAUKeyMap@@UHotSpotStruct@@H@Z PROC ; UpdateKeyMap

; 2720 : {

	push	ebp
	mov	ebp, esp
	push	-1
	push	__ehhandler$?UpdateKeyMap@@YAHPAVC_Window@@PAVC_Button@@HAAUKeyMap@@UHotSpotStruct@@H@Z
	mov	eax, DWORD PTR fs:0
	push	eax
	sub	esp, 20					; 00000014H
	mov	eax, DWORD PTR ___security_cookie
	xor	eax, ebp
	push	eax
	lea	eax, DWORD PTR __$EHRec$[ebp]
	mov	DWORD PTR fs:0, eax

; 2721 : 	C_Button *button;
; 2722 : 	long flags;
; 2723 : 
; 2724 : 	flags = Map.mod2 + (Map.key1 << SECOND_KEY_SHIFT) + (Map.mod1 << SECOND_KEY_MOD_SHIFT);

	mov	eax, DWORD PTR _Map$[ebp]
	mov	ecx, DWORD PTR [eax+20]
	shl	ecx, 8
	mov	edx, DWORD PTR _Map$[ebp]
	mov	eax, DWORD PTR [edx+16]
	add	eax, ecx
	mov	ecx, DWORD PTR _Map$[ebp]
	mov	edx, DWORD PTR [ecx+24]
	shl	edx, 16					; 00000010H
	add	eax, edx
	mov	DWORD PTR _flags$[ebp], eax

; 2725 : 
; 2726 : 	button = (C_Button *)win->FindControl(KEYCODES + count);

	mov	eax, DWORD PTR _count$[ebp]
	add	eax, 100000				; 000186a0H
	push	eax
	mov	ecx, DWORD PTR _win$[ebp]
	call	?FindControl@C_Window@@QAEPAVC_Base@@J@Z ; C_Window::FindControl
	mov	DWORD PTR _button$[ebp], eax

; 2727 : 	if(button)

	cmp	DWORD PTR _button$[ebp], 0
	je	SHORT $LN4@UpdateKeyM

; 2728 : 	{
; 2729 : 		button->Refresh();

	mov	ecx, DWORD PTR _button$[ebp]
	mov	edx, DWORD PTR [ecx]
	mov	ecx, DWORD PTR _button$[ebp]
	mov	eax, DWORD PTR [edx+160]
	call	eax

; 2730 : 		UpdateKeyMapButton(button, Map, count);

	mov	ecx, DWORD PTR _count$[ebp]
	push	ecx
	mov	edx, DWORD PTR _Map$[ebp]
	push	edx
	mov	eax, DWORD PTR _button$[ebp]
	push	eax
	call	?UpdateKeyMapButton@@YAXPAVC_Button@@AAUKeyMap@@H@Z ; UpdateKeyMapButton
	add	esp, 12					; 0000000cH

; 2731 : 		button->Refresh();

	mov	ecx, DWORD PTR _button$[ebp]
	mov	edx, DWORD PTR [ecx]
	mov	ecx, DWORD PTR _button$[ebp]
	mov	eax, DWORD PTR [edx+160]
	call	eax

; 2732 : 		return TRUE;

	mov	eax, 1
	jmp	$LN5@UpdateKeyM

; 2733 : 	}
; 2734 : 	else

	jmp	$LN3@UpdateKeyM
$LN4@UpdateKeyM:

; 2735 : 	{
; 2736 : 		button = new C_Button;

	push	160					; 000000a0H
	call	??2@YAPAXI@Z				; operator new
	add	esp, 4
	mov	DWORD PTR $T3[ebp], eax
	mov	DWORD PTR __$EHRec$[ebp+8], 0
	cmp	DWORD PTR $T3[ebp], 0
	je	SHORT $LN7@UpdateKeyM
	mov	ecx, DWORD PTR $T3[ebp]
	call	??0C_Button@@QAE@XZ			; C_Button::C_Button
	mov	DWORD PTR tv136[ebp], eax
	jmp	SHORT $LN8@UpdateKeyM
$LN7@UpdateKeyM:
	mov	DWORD PTR tv136[ebp], 0
$LN8@UpdateKeyM:
	mov	ecx, DWORD PTR tv136[ebp]
	mov	DWORD PTR $T2[ebp], ecx
	mov	DWORD PTR __$EHRec$[ebp+8], -1
	mov	edx, DWORD PTR $T2[ebp]
	mov	DWORD PTR _button$[ebp], edx

; 2737 : 		if(button)

	cmp	DWORD PTR _button$[ebp], 0
	je	$LN3@UpdateKeyM

; 2738 : 		{
; 2739 : 			button->Setup(KEYCODES + count, Keycodes->GetType(), Keycodes->GetX(),
; 2740 : 							Keycodes->GetY() + height*count);

	mov	ecx, DWORD PTR _Keycodes$[ebp]
	call	?GetY@C_Base@@QAEJXZ			; C_Base::GetY
	mov	ecx, DWORD PTR _height$[ebp]
	imul	ecx, DWORD PTR _count$[ebp]
	add	eax, ecx
	push	eax
	mov	ecx, DWORD PTR _Keycodes$[ebp]
	call	?GetX@C_Base@@QAEJXZ			; C_Base::GetX
	push	eax
	mov	ecx, DWORD PTR _Keycodes$[ebp]
	call	?GetType@C_Base@@QAEFXZ			; C_Base::GetType
	movzx	edx, ax
	push	edx
	mov	eax, DWORD PTR _count$[ebp]
	add	eax, 100000				; 000186a0H
	push	eax
	mov	ecx, DWORD PTR _button$[ebp]
	call	?Setup@C_Button@@QAEXJFJJ@Z		; C_Button::Setup

; 2741 : 			
; 2742 : 			button->SetClient(Keycodes->GetClient());

	mov	ecx, DWORD PTR _Keycodes$[ebp]
	call	?GetClient@C_Base@@QAEFXZ		; C_Base::GetClient
	movzx	ecx, ax
	push	ecx
	mov	ecx, DWORD PTR _button$[ebp]
	call	?SetClient@C_Base@@QAEXF@Z		; C_Base::SetClient

; 2743 : 			button->SetGroup(Keycodes->GetGroup());

	mov	ecx, DWORD PTR _Keycodes$[ebp]
	call	?GetGroup@C_Base@@QAEJXZ		; C_Base::GetGroup
	push	eax
	mov	ecx, DWORD PTR _button$[ebp]
	call	?SetGroup@C_Base@@QAEXJ@Z		; C_Base::SetGroup

; 2744 : 			button->SetCluster(Keycodes->GetCluster());

	mov	ecx, DWORD PTR _Keycodes$[ebp]
	call	?GetCluster@C_Base@@QAEJXZ		; C_Base::GetCluster
	push	eax
	mov	ecx, DWORD PTR _button$[ebp]
	call	?SetCluster@C_Base@@QAEXJ@Z		; C_Base::SetCluster

; 2745 : 			button->SetFont(Keycodes->GetFont());

	mov	edx, DWORD PTR _Keycodes$[ebp]
	mov	eax, DWORD PTR [edx]
	mov	ecx, DWORD PTR _Keycodes$[ebp]
	mov	edx, DWORD PTR [eax+124]
	call	edx
	push	eax
	mov	eax, DWORD PTR _button$[ebp]
	mov	edx, DWORD PTR [eax]
	mov	ecx, DWORD PTR _button$[ebp]
	mov	eax, DWORD PTR [edx+68]
	call	eax

; 2746 : 			button->SetFlags(Keycodes->GetFlags());

	mov	ecx, DWORD PTR _Keycodes$[ebp]
	call	?GetFlags@C_Base@@QAEJXZ		; C_Base::GetFlags
	push	eax
	mov	ecx, DWORD PTR _button$[ebp]
	mov	edx, DWORD PTR [ecx]
	mov	ecx, DWORD PTR _button$[ebp]
	mov	eax, DWORD PTR [edx+4]
	call	eax

; 2747 : 			button->SetCallback(KeycodeCB);

	push	OFFSET ?KeycodeCB@@YAXJFPAVC_Base@@@Z	; KeycodeCB
	mov	ecx, DWORD PTR _button$[ebp]
	mov	edx, DWORD PTR [ecx]
	mov	ecx, DWORD PTR _button$[ebp]
	mov	eax, DWORD PTR [edx+100]
	call	eax

; 2748 : 			button->SetHotSpot(HotSpot.X, HotSpot.Y, HotSpot.W, HotSpot.H);

	mov	ecx, DWORD PTR _HotSpot$[ebp+12]
	push	ecx
	mov	edx, DWORD PTR _HotSpot$[ebp+8]
	push	edx
	mov	eax, DWORD PTR _HotSpot$[ebp+4]
	push	eax
	mov	ecx, DWORD PTR _HotSpot$[ebp]
	push	ecx
	mov	ecx, DWORD PTR _button$[ebp]
	call	?SetHotSpot@C_Button@@QAEXJJJJ@Z	; C_Button::SetHotSpot

; 2749 : 			
; 2750 : 			if(Keycodes->GetSound(1))

	push	1
	mov	edx, DWORD PTR _Keycodes$[ebp]
	mov	eax, DWORD PTR [edx]
	mov	ecx, DWORD PTR _Keycodes$[ebp]
	mov	edx, DWORD PTR [eax+132]
	call	edx
	test	eax, eax
	je	SHORT $LN1@UpdateKeyM

; 2751 : 				button->SetSound((Keycodes->GetSound(1))->ID, 1);

	push	1
	push	1
	mov	eax, DWORD PTR _Keycodes$[ebp]
	mov	edx, DWORD PTR [eax]
	mov	ecx, DWORD PTR _Keycodes$[ebp]
	mov	eax, DWORD PTR [edx+132]
	call	eax
	mov	ecx, DWORD PTR [eax]
	push	ecx
	mov	edx, DWORD PTR _button$[ebp]
	mov	eax, DWORD PTR [edx]
	mov	ecx, DWORD PTR _button$[ebp]
	mov	edx, DWORD PTR [eax+72]
	call	edx
$LN1@UpdateKeyM:

; 2752 : 			
; 2753 : 			UpdateKeyMapButton(button, Map, count);

	mov	eax, DWORD PTR _count$[ebp]
	push	eax
	mov	ecx, DWORD PTR _Map$[ebp]
	push	ecx
	mov	edx, DWORD PTR _button$[ebp]
	push	edx
	call	?UpdateKeyMapButton@@YAXPAVC_Button@@AAUKeyMap@@H@Z ; UpdateKeyMapButton
	add	esp, 12					; 0000000cH

; 2754 : 
; 2755 : 			win->AddControl(button);

	mov	eax, DWORD PTR _button$[ebp]
	push	eax
	mov	ecx, DWORD PTR _win$[ebp]
	call	?AddControl@C_Window@@QAEXPAVC_Base@@@Z	; C_Window::AddControl

; 2756 : 			button->Refresh();

	mov	ecx, DWORD PTR _button$[ebp]
	mov	edx, DWORD PTR [ecx]
	mov	ecx, DWORD PTR _button$[ebp]
	mov	eax, DWORD PTR [edx+160]
	call	eax

; 2757 : 			return TRUE;

	mov	eax, 1
	jmp	SHORT $LN5@UpdateKeyM
$LN3@UpdateKeyM:

; 2758 : 		}
; 2759 : 	}
; 2760 : 	return FALSE;

	xor	eax, eax
$LN5@UpdateKeyM:

; 2761 : }

	mov	ecx, DWORD PTR __$EHRec$[ebp]
	mov	DWORD PTR fs:0, ecx
	pop	ecx
	mov	esp, ebp
	pop	ebp
	ret	0
_TEXT	ENDS
text$x	SEGMENT
__unwindfunclet$?UpdateKeyMap@@YAHPAVC_Window@@PAVC_Button@@HAAUKeyMap@@UHotSpotStruct@@H@Z$0:
	mov	eax, DWORD PTR $T3[ebp]
	push	eax
	call	??3@YAXPAX@Z				; operator delete
	pop	ecx
	ret	0
__ehhandler$?UpdateKeyMap@@YAHPAVC_Window@@PAVC_Button@@HAAUKeyMap@@UHotSpotStruct@@H@Z:
	mov	edx, DWORD PTR [esp+8]
	lea	eax, DWORD PTR [edx+12]
	mov	ecx, DWORD PTR [edx-24]
	xor	ecx, eax
	call	@__security_check_cookie@4
	mov	eax, OFFSET __ehfuncinfo$?UpdateKeyMap@@YAHPAVC_Window@@PAVC_Button@@HAAUKeyMap@@UHotSpotStruct@@H@Z
	jmp	___CxxFrameHandler3
text$x	ENDS
?UpdateKeyMap@@YAHPAVC_Window@@PAVC_Button@@HAAUKeyMap@@UHotSpotStruct@@H@Z ENDP ; UpdateKeyMap
; Function compile flags: /Odtp
; File c:\users\zhitao li\documents\visual studio 2012\projects\freefalcon\ui\src\setup\controltab.cpp
_TEXT	SEGMENT
_flags$ = -788						; size = 4
_firstMod$1 = -784					; size = 260
_secondMod$2 = -524					; size = 260
_totalDescrip$3 = -264					; size = 260
__$ArrayPad$ = -4					; size = 4
_button$ = 8						; size = 4
_Map$ = 12						; size = 4
_count$ = 16						; size = 4
?UpdateKeyMapButton@@YAXPAVC_Button@@AAUKeyMap@@H@Z PROC ; UpdateKeyMapButton

; 2680 : {

	push	ebp
	mov	ebp, esp
	sub	esp, 788				; 00000314H
	mov	eax, DWORD PTR ___security_cookie
	xor	eax, ebp
	mov	DWORD PTR __$ArrayPad$[ebp], eax

; 2681 : 	int flags = Map.mod2 + (Map.key1 << SECOND_KEY_SHIFT) + (Map.mod1 << SECOND_KEY_MOD_SHIFT);

	mov	eax, DWORD PTR _Map$[ebp]
	mov	ecx, DWORD PTR [eax+20]
	shl	ecx, 8
	mov	edx, DWORD PTR _Map$[ebp]
	mov	eax, DWORD PTR [edx+16]
	add	eax, ecx
	mov	ecx, DWORD PTR _Map$[ebp]
	mov	edx, DWORD PTR [ecx+24]
	shl	edx, 16					; 00000010H
	add	eax, edx
	mov	DWORD PTR _flags$[ebp], eax

; 2682 : 
; 2683 : 	button->SetUserNumber(KEY2,Map.key2);

	mov	eax, DWORD PTR _Map$[ebp]
	mov	ecx, DWORD PTR [eax+12]
	push	ecx
	push	0
	mov	ecx, DWORD PTR _button$[ebp]
	call	?SetUserNumber@C_Base@@QAEXJJ@Z		; C_Base::SetUserNumber

; 2684 : 	button->SetUserNumber(FLAGS,flags);

	mov	edx, DWORD PTR _flags$[ebp]
	push	edx
	push	1
	mov	ecx, DWORD PTR _button$[ebp]
	call	?SetUserNumber@C_Base@@QAEXJJ@Z		; C_Base::SetUserNumber

; 2685 : 	button->SetUserNumber(BUTTON_ID,Map.buttonId);

	mov	eax, DWORD PTR _Map$[ebp]
	mov	ecx, DWORD PTR [eax+4]
	push	ecx
	push	2
	mov	ecx, DWORD PTR _button$[ebp]
	call	?SetUserNumber@C_Base@@QAEXJJ@Z		; C_Base::SetUserNumber

; 2686 : 	button->SetUserNumber(MOUSE_SIDE,Map.mouseSide);

	mov	edx, DWORD PTR _Map$[ebp]
	mov	eax, DWORD PTR [edx+8]
	push	eax
	push	3
	mov	ecx, DWORD PTR _button$[ebp]
	call	?SetUserNumber@C_Base@@QAEXJJ@Z		; C_Base::SetUserNumber

; 2687 : 	button->SetUserNumber(EDITABLE,Map.editable);

	mov	ecx, DWORD PTR _Map$[ebp]
	mov	edx, DWORD PTR [ecx+28]
	push	edx
	push	4
	mov	ecx, DWORD PTR _button$[ebp]
	call	?SetUserNumber@C_Base@@QAEXJJ@Z		; C_Base::SetUserNumber

; 2688 : 	button->SetUserPtr(FUNCTION_PTR,(void*)Map.func);

	mov	eax, DWORD PTR _Map$[ebp]
	mov	ecx, DWORD PTR [eax]
	push	ecx
	push	5
	mov	ecx, DWORD PTR _button$[ebp]
	call	?SetUserPtr@C_Base@@QAEXJPAX@Z		; C_Base::SetUserPtr

; 2689 : 
; 2690 : 	if(Map.key2 == -1)

	mov	edx, DWORD PTR _Map$[ebp]
	cmp	DWORD PTR [edx+12], -1
	jne	SHORT $LN4@UpdateKeyM

; 2691 : 	{
; 2692 : 		button->SetText(0,TXT_NO_KEY);

	push	18					; 00000012H
	push	0
	mov	ecx, DWORD PTR _button$[ebp]
	call	?SetText@C_Button@@QAEXFJ@Z		; C_Button::SetText

; 2693 : 	}
; 2694 : 	else

	jmp	$LN3@UpdateKeyM
$LN4@UpdateKeyM:

; 2695 : 	{
; 2696 : 		
; 2697 : 		_TCHAR totalDescrip[MAX_PATH] = {0};

	mov	BYTE PTR _totalDescrip$3[ebp], 0
	push	259					; 00000103H
	push	0
	lea	eax, DWORD PTR _totalDescrip$3[ebp+1]
	push	eax
	call	_memset
	add	esp, 12					; 0000000cH

; 2698 : 		if(Map.key1 > 0)

	mov	ecx, DWORD PTR _Map$[ebp]
	cmp	DWORD PTR [ecx+20], 0
	jle	$LN2@UpdateKeyM

; 2699 : 		{
; 2700 : 			_TCHAR firstMod[MAX_PATH] = {0};

	mov	BYTE PTR _firstMod$1[ebp], 0
	push	259					; 00000103H
	push	0
	lea	edx, DWORD PTR _firstMod$1[ebp+1]
	push	edx
	call	_memset
	add	esp, 12					; 0000000cH

; 2701 : 			_TCHAR secondMod[MAX_PATH] = {0};

	mov	BYTE PTR _secondMod$2[ebp], 0
	push	259					; 00000103H
	push	0
	lea	eax, DWORD PTR _secondMod$2[ebp+1]
	push	eax
	call	_memset
	add	esp, 12					; 0000000cH

; 2702 : 			DoShiftStates(firstMod,Map.mod1);

	mov	ecx, DWORD PTR _Map$[ebp]
	mov	edx, DWORD PTR [ecx+24]
	push	edx
	lea	eax, DWORD PTR _firstMod$1[ebp]
	push	eax
	call	?DoShiftStates@@YAXPADH@Z		; DoShiftStates
	add	esp, 8

; 2703 : 			DoShiftStates(secondMod,Map.mod2);

	mov	ecx, DWORD PTR _Map$[ebp]
	mov	edx, DWORD PTR [ecx+16]
	push	edx
	lea	eax, DWORD PTR _secondMod$2[ebp]
	push	eax
	call	?DoShiftStates@@YAXPADH@Z		; DoShiftStates
	add	esp, 8

; 2704 : 			_stprintf(totalDescrip,"%s%s : %s%s",firstMod,KeyDescrips[Map.key1],secondMod,KeyDescrips[Map.key2]);

	mov	ecx, DWORD PTR _Map$[ebp]
	mov	edx, DWORD PTR [ecx+12]
	mov	eax, DWORD PTR ?KeyDescrips@@3PAPADA	; KeyDescrips
	mov	ecx, DWORD PTR [eax+edx*4]
	push	ecx
	lea	edx, DWORD PTR _secondMod$2[ebp]
	push	edx
	mov	eax, DWORD PTR _Map$[ebp]
	mov	ecx, DWORD PTR [eax+20]
	mov	edx, DWORD PTR ?KeyDescrips@@3PAPADA	; KeyDescrips
	mov	eax, DWORD PTR [edx+ecx*4]
	push	eax
	lea	ecx, DWORD PTR _firstMod$1[ebp]
	push	ecx
	push	OFFSET ??_C@_0M@LLNEAKEK@?$CFs?$CFs?5?3?5?$CFs?$CFs?$AA@
	lea	edx, DWORD PTR _totalDescrip$3[ebp]
	push	edx
	call	_sprintf
	add	esp, 24					; 00000018H

; 2705 : 		}
; 2706 : 		else

	jmp	SHORT $LN1@UpdateKeyM
$LN2@UpdateKeyM:

; 2707 : 		{
; 2708 : 			DoShiftStates(totalDescrip,Map.mod2);

	mov	eax, DWORD PTR _Map$[ebp]
	mov	ecx, DWORD PTR [eax+16]
	push	ecx
	lea	edx, DWORD PTR _totalDescrip$3[ebp]
	push	edx
	call	?DoShiftStates@@YAXPADH@Z		; DoShiftStates
	add	esp, 8

; 2709 : 			strcat(totalDescrip,KeyDescrips[Map.key2]);

	mov	eax, DWORD PTR _Map$[ebp]
	mov	ecx, DWORD PTR [eax+12]
	mov	edx, DWORD PTR ?KeyDescrips@@3PAPADA	; KeyDescrips
	mov	eax, DWORD PTR [edx+ecx*4]
	push	eax
	lea	ecx, DWORD PTR _totalDescrip$3[ebp]
	push	ecx
	call	_strcat
	add	esp, 8
$LN1@UpdateKeyM:

; 2710 : 		}
; 2711 : 		UserFunctionTable.SetControl(Map.key2,flags,KEYCODES + count); //define this as KEYCODES

	mov	edx, DWORD PTR _count$[ebp]
	add	edx, 100000				; 000186a0H
	push	edx
	mov	eax, DWORD PTR _flags$[ebp]
	push	eax
	mov	ecx, DWORD PTR _Map$[ebp]
	mov	edx, DWORD PTR [ecx+12]
	push	edx
	mov	ecx, OFFSET ?UserFunctionTable@@3VInputFunctionHashTable@@A ; UserFunctionTable
	call	?SetControl@InputFunctionHashTable@@QAEHHHJ@Z ; InputFunctionHashTable::SetControl

; 2712 : 		button->SetText(0,totalDescrip);

	lea	eax, DWORD PTR _totalDescrip$3[ebp]
	push	eax
	push	0
	mov	ecx, DWORD PTR _button$[ebp]
	call	?SetText@C_Button@@QAEXFPBD@Z		; C_Button::SetText
$LN3@UpdateKeyM:

; 2713 : 	}			
; 2714 : 
; 2715 : 	SetButtonColor(button);

	mov	ecx, DWORD PTR _button$[ebp]
	push	ecx
	call	?SetButtonColor@@YAXPAVC_Button@@@Z	; SetButtonColor
	add	esp, 4

; 2716 : 	
; 2717 : }

	mov	ecx, DWORD PTR __$ArrayPad$[ebp]
	xor	ecx, ebp
	call	@__security_check_cookie@4
	mov	esp, ebp
	pop	ebp
	ret	0
?UpdateKeyMapButton@@YAXPAVC_Button@@AAUKeyMap@@H@Z ENDP ; UpdateKeyMapButton
_TEXT	ENDS
; Function compile flags: /Odtp
; File c:\users\zhitao li\documents\visual studio 2012\projects\freefalcon\ui\src\setup\controltab.cpp
_TEXT	SEGMENT
$T2 = -44						; size = 4
$T3 = -40						; size = 4
tv248 = -36						; size = 4
$T4 = -32						; size = 4
tv81 = -28						; size = 4
$T5 = -24						; size = 4
_retval$ = -20						; size = 4
_line$ = -16						; size = 4
__$EHRec$ = -12						; size = 12
_win$ = 8						; size = 4
_Hline$ = 12						; size = 4
_Vline$ = 16						; size = 4
_count$ = 20						; size = 4
?AddKeyMapLines@@YAHPAVC_Window@@PAVC_Line@@1H@Z PROC	; AddKeyMapLines

; 2626 : {

	push	ebp
	mov	ebp, esp
	push	-1
	push	__ehhandler$?AddKeyMapLines@@YAHPAVC_Window@@PAVC_Line@@1H@Z
	mov	eax, DWORD PTR fs:0
	push	eax
	sub	esp, 32					; 00000020H
	push	esi
	mov	eax, DWORD PTR ___security_cookie
	xor	eax, ebp
	push	eax
	lea	eax, DWORD PTR __$EHRec$[ebp]
	mov	DWORD PTR fs:0, eax

; 2627 : 	int retval = TRUE;

	mov	DWORD PTR _retval$[ebp], 1

; 2628 : 
; 2629 : 	if(!win)

	cmp	DWORD PTR _win$[ebp], 0
	jne	SHORT $LN7@AddKeyMapL

; 2630 : 		return FALSE;

	xor	eax, eax
	jmp	$LN8@AddKeyMapL
$LN7@AddKeyMapL:

; 2631 : 
; 2632 : 	C_Line *line;
; 2633 : 	line = (C_Line *)win->FindControl(HLINE + count);

	mov	eax, DWORD PTR _count$[ebp]
	add	eax, 120000				; 0001d4c0H
	push	eax
	mov	ecx, DWORD PTR _win$[ebp]
	call	?FindControl@C_Window@@QAEPAVC_Base@@J@Z ; C_Window::FindControl
	mov	DWORD PTR _line$[ebp], eax

; 2634 : 	if(!line)

	cmp	DWORD PTR _line$[ebp], 0
	jne	$LN6@AddKeyMapL

; 2635 : 	{
; 2636 : 		line = new C_Line;

	push	60					; 0000003cH
	call	??2@YAPAXI@Z				; operator new
	add	esp, 4
	mov	DWORD PTR $T5[ebp], eax
	mov	DWORD PTR __$EHRec$[ebp+8], 0
	cmp	DWORD PTR $T5[ebp], 0
	je	SHORT $LN10@AddKeyMapL
	mov	ecx, DWORD PTR $T5[ebp]
	call	??0C_Line@@QAE@XZ			; C_Line::C_Line
	mov	DWORD PTR tv81[ebp], eax
	jmp	SHORT $LN11@AddKeyMapL
$LN10@AddKeyMapL:
	mov	DWORD PTR tv81[ebp], 0
$LN11@AddKeyMapL:
	mov	ecx, DWORD PTR tv81[ebp]
	mov	DWORD PTR $T3[ebp], ecx
	mov	DWORD PTR __$EHRec$[ebp+8], -1
	mov	edx, DWORD PTR $T3[ebp]
	mov	DWORD PTR _line$[ebp], edx

; 2637 : 		if(line)

	cmp	DWORD PTR _line$[ebp], 0
	je	$LN5@AddKeyMapL

; 2638 : 		{
; 2639 : 			line->Setup(HLINE + count,Hline->GetType());

	mov	ecx, DWORD PTR _Hline$[ebp]
	call	?GetType@C_Base@@QAEFXZ			; C_Base::GetType
	movzx	eax, ax
	push	eax
	mov	ecx, DWORD PTR _count$[ebp]
	add	ecx, 120000				; 0001d4c0H
	push	ecx
	mov	ecx, DWORD PTR _line$[ebp]
	call	?Setup@C_Line@@QAEXJF@Z			; C_Line::Setup

; 2640 : 			line->SetColor(RGB(191,191,191));

	push	12566463				; 00bfbfbfH
	mov	ecx, DWORD PTR _line$[ebp]
	call	?SetColor@C_Line@@QAEXK@Z		; C_Line::SetColor

; 2641 : 			line->SetXYWH(Hline->GetX(),Hline->GetY() + Vline->GetH()*count,Hline->GetW(),Hline->GetH());

	mov	ecx, DWORD PTR _Hline$[ebp]
	call	?GetH@C_Base@@QAEJXZ			; C_Base::GetH
	push	eax
	mov	ecx, DWORD PTR _Hline$[ebp]
	call	?GetW@C_Base@@QAEJXZ			; C_Base::GetW
	push	eax
	mov	ecx, DWORD PTR _Hline$[ebp]
	call	?GetY@C_Base@@QAEJXZ			; C_Base::GetY
	mov	esi, eax
	mov	ecx, DWORD PTR _Vline$[ebp]
	call	?GetH@C_Base@@QAEJXZ			; C_Base::GetH
	imul	eax, DWORD PTR _count$[ebp]
	add	esi, eax
	push	esi
	mov	ecx, DWORD PTR _Hline$[ebp]
	call	?GetX@C_Base@@QAEJXZ			; C_Base::GetX
	push	eax
	mov	edx, DWORD PTR _line$[ebp]
	mov	eax, DWORD PTR [edx]
	mov	ecx, DWORD PTR _line$[ebp]
	mov	edx, DWORD PTR [eax+40]
	call	edx

; 2642 : 			line->SetFlags(Hline->GetFlags());

	mov	ecx, DWORD PTR _Hline$[ebp]
	call	?GetFlags@C_Base@@QAEJXZ		; C_Base::GetFlags
	push	eax
	mov	eax, DWORD PTR _line$[ebp]
	mov	edx, DWORD PTR [eax]
	mov	ecx, DWORD PTR _line$[ebp]
	mov	eax, DWORD PTR [edx+4]
	call	eax

; 2643 : 			line->SetClient(Hline->GetClient());

	mov	ecx, DWORD PTR _Hline$[ebp]
	call	?GetClient@C_Base@@QAEFXZ		; C_Base::GetClient
	movzx	ecx, ax
	push	ecx
	mov	ecx, DWORD PTR _line$[ebp]
	call	?SetClient@C_Base@@QAEXF@Z		; C_Base::SetClient

; 2644 : 			line->SetGroup(Hline->GetGroup());

	mov	ecx, DWORD PTR _Hline$[ebp]
	call	?GetGroup@C_Base@@QAEJXZ		; C_Base::GetGroup
	push	eax
	mov	ecx, DWORD PTR _line$[ebp]
	call	?SetGroup@C_Base@@QAEXJ@Z		; C_Base::SetGroup

; 2645 : 			line->SetCluster(Hline->GetCluster());

	mov	ecx, DWORD PTR _Hline$[ebp]
	call	?GetCluster@C_Base@@QAEJXZ		; C_Base::GetCluster
	push	eax
	mov	ecx, DWORD PTR _line$[ebp]
	call	?SetCluster@C_Base@@QAEXJ@Z		; C_Base::SetCluster

; 2646 : 
; 2647 : 			win->AddControl(line);

	mov	edx, DWORD PTR _line$[ebp]
	push	edx
	mov	ecx, DWORD PTR _win$[ebp]
	call	?AddControl@C_Window@@QAEXPAVC_Base@@@Z	; C_Window::AddControl

; 2648 : 			line->Refresh();

	mov	eax, DWORD PTR _line$[ebp]
	mov	edx, DWORD PTR [eax]
	mov	ecx, DWORD PTR _line$[ebp]
	mov	eax, DWORD PTR [edx+160]
	call	eax

; 2649 : 		}
; 2650 : 		else

	jmp	SHORT $LN6@AddKeyMapL
$LN5@AddKeyMapL:

; 2651 : 			retval = FALSE;

	mov	DWORD PTR _retval$[ebp], 0
$LN6@AddKeyMapL:

; 2652 : 	}
; 2653 : 
; 2654 : 	line = (C_Line *)win->FindControl(VLINE + count);

	mov	ecx, DWORD PTR _count$[ebp]
	add	ecx, 130000				; 0001fbd0H
	push	ecx
	mov	ecx, DWORD PTR _win$[ebp]
	call	?FindControl@C_Window@@QAEPAVC_Base@@J@Z ; C_Window::FindControl
	mov	DWORD PTR _line$[ebp], eax

; 2655 : 	if(!line)

	cmp	DWORD PTR _line$[ebp], 0
	jne	$LN3@AddKeyMapL

; 2656 : 	{
; 2657 : 		line = new C_Line;

	push	60					; 0000003cH
	call	??2@YAPAXI@Z				; operator new
	add	esp, 4
	mov	DWORD PTR $T4[ebp], eax
	mov	DWORD PTR __$EHRec$[ebp+8], 1
	cmp	DWORD PTR $T4[ebp], 0
	je	SHORT $LN12@AddKeyMapL
	mov	ecx, DWORD PTR $T4[ebp]
	call	??0C_Line@@QAE@XZ			; C_Line::C_Line
	mov	DWORD PTR tv248[ebp], eax
	jmp	SHORT $LN13@AddKeyMapL
$LN12@AddKeyMapL:
	mov	DWORD PTR tv248[ebp], 0
$LN13@AddKeyMapL:
	mov	edx, DWORD PTR tv248[ebp]
	mov	DWORD PTR $T2[ebp], edx
	mov	DWORD PTR __$EHRec$[ebp+8], -1
	mov	eax, DWORD PTR $T2[ebp]
	mov	DWORD PTR _line$[ebp], eax

; 2658 : 		if(line)

	cmp	DWORD PTR _line$[ebp], 0
	je	$LN2@AddKeyMapL

; 2659 : 		{
; 2660 : 			line->Setup(VLINE + count,Vline->GetType());

	mov	ecx, DWORD PTR _Vline$[ebp]
	call	?GetType@C_Base@@QAEFXZ			; C_Base::GetType
	movzx	ecx, ax
	push	ecx
	mov	edx, DWORD PTR _count$[ebp]
	add	edx, 130000				; 0001fbd0H
	push	edx
	mov	ecx, DWORD PTR _line$[ebp]
	call	?Setup@C_Line@@QAEXJF@Z			; C_Line::Setup

; 2661 : 			line->SetColor(RGB(191,191,191));

	push	12566463				; 00bfbfbfH
	mov	ecx, DWORD PTR _line$[ebp]
	call	?SetColor@C_Line@@QAEXK@Z		; C_Line::SetColor

; 2662 : 			line->SetXYWH(Vline->GetX(),Vline->GetY() + Vline->GetH()*count,Vline->GetW(),Vline->GetH());

	mov	ecx, DWORD PTR _Vline$[ebp]
	call	?GetH@C_Base@@QAEJXZ			; C_Base::GetH
	push	eax
	mov	ecx, DWORD PTR _Vline$[ebp]
	call	?GetW@C_Base@@QAEJXZ			; C_Base::GetW
	push	eax
	mov	ecx, DWORD PTR _Vline$[ebp]
	call	?GetY@C_Base@@QAEJXZ			; C_Base::GetY
	mov	esi, eax
	mov	ecx, DWORD PTR _Vline$[ebp]
	call	?GetH@C_Base@@QAEJXZ			; C_Base::GetH
	imul	eax, DWORD PTR _count$[ebp]
	add	esi, eax
	push	esi
	mov	ecx, DWORD PTR _Vline$[ebp]
	call	?GetX@C_Base@@QAEJXZ			; C_Base::GetX
	push	eax
	mov	eax, DWORD PTR _line$[ebp]
	mov	edx, DWORD PTR [eax]
	mov	ecx, DWORD PTR _line$[ebp]
	mov	eax, DWORD PTR [edx+40]
	call	eax

; 2663 : 			line->SetFlags(Vline->GetFlags());

	mov	ecx, DWORD PTR _Vline$[ebp]
	call	?GetFlags@C_Base@@QAEJXZ		; C_Base::GetFlags
	push	eax
	mov	ecx, DWORD PTR _line$[ebp]
	mov	edx, DWORD PTR [ecx]
	mov	ecx, DWORD PTR _line$[ebp]
	mov	eax, DWORD PTR [edx+4]
	call	eax

; 2664 : 			line->SetClient(Vline->GetClient());

	mov	ecx, DWORD PTR _Vline$[ebp]
	call	?GetClient@C_Base@@QAEFXZ		; C_Base::GetClient
	movzx	ecx, ax
	push	ecx
	mov	ecx, DWORD PTR _line$[ebp]
	call	?SetClient@C_Base@@QAEXF@Z		; C_Base::SetClient

; 2665 : 			line->SetGroup(Vline->GetGroup());

	mov	ecx, DWORD PTR _Vline$[ebp]
	call	?GetGroup@C_Base@@QAEJXZ		; C_Base::GetGroup
	push	eax
	mov	ecx, DWORD PTR _line$[ebp]
	call	?SetGroup@C_Base@@QAEXJ@Z		; C_Base::SetGroup

; 2666 : 			line->SetCluster(Vline->GetCluster());

	mov	ecx, DWORD PTR _Vline$[ebp]
	call	?GetCluster@C_Base@@QAEJXZ		; C_Base::GetCluster
	push	eax
	mov	ecx, DWORD PTR _line$[ebp]
	call	?SetCluster@C_Base@@QAEXJ@Z		; C_Base::SetCluster

; 2667 : 
; 2668 : 			win->AddControl(line);

	mov	edx, DWORD PTR _line$[ebp]
	push	edx
	mov	ecx, DWORD PTR _win$[ebp]
	call	?AddControl@C_Window@@QAEXPAVC_Base@@@Z	; C_Window::AddControl

; 2669 : 			line->Refresh();

	mov	eax, DWORD PTR _line$[ebp]
	mov	edx, DWORD PTR [eax]
	mov	ecx, DWORD PTR _line$[ebp]
	mov	eax, DWORD PTR [edx+160]
	call	eax

; 2670 : 		}
; 2671 : 		else 

	jmp	SHORT $LN3@AddKeyMapL
$LN2@AddKeyMapL:

; 2672 : 			retval = FALSE;

	mov	DWORD PTR _retval$[ebp], 0
$LN3@AddKeyMapL:

; 2673 : 	}
; 2674 : 	
; 2675 : 
; 2676 : 	return retval;

	mov	eax, DWORD PTR _retval$[ebp]
$LN8@AddKeyMapL:

; 2677 : }

	mov	ecx, DWORD PTR __$EHRec$[ebp]
	mov	DWORD PTR fs:0, ecx
	pop	ecx
	pop	esi
	mov	esp, ebp
	pop	ebp
	ret	0
_TEXT	ENDS
text$x	SEGMENT
__unwindfunclet$?AddKeyMapLines@@YAHPAVC_Window@@PAVC_Line@@1H@Z$0:
	mov	eax, DWORD PTR $T5[ebp]
	push	eax
	call	??3@YAXPAX@Z				; operator delete
	pop	ecx
	ret	0
__unwindfunclet$?AddKeyMapLines@@YAHPAVC_Window@@PAVC_Line@@1H@Z$1:
	mov	eax, DWORD PTR $T4[ebp]
	push	eax
	call	??3@YAXPAX@Z				; operator delete
	pop	ecx
	ret	0
__ehhandler$?AddKeyMapLines@@YAHPAVC_Window@@PAVC_Line@@1H@Z:
	mov	edx, DWORD PTR [esp+8]
	lea	eax, DWORD PTR [edx+12]
	mov	ecx, DWORD PTR [edx-40]
	xor	ecx, eax
	call	@__security_check_cookie@4
	mov	eax, OFFSET __ehfuncinfo$?AddKeyMapLines@@YAHPAVC_Window@@PAVC_Line@@1H@Z
	jmp	___CxxFrameHandler3
text$x	ENDS
?AddKeyMapLines@@YAHPAVC_Window@@PAVC_Line@@1H@Z ENDP	; AddKeyMapLines
; Function compile flags: /Odtp
; File c:\users\zhitao li\documents\visual studio 2012\projects\freefalcon\ui\src\setup\controltab.cpp
_TEXT	SEGMENT
_Map$ = 8						; size = 4
?AddUndisplayedKey@@YAHAAUKeyMap@@@Z PROC		; AddUndisplayedKey

; 2607 : {

	push	ebp
	mov	ebp, esp

; 2608 : 	if(NumUndispKeys < 300)

	cmp	DWORD PTR ?NumUndispKeys@@3HA, 300	; NumUndispKeys, 0000012cH
	jge	$LN1@AddUndispl

; 2609 : 	{
; 2610 : 		UndisplayedKeys[NumUndispKeys].func = Map.func;

	mov	eax, DWORD PTR ?NumUndispKeys@@3HA	; NumUndispKeys
	imul	eax, 292				; 00000124H
	mov	ecx, DWORD PTR _Map$[ebp]
	mov	edx, DWORD PTR [ecx]
	mov	DWORD PTR ?UndisplayedKeys@@3PAUKeyMap@@A[eax], edx

; 2611 : 		UndisplayedKeys[NumUndispKeys].buttonId = Map.buttonId;

	mov	eax, DWORD PTR ?NumUndispKeys@@3HA	; NumUndispKeys
	imul	eax, 292				; 00000124H
	mov	ecx, DWORD PTR _Map$[ebp]
	mov	edx, DWORD PTR [ecx+4]
	mov	DWORD PTR ?UndisplayedKeys@@3PAUKeyMap@@A[eax+4], edx

; 2612 : 		UndisplayedKeys[NumUndispKeys].mouseSide = Map.mouseSide;

	mov	eax, DWORD PTR ?NumUndispKeys@@3HA	; NumUndispKeys
	imul	eax, 292				; 00000124H
	mov	ecx, DWORD PTR _Map$[ebp]
	mov	edx, DWORD PTR [ecx+8]
	mov	DWORD PTR ?UndisplayedKeys@@3PAUKeyMap@@A[eax+8], edx

; 2613 : 		UndisplayedKeys[NumUndispKeys].key2 = Map.key2;

	mov	eax, DWORD PTR ?NumUndispKeys@@3HA	; NumUndispKeys
	imul	eax, 292				; 00000124H
	mov	ecx, DWORD PTR _Map$[ebp]
	mov	edx, DWORD PTR [ecx+12]
	mov	DWORD PTR ?UndisplayedKeys@@3PAUKeyMap@@A[eax+12], edx

; 2614 : 		UndisplayedKeys[NumUndispKeys].mod2 = Map.mod2;

	mov	eax, DWORD PTR ?NumUndispKeys@@3HA	; NumUndispKeys
	imul	eax, 292				; 00000124H
	mov	ecx, DWORD PTR _Map$[ebp]
	mov	edx, DWORD PTR [ecx+16]
	mov	DWORD PTR ?UndisplayedKeys@@3PAUKeyMap@@A[eax+16], edx

; 2615 : 		UndisplayedKeys[NumUndispKeys].key1= Map.key1;

	mov	eax, DWORD PTR ?NumUndispKeys@@3HA	; NumUndispKeys
	imul	eax, 292				; 00000124H
	mov	ecx, DWORD PTR _Map$[ebp]
	mov	edx, DWORD PTR [ecx+20]
	mov	DWORD PTR ?UndisplayedKeys@@3PAUKeyMap@@A[eax+20], edx

; 2616 : 		UndisplayedKeys[NumUndispKeys].mod1= Map.mod1;

	mov	eax, DWORD PTR ?NumUndispKeys@@3HA	; NumUndispKeys
	imul	eax, 292				; 00000124H
	mov	ecx, DWORD PTR _Map$[ebp]
	mov	edx, DWORD PTR [ecx+24]
	mov	DWORD PTR ?UndisplayedKeys@@3PAUKeyMap@@A[eax+24], edx

; 2617 : 		UndisplayedKeys[NumUndispKeys].editable = Map.editable;

	mov	eax, DWORD PTR ?NumUndispKeys@@3HA	; NumUndispKeys
	imul	eax, 292				; 00000124H
	mov	ecx, DWORD PTR _Map$[ebp]
	mov	edx, DWORD PTR [ecx+28]
	mov	DWORD PTR ?UndisplayedKeys@@3PAUKeyMap@@A[eax+28], edx

; 2618 : 		strcpy(UndisplayedKeys[NumUndispKeys].descrip, Map.descrip);

	mov	eax, DWORD PTR _Map$[ebp]
	add	eax, 32					; 00000020H
	push	eax
	mov	ecx, DWORD PTR ?NumUndispKeys@@3HA	; NumUndispKeys
	imul	ecx, 292				; 00000124H
	add	ecx, OFFSET ?UndisplayedKeys@@3PAUKeyMap@@A+32
	push	ecx
	call	_strcpy
	add	esp, 8

; 2619 : 		NumUndispKeys++;

	mov	edx, DWORD PTR ?NumUndispKeys@@3HA	; NumUndispKeys
	add	edx, 1
	mov	DWORD PTR ?NumUndispKeys@@3HA, edx	; NumUndispKeys

; 2620 : 		return TRUE;

	mov	eax, 1
	jmp	SHORT $LN2@AddUndispl
$LN1@AddUndispl:

; 2621 : 	}
; 2622 : 	return FALSE;

	xor	eax, eax
$LN2@AddUndispl:

; 2623 : }

	pop	ebp
	ret	0
?AddUndisplayedKey@@YAHAAUKeyMap@@@Z ENDP		; AddUndisplayedKey
_TEXT	ENDS
; Function compile flags: /Odtp
; File c:\users\zhitao li\documents\visual studio 2012\projects\freefalcon\ui\src\setup\controltab.cpp
_TEXT	SEGMENT
_button$1 = -4						; size = 4
_ID$ = 8						; size = 4
_hittype$ = 12						; size = 2
_control$ = 16						; size = 4
?KeycodeCB@@YAXJFPAVC_Base@@@Z PROC			; KeycodeCB

; 2571 : {

	push	ebp
	mov	ebp, esp
	push	ecx

; 2572 : 	if(hittype != C_TYPE_LMOUSEUP)

	movsx	eax, WORD PTR _hittype$[ebp]
	cmp	eax, 52					; 00000034H
	je	SHORT $LN5@KeycodeCB

; 2573 : 		return;

	jmp	$LN6@KeycodeCB
$LN5@KeycodeCB:

; 2574 : 
; 2575 : 	if(KeyVar.EditKey)

	cmp	DWORD PTR ?KeyVar@@3UKeyVars@@A, 0
	je	SHORT $LN4@KeycodeCB

; 2576 : 	{
; 2577 : 		C_Button *button;
; 2578 : 		
; 2579 : 		button = (C_Button *)control->Parent_->FindControl(KeyVar.CurrControl);

	mov	ecx, DWORD PTR ?KeyVar@@3UKeyVars@@A+12
	push	ecx
	mov	edx, DWORD PTR _control$[ebp]
	mov	ecx, DWORD PTR [edx+48]
	call	?FindControl@C_Window@@QAEPAVC_Base@@J@Z ; C_Window::FindControl
	mov	DWORD PTR _button$1[ebp], eax

; 2580 : 		
; 2581 : 		SetButtonColor(button);

	mov	eax, DWORD PTR _button$1[ebp]
	push	eax
	call	?SetButtonColor@@YAXPAVC_Button@@@Z	; SetButtonColor
	add	esp, 4
$LN4@KeycodeCB:

; 2582 : 	}
; 2583 : 
; 2584 : 	if(KeyVar.CurrControl == ID && KeyVar.EditKey)

	mov	ecx, DWORD PTR ?KeyVar@@3UKeyVars@@A+12
	cmp	ecx, DWORD PTR _ID$[ebp]
	jne	SHORT $LN3@KeycodeCB
	cmp	DWORD PTR ?KeyVar@@3UKeyVars@@A, 0
	je	SHORT $LN3@KeycodeCB

; 2585 : 	{
; 2586 : 		KeyVar.EditKey = FALSE;

	mov	DWORD PTR ?KeyVar@@3UKeyVars@@A, 0

; 2587 : 		return;

	jmp	SHORT $LN6@KeycodeCB
$LN3@KeycodeCB:

; 2588 : 	}
; 2589 : 
; 2590 : 	if( control->GetUserNumber(EDITABLE) < 1 )

	push	4
	mov	ecx, DWORD PTR _control$[ebp]
	call	?GetUserNumber@C_Base@@QAEJJ@Z		; C_Base::GetUserNumber
	cmp	eax, 1
	jge	SHORT $LN2@KeycodeCB

; 2591 : 	{
; 2592 : 		KeyVar.CurrControl = ID;

	mov	edx, DWORD PTR _ID$[ebp]
	mov	DWORD PTR ?KeyVar@@3UKeyVars@@A+12, edx

; 2593 : 		KeyVar.EditKey = FALSE;

	mov	DWORD PTR ?KeyVar@@3UKeyVars@@A, 0

; 2594 : 	}
; 2595 : 	else 

	jmp	SHORT $LN6@KeycodeCB
$LN2@KeycodeCB:

; 2596 : 	{
; 2597 : 		KeyVar.CurrControl = ID;

	mov	eax, DWORD PTR _ID$[ebp]
	mov	DWORD PTR ?KeyVar@@3UKeyVars@@A+12, eax

; 2598 : 		((C_Button *)control)->SetFgColor(0,RGB(0,255,255));

	push	16776960				; 00ffff00H
	push	0
	mov	ecx, DWORD PTR _control$[ebp]
	call	?SetFgColor@C_Button@@QAEXFK@Z		; C_Button::SetFgColor

; 2599 : 		((C_Button *)control)->Refresh();

	mov	ecx, DWORD PTR _control$[ebp]
	mov	edx, DWORD PTR [ecx]
	mov	ecx, DWORD PTR _control$[ebp]
	mov	eax, DWORD PTR [edx+160]
	call	eax

; 2600 : 		KeyVar.EditKey = TRUE;

	mov	DWORD PTR ?KeyVar@@3UKeyVars@@A, 1
$LN6@KeycodeCB:

; 2601 : 	}
; 2602 : 	
; 2603 : 	return;
; 2604 : }

	mov	esp, ebp
	pop	ebp
	ret	0
?KeycodeCB@@YAXJFPAVC_Base@@@Z ENDP			; KeycodeCB
_TEXT	ENDS
; Function compile flags: /Odtp
; File c:\users\zhitao li\documents\visual studio 2012\projects\freefalcon\ui\src\setup\controltab.cpp
_TEXT	SEGMENT
_pmouse$1 = -1532					; size = 4
_pbutton$2 = -1528					; size = 4
_pmouse$3 = -1524					; size = 4
_pbutton$4 = -1520					; size = 4
_function$5 = -1516					; size = 4
_theFunc$6 = -1512					; size = 4
_temp$7 = -1508						; size = 4
_btn$8 = -1504						; size = 4
$T9 = -1500						; size = 4
_oldFunc$10 = -1496					; size = 4
_CommandCombo$11 = -1492				; size = 4
_ID$12 = -1488						; size = 4
_descrip$13 = -1484					; size = 4
_ID$14 = -1480						; size = 4
_temp$15 = -1476					; size = 4
_temp$16 = -1472					; size = 4
_flags$17 = -1468					; size = 4
_temp$18 = -1464					; size = 4
_win$19 = -1460						; size = 4
_button$20 = -1456					; size = 4
_text$21 = -1452					; size = 4
$T22 = -1448						; size = 16
$T23 = -1432						; size = 16
_Client$24 = -1416					; size = 16
_Client$25 = -1400					; size = 16
_keydescrip$26 = -1384					; size = 260
_firstKey$27 = -1124					; size = 260
_firstKey$28 = -864					; size = 260
_totalDescrip$29 = -604					; size = 260
_totalDescrip$30 = -344					; size = 260
_mods$31 = -84						; size = 40
_mods$32 = -44						; size = 40
__$ArrayPad$ = -4					; size = 4
_DKScanCode$ = 8					; size = 1
___formal$ = 12						; size = 1
_ShiftStates$ = 16					; size = 1
___formal$ = 20						; size = 4
?KeystrokeCB@@YAHEEEJ@Z PROC				; KeystrokeCB

; 2299 : {

	push	ebp
	mov	ebp, esp
	sub	esp, 1532				; 000005fcH
	mov	eax, DWORD PTR ___security_cookie
	xor	eax, ebp
	mov	DWORD PTR __$ArrayPad$[ebp], eax
	push	esi

; 2300 : 	if(DKScanCode == DIK_ESCAPE)

	movzx	eax, BYTE PTR _DKScanCode$[ebp]
	cmp	eax, 1
	jne	SHORT $LN36@KeystrokeC

; 2301 : 		return FALSE; 

	xor	eax, eax
	jmp	$LN38@KeystrokeC
$LN36@KeystrokeC:

; 2302 : 
; 2303 : 	if(Cluster == 8004)

	cmp	DWORD PTR ?Cluster@@3JA, 8004		; Cluster, 00001f44H
	jne	$LN35@KeystrokeC

; 2304 : 	{
; 2305 : 		if(	DKScanCode == DIK_LSHIFT	|| DKScanCode == DIK_RSHIFT		|| \
; 2306 : 			DKScanCode == DIK_LCONTROL	|| DKScanCode == DIK_RCONTROL	|| \
; 2307 : 			DKScanCode == DIK_LMENU		|| DKScanCode == DIK_RMENU		|| \
; 2308 : 			DKScanCode == 0x45)

	movzx	ecx, BYTE PTR _DKScanCode$[ebp]
	cmp	ecx, 42					; 0000002aH
	je	SHORT $LN33@KeystrokeC
	movzx	edx, BYTE PTR _DKScanCode$[ebp]
	cmp	edx, 54					; 00000036H
	je	SHORT $LN33@KeystrokeC
	movzx	eax, BYTE PTR _DKScanCode$[ebp]
	cmp	eax, 29					; 0000001dH
	je	SHORT $LN33@KeystrokeC
	movzx	ecx, BYTE PTR _DKScanCode$[ebp]
	cmp	ecx, 157				; 0000009dH
	je	SHORT $LN33@KeystrokeC
	movzx	edx, BYTE PTR _DKScanCode$[ebp]
	cmp	edx, 56					; 00000038H
	je	SHORT $LN33@KeystrokeC
	movzx	eax, BYTE PTR _DKScanCode$[ebp]
	cmp	eax, 184				; 000000b8H
	je	SHORT $LN33@KeystrokeC
	movzx	ecx, BYTE PTR _DKScanCode$[ebp]
	cmp	ecx, 69					; 00000045H
	jne	SHORT $LN34@KeystrokeC
$LN33@KeystrokeC:

; 2309 : 				return TRUE;

	mov	eax, 1
	jmp	$LN38@KeystrokeC
$LN34@KeystrokeC:

; 2310 : 
; 2311 : 		if( GetAsyncKeyState(VK_SHIFT) & 0x8001 )

	push	16					; 00000010H
	call	DWORD PTR __imp__GetAsyncKeyState@4
	movsx	edx, ax
	and	edx, 32769				; 00008001H
	je	SHORT $LN32@KeystrokeC

; 2312 : 			ShiftStates |= _SHIFT_DOWN_;

	movzx	eax, BYTE PTR _ShiftStates$[ebp]
	or	eax, 1
	mov	BYTE PTR _ShiftStates$[ebp], al

; 2313 : 		else

	jmp	SHORT $LN31@KeystrokeC
$LN32@KeystrokeC:

; 2314 : 			ShiftStates &= ~_SHIFT_DOWN_;		

	movzx	ecx, BYTE PTR _ShiftStates$[ebp]
	and	ecx, -2					; fffffffeH
	mov	BYTE PTR _ShiftStates$[ebp], cl
$LN31@KeystrokeC:

; 2315 : 		
; 2316 : 		//int flags = ShiftStates;
; 2317 : 		int flags = ShiftStates + (KeyVar.CommandsKeyCombo << SECOND_KEY_SHIFT) + (KeyVar.CommandsKeyComboMod << SECOND_KEY_MOD_SHIFT);

	movzx	edx, BYTE PTR _ShiftStates$[ebp]
	mov	eax, DWORD PTR ?KeyVar@@3UKeyVars@@A+4
	shl	eax, 8
	add	edx, eax
	mov	ecx, DWORD PTR ?KeyVar@@3UKeyVars@@A+8
	shl	ecx, 16					; 00000010H
	add	edx, ecx
	mov	DWORD PTR _flags$17[ebp], edx

; 2318 : 
; 2319 : 		C_Window *win;
; 2320 : 		int CommandCombo = 0;

	mov	DWORD PTR _CommandCombo$11[ebp], 0

; 2321 : 
; 2322 : 		win = gMainHandler->FindWindow(SETUP_WIN);		

	push	70002					; 00011172H
	mov	ecx, DWORD PTR ?gMainHandler@@3PAVC_Handler@@A ; gMainHandler
	call	?FindWindowA@C_Handler@@QAEPAVC_Window@@J@Z ; C_Handler::FindWindowA
	mov	DWORD PTR _win$19[ebp], eax

; 2323 : 
; 2324 : 		if(KeyVar.EditKey)

	cmp	DWORD PTR ?KeyVar@@3UKeyVars@@A, 0
	je	$LN30@KeystrokeC

; 2325 : 		{
; 2326 : 			C_Button *button;
; 2327 : 			long ID;
; 2328 : 
; 2329 : 			button = (C_Button *)win->FindControl(KeyVar.CurrControl);

	mov	edx, DWORD PTR ?KeyVar@@3UKeyVars@@A+12
	push	edx
	mov	ecx, DWORD PTR _win$19[ebp]
	call	?FindControl@C_Window@@QAEPAVC_Base@@J@Z ; C_Window::FindControl
	mov	DWORD PTR _button$20[ebp], eax

; 2330 : 			flags = ShiftStates + (button->GetUserNumber(FLAGS) & SECOND_KEY_MASK);

	movzx	esi, BYTE PTR _ShiftStates$[ebp]
	push	1
	mov	ecx, DWORD PTR _button$20[ebp]
	call	?GetUserNumber@C_Base@@QAEJJ@Z		; C_Base::GetUserNumber
	and	eax, 16776960				; 00ffff00H
	add	esi, eax
	mov	DWORD PTR _flags$17[ebp], esi

; 2331 : 			KeyVar.CommandsKeyCombo = (button->GetUserNumber(FLAGS) & KEY1_MASK) >> SECOND_KEY_SHIFT;

	push	1
	mov	ecx, DWORD PTR _button$20[ebp]
	call	?GetUserNumber@C_Base@@QAEJJ@Z		; C_Base::GetUserNumber
	and	eax, 65280				; 0000ff00H
	sar	eax, 8
	mov	DWORD PTR ?KeyVar@@3UKeyVars@@A+4, eax

; 2332 : 			KeyVar.CommandsKeyComboMod = (button->GetUserNumber(FLAGS) & MOD1_MASK) >> SECOND_KEY_MOD_SHIFT;

	push	1
	mov	ecx, DWORD PTR _button$20[ebp]
	call	?GetUserNumber@C_Base@@QAEJJ@Z		; C_Base::GetUserNumber
	and	eax, 16711680				; 00ff0000H
	sar	eax, 16					; 00000010H
	mov	DWORD PTR ?KeyVar@@3UKeyVars@@A+8, eax

; 2333 : 
; 2334 : 			//here is where we need to change the key combo for the function
; 2335 : 			if(DKScanCode != button->GetUserNumber(KEY2) || flags != button->GetUserNumber(FLAGS))

	movzx	esi, BYTE PTR _DKScanCode$[ebp]
	push	0
	mov	ecx, DWORD PTR _button$20[ebp]
	call	?GetUserNumber@C_Base@@QAEJJ@Z		; C_Base::GetUserNumber
	cmp	esi, eax
	jne	SHORT $LN28@KeystrokeC
	push	1
	mov	ecx, DWORD PTR _button$20[ebp]
	call	?GetUserNumber@C_Base@@QAEJJ@Z		; C_Base::GetUserNumber
	cmp	DWORD PTR _flags$17[ebp], eax
	je	$LN29@KeystrokeC
$LN28@KeystrokeC:

; 2336 : 			{
; 2337 : 				char keydescrip[_MAX_PATH];
; 2338 : 				keydescrip[0] = 0;

	mov	eax, 1
	imul	eax, 0
	mov	DWORD PTR $T9[ebp], eax
	cmp	DWORD PTR $T9[ebp], 260			; 00000104H
	jae	SHORT $LN39@KeystrokeC
	jmp	SHORT $LN40@KeystrokeC
$LN39@KeystrokeC:
	call	___report_rangecheckfailure
$LN40@KeystrokeC:
	mov	ecx, DWORD PTR $T9[ebp]
	mov	BYTE PTR _keydescrip$26[ebp+ecx], 0

; 2339 : 				int pmouse, pbutton;
; 2340 : 				InputFunctionType theFunc;
; 2341 : 				InputFunctionType oldFunc;
; 2342 : 				theFunc = (InputFunctionType)button->GetUserPtr(FUNCTION_PTR);

	push	5
	mov	ecx, DWORD PTR _button$20[ebp]
	call	?GetUserPtr@C_Base@@QAEPAXJ@Z		; C_Base::GetUserPtr
	mov	DWORD PTR _theFunc$6[ebp], eax

; 2343 : 				//is the key combo already used?
; 2344 : 				if(oldFunc = UserFunctionTable.GetFunction(DKScanCode,flags,&pmouse,&pbutton))

	lea	edx, DWORD PTR _pbutton$2[ebp]
	push	edx
	lea	eax, DWORD PTR _pmouse$1[ebp]
	push	eax
	mov	ecx, DWORD PTR _flags$17[ebp]
	push	ecx
	movzx	edx, BYTE PTR _DKScanCode$[ebp]
	push	edx
	mov	ecx, OFFSET ?UserFunctionTable@@3VInputFunctionHashTable@@A ; UserFunctionTable
	call	?GetFunction@InputFunctionHashTable@@QAEP6AXKHPAX@ZHHPAH1@Z ; InputFunctionHashTable::GetFunction
	mov	DWORD PTR _oldFunc$10[ebp], eax
	cmp	DWORD PTR _oldFunc$10[ebp], 0
	je	$LN27@KeystrokeC

; 2345 : 				{
; 2346 : 					C_Button *temp;
; 2347 : 
; 2348 : 					ID = UserFunctionTable.GetControl(DKScanCode,flags);

	mov	eax, DWORD PTR _flags$17[ebp]
	push	eax
	movzx	ecx, BYTE PTR _DKScanCode$[ebp]
	push	ecx
	mov	ecx, OFFSET ?UserFunctionTable@@3VInputFunctionHashTable@@A ; UserFunctionTable
	call	?GetControl@InputFunctionHashTable@@QAEJHH@Z ; InputFunctionHashTable::GetControl
	mov	DWORD PTR _ID$12[ebp], eax

; 2349 : 					KeyVar.OldControl = ID;

	mov	edx, DWORD PTR _ID$12[ebp]
	mov	DWORD PTR ?KeyVar@@3UKeyVars@@A+16, edx

; 2350 : 					
; 2351 : 
; 2352 : 					//there is a function mapped but it's not visible
; 2353 : 					//don't allow user to remap this key combo
; 2354 : 					if(!ID && oldFunc)

	cmp	DWORD PTR _ID$12[ebp], 0
	jne	SHORT $LN26@KeystrokeC
	cmp	DWORD PTR _oldFunc$10[ebp], 0
	je	SHORT $LN26@KeystrokeC

; 2355 : 						return TRUE;

	mov	eax, 1
	jmp	$LN38@KeystrokeC
$LN26@KeystrokeC:

; 2356 : 
; 2357 : 					
; 2358 : 					temp = (C_Button *)win->FindControl(ID);

	mov	eax, DWORD PTR _ID$12[ebp]
	push	eax
	mov	ecx, DWORD PTR _win$19[ebp]
	call	?FindControl@C_Window@@QAEPAVC_Base@@J@Z ; C_Window::FindControl
	mov	DWORD PTR _temp$7[ebp], eax

; 2359 : 					if( temp && (temp->GetUserNumber(EDITABLE) < 1) )

	cmp	DWORD PTR _temp$7[ebp], 0
	je	SHORT $LN25@KeystrokeC
	push	4
	mov	ecx, DWORD PTR _temp$7[ebp]
	call	?GetUserNumber@C_Base@@QAEJJ@Z		; C_Base::GetUserNumber
	cmp	eax, 1
	jge	SHORT $LN25@KeystrokeC

; 2360 : 					{
; 2361 : 						//this keycombo is not remappable
; 2362 : 						return TRUE;

	mov	eax, 1
	jmp	$LN38@KeystrokeC
$LN25@KeystrokeC:

; 2363 : 					}
; 2364 : 					//remove old function from place user wants to use
; 2365 : 					UserFunctionTable.RemoveFunction(DKScanCode,flags);

	mov	ecx, DWORD PTR _flags$17[ebp]
	push	ecx
	movzx	edx, BYTE PTR _DKScanCode$[ebp]
	push	edx
	mov	ecx, OFFSET ?UserFunctionTable@@3VInputFunctionHashTable@@A ; UserFunctionTable
	call	?RemoveFunction@InputFunctionHashTable@@QAEXHH@Z ; InputFunctionHashTable::RemoveFunction
$LN27@KeystrokeC:

; 2366 : 				}
; 2367 : 					
; 2368 : 				//remove function that's being remapped from it's old place
; 2369 : 				UserFunctionTable.RemoveFunction(button->GetUserNumber(KEY2),button->GetUserNumber(FLAGS));

	push	1
	mov	ecx, DWORD PTR _button$20[ebp]
	call	?GetUserNumber@C_Base@@QAEJJ@Z		; C_Base::GetUserNumber
	push	eax
	push	0
	mov	ecx, DWORD PTR _button$20[ebp]
	call	?GetUserNumber@C_Base@@QAEJJ@Z		; C_Base::GetUserNumber
	push	eax
	mov	ecx, OFFSET ?UserFunctionTable@@3VInputFunctionHashTable@@A ; UserFunctionTable
	call	?RemoveFunction@InputFunctionHashTable@@QAEXHH@Z ; InputFunctionHashTable::RemoveFunction

; 2370 : 				
; 2371 : 				//add function into it's new place
; 2372 : 				UserFunctionTable.AddFunction(DKScanCode,flags,button->GetUserNumber(BUTTON_ID),button->GetUserNumber(MOUSE_SIDE), theFunc);

	mov	eax, DWORD PTR _theFunc$6[ebp]
	push	eax
	push	3
	mov	ecx, DWORD PTR _button$20[ebp]
	call	?GetUserNumber@C_Base@@QAEJJ@Z		; C_Base::GetUserNumber
	push	eax
	push	2
	mov	ecx, DWORD PTR _button$20[ebp]
	call	?GetUserNumber@C_Base@@QAEJJ@Z		; C_Base::GetUserNumber
	push	eax
	mov	ecx, DWORD PTR _flags$17[ebp]
	push	ecx
	movzx	edx, BYTE PTR _DKScanCode$[ebp]
	push	edx
	mov	ecx, OFFSET ?UserFunctionTable@@3VInputFunctionHashTable@@A ; UserFunctionTable
	call	?AddFunction@InputFunctionHashTable@@QAEXHHHHP6AXKHPAX@Z@Z ; InputFunctionHashTable::AddFunction

; 2373 : 				UserFunctionTable.SetControl(DKScanCode,flags,KeyVar.CurrControl);

	mov	eax, DWORD PTR ?KeyVar@@3UKeyVars@@A+12
	push	eax
	mov	ecx, DWORD PTR _flags$17[ebp]
	push	ecx
	movzx	edx, BYTE PTR _DKScanCode$[ebp]
	push	edx
	mov	ecx, OFFSET ?UserFunctionTable@@3VInputFunctionHashTable@@A ; UserFunctionTable
	call	?SetControl@InputFunctionHashTable@@QAEHHHJ@Z ; InputFunctionHashTable::SetControl

; 2374 : 
; 2375 : 				//mark that the keymapping needs to be saved
; 2376 : 				KeyVar.Modified = TRUE;

	mov	DWORD PTR ?KeyVar@@3UKeyVars@@A+20, 1

; 2377 : 
; 2378 : 				//setup button with new values
; 2379 : 				button->SetUserNumber(KEY2,DKScanCode);

	movzx	eax, BYTE PTR _DKScanCode$[ebp]
	push	eax
	push	0
	mov	ecx, DWORD PTR _button$20[ebp]
	call	?SetUserNumber@C_Base@@QAEXJJ@Z		; C_Base::SetUserNumber

; 2380 : 				button->SetUserNumber(FLAGS,flags);

	mov	ecx, DWORD PTR _flags$17[ebp]
	push	ecx
	push	1
	mov	ecx, DWORD PTR _button$20[ebp]
	call	?SetUserNumber@C_Base@@QAEXJJ@Z		; C_Base::SetUserNumber

; 2381 : 				
; 2382 : 				char mods[40] = {0};

	mov	BYTE PTR _mods$31[ebp], 0
	push	39					; 00000027H
	push	0
	lea	edx, DWORD PTR _mods$31[ebp+1]
	push	edx
	call	_memset
	add	esp, 12					; 0000000cH

; 2383 : 				_TCHAR firstKey[MAX_PATH] = {0};

	mov	BYTE PTR _firstKey$28[ebp], 0
	push	259					; 00000103H
	push	0
	lea	eax, DWORD PTR _firstKey$28[ebp+1]
	push	eax
	call	_memset
	add	esp, 12					; 0000000cH

; 2384 : 				_TCHAR totalDescrip[MAX_PATH] = {0};

	mov	BYTE PTR _totalDescrip$29[ebp], 0
	push	259					; 00000103H
	push	0
	lea	ecx, DWORD PTR _totalDescrip$29[ebp+1]
	push	ecx
	call	_memset
	add	esp, 12					; 0000000cH

; 2385 : 
; 2386 : 				// JPO crash log detection.
; 2387 : 				ShiAssert (DKScanCode >= 0 && DKScanCode < 256);
; 2388 : 				ShiAssert (FALSE == IsBadStringPtr(KeyDescrips[DKScanCode], MAX_PATH));
; 2389 : 				if(KeyVar.CommandsKeyCombo > 0)

	cmp	DWORD PTR ?KeyVar@@3UKeyVars@@A+4, 0
	jle	SHORT $LN24@KeystrokeC

; 2390 : 				{
; 2391 : 					DoShiftStates(firstKey,KeyVar.CommandsKeyComboMod);

	mov	edx, DWORD PTR ?KeyVar@@3UKeyVars@@A+8
	push	edx
	lea	eax, DWORD PTR _firstKey$28[ebp]
	push	eax
	call	?DoShiftStates@@YAXPADH@Z		; DoShiftStates
	add	esp, 8

; 2392 : 					DoShiftStates(mods,ShiftStates);

	movzx	ecx, BYTE PTR _ShiftStates$[ebp]
	push	ecx
	lea	edx, DWORD PTR _mods$31[ebp]
	push	edx
	call	?DoShiftStates@@YAXPADH@Z		; DoShiftStates
	add	esp, 8

; 2393 : 					
; 2394 : 					if (KeyDescrips[DKScanCode])

	movzx	eax, BYTE PTR _DKScanCode$[ebp]
	mov	ecx, DWORD PTR ?KeyDescrips@@3PAPADA	; KeyDescrips
	cmp	DWORD PTR [ecx+eax*4], 0
	je	SHORT $LN23@KeystrokeC

; 2395 : 						_stprintf(totalDescrip,"%s%s : %s%s",firstKey,KeyDescrips[KeyVar.CommandsKeyCombo],mods,KeyDescrips[DKScanCode]);

	movzx	edx, BYTE PTR _DKScanCode$[ebp]
	mov	eax, DWORD PTR ?KeyDescrips@@3PAPADA	; KeyDescrips
	mov	ecx, DWORD PTR [eax+edx*4]
	push	ecx
	lea	edx, DWORD PTR _mods$31[ebp]
	push	edx
	mov	eax, DWORD PTR ?KeyVar@@3UKeyVars@@A+4
	mov	ecx, DWORD PTR ?KeyDescrips@@3PAPADA	; KeyDescrips
	mov	edx, DWORD PTR [ecx+eax*4]
	push	edx
	lea	eax, DWORD PTR _firstKey$28[ebp]
	push	eax
	push	OFFSET ??_C@_0M@LLNEAKEK@?$CFs?$CFs?5?3?5?$CFs?$CFs?$AA@
	lea	ecx, DWORD PTR _totalDescrip$29[ebp]
	push	ecx
	call	_sprintf
	add	esp, 24					; 00000018H
$LN23@KeystrokeC:

; 2396 : 				}
; 2397 : 				else

	jmp	SHORT $LN22@KeystrokeC
$LN24@KeystrokeC:

; 2398 : 				{
; 2399 : 					DoShiftStates(totalDescrip,ShiftStates);

	movzx	edx, BYTE PTR _ShiftStates$[ebp]
	push	edx
	lea	eax, DWORD PTR _totalDescrip$29[ebp]
	push	eax
	call	?DoShiftStates@@YAXPADH@Z		; DoShiftStates
	add	esp, 8

; 2400 : 
; 2401 : 					if (KeyDescrips[DKScanCode])

	movzx	ecx, BYTE PTR _DKScanCode$[ebp]
	mov	edx, DWORD PTR ?KeyDescrips@@3PAPADA	; KeyDescrips
	cmp	DWORD PTR [edx+ecx*4], 0
	je	SHORT $LN22@KeystrokeC

; 2402 : 						strcat(totalDescrip,KeyDescrips[DKScanCode]);

	movzx	eax, BYTE PTR _DKScanCode$[ebp]
	mov	ecx, DWORD PTR ?KeyDescrips@@3PAPADA	; KeyDescrips
	mov	edx, DWORD PTR [ecx+eax*4]
	push	edx
	lea	eax, DWORD PTR _totalDescrip$29[ebp]
	push	eax
	call	_strcat
	add	esp, 8
$LN22@KeystrokeC:

; 2403 : 				}
; 2404 : 
; 2405 : 				//DoShiftStates(keydescrip,ShiftStates);
; 2406 : 				//strcat(keydescrip,KeyDescrips[DKScanCode]);
; 2407 : 				
; 2408 : 				button->Refresh();

	mov	ecx, DWORD PTR _button$20[ebp]
	mov	edx, DWORD PTR [ecx]
	mov	ecx, DWORD PTR _button$20[ebp]
	mov	eax, DWORD PTR [edx+160]
	call	eax

; 2409 : 				button->SetText(0,totalDescrip);

	lea	ecx, DWORD PTR _totalDescrip$29[ebp]
	push	ecx
	push	0
	mov	ecx, DWORD PTR _button$20[ebp]
	call	?SetText@C_Button@@QAEXFPBD@Z		; C_Button::SetText

; 2410 : 				button->Refresh();

	mov	edx, DWORD PTR _button$20[ebp]
	mov	eax, DWORD PTR [edx]
	mov	ecx, DWORD PTR _button$20[ebp]
	mov	edx, DWORD PTR [eax+160]
	call	edx

; 2411 : 
; 2412 : 				if(KeyVar.OldControl)

	cmp	DWORD PTR ?KeyVar@@3UKeyVars@@A+16, 0
	je	$LN29@KeystrokeC

; 2413 : 				{
; 2414 : 					//if we unmapped another function to map this one we 
; 2415 : 					//need to update the first functions buttton
; 2416 : 					C_Button *temp;
; 2417 : 
; 2418 : 					temp = (C_Button *)win->FindControl(KeyVar.OldControl);

	mov	eax, DWORD PTR ?KeyVar@@3UKeyVars@@A+16
	push	eax
	mov	ecx, DWORD PTR _win$19[ebp]
	call	?FindControl@C_Window@@QAEPAVC_Base@@J@Z ; C_Window::FindControl
	mov	DWORD PTR _temp$18[ebp], eax

; 2419 : 					//strcpy(keydescrip,"No Key Assigned");
; 2420 : 					if(temp)

	cmp	DWORD PTR _temp$18[ebp], 0
	je	SHORT $LN29@KeystrokeC

; 2421 : 					{
; 2422 : 						SetButtonColor(temp);

	mov	ecx, DWORD PTR _temp$18[ebp]
	push	ecx
	call	?SetButtonColor@@YAXPAVC_Button@@@Z	; SetButtonColor
	add	esp, 4

; 2423 : 						temp->SetUserNumber(KEY2,-1);

	push	-1
	push	0
	mov	ecx, DWORD PTR _temp$18[ebp]
	call	?SetUserNumber@C_Base@@QAEXJJ@Z		; C_Base::SetUserNumber

; 2424 : 						temp->SetUserNumber(FLAGS,temp->GetUserNumber(FLAGS) & SECOND_KEY_MASK);

	push	1
	mov	ecx, DWORD PTR _temp$18[ebp]
	call	?GetUserNumber@C_Base@@QAEJJ@Z		; C_Base::GetUserNumber
	and	eax, 16776960				; 00ffff00H
	push	eax
	push	1
	mov	ecx, DWORD PTR _temp$18[ebp]
	call	?SetUserNumber@C_Base@@QAEXJJ@Z		; C_Base::SetUserNumber

; 2425 : 						temp->Refresh();

	mov	edx, DWORD PTR _temp$18[ebp]
	mov	eax, DWORD PTR [edx]
	mov	ecx, DWORD PTR _temp$18[ebp]
	mov	edx, DWORD PTR [eax+160]
	call	edx

; 2426 : 						temp->SetText(0,TXT_NO_KEY);

	push	18					; 00000012H
	push	0
	mov	ecx, DWORD PTR _temp$18[ebp]
	call	?SetText@C_Button@@QAEXFJ@Z		; C_Button::SetText

; 2427 : 						temp->Refresh();

	mov	eax, DWORD PTR _temp$18[ebp]
	mov	edx, DWORD PTR [eax]
	mov	ecx, DWORD PTR _temp$18[ebp]
	mov	eax, DWORD PTR [edx+160]
	call	eax
$LN29@KeystrokeC:

; 2428 : 					}
; 2429 : 				}
; 2430 : 			}
; 2431 : 			SetButtonColor(button);

	mov	ecx, DWORD PTR _button$20[ebp]
	push	ecx
	call	?SetButtonColor@@YAXPAVC_Button@@@Z	; SetButtonColor
	add	esp, 4
$LN30@KeystrokeC:

; 2432 : 		}
; 2433 : 
; 2434 : 		if(KeyVar.OldControl)

	cmp	DWORD PTR ?KeyVar@@3UKeyVars@@A+16, 0
	je	$LN18@KeystrokeC

; 2435 : 		{
; 2436 : 			// if we stole another functions mapping, move to the function
; 2437 : 			// and leave ourselves in edit mode
; 2438 : 			C_Button *temp;
; 2439 : 			UI95_RECT Client;
; 2440 : 
; 2441 : 			temp = (C_Button *)win->FindControl(KeyVar.OldControl);

	mov	edx, DWORD PTR ?KeyVar@@3UKeyVars@@A+16
	push	edx
	mov	ecx, DWORD PTR _win$19[ebp]
	call	?FindControl@C_Window@@QAEPAVC_Base@@J@Z ; C_Window::FindControl
	mov	DWORD PTR _temp$15[ebp], eax

; 2442 : 			if(temp)

	cmp	DWORD PTR _temp$15[ebp], 0
	je	$LN17@KeystrokeC

; 2443 : 			{
; 2444 : 				temp->SetFgColor(0,RGB(0,255,255));

	push	16776960				; 00ffff00H
	push	0
	mov	ecx, DWORD PTR _temp$15[ebp]
	call	?SetFgColor@C_Button@@QAEXFK@Z		; C_Button::SetFgColor

; 2445 : 
; 2446 : 				Client = win->GetClientArea(temp->GetClient());

	mov	ecx, DWORD PTR _temp$15[ebp]
	call	?GetClient@C_Base@@QAEFXZ		; C_Base::GetClient
	cwde
	push	eax
	lea	ecx, DWORD PTR $T23[ebp]
	push	ecx
	mov	ecx, DWORD PTR _win$19[ebp]
	call	?GetClientArea@C_Window@@QAE?AUUI95_RECT@@J@Z ; C_Window::GetClientArea
	mov	edx, DWORD PTR [eax]
	mov	DWORD PTR _Client$24[ebp], edx
	mov	ecx, DWORD PTR [eax+4]
	mov	DWORD PTR _Client$24[ebp+4], ecx
	mov	edx, DWORD PTR [eax+8]
	mov	DWORD PTR _Client$24[ebp+8], edx
	mov	eax, DWORD PTR [eax+12]
	mov	DWORD PTR _Client$24[ebp+12], eax

; 2447 : 
; 2448 : 				win->SetVirtualY(temp->GetY()-Client.top,temp->GetClient());

	mov	ecx, DWORD PTR _temp$15[ebp]
	call	?GetClient@C_Base@@QAEFXZ		; C_Base::GetClient
	movsx	ecx, ax
	push	ecx
	mov	ecx, DWORD PTR _temp$15[ebp]
	call	?GetY@C_Base@@QAEJXZ			; C_Base::GetY
	sub	eax, DWORD PTR _Client$24[ebp+4]
	push	eax
	mov	ecx, DWORD PTR _win$19[ebp]
	call	?SetVirtualY@C_Window@@QAEXJJ@Z		; C_Window::SetVirtualY

; 2449 : 				win->AdjustScrollbar(temp->GetClient()); 

	mov	ecx, DWORD PTR _temp$15[ebp]
	call	?GetClient@C_Base@@QAEFXZ		; C_Base::GetClient
	movsx	edx, ax
	push	edx
	mov	ecx, DWORD PTR _win$19[ebp]
	call	?AdjustScrollbar@C_Window@@QAEXJ@Z	; C_Window::AdjustScrollbar

; 2450 : 				win->RefreshClient(temp->GetClient());

	mov	ecx, DWORD PTR _temp$15[ebp]
	call	?GetClient@C_Base@@QAEFXZ		; C_Base::GetClient
	cwde
	push	eax
	mov	ecx, DWORD PTR _win$19[ebp]
	call	?RefreshClient@C_Window@@QAEXJ@Z	; C_Window::RefreshClient
$LN17@KeystrokeC:

; 2451 : 			}
; 2452 : 
; 2453 : 			KeyVar.CurrControl = KeyVar.OldControl;

	mov	ecx, DWORD PTR ?KeyVar@@3UKeyVars@@A+16
	mov	DWORD PTR ?KeyVar@@3UKeyVars@@A+12, ecx

; 2454 : 			KeyVar.OldControl = 0;

	mov	DWORD PTR ?KeyVar@@3UKeyVars@@A+16, 0

; 2455 : 		}
; 2456 : 		else

	jmp	SHORT $LN16@KeystrokeC
$LN18@KeystrokeC:

; 2457 : 		{
; 2458 : 			//key changed leave edit mode
; 2459 : 			KeyVar.EditKey = FALSE;

	mov	DWORD PTR ?KeyVar@@3UKeyVars@@A, 0
$LN16@KeystrokeC:

; 2460 : 		}
; 2461 : 
; 2462 : 		C_Text	*text;
; 2463 : 		
; 2464 : 		if(DKScanCode == 0xC5)

	movzx	edx, BYTE PTR _DKScanCode$[ebp]
	cmp	edx, 197				; 000000c5H
	jne	SHORT $LN15@KeystrokeC

; 2465 : 			DKScanCode = 0x45;

	mov	BYTE PTR _DKScanCode$[ebp], 69		; 00000045H
$LN15@KeystrokeC:

; 2466 : 
; 2467 : 		//build description for display at bottom of window
; 2468 : 		if(KeyDescrips[DKScanCode])

	movzx	eax, BYTE PTR _DKScanCode$[ebp]
	mov	ecx, DWORD PTR ?KeyDescrips@@3PAPADA	; KeyDescrips
	cmp	DWORD PTR [ecx+eax*4], 0
	je	$LN14@KeystrokeC

; 2469 : 		{
; 2470 : 			
; 2471 : 			//if(DKScanCode == 0x44)
; 2472 : 
; 2473 : 			char mods[40] = {0};

	mov	BYTE PTR _mods$32[ebp], 0
	push	39					; 00000027H
	push	0
	lea	edx, DWORD PTR _mods$32[ebp+1]
	push	edx
	call	_memset
	add	esp, 12					; 0000000cH

; 2474 : 			char *descrip = NULL;

	mov	DWORD PTR _descrip$13[ebp], 0

; 2475 : 			int pmouse,pbutton;
; 2476 : 			InputFunctionType function;
; 2477 : 			
; 2478 : 			text = (C_Text *)win->FindControl(CONTROL_KEYS); //CONTROL_KEYS

	push	70101					; 000111d5H
	mov	ecx, DWORD PTR _win$19[ebp]
	call	?FindControl@C_Window@@QAEPAVC_Base@@J@Z ; C_Window::FindControl
	mov	DWORD PTR _text$21[ebp], eax

; 2479 : 			if(text)

	cmp	DWORD PTR _text$21[ebp], 0
	je	$LN13@KeystrokeC

; 2480 : 			{
; 2481 : 				_TCHAR firstKey[MAX_PATH] = {0};

	mov	BYTE PTR _firstKey$27[ebp], 0
	push	259					; 00000103H
	push	0
	lea	eax, DWORD PTR _firstKey$27[ebp+1]
	push	eax
	call	_memset
	add	esp, 12					; 0000000cH

; 2482 : 				_TCHAR totalDescrip[MAX_PATH] = {0};

	mov	BYTE PTR _totalDescrip$30[ebp], 0
	push	259					; 00000103H
	push	0
	lea	ecx, DWORD PTR _totalDescrip$30[ebp+1]
	push	ecx
	call	_memset
	add	esp, 12					; 0000000cH

; 2483 : 				if(KeyVar.CommandsKeyCombo > 0)

	cmp	DWORD PTR ?KeyVar@@3UKeyVars@@A+4, 0
	jle	SHORT $LN12@KeystrokeC

; 2484 : 				{
; 2485 : 					DoShiftStates(firstKey,KeyVar.CommandsKeyComboMod);

	mov	edx, DWORD PTR ?KeyVar@@3UKeyVars@@A+8
	push	edx
	lea	eax, DWORD PTR _firstKey$27[ebp]
	push	eax
	call	?DoShiftStates@@YAXPADH@Z		; DoShiftStates
	add	esp, 8

; 2486 : 					DoShiftStates(mods,ShiftStates);

	movzx	ecx, BYTE PTR _ShiftStates$[ebp]
	push	ecx
	lea	edx, DWORD PTR _mods$32[ebp]
	push	edx
	call	?DoShiftStates@@YAXPADH@Z		; DoShiftStates
	add	esp, 8

; 2487 : 					_stprintf(totalDescrip,"%s%s : %s%s",firstKey,KeyDescrips[KeyVar.CommandsKeyCombo],mods,KeyDescrips[DKScanCode]);

	movzx	eax, BYTE PTR _DKScanCode$[ebp]
	mov	ecx, DWORD PTR ?KeyDescrips@@3PAPADA	; KeyDescrips
	mov	edx, DWORD PTR [ecx+eax*4]
	push	edx
	lea	eax, DWORD PTR _mods$32[ebp]
	push	eax
	mov	ecx, DWORD PTR ?KeyVar@@3UKeyVars@@A+4
	mov	edx, DWORD PTR ?KeyDescrips@@3PAPADA	; KeyDescrips
	mov	eax, DWORD PTR [edx+ecx*4]
	push	eax
	lea	ecx, DWORD PTR _firstKey$27[ebp]
	push	ecx
	push	OFFSET ??_C@_0M@LLNEAKEK@?$CFs?$CFs?5?3?5?$CFs?$CFs?$AA@
	lea	edx, DWORD PTR _totalDescrip$30[ebp]
	push	edx
	call	_sprintf
	add	esp, 24					; 00000018H

; 2488 : 				}
; 2489 : 				else

	jmp	SHORT $LN11@KeystrokeC
$LN12@KeystrokeC:

; 2490 : 				{
; 2491 : 					DoShiftStates(totalDescrip,ShiftStates);

	movzx	eax, BYTE PTR _ShiftStates$[ebp]
	push	eax
	lea	ecx, DWORD PTR _totalDescrip$30[ebp]
	push	ecx
	call	?DoShiftStates@@YAXPADH@Z		; DoShiftStates
	add	esp, 8

; 2492 : 					strcat(totalDescrip,KeyDescrips[DKScanCode]);

	movzx	edx, BYTE PTR _DKScanCode$[ebp]
	mov	eax, DWORD PTR ?KeyDescrips@@3PAPADA	; KeyDescrips
	mov	ecx, DWORD PTR [eax+edx*4]
	push	ecx
	lea	edx, DWORD PTR _totalDescrip$30[ebp]
	push	edx
	call	_strcat
	add	esp, 8
$LN11@KeystrokeC:

; 2493 : 				}
; 2494 : 				//DoShiftStates(mods,ShiftStates);
; 2495 : 				//strcat(mods,KeyDescrips[DKScanCode]);
; 2496 : 				text->Refresh();

	mov	eax, DWORD PTR _text$21[ebp]
	mov	edx, DWORD PTR [eax]
	mov	ecx, DWORD PTR _text$21[ebp]
	mov	eax, DWORD PTR [edx+160]
	call	eax

; 2497 : 				text->SetText(totalDescrip);

	lea	ecx, DWORD PTR _totalDescrip$30[ebp]
	push	ecx
	mov	edx, DWORD PTR _text$21[ebp]
	mov	eax, DWORD PTR [edx]
	mov	ecx, DWORD PTR _text$21[ebp]
	mov	edx, DWORD PTR [eax+256]
	call	edx

; 2498 : 				text->Refresh();

	mov	eax, DWORD PTR _text$21[ebp]
	mov	edx, DWORD PTR [eax]
	mov	ecx, DWORD PTR _text$21[ebp]
	mov	eax, DWORD PTR [edx+160]
	call	eax
$LN13@KeystrokeC:

; 2499 : 			}
; 2500 : 			
; 2501 : 			//flags = flags + (KeyVar.CommandsKeyCombo << SECOND_KEY_SHIFT) + (KeyVar.CommandsKeyComboMod << SECOND_KEY_MOD_SHIFT);
; 2502 : 			function = UserFunctionTable.GetFunction(DKScanCode,flags,&pmouse,&pbutton);			

	lea	ecx, DWORD PTR _pbutton$4[ebp]
	push	ecx
	lea	edx, DWORD PTR _pmouse$3[ebp]
	push	edx
	mov	eax, DWORD PTR _flags$17[ebp]
	push	eax
	movzx	ecx, BYTE PTR _DKScanCode$[ebp]
	push	ecx
	mov	ecx, OFFSET ?UserFunctionTable@@3VInputFunctionHashTable@@A ; UserFunctionTable
	call	?GetFunction@InputFunctionHashTable@@QAEP6AXKHPAX@ZHHPAH1@Z ; InputFunctionHashTable::GetFunction
	mov	DWORD PTR _function$5[ebp], eax

; 2503 : 
; 2504 : 			text = (C_Text *)win->FindControl(FUNCTION_LIST);

	push	70085					; 000111c5H
	mov	ecx, DWORD PTR _win$19[ebp]
	call	?FindControl@C_Window@@QAEPAVC_Base@@J@Z ; C_Window::FindControl
	mov	DWORD PTR _text$21[ebp], eax

; 2505 : 			if(text)

	cmp	DWORD PTR _text$21[ebp], 0
	je	$LN14@KeystrokeC

; 2506 : 			{
; 2507 : 				text->Refresh();

	mov	edx, DWORD PTR _text$21[ebp]
	mov	eax, DWORD PTR [edx]
	mov	ecx, DWORD PTR _text$21[ebp]
	mov	edx, DWORD PTR [eax+160]
	call	edx

; 2508 : 				if(function)

	cmp	DWORD PTR _function$5[ebp], 0
	je	$LN9@KeystrokeC

; 2509 : 				{
; 2510 : 					C_Text *temp;
; 2511 : 					C_Button *btn;
; 2512 : 					long ID;
; 2513 : 
; 2514 : 					ID = UserFunctionTable.GetControl(DKScanCode,flags) ;

	mov	eax, DWORD PTR _flags$17[ebp]
	push	eax
	movzx	ecx, BYTE PTR _DKScanCode$[ebp]
	push	ecx
	mov	ecx, OFFSET ?UserFunctionTable@@3VInputFunctionHashTable@@A ; UserFunctionTable
	call	?GetControl@InputFunctionHashTable@@QAEJHH@Z ; InputFunctionHashTable::GetControl
	mov	DWORD PTR _ID$14[ebp], eax

; 2515 : 
; 2516 : 					CommandCombo = 0;

	mov	DWORD PTR _CommandCombo$11[ebp], 0

; 2517 : 
; 2518 : 					btn = (C_Button *)win->FindControl(ID);

	mov	edx, DWORD PTR _ID$14[ebp]
	push	edx
	mov	ecx, DWORD PTR _win$19[ebp]
	call	?FindControl@C_Window@@QAEPAVC_Base@@J@Z ; C_Window::FindControl
	mov	DWORD PTR _btn$8[ebp], eax

; 2519 : 					if(btn)

	cmp	DWORD PTR _btn$8[ebp], 0
	je	SHORT $LN8@KeystrokeC

; 2520 : 						CommandCombo = btn->GetUserNumber(EDITABLE);

	push	4
	mov	ecx, DWORD PTR _btn$8[ebp]
	call	?GetUserNumber@C_Base@@QAEJJ@Z		; C_Base::GetUserNumber
	mov	DWORD PTR _CommandCombo$11[ebp], eax
$LN8@KeystrokeC:

; 2521 : 
; 2522 : 					if(CommandCombo == -1)

	cmp	DWORD PTR _CommandCombo$11[ebp], -1
	jne	SHORT $LN7@KeystrokeC

; 2523 : 					{
; 2524 : 						KeyVar.CommandsKeyCombo = DKScanCode;

	movzx	eax, BYTE PTR _DKScanCode$[ebp]
	mov	DWORD PTR ?KeyVar@@3UKeyVars@@A+4, eax

; 2525 : 						KeyVar.CommandsKeyComboMod = ShiftStates;

	movzx	ecx, BYTE PTR _ShiftStates$[ebp]
	mov	DWORD PTR ?KeyVar@@3UKeyVars@@A+8, ecx

; 2526 : 					}
; 2527 : 					else

	jmp	SHORT $LN6@KeystrokeC
$LN7@KeystrokeC:

; 2528 : 					{
; 2529 : 						KeyVar.CommandsKeyCombo = 0;

	mov	DWORD PTR ?KeyVar@@3UKeyVars@@A+4, 0

; 2530 : 						KeyVar.CommandsKeyComboMod = 0;

	mov	DWORD PTR ?KeyVar@@3UKeyVars@@A+8, 0
$LN6@KeystrokeC:

; 2531 : 					}
; 2532 : 
; 2533 : 					ID = ID - KEYCODES + MAPPING;

	mov	edx, DWORD PTR _ID$14[ebp]
	add	edx, 10000				; 00002710H
	mov	DWORD PTR _ID$14[ebp], edx

; 2534 : 					temp = (C_Text *)win->FindControl(ID);

	mov	eax, DWORD PTR _ID$14[ebp]
	push	eax
	mov	ecx, DWORD PTR _win$19[ebp]
	call	?FindControl@C_Window@@QAEPAVC_Base@@J@Z ; C_Window::FindControl
	mov	DWORD PTR _temp$16[ebp], eax

; 2535 : 					if(temp)

	cmp	DWORD PTR _temp$16[ebp], 0
	je	SHORT $LN5@KeystrokeC

; 2536 : 						descrip = temp->GetText();

	mov	ecx, DWORD PTR _temp$16[ebp]
	call	?GetText@C_Text@@QAEPADXZ		; C_Text::GetText
	mov	DWORD PTR _descrip$13[ebp], eax
$LN5@KeystrokeC:

; 2537 : 
; 2538 : 					if(descrip)

	cmp	DWORD PTR _descrip$13[ebp], 0
	je	SHORT $LN4@KeystrokeC

; 2539 : 						text->SetText(descrip);

	mov	ecx, DWORD PTR _descrip$13[ebp]
	push	ecx
	mov	edx, DWORD PTR _text$21[ebp]
	mov	eax, DWORD PTR [edx]
	mov	ecx, DWORD PTR _text$21[ebp]
	mov	edx, DWORD PTR [eax+256]
	call	edx

; 2540 : 					else

	jmp	SHORT $LN3@KeystrokeC
$LN4@KeystrokeC:

; 2541 : 						text->SetText(TXT_NO_FUNCTION);

	push	17					; 00000011H
	mov	eax, DWORD PTR _text$21[ebp]
	mov	edx, DWORD PTR [eax]
	mov	ecx, DWORD PTR _text$21[ebp]
	mov	eax, DWORD PTR [edx+252]
	call	eax
$LN3@KeystrokeC:

; 2542 : 
; 2543 : 					if(!KeyVar.EditKey && temp)

	cmp	DWORD PTR ?KeyVar@@3UKeyVars@@A, 0
	jne	$LN2@KeystrokeC
	cmp	DWORD PTR _temp$16[ebp], 0
	je	$LN2@KeystrokeC

; 2544 : 					{
; 2545 : 						UI95_RECT Client;
; 2546 : 						Client = win->GetClientArea(temp->GetClient());

	mov	ecx, DWORD PTR _temp$16[ebp]
	call	?GetClient@C_Base@@QAEFXZ		; C_Base::GetClient
	movsx	ecx, ax
	push	ecx
	lea	edx, DWORD PTR $T22[ebp]
	push	edx
	mov	ecx, DWORD PTR _win$19[ebp]
	call	?GetClientArea@C_Window@@QAE?AUUI95_RECT@@J@Z ; C_Window::GetClientArea
	mov	ecx, DWORD PTR [eax]
	mov	DWORD PTR _Client$25[ebp], ecx
	mov	edx, DWORD PTR [eax+4]
	mov	DWORD PTR _Client$25[ebp+4], edx
	mov	ecx, DWORD PTR [eax+8]
	mov	DWORD PTR _Client$25[ebp+8], ecx
	mov	edx, DWORD PTR [eax+12]
	mov	DWORD PTR _Client$25[ebp+12], edx

; 2547 : 
; 2548 : 						win->SetVirtualY(temp->GetY() - Client.top,temp->GetClient());

	mov	ecx, DWORD PTR _temp$16[ebp]
	call	?GetClient@C_Base@@QAEFXZ		; C_Base::GetClient
	cwde
	push	eax
	mov	ecx, DWORD PTR _temp$16[ebp]
	call	?GetY@C_Base@@QAEJXZ			; C_Base::GetY
	sub	eax, DWORD PTR _Client$25[ebp+4]
	push	eax
	mov	ecx, DWORD PTR _win$19[ebp]
	call	?SetVirtualY@C_Window@@QAEXJJ@Z		; C_Window::SetVirtualY

; 2549 : 						win->AdjustScrollbar(temp->GetClient()); 

	mov	ecx, DWORD PTR _temp$16[ebp]
	call	?GetClient@C_Base@@QAEFXZ		; C_Base::GetClient
	movsx	ecx, ax
	push	ecx
	mov	ecx, DWORD PTR _win$19[ebp]
	call	?AdjustScrollbar@C_Window@@QAEXJ@Z	; C_Window::AdjustScrollbar

; 2550 : 						win->RefreshClient(temp->GetClient());

	mov	ecx, DWORD PTR _temp$16[ebp]
	call	?GetClient@C_Base@@QAEFXZ		; C_Base::GetClient
	movsx	edx, ax
	push	edx
	mov	ecx, DWORD PTR _win$19[ebp]
	call	?RefreshClient@C_Window@@QAEXJ@Z	; C_Window::RefreshClient
$LN2@KeystrokeC:

; 2551 : 					}
; 2552 : 				}
; 2553 : 				else

	jmp	SHORT $LN1@KeystrokeC
$LN9@KeystrokeC:

; 2554 : 				{
; 2555 : 					text->SetText(TXT_NO_FUNCTION);

	push	17					; 00000011H
	mov	eax, DWORD PTR _text$21[ebp]
	mov	edx, DWORD PTR [eax]
	mov	ecx, DWORD PTR _text$21[ebp]
	mov	eax, DWORD PTR [edx+252]
	call	eax

; 2556 : 					KeyVar.CommandsKeyCombo = 0;

	mov	DWORD PTR ?KeyVar@@3UKeyVars@@A+4, 0

; 2557 : 					
; 2558 : 					KeyVar.CommandsKeyComboMod = 0;

	mov	DWORD PTR ?KeyVar@@3UKeyVars@@A+8, 0
$LN1@KeystrokeC:

; 2559 : 				}				
; 2560 : 				text->Refresh();

	mov	ecx, DWORD PTR _text$21[ebp]
	mov	edx, DWORD PTR [ecx]
	mov	ecx, DWORD PTR _text$21[ebp]
	mov	eax, DWORD PTR [edx+160]
	call	eax
$LN14@KeystrokeC:

; 2561 : 			}
; 2562 : 		}
; 2563 : 		return TRUE;

	mov	eax, 1
	jmp	SHORT $LN38@KeystrokeC
$LN35@KeystrokeC:

; 2564 : 	}
; 2565 : 	
; 2566 : 
; 2567 : 	return FALSE;

	xor	eax, eax
$LN38@KeystrokeC:

; 2568 : }

	pop	esi
	mov	ecx, DWORD PTR __$ArrayPad$[ebp]
	xor	ecx, ebp
	call	@__security_check_cookie@4
	mov	esp, ebp
	pop	ebp
	ret	0
?KeystrokeCB@@YAHEEEJ@Z ENDP				; KeystrokeCB
_TEXT	ENDS
; Function compile flags: /Odtp
; File c:\users\zhitao li\documents\visual studio 2012\projects\freefalcon\ui\src\setup\controltab.cpp
_TEXT	SEGMENT
_plus$ = -4						; size = 4
_mods$ = 8						; size = 4
_ShiftStates$ = 12					; size = 4
?DoShiftStates@@YAXPADH@Z PROC				; DoShiftStates

; 2261 : {

	push	ebp
	mov	ebp, esp
	push	ecx

; 2262 : 	int plus = 0;

	mov	DWORD PTR _plus$[ebp], 0

; 2263 : 
; 2264 : 	if(ShiftStates & _SHIFT_DOWN_)

	mov	eax, DWORD PTR _ShiftStates$[ebp]
	and	eax, 1
	je	SHORT $LN6@DoShiftSta

; 2265 : 	{
; 2266 : 		strcat(mods,gStringMgr->GetString(TXT_SHIFT_KEY));

	push	323					; 00000143H
	mov	ecx, DWORD PTR ?gStringMgr@@3PAVC_String@@A ; gStringMgr
	call	?GetString@C_String@@QAEPADJ@Z		; C_String::GetString
	push	eax
	mov	ecx, DWORD PTR _mods$[ebp]
	push	ecx
	call	_strcat
	add	esp, 8

; 2267 : 		plus++;

	mov	edx, DWORD PTR _plus$[ebp]
	add	edx, 1
	mov	DWORD PTR _plus$[ebp], edx
$LN6@DoShiftSta:

; 2268 : 	}
; 2269 : 
; 2270 : 	if(ShiftStates & _CTRL_DOWN_)

	mov	eax, DWORD PTR _ShiftStates$[ebp]
	and	eax, 2
	je	SHORT $LN5@DoShiftSta

; 2271 : 	{
; 2272 : 		if(plus)

	cmp	DWORD PTR _plus$[ebp], 0
	je	SHORT $LN4@DoShiftSta

; 2273 : 		{
; 2274 : 			strcat(mods,"+");

	push	OFFSET ??_C@_01MIFGBAGJ@?$CL?$AA@
	mov	ecx, DWORD PTR _mods$[ebp]
	push	ecx
	call	_strcat
	add	esp, 8

; 2275 : 			plus--;

	mov	edx, DWORD PTR _plus$[ebp]
	sub	edx, 1
	mov	DWORD PTR _plus$[ebp], edx
$LN4@DoShiftSta:

; 2276 : 		}
; 2277 : 		strcat(mods,gStringMgr->GetString(TXT_CONTROL_KEY));

	push	322					; 00000142H
	mov	ecx, DWORD PTR ?gStringMgr@@3PAVC_String@@A ; gStringMgr
	call	?GetString@C_String@@QAEPADJ@Z		; C_String::GetString
	push	eax
	mov	eax, DWORD PTR _mods$[ebp]
	push	eax
	call	_strcat
	add	esp, 8

; 2278 : 		plus++;

	mov	ecx, DWORD PTR _plus$[ebp]
	add	ecx, 1
	mov	DWORD PTR _plus$[ebp], ecx
$LN5@DoShiftSta:

; 2279 : 	}
; 2280 : 	
; 2281 : 	if(ShiftStates & _ALT_DOWN_)

	mov	edx, DWORD PTR _ShiftStates$[ebp]
	and	edx, 4
	je	SHORT $LN3@DoShiftSta

; 2282 : 	{
; 2283 : 		if(plus)

	cmp	DWORD PTR _plus$[ebp], 0
	je	SHORT $LN2@DoShiftSta

; 2284 : 		{
; 2285 : 			strcat(mods,"+");

	push	OFFSET ??_C@_01MIFGBAGJ@?$CL?$AA@
	mov	eax, DWORD PTR _mods$[ebp]
	push	eax
	call	_strcat
	add	esp, 8

; 2286 : 			plus--;

	mov	ecx, DWORD PTR _plus$[ebp]
	sub	ecx, 1
	mov	DWORD PTR _plus$[ebp], ecx
$LN2@DoShiftSta:

; 2287 : 		}
; 2288 : 
; 2289 : 		strcat(mods,gStringMgr->GetString(TXT_ALTERNATE_KEY));

	push	324					; 00000144H
	mov	ecx, DWORD PTR ?gStringMgr@@3PAVC_String@@A ; gStringMgr
	call	?GetString@C_String@@QAEPADJ@Z		; C_String::GetString
	push	eax
	mov	edx, DWORD PTR _mods$[ebp]
	push	edx
	call	_strcat
	add	esp, 8

; 2290 : 		plus++;

	mov	eax, DWORD PTR _plus$[ebp]
	add	eax, 1
	mov	DWORD PTR _plus$[ebp], eax
$LN3@DoShiftSta:

; 2291 : 	}
; 2292 : 	
; 2293 : 	if(plus)

	cmp	DWORD PTR _plus$[ebp], 0
	je	SHORT $LN7@DoShiftSta

; 2294 : 		strcat(mods," ");

	push	OFFSET ??_C@_01CLKCMJKC@?5?$AA@
	mov	ecx, DWORD PTR _mods$[ebp]
	push	ecx
	call	_strcat
	add	esp, 8
$LN7@DoShiftSta:

; 2295 : }

	mov	esp, ebp
	pop	ebp
	ret	0
?DoShiftStates@@YAXPADH@Z ENDP				; DoShiftStates
_TEXT	ENDS
; Function compile flags: /Odtp
; File c:\users\zhitao li\documents\visual studio 2012\projects\freefalcon\ui\src\setup\controltab.cpp
_TEXT	SEGMENT
_numAxis$ = -276					; size = 4
_i$ = -272						; size = 4
_filePtr$ = -268					; size = 4
_fileName$ = -264					; size = 260
__$ArrayPad$ = -4					; size = 4
?CalibrateFile@@YAHXZ PROC				; CalibrateFile

; 1887 : {

	push	ebp
	mov	ebp, esp
	sub	esp, 276				; 00000114H
	mov	eax, DWORD PTR ___security_cookie
	xor	eax, ebp
	mov	DWORD PTR __$ArrayPad$[ebp], eax

; 1888 : 	int i, numAxis;
; 1889 : 	FILE* filePtr;
; 1890 : 	
; 1891 : 	char fileName[_MAX_PATH];
; 1892 : 	sprintf(fileName,"%s\\config\\joystick.dat",FalconDataDirectory);

	push	OFFSET ?FalconDataDirectory@@3PADA	; FalconDataDirectory
	push	OFFSET ??_C@_0BH@HILJPBML@?$CFs?2config?2joystick?4dat?$AA@
	lea	eax, DWORD PTR _fileName$[ebp]
	push	eax
	call	_sprintf
	add	esp, 12					; 0000000cH

; 1893 : 
; 1894 : 	filePtr = fopen (fileName, "rb");

	push	OFFSET ??_C@_02JDPG@rb?$AA@
	lea	ecx, DWORD PTR _fileName$[ebp]
	push	ecx
	call	_fopen
	add	esp, 8
	mov	DWORD PTR _filePtr$[ebp], eax

; 1895 : 	if(filePtr != NULL)

	cmp	DWORD PTR _filePtr$[ebp], 0
	je	SHORT $LN4@CalibrateF

; 1896 : 	{
; 1897 : 		fread (&numAxis, sizeof(int), 1, filePtr);

	mov	edx, DWORD PTR _filePtr$[ebp]
	push	edx
	push	1
	push	4
	lea	eax, DWORD PTR _numAxis$[ebp]
	push	eax
	call	_fread
	add	esp, 16					; 00000010H

; 1898 : 		
; 1899 : 		for (i=0; i<numAxis; i++)

	mov	DWORD PTR _i$[ebp], 0
	jmp	SHORT $LN3@CalibrateF
$LN2@CalibrateF:
	mov	ecx, DWORD PTR _i$[ebp]
	add	ecx, 1
	mov	DWORD PTR _i$[ebp], ecx
$LN3@CalibrateF:
	mov	edx, DWORD PTR _i$[ebp]
	cmp	edx, DWORD PTR _numAxis$[ebp]
	jge	SHORT $LN1@CalibrateF

; 1900 : 		{
; 1901 : 			fread (&(IO.analog[i]), sizeof(SIMLIB_ANALOG_TYPE), 1, filePtr);

	mov	eax, DWORD PTR _filePtr$[ebp]
	push	eax
	push	1
	push	28					; 0000001cH
	mov	ecx, DWORD PTR _i$[ebp]
	imul	ecx, 28					; 0000001cH
	add	ecx, OFFSET ?IO@@3VSIMLIB_IO_CLASS@@A	; IO
	push	ecx
	call	_fread
	add	esp, 16					; 00000010H

; 1902 : 		}

	jmp	SHORT $LN2@CalibrateF
$LN1@CalibrateF:

; 1903 : 		fclose (filePtr);

	mov	edx, DWORD PTR _filePtr$[ebp]
	push	edx
	call	_fclose
	add	esp, 4

; 1904 : 		
; 1905 : 		return (TRUE);

	mov	eax, 1
	jmp	SHORT $LN5@CalibrateF
$LN4@CalibrateF:

; 1906 : 	}
; 1907 : 	return FALSE;

	xor	eax, eax
$LN5@CalibrateF:

; 1908 : }

	mov	ecx, DWORD PTR __$ArrayPad$[ebp]
	xor	ecx, ebp
	call	@__security_check_cookie@4
	mov	esp, ebp
	pop	ebp
	ret	0
?CalibrateFile@@YAHXZ ENDP				; CalibrateFile
_TEXT	ENDS
; Function compile flags: /Odtp
; File c:\users\zhitao li\documents\visual studio 2012\projects\freefalcon\ui\src\setup\controltab.cpp
_TEXT	SEGMENT
tv1044 = -636						; size = 4
tv1046 = -632						; size = 4
tv803 = -628						; size = 4
tv805 = -624						; size = 4
_temp$1 = -620						; size = 4
_temp$2 = -616						; size = 4
_func$3 = -612						; size = 4
_descrip$4 = -608					; size = 4
_func$5 = -604						; size = 4
_descrip$6 = -600					; size = 4
_i$7 = -596						; size = 4
_button$8 = -592					; size = 4
_i$9 = -588						; size = 4
_theIndex$10 = -584					; size = 4
_tButton$11 = -580					; size = 4
_tButton$12 = -576					; size = 4
_text2$13 = -572					; size = 4
_newWidth$14 = -568					; size = 4
_bmap$ = -564						; size = 4
_i$15 = -560						; size = 4
_Direction$16 = -556					; size = 4
_text$17 = -552						; size = 4
_flags$18 = -548					; size = 4
_text$19 = -544						; size = 4
_win$ = -540						; size = 4
_i$20 = -536						; size = 4
_button$ = -532						; size = 4
_line$ = -528						; size = 4
_string$21 = -524					; size = 260
_button$22 = -264					; size = 260
__$ArrayPad$ = -4					; size = 4
___formal$ = 8						; size = 4
___formal$ = 12						; size = 2
___formal$ = 16						; size = 4
?RefreshJoystickCB@@YAXJFPAVC_Base@@@Z PROC		; RefreshJoystickCB

; 1416 : {

	push	ebp
	mov	ebp, esp
	sub	esp, 636				; 0000027cH
	mov	eax, DWORD PTR ___security_cookie
	xor	eax, ebp
	mov	DWORD PTR __$ArrayPad$[ebp], eax

; 1417 : 	
; 1418 : 	static SIM_FLOAT JoyXPrev,JoyYPrev,RudderPrev,ThrottlePrev,ABDetentPrev;
; 1419 : 	static SIM_FLOAT IdleCutoffPrev;	// Retro 1Feb2004
; 1420 : 	static DWORD ButtonPrev[SIMLIB_MAX_DIGITAL*SIM_NUMDEVICES],POVPrev;	// Retro 31Dec2003
; 1421 : 
; 1422 : 	static int state = 1;	// Retro 26Dec2003
; 1423 : 	C_Bitmap	*bmap;
; 1424 : 	C_Window	*win;
; 1425 : 	C_Line		*line;
; 1426 : 	C_Button	*button;
; 1427 : 	
; 1428 : 	GetJoystickInput();

	call	?GetJoystickInput@@YAXXZ		; GetJoystickInput

; 1429 : 
; 1430 : 	// Retro 14Feb2004 - autocenter
; 1431 : 	if ((hasForceFeedback)&&(PlayerOptions.GetFFB()))

	cmp	DWORD PTR ?hasForceFeedback@@3HA, 0	; hasForceFeedback
	je	SHORT $LN105@RefreshJoy
	mov	ecx, OFFSET ?PlayerOptions@@3VPlayerOptionsClass@@A ; PlayerOptions
	call	?GetFFB@PlayerOptionsClass@@QBE_NXZ	; PlayerOptionsClass::GetFFB
	movzx	eax, al
	test	eax, eax
	je	SHORT $LN105@RefreshJoy

; 1432 : 	{
; 1433 : 		JoystickPlayEffect (JoyAutoCenter, 10000);

	push	10000					; 00002710H
	push	2
	call	?JoystickPlayEffect@@YAHHH@Z		; JoystickPlayEffect
	add	esp, 8
$LN105@RefreshJoy:

; 1434 : 	}
; 1435 : 	
; 1436 : #define UPDATE_ALWAYS	// Retro 13Jan2004
; 1437 : 	
; 1438 : 		win=gMainHandler->FindWindow(SETUP_WIN);

	push	70002					; 00011172H
	mov	ecx, DWORD PTR ?gMainHandler@@3PAVC_Handler@@A ; gMainHandler
	call	?FindWindowA@C_Handler@@QAEPAVC_Window@@J@Z ; C_Handler::FindWindowA
	mov	DWORD PTR _win$[ebp], eax

; 1439 : 		if(win != NULL)

	cmp	DWORD PTR _win$[ebp], 0
	je	$LN104@RefreshJoy

; 1440 : 		{
; 1441 : #ifndef UPDATE_ALWAYS	// Retro 13Jan2004
; 1442 : 			//test to see if joystick moved, if so update the control
; 1443 : 			if((IO.analog[AXIS_ROLL].engrValue != JoyXPrev)||(IO.analog[AXIS_PITCH].engrValue != JoyYPrev)||InitializeValueBars)	// Retro 31Dec2003
; 1444 : #endif
; 1445 : 			{				
; 1446 : 				bmap=(C_Bitmap *)win->FindControl(JOY_INDICATOR);

	push	70088					; 000111c8H
	mov	ecx, DWORD PTR _win$[ebp]
	call	?FindControl@C_Window@@QAEPAVC_Base@@J@Z ; C_Window::FindControl
	mov	DWORD PTR _bmap$[ebp], eax

; 1447 : 				if(bmap != NULL)

	cmp	DWORD PTR _bmap$[ebp], 0
	je	$LN103@RefreshJoy

; 1448 : 				{
; 1449 : 					bmap->Refresh();

	mov	ecx, DWORD PTR _bmap$[ebp]
	mov	edx, DWORD PTR [ecx]
	mov	ecx, DWORD PTR _bmap$[ebp]
	mov	eax, DWORD PTR [edx+160]
	call	eax

; 1450 : 					bmap->SetX((int)(JoyScale + IO.analog[AXIS_ROLL].engrValue * JoyScale));	// Retro 31Dec2003

	mov	ecx, 28					; 0000001cH
	shl	ecx, 0
	movss	xmm0, DWORD PTR ?IO@@3VSIMLIB_IO_CLASS@@A[ecx+16]
	mulss	xmm0, DWORD PTR ?JoyScale@@3MA
	addss	xmm0, DWORD PTR ?JoyScale@@3MA
	cvttss2si edx, xmm0
	push	edx
	mov	eax, DWORD PTR _bmap$[ebp]
	mov	edx, DWORD PTR [eax]
	mov	ecx, DWORD PTR _bmap$[ebp]
	mov	eax, DWORD PTR [edx+16]
	call	eax

; 1451 : 					bmap->SetY((int)(JoyScale + IO.analog[AXIS_PITCH].engrValue * JoyScale));	// Retro 31Dec2003

	mov	ecx, 28					; 0000001cH
	imul	ecx, 0
	movss	xmm0, DWORD PTR ?IO@@3VSIMLIB_IO_CLASS@@A[ecx+16]
	mulss	xmm0, DWORD PTR ?JoyScale@@3MA
	addss	xmm0, DWORD PTR ?JoyScale@@3MA
	cvttss2si edx, xmm0
	push	edx
	mov	eax, DWORD PTR _bmap$[ebp]
	mov	edx, DWORD PTR [eax]
	mov	ecx, DWORD PTR _bmap$[ebp]
	mov	eax, DWORD PTR [edx+20]
	call	eax

; 1452 : 					bmap->Refresh();					

	mov	ecx, DWORD PTR _bmap$[ebp]
	mov	edx, DWORD PTR [ecx]
	mov	ecx, DWORD PTR _bmap$[ebp]
	mov	eax, DWORD PTR [edx+160]
	call	eax

; 1453 : 					win->RefreshClient(1);

	push	1
	mov	ecx, DWORD PTR _win$[ebp]
	call	?RefreshClient@C_Window@@QAEXJ@Z	; C_Window::RefreshClient
$LN103@RefreshJoy:

; 1454 : 				}
; 1455 : 			}
; 1456 : 			
; 1457 : 			if(IO.AnalogIsUsed(AXIS_YAW))	// Retro 31Dec2003

	push	2
	mov	ecx, OFFSET ?IO@@3VSIMLIB_IO_CLASS@@A	; IO
	call	?AnalogIsUsed@SIMLIB_IO_CLASS@@QAE_NW4GameAxis_t@@@Z ; SIMLIB_IO_CLASS::AnalogIsUsed
	movzx	ecx, al
	test	ecx, ecx
	je	$LN101@RefreshJoy

; 1458 : 			{
; 1459 : #ifndef UPDATE_ALWAYS	// Retro 13Jan2004
; 1460 : 				//test to see if rudder moved, if so update the control
; 1461 : 				if(((IO.analog[AXIS_YAW].engrValue != RudderPrev)||InitializeValueBars) && state )	// Retro 31Dec2003
; 1462 : #endif
; 1463 : 				{
; 1464 : 					line=(C_Line *)win->FindControl(RUDDER);

	push	70038					; 00011196H
	mov	ecx, DWORD PTR _win$[ebp]
	call	?FindControl@C_Window@@QAEPAVC_Base@@J@Z ; C_Window::FindControl
	mov	DWORD PTR _line$[ebp], eax

; 1465 : 					if(line != NULL)

	cmp	DWORD PTR _line$[ebp], 0
	je	$LN101@RefreshJoy

; 1466 : 					{	
; 1467 : 						line->Refresh();

	mov	edx, DWORD PTR _line$[ebp]
	mov	eax, DWORD PTR [edx]
	mov	ecx, DWORD PTR _line$[ebp]
	mov	edx, DWORD PTR [eax+160]
	call	edx

; 1468 : 						line->SetY((int)(Rudder.top + RudderScale - IO.analog[AXIS_YAW].engrValue * RudderScale + .5));	// Retro 31Dec2003

	cvtsi2ss xmm0, DWORD PTR ?Rudder@@3UtagRECT@@A+4
	addss	xmm0, DWORD PTR ?RudderScale@@3MA
	mov	eax, 28					; 0000001cH
	shl	eax, 1
	movss	xmm1, DWORD PTR ?IO@@3VSIMLIB_IO_CLASS@@A[eax+16]
	mulss	xmm1, DWORD PTR ?RudderScale@@3MA
	subss	xmm0, xmm1
	cvtss2sd xmm0, xmm0
	addsd	xmm0, QWORD PTR __real@3fe0000000000000
	cvttsd2si ecx, xmm0
	push	ecx
	mov	edx, DWORD PTR _line$[ebp]
	mov	eax, DWORD PTR [edx]
	mov	ecx, DWORD PTR _line$[ebp]
	mov	edx, DWORD PTR [eax+20]
	call	edx

; 1469 : 						if(line->GetY() < Rudder.top)

	mov	ecx, DWORD PTR _line$[ebp]
	call	?GetY@C_Base@@QAEJXZ			; C_Base::GetY
	cmp	eax, DWORD PTR ?Rudder@@3UtagRECT@@A+4
	jge	SHORT $LN100@RefreshJoy

; 1470 : 							line->SetY(Rudder.top);

	mov	eax, DWORD PTR ?Rudder@@3UtagRECT@@A+4
	push	eax
	mov	ecx, DWORD PTR _line$[ebp]
	mov	edx, DWORD PTR [ecx]
	mov	ecx, DWORD PTR _line$[ebp]
	mov	eax, DWORD PTR [edx+20]
	call	eax
$LN100@RefreshJoy:

; 1471 : 						if(line->GetY() > Rudder.bottom)

	mov	ecx, DWORD PTR _line$[ebp]
	call	?GetY@C_Base@@QAEJXZ			; C_Base::GetY
	cmp	eax, DWORD PTR ?Rudder@@3UtagRECT@@A+12
	jle	SHORT $LN99@RefreshJoy

; 1472 : 							line->SetY(Rudder.bottom);

	mov	ecx, DWORD PTR ?Rudder@@3UtagRECT@@A+12
	push	ecx
	mov	edx, DWORD PTR _line$[ebp]
	mov	eax, DWORD PTR [edx]
	mov	ecx, DWORD PTR _line$[ebp]
	mov	edx, DWORD PTR [eax+20]
	call	edx
$LN99@RefreshJoy:

; 1473 : 						line->SetH(Rudder.bottom - line->GetY());

	mov	ecx, DWORD PTR _line$[ebp]
	call	?GetY@C_Base@@QAEJXZ			; C_Base::GetY
	mov	ecx, DWORD PTR ?Rudder@@3UtagRECT@@A+12
	sub	ecx, eax
	push	ecx
	mov	edx, DWORD PTR _line$[ebp]
	mov	eax, DWORD PTR [edx]
	mov	ecx, DWORD PTR _line$[ebp]
	mov	edx, DWORD PTR [eax+28]
	call	edx

; 1474 : 						line->Refresh();					

	mov	eax, DWORD PTR _line$[ebp]
	mov	edx, DWORD PTR [eax]
	mov	ecx, DWORD PTR _line$[ebp]
	mov	eax, DWORD PTR [edx+160]
	call	eax
$LN101@RefreshJoy:

; 1475 : 					}
; 1476 : 				}
; 1477 : 			}
; 1478 : 			
; 1479 : 			if(IO.AnalogIsUsed(AXIS_THROTTLE))	// Retro 31Dec2003

	push	3
	mov	ecx, OFFSET ?IO@@3VSIMLIB_IO_CLASS@@A	; IO
	call	?AnalogIsUsed@SIMLIB_IO_CLASS@@QAE_NW4GameAxis_t@@@Z ; SIMLIB_IO_CLASS::AnalogIsUsed
	movzx	ecx, al
	test	ecx, ecx
	je	$LN86@RefreshJoy

; 1480 : 			{
; 1481 : 				//test to see if throttle moved, if so update the control
; 1482 : #ifndef UPDATE_ALWAYS	// Retro 13Jan2004
; 1483 : 				if(((IO.analog[AXIS_THROTTLE].engrValue != ThrottlePrev)||InitializeValueBars) && state )	// Retro 31Dec2003
; 1484 : #endif
; 1485 : 				{
; 1486 : 					line=(C_Line *)win->FindControl(THROTTLE);

	push	70037					; 00011195H
	mov	ecx, DWORD PTR _win$[ebp]
	call	?FindControl@C_Window@@QAEPAVC_Base@@J@Z ; C_Window::FindControl
	mov	DWORD PTR _line$[ebp], eax

; 1487 : 					if(line != NULL)

	cmp	DWORD PTR _line$[ebp], 0
	je	$LN97@RefreshJoy

; 1488 : 					{
; 1489 : 						line->Refresh();

	mov	edx, DWORD PTR _line$[ebp]
	mov	eax, DWORD PTR [edx]
	mov	ecx, DWORD PTR _line$[ebp]
	mov	edx, DWORD PTR [eax+160]
	call	edx

; 1490 : 						line->SetY(FloatToInt32(static_cast<float>(Throttle.top + IO.analog[AXIS_THROTTLE].ioVal/15000.0F * ThrottleScale + .5)));	// Retro 31Dec2003

	cvtsi2ss xmm0, DWORD PTR ?Throttle@@3UtagRECT@@A+4
	mov	eax, 28					; 0000001cH
	imul	eax, 3
	cvtsi2ss xmm1, DWORD PTR ?IO@@3VSIMLIB_IO_CLASS@@A[eax+8]
	divss	xmm1, DWORD PTR __real@466a6000
	mulss	xmm1, DWORD PTR ?ThrottleScale@@3MA
	addss	xmm0, xmm1
	cvtss2sd xmm0, xmm0
	addsd	xmm0, QWORD PTR __real@3fe0000000000000
	cvtsd2ss xmm0, xmm0
	push	ecx
	movss	DWORD PTR [esp], xmm0
	call	?FloatToInt32@@YAHM@Z			; FloatToInt32
	add	esp, 4
	push	eax
	mov	ecx, DWORD PTR _line$[ebp]
	mov	edx, DWORD PTR [ecx]
	mov	ecx, DWORD PTR _line$[ebp]
	mov	eax, DWORD PTR [edx+20]
	call	eax

; 1491 : 						if(line->GetY() < Throttle.top)

	mov	ecx, DWORD PTR _line$[ebp]
	call	?GetY@C_Base@@QAEJXZ			; C_Base::GetY
	cmp	eax, DWORD PTR ?Throttle@@3UtagRECT@@A+4
	jge	SHORT $LN96@RefreshJoy

; 1492 : 							line->SetY(Throttle.top);

	mov	ecx, DWORD PTR ?Throttle@@3UtagRECT@@A+4
	push	ecx
	mov	edx, DWORD PTR _line$[ebp]
	mov	eax, DWORD PTR [edx]
	mov	ecx, DWORD PTR _line$[ebp]
	mov	edx, DWORD PTR [eax+20]
	call	edx
$LN96@RefreshJoy:

; 1493 : 						if(line->GetY() > Throttle.bottom)

	mov	ecx, DWORD PTR _line$[ebp]
	call	?GetY@C_Base@@QAEJXZ			; C_Base::GetY
	cmp	eax, DWORD PTR ?Throttle@@3UtagRECT@@A+12
	jle	SHORT $LN95@RefreshJoy

; 1494 : 							line->SetY(Throttle.bottom);

	mov	eax, DWORD PTR ?Throttle@@3UtagRECT@@A+12
	push	eax
	mov	ecx, DWORD PTR _line$[ebp]
	mov	edx, DWORD PTR [ecx]
	mov	ecx, DWORD PTR _line$[ebp]
	mov	eax, DWORD PTR [edx+20]
	call	eax
$LN95@RefreshJoy:

; 1495 : 						line->SetH(Throttle.bottom - line->GetY());

	mov	ecx, DWORD PTR _line$[ebp]
	call	?GetY@C_Base@@QAEJXZ			; C_Base::GetY
	mov	ecx, DWORD PTR ?Throttle@@3UtagRECT@@A+12
	sub	ecx, eax
	push	ecx
	mov	edx, DWORD PTR _line$[ebp]
	mov	eax, DWORD PTR [edx]
	mov	ecx, DWORD PTR _line$[ebp]
	mov	edx, DWORD PTR [eax+28]
	call	edx

; 1496 : 						line->Refresh();

	mov	eax, DWORD PTR _line$[ebp]
	mov	edx, DWORD PTR [eax]
	mov	ecx, DWORD PTR _line$[ebp]
	mov	eax, DWORD PTR [edx+160]
	call	eax
$LN97@RefreshJoy:

; 1497 : 					} 
; 1498 : 				}
; 1499 : 				
; 1500 : 				// Retro 13Jan2004 - dual throttle display =)
; 1501 : 				line=(C_Line *)win->FindControl(THROTTLE2);

	push	70239					; 0001125fH
	mov	ecx, DWORD PTR _win$[ebp]
	call	?FindControl@C_Window@@QAEPAVC_Base@@J@Z ; C_Window::FindControl
	mov	DWORD PTR _line$[ebp], eax

; 1502 : 				if(line != NULL)

	cmp	DWORD PTR _line$[ebp], 0
	je	$LN94@RefreshJoy

; 1503 : 				{
; 1504 : 					line->Refresh();

	mov	ecx, DWORD PTR _line$[ebp]
	mov	edx, DWORD PTR [ecx]
	mov	ecx, DWORD PTR _line$[ebp]
	mov	eax, DWORD PTR [edx+160]
	call	eax

; 1505 : 
; 1506 : 					if (IO.AnalogIsUsed(AXIS_THROTTLE2))

	push	4
	mov	ecx, OFFSET ?IO@@3VSIMLIB_IO_CLASS@@A	; IO
	call	?AnalogIsUsed@SIMLIB_IO_CLASS@@QAE_NW4GameAxis_t@@@Z ; SIMLIB_IO_CLASS::AnalogIsUsed
	movzx	ecx, al
	test	ecx, ecx
	je	SHORT $LN93@RefreshJoy

; 1507 : 						line->SetY(FloatToInt32(static_cast<float>(Throttle.top + IO.analog[AXIS_THROTTLE2].ioVal/15000.0F * ThrottleScale + .5)));	// Retro 31Dec2003

	cvtsi2ss xmm0, DWORD PTR ?Throttle@@3UtagRECT@@A+4
	mov	edx, 28					; 0000001cH
	shl	edx, 2
	cvtsi2ss xmm1, DWORD PTR ?IO@@3VSIMLIB_IO_CLASS@@A[edx+8]
	divss	xmm1, DWORD PTR __real@466a6000
	mulss	xmm1, DWORD PTR ?ThrottleScale@@3MA
	addss	xmm0, xmm1
	cvtss2sd xmm0, xmm0
	addsd	xmm0, QWORD PTR __real@3fe0000000000000
	cvtsd2ss xmm0, xmm0
	push	ecx
	movss	DWORD PTR [esp], xmm0
	call	?FloatToInt32@@YAHM@Z			; FloatToInt32
	add	esp, 4
	push	eax
	mov	eax, DWORD PTR _line$[ebp]
	mov	edx, DWORD PTR [eax]
	mov	ecx, DWORD PTR _line$[ebp]
	mov	eax, DWORD PTR [edx+20]
	call	eax

; 1508 : 					else

	jmp	SHORT $LN92@RefreshJoy
$LN93@RefreshJoy:

; 1509 : 						line->SetY(FloatToInt32(static_cast<float>(Throttle.top + IO.analog[AXIS_THROTTLE].ioVal/15000.0F * ThrottleScale + .5)));	// Retro 31Dec2003

	cvtsi2ss xmm0, DWORD PTR ?Throttle@@3UtagRECT@@A+4
	mov	ecx, 28					; 0000001cH
	imul	ecx, 3
	cvtsi2ss xmm1, DWORD PTR ?IO@@3VSIMLIB_IO_CLASS@@A[ecx+8]
	divss	xmm1, DWORD PTR __real@466a6000
	mulss	xmm1, DWORD PTR ?ThrottleScale@@3MA
	addss	xmm0, xmm1
	cvtss2sd xmm0, xmm0
	addsd	xmm0, QWORD PTR __real@3fe0000000000000
	cvtsd2ss xmm0, xmm0
	push	ecx
	movss	DWORD PTR [esp], xmm0
	call	?FloatToInt32@@YAHM@Z			; FloatToInt32
	add	esp, 4
	push	eax
	mov	edx, DWORD PTR _line$[ebp]
	mov	eax, DWORD PTR [edx]
	mov	ecx, DWORD PTR _line$[ebp]
	mov	edx, DWORD PTR [eax+20]
	call	edx
$LN92@RefreshJoy:

; 1510 : 
; 1511 : 					if(line->GetY() < Throttle.top)

	mov	ecx, DWORD PTR _line$[ebp]
	call	?GetY@C_Base@@QAEJXZ			; C_Base::GetY
	cmp	eax, DWORD PTR ?Throttle@@3UtagRECT@@A+4
	jge	SHORT $LN91@RefreshJoy

; 1512 : 						line->SetY(Throttle.top);

	mov	eax, DWORD PTR ?Throttle@@3UtagRECT@@A+4
	push	eax
	mov	ecx, DWORD PTR _line$[ebp]
	mov	edx, DWORD PTR [ecx]
	mov	ecx, DWORD PTR _line$[ebp]
	mov	eax, DWORD PTR [edx+20]
	call	eax
$LN91@RefreshJoy:

; 1513 : 					if(line->GetY() > Throttle.bottom)

	mov	ecx, DWORD PTR _line$[ebp]
	call	?GetY@C_Base@@QAEJXZ			; C_Base::GetY
	cmp	eax, DWORD PTR ?Throttle@@3UtagRECT@@A+12
	jle	SHORT $LN90@RefreshJoy

; 1514 : 						line->SetY(Throttle.bottom);

	mov	ecx, DWORD PTR ?Throttle@@3UtagRECT@@A+12
	push	ecx
	mov	edx, DWORD PTR _line$[ebp]
	mov	eax, DWORD PTR [edx]
	mov	ecx, DWORD PTR _line$[ebp]
	mov	edx, DWORD PTR [eax+20]
	call	edx
$LN90@RefreshJoy:

; 1515 : 					line->SetH(Throttle.bottom - line->GetY());

	mov	ecx, DWORD PTR _line$[ebp]
	call	?GetY@C_Base@@QAEJXZ			; C_Base::GetY
	mov	ecx, DWORD PTR ?Throttle@@3UtagRECT@@A+12
	sub	ecx, eax
	push	ecx
	mov	edx, DWORD PTR _line$[ebp]
	mov	eax, DWORD PTR [edx]
	mov	ecx, DWORD PTR _line$[ebp]
	mov	edx, DWORD PTR [eax+28]
	call	edx

; 1516 : 					line->Refresh();

	mov	eax, DWORD PTR _line$[ebp]
	mov	edx, DWORD PTR [eax]
	mov	ecx, DWORD PTR _line$[ebp]
	mov	eax, DWORD PTR [edx+160]
	call	eax
$LN94@RefreshJoy:

; 1517 : 				} 
; 1518 : 				// Retro 13Jan2004 end
; 1519 : 
; 1520 : #ifndef UPDATE_ALWAYS	// Retro 13Jan2004
; 1521 : 				if(ABDetentPrev != IO.analog[AXIS_THROTTLE].center||InitializeValueBars)	// Retro 31Dec2003
; 1522 : #endif
; 1523 : 				{
; 1524 : 					line=(C_Line *)win->FindControl(AB_DETENT);

	push	70149					; 00011205H
	mov	ecx, DWORD PTR _win$[ebp]
	call	?FindControl@C_Window@@QAEPAVC_Base@@J@Z ; C_Window::FindControl
	mov	DWORD PTR _line$[ebp], eax

; 1525 : 					if(line != NULL)

	cmp	DWORD PTR _line$[ebp], 0
	je	$LN89@RefreshJoy

; 1526 : 					{
; 1527 : 						line->Refresh();

	mov	ecx, DWORD PTR _line$[ebp]
	mov	edx, DWORD PTR [ecx]
	mov	ecx, DWORD PTR _line$[ebp]
	mov	eax, DWORD PTR [edx+160]
	call	eax

; 1528 : 						line->SetY(FloatToInt32(static_cast<float>(Throttle.top + IO.analog[AXIS_THROTTLE].center/15000.0F * ThrottleScale + .5)));	// Retro 31Dec2003

	cvtsi2ss xmm0, DWORD PTR ?Throttle@@3UtagRECT@@A+4
	mov	ecx, 28					; 0000001cH
	imul	ecx, 3
	cvtsi2ss xmm1, DWORD PTR ?IO@@3VSIMLIB_IO_CLASS@@A[ecx]
	divss	xmm1, DWORD PTR __real@466a6000
	mulss	xmm1, DWORD PTR ?ThrottleScale@@3MA
	addss	xmm0, xmm1
	cvtss2sd xmm0, xmm0
	addsd	xmm0, QWORD PTR __real@3fe0000000000000
	cvtsd2ss xmm0, xmm0
	push	ecx
	movss	DWORD PTR [esp], xmm0
	call	?FloatToInt32@@YAHM@Z			; FloatToInt32
	add	esp, 4
	push	eax
	mov	edx, DWORD PTR _line$[ebp]
	mov	eax, DWORD PTR [edx]
	mov	ecx, DWORD PTR _line$[ebp]
	mov	edx, DWORD PTR [eax+20]
	call	edx

; 1529 : 						if(line->GetY() <= Throttle.top - 1)

	mov	ecx, DWORD PTR _line$[ebp]
	call	?GetY@C_Base@@QAEJXZ			; C_Base::GetY
	mov	ecx, DWORD PTR ?Throttle@@3UtagRECT@@A+4
	sub	ecx, 1
	cmp	eax, ecx
	jg	SHORT $LN88@RefreshJoy

; 1530 : 							line->SetY(Throttle.top);

	mov	edx, DWORD PTR ?Throttle@@3UtagRECT@@A+4
	push	edx
	mov	eax, DWORD PTR _line$[ebp]
	mov	edx, DWORD PTR [eax]
	mov	ecx, DWORD PTR _line$[ebp]
	mov	eax, DWORD PTR [edx+20]
	call	eax
$LN88@RefreshJoy:

; 1531 : 						if(line->GetY() >= Throttle.bottom)

	mov	ecx, DWORD PTR _line$[ebp]
	call	?GetY@C_Base@@QAEJXZ			; C_Base::GetY
	cmp	eax, DWORD PTR ?Throttle@@3UtagRECT@@A+12
	jl	SHORT $LN87@RefreshJoy

; 1532 : 							line->SetY(Throttle.bottom + 1);

	mov	ecx, DWORD PTR ?Throttle@@3UtagRECT@@A+12
	add	ecx, 1
	push	ecx
	mov	edx, DWORD PTR _line$[ebp]
	mov	eax, DWORD PTR [edx]
	mov	ecx, DWORD PTR _line$[ebp]
	mov	edx, DWORD PTR [eax+20]
	call	edx
$LN87@RefreshJoy:

; 1533 : 						line->Refresh();

	mov	eax, DWORD PTR _line$[ebp]
	mov	edx, DWORD PTR [eax]
	mov	ecx, DWORD PTR _line$[ebp]
	mov	eax, DWORD PTR [edx+160]
	call	eax
$LN89@RefreshJoy:

; 1534 : 					}
; 1535 : 				}
; 1536 : 
; 1537 : #ifndef UPDATE_ALWAYS	// Retro 13Jan2004
; 1538 : 				if(IdleCutoffPrev != IO.analog[AXIS_THROTTLE].cutoff||InitializeValueBars)	// Retro 31Dec2003
; 1539 : #endif
; 1540 : 				{
; 1541 : 					line=(C_Line *)win->FindControl(SETUP_IDLE_CUTOFF);

	push	70318					; 000112aeH
	mov	ecx, DWORD PTR _win$[ebp]
	call	?FindControl@C_Window@@QAEPAVC_Base@@J@Z ; C_Window::FindControl
	mov	DWORD PTR _line$[ebp], eax

; 1542 : 					if(line != NULL)

	cmp	DWORD PTR _line$[ebp], 0
	je	$LN86@RefreshJoy

; 1543 : 					{
; 1544 : 						line->Refresh();

	mov	ecx, DWORD PTR _line$[ebp]
	mov	edx, DWORD PTR [ecx]
	mov	ecx, DWORD PTR _line$[ebp]
	mov	eax, DWORD PTR [edx+160]
	call	eax

; 1545 : 						line->SetY(FloatToInt32(static_cast<float>(Throttle.top + IO.analog[AXIS_THROTTLE].cutoff/15000.0F * ThrottleScale + .5)));	// Retro 31Dec2003

	cvtsi2ss xmm0, DWORD PTR ?Throttle@@3UtagRECT@@A+4
	mov	ecx, 28					; 0000001cH
	imul	ecx, 3
	cvtsi2ss xmm1, DWORD PTR ?IO@@3VSIMLIB_IO_CLASS@@A[ecx+4]
	divss	xmm1, DWORD PTR __real@466a6000
	mulss	xmm1, DWORD PTR ?ThrottleScale@@3MA
	addss	xmm0, xmm1
	cvtss2sd xmm0, xmm0
	addsd	xmm0, QWORD PTR __real@3fe0000000000000
	cvtsd2ss xmm0, xmm0
	push	ecx
	movss	DWORD PTR [esp], xmm0
	call	?FloatToInt32@@YAHM@Z			; FloatToInt32
	add	esp, 4
	push	eax
	mov	edx, DWORD PTR _line$[ebp]
	mov	eax, DWORD PTR [edx]
	mov	ecx, DWORD PTR _line$[ebp]
	mov	edx, DWORD PTR [eax+20]
	call	edx

; 1546 : 						if(line->GetY() <= Throttle.top - 1)

	mov	ecx, DWORD PTR _line$[ebp]
	call	?GetY@C_Base@@QAEJXZ			; C_Base::GetY
	mov	ecx, DWORD PTR ?Throttle@@3UtagRECT@@A+4
	sub	ecx, 1
	cmp	eax, ecx
	jg	SHORT $LN85@RefreshJoy

; 1547 : 							line->SetY(Throttle.top);

	mov	edx, DWORD PTR ?Throttle@@3UtagRECT@@A+4
	push	edx
	mov	eax, DWORD PTR _line$[ebp]
	mov	edx, DWORD PTR [eax]
	mov	ecx, DWORD PTR _line$[ebp]
	mov	eax, DWORD PTR [edx+20]
	call	eax
$LN85@RefreshJoy:

; 1548 : 						if(line->GetY() >= Throttle.bottom)

	mov	ecx, DWORD PTR _line$[ebp]
	call	?GetY@C_Base@@QAEJXZ			; C_Base::GetY
	cmp	eax, DWORD PTR ?Throttle@@3UtagRECT@@A+12
	jl	SHORT $LN84@RefreshJoy

; 1549 : 							line->SetY(Throttle.bottom + 1);

	mov	ecx, DWORD PTR ?Throttle@@3UtagRECT@@A+12
	add	ecx, 1
	push	ecx
	mov	edx, DWORD PTR _line$[ebp]
	mov	eax, DWORD PTR [edx]
	mov	ecx, DWORD PTR _line$[ebp]
	mov	edx, DWORD PTR [eax+20]
	call	edx
$LN84@RefreshJoy:

; 1550 : 						line->Refresh();

	mov	eax, DWORD PTR _line$[ebp]
	mov	edx, DWORD PTR [eax]
	mov	ecx, DWORD PTR _line$[ebp]
	mov	eax, DWORD PTR [edx+160]
	call	eax
$LN86@RefreshJoy:

; 1551 : 					}
; 1552 : 				}
; 1553 : 			}
; 1554 : 			
; 1555 : 			
; 1556 : 			unsigned long i;
; 1557 : 			for(i=0;i<SIMLIB_MAX_DIGITAL*SIM_NUMDEVICES;i++)	// Retro 31Dec2003

	mov	DWORD PTR _i$20[ebp], 0
	jmp	SHORT $LN83@RefreshJoy
$LN82@RefreshJoy:
	mov	ecx, DWORD PTR _i$20[ebp]
	add	ecx, 1
	mov	DWORD PTR _i$20[ebp], ecx
$LN83@RefreshJoy:
	cmp	DWORD PTR _i$20[ebp], 512		; 00000200H
	jae	$LN81@RefreshJoy

; 1558 : 			{
; 1559 : 				// Retro 31Dec2003:
; 1560 : 				// actually I only want to show the buttons on the flight control device here..
; 1561 : 				// if FFB is enabled then the user also gets effects
; 1562 : 				if (AxisMap.FlightControlDevice != -1)

	cmp	DWORD PTR ?AxisMap@@3UAxisMapping@@A, -1
	je	$LN74@RefreshJoy

; 1563 : 				{
; 1564 : 					int theIndex = (AxisMap.FlightControlDevice-SIM_JOYSTICK1)*SIMLIB_MAX_DIGITAL;

	mov	edx, DWORD PTR ?AxisMap@@3UAxisMapping@@A
	sub	edx, 2
	shl	edx, 5
	mov	DWORD PTR _theIndex$10[ebp], edx

; 1565 : 
; 1566 : 					if ((i >=  (unsigned long) theIndex)&&(i  < (unsigned long) theIndex+8))

	mov	eax, DWORD PTR _i$20[ebp]
	cmp	eax, DWORD PTR _theIndex$10[ebp]
	jb	$LN74@RefreshJoy
	mov	ecx, DWORD PTR _theIndex$10[ebp]
	add	ecx, 8
	cmp	DWORD PTR _i$20[ebp], ecx
	jae	$LN74@RefreshJoy

; 1567 : 					{
; 1568 : 						// Retro 14Feb2004 - only do this when FFB is available (duh!)
; 1569 : 						if ((hasForceFeedback)&&(PlayerOptions.GetFFB()))

	cmp	DWORD PTR ?hasForceFeedback@@3HA, 0	; hasForceFeedback
	je	SHORT $LN75@RefreshJoy
	mov	ecx, OFFSET ?PlayerOptions@@3VPlayerOptionsClass@@A ; PlayerOptions
	call	?GetFFB@PlayerOptionsClass@@QBE_NXZ	; PlayerOptionsClass::GetFFB
	movzx	edx, al
	test	edx, edx
	je	SHORT $LN75@RefreshJoy

; 1570 : 						{
; 1571 : 							if (IO.digital[theIndex])

	mov	eax, DWORD PTR _theIndex$10[ebp]
	movsx	ecx, WORD PTR ?IO@@3VSIMLIB_IO_CLASS@@A[eax*2+616]
	test	ecx, ecx
	je	SHORT $LN77@RefreshJoy

; 1572 : 							{
; 1573 : 								JoyEffectPlaying = true;

	mov	BYTE PTR ?JoyEffectPlaying@@3_NA, 1	; JoyEffectPlaying

; 1574 : 								JoystickPlayEffect (JoyFireEffect, 0);

	push	0
	push	0
	call	?JoystickPlayEffect@@YAHHH@Z		; JoystickPlayEffect
	add	esp, 8
	jmp	SHORT $LN75@RefreshJoy
$LN77@RefreshJoy:

; 1575 : 							}
; 1576 : 							else if (JoyEffectPlaying)

	movzx	edx, BYTE PTR ?JoyEffectPlaying@@3_NA	; JoyEffectPlaying
	test	edx, edx
	je	SHORT $LN75@RefreshJoy

; 1577 : 							{
; 1578 : 								JoystickStopEffect (JoyFireEffect);

	push	0
	call	?JoystickStopEffect@@YAXH@Z		; JoystickStopEffect
	add	esp, 4

; 1579 : 								JoyEffectPlaying = false;

	mov	BYTE PTR ?JoyEffectPlaying@@3_NA, 0	; JoyEffectPlaying
$LN75@RefreshJoy:

; 1580 : 							}
; 1581 : 						}
; 1582 : 
; 1583 : 						button=(C_Button *)win->FindControl(J1 + i%8);

	mov	eax, DWORD PTR _i$20[ebp]
	xor	edx, edx
	mov	ecx, 8
	div	ecx
	add	edx, 70047				; 0001119fH
	push	edx
	mov	ecx, DWORD PTR _win$[ebp]
	call	?FindControl@C_Window@@QAEPAVC_Base@@J@Z ; C_Window::FindControl
	mov	DWORD PTR _button$[ebp], eax

; 1584 : 						if(button != NULL)

	cmp	DWORD PTR _button$[ebp], 0
	je	SHORT $LN74@RefreshJoy

; 1585 : 						{
; 1586 : 							if(IO.digital[i])

	mov	edx, DWORD PTR _i$20[ebp]
	movsx	eax, WORD PTR ?IO@@3VSIMLIB_IO_CLASS@@A[edx*2+616]
	test	eax, eax
	je	SHORT $LN73@RefreshJoy

; 1587 : 								button->SetState(C_STATE_1);

	push	1
	mov	ecx, DWORD PTR _button$[ebp]
	mov	edx, DWORD PTR [ecx]
	mov	ecx, DWORD PTR _button$[ebp]
	mov	eax, DWORD PTR [edx+56]
	call	eax

; 1588 : 							else

	jmp	SHORT $LN72@RefreshJoy
$LN73@RefreshJoy:

; 1589 : 								button->SetState(C_STATE_0);

	push	0
	mov	ecx, DWORD PTR _button$[ebp]
	mov	edx, DWORD PTR [ecx]
	mov	ecx, DWORD PTR _button$[ebp]
	mov	eax, DWORD PTR [edx+56]
	call	eax
$LN72@RefreshJoy:

; 1590 : 							button->Refresh();

	mov	ecx, DWORD PTR _button$[ebp]
	mov	edx, DWORD PTR [ecx]
	mov	ecx, DWORD PTR _button$[ebp]
	mov	eax, DWORD PTR [edx+160]
	call	eax
$LN74@RefreshJoy:

; 1591 : 						}
; 1592 : 					}
; 1593 : 				}
; 1594 : 
; 1595 : 				if(IO.digital[i])

	mov	ecx, DWORD PTR _i$20[ebp]
	movsx	edx, WORD PTR ?IO@@3VSIMLIB_IO_CLASS@@A[ecx*2+616]
	test	edx, edx
	je	$LN68@RefreshJoy

; 1596 : 				{
; 1597 : 					C_Text *text = (C_Text *)win->FindControl(CONTROL_KEYS); 

	push	70101					; 000111d5H
	mov	ecx, DWORD PTR _win$[ebp]
	call	?FindControl@C_Window@@QAEPAVC_Base@@J@Z ; C_Window::FindControl
	mov	DWORD PTR _text$19[ebp], eax

; 1598 : 					if(text)

	cmp	DWORD PTR _text$19[ebp], 0
	je	SHORT $LN70@RefreshJoy

; 1599 : 					{
; 1600 : 						char string[_MAX_PATH];
; 1601 : 						text->Refresh();

	mov	eax, DWORD PTR _text$19[ebp]
	mov	edx, DWORD PTR [eax]
	mov	ecx, DWORD PTR _text$19[ebp]
	mov	eax, DWORD PTR [edx+160]
	call	eax

; 1602 : 						sprintf(string,"%s %d",gStringMgr->GetString(TXT_BUTTON),i+1);							

	mov	ecx, DWORD PTR _i$20[ebp]
	add	ecx, 1
	push	ecx
	push	14					; 0000000eH
	mov	ecx, DWORD PTR ?gStringMgr@@3PAVC_String@@A ; gStringMgr
	call	?GetString@C_String@@QAEPADJ@Z		; C_String::GetString
	push	eax
	push	OFFSET ??_C@_05DIALNFFA@?$CFs?5?$CFd?$AA@
	lea	edx, DWORD PTR _string$21[ebp]
	push	edx
	call	_sprintf
	add	esp, 16					; 00000010H

; 1603 : 						text->SetText(string);

	lea	eax, DWORD PTR _string$21[ebp]
	push	eax
	mov	ecx, DWORD PTR _text$19[ebp]
	mov	edx, DWORD PTR [ecx]
	mov	ecx, DWORD PTR _text$19[ebp]
	mov	eax, DWORD PTR [edx+256]
	call	eax

; 1604 : 						text->Refresh();

	mov	ecx, DWORD PTR _text$19[ebp]
	mov	edx, DWORD PTR [ecx]
	mov	ecx, DWORD PTR _text$19[ebp]
	mov	eax, DWORD PTR [edx+160]
	call	eax
$LN70@RefreshJoy:

; 1605 : 					}
; 1606 : 					
; 1607 : 					if(KeyVar.EditKey)

	cmp	DWORD PTR ?KeyVar@@3UKeyVars@@A, 0
	je	SHORT $LN69@RefreshJoy

; 1608 : 					{
; 1609 : 						button = (C_Button *)win->FindControl(KeyVar.CurrControl);

	mov	ecx, DWORD PTR ?KeyVar@@3UKeyVars@@A+12
	push	ecx
	mov	ecx, DWORD PTR _win$[ebp]
	call	?FindControl@C_Window@@QAEPAVC_Base@@J@Z ; C_Window::FindControl
	mov	DWORD PTR _button$[ebp], eax

; 1610 : 						UserFunctionTable.SetButtonFunction(i,(InputFunctionType)button->GetUserPtr(FUNCTION_PTR),button->GetUserNumber(BUTTON_ID));

	push	2
	mov	ecx, DWORD PTR _button$[ebp]
	call	?GetUserNumber@C_Base@@QAEJJ@Z		; C_Base::GetUserNumber
	push	eax
	push	5
	mov	ecx, DWORD PTR _button$[ebp]
	call	?GetUserPtr@C_Base@@QAEPAXJ@Z		; C_Base::GetUserPtr
	push	eax
	mov	edx, DWORD PTR _i$20[ebp]
	push	edx
	mov	ecx, OFFSET ?UserFunctionTable@@3VInputFunctionHashTable@@A ; UserFunctionTable
	call	?SetButtonFunction@InputFunctionHashTable@@QAEHHP6AXKHPAX@ZH@Z ; InputFunctionHashTable::SetButtonFunction

; 1611 : 						KeyVar.EditKey = FALSE;

	mov	DWORD PTR ?KeyVar@@3UKeyVars@@A, 0

; 1612 : 						KeyVar.Modified = TRUE;

	mov	DWORD PTR ?KeyVar@@3UKeyVars@@A+20, 1

; 1613 : 						SetButtonColor(button);

	mov	eax, DWORD PTR _button$[ebp]
	push	eax
	call	?SetButtonColor@@YAXPAVC_Button@@@Z	; SetButtonColor
	add	esp, 4
$LN69@RefreshJoy:

; 1614 : 					}
; 1615 : 
; 1616 : 					text = (C_Text *)win->FindControl(FUNCTION_LIST);

	push	70085					; 000111c5H
	mov	ecx, DWORD PTR _win$[ebp]
	call	?FindControl@C_Window@@QAEPAVC_Base@@J@Z ; C_Window::FindControl
	mov	DWORD PTR _text$19[ebp], eax

; 1617 : 					if(text)

	cmp	DWORD PTR _text$19[ebp], 0
	je	$LN68@RefreshJoy

; 1618 : 					{
; 1619 : 						InputFunctionType func;
; 1620 : 						char *descrip;
; 1621 : 
; 1622 : 						text->Refresh();

	mov	ecx, DWORD PTR _text$19[ebp]
	mov	edx, DWORD PTR [ecx]
	mov	ecx, DWORD PTR _text$19[ebp]
	mov	eax, DWORD PTR [edx+160]
	call	eax

; 1623 : 						if(func = UserFunctionTable.GetButtonFunction(i,NULL))

	push	0
	mov	ecx, DWORD PTR _i$20[ebp]
	push	ecx
	mov	ecx, OFFSET ?UserFunctionTable@@3VInputFunctionHashTable@@A ; UserFunctionTable
	call	?GetButtonFunction@InputFunctionHashTable@@QAEP6AXKHPAX@ZHPAH@Z ; InputFunctionHashTable::GetButtonFunction
	mov	DWORD PTR _func$5[ebp], eax
	cmp	DWORD PTR _func$5[ebp], 0
	je	$LN67@RefreshJoy

; 1624 : 						{
; 1625 : 							int i = 0;

	mov	DWORD PTR _i$7[ebp], 0

; 1626 : 
; 1627 : 							C_Button *tButton = (C_Button *)win->FindControl(KEYCODES);

	push	100000					; 000186a0H
	mov	ecx, DWORD PTR _win$[ebp]
	call	?FindControl@C_Window@@QAEPAVC_Base@@J@Z ; C_Window::FindControl
	mov	DWORD PTR _tButton$12[ebp], eax
$LN66@RefreshJoy:

; 1628 : 							while(tButton)

	cmp	DWORD PTR _tButton$12[ebp], 0
	je	$LN65@RefreshJoy

; 1629 : 							{								
; 1630 : 								if(func == (InputFunctionType)tButton->GetUserPtr(5))

	push	5
	mov	ecx, DWORD PTR _tButton$12[ebp]
	call	?GetUserPtr@C_Base@@QAEPAXJ@Z		; C_Base::GetUserPtr
	cmp	DWORD PTR _func$5[ebp], eax
	jne	$LN64@RefreshJoy

; 1631 : 								{
; 1632 : 									C_Text *temp = (C_Text *)win->FindControl(tButton->GetID()- KEYCODES + MAPPING);

	mov	ecx, DWORD PTR _tButton$12[ebp]
	call	?GetID@C_Base@@QAEJXZ			; C_Base::GetID
	add	eax, 10000				; 00002710H
	push	eax
	mov	ecx, DWORD PTR _win$[ebp]
	call	?FindControl@C_Window@@QAEPAVC_Base@@J@Z ; C_Window::FindControl
	mov	DWORD PTR _temp$1[ebp], eax

; 1633 : 									
; 1634 : 									if(temp)

	cmp	DWORD PTR _temp$1[ebp], 0
	je	SHORT $LN62@RefreshJoy

; 1635 : 									{
; 1636 : 										descrip = temp->GetText();

	mov	ecx, DWORD PTR _temp$1[ebp]
	call	?GetText@C_Text@@QAEPADXZ		; C_Text::GetText
	mov	DWORD PTR _descrip$4[ebp], eax

; 1637 : 										if(descrip)

	cmp	DWORD PTR _descrip$4[ebp], 0
	je	SHORT $LN62@RefreshJoy

; 1638 : 										{
; 1639 : 											text->SetText(descrip);

	mov	edx, DWORD PTR _descrip$4[ebp]
	push	edx
	mov	eax, DWORD PTR _text$19[ebp]
	mov	edx, DWORD PTR [eax]
	mov	ecx, DWORD PTR _text$19[ebp]
	mov	eax, DWORD PTR [edx+256]
	call	eax

; 1640 : 											break;

	jmp	SHORT $LN65@RefreshJoy
$LN62@RefreshJoy:

; 1641 : 										}
; 1642 : 									}
; 1643 : 									text->SetText("");

	push	OFFSET ??_C@_00CNPNBAHC@?$AA@
	mov	ecx, DWORD PTR _text$19[ebp]
	mov	edx, DWORD PTR [ecx]
	mov	ecx, DWORD PTR _text$19[ebp]
	mov	eax, DWORD PTR [edx+256]
	call	eax

; 1644 : 									break;

	jmp	SHORT $LN65@RefreshJoy

; 1645 : 								}
; 1646 : 								else

	jmp	SHORT $LN61@RefreshJoy
$LN64@RefreshJoy:

; 1647 : 								{
; 1648 : 									tButton = (C_Button *)win->FindControl(KEYCODES + i++);

	mov	ecx, DWORD PTR _i$7[ebp]
	add	ecx, 100000				; 000186a0H
	mov	DWORD PTR tv803[ebp], ecx
	mov	edx, DWORD PTR tv803[ebp]
	push	edx
	mov	ecx, DWORD PTR _win$[ebp]
	call	?FindControl@C_Window@@QAEPAVC_Base@@J@Z ; C_Window::FindControl
	mov	DWORD PTR tv805[ebp], eax
	mov	eax, DWORD PTR _i$7[ebp]
	add	eax, 1
	mov	DWORD PTR _i$7[ebp], eax
	mov	ecx, DWORD PTR tv805[ebp]
	mov	DWORD PTR _tButton$12[ebp], ecx
$LN61@RefreshJoy:

; 1649 : 								}
; 1650 : 							}

	jmp	$LN66@RefreshJoy
$LN65@RefreshJoy:

; 1651 : 						}
; 1652 : 						else

	jmp	SHORT $LN56@RefreshJoy
$LN67@RefreshJoy:

; 1653 : 						{
; 1654 : 							if(i == 0)

	cmp	DWORD PTR _i$20[ebp], 0
	jne	SHORT $LN59@RefreshJoy

; 1655 : 							{
; 1656 : 								text->SetText(TXT_FIRE_GUN);

	push	15					; 0000000fH
	mov	edx, DWORD PTR _text$19[ebp]
	mov	eax, DWORD PTR [edx]
	mov	ecx, DWORD PTR _text$19[ebp]
	mov	edx, DWORD PTR [eax+252]
	call	edx
	jmp	SHORT $LN56@RefreshJoy
$LN59@RefreshJoy:

; 1657 : 							}
; 1658 : 							else if(i == 1)

	cmp	DWORD PTR _i$20[ebp], 1
	jne	SHORT $LN57@RefreshJoy

; 1659 : 							{
; 1660 : 								text->SetText(TXT_FIRE_WEAPON);

	push	16					; 00000010H
	mov	eax, DWORD PTR _text$19[ebp]
	mov	edx, DWORD PTR [eax]
	mov	ecx, DWORD PTR _text$19[ebp]
	mov	eax, DWORD PTR [edx+252]
	call	eax

; 1661 : 							}
; 1662 : 							else

	jmp	SHORT $LN56@RefreshJoy
$LN57@RefreshJoy:

; 1663 : 							{
; 1664 : 								text->SetText(TXT_NO_FUNCTION);

	push	17					; 00000011H
	mov	ecx, DWORD PTR _text$19[ebp]
	mov	edx, DWORD PTR [ecx]
	mov	ecx, DWORD PTR _text$19[ebp]
	mov	eax, DWORD PTR [edx+252]
	call	eax
$LN56@RefreshJoy:

; 1665 : 							}
; 1666 : 						}
; 1667 : 						text->Refresh();

	mov	ecx, DWORD PTR _text$19[ebp]
	mov	edx, DWORD PTR [ecx]
	mov	ecx, DWORD PTR _text$19[ebp]
	mov	eax, DWORD PTR [edx+160]
	call	eax
$LN68@RefreshJoy:

; 1668 : 					}							
; 1669 : 				}
; 1670 : 			}			

	jmp	$LN82@RefreshJoy
$LN81@RefreshJoy:

; 1671 : 			
; 1672 : 			int Direction;
; 1673 : 			int flags = 0;

	mov	DWORD PTR _flags$18[ebp], 0

; 1674 : 
; 1675 : 			for (i = 0; i < NumberOfPOVs; i++)	// Retro 26Dec2003

	mov	DWORD PTR _i$20[ebp], 0
	jmp	SHORT $LN55@RefreshJoy
$LN54@RefreshJoy:
	mov	ecx, DWORD PTR _i$20[ebp]
	add	ecx, 1
	mov	DWORD PTR _i$20[ebp], ecx
$LN55@RefreshJoy:
	mov	edx, DWORD PTR _i$20[ebp]
	cmp	edx, DWORD PTR ?NumberOfPOVs@@3IA	; NumberOfPOVs
	jae	$LN53@RefreshJoy

; 1676 : 			{
; 1677 : 				Direction = 0;

	mov	DWORD PTR _Direction$16[ebp], 0

; 1678 : 				if((IO.povHatAngle[i] < 2250 || IO.povHatAngle[i] > 33750) && IO.povHatAngle[i] != -1)

	mov	eax, DWORD PTR _i$20[ebp]
	cmp	DWORD PTR ?IO@@3VSIMLIB_IO_CLASS@@A[eax*4+1640], 2250 ; 000008caH
	jb	SHORT $LN51@RefreshJoy
	mov	ecx, DWORD PTR _i$20[ebp]
	cmp	DWORD PTR ?IO@@3VSIMLIB_IO_CLASS@@A[ecx*4+1640], 33750 ; 000083d6H
	jbe	SHORT $LN52@RefreshJoy
$LN51@RefreshJoy:
	mov	edx, DWORD PTR _i$20[ebp]
	cmp	DWORD PTR ?IO@@3VSIMLIB_IO_CLASS@@A[edx*4+1640], -1
	je	SHORT $LN52@RefreshJoy

; 1679 : 				{
; 1680 : 					flags |= 0x01;

	mov	eax, DWORD PTR _flags$18[ebp]
	or	eax, 1
	mov	DWORD PTR _flags$18[ebp], eax

; 1681 : 					Direction = 0;

	mov	DWORD PTR _Direction$16[ebp], 0
	jmp	$LN37@RefreshJoy
$LN52@RefreshJoy:

; 1682 : 				}
; 1683 : 				else if(IO.povHatAngle[i] < 6750 )

	mov	ecx, DWORD PTR _i$20[ebp]
	cmp	DWORD PTR ?IO@@3VSIMLIB_IO_CLASS@@A[ecx*4+1640], 6750 ; 00001a5eH
	jae	SHORT $LN49@RefreshJoy

; 1684 : 				{
; 1685 : 					flags |= 0x03;

	mov	edx, DWORD PTR _flags$18[ebp]
	or	edx, 3
	mov	DWORD PTR _flags$18[ebp], edx

; 1686 : 					Direction = 1;

	mov	DWORD PTR _Direction$16[ebp], 1
	jmp	$LN37@RefreshJoy
$LN49@RefreshJoy:

; 1687 : 				}
; 1688 : 				else if(IO.povHatAngle[i] < 11250)

	mov	eax, DWORD PTR _i$20[ebp]
	cmp	DWORD PTR ?IO@@3VSIMLIB_IO_CLASS@@A[eax*4+1640], 11250 ; 00002bf2H
	jae	SHORT $LN47@RefreshJoy

; 1689 : 				{
; 1690 : 					flags |= 0x02;

	mov	ecx, DWORD PTR _flags$18[ebp]
	or	ecx, 2
	mov	DWORD PTR _flags$18[ebp], ecx

; 1691 : 					Direction = 2;

	mov	DWORD PTR _Direction$16[ebp], 2
	jmp	$LN37@RefreshJoy
$LN47@RefreshJoy:

; 1692 : 				}
; 1693 : 				else if(IO.povHatAngle[i] < 15750)

	mov	edx, DWORD PTR _i$20[ebp]
	cmp	DWORD PTR ?IO@@3VSIMLIB_IO_CLASS@@A[edx*4+1640], 15750 ; 00003d86H
	jae	SHORT $LN45@RefreshJoy

; 1694 : 				{
; 1695 : 					flags |= 0x06;

	mov	eax, DWORD PTR _flags$18[ebp]
	or	eax, 6
	mov	DWORD PTR _flags$18[ebp], eax

; 1696 : 					Direction = 3;

	mov	DWORD PTR _Direction$16[ebp], 3
	jmp	$LN37@RefreshJoy
$LN45@RefreshJoy:

; 1697 : 				}
; 1698 : 				else if(IO.povHatAngle[i] < 20250)

	mov	ecx, DWORD PTR _i$20[ebp]
	cmp	DWORD PTR ?IO@@3VSIMLIB_IO_CLASS@@A[ecx*4+1640], 20250 ; 00004f1aH
	jae	SHORT $LN43@RefreshJoy

; 1699 : 				{
; 1700 : 					flags |= 0x04;

	mov	edx, DWORD PTR _flags$18[ebp]
	or	edx, 4
	mov	DWORD PTR _flags$18[ebp], edx

; 1701 : 					Direction = 4;

	mov	DWORD PTR _Direction$16[ebp], 4
	jmp	$LN37@RefreshJoy
$LN43@RefreshJoy:

; 1702 : 				}
; 1703 : 				else if(IO.povHatAngle[i] < 24750)

	mov	eax, DWORD PTR _i$20[ebp]
	cmp	DWORD PTR ?IO@@3VSIMLIB_IO_CLASS@@A[eax*4+1640], 24750 ; 000060aeH
	jae	SHORT $LN41@RefreshJoy

; 1704 : 				{
; 1705 : 					flags |= 0x0C;

	mov	ecx, DWORD PTR _flags$18[ebp]
	or	ecx, 12					; 0000000cH
	mov	DWORD PTR _flags$18[ebp], ecx

; 1706 : 					Direction = 5;

	mov	DWORD PTR _Direction$16[ebp], 5
	jmp	SHORT $LN37@RefreshJoy
$LN41@RefreshJoy:

; 1707 : 				}
; 1708 : 				else if(IO.povHatAngle[i] < 29250)

	mov	edx, DWORD PTR _i$20[ebp]
	cmp	DWORD PTR ?IO@@3VSIMLIB_IO_CLASS@@A[edx*4+1640], 29250 ; 00007242H
	jae	SHORT $LN39@RefreshJoy

; 1709 : 				{
; 1710 : 					flags |= 0x08;

	mov	eax, DWORD PTR _flags$18[ebp]
	or	eax, 8
	mov	DWORD PTR _flags$18[ebp], eax

; 1711 : 					Direction = 6;

	mov	DWORD PTR _Direction$16[ebp], 6
	jmp	SHORT $LN37@RefreshJoy
$LN39@RefreshJoy:

; 1712 : 				}
; 1713 : 				else if(IO.povHatAngle[i] < 33750)

	mov	ecx, DWORD PTR _i$20[ebp]
	cmp	DWORD PTR ?IO@@3VSIMLIB_IO_CLASS@@A[ecx*4+1640], 33750 ; 000083d6H
	jae	SHORT $LN37@RefreshJoy

; 1714 : 				{
; 1715 : 					flags |= 0x09;

	mov	edx, DWORD PTR _flags$18[ebp]
	or	edx, 9
	mov	DWORD PTR _flags$18[ebp], edx

; 1716 : 					Direction = 7;

	mov	DWORD PTR _Direction$16[ebp], 7
$LN37@RefreshJoy:

; 1717 : 				}
; 1718 : 
; 1719 : 				if(KeyVar.EditKey && IO.povHatAngle[i] != -1)

	cmp	DWORD PTR ?KeyVar@@3UKeyVars@@A, 0
	je	SHORT $LN36@RefreshJoy
	mov	eax, DWORD PTR _i$20[ebp]
	cmp	DWORD PTR ?IO@@3VSIMLIB_IO_CLASS@@A[eax*4+1640], -1
	je	SHORT $LN36@RefreshJoy

; 1720 : 				{
; 1721 : 					C_Button *button;
; 1722 : 
; 1723 : 					button = (C_Button *)win->FindControl(KeyVar.CurrControl);

	mov	ecx, DWORD PTR ?KeyVar@@3UKeyVars@@A+12
	push	ecx
	mov	ecx, DWORD PTR _win$[ebp]
	call	?FindControl@C_Window@@QAEPAVC_Base@@J@Z ; C_Window::FindControl
	mov	DWORD PTR _button$8[ebp], eax

; 1724 : 					UserFunctionTable.SetPOVFunction(i,Direction,(InputFunctionType)button->GetUserPtr(FUNCTION_PTR),button->GetUserNumber(BUTTON_ID));

	push	2
	mov	ecx, DWORD PTR _button$8[ebp]
	call	?GetUserNumber@C_Base@@QAEJJ@Z		; C_Base::GetUserNumber
	push	eax
	push	5
	mov	ecx, DWORD PTR _button$8[ebp]
	call	?GetUserPtr@C_Base@@QAEPAXJ@Z		; C_Base::GetUserPtr
	push	eax
	mov	edx, DWORD PTR _Direction$16[ebp]
	push	edx
	mov	eax, DWORD PTR _i$20[ebp]
	push	eax
	mov	ecx, OFFSET ?UserFunctionTable@@3VInputFunctionHashTable@@A ; UserFunctionTable
	call	?SetPOVFunction@InputFunctionHashTable@@QAEHHHP6AXKHPAX@ZH@Z ; InputFunctionHashTable::SetPOVFunction

; 1725 : 					KeyVar.EditKey = FALSE;

	mov	DWORD PTR ?KeyVar@@3UKeyVars@@A, 0

; 1726 : 					KeyVar.Modified = TRUE;

	mov	DWORD PTR ?KeyVar@@3UKeyVars@@A+20, 1

; 1727 : 					SetButtonColor(button);

	mov	ecx, DWORD PTR _button$8[ebp]
	push	ecx
	call	?SetButtonColor@@YAXPAVC_Button@@@Z	; SetButtonColor
	add	esp, 4
$LN36@RefreshJoy:

; 1728 : 				}
; 1729 : 
; 1730 : 				C_Text *text = (C_Text *)win->FindControl(FUNCTION_LIST);

	push	70085					; 000111c5H
	mov	ecx, DWORD PTR _win$[ebp]
	call	?FindControl@C_Window@@QAEPAVC_Base@@J@Z ; C_Window::FindControl
	mov	DWORD PTR _text$17[ebp], eax

; 1731 : 				if(text && IO.povHatAngle[i] != -1)

	cmp	DWORD PTR _text$17[ebp], 0
	je	$LN35@RefreshJoy
	mov	edx, DWORD PTR _i$20[ebp]
	cmp	DWORD PTR ?IO@@3VSIMLIB_IO_CLASS@@A[edx*4+1640], -1
	je	$LN35@RefreshJoy

; 1732 : 				{
; 1733 : 					C_Text *text2 = (C_Text *)win->FindControl(CONTROL_KEYS); 

	push	70101					; 000111d5H
	mov	ecx, DWORD PTR _win$[ebp]
	call	?FindControl@C_Window@@QAEPAVC_Base@@J@Z ; C_Window::FindControl
	mov	DWORD PTR _text2$13[ebp], eax

; 1734 : 					if(text2)

	cmp	DWORD PTR _text2$13[ebp], 0
	je	$LN34@RefreshJoy

; 1735 : 					{
; 1736 : 						char button[_MAX_PATH];
; 1737 : 						text2->Refresh();

	mov	eax, DWORD PTR _text2$13[ebp]
	mov	edx, DWORD PTR [eax]
	mov	ecx, DWORD PTR _text2$13[ebp]
	mov	eax, DWORD PTR [edx+160]
	call	eax

; 1738 : 						sprintf(button,"%s %d : %s", gStringMgr->GetString(TXT_POV), i+1, gStringMgr->GetString(TXT_UP + Direction));																		

	mov	ecx, DWORD PTR _Direction$16[ebp]
	add	ecx, 405				; 00000195H
	push	ecx
	mov	ecx, DWORD PTR ?gStringMgr@@3PAVC_String@@A ; gStringMgr
	call	?GetString@C_String@@QAEPADJ@Z		; C_String::GetString
	push	eax
	mov	edx, DWORD PTR _i$20[ebp]
	add	edx, 1
	push	edx
	push	413					; 0000019dH
	mov	ecx, DWORD PTR ?gStringMgr@@3PAVC_String@@A ; gStringMgr
	call	?GetString@C_String@@QAEPADJ@Z		; C_String::GetString
	push	eax
	push	OFFSET ??_C@_0L@EEMIHBGL@?$CFs?5?$CFd?5?3?5?$CFs?$AA@
	lea	eax, DWORD PTR _button$22[ebp]
	push	eax
	call	_sprintf
	add	esp, 20					; 00000014H

; 1739 : 						text2->SetText(button);

	lea	ecx, DWORD PTR _button$22[ebp]
	push	ecx
	mov	edx, DWORD PTR _text2$13[ebp]
	mov	eax, DWORD PTR [edx]
	mov	ecx, DWORD PTR _text2$13[ebp]
	mov	edx, DWORD PTR [eax+256]
	call	edx

; 1740 : 						text2->Refresh();

	mov	eax, DWORD PTR _text2$13[ebp]
	mov	edx, DWORD PTR [eax]
	mov	ecx, DWORD PTR _text2$13[ebp]
	mov	eax, DWORD PTR [edx+160]
	call	eax
$LN34@RefreshJoy:

; 1741 : 					}
; 1742 : 
; 1743 : 					InputFunctionType func;
; 1744 : 					char *descrip;
; 1745 : 
; 1746 : 					text->Refresh();

	mov	ecx, DWORD PTR _text$17[ebp]
	mov	edx, DWORD PTR [ecx]
	mov	ecx, DWORD PTR _text$17[ebp]
	mov	eax, DWORD PTR [edx+160]
	call	eax

; 1747 : 					if(func = UserFunctionTable.GetPOVFunction(i,Direction,NULL))

	push	0
	mov	ecx, DWORD PTR _Direction$16[ebp]
	push	ecx
	mov	edx, DWORD PTR _i$20[ebp]
	push	edx
	mov	ecx, OFFSET ?UserFunctionTable@@3VInputFunctionHashTable@@A ; UserFunctionTable
	call	?GetPOVFunction@InputFunctionHashTable@@QAEP6AXKHPAX@ZHHPAH@Z ; InputFunctionHashTable::GetPOVFunction
	mov	DWORD PTR _func$3[ebp], eax
	cmp	DWORD PTR _func$3[ebp], 0
	je	$LN33@RefreshJoy

; 1748 : 					{
; 1749 : 						int i = 0;

	mov	DWORD PTR _i$9[ebp], 0

; 1750 : 
; 1751 : 						C_Button *tButton = (C_Button *)win->FindControl(KEYCODES);

	push	100000					; 000186a0H
	mov	ecx, DWORD PTR _win$[ebp]
	call	?FindControl@C_Window@@QAEPAVC_Base@@J@Z ; C_Window::FindControl
	mov	DWORD PTR _tButton$11[ebp], eax
$LN32@RefreshJoy:

; 1752 : 						while(tButton)

	cmp	DWORD PTR _tButton$11[ebp], 0
	je	$LN31@RefreshJoy

; 1753 : 						{								
; 1754 : 							if(func == (InputFunctionType)tButton->GetUserPtr(5))

	push	5
	mov	ecx, DWORD PTR _tButton$11[ebp]
	call	?GetUserPtr@C_Base@@QAEPAXJ@Z		; C_Base::GetUserPtr
	cmp	DWORD PTR _func$3[ebp], eax
	jne	$LN30@RefreshJoy

; 1755 : 							{
; 1756 : 								C_Text *temp = (C_Text *)win->FindControl(tButton->GetID()- KEYCODES + MAPPING);

	mov	ecx, DWORD PTR _tButton$11[ebp]
	call	?GetID@C_Base@@QAEJXZ			; C_Base::GetID
	add	eax, 10000				; 00002710H
	push	eax
	mov	ecx, DWORD PTR _win$[ebp]
	call	?FindControl@C_Window@@QAEPAVC_Base@@J@Z ; C_Window::FindControl
	mov	DWORD PTR _temp$2[ebp], eax

; 1757 : 								
; 1758 : 								if(temp)

	cmp	DWORD PTR _temp$2[ebp], 0
	je	SHORT $LN28@RefreshJoy

; 1759 : 								{
; 1760 : 									descrip = temp->GetText();

	mov	ecx, DWORD PTR _temp$2[ebp]
	call	?GetText@C_Text@@QAEPADXZ		; C_Text::GetText
	mov	DWORD PTR _descrip$6[ebp], eax

; 1761 : 									if(descrip)

	cmp	DWORD PTR _descrip$6[ebp], 0
	je	SHORT $LN28@RefreshJoy

; 1762 : 									{
; 1763 : 										text->SetText(descrip);

	mov	eax, DWORD PTR _descrip$6[ebp]
	push	eax
	mov	ecx, DWORD PTR _text$17[ebp]
	mov	edx, DWORD PTR [ecx]
	mov	ecx, DWORD PTR _text$17[ebp]
	mov	eax, DWORD PTR [edx+256]
	call	eax

; 1764 : 										break;

	jmp	SHORT $LN31@RefreshJoy
$LN28@RefreshJoy:

; 1765 : 									}
; 1766 : 								}
; 1767 : 								text->SetText("");

	push	OFFSET ??_C@_00CNPNBAHC@?$AA@
	mov	ecx, DWORD PTR _text$17[ebp]
	mov	edx, DWORD PTR [ecx]
	mov	ecx, DWORD PTR _text$17[ebp]
	mov	eax, DWORD PTR [edx+256]
	call	eax

; 1768 : 								break;

	jmp	SHORT $LN31@RefreshJoy

; 1769 : 							}
; 1770 : 							else

	jmp	SHORT $LN27@RefreshJoy
$LN30@RefreshJoy:

; 1771 : 							{
; 1772 : 								tButton = (C_Button *)win->FindControl(KEYCODES + i++);

	mov	ecx, DWORD PTR _i$9[ebp]
	add	ecx, 100000				; 000186a0H
	mov	DWORD PTR tv1044[ebp], ecx
	mov	edx, DWORD PTR tv1044[ebp]
	push	edx
	mov	ecx, DWORD PTR _win$[ebp]
	call	?FindControl@C_Window@@QAEPAVC_Base@@J@Z ; C_Window::FindControl
	mov	DWORD PTR tv1046[ebp], eax
	mov	eax, DWORD PTR _i$9[ebp]
	add	eax, 1
	mov	DWORD PTR _i$9[ebp], eax
	mov	ecx, DWORD PTR tv1046[ebp]
	mov	DWORD PTR _tButton$11[ebp], ecx
$LN27@RefreshJoy:

; 1773 : 							}
; 1774 : 						}

	jmp	$LN32@RefreshJoy
$LN31@RefreshJoy:

; 1775 : 					}
; 1776 : 					else

	jmp	SHORT $LN26@RefreshJoy
$LN33@RefreshJoy:

; 1777 : 					{
; 1778 : 						text->SetText(TXT_NO_FUNCTION);

	push	17					; 00000011H
	mov	edx, DWORD PTR _text$17[ebp]
	mov	eax, DWORD PTR [edx]
	mov	ecx, DWORD PTR _text$17[ebp]
	mov	edx, DWORD PTR [eax+252]
	call	edx
$LN26@RefreshJoy:

; 1779 : 					}
; 1780 : 					text->Refresh();

	mov	eax, DWORD PTR _text$17[ebp]
	mov	edx, DWORD PTR [eax]
	mov	ecx, DWORD PTR _text$17[ebp]
	mov	eax, DWORD PTR [edx+160]
	call	eax
$LN35@RefreshJoy:

; 1781 : 				}		
; 1782 : 			}

	jmp	$LN54@RefreshJoy
$LN53@RefreshJoy:

; 1783 : 
; 1784 : 			button=(C_Button *)win->FindControl(UP_HAT);

	push	70042					; 0001119aH
	mov	ecx, DWORD PTR _win$[ebp]
	call	?FindControl@C_Window@@QAEPAVC_Base@@J@Z ; C_Window::FindControl
	mov	DWORD PTR _button$[ebp], eax

; 1785 : 			if(button != NULL && button->GetState() != C_STATE_DISABLED)

	cmp	DWORD PTR _button$[ebp], 0
	je	SHORT $LN25@RefreshJoy
	mov	ecx, DWORD PTR _button$[ebp]
	mov	edx, DWORD PTR [ecx]
	mov	ecx, DWORD PTR _button$[ebp]
	mov	eax, DWORD PTR [edx+112]
	call	eax
	movsx	ecx, ax
	cmp	ecx, 21					; 00000015H
	je	SHORT $LN25@RefreshJoy

; 1786 : 			{
; 1787 : 				if(flags & 0x01)

	mov	edx, DWORD PTR _flags$18[ebp]
	and	edx, 1
	je	SHORT $LN24@RefreshJoy

; 1788 : 					button->SetState(C_STATE_1);

	push	1
	mov	eax, DWORD PTR _button$[ebp]
	mov	edx, DWORD PTR [eax]
	mov	ecx, DWORD PTR _button$[ebp]
	mov	eax, DWORD PTR [edx+56]
	call	eax

; 1789 : 				else

	jmp	SHORT $LN23@RefreshJoy
$LN24@RefreshJoy:

; 1790 : 					button->SetState(C_STATE_0);

	push	0
	mov	ecx, DWORD PTR _button$[ebp]
	mov	edx, DWORD PTR [ecx]
	mov	ecx, DWORD PTR _button$[ebp]
	mov	eax, DWORD PTR [edx+56]
	call	eax
$LN23@RefreshJoy:

; 1791 : 				button->Refresh();

	mov	ecx, DWORD PTR _button$[ebp]
	mov	edx, DWORD PTR [ecx]
	mov	ecx, DWORD PTR _button$[ebp]
	mov	eax, DWORD PTR [edx+160]
	call	eax
$LN25@RefreshJoy:

; 1792 : 			}
; 1793 : 			
; 1794 : 			button=(C_Button *)win->FindControl(RIGHT_HAT);

	push	70040					; 00011198H
	mov	ecx, DWORD PTR _win$[ebp]
	call	?FindControl@C_Window@@QAEPAVC_Base@@J@Z ; C_Window::FindControl
	mov	DWORD PTR _button$[ebp], eax

; 1795 : 			if(button != NULL && button->GetState() != C_STATE_DISABLED)

	cmp	DWORD PTR _button$[ebp], 0
	je	SHORT $LN22@RefreshJoy
	mov	ecx, DWORD PTR _button$[ebp]
	mov	edx, DWORD PTR [ecx]
	mov	ecx, DWORD PTR _button$[ebp]
	mov	eax, DWORD PTR [edx+112]
	call	eax
	movsx	ecx, ax
	cmp	ecx, 21					; 00000015H
	je	SHORT $LN22@RefreshJoy

; 1796 : 			{
; 1797 : 				if(flags & 0x02)

	mov	edx, DWORD PTR _flags$18[ebp]
	and	edx, 2
	je	SHORT $LN21@RefreshJoy

; 1798 : 					button->SetState(C_STATE_1);

	push	1
	mov	eax, DWORD PTR _button$[ebp]
	mov	edx, DWORD PTR [eax]
	mov	ecx, DWORD PTR _button$[ebp]
	mov	eax, DWORD PTR [edx+56]
	call	eax

; 1799 : 				else

	jmp	SHORT $LN20@RefreshJoy
$LN21@RefreshJoy:

; 1800 : 					button->SetState(C_STATE_0);

	push	0
	mov	ecx, DWORD PTR _button$[ebp]
	mov	edx, DWORD PTR [ecx]
	mov	ecx, DWORD PTR _button$[ebp]
	mov	eax, DWORD PTR [edx+56]
	call	eax
$LN20@RefreshJoy:

; 1801 : 				button->Refresh();

	mov	ecx, DWORD PTR _button$[ebp]
	mov	edx, DWORD PTR [ecx]
	mov	ecx, DWORD PTR _button$[ebp]
	mov	eax, DWORD PTR [edx+160]
	call	eax
$LN22@RefreshJoy:

; 1802 : 			}
; 1803 : 			
; 1804 : 			button=(C_Button *)win->FindControl(DOWN_HAT);

	push	70043					; 0001119bH
	mov	ecx, DWORD PTR _win$[ebp]
	call	?FindControl@C_Window@@QAEPAVC_Base@@J@Z ; C_Window::FindControl
	mov	DWORD PTR _button$[ebp], eax

; 1805 : 			if(button != NULL && button->GetState() != C_STATE_DISABLED)

	cmp	DWORD PTR _button$[ebp], 0
	je	SHORT $LN19@RefreshJoy
	mov	ecx, DWORD PTR _button$[ebp]
	mov	edx, DWORD PTR [ecx]
	mov	ecx, DWORD PTR _button$[ebp]
	mov	eax, DWORD PTR [edx+112]
	call	eax
	movsx	ecx, ax
	cmp	ecx, 21					; 00000015H
	je	SHORT $LN19@RefreshJoy

; 1806 : 			{
; 1807 : 				if(flags & 0x04)

	mov	edx, DWORD PTR _flags$18[ebp]
	and	edx, 4
	je	SHORT $LN18@RefreshJoy

; 1808 : 					button->SetState(C_STATE_1);

	push	1
	mov	eax, DWORD PTR _button$[ebp]
	mov	edx, DWORD PTR [eax]
	mov	ecx, DWORD PTR _button$[ebp]
	mov	eax, DWORD PTR [edx+56]
	call	eax

; 1809 : 				else

	jmp	SHORT $LN17@RefreshJoy
$LN18@RefreshJoy:

; 1810 : 					button->SetState(C_STATE_0);

	push	0
	mov	ecx, DWORD PTR _button$[ebp]
	mov	edx, DWORD PTR [ecx]
	mov	ecx, DWORD PTR _button$[ebp]
	mov	eax, DWORD PTR [edx+56]
	call	eax
$LN17@RefreshJoy:

; 1811 : 				button->Refresh();

	mov	ecx, DWORD PTR _button$[ebp]
	mov	edx, DWORD PTR [ecx]
	mov	ecx, DWORD PTR _button$[ebp]
	mov	eax, DWORD PTR [edx+160]
	call	eax
$LN19@RefreshJoy:

; 1812 : 			}
; 1813 : 			
; 1814 : 			button=(C_Button *)win->FindControl(LEFT_HAT);

	push	70041					; 00011199H
	mov	ecx, DWORD PTR _win$[ebp]
	call	?FindControl@C_Window@@QAEPAVC_Base@@J@Z ; C_Window::FindControl
	mov	DWORD PTR _button$[ebp], eax

; 1815 : 			if(button != NULL && button->GetState() != C_STATE_DISABLED)

	cmp	DWORD PTR _button$[ebp], 0
	je	SHORT $LN16@RefreshJoy
	mov	ecx, DWORD PTR _button$[ebp]
	mov	edx, DWORD PTR [ecx]
	mov	ecx, DWORD PTR _button$[ebp]
	mov	eax, DWORD PTR [edx+112]
	call	eax
	movsx	ecx, ax
	cmp	ecx, 21					; 00000015H
	je	SHORT $LN16@RefreshJoy

; 1816 : 			{
; 1817 : 				if(flags & 0x08)

	mov	edx, DWORD PTR _flags$18[ebp]
	and	edx, 8
	je	SHORT $LN15@RefreshJoy

; 1818 : 					button->SetState(C_STATE_1);

	push	1
	mov	eax, DWORD PTR _button$[ebp]
	mov	edx, DWORD PTR [eax]
	mov	ecx, DWORD PTR _button$[ebp]
	mov	eax, DWORD PTR [edx+56]
	call	eax

; 1819 : 				else

	jmp	SHORT $LN14@RefreshJoy
$LN15@RefreshJoy:

; 1820 : 					button->SetState(C_STATE_0);

	push	0
	mov	ecx, DWORD PTR _button$[ebp]
	mov	edx, DWORD PTR [ecx]
	mov	ecx, DWORD PTR _button$[ebp]
	mov	eax, DWORD PTR [edx+56]
	call	eax
$LN14@RefreshJoy:

; 1821 : 				button->Refresh();

	mov	ecx, DWORD PTR _button$[ebp]
	mov	edx, DWORD PTR [ecx]
	mov	ecx, DWORD PTR _button$[ebp]
	mov	eax, DWORD PTR [edx+160]
	call	eax
$LN16@RefreshJoy:

; 1822 : 			}
; 1823 : 			
; 1824 : 			InitializeValueBars = 0;	// Retro 26Dec2003

	mov	DWORD PTR ?InitializeValueBars@@3HA, 0	; InitializeValueBars

; 1825 : 
; 1826 : 			JoyXPrev = IO.analog[AXIS_ROLL].engrValue;

	mov	ecx, 28					; 0000001cH
	shl	ecx, 0
	movss	xmm0, DWORD PTR ?IO@@3VSIMLIB_IO_CLASS@@A[ecx+16]
	movss	DWORD PTR ?JoyXPrev@?1??RefreshJoystickCB@@YAXJFPAVC_Base@@@Z@4MA, xmm0

; 1827 : 			JoyYPrev = IO.analog[AXIS_PITCH].engrValue; 

	mov	edx, 28					; 0000001cH
	imul	edx, 0
	movss	xmm0, DWORD PTR ?IO@@3VSIMLIB_IO_CLASS@@A[edx+16]
	movss	DWORD PTR ?JoyYPrev@?1??RefreshJoystickCB@@YAXJFPAVC_Base@@@Z@4MA, xmm0

; 1828 : 			ThrottlePrev = IO.analog[AXIS_THROTTLE].engrValue;

	mov	eax, 28					; 0000001cH
	imul	eax, 3
	movss	xmm0, DWORD PTR ?IO@@3VSIMLIB_IO_CLASS@@A[eax+16]
	movss	DWORD PTR ?ThrottlePrev@?1??RefreshJoystickCB@@YAXJFPAVC_Base@@@Z@4MA, xmm0

; 1829 : 			RudderPrev = IO.analog[AXIS_YAW].engrValue;

	mov	ecx, 28					; 0000001cH
	shl	ecx, 1
	movss	xmm0, DWORD PTR ?IO@@3VSIMLIB_IO_CLASS@@A[ecx+16]
	movss	DWORD PTR ?RudderPrev@?1??RefreshJoystickCB@@YAXJFPAVC_Base@@@Z@4MA, xmm0

; 1830 : 			ABDetentPrev = static_cast<float>(IO.analog[AXIS_THROTTLE].center);

	mov	edx, 28					; 0000001cH
	imul	edx, 3
	cvtsi2ss xmm0, DWORD PTR ?IO@@3VSIMLIB_IO_CLASS@@A[edx]
	movss	DWORD PTR ?ABDetentPrev@?1??RefreshJoystickCB@@YAXJFPAVC_Base@@@Z@4MA, xmm0

; 1831 : 			IdleCutoffPrev = static_cast<float>(IO.analog[AXIS_THROTTLE].cutoff);	// Retro 1Feb2004

	mov	eax, 28					; 0000001cH
	imul	eax, 3
	cvtsi2ss xmm0, DWORD PTR ?IO@@3VSIMLIB_IO_CLASS@@A[eax+4]
	movss	DWORD PTR ?IdleCutoffPrev@?1??RefreshJoystickCB@@YAXJFPAVC_Base@@@Z@4MA, xmm0

; 1832 : 
; 1833 : 			POVPrev = IO.povHatAngle[0];

	mov	ecx, 4
	imul	ecx, 0
	mov	edx, DWORD PTR ?IO@@3VSIMLIB_IO_CLASS@@A[ecx+1640]
	mov	DWORD PTR ?POVPrev@?1??RefreshJoystickCB@@YAXJFPAVC_Base@@@Z@4KA, edx
$LN104@RefreshJoy:

; 1834 : 		}
; 1835 : 	//if(Calibration.calibrating)
; 1836 : 	//	Calibrate();
; 1837 : 
; 1838 : 	// Retro - trying to get some of this shit into my advanced controller window..
; 1839 : 	win=gMainHandler->FindWindow(SETUP_CONTROL_ADVANCED_WIN);

	push	70221					; 0001124dH
	mov	ecx, DWORD PTR ?gMainHandler@@3PAVC_Handler@@A ; gMainHandler
	call	?FindWindowA@C_Handler@@QAEPAVC_Window@@J@Z ; C_Handler::FindWindowA
	mov	DWORD PTR _win$[ebp], eax

; 1840 : 	if(!win) return;

	cmp	DWORD PTR _win$[ebp], 0
	jne	SHORT $LN13@RefreshJoy
	jmp	$LN106@RefreshJoy
$LN13@RefreshJoy:

; 1841 : 
; 1842 : 	for (int i = 0; i < AXIS_MAX; i++)

	mov	DWORD PTR _i$15[ebp], 0
	jmp	SHORT $LN12@RefreshJoy
$LN11@RefreshJoy:
	mov	eax, DWORD PTR _i$15[ebp]
	add	eax, 1
	mov	DWORD PTR _i$15[ebp], eax
$LN12@RefreshJoy:
	cmp	DWORD PTR _i$15[ebp], 22		; 00000016H
	jge	$LN10@RefreshJoy

; 1843 : 	{
; 1844 : 		if (UIInputStuff[i].AxisValueBar == 0)

	mov	ecx, DWORD PTR _i$15[ebp]
	imul	ecx, 28					; 0000001cH
	cmp	DWORD PTR ?UIInputStuff@@3PAUUIInputStuff_t@@A[ecx+8], 0
	jne	SHORT $LN9@RefreshJoy

; 1845 : 			continue;

	jmp	SHORT $LN11@RefreshJoy
$LN9@RefreshJoy:

; 1846 : 
; 1847 : 		line=(C_Line *)win->FindControl(UIInputStuff[i].AxisValueBar);

	mov	edx, DWORD PTR _i$15[ebp]
	imul	edx, 28					; 0000001cH
	mov	eax, DWORD PTR ?UIInputStuff@@3PAUUIInputStuff_t@@A[edx+8]
	push	eax
	mov	ecx, DWORD PTR _win$[ebp]
	call	?FindControl@C_Window@@QAEPAVC_Base@@J@Z ; C_Window::FindControl
	mov	DWORD PTR _line$[ebp], eax

; 1848 : 
; 1849 : 		if(line != NULL)

	cmp	DWORD PTR _line$[ebp], 0
	je	$LN8@RefreshJoy

; 1850 : 		{
; 1851 : 			line->Refresh();

	mov	ecx, DWORD PTR _line$[ebp]
	mov	edx, DWORD PTR [ecx]
	mov	ecx, DWORD PTR _line$[ebp]
	mov	eax, DWORD PTR [edx+160]
	call	eax

; 1852 : 
; 1853 : 			float newWidth = 0;

	movss	xmm0, DWORD PTR __real@00000000
	movss	DWORD PTR _newWidth$14[ebp], xmm0

; 1854 : 
; 1855 : 			if (IO.AnalogIsUsed(UIInputStuff[i].InGameAxis) == true)

	mov	ecx, DWORD PTR _i$15[ebp]
	imul	ecx, 28					; 0000001cH
	mov	edx, DWORD PTR ?UIInputStuff@@3PAUUIInputStuff_t@@A[ecx]
	push	edx
	mov	ecx, OFFSET ?IO@@3VSIMLIB_IO_CLASS@@A	; IO
	call	?AnalogIsUsed@SIMLIB_IO_CLASS@@QAE_NW4GameAxis_t@@@Z ; SIMLIB_IO_CLASS::AnalogIsUsed
	movzx	eax, al
	cmp	eax, 1
	jne	$LN7@RefreshJoy

; 1856 : 			{
; 1857 : 				if (AxisSetup[UIInputStuff[i].InGameAxis].isUniPolar == true)

	mov	ecx, DWORD PTR _i$15[ebp]
	imul	ecx, 28					; 0000001cH
	mov	edx, DWORD PTR ?UIInputStuff@@3PAUUIInputStuff_t@@A[ecx]
	imul	edx, 20					; 00000014H
	movzx	eax, BYTE PTR ?AxisSetup@@3PAUGameAxisSetup_t@@A[edx+16]
	cmp	eax, 1
	jne	SHORT $LN6@RefreshJoy

; 1858 : 					newWidth  = (float) FloatToInt32(static_cast<float>(IO.analog[UIInputStuff[i].InGameAxis].ioVal/15000.0F * AxisValueBoxWScale + .5));

	mov	ecx, DWORD PTR _i$15[ebp]
	imul	ecx, 28					; 0000001cH
	mov	edx, DWORD PTR ?UIInputStuff@@3PAUUIInputStuff_t@@A[ecx]
	imul	edx, 28					; 0000001cH
	cvtsi2ss xmm0, DWORD PTR ?IO@@3VSIMLIB_IO_CLASS@@A[edx+8]
	divss	xmm0, DWORD PTR __real@466a6000
	mulss	xmm0, DWORD PTR ?AxisValueBoxWScale@@3MA
	cvtss2sd xmm0, xmm0
	addsd	xmm0, QWORD PTR __real@3fe0000000000000
	cvtsd2ss xmm0, xmm0
	push	ecx
	movss	DWORD PTR [esp], xmm0
	call	?FloatToInt32@@YAHM@Z			; FloatToInt32
	add	esp, 4
	cvtsi2ss xmm0, eax
	movss	DWORD PTR _newWidth$14[ebp], xmm0

; 1859 : 				else

	jmp	SHORT $LN5@RefreshJoy
$LN6@RefreshJoy:

; 1860 : 					newWidth = (float) FloatToInt32(static_cast<float>(AxisValueBoxWScale/2. + IO.analog[UIInputStuff[i].InGameAxis].ioVal/20000.0F * AxisValueBoxWScale + .5));

	cvtss2sd xmm0, DWORD PTR ?AxisValueBoxWScale@@3MA
	divsd	xmm0, QWORD PTR __real@4000000000000000
	mov	eax, DWORD PTR _i$15[ebp]
	imul	eax, 28					; 0000001cH
	mov	ecx, DWORD PTR ?UIInputStuff@@3PAUUIInputStuff_t@@A[eax]
	imul	ecx, 28					; 0000001cH
	cvtsi2ss xmm1, DWORD PTR ?IO@@3VSIMLIB_IO_CLASS@@A[ecx+8]
	divss	xmm1, DWORD PTR __real@469c4000
	mulss	xmm1, DWORD PTR ?AxisValueBoxWScale@@3MA
	cvtss2sd xmm1, xmm1
	addsd	xmm0, xmm1
	addsd	xmm0, QWORD PTR __real@3fe0000000000000
	cvtsd2ss xmm0, xmm0
	push	ecx
	movss	DWORD PTR [esp], xmm0
	call	?FloatToInt32@@YAHM@Z			; FloatToInt32
	add	esp, 4
	cvtsi2ss xmm0, eax
	movss	DWORD PTR _newWidth$14[ebp], xmm0
$LN5@RefreshJoy:

; 1861 : 
; 1862 : 				if(newWidth < 0)

	movss	xmm0, DWORD PTR __real@00000000
	comiss	xmm0, DWORD PTR _newWidth$14[ebp]
	jbe	SHORT $LN4@RefreshJoy

; 1863 : 				{
; 1864 : 					newWidth = 0;

	movss	xmm0, DWORD PTR __real@00000000
	movss	DWORD PTR _newWidth$14[ebp], xmm0
$LN4@RefreshJoy:

; 1865 : 				}
; 1866 : 				if(newWidth > AxisValueBoxWScale)

	movss	xmm0, DWORD PTR _newWidth$14[ebp]
	comiss	xmm0, DWORD PTR ?AxisValueBoxWScale@@3MA
	jbe	SHORT $LN3@RefreshJoy

; 1867 : 				{
; 1868 : 					newWidth = AxisValueBoxWScale;

	movss	xmm0, DWORD PTR ?AxisValueBoxWScale@@3MA
	movss	DWORD PTR _newWidth$14[ebp], xmm0
$LN3@RefreshJoy:

; 1869 : 				}
; 1870 : 			}
; 1871 : 			else

	jmp	SHORT $LN2@RefreshJoy
$LN7@RefreshJoy:

; 1872 : 			{
; 1873 : 				newWidth = 0;

	movss	xmm0, DWORD PTR __real@00000000
	movss	DWORD PTR _newWidth$14[ebp], xmm0
$LN2@RefreshJoy:

; 1874 : 			}
; 1875 : 
; 1876 : 			line->SetW((long)newWidth);

	cvttss2si edx, DWORD PTR _newWidth$14[ebp]
	push	edx
	mov	eax, DWORD PTR _line$[ebp]
	mov	edx, DWORD PTR [eax]
	mov	ecx, DWORD PTR _line$[ebp]
	mov	eax, DWORD PTR [edx+24]
	call	eax

; 1877 : 			line->Refresh();

	mov	ecx, DWORD PTR _line$[ebp]
	mov	edx, DWORD PTR [ecx]
	mov	ecx, DWORD PTR _line$[ebp]
	mov	eax, DWORD PTR [edx+160]
	call	eax
$LN8@RefreshJoy:

; 1878 : 		}
; 1879 : 		else
; 1880 : 		{
; 1881 : 			ShiAssert(false);
; 1882 : 		}
; 1883 : 	}

	jmp	$LN11@RefreshJoy
$LN10@RefreshJoy:
$LN106@RefreshJoy:

; 1884 : }//RefreshJoystickCB

	mov	ecx, DWORD PTR __$ArrayPad$[ebp]
	xor	ecx, ebp
	call	@__security_check_cookie@4
	mov	esp, ebp
	pop	ebp
	ret	0
?RefreshJoystickCB@@YAXJFPAVC_Base@@@Z ENDP		; RefreshJoystickCB
_TEXT	ENDS
; Function compile flags: /Odtp
; File c:\users\zhitao li\documents\visual studio 2012\projects\freefalcon\ui\src\setup\controltab.cpp
_TEXT	SEGMENT
___formal$ = 8						; size = 4
_hittype$ = 12						; size = 2
___formal$ = 16						; size = 4
?SetABDetentCB@@YAXJFPAVC_Base@@@Z PROC			; SetABDetentCB

; 1399 : {

	push	ebp
	mov	ebp, esp

; 1400 : 	// Retro 1Feb2004
; 1401 : 	if ((hittype == C_TYPE_LMOUSEUP))

	movsx	eax, WORD PTR _hittype$[ebp]
	cmp	eax, 52					; 00000034H
	jne	SHORT $LN4@SetABDeten

; 1402 : 	{
; 1403 : 		setABdetent = TRUE;

	mov	DWORD PTR ?setABdetent@@3HA, 1		; setABdetent
	jmp	SHORT $LN5@SetABDeten
$LN4@SetABDeten:

; 1404 : 	}
; 1405 : 	else if ((hittype == C_TYPE_RMOUSEDOWN))

	movsx	ecx, WORD PTR _hittype$[ebp]
	cmp	ecx, 54					; 00000036H
	jne	SHORT $LN5@SetABDeten

; 1406 : 	{
; 1407 : 		setIdleCutoff = TRUE;

	mov	DWORD PTR ?setIdleCutoff@@3HA, 1	; setIdleCutoff
$LN5@SetABDeten:

; 1408 : 	}
; 1409 : 	else
; 1410 : 	{
; 1411 : 		return;	// do nothing
; 1412 : 	}
; 1413 : }

	pop	ebp
	ret	0
?SetABDetentCB@@YAXJFPAVC_Base@@@Z ENDP			; SetABDetentCB
_TEXT	ENDS
; Function compile flags: /Odtp
; File c:\users\zhitao li\documents\visual studio 2012\projects\freefalcon\ui\src\setup\controltab.cpp
_TEXT	SEGMENT
_pos$1 = -80						; size = 4
_pos$2 = -76						; size = 4
_pos$3 = -72						; size = 4
tv1034 = -68						; size = 4
tv1027 = -64						; size = 4
tv1022 = -60						; size = 4
_smax$4 = -56						; size = 4
_smax$5 = -52						; size = 4
_smax$6 = -48						; size = 4
tv384 = -44						; size = 4
_smin$7 = -40						; size = 4
_smin$8 = -36						; size = 4
_smin$9 = -32						; size = 4
_theSat$10 = -28					; size = 4
_theDead$11 = -24					; size = 4
_listbox$ = -20						; size = 4
_win$ = -16						; size = 4
_j$ = -12						; size = 4
_sldr$ = -8						; size = 4
_button$ = -4						; size = 4
___formal$ = 8						; size = 4
_hittype$ = 12						; size = 2
___formal$ = 16						; size = 4
?AdvancedControlCB@@YAXJFPAVC_Base@@@Z PROC		; AdvancedControlCB

; 1035 : {

	push	ebp
	mov	ebp, esp
	sub	esp, 80					; 00000050H

; 1036 : 
; 1037 : 	if ((hittype != C_TYPE_LMOUSEUP))

	movsx	eax, WORD PTR _hittype$[ebp]
	cmp	eax, 52					; 00000034H
	je	SHORT $LN88@AdvancedCo

; 1038 : 		return;

	jmp	$LN89@AdvancedCo
$LN88@AdvancedCo:

; 1039 : 
; 1040 : 	/* pointer to mommy */
; 1041 : 	C_Window	*win;
; 1042 : 
; 1043 : 	/* array of pointers to all axis listboxes in this sheet */
; 1044 : 	C_ListBox	*listbox;
; 1045 : 
; 1046 : 	win=gMainHandler->FindWindow(SETUP_WIN);

	push	70002					; 00011172H
	mov	ecx, DWORD PTR ?gMainHandler@@3PAVC_Handler@@A ; gMainHandler
	call	?FindWindowA@C_Handler@@QAEPAVC_Window@@J@Z ; C_Handler::FindWindowA
	mov	DWORD PTR _win$[ebp], eax

; 1047 : 	if(win == NULL) return;

	cmp	DWORD PTR _win$[ebp], 0
	jne	SHORT $LN87@AdvancedCo
	jmp	$LN89@AdvancedCo
$LN87@AdvancedCo:

; 1048 : 
; 1049 : 	win=gMainHandler->FindWindow(SETUP_CONTROL_ADVANCED_WIN);

	push	70221					; 0001124dH
	mov	ecx, DWORD PTR ?gMainHandler@@3PAVC_Handler@@A ; gMainHandler
	call	?FindWindowA@C_Handler@@QAEPAVC_Window@@J@Z ; C_Handler::FindWindowA
	mov	DWORD PTR _win$[ebp], eax

; 1050 : 	if(!win) return;

	cmp	DWORD PTR _win$[ebp], 0
	jne	SHORT $LN86@AdvancedCo
	jmp	$LN89@AdvancedCo
$LN86@AdvancedCo:

; 1051 : 
; 1052 : 	MarkMappedAxis();

	call	?MarkMappedAxis@@YAXXZ			; MarkMappedAxis

; 1053 : 
; 1054 : 	PopulateAllListBoxes(win);

	mov	ecx, DWORD PTR _win$[ebp]
	push	ecx
	call	?PopulateAllListBoxes@@YAXPAVC_Window@@@Z ; PopulateAllListBoxes
	add	esp, 4

; 1055 : 
; 1056 :     int j = 0;

	mov	DWORD PTR _j$[ebp], 0

; 1057 : 	// fill and init the deadzone listboxes..
; 1058 : 	listbox = (C_ListBox*)0;

	mov	DWORD PTR _listbox$[ebp], 0

; 1059 : 
; 1060 : 	for (j = 0; j < AXIS_MAX; j++)

	mov	DWORD PTR _j$[ebp], 0
	jmp	SHORT $LN85@AdvancedCo
$LN84@AdvancedCo:
	mov	edx, DWORD PTR _j$[ebp]
	add	edx, 1
	mov	DWORD PTR _j$[ebp], edx
$LN85@AdvancedCo:
	cmp	DWORD PTR _j$[ebp], 22			; 00000016H
	jge	$LN83@AdvancedCo

; 1061 : 	{
; 1062 : 		if (UIInputStuff[j].DeadzoneLB == 0)

	mov	eax, DWORD PTR _j$[ebp]
	imul	eax, 28					; 0000001cH
	cmp	DWORD PTR ?UIInputStuff@@3PAUUIInputStuff_t@@A[eax+12], 0
	jne	SHORT $LN82@AdvancedCo

; 1063 : 			continue;

	jmp	SHORT $LN84@AdvancedCo
$LN82@AdvancedCo:

; 1064 : 
; 1065 : 		listbox = (C_ListBox*)win->FindControl(UIInputStuff[j].DeadzoneLB);

	mov	ecx, DWORD PTR _j$[ebp]
	imul	ecx, 28					; 0000001cH
	mov	edx, DWORD PTR ?UIInputStuff@@3PAUUIInputStuff_t@@A[ecx+12]
	push	edx
	mov	ecx, DWORD PTR _win$[ebp]
	call	?FindControl@C_Window@@QAEPAVC_Base@@J@Z ; C_Window::FindControl
	mov	DWORD PTR _listbox$[ebp], eax

; 1066 : 
; 1067 : 		if (listbox)

	cmp	DWORD PTR _listbox$[ebp], 0
	je	SHORT $LN81@AdvancedCo

; 1068 : 		{
; 1069 : 			int theDead = UIInputStuff[j].theDeviceAxis->Deadzone;

	mov	eax, DWORD PTR _j$[ebp]
	imul	eax, 28					; 0000001cH
	mov	ecx, DWORD PTR ?UIInputStuff@@3PAUUIInputStuff_t@@A[eax+24]
	mov	edx, DWORD PTR [ecx+8]
	mov	DWORD PTR _theDead$11[ebp], edx

; 1070 : 
; 1071 : 			if (theDead <= g_nDeadzoneSmall)			// 1%

	mov	eax, DWORD PTR _theDead$11[ebp]
	cmp	eax, DWORD PTR ?g_nDeadzoneSmall@@3HA	; g_nDeadzoneSmall
	jg	SHORT $LN80@AdvancedCo

; 1072 : 				listbox->SetValue(SETUP_ADVANCED_DZ_SMALL);

	push	70280					; 00011288H
	mov	ecx, DWORD PTR _listbox$[ebp]
	call	?SetValue@C_ListBox@@QAEXJ@Z		; C_ListBox::SetValue
	jmp	SHORT $LN75@AdvancedCo
$LN80@AdvancedCo:

; 1073 : 			else if (theDead <= g_nDeadzoneMedium)		// 5%

	mov	ecx, DWORD PTR _theDead$11[ebp]
	cmp	ecx, DWORD PTR ?g_nDeadzoneMedium@@3HA	; g_nDeadzoneMedium
	jg	SHORT $LN78@AdvancedCo

; 1074 : 				listbox->SetValue(SETUP_ADVANCED_DZ_MEDIUM);

	push	70281					; 00011289H
	mov	ecx, DWORD PTR _listbox$[ebp]
	call	?SetValue@C_ListBox@@QAEXJ@Z		; C_ListBox::SetValue
	jmp	SHORT $LN75@AdvancedCo
$LN78@AdvancedCo:

; 1075 : 			else if (theDead <= g_nDeadzoneLarge)		// 10%

	mov	edx, DWORD PTR _theDead$11[ebp]
	cmp	edx, DWORD PTR ?g_nDeadzoneLarge@@3HA	; g_nDeadzoneLarge
	jg	SHORT $LN76@AdvancedCo

; 1076 : 				listbox->SetValue(SETUP_ADVANCED_DZ_LARGE);

	push	70282					; 0001128aH
	mov	ecx, DWORD PTR _listbox$[ebp]
	call	?SetValue@C_ListBox@@QAEXJ@Z		; C_ListBox::SetValue

; 1077 : 			else										// whatever (greater than 10%)

	jmp	SHORT $LN75@AdvancedCo
$LN76@AdvancedCo:

; 1078 : 				listbox->SetValue(SETUP_ADVANCED_DZ_HUGE);

	push	70283					; 0001128bH
	mov	ecx, DWORD PTR _listbox$[ebp]
	call	?SetValue@C_ListBox@@QAEXJ@Z		; C_ListBox::SetValue
$LN75@AdvancedCo:
$LN81@AdvancedCo:

; 1079 : 		}
; 1080 : 		else
; 1081 : 			ShiAssert(false);
; 1082 : 	}

	jmp	$LN84@AdvancedCo
$LN83@AdvancedCo:

; 1083 : 
; 1084 : 	// fill and init the saturation listboxes..
; 1085 : 	listbox = (C_ListBox*)0;

	mov	DWORD PTR _listbox$[ebp], 0

; 1086 : 	for (j = 0; j < AXIS_MAX; j++)

	mov	DWORD PTR _j$[ebp], 0
	jmp	SHORT $LN73@AdvancedCo
$LN72@AdvancedCo:
	mov	eax, DWORD PTR _j$[ebp]
	add	eax, 1
	mov	DWORD PTR _j$[ebp], eax
$LN73@AdvancedCo:
	cmp	DWORD PTR _j$[ebp], 22			; 00000016H
	jge	$LN71@AdvancedCo

; 1087 : 	{
; 1088 : 
; 1089 : 		if (UIInputStuff[j].SaturationLB == 0)

	mov	ecx, DWORD PTR _j$[ebp]
	imul	ecx, 28					; 0000001cH
	cmp	DWORD PTR ?UIInputStuff@@3PAUUIInputStuff_t@@A[ecx+16], 0
	jne	SHORT $LN70@AdvancedCo

; 1090 : 			continue;

	jmp	SHORT $LN72@AdvancedCo
$LN70@AdvancedCo:

; 1091 : 
; 1092 : 		listbox = (C_ListBox*)win->FindControl(UIInputStuff[j].SaturationLB);

	mov	edx, DWORD PTR _j$[ebp]
	imul	edx, 28					; 0000001cH
	mov	eax, DWORD PTR ?UIInputStuff@@3PAUUIInputStuff_t@@A[edx+16]
	push	eax
	mov	ecx, DWORD PTR _win$[ebp]
	call	?FindControl@C_Window@@QAEPAVC_Base@@J@Z ; C_Window::FindControl
	mov	DWORD PTR _listbox$[ebp], eax

; 1093 : 
; 1094 : 		if (listbox)

	cmp	DWORD PTR _listbox$[ebp], 0
	je	SHORT $LN69@AdvancedCo

; 1095 : 		{
; 1096 : 			int theSat = UIInputStuff[j].theDeviceAxis->Saturation;

	mov	ecx, DWORD PTR _j$[ebp]
	imul	ecx, 28					; 0000001cH
	mov	edx, DWORD PTR ?UIInputStuff@@3PAUUIInputStuff_t@@A[ecx+24]
	mov	eax, DWORD PTR [edx+12]
	mov	DWORD PTR _theSat$10[ebp], eax

; 1097 : 
; 1098 : 			if (theSat == SATURATION_NONE)					// no saturation. this value is -1 !!!! (do not use unsigned with this !)

	cmp	DWORD PTR _theSat$10[ebp], -1
	jne	SHORT $LN68@AdvancedCo

; 1099 : 				listbox->SetValue(SETUP_ADVANCED_SAT_NONE);

	push	70303					; 0001129fH
	mov	ecx, DWORD PTR _listbox$[ebp]
	call	?SetValue@C_ListBox@@QAEXJ@Z		; C_ListBox::SetValue
	jmp	SHORT $LN63@AdvancedCo
$LN68@AdvancedCo:

; 1100 : 			else if (theSat >= g_nSaturationSmall)			// 1% saturation, I 'borrowed' the DZ item for this

	mov	ecx, DWORD PTR _theSat$10[ebp]
	cmp	ecx, DWORD PTR ?g_nSaturationSmall@@3HA	; g_nSaturationSmall
	jl	SHORT $LN66@AdvancedCo

; 1101 : 				listbox->SetValue(SETUP_ADVANCED_DZ_SMALL);

	push	70280					; 00011288H
	mov	ecx, DWORD PTR _listbox$[ebp]
	call	?SetValue@C_ListBox@@QAEXJ@Z		; C_ListBox::SetValue
	jmp	SHORT $LN63@AdvancedCo
$LN66@AdvancedCo:

; 1102 : 			else if (theSat >= g_nSaturationMedium)

	mov	edx, DWORD PTR _theSat$10[ebp]
	cmp	edx, DWORD PTR ?g_nSaturationMedium@@3HA ; g_nSaturationMedium
	jl	SHORT $LN64@AdvancedCo

; 1103 : 				listbox->SetValue(SETUP_ADVANCED_DZ_MEDIUM);// 5% saturation, I 'borrowed' the DZ item for this

	push	70281					; 00011289H
	mov	ecx, DWORD PTR _listbox$[ebp]
	call	?SetValue@C_ListBox@@QAEXJ@Z		; C_ListBox::SetValue

; 1104 : 			else	// whatever (smaller than 9500) (MEDIUM)

	jmp	SHORT $LN63@AdvancedCo
$LN64@AdvancedCo:

; 1105 : 				listbox->SetValue(SETUP_ADVANCED_DZ_LARGE);	// 10% saturation, I 'borrowed' the DZ item for this

	push	70282					; 0001128aH
	mov	ecx, DWORD PTR _listbox$[ebp]
	call	?SetValue@C_ListBox@@QAEXJ@Z		; C_ListBox::SetValue
$LN63@AdvancedCo:
$LN69@AdvancedCo:

; 1106 : 		}
; 1107 : 		else
; 1108 : 			ShiAssert(false);
; 1109 : 	}

	jmp	$LN72@AdvancedCo
$LN71@AdvancedCo:

; 1110 : 
; 1111 : 	C_Button	*button;
; 1112 : 
; 1113 : 	// 'reversed' buttons..
; 1114 : 	for (j = 0; j < AXIS_MAX; j++)	// Retro 15Jan2004

	mov	DWORD PTR _j$[ebp], 0
	jmp	SHORT $LN61@AdvancedCo
$LN60@AdvancedCo:
	mov	eax, DWORD PTR _j$[ebp]
	add	eax, 1
	mov	DWORD PTR _j$[ebp], eax
$LN61@AdvancedCo:
	cmp	DWORD PTR _j$[ebp], 22			; 00000016H
	jge	$LN59@AdvancedCo

; 1115 : 	{
; 1116 : 
; 1117 : 		if (UIInputStuff[j].ReverseBtn == 0)

	mov	ecx, DWORD PTR _j$[ebp]
	imul	ecx, 28					; 0000001cH
	cmp	DWORD PTR ?UIInputStuff@@3PAUUIInputStuff_t@@A[ecx+20], 0
	jne	SHORT $LN58@AdvancedCo

; 1118 : 			continue;

	jmp	SHORT $LN60@AdvancedCo
$LN58@AdvancedCo:

; 1119 : 		
; 1120 : 		button=(C_Button *)win->FindControl(UIInputStuff[j].ReverseBtn);

	mov	edx, DWORD PTR _j$[ebp]
	imul	edx, 28					; 0000001cH
	mov	eax, DWORD PTR ?UIInputStuff@@3PAUUIInputStuff_t@@A[edx+20]
	push	eax
	mov	ecx, DWORD PTR _win$[ebp]
	call	?FindControl@C_Window@@QAEPAVC_Base@@J@Z ; C_Window::FindControl
	mov	DWORD PTR _button$[ebp], eax

; 1121 : 		if (button != NULL)

	cmp	DWORD PTR _button$[ebp], 0
	je	SHORT $LN57@AdvancedCo

; 1122 : 		{
; 1123 : 			if (IO.AnalogIsReversed(UIInputStuff[j].InGameAxis) == true)

	mov	ecx, DWORD PTR _j$[ebp]
	imul	ecx, 28					; 0000001cH
	mov	edx, DWORD PTR ?UIInputStuff@@3PAUUIInputStuff_t@@A[ecx]
	push	edx
	mov	ecx, OFFSET ?IO@@3VSIMLIB_IO_CLASS@@A	; IO
	call	?AnalogIsReversed@SIMLIB_IO_CLASS@@QAE_NW4GameAxis_t@@@Z ; SIMLIB_IO_CLASS::AnalogIsReversed
	movzx	eax, al
	cmp	eax, 1
	jne	SHORT $LN56@AdvancedCo

; 1124 : 				button->SetState(C_STATE_1);

	push	1
	mov	ecx, DWORD PTR _button$[ebp]
	mov	edx, DWORD PTR [ecx]
	mov	ecx, DWORD PTR _button$[ebp]
	mov	eax, DWORD PTR [edx+56]
	call	eax

; 1125 : 			else

	jmp	SHORT $LN55@AdvancedCo
$LN56@AdvancedCo:

; 1126 : 				button->SetState(C_STATE_0);

	push	0
	mov	ecx, DWORD PTR _button$[ebp]
	mov	edx, DWORD PTR [ecx]
	mov	ecx, DWORD PTR _button$[ebp]
	mov	eax, DWORD PTR [edx+56]
	call	eax
$LN55@AdvancedCo:

; 1127 : 			button->Refresh();

	mov	ecx, DWORD PTR _button$[ebp]
	mov	edx, DWORD PTR [ecx]
	mov	ecx, DWORD PTR _button$[ebp]
	mov	eax, DWORD PTR [edx+160]
	call	eax
$LN57@AdvancedCo:

; 1128 : 		}
; 1129 : 		else
; 1130 : 			ShiAssert(false);
; 1131 : 	}

	jmp	$LN60@AdvancedCo
$LN59@AdvancedCo:

; 1132 : 
; 1133 : 	// register tab callbacks
; 1134 : 	button=(C_Button *)win->FindControl(SETUP_ADVANCED_FLIGHT_TAB);

	push	70273					; 00011281H
	mov	ecx, DWORD PTR _win$[ebp]
	call	?FindControl@C_Window@@QAEPAVC_Base@@J@Z ; C_Window::FindControl
	mov	DWORD PTR _button$[ebp], eax

; 1135 : 	if(button != NULL)

	cmp	DWORD PTR _button$[ebp], 0
	je	SHORT $LN53@AdvancedCo

; 1136 : 	{
; 1137 : 		button->SetState(C_STATE_0);	// 'unpress' this tab

	push	0
	mov	ecx, DWORD PTR _button$[ebp]
	mov	edx, DWORD PTR [ecx]
	mov	ecx, DWORD PTR _button$[ebp]
	mov	eax, DWORD PTR [edx+56]
	call	eax

; 1138 : 		button->SetCallback(SetupControlTabsCB);

	push	OFFSET ?SetupControlTabsCB@@YAXJFPAVC_Base@@@Z ; SetupControlTabsCB
	mov	ecx, DWORD PTR _button$[ebp]
	mov	edx, DWORD PTR [ecx]
	mov	ecx, DWORD PTR _button$[ebp]
	mov	eax, DWORD PTR [edx+100]
	call	eax
$LN53@AdvancedCo:

; 1139 : 	}
; 1140 : 	else
; 1141 : 		ShiAssert(false);
; 1142 : 
; 1143 : 	button=(C_Button *)win->FindControl(SETUP_ADVANCED_AVIONICS_TAB);

	push	70274					; 00011282H
	mov	ecx, DWORD PTR _win$[ebp]
	call	?FindControl@C_Window@@QAEPAVC_Base@@J@Z ; C_Window::FindControl
	mov	DWORD PTR _button$[ebp], eax

; 1144 : 	if(button != NULL)

	cmp	DWORD PTR _button$[ebp], 0
	je	SHORT $LN51@AdvancedCo

; 1145 : 	{
; 1146 : 		button->SetState(C_STATE_0);	// 'unpress' this tab

	push	0
	mov	ecx, DWORD PTR _button$[ebp]
	mov	edx, DWORD PTR [ecx]
	mov	ecx, DWORD PTR _button$[ebp]
	mov	eax, DWORD PTR [edx+56]
	call	eax

; 1147 : 		button->SetCallback(SetupControlTabsCB);

	push	OFFSET ?SetupControlTabsCB@@YAXJFPAVC_Base@@@Z ; SetupControlTabsCB
	mov	ecx, DWORD PTR _button$[ebp]
	mov	edx, DWORD PTR [ecx]
	mov	ecx, DWORD PTR _button$[ebp]
	mov	eax, DWORD PTR [edx+100]
	call	eax
$LN51@AdvancedCo:

; 1148 : 	}
; 1149 : 	else
; 1150 : 		ShiAssert(false);
; 1151 : 
; 1152 : 	button=(C_Button *)win->FindControl(SETUP_ADVANCED_SOUND_TAB);

	push	70323					; 000112b3H
	mov	ecx, DWORD PTR _win$[ebp]
	call	?FindControl@C_Window@@QAEPAVC_Base@@J@Z ; C_Window::FindControl
	mov	DWORD PTR _button$[ebp], eax

; 1153 : 	if(button != NULL)

	cmp	DWORD PTR _button$[ebp], 0
	je	SHORT $LN49@AdvancedCo

; 1154 : 	{
; 1155 : 		button->SetState(C_STATE_0);	// 'unpress' this tab

	push	0
	mov	ecx, DWORD PTR _button$[ebp]
	mov	edx, DWORD PTR [ecx]
	mov	ecx, DWORD PTR _button$[ebp]
	mov	eax, DWORD PTR [edx+56]
	call	eax

; 1156 : 		button->SetCallback(SetupControlTabsCB);

	push	OFFSET ?SetupControlTabsCB@@YAXJFPAVC_Base@@@Z ; SetupControlTabsCB
	mov	ecx, DWORD PTR _button$[ebp]
	mov	edx, DWORD PTR [ecx]
	mov	ecx, DWORD PTR _button$[ebp]
	mov	eax, DWORD PTR [edx+100]
	call	eax
$LN49@AdvancedCo:

; 1157 : 	}
; 1158 : 	else
; 1159 : 		ShiAssert(false);
; 1160 : 
; 1161 : 	button=(C_Button *)win->FindControl(SETUP_ADVANCED_GENERAL_TAB);

	push	70275					; 00011283H
	mov	ecx, DWORD PTR _win$[ebp]
	call	?FindControl@C_Window@@QAEPAVC_Base@@J@Z ; C_Window::FindControl
	mov	DWORD PTR _button$[ebp], eax

; 1162 : 	if(button != NULL)

	cmp	DWORD PTR _button$[ebp], 0
	je	SHORT $LN47@AdvancedCo

; 1163 : 	{
; 1164 : 		button->SetState(C_STATE_1);	// fudging the 'General' tab to be pressed

	push	1
	mov	ecx, DWORD PTR _button$[ebp]
	mov	edx, DWORD PTR [ecx]
	mov	ecx, DWORD PTR _button$[ebp]
	mov	eax, DWORD PTR [edx+56]
	call	eax

; 1165 : 		button->SetCallback(SetupControlTabsCB);

	push	OFFSET ?SetupControlTabsCB@@YAXJFPAVC_Base@@@Z ; SetupControlTabsCB
	mov	ecx, DWORD PTR _button$[ebp]
	mov	edx, DWORD PTR [ecx]
	mov	ecx, DWORD PTR _button$[ebp]
	mov	eax, DWORD PTR [edx+100]
	call	eax

; 1166 : 
; 1167 : 		//make sure general tab is selected on entering
; 1168 : 		SetupControlTabsCB(SETUP_ADVANCED_GENERAL_TAB,C_TYPE_LMOUSEUP,button);

	mov	ecx, DWORD PTR _button$[ebp]
	push	ecx
	push	52					; 00000034H
	push	70275					; 00011283H
	call	?SetupControlTabsCB@@YAXJFPAVC_Base@@@Z	; SetupControlTabsCB
	add	esp, 12					; 0000000cH
$LN47@AdvancedCo:

; 1169 : 	}
; 1170 : 	else
; 1171 : 		ShiAssert(false);
; 1172 : 
; 1173 : 	button = (C_Button*)win->FindControl(SETUP_ADVANCED_ENABLE_MOUSELOOK);

	push	70246					; 00011266H
	mov	ecx, DWORD PTR _win$[ebp]
	call	?FindControl@C_Window@@QAEPAVC_Base@@J@Z ; C_Window::FindControl
	mov	DWORD PTR _button$[ebp], eax

; 1174 : 	if (button != NULL)

	cmp	DWORD PTR _button$[ebp], 0
	je	SHORT $LN45@AdvancedCo

; 1175 : 	{
; 1176 : 		if (PlayerOptions.GetMouseLook() == true)

	mov	ecx, OFFSET ?PlayerOptions@@3VPlayerOptionsClass@@A ; PlayerOptions
	call	?GetMouseLook@PlayerOptionsClass@@QBE_NXZ ; PlayerOptionsClass::GetMouseLook
	movzx	edx, al
	cmp	edx, 1
	jne	SHORT $LN44@AdvancedCo

; 1177 : 			button->SetState(C_STATE_1);

	push	1
	mov	eax, DWORD PTR _button$[ebp]
	mov	edx, DWORD PTR [eax]
	mov	ecx, DWORD PTR _button$[ebp]
	mov	eax, DWORD PTR [edx+56]
	call	eax

; 1178 : 		else

	jmp	SHORT $LN43@AdvancedCo
$LN44@AdvancedCo:

; 1179 : 			button->SetState(C_STATE_0);

	push	0
	mov	ecx, DWORD PTR _button$[ebp]
	mov	edx, DWORD PTR [ecx]
	mov	ecx, DWORD PTR _button$[ebp]
	mov	eax, DWORD PTR [edx+56]
	call	eax
$LN43@AdvancedCo:

; 1180 : 		button->SetCallback(MouseLookCB);

	push	OFFSET ?MouseLookCB@@YAXJFPAVC_Base@@@Z	; MouseLookCB
	mov	ecx, DWORD PTR _button$[ebp]
	mov	edx, DWORD PTR [ecx]
	mov	ecx, DWORD PTR _button$[ebp]
	mov	eax, DWORD PTR [edx+100]
	call	eax

; 1181 : 		button->Refresh();

	mov	ecx, DWORD PTR _button$[ebp]
	mov	edx, DWORD PTR [ecx]
	mov	ecx, DWORD PTR _button$[ebp]
	mov	eax, DWORD PTR [edx+160]
	call	eax
$LN45@AdvancedCo:

; 1182 : 	}
; 1183 : 	else
; 1184 : 		ShiAssert(false);
; 1185 : 
; 1186 : 	// touch buddy callback
; 1187 : 	button = (C_Button*)win->FindControl(SETUP_ADVANCED_ENABLE_TOUCHBUDDY);

	push	70346					; 000112caH
	mov	ecx, DWORD PTR _win$[ebp]
	call	?FindControl@C_Window@@QAEPAVC_Base@@J@Z ; C_Window::FindControl
	mov	DWORD PTR _button$[ebp], eax

; 1188 : 	if (button != NULL)

	cmp	DWORD PTR _button$[ebp], 0
	je	SHORT $LN41@AdvancedCo

; 1189 : 	{
; 1190 : 		button->SetState(PlayerOptions.GetTouchBuddy() == true ? C_STATE_1 : C_STATE_0);

	mov	ecx, OFFSET ?PlayerOptions@@3VPlayerOptionsClass@@A ; PlayerOptions
	call	?GetTouchBuddy@PlayerOptionsClass@@QBE_NXZ ; PlayerOptionsClass::GetTouchBuddy
	movzx	ecx, al
	cmp	ecx, 1
	jne	SHORT $LN91@AdvancedCo
	mov	DWORD PTR tv384[ebp], 1
	jmp	SHORT $LN92@AdvancedCo
$LN91@AdvancedCo:
	mov	DWORD PTR tv384[ebp], 0
$LN92@AdvancedCo:
	movzx	edx, WORD PTR tv384[ebp]
	push	edx
	mov	eax, DWORD PTR _button$[ebp]
	mov	edx, DWORD PTR [eax]
	mov	ecx, DWORD PTR _button$[ebp]
	mov	eax, DWORD PTR [edx+56]
	call	eax

; 1191 : 		button->SetCallback(TouchBuddyCB);

	push	OFFSET ?TouchBuddyCB@@YAXJFPAVC_Base@@@Z ; TouchBuddyCB
	mov	ecx, DWORD PTR _button$[ebp]
	mov	edx, DWORD PTR [ecx]
	mov	ecx, DWORD PTR _button$[ebp]
	mov	eax, DWORD PTR [edx+100]
	call	eax

; 1192 : 		button->Refresh();

	mov	ecx, DWORD PTR _button$[ebp]
	mov	edx, DWORD PTR [ecx]
	mov	ecx, DWORD PTR _button$[ebp]
	mov	eax, DWORD PTR [edx+160]
	call	eax
$LN41@AdvancedCo:

; 1193 : 	}
; 1194 : 	else {
; 1195 : 		ShiAssert(false);
; 1196 : 	}
; 1197 : 
; 1198 : 
; 1199 : 	// TrackIR callbacks.. check the funcs itself for more explanation
; 1200 : 	button = (C_Button*)win->FindControl(SETUP_ADVANCED_ENABLE_2DTIR);

	push	70247					; 00011267H
	mov	ecx, DWORD PTR _win$[ebp]
	call	?FindControl@C_Window@@QAEPAVC_Base@@J@Z ; C_Window::FindControl
	mov	DWORD PTR _button$[ebp], eax

; 1201 : 	if (button != NULL)

	cmp	DWORD PTR _button$[ebp], 0
	je	SHORT $LN39@AdvancedCo

; 1202 : 	{
; 1203 : 		if ((g_bEnableTrackIR == true)&&(PlayerOptions.Get2dTrackIR() == true))

	movzx	ecx, BYTE PTR ?g_bEnableTrackIR@@3_NA	; g_bEnableTrackIR
	cmp	ecx, 1
	jne	SHORT $LN38@AdvancedCo
	mov	ecx, OFFSET ?PlayerOptions@@3VPlayerOptionsClass@@A ; PlayerOptions
	call	?Get2dTrackIR@PlayerOptionsClass@@QBE_NXZ ; PlayerOptionsClass::Get2dTrackIR
	movzx	edx, al
	cmp	edx, 1
	jne	SHORT $LN38@AdvancedCo

; 1204 : 			button->SetState(C_STATE_1);

	push	1
	mov	eax, DWORD PTR _button$[ebp]
	mov	edx, DWORD PTR [eax]
	mov	ecx, DWORD PTR _button$[ebp]
	mov	eax, DWORD PTR [edx+56]
	call	eax

; 1205 : 		else

	jmp	SHORT $LN37@AdvancedCo
$LN38@AdvancedCo:

; 1206 : 			button->SetState(C_STATE_0);

	push	0
	mov	ecx, DWORD PTR _button$[ebp]
	mov	edx, DWORD PTR [ecx]
	mov	ecx, DWORD PTR _button$[ebp]
	mov	eax, DWORD PTR [edx+56]
	call	eax
$LN37@AdvancedCo:

; 1207 : 		button->SetCallback(TrackIR2dCB);

	push	OFFSET ?TrackIR2dCB@@YAXJFPAVC_Base@@@Z	; TrackIR2dCB
	mov	ecx, DWORD PTR _button$[ebp]
	mov	edx, DWORD PTR [ecx]
	mov	ecx, DWORD PTR _button$[ebp]
	mov	eax, DWORD PTR [edx+100]
	call	eax

; 1208 : 		button->Refresh();

	mov	ecx, DWORD PTR _button$[ebp]
	mov	edx, DWORD PTR [ecx]
	mov	ecx, DWORD PTR _button$[ebp]
	mov	eax, DWORD PTR [edx+160]
	call	eax
$LN39@AdvancedCo:

; 1209 : 	}
; 1210 : 	else
; 1211 : 		ShiAssert(false);
; 1212 : 
; 1213 : 	// TrackIR callbacks.. check the funcs itself for more explanation
; 1214 : 	button = (C_Button*)win->FindControl(SETUP_ADVANCED_ENABLE_3DTIR);

	push	70248					; 00011268H
	mov	ecx, DWORD PTR _win$[ebp]
	call	?FindControl@C_Window@@QAEPAVC_Base@@J@Z ; C_Window::FindControl
	mov	DWORD PTR _button$[ebp], eax

; 1215 : 	if (button != NULL)

	cmp	DWORD PTR _button$[ebp], 0
	je	SHORT $LN35@AdvancedCo

; 1216 : 	{
; 1217 : 		if ((g_bEnableTrackIR == true)&&(PlayerOptions.Get3dTrackIR() == true))

	movzx	ecx, BYTE PTR ?g_bEnableTrackIR@@3_NA	; g_bEnableTrackIR
	cmp	ecx, 1
	jne	SHORT $LN34@AdvancedCo
	mov	ecx, OFFSET ?PlayerOptions@@3VPlayerOptionsClass@@A ; PlayerOptions
	call	?Get3dTrackIR@PlayerOptionsClass@@QBE_NXZ ; PlayerOptionsClass::Get3dTrackIR
	movzx	edx, al
	cmp	edx, 1
	jne	SHORT $LN34@AdvancedCo

; 1218 : 			button->SetState(C_STATE_1);

	push	1
	mov	eax, DWORD PTR _button$[ebp]
	mov	edx, DWORD PTR [eax]
	mov	ecx, DWORD PTR _button$[ebp]
	mov	eax, DWORD PTR [edx+56]
	call	eax

; 1219 : 		else

	jmp	SHORT $LN33@AdvancedCo
$LN34@AdvancedCo:

; 1220 : 			button->SetState(C_STATE_0);

	push	0
	mov	ecx, DWORD PTR _button$[ebp]
	mov	edx, DWORD PTR [ecx]
	mov	ecx, DWORD PTR _button$[ebp]
	mov	eax, DWORD PTR [edx+56]
	call	eax
$LN33@AdvancedCo:

; 1221 : 		button->SetCallback(TrackIR3dCB);

	push	OFFSET ?TrackIR3dCB@@YAXJFPAVC_Base@@@Z	; TrackIR3dCB
	mov	ecx, DWORD PTR _button$[ebp]
	mov	edx, DWORD PTR [ecx]
	mov	ecx, DWORD PTR _button$[ebp]
	mov	eax, DWORD PTR [edx+100]
	call	eax

; 1222 : 		button->Refresh();

	mov	ecx, DWORD PTR _button$[ebp]
	mov	edx, DWORD PTR [ecx]
	mov	ecx, DWORD PTR _button$[ebp]
	mov	eax, DWORD PTR [edx+160]
	call	eax
$LN35@AdvancedCo:

; 1223 : 	}
; 1224 : 	else
; 1225 : 		ShiAssert(false);
; 1226 : 
; 1227 : 	// Retro 27Jan2004 - Axisshaping button + callback
; 1228 : 	button = (C_Button*)win->FindControl(SETUP_ADVANCED_ENABLE_AXISSHAPING);

	push	70317					; 000112adH
	mov	ecx, DWORD PTR _win$[ebp]
	call	?FindControl@C_Window@@QAEPAVC_Base@@J@Z ; C_Window::FindControl
	mov	DWORD PTR _button$[ebp], eax

; 1229 : 	if (button != NULL)

	cmp	DWORD PTR _button$[ebp], 0
	je	SHORT $LN31@AdvancedCo

; 1230 : 	{
; 1231 : 		if (PlayerOptions.GetAxisShaping() == true)

	mov	ecx, OFFSET ?PlayerOptions@@3VPlayerOptionsClass@@A ; PlayerOptions
	call	?GetAxisShaping@PlayerOptionsClass@@QAE_NXZ ; PlayerOptionsClass::GetAxisShaping
	movzx	ecx, al
	cmp	ecx, 1
	jne	SHORT $LN30@AdvancedCo

; 1232 : 			button->SetState(C_STATE_1);

	push	1
	mov	edx, DWORD PTR _button$[ebp]
	mov	eax, DWORD PTR [edx]
	mov	ecx, DWORD PTR _button$[ebp]
	mov	edx, DWORD PTR [eax+56]
	call	edx

; 1233 : 		else

	jmp	SHORT $LN29@AdvancedCo
$LN30@AdvancedCo:

; 1234 : 			button->SetState(C_STATE_0);

	push	0
	mov	eax, DWORD PTR _button$[ebp]
	mov	edx, DWORD PTR [eax]
	mov	ecx, DWORD PTR _button$[ebp]
	mov	eax, DWORD PTR [edx+56]
	call	eax
$LN29@AdvancedCo:

; 1235 : 
; 1236 : 		button->SetCallback(AxisShapingCB);

	push	OFFSET ?AxisShapingCB@@YAXJFPAVC_Base@@@Z ; AxisShapingCB
	mov	ecx, DWORD PTR _button$[ebp]
	mov	edx, DWORD PTR [ecx]
	mov	ecx, DWORD PTR _button$[ebp]
	mov	eax, DWORD PTR [edx+100]
	call	eax

; 1237 : 		button->Refresh();

	mov	ecx, DWORD PTR _button$[ebp]
	mov	edx, DWORD PTR [ecx]
	mov	ecx, DWORD PTR _button$[ebp]
	mov	eax, DWORD PTR [edx+160]
	call	eax
$LN31@AdvancedCo:

; 1238 : 	}
; 1239 : 	else
; 1240 : 		ShiAssert(false);
; 1241 : 	// Retro 27Jan2004 end
; 1242 : 
; 1243 : 	// this config var doesnt influence loading or unloading FFB effects,
; 1244 : 	// however effect playback is (de)activated on it
; 1245 : 	// still need to look at centering though
; 1246 : 	button = (C_Button*)win->FindControl(SETUP_ADVANCED_ENABLE_FFB);

	push	70245					; 00011265H
	mov	ecx, DWORD PTR _win$[ebp]
	call	?FindControl@C_Window@@QAEPAVC_Base@@J@Z ; C_Window::FindControl
	mov	DWORD PTR _button$[ebp], eax

; 1247 : 	if (button != NULL)

	cmp	DWORD PTR _button$[ebp], 0
	je	SHORT $LN27@AdvancedCo

; 1248 : 	{
; 1249 : 		if ((hasForceFeedback)&&(PlayerOptions.GetFFB()))

	cmp	DWORD PTR ?hasForceFeedback@@3HA, 0	; hasForceFeedback
	je	SHORT $LN26@AdvancedCo
	mov	ecx, OFFSET ?PlayerOptions@@3VPlayerOptionsClass@@A ; PlayerOptions
	call	?GetFFB@PlayerOptionsClass@@QBE_NXZ	; PlayerOptionsClass::GetFFB
	movzx	ecx, al
	test	ecx, ecx
	je	SHORT $LN26@AdvancedCo

; 1250 : 			button->SetState(C_STATE_1);

	push	1
	mov	edx, DWORD PTR _button$[ebp]
	mov	eax, DWORD PTR [edx]
	mov	ecx, DWORD PTR _button$[ebp]
	mov	edx, DWORD PTR [eax+56]
	call	edx

; 1251 : 		else

	jmp	SHORT $LN25@AdvancedCo
$LN26@AdvancedCo:

; 1252 : 			button->SetState(C_STATE_0);

	push	0
	mov	eax, DWORD PTR _button$[ebp]
	mov	edx, DWORD PTR [eax]
	mov	ecx, DWORD PTR _button$[ebp]
	mov	eax, DWORD PTR [edx+56]
	call	eax
$LN25@AdvancedCo:

; 1253 : 		button->SetCallback(EnableFFBCB);

	push	OFFSET ?EnableFFBCB@@YAXJFPAVC_Base@@@Z	; EnableFFBCB
	mov	ecx, DWORD PTR _button$[ebp]
	mov	edx, DWORD PTR [ecx]
	mov	ecx, DWORD PTR _button$[ebp]
	mov	eax, DWORD PTR [edx+100]
	call	eax

; 1254 : 		button->Refresh();

	mov	ecx, DWORD PTR _button$[ebp]
	mov	edx, DWORD PTR [ecx]
	mov	ecx, DWORD PTR _button$[ebp]
	mov	eax, DWORD PTR [edx+160]
	call	eax
$LN27@AdvancedCo:

; 1255 : 	}
; 1256 : 	else
; 1257 : 		ShiAssert(false);
; 1258 : 
; 1259 : 	// Retro 14Feb2004 - this button governs if mouselook or 3d clickable cockpit
; 1260 : 	//	is activated when entering the 3d cockpit the first time.
; 1261 : 	button = (C_Button*)win->FindControl(SETUP_ADVANCED_3DCOCKPIT_DEFAULT);

	push	70319					; 000112afH
	mov	ecx, DWORD PTR _win$[ebp]
	call	?FindControl@C_Window@@QAEPAVC_Base@@J@Z ; C_Window::FindControl
	mov	DWORD PTR _button$[ebp], eax

; 1262 : 	if (button != NULL)

	cmp	DWORD PTR _button$[ebp], 0
	je	SHORT $LN23@AdvancedCo

; 1263 : 	{
; 1264 : 		if (PlayerOptions.GetClickablePitMode())	// if TRUE then were in 'clickable mode'

	mov	ecx, OFFSET ?PlayerOptions@@3VPlayerOptionsClass@@A ; PlayerOptions
	call	?GetClickablePitMode@PlayerOptionsClass@@QAE_NXZ ; PlayerOptionsClass::GetClickablePitMode
	movzx	ecx, al
	test	ecx, ecx
	je	SHORT $LN22@AdvancedCo

; 1265 : 			button->SetState(C_STATE_1);

	push	1
	mov	edx, DWORD PTR _button$[ebp]
	mov	eax, DWORD PTR [edx]
	mov	ecx, DWORD PTR _button$[ebp]
	mov	edx, DWORD PTR [eax+56]
	call	edx

; 1266 : 		else

	jmp	SHORT $LN21@AdvancedCo
$LN22@AdvancedCo:

; 1267 : 			button->SetState(C_STATE_0);

	push	0
	mov	eax, DWORD PTR _button$[ebp]
	mov	edx, DWORD PTR [eax]
	mov	ecx, DWORD PTR _button$[ebp]
	mov	eax, DWORD PTR [edx+56]
	call	eax
$LN21@AdvancedCo:

; 1268 : 		button->SetCallback(ToggleClickableModeCB);

	push	OFFSET ?ToggleClickableModeCB@@YAXJFPAVC_Base@@@Z ; ToggleClickableModeCB
	mov	ecx, DWORD PTR _button$[ebp]
	mov	edx, DWORD PTR [ecx]
	mov	ecx, DWORD PTR _button$[ebp]
	mov	eax, DWORD PTR [edx+100]
	call	eax

; 1269 : 		button->Refresh();

	mov	ecx, DWORD PTR _button$[ebp]
	mov	edx, DWORD PTR [ecx]
	mov	ecx, DWORD PTR _button$[ebp]
	mov	eax, DWORD PTR [edx+160]
	call	eax
$LN23@AdvancedCo:

; 1270 : 	}
; 1271 : 	else
; 1272 : 		ShiAssert(false);
; 1273 : 
; 1274 : 	// Retro 15Jan2004 - mouselook sensitivity slider
; 1275 : 	C_Slider *sldr;
; 1276 : 
; 1277 : 	sldr=(C_Slider*)win->FindControl(SETUP_ADVANCED_MOUSELOOK_SENS);

	push	70272					; 00011280H
	mov	ecx, DWORD PTR _win$[ebp]
	call	?FindControl@C_Window@@QAEPAVC_Base@@J@Z ; C_Window::FindControl
	mov	DWORD PTR _sldr$[ebp], eax

; 1278 : 	if(sldr)

	cmp	DWORD PTR _sldr$[ebp], 0
	je	$LN19@AdvancedCo

; 1279 : 	{
; 1280 : 		if((PlayerOptions.GetMouseLookSensitivity()*1000) < g_nMouseLookSensMin)

	mov	ecx, OFFSET ?PlayerOptions@@3VPlayerOptionsClass@@A ; PlayerOptions
	call	?GetMouseLookSensitivity@PlayerOptionsClass@@QAEMXZ ; PlayerOptionsClass::GetMouseLookSensitivity
	fstp	DWORD PTR tv1022[ebp]
	movss	xmm0, DWORD PTR tv1022[ebp]
	mulss	xmm0, DWORD PTR __real@447a0000
	cvtsi2ss xmm1, DWORD PTR ?g_nMouseLookSensMin@@3HA ; g_nMouseLookSensMin
	comiss	xmm1, xmm0
	jbe	SHORT $LN18@AdvancedCo

; 1281 : 			PlayerOptions.SetMouseLookSensitivity(g_nMouseLookSensMin/1000.f);

	cvtsi2ss xmm0, DWORD PTR ?g_nMouseLookSensMin@@3HA ; g_nMouseLookSensMin
	divss	xmm0, DWORD PTR __real@447a0000
	push	ecx
	movss	DWORD PTR [esp], xmm0
	mov	ecx, OFFSET ?PlayerOptions@@3VPlayerOptionsClass@@A ; PlayerOptions
	call	?SetMouseLookSensitivity@PlayerOptionsClass@@QAEXM@Z ; PlayerOptionsClass::SetMouseLookSensitivity
$LN18@AdvancedCo:

; 1282 : 
; 1283 : 		if((PlayerOptions.GetMouseLookSensitivity()*1000) > g_nMouseLookSensMax)

	mov	ecx, OFFSET ?PlayerOptions@@3VPlayerOptionsClass@@A ; PlayerOptions
	call	?GetMouseLookSensitivity@PlayerOptionsClass@@QAEMXZ ; PlayerOptionsClass::GetMouseLookSensitivity
	fstp	DWORD PTR tv1027[ebp]
	movss	xmm0, DWORD PTR tv1027[ebp]
	mulss	xmm0, DWORD PTR __real@447a0000
	cvtsi2ss xmm1, DWORD PTR ?g_nMouseLookSensMax@@3HA ; g_nMouseLookSensMax
	comiss	xmm0, xmm1
	jbe	SHORT $LN17@AdvancedCo

; 1284 : 			PlayerOptions.SetMouseLookSensitivity(g_nMouseLookSensMax/1000.f);

	cvtsi2ss xmm0, DWORD PTR ?g_nMouseLookSensMax@@3HA ; g_nMouseLookSensMax
	divss	xmm0, DWORD PTR __real@447a0000
	push	ecx
	movss	DWORD PTR [esp], xmm0
	mov	ecx, OFFSET ?PlayerOptions@@3VPlayerOptionsClass@@A ; PlayerOptions
	call	?SetMouseLookSensitivity@PlayerOptionsClass@@QAEXM@Z ; PlayerOptionsClass::SetMouseLookSensitivity
$LN17@AdvancedCo:

; 1285 : 
; 1286 : 		int smin,smax,pos;
; 1287 : 
; 1288 : 		smax = sldr->GetSliderMax();

	mov	ecx, DWORD PTR _sldr$[ebp]
	call	?GetSliderMax@C_Slider@@QAEJXZ		; C_Slider::GetSliderMax
	mov	DWORD PTR _smax$6[ebp], eax

; 1289 : 		smin = sldr->GetSliderMin();

	mov	ecx, DWORD PTR _sldr$[ebp]
	call	?GetSliderMin@C_Slider@@QAEJXZ		; C_Slider::GetSliderMin
	mov	DWORD PTR _smin$9[ebp], eax

; 1290 : 
; 1291 : 		pos= (int)RESCALE((PlayerOptions.GetMouseLookSensitivity()*1000.f),g_nMouseLookSensMin,g_nMouseLookSensMax,smin,smax);

	mov	ecx, OFFSET ?PlayerOptions@@3VPlayerOptionsClass@@A ; PlayerOptions
	call	?GetMouseLookSensitivity@PlayerOptionsClass@@QAEMXZ ; PlayerOptionsClass::GetMouseLookSensitivity
	fstp	DWORD PTR tv1034[ebp]
	movss	xmm0, DWORD PTR tv1034[ebp]
	mulss	xmm0, DWORD PTR __real@447a0000
	cvtsi2ss xmm1, DWORD PTR ?g_nMouseLookSensMin@@3HA ; g_nMouseLookSensMin
	subss	xmm0, xmm1
	cvttss2si eax, xmm0
	mov	ecx, DWORD PTR _smax$6[ebp]
	sub	ecx, DWORD PTR _smin$9[ebp]
	imul	eax, ecx
	mov	ecx, DWORD PTR ?g_nMouseLookSensMax@@3HA ; g_nMouseLookSensMax
	sub	ecx, DWORD PTR ?g_nMouseLookSensMin@@3HA ; g_nMouseLookSensMin
	cdq
	idiv	ecx
	add	eax, DWORD PTR _smin$9[ebp]
	mov	DWORD PTR _pos$3[ebp], eax

; 1292 : 
; 1293 : 		sldr->SetSliderPos(pos);

	mov	edx, DWORD PTR _pos$3[ebp]
	push	edx
	mov	ecx, DWORD PTR _sldr$[ebp]
	call	?SetSliderPos@C_Slider@@QAEXJ@Z		; C_Slider::SetSliderPos

; 1294 : 
; 1295 : 		sldr->SetSliderRange(smin,smax);

	mov	eax, DWORD PTR _smax$6[ebp]
	push	eax
	mov	ecx, DWORD PTR _smin$9[ebp]
	push	ecx
	mov	ecx, DWORD PTR _sldr$[ebp]
	call	?SetSliderRange@C_Slider@@QAEXJJ@Z	; C_Slider::SetSliderRange

; 1296 : 		sldr->SetCallback(MouseLookSensitivityCB);

	push	OFFSET ?MouseLookSensitivityCB@@YAXJFPAVC_Base@@@Z ; MouseLookSensitivityCB
	mov	edx, DWORD PTR _sldr$[ebp]
	mov	eax, DWORD PTR [edx]
	mov	ecx, DWORD PTR _sldr$[ebp]
	mov	edx, DWORD PTR [eax+100]
	call	edx

; 1297 : 		sldr->Refresh();

	mov	eax, DWORD PTR _sldr$[ebp]
	mov	edx, DWORD PTR [eax]
	mov	ecx, DWORD PTR _sldr$[ebp]
	mov	eax, DWORD PTR [edx+160]
	call	eax
$LN19@AdvancedCo:

; 1298 : 
; 1299 : 	}
; 1300 : 	else
; 1301 : 		ShiAssert(false);
; 1302 : 	// Retro 15Jan2004 ends
; 1303 : 
; 1304 : 	// Retro 17JAn2004 - mousewheel sensitivity slider
; 1305 : 	sldr =(C_Slider*)win->FindControl(SETUP_ADVANCED_MOUSEWHEEL_SENS);

	push	70305					; 000112a1H
	mov	ecx, DWORD PTR _win$[ebp]
	call	?FindControl@C_Window@@QAEPAVC_Base@@J@Z ; C_Window::FindControl
	mov	DWORD PTR _sldr$[ebp], eax

; 1306 : 	if (sldr)

	cmp	DWORD PTR _sldr$[ebp], 0
	je	$LN15@AdvancedCo

; 1307 : 	{
; 1308 : 		if (PlayerOptions.GetMouseWheelSensitivity() < g_nMouseWheelSensMin)

	mov	ecx, OFFSET ?PlayerOptions@@3VPlayerOptionsClass@@A ; PlayerOptions
	call	?GetMouseWheelSensitivity@PlayerOptionsClass@@QAEHXZ ; PlayerOptionsClass::GetMouseWheelSensitivity
	cmp	eax, DWORD PTR ?g_nMouseWheelSensMin@@3HA ; g_nMouseWheelSensMin
	jge	SHORT $LN14@AdvancedCo

; 1309 : 			PlayerOptions.SetMouseWheelSensitivity(g_nMouseWheelSensMin);

	mov	ecx, DWORD PTR ?g_nMouseWheelSensMin@@3HA ; g_nMouseWheelSensMin
	push	ecx
	mov	ecx, OFFSET ?PlayerOptions@@3VPlayerOptionsClass@@A ; PlayerOptions
	call	?SetMouseWheelSensitivity@PlayerOptionsClass@@QAEXH@Z ; PlayerOptionsClass::SetMouseWheelSensitivity
$LN14@AdvancedCo:

; 1310 : 		if (PlayerOptions.GetMouseWheelSensitivity() > g_nMouseWheelSensMax)

	mov	ecx, OFFSET ?PlayerOptions@@3VPlayerOptionsClass@@A ; PlayerOptions
	call	?GetMouseWheelSensitivity@PlayerOptionsClass@@QAEHXZ ; PlayerOptionsClass::GetMouseWheelSensitivity
	cmp	eax, DWORD PTR ?g_nMouseWheelSensMax@@3HA ; g_nMouseWheelSensMax
	jle	SHORT $LN13@AdvancedCo

; 1311 : 			PlayerOptions.SetMouseWheelSensitivity(g_nMouseWheelSensMax);

	mov	edx, DWORD PTR ?g_nMouseWheelSensMax@@3HA ; g_nMouseWheelSensMax
	push	edx
	mov	ecx, OFFSET ?PlayerOptions@@3VPlayerOptionsClass@@A ; PlayerOptions
	call	?SetMouseWheelSensitivity@PlayerOptionsClass@@QAEXH@Z ; PlayerOptionsClass::SetMouseWheelSensitivity
$LN13@AdvancedCo:

; 1312 : 
; 1313 : 		int smin,smax,pos;
; 1314 : 
; 1315 : 		smax = sldr->GetSliderMax();

	mov	ecx, DWORD PTR _sldr$[ebp]
	call	?GetSliderMax@C_Slider@@QAEJXZ		; C_Slider::GetSliderMax
	mov	DWORD PTR _smax$5[ebp], eax

; 1316 : 		smin = sldr->GetSliderMin();

	mov	ecx, DWORD PTR _sldr$[ebp]
	call	?GetSliderMin@C_Slider@@QAEJXZ		; C_Slider::GetSliderMin
	mov	DWORD PTR _smin$8[ebp], eax

; 1317 : 
; 1318 : 		pos= (int) RESCALE(PlayerOptions.GetMouseWheelSensitivity(),g_nMouseWheelSensMin,g_nMouseWheelSensMax,smin,smax);

	mov	ecx, OFFSET ?PlayerOptions@@3VPlayerOptionsClass@@A ; PlayerOptions
	call	?GetMouseWheelSensitivity@PlayerOptionsClass@@QAEHXZ ; PlayerOptionsClass::GetMouseWheelSensitivity
	cvtsi2ss xmm0, eax
	cvtsi2ss xmm1, DWORD PTR ?g_nMouseWheelSensMin@@3HA ; g_nMouseWheelSensMin
	subss	xmm0, xmm1
	cvttss2si eax, xmm0
	mov	ecx, DWORD PTR _smax$5[ebp]
	sub	ecx, DWORD PTR _smin$8[ebp]
	imul	eax, ecx
	mov	ecx, DWORD PTR ?g_nMouseWheelSensMax@@3HA ; g_nMouseWheelSensMax
	sub	ecx, DWORD PTR ?g_nMouseWheelSensMin@@3HA ; g_nMouseWheelSensMin
	cdq
	idiv	ecx
	add	eax, DWORD PTR _smin$8[ebp]
	mov	DWORD PTR _pos$2[ebp], eax

; 1319 : 
; 1320 : 		sldr->SetSliderPos(pos);

	mov	edx, DWORD PTR _pos$2[ebp]
	push	edx
	mov	ecx, DWORD PTR _sldr$[ebp]
	call	?SetSliderPos@C_Slider@@QAEXJ@Z		; C_Slider::SetSliderPos

; 1321 : 
; 1322 : 		sldr->SetSliderRange(smin,smax);

	mov	eax, DWORD PTR _smax$5[ebp]
	push	eax
	mov	ecx, DWORD PTR _smin$8[ebp]
	push	ecx
	mov	ecx, DWORD PTR _sldr$[ebp]
	call	?SetSliderRange@C_Slider@@QAEXJJ@Z	; C_Slider::SetSliderRange

; 1323 : 		sldr->SetCallback(MouseWheelSensitivityCB);

	push	OFFSET ?MouseWheelSensitivityCB@@YAXJFPAVC_Base@@@Z ; MouseWheelSensitivityCB
	mov	edx, DWORD PTR _sldr$[ebp]
	mov	eax, DWORD PTR [edx]
	mov	ecx, DWORD PTR _sldr$[ebp]
	mov	edx, DWORD PTR [eax+100]
	call	edx

; 1324 : 		sldr->Refresh();

	mov	eax, DWORD PTR _sldr$[ebp]
	mov	edx, DWORD PTR [eax]
	mov	ecx, DWORD PTR _sldr$[ebp]
	mov	eax, DWORD PTR [edx+160]
	call	eax
$LN15@AdvancedCo:

; 1325 : 
; 1326 : 	}
; 1327 : 	else
; 1328 : 		ShiAssert(false);
; 1329 : 	// Retro 17Jan2004 ends
; 1330 : 
; 1331 : 	// Retro 18Jan2004 - keyboard / POV panning sensitivity slider
; 1332 : 	sldr =(C_Slider*)win->FindControl(SETUP_ADVANCED_KEYPOV_SENS);

	push	70309					; 000112a5H
	mov	ecx, DWORD PTR _win$[ebp]
	call	?FindControl@C_Window@@QAEPAVC_Base@@J@Z ; C_Window::FindControl
	mov	DWORD PTR _sldr$[ebp], eax

; 1333 : 	if (sldr)

	cmp	DWORD PTR _sldr$[ebp], 0
	je	$LN11@AdvancedCo

; 1334 : 	{
; 1335 : 		if (PlayerOptions.GetKeyboardPOVPanningSensitivity() < g_nKeyPOVSensMin)

	mov	ecx, OFFSET ?PlayerOptions@@3VPlayerOptionsClass@@A ; PlayerOptions
	call	?GetKeyboardPOVPanningSensitivity@PlayerOptionsClass@@QAEHXZ ; PlayerOptionsClass::GetKeyboardPOVPanningSensitivity
	cmp	eax, DWORD PTR ?g_nKeyPOVSensMin@@3HA	; g_nKeyPOVSensMin
	jge	SHORT $LN10@AdvancedCo

; 1336 : 			PlayerOptions.SetKeyboardPOVPanningSensitivity(g_nKeyPOVSensMin);

	mov	ecx, DWORD PTR ?g_nKeyPOVSensMin@@3HA	; g_nKeyPOVSensMin
	push	ecx
	mov	ecx, OFFSET ?PlayerOptions@@3VPlayerOptionsClass@@A ; PlayerOptions
	call	?SetKeyboardPOVPanningSensitivity@PlayerOptionsClass@@QAEXH@Z ; PlayerOptionsClass::SetKeyboardPOVPanningSensitivity
$LN10@AdvancedCo:

; 1337 : 		if (PlayerOptions.GetKeyboardPOVPanningSensitivity() > g_nKeyPOVSensMax)

	mov	ecx, OFFSET ?PlayerOptions@@3VPlayerOptionsClass@@A ; PlayerOptions
	call	?GetKeyboardPOVPanningSensitivity@PlayerOptionsClass@@QAEHXZ ; PlayerOptionsClass::GetKeyboardPOVPanningSensitivity
	cmp	eax, DWORD PTR ?g_nKeyPOVSensMax@@3HA	; g_nKeyPOVSensMax
	jle	SHORT $LN9@AdvancedCo

; 1338 : 			PlayerOptions.SetKeyboardPOVPanningSensitivity(g_nKeyPOVSensMax);

	mov	edx, DWORD PTR ?g_nKeyPOVSensMax@@3HA	; g_nKeyPOVSensMax
	push	edx
	mov	ecx, OFFSET ?PlayerOptions@@3VPlayerOptionsClass@@A ; PlayerOptions
	call	?SetKeyboardPOVPanningSensitivity@PlayerOptionsClass@@QAEXH@Z ; PlayerOptionsClass::SetKeyboardPOVPanningSensitivity
$LN9@AdvancedCo:

; 1339 : 
; 1340 : 		int smin,smax,pos;
; 1341 : 
; 1342 : 		smax = sldr->GetSliderMax();

	mov	ecx, DWORD PTR _sldr$[ebp]
	call	?GetSliderMax@C_Slider@@QAEJXZ		; C_Slider::GetSliderMax
	mov	DWORD PTR _smax$4[ebp], eax

; 1343 : 		smin = sldr->GetSliderMin();

	mov	ecx, DWORD PTR _sldr$[ebp]
	call	?GetSliderMin@C_Slider@@QAEJXZ		; C_Slider::GetSliderMin
	mov	DWORD PTR _smin$7[ebp], eax

; 1344 : 
; 1345 : 		pos= (int) RESCALE(PlayerOptions.GetKeyboardPOVPanningSensitivity(),g_nKeyPOVSensMin,g_nKeyPOVSensMax,smin,smax);

	mov	ecx, OFFSET ?PlayerOptions@@3VPlayerOptionsClass@@A ; PlayerOptions
	call	?GetKeyboardPOVPanningSensitivity@PlayerOptionsClass@@QAEHXZ ; PlayerOptionsClass::GetKeyboardPOVPanningSensitivity
	cvtsi2ss xmm0, eax
	cvtsi2ss xmm1, DWORD PTR ?g_nKeyPOVSensMin@@3HA	; g_nKeyPOVSensMin
	subss	xmm0, xmm1
	cvttss2si eax, xmm0
	mov	ecx, DWORD PTR _smax$4[ebp]
	sub	ecx, DWORD PTR _smin$7[ebp]
	imul	eax, ecx
	mov	ecx, DWORD PTR ?g_nKeyPOVSensMax@@3HA	; g_nKeyPOVSensMax
	sub	ecx, DWORD PTR ?g_nKeyPOVSensMin@@3HA	; g_nKeyPOVSensMin
	cdq
	idiv	ecx
	add	eax, DWORD PTR _smin$7[ebp]
	mov	DWORD PTR _pos$1[ebp], eax

; 1346 : 
; 1347 : 		sldr->SetSliderPos(pos);

	mov	edx, DWORD PTR _pos$1[ebp]
	push	edx
	mov	ecx, DWORD PTR _sldr$[ebp]
	call	?SetSliderPos@C_Slider@@QAEXJ@Z		; C_Slider::SetSliderPos

; 1348 : 
; 1349 : 		sldr->SetSliderRange(smin,smax);

	mov	eax, DWORD PTR _smax$4[ebp]
	push	eax
	mov	ecx, DWORD PTR _smin$7[ebp]
	push	ecx
	mov	ecx, DWORD PTR _sldr$[ebp]
	call	?SetSliderRange@C_Slider@@QAEXJJ@Z	; C_Slider::SetSliderRange

; 1350 : 		sldr->SetCallback(KeyPOVPanningSensitivityCB);

	push	OFFSET ?KeyPOVPanningSensitivityCB@@YAXJFPAVC_Base@@@Z ; KeyPOVPanningSensitivityCB
	mov	edx, DWORD PTR _sldr$[ebp]
	mov	eax, DWORD PTR [edx]
	mov	ecx, DWORD PTR _sldr$[ebp]
	mov	edx, DWORD PTR [eax+100]
	call	edx

; 1351 : 		sldr->Refresh();

	mov	eax, DWORD PTR _sldr$[ebp]
	mov	edx, DWORD PTR [eax]
	mov	ecx, DWORD PTR _sldr$[ebp]
	mov	eax, DWORD PTR [edx+160]
	call	eax
$LN11@AdvancedCo:

; 1352 : 
; 1353 : 	}
; 1354 : 	else
; 1355 : 		ShiAssert(false);
; 1356 : 	// Retro 18Jan2004 ends
; 1357 : 
; 1358 : 	// register callbacks for the buttons found on this sheet..
; 1359 : #define NO_EXTRA_WIDGETS	// Retro 27Mar2004
; 1360 : 
; 1361 : 	button = (C_Button*)win->FindControl(AAPPLY);	// this is actually the OK button

	push	70165					; 00011215H
	mov	ecx, DWORD PTR _win$[ebp]
	call	?FindControl@C_Window@@QAEPAVC_Base@@J@Z ; C_Window::FindControl
	mov	DWORD PTR _button$[ebp], eax

; 1362 : 	if(button)

	cmp	DWORD PTR _button$[ebp], 0
	je	SHORT $LN7@AdvancedCo

; 1363 : 		button->SetCallback(AdvancedControlOKCB);

	push	OFFSET ?AdvancedControlOKCB@@YAXJFPAVC_Base@@@Z ; AdvancedControlOKCB
	mov	ecx, DWORD PTR _button$[ebp]
	mov	edx, DWORD PTR [ecx]
	mov	ecx, DWORD PTR _button$[ebp]
	mov	eax, DWORD PTR [edx+100]
	call	eax
$LN7@AdvancedCo:

; 1364 : 
; 1365 : #ifndef NO_EXTRA_WIDGETS	// Retro 27Mar2004
; 1366 : 	button = (C_Button*)win->FindControl(APPLY);	// the 'real' apply button
; 1367 : 	if(button)
; 1368 : 		button->SetCallback(AdvancedControlApplyCB);
; 1369 : 
; 1370 : 	button = (C_Button*)win->FindControl(CANCEL);	// the 'x' widget in the upper left corner
; 1371 : 	if(button)
; 1372 : 		button->SetCallback(AdvancedControlCancelCB);
; 1373 : #endif	// NO_EXTRA_WIDGETS
; 1374 : 
; 1375 : 	// register callbacks for the axis listboxes..
; 1376 : 	for (j = 0; j < AXIS_MAX; j++)

	mov	DWORD PTR _j$[ebp], 0
	jmp	SHORT $LN6@AdvancedCo
$LN5@AdvancedCo:
	mov	ecx, DWORD PTR _j$[ebp]
	add	ecx, 1
	mov	DWORD PTR _j$[ebp], ecx
$LN6@AdvancedCo:
	cmp	DWORD PTR _j$[ebp], 22			; 00000016H
	jge	SHORT $LN4@AdvancedCo

; 1377 : 	{
; 1378 : 		if (UIInputStuff[j].AxisLB == 0)

	mov	edx, DWORD PTR _j$[ebp]
	imul	edx, 28					; 0000001cH
	cmp	DWORD PTR ?UIInputStuff@@3PAUUIInputStuff_t@@A[edx+4], 0
	jne	SHORT $LN3@AdvancedCo

; 1379 : 			continue;

	jmp	SHORT $LN5@AdvancedCo
$LN3@AdvancedCo:

; 1380 : 
; 1381 : 		listbox = (C_ListBox*)win->FindControl(UIInputStuff[j].AxisLB);

	mov	eax, DWORD PTR _j$[ebp]
	imul	eax, 28					; 0000001cH
	mov	ecx, DWORD PTR ?UIInputStuff@@3PAUUIInputStuff_t@@A[eax+4]
	push	ecx
	mov	ecx, DWORD PTR _win$[ebp]
	call	?FindControl@C_Window@@QAEPAVC_Base@@J@Z ; C_Window::FindControl
	mov	DWORD PTR _listbox$[ebp], eax

; 1382 : 		if (listbox)

	cmp	DWORD PTR _listbox$[ebp], 0
	je	SHORT $LN2@AdvancedCo

; 1383 : 			listbox->SetCallback(AxisChangeCB);

	push	OFFSET ?AxisChangeCB@@YAXJFPAVC_Base@@@Z ; AxisChangeCB
	mov	edx, DWORD PTR _listbox$[ebp]
	mov	eax, DWORD PTR [edx]
	mov	ecx, DWORD PTR _listbox$[ebp]
	mov	edx, DWORD PTR [eax+100]
	call	edx
$LN2@AdvancedCo:

; 1384 : 		else
; 1385 : 			ShiAssert(false);
; 1386 : 	}

	jmp	SHORT $LN5@AdvancedCo
$LN4@AdvancedCo:

; 1387 : 
; 1388 : 	InitializeValueBars = 1;	// Retro 26Dec2003

	mov	DWORD PTR ?InitializeValueBars@@3HA, 1	; InitializeValueBars

; 1389 : 
; 1390 : 	/* make it official */
; 1391 : 	gMainHandler->ShowWindow(win);

	mov	eax, DWORD PTR _win$[ebp]
	push	eax
	mov	ecx, DWORD PTR ?gMainHandler@@3PAVC_Handler@@A ; gMainHandler
	call	?ShowWindow@C_Handler@@QAEHPAVC_Window@@@Z ; C_Handler::ShowWindow

; 1392 : 	gMainHandler->WindowToFront(win);

	mov	ecx, DWORD PTR _win$[ebp]
	push	ecx
	mov	ecx, DWORD PTR ?gMainHandler@@3PAVC_Handler@@A ; gMainHandler
	call	?WindowToFront@C_Handler@@QAEXPAVC_Window@@@Z ; C_Handler::WindowToFront
$LN89@AdvancedCo:

; 1393 : }

	mov	esp, ebp
	pop	ebp
	ret	0
?AdvancedControlCB@@YAXJFPAVC_Base@@@Z ENDP		; AdvancedControlCB
_TEXT	ENDS
; Function compile flags: /Odtp
; File c:\users\zhitao li\documents\visual studio 2012\projects\freefalcon\ui\src\setup\controltab.cpp
_TEXT	SEGMENT
_listbox$ = -24						; size = 4
_win$ = -20						; size = 4
_j$1 = -16						; size = 4
_j$2 = -12						; size = 4
_index$ = -8						; size = 4
_i$ = -4						; size = 4
___formal$ = 8						; size = 4
_hittype$ = 12						; size = 2
_me$ = 16						; size = 4
?AxisChangeCB@@YAXJFPAVC_Base@@@Z PROC			; AxisChangeCB

; 922  : {

	push	ebp
	mov	ebp, esp
	sub	esp, 24					; 00000018H

; 923  : 	if ((hittype != C_TYPE_SELECT))

	movsx	eax, WORD PTR _hittype$[ebp]
	cmp	eax, 28					; 0000001cH
	je	SHORT $LN24@AxisChange

; 924  : 		return;

	jmp	$LN25@AxisChange
$LN24@AxisChange:

; 925  : 
; 926  : 	if (!me)

	cmp	DWORD PTR _me$[ebp], 0
	jne	SHORT $LN23@AxisChange

; 927  : 		return;

	jmp	$LN25@AxisChange
$LN23@AxisChange:

; 928  : 	
; 929  : 	C_ListBox *listbox = (C_ListBox*)me;

	mov	ecx, DWORD PTR _me$[ebp]
	mov	DWORD PTR _listbox$[ebp], ecx

; 930  : 	if (!listbox)

	cmp	DWORD PTR _listbox$[ebp], 0
	jne	SHORT $LN22@AxisChange

; 931  : 		return;

	jmp	$LN25@AxisChange
$LN22@AxisChange:

; 932  : 
; 933  : 	/* pointer to mommy */
; 934  : 	C_Window	*win;
; 935  : 
; 936  : 	win=gMainHandler->FindWindow(SETUP_WIN);

	push	70002					; 00011172H
	mov	ecx, DWORD PTR ?gMainHandler@@3PAVC_Handler@@A ; gMainHandler
	call	?FindWindowA@C_Handler@@QAEPAVC_Window@@J@Z ; C_Handler::FindWindowA
	mov	DWORD PTR _win$[ebp], eax

; 937  : 	if(win == NULL) return;

	cmp	DWORD PTR _win$[ebp], 0
	jne	SHORT $LN21@AxisChange
	jmp	$LN25@AxisChange
$LN21@AxisChange:

; 938  : 
; 939  : 	win=gMainHandler->FindWindow(SETUP_CONTROL_ADVANCED_WIN);

	push	70221					; 0001124dH
	mov	ecx, DWORD PTR ?gMainHandler@@3PAVC_Handler@@A ; gMainHandler
	call	?FindWindowA@C_Handler@@QAEPAVC_Window@@J@Z ; C_Handler::FindWindowA
	mov	DWORD PTR _win$[ebp], eax

; 940  : 	if(!win) return;

	cmp	DWORD PTR _win$[ebp], 0
	jne	SHORT $LN20@AxisChange
	jmp	$LN25@AxisChange
$LN20@AxisChange:

; 941  : 
; 942  : 	// k now I figure we can start working ;)
; 943  : 
; 944  : 	// looking in the keyboard itemdata for the index of the Axis I am in..
; 945  : 	int i = GetListBoxItemData(listbox,1,1);

	push	1
	push	1
	mov	edx, DWORD PTR _listbox$[ebp]
	push	edx
	call	?GetListBoxItemData@@YAJPAVC_ListBox@@HJ@Z ; GetListBoxItemData
	add	esp, 12					; 0000000cH
	mov	DWORD PTR _i$[ebp], eax

; 946  : 	if (i == -2)	// whoops, error in the above routine..

	cmp	DWORD PTR _i$[ebp], -2			; fffffffeH
	jne	SHORT $LN19@AxisChange

; 947  : 		return;

	jmp	$LN25@AxisChange
$LN19@AxisChange:

; 948  : 
; 949  : 	// now I know in which axis box I am !
; 950  : 	long index = GetListBoxItemData(listbox,0);

	push	0
	push	0
	mov	eax, DWORD PTR _listbox$[ebp]
	push	eax
	call	?GetListBoxItemData@@YAJPAVC_ListBox@@HJ@Z ; GetListBoxItemData
	add	esp, 12					; 0000000cH
	mov	DWORD PTR _index$[ebp], eax

; 951  : 	if (index == -2)	// whoops, error in the above routine..

	cmp	DWORD PTR _index$[ebp], -2		; fffffffeH
	jne	SHORT $LN18@AxisChange

; 952  : 		return;

	jmp	$LN25@AxisChange
$LN18@AxisChange:

; 953  : 
; 954  : 	if ((index == -1)&&(UIInputStuff[i].theDeviceAxis->Device == -1)&&(UIInputStuff[i].theDeviceAxis->Axis == -1))

	cmp	DWORD PTR _index$[ebp], -1
	jne	SHORT $LN17@AxisChange
	mov	ecx, DWORD PTR _i$[ebp]
	imul	ecx, 28					; 0000001cH
	mov	edx, DWORD PTR ?UIInputStuff@@3PAUUIInputStuff_t@@A[ecx+24]
	cmp	DWORD PTR [edx], -1
	jne	SHORT $LN17@AxisChange
	mov	eax, DWORD PTR _i$[ebp]
	imul	eax, 28					; 0000001cH
	mov	ecx, DWORD PTR ?UIInputStuff@@3PAUUIInputStuff_t@@A[eax+24]
	cmp	DWORD PTR [ecx+4], -1
	jne	SHORT $LN17@AxisChange

; 955  : 	{
; 956  : 		return;	// no change

	jmp	$LN25@AxisChange
	jmp	$LN25@AxisChange
$LN17@AxisChange:

; 957  : 	}
; 958  : 	else if (index == -1)

	cmp	DWORD PTR _index$[ebp], -1
	jne	$LN15@AxisChange

; 959  : 	{
; 960  : 		// change from an axis to keyboard
; 961  : 		// now how do I find out the old axis ? hmm
; 962  : 		for (int j = 0; DIAxisNames[j].DXAxisName; j++)

	mov	DWORD PTR _j$2[ebp], 0
	jmp	SHORT $LN14@AxisChange
$LN13@AxisChange:
	mov	edx, DWORD PTR _j$2[ebp]
	add	edx, 1
	mov	DWORD PTR _j$2[ebp], edx
$LN14@AxisChange:
	mov	eax, DWORD PTR _j$2[ebp]
	shl	eax, 4
	cmp	DWORD PTR ?DIAxisNames@@3PAUAxisIDStuff@@A[eax], 0
	je	$LN12@AxisChange

; 963  : 		{
; 964  : 			if ((DIAxisNames[j].DXDeviceID == UIInputStuff[i].theDeviceAxis->Device)&&
; 965  : 				(DIAxisNames[j].DXAxisID == UIInputStuff[i].theDeviceAxis->Axis))

	mov	ecx, DWORD PTR _j$2[ebp]
	shl	ecx, 4
	mov	edx, DWORD PTR _i$[ebp]
	imul	edx, 28					; 0000001cH
	mov	eax, DWORD PTR ?UIInputStuff@@3PAUUIInputStuff_t@@A[edx+24]
	mov	ecx, DWORD PTR ?DIAxisNames@@3PAUAxisIDStuff@@A[ecx+8]
	cmp	ecx, DWORD PTR [eax]
	jne	SHORT $LN11@AxisChange
	mov	edx, DWORD PTR _j$2[ebp]
	shl	edx, 4
	mov	eax, DWORD PTR _i$[ebp]
	imul	eax, 28					; 0000001cH
	mov	ecx, DWORD PTR ?UIInputStuff@@3PAUUIInputStuff_t@@A[eax+24]
	mov	edx, DWORD PTR ?DIAxisNames@@3PAUAxisIDStuff@@A[edx+4]
	cmp	edx, DWORD PTR [ecx+4]
	jne	SHORT $LN11@AxisChange

; 966  : 			{
; 967  : 				ShiAssert(DIAxisNames[j].isMapped == true);
; 968  : 
; 969  : 				DIAxisNames[j].isMapped = false;

	mov	eax, DWORD PTR _j$2[ebp]
	shl	eax, 4
	mov	BYTE PTR ?DIAxisNames@@3PAUAxisIDStuff@@A[eax+12], 0

; 970  : 				UIInputStuff[i].theDeviceAxis->Device = -1;

	mov	ecx, DWORD PTR _i$[ebp]
	imul	ecx, 28					; 0000001cH
	mov	edx, DWORD PTR ?UIInputStuff@@3PAUUIInputStuff_t@@A[ecx+24]
	mov	DWORD PTR [edx], -1

; 971  : 				UIInputStuff[i].theDeviceAxis->Axis = -1;

	mov	eax, DWORD PTR _i$[ebp]
	imul	eax, 28					; 0000001cH
	mov	ecx, DWORD PTR ?UIInputStuff@@3PAUUIInputStuff_t@@A[eax+24]
	mov	DWORD PTR [ecx+4], -1

; 972  : 
; 973  : 				AdvancedControlApplyCB(0,C_TYPE_LMOUSEUP,0);	// Retro 27Mar2004

	push	0
	push	52					; 00000034H
	push	0
	call	?AdvancedControlApplyCB@@YAXJFPAVC_Base@@@Z ; AdvancedControlApplyCB
	add	esp, 12					; 0000000cH

; 974  : 
; 975  : 				RePopulateAllListBoxes(win);

	mov	edx, DWORD PTR _win$[ebp]
	push	edx
	call	?RePopulateAllListBoxes@@YAXPAVC_Window@@@Z ; RePopulateAllListBoxes
	add	esp, 4
$LN11@AxisChange:

; 976  : 			}
; 977  : 		}

	jmp	$LN13@AxisChange
$LN12@AxisChange:

; 978  : 		return;

	jmp	$LN25@AxisChange

; 979  : 	}
; 980  : 	else

	jmp	$LN25@AxisChange
$LN15@AxisChange:

; 981  : 	{
; 982  : 		// was not keyboard
; 983  : 		// so we have the change from one axis to another axis
; 984  : 		if ((DIAxisNames[index].DXDeviceID == UIInputStuff[i].theDeviceAxis->Device)&&
; 985  : 			(DIAxisNames[index].DXAxisID == UIInputStuff[i].theDeviceAxis->Axis))

	mov	eax, DWORD PTR _index$[ebp]
	shl	eax, 4
	mov	ecx, DWORD PTR _i$[ebp]
	imul	ecx, 28					; 0000001cH
	mov	edx, DWORD PTR ?UIInputStuff@@3PAUUIInputStuff_t@@A[ecx+24]
	mov	eax, DWORD PTR ?DIAxisNames@@3PAUAxisIDStuff@@A[eax+8]
	cmp	eax, DWORD PTR [edx]
	jne	SHORT $LN9@AxisChange
	mov	ecx, DWORD PTR _index$[ebp]
	shl	ecx, 4
	mov	edx, DWORD PTR _i$[ebp]
	imul	edx, 28					; 0000001cH
	mov	eax, DWORD PTR ?UIInputStuff@@3PAUUIInputStuff_t@@A[edx+24]
	mov	ecx, DWORD PTR ?DIAxisNames@@3PAUAxisIDStuff@@A[ecx+4]
	cmp	ecx, DWORD PTR [eax+4]
	jne	SHORT $LN9@AxisChange

; 986  : 		{
; 987  : 			ShiAssert(DIAxisNames[index].isMapped == true);
; 988  : 			return; // no change

	jmp	$LN25@AxisChange

; 989  : 		}
; 990  : 		else

	jmp	$LN25@AxisChange
$LN9@AxisChange:

; 991  : 		{
; 992  : 			// super-special exception case:
; 993  : 			// I dont want the mouse axis to act as a throttle !
; 994  : 			if (DIAxisNames[index].DXDeviceID == SIM_MOUSE)

	mov	edx, DWORD PTR _index$[ebp]
	shl	edx, 4
	cmp	DWORD PTR ?DIAxisNames@@3PAUAxisIDStuff@@A[edx+8], 0
	jne	SHORT $LN7@AxisChange

; 995  : 			{
; 996  : 				if ((UIInputStuff[i].AxisLB == SETUP_ADVANCED_THROTTLE_AXIS)||
; 997  : 					(UIInputStuff[i].AxisLB == SETUP_ADVANCED_THROTTLE2_AXIS))

	mov	eax, DWORD PTR _i$[ebp]
	imul	eax, 28					; 0000001cH
	cmp	DWORD PTR ?UIInputStuff@@3PAUUIInputStuff_t@@A[eax+4], 70227 ; 00011253H
	je	SHORT $LN5@AxisChange
	mov	ecx, DWORD PTR _i$[ebp]
	imul	ecx, 28					; 0000001cH
	cmp	DWORD PTR ?UIInputStuff@@3PAUUIInputStuff_t@@A[ecx+4], 70271 ; 0001127fH
	jne	SHORT $LN7@AxisChange
$LN5@AxisChange:

; 998  : 				{
; 999  : 					// NEED TO RESET THE OLD NAME HERE !!!
; 1000 : 					RePopulateAllListBoxes(win);	// no change !

	mov	edx, DWORD PTR _win$[ebp]
	push	edx
	call	?RePopulateAllListBoxes@@YAXPAVC_Window@@@Z ; RePopulateAllListBoxes
	add	esp, 4

; 1001 : 					return;	// tadaa !

	jmp	$LN25@AxisChange
$LN7@AxisChange:

; 1002 : 				}
; 1003 : 			}
; 1004 : 
; 1005 : 			// change from axis to another axis
; 1006 : 			DIAxisNames[index].isMapped = true;

	mov	eax, DWORD PTR _index$[ebp]
	shl	eax, 4
	mov	BYTE PTR ?DIAxisNames@@3PAUAxisIDStuff@@A[eax+12], 1

; 1007 : 
; 1008 : 			// now how do I find out the old axis ? hmm
; 1009 : 			for (int j = 0; DIAxisNames[j].DXAxisName; j++)

	mov	DWORD PTR _j$1[ebp], 0
	jmp	SHORT $LN4@AxisChange
$LN3@AxisChange:
	mov	ecx, DWORD PTR _j$1[ebp]
	add	ecx, 1
	mov	DWORD PTR _j$1[ebp], ecx
$LN4@AxisChange:
	mov	edx, DWORD PTR _j$1[ebp]
	shl	edx, 4
	cmp	DWORD PTR ?DIAxisNames@@3PAUAxisIDStuff@@A[edx], 0
	je	SHORT $LN2@AxisChange

; 1010 : 			{
; 1011 : 				if ((DIAxisNames[j].DXDeviceID == UIInputStuff[i].theDeviceAxis->Device)&&
; 1012 : 					(DIAxisNames[j].DXAxisID == UIInputStuff[i].theDeviceAxis->Axis))

	mov	eax, DWORD PTR _j$1[ebp]
	shl	eax, 4
	mov	ecx, DWORD PTR _i$[ebp]
	imul	ecx, 28					; 0000001cH
	mov	edx, DWORD PTR ?UIInputStuff@@3PAUUIInputStuff_t@@A[ecx+24]
	mov	eax, DWORD PTR ?DIAxisNames@@3PAUAxisIDStuff@@A[eax+8]
	cmp	eax, DWORD PTR [edx]
	jne	SHORT $LN1@AxisChange
	mov	ecx, DWORD PTR _j$1[ebp]
	shl	ecx, 4
	mov	edx, DWORD PTR _i$[ebp]
	imul	edx, 28					; 0000001cH
	mov	eax, DWORD PTR ?UIInputStuff@@3PAUUIInputStuff_t@@A[edx+24]
	mov	ecx, DWORD PTR ?DIAxisNames@@3PAUAxisIDStuff@@A[ecx+4]
	cmp	ecx, DWORD PTR [eax+4]
	jne	SHORT $LN1@AxisChange

; 1013 : 				{
; 1014 : 					DIAxisNames[j].isMapped = false;

	mov	edx, DWORD PTR _j$1[ebp]
	shl	edx, 4
	mov	BYTE PTR ?DIAxisNames@@3PAUAxisIDStuff@@A[edx+12], 0
$LN1@AxisChange:

; 1015 : 				}
; 1016 : 			}

	jmp	SHORT $LN3@AxisChange
$LN2@AxisChange:

; 1017 : 
; 1018 : 			UIInputStuff[i].theDeviceAxis->Device = DIAxisNames[index].DXDeviceID;

	mov	eax, DWORD PTR _index$[ebp]
	shl	eax, 4
	mov	ecx, DWORD PTR _i$[ebp]
	imul	ecx, 28					; 0000001cH
	mov	edx, DWORD PTR ?UIInputStuff@@3PAUUIInputStuff_t@@A[ecx+24]
	mov	eax, DWORD PTR ?DIAxisNames@@3PAUAxisIDStuff@@A[eax+8]
	mov	DWORD PTR [edx], eax

; 1019 : 			UIInputStuff[i].theDeviceAxis->Axis = DIAxisNames[index].DXAxisID;

	mov	ecx, DWORD PTR _index$[ebp]
	shl	ecx, 4
	mov	edx, DWORD PTR _i$[ebp]
	imul	edx, 28					; 0000001cH
	mov	eax, DWORD PTR ?UIInputStuff@@3PAUUIInputStuff_t@@A[edx+24]
	mov	ecx, DWORD PTR ?DIAxisNames@@3PAUAxisIDStuff@@A[ecx+4]
	mov	DWORD PTR [eax+4], ecx

; 1020 : 
; 1021 : 			AdvancedControlApplyCB(0,C_TYPE_LMOUSEUP,0);	// Retro 27Mar2004

	push	0
	push	52					; 00000034H
	push	0
	call	?AdvancedControlApplyCB@@YAXJFPAVC_Base@@@Z ; AdvancedControlApplyCB
	add	esp, 12					; 0000000cH

; 1022 : 
; 1023 : 			RePopulateAllListBoxes(win);

	mov	edx, DWORD PTR _win$[ebp]
	push	edx
	call	?RePopulateAllListBoxes@@YAXPAVC_Window@@@Z ; RePopulateAllListBoxes
	add	esp, 4
$LN25@AxisChange:

; 1024 : 			return;
; 1025 : 		}
; 1026 : 	}
; 1027 : 	
; 1028 : 	ShiAssert(false);	// should never come here
; 1029 : }

	mov	esp, ebp
	pop	ebp
	ret	0
?AxisChangeCB@@YAXJFPAVC_Base@@@Z ENDP			; AxisChangeCB
_TEXT	ENDS
; Function compile flags: /Odtp
; File c:\users\zhitao li\documents\visual studio 2012\projects\freefalcon\ui\src\setup\controltab.cpp
_TEXT	SEGMENT
_listbox$1 = -12					; size = 4
_UIAxisIndex$2 = -8					; size = 4
_i$3 = -4						; size = 4
_win$ = 8						; size = 4
?RePopulateAllListBoxes@@YAXPAVC_Window@@@Z PROC	; RePopulateAllListBoxes

; 852  : {

	push	ebp
	mov	ebp, esp
	sub	esp, 12					; 0000000cH

; 853  : 	if (win)

	cmp	DWORD PTR _win$[ebp], 0
	je	$LN17@RePopulate

; 854  : 	{
; 855  : 		C_ListBox	*listbox;
; 856  : 
; 857  : 		for (int UIAxisIndex = 0; UIAxisIndex < AXIS_MAX; UIAxisIndex++)

	mov	DWORD PTR _UIAxisIndex$2[ebp], 0
	jmp	SHORT $LN15@RePopulate
$LN14@RePopulate:
	mov	eax, DWORD PTR _UIAxisIndex$2[ebp]
	add	eax, 1
	mov	DWORD PTR _UIAxisIndex$2[ebp], eax
$LN15@RePopulate:
	cmp	DWORD PTR _UIAxisIndex$2[ebp], 22	; 00000016H
	jge	$LN17@RePopulate

; 858  : 		{
; 859  : 
; 860  : 			if (UIInputStuff[UIAxisIndex].AxisLB == 0)

	mov	ecx, DWORD PTR _UIAxisIndex$2[ebp]
	imul	ecx, 28					; 0000001cH
	cmp	DWORD PTR ?UIInputStuff@@3PAUUIInputStuff_t@@A[ecx+4], 0
	jne	SHORT $LN12@RePopulate

; 861  : 				continue;

	jmp	SHORT $LN14@RePopulate
$LN12@RePopulate:

; 862  : 
; 863  : 			listbox = (C_ListBox *)win->FindControl(UIInputStuff[UIAxisIndex].AxisLB);

	mov	edx, DWORD PTR _UIAxisIndex$2[ebp]
	imul	edx, 28					; 0000001cH
	mov	eax, DWORD PTR ?UIInputStuff@@3PAUUIInputStuff_t@@A[edx+4]
	push	eax
	mov	ecx, DWORD PTR _win$[ebp]
	call	?FindControl@C_Window@@QAEPAVC_Base@@J@Z ; C_Window::FindControl
	mov	DWORD PTR _listbox$1[ebp], eax

; 864  : 
; 865  : 			if (listbox)

	cmp	DWORD PTR _listbox$1[ebp], 0
	je	$LN2@RePopulate

; 866  : 			{
; 867  : 				if(gTotalJoy)

	cmp	DWORD PTR ?gTotalJoy@@3HA, 0		; gTotalJoy
	je	$LN2@RePopulate

; 868  : 				{
; 869  : 					// loop through all enumerated axis and add the unmapped ones..
; 870  : 					for (int i = 0; DIAxisNames[i].DXAxisName; i++)

	mov	DWORD PTR _i$3[ebp], 0
	jmp	SHORT $LN9@RePopulate
$LN8@RePopulate:
	mov	ecx, DWORD PTR _i$3[ebp]
	add	ecx, 1
	mov	DWORD PTR _i$3[ebp], ecx
$LN9@RePopulate:
	mov	edx, DWORD PTR _i$3[ebp]
	shl	edx, 4
	cmp	DWORD PTR ?DIAxisNames@@3PAUAxisIDStuff@@A[edx], 0
	je	$LN7@RePopulate

; 871  : 					{
; 872  : 						if (DIAxisNames[i].isMapped == false)

	mov	eax, DWORD PTR _i$3[ebp]
	shl	eax, 4
	movzx	ecx, BYTE PTR ?DIAxisNames@@3PAUAxisIDStuff@@A[eax+12]
	test	ecx, ecx
	jne	SHORT $LN6@RePopulate

; 873  : 						{
; 874  : //							SetListBoxItemData(listbox,i+SIM_JOYSTICK1,0,i);
; 875  : 							listbox->SetItemFlags(i + SIM_JOYSTICK1,C_BIT_ENABLED);

	push	2048					; 00000800H
	mov	edx, DWORD PTR _i$3[ebp]
	add	edx, 2
	push	edx
	mov	ecx, DWORD PTR _listbox$1[ebp]
	call	?SetItemFlags@C_ListBox@@QAEXJJ@Z	; C_ListBox::SetItemFlags

; 876  : 						}
; 877  : 						else

	jmp	SHORT $LN5@RePopulate
$LN6@RePopulate:

; 878  : 						{
; 879  : 							listbox->SetItemFlags(i + SIM_JOYSTICK1,C_BIT_INVISIBLE);

	push	8192					; 00002000H
	mov	eax, DWORD PTR _i$3[ebp]
	add	eax, 2
	push	eax
	mov	ecx, DWORD PTR _listbox$1[ebp]
	call	?SetItemFlags@C_ListBox@@QAEXJJ@Z	; C_ListBox::SetItemFlags
$LN5@RePopulate:

; 880  : 						}
; 881  : 
; 882  : 						//	this one is the axis that is mapped to the axis the listbox is about
; 883  : 						//	it is of course mapped so we have to do some fancy coding..
; 884  : 						if (DIAxisNames[i].DXDeviceID == UIInputStuff[UIAxisIndex].theDeviceAxis->Device)

	mov	ecx, DWORD PTR _i$3[ebp]
	shl	ecx, 4
	mov	edx, DWORD PTR _UIAxisIndex$2[ebp]
	imul	edx, 28					; 0000001cH
	mov	eax, DWORD PTR ?UIInputStuff@@3PAUUIInputStuff_t@@A[edx+24]
	mov	ecx, DWORD PTR ?DIAxisNames@@3PAUAxisIDStuff@@A[ecx+8]
	cmp	ecx, DWORD PTR [eax]
	jne	SHORT $LN4@RePopulate

; 885  : 						{
; 886  : 							if (DIAxisNames[i].DXAxisID == UIInputStuff[UIAxisIndex].theDeviceAxis->Axis)

	mov	edx, DWORD PTR _i$3[ebp]
	shl	edx, 4
	mov	eax, DWORD PTR _UIAxisIndex$2[ebp]
	imul	eax, 28					; 0000001cH
	mov	ecx, DWORD PTR ?UIInputStuff@@3PAUUIInputStuff_t@@A[eax+24]
	mov	edx, DWORD PTR ?DIAxisNames@@3PAUAxisIDStuff@@A[edx+4]
	cmp	edx, DWORD PTR [ecx+4]
	jne	SHORT $LN4@RePopulate

; 887  : 							{
; 888  : 								// Add the axis and hilight it
; 889  : 								listbox->SetItemFlags(i + SIM_JOYSTICK1,C_BIT_ENABLED);

	push	2048					; 00000800H
	mov	eax, DWORD PTR _i$3[ebp]
	add	eax, 2
	push	eax
	mov	ecx, DWORD PTR _listbox$1[ebp]
	call	?SetItemFlags@C_ListBox@@QAEXJJ@Z	; C_ListBox::SetItemFlags

; 890  : //								SetListBoxItemData(listbox,i+SIM_JOYSTICK1,0,i);
; 891  : 								listbox->SetValue(i + SIM_JOYSTICK1);

	mov	ecx, DWORD PTR _i$3[ebp]
	add	ecx, 2
	push	ecx
	mov	ecx, DWORD PTR _listbox$1[ebp]
	call	?SetValue@C_ListBox@@QAEXJ@Z		; C_ListBox::SetValue
$LN4@RePopulate:

; 892  : 								ShiAssert(DIAxisNames[i].isMapped == true);
; 893  : 							}
; 894  : 						}
; 895  : 					}

	jmp	$LN8@RePopulate
$LN7@RePopulate:

; 896  : 					listbox->Refresh();

	mov	edx, DWORD PTR _listbox$1[ebp]
	mov	eax, DWORD PTR [edx]
	mov	ecx, DWORD PTR _listbox$1[ebp]
	mov	edx, DWORD PTR [eax+160]
	call	edx
$LN2@RePopulate:

; 897  : 				}
; 898  : 			}
; 899  : 			else
; 900  : 			{
; 901  : 				ShiAssert(false);
; 902  : 			}
; 903  : 		}

	jmp	$LN14@RePopulate
$LN17@RePopulate:

; 904  : 	}
; 905  : 	else
; 906  : 	{
; 907  : 		ShiAssert(false);
; 908  : 	}
; 909  : }

	mov	esp, ebp
	pop	ebp
	ret	0
?RePopulateAllListBoxes@@YAXPAVC_Window@@@Z ENDP	; RePopulateAllListBoxes
_TEXT	ENDS
; Function compile flags: /Odtp
; File c:\users\zhitao li\documents\visual studio 2012\projects\freefalcon\ui\src\setup\controltab.cpp
_TEXT	SEGMENT
_listbox$1 = -8						; size = 4
_UIAxisIndex$2 = -4					; size = 4
_win$ = 8						; size = 4
?PopulateAllListBoxes@@YAXPAVC_Window@@@Z PROC		; PopulateAllListBoxes

; 805  : {

	push	ebp
	mov	ebp, esp
	sub	esp, 8

; 806  : 	if (win)

	cmp	DWORD PTR _win$[ebp], 0
	je	$LN9@PopulateAl

; 807  : 	{
; 808  : 		C_ListBox	*listbox;
; 809  : 
; 810  : 		for (int UIAxisIndex = 0; UIAxisIndex < AXIS_MAX; UIAxisIndex++)

	mov	DWORD PTR _UIAxisIndex$2[ebp], 0
	jmp	SHORT $LN7@PopulateAl
$LN6@PopulateAl:
	mov	eax, DWORD PTR _UIAxisIndex$2[ebp]
	add	eax, 1
	mov	DWORD PTR _UIAxisIndex$2[ebp], eax
$LN7@PopulateAl:
	cmp	DWORD PTR _UIAxisIndex$2[ebp], 22	; 00000016H
	jge	$LN9@PopulateAl

; 811  : 		{
; 812  : 			if (UIInputStuff[UIAxisIndex].AxisLB == 0)

	mov	ecx, DWORD PTR _UIAxisIndex$2[ebp]
	imul	ecx, 28					; 0000001cH
	cmp	DWORD PTR ?UIInputStuff@@3PAUUIInputStuff_t@@A[ecx+4], 0
	jne	SHORT $LN4@PopulateAl

; 813  : 				continue;

	jmp	SHORT $LN6@PopulateAl
$LN4@PopulateAl:

; 814  : 
; 815  : 			listbox = (C_ListBox *)win->FindControl(UIInputStuff[UIAxisIndex].AxisLB);

	mov	edx, DWORD PTR _UIAxisIndex$2[ebp]
	imul	edx, 28					; 0000001cH
	mov	eax, DWORD PTR ?UIInputStuff@@3PAUUIInputStuff_t@@A[edx+4]
	push	eax
	mov	ecx, DWORD PTR _win$[ebp]
	call	?FindControl@C_Window@@QAEPAVC_Base@@J@Z ; C_Window::FindControl
	mov	DWORD PTR _listbox$1[ebp], eax

; 816  : 
; 817  : 			if (listbox)

	cmp	DWORD PTR _listbox$1[ebp], 0
	je	SHORT $LN2@PopulateAl

; 818  : 			{
; 819  : 				// clear em..
; 820  : 				listbox->RemoveAllItems();

	mov	ecx, DWORD PTR _listbox$1[ebp]
	call	?RemoveAllItems@C_ListBox@@QAEXXZ	; C_ListBox::RemoveAllItems

; 821  : 
; 822  : 				// all have the keyboard available
; 823  : 				listbox->AddItem(1,C_TYPE_ITEM,TXT_KEYBOARD);

	push	197					; 000000c5H
	push	50					; 00000032H
	push	1
	mov	ecx, DWORD PTR _listbox$1[ebp]
	call	?AddItem@C_ListBox@@QAEPAV1@JFJ@Z	; C_ListBox::AddItem

; 824  : 
; 825  : 				// keyboards have special itemdata.. its ALWAYS on index1 and it has actually
; 826  : 				// TWO of them: the second one tells in which AxisUIListbox it is..
; 827  : 				SetListBoxItemData(listbox,1,0,-1);

	push	-1
	push	0
	push	1
	mov	ecx, DWORD PTR _listbox$1[ebp]
	push	ecx
	call	?SetListBoxItemData@@YA_NPAVC_ListBox@@JFJ@Z ; SetListBoxItemData
	add	esp, 16					; 00000010H

; 828  : 				SetListBoxItemData(listbox,1,1,UIAxisIndex);

	mov	edx, DWORD PTR _UIAxisIndex$2[ebp]
	push	edx
	push	1
	push	1
	mov	eax, DWORD PTR _listbox$1[ebp]
	push	eax
	call	?SetListBoxItemData@@YA_NPAVC_ListBox@@JFJ@Z ; SetListBoxItemData
	add	esp, 16					; 00000010H

; 829  : 
; 830  : 				listbox->SetValue(1);

	push	1
	mov	ecx, DWORD PTR _listbox$1[ebp]
	call	?SetValue@C_ListBox@@QAEXJ@Z		; C_ListBox::SetValue

; 831  : 
; 832  : 				// fill it with other available (unmapped) axis
; 833  : 				FillListBox(listbox, UIAxisIndex);

	mov	ecx, DWORD PTR _UIAxisIndex$2[ebp]
	push	ecx
	mov	edx, DWORD PTR _listbox$1[ebp]
	push	edx
	call	?FillListBox@@YAXPAVC_ListBox@@H@Z	; FillListBox
	add	esp, 8
$LN2@PopulateAl:

; 834  : 
; 835  : 			}
; 836  : 			else
; 837  : 				ShiAssert(false);
; 838  : 		}

	jmp	$LN6@PopulateAl
$LN9@PopulateAl:

; 839  : 	}
; 840  : 	else
; 841  : 	{
; 842  : 		ShiAssert(false);
; 843  : 	}
; 844  : }

	mov	esp, ebp
	pop	ebp
	ret	0
?PopulateAllListBoxes@@YAXPAVC_Window@@@Z ENDP		; PopulateAllListBoxes
_TEXT	ENDS
; Function compile flags: /Odtp
; File c:\users\zhitao li\documents\visual studio 2012\projects\freefalcon\ui\src\setup\controltab.cpp
_TEXT	SEGMENT
_i$1 = -4						; size = 4
_theLB$ = 8						; size = 4
_theUIAxisIndex$ = 12					; size = 4
?FillListBox@@YAXPAVC_ListBox@@H@Z PROC			; FillListBox

; 756  : {

	push	ebp
	mov	ebp, esp
	push	ecx

; 757  : 	if (theLB)

	cmp	DWORD PTR _theLB$[ebp], 0
	je	$LN11@FillListBo

; 758  : 	{
; 759  : 		if(gTotalJoy)

	cmp	DWORD PTR ?gTotalJoy@@3HA, 0		; gTotalJoy
	je	$LN11@FillListBo

; 760  : 		{
; 761  : 			// loop through all enumerated axis and add the unmapped ones..
; 762  : 			for (int i = 0; DIAxisNames[i].DXAxisName; i++)

	mov	DWORD PTR _i$1[ebp], 0
	jmp	SHORT $LN8@FillListBo
$LN7@FillListBo:
	mov	eax, DWORD PTR _i$1[ebp]
	add	eax, 1
	mov	DWORD PTR _i$1[ebp], eax
$LN8@FillListBo:
	mov	ecx, DWORD PTR _i$1[ebp]
	shl	ecx, 4
	cmp	DWORD PTR ?DIAxisNames@@3PAUAxisIDStuff@@A[ecx], 0
	je	$LN6@FillListBo

; 763  : 			{
; 764  : 				theLB->AddItem(i + SIM_JOYSTICK1,C_TYPE_ITEM,DIAxisNames[i].DXAxisName);

	mov	edx, DWORD PTR _i$1[ebp]
	shl	edx, 4
	mov	eax, DWORD PTR ?DIAxisNames@@3PAUAxisIDStuff@@A[edx]
	push	eax
	push	50					; 00000032H
	mov	ecx, DWORD PTR _i$1[ebp]
	add	ecx, 2
	push	ecx
	mov	ecx, DWORD PTR _theLB$[ebp]
	call	?AddItem@C_ListBox@@QAEPAV1@JFPAD@Z	; C_ListBox::AddItem

; 765  : 				SetListBoxItemData(theLB,i+SIM_JOYSTICK1,0,i);

	mov	edx, DWORD PTR _i$1[ebp]
	push	edx
	push	0
	mov	eax, DWORD PTR _i$1[ebp]
	add	eax, 2
	push	eax
	mov	ecx, DWORD PTR _theLB$[ebp]
	push	ecx
	call	?SetListBoxItemData@@YA_NPAVC_ListBox@@JFJ@Z ; SetListBoxItemData
	add	esp, 16					; 00000010H

; 766  : 
; 767  : 				if (DIAxisNames[i].isMapped == false)

	mov	edx, DWORD PTR _i$1[ebp]
	shl	edx, 4
	movzx	eax, BYTE PTR ?DIAxisNames@@3PAUAxisIDStuff@@A[edx+12]
	test	eax, eax
	jne	SHORT $LN5@FillListBo

; 768  : 				{	
; 769  : 					theLB->SetItemFlags(i + SIM_JOYSTICK1,C_BIT_ENABLED);

	push	2048					; 00000800H
	mov	ecx, DWORD PTR _i$1[ebp]
	add	ecx, 2
	push	ecx
	mov	ecx, DWORD PTR _theLB$[ebp]
	call	?SetItemFlags@C_ListBox@@QAEXJJ@Z	; C_ListBox::SetItemFlags

; 770  : 				}
; 771  : 				else

	jmp	SHORT $LN4@FillListBo
$LN5@FillListBo:

; 772  : 				{
; 773  : 					theLB->SetItemFlags(i + SIM_JOYSTICK1,C_BIT_INVISIBLE);

	push	8192					; 00002000H
	mov	edx, DWORD PTR _i$1[ebp]
	add	edx, 2
	push	edx
	mov	ecx, DWORD PTR _theLB$[ebp]
	call	?SetItemFlags@C_ListBox@@QAEXJJ@Z	; C_ListBox::SetItemFlags
$LN4@FillListBo:

; 774  : 				}
; 775  : 
; 776  : 				//	this one is the axis that is mapped to the axis the listbox is about
; 777  : 				//	it is of course mapped so we have to do some fancy coding..
; 778  : 				if (DIAxisNames[i].DXDeviceID == UIInputStuff[theUIAxisIndex].theDeviceAxis->Device)

	mov	eax, DWORD PTR _i$1[ebp]
	shl	eax, 4
	mov	ecx, DWORD PTR _theUIAxisIndex$[ebp]
	imul	ecx, 28					; 0000001cH
	mov	edx, DWORD PTR ?UIInputStuff@@3PAUUIInputStuff_t@@A[ecx+24]
	mov	eax, DWORD PTR ?DIAxisNames@@3PAUAxisIDStuff@@A[eax+8]
	cmp	eax, DWORD PTR [edx]
	jne	SHORT $LN3@FillListBo

; 779  : 				{
; 780  : 					if (DIAxisNames[i].DXAxisID == UIInputStuff[theUIAxisIndex].theDeviceAxis->Axis)

	mov	ecx, DWORD PTR _i$1[ebp]
	shl	ecx, 4
	mov	edx, DWORD PTR _theUIAxisIndex$[ebp]
	imul	edx, 28					; 0000001cH
	mov	eax, DWORD PTR ?UIInputStuff@@3PAUUIInputStuff_t@@A[edx+24]
	mov	ecx, DWORD PTR ?DIAxisNames@@3PAUAxisIDStuff@@A[ecx+4]
	cmp	ecx, DWORD PTR [eax+4]
	jne	SHORT $LN3@FillListBo

; 781  : 					{
; 782  : 						// Add the axis and hilight it
; 783  : 						theLB->SetItemFlags(i + SIM_JOYSTICK1,C_BIT_ENABLED);

	push	2048					; 00000800H
	mov	edx, DWORD PTR _i$1[ebp]
	add	edx, 2
	push	edx
	mov	ecx, DWORD PTR _theLB$[ebp]
	call	?SetItemFlags@C_ListBox@@QAEXJJ@Z	; C_ListBox::SetItemFlags

; 784  : 						theLB->SetValue(i + SIM_JOYSTICK1);

	mov	eax, DWORD PTR _i$1[ebp]
	add	eax, 2
	push	eax
	mov	ecx, DWORD PTR _theLB$[ebp]
	call	?SetValue@C_ListBox@@QAEXJ@Z		; C_ListBox::SetValue
$LN3@FillListBo:

; 785  : 						ShiAssert(DIAxisNames[i].isMapped == true);
; 786  : 					}
; 787  : 				}
; 788  : 			}

	jmp	$LN7@FillListBo
$LN6@FillListBo:

; 789  : 			theLB->Refresh();

	mov	ecx, DWORD PTR _theLB$[ebp]
	mov	edx, DWORD PTR [ecx]
	mov	ecx, DWORD PTR _theLB$[ebp]
	mov	eax, DWORD PTR [edx+160]
	call	eax
$LN11@FillListBo:

; 790  : 		}
; 791  : 	}
; 792  : 	else
; 793  : 	{
; 794  : 		ShiAssert(false);
; 795  : 	}
; 796  : }

	mov	esp, ebp
	pop	ebp
	ret	0
?FillListBox@@YAXPAVC_ListBox@@H@Z ENDP			; FillListBox
_TEXT	ENDS
; Function compile flags: /Odtp
; File c:\users\zhitao li\documents\visual studio 2012\projects\freefalcon\ui\src\setup\controltab.cpp
_TEXT	SEGMENT
_j$1 = -8						; size = 4
_i$ = -4						; size = 4
?MarkMappedAxis@@YAXXZ PROC				; MarkMappedAxis

; 707  : {

	push	ebp
	mov	ebp, esp
	sub	esp, 8

; 708  : 	if (!gTotalJoy)

	cmp	DWORD PTR ?gTotalJoy@@3HA, 0		; gTotalJoy
	jne	SHORT $LN15@MarkMapped

; 709  : 		return;

	jmp	$LN16@MarkMapped
$LN15@MarkMapped:

; 710  :     int i = 0;

	mov	DWORD PTR _i$[ebp], 0

; 711  : 
; 712  : 	// mark all unmapped..
; 713  : 	for (i = 0 ; DIAxisNames[i].DXAxisName; i++)

	mov	DWORD PTR _i$[ebp], 0
	jmp	SHORT $LN14@MarkMapped
$LN13@MarkMapped:
	mov	eax, DWORD PTR _i$[ebp]
	add	eax, 1
	mov	DWORD PTR _i$[ebp], eax
$LN14@MarkMapped:
	mov	ecx, DWORD PTR _i$[ebp]
	shl	ecx, 4
	cmp	DWORD PTR ?DIAxisNames@@3PAUAxisIDStuff@@A[ecx], 0
	je	SHORT $LN12@MarkMapped

; 714  : 	{
; 715  : 		DIAxisNames[i].isMapped = false;

	mov	edx, DWORD PTR _i$[ebp]
	shl	edx, 4
	mov	BYTE PTR ?DIAxisNames@@3PAUAxisIDStuff@@A[edx+12], 0

; 716  : 	}

	jmp	SHORT $LN13@MarkMapped
$LN12@MarkMapped:

; 717  : 
; 718  : 	// mark the used ones mapped..
; 719  : 	for (i = 0; DIAxisNames[i].DXAxisName; i++)

	mov	DWORD PTR _i$[ebp], 0
	jmp	SHORT $LN11@MarkMapped
$LN10@MarkMapped:
	mov	eax, DWORD PTR _i$[ebp]
	add	eax, 1
	mov	DWORD PTR _i$[ebp], eax
$LN11@MarkMapped:
	mov	ecx, DWORD PTR _i$[ebp]
	shl	ecx, 4
	cmp	DWORD PTR ?DIAxisNames@@3PAUAxisIDStuff@@A[ecx], 0
	je	$LN16@MarkMapped

; 720  : 	{
; 721  : 		for (int j = 0; j < AXIS_MAX; j++)

	mov	DWORD PTR _j$1[ebp], 0
	jmp	SHORT $LN8@MarkMapped
$LN7@MarkMapped:
	mov	edx, DWORD PTR _j$1[ebp]
	add	edx, 1
	mov	DWORD PTR _j$1[ebp], edx
$LN8@MarkMapped:
	cmp	DWORD PTR _j$1[ebp], 22			; 00000016H
	jge	SHORT $LN6@MarkMapped

; 722  : 		{
; 723  : 			if (DIAxisNames[i].DXDeviceID == UIInputStuff[j].theDeviceAxis->Device)

	mov	eax, DWORD PTR _i$[ebp]
	shl	eax, 4
	mov	ecx, DWORD PTR _j$1[ebp]
	imul	ecx, 28					; 0000001cH
	mov	edx, DWORD PTR ?UIInputStuff@@3PAUUIInputStuff_t@@A[ecx+24]
	mov	eax, DWORD PTR ?DIAxisNames@@3PAUAxisIDStuff@@A[eax+8]
	cmp	eax, DWORD PTR [edx]
	jne	SHORT $LN5@MarkMapped

; 724  : 			{
; 725  : 				if (DIAxisNames[i].DXAxisID == UIInputStuff[j].theDeviceAxis->Axis)

	mov	ecx, DWORD PTR _i$[ebp]
	shl	ecx, 4
	mov	edx, DWORD PTR _j$1[ebp]
	imul	edx, 28					; 0000001cH
	mov	eax, DWORD PTR ?UIInputStuff@@3PAUUIInputStuff_t@@A[edx+24]
	mov	ecx, DWORD PTR ?DIAxisNames@@3PAUAxisIDStuff@@A[ecx+4]
	cmp	ecx, DWORD PTR [eax+4]
	jne	SHORT $LN5@MarkMapped

; 726  : 				{
; 727  : 					DIAxisNames[i].isMapped = true;

	mov	edx, DWORD PTR _i$[ebp]
	shl	edx, 4
	mov	BYTE PTR ?DIAxisNames@@3PAUAxisIDStuff@@A[edx+12], 1
$LN5@MarkMapped:

; 728  : 				}
; 729  : 			}
; 730  : 		}

	jmp	SHORT $LN7@MarkMapped
$LN6@MarkMapped:

; 731  : 		//	flight control axis are not selectable in the advanced control
; 732  : 		//	screen, however they are of course mapped.
; 733  : 		if (DIAxisNames[i].DXDeviceID == AxisMap.FlightControlDevice)

	mov	eax, DWORD PTR _i$[ebp]
	shl	eax, 4
	mov	ecx, DWORD PTR ?DIAxisNames@@3PAUAxisIDStuff@@A[eax+8]
	cmp	ecx, DWORD PTR ?AxisMap@@3UAxisMapping@@A
	jne	SHORT $LN3@MarkMapped

; 734  : 		{
; 735  : 			if (DIAxisNames[i].DXAxisID == AxisMap.Pitch.Axis)

	mov	edx, DWORD PTR _i$[ebp]
	shl	edx, 4
	mov	eax, DWORD PTR ?DIAxisNames@@3PAUAxisIDStuff@@A[edx+4]
	cmp	eax, DWORD PTR ?AxisMap@@3UAxisMapping@@A+28
	jne	SHORT $LN2@MarkMapped

; 736  : 			{
; 737  : 				DIAxisNames[i].isMapped = true;

	mov	ecx, DWORD PTR _i$[ebp]
	shl	ecx, 4
	mov	BYTE PTR ?DIAxisNames@@3PAUAxisIDStuff@@A[ecx+12], 1
$LN2@MarkMapped:

; 738  : 				ShiAssert(AxisMap.Pitch.Device == AxisMap.FlightControlDevice);
; 739  : 			}
; 740  : 			if (DIAxisNames[i].DXAxisID == AxisMap.Bank.Axis)

	mov	edx, DWORD PTR _i$[ebp]
	shl	edx, 4
	mov	eax, DWORD PTR ?DIAxisNames@@3PAUAxisIDStuff@@A[edx+4]
	cmp	eax, DWORD PTR ?AxisMap@@3UAxisMapping@@A+44
	jne	SHORT $LN3@MarkMapped

; 741  : 			{
; 742  : 				DIAxisNames[i].isMapped = true;

	mov	ecx, DWORD PTR _i$[ebp]
	shl	ecx, 4
	mov	BYTE PTR ?DIAxisNames@@3PAUAxisIDStuff@@A[ecx+12], 1
$LN3@MarkMapped:

; 743  : 				ShiAssert(AxisMap.Bank.Device == AxisMap.FlightControlDevice);
; 744  : 			}
; 745  : 		}
; 746  : 	}

	jmp	$LN10@MarkMapped
$LN16@MarkMapped:

; 747  : }

	mov	esp, ebp
	pop	ebp
	ret	0
?MarkMappedAxis@@YAXXZ ENDP				; MarkMappedAxis
_TEXT	ENDS
; Function compile flags: /Odtp
; File c:\users\zhitao li\documents\visual studio 2012\projects\freefalcon\ui\src\setup\controltab.cpp
_TEXT	SEGMENT
_smax$ = -12						; size = 4
_pos$ = -8						; size = 4
_smin$ = -4						; size = 4
_ID$ = 8						; size = 4
_hittype$ = 12						; size = 2
_control$ = 16						; size = 4
?KeyPOVPanningSensitivityCB@@YAXJFPAVC_Base@@@Z PROC	; KeyPOVPanningSensitivityCB

; 683  : {

	push	ebp
	mov	ebp, esp
	sub	esp, 12					; 0000000cH

; 684  : 	if(hittype != C_TYPE_MOUSEMOVE)

	movsx	eax, WORD PTR _hittype$[ebp]
	cmp	eax, 61					; 0000003dH
	je	SHORT $LN2@KeyPOVPann

; 685  : 		return;

	jmp	SHORT $LN3@KeyPOVPann
$LN2@KeyPOVPann:

; 686  : 
; 687  : 	if (!control)

	cmp	DWORD PTR _control$[ebp], 0
	jne	SHORT $LN1@KeyPOVPann

; 688  : 	{
; 689  : 		ShiAssert(false);
; 690  : 		return;

	jmp	SHORT $LN3@KeyPOVPann
$LN1@KeyPOVPann:

; 691  : 	}
; 692  : 
; 693  : 	int smin,smax,pos;
; 694  : 
; 695  : 	smax = ((C_Slider *)control)->GetSliderMax();

	mov	ecx, DWORD PTR _control$[ebp]
	call	?GetSliderMax@C_Slider@@QAEJXZ		; C_Slider::GetSliderMax
	mov	DWORD PTR _smax$[ebp], eax

; 696  : 	smin = ((C_Slider *)control)->GetSliderMin();

	mov	ecx, DWORD PTR _control$[ebp]
	call	?GetSliderMin@C_Slider@@QAEJXZ		; C_Slider::GetSliderMin
	mov	DWORD PTR _smin$[ebp], eax

; 697  : 	pos  = ((C_Slider *)control)->GetSliderPos();

	mov	ecx, DWORD PTR _control$[ebp]
	call	?GetSliderPos@C_Slider@@QAEJXZ		; C_Slider::GetSliderPos
	mov	DWORD PTR _pos$[ebp], eax

; 698  : 
; 699  : 	PlayerOptions.SetKeyboardPOVPanningSensitivity((int) RESCALE(pos,smin,smax,g_nKeyPOVSensMin,g_nKeyPOVSensMax));

	cvtsi2ss xmm0, DWORD PTR _pos$[ebp]
	cvtsi2ss xmm1, DWORD PTR _smin$[ebp]
	subss	xmm0, xmm1
	cvttss2si eax, xmm0
	mov	ecx, DWORD PTR ?g_nKeyPOVSensMax@@3HA	; g_nKeyPOVSensMax
	sub	ecx, DWORD PTR ?g_nKeyPOVSensMin@@3HA	; g_nKeyPOVSensMin
	imul	eax, ecx
	mov	ecx, DWORD PTR _smax$[ebp]
	sub	ecx, DWORD PTR _smin$[ebp]
	cdq
	idiv	ecx
	add	eax, DWORD PTR ?g_nKeyPOVSensMin@@3HA	; g_nKeyPOVSensMin
	push	eax
	mov	ecx, OFFSET ?PlayerOptions@@3VPlayerOptionsClass@@A ; PlayerOptions
	call	?SetKeyboardPOVPanningSensitivity@PlayerOptionsClass@@QAEXH@Z ; PlayerOptionsClass::SetKeyboardPOVPanningSensitivity
$LN3@KeyPOVPann:

; 700  : }

	mov	esp, ebp
	pop	ebp
	ret	0
?KeyPOVPanningSensitivityCB@@YAXJFPAVC_Base@@@Z ENDP	; KeyPOVPanningSensitivityCB
_TEXT	ENDS
; Function compile flags: /Odtp
; File c:\users\zhitao li\documents\visual studio 2012\projects\freefalcon\ui\src\setup\controltab.cpp
_TEXT	SEGMENT
_smax$ = -12						; size = 4
_pos$ = -8						; size = 4
_smin$ = -4						; size = 4
_ID$ = 8						; size = 4
_hittype$ = 12						; size = 2
_control$ = 16						; size = 4
?MouseWheelSensitivityCB@@YAXJFPAVC_Base@@@Z PROC	; MouseWheelSensitivityCB

; 651  : {

	push	ebp
	mov	ebp, esp
	sub	esp, 12					; 0000000cH

; 652  : 	if(hittype != C_TYPE_MOUSEMOVE)

	movsx	eax, WORD PTR _hittype$[ebp]
	cmp	eax, 61					; 0000003dH
	je	SHORT $LN3@MouseWheel

; 653  : 		return;

	jmp	$LN4@MouseWheel
$LN3@MouseWheel:

; 654  : 
; 655  : 	if (!control)

	cmp	DWORD PTR _control$[ebp], 0
	jne	SHORT $LN2@MouseWheel

; 656  : 	{
; 657  : 		ShiAssert(false);
; 658  : 		return;

	jmp	$LN4@MouseWheel
$LN2@MouseWheel:

; 659  : 	}
; 660  : 
; 661  : 	int smin,smax,pos;
; 662  : 
; 663  : 	smax = ((C_Slider *)control)->GetSliderMax();

	mov	ecx, DWORD PTR _control$[ebp]
	call	?GetSliderMax@C_Slider@@QAEJXZ		; C_Slider::GetSliderMax
	mov	DWORD PTR _smax$[ebp], eax

; 664  : 	smin = ((C_Slider *)control)->GetSliderMin();

	mov	ecx, DWORD PTR _control$[ebp]
	call	?GetSliderMin@C_Slider@@QAEJXZ		; C_Slider::GetSliderMin
	mov	DWORD PTR _smin$[ebp], eax

; 665  : 	pos  = ((C_Slider *)control)->GetSliderPos();

	mov	ecx, DWORD PTR _control$[ebp]
	call	?GetSliderPos@C_Slider@@QAEJXZ		; C_Slider::GetSliderPos
	mov	DWORD PTR _pos$[ebp], eax

; 666  : 
; 667  : 	// if no mouse wheel detected dont allow the ball to move..
; 668  : 	if (IO.MouseWheelExists() == false)

	mov	ecx, OFFSET ?IO@@3VSIMLIB_IO_CLASS@@A	; IO
	call	?MouseWheelExists@SIMLIB_IO_CLASS@@QAE_NXZ ; SIMLIB_IO_CLASS::MouseWheelExists
	movzx	ecx, al
	test	ecx, ecx
	jne	SHORT $LN1@MouseWheel

; 669  : 	{
; 670  : 		pos=(int) RESCALE(PlayerOptions.GetMouseWheelSensitivity(),g_nMouseWheelSensMin,g_nMouseWheelSensMax,smin,smax);

	mov	ecx, OFFSET ?PlayerOptions@@3VPlayerOptionsClass@@A ; PlayerOptions
	call	?GetMouseWheelSensitivity@PlayerOptionsClass@@QAEHXZ ; PlayerOptionsClass::GetMouseWheelSensitivity
	cvtsi2ss xmm0, eax
	cvtsi2ss xmm1, DWORD PTR ?g_nMouseWheelSensMin@@3HA ; g_nMouseWheelSensMin
	subss	xmm0, xmm1
	cvttss2si eax, xmm0
	mov	edx, DWORD PTR _smax$[ebp]
	sub	edx, DWORD PTR _smin$[ebp]
	imul	eax, edx
	mov	ecx, DWORD PTR ?g_nMouseWheelSensMax@@3HA ; g_nMouseWheelSensMax
	sub	ecx, DWORD PTR ?g_nMouseWheelSensMin@@3HA ; g_nMouseWheelSensMin
	cdq
	idiv	ecx
	add	eax, DWORD PTR _smin$[ebp]
	mov	DWORD PTR _pos$[ebp], eax

; 671  : 		((C_Slider *)control)->SetSliderPos(pos);

	mov	edx, DWORD PTR _pos$[ebp]
	push	edx
	mov	ecx, DWORD PTR _control$[ebp]
	call	?SetSliderPos@C_Slider@@QAEXJ@Z		; C_Slider::SetSliderPos

; 672  : 		return;

	jmp	SHORT $LN4@MouseWheel
$LN1@MouseWheel:

; 673  : 	}
; 674  : 
; 675  : 	PlayerOptions.SetMouseWheelSensitivity((int)RESCALE(pos,smin,smax,g_nMouseWheelSensMin,g_nMouseWheelSensMax));

	cvtsi2ss xmm0, DWORD PTR _pos$[ebp]
	cvtsi2ss xmm1, DWORD PTR _smin$[ebp]
	subss	xmm0, xmm1
	cvttss2si eax, xmm0
	mov	ecx, DWORD PTR ?g_nMouseWheelSensMax@@3HA ; g_nMouseWheelSensMax
	sub	ecx, DWORD PTR ?g_nMouseWheelSensMin@@3HA ; g_nMouseWheelSensMin
	imul	eax, ecx
	mov	ecx, DWORD PTR _smax$[ebp]
	sub	ecx, DWORD PTR _smin$[ebp]
	cdq
	idiv	ecx
	add	eax, DWORD PTR ?g_nMouseWheelSensMin@@3HA ; g_nMouseWheelSensMin
	push	eax
	mov	ecx, OFFSET ?PlayerOptions@@3VPlayerOptionsClass@@A ; PlayerOptions
	call	?SetMouseWheelSensitivity@PlayerOptionsClass@@QAEXH@Z ; PlayerOptionsClass::SetMouseWheelSensitivity
$LN4@MouseWheel:

; 676  : }

	mov	esp, ebp
	pop	ebp
	ret	0
?MouseWheelSensitivityCB@@YAXJFPAVC_Base@@@Z ENDP	; MouseWheelSensitivityCB
_TEXT	ENDS
; Function compile flags: /Odtp
; File c:\users\zhitao li\documents\visual studio 2012\projects\freefalcon\ui\src\setup\controltab.cpp
_TEXT	SEGMENT
tv162 = -20						; size = 4
_smax$ = -16						; size = 4
_theSens$ = -12						; size = 4
_pos$ = -8						; size = 4
_smin$ = -4						; size = 4
_ID$ = 8						; size = 4
_hittype$ = 12						; size = 2
_control$ = 16						; size = 4
?MouseLookSensitivityCB@@YAXJFPAVC_Base@@@Z PROC	; MouseLookSensitivityCB

; 615  : {

	push	ebp
	mov	ebp, esp
	sub	esp, 20					; 00000014H

; 616  : 	if(hittype != C_TYPE_MOUSEMOVE)

	movsx	eax, WORD PTR _hittype$[ebp]
	cmp	eax, 61					; 0000003dH
	je	SHORT $LN3@MouseLookS

; 617  : 		return;

	jmp	$LN4@MouseLookS
$LN3@MouseLookS:

; 618  : 
; 619  : 	if (!control)

	cmp	DWORD PTR _control$[ebp], 0
	jne	SHORT $LN2@MouseLookS

; 620  : 	{
; 621  : 		ShiAssert(false);
; 622  : 		return;

	jmp	$LN4@MouseLookS
$LN2@MouseLookS:

; 623  : 	}
; 624  : 
; 625  : 	int smin,smax,pos;
; 626  : 
; 627  : 	smax = ((C_Slider *)control)->GetSliderMax();

	mov	ecx, DWORD PTR _control$[ebp]
	call	?GetSliderMax@C_Slider@@QAEJXZ		; C_Slider::GetSliderMax
	mov	DWORD PTR _smax$[ebp], eax

; 628  : 	smin = ((C_Slider *)control)->GetSliderMin();

	mov	ecx, DWORD PTR _control$[ebp]
	call	?GetSliderMin@C_Slider@@QAEJXZ		; C_Slider::GetSliderMin
	mov	DWORD PTR _smin$[ebp], eax

; 629  : 	pos  = ((C_Slider *)control)->GetSliderPos();

	mov	ecx, DWORD PTR _control$[ebp]
	call	?GetSliderPos@C_Slider@@QAEJXZ		; C_Slider::GetSliderPos
	mov	DWORD PTR _pos$[ebp], eax

; 630  : 
; 631  : 	// if mouselook is disabled dont allow the ball to move..
; 632  : 	if (PlayerOptions.GetMouseLook() == false)

	mov	ecx, OFFSET ?PlayerOptions@@3VPlayerOptionsClass@@A ; PlayerOptions
	call	?GetMouseLook@PlayerOptionsClass@@QBE_NXZ ; PlayerOptionsClass::GetMouseLook
	movzx	ecx, al
	test	ecx, ecx
	jne	SHORT $LN1@MouseLookS

; 633  : 	{
; 634  : 		pos= (int) RESCALE(PlayerOptions.GetMouseLookSensitivity()*1000,g_nMouseLookSensMin,g_nMouseLookSensMax,smin,smax);

	mov	ecx, OFFSET ?PlayerOptions@@3VPlayerOptionsClass@@A ; PlayerOptions
	call	?GetMouseLookSensitivity@PlayerOptionsClass@@QAEMXZ ; PlayerOptionsClass::GetMouseLookSensitivity
	fstp	DWORD PTR tv162[ebp]
	movss	xmm0, DWORD PTR tv162[ebp]
	mulss	xmm0, DWORD PTR __real@447a0000
	cvtsi2ss xmm1, DWORD PTR ?g_nMouseLookSensMin@@3HA ; g_nMouseLookSensMin
	subss	xmm0, xmm1
	cvttss2si eax, xmm0
	mov	edx, DWORD PTR _smax$[ebp]
	sub	edx, DWORD PTR _smin$[ebp]
	imul	eax, edx
	mov	ecx, DWORD PTR ?g_nMouseLookSensMax@@3HA ; g_nMouseLookSensMax
	sub	ecx, DWORD PTR ?g_nMouseLookSensMin@@3HA ; g_nMouseLookSensMin
	cdq
	idiv	ecx
	add	eax, DWORD PTR _smin$[ebp]
	mov	DWORD PTR _pos$[ebp], eax

; 635  : 		((C_Slider *)control)->SetSliderPos(pos);

	mov	edx, DWORD PTR _pos$[ebp]
	push	edx
	mov	ecx, DWORD PTR _control$[ebp]
	call	?SetSliderPos@C_Slider@@QAEXJ@Z		; C_Slider::SetSliderPos

; 636  : 		return;

	jmp	SHORT $LN4@MouseLookS
$LN1@MouseLookS:

; 637  : 	}
; 638  : 
; 639  : 	float theSens = RESCALE(pos,smin,smax,g_nMouseLookSensMin,g_nMouseLookSensMax);

	cvtsi2ss xmm0, DWORD PTR _pos$[ebp]
	cvtsi2ss xmm1, DWORD PTR _smin$[ebp]
	subss	xmm0, xmm1
	mov	eax, DWORD PTR ?g_nMouseLookSensMax@@3HA ; g_nMouseLookSensMax
	sub	eax, DWORD PTR ?g_nMouseLookSensMin@@3HA ; g_nMouseLookSensMin
	cvtsi2ss xmm1, eax
	mulss	xmm0, xmm1
	mov	ecx, DWORD PTR _smax$[ebp]
	sub	ecx, DWORD PTR _smin$[ebp]
	cvtsi2ss xmm1, ecx
	divss	xmm0, xmm1
	cvtsi2ss xmm1, DWORD PTR ?g_nMouseLookSensMin@@3HA ; g_nMouseLookSensMin
	addss	xmm0, xmm1
	movss	DWORD PTR _theSens$[ebp], xmm0

; 640  : 
; 641  : 	theSens /= 1000;

	movss	xmm0, DWORD PTR _theSens$[ebp]
	divss	xmm0, DWORD PTR __real@447a0000
	movss	DWORD PTR _theSens$[ebp], xmm0

; 642  : 
; 643  : 	PlayerOptions.SetMouseLookSensitivity(theSens);

	push	ecx
	movss	xmm0, DWORD PTR _theSens$[ebp]
	movss	DWORD PTR [esp], xmm0
	mov	ecx, OFFSET ?PlayerOptions@@3VPlayerOptionsClass@@A ; PlayerOptions
	call	?SetMouseLookSensitivity@PlayerOptionsClass@@QAEXM@Z ; PlayerOptionsClass::SetMouseLookSensitivity
$LN4@MouseLookS:

; 644  : }

	mov	esp, ebp
	pop	ebp
	ret	0
?MouseLookSensitivityCB@@YAXJFPAVC_Base@@@Z ENDP	; MouseLookSensitivityCB
_TEXT	ENDS
; Function compile flags: /Odtp
; File c:\users\zhitao li\documents\visual studio 2012\projects\freefalcon\ui\src\setup\controltab.cpp
_TEXT	SEGMENT
_result$1 = -8						; size = 4
_button$ = -4						; size = 4
_ID$ = 8						; size = 4
_hittype$ = 12						; size = 2
_control$ = 16						; size = 4
?AxisShapingCB@@YAXJFPAVC_Base@@@Z PROC			; AxisShapingCB

; 591  : {

	push	ebp
	mov	ebp, esp
	sub	esp, 8

; 592  : 	if ((hittype != C_TYPE_LMOUSEUP))

	movsx	eax, WORD PTR _hittype$[ebp]
	cmp	eax, 52					; 00000034H
	je	SHORT $LN6@AxisShapin

; 593  : 		return;

	jmp	SHORT $LN7@AxisShapin
$LN6@AxisShapin:

; 594  : 
; 595  : 	C_Button* button = (C_Button*)control;

	mov	ecx, DWORD PTR _control$[ebp]
	mov	DWORD PTR _button$[ebp], ecx

; 596  : 	if (button)

	cmp	DWORD PTR _button$[ebp], 0
	je	SHORT $LN7@AxisShapin

; 597  : 		if (PlayerOptions.GetAxisShaping() == false)

	mov	ecx, OFFSET ?PlayerOptions@@3VPlayerOptionsClass@@A ; PlayerOptions
	call	?GetAxisShaping@PlayerOptionsClass@@QAE_NXZ ; PlayerOptionsClass::GetAxisShaping
	movzx	edx, al
	test	edx, edx
	jne	SHORT $LN4@AxisShapin

; 598  : 		{
; 599  : 			int result = IO.LoadAxisCalibrationFile();

	mov	ecx, OFFSET ?IO@@3VSIMLIB_IO_CLASS@@A	; IO
	call	?LoadAxisCalibrationFile@SIMLIB_IO_CLASS@@QAEHXZ ; SIMLIB_IO_CLASS::LoadAxisCalibrationFile
	mov	DWORD PTR _result$1[ebp], eax

; 600  : 			if (result == TRUE)

	cmp	DWORD PTR _result$1[ebp], 1
	jne	SHORT $LN3@AxisShapin

; 601  : 				PlayerOptions.SetAxisShaping(true);

	push	1
	mov	ecx, OFFSET ?PlayerOptions@@3VPlayerOptionsClass@@A ; PlayerOptions
	call	?SetAxisShaping@PlayerOptionsClass@@QAEX_N@Z ; PlayerOptionsClass::SetAxisShaping

; 602  : 			else	// dont change the options but set the button back to 'unlit'

	jmp	SHORT $LN2@AxisShapin
$LN3@AxisShapin:

; 603  : 				button->SetState(C_STATE_0);

	push	0
	mov	eax, DWORD PTR _button$[ebp]
	mov	edx, DWORD PTR [eax]
	mov	ecx, DWORD PTR _button$[ebp]
	mov	eax, DWORD PTR [edx+56]
	call	eax
$LN2@AxisShapin:

; 604  : 		}
; 605  : 		else

	jmp	SHORT $LN7@AxisShapin
$LN4@AxisShapin:

; 606  : 			PlayerOptions.SetAxisShaping(false);

	push	0
	mov	ecx, OFFSET ?PlayerOptions@@3VPlayerOptionsClass@@A ; PlayerOptions
	call	?SetAxisShaping@PlayerOptionsClass@@QAEX_N@Z ; PlayerOptionsClass::SetAxisShaping
$LN7@AxisShapin:

; 607  : }

	mov	esp, ebp
	pop	ebp
	ret	0
?AxisShapingCB@@YAXJFPAVC_Base@@@Z ENDP			; AxisShapingCB
_TEXT	ENDS
; Function compile flags: /Odtp
; File c:\users\zhitao li\documents\visual studio 2012\projects\freefalcon\ui\src\setup\controltab.cpp
_TEXT	SEGMENT
_button$ = -8						; size = 4
tv78 = -1						; size = 1
_ID$ = 8						; size = 4
_hittype$ = 12						; size = 2
_control$ = 16						; size = 4
?TrackIR3dCB@@YAXJFPAVC_Base@@@Z PROC			; TrackIR3dCB

; 575  : {

	push	ebp
	mov	ebp, esp
	sub	esp, 8

; 576  : 	if ((hittype != C_TYPE_LMOUSEUP))

	movsx	eax, WORD PTR _hittype$[ebp]
	cmp	eax, 52					; 00000034H
	je	SHORT $LN4@TrackIR3dC

; 577  : 		return;

	jmp	SHORT $LN5@TrackIR3dC
$LN4@TrackIR3dC:

; 578  : 
; 579  : 	C_Button* button = (C_Button*)control;

	mov	ecx, DWORD PTR _control$[ebp]
	mov	DWORD PTR _button$[ebp], ecx

; 580  : 	if (button)

	cmp	DWORD PTR _button$[ebp], 0
	je	SHORT $LN5@TrackIR3dC

; 581  : 		if (g_bEnableTrackIR)

	movzx	edx, BYTE PTR ?g_bEnableTrackIR@@3_NA	; g_bEnableTrackIR
	test	edx, edx
	je	SHORT $LN2@TrackIR3dC

; 582  : 			PlayerOptions.SetTrackIR3d(!PlayerOptions.Get3dTrackIR());

	mov	ecx, OFFSET ?PlayerOptions@@3VPlayerOptionsClass@@A ; PlayerOptions
	call	?Get3dTrackIR@PlayerOptionsClass@@QBE_NXZ ; PlayerOptionsClass::Get3dTrackIR
	movzx	eax, al
	test	eax, eax
	jne	SHORT $LN7@TrackIR3dC
	mov	BYTE PTR tv78[ebp], 1
	jmp	SHORT $LN8@TrackIR3dC
$LN7@TrackIR3dC:
	mov	BYTE PTR tv78[ebp], 0
$LN8@TrackIR3dC:
	movzx	ecx, BYTE PTR tv78[ebp]
	push	ecx
	mov	ecx, OFFSET ?PlayerOptions@@3VPlayerOptionsClass@@A ; PlayerOptions
	call	?SetTrackIR3d@PlayerOptionsClass@@QAEX_N@Z ; PlayerOptionsClass::SetTrackIR3d

; 583  : 		else

	jmp	SHORT $LN5@TrackIR3dC
$LN2@TrackIR3dC:

; 584  : 			button->SetState(C_STATE_0);

	push	0
	mov	edx, DWORD PTR _button$[ebp]
	mov	eax, DWORD PTR [edx]
	mov	ecx, DWORD PTR _button$[ebp]
	mov	edx, DWORD PTR [eax+56]
	call	edx
$LN5@TrackIR3dC:

; 585  : }

	mov	esp, ebp
	pop	ebp
	ret	0
?TrackIR3dCB@@YAXJFPAVC_Base@@@Z ENDP			; TrackIR3dCB
_TEXT	ENDS
; Function compile flags: /Odtp
; File c:\users\zhitao li\documents\visual studio 2012\projects\freefalcon\ui\src\setup\controltab.cpp
_TEXT	SEGMENT
_button$ = -8						; size = 4
tv78 = -1						; size = 1
_ID$ = 8						; size = 4
_hittype$ = 12						; size = 2
_control$ = 16						; size = 4
?TrackIR2dCB@@YAXJFPAVC_Base@@@Z PROC			; TrackIR2dCB

; 557  : {

	push	ebp
	mov	ebp, esp
	sub	esp, 8

; 558  : 	if ((hittype != C_TYPE_LMOUSEUP))

	movsx	eax, WORD PTR _hittype$[ebp]
	cmp	eax, 52					; 00000034H
	je	SHORT $LN4@TrackIR2dC

; 559  : 		return;

	jmp	SHORT $LN5@TrackIR2dC
$LN4@TrackIR2dC:

; 560  : 
; 561  : 	C_Button* button = (C_Button*)control;

	mov	ecx, DWORD PTR _control$[ebp]
	mov	DWORD PTR _button$[ebp], ecx

; 562  : 	if (button)

	cmp	DWORD PTR _button$[ebp], 0
	je	SHORT $LN5@TrackIR2dC

; 563  : 		if (g_bEnableTrackIR)

	movzx	edx, BYTE PTR ?g_bEnableTrackIR@@3_NA	; g_bEnableTrackIR
	test	edx, edx
	je	SHORT $LN2@TrackIR2dC

; 564  : 			PlayerOptions.SetTrackIR2d(!PlayerOptions.Get2dTrackIR());

	mov	ecx, OFFSET ?PlayerOptions@@3VPlayerOptionsClass@@A ; PlayerOptions
	call	?Get2dTrackIR@PlayerOptionsClass@@QBE_NXZ ; PlayerOptionsClass::Get2dTrackIR
	movzx	eax, al
	test	eax, eax
	jne	SHORT $LN7@TrackIR2dC
	mov	BYTE PTR tv78[ebp], 1
	jmp	SHORT $LN8@TrackIR2dC
$LN7@TrackIR2dC:
	mov	BYTE PTR tv78[ebp], 0
$LN8@TrackIR2dC:
	movzx	ecx, BYTE PTR tv78[ebp]
	push	ecx
	mov	ecx, OFFSET ?PlayerOptions@@3VPlayerOptionsClass@@A ; PlayerOptions
	call	?SetTrackIR2d@PlayerOptionsClass@@QAEX_N@Z ; PlayerOptionsClass::SetTrackIR2d

; 565  : 		else

	jmp	SHORT $LN5@TrackIR2dC
$LN2@TrackIR2dC:

; 566  : 			button->SetState(C_STATE_0);

	push	0
	mov	edx, DWORD PTR _button$[ebp]
	mov	eax, DWORD PTR [edx]
	mov	ecx, DWORD PTR _button$[ebp]
	mov	edx, DWORD PTR [eax+56]
	call	edx
$LN5@TrackIR2dC:

; 567  : }

	mov	esp, ebp
	pop	ebp
	ret	0
?TrackIR2dCB@@YAXJFPAVC_Base@@@Z ENDP			; TrackIR2dCB
_TEXT	ENDS
; Function compile flags: /Odtp
; File c:\users\zhitao li\documents\visual studio 2012\projects\freefalcon\ui\src\setup\controltab.cpp
_TEXT	SEGMENT
_button$ = -8						; size = 4
tv76 = -1						; size = 1
_ID$ = 8						; size = 4
_hittype$ = 12						; size = 2
_control$ = 16						; size = 4
?ToggleClickableModeCB@@YAXJFPAVC_Base@@@Z PROC		; ToggleClickableModeCB

; 542  : {

	push	ebp
	mov	ebp, esp
	sub	esp, 8

; 543  : 	if ((hittype != C_TYPE_LMOUSEUP))

	movsx	eax, WORD PTR _hittype$[ebp]
	cmp	eax, 52					; 00000034H
	je	SHORT $LN2@ToggleClic

; 544  : 		return;

	jmp	SHORT $LN3@ToggleClic
$LN2@ToggleClic:

; 545  : 
; 546  : 	C_Button* button = (C_Button*)control;

	mov	ecx, DWORD PTR _control$[ebp]
	mov	DWORD PTR _button$[ebp], ecx

; 547  : 	if (button)

	cmp	DWORD PTR _button$[ebp], 0
	je	SHORT $LN3@ToggleClic

; 548  : 		PlayerOptions.SetClickablePitMode(!PlayerOptions.GetClickablePitMode());

	mov	ecx, OFFSET ?PlayerOptions@@3VPlayerOptionsClass@@A ; PlayerOptions
	call	?GetClickablePitMode@PlayerOptionsClass@@QAE_NXZ ; PlayerOptionsClass::GetClickablePitMode
	movzx	edx, al
	test	edx, edx
	jne	SHORT $LN5@ToggleClic
	mov	BYTE PTR tv76[ebp], 1
	jmp	SHORT $LN6@ToggleClic
$LN5@ToggleClic:
	mov	BYTE PTR tv76[ebp], 0
$LN6@ToggleClic:
	movzx	eax, BYTE PTR tv76[ebp]
	push	eax
	mov	ecx, OFFSET ?PlayerOptions@@3VPlayerOptionsClass@@A ; PlayerOptions
	call	?SetClickablePitMode@PlayerOptionsClass@@QAEX_N@Z ; PlayerOptionsClass::SetClickablePitMode
$LN3@ToggleClic:

; 549  : }

	mov	esp, ebp
	pop	ebp
	ret	0
?ToggleClickableModeCB@@YAXJFPAVC_Base@@@Z ENDP		; ToggleClickableModeCB
_TEXT	ENDS
; Function compile flags: /Odtp
; File c:\users\zhitao li\documents\visual studio 2012\projects\freefalcon\ui\src\setup\controltab.cpp
_TEXT	SEGMENT
_button$ = -8						; size = 4
tv77 = -1						; size = 1
_ID$ = 8						; size = 4
_hittype$ = 12						; size = 2
_control$ = 16						; size = 4
?EnableFFBCB@@YAXJFPAVC_Base@@@Z PROC			; EnableFFBCB

; 523  : {

	push	ebp
	mov	ebp, esp
	sub	esp, 8

; 524  : 	if ((hittype != C_TYPE_LMOUSEUP))

	movsx	eax, WORD PTR _hittype$[ebp]
	cmp	eax, 52					; 00000034H
	je	SHORT $LN4@EnableFFBC

; 525  : 		return;

	jmp	SHORT $LN5@EnableFFBC
$LN4@EnableFFBC:

; 526  : 
; 527  : 	C_Button* button = (C_Button*)control;

	mov	ecx, DWORD PTR _control$[ebp]
	mov	DWORD PTR _button$[ebp], ecx

; 528  : 	if (button)

	cmp	DWORD PTR _button$[ebp], 0
	je	SHORT $LN5@EnableFFBC

; 529  : 		if (hasForceFeedback == TRUE)

	cmp	DWORD PTR ?hasForceFeedback@@3HA, 1	; hasForceFeedback
	jne	SHORT $LN2@EnableFFBC

; 530  : 			PlayerOptions.SetFFB(!PlayerOptions.GetFFB());

	mov	ecx, OFFSET ?PlayerOptions@@3VPlayerOptionsClass@@A ; PlayerOptions
	call	?GetFFB@PlayerOptionsClass@@QBE_NXZ	; PlayerOptionsClass::GetFFB
	movzx	edx, al
	test	edx, edx
	jne	SHORT $LN7@EnableFFBC
	mov	BYTE PTR tv77[ebp], 1
	jmp	SHORT $LN8@EnableFFBC
$LN7@EnableFFBC:
	mov	BYTE PTR tv77[ebp], 0
$LN8@EnableFFBC:
	movzx	eax, BYTE PTR tv77[ebp]
	push	eax
	mov	ecx, OFFSET ?PlayerOptions@@3VPlayerOptionsClass@@A ; PlayerOptions
	call	?SetFFB@PlayerOptionsClass@@QAEX_N@Z	; PlayerOptionsClass::SetFFB

; 531  : 		else

	jmp	SHORT $LN5@EnableFFBC
$LN2@EnableFFBC:

; 532  : 			button->SetState(C_STATE_0);

	push	0
	mov	ecx, DWORD PTR _button$[ebp]
	mov	edx, DWORD PTR [ecx]
	mov	ecx, DWORD PTR _button$[ebp]
	mov	eax, DWORD PTR [edx+56]
	call	eax
$LN5@EnableFFBC:

; 533  : }

	mov	esp, ebp
	pop	ebp
	ret	0
?EnableFFBCB@@YAXJFPAVC_Base@@@Z ENDP			; EnableFFBCB
_TEXT	ENDS
; Function compile flags: /Odtp
; File c:\users\zhitao li\documents\visual studio 2012\projects\freefalcon\ui\src\setup\controltab.cpp
_TEXT	SEGMENT
_b$ = -8						; size = 4
tv81 = -1						; size = 1
_ID$ = 8						; size = 4
_hittype$ = 12						; size = 2
_control$ = 16						; size = 4
?TouchBuddyCB@@YAXJFPAVC_Base@@@Z PROC			; TouchBuddyCB

; 508  : void TouchBuddyCB(long ID,short hittype,C_Base *control){

	push	ebp
	mov	ebp, esp
	sub	esp, 8

; 509  : 	if ((hittype != C_TYPE_LMOUSEUP)){

	movsx	eax, WORD PTR _hittype$[ebp]
	cmp	eax, 52					; 00000034H
	je	SHORT $LN1@TouchBuddy

; 510  : 		return;

	jmp	SHORT $LN2@TouchBuddy
$LN1@TouchBuddy:

; 511  : 	}
; 512  : 	
; 513  : 	C_Button *b = static_cast<C_Button*>(control);

	mov	ecx, DWORD PTR _control$[ebp]
	mov	DWORD PTR _b$[ebp], ecx

; 514  : 	PlayerOptions.SetTouchBuddy(b->GetState() == C_STATE_1);

	mov	edx, DWORD PTR _b$[ebp]
	mov	eax, DWORD PTR [edx]
	mov	ecx, DWORD PTR _b$[ebp]
	mov	edx, DWORD PTR [eax+112]
	call	edx
	cwde
	cmp	eax, 1
	jne	SHORT $LN4@TouchBuddy
	mov	BYTE PTR tv81[ebp], 1
	jmp	SHORT $LN5@TouchBuddy
$LN4@TouchBuddy:
	mov	BYTE PTR tv81[ebp], 0
$LN5@TouchBuddy:
	movzx	ecx, BYTE PTR tv81[ebp]
	push	ecx
	mov	ecx, OFFSET ?PlayerOptions@@3VPlayerOptionsClass@@A ; PlayerOptions
	call	?SetTouchBuddy@PlayerOptionsClass@@QAEX_N@Z ; PlayerOptionsClass::SetTouchBuddy
$LN2@TouchBuddy:

; 515  : }

	mov	esp, ebp
	pop	ebp
	ret	0
?TouchBuddyCB@@YAXJFPAVC_Base@@@Z ENDP			; TouchBuddyCB
_TEXT	ENDS
; Function compile flags: /Odtp
; File c:\users\zhitao li\documents\visual studio 2012\projects\freefalcon\ui\src\setup\controltab.cpp
_TEXT	SEGMENT
tv71 = -1						; size = 1
_ID$ = 8						; size = 4
_hittype$ = 12						; size = 2
_control$ = 16						; size = 4
?MouseLookCB@@YAXJFPAVC_Base@@@Z PROC			; MouseLookCB

; 497  : {

	push	ebp
	mov	ebp, esp
	push	ecx

; 498  : 	if ((hittype != C_TYPE_LMOUSEUP)){

	movsx	eax, WORD PTR _hittype$[ebp]
	cmp	eax, 52					; 00000034H
	je	SHORT $LN1@MouseLookC

; 499  : 		return;

	jmp	SHORT $LN2@MouseLookC
$LN1@MouseLookC:

; 500  : 	}
; 501  : 
; 502  : 	PlayerOptions.SetMouseLook(!PlayerOptions.GetMouseLook());

	mov	ecx, OFFSET ?PlayerOptions@@3VPlayerOptionsClass@@A ; PlayerOptions
	call	?GetMouseLook@PlayerOptionsClass@@QBE_NXZ ; PlayerOptionsClass::GetMouseLook
	movzx	ecx, al
	test	ecx, ecx
	jne	SHORT $LN4@MouseLookC
	mov	BYTE PTR tv71[ebp], 1
	jmp	SHORT $LN5@MouseLookC
$LN4@MouseLookC:
	mov	BYTE PTR tv71[ebp], 0
$LN5@MouseLookC:
	movzx	edx, BYTE PTR tv71[ebp]
	push	edx
	mov	ecx, OFFSET ?PlayerOptions@@3VPlayerOptionsClass@@A ; PlayerOptions
	call	?SetMouseLook@PlayerOptionsClass@@QAEX_N@Z ; PlayerOptionsClass::SetMouseLook
$LN2@MouseLookC:

; 503  : }

	mov	esp, ebp
	pop	ebp
	ret	0
?MouseLookCB@@YAXJFPAVC_Base@@@Z ENDP			; MouseLookCB
_TEXT	ENDS
; Function compile flags: /Odtp
; File c:\users\zhitao li\documents\visual studio 2012\projects\freefalcon\ui\src\setup\controltab.cpp
_TEXT	SEGMENT
_ID$ = 8						; size = 4
_hittype$ = 12						; size = 2
_control$ = 16						; size = 4
?AdvancedControlCancelCB@@YAXJFPAVC_Base@@@Z PROC	; AdvancedControlCancelCB

; 485  : {

	push	ebp
	mov	ebp, esp

; 486  : 	if ((hittype != C_TYPE_LMOUSEUP))

	movsx	eax, WORD PTR _hittype$[ebp]
	cmp	eax, 52					; 00000034H
	je	SHORT $LN1@AdvancedCo

; 487  : 		return;

	jmp	SHORT $LN2@AdvancedCo
$LN1@AdvancedCo:

; 488  : 
; 489  : 	/* just quit without saving */
; 490  : 	CloseWindowCB(ID,hittype,control);

	mov	ecx, DWORD PTR _control$[ebp]
	push	ecx
	movzx	edx, WORD PTR _hittype$[ebp]
	push	edx
	mov	eax, DWORD PTR _ID$[ebp]
	push	eax
	call	?CloseWindowCB@@YAXJFPAVC_Base@@@Z	; CloseWindowCB
	add	esp, 12					; 0000000cH
$LN2@AdvancedCo:

; 491  : }

	pop	ebp
	ret	0
?AdvancedControlCancelCB@@YAXJFPAVC_Base@@@Z ENDP	; AdvancedControlCancelCB
_TEXT	ENDS
; Function compile flags: /Odtp
; File c:\users\zhitao li\documents\visual studio 2012\projects\freefalcon\ui\src\setup\controltab.cpp
_TEXT	SEGMENT
_ID$ = 8						; size = 4
_hittype$ = 12						; size = 2
_control$ = 16						; size = 4
?AdvancedControlOKCB@@YAXJFPAVC_Base@@@Z PROC		; AdvancedControlOKCB

; 468  : {

	push	ebp
	mov	ebp, esp

; 469  : 	if ((hittype != C_TYPE_LMOUSEUP))

	movsx	eax, WORD PTR _hittype$[ebp]
	cmp	eax, 52					; 00000034H
	je	SHORT $LN1@AdvancedCo

; 470  : 		return;

	jmp	SHORT $LN2@AdvancedCo
$LN1@AdvancedCo:

; 471  : 
; 472  : 	/* this takes care of saving */
; 473  : 	AdvancedControlApplyCB(ID,hittype,control);

	mov	ecx, DWORD PTR _control$[ebp]
	push	ecx
	movzx	edx, WORD PTR _hittype$[ebp]
	push	edx
	mov	eax, DWORD PTR _ID$[ebp]
	push	eax
	call	?AdvancedControlApplyCB@@YAXJFPAVC_Base@@@Z ; AdvancedControlApplyCB
	add	esp, 12					; 0000000cH

; 474  : 
; 475  : 	/* ..and quit */
; 476  : 	CloseWindowCB(ID,hittype,control);

	mov	ecx, DWORD PTR _control$[ebp]
	push	ecx
	movzx	edx, WORD PTR _hittype$[ebp]
	push	edx
	mov	eax, DWORD PTR _ID$[ebp]
	push	eax
	call	?CloseWindowCB@@YAXJFPAVC_Base@@@Z	; CloseWindowCB
	add	esp, 12					; 0000000cH
$LN2@AdvancedCo:

; 477  : }

	pop	ebp
	ret	0
?AdvancedControlOKCB@@YAXJFPAVC_Base@@@Z ENDP		; AdvancedControlOKCB
_TEXT	ENDS
; Function compile flags: /Odtp
; File c:\users\zhitao li\documents\visual studio 2012\projects\freefalcon\ui\src\setup\controltab.cpp
_TEXT	SEGMENT
_index$1 = -32						; size = 4
_index$2 = -28						; size = 4
tv166 = -24						; size = 4
tv95 = -20						; size = 4
_button$ = -16						; size = 4
_listbox$ = -12						; size = 4
_win$ = -8						; size = 4
_j$ = -4						; size = 4
_ID$ = 8						; size = 4
_hittype$ = 12						; size = 2
_control$ = 16						; size = 4
?AdvancedControlApplyCB@@YAXJFPAVC_Base@@@Z PROC	; AdvancedControlApplyCB

; 343  : {

	push	ebp
	mov	ebp, esp
	sub	esp, 32					; 00000020H

; 344  : 	if ((hittype != C_TYPE_LMOUSEUP))

	movsx	eax, WORD PTR _hittype$[ebp]
	cmp	eax, 52					; 00000034H
	je	SHORT $LN42@AdvancedCo

; 345  : 		return;

	jmp	$LN43@AdvancedCo
$LN42@AdvancedCo:

; 346  : 
; 347  : 	/* pointer to mommy */
; 348  : 	C_Window	*win;
; 349  : 
; 350  : 	win=gMainHandler->FindWindow(SETUP_WIN);

	push	70002					; 00011172H
	mov	ecx, DWORD PTR ?gMainHandler@@3PAVC_Handler@@A ; gMainHandler
	call	?FindWindowA@C_Handler@@QAEPAVC_Window@@J@Z ; C_Handler::FindWindowA
	mov	DWORD PTR _win$[ebp], eax

; 351  : 	if(win == NULL) return;

	cmp	DWORD PTR _win$[ebp], 0
	jne	SHORT $LN41@AdvancedCo
	jmp	$LN43@AdvancedCo
$LN41@AdvancedCo:

; 352  : 
; 353  : 	win=gMainHandler->FindWindow(SETUP_CONTROL_ADVANCED_WIN);

	push	70221					; 0001124dH
	mov	ecx, DWORD PTR ?gMainHandler@@3PAVC_Handler@@A ; gMainHandler
	call	?FindWindowA@C_Handler@@QAEPAVC_Window@@J@Z ; C_Handler::FindWindowA
	mov	DWORD PTR _win$[ebp], eax

; 354  : 	if(!win) return;

	cmp	DWORD PTR _win$[ebp], 0
	jne	SHORT $LN40@AdvancedCo
	jmp	$LN43@AdvancedCo
$LN40@AdvancedCo:

; 355  : 
; 356  : 	/* array of pointers to all axis listboxes in this sheet */
; 357  : 	C_ListBox	*listbox;
; 358  : 
; 359  : 	// check contents of axis listboxes and saves..
; 360  : 	SaveAxisMappings(win);

	mov	ecx, DWORD PTR _win$[ebp]
	push	ecx
	call	?SaveAxisMappings@@YAXPAVC_Window@@@Z	; SaveAxisMappings
	add	esp, 4

; 361  : 
; 362  : 	// check contents of deadzone listboxes..
; 363  : 	listbox = (C_ListBox*)0;

	mov	DWORD PTR _listbox$[ebp], 0

; 364  :     int j = 0;

	mov	DWORD PTR _j$[ebp], 0

; 365  : 
; 366  : 	for (j = 0; j < AXIS_MAX; j++)

	mov	DWORD PTR _j$[ebp], 0
	jmp	SHORT $LN39@AdvancedCo
$LN38@AdvancedCo:
	mov	edx, DWORD PTR _j$[ebp]
	add	edx, 1
	mov	DWORD PTR _j$[ebp], edx
$LN39@AdvancedCo:
	cmp	DWORD PTR _j$[ebp], 22			; 00000016H
	jge	$LN37@AdvancedCo

; 367  : 	{
; 368  : 		int index = -1;

	mov	DWORD PTR _index$2[ebp], -1

; 369  : 
; 370  : 		if (UIInputStuff[j].DeadzoneLB == 0)

	mov	eax, DWORD PTR _j$[ebp]
	imul	eax, 28					; 0000001cH
	cmp	DWORD PTR ?UIInputStuff@@3PAUUIInputStuff_t@@A[eax+12], 0
	jne	SHORT $LN36@AdvancedCo

; 371  : 			continue;

	jmp	SHORT $LN38@AdvancedCo
$LN36@AdvancedCo:

; 372  : 
; 373  : 		listbox = (C_ListBox*)win->FindControl(UIInputStuff[j].DeadzoneLB);

	mov	ecx, DWORD PTR _j$[ebp]
	imul	ecx, 28					; 0000001cH
	mov	edx, DWORD PTR ?UIInputStuff@@3PAUUIInputStuff_t@@A[ecx+12]
	push	edx
	mov	ecx, DWORD PTR _win$[ebp]
	call	?FindControl@C_Window@@QAEPAVC_Base@@J@Z ; C_Window::FindControl
	mov	DWORD PTR _listbox$[ebp], eax

; 374  : 		if (listbox)

	cmp	DWORD PTR _listbox$[ebp], 0
	je	$LN26@AdvancedCo

; 375  : 		{
; 376  : 			index = listbox->GetTextID();

	mov	ecx, DWORD PTR _listbox$[ebp]
	call	?GetTextID@C_ListBox@@QAEJXZ		; C_ListBox::GetTextID
	mov	DWORD PTR _index$2[ebp], eax

; 377  : 
; 378  : 			if (index >= 0)

	cmp	DWORD PTR _index$2[ebp], 0
	jl	SHORT $LN26@AdvancedCo

; 379  : 			{
; 380  : 				switch (index)	// not every axis used the deadzone though.. only bipolar ones !

	mov	eax, DWORD PTR _index$2[ebp]
	mov	DWORD PTR tv95[ebp], eax
	mov	ecx, DWORD PTR tv95[ebp]
	sub	ecx, 70280				; 00011288H
	mov	DWORD PTR tv95[ebp], ecx
	cmp	DWORD PTR tv95[ebp], 3
	ja	SHORT $LN29@AdvancedCo
	mov	edx, DWORD PTR tv95[ebp]
	jmp	DWORD PTR $LN46@AdvancedCo[edx*4]
$LN31@AdvancedCo:

; 381  : 				{
; 382  : 				case SETUP_ADVANCED_DZ_SMALL:	UIInputStuff[j].theDeviceAxis->Deadzone = g_nDeadzoneSmall;	break;	// 1%

	mov	eax, DWORD PTR _j$[ebp]
	imul	eax, 28					; 0000001cH
	mov	ecx, DWORD PTR ?UIInputStuff@@3PAUUIInputStuff_t@@A[eax+24]
	mov	edx, DWORD PTR ?g_nDeadzoneSmall@@3HA	; g_nDeadzoneSmall
	mov	DWORD PTR [ecx+8], edx
	jmp	SHORT $LN26@AdvancedCo
$LN29@AdvancedCo:

; 383  : 				default:	ShiAssert(false);	// fallthrough intentional to give me 5% deadzone in these cases..
; 384  : 				case SETUP_ADVANCED_DZ_MEDIUM:	UIInputStuff[j].theDeviceAxis->Deadzone = g_nDeadzoneMedium;break;	// 5%

	mov	eax, DWORD PTR _j$[ebp]
	imul	eax, 28					; 0000001cH
	mov	ecx, DWORD PTR ?UIInputStuff@@3PAUUIInputStuff_t@@A[eax+24]
	mov	edx, DWORD PTR ?g_nDeadzoneMedium@@3HA	; g_nDeadzoneMedium
	mov	DWORD PTR [ecx+8], edx
	jmp	SHORT $LN26@AdvancedCo
$LN28@AdvancedCo:

; 385  : 				case SETUP_ADVANCED_DZ_LARGE:	UIInputStuff[j].theDeviceAxis->Deadzone = g_nDeadzoneLarge;	break;	// 10%

	mov	eax, DWORD PTR _j$[ebp]
	imul	eax, 28					; 0000001cH
	mov	ecx, DWORD PTR ?UIInputStuff@@3PAUUIInputStuff_t@@A[eax+24]
	mov	edx, DWORD PTR ?g_nDeadzoneLarge@@3HA	; g_nDeadzoneLarge
	mov	DWORD PTR [ecx+8], edx
	jmp	SHORT $LN26@AdvancedCo
$LN27@AdvancedCo:

; 386  : 				case SETUP_ADVANCED_DZ_HUGE:	UIInputStuff[j].theDeviceAxis->Deadzone = g_nDeadzoneHuge;	break;	// 50%

	mov	eax, DWORD PTR _j$[ebp]
	imul	eax, 28					; 0000001cH
	mov	ecx, DWORD PTR ?UIInputStuff@@3PAUUIInputStuff_t@@A[eax+24]
	mov	edx, DWORD PTR ?g_nDeadzoneHuge@@3HA	; g_nDeadzoneHuge
	mov	DWORD PTR [ecx+8], edx
$LN26@AdvancedCo:

; 387  : 				}
; 388  : 			}
; 389  : 		}
; 390  : 		else
; 391  : 			ShiAssert(false);
; 392  : 	}

	jmp	$LN38@AdvancedCo
$LN37@AdvancedCo:

; 393  : 
; 394  : 	// check contents of saturtaion listboxes..
; 395  : 	listbox = (C_ListBox*)0;

	mov	DWORD PTR _listbox$[ebp], 0

; 396  : 
; 397  : 	for (j = 0; j < AXIS_MAX; j++)

	mov	DWORD PTR _j$[ebp], 0
	jmp	SHORT $LN25@AdvancedCo
$LN24@AdvancedCo:
	mov	eax, DWORD PTR _j$[ebp]
	add	eax, 1
	mov	DWORD PTR _j$[ebp], eax
$LN25@AdvancedCo:
	cmp	DWORD PTR _j$[ebp], 22			; 00000016H
	jge	$LN23@AdvancedCo

; 398  : 	{
; 399  : 		int index = -1;

	mov	DWORD PTR _index$1[ebp], -1

; 400  : 
; 401  : 		if (UIInputStuff[j].SaturationLB == 0)

	mov	ecx, DWORD PTR _j$[ebp]
	imul	ecx, 28					; 0000001cH
	cmp	DWORD PTR ?UIInputStuff@@3PAUUIInputStuff_t@@A[ecx+16], 0
	jne	SHORT $LN22@AdvancedCo

; 402  : 			continue;

	jmp	SHORT $LN24@AdvancedCo
$LN22@AdvancedCo:

; 403  : 
; 404  : 		listbox = (C_ListBox*)win->FindControl(UIInputStuff[j].SaturationLB);

	mov	edx, DWORD PTR _j$[ebp]
	imul	edx, 28					; 0000001cH
	mov	eax, DWORD PTR ?UIInputStuff@@3PAUUIInputStuff_t@@A[edx+16]
	push	eax
	mov	ecx, DWORD PTR _win$[ebp]
	call	?FindControl@C_Window@@QAEPAVC_Base@@J@Z ; C_Window::FindControl
	mov	DWORD PTR _listbox$[ebp], eax

; 405  : 		if (listbox)

	cmp	DWORD PTR _listbox$[ebp], 0
	je	$LN12@AdvancedCo

; 406  : 		{
; 407  : 			index = listbox->GetTextID();

	mov	ecx, DWORD PTR _listbox$[ebp]
	call	?GetTextID@C_ListBox@@QAEJXZ		; C_ListBox::GetTextID
	mov	DWORD PTR _index$1[ebp], eax

; 408  : 
; 409  : 			if (index >= 0)

	cmp	DWORD PTR _index$1[ebp], 0
	jl	SHORT $LN12@AdvancedCo

; 410  : 			{
; 411  : 				switch (index)

	mov	ecx, DWORD PTR _index$1[ebp]
	mov	DWORD PTR tv166[ebp], ecx
	mov	edx, DWORD PTR tv166[ebp]
	sub	edx, 70280				; 00011288H
	mov	DWORD PTR tv166[ebp], edx
	cmp	DWORD PTR tv166[ebp], 23		; 00000017H
	ja	SHORT $LN15@AdvancedCo
	mov	eax, DWORD PTR tv166[ebp]
	movzx	ecx, BYTE PTR $LN45@AdvancedCo[eax]
	jmp	DWORD PTR $LN47@AdvancedCo[ecx*4]
$LN17@AdvancedCo:

; 412  : 				{
; 413  : 				case SETUP_ADVANCED_SAT_NONE:	UIInputStuff[j].theDeviceAxis->Saturation = SATURATION_NONE; break;

	mov	edx, DWORD PTR _j$[ebp]
	imul	edx, 28					; 0000001cH
	mov	eax, DWORD PTR ?UIInputStuff@@3PAUUIInputStuff_t@@A[edx+24]
	mov	DWORD PTR [eax+12], -1
	jmp	SHORT $LN12@AdvancedCo
$LN15@AdvancedCo:

; 414  : 				default:	ShiAssert(false);
; 415  : 				case SETUP_ADVANCED_DZ_SMALL:	UIInputStuff[j].theDeviceAxis->Saturation = g_nSaturationSmall;	break;

	mov	ecx, DWORD PTR _j$[ebp]
	imul	ecx, 28					; 0000001cH
	mov	edx, DWORD PTR ?UIInputStuff@@3PAUUIInputStuff_t@@A[ecx+24]
	mov	eax, DWORD PTR ?g_nSaturationSmall@@3HA	; g_nSaturationSmall
	mov	DWORD PTR [edx+12], eax
	jmp	SHORT $LN12@AdvancedCo
$LN14@AdvancedCo:

; 416  : 				case SETUP_ADVANCED_DZ_MEDIUM:	UIInputStuff[j].theDeviceAxis->Saturation = g_nSaturationMedium;	break;

	mov	ecx, DWORD PTR _j$[ebp]
	imul	ecx, 28					; 0000001cH
	mov	edx, DWORD PTR ?UIInputStuff@@3PAUUIInputStuff_t@@A[ecx+24]
	mov	eax, DWORD PTR ?g_nSaturationMedium@@3HA ; g_nSaturationMedium
	mov	DWORD PTR [edx+12], eax
	jmp	SHORT $LN12@AdvancedCo
$LN13@AdvancedCo:

; 417  : 				case SETUP_ADVANCED_DZ_LARGE:	UIInputStuff[j].theDeviceAxis->Saturation = g_nSaturationLarge;	break;

	mov	ecx, DWORD PTR _j$[ebp]
	imul	ecx, 28					; 0000001cH
	mov	edx, DWORD PTR ?UIInputStuff@@3PAUUIInputStuff_t@@A[ecx+24]
	mov	eax, DWORD PTR ?g_nSaturationLarge@@3HA	; g_nSaturationLarge
	mov	DWORD PTR [edx+12], eax
$LN12@AdvancedCo:

; 418  : 				}
; 419  : 			}
; 420  : 		}
; 421  : 		else
; 422  : 			ShiAssert(false);
; 423  : 	}

	jmp	$LN24@AdvancedCo
$LN23@AdvancedCo:

; 424  : 
; 425  : 
; 426  : 	C_Button* button = (C_Button*)0;

	mov	DWORD PTR _button$[ebp], 0

; 427  : 	// check 'reversed' buttons..
; 428  : 
; 429  : 	for (j = 0; j < AXIS_MAX; j++)	// Retro 15Jan2004

	mov	DWORD PTR _j$[ebp], 0
	jmp	SHORT $LN11@AdvancedCo
$LN10@AdvancedCo:
	mov	ecx, DWORD PTR _j$[ebp]
	add	ecx, 1
	mov	DWORD PTR _j$[ebp], ecx
$LN11@AdvancedCo:
	cmp	DWORD PTR _j$[ebp], 22			; 00000016H
	jge	SHORT $LN9@AdvancedCo

; 430  : 	{
; 431  : 		if (UIInputStuff[j].ReverseBtn == 0)

	mov	edx, DWORD PTR _j$[ebp]
	imul	edx, 28					; 0000001cH
	cmp	DWORD PTR ?UIInputStuff@@3PAUUIInputStuff_t@@A[edx+20], 0
	jne	SHORT $LN8@AdvancedCo

; 432  : 			continue;

	jmp	SHORT $LN10@AdvancedCo
$LN8@AdvancedCo:

; 433  : 
; 434  : 		button=(C_Button *)win->FindControl(UIInputStuff[j].ReverseBtn);

	mov	eax, DWORD PTR _j$[ebp]
	imul	eax, 28					; 0000001cH
	mov	ecx, DWORD PTR ?UIInputStuff@@3PAUUIInputStuff_t@@A[eax+20]
	push	ecx
	mov	ecx, DWORD PTR _win$[ebp]
	call	?FindControl@C_Window@@QAEPAVC_Base@@J@Z ; C_Window::FindControl
	mov	DWORD PTR _button$[ebp], eax

; 435  : 		if(button != NULL)

	cmp	DWORD PTR _button$[ebp], 0
	je	SHORT $LN4@AdvancedCo

; 436  : 		{
; 437  : 			if(button->GetState() == C_STATE_1)

	mov	edx, DWORD PTR _button$[ebp]
	mov	eax, DWORD PTR [edx]
	mov	ecx, DWORD PTR _button$[ebp]
	mov	edx, DWORD PTR [eax+112]
	call	edx
	cwde
	cmp	eax, 1
	jne	SHORT $LN6@AdvancedCo

; 438  : 				IO.SetAnalogIsReversed(UIInputStuff[j].InGameAxis,true);

	push	1
	mov	ecx, DWORD PTR _j$[ebp]
	imul	ecx, 28					; 0000001cH
	mov	edx, DWORD PTR ?UIInputStuff@@3PAUUIInputStuff_t@@A[ecx]
	push	edx
	mov	ecx, OFFSET ?IO@@3VSIMLIB_IO_CLASS@@A	; IO
	call	?SetAnalogIsReversed@SIMLIB_IO_CLASS@@QAEXW4GameAxis_t@@_N@Z ; SIMLIB_IO_CLASS::SetAnalogIsReversed

; 439  : 			else

	jmp	SHORT $LN4@AdvancedCo
$LN6@AdvancedCo:

; 440  : 				IO.SetAnalogIsReversed(UIInputStuff[j].InGameAxis,false);

	push	0
	mov	eax, DWORD PTR _j$[ebp]
	imul	eax, 28					; 0000001cH
	mov	ecx, DWORD PTR ?UIInputStuff@@3PAUUIInputStuff_t@@A[eax]
	push	ecx
	mov	ecx, OFFSET ?IO@@3VSIMLIB_IO_CLASS@@A	; IO
	call	?SetAnalogIsReversed@SIMLIB_IO_CLASS@@QAEXW4GameAxis_t@@_N@Z ; SIMLIB_IO_CLASS::SetAnalogIsReversed
$LN4@AdvancedCo:

; 441  : 		}
; 442  : 		else
; 443  : 			ShiAssert(false);
; 444  : 	}

	jmp	$LN10@AdvancedCo
$LN9@AdvancedCo:

; 445  : 
; 446  : 	IO.SaveFile();

	mov	ecx, OFFSET ?IO@@3VSIMLIB_IO_CLASS@@A	; IO
	call	?SaveFile@SIMLIB_IO_CLASS@@QAEHXZ	; SIMLIB_IO_CLASS::SaveFile

; 447  : 	IO.WriteAxisMappingFile();

	mov	ecx, OFFSET ?IO@@3VSIMLIB_IO_CLASS@@A	; IO
	call	?WriteAxisMappingFile@SIMLIB_IO_CLASS@@QAEHXZ ; SIMLIB_IO_CLASS::WriteAxisMappingFile

; 448  : 	SetupGameAxis();

	call	?SetupGameAxis@@YAXXZ			; SetupGameAxis

; 449  : 
; 450  : 	/* PROBLEM: have to call the 'SetThrottleAndRudderBars' functions in the setup->controls tab.. hmm */
; 451  : 	win=gMainHandler->FindWindow(SETUP_WIN);

	push	70002					; 00011172H
	mov	ecx, DWORD PTR ?gMainHandler@@3PAVC_Handler@@A ; gMainHandler
	call	?FindWindowA@C_Handler@@QAEPAVC_Window@@J@Z ; C_Handler::FindWindowA
	mov	DWORD PTR _win$[ebp], eax

; 452  : 	if(win == NULL) return;

	cmp	DWORD PTR _win$[ebp], 0
	jne	SHORT $LN3@AdvancedCo
	jmp	SHORT $LN43@AdvancedCo
$LN3@AdvancedCo:

; 453  : 
; 454  : 	button = (C_Button *)win->FindControl(SETUP_CONTROL_ADVANCED);

	push	70220					; 0001124cH
	mov	ecx, DWORD PTR _win$[ebp]
	call	?FindControl@C_Window@@QAEPAVC_Base@@J@Z ; C_Window::FindControl
	mov	DWORD PTR _button$[ebp], eax

; 455  : 	if (button)

	cmp	DWORD PTR _button$[ebp], 0
	je	SHORT $LN43@AdvancedCo

; 456  : 	{
; 457  : 		SetThrottleAndRudderBars(button);

	mov	edx, DWORD PTR _button$[ebp]
	push	edx
	call	?SetThrottleAndRudderBars@@YAXPAVC_Base@@@Z ; SetThrottleAndRudderBars
	add	esp, 4
$LN43@AdvancedCo:

; 458  : 	}
; 459  : 	else
; 460  : 		ShiAssert(false);
; 461  : }

	mov	esp, ebp
	pop	ebp
	ret	0
	npad	1
$LN46@AdvancedCo:
	DD	$LN31@AdvancedCo
	DD	$LN29@AdvancedCo
	DD	$LN28@AdvancedCo
	DD	$LN27@AdvancedCo
$LN47@AdvancedCo:
	DD	$LN15@AdvancedCo
	DD	$LN14@AdvancedCo
	DD	$LN13@AdvancedCo
	DD	$LN17@AdvancedCo
	DD	$LN15@AdvancedCo
$LN45@AdvancedCo:
	DB	0
	DB	1
	DB	2
	DB	4
	DB	4
	DB	4
	DB	4
	DB	4
	DB	4
	DB	4
	DB	4
	DB	4
	DB	4
	DB	4
	DB	4
	DB	4
	DB	4
	DB	4
	DB	4
	DB	4
	DB	4
	DB	4
	DB	4
	DB	3
?AdvancedControlApplyCB@@YAXJFPAVC_Base@@@Z ENDP	; AdvancedControlApplyCB
_TEXT	ENDS
; Function compile flags: /Odtp
; File c:\users\zhitao li\documents\visual studio 2012\projects\freefalcon\ui\src\setup\controltab.cpp
_TEXT	SEGMENT
_i$ = -4						; size = 4
___formal$ = 8						; size = 4
_hittype$ = 12						; size = 2
_control$ = 16						; size = 4
?SetupControlTabsCB@@YAXJFPAVC_Base@@@Z PROC		; SetupControlTabsCB

; 321  : {

	push	ebp
	mov	ebp, esp
	push	ecx

; 322  : 	if(hittype != C_TYPE_LMOUSEUP)

	movsx	eax, WORD PTR _hittype$[ebp]
	cmp	eax, 52					; 00000034H
	je	SHORT $LN3@SetupContr

; 323  : 		return;

	jmp	SHORT $LN4@SetupContr
$LN3@SetupContr:

; 324  : 
; 325  : 	int i=1;

	mov	DWORD PTR _i$[ebp], 1
$LN2@SetupContr:

; 326  : 	while(control->GetUserNumber(i))

	mov	ecx, DWORD PTR _i$[ebp]
	push	ecx
	mov	ecx, DWORD PTR _control$[ebp]
	call	?GetUserNumber@C_Base@@QAEJJ@Z		; C_Base::GetUserNumber
	test	eax, eax
	je	SHORT $LN1@SetupContr

; 327  : 	{
; 328  : 		control->Parent_->HideCluster(control->GetUserNumber(i));

	mov	edx, DWORD PTR _i$[ebp]
	push	edx
	mov	ecx, DWORD PTR _control$[ebp]
	call	?GetUserNumber@C_Base@@QAEJJ@Z		; C_Base::GetUserNumber
	push	eax
	mov	eax, DWORD PTR _control$[ebp]
	mov	ecx, DWORD PTR [eax+48]
	call	?HideCluster@C_Window@@QAEXJ@Z		; C_Window::HideCluster

; 329  : 		i++;

	mov	ecx, DWORD PTR _i$[ebp]
	add	ecx, 1
	mov	DWORD PTR _i$[ebp], ecx

; 330  : 	}

	jmp	SHORT $LN2@SetupContr
$LN1@SetupContr:

; 331  : 	control->Parent_->UnHideCluster(control->GetUserNumber(0));

	push	0
	mov	ecx, DWORD PTR _control$[ebp]
	call	?GetUserNumber@C_Base@@QAEJJ@Z		; C_Base::GetUserNumber
	push	eax
	mov	edx, DWORD PTR _control$[ebp]
	mov	ecx, DWORD PTR [edx+48]
	call	?UnHideCluster@C_Window@@QAEXJ@Z	; C_Window::UnHideCluster

; 332  : 	
; 333  : 	control->Parent_->RefreshWindow();

	mov	eax, DWORD PTR _control$[ebp]
	mov	ecx, DWORD PTR [eax+48]
	call	?RefreshWindow@C_Window@@QAEXXZ		; C_Window::RefreshWindow

; 334  : 	
; 335  : 	Cluster = control->GetUserNumber(0);

	push	0
	mov	ecx, DWORD PTR _control$[ebp]
	call	?GetUserNumber@C_Base@@QAEJJ@Z		; C_Base::GetUserNumber
	mov	DWORD PTR ?Cluster@@3JA, eax		; Cluster
$LN4@SetupContr:

; 336  : }

	mov	esp, ebp
	pop	ebp
	ret	0
?SetupControlTabsCB@@YAXJFPAVC_Base@@@Z ENDP		; SetupControlTabsCB
_TEXT	ENDS
; Function compile flags: /Odtp
; File c:\users\zhitao li\documents\visual studio 2012\projects\freefalcon\ui\src\setup\controltab.cpp
_TEXT	SEGMENT
_listbox$1 = -12					; size = 4
_index$2 = -8						; size = 4
_i$3 = -4						; size = 4
_win$ = 8						; size = 4
?SaveAxisMappings@@YAXPAVC_Window@@@Z PROC		; SaveAxisMappings

; 277  : {

	push	ebp
	mov	ebp, esp
	sub	esp, 12					; 0000000cH

; 278  : 	if (win)

	cmp	DWORD PTR _win$[ebp], 0
	je	$LN12@SaveAxisMa

; 279  : 	{
; 280  : 		for (int i = 0; i < AXIS_MAX; i++)

	mov	DWORD PTR _i$3[ebp], 0
	jmp	SHORT $LN10@SaveAxisMa
$LN9@SaveAxisMa:
	mov	eax, DWORD PTR _i$3[ebp]
	add	eax, 1
	mov	DWORD PTR _i$3[ebp], eax
$LN10@SaveAxisMa:
	cmp	DWORD PTR _i$3[ebp], 22			; 00000016H
	jge	$LN12@SaveAxisMa

; 281  : 		{
; 282  : 			if (UIInputStuff[i].AxisLB == 0)

	mov	ecx, DWORD PTR _i$3[ebp]
	imul	ecx, 28					; 0000001cH
	cmp	DWORD PTR ?UIInputStuff@@3PAUUIInputStuff_t@@A[ecx+4], 0
	jne	SHORT $LN7@SaveAxisMa

; 283  : 				continue;

	jmp	SHORT $LN9@SaveAxisMa
$LN7@SaveAxisMa:

; 284  : 
; 285  : 			C_ListBox* listbox = (C_ListBox *)win->FindControl(UIInputStuff[i].AxisLB);

	mov	edx, DWORD PTR _i$3[ebp]
	imul	edx, 28					; 0000001cH
	mov	eax, DWORD PTR ?UIInputStuff@@3PAUUIInputStuff_t@@A[edx+4]
	push	eax
	mov	ecx, DWORD PTR _win$[ebp]
	call	?FindControl@C_Window@@QAEPAVC_Base@@J@Z ; C_Window::FindControl
	mov	DWORD PTR _listbox$1[ebp], eax

; 286  : 			if (listbox)

	cmp	DWORD PTR _listbox$1[ebp], 0
	je	SHORT $LN2@SaveAxisMa

; 287  : 			{
; 288  : 				long index = GetListBoxItemData(listbox,0);

	push	0
	push	0
	mov	ecx, DWORD PTR _listbox$1[ebp]
	push	ecx
	call	?GetListBoxItemData@@YAJPAVC_ListBox@@HJ@Z ; GetListBoxItemData
	add	esp, 12					; 0000000cH
	mov	DWORD PTR _index$2[ebp], eax

; 289  : 				if (index > -2)

	cmp	DWORD PTR _index$2[ebp], -2		; fffffffeH
	jle	SHORT $LN2@SaveAxisMa

; 290  : 				{
; 291  : 					if (index != -1)

	cmp	DWORD PTR _index$2[ebp], -1
	je	SHORT $LN4@SaveAxisMa

; 292  : 					{
; 293  : 						UIInputStuff[i].theDeviceAxis->Device = DIAxisNames[index].DXDeviceID;

	mov	edx, DWORD PTR _index$2[ebp]
	shl	edx, 4
	mov	eax, DWORD PTR _i$3[ebp]
	imul	eax, 28					; 0000001cH
	mov	ecx, DWORD PTR ?UIInputStuff@@3PAUUIInputStuff_t@@A[eax+24]
	mov	edx, DWORD PTR ?DIAxisNames@@3PAUAxisIDStuff@@A[edx+8]
	mov	DWORD PTR [ecx], edx

; 294  : 						UIInputStuff[i].theDeviceAxis->Axis = DIAxisNames[index].DXAxisID;

	mov	eax, DWORD PTR _index$2[ebp]
	shl	eax, 4
	mov	ecx, DWORD PTR _i$3[ebp]
	imul	ecx, 28					; 0000001cH
	mov	edx, DWORD PTR ?UIInputStuff@@3PAUUIInputStuff_t@@A[ecx+24]
	mov	eax, DWORD PTR ?DIAxisNames@@3PAUAxisIDStuff@@A[eax+4]
	mov	DWORD PTR [edx+4], eax

; 295  : 					}
; 296  : 					else

	jmp	SHORT $LN2@SaveAxisMa
$LN4@SaveAxisMa:

; 297  : 					{
; 298  : 						// mapped to keyboard (deactivated the axis)
; 299  : 						UIInputStuff[i].theDeviceAxis->Device = -1;

	mov	ecx, DWORD PTR _i$3[ebp]
	imul	ecx, 28					; 0000001cH
	mov	edx, DWORD PTR ?UIInputStuff@@3PAUUIInputStuff_t@@A[ecx+24]
	mov	DWORD PTR [edx], -1

; 300  : 						UIInputStuff[i].theDeviceAxis->Axis = -1;

	mov	eax, DWORD PTR _i$3[ebp]
	imul	eax, 28					; 0000001cH
	mov	ecx, DWORD PTR ?UIInputStuff@@3PAUUIInputStuff_t@@A[eax+24]
	mov	DWORD PTR [ecx+4], -1
$LN2@SaveAxisMa:

; 301  : 					}
; 302  : 				}
; 303  : 			}
; 304  : 			else
; 305  : 			{
; 306  : 				ShiAssert(false);
; 307  : 			}
; 308  : 		}

	jmp	$LN9@SaveAxisMa
$LN12@SaveAxisMa:

; 309  : 	}
; 310  : 	else
; 311  : 	{
; 312  : 		ShiAssert(false);
; 313  : 	}
; 314  : }

	mov	esp, ebp
	pop	ebp
	ret	0
?SaveAxisMappings@@YAXPAVC_Window@@@Z ENDP		; SaveAxisMappings
_TEXT	ENDS
; Function compile flags: /Odtp
; File c:\users\zhitao li\documents\visual studio 2012\projects\freefalcon\ui\src\setup\controltab.cpp
_TEXT	SEGMENT
_item$1 = -4						; size = 4
_theLB$ = 8						; size = 4
_theItemIndex$ = 12					; size = 4
_theIndex$ = 16						; size = 4
?GetListBoxItemData@@YAJPAVC_ListBox@@HJ@Z PROC		; GetListBoxItemData

; 254  : {

	push	ebp
	mov	ebp, esp
	push	ecx

; 255  : 	if (theLB)

	cmp	DWORD PTR _theLB$[ebp], 0
	je	SHORT $LN4@GetListBox

; 256  : 	{
; 257  : 		LISTBOX *item;
; 258  : 		if (theIndex == 0)

	cmp	DWORD PTR _theIndex$[ebp], 0
	jne	SHORT $LN3@GetListBox

; 259  : 		{
; 260  : 			item = theLB->FindID(theLB->GetTextID());

	mov	ecx, DWORD PTR _theLB$[ebp]
	call	?GetTextID@C_ListBox@@QAEJXZ		; C_ListBox::GetTextID
	push	eax
	mov	ecx, DWORD PTR _theLB$[ebp]
	call	?FindID@C_ListBox@@QAEPAVLISTBOX@@J@Z	; C_ListBox::FindID
	mov	DWORD PTR _item$1[ebp], eax

; 261  : 		}
; 262  : 		else

	jmp	SHORT $LN2@GetListBox
$LN3@GetListBox:

; 263  : 		{
; 264  : 			item = theLB->FindID(theIndex);

	mov	eax, DWORD PTR _theIndex$[ebp]
	push	eax
	mov	ecx, DWORD PTR _theLB$[ebp]
	call	?FindID@C_ListBox@@QAEPAVLISTBOX@@J@Z	; C_ListBox::FindID
	mov	DWORD PTR _item$1[ebp], eax
$LN2@GetListBox:

; 265  : 		}
; 266  : 
; 267  : 		if ((item)&&(item->Label_))

	cmp	DWORD PTR _item$1[ebp], 0
	je	SHORT $LN4@GetListBox
	mov	ecx, DWORD PTR _item$1[ebp]
	cmp	DWORD PTR [ecx], 0
	je	SHORT $LN4@GetListBox

; 268  : 			return item->Label_->GetUserNumber(theItemIndex);

	mov	edx, DWORD PTR _theItemIndex$[ebp]
	push	edx
	mov	eax, DWORD PTR _item$1[ebp]
	mov	ecx, DWORD PTR [eax]
	call	?GetUserNumber@C_Base@@QAEJJ@Z		; C_Base::GetUserNumber
	jmp	SHORT $LN5@GetListBox
$LN4@GetListBox:

; 269  : 	}
; 270  : 	return -2;	// return values only valid if >= -1

	mov	eax, -2					; fffffffeH
$LN5@GetListBox:

; 271  : }

	mov	esp, ebp
	pop	ebp
	ret	0
?GetListBoxItemData@@YAJPAVC_ListBox@@HJ@Z ENDP		; GetListBoxItemData
_TEXT	ENDS
; Function compile flags: /Odtp
; File c:\users\zhitao li\documents\visual studio 2012\projects\freefalcon\ui\src\setup\controltab.cpp
_TEXT	SEGMENT
_theLB$ = 8						; size = 4
_ID$ = 12						; size = 4
_theItemIndex$ = 16					; size = 2
_theItemData$ = 20					; size = 4
?SetListBoxItemData@@YA_NPAVC_ListBox@@JFJ@Z PROC	; SetListBoxItemData

; 235  : {

	push	ebp
	mov	ebp, esp

; 236  : 	// ID seems to be the index of the item in the listbox.
; 237  : 	if (theLB)

	cmp	DWORD PTR _theLB$[ebp], 0
	je	SHORT $LN2@SetListBox

; 238  : 	{
; 239  : 		theLB->SetItemUserData(ID,theItemIndex,theItemData);

	mov	eax, DWORD PTR _theItemData$[ebp]
	push	eax
	movzx	ecx, WORD PTR _theItemIndex$[ebp]
	push	ecx
	mov	edx, DWORD PTR _ID$[ebp]
	push	edx
	mov	ecx, DWORD PTR _theLB$[ebp]
	call	?SetItemUserData@C_ListBox@@QAEXJFJ@Z	; C_ListBox::SetItemUserData

; 240  : 		return true;

	mov	al, 1
	jmp	SHORT $LN3@SetListBox

; 241  : 	}
; 242  : 	else

	jmp	SHORT $LN3@SetListBox
$LN2@SetListBox:

; 243  : 	{
; 244  : 		return false;

	xor	al, al
$LN3@SetListBox:

; 245  : 	}
; 246  : }

	pop	ebp
	ret	0
?SetListBoxItemData@@YA_NPAVC_ListBox@@JFJ@Z ENDP	; SetListBoxItemData
_TEXT	ENDS
; Function compile flags: /Odtp
; File c:\users\zhitao li\documents\visual studio 2012\projects\freefalcon\ui\src\setup\controltab.cpp
_TEXT	SEGMENT
___formal$ = 8						; size = 4
_hittype$ = 12						; size = 2
___formal$ = 16						; size = 4
?RecenterJoystickCB@@YAXJFPAVC_Base@@@Z PROC		; RecenterJoystickCB

; 174  : {

	push	ebp
	mov	ebp, esp

; 175  : 	if((hittype != C_TYPE_LMOUSEUP))

	movsx	eax, WORD PTR _hittype$[ebp]
	cmp	eax, 52					; 00000034H
	je	SHORT $LN1@RecenterJo

; 176  : 		return;

	jmp	SHORT $LN2@RecenterJo
$LN1@RecenterJo:

; 177  : 
; 178  : 	SetJoystickCenter();

	call	?SetJoystickCenter@@YAXXZ		; SetJoystickCenter
$LN2@RecenterJo:

; 179  : }

	pop	ebp
	ret	0
?RecenterJoystickCB@@YAXJFPAVC_Base@@@Z ENDP		; RecenterJoystickCB
_TEXT	ENDS
; Function compile flags: /Odtp
; File c:\users\zhitao li\documents\visual studio 2012\projects\freefalcon\ui\src\setup\controltab.cpp
_TEXT	SEGMENT
_button$ = 8						; size = 4
?SetButtonColor@@YAXPAVC_Button@@@Z PROC		; SetButtonColor

; 163  : {

	push	ebp
	mov	ebp, esp

; 164  : 	if(button->GetUserNumber(EDITABLE) < 1)

	push	4
	mov	ecx, DWORD PTR _button$[ebp]
	call	?GetUserNumber@C_Base@@QAEJJ@Z		; C_Base::GetUserNumber
	cmp	eax, 1
	jge	SHORT $LN2@SetButtonC

; 165  : 		button->SetFgColor(0,RGB(0,255,0)); //green

	push	65280					; 0000ff00H
	push	0
	mov	ecx, DWORD PTR _button$[ebp]
	call	?SetFgColor@C_Button@@QAEXFK@Z		; C_Button::SetFgColor

; 166  : 	else

	jmp	SHORT $LN1@SetButtonC
$LN2@SetButtonC:

; 167  : 	{
; 168  : 		button->SetFgColor(0,RGB(230,230,230)); //white

	push	15132390				; 00e6e6e6H
	push	0
	mov	ecx, DWORD PTR _button$[ebp]
	call	?SetFgColor@C_Button@@QAEXFK@Z		; C_Button::SetFgColor
$LN1@SetButtonC:

; 169  : 	}
; 170  : 	button->Refresh();

	mov	eax, DWORD PTR _button$[ebp]
	mov	edx, DWORD PTR [eax]
	mov	ecx, DWORD PTR _button$[ebp]
	mov	eax, DWORD PTR [edx+160]
	call	eax

; 171  : }

	pop	ebp
	ret	0
?SetButtonColor@@YAXPAVC_Button@@@Z ENDP		; SetButtonColor
_TEXT	ENDS
; Function compile flags: /Odtp
; File c:\users\zhitao li\documents\visual studio 2012\projects\freefalcon\ui\src\setup\controltab.cpp
_TEXT	SEGMENT
_button$ = -12						; size = 4
_count$ = -8						; size = 4
_line$ = -4						; size = 4
_win$ = 8						; size = 4
?HideKeyStatusLines@@YAXPAVC_Window@@@Z PROC		; HideKeyStatusLines

; 140  : {

	push	ebp
	mov	ebp, esp
	sub	esp, 12					; 0000000cH

; 141  : 	if(!win)

	cmp	DWORD PTR _win$[ebp], 0
	jne	SHORT $LN5@HideKeySta

; 142  : 		return;

	jmp	$LN6@HideKeySta
$LN5@HideKeySta:

; 143  : 
; 144  : 	C_Line *line;
; 145  : 	C_Button *button;
; 146  : 	int count = 1;

	mov	DWORD PTR _count$[ebp], 1

; 147  : 
; 148  : 	line = (C_Line *)win->FindControl(KEYCODES - count);

	mov	eax, 100000				; 000186a0H
	sub	eax, DWORD PTR _count$[ebp]
	push	eax
	mov	ecx, DWORD PTR _win$[ebp]
	call	?FindControl@C_Window@@QAEPAVC_Base@@J@Z ; C_Window::FindControl
	mov	DWORD PTR _line$[ebp], eax
$LN4@HideKeySta:

; 149  : 	while(line)

	cmp	DWORD PTR _line$[ebp], 0
	je	SHORT $LN6@HideKeySta

; 150  : 	{
; 151  : 		button = (C_Button *)win->FindControl(KEYCODES + count);

	mov	ecx, DWORD PTR _count$[ebp]
	add	ecx, 100000				; 000186a0H
	push	ecx
	mov	ecx, DWORD PTR _win$[ebp]
	call	?FindControl@C_Window@@QAEPAVC_Base@@J@Z ; C_Window::FindControl
	mov	DWORD PTR _button$[ebp], eax

; 152  : 		if(!button || button->GetUserNumber(EDITABLE) != -1 )

	cmp	DWORD PTR _button$[ebp], 0
	je	SHORT $LN1@HideKeySta
	push	4
	mov	ecx, DWORD PTR _button$[ebp]
	call	?GetUserNumber@C_Base@@QAEJJ@Z		; C_Base::GetUserNumber
	cmp	eax, -1
	je	SHORT $LN2@HideKeySta
$LN1@HideKeySta:

; 153  : 		{
; 154  : 			line->SetFlagBitOn(C_BIT_INVISIBLE);

	push	8192					; 00002000H
	mov	edx, DWORD PTR _line$[ebp]
	mov	eax, DWORD PTR [edx]
	mov	ecx, DWORD PTR _line$[ebp]
	mov	edx, DWORD PTR [eax+8]
	call	edx

; 155  : 			line->Refresh();

	mov	eax, DWORD PTR _line$[ebp]
	mov	edx, DWORD PTR [eax]
	mov	ecx, DWORD PTR _line$[ebp]
	mov	eax, DWORD PTR [edx+160]
	call	eax
$LN2@HideKeySta:

; 156  : 		}
; 157  : 
; 158  : 		line = (C_Line *)win->FindControl(KEYCODES - ++count);

	mov	ecx, DWORD PTR _count$[ebp]
	add	ecx, 1
	mov	DWORD PTR _count$[ebp], ecx
	mov	edx, 100000				; 000186a0H
	sub	edx, DWORD PTR _count$[ebp]
	push	edx
	mov	ecx, DWORD PTR _win$[ebp]
	call	?FindControl@C_Window@@QAEPAVC_Base@@J@Z ; C_Window::FindControl
	mov	DWORD PTR _line$[ebp], eax

; 159  : 	}

	jmp	SHORT $LN4@HideKeySta
$LN6@HideKeySta:

; 160  : }

	mov	esp, ebp
	pop	ebp
	ret	0
?HideKeyStatusLines@@YAXPAVC_Window@@@Z ENDP		; HideKeyStatusLines
_TEXT	ENDS
; Function compile flags: /Odtp
; File c:\users\zhitao li\documents\visual studio 2012\projects\freefalcon\ui\src\setup\controltab.cpp
_TEXT	SEGMENT
_line$ = -4						; size = 4
_control$ = 8						; size = 4
?SetThrottleAndRudderBars@@YAXPAVC_Base@@@Z PROC	; SetThrottleAndRudderBars

; 3460 : {

	push	ebp
	mov	ebp, esp
	push	ecx

; 3461 : 	C_Line		*line = NULL;

	mov	DWORD PTR _line$[ebp], 0

; 3462 : 
; 3463 : 	// Retro 17Jan2004 - have to cater for 2 throttles now !
; 3464 : 	/* do throttle mumbo-jumbo */
; 3465 : 	line=(C_Line *)control->Parent_->FindControl(THROTTLE);

	push	70037					; 00011195H
	mov	eax, DWORD PTR _control$[ebp]
	mov	ecx, DWORD PTR [eax+48]
	call	?FindControl@C_Window@@QAEPAVC_Base@@J@Z ; C_Window::FindControl
	mov	DWORD PTR _line$[ebp], eax

; 3466 : 	if(line != NULL)

	cmp	DWORD PTR _line$[ebp], 0
	je	$LN4@SetThrottl

; 3467 : 	{
; 3468 : //		line->Refresh();
; 3469 : 		if( !IO.AnalogIsUsed(AXIS_THROTTLE) )

	push	3
	mov	ecx, OFFSET ?IO@@3VSIMLIB_IO_CLASS@@A	; IO
	call	?AnalogIsUsed@SIMLIB_IO_CLASS@@QAE_NW4GameAxis_t@@@Z ; SIMLIB_IO_CLASS::AnalogIsUsed
	movzx	ecx, al
	test	ecx, ecx
	jne	$LN10@SetThrottl

; 3470 : 		{
; 3471 : 			line->SetColor(RGB(130,130,130)); //grey

	push	8553090					; 00828282H
	mov	ecx, DWORD PTR _line$[ebp]
	call	?SetColor@C_Line@@QAEXK@Z		; C_Line::SetColor

; 3472 : 			line->SetH(Throttle.bottom - Throttle.top);

	mov	edx, DWORD PTR ?Throttle@@3UtagRECT@@A+12
	sub	edx, DWORD PTR ?Throttle@@3UtagRECT@@A+4
	push	edx
	mov	eax, DWORD PTR _line$[ebp]
	mov	edx, DWORD PTR [eax]
	mov	ecx, DWORD PTR _line$[ebp]
	mov	eax, DWORD PTR [edx+28]
	call	eax

; 3473 : 			line->SetY(Throttle.top);

	mov	ecx, DWORD PTR ?Throttle@@3UtagRECT@@A+4
	push	ecx
	mov	edx, DWORD PTR _line$[ebp]
	mov	eax, DWORD PTR [edx]
	mov	ecx, DWORD PTR _line$[ebp]
	mov	edx, DWORD PTR [eax+20]
	call	edx

; 3474 : 			line->Refresh();

	mov	eax, DWORD PTR _line$[ebp]
	mov	edx, DWORD PTR [eax]
	mov	ecx, DWORD PTR _line$[ebp]
	mov	eax, DWORD PTR [edx+160]
	call	eax

; 3475 : 
; 3476 : 			line=(C_Line *)control->Parent_->FindControl(THROTTLE2);

	push	70239					; 0001125fH
	mov	ecx, DWORD PTR _control$[ebp]
	mov	ecx, DWORD PTR [ecx+48]
	call	?FindControl@C_Window@@QAEPAVC_Base@@J@Z ; C_Window::FindControl
	mov	DWORD PTR _line$[ebp], eax

; 3477 : 			if(line != NULL)

	cmp	DWORD PTR _line$[ebp], 0
	je	SHORT $LN8@SetThrottl

; 3478 : 			{
; 3479 : 				line->SetColor(RGB(130,130,130)); //grey

	push	8553090					; 00828282H
	mov	ecx, DWORD PTR _line$[ebp]
	call	?SetColor@C_Line@@QAEXK@Z		; C_Line::SetColor

; 3480 : 				line->SetH(Throttle.bottom - Throttle.top);

	mov	edx, DWORD PTR ?Throttle@@3UtagRECT@@A+12
	sub	edx, DWORD PTR ?Throttle@@3UtagRECT@@A+4
	push	edx
	mov	eax, DWORD PTR _line$[ebp]
	mov	edx, DWORD PTR [eax]
	mov	ecx, DWORD PTR _line$[ebp]
	mov	eax, DWORD PTR [edx+28]
	call	eax

; 3481 : 				line->SetY(Throttle.top);

	mov	ecx, DWORD PTR ?Throttle@@3UtagRECT@@A+4
	push	ecx
	mov	edx, DWORD PTR _line$[ebp]
	mov	eax, DWORD PTR [edx]
	mov	ecx, DWORD PTR _line$[ebp]
	mov	edx, DWORD PTR [eax+20]
	call	edx

; 3482 : 				line->Refresh();

	mov	eax, DWORD PTR _line$[ebp]
	mov	edx, DWORD PTR [eax]
	mov	ecx, DWORD PTR _line$[ebp]
	mov	eax, DWORD PTR [edx+160]
	call	eax
$LN8@SetThrottl:

; 3483 : 			}
; 3484 : 			else
; 3485 : 			{
; 3486 : 				ShiAssert(false);
; 3487 : 			}
; 3488 : 		}
; 3489 : 		else

	jmp	SHORT $LN4@SetThrottl
$LN10@SetThrottl:

; 3490 : 		{
; 3491 : 			line->SetColor(RGB(60,123,168)); //blue

	push	11041596				; 00a87b3cH
	mov	ecx, DWORD PTR _line$[ebp]
	call	?SetColor@C_Line@@QAEXK@Z		; C_Line::SetColor

; 3492 : 			line->Refresh();

	mov	ecx, DWORD PTR _line$[ebp]
	mov	edx, DWORD PTR [ecx]
	mov	ecx, DWORD PTR _line$[ebp]
	mov	eax, DWORD PTR [edx+160]
	call	eax

; 3493 : 			line=(C_Line *)control->Parent_->FindControl(THROTTLE2);

	push	70239					; 0001125fH
	mov	ecx, DWORD PTR _control$[ebp]
	mov	ecx, DWORD PTR [ecx+48]
	call	?FindControl@C_Window@@QAEPAVC_Base@@J@Z ; C_Window::FindControl
	mov	DWORD PTR _line$[ebp], eax

; 3494 : 			if(line != NULL)

	cmp	DWORD PTR _line$[ebp], 0
	je	SHORT $LN4@SetThrottl

; 3495 : 			{
; 3496 : 				line->SetColor(RGB(60,123,168)); //blue

	push	11041596				; 00a87b3cH
	mov	ecx, DWORD PTR _line$[ebp]
	call	?SetColor@C_Line@@QAEXK@Z		; C_Line::SetColor

; 3497 : 				line->Refresh();

	mov	edx, DWORD PTR _line$[ebp]
	mov	eax, DWORD PTR [edx]
	mov	ecx, DWORD PTR _line$[ebp]
	mov	edx, DWORD PTR [eax+160]
	call	edx
$LN4@SetThrottl:

; 3498 : 			}
; 3499 : 			else
; 3500 : 			{
; 3501 : 				ShiAssert(false);
; 3502 : 			}
; 3503 : 		}
; 3504 : 		
; 3505 : 	}
; 3506 : 	else
; 3507 : 	{
; 3508 : 		ShiAssert(false);
; 3509 : 	}
; 3510 : 
; 3511 : 	/* same shit for rudder */
; 3512 : 	line=(C_Line *)control->Parent_->FindControl(RUDDER);

	push	70038					; 00011196H
	mov	eax, DWORD PTR _control$[ebp]
	mov	ecx, DWORD PTR [eax+48]
	call	?FindControl@C_Window@@QAEPAVC_Base@@J@Z ; C_Window::FindControl
	mov	DWORD PTR _line$[ebp], eax

; 3513 : 	if(line != NULL)

	cmp	DWORD PTR _line$[ebp], 0
	je	SHORT $LN12@SetThrottl

; 3514 : 	{
; 3515 : 		line->Refresh();

	mov	ecx, DWORD PTR _line$[ebp]
	mov	edx, DWORD PTR [ecx]
	mov	ecx, DWORD PTR _line$[ebp]
	mov	eax, DWORD PTR [edx+160]
	call	eax

; 3516 : 		if( !IO.AnalogIsUsed(AXIS_YAW) )

	push	2
	mov	ecx, OFFSET ?IO@@3VSIMLIB_IO_CLASS@@A	; IO
	call	?AnalogIsUsed@SIMLIB_IO_CLASS@@QAE_NW4GameAxis_t@@@Z ; SIMLIB_IO_CLASS::AnalogIsUsed
	movzx	ecx, al
	test	ecx, ecx
	jne	SHORT $LN2@SetThrottl

; 3517 : 		{
; 3518 : 			line->SetColor(RGB(130,130,130)); //grey

	push	8553090					; 00828282H
	mov	ecx, DWORD PTR _line$[ebp]
	call	?SetColor@C_Line@@QAEXK@Z		; C_Line::SetColor

; 3519 : 			line->SetH(Rudder.bottom - Rudder.top);

	mov	edx, DWORD PTR ?Rudder@@3UtagRECT@@A+12
	sub	edx, DWORD PTR ?Rudder@@3UtagRECT@@A+4
	push	edx
	mov	eax, DWORD PTR _line$[ebp]
	mov	edx, DWORD PTR [eax]
	mov	ecx, DWORD PTR _line$[ebp]
	mov	eax, DWORD PTR [edx+28]
	call	eax

; 3520 : 			line->SetY(Rudder.top);

	mov	ecx, DWORD PTR ?Rudder@@3UtagRECT@@A+4
	push	ecx
	mov	edx, DWORD PTR _line$[ebp]
	mov	eax, DWORD PTR [edx]
	mov	ecx, DWORD PTR _line$[ebp]
	mov	edx, DWORD PTR [eax+20]
	call	edx

; 3521 : 		}
; 3522 : 		else

	jmp	SHORT $LN1@SetThrottl
$LN2@SetThrottl:

; 3523 : 			line->SetColor(RGB(60,123,168)); //blue

	push	11041596				; 00a87b3cH
	mov	ecx, DWORD PTR _line$[ebp]
	call	?SetColor@C_Line@@QAEXK@Z		; C_Line::SetColor
$LN1@SetThrottl:

; 3524 : 		line->Refresh();

	mov	eax, DWORD PTR _line$[ebp]
	mov	edx, DWORD PTR [eax]
	mov	ecx, DWORD PTR _line$[ebp]
	mov	eax, DWORD PTR [edx+160]
	call	eax
$LN12@SetThrottl:

; 3525 : 	}
; 3526 : }

	mov	esp, ebp
	pop	ebp
	ret	0
?SetThrottleAndRudderBars@@YAXPAVC_Base@@@Z ENDP	; SetThrottleAndRudderBars
_TEXT	ENDS
; Function compile flags: /Odtp
; File c:\users\zhitao li\documents\visual studio 2012\projects\freefalcon\sim\include\simio.h
;	COMDAT ?MouseWheelExists@SIMLIB_IO_CLASS@@QAE_NXZ
_TEXT	SEGMENT
_this$ = -4						; size = 4
?MouseWheelExists@SIMLIB_IO_CLASS@@QAE_NXZ PROC		; SIMLIB_IO_CLASS::MouseWheelExists, COMDAT
; _this$ = ecx

; 263  : 	bool MouseWheelExists() { return mouseWheelPresent; }

	push	ebp
	mov	ebp, esp
	push	ecx
	mov	DWORD PTR _this$[ebp], ecx
	mov	eax, DWORD PTR _this$[ebp]
	mov	al, BYTE PTR [eax+1656]
	mov	esp, ebp
	pop	ebp
	ret	0
?MouseWheelExists@SIMLIB_IO_CLASS@@QAE_NXZ ENDP		; SIMLIB_IO_CLASS::MouseWheelExists
_TEXT	ENDS
; Function compile flags: /Odtp
; File c:\users\zhitao li\documents\visual studio 2012\projects\freefalcon\sim\include\simio.h
;	COMDAT ?SetAnalogIsReversed@SIMLIB_IO_CLASS@@QAEXW4GameAxis_t@@_N@Z
_TEXT	SEGMENT
_this$ = -4						; size = 4
_id$ = 8						; size = 4
_flag$ = 12						; size = 1
?SetAnalogIsReversed@SIMLIB_IO_CLASS@@QAEXW4GameAxis_t@@_N@Z PROC ; SIMLIB_IO_CLASS::SetAnalogIsReversed, COMDAT
; _this$ = ecx

; 241  : 	void	SetAnalogIsReversed(GameAxis_t id, bool flag) { analog[id].isReversed = flag; };

	push	ebp
	mov	ebp, esp
	push	ecx
	mov	DWORD PTR _this$[ebp], ecx
	mov	eax, DWORD PTR _id$[ebp]
	imul	eax, 28					; 0000001cH
	mov	ecx, DWORD PTR _this$[ebp]
	mov	dl, BYTE PTR _flag$[ebp]
	mov	BYTE PTR [ecx+eax+20], dl
	mov	esp, ebp
	pop	ebp
	ret	8
?SetAnalogIsReversed@SIMLIB_IO_CLASS@@QAEXW4GameAxis_t@@_N@Z ENDP ; SIMLIB_IO_CLASS::SetAnalogIsReversed
_TEXT	ENDS
; Function compile flags: /Odtp
; File c:\users\zhitao li\documents\visual studio 2012\projects\freefalcon\sim\include\simio.h
;	COMDAT ?AnalogIsReversed@SIMLIB_IO_CLASS@@QAE_NW4GameAxis_t@@@Z
_TEXT	SEGMENT
_this$ = -4						; size = 4
_id$ = 8						; size = 4
?AnalogIsReversed@SIMLIB_IO_CLASS@@QAE_NW4GameAxis_t@@@Z PROC ; SIMLIB_IO_CLASS::AnalogIsReversed, COMDAT
; _this$ = ecx

; 240  : 	bool	AnalogIsReversed(GameAxis_t id) { return (analog[id].isReversed); }

	push	ebp
	mov	ebp, esp
	push	ecx
	mov	DWORD PTR _this$[ebp], ecx
	mov	eax, DWORD PTR _id$[ebp]
	imul	eax, 28					; 0000001cH
	mov	ecx, DWORD PTR _this$[ebp]
	mov	al, BYTE PTR [ecx+eax+20]
	mov	esp, ebp
	pop	ebp
	ret	4
?AnalogIsReversed@SIMLIB_IO_CLASS@@QAE_NW4GameAxis_t@@@Z ENDP ; SIMLIB_IO_CLASS::AnalogIsReversed
_TEXT	ENDS
; Function compile flags: /Odtp
; File c:\users\zhitao li\documents\visual studio 2012\projects\freefalcon\sim\include\simio.h
;	COMDAT ?AnalogIsUsed@SIMLIB_IO_CLASS@@QAE_NW4GameAxis_t@@@Z
_TEXT	SEGMENT
_this$ = -4						; size = 4
_id$ = 8						; size = 4
?AnalogIsUsed@SIMLIB_IO_CLASS@@QAE_NW4GameAxis_t@@@Z PROC ; SIMLIB_IO_CLASS::AnalogIsUsed, COMDAT
; _this$ = ecx

; 237  : 	bool	AnalogIsUsed(GameAxis_t id) { return ( analog[id].isUsed); };

	push	ebp
	mov	ebp, esp
	push	ecx
	mov	DWORD PTR _this$[ebp], ecx
	mov	eax, DWORD PTR _id$[ebp]
	imul	eax, 28					; 0000001cH
	mov	ecx, DWORD PTR _this$[ebp]
	mov	al, BYTE PTR [ecx+eax+12]
	mov	esp, ebp
	pop	ebp
	ret	4
?AnalogIsUsed@SIMLIB_IO_CLASS@@QAE_NW4GameAxis_t@@@Z ENDP ; SIMLIB_IO_CLASS::AnalogIsUsed
_TEXT	ENDS
; Function compile flags: /Odtp
; File c:\users\zhitao li\documents\visual studio 2012\projects\freefalcon\falclib\include\playerop.h
;	COMDAT ?SetAxisShaping@PlayerOptionsClass@@QAEX_N@Z
_TEXT	SEGMENT
_this$ = -4						; size = 4
_onOff$ = 8						; size = 1
?SetAxisShaping@PlayerOptionsClass@@QAEX_N@Z PROC	; PlayerOptionsClass::SetAxisShaping, COMDAT
; _this$ = ecx

; 248  : 	void SetAxisShaping(bool onOff)							{ enableAxisShaping = onOff; }		// Retro 27Jan2004

	push	ebp
	mov	ebp, esp
	push	ecx
	mov	DWORD PTR _this$[ebp], ecx
	mov	eax, DWORD PTR _this$[ebp]
	mov	cl, BYTE PTR _onOff$[ebp]
	mov	BYTE PTR [eax+225], cl
	mov	esp, ebp
	pop	ebp
	ret	4
?SetAxisShaping@PlayerOptionsClass@@QAEX_N@Z ENDP	; PlayerOptionsClass::SetAxisShaping
_TEXT	ENDS
; Function compile flags: /Odtp
; File c:\users\zhitao li\documents\visual studio 2012\projects\freefalcon\falclib\include\playerop.h
;	COMDAT ?GetAxisShaping@PlayerOptionsClass@@QAE_NXZ
_TEXT	SEGMENT
_this$ = -4						; size = 4
?GetAxisShaping@PlayerOptionsClass@@QAE_NXZ PROC	; PlayerOptionsClass::GetAxisShaping, COMDAT
; _this$ = ecx

; 247  : 	bool GetAxisShaping(void)								{ return enableAxisShaping; }		// Retro 27Jan2004

	push	ebp
	mov	ebp, esp
	push	ecx
	mov	DWORD PTR _this$[ebp], ecx
	mov	eax, DWORD PTR _this$[ebp]
	mov	al, BYTE PTR [eax+225]
	mov	esp, ebp
	pop	ebp
	ret	0
?GetAxisShaping@PlayerOptionsClass@@QAE_NXZ ENDP	; PlayerOptionsClass::GetAxisShaping
_TEXT	ENDS
; Function compile flags: /Odtp
; File c:\users\zhitao li\documents\visual studio 2012\projects\freefalcon\falclib\include\playerop.h
;	COMDAT ?SetClickablePitMode@PlayerOptionsClass@@QAEX_N@Z
_TEXT	SEGMENT
_this$ = -4						; size = 4
_onOff$ = 8						; size = 1
?SetClickablePitMode@PlayerOptionsClass@@QAEX_N@Z PROC	; PlayerOptionsClass::SetClickablePitMode, COMDAT
; _this$ = ecx

; 245  : 	void SetClickablePitMode(bool onOff)					{ clickablePitMode = onOff; }

	push	ebp
	mov	ebp, esp
	push	ecx
	mov	DWORD PTR _this$[ebp], ecx
	mov	eax, DWORD PTR _this$[ebp]
	mov	cl, BYTE PTR _onOff$[ebp]
	mov	BYTE PTR [eax+224], cl
	mov	esp, ebp
	pop	ebp
	ret	4
?SetClickablePitMode@PlayerOptionsClass@@QAEX_N@Z ENDP	; PlayerOptionsClass::SetClickablePitMode
_TEXT	ENDS
; Function compile flags: /Odtp
; File c:\users\zhitao li\documents\visual studio 2012\projects\freefalcon\falclib\include\playerop.h
;	COMDAT ?GetClickablePitMode@PlayerOptionsClass@@QAE_NXZ
_TEXT	SEGMENT
_this$ = -4						; size = 4
?GetClickablePitMode@PlayerOptionsClass@@QAE_NXZ PROC	; PlayerOptionsClass::GetClickablePitMode, COMDAT
; _this$ = ecx

; 244  : 	bool GetClickablePitMode(void)							{ return clickablePitMode; }

	push	ebp
	mov	ebp, esp
	push	ecx
	mov	DWORD PTR _this$[ebp], ecx
	mov	eax, DWORD PTR _this$[ebp]
	mov	al, BYTE PTR [eax+224]
	mov	esp, ebp
	pop	ebp
	ret	0
?GetClickablePitMode@PlayerOptionsClass@@QAE_NXZ ENDP	; PlayerOptionsClass::GetClickablePitMode
_TEXT	ENDS
; Function compile flags: /Odtp
; File c:\users\zhitao li\documents\visual studio 2012\projects\freefalcon\falclib\include\playerop.h
;	COMDAT ?GetKeyboardPOVPanningSensitivity@PlayerOptionsClass@@QAEHXZ
_TEXT	SEGMENT
_this$ = -4						; size = 4
?GetKeyboardPOVPanningSensitivity@PlayerOptionsClass@@QAEHXZ PROC ; PlayerOptionsClass::GetKeyboardPOVPanningSensitivity, COMDAT
; _this$ = ecx

; 242  : 	int GetKeyboardPOVPanningSensitivity(void)				{ return KeyboardPOVPanningSensitivity; }	// Retro 18Jan2004

	push	ebp
	mov	ebp, esp
	push	ecx
	mov	DWORD PTR _this$[ebp], ecx
	mov	eax, DWORD PTR _this$[ebp]
	mov	eax, DWORD PTR [eax+220]
	mov	esp, ebp
	pop	ebp
	ret	0
?GetKeyboardPOVPanningSensitivity@PlayerOptionsClass@@QAEHXZ ENDP ; PlayerOptionsClass::GetKeyboardPOVPanningSensitivity
_TEXT	ENDS
; Function compile flags: /Odtp
; File c:\users\zhitao li\documents\visual studio 2012\projects\freefalcon\falclib\include\playerop.h
;	COMDAT ?SetKeyboardPOVPanningSensitivity@PlayerOptionsClass@@QAEXH@Z
_TEXT	SEGMENT
_this$ = -4						; size = 4
_theVal$ = 8						; size = 4
?SetKeyboardPOVPanningSensitivity@PlayerOptionsClass@@QAEXH@Z PROC ; PlayerOptionsClass::SetKeyboardPOVPanningSensitivity, COMDAT
; _this$ = ecx

; 241  : 	void SetKeyboardPOVPanningSensitivity(int theVal)		{ KeyboardPOVPanningSensitivity = theVal; }	// Retro 18Jan2004

	push	ebp
	mov	ebp, esp
	push	ecx
	mov	DWORD PTR _this$[ebp], ecx
	mov	eax, DWORD PTR _this$[ebp]
	mov	ecx, DWORD PTR _theVal$[ebp]
	mov	DWORD PTR [eax+220], ecx
	mov	esp, ebp
	pop	ebp
	ret	4
?SetKeyboardPOVPanningSensitivity@PlayerOptionsClass@@QAEXH@Z ENDP ; PlayerOptionsClass::SetKeyboardPOVPanningSensitivity
_TEXT	ENDS
; Function compile flags: /Odtp
; File c:\users\zhitao li\documents\visual studio 2012\projects\freefalcon\falclib\include\playerop.h
;	COMDAT ?GetMouseWheelSensitivity@PlayerOptionsClass@@QAEHXZ
_TEXT	SEGMENT
_this$ = -4						; size = 4
?GetMouseWheelSensitivity@PlayerOptionsClass@@QAEHXZ PROC ; PlayerOptionsClass::GetMouseWheelSensitivity, COMDAT
; _this$ = ecx

; 239  : 	int GetMouseWheelSensitivity(void)						{ return MouseWheelSensitivity; }	// Retro 17Jan2004

	push	ebp
	mov	ebp, esp
	push	ecx
	mov	DWORD PTR _this$[ebp], ecx
	mov	eax, DWORD PTR _this$[ebp]
	mov	eax, DWORD PTR [eax+216]
	mov	esp, ebp
	pop	ebp
	ret	0
?GetMouseWheelSensitivity@PlayerOptionsClass@@QAEHXZ ENDP ; PlayerOptionsClass::GetMouseWheelSensitivity
_TEXT	ENDS
; Function compile flags: /Odtp
; File c:\users\zhitao li\documents\visual studio 2012\projects\freefalcon\falclib\include\playerop.h
;	COMDAT ?SetMouseWheelSensitivity@PlayerOptionsClass@@QAEXH@Z
_TEXT	SEGMENT
_this$ = -4						; size = 4
_theVal$ = 8						; size = 4
?SetMouseWheelSensitivity@PlayerOptionsClass@@QAEXH@Z PROC ; PlayerOptionsClass::SetMouseWheelSensitivity, COMDAT
; _this$ = ecx

; 238  : 	void SetMouseWheelSensitivity(int theVal)				{ MouseWheelSensitivity = theVal; }	// Retro 17Jan2004 - z axis

	push	ebp
	mov	ebp, esp
	push	ecx
	mov	DWORD PTR _this$[ebp], ecx
	mov	eax, DWORD PTR _this$[ebp]
	mov	ecx, DWORD PTR _theVal$[ebp]
	mov	DWORD PTR [eax+216], ecx
	mov	esp, ebp
	pop	ebp
	ret	4
?SetMouseWheelSensitivity@PlayerOptionsClass@@QAEXH@Z ENDP ; PlayerOptionsClass::SetMouseWheelSensitivity
_TEXT	ENDS
; Function compile flags: /Odtp
; File c:\users\zhitao li\documents\visual studio 2012\projects\freefalcon\falclib\include\playerop.h
;	COMDAT ?GetMouseLookSensitivity@PlayerOptionsClass@@QAEMXZ
_TEXT	SEGMENT
_this$ = -4						; size = 4
?GetMouseLookSensitivity@PlayerOptionsClass@@QAEMXZ PROC ; PlayerOptionsClass::GetMouseLookSensitivity, COMDAT
; _this$ = ecx

; 236  : 	float GetMouseLookSensitivity(void)						{ return MouseLookSensitivity; }	// Retro 15Jan2004

	push	ebp
	mov	ebp, esp
	push	ecx
	mov	DWORD PTR _this$[ebp], ecx
	mov	eax, DWORD PTR _this$[ebp]
	fld	DWORD PTR [eax+212]
	mov	esp, ebp
	pop	ebp
	ret	0
?GetMouseLookSensitivity@PlayerOptionsClass@@QAEMXZ ENDP ; PlayerOptionsClass::GetMouseLookSensitivity
_TEXT	ENDS
; Function compile flags: /Odtp
; File c:\users\zhitao li\documents\visual studio 2012\projects\freefalcon\falclib\include\playerop.h
;	COMDAT ?SetMouseLookSensitivity@PlayerOptionsClass@@QAEXM@Z
_TEXT	SEGMENT
_this$ = -4						; size = 4
_theVal$ = 8						; size = 4
?SetMouseLookSensitivity@PlayerOptionsClass@@QAEXM@Z PROC ; PlayerOptionsClass::SetMouseLookSensitivity, COMDAT
; _this$ = ecx

; 235  : 	void SetMouseLookSensitivity(float theVal)				{ MouseLookSensitivity = theVal; }	// Retro 15Jan2004 - x/y axis

	push	ebp
	mov	ebp, esp
	push	ecx
	mov	DWORD PTR _this$[ebp], ecx
	mov	eax, DWORD PTR _this$[ebp]
	movss	xmm0, DWORD PTR _theVal$[ebp]
	movss	DWORD PTR [eax+212], xmm0
	mov	esp, ebp
	pop	ebp
	ret	4
?SetMouseLookSensitivity@PlayerOptionsClass@@QAEXM@Z ENDP ; PlayerOptionsClass::SetMouseLookSensitivity
_TEXT	ENDS
; Function compile flags: /Odtp
; File c:\users\zhitao li\documents\visual studio 2012\projects\freefalcon\falclib\include\playerop.h
;	COMDAT ?SetMouseLook@PlayerOptionsClass@@QAEX_N@Z
_TEXT	SEGMENT
_this$ = -4						; size = 4
_onOff$ = 8						; size = 1
?SetMouseLook@PlayerOptionsClass@@QAEX_N@Z PROC		; PlayerOptionsClass::SetMouseLook, COMDAT
; _this$ = ecx

; 233  : 	void SetMouseLook(bool onOff)							{ enableMouseLook = onOff; }// Retro 28Dec2003

	push	ebp
	mov	ebp, esp
	push	ecx
	mov	DWORD PTR _this$[ebp], ecx
	mov	eax, DWORD PTR _this$[ebp]
	mov	cl, BYTE PTR _onOff$[ebp]
	mov	BYTE PTR [eax+208], cl
	mov	esp, ebp
	pop	ebp
	ret	4
?SetMouseLook@PlayerOptionsClass@@QAEX_N@Z ENDP		; PlayerOptionsClass::SetMouseLook
_TEXT	ENDS
; Function compile flags: /Odtp
; File c:\users\zhitao li\documents\visual studio 2012\projects\freefalcon\falclib\include\playerop.h
;	COMDAT ?SetTouchBuddy@PlayerOptionsClass@@QAEX_N@Z
_TEXT	SEGMENT
_this$ = -4						; size = 4
_onOff$ = 8						; size = 1
?SetTouchBuddy@PlayerOptionsClass@@QAEX_N@Z PROC	; PlayerOptionsClass::SetTouchBuddy, COMDAT
; _this$ = ecx

; 231  : 	void SetTouchBuddy(bool onOff)                          { enableTouchBuddy = onOff; } //sfr: touch buddy support

	push	ebp
	mov	ebp, esp
	push	ecx
	mov	DWORD PTR _this$[ebp], ecx
	mov	eax, DWORD PTR _this$[ebp]
	mov	cl, BYTE PTR _onOff$[ebp]
	mov	BYTE PTR [eax+236], cl
	mov	esp, ebp
	pop	ebp
	ret	4
?SetTouchBuddy@PlayerOptionsClass@@QAEX_N@Z ENDP	; PlayerOptionsClass::SetTouchBuddy
_TEXT	ENDS
; Function compile flags: /Odtp
; File c:\users\zhitao li\documents\visual studio 2012\projects\freefalcon\falclib\include\playerop.h
;	COMDAT ?SetFFB@PlayerOptionsClass@@QAEX_N@Z
_TEXT	SEGMENT
_this$ = -4						; size = 4
_onOff$ = 8						; size = 1
?SetFFB@PlayerOptionsClass@@QAEX_N@Z PROC		; PlayerOptionsClass::SetFFB, COMDAT
; _this$ = ecx

; 230  : 	void SetFFB(bool onOff)									{ enableFFB = onOff; }		// Retro 27Dec2003

	push	ebp
	mov	ebp, esp
	push	ecx
	mov	DWORD PTR _this$[ebp], ecx
	mov	eax, DWORD PTR _this$[ebp]
	mov	cl, BYTE PTR _onOff$[ebp]
	mov	BYTE PTR [eax+207], cl
	mov	esp, ebp
	pop	ebp
	ret	4
?SetFFB@PlayerOptionsClass@@QAEX_N@Z ENDP		; PlayerOptionsClass::SetFFB
_TEXT	ENDS
; Function compile flags: /Odtp
; File c:\users\zhitao li\documents\visual studio 2012\projects\freefalcon\falclib\include\playerop.h
;	COMDAT ?SetTrackIR3d@PlayerOptionsClass@@QAEX_N@Z
_TEXT	SEGMENT
_this$ = -4						; size = 4
_onOff$ = 8						; size = 1
?SetTrackIR3d@PlayerOptionsClass@@QAEX_N@Z PROC		; PlayerOptionsClass::SetTrackIR3d, COMDAT
; _this$ = ecx

; 229  : 	void SetTrackIR3d(bool onOff)							{ TrackIR_3d = onOff; }		// Retro 27Dec2003

	push	ebp
	mov	ebp, esp
	push	ecx
	mov	DWORD PTR _this$[ebp], ecx
	mov	eax, DWORD PTR _this$[ebp]
	mov	cl, BYTE PTR _onOff$[ebp]
	mov	BYTE PTR [eax+206], cl
	mov	esp, ebp
	pop	ebp
	ret	4
?SetTrackIR3d@PlayerOptionsClass@@QAEX_N@Z ENDP		; PlayerOptionsClass::SetTrackIR3d
_TEXT	ENDS
; Function compile flags: /Odtp
; File c:\users\zhitao li\documents\visual studio 2012\projects\freefalcon\falclib\include\playerop.h
;	COMDAT ?SetTrackIR2d@PlayerOptionsClass@@QAEX_N@Z
_TEXT	SEGMENT
_this$ = -4						; size = 4
_onOff$ = 8						; size = 1
?SetTrackIR2d@PlayerOptionsClass@@QAEX_N@Z PROC		; PlayerOptionsClass::SetTrackIR2d, COMDAT
; _this$ = ecx

; 228  : 	void SetTrackIR2d(bool onOff)							{ TrackIR_2d = onOff; }		// Retro 27Dec2003

	push	ebp
	mov	ebp, esp
	push	ecx
	mov	DWORD PTR _this$[ebp], ecx
	mov	eax, DWORD PTR _this$[ebp]
	mov	cl, BYTE PTR _onOff$[ebp]
	mov	BYTE PTR [eax+205], cl
	mov	esp, ebp
	pop	ebp
	ret	4
?SetTrackIR2d@PlayerOptionsClass@@QAEX_N@Z ENDP		; PlayerOptionsClass::SetTrackIR2d
_TEXT	ENDS
; Function compile flags: /Odtp
; File c:\users\zhitao li\documents\visual studio 2012\projects\freefalcon\falclib\include\playerop.h
;	COMDAT ?GetKeyfile@PlayerOptionsClass@@QAEPADXZ
_TEXT	SEGMENT
_this$ = -4						; size = 4
?GetKeyfile@PlayerOptionsClass@@QAEPADXZ PROC		; PlayerOptionsClass::GetKeyfile, COMDAT
; _this$ = ecx

; 213  : 	_TCHAR *GetKeyfile(void)								{return keyfile;}

	push	ebp
	mov	ebp, esp
	push	ecx
	mov	DWORD PTR _this$[ebp], ecx
	mov	eax, DWORD PTR _this$[ebp]
	add	eax, 164				; 000000a4H
	mov	esp, ebp
	pop	ebp
	ret	0
?GetKeyfile@PlayerOptionsClass@@QAEPADXZ ENDP		; PlayerOptionsClass::GetKeyfile
_TEXT	ENDS
; Function compile flags: /Odtp
; File c:\users\zhitao li\documents\visual studio 2012\projects\freefalcon\falclib\include\playerop.h
;	COMDAT ?GetTouchBuddy@PlayerOptionsClass@@QBE_NXZ
_TEXT	SEGMENT
_this$ = -4						; size = 4
?GetTouchBuddy@PlayerOptionsClass@@QBE_NXZ PROC		; PlayerOptionsClass::GetTouchBuddy, COMDAT
; _this$ = ecx

; 183  : 	bool GetTouchBuddy(void) const                          { return enableTouchBuddy; }    // sfr: touch buddy support

	push	ebp
	mov	ebp, esp
	push	ecx
	mov	DWORD PTR _this$[ebp], ecx
	mov	eax, DWORD PTR _this$[ebp]
	mov	al, BYTE PTR [eax+236]
	mov	esp, ebp
	pop	ebp
	ret	0
?GetTouchBuddy@PlayerOptionsClass@@QBE_NXZ ENDP		; PlayerOptionsClass::GetTouchBuddy
_TEXT	ENDS
; Function compile flags: /Odtp
; File c:\users\zhitao li\documents\visual studio 2012\projects\freefalcon\falclib\include\playerop.h
;	COMDAT ?GetMouseLook@PlayerOptionsClass@@QBE_NXZ
_TEXT	SEGMENT
_this$ = -4						; size = 4
?GetMouseLook@PlayerOptionsClass@@QBE_NXZ PROC		; PlayerOptionsClass::GetMouseLook, COMDAT
; _this$ = ecx

; 182  : 	bool GetMouseLook(void) const                           { return enableMouseLook; }		// Retro 28Dec2003

	push	ebp
	mov	ebp, esp
	push	ecx
	mov	DWORD PTR _this$[ebp], ecx
	mov	eax, DWORD PTR _this$[ebp]
	mov	al, BYTE PTR [eax+208]
	mov	esp, ebp
	pop	ebp
	ret	0
?GetMouseLook@PlayerOptionsClass@@QBE_NXZ ENDP		; PlayerOptionsClass::GetMouseLook
_TEXT	ENDS
; Function compile flags: /Odtp
; File c:\users\zhitao li\documents\visual studio 2012\projects\freefalcon\falclib\include\playerop.h
;	COMDAT ?GetFFB@PlayerOptionsClass@@QBE_NXZ
_TEXT	SEGMENT
_this$ = -4						; size = 4
?GetFFB@PlayerOptionsClass@@QBE_NXZ PROC		; PlayerOptionsClass::GetFFB, COMDAT
; _this$ = ecx

; 181  : 	bool GetFFB(void) const 								{ return enableFFB; }			// Retro 27Dec2003

	push	ebp
	mov	ebp, esp
	push	ecx
	mov	DWORD PTR _this$[ebp], ecx
	mov	eax, DWORD PTR _this$[ebp]
	mov	al, BYTE PTR [eax+207]
	mov	esp, ebp
	pop	ebp
	ret	0
?GetFFB@PlayerOptionsClass@@QBE_NXZ ENDP		; PlayerOptionsClass::GetFFB
_TEXT	ENDS
; Function compile flags: /Odtp
; File c:\users\zhitao li\documents\visual studio 2012\projects\freefalcon\falclib\include\playerop.h
;	COMDAT ?Get3dTrackIR@PlayerOptionsClass@@QBE_NXZ
_TEXT	SEGMENT
_this$ = -4						; size = 4
?Get3dTrackIR@PlayerOptionsClass@@QBE_NXZ PROC		; PlayerOptionsClass::Get3dTrackIR, COMDAT
; _this$ = ecx

; 180  : 	bool Get3dTrackIR(void) const                           { return TrackIR_3d; }			// Retro 27Dec2003

	push	ebp
	mov	ebp, esp
	push	ecx
	mov	DWORD PTR _this$[ebp], ecx
	mov	eax, DWORD PTR _this$[ebp]
	mov	al, BYTE PTR [eax+206]
	mov	esp, ebp
	pop	ebp
	ret	0
?Get3dTrackIR@PlayerOptionsClass@@QBE_NXZ ENDP		; PlayerOptionsClass::Get3dTrackIR
_TEXT	ENDS
; Function compile flags: /Odtp
; File c:\users\zhitao li\documents\visual studio 2012\projects\freefalcon\falclib\include\playerop.h
;	COMDAT ?Get2dTrackIR@PlayerOptionsClass@@QBE_NXZ
_TEXT	SEGMENT
_this$ = -4						; size = 4
?Get2dTrackIR@PlayerOptionsClass@@QBE_NXZ PROC		; PlayerOptionsClass::Get2dTrackIR, COMDAT
; _this$ = ecx

; 179  : 	bool Get2dTrackIR(void) const 							{ return TrackIR_2d; }			// Retro 27Dec2003

	push	ebp
	mov	ebp, esp
	push	ecx
	mov	DWORD PTR _this$[ebp], ecx
	mov	eax, DWORD PTR _this$[ebp]
	mov	al, BYTE PTR [eax+205]
	mov	esp, ebp
	pop	ebp
	ret	0
?Get2dTrackIR@PlayerOptionsClass@@QBE_NXZ ENDP		; PlayerOptionsClass::Get2dTrackIR
_TEXT	ENDS
; Function compile flags: /Odtp
; File c:\users\zhitao li\documents\visual studio 2012\projects\freefalcon\ui95\cwindow.h
;	COMDAT ?GetClientArea@C_Window@@QAE?AUUI95_RECT@@J@Z
_TEXT	SEGMENT
_this$ = -4						; size = 4
___$ReturnUdt$ = 8					; size = 4
_ID$ = 12						; size = 4
?GetClientArea@C_Window@@QAE?AUUI95_RECT@@J@Z PROC	; C_Window::GetClientArea, COMDAT
; _this$ = ecx

; 319  : 		UI95_RECT GetClientArea(long ID) { if(ID < WIN_MAX_CLIENTS) return ClientArea_[ID]; return(ClientArea_[0]); }

	push	ebp
	mov	ebp, esp
	push	ecx
	mov	DWORD PTR _this$[ebp], ecx
	cmp	DWORD PTR _ID$[ebp], 8
	jge	SHORT $LN1@GetClientA
	mov	eax, DWORD PTR _ID$[ebp]
	shl	eax, 4
	mov	ecx, DWORD PTR _this$[ebp]
	lea	edx, DWORD PTR [ecx+eax+168]
	mov	eax, DWORD PTR ___$ReturnUdt$[ebp]
	mov	ecx, DWORD PTR [edx]
	mov	DWORD PTR [eax], ecx
	mov	ecx, DWORD PTR [edx+4]
	mov	DWORD PTR [eax+4], ecx
	mov	ecx, DWORD PTR [edx+8]
	mov	DWORD PTR [eax+8], ecx
	mov	edx, DWORD PTR [edx+12]
	mov	DWORD PTR [eax+12], edx
	mov	eax, DWORD PTR ___$ReturnUdt$[ebp]
	jmp	SHORT $LN2@GetClientA
$LN1@GetClientA:
	mov	eax, 16					; 00000010H
	imul	eax, 0
	mov	ecx, DWORD PTR _this$[ebp]
	lea	edx, DWORD PTR [ecx+eax+168]
	mov	eax, DWORD PTR ___$ReturnUdt$[ebp]
	mov	ecx, DWORD PTR [edx]
	mov	DWORD PTR [eax], ecx
	mov	ecx, DWORD PTR [edx+4]
	mov	DWORD PTR [eax+4], ecx
	mov	ecx, DWORD PTR [edx+8]
	mov	DWORD PTR [eax+8], ecx
	mov	edx, DWORD PTR [edx+12]
	mov	DWORD PTR [eax+12], edx
	mov	eax, DWORD PTR ___$ReturnUdt$[ebp]
$LN2@GetClientA:
	mov	esp, ebp
	pop	ebp
	ret	8
?GetClientArea@C_Window@@QAE?AUUI95_RECT@@J@Z ENDP	; C_Window::GetClientArea
_TEXT	ENDS
; Function compile flags: /Odtp
; File c:\users\zhitao li\documents\visual studio 2012\projects\freefalcon\ui95\cwindow.h
;	COMDAT ?SetVirtualY@C_Window@@QAEXJJ@Z
_TEXT	SEGMENT
_this$ = -4						; size = 4
_y$ = 8							; size = 4
_Client$ = 12						; size = 4
?SetVirtualY@C_Window@@QAEXJJ@Z PROC			; C_Window::SetVirtualY, COMDAT
; _this$ = ecx

; 255  : 		void SetVirtualY(long y,long Client) { if(Client >= WIN_MAX_CLIENTS) return; VY_[Client]=-y;}

	push	ebp
	mov	ebp, esp
	push	ecx
	mov	DWORD PTR _this$[ebp], ecx
	cmp	DWORD PTR _Client$[ebp], 8
	jl	SHORT $LN1@SetVirtual
	jmp	SHORT $LN2@SetVirtual
$LN1@SetVirtual:
	mov	eax, DWORD PTR _y$[ebp]
	neg	eax
	mov	ecx, DWORD PTR _Client$[ebp]
	mov	edx, DWORD PTR _this$[ebp]
	mov	DWORD PTR [edx+ecx*4+512], eax
$LN2@SetVirtual:
	mov	esp, ebp
	pop	ebp
	ret	8
?SetVirtualY@C_Window@@QAEXJJ@Z ENDP			; C_Window::SetVirtualY
_TEXT	ENDS
; Function compile flags: /Odtp
; File c:\users\zhitao li\documents\visual studio 2012\projects\freefalcon\ui95\cslider.h
;	COMDAT ?GetSliderPos@C_Slider@@QAEJXZ
_TEXT	SEGMENT
_this$ = -4						; size = 4
?GetSliderPos@C_Slider@@QAEJXZ PROC			; C_Slider::GetSliderPos, COMDAT
; _this$ = ecx

; 56   : 		long GetSliderPos() { if(GetType() == C_TYPE_VERTICAL) return(SY_); return(SX_); }

	push	ebp
	mov	ebp, esp
	push	ecx
	mov	DWORD PTR _this$[ebp], ecx
	mov	ecx, DWORD PTR _this$[ebp]
	call	?GetType@C_Base@@QAEFXZ			; C_Base::GetType
	cwde
	cmp	eax, 62					; 0000003eH
	jne	SHORT $LN1@GetSliderP
	mov	ecx, DWORD PTR _this$[ebp]
	mov	eax, DWORD PTR [ecx+116]
	jmp	SHORT $LN2@GetSliderP
$LN1@GetSliderP:
	mov	edx, DWORD PTR _this$[ebp]
	mov	eax, DWORD PTR [edx+112]
$LN2@GetSliderP:
	mov	esp, ebp
	pop	ebp
	ret	0
?GetSliderPos@C_Slider@@QAEJXZ ENDP			; C_Slider::GetSliderPos
_TEXT	ENDS
; Function compile flags: /Odtp
; File c:\users\zhitao li\documents\visual studio 2012\projects\freefalcon\ui95\cslider.h
;	COMDAT ?GetSliderMin@C_Slider@@QAEJXZ
_TEXT	SEGMENT
_this$ = -4						; size = 4
?GetSliderMin@C_Slider@@QAEJXZ PROC			; C_Slider::GetSliderMin, COMDAT
; _this$ = ecx

; 55   : 		long GetSliderMin() { return(MinPos_); }

	push	ebp
	mov	ebp, esp
	push	ecx
	mov	DWORD PTR _this$[ebp], ecx
	mov	eax, DWORD PTR _this$[ebp]
	mov	eax, DWORD PTR [eax+120]
	mov	esp, ebp
	pop	ebp
	ret	0
?GetSliderMin@C_Slider@@QAEJXZ ENDP			; C_Slider::GetSliderMin
_TEXT	ENDS
; Function compile flags: /Odtp
; File c:\users\zhitao li\documents\visual studio 2012\projects\freefalcon\ui95\cslider.h
;	COMDAT ?GetSliderMax@C_Slider@@QAEJXZ
_TEXT	SEGMENT
_this$ = -4						; size = 4
?GetSliderMax@C_Slider@@QAEJXZ PROC			; C_Slider::GetSliderMax, COMDAT
; _this$ = ecx

; 54   : 		long GetSliderMax() { return(MaxPos_); }

	push	ebp
	mov	ebp, esp
	push	ecx
	mov	DWORD PTR _this$[ebp], ecx
	mov	eax, DWORD PTR _this$[ebp]
	mov	eax, DWORD PTR [eax+124]
	mov	esp, ebp
	pop	ebp
	ret	0
?GetSliderMax@C_Slider@@QAEJXZ ENDP			; C_Slider::GetSliderMax
_TEXT	ENDS
; Function compile flags: /Odtp
; File c:\users\zhitao li\documents\visual studio 2012\projects\freefalcon\ui95\ctext.h
;	COMDAT ?GetBGColor@C_Text@@QAEKXZ
_TEXT	SEGMENT
_this$ = -4						; size = 4
?GetBGColor@C_Text@@QAEKXZ PROC				; C_Text::GetBGColor, COMDAT
; _this$ = ecx

; 49   : 		COLORREF GetBGColor() { if(Text_) return(Text_->GetBgColor()); return(0); }

	push	ebp
	mov	ebp, esp
	push	ecx
	mov	DWORD PTR _this$[ebp], ecx
	mov	eax, DWORD PTR _this$[ebp]
	cmp	DWORD PTR [eax+64], 0
	je	SHORT $LN1@GetBGColor
	mov	ecx, DWORD PTR _this$[ebp]
	mov	ecx, DWORD PTR [ecx+64]
	call	?GetBgColor@O_Output@@QAEKXZ		; O_Output::GetBgColor
	jmp	SHORT $LN2@GetBGColor
$LN1@GetBGColor:
	xor	eax, eax
$LN2@GetBGColor:
	mov	esp, ebp
	pop	ebp
	ret	0
?GetBGColor@C_Text@@QAEKXZ ENDP				; C_Text::GetBGColor
_TEXT	ENDS
; Function compile flags: /Odtp
; File c:\users\zhitao li\documents\visual studio 2012\projects\freefalcon\ui95\ctext.h
;	COMDAT ?GetFGColor@C_Text@@QAEKXZ
_TEXT	SEGMENT
_this$ = -4						; size = 4
?GetFGColor@C_Text@@QAEKXZ PROC				; C_Text::GetFGColor, COMDAT
; _this$ = ecx

; 48   : 		COLORREF GetFGColor() { if(Text_) return(Text_->GetFgColor()); return(0); }

	push	ebp
	mov	ebp, esp
	push	ecx
	mov	DWORD PTR _this$[ebp], ecx
	mov	eax, DWORD PTR _this$[ebp]
	cmp	DWORD PTR [eax+64], 0
	je	SHORT $LN1@GetFGColor
	mov	ecx, DWORD PTR _this$[ebp]
	mov	ecx, DWORD PTR [ecx+64]
	call	?GetFgColor@O_Output@@QAEKXZ		; O_Output::GetFgColor
	jmp	SHORT $LN2@GetFGColor
$LN1@GetFGColor:
	xor	eax, eax
$LN2@GetFGColor:
	mov	esp, ebp
	pop	ebp
	ret	0
?GetFGColor@C_Text@@QAEKXZ ENDP				; C_Text::GetFGColor
_TEXT	ENDS
; Function compile flags: /Odtp
; File c:\users\zhitao li\documents\visual studio 2012\projects\freefalcon\ui95\ctext.h
;	COMDAT ?GetText@C_Text@@QAEPADXZ
_TEXT	SEGMENT
_this$ = -4						; size = 4
?GetText@C_Text@@QAEPADXZ PROC				; C_Text::GetText, COMDAT
; _this$ = ecx

; 47   : 		_TCHAR *GetText() { if(Text_) return(Text_->GetText()); return(NULL); }

	push	ebp
	mov	ebp, esp
	push	ecx
	mov	DWORD PTR _this$[ebp], ecx
	mov	eax, DWORD PTR _this$[ebp]
	cmp	DWORD PTR [eax+64], 0
	je	SHORT $LN1@GetText
	mov	ecx, DWORD PTR _this$[ebp]
	mov	ecx, DWORD PTR [ecx+64]
	call	?GetText@O_Output@@QAEPADXZ		; O_Output::GetText
	jmp	SHORT $LN2@GetText
$LN1@GetText:
	xor	eax, eax
$LN2@GetText:
	mov	esp, ebp
	pop	ebp
	ret	0
?GetText@C_Text@@QAEPADXZ ENDP				; C_Text::GetText
_TEXT	ENDS
; Function compile flags: /Odtp
; File c:\users\zhitao li\documents\visual studio 2012\projects\freefalcon\ui95\clistbox.h
;	COMDAT ?GetTextID@C_ListBox@@QAEJXZ
_TEXT	SEGMENT
_this$ = -4						; size = 4
?GetTextID@C_ListBox@@QAEJXZ PROC			; C_ListBox::GetTextID, COMDAT
; _this$ = ecx

; 109  : 		long GetTextID() { return(LabelVal_); }

	push	ebp
	mov	ebp, esp
	push	ecx
	mov	DWORD PTR _this$[ebp], ecx
	mov	eax, DWORD PTR _this$[ebp]
	mov	eax, DWORD PTR [eax+104]
	mov	esp, ebp
	pop	ebp
	ret	0
?GetTextID@C_ListBox@@QAEJXZ ENDP			; C_ListBox::GetTextID
_TEXT	ENDS
; Function compile flags: /Odtp
; File c:\users\zhitao li\documents\visual studio 2012\projects\freefalcon\ui95\cbuttons.h
;	COMDAT ?SetHotSpot@C_Button@@QAEXJJJJ@Z
_TEXT	SEGMENT
_this$ = -4						; size = 4
_x$ = 8							; size = 4
_y$ = 12						; size = 4
_x2$ = 16						; size = 4
_y2$ = 20						; size = 4
?SetHotSpot@C_Button@@QAEXJJJJ@Z PROC			; C_Button::SetHotSpot, COMDAT
; _this$ = ecx

; 64   : 		void SetHotSpot(long x,long y,long x2,long y2) { HotSpot_.left=x;HotSpot_.top=y;HotSpot_.right=x2;HotSpot_.bottom=y2; if(x == -1 && x2 == -1) UseHotSpot_=0; else UseHotSpot_=1; }

	push	ebp
	mov	ebp, esp
	push	ecx
	mov	DWORD PTR _this$[ebp], ecx
	mov	eax, DWORD PTR _this$[ebp]
	mov	ecx, DWORD PTR _x$[ebp]
	mov	DWORD PTR [eax+128], ecx
	mov	edx, DWORD PTR _this$[ebp]
	mov	eax, DWORD PTR _y$[ebp]
	mov	DWORD PTR [edx+132], eax
	mov	ecx, DWORD PTR _this$[ebp]
	mov	edx, DWORD PTR _x2$[ebp]
	mov	DWORD PTR [ecx+136], edx
	mov	eax, DWORD PTR _this$[ebp]
	mov	ecx, DWORD PTR _y2$[ebp]
	mov	DWORD PTR [eax+140], ecx
	cmp	DWORD PTR _x$[ebp], -1
	jne	SHORT $LN2@SetHotSpot
	cmp	DWORD PTR _x2$[ebp], -1
	jne	SHORT $LN2@SetHotSpot
	xor	edx, edx
	mov	eax, DWORD PTR _this$[ebp]
	mov	WORD PTR [eax+156], dx
	jmp	SHORT $LN3@SetHotSpot
$LN2@SetHotSpot:
	mov	ecx, 1
	mov	edx, DWORD PTR _this$[ebp]
	mov	WORD PTR [edx+156], cx
$LN3@SetHotSpot:
	mov	esp, ebp
	pop	ebp
	ret	16					; 00000010H
?SetHotSpot@C_Button@@QAEXJJJJ@Z ENDP			; C_Button::SetHotSpot
_TEXT	ENDS
; Function compile flags: /Odtp
; File c:\users\zhitao li\documents\visual studio 2012\projects\freefalcon\ui95\cbase.h
;	COMDAT ?GetH@C_Base@@QAEJXZ
_TEXT	SEGMENT
_this$ = -4						; size = 4
?GetH@C_Base@@QAEJXZ PROC				; C_Base::GetH, COMDAT
; _this$ = ecx

; 144  : 		long GetH()					{ return(h_); }

	push	ebp
	mov	ebp, esp
	push	ecx
	mov	DWORD PTR _this$[ebp], ecx
	mov	eax, DWORD PTR _this$[ebp]
	mov	eax, DWORD PTR [eax+36]
	mov	esp, ebp
	pop	ebp
	ret	0
?GetH@C_Base@@QAEJXZ ENDP				; C_Base::GetH
_TEXT	ENDS
; Function compile flags: /Odtp
; File c:\users\zhitao li\documents\visual studio 2012\projects\freefalcon\ui95\cbase.h
;	COMDAT ?GetW@C_Base@@QAEJXZ
_TEXT	SEGMENT
_this$ = -4						; size = 4
?GetW@C_Base@@QAEJXZ PROC				; C_Base::GetW, COMDAT
; _this$ = ecx

; 143  : 		long GetW()					{ return(w_); }

	push	ebp
	mov	ebp, esp
	push	ecx
	mov	DWORD PTR _this$[ebp], ecx
	mov	eax, DWORD PTR _this$[ebp]
	mov	eax, DWORD PTR [eax+32]
	mov	esp, ebp
	pop	ebp
	ret	0
?GetW@C_Base@@QAEJXZ ENDP				; C_Base::GetW
_TEXT	ENDS
; Function compile flags: /Odtp
; File c:\users\zhitao li\documents\visual studio 2012\projects\freefalcon\ui95\cbase.h
;	COMDAT ?GetY@C_Base@@QAEJXZ
_TEXT	SEGMENT
_this$ = -4						; size = 4
?GetY@C_Base@@QAEJXZ PROC				; C_Base::GetY, COMDAT
; _this$ = ecx

; 142  : 		long GetY()					{ return(y_); }

	push	ebp
	mov	ebp, esp
	push	ecx
	mov	DWORD PTR _this$[ebp], ecx
	mov	eax, DWORD PTR _this$[ebp]
	mov	eax, DWORD PTR [eax+28]
	mov	esp, ebp
	pop	ebp
	ret	0
?GetY@C_Base@@QAEJXZ ENDP				; C_Base::GetY
_TEXT	ENDS
; Function compile flags: /Odtp
; File c:\users\zhitao li\documents\visual studio 2012\projects\freefalcon\ui95\cbase.h
;	COMDAT ?GetX@C_Base@@QAEJXZ
_TEXT	SEGMENT
_this$ = -4						; size = 4
?GetX@C_Base@@QAEJXZ PROC				; C_Base::GetX, COMDAT
; _this$ = ecx

; 141  : 		long GetX()					{ return(x_); }

	push	ebp
	mov	ebp, esp
	push	ecx
	mov	DWORD PTR _this$[ebp], ecx
	mov	eax, DWORD PTR _this$[ebp]
	mov	eax, DWORD PTR [eax+24]
	mov	esp, ebp
	pop	ebp
	ret	0
?GetX@C_Base@@QAEJXZ ENDP				; C_Base::GetX
_TEXT	ENDS
; Function compile flags: /Odtp
; File c:\users\zhitao li\documents\visual studio 2012\projects\freefalcon\ui95\cbase.h
;	COMDAT ?GetClient@C_Base@@QAEFXZ
_TEXT	SEGMENT
_this$ = -4						; size = 4
?GetClient@C_Base@@QAEFXZ PROC				; C_Base::GetClient, COMDAT
; _this$ = ecx

; 140  : 		short GetClient()			{ return(Client_); }

	push	ebp
	mov	ebp, esp
	push	ecx
	mov	DWORD PTR _this$[ebp], ecx
	mov	eax, DWORD PTR _this$[ebp]
	mov	ax, WORD PTR [eax+40]
	mov	esp, ebp
	pop	ebp
	ret	0
?GetClient@C_Base@@QAEFXZ ENDP				; C_Base::GetClient
_TEXT	ENDS
; Function compile flags: /Odtp
; File c:\users\zhitao li\documents\visual studio 2012\projects\freefalcon\ui95\cbase.h
;	COMDAT ?GetFlags@C_Base@@QAEJXZ
_TEXT	SEGMENT
_this$ = -4						; size = 4
?GetFlags@C_Base@@QAEJXZ PROC				; C_Base::GetFlags, COMDAT
; _this$ = ecx

; 139  : 		long  GetFlags()			{ return(Flags_); }

	push	ebp
	mov	ebp, esp
	push	ecx
	mov	DWORD PTR _this$[ebp], ecx
	mov	eax, DWORD PTR _this$[ebp]
	mov	eax, DWORD PTR [eax+16]
	mov	esp, ebp
	pop	ebp
	ret	0
?GetFlags@C_Base@@QAEJXZ ENDP				; C_Base::GetFlags
_TEXT	ENDS
; Function compile flags: /Odtp
; File c:\users\zhitao li\documents\visual studio 2012\projects\freefalcon\ui95\cbase.h
;	COMDAT ?GetCluster@C_Base@@QAEJXZ
_TEXT	SEGMENT
_this$ = -4						; size = 4
?GetCluster@C_Base@@QAEJXZ PROC				; C_Base::GetCluster, COMDAT
; _this$ = ecx

; 138  : 		long  GetCluster()			{ return(Section_[_CLUSTER_]); }

	push	ebp
	mov	ebp, esp
	push	ecx
	mov	DWORD PTR _this$[ebp], ecx
	mov	eax, 4
	shl	eax, 0
	mov	ecx, DWORD PTR _this$[ebp]
	mov	eax, DWORD PTR [ecx+eax+8]
	mov	esp, ebp
	pop	ebp
	ret	0
?GetCluster@C_Base@@QAEJXZ ENDP				; C_Base::GetCluster
_TEXT	ENDS
; Function compile flags: /Odtp
; File c:\users\zhitao li\documents\visual studio 2012\projects\freefalcon\ui95\cbase.h
;	COMDAT ?GetGroup@C_Base@@QAEJXZ
_TEXT	SEGMENT
_this$ = -4						; size = 4
?GetGroup@C_Base@@QAEJXZ PROC				; C_Base::GetGroup, COMDAT
; _this$ = ecx

; 137  : 		long  GetGroup()			{ return(Section_[_GROUP_]); }

	push	ebp
	mov	ebp, esp
	push	ecx
	mov	DWORD PTR _this$[ebp], ecx
	mov	eax, 4
	imul	eax, 0
	mov	ecx, DWORD PTR _this$[ebp]
	mov	eax, DWORD PTR [ecx+eax+8]
	mov	esp, ebp
	pop	ebp
	ret	0
?GetGroup@C_Base@@QAEJXZ ENDP				; C_Base::GetGroup
_TEXT	ENDS
; Function compile flags: /Odtp
; File c:\users\zhitao li\documents\visual studio 2012\projects\freefalcon\ui95\cbase.h
;	COMDAT ?GetType@C_Base@@QAEFXZ
_TEXT	SEGMENT
_this$ = -4						; size = 4
?GetType@C_Base@@QAEFXZ PROC				; C_Base::GetType, COMDAT
; _this$ = ecx

; 135  : 		short GetType()				{ return(Type_); }

	push	ebp
	mov	ebp, esp
	push	ecx
	mov	DWORD PTR _this$[ebp], ecx
	mov	eax, DWORD PTR _this$[ebp]
	mov	ax, WORD PTR [eax+22]
	mov	esp, ebp
	pop	ebp
	ret	0
?GetType@C_Base@@QAEFXZ ENDP				; C_Base::GetType
_TEXT	ENDS
; Function compile flags: /Odtp
; File c:\users\zhitao li\documents\visual studio 2012\projects\freefalcon\ui95\cbase.h
;	COMDAT ?GetID@C_Base@@QAEJXZ
_TEXT	SEGMENT
_this$ = -4						; size = 4
?GetID@C_Base@@QAEJXZ PROC				; C_Base::GetID, COMDAT
; _this$ = ecx

; 134  : 		long  GetID()				{ return(ID_); }

	push	ebp
	mov	ebp, esp
	push	ecx
	mov	DWORD PTR _this$[ebp], ecx
	mov	eax, DWORD PTR _this$[ebp]
	mov	eax, DWORD PTR [eax+4]
	mov	esp, ebp
	pop	ebp
	ret	0
?GetID@C_Base@@QAEJXZ ENDP				; C_Base::GetID
_TEXT	ENDS
; Function compile flags: /Odtp
; File c:\users\zhitao li\documents\visual studio 2012\projects\freefalcon\ui95\cbase.h
;	COMDAT ?SetClient@C_Base@@QAEXF@Z
_TEXT	SEGMENT
_this$ = -4						; size = 4
_client$ = 8						; size = 2
?SetClient@C_Base@@QAEXF@Z PROC				; C_Base::SetClient, COMDAT
; _this$ = ecx

; 98   : 		void SetClient(short client)							{ Client_=client; }

	push	ebp
	mov	ebp, esp
	push	ecx
	mov	DWORD PTR _this$[ebp], ecx
	mov	eax, DWORD PTR _this$[ebp]
	mov	cx, WORD PTR _client$[ebp]
	mov	WORD PTR [eax+40], cx
	mov	esp, ebp
	pop	ebp
	ret	4
?SetClient@C_Base@@QAEXF@Z ENDP				; C_Base::SetClient
_TEXT	ENDS
; Function compile flags: /Odtp
; File c:\users\zhitao li\documents\visual studio 2012\projects\freefalcon\ui95\cbase.h
;	COMDAT ?SetCluster@C_Base@@QAEXJ@Z
_TEXT	SEGMENT
_this$ = -4						; size = 4
_id$ = 8						; size = 4
?SetCluster@C_Base@@QAEXJ@Z PROC			; C_Base::SetCluster, COMDAT
; _this$ = ecx

; 97   : 		void SetCluster(long id)								{ Section_[_CLUSTER_]=id; }

	push	ebp
	mov	ebp, esp
	push	ecx
	mov	DWORD PTR _this$[ebp], ecx
	mov	eax, 4
	shl	eax, 0
	mov	ecx, DWORD PTR _this$[ebp]
	mov	edx, DWORD PTR _id$[ebp]
	mov	DWORD PTR [ecx+eax+8], edx
	mov	esp, ebp
	pop	ebp
	ret	4
?SetCluster@C_Base@@QAEXJ@Z ENDP			; C_Base::SetCluster
_TEXT	ENDS
; Function compile flags: /Odtp
; File c:\users\zhitao li\documents\visual studio 2012\projects\freefalcon\ui95\cbase.h
;	COMDAT ?SetGroup@C_Base@@QAEXJ@Z
_TEXT	SEGMENT
_this$ = -4						; size = 4
_id$ = 8						; size = 4
?SetGroup@C_Base@@QAEXJ@Z PROC				; C_Base::SetGroup, COMDAT
; _this$ = ecx

; 96   : 		void SetGroup(long id)									{ Section_[_GROUP_]=id; }

	push	ebp
	mov	ebp, esp
	push	ecx
	mov	DWORD PTR _this$[ebp], ecx
	mov	eax, 4
	imul	eax, 0
	mov	ecx, DWORD PTR _this$[ebp]
	mov	edx, DWORD PTR _id$[ebp]
	mov	DWORD PTR [ecx+eax+8], edx
	mov	esp, ebp
	pop	ebp
	ret	4
?SetGroup@C_Base@@QAEXJ@Z ENDP				; C_Base::SetGroup
_TEXT	ENDS
; Function compile flags: /Odtp
; File c:\users\zhitao li\documents\visual studio 2012\projects\freefalcon\ui95\ooutput.h
;	COMDAT ?GetBgColor@O_Output@@QAEKXZ
_TEXT	SEGMENT
_this$ = -4						; size = 4
?GetBgColor@O_Output@@QAEKXZ PROC			; O_Output::GetBgColor, COMDAT
; _this$ = ecx

; 156  : 		COLORREF GetBgColor()			{ return(BgColor_); }

	push	ebp
	mov	ebp, esp
	push	ecx
	mov	DWORD PTR _this$[ebp], ecx
	mov	eax, DWORD PTR _this$[ebp]
	mov	eax, DWORD PTR [eax+16]
	mov	esp, ebp
	pop	ebp
	ret	0
?GetBgColor@O_Output@@QAEKXZ ENDP			; O_Output::GetBgColor
_TEXT	ENDS
; Function compile flags: /Odtp
; File c:\users\zhitao li\documents\visual studio 2012\projects\freefalcon\ui95\ooutput.h
;	COMDAT ?GetFgColor@O_Output@@QAEKXZ
_TEXT	SEGMENT
_this$ = -4						; size = 4
?GetFgColor@O_Output@@QAEKXZ PROC			; O_Output::GetFgColor, COMDAT
; _this$ = ecx

; 155  : 		COLORREF GetFgColor()			{ return(FgColor_); }

	push	ebp
	mov	ebp, esp
	push	ecx
	mov	DWORD PTR _this$[ebp], ecx
	mov	eax, DWORD PTR _this$[ebp]
	mov	eax, DWORD PTR [eax+12]
	mov	esp, ebp
	pop	ebp
	ret	0
?GetFgColor@O_Output@@QAEKXZ ENDP			; O_Output::GetFgColor
_TEXT	ENDS
; Function compile flags: /Odtp
; File c:\users\zhitao li\documents\visual studio 2012\projects\freefalcon\ui95\ooutput.h
;	COMDAT ?GetText@O_Output@@QAEPADXZ
_TEXT	SEGMENT
_this$ = -4						; size = 4
?GetText@O_Output@@QAEPADXZ PROC			; O_Output::GetText, COMDAT
; _this$ = ecx

; 151  : 		_TCHAR *GetText()				{ return(Label_); }

	push	ebp
	mov	ebp, esp
	push	ecx
	mov	DWORD PTR _this$[ebp], ecx
	mov	eax, DWORD PTR _this$[ebp]
	mov	eax, DWORD PTR [eax+128]
	mov	esp, ebp
	pop	ebp
	ret	0
?GetText@O_Output@@QAEPADXZ ENDP			; O_Output::GetText
_TEXT	ENDS
; Function compile flags: /Odtp
;	COMDAT ??_G_System_error_category@std@@UAEPAXI@Z
_TEXT	SEGMENT
_this$ = -4						; size = 4
___flags$ = 8						; size = 4
??_G_System_error_category@std@@UAEPAXI@Z PROC		; std::_System_error_category::`scalar deleting destructor', COMDAT
; _this$ = ecx
	push	ebp
	mov	ebp, esp
	push	ecx
	mov	DWORD PTR _this$[ebp], ecx
	mov	ecx, DWORD PTR _this$[ebp]
	call	??1_System_error_category@std@@UAE@XZ
	mov	eax, DWORD PTR ___flags$[ebp]
	and	eax, 1
	je	SHORT $LN1@scalar
	mov	ecx, DWORD PTR _this$[ebp]
	push	ecx
	call	??3@YAXPAX@Z				; operator delete
	add	esp, 4
$LN1@scalar:
	mov	eax, DWORD PTR _this$[ebp]
	mov	esp, ebp
	pop	ebp
	ret	4
??_G_System_error_category@std@@UAEPAXI@Z ENDP		; std::_System_error_category::`scalar deleting destructor'
_TEXT	ENDS
; Function compile flags: /Odtp
;	COMDAT ??1_System_error_category@std@@UAE@XZ
_TEXT	SEGMENT
_this$ = -4						; size = 4
??1_System_error_category@std@@UAE@XZ PROC		; std::_System_error_category::~_System_error_category, COMDAT
; _this$ = ecx
	push	ebp
	mov	ebp, esp
	push	ecx
	mov	DWORD PTR _this$[ebp], ecx
	mov	ecx, DWORD PTR _this$[ebp]
	call	??1_Generic_error_category@std@@UAE@XZ
	mov	esp, ebp
	pop	ebp
	ret	0
??1_System_error_category@std@@UAE@XZ ENDP		; std::_System_error_category::~_System_error_category
_TEXT	ENDS
; Function compile flags: /Odtp
; File c:\program files (x86)\microsoft visual studio 11.0\vc\include\system_error
;	COMDAT ?default_error_condition@_System_error_category@std@@UBE?AVerror_condition@2@H@Z
_TEXT	SEGMENT
_this$ = -4						; size = 4
___$ReturnUdt$ = 8					; size = 4
__Errval$ = 12						; size = 4
?default_error_condition@_System_error_category@std@@UBE?AVerror_condition@2@H@Z PROC ; std::_System_error_category::default_error_condition, COMDAT
; _this$ = ecx

; 641  : 		{	// make error_condition for error code (generic if possible)

	push	ebp
	mov	ebp, esp
	push	ecx
	mov	DWORD PTR _this$[ebp], ecx

; 642  : 		if (_Syserror_map(_Errval))

	mov	eax, DWORD PTR __Errval$[ebp]
	push	eax
	call	?_Syserror_map@std@@YAPBDH@Z		; std::_Syserror_map
	add	esp, 4
	test	eax, eax
	je	SHORT $LN2@default_er

; 643  : 			return (error_condition(_Errval, generic_category()));

	call	?generic_category@std@@YAABVerror_category@1@XZ ; std::generic_category
	push	eax
	mov	ecx, DWORD PTR __Errval$[ebp]
	push	ecx
	mov	ecx, DWORD PTR ___$ReturnUdt$[ebp]
	call	??0error_condition@std@@QAE@HABVerror_category@1@@Z ; std::error_condition::error_condition
	mov	eax, DWORD PTR ___$ReturnUdt$[ebp]
	jmp	SHORT $LN3@default_er

; 644  : 		else

	jmp	SHORT $LN3@default_er
$LN2@default_er:

; 645  : 			return (error_condition(_Errval, system_category()));

	call	?system_category@std@@YAABVerror_category@1@XZ ; std::system_category
	push	eax
	mov	edx, DWORD PTR __Errval$[ebp]
	push	edx
	mov	ecx, DWORD PTR ___$ReturnUdt$[ebp]
	call	??0error_condition@std@@QAE@HABVerror_category@1@@Z ; std::error_condition::error_condition
	mov	eax, DWORD PTR ___$ReturnUdt$[ebp]
$LN3@default_er:

; 646  : 		}

	mov	esp, ebp
	pop	ebp
	ret	8
?default_error_condition@_System_error_category@std@@UBE?AVerror_condition@2@H@Z ENDP ; std::_System_error_category::default_error_condition
_TEXT	ENDS
; Function compile flags: /Odtp
; File c:\program files (x86)\microsoft visual studio 11.0\vc\include\system_error
;	COMDAT ?message@_System_error_category@std@@UBE?AV?$basic_string@DU?$char_traits@D@std@@V?$allocator@D@2@@2@H@Z
_TEXT	SEGMENT
_this$ = -16						; size = 4
$T1 = -12						; size = 4
tv69 = -8						; size = 4
__Name$ = -4						; size = 4
___$ReturnUdt$ = 8					; size = 4
__Errcode$ = 12						; size = 4
?message@_System_error_category@std@@UBE?AV?$basic_string@DU?$char_traits@D@std@@V?$allocator@D@2@@2@H@Z PROC ; std::_System_error_category::message, COMDAT
; _this$ = ecx

; 634  : 		{	// convert to name of error

	push	ebp
	mov	ebp, esp
	sub	esp, 16					; 00000010H
	mov	DWORD PTR _this$[ebp], ecx
	mov	DWORD PTR $T1[ebp], 0

; 635  : 		const char *_Name = _Winerror_map(_Errcode);

	mov	eax, DWORD PTR __Errcode$[ebp]
	push	eax
	call	?_Winerror_map@std@@YAPBDH@Z		; std::_Winerror_map
	add	esp, 4
	mov	DWORD PTR __Name$[ebp], eax

; 636  : 		return (string(_Name != 0 ? _Name : "unknown error"));

	cmp	DWORD PTR __Name$[ebp], 0
	je	SHORT $LN3@message
	mov	ecx, DWORD PTR __Name$[ebp]
	mov	DWORD PTR tv69[ebp], ecx
	jmp	SHORT $LN4@message
$LN3@message:
	mov	DWORD PTR tv69[ebp], OFFSET ??_C@_0O@BFJCFAAK@unknown?5error?$AA@
$LN4@message:
	mov	edx, DWORD PTR tv69[ebp]
	push	edx
	mov	ecx, DWORD PTR ___$ReturnUdt$[ebp]
	call	??0?$basic_string@DU?$char_traits@D@std@@V?$allocator@D@2@@std@@QAE@PBD@Z ; std::basic_string<char,std::char_traits<char>,std::allocator<char> >::basic_string<char,std::char_traits<char>,std::allocator<char> >
	mov	eax, DWORD PTR $T1[ebp]
	or	eax, 1
	mov	DWORD PTR $T1[ebp], eax
	mov	eax, DWORD PTR ___$ReturnUdt$[ebp]

; 637  : 		}

	mov	esp, ebp
	pop	ebp
	ret	8
?message@_System_error_category@std@@UBE?AV?$basic_string@DU?$char_traits@D@std@@V?$allocator@D@2@@2@H@Z ENDP ; std::_System_error_category::message
_TEXT	ENDS
; Function compile flags: /Odtp
; File c:\program files (x86)\microsoft visual studio 11.0\vc\include\system_error
;	COMDAT ?name@_System_error_category@std@@UBEPBDXZ
_TEXT	SEGMENT
_this$ = -4						; size = 4
?name@_System_error_category@std@@UBEPBDXZ PROC		; std::_System_error_category::name, COMDAT
; _this$ = ecx

; 629  : 		{	// get name of category

	push	ebp
	mov	ebp, esp
	push	ecx
	mov	DWORD PTR _this$[ebp], ecx

; 630  : 		return ("system");

	mov	eax, OFFSET ??_C@_06FHFOAHML@system?$AA@

; 631  : 		}

	mov	esp, ebp
	pop	ebp
	ret	0
?name@_System_error_category@std@@UBEPBDXZ ENDP		; std::_System_error_category::name
_TEXT	ENDS
; Function compile flags: /Odtp
; File c:\program files (x86)\microsoft visual studio 11.0\vc\include\system_error
;	COMDAT ??0_System_error_category@std@@QAE@XZ
_TEXT	SEGMENT
_this$ = -4						; size = 4
??0_System_error_category@std@@QAE@XZ PROC		; std::_System_error_category::_System_error_category, COMDAT
; _this$ = ecx

; 624  : 	_System_error_category()

	push	ebp
	mov	ebp, esp
	push	ecx
	mov	DWORD PTR _this$[ebp], ecx
	mov	ecx, DWORD PTR _this$[ebp]
	call	??0_Generic_error_category@std@@QAE@XZ	; std::_Generic_error_category::_Generic_error_category
	mov	eax, DWORD PTR _this$[ebp]
	mov	DWORD PTR [eax], OFFSET ??_7_System_error_category@std@@6B@

; 625  : 		{	// default constructor
; 626  : 		}

	mov	eax, DWORD PTR _this$[ebp]
	mov	esp, ebp
	pop	ebp
	ret	0
??0_System_error_category@std@@QAE@XZ ENDP		; std::_System_error_category::_System_error_category
_TEXT	ENDS
; Function compile flags: /Odtp
;	COMDAT ??_G_Iostream_error_category@std@@UAEPAXI@Z
_TEXT	SEGMENT
_this$ = -4						; size = 4
___flags$ = 8						; size = 4
??_G_Iostream_error_category@std@@UAEPAXI@Z PROC	; std::_Iostream_error_category::`scalar deleting destructor', COMDAT
; _this$ = ecx
	push	ebp
	mov	ebp, esp
	push	ecx
	mov	DWORD PTR _this$[ebp], ecx
	mov	ecx, DWORD PTR _this$[ebp]
	call	??1_Iostream_error_category@std@@UAE@XZ
	mov	eax, DWORD PTR ___flags$[ebp]
	and	eax, 1
	je	SHORT $LN1@scalar
	mov	ecx, DWORD PTR _this$[ebp]
	push	ecx
	call	??3@YAXPAX@Z				; operator delete
	add	esp, 4
$LN1@scalar:
	mov	eax, DWORD PTR _this$[ebp]
	mov	esp, ebp
	pop	ebp
	ret	4
??_G_Iostream_error_category@std@@UAEPAXI@Z ENDP	; std::_Iostream_error_category::`scalar deleting destructor'
_TEXT	ENDS
; Function compile flags: /Odtp
;	COMDAT ??1_Iostream_error_category@std@@UAE@XZ
_TEXT	SEGMENT
_this$ = -4						; size = 4
??1_Iostream_error_category@std@@UAE@XZ PROC		; std::_Iostream_error_category::~_Iostream_error_category, COMDAT
; _this$ = ecx
	push	ebp
	mov	ebp, esp
	push	ecx
	mov	DWORD PTR _this$[ebp], ecx
	mov	ecx, DWORD PTR _this$[ebp]
	call	??1_Generic_error_category@std@@UAE@XZ
	mov	esp, ebp
	pop	ebp
	ret	0
??1_Iostream_error_category@std@@UAE@XZ ENDP		; std::_Iostream_error_category::~_Iostream_error_category
_TEXT	ENDS
; Function compile flags: /Odtp
; File c:\program files (x86)\microsoft visual studio 11.0\vc\include\system_error
;	COMDAT ?message@_Iostream_error_category@std@@UBE?AV?$basic_string@DU?$char_traits@D@std@@V?$allocator@D@2@@2@H@Z
_TEXT	SEGMENT
_this$ = -8						; size = 4
$T1 = -4						; size = 4
___$ReturnUdt$ = 8					; size = 4
__Errcode$ = 12						; size = 4
?message@_Iostream_error_category@std@@UBE?AV?$basic_string@DU?$char_traits@D@std@@V?$allocator@D@2@@2@H@Z PROC ; std::_Iostream_error_category::message, COMDAT
; _this$ = ecx

; 611  : 		{	// convert to name of error

	push	ebp
	mov	ebp, esp
	sub	esp, 8
	mov	DWORD PTR _this$[ebp], ecx
	mov	DWORD PTR $T1[ebp], 0

; 612  : 		if (_Errcode == (int)io_errc::stream)

	cmp	DWORD PTR __Errcode$[ebp], 1
	jne	SHORT $LN2@message

; 613  : 			return ("iostream stream error");

	push	OFFSET ??_C@_0BG@PADBLCHM@iostream?5stream?5error?$AA@
	mov	ecx, DWORD PTR ___$ReturnUdt$[ebp]
	call	??0?$basic_string@DU?$char_traits@D@std@@V?$allocator@D@2@@std@@QAE@PBD@Z ; std::basic_string<char,std::char_traits<char>,std::allocator<char> >::basic_string<char,std::char_traits<char>,std::allocator<char> >
	mov	eax, DWORD PTR $T1[ebp]
	or	eax, 1
	mov	DWORD PTR $T1[ebp], eax
	mov	eax, DWORD PTR ___$ReturnUdt$[ebp]
	jmp	SHORT $LN3@message

; 614  : 		else

	jmp	SHORT $LN3@message
$LN2@message:

; 615  : 			return (_Generic_error_category::message(_Errcode));

	mov	ecx, DWORD PTR __Errcode$[ebp]
	push	ecx
	mov	edx, DWORD PTR ___$ReturnUdt$[ebp]
	push	edx
	mov	ecx, DWORD PTR _this$[ebp]
	call	?message@_Generic_error_category@std@@UBE?AV?$basic_string@DU?$char_traits@D@std@@V?$allocator@D@2@@2@H@Z ; std::_Generic_error_category::message
	mov	eax, DWORD PTR $T1[ebp]
	or	eax, 1
	mov	DWORD PTR $T1[ebp], eax
	mov	eax, DWORD PTR ___$ReturnUdt$[ebp]
$LN3@message:

; 616  : 		}

	mov	esp, ebp
	pop	ebp
	ret	8
?message@_Iostream_error_category@std@@UBE?AV?$basic_string@DU?$char_traits@D@std@@V?$allocator@D@2@@2@H@Z ENDP ; std::_Iostream_error_category::message
_TEXT	ENDS
; Function compile flags: /Odtp
; File c:\program files (x86)\microsoft visual studio 11.0\vc\include\system_error
;	COMDAT ?name@_Iostream_error_category@std@@UBEPBDXZ
_TEXT	SEGMENT
_this$ = -4						; size = 4
?name@_Iostream_error_category@std@@UBEPBDXZ PROC	; std::_Iostream_error_category::name, COMDAT
; _this$ = ecx

; 606  : 		{	// get name of category

	push	ebp
	mov	ebp, esp
	push	ecx
	mov	DWORD PTR _this$[ebp], ecx

; 607  : 		return ("iostream");

	mov	eax, OFFSET ??_C@_08LLGCOLLL@iostream?$AA@

; 608  : 		}

	mov	esp, ebp
	pop	ebp
	ret	0
?name@_Iostream_error_category@std@@UBEPBDXZ ENDP	; std::_Iostream_error_category::name
_TEXT	ENDS
; Function compile flags: /Odtp
; File c:\program files (x86)\microsoft visual studio 11.0\vc\include\system_error
;	COMDAT ??0_Iostream_error_category@std@@QAE@XZ
_TEXT	SEGMENT
_this$ = -4						; size = 4
??0_Iostream_error_category@std@@QAE@XZ PROC		; std::_Iostream_error_category::_Iostream_error_category, COMDAT
; _this$ = ecx

; 601  : 	_Iostream_error_category()

	push	ebp
	mov	ebp, esp
	push	ecx
	mov	DWORD PTR _this$[ebp], ecx
	mov	ecx, DWORD PTR _this$[ebp]
	call	??0_Generic_error_category@std@@QAE@XZ	; std::_Generic_error_category::_Generic_error_category
	mov	eax, DWORD PTR _this$[ebp]
	mov	DWORD PTR [eax], OFFSET ??_7_Iostream_error_category@std@@6B@

; 602  : 		{	// default constructor
; 603  : 		}

	mov	eax, DWORD PTR _this$[ebp]
	mov	esp, ebp
	pop	ebp
	ret	0
??0_Iostream_error_category@std@@QAE@XZ ENDP		; std::_Iostream_error_category::_Iostream_error_category
_TEXT	ENDS
; Function compile flags: /Odtp
;	COMDAT ??_G_Generic_error_category@std@@UAEPAXI@Z
_TEXT	SEGMENT
_this$ = -4						; size = 4
___flags$ = 8						; size = 4
??_G_Generic_error_category@std@@UAEPAXI@Z PROC		; std::_Generic_error_category::`scalar deleting destructor', COMDAT
; _this$ = ecx
	push	ebp
	mov	ebp, esp
	push	ecx
	mov	DWORD PTR _this$[ebp], ecx
	mov	ecx, DWORD PTR _this$[ebp]
	call	??1_Generic_error_category@std@@UAE@XZ
	mov	eax, DWORD PTR ___flags$[ebp]
	and	eax, 1
	je	SHORT $LN1@scalar
	mov	ecx, DWORD PTR _this$[ebp]
	push	ecx
	call	??3@YAXPAX@Z				; operator delete
	add	esp, 4
$LN1@scalar:
	mov	eax, DWORD PTR _this$[ebp]
	mov	esp, ebp
	pop	ebp
	ret	4
??_G_Generic_error_category@std@@UAEPAXI@Z ENDP		; std::_Generic_error_category::`scalar deleting destructor'
_TEXT	ENDS
; Function compile flags: /Odtp
;	COMDAT ??1_Generic_error_category@std@@UAE@XZ
_TEXT	SEGMENT
_this$ = -4						; size = 4
??1_Generic_error_category@std@@UAE@XZ PROC		; std::_Generic_error_category::~_Generic_error_category, COMDAT
; _this$ = ecx
	push	ebp
	mov	ebp, esp
	push	ecx
	mov	DWORD PTR _this$[ebp], ecx
	mov	ecx, DWORD PTR _this$[ebp]
	call	??1error_category@std@@UAE@XZ		; std::error_category::~error_category
	mov	esp, ebp
	pop	ebp
	ret	0
??1_Generic_error_category@std@@UAE@XZ ENDP		; std::_Generic_error_category::~_Generic_error_category
_TEXT	ENDS
; Function compile flags: /Odtp
; File c:\program files (x86)\microsoft visual studio 11.0\vc\include\system_error
;	COMDAT ?message@_Generic_error_category@std@@UBE?AV?$basic_string@DU?$char_traits@D@std@@V?$allocator@D@2@@2@H@Z
_TEXT	SEGMENT
_this$ = -16						; size = 4
$T1 = -12						; size = 4
tv69 = -8						; size = 4
__Name$ = -4						; size = 4
___$ReturnUdt$ = 8					; size = 4
__Errcode$ = 12						; size = 4
?message@_Generic_error_category@std@@UBE?AV?$basic_string@DU?$char_traits@D@std@@V?$allocator@D@2@@2@H@Z PROC ; std::_Generic_error_category::message, COMDAT
; _this$ = ecx

; 590  : 		{	// convert to name of error

	push	ebp
	mov	ebp, esp
	sub	esp, 16					; 00000010H
	mov	DWORD PTR _this$[ebp], ecx
	mov	DWORD PTR $T1[ebp], 0

; 591  : 		const char *_Name = _Syserror_map(_Errcode);

	mov	eax, DWORD PTR __Errcode$[ebp]
	push	eax
	call	?_Syserror_map@std@@YAPBDH@Z		; std::_Syserror_map
	add	esp, 4
	mov	DWORD PTR __Name$[ebp], eax

; 592  : 		return (string(_Name != 0 ? _Name : "unknown error"));

	cmp	DWORD PTR __Name$[ebp], 0
	je	SHORT $LN3@message
	mov	ecx, DWORD PTR __Name$[ebp]
	mov	DWORD PTR tv69[ebp], ecx
	jmp	SHORT $LN4@message
$LN3@message:
	mov	DWORD PTR tv69[ebp], OFFSET ??_C@_0O@BFJCFAAK@unknown?5error?$AA@
$LN4@message:
	mov	edx, DWORD PTR tv69[ebp]
	push	edx
	mov	ecx, DWORD PTR ___$ReturnUdt$[ebp]
	call	??0?$basic_string@DU?$char_traits@D@std@@V?$allocator@D@2@@std@@QAE@PBD@Z ; std::basic_string<char,std::char_traits<char>,std::allocator<char> >::basic_string<char,std::char_traits<char>,std::allocator<char> >
	mov	eax, DWORD PTR $T1[ebp]
	or	eax, 1
	mov	DWORD PTR $T1[ebp], eax
	mov	eax, DWORD PTR ___$ReturnUdt$[ebp]

; 593  : 		}

	mov	esp, ebp
	pop	ebp
	ret	8
?message@_Generic_error_category@std@@UBE?AV?$basic_string@DU?$char_traits@D@std@@V?$allocator@D@2@@2@H@Z ENDP ; std::_Generic_error_category::message
_TEXT	ENDS
; Function compile flags: /Odtp
; File c:\program files (x86)\microsoft visual studio 11.0\vc\include\system_error
;	COMDAT ?name@_Generic_error_category@std@@UBEPBDXZ
_TEXT	SEGMENT
_this$ = -4						; size = 4
?name@_Generic_error_category@std@@UBEPBDXZ PROC	; std::_Generic_error_category::name, COMDAT
; _this$ = ecx

; 585  : 		{	// get name of category

	push	ebp
	mov	ebp, esp
	push	ecx
	mov	DWORD PTR _this$[ebp], ecx

; 586  : 		return ("generic");

	mov	eax, OFFSET ??_C@_07DCLBNMLN@generic?$AA@

; 587  : 		}

	mov	esp, ebp
	pop	ebp
	ret	0
?name@_Generic_error_category@std@@UBEPBDXZ ENDP	; std::_Generic_error_category::name
_TEXT	ENDS
; Function compile flags: /Odtp
; File c:\program files (x86)\microsoft visual studio 11.0\vc\include\system_error
;	COMDAT ??0_Generic_error_category@std@@QAE@XZ
_TEXT	SEGMENT
_this$ = -4						; size = 4
??0_Generic_error_category@std@@QAE@XZ PROC		; std::_Generic_error_category::_Generic_error_category, COMDAT
; _this$ = ecx

; 580  : 	_Generic_error_category()

	push	ebp
	mov	ebp, esp
	push	ecx
	mov	DWORD PTR _this$[ebp], ecx
	mov	ecx, DWORD PTR _this$[ebp]
	call	??0error_category@std@@QAE@XZ		; std::error_category::error_category
	mov	eax, DWORD PTR _this$[ebp]
	mov	DWORD PTR [eax], OFFSET ??_7_Generic_error_category@std@@6B@

; 581  : 		{	// default constructor
; 582  : 		}

	mov	eax, DWORD PTR _this$[ebp]
	mov	esp, ebp
	pop	ebp
	ret	0
??0_Generic_error_category@std@@QAE@XZ ENDP		; std::_Generic_error_category::_Generic_error_category
_TEXT	ENDS
; Function compile flags: /Odtp
; File c:\program files (x86)\microsoft visual studio 11.0\vc\include\system_error
;	COMDAT ??8error_condition@std@@QBE_NABV01@@Z
_TEXT	SEGMENT
tv78 = -8						; size = 4
_this$ = -4						; size = 4
__Right$ = 8						; size = 4
??8error_condition@std@@QBE_NABV01@@Z PROC		; std::error_condition::operator==, COMDAT
; _this$ = ecx

; 376  : 		{	// test if *this == _Right

	push	ebp
	mov	ebp, esp
	sub	esp, 8
	push	esi
	mov	DWORD PTR _this$[ebp], ecx

; 377  : 		return (category() == _Right.category()
; 378  : 			&& value() == _Right.value());

	mov	ecx, DWORD PTR __Right$[ebp]
	call	?category@error_condition@std@@QBEABVerror_category@2@XZ ; std::error_condition::category
	push	eax
	mov	ecx, DWORD PTR _this$[ebp]
	call	?category@error_condition@std@@QBEABVerror_category@2@XZ ; std::error_condition::category
	mov	ecx, eax
	call	??8error_category@std@@QBE_NABV01@@Z	; std::error_category::operator==
	movzx	eax, al
	test	eax, eax
	je	SHORT $LN3@operator
	mov	ecx, DWORD PTR _this$[ebp]
	call	?value@error_condition@std@@QBEHXZ	; std::error_condition::value
	mov	esi, eax
	mov	ecx, DWORD PTR __Right$[ebp]
	call	?value@error_condition@std@@QBEHXZ	; std::error_condition::value
	cmp	esi, eax
	jne	SHORT $LN3@operator
	mov	DWORD PTR tv78[ebp], 1
	jmp	SHORT $LN4@operator
$LN3@operator:
	mov	DWORD PTR tv78[ebp], 0
$LN4@operator:
	mov	al, BYTE PTR tv78[ebp]

; 379  : 		}

	pop	esi
	mov	esp, ebp
	pop	ebp
	ret	4
??8error_condition@std@@QBE_NABV01@@Z ENDP		; std::error_condition::operator==
_TEXT	ENDS
; Function compile flags: /Odtp
; File c:\program files (x86)\microsoft visual studio 11.0\vc\include\system_error
;	COMDAT ?category@error_condition@std@@QBEABVerror_category@2@XZ
_TEXT	SEGMENT
_this$ = -4						; size = 4
?category@error_condition@std@@QBEABVerror_category@2@XZ PROC ; std::error_condition::category, COMDAT
; _this$ = ecx

; 354  : 		{	// get category

	push	ebp
	mov	ebp, esp
	push	ecx
	mov	DWORD PTR _this$[ebp], ecx

; 355  : 		return (*_Mycat);

	mov	eax, DWORD PTR _this$[ebp]
	mov	eax, DWORD PTR [eax+4]

; 356  : 		}

	mov	esp, ebp
	pop	ebp
	ret	0
?category@error_condition@std@@QBEABVerror_category@2@XZ ENDP ; std::error_condition::category
_TEXT	ENDS
; Function compile flags: /Odtp
; File c:\program files (x86)\microsoft visual studio 11.0\vc\include\system_error
;	COMDAT ?value@error_condition@std@@QBEHXZ
_TEXT	SEGMENT
_this$ = -4						; size = 4
?value@error_condition@std@@QBEHXZ PROC			; std::error_condition::value, COMDAT
; _this$ = ecx

; 349  : 		{	// get error code

	push	ebp
	mov	ebp, esp
	push	ecx
	mov	DWORD PTR _this$[ebp], ecx

; 350  : 		return (_Myval);

	mov	eax, DWORD PTR _this$[ebp]
	mov	eax, DWORD PTR [eax]

; 351  : 		}

	mov	esp, ebp
	pop	ebp
	ret	0
?value@error_condition@std@@QBEHXZ ENDP			; std::error_condition::value
_TEXT	ENDS
; Function compile flags: /Odtp
; File c:\program files (x86)\microsoft visual studio 11.0\vc\include\system_error
;	COMDAT ??0error_condition@std@@QAE@HABVerror_category@1@@Z
_TEXT	SEGMENT
_this$ = -4						; size = 4
__Val$ = 8						; size = 4
__Cat$ = 12						; size = 4
??0error_condition@std@@QAE@HABVerror_category@1@@Z PROC ; std::error_condition::error_condition, COMDAT
; _this$ = ecx

; 316  : 		{	// construct from error code and category

	push	ebp
	mov	ebp, esp
	push	ecx
	mov	DWORD PTR _this$[ebp], ecx
	mov	eax, DWORD PTR _this$[ebp]
	mov	ecx, DWORD PTR __Val$[ebp]
	mov	DWORD PTR [eax], ecx
	mov	edx, DWORD PTR _this$[ebp]
	mov	eax, DWORD PTR __Cat$[ebp]
	mov	DWORD PTR [edx+4], eax

; 317  : 		}

	mov	eax, DWORD PTR _this$[ebp]
	mov	esp, ebp
	pop	ebp
	ret	8
??0error_condition@std@@QAE@HABVerror_category@1@@Z ENDP ; std::error_condition::error_condition
_TEXT	ENDS
; Function compile flags: /Odtp
; File c:\program files (x86)\microsoft visual studio 11.0\vc\include\system_error
;	COMDAT ?category@error_code@std@@QBEABVerror_category@2@XZ
_TEXT	SEGMENT
_this$ = -4						; size = 4
?category@error_code@std@@QBEABVerror_category@2@XZ PROC ; std::error_code::category, COMDAT
; _this$ = ecx

; 256  : 		{	// get category

	push	ebp
	mov	ebp, esp
	push	ecx
	mov	DWORD PTR _this$[ebp], ecx

; 257  : 		return (*_Mycat);

	mov	eax, DWORD PTR _this$[ebp]
	mov	eax, DWORD PTR [eax+4]

; 258  : 		}

	mov	esp, ebp
	pop	ebp
	ret	0
?category@error_code@std@@QBEABVerror_category@2@XZ ENDP ; std::error_code::category
_TEXT	ENDS
; Function compile flags: /Odtp
; File c:\program files (x86)\microsoft visual studio 11.0\vc\include\system_error
;	COMDAT ?value@error_code@std@@QBEHXZ
_TEXT	SEGMENT
_this$ = -4						; size = 4
?value@error_code@std@@QBEHXZ PROC			; std::error_code::value, COMDAT
; _this$ = ecx

; 251  : 		{	// get error code

	push	ebp
	mov	ebp, esp
	push	ecx
	mov	DWORD PTR _this$[ebp], ecx

; 252  : 		return (_Myval);

	mov	eax, DWORD PTR _this$[ebp]
	mov	eax, DWORD PTR [eax]

; 253  : 		}

	mov	esp, ebp
	pop	ebp
	ret	0
?value@error_code@std@@QBEHXZ ENDP			; std::error_code::value
_TEXT	ENDS
; Function compile flags: /Odtp
;	COMDAT ??_Gerror_category@std@@UAEPAXI@Z
_TEXT	SEGMENT
_this$ = -4						; size = 4
___flags$ = 8						; size = 4
??_Gerror_category@std@@UAEPAXI@Z PROC			; std::error_category::`scalar deleting destructor', COMDAT
; _this$ = ecx
	push	ebp
	mov	ebp, esp
	push	ecx
	mov	DWORD PTR _this$[ebp], ecx
	mov	ecx, DWORD PTR _this$[ebp]
	call	??1error_category@std@@UAE@XZ		; std::error_category::~error_category
	mov	eax, DWORD PTR ___flags$[ebp]
	and	eax, 1
	je	SHORT $LN1@scalar
	mov	ecx, DWORD PTR _this$[ebp]
	push	ecx
	call	??3@YAXPAX@Z				; operator delete
	add	esp, 4
$LN1@scalar:
	mov	eax, DWORD PTR _this$[ebp]
	mov	esp, ebp
	pop	ebp
	ret	4
??_Gerror_category@std@@UAEPAXI@Z ENDP			; std::error_category::`scalar deleting destructor'
_TEXT	ENDS
; Function compile flags: /Odtp
; File c:\program files (x86)\microsoft visual studio 11.0\vc\include\system_error
;	COMDAT ??8error_category@std@@QBE_NABV01@@Z
_TEXT	SEGMENT
_this$ = -8						; size = 4
tv65 = -4						; size = 4
__Right$ = 8						; size = 4
??8error_category@std@@QBE_NABV01@@Z PROC		; std::error_category::operator==, COMDAT
; _this$ = ecx

; 184  : 		{	// compare categories for equality

	push	ebp
	mov	ebp, esp
	sub	esp, 8
	mov	DWORD PTR _this$[ebp], ecx

; 185  : 		return (this == &_Right);

	mov	eax, DWORD PTR _this$[ebp]
	cmp	eax, DWORD PTR __Right$[ebp]
	jne	SHORT $LN3@operator
	mov	DWORD PTR tv65[ebp], 1
	jmp	SHORT $LN4@operator
$LN3@operator:
	mov	DWORD PTR tv65[ebp], 0
$LN4@operator:
	mov	al, BYTE PTR tv65[ebp]

; 186  : 		}

	mov	esp, ebp
	pop	ebp
	ret	4
??8error_category@std@@QBE_NABV01@@Z ENDP		; std::error_category::operator==
_TEXT	ENDS
; Function compile flags: /Odtp
; File c:\program files (x86)\microsoft visual studio 11.0\vc\include\system_error
;	COMDAT ?equivalent@error_category@std@@UBE_NABVerror_code@2@H@Z
_TEXT	SEGMENT
_this$ = -8						; size = 4
tv74 = -4						; size = 4
__Code$ = 8						; size = 4
__Errval$ = 12						; size = 4
?equivalent@error_category@std@@UBE_NABVerror_code@2@H@Z PROC ; std::error_category::equivalent, COMDAT
; _this$ = ecx

; 415  : 	{	// test if conditions same for this category

	push	ebp
	mov	ebp, esp
	sub	esp, 8
	mov	DWORD PTR _this$[ebp], ecx

; 416  : 	return (*this == _Code.category() && _Code.value() == _Errval);

	mov	ecx, DWORD PTR __Code$[ebp]
	call	?category@error_code@std@@QBEABVerror_category@2@XZ ; std::error_code::category
	push	eax
	mov	ecx, DWORD PTR _this$[ebp]
	call	??8error_category@std@@QBE_NABV01@@Z	; std::error_category::operator==
	movzx	eax, al
	test	eax, eax
	je	SHORT $LN3@equivalent
	mov	ecx, DWORD PTR __Code$[ebp]
	call	?value@error_code@std@@QBEHXZ		; std::error_code::value
	cmp	eax, DWORD PTR __Errval$[ebp]
	jne	SHORT $LN3@equivalent
	mov	DWORD PTR tv74[ebp], 1
	jmp	SHORT $LN4@equivalent
$LN3@equivalent:
	mov	DWORD PTR tv74[ebp], 0
$LN4@equivalent:
	mov	al, BYTE PTR tv74[ebp]

; 417  : 	}

	mov	esp, ebp
	pop	ebp
	ret	8
?equivalent@error_category@std@@UBE_NABVerror_code@2@H@Z ENDP ; std::error_category::equivalent
_TEXT	ENDS
; Function compile flags: /Odtp
; File c:\program files (x86)\microsoft visual studio 11.0\vc\include\system_error
;	COMDAT ?equivalent@error_category@std@@UBE_NHABVerror_condition@2@@Z
_TEXT	SEGMENT
$T1 = -12						; size = 8
_this$ = -4						; size = 4
__Errval$ = 8						; size = 4
__Cond$ = 12						; size = 4
?equivalent@error_category@std@@UBE_NHABVerror_condition@2@@Z PROC ; std::error_category::equivalent, COMDAT
; _this$ = ecx

; 408  : 	{	// test if error code same condition

	push	ebp
	mov	ebp, esp
	sub	esp, 12					; 0000000cH
	mov	DWORD PTR _this$[ebp], ecx

; 409  : 	return (default_error_condition(_Errval) == _Cond);

	mov	eax, DWORD PTR __Cond$[ebp]
	push	eax
	mov	ecx, DWORD PTR __Errval$[ebp]
	push	ecx
	lea	edx, DWORD PTR $T1[ebp]
	push	edx
	mov	eax, DWORD PTR _this$[ebp]
	mov	edx, DWORD PTR [eax]
	mov	ecx, DWORD PTR _this$[ebp]
	mov	eax, DWORD PTR [edx+12]
	call	eax
	mov	ecx, eax
	call	??8error_condition@std@@QBE_NABV01@@Z	; std::error_condition::operator==

; 410  : 	}

	mov	esp, ebp
	pop	ebp
	ret	8
?equivalent@error_category@std@@UBE_NHABVerror_condition@2@@Z ENDP ; std::error_category::equivalent
_TEXT	ENDS
; Function compile flags: /Odtp
; File c:\program files (x86)\microsoft visual studio 11.0\vc\include\system_error
;	COMDAT ?default_error_condition@error_category@std@@UBE?AVerror_condition@2@H@Z
_TEXT	SEGMENT
_this$ = -4						; size = 4
___$ReturnUdt$ = 8					; size = 4
__Errval$ = 12						; size = 4
?default_error_condition@error_category@std@@UBE?AVerror_condition@2@H@Z PROC ; std::error_category::default_error_condition, COMDAT
; _this$ = ecx

; 401  : 	{	// make error_condition for error code

	push	ebp
	mov	ebp, esp
	push	ecx
	mov	DWORD PTR _this$[ebp], ecx

; 402  : 	return (error_condition(_Errval, *this));

	mov	eax, DWORD PTR _this$[ebp]
	push	eax
	mov	ecx, DWORD PTR __Errval$[ebp]
	push	ecx
	mov	ecx, DWORD PTR ___$ReturnUdt$[ebp]
	call	??0error_condition@std@@QAE@HABVerror_category@1@@Z ; std::error_condition::error_condition
	mov	eax, DWORD PTR ___$ReturnUdt$[ebp]

; 403  : 	}

	mov	esp, ebp
	pop	ebp
	ret	8
?default_error_condition@error_category@std@@UBE?AVerror_condition@2@H@Z ENDP ; std::error_category::default_error_condition
_TEXT	ENDS
; Function compile flags: /Odtp
; File c:\program files (x86)\microsoft visual studio 11.0\vc\include\system_error
;	COMDAT ??1error_category@std@@UAE@XZ
_TEXT	SEGMENT
_this$ = -4						; size = 4
??1error_category@std@@UAE@XZ PROC			; std::error_category::~error_category, COMDAT
; _this$ = ecx

; 167  : 		{	// destroy the object

	push	ebp
	mov	ebp, esp
	push	ecx
	mov	DWORD PTR _this$[ebp], ecx
	mov	eax, DWORD PTR _this$[ebp]
	mov	DWORD PTR [eax], OFFSET ??_7error_category@std@@6B@

; 168  : 		}

	mov	esp, ebp
	pop	ebp
	ret	0
??1error_category@std@@UAE@XZ ENDP			; std::error_category::~error_category
_TEXT	ENDS
; Function compile flags: /Odtp
; File c:\program files (x86)\microsoft visual studio 11.0\vc\include\system_error
;	COMDAT ??0error_category@std@@QAE@XZ
_TEXT	SEGMENT
_this$ = -4						; size = 4
??0error_category@std@@QAE@XZ PROC			; std::error_category::error_category, COMDAT
; _this$ = ecx

; 162  : 	error_category()

	push	ebp
	mov	ebp, esp
	push	ecx
	mov	DWORD PTR _this$[ebp], ecx
	mov	eax, DWORD PTR _this$[ebp]
	mov	DWORD PTR [eax], OFFSET ??_7error_category@std@@6B@

; 163  : 		{	// default constructor
; 164  : 		}

	mov	eax, DWORD PTR _this$[ebp]
	mov	esp, ebp
	pop	ebp
	ret	0
??0error_category@std@@QAE@XZ ENDP			; std::error_category::error_category
_TEXT	ENDS
; Function compile flags: /Odtp
; File c:\program files (x86)\microsoft visual studio 11.0\vc\include\system_error
;	COMDAT ?system_category@std@@YAABVerror_category@1@XZ
_TEXT	SEGMENT
?system_category@std@@YAABVerror_category@1@XZ PROC	; std::system_category, COMDAT

; 679  : 	{	// get system_category

	push	ebp
	mov	ebp, esp

; 680  : 	return (_Error_objects<int>::_System_object);

	mov	eax, OFFSET ?_System_object@?$_Error_objects@H@std@@2V_System_error_category@2@A ; std::_Error_objects<int>::_System_object

; 681  : 	}

	pop	ebp
	ret	0
?system_category@std@@YAABVerror_category@1@XZ ENDP	; std::system_category
_TEXT	ENDS
; Function compile flags: /Odtp
; File c:\program files (x86)\microsoft visual studio 11.0\vc\include\system_error
;	COMDAT ?generic_category@std@@YAABVerror_category@1@XZ
_TEXT	SEGMENT
?generic_category@std@@YAABVerror_category@1@XZ PROC	; std::generic_category, COMDAT

; 669  : 	{	// get generic_category

	push	ebp
	mov	ebp, esp

; 670  : 	return (_Error_objects<int>::_Generic_object);

	mov	eax, OFFSET ?_Generic_object@?$_Error_objects@H@std@@2V_Generic_error_category@2@A ; std::_Error_objects<int>::_Generic_object

; 671  : 	}

	pop	ebp
	ret	0
?generic_category@std@@YAABVerror_category@1@XZ ENDP	; std::generic_category
_TEXT	ENDS
; Function compile flags: /Odtp
; File c:\program files (x86)\microsoft visual studio 11.0\vc\include\xlocale
;	COMDAT ??0id@locale@std@@QAE@I@Z
_TEXT	SEGMENT
_this$ = -4						; size = 4
__Val$ = 8						; size = 4
??0id@locale@std@@QAE@I@Z PROC				; std::locale::id::id, COMDAT
; _this$ = ecx

; 74   : 			{	// construct with specified stamp value

	push	ebp
	mov	ebp, esp
	push	ecx
	mov	DWORD PTR _this$[ebp], ecx
	mov	eax, DWORD PTR _this$[ebp]
	mov	ecx, DWORD PTR __Val$[ebp]
	mov	DWORD PTR [eax], ecx

; 75   : 			}

	mov	eax, DWORD PTR _this$[ebp]
	mov	esp, ebp
	pop	ebp
	ret	4
??0id@locale@std@@QAE@I@Z ENDP				; std::locale::id::id
_TEXT	ENDS
; Function compile flags: /Odtp
; File c:\program files (x86)\microsoft visual studio 11.0\vc\include\xstring
;	COMDAT ?_Xran@?$basic_string@DU?$char_traits@D@std@@V?$allocator@D@2@@std@@QBEXXZ
_TEXT	SEGMENT
_this$ = -4						; size = 4
?_Xran@?$basic_string@DU?$char_traits@D@std@@V?$allocator@D@2@@std@@QBEXXZ PROC ; std::basic_string<char,std::char_traits<char>,std::allocator<char> >::_Xran, COMDAT
; _this$ = ecx

; 2275 : 		{	// report an out_of_range error

	push	ebp
	mov	ebp, esp
	push	ecx
	mov	DWORD PTR _this$[ebp], ecx

; 2276 : 		_Xout_of_range("invalid string position");

	push	OFFSET ??_C@_0BI@CFPLBAOH@invalid?5string?5position?$AA@
	call	?_Xout_of_range@std@@YAXPBD@Z		; std::_Xout_of_range
$LN2@Xran:

; 2277 : 		}

	mov	esp, ebp
	pop	ebp
	ret	0
?_Xran@?$basic_string@DU?$char_traits@D@std@@V?$allocator@D@2@@std@@QBEXXZ ENDP ; std::basic_string<char,std::char_traits<char>,std::allocator<char> >::_Xran
_TEXT	ENDS
; Function compile flags: /Odtp
; File c:\program files (x86)\microsoft visual studio 11.0\vc\include\xstring
;	COMDAT ?_Xlen@?$basic_string@DU?$char_traits@D@std@@V?$allocator@D@2@@std@@QBEXXZ
_TEXT	SEGMENT
_this$ = -4						; size = 4
?_Xlen@?$basic_string@DU?$char_traits@D@std@@V?$allocator@D@2@@std@@QBEXXZ PROC ; std::basic_string<char,std::char_traits<char>,std::allocator<char> >::_Xlen, COMDAT
; _this$ = ecx

; 2270 : 		{	// report a length_error

	push	ebp
	mov	ebp, esp
	push	ecx
	mov	DWORD PTR _this$[ebp], ecx

; 2271 : 		_Xlength_error("string too long");

	push	OFFSET ??_C@_0BA@JFNIOLAK@string?5too?5long?$AA@
	call	?_Xlength_error@std@@YAXPBD@Z		; std::_Xlength_error
$LN2@Xlen:

; 2272 : 		}

	mov	esp, ebp
	pop	ebp
	ret	0
?_Xlen@?$basic_string@DU?$char_traits@D@std@@V?$allocator@D@2@@std@@QBEXXZ ENDP ; std::basic_string<char,std::char_traits<char>,std::allocator<char> >::_Xlen
_TEXT	ENDS
; Function compile flags: /Odtp
; File c:\program files (x86)\microsoft visual studio 11.0\vc\include\xstring
;	COMDAT ?_Tidy@?$basic_string@DU?$char_traits@D@std@@V?$allocator@D@2@@std@@QAEX_NI@Z
_TEXT	SEGMENT
__Ptr$1 = -12						; size = 4
_this$ = -8						; size = 4
$T2 = -2						; size = 1
$T3 = -1						; size = 1
__Built$ = 8						; size = 1
__Newsize$ = 12						; size = 4
?_Tidy@?$basic_string@DU?$char_traits@D@std@@V?$allocator@D@2@@std@@QAEX_NI@Z PROC ; std::basic_string<char,std::char_traits<char>,std::allocator<char> >::_Tidy, COMDAT
; _this$ = ecx

; 2253 : 		{	// initialize buffer, deallocating any storage

	push	ebp
	mov	ebp, esp
	sub	esp, 12					; 0000000cH
	mov	DWORD PTR _this$[ebp], ecx

; 2254 : 		if (!_Built)

	movzx	eax, BYTE PTR __Built$[ebp]
	test	eax, eax
	jne	SHORT $LN4@Tidy
	jmp	SHORT $LN3@Tidy
$LN4@Tidy:

; 2255 : 			;
; 2256 : 		else if (this->_BUF_SIZE <= this->_Myres)

	mov	ecx, DWORD PTR _this$[ebp]
	cmp	DWORD PTR [ecx+20], 16			; 00000010H
	jb	SHORT $LN3@Tidy

; 2257 : 			{	// copy any leftovers to small buffer and deallocate
; 2258 : 			pointer _Ptr = this->_Bx._Ptr;

	mov	edx, DWORD PTR _this$[ebp]
	mov	eax, DWORD PTR [edx]
	mov	DWORD PTR __Ptr$1[ebp], eax

; 2259 : 			this->_Getal().destroy(&this->_Bx._Ptr);

	mov	ecx, DWORD PTR _this$[ebp]
	push	ecx
	lea	edx, DWORD PTR $T3[ebp]
	push	edx
	mov	ecx, DWORD PTR _this$[ebp]
	call	?_Getal@?$_String_alloc@$0A@U?$_String_base_types@DV?$allocator@D@std@@@std@@@std@@QBE?AU?$_Wrap_alloc@V?$allocator@D@std@@@2@XZ ; std::_String_alloc<0,std::_String_base_types<char,std::allocator<char> > >::_Getal
	mov	ecx, eax
	call	??$destroy@PAD@?$_Wrap_alloc@V?$allocator@D@std@@@std@@QAEXPAPAD@Z ; std::_Wrap_alloc<std::allocator<char> >::destroy<char *>

; 2260 : 			if (0 < _Newsize)

	cmp	DWORD PTR __Newsize$[ebp], 0
	jbe	SHORT $LN1@Tidy

; 2261 : 				_Traits::copy(this->_Bx._Buf,
; 2262 : 					_STD addressof(*_Ptr), _Newsize);

	mov	eax, DWORD PTR __Newsize$[ebp]
	push	eax
	mov	ecx, DWORD PTR __Ptr$1[ebp]
	push	ecx
	call	??$addressof@D@std@@YAPADAAD@Z		; std::addressof<char>
	add	esp, 4
	push	eax
	mov	edx, DWORD PTR _this$[ebp]
	push	edx
	call	?copy@?$char_traits@D@std@@SAPADPADPBDI@Z ; std::char_traits<char>::copy
	add	esp, 12					; 0000000cH
$LN1@Tidy:

; 2263 : 			this->_Getal().deallocate(_Ptr, this->_Myres + 1);

	mov	eax, DWORD PTR _this$[ebp]
	mov	ecx, DWORD PTR [eax+20]
	add	ecx, 1
	push	ecx
	mov	edx, DWORD PTR __Ptr$1[ebp]
	push	edx
	lea	eax, DWORD PTR $T2[ebp]
	push	eax
	mov	ecx, DWORD PTR _this$[ebp]
	call	?_Getal@?$_String_alloc@$0A@U?$_String_base_types@DV?$allocator@D@std@@@std@@@std@@QBE?AU?$_Wrap_alloc@V?$allocator@D@std@@@2@XZ ; std::_String_alloc<0,std::_String_base_types<char,std::allocator<char> > >::_Getal
	mov	ecx, eax
	call	?deallocate@?$_Wrap_alloc@V?$allocator@D@std@@@std@@QAEXPADI@Z ; std::_Wrap_alloc<std::allocator<char> >::deallocate
$LN3@Tidy:

; 2264 : 			}
; 2265 : 		this->_Myres = this->_BUF_SIZE - 1;

	mov	ecx, DWORD PTR _this$[ebp]
	mov	DWORD PTR [ecx+20], 15			; 0000000fH

; 2266 : 		_Eos(_Newsize);

	mov	edx, DWORD PTR __Newsize$[ebp]
	push	edx
	mov	ecx, DWORD PTR _this$[ebp]
	call	?_Eos@?$basic_string@DU?$char_traits@D@std@@V?$allocator@D@2@@std@@QAEXI@Z ; std::basic_string<char,std::char_traits<char>,std::allocator<char> >::_Eos

; 2267 : 		}

	mov	esp, ebp
	pop	ebp
	ret	8
?_Tidy@?$basic_string@DU?$char_traits@D@std@@V?$allocator@D@2@@std@@QAEX_NI@Z ENDP ; std::basic_string<char,std::char_traits<char>,std::allocator<char> >::_Tidy
_TEXT	ENDS
; Function compile flags: /Odtp
; File c:\program files (x86)\microsoft visual studio 11.0\vc\include\xstring
;	COMDAT ?_Inside@?$basic_string@DU?$char_traits@D@std@@V?$allocator@D@2@@std@@QAE_NPBD@Z
_TEXT	SEGMENT
_this$ = -4						; size = 4
__Ptr$ = 8						; size = 4
?_Inside@?$basic_string@DU?$char_traits@D@std@@V?$allocator@D@2@@std@@QAE_NPBD@Z PROC ; std::basic_string<char,std::char_traits<char>,std::allocator<char> >::_Inside, COMDAT
; _this$ = ecx

; 2237 : 		{	// test if _Ptr points inside string

	push	ebp
	mov	ebp, esp
	push	ecx
	mov	DWORD PTR _this$[ebp], ecx

; 2238 : 		if (_Ptr == 0 || _Ptr < this->_Myptr()
; 2239 : 			|| this->_Myptr() + this->_Mysize <= _Ptr)

	cmp	DWORD PTR __Ptr$[ebp], 0
	je	SHORT $LN2@Inside
	mov	ecx, DWORD PTR _this$[ebp]
	call	?_Myptr@?$_String_val@U?$_Simple_types@D@std@@@std@@QAEPADXZ ; std::_String_val<std::_Simple_types<char> >::_Myptr
	cmp	DWORD PTR __Ptr$[ebp], eax
	jb	SHORT $LN2@Inside
	mov	ecx, DWORD PTR _this$[ebp]
	call	?_Myptr@?$_String_val@U?$_Simple_types@D@std@@@std@@QAEPADXZ ; std::_String_val<std::_Simple_types<char> >::_Myptr
	mov	ecx, DWORD PTR _this$[ebp]
	add	eax, DWORD PTR [ecx+16]
	cmp	eax, DWORD PTR __Ptr$[ebp]
	ja	SHORT $LN3@Inside
$LN2@Inside:

; 2240 : 			return (false);	// don't ask

	xor	al, al
	jmp	SHORT $LN4@Inside

; 2241 : 		else

	jmp	SHORT $LN4@Inside
$LN3@Inside:

; 2242 : 			return (true);

	mov	al, 1
$LN4@Inside:

; 2243 : 		}

	mov	esp, ebp
	pop	ebp
	ret	4
?_Inside@?$basic_string@DU?$char_traits@D@std@@V?$allocator@D@2@@std@@QAE_NPBD@Z ENDP ; std::basic_string<char,std::char_traits<char>,std::allocator<char> >::_Inside
_TEXT	ENDS
; Function compile flags: /Odtp
; File c:\program files (x86)\microsoft visual studio 11.0\vc\include\xstring
;	COMDAT ?_Grow@?$basic_string@DU?$char_traits@D@std@@V?$allocator@D@2@@std@@QAE_NI_N@Z
_TEXT	SEGMENT
tv136 = -12						; size = 4
tv129 = -8						; size = 4
_this$ = -4						; size = 4
__Newsize$ = 8						; size = 4
__Trim$ = 12						; size = 1
?_Grow@?$basic_string@DU?$char_traits@D@std@@V?$allocator@D@2@@std@@QAE_NI_N@Z PROC ; std::basic_string<char,std::char_traits<char>,std::allocator<char> >::_Grow, COMDAT
; _this$ = ecx

; 2223 : 		{	// ensure buffer is big enough, trim to size if _Trim is true

	push	ebp
	mov	ebp, esp
	sub	esp, 12					; 0000000cH
	mov	DWORD PTR _this$[ebp], ecx

; 2224 : 		if (max_size() < _Newsize)

	mov	ecx, DWORD PTR _this$[ebp]
	call	?max_size@?$basic_string@DU?$char_traits@D@std@@V?$allocator@D@2@@std@@QBEIXZ ; std::basic_string<char,std::char_traits<char>,std::allocator<char> >::max_size
	cmp	eax, DWORD PTR __Newsize$[ebp]
	jae	SHORT $LN6@Grow

; 2225 : 			_Xlen();	// result too long

	mov	ecx, DWORD PTR _this$[ebp]
	call	?_Xlen@?$basic_string@DU?$char_traits@D@std@@V?$allocator@D@2@@std@@QBEXXZ ; std::basic_string<char,std::char_traits<char>,std::allocator<char> >::_Xlen
$LN6@Grow:

; 2226 : 		if (this->_Myres < _Newsize)

	mov	eax, DWORD PTR _this$[ebp]
	mov	ecx, DWORD PTR [eax+20]
	cmp	ecx, DWORD PTR __Newsize$[ebp]
	jae	SHORT $LN5@Grow

; 2227 : 			_Copy(_Newsize, this->_Mysize);	// reallocate to grow

	mov	edx, DWORD PTR _this$[ebp]
	mov	eax, DWORD PTR [edx+16]
	push	eax
	mov	ecx, DWORD PTR __Newsize$[ebp]
	push	ecx
	mov	ecx, DWORD PTR _this$[ebp]
	call	?_Copy@?$basic_string@DU?$char_traits@D@std@@V?$allocator@D@2@@std@@QAEXII@Z ; std::basic_string<char,std::char_traits<char>,std::allocator<char> >::_Copy
	jmp	SHORT $LN4@Grow
$LN5@Grow:

; 2228 : 		else if (_Trim && _Newsize < this->_BUF_SIZE)

	movzx	edx, BYTE PTR __Trim$[ebp]
	test	edx, edx
	je	SHORT $LN3@Grow
	cmp	DWORD PTR __Newsize$[ebp], 16		; 00000010H
	jae	SHORT $LN3@Grow

; 2229 : 			_Tidy(true,	// copy and deallocate if trimming to small string
; 2230 : 				_Newsize < this->_Mysize ? _Newsize : this->_Mysize);

	mov	eax, DWORD PTR _this$[ebp]
	mov	ecx, DWORD PTR __Newsize$[ebp]
	cmp	ecx, DWORD PTR [eax+16]
	jae	SHORT $LN9@Grow
	mov	edx, DWORD PTR __Newsize$[ebp]
	mov	DWORD PTR tv129[ebp], edx
	jmp	SHORT $LN10@Grow
$LN9@Grow:
	mov	eax, DWORD PTR _this$[ebp]
	mov	ecx, DWORD PTR [eax+16]
	mov	DWORD PTR tv129[ebp], ecx
$LN10@Grow:
	mov	edx, DWORD PTR tv129[ebp]
	push	edx
	push	1
	mov	ecx, DWORD PTR _this$[ebp]
	call	?_Tidy@?$basic_string@DU?$char_traits@D@std@@V?$allocator@D@2@@std@@QAEX_NI@Z ; std::basic_string<char,std::char_traits<char>,std::allocator<char> >::_Tidy
	jmp	SHORT $LN4@Grow
$LN3@Grow:

; 2231 : 		else if (_Newsize == 0)

	cmp	DWORD PTR __Newsize$[ebp], 0
	jne	SHORT $LN4@Grow

; 2232 : 			_Eos(0);	// new size is zero, just null terminate

	push	0
	mov	ecx, DWORD PTR _this$[ebp]
	call	?_Eos@?$basic_string@DU?$char_traits@D@std@@V?$allocator@D@2@@std@@QAEXI@Z ; std::basic_string<char,std::char_traits<char>,std::allocator<char> >::_Eos
$LN4@Grow:

; 2233 : 		return (0 < _Newsize);	// return true only if more work to do

	cmp	DWORD PTR __Newsize$[ebp], 0
	jbe	SHORT $LN11@Grow
	mov	DWORD PTR tv136[ebp], 1
	jmp	SHORT $LN12@Grow
$LN11@Grow:
	mov	DWORD PTR tv136[ebp], 0
$LN12@Grow:
	mov	al, BYTE PTR tv136[ebp]
$LN8@Grow:

; 2234 : 		}

	mov	esp, ebp
	pop	ebp
	ret	8
?_Grow@?$basic_string@DU?$char_traits@D@std@@V?$allocator@D@2@@std@@QAE_NI_N@Z ENDP ; std::basic_string<char,std::char_traits<char>,std::allocator<char> >::_Grow
_TEXT	ENDS
; Function compile flags: /Odtp
; File c:\program files (x86)\microsoft visual studio 11.0\vc\include\xstring
;	COMDAT ?_Eos@?$basic_string@DU?$char_traits@D@std@@V?$allocator@D@2@@std@@QAEXI@Z
_TEXT	SEGMENT
_this$ = -8						; size = 4
$T1 = -1						; size = 1
__Newsize$ = 8						; size = 4
?_Eos@?$basic_string@DU?$char_traits@D@std@@V?$allocator@D@2@@std@@QAEXI@Z PROC ; std::basic_string<char,std::char_traits<char>,std::allocator<char> >::_Eos, COMDAT
; _this$ = ecx

; 2217 : 		{	// set new length and null terminator

	push	ebp
	mov	ebp, esp
	sub	esp, 8
	mov	DWORD PTR _this$[ebp], ecx

; 2218 : 		_Traits::assign(this->_Myptr()[this->_Mysize = _Newsize], _Elem());

	mov	BYTE PTR $T1[ebp], 0
	mov	eax, DWORD PTR _this$[ebp]
	mov	ecx, DWORD PTR __Newsize$[ebp]
	mov	DWORD PTR [eax+16], ecx
	lea	edx, DWORD PTR $T1[ebp]
	push	edx
	mov	ecx, DWORD PTR _this$[ebp]
	call	?_Myptr@?$_String_val@U?$_Simple_types@D@std@@@std@@QAEPADXZ ; std::_String_val<std::_Simple_types<char> >::_Myptr
	add	eax, DWORD PTR __Newsize$[ebp]
	push	eax
	call	?assign@?$char_traits@D@std@@SAXAADABD@Z ; std::char_traits<char>::assign
	add	esp, 8

; 2219 : 		}

	mov	esp, ebp
	pop	ebp
	ret	4
?_Eos@?$basic_string@DU?$char_traits@D@std@@V?$allocator@D@2@@std@@QAEXI@Z ENDP ; std::basic_string<char,std::char_traits<char>,std::allocator<char> >::_Eos
_TEXT	ENDS
; Function compile flags: /Odtp
; File c:\program files (x86)\microsoft visual studio 11.0\vc\include\xstring
;	COMDAT ?_Copy@?$basic_string@DU?$char_traits@D@std@@V?$allocator@D@2@@std@@QAEXII@Z
_TEXT	SEGMENT
tv205 = -48						; size = 4
tv204 = -44						; size = 4
tv203 = -40						; size = 4
tv202 = -36						; size = 4
__Ptr$ = -32						; size = 4
__Newres$ = -28						; size = 4
_this$ = -24						; size = 4
$T2 = -19						; size = 1
$T3 = -18						; size = 1
$T4 = -17						; size = 1
__$EHRec$ = -16						; size = 16
__Newsize$ = 8						; size = 4
__Oldlen$ = 12						; size = 4
?_Copy@?$basic_string@DU?$char_traits@D@std@@V?$allocator@D@2@@std@@QAEXII@Z PROC ; std::basic_string<char,std::char_traits<char>,std::allocator<char> >::_Copy, COMDAT
; _this$ = ecx

; 2182 : 		{	// copy _Oldlen elements to newly allocated buffer

	push	ebp
	mov	ebp, esp
	push	-1
	push	__ehhandler$?_Copy@?$basic_string@DU?$char_traits@D@std@@V?$allocator@D@2@@std@@QAEXII@Z
	mov	eax, DWORD PTR fs:0
	push	eax
	push	ecx
	sub	esp, 32					; 00000020H
	push	ebx
	push	esi
	push	edi
	mov	eax, DWORD PTR ___security_cookie
	xor	eax, ebp
	push	eax
	lea	eax, DWORD PTR __$EHRec$[ebp+4]
	mov	DWORD PTR fs:0, eax
	mov	DWORD PTR __$EHRec$[ebp], esp
	mov	DWORD PTR _this$[ebp], ecx

; 2183 : 		size_type _Newres = _Newsize | this->_ALLOC_MASK;

	mov	eax, DWORD PTR __Newsize$[ebp]
	or	eax, 15					; 0000000fH
	mov	DWORD PTR __Newres$[ebp], eax

; 2184 : 		if (max_size() < _Newres)

	mov	ecx, DWORD PTR _this$[ebp]
	call	?max_size@?$basic_string@DU?$char_traits@D@std@@V?$allocator@D@2@@std@@QBEIXZ ; std::basic_string<char,std::char_traits<char>,std::allocator<char> >::max_size
	cmp	eax, DWORD PTR __Newres$[ebp]
	jae	SHORT $LN9@Copy

; 2185 : 			_Newres = _Newsize;	// undo roundup if too big

	mov	ecx, DWORD PTR __Newsize$[ebp]
	mov	DWORD PTR __Newres$[ebp], ecx
	jmp	SHORT $LN8@Copy
$LN9@Copy:

; 2186 : 		else if (this->_Myres / 2 <= _Newres / 3)

	mov	eax, DWORD PTR __Newres$[ebp]
	xor	edx, edx
	mov	ecx, 3
	div	ecx
	mov	edx, DWORD PTR _this$[ebp]
	mov	ecx, DWORD PTR [edx+20]
	shr	ecx, 1
	cmp	ecx, eax
	ja	SHORT $LN7@Copy
	jmp	SHORT $LN8@Copy
$LN7@Copy:

; 2187 : 			;
; 2188 : 		else if (this->_Myres <= max_size() - this->_Myres / 2)

	mov	edx, DWORD PTR _this$[ebp]
	mov	esi, DWORD PTR [edx+20]
	shr	esi, 1
	mov	ecx, DWORD PTR _this$[ebp]
	call	?max_size@?$basic_string@DU?$char_traits@D@std@@V?$allocator@D@2@@std@@QBEIXZ ; std::basic_string<char,std::char_traits<char>,std::allocator<char> >::max_size
	sub	eax, esi
	mov	ecx, DWORD PTR _this$[ebp]
	cmp	DWORD PTR [ecx+20], eax
	ja	SHORT $LN5@Copy

; 2189 : 			_Newres = this->_Myres
; 2190 : 				+ this->_Myres / 2;	// grow exponentially if possible

	mov	edx, DWORD PTR _this$[ebp]
	mov	eax, DWORD PTR [edx+20]
	shr	eax, 1
	mov	ecx, DWORD PTR _this$[ebp]
	add	eax, DWORD PTR [ecx+20]
	mov	DWORD PTR __Newres$[ebp], eax

; 2191 : 		else

	jmp	SHORT $LN8@Copy
$LN5@Copy:

; 2192 : 			_Newres = max_size();	// settle for max_size()

	mov	ecx, DWORD PTR _this$[ebp]
	call	?max_size@?$basic_string@DU?$char_traits@D@std@@V?$allocator@D@2@@std@@QBEIXZ ; std::basic_string<char,std::char_traits<char>,std::allocator<char> >::max_size
	mov	DWORD PTR __Newres$[ebp], eax
$LN8@Copy:

; 2193 : 
; 2194 : 		_Elem *_Ptr;
; 2195 : 		_TRY_BEGIN

	mov	DWORD PTR __$EHRec$[ebp+12], 0

; 2196 : 			_Ptr = this->_Getal().allocate(_Newres + 1);

	lea	edx, DWORD PTR $T4[ebp]
	push	edx
	mov	ecx, DWORD PTR _this$[ebp]
	call	?_Getal@?$_String_alloc@$0A@U?$_String_base_types@DV?$allocator@D@std@@@std@@@std@@QBE?AU?$_Wrap_alloc@V?$allocator@D@std@@@2@XZ ; std::_String_alloc<0,std::_String_base_types<char,std::allocator<char> > >::_Getal
	mov	DWORD PTR tv202[ebp], eax
	mov	eax, DWORD PTR __Newres$[ebp]
	add	eax, 1
	push	eax
	mov	ecx, DWORD PTR tv202[ebp]
	call	?allocate@?$_Wrap_alloc@V?$allocator@D@std@@@std@@QAEPADI@Z ; std::_Wrap_alloc<std::allocator<char> >::allocate
	mov	DWORD PTR tv203[ebp], eax
	mov	ecx, DWORD PTR tv203[ebp]
	mov	DWORD PTR __Ptr$[ebp], ecx
	jmp	SHORT $LN12@Copy
__catch$?_Copy@?$basic_string@DU?$char_traits@D@std@@V?$allocator@D@2@@std@@QAEXII@Z$0:

; 2197 : 		_CATCH_ALL

	mov	DWORD PTR __$EHRec$[ebp], esp

; 2198 : 			_Newres = _Newsize;	// allocation failed, undo roundup and retry

	mov	edx, DWORD PTR __Newsize$[ebp]
	mov	DWORD PTR __Newres$[ebp], edx

; 2199 : 			_TRY_BEGIN

	mov	BYTE PTR __$EHRec$[ebp+12], 2

; 2200 : 				_Ptr = this->_Getal().allocate(_Newres + 1);

	lea	eax, DWORD PTR $T3[ebp]
	push	eax
	mov	ecx, DWORD PTR _this$[ebp]
	call	?_Getal@?$_String_alloc@$0A@U?$_String_base_types@DV?$allocator@D@std@@@std@@@std@@QBE?AU?$_Wrap_alloc@V?$allocator@D@std@@@2@XZ ; std::_String_alloc<0,std::_String_base_types<char,std::allocator<char> > >::_Getal
	mov	DWORD PTR tv204[ebp], eax
	mov	ecx, DWORD PTR __Newres$[ebp]
	add	ecx, 1
	push	ecx
	mov	ecx, DWORD PTR tv204[ebp]
	call	?allocate@?$_Wrap_alloc@V?$allocator@D@std@@@std@@QAEPADI@Z ; std::_Wrap_alloc<std::allocator<char> >::allocate
	mov	DWORD PTR tv205[ebp], eax
	mov	edx, DWORD PTR tv205[ebp]
	mov	DWORD PTR __Ptr$[ebp], edx
	jmp	SHORT $LN14@Copy
__catch$?_Copy@?$basic_string@DU?$char_traits@D@std@@V?$allocator@D@2@@std@@QAEXII@Z$1:

; 2201 : 			_CATCH_ALL
; 2202 : 			_Tidy(true);	// failed again, discard storage and reraise

	push	0
	push	1
	mov	ecx, DWORD PTR _this$[ebp]
	call	?_Tidy@?$basic_string@DU?$char_traits@D@std@@V?$allocator@D@2@@std@@QAEX_NI@Z ; std::basic_string<char,std::char_traits<char>,std::allocator<char> >::_Tidy

; 2203 : 			_RERAISE;

	push	0
	push	0
	call	__CxxThrowException@8

; 2204 : 			_CATCH_END

	mov	eax, $LN17@Copy
	ret	0
$LN14@Copy:
	mov	DWORD PTR __$EHRec$[ebp+12], 1
	jmp	SHORT __tryend$?_Copy@?$basic_string@DU?$char_traits@D@std@@V?$allocator@D@2@@std@@QAEXII@Z$2
$LN17@Copy:
	mov	DWORD PTR __$EHRec$[ebp+12], 1
__tryend$?_Copy@?$basic_string@DU?$char_traits@D@std@@V?$allocator@D@2@@std@@QAEXII@Z$2:

; 2205 : 		_CATCH_END

	mov	eax, $LN19@Copy
	ret	0
$LN12@Copy:
	mov	DWORD PTR __$EHRec$[ebp+12], -1
	jmp	SHORT __tryend$?_Copy@?$basic_string@DU?$char_traits@D@std@@V?$allocator@D@2@@std@@QAEXII@Z$3
$LN19@Copy:
	mov	DWORD PTR __$EHRec$[ebp+12], -1
__tryend$?_Copy@?$basic_string@DU?$char_traits@D@std@@V?$allocator@D@2@@std@@QAEXII@Z$3:

; 2206 : 
; 2207 : 		if (0 < _Oldlen)

	cmp	DWORD PTR __Oldlen$[ebp], 0
	jbe	SHORT $LN1@Copy

; 2208 : 			_Traits::copy(_Ptr, this->_Myptr(),
; 2209 : 				_Oldlen);	// copy existing elements

	mov	eax, DWORD PTR __Oldlen$[ebp]
	push	eax
	mov	ecx, DWORD PTR _this$[ebp]
	call	?_Myptr@?$_String_val@U?$_Simple_types@D@std@@@std@@QAEPADXZ ; std::_String_val<std::_Simple_types<char> >::_Myptr
	push	eax
	mov	ecx, DWORD PTR __Ptr$[ebp]
	push	ecx
	call	?copy@?$char_traits@D@std@@SAPADPADPBDI@Z ; std::char_traits<char>::copy
	add	esp, 12					; 0000000cH
$LN1@Copy:

; 2210 : 		_Tidy(true);

	push	0
	push	1
	mov	ecx, DWORD PTR _this$[ebp]
	call	?_Tidy@?$basic_string@DU?$char_traits@D@std@@V?$allocator@D@2@@std@@QAEX_NI@Z ; std::basic_string<char,std::char_traits<char>,std::allocator<char> >::_Tidy

; 2211 : 		this->_Getal().construct(&this->_Bx._Ptr, _Ptr);

	lea	edx, DWORD PTR __Ptr$[ebp]
	push	edx
	mov	eax, DWORD PTR _this$[ebp]
	push	eax
	lea	ecx, DWORD PTR $T2[ebp]
	push	ecx
	mov	ecx, DWORD PTR _this$[ebp]
	call	?_Getal@?$_String_alloc@$0A@U?$_String_base_types@DV?$allocator@D@std@@@std@@@std@@QBE?AU?$_Wrap_alloc@V?$allocator@D@std@@@2@XZ ; std::_String_alloc<0,std::_String_base_types<char,std::allocator<char> > >::_Getal
	mov	ecx, eax
	call	??$construct@PADAAPAD@?$_Wrap_alloc@V?$allocator@D@std@@@std@@QAEXPAPADAAPAD@Z ; std::_Wrap_alloc<std::allocator<char> >::construct<char *,char * &>

; 2212 : 		this->_Myres = _Newres;

	mov	edx, DWORD PTR _this$[ebp]
	mov	eax, DWORD PTR __Newres$[ebp]
	mov	DWORD PTR [edx+20], eax

; 2213 : 		_Eos(_Oldlen);

	mov	ecx, DWORD PTR __Oldlen$[ebp]
	push	ecx
	mov	ecx, DWORD PTR _this$[ebp]
	call	?_Eos@?$basic_string@DU?$char_traits@D@std@@V?$allocator@D@2@@std@@QAEXI@Z ; std::basic_string<char,std::char_traits<char>,std::allocator<char> >::_Eos
$LN11@Copy:

; 2214 : 		}

	mov	ecx, DWORD PTR __$EHRec$[ebp+4]
	mov	DWORD PTR fs:0, ecx
	pop	ecx
	pop	edi
	pop	esi
	pop	ebx
	mov	esp, ebp
	pop	ebp
	ret	8
_TEXT	ENDS
;	COMDAT text$x
text$x	SEGMENT
__ehhandler$?_Copy@?$basic_string@DU?$char_traits@D@std@@V?$allocator@D@2@@std@@QAEXII@Z:
	mov	edx, DWORD PTR [esp+8]
	lea	eax, DWORD PTR [edx+12]
	mov	ecx, DWORD PTR [edx-52]
	xor	ecx, eax
	call	@__security_check_cookie@4
	mov	eax, OFFSET __ehfuncinfo$?_Copy@?$basic_string@DU?$char_traits@D@std@@V?$allocator@D@2@@std@@QAEXII@Z
	jmp	___CxxFrameHandler3
text$x	ENDS
?_Copy@?$basic_string@DU?$char_traits@D@std@@V?$allocator@D@2@@std@@QAEXII@Z ENDP ; std::basic_string<char,std::char_traits<char>,std::allocator<char> >::_Copy
; Function compile flags: /Odtp
; File c:\program files (x86)\microsoft visual studio 11.0\vc\include\xstring
;	COMDAT ?max_size@?$basic_string@DU?$char_traits@D@std@@V?$allocator@D@2@@std@@QBEIXZ
_TEXT	SEGMENT
_this$ = -16						; size = 4
tv75 = -12						; size = 4
__Num$ = -8						; size = 4
$T1 = -1						; size = 1
?max_size@?$basic_string@DU?$char_traits@D@std@@V?$allocator@D@2@@std@@QBEIXZ PROC ; std::basic_string<char,std::char_traits<char>,std::allocator<char> >::max_size, COMDAT
; _this$ = ecx

; 1737 : 		{	// return maximum possible length of sequence

	push	ebp
	mov	ebp, esp
	sub	esp, 16					; 00000010H
	mov	DWORD PTR _this$[ebp], ecx

; 1738 : 		size_type _Num = this->_Getal().max_size();

	lea	eax, DWORD PTR $T1[ebp]
	push	eax
	mov	ecx, DWORD PTR _this$[ebp]
	call	?_Getal@?$_String_alloc@$0A@U?$_String_base_types@DV?$allocator@D@std@@@std@@@std@@QBE?AU?$_Wrap_alloc@V?$allocator@D@std@@@2@XZ ; std::_String_alloc<0,std::_String_base_types<char,std::allocator<char> > >::_Getal
	mov	ecx, eax
	call	?max_size@?$_Wrap_alloc@V?$allocator@D@std@@@std@@QBEIXZ ; std::_Wrap_alloc<std::allocator<char> >::max_size
	mov	DWORD PTR __Num$[ebp], eax

; 1739 : 		return (_Num <= 1 ? 1 : _Num - 1);

	cmp	DWORD PTR __Num$[ebp], 1
	ja	SHORT $LN3@max_size
	mov	DWORD PTR tv75[ebp], 1
	jmp	SHORT $LN4@max_size
$LN3@max_size:
	mov	ecx, DWORD PTR __Num$[ebp]
	sub	ecx, 1
	mov	DWORD PTR tv75[ebp], ecx
$LN4@max_size:
	mov	eax, DWORD PTR tv75[ebp]

; 1740 : 		}

	mov	esp, ebp
	pop	ebp
	ret	0
?max_size@?$basic_string@DU?$char_traits@D@std@@V?$allocator@D@2@@std@@QBEIXZ ENDP ; std::basic_string<char,std::char_traits<char>,std::allocator<char> >::max_size
_TEXT	ENDS
; Function compile flags: /Odtp
; File c:\program files (x86)\microsoft visual studio 11.0\vc\include\xstring
;	COMDAT ?size@?$basic_string@DU?$char_traits@D@std@@V?$allocator@D@2@@std@@QBEIXZ
_TEXT	SEGMENT
_this$ = -4						; size = 4
?size@?$basic_string@DU?$char_traits@D@std@@V?$allocator@D@2@@std@@QBEIXZ PROC ; std::basic_string<char,std::char_traits<char>,std::allocator<char> >::size, COMDAT
; _this$ = ecx

; 1732 : 		{	// return length of sequence

	push	ebp
	mov	ebp, esp
	push	ecx
	mov	DWORD PTR _this$[ebp], ecx

; 1733 : 		return (this->_Mysize);

	mov	eax, DWORD PTR _this$[ebp]
	mov	eax, DWORD PTR [eax+16]

; 1734 : 		}

	mov	esp, ebp
	pop	ebp
	ret	0
?size@?$basic_string@DU?$char_traits@D@std@@V?$allocator@D@2@@std@@QBEIXZ ENDP ; std::basic_string<char,std::char_traits<char>,std::allocator<char> >::size
_TEXT	ENDS
; Function compile flags: /Odtp
; File c:\program files (x86)\microsoft visual studio 11.0\vc\include\xstring
;	COMDAT ?erase@?$basic_string@DU?$char_traits@D@std@@V?$allocator@D@2@@std@@QAEAAV12@II@Z
_TEXT	SEGMENT
__Newsize$1 = -12					; size = 4
__Ptr$2 = -8						; size = 4
_this$ = -4						; size = 4
__Off$ = 8						; size = 4
__Count$ = 12						; size = 4
?erase@?$basic_string@DU?$char_traits@D@std@@V?$allocator@D@2@@std@@QAEAAV12@II@Z PROC ; std::basic_string<char,std::char_traits<char>,std::allocator<char> >::erase, COMDAT
; _this$ = ecx

; 1317 : 		{	// erase elements [_Off, _Off + _Count)

	push	ebp
	mov	ebp, esp
	sub	esp, 12					; 0000000cH
	mov	DWORD PTR _this$[ebp], ecx

; 1318 : 		if (this->_Mysize < _Off)

	mov	eax, DWORD PTR _this$[ebp]
	mov	ecx, DWORD PTR [eax+16]
	cmp	ecx, DWORD PTR __Off$[ebp]
	jae	SHORT $LN4@erase

; 1319 : 			_Xran();	// _Off off end

	mov	ecx, DWORD PTR _this$[ebp]
	call	?_Xran@?$basic_string@DU?$char_traits@D@std@@V?$allocator@D@2@@std@@QBEXXZ ; std::basic_string<char,std::char_traits<char>,std::allocator<char> >::_Xran
$LN4@erase:

; 1320 : 		if (this->_Mysize - _Off <= _Count)

	mov	edx, DWORD PTR _this$[ebp]
	mov	eax, DWORD PTR [edx+16]
	sub	eax, DWORD PTR __Off$[ebp]
	cmp	eax, DWORD PTR __Count$[ebp]
	ja	SHORT $LN3@erase

; 1321 : 			_Eos(_Off);	// erase elements [_Off, ...)

	mov	ecx, DWORD PTR __Off$[ebp]
	push	ecx
	mov	ecx, DWORD PTR _this$[ebp]
	call	?_Eos@?$basic_string@DU?$char_traits@D@std@@V?$allocator@D@2@@std@@QAEXI@Z ; std::basic_string<char,std::char_traits<char>,std::allocator<char> >::_Eos
	jmp	SHORT $LN2@erase
$LN3@erase:

; 1322 : 		else if (0 < _Count)

	cmp	DWORD PTR __Count$[ebp], 0
	jbe	SHORT $LN2@erase

; 1323 : 			{	// move elements down
; 1324 : 			value_type *_Ptr = this->_Myptr() + _Off;

	mov	ecx, DWORD PTR _this$[ebp]
	call	?_Myptr@?$_String_val@U?$_Simple_types@D@std@@@std@@QAEPADXZ ; std::_String_val<std::_Simple_types<char> >::_Myptr
	add	eax, DWORD PTR __Off$[ebp]
	mov	DWORD PTR __Ptr$2[ebp], eax

; 1325 : 			size_type _Newsize = this->_Mysize - _Count;

	mov	edx, DWORD PTR _this$[ebp]
	mov	eax, DWORD PTR [edx+16]
	sub	eax, DWORD PTR __Count$[ebp]
	mov	DWORD PTR __Newsize$1[ebp], eax

; 1326 : 			_Traits::move(_Ptr, _Ptr + _Count, _Newsize - _Off);

	mov	ecx, DWORD PTR __Newsize$1[ebp]
	sub	ecx, DWORD PTR __Off$[ebp]
	push	ecx
	mov	edx, DWORD PTR __Ptr$2[ebp]
	add	edx, DWORD PTR __Count$[ebp]
	push	edx
	mov	eax, DWORD PTR __Ptr$2[ebp]
	push	eax
	call	?move@?$char_traits@D@std@@SAPADPADPBDI@Z ; std::char_traits<char>::move
	add	esp, 12					; 0000000cH

; 1327 : 			_Eos(_Newsize);

	mov	ecx, DWORD PTR __Newsize$1[ebp]
	push	ecx
	mov	ecx, DWORD PTR _this$[ebp]
	call	?_Eos@?$basic_string@DU?$char_traits@D@std@@V?$allocator@D@2@@std@@QAEXI@Z ; std::basic_string<char,std::char_traits<char>,std::allocator<char> >::_Eos
$LN2@erase:

; 1328 : 			}
; 1329 : 		return (*this);

	mov	eax, DWORD PTR _this$[ebp]
$LN6@erase:

; 1330 : 		}

	mov	esp, ebp
	pop	ebp
	ret	8
?erase@?$basic_string@DU?$char_traits@D@std@@V?$allocator@D@2@@std@@QAEAAV12@II@Z ENDP ; std::basic_string<char,std::char_traits<char>,std::allocator<char> >::erase
_TEXT	ENDS
; Function compile flags: /Odtp
; File c:\program files (x86)\microsoft visual studio 11.0\vc\include\xstring
;	COMDAT ?erase@?$basic_string@DU?$char_traits@D@std@@V?$allocator@D@2@@std@@QAEAAV12@I@Z
_TEXT	SEGMENT
_this$ = -4						; size = 4
__Off$ = 8						; size = 4
?erase@?$basic_string@DU?$char_traits@D@std@@V?$allocator@D@2@@std@@QAEAAV12@I@Z PROC ; std::basic_string<char,std::char_traits<char>,std::allocator<char> >::erase, COMDAT
; _this$ = ecx

; 1309 : 		{	// erase elements [_Off, ...)

	push	ebp
	mov	ebp, esp
	push	ecx
	mov	DWORD PTR _this$[ebp], ecx

; 1310 : 		if (this->_Mysize < _Off)

	mov	eax, DWORD PTR _this$[ebp]
	mov	ecx, DWORD PTR [eax+16]
	cmp	ecx, DWORD PTR __Off$[ebp]
	jae	SHORT $LN1@erase

; 1311 : 			_Xran();	// _Off off end

	mov	ecx, DWORD PTR _this$[ebp]
	call	?_Xran@?$basic_string@DU?$char_traits@D@std@@V?$allocator@D@2@@std@@QBEXXZ ; std::basic_string<char,std::char_traits<char>,std::allocator<char> >::_Xran
$LN1@erase:

; 1312 : 		_Eos(_Off);

	mov	edx, DWORD PTR __Off$[ebp]
	push	edx
	mov	ecx, DWORD PTR _this$[ebp]
	call	?_Eos@?$basic_string@DU?$char_traits@D@std@@V?$allocator@D@2@@std@@QAEXI@Z ; std::basic_string<char,std::char_traits<char>,std::allocator<char> >::_Eos

; 1313 : 		return (*this);

	mov	eax, DWORD PTR _this$[ebp]
$LN3@erase:

; 1314 : 		}

	mov	esp, ebp
	pop	ebp
	ret	4
?erase@?$basic_string@DU?$char_traits@D@std@@V?$allocator@D@2@@std@@QAEAAV12@I@Z ENDP ; std::basic_string<char,std::char_traits<char>,std::allocator<char> >::erase
_TEXT	ENDS
; Function compile flags: /Odtp
; File c:\program files (x86)\microsoft visual studio 11.0\vc\include\xstring
;	COMDAT ?assign@?$basic_string@DU?$char_traits@D@std@@V?$allocator@D@2@@std@@QAEAAV12@PBD@Z
_TEXT	SEGMENT
_this$ = -4						; size = 4
__Ptr$ = 8						; size = 4
?assign@?$basic_string@DU?$char_traits@D@std@@V?$allocator@D@2@@std@@QAEAAV12@PBD@Z PROC ; std::basic_string<char,std::char_traits<char>,std::allocator<char> >::assign, COMDAT
; _this$ = ecx

; 1142 : 		{	// assign [_Ptr, <null>)

	push	ebp
	mov	ebp, esp
	push	ecx
	mov	DWORD PTR _this$[ebp], ecx

; 1143 : 		_DEBUG_POINTER(_Ptr);
; 1144 : 		return (assign(_Ptr, _Traits::length(_Ptr)));

	mov	eax, DWORD PTR __Ptr$[ebp]
	push	eax
	call	?length@?$char_traits@D@std@@SAIPBD@Z	; std::char_traits<char>::length
	add	esp, 4
	push	eax
	mov	ecx, DWORD PTR __Ptr$[ebp]
	push	ecx
	mov	ecx, DWORD PTR _this$[ebp]
	call	?assign@?$basic_string@DU?$char_traits@D@std@@V?$allocator@D@2@@std@@QAEAAV12@PBDI@Z ; std::basic_string<char,std::char_traits<char>,std::allocator<char> >::assign

; 1145 : 		}

	mov	esp, ebp
	pop	ebp
	ret	4
?assign@?$basic_string@DU?$char_traits@D@std@@V?$allocator@D@2@@std@@QAEAAV12@PBD@Z ENDP ; std::basic_string<char,std::char_traits<char>,std::allocator<char> >::assign
_TEXT	ENDS
; Function compile flags: /Odtp
; File c:\program files (x86)\microsoft visual studio 11.0\vc\include\xstring
;	COMDAT ?assign@?$basic_string@DU?$char_traits@D@std@@V?$allocator@D@2@@std@@QAEAAV12@PBDI@Z
_TEXT	SEGMENT
_this$ = -4						; size = 4
__Ptr$ = 8						; size = 4
__Count$ = 12						; size = 4
?assign@?$basic_string@DU?$char_traits@D@std@@V?$allocator@D@2@@std@@QAEAAV12@PBDI@Z PROC ; std::basic_string<char,std::char_traits<char>,std::allocator<char> >::assign, COMDAT
; _this$ = ecx

; 1123 : 		{	// assign [_Ptr, _Ptr + _Count)

	push	ebp
	mov	ebp, esp
	push	ecx
	mov	DWORD PTR _this$[ebp], ecx

; 1124 :  #if _ITERATOR_DEBUG_LEVEL == 2
; 1125 : 		if (_Count != 0)
; 1126 : 			_DEBUG_POINTER(_Ptr);
; 1127 :  #endif /* _ITERATOR_DEBUG_LEVEL == 2 */
; 1128 : 
; 1129 : 		if (_Inside(_Ptr))

	mov	eax, DWORD PTR __Ptr$[ebp]
	push	eax
	mov	ecx, DWORD PTR _this$[ebp]
	call	?_Inside@?$basic_string@DU?$char_traits@D@std@@V?$allocator@D@2@@std@@QAE_NPBD@Z ; std::basic_string<char,std::char_traits<char>,std::allocator<char> >::_Inside
	movzx	ecx, al
	test	ecx, ecx
	je	SHORT $LN2@assign

; 1130 : 			return (assign(*this,
; 1131 : 				_Ptr - this->_Myptr(), _Count));	// substring

	mov	edx, DWORD PTR __Count$[ebp]
	push	edx
	mov	ecx, DWORD PTR _this$[ebp]
	call	?_Myptr@?$_String_val@U?$_Simple_types@D@std@@@std@@QAEPADXZ ; std::_String_val<std::_Simple_types<char> >::_Myptr
	mov	ecx, DWORD PTR __Ptr$[ebp]
	sub	ecx, eax
	push	ecx
	mov	edx, DWORD PTR _this$[ebp]
	push	edx
	mov	ecx, DWORD PTR _this$[ebp]
	call	?assign@?$basic_string@DU?$char_traits@D@std@@V?$allocator@D@2@@std@@QAEAAV12@ABV12@II@Z ; std::basic_string<char,std::char_traits<char>,std::allocator<char> >::assign
	jmp	SHORT $LN3@assign
$LN2@assign:

; 1132 : 
; 1133 : 		if (_Grow(_Count))

	push	0
	mov	eax, DWORD PTR __Count$[ebp]
	push	eax
	mov	ecx, DWORD PTR _this$[ebp]
	call	?_Grow@?$basic_string@DU?$char_traits@D@std@@V?$allocator@D@2@@std@@QAE_NI_N@Z ; std::basic_string<char,std::char_traits<char>,std::allocator<char> >::_Grow
	movzx	ecx, al
	test	ecx, ecx
	je	SHORT $LN1@assign

; 1134 : 			{	// make room and assign new stuff
; 1135 : 			_Traits::copy(this->_Myptr(), _Ptr, _Count);

	mov	edx, DWORD PTR __Count$[ebp]
	push	edx
	mov	eax, DWORD PTR __Ptr$[ebp]
	push	eax
	mov	ecx, DWORD PTR _this$[ebp]
	call	?_Myptr@?$_String_val@U?$_Simple_types@D@std@@@std@@QAEPADXZ ; std::_String_val<std::_Simple_types<char> >::_Myptr
	push	eax
	call	?copy@?$char_traits@D@std@@SAPADPADPBDI@Z ; std::char_traits<char>::copy
	add	esp, 12					; 0000000cH

; 1136 : 			_Eos(_Count);

	mov	ecx, DWORD PTR __Count$[ebp]
	push	ecx
	mov	ecx, DWORD PTR _this$[ebp]
	call	?_Eos@?$basic_string@DU?$char_traits@D@std@@V?$allocator@D@2@@std@@QAEXI@Z ; std::basic_string<char,std::char_traits<char>,std::allocator<char> >::_Eos
$LN1@assign:

; 1137 : 			}
; 1138 : 		return (*this);

	mov	eax, DWORD PTR _this$[ebp]
$LN3@assign:

; 1139 : 		}

	mov	esp, ebp
	pop	ebp
	ret	8
?assign@?$basic_string@DU?$char_traits@D@std@@V?$allocator@D@2@@std@@QAEAAV12@PBDI@Z ENDP ; std::basic_string<char,std::char_traits<char>,std::allocator<char> >::assign
_TEXT	ENDS
; Function compile flags: /Odtp
; File c:\program files (x86)\microsoft visual studio 11.0\vc\include\xstring
;	COMDAT ?assign@?$basic_string@DU?$char_traits@D@std@@V?$allocator@D@2@@std@@QAEAAV12@ABV12@II@Z
_TEXT	SEGMENT
__Num$ = -8						; size = 4
_this$ = -4						; size = 4
__Right$ = 8						; size = 4
__Roff$ = 12						; size = 4
__Count$ = 16						; size = 4
?assign@?$basic_string@DU?$char_traits@D@std@@V?$allocator@D@2@@std@@QAEAAV12@ABV12@II@Z PROC ; std::basic_string<char,std::char_traits<char>,std::allocator<char> >::assign, COMDAT
; _this$ = ecx

; 1104 : 		{	// assign _Right [_Roff, _Roff + _Count)

	push	ebp
	mov	ebp, esp
	sub	esp, 8
	mov	DWORD PTR _this$[ebp], ecx

; 1105 : 		if (_Right.size() < _Roff)

	mov	ecx, DWORD PTR __Right$[ebp]
	call	?size@?$basic_string@DU?$char_traits@D@std@@V?$allocator@D@2@@std@@QBEIXZ ; std::basic_string<char,std::char_traits<char>,std::allocator<char> >::size
	cmp	eax, DWORD PTR __Roff$[ebp]
	jae	SHORT $LN5@assign

; 1106 : 			_Xran();	// _Roff off end

	mov	ecx, DWORD PTR _this$[ebp]
	call	?_Xran@?$basic_string@DU?$char_traits@D@std@@V?$allocator@D@2@@std@@QBEXXZ ; std::basic_string<char,std::char_traits<char>,std::allocator<char> >::_Xran
$LN5@assign:

; 1107 : 		size_type _Num = _Right.size() - _Roff;

	mov	ecx, DWORD PTR __Right$[ebp]
	call	?size@?$basic_string@DU?$char_traits@D@std@@V?$allocator@D@2@@std@@QBEIXZ ; std::basic_string<char,std::char_traits<char>,std::allocator<char> >::size
	sub	eax, DWORD PTR __Roff$[ebp]
	mov	DWORD PTR __Num$[ebp], eax

; 1108 : 		if (_Count < _Num)

	mov	eax, DWORD PTR __Count$[ebp]
	cmp	eax, DWORD PTR __Num$[ebp]
	jae	SHORT $LN4@assign

; 1109 : 			_Num = _Count;	// trim _Num to size

	mov	ecx, DWORD PTR __Count$[ebp]
	mov	DWORD PTR __Num$[ebp], ecx
$LN4@assign:

; 1110 : 
; 1111 : 		if (this == &_Right)

	mov	edx, DWORD PTR _this$[ebp]
	cmp	edx, DWORD PTR __Right$[ebp]
	jne	SHORT $LN3@assign

; 1112 : 			erase((size_type)(_Roff + _Num)), erase(0, _Roff);	// substring

	mov	eax, DWORD PTR __Roff$[ebp]
	add	eax, DWORD PTR __Num$[ebp]
	push	eax
	mov	ecx, DWORD PTR _this$[ebp]
	call	?erase@?$basic_string@DU?$char_traits@D@std@@V?$allocator@D@2@@std@@QAEAAV12@I@Z ; std::basic_string<char,std::char_traits<char>,std::allocator<char> >::erase
	mov	ecx, DWORD PTR __Roff$[ebp]
	push	ecx
	push	0
	mov	ecx, DWORD PTR _this$[ebp]
	call	?erase@?$basic_string@DU?$char_traits@D@std@@V?$allocator@D@2@@std@@QAEAAV12@II@Z ; std::basic_string<char,std::char_traits<char>,std::allocator<char> >::erase
	jmp	SHORT $LN2@assign
$LN3@assign:

; 1113 : 		else if (_Grow(_Num))

	push	0
	mov	edx, DWORD PTR __Num$[ebp]
	push	edx
	mov	ecx, DWORD PTR _this$[ebp]
	call	?_Grow@?$basic_string@DU?$char_traits@D@std@@V?$allocator@D@2@@std@@QAE_NI_N@Z ; std::basic_string<char,std::char_traits<char>,std::allocator<char> >::_Grow
	movzx	eax, al
	test	eax, eax
	je	SHORT $LN2@assign

; 1114 : 			{	// make room and assign new stuff
; 1115 : 			_Traits::copy(this->_Myptr(),
; 1116 : 				_Right._Myptr() + _Roff, _Num);

	mov	ecx, DWORD PTR __Num$[ebp]
	push	ecx
	mov	ecx, DWORD PTR __Right$[ebp]
	call	?_Myptr@?$_String_val@U?$_Simple_types@D@std@@@std@@QBEPBDXZ ; std::_String_val<std::_Simple_types<char> >::_Myptr
	add	eax, DWORD PTR __Roff$[ebp]
	push	eax
	mov	ecx, DWORD PTR _this$[ebp]
	call	?_Myptr@?$_String_val@U?$_Simple_types@D@std@@@std@@QAEPADXZ ; std::_String_val<std::_Simple_types<char> >::_Myptr
	push	eax
	call	?copy@?$char_traits@D@std@@SAPADPADPBDI@Z ; std::char_traits<char>::copy
	add	esp, 12					; 0000000cH

; 1117 : 			_Eos(_Num);

	mov	edx, DWORD PTR __Num$[ebp]
	push	edx
	mov	ecx, DWORD PTR _this$[ebp]
	call	?_Eos@?$basic_string@DU?$char_traits@D@std@@V?$allocator@D@2@@std@@QAEXI@Z ; std::basic_string<char,std::char_traits<char>,std::allocator<char> >::_Eos
$LN2@assign:

; 1118 : 			}
; 1119 : 		return (*this);

	mov	eax, DWORD PTR _this$[ebp]
$LN7@assign:

; 1120 : 		}

	mov	esp, ebp
	pop	ebp
	ret	12					; 0000000cH
?assign@?$basic_string@DU?$char_traits@D@std@@V?$allocator@D@2@@std@@QAEAAV12@ABV12@II@Z ENDP ; std::basic_string<char,std::char_traits<char>,std::allocator<char> >::assign
_TEXT	ENDS
; Function compile flags: /Odtp
; File c:\program files (x86)\microsoft visual studio 11.0\vc\include\xstring
;	COMDAT ??0?$basic_string@DU?$char_traits@D@std@@V?$allocator@D@2@@std@@QAE@PBD@Z
_TEXT	SEGMENT
_this$ = -8						; size = 4
$T1 = -1						; size = 1
__Ptr$ = 8						; size = 4
??0?$basic_string@DU?$char_traits@D@std@@V?$allocator@D@2@@std@@QAE@PBD@Z PROC ; std::basic_string<char,std::char_traits<char>,std::allocator<char> >::basic_string<char,std::char_traits<char>,std::allocator<char> >, COMDAT
; _this$ = ecx

; 791  : 		{	// construct from [_Ptr, <null>)

	push	ebp
	mov	ebp, esp
	sub	esp, 8
	mov	DWORD PTR _this$[ebp], ecx
	lea	ecx, DWORD PTR $T1[ebp]
	call	??0?$allocator@D@std@@QAE@XZ		; std::allocator<char>::allocator<char>
	push	eax
	mov	ecx, DWORD PTR _this$[ebp]
	call	??0?$_String_alloc@$0A@U?$_String_base_types@DV?$allocator@D@std@@@std@@@std@@QAE@ABV?$allocator@D@1@@Z ; std::_String_alloc<0,std::_String_base_types<char,std::allocator<char> > >::_String_alloc<0,std::_String_base_types<char,std::allocator<char> > >

; 792  : 		_Tidy();

	push	0
	push	0
	mov	ecx, DWORD PTR _this$[ebp]
	call	?_Tidy@?$basic_string@DU?$char_traits@D@std@@V?$allocator@D@2@@std@@QAEX_NI@Z ; std::basic_string<char,std::char_traits<char>,std::allocator<char> >::_Tidy

; 793  : 		assign(_Ptr);

	mov	eax, DWORD PTR __Ptr$[ebp]
	push	eax
	mov	ecx, DWORD PTR _this$[ebp]
	call	?assign@?$basic_string@DU?$char_traits@D@std@@V?$allocator@D@2@@std@@QAEAAV12@PBD@Z ; std::basic_string<char,std::char_traits<char>,std::allocator<char> >::assign

; 794  : 		}

	mov	eax, DWORD PTR _this$[ebp]
	mov	esp, ebp
	pop	ebp
	ret	4
??0?$basic_string@DU?$char_traits@D@std@@V?$allocator@D@2@@std@@QAE@PBD@Z ENDP ; std::basic_string<char,std::char_traits<char>,std::allocator<char> >::basic_string<char,std::char_traits<char>,std::allocator<char> >
_TEXT	ENDS
; Function compile flags: /Odtp
; File c:\program files (x86)\microsoft visual studio 11.0\vc\include\xstring
;	COMDAT ?_Getal@?$_String_alloc@$0A@U?$_String_base_types@DV?$allocator@D@std@@@std@@@std@@QBE?AU?$_Wrap_alloc@V?$allocator@D@std@@@2@XZ
_TEXT	SEGMENT
_this$ = -4						; size = 4
___$ReturnUdt$ = 8					; size = 4
?_Getal@?$_String_alloc@$0A@U?$_String_base_types@DV?$allocator@D@std@@@std@@@std@@QBE?AU?$_Wrap_alloc@V?$allocator@D@std@@@2@XZ PROC ; std::_String_alloc<0,std::_String_base_types<char,std::allocator<char> > >::_Getal, COMDAT
; _this$ = ecx

; 688  : 		{	// get reference to allocator

	push	ebp
	mov	ebp, esp
	push	ecx
	mov	DWORD PTR _this$[ebp], ecx

; 689  : 		return (_Alty());

	mov	ecx, DWORD PTR ___$ReturnUdt$[ebp]
	call	??0?$_Wrap_alloc@V?$allocator@D@std@@@std@@QAE@XZ ; std::_Wrap_alloc<std::allocator<char> >::_Wrap_alloc<std::allocator<char> >
	mov	eax, DWORD PTR ___$ReturnUdt$[ebp]

; 690  : 		}

	mov	esp, ebp
	pop	ebp
	ret	4
?_Getal@?$_String_alloc@$0A@U?$_String_base_types@DV?$allocator@D@std@@@std@@@std@@QBE?AU?$_Wrap_alloc@V?$allocator@D@std@@@2@XZ ENDP ; std::_String_alloc<0,std::_String_base_types<char,std::allocator<char> > >::_Getal
_TEXT	ENDS
; Function compile flags: /Odtp
; File c:\program files (x86)\microsoft visual studio 11.0\vc\include\xstring
;	COMDAT ??0?$_String_alloc@$0A@U?$_String_base_types@DV?$allocator@D@std@@@std@@@std@@QAE@ABV?$allocator@D@1@@Z
_TEXT	SEGMENT
_this$ = -4						; size = 4
___formal$ = 8						; size = 4
??0?$_String_alloc@$0A@U?$_String_base_types@DV?$allocator@D@std@@@std@@@std@@QAE@ABV?$allocator@D@1@@Z PROC ; std::_String_alloc<0,std::_String_base_types<char,std::allocator<char> > >::_String_alloc<0,std::_String_base_types<char,std::allocator<char> > >, COMDAT
; _this$ = ecx

; 635  : 	_String_alloc(const _Alloc& = _Alloc())

	push	ebp
	mov	ebp, esp
	push	ecx
	mov	DWORD PTR _this$[ebp], ecx
	mov	ecx, DWORD PTR _this$[ebp]
	call	??0?$_String_val@U?$_Simple_types@D@std@@@std@@QAE@XZ ; std::_String_val<std::_Simple_types<char> >::_String_val<std::_Simple_types<char> >

; 636  : 		{	// construct allocator from _Al
; 637  : 		}

	mov	eax, DWORD PTR _this$[ebp]
	mov	esp, ebp
	pop	ebp
	ret	4
??0?$_String_alloc@$0A@U?$_String_base_types@DV?$allocator@D@std@@@std@@@std@@QAE@ABV?$allocator@D@1@@Z ENDP ; std::_String_alloc<0,std::_String_base_types<char,std::allocator<char> > >::_String_alloc<0,std::_String_base_types<char,std::allocator<char> > >
_TEXT	ENDS
; Function compile flags: /Odtp
; File c:\program files (x86)\microsoft visual studio 11.0\vc\include\xstring
;	COMDAT ?_Myptr@?$_String_val@U?$_Simple_types@D@std@@@std@@QBEPBDXZ
_TEXT	SEGMENT
tv72 = -8						; size = 4
_this$ = -4						; size = 4
?_Myptr@?$_String_val@U?$_Simple_types@D@std@@@std@@QBEPBDXZ PROC ; std::_String_val<std::_Simple_types<char> >::_Myptr, COMDAT
; _this$ = ecx

; 521  : 		{	// determine current pointer to buffer for nonmutable string

	push	ebp
	mov	ebp, esp
	sub	esp, 8
	mov	DWORD PTR _this$[ebp], ecx

; 522  : 		return (this->_BUF_SIZE <= this->_Myres
; 523  : 			? _STD addressof(*this->_Bx._Ptr)
; 524  : 			: this->_Bx._Buf);

	mov	eax, DWORD PTR _this$[ebp]
	cmp	DWORD PTR [eax+20], 16			; 00000010H
	jb	SHORT $LN3@Myptr
	mov	ecx, DWORD PTR _this$[ebp]
	mov	edx, DWORD PTR [ecx]
	push	edx
	call	??$addressof@D@std@@YAPADAAD@Z		; std::addressof<char>
	add	esp, 4
	mov	DWORD PTR tv72[ebp], eax
	jmp	SHORT $LN4@Myptr
$LN3@Myptr:
	mov	eax, DWORD PTR _this$[ebp]
	mov	DWORD PTR tv72[ebp], eax
$LN4@Myptr:
	mov	eax, DWORD PTR tv72[ebp]

; 525  : 		}

	mov	esp, ebp
	pop	ebp
	ret	0
?_Myptr@?$_String_val@U?$_Simple_types@D@std@@@std@@QBEPBDXZ ENDP ; std::_String_val<std::_Simple_types<char> >::_Myptr
_TEXT	ENDS
; Function compile flags: /Odtp
; File c:\program files (x86)\microsoft visual studio 11.0\vc\include\xstring
;	COMDAT ?_Myptr@?$_String_val@U?$_Simple_types@D@std@@@std@@QAEPADXZ
_TEXT	SEGMENT
tv72 = -8						; size = 4
_this$ = -4						; size = 4
?_Myptr@?$_String_val@U?$_Simple_types@D@std@@@std@@QAEPADXZ PROC ; std::_String_val<std::_Simple_types<char> >::_Myptr, COMDAT
; _this$ = ecx

; 514  : 		{	// determine current pointer to buffer for mutable string

	push	ebp
	mov	ebp, esp
	sub	esp, 8
	mov	DWORD PTR _this$[ebp], ecx

; 515  : 		return (this->_BUF_SIZE <= this->_Myres
; 516  : 			? _STD addressof(*this->_Bx._Ptr)
; 517  : 			: this->_Bx._Buf);

	mov	eax, DWORD PTR _this$[ebp]
	cmp	DWORD PTR [eax+20], 16			; 00000010H
	jb	SHORT $LN3@Myptr
	mov	ecx, DWORD PTR _this$[ebp]
	mov	edx, DWORD PTR [ecx]
	push	edx
	call	??$addressof@D@std@@YAPADAAD@Z		; std::addressof<char>
	add	esp, 4
	mov	DWORD PTR tv72[ebp], eax
	jmp	SHORT $LN4@Myptr
$LN3@Myptr:
	mov	eax, DWORD PTR _this$[ebp]
	mov	DWORD PTR tv72[ebp], eax
$LN4@Myptr:
	mov	eax, DWORD PTR tv72[ebp]

; 518  : 		}

	mov	esp, ebp
	pop	ebp
	ret	0
?_Myptr@?$_String_val@U?$_Simple_types@D@std@@@std@@QAEPADXZ ENDP ; std::_String_val<std::_Simple_types<char> >::_Myptr
_TEXT	ENDS
; Function compile flags: /Odtp
; File c:\program files (x86)\microsoft visual studio 11.0\vc\include\xstring
;	COMDAT ??0?$_String_val@U?$_Simple_types@D@std@@@std@@QAE@XZ
_TEXT	SEGMENT
_this$ = -4						; size = 4
??0?$_String_val@U?$_Simple_types@D@std@@@std@@QAE@XZ PROC ; std::_String_val<std::_Simple_types<char> >::_String_val<std::_Simple_types<char> >, COMDAT
; _this$ = ecx

; 496  : 	_String_val()

	push	ebp
	mov	ebp, esp
	push	ecx
	mov	DWORD PTR _this$[ebp], ecx

; 497  : 		{	// initialize values
; 498  : 		_Mysize = 0;

	mov	eax, DWORD PTR _this$[ebp]
	mov	DWORD PTR [eax+16], 0

; 499  : 		_Myres = 0;

	mov	ecx, DWORD PTR _this$[ebp]
	mov	DWORD PTR [ecx+20], 0

; 500  : 		}

	mov	eax, DWORD PTR _this$[ebp]
	mov	esp, ebp
	pop	ebp
	ret	0
??0?$_String_val@U?$_Simple_types@D@std@@@std@@QAE@XZ ENDP ; std::_String_val<std::_Simple_types<char> >::_String_val<std::_Simple_types<char> >
_TEXT	ENDS
; Function compile flags: /Odtp
; File c:\program files (x86)\microsoft visual studio 11.0\vc\include\xmemory0
;	COMDAT ?max_size@?$_Wrap_alloc@V?$allocator@D@std@@@std@@QBEIXZ
_TEXT	SEGMENT
_this$ = -4						; size = 4
?max_size@?$_Wrap_alloc@V?$allocator@D@std@@@std@@QBEIXZ PROC ; std::_Wrap_alloc<std::allocator<char> >::max_size, COMDAT
; _this$ = ecx

; 913  : 		{	// get maximum size

	push	ebp
	mov	ebp, esp
	push	ecx
	mov	DWORD PTR _this$[ebp], ecx

; 914  : 		return (_Mytraits::max_size(*this));

	mov	eax, DWORD PTR _this$[ebp]
	push	eax
	call	?max_size@?$allocator_traits@V?$allocator@D@std@@@std@@SAIABV?$allocator@D@2@@Z ; std::allocator_traits<std::allocator<char> >::max_size
	add	esp, 4

; 915  : 		}

	mov	esp, ebp
	pop	ebp
	ret	0
?max_size@?$_Wrap_alloc@V?$allocator@D@std@@@std@@QBEIXZ ENDP ; std::_Wrap_alloc<std::allocator<char> >::max_size
_TEXT	ENDS
; Function compile flags: /Odtp
; File c:\program files (x86)\microsoft visual studio 11.0\vc\include\xmemory0
;	COMDAT ?deallocate@?$_Wrap_alloc@V?$allocator@D@std@@@std@@QAEXPADI@Z
_TEXT	SEGMENT
_this$ = -4						; size = 4
__Ptr$ = 8						; size = 4
__Count$ = 12						; size = 4
?deallocate@?$_Wrap_alloc@V?$allocator@D@std@@@std@@QAEXPADI@Z PROC ; std::_Wrap_alloc<std::allocator<char> >::deallocate, COMDAT
; _this$ = ecx

; 886  : 		{	// deallocate object at _Ptr, ignore size

	push	ebp
	mov	ebp, esp
	push	ecx
	mov	DWORD PTR _this$[ebp], ecx

; 887  : 		_Mybase::deallocate(_Ptr, _Count);

	mov	eax, DWORD PTR __Count$[ebp]
	push	eax
	mov	ecx, DWORD PTR __Ptr$[ebp]
	push	ecx
	mov	ecx, DWORD PTR _this$[ebp]
	call	?deallocate@?$allocator@D@std@@QAEXPADI@Z ; std::allocator<char>::deallocate

; 888  : 		}

	mov	esp, ebp
	pop	ebp
	ret	8
?deallocate@?$_Wrap_alloc@V?$allocator@D@std@@@std@@QAEXPADI@Z ENDP ; std::_Wrap_alloc<std::allocator<char> >::deallocate
_TEXT	ENDS
; Function compile flags: /Odtp
; File c:\program files (x86)\microsoft visual studio 11.0\vc\include\xmemory0
;	COMDAT ?allocate@?$_Wrap_alloc@V?$allocator@D@std@@@std@@QAEPADI@Z
_TEXT	SEGMENT
_this$ = -4						; size = 4
__Count$ = 8						; size = 4
?allocate@?$_Wrap_alloc@V?$allocator@D@std@@@std@@QAEPADI@Z PROC ; std::_Wrap_alloc<std::allocator<char> >::allocate, COMDAT
; _this$ = ecx

; 875  : 		{	// allocate array of _Count elements

	push	ebp
	mov	ebp, esp
	push	ecx
	mov	DWORD PTR _this$[ebp], ecx

; 876  : 		return (_Mybase::allocate(_Count));

	mov	eax, DWORD PTR __Count$[ebp]
	push	eax
	mov	ecx, DWORD PTR _this$[ebp]
	call	?allocate@?$allocator@D@std@@QAEPADI@Z	; std::allocator<char>::allocate

; 877  : 		}

	mov	esp, ebp
	pop	ebp
	ret	4
?allocate@?$_Wrap_alloc@V?$allocator@D@std@@@std@@QAEPADI@Z ENDP ; std::_Wrap_alloc<std::allocator<char> >::allocate
_TEXT	ENDS
; Function compile flags: /Odtp
; File c:\program files (x86)\microsoft visual studio 11.0\vc\include\xmemory0
;	COMDAT ??0?$_Wrap_alloc@V?$allocator@D@std@@@std@@QAE@XZ
_TEXT	SEGMENT
_this$ = -4						; size = 4
??0?$_Wrap_alloc@V?$allocator@D@std@@@std@@QAE@XZ PROC	; std::_Wrap_alloc<std::allocator<char> >::_Wrap_alloc<std::allocator<char> >, COMDAT
; _this$ = ecx

; 830  : 		{	// construct default allocator (do nothing)

	push	ebp
	mov	ebp, esp
	push	ecx
	mov	DWORD PTR _this$[ebp], ecx
	mov	ecx, DWORD PTR _this$[ebp]
	call	??0?$allocator@D@std@@QAE@XZ		; std::allocator<char>::allocator<char>

; 831  : 		}

	mov	eax, DWORD PTR _this$[ebp]
	mov	esp, ebp
	pop	ebp
	ret	0
??0?$_Wrap_alloc@V?$allocator@D@std@@@std@@QAE@XZ ENDP	; std::_Wrap_alloc<std::allocator<char> >::_Wrap_alloc<std::allocator<char> >
_TEXT	ENDS
; Function compile flags: /Odtp
; File c:\program files (x86)\microsoft visual studio 11.0\vc\include\xmemory0
;	COMDAT ?max_size@?$allocator_traits@V?$allocator@D@std@@@std@@SAIABV?$allocator@D@2@@Z
_TEXT	SEGMENT
__Al$ = 8						; size = 4
?max_size@?$allocator_traits@V?$allocator@D@std@@@std@@SAIABV?$allocator@D@2@@Z PROC ; std::allocator_traits<std::allocator<char> >::max_size, COMDAT

; 761  : 		{	// get maximum size

	push	ebp
	mov	ebp, esp

; 762  : 		return (_Al.max_size());

	mov	ecx, DWORD PTR __Al$[ebp]
	call	?max_size@?$allocator@D@std@@QBEIXZ	; std::allocator<char>::max_size

; 763  : 		}

	pop	ebp
	ret	0
?max_size@?$allocator_traits@V?$allocator@D@std@@@std@@SAIABV?$allocator@D@2@@Z ENDP ; std::allocator_traits<std::allocator<char> >::max_size
_TEXT	ENDS
; Function compile flags: /Odtp
; File c:\program files (x86)\microsoft visual studio 11.0\vc\include\xmemory0
;	COMDAT ?max_size@?$allocator@D@std@@QBEIXZ
_TEXT	SEGMENT
_this$ = -4						; size = 4
?max_size@?$allocator@D@std@@QBEIXZ PROC		; std::allocator<char>::max_size, COMDAT
; _this$ = ecx

; 627  : 		{	// estimate maximum array size

	push	ebp
	mov	ebp, esp
	push	ecx
	mov	DWORD PTR _this$[ebp], ecx

; 628  : 		return ((size_t)(-1) / sizeof (_Ty));

	or	eax, -1

; 629  : 		}

	mov	esp, ebp
	pop	ebp
	ret	0
?max_size@?$allocator@D@std@@QBEIXZ ENDP		; std::allocator<char>::max_size
_TEXT	ENDS
; Function compile flags: /Odtp
; File c:\program files (x86)\microsoft visual studio 11.0\vc\include\xmemory0
;	COMDAT ?allocate@?$allocator@D@std@@QAEPADI@Z
_TEXT	SEGMENT
_this$ = -4						; size = 4
__Count$ = 8						; size = 4
?allocate@?$allocator@D@std@@QAEPADI@Z PROC		; std::allocator<char>::allocate, COMDAT
; _this$ = ecx

; 590  : 		{	// allocate array of _Count elements

	push	ebp
	mov	ebp, esp
	push	ecx
	mov	DWORD PTR _this$[ebp], ecx

; 591  : 		return (_Allocate(_Count, (pointer)0));

	push	0
	mov	eax, DWORD PTR __Count$[ebp]
	push	eax
	call	??$_Allocate@D@std@@YAPADIPAD@Z		; std::_Allocate<char>
	add	esp, 8

; 592  : 		}

	mov	esp, ebp
	pop	ebp
	ret	4
?allocate@?$allocator@D@std@@QAEPADI@Z ENDP		; std::allocator<char>::allocate
_TEXT	ENDS
; Function compile flags: /Odtp
; File c:\program files (x86)\microsoft visual studio 11.0\vc\include\xmemory0
;	COMDAT ?deallocate@?$allocator@D@std@@QAEXPADI@Z
_TEXT	SEGMENT
_this$ = -4						; size = 4
__Ptr$ = 8						; size = 4
___formal$ = 12						; size = 4
?deallocate@?$allocator@D@std@@QAEXPADI@Z PROC		; std::allocator<char>::deallocate, COMDAT
; _this$ = ecx

; 585  : 		{	// deallocate object at _Ptr, ignore size

	push	ebp
	mov	ebp, esp
	push	ecx
	mov	DWORD PTR _this$[ebp], ecx

; 586  : 		::operator delete(_Ptr);

	mov	eax, DWORD PTR __Ptr$[ebp]
	push	eax
	call	??3@YAXPAX@Z				; operator delete
	add	esp, 4

; 587  : 		}

	mov	esp, ebp
	pop	ebp
	ret	8
?deallocate@?$allocator@D@std@@QAEXPADI@Z ENDP		; std::allocator<char>::deallocate
_TEXT	ENDS
; Function compile flags: /Odtp
; File c:\program files (x86)\microsoft visual studio 11.0\vc\include\xmemory0
;	COMDAT ??0?$allocator@D@std@@QAE@XZ
_TEXT	SEGMENT
_this$ = -4						; size = 4
??0?$allocator@D@std@@QAE@XZ PROC			; std::allocator<char>::allocator<char>, COMDAT
; _this$ = ecx

; 565  : 	allocator() _THROW0()

	push	ebp
	mov	ebp, esp
	push	ecx
	mov	DWORD PTR _this$[ebp], ecx

; 566  : 		{	// construct default allocator (do nothing)
; 567  : 		}

	mov	eax, DWORD PTR _this$[ebp]
	mov	esp, ebp
	pop	ebp
	ret	0
??0?$allocator@D@std@@QAE@XZ ENDP			; std::allocator<char>::allocator<char>
_TEXT	ENDS
; Function compile flags: /Odtp
; File c:\program files (x86)\microsoft visual studio 11.0\vc\include\xutility
;	COMDAT ??__Eallocator_arg@std@@YAXXZ
text$yc	SEGMENT
$T1 = -1						; size = 1
??__Eallocator_arg@std@@YAXXZ PROC			; std::`dynamic initializer for 'allocator_arg'', COMDAT

; 3644 : const allocator_arg_t allocator_arg = allocator_arg_t();

	push	ebp
	mov	ebp, esp
	push	ecx
	xor	eax, eax
	mov	BYTE PTR $T1[ebp], al
	mov	esp, ebp
	pop	ebp
	ret	0
??__Eallocator_arg@std@@YAXXZ ENDP			; std::`dynamic initializer for 'allocator_arg''
text$yc	ENDS
; Function compile flags: /Odtp
; File c:\program files (x86)\microsoft visual studio 11.0\vc\include\utility
;	COMDAT ??__Epiecewise_construct@std@@YAXXZ
text$yc	SEGMENT
$T1 = -1						; size = 1
??__Epiecewise_construct@std@@YAXXZ PROC		; std::`dynamic initializer for 'piecewise_construct'', COMDAT

; 65   : 	piecewise_construct_t();

	push	ebp
	mov	ebp, esp
	push	ecx
	xor	eax, eax
	mov	BYTE PTR $T1[ebp], al
	mov	esp, ebp
	pop	ebp
	ret	0
??__Epiecewise_construct@std@@YAXXZ ENDP		; std::`dynamic initializer for 'piecewise_construct''
text$yc	ENDS
; Function compile flags: /Odtp
; File c:\program files (x86)\microsoft visual studio 11.0\vc\include\iosfwd
;	COMDAT ?assign@?$char_traits@D@std@@SAXAADABD@Z
_TEXT	SEGMENT
__Left$ = 8						; size = 4
__Right$ = 12						; size = 4
?assign@?$char_traits@D@std@@SAXAADABD@Z PROC		; std::char_traits<char>::assign, COMDAT

; 563  : 		{	// assign an element

	push	ebp
	mov	ebp, esp

; 564  : 		_Left = _Right;

	mov	eax, DWORD PTR __Left$[ebp]
	mov	ecx, DWORD PTR __Right$[ebp]
	mov	dl, BYTE PTR [ecx]
	mov	BYTE PTR [eax], dl

; 565  : 		}

	pop	ebp
	ret	0
?assign@?$char_traits@D@std@@SAXAADABD@Z ENDP		; std::char_traits<char>::assign
_TEXT	ENDS
; Function compile flags: /Odtp
; File c:\program files (x86)\microsoft visual studio 11.0\vc\include\iosfwd
;	COMDAT ?move@?$char_traits@D@std@@SAPADPADPBDI@Z
_TEXT	SEGMENT
tv69 = -4						; size = 4
__First1$ = 8						; size = 4
__First2$ = 12						; size = 4
__Count$ = 16						; size = 4
?move@?$char_traits@D@std@@SAPADPADPBDI@Z PROC		; std::char_traits<char>::move, COMDAT

; 551  : 		{	// copy [_First2, _First2 + _Count) to [_First1, ...)

	push	ebp
	mov	ebp, esp
	push	ecx

; 552  : 		return (_Count == 0 ? _First1
; 553  : 			: (_Elem *)_CSTD memmove(_First1, _First2, _Count));

	cmp	DWORD PTR __Count$[ebp], 0
	jne	SHORT $LN3@move
	mov	eax, DWORD PTR __First1$[ebp]
	mov	DWORD PTR tv69[ebp], eax
	jmp	SHORT $LN4@move
$LN3@move:
	mov	ecx, DWORD PTR __Count$[ebp]
	push	ecx
	mov	edx, DWORD PTR __First2$[ebp]
	push	edx
	mov	eax, DWORD PTR __First1$[ebp]
	push	eax
	call	_memmove
	add	esp, 12					; 0000000cH
	mov	DWORD PTR tv69[ebp], eax
$LN4@move:
	mov	eax, DWORD PTR tv69[ebp]

; 554  : 		}

	mov	esp, ebp
	pop	ebp
	ret	0
?move@?$char_traits@D@std@@SAPADPADPBDI@Z ENDP		; std::char_traits<char>::move
_TEXT	ENDS
; Function compile flags: /Odtp
; File c:\program files (x86)\microsoft visual studio 11.0\vc\include\iosfwd
;	COMDAT ?copy@?$char_traits@D@std@@SAPADPADPBDI@Z
_TEXT	SEGMENT
tv69 = -4						; size = 4
__First1$ = 8						; size = 4
__First2$ = 12						; size = 4
__Count$ = 16						; size = 4
?copy@?$char_traits@D@std@@SAPADPADPBDI@Z PROC		; std::char_traits<char>::copy, COMDAT

; 528  : 		{	// copy [_First2, _First2 + _Count) to [_First1, ...)

	push	ebp
	mov	ebp, esp
	push	ecx

; 529  : 		return (_Count == 0 ? _First1
; 530  : 			: (_Elem *)_CSTD memcpy(_First1, _First2, _Count));

	cmp	DWORD PTR __Count$[ebp], 0
	jne	SHORT $LN3@copy
	mov	eax, DWORD PTR __First1$[ebp]
	mov	DWORD PTR tv69[ebp], eax
	jmp	SHORT $LN4@copy
$LN3@copy:
	mov	ecx, DWORD PTR __Count$[ebp]
	push	ecx
	mov	edx, DWORD PTR __First2$[ebp]
	push	edx
	mov	eax, DWORD PTR __First1$[ebp]
	push	eax
	call	_memcpy
	add	esp, 12					; 0000000cH
	mov	DWORD PTR tv69[ebp], eax
$LN4@copy:
	mov	eax, DWORD PTR tv69[ebp]

; 531  : 		}

	mov	esp, ebp
	pop	ebp
	ret	0
?copy@?$char_traits@D@std@@SAPADPADPBDI@Z ENDP		; std::char_traits<char>::copy
_TEXT	ENDS
; Function compile flags: /Odtp
; File c:\program files (x86)\microsoft visual studio 11.0\vc\include\iosfwd
;	COMDAT ?length@?$char_traits@D@std@@SAIPBD@Z
_TEXT	SEGMENT
tv68 = -4						; size = 4
__First$ = 8						; size = 4
?length@?$char_traits@D@std@@SAIPBD@Z PROC		; std::char_traits<char>::length, COMDAT

; 521  : 		{	// find length of null-terminated string

	push	ebp
	mov	ebp, esp
	push	ecx

; 522  : 		return (*_First == 0 ? 0
; 523  : 			: _CSTD strlen(_First));

	mov	eax, DWORD PTR __First$[ebp]
	movsx	ecx, BYTE PTR [eax]
	test	ecx, ecx
	jne	SHORT $LN3@length
	mov	DWORD PTR tv68[ebp], 0
	jmp	SHORT $LN4@length
$LN3@length:
	mov	edx, DWORD PTR __First$[ebp]
	push	edx
	call	_strlen
	add	esp, 4
	mov	DWORD PTR tv68[ebp], eax
$LN4@length:
	mov	eax, DWORD PTR tv68[ebp]

; 524  : 		}

	mov	esp, ebp
	pop	ebp
	ret	0
?length@?$char_traits@D@std@@SAIPBD@Z ENDP		; std::char_traits<char>::length
_TEXT	ENDS
; Function compile flags: /Odtp
; File c:\program files (x86)\microsoft visual studio 11.0\vc\include\new
;	COMDAT ??3@YAXPAX0@Z
_TEXT	SEGMENT
___formal$ = 8						; size = 4
___formal$ = 12						; size = 4
??3@YAXPAX0@Z PROC					; operator delete, COMDAT

; 64   : 	{	// delete if placement new fails

	push	ebp
	mov	ebp, esp

; 65   : 	}

	pop	ebp
	ret	0
??3@YAXPAX0@Z ENDP					; operator delete
_TEXT	ENDS
; Function compile flags: /Odtp
; File c:\program files (x86)\microsoft visual studio 11.0\vc\include\new
;	COMDAT ??2@YAPAXIPAX@Z
_TEXT	SEGMENT
___formal$ = 8						; size = 4
__Where$ = 12						; size = 4
??2@YAPAXIPAX@Z PROC					; operator new, COMDAT

; 59   : 	{	// construct array with placement at _Where

	push	ebp
	mov	ebp, esp

; 60   : 	return (_Where);

	mov	eax, DWORD PTR __Where$[ebp]

; 61   : 	}

	pop	ebp
	ret	0
??2@YAPAXIPAX@Z ENDP					; operator new
_TEXT	ENDS
; Function compile flags: /Odtp
; File c:\users\zhitao li\documents\visual studio 2012\projects\freefalcon\mathlib\math.h
_TEXT	SEGMENT
_x$ = 8							; size = 4
?FloatToInt32@@YAHM@Z PROC				; FloatToInt32

; 179  : {

	push	ebp
	mov	ebp, esp

; 180  : #if WIN32
; 181  :   __asm {
; 182  :     fld dword ptr [x];

	fld	DWORD PTR _x$[ebp]

; 183  :     fistp dword ptr [x];

	fistp	DWORD PTR _x$[ebp]

; 184  :     mov eax,dword ptr [x];

	mov	eax, DWORD PTR _x$[ebp]

; 185  :   }
; 186  : #else 
; 187  : 	return static_cast<int>(x);	
; 188  : #endif
; 189  : }

	pop	ebp
	ret	0
?FloatToInt32@@YAHM@Z ENDP				; FloatToInt32
_TEXT	ENDS
END
