; Listing generated by Microsoft (R) Optimizing Compiler Version 17.00.51106.1 

	TITLE	C:\Users\Zhitao Li\Documents\Visual Studio 2012\Projects\Freefalcon\Graphics\DDstuff\DevMgr.cpp
	.686P
	.XMM
	include listing.inc
	.model	flat

INCLUDELIB LIBCMT
INCLUDELIB OLDNAMES

PUBLIC	?end@?$_Iosb@H@std@@2W4_Seekdir@12@B		; std::_Iosb<int>::end
PUBLIC	?VT@?$CVarTypeInfo@_J@ATL@@2GB			; ATL::CVarTypeInfo<__int64>::VT
PUBLIC	?pmField@?$CVarTypeInfo@_J@ATL@@2QQtagVARIANT@@_JQ3@ ; ATL::CVarTypeInfo<__int64>::pmField
PUBLIC	___pobjMapEntryFirst
PUBLIC	___pobjMapEntryLast
PUBLIC	?VT@?$CVarTypeInfo@PA_J@ATL@@2GB		; ATL::CVarTypeInfo<__int64 *>::VT
PUBLIC	?pmField@?$CVarTypeInfo@PA_J@ATL@@2QQtagVARIANT@@PA_JQ3@ ; ATL::CVarTypeInfo<__int64 *>::pmField
PUBLIC	?value@?$_Sizeof@U_Nil@std@@U12@U12@U12@U12@U12@U12@U12@@std@@2IB ; std::_Sizeof<std::_Nil,std::_Nil,std::_Nil,std::_Nil,std::_Nil,std::_Nil,std::_Nil,std::_Nil>::value
PUBLIC	?_Stream_err@failure@ios_base@std@@0W4io_errc@43@B ; std::ios_base::failure::_Stream_err
PUBLIC	?VT@?$CVarTypeInfo@_K@ATL@@2GB			; ATL::CVarTypeInfo<unsigned __int64>::VT
PUBLIC	??_C@_0BF@HDDNNDFH@Component?5Categories?$AA@	; `string'
PUBLIC	?pmField@?$CVarTypeInfo@_K@ATL@@2QQtagVARIANT@@_KQ3@ ; ATL::CVarTypeInfo<unsigned __int64>::pmField
PUBLIC	??_C@_08PICKODJL@FileType?$AA@			; `string'
PUBLIC	??_C@_09JKPGEJCH@Interface?$AA@			; `string'
PUBLIC	??_C@_08PPIOJEA@Hardware?$AA@			; `string'
PUBLIC	?_pPerfRegFunc@ATL@@3P6AJPAUHINSTANCE__@@@ZA	; ATL::_pPerfRegFunc
PUBLIC	??_C@_04IHBFOLAC@Mime?$AA@			; `string'
PUBLIC	?_pPerfUnRegFunc@ATL@@3P6AJXZA			; ATL::_pPerfUnRegFunc
PUBLIC	??_C@_03DDIMFGBA@SAM?$AA@			; `string'
PUBLIC	?_AtlRegisterPerUser@ATL@@3_NA			; ATL::_AtlRegisterPerUser
PUBLIC	??_C@_08LOPHEHKG@SECURITY?$AA@			; `string'
PUBLIC	??_C@_06FDHFNJBJ@SYSTEM?$AA@			; `string'
PUBLIC	??_C@_08KEKAJNJI@Software?$AA@			; `string'
PUBLIC	??_C@_07KJLOKDKB@TypeLib?$AA@			; `string'
PUBLIC	?VT@?$CVarTypeInfo@PA_K@ATL@@2GB		; ATL::CVarTypeInfo<unsigned __int64 *>::VT
PUBLIC	?pmField@?$CVarTypeInfo@PA_K@ATL@@2QQtagVARIANT@@PA_KQ3@ ; ATL::CVarTypeInfo<unsigned __int64 *>::pmField
PUBLIC	__GUID_00000000_0000_0000_c000_000000000046
PUBLIC	?VT@?$CVarTypeInfo@M@ATL@@2GB			; ATL::CVarTypeInfo<float>::VT
PUBLIC	?pmField@?$CVarTypeInfo@M@ATL@@2QQtagVARIANT@@MQ3@ ; ATL::CVarTypeInfo<float>::pmField
PUBLIC	__GUID_a6bc3ac0_dbaa_11ce_9de3_00aa004bb851
PUBLIC	?VT@?$CVarTypeInfo@PAM@ATL@@2GB			; ATL::CVarTypeInfo<float *>::VT
PUBLIC	__GUID_00020400_0000_0000_c000_000000000046
PUBLIC	?pmField@?$CVarTypeInfo@PAM@ATL@@2QQtagVARIANT@@PAMQ3@ ; ATL::CVarTypeInfo<float *>::pmField
PUBLIC	?VT@?$CVarTypeInfo@N@ATL@@2GB			; ATL::CVarTypeInfo<double>::VT
PUBLIC	?pmField@?$CVarTypeInfo@N@ATL@@2QQtagVARIANT@@NQ3@ ; ATL::CVarTypeInfo<double>::pmField
PUBLIC	?VT@?$CVarTypeInfo@PAN@ATL@@2GB			; ATL::CVarTypeInfo<double *>::VT
PUBLIC	?pmField@?$CVarTypeInfo@PAN@ATL@@2QQtagVARIANT@@PANQ3@ ; ATL::CVarTypeInfo<double *>::pmField
PUBLIC	?VT@?$CVarTypeInfo@PAUtagVARIANT@@@ATL@@2GB	; ATL::CVarTypeInfo<tagVARIANT *>::VT
PUBLIC	?has_denorm@_Num_base@std@@2W4float_denorm_style@2@B ; std::_Num_base::has_denorm
PUBLIC	__GUID_0002e012_0000_0000_c000_000000000046
PUBLIC	?has_denorm_loss@_Num_base@std@@2_NB		; std::_Num_base::has_denorm_loss
PUBLIC	?VT@?$CVarTypeInfo@PA_W@ATL@@2GB		; ATL::CVarTypeInfo<wchar_t *>::VT
PUBLIC	?pmField@?$CVarTypeInfo@PA_W@ATL@@2QQtagVARIANT@@PA_WQ3@ ; ATL::CVarTypeInfo<wchar_t *>::pmField
PUBLIC	?has_infinity@_Num_base@std@@2_NB		; std::_Num_base::has_infinity
PUBLIC	?has_quiet_NaN@_Num_base@std@@2_NB		; std::_Num_base::has_quiet_NaN
PUBLIC	?has_signaling_NaN@_Num_base@std@@2_NB		; std::_Num_base::has_signaling_NaN
PUBLIC	?is_bounded@_Num_base@std@@2_NB			; std::_Num_base::is_bounded
PUBLIC	?VT@?$CVarTypeInfo@PAPA_W@ATL@@2GB		; ATL::CVarTypeInfo<wchar_t * *>::VT
PUBLIC	?is_exact@_Num_base@std@@2_NB			; std::_Num_base::is_exact
PUBLIC	?pmField@?$CVarTypeInfo@PAPA_W@ATL@@2QQtagVARIANT@@PAPA_WQ3@ ; ATL::CVarTypeInfo<wchar_t * *>::pmField
PUBLIC	?is_iec559@_Num_base@std@@2_NB			; std::_Num_base::is_iec559
PUBLIC	?is_integer@_Num_base@std@@2_NB			; std::_Num_base::is_integer
PUBLIC	?is_modulo@_Num_base@std@@2_NB			; std::_Num_base::is_modulo
PUBLIC	?VT@?$CVarTypeInfo@PAUIUnknown@@@ATL@@2GB	; ATL::CVarTypeInfo<IUnknown *>::VT
PUBLIC	?is_signed@_Num_base@std@@2_NB			; std::_Num_base::is_signed
PUBLIC	?pmField@?$CVarTypeInfo@PAUIUnknown@@@ATL@@2QQtagVARIANT@@PAUIUnknown@@Q3@ ; ATL::CVarTypeInfo<IUnknown *>::pmField
PUBLIC	?is_specialized@_Num_base@std@@2_NB		; std::_Num_base::is_specialized
PUBLIC	?tinyness_before@_Num_base@std@@2_NB		; std::_Num_base::tinyness_before
PUBLIC	?traps@_Num_base@std@@2_NB			; std::_Num_base::traps
PUBLIC	?round_style@_Num_base@std@@2W4float_round_style@2@B ; std::_Num_base::round_style
PUBLIC	?VT@?$CVarTypeInfo@PAPAUIUnknown@@@ATL@@2GB	; ATL::CVarTypeInfo<IUnknown * *>::VT
PUBLIC	?pmField@?$CVarTypeInfo@PAPAUIUnknown@@@ATL@@2QQtagVARIANT@@PAPAUIUnknown@@Q3@ ; ATL::CVarTypeInfo<IUnknown * *>::pmField
PUBLIC	?digits@_Num_base@std@@2HB			; std::_Num_base::digits
PUBLIC	?digits10@_Num_base@std@@2HB			; std::_Num_base::digits10
PUBLIC	?max_digits10@_Num_base@std@@2HB		; std::_Num_base::max_digits10
PUBLIC	__GUID_0000010c_0000_0000_c000_000000000046
PUBLIC	?max_exponent@_Num_base@std@@2HB		; std::_Num_base::max_exponent
PUBLIC	?VT@?$CVarTypeInfo@PAUIDispatch@@@ATL@@2GB	; ATL::CVarTypeInfo<IDispatch *>::VT
PUBLIC	?max_exponent10@_Num_base@std@@2HB		; std::_Num_base::max_exponent10
PUBLIC	?pmField@?$CVarTypeInfo@PAUIDispatch@@@ATL@@2QQtagVARIANT@@PAUIDispatch@@Q3@ ; ATL::CVarTypeInfo<IDispatch *>::pmField
PUBLIC	?min_exponent@_Num_base@std@@2HB		; std::_Num_base::min_exponent
PUBLIC	??_C@_05GIBEAPNE@CLSID?$AA@			; `string'
PUBLIC	?min_exponent10@_Num_base@std@@2HB		; std::_Num_base::min_exponent10
PUBLIC	?radix@_Num_base@std@@2HB			; std::_Num_base::radix
PUBLIC	_IID_IAxWinHostWindow
PUBLIC	?VT@?$CVarTypeInfo@PAPAUIDispatch@@@ATL@@2GB	; ATL::CVarTypeInfo<IDispatch * *>::VT
PUBLIC	?pmField@?$CVarTypeInfo@PAPAUIDispatch@@@ATL@@2QQtagVARIANT@@PAPAUIDispatch@@Q3@ ; ATL::CVarTypeInfo<IDispatch * *>::pmField
PUBLIC	?VT@?$CVarTypeInfo@TtagCY@@@ATL@@2GB		; ATL::CVarTypeInfo<tagCY>::VT
PUBLIC	?pmField@?$CVarTypeInfo@TtagCY@@@ATL@@2QQtagVARIANT@@TtagCY@@Q3@ ; ATL::CVarTypeInfo<tagCY>::pmField
PUBLIC	??_C@_05PDIKPLII@AppID?$AA@			; `string'
PUBLIC	?VT@?$CVarTypeInfo@PATtagCY@@@ATL@@2GB		; ATL::CVarTypeInfo<tagCY *>::VT
PUBLIC	?is_bounded@_Num_int_base@std@@2_NB		; std::_Num_int_base::is_bounded
PUBLIC	?pmField@?$CVarTypeInfo@PATtagCY@@@ATL@@2QQtagVARIANT@@PATtagCY@@Q3@ ; ATL::CVarTypeInfo<tagCY *>::pmField
PUBLIC	?is_exact@_Num_int_base@std@@2_NB		; std::_Num_int_base::is_exact
PUBLIC	?is_integer@_Num_int_base@std@@2_NB		; std::_Num_int_base::is_integer
PUBLIC	?is_modulo@_Num_int_base@std@@2_NB		; std::_Num_int_base::is_modulo
PUBLIC	?is_specialized@_Num_int_base@std@@2_NB		; std::_Num_int_base::is_specialized
PUBLIC	?radix@_Num_int_base@std@@2HB			; std::_Num_int_base::radix
PUBLIC	?has_denorm@_Num_float_base@std@@2W4float_denorm_style@2@B ; std::_Num_float_base::has_denorm
PUBLIC	?has_denorm_loss@_Num_float_base@std@@2_NB	; std::_Num_float_base::has_denorm_loss
PUBLIC	?has_infinity@_Num_float_base@std@@2_NB		; std::_Num_float_base::has_infinity
PUBLIC	?has_quiet_NaN@_Num_float_base@std@@2_NB	; std::_Num_float_base::has_quiet_NaN
PUBLIC	?has_signaling_NaN@_Num_float_base@std@@2_NB	; std::_Num_float_base::has_signaling_NaN
PUBLIC	?is_bounded@_Num_float_base@std@@2_NB		; std::_Num_float_base::is_bounded
PUBLIC	?is_exact@_Num_float_base@std@@2_NB		; std::_Num_float_base::is_exact
PUBLIC	?is_iec559@_Num_float_base@std@@2_NB		; std::_Num_float_base::is_iec559
PUBLIC	?is_integer@_Num_float_base@std@@2_NB		; std::_Num_float_base::is_integer
PUBLIC	?chDirSep@ATL@@3DB				; ATL::chDirSep
PUBLIC	?chRightBracket@ATL@@3DB			; ATL::chRightBracket
PUBLIC	?is_modulo@_Num_float_base@std@@2_NB		; std::_Num_float_base::is_modulo
PUBLIC	?chLeftBracket@ATL@@3DB				; ATL::chLeftBracket
PUBLIC	?chQuote@ATL@@3DB				; ATL::chQuote
PUBLIC	?chEquals@ATL@@3DB				; ATL::chEquals
PUBLIC	?is_signed@_Num_float_base@std@@2_NB		; std::_Num_float_base::is_signed
PUBLIC	?szStringVal@ATL@@3QBDB				; ATL::szStringVal
PUBLIC	??_C@_01CPLAODJH@S?$AA@				; `string'
PUBLIC	?multiszStringVal@ATL@@3QBDB			; ATL::multiszStringVal
PUBLIC	_IID_IAxWinHostWindowLic
PUBLIC	?is_specialized@_Num_float_base@std@@2_NB	; std::_Num_float_base::is_specialized
PUBLIC	??_C@_01PLPBNMEI@M?$AA@				; `string'
PUBLIC	?szDwordVal@ATL@@3QBDB				; ATL::szDwordVal
PUBLIC	??_C@_01CKDDGHAB@D?$AA@				; `string'
PUBLIC	?tinyness_before@_Num_float_base@std@@2_NB	; std::_Num_float_base::tinyness_before
PUBLIC	?szBinaryVal@ATL@@3QBDB				; ATL::szBinaryVal
PUBLIC	??_C@_01HMGJMAIH@B?$AA@				; `string'
PUBLIC	?szValToken@ATL@@3QBDB				; ATL::szValToken
PUBLIC	?traps@_Num_float_base@std@@2_NB		; std::_Num_float_base::traps
PUBLIC	??_C@_03LAIAPFCB@Val?$AA@			; `string'
PUBLIC	?szForceRemove@ATL@@3QBDB			; ATL::szForceRemove
PUBLIC	??_C@_0M@DBGDLGLL@ForceRemove?$AA@		; `string'
PUBLIC	?round_style@_Num_float_base@std@@2W4float_round_style@2@B ; std::_Num_float_base::round_style
PUBLIC	?szNoRemove@ATL@@3QBDB				; ATL::szNoRemove
PUBLIC	??_C@_08KAAPDIAN@NoRemove?$AA@			; `string'
PUBLIC	?szDelete@ATL@@3QBDB				; ATL::szDelete
PUBLIC	?radix@_Num_float_base@std@@2HB			; std::_Num_float_base::radix
PUBLIC	??_C@_06JBKGCNBB@Delete?$AA@			; `string'
PUBLIC	?SIMDIRTYDATA_INTERVAL@FalconEntity@@2KB	; FalconEntity::SIMDIRTYDATA_INTERVAL
PUBLIC	?CMPDIRTYDATA_INTERVAL@FalconEntity@@2KB	; FalconEntity::CMPDIRTYDATA_INTERVAL
PUBLIC	?ATL_CREATE_OBJECT@CComApartment@ATL@@2IA	; ATL::CComApartment::ATL_CREATE_OBJECT
PUBLIC	?is_signed@?$numeric_limits@D@std@@2_NB		; std::numeric_limits<char>::is_signed
PUBLIC	?digits@?$numeric_limits@D@std@@2HB		; std::numeric_limits<char>::digits
PUBLIC	?digits10@?$numeric_limits@D@std@@2HB		; std::numeric_limits<char>::digits10
PUBLIC	_IID_IAxWinAmbientDispatch
PUBLIC	?collate@?$_Locbase@H@std@@2HB			; std::_Locbase<int>::collate
PUBLIC	?ctype@?$_Locbase@H@std@@2HB			; std::_Locbase<int>::ctype
PUBLIC	?monetary@?$_Locbase@H@std@@2HB			; std::_Locbase<int>::monetary
PUBLIC	?numeric@?$_Locbase@H@std@@2HB			; std::_Locbase<int>::numeric
PUBLIC	?time@?$_Locbase@H@std@@2HB			; std::_Locbase<int>::time
PUBLIC	?messages@?$_Locbase@H@std@@2HB			; std::_Locbase<int>::messages
PUBLIC	?all@?$_Locbase@H@std@@2HB			; std::_Locbase<int>::all
PUBLIC	?none@?$_Locbase@H@std@@2HB			; std::_Locbase<int>::none
PUBLIC	?is_signed@?$numeric_limits@_W@std@@2_NB	; std::numeric_limits<wchar_t>::is_signed
PUBLIC	?digits@?$numeric_limits@_W@std@@2HB		; std::numeric_limits<wchar_t>::digits
PUBLIC	?digits10@?$numeric_limits@_W@std@@2HB		; std::numeric_limits<wchar_t>::digits10
PUBLIC	?_pAtlAutoThreadModule@ATL@@3PAUIAtlAutoThreadModule@1@A ; ATL::_pAtlAutoThreadModule
PUBLIC	?is_modulo@?$numeric_limits@_N@std@@2_NB	; std::numeric_limits<bool>::is_modulo
PUBLIC	?is_signed@?$numeric_limits@_N@std@@2_NB	; std::numeric_limits<bool>::is_signed
PUBLIC	?digits@?$numeric_limits@_N@std@@2HB		; std::numeric_limits<bool>::digits
PUBLIC	?digits10@?$numeric_limits@_N@std@@2HB		; std::numeric_limits<bool>::digits10
PUBLIC	?value@?$_Sizeof@HU_Nil@std@@U12@U12@U12@U12@U12@U12@@std@@2IB ; std::_Sizeof<int,std::_Nil,std::_Nil,std::_Nil,std::_Nil,std::_Nil,std::_Nil,std::_Nil>::value
PUBLIC	?is_signed@?$numeric_limits@C@std@@2_NB		; std::numeric_limits<signed char>::is_signed
PUBLIC	?m_bInitFailed@CAtlBaseModule@ATL@@2_NA		; ATL::CAtlBaseModule::m_bInitFailed
PUBLIC	?digits@?$numeric_limits@C@std@@2HB		; std::numeric_limits<signed char>::digits
PUBLIC	?digits10@?$numeric_limits@C@std@@2HB		; std::numeric_limits<signed char>::digits10
PUBLIC	?table_size@?$ctype@D@std@@2IB			; std::ctype<char>::table_size
PUBLIC	?is_signed@?$numeric_limits@E@std@@2_NB		; std::numeric_limits<unsigned char>::is_signed
PUBLIC	?digits@?$numeric_limits@E@std@@2HB		; std::numeric_limits<unsigned char>::digits
PUBLIC	?digits10@?$numeric_limits@E@std@@2HB		; std::numeric_limits<unsigned char>::digits10
PUBLIC	?is_signed@?$numeric_limits@F@std@@2_NB		; std::numeric_limits<short>::is_signed
PUBLIC	?digits@?$numeric_limits@F@std@@2HB		; std::numeric_limits<short>::digits
PUBLIC	__GUID_00000000_0000_0000_0000_000000000000
PUBLIC	?digits10@?$numeric_limits@F@std@@2HB		; std::numeric_limits<short>::digits10
PUBLIC	?MAX_VALUE@CRegParser@ATL@@1HB			; ATL::CRegParser::MAX_VALUE
PUBLIC	?is_signed@?$numeric_limits@G@std@@2_NB		; std::numeric_limits<unsigned short>::is_signed
PUBLIC	?digits@?$numeric_limits@G@std@@2HB		; std::numeric_limits<unsigned short>::digits
PUBLIC	?digits10@?$numeric_limits@G@std@@2HB		; std::numeric_limits<unsigned short>::digits10
PUBLIC	?rgszNeverDelete@CRegParser@ATL@@1QBQBDB	; ATL::CRegParser::rgszNeverDelete
PUBLIC	?cbNeverDelete@CRegParser@ATL@@1HB		; ATL::CRegParser::cbNeverDelete
PUBLIC	?MAX_TYPE@CRegParser@ATL@@1HB			; ATL::CRegParser::MAX_TYPE
PUBLIC	?is_signed@?$numeric_limits@H@std@@2_NB		; std::numeric_limits<int>::is_signed
PUBLIC	?digits@?$numeric_limits@H@std@@2HB		; std::numeric_limits<int>::digits
PUBLIC	__GUID_fc4801a3_2ba9_11cf_a229_00aa003d7352
PUBLIC	?digits10@?$numeric_limits@H@std@@2HB		; std::numeric_limits<int>::digits10
PUBLIC	?is_signed@?$numeric_limits@I@std@@2_NB		; std::numeric_limits<unsigned int>::is_signed
PUBLIC	_IID_IAxWinAmbientDispatchEx
PUBLIC	?digits@?$numeric_limits@I@std@@2HB		; std::numeric_limits<unsigned int>::digits
PUBLIC	?digits10@?$numeric_limits@I@std@@2HB		; std::numeric_limits<unsigned int>::digits10
PUBLIC	_IID_IInternalConnection
PUBLIC	?is_signed@?$numeric_limits@J@std@@2_NB		; std::numeric_limits<long>::is_signed
PUBLIC	?digits@?$numeric_limits@J@std@@2HB		; std::numeric_limits<long>::digits
PUBLIC	?digits10@?$numeric_limits@J@std@@2HB		; std::numeric_limits<long>::digits10
PUBLIC	__GUID_1cf2b120_547d_101b_8e65_08002b2bd119
PUBLIC	?is_signed@?$numeric_limits@K@std@@2_NB		; std::numeric_limits<unsigned long>::is_signed
PUBLIC	?digits@?$numeric_limits@K@std@@2HB		; std::numeric_limits<unsigned long>::digits
PUBLIC	?digits10@?$numeric_limits@K@std@@2HB		; std::numeric_limits<unsigned long>::digits10
PUBLIC	?value@?$integral_constant@I$0A@@std@@2IB	; std::integral_constant<unsigned int,0>::value
PUBLIC	?_pAtlModule@ATL@@3PAVCAtlModule@1@A		; ATL::_pAtlModule
PUBLIC	?m_libid@CAtlModule@ATL@@2U_GUID@@A		; ATL::CAtlModule::m_libid
PUBLIC	?is_signed@?$numeric_limits@_J@std@@2_NB	; std::numeric_limits<__int64>::is_signed
PUBLIC	?digits@?$numeric_limits@_J@std@@2HB		; std::numeric_limits<__int64>::digits
PUBLIC	?digits10@?$numeric_limits@_J@std@@2HB		; std::numeric_limits<__int64>::digits10
PUBLIC	?is_signed@?$numeric_limits@_K@std@@2_NB	; std::numeric_limits<unsigned __int64>::is_signed
PUBLIC	?digits@?$numeric_limits@_K@std@@2HB		; std::numeric_limits<unsigned __int64>::digits
PUBLIC	?digits10@?$numeric_limits@_K@std@@2HB		; std::numeric_limits<unsigned __int64>::digits10
PUBLIC	__GUID_00000146_0000_0000_c000_000000000046
PUBLIC	?digits@?$numeric_limits@M@std@@2HB		; std::numeric_limits<float>::digits
PUBLIC	?digits10@?$numeric_limits@M@std@@2HB		; std::numeric_limits<float>::digits10
PUBLIC	?max_digits10@?$numeric_limits@M@std@@2HB	; std::numeric_limits<float>::max_digits10
PUBLIC	?max_exponent@?$numeric_limits@M@std@@2HB	; std::numeric_limits<float>::max_exponent
PUBLIC	?max_exponent10@?$numeric_limits@M@std@@2HB	; std::numeric_limits<float>::max_exponent10
PUBLIC	?min_exponent@?$numeric_limits@M@std@@2HB	; std::numeric_limits<float>::min_exponent
PUBLIC	?min_exponent10@?$numeric_limits@M@std@@2HB	; std::numeric_limits<float>::min_exponent10
PUBLIC	?VT@?$CVarTypeInfo@D@ATL@@2GB			; ATL::CVarTypeInfo<char>::VT
PUBLIC	?pmField@?$CVarTypeInfo@D@ATL@@2QQtagVARIANT@@DQ3@ ; ATL::CVarTypeInfo<char>::pmField
PUBLIC	?VT@?$CVarTypeInfo@E@ATL@@2GB			; ATL::CVarTypeInfo<unsigned char>::VT
PUBLIC	?pmField@?$CVarTypeInfo@E@ATL@@2QQtagVARIANT@@EQ3@ ; ATL::CVarTypeInfo<unsigned char>::pmField
PUBLIC	_CLSID_Registrar
PUBLIC	?digits@?$numeric_limits@N@std@@2HB		; std::numeric_limits<double>::digits
PUBLIC	?_Min@?$AtlLimits@H@ATL@@2HB			; ATL::AtlLimits<int>::_Min
PUBLIC	?VT@?$CVarTypeInfo@PAD@ATL@@2GB			; ATL::CVarTypeInfo<char *>::VT
PUBLIC	?_Max@?$AtlLimits@H@ATL@@2HB			; ATL::AtlLimits<int>::_Max
PUBLIC	?digits10@?$numeric_limits@N@std@@2HB		; std::numeric_limits<double>::digits10
PUBLIC	?pmField@?$CVarTypeInfo@PAD@ATL@@2QQtagVARIANT@@PADQ3@ ; ATL::CVarTypeInfo<char *>::pmField
PUBLIC	?max_digits10@?$numeric_limits@N@std@@2HB	; std::numeric_limits<double>::max_digits10
PUBLIC	?max_exponent@?$numeric_limits@N@std@@2HB	; std::numeric_limits<double>::max_exponent
PUBLIC	?_Min@?$AtlLimits@I@ATL@@2IB			; ATL::AtlLimits<unsigned int>::_Min
PUBLIC	?max_exponent10@?$numeric_limits@N@std@@2HB	; std::numeric_limits<double>::max_exponent10
PUBLIC	?_Max@?$AtlLimits@I@ATL@@2IB			; ATL::AtlLimits<unsigned int>::_Max
PUBLIC	?VT@?$CVarTypeInfo@PAE@ATL@@2GB			; ATL::CVarTypeInfo<unsigned char *>::VT
PUBLIC	__GUID_00000109_0000_0000_c000_000000000046
PUBLIC	?pmField@?$CVarTypeInfo@PAE@ATL@@2QQtagVARIANT@@PAEQ3@ ; ATL::CVarTypeInfo<unsigned char *>::pmField
PUBLIC	?min_exponent@?$numeric_limits@N@std@@2HB	; std::numeric_limits<double>::min_exponent
PUBLIC	__GUID_7fd52380_4e07_101b_ae2d_08002b2ec713
PUBLIC	?min_exponent10@?$numeric_limits@N@std@@2HB	; std::numeric_limits<double>::min_exponent10
PUBLIC	?_Min@?$AtlLimits@J@ATL@@2JB			; ATL::AtlLimits<long>::_Min
PUBLIC	__GUID_b196b284_bab4_101a_b69c_00aa00341d07
PUBLIC	?_Max@?$AtlLimits@J@ATL@@2JB			; ATL::AtlLimits<long>::_Max
PUBLIC	?VT@?$CVarTypeInfo@F@ATL@@2GB			; ATL::CVarTypeInfo<short>::VT
PUBLIC	_IID_IRegistrar
PUBLIC	?pmField@?$CVarTypeInfo@F@ATL@@2QQtagVARIANT@@FQ3@ ; ATL::CVarTypeInfo<short>::pmField
PUBLIC	?_Min@?$AtlLimits@K@ATL@@2KB			; ATL::AtlLimits<unsigned long>::_Min
PUBLIC	?_Max@?$AtlLimits@K@ATL@@2KB			; ATL::AtlLimits<unsigned long>::_Max
PUBLIC	?VT@?$CVarTypeInfo@PAF@ATL@@2GB			; ATL::CVarTypeInfo<short *>::VT
PUBLIC	?pmField@?$CVarTypeInfo@PAF@ATL@@2QQtagVARIANT@@PAFQ3@ ; ATL::CVarTypeInfo<short *>::pmField
PUBLIC	?_Min@?$AtlLimits@_J@ATL@@2_JB			; ATL::AtlLimits<__int64>::_Min
PUBLIC	__GUID_00000001_0000_0000_c000_000000000046
PUBLIC	?_Max@?$AtlLimits@_J@ATL@@2_JB			; ATL::AtlLimits<__int64>::_Max
PUBLIC	?digits@?$numeric_limits@O@std@@2HB		; std::numeric_limits<long double>::digits
PUBLIC	?VT@?$CVarTypeInfo@G@ATL@@2GB			; ATL::CVarTypeInfo<unsigned short>::VT
PUBLIC	?digits10@?$numeric_limits@O@std@@2HB		; std::numeric_limits<long double>::digits10
PUBLIC	?pmField@?$CVarTypeInfo@G@ATL@@2QQtagVARIANT@@GQ3@ ; ATL::CVarTypeInfo<unsigned short>::pmField
PUBLIC	?max_digits10@?$numeric_limits@O@std@@2HB	; std::numeric_limits<long double>::max_digits10
PUBLIC	__GUID_00020401_0000_0000_c000_000000000046
PUBLIC	?_Min@?$AtlLimits@_K@ATL@@2_KB			; ATL::AtlLimits<unsigned __int64>::_Min
PUBLIC	_LIBID_ATLLib
PUBLIC	?max_exponent@?$numeric_limits@O@std@@2HB	; std::numeric_limits<long double>::max_exponent
PUBLIC	?_Max@?$AtlLimits@_K@ATL@@2_KB			; ATL::AtlLimits<unsigned __int64>::_Max
PUBLIC	__GUID_00020412_0000_0000_c000_000000000046
PUBLIC	?max_exponent10@?$numeric_limits@O@std@@2HB	; std::numeric_limits<long double>::max_exponent10
PUBLIC	?VT@?$CVarTypeInfo@PAG@ATL@@2GB			; ATL::CVarTypeInfo<unsigned short *>::VT
PUBLIC	?skipws@?$_Iosb@H@std@@2W4_Fmtflags@12@B	; std::_Iosb<int>::skipws
PUBLIC	?pmField@?$CVarTypeInfo@PAG@ATL@@2QQtagVARIANT@@PAGQ3@ ; ATL::CVarTypeInfo<unsigned short *>::pmField
PUBLIC	?unitbuf@?$_Iosb@H@std@@2W4_Fmtflags@12@B	; std::_Iosb<int>::unitbuf
PUBLIC	?min_exponent@?$numeric_limits@O@std@@2HB	; std::numeric_limits<long double>::min_exponent
PUBLIC	?uppercase@?$_Iosb@H@std@@2W4_Fmtflags@12@B	; std::_Iosb<int>::uppercase
PUBLIC	?min_exponent10@?$numeric_limits@O@std@@2HB	; std::numeric_limits<long double>::min_exponent10
PUBLIC	?showbase@?$_Iosb@H@std@@2W4_Fmtflags@12@B	; std::_Iosb<int>::showbase
PUBLIC	?showpoint@?$_Iosb@H@std@@2W4_Fmtflags@12@B	; std::_Iosb<int>::showpoint
PUBLIC	?VT@?$CVarTypeInfo@H@ATL@@2GB			; ATL::CVarTypeInfo<int>::VT
PUBLIC	?pmField@?$CVarTypeInfo@H@ATL@@2QQtagVARIANT@@HQ3@ ; ATL::CVarTypeInfo<int>::pmField
PUBLIC	?showpos@?$_Iosb@H@std@@2W4_Fmtflags@12@B	; std::_Iosb<int>::showpos
PUBLIC	?left@?$_Iosb@H@std@@2W4_Fmtflags@12@B		; std::_Iosb<int>::left
PUBLIC	?right@?$_Iosb@H@std@@2W4_Fmtflags@12@B		; std::_Iosb<int>::right
PUBLIC	?internal@?$_Iosb@H@std@@2W4_Fmtflags@12@B	; std::_Iosb<int>::internal
PUBLIC	?VT@?$CVarTypeInfo@PAH@ATL@@2GB			; ATL::CVarTypeInfo<int *>::VT
PUBLIC	?dec@?$_Iosb@H@std@@2W4_Fmtflags@12@B		; std::_Iosb<int>::dec
PUBLIC	?pmField@?$CVarTypeInfo@PAH@ATL@@2QQtagVARIANT@@PAHQ3@ ; ATL::CVarTypeInfo<int *>::pmField
PUBLIC	?oct@?$_Iosb@H@std@@2W4_Fmtflags@12@B		; std::_Iosb<int>::oct
PUBLIC	?hex@?$_Iosb@H@std@@2W4_Fmtflags@12@B		; std::_Iosb<int>::hex
PUBLIC	?scientific@?$_Iosb@H@std@@2W4_Fmtflags@12@B	; std::_Iosb<int>::scientific
PUBLIC	?VT@?$CVarTypeInfo@I@ATL@@2GB			; ATL::CVarTypeInfo<unsigned int>::VT
PUBLIC	?fixed@?$_Iosb@H@std@@2W4_Fmtflags@12@B		; std::_Iosb<int>::fixed
PUBLIC	?pmField@?$CVarTypeInfo@I@ATL@@2QQtagVARIANT@@IQ3@ ; ATL::CVarTypeInfo<unsigned int>::pmField
PUBLIC	?hexfloat@?$_Iosb@H@std@@2W4_Fmtflags@12@B	; std::_Iosb<int>::hexfloat
PUBLIC	?boolalpha@?$_Iosb@H@std@@2W4_Fmtflags@12@B	; std::_Iosb<int>::boolalpha
PUBLIC	?_Stdio@?$_Iosb@H@std@@2W4_Fmtflags@12@B	; std::_Iosb<int>::_Stdio
PUBLIC	?value@?$integral_constant@_N$0A@@std@@2_NB	; std::integral_constant<bool,0>::value
PUBLIC	?adjustfield@?$_Iosb@H@std@@2W4_Fmtflags@12@B	; std::_Iosb<int>::adjustfield
PUBLIC	?VT@?$CVarTypeInfo@PAI@ATL@@2GB			; ATL::CVarTypeInfo<unsigned int *>::VT
PUBLIC	?pmField@?$CVarTypeInfo@PAI@ATL@@2QQtagVARIANT@@PAIQ3@ ; ATL::CVarTypeInfo<unsigned int *>::pmField
PUBLIC	?basefield@?$_Iosb@H@std@@2W4_Fmtflags@12@B	; std::_Iosb<int>::basefield
PUBLIC	?floatfield@?$_Iosb@H@std@@2W4_Fmtflags@12@B	; std::_Iosb<int>::floatfield
PUBLIC	?HighResolutionHackFlag@@3HA			; HighResolutionHackFlag
PUBLIC	?goodbit@?$_Iosb@H@std@@2W4_Iostate@12@B	; std::_Iosb<int>::goodbit
PUBLIC	?VT@?$CVarTypeInfo@J@ATL@@2GB			; ATL::CVarTypeInfo<long>::VT
PUBLIC	?eofbit@?$_Iosb@H@std@@2W4_Iostate@12@B		; std::_Iosb<int>::eofbit
PUBLIC	?value@?$integral_constant@_N$00@std@@2_NB	; std::integral_constant<bool,1>::value
PUBLIC	?pmField@?$CVarTypeInfo@J@ATL@@2QQtagVARIANT@@JQ3@ ; ATL::CVarTypeInfo<long>::pmField
PUBLIC	?failbit@?$_Iosb@H@std@@2W4_Iostate@12@B	; std::_Iosb<int>::failbit
PUBLIC	?_pModule@ATL@@3PAVCComModule@1@A		; ATL::_pModule
PUBLIC	?pfnDirectDrawEnumerateEx@@3P6GJP6GHPAU_GUID@@PAD1PAXPAUHMONITOR__@@@Z2K@ZA ; pfnDirectDrawEnumerateEx
PUBLIC	?pfnDirectDrawCreateEx@@3P6GJPAU_GUID@@PAPAXABU1@PAUIUnknown@@@ZA ; pfnDirectDrawCreateEx
PUBLIC	?badbit@?$_Iosb@H@std@@2W4_Iostate@12@B		; std::_Iosb<int>::badbit
PUBLIC	?_Hardfail@?$_Iosb@H@std@@2W4_Iostate@12@B	; std::_Iosb<int>::_Hardfail
PUBLIC	?VT@?$CVarTypeInfo@PAJ@ATL@@2GB			; ATL::CVarTypeInfo<long *>::VT
PUBLIC	?in@?$_Iosb@H@std@@2W4_Openmode@12@B		; std::_Iosb<int>::in
PUBLIC	?pmField@?$CVarTypeInfo@PAJ@ATL@@2QQtagVARIANT@@PAJQ3@ ; ATL::CVarTypeInfo<long *>::pmField
PUBLIC	?out@?$_Iosb@H@std@@2W4_Openmode@12@B		; std::_Iosb<int>::out
PUBLIC	_IID_IDocHostUIHandlerDispatch
PUBLIC	?ate@?$_Iosb@H@std@@2W4_Openmode@12@B		; std::_Iosb<int>::ate
PUBLIC	?app@?$_Iosb@H@std@@2W4_Openmode@12@B		; std::_Iosb<int>::app
PUBLIC	?VT@?$CVarTypeInfo@K@ATL@@2GB			; ATL::CVarTypeInfo<unsigned long>::VT
PUBLIC	?trunc@?$_Iosb@H@std@@2W4_Openmode@12@B		; std::_Iosb<int>::trunc
PUBLIC	?pmField@?$CVarTypeInfo@K@ATL@@2QQtagVARIANT@@KQ3@ ; ATL::CVarTypeInfo<unsigned long>::pmField
PUBLIC	?_Nocreate@?$_Iosb@H@std@@2W4_Openmode@12@B	; std::_Iosb<int>::_Nocreate
PUBLIC	?_Noreplace@?$_Iosb@H@std@@2W4_Openmode@12@B	; std::_Iosb<int>::_Noreplace
PUBLIC	?binary@?$_Iosb@H@std@@2W4_Openmode@12@B	; std::_Iosb<int>::binary
PUBLIC	?VT@?$CVarTypeInfo@PAK@ATL@@2GB			; ATL::CVarTypeInfo<unsigned long *>::VT
PUBLIC	?beg@?$_Iosb@H@std@@2W4_Seekdir@12@B		; std::_Iosb<int>::beg
PUBLIC	?pmField@?$CVarTypeInfo@PAK@ATL@@2QQtagVARIANT@@PAKQ3@ ; ATL::CVarTypeInfo<unsigned long *>::pmField
PUBLIC	?cur@?$_Iosb@H@std@@2W4_Seekdir@12@B		; std::_Iosb<int>::cur
;	COMDAT ?_pPerfRegFunc@ATL@@3P6AJPAUHINSTANCE__@@@ZA
_BSS	SEGMENT
?_pPerfRegFunc@ATL@@3P6AJPAUHINSTANCE__@@@ZA DD 01H DUP (?) ; ATL::_pPerfRegFunc
_BSS	ENDS
;	COMDAT ?_pPerfUnRegFunc@ATL@@3P6AJXZA
_BSS	SEGMENT
?_pPerfUnRegFunc@ATL@@3P6AJXZA DD 01H DUP (?)		; ATL::_pPerfUnRegFunc
_BSS	ENDS
;	COMDAT ?_AtlRegisterPerUser@ATL@@3_NA
_BSS	SEGMENT
?_AtlRegisterPerUser@ATL@@3_NA DB 01H DUP (?)		; ATL::_AtlRegisterPerUser
_BSS	ENDS
;	COMDAT ?ATL_CREATE_OBJECT@CComApartment@ATL@@2IA
_BSS	SEGMENT
?ATL_CREATE_OBJECT@CComApartment@ATL@@2IA DD 01H DUP (?) ; ATL::CComApartment::ATL_CREATE_OBJECT
_BSS	ENDS
;	COMDAT ?_pAtlAutoThreadModule@ATL@@3PAUIAtlAutoThreadModule@1@A
_BSS	SEGMENT
?_pAtlAutoThreadModule@ATL@@3PAUIAtlAutoThreadModule@1@A DD 01H DUP (?) ; ATL::_pAtlAutoThreadModule
_BSS	ENDS
;	COMDAT ?m_bInitFailed@CAtlBaseModule@ATL@@2_NA
_BSS	SEGMENT
?m_bInitFailed@CAtlBaseModule@ATL@@2_NA DB 01H DUP (?)	; ATL::CAtlBaseModule::m_bInitFailed
_BSS	ENDS
;	COMDAT ?_pAtlModule@ATL@@3PAVCAtlModule@1@A
_BSS	SEGMENT
?_pAtlModule@ATL@@3PAVCAtlModule@1@A DD 01H DUP (?)	; ATL::_pAtlModule
_BSS	ENDS
;	COMDAT ?m_libid@CAtlModule@ATL@@2U_GUID@@A
_BSS	SEGMENT
?m_libid@CAtlModule@ATL@@2U_GUID@@A DB 010H DUP (?)	; ATL::CAtlModule::m_libid
_BSS	ENDS
_BSS	SEGMENT
?HighResolutionHackFlag@@3HA DD 01H DUP (?)		; HighResolutionHackFlag
_BSS	ENDS
;	COMDAT ?_pModule@ATL@@3PAVCComModule@1@A
_BSS	SEGMENT
?_pModule@ATL@@3PAVCComModule@1@A DD 01H DUP (?)	; ATL::_pModule
_BSS	ENDS
_BSS	SEGMENT
?pfnDirectDrawEnumerateEx@@3P6GJP6GHPAU_GUID@@PAD1PAXPAUHMONITOR__@@@Z2K@ZA DD 01H DUP (?) ; pfnDirectDrawEnumerateEx
?pfnDirectDrawCreateEx@@3P6GJPAU_GUID@@PAPAXABU1@PAUIUnknown@@@ZA DD 01H DUP (?) ; pfnDirectDrawCreateEx
_BSS	ENDS
;	COMDAT ?cur@?$_Iosb@H@std@@2W4_Seekdir@12@B
CONST	SEGMENT
?cur@?$_Iosb@H@std@@2W4_Seekdir@12@B DD 01H		; std::_Iosb<int>::cur
CONST	ENDS
;	COMDAT ?pmField@?$CVarTypeInfo@PAK@ATL@@2QQtagVARIANT@@PAKQ3@
CONST	SEGMENT
?pmField@?$CVarTypeInfo@PAK@ATL@@2QQtagVARIANT@@PAKQ3@ DD 08H ; ATL::CVarTypeInfo<unsigned long *>::pmField
CONST	ENDS
;	COMDAT ?beg@?$_Iosb@H@std@@2W4_Seekdir@12@B
CONST	SEGMENT
?beg@?$_Iosb@H@std@@2W4_Seekdir@12@B DD 00H		; std::_Iosb<int>::beg
CONST	ENDS
;	COMDAT ?VT@?$CVarTypeInfo@PAK@ATL@@2GB
CONST	SEGMENT
?VT@?$CVarTypeInfo@PAK@ATL@@2GB DW 04013H		; ATL::CVarTypeInfo<unsigned long *>::VT
CONST	ENDS
;	COMDAT ?binary@?$_Iosb@H@std@@2W4_Openmode@12@B
CONST	SEGMENT
?binary@?$_Iosb@H@std@@2W4_Openmode@12@B DD 020H	; std::_Iosb<int>::binary
CONST	ENDS
;	COMDAT ?_Noreplace@?$_Iosb@H@std@@2W4_Openmode@12@B
CONST	SEGMENT
?_Noreplace@?$_Iosb@H@std@@2W4_Openmode@12@B DD 080H	; std::_Iosb<int>::_Noreplace
CONST	ENDS
;	COMDAT ?_Nocreate@?$_Iosb@H@std@@2W4_Openmode@12@B
CONST	SEGMENT
?_Nocreate@?$_Iosb@H@std@@2W4_Openmode@12@B DD 040H	; std::_Iosb<int>::_Nocreate
CONST	ENDS
;	COMDAT ?pmField@?$CVarTypeInfo@K@ATL@@2QQtagVARIANT@@KQ3@
CONST	SEGMENT
?pmField@?$CVarTypeInfo@K@ATL@@2QQtagVARIANT@@KQ3@ DD 08H ; ATL::CVarTypeInfo<unsigned long>::pmField
CONST	ENDS
;	COMDAT ?trunc@?$_Iosb@H@std@@2W4_Openmode@12@B
CONST	SEGMENT
?trunc@?$_Iosb@H@std@@2W4_Openmode@12@B DD 010H		; std::_Iosb<int>::trunc
CONST	ENDS
;	COMDAT ?VT@?$CVarTypeInfo@K@ATL@@2GB
CONST	SEGMENT
?VT@?$CVarTypeInfo@K@ATL@@2GB DW 013H			; ATL::CVarTypeInfo<unsigned long>::VT
CONST	ENDS
;	COMDAT ?app@?$_Iosb@H@std@@2W4_Openmode@12@B
CONST	SEGMENT
?app@?$_Iosb@H@std@@2W4_Openmode@12@B DD 08H		; std::_Iosb<int>::app
CONST	ENDS
;	COMDAT ?ate@?$_Iosb@H@std@@2W4_Openmode@12@B
CONST	SEGMENT
?ate@?$_Iosb@H@std@@2W4_Openmode@12@B DD 04H		; std::_Iosb<int>::ate
CONST	ENDS
;	COMDAT _IID_IDocHostUIHandlerDispatch
CONST	SEGMENT
_IID_IDocHostUIHandlerDispatch DD 0425b5af0H
	DW	065f1H
	DW	011d1H
	DB	096H
	DB	011H
	DB	00H
	DB	00H
	DB	0f8H
	DB	01eH
	DB	0dH
	DB	0dH
CONST	ENDS
;	COMDAT ?out@?$_Iosb@H@std@@2W4_Openmode@12@B
CONST	SEGMENT
?out@?$_Iosb@H@std@@2W4_Openmode@12@B DD 02H		; std::_Iosb<int>::out
CONST	ENDS
;	COMDAT ?pmField@?$CVarTypeInfo@PAJ@ATL@@2QQtagVARIANT@@PAJQ3@
CONST	SEGMENT
?pmField@?$CVarTypeInfo@PAJ@ATL@@2QQtagVARIANT@@PAJQ3@ DD 08H ; ATL::CVarTypeInfo<long *>::pmField
CONST	ENDS
;	COMDAT ?in@?$_Iosb@H@std@@2W4_Openmode@12@B
CONST	SEGMENT
?in@?$_Iosb@H@std@@2W4_Openmode@12@B DD 01H		; std::_Iosb<int>::in
CONST	ENDS
;	COMDAT ?VT@?$CVarTypeInfo@PAJ@ATL@@2GB
CONST	SEGMENT
?VT@?$CVarTypeInfo@PAJ@ATL@@2GB DW 04003H		; ATL::CVarTypeInfo<long *>::VT
CONST	ENDS
;	COMDAT ?_Hardfail@?$_Iosb@H@std@@2W4_Iostate@12@B
CONST	SEGMENT
?_Hardfail@?$_Iosb@H@std@@2W4_Iostate@12@B DD 010H	; std::_Iosb<int>::_Hardfail
CONST	ENDS
;	COMDAT ?badbit@?$_Iosb@H@std@@2W4_Iostate@12@B
CONST	SEGMENT
?badbit@?$_Iosb@H@std@@2W4_Iostate@12@B DD 04H		; std::_Iosb<int>::badbit
CONST	ENDS
;	COMDAT ?failbit@?$_Iosb@H@std@@2W4_Iostate@12@B
CONST	SEGMENT
?failbit@?$_Iosb@H@std@@2W4_Iostate@12@B DD 02H		; std::_Iosb<int>::failbit
CONST	ENDS
;	COMDAT ?pmField@?$CVarTypeInfo@J@ATL@@2QQtagVARIANT@@JQ3@
CONST	SEGMENT
?pmField@?$CVarTypeInfo@J@ATL@@2QQtagVARIANT@@JQ3@ DD 08H ; ATL::CVarTypeInfo<long>::pmField
CONST	ENDS
;	COMDAT ?value@?$integral_constant@_N$00@std@@2_NB
CONST	SEGMENT
?value@?$integral_constant@_N$00@std@@2_NB DB 01H	; std::integral_constant<bool,1>::value
CONST	ENDS
;	COMDAT ?eofbit@?$_Iosb@H@std@@2W4_Iostate@12@B
CONST	SEGMENT
?eofbit@?$_Iosb@H@std@@2W4_Iostate@12@B DD 01H		; std::_Iosb<int>::eofbit
CONST	ENDS
;	COMDAT ?VT@?$CVarTypeInfo@J@ATL@@2GB
CONST	SEGMENT
?VT@?$CVarTypeInfo@J@ATL@@2GB DW 03H			; ATL::CVarTypeInfo<long>::VT
CONST	ENDS
;	COMDAT ?goodbit@?$_Iosb@H@std@@2W4_Iostate@12@B
CONST	SEGMENT
?goodbit@?$_Iosb@H@std@@2W4_Iostate@12@B DD 00H		; std::_Iosb<int>::goodbit
CONST	ENDS
;	COMDAT ?floatfield@?$_Iosb@H@std@@2W4_Fmtflags@12@B
CONST	SEGMENT
?floatfield@?$_Iosb@H@std@@2W4_Fmtflags@12@B DD 03000H	; std::_Iosb<int>::floatfield
CONST	ENDS
;	COMDAT ?basefield@?$_Iosb@H@std@@2W4_Fmtflags@12@B
CONST	SEGMENT
?basefield@?$_Iosb@H@std@@2W4_Fmtflags@12@B DD 0e00H	; std::_Iosb<int>::basefield
CONST	ENDS
;	COMDAT ?pmField@?$CVarTypeInfo@PAI@ATL@@2QQtagVARIANT@@PAIQ3@
CONST	SEGMENT
?pmField@?$CVarTypeInfo@PAI@ATL@@2QQtagVARIANT@@PAIQ3@ DD 08H ; ATL::CVarTypeInfo<unsigned int *>::pmField
CONST	ENDS
;	COMDAT ?VT@?$CVarTypeInfo@PAI@ATL@@2GB
CONST	SEGMENT
?VT@?$CVarTypeInfo@PAI@ATL@@2GB DW 04013H		; ATL::CVarTypeInfo<unsigned int *>::VT
CONST	ENDS
;	COMDAT ?adjustfield@?$_Iosb@H@std@@2W4_Fmtflags@12@B
CONST	SEGMENT
?adjustfield@?$_Iosb@H@std@@2W4_Fmtflags@12@B DD 01c0H	; std::_Iosb<int>::adjustfield
CONST	ENDS
;	COMDAT ?value@?$integral_constant@_N$0A@@std@@2_NB
CONST	SEGMENT
?value@?$integral_constant@_N$0A@@std@@2_NB DB 00H	; std::integral_constant<bool,0>::value
CONST	ENDS
;	COMDAT ?_Stdio@?$_Iosb@H@std@@2W4_Fmtflags@12@B
CONST	SEGMENT
?_Stdio@?$_Iosb@H@std@@2W4_Fmtflags@12@B DD 08000H	; std::_Iosb<int>::_Stdio
CONST	ENDS
;	COMDAT ?boolalpha@?$_Iosb@H@std@@2W4_Fmtflags@12@B
CONST	SEGMENT
?boolalpha@?$_Iosb@H@std@@2W4_Fmtflags@12@B DD 04000H	; std::_Iosb<int>::boolalpha
CONST	ENDS
;	COMDAT ?hexfloat@?$_Iosb@H@std@@2W4_Fmtflags@12@B
CONST	SEGMENT
?hexfloat@?$_Iosb@H@std@@2W4_Fmtflags@12@B DD 03000H	; std::_Iosb<int>::hexfloat
CONST	ENDS
;	COMDAT ?pmField@?$CVarTypeInfo@I@ATL@@2QQtagVARIANT@@IQ3@
CONST	SEGMENT
?pmField@?$CVarTypeInfo@I@ATL@@2QQtagVARIANT@@IQ3@ DD 08H ; ATL::CVarTypeInfo<unsigned int>::pmField
CONST	ENDS
;	COMDAT ?fixed@?$_Iosb@H@std@@2W4_Fmtflags@12@B
CONST	SEGMENT
?fixed@?$_Iosb@H@std@@2W4_Fmtflags@12@B DD 02000H	; std::_Iosb<int>::fixed
CONST	ENDS
;	COMDAT ?VT@?$CVarTypeInfo@I@ATL@@2GB
CONST	SEGMENT
?VT@?$CVarTypeInfo@I@ATL@@2GB DW 013H			; ATL::CVarTypeInfo<unsigned int>::VT
CONST	ENDS
;	COMDAT ?scientific@?$_Iosb@H@std@@2W4_Fmtflags@12@B
CONST	SEGMENT
?scientific@?$_Iosb@H@std@@2W4_Fmtflags@12@B DD 01000H	; std::_Iosb<int>::scientific
CONST	ENDS
;	COMDAT ?hex@?$_Iosb@H@std@@2W4_Fmtflags@12@B
CONST	SEGMENT
?hex@?$_Iosb@H@std@@2W4_Fmtflags@12@B DD 0800H		; std::_Iosb<int>::hex
CONST	ENDS
;	COMDAT ?oct@?$_Iosb@H@std@@2W4_Fmtflags@12@B
CONST	SEGMENT
?oct@?$_Iosb@H@std@@2W4_Fmtflags@12@B DD 0400H		; std::_Iosb<int>::oct
CONST	ENDS
;	COMDAT ?pmField@?$CVarTypeInfo@PAH@ATL@@2QQtagVARIANT@@PAHQ3@
CONST	SEGMENT
?pmField@?$CVarTypeInfo@PAH@ATL@@2QQtagVARIANT@@PAHQ3@ DD 08H ; ATL::CVarTypeInfo<int *>::pmField
CONST	ENDS
;	COMDAT ?dec@?$_Iosb@H@std@@2W4_Fmtflags@12@B
CONST	SEGMENT
?dec@?$_Iosb@H@std@@2W4_Fmtflags@12@B DD 0200H		; std::_Iosb<int>::dec
CONST	ENDS
;	COMDAT ?VT@?$CVarTypeInfo@PAH@ATL@@2GB
CONST	SEGMENT
?VT@?$CVarTypeInfo@PAH@ATL@@2GB DW 04003H		; ATL::CVarTypeInfo<int *>::VT
CONST	ENDS
;	COMDAT ?internal@?$_Iosb@H@std@@2W4_Fmtflags@12@B
CONST	SEGMENT
?internal@?$_Iosb@H@std@@2W4_Fmtflags@12@B DD 0100H	; std::_Iosb<int>::internal
CONST	ENDS
;	COMDAT ?right@?$_Iosb@H@std@@2W4_Fmtflags@12@B
CONST	SEGMENT
?right@?$_Iosb@H@std@@2W4_Fmtflags@12@B DD 080H		; std::_Iosb<int>::right
CONST	ENDS
;	COMDAT ?left@?$_Iosb@H@std@@2W4_Fmtflags@12@B
CONST	SEGMENT
?left@?$_Iosb@H@std@@2W4_Fmtflags@12@B DD 040H		; std::_Iosb<int>::left
CONST	ENDS
;	COMDAT ?showpos@?$_Iosb@H@std@@2W4_Fmtflags@12@B
CONST	SEGMENT
?showpos@?$_Iosb@H@std@@2W4_Fmtflags@12@B DD 020H	; std::_Iosb<int>::showpos
CONST	ENDS
;	COMDAT ?pmField@?$CVarTypeInfo@H@ATL@@2QQtagVARIANT@@HQ3@
CONST	SEGMENT
?pmField@?$CVarTypeInfo@H@ATL@@2QQtagVARIANT@@HQ3@ DD 08H ; ATL::CVarTypeInfo<int>::pmField
CONST	ENDS
;	COMDAT ?VT@?$CVarTypeInfo@H@ATL@@2GB
CONST	SEGMENT
?VT@?$CVarTypeInfo@H@ATL@@2GB DW 03H			; ATL::CVarTypeInfo<int>::VT
CONST	ENDS
;	COMDAT ?showpoint@?$_Iosb@H@std@@2W4_Fmtflags@12@B
CONST	SEGMENT
?showpoint@?$_Iosb@H@std@@2W4_Fmtflags@12@B DD 010H	; std::_Iosb<int>::showpoint
CONST	ENDS
;	COMDAT ?showbase@?$_Iosb@H@std@@2W4_Fmtflags@12@B
CONST	SEGMENT
?showbase@?$_Iosb@H@std@@2W4_Fmtflags@12@B DD 08H	; std::_Iosb<int>::showbase
CONST	ENDS
;	COMDAT ?min_exponent10@?$numeric_limits@O@std@@2HB
CONST	SEGMENT
?min_exponent10@?$numeric_limits@O@std@@2HB DD 0fffffecdH ; std::numeric_limits<long double>::min_exponent10
CONST	ENDS
;	COMDAT ?uppercase@?$_Iosb@H@std@@2W4_Fmtflags@12@B
CONST	SEGMENT
?uppercase@?$_Iosb@H@std@@2W4_Fmtflags@12@B DD 04H	; std::_Iosb<int>::uppercase
CONST	ENDS
;	COMDAT ?min_exponent@?$numeric_limits@O@std@@2HB
CONST	SEGMENT
?min_exponent@?$numeric_limits@O@std@@2HB DD 0fffffc03H	; std::numeric_limits<long double>::min_exponent
CONST	ENDS
;	COMDAT ?unitbuf@?$_Iosb@H@std@@2W4_Fmtflags@12@B
CONST	SEGMENT
?unitbuf@?$_Iosb@H@std@@2W4_Fmtflags@12@B DD 02H	; std::_Iosb<int>::unitbuf
CONST	ENDS
;	COMDAT ?pmField@?$CVarTypeInfo@PAG@ATL@@2QQtagVARIANT@@PAGQ3@
CONST	SEGMENT
?pmField@?$CVarTypeInfo@PAG@ATL@@2QQtagVARIANT@@PAGQ3@ DD 08H ; ATL::CVarTypeInfo<unsigned short *>::pmField
CONST	ENDS
;	COMDAT ?skipws@?$_Iosb@H@std@@2W4_Fmtflags@12@B
CONST	SEGMENT
?skipws@?$_Iosb@H@std@@2W4_Fmtflags@12@B DD 01H		; std::_Iosb<int>::skipws
CONST	ENDS
;	COMDAT ?VT@?$CVarTypeInfo@PAG@ATL@@2GB
CONST	SEGMENT
?VT@?$CVarTypeInfo@PAG@ATL@@2GB DW 04012H		; ATL::CVarTypeInfo<unsigned short *>::VT
CONST	ENDS
;	COMDAT ?max_exponent10@?$numeric_limits@O@std@@2HB
CONST	SEGMENT
?max_exponent10@?$numeric_limits@O@std@@2HB DD 0134H	; std::numeric_limits<long double>::max_exponent10
CONST	ENDS
;	COMDAT __GUID_00020412_0000_0000_c000_000000000046
CONST	SEGMENT
__GUID_00020412_0000_0000_c000_000000000046 DD 020412H
	DW	00H
	DW	00H
	DB	0c0H
	DB	00H
	DB	00H
	DB	00H
	DB	00H
	DB	00H
	DB	00H
	DB	046H
CONST	ENDS
;	COMDAT ?_Max@?$AtlLimits@_K@ATL@@2_KB
CONST	SEGMENT
?_Max@?$AtlLimits@_K@ATL@@2_KB DQ ffffffffffffffffH	; ATL::AtlLimits<unsigned __int64>::_Max
CONST	ENDS
;	COMDAT ?max_exponent@?$numeric_limits@O@std@@2HB
CONST	SEGMENT
?max_exponent@?$numeric_limits@O@std@@2HB DD 0400H	; std::numeric_limits<long double>::max_exponent
CONST	ENDS
;	COMDAT _LIBID_ATLLib
CONST	SEGMENT
_LIBID_ATLLib DD 044ec0535H
	DW	0400fH
	DW	011d0H
	DB	09dH
	DB	0cdH
	DB	00H
	DB	0a0H
	DB	0c9H
	DB	03H
	DB	091H
	DB	0d3H
CONST	ENDS
;	COMDAT ?_Min@?$AtlLimits@_K@ATL@@2_KB
CONST	SEGMENT
?_Min@?$AtlLimits@_K@ATL@@2_KB DQ 0000000000000000H	; ATL::AtlLimits<unsigned __int64>::_Min
CONST	ENDS
;	COMDAT __GUID_00020401_0000_0000_c000_000000000046
CONST	SEGMENT
__GUID_00020401_0000_0000_c000_000000000046 DD 020401H
	DW	00H
	DW	00H
	DB	0c0H
	DB	00H
	DB	00H
	DB	00H
	DB	00H
	DB	00H
	DB	00H
	DB	046H
CONST	ENDS
;	COMDAT ?max_digits10@?$numeric_limits@O@std@@2HB
CONST	SEGMENT
?max_digits10@?$numeric_limits@O@std@@2HB DD 011H	; std::numeric_limits<long double>::max_digits10
CONST	ENDS
;	COMDAT ?pmField@?$CVarTypeInfo@G@ATL@@2QQtagVARIANT@@GQ3@
CONST	SEGMENT
?pmField@?$CVarTypeInfo@G@ATL@@2QQtagVARIANT@@GQ3@ DD 08H ; ATL::CVarTypeInfo<unsigned short>::pmField
CONST	ENDS
;	COMDAT ?digits10@?$numeric_limits@O@std@@2HB
CONST	SEGMENT
?digits10@?$numeric_limits@O@std@@2HB DD 0fH		; std::numeric_limits<long double>::digits10
CONST	ENDS
;	COMDAT ?VT@?$CVarTypeInfo@G@ATL@@2GB
CONST	SEGMENT
?VT@?$CVarTypeInfo@G@ATL@@2GB DW 012H			; ATL::CVarTypeInfo<unsigned short>::VT
CONST	ENDS
;	COMDAT ?digits@?$numeric_limits@O@std@@2HB
CONST	SEGMENT
?digits@?$numeric_limits@O@std@@2HB DD 035H		; std::numeric_limits<long double>::digits
CONST	ENDS
;	COMDAT ?_Max@?$AtlLimits@_J@ATL@@2_JB
CONST	SEGMENT
?_Max@?$AtlLimits@_J@ATL@@2_JB DQ 7fffffffffffffffH	; ATL::AtlLimits<__int64>::_Max
CONST	ENDS
;	COMDAT __GUID_00000001_0000_0000_c000_000000000046
CONST	SEGMENT
__GUID_00000001_0000_0000_c000_000000000046 DD 01H
	DW	00H
	DW	00H
	DB	0c0H
	DB	00H
	DB	00H
	DB	00H
	DB	00H
	DB	00H
	DB	00H
	DB	046H
CONST	ENDS
;	COMDAT ?_Min@?$AtlLimits@_J@ATL@@2_JB
CONST	SEGMENT
?_Min@?$AtlLimits@_J@ATL@@2_JB DQ 8000000000000000H	; ATL::AtlLimits<__int64>::_Min
CONST	ENDS
;	COMDAT ?pmField@?$CVarTypeInfo@PAF@ATL@@2QQtagVARIANT@@PAFQ3@
CONST	SEGMENT
?pmField@?$CVarTypeInfo@PAF@ATL@@2QQtagVARIANT@@PAFQ3@ DD 08H ; ATL::CVarTypeInfo<short *>::pmField
CONST	ENDS
;	COMDAT ?VT@?$CVarTypeInfo@PAF@ATL@@2GB
CONST	SEGMENT
?VT@?$CVarTypeInfo@PAF@ATL@@2GB DW 04002H		; ATL::CVarTypeInfo<short *>::VT
CONST	ENDS
;	COMDAT ?_Max@?$AtlLimits@K@ATL@@2KB
CONST	SEGMENT
?_Max@?$AtlLimits@K@ATL@@2KB DD 0ffffffffH		; ATL::AtlLimits<unsigned long>::_Max
CONST	ENDS
;	COMDAT ?_Min@?$AtlLimits@K@ATL@@2KB
CONST	SEGMENT
?_Min@?$AtlLimits@K@ATL@@2KB DD 00H			; ATL::AtlLimits<unsigned long>::_Min
CONST	ENDS
;	COMDAT ?pmField@?$CVarTypeInfo@F@ATL@@2QQtagVARIANT@@FQ3@
CONST	SEGMENT
?pmField@?$CVarTypeInfo@F@ATL@@2QQtagVARIANT@@FQ3@ DD 08H ; ATL::CVarTypeInfo<short>::pmField
CONST	ENDS
;	COMDAT _IID_IRegistrar
CONST	SEGMENT
_IID_IRegistrar DD 044ec053bH
	DW	0400fH
	DW	011d0H
	DB	09dH
	DB	0cdH
	DB	00H
	DB	0a0H
	DB	0c9H
	DB	03H
	DB	091H
	DB	0d3H
CONST	ENDS
;	COMDAT ?VT@?$CVarTypeInfo@F@ATL@@2GB
CONST	SEGMENT
?VT@?$CVarTypeInfo@F@ATL@@2GB DW 02H			; ATL::CVarTypeInfo<short>::VT
CONST	ENDS
;	COMDAT ?_Max@?$AtlLimits@J@ATL@@2JB
CONST	SEGMENT
?_Max@?$AtlLimits@J@ATL@@2JB DD 07fffffffH		; ATL::AtlLimits<long>::_Max
CONST	ENDS
;	COMDAT __GUID_b196b284_bab4_101a_b69c_00aa00341d07
CONST	SEGMENT
__GUID_b196b284_bab4_101a_b69c_00aa00341d07 DD 0b196b284H
	DW	0bab4H
	DW	0101aH
	DB	0b6H
	DB	09cH
	DB	00H
	DB	0aaH
	DB	00H
	DB	034H
	DB	01dH
	DB	07H
CONST	ENDS
;	COMDAT ?_Min@?$AtlLimits@J@ATL@@2JB
CONST	SEGMENT
?_Min@?$AtlLimits@J@ATL@@2JB DD 080000000H		; ATL::AtlLimits<long>::_Min
CONST	ENDS
;	COMDAT ?min_exponent10@?$numeric_limits@N@std@@2HB
CONST	SEGMENT
?min_exponent10@?$numeric_limits@N@std@@2HB DD 0fffffecdH ; std::numeric_limits<double>::min_exponent10
CONST	ENDS
;	COMDAT __GUID_7fd52380_4e07_101b_ae2d_08002b2ec713
CONST	SEGMENT
__GUID_7fd52380_4e07_101b_ae2d_08002b2ec713 DD 07fd52380H
	DW	04e07H
	DW	0101bH
	DB	0aeH
	DB	02dH
	DB	08H
	DB	00H
	DB	02bH
	DB	02eH
	DB	0c7H
	DB	013H
CONST	ENDS
;	COMDAT ?min_exponent@?$numeric_limits@N@std@@2HB
CONST	SEGMENT
?min_exponent@?$numeric_limits@N@std@@2HB DD 0fffffc03H	; std::numeric_limits<double>::min_exponent
CONST	ENDS
;	COMDAT ?pmField@?$CVarTypeInfo@PAE@ATL@@2QQtagVARIANT@@PAEQ3@
CONST	SEGMENT
?pmField@?$CVarTypeInfo@PAE@ATL@@2QQtagVARIANT@@PAEQ3@ DD 08H ; ATL::CVarTypeInfo<unsigned char *>::pmField
CONST	ENDS
;	COMDAT __GUID_00000109_0000_0000_c000_000000000046
CONST	SEGMENT
__GUID_00000109_0000_0000_c000_000000000046 DD 0109H
	DW	00H
	DW	00H
	DB	0c0H
	DB	00H
	DB	00H
	DB	00H
	DB	00H
	DB	00H
	DB	00H
	DB	046H
CONST	ENDS
;	COMDAT ?VT@?$CVarTypeInfo@PAE@ATL@@2GB
CONST	SEGMENT
?VT@?$CVarTypeInfo@PAE@ATL@@2GB DW 04011H		; ATL::CVarTypeInfo<unsigned char *>::VT
CONST	ENDS
;	COMDAT ?_Max@?$AtlLimits@I@ATL@@2IB
CONST	SEGMENT
?_Max@?$AtlLimits@I@ATL@@2IB DD 0ffffffffH		; ATL::AtlLimits<unsigned int>::_Max
CONST	ENDS
;	COMDAT ?max_exponent10@?$numeric_limits@N@std@@2HB
CONST	SEGMENT
?max_exponent10@?$numeric_limits@N@std@@2HB DD 0134H	; std::numeric_limits<double>::max_exponent10
CONST	ENDS
;	COMDAT ?_Min@?$AtlLimits@I@ATL@@2IB
CONST	SEGMENT
?_Min@?$AtlLimits@I@ATL@@2IB DD 00H			; ATL::AtlLimits<unsigned int>::_Min
CONST	ENDS
;	COMDAT ?max_exponent@?$numeric_limits@N@std@@2HB
CONST	SEGMENT
?max_exponent@?$numeric_limits@N@std@@2HB DD 0400H	; std::numeric_limits<double>::max_exponent
CONST	ENDS
;	COMDAT ?max_digits10@?$numeric_limits@N@std@@2HB
CONST	SEGMENT
?max_digits10@?$numeric_limits@N@std@@2HB DD 011H	; std::numeric_limits<double>::max_digits10
CONST	ENDS
;	COMDAT ?pmField@?$CVarTypeInfo@PAD@ATL@@2QQtagVARIANT@@PADQ3@
CONST	SEGMENT
?pmField@?$CVarTypeInfo@PAD@ATL@@2QQtagVARIANT@@PADQ3@ DD 08H ; ATL::CVarTypeInfo<char *>::pmField
CONST	ENDS
;	COMDAT ?digits10@?$numeric_limits@N@std@@2HB
CONST	SEGMENT
?digits10@?$numeric_limits@N@std@@2HB DD 0fH		; std::numeric_limits<double>::digits10
CONST	ENDS
;	COMDAT ?_Max@?$AtlLimits@H@ATL@@2HB
CONST	SEGMENT
?_Max@?$AtlLimits@H@ATL@@2HB DD 07fffffffH		; ATL::AtlLimits<int>::_Max
CONST	ENDS
;	COMDAT ?VT@?$CVarTypeInfo@PAD@ATL@@2GB
CONST	SEGMENT
?VT@?$CVarTypeInfo@PAD@ATL@@2GB DW 04010H		; ATL::CVarTypeInfo<char *>::VT
CONST	ENDS
;	COMDAT ?_Min@?$AtlLimits@H@ATL@@2HB
CONST	SEGMENT
?_Min@?$AtlLimits@H@ATL@@2HB DD 080000000H		; ATL::AtlLimits<int>::_Min
CONST	ENDS
;	COMDAT ?digits@?$numeric_limits@N@std@@2HB
CONST	SEGMENT
?digits@?$numeric_limits@N@std@@2HB DD 035H		; std::numeric_limits<double>::digits
CONST	ENDS
;	COMDAT _CLSID_Registrar
CONST	SEGMENT
_CLSID_Registrar DD 044ec053aH
	DW	0400fH
	DW	011d0H
	DB	09dH
	DB	0cdH
	DB	00H
	DB	0a0H
	DB	0c9H
	DB	03H
	DB	091H
	DB	0d3H
CONST	ENDS
;	COMDAT ?pmField@?$CVarTypeInfo@E@ATL@@2QQtagVARIANT@@EQ3@
CONST	SEGMENT
?pmField@?$CVarTypeInfo@E@ATL@@2QQtagVARIANT@@EQ3@ DD 08H ; ATL::CVarTypeInfo<unsigned char>::pmField
CONST	ENDS
;	COMDAT ?VT@?$CVarTypeInfo@E@ATL@@2GB
CONST	SEGMENT
?VT@?$CVarTypeInfo@E@ATL@@2GB DW 011H			; ATL::CVarTypeInfo<unsigned char>::VT
CONST	ENDS
;	COMDAT ?pmField@?$CVarTypeInfo@D@ATL@@2QQtagVARIANT@@DQ3@
CONST	SEGMENT
?pmField@?$CVarTypeInfo@D@ATL@@2QQtagVARIANT@@DQ3@ DD 08H ; ATL::CVarTypeInfo<char>::pmField
CONST	ENDS
;	COMDAT ?VT@?$CVarTypeInfo@D@ATL@@2GB
CONST	SEGMENT
?VT@?$CVarTypeInfo@D@ATL@@2GB DW 010H			; ATL::CVarTypeInfo<char>::VT
CONST	ENDS
;	COMDAT ?min_exponent10@?$numeric_limits@M@std@@2HB
CONST	SEGMENT
?min_exponent10@?$numeric_limits@M@std@@2HB DD 0ffffffdbH ; std::numeric_limits<float>::min_exponent10
CONST	ENDS
;	COMDAT ?min_exponent@?$numeric_limits@M@std@@2HB
CONST	SEGMENT
?min_exponent@?$numeric_limits@M@std@@2HB DD 0ffffff83H	; std::numeric_limits<float>::min_exponent
CONST	ENDS
;	COMDAT ?max_exponent10@?$numeric_limits@M@std@@2HB
CONST	SEGMENT
?max_exponent10@?$numeric_limits@M@std@@2HB DD 026H	; std::numeric_limits<float>::max_exponent10
CONST	ENDS
;	COMDAT ?max_exponent@?$numeric_limits@M@std@@2HB
CONST	SEGMENT
?max_exponent@?$numeric_limits@M@std@@2HB DD 080H	; std::numeric_limits<float>::max_exponent
CONST	ENDS
;	COMDAT ?max_digits10@?$numeric_limits@M@std@@2HB
CONST	SEGMENT
?max_digits10@?$numeric_limits@M@std@@2HB DD 09H	; std::numeric_limits<float>::max_digits10
CONST	ENDS
;	COMDAT ?digits10@?$numeric_limits@M@std@@2HB
CONST	SEGMENT
?digits10@?$numeric_limits@M@std@@2HB DD 06H		; std::numeric_limits<float>::digits10
CONST	ENDS
;	COMDAT ?digits@?$numeric_limits@M@std@@2HB
CONST	SEGMENT
?digits@?$numeric_limits@M@std@@2HB DD 018H		; std::numeric_limits<float>::digits
CONST	ENDS
;	COMDAT __GUID_00000146_0000_0000_c000_000000000046
CONST	SEGMENT
__GUID_00000146_0000_0000_c000_000000000046 DD 0146H
	DW	00H
	DW	00H
	DB	0c0H
	DB	00H
	DB	00H
	DB	00H
	DB	00H
	DB	00H
	DB	00H
	DB	046H
CONST	ENDS
;	COMDAT ?digits10@?$numeric_limits@_K@std@@2HB
CONST	SEGMENT
?digits10@?$numeric_limits@_K@std@@2HB DD 013H		; std::numeric_limits<unsigned __int64>::digits10
CONST	ENDS
;	COMDAT ?digits@?$numeric_limits@_K@std@@2HB
CONST	SEGMENT
?digits@?$numeric_limits@_K@std@@2HB DD 040H		; std::numeric_limits<unsigned __int64>::digits
CONST	ENDS
;	COMDAT ?is_signed@?$numeric_limits@_K@std@@2_NB
CONST	SEGMENT
?is_signed@?$numeric_limits@_K@std@@2_NB DB 00H		; std::numeric_limits<unsigned __int64>::is_signed
CONST	ENDS
;	COMDAT ?digits10@?$numeric_limits@_J@std@@2HB
CONST	SEGMENT
?digits10@?$numeric_limits@_J@std@@2HB DD 012H		; std::numeric_limits<__int64>::digits10
CONST	ENDS
;	COMDAT ?digits@?$numeric_limits@_J@std@@2HB
CONST	SEGMENT
?digits@?$numeric_limits@_J@std@@2HB DD 03fH		; std::numeric_limits<__int64>::digits
CONST	ENDS
;	COMDAT ?is_signed@?$numeric_limits@_J@std@@2_NB
CONST	SEGMENT
?is_signed@?$numeric_limits@_J@std@@2_NB DB 01H		; std::numeric_limits<__int64>::is_signed
CONST	ENDS
;	COMDAT ?value@?$integral_constant@I$0A@@std@@2IB
CONST	SEGMENT
?value@?$integral_constant@I$0A@@std@@2IB DD 00H	; std::integral_constant<unsigned int,0>::value
CONST	ENDS
;	COMDAT ?digits10@?$numeric_limits@K@std@@2HB
CONST	SEGMENT
?digits10@?$numeric_limits@K@std@@2HB DD 09H		; std::numeric_limits<unsigned long>::digits10
CONST	ENDS
;	COMDAT ?digits@?$numeric_limits@K@std@@2HB
CONST	SEGMENT
?digits@?$numeric_limits@K@std@@2HB DD 020H		; std::numeric_limits<unsigned long>::digits
CONST	ENDS
;	COMDAT ?is_signed@?$numeric_limits@K@std@@2_NB
CONST	SEGMENT
?is_signed@?$numeric_limits@K@std@@2_NB DB 00H		; std::numeric_limits<unsigned long>::is_signed
CONST	ENDS
;	COMDAT __GUID_1cf2b120_547d_101b_8e65_08002b2bd119
CONST	SEGMENT
__GUID_1cf2b120_547d_101b_8e65_08002b2bd119 DD 01cf2b120H
	DW	0547dH
	DW	0101bH
	DB	08eH
	DB	065H
	DB	08H
	DB	00H
	DB	02bH
	DB	02bH
	DB	0d1H
	DB	019H
CONST	ENDS
;	COMDAT ?digits10@?$numeric_limits@J@std@@2HB
CONST	SEGMENT
?digits10@?$numeric_limits@J@std@@2HB DD 09H		; std::numeric_limits<long>::digits10
CONST	ENDS
;	COMDAT ?digits@?$numeric_limits@J@std@@2HB
CONST	SEGMENT
?digits@?$numeric_limits@J@std@@2HB DD 01fH		; std::numeric_limits<long>::digits
CONST	ENDS
;	COMDAT ?is_signed@?$numeric_limits@J@std@@2_NB
CONST	SEGMENT
?is_signed@?$numeric_limits@J@std@@2_NB DB 01H		; std::numeric_limits<long>::is_signed
CONST	ENDS
;	COMDAT _IID_IInternalConnection
CONST	SEGMENT
_IID_IInternalConnection DD 072ad0770H
	DW	06a9fH
	DW	011d1H
	DB	0bcH
	DB	0ecH
	DB	00H
	DB	060H
	DB	08H
	DB	08fH
	DB	044H
	DB	04eH
CONST	ENDS
;	COMDAT ?digits10@?$numeric_limits@I@std@@2HB
CONST	SEGMENT
?digits10@?$numeric_limits@I@std@@2HB DD 09H		; std::numeric_limits<unsigned int>::digits10
CONST	ENDS
;	COMDAT ?digits@?$numeric_limits@I@std@@2HB
CONST	SEGMENT
?digits@?$numeric_limits@I@std@@2HB DD 020H		; std::numeric_limits<unsigned int>::digits
CONST	ENDS
;	COMDAT _IID_IAxWinAmbientDispatchEx
CONST	SEGMENT
_IID_IAxWinAmbientDispatchEx DD 0b2d0778bH
	DW	0ac99H
	DW	04c58H
	DB	0a5H
	DB	0c8H
	DB	0e7H
	DB	072H
	DB	04eH
	DB	053H
	DB	016H
	DB	0b5H
CONST	ENDS
;	COMDAT ?is_signed@?$numeric_limits@I@std@@2_NB
CONST	SEGMENT
?is_signed@?$numeric_limits@I@std@@2_NB DB 00H		; std::numeric_limits<unsigned int>::is_signed
CONST	ENDS
;	COMDAT ?digits10@?$numeric_limits@H@std@@2HB
CONST	SEGMENT
?digits10@?$numeric_limits@H@std@@2HB DD 09H		; std::numeric_limits<int>::digits10
CONST	ENDS
;	COMDAT __GUID_fc4801a3_2ba9_11cf_a229_00aa003d7352
CONST	SEGMENT
__GUID_fc4801a3_2ba9_11cf_a229_00aa003d7352 DD 0fc4801a3H
	DW	02ba9H
	DW	011cfH
	DB	0a2H
	DB	029H
	DB	00H
	DB	0aaH
	DB	00H
	DB	03dH
	DB	073H
	DB	052H
CONST	ENDS
;	COMDAT ?digits@?$numeric_limits@H@std@@2HB
CONST	SEGMENT
?digits@?$numeric_limits@H@std@@2HB DD 01fH		; std::numeric_limits<int>::digits
CONST	ENDS
;	COMDAT ?is_signed@?$numeric_limits@H@std@@2_NB
CONST	SEGMENT
?is_signed@?$numeric_limits@H@std@@2_NB DB 01H		; std::numeric_limits<int>::is_signed
CONST	ENDS
;	COMDAT ?MAX_TYPE@CRegParser@ATL@@1HB
CONST	SEGMENT
?MAX_TYPE@CRegParser@ATL@@1HB DD 01000H			; ATL::CRegParser::MAX_TYPE
CONST	ENDS
;	COMDAT ?cbNeverDelete@CRegParser@ATL@@1HB
CONST	SEGMENT
?cbNeverDelete@CRegParser@ATL@@1HB DD 0cH		; ATL::CRegParser::cbNeverDelete
CONST	ENDS
;	COMDAT ?rgszNeverDelete@CRegParser@ATL@@1QBQBDB
CONST	SEGMENT
?rgszNeverDelete@CRegParser@ATL@@1QBQBDB DD FLAT:??_C@_05PDIKPLII@AppID?$AA@ ; ATL::CRegParser::rgszNeverDelete
	DD	FLAT:??_C@_05GIBEAPNE@CLSID?$AA@
	DD	FLAT:??_C@_0BF@HDDNNDFH@Component?5Categories?$AA@
	DD	FLAT:??_C@_08PICKODJL@FileType?$AA@
	DD	FLAT:??_C@_09JKPGEJCH@Interface?$AA@
	DD	FLAT:??_C@_08PPIOJEA@Hardware?$AA@
	DD	FLAT:??_C@_04IHBFOLAC@Mime?$AA@
	DD	FLAT:??_C@_03DDIMFGBA@SAM?$AA@
	DD	FLAT:??_C@_08LOPHEHKG@SECURITY?$AA@
	DD	FLAT:??_C@_06FDHFNJBJ@SYSTEM?$AA@
	DD	FLAT:??_C@_08KEKAJNJI@Software?$AA@
	DD	FLAT:??_C@_07KJLOKDKB@TypeLib?$AA@
CONST	ENDS
;	COMDAT ?digits10@?$numeric_limits@G@std@@2HB
CONST	SEGMENT
?digits10@?$numeric_limits@G@std@@2HB DD 04H		; std::numeric_limits<unsigned short>::digits10
CONST	ENDS
;	COMDAT ?digits@?$numeric_limits@G@std@@2HB
CONST	SEGMENT
?digits@?$numeric_limits@G@std@@2HB DD 010H		; std::numeric_limits<unsigned short>::digits
CONST	ENDS
;	COMDAT ?is_signed@?$numeric_limits@G@std@@2_NB
CONST	SEGMENT
?is_signed@?$numeric_limits@G@std@@2_NB DB 00H		; std::numeric_limits<unsigned short>::is_signed
CONST	ENDS
;	COMDAT ?MAX_VALUE@CRegParser@ATL@@1HB
CONST	SEGMENT
?MAX_VALUE@CRegParser@ATL@@1HB DD 01000H		; ATL::CRegParser::MAX_VALUE
CONST	ENDS
;	COMDAT ?digits10@?$numeric_limits@F@std@@2HB
CONST	SEGMENT
?digits10@?$numeric_limits@F@std@@2HB DD 04H		; std::numeric_limits<short>::digits10
CONST	ENDS
;	COMDAT __GUID_00000000_0000_0000_0000_000000000000
CONST	SEGMENT
__GUID_00000000_0000_0000_0000_000000000000 DD 00H
	DW	00H
	DW	00H
	DB	00H
	DB	00H
	DB	00H
	DB	00H
	DB	00H
	DB	00H
	DB	00H
	DB	00H
CONST	ENDS
;	COMDAT ?digits@?$numeric_limits@F@std@@2HB
CONST	SEGMENT
?digits@?$numeric_limits@F@std@@2HB DD 0fH		; std::numeric_limits<short>::digits
CONST	ENDS
;	COMDAT ?is_signed@?$numeric_limits@F@std@@2_NB
CONST	SEGMENT
?is_signed@?$numeric_limits@F@std@@2_NB DB 01H		; std::numeric_limits<short>::is_signed
CONST	ENDS
;	COMDAT ?digits10@?$numeric_limits@E@std@@2HB
CONST	SEGMENT
?digits10@?$numeric_limits@E@std@@2HB DD 02H		; std::numeric_limits<unsigned char>::digits10
CONST	ENDS
;	COMDAT ?digits@?$numeric_limits@E@std@@2HB
CONST	SEGMENT
?digits@?$numeric_limits@E@std@@2HB DD 08H		; std::numeric_limits<unsigned char>::digits
CONST	ENDS
;	COMDAT ?is_signed@?$numeric_limits@E@std@@2_NB
CONST	SEGMENT
?is_signed@?$numeric_limits@E@std@@2_NB DB 00H		; std::numeric_limits<unsigned char>::is_signed
CONST	ENDS
;	COMDAT ?table_size@?$ctype@D@std@@2IB
CONST	SEGMENT
?table_size@?$ctype@D@std@@2IB DD 0100H			; std::ctype<char>::table_size
CONST	ENDS
;	COMDAT ?digits10@?$numeric_limits@C@std@@2HB
CONST	SEGMENT
?digits10@?$numeric_limits@C@std@@2HB DD 02H		; std::numeric_limits<signed char>::digits10
CONST	ENDS
;	COMDAT ?digits@?$numeric_limits@C@std@@2HB
CONST	SEGMENT
?digits@?$numeric_limits@C@std@@2HB DD 07H		; std::numeric_limits<signed char>::digits
CONST	ENDS
;	COMDAT ?is_signed@?$numeric_limits@C@std@@2_NB
CONST	SEGMENT
?is_signed@?$numeric_limits@C@std@@2_NB DB 01H		; std::numeric_limits<signed char>::is_signed
CONST	ENDS
;	COMDAT ?value@?$_Sizeof@HU_Nil@std@@U12@U12@U12@U12@U12@U12@@std@@2IB
CONST	SEGMENT
?value@?$_Sizeof@HU_Nil@std@@U12@U12@U12@U12@U12@U12@@std@@2IB DD 01H ; std::_Sizeof<int,std::_Nil,std::_Nil,std::_Nil,std::_Nil,std::_Nil,std::_Nil,std::_Nil>::value
CONST	ENDS
;	COMDAT ?digits10@?$numeric_limits@_N@std@@2HB
CONST	SEGMENT
?digits10@?$numeric_limits@_N@std@@2HB DD 00H		; std::numeric_limits<bool>::digits10
CONST	ENDS
;	COMDAT ?digits@?$numeric_limits@_N@std@@2HB
CONST	SEGMENT
?digits@?$numeric_limits@_N@std@@2HB DD 01H		; std::numeric_limits<bool>::digits
CONST	ENDS
;	COMDAT ?is_signed@?$numeric_limits@_N@std@@2_NB
CONST	SEGMENT
?is_signed@?$numeric_limits@_N@std@@2_NB DB 00H		; std::numeric_limits<bool>::is_signed
CONST	ENDS
;	COMDAT ?is_modulo@?$numeric_limits@_N@std@@2_NB
CONST	SEGMENT
?is_modulo@?$numeric_limits@_N@std@@2_NB DB 00H		; std::numeric_limits<bool>::is_modulo
CONST	ENDS
;	COMDAT ?digits10@?$numeric_limits@_W@std@@2HB
CONST	SEGMENT
?digits10@?$numeric_limits@_W@std@@2HB DD 04H		; std::numeric_limits<wchar_t>::digits10
CONST	ENDS
;	COMDAT ?digits@?$numeric_limits@_W@std@@2HB
CONST	SEGMENT
?digits@?$numeric_limits@_W@std@@2HB DD 010H		; std::numeric_limits<wchar_t>::digits
CONST	ENDS
;	COMDAT ?is_signed@?$numeric_limits@_W@std@@2_NB
CONST	SEGMENT
?is_signed@?$numeric_limits@_W@std@@2_NB DB 00H		; std::numeric_limits<wchar_t>::is_signed
CONST	ENDS
;	COMDAT ?none@?$_Locbase@H@std@@2HB
CONST	SEGMENT
?none@?$_Locbase@H@std@@2HB DD 00H			; std::_Locbase<int>::none
CONST	ENDS
;	COMDAT ?all@?$_Locbase@H@std@@2HB
CONST	SEGMENT
?all@?$_Locbase@H@std@@2HB DD 03fH			; std::_Locbase<int>::all
CONST	ENDS
;	COMDAT ?messages@?$_Locbase@H@std@@2HB
CONST	SEGMENT
?messages@?$_Locbase@H@std@@2HB DD 020H			; std::_Locbase<int>::messages
CONST	ENDS
;	COMDAT ?time@?$_Locbase@H@std@@2HB
CONST	SEGMENT
?time@?$_Locbase@H@std@@2HB DD 010H			; std::_Locbase<int>::time
CONST	ENDS
;	COMDAT ?numeric@?$_Locbase@H@std@@2HB
CONST	SEGMENT
?numeric@?$_Locbase@H@std@@2HB DD 08H			; std::_Locbase<int>::numeric
CONST	ENDS
;	COMDAT ?monetary@?$_Locbase@H@std@@2HB
CONST	SEGMENT
?monetary@?$_Locbase@H@std@@2HB DD 04H			; std::_Locbase<int>::monetary
CONST	ENDS
;	COMDAT ?ctype@?$_Locbase@H@std@@2HB
CONST	SEGMENT
?ctype@?$_Locbase@H@std@@2HB DD 02H			; std::_Locbase<int>::ctype
CONST	ENDS
;	COMDAT ?collate@?$_Locbase@H@std@@2HB
CONST	SEGMENT
?collate@?$_Locbase@H@std@@2HB DD 01H			; std::_Locbase<int>::collate
CONST	ENDS
;	COMDAT _IID_IAxWinAmbientDispatch
CONST	SEGMENT
_IID_IAxWinAmbientDispatch DD 0b6ea2051H
	DW	048aH
	DW	011d1H
	DB	082H
	DB	0b9H
	DB	00H
	DB	0c0H
	DB	04fH
	DB	0b9H
	DB	094H
	DB	02eH
CONST	ENDS
;	COMDAT ?digits10@?$numeric_limits@D@std@@2HB
CONST	SEGMENT
?digits10@?$numeric_limits@D@std@@2HB DD 02H		; std::numeric_limits<char>::digits10
CONST	ENDS
;	COMDAT ?digits@?$numeric_limits@D@std@@2HB
CONST	SEGMENT
?digits@?$numeric_limits@D@std@@2HB DD 07H		; std::numeric_limits<char>::digits
CONST	ENDS
;	COMDAT ?is_signed@?$numeric_limits@D@std@@2_NB
CONST	SEGMENT
?is_signed@?$numeric_limits@D@std@@2_NB DB 01H		; std::numeric_limits<char>::is_signed
CONST	ENDS
;	COMDAT ?CMPDIRTYDATA_INTERVAL@FalconEntity@@2KB
CONST	SEGMENT
?CMPDIRTYDATA_INTERVAL@FalconEntity@@2KB DD 0c8H	; FalconEntity::CMPDIRTYDATA_INTERVAL
CONST	ENDS
;	COMDAT ?SIMDIRTYDATA_INTERVAL@FalconEntity@@2KB
CONST	SEGMENT
?SIMDIRTYDATA_INTERVAL@FalconEntity@@2KB DD 0c8H	; FalconEntity::SIMDIRTYDATA_INTERVAL
CONST	ENDS
;	COMDAT ??_C@_06JBKGCNBB@Delete?$AA@
CONST	SEGMENT
??_C@_06JBKGCNBB@Delete?$AA@ DB 'Delete', 00H		; `string'
CONST	ENDS
;	COMDAT ?radix@_Num_float_base@std@@2HB
CONST	SEGMENT
?radix@_Num_float_base@std@@2HB DD 02H			; std::_Num_float_base::radix
CONST	ENDS
;	COMDAT ?szDelete@ATL@@3QBDB
CONST	SEGMENT
?szDelete@ATL@@3QBDB DD FLAT:??_C@_06JBKGCNBB@Delete?$AA@ ; ATL::szDelete
CONST	ENDS
;	COMDAT ??_C@_08KAAPDIAN@NoRemove?$AA@
CONST	SEGMENT
??_C@_08KAAPDIAN@NoRemove?$AA@ DB 'NoRemove', 00H	; `string'
CONST	ENDS
;	COMDAT ?szNoRemove@ATL@@3QBDB
CONST	SEGMENT
?szNoRemove@ATL@@3QBDB DD FLAT:??_C@_08KAAPDIAN@NoRemove?$AA@ ; ATL::szNoRemove
CONST	ENDS
;	COMDAT ?round_style@_Num_float_base@std@@2W4float_round_style@2@B
CONST	SEGMENT
?round_style@_Num_float_base@std@@2W4float_round_style@2@B DD 01H ; std::_Num_float_base::round_style
CONST	ENDS
;	COMDAT ??_C@_0M@DBGDLGLL@ForceRemove?$AA@
CONST	SEGMENT
??_C@_0M@DBGDLGLL@ForceRemove?$AA@ DB 'ForceRemove', 00H ; `string'
CONST	ENDS
;	COMDAT ?szForceRemove@ATL@@3QBDB
CONST	SEGMENT
?szForceRemove@ATL@@3QBDB DD FLAT:??_C@_0M@DBGDLGLL@ForceRemove?$AA@ ; ATL::szForceRemove
CONST	ENDS
;	COMDAT ??_C@_03LAIAPFCB@Val?$AA@
CONST	SEGMENT
??_C@_03LAIAPFCB@Val?$AA@ DB 'Val', 00H			; `string'
CONST	ENDS
;	COMDAT ?traps@_Num_float_base@std@@2_NB
CONST	SEGMENT
?traps@_Num_float_base@std@@2_NB DB 00H			; std::_Num_float_base::traps
CONST	ENDS
;	COMDAT ?szValToken@ATL@@3QBDB
CONST	SEGMENT
?szValToken@ATL@@3QBDB DD FLAT:??_C@_03LAIAPFCB@Val?$AA@ ; ATL::szValToken
CONST	ENDS
;	COMDAT ??_C@_01HMGJMAIH@B?$AA@
CONST	SEGMENT
??_C@_01HMGJMAIH@B?$AA@ DB 'B', 00H			; `string'
CONST	ENDS
;	COMDAT ?szBinaryVal@ATL@@3QBDB
CONST	SEGMENT
?szBinaryVal@ATL@@3QBDB DD FLAT:??_C@_01HMGJMAIH@B?$AA@	; ATL::szBinaryVal
CONST	ENDS
;	COMDAT ?tinyness_before@_Num_float_base@std@@2_NB
CONST	SEGMENT
?tinyness_before@_Num_float_base@std@@2_NB DB 01H	; std::_Num_float_base::tinyness_before
CONST	ENDS
;	COMDAT ??_C@_01CKDDGHAB@D?$AA@
CONST	SEGMENT
??_C@_01CKDDGHAB@D?$AA@ DB 'D', 00H			; `string'
CONST	ENDS
;	COMDAT ?szDwordVal@ATL@@3QBDB
CONST	SEGMENT
?szDwordVal@ATL@@3QBDB DD FLAT:??_C@_01CKDDGHAB@D?$AA@	; ATL::szDwordVal
CONST	ENDS
;	COMDAT ??_C@_01PLPBNMEI@M?$AA@
CONST	SEGMENT
??_C@_01PLPBNMEI@M?$AA@ DB 'M', 00H			; `string'
CONST	ENDS
;	COMDAT ?is_specialized@_Num_float_base@std@@2_NB
CONST	SEGMENT
?is_specialized@_Num_float_base@std@@2_NB DB 01H	; std::_Num_float_base::is_specialized
CONST	ENDS
;	COMDAT _IID_IAxWinHostWindowLic
CONST	SEGMENT
_IID_IAxWinHostWindowLic DD 03935bda8H
	DW	04ed9H
	DW	0495cH
	DB	086H
	DB	050H
	DB	0e0H
	DB	01fH
	DB	0c1H
	DB	0e3H
	DB	08aH
	DB	04bH
CONST	ENDS
;	COMDAT ?multiszStringVal@ATL@@3QBDB
CONST	SEGMENT
?multiszStringVal@ATL@@3QBDB DD FLAT:??_C@_01PLPBNMEI@M?$AA@ ; ATL::multiszStringVal
CONST	ENDS
;	COMDAT ??_C@_01CPLAODJH@S?$AA@
CONST	SEGMENT
??_C@_01CPLAODJH@S?$AA@ DB 'S', 00H			; `string'
CONST	ENDS
;	COMDAT ?szStringVal@ATL@@3QBDB
CONST	SEGMENT
?szStringVal@ATL@@3QBDB DD FLAT:??_C@_01CPLAODJH@S?$AA@	; ATL::szStringVal
CONST	ENDS
;	COMDAT ?is_signed@_Num_float_base@std@@2_NB
CONST	SEGMENT
?is_signed@_Num_float_base@std@@2_NB DB 01H		; std::_Num_float_base::is_signed
CONST	ENDS
;	COMDAT ?chEquals@ATL@@3DB
CONST	SEGMENT
?chEquals@ATL@@3DB DB 03dH				; ATL::chEquals
CONST	ENDS
;	COMDAT ?chQuote@ATL@@3DB
CONST	SEGMENT
?chQuote@ATL@@3DB DB 027H				; ATL::chQuote
CONST	ENDS
;	COMDAT ?chLeftBracket@ATL@@3DB
CONST	SEGMENT
?chLeftBracket@ATL@@3DB DB 07bH				; ATL::chLeftBracket
CONST	ENDS
;	COMDAT ?is_modulo@_Num_float_base@std@@2_NB
CONST	SEGMENT
?is_modulo@_Num_float_base@std@@2_NB DB 00H		; std::_Num_float_base::is_modulo
CONST	ENDS
;	COMDAT ?chRightBracket@ATL@@3DB
CONST	SEGMENT
?chRightBracket@ATL@@3DB DB 07dH			; ATL::chRightBracket
CONST	ENDS
;	COMDAT ?chDirSep@ATL@@3DB
CONST	SEGMENT
?chDirSep@ATL@@3DB DB 05cH				; ATL::chDirSep
CONST	ENDS
;	COMDAT ?is_integer@_Num_float_base@std@@2_NB
CONST	SEGMENT
?is_integer@_Num_float_base@std@@2_NB DB 00H		; std::_Num_float_base::is_integer
CONST	ENDS
;	COMDAT ?is_iec559@_Num_float_base@std@@2_NB
CONST	SEGMENT
?is_iec559@_Num_float_base@std@@2_NB DB 01H		; std::_Num_float_base::is_iec559
CONST	ENDS
;	COMDAT ?is_exact@_Num_float_base@std@@2_NB
CONST	SEGMENT
?is_exact@_Num_float_base@std@@2_NB DB 00H		; std::_Num_float_base::is_exact
CONST	ENDS
;	COMDAT ?is_bounded@_Num_float_base@std@@2_NB
CONST	SEGMENT
?is_bounded@_Num_float_base@std@@2_NB DB 01H		; std::_Num_float_base::is_bounded
CONST	ENDS
;	COMDAT ?has_signaling_NaN@_Num_float_base@std@@2_NB
CONST	SEGMENT
?has_signaling_NaN@_Num_float_base@std@@2_NB DB 01H	; std::_Num_float_base::has_signaling_NaN
CONST	ENDS
;	COMDAT ?has_quiet_NaN@_Num_float_base@std@@2_NB
CONST	SEGMENT
?has_quiet_NaN@_Num_float_base@std@@2_NB DB 01H		; std::_Num_float_base::has_quiet_NaN
CONST	ENDS
;	COMDAT ?has_infinity@_Num_float_base@std@@2_NB
CONST	SEGMENT
?has_infinity@_Num_float_base@std@@2_NB DB 01H		; std::_Num_float_base::has_infinity
CONST	ENDS
;	COMDAT ?has_denorm_loss@_Num_float_base@std@@2_NB
CONST	SEGMENT
?has_denorm_loss@_Num_float_base@std@@2_NB DB 01H	; std::_Num_float_base::has_denorm_loss
CONST	ENDS
;	COMDAT ?has_denorm@_Num_float_base@std@@2W4float_denorm_style@2@B
CONST	SEGMENT
?has_denorm@_Num_float_base@std@@2W4float_denorm_style@2@B DD 01H ; std::_Num_float_base::has_denorm
CONST	ENDS
;	COMDAT ?radix@_Num_int_base@std@@2HB
CONST	SEGMENT
?radix@_Num_int_base@std@@2HB DD 02H			; std::_Num_int_base::radix
CONST	ENDS
;	COMDAT ?is_specialized@_Num_int_base@std@@2_NB
CONST	SEGMENT
?is_specialized@_Num_int_base@std@@2_NB DB 01H		; std::_Num_int_base::is_specialized
CONST	ENDS
;	COMDAT ?is_modulo@_Num_int_base@std@@2_NB
CONST	SEGMENT
?is_modulo@_Num_int_base@std@@2_NB DB 01H		; std::_Num_int_base::is_modulo
CONST	ENDS
;	COMDAT ?is_integer@_Num_int_base@std@@2_NB
CONST	SEGMENT
?is_integer@_Num_int_base@std@@2_NB DB 01H		; std::_Num_int_base::is_integer
CONST	ENDS
;	COMDAT ?is_exact@_Num_int_base@std@@2_NB
CONST	SEGMENT
?is_exact@_Num_int_base@std@@2_NB DB 01H		; std::_Num_int_base::is_exact
CONST	ENDS
;	COMDAT ?pmField@?$CVarTypeInfo@PATtagCY@@@ATL@@2QQtagVARIANT@@PATtagCY@@Q3@
CONST	SEGMENT
?pmField@?$CVarTypeInfo@PATtagCY@@@ATL@@2QQtagVARIANT@@PATtagCY@@Q3@ DD 08H ; ATL::CVarTypeInfo<tagCY *>::pmField
CONST	ENDS
;	COMDAT ?is_bounded@_Num_int_base@std@@2_NB
CONST	SEGMENT
?is_bounded@_Num_int_base@std@@2_NB DB 01H		; std::_Num_int_base::is_bounded
CONST	ENDS
;	COMDAT ?VT@?$CVarTypeInfo@PATtagCY@@@ATL@@2GB
CONST	SEGMENT
?VT@?$CVarTypeInfo@PATtagCY@@@ATL@@2GB DW 04006H	; ATL::CVarTypeInfo<tagCY *>::VT
CONST	ENDS
;	COMDAT ??_C@_05PDIKPLII@AppID?$AA@
CONST	SEGMENT
??_C@_05PDIKPLII@AppID?$AA@ DB 'AppID', 00H		; `string'
CONST	ENDS
;	COMDAT ?pmField@?$CVarTypeInfo@TtagCY@@@ATL@@2QQtagVARIANT@@TtagCY@@Q3@
CONST	SEGMENT
?pmField@?$CVarTypeInfo@TtagCY@@@ATL@@2QQtagVARIANT@@TtagCY@@Q3@ DD 08H ; ATL::CVarTypeInfo<tagCY>::pmField
CONST	ENDS
;	COMDAT ?VT@?$CVarTypeInfo@TtagCY@@@ATL@@2GB
CONST	SEGMENT
?VT@?$CVarTypeInfo@TtagCY@@@ATL@@2GB DW 06H		; ATL::CVarTypeInfo<tagCY>::VT
CONST	ENDS
CONST	SEGMENT
_L_2	DD	03f317218r			; 0.693147
CONST	ENDS
;	COMDAT ?pmField@?$CVarTypeInfo@PAPAUIDispatch@@@ATL@@2QQtagVARIANT@@PAPAUIDispatch@@Q3@
CONST	SEGMENT
?pmField@?$CVarTypeInfo@PAPAUIDispatch@@@ATL@@2QQtagVARIANT@@PAPAUIDispatch@@Q3@ DD 08H ; ATL::CVarTypeInfo<IDispatch * *>::pmField
CONST	ENDS
;	COMDAT ?VT@?$CVarTypeInfo@PAPAUIDispatch@@@ATL@@2GB
CONST	SEGMENT
?VT@?$CVarTypeInfo@PAPAUIDispatch@@@ATL@@2GB DW 04009H	; ATL::CVarTypeInfo<IDispatch * *>::VT
CONST	ENDS
;	COMDAT _IID_IAxWinHostWindow
CONST	SEGMENT
_IID_IAxWinHostWindow DD 0b6ea2050H
	DW	048aH
	DW	011d1H
	DB	082H
	DB	0b9H
	DB	00H
	DB	0c0H
	DB	04fH
	DB	0b9H
	DB	094H
	DB	02eH
CONST	ENDS
;	COMDAT ?radix@_Num_base@std@@2HB
CONST	SEGMENT
?radix@_Num_base@std@@2HB DD 00H			; std::_Num_base::radix
CONST	ENDS
;	COMDAT ?min_exponent10@_Num_base@std@@2HB
CONST	SEGMENT
?min_exponent10@_Num_base@std@@2HB DD 00H		; std::_Num_base::min_exponent10
CONST	ENDS
;	COMDAT ??_C@_05GIBEAPNE@CLSID?$AA@
CONST	SEGMENT
??_C@_05GIBEAPNE@CLSID?$AA@ DB 'CLSID', 00H		; `string'
CONST	ENDS
;	COMDAT ?min_exponent@_Num_base@std@@2HB
CONST	SEGMENT
?min_exponent@_Num_base@std@@2HB DD 00H			; std::_Num_base::min_exponent
CONST	ENDS
;	COMDAT ?pmField@?$CVarTypeInfo@PAUIDispatch@@@ATL@@2QQtagVARIANT@@PAUIDispatch@@Q3@
CONST	SEGMENT
?pmField@?$CVarTypeInfo@PAUIDispatch@@@ATL@@2QQtagVARIANT@@PAUIDispatch@@Q3@ DD 08H ; ATL::CVarTypeInfo<IDispatch *>::pmField
CONST	ENDS
;	COMDAT ?max_exponent10@_Num_base@std@@2HB
CONST	SEGMENT
?max_exponent10@_Num_base@std@@2HB DD 00H		; std::_Num_base::max_exponent10
CONST	ENDS
;	COMDAT ?VT@?$CVarTypeInfo@PAUIDispatch@@@ATL@@2GB
CONST	SEGMENT
?VT@?$CVarTypeInfo@PAUIDispatch@@@ATL@@2GB DW 09H	; ATL::CVarTypeInfo<IDispatch *>::VT
CONST	ENDS
;	COMDAT ?max_exponent@_Num_base@std@@2HB
CONST	SEGMENT
?max_exponent@_Num_base@std@@2HB DD 00H			; std::_Num_base::max_exponent
CONST	ENDS
;	COMDAT __GUID_0000010c_0000_0000_c000_000000000046
CONST	SEGMENT
__GUID_0000010c_0000_0000_c000_000000000046 DD 010cH
	DW	00H
	DW	00H
	DB	0c0H
	DB	00H
	DB	00H
	DB	00H
	DB	00H
	DB	00H
	DB	00H
	DB	046H
CONST	ENDS
;	COMDAT ?max_digits10@_Num_base@std@@2HB
CONST	SEGMENT
?max_digits10@_Num_base@std@@2HB DD 00H			; std::_Num_base::max_digits10
CONST	ENDS
;	COMDAT ?digits10@_Num_base@std@@2HB
CONST	SEGMENT
?digits10@_Num_base@std@@2HB DD 00H			; std::_Num_base::digits10
CONST	ENDS
;	COMDAT ?digits@_Num_base@std@@2HB
CONST	SEGMENT
?digits@_Num_base@std@@2HB DD 00H			; std::_Num_base::digits
CONST	ENDS
;	COMDAT ?pmField@?$CVarTypeInfo@PAPAUIUnknown@@@ATL@@2QQtagVARIANT@@PAPAUIUnknown@@Q3@
CONST	SEGMENT
?pmField@?$CVarTypeInfo@PAPAUIUnknown@@@ATL@@2QQtagVARIANT@@PAPAUIUnknown@@Q3@ DD 08H ; ATL::CVarTypeInfo<IUnknown * *>::pmField
CONST	ENDS
;	COMDAT ?VT@?$CVarTypeInfo@PAPAUIUnknown@@@ATL@@2GB
CONST	SEGMENT
?VT@?$CVarTypeInfo@PAPAUIUnknown@@@ATL@@2GB DW 0400dH	; ATL::CVarTypeInfo<IUnknown * *>::VT
CONST	ENDS
;	COMDAT ?round_style@_Num_base@std@@2W4float_round_style@2@B
CONST	SEGMENT
?round_style@_Num_base@std@@2W4float_round_style@2@B DD 00H ; std::_Num_base::round_style
CONST	ENDS
;	COMDAT ?traps@_Num_base@std@@2_NB
CONST	SEGMENT
?traps@_Num_base@std@@2_NB DB 00H			; std::_Num_base::traps
CONST	ENDS
;	COMDAT ?tinyness_before@_Num_base@std@@2_NB
CONST	SEGMENT
?tinyness_before@_Num_base@std@@2_NB DB 00H		; std::_Num_base::tinyness_before
CONST	ENDS
;	COMDAT ?is_specialized@_Num_base@std@@2_NB
CONST	SEGMENT
?is_specialized@_Num_base@std@@2_NB DB 00H		; std::_Num_base::is_specialized
CONST	ENDS
;	COMDAT ?pmField@?$CVarTypeInfo@PAUIUnknown@@@ATL@@2QQtagVARIANT@@PAUIUnknown@@Q3@
CONST	SEGMENT
?pmField@?$CVarTypeInfo@PAUIUnknown@@@ATL@@2QQtagVARIANT@@PAUIUnknown@@Q3@ DD 08H ; ATL::CVarTypeInfo<IUnknown *>::pmField
CONST	ENDS
;	COMDAT ?is_signed@_Num_base@std@@2_NB
CONST	SEGMENT
?is_signed@_Num_base@std@@2_NB DB 00H			; std::_Num_base::is_signed
CONST	ENDS
;	COMDAT ?VT@?$CVarTypeInfo@PAUIUnknown@@@ATL@@2GB
CONST	SEGMENT
?VT@?$CVarTypeInfo@PAUIUnknown@@@ATL@@2GB DW 0dH	; ATL::CVarTypeInfo<IUnknown *>::VT
CONST	ENDS
;	COMDAT ?is_modulo@_Num_base@std@@2_NB
CONST	SEGMENT
?is_modulo@_Num_base@std@@2_NB DB 00H			; std::_Num_base::is_modulo
CONST	ENDS
;	COMDAT ?is_integer@_Num_base@std@@2_NB
CONST	SEGMENT
?is_integer@_Num_base@std@@2_NB DB 00H			; std::_Num_base::is_integer
CONST	ENDS
;	COMDAT ?is_iec559@_Num_base@std@@2_NB
CONST	SEGMENT
?is_iec559@_Num_base@std@@2_NB DB 00H			; std::_Num_base::is_iec559
CONST	ENDS
;	COMDAT ?pmField@?$CVarTypeInfo@PAPA_W@ATL@@2QQtagVARIANT@@PAPA_WQ3@
CONST	SEGMENT
?pmField@?$CVarTypeInfo@PAPA_W@ATL@@2QQtagVARIANT@@PAPA_WQ3@ DD 08H ; ATL::CVarTypeInfo<wchar_t * *>::pmField
CONST	ENDS
;	COMDAT ?is_exact@_Num_base@std@@2_NB
CONST	SEGMENT
?is_exact@_Num_base@std@@2_NB DB 00H			; std::_Num_base::is_exact
CONST	ENDS
;	COMDAT ?VT@?$CVarTypeInfo@PAPA_W@ATL@@2GB
CONST	SEGMENT
?VT@?$CVarTypeInfo@PAPA_W@ATL@@2GB DW 04008H		; ATL::CVarTypeInfo<wchar_t * *>::VT
CONST	ENDS
;	COMDAT ?is_bounded@_Num_base@std@@2_NB
CONST	SEGMENT
?is_bounded@_Num_base@std@@2_NB DB 00H			; std::_Num_base::is_bounded
CONST	ENDS
;	COMDAT ?has_signaling_NaN@_Num_base@std@@2_NB
CONST	SEGMENT
?has_signaling_NaN@_Num_base@std@@2_NB DB 00H		; std::_Num_base::has_signaling_NaN
CONST	ENDS
;	COMDAT ?has_quiet_NaN@_Num_base@std@@2_NB
CONST	SEGMENT
?has_quiet_NaN@_Num_base@std@@2_NB DB 00H		; std::_Num_base::has_quiet_NaN
CONST	ENDS
;	COMDAT ?has_infinity@_Num_base@std@@2_NB
CONST	SEGMENT
?has_infinity@_Num_base@std@@2_NB DB 00H		; std::_Num_base::has_infinity
CONST	ENDS
;	COMDAT ?pmField@?$CVarTypeInfo@PA_W@ATL@@2QQtagVARIANT@@PA_WQ3@
CONST	SEGMENT
?pmField@?$CVarTypeInfo@PA_W@ATL@@2QQtagVARIANT@@PA_WQ3@ DD 08H ; ATL::CVarTypeInfo<wchar_t *>::pmField
CONST	ENDS
;	COMDAT ?VT@?$CVarTypeInfo@PA_W@ATL@@2GB
CONST	SEGMENT
?VT@?$CVarTypeInfo@PA_W@ATL@@2GB DW 08H			; ATL::CVarTypeInfo<wchar_t *>::VT
CONST	ENDS
;	COMDAT ?has_denorm_loss@_Num_base@std@@2_NB
CONST	SEGMENT
?has_denorm_loss@_Num_base@std@@2_NB DB 00H		; std::_Num_base::has_denorm_loss
CONST	ENDS
;	COMDAT __GUID_0002e012_0000_0000_c000_000000000046
CONST	SEGMENT
__GUID_0002e012_0000_0000_c000_000000000046 DD 02e012H
	DW	00H
	DW	00H
	DB	0c0H
	DB	00H
	DB	00H
	DB	00H
	DB	00H
	DB	00H
	DB	00H
	DB	046H
CONST	ENDS
;	COMDAT ?has_denorm@_Num_base@std@@2W4float_denorm_style@2@B
CONST	SEGMENT
?has_denorm@_Num_base@std@@2W4float_denorm_style@2@B DD 00H ; std::_Num_base::has_denorm
CONST	ENDS
;	COMDAT ?VT@?$CVarTypeInfo@PAUtagVARIANT@@@ATL@@2GB
CONST	SEGMENT
?VT@?$CVarTypeInfo@PAUtagVARIANT@@@ATL@@2GB DW 0400cH	; ATL::CVarTypeInfo<tagVARIANT *>::VT
CONST	ENDS
;	COMDAT ?pmField@?$CVarTypeInfo@PAN@ATL@@2QQtagVARIANT@@PANQ3@
CONST	SEGMENT
?pmField@?$CVarTypeInfo@PAN@ATL@@2QQtagVARIANT@@PANQ3@ DD 08H ; ATL::CVarTypeInfo<double *>::pmField
CONST	ENDS
;	COMDAT ?VT@?$CVarTypeInfo@PAN@ATL@@2GB
CONST	SEGMENT
?VT@?$CVarTypeInfo@PAN@ATL@@2GB DW 04005H		; ATL::CVarTypeInfo<double *>::VT
CONST	ENDS
;	COMDAT ?pmField@?$CVarTypeInfo@N@ATL@@2QQtagVARIANT@@NQ3@
CONST	SEGMENT
?pmField@?$CVarTypeInfo@N@ATL@@2QQtagVARIANT@@NQ3@ DD 08H ; ATL::CVarTypeInfo<double>::pmField
CONST	ENDS
;	COMDAT ?VT@?$CVarTypeInfo@N@ATL@@2GB
CONST	SEGMENT
?VT@?$CVarTypeInfo@N@ATL@@2GB DW 05H			; ATL::CVarTypeInfo<double>::VT
CONST	ENDS
;	COMDAT ?pmField@?$CVarTypeInfo@PAM@ATL@@2QQtagVARIANT@@PAMQ3@
CONST	SEGMENT
?pmField@?$CVarTypeInfo@PAM@ATL@@2QQtagVARIANT@@PAMQ3@ DD 08H ; ATL::CVarTypeInfo<float *>::pmField
CONST	ENDS
;	COMDAT __GUID_00020400_0000_0000_c000_000000000046
CONST	SEGMENT
__GUID_00020400_0000_0000_c000_000000000046 DD 020400H
	DW	00H
	DW	00H
	DB	0c0H
	DB	00H
	DB	00H
	DB	00H
	DB	00H
	DB	00H
	DB	00H
	DB	046H
CONST	ENDS
;	COMDAT ?VT@?$CVarTypeInfo@PAM@ATL@@2GB
CONST	SEGMENT
?VT@?$CVarTypeInfo@PAM@ATL@@2GB DW 04004H		; ATL::CVarTypeInfo<float *>::VT
CONST	ENDS
;	COMDAT __GUID_a6bc3ac0_dbaa_11ce_9de3_00aa004bb851
CONST	SEGMENT
__GUID_a6bc3ac0_dbaa_11ce_9de3_00aa004bb851 DD 0a6bc3ac0H
	DW	0dbaaH
	DW	011ceH
	DB	09dH
	DB	0e3H
	DB	00H
	DB	0aaH
	DB	00H
	DB	04bH
	DB	0b8H
	DB	051H
CONST	ENDS
;	COMDAT ?pmField@?$CVarTypeInfo@M@ATL@@2QQtagVARIANT@@MQ3@
CONST	SEGMENT
?pmField@?$CVarTypeInfo@M@ATL@@2QQtagVARIANT@@MQ3@ DD 08H ; ATL::CVarTypeInfo<float>::pmField
CONST	ENDS
;	COMDAT ?VT@?$CVarTypeInfo@M@ATL@@2GB
CONST	SEGMENT
?VT@?$CVarTypeInfo@M@ATL@@2GB DW 04H			; ATL::CVarTypeInfo<float>::VT
CONST	ENDS
;	COMDAT __GUID_00000000_0000_0000_c000_000000000046
CONST	SEGMENT
__GUID_00000000_0000_0000_c000_000000000046 DD 00H
	DW	00H
	DW	00H
	DB	0c0H
	DB	00H
	DB	00H
	DB	00H
	DB	00H
	DB	00H
	DB	00H
	DB	046H
CONST	ENDS
;	COMDAT ?pmField@?$CVarTypeInfo@PA_K@ATL@@2QQtagVARIANT@@PA_KQ3@
CONST	SEGMENT
?pmField@?$CVarTypeInfo@PA_K@ATL@@2QQtagVARIANT@@PA_KQ3@ DD 08H ; ATL::CVarTypeInfo<unsigned __int64 *>::pmField
CONST	ENDS
;	COMDAT ?VT@?$CVarTypeInfo@PA_K@ATL@@2GB
CONST	SEGMENT
?VT@?$CVarTypeInfo@PA_K@ATL@@2GB DW 04015H		; ATL::CVarTypeInfo<unsigned __int64 *>::VT
CONST	ENDS
;	COMDAT ??_C@_07KJLOKDKB@TypeLib?$AA@
CONST	SEGMENT
??_C@_07KJLOKDKB@TypeLib?$AA@ DB 'TypeLib', 00H		; `string'
CONST	ENDS
;	COMDAT ??_C@_08KEKAJNJI@Software?$AA@
CONST	SEGMENT
??_C@_08KEKAJNJI@Software?$AA@ DB 'Software', 00H	; `string'
CONST	ENDS
;	COMDAT ??_C@_06FDHFNJBJ@SYSTEM?$AA@
CONST	SEGMENT
??_C@_06FDHFNJBJ@SYSTEM?$AA@ DB 'SYSTEM', 00H		; `string'
CONST	ENDS
;	COMDAT ??_C@_08LOPHEHKG@SECURITY?$AA@
CONST	SEGMENT
??_C@_08LOPHEHKG@SECURITY?$AA@ DB 'SECURITY', 00H	; `string'
CONST	ENDS
;	COMDAT ??_C@_03DDIMFGBA@SAM?$AA@
CONST	SEGMENT
??_C@_03DDIMFGBA@SAM?$AA@ DB 'SAM', 00H			; `string'
CONST	ENDS
;	COMDAT ??_C@_04IHBFOLAC@Mime?$AA@
CONST	SEGMENT
??_C@_04IHBFOLAC@Mime?$AA@ DB 'Mime', 00H		; `string'
CONST	ENDS
;	COMDAT ??_C@_08PPIOJEA@Hardware?$AA@
CONST	SEGMENT
??_C@_08PPIOJEA@Hardware?$AA@ DB 'Hardware', 00H	; `string'
CONST	ENDS
;	COMDAT ??_C@_09JKPGEJCH@Interface?$AA@
CONST	SEGMENT
??_C@_09JKPGEJCH@Interface?$AA@ DB 'Interface', 00H	; `string'
CONST	ENDS
;	COMDAT ??_C@_08PICKODJL@FileType?$AA@
CONST	SEGMENT
??_C@_08PICKODJL@FileType?$AA@ DB 'FileType', 00H	; `string'
CONST	ENDS
;	COMDAT ?pmField@?$CVarTypeInfo@_K@ATL@@2QQtagVARIANT@@_KQ3@
CONST	SEGMENT
?pmField@?$CVarTypeInfo@_K@ATL@@2QQtagVARIANT@@_KQ3@ DD 08H ; ATL::CVarTypeInfo<unsigned __int64>::pmField
CONST	ENDS
;	COMDAT ??_C@_0BF@HDDNNDFH@Component?5Categories?$AA@
CONST	SEGMENT
??_C@_0BF@HDDNNDFH@Component?5Categories?$AA@ DB 'Component Categories', 00H ; `string'
CONST	ENDS
;	COMDAT ?VT@?$CVarTypeInfo@_K@ATL@@2GB
CONST	SEGMENT
?VT@?$CVarTypeInfo@_K@ATL@@2GB DW 015H			; ATL::CVarTypeInfo<unsigned __int64>::VT
CONST	ENDS
;	COMDAT ?_Stream_err@failure@ios_base@std@@0W4io_errc@43@B
CONST	SEGMENT
?_Stream_err@failure@ios_base@std@@0W4io_errc@43@B DD 01H ; std::ios_base::failure::_Stream_err
CONST	ENDS
;	COMDAT ?value@?$_Sizeof@U_Nil@std@@U12@U12@U12@U12@U12@U12@U12@@std@@2IB
CONST	SEGMENT
?value@?$_Sizeof@U_Nil@std@@U12@U12@U12@U12@U12@U12@U12@@std@@2IB DD 00H ; std::_Sizeof<std::_Nil,std::_Nil,std::_Nil,std::_Nil,std::_Nil,std::_Nil,std::_Nil,std::_Nil>::value
CONST	ENDS
;	COMDAT ?pmField@?$CVarTypeInfo@PA_J@ATL@@2QQtagVARIANT@@PA_JQ3@
CONST	SEGMENT
?pmField@?$CVarTypeInfo@PA_J@ATL@@2QQtagVARIANT@@PA_JQ3@ DD 08H ; ATL::CVarTypeInfo<__int64 *>::pmField
CONST	ENDS
;	COMDAT ?VT@?$CVarTypeInfo@PA_J@ATL@@2GB
CONST	SEGMENT
?VT@?$CVarTypeInfo@PA_J@ATL@@2GB DW 04014H		; ATL::CVarTypeInfo<__int64 *>::VT
CONST	ENDS
;	COMDAT ___pobjMapEntryLast
ATL$__z	SEGMENT
___pobjMapEntryLast DD 00H
ATL$__z	ENDS
;	COMDAT ___pobjMapEntryFirst
ATL$__a	SEGMENT
___pobjMapEntryFirst DD 00H
ATL$__a	ENDS
;	COMDAT ?pmField@?$CVarTypeInfo@_J@ATL@@2QQtagVARIANT@@_JQ3@
CONST	SEGMENT
?pmField@?$CVarTypeInfo@_J@ATL@@2QQtagVARIANT@@_JQ3@ DD 08H ; ATL::CVarTypeInfo<__int64>::pmField
CONST	ENDS
;	COMDAT ?VT@?$CVarTypeInfo@_J@ATL@@2GB
CONST	SEGMENT
?VT@?$CVarTypeInfo@_J@ATL@@2GB DW 014H			; ATL::CVarTypeInfo<__int64>::VT
CONST	ENDS
;	COMDAT ?end@?$_Iosb@H@std@@2W4_Seekdir@12@B
CONST	SEGMENT
?end@?$_Iosb@H@std@@2W4_Seekdir@12@B DD 02H		; std::_Iosb<int>::end
CONST	ENDS
PUBLIC	??2@YAPAXIPAX@Z					; operator new
PUBLIC	??3@YAXPAX0@Z					; operator delete
PUBLIC	_IsEqualGUID
PUBLIC	??1CComBSTR@ATL@@QAE@XZ				; ATL::CComBSTR::~CComBSTR
PUBLIC	??1stringdispid@CComTypeInfoHolder@ATL@@QAE@XZ	; ATL::CComTypeInfoHolder::stringdispid::~stringdispid
PUBLIC	??_Estringdispid@CComTypeInfoHolder@ATL@@QAEPAXI@Z ; ATL::CComTypeInfoHolder::stringdispid::`vector deleting destructor'
PUBLIC	??0_com_error@@QAE@JPAUIErrorInfo@@_N@Z		; _com_error::_com_error
PUBLIC	??0_com_error@@QAE@ABV0@@Z			; _com_error::_com_error
PUBLIC	??1_com_error@@UAE@XZ				; _com_error::~_com_error
PUBLIC	?Error@_com_error@@QBEJXZ			; _com_error::Error
PUBLIC	??_G_com_error@@UAEPAXI@Z			; _com_error::`scalar deleting destructor'
PUBLIC	?length@?$char_traits@D@std@@SAIPBD@Z		; std::char_traits<char>::length
PUBLIC	?copy@?$char_traits@D@std@@SAPADPADPBDI@Z	; std::char_traits<char>::copy
PUBLIC	?move@?$char_traits@D@std@@SAPADPADPBDI@Z	; std::char_traits<char>::move
PUBLIC	?assign@?$char_traits@D@std@@SAXAADABD@Z	; std::char_traits<char>::assign
PUBLIC	?_Orphan_all@_Container_base0@std@@QAEXXZ	; std::_Container_base0::_Orphan_all
PUBLIC	?_Adopt@_Iterator_base0@std@@QAEXPBX@Z		; std::_Iterator_base0::_Adopt
PUBLIC	?select_on_container_copy_construction@?$allocator@D@std@@QBE?AV12@XZ ; std::allocator<char>::select_on_container_copy_construction
PUBLIC	??0?$allocator@D@std@@QAE@XZ			; std::allocator<char>::allocator<char>
PUBLIC	??0?$allocator@D@std@@QAE@ABV01@@Z		; std::allocator<char>::allocator<char>
PUBLIC	?deallocate@?$allocator@D@std@@QAEXPADI@Z	; std::allocator<char>::deallocate
PUBLIC	?allocate@?$allocator@D@std@@QAEPADI@Z		; std::allocator<char>::allocate
PUBLIC	?max_size@?$allocator@D@std@@QBEIXZ		; std::allocator<char>::max_size
PUBLIC	?max_size@?$allocator_traits@V?$allocator@D@std@@@std@@SAIABV?$allocator@D@2@@Z ; std::allocator_traits<std::allocator<char> >::max_size
PUBLIC	?select_on_container_copy_construction@?$allocator_traits@V?$allocator@D@std@@@std@@SA?AV?$allocator@D@2@ABV32@@Z ; std::allocator_traits<std::allocator<char> >::select_on_container_copy_construction
PUBLIC	?select_on_container_copy_construction@?$_Wrap_alloc@V?$allocator@D@std@@@std@@QBE?AU12@XZ ; std::_Wrap_alloc<std::allocator<char> >::select_on_container_copy_construction
PUBLIC	??0?$_Wrap_alloc@V?$allocator@D@std@@@std@@QAE@XZ ; std::_Wrap_alloc<std::allocator<char> >::_Wrap_alloc<std::allocator<char> >
PUBLIC	??0?$_Wrap_alloc@V?$allocator@D@std@@@std@@QAE@ABV?$allocator@D@1@@Z ; std::_Wrap_alloc<std::allocator<char> >::_Wrap_alloc<std::allocator<char> >
PUBLIC	?allocate@?$_Wrap_alloc@V?$allocator@D@std@@@std@@QAEPADI@Z ; std::_Wrap_alloc<std::allocator<char> >::allocate
PUBLIC	?deallocate@?$_Wrap_alloc@V?$allocator@D@std@@@std@@QAEXPADI@Z ; std::_Wrap_alloc<std::allocator<char> >::deallocate
PUBLIC	?max_size@?$_Wrap_alloc@V?$allocator@D@std@@@std@@QBEIXZ ; std::_Wrap_alloc<std::allocator<char> >::max_size
PUBLIC	??0?$_String_val@U?$_Simple_types@D@std@@@std@@QAE@XZ ; std::_String_val<std::_Simple_types<char> >::_String_val<std::_Simple_types<char> >
PUBLIC	?_Myptr@?$_String_val@U?$_Simple_types@D@std@@@std@@QAEPADXZ ; std::_String_val<std::_Simple_types<char> >::_Myptr
PUBLIC	?_Myptr@?$_String_val@U?$_Simple_types@D@std@@@std@@QBEPBDXZ ; std::_String_val<std::_Simple_types<char> >::_Myptr
PUBLIC	??0?$_String_alloc@$0A@U?$_String_base_types@DV?$allocator@D@std@@@std@@@std@@QAE@ABV?$allocator@D@1@@Z ; std::_String_alloc<0,std::_String_base_types<char,std::allocator<char> > >::_String_alloc<0,std::_String_base_types<char,std::allocator<char> > >
PUBLIC	?_Getal@?$_String_alloc@$0A@U?$_String_base_types@DV?$allocator@D@std@@@std@@@std@@QBE?AU?$_Wrap_alloc@V?$allocator@D@std@@@2@XZ ; std::_String_alloc<0,std::_String_base_types<char,std::allocator<char> > >::_Getal
PUBLIC	??0?$basic_string@DU?$char_traits@D@std@@V?$allocator@D@2@@std@@QAE@ABV01@@Z ; std::basic_string<char,std::char_traits<char>,std::allocator<char> >::basic_string<char,std::char_traits<char>,std::allocator<char> >
PUBLIC	??0?$basic_string@DU?$char_traits@D@std@@V?$allocator@D@2@@std@@QAE@XZ ; std::basic_string<char,std::char_traits<char>,std::allocator<char> >::basic_string<char,std::char_traits<char>,std::allocator<char> >
PUBLIC	??0?$basic_string@DU?$char_traits@D@std@@V?$allocator@D@2@@std@@QAE@PBD@Z ; std::basic_string<char,std::char_traits<char>,std::allocator<char> >::basic_string<char,std::char_traits<char>,std::allocator<char> >
PUBLIC	??1?$basic_string@DU?$char_traits@D@std@@V?$allocator@D@2@@std@@QAE@XZ ; std::basic_string<char,std::char_traits<char>,std::allocator<char> >::~basic_string<char,std::char_traits<char>,std::allocator<char> >
PUBLIC	??4?$basic_string@DU?$char_traits@D@std@@V?$allocator@D@2@@std@@QAEAAV01@PBD@Z ; std::basic_string<char,std::char_traits<char>,std::allocator<char> >::operator=
PUBLIC	?assign@?$basic_string@DU?$char_traits@D@std@@V?$allocator@D@2@@std@@QAEAAV12@ABV12@II@Z ; std::basic_string<char,std::char_traits<char>,std::allocator<char> >::assign
PUBLIC	?assign@?$basic_string@DU?$char_traits@D@std@@V?$allocator@D@2@@std@@QAEAAV12@PBDI@Z ; std::basic_string<char,std::char_traits<char>,std::allocator<char> >::assign
PUBLIC	?assign@?$basic_string@DU?$char_traits@D@std@@V?$allocator@D@2@@std@@QAEAAV12@PBD@Z ; std::basic_string<char,std::char_traits<char>,std::allocator<char> >::assign
PUBLIC	?erase@?$basic_string@DU?$char_traits@D@std@@V?$allocator@D@2@@std@@QAEAAV12@I@Z ; std::basic_string<char,std::char_traits<char>,std::allocator<char> >::erase
PUBLIC	?erase@?$basic_string@DU?$char_traits@D@std@@V?$allocator@D@2@@std@@QAEAAV12@II@Z ; std::basic_string<char,std::char_traits<char>,std::allocator<char> >::erase
PUBLIC	?c_str@?$basic_string@DU?$char_traits@D@std@@V?$allocator@D@2@@std@@QBEPBDXZ ; std::basic_string<char,std::char_traits<char>,std::allocator<char> >::c_str
PUBLIC	?size@?$basic_string@DU?$char_traits@D@std@@V?$allocator@D@2@@std@@QBEIXZ ; std::basic_string<char,std::char_traits<char>,std::allocator<char> >::size
PUBLIC	?max_size@?$basic_string@DU?$char_traits@D@std@@V?$allocator@D@2@@std@@QBEIXZ ; std::basic_string<char,std::char_traits<char>,std::allocator<char> >::max_size
PUBLIC	?_Copy@?$basic_string@DU?$char_traits@D@std@@V?$allocator@D@2@@std@@QAEXII@Z ; std::basic_string<char,std::char_traits<char>,std::allocator<char> >::_Copy
PUBLIC	?_Eos@?$basic_string@DU?$char_traits@D@std@@V?$allocator@D@2@@std@@QAEXI@Z ; std::basic_string<char,std::char_traits<char>,std::allocator<char> >::_Eos
PUBLIC	?_Grow@?$basic_string@DU?$char_traits@D@std@@V?$allocator@D@2@@std@@QAE_NI_N@Z ; std::basic_string<char,std::char_traits<char>,std::allocator<char> >::_Grow
PUBLIC	?_Inside@?$basic_string@DU?$char_traits@D@std@@V?$allocator@D@2@@std@@QAE_NPBD@Z ; std::basic_string<char,std::char_traits<char>,std::allocator<char> >::_Inside
PUBLIC	?_Tidy@?$basic_string@DU?$char_traits@D@std@@V?$allocator@D@2@@std@@QAEX_NI@Z ; std::basic_string<char,std::char_traits<char>,std::allocator<char> >::_Tidy
PUBLIC	?_Xlen@?$basic_string@DU?$char_traits@D@std@@V?$allocator@D@2@@std@@QBEXXZ ; std::basic_string<char,std::char_traits<char>,std::allocator<char> >::_Xlen
PUBLIC	?_Xran@?$basic_string@DU?$char_traits@D@std@@V?$allocator@D@2@@std@@QBEXXZ ; std::basic_string<char,std::char_traits<char>,std::allocator<char> >::_Xran
PUBLIC	??0id@locale@std@@QAE@I@Z			; std::locale::id::id
PUBLIC	?generic_category@std@@YAABVerror_category@1@XZ	; std::generic_category
PUBLIC	?system_category@std@@YAABVerror_category@1@XZ	; std::system_category
PUBLIC	??0error_category@std@@QAE@XZ			; std::error_category::error_category
PUBLIC	??1error_category@std@@UAE@XZ			; std::error_category::~error_category
PUBLIC	?default_error_condition@error_category@std@@UBE?AVerror_condition@2@H@Z ; std::error_category::default_error_condition
PUBLIC	?equivalent@error_category@std@@UBE_NHABVerror_condition@2@@Z ; std::error_category::equivalent
PUBLIC	?equivalent@error_category@std@@UBE_NABVerror_code@2@H@Z ; std::error_category::equivalent
PUBLIC	??8error_category@std@@QBE_NABV01@@Z		; std::error_category::operator==
PUBLIC	??_Gerror_category@std@@UAEPAXI@Z		; std::error_category::`scalar deleting destructor'
PUBLIC	?value@error_code@std@@QBEHXZ			; std::error_code::value
PUBLIC	?category@error_code@std@@QBEABVerror_category@2@XZ ; std::error_code::category
PUBLIC	??0error_condition@std@@QAE@HABVerror_category@1@@Z ; std::error_condition::error_condition
PUBLIC	?value@error_condition@std@@QBEHXZ		; std::error_condition::value
PUBLIC	?category@error_condition@std@@QBEABVerror_category@2@XZ ; std::error_condition::category
PUBLIC	??8error_condition@std@@QBE_NABV01@@Z		; std::error_condition::operator==
PUBLIC	??0_Generic_error_category@std@@QAE@XZ		; std::_Generic_error_category::_Generic_error_category
PUBLIC	?name@_Generic_error_category@std@@UBEPBDXZ	; std::_Generic_error_category::name
PUBLIC	?message@_Generic_error_category@std@@UBE?AV?$basic_string@DU?$char_traits@D@std@@V?$allocator@D@2@@2@H@Z ; std::_Generic_error_category::message
PUBLIC	??1_Generic_error_category@std@@UAE@XZ		; std::_Generic_error_category::~_Generic_error_category
PUBLIC	??_G_Generic_error_category@std@@UAEPAXI@Z	; std::_Generic_error_category::`scalar deleting destructor'
PUBLIC	??0_Iostream_error_category@std@@QAE@XZ		; std::_Iostream_error_category::_Iostream_error_category
PUBLIC	?name@_Iostream_error_category@std@@UBEPBDXZ	; std::_Iostream_error_category::name
PUBLIC	?message@_Iostream_error_category@std@@UBE?AV?$basic_string@DU?$char_traits@D@std@@V?$allocator@D@2@@2@H@Z ; std::_Iostream_error_category::message
PUBLIC	??1_Iostream_error_category@std@@UAE@XZ		; std::_Iostream_error_category::~_Iostream_error_category
PUBLIC	??_G_Iostream_error_category@std@@UAEPAXI@Z	; std::_Iostream_error_category::`scalar deleting destructor'
PUBLIC	??0_System_error_category@std@@QAE@XZ		; std::_System_error_category::_System_error_category
PUBLIC	?name@_System_error_category@std@@UBEPBDXZ	; std::_System_error_category::name
PUBLIC	?message@_System_error_category@std@@UBE?AV?$basic_string@DU?$char_traits@D@std@@V?$allocator@D@2@@2@H@Z ; std::_System_error_category::message
PUBLIC	?default_error_condition@_System_error_category@std@@UBE?AVerror_condition@2@H@Z ; std::_System_error_category::default_error_condition
PUBLIC	??1_System_error_category@std@@UAE@XZ		; std::_System_error_category::~_System_error_category
PUBLIC	??_G_System_error_category@std@@UAEPAXI@Z	; std::_System_error_category::`scalar deleting destructor'
PUBLIC	?CheckHR@@YAXJ@Z				; CheckHR
PUBLIC	??0DXContext@@QAE@XZ				; DXContext::DXContext
PUBLIC	??1DXContext@@QAE@XZ				; DXContext::~DXContext
PUBLIC	?Init@DXContext@@QAE_NPAUHWND__@@HHH_N@Z	; DXContext::Init
PUBLIC	?SetRenderTarget@DXContext@@QAE_NPAUIDirectDrawSurface7@@@Z ; DXContext::SetRenderTarget
PUBLIC	?Shutdown@DXContext@@QAEXXZ			; DXContext::Shutdown
PUBLIC	?ValidateD3DDevice@DXContext@@QAE_NXZ		; DXContext::ValidateD3DDevice
PUBLIC	?TestCooperativeLevel@DXContext@@QAEKXZ		; DXContext::TestCooperativeLevel
PUBLIC	?EnumZBufferFormats@DXContext@@IAEXPAX@Z	; DXContext::EnumZBufferFormats
PUBLIC	?EnumZBufferFormatsCallback@DXContext@@KGJPAU_DDPIXELFORMAT@@PAX@Z ; DXContext::EnumZBufferFormatsCallback
PUBLIC	?AttachDepthBuffer@DXContext@@IAEXPAUIDirectDrawSurface7@@@Z ; DXContext::AttachDepthBuffer
PUBLIC	?CheckCaps@DXContext@@IAEXXZ			; DXContext::CheckCaps
PUBLIC	??0DDDriverInfo@DeviceManager@@QAE@U_GUID@@PBD1@Z ; DeviceManager::DDDriverInfo::DDDriverInfo
PUBLIC	??0D3DDeviceInfo@DDDriverInfo@DeviceManager@@QAE@AAU_D3DDeviceDesc7@@PAD1@Z ; DeviceManager::DDDriverInfo::D3DDeviceInfo::D3DDeviceInfo
PUBLIC	?GetName@D3DDeviceInfo@DDDriverInfo@DeviceManager@@QAEPBDXZ ; DeviceManager::DDDriverInfo::D3DDeviceInfo::GetName
PUBLIC	?GetGuid@D3DDeviceInfo@DDDriverInfo@DeviceManager@@QAEPAU_GUID@@XZ ; DeviceManager::DDDriverInfo::D3DDeviceInfo::GetGuid
PUBLIC	?IsHardware@D3DDeviceInfo@DDDriverInfo@DeviceManager@@QAE_NXZ ; DeviceManager::DDDriverInfo::D3DDeviceInfo::IsHardware
PUBLIC	?CanFilterAnisotropic@D3DDeviceInfo@DDDriverInfo@DeviceManager@@QAE_NXZ ; DeviceManager::DDDriverInfo::D3DDeviceInfo::CanFilterAnisotropic
PUBLIC	??1D3DDeviceInfo@DDDriverInfo@DeviceManager@@QAE@XZ ; DeviceManager::DDDriverInfo::D3DDeviceInfo::~D3DDeviceInfo
PUBLIC	??0D3DDeviceInfo@DDDriverInfo@DeviceManager@@QAE@ABV012@@Z ; DeviceManager::DDDriverInfo::D3DDeviceInfo::D3DDeviceInfo
PUBLIC	??_GD3DDeviceInfo@DDDriverInfo@DeviceManager@@QAEPAXI@Z ; DeviceManager::DDDriverInfo::D3DDeviceInfo::`scalar deleting destructor'
PUBLIC	?select_on_container_copy_construction@?$allocator@VD3DDeviceInfo@DDDriverInfo@DeviceManager@@@std@@QBE?AV12@XZ ; std::allocator<DeviceManager::DDDriverInfo::D3DDeviceInfo>::select_on_container_copy_construction
PUBLIC	??0?$allocator@VD3DDeviceInfo@DDDriverInfo@DeviceManager@@@std@@QAE@XZ ; std::allocator<DeviceManager::DDDriverInfo::D3DDeviceInfo>::allocator<DeviceManager::DDDriverInfo::D3DDeviceInfo>
PUBLIC	??0?$allocator@VD3DDeviceInfo@DDDriverInfo@DeviceManager@@@std@@QAE@ABV01@@Z ; std::allocator<DeviceManager::DDDriverInfo::D3DDeviceInfo>::allocator<DeviceManager::DDDriverInfo::D3DDeviceInfo>
PUBLIC	?deallocate@?$allocator@VD3DDeviceInfo@DDDriverInfo@DeviceManager@@@std@@QAEXPAVD3DDeviceInfo@DDDriverInfo@DeviceManager@@I@Z ; std::allocator<DeviceManager::DDDriverInfo::D3DDeviceInfo>::deallocate
PUBLIC	?allocate@?$allocator@VD3DDeviceInfo@DDDriverInfo@DeviceManager@@@std@@QAEPAVD3DDeviceInfo@DDDriverInfo@DeviceManager@@I@Z ; std::allocator<DeviceManager::DDDriverInfo::D3DDeviceInfo>::allocate
PUBLIC	?construct@?$allocator@VD3DDeviceInfo@DDDriverInfo@DeviceManager@@@std@@QAEXPAVD3DDeviceInfo@DDDriverInfo@DeviceManager@@ABV345@@Z ; std::allocator<DeviceManager::DDDriverInfo::D3DDeviceInfo>::construct
PUBLIC	?max_size@?$allocator@VD3DDeviceInfo@DDDriverInfo@DeviceManager@@@std@@QBEIXZ ; std::allocator<DeviceManager::DDDriverInfo::D3DDeviceInfo>::max_size
PUBLIC	?max_size@?$allocator_traits@V?$allocator@VD3DDeviceInfo@DDDriverInfo@DeviceManager@@@std@@@std@@SAIABV?$allocator@VD3DDeviceInfo@DDDriverInfo@DeviceManager@@@2@@Z ; std::allocator_traits<std::allocator<DeviceManager::DDDriverInfo::D3DDeviceInfo> >::max_size
PUBLIC	?select_on_container_copy_construction@?$allocator_traits@V?$allocator@VD3DDeviceInfo@DDDriverInfo@DeviceManager@@@std@@@std@@SA?AV?$allocator@VD3DDeviceInfo@DDDriverInfo@DeviceManager@@@2@ABV32@@Z ; std::allocator_traits<std::allocator<DeviceManager::DDDriverInfo::D3DDeviceInfo> >::select_on_container_copy_construction
PUBLIC	?select_on_container_copy_construction@?$_Wrap_alloc@V?$allocator@VD3DDeviceInfo@DDDriverInfo@DeviceManager@@@std@@@std@@QBE?AU12@XZ ; std::_Wrap_alloc<std::allocator<DeviceManager::DDDriverInfo::D3DDeviceInfo> >::select_on_container_copy_construction
PUBLIC	??0?$_Wrap_alloc@V?$allocator@VD3DDeviceInfo@DDDriverInfo@DeviceManager@@@std@@@std@@QAE@XZ ; std::_Wrap_alloc<std::allocator<DeviceManager::DDDriverInfo::D3DDeviceInfo> >::_Wrap_alloc<std::allocator<DeviceManager::DDDriverInfo::D3DDeviceInfo> >
PUBLIC	??0?$_Wrap_alloc@V?$allocator@VD3DDeviceInfo@DDDriverInfo@DeviceManager@@@std@@@std@@QAE@ABV?$allocator@VD3DDeviceInfo@DDDriverInfo@DeviceManager@@@1@@Z ; std::_Wrap_alloc<std::allocator<DeviceManager::DDDriverInfo::D3DDeviceInfo> >::_Wrap_alloc<std::allocator<DeviceManager::DDDriverInfo::D3DDeviceInfo> >
PUBLIC	?allocate@?$_Wrap_alloc@V?$allocator@VD3DDeviceInfo@DDDriverInfo@DeviceManager@@@std@@@std@@QAEPAVD3DDeviceInfo@DDDriverInfo@DeviceManager@@I@Z ; std::_Wrap_alloc<std::allocator<DeviceManager::DDDriverInfo::D3DDeviceInfo> >::allocate
PUBLIC	?deallocate@?$_Wrap_alloc@V?$allocator@VD3DDeviceInfo@DDDriverInfo@DeviceManager@@@std@@@std@@QAEXPAVD3DDeviceInfo@DDDriverInfo@DeviceManager@@I@Z ; std::_Wrap_alloc<std::allocator<DeviceManager::DDDriverInfo::D3DDeviceInfo> >::deallocate
PUBLIC	?max_size@?$_Wrap_alloc@V?$allocator@VD3DDeviceInfo@DDDriverInfo@DeviceManager@@@std@@@std@@QBEIXZ ; std::_Wrap_alloc<std::allocator<DeviceManager::DDDriverInfo::D3DDeviceInfo> >::max_size
PUBLIC	??0?$_Vector_val@U?$_Simple_types@VD3DDeviceInfo@DDDriverInfo@DeviceManager@@@std@@@std@@QAE@XZ ; std::_Vector_val<std::_Simple_types<DeviceManager::DDDriverInfo::D3DDeviceInfo> >::_Vector_val<std::_Simple_types<DeviceManager::DDDriverInfo::D3DDeviceInfo> >
PUBLIC	??0?$_Vector_alloc@$0A@U?$_Vec_base_types@VD3DDeviceInfo@DDDriverInfo@DeviceManager@@V?$allocator@VD3DDeviceInfo@DDDriverInfo@DeviceManager@@@std@@@std@@@std@@QAE@ABV?$allocator@VD3DDeviceInfo@DDDriverInfo@DeviceManager@@@1@@Z ; std::_Vector_alloc<0,std::_Vec_base_types<DeviceManager::DDDriverInfo::D3DDeviceInfo,std::allocator<DeviceManager::DDDriverInfo::D3DDeviceInfo> > >::_Vector_alloc<0,std::_Vec_base_types<DeviceManager::DDDriverInfo::D3DDeviceInfo,std::allocator<DeviceManager::DDDriverInfo::D3DDeviceInfo> > >
PUBLIC	?_Getal@?$_Vector_alloc@$0A@U?$_Vec_base_types@VD3DDeviceInfo@DDDriverInfo@DeviceManager@@V?$allocator@VD3DDeviceInfo@DDDriverInfo@DeviceManager@@@std@@@std@@@std@@QBE?AU?$_Wrap_alloc@V?$allocator@VD3DDeviceInfo@DDDriverInfo@DeviceManager@@@std@@@2@XZ ; std::_Vector_alloc<0,std::_Vec_base_types<DeviceManager::DDDriverInfo::D3DDeviceInfo,std::allocator<DeviceManager::DDDriverInfo::D3DDeviceInfo> > >::_Getal
PUBLIC	??0?$vector@VD3DDeviceInfo@DDDriverInfo@DeviceManager@@V?$allocator@VD3DDeviceInfo@DDDriverInfo@DeviceManager@@@std@@@std@@QAE@XZ ; std::vector<DeviceManager::DDDriverInfo::D3DDeviceInfo,std::allocator<DeviceManager::DDDriverInfo::D3DDeviceInfo> >::vector<DeviceManager::DDDriverInfo::D3DDeviceInfo,std::allocator<DeviceManager::DDDriverInfo::D3DDeviceInfo> >
PUBLIC	??0?$vector@VD3DDeviceInfo@DDDriverInfo@DeviceManager@@V?$allocator@VD3DDeviceInfo@DDDriverInfo@DeviceManager@@@std@@@std@@QAE@ABV01@@Z ; std::vector<DeviceManager::DDDriverInfo::D3DDeviceInfo,std::allocator<DeviceManager::DDDriverInfo::D3DDeviceInfo> >::vector<DeviceManager::DDDriverInfo::D3DDeviceInfo,std::allocator<DeviceManager::DDDriverInfo::D3DDeviceInfo> >
PUBLIC	?push_back@?$vector@VD3DDeviceInfo@DDDriverInfo@DeviceManager@@V?$allocator@VD3DDeviceInfo@DDDriverInfo@DeviceManager@@@std@@@std@@QAEX$$QAVD3DDeviceInfo@DDDriverInfo@DeviceManager@@@Z ; std::vector<DeviceManager::DDDriverInfo::D3DDeviceInfo,std::allocator<DeviceManager::DDDriverInfo::D3DDeviceInfo> >::push_back
PUBLIC	??1?$vector@VD3DDeviceInfo@DDDriverInfo@DeviceManager@@V?$allocator@VD3DDeviceInfo@DDDriverInfo@DeviceManager@@@std@@@std@@QAE@XZ ; std::vector<DeviceManager::DDDriverInfo::D3DDeviceInfo,std::allocator<DeviceManager::DDDriverInfo::D3DDeviceInfo> >::~vector<DeviceManager::DDDriverInfo::D3DDeviceInfo,std::allocator<DeviceManager::DDDriverInfo::D3DDeviceInfo> >
PUBLIC	?capacity@?$vector@VD3DDeviceInfo@DDDriverInfo@DeviceManager@@V?$allocator@VD3DDeviceInfo@DDDriverInfo@DeviceManager@@@std@@@std@@QBEIXZ ; std::vector<DeviceManager::DDDriverInfo::D3DDeviceInfo,std::allocator<DeviceManager::DDDriverInfo::D3DDeviceInfo> >::capacity
PUBLIC	?_Unused_capacity@?$vector@VD3DDeviceInfo@DDDriverInfo@DeviceManager@@V?$allocator@VD3DDeviceInfo@DDDriverInfo@DeviceManager@@@std@@@std@@QBEIXZ ; std::vector<DeviceManager::DDDriverInfo::D3DDeviceInfo,std::allocator<DeviceManager::DDDriverInfo::D3DDeviceInfo> >::_Unused_capacity
PUBLIC	?begin@?$vector@VD3DDeviceInfo@DDDriverInfo@DeviceManager@@V?$allocator@VD3DDeviceInfo@DDDriverInfo@DeviceManager@@@std@@@std@@QBE?AV?$_Vector_const_iterator@V?$_Vector_val@U?$_Simple_types@VD3DDeviceInfo@DDDriverInfo@DeviceManager@@@std@@@std@@@2@XZ ; std::vector<DeviceManager::DDDriverInfo::D3DDeviceInfo,std::allocator<DeviceManager::DDDriverInfo::D3DDeviceInfo> >::begin
PUBLIC	?end@?$vector@VD3DDeviceInfo@DDDriverInfo@DeviceManager@@V?$allocator@VD3DDeviceInfo@DDDriverInfo@DeviceManager@@@std@@@std@@QBE?AV?$_Vector_const_iterator@V?$_Vector_val@U?$_Simple_types@VD3DDeviceInfo@DDDriverInfo@DeviceManager@@@std@@@std@@@2@XZ ; std::vector<DeviceManager::DDDriverInfo::D3DDeviceInfo,std::allocator<DeviceManager::DDDriverInfo::D3DDeviceInfo> >::end
PUBLIC	?size@?$vector@VD3DDeviceInfo@DDDriverInfo@DeviceManager@@V?$allocator@VD3DDeviceInfo@DDDriverInfo@DeviceManager@@@std@@@std@@QBEIXZ ; std::vector<DeviceManager::DDDriverInfo::D3DDeviceInfo,std::allocator<DeviceManager::DDDriverInfo::D3DDeviceInfo> >::size
PUBLIC	?max_size@?$vector@VD3DDeviceInfo@DDDriverInfo@DeviceManager@@V?$allocator@VD3DDeviceInfo@DDDriverInfo@DeviceManager@@@std@@@std@@QBEIXZ ; std::vector<DeviceManager::DDDriverInfo::D3DDeviceInfo,std::allocator<DeviceManager::DDDriverInfo::D3DDeviceInfo> >::max_size
PUBLIC	??A?$vector@VD3DDeviceInfo@DDDriverInfo@DeviceManager@@V?$allocator@VD3DDeviceInfo@DDDriverInfo@DeviceManager@@@std@@@std@@QAEAAVD3DDeviceInfo@DDDriverInfo@DeviceManager@@I@Z ; std::vector<DeviceManager::DDDriverInfo::D3DDeviceInfo,std::allocator<DeviceManager::DDDriverInfo::D3DDeviceInfo> >::operator[]
PUBLIC	?clear@?$vector@VD3DDeviceInfo@DDDriverInfo@DeviceManager@@V?$allocator@VD3DDeviceInfo@DDDriverInfo@DeviceManager@@@std@@@std@@QAEXXZ ; std::vector<DeviceManager::DDDriverInfo::D3DDeviceInfo,std::allocator<DeviceManager::DDDriverInfo::D3DDeviceInfo> >::clear
PUBLIC	?_Buy@?$vector@VD3DDeviceInfo@DDDriverInfo@DeviceManager@@V?$allocator@VD3DDeviceInfo@DDDriverInfo@DeviceManager@@@std@@@std@@IAE_NI@Z ; std::vector<DeviceManager::DDDriverInfo::D3DDeviceInfo,std::allocator<DeviceManager::DDDriverInfo::D3DDeviceInfo> >::_Buy
PUBLIC	?_Destroy@?$vector@VD3DDeviceInfo@DDDriverInfo@DeviceManager@@V?$allocator@VD3DDeviceInfo@DDDriverInfo@DeviceManager@@@std@@@std@@IAEXPAVD3DDeviceInfo@DDDriverInfo@DeviceManager@@0@Z ; std::vector<DeviceManager::DDDriverInfo::D3DDeviceInfo,std::allocator<DeviceManager::DDDriverInfo::D3DDeviceInfo> >::_Destroy
PUBLIC	?_Grow_to@?$vector@VD3DDeviceInfo@DDDriverInfo@DeviceManager@@V?$allocator@VD3DDeviceInfo@DDDriverInfo@DeviceManager@@@std@@@std@@IBEII@Z ; std::vector<DeviceManager::DDDriverInfo::D3DDeviceInfo,std::allocator<DeviceManager::DDDriverInfo::D3DDeviceInfo> >::_Grow_to
PUBLIC	?_Inside@?$vector@VD3DDeviceInfo@DDDriverInfo@DeviceManager@@V?$allocator@VD3DDeviceInfo@DDDriverInfo@DeviceManager@@@std@@@std@@IBE_NPBVD3DDeviceInfo@DDDriverInfo@DeviceManager@@@Z ; std::vector<DeviceManager::DDDriverInfo::D3DDeviceInfo,std::allocator<DeviceManager::DDDriverInfo::D3DDeviceInfo> >::_Inside
PUBLIC	?_Reallocate@?$vector@VD3DDeviceInfo@DDDriverInfo@DeviceManager@@V?$allocator@VD3DDeviceInfo@DDDriverInfo@DeviceManager@@@std@@@std@@IAEXI@Z ; std::vector<DeviceManager::DDDriverInfo::D3DDeviceInfo,std::allocator<DeviceManager::DDDriverInfo::D3DDeviceInfo> >::_Reallocate
PUBLIC	?_Reserve@?$vector@VD3DDeviceInfo@DDDriverInfo@DeviceManager@@V?$allocator@VD3DDeviceInfo@DDDriverInfo@DeviceManager@@@std@@@std@@IAEXI@Z ; std::vector<DeviceManager::DDDriverInfo::D3DDeviceInfo,std::allocator<DeviceManager::DDDriverInfo::D3DDeviceInfo> >::_Reserve
PUBLIC	?_Tidy@?$vector@VD3DDeviceInfo@DDDriverInfo@DeviceManager@@V?$allocator@VD3DDeviceInfo@DDDriverInfo@DeviceManager@@@std@@@std@@IAEXXZ ; std::vector<DeviceManager::DDDriverInfo::D3DDeviceInfo,std::allocator<DeviceManager::DDDriverInfo::D3DDeviceInfo> >::_Tidy
PUBLIC	?_Xlen@?$vector@VD3DDeviceInfo@DDDriverInfo@DeviceManager@@V?$allocator@VD3DDeviceInfo@DDDriverInfo@DeviceManager@@@std@@@std@@IBEXXZ ; std::vector<DeviceManager::DDDriverInfo::D3DDeviceInfo,std::allocator<DeviceManager::DDDriverInfo::D3DDeviceInfo> >::_Xlen
PUBLIC	?_Orphan_range@?$vector@VD3DDeviceInfo@DDDriverInfo@DeviceManager@@V?$allocator@VD3DDeviceInfo@DDDriverInfo@DeviceManager@@@std@@@std@@IBEXPAVD3DDeviceInfo@DDDriverInfo@DeviceManager@@0@Z ; std::vector<DeviceManager::DDDriverInfo::D3DDeviceInfo,std::allocator<DeviceManager::DDDriverInfo::D3DDeviceInfo> >::_Orphan_range
PUBLIC	?select_on_container_copy_construction@?$allocator@U_DDSURFACEDESC2@@@std@@QBE?AV12@XZ ; std::allocator<_DDSURFACEDESC2>::select_on_container_copy_construction
PUBLIC	??0?$allocator@U_DDSURFACEDESC2@@@std@@QAE@XZ	; std::allocator<_DDSURFACEDESC2>::allocator<_DDSURFACEDESC2>
PUBLIC	??0?$allocator@U_DDSURFACEDESC2@@@std@@QAE@ABV01@@Z ; std::allocator<_DDSURFACEDESC2>::allocator<_DDSURFACEDESC2>
PUBLIC	?deallocate@?$allocator@U_DDSURFACEDESC2@@@std@@QAEXPAU_DDSURFACEDESC2@@I@Z ; std::allocator<_DDSURFACEDESC2>::deallocate
PUBLIC	?allocate@?$allocator@U_DDSURFACEDESC2@@@std@@QAEPAU_DDSURFACEDESC2@@I@Z ; std::allocator<_DDSURFACEDESC2>::allocate
PUBLIC	?construct@?$allocator@U_DDSURFACEDESC2@@@std@@QAEXPAU_DDSURFACEDESC2@@ABU3@@Z ; std::allocator<_DDSURFACEDESC2>::construct
PUBLIC	?max_size@?$allocator@U_DDSURFACEDESC2@@@std@@QBEIXZ ; std::allocator<_DDSURFACEDESC2>::max_size
PUBLIC	?max_size@?$allocator_traits@V?$allocator@U_DDSURFACEDESC2@@@std@@@std@@SAIABV?$allocator@U_DDSURFACEDESC2@@@2@@Z ; std::allocator_traits<std::allocator<_DDSURFACEDESC2> >::max_size
PUBLIC	?select_on_container_copy_construction@?$allocator_traits@V?$allocator@U_DDSURFACEDESC2@@@std@@@std@@SA?AV?$allocator@U_DDSURFACEDESC2@@@2@ABV32@@Z ; std::allocator_traits<std::allocator<_DDSURFACEDESC2> >::select_on_container_copy_construction
PUBLIC	?select_on_container_copy_construction@?$_Wrap_alloc@V?$allocator@U_DDSURFACEDESC2@@@std@@@std@@QBE?AU12@XZ ; std::_Wrap_alloc<std::allocator<_DDSURFACEDESC2> >::select_on_container_copy_construction
PUBLIC	??0?$_Wrap_alloc@V?$allocator@U_DDSURFACEDESC2@@@std@@@std@@QAE@XZ ; std::_Wrap_alloc<std::allocator<_DDSURFACEDESC2> >::_Wrap_alloc<std::allocator<_DDSURFACEDESC2> >
PUBLIC	??0?$_Wrap_alloc@V?$allocator@U_DDSURFACEDESC2@@@std@@@std@@QAE@ABV?$allocator@U_DDSURFACEDESC2@@@1@@Z ; std::_Wrap_alloc<std::allocator<_DDSURFACEDESC2> >::_Wrap_alloc<std::allocator<_DDSURFACEDESC2> >
PUBLIC	?allocate@?$_Wrap_alloc@V?$allocator@U_DDSURFACEDESC2@@@std@@@std@@QAEPAU_DDSURFACEDESC2@@I@Z ; std::_Wrap_alloc<std::allocator<_DDSURFACEDESC2> >::allocate
PUBLIC	?deallocate@?$_Wrap_alloc@V?$allocator@U_DDSURFACEDESC2@@@std@@@std@@QAEXPAU_DDSURFACEDESC2@@I@Z ; std::_Wrap_alloc<std::allocator<_DDSURFACEDESC2> >::deallocate
PUBLIC	?max_size@?$_Wrap_alloc@V?$allocator@U_DDSURFACEDESC2@@@std@@@std@@QBEIXZ ; std::_Wrap_alloc<std::allocator<_DDSURFACEDESC2> >::max_size
PUBLIC	??0?$_Vector_val@U?$_Simple_types@U_DDSURFACEDESC2@@@std@@@std@@QAE@XZ ; std::_Vector_val<std::_Simple_types<_DDSURFACEDESC2> >::_Vector_val<std::_Simple_types<_DDSURFACEDESC2> >
PUBLIC	??0?$_Vector_alloc@$0A@U?$_Vec_base_types@U_DDSURFACEDESC2@@V?$allocator@U_DDSURFACEDESC2@@@std@@@std@@@std@@QAE@ABV?$allocator@U_DDSURFACEDESC2@@@1@@Z ; std::_Vector_alloc<0,std::_Vec_base_types<_DDSURFACEDESC2,std::allocator<_DDSURFACEDESC2> > >::_Vector_alloc<0,std::_Vec_base_types<_DDSURFACEDESC2,std::allocator<_DDSURFACEDESC2> > >
PUBLIC	?_Getal@?$_Vector_alloc@$0A@U?$_Vec_base_types@U_DDSURFACEDESC2@@V?$allocator@U_DDSURFACEDESC2@@@std@@@std@@@std@@QBE?AU?$_Wrap_alloc@V?$allocator@U_DDSURFACEDESC2@@@std@@@2@XZ ; std::_Vector_alloc<0,std::_Vec_base_types<_DDSURFACEDESC2,std::allocator<_DDSURFACEDESC2> > >::_Getal
PUBLIC	??0?$vector@U_DDSURFACEDESC2@@V?$allocator@U_DDSURFACEDESC2@@@std@@@std@@QAE@XZ ; std::vector<_DDSURFACEDESC2,std::allocator<_DDSURFACEDESC2> >::vector<_DDSURFACEDESC2,std::allocator<_DDSURFACEDESC2> >
PUBLIC	??0?$vector@U_DDSURFACEDESC2@@V?$allocator@U_DDSURFACEDESC2@@@std@@@std@@QAE@ABV01@@Z ; std::vector<_DDSURFACEDESC2,std::allocator<_DDSURFACEDESC2> >::vector<_DDSURFACEDESC2,std::allocator<_DDSURFACEDESC2> >
PUBLIC	??1?$vector@U_DDSURFACEDESC2@@V?$allocator@U_DDSURFACEDESC2@@@std@@@std@@QAE@XZ ; std::vector<_DDSURFACEDESC2,std::allocator<_DDSURFACEDESC2> >::~vector<_DDSURFACEDESC2,std::allocator<_DDSURFACEDESC2> >
PUBLIC	?capacity@?$vector@U_DDSURFACEDESC2@@V?$allocator@U_DDSURFACEDESC2@@@std@@@std@@QBEIXZ ; std::vector<_DDSURFACEDESC2,std::allocator<_DDSURFACEDESC2> >::capacity
PUBLIC	?_Unused_capacity@?$vector@U_DDSURFACEDESC2@@V?$allocator@U_DDSURFACEDESC2@@@std@@@std@@QBEIXZ ; std::vector<_DDSURFACEDESC2,std::allocator<_DDSURFACEDESC2> >::_Unused_capacity
PUBLIC	?begin@?$vector@U_DDSURFACEDESC2@@V?$allocator@U_DDSURFACEDESC2@@@std@@@std@@QBE?AV?$_Vector_const_iterator@V?$_Vector_val@U?$_Simple_types@U_DDSURFACEDESC2@@@std@@@std@@@2@XZ ; std::vector<_DDSURFACEDESC2,std::allocator<_DDSURFACEDESC2> >::begin
PUBLIC	?end@?$vector@U_DDSURFACEDESC2@@V?$allocator@U_DDSURFACEDESC2@@@std@@@std@@QBE?AV?$_Vector_const_iterator@V?$_Vector_val@U?$_Simple_types@U_DDSURFACEDESC2@@@std@@@std@@@2@XZ ; std::vector<_DDSURFACEDESC2,std::allocator<_DDSURFACEDESC2> >::end
PUBLIC	?size@?$vector@U_DDSURFACEDESC2@@V?$allocator@U_DDSURFACEDESC2@@@std@@@std@@QBEIXZ ; std::vector<_DDSURFACEDESC2,std::allocator<_DDSURFACEDESC2> >::size
PUBLIC	?max_size@?$vector@U_DDSURFACEDESC2@@V?$allocator@U_DDSURFACEDESC2@@@std@@@std@@QBEIXZ ; std::vector<_DDSURFACEDESC2,std::allocator<_DDSURFACEDESC2> >::max_size
PUBLIC	??A?$vector@U_DDSURFACEDESC2@@V?$allocator@U_DDSURFACEDESC2@@@std@@@std@@QAEAAU_DDSURFACEDESC2@@I@Z ; std::vector<_DDSURFACEDESC2,std::allocator<_DDSURFACEDESC2> >::operator[]
PUBLIC	?push_back@?$vector@U_DDSURFACEDESC2@@V?$allocator@U_DDSURFACEDESC2@@@std@@@std@@QAEXABU_DDSURFACEDESC2@@@Z ; std::vector<_DDSURFACEDESC2,std::allocator<_DDSURFACEDESC2> >::push_back
PUBLIC	?_Buy@?$vector@U_DDSURFACEDESC2@@V?$allocator@U_DDSURFACEDESC2@@@std@@@std@@IAE_NI@Z ; std::vector<_DDSURFACEDESC2,std::allocator<_DDSURFACEDESC2> >::_Buy
PUBLIC	?_Destroy@?$vector@U_DDSURFACEDESC2@@V?$allocator@U_DDSURFACEDESC2@@@std@@@std@@IAEXPAU_DDSURFACEDESC2@@0@Z ; std::vector<_DDSURFACEDESC2,std::allocator<_DDSURFACEDESC2> >::_Destroy
PUBLIC	?_Grow_to@?$vector@U_DDSURFACEDESC2@@V?$allocator@U_DDSURFACEDESC2@@@std@@@std@@IBEII@Z ; std::vector<_DDSURFACEDESC2,std::allocator<_DDSURFACEDESC2> >::_Grow_to
PUBLIC	?_Inside@?$vector@U_DDSURFACEDESC2@@V?$allocator@U_DDSURFACEDESC2@@@std@@@std@@IBE_NPBU_DDSURFACEDESC2@@@Z ; std::vector<_DDSURFACEDESC2,std::allocator<_DDSURFACEDESC2> >::_Inside
PUBLIC	?_Reallocate@?$vector@U_DDSURFACEDESC2@@V?$allocator@U_DDSURFACEDESC2@@@std@@@std@@IAEXI@Z ; std::vector<_DDSURFACEDESC2,std::allocator<_DDSURFACEDESC2> >::_Reallocate
PUBLIC	?_Reserve@?$vector@U_DDSURFACEDESC2@@V?$allocator@U_DDSURFACEDESC2@@@std@@@std@@IAEXI@Z ; std::vector<_DDSURFACEDESC2,std::allocator<_DDSURFACEDESC2> >::_Reserve
PUBLIC	?_Tidy@?$vector@U_DDSURFACEDESC2@@V?$allocator@U_DDSURFACEDESC2@@@std@@@std@@IAEXXZ ; std::vector<_DDSURFACEDESC2,std::allocator<_DDSURFACEDESC2> >::_Tidy
PUBLIC	?_Xlen@?$vector@U_DDSURFACEDESC2@@V?$allocator@U_DDSURFACEDESC2@@@std@@@std@@IBEXXZ ; std::vector<_DDSURFACEDESC2,std::allocator<_DDSURFACEDESC2> >::_Xlen
PUBLIC	?_Orphan_range@?$vector@U_DDSURFACEDESC2@@V?$allocator@U_DDSURFACEDESC2@@@std@@@std@@IBEXPAU_DDSURFACEDESC2@@0@Z ; std::vector<_DDSURFACEDESC2,std::allocator<_DDSURFACEDESC2> >::_Orphan_range
PUBLIC	?EnumD3DDrivers@DDDriverInfo@DeviceManager@@QAEXXZ ; DeviceManager::DDDriverInfo::EnumD3DDrivers
PUBLIC	?EnumD3DDriversCallback@DDDriverInfo@DeviceManager@@SGJPAD0PAU_D3DDeviceDesc7@@PAX@Z ; DeviceManager::DDDriverInfo::EnumD3DDriversCallback
PUBLIC	?EnumModesCallback@DDDriverInfo@DeviceManager@@SGJPAU_DDSURFACEDESC2@@PAX@Z ; DeviceManager::DDDriverInfo::EnumModesCallback
PUBLIC	?GetName@DDDriverInfo@DeviceManager@@QAEPBDXZ	; DeviceManager::DDDriverInfo::GetName
PUBLIC	?GetDeviceName@DDDriverInfo@DeviceManager@@QAEPBDH@Z ; DeviceManager::DDDriverInfo::GetDeviceName
PUBLIC	?GetDisplayMode@DDDriverInfo@DeviceManager@@QAEPAU_DDSURFACEDESC2@@H@Z ; DeviceManager::DDDriverInfo::GetDisplayMode
PUBLIC	?CanRenderWindowed@DDDriverInfo@DeviceManager@@QAE_NXZ ; DeviceManager::DDDriverInfo::CanRenderWindowed
PUBLIC	?GetDevice@DDDriverInfo@DeviceManager@@QAEPAVD3DDeviceInfo@12@H@Z ; DeviceManager::DDDriverInfo::GetDevice
PUBLIC	?GetGuid@DDDriverInfo@DeviceManager@@QAEPAU_GUID@@XZ ; DeviceManager::DDDriverInfo::GetGuid
PUBLIC	?FindDisplayMode@DDDriverInfo@DeviceManager@@QAEHHHH@Z ; DeviceManager::DDDriverInfo::FindDisplayMode
PUBLIC	?SupportsSRT@DDDriverInfo@DeviceManager@@QAE_NXZ ; DeviceManager::DDDriverInfo::SupportsSRT
PUBLIC	?FindRGBRenderer@DDDriverInfo@DeviceManager@@QAEHXZ ; DeviceManager::DDDriverInfo::FindRGBRenderer
PUBLIC	?Is3dfx@DDDriverInfo@DeviceManager@@QAE_NXZ	; DeviceManager::DDDriverInfo::Is3dfx
PUBLIC	??1DDDriverInfo@DeviceManager@@QAE@XZ		; DeviceManager::DDDriverInfo::~DDDriverInfo
PUBLIC	??0DDDriverInfo@DeviceManager@@QAE@ABV01@@Z	; DeviceManager::DDDriverInfo::DDDriverInfo
PUBLIC	??_GDDDriverInfo@DeviceManager@@QAEPAXI@Z	; DeviceManager::DDDriverInfo::`scalar deleting destructor'
PUBLIC	??0?$allocator@VDDDriverInfo@DeviceManager@@@std@@QAE@XZ ; std::allocator<DeviceManager::DDDriverInfo>::allocator<DeviceManager::DDDriverInfo>
PUBLIC	?deallocate@?$allocator@VDDDriverInfo@DeviceManager@@@std@@QAEXPAVDDDriverInfo@DeviceManager@@I@Z ; std::allocator<DeviceManager::DDDriverInfo>::deallocate
PUBLIC	?allocate@?$allocator@VDDDriverInfo@DeviceManager@@@std@@QAEPAVDDDriverInfo@DeviceManager@@I@Z ; std::allocator<DeviceManager::DDDriverInfo>::allocate
PUBLIC	?max_size@?$allocator@VDDDriverInfo@DeviceManager@@@std@@QBEIXZ ; std::allocator<DeviceManager::DDDriverInfo>::max_size
PUBLIC	?max_size@?$allocator_traits@V?$allocator@VDDDriverInfo@DeviceManager@@@std@@@std@@SAIABV?$allocator@VDDDriverInfo@DeviceManager@@@2@@Z ; std::allocator_traits<std::allocator<DeviceManager::DDDriverInfo> >::max_size
PUBLIC	??0?$_Wrap_alloc@V?$allocator@VDDDriverInfo@DeviceManager@@@std@@@std@@QAE@XZ ; std::_Wrap_alloc<std::allocator<DeviceManager::DDDriverInfo> >::_Wrap_alloc<std::allocator<DeviceManager::DDDriverInfo> >
PUBLIC	?allocate@?$_Wrap_alloc@V?$allocator@VDDDriverInfo@DeviceManager@@@std@@@std@@QAEPAVDDDriverInfo@DeviceManager@@I@Z ; std::_Wrap_alloc<std::allocator<DeviceManager::DDDriverInfo> >::allocate
PUBLIC	?deallocate@?$_Wrap_alloc@V?$allocator@VDDDriverInfo@DeviceManager@@@std@@@std@@QAEXPAVDDDriverInfo@DeviceManager@@I@Z ; std::_Wrap_alloc<std::allocator<DeviceManager::DDDriverInfo> >::deallocate
PUBLIC	?max_size@?$_Wrap_alloc@V?$allocator@VDDDriverInfo@DeviceManager@@@std@@@std@@QBEIXZ ; std::_Wrap_alloc<std::allocator<DeviceManager::DDDriverInfo> >::max_size
PUBLIC	?_Getal@?$_Vector_alloc@$0A@U?$_Vec_base_types@VDDDriverInfo@DeviceManager@@V?$allocator@VDDDriverInfo@DeviceManager@@@std@@@std@@@std@@QBE?AU?$_Wrap_alloc@V?$allocator@VDDDriverInfo@DeviceManager@@@std@@@2@XZ ; std::_Vector_alloc<0,std::_Vec_base_types<DeviceManager::DDDriverInfo,std::allocator<DeviceManager::DDDriverInfo> > >::_Getal
PUBLIC	?push_back@?$vector@VDDDriverInfo@DeviceManager@@V?$allocator@VDDDriverInfo@DeviceManager@@@std@@@std@@QAEX$$QAVDDDriverInfo@DeviceManager@@@Z ; std::vector<DeviceManager::DDDriverInfo,std::allocator<DeviceManager::DDDriverInfo> >::push_back
PUBLIC	?capacity@?$vector@VDDDriverInfo@DeviceManager@@V?$allocator@VDDDriverInfo@DeviceManager@@@std@@@std@@QBEIXZ ; std::vector<DeviceManager::DDDriverInfo,std::allocator<DeviceManager::DDDriverInfo> >::capacity
PUBLIC	?_Unused_capacity@?$vector@VDDDriverInfo@DeviceManager@@V?$allocator@VDDDriverInfo@DeviceManager@@@std@@@std@@QBEIXZ ; std::vector<DeviceManager::DDDriverInfo,std::allocator<DeviceManager::DDDriverInfo> >::_Unused_capacity
PUBLIC	?size@?$vector@VDDDriverInfo@DeviceManager@@V?$allocator@VDDDriverInfo@DeviceManager@@@std@@@std@@QBEIXZ ; std::vector<DeviceManager::DDDriverInfo,std::allocator<DeviceManager::DDDriverInfo> >::size
PUBLIC	?max_size@?$vector@VDDDriverInfo@DeviceManager@@V?$allocator@VDDDriverInfo@DeviceManager@@@std@@@std@@QBEIXZ ; std::vector<DeviceManager::DDDriverInfo,std::allocator<DeviceManager::DDDriverInfo> >::max_size
PUBLIC	??A?$vector@VDDDriverInfo@DeviceManager@@V?$allocator@VDDDriverInfo@DeviceManager@@@std@@@std@@QAEAAVDDDriverInfo@DeviceManager@@I@Z ; std::vector<DeviceManager::DDDriverInfo,std::allocator<DeviceManager::DDDriverInfo> >::operator[]
PUBLIC	?clear@?$vector@VDDDriverInfo@DeviceManager@@V?$allocator@VDDDriverInfo@DeviceManager@@@std@@@std@@QAEXXZ ; std::vector<DeviceManager::DDDriverInfo,std::allocator<DeviceManager::DDDriverInfo> >::clear
PUBLIC	?_Destroy@?$vector@VDDDriverInfo@DeviceManager@@V?$allocator@VDDDriverInfo@DeviceManager@@@std@@@std@@IAEXPAVDDDriverInfo@DeviceManager@@0@Z ; std::vector<DeviceManager::DDDriverInfo,std::allocator<DeviceManager::DDDriverInfo> >::_Destroy
PUBLIC	?_Grow_to@?$vector@VDDDriverInfo@DeviceManager@@V?$allocator@VDDDriverInfo@DeviceManager@@@std@@@std@@IBEII@Z ; std::vector<DeviceManager::DDDriverInfo,std::allocator<DeviceManager::DDDriverInfo> >::_Grow_to
PUBLIC	?_Inside@?$vector@VDDDriverInfo@DeviceManager@@V?$allocator@VDDDriverInfo@DeviceManager@@@std@@@std@@IBE_NPBVDDDriverInfo@DeviceManager@@@Z ; std::vector<DeviceManager::DDDriverInfo,std::allocator<DeviceManager::DDDriverInfo> >::_Inside
PUBLIC	?_Reallocate@?$vector@VDDDriverInfo@DeviceManager@@V?$allocator@VDDDriverInfo@DeviceManager@@@std@@@std@@IAEXI@Z ; std::vector<DeviceManager::DDDriverInfo,std::allocator<DeviceManager::DDDriverInfo> >::_Reallocate
PUBLIC	?_Reserve@?$vector@VDDDriverInfo@DeviceManager@@V?$allocator@VDDDriverInfo@DeviceManager@@@std@@@std@@IAEXI@Z ; std::vector<DeviceManager::DDDriverInfo,std::allocator<DeviceManager::DDDriverInfo> >::_Reserve
PUBLIC	?_Xlen@?$vector@VDDDriverInfo@DeviceManager@@V?$allocator@VDDDriverInfo@DeviceManager@@@std@@@std@@IBEXXZ ; std::vector<DeviceManager::DDDriverInfo,std::allocator<DeviceManager::DDDriverInfo> >::_Xlen
PUBLIC	?_Orphan_range@?$vector@VDDDriverInfo@DeviceManager@@V?$allocator@VDDDriverInfo@DeviceManager@@@std@@@std@@IBEXPAVDDDriverInfo@DeviceManager@@0@Z ; std::vector<DeviceManager::DDDriverInfo,std::allocator<DeviceManager::DDDriverInfo> >::_Orphan_range
PUBLIC	?Setup@DeviceManager@@QAEXH@Z			; DeviceManager::Setup
PUBLIC	?Cleanup@DeviceManager@@QAEXXZ			; DeviceManager::Cleanup
PUBLIC	?GetDriver@DeviceManager@@QAEPAVDDDriverInfo@1@H@Z ; DeviceManager::GetDriver
PUBLIC	?GetDriverName@DeviceManager@@QAEPBDH@Z		; DeviceManager::GetDriverName
PUBLIC	?GetDeviceName@DeviceManager@@QAEPBDHH@Z	; DeviceManager::GetDeviceName
PUBLIC	?GetModeName@DeviceManager@@QAEPBDHHH@Z		; DeviceManager::GetModeName
PUBLIC	?ChooseDevice@DeviceManager@@QAEHPAH00@Z	; DeviceManager::ChooseDevice
PUBLIC	?FindPrimaryDisplayDriver@DeviceManager@@QAEHXZ	; DeviceManager::FindPrimaryDisplayDriver
PUBLIC	?EnumDDDrivers@DeviceManager@@QAEXPAV1@@Z	; DeviceManager::EnumDDDrivers
PUBLIC	?EnumDDCallback@DeviceManager@@SGHPAU_GUID@@PAD1PAX@Z ; DeviceManager::EnumDDCallback
PUBLIC	?EnumDDCallbackEx@DeviceManager@@SGHPAU_GUID@@PAD1PAXPAUHMONITOR__@@@Z ; DeviceManager::EnumDDCallbackEx
PUBLIC	?GetMode@DeviceManager@@QAE_NHHHPAI00@Z		; DeviceManager::GetMode
PUBLIC	?CreateContext@DeviceManager@@QAEPAVDXContext@@HHHHPAUHWND__@@@Z ; DeviceManager::CreateContext
PUBLIC	??0?$_com_ptr_t@V?$_com_IIID@UIDirectDraw@@$1?IID_IDirectDraw@@3U_GUID@@B@@@@QAE@XZ ; _com_ptr_t<_com_IIID<IDirectDraw,&IID_IDirectDraw> >::_com_ptr_t<_com_IIID<IDirectDraw,&IID_IDirectDraw> >
PUBLIC	??0?$_com_ptr_t@V?$_com_IIID@UIDirectDraw@@$1?IID_IDirectDraw@@3U_GUID@@B@@@@QAE@ABV0@@Z ; _com_ptr_t<_com_IIID<IDirectDraw,&IID_IDirectDraw> >::_com_ptr_t<_com_IIID<IDirectDraw,&IID_IDirectDraw> >
PUBLIC	??1?$_com_ptr_t@V?$_com_IIID@UIDirectDraw@@$1?IID_IDirectDraw@@3U_GUID@@B@@@@QAE@XZ ; _com_ptr_t<_com_IIID<IDirectDraw,&IID_IDirectDraw> >::~_com_ptr_t<_com_IIID<IDirectDraw,&IID_IDirectDraw> >
PUBLIC	??I?$_com_ptr_t@V?$_com_IIID@UIDirectDraw@@$1?IID_IDirectDraw@@3U_GUID@@B@@@@QAEPAPAUIDirectDraw@@XZ ; _com_ptr_t<_com_IIID<IDirectDraw,&IID_IDirectDraw> >::operator&
PUBLIC	??C?$_com_ptr_t@V?$_com_IIID@UIDirectDraw@@$1?IID_IDirectDraw@@3U_GUID@@B@@@@QBEPAUIDirectDraw@@XZ ; _com_ptr_t<_com_IIID<IDirectDraw,&IID_IDirectDraw> >::operator->
PUBLIC	??8?$_com_ptr_t@V?$_com_IIID@UIDirectDraw@@$1?IID_IDirectDraw@@3U_GUID@@B@@@@QBE_NH@Z ; _com_ptr_t<_com_IIID<IDirectDraw,&IID_IDirectDraw> >::operator==
PUBLIC	??9?$_com_ptr_t@V?$_com_IIID@UIDirectDraw@@$1?IID_IDirectDraw@@3U_GUID@@B@@@@QBE_NH@Z ; _com_ptr_t<_com_IIID<IDirectDraw,&IID_IDirectDraw> >::operator!=
PUBLIC	?_Release@?$_com_ptr_t@V?$_com_IIID@UIDirectDraw@@$1?IID_IDirectDraw@@3U_GUID@@B@@@@AAEXXZ ; _com_ptr_t<_com_IIID<IDirectDraw,&IID_IDirectDraw> >::_Release
PUBLIC	?_AddRef@?$_com_ptr_t@V?$_com_IIID@UIDirectDraw@@$1?IID_IDirectDraw@@3U_GUID@@B@@@@AAEXXZ ; _com_ptr_t<_com_IIID<IDirectDraw,&IID_IDirectDraw> >::_AddRef
PUBLIC	?GetIID@?$_com_IIID@UIDirectDraw7@@$1?IID_IDirectDraw7@@3U_GUID@@B@@SAABU_GUID@@XZ ; _com_IIID<IDirectDraw7,&IID_IDirectDraw7>::GetIID
PUBLIC	?GetIID@?$_com_ptr_t@V?$_com_IIID@UIDirectDraw7@@$1?IID_IDirectDraw7@@3U_GUID@@B@@@@SAABU_GUID@@XZ ; _com_ptr_t<_com_IIID<IDirectDraw7,&IID_IDirectDraw7> >::GetIID
PUBLIC	??0?$_com_ptr_t@V?$_com_IIID@UIDirectDraw7@@$1?IID_IDirectDraw7@@3U_GUID@@B@@@@QAE@XZ ; _com_ptr_t<_com_IIID<IDirectDraw7,&IID_IDirectDraw7> >::_com_ptr_t<_com_IIID<IDirectDraw7,&IID_IDirectDraw7> >
PUBLIC	??$?4UIDirectDraw7@@@?$_com_ptr_t@V?$_com_IIID@UIDirectDraw7@@$1?IID_IDirectDraw7@@3U_GUID@@B@@@@QAEAAV0@PAUIDirectDraw7@@@Z ; _com_ptr_t<_com_IIID<IDirectDraw7,&IID_IDirectDraw7> >::operator=<IDirectDraw7>
PUBLIC	??1?$_com_ptr_t@V?$_com_IIID@UIDirectDraw7@@$1?IID_IDirectDraw7@@3U_GUID@@B@@@@QAE@XZ ; _com_ptr_t<_com_IIID<IDirectDraw7,&IID_IDirectDraw7> >::~_com_ptr_t<_com_IIID<IDirectDraw7,&IID_IDirectDraw7> >
PUBLIC	?Attach@?$_com_ptr_t@V?$_com_IIID@UIDirectDraw7@@$1?IID_IDirectDraw7@@3U_GUID@@B@@@@QAEXPAUIDirectDraw7@@@Z ; _com_ptr_t<_com_IIID<IDirectDraw7,&IID_IDirectDraw7> >::Attach
PUBLIC	??C?$_com_ptr_t@V?$_com_IIID@UIDirectDraw7@@$1?IID_IDirectDraw7@@3U_GUID@@B@@@@QBEPAUIDirectDraw7@@XZ ; _com_ptr_t<_com_IIID<IDirectDraw7,&IID_IDirectDraw7> >::operator->
PUBLIC	?_Release@?$_com_ptr_t@V?$_com_IIID@UIDirectDraw7@@$1?IID_IDirectDraw7@@3U_GUID@@B@@@@AAEXXZ ; _com_ptr_t<_com_IIID<IDirectDraw7,&IID_IDirectDraw7> >::_Release
PUBLIC	?_AddRef@?$_com_ptr_t@V?$_com_IIID@UIDirectDraw7@@$1?IID_IDirectDraw7@@3U_GUID@@B@@@@AAEXXZ ; _com_ptr_t<_com_IIID<IDirectDraw7,&IID_IDirectDraw7> >::_AddRef
PUBLIC	?GetIID@?$_com_IIID@UIDirect3D7@@$1?IID_IDirect3D7@@3U_GUID@@B@@SAABU_GUID@@XZ ; _com_IIID<IDirect3D7,&IID_IDirect3D7>::GetIID
PUBLIC	?GetIID@?$_com_ptr_t@V?$_com_IIID@UIDirect3D7@@$1?IID_IDirect3D7@@3U_GUID@@B@@@@SAABU_GUID@@XZ ; _com_ptr_t<_com_IIID<IDirect3D7,&IID_IDirect3D7> >::GetIID
PUBLIC	??0?$_com_ptr_t@V?$_com_IIID@UIDirect3D7@@$1?IID_IDirect3D7@@3U_GUID@@B@@@@QAE@XZ ; _com_ptr_t<_com_IIID<IDirect3D7,&IID_IDirect3D7> >::_com_ptr_t<_com_IIID<IDirect3D7,&IID_IDirect3D7> >
PUBLIC	??$?4UIDirect3D7@@@?$_com_ptr_t@V?$_com_IIID@UIDirect3D7@@$1?IID_IDirect3D7@@3U_GUID@@B@@@@QAEAAV0@PAUIDirect3D7@@@Z ; _com_ptr_t<_com_IIID<IDirect3D7,&IID_IDirect3D7> >::operator=<IDirect3D7>
PUBLIC	??1?$_com_ptr_t@V?$_com_IIID@UIDirect3D7@@$1?IID_IDirect3D7@@3U_GUID@@B@@@@QAE@XZ ; _com_ptr_t<_com_IIID<IDirect3D7,&IID_IDirect3D7> >::~_com_ptr_t<_com_IIID<IDirect3D7,&IID_IDirect3D7> >
PUBLIC	?Attach@?$_com_ptr_t@V?$_com_IIID@UIDirect3D7@@$1?IID_IDirect3D7@@3U_GUID@@B@@@@QAEXPAUIDirect3D7@@@Z ; _com_ptr_t<_com_IIID<IDirect3D7,&IID_IDirect3D7> >::Attach
PUBLIC	??C?$_com_ptr_t@V?$_com_IIID@UIDirect3D7@@$1?IID_IDirect3D7@@3U_GUID@@B@@@@QBEPAUIDirect3D7@@XZ ; _com_ptr_t<_com_IIID<IDirect3D7,&IID_IDirect3D7> >::operator->
PUBLIC	?_Release@?$_com_ptr_t@V?$_com_IIID@UIDirect3D7@@$1?IID_IDirect3D7@@3U_GUID@@B@@@@AAEXXZ ; _com_ptr_t<_com_IIID<IDirect3D7,&IID_IDirect3D7> >::_Release
PUBLIC	?_AddRef@?$_com_ptr_t@V?$_com_IIID@UIDirect3D7@@$1?IID_IDirect3D7@@3U_GUID@@B@@@@AAEXXZ ; _com_ptr_t<_com_IIID<IDirect3D7,&IID_IDirect3D7> >::_AddRef
PUBLIC	??$?4V?$_com_IIID@UIDirectDraw@@$1?IID_IDirectDraw@@3U_GUID@@B@@@?$_com_ptr_t@V?$_com_IIID@UIDirect3D7@@$1?IID_IDirect3D7@@3U_GUID@@B@@@@QAEAAV0@ABV?$_com_ptr_t@V?$_com_IIID@UIDirectDraw@@$1?IID_IDirectDraw@@3U_GUID@@B@@@@@Z ; _com_ptr_t<_com_IIID<IDirect3D7,&IID_IDirect3D7> >::operator=<_com_IIID<IDirectDraw,&IID_IDirectDraw> >
PUBLIC	??$?4V?$_com_IIID@UIDirectDraw@@$1?IID_IDirectDraw@@3U_GUID@@B@@@?$_com_ptr_t@V?$_com_IIID@UIDirectDraw7@@$1?IID_IDirectDraw7@@3U_GUID@@B@@@@QAEAAV0@ABV?$_com_ptr_t@V?$_com_IIID@UIDirectDraw@@$1?IID_IDirectDraw@@3U_GUID@@B@@@@@Z ; _com_ptr_t<_com_IIID<IDirectDraw7,&IID_IDirectDraw7> >::operator=<_com_IIID<IDirectDraw,&IID_IDirectDraw> >
PUBLIC	??0?$_com_ptr_t@V?$_com_IIID@UIDirectDrawSurface7@@$1?IID_IDirectDraw7@@3U_GUID@@B@@@@QAE@XZ ; _com_ptr_t<_com_IIID<IDirectDrawSurface7,&IID_IDirectDraw7> >::_com_ptr_t<_com_IIID<IDirectDrawSurface7,&IID_IDirectDraw7> >
PUBLIC	??1?$_com_ptr_t@V?$_com_IIID@UIDirectDrawSurface7@@$1?IID_IDirectDraw7@@3U_GUID@@B@@@@QAE@XZ ; _com_ptr_t<_com_IIID<IDirectDrawSurface7,&IID_IDirectDraw7> >::~_com_ptr_t<_com_IIID<IDirectDrawSurface7,&IID_IDirectDraw7> >
PUBLIC	??B?$_com_ptr_t@V?$_com_IIID@UIDirectDrawSurface7@@$1?IID_IDirectDraw7@@3U_GUID@@B@@@@QBEPAUIDirectDrawSurface7@@XZ ; _com_ptr_t<_com_IIID<IDirectDrawSurface7,&IID_IDirectDraw7> >::operator IDirectDrawSurface7 *
PUBLIC	??I?$_com_ptr_t@V?$_com_IIID@UIDirectDrawSurface7@@$1?IID_IDirectDraw7@@3U_GUID@@B@@@@QAEPAPAUIDirectDrawSurface7@@XZ ; _com_ptr_t<_com_IIID<IDirectDrawSurface7,&IID_IDirectDraw7> >::operator&
PUBLIC	??C?$_com_ptr_t@V?$_com_IIID@UIDirectDrawSurface7@@$1?IID_IDirectDraw7@@3U_GUID@@B@@@@QBEPAUIDirectDrawSurface7@@XZ ; _com_ptr_t<_com_IIID<IDirectDrawSurface7,&IID_IDirectDraw7> >::operator->
PUBLIC	??B?$_com_ptr_t@V?$_com_IIID@UIDirectDrawSurface7@@$1?IID_IDirectDraw7@@3U_GUID@@B@@@@QBE_NXZ ; _com_ptr_t<_com_IIID<IDirectDrawSurface7,&IID_IDirectDraw7> >::operator bool
PUBLIC	?GetInterfacePtr@?$_com_ptr_t@V?$_com_IIID@UIDirectDrawSurface7@@$1?IID_IDirectDraw7@@3U_GUID@@B@@@@QAEAAPAUIDirectDrawSurface7@@XZ ; _com_ptr_t<_com_IIID<IDirectDrawSurface7,&IID_IDirectDraw7> >::GetInterfacePtr
PUBLIC	?_Release@?$_com_ptr_t@V?$_com_IIID@UIDirectDrawSurface7@@$1?IID_IDirectDraw7@@3U_GUID@@B@@@@AAEXXZ ; _com_ptr_t<_com_IIID<IDirectDrawSurface7,&IID_IDirectDraw7> >::_Release
PUBLIC	??0?$allocator@U_DDPIXELFORMAT@@@std@@QAE@XZ	; std::allocator<_DDPIXELFORMAT>::allocator<_DDPIXELFORMAT>
PUBLIC	?deallocate@?$allocator@U_DDPIXELFORMAT@@@std@@QAEXPAU_DDPIXELFORMAT@@I@Z ; std::allocator<_DDPIXELFORMAT>::deallocate
PUBLIC	?allocate@?$allocator@U_DDPIXELFORMAT@@@std@@QAEPAU_DDPIXELFORMAT@@I@Z ; std::allocator<_DDPIXELFORMAT>::allocate
PUBLIC	?construct@?$allocator@U_DDPIXELFORMAT@@@std@@QAEXPAU_DDPIXELFORMAT@@ABU3@@Z ; std::allocator<_DDPIXELFORMAT>::construct
PUBLIC	?max_size@?$allocator@U_DDPIXELFORMAT@@@std@@QBEIXZ ; std::allocator<_DDPIXELFORMAT>::max_size
PUBLIC	?max_size@?$allocator_traits@V?$allocator@U_DDPIXELFORMAT@@@std@@@std@@SAIABV?$allocator@U_DDPIXELFORMAT@@@2@@Z ; std::allocator_traits<std::allocator<_DDPIXELFORMAT> >::max_size
PUBLIC	??0?$_Wrap_alloc@V?$allocator@U_DDPIXELFORMAT@@@std@@@std@@QAE@XZ ; std::_Wrap_alloc<std::allocator<_DDPIXELFORMAT> >::_Wrap_alloc<std::allocator<_DDPIXELFORMAT> >
PUBLIC	?allocate@?$_Wrap_alloc@V?$allocator@U_DDPIXELFORMAT@@@std@@@std@@QAEPAU_DDPIXELFORMAT@@I@Z ; std::_Wrap_alloc<std::allocator<_DDPIXELFORMAT> >::allocate
PUBLIC	?deallocate@?$_Wrap_alloc@V?$allocator@U_DDPIXELFORMAT@@@std@@@std@@QAEXPAU_DDPIXELFORMAT@@I@Z ; std::_Wrap_alloc<std::allocator<_DDPIXELFORMAT> >::deallocate
PUBLIC	?max_size@?$_Wrap_alloc@V?$allocator@U_DDPIXELFORMAT@@@std@@@std@@QBEIXZ ; std::_Wrap_alloc<std::allocator<_DDPIXELFORMAT> >::max_size
PUBLIC	??0?$_Vector_val@U?$_Simple_types@U_DDPIXELFORMAT@@@std@@@std@@QAE@XZ ; std::_Vector_val<std::_Simple_types<_DDPIXELFORMAT> >::_Vector_val<std::_Simple_types<_DDPIXELFORMAT> >
PUBLIC	??0?$_Vector_alloc@$0A@U?$_Vec_base_types@U_DDPIXELFORMAT@@V?$allocator@U_DDPIXELFORMAT@@@std@@@std@@@std@@QAE@ABV?$allocator@U_DDPIXELFORMAT@@@1@@Z ; std::_Vector_alloc<0,std::_Vec_base_types<_DDPIXELFORMAT,std::allocator<_DDPIXELFORMAT> > >::_Vector_alloc<0,std::_Vec_base_types<_DDPIXELFORMAT,std::allocator<_DDPIXELFORMAT> > >
PUBLIC	?_Getal@?$_Vector_alloc@$0A@U?$_Vec_base_types@U_DDPIXELFORMAT@@V?$allocator@U_DDPIXELFORMAT@@@std@@@std@@@std@@QBE?AU?$_Wrap_alloc@V?$allocator@U_DDPIXELFORMAT@@@std@@@2@XZ ; std::_Vector_alloc<0,std::_Vec_base_types<_DDPIXELFORMAT,std::allocator<_DDPIXELFORMAT> > >::_Getal
PUBLIC	??0?$vector@U_DDPIXELFORMAT@@V?$allocator@U_DDPIXELFORMAT@@@std@@@std@@QAE@XZ ; std::vector<_DDPIXELFORMAT,std::allocator<_DDPIXELFORMAT> >::vector<_DDPIXELFORMAT,std::allocator<_DDPIXELFORMAT> >
PUBLIC	??1?$vector@U_DDPIXELFORMAT@@V?$allocator@U_DDPIXELFORMAT@@@std@@@std@@QAE@XZ ; std::vector<_DDPIXELFORMAT,std::allocator<_DDPIXELFORMAT> >::~vector<_DDPIXELFORMAT,std::allocator<_DDPIXELFORMAT> >
PUBLIC	?capacity@?$vector@U_DDPIXELFORMAT@@V?$allocator@U_DDPIXELFORMAT@@@std@@@std@@QBEIXZ ; std::vector<_DDPIXELFORMAT,std::allocator<_DDPIXELFORMAT> >::capacity
PUBLIC	?_Unused_capacity@?$vector@U_DDPIXELFORMAT@@V?$allocator@U_DDPIXELFORMAT@@@std@@@std@@QBEIXZ ; std::vector<_DDPIXELFORMAT,std::allocator<_DDPIXELFORMAT> >::_Unused_capacity
PUBLIC	?begin@?$vector@U_DDPIXELFORMAT@@V?$allocator@U_DDPIXELFORMAT@@@std@@@std@@QAE?AV?$_Vector_iterator@V?$_Vector_val@U?$_Simple_types@U_DDPIXELFORMAT@@@std@@@std@@@2@XZ ; std::vector<_DDPIXELFORMAT,std::allocator<_DDPIXELFORMAT> >::begin
PUBLIC	?end@?$vector@U_DDPIXELFORMAT@@V?$allocator@U_DDPIXELFORMAT@@@std@@@std@@QAE?AV?$_Vector_iterator@V?$_Vector_val@U?$_Simple_types@U_DDPIXELFORMAT@@@std@@@std@@@2@XZ ; std::vector<_DDPIXELFORMAT,std::allocator<_DDPIXELFORMAT> >::end
PUBLIC	?size@?$vector@U_DDPIXELFORMAT@@V?$allocator@U_DDPIXELFORMAT@@@std@@@std@@QBEIXZ ; std::vector<_DDPIXELFORMAT,std::allocator<_DDPIXELFORMAT> >::size
PUBLIC	?max_size@?$vector@U_DDPIXELFORMAT@@V?$allocator@U_DDPIXELFORMAT@@@std@@@std@@QBEIXZ ; std::vector<_DDPIXELFORMAT,std::allocator<_DDPIXELFORMAT> >::max_size
PUBLIC	?empty@?$vector@U_DDPIXELFORMAT@@V?$allocator@U_DDPIXELFORMAT@@@std@@@std@@QBE_NXZ ; std::vector<_DDPIXELFORMAT,std::allocator<_DDPIXELFORMAT> >::empty
PUBLIC	?push_back@?$vector@U_DDPIXELFORMAT@@V?$allocator@U_DDPIXELFORMAT@@@std@@@std@@QAEXABU_DDPIXELFORMAT@@@Z ; std::vector<_DDPIXELFORMAT,std::allocator<_DDPIXELFORMAT> >::push_back
PUBLIC	?clear@?$vector@U_DDPIXELFORMAT@@V?$allocator@U_DDPIXELFORMAT@@@std@@@std@@QAEXXZ ; std::vector<_DDPIXELFORMAT,std::allocator<_DDPIXELFORMAT> >::clear
PUBLIC	?_Destroy@?$vector@U_DDPIXELFORMAT@@V?$allocator@U_DDPIXELFORMAT@@@std@@@std@@IAEXPAU_DDPIXELFORMAT@@0@Z ; std::vector<_DDPIXELFORMAT,std::allocator<_DDPIXELFORMAT> >::_Destroy
PUBLIC	?_Grow_to@?$vector@U_DDPIXELFORMAT@@V?$allocator@U_DDPIXELFORMAT@@@std@@@std@@IBEII@Z ; std::vector<_DDPIXELFORMAT,std::allocator<_DDPIXELFORMAT> >::_Grow_to
PUBLIC	?_Inside@?$vector@U_DDPIXELFORMAT@@V?$allocator@U_DDPIXELFORMAT@@@std@@@std@@IBE_NPBU_DDPIXELFORMAT@@@Z ; std::vector<_DDPIXELFORMAT,std::allocator<_DDPIXELFORMAT> >::_Inside
PUBLIC	?_Reallocate@?$vector@U_DDPIXELFORMAT@@V?$allocator@U_DDPIXELFORMAT@@@std@@@std@@IAEXI@Z ; std::vector<_DDPIXELFORMAT,std::allocator<_DDPIXELFORMAT> >::_Reallocate
PUBLIC	?_Reserve@?$vector@U_DDPIXELFORMAT@@V?$allocator@U_DDPIXELFORMAT@@@std@@@std@@IAEXI@Z ; std::vector<_DDPIXELFORMAT,std::allocator<_DDPIXELFORMAT> >::_Reserve
PUBLIC	?_Tidy@?$vector@U_DDPIXELFORMAT@@V?$allocator@U_DDPIXELFORMAT@@@std@@@std@@IAEXXZ ; std::vector<_DDPIXELFORMAT,std::allocator<_DDPIXELFORMAT> >::_Tidy
PUBLIC	?_Xlen@?$vector@U_DDPIXELFORMAT@@V?$allocator@U_DDPIXELFORMAT@@@std@@@std@@IBEXXZ ; std::vector<_DDPIXELFORMAT,std::allocator<_DDPIXELFORMAT> >::_Xlen
PUBLIC	?_Orphan_range@?$vector@U_DDPIXELFORMAT@@V?$allocator@U_DDPIXELFORMAT@@@std@@@std@@IBEXPAU_DDPIXELFORMAT@@0@Z ; std::vector<_DDPIXELFORMAT,std::allocator<_DDPIXELFORMAT> >::_Orphan_range
PUBLIC	??0?$_Vector_const_iterator@V?$_Vector_val@U?$_Simple_types@U_DDPIXELFORMAT@@@std@@@std@@@std@@QAE@XZ ; std::_Vector_const_iterator<std::_Vector_val<std::_Simple_types<_DDPIXELFORMAT> > >::_Vector_const_iterator<std::_Vector_val<std::_Simple_types<_DDPIXELFORMAT> > >
PUBLIC	??0?$_Vector_const_iterator@V?$_Vector_val@U?$_Simple_types@U_DDPIXELFORMAT@@@std@@@std@@@std@@QAE@PAU_DDPIXELFORMAT@@PBU_Container_base0@1@@Z ; std::_Vector_const_iterator<std::_Vector_val<std::_Simple_types<_DDPIXELFORMAT> > >::_Vector_const_iterator<std::_Vector_val<std::_Simple_types<_DDPIXELFORMAT> > >
PUBLIC	??D?$_Vector_const_iterator@V?$_Vector_val@U?$_Simple_types@U_DDPIXELFORMAT@@@std@@@std@@@std@@QBEABU_DDPIXELFORMAT@@XZ ; std::_Vector_const_iterator<std::_Vector_val<std::_Simple_types<_DDPIXELFORMAT> > >::operator*
PUBLIC	??E?$_Vector_const_iterator@V?$_Vector_val@U?$_Simple_types@U_DDPIXELFORMAT@@@std@@@std@@@std@@QAEAAV01@XZ ; std::_Vector_const_iterator<std::_Vector_val<std::_Simple_types<_DDPIXELFORMAT> > >::operator++
PUBLIC	??8?$_Vector_const_iterator@V?$_Vector_val@U?$_Simple_types@U_DDPIXELFORMAT@@@std@@@std@@@std@@QBE_NABV01@@Z ; std::_Vector_const_iterator<std::_Vector_val<std::_Simple_types<_DDPIXELFORMAT> > >::operator==
PUBLIC	??9?$_Vector_const_iterator@V?$_Vector_val@U?$_Simple_types@U_DDPIXELFORMAT@@@std@@@std@@@std@@QBE_NABV01@@Z ; std::_Vector_const_iterator<std::_Vector_val<std::_Simple_types<_DDPIXELFORMAT> > >::operator!=
PUBLIC	?_Compat@?$_Vector_const_iterator@V?$_Vector_val@U?$_Simple_types@U_DDPIXELFORMAT@@@std@@@std@@@std@@QBEXABV12@@Z ; std::_Vector_const_iterator<std::_Vector_val<std::_Simple_types<_DDPIXELFORMAT> > >::_Compat
PUBLIC	??0?$_Vector_iterator@V?$_Vector_val@U?$_Simple_types@U_DDPIXELFORMAT@@@std@@@std@@@std@@QAE@XZ ; std::_Vector_iterator<std::_Vector_val<std::_Simple_types<_DDPIXELFORMAT> > >::_Vector_iterator<std::_Vector_val<std::_Simple_types<_DDPIXELFORMAT> > >
PUBLIC	??0?$_Vector_iterator@V?$_Vector_val@U?$_Simple_types@U_DDPIXELFORMAT@@@std@@@std@@@std@@QAE@PAU_DDPIXELFORMAT@@PBU_Container_base0@1@@Z ; std::_Vector_iterator<std::_Vector_val<std::_Simple_types<_DDPIXELFORMAT> > >::_Vector_iterator<std::_Vector_val<std::_Simple_types<_DDPIXELFORMAT> > >
PUBLIC	??D?$_Vector_iterator@V?$_Vector_val@U?$_Simple_types@U_DDPIXELFORMAT@@@std@@@std@@@std@@QBEAAU_DDPIXELFORMAT@@XZ ; std::_Vector_iterator<std::_Vector_val<std::_Simple_types<_DDPIXELFORMAT> > >::operator*
PUBLIC	??C?$_Vector_iterator@V?$_Vector_val@U?$_Simple_types@U_DDPIXELFORMAT@@@std@@@std@@@std@@QBEPAU_DDPIXELFORMAT@@XZ ; std::_Vector_iterator<std::_Vector_val<std::_Simple_types<_DDPIXELFORMAT> > >::operator->
PUBLIC	??E?$_Vector_iterator@V?$_Vector_val@U?$_Simple_types@U_DDPIXELFORMAT@@@std@@@std@@@std@@QAEAAV01@XZ ; std::_Vector_iterator<std::_Vector_val<std::_Simple_types<_DDPIXELFORMAT> > >::operator++
PUBLIC	??E?$_Vector_iterator@V?$_Vector_val@U?$_Simple_types@U_DDPIXELFORMAT@@@std@@@std@@@std@@QAE?AV01@H@Z ; std::_Vector_iterator<std::_Vector_val<std::_Simple_types<_DDPIXELFORMAT> > >::operator++
PUBLIC	??$addressof@VD3DDeviceInfo@DDDriverInfo@DeviceManager@@@std@@YAPAVD3DDeviceInfo@DDDriverInfo@DeviceManager@@AAV123@@Z ; std::addressof<DeviceManager::DDDriverInfo::D3DDeviceInfo>
PUBLIC	??$forward@VD3DDeviceInfo@DDDriverInfo@DeviceManager@@@std@@YA$$QAVD3DDeviceInfo@DDDriverInfo@DeviceManager@@AAV123@@Z ; std::forward<DeviceManager::DDDriverInfo::D3DDeviceInfo>
PUBLIC	??$construct@VD3DDeviceInfo@DDDriverInfo@DeviceManager@@V123@@?$_Wrap_alloc@V?$allocator@VD3DDeviceInfo@DDDriverInfo@DeviceManager@@@std@@@std@@QAEXPAVD3DDeviceInfo@DDDriverInfo@DeviceManager@@$$QAV234@@Z ; std::_Wrap_alloc<std::allocator<DeviceManager::DDDriverInfo::D3DDeviceInfo> >::construct<DeviceManager::DDDriverInfo::D3DDeviceInfo,DeviceManager::DDDriverInfo::D3DDeviceInfo>
PUBLIC	??$addressof@$$CBU_DDSURFACEDESC2@@@std@@YAPBU_DDSURFACEDESC2@@ABU1@@Z ; std::addressof<_DDSURFACEDESC2 const >
PUBLIC	??$construct@U_DDSURFACEDESC2@@AAU1@@?$_Wrap_alloc@V?$allocator@U_DDSURFACEDESC2@@@std@@@std@@QAEXPAU_DDSURFACEDESC2@@AAU2@@Z ; std::_Wrap_alloc<std::allocator<_DDSURFACEDESC2> >::construct<_DDSURFACEDESC2,_DDSURFACEDESC2 &>
PUBLIC	??$construct@U_DDSURFACEDESC2@@ABU1@@?$_Wrap_alloc@V?$allocator@U_DDSURFACEDESC2@@@std@@@std@@QAEXPAU_DDSURFACEDESC2@@ABU2@@Z ; std::_Wrap_alloc<std::allocator<_DDSURFACEDESC2> >::construct<_DDSURFACEDESC2,_DDSURFACEDESC2 const &>
PUBLIC	??$addressof@VDDDriverInfo@DeviceManager@@@std@@YAPAVDDDriverInfo@DeviceManager@@AAV12@@Z ; std::addressof<DeviceManager::DDDriverInfo>
PUBLIC	??$forward@VDDDriverInfo@DeviceManager@@@std@@YA$$QAVDDDriverInfo@DeviceManager@@AAV12@@Z ; std::forward<DeviceManager::DDDriverInfo>
PUBLIC	??$construct@VDDDriverInfo@DeviceManager@@V12@@?$_Wrap_alloc@V?$allocator@VDDDriverInfo@DeviceManager@@@std@@@std@@QAEXPAVDDDriverInfo@DeviceManager@@$$QAV23@@Z ; std::_Wrap_alloc<std::allocator<DeviceManager::DDDriverInfo> >::construct<DeviceManager::DDDriverInfo,DeviceManager::DDDriverInfo>
PUBLIC	??$addressof@$$CBU_DDPIXELFORMAT@@@std@@YAPBU_DDPIXELFORMAT@@ABU1@@Z ; std::addressof<_DDPIXELFORMAT const >
PUBLIC	??$construct@U_DDPIXELFORMAT@@AAU1@@?$_Wrap_alloc@V?$allocator@U_DDPIXELFORMAT@@@std@@@std@@QAEXPAU_DDPIXELFORMAT@@AAU2@@Z ; std::_Wrap_alloc<std::allocator<_DDPIXELFORMAT> >::construct<_DDPIXELFORMAT,_DDPIXELFORMAT &>
PUBLIC	??$construct@U_DDPIXELFORMAT@@ABU1@@?$_Wrap_alloc@V?$allocator@U_DDPIXELFORMAT@@@std@@@std@@QAEXPAU_DDPIXELFORMAT@@ABU2@@Z ; std::_Wrap_alloc<std::allocator<_DDPIXELFORMAT> >::construct<_DDPIXELFORMAT,_DDPIXELFORMAT const &>
PUBLIC	?pointer_to@?$pointer_traits@PAU_DDPIXELFORMAT@@@std@@SAPAU_DDPIXELFORMAT@@AAU3@@Z ; std::pointer_traits<_DDPIXELFORMAT *>::pointer_to
PUBLIC	??$construct@PADAAPAD@?$_Wrap_alloc@V?$allocator@D@std@@@std@@QAEXPAPADAAPAD@Z ; std::_Wrap_alloc<std::allocator<char> >::construct<char *,char * &>
PUBLIC	??$destroy@PAD@?$_Wrap_alloc@V?$allocator@D@std@@@std@@QAEXPAPAD@Z ; std::_Wrap_alloc<std::allocator<char> >::destroy<char *>
PUBLIC	??$addressof@D@std@@YAPADAAD@Z			; std::addressof<char>
PUBLIC	??$_Destroy_range@U?$_Wrap_alloc@V?$allocator@VD3DDeviceInfo@DDDriverInfo@DeviceManager@@@std@@@std@@@std@@YAXPAVD3DDeviceInfo@DDDriverInfo@DeviceManager@@0AAU?$_Wrap_alloc@V?$allocator@VD3DDeviceInfo@DDDriverInfo@DeviceManager@@@std@@@0@@Z ; std::_Destroy_range<std::_Wrap_alloc<std::allocator<DeviceManager::DDDriverInfo::D3DDeviceInfo> > >
PUBLIC	??$_Destroy_range@U?$_Wrap_alloc@V?$allocator@VDDDriverInfo@DeviceManager@@@std@@@std@@@std@@YAXPAVDDDriverInfo@DeviceManager@@0AAU?$_Wrap_alloc@V?$allocator@VDDDriverInfo@DeviceManager@@@std@@@0@@Z ; std::_Destroy_range<std::_Wrap_alloc<std::allocator<DeviceManager::DDDriverInfo> > >
PUBLIC	??$_Destroy_range@U?$_Wrap_alloc@V?$allocator@U_DDPIXELFORMAT@@@std@@@std@@@std@@YAXPAU_DDPIXELFORMAT@@0AAU?$_Wrap_alloc@V?$allocator@U_DDPIXELFORMAT@@@std@@@0@@Z ; std::_Destroy_range<std::_Wrap_alloc<std::allocator<_DDPIXELFORMAT> > >
PUBLIC	??$addressof@U_DDPIXELFORMAT@@@std@@YAPAU_DDPIXELFORMAT@@AAU1@@Z ; std::addressof<_DDPIXELFORMAT>
PUBLIC	??$_Umove@PAVD3DDeviceInfo@DDDriverInfo@DeviceManager@@@?$vector@VD3DDeviceInfo@DDDriverInfo@DeviceManager@@V?$allocator@VD3DDeviceInfo@DDDriverInfo@DeviceManager@@@std@@@std@@IAEPAVD3DDeviceInfo@DDDriverInfo@DeviceManager@@PAV234@00@Z ; std::vector<DeviceManager::DDDriverInfo::D3DDeviceInfo,std::allocator<DeviceManager::DDDriverInfo::D3DDeviceInfo> >::_Umove<DeviceManager::DDDriverInfo::D3DDeviceInfo *>
PUBLIC	??$_Destroy_range@U?$_Wrap_alloc@V?$allocator@U_DDSURFACEDESC2@@@std@@@std@@@std@@YAXPAU_DDSURFACEDESC2@@0AAU?$_Wrap_alloc@V?$allocator@U_DDSURFACEDESC2@@@std@@@0@@Z ; std::_Destroy_range<std::_Wrap_alloc<std::allocator<_DDSURFACEDESC2> > >
PUBLIC	??$_Umove@PAU_DDSURFACEDESC2@@@?$vector@U_DDSURFACEDESC2@@V?$allocator@U_DDSURFACEDESC2@@@std@@@std@@IAEPAU_DDSURFACEDESC2@@PAU2@00@Z ; std::vector<_DDSURFACEDESC2,std::allocator<_DDSURFACEDESC2> >::_Umove<_DDSURFACEDESC2 *>
PUBLIC	??$_Umove@PAVDDDriverInfo@DeviceManager@@@?$vector@VDDDriverInfo@DeviceManager@@V?$allocator@VDDDriverInfo@DeviceManager@@@std@@@std@@IAEPAVDDDriverInfo@DeviceManager@@PAV23@00@Z ; std::vector<DeviceManager::DDDriverInfo,std::allocator<DeviceManager::DDDriverInfo> >::_Umove<DeviceManager::DDDriverInfo *>
PUBLIC	??$_Umove@PAU_DDPIXELFORMAT@@@?$vector@U_DDPIXELFORMAT@@V?$allocator@U_DDPIXELFORMAT@@@std@@@std@@IAEPAU_DDPIXELFORMAT@@PAU2@00@Z ; std::vector<_DDPIXELFORMAT,std::allocator<_DDPIXELFORMAT> >::_Umove<_DDPIXELFORMAT *>
PUBLIC	??$_Allocate@VD3DDeviceInfo@DDDriverInfo@DeviceManager@@@std@@YAPAVD3DDeviceInfo@DDDriverInfo@DeviceManager@@IPAV123@@Z ; std::_Allocate<DeviceManager::DDDriverInfo::D3DDeviceInfo>
PUBLIC	??$_Allocate@U_DDSURFACEDESC2@@@std@@YAPAU_DDSURFACEDESC2@@IPAU1@@Z ; std::_Allocate<_DDSURFACEDESC2>
PUBLIC	??$_Allocate@VDDDriverInfo@DeviceManager@@@std@@YAPAVDDDriverInfo@DeviceManager@@IPAV12@@Z ; std::_Allocate<DeviceManager::DDDriverInfo>
PUBLIC	??$_Allocate@U_DDPIXELFORMAT@@@std@@YAPAU_DDPIXELFORMAT@@IPAU1@@Z ; std::_Allocate<_DDPIXELFORMAT>
PUBLIC	??$_Allocate@D@std@@YAPADIPAD@Z			; std::_Allocate<char>
PUBLIC	??$_QueryInterface@V?$_com_ptr_t@V?$_com_IIID@UIDirectDraw@@$1?IID_IDirectDraw@@3U_GUID@@B@@@@@?$_com_ptr_t@V?$_com_IIID@UIDirect3D7@@$1?IID_IDirect3D7@@3U_GUID@@B@@@@AAEJV?$_com_ptr_t@V?$_com_IIID@UIDirectDraw@@$1?IID_IDirectDraw@@3U_GUID@@B@@@@@Z ; _com_ptr_t<_com_IIID<IDirect3D7,&IID_IDirect3D7> >::_QueryInterface<_com_ptr_t<_com_IIID<IDirectDraw,&IID_IDirectDraw> > >
PUBLIC	??$_QueryInterface@V?$_com_ptr_t@V?$_com_IIID@UIDirectDraw@@$1?IID_IDirectDraw@@3U_GUID@@B@@@@@?$_com_ptr_t@V?$_com_IIID@UIDirectDraw7@@$1?IID_IDirectDraw7@@3U_GUID@@B@@@@AAEJV?$_com_ptr_t@V?$_com_IIID@UIDirectDraw@@$1?IID_IDirectDraw@@3U_GUID@@B@@@@@Z ; _com_ptr_t<_com_IIID<IDirectDraw7,&IID_IDirectDraw7> >::_QueryInterface<_com_ptr_t<_com_IIID<IDirectDraw,&IID_IDirectDraw> > >
PUBLIC	??$construct@VD3DDeviceInfo@DDDriverInfo@DeviceManager@@V123@@?$allocator_traits@V?$allocator@VD3DDeviceInfo@DDDriverInfo@DeviceManager@@@std@@@std@@SAXAAV?$allocator@VD3DDeviceInfo@DDDriverInfo@DeviceManager@@@1@PAVD3DDeviceInfo@DDDriverInfo@DeviceManager@@$$QAV345@@Z ; std::allocator_traits<std::allocator<DeviceManager::DDDriverInfo::D3DDeviceInfo> >::construct<DeviceManager::DDDriverInfo::D3DDeviceInfo,DeviceManager::DDDriverInfo::D3DDeviceInfo>
PUBLIC	??$forward@AAU_DDSURFACEDESC2@@@std@@YAAAU_DDSURFACEDESC2@@AAU1@@Z ; std::forward<_DDSURFACEDESC2 &>
PUBLIC	??$construct@U_DDSURFACEDESC2@@AAU1@@?$allocator_traits@V?$allocator@U_DDSURFACEDESC2@@@std@@@std@@SAXAAV?$allocator@U_DDSURFACEDESC2@@@1@PAU_DDSURFACEDESC2@@AAU3@@Z ; std::allocator_traits<std::allocator<_DDSURFACEDESC2> >::construct<_DDSURFACEDESC2,_DDSURFACEDESC2 &>
PUBLIC	??$forward@ABU_DDSURFACEDESC2@@@std@@YAABU_DDSURFACEDESC2@@ABU1@@Z ; std::forward<_DDSURFACEDESC2 const &>
PUBLIC	??$construct@U_DDSURFACEDESC2@@ABU1@@?$allocator_traits@V?$allocator@U_DDSURFACEDESC2@@@std@@@std@@SAXAAV?$allocator@U_DDSURFACEDESC2@@@1@PAU_DDSURFACEDESC2@@ABU3@@Z ; std::allocator_traits<std::allocator<_DDSURFACEDESC2> >::construct<_DDSURFACEDESC2,_DDSURFACEDESC2 const &>
PUBLIC	??$construct@VDDDriverInfo@DeviceManager@@V12@@?$allocator_traits@V?$allocator@VDDDriverInfo@DeviceManager@@@std@@@std@@SAXAAV?$allocator@VDDDriverInfo@DeviceManager@@@1@PAVDDDriverInfo@DeviceManager@@$$QAV34@@Z ; std::allocator_traits<std::allocator<DeviceManager::DDDriverInfo> >::construct<DeviceManager::DDDriverInfo,DeviceManager::DDDriverInfo>
PUBLIC	??$forward@AAU_DDPIXELFORMAT@@@std@@YAAAU_DDPIXELFORMAT@@AAU1@@Z ; std::forward<_DDPIXELFORMAT &>
PUBLIC	??$construct@U_DDPIXELFORMAT@@AAU1@@?$allocator_traits@V?$allocator@U_DDPIXELFORMAT@@@std@@@std@@SAXAAV?$allocator@U_DDPIXELFORMAT@@@1@PAU_DDPIXELFORMAT@@AAU3@@Z ; std::allocator_traits<std::allocator<_DDPIXELFORMAT> >::construct<_DDPIXELFORMAT,_DDPIXELFORMAT &>
PUBLIC	??$forward@ABU_DDPIXELFORMAT@@@std@@YAABU_DDPIXELFORMAT@@ABU1@@Z ; std::forward<_DDPIXELFORMAT const &>
PUBLIC	??$construct@U_DDPIXELFORMAT@@ABU1@@?$allocator_traits@V?$allocator@U_DDPIXELFORMAT@@@std@@@std@@SAXAAV?$allocator@U_DDPIXELFORMAT@@@1@PAU_DDPIXELFORMAT@@ABU3@@Z ; std::allocator_traits<std::allocator<_DDPIXELFORMAT> >::construct<_DDPIXELFORMAT,_DDPIXELFORMAT const &>
PUBLIC	??$forward@AAPAD@std@@YAAAPADAAPAD@Z		; std::forward<char * &>
PUBLIC	??$construct@PADAAPAD@?$allocator_traits@V?$allocator@D@std@@@std@@SAXAAV?$allocator@D@1@PAPADAAPAD@Z ; std::allocator_traits<std::allocator<char> >::construct<char *,char * &>
PUBLIC	??$destroy@PAD@?$allocator_traits@V?$allocator@D@std@@@std@@SAXAAV?$allocator@D@1@PAPAD@Z ; std::allocator_traits<std::allocator<char> >::destroy<char *>
PUBLIC	??$_Ptr_cat@VD3DDeviceInfo@DDDriverInfo@DeviceManager@@V123@@std@@YA?AU_Nonscalar_ptr_iterator_tag@0@PAVD3DDeviceInfo@DDDriverInfo@DeviceManager@@0@Z ; std::_Ptr_cat<DeviceManager::DDDriverInfo::D3DDeviceInfo,DeviceManager::DDDriverInfo::D3DDeviceInfo>
PUBLIC	??$_Destroy_range@U?$_Wrap_alloc@V?$allocator@VD3DDeviceInfo@DDDriverInfo@DeviceManager@@@std@@@std@@@std@@YAXPAVD3DDeviceInfo@DDDriverInfo@DeviceManager@@0AAU?$_Wrap_alloc@V?$allocator@VD3DDeviceInfo@DDDriverInfo@DeviceManager@@@std@@@0@U_Nonscalar_ptr_iterator_tag@0@@Z ; std::_Destroy_range<std::_Wrap_alloc<std::allocator<DeviceManager::DDDriverInfo::D3DDeviceInfo> > >
PUBLIC	??$_Ptr_cat@VDDDriverInfo@DeviceManager@@V12@@std@@YA?AU_Nonscalar_ptr_iterator_tag@0@PAVDDDriverInfo@DeviceManager@@0@Z ; std::_Ptr_cat<DeviceManager::DDDriverInfo,DeviceManager::DDDriverInfo>
PUBLIC	??$_Destroy_range@U?$_Wrap_alloc@V?$allocator@VDDDriverInfo@DeviceManager@@@std@@@std@@@std@@YAXPAVDDDriverInfo@DeviceManager@@0AAU?$_Wrap_alloc@V?$allocator@VDDDriverInfo@DeviceManager@@@std@@@0@U_Nonscalar_ptr_iterator_tag@0@@Z ; std::_Destroy_range<std::_Wrap_alloc<std::allocator<DeviceManager::DDDriverInfo> > >
PUBLIC	??$_Ptr_cat@U_DDPIXELFORMAT@@U1@@std@@YA?AU_Nonscalar_ptr_iterator_tag@0@PAU_DDPIXELFORMAT@@0@Z ; std::_Ptr_cat<_DDPIXELFORMAT,_DDPIXELFORMAT>
PUBLIC	??$_Destroy_range@U?$_Wrap_alloc@V?$allocator@U_DDPIXELFORMAT@@@std@@@std@@@std@@YAXPAU_DDPIXELFORMAT@@0AAU?$_Wrap_alloc@V?$allocator@U_DDPIXELFORMAT@@@std@@@0@U_Nonscalar_ptr_iterator_tag@0@@Z ; std::_Destroy_range<std::_Wrap_alloc<std::allocator<_DDPIXELFORMAT> > >
PUBLIC	??$_Uninitialized_move@PAVD3DDeviceInfo@DDDriverInfo@DeviceManager@@PAV123@U?$_Wrap_alloc@V?$allocator@VD3DDeviceInfo@DDDriverInfo@DeviceManager@@@std@@@std@@@std@@YAPAVD3DDeviceInfo@DDDriverInfo@DeviceManager@@PAV123@00AAU?$_Wrap_alloc@V?$allocator@VD3DDeviceInfo@DDDriverInfo@DeviceManager@@@std@@@0@@Z ; std::_Uninitialized_move<DeviceManager::DDDriverInfo::D3DDeviceInfo *,DeviceManager::DDDriverInfo::D3DDeviceInfo *,std::_Wrap_alloc<std::allocator<DeviceManager::DDDriverInfo::D3DDeviceInfo> > >
PUBLIC	??$_Ptr_cat@U_DDSURFACEDESC2@@U1@@std@@YA?AU_Nonscalar_ptr_iterator_tag@0@PAU_DDSURFACEDESC2@@0@Z ; std::_Ptr_cat<_DDSURFACEDESC2,_DDSURFACEDESC2>
PUBLIC	??$_Destroy_range@U?$_Wrap_alloc@V?$allocator@U_DDSURFACEDESC2@@@std@@@std@@@std@@YAXPAU_DDSURFACEDESC2@@0AAU?$_Wrap_alloc@V?$allocator@U_DDSURFACEDESC2@@@std@@@0@U_Nonscalar_ptr_iterator_tag@0@@Z ; std::_Destroy_range<std::_Wrap_alloc<std::allocator<_DDSURFACEDESC2> > >
PUBLIC	??$_Uninitialized_move@PAU_DDSURFACEDESC2@@PAU1@U?$_Wrap_alloc@V?$allocator@U_DDSURFACEDESC2@@@std@@@std@@@std@@YAPAU_DDSURFACEDESC2@@PAU1@00AAU?$_Wrap_alloc@V?$allocator@U_DDSURFACEDESC2@@@std@@@0@@Z ; std::_Uninitialized_move<_DDSURFACEDESC2 *,_DDSURFACEDESC2 *,std::_Wrap_alloc<std::allocator<_DDSURFACEDESC2> > >
PUBLIC	??$_Uninitialized_move@PAVDDDriverInfo@DeviceManager@@PAV12@U?$_Wrap_alloc@V?$allocator@VDDDriverInfo@DeviceManager@@@std@@@std@@@std@@YAPAVDDDriverInfo@DeviceManager@@PAV12@00AAU?$_Wrap_alloc@V?$allocator@VDDDriverInfo@DeviceManager@@@std@@@0@@Z ; std::_Uninitialized_move<DeviceManager::DDDriverInfo *,DeviceManager::DDDriverInfo *,std::_Wrap_alloc<std::allocator<DeviceManager::DDDriverInfo> > >
PUBLIC	??$_Uninitialized_move@PAU_DDPIXELFORMAT@@PAU1@U?$_Wrap_alloc@V?$allocator@U_DDPIXELFORMAT@@@std@@@std@@@std@@YAPAU_DDPIXELFORMAT@@PAU1@00AAU?$_Wrap_alloc@V?$allocator@U_DDPIXELFORMAT@@@std@@@0@@Z ; std::_Uninitialized_move<_DDPIXELFORMAT *,_DDPIXELFORMAT *,std::_Wrap_alloc<std::allocator<_DDPIXELFORMAT> > >
PUBLIC	??$construct@VD3DDeviceInfo@DDDriverInfo@DeviceManager@@V123@@?$allocator@VD3DDeviceInfo@DDDriverInfo@DeviceManager@@@std@@QAEXPAVD3DDeviceInfo@DDDriverInfo@DeviceManager@@$$QAV234@@Z ; std::allocator<DeviceManager::DDDriverInfo::D3DDeviceInfo>::construct<DeviceManager::DDDriverInfo::D3DDeviceInfo,DeviceManager::DDDriverInfo::D3DDeviceInfo>
PUBLIC	??$construct@U_DDSURFACEDESC2@@AAU1@@?$allocator@U_DDSURFACEDESC2@@@std@@QAEXPAU_DDSURFACEDESC2@@AAU2@@Z ; std::allocator<_DDSURFACEDESC2>::construct<_DDSURFACEDESC2,_DDSURFACEDESC2 &>
PUBLIC	??$construct@VDDDriverInfo@DeviceManager@@V12@@?$allocator@VDDDriverInfo@DeviceManager@@@std@@QAEXPAVDDDriverInfo@DeviceManager@@$$QAV23@@Z ; std::allocator<DeviceManager::DDDriverInfo>::construct<DeviceManager::DDDriverInfo,DeviceManager::DDDriverInfo>
PUBLIC	??$construct@U_DDPIXELFORMAT@@AAU1@@?$allocator@U_DDPIXELFORMAT@@@std@@QAEXPAU_DDPIXELFORMAT@@AAU2@@Z ; std::allocator<_DDPIXELFORMAT>::construct<_DDPIXELFORMAT,_DDPIXELFORMAT &>
PUBLIC	??$construct@PADAAPAD@?$allocator@D@std@@QAEXPAPADAAPAD@Z ; std::allocator<char>::construct<char *,char * &>
PUBLIC	??$destroy@PAD@?$allocator@D@std@@QAEXPAPAD@Z	; std::allocator<char>::destroy<char *>
PUBLIC	??$destroy@VD3DDeviceInfo@DDDriverInfo@DeviceManager@@@?$_Wrap_alloc@V?$allocator@VD3DDeviceInfo@DDDriverInfo@DeviceManager@@@std@@@std@@QAEXPAVD3DDeviceInfo@DDDriverInfo@DeviceManager@@@Z ; std::_Wrap_alloc<std::allocator<DeviceManager::DDDriverInfo::D3DDeviceInfo> >::destroy<DeviceManager::DDDriverInfo::D3DDeviceInfo>
PUBLIC	??$destroy@VDDDriverInfo@DeviceManager@@@?$_Wrap_alloc@V?$allocator@VDDDriverInfo@DeviceManager@@@std@@@std@@QAEXPAVDDDriverInfo@DeviceManager@@@Z ; std::_Wrap_alloc<std::allocator<DeviceManager::DDDriverInfo> >::destroy<DeviceManager::DDDriverInfo>
PUBLIC	??$destroy@U_DDPIXELFORMAT@@@?$_Wrap_alloc@V?$allocator@U_DDPIXELFORMAT@@@std@@@std@@QAEXPAU_DDPIXELFORMAT@@@Z ; std::_Wrap_alloc<std::allocator<_DDPIXELFORMAT> >::destroy<_DDPIXELFORMAT>
PUBLIC	??$_Val_type@PAVD3DDeviceInfo@DDDriverInfo@DeviceManager@@@std@@YAPAVD3DDeviceInfo@DDDriverInfo@DeviceManager@@PAV123@@Z ; std::_Val_type<DeviceManager::DDDriverInfo::D3DDeviceInfo *>
PUBLIC	??$_Uninit_move@PAVD3DDeviceInfo@DDDriverInfo@DeviceManager@@PAV123@V?$allocator@VD3DDeviceInfo@DDDriverInfo@DeviceManager@@@std@@V123@@std@@YAPAVD3DDeviceInfo@DDDriverInfo@DeviceManager@@PAV123@00AAU?$_Wrap_alloc@V?$allocator@VD3DDeviceInfo@DDDriverInfo@DeviceManager@@@std@@@0@0U_Nonscalar_ptr_iterator_tag@0@@Z ; std::_Uninit_move<DeviceManager::DDDriverInfo::D3DDeviceInfo *,DeviceManager::DDDriverInfo::D3DDeviceInfo *,std::allocator<DeviceManager::DDDriverInfo::D3DDeviceInfo>,DeviceManager::DDDriverInfo::D3DDeviceInfo>
PUBLIC	??$destroy@U_DDSURFACEDESC2@@@?$_Wrap_alloc@V?$allocator@U_DDSURFACEDESC2@@@std@@@std@@QAEXPAU_DDSURFACEDESC2@@@Z ; std::_Wrap_alloc<std::allocator<_DDSURFACEDESC2> >::destroy<_DDSURFACEDESC2>
PUBLIC	??$_Val_type@PAU_DDSURFACEDESC2@@@std@@YAPAU_DDSURFACEDESC2@@PAU1@@Z ; std::_Val_type<_DDSURFACEDESC2 *>
PUBLIC	??$_Uninit_move@PAU_DDSURFACEDESC2@@PAU1@V?$allocator@U_DDSURFACEDESC2@@@std@@U1@@std@@YAPAU_DDSURFACEDESC2@@PAU1@00AAU?$_Wrap_alloc@V?$allocator@U_DDSURFACEDESC2@@@std@@@0@0U_Nonscalar_ptr_iterator_tag@0@@Z ; std::_Uninit_move<_DDSURFACEDESC2 *,_DDSURFACEDESC2 *,std::allocator<_DDSURFACEDESC2>,_DDSURFACEDESC2>
PUBLIC	??$_Val_type@PAVDDDriverInfo@DeviceManager@@@std@@YAPAVDDDriverInfo@DeviceManager@@PAV12@@Z ; std::_Val_type<DeviceManager::DDDriverInfo *>
PUBLIC	??$_Uninit_move@PAVDDDriverInfo@DeviceManager@@PAV12@V?$allocator@VDDDriverInfo@DeviceManager@@@std@@V12@@std@@YAPAVDDDriverInfo@DeviceManager@@PAV12@00AAU?$_Wrap_alloc@V?$allocator@VDDDriverInfo@DeviceManager@@@std@@@0@0U_Nonscalar_ptr_iterator_tag@0@@Z ; std::_Uninit_move<DeviceManager::DDDriverInfo *,DeviceManager::DDDriverInfo *,std::allocator<DeviceManager::DDDriverInfo>,DeviceManager::DDDriverInfo>
PUBLIC	??$_Val_type@PAU_DDPIXELFORMAT@@@std@@YAPAU_DDPIXELFORMAT@@PAU1@@Z ; std::_Val_type<_DDPIXELFORMAT *>
PUBLIC	??$_Uninit_move@PAU_DDPIXELFORMAT@@PAU1@V?$allocator@U_DDPIXELFORMAT@@@std@@U1@@std@@YAPAU_DDPIXELFORMAT@@PAU1@00AAU?$_Wrap_alloc@V?$allocator@U_DDPIXELFORMAT@@@std@@@0@0U_Nonscalar_ptr_iterator_tag@0@@Z ; std::_Uninit_move<_DDPIXELFORMAT *,_DDPIXELFORMAT *,std::allocator<_DDPIXELFORMAT>,_DDPIXELFORMAT>
PUBLIC	??$destroy@VD3DDeviceInfo@DDDriverInfo@DeviceManager@@@?$allocator_traits@V?$allocator@VD3DDeviceInfo@DDDriverInfo@DeviceManager@@@std@@@std@@SAXAAV?$allocator@VD3DDeviceInfo@DDDriverInfo@DeviceManager@@@1@PAVD3DDeviceInfo@DDDriverInfo@DeviceManager@@@Z ; std::allocator_traits<std::allocator<DeviceManager::DDDriverInfo::D3DDeviceInfo> >::destroy<DeviceManager::DDDriverInfo::D3DDeviceInfo>
PUBLIC	??$destroy@VDDDriverInfo@DeviceManager@@@?$allocator_traits@V?$allocator@VDDDriverInfo@DeviceManager@@@std@@@std@@SAXAAV?$allocator@VDDDriverInfo@DeviceManager@@@1@PAVDDDriverInfo@DeviceManager@@@Z ; std::allocator_traits<std::allocator<DeviceManager::DDDriverInfo> >::destroy<DeviceManager::DDDriverInfo>
PUBLIC	??$destroy@U_DDPIXELFORMAT@@@?$allocator_traits@V?$allocator@U_DDPIXELFORMAT@@@std@@@std@@SAXAAV?$allocator@U_DDPIXELFORMAT@@@1@PAU_DDPIXELFORMAT@@@Z ; std::allocator_traits<std::allocator<_DDPIXELFORMAT> >::destroy<_DDPIXELFORMAT>
PUBLIC	??$destroy@U_DDSURFACEDESC2@@@?$allocator_traits@V?$allocator@U_DDSURFACEDESC2@@@std@@@std@@SAXAAV?$allocator@U_DDSURFACEDESC2@@@1@PAU_DDSURFACEDESC2@@@Z ; std::allocator_traits<std::allocator<_DDSURFACEDESC2> >::destroy<_DDSURFACEDESC2>
PUBLIC	??$construct@U_DDSURFACEDESC2@@U1@@?$_Wrap_alloc@V?$allocator@U_DDSURFACEDESC2@@@std@@@std@@QAEXPAU_DDSURFACEDESC2@@$$QAU2@@Z ; std::_Wrap_alloc<std::allocator<_DDSURFACEDESC2> >::construct<_DDSURFACEDESC2,_DDSURFACEDESC2>
PUBLIC	??$construct@U_DDPIXELFORMAT@@U1@@?$_Wrap_alloc@V?$allocator@U_DDPIXELFORMAT@@@std@@@std@@QAEXPAU_DDPIXELFORMAT@@$$QAU2@@Z ; std::_Wrap_alloc<std::allocator<_DDPIXELFORMAT> >::construct<_DDPIXELFORMAT,_DDPIXELFORMAT>
PUBLIC	??0?$_Vector_const_iterator@V?$_Vector_val@U?$_Simple_types@VD3DDeviceInfo@DDDriverInfo@DeviceManager@@@std@@@std@@@std@@QAE@PAVD3DDeviceInfo@DDDriverInfo@DeviceManager@@PBU_Container_base0@1@@Z ; std::_Vector_const_iterator<std::_Vector_val<std::_Simple_types<DeviceManager::DDDriverInfo::D3DDeviceInfo> > >::_Vector_const_iterator<std::_Vector_val<std::_Simple_types<DeviceManager::DDDriverInfo::D3DDeviceInfo> > >
PUBLIC	??D?$_Vector_const_iterator@V?$_Vector_val@U?$_Simple_types@VD3DDeviceInfo@DDDriverInfo@DeviceManager@@@std@@@std@@@std@@QBEABVD3DDeviceInfo@DDDriverInfo@DeviceManager@@XZ ; std::_Vector_const_iterator<std::_Vector_val<std::_Simple_types<DeviceManager::DDDriverInfo::D3DDeviceInfo> > >::operator*
PUBLIC	??E?$_Vector_const_iterator@V?$_Vector_val@U?$_Simple_types@VD3DDeviceInfo@DDDriverInfo@DeviceManager@@@std@@@std@@@std@@QAEAAV01@XZ ; std::_Vector_const_iterator<std::_Vector_val<std::_Simple_types<DeviceManager::DDDriverInfo::D3DDeviceInfo> > >::operator++
PUBLIC	??8?$_Vector_const_iterator@V?$_Vector_val@U?$_Simple_types@VD3DDeviceInfo@DDDriverInfo@DeviceManager@@@std@@@std@@@std@@QBE_NABV01@@Z ; std::_Vector_const_iterator<std::_Vector_val<std::_Simple_types<DeviceManager::DDDriverInfo::D3DDeviceInfo> > >::operator==
PUBLIC	??9?$_Vector_const_iterator@V?$_Vector_val@U?$_Simple_types@VD3DDeviceInfo@DDDriverInfo@DeviceManager@@@std@@@std@@@std@@QBE_NABV01@@Z ; std::_Vector_const_iterator<std::_Vector_val<std::_Simple_types<DeviceManager::DDDriverInfo::D3DDeviceInfo> > >::operator!=
PUBLIC	?_Compat@?$_Vector_const_iterator@V?$_Vector_val@U?$_Simple_types@VD3DDeviceInfo@DDDriverInfo@DeviceManager@@@std@@@std@@@std@@QBEXABV12@@Z ; std::_Vector_const_iterator<std::_Vector_val<std::_Simple_types<DeviceManager::DDDriverInfo::D3DDeviceInfo> > >::_Compat
PUBLIC	??$_Ucopy@V?$_Vector_const_iterator@V?$_Vector_val@U?$_Simple_types@VD3DDeviceInfo@DDDriverInfo@DeviceManager@@@std@@@std@@@std@@@?$vector@VD3DDeviceInfo@DDDriverInfo@DeviceManager@@V?$allocator@VD3DDeviceInfo@DDDriverInfo@DeviceManager@@@std@@@std@@IAEPAVD3DDeviceInfo@DDDriverInfo@DeviceManager@@V?$_Vector_const_iterator@V?$_Vector_val@U?$_Simple_types@VD3DDeviceInfo@DDDriverInfo@DeviceManager@@@std@@@std@@@1@0PAV234@@Z ; std::vector<DeviceManager::DDDriverInfo::D3DDeviceInfo,std::allocator<DeviceManager::DDDriverInfo::D3DDeviceInfo> >::_Ucopy<std::_Vector_const_iterator<std::_Vector_val<std::_Simple_types<DeviceManager::DDDriverInfo::D3DDeviceInfo> > > >
PUBLIC	??0?$_Vector_const_iterator@V?$_Vector_val@U?$_Simple_types@U_DDSURFACEDESC2@@@std@@@std@@@std@@QAE@PAU_DDSURFACEDESC2@@PBU_Container_base0@1@@Z ; std::_Vector_const_iterator<std::_Vector_val<std::_Simple_types<_DDSURFACEDESC2> > >::_Vector_const_iterator<std::_Vector_val<std::_Simple_types<_DDSURFACEDESC2> > >
PUBLIC	??D?$_Vector_const_iterator@V?$_Vector_val@U?$_Simple_types@U_DDSURFACEDESC2@@@std@@@std@@@std@@QBEABU_DDSURFACEDESC2@@XZ ; std::_Vector_const_iterator<std::_Vector_val<std::_Simple_types<_DDSURFACEDESC2> > >::operator*
PUBLIC	??E?$_Vector_const_iterator@V?$_Vector_val@U?$_Simple_types@U_DDSURFACEDESC2@@@std@@@std@@@std@@QAEAAV01@XZ ; std::_Vector_const_iterator<std::_Vector_val<std::_Simple_types<_DDSURFACEDESC2> > >::operator++
PUBLIC	??8?$_Vector_const_iterator@V?$_Vector_val@U?$_Simple_types@U_DDSURFACEDESC2@@@std@@@std@@@std@@QBE_NABV01@@Z ; std::_Vector_const_iterator<std::_Vector_val<std::_Simple_types<_DDSURFACEDESC2> > >::operator==
PUBLIC	??9?$_Vector_const_iterator@V?$_Vector_val@U?$_Simple_types@U_DDSURFACEDESC2@@@std@@@std@@@std@@QBE_NABV01@@Z ; std::_Vector_const_iterator<std::_Vector_val<std::_Simple_types<_DDSURFACEDESC2> > >::operator!=
PUBLIC	?_Compat@?$_Vector_const_iterator@V?$_Vector_val@U?$_Simple_types@U_DDSURFACEDESC2@@@std@@@std@@@std@@QBEXABV12@@Z ; std::_Vector_const_iterator<std::_Vector_val<std::_Simple_types<_DDSURFACEDESC2> > >::_Compat
PUBLIC	??$_Ucopy@V?$_Vector_const_iterator@V?$_Vector_val@U?$_Simple_types@U_DDSURFACEDESC2@@@std@@@std@@@std@@@?$vector@U_DDSURFACEDESC2@@V?$allocator@U_DDSURFACEDESC2@@@std@@@std@@IAEPAU_DDSURFACEDESC2@@V?$_Vector_const_iterator@V?$_Vector_val@U?$_Simple_types@U_DDSURFACEDESC2@@@std@@@std@@@1@0PAU2@@Z ; std::vector<_DDSURFACEDESC2,std::allocator<_DDSURFACEDESC2> >::_Ucopy<std::_Vector_const_iterator<std::_Vector_val<std::_Simple_types<_DDSURFACEDESC2> > > >
PUBLIC	??$destroy@VD3DDeviceInfo@DDDriverInfo@DeviceManager@@@?$allocator@VD3DDeviceInfo@DDDriverInfo@DeviceManager@@@std@@QAEXPAVD3DDeviceInfo@DDDriverInfo@DeviceManager@@@Z ; std::allocator<DeviceManager::DDDriverInfo::D3DDeviceInfo>::destroy<DeviceManager::DDDriverInfo::D3DDeviceInfo>
PUBLIC	??$destroy@VDDDriverInfo@DeviceManager@@@?$allocator@VDDDriverInfo@DeviceManager@@@std@@QAEXPAVDDDriverInfo@DeviceManager@@@Z ; std::allocator<DeviceManager::DDDriverInfo>::destroy<DeviceManager::DDDriverInfo>
PUBLIC	??$destroy@U_DDPIXELFORMAT@@@?$allocator@U_DDPIXELFORMAT@@@std@@QAEXPAU_DDPIXELFORMAT@@@Z ; std::allocator<_DDPIXELFORMAT>::destroy<_DDPIXELFORMAT>
PUBLIC	??$destroy@U_DDSURFACEDESC2@@@?$allocator@U_DDSURFACEDESC2@@@std@@QAEXPAU_DDSURFACEDESC2@@@Z ; std::allocator<_DDSURFACEDESC2>::destroy<_DDSURFACEDESC2>
PUBLIC	??$forward@U_DDSURFACEDESC2@@@std@@YA$$QAU_DDSURFACEDESC2@@AAU1@@Z ; std::forward<_DDSURFACEDESC2>
PUBLIC	??$construct@U_DDSURFACEDESC2@@U1@@?$allocator_traits@V?$allocator@U_DDSURFACEDESC2@@@std@@@std@@SAXAAV?$allocator@U_DDSURFACEDESC2@@@1@PAU_DDSURFACEDESC2@@$$QAU3@@Z ; std::allocator_traits<std::allocator<_DDSURFACEDESC2> >::construct<_DDSURFACEDESC2,_DDSURFACEDESC2>
PUBLIC	??$forward@U_DDPIXELFORMAT@@@std@@YA$$QAU_DDPIXELFORMAT@@AAU1@@Z ; std::forward<_DDPIXELFORMAT>
PUBLIC	??$construct@U_DDPIXELFORMAT@@U1@@?$allocator_traits@V?$allocator@U_DDPIXELFORMAT@@@std@@@std@@SAXAAV?$allocator@U_DDPIXELFORMAT@@@1@PAU_DDPIXELFORMAT@@$$QAU3@@Z ; std::allocator_traits<std::allocator<_DDPIXELFORMAT> >::construct<_DDPIXELFORMAT,_DDPIXELFORMAT>
PUBLIC	??$_Uninitialized_copy@V?$_Vector_const_iterator@V?$_Vector_val@U?$_Simple_types@VD3DDeviceInfo@DDDriverInfo@DeviceManager@@@std@@@std@@@std@@PAVD3DDeviceInfo@DDDriverInfo@DeviceManager@@U?$_Wrap_alloc@V?$allocator@VD3DDeviceInfo@DDDriverInfo@DeviceManager@@@std@@@2@@std@@YAPAVD3DDeviceInfo@DDDriverInfo@DeviceManager@@V?$_Vector_const_iterator@V?$_Vector_val@U?$_Simple_types@VD3DDeviceInfo@DDDriverInfo@DeviceManager@@@std@@@std@@@0@0PAV123@AAU?$_Wrap_alloc@V?$allocator@VD3DDeviceInfo@DDDriverInfo@DeviceManager@@@std@@@0@@Z ; std::_Uninitialized_copy<std::_Vector_const_iterator<std::_Vector_val<std::_Simple_types<DeviceManager::DDDriverInfo::D3DDeviceInfo> > >,DeviceManager::DDDriverInfo::D3DDeviceInfo *,std::_Wrap_alloc<std::allocator<DeviceManager::DDDriverInfo::D3DDeviceInfo> > >
PUBLIC	??$_Uninitialized_copy@V?$_Vector_const_iterator@V?$_Vector_val@U?$_Simple_types@U_DDSURFACEDESC2@@@std@@@std@@@std@@PAU_DDSURFACEDESC2@@U?$_Wrap_alloc@V?$allocator@U_DDSURFACEDESC2@@@std@@@2@@std@@YAPAU_DDSURFACEDESC2@@V?$_Vector_const_iterator@V?$_Vector_val@U?$_Simple_types@U_DDSURFACEDESC2@@@std@@@std@@@0@0PAU1@AAU?$_Wrap_alloc@V?$allocator@U_DDSURFACEDESC2@@@std@@@0@@Z ; std::_Uninitialized_copy<std::_Vector_const_iterator<std::_Vector_val<std::_Simple_types<_DDSURFACEDESC2> > >,_DDSURFACEDESC2 *,std::_Wrap_alloc<std::allocator<_DDSURFACEDESC2> > >
PUBLIC	??$construct@U_DDSURFACEDESC2@@U1@@?$allocator@U_DDSURFACEDESC2@@@std@@QAEXPAU_DDSURFACEDESC2@@$$QAU2@@Z ; std::allocator<_DDSURFACEDESC2>::construct<_DDSURFACEDESC2,_DDSURFACEDESC2>
PUBLIC	??$construct@U_DDPIXELFORMAT@@U1@@?$allocator@U_DDPIXELFORMAT@@@std@@QAEXPAU_DDPIXELFORMAT@@$$QAU2@@Z ; std::allocator<_DDPIXELFORMAT>::construct<_DDPIXELFORMAT,_DDPIXELFORMAT>
PUBLIC	??$_Ptr_cat@V?$_Vector_const_iterator@V?$_Vector_val@U?$_Simple_types@VD3DDeviceInfo@DDDriverInfo@DeviceManager@@@std@@@std@@@std@@PAVD3DDeviceInfo@DDDriverInfo@DeviceManager@@@std@@YA?AU_Nonscalar_ptr_iterator_tag@0@AAV?$_Vector_const_iterator@V?$_Vector_val@U?$_Simple_types@VD3DDeviceInfo@DDDriverInfo@DeviceManager@@@std@@@std@@@0@AAPAVD3DDeviceInfo@DDDriverInfo@DeviceManager@@@Z ; std::_Ptr_cat<std::_Vector_const_iterator<std::_Vector_val<std::_Simple_types<DeviceManager::DDDriverInfo::D3DDeviceInfo> > >,DeviceManager::DDDriverInfo::D3DDeviceInfo *>
PUBLIC	??$_Uninit_copy@V?$_Vector_const_iterator@V?$_Vector_val@U?$_Simple_types@VD3DDeviceInfo@DDDriverInfo@DeviceManager@@@std@@@std@@@std@@PAVD3DDeviceInfo@DDDriverInfo@DeviceManager@@V?$allocator@VD3DDeviceInfo@DDDriverInfo@DeviceManager@@@2@@std@@YAPAVD3DDeviceInfo@DDDriverInfo@DeviceManager@@V?$_Vector_const_iterator@V?$_Vector_val@U?$_Simple_types@VD3DDeviceInfo@DDDriverInfo@DeviceManager@@@std@@@std@@@0@0PAV123@AAU?$_Wrap_alloc@V?$allocator@VD3DDeviceInfo@DDDriverInfo@DeviceManager@@@std@@@0@U_Nonscalar_ptr_iterator_tag@0@@Z ; std::_Uninit_copy<std::_Vector_const_iterator<std::_Vector_val<std::_Simple_types<DeviceManager::DDDriverInfo::D3DDeviceInfo> > >,DeviceManager::DDDriverInfo::D3DDeviceInfo *,std::allocator<DeviceManager::DDDriverInfo::D3DDeviceInfo> >
PUBLIC	??$_Ptr_cat@V?$_Vector_const_iterator@V?$_Vector_val@U?$_Simple_types@U_DDSURFACEDESC2@@@std@@@std@@@std@@PAU_DDSURFACEDESC2@@@std@@YA?AU_Nonscalar_ptr_iterator_tag@0@AAV?$_Vector_const_iterator@V?$_Vector_val@U?$_Simple_types@U_DDSURFACEDESC2@@@std@@@std@@@0@AAPAU_DDSURFACEDESC2@@@Z ; std::_Ptr_cat<std::_Vector_const_iterator<std::_Vector_val<std::_Simple_types<_DDSURFACEDESC2> > >,_DDSURFACEDESC2 *>
PUBLIC	??$_Uninit_copy@V?$_Vector_const_iterator@V?$_Vector_val@U?$_Simple_types@U_DDSURFACEDESC2@@@std@@@std@@@std@@PAU_DDSURFACEDESC2@@V?$allocator@U_DDSURFACEDESC2@@@2@@std@@YAPAU_DDSURFACEDESC2@@V?$_Vector_const_iterator@V?$_Vector_val@U?$_Simple_types@U_DDSURFACEDESC2@@@std@@@std@@@0@0PAU1@AAU?$_Wrap_alloc@V?$allocator@U_DDSURFACEDESC2@@@std@@@0@U_Nonscalar_ptr_iterator_tag@0@@Z ; std::_Uninit_copy<std::_Vector_const_iterator<std::_Vector_val<std::_Simple_types<_DDSURFACEDESC2> > >,_DDSURFACEDESC2 *,std::allocator<_DDSURFACEDESC2> >
PUBLIC	??$construct@VD3DDeviceInfo@DDDriverInfo@DeviceManager@@ABV123@@?$_Wrap_alloc@V?$allocator@VD3DDeviceInfo@DDDriverInfo@DeviceManager@@@std@@@std@@QAEXPAVD3DDeviceInfo@DDDriverInfo@DeviceManager@@ABV234@@Z ; std::_Wrap_alloc<std::allocator<DeviceManager::DDDriverInfo::D3DDeviceInfo> >::construct<DeviceManager::DDDriverInfo::D3DDeviceInfo,DeviceManager::DDDriverInfo::D3DDeviceInfo const &>
PUBLIC	??$forward@ABVD3DDeviceInfo@DDDriverInfo@DeviceManager@@@std@@YAABVD3DDeviceInfo@DDDriverInfo@DeviceManager@@ABV123@@Z ; std::forward<DeviceManager::DDDriverInfo::D3DDeviceInfo const &>
PUBLIC	??$construct@VD3DDeviceInfo@DDDriverInfo@DeviceManager@@ABV123@@?$allocator_traits@V?$allocator@VD3DDeviceInfo@DDDriverInfo@DeviceManager@@@std@@@std@@SAXAAV?$allocator@VD3DDeviceInfo@DDDriverInfo@DeviceManager@@@1@PAVD3DDeviceInfo@DDDriverInfo@DeviceManager@@ABV345@@Z ; std::allocator_traits<std::allocator<DeviceManager::DDDriverInfo::D3DDeviceInfo> >::construct<DeviceManager::DDDriverInfo::D3DDeviceInfo,DeviceManager::DDDriverInfo::D3DDeviceInfo const &>
PUBLIC	??_C@_00CNPNBAHC@?$AA@				; `string'
PUBLIC	??_7_com_error@@6B@				; _com_error::`vftable'
PUBLIC	??_7error_category@std@@6B@			; std::error_category::`vftable'
PUBLIC	??_7_Generic_error_category@std@@6B@		; std::_Generic_error_category::`vftable'
PUBLIC	??_C@_07DCLBNMLN@generic?$AA@			; `string'
PUBLIC	??_C@_0O@BFJCFAAK@unknown?5error?$AA@		; `string'
PUBLIC	??_7_Iostream_error_category@std@@6B@		; std::_Iostream_error_category::`vftable'
PUBLIC	??_C@_08LLGCOLLL@iostream?$AA@			; `string'
PUBLIC	??_C@_0BG@PADBLCHM@iostream?5stream?5error?$AA@	; `string'
PUBLIC	??_7_System_error_category@std@@6B@		; std::_System_error_category::`vftable'
PUBLIC	??_C@_06FHFOAHML@system?$AA@			; `string'
PUBLIC	?_Generic_object@?$_Error_objects@H@std@@2V_Generic_error_category@2@A ; std::_Error_objects<int>::_Generic_object
PUBLIC	?_Iostream_object@?$_Error_objects@H@std@@2V_Iostream_error_category@2@A ; std::_Error_objects<int>::_Iostream_object
PUBLIC	?_System_object@?$_Error_objects@H@std@@2V_System_error_category@2@A ; std::_Error_objects<int>::_System_object
PUBLIC	?id@?$num_put@DV?$back_insert_iterator@V?$basic_string@DU?$char_traits@D@std@@V?$allocator@D@2@@std@@@std@@@std@@2V0locale@2@A ; std::num_put<char,std::back_insert_iterator<std::basic_string<char,std::char_traits<char>,std::allocator<char> > > >::id
PUBLIC	?id@?$num_put@_WV?$back_insert_iterator@V?$basic_string@_WU?$char_traits@_W@std@@V?$allocator@_W@2@@std@@@std@@@std@@2V0locale@2@A ; std::num_put<wchar_t,std::back_insert_iterator<std::basic_string<wchar_t,std::char_traits<wchar_t>,std::allocator<wchar_t> > > >::id
PUBLIC	__TI1?AV_com_error@@
PUBLIC	__CTA1?AV_com_error@@
PUBLIC	??_R0?AV_com_error@@@8				; _com_error `RTTI Type Descriptor'
PUBLIC	__CT??_R0?AV_com_error@@@8??0_com_error@@QAE@ABV0@@Z16
PUBLIC	??_C@_0CD@OFNGKAAI@DeviceManager?3?3Setup?5?9?5Error?50x?$CF@ ; `string'
PUBLIC	??_C@_0BB@GBPIJPJG@?$CF0dx?$CF0d?5?9?5?$CFd?5Bit?$AA@ ; `string'
PUBLIC	??_C@_0BG@CABGKPIC@Choose?5Display?5Device?$AA@	; `string'
PUBLIC	??_C@_07EKEMFJNL@LISTBOX?$AA@			; `string'
PUBLIC	??_C@_0M@CFLADCE@Feb?518?52013?$AA@		; `string'
PUBLIC	??_C@_0L@NAFBIAKG@DevMgr?4cpp?$AA@		; `string'
PUBLIC	??_C@_0BE@FGKKLFGH@Error?3?5?5?$CF0d?5?5?$CFs?5?5?$CFs?$AA@ ; `string'
PUBLIC	??_C@_0CE@DJNPENE@Failed?5to?5construct?5list?5box?5win@ ; `string'
PUBLIC	??_C@_03OMOEFKGE@?3?5?5?$AA@			; `string'
PUBLIC	??_C@_02KNHHEEKP@?5?5?$AA@			; `string'
PUBLIC	??_C@_0CI@ECNOHHOP@Failed?5to?5add?5device?5to?5selectio@ ; `string'
PUBLIC	??_C@_0CN@LEIKMLC@Click?5OK?5when?5you?8ve?5made?5your?5d@ ; `string'
PUBLIC	??_C@_07FJJAPPM@?$CFd?5x?5?$CFd?$AA@		; `string'
PUBLIC	??_C@_0CD@MAKLMNDE@DeviceManager?3?3CreateContext?5?9?5?$CF@ ; `string'
PUBLIC	??_C@_0CI@MELFNFMP@DeviceManager?3?3OpenDevice?5?9?5Erro@ ; `string'
PUBLIC	??_C@_09FCFFOIDA@ddraw?4dll?$AA@		; `string'
PUBLIC	??_C@_0BH@GFMHGGLD@DirectDrawEnumerateExA?$AA@	; `string'
PUBLIC	??_C@_0DK@DAMPCELI@DeviceManager?3?3DDDriverInfo?3?3Enu@ ; `string'
PUBLIC	??_C@_0CH@FGECMAID@DXContext?3?3Init?$CI0x?$CFX?0?5?$CFd?0?5?$CFd?0?5?$CFd@ ; `string'
PUBLIC	??_C@_0IO@FKDMPLAK@DXContext?3?3Init?5?9?5DriverInfo?5?9?5?$CC@ ; `string'
PUBLIC	??_C@_02DKCKIIND@?$CFs?$AA@			; `string'
PUBLIC	??_C@_0CB@KMJBNHDD@DXContext?3?3DD_Init?5?9?5Error?50x?$CFX?6@ ; `string'
PUBLIC	??_C@_0CJ@NJFEOPDJ@DXContext?3?3SetRenderTarget?5?9?5Err@ ; `string'
PUBLIC	??_C@_0ED@DAKEKFKC@DXContext?3?3AttachDepthBuffer?$CI?$CJ?5?9@ ; `string'
PUBLIC	?id@?$numpunct@D@std@@2V0locale@2@A		; std::numpunct<char>::id
PUBLIC	?id@?$numpunct@_W@std@@2V0locale@2@A		; std::numpunct<wchar_t>::id
PUBLIC	??_C@_0BI@CFPLBAOH@invalid?5string?5position?$AA@ ; `string'
PUBLIC	??_C@_0BD@OLBABOEK@vector?$DMT?$DO?5too?5long?$AA@ ; `string'
PUBLIC	??_C@_0BA@JFNIOLAK@string?5too?5long?$AA@	; `string'
PUBLIC	??_R4_com_error@@6B@				; _com_error::`RTTI Complete Object Locator'
PUBLIC	??_R3_com_error@@8				; _com_error::`RTTI Class Hierarchy Descriptor'
PUBLIC	??_R2_com_error@@8				; _com_error::`RTTI Base Class Array'
PUBLIC	??_R1A@?0A@EA@_com_error@@8			; _com_error::`RTTI Base Class Descriptor at (0,-1,0,64)'
PUBLIC	??_R4error_category@std@@6B@			; std::error_category::`RTTI Complete Object Locator'
PUBLIC	??_R0?AVerror_category@std@@@8			; std::error_category `RTTI Type Descriptor'
PUBLIC	??_R3error_category@std@@8			; std::error_category::`RTTI Class Hierarchy Descriptor'
PUBLIC	??_R2error_category@std@@8			; std::error_category::`RTTI Base Class Array'
PUBLIC	??_R1A@?0A@EA@error_category@std@@8		; std::error_category::`RTTI Base Class Descriptor at (0,-1,0,64)'
PUBLIC	??_R4_Generic_error_category@std@@6B@		; std::_Generic_error_category::`RTTI Complete Object Locator'
PUBLIC	??_R0?AV_Generic_error_category@std@@@8		; std::_Generic_error_category `RTTI Type Descriptor'
PUBLIC	??_R3_Generic_error_category@std@@8		; std::_Generic_error_category::`RTTI Class Hierarchy Descriptor'
PUBLIC	??_R2_Generic_error_category@std@@8		; std::_Generic_error_category::`RTTI Base Class Array'
PUBLIC	??_R1A@?0A@EA@_Generic_error_category@std@@8	; std::_Generic_error_category::`RTTI Base Class Descriptor at (0,-1,0,64)'
PUBLIC	??_R4_Iostream_error_category@std@@6B@		; std::_Iostream_error_category::`RTTI Complete Object Locator'
PUBLIC	??_R0?AV_Iostream_error_category@std@@@8	; std::_Iostream_error_category `RTTI Type Descriptor'
PUBLIC	??_R3_Iostream_error_category@std@@8		; std::_Iostream_error_category::`RTTI Class Hierarchy Descriptor'
PUBLIC	??_R2_Iostream_error_category@std@@8		; std::_Iostream_error_category::`RTTI Base Class Array'
PUBLIC	??_R1A@?0A@EA@_Iostream_error_category@std@@8	; std::_Iostream_error_category::`RTTI Base Class Descriptor at (0,-1,0,64)'
PUBLIC	??_R4_System_error_category@std@@6B@		; std::_System_error_category::`RTTI Complete Object Locator'
PUBLIC	??_R0?AV_System_error_category@std@@@8		; std::_System_error_category `RTTI Type Descriptor'
PUBLIC	??_R3_System_error_category@std@@8		; std::_System_error_category::`RTTI Class Hierarchy Descriptor'
PUBLIC	??_R2_System_error_category@std@@8		; std::_System_error_category::`RTTI Base Class Array'
PUBLIC	??_R1A@?0A@EA@_System_error_category@std@@8	; std::_System_error_category::`RTTI Base Class Descriptor at (0,-1,0,64)'
EXTRN	??_M@YGXPAXIHP6EX0@Z@Z:PROC			; `eh vector destructor iterator'
EXTRN	__purecall:PROC
EXTRN	??2@YAPAXI@Z:PROC				; operator new
EXTRN	??3@YAXPAX@Z:PROC				; operator delete
EXTRN	_atexit:PROC
EXTRN	_exit:PROC
EXTRN	??_V@YAXPAX@Z:PROC				; operator delete[]
EXTRN	_memcmp:PROC
EXTRN	_memcpy:PROC
EXTRN	_memset:PROC
EXTRN	_strcpy:PROC
EXTRN	_strcat:PROC
EXTRN	_strlen:PROC
EXTRN	_memmove:PROC
EXTRN	__imp__Sleep@4:PROC
EXTRN	__imp__FreeLibrary@4:PROC
EXTRN	__imp__GetProcAddress@8:PROC
EXTRN	__imp__LocalFree@4:PROC
EXTRN	__imp__LoadLibraryA@4:PROC
EXTRN	__imp__SendMessageA@16:PROC
EXTRN	__imp__CreateWindowExA@48:PROC
EXTRN	__imp__DestroyWindow@4:PROC
EXTRN	__imp__ShowWindow@8:PROC
EXTRN	__imp__AdjustWindowRect@12:PROC
EXTRN	__imp__MessageBoxA@16:PROC
EXTRN	__imp__SysFreeString@4:PROC
EXTRN	__imp__GetErrorInfo@8:PROC
EXTRN	_sscanf:PROC
EXTRN	_sprintf:PROC
EXTRN	?_com_issue_error@@YGXJ@Z:PROC			; _com_issue_error
EXTRN	??_E_com_error@@UAEPAXI@Z:PROC			; _com_error::`vector deleting destructor'
EXTRN	_DirectDrawEnumerateA@8:PROC
EXTRN	_DirectDrawCreateEx@16:PROC
EXTRN	_D3DXInitialize@0:PROC
EXTRN	_D3DXUninitialize@0:PROC
EXTRN	?_Xbad_alloc@std@@YAXXZ:PROC			; std::_Xbad_alloc
EXTRN	?_Xlength_error@std@@YAXPBD@Z:PROC		; std::_Xlength_error
EXTRN	?_Xout_of_range@std@@YAXPBD@Z:PROC		; std::_Xout_of_range
EXTRN	??_Eerror_category@std@@UAEPAXI@Z:PROC		; std::error_category::`vector deleting destructor'
EXTRN	?_Syserror_map@std@@YAPBDH@Z:PROC		; std::_Syserror_map
EXTRN	?_Winerror_map@std@@YAPBDH@Z:PROC		; std::_Winerror_map
EXTRN	??_E_Generic_error_category@std@@UAEPAXI@Z:PROC	; std::_Generic_error_category::`vector deleting destructor'
EXTRN	??_E_Iostream_error_category@std@@UAEPAXI@Z:PROC ; std::_Iostream_error_category::`vector deleting destructor'
EXTRN	??_E_System_error_category@std@@UAEPAXI@Z:PROC	; std::_System_error_category::`vector deleting destructor'
EXTRN	_MonoPrint:PROC
EXTRN	?GetDevCaps@DisplayOptionsClass@@SAIXZ:PROC	; DisplayOptionsClass::GetDevCaps
EXTRN	?Setup@CDXEngine@@QAEXPAUIDirect3DDevice7@@PAUIDirect3D7@@PAUIDirectDraw7@@@Z:PROC ; CDXEngine::Setup
EXTRN	?Release@CDXEngine@@QAEXXZ:PROC			; CDXEngine::Release
EXTRN	@__security_check_cookie@4:PROC
EXTRN	__CxxThrowException@8:PROC
EXTRN	___CxxFrameHandler3:PROC
EXTRN	_GUID_NULL:BYTE
EXTRN	??_7type_info@@6B@:QWORD			; type_info::`vftable'
EXTRN	_IID_IDirectDraw7:BYTE
EXTRN	_IID_IDirect3D7:BYTE
EXTRN	_IID_IDirect3DRampDevice:BYTE
EXTRN	_IID_IDirect3DRGBDevice:BYTE
EXTRN	_IID_IDirect3DHALDevice:BYTE
EXTRN	_IID_IDirect3DMMXDevice:BYTE
EXTRN	_IID_IDirect3DRefDevice:BYTE
EXTRN	_IID_IDirect3DTnLHalDevice:BYTE
EXTRN	?TheDXEngine@@3VCDXEngine@@A:BYTE		; TheDXEngine
EXTRN	?g_bUse_DX_Engine@@3_NA:BYTE			; g_bUse_DX_Engine
EXTRN	?g_bForceDXMultiThreadedCoopLevel@@3_NA:BYTE	; g_bForceDXMultiThreadedCoopLevel
EXTRN	?g_CardDetails@@3PADA:BYTE			; g_CardDetails
EXTRN	___security_cookie:DWORD
_BSS	SEGMENT
_piecewise_construct DB 01H DUP (?)
	ALIGN	4

_allocator_arg DB 01H DUP (?)
_BSS	ENDS
;	COMDAT ?_Generic_object@?$_Error_objects@H@std@@2V_Generic_error_category@2@A
_BSS	SEGMENT
?_Generic_object@?$_Error_objects@H@std@@2V_Generic_error_category@2@A DD 01H DUP (?) ; std::_Error_objects<int>::_Generic_object
_BSS	ENDS
;	COMDAT ?_Iostream_object@?$_Error_objects@H@std@@2V_Iostream_error_category@2@A
_BSS	SEGMENT
?_Iostream_object@?$_Error_objects@H@std@@2V_Iostream_error_category@2@A DD 01H DUP (?) ; std::_Error_objects<int>::_Iostream_object
_BSS	ENDS
;	COMDAT ?_System_object@?$_Error_objects@H@std@@2V_System_error_category@2@A
_BSS	SEGMENT
?_System_object@?$_Error_objects@H@std@@2V_System_error_category@2@A DD 01H DUP (?) ; std::_Error_objects<int>::_System_object
_BSS	ENDS
;	COMDAT ?id@?$num_put@DV?$back_insert_iterator@V?$basic_string@DU?$char_traits@D@std@@V?$allocator@D@2@@std@@@std@@@std@@2V0locale@2@A
_BSS	SEGMENT
?id@?$num_put@DV?$back_insert_iterator@V?$basic_string@DU?$char_traits@D@std@@V?$allocator@D@2@@std@@@std@@@std@@2V0locale@2@A DD 01H DUP (?) ; std::num_put<char,std::back_insert_iterator<std::basic_string<char,std::char_traits<char>,std::allocator<char> > > >::id
_BSS	ENDS
;	COMDAT ?id@?$num_put@_WV?$back_insert_iterator@V?$basic_string@_WU?$char_traits@_W@std@@V?$allocator@_W@2@@std@@@std@@@std@@2V0locale@2@A
_BSS	SEGMENT
?id@?$num_put@_WV?$back_insert_iterator@V?$basic_string@_WU?$char_traits@_W@std@@V?$allocator@_W@2@@std@@@std@@@std@@2V0locale@2@A DD 01H DUP (?) ; std::num_put<wchar_t,std::back_insert_iterator<std::basic_string<wchar_t,std::char_traits<wchar_t>,std::allocator<wchar_t> > > >::id
_BSS	ENDS
;	COMDAT ?buffer@?1??GetModeName@DeviceManager@@QAEPBDHHH@Z@4PADA
_BSS	SEGMENT
?buffer@?1??GetModeName@DeviceManager@@QAEPBDHHH@Z@4PADA DB 050H DUP (?) ; `DeviceManager::GetModeName'::`2'::buffer
_BSS	ENDS
;	COMDAT ?id@?$numpunct@D@std@@2V0locale@2@A
_BSS	SEGMENT
?id@?$numpunct@D@std@@2V0locale@2@A DD 01H DUP (?)	; std::numpunct<char>::id
_BSS	ENDS
;	COMDAT ?id@?$numpunct@_W@std@@2V0locale@2@A
_BSS	SEGMENT
?id@?$numpunct@_W@std@@2V0locale@2@A DD 01H DUP (?)	; std::numpunct<wchar_t>::id
_BSS	ENDS
CRT$XCU	SEGMENT
_piecewise_construct$initializer$ DD FLAT:??__Epiecewise_construct@std@@YAXXZ
CRT$XCU	ENDS
;	COMDAT ??_R1A@?0A@EA@_System_error_category@std@@8
rdata$r	SEGMENT
??_R1A@?0A@EA@_System_error_category@std@@8 DD FLAT:??_R0?AV_System_error_category@std@@@8 ; std::_System_error_category::`RTTI Base Class Descriptor at (0,-1,0,64)'
	DD	02H
	DD	00H
	DD	0ffffffffH
	DD	00H
	DD	040H
	DD	FLAT:??_R3_System_error_category@std@@8
rdata$r	ENDS
;	COMDAT ??_R2_System_error_category@std@@8
rdata$r	SEGMENT
??_R2_System_error_category@std@@8 DD FLAT:??_R1A@?0A@EA@_System_error_category@std@@8 ; std::_System_error_category::`RTTI Base Class Array'
	DD	FLAT:??_R1A@?0A@EA@_Generic_error_category@std@@8
	DD	FLAT:??_R1A@?0A@EA@error_category@std@@8
rdata$r	ENDS
;	COMDAT ??_R3_System_error_category@std@@8
rdata$r	SEGMENT
??_R3_System_error_category@std@@8 DD 00H		; std::_System_error_category::`RTTI Class Hierarchy Descriptor'
	DD	00H
	DD	03H
	DD	FLAT:??_R2_System_error_category@std@@8
rdata$r	ENDS
;	COMDAT ??_R0?AV_System_error_category@std@@@8
_DATA	SEGMENT
??_R0?AV_System_error_category@std@@@8 DD FLAT:??_7type_info@@6B@ ; std::_System_error_category `RTTI Type Descriptor'
	DD	00H
	DB	'.?AV_System_error_category@std@@', 00H
_DATA	ENDS
;	COMDAT ??_R4_System_error_category@std@@6B@
rdata$r	SEGMENT
??_R4_System_error_category@std@@6B@ DD 00H		; std::_System_error_category::`RTTI Complete Object Locator'
	DD	00H
	DD	00H
	DD	FLAT:??_R0?AV_System_error_category@std@@@8
	DD	FLAT:??_R3_System_error_category@std@@8
rdata$r	ENDS
;	COMDAT ??_R1A@?0A@EA@_Iostream_error_category@std@@8
rdata$r	SEGMENT
??_R1A@?0A@EA@_Iostream_error_category@std@@8 DD FLAT:??_R0?AV_Iostream_error_category@std@@@8 ; std::_Iostream_error_category::`RTTI Base Class Descriptor at (0,-1,0,64)'
	DD	02H
	DD	00H
	DD	0ffffffffH
	DD	00H
	DD	040H
	DD	FLAT:??_R3_Iostream_error_category@std@@8
rdata$r	ENDS
;	COMDAT ??_R2_Iostream_error_category@std@@8
rdata$r	SEGMENT
??_R2_Iostream_error_category@std@@8 DD FLAT:??_R1A@?0A@EA@_Iostream_error_category@std@@8 ; std::_Iostream_error_category::`RTTI Base Class Array'
	DD	FLAT:??_R1A@?0A@EA@_Generic_error_category@std@@8
	DD	FLAT:??_R1A@?0A@EA@error_category@std@@8
rdata$r	ENDS
;	COMDAT ??_R3_Iostream_error_category@std@@8
rdata$r	SEGMENT
??_R3_Iostream_error_category@std@@8 DD 00H		; std::_Iostream_error_category::`RTTI Class Hierarchy Descriptor'
	DD	00H
	DD	03H
	DD	FLAT:??_R2_Iostream_error_category@std@@8
rdata$r	ENDS
;	COMDAT ??_R0?AV_Iostream_error_category@std@@@8
_DATA	SEGMENT
??_R0?AV_Iostream_error_category@std@@@8 DD FLAT:??_7type_info@@6B@ ; std::_Iostream_error_category `RTTI Type Descriptor'
	DD	00H
	DB	'.?AV_Iostream_error_category@std@@', 00H
_DATA	ENDS
;	COMDAT ??_R4_Iostream_error_category@std@@6B@
rdata$r	SEGMENT
??_R4_Iostream_error_category@std@@6B@ DD 00H		; std::_Iostream_error_category::`RTTI Complete Object Locator'
	DD	00H
	DD	00H
	DD	FLAT:??_R0?AV_Iostream_error_category@std@@@8
	DD	FLAT:??_R3_Iostream_error_category@std@@8
rdata$r	ENDS
;	COMDAT ??_R1A@?0A@EA@_Generic_error_category@std@@8
rdata$r	SEGMENT
??_R1A@?0A@EA@_Generic_error_category@std@@8 DD FLAT:??_R0?AV_Generic_error_category@std@@@8 ; std::_Generic_error_category::`RTTI Base Class Descriptor at (0,-1,0,64)'
	DD	01H
	DD	00H
	DD	0ffffffffH
	DD	00H
	DD	040H
	DD	FLAT:??_R3_Generic_error_category@std@@8
rdata$r	ENDS
;	COMDAT ??_R2_Generic_error_category@std@@8
rdata$r	SEGMENT
??_R2_Generic_error_category@std@@8 DD FLAT:??_R1A@?0A@EA@_Generic_error_category@std@@8 ; std::_Generic_error_category::`RTTI Base Class Array'
	DD	FLAT:??_R1A@?0A@EA@error_category@std@@8
rdata$r	ENDS
;	COMDAT ??_R3_Generic_error_category@std@@8
rdata$r	SEGMENT
??_R3_Generic_error_category@std@@8 DD 00H		; std::_Generic_error_category::`RTTI Class Hierarchy Descriptor'
	DD	00H
	DD	02H
	DD	FLAT:??_R2_Generic_error_category@std@@8
rdata$r	ENDS
;	COMDAT ??_R0?AV_Generic_error_category@std@@@8
_DATA	SEGMENT
??_R0?AV_Generic_error_category@std@@@8 DD FLAT:??_7type_info@@6B@ ; std::_Generic_error_category `RTTI Type Descriptor'
	DD	00H
	DB	'.?AV_Generic_error_category@std@@', 00H
_DATA	ENDS
;	COMDAT ??_R4_Generic_error_category@std@@6B@
rdata$r	SEGMENT
??_R4_Generic_error_category@std@@6B@ DD 00H		; std::_Generic_error_category::`RTTI Complete Object Locator'
	DD	00H
	DD	00H
	DD	FLAT:??_R0?AV_Generic_error_category@std@@@8
	DD	FLAT:??_R3_Generic_error_category@std@@8
rdata$r	ENDS
;	COMDAT ??_R1A@?0A@EA@error_category@std@@8
rdata$r	SEGMENT
??_R1A@?0A@EA@error_category@std@@8 DD FLAT:??_R0?AVerror_category@std@@@8 ; std::error_category::`RTTI Base Class Descriptor at (0,-1,0,64)'
	DD	00H
	DD	00H
	DD	0ffffffffH
	DD	00H
	DD	040H
	DD	FLAT:??_R3error_category@std@@8
rdata$r	ENDS
;	COMDAT ??_R2error_category@std@@8
rdata$r	SEGMENT
??_R2error_category@std@@8 DD FLAT:??_R1A@?0A@EA@error_category@std@@8 ; std::error_category::`RTTI Base Class Array'
rdata$r	ENDS
;	COMDAT ??_R3error_category@std@@8
rdata$r	SEGMENT
??_R3error_category@std@@8 DD 00H			; std::error_category::`RTTI Class Hierarchy Descriptor'
	DD	00H
	DD	01H
	DD	FLAT:??_R2error_category@std@@8
rdata$r	ENDS
;	COMDAT ??_R0?AVerror_category@std@@@8
_DATA	SEGMENT
??_R0?AVerror_category@std@@@8 DD FLAT:??_7type_info@@6B@ ; std::error_category `RTTI Type Descriptor'
	DD	00H
	DB	'.?AVerror_category@std@@', 00H
_DATA	ENDS
;	COMDAT ??_R4error_category@std@@6B@
rdata$r	SEGMENT
??_R4error_category@std@@6B@ DD 00H			; std::error_category::`RTTI Complete Object Locator'
	DD	00H
	DD	00H
	DD	FLAT:??_R0?AVerror_category@std@@@8
	DD	FLAT:??_R3error_category@std@@8
rdata$r	ENDS
;	COMDAT ??_R1A@?0A@EA@_com_error@@8
rdata$r	SEGMENT
??_R1A@?0A@EA@_com_error@@8 DD FLAT:??_R0?AV_com_error@@@8 ; _com_error::`RTTI Base Class Descriptor at (0,-1,0,64)'
	DD	00H
	DD	00H
	DD	0ffffffffH
	DD	00H
	DD	040H
	DD	FLAT:??_R3_com_error@@8
rdata$r	ENDS
;	COMDAT ??_R2_com_error@@8
rdata$r	SEGMENT
??_R2_com_error@@8 DD FLAT:??_R1A@?0A@EA@_com_error@@8	; _com_error::`RTTI Base Class Array'
rdata$r	ENDS
;	COMDAT ??_R3_com_error@@8
rdata$r	SEGMENT
??_R3_com_error@@8 DD 00H				; _com_error::`RTTI Class Hierarchy Descriptor'
	DD	00H
	DD	01H
	DD	FLAT:??_R2_com_error@@8
rdata$r	ENDS
;	COMDAT ??_R4_com_error@@6B@
rdata$r	SEGMENT
??_R4_com_error@@6B@ DD 00H				; _com_error::`RTTI Complete Object Locator'
	DD	00H
	DD	00H
	DD	FLAT:??_R0?AV_com_error@@@8
	DD	FLAT:??_R3_com_error@@8
rdata$r	ENDS
;	COMDAT ??_C@_0BA@JFNIOLAK@string?5too?5long?$AA@
CONST	SEGMENT
??_C@_0BA@JFNIOLAK@string?5too?5long?$AA@ DB 'string too long', 00H ; `string'
CONST	ENDS
;	COMDAT ??_C@_0BD@OLBABOEK@vector?$DMT?$DO?5too?5long?$AA@
CONST	SEGMENT
??_C@_0BD@OLBABOEK@vector?$DMT?$DO?5too?5long?$AA@ DB 'vector<T> too long'
	DB	00H						; `string'
CONST	ENDS
;	COMDAT ??_C@_0BI@CFPLBAOH@invalid?5string?5position?$AA@
CONST	SEGMENT
??_C@_0BI@CFPLBAOH@invalid?5string?5position?$AA@ DB 'invalid string posi'
	DB	'tion', 00H					; `string'
CONST	ENDS
;	COMDAT ??_C@_0ED@DAKEKFKC@DXContext?3?3AttachDepthBuffer?$CI?$CJ?5?9@
CONST	SEGMENT
??_C@_0ED@DAKEKFKC@DXContext?3?3AttachDepthBuffer?$CI?$CJ?5?9@ DB 'DXCont'
	DB	'ext::AttachDepthBuffer() - Warning: No Z-Buffer formats !!!', 0aH
	DB	00H						; `string'
CONST	ENDS
;	COMDAT ??_C@_0CJ@NJFEOPDJ@DXContext?3?3SetRenderTarget?5?9?5Err@
CONST	SEGMENT
??_C@_0CJ@NJFEOPDJ@DXContext?3?3SetRenderTarget?5?9?5Err@ DB 'DXContext::'
	DB	'SetRenderTarget - Error 0x%X', 0aH, 00H	; `string'
CONST	ENDS
;	COMDAT ??_C@_0CB@KMJBNHDD@DXContext?3?3DD_Init?5?9?5Error?50x?$CFX?6@
CONST	SEGMENT
??_C@_0CB@KMJBNHDD@DXContext?3?3DD_Init?5?9?5Error?50x?$CFX?6@ DB 'DXCont'
	DB	'ext::DD_Init - Error 0x%X', 0aH, 00H	; `string'
CONST	ENDS
;	COMDAT ??_C@_02DKCKIIND@?$CFs?$AA@
CONST	SEGMENT
??_C@_02DKCKIIND@?$CFs?$AA@ DB '%s', 00H		; `string'
CONST	ENDS
;	COMDAT ??_C@_0IO@FKDMPLAK@DXContext?3?3Init?5?9?5DriverInfo?5?9?5?$CC@
CONST	SEGMENT
??_C@_0IO@FKDMPLAK@DXContext?3?3Init?5?9?5DriverInfo?5?9?5?$CC@ DB 'DXCon'
	DB	'text::Init - DriverInfo - "%s" - "%s", Vendor: %d, Device: %d'
	DB	', SubSys: %d, Rev: %d, Product: %d, Version: %d, SubVersion: '
	DB	'%d, Build: %d', 0aH, 00H			; `string'
CONST	ENDS
;	COMDAT ??_C@_0CH@FGECMAID@DXContext?3?3Init?$CI0x?$CFX?0?5?$CFd?0?5?$CFd?0?5?$CFd@
CONST	SEGMENT
??_C@_0CH@FGECMAID@DXContext?3?3Init?$CI0x?$CFX?0?5?$CFd?0?5?$CFd?0?5?$CFd@ DB 'D'
	DB	'XContext::Init(0x%X, %d, %d, %d, %d)', 0aH, 00H ; `string'
CONST	ENDS
;	COMDAT ??_C@_0DK@DAMPCELI@DeviceManager?3?3DDDriverInfo?3?3Enu@
CONST	SEGMENT
??_C@_0DK@DAMPCELI@DeviceManager?3?3DDDriverInfo?3?3Enu@ DB 'DeviceManage'
	DB	'r::DDDriverInfo::EnumD3DDrivers - Error 0x%X', 0aH, 00H ; `string'
CONST	ENDS
;	COMDAT ??_C@_0BH@GFMHGGLD@DirectDrawEnumerateExA?$AA@
CONST	SEGMENT
??_C@_0BH@GFMHGGLD@DirectDrawEnumerateExA?$AA@ DB 'DirectDrawEnumerateExA'
	DB	00H						; `string'
CONST	ENDS
;	COMDAT ??_C@_09FCFFOIDA@ddraw?4dll?$AA@
CONST	SEGMENT
??_C@_09FCFFOIDA@ddraw?4dll?$AA@ DB 'ddraw.dll', 00H	; `string'
CONST	ENDS
;	COMDAT ??_C@_0CI@MELFNFMP@DeviceManager?3?3OpenDevice?5?9?5Erro@
CONST	SEGMENT
??_C@_0CI@MELFNFMP@DeviceManager?3?3OpenDevice?5?9?5Erro@ DB 'DeviceManag'
	DB	'er::OpenDevice - Error 0x%X', 0aH, 00H	; `string'
CONST	ENDS
;	COMDAT ??_C@_0CD@MAKLMNDE@DeviceManager?3?3CreateContext?5?9?5?$CF@
CONST	SEGMENT
??_C@_0CD@MAKLMNDE@DeviceManager?3?3CreateContext?5?9?5?$CF@ DB 'DeviceMa'
	DB	'nager::CreateContext - %s', 0aH, 00H	; `string'
CONST	ENDS
;	COMDAT ??_C@_07FJJAPPM@?$CFd?5x?5?$CFd?$AA@
CONST	SEGMENT
??_C@_07FJJAPPM@?$CFd?5x?5?$CFd?$AA@ DB '%d x %d', 00H	; `string'
CONST	ENDS
;	COMDAT ??_C@_0CN@LEIKMLC@Click?5OK?5when?5you?8ve?5made?5your?5d@
CONST	SEGMENT
??_C@_0CN@LEIKMLC@Click?5OK?5when?5you?8ve?5made?5your?5d@ DB 'Click OK w'
	DB	'hen you''ve made your device choice', 00H	; `string'
CONST	ENDS
;	COMDAT ??_C@_0CI@ECNOHHOP@Failed?5to?5add?5device?5to?5selectio@
CONST	SEGMENT
??_C@_0CI@ECNOHHOP@Failed?5to?5add?5device?5to?5selectio@ DB 'Failed to a'
	DB	'dd device to selection list.', 00H		; `string'
CONST	ENDS
;	COMDAT ??_C@_02KNHHEEKP@?5?5?$AA@
CONST	SEGMENT
??_C@_02KNHHEEKP@?5?5?$AA@ DB '  ', 00H			; `string'
CONST	ENDS
;	COMDAT ??_C@_03OMOEFKGE@?3?5?5?$AA@
CONST	SEGMENT
??_C@_03OMOEFKGE@?3?5?5?$AA@ DB ':  ', 00H		; `string'
CONST	ENDS
;	COMDAT ??_C@_0CE@DJNPENE@Failed?5to?5construct?5list?5box?5win@
CONST	SEGMENT
??_C@_0CE@DJNPENE@Failed?5to?5construct?5list?5box?5win@ DB 'Failed to co'
	DB	'nstruct list box window', 00H		; `string'
CONST	ENDS
;	COMDAT ??_C@_0BE@FGKKLFGH@Error?3?5?5?$CF0d?5?5?$CFs?5?5?$CFs?$AA@
CONST	SEGMENT
??_C@_0BE@FGKKLFGH@Error?3?5?5?$CF0d?5?5?$CFs?5?5?$CFs?$AA@ DB 'Error:  %'
	DB	'0d  %s  %s', 00H				; `string'
CONST	ENDS
;	COMDAT ??_C@_0L@NAFBIAKG@DevMgr?4cpp?$AA@
CONST	SEGMENT
??_C@_0L@NAFBIAKG@DevMgr?4cpp?$AA@ DB 'DevMgr.cpp', 00H	; `string'
CONST	ENDS
;	COMDAT ??_C@_0M@CFLADCE@Feb?518?52013?$AA@
CONST	SEGMENT
??_C@_0M@CFLADCE@Feb?518?52013?$AA@ DB 'Feb 18 2013', 00H ; `string'
CONST	ENDS
;	COMDAT ??_C@_07EKEMFJNL@LISTBOX?$AA@
CONST	SEGMENT
??_C@_07EKEMFJNL@LISTBOX?$AA@ DB 'LISTBOX', 00H		; `string'
CONST	ENDS
;	COMDAT ??_C@_0BG@CABGKPIC@Choose?5Display?5Device?$AA@
CONST	SEGMENT
??_C@_0BG@CABGKPIC@Choose?5Display?5Device?$AA@ DB 'Choose Display Device'
	DB	00H						; `string'
CONST	ENDS
;	COMDAT ??_C@_0BB@GBPIJPJG@?$CF0dx?$CF0d?5?9?5?$CFd?5Bit?$AA@
CONST	SEGMENT
??_C@_0BB@GBPIJPJG@?$CF0dx?$CF0d?5?9?5?$CFd?5Bit?$AA@ DB '%0dx%0d - %d Bi'
	DB	't', 00H					; `string'
CONST	ENDS
;	COMDAT ??_C@_0CD@OFNGKAAI@DeviceManager?3?3Setup?5?9?5Error?50x?$CF@
CONST	SEGMENT
??_C@_0CD@OFNGKAAI@DeviceManager?3?3Setup?5?9?5Error?50x?$CF@ DB 'DeviceM'
	DB	'anager::Setup - Error 0x%X', 0aH, 00H	; `string'
CONST	ENDS
;	COMDAT __CT??_R0?AV_com_error@@@8??0_com_error@@QAE@ABV0@@Z16
xdata$x	SEGMENT
__CT??_R0?AV_com_error@@@8??0_com_error@@QAE@ABV0@@Z16 DD 00H
	DD	FLAT:??_R0?AV_com_error@@@8
	DD	00H
	DD	0ffffffffH
	ORG $+4
	DD	010H
	DD	FLAT:??0_com_error@@QAE@ABV0@@Z
xdata$x	ENDS
;	COMDAT ??_R0?AV_com_error@@@8
_DATA	SEGMENT
??_R0?AV_com_error@@@8 DD FLAT:??_7type_info@@6B@	; _com_error `RTTI Type Descriptor'
	DD	00H
	DB	'.?AV_com_error@@', 00H
_DATA	ENDS
;	COMDAT __CTA1?AV_com_error@@
xdata$x	SEGMENT
__CTA1?AV_com_error@@ DD 01H
	DD	FLAT:__CT??_R0?AV_com_error@@@8??0_com_error@@QAE@ABV0@@Z16
xdata$x	ENDS
;	COMDAT __TI1?AV_com_error@@
xdata$x	SEGMENT
__TI1?AV_com_error@@ DD 00H
	DD	FLAT:??1_com_error@@UAE@XZ
	DD	00H
	DD	FLAT:__CTA1?AV_com_error@@
xdata$x	ENDS
;	COMDAT ??_C@_06FHFOAHML@system?$AA@
CONST	SEGMENT
??_C@_06FHFOAHML@system?$AA@ DB 'system', 00H		; `string'
CONST	ENDS
;	COMDAT ??_7_System_error_category@std@@6B@
CONST	SEGMENT
??_7_System_error_category@std@@6B@ DD FLAT:??_R4_System_error_category@std@@6B@ ; std::_System_error_category::`vftable'
	DD	FLAT:??_E_System_error_category@std@@UAEPAXI@Z
	DD	FLAT:?name@_System_error_category@std@@UBEPBDXZ
	DD	FLAT:?message@_System_error_category@std@@UBE?AV?$basic_string@DU?$char_traits@D@std@@V?$allocator@D@2@@2@H@Z
	DD	FLAT:?default_error_condition@_System_error_category@std@@UBE?AVerror_condition@2@H@Z
	DD	FLAT:?equivalent@error_category@std@@UBE_NABVerror_code@2@H@Z
	DD	FLAT:?equivalent@error_category@std@@UBE_NHABVerror_condition@2@@Z
CONST	ENDS
;	COMDAT ??_C@_0BG@PADBLCHM@iostream?5stream?5error?$AA@
CONST	SEGMENT
??_C@_0BG@PADBLCHM@iostream?5stream?5error?$AA@ DB 'iostream stream error'
	DB	00H						; `string'
CONST	ENDS
;	COMDAT ??_C@_08LLGCOLLL@iostream?$AA@
CONST	SEGMENT
??_C@_08LLGCOLLL@iostream?$AA@ DB 'iostream', 00H	; `string'
CONST	ENDS
;	COMDAT ??_7_Iostream_error_category@std@@6B@
CONST	SEGMENT
??_7_Iostream_error_category@std@@6B@ DD FLAT:??_R4_Iostream_error_category@std@@6B@ ; std::_Iostream_error_category::`vftable'
	DD	FLAT:??_E_Iostream_error_category@std@@UAEPAXI@Z
	DD	FLAT:?name@_Iostream_error_category@std@@UBEPBDXZ
	DD	FLAT:?message@_Iostream_error_category@std@@UBE?AV?$basic_string@DU?$char_traits@D@std@@V?$allocator@D@2@@2@H@Z
	DD	FLAT:?default_error_condition@error_category@std@@UBE?AVerror_condition@2@H@Z
	DD	FLAT:?equivalent@error_category@std@@UBE_NABVerror_code@2@H@Z
	DD	FLAT:?equivalent@error_category@std@@UBE_NHABVerror_condition@2@@Z
CONST	ENDS
;	COMDAT ??_C@_0O@BFJCFAAK@unknown?5error?$AA@
CONST	SEGMENT
??_C@_0O@BFJCFAAK@unknown?5error?$AA@ DB 'unknown error', 00H ; `string'
CONST	ENDS
;	COMDAT ??_C@_07DCLBNMLN@generic?$AA@
CONST	SEGMENT
??_C@_07DCLBNMLN@generic?$AA@ DB 'generic', 00H		; `string'
CONST	ENDS
;	COMDAT ??_7_Generic_error_category@std@@6B@
CONST	SEGMENT
??_7_Generic_error_category@std@@6B@ DD FLAT:??_R4_Generic_error_category@std@@6B@ ; std::_Generic_error_category::`vftable'
	DD	FLAT:??_E_Generic_error_category@std@@UAEPAXI@Z
	DD	FLAT:?name@_Generic_error_category@std@@UBEPBDXZ
	DD	FLAT:?message@_Generic_error_category@std@@UBE?AV?$basic_string@DU?$char_traits@D@std@@V?$allocator@D@2@@2@H@Z
	DD	FLAT:?default_error_condition@error_category@std@@UBE?AVerror_condition@2@H@Z
	DD	FLAT:?equivalent@error_category@std@@UBE_NABVerror_code@2@H@Z
	DD	FLAT:?equivalent@error_category@std@@UBE_NHABVerror_condition@2@@Z
CONST	ENDS
;	COMDAT ??_7error_category@std@@6B@
CONST	SEGMENT
??_7error_category@std@@6B@ DD FLAT:??_R4error_category@std@@6B@ ; std::error_category::`vftable'
	DD	FLAT:??_Eerror_category@std@@UAEPAXI@Z
	DD	FLAT:__purecall
	DD	FLAT:__purecall
	DD	FLAT:?default_error_condition@error_category@std@@UBE?AVerror_condition@2@H@Z
	DD	FLAT:?equivalent@error_category@std@@UBE_NABVerror_code@2@H@Z
	DD	FLAT:?equivalent@error_category@std@@UBE_NHABVerror_condition@2@@Z
CONST	ENDS
;	COMDAT ??_7_com_error@@6B@
CONST	SEGMENT
??_7_com_error@@6B@ DD FLAT:??_R4_com_error@@6B@	; _com_error::`vftable'
	DD	FLAT:??_E_com_error@@UAEPAXI@Z
CONST	ENDS
;	COMDAT ??_C@_00CNPNBAHC@?$AA@
CONST	SEGMENT
??_C@_00CNPNBAHC@?$AA@ DB 00H				; `string'
CONST	ENDS
;	COMDAT xdata$x
xdata$x	SEGMENT
__catchsym$??$_Uninit_copy@V?$_Vector_const_iterator@V?$_Vector_val@U?$_Simple_types@U_DDSURFACEDESC2@@@std@@@std@@@std@@PAU_DDSURFACEDESC2@@V?$allocator@U_DDSURFACEDESC2@@@2@@std@@YAPAU_DDSURFACEDESC2@@V?$_Vector_const_iterator@V?$_Vector_val@U?$_Simple_types@U_DDSURFACEDESC2@@@std@@@std@@@0@0PAU1@AAU?$_Wrap_alloc@V?$allocator@U_DDSURFACEDESC2@@@std@@@0@U_Nonscalar_ptr_iterator_tag@0@@Z$2 DD 040H
	DD	00H
	DD	00H
	DD	FLAT:__catch$??$_Uninit_copy@V?$_Vector_const_iterator@V?$_Vector_val@U?$_Simple_types@U_DDSURFACEDESC2@@@std@@@std@@@std@@PAU_DDSURFACEDESC2@@V?$allocator@U_DDSURFACEDESC2@@@2@@std@@YAPAU_DDSURFACEDESC2@@V?$_Vector_const_iterator@V?$_Vector_val@U?$_Simple_types@U_DDSURFACEDESC2@@@std@@@std@@@0@0PAU1@AAU?$_Wrap_alloc@V?$allocator@U_DDSURFACEDESC2@@@std@@@0@U_Nonscalar_ptr_iterator_tag@0@@Z$0
__unwindtable$??$_Uninit_copy@V?$_Vector_const_iterator@V?$_Vector_val@U?$_Simple_types@U_DDSURFACEDESC2@@@std@@@std@@@std@@PAU_DDSURFACEDESC2@@V?$allocator@U_DDSURFACEDESC2@@@2@@std@@YAPAU_DDSURFACEDESC2@@V?$_Vector_const_iterator@V?$_Vector_val@U?$_Simple_types@U_DDSURFACEDESC2@@@std@@@std@@@0@0PAU1@AAU?$_Wrap_alloc@V?$allocator@U_DDSURFACEDESC2@@@std@@@0@U_Nonscalar_ptr_iterator_tag@0@@Z DD 0ffffffffH
	DD	00H
	DD	0ffffffffH
	DD	00H
__tryblocktable$??$_Uninit_copy@V?$_Vector_const_iterator@V?$_Vector_val@U?$_Simple_types@U_DDSURFACEDESC2@@@std@@@std@@@std@@PAU_DDSURFACEDESC2@@V?$allocator@U_DDSURFACEDESC2@@@2@@std@@YAPAU_DDSURFACEDESC2@@V?$_Vector_const_iterator@V?$_Vector_val@U?$_Simple_types@U_DDSURFACEDESC2@@@std@@@std@@@0@0PAU1@AAU?$_Wrap_alloc@V?$allocator@U_DDSURFACEDESC2@@@std@@@0@U_Nonscalar_ptr_iterator_tag@0@@Z DD 00H
	DD	00H
	DD	01H
	DD	01H
	DD	FLAT:__catchsym$??$_Uninit_copy@V?$_Vector_const_iterator@V?$_Vector_val@U?$_Simple_types@U_DDSURFACEDESC2@@@std@@@std@@@std@@PAU_DDSURFACEDESC2@@V?$allocator@U_DDSURFACEDESC2@@@2@@std@@YAPAU_DDSURFACEDESC2@@V?$_Vector_const_iterator@V?$_Vector_val@U?$_Simple_types@U_DDSURFACEDESC2@@@std@@@std@@@0@0PAU1@AAU?$_Wrap_alloc@V?$allocator@U_DDSURFACEDESC2@@@std@@@0@U_Nonscalar_ptr_iterator_tag@0@@Z$2
__ehfuncinfo$??$_Uninit_copy@V?$_Vector_const_iterator@V?$_Vector_val@U?$_Simple_types@U_DDSURFACEDESC2@@@std@@@std@@@std@@PAU_DDSURFACEDESC2@@V?$allocator@U_DDSURFACEDESC2@@@2@@std@@YAPAU_DDSURFACEDESC2@@V?$_Vector_const_iterator@V?$_Vector_val@U?$_Simple_types@U_DDSURFACEDESC2@@@std@@@std@@@0@0PAU1@AAU?$_Wrap_alloc@V?$allocator@U_DDSURFACEDESC2@@@std@@@0@U_Nonscalar_ptr_iterator_tag@0@@Z DD 019930522H
	DD	02H
	DD	FLAT:__unwindtable$??$_Uninit_copy@V?$_Vector_const_iterator@V?$_Vector_val@U?$_Simple_types@U_DDSURFACEDESC2@@@std@@@std@@@std@@PAU_DDSURFACEDESC2@@V?$allocator@U_DDSURFACEDESC2@@@2@@std@@YAPAU_DDSURFACEDESC2@@V?$_Vector_const_iterator@V?$_Vector_val@U?$_Simple_types@U_DDSURFACEDESC2@@@std@@@std@@@0@0PAU1@AAU?$_Wrap_alloc@V?$allocator@U_DDSURFACEDESC2@@@std@@@0@U_Nonscalar_ptr_iterator_tag@0@@Z
	DD	01H
	DD	FLAT:__tryblocktable$??$_Uninit_copy@V?$_Vector_const_iterator@V?$_Vector_val@U?$_Simple_types@U_DDSURFACEDESC2@@@std@@@std@@@std@@PAU_DDSURFACEDESC2@@V?$allocator@U_DDSURFACEDESC2@@@2@@std@@YAPAU_DDSURFACEDESC2@@V?$_Vector_const_iterator@V?$_Vector_val@U?$_Simple_types@U_DDSURFACEDESC2@@@std@@@std@@@0@0PAU1@AAU?$_Wrap_alloc@V?$allocator@U_DDSURFACEDESC2@@@std@@@0@U_Nonscalar_ptr_iterator_tag@0@@Z
	DD	2 DUP(00H)
	DD	00H
	DD	01H
xdata$x	ENDS
;	COMDAT xdata$x
xdata$x	SEGMENT
__catchsym$??$_Uninit_copy@V?$_Vector_const_iterator@V?$_Vector_val@U?$_Simple_types@VD3DDeviceInfo@DDDriverInfo@DeviceManager@@@std@@@std@@@std@@PAVD3DDeviceInfo@DDDriverInfo@DeviceManager@@V?$allocator@VD3DDeviceInfo@DDDriverInfo@DeviceManager@@@2@@std@@YAPAVD3DDeviceInfo@DDDriverInfo@DeviceManager@@V?$_Vector_const_iterator@V?$_Vector_val@U?$_Simple_types@VD3DDeviceInfo@DDDriverInfo@DeviceManager@@@std@@@std@@@0@0PAV123@AAU?$_Wrap_alloc@V?$allocator@VD3DDeviceInfo@DDDriverInfo@DeviceManager@@@std@@@0@U_Nonscalar_ptr_iterator_tag@0@@Z$2 DD 040H
	DD	00H
	DD	00H
	DD	FLAT:__catch$??$_Uninit_copy@V?$_Vector_const_iterator@V?$_Vector_val@U?$_Simple_types@VD3DDeviceInfo@DDDriverInfo@DeviceManager@@@std@@@std@@@std@@PAVD3DDeviceInfo@DDDriverInfo@DeviceManager@@V?$allocator@VD3DDeviceInfo@DDDriverInfo@DeviceManager@@@2@@std@@YAPAVD3DDeviceInfo@DDDriverInfo@DeviceManager@@V?$_Vector_const_iterator@V?$_Vector_val@U?$_Simple_types@VD3DDeviceInfo@DDDriverInfo@DeviceManager@@@std@@@std@@@0@0PAV123@AAU?$_Wrap_alloc@V?$allocator@VD3DDeviceInfo@DDDriverInfo@DeviceManager@@@std@@@0@U_Nonscalar_ptr_iterator_tag@0@@Z$0
__unwindtable$??$_Uninit_copy@V?$_Vector_const_iterator@V?$_Vector_val@U?$_Simple_types@VD3DDeviceInfo@DDDriverInfo@DeviceManager@@@std@@@std@@@std@@PAVD3DDeviceInfo@DDDriverInfo@DeviceManager@@V?$allocator@VD3DDeviceInfo@DDDriverInfo@DeviceManager@@@2@@std@@YAPAVD3DDeviceInfo@DDDriverInfo@DeviceManager@@V?$_Vector_const_iterator@V?$_Vector_val@U?$_Simple_types@VD3DDeviceInfo@DDDriverInfo@DeviceManager@@@std@@@std@@@0@0PAV123@AAU?$_Wrap_alloc@V?$allocator@VD3DDeviceInfo@DDDriverInfo@DeviceManager@@@std@@@0@U_Nonscalar_ptr_iterator_tag@0@@Z DD 0ffffffffH
	DD	00H
	DD	0ffffffffH
	DD	00H
__tryblocktable$??$_Uninit_copy@V?$_Vector_const_iterator@V?$_Vector_val@U?$_Simple_types@VD3DDeviceInfo@DDDriverInfo@DeviceManager@@@std@@@std@@@std@@PAVD3DDeviceInfo@DDDriverInfo@DeviceManager@@V?$allocator@VD3DDeviceInfo@DDDriverInfo@DeviceManager@@@2@@std@@YAPAVD3DDeviceInfo@DDDriverInfo@DeviceManager@@V?$_Vector_const_iterator@V?$_Vector_val@U?$_Simple_types@VD3DDeviceInfo@DDDriverInfo@DeviceManager@@@std@@@std@@@0@0PAV123@AAU?$_Wrap_alloc@V?$allocator@VD3DDeviceInfo@DDDriverInfo@DeviceManager@@@std@@@0@U_Nonscalar_ptr_iterator_tag@0@@Z DD 00H
	DD	00H
	DD	01H
	DD	01H
	DD	FLAT:__catchsym$??$_Uninit_copy@V?$_Vector_const_iterator@V?$_Vector_val@U?$_Simple_types@VD3DDeviceInfo@DDDriverInfo@DeviceManager@@@std@@@std@@@std@@PAVD3DDeviceInfo@DDDriverInfo@DeviceManager@@V?$allocator@VD3DDeviceInfo@DDDriverInfo@DeviceManager@@@2@@std@@YAPAVD3DDeviceInfo@DDDriverInfo@DeviceManager@@V?$_Vector_const_iterator@V?$_Vector_val@U?$_Simple_types@VD3DDeviceInfo@DDDriverInfo@DeviceManager@@@std@@@std@@@0@0PAV123@AAU?$_Wrap_alloc@V?$allocator@VD3DDeviceInfo@DDDriverInfo@DeviceManager@@@std@@@0@U_Nonscalar_ptr_iterator_tag@0@@Z$2
__ehfuncinfo$??$_Uninit_copy@V?$_Vector_const_iterator@V?$_Vector_val@U?$_Simple_types@VD3DDeviceInfo@DDDriverInfo@DeviceManager@@@std@@@std@@@std@@PAVD3DDeviceInfo@DDDriverInfo@DeviceManager@@V?$allocator@VD3DDeviceInfo@DDDriverInfo@DeviceManager@@@2@@std@@YAPAVD3DDeviceInfo@DDDriverInfo@DeviceManager@@V?$_Vector_const_iterator@V?$_Vector_val@U?$_Simple_types@VD3DDeviceInfo@DDDriverInfo@DeviceManager@@@std@@@std@@@0@0PAV123@AAU?$_Wrap_alloc@V?$allocator@VD3DDeviceInfo@DDDriverInfo@DeviceManager@@@std@@@0@U_Nonscalar_ptr_iterator_tag@0@@Z DD 019930522H
	DD	02H
	DD	FLAT:__unwindtable$??$_Uninit_copy@V?$_Vector_const_iterator@V?$_Vector_val@U?$_Simple_types@VD3DDeviceInfo@DDDriverInfo@DeviceManager@@@std@@@std@@@std@@PAVD3DDeviceInfo@DDDriverInfo@DeviceManager@@V?$allocator@VD3DDeviceInfo@DDDriverInfo@DeviceManager@@@2@@std@@YAPAVD3DDeviceInfo@DDDriverInfo@DeviceManager@@V?$_Vector_const_iterator@V?$_Vector_val@U?$_Simple_types@VD3DDeviceInfo@DDDriverInfo@DeviceManager@@@std@@@std@@@0@0PAV123@AAU?$_Wrap_alloc@V?$allocator@VD3DDeviceInfo@DDDriverInfo@DeviceManager@@@std@@@0@U_Nonscalar_ptr_iterator_tag@0@@Z
	DD	01H
	DD	FLAT:__tryblocktable$??$_Uninit_copy@V?$_Vector_const_iterator@V?$_Vector_val@U?$_Simple_types@VD3DDeviceInfo@DDDriverInfo@DeviceManager@@@std@@@std@@@std@@PAVD3DDeviceInfo@DDDriverInfo@DeviceManager@@V?$allocator@VD3DDeviceInfo@DDDriverInfo@DeviceManager@@@2@@std@@YAPAVD3DDeviceInfo@DDDriverInfo@DeviceManager@@V?$_Vector_const_iterator@V?$_Vector_val@U?$_Simple_types@VD3DDeviceInfo@DDDriverInfo@DeviceManager@@@std@@@std@@@0@0PAV123@AAU?$_Wrap_alloc@V?$allocator@VD3DDeviceInfo@DDDriverInfo@DeviceManager@@@std@@@0@U_Nonscalar_ptr_iterator_tag@0@@Z
	DD	2 DUP(00H)
	DD	00H
	DD	01H
xdata$x	ENDS
;	COMDAT xdata$x
xdata$x	SEGMENT
__unwindtable$??$construct@U_DDPIXELFORMAT@@U1@@?$allocator@U_DDPIXELFORMAT@@@std@@QAEXPAU_DDPIXELFORMAT@@$$QAU2@@Z DD 0ffffffffH
	DD	FLAT:__unwindfunclet$??$construct@U_DDPIXELFORMAT@@U1@@?$allocator@U_DDPIXELFORMAT@@@std@@QAEXPAU_DDPIXELFORMAT@@$$QAU2@@Z$0
__ehfuncinfo$??$construct@U_DDPIXELFORMAT@@U1@@?$allocator@U_DDPIXELFORMAT@@@std@@QAEXPAU_DDPIXELFORMAT@@$$QAU2@@Z DD 019930522H
	DD	01H
	DD	FLAT:__unwindtable$??$construct@U_DDPIXELFORMAT@@U1@@?$allocator@U_DDPIXELFORMAT@@@std@@QAEXPAU_DDPIXELFORMAT@@$$QAU2@@Z
	DD	2 DUP(00H)
	DD	2 DUP(00H)
	DD	00H
	DD	01H
xdata$x	ENDS
;	COMDAT xdata$x
xdata$x	SEGMENT
__unwindtable$??$construct@U_DDSURFACEDESC2@@U1@@?$allocator@U_DDSURFACEDESC2@@@std@@QAEXPAU_DDSURFACEDESC2@@$$QAU2@@Z DD 0ffffffffH
	DD	FLAT:__unwindfunclet$??$construct@U_DDSURFACEDESC2@@U1@@?$allocator@U_DDSURFACEDESC2@@@std@@QAEXPAU_DDSURFACEDESC2@@$$QAU2@@Z$0
__ehfuncinfo$??$construct@U_DDSURFACEDESC2@@U1@@?$allocator@U_DDSURFACEDESC2@@@std@@QAEXPAU_DDSURFACEDESC2@@$$QAU2@@Z DD 019930522H
	DD	01H
	DD	FLAT:__unwindtable$??$construct@U_DDSURFACEDESC2@@U1@@?$allocator@U_DDSURFACEDESC2@@@std@@QAEXPAU_DDSURFACEDESC2@@$$QAU2@@Z
	DD	2 DUP(00H)
	DD	2 DUP(00H)
	DD	00H
	DD	01H
xdata$x	ENDS
;	COMDAT xdata$x
xdata$x	SEGMENT
__catchsym$??$_Uninit_move@PAU_DDPIXELFORMAT@@PAU1@V?$allocator@U_DDPIXELFORMAT@@@std@@U1@@std@@YAPAU_DDPIXELFORMAT@@PAU1@00AAU?$_Wrap_alloc@V?$allocator@U_DDPIXELFORMAT@@@std@@@0@0U_Nonscalar_ptr_iterator_tag@0@@Z$2 DD 040H
	DD	00H
	DD	00H
	DD	FLAT:__catch$??$_Uninit_move@PAU_DDPIXELFORMAT@@PAU1@V?$allocator@U_DDPIXELFORMAT@@@std@@U1@@std@@YAPAU_DDPIXELFORMAT@@PAU1@00AAU?$_Wrap_alloc@V?$allocator@U_DDPIXELFORMAT@@@std@@@0@0U_Nonscalar_ptr_iterator_tag@0@@Z$0
__unwindtable$??$_Uninit_move@PAU_DDPIXELFORMAT@@PAU1@V?$allocator@U_DDPIXELFORMAT@@@std@@U1@@std@@YAPAU_DDPIXELFORMAT@@PAU1@00AAU?$_Wrap_alloc@V?$allocator@U_DDPIXELFORMAT@@@std@@@0@0U_Nonscalar_ptr_iterator_tag@0@@Z DD 0ffffffffH
	DD	00H
	DD	0ffffffffH
	DD	00H
__tryblocktable$??$_Uninit_move@PAU_DDPIXELFORMAT@@PAU1@V?$allocator@U_DDPIXELFORMAT@@@std@@U1@@std@@YAPAU_DDPIXELFORMAT@@PAU1@00AAU?$_Wrap_alloc@V?$allocator@U_DDPIXELFORMAT@@@std@@@0@0U_Nonscalar_ptr_iterator_tag@0@@Z DD 00H
	DD	00H
	DD	01H
	DD	01H
	DD	FLAT:__catchsym$??$_Uninit_move@PAU_DDPIXELFORMAT@@PAU1@V?$allocator@U_DDPIXELFORMAT@@@std@@U1@@std@@YAPAU_DDPIXELFORMAT@@PAU1@00AAU?$_Wrap_alloc@V?$allocator@U_DDPIXELFORMAT@@@std@@@0@0U_Nonscalar_ptr_iterator_tag@0@@Z$2
__ehfuncinfo$??$_Uninit_move@PAU_DDPIXELFORMAT@@PAU1@V?$allocator@U_DDPIXELFORMAT@@@std@@U1@@std@@YAPAU_DDPIXELFORMAT@@PAU1@00AAU?$_Wrap_alloc@V?$allocator@U_DDPIXELFORMAT@@@std@@@0@0U_Nonscalar_ptr_iterator_tag@0@@Z DD 019930522H
	DD	02H
	DD	FLAT:__unwindtable$??$_Uninit_move@PAU_DDPIXELFORMAT@@PAU1@V?$allocator@U_DDPIXELFORMAT@@@std@@U1@@std@@YAPAU_DDPIXELFORMAT@@PAU1@00AAU?$_Wrap_alloc@V?$allocator@U_DDPIXELFORMAT@@@std@@@0@0U_Nonscalar_ptr_iterator_tag@0@@Z
	DD	01H
	DD	FLAT:__tryblocktable$??$_Uninit_move@PAU_DDPIXELFORMAT@@PAU1@V?$allocator@U_DDPIXELFORMAT@@@std@@U1@@std@@YAPAU_DDPIXELFORMAT@@PAU1@00AAU?$_Wrap_alloc@V?$allocator@U_DDPIXELFORMAT@@@std@@@0@0U_Nonscalar_ptr_iterator_tag@0@@Z
	DD	2 DUP(00H)
	DD	00H
	DD	01H
xdata$x	ENDS
;	COMDAT xdata$x
xdata$x	SEGMENT
__catchsym$??$_Uninit_move@PAVDDDriverInfo@DeviceManager@@PAV12@V?$allocator@VDDDriverInfo@DeviceManager@@@std@@V12@@std@@YAPAVDDDriverInfo@DeviceManager@@PAV12@00AAU?$_Wrap_alloc@V?$allocator@VDDDriverInfo@DeviceManager@@@std@@@0@0U_Nonscalar_ptr_iterator_tag@0@@Z$2 DD 040H
	DD	00H
	DD	00H
	DD	FLAT:__catch$??$_Uninit_move@PAVDDDriverInfo@DeviceManager@@PAV12@V?$allocator@VDDDriverInfo@DeviceManager@@@std@@V12@@std@@YAPAVDDDriverInfo@DeviceManager@@PAV12@00AAU?$_Wrap_alloc@V?$allocator@VDDDriverInfo@DeviceManager@@@std@@@0@0U_Nonscalar_ptr_iterator_tag@0@@Z$0
__unwindtable$??$_Uninit_move@PAVDDDriverInfo@DeviceManager@@PAV12@V?$allocator@VDDDriverInfo@DeviceManager@@@std@@V12@@std@@YAPAVDDDriverInfo@DeviceManager@@PAV12@00AAU?$_Wrap_alloc@V?$allocator@VDDDriverInfo@DeviceManager@@@std@@@0@0U_Nonscalar_ptr_iterator_tag@0@@Z DD 0ffffffffH
	DD	00H
	DD	0ffffffffH
	DD	00H
__tryblocktable$??$_Uninit_move@PAVDDDriverInfo@DeviceManager@@PAV12@V?$allocator@VDDDriverInfo@DeviceManager@@@std@@V12@@std@@YAPAVDDDriverInfo@DeviceManager@@PAV12@00AAU?$_Wrap_alloc@V?$allocator@VDDDriverInfo@DeviceManager@@@std@@@0@0U_Nonscalar_ptr_iterator_tag@0@@Z DD 00H
	DD	00H
	DD	01H
	DD	01H
	DD	FLAT:__catchsym$??$_Uninit_move@PAVDDDriverInfo@DeviceManager@@PAV12@V?$allocator@VDDDriverInfo@DeviceManager@@@std@@V12@@std@@YAPAVDDDriverInfo@DeviceManager@@PAV12@00AAU?$_Wrap_alloc@V?$allocator@VDDDriverInfo@DeviceManager@@@std@@@0@0U_Nonscalar_ptr_iterator_tag@0@@Z$2
__ehfuncinfo$??$_Uninit_move@PAVDDDriverInfo@DeviceManager@@PAV12@V?$allocator@VDDDriverInfo@DeviceManager@@@std@@V12@@std@@YAPAVDDDriverInfo@DeviceManager@@PAV12@00AAU?$_Wrap_alloc@V?$allocator@VDDDriverInfo@DeviceManager@@@std@@@0@0U_Nonscalar_ptr_iterator_tag@0@@Z DD 019930522H
	DD	02H
	DD	FLAT:__unwindtable$??$_Uninit_move@PAVDDDriverInfo@DeviceManager@@PAV12@V?$allocator@VDDDriverInfo@DeviceManager@@@std@@V12@@std@@YAPAVDDDriverInfo@DeviceManager@@PAV12@00AAU?$_Wrap_alloc@V?$allocator@VDDDriverInfo@DeviceManager@@@std@@@0@0U_Nonscalar_ptr_iterator_tag@0@@Z
	DD	01H
	DD	FLAT:__tryblocktable$??$_Uninit_move@PAVDDDriverInfo@DeviceManager@@PAV12@V?$allocator@VDDDriverInfo@DeviceManager@@@std@@V12@@std@@YAPAVDDDriverInfo@DeviceManager@@PAV12@00AAU?$_Wrap_alloc@V?$allocator@VDDDriverInfo@DeviceManager@@@std@@@0@0U_Nonscalar_ptr_iterator_tag@0@@Z
	DD	2 DUP(00H)
	DD	00H
	DD	01H
xdata$x	ENDS
;	COMDAT xdata$x
xdata$x	SEGMENT
__catchsym$??$_Uninit_move@PAU_DDSURFACEDESC2@@PAU1@V?$allocator@U_DDSURFACEDESC2@@@std@@U1@@std@@YAPAU_DDSURFACEDESC2@@PAU1@00AAU?$_Wrap_alloc@V?$allocator@U_DDSURFACEDESC2@@@std@@@0@0U_Nonscalar_ptr_iterator_tag@0@@Z$2 DD 040H
	DD	00H
	DD	00H
	DD	FLAT:__catch$??$_Uninit_move@PAU_DDSURFACEDESC2@@PAU1@V?$allocator@U_DDSURFACEDESC2@@@std@@U1@@std@@YAPAU_DDSURFACEDESC2@@PAU1@00AAU?$_Wrap_alloc@V?$allocator@U_DDSURFACEDESC2@@@std@@@0@0U_Nonscalar_ptr_iterator_tag@0@@Z$0
__unwindtable$??$_Uninit_move@PAU_DDSURFACEDESC2@@PAU1@V?$allocator@U_DDSURFACEDESC2@@@std@@U1@@std@@YAPAU_DDSURFACEDESC2@@PAU1@00AAU?$_Wrap_alloc@V?$allocator@U_DDSURFACEDESC2@@@std@@@0@0U_Nonscalar_ptr_iterator_tag@0@@Z DD 0ffffffffH
	DD	00H
	DD	0ffffffffH
	DD	00H
__tryblocktable$??$_Uninit_move@PAU_DDSURFACEDESC2@@PAU1@V?$allocator@U_DDSURFACEDESC2@@@std@@U1@@std@@YAPAU_DDSURFACEDESC2@@PAU1@00AAU?$_Wrap_alloc@V?$allocator@U_DDSURFACEDESC2@@@std@@@0@0U_Nonscalar_ptr_iterator_tag@0@@Z DD 00H
	DD	00H
	DD	01H
	DD	01H
	DD	FLAT:__catchsym$??$_Uninit_move@PAU_DDSURFACEDESC2@@PAU1@V?$allocator@U_DDSURFACEDESC2@@@std@@U1@@std@@YAPAU_DDSURFACEDESC2@@PAU1@00AAU?$_Wrap_alloc@V?$allocator@U_DDSURFACEDESC2@@@std@@@0@0U_Nonscalar_ptr_iterator_tag@0@@Z$2
__ehfuncinfo$??$_Uninit_move@PAU_DDSURFACEDESC2@@PAU1@V?$allocator@U_DDSURFACEDESC2@@@std@@U1@@std@@YAPAU_DDSURFACEDESC2@@PAU1@00AAU?$_Wrap_alloc@V?$allocator@U_DDSURFACEDESC2@@@std@@@0@0U_Nonscalar_ptr_iterator_tag@0@@Z DD 019930522H
	DD	02H
	DD	FLAT:__unwindtable$??$_Uninit_move@PAU_DDSURFACEDESC2@@PAU1@V?$allocator@U_DDSURFACEDESC2@@@std@@U1@@std@@YAPAU_DDSURFACEDESC2@@PAU1@00AAU?$_Wrap_alloc@V?$allocator@U_DDSURFACEDESC2@@@std@@@0@0U_Nonscalar_ptr_iterator_tag@0@@Z
	DD	01H
	DD	FLAT:__tryblocktable$??$_Uninit_move@PAU_DDSURFACEDESC2@@PAU1@V?$allocator@U_DDSURFACEDESC2@@@std@@U1@@std@@YAPAU_DDSURFACEDESC2@@PAU1@00AAU?$_Wrap_alloc@V?$allocator@U_DDSURFACEDESC2@@@std@@@0@0U_Nonscalar_ptr_iterator_tag@0@@Z
	DD	2 DUP(00H)
	DD	00H
	DD	01H
xdata$x	ENDS
;	COMDAT xdata$x
xdata$x	SEGMENT
__catchsym$??$_Uninit_move@PAVD3DDeviceInfo@DDDriverInfo@DeviceManager@@PAV123@V?$allocator@VD3DDeviceInfo@DDDriverInfo@DeviceManager@@@std@@V123@@std@@YAPAVD3DDeviceInfo@DDDriverInfo@DeviceManager@@PAV123@00AAU?$_Wrap_alloc@V?$allocator@VD3DDeviceInfo@DDDriverInfo@DeviceManager@@@std@@@0@0U_Nonscalar_ptr_iterator_tag@0@@Z$2 DD 040H
	DD	00H
	DD	00H
	DD	FLAT:__catch$??$_Uninit_move@PAVD3DDeviceInfo@DDDriverInfo@DeviceManager@@PAV123@V?$allocator@VD3DDeviceInfo@DDDriverInfo@DeviceManager@@@std@@V123@@std@@YAPAVD3DDeviceInfo@DDDriverInfo@DeviceManager@@PAV123@00AAU?$_Wrap_alloc@V?$allocator@VD3DDeviceInfo@DDDriverInfo@DeviceManager@@@std@@@0@0U_Nonscalar_ptr_iterator_tag@0@@Z$0
__unwindtable$??$_Uninit_move@PAVD3DDeviceInfo@DDDriverInfo@DeviceManager@@PAV123@V?$allocator@VD3DDeviceInfo@DDDriverInfo@DeviceManager@@@std@@V123@@std@@YAPAVD3DDeviceInfo@DDDriverInfo@DeviceManager@@PAV123@00AAU?$_Wrap_alloc@V?$allocator@VD3DDeviceInfo@DDDriverInfo@DeviceManager@@@std@@@0@0U_Nonscalar_ptr_iterator_tag@0@@Z DD 0ffffffffH
	DD	00H
	DD	0ffffffffH
	DD	00H
__tryblocktable$??$_Uninit_move@PAVD3DDeviceInfo@DDDriverInfo@DeviceManager@@PAV123@V?$allocator@VD3DDeviceInfo@DDDriverInfo@DeviceManager@@@std@@V123@@std@@YAPAVD3DDeviceInfo@DDDriverInfo@DeviceManager@@PAV123@00AAU?$_Wrap_alloc@V?$allocator@VD3DDeviceInfo@DDDriverInfo@DeviceManager@@@std@@@0@0U_Nonscalar_ptr_iterator_tag@0@@Z DD 00H
	DD	00H
	DD	01H
	DD	01H
	DD	FLAT:__catchsym$??$_Uninit_move@PAVD3DDeviceInfo@DDDriverInfo@DeviceManager@@PAV123@V?$allocator@VD3DDeviceInfo@DDDriverInfo@DeviceManager@@@std@@V123@@std@@YAPAVD3DDeviceInfo@DDDriverInfo@DeviceManager@@PAV123@00AAU?$_Wrap_alloc@V?$allocator@VD3DDeviceInfo@DDDriverInfo@DeviceManager@@@std@@@0@0U_Nonscalar_ptr_iterator_tag@0@@Z$2
__ehfuncinfo$??$_Uninit_move@PAVD3DDeviceInfo@DDDriverInfo@DeviceManager@@PAV123@V?$allocator@VD3DDeviceInfo@DDDriverInfo@DeviceManager@@@std@@V123@@std@@YAPAVD3DDeviceInfo@DDDriverInfo@DeviceManager@@PAV123@00AAU?$_Wrap_alloc@V?$allocator@VD3DDeviceInfo@DDDriverInfo@DeviceManager@@@std@@@0@0U_Nonscalar_ptr_iterator_tag@0@@Z DD 019930522H
	DD	02H
	DD	FLAT:__unwindtable$??$_Uninit_move@PAVD3DDeviceInfo@DDDriverInfo@DeviceManager@@PAV123@V?$allocator@VD3DDeviceInfo@DDDriverInfo@DeviceManager@@@std@@V123@@std@@YAPAVD3DDeviceInfo@DDDriverInfo@DeviceManager@@PAV123@00AAU?$_Wrap_alloc@V?$allocator@VD3DDeviceInfo@DDDriverInfo@DeviceManager@@@std@@@0@0U_Nonscalar_ptr_iterator_tag@0@@Z
	DD	01H
	DD	FLAT:__tryblocktable$??$_Uninit_move@PAVD3DDeviceInfo@DDDriverInfo@DeviceManager@@PAV123@V?$allocator@VD3DDeviceInfo@DDDriverInfo@DeviceManager@@@std@@V123@@std@@YAPAVD3DDeviceInfo@DDDriverInfo@DeviceManager@@PAV123@00AAU?$_Wrap_alloc@V?$allocator@VD3DDeviceInfo@DDDriverInfo@DeviceManager@@@std@@@0@0U_Nonscalar_ptr_iterator_tag@0@@Z
	DD	2 DUP(00H)
	DD	00H
	DD	01H
xdata$x	ENDS
;	COMDAT xdata$x
xdata$x	SEGMENT
__unwindtable$??$construct@PADAAPAD@?$allocator@D@std@@QAEXPAPADAAPAD@Z DD 0ffffffffH
	DD	FLAT:__unwindfunclet$??$construct@PADAAPAD@?$allocator@D@std@@QAEXPAPADAAPAD@Z$0
__ehfuncinfo$??$construct@PADAAPAD@?$allocator@D@std@@QAEXPAPADAAPAD@Z DD 019930522H
	DD	01H
	DD	FLAT:__unwindtable$??$construct@PADAAPAD@?$allocator@D@std@@QAEXPAPADAAPAD@Z
	DD	2 DUP(00H)
	DD	2 DUP(00H)
	DD	00H
	DD	01H
xdata$x	ENDS
;	COMDAT xdata$x
xdata$x	SEGMENT
__unwindtable$??$construct@U_DDPIXELFORMAT@@AAU1@@?$allocator@U_DDPIXELFORMAT@@@std@@QAEXPAU_DDPIXELFORMAT@@AAU2@@Z DD 0ffffffffH
	DD	FLAT:__unwindfunclet$??$construct@U_DDPIXELFORMAT@@AAU1@@?$allocator@U_DDPIXELFORMAT@@@std@@QAEXPAU_DDPIXELFORMAT@@AAU2@@Z$0
__ehfuncinfo$??$construct@U_DDPIXELFORMAT@@AAU1@@?$allocator@U_DDPIXELFORMAT@@@std@@QAEXPAU_DDPIXELFORMAT@@AAU2@@Z DD 019930522H
	DD	01H
	DD	FLAT:__unwindtable$??$construct@U_DDPIXELFORMAT@@AAU1@@?$allocator@U_DDPIXELFORMAT@@@std@@QAEXPAU_DDPIXELFORMAT@@AAU2@@Z
	DD	2 DUP(00H)
	DD	2 DUP(00H)
	DD	00H
	DD	01H
xdata$x	ENDS
;	COMDAT xdata$x
xdata$x	SEGMENT
__unwindtable$??$construct@VDDDriverInfo@DeviceManager@@V12@@?$allocator@VDDDriverInfo@DeviceManager@@@std@@QAEXPAVDDDriverInfo@DeviceManager@@$$QAV23@@Z DD 0ffffffffH
	DD	FLAT:__unwindfunclet$??$construct@VDDDriverInfo@DeviceManager@@V12@@?$allocator@VDDDriverInfo@DeviceManager@@@std@@QAEXPAVDDDriverInfo@DeviceManager@@$$QAV23@@Z$0
__ehfuncinfo$??$construct@VDDDriverInfo@DeviceManager@@V12@@?$allocator@VDDDriverInfo@DeviceManager@@@std@@QAEXPAVDDDriverInfo@DeviceManager@@$$QAV23@@Z DD 019930522H
	DD	01H
	DD	FLAT:__unwindtable$??$construct@VDDDriverInfo@DeviceManager@@V12@@?$allocator@VDDDriverInfo@DeviceManager@@@std@@QAEXPAVDDDriverInfo@DeviceManager@@$$QAV23@@Z
	DD	2 DUP(00H)
	DD	2 DUP(00H)
	DD	00H
	DD	01H
xdata$x	ENDS
;	COMDAT xdata$x
xdata$x	SEGMENT
__unwindtable$??$construct@U_DDSURFACEDESC2@@AAU1@@?$allocator@U_DDSURFACEDESC2@@@std@@QAEXPAU_DDSURFACEDESC2@@AAU2@@Z DD 0ffffffffH
	DD	FLAT:__unwindfunclet$??$construct@U_DDSURFACEDESC2@@AAU1@@?$allocator@U_DDSURFACEDESC2@@@std@@QAEXPAU_DDSURFACEDESC2@@AAU2@@Z$0
__ehfuncinfo$??$construct@U_DDSURFACEDESC2@@AAU1@@?$allocator@U_DDSURFACEDESC2@@@std@@QAEXPAU_DDSURFACEDESC2@@AAU2@@Z DD 019930522H
	DD	01H
	DD	FLAT:__unwindtable$??$construct@U_DDSURFACEDESC2@@AAU1@@?$allocator@U_DDSURFACEDESC2@@@std@@QAEXPAU_DDSURFACEDESC2@@AAU2@@Z
	DD	2 DUP(00H)
	DD	2 DUP(00H)
	DD	00H
	DD	01H
xdata$x	ENDS
;	COMDAT xdata$x
xdata$x	SEGMENT
__unwindtable$??$construct@VD3DDeviceInfo@DDDriverInfo@DeviceManager@@V123@@?$allocator@VD3DDeviceInfo@DDDriverInfo@DeviceManager@@@std@@QAEXPAVD3DDeviceInfo@DDDriverInfo@DeviceManager@@$$QAV234@@Z DD 0ffffffffH
	DD	FLAT:__unwindfunclet$??$construct@VD3DDeviceInfo@DDDriverInfo@DeviceManager@@V123@@?$allocator@VD3DDeviceInfo@DDDriverInfo@DeviceManager@@@std@@QAEXPAVD3DDeviceInfo@DDDriverInfo@DeviceManager@@$$QAV234@@Z$0
__ehfuncinfo$??$construct@VD3DDeviceInfo@DDDriverInfo@DeviceManager@@V123@@?$allocator@VD3DDeviceInfo@DDDriverInfo@DeviceManager@@@std@@QAEXPAVD3DDeviceInfo@DDDriverInfo@DeviceManager@@$$QAV234@@Z DD 019930522H
	DD	01H
	DD	FLAT:__unwindtable$??$construct@VD3DDeviceInfo@DDDriverInfo@DeviceManager@@V123@@?$allocator@VD3DDeviceInfo@DDDriverInfo@DeviceManager@@@std@@QAEXPAVD3DDeviceInfo@DDDriverInfo@DeviceManager@@$$QAV234@@Z
	DD	2 DUP(00H)
	DD	2 DUP(00H)
	DD	00H
	DD	01H
xdata$x	ENDS
;	COMDAT xdata$x
xdata$x	SEGMENT
__catchsym$?_Reallocate@?$vector@U_DDPIXELFORMAT@@V?$allocator@U_DDPIXELFORMAT@@@std@@@std@@IAEXI@Z$2 DD 040H
	DD	00H
	DD	00H
	DD	FLAT:__catch$?_Reallocate@?$vector@U_DDPIXELFORMAT@@V?$allocator@U_DDPIXELFORMAT@@@std@@@std@@IAEXI@Z$0
__unwindtable$?_Reallocate@?$vector@U_DDPIXELFORMAT@@V?$allocator@U_DDPIXELFORMAT@@@std@@@std@@IAEXI@Z DD 0ffffffffH
	DD	00H
	DD	0ffffffffH
	DD	00H
__tryblocktable$?_Reallocate@?$vector@U_DDPIXELFORMAT@@V?$allocator@U_DDPIXELFORMAT@@@std@@@std@@IAEXI@Z DD 00H
	DD	00H
	DD	01H
	DD	01H
	DD	FLAT:__catchsym$?_Reallocate@?$vector@U_DDPIXELFORMAT@@V?$allocator@U_DDPIXELFORMAT@@@std@@@std@@IAEXI@Z$2
__ehfuncinfo$?_Reallocate@?$vector@U_DDPIXELFORMAT@@V?$allocator@U_DDPIXELFORMAT@@@std@@@std@@IAEXI@Z DD 019930522H
	DD	02H
	DD	FLAT:__unwindtable$?_Reallocate@?$vector@U_DDPIXELFORMAT@@V?$allocator@U_DDPIXELFORMAT@@@std@@@std@@IAEXI@Z
	DD	01H
	DD	FLAT:__tryblocktable$?_Reallocate@?$vector@U_DDPIXELFORMAT@@V?$allocator@U_DDPIXELFORMAT@@@std@@@std@@IAEXI@Z
	DD	2 DUP(00H)
	DD	00H
	DD	01H
xdata$x	ENDS
;	COMDAT xdata$x
xdata$x	SEGMENT
__catchsym$?_Reallocate@?$vector@VDDDriverInfo@DeviceManager@@V?$allocator@VDDDriverInfo@DeviceManager@@@std@@@std@@IAEXI@Z$2 DD 040H
	DD	00H
	DD	00H
	DD	FLAT:__catch$?_Reallocate@?$vector@VDDDriverInfo@DeviceManager@@V?$allocator@VDDDriverInfo@DeviceManager@@@std@@@std@@IAEXI@Z$0
__unwindtable$?_Reallocate@?$vector@VDDDriverInfo@DeviceManager@@V?$allocator@VDDDriverInfo@DeviceManager@@@std@@@std@@IAEXI@Z DD 0ffffffffH
	DD	00H
	DD	0ffffffffH
	DD	00H
__tryblocktable$?_Reallocate@?$vector@VDDDriverInfo@DeviceManager@@V?$allocator@VDDDriverInfo@DeviceManager@@@std@@@std@@IAEXI@Z DD 00H
	DD	00H
	DD	01H
	DD	01H
	DD	FLAT:__catchsym$?_Reallocate@?$vector@VDDDriverInfo@DeviceManager@@V?$allocator@VDDDriverInfo@DeviceManager@@@std@@@std@@IAEXI@Z$2
__ehfuncinfo$?_Reallocate@?$vector@VDDDriverInfo@DeviceManager@@V?$allocator@VDDDriverInfo@DeviceManager@@@std@@@std@@IAEXI@Z DD 019930522H
	DD	02H
	DD	FLAT:__unwindtable$?_Reallocate@?$vector@VDDDriverInfo@DeviceManager@@V?$allocator@VDDDriverInfo@DeviceManager@@@std@@@std@@IAEXI@Z
	DD	01H
	DD	FLAT:__tryblocktable$?_Reallocate@?$vector@VDDDriverInfo@DeviceManager@@V?$allocator@VDDDriverInfo@DeviceManager@@@std@@@std@@IAEXI@Z
	DD	2 DUP(00H)
	DD	00H
	DD	01H
xdata$x	ENDS
;	COMDAT xdata$x
xdata$x	SEGMENT
__unwindtable$??0DDDriverInfo@DeviceManager@@QAE@ABV01@@Z DD 0ffffffffH
	DD	FLAT:__unwindfunclet$??0DDDriverInfo@DeviceManager@@QAE@ABV01@@Z$0
	DD	00H
	DD	FLAT:__unwindfunclet$??0DDDriverInfo@DeviceManager@@QAE@ABV01@@Z$1
	DD	01H
	DD	FLAT:__unwindfunclet$??0DDDriverInfo@DeviceManager@@QAE@ABV01@@Z$2
__ehfuncinfo$??0DDDriverInfo@DeviceManager@@QAE@ABV01@@Z DD 019930522H
	DD	03H
	DD	FLAT:__unwindtable$??0DDDriverInfo@DeviceManager@@QAE@ABV01@@Z
	DD	2 DUP(00H)
	DD	2 DUP(00H)
	DD	00H
	DD	01H
xdata$x	ENDS
;	COMDAT xdata$x
xdata$x	SEGMENT
__catchsym$?_Reallocate@?$vector@U_DDSURFACEDESC2@@V?$allocator@U_DDSURFACEDESC2@@@std@@@std@@IAEXI@Z$2 DD 040H
	DD	00H
	DD	00H
	DD	FLAT:__catch$?_Reallocate@?$vector@U_DDSURFACEDESC2@@V?$allocator@U_DDSURFACEDESC2@@@std@@@std@@IAEXI@Z$0
__unwindtable$?_Reallocate@?$vector@U_DDSURFACEDESC2@@V?$allocator@U_DDSURFACEDESC2@@@std@@@std@@IAEXI@Z DD 0ffffffffH
	DD	00H
	DD	0ffffffffH
	DD	00H
__tryblocktable$?_Reallocate@?$vector@U_DDSURFACEDESC2@@V?$allocator@U_DDSURFACEDESC2@@@std@@@std@@IAEXI@Z DD 00H
	DD	00H
	DD	01H
	DD	01H
	DD	FLAT:__catchsym$?_Reallocate@?$vector@U_DDSURFACEDESC2@@V?$allocator@U_DDSURFACEDESC2@@@std@@@std@@IAEXI@Z$2
__ehfuncinfo$?_Reallocate@?$vector@U_DDSURFACEDESC2@@V?$allocator@U_DDSURFACEDESC2@@@std@@@std@@IAEXI@Z DD 019930522H
	DD	02H
	DD	FLAT:__unwindtable$?_Reallocate@?$vector@U_DDSURFACEDESC2@@V?$allocator@U_DDSURFACEDESC2@@@std@@@std@@IAEXI@Z
	DD	01H
	DD	FLAT:__tryblocktable$?_Reallocate@?$vector@U_DDSURFACEDESC2@@V?$allocator@U_DDSURFACEDESC2@@@std@@@std@@IAEXI@Z
	DD	2 DUP(00H)
	DD	00H
	DD	01H
xdata$x	ENDS
;	COMDAT xdata$x
xdata$x	SEGMENT
__catchsym$??0?$vector@U_DDSURFACEDESC2@@V?$allocator@U_DDSURFACEDESC2@@@std@@@std@@QAE@ABV01@@Z$2 DD 040H
	DD	00H
	DD	00H
	DD	FLAT:__catch$??0?$vector@U_DDSURFACEDESC2@@V?$allocator@U_DDSURFACEDESC2@@@std@@@std@@QAE@ABV01@@Z$0
__unwindtable$??0?$vector@U_DDSURFACEDESC2@@V?$allocator@U_DDSURFACEDESC2@@@std@@@std@@QAE@ABV01@@Z DD 0ffffffffH
	DD	00H
	DD	0ffffffffH
	DD	00H
__tryblocktable$??0?$vector@U_DDSURFACEDESC2@@V?$allocator@U_DDSURFACEDESC2@@@std@@@std@@QAE@ABV01@@Z DD 00H
	DD	00H
	DD	01H
	DD	01H
	DD	FLAT:__catchsym$??0?$vector@U_DDSURFACEDESC2@@V?$allocator@U_DDSURFACEDESC2@@@std@@@std@@QAE@ABV01@@Z$2
__ehfuncinfo$??0?$vector@U_DDSURFACEDESC2@@V?$allocator@U_DDSURFACEDESC2@@@std@@@std@@QAE@ABV01@@Z DD 019930522H
	DD	02H
	DD	FLAT:__unwindtable$??0?$vector@U_DDSURFACEDESC2@@V?$allocator@U_DDSURFACEDESC2@@@std@@@std@@QAE@ABV01@@Z
	DD	01H
	DD	FLAT:__tryblocktable$??0?$vector@U_DDSURFACEDESC2@@V?$allocator@U_DDSURFACEDESC2@@@std@@@std@@QAE@ABV01@@Z
	DD	2 DUP(00H)
	DD	00H
	DD	01H
xdata$x	ENDS
;	COMDAT xdata$x
xdata$x	SEGMENT
__catchsym$?_Reallocate@?$vector@VD3DDeviceInfo@DDDriverInfo@DeviceManager@@V?$allocator@VD3DDeviceInfo@DDDriverInfo@DeviceManager@@@std@@@std@@IAEXI@Z$2 DD 040H
	DD	00H
	DD	00H
	DD	FLAT:__catch$?_Reallocate@?$vector@VD3DDeviceInfo@DDDriverInfo@DeviceManager@@V?$allocator@VD3DDeviceInfo@DDDriverInfo@DeviceManager@@@std@@@std@@IAEXI@Z$0
__unwindtable$?_Reallocate@?$vector@VD3DDeviceInfo@DDDriverInfo@DeviceManager@@V?$allocator@VD3DDeviceInfo@DDDriverInfo@DeviceManager@@@std@@@std@@IAEXI@Z DD 0ffffffffH
	DD	00H
	DD	0ffffffffH
	DD	00H
__tryblocktable$?_Reallocate@?$vector@VD3DDeviceInfo@DDDriverInfo@DeviceManager@@V?$allocator@VD3DDeviceInfo@DDDriverInfo@DeviceManager@@@std@@@std@@IAEXI@Z DD 00H
	DD	00H
	DD	01H
	DD	01H
	DD	FLAT:__catchsym$?_Reallocate@?$vector@VD3DDeviceInfo@DDDriverInfo@DeviceManager@@V?$allocator@VD3DDeviceInfo@DDDriverInfo@DeviceManager@@@std@@@std@@IAEXI@Z$2
__ehfuncinfo$?_Reallocate@?$vector@VD3DDeviceInfo@DDDriverInfo@DeviceManager@@V?$allocator@VD3DDeviceInfo@DDDriverInfo@DeviceManager@@@std@@@std@@IAEXI@Z DD 019930522H
	DD	02H
	DD	FLAT:__unwindtable$?_Reallocate@?$vector@VD3DDeviceInfo@DDDriverInfo@DeviceManager@@V?$allocator@VD3DDeviceInfo@DDDriverInfo@DeviceManager@@@std@@@std@@IAEXI@Z
	DD	01H
	DD	FLAT:__tryblocktable$?_Reallocate@?$vector@VD3DDeviceInfo@DDDriverInfo@DeviceManager@@V?$allocator@VD3DDeviceInfo@DDDriverInfo@DeviceManager@@@std@@@std@@IAEXI@Z
	DD	2 DUP(00H)
	DD	00H
	DD	01H
xdata$x	ENDS
;	COMDAT xdata$x
xdata$x	SEGMENT
__catchsym$??0?$vector@VD3DDeviceInfo@DDDriverInfo@DeviceManager@@V?$allocator@VD3DDeviceInfo@DDDriverInfo@DeviceManager@@@std@@@std@@QAE@ABV01@@Z$2 DD 040H
	DD	00H
	DD	00H
	DD	FLAT:__catch$??0?$vector@VD3DDeviceInfo@DDDriverInfo@DeviceManager@@V?$allocator@VD3DDeviceInfo@DDDriverInfo@DeviceManager@@@std@@@std@@QAE@ABV01@@Z$0
__unwindtable$??0?$vector@VD3DDeviceInfo@DDDriverInfo@DeviceManager@@V?$allocator@VD3DDeviceInfo@DDDriverInfo@DeviceManager@@@std@@@std@@QAE@ABV01@@Z DD 0ffffffffH
	DD	00H
	DD	0ffffffffH
	DD	00H
__tryblocktable$??0?$vector@VD3DDeviceInfo@DDDriverInfo@DeviceManager@@V?$allocator@VD3DDeviceInfo@DDDriverInfo@DeviceManager@@@std@@@std@@QAE@ABV01@@Z DD 00H
	DD	00H
	DD	01H
	DD	01H
	DD	FLAT:__catchsym$??0?$vector@VD3DDeviceInfo@DDDriverInfo@DeviceManager@@V?$allocator@VD3DDeviceInfo@DDDriverInfo@DeviceManager@@@std@@@std@@QAE@ABV01@@Z$2
__ehfuncinfo$??0?$vector@VD3DDeviceInfo@DDDriverInfo@DeviceManager@@V?$allocator@VD3DDeviceInfo@DDDriverInfo@DeviceManager@@@std@@@std@@QAE@ABV01@@Z DD 019930522H
	DD	02H
	DD	FLAT:__unwindtable$??0?$vector@VD3DDeviceInfo@DDDriverInfo@DeviceManager@@V?$allocator@VD3DDeviceInfo@DDDriverInfo@DeviceManager@@@std@@@std@@QAE@ABV01@@Z
	DD	01H
	DD	FLAT:__tryblocktable$??0?$vector@VD3DDeviceInfo@DDDriverInfo@DeviceManager@@V?$allocator@VD3DDeviceInfo@DDDriverInfo@DeviceManager@@@std@@@std@@QAE@ABV01@@Z
	DD	2 DUP(00H)
	DD	00H
	DD	01H
xdata$x	ENDS
;	COMDAT xdata$x
xdata$x	SEGMENT
__unwindtable$?construct@?$allocator@VD3DDeviceInfo@DDDriverInfo@DeviceManager@@@std@@QAEXPAVD3DDeviceInfo@DDDriverInfo@DeviceManager@@ABV345@@Z DD 0ffffffffH
	DD	FLAT:__unwindfunclet$?construct@?$allocator@VD3DDeviceInfo@DDDriverInfo@DeviceManager@@@std@@QAEXPAVD3DDeviceInfo@DDDriverInfo@DeviceManager@@ABV345@@Z$0
__ehfuncinfo$?construct@?$allocator@VD3DDeviceInfo@DDDriverInfo@DeviceManager@@@std@@QAEXPAVD3DDeviceInfo@DDDriverInfo@DeviceManager@@ABV345@@Z DD 019930522H
	DD	01H
	DD	FLAT:__unwindtable$?construct@?$allocator@VD3DDeviceInfo@DDDriverInfo@DeviceManager@@@std@@QAEXPAVD3DDeviceInfo@DDDriverInfo@DeviceManager@@ABV345@@Z
	DD	2 DUP(00H)
	DD	2 DUP(00H)
	DD	00H
	DD	01H
xdata$x	ENDS
;	COMDAT xdata$x
xdata$x	SEGMENT
__unwindtable$??0D3DDeviceInfo@DDDriverInfo@DeviceManager@@QAE@ABV012@@Z DD 0ffffffffH
	DD	FLAT:__unwindfunclet$??0D3DDeviceInfo@DDDriverInfo@DeviceManager@@QAE@ABV012@@Z$0
__ehfuncinfo$??0D3DDeviceInfo@DDDriverInfo@DeviceManager@@QAE@ABV012@@Z DD 019930522H
	DD	01H
	DD	FLAT:__unwindtable$??0D3DDeviceInfo@DDDriverInfo@DeviceManager@@QAE@ABV012@@Z
	DD	2 DUP(00H)
	DD	2 DUP(00H)
	DD	00H
	DD	01H
xdata$x	ENDS
xdata$x	SEGMENT
__unwindtable$?EnumDDCallbackEx@DeviceManager@@SGHPAU_GUID@@PAD1PAXPAUHMONITOR__@@@Z DD 0ffffffffH
	DD	FLAT:__unwindfunclet$?EnumDDCallbackEx@DeviceManager@@SGHPAU_GUID@@PAD1PAXPAUHMONITOR__@@@Z$0
__unwindtable$?EnumD3DDriversCallback@DDDriverInfo@DeviceManager@@SGJPAD0PAU_D3DDeviceDesc7@@PAX@Z DD 0ffffffffH
	DD	FLAT:__unwindfunclet$?EnumD3DDriversCallback@DDDriverInfo@DeviceManager@@SGJPAD0PAU_D3DDeviceDesc7@@PAX@Z$0
__catchsym$?CreateContext@DeviceManager@@QAEPAVDXContext@@HHHHPAUHWND__@@@Z$4 DD 00H
	DD	FLAT:??_R0?AV_com_error@@@8
	DD	0ffffff98H
	DD	FLAT:__catch$?CreateContext@DeviceManager@@QAEPAVDXContext@@HHHHPAUHWND__@@@Z$0
__catchsym$?Setup@DeviceManager@@QAEXH@Z$3 DD 00H
	DD	FLAT:??_R0?AV_com_error@@@8
	DD	0ffffffdcH
	DD	FLAT:__catch$?Setup@DeviceManager@@QAEXH@Z$0
__unwindtable$?Setup@DeviceManager@@QAEXH@Z DD 0ffffffffH
	DD	00H
	DD	0ffffffffH
	DD	00H
__catchsym$?EnumD3DDrivers@DDDriverInfo@DeviceManager@@QAEXXZ$6 DD 00H
	DD	FLAT:??_R0?AV_com_error@@@8
	DD	0ffffffb0H
	DD	FLAT:__catch$?EnumD3DDrivers@DDDriverInfo@DeviceManager@@QAEXXZ$0
__unwindtable$??0D3DDeviceInfo@DDDriverInfo@DeviceManager@@QAE@AAU_D3DDeviceDesc7@@PAD1@Z DD 0ffffffffH
	DD	FLAT:__unwindfunclet$??0D3DDeviceInfo@DDDriverInfo@DeviceManager@@QAE@AAU_D3DDeviceDesc7@@PAD1@Z$0
	DD	00H
	DD	FLAT:__unwindfunclet$??0D3DDeviceInfo@DDDriverInfo@DeviceManager@@QAE@AAU_D3DDeviceDesc7@@PAD1@Z$1
__unwindtable$?AttachDepthBuffer@DXContext@@IAEXPAUIDirectDrawSurface7@@@Z DD 0ffffffffH
	DD	FLAT:__unwindfunclet$?AttachDepthBuffer@DXContext@@IAEXPAUIDirectDrawSurface7@@@Z$0
	DD	00H
	DD	FLAT:__unwindfunclet$?AttachDepthBuffer@DXContext@@IAEXPAUIDirectDrawSurface7@@@Z$1
__catchsym$?SetRenderTarget@DXContext@@QAE_NPAUIDirectDrawSurface7@@@Z$7 DD 00H
	DD	FLAT:??_R0?AV_com_error@@@8
	DD	0fffffed0H
	DD	FLAT:__catch$?SetRenderTarget@DXContext@@QAE_NPAUIDirectDrawSurface7@@@Z$0
__catchsym$?Init@DXContext@@QAE_NPAUHWND__@@HHH_N@Z$3 DD 00H
	DD	FLAT:??_R0?AV_com_error@@@8
	DD	0ffffffc4H
	DD	FLAT:__catch$?Init@DXContext@@QAE_NPAUHWND__@@HHH_N@Z$0
__unwindtable$?Init@DXContext@@QAE_NPAUHWND__@@HHH_N@Z DD 0ffffffffH
	DD	00H
	DD	0ffffffffH
	DD	00H
__tryblocktable$?CreateContext@DeviceManager@@QAEPAVDXContext@@HHHHPAUHWND__@@@Z DD 00H
	DD	01H
	DD	02H
	DD	01H
	DD	FLAT:__catchsym$?CreateContext@DeviceManager@@QAEPAVDXContext@@HHHHPAUHWND__@@@Z$4
__tryblocktable$?Setup@DeviceManager@@QAEXH@Z DD 00H
	DD	00H
	DD	01H
	DD	01H
	DD	FLAT:__catchsym$?Setup@DeviceManager@@QAEXH@Z$3
__tryblocktable$?EnumD3DDrivers@DDDriverInfo@DeviceManager@@QAEXXZ DD 00H
	DD	03H
	DD	04H
	DD	01H
	DD	FLAT:__catchsym$?EnumD3DDrivers@DDDriverInfo@DeviceManager@@QAEXXZ$6
__tryblocktable$?SetRenderTarget@DXContext@@QAE_NPAUIDirectDrawSurface7@@@Z DD 00H
	DD	04H
	DD	05H
	DD	01H
	DD	FLAT:__catchsym$?SetRenderTarget@DXContext@@QAE_NPAUIDirectDrawSurface7@@@Z$7
__tryblocktable$?Init@DXContext@@QAE_NPAUHWND__@@HHH_N@Z DD 00H
	DD	00H
	DD	01H
	DD	01H
	DD	FLAT:__catchsym$?Init@DXContext@@QAE_NPAUHWND__@@HHH_N@Z$3
__unwindtable$?CreateContext@DeviceManager@@QAEPAVDXContext@@HHHHPAUHWND__@@@Z DD 0ffffffffH
	DD	00H
	DD	00H
	DD	FLAT:__unwindfunclet$?CreateContext@DeviceManager@@QAEPAVDXContext@@HHHHPAUHWND__@@@Z$2
	DD	0ffffffffH
	DD	00H
__unwindtable$??0DDDriverInfo@DeviceManager@@QAE@U_GUID@@PBD1@Z DD 0ffffffffH
	DD	FLAT:__unwindfunclet$??0DDDriverInfo@DeviceManager@@QAE@U_GUID@@PBD1@Z$0
	DD	00H
	DD	FLAT:__unwindfunclet$??0DDDriverInfo@DeviceManager@@QAE@U_GUID@@PBD1@Z$1
	DD	01H
	DD	FLAT:__unwindfunclet$??0DDDriverInfo@DeviceManager@@QAE@U_GUID@@PBD1@Z$2
	DD	02H
	DD	FLAT:__unwindfunclet$??0DDDriverInfo@DeviceManager@@QAE@U_GUID@@PBD1@Z$3
__ehfuncinfo$?CreateContext@DeviceManager@@QAEPAVDXContext@@HHHHPAUHWND__@@@Z DD 019930522H
	DD	03H
	DD	FLAT:__unwindtable$?CreateContext@DeviceManager@@QAEPAVDXContext@@HHHHPAUHWND__@@@Z
	DD	01H
	DD	FLAT:__tryblocktable$?CreateContext@DeviceManager@@QAEPAVDXContext@@HHHHPAUHWND__@@@Z
	DD	2 DUP(00H)
	DD	00H
	DD	01H
__ehfuncinfo$?EnumDDCallbackEx@DeviceManager@@SGHPAU_GUID@@PAD1PAXPAUHMONITOR__@@@Z DD 019930522H
	DD	01H
	DD	FLAT:__unwindtable$?EnumDDCallbackEx@DeviceManager@@SGHPAU_GUID@@PAD1PAXPAUHMONITOR__@@@Z
	DD	2 DUP(00H)
	DD	2 DUP(00H)
	DD	00H
	DD	01H
__ehfuncinfo$?Setup@DeviceManager@@QAEXH@Z DD 019930522H
	DD	02H
	DD	FLAT:__unwindtable$?Setup@DeviceManager@@QAEXH@Z
	DD	01H
	DD	FLAT:__tryblocktable$?Setup@DeviceManager@@QAEXH@Z
	DD	2 DUP(00H)
	DD	00H
	DD	01H
__ehfuncinfo$?EnumD3DDriversCallback@DDDriverInfo@DeviceManager@@SGJPAD0PAU_D3DDeviceDesc7@@PAX@Z DD 019930522H
	DD	01H
	DD	FLAT:__unwindtable$?EnumD3DDriversCallback@DDDriverInfo@DeviceManager@@SGJPAD0PAU_D3DDeviceDesc7@@PAX@Z
	DD	2 DUP(00H)
	DD	2 DUP(00H)
	DD	00H
	DD	01H
__ehfuncinfo$?EnumD3DDrivers@DDDriverInfo@DeviceManager@@QAEXXZ DD 019930522H
	DD	05H
	DD	FLAT:__unwindtable$?EnumD3DDrivers@DDDriverInfo@DeviceManager@@QAEXXZ
	DD	01H
	DD	FLAT:__tryblocktable$?EnumD3DDrivers@DDDriverInfo@DeviceManager@@QAEXXZ
	DD	2 DUP(00H)
	DD	00H
	DD	01H
__ehfuncinfo$??0D3DDeviceInfo@DDDriverInfo@DeviceManager@@QAE@AAU_D3DDeviceDesc7@@PAD1@Z DD 019930522H
	DD	02H
	DD	FLAT:__unwindtable$??0D3DDeviceInfo@DDDriverInfo@DeviceManager@@QAE@AAU_D3DDeviceDesc7@@PAD1@Z
	DD	2 DUP(00H)
	DD	2 DUP(00H)
	DD	00H
	DD	01H
__ehfuncinfo$??0DDDriverInfo@DeviceManager@@QAE@U_GUID@@PBD1@Z DD 019930522H
	DD	04H
	DD	FLAT:__unwindtable$??0DDDriverInfo@DeviceManager@@QAE@U_GUID@@PBD1@Z
	DD	2 DUP(00H)
	DD	2 DUP(00H)
	DD	00H
	DD	01H
__ehfuncinfo$?AttachDepthBuffer@DXContext@@IAEXPAUIDirectDrawSurface7@@@Z DD 019930522H
	DD	02H
	DD	FLAT:__unwindtable$?AttachDepthBuffer@DXContext@@IAEXPAUIDirectDrawSurface7@@@Z
	DD	2 DUP(00H)
	DD	2 DUP(00H)
	DD	00H
	DD	01H
__ehfuncinfo$?SetRenderTarget@DXContext@@QAE_NPAUIDirectDrawSurface7@@@Z DD 019930522H
	DD	06H
	DD	FLAT:__unwindtable$?SetRenderTarget@DXContext@@QAE_NPAUIDirectDrawSurface7@@@Z
	DD	01H
	DD	FLAT:__tryblocktable$?SetRenderTarget@DXContext@@QAE_NPAUIDirectDrawSurface7@@@Z
	DD	2 DUP(00H)
	DD	00H
	DD	01H
__ehfuncinfo$?Init@DXContext@@QAE_NPAUHWND__@@HHH_N@Z DD 019930522H
	DD	02H
	DD	FLAT:__unwindtable$?Init@DXContext@@QAE_NPAUHWND__@@HHH_N@Z
	DD	01H
	DD	FLAT:__tryblocktable$?Init@DXContext@@QAE_NPAUHWND__@@HHH_N@Z
	DD	2 DUP(00H)
	DD	00H
	DD	01H
__unwindtable$?EnumD3DDrivers@DDDriverInfo@DeviceManager@@QAEXXZ DD 0ffffffffH
	DD	00H
	DD	00H
	DD	FLAT:__unwindfunclet$?EnumD3DDrivers@DDDriverInfo@DeviceManager@@QAEXXZ$2
	DD	01H
	DD	FLAT:__unwindfunclet$?EnumD3DDrivers@DDDriverInfo@DeviceManager@@QAEXXZ$3
	DD	02H
	DD	FLAT:__unwindfunclet$?EnumD3DDrivers@DDDriverInfo@DeviceManager@@QAEXXZ$4
	DD	0ffffffffH
	DD	00H
__unwindtable$?SetRenderTarget@DXContext@@QAE_NPAUIDirectDrawSurface7@@@Z DD 0ffffffffH
	DD	00H
	DD	00H
	DD	FLAT:__unwindfunclet$?SetRenderTarget@DXContext@@QAE_NPAUIDirectDrawSurface7@@@Z$2
	DD	00H
	DD	FLAT:__unwindfunclet$?SetRenderTarget@DXContext@@QAE_NPAUIDirectDrawSurface7@@@Z$3
	DD	02H
	DD	FLAT:__unwindfunclet$?SetRenderTarget@DXContext@@QAE_NPAUIDirectDrawSurface7@@@Z$4
	DD	03H
	DD	FLAT:__unwindfunclet$?SetRenderTarget@DXContext@@QAE_NPAUIDirectDrawSurface7@@@Z$5
	DD	0ffffffffH
	DD	00H
xdata$x	ENDS
;	COMDAT xdata$x
xdata$x	SEGMENT
__catchsym$?_Copy@?$basic_string@DU?$char_traits@D@std@@V?$allocator@D@2@@std@@QAEXII@Z$5 DD 040H
	DD	00H
	DD	00H
	DD	FLAT:__catch$?_Copy@?$basic_string@DU?$char_traits@D@std@@V?$allocator@D@2@@std@@QAEXII@Z$0
__catchsym$?_Copy@?$basic_string@DU?$char_traits@D@std@@V?$allocator@D@2@@std@@QAEXII@Z$4 DD 040H
	DD	00H
	DD	00H
	DD	FLAT:__catch$?_Copy@?$basic_string@DU?$char_traits@D@std@@V?$allocator@D@2@@std@@QAEXII@Z$1
__unwindtable$?_Copy@?$basic_string@DU?$char_traits@D@std@@V?$allocator@D@2@@std@@QAEXII@Z DD 0ffffffffH
	DD	00H
	DD	0ffffffffH
	DD	00H
	DD	01H
	DD	00H
	DD	01H
	DD	00H
__ehfuncinfo$?_Copy@?$basic_string@DU?$char_traits@D@std@@V?$allocator@D@2@@std@@QAEXII@Z DD 019930522H
	DD	04H
	DD	FLAT:__unwindtable$?_Copy@?$basic_string@DU?$char_traits@D@std@@V?$allocator@D@2@@std@@QAEXII@Z
	DD	02H
	DD	FLAT:__tryblocktable$?_Copy@?$basic_string@DU?$char_traits@D@std@@V?$allocator@D@2@@std@@QAEXII@Z
	DD	2 DUP(00H)
	DD	00H
	DD	01H
__tryblocktable$?_Copy@?$basic_string@DU?$char_traits@D@std@@V?$allocator@D@2@@std@@QAEXII@Z DD 02H
	DD	02H
	DD	03H
	DD	01H
	DD	FLAT:__catchsym$?_Copy@?$basic_string@DU?$char_traits@D@std@@V?$allocator@D@2@@std@@QAEXII@Z$4
	DD	00H
	DD	00H
	DD	03H
	DD	01H
	DD	FLAT:__catchsym$?_Copy@?$basic_string@DU?$char_traits@D@std@@V?$allocator@D@2@@std@@QAEXII@Z$5
xdata$x	ENDS
CRT$XCU	SEGMENT
_allocator_arg$initializer$ DD FLAT:??__Eallocator_arg@std@@YAXXZ
CRT$XCU	ENDS
;	COMDAT CRT$XCU
CRT$XCU	SEGMENT
?_Generic_object$initializer$@?$_Error_objects@H@std@@2P6AXXZA DD FLAT:??__E?_Generic_object@?$_Error_objects@H@std@@2V_Generic_error_category@2@A@@YAXXZ ; std::_Error_objects<int>::_Generic_object$initializer$
CRT$XCU	ENDS
;	COMDAT CRT$XCU
CRT$XCU	SEGMENT
?_Iostream_object$initializer$@?$_Error_objects@H@std@@2P6AXXZA DD FLAT:??__E?_Iostream_object@?$_Error_objects@H@std@@2V_Iostream_error_category@2@A@@YAXXZ ; std::_Error_objects<int>::_Iostream_object$initializer$
CRT$XCU	ENDS
;	COMDAT CRT$XCU
CRT$XCU	SEGMENT
?_System_object$initializer$@?$_Error_objects@H@std@@2P6AXXZA DD FLAT:??__E?_System_object@?$_Error_objects@H@std@@2V_System_error_category@2@A@@YAXXZ ; std::_Error_objects<int>::_System_object$initializer$
CRT$XCU	ENDS
;	COMDAT CRT$XCU
CRT$XCU	SEGMENT
?id$initializer$@?$num_put@DV?$back_insert_iterator@V?$basic_string@DU?$char_traits@D@std@@V?$allocator@D@2@@std@@@std@@@std@@2P6AXXZA DD FLAT:??__E?id@?$num_put@DV?$back_insert_iterator@V?$basic_string@DU?$char_traits@D@std@@V?$allocator@D@2@@std@@@std@@@std@@2V0locale@2@A@@YAXXZ ; std::num_put<char,std::back_insert_iterator<std::basic_string<char,std::char_traits<char>,std::allocator<char> > > >::id$initializer$
CRT$XCU	ENDS
;	COMDAT CRT$XCU
CRT$XCU	SEGMENT
?id$initializer$@?$num_put@_WV?$back_insert_iterator@V?$basic_string@_WU?$char_traits@_W@std@@V?$allocator@_W@2@@std@@@std@@@std@@2P6AXXZA DD FLAT:??__E?id@?$num_put@_WV?$back_insert_iterator@V?$basic_string@_WU?$char_traits@_W@std@@V?$allocator@_W@2@@std@@@std@@@std@@2V0locale@2@A@@YAXXZ ; std::num_put<wchar_t,std::back_insert_iterator<std::basic_string<wchar_t,std::char_traits<wchar_t>,std::allocator<wchar_t> > > >::id$initializer$
CRT$XCU	ENDS
;	COMDAT CRT$XCU
CRT$XCU	SEGMENT
?id$initializer$@?$numpunct@D@std@@2P6AXXZA DD FLAT:??__E?id@?$numpunct@D@std@@2V0locale@2@A@@YAXXZ ; std::numpunct<char>::id$initializer$
CRT$XCU	ENDS
;	COMDAT CRT$XCU
CRT$XCU	SEGMENT
?id$initializer$@?$numpunct@_W@std@@2P6AXXZA DD FLAT:??__E?id@?$numpunct@_W@std@@2V0locale@2@A@@YAXXZ ; std::numpunct<wchar_t>::id$initializer$
CRT$XCU	ENDS
; Function compile flags: /Odtp
; File c:\program files (x86)\microsoft visual studio 11.0\vc\include\xmemory0
;	COMDAT ??$construct@VD3DDeviceInfo@DDDriverInfo@DeviceManager@@ABV123@@?$allocator_traits@V?$allocator@VD3DDeviceInfo@DDDriverInfo@DeviceManager@@@std@@@std@@SAXAAV?$allocator@VD3DDeviceInfo@DDDriverInfo@DeviceManager@@@1@PAVD3DDeviceInfo@DDDriverInfo@DeviceManager@@ABV345@@Z
_TEXT	SEGMENT
__Al$ = 8						; size = 4
__Ptr$ = 12						; size = 4
__V0$ = 16						; size = 4
??$construct@VD3DDeviceInfo@DDDriverInfo@DeviceManager@@ABV123@@?$allocator_traits@V?$allocator@VD3DDeviceInfo@DDDriverInfo@DeviceManager@@@std@@@std@@SAXAAV?$allocator@VD3DDeviceInfo@DDDriverInfo@DeviceManager@@@1@PAVD3DDeviceInfo@DDDriverInfo@DeviceManager@@ABV345@@Z PROC ; std::allocator_traits<std::allocator<DeviceManager::DDDriverInfo::D3DDeviceInfo> >::construct<DeviceManager::DDDriverInfo::D3DDeviceInfo,DeviceManager::DDDriverInfo::D3DDeviceInfo const &>, COMDAT

; 751  : _VARIADIC_EXPAND_0X(_ALLOC_TRAITS_SPECIAL_CONSTRUCT, , , , )

	push	ebp
	mov	ebp, esp
	mov	eax, DWORD PTR __V0$[ebp]
	push	eax
	call	??$forward@ABVD3DDeviceInfo@DDDriverInfo@DeviceManager@@@std@@YAABVD3DDeviceInfo@DDDriverInfo@DeviceManager@@ABV123@@Z ; std::forward<DeviceManager::DDDriverInfo::D3DDeviceInfo const &>
	add	esp, 4
	push	eax
	mov	ecx, DWORD PTR __Ptr$[ebp]
	push	ecx
	mov	ecx, DWORD PTR __Al$[ebp]
	call	?construct@?$allocator@VD3DDeviceInfo@DDDriverInfo@DeviceManager@@@std@@QAEXPAVD3DDeviceInfo@DDDriverInfo@DeviceManager@@ABV345@@Z ; std::allocator<DeviceManager::DDDriverInfo::D3DDeviceInfo>::construct
	pop	ebp
	ret	0
??$construct@VD3DDeviceInfo@DDDriverInfo@DeviceManager@@ABV123@@?$allocator_traits@V?$allocator@VD3DDeviceInfo@DDDriverInfo@DeviceManager@@@std@@@std@@SAXAAV?$allocator@VD3DDeviceInfo@DDDriverInfo@DeviceManager@@@1@PAVD3DDeviceInfo@DDDriverInfo@DeviceManager@@ABV345@@Z ENDP ; std::allocator_traits<std::allocator<DeviceManager::DDDriverInfo::D3DDeviceInfo> >::construct<DeviceManager::DDDriverInfo::D3DDeviceInfo,DeviceManager::DDDriverInfo::D3DDeviceInfo const &>
_TEXT	ENDS
; Function compile flags: /Odtp
; File c:\program files (x86)\microsoft visual studio 11.0\vc\include\type_traits
;	COMDAT ??$forward@ABVD3DDeviceInfo@DDDriverInfo@DeviceManager@@@std@@YAABVD3DDeviceInfo@DDDriverInfo@DeviceManager@@ABV123@@Z
_TEXT	SEGMENT
__Arg$ = 8						; size = 4
??$forward@ABVD3DDeviceInfo@DDDriverInfo@DeviceManager@@@std@@YAABVD3DDeviceInfo@DDDriverInfo@DeviceManager@@ABV123@@Z PROC ; std::forward<DeviceManager::DDDriverInfo::D3DDeviceInfo const &>, COMDAT

; 1775 : 	{	// forward an lvalue

	push	ebp
	mov	ebp, esp

; 1776 : 	return (static_cast<_Ty&&>(_Arg));

	mov	eax, DWORD PTR __Arg$[ebp]

; 1777 : 	}

	pop	ebp
	ret	0
??$forward@ABVD3DDeviceInfo@DDDriverInfo@DeviceManager@@@std@@YAABVD3DDeviceInfo@DDDriverInfo@DeviceManager@@ABV123@@Z ENDP ; std::forward<DeviceManager::DDDriverInfo::D3DDeviceInfo const &>
_TEXT	ENDS
; Function compile flags: /Odtp
; File c:\program files (x86)\microsoft visual studio 11.0\vc\include\xmemory0
;	COMDAT ??$construct@VD3DDeviceInfo@DDDriverInfo@DeviceManager@@ABV123@@?$_Wrap_alloc@V?$allocator@VD3DDeviceInfo@DDDriverInfo@DeviceManager@@@std@@@std@@QAEXPAVD3DDeviceInfo@DDDriverInfo@DeviceManager@@ABV234@@Z
_TEXT	SEGMENT
_this$ = -4						; size = 4
__Ptr$ = 8						; size = 4
__V0$ = 12						; size = 4
??$construct@VD3DDeviceInfo@DDDriverInfo@DeviceManager@@ABV123@@?$_Wrap_alloc@V?$allocator@VD3DDeviceInfo@DDDriverInfo@DeviceManager@@@std@@@std@@QAEXPAVD3DDeviceInfo@DDDriverInfo@DeviceManager@@ABV234@@Z PROC ; std::_Wrap_alloc<std::allocator<DeviceManager::DDDriverInfo::D3DDeviceInfo> >::construct<DeviceManager::DDDriverInfo::D3DDeviceInfo,DeviceManager::DDDriverInfo::D3DDeviceInfo const &>, COMDAT
; _this$ = ecx

; 903  : _VARIADIC_EXPAND_0X(_WRAP_ALLOC_CONSTRUCT, , , , )

	push	ebp
	mov	ebp, esp
	push	ecx
	mov	DWORD PTR _this$[ebp], ecx
	mov	eax, DWORD PTR __V0$[ebp]
	push	eax
	call	??$forward@ABVD3DDeviceInfo@DDDriverInfo@DeviceManager@@@std@@YAABVD3DDeviceInfo@DDDriverInfo@DeviceManager@@ABV123@@Z ; std::forward<DeviceManager::DDDriverInfo::D3DDeviceInfo const &>
	add	esp, 4
	push	eax
	mov	ecx, DWORD PTR __Ptr$[ebp]
	push	ecx
	mov	edx, DWORD PTR _this$[ebp]
	push	edx
	call	??$construct@VD3DDeviceInfo@DDDriverInfo@DeviceManager@@ABV123@@?$allocator_traits@V?$allocator@VD3DDeviceInfo@DDDriverInfo@DeviceManager@@@std@@@std@@SAXAAV?$allocator@VD3DDeviceInfo@DDDriverInfo@DeviceManager@@@1@PAVD3DDeviceInfo@DDDriverInfo@DeviceManager@@ABV345@@Z ; std::allocator_traits<std::allocator<DeviceManager::DDDriverInfo::D3DDeviceInfo> >::construct<DeviceManager::DDDriverInfo::D3DDeviceInfo,DeviceManager::DDDriverInfo::D3DDeviceInfo const &>
	add	esp, 12					; 0000000cH
	mov	esp, ebp
	pop	ebp
	ret	8
??$construct@VD3DDeviceInfo@DDDriverInfo@DeviceManager@@ABV123@@?$_Wrap_alloc@V?$allocator@VD3DDeviceInfo@DDDriverInfo@DeviceManager@@@std@@@std@@QAEXPAVD3DDeviceInfo@DDDriverInfo@DeviceManager@@ABV234@@Z ENDP ; std::_Wrap_alloc<std::allocator<DeviceManager::DDDriverInfo::D3DDeviceInfo> >::construct<DeviceManager::DDDriverInfo::D3DDeviceInfo,DeviceManager::DDDriverInfo::D3DDeviceInfo const &>
_TEXT	ENDS
; Function compile flags: /Odtp
; File c:\program files (x86)\microsoft visual studio 11.0\vc\include\xmemory
;	COMDAT ??$_Uninit_copy@V?$_Vector_const_iterator@V?$_Vector_val@U?$_Simple_types@U_DDSURFACEDESC2@@@std@@@std@@@std@@PAU_DDSURFACEDESC2@@V?$allocator@U_DDSURFACEDESC2@@@2@@std@@YAPAU_DDSURFACEDESC2@@V?$_Vector_const_iterator@V?$_Vector_val@U?$_Simple_types@U_DDSURFACEDESC2@@@std@@@std@@@0@0PAU1@AAU?$_Wrap_alloc@V?$allocator@U_DDSURFACEDESC2@@@std@@@0@U_Nonscalar_ptr_iterator_tag@0@@Z
_TEXT	SEGMENT
tv84 = -28						; size = 4
__Next$ = -24						; size = 4
tv83 = -17						; size = 1
__$EHRec$ = -16						; size = 16
__First$ = 8						; size = 4
__Last$ = 12						; size = 4
__Dest$ = 16						; size = 4
__Al$ = 20						; size = 4
___formal$ = 24						; size = 1
??$_Uninit_copy@V?$_Vector_const_iterator@V?$_Vector_val@U?$_Simple_types@U_DDSURFACEDESC2@@@std@@@std@@@std@@PAU_DDSURFACEDESC2@@V?$allocator@U_DDSURFACEDESC2@@@2@@std@@YAPAU_DDSURFACEDESC2@@V?$_Vector_const_iterator@V?$_Vector_val@U?$_Simple_types@U_DDSURFACEDESC2@@@std@@@std@@@0@0PAU1@AAU?$_Wrap_alloc@V?$allocator@U_DDSURFACEDESC2@@@std@@@0@U_Nonscalar_ptr_iterator_tag@0@@Z PROC ; std::_Uninit_copy<std::_Vector_const_iterator<std::_Vector_val<std::_Simple_types<_DDSURFACEDESC2> > >,_DDSURFACEDESC2 *,std::allocator<_DDSURFACEDESC2> >, COMDAT

; 371  : 	{	// copy [_First, _Last) to raw _Dest, using _Al, arbitrary type

	push	ebp
	mov	ebp, esp
	push	-1
	push	__ehhandler$??$_Uninit_copy@V?$_Vector_const_iterator@V?$_Vector_val@U?$_Simple_types@U_DDSURFACEDESC2@@@std@@@std@@@std@@PAU_DDSURFACEDESC2@@V?$allocator@U_DDSURFACEDESC2@@@2@@std@@YAPAU_DDSURFACEDESC2@@V?$_Vector_const_iterator@V?$_Vector_val@U?$_Simple_types@U_DDSURFACEDESC2@@@std@@@std@@@0@0PAU1@AAU?$_Wrap_alloc@V?$allocator@U_DDSURFACEDESC2@@@std@@@0@U_Nonscalar_ptr_iterator_tag@0@@Z
	mov	eax, DWORD PTR fs:0
	push	eax
	push	ecx
	sub	esp, 12					; 0000000cH
	push	ebx
	push	esi
	push	edi
	mov	eax, DWORD PTR ___security_cookie
	xor	eax, ebp
	push	eax
	lea	eax, DWORD PTR __$EHRec$[ebp+4]
	mov	DWORD PTR fs:0, eax
	mov	DWORD PTR __$EHRec$[ebp], esp

; 372  : 	_DEBUG_RANGE(_First, _Last);
; 373  : 	_DEBUG_POINTER(_Dest);
; 374  : 	_FwdIt _Next = _Dest;

	mov	eax, DWORD PTR __Dest$[ebp]
	mov	DWORD PTR __Next$[ebp], eax

; 375  : 
; 376  : 	_TRY_BEGIN

	mov	DWORD PTR __$EHRec$[ebp+12], 0

; 377  : 	for (; _First != _Last; ++_Dest, ++_First)

	jmp	SHORT $LN6@Uninit_cop
$LN5@Uninit_cop:
	mov	ecx, DWORD PTR __Dest$[ebp]
	add	ecx, 124				; 0000007cH
	mov	DWORD PTR __Dest$[ebp], ecx
	lea	ecx, DWORD PTR __First$[ebp]
	call	??E?$_Vector_const_iterator@V?$_Vector_val@U?$_Simple_types@U_DDSURFACEDESC2@@@std@@@std@@@std@@QAEAAV01@XZ ; std::_Vector_const_iterator<std::_Vector_val<std::_Simple_types<_DDSURFACEDESC2> > >::operator++
$LN6@Uninit_cop:
	lea	edx, DWORD PTR __Last$[ebp]
	push	edx
	lea	ecx, DWORD PTR __First$[ebp]
	call	??9?$_Vector_const_iterator@V?$_Vector_val@U?$_Simple_types@U_DDSURFACEDESC2@@@std@@@std@@@std@@QBE_NABV01@@Z ; std::_Vector_const_iterator<std::_Vector_val<std::_Simple_types<_DDSURFACEDESC2> > >::operator!=
	mov	BYTE PTR tv83[ebp], al
	movzx	eax, BYTE PTR tv83[ebp]
	test	eax, eax
	je	SHORT $LN4@Uninit_cop

; 378  : 		_Al.construct(_Dest, *_First);

	lea	ecx, DWORD PTR __First$[ebp]
	call	??D?$_Vector_const_iterator@V?$_Vector_val@U?$_Simple_types@U_DDSURFACEDESC2@@@std@@@std@@@std@@QBEABU_DDSURFACEDESC2@@XZ ; std::_Vector_const_iterator<std::_Vector_val<std::_Simple_types<_DDSURFACEDESC2> > >::operator*
	mov	DWORD PTR tv84[ebp], eax
	mov	ecx, DWORD PTR tv84[ebp]
	push	ecx
	mov	edx, DWORD PTR __Dest$[ebp]
	push	edx
	mov	ecx, DWORD PTR __Al$[ebp]
	call	??$construct@U_DDSURFACEDESC2@@ABU1@@?$_Wrap_alloc@V?$allocator@U_DDSURFACEDESC2@@@std@@@std@@QAEXPAU_DDSURFACEDESC2@@ABU2@@Z ; std::_Wrap_alloc<std::allocator<_DDSURFACEDESC2> >::construct<_DDSURFACEDESC2,_DDSURFACEDESC2 const &>
	jmp	SHORT $LN5@Uninit_cop
$LN4@Uninit_cop:
	jmp	SHORT $LN10@Uninit_cop
__catch$??$_Uninit_copy@V?$_Vector_const_iterator@V?$_Vector_val@U?$_Simple_types@U_DDSURFACEDESC2@@@std@@@std@@@std@@PAU_DDSURFACEDESC2@@V?$allocator@U_DDSURFACEDESC2@@@2@@std@@YAPAU_DDSURFACEDESC2@@V?$_Vector_const_iterator@V?$_Vector_val@U?$_Simple_types@U_DDSURFACEDESC2@@@std@@@std@@@0@0PAU1@AAU?$_Wrap_alloc@V?$allocator@U_DDSURFACEDESC2@@@std@@@0@U_Nonscalar_ptr_iterator_tag@0@@Z$0:

; 379  : 	_CATCH_ALL
; 380  : 	for (; _Next != _Dest; ++_Next)

	jmp	SHORT $LN3@Uninit_cop
$LN2@Uninit_cop:
	mov	eax, DWORD PTR __Next$[ebp]
	add	eax, 124				; 0000007cH
	mov	DWORD PTR __Next$[ebp], eax
$LN3@Uninit_cop:
	mov	ecx, DWORD PTR __Next$[ebp]
	cmp	ecx, DWORD PTR __Dest$[ebp]
	je	SHORT $LN1@Uninit_cop

; 381  : 		_Al.destroy(_Next);

	mov	edx, DWORD PTR __Next$[ebp]
	push	edx
	mov	ecx, DWORD PTR __Al$[ebp]
	call	??$destroy@U_DDSURFACEDESC2@@@?$_Wrap_alloc@V?$allocator@U_DDSURFACEDESC2@@@std@@@std@@QAEXPAU_DDSURFACEDESC2@@@Z ; std::_Wrap_alloc<std::allocator<_DDSURFACEDESC2> >::destroy<_DDSURFACEDESC2>
	jmp	SHORT $LN2@Uninit_cop
$LN1@Uninit_cop:

; 382  : 	_RERAISE;

	push	0
	push	0
	call	__CxxThrowException@8

; 383  : 	_CATCH_END

	mov	eax, $LN13@Uninit_cop
	ret	0
$LN10@Uninit_cop:
	mov	DWORD PTR __$EHRec$[ebp+12], -1
	jmp	SHORT __tryend$??$_Uninit_copy@V?$_Vector_const_iterator@V?$_Vector_val@U?$_Simple_types@U_DDSURFACEDESC2@@@std@@@std@@@std@@PAU_DDSURFACEDESC2@@V?$allocator@U_DDSURFACEDESC2@@@2@@std@@YAPAU_DDSURFACEDESC2@@V?$_Vector_const_iterator@V?$_Vector_val@U?$_Simple_types@U_DDSURFACEDESC2@@@std@@@std@@@0@0PAU1@AAU?$_Wrap_alloc@V?$allocator@U_DDSURFACEDESC2@@@std@@@0@U_Nonscalar_ptr_iterator_tag@0@@Z$1
$LN13@Uninit_cop:
	mov	DWORD PTR __$EHRec$[ebp+12], -1
__tryend$??$_Uninit_copy@V?$_Vector_const_iterator@V?$_Vector_val@U?$_Simple_types@U_DDSURFACEDESC2@@@std@@@std@@@std@@PAU_DDSURFACEDESC2@@V?$allocator@U_DDSURFACEDESC2@@@2@@std@@YAPAU_DDSURFACEDESC2@@V?$_Vector_const_iterator@V?$_Vector_val@U?$_Simple_types@U_DDSURFACEDESC2@@@std@@@std@@@0@0PAU1@AAU?$_Wrap_alloc@V?$allocator@U_DDSURFACEDESC2@@@std@@@0@U_Nonscalar_ptr_iterator_tag@0@@Z$1:

; 384  : 	return (_Dest);

	mov	eax, DWORD PTR __Dest$[ebp]
$LN9@Uninit_cop:

; 385  : 	}

	mov	ecx, DWORD PTR __$EHRec$[ebp+4]
	mov	DWORD PTR fs:0, ecx
	pop	ecx
	pop	edi
	pop	esi
	pop	ebx
	mov	esp, ebp
	pop	ebp
	ret	0
_TEXT	ENDS
;	COMDAT text$x
text$x	SEGMENT
__ehhandler$??$_Uninit_copy@V?$_Vector_const_iterator@V?$_Vector_val@U?$_Simple_types@U_DDSURFACEDESC2@@@std@@@std@@@std@@PAU_DDSURFACEDESC2@@V?$allocator@U_DDSURFACEDESC2@@@2@@std@@YAPAU_DDSURFACEDESC2@@V?$_Vector_const_iterator@V?$_Vector_val@U?$_Simple_types@U_DDSURFACEDESC2@@@std@@@std@@@0@0PAU1@AAU?$_Wrap_alloc@V?$allocator@U_DDSURFACEDESC2@@@std@@@0@U_Nonscalar_ptr_iterator_tag@0@@Z:
	mov	edx, DWORD PTR [esp+8]
	lea	eax, DWORD PTR [edx+12]
	mov	ecx, DWORD PTR [edx-32]
	xor	ecx, eax
	call	@__security_check_cookie@4
	mov	eax, OFFSET __ehfuncinfo$??$_Uninit_copy@V?$_Vector_const_iterator@V?$_Vector_val@U?$_Simple_types@U_DDSURFACEDESC2@@@std@@@std@@@std@@PAU_DDSURFACEDESC2@@V?$allocator@U_DDSURFACEDESC2@@@2@@std@@YAPAU_DDSURFACEDESC2@@V?$_Vector_const_iterator@V?$_Vector_val@U?$_Simple_types@U_DDSURFACEDESC2@@@std@@@std@@@0@0PAU1@AAU?$_Wrap_alloc@V?$allocator@U_DDSURFACEDESC2@@@std@@@0@U_Nonscalar_ptr_iterator_tag@0@@Z
	jmp	___CxxFrameHandler3
text$x	ENDS
??$_Uninit_copy@V?$_Vector_const_iterator@V?$_Vector_val@U?$_Simple_types@U_DDSURFACEDESC2@@@std@@@std@@@std@@PAU_DDSURFACEDESC2@@V?$allocator@U_DDSURFACEDESC2@@@2@@std@@YAPAU_DDSURFACEDESC2@@V?$_Vector_const_iterator@V?$_Vector_val@U?$_Simple_types@U_DDSURFACEDESC2@@@std@@@std@@@0@0PAU1@AAU?$_Wrap_alloc@V?$allocator@U_DDSURFACEDESC2@@@std@@@0@U_Nonscalar_ptr_iterator_tag@0@@Z ENDP ; std::_Uninit_copy<std::_Vector_const_iterator<std::_Vector_val<std::_Simple_types<_DDSURFACEDESC2> > >,_DDSURFACEDESC2 *,std::allocator<_DDSURFACEDESC2> >
; Function compile flags: /Odtp
; File c:\program files (x86)\microsoft visual studio 11.0\vc\include\xutility
;	COMDAT ??$_Ptr_cat@V?$_Vector_const_iterator@V?$_Vector_val@U?$_Simple_types@U_DDSURFACEDESC2@@@std@@@std@@@std@@PAU_DDSURFACEDESC2@@@std@@YA?AU_Nonscalar_ptr_iterator_tag@0@AAV?$_Vector_const_iterator@V?$_Vector_val@U?$_Simple_types@U_DDSURFACEDESC2@@@std@@@std@@@0@AAPAU_DDSURFACEDESC2@@@Z
_TEXT	SEGMENT
__Cat$ = -1						; size = 1
___formal$ = 8						; size = 4
___formal$ = 12						; size = 4
??$_Ptr_cat@V?$_Vector_const_iterator@V?$_Vector_val@U?$_Simple_types@U_DDSURFACEDESC2@@@std@@@std@@@std@@PAU_DDSURFACEDESC2@@@std@@YA?AU_Nonscalar_ptr_iterator_tag@0@AAV?$_Vector_const_iterator@V?$_Vector_val@U?$_Simple_types@U_DDSURFACEDESC2@@@std@@@std@@@0@AAPAU_DDSURFACEDESC2@@@Z PROC ; std::_Ptr_cat<std::_Vector_const_iterator<std::_Vector_val<std::_Simple_types<_DDSURFACEDESC2> > >,_DDSURFACEDESC2 *>, COMDAT

; 407  : 	{	// return pointer category from arbitrary arguments

	push	ebp
	mov	ebp, esp
	push	ecx

; 408  : 	_Nonscalar_ptr_iterator_tag _Cat;
; 409  : 	return (_Cat);

	mov	al, BYTE PTR __Cat$[ebp]

; 410  : 	}

	mov	esp, ebp
	pop	ebp
	ret	0
??$_Ptr_cat@V?$_Vector_const_iterator@V?$_Vector_val@U?$_Simple_types@U_DDSURFACEDESC2@@@std@@@std@@@std@@PAU_DDSURFACEDESC2@@@std@@YA?AU_Nonscalar_ptr_iterator_tag@0@AAV?$_Vector_const_iterator@V?$_Vector_val@U?$_Simple_types@U_DDSURFACEDESC2@@@std@@@std@@@0@AAPAU_DDSURFACEDESC2@@@Z ENDP ; std::_Ptr_cat<std::_Vector_const_iterator<std::_Vector_val<std::_Simple_types<_DDSURFACEDESC2> > >,_DDSURFACEDESC2 *>
_TEXT	ENDS
; Function compile flags: /Odtp
; File c:\program files (x86)\microsoft visual studio 11.0\vc\include\xmemory
;	COMDAT ??$_Uninit_copy@V?$_Vector_const_iterator@V?$_Vector_val@U?$_Simple_types@VD3DDeviceInfo@DDDriverInfo@DeviceManager@@@std@@@std@@@std@@PAVD3DDeviceInfo@DDDriverInfo@DeviceManager@@V?$allocator@VD3DDeviceInfo@DDDriverInfo@DeviceManager@@@2@@std@@YAPAVD3DDeviceInfo@DDDriverInfo@DeviceManager@@V?$_Vector_const_iterator@V?$_Vector_val@U?$_Simple_types@VD3DDeviceInfo@DDDriverInfo@DeviceManager@@@std@@@std@@@0@0PAV123@AAU?$_Wrap_alloc@V?$allocator@VD3DDeviceInfo@DDDriverInfo@DeviceManager@@@std@@@0@U_Nonscalar_ptr_iterator_tag@0@@Z
_TEXT	SEGMENT
tv84 = -28						; size = 4
__Next$ = -24						; size = 4
tv83 = -17						; size = 1
__$EHRec$ = -16						; size = 16
__First$ = 8						; size = 4
__Last$ = 12						; size = 4
__Dest$ = 16						; size = 4
__Al$ = 20						; size = 4
___formal$ = 24						; size = 1
??$_Uninit_copy@V?$_Vector_const_iterator@V?$_Vector_val@U?$_Simple_types@VD3DDeviceInfo@DDDriverInfo@DeviceManager@@@std@@@std@@@std@@PAVD3DDeviceInfo@DDDriverInfo@DeviceManager@@V?$allocator@VD3DDeviceInfo@DDDriverInfo@DeviceManager@@@2@@std@@YAPAVD3DDeviceInfo@DDDriverInfo@DeviceManager@@V?$_Vector_const_iterator@V?$_Vector_val@U?$_Simple_types@VD3DDeviceInfo@DDDriverInfo@DeviceManager@@@std@@@std@@@0@0PAV123@AAU?$_Wrap_alloc@V?$allocator@VD3DDeviceInfo@DDDriverInfo@DeviceManager@@@std@@@0@U_Nonscalar_ptr_iterator_tag@0@@Z PROC ; std::_Uninit_copy<std::_Vector_const_iterator<std::_Vector_val<std::_Simple_types<DeviceManager::DDDriverInfo::D3DDeviceInfo> > >,DeviceManager::DDDriverInfo::D3DDeviceInfo *,std::allocator<DeviceManager::DDDriverInfo::D3DDeviceInfo> >, COMDAT

; 371  : 	{	// copy [_First, _Last) to raw _Dest, using _Al, arbitrary type

	push	ebp
	mov	ebp, esp
	push	-1
	push	__ehhandler$??$_Uninit_copy@V?$_Vector_const_iterator@V?$_Vector_val@U?$_Simple_types@VD3DDeviceInfo@DDDriverInfo@DeviceManager@@@std@@@std@@@std@@PAVD3DDeviceInfo@DDDriverInfo@DeviceManager@@V?$allocator@VD3DDeviceInfo@DDDriverInfo@DeviceManager@@@2@@std@@YAPAVD3DDeviceInfo@DDDriverInfo@DeviceManager@@V?$_Vector_const_iterator@V?$_Vector_val@U?$_Simple_types@VD3DDeviceInfo@DDDriverInfo@DeviceManager@@@std@@@std@@@0@0PAV123@AAU?$_Wrap_alloc@V?$allocator@VD3DDeviceInfo@DDDriverInfo@DeviceManager@@@std@@@0@U_Nonscalar_ptr_iterator_tag@0@@Z
	mov	eax, DWORD PTR fs:0
	push	eax
	push	ecx
	sub	esp, 12					; 0000000cH
	push	ebx
	push	esi
	push	edi
	mov	eax, DWORD PTR ___security_cookie
	xor	eax, ebp
	push	eax
	lea	eax, DWORD PTR __$EHRec$[ebp+4]
	mov	DWORD PTR fs:0, eax
	mov	DWORD PTR __$EHRec$[ebp], esp

; 372  : 	_DEBUG_RANGE(_First, _Last);
; 373  : 	_DEBUG_POINTER(_Dest);
; 374  : 	_FwdIt _Next = _Dest;

	mov	eax, DWORD PTR __Dest$[ebp]
	mov	DWORD PTR __Next$[ebp], eax

; 375  : 
; 376  : 	_TRY_BEGIN

	mov	DWORD PTR __$EHRec$[ebp+12], 0

; 377  : 	for (; _First != _Last; ++_Dest, ++_First)

	jmp	SHORT $LN6@Uninit_cop
$LN5@Uninit_cop:
	mov	ecx, DWORD PTR __Dest$[ebp]
	add	ecx, 284				; 0000011cH
	mov	DWORD PTR __Dest$[ebp], ecx
	lea	ecx, DWORD PTR __First$[ebp]
	call	??E?$_Vector_const_iterator@V?$_Vector_val@U?$_Simple_types@VD3DDeviceInfo@DDDriverInfo@DeviceManager@@@std@@@std@@@std@@QAEAAV01@XZ ; std::_Vector_const_iterator<std::_Vector_val<std::_Simple_types<DeviceManager::DDDriverInfo::D3DDeviceInfo> > >::operator++
$LN6@Uninit_cop:
	lea	edx, DWORD PTR __Last$[ebp]
	push	edx
	lea	ecx, DWORD PTR __First$[ebp]
	call	??9?$_Vector_const_iterator@V?$_Vector_val@U?$_Simple_types@VD3DDeviceInfo@DDDriverInfo@DeviceManager@@@std@@@std@@@std@@QBE_NABV01@@Z ; std::_Vector_const_iterator<std::_Vector_val<std::_Simple_types<DeviceManager::DDDriverInfo::D3DDeviceInfo> > >::operator!=
	mov	BYTE PTR tv83[ebp], al
	movzx	eax, BYTE PTR tv83[ebp]
	test	eax, eax
	je	SHORT $LN4@Uninit_cop

; 378  : 		_Al.construct(_Dest, *_First);

	lea	ecx, DWORD PTR __First$[ebp]
	call	??D?$_Vector_const_iterator@V?$_Vector_val@U?$_Simple_types@VD3DDeviceInfo@DDDriverInfo@DeviceManager@@@std@@@std@@@std@@QBEABVD3DDeviceInfo@DDDriverInfo@DeviceManager@@XZ ; std::_Vector_const_iterator<std::_Vector_val<std::_Simple_types<DeviceManager::DDDriverInfo::D3DDeviceInfo> > >::operator*
	mov	DWORD PTR tv84[ebp], eax
	mov	ecx, DWORD PTR tv84[ebp]
	push	ecx
	mov	edx, DWORD PTR __Dest$[ebp]
	push	edx
	mov	ecx, DWORD PTR __Al$[ebp]
	call	??$construct@VD3DDeviceInfo@DDDriverInfo@DeviceManager@@ABV123@@?$_Wrap_alloc@V?$allocator@VD3DDeviceInfo@DDDriverInfo@DeviceManager@@@std@@@std@@QAEXPAVD3DDeviceInfo@DDDriverInfo@DeviceManager@@ABV234@@Z ; std::_Wrap_alloc<std::allocator<DeviceManager::DDDriverInfo::D3DDeviceInfo> >::construct<DeviceManager::DDDriverInfo::D3DDeviceInfo,DeviceManager::DDDriverInfo::D3DDeviceInfo const &>
	jmp	SHORT $LN5@Uninit_cop
$LN4@Uninit_cop:
	jmp	SHORT $LN10@Uninit_cop
__catch$??$_Uninit_copy@V?$_Vector_const_iterator@V?$_Vector_val@U?$_Simple_types@VD3DDeviceInfo@DDDriverInfo@DeviceManager@@@std@@@std@@@std@@PAVD3DDeviceInfo@DDDriverInfo@DeviceManager@@V?$allocator@VD3DDeviceInfo@DDDriverInfo@DeviceManager@@@2@@std@@YAPAVD3DDeviceInfo@DDDriverInfo@DeviceManager@@V?$_Vector_const_iterator@V?$_Vector_val@U?$_Simple_types@VD3DDeviceInfo@DDDriverInfo@DeviceManager@@@std@@@std@@@0@0PAV123@AAU?$_Wrap_alloc@V?$allocator@VD3DDeviceInfo@DDDriverInfo@DeviceManager@@@std@@@0@U_Nonscalar_ptr_iterator_tag@0@@Z$0:

; 379  : 	_CATCH_ALL
; 380  : 	for (; _Next != _Dest; ++_Next)

	jmp	SHORT $LN3@Uninit_cop
$LN2@Uninit_cop:
	mov	eax, DWORD PTR __Next$[ebp]
	add	eax, 284				; 0000011cH
	mov	DWORD PTR __Next$[ebp], eax
$LN3@Uninit_cop:
	mov	ecx, DWORD PTR __Next$[ebp]
	cmp	ecx, DWORD PTR __Dest$[ebp]
	je	SHORT $LN1@Uninit_cop

; 381  : 		_Al.destroy(_Next);

	mov	edx, DWORD PTR __Next$[ebp]
	push	edx
	mov	ecx, DWORD PTR __Al$[ebp]
	call	??$destroy@VD3DDeviceInfo@DDDriverInfo@DeviceManager@@@?$_Wrap_alloc@V?$allocator@VD3DDeviceInfo@DDDriverInfo@DeviceManager@@@std@@@std@@QAEXPAVD3DDeviceInfo@DDDriverInfo@DeviceManager@@@Z ; std::_Wrap_alloc<std::allocator<DeviceManager::DDDriverInfo::D3DDeviceInfo> >::destroy<DeviceManager::DDDriverInfo::D3DDeviceInfo>
	jmp	SHORT $LN2@Uninit_cop
$LN1@Uninit_cop:

; 382  : 	_RERAISE;

	push	0
	push	0
	call	__CxxThrowException@8

; 383  : 	_CATCH_END

	mov	eax, $LN13@Uninit_cop
	ret	0
$LN10@Uninit_cop:
	mov	DWORD PTR __$EHRec$[ebp+12], -1
	jmp	SHORT __tryend$??$_Uninit_copy@V?$_Vector_const_iterator@V?$_Vector_val@U?$_Simple_types@VD3DDeviceInfo@DDDriverInfo@DeviceManager@@@std@@@std@@@std@@PAVD3DDeviceInfo@DDDriverInfo@DeviceManager@@V?$allocator@VD3DDeviceInfo@DDDriverInfo@DeviceManager@@@2@@std@@YAPAVD3DDeviceInfo@DDDriverInfo@DeviceManager@@V?$_Vector_const_iterator@V?$_Vector_val@U?$_Simple_types@VD3DDeviceInfo@DDDriverInfo@DeviceManager@@@std@@@std@@@0@0PAV123@AAU?$_Wrap_alloc@V?$allocator@VD3DDeviceInfo@DDDriverInfo@DeviceManager@@@std@@@0@U_Nonscalar_ptr_iterator_tag@0@@Z$1
$LN13@Uninit_cop:
	mov	DWORD PTR __$EHRec$[ebp+12], -1
__tryend$??$_Uninit_copy@V?$_Vector_const_iterator@V?$_Vector_val@U?$_Simple_types@VD3DDeviceInfo@DDDriverInfo@DeviceManager@@@std@@@std@@@std@@PAVD3DDeviceInfo@DDDriverInfo@DeviceManager@@V?$allocator@VD3DDeviceInfo@DDDriverInfo@DeviceManager@@@2@@std@@YAPAVD3DDeviceInfo@DDDriverInfo@DeviceManager@@V?$_Vector_const_iterator@V?$_Vector_val@U?$_Simple_types@VD3DDeviceInfo@DDDriverInfo@DeviceManager@@@std@@@std@@@0@0PAV123@AAU?$_Wrap_alloc@V?$allocator@VD3DDeviceInfo@DDDriverInfo@DeviceManager@@@std@@@0@U_Nonscalar_ptr_iterator_tag@0@@Z$1:

; 384  : 	return (_Dest);

	mov	eax, DWORD PTR __Dest$[ebp]
$LN9@Uninit_cop:

; 385  : 	}

	mov	ecx, DWORD PTR __$EHRec$[ebp+4]
	mov	DWORD PTR fs:0, ecx
	pop	ecx
	pop	edi
	pop	esi
	pop	ebx
	mov	esp, ebp
	pop	ebp
	ret	0
_TEXT	ENDS
;	COMDAT text$x
text$x	SEGMENT
__ehhandler$??$_Uninit_copy@V?$_Vector_const_iterator@V?$_Vector_val@U?$_Simple_types@VD3DDeviceInfo@DDDriverInfo@DeviceManager@@@std@@@std@@@std@@PAVD3DDeviceInfo@DDDriverInfo@DeviceManager@@V?$allocator@VD3DDeviceInfo@DDDriverInfo@DeviceManager@@@2@@std@@YAPAVD3DDeviceInfo@DDDriverInfo@DeviceManager@@V?$_Vector_const_iterator@V?$_Vector_val@U?$_Simple_types@VD3DDeviceInfo@DDDriverInfo@DeviceManager@@@std@@@std@@@0@0PAV123@AAU?$_Wrap_alloc@V?$allocator@VD3DDeviceInfo@DDDriverInfo@DeviceManager@@@std@@@0@U_Nonscalar_ptr_iterator_tag@0@@Z:
	mov	edx, DWORD PTR [esp+8]
	lea	eax, DWORD PTR [edx+12]
	mov	ecx, DWORD PTR [edx-32]
	xor	ecx, eax
	call	@__security_check_cookie@4
