; Listing generated by Microsoft (R) Optimizing Compiler Version 17.00.51106.1 

	TITLE	C:\Users\Zhitao Li\Documents\Visual Studio 2012\Projects\Freefalcon\CAMPAIGN\CAMPTASK\Airunit.cpp
	.686P
	.XMM
	include listing.inc
	.model	flat

INCLUDELIB LIBCMT
INCLUDELIB OLDNAMES

PUBLIC	?has_denorm@_Num_base@std@@2W4float_denorm_style@2@B ; std::_Num_base::has_denorm
PUBLIC	?has_denorm_loss@_Num_base@std@@2_NB		; std::_Num_base::has_denorm_loss
PUBLIC	?has_infinity@_Num_base@std@@2_NB		; std::_Num_base::has_infinity
PUBLIC	?has_quiet_NaN@_Num_base@std@@2_NB		; std::_Num_base::has_quiet_NaN
PUBLIC	?has_signaling_NaN@_Num_base@std@@2_NB		; std::_Num_base::has_signaling_NaN
PUBLIC	?is_bounded@_Num_base@std@@2_NB			; std::_Num_base::is_bounded
PUBLIC	?is_exact@_Num_base@std@@2_NB			; std::_Num_base::is_exact
PUBLIC	?is_iec559@_Num_base@std@@2_NB			; std::_Num_base::is_iec559
PUBLIC	?is_integer@_Num_base@std@@2_NB			; std::_Num_base::is_integer
PUBLIC	?is_modulo@_Num_base@std@@2_NB			; std::_Num_base::is_modulo
PUBLIC	?is_signed@_Num_base@std@@2_NB			; std::_Num_base::is_signed
PUBLIC	?is_specialized@_Num_base@std@@2_NB		; std::_Num_base::is_specialized
PUBLIC	?tinyness_before@_Num_base@std@@2_NB		; std::_Num_base::tinyness_before
PUBLIC	?traps@_Num_base@std@@2_NB			; std::_Num_base::traps
PUBLIC	?round_style@_Num_base@std@@2W4float_round_style@2@B ; std::_Num_base::round_style
PUBLIC	?digits@_Num_base@std@@2HB			; std::_Num_base::digits
PUBLIC	?digits10@_Num_base@std@@2HB			; std::_Num_base::digits10
PUBLIC	?max_digits10@_Num_base@std@@2HB		; std::_Num_base::max_digits10
PUBLIC	?max_exponent@_Num_base@std@@2HB		; std::_Num_base::max_exponent
PUBLIC	?max_exponent10@_Num_base@std@@2HB		; std::_Num_base::max_exponent10
PUBLIC	?min_exponent@_Num_base@std@@2HB		; std::_Num_base::min_exponent
PUBLIC	?min_exponent10@_Num_base@std@@2HB		; std::_Num_base::min_exponent10
PUBLIC	?radix@_Num_base@std@@2HB			; std::_Num_base::radix
PUBLIC	?is_bounded@_Num_int_base@std@@2_NB		; std::_Num_int_base::is_bounded
PUBLIC	?is_exact@_Num_int_base@std@@2_NB		; std::_Num_int_base::is_exact
PUBLIC	?is_integer@_Num_int_base@std@@2_NB		; std::_Num_int_base::is_integer
PUBLIC	?is_modulo@_Num_int_base@std@@2_NB		; std::_Num_int_base::is_modulo
PUBLIC	?is_specialized@_Num_int_base@std@@2_NB		; std::_Num_int_base::is_specialized
PUBLIC	?radix@_Num_int_base@std@@2HB			; std::_Num_int_base::radix
PUBLIC	?has_denorm@_Num_float_base@std@@2W4float_denorm_style@2@B ; std::_Num_float_base::has_denorm
PUBLIC	?has_denorm_loss@_Num_float_base@std@@2_NB	; std::_Num_float_base::has_denorm_loss
PUBLIC	?SIMDIRTYDATA_INTERVAL@FalconEntity@@2KB	; FalconEntity::SIMDIRTYDATA_INTERVAL
PUBLIC	?CMPDIRTYDATA_INTERVAL@FalconEntity@@2KB	; FalconEntity::CMPDIRTYDATA_INTERVAL
PUBLIC	?has_infinity@_Num_float_base@std@@2_NB		; std::_Num_float_base::has_infinity
PUBLIC	?has_quiet_NaN@_Num_float_base@std@@2_NB	; std::_Num_float_base::has_quiet_NaN
PUBLIC	?has_signaling_NaN@_Num_float_base@std@@2_NB	; std::_Num_float_base::has_signaling_NaN
PUBLIC	?is_bounded@_Num_float_base@std@@2_NB		; std::_Num_float_base::is_bounded
PUBLIC	?is_exact@_Num_float_base@std@@2_NB		; std::_Num_float_base::is_exact
PUBLIC	?is_iec559@_Num_float_base@std@@2_NB		; std::_Num_float_base::is_iec559
PUBLIC	?is_integer@_Num_float_base@std@@2_NB		; std::_Num_float_base::is_integer
PUBLIC	?is_modulo@_Num_float_base@std@@2_NB		; std::_Num_float_base::is_modulo
PUBLIC	?is_signed@_Num_float_base@std@@2_NB		; std::_Num_float_base::is_signed
PUBLIC	?is_specialized@_Num_float_base@std@@2_NB	; std::_Num_float_base::is_specialized
PUBLIC	?tinyness_before@_Num_float_base@std@@2_NB	; std::_Num_float_base::tinyness_before
PUBLIC	?traps@_Num_float_base@std@@2_NB		; std::_Num_float_base::traps
PUBLIC	?round_style@_Num_float_base@std@@2W4float_round_style@2@B ; std::_Num_float_base::round_style
PUBLIC	?radix@_Num_float_base@std@@2HB			; std::_Num_float_base::radix
PUBLIC	?is_signed@?$numeric_limits@D@std@@2_NB		; std::numeric_limits<char>::is_signed
PUBLIC	?digits@?$numeric_limits@D@std@@2HB		; std::numeric_limits<char>::digits
PUBLIC	?digits10@?$numeric_limits@D@std@@2HB		; std::numeric_limits<char>::digits10
PUBLIC	?is_signed@?$numeric_limits@_W@std@@2_NB	; std::numeric_limits<wchar_t>::is_signed
PUBLIC	?digits@?$numeric_limits@_W@std@@2HB		; std::numeric_limits<wchar_t>::digits
PUBLIC	?digits10@?$numeric_limits@_W@std@@2HB		; std::numeric_limits<wchar_t>::digits10
PUBLIC	?is_modulo@?$numeric_limits@_N@std@@2_NB	; std::numeric_limits<bool>::is_modulo
PUBLIC	?is_signed@?$numeric_limits@_N@std@@2_NB	; std::numeric_limits<bool>::is_signed
PUBLIC	?digits@?$numeric_limits@_N@std@@2HB		; std::numeric_limits<bool>::digits
PUBLIC	?digits10@?$numeric_limits@_N@std@@2HB		; std::numeric_limits<bool>::digits10
PUBLIC	?is_signed@?$numeric_limits@C@std@@2_NB		; std::numeric_limits<signed char>::is_signed
PUBLIC	?digits@?$numeric_limits@C@std@@2HB		; std::numeric_limits<signed char>::digits
PUBLIC	?digits10@?$numeric_limits@C@std@@2HB		; std::numeric_limits<signed char>::digits10
PUBLIC	?is_signed@?$numeric_limits@E@std@@2_NB		; std::numeric_limits<unsigned char>::is_signed
PUBLIC	?digits@?$numeric_limits@E@std@@2HB		; std::numeric_limits<unsigned char>::digits
PUBLIC	?digits10@?$numeric_limits@E@std@@2HB		; std::numeric_limits<unsigned char>::digits10
PUBLIC	?is_signed@?$numeric_limits@F@std@@2_NB		; std::numeric_limits<short>::is_signed
PUBLIC	?digits@?$numeric_limits@F@std@@2HB		; std::numeric_limits<short>::digits
PUBLIC	?digits10@?$numeric_limits@F@std@@2HB		; std::numeric_limits<short>::digits10
PUBLIC	?is_signed@?$numeric_limits@G@std@@2_NB		; std::numeric_limits<unsigned short>::is_signed
PUBLIC	?value@?$integral_constant@_N$0A@@std@@2_NB	; std::integral_constant<bool,0>::value
PUBLIC	?digits@?$numeric_limits@G@std@@2HB		; std::numeric_limits<unsigned short>::digits
PUBLIC	?digits10@?$numeric_limits@G@std@@2HB		; std::numeric_limits<unsigned short>::digits10
PUBLIC	?value@?$integral_constant@_N$00@std@@2_NB	; std::integral_constant<bool,1>::value
PUBLIC	?is_signed@?$numeric_limits@H@std@@2_NB		; std::numeric_limits<int>::is_signed
PUBLIC	?value@?$_Sizeof@HU_Nil@std@@U12@U12@U12@U12@U12@U12@@std@@2IB ; std::_Sizeof<int,std::_Nil,std::_Nil,std::_Nil,std::_Nil,std::_Nil,std::_Nil,std::_Nil>::value
PUBLIC	?digits@?$numeric_limits@H@std@@2HB		; std::numeric_limits<int>::digits
PUBLIC	?digits10@?$numeric_limits@H@std@@2HB		; std::numeric_limits<int>::digits10
PUBLIC	?is_signed@?$numeric_limits@I@std@@2_NB		; std::numeric_limits<unsigned int>::is_signed
PUBLIC	?digits@?$numeric_limits@I@std@@2HB		; std::numeric_limits<unsigned int>::digits
PUBLIC	?digits10@?$numeric_limits@I@std@@2HB		; std::numeric_limits<unsigned int>::digits10
PUBLIC	?is_signed@?$numeric_limits@J@std@@2_NB		; std::numeric_limits<long>::is_signed
PUBLIC	?digits@?$numeric_limits@J@std@@2HB		; std::numeric_limits<long>::digits
PUBLIC	?digits10@?$numeric_limits@J@std@@2HB		; std::numeric_limits<long>::digits10
PUBLIC	?is_signed@?$numeric_limits@K@std@@2_NB		; std::numeric_limits<unsigned long>::is_signed
PUBLIC	?digits@?$numeric_limits@K@std@@2HB		; std::numeric_limits<unsigned long>::digits
PUBLIC	?digits10@?$numeric_limits@K@std@@2HB		; std::numeric_limits<unsigned long>::digits10
PUBLIC	?is_signed@?$numeric_limits@_J@std@@2_NB	; std::numeric_limits<__int64>::is_signed
PUBLIC	?digits@?$numeric_limits@_J@std@@2HB		; std::numeric_limits<__int64>::digits
PUBLIC	?digits10@?$numeric_limits@_J@std@@2HB		; std::numeric_limits<__int64>::digits10
PUBLIC	?is_signed@?$numeric_limits@_K@std@@2_NB	; std::numeric_limits<unsigned __int64>::is_signed
PUBLIC	?digits@?$numeric_limits@_K@std@@2HB		; std::numeric_limits<unsigned __int64>::digits
PUBLIC	?digits10@?$numeric_limits@_K@std@@2HB		; std::numeric_limits<unsigned __int64>::digits10
PUBLIC	?digits@?$numeric_limits@M@std@@2HB		; std::numeric_limits<float>::digits
PUBLIC	?digits10@?$numeric_limits@M@std@@2HB		; std::numeric_limits<float>::digits10
PUBLIC	?max_digits10@?$numeric_limits@M@std@@2HB	; std::numeric_limits<float>::max_digits10
PUBLIC	?max_exponent@?$numeric_limits@M@std@@2HB	; std::numeric_limits<float>::max_exponent
PUBLIC	?max_exponent10@?$numeric_limits@M@std@@2HB	; std::numeric_limits<float>::max_exponent10
PUBLIC	?min_exponent@?$numeric_limits@M@std@@2HB	; std::numeric_limits<float>::min_exponent
PUBLIC	?min_exponent10@?$numeric_limits@M@std@@2HB	; std::numeric_limits<float>::min_exponent10
PUBLIC	?value@?$integral_constant@I$0A@@std@@2IB	; std::integral_constant<unsigned int,0>::value
PUBLIC	?digits@?$numeric_limits@N@std@@2HB		; std::numeric_limits<double>::digits
PUBLIC	?digits10@?$numeric_limits@N@std@@2HB		; std::numeric_limits<double>::digits10
PUBLIC	?max_digits10@?$numeric_limits@N@std@@2HB	; std::numeric_limits<double>::max_digits10
PUBLIC	?max_exponent@?$numeric_limits@N@std@@2HB	; std::numeric_limits<double>::max_exponent
PUBLIC	?max_exponent10@?$numeric_limits@N@std@@2HB	; std::numeric_limits<double>::max_exponent10
PUBLIC	?min_exponent@?$numeric_limits@N@std@@2HB	; std::numeric_limits<double>::min_exponent
PUBLIC	?min_exponent10@?$numeric_limits@N@std@@2HB	; std::numeric_limits<double>::min_exponent10
PUBLIC	?digits@?$numeric_limits@O@std@@2HB		; std::numeric_limits<long double>::digits
PUBLIC	?digits10@?$numeric_limits@O@std@@2HB		; std::numeric_limits<long double>::digits10
PUBLIC	?max_digits10@?$numeric_limits@O@std@@2HB	; std::numeric_limits<long double>::max_digits10
PUBLIC	?max_exponent@?$numeric_limits@O@std@@2HB	; std::numeric_limits<long double>::max_exponent
PUBLIC	?max_exponent10@?$numeric_limits@O@std@@2HB	; std::numeric_limits<long double>::max_exponent10
PUBLIC	?min_exponent@?$numeric_limits@O@std@@2HB	; std::numeric_limits<long double>::min_exponent
PUBLIC	?min_exponent10@?$numeric_limits@O@std@@2HB	; std::numeric_limits<long double>::min_exponent10
PUBLIC	?value@?$_Sizeof@U_Nil@std@@U12@U12@U12@U12@U12@U12@U12@@std@@2IB ; std::_Sizeof<std::_Nil,std::_Nil,std::_Nil,std::_Nil,std::_Nil,std::_Nil,std::_Nil,std::_Nil>::value
;	COMDAT ?value@?$_Sizeof@U_Nil@std@@U12@U12@U12@U12@U12@U12@U12@@std@@2IB
CONST	SEGMENT
?value@?$_Sizeof@U_Nil@std@@U12@U12@U12@U12@U12@U12@U12@@std@@2IB DD 00H ; std::_Sizeof<std::_Nil,std::_Nil,std::_Nil,std::_Nil,std::_Nil,std::_Nil,std::_Nil,std::_Nil>::value
CONST	ENDS
;	COMDAT ?min_exponent10@?$numeric_limits@O@std@@2HB
CONST	SEGMENT
?min_exponent10@?$numeric_limits@O@std@@2HB DD 0fffffecdH ; std::numeric_limits<long double>::min_exponent10
CONST	ENDS
;	COMDAT ?min_exponent@?$numeric_limits@O@std@@2HB
CONST	SEGMENT
?min_exponent@?$numeric_limits@O@std@@2HB DD 0fffffc03H	; std::numeric_limits<long double>::min_exponent
CONST	ENDS
;	COMDAT ?max_exponent10@?$numeric_limits@O@std@@2HB
CONST	SEGMENT
?max_exponent10@?$numeric_limits@O@std@@2HB DD 0134H	; std::numeric_limits<long double>::max_exponent10
CONST	ENDS
;	COMDAT ?max_exponent@?$numeric_limits@O@std@@2HB
CONST	SEGMENT
?max_exponent@?$numeric_limits@O@std@@2HB DD 0400H	; std::numeric_limits<long double>::max_exponent
CONST	ENDS
;	COMDAT ?max_digits10@?$numeric_limits@O@std@@2HB
CONST	SEGMENT
?max_digits10@?$numeric_limits@O@std@@2HB DD 011H	; std::numeric_limits<long double>::max_digits10
CONST	ENDS
;	COMDAT ?digits10@?$numeric_limits@O@std@@2HB
CONST	SEGMENT
?digits10@?$numeric_limits@O@std@@2HB DD 0fH		; std::numeric_limits<long double>::digits10
CONST	ENDS
;	COMDAT ?digits@?$numeric_limits@O@std@@2HB
CONST	SEGMENT
?digits@?$numeric_limits@O@std@@2HB DD 035H		; std::numeric_limits<long double>::digits
CONST	ENDS
;	COMDAT ?min_exponent10@?$numeric_limits@N@std@@2HB
CONST	SEGMENT
?min_exponent10@?$numeric_limits@N@std@@2HB DD 0fffffecdH ; std::numeric_limits<double>::min_exponent10
CONST	ENDS
;	COMDAT ?min_exponent@?$numeric_limits@N@std@@2HB
CONST	SEGMENT
?min_exponent@?$numeric_limits@N@std@@2HB DD 0fffffc03H	; std::numeric_limits<double>::min_exponent
CONST	ENDS
;	COMDAT ?max_exponent10@?$numeric_limits@N@std@@2HB
CONST	SEGMENT
?max_exponent10@?$numeric_limits@N@std@@2HB DD 0134H	; std::numeric_limits<double>::max_exponent10
CONST	ENDS
;	COMDAT ?max_exponent@?$numeric_limits@N@std@@2HB
CONST	SEGMENT
?max_exponent@?$numeric_limits@N@std@@2HB DD 0400H	; std::numeric_limits<double>::max_exponent
CONST	ENDS
;	COMDAT ?max_digits10@?$numeric_limits@N@std@@2HB
CONST	SEGMENT
?max_digits10@?$numeric_limits@N@std@@2HB DD 011H	; std::numeric_limits<double>::max_digits10
CONST	ENDS
;	COMDAT ?digits10@?$numeric_limits@N@std@@2HB
CONST	SEGMENT
?digits10@?$numeric_limits@N@std@@2HB DD 0fH		; std::numeric_limits<double>::digits10
CONST	ENDS
;	COMDAT ?digits@?$numeric_limits@N@std@@2HB
CONST	SEGMENT
?digits@?$numeric_limits@N@std@@2HB DD 035H		; std::numeric_limits<double>::digits
CONST	ENDS
;	COMDAT ?value@?$integral_constant@I$0A@@std@@2IB
CONST	SEGMENT
?value@?$integral_constant@I$0A@@std@@2IB DD 00H	; std::integral_constant<unsigned int,0>::value
CONST	ENDS
;	COMDAT ?min_exponent10@?$numeric_limits@M@std@@2HB
CONST	SEGMENT
?min_exponent10@?$numeric_limits@M@std@@2HB DD 0ffffffdbH ; std::numeric_limits<float>::min_exponent10
CONST	ENDS
;	COMDAT ?min_exponent@?$numeric_limits@M@std@@2HB
CONST	SEGMENT
?min_exponent@?$numeric_limits@M@std@@2HB DD 0ffffff83H	; std::numeric_limits<float>::min_exponent
CONST	ENDS
;	COMDAT ?max_exponent10@?$numeric_limits@M@std@@2HB
CONST	SEGMENT
?max_exponent10@?$numeric_limits@M@std@@2HB DD 026H	; std::numeric_limits<float>::max_exponent10
CONST	ENDS
;	COMDAT ?max_exponent@?$numeric_limits@M@std@@2HB
CONST	SEGMENT
?max_exponent@?$numeric_limits@M@std@@2HB DD 080H	; std::numeric_limits<float>::max_exponent
CONST	ENDS
;	COMDAT ?max_digits10@?$numeric_limits@M@std@@2HB
CONST	SEGMENT
?max_digits10@?$numeric_limits@M@std@@2HB DD 09H	; std::numeric_limits<float>::max_digits10
CONST	ENDS
;	COMDAT ?digits10@?$numeric_limits@M@std@@2HB
CONST	SEGMENT
?digits10@?$numeric_limits@M@std@@2HB DD 06H		; std::numeric_limits<float>::digits10
CONST	ENDS
;	COMDAT ?digits@?$numeric_limits@M@std@@2HB
CONST	SEGMENT
?digits@?$numeric_limits@M@std@@2HB DD 018H		; std::numeric_limits<float>::digits
CONST	ENDS
;	COMDAT ?digits10@?$numeric_limits@_K@std@@2HB
CONST	SEGMENT
?digits10@?$numeric_limits@_K@std@@2HB DD 013H		; std::numeric_limits<unsigned __int64>::digits10
CONST	ENDS
;	COMDAT ?digits@?$numeric_limits@_K@std@@2HB
CONST	SEGMENT
?digits@?$numeric_limits@_K@std@@2HB DD 040H		; std::numeric_limits<unsigned __int64>::digits
CONST	ENDS
;	COMDAT ?is_signed@?$numeric_limits@_K@std@@2_NB
CONST	SEGMENT
?is_signed@?$numeric_limits@_K@std@@2_NB DB 00H		; std::numeric_limits<unsigned __int64>::is_signed
CONST	ENDS
;	COMDAT ?digits10@?$numeric_limits@_J@std@@2HB
CONST	SEGMENT
?digits10@?$numeric_limits@_J@std@@2HB DD 012H		; std::numeric_limits<__int64>::digits10
CONST	ENDS
;	COMDAT ?digits@?$numeric_limits@_J@std@@2HB
CONST	SEGMENT
?digits@?$numeric_limits@_J@std@@2HB DD 03fH		; std::numeric_limits<__int64>::digits
CONST	ENDS
;	COMDAT ?is_signed@?$numeric_limits@_J@std@@2_NB
CONST	SEGMENT
?is_signed@?$numeric_limits@_J@std@@2_NB DB 01H		; std::numeric_limits<__int64>::is_signed
CONST	ENDS
;	COMDAT ?digits10@?$numeric_limits@K@std@@2HB
CONST	SEGMENT
?digits10@?$numeric_limits@K@std@@2HB DD 09H		; std::numeric_limits<unsigned long>::digits10
CONST	ENDS
;	COMDAT ?digits@?$numeric_limits@K@std@@2HB
CONST	SEGMENT
?digits@?$numeric_limits@K@std@@2HB DD 020H		; std::numeric_limits<unsigned long>::digits
CONST	ENDS
;	COMDAT ?is_signed@?$numeric_limits@K@std@@2_NB
CONST	SEGMENT
?is_signed@?$numeric_limits@K@std@@2_NB DB 00H		; std::numeric_limits<unsigned long>::is_signed
CONST	ENDS
;	COMDAT ?digits10@?$numeric_limits@J@std@@2HB
CONST	SEGMENT
?digits10@?$numeric_limits@J@std@@2HB DD 09H		; std::numeric_limits<long>::digits10
CONST	ENDS
;	COMDAT ?digits@?$numeric_limits@J@std@@2HB
CONST	SEGMENT
?digits@?$numeric_limits@J@std@@2HB DD 01fH		; std::numeric_limits<long>::digits
CONST	ENDS
;	COMDAT ?is_signed@?$numeric_limits@J@std@@2_NB
CONST	SEGMENT
?is_signed@?$numeric_limits@J@std@@2_NB DB 01H		; std::numeric_limits<long>::is_signed
CONST	ENDS
;	COMDAT ?digits10@?$numeric_limits@I@std@@2HB
CONST	SEGMENT
?digits10@?$numeric_limits@I@std@@2HB DD 09H		; std::numeric_limits<unsigned int>::digits10
CONST	ENDS
;	COMDAT ?digits@?$numeric_limits@I@std@@2HB
CONST	SEGMENT
?digits@?$numeric_limits@I@std@@2HB DD 020H		; std::numeric_limits<unsigned int>::digits
CONST	ENDS
;	COMDAT ?is_signed@?$numeric_limits@I@std@@2_NB
CONST	SEGMENT
?is_signed@?$numeric_limits@I@std@@2_NB DB 00H		; std::numeric_limits<unsigned int>::is_signed
CONST	ENDS
;	COMDAT ?digits10@?$numeric_limits@H@std@@2HB
CONST	SEGMENT
?digits10@?$numeric_limits@H@std@@2HB DD 09H		; std::numeric_limits<int>::digits10
CONST	ENDS
;	COMDAT ?digits@?$numeric_limits@H@std@@2HB
CONST	SEGMENT
?digits@?$numeric_limits@H@std@@2HB DD 01fH		; std::numeric_limits<int>::digits
CONST	ENDS
;	COMDAT ?value@?$_Sizeof@HU_Nil@std@@U12@U12@U12@U12@U12@U12@@std@@2IB
CONST	SEGMENT
?value@?$_Sizeof@HU_Nil@std@@U12@U12@U12@U12@U12@U12@@std@@2IB DD 01H ; std::_Sizeof<int,std::_Nil,std::_Nil,std::_Nil,std::_Nil,std::_Nil,std::_Nil,std::_Nil>::value
CONST	ENDS
;	COMDAT ?is_signed@?$numeric_limits@H@std@@2_NB
CONST	SEGMENT
?is_signed@?$numeric_limits@H@std@@2_NB DB 01H		; std::numeric_limits<int>::is_signed
CONST	ENDS
;	COMDAT ?value@?$integral_constant@_N$00@std@@2_NB
CONST	SEGMENT
?value@?$integral_constant@_N$00@std@@2_NB DB 01H	; std::integral_constant<bool,1>::value
CONST	ENDS
;	COMDAT ?digits10@?$numeric_limits@G@std@@2HB
CONST	SEGMENT
?digits10@?$numeric_limits@G@std@@2HB DD 04H		; std::numeric_limits<unsigned short>::digits10
CONST	ENDS
;	COMDAT ?digits@?$numeric_limits@G@std@@2HB
CONST	SEGMENT
?digits@?$numeric_limits@G@std@@2HB DD 010H		; std::numeric_limits<unsigned short>::digits
CONST	ENDS
;	COMDAT ?value@?$integral_constant@_N$0A@@std@@2_NB
CONST	SEGMENT
?value@?$integral_constant@_N$0A@@std@@2_NB DB 00H	; std::integral_constant<bool,0>::value
CONST	ENDS
;	COMDAT ?is_signed@?$numeric_limits@G@std@@2_NB
CONST	SEGMENT
?is_signed@?$numeric_limits@G@std@@2_NB DB 00H		; std::numeric_limits<unsigned short>::is_signed
CONST	ENDS
;	COMDAT ?digits10@?$numeric_limits@F@std@@2HB
CONST	SEGMENT
?digits10@?$numeric_limits@F@std@@2HB DD 04H		; std::numeric_limits<short>::digits10
CONST	ENDS
;	COMDAT ?digits@?$numeric_limits@F@std@@2HB
CONST	SEGMENT
?digits@?$numeric_limits@F@std@@2HB DD 0fH		; std::numeric_limits<short>::digits
CONST	ENDS
;	COMDAT ?is_signed@?$numeric_limits@F@std@@2_NB
CONST	SEGMENT
?is_signed@?$numeric_limits@F@std@@2_NB DB 01H		; std::numeric_limits<short>::is_signed
CONST	ENDS
CONST	SEGMENT
_L_2	DD	03f317218r			; 0.693147
CONST	ENDS
;	COMDAT ?digits10@?$numeric_limits@E@std@@2HB
CONST	SEGMENT
?digits10@?$numeric_limits@E@std@@2HB DD 02H		; std::numeric_limits<unsigned char>::digits10
CONST	ENDS
;	COMDAT ?digits@?$numeric_limits@E@std@@2HB
CONST	SEGMENT
?digits@?$numeric_limits@E@std@@2HB DD 08H		; std::numeric_limits<unsigned char>::digits
CONST	ENDS
;	COMDAT ?is_signed@?$numeric_limits@E@std@@2_NB
CONST	SEGMENT
?is_signed@?$numeric_limits@E@std@@2_NB DB 00H		; std::numeric_limits<unsigned char>::is_signed
CONST	ENDS
;	COMDAT ?digits10@?$numeric_limits@C@std@@2HB
CONST	SEGMENT
?digits10@?$numeric_limits@C@std@@2HB DD 02H		; std::numeric_limits<signed char>::digits10
CONST	ENDS
;	COMDAT ?digits@?$numeric_limits@C@std@@2HB
CONST	SEGMENT
?digits@?$numeric_limits@C@std@@2HB DD 07H		; std::numeric_limits<signed char>::digits
CONST	ENDS
;	COMDAT ?is_signed@?$numeric_limits@C@std@@2_NB
CONST	SEGMENT
?is_signed@?$numeric_limits@C@std@@2_NB DB 01H		; std::numeric_limits<signed char>::is_signed
CONST	ENDS
;	COMDAT ?digits10@?$numeric_limits@_N@std@@2HB
CONST	SEGMENT
?digits10@?$numeric_limits@_N@std@@2HB DD 00H		; std::numeric_limits<bool>::digits10
CONST	ENDS
;	COMDAT ?digits@?$numeric_limits@_N@std@@2HB
CONST	SEGMENT
?digits@?$numeric_limits@_N@std@@2HB DD 01H		; std::numeric_limits<bool>::digits
CONST	ENDS
;	COMDAT ?is_signed@?$numeric_limits@_N@std@@2_NB
CONST	SEGMENT
?is_signed@?$numeric_limits@_N@std@@2_NB DB 00H		; std::numeric_limits<bool>::is_signed
CONST	ENDS
;	COMDAT ?is_modulo@?$numeric_limits@_N@std@@2_NB
CONST	SEGMENT
?is_modulo@?$numeric_limits@_N@std@@2_NB DB 00H		; std::numeric_limits<bool>::is_modulo
CONST	ENDS
;	COMDAT ?digits10@?$numeric_limits@_W@std@@2HB
CONST	SEGMENT
?digits10@?$numeric_limits@_W@std@@2HB DD 04H		; std::numeric_limits<wchar_t>::digits10
CONST	ENDS
;	COMDAT ?digits@?$numeric_limits@_W@std@@2HB
CONST	SEGMENT
?digits@?$numeric_limits@_W@std@@2HB DD 010H		; std::numeric_limits<wchar_t>::digits
CONST	ENDS
;	COMDAT ?is_signed@?$numeric_limits@_W@std@@2_NB
CONST	SEGMENT
?is_signed@?$numeric_limits@_W@std@@2_NB DB 00H		; std::numeric_limits<wchar_t>::is_signed
CONST	ENDS
;	COMDAT ?digits10@?$numeric_limits@D@std@@2HB
CONST	SEGMENT
?digits10@?$numeric_limits@D@std@@2HB DD 02H		; std::numeric_limits<char>::digits10
CONST	ENDS
;	COMDAT ?digits@?$numeric_limits@D@std@@2HB
CONST	SEGMENT
?digits@?$numeric_limits@D@std@@2HB DD 07H		; std::numeric_limits<char>::digits
CONST	ENDS
;	COMDAT ?is_signed@?$numeric_limits@D@std@@2_NB
CONST	SEGMENT
?is_signed@?$numeric_limits@D@std@@2_NB DB 01H		; std::numeric_limits<char>::is_signed
CONST	ENDS
;	COMDAT ?radix@_Num_float_base@std@@2HB
CONST	SEGMENT
?radix@_Num_float_base@std@@2HB DD 02H			; std::_Num_float_base::radix
CONST	ENDS
;	COMDAT ?round_style@_Num_float_base@std@@2W4float_round_style@2@B
CONST	SEGMENT
?round_style@_Num_float_base@std@@2W4float_round_style@2@B DD 01H ; std::_Num_float_base::round_style
CONST	ENDS
;	COMDAT ?traps@_Num_float_base@std@@2_NB
CONST	SEGMENT
?traps@_Num_float_base@std@@2_NB DB 00H			; std::_Num_float_base::traps
CONST	ENDS
;	COMDAT ?tinyness_before@_Num_float_base@std@@2_NB
CONST	SEGMENT
?tinyness_before@_Num_float_base@std@@2_NB DB 01H	; std::_Num_float_base::tinyness_before
CONST	ENDS
;	COMDAT ?is_specialized@_Num_float_base@std@@2_NB
CONST	SEGMENT
?is_specialized@_Num_float_base@std@@2_NB DB 01H	; std::_Num_float_base::is_specialized
CONST	ENDS
;	COMDAT ?is_signed@_Num_float_base@std@@2_NB
CONST	SEGMENT
?is_signed@_Num_float_base@std@@2_NB DB 01H		; std::_Num_float_base::is_signed
CONST	ENDS
;	COMDAT ?is_modulo@_Num_float_base@std@@2_NB
CONST	SEGMENT
?is_modulo@_Num_float_base@std@@2_NB DB 00H		; std::_Num_float_base::is_modulo
CONST	ENDS
;	COMDAT ?is_integer@_Num_float_base@std@@2_NB
CONST	SEGMENT
?is_integer@_Num_float_base@std@@2_NB DB 00H		; std::_Num_float_base::is_integer
CONST	ENDS
;	COMDAT ?is_iec559@_Num_float_base@std@@2_NB
CONST	SEGMENT
?is_iec559@_Num_float_base@std@@2_NB DB 01H		; std::_Num_float_base::is_iec559
CONST	ENDS
;	COMDAT ?is_exact@_Num_float_base@std@@2_NB
CONST	SEGMENT
?is_exact@_Num_float_base@std@@2_NB DB 00H		; std::_Num_float_base::is_exact
CONST	ENDS
;	COMDAT ?is_bounded@_Num_float_base@std@@2_NB
CONST	SEGMENT
?is_bounded@_Num_float_base@std@@2_NB DB 01H		; std::_Num_float_base::is_bounded
CONST	ENDS
;	COMDAT ?has_signaling_NaN@_Num_float_base@std@@2_NB
CONST	SEGMENT
?has_signaling_NaN@_Num_float_base@std@@2_NB DB 01H	; std::_Num_float_base::has_signaling_NaN
CONST	ENDS
;	COMDAT ?has_quiet_NaN@_Num_float_base@std@@2_NB
CONST	SEGMENT
?has_quiet_NaN@_Num_float_base@std@@2_NB DB 01H		; std::_Num_float_base::has_quiet_NaN
CONST	ENDS
;	COMDAT ?has_infinity@_Num_float_base@std@@2_NB
CONST	SEGMENT
?has_infinity@_Num_float_base@std@@2_NB DB 01H		; std::_Num_float_base::has_infinity
CONST	ENDS
;	COMDAT ?CMPDIRTYDATA_INTERVAL@FalconEntity@@2KB
CONST	SEGMENT
?CMPDIRTYDATA_INTERVAL@FalconEntity@@2KB DD 0c8H	; FalconEntity::CMPDIRTYDATA_INTERVAL
CONST	ENDS
;	COMDAT ?SIMDIRTYDATA_INTERVAL@FalconEntity@@2KB
CONST	SEGMENT
?SIMDIRTYDATA_INTERVAL@FalconEntity@@2KB DD 0c8H	; FalconEntity::SIMDIRTYDATA_INTERVAL
CONST	ENDS
;	COMDAT ?has_denorm_loss@_Num_float_base@std@@2_NB
CONST	SEGMENT
?has_denorm_loss@_Num_float_base@std@@2_NB DB 01H	; std::_Num_float_base::has_denorm_loss
CONST	ENDS
;	COMDAT ?has_denorm@_Num_float_base@std@@2W4float_denorm_style@2@B
CONST	SEGMENT
?has_denorm@_Num_float_base@std@@2W4float_denorm_style@2@B DD 01H ; std::_Num_float_base::has_denorm
CONST	ENDS
;	COMDAT ?radix@_Num_int_base@std@@2HB
CONST	SEGMENT
?radix@_Num_int_base@std@@2HB DD 02H			; std::_Num_int_base::radix
CONST	ENDS
;	COMDAT ?is_specialized@_Num_int_base@std@@2_NB
CONST	SEGMENT
?is_specialized@_Num_int_base@std@@2_NB DB 01H		; std::_Num_int_base::is_specialized
CONST	ENDS
;	COMDAT ?is_modulo@_Num_int_base@std@@2_NB
CONST	SEGMENT
?is_modulo@_Num_int_base@std@@2_NB DB 01H		; std::_Num_int_base::is_modulo
CONST	ENDS
;	COMDAT ?is_integer@_Num_int_base@std@@2_NB
CONST	SEGMENT
?is_integer@_Num_int_base@std@@2_NB DB 01H		; std::_Num_int_base::is_integer
CONST	ENDS
;	COMDAT ?is_exact@_Num_int_base@std@@2_NB
CONST	SEGMENT
?is_exact@_Num_int_base@std@@2_NB DB 01H		; std::_Num_int_base::is_exact
CONST	ENDS
;	COMDAT ?is_bounded@_Num_int_base@std@@2_NB
CONST	SEGMENT
?is_bounded@_Num_int_base@std@@2_NB DB 01H		; std::_Num_int_base::is_bounded
CONST	ENDS
;	COMDAT ?radix@_Num_base@std@@2HB
CONST	SEGMENT
?radix@_Num_base@std@@2HB DD 00H			; std::_Num_base::radix
CONST	ENDS
;	COMDAT ?min_exponent10@_Num_base@std@@2HB
CONST	SEGMENT
?min_exponent10@_Num_base@std@@2HB DD 00H		; std::_Num_base::min_exponent10
CONST	ENDS
;	COMDAT ?min_exponent@_Num_base@std@@2HB
CONST	SEGMENT
?min_exponent@_Num_base@std@@2HB DD 00H			; std::_Num_base::min_exponent
CONST	ENDS
;	COMDAT ?max_exponent10@_Num_base@std@@2HB
CONST	SEGMENT
?max_exponent10@_Num_base@std@@2HB DD 00H		; std::_Num_base::max_exponent10
CONST	ENDS
;	COMDAT ?max_exponent@_Num_base@std@@2HB
CONST	SEGMENT
?max_exponent@_Num_base@std@@2HB DD 00H			; std::_Num_base::max_exponent
CONST	ENDS
;	COMDAT ?max_digits10@_Num_base@std@@2HB
CONST	SEGMENT
?max_digits10@_Num_base@std@@2HB DD 00H			; std::_Num_base::max_digits10
CONST	ENDS
;	COMDAT ?digits10@_Num_base@std@@2HB
CONST	SEGMENT
?digits10@_Num_base@std@@2HB DD 00H			; std::_Num_base::digits10
CONST	ENDS
;	COMDAT ?digits@_Num_base@std@@2HB
CONST	SEGMENT
?digits@_Num_base@std@@2HB DD 00H			; std::_Num_base::digits
CONST	ENDS
;	COMDAT ?round_style@_Num_base@std@@2W4float_round_style@2@B
CONST	SEGMENT
?round_style@_Num_base@std@@2W4float_round_style@2@B DD 00H ; std::_Num_base::round_style
CONST	ENDS
;	COMDAT ?traps@_Num_base@std@@2_NB
CONST	SEGMENT
?traps@_Num_base@std@@2_NB DB 00H			; std::_Num_base::traps
CONST	ENDS
;	COMDAT ?tinyness_before@_Num_base@std@@2_NB
CONST	SEGMENT
?tinyness_before@_Num_base@std@@2_NB DB 00H		; std::_Num_base::tinyness_before
CONST	ENDS
;	COMDAT ?is_specialized@_Num_base@std@@2_NB
CONST	SEGMENT
?is_specialized@_Num_base@std@@2_NB DB 00H		; std::_Num_base::is_specialized
CONST	ENDS
;	COMDAT ?is_signed@_Num_base@std@@2_NB
CONST	SEGMENT
?is_signed@_Num_base@std@@2_NB DB 00H			; std::_Num_base::is_signed
CONST	ENDS
;	COMDAT ?is_modulo@_Num_base@std@@2_NB
CONST	SEGMENT
?is_modulo@_Num_base@std@@2_NB DB 00H			; std::_Num_base::is_modulo
CONST	ENDS
;	COMDAT ?is_integer@_Num_base@std@@2_NB
CONST	SEGMENT
?is_integer@_Num_base@std@@2_NB DB 00H			; std::_Num_base::is_integer
CONST	ENDS
;	COMDAT ?is_iec559@_Num_base@std@@2_NB
CONST	SEGMENT
?is_iec559@_Num_base@std@@2_NB DB 00H			; std::_Num_base::is_iec559
CONST	ENDS
;	COMDAT ?is_exact@_Num_base@std@@2_NB
CONST	SEGMENT
?is_exact@_Num_base@std@@2_NB DB 00H			; std::_Num_base::is_exact
CONST	ENDS
;	COMDAT ?is_bounded@_Num_base@std@@2_NB
CONST	SEGMENT
?is_bounded@_Num_base@std@@2_NB DB 00H			; std::_Num_base::is_bounded
CONST	ENDS
;	COMDAT ?has_signaling_NaN@_Num_base@std@@2_NB
CONST	SEGMENT
?has_signaling_NaN@_Num_base@std@@2_NB DB 00H		; std::_Num_base::has_signaling_NaN
CONST	ENDS
;	COMDAT ?has_quiet_NaN@_Num_base@std@@2_NB
CONST	SEGMENT
?has_quiet_NaN@_Num_base@std@@2_NB DB 00H		; std::_Num_base::has_quiet_NaN
CONST	ENDS
;	COMDAT ?has_infinity@_Num_base@std@@2_NB
CONST	SEGMENT
?has_infinity@_Num_base@std@@2_NB DB 00H		; std::_Num_base::has_infinity
CONST	ENDS
;	COMDAT ?has_denorm_loss@_Num_base@std@@2_NB
CONST	SEGMENT
?has_denorm_loss@_Num_base@std@@2_NB DB 00H		; std::_Num_base::has_denorm_loss
CONST	ENDS
;	COMDAT ?has_denorm@_Num_base@std@@2W4float_denorm_style@2@B
CONST	SEGMENT
?has_denorm@_Num_base@std@@2W4float_denorm_style@2@B DD 00H ; std::_Num_base::has_denorm
CONST	ENDS
PUBLIC	?ZPos@VuEntity@@QBEMXZ				; VuEntity::ZPos
PUBLIC	?EntityType@VuEntity@@QBEPAUVuEntityType@@XZ	; VuEntity::EntityType
PUBLIC	?IsSimBase@FalconEntity@@UAE_NXZ		; FalconEntity::IsSimBase
PUBLIC	?GetRadarMode@FalconEntity@@UAEHXZ		; FalconEntity::GetRadarMode
PUBLIC	?SetRadarMode@FalconEntity@@UAEXE@Z		; FalconEntity::SetRadarMode
PUBLIC	?ReturnToSearch@FalconEntity@@UAEXXZ		; FalconEntity::ReturnToSearch
PUBLIC	?SetSearchMode@FalconEntity@@UAEXE@Z		; FalconEntity::SetSearchMode
PUBLIC	?CombatClass@FalconEntity@@UAEHXZ		; FalconEntity::CombatClass
PUBLIC	?IsMissile@FalconEntity@@UAEHXZ			; FalconEntity::IsMissile
PUBLIC	?IsLauncher@FalconEntity@@UAEHXZ		; FalconEntity::IsLauncher
PUBLIC	?IsBomb@FalconEntity@@UAEHXZ			; FalconEntity::IsBomb
PUBLIC	?IsGun@FalconEntity@@UAEHXZ			; FalconEntity::IsGun
PUBLIC	?IsMover@FalconEntity@@UAEHXZ			; FalconEntity::IsMover
PUBLIC	?IsVehicle@FalconEntity@@UAEHXZ			; FalconEntity::IsVehicle
PUBLIC	?IsStatic@FalconEntity@@UAEHXZ			; FalconEntity::IsStatic
PUBLIC	?IsHelicopter@FalconEntity@@UAEHXZ		; FalconEntity::IsHelicopter
PUBLIC	?IsEject@FalconEntity@@UAEHXZ			; FalconEntity::IsEject
PUBLIC	?IsAirplane@FalconEntity@@UAEHXZ		; FalconEntity::IsAirplane
PUBLIC	?IsGroundVehicle@FalconEntity@@UAEHXZ		; FalconEntity::IsGroundVehicle
PUBLIC	?IsShip@FalconEntity@@UAEHXZ			; FalconEntity::IsShip
PUBLIC	?IsWeapon@FalconEntity@@UAEHXZ			; FalconEntity::IsWeapon
PUBLIC	?IsExploding@FalconEntity@@UAEHXZ		; FalconEntity::IsExploding
PUBLIC	?IsDead@FalconEntity@@UAEHXZ			; FalconEntity::IsDead
PUBLIC	?GetMovementType@FalconEntity@@UAE?AW4MoveType@@XZ ; FalconEntity::GetMovementType
PUBLIC	?IsObjective@FalconEntity@@UAEHXZ		; FalconEntity::IsObjective
PUBLIC	?IsBattalion@FalconEntity@@UAEHXZ		; FalconEntity::IsBattalion
PUBLIC	?IsBrigade@FalconEntity@@UAEHXZ			; FalconEntity::IsBrigade
PUBLIC	?IsFlight@FalconEntity@@UBEHXZ			; FalconEntity::IsFlight
PUBLIC	?IsSquadron@FalconEntity@@UAEHXZ		; FalconEntity::IsSquadron
PUBLIC	?IsPackage@FalconEntity@@UAEHXZ			; FalconEntity::IsPackage
PUBLIC	?IsTeam@FalconEntity@@UAEHXZ			; FalconEntity::IsTeam
PUBLIC	?IsTaskForce@FalconEntity@@UAEHXZ		; FalconEntity::IsTaskForce
PUBLIC	?IsSPJamming@FalconEntity@@UAEHXZ		; FalconEntity::IsSPJamming
PUBLIC	?IsAreaJamming@FalconEntity@@UAEHXZ		; FalconEntity::IsAreaJamming
PUBLIC	?HasSPJamming@FalconEntity@@UAEHXZ		; FalconEntity::HasSPJamming
PUBLIC	?HasAreaJamming@FalconEntity@@UAEHXZ		; FalconEntity::HasAreaJamming
PUBLIC	?GetAltitude@FalconEntity@@QBEHXZ		; FalconEntity::GetAltitude
PUBLIC	?SetAQUIREtimer@FalconEntity@@UAEXK@Z		; FalconEntity::SetAQUIREtimer
PUBLIC	?SetSEARCHtimer@FalconEntity@@UAEXK@Z		; FalconEntity::SetSEARCHtimer
PUBLIC	?SetStepSearchMode@FalconEntity@@UAEXE@Z	; FalconEntity::SetStepSearchMode
PUBLIC	?GetAQUIREtimer@FalconEntity@@UAEKXZ		; FalconEntity::GetAQUIREtimer
PUBLIC	?GetSEARCHtimer@FalconEntity@@UAEKXZ		; FalconEntity::GetSEARCHtimer
PUBLIC	?GetCampID@CampBaseClass@@UAEFXZ		; CampBaseClass::GetCampID
PUBLIC	?GetTeam@CampBaseClass@@UAEEXZ			; CampBaseClass::GetTeam
PUBLIC	?GetCountry@CampBaseClass@@UAEEXZ		; CampBaseClass::GetCountry
PUBLIC	?StepRadar@CampBaseClass@@UAEHHHM@Z		; CampBaseClass::StepRadar
PUBLIC	?GetMissilesFlying@CampBaseClass@@UAEHXZ	; CampBaseClass::GetMissilesFlying
PUBLIC	?IsCampBase@CampBaseClass@@UAE_NXZ		; CampBaseClass::IsCampBase
PUBLIC	?IsEmitting@CampBaseClass@@UAEHXZ		; CampBaseClass::IsEmitting
PUBLIC	?HasEntity@CampBaseClass@@UBEHPAVVuEntity@@@Z	; CampBaseClass::HasEntity
PUBLIC	?GetType@CampBaseClass@@QBEEXZ			; CampBaseClass::GetType
PUBLIC	?GetSType@CampBaseClass@@QBEEXZ			; CampBaseClass::GetSType
PUBLIC	?CanShootWeapon@UnitClass@@UAEHH@Z		; UnitClass::CanShootWeapon
PUBLIC	?GetDeaggregationPoint@UnitClass@@UAEHHPAPAVCampBaseClass@@@Z ; UnitClass::GetDeaggregationPoint
PUBLIC	?GetUnitDeaggregationData@UnitClass@@UAEPAVUnitDeaggregationData@@XZ ; UnitClass::GetUnitDeaggregationData
PUBLIC	?ShouldDeaggregate@UnitClass@@UAEHXZ		; UnitClass::ShouldDeaggregate
PUBLIC	?ClearDeaggregationData@UnitClass@@UAEXXZ	; UnitClass::ClearDeaggregationData
PUBLIC	?Reaction@UnitClass@@UAEHPAVCampBaseClass@@HM@Z	; UnitClass::Reaction
PUBLIC	?MoveUnit@UnitClass@@UAEHK@Z			; UnitClass::MoveUnit
PUBLIC	?DoCombat@UnitClass@@UAEHXZ			; UnitClass::DoCombat
PUBLIC	?ChooseTactic@UnitClass@@UAEHXZ			; UnitClass::ChooseTactic
PUBLIC	?CheckTactic@UnitClass@@UAEHH@Z			; UnitClass::CheckTactic
PUBLIC	?Father@UnitClass@@UBEHXZ			; UnitClass::Father
PUBLIC	?Real@UnitClass@@UAEHXZ				; UnitClass::Real
PUBLIC	?AdjustForSupply@UnitClass@@UAEMXZ		; UnitClass::AdjustForSupply
PUBLIC	?DetectOnMove@UnitClass@@UAEHXZ			; UnitClass::DetectOnMove
PUBLIC	?ChooseTarget@UnitClass@@UAEHXZ			; UnitClass::ChooseTarget
PUBLIC	?CombatTime@UnitClass@@UAEKXZ			; UnitClass::CombatTime
PUBLIC	?GetUnitSupplyNeed@UnitClass@@UAEHH@Z		; UnitClass::GetUnitSupplyNeed
PUBLIC	?GetUnitFuelNeed@UnitClass@@UAEHH@Z		; UnitClass::GetUnitFuelNeed
PUBLIC	?SupplyUnit@UnitClass@@UAEXHH@Z			; UnitClass::SupplyUnit
PUBLIC	?GetVehicleDeagData@UnitClass@@UAEHPAVSimInitDataClass@@H@Z ; UnitClass::GetVehicleDeagData
PUBLIC	?IsUnit@UnitClass@@UAEHXZ			; UnitClass::IsUnit
PUBLIC	?IsDead@UnitClass@@UBEHXZ			; UnitClass::IsDead
PUBLIC	?SimSetLocation@UnitClass@@UAEXMMM@Z		; UnitClass::SimSetLocation
PUBLIC	?SimSetOrientation@UnitClass@@UAEXMMM@Z		; UnitClass::SimSetOrientation
PUBLIC	?GetRealPosition@UnitClass@@UAEXPAM00@Z		; UnitClass::GetRealPosition
PUBLIC	?GetUnitTactic@UnitClass@@QBEHXZ		; UnitClass::GetUnitTactic
PUBLIC	?SetUnitLastMove@UnitClass@@UAEXK@Z		; UnitClass::SetUnitLastMove
PUBLIC	?SetCombatTime@UnitClass@@UAEXK@Z		; UnitClass::SetCombatTime
PUBLIC	?SetBurntFuel@UnitClass@@UAEXJ@Z		; UnitClass::SetBurntFuel
PUBLIC	?SetUnitMission@UnitClass@@UAEXE@Z		; UnitClass::SetUnitMission
PUBLIC	?SetUnitRole@UnitClass@@UAEXE@Z			; UnitClass::SetUnitRole
PUBLIC	?SetUnitPriority@UnitClass@@UAEXH@Z		; UnitClass::SetUnitPriority
PUBLIC	?SetUnitMissionID@UnitClass@@UAEXH@Z		; UnitClass::SetUnitMissionID
PUBLIC	?SetUnitMissionTarget@UnitClass@@UAEXH@Z	; UnitClass::SetUnitMissionTarget
PUBLIC	?SetUnitTOT@UnitClass@@UAEXK@Z			; UnitClass::SetUnitTOT
PUBLIC	?SetUnitSquadron@UnitClass@@UAEXVVU_ID@@@Z	; UnitClass::SetUnitSquadron
PUBLIC	?SetUnitAirbase@UnitClass@@UAEXVVU_ID@@@Z	; UnitClass::SetUnitAirbase
PUBLIC	?SetLoadout@UnitClass@@UAEXPAULoadoutStruct@@H@Z ; UnitClass::SetLoadout
PUBLIC	?GetNumberOfLoadouts@UnitClass@@UAEHXZ		; UnitClass::GetNumberOfLoadouts
PUBLIC	?GetMoveTime@UnitClass@@UAEKXZ			; UnitClass::GetMoveTime
PUBLIC	?GetCombatTime@UnitClass@@UAEKXZ		; UnitClass::GetCombatTime
PUBLIC	?GetAirTargetID@UnitClass@@UAE?AVVU_ID@@XZ	; UnitClass::GetAirTargetID
PUBLIC	?GetAirTarget@UnitClass@@UAEPAVFalconEntity@@XZ	; UnitClass::GetAirTarget
PUBLIC	?GetBurntFuel@UnitClass@@UAEHXZ			; UnitClass::GetBurntFuel
PUBLIC	?GetUnitMission@UnitClass@@UAE?AW4MissionTypeEnum@@XZ ; UnitClass::GetUnitMission
PUBLIC	?GetUnitNormalRole@UnitClass@@UAEHXZ		; UnitClass::GetUnitNormalRole
PUBLIC	?GetUnitCurrentRole@UnitClass@@UBEHXZ		; UnitClass::GetUnitCurrentRole
PUBLIC	?GetUnitPriority@UnitClass@@UAEHXZ		; UnitClass::GetUnitPriority
PUBLIC	?GetUnitMissionTarget@UnitClass@@UAEPAVCampBaseClass@@XZ ; UnitClass::GetUnitMissionTarget
PUBLIC	?GetUnitMissionTargetID@UnitClass@@UAE?AVVU_ID@@XZ ; UnitClass::GetUnitMissionTargetID
PUBLIC	?GetUnitMissionID@UnitClass@@UAEHXZ		; UnitClass::GetUnitMissionID
PUBLIC	?GetUnitTOT@UnitClass@@UAEKXZ			; UnitClass::GetUnitTOT
PUBLIC	?GetUnitSquadron@UnitClass@@UAEPAV1@XZ		; UnitClass::GetUnitSquadron
PUBLIC	?GetUnitSquadronID@UnitClass@@UAE?AVVU_ID@@XZ	; UnitClass::GetUnitSquadronID
PUBLIC	?GetUnitAirbase@UnitClass@@UAEPAVCampBaseClass@@XZ ; UnitClass::GetUnitAirbase
PUBLIC	?GetUnitAirbaseID@UnitClass@@UAE?AVVU_ID@@XZ	; UnitClass::GetUnitAirbaseID
PUBLIC	?LoadWeapons@UnitClass@@UAEHPAXPAEW4MoveType@@HHH@Z ; UnitClass::LoadWeapons
PUBLIC	?DumpWeapons@UnitClass@@UAEHXZ			; UnitClass::DumpWeapons
PUBLIC	?ETA@UnitClass@@UAEKXZ				; UnitClass::ETA
PUBLIC	?GetKnownEmitters@UnitClass@@UAEPAVFalconPrivateList@@XZ ; UnitClass::GetKnownEmitters
PUBLIC	?BuildMission@UnitClass@@UAEHPAVMissionRequestClass@@@Z ; UnitClass::BuildMission
PUBLIC	?IncrementTime@UnitClass@@UAEXK@Z		; UnitClass::IncrementTime
PUBLIC	?UseFuel@UnitClass@@UAEXJ@Z			; UnitClass::UseFuel
PUBLIC	?SetUnitSpecialty@UnitClass@@UAEXH@Z		; UnitClass::SetUnitSpecialty
PUBLIC	?SetUnitSupply@UnitClass@@UAEXH@Z		; UnitClass::SetUnitSupply
PUBLIC	?SetUnitMorale@UnitClass@@UAEXH@Z		; UnitClass::SetUnitMorale
PUBLIC	?SetSquadronFuel@UnitClass@@UAEXJ@Z		; UnitClass::SetSquadronFuel
PUBLIC	?SetUnitStores@UnitClass@@UAEXHE@Z		; UnitClass::SetUnitStores
PUBLIC	?SetLastResupply@UnitClass@@UAEXH@Z		; UnitClass::SetLastResupply
PUBLIC	?SetLastResupplyTime@UnitClass@@UAEXK@Z		; UnitClass::SetLastResupplyTime
PUBLIC	?GetUnitSpecialty@UnitClass@@UAEHXZ		; UnitClass::GetUnitSpecialty
PUBLIC	?GetUnitSupply@UnitClass@@UAEHXZ		; UnitClass::GetUnitSupply
PUBLIC	?GetUnitMorale@UnitClass@@UAEHXZ		; UnitClass::GetUnitMorale
PUBLIC	?GetSquadronFuel@UnitClass@@UAEJXZ		; UnitClass::GetSquadronFuel
PUBLIC	?GetUnitStores@UnitClass@@UAEEH@Z		; UnitClass::GetUnitStores
PUBLIC	?GetLastResupplyTime@UnitClass@@UAEKXZ		; UnitClass::GetLastResupplyTime
PUBLIC	?GetLastResupply@UnitClass@@UAEHXZ		; UnitClass::GetLastResupply
PUBLIC	?BuildPackage@UnitClass@@UAEHPAVMissionRequestClass@@PAVFalconPrivateList@@@Z ; UnitClass::BuildPackage
PUBLIC	?HandleRequestReceipt@UnitClass@@UAEXHHVVU_ID@@@Z ; UnitClass::HandleRequestReceipt
PUBLIC	?SetUnitAssemblyPoint@UnitClass@@UAEXHFF@Z	; UnitClass::SetUnitAssemblyPoint
PUBLIC	?GetUnitAssemblyPoint@UnitClass@@UAEXHPAF0@Z	; UnitClass::GetUnitAssemblyPoint
PUBLIC	?SetUnitPrimaryObj@UnitClass@@UAEXVVU_ID@@@Z	; UnitClass::SetUnitPrimaryObj
PUBLIC	?SetUnitSecondaryObj@UnitClass@@UAEXVVU_ID@@@Z	; UnitClass::SetUnitSecondaryObj
PUBLIC	?SetUnitObjective@UnitClass@@UAEXVVU_ID@@@Z	; UnitClass::SetUnitObjective
PUBLIC	?SetUnitOrders@UnitClass@@UAEXH@Z		; UnitClass::SetUnitOrders
PUBLIC	?SetUnitOrders@UnitClass@@UAEXHVVU_ID@@@Z	; UnitClass::SetUnitOrders
PUBLIC	?SetUnitFatigue@UnitClass@@UAEXH@Z		; UnitClass::SetUnitFatigue
PUBLIC	?SetUnitMode@UnitClass@@UAEXH@Z			; UnitClass::SetUnitMode
PUBLIC	?SetUnitPosition@UnitClass@@UAEXH@Z		; UnitClass::SetUnitPosition
PUBLIC	?SetUnitDivision@UnitClass@@UAEXH@Z		; UnitClass::SetUnitDivision
PUBLIC	?SetUnitHeading@UnitClass@@UAEXH@Z		; UnitClass::SetUnitHeading
PUBLIC	?GetUnitPrimaryObj@UnitClass@@UAEPAVObjectiveClass@@XZ ; UnitClass::GetUnitPrimaryObj
PUBLIC	?GetUnitSecondaryObj@UnitClass@@UAEPAVObjectiveClass@@XZ ; UnitClass::GetUnitSecondaryObj
PUBLIC	?GetUnitObjective@UnitClass@@UAEPAVObjectiveClass@@XZ ; UnitClass::GetUnitObjective
PUBLIC	?GetUnitPrimaryObjID@UnitClass@@UAE?AVVU_ID@@XZ	; UnitClass::GetUnitPrimaryObjID
PUBLIC	?GetUnitSecondaryObjID@UnitClass@@UAE?AVVU_ID@@XZ ; UnitClass::GetUnitSecondaryObjID
PUBLIC	?GetUnitObjectiveID@UnitClass@@UAE?AVVU_ID@@XZ	; UnitClass::GetUnitObjectiveID
PUBLIC	?GetUnitOrders@UnitClass@@UAEHXZ		; UnitClass::GetUnitOrders
PUBLIC	?GetUnitFatigue@UnitClass@@UAEHXZ		; UnitClass::GetUnitFatigue
PUBLIC	?GetUnitElement@UnitClass@@UAEHXZ		; UnitClass::GetUnitElement
PUBLIC	?GetUnitMode@UnitClass@@UAEHXZ			; UnitClass::GetUnitMode
PUBLIC	?GetUnitPosition@UnitClass@@UAEHXZ		; UnitClass::GetUnitPosition
PUBLIC	?GetUnitDivision@UnitClass@@UAEHXZ		; UnitClass::GetUnitDivision
PUBLIC	?GetUnitHeading@UnitClass@@UAEHXZ		; UnitClass::GetUnitHeading
PUBLIC	?SetUnitNextMove@UnitClass@@UAEXXZ		; UnitClass::SetUnitNextMove
PUBLIC	?ClearUnitPath@UnitClass@@UAEXXZ		; UnitClass::ClearUnitPath
PUBLIC	?GetNextMoveDirection@UnitClass@@UAEHXZ		; UnitClass::GetNextMoveDirection
PUBLIC	?SetUnitCurrentDestination@UnitClass@@UAEXFF@Z	; UnitClass::SetUnitCurrentDestination
PUBLIC	?GetUnitCurrentDestination@UnitClass@@UAEXPAF0@Z ; UnitClass::GetUnitCurrentDestination
PUBLIC	?GetObjMovementType@UnitClass@@UAE?AW4MoveType@@PAVObjectiveClass@@H@Z ; UnitClass::GetObjMovementType
PUBLIC	?CheckForSurrender@UnitClass@@UAEHXZ		; UnitClass::CheckForSurrender
PUBLIC	?BuildMission@UnitClass@@UAEHXZ			; UnitClass::BuildMission
PUBLIC	?RallyUnit@UnitClass@@UAEHH@Z			; UnitClass::RallyUnit
PUBLIC	?GetUnitParent@UnitClass@@UBEPAV1@XZ		; UnitClass::GetUnitParent
PUBLIC	?GetUnitParentID@UnitClass@@UAE?AVVU_ID@@XZ	; UnitClass::GetUnitParentID
PUBLIC	?SetUnitParent@UnitClass@@UAEXPAV1@@Z		; UnitClass::SetUnitParent
PUBLIC	?GetFirstUnitElement@UnitClass@@UBEPAV1@XZ	; UnitClass::GetFirstUnitElement
PUBLIC	?GetNextUnitElement@UnitClass@@UBEPAV1@XZ	; UnitClass::GetNextUnitElement
PUBLIC	?GetUnitElement@UnitClass@@UAEPAV1@H@Z		; UnitClass::GetUnitElement
PUBLIC	?GetUnitElementByID@UnitClass@@UAEPAV1@H@Z	; UnitClass::GetUnitElementByID
PUBLIC	?GetPrevUnitElement@UnitClass@@UAEPAV1@PAV1@@Z	; UnitClass::GetPrevUnitElement
PUBLIC	?AddUnitChild@UnitClass@@UAEXPAV1@@Z		; UnitClass::AddUnitChild
PUBLIC	?DisposeChildren@UnitClass@@UAEXXZ		; UnitClass::DisposeChildren
PUBLIC	?RemoveChild@UnitClass@@UAEXVVU_ID@@@Z		; UnitClass::RemoveChild
PUBLIC	?ReorganizeUnit@UnitClass@@UAEXXZ		; UnitClass::ReorganizeUnit
PUBLIC	?UpdateParentStatistics@UnitClass@@UAEHXZ	; UnitClass::UpdateParentStatistics
PUBLIC	??0AirUnitClass@@QAE@GK@Z			; AirUnitClass::AirUnitClass
PUBLIC	??0AirUnitClass@@QAE@PAPAEPAJ@Z			; AirUnitClass::AirUnitClass
PUBLIC	??1AirUnitClass@@UAE@XZ				; AirUnitClass::~AirUnitClass
PUBLIC	?SaveSize@AirUnitClass@@UAEHXZ			; AirUnitClass::SaveSize
PUBLIC	?Save@AirUnitClass@@UAEHPAPAE@Z			; AirUnitClass::Save
PUBLIC	?Handle@AirUnitClass@@UAEHPAVVuFullUpdateEvent@@@Z ; AirUnitClass::Handle
PUBLIC	?GetMovementType@AirUnitClass@@UAE?AW4MoveType@@XZ ; AirUnitClass::GetMovementType
PUBLIC	?GetUnitSpeed@AirUnitClass@@UBEHXZ		; AirUnitClass::GetUnitSpeed
PUBLIC	?MaxUpdateTime@AirUnitClass@@UBEKXZ		; AirUnitClass::MaxUpdateTime
PUBLIC	?GetVt@AirUnitClass@@UBEMXZ			; AirUnitClass::GetVt
PUBLIC	?GetKias@AirUnitClass@@UBEMXZ			; AirUnitClass::GetKias
PUBLIC	?IsHelicopter@AirUnitClass@@UBEHXZ		; AirUnitClass::IsHelicopter
PUBLIC	?OnGround@AirUnitClass@@UAEHXZ			; AirUnitClass::OnGround
PUBLIC	??_GAirUnitClass@@UAEPAXI@Z			; AirUnitClass::`scalar deleting destructor'
PUBLIC	?GetUnitScore@@YAHPAVUnitClass@@W4MoveType@@@Z	; GetUnitScore
PUBLIC	??_7AirUnitClass@@6B@				; AirUnitClass::`vftable'
PUBLIC	??_C@_0BD@CCMMOIEM@?$CF08x?5AirUnitClass?5?$AA@	; `string'
PUBLIC	??_R4AirUnitClass@@6B@				; AirUnitClass::`RTTI Complete Object Locator'
PUBLIC	??_R0?AVAirUnitClass@@@8			; AirUnitClass `RTTI Type Descriptor'
PUBLIC	??_R3AirUnitClass@@8				; AirUnitClass::`RTTI Class Hierarchy Descriptor'
PUBLIC	??_R2AirUnitClass@@8				; AirUnitClass::`RTTI Base Class Array'
PUBLIC	??_R1A@?0A@EA@AirUnitClass@@8			; AirUnitClass::`RTTI Base Class Descriptor at (0,-1,0,64)'
PUBLIC	??_R1A@?0A@EA@UnitClass@@8			; UnitClass::`RTTI Base Class Descriptor at (0,-1,0,64)'
PUBLIC	??_R0?AVUnitClass@@@8				; UnitClass `RTTI Type Descriptor'
PUBLIC	??_R3UnitClass@@8				; UnitClass::`RTTI Class Hierarchy Descriptor'
PUBLIC	??_R2UnitClass@@8				; UnitClass::`RTTI Base Class Array'
PUBLIC	??_R1A@?0A@EA@CampBaseClass@@8			; CampBaseClass::`RTTI Base Class Descriptor at (0,-1,0,64)'
PUBLIC	??_R0?AVCampBaseClass@@@8			; CampBaseClass `RTTI Type Descriptor'
PUBLIC	??_R3CampBaseClass@@8				; CampBaseClass::`RTTI Class Hierarchy Descriptor'
PUBLIC	??_R2CampBaseClass@@8				; CampBaseClass::`RTTI Base Class Array'
PUBLIC	??_R1A@?0A@EA@FalconEntity@@8			; FalconEntity::`RTTI Base Class Descriptor at (0,-1,0,64)'
PUBLIC	??_R0?AVFalconEntity@@@8			; FalconEntity `RTTI Type Descriptor'
PUBLIC	??_R3FalconEntity@@8				; FalconEntity::`RTTI Class Hierarchy Descriptor'
PUBLIC	??_R2FalconEntity@@8				; FalconEntity::`RTTI Base Class Array'
PUBLIC	??_R1A@?0A@EA@VuEntity@@8			; VuEntity::`RTTI Base Class Descriptor at (0,-1,0,64)'
PUBLIC	??_R0?AVVuEntity@@@8				; VuEntity `RTTI Type Descriptor'
PUBLIC	??_R3VuEntity@@8				; VuEntity::`RTTI Class Hierarchy Descriptor'
PUBLIC	??_R2VuEntity@@8				; VuEntity::`RTTI Base Class Array'
PUBLIC	__real@00000000
PUBLIC	__real@3f17ac60
PUBLIC	__real@3f693e32
PUBLIC	__real@3f800000
PUBLIC	__real@bf800000
EXTRN	??3@YAXPAX@Z:PROC				; operator delete
EXTRN	_fflush:PROC
EXTRN	_fprintf:PROC
EXTRN	?SetPosition@VuEntity@@QAEXMMM@Z:PROC		; VuEntity::SetPosition
EXTRN	?CustomCollisionCheck@VuEntity@@UAEEPAV1@M@Z:PROC ; VuEntity::CustomCollisionCheck
EXTRN	?TerrainCollisionCheck@VuEntity@@UAEEXZ:PROC	; VuEntity::TerrainCollisionCheck
EXTRN	?IsTarget@VuEntity@@UAEEXZ:PROC			; VuEntity::IsTarget
EXTRN	?IsSession@VuEntity@@UAEEXZ:PROC		; VuEntity::IsSession
EXTRN	?IsGroup@VuEntity@@UAEEXZ:PROC			; VuEntity::IsGroup
EXTRN	?IsGame@VuEntity@@UAEEXZ:PROC			; VuEntity::IsGame
EXTRN	?IsCamera@VuEntity@@UBEEXZ:PROC			; VuEntity::IsCamera
EXTRN	?Handle@VuEntity@@UAEHPAVVuErrorMessage@@@Z:PROC ; VuEntity::Handle
EXTRN	?Handle@VuEntity@@UAEHPAVVuPushRequest@@@Z:PROC	; VuEntity::Handle
EXTRN	?Handle@VuEntity@@UAEHPAVVuPullRequest@@@Z:PROC	; VuEntity::Handle
EXTRN	?InsertionCallback@VuEntity@@MAEHXZ:PROC	; VuEntity::InsertionCallback
EXTRN	?Find@VuCollection@@QBE_NPAVVuEntity@@@Z:PROC	; VuCollection::Find
EXTRN	?Save@FalconEntity@@UAEHPAU_iobuf@@@Z:PROC	; FalconEntity::Save
EXTRN	?CleanupData@FalconEntity@@UAEXXZ:PROC		; FalconEntity::CleanupData
EXTRN	?RemovalCallback@FalconEntity@@UAEHXZ:PROC	; FalconEntity::RemovalCallback
EXTRN	?GetDomain@FalconEntity@@UAEEXZ:PROC		; FalconEntity::GetDomain
EXTRN	?GetTeam@@YAEE@Z:PROC				; GetTeam
EXTRN	?SetOwner@CampBaseClass@@UAEXE@Z:PROC		; CampBaseClass::SetOwner
EXTRN	?MakeCampBaseDirty@CampBaseClass@@QAEXW4Dirty_Campaign_Base@@W4Dirtyness@@@Z:PROC ; CampBaseClass::MakeCampBaseDirty
EXTRN	?InitData@CampBaseClass@@UAEXXZ:PROC		; CampBaseClass::InitData
EXTRN	?Handle@CampBaseClass@@UAEHPAVVuEvent@@@Z:PROC	; CampBaseClass::Handle
EXTRN	?Handle@CampBaseClass@@UAEHPAVVuPositionUpdateEvent@@@Z:PROC ; CampBaseClass::Handle
EXTRN	?Handle@CampBaseClass@@UAEHPAVVuEntityCollisionEvent@@@Z:PROC ; CampBaseClass::Handle
EXTRN	?Handle@CampBaseClass@@UAEHPAVVuTransferEvent@@@Z:PROC ; CampBaseClass::Handle
EXTRN	?Handle@CampBaseClass@@UAEHPAVVuSessionEvent@@@Z:PROC ; CampBaseClass::Handle
EXTRN	??0UnitClass@@QAE@GK@Z:PROC			; UnitClass::UnitClass
EXTRN	??0UnitClass@@QAE@PAPAEPAJ@Z:PROC		; UnitClass::UnitClass
EXTRN	??1UnitClass@@UAE@XZ:PROC			; UnitClass::~UnitClass
EXTRN	?SaveSize@UnitClass@@UAEHXZ:PROC		; UnitClass::SaveSize
EXTRN	?Save@UnitClass@@UAEHPAPAE@Z:PROC		; UnitClass::Save
EXTRN	?Handle@UnitClass@@UAEHPAVVuFullUpdateEvent@@@Z:PROC ; UnitClass::Handle
EXTRN	?SendDeaggregateData@UnitClass@@UAEXPAVVuTargetEntity@@@Z:PROC ; UnitClass::SendDeaggregateData
EXTRN	?RecordCurrentState@UnitClass@@UAEHPAVFalconSessionEntity@@H@Z:PROC ; UnitClass::RecordCurrentState
EXTRN	?Deaggregate@UnitClass@@UAEHPAVFalconSessionEntity@@@Z:PROC ; UnitClass::Deaggregate
EXTRN	?Reaggregate@UnitClass@@UAEHPAVFalconSessionEntity@@@Z:PROC ; UnitClass::Reaggregate
EXTRN	?TransferOwnership@UnitClass@@UAEHPAVFalconSessionEntity@@@Z:PROC ; UnitClass::TransferOwnership
EXTRN	?Wake@UnitClass@@UAEHXZ:PROC			; UnitClass::Wake
EXTRN	?Sleep@UnitClass@@UAEHXZ:PROC			; UnitClass::Sleep
EXTRN	?InsertInSimLists@UnitClass@@UAEXMM@Z:PROC	; UnitClass::InsertInSimLists
EXTRN	?RemoveFromSimLists@UnitClass@@UAEXXZ:PROC	; UnitClass::RemoveFromSimLists
EXTRN	?DeaggregateFromData@UnitClass@@UAEXPAEJ@Z:PROC	; UnitClass::DeaggregateFromData
EXTRN	?ReaggregateFromData@UnitClass@@UAEXPAEJ@Z:PROC	; UnitClass::ReaggregateFromData
EXTRN	?TransferOwnershipFromData@UnitClass@@UAEXPAEJ@Z:PROC ; UnitClass::TransferOwnershipFromData
EXTRN	?ResetPlayerStatus@UnitClass@@UAEHXZ:PROC	; UnitClass::ResetPlayerStatus
EXTRN	?ApplyDamage@UnitClass@@UAEHPAVFalconCampWeaponsFire@@E@Z:PROC ; UnitClass::ApplyDamage
EXTRN	?ApplyDamage@UnitClass@@UAEHW4DamageDataType@@PAHHF@Z:PROC ; UnitClass::ApplyDamage
EXTRN	?DecodeDamageData@UnitClass@@UAEHPAEPAV1@PAVFalconDeathMessage@@@Z:PROC ; UnitClass::DecodeDamageData
EXTRN	?CollectWeapons@UnitClass@@UAEHPAEW4MoveType@@QAFQAEH@Z:PROC ; UnitClass::CollectWeapons
EXTRN	?GetDamageModifiers@UnitClass@@UAEPAEXZ:PROC	; UnitClass::GetDamageModifiers
EXTRN	?GetName@UnitClass@@UAEPADPADHH@Z:PROC		; UnitClass::GetName
EXTRN	?GetFullName@UnitClass@@UAEPADPADHH@Z:PROC	; UnitClass::GetFullName
EXTRN	?GetDivisionName@UnitClass@@UAEPADPADHH@Z:PROC	; UnitClass::GetDivisionName
EXTRN	?GetHitChance@UnitClass@@UAEHHH@Z:PROC		; UnitClass::GetHitChance
EXTRN	?GetAproxHitChance@UnitClass@@UAEHHH@Z:PROC	; UnitClass::GetAproxHitChance
EXTRN	?GetCombatStrength@UnitClass@@UAEHHH@Z:PROC	; UnitClass::GetCombatStrength
EXTRN	?GetAproxCombatStrength@UnitClass@@UAEHHH@Z:PROC ; UnitClass::GetAproxCombatStrength
EXTRN	?GetWeaponRange@UnitClass@@UAEHHPAVFalconEntity@@@Z:PROC ; UnitClass::GetWeaponRange
EXTRN	?GetAproxWeaponRange@UnitClass@@UAEHH@Z:PROC	; UnitClass::GetAproxWeaponRange
EXTRN	?GetDetectionRange@UnitClass@@UAEHH@Z:PROC	; UnitClass::GetDetectionRange
EXTRN	?GetElectronicDetectionRange@UnitClass@@UAEHH@Z:PROC ; UnitClass::GetElectronicDetectionRange
EXTRN	?CanDetect@UnitClass@@UAEHPAVFalconEntity@@@Z:PROC ; UnitClass::CanDetect
EXTRN	?GetComponentLocation@UnitClass@@UAEXPAF0H@Z:PROC ; UnitClass::GetComponentLocation
EXTRN	?GetComponentAltitude@UnitClass@@UAEHH@Z:PROC	; UnitClass::GetComponentAltitude
EXTRN	?GetRCSFactor@UnitClass@@UAEMXZ:PROC		; UnitClass::GetRCSFactor
EXTRN	?GetIRFactor@UnitClass@@UAEMXZ:PROC		; UnitClass::GetIRFactor
EXTRN	?GetNumberOfArcs@UnitClass@@UAEHXZ:PROC		; UnitClass::GetNumberOfArcs
EXTRN	?GetArcRatio@UnitClass@@UAEMH@Z:PROC		; UnitClass::GetArcRatio
EXTRN	?GetArcRange@UnitClass@@UAEMH@Z:PROC		; UnitClass::GetArcRange
EXTRN	?GetArcAngle@UnitClass@@UAEXHPAM0@Z:PROC	; UnitClass::GetArcAngle
EXTRN	?GetRadarType@UnitClass@@UAEHXZ:PROC		; UnitClass::GetRadarType
EXTRN	?GetBestVehicleWeapon@UnitClass@@UAEHHPAEW4MoveType@@HPAH@Z:PROC ; UnitClass::GetBestVehicleWeapon
EXTRN	?GetVehicleHitChance@UnitClass@@UAEHHW4MoveType@@HH@Z:PROC ; UnitClass::GetVehicleHitChance
EXTRN	?GetVehicleCombatStrength@UnitClass@@UAEHHW4MoveType@@H@Z:PROC ; UnitClass::GetVehicleCombatStrength
EXTRN	?GetVehicleRange@UnitClass@@UAEHHHPAVFalconEntity@@@Z:PROC ; UnitClass::GetVehicleRange
EXTRN	?GetUnitWeaponId@UnitClass@@UAEHHH@Z:PROC	; UnitClass::GetUnitWeaponId
EXTRN	?GetUnitWeaponCount@UnitClass@@UAEHHH@Z:PROC	; UnitClass::GetUnitWeaponCount
EXTRN	?GetTotalVehicles@UnitClass@@QAEHXZ:PROC	; UnitClass::GetTotalVehicles
EXTRN	?GetCombatSpeed@UnitClass@@QBEHXZ:PROC		; UnitClass::GetCombatSpeed
EXTRN	??_EAirUnitClass@@UAEPAXI@Z:PROC		; AirUnitClass::`vector deleting destructor'
EXTRN	?GetArrivalSpeed@@YAHPBVUnitClass@@@Z:PROC	; GetArrivalSpeed
EXTRN	?FalconNullId@@3VVU_ID@@A:QWORD			; FalconNullId
EXTRN	?DDP@@3PAUDirtyDataClassType@@A:DWORD		; DDP
EXTRN	??_7type_info@@6B@:QWORD			; type_info::`vftable'
EXTRN	?TheCampaign@@3VCampaignClass@@A:BYTE		; TheCampaign
EXTRN	?AIR_UPDATE_CHECK_INTERVAL@@3FA:WORD		; AIR_UPDATE_CHECK_INTERVAL
EXTRN	?LOW_ALTITUDE_CUTOFF@@3FA:WORD			; LOW_ALTITUDE_CUTOFF
EXTRN	?save_log@@3PAU_iobuf@@A:DWORD			; save_log
EXTRN	?load_log@@3PAU_iobuf@@A:DWORD			; load_log
EXTRN	?start_save_stream@@3HA:DWORD			; start_save_stream
EXTRN	?start_load_stream@@3HA:DWORD			; start_load_stream
EXTRN	__fltused:DWORD
_BSS	SEGMENT
_piecewise_construct DB 01H DUP (?)
_allocator_arg DB 01H DUP (?)
_BSS	ENDS
CRT$XCU	SEGMENT
_piecewise_construct$initializer$ DD FLAT:??__Epiecewise_construct@std@@YAXXZ
CRT$XCU	ENDS
;	COMDAT __real@bf800000
CONST	SEGMENT
__real@bf800000 DD 0bf800000r			; -1
CONST	ENDS
;	COMDAT __real@3f800000
CONST	SEGMENT
__real@3f800000 DD 03f800000r			; 1
CONST	ENDS
;	COMDAT __real@3f693e32
CONST	SEGMENT
__real@3f693e32 DD 03f693e32r			; 0.911105
CONST	ENDS
;	COMDAT __real@3f17ac60
CONST	SEGMENT
__real@3f17ac60 DD 03f17ac60r			; 0.592474
CONST	ENDS
;	COMDAT __real@00000000
CONST	SEGMENT
__real@00000000 DD 000000000r			; 0
CONST	ENDS
;	COMDAT ??_R2VuEntity@@8
rdata$r	SEGMENT
??_R2VuEntity@@8 DD FLAT:??_R1A@?0A@EA@VuEntity@@8	; VuEntity::`RTTI Base Class Array'
rdata$r	ENDS
;	COMDAT ??_R3VuEntity@@8
rdata$r	SEGMENT
??_R3VuEntity@@8 DD 00H					; VuEntity::`RTTI Class Hierarchy Descriptor'
	DD	00H
	DD	01H
	DD	FLAT:??_R2VuEntity@@8
rdata$r	ENDS
;	COMDAT ??_R0?AVVuEntity@@@8
_DATA	SEGMENT
??_R0?AVVuEntity@@@8 DD FLAT:??_7type_info@@6B@		; VuEntity `RTTI Type Descriptor'
	DD	00H
	DB	'.?AVVuEntity@@', 00H
_DATA	ENDS
;	COMDAT ??_R1A@?0A@EA@VuEntity@@8
rdata$r	SEGMENT
??_R1A@?0A@EA@VuEntity@@8 DD FLAT:??_R0?AVVuEntity@@@8	; VuEntity::`RTTI Base Class Descriptor at (0,-1,0,64)'
	DD	00H
	DD	00H
	DD	0ffffffffH
	DD	00H
	DD	040H
	DD	FLAT:??_R3VuEntity@@8
rdata$r	ENDS
;	COMDAT ??_R2FalconEntity@@8
rdata$r	SEGMENT
??_R2FalconEntity@@8 DD FLAT:??_R1A@?0A@EA@FalconEntity@@8 ; FalconEntity::`RTTI Base Class Array'
	DD	FLAT:??_R1A@?0A@EA@VuEntity@@8
rdata$r	ENDS
;	COMDAT ??_R3FalconEntity@@8
rdata$r	SEGMENT
??_R3FalconEntity@@8 DD 00H				; FalconEntity::`RTTI Class Hierarchy Descriptor'
	DD	00H
	DD	02H
	DD	FLAT:??_R2FalconEntity@@8
rdata$r	ENDS
;	COMDAT ??_R0?AVFalconEntity@@@8
_DATA	SEGMENT
??_R0?AVFalconEntity@@@8 DD FLAT:??_7type_info@@6B@	; FalconEntity `RTTI Type Descriptor'
	DD	00H
	DB	'.?AVFalconEntity@@', 00H
_DATA	ENDS
;	COMDAT ??_R1A@?0A@EA@FalconEntity@@8
rdata$r	SEGMENT
??_R1A@?0A@EA@FalconEntity@@8 DD FLAT:??_R0?AVFalconEntity@@@8 ; FalconEntity::`RTTI Base Class Descriptor at (0,-1,0,64)'
	DD	01H
	DD	00H
	DD	0ffffffffH
	DD	00H
	DD	040H
	DD	FLAT:??_R3FalconEntity@@8
rdata$r	ENDS
;	COMDAT ??_R2CampBaseClass@@8
rdata$r	SEGMENT
??_R2CampBaseClass@@8 DD FLAT:??_R1A@?0A@EA@CampBaseClass@@8 ; CampBaseClass::`RTTI Base Class Array'
	DD	FLAT:??_R1A@?0A@EA@FalconEntity@@8
	DD	FLAT:??_R1A@?0A@EA@VuEntity@@8
rdata$r	ENDS
;	COMDAT ??_R3CampBaseClass@@8
rdata$r	SEGMENT
??_R3CampBaseClass@@8 DD 00H				; CampBaseClass::`RTTI Class Hierarchy Descriptor'
	DD	00H
	DD	03H
	DD	FLAT:??_R2CampBaseClass@@8
rdata$r	ENDS
;	COMDAT ??_R0?AVCampBaseClass@@@8
_DATA	SEGMENT
??_R0?AVCampBaseClass@@@8 DD FLAT:??_7type_info@@6B@	; CampBaseClass `RTTI Type Descriptor'
	DD	00H
	DB	'.?AVCampBaseClass@@', 00H
_DATA	ENDS
;	COMDAT ??_R1A@?0A@EA@CampBaseClass@@8
rdata$r	SEGMENT
??_R1A@?0A@EA@CampBaseClass@@8 DD FLAT:??_R0?AVCampBaseClass@@@8 ; CampBaseClass::`RTTI Base Class Descriptor at (0,-1,0,64)'
	DD	02H
	DD	00H
	DD	0ffffffffH
	DD	00H
	DD	040H
	DD	FLAT:??_R3CampBaseClass@@8
rdata$r	ENDS
;	COMDAT ??_R2UnitClass@@8
rdata$r	SEGMENT
??_R2UnitClass@@8 DD FLAT:??_R1A@?0A@EA@UnitClass@@8	; UnitClass::`RTTI Base Class Array'
	DD	FLAT:??_R1A@?0A@EA@CampBaseClass@@8
	DD	FLAT:??_R1A@?0A@EA@FalconEntity@@8
	DD	FLAT:??_R1A@?0A@EA@VuEntity@@8
rdata$r	ENDS
;	COMDAT ??_R3UnitClass@@8
rdata$r	SEGMENT
??_R3UnitClass@@8 DD 00H				; UnitClass::`RTTI Class Hierarchy Descriptor'
	DD	00H
	DD	04H
	DD	FLAT:??_R2UnitClass@@8
rdata$r	ENDS
;	COMDAT ??_R0?AVUnitClass@@@8
_DATA	SEGMENT
??_R0?AVUnitClass@@@8 DD FLAT:??_7type_info@@6B@	; UnitClass `RTTI Type Descriptor'
	DD	00H
	DB	'.?AVUnitClass@@', 00H
_DATA	ENDS
;	COMDAT ??_R1A@?0A@EA@UnitClass@@8
rdata$r	SEGMENT
??_R1A@?0A@EA@UnitClass@@8 DD FLAT:??_R0?AVUnitClass@@@8 ; UnitClass::`RTTI Base Class Descriptor at (0,-1,0,64)'
	DD	03H
	DD	00H
	DD	0ffffffffH
	DD	00H
	DD	040H
	DD	FLAT:??_R3UnitClass@@8
rdata$r	ENDS
;	COMDAT ??_R1A@?0A@EA@AirUnitClass@@8
rdata$r	SEGMENT
??_R1A@?0A@EA@AirUnitClass@@8 DD FLAT:??_R0?AVAirUnitClass@@@8 ; AirUnitClass::`RTTI Base Class Descriptor at (0,-1,0,64)'
	DD	04H
	DD	00H
	DD	0ffffffffH
	DD	00H
	DD	040H
	DD	FLAT:??_R3AirUnitClass@@8
rdata$r	ENDS
;	COMDAT ??_R2AirUnitClass@@8
rdata$r	SEGMENT
??_R2AirUnitClass@@8 DD FLAT:??_R1A@?0A@EA@AirUnitClass@@8 ; AirUnitClass::`RTTI Base Class Array'
	DD	FLAT:??_R1A@?0A@EA@UnitClass@@8
	DD	FLAT:??_R1A@?0A@EA@CampBaseClass@@8
	DD	FLAT:??_R1A@?0A@EA@FalconEntity@@8
	DD	FLAT:??_R1A@?0A@EA@VuEntity@@8
rdata$r	ENDS
;	COMDAT ??_R3AirUnitClass@@8
rdata$r	SEGMENT
??_R3AirUnitClass@@8 DD 00H				; AirUnitClass::`RTTI Class Hierarchy Descriptor'
	DD	00H
	DD	05H
	DD	FLAT:??_R2AirUnitClass@@8
rdata$r	ENDS
;	COMDAT ??_R0?AVAirUnitClass@@@8
_DATA	SEGMENT
??_R0?AVAirUnitClass@@@8 DD FLAT:??_7type_info@@6B@	; AirUnitClass `RTTI Type Descriptor'
	DD	00H
	DB	'.?AVAirUnitClass@@', 00H
_DATA	ENDS
;	COMDAT ??_R4AirUnitClass@@6B@
rdata$r	SEGMENT
??_R4AirUnitClass@@6B@ DD 00H				; AirUnitClass::`RTTI Complete Object Locator'
	DD	00H
	DD	00H
	DD	FLAT:??_R0?AVAirUnitClass@@@8
	DD	FLAT:??_R3AirUnitClass@@8
rdata$r	ENDS
;	COMDAT ??_C@_0BD@CCMMOIEM@?$CF08x?5AirUnitClass?5?$AA@
CONST	SEGMENT
??_C@_0BD@CCMMOIEM@?$CF08x?5AirUnitClass?5?$AA@ DB '%08x AirUnitClass ', 00H ; `string'
CONST	ENDS
;	COMDAT ??_7AirUnitClass@@6B@
CONST	SEGMENT
??_7AirUnitClass@@6B@ DD FLAT:??_R4AirUnitClass@@6B@	; AirUnitClass::`vftable'
	DD	FLAT:?CustomCollisionCheck@VuEntity@@UAEEPAV1@M@Z
	DD	FLAT:?TerrainCollisionCheck@VuEntity@@UAEEXZ
	DD	FLAT:?IsTarget@VuEntity@@UAEEXZ
	DD	FLAT:?IsSession@VuEntity@@UAEEXZ
	DD	FLAT:?IsGroup@VuEntity@@UAEEXZ
	DD	FLAT:?IsGame@VuEntity@@UAEEXZ
	DD	FLAT:?IsCamera@VuEntity@@UBEEXZ
	DD	FLAT:?SaveSize@AirUnitClass@@UAEHXZ
	DD	FLAT:?Save@FalconEntity@@UAEHPAU_iobuf@@@Z
	DD	FLAT:?Save@AirUnitClass@@UAEHPAPAE@Z
	DD	FLAT:?Handle@CampBaseClass@@UAEHPAVVuSessionEvent@@@Z
	DD	FLAT:?Handle@CampBaseClass@@UAEHPAVVuTransferEvent@@@Z
	DD	FLAT:?Handle@CampBaseClass@@UAEHPAVVuEntityCollisionEvent@@@Z
	DD	FLAT:?Handle@CampBaseClass@@UAEHPAVVuPositionUpdateEvent@@@Z
	DD	FLAT:?Handle@AirUnitClass@@UAEHPAVVuFullUpdateEvent@@@Z
	DD	FLAT:?Handle@CampBaseClass@@UAEHPAVVuEvent@@@Z
	DD	FLAT:?Handle@VuEntity@@UAEHPAVVuPullRequest@@@Z
	DD	FLAT:?Handle@VuEntity@@UAEHPAVVuPushRequest@@@Z
	DD	FLAT:?Handle@VuEntity@@UAEHPAVVuErrorMessage@@@Z
	DD	FLAT:??_EAirUnitClass@@UAEPAXI@Z
	DD	FLAT:?InsertionCallback@VuEntity@@MAEHXZ
	DD	FLAT:?RemovalCallback@FalconEntity@@UAEHXZ
	DD	FLAT:?InitData@CampBaseClass@@UAEXXZ
	DD	FLAT:?CleanupData@FalconEntity@@UAEXXZ
	DD	FLAT:?IsSimBase@FalconEntity@@UAE_NXZ
	DD	FLAT:?IsCampBase@CampBaseClass@@UAE_NXZ
	DD	FLAT:?Wake@UnitClass@@UAEHXZ
	DD	FLAT:?Sleep@UnitClass@@UAEHXZ
	DD	FLAT:?GetCampID@CampBaseClass@@UAEFXZ
	DD	FLAT:?GetTeam@CampBaseClass@@UAEEXZ
	DD	FLAT:?GetCountry@CampBaseClass@@UAEEXZ
	DD	FLAT:?GetDomain@FalconEntity@@UAEEXZ
	DD	FLAT:?GetRadarMode@FalconEntity@@UAEHXZ
	DD	FLAT:?SetRadarMode@FalconEntity@@UAEXE@Z
	DD	FLAT:?ReturnToSearch@FalconEntity@@UAEXXZ
	DD	FLAT:?SetSearchMode@FalconEntity@@UAEXE@Z
	DD	FLAT:?CombatClass@FalconEntity@@UAEHXZ
	DD	FLAT:?OnGround@AirUnitClass@@UAEHXZ
	DD	FLAT:?HasEntity@CampBaseClass@@UBEHPAVVuEntity@@@Z
	DD	FLAT:?IsMissile@FalconEntity@@UAEHXZ
	DD	FLAT:?IsLauncher@FalconEntity@@UAEHXZ
	DD	FLAT:?IsBomb@FalconEntity@@UAEHXZ
	DD	FLAT:?IsGun@FalconEntity@@UAEHXZ
	DD	FLAT:?IsMover@FalconEntity@@UAEHXZ
	DD	FLAT:?IsVehicle@FalconEntity@@UAEHXZ
	DD	FLAT:?IsStatic@FalconEntity@@UAEHXZ
	DD	FLAT:?IsHelicopter@FalconEntity@@UAEHXZ
	DD	FLAT:?IsEject@FalconEntity@@UAEHXZ
	DD	FLAT:?IsAirplane@FalconEntity@@UAEHXZ
	DD	FLAT:?IsGroundVehicle@FalconEntity@@UAEHXZ
	DD	FLAT:?IsShip@FalconEntity@@UAEHXZ
	DD	FLAT:?IsWeapon@FalconEntity@@UAEHXZ
	DD	FLAT:?IsExploding@FalconEntity@@UAEHXZ
	DD	FLAT:?IsDead@FalconEntity@@UAEHXZ
	DD	FLAT:?IsEmitting@CampBaseClass@@UAEHXZ
	DD	FLAT:?GetVt@AirUnitClass@@UBEMXZ
	DD	FLAT:?GetKias@AirUnitClass@@UBEMXZ
	DD	FLAT:?GetMovementType@AirUnitClass@@UAE?AW4MoveType@@XZ
	DD	FLAT:?IsUnit@UnitClass@@UAEHXZ
	DD	FLAT:?IsObjective@FalconEntity@@UAEHXZ
	DD	FLAT:?IsBattalion@FalconEntity@@UAEHXZ
	DD	FLAT:?IsBrigade@FalconEntity@@UAEHXZ
	DD	FLAT:?IsFlight@FalconEntity@@UBEHXZ
	DD	FLAT:?IsSquadron@FalconEntity@@UAEHXZ
	DD	FLAT:?IsPackage@FalconEntity@@UAEHXZ
	DD	FLAT:?IsTeam@FalconEntity@@UAEHXZ
	DD	FLAT:?IsTaskForce@FalconEntity@@UAEHXZ
	DD	FLAT:?IsSPJamming@FalconEntity@@UAEHXZ
	DD	FLAT:?IsAreaJamming@FalconEntity@@UAEHXZ
	DD	FLAT:?HasSPJamming@FalconEntity@@UAEHXZ
	DD	FLAT:?HasAreaJamming@FalconEntity@@UAEHXZ
	DD	FLAT:?GetRCSFactor@UnitClass@@UAEMXZ
	DD	FLAT:?GetIRFactor@UnitClass@@UAEMXZ
	DD	FLAT:?GetRadarType@UnitClass@@UAEHXZ
	DD	FLAT:?GetDamageModifiers@UnitClass@@UAEPAEXZ
	DD	FLAT:?SetAQUIREtimer@FalconEntity@@UAEXK@Z
	DD	FLAT:?SetSEARCHtimer@FalconEntity@@UAEXK@Z
	DD	FLAT:?SetStepSearchMode@FalconEntity@@UAEXE@Z
	DD	FLAT:?GetAQUIREtimer@FalconEntity@@UAEKXZ
	DD	FLAT:?GetSEARCHtimer@FalconEntity@@UAEKXZ
	DD	FLAT:?SetOwner@CampBaseClass@@UAEXE@Z
	DD	FLAT:?SendDeaggregateData@UnitClass@@UAEXPAVVuTargetEntity@@@Z
	DD	FLAT:?RecordCurrentState@UnitClass@@UAEHPAVFalconSessionEntity@@H@Z
	DD	FLAT:?Deaggregate@UnitClass@@UAEHPAVFalconSessionEntity@@@Z
	DD	FLAT:?Reaggregate@UnitClass@@UAEHPAVFalconSessionEntity@@@Z
	DD	FLAT:?TransferOwnership@UnitClass@@UAEHPAVFalconSessionEntity@@@Z
	DD	FLAT:?InsertInSimLists@UnitClass@@UAEXMM@Z
	DD	FLAT:?RemoveFromSimLists@UnitClass@@UAEXXZ
	DD	FLAT:?DeaggregateFromData@UnitClass@@UAEXPAEJ@Z
	DD	FLAT:?ReaggregateFromData@UnitClass@@UAEXPAEJ@Z
	DD	FLAT:?TransferOwnershipFromData@UnitClass@@UAEXPAEJ@Z
	DD	FLAT:?ApplyDamage@UnitClass@@UAEHW4DamageDataType@@PAHHF@Z
	DD	FLAT:?ApplyDamage@UnitClass@@UAEHPAVFalconCampWeaponsFire@@E@Z
	DD	FLAT:?DecodeDamageData@UnitClass@@UAEHPAEPAV1@PAVFalconDeathMessage@@@Z
	DD	FLAT:?CollectWeapons@UnitClass@@UAEHPAEW4MoveType@@QAFQAEH@Z
	DD	FLAT:?GetName@UnitClass@@UAEPADPADHH@Z
	DD	FLAT:?GetFullName@UnitClass@@UAEPADPADHH@Z
	DD	FLAT:?GetDivisionName@UnitClass@@UAEPADPADHH@Z
	DD	FLAT:?GetHitChance@UnitClass@@UAEHHH@Z
	DD	FLAT:?GetAproxHitChance@UnitClass@@UAEHHH@Z
	DD	FLAT:?GetCombatStrength@UnitClass@@UAEHHH@Z
	DD	FLAT:?GetAproxCombatStrength@UnitClass@@UAEHHH@Z
	DD	FLAT:?GetWeaponRange@UnitClass@@UAEHHPAVFalconEntity@@@Z
	DD	FLAT:?GetAproxWeaponRange@UnitClass@@UAEHH@Z
	DD	FLAT:?GetDetectionRange@UnitClass@@UAEHH@Z
	DD	FLAT:?GetElectronicDetectionRange@UnitClass@@UAEHH@Z
	DD	FLAT:?CanDetect@UnitClass@@UAEHPAVFalconEntity@@@Z
	DD	FLAT:?StepRadar@CampBaseClass@@UAEHHHM@Z
	DD	FLAT:?GetNumberOfArcs@UnitClass@@UAEHXZ
	DD	FLAT:?GetArcRatio@UnitClass@@UAEMH@Z
	DD	FLAT:?GetArcRange@UnitClass@@UAEMH@Z
	DD	FLAT:?GetArcAngle@UnitClass@@UAEXHPAM0@Z
	DD	FLAT:?GetMissilesFlying@CampBaseClass@@UAEHXZ
	DD	FLAT:?ResetPlayerStatus@UnitClass@@UAEHXZ
	DD	FLAT:?GetComponentLocation@UnitClass@@UAEXPAF0H@Z
	DD	FLAT:?GetComponentAltitude@UnitClass@@UAEHH@Z
	DD	FLAT:?CanShootWeapon@UnitClass@@UAEHH@Z
	DD	FLAT:?GetDeaggregationPoint@UnitClass@@UAEHHPAPAVCampBaseClass@@@Z
	DD	FLAT:?GetUnitDeaggregationData@UnitClass@@UAEPAVUnitDeaggregationData@@XZ
	DD	FLAT:?ShouldDeaggregate@UnitClass@@UAEHXZ
	DD	FLAT:?ClearDeaggregationData@UnitClass@@UAEXXZ
	DD	FLAT:?Reaction@UnitClass@@UAEHPAVCampBaseClass@@HM@Z
	DD	FLAT:?MoveUnit@UnitClass@@UAEHK@Z
	DD	FLAT:?DoCombat@UnitClass@@UAEHXZ
	DD	FLAT:?ChooseTactic@UnitClass@@UAEHXZ
	DD	FLAT:?CheckTactic@UnitClass@@UAEHH@Z
	DD	FLAT:?Father@UnitClass@@UBEHXZ
	DD	FLAT:?Real@UnitClass@@UAEHXZ
	DD	FLAT:?AdjustForSupply@UnitClass@@UAEMXZ
	DD	FLAT:?GetUnitSpeed@AirUnitClass@@UBEHXZ
	DD	FLAT:?DetectOnMove@UnitClass@@UAEHXZ
	DD	FLAT:?ChooseTarget@UnitClass@@UAEHXZ
	DD	FLAT:?MaxUpdateTime@AirUnitClass@@UBEKXZ
	DD	FLAT:?CombatTime@UnitClass@@UAEKXZ
	DD	FLAT:?GetUnitSupplyNeed@UnitClass@@UAEHH@Z
	DD	FLAT:?GetUnitFuelNeed@UnitClass@@UAEHH@Z
	DD	FLAT:?SupplyUnit@UnitClass@@UAEXHH@Z
	DD	FLAT:?GetVehicleDeagData@UnitClass@@UAEHPAVSimInitDataClass@@H@Z
	DD	FLAT:?IsDead@UnitClass@@UBEHXZ
	DD	FLAT:?SimSetLocation@UnitClass@@UAEXMMM@Z
	DD	FLAT:?SimSetOrientation@UnitClass@@UAEXMMM@Z
	DD	FLAT:?GetRealPosition@UnitClass@@UAEXPAM00@Z
	DD	FLAT:?GetBestVehicleWeapon@UnitClass@@UAEHHPAEW4MoveType@@HPAH@Z
	DD	FLAT:?GetVehicleHitChance@UnitClass@@UAEHHW4MoveType@@HH@Z
	DD	FLAT:?GetVehicleCombatStrength@UnitClass@@UAEHHW4MoveType@@H@Z
	DD	FLAT:?GetVehicleRange@UnitClass@@UAEHHHPAVFalconEntity@@@Z
	DD	FLAT:?GetUnitWeaponId@UnitClass@@UAEHHH@Z
	DD	FLAT:?GetUnitWeaponCount@UnitClass@@UAEHHH@Z
	DD	FLAT:?SetUnitLastMove@UnitClass@@UAEXK@Z
	DD	FLAT:?SetCombatTime@UnitClass@@UAEXK@Z
	DD	FLAT:?SetBurntFuel@UnitClass@@UAEXJ@Z
	DD	FLAT:?SetUnitMission@UnitClass@@UAEXE@Z
	DD	FLAT:?SetUnitRole@UnitClass@@UAEXE@Z
	DD	FLAT:?SetUnitPriority@UnitClass@@UAEXH@Z
	DD	FLAT:?SetUnitMissionID@UnitClass@@UAEXH@Z
	DD	FLAT:?SetUnitMissionTarget@UnitClass@@UAEXH@Z
	DD	FLAT:?SetUnitTOT@UnitClass@@UAEXK@Z
	DD	FLAT:?SetUnitSquadron@UnitClass@@UAEXVVU_ID@@@Z
	DD	FLAT:?SetUnitAirbase@UnitClass@@UAEXVVU_ID@@@Z
	DD	FLAT:?SetLoadout@UnitClass@@UAEXPAULoadoutStruct@@H@Z
	DD	FLAT:?GetNumberOfLoadouts@UnitClass@@UAEHXZ
	DD	FLAT:?GetMoveTime@UnitClass@@UAEKXZ
	DD	FLAT:?GetCombatTime@UnitClass@@UAEKXZ
	DD	FLAT:?GetAirTargetID@UnitClass@@UAE?AVVU_ID@@XZ
	DD	FLAT:?GetAirTarget@UnitClass@@UAEPAVFalconEntity@@XZ
	DD	FLAT:?GetBurntFuel@UnitClass@@UAEHXZ
	DD	FLAT:?GetUnitMission@UnitClass@@UAE?AW4MissionTypeEnum@@XZ
	DD	FLAT:?GetUnitNormalRole@UnitClass@@UAEHXZ
	DD	FLAT:?GetUnitCurrentRole@UnitClass@@UBEHXZ
	DD	FLAT:?GetUnitPriority@UnitClass@@UAEHXZ
	DD	FLAT:?GetUnitMissionTarget@UnitClass@@UAEPAVCampBaseClass@@XZ
	DD	FLAT:?GetUnitMissionTargetID@UnitClass@@UAE?AVVU_ID@@XZ
	DD	FLAT:?GetUnitMissionID@UnitClass@@UAEHXZ
	DD	FLAT:?GetUnitTOT@UnitClass@@UAEKXZ
	DD	FLAT:?GetUnitSquadron@UnitClass@@UAEPAV1@XZ
	DD	FLAT:?GetUnitSquadronID@UnitClass@@UAE?AVVU_ID@@XZ
	DD	FLAT:?GetUnitAirbase@UnitClass@@UAEPAVCampBaseClass@@XZ
	DD	FLAT:?GetUnitAirbaseID@UnitClass@@UAE?AVVU_ID@@XZ
	DD	FLAT:?LoadWeapons@UnitClass@@UAEHPAXPAEW4MoveType@@HHH@Z
	DD	FLAT:?DumpWeapons@UnitClass@@UAEHXZ
	DD	FLAT:?ETA@UnitClass@@UAEKXZ
	DD	FLAT:?GetKnownEmitters@UnitClass@@UAEPAVFalconPrivateList@@XZ
	DD	FLAT:?BuildMission@UnitClass@@UAEHXZ
	DD	FLAT:?BuildMission@UnitClass@@UAEHPAVMissionRequestClass@@@Z
	DD	FLAT:?IncrementTime@UnitClass@@UAEXK@Z
	DD	FLAT:?UseFuel@UnitClass@@UAEXJ@Z
	DD	FLAT:?SetUnitSpecialty@UnitClass@@UAEXH@Z
	DD	FLAT:?SetUnitSupply@UnitClass@@UAEXH@Z
	DD	FLAT:?SetUnitMorale@UnitClass@@UAEXH@Z
	DD	FLAT:?SetSquadronFuel@UnitClass@@UAEXJ@Z
	DD	FLAT:?SetUnitStores@UnitClass@@UAEXHE@Z
	DD	FLAT:?SetLastResupply@UnitClass@@UAEXH@Z
	DD	FLAT:?SetLastResupplyTime@UnitClass@@UAEXK@Z
	DD	FLAT:?GetUnitSpecialty@UnitClass@@UAEHXZ
	DD	FLAT:?GetUnitSupply@UnitClass@@UAEHXZ
	DD	FLAT:?GetUnitMorale@UnitClass@@UAEHXZ
	DD	FLAT:?GetSquadronFuel@UnitClass@@UAEJXZ
	DD	FLAT:?GetUnitStores@UnitClass@@UAEEH@Z
	DD	FLAT:?GetLastResupplyTime@UnitClass@@UAEKXZ
	DD	FLAT:?GetLastResupply@UnitClass@@UAEHXZ
	DD	FLAT:?BuildPackage@UnitClass@@UAEHPAVMissionRequestClass@@PAVFalconPrivateList@@@Z
	DD	FLAT:?HandleRequestReceipt@UnitClass@@UAEXHHVVU_ID@@@Z
	DD	FLAT:?SetUnitAssemblyPoint@UnitClass@@UAEXHFF@Z
	DD	FLAT:?GetUnitAssemblyPoint@UnitClass@@UAEXHPAF0@Z
	DD	FLAT:?SetUnitPrimaryObj@UnitClass@@UAEXVVU_ID@@@Z
	DD	FLAT:?SetUnitSecondaryObj@UnitClass@@UAEXVVU_ID@@@Z
	DD	FLAT:?SetUnitObjective@UnitClass@@UAEXVVU_ID@@@Z
	DD	FLAT:?SetUnitOrders@UnitClass@@UAEXHVVU_ID@@@Z
	DD	FLAT:?SetUnitOrders@UnitClass@@UAEXH@Z
	DD	FLAT:?SetUnitFatigue@UnitClass@@UAEXH@Z
	DD	FLAT:?SetUnitMode@UnitClass@@UAEXH@Z
	DD	FLAT:?SetUnitPosition@UnitClass@@UAEXH@Z
	DD	FLAT:?SetUnitDivision@UnitClass@@UAEXH@Z
	DD	FLAT:?SetUnitHeading@UnitClass@@UAEXH@Z
	DD	FLAT:?GetUnitPrimaryObj@UnitClass@@UAEPAVObjectiveClass@@XZ
	DD	FLAT:?GetUnitSecondaryObj@UnitClass@@UAEPAVObjectiveClass@@XZ
	DD	FLAT:?GetUnitObjective@UnitClass@@UAEPAVObjectiveClass@@XZ
	DD	FLAT:?GetUnitPrimaryObjID@UnitClass@@UAE?AVVU_ID@@XZ
	DD	FLAT:?GetUnitSecondaryObjID@UnitClass@@UAE?AVVU_ID@@XZ
	DD	FLAT:?GetUnitObjectiveID@UnitClass@@UAE?AVVU_ID@@XZ
	DD	FLAT:?GetUnitOrders@UnitClass@@UAEHXZ
	DD	FLAT:?GetUnitFatigue@UnitClass@@UAEHXZ
	DD	FLAT:?GetUnitElement@UnitClass@@UAEPAV1@H@Z
	DD	FLAT:?GetUnitElement@UnitClass@@UAEHXZ
	DD	FLAT:?GetUnitMode@UnitClass@@UAEHXZ
	DD	FLAT:?GetUnitPosition@UnitClass@@UAEHXZ
	DD	FLAT:?GetUnitDivision@UnitClass@@UAEHXZ
	DD	FLAT:?GetUnitHeading@UnitClass@@UAEHXZ
	DD	FLAT:?SetUnitNextMove@UnitClass@@UAEXXZ
	DD	FLAT:?ClearUnitPath@UnitClass@@UAEXXZ
	DD	FLAT:?GetNextMoveDirection@UnitClass@@UAEHXZ
	DD	FLAT:?SetUnitCurrentDestination@UnitClass@@UAEXFF@Z
	DD	FLAT:?GetUnitCurrentDestination@UnitClass@@UAEXPAF0@Z
	DD	FLAT:?GetObjMovementType@UnitClass@@UAE?AW4MoveType@@PAVObjectiveClass@@H@Z
	DD	FLAT:?CheckForSurrender@UnitClass@@UAEHXZ
	DD	FLAT:?RallyUnit@UnitClass@@UAEHH@Z
	DD	FLAT:?GetUnitParent@UnitClass@@UBEPAV1@XZ
	DD	FLAT:?GetUnitParentID@UnitClass@@UAE?AVVU_ID@@XZ
	DD	FLAT:?SetUnitParent@UnitClass@@UAEXPAV1@@Z
	DD	FLAT:?GetFirstUnitElement@UnitClass@@UBEPAV1@XZ
	DD	FLAT:?GetNextUnitElement@UnitClass@@UBEPAV1@XZ
	DD	FLAT:?GetUnitElementByID@UnitClass@@UAEPAV1@H@Z
	DD	FLAT:?GetPrevUnitElement@UnitClass@@UAEPAV1@PAV1@@Z
	DD	FLAT:?AddUnitChild@UnitClass@@UAEXPAV1@@Z
	DD	FLAT:?DisposeChildren@UnitClass@@UAEXXZ
	DD	FLAT:?RemoveChild@UnitClass@@UAEXVVU_ID@@@Z
	DD	FLAT:?ReorganizeUnit@UnitClass@@UAEXXZ
	DD	FLAT:?UpdateParentStatistics@UnitClass@@UAEHXZ
	DD	FLAT:?IsHelicopter@AirUnitClass@@UBEHXZ
CONST	ENDS
CRT$XCU	SEGMENT
_allocator_arg$initializer$ DD FLAT:??__Eallocator_arg@std@@YAXXZ
CRT$XCU	ENDS
; Function compile flags: /Odtp
; File c:\users\zhitao li\documents\visual studio 2012\projects\freefalcon\campaign\camptask\airunit.cpp
_TEXT	SEGMENT
_score$1 = -8						; size = 4
_e$2 = -4						; size = 4
_u$ = 8							; size = 4
_mt$ = 12						; size = 4
?GetUnitScore@@YAHPAVUnitClass@@W4MoveType@@@Z PROC	; GetUnitScore

; 144  : 	{

	push	ebp
	mov	ebp, esp
	sub	esp, 8
	push	esi

; 145  : 	if (!u)

	cmp	DWORD PTR _u$[ebp], 0
	jne	SHORT $LN9@GetUnitSco

; 146  : 		return 0;

	xor	eax, eax
	jmp	$LN10@GetUnitSco
	jmp	$LN8@GetUnitSco
$LN9@GetUnitSco:

; 147  : 	else if (u->IsPackage() || u->IsBrigade())

	mov	eax, DWORD PTR _u$[ebp]
	mov	edx, DWORD PTR [eax]
	mov	ecx, DWORD PTR _u$[ebp]
	mov	eax, DWORD PTR [edx+256]
	call	eax
	test	eax, eax
	jne	SHORT $LN6@GetUnitSco
	mov	ecx, DWORD PTR _u$[ebp]
	mov	edx, DWORD PTR [ecx]
	mov	ecx, DWORD PTR _u$[ebp]
	mov	eax, DWORD PTR [edx+244]
	call	eax
	test	eax, eax
	je	SHORT $LN7@GetUnitSco
$LN6@GetUnitSco:

; 148  : 		{
; 149  : 		Unit	e;
; 150  : 		int		score = 0;

	mov	DWORD PTR _score$1[ebp], 0

; 151  : 		e = u->GetFirstUnitElement();

	mov	ecx, DWORD PTR _u$[ebp]
	mov	edx, DWORD PTR [ecx]
	mov	ecx, DWORD PTR _u$[ebp]
	mov	eax, DWORD PTR [edx+956]
	call	eax
	mov	DWORD PTR _e$2[ebp], eax
$LN5@GetUnitSco:

; 152  : 		while (e)

	cmp	DWORD PTR _e$2[ebp], 0
	je	SHORT $LN4@GetUnitSco

; 153  : 			{
; 154  : 			score += GetUnitScore(e,mt);

	mov	ecx, DWORD PTR _mt$[ebp]
	push	ecx
	mov	edx, DWORD PTR _e$2[ebp]
	push	edx
	call	?GetUnitScore@@YAHPAVUnitClass@@W4MoveType@@@Z ; GetUnitScore
	add	esp, 8
	add	eax, DWORD PTR _score$1[ebp]
	mov	DWORD PTR _score$1[ebp], eax

; 155  : 			e = u->GetNextUnitElement();

	mov	eax, DWORD PTR _u$[ebp]
	mov	edx, DWORD PTR [eax]
	mov	ecx, DWORD PTR _u$[ebp]
	mov	eax, DWORD PTR [edx+960]
	call	eax
	mov	DWORD PTR _e$2[ebp], eax

; 156  : 			}

	jmp	SHORT $LN5@GetUnitSco
$LN4@GetUnitSco:

; 157  : 		return score;

	mov	eax, DWORD PTR _score$1[ebp]
	jmp	SHORT $LN10@GetUnitSco

; 158  : 		}
; 159  : 	else

	jmp	SHORT $LN8@GetUnitSco
$LN7@GetUnitSco:

; 160  : 		{
; 161  : 		if (u->GetUnitCurrentRole() == ARO_CA)

	mov	ecx, DWORD PTR _u$[ebp]
	mov	edx, DWORD PTR [ecx]
	mov	ecx, DWORD PTR _u$[ebp]
	mov	eax, DWORD PTR [edx+672]
	call	eax
	cmp	eax, 1
	jne	SHORT $LN2@GetUnitSco

; 162  : 			{
; 163  : 	//		return u->GetUnitRoleScore(ARO_CA, CALC_TOTAL, USE_EXP | USE_VEH_COUNT);
; 164  : 			return u->class_data->HitChance[mt] * u->GetTotalVehicles();

	mov	ecx, DWORD PTR _u$[ebp]
	mov	edx, DWORD PTR [ecx+236]
	mov	eax, DWORD PTR _mt$[ebp]
	movzx	esi, BYTE PTR [edx+eax+285]
	mov	ecx, DWORD PTR _u$[ebp]
	call	?GetTotalVehicles@UnitClass@@QAEHXZ	; UnitClass::GetTotalVehicles
	imul	eax, esi
	jmp	SHORT $LN10@GetUnitSco

; 165  : 			}
; 166  : 		else

	jmp	SHORT $LN8@GetUnitSco
$LN2@GetUnitSco:

; 167  : 			{
; 168  : 	//		return u->GetUnitRoleScore(ARO_CA, CALC_TOTAL, USE_EXP | USE_VEH_COUNT)/3;
; 169  : 			return u->class_data->HitChance[mt] * u->GetTotalVehicles() / 3;

	mov	ecx, DWORD PTR _u$[ebp]
	mov	edx, DWORD PTR [ecx+236]
	mov	eax, DWORD PTR _mt$[ebp]
	movzx	esi, BYTE PTR [edx+eax+285]
	mov	ecx, DWORD PTR _u$[ebp]
	call	?GetTotalVehicles@UnitClass@@QAEHXZ	; UnitClass::GetTotalVehicles
	imul	eax, esi
	cdq
	mov	ecx, 3
	idiv	ecx
	jmp	SHORT $LN10@GetUnitSco
$LN8@GetUnitSco:

; 170  : 			}
; 171  : 		}
; 172  : 	return 0;

	xor	eax, eax
$LN10@GetUnitSco:

; 173  : 	}

	pop	esi
	mov	esp, ebp
	pop	ebp
	ret	0
?GetUnitScore@@YAHPAVUnitClass@@W4MoveType@@@Z ENDP	; GetUnitScore
_TEXT	ENDS
; Function compile flags: /Odtp
;	COMDAT ??_GAirUnitClass@@UAEPAXI@Z
_TEXT	SEGMENT
_this$ = -4						; size = 4
___flags$ = 8						; size = 4
??_GAirUnitClass@@UAEPAXI@Z PROC			; AirUnitClass::`scalar deleting destructor', COMDAT
; _this$ = ecx
	push	ebp
	mov	ebp, esp
	push	ecx
	mov	DWORD PTR _this$[ebp], ecx
	mov	ecx, DWORD PTR _this$[ebp]
	call	??1AirUnitClass@@UAE@XZ			; AirUnitClass::~AirUnitClass
	mov	eax, DWORD PTR ___flags$[ebp]
	and	eax, 1
	je	SHORT $LN1@scalar
	mov	ecx, DWORD PTR _this$[ebp]
	push	ecx
	call	??3@YAXPAX@Z				; operator delete
	add	esp, 4
$LN1@scalar:
	mov	eax, DWORD PTR _this$[ebp]
	mov	esp, ebp
	pop	ebp
	ret	4
??_GAirUnitClass@@UAEPAXI@Z ENDP			; AirUnitClass::`scalar deleting destructor'
_TEXT	ENDS
; Function compile flags: /Odtp
; File c:\users\zhitao li\documents\visual studio 2012\projects\freefalcon\campaign\camptask\airunit.cpp
_TEXT	SEGMENT
tv74 = -8						; size = 4
_this$ = -4						; size = 4
?OnGround@AirUnitClass@@UAEHXZ PROC			; AirUnitClass::OnGround
; _this$ = ecx

; 133  : 	{

	push	ebp
	mov	ebp, esp
	sub	esp, 8
	mov	DWORD PTR _this$[ebp], ecx

; 134  : 	if(ZPos() >= 0.0F)

	mov	ecx, DWORD PTR _this$[ebp]
	call	?ZPos@VuEntity@@QBEMXZ			; VuEntity::ZPos
	fstp	DWORD PTR tv74[ebp]
	movss	xmm0, DWORD PTR tv74[ebp]
	comiss	xmm0, DWORD PTR __real@00000000
	jb	SHORT $LN2@OnGround

; 135  : 		return TRUE;

	mov	eax, 1
	jmp	SHORT $LN1@OnGround

; 136  : 	else

	jmp	SHORT $LN1@OnGround
$LN2@OnGround:

; 137  : 		return FALSE;

	xor	eax, eax
$LN1@OnGround:

; 138  : 	}

	mov	esp, ebp
	pop	ebp
	ret	0
?OnGround@AirUnitClass@@UAEHXZ ENDP			; AirUnitClass::OnGround
_TEXT	ENDS
; Function compile flags: /Odtp
; File c:\users\zhitao li\documents\visual studio 2012\projects\freefalcon\campaign\camptask\airunit.cpp
_TEXT	SEGMENT
_this$ = -4						; size = 4
?IsHelicopter@AirUnitClass@@UBEHXZ PROC			; AirUnitClass::IsHelicopter
; _this$ = ecx

; 118  : int AirUnitClass::IsHelicopter() const {

	push	ebp
	mov	ebp, esp
	push	ecx
	mov	DWORD PTR _this$[ebp], ecx

; 119  : 	if (!(class_data->Flags & VEH_VTOL)){

	mov	eax, DWORD PTR _this$[ebp]
	mov	ecx, DWORD PTR [eax+236]
	movzx	edx, WORD PTR [ecx+228]
	and	edx, 128				; 00000080H
	jne	SHORT $LN3@IsHelicopt

; 120  : 		return 0;

	xor	eax, eax
	jmp	SHORT $LN4@IsHelicopt
$LN3@IsHelicopt:

; 121  : 	}
; 122  : 	if (
; 123  : 		GetSType() == STYPE_UNIT_ATTACK_HELO || 
; 124  : 		GetSType() == STYPE_UNIT_TRANSPORT_HELO || 
; 125  : 		GetSType() == STYPE_UNIT_RECON_HELO
; 126  : 	){

	mov	ecx, DWORD PTR _this$[ebp]
	call	?GetSType@CampBaseClass@@QBEEXZ		; CampBaseClass::GetSType
	movzx	eax, al
	cmp	eax, 4
	je	SHORT $LN1@IsHelicopt
	mov	ecx, DWORD PTR _this$[ebp]
	call	?GetSType@CampBaseClass@@QBEEXZ		; CampBaseClass::GetSType
	movzx	ecx, al
	cmp	ecx, 14					; 0000000eH
	je	SHORT $LN1@IsHelicopt
	mov	ecx, DWORD PTR _this$[ebp]
	call	?GetSType@CampBaseClass@@QBEEXZ		; CampBaseClass::GetSType
	movzx	edx, al
	cmp	edx, 12					; 0000000cH
	jne	SHORT $LN2@IsHelicopt
$LN1@IsHelicopt:

; 127  : 		return 1;

	mov	eax, 1
	jmp	SHORT $LN4@IsHelicopt
$LN2@IsHelicopt:

; 128  : 	}
; 129  : 	return 0;

	xor	eax, eax
$LN4@IsHelicopt:

; 130  : }

	mov	esp, ebp
	pop	ebp
	ret	0
?IsHelicopter@AirUnitClass@@UBEHXZ ENDP			; AirUnitClass::IsHelicopter
_TEXT	ENDS
; Function compile flags: /Odtp
; File c:\users\zhitao li\documents\visual studio 2012\projects\freefalcon\campaign\include\airunit.h
;	COMDAT ?GetKias@AirUnitClass@@UBEMXZ
_TEXT	SEGMENT
tv82 = -12						; size = 4
tv80 = -8						; size = 4
_this$ = -4						; size = 4
?GetKias@AirUnitClass@@UBEMXZ PROC			; AirUnitClass::GetKias, COMDAT
; _this$ = ecx

; 56   : 		virtual float GetKias()	const 						{ return GetVt() * FTPSEC_TO_KNOTS; }

	push	ebp
	mov	ebp, esp
	sub	esp, 12					; 0000000cH
	mov	DWORD PTR _this$[ebp], ecx
	mov	eax, DWORD PTR _this$[ebp]
	mov	edx, DWORD PTR [eax]
	mov	ecx, DWORD PTR _this$[ebp]
	mov	eax, DWORD PTR [edx+220]
	call	eax
	fstp	DWORD PTR tv80[ebp]
	movss	xmm0, DWORD PTR tv80[ebp]
	mulss	xmm0, DWORD PTR __real@3f17ac60
	movss	DWORD PTR tv82[ebp], xmm0
	fld	DWORD PTR tv82[ebp]
	mov	esp, ebp
	pop	ebp
	ret	0
?GetKias@AirUnitClass@@UBEMXZ ENDP			; AirUnitClass::GetKias
_TEXT	ENDS
; Function compile flags: /Odtp
; File c:\users\zhitao li\documents\visual studio 2012\projects\freefalcon\campaign\include\airunit.h
;	COMDAT ?GetVt@AirUnitClass@@UBEMXZ
_TEXT	SEGMENT
tv79 = -8						; size = 4
_this$ = -4						; size = 4
?GetVt@AirUnitClass@@UBEMXZ PROC			; AirUnitClass::GetVt, COMDAT
; _this$ = ecx

; 55   : 		virtual float GetVt() const							{ return GetUnitSpeed() * KPH_TO_FPS; }

	push	ebp
	mov	ebp, esp
	sub	esp, 8
	mov	DWORD PTR _this$[ebp], ecx
	mov	eax, DWORD PTR _this$[ebp]
	mov	edx, DWORD PTR [eax]
	mov	ecx, DWORD PTR _this$[ebp]
	mov	eax, DWORD PTR [edx+516]
	call	eax
	cvtsi2ss xmm0, eax
	mulss	xmm0, DWORD PTR __real@3f693e32
	movss	DWORD PTR tv79[ebp], xmm0
	fld	DWORD PTR tv79[ebp]
	mov	esp, ebp
	pop	ebp
	ret	0
?GetVt@AirUnitClass@@UBEMXZ ENDP			; AirUnitClass::GetVt
_TEXT	ENDS
; Function compile flags: /Odtp
; File c:\users\zhitao li\documents\visual studio 2012\projects\freefalcon\campaign\include\airunit.h
;	COMDAT ?MaxUpdateTime@AirUnitClass@@UBEKXZ
_TEXT	SEGMENT
_this$ = -4						; size = 4
?MaxUpdateTime@AirUnitClass@@UBEKXZ PROC		; AirUnitClass::MaxUpdateTime, COMDAT
; _this$ = ecx

; 50   : 		virtual CampaignTime MaxUpdateTime() const			{ return AIR_UPDATE_CHECK_INTERVAL*CampaignSeconds; }

	push	ebp
	mov	ebp, esp
	push	ecx
	mov	DWORD PTR _this$[ebp], ecx
	movsx	eax, WORD PTR ?AIR_UPDATE_CHECK_INTERVAL@@3FA ; AIR_UPDATE_CHECK_INTERVAL
	imul	eax, 1000				; 000003e8H
	mov	esp, ebp
	pop	ebp
	ret	0
?MaxUpdateTime@AirUnitClass@@UBEKXZ ENDP		; AirUnitClass::MaxUpdateTime
_TEXT	ENDS
; Function compile flags: /Odtp
; File c:\users\zhitao li\documents\visual studio 2012\projects\freefalcon\campaign\camptask\airunit.cpp
_TEXT	SEGMENT
_this$ = -4						; size = 4
?GetUnitSpeed@AirUnitClass@@UBEHXZ PROC			; AirUnitClass::GetUnitSpeed
; _this$ = ecx

; 106  : int AirUnitClass::GetUnitSpeed() const {

	push	ebp
	mov	ebp, esp
	push	ecx
	mov	DWORD PTR _this$[ebp], ecx

; 107  : 	if (GetType() == TYPE_FLIGHT){

	mov	ecx, DWORD PTR _this$[ebp]
	call	?GetType@CampBaseClass@@QBEEXZ		; CampBaseClass::GetType
	movzx	eax, al
	cmp	eax, 1
	jne	SHORT $LN3@GetUnitSpe

; 108  : 		if (GetUnitTactic() <= ATACTIC_ENGAGE_NAVAL){

	mov	ecx, DWORD PTR _this$[ebp]
	call	?GetUnitTactic@UnitClass@@QBEHXZ	; UnitClass::GetUnitTactic
	cmp	eax, 6
	jg	SHORT $LN2@GetUnitSpe

; 109  : 			return GetCombatSpeed();

	mov	ecx, DWORD PTR _this$[ebp]
	call	?GetCombatSpeed@UnitClass@@QBEHXZ	; UnitClass::GetCombatSpeed
	jmp	SHORT $LN4@GetUnitSpe

; 110  : 		}
; 111  : 		else {

	jmp	SHORT $LN3@GetUnitSpe
$LN2@GetUnitSpe:

; 112  : 			return GetArrivalSpeed(this);

	mov	ecx, DWORD PTR _this$[ebp]
	push	ecx
	call	?GetArrivalSpeed@@YAHPBVUnitClass@@@Z	; GetArrivalSpeed
	add	esp, 4
	jmp	SHORT $LN4@GetUnitSpe
$LN3@GetUnitSpe:

; 113  : 		}
; 114  : 	}
; 115  : 	return 0;

	xor	eax, eax
$LN4@GetUnitSpe:

; 116  : }

	mov	esp, ebp
	pop	ebp
	ret	0
?GetUnitSpeed@AirUnitClass@@UBEHXZ ENDP			; AirUnitClass::GetUnitSpeed
_TEXT	ENDS
; Function compile flags: /Odtp
; File c:\users\zhitao li\documents\visual studio 2012\projects\freefalcon\campaign\camptask\airunit.cpp
_TEXT	SEGMENT
_this$ = -4						; size = 4
?GetMovementType@AirUnitClass@@UAE?AW4MoveType@@XZ PROC	; AirUnitClass::GetMovementType
; _this$ = ecx

; 99   : {

	push	ebp
	mov	ebp, esp
	push	ecx
	mov	DWORD PTR _this$[ebp], ecx

; 100  : 	if (GetAltitude() < LOW_ALTITUDE_CUTOFF)

	mov	ecx, DWORD PTR _this$[ebp]
	call	?GetAltitude@FalconEntity@@QBEHXZ	; FalconEntity::GetAltitude
	movsx	ecx, WORD PTR ?LOW_ALTITUDE_CUTOFF@@3FA	; LOW_ALTITUDE_CUTOFF
	cmp	eax, ecx
	jge	SHORT $LN1@GetMovemen

; 101  : 		return LowAir;

	mov	eax, 4
	jmp	SHORT $LN2@GetMovemen
$LN1@GetMovemen:

; 102  : 	return Air;

	mov	eax, 5
$LN2@GetMovemen:

; 103  : }

	mov	esp, ebp
	pop	ebp
	ret	0
?GetMovementType@AirUnitClass@@UAE?AW4MoveType@@XZ ENDP	; AirUnitClass::GetMovementType
_TEXT	ENDS
; Function compile flags: /Odtp
; File c:\users\zhitao li\documents\visual studio 2012\projects\freefalcon\campaign\camptask\airunit.cpp
_TEXT	SEGMENT
_this$ = -4						; size = 4
_event$ = 8						; size = 4
?Handle@AirUnitClass@@UAEHPAVVuFullUpdateEvent@@@Z PROC	; AirUnitClass::Handle
; _this$ = ecx

; 93   : {

	push	ebp
	mov	ebp, esp
	push	ecx
	mov	DWORD PTR _this$[ebp], ecx

; 94   : 	// copy data from temp entity to current entity
; 95   : 	return (UnitClass::Handle(event));

	mov	eax, DWORD PTR _event$[ebp]
	push	eax
	mov	ecx, DWORD PTR _this$[ebp]
	call	?Handle@UnitClass@@UAEHPAVVuFullUpdateEvent@@@Z ; UnitClass::Handle

; 96   : }

	mov	esp, ebp
	pop	ebp
	ret	4
?Handle@AirUnitClass@@UAEHPAVVuFullUpdateEvent@@@Z ENDP	; AirUnitClass::Handle
_TEXT	ENDS
; Function compile flags: /Odtp
; File c:\users\zhitao li\documents\visual studio 2012\projects\freefalcon\campaign\camptask\airunit.cpp
_TEXT	SEGMENT
_this$ = -4						; size = 4
_stream$ = 8						; size = 4
?Save@AirUnitClass@@UAEHPAPAE@Z PROC			; AirUnitClass::Save
; _this$ = ecx

; 81   : {

	push	ebp
	mov	ebp, esp
	push	ecx
	mov	DWORD PTR _this$[ebp], ecx

; 82   : 	UnitClass::Save(stream);

	mov	eax, DWORD PTR _stream$[ebp]
	push	eax
	mov	ecx, DWORD PTR _this$[ebp]
	call	?Save@UnitClass@@UAEHPAPAE@Z		; UnitClass::Save

; 83   : 	if (save_log)

	cmp	DWORD PTR ?save_log@@3PAU_iobuf@@A, 0	; save_log
	je	SHORT $LN1@Save

; 84   : 	{
; 85   : 		fprintf (save_log, "%08x AirUnitClass ", *stream - start_save_stream);

	mov	ecx, DWORD PTR _stream$[ebp]
	mov	edx, DWORD PTR [ecx]
	sub	edx, DWORD PTR ?start_save_stream@@3HA	; start_save_stream
	push	edx
	push	OFFSET ??_C@_0BD@CCMMOIEM@?$CF08x?5AirUnitClass?5?$AA@
	mov	eax, DWORD PTR ?save_log@@3PAU_iobuf@@A	; save_log
	push	eax
	call	_fprintf
	add	esp, 12					; 0000000cH

; 86   : 		fflush (save_log);

	mov	ecx, DWORD PTR ?save_log@@3PAU_iobuf@@A	; save_log
	push	ecx
	call	_fflush
	add	esp, 4
$LN1@Save:

; 87   : 	}
; 88   : 	return AirUnitClass::SaveSize();

	mov	ecx, DWORD PTR _this$[ebp]
	call	?SaveSize@AirUnitClass@@UAEHXZ		; AirUnitClass::SaveSize

; 89   : }

	mov	esp, ebp
	pop	ebp
	ret	4
?Save@AirUnitClass@@UAEHPAPAE@Z ENDP			; AirUnitClass::Save
_TEXT	ENDS
; Function compile flags: /Odtp
; File c:\users\zhitao li\documents\visual studio 2012\projects\freefalcon\campaign\camptask\airunit.cpp
_TEXT	SEGMENT
_this$ = -4						; size = 4
?SaveSize@AirUnitClass@@UAEHXZ PROC			; AirUnitClass::SaveSize
; _this$ = ecx

; 76   : {

	push	ebp
	mov	ebp, esp
	push	ecx
	mov	DWORD PTR _this$[ebp], ecx

; 77   : 	return UnitClass::SaveSize();

	mov	ecx, DWORD PTR _this$[ebp]
	call	?SaveSize@UnitClass@@UAEHXZ		; UnitClass::SaveSize

; 78   : }

	mov	esp, ebp
	pop	ebp
	ret	0
?SaveSize@AirUnitClass@@UAEHXZ ENDP			; AirUnitClass::SaveSize
_TEXT	ENDS
; Function compile flags: /Odtp
; File c:\users\zhitao li\documents\visual studio 2012\projects\freefalcon\campaign\camptask\airunit.cpp
_TEXT	SEGMENT
_this$ = -4						; size = 4
??1AirUnitClass@@UAE@XZ PROC				; AirUnitClass::~AirUnitClass
; _this$ = ecx

; 71   : {

	push	ebp
	mov	ebp, esp
	push	ecx
	mov	DWORD PTR _this$[ebp], ecx
	mov	eax, DWORD PTR _this$[ebp]
	mov	DWORD PTR [eax], OFFSET ??_7AirUnitClass@@6B@

; 72   : 	// Nothing to do here
; 73   : }

	mov	ecx, DWORD PTR _this$[ebp]
	call	??1UnitClass@@UAE@XZ			; UnitClass::~UnitClass
	mov	esp, ebp
	pop	ebp
	ret	0
??1AirUnitClass@@UAE@XZ ENDP				; AirUnitClass::~AirUnitClass
_TEXT	ENDS
; Function compile flags: /Odtp
; File c:\users\zhitao li\documents\visual studio 2012\projects\freefalcon\campaign\camptask\airunit.cpp
_TEXT	SEGMENT
_this$ = -4						; size = 4
_stream$ = 8						; size = 4
_size$ = 12						; size = 4
??0AirUnitClass@@QAE@PAPAEPAJ@Z PROC			; AirUnitClass::AirUnitClass
; _this$ = ecx

; 62   : AirUnitClass::AirUnitClass(VU_BYTE **stream, long *size) : UnitClass(stream, size){

	push	ebp
	mov	ebp, esp
	push	ecx
	mov	DWORD PTR _this$[ebp], ecx
	mov	eax, DWORD PTR _size$[ebp]
	push	eax
	mov	ecx, DWORD PTR _stream$[ebp]
	push	ecx
	mov	ecx, DWORD PTR _this$[ebp]
	call	??0UnitClass@@QAE@PAPAEPAJ@Z		; UnitClass::UnitClass
	mov	edx, DWORD PTR _this$[ebp]
	mov	DWORD PTR [edx], OFFSET ??_7AirUnitClass@@6B@

; 63   : 	if (load_log)

	cmp	DWORD PTR ?load_log@@3PAU_iobuf@@A, 0	; load_log
	je	SHORT $LN2@AirUnitCla

; 64   : 	{
; 65   : 		fprintf (load_log, "%08x AirUnitClass ", *stream - start_load_stream);

	mov	eax, DWORD PTR _stream$[ebp]
	mov	ecx, DWORD PTR [eax]
	sub	ecx, DWORD PTR ?start_load_stream@@3HA	; start_load_stream
	push	ecx
	push	OFFSET ??_C@_0BD@CCMMOIEM@?$CF08x?5AirUnitClass?5?$AA@
	mov	edx, DWORD PTR ?load_log@@3PAU_iobuf@@A	; load_log
	push	edx
	call	_fprintf
	add	esp, 12					; 0000000cH

; 66   : 		fflush (load_log);

	mov	eax, DWORD PTR ?load_log@@3PAU_iobuf@@A	; load_log
	push	eax
	call	_fflush
	add	esp, 4
$LN2@AirUnitCla:

; 67   : 	}
; 68   : }

	mov	eax, DWORD PTR _this$[ebp]
	mov	esp, ebp
	pop	ebp
	ret	8
??0AirUnitClass@@QAE@PAPAEPAJ@Z ENDP			; AirUnitClass::AirUnitClass
_TEXT	ENDS
; Function compile flags: /Odtp
; File c:\users\zhitao li\documents\visual studio 2012\projects\freefalcon\campaign\camptask\airunit.cpp
_TEXT	SEGMENT
_this$ = -4						; size = 4
_type$ = 8						; size = 2
_id$ = 12						; size = 4
??0AirUnitClass@@QAE@GK@Z PROC				; AirUnitClass::AirUnitClass
; _this$ = ecx

; 57   : AirUnitClass::AirUnitClass(ushort type, VU_ID_NUMBER id) : UnitClass(type, id){

	push	ebp
	mov	ebp, esp
	push	ecx
	mov	DWORD PTR _this$[ebp], ecx
	mov	eax, DWORD PTR _id$[ebp]
	push	eax
	movzx	ecx, WORD PTR _type$[ebp]
	push	ecx
	mov	ecx, DWORD PTR _this$[ebp]
	call	??0UnitClass@@QAE@GK@Z			; UnitClass::UnitClass
	mov	edx, DWORD PTR _this$[ebp]
	mov	DWORD PTR [edx], OFFSET ??_7AirUnitClass@@6B@

; 58   : }

	mov	eax, DWORD PTR _this$[ebp]
	mov	esp, ebp
	pop	ebp
	ret	8
??0AirUnitClass@@QAE@GK@Z ENDP				; AirUnitClass::AirUnitClass
_TEXT	ENDS
; Function compile flags: /Odtp
; File c:\users\zhitao li\documents\visual studio 2012\projects\freefalcon\campaign\include\unit.h
;	COMDAT ?UpdateParentStatistics@UnitClass@@UAEHXZ
_TEXT	SEGMENT
_this$ = -4						; size = 4
?UpdateParentStatistics@UnitClass@@UAEHXZ PROC		; UnitClass::UpdateParentStatistics, COMDAT
; _this$ = ecx

; 559  : 	virtual int UpdateParentStatistics (void)					{ return 0; }

	push	ebp
	mov	ebp, esp
	push	ecx
	mov	DWORD PTR _this$[ebp], ecx
	xor	eax, eax
	mov	esp, ebp
	pop	ebp
	ret	0
?UpdateParentStatistics@UnitClass@@UAEHXZ ENDP		; UnitClass::UpdateParentStatistics
_TEXT	ENDS
; Function compile flags: /Odtp
; File c:\users\zhitao li\documents\visual studio 2012\projects\freefalcon\campaign\include\unit.h
;	COMDAT ?ReorganizeUnit@UnitClass@@UAEXXZ
_TEXT	SEGMENT
_this$ = -4						; size = 4
?ReorganizeUnit@UnitClass@@UAEXXZ PROC			; UnitClass::ReorganizeUnit, COMDAT
; _this$ = ecx

; 558  : 	virtual void ReorganizeUnit (void)							{}

	push	ebp
	mov	ebp, esp
	push	ecx
	mov	DWORD PTR _this$[ebp], ecx
	mov	esp, ebp
	pop	ebp
	ret	0
?ReorganizeUnit@UnitClass@@UAEXXZ ENDP			; UnitClass::ReorganizeUnit
_TEXT	ENDS
; Function compile flags: /Odtp
; File c:\users\zhitao li\documents\visual studio 2012\projects\freefalcon\campaign\include\unit.h
;	COMDAT ?RemoveChild@UnitClass@@UAEXVVU_ID@@@Z
_TEXT	SEGMENT
_this$ = -4						; size = 4
___formal$ = 8						; size = 8
?RemoveChild@UnitClass@@UAEXVVU_ID@@@Z PROC		; UnitClass::RemoveChild, COMDAT
; _this$ = ecx

; 557  : 	virtual void RemoveChild (VU_ID)							{}

	push	ebp
	mov	ebp, esp
	push	ecx
	mov	DWORD PTR _this$[ebp], ecx
	mov	esp, ebp
	pop	ebp
	ret	8
?RemoveChild@UnitClass@@UAEXVVU_ID@@@Z ENDP		; UnitClass::RemoveChild
_TEXT	ENDS
; Function compile flags: /Odtp
; File c:\users\zhitao li\documents\visual studio 2012\projects\freefalcon\campaign\include\unit.h
;	COMDAT ?DisposeChildren@UnitClass@@UAEXXZ
_TEXT	SEGMENT
_this$ = -4						; size = 4
?DisposeChildren@UnitClass@@UAEXXZ PROC			; UnitClass::DisposeChildren, COMDAT
; _this$ = ecx

; 556  : 	virtual void DisposeChildren (void)							{}

	push	ebp
	mov	ebp, esp
	push	ecx
	mov	DWORD PTR _this$[ebp], ecx
	mov	esp, ebp
	pop	ebp
	ret	0
?DisposeChildren@UnitClass@@UAEXXZ ENDP			; UnitClass::DisposeChildren
_TEXT	ENDS
; Function compile flags: /Odtp
; File c:\users\zhitao li\documents\visual studio 2012\projects\freefalcon\campaign\include\unit.h
;	COMDAT ?AddUnitChild@UnitClass@@UAEXPAV1@@Z
_TEXT	SEGMENT
_this$ = -4						; size = 4
___formal$ = 8						; size = 4
?AddUnitChild@UnitClass@@UAEXPAV1@@Z PROC		; UnitClass::AddUnitChild, COMDAT
; _this$ = ecx

; 555  : 	virtual void AddUnitChild (Unit)							{}

	push	ebp
	mov	ebp, esp
	push	ecx
	mov	DWORD PTR _this$[ebp], ecx
	mov	esp, ebp
	pop	ebp
	ret	4
?AddUnitChild@UnitClass@@UAEXPAV1@@Z ENDP		; UnitClass::AddUnitChild
_TEXT	ENDS
; Function compile flags: /Odtp
; File c:\users\zhitao li\documents\visual studio 2012\projects\freefalcon\campaign\include\unit.h
;	COMDAT ?GetPrevUnitElement@UnitClass@@UAEPAV1@PAV1@@Z
_TEXT	SEGMENT
_this$ = -4						; size = 4
___formal$ = 8						; size = 4
?GetPrevUnitElement@UnitClass@@UAEPAV1@PAV1@@Z PROC	; UnitClass::GetPrevUnitElement, COMDAT
; _this$ = ecx

; 554  : 	virtual Unit GetPrevUnitElement (Unit)						{ return NULL; }

	push	ebp
	mov	ebp, esp
	push	ecx
	mov	DWORD PTR _this$[ebp], ecx
	xor	eax, eax
	mov	esp, ebp
	pop	ebp
	ret	4
?GetPrevUnitElement@UnitClass@@UAEPAV1@PAV1@@Z ENDP	; UnitClass::GetPrevUnitElement
_TEXT	ENDS
; Function compile flags: /Odtp
; File c:\users\zhitao li\documents\visual studio 2012\projects\freefalcon\campaign\include\unit.h
;	COMDAT ?GetUnitElementByID@UnitClass@@UAEPAV1@H@Z
_TEXT	SEGMENT
_this$ = -4						; size = 4
___formal$ = 8						; size = 4
?GetUnitElementByID@UnitClass@@UAEPAV1@H@Z PROC		; UnitClass::GetUnitElementByID, COMDAT
; _this$ = ecx

; 553  : 	virtual Unit GetUnitElementByID (int)						{ return NULL; }

	push	ebp
	mov	ebp, esp
	push	ecx
	mov	DWORD PTR _this$[ebp], ecx
	xor	eax, eax
	mov	esp, ebp
	pop	ebp
	ret	4
?GetUnitElementByID@UnitClass@@UAEPAV1@H@Z ENDP		; UnitClass::GetUnitElementByID
_TEXT	ENDS
; Function compile flags: /Odtp
; File c:\users\zhitao li\documents\visual studio 2012\projects\freefalcon\campaign\include\unit.h
;	COMDAT ?GetUnitElement@UnitClass@@UAEPAV1@H@Z
_TEXT	SEGMENT
_this$ = -4						; size = 4
___formal$ = 8						; size = 4
?GetUnitElement@UnitClass@@UAEPAV1@H@Z PROC		; UnitClass::GetUnitElement, COMDAT
; _this$ = ecx

; 552  : 	virtual Unit GetUnitElement (int)							{ return NULL; }

	push	ebp
	mov	ebp, esp
	push	ecx
	mov	DWORD PTR _this$[ebp], ecx
	xor	eax, eax
	mov	esp, ebp
	pop	ebp
	ret	4
?GetUnitElement@UnitClass@@UAEPAV1@H@Z ENDP		; UnitClass::GetUnitElement
_TEXT	ENDS
; Function compile flags: /Odtp
; File c:\users\zhitao li\documents\visual studio 2012\projects\freefalcon\campaign\include\unit.h
;	COMDAT ?GetNextUnitElement@UnitClass@@UBEPAV1@XZ
_TEXT	SEGMENT
_this$ = -4						; size = 4
?GetNextUnitElement@UnitClass@@UBEPAV1@XZ PROC		; UnitClass::GetNextUnitElement, COMDAT
; _this$ = ecx

; 551  : 	virtual Unit GetNextUnitElement() const						{ return NULL; }

	push	ebp
	mov	ebp, esp
	push	ecx
	mov	DWORD PTR _this$[ebp], ecx
	xor	eax, eax
	mov	esp, ebp
	pop	ebp
	ret	0
?GetNextUnitElement@UnitClass@@UBEPAV1@XZ ENDP		; UnitClass::GetNextUnitElement
_TEXT	ENDS
; Function compile flags: /Odtp
; File c:\users\zhitao li\documents\visual studio 2012\projects\freefalcon\campaign\include\unit.h
;	COMDAT ?GetFirstUnitElement@UnitClass@@UBEPAV1@XZ
_TEXT	SEGMENT
_this$ = -4						; size = 4
?GetFirstUnitElement@UnitClass@@UBEPAV1@XZ PROC		; UnitClass::GetFirstUnitElement, COMDAT
; _this$ = ecx

; 550  : 	virtual Unit GetFirstUnitElement() const					{ return NULL; }

	push	ebp
	mov	ebp, esp
	push	ecx
	mov	DWORD PTR _this$[ebp], ecx
	xor	eax, eax
	mov	esp, ebp
	pop	ebp
	ret	0
?GetFirstUnitElement@UnitClass@@UBEPAV1@XZ ENDP		; UnitClass::GetFirstUnitElement
_TEXT	ENDS
; Function compile flags: /Odtp
; File c:\users\zhitao li\documents\visual studio 2012\projects\freefalcon\campaign\include\unit.h
;	COMDAT ?SetUnitParent@UnitClass@@UAEXPAV1@@Z
_TEXT	SEGMENT
_this$ = -4						; size = 4
___formal$ = 8						; size = 4
?SetUnitParent@UnitClass@@UAEXPAV1@@Z PROC		; UnitClass::SetUnitParent, COMDAT
; _this$ = ecx

; 543  : 	virtual void SetUnitParent (Unit)							{}

	push	ebp
	mov	ebp, esp
	push	ecx
	mov	DWORD PTR _this$[ebp], ecx
	mov	esp, ebp
	pop	ebp
	ret	4
?SetUnitParent@UnitClass@@UAEXPAV1@@Z ENDP		; UnitClass::SetUnitParent
_TEXT	ENDS
; Function compile flags: /Odtp
; File c:\users\zhitao li\documents\visual studio 2012\projects\freefalcon\campaign\include\unit.h
;	COMDAT ?GetUnitParentID@UnitClass@@UAE?AVVU_ID@@XZ
_TEXT	SEGMENT
_this$ = -4						; size = 4
___$ReturnUdt$ = 8					; size = 4
?GetUnitParentID@UnitClass@@UAE?AVVU_ID@@XZ PROC	; UnitClass::GetUnitParentID, COMDAT
; _this$ = ecx

; 542  : 	virtual VU_ID GetUnitParentID (void)						{ return FalconNullId; }

	push	ebp
	mov	ebp, esp
	push	ecx
	mov	DWORD PTR _this$[ebp], ecx
	mov	eax, DWORD PTR ___$ReturnUdt$[ebp]
	mov	ecx, DWORD PTR ?FalconNullId@@3VVU_ID@@A
	mov	DWORD PTR [eax], ecx
	mov	edx, DWORD PTR ?FalconNullId@@3VVU_ID@@A+4
	mov	DWORD PTR [eax+4], edx
	mov	eax, DWORD PTR ___$ReturnUdt$[ebp]
	mov	esp, ebp
	pop	ebp
	ret	4
?GetUnitParentID@UnitClass@@UAE?AVVU_ID@@XZ ENDP	; UnitClass::GetUnitParentID
_TEXT	ENDS
; Function compile flags: /Odtp
; File c:\users\zhitao li\documents\visual studio 2012\projects\freefalcon\campaign\include\unit.h
;	COMDAT ?GetUnitParent@UnitClass@@UBEPAV1@XZ
_TEXT	SEGMENT
_this$ = -4						; size = 4
?GetUnitParent@UnitClass@@UBEPAV1@XZ PROC		; UnitClass::GetUnitParent, COMDAT
; _this$ = ecx

; 541  : 	virtual Unit GetUnitParent() const							{ return NULL; }

	push	ebp
	mov	ebp, esp
	push	ecx
	mov	DWORD PTR _this$[ebp], ecx
	xor	eax, eax
	mov	esp, ebp
	pop	ebp
	ret	0
?GetUnitParent@UnitClass@@UBEPAV1@XZ ENDP		; UnitClass::GetUnitParent
_TEXT	ENDS
; Function compile flags: /Odtp
; File c:\users\zhitao li\documents\visual studio 2012\projects\freefalcon\campaign\include\unit.h
;	COMDAT ?RallyUnit@UnitClass@@UAEHH@Z
_TEXT	SEGMENT
_this$ = -4						; size = 4
___formal$ = 8						; size = 4
?RallyUnit@UnitClass@@UAEHH@Z PROC			; UnitClass::RallyUnit, COMDAT
; _this$ = ecx

; 538  : 	virtual int RallyUnit (int)							{ return 0; }

	push	ebp
	mov	ebp, esp
	push	ecx
	mov	DWORD PTR _this$[ebp], ecx
	xor	eax, eax
	mov	esp, ebp
	pop	ebp
	ret	4
?RallyUnit@UnitClass@@UAEHH@Z ENDP			; UnitClass::RallyUnit
_TEXT	ENDS
; Function compile flags: /Odtp
; File c:\users\zhitao li\documents\visual studio 2012\projects\freefalcon\campaign\include\unit.h
;	COMDAT ?BuildMission@UnitClass@@UAEHXZ
_TEXT	SEGMENT
_this$ = -4						; size = 4
?BuildMission@UnitClass@@UAEHXZ PROC			; UnitClass::BuildMission, COMDAT
; _this$ = ecx

; 537  : 	virtual int BuildMission (void)								{ return 0; }

	push	ebp
	mov	ebp, esp
	push	ecx
	mov	DWORD PTR _this$[ebp], ecx
	xor	eax, eax
	mov	esp, ebp
	pop	ebp
	ret	0
?BuildMission@UnitClass@@UAEHXZ ENDP			; UnitClass::BuildMission
_TEXT	ENDS
; Function compile flags: /Odtp
; File c:\users\zhitao li\documents\visual studio 2012\projects\freefalcon\campaign\include\unit.h
;	COMDAT ?CheckForSurrender@UnitClass@@UAEHXZ
_TEXT	SEGMENT
_this$ = -4						; size = 4
?CheckForSurrender@UnitClass@@UAEHXZ PROC		; UnitClass::CheckForSurrender, COMDAT
; _this$ = ecx

; 536  : 	virtual int CheckForSurrender (void)						{ return 1; }

	push	ebp
	mov	ebp, esp
	push	ecx
	mov	DWORD PTR _this$[ebp], ecx
	mov	eax, 1
	mov	esp, ebp
	pop	ebp
	ret	0
?CheckForSurrender@UnitClass@@UAEHXZ ENDP		; UnitClass::CheckForSurrender
_TEXT	ENDS
; Function compile flags: /Odtp
; File c:\users\zhitao li\documents\visual studio 2012\projects\freefalcon\campaign\include\unit.h
;	COMDAT ?GetObjMovementType@UnitClass@@UAE?AW4MoveType@@PAVObjectiveClass@@H@Z
_TEXT	SEGMENT
_this$ = -4						; size = 4
___formal$ = 8						; size = 4
___formal$ = 12						; size = 4
?GetObjMovementType@UnitClass@@UAE?AW4MoveType@@PAVObjectiveClass@@H@Z PROC ; UnitClass::GetObjMovementType, COMDAT
; _this$ = ecx

; 535  : 	virtual MoveType GetObjMovementType (Objective, int)	{ return CampBaseClass::GetMovementType(); }

	push	ebp
	mov	ebp, esp
	push	ecx
	mov	DWORD PTR _this$[ebp], ecx
	mov	ecx, DWORD PTR _this$[ebp]
	call	?GetMovementType@FalconEntity@@UAE?AW4MoveType@@XZ ; FalconEntity::GetMovementType
	mov	esp, ebp
	pop	ebp
	ret	8
?GetObjMovementType@UnitClass@@UAE?AW4MoveType@@PAVObjectiveClass@@H@Z ENDP ; UnitClass::GetObjMovementType
_TEXT	ENDS
; Function compile flags: /Odtp
; File c:\users\zhitao li\documents\visual studio 2012\projects\freefalcon\campaign\include\unit.h
;	COMDAT ?GetUnitCurrentDestination@UnitClass@@UAEXPAF0@Z
_TEXT	SEGMENT
_this$ = -4						; size = 4
___formal$ = 8						; size = 4
___formal$ = 12						; size = 4
?GetUnitCurrentDestination@UnitClass@@UAEXPAF0@Z PROC	; UnitClass::GetUnitCurrentDestination, COMDAT
; _this$ = ecx

; 534  : 	virtual void GetUnitCurrentDestination(GridIndex*, GridIndex*)	{}

	push	ebp
	mov	ebp, esp
	push	ecx
	mov	DWORD PTR _this$[ebp], ecx
	mov	esp, ebp
	pop	ebp
	ret	8
?GetUnitCurrentDestination@UnitClass@@UAEXPAF0@Z ENDP	; UnitClass::GetUnitCurrentDestination
_TEXT	ENDS
; Function compile flags: /Odtp
; File c:\users\zhitao li\documents\visual studio 2012\projects\freefalcon\campaign\include\unit.h
;	COMDAT ?SetUnitCurrentDestination@UnitClass@@UAEXFF@Z
_TEXT	SEGMENT
_this$ = -4						; size = 4
___formal$ = 8						; size = 2
___formal$ = 12						; size = 2
?SetUnitCurrentDestination@UnitClass@@UAEXFF@Z PROC	; UnitClass::SetUnitCurrentDestination, COMDAT
; _this$ = ecx

; 533  : 	virtual void SetUnitCurrentDestination(GridIndex, GridIndex)	{}

	push	ebp
	mov	ebp, esp
	push	ecx
	mov	DWORD PTR _this$[ebp], ecx
	mov	esp, ebp
	pop	ebp
	ret	8
?SetUnitCurrentDestination@UnitClass@@UAEXFF@Z ENDP	; UnitClass::SetUnitCurrentDestination
_TEXT	ENDS
; Function compile flags: /Odtp
; File c:\users\zhitao li\documents\visual studio 2012\projects\freefalcon\campaign\include\unit.h
;	COMDAT ?GetNextMoveDirection@UnitClass@@UAEHXZ
_TEXT	SEGMENT
_this$ = -4						; size = 4
?GetNextMoveDirection@UnitClass@@UAEHXZ PROC		; UnitClass::GetNextMoveDirection, COMDAT
; _this$ = ecx

; 532  : 	virtual int GetNextMoveDirection (void)						{ return Here; }

	push	ebp
	mov	ebp, esp
	push	ecx
	mov	DWORD PTR _this$[ebp], ecx
	mov	eax, 8
	mov	esp, ebp
	pop	ebp
	ret	0
?GetNextMoveDirection@UnitClass@@UAEHXZ ENDP		; UnitClass::GetNextMoveDirection
_TEXT	ENDS
; Function compile flags: /Odtp
; File c:\users\zhitao li\documents\visual studio 2012\projects\freefalcon\campaign\include\unit.h
;	COMDAT ?ClearUnitPath@UnitClass@@UAEXXZ
_TEXT	SEGMENT
_this$ = -4						; size = 4
?ClearUnitPath@UnitClass@@UAEXXZ PROC			; UnitClass::ClearUnitPath, COMDAT
; _this$ = ecx

; 531  : 	virtual void ClearUnitPath (void)							{}

	push	ebp
	mov	ebp, esp
	push	ecx
	mov	DWORD PTR _this$[ebp], ecx
	mov	esp, ebp
	pop	ebp
	ret	0
?ClearUnitPath@UnitClass@@UAEXXZ ENDP			; UnitClass::ClearUnitPath
_TEXT	ENDS
; Function compile flags: /Odtp
; File c:\users\zhitao li\documents\visual studio 2012\projects\freefalcon\campaign\include\unit.h
;	COMDAT ?SetUnitNextMove@UnitClass@@UAEXXZ
_TEXT	SEGMENT
_this$ = -4						; size = 4
?SetUnitNextMove@UnitClass@@UAEXXZ PROC			; UnitClass::SetUnitNextMove, COMDAT
; _this$ = ecx

; 530  : 	virtual void SetUnitNextMove (void)							{}

	push	ebp
	mov	ebp, esp
	push	ecx
	mov	DWORD PTR _this$[ebp], ecx
	mov	esp, ebp
	pop	ebp
	ret	0
?SetUnitNextMove@UnitClass@@UAEXXZ ENDP			; UnitClass::SetUnitNextMove
_TEXT	ENDS
; Function compile flags: /Odtp
; File c:\users\zhitao li\documents\visual studio 2012\projects\freefalcon\campaign\include\unit.h
;	COMDAT ?GetUnitHeading@UnitClass@@UAEHXZ
_TEXT	SEGMENT
_this$ = -4						; size = 4
?GetUnitHeading@UnitClass@@UAEHXZ PROC			; UnitClass::GetUnitHeading, COMDAT
; _this$ = ecx

; 529  : 	virtual int GetUnitHeading (void)							{ return Here; }

	push	ebp
	mov	ebp, esp
	push	ecx
	mov	DWORD PTR _this$[ebp], ecx
	mov	eax, 8
	mov	esp, ebp
	pop	ebp
	ret	0
?GetUnitHeading@UnitClass@@UAEHXZ ENDP			; UnitClass::GetUnitHeading
_TEXT	ENDS
; Function compile flags: /Odtp
; File c:\users\zhitao li\documents\visual studio 2012\projects\freefalcon\campaign\include\unit.h
;	COMDAT ?GetUnitDivision@UnitClass@@UAEHXZ
_TEXT	SEGMENT
_this$ = -4						; size = 4
?GetUnitDivision@UnitClass@@UAEHXZ PROC			; UnitClass::GetUnitDivision, COMDAT
; _this$ = ecx

; 528  : 	virtual int GetUnitDivision (void)							{ return 0; }

	push	ebp
	mov	ebp, esp
	push	ecx
	mov	DWORD PTR _this$[ebp], ecx
	xor	eax, eax
	mov	esp, ebp
	pop	ebp
	ret	0
?GetUnitDivision@UnitClass@@UAEHXZ ENDP			; UnitClass::GetUnitDivision
_TEXT	ENDS
; Function compile flags: /Odtp
; File c:\users\zhitao li\documents\visual studio 2012\projects\freefalcon\campaign\include\unit.h
;	COMDAT ?GetUnitPosition@UnitClass@@UAEHXZ
_TEXT	SEGMENT
_this$ = -4						; size = 4
?GetUnitPosition@UnitClass@@UAEHXZ PROC			; UnitClass::GetUnitPosition, COMDAT
; _this$ = ecx

; 527  : 	virtual int GetUnitPosition (void)							{ return 0; }

	push	ebp
	mov	ebp, esp
	push	ecx
	mov	DWORD PTR _this$[ebp], ecx
	xor	eax, eax
	mov	esp, ebp
	pop	ebp
	ret	0
?GetUnitPosition@UnitClass@@UAEHXZ ENDP			; UnitClass::GetUnitPosition
_TEXT	ENDS
; Function compile flags: /Odtp
; File c:\users\zhitao li\documents\visual studio 2012\projects\freefalcon\campaign\include\unit.h
;	COMDAT ?GetUnitMode@UnitClass@@UAEHXZ
_TEXT	SEGMENT
_this$ = -4						; size = 4
?GetUnitMode@UnitClass@@UAEHXZ PROC			; UnitClass::GetUnitMode, COMDAT
; _this$ = ecx

; 526  : 	virtual int GetUnitMode (void)								{ return 0; }

	push	ebp
	mov	ebp, esp
	push	ecx
	mov	DWORD PTR _this$[ebp], ecx
	xor	eax, eax
	mov	esp, ebp
	pop	ebp
	ret	0
?GetUnitMode@UnitClass@@UAEHXZ ENDP			; UnitClass::GetUnitMode
_TEXT	ENDS
; Function compile flags: /Odtp
; File c:\users\zhitao li\documents\visual studio 2012\projects\freefalcon\campaign\include\unit.h
;	COMDAT ?GetUnitElement@UnitClass@@UAEHXZ
_TEXT	SEGMENT
_this$ = -4						; size = 4
?GetUnitElement@UnitClass@@UAEHXZ PROC			; UnitClass::GetUnitElement, COMDAT
; _this$ = ecx

; 525  : 	virtual int GetUnitElement (void) 							{ return 0; }

	push	ebp
	mov	ebp, esp
	push	ecx
	mov	DWORD PTR _this$[ebp], ecx
	xor	eax, eax
	mov	esp, ebp
	pop	ebp
	ret	0
?GetUnitElement@UnitClass@@UAEHXZ ENDP			; UnitClass::GetUnitElement
_TEXT	ENDS
; Function compile flags: /Odtp
; File c:\users\zhitao li\documents\visual studio 2012\projects\freefalcon\campaign\include\unit.h
;	COMDAT ?GetUnitFatigue@UnitClass@@UAEHXZ
_TEXT	SEGMENT
_this$ = -4						; size = 4
?GetUnitFatigue@UnitClass@@UAEHXZ PROC			; UnitClass::GetUnitFatigue, COMDAT
; _this$ = ecx

; 524  : 	virtual int GetUnitFatigue (void)							{ return 0; }

	push	ebp
	mov	ebp, esp
	push	ecx
	mov	DWORD PTR _this$[ebp], ecx
	xor	eax, eax
	mov	esp, ebp
	pop	ebp
	ret	0
?GetUnitFatigue@UnitClass@@UAEHXZ ENDP			; UnitClass::GetUnitFatigue
_TEXT	ENDS
; Function compile flags: /Odtp
; File c:\users\zhitao li\documents\visual studio 2012\projects\freefalcon\campaign\include\unit.h
;	COMDAT ?GetUnitOrders@UnitClass@@UAEHXZ
_TEXT	SEGMENT
_this$ = -4						; size = 4
?GetUnitOrders@UnitClass@@UAEHXZ PROC			; UnitClass::GetUnitOrders, COMDAT
; _this$ = ecx

; 523  : 	virtual int GetUnitOrders (void)							{ return 0; }

	push	ebp
	mov	ebp, esp
	push	ecx
	mov	DWORD PTR _this$[ebp], ecx
	xor	eax, eax
	mov	esp, ebp
	pop	ebp
	ret	0
?GetUnitOrders@UnitClass@@UAEHXZ ENDP			; UnitClass::GetUnitOrders
_TEXT	ENDS
; Function compile flags: /Odtp
; File c:\users\zhitao li\documents\visual studio 2012\projects\freefalcon\campaign\include\unit.h
;	COMDAT ?GetUnitObjectiveID@UnitClass@@UAE?AVVU_ID@@XZ
_TEXT	SEGMENT
_this$ = -4						; size = 4
___$ReturnUdt$ = 8					; size = 4
?GetUnitObjectiveID@UnitClass@@UAE?AVVU_ID@@XZ PROC	; UnitClass::GetUnitObjectiveID, COMDAT
; _this$ = ecx

; 522  : 	virtual VU_ID GetUnitObjectiveID (void)						{ return FalconNullId; }

	push	ebp
	mov	ebp, esp
	push	ecx
	mov	DWORD PTR _this$[ebp], ecx
	mov	eax, DWORD PTR ___$ReturnUdt$[ebp]
	mov	ecx, DWORD PTR ?FalconNullId@@3VVU_ID@@A
	mov	DWORD PTR [eax], ecx
	mov	edx, DWORD PTR ?FalconNullId@@3VVU_ID@@A+4
	mov	DWORD PTR [eax+4], edx
	mov	eax, DWORD PTR ___$ReturnUdt$[ebp]
	mov	esp, ebp
	pop	ebp
	ret	4
?GetUnitObjectiveID@UnitClass@@UAE?AVVU_ID@@XZ ENDP	; UnitClass::GetUnitObjectiveID
_TEXT	ENDS
; Function compile flags: /Odtp
; File c:\users\zhitao li\documents\visual studio 2012\projects\freefalcon\campaign\include\unit.h
;	COMDAT ?GetUnitSecondaryObjID@UnitClass@@UAE?AVVU_ID@@XZ
_TEXT	SEGMENT
_this$ = -4						; size = 4
___$ReturnUdt$ = 8					; size = 4
?GetUnitSecondaryObjID@UnitClass@@UAE?AVVU_ID@@XZ PROC	; UnitClass::GetUnitSecondaryObjID, COMDAT
; _this$ = ecx

; 521  : 	virtual VU_ID GetUnitSecondaryObjID (void)					{ return FalconNullId; }

	push	ebp
	mov	ebp, esp
	push	ecx
	mov	DWORD PTR _this$[ebp], ecx
	mov	eax, DWORD PTR ___$ReturnUdt$[ebp]
	mov	ecx, DWORD PTR ?FalconNullId@@3VVU_ID@@A
	mov	DWORD PTR [eax], ecx
	mov	edx, DWORD PTR ?FalconNullId@@3VVU_ID@@A+4
	mov	DWORD PTR [eax+4], edx
	mov	eax, DWORD PTR ___$ReturnUdt$[ebp]
	mov	esp, ebp
	pop	ebp
	ret	4
?GetUnitSecondaryObjID@UnitClass@@UAE?AVVU_ID@@XZ ENDP	; UnitClass::GetUnitSecondaryObjID
_TEXT	ENDS
; Function compile flags: /Odtp
; File c:\users\zhitao li\documents\visual studio 2012\projects\freefalcon\campaign\include\unit.h
;	COMDAT ?GetUnitPrimaryObjID@UnitClass@@UAE?AVVU_ID@@XZ
_TEXT	SEGMENT
_this$ = -4						; size = 4
___$ReturnUdt$ = 8					; size = 4
?GetUnitPrimaryObjID@UnitClass@@UAE?AVVU_ID@@XZ PROC	; UnitClass::GetUnitPrimaryObjID, COMDAT
; _this$ = ecx

; 520  : 	virtual VU_ID GetUnitPrimaryObjID (void)					{ return FalconNullId; }

	push	ebp
	mov	ebp, esp
	push	ecx
	mov	DWORD PTR _this$[ebp], ecx
	mov	eax, DWORD PTR ___$ReturnUdt$[ebp]
	mov	ecx, DWORD PTR ?FalconNullId@@3VVU_ID@@A
	mov	DWORD PTR [eax], ecx
	mov	edx, DWORD PTR ?FalconNullId@@3VVU_ID@@A+4
	mov	DWORD PTR [eax+4], edx
	mov	eax, DWORD PTR ___$ReturnUdt$[ebp]
	mov	esp, ebp
	pop	ebp
	ret	4
?GetUnitPrimaryObjID@UnitClass@@UAE?AVVU_ID@@XZ ENDP	; UnitClass::GetUnitPrimaryObjID
_TEXT	ENDS
; Function compile flags: /Odtp
; File c:\users\zhitao li\documents\visual studio 2012\projects\freefalcon\campaign\include\unit.h
;	COMDAT ?GetUnitObjective@UnitClass@@UAEPAVObjectiveClass@@XZ
_TEXT	SEGMENT
_this$ = -4						; size = 4
?GetUnitObjective@UnitClass@@UAEPAVObjectiveClass@@XZ PROC ; UnitClass::GetUnitObjective, COMDAT
; _this$ = ecx

; 519  : 	virtual Objective GetUnitObjective (void)					{ return NULL; }

	push	ebp
	mov	ebp, esp
	push	ecx
	mov	DWORD PTR _this$[ebp], ecx
	xor	eax, eax
	mov	esp, ebp
	pop	ebp
	ret	0
?GetUnitObjective@UnitClass@@UAEPAVObjectiveClass@@XZ ENDP ; UnitClass::GetUnitObjective
_TEXT	ENDS
; Function compile flags: /Odtp
; File c:\users\zhitao li\documents\visual studio 2012\projects\freefalcon\campaign\include\unit.h
;	COMDAT ?GetUnitSecondaryObj@UnitClass@@UAEPAVObjectiveClass@@XZ
_TEXT	SEGMENT
_this$ = -4						; size = 4
?GetUnitSecondaryObj@UnitClass@@UAEPAVObjectiveClass@@XZ PROC ; UnitClass::GetUnitSecondaryObj, COMDAT
; _this$ = ecx

; 518  : 	virtual Objective GetUnitSecondaryObj (void)				{ return NULL; }

	push	ebp
	mov	ebp, esp
	push	ecx
	mov	DWORD PTR _this$[ebp], ecx
	xor	eax, eax
	mov	esp, ebp
	pop	ebp
	ret	0
?GetUnitSecondaryObj@UnitClass@@UAEPAVObjectiveClass@@XZ ENDP ; UnitClass::GetUnitSecondaryObj
_TEXT	ENDS
; Function compile flags: /Odtp
; File c:\users\zhitao li\documents\visual studio 2012\projects\freefalcon\campaign\include\unit.h
;	COMDAT ?GetUnitPrimaryObj@UnitClass@@UAEPAVObjectiveClass@@XZ
_TEXT	SEGMENT
_this$ = -4						; size = 4
?GetUnitPrimaryObj@UnitClass@@UAEPAVObjectiveClass@@XZ PROC ; UnitClass::GetUnitPrimaryObj, COMDAT
; _this$ = ecx

; 517  : 	virtual Objective GetUnitPrimaryObj (void)					{ return NULL; }

	push	ebp
	mov	ebp, esp
	push	ecx
	mov	DWORD PTR _this$[ebp], ecx
	xor	eax, eax
	mov	esp, ebp
	pop	ebp
	ret	0
?GetUnitPrimaryObj@UnitClass@@UAEPAVObjectiveClass@@XZ ENDP ; UnitClass::GetUnitPrimaryObj
_TEXT	ENDS
; Function compile flags: /Odtp
; File c:\users\zhitao li\documents\visual studio 2012\projects\freefalcon\campaign\include\unit.h
;	COMDAT ?SetUnitHeading@UnitClass@@UAEXH@Z
_TEXT	SEGMENT
_this$ = -4						; size = 4
___formal$ = 8						; size = 4
?SetUnitHeading@UnitClass@@UAEXH@Z PROC			; UnitClass::SetUnitHeading, COMDAT
; _this$ = ecx

; 516  : 	virtual void SetUnitHeading (int)							{}

	push	ebp
	mov	ebp, esp
	push	ecx
	mov	DWORD PTR _this$[ebp], ecx
	mov	esp, ebp
	pop	ebp
	ret	4
?SetUnitHeading@UnitClass@@UAEXH@Z ENDP			; UnitClass::SetUnitHeading
_TEXT	ENDS
; Function compile flags: /Odtp
; File c:\users\zhitao li\documents\visual studio 2012\projects\freefalcon\campaign\include\unit.h
;	COMDAT ?SetUnitDivision@UnitClass@@UAEXH@Z
_TEXT	SEGMENT
_this$ = -4						; size = 4
___formal$ = 8						; size = 4
?SetUnitDivision@UnitClass@@UAEXH@Z PROC		; UnitClass::SetUnitDivision, COMDAT
; _this$ = ecx

; 515  : 	virtual void SetUnitDivision (int)						{}

	push	ebp
	mov	ebp, esp
	push	ecx
	mov	DWORD PTR _this$[ebp], ecx
	mov	esp, ebp
	pop	ebp
	ret	4
?SetUnitDivision@UnitClass@@UAEXH@Z ENDP		; UnitClass::SetUnitDivision
_TEXT	ENDS
; Function compile flags: /Odtp
; File c:\users\zhitao li\documents\visual studio 2012\projects\freefalcon\campaign\include\unit.h
;	COMDAT ?SetUnitPosition@UnitClass@@UAEXH@Z
_TEXT	SEGMENT
_this$ = -4						; size = 4
___formal$ = 8						; size = 4
?SetUnitPosition@UnitClass@@UAEXH@Z PROC		; UnitClass::SetUnitPosition, COMDAT
; _this$ = ecx

; 514  : 	virtual void SetUnitPosition (int)						{}

	push	ebp
	mov	ebp, esp
	push	ecx
	mov	DWORD PTR _this$[ebp], ecx
	mov	esp, ebp
	pop	ebp
	ret	4
?SetUnitPosition@UnitClass@@UAEXH@Z ENDP		; UnitClass::SetUnitPosition
_TEXT	ENDS
; Function compile flags: /Odtp
; File c:\users\zhitao li\documents\visual studio 2012\projects\freefalcon\campaign\include\unit.h
;	COMDAT ?SetUnitMode@UnitClass@@UAEXH@Z
_TEXT	SEGMENT
_this$ = -4						; size = 4
___formal$ = 8						; size = 4
?SetUnitMode@UnitClass@@UAEXH@Z PROC			; UnitClass::SetUnitMode, COMDAT
; _this$ = ecx

; 513  : 	virtual void SetUnitMode (int)							{}

	push	ebp
	mov	ebp, esp
	push	ecx
	mov	DWORD PTR _this$[ebp], ecx
	mov	esp, ebp
	pop	ebp
	ret	4
?SetUnitMode@UnitClass@@UAEXH@Z ENDP			; UnitClass::SetUnitMode
_TEXT	ENDS
; Function compile flags: /Odtp
; File c:\users\zhitao li\documents\visual studio 2012\projects\freefalcon\campaign\include\unit.h
;	COMDAT ?SetUnitFatigue@UnitClass@@UAEXH@Z
_TEXT	SEGMENT
_this$ = -4						; size = 4
___formal$ = 8						; size = 4
?SetUnitFatigue@UnitClass@@UAEXH@Z PROC			; UnitClass::SetUnitFatigue, COMDAT
; _this$ = ecx

; 511  : 	virtual void SetUnitFatigue (int) 						{}

	push	ebp
	mov	ebp, esp
	push	ecx
	mov	DWORD PTR _this$[ebp], ecx
	mov	esp, ebp
	pop	ebp
	ret	4
?SetUnitFatigue@UnitClass@@UAEXH@Z ENDP			; UnitClass::SetUnitFatigue
_TEXT	ENDS
; Function compile flags: /Odtp
; File c:\users\zhitao li\documents\visual studio 2012\projects\freefalcon\campaign\include\unit.h
;	COMDAT ?SetUnitOrders@UnitClass@@UAEXHVVU_ID@@@Z
_TEXT	SEGMENT
_this$ = -4						; size = 4
___formal$ = 8						; size = 4
___formal$ = 12						; size = 8
?SetUnitOrders@UnitClass@@UAEXHVVU_ID@@@Z PROC		; UnitClass::SetUnitOrders, COMDAT
; _this$ = ecx

; 510  : 	virtual void SetUnitOrders (int, VU_ID)				{}

	push	ebp
	mov	ebp, esp
	push	ecx
	mov	DWORD PTR _this$[ebp], ecx
	mov	esp, ebp
	pop	ebp
	ret	12					; 0000000cH
?SetUnitOrders@UnitClass@@UAEXHVVU_ID@@@Z ENDP		; UnitClass::SetUnitOrders
_TEXT	ENDS
; Function compile flags: /Odtp
; File c:\users\zhitao li\documents\visual studio 2012\projects\freefalcon\campaign\include\unit.h
;	COMDAT ?SetUnitOrders@UnitClass@@UAEXH@Z
_TEXT	SEGMENT
_this$ = -4						; size = 4
___formal$ = 8						; size = 4
?SetUnitOrders@UnitClass@@UAEXH@Z PROC			; UnitClass::SetUnitOrders, COMDAT
; _this$ = ecx

; 509  : 	virtual void SetUnitOrders (int)							{}

	push	ebp
	mov	ebp, esp
	push	ecx
	mov	DWORD PTR _this$[ebp], ecx
	mov	esp, ebp
	pop	ebp
	ret	4
?SetUnitOrders@UnitClass@@UAEXH@Z ENDP			; UnitClass::SetUnitOrders
_TEXT	ENDS
; Function compile flags: /Odtp
; File c:\users\zhitao li\documents\visual studio 2012\projects\freefalcon\campaign\include\unit.h
;	COMDAT ?SetUnitObjective@UnitClass@@UAEXVVU_ID@@@Z
_TEXT	SEGMENT
_this$ = -4						; size = 4
___formal$ = 8						; size = 8
?SetUnitObjective@UnitClass@@UAEXVVU_ID@@@Z PROC	; UnitClass::SetUnitObjective, COMDAT
; _this$ = ecx

; 508  : 	virtual void SetUnitObjective (VU_ID)					{}

	push	ebp
	mov	ebp, esp
	push	ecx
	mov	DWORD PTR _this$[ebp], ecx
	mov	esp, ebp
	pop	ebp
	ret	8
?SetUnitObjective@UnitClass@@UAEXVVU_ID@@@Z ENDP	; UnitClass::SetUnitObjective
_TEXT	ENDS
; Function compile flags: /Odtp
; File c:\users\zhitao li\documents\visual studio 2012\projects\freefalcon\campaign\include\unit.h
;	COMDAT ?SetUnitSecondaryObj@UnitClass@@UAEXVVU_ID@@@Z
_TEXT	SEGMENT
_this$ = -4						; size = 4
___formal$ = 8						; size = 8
?SetUnitSecondaryObj@UnitClass@@UAEXVVU_ID@@@Z PROC	; UnitClass::SetUnitSecondaryObj, COMDAT
; _this$ = ecx

; 507  : 	virtual void SetUnitSecondaryObj (VU_ID)					{}

	push	ebp
	mov	ebp, esp
	push	ecx
	mov	DWORD PTR _this$[ebp], ecx
	mov	esp, ebp
	pop	ebp
	ret	8
?SetUnitSecondaryObj@UnitClass@@UAEXVVU_ID@@@Z ENDP	; UnitClass::SetUnitSecondaryObj
_TEXT	ENDS
; Function compile flags: /Odtp
; File c:\users\zhitao li\documents\visual studio 2012\projects\freefalcon\campaign\include\unit.h
;	COMDAT ?SetUnitPrimaryObj@UnitClass@@UAEXVVU_ID@@@Z
_TEXT	SEGMENT
_this$ = -4						; size = 4
___formal$ = 8						; size = 8
?SetUnitPrimaryObj@UnitClass@@UAEXVVU_ID@@@Z PROC	; UnitClass::SetUnitPrimaryObj, COMDAT
; _this$ = ecx

; 506  : 	virtual void SetUnitPrimaryObj (VU_ID)					{}

	push	ebp
	mov	ebp, esp
	push	ecx
	mov	DWORD PTR _this$[ebp], ecx
	mov	esp, ebp
	pop	ebp
	ret	8
?SetUnitPrimaryObj@UnitClass@@UAEXVVU_ID@@@Z ENDP	; UnitClass::SetUnitPrimaryObj
_TEXT	ENDS
; Function compile flags: /Odtp
; File c:\users\zhitao li\documents\visual studio 2012\projects\freefalcon\campaign\include\unit.h
;	COMDAT ?GetUnitAssemblyPoint@UnitClass@@UAEXHPAF0@Z
_TEXT	SEGMENT
_this$ = -4						; size = 4
___formal$ = 8						; size = 4
___formal$ = 12						; size = 4
___formal$ = 16						; size = 4
?GetUnitAssemblyPoint@UnitClass@@UAEXHPAF0@Z PROC	; UnitClass::GetUnitAssemblyPoint, COMDAT
; _this$ = ecx

; 503  : 	virtual void GetUnitAssemblyPoint (int, GridIndex*, GridIndex*)	{}

	push	ebp
	mov	ebp, esp
	push	ecx
	mov	DWORD PTR _this$[ebp], ecx
	mov	esp, ebp
	pop	ebp
	ret	12					; 0000000cH
?GetUnitAssemblyPoint@UnitClass@@UAEXHPAF0@Z ENDP	; UnitClass::GetUnitAssemblyPoint
_TEXT	ENDS
; Function compile flags: /Odtp
; File c:\users\zhitao li\documents\visual studio 2012\projects\freefalcon\campaign\include\unit.h
;	COMDAT ?SetUnitAssemblyPoint@UnitClass@@UAEXHFF@Z
_TEXT	SEGMENT
_this$ = -4						; size = 4
___formal$ = 8						; size = 4
___formal$ = 12						; size = 2
___formal$ = 16						; size = 2
?SetUnitAssemblyPoint@UnitClass@@UAEXHFF@Z PROC		; UnitClass::SetUnitAssemblyPoint, COMDAT
; _this$ = ecx

; 502  : 	virtual void SetUnitAssemblyPoint (int, GridIndex, GridIndex)		{}

	push	ebp
	mov	ebp, esp
	push	ecx
	mov	DWORD PTR _this$[ebp], ecx
	mov	esp, ebp
	pop	ebp
	ret	12					; 0000000cH
?SetUnitAssemblyPoint@UnitClass@@UAEXHFF@Z ENDP		; UnitClass::SetUnitAssemblyPoint
_TEXT	ENDS
; Function compile flags: /Odtp
; File c:\users\zhitao li\documents\visual studio 2012\projects\freefalcon\campaign\include\unit.h
;	COMDAT ?HandleRequestReceipt@UnitClass@@UAEXHHVVU_ID@@@Z
_TEXT	SEGMENT
_this$ = -4						; size = 4
___formal$ = 8						; size = 4
___formal$ = 12						; size = 4
___formal$ = 16						; size = 8
?HandleRequestReceipt@UnitClass@@UAEXHHVVU_ID@@@Z PROC	; UnitClass::HandleRequestReceipt, COMDAT
; _this$ = ecx

; 501  : 	virtual void HandleRequestReceipt(int, int, VU_ID)			{}

	push	ebp
	mov	ebp, esp
	push	ecx
	mov	DWORD PTR _this$[ebp], ecx
	mov	esp, ebp
	pop	ebp
	ret	16					; 00000010H
?HandleRequestReceipt@UnitClass@@UAEXHHVVU_ID@@@Z ENDP	; UnitClass::HandleRequestReceipt
_TEXT	ENDS
; Function compile flags: /Odtp
; File c:\users\zhitao li\documents\visual studio 2012\projects\freefalcon\campaign\include\unit.h
;	COMDAT ?BuildPackage@UnitClass@@UAEHPAVMissionRequestClass@@PAVFalconPrivateList@@@Z
_TEXT	SEGMENT
_this$ = -4						; size = 4
___formal$ = 8						; size = 4
___formal$ = 12						; size = 4
?BuildPackage@UnitClass@@UAEHPAVMissionRequestClass@@PAVFalconPrivateList@@@Z PROC ; UnitClass::BuildPackage, COMDAT
; _this$ = ecx

; 500  : 	virtual int BuildPackage(MissionRequest, F4PFList)	{ return 0; }

	push	ebp
	mov	ebp, esp
	push	ecx
	mov	DWORD PTR _this$[ebp], ecx
	xor	eax, eax
	mov	esp, ebp
	pop	ebp
	ret	8
?BuildPackage@UnitClass@@UAEHPAVMissionRequestClass@@PAVFalconPrivateList@@@Z ENDP ; UnitClass::BuildPackage
_TEXT	ENDS
; Function compile flags: /Odtp
; File c:\users\zhitao li\documents\visual studio 2012\projects\freefalcon\campaign\include\unit.h
;	COMDAT ?GetLastResupply@UnitClass@@UAEHXZ
_TEXT	SEGMENT
_this$ = -4						; size = 4
?GetLastResupply@UnitClass@@UAEHXZ PROC			; UnitClass::GetLastResupply, COMDAT
; _this$ = ecx

; 497  : 	virtual int GetLastResupply (void)							{ return 0; }

	push	ebp
	mov	ebp, esp
	push	ecx
	mov	DWORD PTR _this$[ebp], ecx
	xor	eax, eax
	mov	esp, ebp
	pop	ebp
	ret	0
?GetLastResupply@UnitClass@@UAEHXZ ENDP			; UnitClass::GetLastResupply
_TEXT	ENDS
; Function compile flags: /Odtp
; File c:\users\zhitao li\documents\visual studio 2012\projects\freefalcon\campaign\include\unit.h
;	COMDAT ?GetLastResupplyTime@UnitClass@@UAEKXZ
_TEXT	SEGMENT
_this$ = -4						; size = 4
?GetLastResupplyTime@UnitClass@@UAEKXZ PROC		; UnitClass::GetLastResupplyTime, COMDAT
; _this$ = ecx

; 496  : 	virtual CampaignTime GetLastResupplyTime (void)				{ return TheCampaign.CurrentTime; }

	push	ebp
	mov	ebp, esp
	push	ecx
	mov	DWORD PTR _this$[ebp], ecx
	mov	eax, DWORD PTR ?TheCampaign@@3VCampaignClass@@A
	mov	esp, ebp
	pop	ebp
	ret	0
?GetLastResupplyTime@UnitClass@@UAEKXZ ENDP		; UnitClass::GetLastResupplyTime
_TEXT	ENDS
; Function compile flags: /Odtp
; File c:\users\zhitao li\documents\visual studio 2012\projects\freefalcon\campaign\include\unit.h
;	COMDAT ?GetUnitStores@UnitClass@@UAEEH@Z
_TEXT	SEGMENT
_this$ = -4						; size = 4
___formal$ = 8						; size = 4
?GetUnitStores@UnitClass@@UAEEH@Z PROC			; UnitClass::GetUnitStores, COMDAT
; _this$ = ecx

; 495  : 	virtual uchar GetUnitStores (int)							{ return 0; }

	push	ebp
	mov	ebp, esp
	push	ecx
	mov	DWORD PTR _this$[ebp], ecx
	xor	al, al
	mov	esp, ebp
	pop	ebp
	ret	4
?GetUnitStores@UnitClass@@UAEEH@Z ENDP			; UnitClass::GetUnitStores
_TEXT	ENDS
; Function compile flags: /Odtp
; File c:\users\zhitao li\documents\visual studio 2012\projects\freefalcon\campaign\include\unit.h
;	COMDAT ?GetSquadronFuel@UnitClass@@UAEJXZ
_TEXT	SEGMENT
_this$ = -4						; size = 4
?GetSquadronFuel@UnitClass@@UAEJXZ PROC			; UnitClass::GetSquadronFuel, COMDAT
; _this$ = ecx

; 494  : 	virtual long GetSquadronFuel (void)							{ return 0; }

	push	ebp
	mov	ebp, esp
	push	ecx
	mov	DWORD PTR _this$[ebp], ecx
	xor	eax, eax
	mov	esp, ebp
	pop	ebp
	ret	0
?GetSquadronFuel@UnitClass@@UAEJXZ ENDP			; UnitClass::GetSquadronFuel
_TEXT	ENDS
; Function compile flags: /Odtp
; File c:\users\zhitao li\documents\visual studio 2012\projects\freefalcon\campaign\include\unit.h
;	COMDAT ?GetUnitMorale@UnitClass@@UAEHXZ
_TEXT	SEGMENT
_this$ = -4						; size = 4
?GetUnitMorale@UnitClass@@UAEHXZ PROC			; UnitClass::GetUnitMorale, COMDAT
; _this$ = ecx

; 493  : 	virtual int GetUnitMorale (void) 							{ return 0; }

	push	ebp
	mov	ebp, esp
	push	ecx
	mov	DWORD PTR _this$[ebp], ecx
	xor	eax, eax
	mov	esp, ebp
	pop	ebp
	ret	0
?GetUnitMorale@UnitClass@@UAEHXZ ENDP			; UnitClass::GetUnitMorale
_TEXT	ENDS
; Function compile flags: /Odtp
; File c:\users\zhitao li\documents\visual studio 2012\projects\freefalcon\campaign\include\unit.h
;	COMDAT ?GetUnitSupply@UnitClass@@UAEHXZ
_TEXT	SEGMENT
_this$ = -4						; size = 4
?GetUnitSupply@UnitClass@@UAEHXZ PROC			; UnitClass::GetUnitSupply, COMDAT
; _this$ = ecx

; 492  : 	virtual int GetUnitSupply (void) 							{ return 0; }

	push	ebp
	mov	ebp, esp
	push	ecx
	mov	DWORD PTR _this$[ebp], ecx
	xor	eax, eax
	mov	esp, ebp
	pop	ebp
	ret	0
?GetUnitSupply@UnitClass@@UAEHXZ ENDP			; UnitClass::GetUnitSupply
_TEXT	ENDS
; Function compile flags: /Odtp
; File c:\users\zhitao li\documents\visual studio 2012\projects\freefalcon\campaign\include\unit.h
;	COMDAT ?GetUnitSpecialty@UnitClass@@UAEHXZ
_TEXT	SEGMENT
_this$ = -4						; size = 4
?GetUnitSpecialty@UnitClass@@UAEHXZ PROC		; UnitClass::GetUnitSpecialty, COMDAT
; _this$ = ecx

; 491  : 	virtual int GetUnitSpecialty (void)							{ return 0; }

	push	ebp
	mov	ebp, esp
	push	ecx
	mov	DWORD PTR _this$[ebp], ecx
	xor	eax, eax
	mov	esp, ebp
	pop	ebp
	ret	0
?GetUnitSpecialty@UnitClass@@UAEHXZ ENDP		; UnitClass::GetUnitSpecialty
_TEXT	ENDS
; Function compile flags: /Odtp
; File c:\users\zhitao li\documents\visual studio 2012\projects\freefalcon\campaign\include\unit.h
;	COMDAT ?SetLastResupplyTime@UnitClass@@UAEXK@Z
_TEXT	SEGMENT
_this$ = -4						; size = 4
___formal$ = 8						; size = 4
?SetLastResupplyTime@UnitClass@@UAEXK@Z PROC		; UnitClass::SetLastResupplyTime, COMDAT
; _this$ = ecx

; 490  : 	virtual void SetLastResupplyTime (CampaignTime)			{}

	push	ebp
	mov	ebp, esp
	push	ecx
	mov	DWORD PTR _this$[ebp], ecx
	mov	esp, ebp
	pop	ebp
	ret	4
?SetLastResupplyTime@UnitClass@@UAEXK@Z ENDP		; UnitClass::SetLastResupplyTime
_TEXT	ENDS
; Function compile flags: /Odtp
; File c:\users\zhitao li\documents\visual studio 2012\projects\freefalcon\campaign\include\unit.h
;	COMDAT ?SetLastResupply@UnitClass@@UAEXH@Z
_TEXT	SEGMENT
_this$ = -4						; size = 4
___formal$ = 8						; size = 4
?SetLastResupply@UnitClass@@UAEXH@Z PROC		; UnitClass::SetLastResupply, COMDAT
; _this$ = ecx

; 489  : 	virtual void SetLastResupply (int)						{}

	push	ebp
	mov	ebp, esp
	push	ecx
	mov	DWORD PTR _this$[ebp], ecx
	mov	esp, ebp
	pop	ebp
	ret	4
?SetLastResupply@UnitClass@@UAEXH@Z ENDP		; UnitClass::SetLastResupply
_TEXT	ENDS
; Function compile flags: /Odtp
; File c:\users\zhitao li\documents\visual studio 2012\projects\freefalcon\campaign\include\unit.h
;	COMDAT ?SetUnitStores@UnitClass@@UAEXHE@Z
_TEXT	SEGMENT
_this$ = -4						; size = 4
___formal$ = 8						; size = 4
___formal$ = 12						; size = 1
?SetUnitStores@UnitClass@@UAEXHE@Z PROC			; UnitClass::SetUnitStores, COMDAT
; _this$ = ecx

; 488  : 	virtual void SetUnitStores (int, uchar)					{}

	push	ebp
	mov	ebp, esp
	push	ecx
	mov	DWORD PTR _this$[ebp], ecx
	mov	esp, ebp
	pop	ebp
	ret	8
?SetUnitStores@UnitClass@@UAEXHE@Z ENDP			; UnitClass::SetUnitStores
_TEXT	ENDS
; Function compile flags: /Odtp
; File c:\users\zhitao li\documents\visual studio 2012\projects\freefalcon\campaign\include\unit.h
;	COMDAT ?SetSquadronFuel@UnitClass@@UAEXJ@Z
_TEXT	SEGMENT
_this$ = -4						; size = 4
___formal$ = 8						; size = 4
?SetSquadronFuel@UnitClass@@UAEXJ@Z PROC		; UnitClass::SetSquadronFuel, COMDAT
; _this$ = ecx

; 487  : 	virtual void SetSquadronFuel (long)						{}

	push	ebp
	mov	ebp, esp
	push	ecx
	mov	DWORD PTR _this$[ebp], ecx
	mov	esp, ebp
	pop	ebp
	ret	4
?SetSquadronFuel@UnitClass@@UAEXJ@Z ENDP		; UnitClass::SetSquadronFuel
_TEXT	ENDS
; Function compile flags: /Odtp
; File c:\users\zhitao li\documents\visual studio 2012\projects\freefalcon\campaign\include\unit.h
;	COMDAT ?SetUnitMorale@UnitClass@@UAEXH@Z
_TEXT	SEGMENT
_this$ = -4						; size = 4
___formal$ = 8						; size = 4
?SetUnitMorale@UnitClass@@UAEXH@Z PROC			; UnitClass::SetUnitMorale, COMDAT
; _this$ = ecx

; 486  : 	virtual void SetUnitMorale (int)							{}

	push	ebp
	mov	ebp, esp
	push	ecx
	mov	DWORD PTR _this$[ebp], ecx
	mov	esp, ebp
	pop	ebp
	ret	4
?SetUnitMorale@UnitClass@@UAEXH@Z ENDP			; UnitClass::SetUnitMorale
_TEXT	ENDS
; Function compile flags: /Odtp
; File c:\users\zhitao li\documents\visual studio 2012\projects\freefalcon\campaign\include\unit.h
;	COMDAT ?SetUnitSupply@UnitClass@@UAEXH@Z
_TEXT	SEGMENT
_this$ = -4						; size = 4
___formal$ = 8						; size = 4
?SetUnitSupply@UnitClass@@UAEXH@Z PROC			; UnitClass::SetUnitSupply, COMDAT
; _this$ = ecx

; 485  : 	virtual void SetUnitSupply (int)							{}

	push	ebp
	mov	ebp, esp
	push	ecx
	mov	DWORD PTR _this$[ebp], ecx
	mov	esp, ebp
	pop	ebp
	ret	4
?SetUnitSupply@UnitClass@@UAEXH@Z ENDP			; UnitClass::SetUnitSupply
_TEXT	ENDS
; Function compile flags: /Odtp
; File c:\users\zhitao li\documents\visual studio 2012\projects\freefalcon\campaign\include\unit.h
;	COMDAT ?SetUnitSpecialty@UnitClass@@UAEXH@Z
_TEXT	SEGMENT
_this$ = -4						; size = 4
___formal$ = 8						; size = 4
?SetUnitSpecialty@UnitClass@@UAEXH@Z PROC		; UnitClass::SetUnitSpecialty, COMDAT
; _this$ = ecx

; 484  : 	virtual void SetUnitSpecialty (int)						{}

	push	ebp
	mov	ebp, esp
	push	ecx
	mov	DWORD PTR _this$[ebp], ecx
	mov	esp, ebp
	pop	ebp
	ret	4
?SetUnitSpecialty@UnitClass@@UAEXH@Z ENDP		; UnitClass::SetUnitSpecialty
_TEXT	ENDS
; Function compile flags: /Odtp
; File c:\users\zhitao li\documents\visual studio 2012\projects\freefalcon\campaign\include\unit.h
;	COMDAT ?UseFuel@UnitClass@@UAEXJ@Z
_TEXT	SEGMENT
_this$ = -4						; size = 4
___formal$ = 8						; size = 4
?UseFuel@UnitClass@@UAEXJ@Z PROC			; UnitClass::UseFuel, COMDAT
; _this$ = ecx

; 481  : 	virtual void UseFuel (long)							{}

	push	ebp
	mov	ebp, esp
	push	ecx
	mov	DWORD PTR _this$[ebp], ecx
	mov	esp, ebp
	pop	ebp
	ret	4
?UseFuel@UnitClass@@UAEXJ@Z ENDP			; UnitClass::UseFuel
_TEXT	ENDS
; Function compile flags: /Odtp
; File c:\users\zhitao li\documents\visual studio 2012\projects\freefalcon\campaign\include\unit.h
;	COMDAT ?IncrementTime@UnitClass@@UAEXK@Z
_TEXT	SEGMENT
_this$ = -4						; size = 4
___formal$ = 8						; size = 4
?IncrementTime@UnitClass@@UAEXK@Z PROC			; UnitClass::IncrementTime, COMDAT
; _this$ = ecx

; 480  : 	virtual void IncrementTime (CampaignTime) 				{}

	push	ebp
	mov	ebp, esp
	push	ecx
	mov	DWORD PTR _this$[ebp], ecx
	mov	esp, ebp
	pop	ebp
	ret	4
?IncrementTime@UnitClass@@UAEXK@Z ENDP			; UnitClass::IncrementTime
_TEXT	ENDS
; Function compile flags: /Odtp
; File c:\users\zhitao li\documents\visual studio 2012\projects\freefalcon\campaign\include\unit.h
;	COMDAT ?BuildMission@UnitClass@@UAEHPAVMissionRequestClass@@@Z
_TEXT	SEGMENT
_this$ = -4						; size = 4
___formal$ = 8						; size = 4
?BuildMission@UnitClass@@UAEHPAVMissionRequestClass@@@Z PROC ; UnitClass::BuildMission, COMDAT
; _this$ = ecx

; 479  : 	virtual int BuildMission(MissionRequestClass*)			{ return 0; }

	push	ebp
	mov	ebp, esp
	push	ecx
	mov	DWORD PTR _this$[ebp], ecx
	xor	eax, eax
	mov	esp, ebp
	pop	ebp
	ret	4
?BuildMission@UnitClass@@UAEHPAVMissionRequestClass@@@Z ENDP ; UnitClass::BuildMission
_TEXT	ENDS
; Function compile flags: /Odtp
; File c:\users\zhitao li\documents\visual studio 2012\projects\freefalcon\campaign\include\unit.h
;	COMDAT ?GetKnownEmitters@UnitClass@@UAEPAVFalconPrivateList@@XZ
_TEXT	SEGMENT
_this$ = -4						; size = 4
?GetKnownEmitters@UnitClass@@UAEPAVFalconPrivateList@@XZ PROC ; UnitClass::GetKnownEmitters, COMDAT
; _this$ = ecx

; 478  : 	virtual F4PFList GetKnownEmitters (void)					{ return NULL; }

	push	ebp
	mov	ebp, esp
	push	ecx
	mov	DWORD PTR _this$[ebp], ecx
	xor	eax, eax
	mov	esp, ebp
	pop	ebp
	ret	0
?GetKnownEmitters@UnitClass@@UAEPAVFalconPrivateList@@XZ ENDP ; UnitClass::GetKnownEmitters
_TEXT	ENDS
; Function compile flags: /Odtp
; File c:\users\zhitao li\documents\visual studio 2012\projects\freefalcon\campaign\include\unit.h
;	COMDAT ?ETA@UnitClass@@UAEKXZ
_TEXT	SEGMENT
_this$ = -4						; size = 4
?ETA@UnitClass@@UAEKXZ PROC				; UnitClass::ETA, COMDAT
; _this$ = ecx

; 477  : 	virtual CampaignTime ETA (void)								{ return 0; }

	push	ebp
	mov	ebp, esp
	push	ecx
	mov	DWORD PTR _this$[ebp], ecx
	xor	eax, eax
	mov	esp, ebp
	pop	ebp
	ret	0
?ETA@UnitClass@@UAEKXZ ENDP				; UnitClass::ETA
_TEXT	ENDS
; Function compile flags: /Odtp
; File c:\users\zhitao li\documents\visual studio 2012\projects\freefalcon\campaign\include\unit.h
;	COMDAT ?DumpWeapons@UnitClass@@UAEHXZ
_TEXT	SEGMENT
_this$ = -4						; size = 4
?DumpWeapons@UnitClass@@UAEHXZ PROC			; UnitClass::DumpWeapons, COMDAT
; _this$ = ecx

; 476  : 	virtual int DumpWeapons (void)								{ return 0; }

	push	ebp
	mov	ebp, esp
	push	ecx
	mov	DWORD PTR _this$[ebp], ecx
	xor	eax, eax
	mov	esp, ebp
	pop	ebp
	ret	0
?DumpWeapons@UnitClass@@UAEHXZ ENDP			; UnitClass::DumpWeapons
_TEXT	ENDS
; Function compile flags: /Odtp
; File c:\users\zhitao li\documents\visual studio 2012\projects\freefalcon\campaign\include\unit.h
;	COMDAT ?LoadWeapons@UnitClass@@UAEHPAXPAEW4MoveType@@HHH@Z
_TEXT	SEGMENT
_this$ = -4						; size = 4
___formal$ = 8						; size = 4
___formal$ = 12						; size = 4
___formal$ = 16						; size = 4
___formal$ = 20						; size = 4
___formal$ = 24						; size = 4
___formal$ = 28						; size = 4
?LoadWeapons@UnitClass@@UAEHPAXPAEW4MoveType@@HHH@Z PROC ; UnitClass::LoadWeapons, COMDAT
; _this$ = ecx

; 475  : 	virtual int LoadWeapons (void*, uchar*, MoveType, int, int, int)	{ return 0; }

	push	ebp
	mov	ebp, esp
	push	ecx
	mov	DWORD PTR _this$[ebp], ecx
	xor	eax, eax
	mov	esp, ebp
	pop	ebp
	ret	24					; 00000018H
?LoadWeapons@UnitClass@@UAEHPAXPAEW4MoveType@@HHH@Z ENDP ; UnitClass::LoadWeapons
_TEXT	ENDS
; Function compile flags: /Odtp
; File c:\users\zhitao li\documents\visual studio 2012\projects\freefalcon\campaign\include\unit.h
;	COMDAT ?GetUnitAirbaseID@UnitClass@@UAE?AVVU_ID@@XZ
_TEXT	SEGMENT
_this$ = -4						; size = 4
___$ReturnUdt$ = 8					; size = 4
?GetUnitAirbaseID@UnitClass@@UAE?AVVU_ID@@XZ PROC	; UnitClass::GetUnitAirbaseID, COMDAT
; _this$ = ecx

; 474  : 	virtual VU_ID GetUnitAirbaseID (void)						{ return FalconNullId; }

	push	ebp
	mov	ebp, esp
	push	ecx
	mov	DWORD PTR _this$[ebp], ecx
	mov	eax, DWORD PTR ___$ReturnUdt$[ebp]
	mov	ecx, DWORD PTR ?FalconNullId@@3VVU_ID@@A
	mov	DWORD PTR [eax], ecx
	mov	edx, DWORD PTR ?FalconNullId@@3VVU_ID@@A+4
	mov	DWORD PTR [eax+4], edx
	mov	eax, DWORD PTR ___$ReturnUdt$[ebp]
	mov	esp, ebp
	pop	ebp
	ret	4
?GetUnitAirbaseID@UnitClass@@UAE?AVVU_ID@@XZ ENDP	; UnitClass::GetUnitAirbaseID
_TEXT	ENDS
; Function compile flags: /Odtp
; File c:\users\zhitao li\documents\visual studio 2012\projects\freefalcon\campaign\include\unit.h
;	COMDAT ?GetUnitAirbase@UnitClass@@UAEPAVCampBaseClass@@XZ
_TEXT	SEGMENT
_this$ = -4						; size = 4
?GetUnitAirbase@UnitClass@@UAEPAVCampBaseClass@@XZ PROC	; UnitClass::GetUnitAirbase, COMDAT
; _this$ = ecx

; 473  : 	virtual CampEntity GetUnitAirbase (void)					{ return NULL; }

	push	ebp
	mov	ebp, esp
	push	ecx
	mov	DWORD PTR _this$[ebp], ecx
	xor	eax, eax
	mov	esp, ebp
	pop	ebp
	ret	0
?GetUnitAirbase@UnitClass@@UAEPAVCampBaseClass@@XZ ENDP	; UnitClass::GetUnitAirbase
_TEXT	ENDS
; Function compile flags: /Odtp
; File c:\users\zhitao li\documents\visual studio 2012\projects\freefalcon\campaign\include\unit.h
;	COMDAT ?GetUnitSquadronID@UnitClass@@UAE?AVVU_ID@@XZ
_TEXT	SEGMENT
_this$ = -4						; size = 4
___$ReturnUdt$ = 8					; size = 4
?GetUnitSquadronID@UnitClass@@UAE?AVVU_ID@@XZ PROC	; UnitClass::GetUnitSquadronID, COMDAT
; _this$ = ecx

; 472  : 	virtual VU_ID GetUnitSquadronID (void)						{ return FalconNullId; }

	push	ebp
	mov	ebp, esp
	push	ecx
	mov	DWORD PTR _this$[ebp], ecx
	mov	eax, DWORD PTR ___$ReturnUdt$[ebp]
	mov	ecx, DWORD PTR ?FalconNullId@@3VVU_ID@@A
	mov	DWORD PTR [eax], ecx
	mov	edx, DWORD PTR ?FalconNullId@@3VVU_ID@@A+4
	mov	DWORD PTR [eax+4], edx
	mov	eax, DWORD PTR ___$ReturnUdt$[ebp]
	mov	esp, ebp
	pop	ebp
	ret	4
?GetUnitSquadronID@UnitClass@@UAE?AVVU_ID@@XZ ENDP	; UnitClass::GetUnitSquadronID
_TEXT	ENDS
; Function compile flags: /Odtp
; File c:\users\zhitao li\documents\visual studio 2012\projects\freefalcon\campaign\include\unit.h
;	COMDAT ?GetUnitSquadron@UnitClass@@UAEPAV1@XZ
_TEXT	SEGMENT
_this$ = -4						; size = 4
?GetUnitSquadron@UnitClass@@UAEPAV1@XZ PROC		; UnitClass::GetUnitSquadron, COMDAT
; _this$ = ecx

; 471  : 	virtual Unit GetUnitSquadron (void)							{ return NULL; }

	push	ebp
	mov	ebp, esp
	push	ecx
	mov	DWORD PTR _this$[ebp], ecx
	xor	eax, eax
	mov	esp, ebp
	pop	ebp
	ret	0
?GetUnitSquadron@UnitClass@@UAEPAV1@XZ ENDP		; UnitClass::GetUnitSquadron
_TEXT	ENDS
; Function compile flags: /Odtp
; File c:\users\zhitao li\documents\visual studio 2012\projects\freefalcon\campaign\include\unit.h
;	COMDAT ?GetUnitTOT@UnitClass@@UAEKXZ
_TEXT	SEGMENT
_this$ = -4						; size = 4
?GetUnitTOT@UnitClass@@UAEKXZ PROC			; UnitClass::GetUnitTOT, COMDAT
; _this$ = ecx

; 470  : 	virtual CampaignTime GetUnitTOT (void)						{ return 0; }

	push	ebp
	mov	ebp, esp
	push	ecx
	mov	DWORD PTR _this$[ebp], ecx
	xor	eax, eax
	mov	esp, ebp
	pop	ebp
	ret	0
?GetUnitTOT@UnitClass@@UAEKXZ ENDP			; UnitClass::GetUnitTOT
_TEXT	ENDS
; Function compile flags: /Odtp
; File c:\users\zhitao li\documents\visual studio 2012\projects\freefalcon\campaign\include\unit.h
;	COMDAT ?GetUnitMissionID@UnitClass@@UAEHXZ
_TEXT	SEGMENT
_this$ = -4						; size = 4
?GetUnitMissionID@UnitClass@@UAEHXZ PROC		; UnitClass::GetUnitMissionID, COMDAT
; _this$ = ecx

; 469  : 	virtual int GetUnitMissionID (void)							{ return 0; }

	push	ebp
	mov	ebp, esp
	push	ecx
	mov	DWORD PTR _this$[ebp], ecx
	xor	eax, eax
	mov	esp, ebp
	pop	ebp
	ret	0
?GetUnitMissionID@UnitClass@@UAEHXZ ENDP		; UnitClass::GetUnitMissionID
_TEXT	ENDS
; Function compile flags: /Odtp
; File c:\users\zhitao li\documents\visual studio 2012\projects\freefalcon\campaign\include\unit.h
;	COMDAT ?GetUnitMissionTargetID@UnitClass@@UAE?AVVU_ID@@XZ
_TEXT	SEGMENT
_this$ = -4						; size = 4
___$ReturnUdt$ = 8					; size = 4
?GetUnitMissionTargetID@UnitClass@@UAE?AVVU_ID@@XZ PROC	; UnitClass::GetUnitMissionTargetID, COMDAT
; _this$ = ecx

; 468  : 	virtual VU_ID GetUnitMissionTargetID (void)					{ return FalconNullId; }

	push	ebp
	mov	ebp, esp
	push	ecx
	mov	DWORD PTR _this$[ebp], ecx
	mov	eax, DWORD PTR ___$ReturnUdt$[ebp]
	mov	ecx, DWORD PTR ?FalconNullId@@3VVU_ID@@A
	mov	DWORD PTR [eax], ecx
	mov	edx, DWORD PTR ?FalconNullId@@3VVU_ID@@A+4
	mov	DWORD PTR [eax+4], edx
	mov	eax, DWORD PTR ___$ReturnUdt$[ebp]
	mov	esp, ebp
	pop	ebp
	ret	4
?GetUnitMissionTargetID@UnitClass@@UAE?AVVU_ID@@XZ ENDP	; UnitClass::GetUnitMissionTargetID
_TEXT	ENDS
; Function compile flags: /Odtp
; File c:\users\zhitao li\documents\visual studio 2012\projects\freefalcon\campaign\include\unit.h
;	COMDAT ?GetUnitMissionTarget@UnitClass@@UAEPAVCampBaseClass@@XZ
_TEXT	SEGMENT
_this$ = -4						; size = 4
?GetUnitMissionTarget@UnitClass@@UAEPAVCampBaseClass@@XZ PROC ; UnitClass::GetUnitMissionTarget, COMDAT
; _this$ = ecx

; 467  : 	virtual CampEntity GetUnitMissionTarget (void)				{ return NULL; }

	push	ebp
	mov	ebp, esp
	push	ecx
	mov	DWORD PTR _this$[ebp], ecx
	xor	eax, eax
	mov	esp, ebp
	pop	ebp
	ret	0
?GetUnitMissionTarget@UnitClass@@UAEPAVCampBaseClass@@XZ ENDP ; UnitClass::GetUnitMissionTarget
_TEXT	ENDS
; Function compile flags: /Odtp
; File c:\users\zhitao li\documents\visual studio 2012\projects\freefalcon\campaign\include\unit.h
;	COMDAT ?GetUnitPriority@UnitClass@@UAEHXZ
_TEXT	SEGMENT
_this$ = -4						; size = 4
?GetUnitPriority@UnitClass@@UAEHXZ PROC			; UnitClass::GetUnitPriority, COMDAT
; _this$ = ecx

; 466  : 	virtual int GetUnitPriority (void)							{ return 0; }

	push	ebp
	mov	ebp, esp
	push	ecx
	mov	DWORD PTR _this$[ebp], ecx
	xor	eax, eax
	mov	esp, ebp
	pop	ebp
	ret	0
?GetUnitPriority@UnitClass@@UAEHXZ ENDP			; UnitClass::GetUnitPriority
_TEXT	ENDS
; Function compile flags: /Odtp
; File c:\users\zhitao li\documents\visual studio 2012\projects\freefalcon\campaign\include\unit.h
;	COMDAT ?GetUnitCurrentRole@UnitClass@@UBEHXZ
_TEXT	SEGMENT
_this$ = -4						; size = 4
?GetUnitCurrentRole@UnitClass@@UBEHXZ PROC		; UnitClass::GetUnitCurrentRole, COMDAT
; _this$ = ecx

; 465  : 	virtual int GetUnitCurrentRole() const						{ return 0; }

	push	ebp
	mov	ebp, esp
	push	ecx
	mov	DWORD PTR _this$[ebp], ecx
	xor	eax, eax
	mov	esp, ebp
	pop	ebp
	ret	0
?GetUnitCurrentRole@UnitClass@@UBEHXZ ENDP		; UnitClass::GetUnitCurrentRole
_TEXT	ENDS
; Function compile flags: /Odtp
; File c:\users\zhitao li\documents\visual studio 2012\projects\freefalcon\campaign\include\unit.h
;	COMDAT ?GetUnitNormalRole@UnitClass@@UAEHXZ
_TEXT	SEGMENT
_this$ = -4						; size = 4
?GetUnitNormalRole@UnitClass@@UAEHXZ PROC		; UnitClass::GetUnitNormalRole, COMDAT
; _this$ = ecx

; 464  : 	virtual int GetUnitNormalRole (void)						{ return 0; }

	push	ebp
	mov	ebp, esp
	push	ecx
	mov	DWORD PTR _this$[ebp], ecx
	xor	eax, eax
	mov	esp, ebp
	pop	ebp
	ret	0
?GetUnitNormalRole@UnitClass@@UAEHXZ ENDP		; UnitClass::GetUnitNormalRole
_TEXT	ENDS
; Function compile flags: /Odtp
; File c:\users\zhitao li\documents\visual studio 2012\projects\freefalcon\campaign\include\unit.h
;	COMDAT ?GetUnitMission@UnitClass@@UAE?AW4MissionTypeEnum@@XZ
_TEXT	SEGMENT
_this$ = -4						; size = 4
?GetUnitMission@UnitClass@@UAE?AW4MissionTypeEnum@@XZ PROC ; UnitClass::GetUnitMission, COMDAT
; _this$ = ecx

; 463  : 	virtual MissionTypeEnum GetUnitMission (void)							{ return (MissionTypeEnum)0; }

	push	ebp
	mov	ebp, esp
	push	ecx
	mov	DWORD PTR _this$[ebp], ecx
	xor	eax, eax
	mov	esp, ebp
	pop	ebp
	ret	0
?GetUnitMission@UnitClass@@UAE?AW4MissionTypeEnum@@XZ ENDP ; UnitClass::GetUnitMission
_TEXT	ENDS
; Function compile flags: /Odtp
; File c:\users\zhitao li\documents\visual studio 2012\projects\freefalcon\campaign\include\unit.h
;	COMDAT ?GetBurntFuel@UnitClass@@UAEHXZ
_TEXT	SEGMENT
_this$ = -4						; size = 4
?GetBurntFuel@UnitClass@@UAEHXZ PROC			; UnitClass::GetBurntFuel, COMDAT
; _this$ = ecx

; 462  : 	virtual int GetBurntFuel (void)								{ return 0; }

	push	ebp
	mov	ebp, esp
	push	ecx
	mov	DWORD PTR _this$[ebp], ecx
	xor	eax, eax
	mov	esp, ebp
	pop	ebp
	ret	0
?GetBurntFuel@UnitClass@@UAEHXZ ENDP			; UnitClass::GetBurntFuel
_TEXT	ENDS
; Function compile flags: /Odtp
; File c:\users\zhitao li\documents\visual studio 2012\projects\freefalcon\campaign\include\unit.h
;	COMDAT ?GetAirTarget@UnitClass@@UAEPAVFalconEntity@@XZ
_TEXT	SEGMENT
_this$ = -4						; size = 4
?GetAirTarget@UnitClass@@UAEPAVFalconEntity@@XZ PROC	; UnitClass::GetAirTarget, COMDAT
; _this$ = ecx

; 461  : 	virtual FalconEntity* GetAirTarget (void)					{ return NULL; }

	push	ebp
	mov	ebp, esp
	push	ecx
	mov	DWORD PTR _this$[ebp], ecx
	xor	eax, eax
	mov	esp, ebp
	pop	ebp
	ret	0
?GetAirTarget@UnitClass@@UAEPAVFalconEntity@@XZ ENDP	; UnitClass::GetAirTarget
_TEXT	ENDS
; Function compile flags: /Odtp
; File c:\users\zhitao li\documents\visual studio 2012\projects\freefalcon\campaign\include\unit.h
;	COMDAT ?GetAirTargetID@UnitClass@@UAE?AVVU_ID@@XZ
_TEXT	SEGMENT
_this$ = -4						; size = 4
___$ReturnUdt$ = 8					; size = 4
?GetAirTargetID@UnitClass@@UAE?AVVU_ID@@XZ PROC		; UnitClass::GetAirTargetID, COMDAT
; _this$ = ecx

; 460  : 	virtual VU_ID GetAirTargetID (void)							{ return FalconNullId; }

	push	ebp
	mov	ebp, esp
	push	ecx
	mov	DWORD PTR _this$[ebp], ecx
	mov	eax, DWORD PTR ___$ReturnUdt$[ebp]
	mov	ecx, DWORD PTR ?FalconNullId@@3VVU_ID@@A
	mov	DWORD PTR [eax], ecx
	mov	edx, DWORD PTR ?FalconNullId@@3VVU_ID@@A+4
	mov	DWORD PTR [eax+4], edx
	mov	eax, DWORD PTR ___$ReturnUdt$[ebp]
	mov	esp, ebp
	pop	ebp
	ret	4
?GetAirTargetID@UnitClass@@UAE?AVVU_ID@@XZ ENDP		; UnitClass::GetAirTargetID
_TEXT	ENDS
; Function compile flags: /Odtp
; File c:\users\zhitao li\documents\visual studio 2012\projects\freefalcon\campaign\include\unit.h
;	COMDAT ?GetCombatTime@UnitClass@@UAEKXZ
_TEXT	SEGMENT
_this$ = -4						; size = 4
?GetCombatTime@UnitClass@@UAEKXZ PROC			; UnitClass::GetCombatTime, COMDAT
; _this$ = ecx

; 459  : 	virtual CampaignTime GetCombatTime (void)					{ return 0; }

	push	ebp
	mov	ebp, esp
	push	ecx
	mov	DWORD PTR _this$[ebp], ecx
	xor	eax, eax
	mov	esp, ebp
	pop	ebp
	ret	0
?GetCombatTime@UnitClass@@UAEKXZ ENDP			; UnitClass::GetCombatTime
_TEXT	ENDS
; Function compile flags: /Odtp
; File c:\users\zhitao li\documents\visual studio 2012\projects\freefalcon\campaign\include\unit.h
;	COMDAT ?GetMoveTime@UnitClass@@UAEKXZ
_TEXT	SEGMENT
_this$ = -4						; size = 4
?GetMoveTime@UnitClass@@UAEKXZ PROC			; UnitClass::GetMoveTime, COMDAT
; _this$ = ecx

; 458  : 	virtual CampaignTime GetMoveTime (void)						{ return TheCampaign.CurrentTime - last_check; }

	push	ebp
	mov	ebp, esp
	push	ecx
	mov	DWORD PTR _this$[ebp], ecx
	mov	eax, DWORD PTR _this$[ebp]
	mov	ecx, DWORD PTR ?TheCampaign@@3VCampaignClass@@A
	sub	ecx, DWORD PTR [eax+184]
	mov	eax, ecx
	mov	esp, ebp
	pop	ebp
	ret	0
?GetMoveTime@UnitClass@@UAEKXZ ENDP			; UnitClass::GetMoveTime
_TEXT	ENDS
; Function compile flags: /Odtp
; File c:\users\zhitao li\documents\visual studio 2012\projects\freefalcon\campaign\include\unit.h
;	COMDAT ?GetNumberOfLoadouts@UnitClass@@UAEHXZ
_TEXT	SEGMENT
_this$ = -4						; size = 4
?GetNumberOfLoadouts@UnitClass@@UAEHXZ PROC		; UnitClass::GetNumberOfLoadouts, COMDAT
; _this$ = ecx

; 457  : 	virtual int GetNumberOfLoadouts (void)						{ return 0; }

	push	ebp
	mov	ebp, esp
	push	ecx
	mov	DWORD PTR _this$[ebp], ecx
	xor	eax, eax
	mov	esp, ebp
	pop	ebp
	ret	0
?GetNumberOfLoadouts@UnitClass@@UAEHXZ ENDP		; UnitClass::GetNumberOfLoadouts
_TEXT	ENDS
; Function compile flags: /Odtp
; File c:\users\zhitao li\documents\visual studio 2012\projects\freefalcon\campaign\include\unit.h
;	COMDAT ?SetLoadout@UnitClass@@UAEXPAULoadoutStruct@@H@Z
_TEXT	SEGMENT
_this$ = -4						; size = 4
___formal$ = 8						; size = 4
___formal$ = 12						; size = 4
?SetLoadout@UnitClass@@UAEXPAULoadoutStruct@@H@Z PROC	; UnitClass::SetLoadout, COMDAT
; _this$ = ecx

; 456  : 	virtual void SetLoadout (LoadoutStruct*, int)	{ ShiWarning("Shouldn't be here"); }

	push	ebp
	mov	ebp, esp
	push	ecx
	mov	DWORD PTR _this$[ebp], ecx
	mov	esp, ebp
	pop	ebp
	ret	8
?SetLoadout@UnitClass@@UAEXPAULoadoutStruct@@H@Z ENDP	; UnitClass::SetLoadout
_TEXT	ENDS
; Function compile flags: /Odtp
; File c:\users\zhitao li\documents\visual studio 2012\projects\freefalcon\campaign\include\unit.h
;	COMDAT ?SetUnitAirbase@UnitClass@@UAEXVVU_ID@@@Z
_TEXT	SEGMENT
_this$ = -4						; size = 4
___formal$ = 8						; size = 8
?SetUnitAirbase@UnitClass@@UAEXVVU_ID@@@Z PROC		; UnitClass::SetUnitAirbase, COMDAT
; _this$ = ecx

; 455  : 	virtual void SetUnitAirbase (VU_ID)						{}

	push	ebp
	mov	ebp, esp
	push	ecx
	mov	DWORD PTR _this$[ebp], ecx
	mov	esp, ebp
	pop	ebp
	ret	8
?SetUnitAirbase@UnitClass@@UAEXVVU_ID@@@Z ENDP		; UnitClass::SetUnitAirbase
_TEXT	ENDS
; Function compile flags: /Odtp
; File c:\users\zhitao li\documents\visual studio 2012\projects\freefalcon\campaign\include\unit.h
;	COMDAT ?SetUnitSquadron@UnitClass@@UAEXVVU_ID@@@Z
_TEXT	SEGMENT
_this$ = -4						; size = 4
___formal$ = 8						; size = 8
?SetUnitSquadron@UnitClass@@UAEXVVU_ID@@@Z PROC		; UnitClass::SetUnitSquadron, COMDAT
; _this$ = ecx

; 454  : 	virtual void SetUnitSquadron (VU_ID)						{}

	push	ebp
	mov	ebp, esp
	push	ecx
	mov	DWORD PTR _this$[ebp], ecx
	mov	esp, ebp
	pop	ebp
	ret	8
?SetUnitSquadron@UnitClass@@UAEXVVU_ID@@@Z ENDP		; UnitClass::SetUnitSquadron
_TEXT	ENDS
; Function compile flags: /Odtp
; File c:\users\zhitao li\documents\visual studio 2012\projects\freefalcon\campaign\include\unit.h
;	COMDAT ?SetUnitTOT@UnitClass@@UAEXK@Z
_TEXT	SEGMENT
_this$ = -4						; size = 4
___formal$ = 8						; size = 4
?SetUnitTOT@UnitClass@@UAEXK@Z PROC			; UnitClass::SetUnitTOT, COMDAT
; _this$ = ecx

; 453  : 	virtual void SetUnitTOT (CampaignTime)					{}

	push	ebp
	mov	ebp, esp
	push	ecx
	mov	DWORD PTR _this$[ebp], ecx
	mov	esp, ebp
	pop	ebp
	ret	4
?SetUnitTOT@UnitClass@@UAEXK@Z ENDP			; UnitClass::SetUnitTOT
_TEXT	ENDS
; Function compile flags: /Odtp
; File c:\users\zhitao li\documents\visual studio 2012\projects\freefalcon\campaign\include\unit.h
;	COMDAT ?SetUnitMissionTarget@UnitClass@@UAEXH@Z
_TEXT	SEGMENT
_this$ = -4						; size = 4
___formal$ = 8						; size = 4
?SetUnitMissionTarget@UnitClass@@UAEXH@Z PROC		; UnitClass::SetUnitMissionTarget, COMDAT
; _this$ = ecx

; 452  : 	virtual void SetUnitMissionTarget (int)					{}

	push	ebp
	mov	ebp, esp
	push	ecx
	mov	DWORD PTR _this$[ebp], ecx
	mov	esp, ebp
	pop	ebp
	ret	4
?SetUnitMissionTarget@UnitClass@@UAEXH@Z ENDP		; UnitClass::SetUnitMissionTarget
_TEXT	ENDS
; Function compile flags: /Odtp
; File c:\users\zhitao li\documents\visual studio 2012\projects\freefalcon\campaign\include\unit.h
;	COMDAT ?SetUnitMissionID@UnitClass@@UAEXH@Z
_TEXT	SEGMENT
_this$ = -4						; size = 4
___formal$ = 8						; size = 4
?SetUnitMissionID@UnitClass@@UAEXH@Z PROC		; UnitClass::SetUnitMissionID, COMDAT
; _this$ = ecx

; 451  : 	virtual void SetUnitMissionID (int)						{}

	push	ebp
	mov	ebp, esp
	push	ecx
	mov	DWORD PTR _this$[ebp], ecx
	mov	esp, ebp
	pop	ebp
	ret	4
?SetUnitMissionID@UnitClass@@UAEXH@Z ENDP		; UnitClass::SetUnitMissionID
_TEXT	ENDS
; Function compile flags: /Odtp
; File c:\users\zhitao li\documents\visual studio 2012\projects\freefalcon\campaign\include\unit.h
;	COMDAT ?SetUnitPriority@UnitClass@@UAEXH@Z
_TEXT	SEGMENT
_this$ = -4						; size = 4
___formal$ = 8						; size = 4
?SetUnitPriority@UnitClass@@UAEXH@Z PROC		; UnitClass::SetUnitPriority, COMDAT
; _this$ = ecx

; 450  : 	virtual void SetUnitPriority (int)						{}

	push	ebp
	mov	ebp, esp
	push	ecx
	mov	DWORD PTR _this$[ebp], ecx
	mov	esp, ebp
	pop	ebp
	ret	4
?SetUnitPriority@UnitClass@@UAEXH@Z ENDP		; UnitClass::SetUnitPriority
_TEXT	ENDS
; Function compile flags: /Odtp
; File c:\users\zhitao li\documents\visual studio 2012\projects\freefalcon\campaign\include\unit.h
;	COMDAT ?SetUnitRole@UnitClass@@UAEXE@Z
_TEXT	SEGMENT
_this$ = -4						; size = 4
___formal$ = 8						; size = 1
?SetUnitRole@UnitClass@@UAEXE@Z PROC			; UnitClass::SetUnitRole, COMDAT
; _this$ = ecx

; 449  : 	virtual void SetUnitRole (uchar)							{}

	push	ebp
	mov	ebp, esp
	push	ecx
	mov	DWORD PTR _this$[ebp], ecx
	mov	esp, ebp
	pop	ebp
	ret	4
?SetUnitRole@UnitClass@@UAEXE@Z ENDP			; UnitClass::SetUnitRole
_TEXT	ENDS
; Function compile flags: /Odtp
; File c:\users\zhitao li\documents\visual studio 2012\projects\freefalcon\campaign\include\unit.h
;	COMDAT ?SetUnitMission@UnitClass@@UAEXE@Z
_TEXT	SEGMENT
_this$ = -4						; size = 4
___formal$ = 8						; size = 1
?SetUnitMission@UnitClass@@UAEXE@Z PROC			; UnitClass::SetUnitMission, COMDAT
; _this$ = ecx

; 448  : 	virtual void SetUnitMission (uchar)						{}			

	push	ebp
	mov	ebp, esp
	push	ecx
	mov	DWORD PTR _this$[ebp], ecx
	mov	esp, ebp
	pop	ebp
	ret	4
?SetUnitMission@UnitClass@@UAEXE@Z ENDP			; UnitClass::SetUnitMission
_TEXT	ENDS
; Function compile flags: /Odtp
; File c:\users\zhitao li\documents\visual studio 2012\projects\freefalcon\campaign\include\unit.h
;	COMDAT ?SetBurntFuel@UnitClass@@UAEXJ@Z
_TEXT	SEGMENT
_this$ = -4						; size = 4
___formal$ = 8						; size = 4
?SetBurntFuel@UnitClass@@UAEXJ@Z PROC			; UnitClass::SetBurntFuel, COMDAT
; _this$ = ecx

; 447  : 	virtual void SetBurntFuel (long)						{}

	push	ebp
	mov	ebp, esp
	push	ecx
	mov	DWORD PTR _this$[ebp], ecx
	mov	esp, ebp
	pop	ebp
	ret	4
?SetBurntFuel@UnitClass@@UAEXJ@Z ENDP			; UnitClass::SetBurntFuel
_TEXT	ENDS
; Function compile flags: /Odtp
; File c:\users\zhitao li\documents\visual studio 2012\projects\freefalcon\campaign\include\unit.h
;	COMDAT ?SetCombatTime@UnitClass@@UAEXK@Z
_TEXT	SEGMENT
_this$ = -4						; size = 4
___formal$ = 8						; size = 4
?SetCombatTime@UnitClass@@UAEXK@Z PROC			; UnitClass::SetCombatTime, COMDAT
; _this$ = ecx

; 446  : 	virtual void SetCombatTime (CampaignTime)					{}

	push	ebp
	mov	ebp, esp
	push	ecx
	mov	DWORD PTR _this$[ebp], ecx
	mov	esp, ebp
	pop	ebp
	ret	4
?SetCombatTime@UnitClass@@UAEXK@Z ENDP			; UnitClass::SetCombatTime
_TEXT	ENDS
; Function compile flags: /Odtp
; File c:\users\zhitao li\documents\visual studio 2012\projects\freefalcon\campaign\include\unit.h
;	COMDAT ?SetUnitLastMove@UnitClass@@UAEXK@Z
_TEXT	SEGMENT
_this$ = -4						; size = 4
___formal$ = 8						; size = 4
?SetUnitLastMove@UnitClass@@UAEXK@Z PROC		; UnitClass::SetUnitLastMove, COMDAT
; _this$ = ecx

; 445  : 	virtual void SetUnitLastMove (CampaignTime)				{}

	push	ebp
	mov	ebp, esp
	push	ecx
	mov	DWORD PTR _this$[ebp], ecx
	mov	esp, ebp
	pop	ebp
	ret	4
?SetUnitLastMove@UnitClass@@UAEXK@Z ENDP		; UnitClass::SetUnitLastMove
_TEXT	ENDS
; Function compile flags: /Odtp
; File c:\users\zhitao li\documents\visual studio 2012\projects\freefalcon\campaign\include\unit.h
;	COMDAT ?GetUnitTactic@UnitClass@@QBEHXZ
_TEXT	SEGMENT
_this$ = -4						; size = 4
?GetUnitTactic@UnitClass@@QBEHXZ PROC			; UnitClass::GetUnitTactic, COMDAT
; _this$ = ecx

; 375  : 	int GetUnitTactic() const						{ return tactic; }

	push	ebp
	mov	ebp, esp
	push	ecx
	mov	DWORD PTR _this$[ebp], ecx
	mov	eax, DWORD PTR _this$[ebp]
	movzx	eax, BYTE PTR [eax+222]
	mov	esp, ebp
	pop	ebp
	ret	0
?GetUnitTactic@UnitClass@@QBEHXZ ENDP			; UnitClass::GetUnitTactic
_TEXT	ENDS
; Function compile flags: /Odtp
; File c:\users\zhitao li\documents\visual studio 2012\projects\freefalcon\campaign\include\unit.h
;	COMDAT ?GetRealPosition@UnitClass@@UAEXPAM00@Z
_TEXT	SEGMENT
_this$ = -4						; size = 4
___formal$ = 8						; size = 4
___formal$ = 12						; size = 4
___formal$ = 16						; size = 4
?GetRealPosition@UnitClass@@UAEXPAM00@Z PROC		; UnitClass::GetRealPosition, COMDAT
; _this$ = ecx

; 347  : 	virtual void GetRealPosition (float*, float*, float*) {}

	push	ebp
	mov	ebp, esp
	push	ecx
	mov	DWORD PTR _this$[ebp], ecx
	mov	esp, ebp
	pop	ebp
	ret	12					; 0000000cH
?GetRealPosition@UnitClass@@UAEXPAM00@Z ENDP		; UnitClass::GetRealPosition
_TEXT	ENDS
; Function compile flags: /Odtp
; File c:\users\zhitao li\documents\visual studio 2012\projects\freefalcon\campaign\include\unit.h
;	COMDAT ?SimSetOrientation@UnitClass@@UAEXMMM@Z
_TEXT	SEGMENT
_this$ = -4						; size = 4
___formal$ = 8						; size = 4
___formal$ = 12						; size = 4
___formal$ = 16						; size = 4
?SimSetOrientation@UnitClass@@UAEXMMM@Z PROC		; UnitClass::SimSetOrientation, COMDAT
; _this$ = ecx

; 346  : 	virtual void SimSetOrientation (float, float, float) {}

	push	ebp
	mov	ebp, esp
	push	ecx
	mov	DWORD PTR _this$[ebp], ecx
	mov	esp, ebp
	pop	ebp
	ret	12					; 0000000cH
?SimSetOrientation@UnitClass@@UAEXMMM@Z ENDP		; UnitClass::SimSetOrientation
_TEXT	ENDS
; Function compile flags: /Odtp
; File c:\users\zhitao li\documents\visual studio 2012\projects\freefalcon\campaign\include\unit.h
;	COMDAT ?SimSetLocation@UnitClass@@UAEXMMM@Z
_TEXT	SEGMENT
_this$ = -4						; size = 4
_x$ = 8							; size = 4
_y$ = 12						; size = 4
_z$ = 16						; size = 4
?SimSetLocation@UnitClass@@UAEXMMM@Z PROC		; UnitClass::SimSetLocation, COMDAT
; _this$ = ecx

; 344  : 	virtual void SimSetLocation (float x, float y, float z)	{ SetPosition(x,y,z); MakeCampBaseDirty (DIRTY_POSITION, DDP[182].priority); MakeCampBaseDirty (DIRTY_ALTITUDE, DDP[183].priority); }

	push	ebp
	mov	ebp, esp
	push	ecx
	mov	DWORD PTR _this$[ebp], ecx
	push	ecx
	movss	xmm0, DWORD PTR _z$[ebp]
	movss	DWORD PTR [esp], xmm0
	push	ecx
	movss	xmm0, DWORD PTR _y$[ebp]
	movss	DWORD PTR [esp], xmm0
	push	ecx
	movss	xmm0, DWORD PTR _x$[ebp]
	movss	DWORD PTR [esp], xmm0
	mov	ecx, DWORD PTR _this$[ebp]
	call	?SetPosition@VuEntity@@QAEXMMM@Z	; VuEntity::SetPosition
	mov	eax, 4
	imul	eax, 182				; 000000b6H
	mov	ecx, DWORD PTR ?DDP@@3PAUDirtyDataClassType@@A ; DDP
	mov	edx, DWORD PTR [ecx+eax]
	push	edx
	push	1
	mov	ecx, DWORD PTR _this$[ebp]
	call	?MakeCampBaseDirty@CampBaseClass@@QAEXW4Dirty_Campaign_Base@@W4Dirtyness@@@Z ; CampBaseClass::MakeCampBaseDirty
	mov	eax, 4
	imul	eax, 183				; 000000b7H
	mov	ecx, DWORD PTR ?DDP@@3PAUDirtyDataClassType@@A ; DDP
	mov	edx, DWORD PTR [ecx+eax]
	push	edx
	push	2
	mov	ecx, DWORD PTR _this$[ebp]
	call	?MakeCampBaseDirty@CampBaseClass@@QAEXW4Dirty_Campaign_Base@@W4Dirtyness@@@Z ; CampBaseClass::MakeCampBaseDirty
	mov	esp, ebp
	pop	ebp
	ret	12					; 0000000cH
?SimSetLocation@UnitClass@@UAEXMMM@Z ENDP		; UnitClass::SimSetLocation
_TEXT	ENDS
; Function compile flags: /Odtp
; File c:\users\zhitao li\documents\visual studio 2012\projects\freefalcon\campaign\include\unit.h
;	COMDAT ?IsDead@UnitClass@@UBEHXZ
_TEXT	SEGMENT
_this$ = -4						; size = 4
?IsDead@UnitClass@@UBEHXZ PROC				; UnitClass::IsDead, COMDAT
; _this$ = ecx

; 307  : 	virtual int IsDead() const						{ return (int)unit_flags & U_DEAD; }		

	push	ebp
	mov	ebp, esp
	push	ecx
	mov	DWORD PTR _this$[ebp], ecx
	mov	eax, DWORD PTR _this$[ebp]
	mov	eax, DWORD PTR [eax+196]
	and	eax, 1
	mov	esp, ebp
	pop	ebp
	ret	0
?IsDead@UnitClass@@UBEHXZ ENDP				; UnitClass::IsDead
_TEXT	ENDS
; Function compile flags: /Odtp
; File c:\users\zhitao li\documents\visual studio 2012\projects\freefalcon\campaign\include\unit.h
;	COMDAT ?IsUnit@UnitClass@@UAEHXZ
_TEXT	SEGMENT
_this$ = -4						; size = 4
?IsUnit@UnitClass@@UAEHXZ PROC				; UnitClass::IsUnit, COMDAT
; _this$ = ecx

; 274  : 	virtual int IsUnit (void)										{ return TRUE; }

	push	ebp
	mov	ebp, esp
	push	ecx
	mov	DWORD PTR _this$[ebp], ecx
	mov	eax, 1
	mov	esp, ebp
	pop	ebp
	ret	0
?IsUnit@UnitClass@@UAEHXZ ENDP				; UnitClass::IsUnit
_TEXT	ENDS
; Function compile flags: /Odtp
; File c:\users\zhitao li\documents\visual studio 2012\projects\freefalcon\campaign\include\unit.h
;	COMDAT ?GetVehicleDeagData@UnitClass@@UAEHPAVSimInitDataClass@@H@Z
_TEXT	SEGMENT
_this$ = -4						; size = 4
___formal$ = 8						; size = 4
___formal$ = 12						; size = 4
?GetVehicleDeagData@UnitClass@@UAEHPAVSimInitDataClass@@H@Z PROC ; UnitClass::GetVehicleDeagData, COMDAT
; _this$ = ecx

; 266  : 	virtual int GetVehicleDeagData(SimInitDataClass*, int)			{ return 0; }

	push	ebp
	mov	ebp, esp
	push	ecx
	mov	DWORD PTR _this$[ebp], ecx
	xor	eax, eax
	mov	esp, ebp
	pop	ebp
	ret	8
?GetVehicleDeagData@UnitClass@@UAEHPAVSimInitDataClass@@H@Z ENDP ; UnitClass::GetVehicleDeagData
_TEXT	ENDS
; Function compile flags: /Odtp
; File c:\users\zhitao li\documents\visual studio 2012\projects\freefalcon\campaign\include\unit.h
;	COMDAT ?SupplyUnit@UnitClass@@UAEXHH@Z
_TEXT	SEGMENT
_this$ = -4						; size = 4
___formal$ = 8						; size = 4
___formal$ = 12						; size = 4
?SupplyUnit@UnitClass@@UAEXHH@Z PROC			; UnitClass::SupplyUnit, COMDAT
; _this$ = ecx

; 265  : 	virtual void SupplyUnit (int, int)								{}

	push	ebp
	mov	ebp, esp
	push	ecx
	mov	DWORD PTR _this$[ebp], ecx
	mov	esp, ebp
	pop	ebp
	ret	8
?SupplyUnit@UnitClass@@UAEXHH@Z ENDP			; UnitClass::SupplyUnit
_TEXT	ENDS
; Function compile flags: /Odtp
; File c:\users\zhitao li\documents\visual studio 2012\projects\freefalcon\campaign\include\unit.h
;	COMDAT ?GetUnitFuelNeed@UnitClass@@UAEHH@Z
_TEXT	SEGMENT
_this$ = -4						; size = 4
___formal$ = 8						; size = 4
?GetUnitFuelNeed@UnitClass@@UAEHH@Z PROC		; UnitClass::GetUnitFuelNeed, COMDAT
; _this$ = ecx

; 264  : 	virtual int GetUnitFuelNeed (int)								{ return 0; }

	push	ebp
	mov	ebp, esp
	push	ecx
	mov	DWORD PTR _this$[ebp], ecx
	xor	eax, eax
	mov	esp, ebp
	pop	ebp
	ret	4
?GetUnitFuelNeed@UnitClass@@UAEHH@Z ENDP		; UnitClass::GetUnitFuelNeed
_TEXT	ENDS
; Function compile flags: /Odtp
; File c:\users\zhitao li\documents\visual studio 2012\projects\freefalcon\campaign\include\unit.h
;	COMDAT ?GetUnitSupplyNeed@UnitClass@@UAEHH@Z
_TEXT	SEGMENT
_this$ = -4						; size = 4
___formal$ = 8						; size = 4
?GetUnitSupplyNeed@UnitClass@@UAEHH@Z PROC		; UnitClass::GetUnitSupplyNeed, COMDAT
; _this$ = ecx

; 263  : 	virtual int GetUnitSupplyNeed (int)								{ return 0; }

	push	ebp
	mov	ebp, esp
	push	ecx
	mov	DWORD PTR _this$[ebp], ecx
	xor	eax, eax
	mov	esp, ebp
	pop	ebp
	ret	4
?GetUnitSupplyNeed@UnitClass@@UAEHH@Z ENDP		; UnitClass::GetUnitSupplyNeed
_TEXT	ENDS
; Function compile flags: /Odtp
; File c:\users\zhitao li\documents\visual studio 2012\projects\freefalcon\campaign\include\unit.h
;	COMDAT ?CombatTime@UnitClass@@UAEKXZ
_TEXT	SEGMENT
_this$ = -4						; size = 4
?CombatTime@UnitClass@@UAEKXZ PROC			; UnitClass::CombatTime, COMDAT
; _this$ = ecx

; 262  : 	virtual CampaignTime CombatTime (void)							{ return CampaignDay; }

	push	ebp
	mov	ebp, esp
	push	ecx
	mov	DWORD PTR _this$[ebp], ecx
	mov	eax, 86400000				; 05265c00H
	mov	esp, ebp
	pop	ebp
	ret	0
?CombatTime@UnitClass@@UAEKXZ ENDP			; UnitClass::CombatTime
_TEXT	ENDS
; Function compile flags: /Odtp
; File c:\users\zhitao li\documents\visual studio 2012\projects\freefalcon\campaign\include\unit.h
;	COMDAT ?ChooseTarget@UnitClass@@UAEHXZ
_TEXT	SEGMENT
_this$ = -4						; size = 4
?ChooseTarget@UnitClass@@UAEHXZ PROC			; UnitClass::ChooseTarget, COMDAT
; _this$ = ecx

; 253  : 	virtual int ChooseTarget (void)									{ return -1; }

	push	ebp
	mov	ebp, esp
	push	ecx
	mov	DWORD PTR _this$[ebp], ecx
	or	eax, -1
	mov	esp, ebp
	pop	ebp
	ret	0
?ChooseTarget@UnitClass@@UAEHXZ ENDP			; UnitClass::ChooseTarget
_TEXT	ENDS
; Function compile flags: /Odtp
; File c:\users\zhitao li\documents\visual studio 2012\projects\freefalcon\campaign\include\unit.h
;	COMDAT ?DetectOnMove@UnitClass@@UAEHXZ
_TEXT	SEGMENT
_this$ = -4						; size = 4
?DetectOnMove@UnitClass@@UAEHXZ PROC			; UnitClass::DetectOnMove, COMDAT
; _this$ = ecx

; 252  : 	virtual int DetectOnMove (void)									{ return -1; }

	push	ebp
	mov	ebp, esp
	push	ecx
	mov	DWORD PTR _this$[ebp], ecx
	or	eax, -1
	mov	esp, ebp
	pop	ebp
	ret	0
?DetectOnMove@UnitClass@@UAEHXZ ENDP			; UnitClass::DetectOnMove
_TEXT	ENDS
; Function compile flags: /Odtp
; File c:\users\zhitao li\documents\visual studio 2012\projects\freefalcon\campaign\include\unit.h
;	COMDAT ?AdjustForSupply@UnitClass@@UAEMXZ
_TEXT	SEGMENT
_this$ = -4						; size = 4
?AdjustForSupply@UnitClass@@UAEMXZ PROC			; UnitClass::AdjustForSupply, COMDAT
; _this$ = ecx

; 250  : 	virtual float AdjustForSupply(void)								{ return 1.0F; }

	push	ebp
	mov	ebp, esp
	push	ecx
	mov	DWORD PTR _this$[ebp], ecx
	fld1
	mov	esp, ebp
	pop	ebp
	ret	0
?AdjustForSupply@UnitClass@@UAEMXZ ENDP			; UnitClass::AdjustForSupply
_TEXT	ENDS
; Function compile flags: /Odtp
; File c:\users\zhitao li\documents\visual studio 2012\projects\freefalcon\campaign\include\unit.h
;	COMDAT ?Real@UnitClass@@UAEHXZ
_TEXT	SEGMENT
_this$ = -4						; size = 4
?Real@UnitClass@@UAEHXZ PROC				; UnitClass::Real, COMDAT
; _this$ = ecx

; 249  : 	virtual int Real (void)											{ return 0; }

	push	ebp
	mov	ebp, esp
	push	ecx
	mov	DWORD PTR _this$[ebp], ecx
	xor	eax, eax
	mov	esp, ebp
	pop	ebp
	ret	0
?Real@UnitClass@@UAEHXZ ENDP				; UnitClass::Real
_TEXT	ENDS
; Function compile flags: /Odtp
; File c:\users\zhitao li\documents\visual studio 2012\projects\freefalcon\campaign\include\unit.h
;	COMDAT ?Father@UnitClass@@UBEHXZ
_TEXT	SEGMENT
_this$ = -4						; size = 4
?Father@UnitClass@@UBEHXZ PROC				; UnitClass::Father, COMDAT
; _this$ = ecx

; 248  : 	virtual int Father() const										{ return 0; }

	push	ebp
	mov	ebp, esp
	push	ecx
	mov	DWORD PTR _this$[ebp], ecx
	xor	eax, eax
	mov	esp, ebp
	pop	ebp
	ret	0
?Father@UnitClass@@UBEHXZ ENDP				; UnitClass::Father
_TEXT	ENDS
; Function compile flags: /Odtp
; File c:\users\zhitao li\documents\visual studio 2012\projects\freefalcon\campaign\include\unit.h
;	COMDAT ?CheckTactic@UnitClass@@UAEHH@Z
_TEXT	SEGMENT
_this$ = -4						; size = 4
___formal$ = 8						; size = 4
?CheckTactic@UnitClass@@UAEHH@Z PROC			; UnitClass::CheckTactic, COMDAT
; _this$ = ecx

; 247  : 	virtual int CheckTactic (int)									{ return 1; }

	push	ebp
	mov	ebp, esp
	push	ecx
	mov	DWORD PTR _this$[ebp], ecx
	mov	eax, 1
	mov	esp, ebp
	pop	ebp
	ret	4
?CheckTactic@UnitClass@@UAEHH@Z ENDP			; UnitClass::CheckTactic
_TEXT	ENDS
; Function compile flags: /Odtp
; File c:\users\zhitao li\documents\visual studio 2012\projects\freefalcon\campaign\include\unit.h
;	COMDAT ?ChooseTactic@UnitClass@@UAEHXZ
_TEXT	SEGMENT
_this$ = -4						; size = 4
?ChooseTactic@UnitClass@@UAEHXZ PROC			; UnitClass::ChooseTactic, COMDAT
; _this$ = ecx

; 246  : 	virtual int ChooseTactic (void)									{ return 0; }

	push	ebp
	mov	ebp, esp
	push	ecx
	mov	DWORD PTR _this$[ebp], ecx
	xor	eax, eax
	mov	esp, ebp
	pop	ebp
	ret	0
?ChooseTactic@UnitClass@@UAEHXZ ENDP			; UnitClass::ChooseTactic
_TEXT	ENDS
; Function compile flags: /Odtp
; File c:\users\zhitao li\documents\visual studio 2012\projects\freefalcon\campaign\include\unit.h
;	COMDAT ?DoCombat@UnitClass@@UAEHXZ
_TEXT	SEGMENT
_this$ = -4						; size = 4
?DoCombat@UnitClass@@UAEHXZ PROC			; UnitClass::DoCombat, COMDAT
; _this$ = ecx

; 245  : 	virtual int DoCombat (void)										{ return 0; }

	push	ebp
	mov	ebp, esp
	push	ecx
	mov	DWORD PTR _this$[ebp], ecx
	xor	eax, eax
	mov	esp, ebp
	pop	ebp
	ret	0
?DoCombat@UnitClass@@UAEHXZ ENDP			; UnitClass::DoCombat
_TEXT	ENDS
; Function compile flags: /Odtp
; File c:\users\zhitao li\documents\visual studio 2012\projects\freefalcon\campaign\include\unit.h
;	COMDAT ?MoveUnit@UnitClass@@UAEHK@Z
_TEXT	SEGMENT
_this$ = -4						; size = 4
___formal$ = 8						; size = 4
?MoveUnit@UnitClass@@UAEHK@Z PROC			; UnitClass::MoveUnit, COMDAT
; _this$ = ecx

; 244  : 	virtual int MoveUnit (CampaignTime)								{ return 0; }

	push	ebp
	mov	ebp, esp
	push	ecx
	mov	DWORD PTR _this$[ebp], ecx
	xor	eax, eax
	mov	esp, ebp
	pop	ebp
	ret	4
?MoveUnit@UnitClass@@UAEHK@Z ENDP			; UnitClass::MoveUnit
_TEXT	ENDS
; Function compile flags: /Odtp
; File c:\users\zhitao li\documents\visual studio 2012\projects\freefalcon\campaign\include\unit.h
;	COMDAT ?Reaction@UnitClass@@UAEHPAVCampBaseClass@@HM@Z
_TEXT	SEGMENT
_this$ = -4						; size = 4
___formal$ = 8						; size = 4
___formal$ = 12						; size = 4
___formal$ = 16						; size = 4
?Reaction@UnitClass@@UAEHPAVCampBaseClass@@HM@Z PROC	; UnitClass::Reaction, COMDAT
; _this$ = ecx

; 243  : 	virtual int Reaction (CampEntity, int, float)					{ return 0; }

	push	ebp
	mov	ebp, esp
	push	ecx
	mov	DWORD PTR _this$[ebp], ecx
	xor	eax, eax
	mov	esp, ebp
	pop	ebp
	ret	12					; 0000000cH
?Reaction@UnitClass@@UAEHPAVCampBaseClass@@HM@Z ENDP	; UnitClass::Reaction
_TEXT	ENDS
; Function compile flags: /Odtp
; File c:\users\zhitao li\documents\visual studio 2012\projects\freefalcon\campaign\include\unit.h
;	COMDAT ?ClearDeaggregationData@UnitClass@@UAEXXZ
_TEXT	SEGMENT
_this$ = -4						; size = 4
?ClearDeaggregationData@UnitClass@@UAEXXZ PROC		; UnitClass::ClearDeaggregationData, COMDAT
; _this$ = ecx

; 242  : 	virtual void ClearDeaggregationData (void)						{}

	push	ebp
	mov	ebp, esp
	push	ecx
	mov	DWORD PTR _this$[ebp], ecx
	mov	esp, ebp
	pop	ebp
	ret	0
?ClearDeaggregationData@UnitClass@@UAEXXZ ENDP		; UnitClass::ClearDeaggregationData
_TEXT	ENDS
; Function compile flags: /Odtp
; File c:\users\zhitao li\documents\visual studio 2012\projects\freefalcon\campaign\include\unit.h
;	COMDAT ?ShouldDeaggregate@UnitClass@@UAEHXZ
_TEXT	SEGMENT
_this$ = -4						; size = 4
?ShouldDeaggregate@UnitClass@@UAEHXZ PROC		; UnitClass::ShouldDeaggregate, COMDAT
; _this$ = ecx

; 241  : 	virtual int	ShouldDeaggregate(void)								{return TRUE;}

	push	ebp
	mov	ebp, esp
	push	ecx
	mov	DWORD PTR _this$[ebp], ecx
	mov	eax, 1
	mov	esp, ebp
	pop	ebp
	ret	0
?ShouldDeaggregate@UnitClass@@UAEHXZ ENDP		; UnitClass::ShouldDeaggregate
_TEXT	ENDS
; Function compile flags: /Odtp
; File c:\users\zhitao li\documents\visual studio 2012\projects\freefalcon\campaign\include\unit.h
;	COMDAT ?GetUnitDeaggregationData@UnitClass@@UAEPAVUnitDeaggregationData@@XZ
_TEXT	SEGMENT
_this$ = -4						; size = 4
?GetUnitDeaggregationData@UnitClass@@UAEPAVUnitDeaggregationData@@XZ PROC ; UnitClass::GetUnitDeaggregationData, COMDAT
; _this$ = ecx

; 240  : 	virtual UnitDeaggregationData* GetUnitDeaggregationData (void)	{ return NULL; }

	push	ebp
	mov	ebp, esp
	push	ecx
	mov	DWORD PTR _this$[ebp], ecx
	xor	eax, eax
	mov	esp, ebp
	pop	ebp
	ret	0
?GetUnitDeaggregationData@UnitClass@@UAEPAVUnitDeaggregationData@@XZ ENDP ; UnitClass::GetUnitDeaggregationData
_TEXT	ENDS
; Function compile flags: /Odtp
; File c:\users\zhitao li\documents\visual studio 2012\projects\freefalcon\campaign\include\unit.h
;	COMDAT ?GetDeaggregationPoint@UnitClass@@UAEHHPAPAVCampBaseClass@@@Z
_TEXT	SEGMENT
_this$ = -4						; size = 4
___formal$ = 8						; size = 4
___formal$ = 12						; size = 4
?GetDeaggregationPoint@UnitClass@@UAEHHPAPAVCampBaseClass@@@Z PROC ; UnitClass::GetDeaggregationPoint, COMDAT
; _this$ = ecx

; 239  : 	virtual int GetDeaggregationPoint (int, CampEntity*)			{ return 0; }

	push	ebp
	mov	ebp, esp
	push	ecx
	mov	DWORD PTR _this$[ebp], ecx
	xor	eax, eax
	mov	esp, ebp
	pop	ebp
	ret	8
?GetDeaggregationPoint@UnitClass@@UAEHHPAPAVCampBaseClass@@@Z ENDP ; UnitClass::GetDeaggregationPoint
_TEXT	ENDS
; Function compile flags: /Odtp
; File c:\users\zhitao li\documents\visual studio 2012\projects\freefalcon\campaign\include\unit.h
;	COMDAT ?CanShootWeapon@UnitClass@@UAEHH@Z
_TEXT	SEGMENT
_this$ = -4						; size = 4
___formal$ = 8						; size = 4
?CanShootWeapon@UnitClass@@UAEHH@Z PROC			; UnitClass::CanShootWeapon, COMDAT
; _this$ = ecx

; 238  : 	virtual int CanShootWeapon (int)								{ return TRUE; };

	push	ebp
	mov	ebp, esp
	push	ecx
	mov	DWORD PTR _this$[ebp], ecx
	mov	eax, 1
	mov	esp, ebp
	pop	ebp
	ret	4
?CanShootWeapon@UnitClass@@UAEHH@Z ENDP			; UnitClass::CanShootWeapon
_TEXT	ENDS
; Function compile flags: /Odtp
; File c:\users\zhitao li\documents\visual studio 2012\projects\freefalcon\campaign\include\campbase.h
;	COMDAT ?GetSType@CampBaseClass@@QBEEXZ
_TEXT	SEGMENT
_this$ = -4						; size = 4
?GetSType@CampBaseClass@@QBEEXZ PROC			; CampBaseClass::GetSType, COMDAT
; _this$ = ecx

; 290  : 	uchar GetSType (void)	const						{	return (EntityType())->classInfo_[VU_STYPE]; }

	push	ebp
	mov	ebp, esp
	push	ecx
	mov	DWORD PTR _this$[ebp], ecx
	mov	ecx, DWORD PTR _this$[ebp]
	call	?EntityType@VuEntity@@QBEPAUVuEntityType@@XZ ; VuEntity::EntityType
	mov	ecx, 1
	imul	ecx, 3
	mov	al, BYTE PTR [eax+ecx+8]
	mov	esp, ebp
	pop	ebp
	ret	0
?GetSType@CampBaseClass@@QBEEXZ ENDP			; CampBaseClass::GetSType
_TEXT	ENDS
; Function compile flags: /Odtp
; File c:\users\zhitao li\documents\visual studio 2012\projects\freefalcon\campaign\include\campbase.h
;	COMDAT ?GetType@CampBaseClass@@QBEEXZ
_TEXT	SEGMENT
_this$ = -4						; size = 4
?GetType@CampBaseClass@@QBEEXZ PROC			; CampBaseClass::GetType, COMDAT
; _this$ = ecx

; 289  : 	uchar GetType()	const						{	return (EntityType())->classInfo_[VU_TYPE]; }

	push	ebp
	mov	ebp, esp
	push	ecx
	mov	DWORD PTR _this$[ebp], ecx
	mov	ecx, DWORD PTR _this$[ebp]
	call	?EntityType@VuEntity@@QBEPAUVuEntityType@@XZ ; VuEntity::EntityType
	mov	ecx, 1
	shl	ecx, 1
	mov	al, BYTE PTR [eax+ecx+8]
	mov	esp, ebp
	pop	ebp
	ret	0
?GetType@CampBaseClass@@QBEEXZ ENDP			; CampBaseClass::GetType
_TEXT	ENDS
; Function compile flags: /Odtp
; File c:\users\zhitao li\documents\visual studio 2012\projects\freefalcon\campaign\include\campbase.h
;	COMDAT ?HasEntity@CampBaseClass@@UBEHPAVVuEntity@@@Z
_TEXT	SEGMENT
tv81 = -8						; size = 4
_this$ = -4						; size = 4
_e$ = 8							; size = 4
?HasEntity@CampBaseClass@@UBEHPAVVuEntity@@@Z PROC	; CampBaseClass::HasEntity, COMDAT
; _this$ = ecx

; 281  : 	virtual int HasEntity(VuEntity *e) const    {   

	push	ebp
	mov	ebp, esp
	sub	esp, 8
	mov	DWORD PTR _this$[ebp], ecx

; 282  : 		return ((components && (components->Find(e) != NULL)) || (this == e)); 

	mov	eax, DWORD PTR _this$[ebp]
	cmp	DWORD PTR [eax+160], 0
	je	SHORT $LN3@HasEntity
	mov	ecx, DWORD PTR _e$[ebp]
	push	ecx
	mov	edx, DWORD PTR _this$[ebp]
	mov	ecx, DWORD PTR [edx+160]
	call	?Find@VuCollection@@QBE_NPAVVuEntity@@@Z ; VuCollection::Find
	movzx	eax, al
	test	eax, eax
	jne	SHORT $LN4@HasEntity
$LN3@HasEntity:
	mov	ecx, DWORD PTR _this$[ebp]
	cmp	ecx, DWORD PTR _e$[ebp]
	je	SHORT $LN4@HasEntity
	mov	DWORD PTR tv81[ebp], 0
	jmp	SHORT $LN5@HasEntity
$LN4@HasEntity:
	mov	DWORD PTR tv81[ebp], 1
$LN5@HasEntity:
	mov	eax, DWORD PTR tv81[ebp]

; 283  : 	}

	mov	esp, ebp
	pop	ebp
	ret	4
?HasEntity@CampBaseClass@@UBEHPAVVuEntity@@@Z ENDP	; CampBaseClass::HasEntity
_TEXT	ENDS
; Function compile flags: /Odtp
; File c:\users\zhitao li\documents\visual studio 2012\projects\freefalcon\campaign\include\campbase.h
;	COMDAT ?IsEmitting@CampBaseClass@@UAEHXZ
_TEXT	SEGMENT
_this$ = -4						; size = 4
?IsEmitting@CampBaseClass@@UAEHXZ PROC			; CampBaseClass::IsEmitting, COMDAT
; _this$ = ecx

; 269  : 	virtual int IsEmitting (void)				{	return base_flags & CBC_EMITTING; }

	push	ebp
	mov	ebp, esp
	push	ecx
	mov	DWORD PTR _this$[ebp], ecx
	mov	eax, DWORD PTR _this$[ebp]
	movsx	eax, WORD PTR [eax+150]
	and	eax, 1
	mov	esp, ebp
	pop	ebp
	ret	0
?IsEmitting@CampBaseClass@@UAEHXZ ENDP			; CampBaseClass::IsEmitting
_TEXT	ENDS
; Function compile flags: /Odtp
; File c:\users\zhitao li\documents\visual studio 2012\projects\freefalcon\campaign\include\campbase.h
;	COMDAT ?IsCampBase@CampBaseClass@@UAE_NXZ
_TEXT	SEGMENT
_this$ = -4						; size = 4
?IsCampBase@CampBaseClass@@UAE_NXZ PROC			; CampBaseClass::IsCampBase, COMDAT
; _this$ = ecx

; 268  : 	virtual bool IsCampBase() { return true; }

	push	ebp
	mov	ebp, esp
	push	ecx
	mov	DWORD PTR _this$[ebp], ecx
	mov	al, 1
	mov	esp, ebp
	pop	ebp
	ret	0
?IsCampBase@CampBaseClass@@UAE_NXZ ENDP			; CampBaseClass::IsCampBase
_TEXT	ENDS
; Function compile flags: /Odtp
; File c:\users\zhitao li\documents\visual studio 2012\projects\freefalcon\campaign\include\campbase.h
;	COMDAT ?GetMissilesFlying@CampBaseClass@@UAEHXZ
_TEXT	SEGMENT
_this$ = -4						; size = 4
?GetMissilesFlying@CampBaseClass@@UAEHXZ PROC		; CampBaseClass::GetMissilesFlying, COMDAT
; _this$ = ecx

; 249  : 	virtual int GetMissilesFlying (void)				{ return 0; } // MLR 10/3/2004 - finishing what //me123 started

	push	ebp
	mov	ebp, esp
	push	ecx
	mov	DWORD PTR _this$[ebp], ecx
	xor	eax, eax
	mov	esp, ebp
	pop	ebp
	ret	0
?GetMissilesFlying@CampBaseClass@@UAEHXZ ENDP		; CampBaseClass::GetMissilesFlying
_TEXT	ENDS
; Function compile flags: /Odtp
; File c:\users\zhitao li\documents\visual studio 2012\projects\freefalcon\campaign\include\campbase.h
;	COMDAT ?StepRadar@CampBaseClass@@UAEHHHM@Z
_TEXT	SEGMENT
_this$ = -4						; size = 4
_t$ = 8							; size = 4
_d$ = 12						; size = 4
_range$ = 16						; size = 4
?StepRadar@CampBaseClass@@UAEHHHM@Z PROC		; CampBaseClass::StepRadar, COMDAT
; _this$ = ecx

; 240  : 	virtual int StepRadar (int t,int d, float range)								{	return FEC_RADAR_OFF; }

	push	ebp
	mov	ebp, esp
	push	ecx
	mov	DWORD PTR _this$[ebp], ecx
	xor	eax, eax
	mov	esp, ebp
	pop	ebp
	ret	12					; 0000000cH
?StepRadar@CampBaseClass@@UAEHHHM@Z ENDP		; CampBaseClass::StepRadar
_TEXT	ENDS
; Function compile flags: /Odtp
; File c:\users\zhitao li\documents\visual studio 2012\projects\freefalcon\campaign\include\campbase.h
;	COMDAT ?GetCountry@CampBaseClass@@UAEEXZ
_TEXT	SEGMENT
_this$ = -4						; size = 4
?GetCountry@CampBaseClass@@UAEEXZ PROC			; CampBaseClass::GetCountry, COMDAT
; _this$ = ecx

; 239  : 	virtual uchar GetCountry (void)								{	return owner; }		// New FalcEnt friendly form

	push	ebp
	mov	ebp, esp
	push	ecx
	mov	DWORD PTR _this$[ebp], ecx
	mov	eax, DWORD PTR _this$[ebp]
	mov	al, BYTE PTR [eax+154]
	mov	esp, ebp
	pop	ebp
	ret	0
?GetCountry@CampBaseClass@@UAEEXZ ENDP			; CampBaseClass::GetCountry
_TEXT	ENDS
; Function compile flags: /Odtp
; File c:\users\zhitao li\documents\visual studio 2012\projects\freefalcon\campaign\include\campbase.h
;	COMDAT ?GetTeam@CampBaseClass@@UAEEXZ
_TEXT	SEGMENT
_this$ = -4						; size = 4
?GetTeam@CampBaseClass@@UAEEXZ PROC			; CampBaseClass::GetTeam, COMDAT
; _this$ = ecx

; 238  : 	virtual uchar GetTeam (void)								{	return ::GetTeam(owner); }

	push	ebp
	mov	ebp, esp
	push	ecx
	mov	DWORD PTR _this$[ebp], ecx
	mov	eax, DWORD PTR _this$[ebp]
	movzx	ecx, BYTE PTR [eax+154]
	push	ecx
	call	?GetTeam@@YAEE@Z			; GetTeam
	add	esp, 4
	mov	esp, ebp
	pop	ebp
	ret	0
?GetTeam@CampBaseClass@@UAEEXZ ENDP			; CampBaseClass::GetTeam
_TEXT	ENDS
; Function compile flags: /Odtp
; File c:\users\zhitao li\documents\visual studio 2012\projects\freefalcon\campaign\include\campbase.h
;	COMDAT ?GetCampID@CampBaseClass@@UAEFXZ
_TEXT	SEGMENT
_this$ = -4						; size = 4
?GetCampID@CampBaseClass@@UAEFXZ PROC			; CampBaseClass::GetCampID, COMDAT
; _this$ = ecx

; 237  : 	virtual short GetCampID (void)								{	return camp_id; }

	push	ebp
	mov	ebp, esp
	push	ecx
	mov	DWORD PTR _this$[ebp], ecx
	mov	eax, DWORD PTR _this$[ebp]
	mov	ax, WORD PTR [eax+152]
	mov	esp, ebp
	pop	ebp
	ret	0
?GetCampID@CampBaseClass@@UAEFXZ ENDP			; CampBaseClass::GetCampID
_TEXT	ENDS
; Function compile flags: /Odtp
; File c:\users\zhitao li\documents\visual studio 2012\projects\freefalcon\falclib\include\falcent.h
;	COMDAT ?GetSEARCHtimer@FalconEntity@@UAEKXZ
_TEXT	SEGMENT
_this$ = -4						; size = 4
?GetSEARCHtimer@FalconEntity@@UAEKXZ PROC		; FalconEntity::GetSEARCHtimer, COMDAT
; _this$ = ecx

; 198  : 	virtual VU_TIME GetSEARCHtimer(void)				{ return 0; };

	push	ebp
	mov	ebp, esp
	push	ecx
	mov	DWORD PTR _this$[ebp], ecx
	xor	eax, eax
	mov	esp, ebp
	pop	ebp
	ret	0
?GetSEARCHtimer@FalconEntity@@UAEKXZ ENDP		; FalconEntity::GetSEARCHtimer
_TEXT	ENDS
; Function compile flags: /Odtp
; File c:\users\zhitao li\documents\visual studio 2012\projects\freefalcon\falclib\include\falcent.h
;	COMDAT ?GetAQUIREtimer@FalconEntity@@UAEKXZ
_TEXT	SEGMENT
_this$ = -4						; size = 4
?GetAQUIREtimer@FalconEntity@@UAEKXZ PROC		; FalconEntity::GetAQUIREtimer, COMDAT
; _this$ = ecx

; 197  : 	virtual VU_TIME GetAQUIREtimer(void)				{ return 0; };

	push	ebp
	mov	ebp, esp
	push	ecx
	mov	DWORD PTR _this$[ebp], ecx
	xor	eax, eax
	mov	esp, ebp
	pop	ebp
	ret	0
?GetAQUIREtimer@FalconEntity@@UAEKXZ ENDP		; FalconEntity::GetAQUIREtimer
_TEXT	ENDS
; Function compile flags: /Odtp
; File c:\users\zhitao li\documents\visual studio 2012\projects\freefalcon\falclib\include\falcent.h
;	COMDAT ?SetStepSearchMode@FalconEntity@@UAEXE@Z
_TEXT	SEGMENT
_this$ = -4						; size = 4
___formal$ = 8						; size = 1
?SetStepSearchMode@FalconEntity@@UAEXE@Z PROC		; FalconEntity::SetStepSearchMode, COMDAT
; _this$ = ecx

; 196  : 	virtual void SetStepSearchMode(uchar)					{ };

	push	ebp
	mov	ebp, esp
	push	ecx
	mov	DWORD PTR _this$[ebp], ecx
	mov	esp, ebp
	pop	ebp
	ret	4
?SetStepSearchMode@FalconEntity@@UAEXE@Z ENDP		; FalconEntity::SetStepSearchMode
_TEXT	ENDS
; Function compile flags: /Odtp
; File c:\users\zhitao li\documents\visual studio 2012\projects\freefalcon\falclib\include\falcent.h
;	COMDAT ?SetSEARCHtimer@FalconEntity@@UAEXK@Z
_TEXT	SEGMENT
_this$ = -4						; size = 4
_newTime$ = 8						; size = 4
?SetSEARCHtimer@FalconEntity@@UAEXK@Z PROC		; FalconEntity::SetSEARCHtimer, COMDAT
; _this$ = ecx

; 194  : 	virtual void SetSEARCHtimer(VU_TIME newTime)		{ };

	push	ebp
	mov	ebp, esp
	push	ecx
	mov	DWORD PTR _this$[ebp], ecx
	mov	esp, ebp
	pop	ebp
	ret	4
?SetSEARCHtimer@FalconEntity@@UAEXK@Z ENDP		; FalconEntity::SetSEARCHtimer
_TEXT	ENDS
; Function compile flags: /Odtp
; File c:\users\zhitao li\documents\visual studio 2012\projects\freefalcon\falclib\include\falcent.h
;	COMDAT ?SetAQUIREtimer@FalconEntity@@UAEXK@Z
_TEXT	SEGMENT
_this$ = -4						; size = 4
_newTime$ = 8						; size = 4
?SetAQUIREtimer@FalconEntity@@UAEXK@Z PROC		; FalconEntity::SetAQUIREtimer, COMDAT
; _this$ = ecx

; 193  : 	virtual void SetAQUIREtimer(VU_TIME newTime)		{ };

	push	ebp
	mov	ebp, esp
	push	ecx
	mov	DWORD PTR _this$[ebp], ecx
	mov	esp, ebp
	pop	ebp
	ret	4
?SetAQUIREtimer@FalconEntity@@UAEXK@Z ENDP		; FalconEntity::SetAQUIREtimer
_TEXT	ENDS
; Function compile flags: /Odtp
; File c:\users\zhitao li\documents\visual studio 2012\projects\freefalcon\falclib\include\falcent.h
;	COMDAT ?GetAltitude@FalconEntity@@QBEHXZ
_TEXT	SEGMENT
tv76 = -8						; size = 4
_this$ = -4						; size = 4
?GetAltitude@FalconEntity@@QBEHXZ PROC			; FalconEntity::GetAltitude, COMDAT
; _this$ = ecx

; 169  : 	int GetAltitude() const						{ return FloatToInt32(ZPos() * -1.0F); }

	push	ebp
	mov	ebp, esp
	sub	esp, 8
	mov	DWORD PTR _this$[ebp], ecx
	mov	ecx, DWORD PTR _this$[ebp]
	call	?ZPos@VuEntity@@QBEMXZ			; VuEntity::ZPos
	fstp	DWORD PTR tv76[ebp]
	movss	xmm0, DWORD PTR tv76[ebp]
	mulss	xmm0, DWORD PTR __real@bf800000
	push	ecx
	movss	DWORD PTR [esp], xmm0
	call	?FloatToInt32@@YAHM@Z			; FloatToInt32
	add	esp, 4
	mov	esp, ebp
	pop	ebp
	ret	0
?GetAltitude@FalconEntity@@QBEHXZ ENDP			; FalconEntity::GetAltitude
_TEXT	ENDS
; Function compile flags: /Odtp
; File c:\users\zhitao li\documents\visual studio 2012\projects\freefalcon\falclib\include\falcent.h
;	COMDAT ?HasAreaJamming@FalconEntity@@UAEHXZ
_TEXT	SEGMENT
_this$ = -4						; size = 4
?HasAreaJamming@FalconEntity@@UAEHXZ PROC		; FalconEntity::HasAreaJamming, COMDAT
; _this$ = ecx

; 162  : 	virtual int HasAreaJamming (void)			{ return FALSE; }

	push	ebp
	mov	ebp, esp
	push	ecx
	mov	DWORD PTR _this$[ebp], ecx
	xor	eax, eax
	mov	esp, ebp
	pop	ebp
	ret	0
?HasAreaJamming@FalconEntity@@UAEHXZ ENDP		; FalconEntity::HasAreaJamming
_TEXT	ENDS
; Function compile flags: /Odtp
; File c:\users\zhitao li\documents\visual studio 2012\projects\freefalcon\falclib\include\falcent.h
;	COMDAT ?HasSPJamming@FalconEntity@@UAEHXZ
_TEXT	SEGMENT
_this$ = -4						; size = 4
?HasSPJamming@FalconEntity@@UAEHXZ PROC			; FalconEntity::HasSPJamming, COMDAT
; _this$ = ecx

; 161  : 	virtual int HasSPJamming (void)				{ return FALSE; }

	push	ebp
	mov	ebp, esp
	push	ecx
	mov	DWORD PTR _this$[ebp], ecx
	xor	eax, eax
	mov	esp, ebp
	pop	ebp
	ret	0
?HasSPJamming@FalconEntity@@UAEHXZ ENDP			; FalconEntity::HasSPJamming
_TEXT	ENDS
; Function compile flags: /Odtp
; File c:\users\zhitao li\documents\visual studio 2012\projects\freefalcon\falclib\include\falcent.h
;	COMDAT ?IsAreaJamming@FalconEntity@@UAEHXZ
_TEXT	SEGMENT
_this$ = -4						; size = 4
?IsAreaJamming@FalconEntity@@UAEHXZ PROC		; FalconEntity::IsAreaJamming, COMDAT
; _this$ = ecx

; 160  : 	virtual int IsAreaJamming (void)            { return FALSE; }

	push	ebp
	mov	ebp, esp
	push	ecx
	mov	DWORD PTR _this$[ebp], ecx
	xor	eax, eax
	mov	esp, ebp
	pop	ebp
	ret	0
?IsAreaJamming@FalconEntity@@UAEHXZ ENDP		; FalconEntity::IsAreaJamming
_TEXT	ENDS
; Function compile flags: /Odtp
; File c:\users\zhitao li\documents\visual studio 2012\projects\freefalcon\falclib\include\falcent.h
;	COMDAT ?IsSPJamming@FalconEntity@@UAEHXZ
_TEXT	SEGMENT
_this$ = -4						; size = 4
?IsSPJamming@FalconEntity@@UAEHXZ PROC			; FalconEntity::IsSPJamming, COMDAT
; _this$ = ecx

; 159  : 	virtual int IsSPJamming (void)				{ return FALSE; }

	push	ebp
	mov	ebp, esp
	push	ecx
	mov	DWORD PTR _this$[ebp], ecx
	xor	eax, eax
	mov	esp, ebp
	pop	ebp
	ret	0
?IsSPJamming@FalconEntity@@UAEHXZ ENDP			; FalconEntity::IsSPJamming
_TEXT	ENDS
; Function compile flags: /Odtp
; File c:\users\zhitao li\documents\visual studio 2012\projects\freefalcon\falclib\include\falcent.h
;	COMDAT ?IsTaskForce@FalconEntity@@UAEHXZ
_TEXT	SEGMENT
_this$ = -4						; size = 4
?IsTaskForce@FalconEntity@@UAEHXZ PROC			; FalconEntity::IsTaskForce, COMDAT
; _this$ = ecx

; 158  : 	virtual int IsTaskForce (void)				{ return FALSE; }

	push	ebp
	mov	ebp, esp
	push	ecx
	mov	DWORD PTR _this$[ebp], ecx
	xor	eax, eax
	mov	esp, ebp
	pop	ebp
	ret	0
?IsTaskForce@FalconEntity@@UAEHXZ ENDP			; FalconEntity::IsTaskForce
_TEXT	ENDS
; Function compile flags: /Odtp
; File c:\users\zhitao li\documents\visual studio 2012\projects\freefalcon\falclib\include\falcent.h
;	COMDAT ?IsTeam@FalconEntity@@UAEHXZ
_TEXT	SEGMENT
_this$ = -4						; size = 4
?IsTeam@FalconEntity@@UAEHXZ PROC			; FalconEntity::IsTeam, COMDAT
; _this$ = ecx

; 157  : 	virtual int IsTeam (void)					{ return FALSE; }

	push	ebp
	mov	ebp, esp
	push	ecx
	mov	DWORD PTR _this$[ebp], ecx
	xor	eax, eax
	mov	esp, ebp
	pop	ebp
	ret	0
?IsTeam@FalconEntity@@UAEHXZ ENDP			; FalconEntity::IsTeam
_TEXT	ENDS
; Function compile flags: /Odtp
; File c:\users\zhitao li\documents\visual studio 2012\projects\freefalcon\falclib\include\falcent.h
;	COMDAT ?IsPackage@FalconEntity@@UAEHXZ
_TEXT	SEGMENT
_this$ = -4						; size = 4
?IsPackage@FalconEntity@@UAEHXZ PROC			; FalconEntity::IsPackage, COMDAT
; _this$ = ecx

; 156  : 	virtual int IsPackage (void)				{ return FALSE; }

	push	ebp
	mov	ebp, esp
	push	ecx
	mov	DWORD PTR _this$[ebp], ecx
	xor	eax, eax
	mov	esp, ebp
	pop	ebp
	ret	0
?IsPackage@FalconEntity@@UAEHXZ ENDP			; FalconEntity::IsPackage
_TEXT	ENDS
; Function compile flags: /Odtp
; File c:\users\zhitao li\documents\visual studio 2012\projects\freefalcon\falclib\include\falcent.h
;	COMDAT ?IsSquadron@FalconEntity@@UAEHXZ
_TEXT	SEGMENT
_this$ = -4						; size = 4
?IsSquadron@FalconEntity@@UAEHXZ PROC			; FalconEntity::IsSquadron, COMDAT
; _this$ = ecx

; 155  : 	virtual int IsSquadron (void)				{ return FALSE; }

	push	ebp
	mov	ebp, esp
	push	ecx
	mov	DWORD PTR _this$[ebp], ecx
	xor	eax, eax
	mov	esp, ebp
	pop	ebp
	ret	0
?IsSquadron@FalconEntity@@UAEHXZ ENDP			; FalconEntity::IsSquadron
_TEXT	ENDS
; Function compile flags: /Odtp
; File c:\users\zhitao li\documents\visual studio 2012\projects\freefalcon\falclib\include\falcent.h
;	COMDAT ?IsFlight@FalconEntity@@UBEHXZ
_TEXT	SEGMENT
_this$ = -4						; size = 4
?IsFlight@FalconEntity@@UBEHXZ PROC			; FalconEntity::IsFlight, COMDAT
; _this$ = ecx

; 154  : 	virtual int IsFlight() const				{ return FALSE; }

	push	ebp
	mov	ebp, esp
	push	ecx
	mov	DWORD PTR _this$[ebp], ecx
	xor	eax, eax
	mov	esp, ebp
	pop	ebp
	ret	0
?IsFlight@FalconEntity@@UBEHXZ ENDP			; FalconEntity::IsFlight
_TEXT	ENDS
; Function compile flags: /Odtp
; File c:\users\zhitao li\documents\visual studio 2012\projects\freefalcon\falclib\include\falcent.h
;	COMDAT ?IsBrigade@FalconEntity@@UAEHXZ
_TEXT	SEGMENT
_this$ = -4						; size = 4
?IsBrigade@FalconEntity@@UAEHXZ PROC			; FalconEntity::IsBrigade, COMDAT
; _this$ = ecx

; 153  : 	virtual int IsBrigade (void)				{ return FALSE; }

	push	ebp
	mov	ebp, esp
	push	ecx
	mov	DWORD PTR _this$[ebp], ecx
	xor	eax, eax
	mov	esp, ebp
	pop	ebp
	ret	0
?IsBrigade@FalconEntity@@UAEHXZ ENDP			; FalconEntity::IsBrigade
_TEXT	ENDS
; Function compile flags: /Odtp
; File c:\users\zhitao li\documents\visual studio 2012\projects\freefalcon\falclib\include\falcent.h
;	COMDAT ?IsBattalion@FalconEntity@@UAEHXZ
_TEXT	SEGMENT
_this$ = -4						; size = 4
?IsBattalion@FalconEntity@@UAEHXZ PROC			; FalconEntity::IsBattalion, COMDAT
; _this$ = ecx

; 152  : 	virtual int IsBattalion (void)				{ return FALSE; }

	push	ebp
	mov	ebp, esp
	push	ecx
	mov	DWORD PTR _this$[ebp], ecx
	xor	eax, eax
	mov	esp, ebp
	pop	ebp
	ret	0
?IsBattalion@FalconEntity@@UAEHXZ ENDP			; FalconEntity::IsBattalion
_TEXT	ENDS
; Function compile flags: /Odtp
; File c:\users\zhitao li\documents\visual studio 2012\projects\freefalcon\falclib\include\falcent.h
;	COMDAT ?IsObjective@FalconEntity@@UAEHXZ
_TEXT	SEGMENT
_this$ = -4						; size = 4
?IsObjective@FalconEntity@@UAEHXZ PROC			; FalconEntity::IsObjective, COMDAT
; _this$ = ecx

; 151  : 	virtual int IsObjective (void)				{ return FALSE; }

	push	ebp
	mov	ebp, esp
	push	ecx
	mov	DWORD PTR _this$[ebp], ecx
	xor	eax, eax
	mov	esp, ebp
	pop	ebp
	ret	0
?IsObjective@FalconEntity@@UAEHXZ ENDP			; FalconEntity::IsObjective
_TEXT	ENDS
; Function compile flags: /Odtp
; File c:\users\zhitao li\documents\visual studio 2012\projects\freefalcon\falclib\include\falcent.h
;	COMDAT ?GetMovementType@FalconEntity@@UAE?AW4MoveType@@XZ
_TEXT	SEGMENT
_this$ = -4						; size = 4
?GetMovementType@FalconEntity@@UAE?AW4MoveType@@XZ PROC	; FalconEntity::GetMovementType, COMDAT
; _this$ = ecx

; 149  : 	virtual MoveType GetMovementType (void)		{ return NoMove; }

	push	ebp
	mov	ebp, esp
	push	ecx
	mov	DWORD PTR _this$[ebp], ecx
	xor	eax, eax
	mov	esp, ebp
	pop	ebp
	ret	0
?GetMovementType@FalconEntity@@UAE?AW4MoveType@@XZ ENDP	; FalconEntity::GetMovementType
_TEXT	ENDS
; Function compile flags: /Odtp
; File c:\users\zhitao li\documents\visual studio 2012\projects\freefalcon\falclib\include\falcent.h
;	COMDAT ?IsDead@FalconEntity@@UAEHXZ
_TEXT	SEGMENT
_this$ = -4						; size = 4
?IsDead@FalconEntity@@UAEHXZ PROC			; FalconEntity::IsDead, COMDAT
; _this$ = ecx

; 144  : 	virtual int IsDead (void)					{ return FALSE; }

	push	ebp
	mov	ebp, esp
	push	ecx
	mov	DWORD PTR _this$[ebp], ecx
	xor	eax, eax
	mov	esp, ebp
	pop	ebp
	ret	0
?IsDead@FalconEntity@@UAEHXZ ENDP			; FalconEntity::IsDead
_TEXT	ENDS
; Function compile flags: /Odtp
; File c:\users\zhitao li\documents\visual studio 2012\projects\freefalcon\falclib\include\falcent.h
;	COMDAT ?IsExploding@FalconEntity@@UAEHXZ
_TEXT	SEGMENT
_this$ = -4						; size = 4
?IsExploding@FalconEntity@@UAEHXZ PROC			; FalconEntity::IsExploding, COMDAT
; _this$ = ecx

; 143  : 	virtual int IsExploding (void)				{ return FALSE; }

	push	ebp
	mov	ebp, esp
	push	ecx
	mov	DWORD PTR _this$[ebp], ecx
	xor	eax, eax
	mov	esp, ebp
	pop	ebp
	ret	0
?IsExploding@FalconEntity@@UAEHXZ ENDP			; FalconEntity::IsExploding
_TEXT	ENDS
; Function compile flags: /Odtp
; File c:\users\zhitao li\documents\visual studio 2012\projects\freefalcon\falclib\include\falcent.h
;	COMDAT ?IsWeapon@FalconEntity@@UAEHXZ
_TEXT	SEGMENT
_this$ = -4						; size = 4
?IsWeapon@FalconEntity@@UAEHXZ PROC			; FalconEntity::IsWeapon, COMDAT
; _this$ = ecx

; 142  : 	virtual int IsWeapon (void)   				{ return FALSE; }

	push	ebp
	mov	ebp, esp
	push	ecx
	mov	DWORD PTR _this$[ebp], ecx
	xor	eax, eax
	mov	esp, ebp
	pop	ebp
	ret	0
?IsWeapon@FalconEntity@@UAEHXZ ENDP			; FalconEntity::IsWeapon
_TEXT	ENDS
; Function compile flags: /Odtp
; File c:\users\zhitao li\documents\visual studio 2012\projects\freefalcon\falclib\include\falcent.h
;	COMDAT ?IsShip@FalconEntity@@UAEHXZ
_TEXT	SEGMENT
_this$ = -4						; size = 4
?IsShip@FalconEntity@@UAEHXZ PROC			; FalconEntity::IsShip, COMDAT
; _this$ = ecx

; 141  : 	virtual int IsShip (void) 			        { return FALSE; }

	push	ebp
	mov	ebp, esp
	push	ecx
	mov	DWORD PTR _this$[ebp], ecx
	xor	eax, eax
	mov	esp, ebp
	pop	ebp
	ret	0
?IsShip@FalconEntity@@UAEHXZ ENDP			; FalconEntity::IsShip
_TEXT	ENDS
; Function compile flags: /Odtp
; File c:\users\zhitao li\documents\visual studio 2012\projects\freefalcon\falclib\include\falcent.h
;	COMDAT ?IsGroundVehicle@FalconEntity@@UAEHXZ
_TEXT	SEGMENT
_this$ = -4						; size = 4
?IsGroundVehicle@FalconEntity@@UAEHXZ PROC		; FalconEntity::IsGroundVehicle, COMDAT
; _this$ = ecx

; 140  : 	virtual int IsGroundVehicle (void) 			{ return FALSE; }

	push	ebp
	mov	ebp, esp
	push	ecx
	mov	DWORD PTR _this$[ebp], ecx
	xor	eax, eax
	mov	esp, ebp
	pop	ebp
	ret	0
?IsGroundVehicle@FalconEntity@@UAEHXZ ENDP		; FalconEntity::IsGroundVehicle
_TEXT	ENDS
; Function compile flags: /Odtp
; File c:\users\zhitao li\documents\visual studio 2012\projects\freefalcon\falclib\include\falcent.h
;	COMDAT ?IsAirplane@FalconEntity@@UAEHXZ
_TEXT	SEGMENT
_this$ = -4						; size = 4
?IsAirplane@FalconEntity@@UAEHXZ PROC			; FalconEntity::IsAirplane, COMDAT
; _this$ = ecx

; 139  : 	virtual int IsAirplane (void)	   			{ return FALSE; }

	push	ebp
	mov	ebp, esp
	push	ecx
	mov	DWORD PTR _this$[ebp], ecx
	xor	eax, eax
	mov	esp, ebp
	pop	ebp
	ret	0
?IsAirplane@FalconEntity@@UAEHXZ ENDP			; FalconEntity::IsAirplane
_TEXT	ENDS
; Function compile flags: /Odtp
; File c:\users\zhitao li\documents\visual studio 2012\projects\freefalcon\falclib\include\falcent.h
;	COMDAT ?IsEject@FalconEntity@@UAEHXZ
_TEXT	SEGMENT
_this$ = -4						; size = 4
?IsEject@FalconEntity@@UAEHXZ PROC			; FalconEntity::IsEject, COMDAT
; _this$ = ecx

; 138  : 	virtual int IsEject (void)					{ return FALSE; }

	push	ebp
	mov	ebp, esp
	push	ecx
	mov	DWORD PTR _this$[ebp], ecx
	xor	eax, eax
	mov	esp, ebp
	pop	ebp
	ret	0
?IsEject@FalconEntity@@UAEHXZ ENDP			; FalconEntity::IsEject
_TEXT	ENDS
; Function compile flags: /Odtp
; File c:\users\zhitao li\documents\visual studio 2012\projects\freefalcon\falclib\include\falcent.h
;	COMDAT ?IsHelicopter@FalconEntity@@UAEHXZ
_TEXT	SEGMENT
_this$ = -4						; size = 4
?IsHelicopter@FalconEntity@@UAEHXZ PROC			; FalconEntity::IsHelicopter, COMDAT
; _this$ = ecx

; 137  : 	virtual int IsHelicopter (void)				{ return FALSE; }

	push	ebp
	mov	ebp, esp
	push	ecx
	mov	DWORD PTR _this$[ebp], ecx
	xor	eax, eax
	mov	esp, ebp
	pop	ebp
	ret	0
?IsHelicopter@FalconEntity@@UAEHXZ ENDP			; FalconEntity::IsHelicopter
_TEXT	ENDS
; Function compile flags: /Odtp
; File c:\users\zhitao li\documents\visual studio 2012\projects\freefalcon\falclib\include\falcent.h
;	COMDAT ?IsStatic@FalconEntity@@UAEHXZ
_TEXT	SEGMENT
_this$ = -4						; size = 4
?IsStatic@FalconEntity@@UAEHXZ PROC			; FalconEntity::IsStatic, COMDAT
; _this$ = ecx

; 136  : 	virtual int IsStatic (void)					{ return FALSE; }

	push	ebp
	mov	ebp, esp
	push	ecx
	mov	DWORD PTR _this$[ebp], ecx
	xor	eax, eax
	mov	esp, ebp
	pop	ebp
	ret	0
?IsStatic@FalconEntity@@UAEHXZ ENDP			; FalconEntity::IsStatic
_TEXT	ENDS
; Function compile flags: /Odtp
; File c:\users\zhitao li\documents\visual studio 2012\projects\freefalcon\falclib\include\falcent.h
;	COMDAT ?IsVehicle@FalconEntity@@UAEHXZ
_TEXT	SEGMENT
_this$ = -4						; size = 4
?IsVehicle@FalconEntity@@UAEHXZ PROC			; FalconEntity::IsVehicle, COMDAT
; _this$ = ecx

; 135  : 	virtual int IsVehicle (void)				{ return FALSE; }

	push	ebp
	mov	ebp, esp
	push	ecx
	mov	DWORD PTR _this$[ebp], ecx
	xor	eax, eax
	mov	esp, ebp
	pop	ebp
	ret	0
?IsVehicle@FalconEntity@@UAEHXZ ENDP			; FalconEntity::IsVehicle
_TEXT	ENDS
; Function compile flags: /Odtp
; File c:\users\zhitao li\documents\visual studio 2012\projects\freefalcon\falclib\include\falcent.h
;	COMDAT ?IsMover@FalconEntity@@UAEHXZ
_TEXT	SEGMENT
_this$ = -4						; size = 4
?IsMover@FalconEntity@@UAEHXZ PROC			; FalconEntity::IsMover, COMDAT
; _this$ = ecx

; 134  : 	virtual int IsMover (void)					{ return FALSE; }

	push	ebp
	mov	ebp, esp
	push	ecx
	mov	DWORD PTR _this$[ebp], ecx
	xor	eax, eax
	mov	esp, ebp
	pop	ebp
	ret	0
?IsMover@FalconEntity@@UAEHXZ ENDP			; FalconEntity::IsMover
_TEXT	ENDS
; Function compile flags: /Odtp
; File c:\users\zhitao li\documents\visual studio 2012\projects\freefalcon\falclib\include\falcent.h
;	COMDAT ?IsGun@FalconEntity@@UAEHXZ
_TEXT	SEGMENT
_this$ = -4						; size = 4
?IsGun@FalconEntity@@UAEHXZ PROC			; FalconEntity::IsGun, COMDAT
; _this$ = ecx

; 133  : 	virtual int IsGun (void)					{ return FALSE; }

	push	ebp
	mov	ebp, esp
	push	ecx
	mov	DWORD PTR _this$[ebp], ecx
	xor	eax, eax
	mov	esp, ebp
	pop	ebp
	ret	0
?IsGun@FalconEntity@@UAEHXZ ENDP			; FalconEntity::IsGun
_TEXT	ENDS
; Function compile flags: /Odtp
; File c:\users\zhitao li\documents\visual studio 2012\projects\freefalcon\falclib\include\falcent.h
;	COMDAT ?IsBomb@FalconEntity@@UAEHXZ
_TEXT	SEGMENT
_this$ = -4						; size = 4
?IsBomb@FalconEntity@@UAEHXZ PROC			; FalconEntity::IsBomb, COMDAT
; _this$ = ecx

; 132  : 	virtual int IsBomb (void)					{ return FALSE; }

	push	ebp
	mov	ebp, esp
	push	ecx
	mov	DWORD PTR _this$[ebp], ecx
	xor	eax, eax
	mov	esp, ebp
	pop	ebp
	ret	0
?IsBomb@FalconEntity@@UAEHXZ ENDP			; FalconEntity::IsBomb
_TEXT	ENDS
; Function compile flags: /Odtp
; File c:\users\zhitao li\documents\visual studio 2012\projects\freefalcon\falclib\include\falcent.h
;	COMDAT ?IsLauncher@FalconEntity@@UAEHXZ
_TEXT	SEGMENT
_this$ = -4						; size = 4
?IsLauncher@FalconEntity@@UAEHXZ PROC			; FalconEntity::IsLauncher, COMDAT
; _this$ = ecx

; 131  : 	virtual int IsLauncher (void)               { return FALSE; } // MLR 3/4/2004 - rocket pods

	push	ebp
	mov	ebp, esp
	push	ecx
	mov	DWORD PTR _this$[ebp], ecx
	xor	eax, eax
	mov	esp, ebp
	pop	ebp
	ret	0
?IsLauncher@FalconEntity@@UAEHXZ ENDP			; FalconEntity::IsLauncher
_TEXT	ENDS
; Function compile flags: /Odtp
; File c:\users\zhitao li\documents\visual studio 2012\projects\freefalcon\falclib\include\falcent.h
;	COMDAT ?IsMissile@FalconEntity@@UAEHXZ
_TEXT	SEGMENT
_this$ = -4						; size = 4
?IsMissile@FalconEntity@@UAEHXZ PROC			; FalconEntity::IsMissile, COMDAT
; _this$ = ecx

; 130  : 	virtual int IsMissile (void)				{ return FALSE; }

	push	ebp
	mov	ebp, esp
	push	ecx
	mov	DWORD PTR _this$[ebp], ecx
	xor	eax, eax
	mov	esp, ebp
	pop	ebp
	ret	0
?IsMissile@FalconEntity@@UAEHXZ ENDP			; FalconEntity::IsMissile
_TEXT	ENDS
; Function compile flags: /Odtp
; File c:\users\zhitao li\documents\visual studio 2012\projects\freefalcon\falclib\include\falcent.h
;	COMDAT ?CombatClass@FalconEntity@@UAEHXZ
_TEXT	SEGMENT
_this$ = -4						; size = 4
?CombatClass@FalconEntity@@UAEHXZ PROC			; FalconEntity::CombatClass, COMDAT
; _this$ = ecx

; 127  : 	virtual int CombatClass (void)				{ return 999; } // 2002-02-25 ADDED BY S.G. No combat class for non flight or non aircraft class

	push	ebp
	mov	ebp, esp
	push	ecx
	mov	DWORD PTR _this$[ebp], ecx
	mov	eax, 999				; 000003e7H
	mov	esp, ebp
	pop	ebp
	ret	0
?CombatClass@FalconEntity@@UAEHXZ ENDP			; FalconEntity::CombatClass
_TEXT	ENDS
; Function compile flags: /Odtp
; File c:\users\zhitao li\documents\visual studio 2012\projects\freefalcon\falclib\include\falcent.h
;	COMDAT ?SetSearchMode@FalconEntity@@UAEXE@Z
_TEXT	SEGMENT
_this$ = -4						; size = 4
___formal$ = 8						; size = 1
?SetSearchMode@FalconEntity@@UAEXE@Z PROC		; FalconEntity::SetSearchMode, COMDAT
; _this$ = ecx

; 126  : 	virtual void SetSearchMode (uchar)		{};

	push	ebp
	mov	ebp, esp
	push	ecx
	mov	DWORD PTR _this$[ebp], ecx
	mov	esp, ebp
	pop	ebp
	ret	4
?SetSearchMode@FalconEntity@@UAEXE@Z ENDP		; FalconEntity::SetSearchMode
_TEXT	ENDS
; Function compile flags: /Odtp
; File c:\users\zhitao li\documents\visual studio 2012\projects\freefalcon\falclib\include\falcent.h
;	COMDAT ?ReturnToSearch@FalconEntity@@UAEXXZ
_TEXT	SEGMENT
_this$ = -4						; size = 4
?ReturnToSearch@FalconEntity@@UAEXXZ PROC		; FalconEntity::ReturnToSearch, COMDAT
; _this$ = ecx

; 124  : 	virtual void ReturnToSearch (void)			{};

	push	ebp
	mov	ebp, esp
	push	ecx
	mov	DWORD PTR _this$[ebp], ecx
	mov	esp, ebp
	pop	ebp
	ret	0
?ReturnToSearch@FalconEntity@@UAEXXZ ENDP		; FalconEntity::ReturnToSearch
_TEXT	ENDS
; Function compile flags: /Odtp
; File c:\users\zhitao li\documents\visual studio 2012\projects\freefalcon\falclib\include\falcent.h
;	COMDAT ?SetRadarMode@FalconEntity@@UAEXE@Z
_TEXT	SEGMENT
_this$ = -4						; size = 4
___formal$ = 8						; size = 1
?SetRadarMode@FalconEntity@@UAEXE@Z PROC		; FalconEntity::SetRadarMode, COMDAT
; _this$ = ecx

; 123  : 	virtual void SetRadarMode (uchar)		{};

	push	ebp
	mov	ebp, esp
	push	ecx
	mov	DWORD PTR _this$[ebp], ecx
	mov	esp, ebp
	pop	ebp
	ret	4
?SetRadarMode@FalconEntity@@UAEXE@Z ENDP		; FalconEntity::SetRadarMode
_TEXT	ENDS
; Function compile flags: /Odtp
; File c:\users\zhitao li\documents\visual studio 2012\projects\freefalcon\falclib\include\falcent.h
;	COMDAT ?GetRadarMode@FalconEntity@@UAEHXZ
_TEXT	SEGMENT
_this$ = -4						; size = 4
?GetRadarMode@FalconEntity@@UAEHXZ PROC			; FalconEntity::GetRadarMode, COMDAT
; _this$ = ecx

; 121  : 	virtual int GetRadarMode (void)				{ return FEC_RADAR_OFF; }

	push	ebp
	mov	ebp, esp
	push	ecx
	mov	DWORD PTR _this$[ebp], ecx
	xor	eax, eax
	mov	esp, ebp
	pop	ebp
	ret	0
?GetRadarMode@FalconEntity@@UAEHXZ ENDP			; FalconEntity::GetRadarMode
_TEXT	ENDS
; Function compile flags: /Odtp
; File c:\users\zhitao li\documents\visual studio 2012\projects\freefalcon\falclib\include\falcent.h
;	COMDAT ?IsSimBase@FalconEntity@@UAE_NXZ
_TEXT	SEGMENT
_this$ = -4						; size = 4
?IsSimBase@FalconEntity@@UAE_NXZ PROC			; FalconEntity::IsSimBase, COMDAT
; _this$ = ecx

; 98   : 	virtual bool IsSimBase() { return false; }

	push	ebp
	mov	ebp, esp
	push	ecx
	mov	DWORD PTR _this$[ebp], ecx
	xor	al, al
	mov	esp, ebp
	pop	ebp
	ret	0
?IsSimBase@FalconEntity@@UAE_NXZ ENDP			; FalconEntity::IsSimBase
_TEXT	ENDS
; Function compile flags: /Odtp
; File c:\program files (x86)\microsoft visual studio 11.0\vc\include\xutility
;	COMDAT ??__Eallocator_arg@std@@YAXXZ
text$yc	SEGMENT
$T1 = -1						; size = 1
??__Eallocator_arg@std@@YAXXZ PROC			; std::`dynamic initializer for 'allocator_arg'', COMDAT

; 3644 : const allocator_arg_t allocator_arg = allocator_arg_t();

	push	ebp
	mov	ebp, esp
	push	ecx
	xor	eax, eax
	mov	BYTE PTR $T1[ebp], al
	mov	esp, ebp
	pop	ebp
	ret	0
??__Eallocator_arg@std@@YAXXZ ENDP			; std::`dynamic initializer for 'allocator_arg''
text$yc	ENDS
; Function compile flags: /Odtp
; File c:\program files (x86)\microsoft visual studio 11.0\vc\include\utility
;	COMDAT ??__Epiecewise_construct@std@@YAXXZ
text$yc	SEGMENT
$T1 = -1						; size = 1
??__Epiecewise_construct@std@@YAXXZ PROC		; std::`dynamic initializer for 'piecewise_construct'', COMDAT

; 65   : 	piecewise_construct_t();

	push	ebp
	mov	ebp, esp
	push	ecx
	xor	eax, eax
	mov	BYTE PTR $T1[ebp], al
	mov	esp, ebp
	pop	ebp
	ret	0
??__Epiecewise_construct@std@@YAXXZ ENDP		; std::`dynamic initializer for 'piecewise_construct''
text$yc	ENDS
; Function compile flags: /Odtp
; File c:\users\zhitao li\documents\visual studio 2012\projects\freefalcon\vu2\include\vuentity.h
;	COMDAT ?EntityType@VuEntity@@QBEPAUVuEntityType@@XZ
_TEXT	SEGMENT
_this$ = -4						; size = 4
?EntityType@VuEntity@@QBEPAUVuEntityType@@XZ PROC	; VuEntity::EntityType, COMDAT
; _this$ = ecx

; 176  : 	VuEntityType *EntityType() const { return const_cast<VuEntityType*>(entityTypePtr_); }

	push	ebp
	mov	ebp, esp
	push	ecx
	mov	DWORD PTR _this$[ebp], ecx
	mov	eax, DWORD PTR _this$[ebp]
	mov	eax, DWORD PTR [eax+112]
	mov	esp, ebp
	pop	ebp
	ret	0
?EntityType@VuEntity@@QBEPAUVuEntityType@@XZ ENDP	; VuEntity::EntityType
_TEXT	ENDS
; Function compile flags: /Odtp
; File c:\users\zhitao li\documents\visual studio 2012\projects\freefalcon\vu2\include\vuentity.h
;	COMDAT ?ZPos@VuEntity@@QBEMXZ
_TEXT	SEGMENT
_this$ = -4						; size = 4
?ZPos@VuEntity@@QBEMXZ PROC				; VuEntity::ZPos, COMDAT
; _this$ = ecx

; 160  : 	BIG_SCALAR ZPos()	const { return pos_.z_; }

	push	ebp
	mov	ebp, esp
	push	ecx
	mov	DWORD PTR _this$[ebp], ecx
	mov	eax, DWORD PTR _this$[ebp]
	fld	DWORD PTR [eax+44]
	mov	esp, ebp
	pop	ebp
	ret	0
?ZPos@VuEntity@@QBEMXZ ENDP				; VuEntity::ZPos
_TEXT	ENDS
; Function compile flags: /Odtp
; File c:\users\zhitao li\documents\visual studio 2012\projects\freefalcon\mathlib\math.h
_TEXT	SEGMENT
_x$ = 8							; size = 4
?FloatToInt32@@YAHM@Z PROC				; FloatToInt32

; 179  : {

	push	ebp
	mov	ebp, esp

; 180  : #if WIN32
; 181  :   __asm {
; 182  :     fld dword ptr [x];

	fld	DWORD PTR _x$[ebp]

; 183  :     fistp dword ptr [x];

	fistp	DWORD PTR _x$[ebp]

; 184  :     mov eax,dword ptr [x];

	mov	eax, DWORD PTR _x$[ebp]

; 185  :   }
; 186  : #else 
; 187  : 	return static_cast<int>(x);	
; 188  : #endif
; 189  : }

	pop	ebp
	ret	0
?FloatToInt32@@YAHM@Z ENDP				; FloatToInt32
_TEXT	ENDS
END
