; Listing generated by Microsoft (R) Optimizing Compiler Version 17.00.51106.1 

	TITLE	C:\Users\Zhitao Li\Documents\Visual Studio 2012\Projects\Freefalcon\CAMPAIGN\CAMPTASK\Flight.cpp
	.686P
	.XMM
	include listing.inc
	.model	flat

INCLUDELIB LIBCMT
INCLUDELIB OLDNAMES

PUBLIC	?collate@?$_Locbase@H@std@@2HB			; std::_Locbase<int>::collate
PUBLIC	?ctype@?$_Locbase@H@std@@2HB			; std::_Locbase<int>::ctype
PUBLIC	?monetary@?$_Locbase@H@std@@2HB			; std::_Locbase<int>::monetary
PUBLIC	?numeric@?$_Locbase@H@std@@2HB			; std::_Locbase<int>::numeric
PUBLIC	?time@?$_Locbase@H@std@@2HB			; std::_Locbase<int>::time
PUBLIC	?messages@?$_Locbase@H@std@@2HB			; std::_Locbase<int>::messages
PUBLIC	?all@?$_Locbase@H@std@@2HB			; std::_Locbase<int>::all
PUBLIC	?none@?$_Locbase@H@std@@2HB			; std::_Locbase<int>::none
PUBLIC	?has_denorm@_Num_base@std@@2W4float_denorm_style@2@B ; std::_Num_base::has_denorm
PUBLIC	?has_denorm_loss@_Num_base@std@@2_NB		; std::_Num_base::has_denorm_loss
PUBLIC	?has_infinity@_Num_base@std@@2_NB		; std::_Num_base::has_infinity
PUBLIC	?has_quiet_NaN@_Num_base@std@@2_NB		; std::_Num_base::has_quiet_NaN
PUBLIC	?has_signaling_NaN@_Num_base@std@@2_NB		; std::_Num_base::has_signaling_NaN
PUBLIC	?is_bounded@_Num_base@std@@2_NB			; std::_Num_base::is_bounded
PUBLIC	?is_exact@_Num_base@std@@2_NB			; std::_Num_base::is_exact
PUBLIC	?is_iec559@_Num_base@std@@2_NB			; std::_Num_base::is_iec559
PUBLIC	?is_integer@_Num_base@std@@2_NB			; std::_Num_base::is_integer
PUBLIC	?is_modulo@_Num_base@std@@2_NB			; std::_Num_base::is_modulo
PUBLIC	?is_signed@_Num_base@std@@2_NB			; std::_Num_base::is_signed
PUBLIC	?is_specialized@_Num_base@std@@2_NB		; std::_Num_base::is_specialized
PUBLIC	?tinyness_before@_Num_base@std@@2_NB		; std::_Num_base::tinyness_before
PUBLIC	?traps@_Num_base@std@@2_NB			; std::_Num_base::traps
PUBLIC	?round_style@_Num_base@std@@2W4float_round_style@2@B ; std::_Num_base::round_style
PUBLIC	?digits@_Num_base@std@@2HB			; std::_Num_base::digits
PUBLIC	?digits10@_Num_base@std@@2HB			; std::_Num_base::digits10
PUBLIC	?max_digits10@_Num_base@std@@2HB		; std::_Num_base::max_digits10
PUBLIC	?max_exponent@_Num_base@std@@2HB		; std::_Num_base::max_exponent
PUBLIC	?max_exponent10@_Num_base@std@@2HB		; std::_Num_base::max_exponent10
PUBLIC	?min_exponent@_Num_base@std@@2HB		; std::_Num_base::min_exponent
PUBLIC	?min_exponent10@_Num_base@std@@2HB		; std::_Num_base::min_exponent10
PUBLIC	?radix@_Num_base@std@@2HB			; std::_Num_base::radix
PUBLIC	?table_size@?$ctype@D@std@@2IB			; std::ctype<char>::table_size
PUBLIC	?is_bounded@_Num_int_base@std@@2_NB		; std::_Num_int_base::is_bounded
PUBLIC	?is_exact@_Num_int_base@std@@2_NB		; std::_Num_int_base::is_exact
PUBLIC	?is_integer@_Num_int_base@std@@2_NB		; std::_Num_int_base::is_integer
PUBLIC	?is_modulo@_Num_int_base@std@@2_NB		; std::_Num_int_base::is_modulo
PUBLIC	?is_specialized@_Num_int_base@std@@2_NB		; std::_Num_int_base::is_specialized
PUBLIC	?radix@_Num_int_base@std@@2HB			; std::_Num_int_base::radix
PUBLIC	?has_denorm@_Num_float_base@std@@2W4float_denorm_style@2@B ; std::_Num_float_base::has_denorm
PUBLIC	?has_denorm_loss@_Num_float_base@std@@2_NB	; std::_Num_float_base::has_denorm_loss
PUBLIC	?SIMDIRTYDATA_INTERVAL@FalconEntity@@2KB	; FalconEntity::SIMDIRTYDATA_INTERVAL
PUBLIC	?CMPDIRTYDATA_INTERVAL@FalconEntity@@2KB	; FalconEntity::CMPDIRTYDATA_INTERVAL
PUBLIC	?has_infinity@_Num_float_base@std@@2_NB		; std::_Num_float_base::has_infinity
PUBLIC	?has_quiet_NaN@_Num_float_base@std@@2_NB	; std::_Num_float_base::has_quiet_NaN
PUBLIC	?has_signaling_NaN@_Num_float_base@std@@2_NB	; std::_Num_float_base::has_signaling_NaN
PUBLIC	?is_bounded@_Num_float_base@std@@2_NB		; std::_Num_float_base::is_bounded
PUBLIC	?is_exact@_Num_float_base@std@@2_NB		; std::_Num_float_base::is_exact
PUBLIC	?is_iec559@_Num_float_base@std@@2_NB		; std::_Num_float_base::is_iec559
PUBLIC	?is_integer@_Num_float_base@std@@2_NB		; std::_Num_float_base::is_integer
PUBLIC	?is_modulo@_Num_float_base@std@@2_NB		; std::_Num_float_base::is_modulo
PUBLIC	?is_signed@_Num_float_base@std@@2_NB		; std::_Num_float_base::is_signed
PUBLIC	?is_specialized@_Num_float_base@std@@2_NB	; std::_Num_float_base::is_specialized
PUBLIC	?tinyness_before@_Num_float_base@std@@2_NB	; std::_Num_float_base::tinyness_before
PUBLIC	?traps@_Num_float_base@std@@2_NB		; std::_Num_float_base::traps
PUBLIC	?round_style@_Num_float_base@std@@2W4float_round_style@2@B ; std::_Num_float_base::round_style
PUBLIC	?radix@_Num_float_base@std@@2HB			; std::_Num_float_base::radix
PUBLIC	?is_signed@?$numeric_limits@D@std@@2_NB		; std::numeric_limits<char>::is_signed
PUBLIC	?digits@?$numeric_limits@D@std@@2HB		; std::numeric_limits<char>::digits
PUBLIC	?digits10@?$numeric_limits@D@std@@2HB		; std::numeric_limits<char>::digits10
PUBLIC	?is_signed@?$numeric_limits@_W@std@@2_NB	; std::numeric_limits<wchar_t>::is_signed
PUBLIC	?digits@?$numeric_limits@_W@std@@2HB		; std::numeric_limits<wchar_t>::digits
PUBLIC	?digits10@?$numeric_limits@_W@std@@2HB		; std::numeric_limits<wchar_t>::digits10
PUBLIC	?is_modulo@?$numeric_limits@_N@std@@2_NB	; std::numeric_limits<bool>::is_modulo
PUBLIC	?is_signed@?$numeric_limits@_N@std@@2_NB	; std::numeric_limits<bool>::is_signed
PUBLIC	?digits@?$numeric_limits@_N@std@@2HB		; std::numeric_limits<bool>::digits
PUBLIC	?digits10@?$numeric_limits@_N@std@@2HB		; std::numeric_limits<bool>::digits10
PUBLIC	?is_signed@?$numeric_limits@C@std@@2_NB		; std::numeric_limits<signed char>::is_signed
PUBLIC	?digits@?$numeric_limits@C@std@@2HB		; std::numeric_limits<signed char>::digits
PUBLIC	?digits10@?$numeric_limits@C@std@@2HB		; std::numeric_limits<signed char>::digits10
PUBLIC	?haveWeaps@@3HA					; haveWeaps
PUBLIC	?haveFuel@@3HA					; haveFuel
PUBLIC	?ourRange@@3HA					; ourRange
PUBLIC	?theirDomain@@3HA				; theirDomain
PUBLIC	?ourMission@@3HA				; ourMission
PUBLIC	?VFormRight@@3PAMA				; VFormRight
PUBLIC	?VFormAhead@@3PAMA				; VFormAhead
PUBLIC	?is_signed@?$numeric_limits@E@std@@2_NB		; std::numeric_limits<unsigned char>::is_signed
PUBLIC	?digits@?$numeric_limits@E@std@@2HB		; std::numeric_limits<unsigned char>::digits
PUBLIC	?digits10@?$numeric_limits@E@std@@2HB		; std::numeric_limits<unsigned char>::digits10
PUBLIC	?is_signed@?$numeric_limits@F@std@@2_NB		; std::numeric_limits<short>::is_signed
PUBLIC	?digits@?$numeric_limits@F@std@@2HB		; std::numeric_limits<short>::digits
PUBLIC	?digits10@?$numeric_limits@F@std@@2HB		; std::numeric_limits<short>::digits10
PUBLIC	?is_signed@?$numeric_limits@G@std@@2_NB		; std::numeric_limits<unsigned short>::is_signed
PUBLIC	?value@?$integral_constant@_N$0A@@std@@2_NB	; std::integral_constant<bool,0>::value
PUBLIC	?digits@?$numeric_limits@G@std@@2HB		; std::numeric_limits<unsigned short>::digits
PUBLIC	?digits10@?$numeric_limits@G@std@@2HB		; std::numeric_limits<unsigned short>::digits10
PUBLIC	?value@?$integral_constant@_N$00@std@@2_NB	; std::integral_constant<bool,1>::value
PUBLIC	?is_signed@?$numeric_limits@H@std@@2_NB		; std::numeric_limits<int>::is_signed
PUBLIC	?value@?$_Sizeof@HU_Nil@std@@U12@U12@U12@U12@U12@U12@@std@@2IB ; std::_Sizeof<int,std::_Nil,std::_Nil,std::_Nil,std::_Nil,std::_Nil,std::_Nil,std::_Nil>::value
PUBLIC	?digits@?$numeric_limits@H@std@@2HB		; std::numeric_limits<int>::digits
PUBLIC	?digits10@?$numeric_limits@H@std@@2HB		; std::numeric_limits<int>::digits10
PUBLIC	?is_signed@?$numeric_limits@I@std@@2_NB		; std::numeric_limits<unsigned int>::is_signed
PUBLIC	?digits@?$numeric_limits@I@std@@2HB		; std::numeric_limits<unsigned int>::digits
PUBLIC	?digits10@?$numeric_limits@I@std@@2HB		; std::numeric_limits<unsigned int>::digits10
PUBLIC	?is_signed@?$numeric_limits@J@std@@2_NB		; std::numeric_limits<long>::is_signed
PUBLIC	?digits@?$numeric_limits@J@std@@2HB		; std::numeric_limits<long>::digits
PUBLIC	?digits10@?$numeric_limits@J@std@@2HB		; std::numeric_limits<long>::digits10
PUBLIC	?skipws@?$_Iosb@H@std@@2W4_Fmtflags@12@B	; std::_Iosb<int>::skipws
PUBLIC	?is_signed@?$numeric_limits@K@std@@2_NB		; std::numeric_limits<unsigned long>::is_signed
PUBLIC	?unitbuf@?$_Iosb@H@std@@2W4_Fmtflags@12@B	; std::_Iosb<int>::unitbuf
PUBLIC	?digits@?$numeric_limits@K@std@@2HB		; std::numeric_limits<unsigned long>::digits
PUBLIC	?uppercase@?$_Iosb@H@std@@2W4_Fmtflags@12@B	; std::_Iosb<int>::uppercase
PUBLIC	?showbase@?$_Iosb@H@std@@2W4_Fmtflags@12@B	; std::_Iosb<int>::showbase
PUBLIC	?digits10@?$numeric_limits@K@std@@2HB		; std::numeric_limits<unsigned long>::digits10
PUBLIC	?showpoint@?$_Iosb@H@std@@2W4_Fmtflags@12@B	; std::_Iosb<int>::showpoint
PUBLIC	?showpos@?$_Iosb@H@std@@2W4_Fmtflags@12@B	; std::_Iosb<int>::showpos
PUBLIC	?left@?$_Iosb@H@std@@2W4_Fmtflags@12@B		; std::_Iosb<int>::left
PUBLIC	?right@?$_Iosb@H@std@@2W4_Fmtflags@12@B		; std::_Iosb<int>::right
PUBLIC	?internal@?$_Iosb@H@std@@2W4_Fmtflags@12@B	; std::_Iosb<int>::internal
PUBLIC	?dec@?$_Iosb@H@std@@2W4_Fmtflags@12@B		; std::_Iosb<int>::dec
PUBLIC	?oct@?$_Iosb@H@std@@2W4_Fmtflags@12@B		; std::_Iosb<int>::oct
PUBLIC	?hex@?$_Iosb@H@std@@2W4_Fmtflags@12@B		; std::_Iosb<int>::hex
PUBLIC	?scientific@?$_Iosb@H@std@@2W4_Fmtflags@12@B	; std::_Iosb<int>::scientific
PUBLIC	?fixed@?$_Iosb@H@std@@2W4_Fmtflags@12@B		; std::_Iosb<int>::fixed
PUBLIC	?is_signed@?$numeric_limits@_J@std@@2_NB	; std::numeric_limits<__int64>::is_signed
PUBLIC	?hexfloat@?$_Iosb@H@std@@2W4_Fmtflags@12@B	; std::_Iosb<int>::hexfloat
PUBLIC	?digits@?$numeric_limits@_J@std@@2HB		; std::numeric_limits<__int64>::digits
PUBLIC	?boolalpha@?$_Iosb@H@std@@2W4_Fmtflags@12@B	; std::_Iosb<int>::boolalpha
PUBLIC	?_Stdio@?$_Iosb@H@std@@2W4_Fmtflags@12@B	; std::_Iosb<int>::_Stdio
PUBLIC	?digits10@?$numeric_limits@_J@std@@2HB		; std::numeric_limits<__int64>::digits10
PUBLIC	?adjustfield@?$_Iosb@H@std@@2W4_Fmtflags@12@B	; std::_Iosb<int>::adjustfield
PUBLIC	?basefield@?$_Iosb@H@std@@2W4_Fmtflags@12@B	; std::_Iosb<int>::basefield
PUBLIC	?floatfield@?$_Iosb@H@std@@2W4_Fmtflags@12@B	; std::_Iosb<int>::floatfield
PUBLIC	?goodbit@?$_Iosb@H@std@@2W4_Iostate@12@B	; std::_Iosb<int>::goodbit
PUBLIC	?eofbit@?$_Iosb@H@std@@2W4_Iostate@12@B		; std::_Iosb<int>::eofbit
PUBLIC	?failbit@?$_Iosb@H@std@@2W4_Iostate@12@B	; std::_Iosb<int>::failbit
PUBLIC	?badbit@?$_Iosb@H@std@@2W4_Iostate@12@B		; std::_Iosb<int>::badbit
PUBLIC	?_Hardfail@?$_Iosb@H@std@@2W4_Iostate@12@B	; std::_Iosb<int>::_Hardfail
PUBLIC	?is_signed@?$numeric_limits@_K@std@@2_NB	; std::numeric_limits<unsigned __int64>::is_signed
PUBLIC	?in@?$_Iosb@H@std@@2W4_Openmode@12@B		; std::_Iosb<int>::in
PUBLIC	?out@?$_Iosb@H@std@@2W4_Openmode@12@B		; std::_Iosb<int>::out
PUBLIC	?digits@?$numeric_limits@_K@std@@2HB		; std::numeric_limits<unsigned __int64>::digits
PUBLIC	?ate@?$_Iosb@H@std@@2W4_Openmode@12@B		; std::_Iosb<int>::ate
PUBLIC	?digits10@?$numeric_limits@_K@std@@2HB		; std::numeric_limits<unsigned __int64>::digits10
PUBLIC	?app@?$_Iosb@H@std@@2W4_Openmode@12@B		; std::_Iosb<int>::app
PUBLIC	?trunc@?$_Iosb@H@std@@2W4_Openmode@12@B		; std::_Iosb<int>::trunc
PUBLIC	?_Nocreate@?$_Iosb@H@std@@2W4_Openmode@12@B	; std::_Iosb<int>::_Nocreate
PUBLIC	?_Noreplace@?$_Iosb@H@std@@2W4_Openmode@12@B	; std::_Iosb<int>::_Noreplace
PUBLIC	?binary@?$_Iosb@H@std@@2W4_Openmode@12@B	; std::_Iosb<int>::binary
PUBLIC	?beg@?$_Iosb@H@std@@2W4_Seekdir@12@B		; std::_Iosb<int>::beg
PUBLIC	?cur@?$_Iosb@H@std@@2W4_Seekdir@12@B		; std::_Iosb<int>::cur
PUBLIC	?end@?$_Iosb@H@std@@2W4_Seekdir@12@B		; std::_Iosb<int>::end
PUBLIC	?digits@?$numeric_limits@M@std@@2HB		; std::numeric_limits<float>::digits
PUBLIC	?digits10@?$numeric_limits@M@std@@2HB		; std::numeric_limits<float>::digits10
PUBLIC	?max_digits10@?$numeric_limits@M@std@@2HB	; std::numeric_limits<float>::max_digits10
PUBLIC	?max_exponent@?$numeric_limits@M@std@@2HB	; std::numeric_limits<float>::max_exponent
PUBLIC	?max_exponent10@?$numeric_limits@M@std@@2HB	; std::numeric_limits<float>::max_exponent10
PUBLIC	?min_exponent@?$numeric_limits@M@std@@2HB	; std::numeric_limits<float>::min_exponent
PUBLIC	?min_exponent10@?$numeric_limits@M@std@@2HB	; std::numeric_limits<float>::min_exponent10
PUBLIC	?_Stream_err@failure@ios_base@std@@0W4io_errc@43@B ; std::ios_base::failure::_Stream_err
PUBLIC	?value@?$integral_constant@I$0A@@std@@2IB	; std::integral_constant<unsigned int,0>::value
PUBLIC	?digits@?$numeric_limits@N@std@@2HB		; std::numeric_limits<double>::digits
PUBLIC	?digits10@?$numeric_limits@N@std@@2HB		; std::numeric_limits<double>::digits10
PUBLIC	?max_digits10@?$numeric_limits@N@std@@2HB	; std::numeric_limits<double>::max_digits10
PUBLIC	?max_exponent@?$numeric_limits@N@std@@2HB	; std::numeric_limits<double>::max_exponent
PUBLIC	?max_exponent10@?$numeric_limits@N@std@@2HB	; std::numeric_limits<double>::max_exponent10
PUBLIC	?min_exponent@?$numeric_limits@N@std@@2HB	; std::numeric_limits<double>::min_exponent
PUBLIC	?min_exponent10@?$numeric_limits@N@std@@2HB	; std::numeric_limits<double>::min_exponent10
PUBLIC	?digits@?$numeric_limits@O@std@@2HB		; std::numeric_limits<long double>::digits
PUBLIC	?digits10@?$numeric_limits@O@std@@2HB		; std::numeric_limits<long double>::digits10
PUBLIC	?max_digits10@?$numeric_limits@O@std@@2HB	; std::numeric_limits<long double>::max_digits10
PUBLIC	?max_exponent@?$numeric_limits@O@std@@2HB	; std::numeric_limits<long double>::max_exponent
PUBLIC	?max_exponent10@?$numeric_limits@O@std@@2HB	; std::numeric_limits<long double>::max_exponent10
PUBLIC	?min_exponent@?$numeric_limits@O@std@@2HB	; std::numeric_limits<long double>::min_exponent
PUBLIC	?min_exponent10@?$numeric_limits@O@std@@2HB	; std::numeric_limits<long double>::min_exponent10
PUBLIC	?value@?$_Sizeof@U_Nil@std@@U12@U12@U12@U12@U12@U12@U12@@std@@2IB ; std::_Sizeof<std::_Nil,std::_Nil,std::_Nil,std::_Nil,std::_Nil,std::_Nil,std::_Nil,std::_Nil>::value
_BSS	SEGMENT
?haveWeaps@@3HA DD 01H DUP (?)				; haveWeaps
?haveFuel@@3HA DD 01H DUP (?)				; haveFuel
?ourRange@@3HA DD 01H DUP (?)				; ourRange
?theirDomain@@3HA DD 01H DUP (?)			; theirDomain
?ourMission@@3HA DD 01H DUP (?)				; ourMission
_BSS	ENDS
;	COMDAT ?value@?$_Sizeof@U_Nil@std@@U12@U12@U12@U12@U12@U12@U12@@std@@2IB
CONST	SEGMENT
?value@?$_Sizeof@U_Nil@std@@U12@U12@U12@U12@U12@U12@U12@@std@@2IB DD 00H ; std::_Sizeof<std::_Nil,std::_Nil,std::_Nil,std::_Nil,std::_Nil,std::_Nil,std::_Nil,std::_Nil>::value
CONST	ENDS
;	COMDAT ?min_exponent10@?$numeric_limits@O@std@@2HB
CONST	SEGMENT
?min_exponent10@?$numeric_limits@O@std@@2HB DD 0fffffecdH ; std::numeric_limits<long double>::min_exponent10
CONST	ENDS
;	COMDAT ?min_exponent@?$numeric_limits@O@std@@2HB
CONST	SEGMENT
?min_exponent@?$numeric_limits@O@std@@2HB DD 0fffffc03H	; std::numeric_limits<long double>::min_exponent
CONST	ENDS
;	COMDAT ?max_exponent10@?$numeric_limits@O@std@@2HB
CONST	SEGMENT
?max_exponent10@?$numeric_limits@O@std@@2HB DD 0134H	; std::numeric_limits<long double>::max_exponent10
CONST	ENDS
;	COMDAT ?max_exponent@?$numeric_limits@O@std@@2HB
CONST	SEGMENT
?max_exponent@?$numeric_limits@O@std@@2HB DD 0400H	; std::numeric_limits<long double>::max_exponent
CONST	ENDS
;	COMDAT ?max_digits10@?$numeric_limits@O@std@@2HB
CONST	SEGMENT
?max_digits10@?$numeric_limits@O@std@@2HB DD 011H	; std::numeric_limits<long double>::max_digits10
CONST	ENDS
;	COMDAT ?digits10@?$numeric_limits@O@std@@2HB
CONST	SEGMENT
?digits10@?$numeric_limits@O@std@@2HB DD 0fH		; std::numeric_limits<long double>::digits10
CONST	ENDS
;	COMDAT ?digits@?$numeric_limits@O@std@@2HB
CONST	SEGMENT
?digits@?$numeric_limits@O@std@@2HB DD 035H		; std::numeric_limits<long double>::digits
CONST	ENDS
;	COMDAT ?min_exponent10@?$numeric_limits@N@std@@2HB
CONST	SEGMENT
?min_exponent10@?$numeric_limits@N@std@@2HB DD 0fffffecdH ; std::numeric_limits<double>::min_exponent10
CONST	ENDS
;	COMDAT ?min_exponent@?$numeric_limits@N@std@@2HB
CONST	SEGMENT
?min_exponent@?$numeric_limits@N@std@@2HB DD 0fffffc03H	; std::numeric_limits<double>::min_exponent
CONST	ENDS
;	COMDAT ?max_exponent10@?$numeric_limits@N@std@@2HB
CONST	SEGMENT
?max_exponent10@?$numeric_limits@N@std@@2HB DD 0134H	; std::numeric_limits<double>::max_exponent10
CONST	ENDS
;	COMDAT ?max_exponent@?$numeric_limits@N@std@@2HB
CONST	SEGMENT
?max_exponent@?$numeric_limits@N@std@@2HB DD 0400H	; std::numeric_limits<double>::max_exponent
CONST	ENDS
;	COMDAT ?max_digits10@?$numeric_limits@N@std@@2HB
CONST	SEGMENT
?max_digits10@?$numeric_limits@N@std@@2HB DD 011H	; std::numeric_limits<double>::max_digits10
CONST	ENDS
;	COMDAT ?digits10@?$numeric_limits@N@std@@2HB
CONST	SEGMENT
?digits10@?$numeric_limits@N@std@@2HB DD 0fH		; std::numeric_limits<double>::digits10
CONST	ENDS
;	COMDAT ?digits@?$numeric_limits@N@std@@2HB
CONST	SEGMENT
?digits@?$numeric_limits@N@std@@2HB DD 035H		; std::numeric_limits<double>::digits
CONST	ENDS
;	COMDAT ?value@?$integral_constant@I$0A@@std@@2IB
CONST	SEGMENT
?value@?$integral_constant@I$0A@@std@@2IB DD 00H	; std::integral_constant<unsigned int,0>::value
CONST	ENDS
;	COMDAT ?_Stream_err@failure@ios_base@std@@0W4io_errc@43@B
CONST	SEGMENT
?_Stream_err@failure@ios_base@std@@0W4io_errc@43@B DD 01H ; std::ios_base::failure::_Stream_err
CONST	ENDS
;	COMDAT ?min_exponent10@?$numeric_limits@M@std@@2HB
CONST	SEGMENT
?min_exponent10@?$numeric_limits@M@std@@2HB DD 0ffffffdbH ; std::numeric_limits<float>::min_exponent10
CONST	ENDS
;	COMDAT ?min_exponent@?$numeric_limits@M@std@@2HB
CONST	SEGMENT
?min_exponent@?$numeric_limits@M@std@@2HB DD 0ffffff83H	; std::numeric_limits<float>::min_exponent
CONST	ENDS
;	COMDAT ?max_exponent10@?$numeric_limits@M@std@@2HB
CONST	SEGMENT
?max_exponent10@?$numeric_limits@M@std@@2HB DD 026H	; std::numeric_limits<float>::max_exponent10
CONST	ENDS
;	COMDAT ?max_exponent@?$numeric_limits@M@std@@2HB
CONST	SEGMENT
?max_exponent@?$numeric_limits@M@std@@2HB DD 080H	; std::numeric_limits<float>::max_exponent
CONST	ENDS
;	COMDAT ?max_digits10@?$numeric_limits@M@std@@2HB
CONST	SEGMENT
?max_digits10@?$numeric_limits@M@std@@2HB DD 09H	; std::numeric_limits<float>::max_digits10
CONST	ENDS
;	COMDAT ?digits10@?$numeric_limits@M@std@@2HB
CONST	SEGMENT
?digits10@?$numeric_limits@M@std@@2HB DD 06H		; std::numeric_limits<float>::digits10
CONST	ENDS
;	COMDAT ?digits@?$numeric_limits@M@std@@2HB
CONST	SEGMENT
?digits@?$numeric_limits@M@std@@2HB DD 018H		; std::numeric_limits<float>::digits
CONST	ENDS
;	COMDAT ?end@?$_Iosb@H@std@@2W4_Seekdir@12@B
CONST	SEGMENT
?end@?$_Iosb@H@std@@2W4_Seekdir@12@B DD 02H		; std::_Iosb<int>::end
CONST	ENDS
;	COMDAT ?cur@?$_Iosb@H@std@@2W4_Seekdir@12@B
CONST	SEGMENT
?cur@?$_Iosb@H@std@@2W4_Seekdir@12@B DD 01H		; std::_Iosb<int>::cur
CONST	ENDS
;	COMDAT ?beg@?$_Iosb@H@std@@2W4_Seekdir@12@B
CONST	SEGMENT
?beg@?$_Iosb@H@std@@2W4_Seekdir@12@B DD 00H		; std::_Iosb<int>::beg
CONST	ENDS
;	COMDAT ?binary@?$_Iosb@H@std@@2W4_Openmode@12@B
CONST	SEGMENT
?binary@?$_Iosb@H@std@@2W4_Openmode@12@B DD 020H	; std::_Iosb<int>::binary
CONST	ENDS
;	COMDAT ?_Noreplace@?$_Iosb@H@std@@2W4_Openmode@12@B
CONST	SEGMENT
?_Noreplace@?$_Iosb@H@std@@2W4_Openmode@12@B DD 080H	; std::_Iosb<int>::_Noreplace
CONST	ENDS
;	COMDAT ?_Nocreate@?$_Iosb@H@std@@2W4_Openmode@12@B
CONST	SEGMENT
?_Nocreate@?$_Iosb@H@std@@2W4_Openmode@12@B DD 040H	; std::_Iosb<int>::_Nocreate
CONST	ENDS
;	COMDAT ?trunc@?$_Iosb@H@std@@2W4_Openmode@12@B
CONST	SEGMENT
?trunc@?$_Iosb@H@std@@2W4_Openmode@12@B DD 010H		; std::_Iosb<int>::trunc
CONST	ENDS
;	COMDAT ?app@?$_Iosb@H@std@@2W4_Openmode@12@B
CONST	SEGMENT
?app@?$_Iosb@H@std@@2W4_Openmode@12@B DD 08H		; std::_Iosb<int>::app
CONST	ENDS
;	COMDAT ?digits10@?$numeric_limits@_K@std@@2HB
CONST	SEGMENT
?digits10@?$numeric_limits@_K@std@@2HB DD 013H		; std::numeric_limits<unsigned __int64>::digits10
CONST	ENDS
;	COMDAT ?ate@?$_Iosb@H@std@@2W4_Openmode@12@B
CONST	SEGMENT
?ate@?$_Iosb@H@std@@2W4_Openmode@12@B DD 04H		; std::_Iosb<int>::ate
CONST	ENDS
;	COMDAT ?digits@?$numeric_limits@_K@std@@2HB
CONST	SEGMENT
?digits@?$numeric_limits@_K@std@@2HB DD 040H		; std::numeric_limits<unsigned __int64>::digits
CONST	ENDS
;	COMDAT ?out@?$_Iosb@H@std@@2W4_Openmode@12@B
CONST	SEGMENT
?out@?$_Iosb@H@std@@2W4_Openmode@12@B DD 02H		; std::_Iosb<int>::out
CONST	ENDS
;	COMDAT ?in@?$_Iosb@H@std@@2W4_Openmode@12@B
CONST	SEGMENT
?in@?$_Iosb@H@std@@2W4_Openmode@12@B DD 01H		; std::_Iosb<int>::in
CONST	ENDS
;	COMDAT ?is_signed@?$numeric_limits@_K@std@@2_NB
CONST	SEGMENT
?is_signed@?$numeric_limits@_K@std@@2_NB DB 00H		; std::numeric_limits<unsigned __int64>::is_signed
CONST	ENDS
;	COMDAT ?_Hardfail@?$_Iosb@H@std@@2W4_Iostate@12@B
CONST	SEGMENT
?_Hardfail@?$_Iosb@H@std@@2W4_Iostate@12@B DD 010H	; std::_Iosb<int>::_Hardfail
CONST	ENDS
;	COMDAT ?badbit@?$_Iosb@H@std@@2W4_Iostate@12@B
CONST	SEGMENT
?badbit@?$_Iosb@H@std@@2W4_Iostate@12@B DD 04H		; std::_Iosb<int>::badbit
CONST	ENDS
;	COMDAT ?failbit@?$_Iosb@H@std@@2W4_Iostate@12@B
CONST	SEGMENT
?failbit@?$_Iosb@H@std@@2W4_Iostate@12@B DD 02H		; std::_Iosb<int>::failbit
CONST	ENDS
;	COMDAT ?eofbit@?$_Iosb@H@std@@2W4_Iostate@12@B
CONST	SEGMENT
?eofbit@?$_Iosb@H@std@@2W4_Iostate@12@B DD 01H		; std::_Iosb<int>::eofbit
CONST	ENDS
;	COMDAT ?goodbit@?$_Iosb@H@std@@2W4_Iostate@12@B
CONST	SEGMENT
?goodbit@?$_Iosb@H@std@@2W4_Iostate@12@B DD 00H		; std::_Iosb<int>::goodbit
CONST	ENDS
;	COMDAT ?floatfield@?$_Iosb@H@std@@2W4_Fmtflags@12@B
CONST	SEGMENT
?floatfield@?$_Iosb@H@std@@2W4_Fmtflags@12@B DD 03000H	; std::_Iosb<int>::floatfield
CONST	ENDS
;	COMDAT ?basefield@?$_Iosb@H@std@@2W4_Fmtflags@12@B
CONST	SEGMENT
?basefield@?$_Iosb@H@std@@2W4_Fmtflags@12@B DD 0e00H	; std::_Iosb<int>::basefield
CONST	ENDS
;	COMDAT ?adjustfield@?$_Iosb@H@std@@2W4_Fmtflags@12@B
CONST	SEGMENT
?adjustfield@?$_Iosb@H@std@@2W4_Fmtflags@12@B DD 01c0H	; std::_Iosb<int>::adjustfield
CONST	ENDS
;	COMDAT ?digits10@?$numeric_limits@_J@std@@2HB
CONST	SEGMENT
?digits10@?$numeric_limits@_J@std@@2HB DD 012H		; std::numeric_limits<__int64>::digits10
CONST	ENDS
;	COMDAT ?_Stdio@?$_Iosb@H@std@@2W4_Fmtflags@12@B
CONST	SEGMENT
?_Stdio@?$_Iosb@H@std@@2W4_Fmtflags@12@B DD 08000H	; std::_Iosb<int>::_Stdio
CONST	ENDS
;	COMDAT ?boolalpha@?$_Iosb@H@std@@2W4_Fmtflags@12@B
CONST	SEGMENT
?boolalpha@?$_Iosb@H@std@@2W4_Fmtflags@12@B DD 04000H	; std::_Iosb<int>::boolalpha
CONST	ENDS
;	COMDAT ?digits@?$numeric_limits@_J@std@@2HB
CONST	SEGMENT
?digits@?$numeric_limits@_J@std@@2HB DD 03fH		; std::numeric_limits<__int64>::digits
CONST	ENDS
;	COMDAT ?hexfloat@?$_Iosb@H@std@@2W4_Fmtflags@12@B
CONST	SEGMENT
?hexfloat@?$_Iosb@H@std@@2W4_Fmtflags@12@B DD 03000H	; std::_Iosb<int>::hexfloat
CONST	ENDS
;	COMDAT ?is_signed@?$numeric_limits@_J@std@@2_NB
CONST	SEGMENT
?is_signed@?$numeric_limits@_J@std@@2_NB DB 01H		; std::numeric_limits<__int64>::is_signed
CONST	ENDS
;	COMDAT ?fixed@?$_Iosb@H@std@@2W4_Fmtflags@12@B
CONST	SEGMENT
?fixed@?$_Iosb@H@std@@2W4_Fmtflags@12@B DD 02000H	; std::_Iosb<int>::fixed
CONST	ENDS
;	COMDAT ?scientific@?$_Iosb@H@std@@2W4_Fmtflags@12@B
CONST	SEGMENT
?scientific@?$_Iosb@H@std@@2W4_Fmtflags@12@B DD 01000H	; std::_Iosb<int>::scientific
CONST	ENDS
;	COMDAT ?hex@?$_Iosb@H@std@@2W4_Fmtflags@12@B
CONST	SEGMENT
?hex@?$_Iosb@H@std@@2W4_Fmtflags@12@B DD 0800H		; std::_Iosb<int>::hex
CONST	ENDS
;	COMDAT ?oct@?$_Iosb@H@std@@2W4_Fmtflags@12@B
CONST	SEGMENT
?oct@?$_Iosb@H@std@@2W4_Fmtflags@12@B DD 0400H		; std::_Iosb<int>::oct
CONST	ENDS
;	COMDAT ?dec@?$_Iosb@H@std@@2W4_Fmtflags@12@B
CONST	SEGMENT
?dec@?$_Iosb@H@std@@2W4_Fmtflags@12@B DD 0200H		; std::_Iosb<int>::dec
CONST	ENDS
;	COMDAT ?internal@?$_Iosb@H@std@@2W4_Fmtflags@12@B
CONST	SEGMENT
?internal@?$_Iosb@H@std@@2W4_Fmtflags@12@B DD 0100H	; std::_Iosb<int>::internal
CONST	ENDS
;	COMDAT ?right@?$_Iosb@H@std@@2W4_Fmtflags@12@B
CONST	SEGMENT
?right@?$_Iosb@H@std@@2W4_Fmtflags@12@B DD 080H		; std::_Iosb<int>::right
CONST	ENDS
;	COMDAT ?left@?$_Iosb@H@std@@2W4_Fmtflags@12@B
CONST	SEGMENT
?left@?$_Iosb@H@std@@2W4_Fmtflags@12@B DD 040H		; std::_Iosb<int>::left
CONST	ENDS
;	COMDAT ?showpos@?$_Iosb@H@std@@2W4_Fmtflags@12@B
CONST	SEGMENT
?showpos@?$_Iosb@H@std@@2W4_Fmtflags@12@B DD 020H	; std::_Iosb<int>::showpos
CONST	ENDS
;	COMDAT ?showpoint@?$_Iosb@H@std@@2W4_Fmtflags@12@B
CONST	SEGMENT
?showpoint@?$_Iosb@H@std@@2W4_Fmtflags@12@B DD 010H	; std::_Iosb<int>::showpoint
CONST	ENDS
;	COMDAT ?digits10@?$numeric_limits@K@std@@2HB
CONST	SEGMENT
?digits10@?$numeric_limits@K@std@@2HB DD 09H		; std::numeric_limits<unsigned long>::digits10
CONST	ENDS
;	COMDAT ?showbase@?$_Iosb@H@std@@2W4_Fmtflags@12@B
CONST	SEGMENT
?showbase@?$_Iosb@H@std@@2W4_Fmtflags@12@B DD 08H	; std::_Iosb<int>::showbase
CONST	ENDS
;	COMDAT ?uppercase@?$_Iosb@H@std@@2W4_Fmtflags@12@B
CONST	SEGMENT
?uppercase@?$_Iosb@H@std@@2W4_Fmtflags@12@B DD 04H	; std::_Iosb<int>::uppercase
CONST	ENDS
;	COMDAT ?digits@?$numeric_limits@K@std@@2HB
CONST	SEGMENT
?digits@?$numeric_limits@K@std@@2HB DD 020H		; std::numeric_limits<unsigned long>::digits
CONST	ENDS
;	COMDAT ?unitbuf@?$_Iosb@H@std@@2W4_Fmtflags@12@B
CONST	SEGMENT
?unitbuf@?$_Iosb@H@std@@2W4_Fmtflags@12@B DD 02H	; std::_Iosb<int>::unitbuf
CONST	ENDS
;	COMDAT ?is_signed@?$numeric_limits@K@std@@2_NB
CONST	SEGMENT
?is_signed@?$numeric_limits@K@std@@2_NB DB 00H		; std::numeric_limits<unsigned long>::is_signed
CONST	ENDS
;	COMDAT ?skipws@?$_Iosb@H@std@@2W4_Fmtflags@12@B
CONST	SEGMENT
?skipws@?$_Iosb@H@std@@2W4_Fmtflags@12@B DD 01H		; std::_Iosb<int>::skipws
CONST	ENDS
;	COMDAT ?digits10@?$numeric_limits@J@std@@2HB
CONST	SEGMENT
?digits10@?$numeric_limits@J@std@@2HB DD 09H		; std::numeric_limits<long>::digits10
CONST	ENDS
;	COMDAT ?digits@?$numeric_limits@J@std@@2HB
CONST	SEGMENT
?digits@?$numeric_limits@J@std@@2HB DD 01fH		; std::numeric_limits<long>::digits
CONST	ENDS
;	COMDAT ?is_signed@?$numeric_limits@J@std@@2_NB
CONST	SEGMENT
?is_signed@?$numeric_limits@J@std@@2_NB DB 01H		; std::numeric_limits<long>::is_signed
CONST	ENDS
;	COMDAT ?digits10@?$numeric_limits@I@std@@2HB
CONST	SEGMENT
?digits10@?$numeric_limits@I@std@@2HB DD 09H		; std::numeric_limits<unsigned int>::digits10
CONST	ENDS
;	COMDAT ?digits@?$numeric_limits@I@std@@2HB
CONST	SEGMENT
?digits@?$numeric_limits@I@std@@2HB DD 020H		; std::numeric_limits<unsigned int>::digits
CONST	ENDS
;	COMDAT ?is_signed@?$numeric_limits@I@std@@2_NB
CONST	SEGMENT
?is_signed@?$numeric_limits@I@std@@2_NB DB 00H		; std::numeric_limits<unsigned int>::is_signed
CONST	ENDS
;	COMDAT ?digits10@?$numeric_limits@H@std@@2HB
CONST	SEGMENT
?digits10@?$numeric_limits@H@std@@2HB DD 09H		; std::numeric_limits<int>::digits10
CONST	ENDS
;	COMDAT ?digits@?$numeric_limits@H@std@@2HB
CONST	SEGMENT
?digits@?$numeric_limits@H@std@@2HB DD 01fH		; std::numeric_limits<int>::digits
CONST	ENDS
;	COMDAT ?value@?$_Sizeof@HU_Nil@std@@U12@U12@U12@U12@U12@U12@@std@@2IB
CONST	SEGMENT
?value@?$_Sizeof@HU_Nil@std@@U12@U12@U12@U12@U12@U12@@std@@2IB DD 01H ; std::_Sizeof<int,std::_Nil,std::_Nil,std::_Nil,std::_Nil,std::_Nil,std::_Nil,std::_Nil>::value
CONST	ENDS
;	COMDAT ?is_signed@?$numeric_limits@H@std@@2_NB
CONST	SEGMENT
?is_signed@?$numeric_limits@H@std@@2_NB DB 01H		; std::numeric_limits<int>::is_signed
CONST	ENDS
;	COMDAT ?value@?$integral_constant@_N$00@std@@2_NB
CONST	SEGMENT
?value@?$integral_constant@_N$00@std@@2_NB DB 01H	; std::integral_constant<bool,1>::value
CONST	ENDS
;	COMDAT ?digits10@?$numeric_limits@G@std@@2HB
CONST	SEGMENT
?digits10@?$numeric_limits@G@std@@2HB DD 04H		; std::numeric_limits<unsigned short>::digits10
CONST	ENDS
;	COMDAT ?digits@?$numeric_limits@G@std@@2HB
CONST	SEGMENT
?digits@?$numeric_limits@G@std@@2HB DD 010H		; std::numeric_limits<unsigned short>::digits
CONST	ENDS
;	COMDAT ?value@?$integral_constant@_N$0A@@std@@2_NB
CONST	SEGMENT
?value@?$integral_constant@_N$0A@@std@@2_NB DB 00H	; std::integral_constant<bool,0>::value
CONST	ENDS
;	COMDAT ?is_signed@?$numeric_limits@G@std@@2_NB
CONST	SEGMENT
?is_signed@?$numeric_limits@G@std@@2_NB DB 00H		; std::numeric_limits<unsigned short>::is_signed
CONST	ENDS
;	COMDAT ?digits10@?$numeric_limits@F@std@@2HB
CONST	SEGMENT
?digits10@?$numeric_limits@F@std@@2HB DD 04H		; std::numeric_limits<short>::digits10
CONST	ENDS
;	COMDAT ?digits@?$numeric_limits@F@std@@2HB
CONST	SEGMENT
?digits@?$numeric_limits@F@std@@2HB DD 0fH		; std::numeric_limits<short>::digits
CONST	ENDS
;	COMDAT ?is_signed@?$numeric_limits@F@std@@2_NB
CONST	SEGMENT
?is_signed@?$numeric_limits@F@std@@2_NB DB 01H		; std::numeric_limits<short>::is_signed
CONST	ENDS
CONST	SEGMENT
_L_2	DD	03f317218r			; 0.693147
CONST	ENDS
;	COMDAT ?digits10@?$numeric_limits@E@std@@2HB
CONST	SEGMENT
?digits10@?$numeric_limits@E@std@@2HB DD 02H		; std::numeric_limits<unsigned char>::digits10
CONST	ENDS
;	COMDAT ?digits@?$numeric_limits@E@std@@2HB
CONST	SEGMENT
?digits@?$numeric_limits@E@std@@2HB DD 08H		; std::numeric_limits<unsigned char>::digits
CONST	ENDS
;	COMDAT ?is_signed@?$numeric_limits@E@std@@2_NB
CONST	SEGMENT
?is_signed@?$numeric_limits@E@std@@2_NB DB 00H		; std::numeric_limits<unsigned char>::is_signed
CONST	ENDS
_DATA	SEGMENT
?VFormRight@@3PAMA DD 000000000r		; 0	; VFormRight
	DD	0c5b0b800r			; -5655
	DD	045c2d800r			; 6235
	DD	046407800r			; 12318
?VFormAhead@@3PAMA DD 000000000r		; 0	; VFormAhead
	DD	0c5b0b800r			; -5655
	DD	0c685d200r			; -17129
	DD	0c6ba7200r			; -23865
_DATA	ENDS
;	COMDAT ?digits10@?$numeric_limits@C@std@@2HB
CONST	SEGMENT
?digits10@?$numeric_limits@C@std@@2HB DD 02H		; std::numeric_limits<signed char>::digits10
CONST	ENDS
;	COMDAT ?digits@?$numeric_limits@C@std@@2HB
CONST	SEGMENT
?digits@?$numeric_limits@C@std@@2HB DD 07H		; std::numeric_limits<signed char>::digits
CONST	ENDS
;	COMDAT ?is_signed@?$numeric_limits@C@std@@2_NB
CONST	SEGMENT
?is_signed@?$numeric_limits@C@std@@2_NB DB 01H		; std::numeric_limits<signed char>::is_signed
CONST	ENDS
;	COMDAT ?digits10@?$numeric_limits@_N@std@@2HB
CONST	SEGMENT
?digits10@?$numeric_limits@_N@std@@2HB DD 00H		; std::numeric_limits<bool>::digits10
CONST	ENDS
;	COMDAT ?digits@?$numeric_limits@_N@std@@2HB
CONST	SEGMENT
?digits@?$numeric_limits@_N@std@@2HB DD 01H		; std::numeric_limits<bool>::digits
CONST	ENDS
;	COMDAT ?is_signed@?$numeric_limits@_N@std@@2_NB
CONST	SEGMENT
?is_signed@?$numeric_limits@_N@std@@2_NB DB 00H		; std::numeric_limits<bool>::is_signed
CONST	ENDS
;	COMDAT ?is_modulo@?$numeric_limits@_N@std@@2_NB
CONST	SEGMENT
?is_modulo@?$numeric_limits@_N@std@@2_NB DB 00H		; std::numeric_limits<bool>::is_modulo
CONST	ENDS
;	COMDAT ?digits10@?$numeric_limits@_W@std@@2HB
CONST	SEGMENT
?digits10@?$numeric_limits@_W@std@@2HB DD 04H		; std::numeric_limits<wchar_t>::digits10
CONST	ENDS
;	COMDAT ?digits@?$numeric_limits@_W@std@@2HB
CONST	SEGMENT
?digits@?$numeric_limits@_W@std@@2HB DD 010H		; std::numeric_limits<wchar_t>::digits
CONST	ENDS
;	COMDAT ?is_signed@?$numeric_limits@_W@std@@2_NB
CONST	SEGMENT
?is_signed@?$numeric_limits@_W@std@@2_NB DB 00H		; std::numeric_limits<wchar_t>::is_signed
CONST	ENDS
;	COMDAT ?digits10@?$numeric_limits@D@std@@2HB
CONST	SEGMENT
?digits10@?$numeric_limits@D@std@@2HB DD 02H		; std::numeric_limits<char>::digits10
CONST	ENDS
;	COMDAT ?digits@?$numeric_limits@D@std@@2HB
CONST	SEGMENT
?digits@?$numeric_limits@D@std@@2HB DD 07H		; std::numeric_limits<char>::digits
CONST	ENDS
;	COMDAT ?is_signed@?$numeric_limits@D@std@@2_NB
CONST	SEGMENT
?is_signed@?$numeric_limits@D@std@@2_NB DB 01H		; std::numeric_limits<char>::is_signed
CONST	ENDS
;	COMDAT ?radix@_Num_float_base@std@@2HB
CONST	SEGMENT
?radix@_Num_float_base@std@@2HB DD 02H			; std::_Num_float_base::radix
CONST	ENDS
;	COMDAT ?round_style@_Num_float_base@std@@2W4float_round_style@2@B
CONST	SEGMENT
?round_style@_Num_float_base@std@@2W4float_round_style@2@B DD 01H ; std::_Num_float_base::round_style
CONST	ENDS
;	COMDAT ?traps@_Num_float_base@std@@2_NB
CONST	SEGMENT
?traps@_Num_float_base@std@@2_NB DB 00H			; std::_Num_float_base::traps
CONST	ENDS
;	COMDAT ?tinyness_before@_Num_float_base@std@@2_NB
CONST	SEGMENT
?tinyness_before@_Num_float_base@std@@2_NB DB 01H	; std::_Num_float_base::tinyness_before
CONST	ENDS
;	COMDAT ?is_specialized@_Num_float_base@std@@2_NB
CONST	SEGMENT
?is_specialized@_Num_float_base@std@@2_NB DB 01H	; std::_Num_float_base::is_specialized
CONST	ENDS
;	COMDAT ?is_signed@_Num_float_base@std@@2_NB
CONST	SEGMENT
?is_signed@_Num_float_base@std@@2_NB DB 01H		; std::_Num_float_base::is_signed
CONST	ENDS
;	COMDAT ?is_modulo@_Num_float_base@std@@2_NB
CONST	SEGMENT
?is_modulo@_Num_float_base@std@@2_NB DB 00H		; std::_Num_float_base::is_modulo
CONST	ENDS
;	COMDAT ?is_integer@_Num_float_base@std@@2_NB
CONST	SEGMENT
?is_integer@_Num_float_base@std@@2_NB DB 00H		; std::_Num_float_base::is_integer
CONST	ENDS
;	COMDAT ?is_iec559@_Num_float_base@std@@2_NB
CONST	SEGMENT
?is_iec559@_Num_float_base@std@@2_NB DB 01H		; std::_Num_float_base::is_iec559
CONST	ENDS
;	COMDAT ?is_exact@_Num_float_base@std@@2_NB
CONST	SEGMENT
?is_exact@_Num_float_base@std@@2_NB DB 00H		; std::_Num_float_base::is_exact
CONST	ENDS
;	COMDAT ?is_bounded@_Num_float_base@std@@2_NB
CONST	SEGMENT
?is_bounded@_Num_float_base@std@@2_NB DB 01H		; std::_Num_float_base::is_bounded
CONST	ENDS
;	COMDAT ?has_signaling_NaN@_Num_float_base@std@@2_NB
CONST	SEGMENT
?has_signaling_NaN@_Num_float_base@std@@2_NB DB 01H	; std::_Num_float_base::has_signaling_NaN
CONST	ENDS
;	COMDAT ?has_quiet_NaN@_Num_float_base@std@@2_NB
CONST	SEGMENT
?has_quiet_NaN@_Num_float_base@std@@2_NB DB 01H		; std::_Num_float_base::has_quiet_NaN
CONST	ENDS
;	COMDAT ?has_infinity@_Num_float_base@std@@2_NB
CONST	SEGMENT
?has_infinity@_Num_float_base@std@@2_NB DB 01H		; std::_Num_float_base::has_infinity
CONST	ENDS
;	COMDAT ?CMPDIRTYDATA_INTERVAL@FalconEntity@@2KB
CONST	SEGMENT
?CMPDIRTYDATA_INTERVAL@FalconEntity@@2KB DD 0c8H	; FalconEntity::CMPDIRTYDATA_INTERVAL
CONST	ENDS
;	COMDAT ?SIMDIRTYDATA_INTERVAL@FalconEntity@@2KB
CONST	SEGMENT
?SIMDIRTYDATA_INTERVAL@FalconEntity@@2KB DD 0c8H	; FalconEntity::SIMDIRTYDATA_INTERVAL
CONST	ENDS
;	COMDAT ?has_denorm_loss@_Num_float_base@std@@2_NB
CONST	SEGMENT
?has_denorm_loss@_Num_float_base@std@@2_NB DB 01H	; std::_Num_float_base::has_denorm_loss
CONST	ENDS
;	COMDAT ?has_denorm@_Num_float_base@std@@2W4float_denorm_style@2@B
CONST	SEGMENT
?has_denorm@_Num_float_base@std@@2W4float_denorm_style@2@B DD 01H ; std::_Num_float_base::has_denorm
CONST	ENDS
;	COMDAT ?radix@_Num_int_base@std@@2HB
CONST	SEGMENT
?radix@_Num_int_base@std@@2HB DD 02H			; std::_Num_int_base::radix
CONST	ENDS
;	COMDAT ?is_specialized@_Num_int_base@std@@2_NB
CONST	SEGMENT
?is_specialized@_Num_int_base@std@@2_NB DB 01H		; std::_Num_int_base::is_specialized
CONST	ENDS
;	COMDAT ?is_modulo@_Num_int_base@std@@2_NB
CONST	SEGMENT
?is_modulo@_Num_int_base@std@@2_NB DB 01H		; std::_Num_int_base::is_modulo
CONST	ENDS
;	COMDAT ?is_integer@_Num_int_base@std@@2_NB
CONST	SEGMENT
?is_integer@_Num_int_base@std@@2_NB DB 01H		; std::_Num_int_base::is_integer
CONST	ENDS
;	COMDAT ?is_exact@_Num_int_base@std@@2_NB
CONST	SEGMENT
?is_exact@_Num_int_base@std@@2_NB DB 01H		; std::_Num_int_base::is_exact
CONST	ENDS
;	COMDAT ?is_bounded@_Num_int_base@std@@2_NB
CONST	SEGMENT
?is_bounded@_Num_int_base@std@@2_NB DB 01H		; std::_Num_int_base::is_bounded
CONST	ENDS
;	COMDAT ?table_size@?$ctype@D@std@@2IB
CONST	SEGMENT
?table_size@?$ctype@D@std@@2IB DD 0100H			; std::ctype<char>::table_size
CONST	ENDS
;	COMDAT ?radix@_Num_base@std@@2HB
CONST	SEGMENT
?radix@_Num_base@std@@2HB DD 00H			; std::_Num_base::radix
CONST	ENDS
;	COMDAT ?min_exponent10@_Num_base@std@@2HB
CONST	SEGMENT
?min_exponent10@_Num_base@std@@2HB DD 00H		; std::_Num_base::min_exponent10
CONST	ENDS
;	COMDAT ?min_exponent@_Num_base@std@@2HB
CONST	SEGMENT
?min_exponent@_Num_base@std@@2HB DD 00H			; std::_Num_base::min_exponent
CONST	ENDS
;	COMDAT ?max_exponent10@_Num_base@std@@2HB
CONST	SEGMENT
?max_exponent10@_Num_base@std@@2HB DD 00H		; std::_Num_base::max_exponent10
CONST	ENDS
;	COMDAT ?max_exponent@_Num_base@std@@2HB
CONST	SEGMENT
?max_exponent@_Num_base@std@@2HB DD 00H			; std::_Num_base::max_exponent
CONST	ENDS
;	COMDAT ?max_digits10@_Num_base@std@@2HB
CONST	SEGMENT
?max_digits10@_Num_base@std@@2HB DD 00H			; std::_Num_base::max_digits10
CONST	ENDS
;	COMDAT ?digits10@_Num_base@std@@2HB
CONST	SEGMENT
?digits10@_Num_base@std@@2HB DD 00H			; std::_Num_base::digits10
CONST	ENDS
;	COMDAT ?digits@_Num_base@std@@2HB
CONST	SEGMENT
?digits@_Num_base@std@@2HB DD 00H			; std::_Num_base::digits
CONST	ENDS
;	COMDAT ?round_style@_Num_base@std@@2W4float_round_style@2@B
CONST	SEGMENT
?round_style@_Num_base@std@@2W4float_round_style@2@B DD 00H ; std::_Num_base::round_style
CONST	ENDS
;	COMDAT ?traps@_Num_base@std@@2_NB
CONST	SEGMENT
?traps@_Num_base@std@@2_NB DB 00H			; std::_Num_base::traps
CONST	ENDS
;	COMDAT ?tinyness_before@_Num_base@std@@2_NB
CONST	SEGMENT
?tinyness_before@_Num_base@std@@2_NB DB 00H		; std::_Num_base::tinyness_before
CONST	ENDS
;	COMDAT ?is_specialized@_Num_base@std@@2_NB
CONST	SEGMENT
?is_specialized@_Num_base@std@@2_NB DB 00H		; std::_Num_base::is_specialized
CONST	ENDS
;	COMDAT ?is_signed@_Num_base@std@@2_NB
CONST	SEGMENT
?is_signed@_Num_base@std@@2_NB DB 00H			; std::_Num_base::is_signed
CONST	ENDS
;	COMDAT ?is_modulo@_Num_base@std@@2_NB
CONST	SEGMENT
?is_modulo@_Num_base@std@@2_NB DB 00H			; std::_Num_base::is_modulo
CONST	ENDS
;	COMDAT ?is_integer@_Num_base@std@@2_NB
CONST	SEGMENT
?is_integer@_Num_base@std@@2_NB DB 00H			; std::_Num_base::is_integer
CONST	ENDS
;	COMDAT ?is_iec559@_Num_base@std@@2_NB
CONST	SEGMENT
?is_iec559@_Num_base@std@@2_NB DB 00H			; std::_Num_base::is_iec559
CONST	ENDS
;	COMDAT ?is_exact@_Num_base@std@@2_NB
CONST	SEGMENT
?is_exact@_Num_base@std@@2_NB DB 00H			; std::_Num_base::is_exact
CONST	ENDS
;	COMDAT ?is_bounded@_Num_base@std@@2_NB
CONST	SEGMENT
?is_bounded@_Num_base@std@@2_NB DB 00H			; std::_Num_base::is_bounded
CONST	ENDS
;	COMDAT ?has_signaling_NaN@_Num_base@std@@2_NB
CONST	SEGMENT
?has_signaling_NaN@_Num_base@std@@2_NB DB 00H		; std::_Num_base::has_signaling_NaN
CONST	ENDS
;	COMDAT ?has_quiet_NaN@_Num_base@std@@2_NB
CONST	SEGMENT
?has_quiet_NaN@_Num_base@std@@2_NB DB 00H		; std::_Num_base::has_quiet_NaN
CONST	ENDS
;	COMDAT ?has_infinity@_Num_base@std@@2_NB
CONST	SEGMENT
?has_infinity@_Num_base@std@@2_NB DB 00H		; std::_Num_base::has_infinity
CONST	ENDS
;	COMDAT ?has_denorm_loss@_Num_base@std@@2_NB
CONST	SEGMENT
?has_denorm_loss@_Num_base@std@@2_NB DB 00H		; std::_Num_base::has_denorm_loss
CONST	ENDS
;	COMDAT ?has_denorm@_Num_base@std@@2W4float_denorm_style@2@B
CONST	SEGMENT
?has_denorm@_Num_base@std@@2W4float_denorm_style@2@B DD 00H ; std::_Num_base::has_denorm
CONST	ENDS
;	COMDAT ?none@?$_Locbase@H@std@@2HB
CONST	SEGMENT
?none@?$_Locbase@H@std@@2HB DD 00H			; std::_Locbase<int>::none
CONST	ENDS
;	COMDAT ?all@?$_Locbase@H@std@@2HB
CONST	SEGMENT
?all@?$_Locbase@H@std@@2HB DD 03fH			; std::_Locbase<int>::all
CONST	ENDS
;	COMDAT ?messages@?$_Locbase@H@std@@2HB
CONST	SEGMENT
?messages@?$_Locbase@H@std@@2HB DD 020H			; std::_Locbase<int>::messages
CONST	ENDS
;	COMDAT ?time@?$_Locbase@H@std@@2HB
CONST	SEGMENT
?time@?$_Locbase@H@std@@2HB DD 010H			; std::_Locbase<int>::time
CONST	ENDS
;	COMDAT ?numeric@?$_Locbase@H@std@@2HB
CONST	SEGMENT
?numeric@?$_Locbase@H@std@@2HB DD 08H			; std::_Locbase<int>::numeric
CONST	ENDS
;	COMDAT ?monetary@?$_Locbase@H@std@@2HB
CONST	SEGMENT
?monetary@?$_Locbase@H@std@@2HB DD 04H			; std::_Locbase<int>::monetary
CONST	ENDS
;	COMDAT ?ctype@?$_Locbase@H@std@@2HB
CONST	SEGMENT
?ctype@?$_Locbase@H@std@@2HB DD 02H			; std::_Locbase<int>::ctype
CONST	ENDS
;	COMDAT ?collate@?$_Locbase@H@std@@2HB
CONST	SEGMENT
?collate@?$_Locbase@H@std@@2HB DD 01H			; std::_Locbase<int>::collate
CONST	ENDS
PUBLIC	??_H@YGXPAXIHP6EPAX0@Z@Z			; `vector constructor iterator'
PUBLIC	_fabsf
PUBLIC	?fabs@@YAMM@Z					; fabs
PUBLIC	??0VU_SESSION_ID@@QAE@K@Z			; VU_SESSION_ID::VU_SESSION_ID
PUBLIC	??8VU_SESSION_ID@@QBEHABV0@@Z			; VU_SESSION_ID::operator==
PUBLIC	??BVU_SESSION_ID@@QBEKXZ			; VU_SESSION_ID::operator unsigned long
PUBLIC	??0VU_ID@@QAE@XZ				; VU_ID::VU_ID
PUBLIC	??8VU_ID@@QBE_NABV0@@Z				; VU_ID::operator==
PUBLIC	??9VU_ID@@QBE_NABV0@@Z				; VU_ID::operator!=
PUBLIC	??BVU_ID@@QBEKXZ				; VU_ID::operator unsigned long
PUBLIC	?SetYPR@VuEntity@@QAEXMMM@Z			; VuEntity::SetYPR
PUBLIC	?Id@VuEntity@@QBE?AVVU_ID@@XZ			; VuEntity::Id
PUBLIC	?SetSendCreate@VuEntity@@QAEXW4VU_SEND_TYPE@1@@Z ; VuEntity::SetSendCreate
PUBLIC	?OwnerId@VuEntity@@QBE?AVVU_ID@@XZ		; VuEntity::OwnerId
PUBLIC	?VuState@VuEntity@@QBE?AW4VU_MEM@@XZ		; VuEntity::VuState
PUBLIC	?XPos@VuEntity@@QBEMXZ				; VuEntity::XPos
PUBLIC	?YPos@VuEntity@@QBEMXZ				; VuEntity::YPos
PUBLIC	?ZPos@VuEntity@@QBEMXZ				; VuEntity::ZPos
PUBLIC	?Yaw@VuEntity@@QBEMXZ				; VuEntity::Yaw
PUBLIC	?EntityType@VuEntity@@QBEPAUVuEntityType@@XZ	; VuEntity::EntityType
PUBLIC	??2@YAPAXIPAX@Z					; operator new
PUBLIC	??3@YAXPAX0@Z					; operator delete
PUBLIC	?length@?$char_traits@D@std@@SAIPBD@Z		; std::char_traits<char>::length
PUBLIC	?copy@?$char_traits@D@std@@SAPADPADPBDI@Z	; std::char_traits<char>::copy
PUBLIC	?move@?$char_traits@D@std@@SAPADPADPBDI@Z	; std::char_traits<char>::move
PUBLIC	?assign@?$char_traits@D@std@@SAXAADABD@Z	; std::char_traits<char>::assign
PUBLIC	??0logic_error@std@@QAE@PBD@Z			; std::logic_error::logic_error
PUBLIC	??1logic_error@std@@UAE@XZ			; std::logic_error::~logic_error
PUBLIC	??0logic_error@std@@QAE@ABV01@@Z		; std::logic_error::logic_error
PUBLIC	??_Glogic_error@std@@UAEPAXI@Z			; std::logic_error::`scalar deleting destructor'
PUBLIC	??0?$allocator@D@std@@QAE@XZ			; std::allocator<char>::allocator<char>
PUBLIC	?deallocate@?$allocator@D@std@@QAEXPADI@Z	; std::allocator<char>::deallocate
PUBLIC	?allocate@?$allocator@D@std@@QAEPADI@Z		; std::allocator<char>::allocate
PUBLIC	?max_size@?$allocator@D@std@@QBEIXZ		; std::allocator<char>::max_size
PUBLIC	?max_size@?$allocator_traits@V?$allocator@D@std@@@std@@SAIABV?$allocator@D@2@@Z ; std::allocator_traits<std::allocator<char> >::max_size
PUBLIC	??0?$_Wrap_alloc@V?$allocator@D@std@@@std@@QAE@XZ ; std::_Wrap_alloc<std::allocator<char> >::_Wrap_alloc<std::allocator<char> >
PUBLIC	?allocate@?$_Wrap_alloc@V?$allocator@D@std@@@std@@QAEPADI@Z ; std::_Wrap_alloc<std::allocator<char> >::allocate
PUBLIC	?deallocate@?$_Wrap_alloc@V?$allocator@D@std@@@std@@QAEXPADI@Z ; std::_Wrap_alloc<std::allocator<char> >::deallocate
PUBLIC	?max_size@?$_Wrap_alloc@V?$allocator@D@std@@@std@@QBEIXZ ; std::_Wrap_alloc<std::allocator<char> >::max_size
PUBLIC	??0?$_String_val@U?$_Simple_types@D@std@@@std@@QAE@XZ ; std::_String_val<std::_Simple_types<char> >::_String_val<std::_Simple_types<char> >
PUBLIC	?_Myptr@?$_String_val@U?$_Simple_types@D@std@@@std@@QAEPADXZ ; std::_String_val<std::_Simple_types<char> >::_Myptr
PUBLIC	?_Myptr@?$_String_val@U?$_Simple_types@D@std@@@std@@QBEPBDXZ ; std::_String_val<std::_Simple_types<char> >::_Myptr
PUBLIC	??0?$_String_alloc@$0A@U?$_String_base_types@DV?$allocator@D@std@@@std@@@std@@QAE@ABV?$allocator@D@1@@Z ; std::_String_alloc<0,std::_String_base_types<char,std::allocator<char> > >::_String_alloc<0,std::_String_base_types<char,std::allocator<char> > >
PUBLIC	?_Getal@?$_String_alloc@$0A@U?$_String_base_types@DV?$allocator@D@std@@@std@@@std@@QBE?AU?$_Wrap_alloc@V?$allocator@D@std@@@2@XZ ; std::_String_alloc<0,std::_String_base_types<char,std::allocator<char> > >::_Getal
PUBLIC	??0?$basic_string@DU?$char_traits@D@std@@V?$allocator@D@2@@std@@QAE@PBD@Z ; std::basic_string<char,std::char_traits<char>,std::allocator<char> >::basic_string<char,std::char_traits<char>,std::allocator<char> >
PUBLIC	??1?$basic_string@DU?$char_traits@D@std@@V?$allocator@D@2@@std@@QAE@XZ ; std::basic_string<char,std::char_traits<char>,std::allocator<char> >::~basic_string<char,std::char_traits<char>,std::allocator<char> >
PUBLIC	?assign@?$basic_string@DU?$char_traits@D@std@@V?$allocator@D@2@@std@@QAEAAV12@ABV12@II@Z ; std::basic_string<char,std::char_traits<char>,std::allocator<char> >::assign
PUBLIC	?assign@?$basic_string@DU?$char_traits@D@std@@V?$allocator@D@2@@std@@QAEAAV12@PBDI@Z ; std::basic_string<char,std::char_traits<char>,std::allocator<char> >::assign
PUBLIC	?assign@?$basic_string@DU?$char_traits@D@std@@V?$allocator@D@2@@std@@QAEAAV12@PBD@Z ; std::basic_string<char,std::char_traits<char>,std::allocator<char> >::assign
PUBLIC	?erase@?$basic_string@DU?$char_traits@D@std@@V?$allocator@D@2@@std@@QAEAAV12@I@Z ; std::basic_string<char,std::char_traits<char>,std::allocator<char> >::erase
PUBLIC	?erase@?$basic_string@DU?$char_traits@D@std@@V?$allocator@D@2@@std@@QAEAAV12@II@Z ; std::basic_string<char,std::char_traits<char>,std::allocator<char> >::erase
PUBLIC	?c_str@?$basic_string@DU?$char_traits@D@std@@V?$allocator@D@2@@std@@QBEPBDXZ ; std::basic_string<char,std::char_traits<char>,std::allocator<char> >::c_str
PUBLIC	?size@?$basic_string@DU?$char_traits@D@std@@V?$allocator@D@2@@std@@QBEIXZ ; std::basic_string<char,std::char_traits<char>,std::allocator<char> >::size
PUBLIC	?max_size@?$basic_string@DU?$char_traits@D@std@@V?$allocator@D@2@@std@@QBEIXZ ; std::basic_string<char,std::char_traits<char>,std::allocator<char> >::max_size
PUBLIC	?_Copy@?$basic_string@DU?$char_traits@D@std@@V?$allocator@D@2@@std@@QAEXII@Z ; std::basic_string<char,std::char_traits<char>,std::allocator<char> >::_Copy
PUBLIC	?_Eos@?$basic_string@DU?$char_traits@D@std@@V?$allocator@D@2@@std@@QAEXI@Z ; std::basic_string<char,std::char_traits<char>,std::allocator<char> >::_Eos
PUBLIC	?_Grow@?$basic_string@DU?$char_traits@D@std@@V?$allocator@D@2@@std@@QAE_NI_N@Z ; std::basic_string<char,std::char_traits<char>,std::allocator<char> >::_Grow
PUBLIC	?_Inside@?$basic_string@DU?$char_traits@D@std@@V?$allocator@D@2@@std@@QAE_NPBD@Z ; std::basic_string<char,std::char_traits<char>,std::allocator<char> >::_Inside
PUBLIC	?_Tidy@?$basic_string@DU?$char_traits@D@std@@V?$allocator@D@2@@std@@QAEX_NI@Z ; std::basic_string<char,std::char_traits<char>,std::allocator<char> >::_Tidy
PUBLIC	?_Xlen@?$basic_string@DU?$char_traits@D@std@@V?$allocator@D@2@@std@@QBEXXZ ; std::basic_string<char,std::char_traits<char>,std::allocator<char> >::_Xlen
PUBLIC	?_Xran@?$basic_string@DU?$char_traits@D@std@@V?$allocator@D@2@@std@@QBEXXZ ; std::basic_string<char,std::char_traits<char>,std::allocator<char> >::_Xran
PUBLIC	??0out_of_range@std@@QAE@ABV?$basic_string@DU?$char_traits@D@std@@V?$allocator@D@2@@1@@Z ; std::out_of_range::out_of_range
PUBLIC	??1out_of_range@std@@UAE@XZ			; std::out_of_range::~out_of_range
PUBLIC	??0out_of_range@std@@QAE@ABV01@@Z		; std::out_of_range::out_of_range
PUBLIC	??_Gout_of_range@std@@UAEPAXI@Z			; std::out_of_range::`scalar deleting destructor'
PUBLIC	??B?$VuBin@VVuSessionEntity@@@@QBE_NXZ		; VuBin<VuSessionEntity>::operator bool
PUBLIC	?get@?$VuBin@VVuSessionEntity@@@@QBEPAVVuSessionEntity@@XZ ; VuBin<VuSessionEntity>::get
PUBLIC	?get@?$VuBin@VVuEntity@@@@QBEPAVVuEntity@@XZ	; VuBin<VuEntity>::get
PUBLIC	?IsSimBase@FalconEntity@@UAE_NXZ		; FalconEntity::IsSimBase
PUBLIC	?IsCampaign@FalconEntity@@QAEHXZ		; FalconEntity::IsCampaign
PUBLIC	?IsSim@FalconEntity@@QAEHXZ			; FalconEntity::IsSim
PUBLIC	?UnSetFalcFlag@FalconEntity@@QAEXH@Z		; FalconEntity::UnSetFalcFlag
PUBLIC	?IsSetFalcFlag@FalconEntity@@QAEHH@Z		; FalconEntity::IsSetFalcFlag
PUBLIC	?SetRadarMode@FalconEntity@@UAEXE@Z		; FalconEntity::SetRadarMode
PUBLIC	?ReturnToSearch@FalconEntity@@UAEXXZ		; FalconEntity::ReturnToSearch
PUBLIC	?SetSearchMode@FalconEntity@@UAEXE@Z		; FalconEntity::SetSearchMode
PUBLIC	?IsMissile@FalconEntity@@UAEHXZ			; FalconEntity::IsMissile
PUBLIC	?IsLauncher@FalconEntity@@UAEHXZ		; FalconEntity::IsLauncher
PUBLIC	?IsBomb@FalconEntity@@UAEHXZ			; FalconEntity::IsBomb
PUBLIC	?IsGun@FalconEntity@@UAEHXZ			; FalconEntity::IsGun
PUBLIC	?IsMover@FalconEntity@@UAEHXZ			; FalconEntity::IsMover
PUBLIC	?IsVehicle@FalconEntity@@UAEHXZ			; FalconEntity::IsVehicle
PUBLIC	?IsStatic@FalconEntity@@UAEHXZ			; FalconEntity::IsStatic
PUBLIC	?IsHelicopter@FalconEntity@@UAEHXZ		; FalconEntity::IsHelicopter
PUBLIC	?IsEject@FalconEntity@@UAEHXZ			; FalconEntity::IsEject
PUBLIC	?IsAirplane@FalconEntity@@UAEHXZ		; FalconEntity::IsAirplane
PUBLIC	?IsGroundVehicle@FalconEntity@@UAEHXZ		; FalconEntity::IsGroundVehicle
PUBLIC	?IsShip@FalconEntity@@UAEHXZ			; FalconEntity::IsShip
PUBLIC	?IsWeapon@FalconEntity@@UAEHXZ			; FalconEntity::IsWeapon
PUBLIC	?IsExploding@FalconEntity@@UAEHXZ		; FalconEntity::IsExploding
PUBLIC	?IsDead@FalconEntity@@UAEHXZ			; FalconEntity::IsDead
PUBLIC	?GetMovementType@FalconEntity@@UAE?AW4MoveType@@XZ ; FalconEntity::GetMovementType
PUBLIC	?IsObjective@FalconEntity@@UAEHXZ		; FalconEntity::IsObjective
PUBLIC	?IsBattalion@FalconEntity@@UAEHXZ		; FalconEntity::IsBattalion
PUBLIC	?IsBrigade@FalconEntity@@UAEHXZ			; FalconEntity::IsBrigade
PUBLIC	?IsSquadron@FalconEntity@@UAEHXZ		; FalconEntity::IsSquadron
PUBLIC	?IsPackage@FalconEntity@@UAEHXZ			; FalconEntity::IsPackage
PUBLIC	?IsTeam@FalconEntity@@UAEHXZ			; FalconEntity::IsTeam
PUBLIC	?IsTaskForce@FalconEntity@@UAEHXZ		; FalconEntity::IsTaskForce
PUBLIC	?SetAQUIREtimer@FalconEntity@@UAEXK@Z		; FalconEntity::SetAQUIREtimer
PUBLIC	?SetSEARCHtimer@FalconEntity@@UAEXK@Z		; FalconEntity::SetSEARCHtimer
PUBLIC	?SetStepSearchMode@FalconEntity@@UAEXE@Z	; FalconEntity::SetStepSearchMode
PUBLIC	?GetAQUIREtimer@FalconEntity@@UAEKXZ		; FalconEntity::GetAQUIREtimer
PUBLIC	?GetSEARCHtimer@FalconEntity@@UAEKXZ		; FalconEntity::GetSEARCHtimer
PUBLIC	?mlSinCos@@YAXPAUmlTrig@@M@Z			; mlSinCos
PUBLIC	?checked_atan2@@YANNN@Z				; checked_atan2
PUBLIC	?SetWPFlag@WayPointClass@@QAEXK@Z		; WayPointClass::SetWPFlag
PUBLIC	?GetWPTargetID@WayPointClass@@QAE?AVVU_ID@@XZ	; WayPointClass::GetWPTargetID
PUBLIC	?GetWPTarget@WayPointClass@@QAEPAVCampBaseClass@@XZ ; WayPointClass::GetWPTarget
PUBLIC	?GetWPAction@WayPointClass@@QAEHXZ		; WayPointClass::GetWPAction
PUBLIC	?GetWPFlags@WayPointClass@@QAEKXZ		; WayPointClass::GetWPFlags
PUBLIC	?GetNextWP@WayPointClass@@QAEPAV1@XZ		; WayPointClass::GetNextWP
PUBLIC	?GetPrevWP@WayPointClass@@QAEPAV1@XZ		; WayPointClass::GetPrevWP
PUBLIC	?GetWPAltitude@WayPointClass@@QAEHXZ		; WayPointClass::GetWPAltitude
PUBLIC	?GetWPAltitudeLevel@WayPointClass@@QAEHXZ	; WayPointClass::GetWPAltitudeLevel
PUBLIC	?GetWPArrivalTime@WayPointClass@@QAEKXZ		; WayPointClass::GetWPArrivalTime
PUBLIC	?GetWPDepartureTime@WayPointClass@@QAEKXZ	; WayPointClass::GetWPDepartureTime
PUBLIC	?GetWPLocation@WayPointClass@@QBEXPAF0@Z	; WayPointClass::GetWPLocation
PUBLIC	??0InvalidBufferException@@QAE@ABV?$basic_string@DU?$char_traits@D@std@@V?$allocator@D@2@@std@@@Z ; InvalidBufferException::InvalidBufferException
PUBLIC	??1InvalidBufferException@@UAE@XZ		; InvalidBufferException::~InvalidBufferException
PUBLIC	??0InvalidBufferException@@QAE@ABV0@@Z		; InvalidBufferException::InvalidBufferException
PUBLIC	??_GInvalidBufferException@@UAEPAXI@Z		; InvalidBufferException::`scalar deleting destructor'
PUBLIC	?memcpychk@@YAXPAXPAPAEIPAJ@Z			; memcpychk
PUBLIC	?UseId@IdNamespace@@QAEXK@Z			; IdNamespace::UseId
PUBLIC	?GetSpotTime@CampBaseClass@@QBEKXZ		; CampBaseClass::GetSpotTime
PUBLIC	?GetSpotted@CampBaseClass@@QBEFXZ		; CampBaseClass::GetSpotted
PUBLIC	?GetCampID@CampBaseClass@@UAEFXZ		; CampBaseClass::GetCampID
PUBLIC	?GetTeam@CampBaseClass@@UAEEXZ			; CampBaseClass::GetTeam
PUBLIC	?GetCountry@CampBaseClass@@UAEEXZ		; CampBaseClass::GetCountry
PUBLIC	?StepRadar@CampBaseClass@@UAEHHHM@Z		; CampBaseClass::StepRadar
PUBLIC	?GetOwner@CampBaseClass@@QAEEXZ			; CampBaseClass::GetOwner
PUBLIC	?GetMissilesFlying@CampBaseClass@@UAEHXZ	; CampBaseClass::GetMissilesFlying
PUBLIC	?IsCampBase@CampBaseClass@@UAE_NXZ		; CampBaseClass::IsCampBase
PUBLIC	?IsEmitting@CampBaseClass@@UAEHXZ		; CampBaseClass::IsEmitting
PUBLIC	?IsChecked@CampBaseClass@@QAEHXZ		; CampBaseClass::IsChecked
PUBLIC	?IsAwake@CampBaseClass@@QAEHXZ			; CampBaseClass::IsAwake
PUBLIC	?IsAggregate@CampBaseClass@@QAEHXZ		; CampBaseClass::IsAggregate
PUBLIC	?IsTacan@CampBaseClass@@QAEHXZ			; CampBaseClass::IsTacan
PUBLIC	?HasEntity@CampBaseClass@@UBEHPAVVuEntity@@@Z	; CampBaseClass::HasEntity
PUBLIC	?GetDomain@CampBaseClass@@QBEEXZ		; CampBaseClass::GetDomain
PUBLIC	?GetType@CampBaseClass@@QBEEXZ			; CampBaseClass::GetType
PUBLIC	?GetSType@CampBaseClass@@QBEEXZ			; CampBaseClass::GetSType
PUBLIC	?SetSpottedTime@CampBaseClass@@QAEXK@Z		; CampBaseClass::SetSpottedTime
PUBLIC	?SetChecked@CampBaseClass@@QAEXXZ		; CampBaseClass::SetChecked
PUBLIC	?get@?$VuBin@VCampBaseClass@@@@QBEPAVCampBaseClass@@XZ ; VuBin<CampBaseClass>::get
PUBLIC	?IsNearfront@ObjectiveClass@@QAEHXZ		; ObjectiveClass::IsNearfront
PUBLIC	?IsGCI@ObjectiveClass@@QAEHXZ			; ObjectiveClass::IsGCI
PUBLIC	?HasNCTR@ObjectiveClass@@QAEHXZ			; ObjectiveClass::HasNCTR
PUBLIC	??0LoadoutStruct@@QAE@XZ			; LoadoutStruct::LoadoutStruct
PUBLIC	??4LoadoutStruct@@QAEABU0@ABU0@@Z		; LoadoutStruct::operator=
PUBLIC	??0LoadoutArray@@QAE@XZ				; LoadoutArray::LoadoutArray
PUBLIC	?GetRoster@UnitClass@@QAEJXZ			; UnitClass::GetRoster
PUBLIC	?GetUnitFlags@UnitClass@@QAEJXZ			; UnitClass::GetUnitFlags
PUBLIC	?GetTactic@UnitClass@@QAEEXZ			; UnitClass::GetTactic
PUBLIC	?GetCurrentWaypoint@UnitClass@@QAEGXZ		; UnitClass::GetCurrentWaypoint
PUBLIC	?GetReinforcement@UnitClass@@QAEFXZ		; UnitClass::GetReinforcement
PUBLIC	?GetOdds@UnitClass@@QAEFXZ			; UnitClass::GetOdds
PUBLIC	?CanShootWeapon@UnitClass@@UAEHH@Z		; UnitClass::CanShootWeapon
PUBLIC	?GetUnitDeaggregationData@UnitClass@@UAEPAVUnitDeaggregationData@@XZ ; UnitClass::GetUnitDeaggregationData
PUBLIC	?ClearDeaggregationData@UnitClass@@UAEXXZ	; UnitClass::ClearDeaggregationData
PUBLIC	?Father@UnitClass@@UBEHXZ			; UnitClass::Father
PUBLIC	?AdjustForSupply@UnitClass@@UAEMXZ		; UnitClass::AdjustForSupply
PUBLIC	?GetUnitSupplyNeed@UnitClass@@UAEHH@Z		; UnitClass::GetUnitSupplyNeed
PUBLIC	?GetUnitFuelNeed@UnitClass@@UAEHH@Z		; UnitClass::GetUnitFuelNeed
PUBLIC	?SupplyUnit@UnitClass@@UAEXHH@Z			; UnitClass::SupplyUnit
PUBLIC	?IsUnit@UnitClass@@UAEHXZ			; UnitClass::IsUnit
PUBLIC	?IsDead@UnitClass@@UBEHXZ			; UnitClass::IsDead
PUBLIC	?Engaged@UnitClass@@QBEHXZ			; UnitClass::Engaged
PUBLIC	?Moving@UnitClass@@QBEHXZ			; UnitClass::Moving
PUBLIC	?Cargo@UnitClass@@QBEHXZ			; UnitClass::Cargo
PUBLIC	?Combat@UnitClass@@QBEHXZ			; UnitClass::Combat
PUBLIC	?Broken@UnitClass@@QBEHXZ			; UnitClass::Broken
PUBLIC	?Aborted@UnitClass@@QBEHXZ			; UnitClass::Aborted
PUBLIC	?Losses@UnitClass@@QBEHXZ			; UnitClass::Losses
PUBLIC	?Final@UnitClass@@QBEHXZ			; UnitClass::Final
PUBLIC	?HasPilots@UnitClass@@QAEHXZ			; UnitClass::HasPilots
PUBLIC	?Diverted@UnitClass@@QAEHXZ			; UnitClass::Diverted
PUBLIC	?Fired@UnitClass@@QAEHXZ			; UnitClass::Fired
PUBLIC	?Locked@UnitClass@@QAEHXZ			; UnitClass::Locked
PUBLIC	?NoAbort@UnitClass@@QAEHXZ			; UnitClass::NoAbort
PUBLIC	?SetUnitAltitude@UnitClass@@QAEXH@Z		; UnitClass::SetUnitAltitude
PUBLIC	?GetUnitAltitude@UnitClass@@QAEHXZ		; UnitClass::GetUnitAltitude
PUBLIC	?SetUnitDestination@UnitClass@@QAEXFF@Z		; UnitClass::SetUnitDestination
PUBLIC	?SetTarget@UnitClass@@QAEXPAVFalconEntity@@@Z	; UnitClass::SetTarget
PUBLIC	?SetUnitTactic@UnitClass@@QAEXE@Z		; UnitClass::SetUnitTactic
PUBLIC	?GetNumVehicles@UnitClass@@QAEHH@Z		; UnitClass::GetNumVehicles
PUBLIC	?GetTarget@UnitClass@@QAEPAVFalconEntity@@XZ	; UnitClass::GetTarget
PUBLIC	?GetTargetID@UnitClass@@QAE?AVVU_ID@@XZ		; UnitClass::GetTargetID
PUBLIC	?GetUnitMoved@UnitClass@@QBEHXZ			; UnitClass::GetUnitMoved
PUBLIC	?GetUnitTactic@UnitClass@@QBEHXZ		; UnitClass::GetUnitTactic
PUBLIC	?GetFirstUnitWP@UnitClass@@QAEPAVWayPointClass@@XZ ; UnitClass::GetFirstUnitWP
PUBLIC	?SetUnitRole@UnitClass@@UAEXE@Z			; UnitClass::SetUnitRole
PUBLIC	?SetUnitMissionTarget@UnitClass@@UAEXH@Z	; UnitClass::SetUnitMissionTarget
PUBLIC	?SetUnitAirbase@UnitClass@@UAEXVVU_ID@@@Z	; UnitClass::SetUnitAirbase
PUBLIC	?GetAirTargetID@UnitClass@@UAE?AVVU_ID@@XZ	; UnitClass::GetAirTargetID
PUBLIC	?GetAirTarget@UnitClass@@UAEPAVFalconEntity@@XZ	; UnitClass::GetAirTarget
PUBLIC	?GetUnitNormalRole@UnitClass@@UAEHXZ		; UnitClass::GetUnitNormalRole
PUBLIC	?SetUnitSpecialty@UnitClass@@UAEXH@Z		; UnitClass::SetUnitSpecialty
PUBLIC	?SetUnitSupply@UnitClass@@UAEXH@Z		; UnitClass::SetUnitSupply
PUBLIC	?SetUnitMorale@UnitClass@@UAEXH@Z		; UnitClass::SetUnitMorale
PUBLIC	?SetSquadronFuel@UnitClass@@UAEXJ@Z		; UnitClass::SetSquadronFuel
PUBLIC	?SetUnitStores@UnitClass@@UAEXHE@Z		; UnitClass::SetUnitStores
PUBLIC	?SetLastResupply@UnitClass@@UAEXH@Z		; UnitClass::SetLastResupply
PUBLIC	?SetLastResupplyTime@UnitClass@@UAEXK@Z		; UnitClass::SetLastResupplyTime
PUBLIC	?GetUnitSpecialty@UnitClass@@UAEHXZ		; UnitClass::GetUnitSpecialty
PUBLIC	?GetUnitSupply@UnitClass@@UAEHXZ		; UnitClass::GetUnitSupply
PUBLIC	?GetUnitMorale@UnitClass@@UAEHXZ		; UnitClass::GetUnitMorale
PUBLIC	?GetSquadronFuel@UnitClass@@UAEJXZ		; UnitClass::GetSquadronFuel
PUBLIC	?GetUnitStores@UnitClass@@UAEEH@Z		; UnitClass::GetUnitStores
PUBLIC	?GetLastResupplyTime@UnitClass@@UAEKXZ		; UnitClass::GetLastResupplyTime
PUBLIC	?GetLastResupply@UnitClass@@UAEHXZ		; UnitClass::GetLastResupply
PUBLIC	?BuildPackage@UnitClass@@UAEHPAVMissionRequestClass@@PAVFalconPrivateList@@@Z ; UnitClass::BuildPackage
PUBLIC	?HandleRequestReceipt@UnitClass@@UAEXHHVVU_ID@@@Z ; UnitClass::HandleRequestReceipt
PUBLIC	?SetUnitAssemblyPoint@UnitClass@@UAEXHFF@Z	; UnitClass::SetUnitAssemblyPoint
PUBLIC	?SetUnitPrimaryObj@UnitClass@@UAEXVVU_ID@@@Z	; UnitClass::SetUnitPrimaryObj
PUBLIC	?SetUnitSecondaryObj@UnitClass@@UAEXVVU_ID@@@Z	; UnitClass::SetUnitSecondaryObj
PUBLIC	?SetUnitObjective@UnitClass@@UAEXVVU_ID@@@Z	; UnitClass::SetUnitObjective
PUBLIC	?SetUnitOrders@UnitClass@@UAEXH@Z		; UnitClass::SetUnitOrders
PUBLIC	?SetUnitOrders@UnitClass@@UAEXHVVU_ID@@@Z	; UnitClass::SetUnitOrders
PUBLIC	?SetUnitFatigue@UnitClass@@UAEXH@Z		; UnitClass::SetUnitFatigue
PUBLIC	?SetUnitMode@UnitClass@@UAEXH@Z			; UnitClass::SetUnitMode
PUBLIC	?SetUnitPosition@UnitClass@@UAEXH@Z		; UnitClass::SetUnitPosition
PUBLIC	?SetUnitDivision@UnitClass@@UAEXH@Z		; UnitClass::SetUnitDivision
PUBLIC	?SetUnitHeading@UnitClass@@UAEXH@Z		; UnitClass::SetUnitHeading
PUBLIC	?GetUnitPrimaryObj@UnitClass@@UAEPAVObjectiveClass@@XZ ; UnitClass::GetUnitPrimaryObj
PUBLIC	?GetUnitSecondaryObj@UnitClass@@UAEPAVObjectiveClass@@XZ ; UnitClass::GetUnitSecondaryObj
PUBLIC	?GetUnitObjective@UnitClass@@UAEPAVObjectiveClass@@XZ ; UnitClass::GetUnitObjective
PUBLIC	?GetUnitPrimaryObjID@UnitClass@@UAE?AVVU_ID@@XZ	; UnitClass::GetUnitPrimaryObjID
PUBLIC	?GetUnitSecondaryObjID@UnitClass@@UAE?AVVU_ID@@XZ ; UnitClass::GetUnitSecondaryObjID
PUBLIC	?GetUnitObjectiveID@UnitClass@@UAE?AVVU_ID@@XZ	; UnitClass::GetUnitObjectiveID
PUBLIC	?GetUnitOrders@UnitClass@@UAEHXZ		; UnitClass::GetUnitOrders
PUBLIC	?GetUnitFatigue@UnitClass@@UAEHXZ		; UnitClass::GetUnitFatigue
PUBLIC	?GetUnitElement@UnitClass@@UAEHXZ		; UnitClass::GetUnitElement
PUBLIC	?GetUnitMode@UnitClass@@UAEHXZ			; UnitClass::GetUnitMode
PUBLIC	?GetUnitPosition@UnitClass@@UAEHXZ		; UnitClass::GetUnitPosition
PUBLIC	?GetUnitDivision@UnitClass@@UAEHXZ		; UnitClass::GetUnitDivision
PUBLIC	?GetUnitHeading@UnitClass@@UAEHXZ		; UnitClass::GetUnitHeading
PUBLIC	?SetUnitNextMove@UnitClass@@UAEXXZ		; UnitClass::SetUnitNextMove
PUBLIC	?ClearUnitPath@UnitClass@@UAEXXZ		; UnitClass::ClearUnitPath
PUBLIC	?GetNextMoveDirection@UnitClass@@UAEHXZ		; UnitClass::GetNextMoveDirection
PUBLIC	?SetUnitCurrentDestination@UnitClass@@UAEXFF@Z	; UnitClass::SetUnitCurrentDestination
PUBLIC	?GetUnitCurrentDestination@UnitClass@@UAEXPAF0@Z ; UnitClass::GetUnitCurrentDestination
PUBLIC	?GetObjMovementType@UnitClass@@UAE?AW4MoveType@@PAVObjectiveClass@@H@Z ; UnitClass::GetObjMovementType
PUBLIC	?CheckForSurrender@UnitClass@@UAEHXZ		; UnitClass::CheckForSurrender
PUBLIC	?BuildMission@UnitClass@@UAEHXZ			; UnitClass::BuildMission
PUBLIC	?RallyUnit@UnitClass@@UAEHH@Z			; UnitClass::RallyUnit
PUBLIC	?GetUnitParent@UnitClass@@UBEPAV1@XZ		; UnitClass::GetUnitParent
PUBLIC	?GetFirstUnitElement@UnitClass@@UBEPAV1@XZ	; UnitClass::GetFirstUnitElement
PUBLIC	?GetNextUnitElement@UnitClass@@UBEPAV1@XZ	; UnitClass::GetNextUnitElement
PUBLIC	?GetUnitElement@UnitClass@@UAEPAV1@H@Z		; UnitClass::GetUnitElement
PUBLIC	?GetUnitElementByID@UnitClass@@UAEPAV1@H@Z	; UnitClass::GetUnitElementByID
PUBLIC	?GetPrevUnitElement@UnitClass@@UAEPAV1@PAV1@@Z	; UnitClass::GetPrevUnitElement
PUBLIC	?AddUnitChild@UnitClass@@UAEXPAV1@@Z		; UnitClass::AddUnitChild
PUBLIC	?DisposeChildren@UnitClass@@UAEXXZ		; UnitClass::DisposeChildren
PUBLIC	?RemoveChild@UnitClass@@UAEXVVU_ID@@@Z		; UnitClass::RemoveChild
PUBLIC	?ReorganizeUnit@UnitClass@@UAEXXZ		; UnitClass::ReorganizeUnit
PUBLIC	?UpdateParentStatistics@UnitClass@@UAEHXZ	; UnitClass::UpdateParentStatistics
PUBLIC	?get@?$VuBin@VFalconEntity@@@@QBEPAVFalconEntity@@XZ ; VuBin<FalconEntity>::get
PUBLIC	?GetVt@AirUnitClass@@UBEMXZ			; AirUnitClass::GetVt
PUBLIC	?GetKias@AirUnitClass@@UBEMXZ			; AirUnitClass::GetKias
PUBLIC	?GetAwacs@PackageClass@@QAE?AVVU_ID@@XZ		; PackageClass::GetAwacs
PUBLIC	?GetJStar@PackageClass@@QAE?AVVU_ID@@XZ		; PackageClass::GetJStar
PUBLIC	?GetECM@PackageClass@@QAE?AVVU_ID@@XZ		; PackageClass::GetECM
PUBLIC	?GetTanker@PackageClass@@QAE?AVVU_ID@@XZ	; PackageClass::GetTanker
PUBLIC	?GetTakeoff@PackageClass@@QAEKXZ		; PackageClass::GetTakeoff
PUBLIC	?GetFlights@PackageClass@@QAEEXZ		; PackageClass::GetFlights
PUBLIC	?GetIngress@PackageClass@@QAEPAVWayPointClass@@XZ ; PackageClass::GetIngress
PUBLIC	?GetEgress@PackageClass@@QAEPAVWayPointClass@@XZ ; PackageClass::GetEgress
PUBLIC	?GetMissionRequest@PackageClass@@QAEPAVMissionRequestClass@@XZ ; PackageClass::GetMissionRequest
PUBLIC	?GetPilotSkill@PilotClass@@QAEHXZ		; PilotClass::GetPilotSkill
PUBLIC	?GetPilotRating@PilotClass@@QAEHXZ		; PilotClass::GetPilotRating
PUBLIC	?SetPilotSR@PilotClass@@QAEXEE@Z		; PilotClass::SetPilotSR
PUBLIC	?GetOverrideWP@FlightClass@@QAEPAVWayPointClass@@XZ ; FlightClass::GetOverrideWP
PUBLIC	?GetEvalFlags@FlightClass@@QAEEXZ		; FlightClass::GetEvalFlags
PUBLIC	?CombatClass@FlightClass@@UAEHXZ		; FlightClass::CombatClass
PUBLIC	?SetLastDirection@FlightClass@@QAEXE@Z		; FlightClass::SetLastDirection
PUBLIC	?SetPackage@FlightClass@@QAEXVVU_ID@@@Z		; FlightClass::SetPackage
PUBLIC	?SetEvalFlag@FlightClass@@QAEXEH@Z		; FlightClass::SetEvalFlag
PUBLIC	?ClearEvalFlag@FlightClass@@QAEXE@Z		; FlightClass::ClearEvalFlag
PUBLIC	?SetAssignedTarget@FlightClass@@QAEXVVU_ID@@@Z	; FlightClass::SetAssignedTarget
PUBLIC	?ClearAssignedTarget@FlightClass@@QAEXXZ	; FlightClass::ClearAssignedTarget
PUBLIC	?SetOverrideWP@FlightClass@@QAEXPAVWayPointClass@@_N@Z ; FlightClass::SetOverrideWP
PUBLIC	?MakeStoresDirty@FlightClass@@QAEXXZ		; FlightClass::MakeStoresDirty
PUBLIC	?MakeFlightDirty@FlightClass@@QAEXW4Dirty_Flight@@W4Dirtyness@@@Z ; FlightClass::MakeFlightDirty
PUBLIC	?WriteDirty@FlightClass@@QAEXPAPAE@Z		; FlightClass::WriteDirty
PUBLIC	?ReadDirty@FlightClass@@QAEXPAPAEPAJ@Z		; FlightClass::ReadDirty
PUBLIC	??0FlightClass@@QAE@GPAVUnitClass@@0@Z		; FlightClass::FlightClass
PUBLIC	??0FlightClass@@QAE@PAPAEPAJ@Z			; FlightClass::FlightClass
PUBLIC	??1FlightClass@@UAE@XZ				; FlightClass::~FlightClass
PUBLIC	?SaveSize@FlightClass@@UAEHXZ			; FlightClass::SaveSize
PUBLIC	?Save@FlightClass@@UAEHPAPAE@Z			; FlightClass::Save
PUBLIC	?RemovalCallback@FlightClass@@UAEHXZ		; FlightClass::RemovalCallback
PUBLIC	?Handle@FlightClass@@UAEHPAVVuFullUpdateEvent@@@Z ; FlightClass::Handle
PUBLIC	?GetDeaggregationPoint@FlightClass@@UAEHHPAPAVCampBaseClass@@@Z ; FlightClass::GetDeaggregationPoint
PUBLIC	?ShouldDeaggregate@FlightClass@@UAEHXZ		; FlightClass::ShouldDeaggregate
PUBLIC	?Reaction@FlightClass@@UAEHPAVCampBaseClass@@HM@Z ; FlightClass::Reaction
PUBLIC	?MoveUnit@FlightClass@@UAEHK@Z			; FlightClass::MoveUnit
PUBLIC	?DoCombat@FlightClass@@UAEHXZ			; FlightClass::DoCombat
PUBLIC	?ChooseTactic@FlightClass@@UAEHXZ		; FlightClass::ChooseTactic
PUBLIC	?CheckTactic@FlightClass@@UAEHH@Z		; FlightClass::CheckTactic
PUBLIC	?DetectOnMove@FlightClass@@UAEHXZ		; FlightClass::DetectOnMove
PUBLIC	?ChooseTarget@FlightClass@@UAEHXZ		; FlightClass::ChooseTarget
PUBLIC	?Real@FlightClass@@UAEHXZ			; FlightClass::Real
PUBLIC	?CollectWeapons@FlightClass@@UAEHPAEW4MoveType@@QAFQAEH@Z ; FlightClass::CollectWeapons
PUBLIC	?MaxUpdateTime@FlightClass@@UBEKXZ		; FlightClass::MaxUpdateTime
PUBLIC	?CombatTime@FlightClass@@UAEKXZ			; FlightClass::CombatTime
PUBLIC	?IsFlight@FlightClass@@UBEHXZ			; FlightClass::IsFlight
PUBLIC	?GetDetectionRange@FlightClass@@UAEHH@Z		; FlightClass::GetDetectionRange
PUBLIC	?GetRadarMode@FlightClass@@UAEHXZ		; FlightClass::GetRadarMode
PUBLIC	?IsSPJamming@FlightClass@@UAEHXZ		; FlightClass::IsSPJamming
PUBLIC	?IsAreaJamming@FlightClass@@UAEHXZ		; FlightClass::IsAreaJamming
PUBLIC	?HasSPJamming@FlightClass@@UAEHXZ		; FlightClass::HasSPJamming
PUBLIC	?HasAreaJamming@FlightClass@@UAEHXZ		; FlightClass::HasAreaJamming
PUBLIC	?GetVehicleDeagData@FlightClass@@UAEHPAVSimInitDataClass@@H@Z ; FlightClass::GetVehicleDeagData
PUBLIC	?SetUnitLastMove@FlightClass@@UAEXK@Z		; FlightClass::SetUnitLastMove
PUBLIC	?SetCombatTime@FlightClass@@UAEXK@Z		; FlightClass::SetCombatTime
PUBLIC	?SetBurntFuel@FlightClass@@UAEXJ@Z		; FlightClass::SetBurntFuel
PUBLIC	?SetUnitMission@FlightClass@@UAEXE@Z		; FlightClass::SetUnitMission
PUBLIC	?SetUnitPriority@FlightClass@@UAEXH@Z		; FlightClass::SetUnitPriority
PUBLIC	?SetUnitMissionID@FlightClass@@UAEXH@Z		; FlightClass::SetUnitMissionID
PUBLIC	?SetUnitMissionTarget@FlightClass@@UAEXVVU_ID@@@Z ; FlightClass::SetUnitMissionTarget
PUBLIC	?SetUnitTOT@FlightClass@@UAEXK@Z		; FlightClass::SetUnitTOT
PUBLIC	?SetUnitSquadron@FlightClass@@UAEXVVU_ID@@@Z	; FlightClass::SetUnitSquadron
PUBLIC	?SimSetLocation@FlightClass@@UAEXMMM@Z		; FlightClass::SimSetLocation
PUBLIC	?GetRealPosition@FlightClass@@UAEXPAM00@Z	; FlightClass::GetRealPosition
PUBLIC	?SimSetOrientation@FlightClass@@UAEXMMM@Z	; FlightClass::SimSetOrientation
PUBLIC	?SetLoadout@FlightClass@@UAEXPAULoadoutStruct@@H@Z ; FlightClass::SetLoadout
PUBLIC	?RemoveLoadout@FlightClass@@UAEXXZ		; FlightClass::RemoveLoadout
PUBLIC	?GetLoadout@FlightClass@@UAEPAULoadoutStruct@@H@Z ; FlightClass::GetLoadout
PUBLIC	?GetNumberOfLoadouts@FlightClass@@UAEHXZ	; FlightClass::GetNumberOfLoadouts
PUBLIC	?GetMoveTime@FlightClass@@UAEKXZ		; FlightClass::GetMoveTime
PUBLIC	?GetCombatTime@FlightClass@@UAEKXZ		; FlightClass::GetCombatTime
PUBLIC	?GetBurntFuel@FlightClass@@UAEHXZ		; FlightClass::GetBurntFuel
PUBLIC	?GetUnitMission@FlightClass@@UAE?AW4MissionTypeEnum@@XZ ; FlightClass::GetUnitMission
PUBLIC	?GetUnitCurrentRole@FlightClass@@UBEHXZ		; FlightClass::GetUnitCurrentRole
PUBLIC	?GetUnitPriority@FlightClass@@UAEHXZ		; FlightClass::GetUnitPriority
PUBLIC	?GetUnitWeaponId@FlightClass@@UAEHHH@Z		; FlightClass::GetUnitWeaponId
PUBLIC	?GetUnitWeaponCount@FlightClass@@UAEHHH@Z	; FlightClass::GetUnitWeaponCount
PUBLIC	?GetUnitMissionID@FlightClass@@UAEHXZ		; FlightClass::GetUnitMissionID
PUBLIC	?GetUnitMissionTarget@FlightClass@@UAEPAVCampBaseClass@@XZ ; FlightClass::GetUnitMissionTarget
PUBLIC	?GetUnitMissionTargetID@FlightClass@@UAE?AVVU_ID@@XZ ; FlightClass::GetUnitMissionTargetID
PUBLIC	?GetUnitTOT@FlightClass@@UAEKXZ			; FlightClass::GetUnitTOT
PUBLIC	?GetUnitSquadron@FlightClass@@UAEPAVUnitClass@@XZ ; FlightClass::GetUnitSquadron
PUBLIC	?GetUnitSquadronID@FlightClass@@UAE?AVVU_ID@@XZ	; FlightClass::GetUnitSquadronID
PUBLIC	?GetUnitAirbase@FlightClass@@UAEPAVCampBaseClass@@XZ ; FlightClass::GetUnitAirbase
PUBLIC	?GetUnitAirbaseID@FlightClass@@UAE?AVVU_ID@@XZ	; FlightClass::GetUnitAirbaseID
PUBLIC	?LoadWeapons@FlightClass@@UAEHPAXPAEW4MoveType@@HHH@Z ; FlightClass::LoadWeapons
PUBLIC	?DumpWeapons@FlightClass@@UAEHXZ		; FlightClass::DumpWeapons
PUBLIC	?ETA@FlightClass@@UAEKXZ			; FlightClass::ETA
PUBLIC	?GetKnownEmitters@FlightClass@@UAEPAVFalconPrivateList@@XZ ; FlightClass::GetKnownEmitters
PUBLIC	?BuildMission@FlightClass@@UAEHPAVMissionRequestClass@@@Z ; FlightClass::BuildMission
PUBLIC	?GetUnitAssemblyPoint@FlightClass@@UAEXHPAF0@Z	; FlightClass::GetUnitAssemblyPoint
PUBLIC	?GetUnitParent@FlightClass@@UAEPAVUnitClass@@XZ	; FlightClass::GetUnitParent
PUBLIC	?GetUnitParentID@FlightClass@@UAE?AVVU_ID@@XZ	; FlightClass::GetUnitParentID
PUBLIC	?SetUnitParent@FlightClass@@UAEXPAVUnitClass@@@Z ; FlightClass::SetUnitParent
PUBLIC	?IncrementTime@FlightClass@@UAEXK@Z		; FlightClass::IncrementTime
PUBLIC	?GetBestVehicleWeapon@FlightClass@@UAEHHPAEW4MoveType@@HPAH@Z ; FlightClass::GetBestVehicleWeapon
PUBLIC	?UseFuel@FlightClass@@UAEXJ@Z			; FlightClass::UseFuel
PUBLIC	?DetectVs@FlightClass@@QAEHPAVAircraftClass@@PAMPAH22@Z ; FlightClass::DetectVs
PUBLIC	?DetectVs@FlightClass@@QAEHPAVCampBaseClass@@PAMPAH22@Z ; FlightClass::DetectVs
PUBLIC	?PickRandomPilot@FlightClass@@QAEHH@Z		; FlightClass::PickRandomPilot
PUBLIC	?GetAdjustedPlayerSlot@FlightClass@@QAEHH@Z	; FlightClass::GetAdjustedPlayerSlot
PUBLIC	?GetPilotData@FlightClass@@QAEPAVPilotClass@@H@Z ; FlightClass::GetPilotData
PUBLIC	?GetPilotID@FlightClass@@QAEHH@Z		; FlightClass::GetPilotID
PUBLIC	?GetPilotCallNumber@FlightClass@@QAEHH@Z	; FlightClass::GetPilotCallNumber
PUBLIC	?GetPilotVoiceID@FlightClass@@QAEEH@Z		; FlightClass::GetPilotVoiceID
PUBLIC	?GetPilotCount@FlightClass@@QAEHXZ		; FlightClass::GetPilotCount
PUBLIC	?GetACCount@FlightClass@@QAEHXZ			; FlightClass::GetACCount
PUBLIC	?GetFlightLeadSlot@FlightClass@@QAEHXZ		; FlightClass::GetFlightLeadSlot
PUBLIC	?GetFlightLeadCallNumber@FlightClass@@QAEHXZ	; FlightClass::GetFlightLeadCallNumber
PUBLIC	?GetFlightLeadVoiceID@FlightClass@@QAEEXZ	; FlightClass::GetFlightLeadVoiceID
PUBLIC	?GetAdjustedAircraftSlot@FlightClass@@QAEHH@Z	; FlightClass::GetAdjustedAircraftSlot
PUBLIC	?CalculateFuelAvailable@FlightClass@@QAEJH@Z	; FlightClass::CalculateFuelAvailable
PUBLIC	?HasWeapons@FlightClass@@QAEHXZ			; FlightClass::HasWeapons
PUBLIC	?HasFuel@FlightClass@@QAEHH@Z			; FlightClass::HasFuel
PUBLIC	?CanAbort@FlightClass@@QAEHXZ			; FlightClass::CanAbort
PUBLIC	?GetECMFlight@FlightClass@@QAEPAV1@XZ		; FlightClass::GetECMFlight
PUBLIC	?GetAWACSFlight@FlightClass@@QAEPAV1@XZ		; FlightClass::GetAWACSFlight
PUBLIC	?GetJSTARFlight@FlightClass@@QAEPAV1@XZ		; FlightClass::GetJSTARFlight
PUBLIC	?GetFACFlight@FlightClass@@QAEPAV1@XZ		; FlightClass::GetFACFlight
PUBLIC	?GetTankerFlight@FlightClass@@QAEPAV1@XZ	; FlightClass::GetTankerFlight
PUBLIC	?GetFlightController@FlightClass@@QAEPAV1@XZ	; FlightClass::GetFlightController
PUBLIC	?FindCollisionPoint@FlightClass@@QAEHPAVFalconEntity@@PAUvector@@H@Z ; FlightClass::FindCollisionPoint
PUBLIC	?RegisterLock@FlightClass@@QAEXPAVFalconEntity@@@Z ; FlightClass::RegisterLock
PUBLIC	?SendComponentMessage@FlightClass@@QAEXHPAVVuEntity@@@Z ; FlightClass::SendComponentMessage
PUBLIC	?AirbaseOperational@FlightClass@@QAEHPAVObjectiveClass@@@Z ; FlightClass::AirbaseOperational
PUBLIC	??_GFlightClass@@UAEPAXI@Z			; FlightClass::`scalar deleting destructor'
PUBLIC	?NewFlight@@YAPAVFlightClass@@HPAVUnitClass@@0@Z ; NewFlight
PUBLIC	?RegroupFlight@@YAHPAVFlightClass@@@Z		; RegroupFlight
PUBLIC	?RegroupAircraft@@YAXPAVAircraftClass@@@Z	; RegroupAircraft
PUBLIC	?CancelFlight@@YAXPAVFlightClass@@@Z		; CancelFlight
PUBLIC	?UpdateSquadronStatus@@YAXPAVFlightClass@@HH@Z	; UpdateSquadronStatus
PUBLIC	?ResetCurrentWP@@YAPAVWayPointClass@@PAVUnitClass@@@Z ; ResetCurrentWP
PUBLIC	?AbortFlight@@YAXPAVFlightClass@@@Z		; AbortFlight
PUBLIC	?FindAlternateStrip@@YAPAVObjectiveClass@@PAVFlightClass@@@Z ; FindAlternateStrip
PUBLIC	?GetPilotID@SquadronClass@@QAEHH@Z		; SquadronClass::GetPilotID
PUBLIC	?GetPilotData@SquadronClass@@QAEPAVPilotClass@@H@Z ; SquadronClass::GetPilotData
PUBLIC	?SetPilotStatus@SquadronClass@@QAEXHH@Z		; SquadronClass::SetPilotStatus
PUBLIC	?GetPlayerEntity@FalconSessionEntity@@QBEPAVFalconEntity@@XZ ; FalconSessionEntity::GetPlayerEntity
PUBLIC	?GetGame@FalconSessionEntity@@QAEPAVFalconGameEntity@@XZ ; FalconSessionEntity::GetGame
PUBLIC	?IsSetFlag@SimBaseClass@@QBEHH@Z		; SimBaseClass::IsSetFlag
PUBLIC	?GetCampaignObject@SimBaseClass@@QAEPAVCampBaseClass@@XZ ; SimBaseClass::GetCampaignObject
PUBLIC	??0id@locale@std@@QAE@I@Z			; std::locale::id::id
PUBLIC	?generic_category@std@@YAABVerror_category@1@XZ	; std::generic_category
PUBLIC	?system_category@std@@YAABVerror_category@1@XZ	; std::system_category
PUBLIC	??0error_category@std@@QAE@XZ			; std::error_category::error_category
PUBLIC	??1error_category@std@@UAE@XZ			; std::error_category::~error_category
PUBLIC	?default_error_condition@error_category@std@@UBE?AVerror_condition@2@H@Z ; std::error_category::default_error_condition
PUBLIC	?equivalent@error_category@std@@UBE_NHABVerror_condition@2@@Z ; std::error_category::equivalent
PUBLIC	?equivalent@error_category@std@@UBE_NABVerror_code@2@H@Z ; std::error_category::equivalent
PUBLIC	??8error_category@std@@QBE_NABV01@@Z		; std::error_category::operator==
PUBLIC	??_Gerror_category@std@@UAEPAXI@Z		; std::error_category::`scalar deleting destructor'
PUBLIC	?value@error_code@std@@QBEHXZ			; std::error_code::value
PUBLIC	?category@error_code@std@@QBEABVerror_category@2@XZ ; std::error_code::category
PUBLIC	??0error_condition@std@@QAE@HABVerror_category@1@@Z ; std::error_condition::error_condition
PUBLIC	?value@error_condition@std@@QBEHXZ		; std::error_condition::value
PUBLIC	?category@error_condition@std@@QBEABVerror_category@2@XZ ; std::error_condition::category
PUBLIC	??8error_condition@std@@QBE_NABV01@@Z		; std::error_condition::operator==
PUBLIC	??0_Generic_error_category@std@@QAE@XZ		; std::_Generic_error_category::_Generic_error_category
PUBLIC	?name@_Generic_error_category@std@@UBEPBDXZ	; std::_Generic_error_category::name
PUBLIC	?message@_Generic_error_category@std@@UBE?AV?$basic_string@DU?$char_traits@D@std@@V?$allocator@D@2@@2@H@Z ; std::_Generic_error_category::message
PUBLIC	??1_Generic_error_category@std@@UAE@XZ		; std::_Generic_error_category::~_Generic_error_category
PUBLIC	??_G_Generic_error_category@std@@UAEPAXI@Z	; std::_Generic_error_category::`scalar deleting destructor'
PUBLIC	??0_Iostream_error_category@std@@QAE@XZ		; std::_Iostream_error_category::_Iostream_error_category
PUBLIC	?name@_Iostream_error_category@std@@UBEPBDXZ	; std::_Iostream_error_category::name
PUBLIC	?message@_Iostream_error_category@std@@UBE?AV?$basic_string@DU?$char_traits@D@std@@V?$allocator@D@2@@2@H@Z ; std::_Iostream_error_category::message
PUBLIC	??1_Iostream_error_category@std@@UAE@XZ		; std::_Iostream_error_category::~_Iostream_error_category
PUBLIC	??_G_Iostream_error_category@std@@UAEPAXI@Z	; std::_Iostream_error_category::`scalar deleting destructor'
PUBLIC	??0_System_error_category@std@@QAE@XZ		; std::_System_error_category::_System_error_category
PUBLIC	?name@_System_error_category@std@@UBEPBDXZ	; std::_System_error_category::name
PUBLIC	?message@_System_error_category@std@@UBE?AV?$basic_string@DU?$char_traits@D@std@@V?$allocator@D@2@@2@H@Z ; std::_System_error_category::message
PUBLIC	?default_error_condition@_System_error_category@std@@UBE?AVerror_condition@2@H@Z ; std::_System_error_category::default_error_condition
PUBLIC	??1_System_error_category@std@@UAE@XZ		; std::_System_error_category::~_System_error_category
PUBLIC	??_G_System_error_category@std@@UAEPAXI@Z	; std::_System_error_category::`scalar deleting destructor'
PUBLIC	?RatePilot@@YAXPAVFlightClass@@HH@Z		; RatePilot
PUBLIC	?GoHome@@YAXPAVFlightClass@@@Z			; GoHome
PUBLIC	?CanItIdentify@@YAHPAVCampBaseClass@@0MH@Z	; CanItIdentify
PUBLIC	?CheckValidType@@YAHPAVCampBaseClass@@0@Z	; CheckValidType
PUBLIC	??$construct@PADAAPAD@?$_Wrap_alloc@V?$allocator@D@std@@@std@@QAEXPAPADAAPAD@Z ; std::_Wrap_alloc<std::allocator<char> >::construct<char *,char * &>
PUBLIC	??$destroy@PAD@?$_Wrap_alloc@V?$allocator@D@std@@@std@@QAEXPAPAD@Z ; std::_Wrap_alloc<std::allocator<char> >::destroy<char *>
PUBLIC	??$addressof@D@std@@YAPADAAD@Z			; std::addressof<char>
PUBLIC	??$_Allocate@D@std@@YAPADIPAD@Z			; std::_Allocate<char>
PUBLIC	??$forward@AAPAD@std@@YAAAPADAAPAD@Z		; std::forward<char * &>
PUBLIC	??$construct@PADAAPAD@?$allocator_traits@V?$allocator@D@std@@@std@@SAXAAV?$allocator@D@1@PAPADAAPAD@Z ; std::allocator_traits<std::allocator<char> >::construct<char *,char * &>
PUBLIC	??$destroy@PAD@?$allocator_traits@V?$allocator@D@std@@@std@@SAXAAV?$allocator@D@1@PAPAD@Z ; std::allocator_traits<std::allocator<char> >::destroy<char *>
PUBLIC	??$construct@PADAAPAD@?$allocator@D@std@@QAEXPAPADAAPAD@Z ; std::allocator<char>::construct<char *,char * &>
PUBLIC	??$destroy@PAD@?$allocator@D@std@@QAEXPAPAD@Z	; std::allocator<char>::destroy<char *>
PUBLIC	??_7logic_error@std@@6B@			; std::logic_error::`vftable'
PUBLIC	??_7out_of_range@std@@6B@			; std::out_of_range::`vftable'
PUBLIC	??_7InvalidBufferException@@6B@			; InvalidBufferException::`vftable'
PUBLIC	??_C@_0CI@MPKJAHJH@Trying?5to?5write?5?$CFlu?5bytes?5to?5?$CFld@ ; `string'
PUBLIC	__TI4?AVInvalidBufferException@@
PUBLIC	__CTA4?AVInvalidBufferException@@
PUBLIC	??_R0?AVInvalidBufferException@@@8		; InvalidBufferException `RTTI Type Descriptor'
PUBLIC	__CT??_R0?AVInvalidBufferException@@@8??0InvalidBufferException@@QAE@ABV0@@Z12
PUBLIC	??_R0?AVout_of_range@std@@@8			; std::out_of_range `RTTI Type Descriptor'
PUBLIC	__CT??_R0?AVout_of_range@std@@@8??0out_of_range@std@@QAE@ABV01@@Z12
PUBLIC	??_R0?AVlogic_error@std@@@8			; std::logic_error `RTTI Type Descriptor'
PUBLIC	__CT??_R0?AVlogic_error@std@@@8??0logic_error@std@@QAE@ABV01@@Z12
PUBLIC	??_R0?AVexception@std@@@8			; std::exception `RTTI Type Descriptor'
PUBLIC	__CT??_R0?AVexception@std@@@8??0exception@std@@QAE@ABV01@@Z12
PUBLIC	??_7FlightClass@@6B@				; FlightClass::`vftable'
PUBLIC	??_7error_category@std@@6B@			; std::error_category::`vftable'
PUBLIC	??_7_Generic_error_category@std@@6B@		; std::_Generic_error_category::`vftable'
PUBLIC	??_C@_07DCLBNMLN@generic?$AA@			; `string'
PUBLIC	??_C@_0O@BFJCFAAK@unknown?5error?$AA@		; `string'
PUBLIC	??_7_Iostream_error_category@std@@6B@		; std::_Iostream_error_category::`vftable'
PUBLIC	??_C@_08LLGCOLLL@iostream?$AA@			; `string'
PUBLIC	??_C@_0BG@PADBLCHM@iostream?5stream?5error?$AA@	; `string'
PUBLIC	??_7_System_error_category@std@@6B@		; std::_System_error_category::`vftable'
PUBLIC	??_C@_06FHFOAHML@system?$AA@			; `string'
PUBLIC	?_Generic_object@?$_Error_objects@H@std@@2V_Generic_error_category@2@A ; std::_Error_objects<int>::_Generic_object
PUBLIC	?_Iostream_object@?$_Error_objects@H@std@@2V_Iostream_error_category@2@A ; std::_Error_objects<int>::_Iostream_object
PUBLIC	?_System_object@?$_Error_objects@H@std@@2V_System_error_category@2@A ; std::_Error_objects<int>::_System_object
PUBLIC	?id@?$num_put@DV?$back_insert_iterator@V?$basic_string@DU?$char_traits@D@std@@V?$allocator@D@2@@std@@@std@@@std@@2V0locale@2@A ; std::num_put<char,std::back_insert_iterator<std::basic_string<char,std::char_traits<char>,std::allocator<char> > > >::id
PUBLIC	?id@?$num_put@_WV?$back_insert_iterator@V?$basic_string@_WU?$char_traits@_W@std@@V?$allocator@_W@2@@std@@@std@@@std@@2V0locale@2@A ; std::num_put<wchar_t,std::back_insert_iterator<std::basic_string<wchar_t,std::char_traits<wchar_t>,std::allocator<wchar_t> > > >::id
PUBLIC	?LastawackWarning@@3JA				; LastawackWarning
PUBLIC	??_C@_0BC@GNBNJBMB@?$CF08x?5FlightClass?5?$AA@	; `string'
PUBLIC	??_C@_0EM@NKMILAPK@Unit?5?$CFd?3?5Waypoint?5action?5?$CFd?5?$CImis@ ; `string'
PUBLIC	?id@?$numpunct@D@std@@2V0locale@2@A		; std::numpunct<char>::id
PUBLIC	?id@?$numpunct@_W@std@@2V0locale@2@A		; std::numpunct<wchar_t>::id
PUBLIC	??_C@_0BI@CFPLBAOH@invalid?5string?5position?$AA@ ; `string'
PUBLIC	??_C@_0BA@JFNIOLAK@string?5too?5long?$AA@	; `string'
PUBLIC	??_R1A@?0A@EA@exception@std@@8			; std::exception::`RTTI Base Class Descriptor at (0,-1,0,64)'
PUBLIC	??_R3exception@std@@8				; std::exception::`RTTI Class Hierarchy Descriptor'
PUBLIC	??_R2exception@std@@8				; std::exception::`RTTI Base Class Array'
PUBLIC	??_R4logic_error@std@@6B@			; std::logic_error::`RTTI Complete Object Locator'
PUBLIC	??_R3logic_error@std@@8				; std::logic_error::`RTTI Class Hierarchy Descriptor'
PUBLIC	??_R2logic_error@std@@8				; std::logic_error::`RTTI Base Class Array'
PUBLIC	??_R1A@?0A@EA@logic_error@std@@8		; std::logic_error::`RTTI Base Class Descriptor at (0,-1,0,64)'
PUBLIC	??_R4out_of_range@std@@6B@			; std::out_of_range::`RTTI Complete Object Locator'
PUBLIC	??_R3out_of_range@std@@8			; std::out_of_range::`RTTI Class Hierarchy Descriptor'
PUBLIC	??_R2out_of_range@std@@8			; std::out_of_range::`RTTI Base Class Array'
PUBLIC	??_R1A@?0A@EA@out_of_range@std@@8		; std::out_of_range::`RTTI Base Class Descriptor at (0,-1,0,64)'
PUBLIC	??_R4FlightClass@@6B@				; FlightClass::`RTTI Complete Object Locator'
PUBLIC	??_R0?AVFlightClass@@@8				; FlightClass `RTTI Type Descriptor'
PUBLIC	??_R3FlightClass@@8				; FlightClass::`RTTI Class Hierarchy Descriptor'
PUBLIC	??_R2FlightClass@@8				; FlightClass::`RTTI Base Class Array'
PUBLIC	??_R1A@?0A@EA@FlightClass@@8			; FlightClass::`RTTI Base Class Descriptor at (0,-1,0,64)'
PUBLIC	??_R1A@?0A@EA@AirUnitClass@@8			; AirUnitClass::`RTTI Base Class Descriptor at (0,-1,0,64)'
PUBLIC	??_R0?AVAirUnitClass@@@8			; AirUnitClass `RTTI Type Descriptor'
PUBLIC	??_R3AirUnitClass@@8				; AirUnitClass::`RTTI Class Hierarchy Descriptor'
PUBLIC	??_R2AirUnitClass@@8				; AirUnitClass::`RTTI Base Class Array'
PUBLIC	??_R1A@?0A@EA@UnitClass@@8			; UnitClass::`RTTI Base Class Descriptor at (0,-1,0,64)'
PUBLIC	??_R0?AVUnitClass@@@8				; UnitClass `RTTI Type Descriptor'
PUBLIC	??_R3UnitClass@@8				; UnitClass::`RTTI Class Hierarchy Descriptor'
PUBLIC	??_R2UnitClass@@8				; UnitClass::`RTTI Base Class Array'
PUBLIC	??_R1A@?0A@EA@CampBaseClass@@8			; CampBaseClass::`RTTI Base Class Descriptor at (0,-1,0,64)'
PUBLIC	??_R0?AVCampBaseClass@@@8			; CampBaseClass `RTTI Type Descriptor'
PUBLIC	??_R3CampBaseClass@@8				; CampBaseClass::`RTTI Class Hierarchy Descriptor'
PUBLIC	??_R2CampBaseClass@@8				; CampBaseClass::`RTTI Base Class Array'
PUBLIC	??_R1A@?0A@EA@FalconEntity@@8			; FalconEntity::`RTTI Base Class Descriptor at (0,-1,0,64)'
PUBLIC	??_R0?AVFalconEntity@@@8			; FalconEntity `RTTI Type Descriptor'
PUBLIC	??_R3FalconEntity@@8				; FalconEntity::`RTTI Class Hierarchy Descriptor'
PUBLIC	??_R2FalconEntity@@8				; FalconEntity::`RTTI Base Class Array'
PUBLIC	??_R1A@?0A@EA@VuEntity@@8			; VuEntity::`RTTI Base Class Descriptor at (0,-1,0,64)'
PUBLIC	??_R0?AVVuEntity@@@8				; VuEntity `RTTI Type Descriptor'
PUBLIC	??_R3VuEntity@@8				; VuEntity::`RTTI Class Hierarchy Descriptor'
PUBLIC	??_R2VuEntity@@8				; VuEntity::`RTTI Base Class Array'
PUBLIC	??_R4InvalidBufferException@@6B@		; InvalidBufferException::`RTTI Complete Object Locator'
PUBLIC	??_R3InvalidBufferException@@8			; InvalidBufferException::`RTTI Class Hierarchy Descriptor'
PUBLIC	??_R2InvalidBufferException@@8			; InvalidBufferException::`RTTI Base Class Array'
PUBLIC	??_R1A@?0A@EA@InvalidBufferException@@8		; InvalidBufferException::`RTTI Base Class Descriptor at (0,-1,0,64)'
PUBLIC	??_R4error_category@std@@6B@			; std::error_category::`RTTI Complete Object Locator'
PUBLIC	??_R0?AVerror_category@std@@@8			; std::error_category `RTTI Type Descriptor'
PUBLIC	??_R3error_category@std@@8			; std::error_category::`RTTI Class Hierarchy Descriptor'
PUBLIC	??_R2error_category@std@@8			; std::error_category::`RTTI Base Class Array'
PUBLIC	??_R1A@?0A@EA@error_category@std@@8		; std::error_category::`RTTI Base Class Descriptor at (0,-1,0,64)'
PUBLIC	??_R4_Generic_error_category@std@@6B@		; std::_Generic_error_category::`RTTI Complete Object Locator'
PUBLIC	??_R0?AV_Generic_error_category@std@@@8		; std::_Generic_error_category `RTTI Type Descriptor'
PUBLIC	??_R3_Generic_error_category@std@@8		; std::_Generic_error_category::`RTTI Class Hierarchy Descriptor'
PUBLIC	??_R2_Generic_error_category@std@@8		; std::_Generic_error_category::`RTTI Base Class Array'
PUBLIC	??_R1A@?0A@EA@_Generic_error_category@std@@8	; std::_Generic_error_category::`RTTI Base Class Descriptor at (0,-1,0,64)'
PUBLIC	??_R4_Iostream_error_category@std@@6B@		; std::_Iostream_error_category::`RTTI Complete Object Locator'
PUBLIC	??_R0?AV_Iostream_error_category@std@@@8	; std::_Iostream_error_category `RTTI Type Descriptor'
PUBLIC	??_R3_Iostream_error_category@std@@8		; std::_Iostream_error_category::`RTTI Class Hierarchy Descriptor'
PUBLIC	??_R2_Iostream_error_category@std@@8		; std::_Iostream_error_category::`RTTI Base Class Array'
PUBLIC	??_R1A@?0A@EA@_Iostream_error_category@std@@8	; std::_Iostream_error_category::`RTTI Base Class Descriptor at (0,-1,0,64)'
PUBLIC	??_R4_System_error_category@std@@6B@		; std::_System_error_category::`RTTI Complete Object Locator'
PUBLIC	??_R0?AV_System_error_category@std@@@8		; std::_System_error_category `RTTI Type Descriptor'
PUBLIC	??_R3_System_error_category@std@@8		; std::_System_error_category::`RTTI Class Hierarchy Descriptor'
PUBLIC	??_R2_System_error_category@std@@8		; std::_System_error_category::`RTTI Base Class Array'
PUBLIC	??_R1A@?0A@EA@_System_error_category@std@@8	; std::_System_error_category::`RTTI Base Class Descriptor at (0,-1,0,64)'
PUBLIC	__real@00000000
PUBLIC	__real@0000000000000000
PUBLIC	__real@3c8efa34
PUBLIC	__real@3f000000
PUBLIC	__real@3f17ac60
PUBLIC	__real@3f693e32
PUBLIC	__real@3f800000
PUBLIC	__real@3f8ccccd
PUBLIC	__real@3f99999a
PUBLIC	__real@3ff921fb54442d18
PUBLIC	__real@40000000
PUBLIC	__real@400921fb54442d18
PUBLIC	__real@40800000
PUBLIC	__real@40a00000
PUBLIC	__real@40c90fdb
PUBLIC	__real@41900000
PUBLIC	__real@42340000
PUBLIC	__real@42393988
PUBLIC	__real@42480000
PUBLIC	__real@42652ee1
PUBLIC	__real@428c0000
PUBLIC	__real@42c80000
PUBLIC	__real@42de450a
PUBLIC	__real@43480000
PUBLIC	__real@437a0000
PUBLIC	__real@43fa0000
PUBLIC	__real@447a0000
PUBLIC	__real@454cffae
PUBLIC	__real@461c3c00
PUBLIC	__real@469c4000
PUBLIC	__real@4f5c0ff8
PUBLIC	__real@8000000000000000
PUBLIC	__real@bf800000
PUBLIC	__real@bff921fb54442d18
PUBLIC	__xmm@41f00000000000000000000000000000
PUBLIC	__xmm@80000000800000008000000080000000
EXTRN	__purecall:PROC
EXTRN	??2@YAPAXI@Z:PROC				; operator new
EXTRN	??3@YAXPAX@Z:PROC				; operator delete
EXTRN	_atexit:PROC
EXTRN	_fflush:PROC
EXTRN	_fprintf:PROC
EXTRN	_sprintf:PROC
EXTRN	_abs:PROC
EXTRN	_rand:PROC
EXTRN	_atan:PROC
EXTRN	_fabs:PROC
EXTRN	_memcpy:PROC
EXTRN	_memset:PROC
EXTRN	_strlen:PROC
EXTRN	_memmove:PROC
EXTRN	_MonoPrint:PROC
EXTRN	?F4IsBadReadPtr@@YA_NPBXI@Z:PROC		; F4IsBadReadPtr
EXTRN	?SetPosition@VuEntity@@QAEXMMM@Z:PROC		; VuEntity::SetPosition
EXTRN	?IsLocal@VuEntity@@QBEEXZ:PROC			; VuEntity::IsLocal
EXTRN	?CustomCollisionCheck@VuEntity@@UAEEPAV1@M@Z:PROC ; VuEntity::CustomCollisionCheck
EXTRN	?TerrainCollisionCheck@VuEntity@@UAEEXZ:PROC	; VuEntity::TerrainCollisionCheck
EXTRN	?IsTarget@VuEntity@@UAEEXZ:PROC			; VuEntity::IsTarget
EXTRN	?IsSession@VuEntity@@UAEEXZ:PROC		; VuEntity::IsSession
EXTRN	?IsGroup@VuEntity@@UAEEXZ:PROC			; VuEntity::IsGroup
EXTRN	?IsGame@VuEntity@@UAEEXZ:PROC			; VuEntity::IsGame
EXTRN	?IsCamera@VuEntity@@UBEEXZ:PROC			; VuEntity::IsCamera
EXTRN	?Handle@VuEntity@@UAEHPAVVuErrorMessage@@@Z:PROC ; VuEntity::Handle
EXTRN	?Handle@VuEntity@@UAEHPAVVuPushRequest@@@Z:PROC	; VuEntity::Handle
EXTRN	?Handle@VuEntity@@UAEHPAVVuPullRequest@@@Z:PROC	; VuEntity::Handle
EXTRN	?InsertionCallback@VuEntity@@MAEHXZ:PROC	; VuEntity::InsertionCallback
EXTRN	??0exception@std@@QAE@ABQBD@Z:PROC		; std::exception::exception
EXTRN	??0exception@std@@QAE@ABV01@@Z:PROC		; std::exception::exception
EXTRN	??1exception@std@@UAE@XZ:PROC			; std::exception::~exception
EXTRN	?what@exception@std@@UBEPBDXZ:PROC		; std::exception::what
EXTRN	??_V@YAXPAX@Z:PROC				; operator delete[]
EXTRN	??_U@YAPAXI@Z:PROC				; operator new[]
EXTRN	?_Xbad_alloc@std@@YAXXZ:PROC			; std::_Xbad_alloc
EXTRN	?_Xlength_error@std@@YAXPBD@Z:PROC		; std::_Xlength_error
EXTRN	?_Xout_of_range@std@@YAXPBD@Z:PROC		; std::_Xout_of_range
EXTRN	??_Elogic_error@std@@UAEPAXI@Z:PROC		; std::logic_error::`vector deleting destructor'
EXTRN	??_Eout_of_range@std@@UAEPAXI@Z:PROC		; std::out_of_range::`vector deleting destructor'
EXTRN	?Register@VuCollection@@QAEXXZ:PROC		; VuCollection::Register
EXTRN	?Find@VuCollection@@QBE_NPAVVuEntity@@@Z:PROC	; VuCollection::Find
EXTRN	?Insert@VuDatabase@@QAEHPAVVuEntity@@@Z:PROC	; VuDatabase::Insert
EXTRN	?Find@VuDatabase@@QBEPAVVuEntity@@VVU_ID@@@Z:PROC ; VuDatabase::Find
EXTRN	?Game@VuSessionEntity@@QAEPAVVuGameEntity@@XZ:PROC ; VuSessionEntity::Game
EXTRN	??0VuListIterator@@QAE@PAVVuLinkedList@@@Z:PROC	; VuListIterator::VuListIterator
EXTRN	??1VuListIterator@@UAE@XZ:PROC			; VuListIterator::~VuListIterator
EXTRN	?GetFirst@VuListIterator@@QAEPAVVuEntity@@XZ:PROC ; VuListIterator::GetFirst
EXTRN	?GetNext@VuListIterator@@QAEPAVVuEntity@@XZ:PROC ; VuListIterator::GetNext
EXTRN	??0VuGridIterator@@QAE@PAVVuGridTree@@MMM@Z:PROC ; VuGridIterator::VuGridIterator
EXTRN	??1VuGridIterator@@UAE@XZ:PROC			; VuGridIterator::~VuGridIterator
EXTRN	?GetFirst@VuGridIterator@@QAEPAVVuEntity@@XZ:PROC ; VuGridIterator::GetFirst
EXTRN	?GetNext@VuGridIterator@@QAEPAVVuEntity@@XZ:PROC ; VuGridIterator::GetNext
EXTRN	??0VuSessionsIterator@@QAE@PAVVuGroupEntity@@@Z:PROC ; VuSessionsIterator::VuSessionsIterator
EXTRN	??1VuSessionsIterator@@UAE@XZ:PROC		; VuSessionsIterator::~VuSessionsIterator
EXTRN	?GetFirst@VuSessionsIterator@@QAEPAVVuSessionEntity@@XZ:PROC ; VuSessionsIterator::GetFirst
EXTRN	?GetNext@VuSessionsIterator@@QAEPAVVuSessionEntity@@XZ:PROC ; VuSessionsIterator::GetNext
EXTRN	?Save@FalconEntity@@UAEHPAU_iobuf@@@Z:PROC	; FalconEntity::Save
EXTRN	?CleanupData@FalconEntity@@UAEXXZ:PROC		; FalconEntity::CleanupData
EXTRN	?RemovalCallback@FalconEntity@@UAEHXZ:PROC	; FalconEntity::RemovalCallback
EXTRN	?GetDomain@FalconEntity@@UAEEXZ:PROC		; FalconEntity::GetDomain
EXTRN	?GetLocation@FalconEntity@@QBEXPAF0@Z:PROC	; FalconEntity::GetLocation
EXTRN	?MakeDirty@FalconEntity@@QAEXW4Dirty_Class@@W4Dirtyness@@@Z:PROC ; FalconEntity::MakeDirty
EXTRN	?MakeFlagsDirty@FalconEntity@@QAEXXZ:PROC	; FalconEntity::MakeFlagsDirty
EXTRN	??0FalconPrivateList@@QAE@PAVVuFilter@@@Z:PROC	; FalconPrivateList::FalconPrivateList
EXTRN	?ForcedInsert@FalconPrivateList@@QAEHPAVVuEntity@@@Z:PROC ; FalconPrivateList::ForcedInsert
EXTRN	?Camp_GetCurrentTime@@YAKXZ:PROC		; Camp_GetCurrentTime
EXTRN	?GetCover@@YA?AW4CoverType@@FF@Z:PROC		; GetCover
EXTRN	?GetWeaponFireRate@@YAHH@Z:PROC			; GetWeaponFireRate
EXTRN	?GetWeaponHitChance@@YAHHH@Z:PROC		; GetWeaponHitChance
EXTRN	?GetWeaponScore@@YAHHPAEHH@Z:PROC		; GetWeaponScore
EXTRN	?GetWeaponFlags@@YAHH@Z:PROC			; GetWeaponFlags
EXTRN	?FalconSendMessage@@YAXPAVVuMessage@@H@Z:PROC	; FalconSendMessage
EXTRN	??0WayPointClass@@QAE@XZ:PROC			; WayPointClass::WayPointClass
EXTRN	?CloneWP@WayPointClass@@QAEXPAV1@@Z:PROC	; WayPointClass::CloneWP
EXTRN	?SetWPAltitude@WayPointClass@@QAEXH@Z:PROC	; WayPointClass::SetWPAltitude
EXTRN	?SetWPAltitudeLevel@WayPointClass@@QAEXH@Z:PROC	; WayPointClass::SetWPAltitudeLevel
EXTRN	?GetLocation@WayPointClass@@QBEXPAM00@Z:PROC	; WayPointClass::GetLocation
EXTRN	?SetWPTimes@@YAKPAVWayPointClass@@JH@Z:PROC	; SetWPTimes
EXTRN	?SetWPTimes@@YAKPAVWayPointClass@@FFHH@Z:PROC	; SetWPTimes
EXTRN	?CloneWPToList@@YAPAVWayPointClass@@PAV1@0@Z:PROC ; CloneWPToList
EXTRN	?AdjustAltitudeForMSL_AGL@@YAMMMM@Z:PROC	; AdjustAltitudeForMSL_AGL
EXTRN	??0MissionRequestClass@@QAE@XZ:PROC		; MissionRequestClass::MissionRequestClass
EXTRN	??1MissionRequestClass@@QAE@XZ:PROC		; MissionRequestClass::~MissionRequestClass
EXTRN	?BuildPathToTarget@@YAHPAVFlightClass@@PAVMissionRequestClass@@VVU_ID@@@Z:PROC ; BuildPathToTarget
EXTRN	?BuildDivertPath@@YAXPAVFlightClass@@PAVMissionRequestClass@@@Z:PROC ; BuildDivertPath
EXTRN	?AddInformationWPs@@YAXPAVFlightClass@@PAVMissionRequestClass@@@Z:PROC ; AddInformationWPs
EXTRN	?ClearDivertWayPoints@@YAXPAVFlightClass@@@Z:PROC ; ClearDivertWayPoints
EXTRN	?SetWPTimes@@YAJPAVFlightClass@@PAVMissionRequestClass@@@Z:PROC ; SetWPTimes
EXTRN	??_EInvalidBufferException@@UAEPAXI@Z:PROC	; InvalidBufferException::`vector deleting destructor'
EXTRN	?GetIdFromNamespace@@YAKAAVIdNamespace@@@Z:PROC	; GetIdFromNamespace
EXTRN	?GetTeam@@YAEE@Z:PROC				; GetTeam
EXTRN	?SetOwner@CampBaseClass@@UAEXE@Z:PROC		; CampBaseClass::SetOwner
EXTRN	?MakeCampBaseDirty@CampBaseClass@@QAEXW4Dirty_Campaign_Base@@W4Dirtyness@@@Z:PROC ; CampBaseClass::MakeCampBaseDirty
EXTRN	?InitData@CampBaseClass@@UAEXXZ:PROC		; CampBaseClass::InitData
EXTRN	?Handle@CampBaseClass@@UAEHPAVVuEvent@@@Z:PROC	; CampBaseClass::Handle
EXTRN	?Handle@CampBaseClass@@UAEHPAVVuPositionUpdateEvent@@@Z:PROC ; CampBaseClass::Handle
EXTRN	?Handle@CampBaseClass@@UAEHPAVVuEntityCollisionEvent@@@Z:PROC ; CampBaseClass::Handle
EXTRN	?Handle@CampBaseClass@@UAEHPAVVuTransferEvent@@@Z:PROC ; CampBaseClass::Handle
EXTRN	?Handle@CampBaseClass@@UAEHPAVVuSessionEvent@@@Z:PROC ; CampBaseClass::Handle
EXTRN	?GetSpotted@CampBaseClass@@QAEHE@Z:PROC		; CampBaseClass::GetSpotted
EXTRN	?SetLocation@CampBaseClass@@QAEXFF@Z:PROC	; CampBaseClass::SetLocation
EXTRN	?SetSpotted@CampBaseClass@@QAEXEKH@Z:PROC	; CampBaseClass::SetSpotted
EXTRN	?SetEmitting@CampBaseClass@@QAEXH@Z:PROC	; CampBaseClass::SetEmitting
EXTRN	?SetTacan@CampBaseClass@@QAEXH@Z:PROC		; CampBaseClass::SetTacan
EXTRN	?GetVisualDetectionRange@@YAHH@Z:PROC		; GetVisualDetectionRange
EXTRN	?NumOperableRunways@ATCBrain@@QAEHXZ:PROC	; ATCBrain::NumOperableRunways
EXTRN	?InList@ATCBrain@@QAEPAUrunwayQueueStruct@@VVU_ID@@@Z:PROC ; ATCBrain::InList
EXTRN	?FindTakeoffPt@ATCBrain@@QAEHPAVFlightClass@@HHPAM1@Z:PROC ; ATCBrain::FindTakeoffPt
EXTRN	?FindRunwayPt@ATCBrain@@QAEHPAVFlightClass@@HHPAM1@Z:PROC ; ATCBrain::FindRunwayPt
EXTRN	?UseSectionTakeoff@ATCBrain@@QAEHPAVFlightClass@@H@Z:PROC ; ATCBrain::UseSectionTakeoff
EXTRN	?CheckPointGlobal@@YAPAVSimBaseClass@@PAVCampBaseClass@@MM@Z:PROC ; CheckPointGlobal
EXTRN	?GetFeatureID@ObjectiveClass@@QAEHH@Z:PROC	; ObjectiveClass::GetFeatureID
EXTRN	?GetVehicleClassData@@YAPAUVehicleClassDataType@@H@Z:PROC ; GetVehicleClassData
EXTRN	?LoadWeapons@@YAHPAXHPAEW4MoveType@@HHHQAFQAE@Z:PROC ; LoadWeapons
EXTRN	?GetGameType@FalconGameEntity@@QAE?AW4FalconGameType@@XZ:PROC ; FalconGameEntity::GetGameType
EXTRN	?CheckRange@@YAHHH@Z:PROC			; CheckRange
EXTRN	?CheckAction@@YAHHH@Z:PROC			; CheckAction
EXTRN	?CheckStatus@@YAHHH@Z:PROC			; CheckStatus
EXTRN	?CheckEngaged@@YAHHH@Z:PROC			; CheckEngaged
EXTRN	?CheckOdds@@YAHHH@Z:PROC			; CheckOdds
EXTRN	?CheckSpecial@@YAHH@Z:PROC			; CheckSpecial
EXTRN	?CheckFuel@@YAHHH@Z:PROC			; CheckFuel
EXTRN	?CheckWeapons@@YAHH@Z:PROC			; CheckWeapons
EXTRN	?GetTacticPriority@@YAHH@Z:PROC			; GetTacticPriority
EXTRN	?SetLastCheck@UnitClass@@QAEXK@Z:PROC		; UnitClass::SetLastCheck
EXTRN	?SetCargoId@UnitClass@@QAEXVVU_ID@@@Z:PROC	; UnitClass::SetCargoId
EXTRN	?SetReinforcement@UnitClass@@QAEXF@Z:PROC	; UnitClass::SetReinforcement
EXTRN	?SetOdds@UnitClass@@QAEXF@Z:PROC		; UnitClass::SetOdds
EXTRN	?SendDeaggregateData@UnitClass@@UAEXPAVVuTargetEntity@@@Z:PROC ; UnitClass::SendDeaggregateData
EXTRN	?RecordCurrentState@UnitClass@@UAEHPAVFalconSessionEntity@@H@Z:PROC ; UnitClass::RecordCurrentState
EXTRN	?Deaggregate@UnitClass@@UAEHPAVFalconSessionEntity@@@Z:PROC ; UnitClass::Deaggregate
EXTRN	?Reaggregate@UnitClass@@UAEHPAVFalconSessionEntity@@@Z:PROC ; UnitClass::Reaggregate
EXTRN	?TransferOwnership@UnitClass@@UAEHPAVFalconSessionEntity@@@Z:PROC ; UnitClass::TransferOwnership
EXTRN	?Wake@UnitClass@@UAEHXZ:PROC			; UnitClass::Wake
EXTRN	?Sleep@UnitClass@@UAEHXZ:PROC			; UnitClass::Sleep
EXTRN	?InsertInSimLists@UnitClass@@UAEXMM@Z:PROC	; UnitClass::InsertInSimLists
EXTRN	?RemoveFromSimLists@UnitClass@@UAEXXZ:PROC	; UnitClass::RemoveFromSimLists
EXTRN	?DeaggregateFromData@UnitClass@@UAEXPAEJ@Z:PROC	; UnitClass::DeaggregateFromData
EXTRN	?ReaggregateFromData@UnitClass@@UAEXPAEJ@Z:PROC	; UnitClass::ReaggregateFromData
EXTRN	?TransferOwnershipFromData@UnitClass@@UAEXPAEJ@Z:PROC ; UnitClass::TransferOwnershipFromData
EXTRN	?ResetPlayerStatus@UnitClass@@UAEHXZ:PROC	; UnitClass::ResetPlayerStatus
EXTRN	?ApplyDamage@UnitClass@@UAEHPAVFalconCampWeaponsFire@@E@Z:PROC ; UnitClass::ApplyDamage
EXTRN	?ApplyDamage@UnitClass@@UAEHW4DamageDataType@@PAHHF@Z:PROC ; UnitClass::ApplyDamage
EXTRN	?DecodeDamageData@UnitClass@@UAEHPAEPAV1@PAVFalconDeathMessage@@@Z:PROC ; UnitClass::DecodeDamageData
EXTRN	?GetDamageModifiers@UnitClass@@UAEPAEXZ:PROC	; UnitClass::GetDamageModifiers
EXTRN	?GetName@UnitClass@@UAEPADPADHH@Z:PROC		; UnitClass::GetName
EXTRN	?GetFullName@UnitClass@@UAEPADPADHH@Z:PROC	; UnitClass::GetFullName
EXTRN	?GetDivisionName@UnitClass@@UAEPADPADHH@Z:PROC	; UnitClass::GetDivisionName
EXTRN	?GetHitChance@UnitClass@@UAEHHH@Z:PROC		; UnitClass::GetHitChance
EXTRN	?GetAproxHitChance@UnitClass@@UAEHHH@Z:PROC	; UnitClass::GetAproxHitChance
EXTRN	?GetCombatStrength@UnitClass@@UAEHHH@Z:PROC	; UnitClass::GetCombatStrength
EXTRN	?GetAproxCombatStrength@UnitClass@@UAEHHH@Z:PROC ; UnitClass::GetAproxCombatStrength
EXTRN	?GetWeaponRange@UnitClass@@UAEHHPAVFalconEntity@@@Z:PROC ; UnitClass::GetWeaponRange
EXTRN	?GetAproxWeaponRange@UnitClass@@UAEHH@Z:PROC	; UnitClass::GetAproxWeaponRange
EXTRN	?GetElectronicDetectionRange@UnitClass@@UAEHH@Z:PROC ; UnitClass::GetElectronicDetectionRange
EXTRN	?CanDetect@UnitClass@@UAEHPAVFalconEntity@@@Z:PROC ; UnitClass::CanDetect
EXTRN	?GetComponentLocation@UnitClass@@UAEXPAF0H@Z:PROC ; UnitClass::GetComponentLocation
EXTRN	?GetComponentAltitude@UnitClass@@UAEHH@Z:PROC	; UnitClass::GetComponentAltitude
EXTRN	?GetRCSFactor@UnitClass@@UAEMXZ:PROC		; UnitClass::GetRCSFactor
EXTRN	?GetIRFactor@UnitClass@@UAEMXZ:PROC		; UnitClass::GetIRFactor
EXTRN	?GetNumberOfArcs@UnitClass@@UAEHXZ:PROC		; UnitClass::GetNumberOfArcs
EXTRN	?GetArcRatio@UnitClass@@UAEMH@Z:PROC		; UnitClass::GetArcRatio
EXTRN	?GetArcRange@UnitClass@@UAEMH@Z:PROC		; UnitClass::GetArcRange
EXTRN	?GetArcAngle@UnitClass@@UAEXHPAM0@Z:PROC	; UnitClass::GetArcAngle
EXTRN	?GetRadarType@UnitClass@@UAEHXZ:PROC		; UnitClass::GetRadarType
EXTRN	?UpdateTime@UnitClass@@QBEKXZ:PROC		; UnitClass::UpdateTime
EXTRN	?BroadcastUnitMessage@UnitClass@@QAEXVVU_ID@@FFFF@Z:PROC ; UnitClass::BroadcastUnitMessage
EXTRN	?ChangeUnitLocation@UnitClass@@QAEHE@Z:PROC	; UnitClass::ChangeUnitLocation
EXTRN	?SetParent@UnitClass@@QAEXH@Z:PROC		; UnitClass::SetParent
EXTRN	?SetEngaged@UnitClass@@QAEXH@Z:PROC		; UnitClass::SetEngaged
EXTRN	?SetMoving@UnitClass@@QAEXH@Z:PROC		; UnitClass::SetMoving
EXTRN	?SetHasECM@UnitClass@@QAEXH@Z:PROC		; UnitClass::SetHasECM
EXTRN	?SetCombat@UnitClass@@QAEXH@Z:PROC		; UnitClass::SetCombat
EXTRN	?SetAborted@UnitClass@@QAEXH@Z:PROC		; UnitClass::SetAborted
EXTRN	?SetDiverted@UnitClass@@QAEXH@Z:PROC		; UnitClass::SetDiverted
EXTRN	?SetLocked@UnitClass@@QAEXH@Z:PROC		; UnitClass::SetLocked
EXTRN	?GetUnitClassData@UnitClass@@QAEPAUUnitClassDataType@@XZ:PROC ; UnitClass::GetUnitClassData
EXTRN	?GetVehicleHitChance@UnitClass@@UAEHHW4MoveType@@HH@Z:PROC ; UnitClass::GetVehicleHitChance
EXTRN	?GetVehicleCombatStrength@UnitClass@@UAEHHW4MoveType@@H@Z:PROC ; UnitClass::GetVehicleCombatStrength
EXTRN	?GetVehicleRange@UnitClass@@UAEHHHPAVFalconEntity@@@Z:PROC ; UnitClass::GetVehicleRange
EXTRN	?GetVehicleID@UnitClass@@QAEFH@Z:PROC		; UnitClass::GetVehicleID
EXTRN	?GetTotalVehicles@UnitClass@@QAEHXZ:PROC	; UnitClass::GetTotalVehicles
EXTRN	?GetCruiseSpeed@UnitClass@@QBEHXZ:PROC		; UnitClass::GetCruiseSpeed
EXTRN	?GetCombatSpeed@UnitClass@@QBEHXZ:PROC		; UnitClass::GetCombatSpeed
EXTRN	?KillUnit@UnitClass@@QAEXXZ:PROC		; UnitClass::KillUnit
EXTRN	?UnloadUnit@UnitClass@@QAEXXZ:PROC		; UnitClass::UnloadUnit
EXTRN	?GetCurrentUnitWP@UnitClass@@QBEPAVWayPointClass@@XZ:PROC ; UnitClass::GetCurrentUnitWP
EXTRN	?DisposeWayPoints@UnitClass@@QAEXXZ:PROC	; UnitClass::DisposeWayPoints
EXTRN	?SetCurrentUnitWP@UnitClass@@QAEXPAVWayPointClass@@@Z:PROC ; UnitClass::SetCurrentUnitWP
EXTRN	?DistSqu@@YAHFFFF@Z:PROC			; DistSqu
EXTRN	?Distance@@YAMFFFF@Z:PROC			; Distance
EXTRN	?Distance@@YAMMMMM@Z:PROC			; Distance
EXTRN	?DistSqu@@YAMMMMM@Z:PROC			; DistSqu
EXTRN	?DistanceToFront@@YAMFF@Z:PROC			; DistanceToFront
EXTRN	?TimeToArrive@@YAKMM@Z:PROC			; TimeToArrive
EXTRN	?AngleTo@@YAMFFFF@Z:PROC			; AngleTo
EXTRN	?DirectionTo@@YAEFFFF@Z:PROC			; DirectionTo
EXTRN	?DirectionTo@@YAEFFFFFF@Z:PROC			; DirectionTo
EXTRN	?FindUnit@@YAPAVUnitClass@@VVU_ID@@@Z:PROC	; FindUnit
EXTRN	?GridToSim@@YAMF@Z:PROC				; GridToSim
EXTRN	?ConvertGridToSim@@YAXFFPAUvector@@@Z:PROC	; ConvertGridToSim
EXTRN	?ConvertSimToGrid@@YAXPAUvector@@PAF1@Z:PROC	; ConvertSimToGrid
EXTRN	?GetRoE@@YAHEEH@Z:PROC				; GetRoE
EXTRN	?GetEnemyTeam@@YAEE@Z:PROC			; GetEnemyTeam
EXTRN	??0AirUnitClass@@QAE@GK@Z:PROC			; AirUnitClass::AirUnitClass
EXTRN	??0AirUnitClass@@QAE@PAPAEPAJ@Z:PROC		; AirUnitClass::AirUnitClass
EXTRN	??1AirUnitClass@@UAE@XZ:PROC			; AirUnitClass::~AirUnitClass
EXTRN	?SaveSize@AirUnitClass@@UAEHXZ:PROC		; AirUnitClass::SaveSize
EXTRN	?Save@AirUnitClass@@UAEHPAPAE@Z:PROC		; AirUnitClass::Save
EXTRN	?Handle@AirUnitClass@@UAEHPAVVuFullUpdateEvent@@@Z:PROC ; AirUnitClass::Handle
EXTRN	?GetMovementType@AirUnitClass@@UAE?AW4MoveType@@XZ:PROC ; AirUnitClass::GetMovementType
EXTRN	?GetUnitSpeed@AirUnitClass@@UBEHXZ:PROC		; AirUnitClass::GetUnitSpeed
EXTRN	?IsHelicopter@AirUnitClass@@UBEHXZ:PROC		; AirUnitClass::IsHelicopter
EXTRN	?OnGround@AirUnitClass@@UAEHXZ:PROC		; AirUnitClass::OnGround
EXTRN	?GetFACFlight@PackageClass@@QAEPAVFlightClass@@XZ:PROC ; PackageClass::GetFACFlight
EXTRN	?SetTakeoff@PackageClass@@QAEXK@Z:PROC		; PackageClass::SetTakeoff
EXTRN	?SetPackageFlags@PackageClass@@QAEXK@Z:PROC	; PackageClass::SetPackageFlags
EXTRN	?GetMainFlight@PackageClass@@QAEPAVFlightClass@@XZ:PROC ; PackageClass::GetMainFlight
EXTRN	?AssignVoice@PilotInfoClass@@QAEXH@Z:PROC	; PilotInfoClass::AssignVoice
EXTRN	?UnsetCallsignID@@YAXHH@Z:PROC			; UnsetCallsignID
EXTRN	??_EFlightClass@@UAEPAXI@Z:PROC			; FlightClass::`vector deleting destructor'
EXTRN	?ScheduleAircraft@SquadronClass@@QAEXPAVFlightClass@@PAVMissionRequestClass@@@Z:PROC ; SquadronClass::ScheduleAircraft
EXTRN	?AssignPilots@SquadronClass@@QAEHPAVFlightClass@@@Z:PROC ; SquadronClass::AssignPilots
EXTRN	?UpdateSquadronStores@SquadronClass@@QAEXQAFQAEHH@Z:PROC ; SquadronClass::UpdateSquadronStores
EXTRN	?ResupplySquadronStores@SquadronClass@@QAEXQAFQAEHH@Z:PROC ; SquadronClass::ResupplySquadronStores
EXTRN	?GetUnitScore@@YAHPAVUnitClass@@W4MoveType@@@Z:PROC ; GetUnitScore
EXTRN	?SendATMMessage@AirTaskingManagerClass@@QAEXVVU_ID@@EFFFPAXH@Z:PROC ; AirTaskingManagerClass::SendATMMessage
EXTRN	?FindTakeoffSlot@AirTaskingManagerClass@@QAEHVVU_ID@@PAVWayPointClass@@@Z:PROC ; AirTaskingManagerClass::FindTakeoffSlot
EXTRN	?ScheduleAircraft@AirTaskingManagerClass@@QAEXVVU_ID@@PAVWayPointClass@@H@Z:PROC ; AirTaskingManagerClass::ScheduleAircraft
EXTRN	?RequestSARMission@@YAHPAVFlightClass@@@Z:PROC	; RequestSARMission
EXTRN	?RequestIntercept@@YAXPAVFlightClass@@HW4RequIntHint@@@Z:PROC ; RequestIntercept
EXTRN	?DoWPAction@@YAHPAVFlightClass@@@Z:PROC		; DoWPAction
EXTRN	?Detected@@YAHPAVUnitClass@@PAVFalconEntity@@PAM@Z:PROC ; Detected
EXTRN	?DoCombat@@YAHPAVCampBaseClass@@PAVFalconEntity@@@Z:PROC ; DoCombat
EXTRN	?GetFeatureClassData@@YAPAUFeatureClassDataType@@H@Z:PROC ; GetFeatureClassData
EXTRN	?GetTeam@FalconSessionEntity@@QAEEXZ:PROC	; FalconSessionEntity::GetTeam
EXTRN	?SetRemoveFlag@SimBaseClass@@QAEXXZ:PROC	; SimBaseClass::SetRemoveFlag
EXTRN	?GetDefaultAwacsVoice@@YAEXZ:PROC		; GetDefaultAwacsVoice
EXTRN	??0FalconRadioChatterMessage@@QAE@VVU_ID@@PAVVuTargetEntity@@E@Z:PROC ; FalconRadioChatterMessage::FalconRadioChatterMessage
EXTRN	?SendCallToAWACS@@YAXPAVFlightClass@@FPAVVuTargetEntity@@@Z:PROC ; SendCallToAWACS
EXTRN	?CreateCallFromAwacs@@YAPAVFalconRadioChatterMessage@@PAVFlightClass@@FPAVVuTargetEntity@@@Z:PROC ; CreateCallFromAwacs
EXTRN	?PlayDivertRadioCalls@@YAXPAVCampBaseClass@@HPAVFlightClass@@H@Z:PROC ; PlayDivertRadioCalls
EXTRN	??0FalconWingmanMsg@@QAE@VVU_ID@@PAVVuTargetEntity@@E@Z:PROC ; FalconWingmanMsg::FalconWingmanMsg
EXTRN	??0FalconFlightPlanMessage@@QAE@VVU_ID@@PAVVuTargetEntity@@E@Z:PROC ; FalconFlightPlanMessage::FalconFlightPlanMessage
EXTRN	?RegisterMove@MissionEvaluationClass@@QAEXPAVFlightClass@@@Z:PROC ; MissionEvaluationClass::RegisterMove
EXTRN	?RegisterAbort@MissionEvaluationClass@@QAEXPAVFlightClass@@@Z:PROC ; MissionEvaluationClass::RegisterAbort
EXTRN	?RegisterDivert@MissionEvaluationClass@@QAEXPAVFlightClass@@PAVMissionRequestClass@@@Z:PROC ; MissionEvaluationClass::RegisterDivert
EXTRN	?SetFinalAircraft@MissionEvaluationClass@@QAEXPAVFlightClass@@@Z:PROC ; MissionEvaluationClass::SetFinalAircraft
EXTRN	?GetNextPt@@YAHH@Z:PROC				; GetNextPt
EXTRN	?GetNextPtLoop@@YAHH@Z:PROC			; GetNextPtLoop
EXTRN	?TranslatePointData@@YAXPAVCampBaseClass@@HPAM1@Z:PROC ; TranslatePointData
EXTRN	?GetQueue@@YAHH@Z:PROC				; GetQueue
EXTRN	?GetOwner@@YAEPAEFF@Z:PROC			; GetOwner
EXTRN	??_Eerror_category@std@@UAEPAXI@Z:PROC		; std::error_category::`vector deleting destructor'
EXTRN	?_Syserror_map@std@@YAPBDH@Z:PROC		; std::_Syserror_map
EXTRN	?_Winerror_map@std@@YAPBDH@Z:PROC		; std::_Winerror_map
EXTRN	??_E_Generic_error_category@std@@UAEPAXI@Z:PROC	; std::_Generic_error_category::`vector deleting destructor'
EXTRN	??_E_Iostream_error_category@std@@UAEPAXI@Z:PROC ; std::_Iostream_error_category::`vector deleting destructor'
EXTRN	??_E_System_error_category@std@@UAEPAXI@Z:PROC	; std::_System_error_category::`vector deleting destructor'
EXTRN	?GetGroundLevel@OTWDriverClass@@QAEMMMPAUTpoint@@@Z:PROC ; OTWDriverClass::GetGroundLevel
EXTRN	?PickVoice@VoiceMapper@@QAEHHH@Z:PROC		; VoiceMapper::PickVoice
EXTRN	?GetMEA@TMap@@QAEMMM@Z:PROC			; TMap::GetMEA
EXTRN	?FindTaxiPt@@YAHPAVFlightClass@@PAVObjectiveClass@@H@Z:PROC ; FindTaxiPt
EXTRN	?UI_Refresh@@YAXXZ:PROC				; UI_Refresh
EXTRN	@__security_check_cookie@4:PROC
EXTRN	__CxxThrowException@8:PROC
EXTRN	___CxxFrameHandler3:PROC
EXTRN	__chkstk:PROC
EXTRN	?vuDatabase@@3PAVVuDatabase@@A:DWORD		; vuDatabase
EXTRN	?vuLocalSessionEntity@@3V?$VuBin@VVuSessionEntity@@@@A:DWORD ; vuLocalSessionEntity
EXTRN	?vuLocalSession@@3VVU_ID@@A:QWORD		; vuLocalSession
EXTRN	?FalconNullId@@3VVU_ID@@A:QWORD			; FalconNullId
EXTRN	?SimLibElapsedTime@@3KA:DWORD			; SimLibElapsedTime
EXTRN	?ReconLossTime@@3PAKA:BYTE			; ReconLossTime
EXTRN	?Map_Max_X@@3FA:WORD				; Map_Max_X
EXTRN	?Map_Max_Y@@3FA:WORD				; Map_Max_Y
EXTRN	?WeaponDataTable@@3PAUWeaponClassDataType@@A:DWORD ; WeaponDataTable
EXTRN	?PtHeaderDataTable@@3PAUPtHeaderDataType@@A:DWORD ; PtHeaderDataTable
EXTRN	?PtDataTable@@3PAUPtDataType@@A:DWORD		; PtDataTable
EXTRN	?SimACDefTable@@3PAUSimACDefType@@A:DWORD	; SimACDefTable
EXTRN	?DDP@@3PAUDirtyDataClassType@@A:DWORD		; DDP
EXTRN	?Falcon4ClassTable@@3PAUFalcon4EntityClassType@@A:DWORD ; Falcon4ClassTable
EXTRN	?MissionData@@3PAUMissionDataType@@A:BYTE	; MissionData
EXTRN	??_7type_info@@6B@:QWORD			; type_info::`vftable'
EXTRN	?FlightNS@@3VIdNamespace@@A:BYTE		; FlightNS
EXTRN	?CampFilter@@3VCampBaseFilter@@A:DWORD		; CampFilter
EXTRN	?AllAirList@@3PAVVuLinkedList@@A:DWORD		; AllAirList
EXTRN	?AirDefenseList@@3PAVFalconPrivateList@@A:DWORD	; AirDefenseList
EXTRN	?EmitterList@@3PAVFalconPrivateList@@A:DWORD	; EmitterList
EXTRN	?ObjProxList@@3PAVVuGridTree@@A:DWORD		; ObjProxList
EXTRN	?RealUnitProxList@@3PAVVuGridTree@@A:DWORD	; RealUnitProxList
EXTRN	?dx@@3PAFA:BYTE					; dx
EXTRN	?dy@@3PAFA:BYTE					; dy
EXTRN	?VisualDetectionRange@@3PAHA:BYTE		; VisualDetectionRange
EXTRN	?DefaultDamageMods@@3PAEA:BYTE			; DefaultDamageMods
EXTRN	?AirTactics@@3FA:WORD				; AirTactics
EXTRN	?FirstAirTactic@@3FA:WORD			; FirstAirTactic
EXTRN	?TheCampaign@@3VCampaignClass@@A:BYTE		; TheCampaign
EXTRN	?gCampDataVersion@@3HA:DWORD			; gCampDataVersion
EXTRN	?TeamInfo@@3PAPAVTeamClass@@A:BYTE		; TeamInfo
EXTRN	?FLIGHT_MOVE_CHECK_INTERVAL@@3FA:WORD		; FLIGHT_MOVE_CHECK_INTERVAL
EXTRN	?FLIGHT_COMBAT_CHECK_INTERVAL@@3FA:WORD		; FLIGHT_COMBAT_CHECK_INTERVAL
EXTRN	?MIN_IGNORE_RANGE@@3MA:DWORD			; MIN_IGNORE_RANGE
EXTRN	?PILOT_ASSIGN_TIME@@3JA:DWORD			; PILOT_ASSIGN_TIME
EXTRN	?MAX_GROUND_SEARCH@@3FA:WORD			; MAX_GROUND_SEARCH
EXTRN	?MAX_AIR_SEARCH@@3FA:WORD			; MAX_AIR_SEARCH
EXTRN	?PilotInfo@@3PAVPilotInfoClass@@A:DWORD		; PilotInfo
EXTRN	?gDefaultAWACSCallSign@@3FA:WORD		; gDefaultAWACSCallSign
EXTRN	?MRX@@3HA:DWORD					; MRX
EXTRN	?MissStr@@3PAY0BE@DA:BYTE			; MissStr
EXTRN	?OTWDriver@@3VOTWDriverClass@@A:BYTE		; OTWDriver
EXTRN	?g_voicemap@@3VVoiceMapper@@A:QWORD		; g_voicemap
EXTRN	?g_bRP5Comp@@3_NA:BYTE				; g_bRP5Comp
EXTRN	?TheMap@@3VTMap@@A:BYTE				; TheMap
EXTRN	?g_bAWACSRequired@@3_NA:BYTE			; g_bAWACSRequired
EXTRN	?g_bLoadoutSquadStoreResupply@@3_NA:BYTE	; g_bLoadoutSquadStoreResupply
EXTRN	?g_fIdentFactor@@3MA:DWORD			; g_fIdentFactor
EXTRN	?SquadFormations@@3PAY02UAIOffsetType@@A:BYTE	; SquadFormations
EXTRN	?PlatoonFormations@@3PAY03UAIOffsetType@@A:BYTE	; PlatoonFormations
EXTRN	?CompanyFormations@@3PAY03UAIOffsetType@@A:BYTE	; CompanyFormations
EXTRN	?save_log@@3PAU_iobuf@@A:DWORD			; save_log
EXTRN	?load_log@@3PAU_iobuf@@A:DWORD			; load_log
EXTRN	?start_save_stream@@3HA:DWORD			; start_save_stream
EXTRN	?start_load_stream@@3HA:DWORD			; start_load_stream
EXTRN	?g_nFlightVisualBonus@@3HA:DWORD		; g_nFlightVisualBonus
EXTRN	?g_bRealisticAttrition@@3_NA:BYTE		; g_bRealisticAttrition
EXTRN	___security_cookie:DWORD
EXTRN	__fltused:DWORD
_BSS	SEGMENT
_piecewise_construct DB 01H DUP (?)
	ALIGN	4

_allocator_arg DB 01H DUP (?)
_BSS	ENDS
;	COMDAT ?_Generic_object@?$_Error_objects@H@std@@2V_Generic_error_category@2@A
_BSS	SEGMENT
?_Generic_object@?$_Error_objects@H@std@@2V_Generic_error_category@2@A DD 01H DUP (?) ; std::_Error_objects<int>::_Generic_object
_BSS	ENDS
;	COMDAT ?_Iostream_object@?$_Error_objects@H@std@@2V_Iostream_error_category@2@A
_BSS	SEGMENT
?_Iostream_object@?$_Error_objects@H@std@@2V_Iostream_error_category@2@A DD 01H DUP (?) ; std::_Error_objects<int>::_Iostream_object
_BSS	ENDS
;	COMDAT ?_System_object@?$_Error_objects@H@std@@2V_System_error_category@2@A
_BSS	SEGMENT
?_System_object@?$_Error_objects@H@std@@2V_System_error_category@2@A DD 01H DUP (?) ; std::_Error_objects<int>::_System_object
_BSS	ENDS
;	COMDAT ?id@?$num_put@DV?$back_insert_iterator@V?$basic_string@DU?$char_traits@D@std@@V?$allocator@D@2@@std@@@std@@@std@@2V0locale@2@A
_BSS	SEGMENT
?id@?$num_put@DV?$back_insert_iterator@V?$basic_string@DU?$char_traits@D@std@@V?$allocator@D@2@@std@@@std@@@std@@2V0locale@2@A DD 01H DUP (?) ; std::num_put<char,std::back_insert_iterator<std::basic_string<char,std::char_traits<char>,std::allocator<char> > > >::id
_BSS	ENDS
;	COMDAT ?id@?$num_put@_WV?$back_insert_iterator@V?$basic_string@_WU?$char_traits@_W@std@@V?$allocator@_W@2@@std@@@std@@@std@@2V0locale@2@A
_BSS	SEGMENT
?id@?$num_put@_WV?$back_insert_iterator@V?$basic_string@_WU?$char_traits@_W@std@@V?$allocator@_W@2@@std@@@std@@@std@@2V0locale@2@A DD 01H DUP (?) ; std::num_put<wchar_t,std::back_insert_iterator<std::basic_string<wchar_t,std::char_traits<wchar_t>,std::allocator<wchar_t> > > >::id
_BSS	ENDS
_BSS	SEGMENT
	ALIGN	4

?LastawackWarning@@3JA DD 01H DUP (?)			; LastawackWarning
_BSS	ENDS
;	COMDAT ?ent@?1??GetVehicleDeagData@FlightClass@@UAEHPAVSimInitDataClass@@H@Z@4PAVCampBaseClass@@A
_BSS	SEGMENT
?ent@?1??GetVehicleDeagData@FlightClass@@UAEHPAVSimInitDataClass@@H@Z@4PAVCampBaseClass@@A DD 01H DUP (?) ; `FlightClass::GetVehicleDeagData'::`2'::ent
_BSS	ENDS
;	COMDAT ?pilotSlot@?1??GetVehicleDeagData@FlightClass@@UAEHPAVSimInitDataClass@@H@Z@4HA
_BSS	SEGMENT
?pilotSlot@?1??GetVehicleDeagData@FlightClass@@UAEHPAVSimInitDataClass@@H@Z@4HA DD 01H DUP (?) ; `FlightClass::GetVehicleDeagData'::`2'::pilotSlot
_BSS	ENDS
;	COMDAT ?queue@?1??GetVehicleDeagData@FlightClass@@UAEHPAVSimInitDataClass@@H@Z@4HA
_BSS	SEGMENT
?queue@?1??GetVehicleDeagData@FlightClass@@UAEHPAVSimInitDataClass@@H@Z@4HA DD 01H DUP (?) ; `FlightClass::GetVehicleDeagData'::`2'::queue
_BSS	ENDS
;	COMDAT ?rwindex@?1??GetVehicleDeagData@FlightClass@@UAEHPAVSimInitDataClass@@H@Z@4HA
_BSS	SEGMENT
?rwindex@?1??GetVehicleDeagData@FlightClass@@UAEHPAVSimInitDataClass@@H@Z@4HA DD 01H DUP (?) ; `FlightClass::GetVehicleDeagData'::`2'::rwindex
_BSS	ENDS
;	COMDAT ?id@?$numpunct@D@std@@2V0locale@2@A
_BSS	SEGMENT
?id@?$numpunct@D@std@@2V0locale@2@A DD 01H DUP (?)	; std::numpunct<char>::id
_BSS	ENDS
;	COMDAT ?id@?$numpunct@_W@std@@2V0locale@2@A
_BSS	SEGMENT
?id@?$numpunct@_W@std@@2V0locale@2@A DD 01H DUP (?)	; std::numpunct<wchar_t>::id
_BSS	ENDS
CRT$XCU	SEGMENT
_piecewise_construct$initializer$ DD FLAT:??__Epiecewise_construct@std@@YAXXZ
CRT$XCU	ENDS
;	COMDAT __xmm@80000000800000008000000080000000
CONST	SEGMENT
__xmm@80000000800000008000000080000000 DB 00H, 00H, 00H, 080H, 00H, 00H, 00H
	DB	080H, 00H, 00H, 00H, 080H, 00H, 00H, 00H, 080H
CONST	ENDS
;	COMDAT __xmm@41f00000000000000000000000000000
CONST	SEGMENT
__xmm@41f00000000000000000000000000000 DB 00H, 00H, 00H, 00H, 00H, 00H, 00H
	DB	00H, 00H, 00H, 00H, 00H, 00H, 00H, 0f0H, 'A'
CONST	ENDS
;	COMDAT __real@bff921fb54442d18
CONST	SEGMENT
__real@bff921fb54442d18 DQ 0bff921fb54442d18r	; -1.5708
CONST	ENDS
;	COMDAT __real@bf800000
CONST	SEGMENT
__real@bf800000 DD 0bf800000r			; -1
CONST	ENDS
;	COMDAT __real@8000000000000000
CONST	SEGMENT
__real@8000000000000000 DQ 08000000000000000r	; -0
CONST	ENDS
;	COMDAT __real@4f5c0ff8
CONST	SEGMENT
__real@4f5c0ff8 DD 04f5c0ff8r			; 3.69203e+009
CONST	ENDS
;	COMDAT __real@469c4000
CONST	SEGMENT
__real@469c4000 DD 0469c4000r			; 20000
CONST	ENDS
;	COMDAT __real@461c3c00
CONST	SEGMENT
__real@461c3c00 DD 0461c3c00r			; 9999
CONST	ENDS
;	COMDAT __real@454cffae
CONST	SEGMENT
__real@454cffae DD 0454cffaer			; 3279.98
CONST	ENDS
;	COMDAT __real@447a0000
CONST	SEGMENT
__real@447a0000 DD 0447a0000r			; 1000
CONST	ENDS
;	COMDAT __real@43fa0000
CONST	SEGMENT
__real@43fa0000 DD 043fa0000r			; 500
CONST	ENDS
;	COMDAT __real@437a0000
CONST	SEGMENT
__real@437a0000 DD 0437a0000r			; 250
CONST	ENDS
;	COMDAT __real@43480000
CONST	SEGMENT
__real@43480000 DD 043480000r			; 200
CONST	ENDS
;	COMDAT __real@42de450a
CONST	SEGMENT
__real@42de450a DD 042de450ar			; 111.135
CONST	ENDS
;	COMDAT __real@42c80000
CONST	SEGMENT
__real@42c80000 DD 042c80000r			; 100
CONST	ENDS
;	COMDAT __real@428c0000
CONST	SEGMENT
__real@428c0000 DD 0428c0000r			; 70
CONST	ENDS
;	COMDAT __real@42652ee1
CONST	SEGMENT
__real@42652ee1 DD 042652ee1r			; 57.2958
CONST	ENDS
;	COMDAT __real@42480000
CONST	SEGMENT
__real@42480000 DD 042480000r			; 50
CONST	ENDS
;	COMDAT __real@42393988
CONST	SEGMENT
__real@42393988 DD 042393988r			; 46.3062
CONST	ENDS
;	COMDAT __real@42340000
CONST	SEGMENT
__real@42340000 DD 042340000r			; 45
CONST	ENDS
;	COMDAT __real@41900000
CONST	SEGMENT
__real@41900000 DD 041900000r			; 18
CONST	ENDS
;	COMDAT __real@40c90fdb
CONST	SEGMENT
__real@40c90fdb DD 040c90fdbr			; 6.28319
CONST	ENDS
;	COMDAT __real@40a00000
CONST	SEGMENT
__real@40a00000 DD 040a00000r			; 5
CONST	ENDS
;	COMDAT __real@40800000
CONST	SEGMENT
__real@40800000 DD 040800000r			; 4
CONST	ENDS
;	COMDAT __real@400921fb54442d18
CONST	SEGMENT
__real@400921fb54442d18 DQ 0400921fb54442d18r	; 3.14159
CONST	ENDS
;	COMDAT __real@40000000
CONST	SEGMENT
__real@40000000 DD 040000000r			; 2
CONST	ENDS
;	COMDAT __real@3ff921fb54442d18
CONST	SEGMENT
__real@3ff921fb54442d18 DQ 03ff921fb54442d18r	; 1.5708
CONST	ENDS
;	COMDAT __real@3f99999a
CONST	SEGMENT
__real@3f99999a DD 03f99999ar			; 1.2
CONST	ENDS
;	COMDAT __real@3f8ccccd
CONST	SEGMENT
__real@3f8ccccd DD 03f8ccccdr			; 1.1
CONST	ENDS
;	COMDAT __real@3f800000
CONST	SEGMENT
__real@3f800000 DD 03f800000r			; 1
CONST	ENDS
;	COMDAT __real@3f693e32
CONST	SEGMENT
__real@3f693e32 DD 03f693e32r			; 0.911105
CONST	ENDS
;	COMDAT __real@3f17ac60
CONST	SEGMENT
__real@3f17ac60 DD 03f17ac60r			; 0.592474
CONST	ENDS
;	COMDAT __real@3f000000
CONST	SEGMENT
__real@3f000000 DD 03f000000r			; 0.5
CONST	ENDS
;	COMDAT __real@3c8efa34
CONST	SEGMENT
__real@3c8efa34 DD 03c8efa34r			; 0.0174533
CONST	ENDS
;	COMDAT __real@0000000000000000
CONST	SEGMENT
__real@0000000000000000 DQ 00000000000000000r	; 0
CONST	ENDS
;	COMDAT __real@00000000
CONST	SEGMENT
__real@00000000 DD 000000000r			; 0
CONST	ENDS
;	COMDAT ??_R1A@?0A@EA@_System_error_category@std@@8
rdata$r	SEGMENT
??_R1A@?0A@EA@_System_error_category@std@@8 DD FLAT:??_R0?AV_System_error_category@std@@@8 ; std::_System_error_category::`RTTI Base Class Descriptor at (0,-1,0,64)'
	DD	02H
	DD	00H
	DD	0ffffffffH
	DD	00H
	DD	040H
	DD	FLAT:??_R3_System_error_category@std@@8
rdata$r	ENDS
;	COMDAT ??_R2_System_error_category@std@@8
rdata$r	SEGMENT
??_R2_System_error_category@std@@8 DD FLAT:??_R1A@?0A@EA@_System_error_category@std@@8 ; std::_System_error_category::`RTTI Base Class Array'
	DD	FLAT:??_R1A@?0A@EA@_Generic_error_category@std@@8
	DD	FLAT:??_R1A@?0A@EA@error_category@std@@8
rdata$r	ENDS
;	COMDAT ??_R3_System_error_category@std@@8
rdata$r	SEGMENT
??_R3_System_error_category@std@@8 DD 00H		; std::_System_error_category::`RTTI Class Hierarchy Descriptor'
	DD	00H
	DD	03H
	DD	FLAT:??_R2_System_error_category@std@@8
rdata$r	ENDS
;	COMDAT ??_R0?AV_System_error_category@std@@@8
_DATA	SEGMENT
??_R0?AV_System_error_category@std@@@8 DD FLAT:??_7type_info@@6B@ ; std::_System_error_category `RTTI Type Descriptor'
	DD	00H
	DB	'.?AV_System_error_category@std@@', 00H
_DATA	ENDS
;	COMDAT ??_R4_System_error_category@std@@6B@
rdata$r	SEGMENT
??_R4_System_error_category@std@@6B@ DD 00H		; std::_System_error_category::`RTTI Complete Object Locator'
	DD	00H
	DD	00H
	DD	FLAT:??_R0?AV_System_error_category@std@@@8
	DD	FLAT:??_R3_System_error_category@std@@8
rdata$r	ENDS
;	COMDAT ??_R1A@?0A@EA@_Iostream_error_category@std@@8
rdata$r	SEGMENT
??_R1A@?0A@EA@_Iostream_error_category@std@@8 DD FLAT:??_R0?AV_Iostream_error_category@std@@@8 ; std::_Iostream_error_category::`RTTI Base Class Descriptor at (0,-1,0,64)'
	DD	02H
	DD	00H
	DD	0ffffffffH
	DD	00H
	DD	040H
	DD	FLAT:??_R3_Iostream_error_category@std@@8
rdata$r	ENDS
;	COMDAT ??_R2_Iostream_error_category@std@@8
rdata$r	SEGMENT
??_R2_Iostream_error_category@std@@8 DD FLAT:??_R1A@?0A@EA@_Iostream_error_category@std@@8 ; std::_Iostream_error_category::`RTTI Base Class Array'
	DD	FLAT:??_R1A@?0A@EA@_Generic_error_category@std@@8
	DD	FLAT:??_R1A@?0A@EA@error_category@std@@8
rdata$r	ENDS
;	COMDAT ??_R3_Iostream_error_category@std@@8
rdata$r	SEGMENT
??_R3_Iostream_error_category@std@@8 DD 00H		; std::_Iostream_error_category::`RTTI Class Hierarchy Descriptor'
	DD	00H
	DD	03H
	DD	FLAT:??_R2_Iostream_error_category@std@@8
rdata$r	ENDS
;	COMDAT ??_R0?AV_Iostream_error_category@std@@@8
_DATA	SEGMENT
??_R0?AV_Iostream_error_category@std@@@8 DD FLAT:??_7type_info@@6B@ ; std::_Iostream_error_category `RTTI Type Descriptor'
	DD	00H
	DB	'.?AV_Iostream_error_category@std@@', 00H
_DATA	ENDS
;	COMDAT ??_R4_Iostream_error_category@std@@6B@
rdata$r	SEGMENT
??_R4_Iostream_error_category@std@@6B@ DD 00H		; std::_Iostream_error_category::`RTTI Complete Object Locator'
	DD	00H
	DD	00H
	DD	FLAT:??_R0?AV_Iostream_error_category@std@@@8
	DD	FLAT:??_R3_Iostream_error_category@std@@8
rdata$r	ENDS
;	COMDAT ??_R1A@?0A@EA@_Generic_error_category@std@@8
rdata$r	SEGMENT
??_R1A@?0A@EA@_Generic_error_category@std@@8 DD FLAT:??_R0?AV_Generic_error_category@std@@@8 ; std::_Generic_error_category::`RTTI Base Class Descriptor at (0,-1,0,64)'
	DD	01H
	DD	00H
	DD	0ffffffffH
	DD	00H
	DD	040H
	DD	FLAT:??_R3_Generic_error_category@std@@8
rdata$r	ENDS
;	COMDAT ??_R2_Generic_error_category@std@@8
rdata$r	SEGMENT
??_R2_Generic_error_category@std@@8 DD FLAT:??_R1A@?0A@EA@_Generic_error_category@std@@8 ; std::_Generic_error_category::`RTTI Base Class Array'
	DD	FLAT:??_R1A@?0A@EA@error_category@std@@8
rdata$r	ENDS
;	COMDAT ??_R3_Generic_error_category@std@@8
rdata$r	SEGMENT
??_R3_Generic_error_category@std@@8 DD 00H		; std::_Generic_error_category::`RTTI Class Hierarchy Descriptor'
	DD	00H
	DD	02H
	DD	FLAT:??_R2_Generic_error_category@std@@8
rdata$r	ENDS
;	COMDAT ??_R0?AV_Generic_error_category@std@@@8
_DATA	SEGMENT
??_R0?AV_Generic_error_category@std@@@8 DD FLAT:??_7type_info@@6B@ ; std::_Generic_error_category `RTTI Type Descriptor'
	DD	00H
	DB	'.?AV_Generic_error_category@std@@', 00H
_DATA	ENDS
;	COMDAT ??_R4_Generic_error_category@std@@6B@
rdata$r	SEGMENT
??_R4_Generic_error_category@std@@6B@ DD 00H		; std::_Generic_error_category::`RTTI Complete Object Locator'
	DD	00H
	DD	00H
	DD	FLAT:??_R0?AV_Generic_error_category@std@@@8
	DD	FLAT:??_R3_Generic_error_category@std@@8
rdata$r	ENDS
;	COMDAT ??_R1A@?0A@EA@error_category@std@@8
rdata$r	SEGMENT
??_R1A@?0A@EA@error_category@std@@8 DD FLAT:??_R0?AVerror_category@std@@@8 ; std::error_category::`RTTI Base Class Descriptor at (0,-1,0,64)'
	DD	00H
	DD	00H
	DD	0ffffffffH
	DD	00H
	DD	040H
	DD	FLAT:??_R3error_category@std@@8
rdata$r	ENDS
;	COMDAT ??_R2error_category@std@@8
rdata$r	SEGMENT
??_R2error_category@std@@8 DD FLAT:??_R1A@?0A@EA@error_category@std@@8 ; std::error_category::`RTTI Base Class Array'
rdata$r	ENDS
;	COMDAT ??_R3error_category@std@@8
rdata$r	SEGMENT
??_R3error_category@std@@8 DD 00H			; std::error_category::`RTTI Class Hierarchy Descriptor'
	DD	00H
	DD	01H
	DD	FLAT:??_R2error_category@std@@8
rdata$r	ENDS
;	COMDAT ??_R0?AVerror_category@std@@@8
_DATA	SEGMENT
??_R0?AVerror_category@std@@@8 DD FLAT:??_7type_info@@6B@ ; std::error_category `RTTI Type Descriptor'
	DD	00H
	DB	'.?AVerror_category@std@@', 00H
_DATA	ENDS
;	COMDAT ??_R4error_category@std@@6B@
rdata$r	SEGMENT
??_R4error_category@std@@6B@ DD 00H			; std::error_category::`RTTI Complete Object Locator'
	DD	00H
	DD	00H
	DD	FLAT:??_R0?AVerror_category@std@@@8
	DD	FLAT:??_R3error_category@std@@8
rdata$r	ENDS
;	COMDAT ??_R1A@?0A@EA@InvalidBufferException@@8
rdata$r	SEGMENT
??_R1A@?0A@EA@InvalidBufferException@@8 DD FLAT:??_R0?AVInvalidBufferException@@@8 ; InvalidBufferException::`RTTI Base Class Descriptor at (0,-1,0,64)'
	DD	03H
	DD	00H
	DD	0ffffffffH
	DD	00H
	DD	040H
	DD	FLAT:??_R3InvalidBufferException@@8
rdata$r	ENDS
;	COMDAT ??_R2InvalidBufferException@@8
rdata$r	SEGMENT
??_R2InvalidBufferException@@8 DD FLAT:??_R1A@?0A@EA@InvalidBufferException@@8 ; InvalidBufferException::`RTTI Base Class Array'
	DD	FLAT:??_R1A@?0A@EA@out_of_range@std@@8
	DD	FLAT:??_R1A@?0A@EA@logic_error@std@@8
	DD	FLAT:??_R1A@?0A@EA@exception@std@@8
rdata$r	ENDS
;	COMDAT ??_R3InvalidBufferException@@8
rdata$r	SEGMENT
??_R3InvalidBufferException@@8 DD 00H			; InvalidBufferException::`RTTI Class Hierarchy Descriptor'
	DD	00H
	DD	04H
	DD	FLAT:??_R2InvalidBufferException@@8
rdata$r	ENDS
;	COMDAT ??_R4InvalidBufferException@@6B@
rdata$r	SEGMENT
??_R4InvalidBufferException@@6B@ DD 00H			; InvalidBufferException::`RTTI Complete Object Locator'
	DD	00H
	DD	00H
	DD	FLAT:??_R0?AVInvalidBufferException@@@8
	DD	FLAT:??_R3InvalidBufferException@@8
rdata$r	ENDS
;	COMDAT ??_R2VuEntity@@8
rdata$r	SEGMENT
??_R2VuEntity@@8 DD FLAT:??_R1A@?0A@EA@VuEntity@@8	; VuEntity::`RTTI Base Class Array'
rdata$r	ENDS
;	COMDAT ??_R3VuEntity@@8
rdata$r	SEGMENT
??_R3VuEntity@@8 DD 00H					; VuEntity::`RTTI Class Hierarchy Descriptor'
	DD	00H
	DD	01H
	DD	FLAT:??_R2VuEntity@@8
rdata$r	ENDS
;	COMDAT ??_R0?AVVuEntity@@@8
_DATA	SEGMENT
??_R0?AVVuEntity@@@8 DD FLAT:??_7type_info@@6B@		; VuEntity `RTTI Type Descriptor'
	DD	00H
	DB	'.?AVVuEntity@@', 00H
_DATA	ENDS
;	COMDAT ??_R1A@?0A@EA@VuEntity@@8
rdata$r	SEGMENT
??_R1A@?0A@EA@VuEntity@@8 DD FLAT:??_R0?AVVuEntity@@@8	; VuEntity::`RTTI Base Class Descriptor at (0,-1,0,64)'
	DD	00H
	DD	00H
	DD	0ffffffffH
	DD	00H
	DD	040H
	DD	FLAT:??_R3VuEntity@@8
rdata$r	ENDS
;	COMDAT ??_R2FalconEntity@@8
rdata$r	SEGMENT
??_R2FalconEntity@@8 DD FLAT:??_R1A@?0A@EA@FalconEntity@@8 ; FalconEntity::`RTTI Base Class Array'
	DD	FLAT:??_R1A@?0A@EA@VuEntity@@8
rdata$r	ENDS
;	COMDAT ??_R3FalconEntity@@8
rdata$r	SEGMENT
??_R3FalconEntity@@8 DD 00H				; FalconEntity::`RTTI Class Hierarchy Descriptor'
	DD	00H
	DD	02H
	DD	FLAT:??_R2FalconEntity@@8
rdata$r	ENDS
;	COMDAT ??_R0?AVFalconEntity@@@8
_DATA	SEGMENT
??_R0?AVFalconEntity@@@8 DD FLAT:??_7type_info@@6B@	; FalconEntity `RTTI Type Descriptor'
	DD	00H
	DB	'.?AVFalconEntity@@', 00H
_DATA	ENDS
;	COMDAT ??_R1A@?0A@EA@FalconEntity@@8
rdata$r	SEGMENT
??_R1A@?0A@EA@FalconEntity@@8 DD FLAT:??_R0?AVFalconEntity@@@8 ; FalconEntity::`RTTI Base Class Descriptor at (0,-1,0,64)'
	DD	01H
	DD	00H
	DD	0ffffffffH
	DD	00H
	DD	040H
	DD	FLAT:??_R3FalconEntity@@8
rdata$r	ENDS
;	COMDAT ??_R2CampBaseClass@@8
rdata$r	SEGMENT
??_R2CampBaseClass@@8 DD FLAT:??_R1A@?0A@EA@CampBaseClass@@8 ; CampBaseClass::`RTTI Base Class Array'
	DD	FLAT:??_R1A@?0A@EA@FalconEntity@@8
	DD	FLAT:??_R1A@?0A@EA@VuEntity@@8
rdata$r	ENDS
;	COMDAT ??_R3CampBaseClass@@8
rdata$r	SEGMENT
??_R3CampBaseClass@@8 DD 00H				; CampBaseClass::`RTTI Class Hierarchy Descriptor'
	DD	00H
	DD	03H
	DD	FLAT:??_R2CampBaseClass@@8
rdata$r	ENDS
;	COMDAT ??_R0?AVCampBaseClass@@@8
_DATA	SEGMENT
??_R0?AVCampBaseClass@@@8 DD FLAT:??_7type_info@@6B@	; CampBaseClass `RTTI Type Descriptor'
	DD	00H
	DB	'.?AVCampBaseClass@@', 00H
_DATA	ENDS
;	COMDAT ??_R1A@?0A@EA@CampBaseClass@@8
rdata$r	SEGMENT
??_R1A@?0A@EA@CampBaseClass@@8 DD FLAT:??_R0?AVCampBaseClass@@@8 ; CampBaseClass::`RTTI Base Class Descriptor at (0,-1,0,64)'
	DD	02H
	DD	00H
	DD	0ffffffffH
	DD	00H
	DD	040H
	DD	FLAT:??_R3CampBaseClass@@8
rdata$r	ENDS
;	COMDAT ??_R2UnitClass@@8
rdata$r	SEGMENT
??_R2UnitClass@@8 DD FLAT:??_R1A@?0A@EA@UnitClass@@8	; UnitClass::`RTTI Base Class Array'
	DD	FLAT:??_R1A@?0A@EA@CampBaseClass@@8
	DD	FLAT:??_R1A@?0A@EA@FalconEntity@@8
	DD	FLAT:??_R1A@?0A@EA@VuEntity@@8
rdata$r	ENDS
;	COMDAT ??_R3UnitClass@@8
rdata$r	SEGMENT
??_R3UnitClass@@8 DD 00H				; UnitClass::`RTTI Class Hierarchy Descriptor'
	DD	00H
	DD	04H
	DD	FLAT:??_R2UnitClass@@8
rdata$r	ENDS
;	COMDAT ??_R0?AVUnitClass@@@8
_DATA	SEGMENT
??_R0?AVUnitClass@@@8 DD FLAT:??_7type_info@@6B@	; UnitClass `RTTI Type Descriptor'
	DD	00H
	DB	'.?AVUnitClass@@', 00H
_DATA	ENDS
;	COMDAT ??_R1A@?0A@EA@UnitClass@@8
rdata$r	SEGMENT
??_R1A@?0A@EA@UnitClass@@8 DD FLAT:??_R0?AVUnitClass@@@8 ; UnitClass::`RTTI Base Class Descriptor at (0,-1,0,64)'
	DD	03H
	DD	00H
	DD	0ffffffffH
	DD	00H
	DD	040H
	DD	FLAT:??_R3UnitClass@@8
rdata$r	ENDS
;	COMDAT ??_R2AirUnitClass@@8
rdata$r	SEGMENT
??_R2AirUnitClass@@8 DD FLAT:??_R1A@?0A@EA@AirUnitClass@@8 ; AirUnitClass::`RTTI Base Class Array'
	DD	FLAT:??_R1A@?0A@EA@UnitClass@@8
	DD	FLAT:??_R1A@?0A@EA@CampBaseClass@@8
	DD	FLAT:??_R1A@?0A@EA@FalconEntity@@8
	DD	FLAT:??_R1A@?0A@EA@VuEntity@@8
rdata$r	ENDS
;	COMDAT ??_R3AirUnitClass@@8
rdata$r	SEGMENT
??_R3AirUnitClass@@8 DD 00H				; AirUnitClass::`RTTI Class Hierarchy Descriptor'
	DD	00H
	DD	05H
	DD	FLAT:??_R2AirUnitClass@@8
rdata$r	ENDS
;	COMDAT ??_R0?AVAirUnitClass@@@8
_DATA	SEGMENT
??_R0?AVAirUnitClass@@@8 DD FLAT:??_7type_info@@6B@	; AirUnitClass `RTTI Type Descriptor'
	DD	00H
	DB	'.?AVAirUnitClass@@', 00H
_DATA	ENDS
;	COMDAT ??_R1A@?0A@EA@AirUnitClass@@8
rdata$r	SEGMENT
??_R1A@?0A@EA@AirUnitClass@@8 DD FLAT:??_R0?AVAirUnitClass@@@8 ; AirUnitClass::`RTTI Base Class Descriptor at (0,-1,0,64)'
	DD	04H
	DD	00H
	DD	0ffffffffH
	DD	00H
	DD	040H
	DD	FLAT:??_R3AirUnitClass@@8
rdata$r	ENDS
;	COMDAT ??_R1A@?0A@EA@FlightClass@@8
rdata$r	SEGMENT
??_R1A@?0A@EA@FlightClass@@8 DD FLAT:??_R0?AVFlightClass@@@8 ; FlightClass::`RTTI Base Class Descriptor at (0,-1,0,64)'
	DD	05H
	DD	00H
	DD	0ffffffffH
	DD	00H
	DD	040H
	DD	FLAT:??_R3FlightClass@@8
rdata$r	ENDS
;	COMDAT ??_R2FlightClass@@8
rdata$r	SEGMENT
??_R2FlightClass@@8 DD FLAT:??_R1A@?0A@EA@FlightClass@@8 ; FlightClass::`RTTI Base Class Array'
	DD	FLAT:??_R1A@?0A@EA@AirUnitClass@@8
	DD	FLAT:??_R1A@?0A@EA@UnitClass@@8
	DD	FLAT:??_R1A@?0A@EA@CampBaseClass@@8
	DD	FLAT:??_R1A@?0A@EA@FalconEntity@@8
	DD	FLAT:??_R1A@?0A@EA@VuEntity@@8
rdata$r	ENDS
;	COMDAT ??_R3FlightClass@@8
rdata$r	SEGMENT
??_R3FlightClass@@8 DD 00H				; FlightClass::`RTTI Class Hierarchy Descriptor'
	DD	00H
	DD	06H
	DD	FLAT:??_R2FlightClass@@8
rdata$r	ENDS
;	COMDAT ??_R0?AVFlightClass@@@8
_DATA	SEGMENT
??_R0?AVFlightClass@@@8 DD FLAT:??_7type_info@@6B@	; FlightClass `RTTI Type Descriptor'
	DD	00H
	DB	'.?AVFlightClass@@', 00H
_DATA	ENDS
;	COMDAT ??_R4FlightClass@@6B@
rdata$r	SEGMENT
??_R4FlightClass@@6B@ DD 00H				; FlightClass::`RTTI Complete Object Locator'
	DD	00H
	DD	00H
	DD	FLAT:??_R0?AVFlightClass@@@8
	DD	FLAT:??_R3FlightClass@@8
rdata$r	ENDS
;	COMDAT ??_R1A@?0A@EA@out_of_range@std@@8
rdata$r	SEGMENT
??_R1A@?0A@EA@out_of_range@std@@8 DD FLAT:??_R0?AVout_of_range@std@@@8 ; std::out_of_range::`RTTI Base Class Descriptor at (0,-1,0,64)'
	DD	02H
	DD	00H
	DD	0ffffffffH
	DD	00H
	DD	040H
	DD	FLAT:??_R3out_of_range@std@@8
rdata$r	ENDS
;	COMDAT ??_R2out_of_range@std@@8
rdata$r	SEGMENT
??_R2out_of_range@std@@8 DD FLAT:??_R1A@?0A@EA@out_of_range@std@@8 ; std::out_of_range::`RTTI Base Class Array'
	DD	FLAT:??_R1A@?0A@EA@logic_error@std@@8
	DD	FLAT:??_R1A@?0A@EA@exception@std@@8
rdata$r	ENDS
;	COMDAT ??_R3out_of_range@std@@8
rdata$r	SEGMENT
??_R3out_of_range@std@@8 DD 00H				; std::out_of_range::`RTTI Class Hierarchy Descriptor'
	DD	00H
	DD	03H
	DD	FLAT:??_R2out_of_range@std@@8
rdata$r	ENDS
;	COMDAT ??_R4out_of_range@std@@6B@
rdata$r	SEGMENT
??_R4out_of_range@std@@6B@ DD 00H			; std::out_of_range::`RTTI Complete Object Locator'
	DD	00H
	DD	00H
	DD	FLAT:??_R0?AVout_of_range@std@@@8
	DD	FLAT:??_R3out_of_range@std@@8
rdata$r	ENDS
;	COMDAT ??_R1A@?0A@EA@logic_error@std@@8
rdata$r	SEGMENT
??_R1A@?0A@EA@logic_error@std@@8 DD FLAT:??_R0?AVlogic_error@std@@@8 ; std::logic_error::`RTTI Base Class Descriptor at (0,-1,0,64)'
	DD	01H
	DD	00H
	DD	0ffffffffH
	DD	00H
	DD	040H
	DD	FLAT:??_R3logic_error@std@@8
rdata$r	ENDS
;	COMDAT ??_R2logic_error@std@@8
rdata$r	SEGMENT
??_R2logic_error@std@@8 DD FLAT:??_R1A@?0A@EA@logic_error@std@@8 ; std::logic_error::`RTTI Base Class Array'
	DD	FLAT:??_R1A@?0A@EA@exception@std@@8
rdata$r	ENDS
;	COMDAT ??_R3logic_error@std@@8
rdata$r	SEGMENT
??_R3logic_error@std@@8 DD 00H				; std::logic_error::`RTTI Class Hierarchy Descriptor'
	DD	00H
	DD	02H
	DD	FLAT:??_R2logic_error@std@@8
rdata$r	ENDS
;	COMDAT ??_R4logic_error@std@@6B@
rdata$r	SEGMENT
??_R4logic_error@std@@6B@ DD 00H			; std::logic_error::`RTTI Complete Object Locator'
	DD	00H
	DD	00H
	DD	FLAT:??_R0?AVlogic_error@std@@@8
	DD	FLAT:??_R3logic_error@std@@8
rdata$r	ENDS
;	COMDAT ??_R2exception@std@@8
rdata$r	SEGMENT
??_R2exception@std@@8 DD FLAT:??_R1A@?0A@EA@exception@std@@8 ; std::exception::`RTTI Base Class Array'
rdata$r	ENDS
;	COMDAT ??_R3exception@std@@8
rdata$r	SEGMENT
??_R3exception@std@@8 DD 00H				; std::exception::`RTTI Class Hierarchy Descriptor'
	DD	00H
	DD	01H
	DD	FLAT:??_R2exception@std@@8
rdata$r	ENDS
;	COMDAT ??_R1A@?0A@EA@exception@std@@8
rdata$r	SEGMENT
??_R1A@?0A@EA@exception@std@@8 DD FLAT:??_R0?AVexception@std@@@8 ; std::exception::`RTTI Base Class Descriptor at (0,-1,0,64)'
	DD	00H
	DD	00H
	DD	0ffffffffH
	DD	00H
	DD	040H
	DD	FLAT:??_R3exception@std@@8
rdata$r	ENDS
;	COMDAT ??_C@_0BA@JFNIOLAK@string?5too?5long?$AA@
CONST	SEGMENT
??_C@_0BA@JFNIOLAK@string?5too?5long?$AA@ DB 'string too long', 00H ; `string'
CONST	ENDS
;	COMDAT ??_C@_0BI@CFPLBAOH@invalid?5string?5position?$AA@
CONST	SEGMENT
??_C@_0BI@CFPLBAOH@invalid?5string?5position?$AA@ DB 'invalid string posi'
	DB	'tion', 00H					; `string'
CONST	ENDS
;	COMDAT ??_C@_0EM@NKMILAPK@Unit?5?$CFd?3?5Waypoint?5action?5?$CFd?5?$CImis@
CONST	SEGMENT
??_C@_0EM@NKMILAPK@Unit?5?$CFd?3?5Waypoint?5action?5?$CFd?5?$CImis@ DB 'U'
	DB	'nit %d: Waypoint action %d (mission: %s) didn''t have time. S'
	DB	'etting times.', 0aH, 00H			; `string'
CONST	ENDS
;	COMDAT ??_C@_0BC@GNBNJBMB@?$CF08x?5FlightClass?5?$AA@
CONST	SEGMENT
??_C@_0BC@GNBNJBMB@?$CF08x?5FlightClass?5?$AA@ DB '%08x FlightClass ', 00H ; `string'
CONST	ENDS
;	COMDAT ??_C@_06FHFOAHML@system?$AA@
CONST	SEGMENT
??_C@_06FHFOAHML@system?$AA@ DB 'system', 00H		; `string'
CONST	ENDS
;	COMDAT ??_7_System_error_category@std@@6B@
CONST	SEGMENT
??_7_System_error_category@std@@6B@ DD FLAT:??_R4_System_error_category@std@@6B@ ; std::_System_error_category::`vftable'
	DD	FLAT:??_E_System_error_category@std@@UAEPAXI@Z
	DD	FLAT:?name@_System_error_category@std@@UBEPBDXZ
	DD	FLAT:?message@_System_error_category@std@@UBE?AV?$basic_string@DU?$char_traits@D@std@@V?$allocator@D@2@@2@H@Z
	DD	FLAT:?default_error_condition@_System_error_category@std@@UBE?AVerror_condition@2@H@Z
	DD	FLAT:?equivalent@error_category@std@@UBE_NABVerror_code@2@H@Z
	DD	FLAT:?equivalent@error_category@std@@UBE_NHABVerror_condition@2@@Z
CONST	ENDS
;	COMDAT ??_C@_0BG@PADBLCHM@iostream?5stream?5error?$AA@
CONST	SEGMENT
??_C@_0BG@PADBLCHM@iostream?5stream?5error?$AA@ DB 'iostream stream error'
	DB	00H						; `string'
CONST	ENDS
;	COMDAT ??_C@_08LLGCOLLL@iostream?$AA@
CONST	SEGMENT
??_C@_08LLGCOLLL@iostream?$AA@ DB 'iostream', 00H	; `string'
CONST	ENDS
;	COMDAT ??_7_Iostream_error_category@std@@6B@
CONST	SEGMENT
??_7_Iostream_error_category@std@@6B@ DD FLAT:??_R4_Iostream_error_category@std@@6B@ ; std::_Iostream_error_category::`vftable'
	DD	FLAT:??_E_Iostream_error_category@std@@UAEPAXI@Z
	DD	FLAT:?name@_Iostream_error_category@std@@UBEPBDXZ
	DD	FLAT:?message@_Iostream_error_category@std@@UBE?AV?$basic_string@DU?$char_traits@D@std@@V?$allocator@D@2@@2@H@Z
	DD	FLAT:?default_error_condition@error_category@std@@UBE?AVerror_condition@2@H@Z
	DD	FLAT:?equivalent@error_category@std@@UBE_NABVerror_code@2@H@Z
	DD	FLAT:?equivalent@error_category@std@@UBE_NHABVerror_condition@2@@Z
CONST	ENDS
;	COMDAT ??_C@_0O@BFJCFAAK@unknown?5error?$AA@
CONST	SEGMENT
??_C@_0O@BFJCFAAK@unknown?5error?$AA@ DB 'unknown error', 00H ; `string'
CONST	ENDS
;	COMDAT ??_C@_07DCLBNMLN@generic?$AA@
CONST	SEGMENT
??_C@_07DCLBNMLN@generic?$AA@ DB 'generic', 00H		; `string'
CONST	ENDS
;	COMDAT ??_7_Generic_error_category@std@@6B@
CONST	SEGMENT
??_7_Generic_error_category@std@@6B@ DD FLAT:??_R4_Generic_error_category@std@@6B@ ; std::_Generic_error_category::`vftable'
	DD	FLAT:??_E_Generic_error_category@std@@UAEPAXI@Z
	DD	FLAT:?name@_Generic_error_category@std@@UBEPBDXZ
	DD	FLAT:?message@_Generic_error_category@std@@UBE?AV?$basic_string@DU?$char_traits@D@std@@V?$allocator@D@2@@2@H@Z
	DD	FLAT:?default_error_condition@error_category@std@@UBE?AVerror_condition@2@H@Z
	DD	FLAT:?equivalent@error_category@std@@UBE_NABVerror_code@2@H@Z
	DD	FLAT:?equivalent@error_category@std@@UBE_NHABVerror_condition@2@@Z
CONST	ENDS
;	COMDAT ??_7error_category@std@@6B@
CONST	SEGMENT
??_7error_category@std@@6B@ DD FLAT:??_R4error_category@std@@6B@ ; std::error_category::`vftable'
	DD	FLAT:??_Eerror_category@std@@UAEPAXI@Z
	DD	FLAT:__purecall
	DD	FLAT:__purecall
	DD	FLAT:?default_error_condition@error_category@std@@UBE?AVerror_condition@2@H@Z
	DD	FLAT:?equivalent@error_category@std@@UBE_NABVerror_code@2@H@Z
	DD	FLAT:?equivalent@error_category@std@@UBE_NHABVerror_condition@2@@Z
CONST	ENDS
;	COMDAT ??_7FlightClass@@6B@
CONST	SEGMENT
??_7FlightClass@@6B@ DD FLAT:??_R4FlightClass@@6B@	; FlightClass::`vftable'
	DD	FLAT:?CustomCollisionCheck@VuEntity@@UAEEPAV1@M@Z
	DD	FLAT:?TerrainCollisionCheck@VuEntity@@UAEEXZ
	DD	FLAT:?IsTarget@VuEntity@@UAEEXZ
	DD	FLAT:?IsSession@VuEntity@@UAEEXZ
	DD	FLAT:?IsGroup@VuEntity@@UAEEXZ
	DD	FLAT:?IsGame@VuEntity@@UAEEXZ
	DD	FLAT:?IsCamera@VuEntity@@UBEEXZ
	DD	FLAT:?SaveSize@FlightClass@@UAEHXZ
	DD	FLAT:?Save@FalconEntity@@UAEHPAU_iobuf@@@Z
	DD	FLAT:?Save@FlightClass@@UAEHPAPAE@Z
	DD	FLAT:?Handle@CampBaseClass@@UAEHPAVVuSessionEvent@@@Z
	DD	FLAT:?Handle@CampBaseClass@@UAEHPAVVuTransferEvent@@@Z
	DD	FLAT:?Handle@CampBaseClass@@UAEHPAVVuEntityCollisionEvent@@@Z
	DD	FLAT:?Handle@CampBaseClass@@UAEHPAVVuPositionUpdateEvent@@@Z
	DD	FLAT:?Handle@FlightClass@@UAEHPAVVuFullUpdateEvent@@@Z
	DD	FLAT:?Handle@CampBaseClass@@UAEHPAVVuEvent@@@Z
	DD	FLAT:?Handle@VuEntity@@UAEHPAVVuPullRequest@@@Z
	DD	FLAT:?Handle@VuEntity@@UAEHPAVVuPushRequest@@@Z
	DD	FLAT:?Handle@VuEntity@@UAEHPAVVuErrorMessage@@@Z
	DD	FLAT:??_EFlightClass@@UAEPAXI@Z
	DD	FLAT:?InsertionCallback@VuEntity@@MAEHXZ
	DD	FLAT:?RemovalCallback@FlightClass@@UAEHXZ
	DD	FLAT:?InitData@CampBaseClass@@UAEXXZ
	DD	FLAT:?CleanupData@FalconEntity@@UAEXXZ
	DD	FLAT:?IsSimBase@FalconEntity@@UAE_NXZ
	DD	FLAT:?IsCampBase@CampBaseClass@@UAE_NXZ
	DD	FLAT:?Wake@UnitClass@@UAEHXZ
	DD	FLAT:?Sleep@UnitClass@@UAEHXZ
	DD	FLAT:?GetCampID@CampBaseClass@@UAEFXZ
	DD	FLAT:?GetTeam@CampBaseClass@@UAEEXZ
	DD	FLAT:?GetCountry@CampBaseClass@@UAEEXZ
	DD	FLAT:?GetDomain@FalconEntity@@UAEEXZ
	DD	FLAT:?GetRadarMode@FlightClass@@UAEHXZ
	DD	FLAT:?SetRadarMode@FalconEntity@@UAEXE@Z
	DD	FLAT:?ReturnToSearch@FalconEntity@@UAEXXZ
	DD	FLAT:?SetSearchMode@FalconEntity@@UAEXE@Z
	DD	FLAT:?CombatClass@FlightClass@@UAEHXZ
	DD	FLAT:?OnGround@AirUnitClass@@UAEHXZ
	DD	FLAT:?HasEntity@CampBaseClass@@UBEHPAVVuEntity@@@Z
	DD	FLAT:?IsMissile@FalconEntity@@UAEHXZ
	DD	FLAT:?IsLauncher@FalconEntity@@UAEHXZ
	DD	FLAT:?IsBomb@FalconEntity@@UAEHXZ
	DD	FLAT:?IsGun@FalconEntity@@UAEHXZ
	DD	FLAT:?IsMover@FalconEntity@@UAEHXZ
	DD	FLAT:?IsVehicle@FalconEntity@@UAEHXZ
	DD	FLAT:?IsStatic@FalconEntity@@UAEHXZ
	DD	FLAT:?IsHelicopter@FalconEntity@@UAEHXZ
	DD	FLAT:?IsEject@FalconEntity@@UAEHXZ
	DD	FLAT:?IsAirplane@FalconEntity@@UAEHXZ
	DD	FLAT:?IsGroundVehicle@FalconEntity@@UAEHXZ
	DD	FLAT:?IsShip@FalconEntity@@UAEHXZ
	DD	FLAT:?IsWeapon@FalconEntity@@UAEHXZ
	DD	FLAT:?IsExploding@FalconEntity@@UAEHXZ
	DD	FLAT:?IsDead@FalconEntity@@UAEHXZ
	DD	FLAT:?IsEmitting@CampBaseClass@@UAEHXZ
	DD	FLAT:?GetVt@AirUnitClass@@UBEMXZ
	DD	FLAT:?GetKias@AirUnitClass@@UBEMXZ
	DD	FLAT:?GetMovementType@AirUnitClass@@UAE?AW4MoveType@@XZ
	DD	FLAT:?IsUnit@UnitClass@@UAEHXZ
	DD	FLAT:?IsObjective@FalconEntity@@UAEHXZ
	DD	FLAT:?IsBattalion@FalconEntity@@UAEHXZ
	DD	FLAT:?IsBrigade@FalconEntity@@UAEHXZ
	DD	FLAT:?IsFlight@FlightClass@@UBEHXZ
	DD	FLAT:?IsSquadron@FalconEntity@@UAEHXZ
	DD	FLAT:?IsPackage@FalconEntity@@UAEHXZ
	DD	FLAT:?IsTeam@FalconEntity@@UAEHXZ
	DD	FLAT:?IsTaskForce@FalconEntity@@UAEHXZ
	DD	FLAT:?IsSPJamming@FlightClass@@UAEHXZ
	DD	FLAT:?IsAreaJamming@FlightClass@@UAEHXZ
	DD	FLAT:?HasSPJamming@FlightClass@@UAEHXZ
	DD	FLAT:?HasAreaJamming@FlightClass@@UAEHXZ
	DD	FLAT:?GetRCSFactor@UnitClass@@UAEMXZ
	DD	FLAT:?GetIRFactor@UnitClass@@UAEMXZ
	DD	FLAT:?GetRadarType@UnitClass@@UAEHXZ
	DD	FLAT:?GetDamageModifiers@UnitClass@@UAEPAEXZ
	DD	FLAT:?SetAQUIREtimer@FalconEntity@@UAEXK@Z
	DD	FLAT:?SetSEARCHtimer@FalconEntity@@UAEXK@Z
	DD	FLAT:?SetStepSearchMode@FalconEntity@@UAEXE@Z
	DD	FLAT:?GetAQUIREtimer@FalconEntity@@UAEKXZ
	DD	FLAT:?GetSEARCHtimer@FalconEntity@@UAEKXZ
	DD	FLAT:?SetOwner@CampBaseClass@@UAEXE@Z
	DD	FLAT:?SendDeaggregateData@UnitClass@@UAEXPAVVuTargetEntity@@@Z
	DD	FLAT:?RecordCurrentState@UnitClass@@UAEHPAVFalconSessionEntity@@H@Z
	DD	FLAT:?Deaggregate@UnitClass@@UAEHPAVFalconSessionEntity@@@Z
	DD	FLAT:?Reaggregate@UnitClass@@UAEHPAVFalconSessionEntity@@@Z
	DD	FLAT:?TransferOwnership@UnitClass@@UAEHPAVFalconSessionEntity@@@Z
	DD	FLAT:?InsertInSimLists@UnitClass@@UAEXMM@Z
	DD	FLAT:?RemoveFromSimLists@UnitClass@@UAEXXZ
	DD	FLAT:?DeaggregateFromData@UnitClass@@UAEXPAEJ@Z
	DD	FLAT:?ReaggregateFromData@UnitClass@@UAEXPAEJ@Z
	DD	FLAT:?TransferOwnershipFromData@UnitClass@@UAEXPAEJ@Z
	DD	FLAT:?ApplyDamage@UnitClass@@UAEHW4DamageDataType@@PAHHF@Z
	DD	FLAT:?ApplyDamage@UnitClass@@UAEHPAVFalconCampWeaponsFire@@E@Z
	DD	FLAT:?DecodeDamageData@UnitClass@@UAEHPAEPAV1@PAVFalconDeathMessage@@@Z
	DD	FLAT:?CollectWeapons@FlightClass@@UAEHPAEW4MoveType@@QAFQAEH@Z
	DD	FLAT:?GetName@UnitClass@@UAEPADPADHH@Z
	DD	FLAT:?GetFullName@UnitClass@@UAEPADPADHH@Z
	DD	FLAT:?GetDivisionName@UnitClass@@UAEPADPADHH@Z
	DD	FLAT:?GetHitChance@UnitClass@@UAEHHH@Z
	DD	FLAT:?GetAproxHitChance@UnitClass@@UAEHHH@Z
	DD	FLAT:?GetCombatStrength@UnitClass@@UAEHHH@Z
	DD	FLAT:?GetAproxCombatStrength@UnitClass@@UAEHHH@Z
	DD	FLAT:?GetWeaponRange@UnitClass@@UAEHHPAVFalconEntity@@@Z
	DD	FLAT:?GetAproxWeaponRange@UnitClass@@UAEHH@Z
	DD	FLAT:?GetDetectionRange@FlightClass@@UAEHH@Z
	DD	FLAT:?GetElectronicDetectionRange@UnitClass@@UAEHH@Z
	DD	FLAT:?CanDetect@UnitClass@@UAEHPAVFalconEntity@@@Z
	DD	FLAT:?StepRadar@CampBaseClass@@UAEHHHM@Z
	DD	FLAT:?GetNumberOfArcs@UnitClass@@UAEHXZ
	DD	FLAT:?GetArcRatio@UnitClass@@UAEMH@Z
	DD	FLAT:?GetArcRange@UnitClass@@UAEMH@Z
	DD	FLAT:?GetArcAngle@UnitClass@@UAEXHPAM0@Z
	DD	FLAT:?GetMissilesFlying@CampBaseClass@@UAEHXZ
	DD	FLAT:?ResetPlayerStatus@UnitClass@@UAEHXZ
	DD	FLAT:?GetComponentLocation@UnitClass@@UAEXPAF0H@Z
	DD	FLAT:?GetComponentAltitude@UnitClass@@UAEHH@Z
	DD	FLAT:?CanShootWeapon@UnitClass@@UAEHH@Z
	DD	FLAT:?GetDeaggregationPoint@FlightClass@@UAEHHPAPAVCampBaseClass@@@Z
	DD	FLAT:?GetUnitDeaggregationData@UnitClass@@UAEPAVUnitDeaggregationData@@XZ
	DD	FLAT:?ShouldDeaggregate@FlightClass@@UAEHXZ
	DD	FLAT:?ClearDeaggregationData@UnitClass@@UAEXXZ
	DD	FLAT:?Reaction@FlightClass@@UAEHPAVCampBaseClass@@HM@Z
	DD	FLAT:?MoveUnit@FlightClass@@UAEHK@Z
	DD	FLAT:?DoCombat@FlightClass@@UAEHXZ
	DD	FLAT:?ChooseTactic@FlightClass@@UAEHXZ
	DD	FLAT:?CheckTactic@FlightClass@@UAEHH@Z
	DD	FLAT:?Father@UnitClass@@UBEHXZ
	DD	FLAT:?Real@FlightClass@@UAEHXZ
	DD	FLAT:?AdjustForSupply@UnitClass@@UAEMXZ
	DD	FLAT:?GetUnitSpeed@AirUnitClass@@UBEHXZ
	DD	FLAT:?DetectOnMove@FlightClass@@UAEHXZ
	DD	FLAT:?ChooseTarget@FlightClass@@UAEHXZ
	DD	FLAT:?MaxUpdateTime@FlightClass@@UBEKXZ
	DD	FLAT:?CombatTime@FlightClass@@UAEKXZ
	DD	FLAT:?GetUnitSupplyNeed@UnitClass@@UAEHH@Z
	DD	FLAT:?GetUnitFuelNeed@UnitClass@@UAEHH@Z
	DD	FLAT:?SupplyUnit@UnitClass@@UAEXHH@Z
	DD	FLAT:?GetVehicleDeagData@FlightClass@@UAEHPAVSimInitDataClass@@H@Z
	DD	FLAT:?IsDead@UnitClass@@UBEHXZ
	DD	FLAT:?SimSetLocation@FlightClass@@UAEXMMM@Z
	DD	FLAT:?SimSetOrientation@FlightClass@@UAEXMMM@Z
	DD	FLAT:?GetRealPosition@FlightClass@@UAEXPAM00@Z
	DD	FLAT:?GetBestVehicleWeapon@FlightClass@@UAEHHPAEW4MoveType@@HPAH@Z
	DD	FLAT:?GetVehicleHitChance@UnitClass@@UAEHHW4MoveType@@HH@Z
	DD	FLAT:?GetVehicleCombatStrength@UnitClass@@UAEHHW4MoveType@@H@Z
	DD	FLAT:?GetVehicleRange@UnitClass@@UAEHHHPAVFalconEntity@@@Z
	DD	FLAT:?GetUnitWeaponId@FlightClass@@UAEHHH@Z
	DD	FLAT:?GetUnitWeaponCount@FlightClass@@UAEHHH@Z
	DD	FLAT:?SetUnitLastMove@FlightClass@@UAEXK@Z
	DD	FLAT:?SetCombatTime@FlightClass@@UAEXK@Z
	DD	FLAT:?SetBurntFuel@FlightClass@@UAEXJ@Z
	DD	FLAT:?SetUnitMission@FlightClass@@UAEXE@Z
	DD	FLAT:?SetUnitRole@UnitClass@@UAEXE@Z
	DD	FLAT:?SetUnitPriority@FlightClass@@UAEXH@Z
	DD	FLAT:?SetUnitMissionID@FlightClass@@UAEXH@Z
	DD	FLAT:?SetUnitMissionTarget@UnitClass@@UAEXH@Z
	DD	FLAT:?SetUnitTOT@FlightClass@@UAEXK@Z
	DD	FLAT:?SetUnitSquadron@FlightClass@@UAEXVVU_ID@@@Z
	DD	FLAT:?SetUnitAirbase@UnitClass@@UAEXVVU_ID@@@Z
	DD	FLAT:?SetLoadout@FlightClass@@UAEXPAULoadoutStruct@@H@Z
	DD	FLAT:?GetNumberOfLoadouts@FlightClass@@UAEHXZ
	DD	FLAT:?GetMoveTime@FlightClass@@UAEKXZ
	DD	FLAT:?GetCombatTime@FlightClass@@UAEKXZ
	DD	FLAT:?GetAirTargetID@UnitClass@@UAE?AVVU_ID@@XZ
	DD	FLAT:?GetAirTarget@UnitClass@@UAEPAVFalconEntity@@XZ
	DD	FLAT:?GetBurntFuel@FlightClass@@UAEHXZ
	DD	FLAT:?GetUnitMission@FlightClass@@UAE?AW4MissionTypeEnum@@XZ
	DD	FLAT:?GetUnitNormalRole@UnitClass@@UAEHXZ
	DD	FLAT:?GetUnitCurrentRole@FlightClass@@UBEHXZ
	DD	FLAT:?GetUnitPriority@FlightClass@@UAEHXZ
	DD	FLAT:?GetUnitMissionTarget@FlightClass@@UAEPAVCampBaseClass@@XZ
	DD	FLAT:?GetUnitMissionTargetID@FlightClass@@UAE?AVVU_ID@@XZ
	DD	FLAT:?GetUnitMissionID@FlightClass@@UAEHXZ
	DD	FLAT:?GetUnitTOT@FlightClass@@UAEKXZ
	DD	FLAT:?GetUnitSquadron@FlightClass@@UAEPAVUnitClass@@XZ
	DD	FLAT:?GetUnitSquadronID@FlightClass@@UAE?AVVU_ID@@XZ
	DD	FLAT:?GetUnitAirbase@FlightClass@@UAEPAVCampBaseClass@@XZ
	DD	FLAT:?GetUnitAirbaseID@FlightClass@@UAE?AVVU_ID@@XZ
	DD	FLAT:?LoadWeapons@FlightClass@@UAEHPAXPAEW4MoveType@@HHH@Z
	DD	FLAT:?DumpWeapons@FlightClass@@UAEHXZ
	DD	FLAT:?ETA@FlightClass@@UAEKXZ
	DD	FLAT:?GetKnownEmitters@FlightClass@@UAEPAVFalconPrivateList@@XZ
	DD	FLAT:?BuildMission@UnitClass@@UAEHXZ
	DD	FLAT:?BuildMission@FlightClass@@UAEHPAVMissionRequestClass@@@Z
	DD	FLAT:?IncrementTime@FlightClass@@UAEXK@Z
	DD	FLAT:?UseFuel@FlightClass@@UAEXJ@Z
	DD	FLAT:?SetUnitSpecialty@UnitClass@@UAEXH@Z
	DD	FLAT:?SetUnitSupply@UnitClass@@UAEXH@Z
	DD	FLAT:?SetUnitMorale@UnitClass@@UAEXH@Z
	DD	FLAT:?SetSquadronFuel@UnitClass@@UAEXJ@Z
	DD	FLAT:?SetUnitStores@UnitClass@@UAEXHE@Z
	DD	FLAT:?SetLastResupply@UnitClass@@UAEXH@Z
	DD	FLAT:?SetLastResupplyTime@UnitClass@@UAEXK@Z
	DD	FLAT:?GetUnitSpecialty@UnitClass@@UAEHXZ
	DD	FLAT:?GetUnitSupply@UnitClass@@UAEHXZ
	DD	FLAT:?GetUnitMorale@UnitClass@@UAEHXZ
	DD	FLAT:?GetSquadronFuel@UnitClass@@UAEJXZ
	DD	FLAT:?GetUnitStores@UnitClass@@UAEEH@Z
	DD	FLAT:?GetLastResupplyTime@UnitClass@@UAEKXZ
	DD	FLAT:?GetLastResupply@UnitClass@@UAEHXZ
	DD	FLAT:?BuildPackage@UnitClass@@UAEHPAVMissionRequestClass@@PAVFalconPrivateList@@@Z
	DD	FLAT:?HandleRequestReceipt@UnitClass@@UAEXHHVVU_ID@@@Z
	DD	FLAT:?SetUnitAssemblyPoint@UnitClass@@UAEXHFF@Z
	DD	FLAT:?GetUnitAssemblyPoint@FlightClass@@UAEXHPAF0@Z
	DD	FLAT:?SetUnitPrimaryObj@UnitClass@@UAEXVVU_ID@@@Z
	DD	FLAT:?SetUnitSecondaryObj@UnitClass@@UAEXVVU_ID@@@Z
	DD	FLAT:?SetUnitObjective@UnitClass@@UAEXVVU_ID@@@Z
	DD	FLAT:?SetUnitOrders@UnitClass@@UAEXHVVU_ID@@@Z
	DD	FLAT:?SetUnitOrders@UnitClass@@UAEXH@Z
	DD	FLAT:?SetUnitFatigue@UnitClass@@UAEXH@Z
	DD	FLAT:?SetUnitMode@UnitClass@@UAEXH@Z
	DD	FLAT:?SetUnitPosition@UnitClass@@UAEXH@Z
	DD	FLAT:?SetUnitDivision@UnitClass@@UAEXH@Z
	DD	FLAT:?SetUnitHeading@UnitClass@@UAEXH@Z
	DD	FLAT:?GetUnitPrimaryObj@UnitClass@@UAEPAVObjectiveClass@@XZ
	DD	FLAT:?GetUnitSecondaryObj@UnitClass@@UAEPAVObjectiveClass@@XZ
	DD	FLAT:?GetUnitObjective@UnitClass@@UAEPAVObjectiveClass@@XZ
	DD	FLAT:?GetUnitPrimaryObjID@UnitClass@@UAE?AVVU_ID@@XZ
	DD	FLAT:?GetUnitSecondaryObjID@UnitClass@@UAE?AVVU_ID@@XZ
	DD	FLAT:?GetUnitObjectiveID@UnitClass@@UAE?AVVU_ID@@XZ
	DD	FLAT:?GetUnitOrders@UnitClass@@UAEHXZ
	DD	FLAT:?GetUnitFatigue@UnitClass@@UAEHXZ
	DD	FLAT:?GetUnitElement@UnitClass@@UAEPAV1@H@Z
	DD	FLAT:?GetUnitElement@UnitClass@@UAEHXZ
	DD	FLAT:?GetUnitMode@UnitClass@@UAEHXZ
	DD	FLAT:?GetUnitPosition@UnitClass@@UAEHXZ
	DD	FLAT:?GetUnitDivision@UnitClass@@UAEHXZ
	DD	FLAT:?GetUnitHeading@UnitClass@@UAEHXZ
	DD	FLAT:?SetUnitNextMove@UnitClass@@UAEXXZ
	DD	FLAT:?ClearUnitPath@UnitClass@@UAEXXZ
	DD	FLAT:?GetNextMoveDirection@UnitClass@@UAEHXZ
	DD	FLAT:?SetUnitCurrentDestination@UnitClass@@UAEXFF@Z
	DD	FLAT:?GetUnitCurrentDestination@UnitClass@@UAEXPAF0@Z
	DD	FLAT:?GetObjMovementType@UnitClass@@UAE?AW4MoveType@@PAVObjectiveClass@@H@Z
	DD	FLAT:?CheckForSurrender@UnitClass@@UAEHXZ
	DD	FLAT:?RallyUnit@UnitClass@@UAEHH@Z
	DD	FLAT:?GetUnitParent@UnitClass@@UBEPAV1@XZ
	DD	FLAT:?GetUnitParentID@FlightClass@@UAE?AVVU_ID@@XZ
	DD	FLAT:?SetUnitParent@FlightClass@@UAEXPAVUnitClass@@@Z
	DD	FLAT:?GetFirstUnitElement@UnitClass@@UBEPAV1@XZ
	DD	FLAT:?GetNextUnitElement@UnitClass@@UBEPAV1@XZ
	DD	FLAT:?GetUnitElementByID@UnitClass@@UAEPAV1@H@Z
	DD	FLAT:?GetPrevUnitElement@UnitClass@@UAEPAV1@PAV1@@Z
	DD	FLAT:?AddUnitChild@UnitClass@@UAEXPAV1@@Z
	DD	FLAT:?DisposeChildren@UnitClass@@UAEXXZ
	DD	FLAT:?RemoveChild@UnitClass@@UAEXVVU_ID@@@Z
	DD	FLAT:?ReorganizeUnit@UnitClass@@UAEXXZ
	DD	FLAT:?UpdateParentStatistics@UnitClass@@UAEHXZ
	DD	FLAT:?IsHelicopter@AirUnitClass@@UBEHXZ
	DD	FLAT:?GetLoadout@FlightClass@@UAEPAULoadoutStruct@@H@Z
	DD	FLAT:?SetUnitMissionTarget@FlightClass@@UAEXVVU_ID@@@Z
	DD	FLAT:?RemoveLoadout@FlightClass@@UAEXXZ
	DD	FLAT:?GetUnitParent@FlightClass@@UAEPAVUnitClass@@XZ
CONST	ENDS
;	COMDAT __CT??_R0?AVexception@std@@@8??0exception@std@@QAE@ABV01@@Z12
xdata$x	SEGMENT
__CT??_R0?AVexception@std@@@8??0exception@std@@QAE@ABV01@@Z12 DD 00H
	DD	FLAT:??_R0?AVexception@std@@@8
	DD	00H
	DD	0ffffffffH
	ORG $+4
	DD	0cH
	DD	FLAT:??0exception@std@@QAE@ABV01@@Z
xdata$x	ENDS
;	COMDAT ??_R0?AVexception@std@@@8
_DATA	SEGMENT
??_R0?AVexception@std@@@8 DD FLAT:??_7type_info@@6B@	; std::exception `RTTI Type Descriptor'
	DD	00H
	DB	'.?AVexception@std@@', 00H
_DATA	ENDS
;	COMDAT __CT??_R0?AVlogic_error@std@@@8??0logic_error@std@@QAE@ABV01@@Z12
xdata$x	SEGMENT
__CT??_R0?AVlogic_error@std@@@8??0logic_error@std@@QAE@ABV01@@Z12 DD 00H
	DD	FLAT:??_R0?AVlogic_error@std@@@8
	DD	00H
	DD	0ffffffffH
	ORG $+4
	DD	0cH
	DD	FLAT:??0logic_error@std@@QAE@ABV01@@Z
xdata$x	ENDS
;	COMDAT ??_R0?AVlogic_error@std@@@8
_DATA	SEGMENT
??_R0?AVlogic_error@std@@@8 DD FLAT:??_7type_info@@6B@	; std::logic_error `RTTI Type Descriptor'
	DD	00H
	DB	'.?AVlogic_error@std@@', 00H
_DATA	ENDS
;	COMDAT __CT??_R0?AVout_of_range@std@@@8??0out_of_range@std@@QAE@ABV01@@Z12
xdata$x	SEGMENT
__CT??_R0?AVout_of_range@std@@@8??0out_of_range@std@@QAE@ABV01@@Z12 DD 00H
	DD	FLAT:??_R0?AVout_of_range@std@@@8
	DD	00H
	DD	0ffffffffH
	ORG $+4
	DD	0cH
	DD	FLAT:??0out_of_range@std@@QAE@ABV01@@Z
xdata$x	ENDS
;	COMDAT ??_R0?AVout_of_range@std@@@8
_DATA	SEGMENT
??_R0?AVout_of_range@std@@@8 DD FLAT:??_7type_info@@6B@	; std::out_of_range `RTTI Type Descriptor'
	DD	00H
	DB	'.?AVout_of_range@std@@', 00H
_DATA	ENDS
;	COMDAT __CT??_R0?AVInvalidBufferException@@@8??0InvalidBufferException@@QAE@ABV0@@Z12
xdata$x	SEGMENT
__CT??_R0?AVInvalidBufferException@@@8??0InvalidBufferException@@QAE@ABV0@@Z12 DD 00H
	DD	FLAT:??_R0?AVInvalidBufferException@@@8
	DD	00H
	DD	0ffffffffH
	ORG $+4
	DD	0cH
	DD	FLAT:??0InvalidBufferException@@QAE@ABV0@@Z
xdata$x	ENDS
;	COMDAT ??_R0?AVInvalidBufferException@@@8
_DATA	SEGMENT
??_R0?AVInvalidBufferException@@@8 DD FLAT:??_7type_info@@6B@ ; InvalidBufferException `RTTI Type Descriptor'
	DD	00H
	DB	'.?AVInvalidBufferException@@', 00H
_DATA	ENDS
;	COMDAT __CTA4?AVInvalidBufferException@@
xdata$x	SEGMENT
__CTA4?AVInvalidBufferException@@ DD 04H
	DD	FLAT:__CT??_R0?AVInvalidBufferException@@@8??0InvalidBufferException@@QAE@ABV0@@Z12
	DD	FLAT:__CT??_R0?AVout_of_range@std@@@8??0out_of_range@std@@QAE@ABV01@@Z12
	DD	FLAT:__CT??_R0?AVlogic_error@std@@@8??0logic_error@std@@QAE@ABV01@@Z12
	DD	FLAT:__CT??_R0?AVexception@std@@@8??0exception@std@@QAE@ABV01@@Z12
xdata$x	ENDS
;	COMDAT __TI4?AVInvalidBufferException@@
xdata$x	SEGMENT
__TI4?AVInvalidBufferException@@ DD 00H
	DD	FLAT:??1InvalidBufferException@@UAE@XZ
	DD	00H
	DD	FLAT:__CTA4?AVInvalidBufferException@@
xdata$x	ENDS
;	COMDAT ??_C@_0CI@MPKJAHJH@Trying?5to?5write?5?$CFlu?5bytes?5to?5?$CFld@
CONST	SEGMENT
??_C@_0CI@MPKJAHJH@Trying?5to?5write?5?$CFlu?5bytes?5to?5?$CFld@ DB 'Tryi'
	DB	'ng to write %lu bytes to %ld buffer', 00H	; `string'
CONST	ENDS
;	COMDAT ??_7InvalidBufferException@@6B@
CONST	SEGMENT
??_7InvalidBufferException@@6B@ DD FLAT:??_R4InvalidBufferException@@6B@ ; InvalidBufferException::`vftable'
	DD	FLAT:??_EInvalidBufferException@@UAEPAXI@Z
	DD	FLAT:?what@exception@std@@UBEPBDXZ
CONST	ENDS
;	COMDAT ??_7out_of_range@std@@6B@
CONST	SEGMENT
??_7out_of_range@std@@6B@ DD FLAT:??_R4out_of_range@std@@6B@ ; std::out_of_range::`vftable'
	DD	FLAT:??_Eout_of_range@std@@UAEPAXI@Z
	DD	FLAT:?what@exception@std@@UBEPBDXZ
CONST	ENDS
;	COMDAT ??_7logic_error@std@@6B@
CONST	SEGMENT
??_7logic_error@std@@6B@ DD FLAT:??_R4logic_error@std@@6B@ ; std::logic_error::`vftable'
	DD	FLAT:??_Elogic_error@std@@UAEPAXI@Z
	DD	FLAT:?what@exception@std@@UBEPBDXZ
CONST	ENDS
;	COMDAT xdata$x
xdata$x	SEGMENT
__unwindtable$??$construct@PADAAPAD@?$allocator@D@std@@QAEXPAPADAAPAD@Z DD 0ffffffffH
	DD	FLAT:__unwindfunclet$??$construct@PADAAPAD@?$allocator@D@std@@QAEXPAPADAAPAD@Z$0
__ehfuncinfo$??$construct@PADAAPAD@?$allocator@D@std@@QAEXPAPADAAPAD@Z DD 019930522H
	DD	01H
	DD	FLAT:__unwindtable$??$construct@PADAAPAD@?$allocator@D@std@@QAEXPAPADAAPAD@Z
	DD	2 DUP(00H)
	DD	2 DUP(00H)
	DD	00H
	DD	01H
xdata$x	ENDS
xdata$x	SEGMENT
__unwindtable$?FindAlternateStrip@@YAPAVObjectiveClass@@PAVFlightClass@@@Z DD 0ffffffffH
	DD	FLAT:__unwindfunclet$?FindAlternateStrip@@YAPAVObjectiveClass@@PAVFlightClass@@@Z$0
__unwindtable$?AbortFlight@@YAXPAVFlightClass@@@Z DD 0ffffffffH
	DD	FLAT:__unwindfunclet$?AbortFlight@@YAXPAVFlightClass@@@Z$0
__unwindtable$?NewFlight@@YAPAVFlightClass@@HPAVUnitClass@@0@Z DD 0ffffffffH
	DD	FLAT:__unwindfunclet$?NewFlight@@YAPAVFlightClass@@HPAVUnitClass@@0@Z$0
__unwindtable$?SendComponentMessage@FlightClass@@QAEXHPAVVuEntity@@@Z DD 0ffffffffH
	DD	FLAT:__unwindfunclet$?SendComponentMessage@FlightClass@@QAEXHPAVVuEntity@@@Z$0
__unwindtable$?LoadWeapons@FlightClass@@UAEHPAXPAEW4MoveType@@HHH@Z DD 0ffffffffH
	DD	FLAT:__unwindfunclet$?LoadWeapons@FlightClass@@UAEHPAXPAEW4MoveType@@HHH@Z$0
__unwindtable$?SetLoadout@FlightClass@@UAEXPAULoadoutStruct@@H@Z DD 0ffffffffH
	DD	FLAT:__unwindfunclet$?SetLoadout@FlightClass@@UAEXPAULoadoutStruct@@H@Z$0
__unwindtable$?Handle@FlightClass@@UAEHPAVVuFullUpdateEvent@@@Z DD 0ffffffffH
	DD	FLAT:__unwindfunclet$?Handle@FlightClass@@UAEHPAVVuFullUpdateEvent@@@Z$0
__unwindtable$??1FlightClass@@UAE@XZ DD 0ffffffffH
	DD	FLAT:__unwindfunclet$??1FlightClass@@UAE@XZ$0
__unwindtable$??0FlightClass@@QAE@GPAVUnitClass@@0@Z DD 0ffffffffH
	DD	FLAT:__unwindfunclet$??0FlightClass@@QAE@GPAVUnitClass@@0@Z$0
__unwindtable$?ReadDirty@FlightClass@@QAEXPAPAEPAJ@Z DD 0ffffffffH
	DD	FLAT:__unwindfunclet$?ReadDirty@FlightClass@@QAEXPAPAEPAJ@Z$0
__unwindtable$?GetKnownEmitters@FlightClass@@UAEPAVFalconPrivateList@@XZ DD 0ffffffffH
	DD	FLAT:__unwindfunclet$?GetKnownEmitters@FlightClass@@UAEPAVFalconPrivateList@@XZ$0
	DD	0ffffffffH
	DD	FLAT:__unwindfunclet$?GetKnownEmitters@FlightClass@@UAEPAVFalconPrivateList@@XZ$1
__unwindtable$??0FlightClass@@QAE@PAPAEPAJ@Z DD 0ffffffffH
	DD	FLAT:__unwindfunclet$??0FlightClass@@QAE@PAPAEPAJ@Z$0
	DD	00H
	DD	FLAT:__unwindfunclet$??0FlightClass@@QAE@PAPAEPAJ@Z$1
	DD	00H
	DD	FLAT:__unwindfunclet$??0FlightClass@@QAE@PAPAEPAJ@Z$2
__unwindtable$?UpdateSquadronStatus@@YAXPAVFlightClass@@HH@Z DD 0ffffffffH
	DD	FLAT:__unwindfunclet$?UpdateSquadronStatus@@YAXPAVFlightClass@@HH@Z$0
	DD	0ffffffffH
	DD	FLAT:__unwindfunclet$?UpdateSquadronStatus@@YAXPAVFlightClass@@HH@Z$1
	DD	0ffffffffH
	DD	FLAT:__unwindfunclet$?UpdateSquadronStatus@@YAXPAVFlightClass@@HH@Z$2
	DD	0ffffffffH
	DD	FLAT:__unwindfunclet$?UpdateSquadronStatus@@YAXPAVFlightClass@@HH@Z$3
__ehfuncinfo$?FindAlternateStrip@@YAPAVObjectiveClass@@PAVFlightClass@@@Z DD 019930522H
	DD	01H
	DD	FLAT:__unwindtable$?FindAlternateStrip@@YAPAVObjectiveClass@@PAVFlightClass@@@Z
	DD	2 DUP(00H)
	DD	2 DUP(00H)
	DD	00H
	DD	01H
__ehfuncinfo$?AbortFlight@@YAXPAVFlightClass@@@Z DD 019930522H
	DD	01H
	DD	FLAT:__unwindtable$?AbortFlight@@YAXPAVFlightClass@@@Z
	DD	2 DUP(00H)
	DD	2 DUP(00H)
	DD	00H
	DD	01H
__ehfuncinfo$?UpdateSquadronStatus@@YAXPAVFlightClass@@HH@Z DD 019930522H
	DD	04H
	DD	FLAT:__unwindtable$?UpdateSquadronStatus@@YAXPAVFlightClass@@HH@Z
	DD	2 DUP(00H)
	DD	2 DUP(00H)
	DD	00H
	DD	01H
__ehfuncinfo$?NewFlight@@YAPAVFlightClass@@HPAVUnitClass@@0@Z DD 019930522H
	DD	01H
	DD	FLAT:__unwindtable$?NewFlight@@YAPAVFlightClass@@HPAVUnitClass@@0@Z
	DD	2 DUP(00H)
	DD	2 DUP(00H)
	DD	00H
	DD	01H
__ehfuncinfo$?SendComponentMessage@FlightClass@@QAEXHPAVVuEntity@@@Z DD 019930522H
	DD	01H
	DD	FLAT:__unwindtable$?SendComponentMessage@FlightClass@@QAEXHPAVVuEntity@@@Z
	DD	2 DUP(00H)
	DD	2 DUP(00H)
	DD	00H
	DD	01H
__ehfuncinfo$?GetKnownEmitters@FlightClass@@UAEPAVFalconPrivateList@@XZ DD 019930522H
	DD	02H
	DD	FLAT:__unwindtable$?GetKnownEmitters@FlightClass@@UAEPAVFalconPrivateList@@XZ
	DD	2 DUP(00H)
	DD	2 DUP(00H)
	DD	00H
	DD	01H
__ehfuncinfo$?LoadWeapons@FlightClass@@UAEHPAXPAEW4MoveType@@HHH@Z DD 019930522H
	DD	01H
	DD	FLAT:__unwindtable$?LoadWeapons@FlightClass@@UAEHPAXPAEW4MoveType@@HHH@Z
	DD	2 DUP(00H)
	DD	2 DUP(00H)
	DD	00H
	DD	01H
__ehfuncinfo$?SetLoadout@FlightClass@@UAEXPAULoadoutStruct@@H@Z DD 019930522H
	DD	01H
	DD	FLAT:__unwindtable$?SetLoadout@FlightClass@@UAEXPAULoadoutStruct@@H@Z
	DD	2 DUP(00H)
	DD	2 DUP(00H)
	DD	00H
	DD	01H
__ehfuncinfo$?ChooseTarget@FlightClass@@UAEHXZ DD 019930522H
	DD	09H
	DD	FLAT:__unwindtable$?ChooseTarget@FlightClass@@UAEHXZ
	DD	2 DUP(00H)
	DD	2 DUP(00H)
	DD	00H
	DD	01H
__ehfuncinfo$?Handle@FlightClass@@UAEHPAVVuFullUpdateEvent@@@Z DD 019930522H
	DD	01H
	DD	FLAT:__unwindtable$?Handle@FlightClass@@UAEHPAVVuFullUpdateEvent@@@Z
	DD	2 DUP(00H)
	DD	2 DUP(00H)
	DD	00H
	DD	01H
__ehfuncinfo$??1FlightClass@@UAE@XZ DD 019930522H
	DD	01H
	DD	FLAT:__unwindtable$??1FlightClass@@UAE@XZ
	DD	2 DUP(00H)
	DD	2 DUP(00H)
	DD	00H
	DD	01H
__ehfuncinfo$??0FlightClass@@QAE@PAPAEPAJ@Z DD 019930522H
	DD	03H
	DD	FLAT:__unwindtable$??0FlightClass@@QAE@PAPAEPAJ@Z
	DD	2 DUP(00H)
	DD	2 DUP(00H)
	DD	00H
	DD	01H
__ehfuncinfo$??0FlightClass@@QAE@GPAVUnitClass@@0@Z DD 019930522H
	DD	01H
	DD	FLAT:__unwindtable$??0FlightClass@@QAE@GPAVUnitClass@@0@Z
	DD	2 DUP(00H)
	DD	2 DUP(00H)
	DD	00H
	DD	01H
__ehfuncinfo$?ReadDirty@FlightClass@@QAEXPAPAEPAJ@Z DD 019930522H
	DD	01H
	DD	FLAT:__unwindtable$?ReadDirty@FlightClass@@QAEXPAPAEPAJ@Z
	DD	2 DUP(00H)
	DD	2 DUP(00H)
	DD	00H
	DD	01H
__unwindtable$?ChooseTarget@FlightClass@@UAEHXZ DD 0ffffffffH
	DD	FLAT:__unwindfunclet$?ChooseTarget@FlightClass@@UAEHXZ$0
	DD	00H
	DD	FLAT:__unwindfunclet$?ChooseTarget@FlightClass@@UAEHXZ$1
	DD	0ffffffffH
	DD	FLAT:__unwindfunclet$?ChooseTarget@FlightClass@@UAEHXZ$2
	DD	02H
	DD	FLAT:__unwindfunclet$?ChooseTarget@FlightClass@@UAEHXZ$3
	DD	02H
	DD	FLAT:__unwindfunclet$?ChooseTarget@FlightClass@@UAEHXZ$4
	DD	04H
	DD	FLAT:__unwindfunclet$?ChooseTarget@FlightClass@@UAEHXZ$5
	DD	04H
	DD	FLAT:__unwindfunclet$?ChooseTarget@FlightClass@@UAEHXZ$6
	DD	04H
	DD	FLAT:__unwindfunclet$?ChooseTarget@FlightClass@@UAEHXZ$7
	DD	04H
	DD	FLAT:__unwindfunclet$?ChooseTarget@FlightClass@@UAEHXZ$8
xdata$x	ENDS
;	COMDAT xdata$x
xdata$x	SEGMENT
__unwindtable$?memcpychk@@YAXPAXPAPAEIPAJ@Z DD 0ffffffffH
	DD	FLAT:__unwindfunclet$?memcpychk@@YAXPAXPAPAEIPAJ@Z$0
__ehfuncinfo$?memcpychk@@YAXPAXPAPAEIPAJ@Z DD 019930522H
	DD	01H
	DD	FLAT:__unwindtable$?memcpychk@@YAXPAXPAPAEIPAJ@Z
	DD	2 DUP(00H)
	DD	2 DUP(00H)
	DD	00H
	DD	01H
xdata$x	ENDS
;	COMDAT xdata$x
xdata$x	SEGMENT
__catchsym$?_Copy@?$basic_string@DU?$char_traits@D@std@@V?$allocator@D@2@@std@@QAEXII@Z$5 DD 040H
	DD	00H
	DD	00H
	DD	FLAT:__catch$?_Copy@?$basic_string@DU?$char_traits@D@std@@V?$allocator@D@2@@std@@QAEXII@Z$0
__catchsym$?_Copy@?$basic_string@DU?$char_traits@D@std@@V?$allocator@D@2@@std@@QAEXII@Z$4 DD 040H
	DD	00H
	DD	00H
	DD	FLAT:__catch$?_Copy@?$basic_string@DU?$char_traits@D@std@@V?$allocator@D@2@@std@@QAEXII@Z$1
__unwindtable$?_Copy@?$basic_string@DU?$char_traits@D@std@@V?$allocator@D@2@@std@@QAEXII@Z DD 0ffffffffH
	DD	00H
	DD	0ffffffffH
	DD	00H
	DD	01H
	DD	00H
	DD	01H
	DD	00H
__ehfuncinfo$?_Copy@?$basic_string@DU?$char_traits@D@std@@V?$allocator@D@2@@std@@QAEXII@Z DD 019930522H
	DD	04H
	DD	FLAT:__unwindtable$?_Copy@?$basic_string@DU?$char_traits@D@std@@V?$allocator@D@2@@std@@QAEXII@Z
	DD	02H
	DD	FLAT:__tryblocktable$?_Copy@?$basic_string@DU?$char_traits@D@std@@V?$allocator@D@2@@std@@QAEXII@Z
	DD	2 DUP(00H)
	DD	00H
	DD	01H
__tryblocktable$?_Copy@?$basic_string@DU?$char_traits@D@std@@V?$allocator@D@2@@std@@QAEXII@Z DD 02H
	DD	02H
	DD	03H
	DD	01H
	DD	FLAT:__catchsym$?_Copy@?$basic_string@DU?$char_traits@D@std@@V?$allocator@D@2@@std@@QAEXII@Z$4
	DD	00H
	DD	00H
	DD	03H
	DD	01H
	DD	FLAT:__catchsym$?_Copy@?$basic_string@DU?$char_traits@D@std@@V?$allocator@D@2@@std@@QAEXII@Z$5
xdata$x	ENDS
CRT$XCU	SEGMENT
_allocator_arg$initializer$ DD FLAT:??__Eallocator_arg@std@@YAXXZ
CRT$XCU	ENDS
CRT$XCU	SEGMENT
_LastawackWarning$initializer$ DD FLAT:??__ELastawackWarning@@YAXXZ
CRT$XCU	ENDS
;	COMDAT CRT$XCU
CRT$XCU	SEGMENT
?_Generic_object$initializer$@?$_Error_objects@H@std@@2P6AXXZA DD FLAT:??__E?_Generic_object@?$_Error_objects@H@std@@2V_Generic_error_category@2@A@@YAXXZ ; std::_Error_objects<int>::_Generic_object$initializer$
CRT$XCU	ENDS
;	COMDAT CRT$XCU
CRT$XCU	SEGMENT
?_Iostream_object$initializer$@?$_Error_objects@H@std@@2P6AXXZA DD FLAT:??__E?_Iostream_object@?$_Error_objects@H@std@@2V_Iostream_error_category@2@A@@YAXXZ ; std::_Error_objects<int>::_Iostream_object$initializer$
CRT$XCU	ENDS
;	COMDAT CRT$XCU
CRT$XCU	SEGMENT
?_System_object$initializer$@?$_Error_objects@H@std@@2P6AXXZA DD FLAT:??__E?_System_object@?$_Error_objects@H@std@@2V_System_error_category@2@A@@YAXXZ ; std::_Error_objects<int>::_System_object$initializer$
CRT$XCU	ENDS
;	COMDAT CRT$XCU
CRT$XCU	SEGMENT
?id$initializer$@?$num_put@DV?$back_insert_iterator@V?$basic_string@DU?$char_traits@D@std@@V?$allocator@D@2@@std@@@std@@@std@@2P6AXXZA DD FLAT:??__E?id@?$num_put@DV?$back_insert_iterator@V?$basic_string@DU?$char_traits@D@std@@V?$allocator@D@2@@std@@@std@@@std@@2V0locale@2@A@@YAXXZ ; std::num_put<char,std::back_insert_iterator<std::basic_string<char,std::char_traits<char>,std::allocator<char> > > >::id$initializer$
CRT$XCU	ENDS
;	COMDAT CRT$XCU
CRT$XCU	SEGMENT
?id$initializer$@?$num_put@_WV?$back_insert_iterator@V?$basic_string@_WU?$char_traits@_W@std@@V?$allocator@_W@2@@std@@@std@@@std@@2P6AXXZA DD FLAT:??__E?id@?$num_put@_WV?$back_insert_iterator@V?$basic_string@_WU?$char_traits@_W@std@@V?$allocator@_W@2@@std@@@std@@@std@@2V0locale@2@A@@YAXXZ ; std::num_put<wchar_t,std::back_insert_iterator<std::basic_string<wchar_t,std::char_traits<wchar_t>,std::allocator<wchar_t> > > >::id$initializer$
CRT$XCU	ENDS
;	COMDAT CRT$XCU
CRT$XCU	SEGMENT
?id$initializer$@?$numpunct@D@std@@2P6AXXZA DD FLAT:??__E?id@?$numpunct@D@std@@2V0locale@2@A@@YAXXZ ; std::numpunct<char>::id$initializer$
CRT$XCU	ENDS
;	COMDAT CRT$XCU
CRT$XCU	SEGMENT
?id$initializer$@?$numpunct@_W@std@@2P6AXXZA DD FLAT:??__E?id@?$numpunct@_W@std@@2V0locale@2@A@@YAXXZ ; std::numpunct<wchar_t>::id$initializer$
CRT$XCU	ENDS
; Function compile flags: /Odtp
; File c:\program files (x86)\microsoft visual studio 11.0\vc\include\xmemory0
;	COMDAT ??$destroy@PAD@?$allocator@D@std@@QAEXPAPAD@Z
_TEXT	SEGMENT
_this$ = -4						; size = 4
__Ptr$ = 8						; size = 4
??$destroy@PAD@?$allocator@D@std@@QAEXPAPAD@Z PROC	; std::allocator<char>::destroy<char *>, COMDAT
; _this$ = ecx

; 621  : 		void destroy(_Uty *_Ptr)

	push	ebp
	mov	ebp, esp
	push	ecx
	mov	DWORD PTR _this$[ebp], ecx

; 622  : 		{	// destroy object at _Ptr
; 623  : 		_Ptr->~_Uty();
; 624  : 		}

	mov	esp, ebp
	pop	ebp
	ret	4
??$destroy@PAD@?$allocator@D@std@@QAEXPAPAD@Z ENDP	; std::allocator<char>::destroy<char *>
_TEXT	ENDS
; Function compile flags: /Odtp
; File c:\program files (x86)\microsoft visual studio 11.0\vc\include\xmemory0
;	COMDAT ??$construct@PADAAPAD@?$allocator@D@std@@QAEXPAPADAAPAD@Z
_TEXT	SEGMENT
$T2 = -28						; size = 4
_this$ = -24						; size = 4
tv73 = -20						; size = 4
$T3 = -16						; size = 4
__$EHRec$ = -12						; size = 12
__Ptr$ = 8						; size = 4
__V0$ = 12						; size = 4
??$construct@PADAAPAD@?$allocator@D@std@@QAEXPAPADAAPAD@Z PROC ; std::allocator<char>::construct<char *,char * &>, COMDAT
; _this$ = ecx

; 617  : _VARIADIC_EXPAND_0X(_ALLOC_MEMBER_CONSTRUCT, , , , )

	push	ebp
	mov	ebp, esp
	push	-1
	push	__ehhandler$??$construct@PADAAPAD@?$allocator@D@std@@QAEXPAPADAAPAD@Z
	mov	eax, DWORD PTR fs:0
	push	eax
	sub	esp, 16					; 00000010H
	mov	eax, DWORD PTR ___security_cookie
	xor	eax, ebp
	push	eax
	lea	eax, DWORD PTR __$EHRec$[ebp]
	mov	DWORD PTR fs:0, eax
	mov	DWORD PTR _this$[ebp], ecx
	mov	eax, DWORD PTR __Ptr$[ebp]
	push	eax
	push	4
	call	??2@YAPAXIPAX@Z				; operator new
	add	esp, 8
	mov	DWORD PTR $T3[ebp], eax
	mov	DWORD PTR __$EHRec$[ebp+8], 0
	cmp	DWORD PTR $T3[ebp], 0
	je	SHORT $LN3@construct
	mov	ecx, DWORD PTR __V0$[ebp]
	push	ecx
	call	??$forward@AAPAD@std@@YAAAPADAAPAD@Z	; std::forward<char * &>
	add	esp, 4
	mov	edx, DWORD PTR $T3[ebp]
	mov	eax, DWORD PTR [eax]
	mov	DWORD PTR [edx], eax
	mov	ecx, DWORD PTR $T3[ebp]
	mov	DWORD PTR tv73[ebp], ecx
	jmp	SHORT $LN4@construct
$LN3@construct:
	mov	DWORD PTR tv73[ebp], 0
$LN4@construct:
	mov	edx, DWORD PTR tv73[ebp]
	mov	DWORD PTR $T2[ebp], edx
	mov	DWORD PTR __$EHRec$[ebp+8], -1
	mov	ecx, DWORD PTR __$EHRec$[ebp]
	mov	DWORD PTR fs:0, ecx
	pop	ecx
	mov	esp, ebp
	pop	ebp
	ret	8
_TEXT	ENDS
;	COMDAT text$x
text$x	SEGMENT
__unwindfunclet$??$construct@PADAAPAD@?$allocator@D@std@@QAEXPAPADAAPAD@Z$0:
	mov	eax, DWORD PTR __Ptr$[ebp]
	push	eax
	mov	eax, DWORD PTR $T3[ebp]
	push	eax
	call	??3@YAXPAX0@Z				; operator delete
	add	esp, 8
	ret	0
__ehhandler$??$construct@PADAAPAD@?$allocator@D@std@@QAEXPAPADAAPAD@Z:
	mov	edx, DWORD PTR [esp+8]
	lea	eax, DWORD PTR [edx+12]
	mov	ecx, DWORD PTR [edx-20]
	xor	ecx, eax
	call	@__security_check_cookie@4
	mov	eax, OFFSET __ehfuncinfo$??$construct@PADAAPAD@?$allocator@D@std@@QAEXPAPADAAPAD@Z
	jmp	___CxxFrameHandler3
text$x	ENDS
??$construct@PADAAPAD@?$allocator@D@std@@QAEXPAPADAAPAD@Z ENDP ; std::allocator<char>::construct<char *,char * &>
; Function compile flags: /Odtp
; File c:\program files (x86)\microsoft visual studio 11.0\vc\include\xlocnum
;	COMDAT ??__E?id@?$numpunct@_W@std@@2V0locale@2@A@@YAXXZ
text$yc	SEGMENT
??__E?id@?$numpunct@_W@std@@2V0locale@2@A@@YAXXZ PROC	; `dynamic initializer for 'std::numpunct<wchar_t>::id'', COMDAT

; 155  : 		void _Getvals(wchar_t, const lconv *_Ptr, _Locinfo::_Cvtvec)

	push	ebp
	mov	ebp, esp
	push	0
	mov	ecx, OFFSET ?id@?$numpunct@_W@std@@2V0locale@2@A ; std::numpunct<wchar_t>::id
	call	??0id@locale@std@@QAE@I@Z		; std::locale::id::id
	pop	ebp
	ret	0
??__E?id@?$numpunct@_W@std@@2V0locale@2@A@@YAXXZ ENDP	; `dynamic initializer for 'std::numpunct<wchar_t>::id''
text$yc	ENDS
; Function compile flags: /Odtp
; File c:\program files (x86)\microsoft visual studio 11.0\vc\include\xlocnum
;	COMDAT ??__E?id@?$numpunct@D@std@@2V0locale@2@A@@YAXXZ
text$yc	SEGMENT
??__E?id@?$numpunct@D@std@@2V0locale@2@A@@YAXXZ PROC	; `dynamic initializer for 'std::numpunct<char>::id'', COMDAT

; 155  : 		void _Getvals(wchar_t, const lconv *_Ptr, _Locinfo::_Cvtvec)

	push	ebp
	mov	ebp, esp
	push	0
	mov	ecx, OFFSET ?id@?$numpunct@D@std@@2V0locale@2@A ; std::numpunct<char>::id
	call	??0id@locale@std@@QAE@I@Z		; std::locale::id::id
	pop	ebp
	ret	0
??__E?id@?$numpunct@D@std@@2V0locale@2@A@@YAXXZ ENDP	; `dynamic initializer for 'std::numpunct<char>::id''
text$yc	ENDS
; Function compile flags: /Odtp
; File c:\program files (x86)\microsoft visual studio 11.0\vc\include\xlocnum
;	COMDAT ??__E?id@?$num_put@_WV?$back_insert_iterator@V?$basic_string@_WU?$char_traits@_W@std@@V?$allocator@_W@2@@std@@@std@@@std@@2V0locale@2@A@@YAXXZ
text$yc	SEGMENT
??__E?id@?$num_put@_WV?$back_insert_iterator@V?$basic_string@_WU?$char_traits@_W@std@@V?$allocator@_W@2@@std@@@std@@@std@@2V0locale@2@A@@YAXXZ PROC ; `dynamic initializer for 'std::num_put<wchar_t,std::back_insert_iterator<std::basic_string<wchar_t,std::char_traits<wchar_t>,std::allocator<wchar_t> > > >::id'', COMDAT

; 155  : 		void _Getvals(wchar_t, const lconv *_Ptr, _Locinfo::_Cvtvec)

	push	ebp
	mov	ebp, esp
	push	0
	mov	ecx, OFFSET ?id@?$num_put@_WV?$back_insert_iterator@V?$basic_string@_WU?$char_traits@_W@std@@V?$allocator@_W@2@@std@@@std@@@std@@2V0locale@2@A ; std::num_put<wchar_t,std::back_insert_iterator<std::basic_string<wchar_t,std::char_traits<wchar_t>,std::allocator<wchar_t> > > >::id
	call	??0id@locale@std@@QAE@I@Z		; std::locale::id::id
	pop	ebp
	ret	0
??__E?id@?$num_put@_WV?$back_insert_iterator@V?$basic_string@_WU?$char_traits@_W@std@@V?$allocator@_W@2@@std@@@std@@@std@@2V0locale@2@A@@YAXXZ ENDP ; `dynamic initializer for 'std::num_put<wchar_t,std::back_insert_iterator<std::basic_string<wchar_t,std::char_traits<wchar_t>,std::allocator<wchar_t> > > >::id''
text$yc	ENDS
; Function compile flags: /Odtp
; File c:\program files (x86)\microsoft visual studio 11.0\vc\include\xlocnum
;	COMDAT ??__E?id@?$num_put@DV?$back_insert_iterator@V?$basic_string@DU?$char_traits@D@std@@V?$allocator@D@2@@std@@@std@@@std@@2V0locale@2@A@@YAXXZ
text$yc	SEGMENT
??__E?id@?$num_put@DV?$back_insert_iterator@V?$basic_string@DU?$char_traits@D@std@@V?$allocator@D@2@@std@@@std@@@std@@2V0locale@2@A@@YAXXZ PROC ; `dynamic initializer for 'std::num_put<char,std::back_insert_iterator<std::basic_string<char,std::char_traits<char>,std::allocator<char> > > >::id'', COMDAT

; 155  : 		void _Getvals(wchar_t, const lconv *_Ptr, _Locinfo::_Cvtvec)

	push	ebp
	mov	ebp, esp
	push	0
	mov	ecx, OFFSET ?id@?$num_put@DV?$back_insert_iterator@V?$basic_string@DU?$char_traits@D@std@@V?$allocator@D@2@@std@@@std@@@std@@2V0locale@2@A ; std::num_put<char,std::back_insert_iterator<std::basic_string<char,std::char_traits<char>,std::allocator<char> > > >::id
	call	??0id@locale@std@@QAE@I@Z		; std::locale::id::id
	pop	ebp
	ret	0
??__E?id@?$num_put@DV?$back_insert_iterator@V?$basic_string@DU?$char_traits@D@std@@V?$allocator@D@2@@std@@@std@@@std@@2V0locale@2@A@@YAXXZ ENDP ; `dynamic initializer for 'std::num_put<char,std::back_insert_iterator<std::basic_string<char,std::char_traits<char>,std::allocator<char> > > >::id''
text$yc	ENDS
; Function compile flags: /Odtp
; File c:\program files (x86)\microsoft visual studio 11.0\vc\include\xmemory0
;	COMDAT ??$destroy@PAD@?$allocator_traits@V?$allocator@D@std@@@std@@SAXAAV?$allocator@D@1@PAPAD@Z
_TEXT	SEGMENT
__Al$ = 8						; size = 4
__Ptr$ = 12						; size = 4
??$destroy@PAD@?$allocator_traits@V?$allocator@D@std@@@std@@SAXAAV?$allocator@D@1@PAPAD@Z PROC ; std::allocator_traits<std::allocator<char> >::destroy<char *>, COMDAT

; 755  : 		static void destroy(_Alloc& _Al, _Uty *_Ptr)

	push	ebp
	mov	ebp, esp

; 756  : 		{	// destroy object at _Ptr
; 757  : 		_Al.destroy(_Ptr);

	mov	eax, DWORD PTR __Ptr$[ebp]
	push	eax
	mov	ecx, DWORD PTR __Al$[ebp]
	call	??$destroy@PAD@?$allocator@D@std@@QAEXPAPAD@Z ; std::allocator<char>::destroy<char *>

; 758  : 		}

	pop	ebp
	ret	0
??$destroy@PAD@?$allocator_traits@V?$allocator@D@std@@@std@@SAXAAV?$allocator@D@1@PAPAD@Z ENDP ; std::allocator_traits<std::allocator<char> >::destroy<char *>
_TEXT	ENDS
; Function compile flags: /Odtp
; File c:\program files (x86)\microsoft visual studio 11.0\vc\include\xmemory0
;	COMDAT ??$construct@PADAAPAD@?$allocator_traits@V?$allocator@D@std@@@std@@SAXAAV?$allocator@D@1@PAPADAAPAD@Z
_TEXT	SEGMENT
__Al$ = 8						; size = 4
__Ptr$ = 12						; size = 4
__V0$ = 16						; size = 4
??$construct@PADAAPAD@?$allocator_traits@V?$allocator@D@std@@@std@@SAXAAV?$allocator@D@1@PAPADAAPAD@Z PROC ; std::allocator_traits<std::allocator<char> >::construct<char *,char * &>, COMDAT

; 751  : _VARIADIC_EXPAND_0X(_ALLOC_TRAITS_SPECIAL_CONSTRUCT, , , , )

	push	ebp
	mov	ebp, esp
	mov	eax, DWORD PTR __V0$[ebp]
	push	eax
	call	??$forward@AAPAD@std@@YAAAPADAAPAD@Z	; std::forward<char * &>
	add	esp, 4
	push	eax
	mov	ecx, DWORD PTR __Ptr$[ebp]
	push	ecx
	mov	ecx, DWORD PTR __Al$[ebp]
	call	??$construct@PADAAPAD@?$allocator@D@std@@QAEXPAPADAAPAD@Z ; std::allocator<char>::construct<char *,char * &>
	pop	ebp
	ret	0
??$construct@PADAAPAD@?$allocator_traits@V?$allocator@D@std@@@std@@SAXAAV?$allocator@D@1@PAPADAAPAD@Z ENDP ; std::allocator_traits<std::allocator<char> >::construct<char *,char * &>
_TEXT	ENDS
; Function compile flags: /Odtp
; File c:\program files (x86)\microsoft visual studio 11.0\vc\include\type_traits
;	COMDAT ??$forward@AAPAD@std@@YAAAPADAAPAD@Z
_TEXT	SEGMENT
__Arg$ = 8						; size = 4
??$forward@AAPAD@std@@YAAAPADAAPAD@Z PROC		; std::forward<char * &>, COMDAT

; 1775 : 	{	// forward an lvalue

	push	ebp
	mov	ebp, esp

; 1776 : 	return (static_cast<_Ty&&>(_Arg));

	mov	eax, DWORD PTR __Arg$[ebp]

; 1777 : 	}

	pop	ebp
	ret	0
??$forward@AAPAD@std@@YAAAPADAAPAD@Z ENDP		; std::forward<char * &>
_TEXT	ENDS
; Function compile flags: /Odtp
;	COMDAT ??__F?_System_object@?$_Error_objects@H@std@@2V_System_error_category@2@A@@YAXXZ
text$yd	SEGMENT
??__F?_System_object@?$_Error_objects@H@std@@2V_System_error_category@2@A@@YAXXZ PROC ; `dynamic atexit destructor for 'std::_Error_objects<int>::_System_object'', COMDAT
	push	ebp
	mov	ebp, esp
	mov	ecx, OFFSET ?_System_object@?$_Error_objects@H@std@@2V_System_error_category@2@A ; std::_Error_objects<int>::_System_object
	call	??1_System_error_category@std@@UAE@XZ
	pop	ebp
	ret	0
??__F?_System_object@?$_Error_objects@H@std@@2V_System_error_category@2@A@@YAXXZ ENDP ; `dynamic atexit destructor for 'std::_Error_objects<int>::_System_object''
text$yd	ENDS
; Function compile flags: /Odtp
; File c:\program files (x86)\microsoft visual studio 11.0\vc\include\xmemory0
;	COMDAT ??__E?_System_object@?$_Error_objects@H@std@@2V_System_error_category@2@A@@YAXXZ
text$yc	SEGMENT
??__E?_System_object@?$_Error_objects@H@std@@2V_System_error_category@2@A@@YAXXZ PROC ; `dynamic initializer for 'std::_Error_objects<int>::_System_object'', COMDAT

; 627  : 		{	// estimate maximum array size

	push	ebp
	mov	ebp, esp
	mov	ecx, OFFSET ?_System_object@?$_Error_objects@H@std@@2V_System_error_category@2@A ; std::_Error_objects<int>::_System_object
	call	??0_System_error_category@std@@QAE@XZ	; std::_System_error_category::_System_error_category
	push	OFFSET ??__F?_System_object@?$_Error_objects@H@std@@2V_System_error_category@2@A@@YAXXZ ; `dynamic atexit destructor for 'std::_Error_objects<int>::_System_object''
	call	_atexit
	add	esp, 4
	pop	ebp
	ret	0
??__E?_System_object@?$_Error_objects@H@std@@2V_System_error_category@2@A@@YAXXZ ENDP ; `dynamic initializer for 'std::_Error_objects<int>::_System_object''
text$yc	ENDS
; Function compile flags: /Odtp
;	COMDAT ??__F?_Iostream_object@?$_Error_objects@H@std@@2V_Iostream_error_category@2@A@@YAXXZ
text$yd	SEGMENT
??__F?_Iostream_object@?$_Error_objects@H@std@@2V_Iostream_error_category@2@A@@YAXXZ PROC ; `dynamic atexit destructor for 'std::_Error_objects<int>::_Iostream_object'', COMDAT
	push	ebp
	mov	ebp, esp
	mov	ecx, OFFSET ?_Iostream_object@?$_Error_objects@H@std@@2V_Iostream_error_category@2@A ; std::_Error_objects<int>::_Iostream_object
	call	??1_Iostream_error_category@std@@UAE@XZ
	pop	ebp
	ret	0
??__F?_Iostream_object@?$_Error_objects@H@std@@2V_Iostream_error_category@2@A@@YAXXZ ENDP ; `dynamic atexit destructor for 'std::_Error_objects<int>::_Iostream_object''
text$yd	ENDS
; Function compile flags: /Odtp
; File c:\program files (x86)\microsoft visual studio 11.0\vc\include\xmemory0
;	COMDAT ??__E?_Iostream_object@?$_Error_objects@H@std@@2V_Iostream_error_category@2@A@@YAXXZ
text$yc	SEGMENT
??__E?_Iostream_object@?$_Error_objects@H@std@@2V_Iostream_error_category@2@A@@YAXXZ PROC ; `dynamic initializer for 'std::_Error_objects<int>::_Iostream_object'', COMDAT

; 627  : 		{	// estimate maximum array size

	push	ebp
	mov	ebp, esp
	mov	ecx, OFFSET ?_Iostream_object@?$_Error_objects@H@std@@2V_Iostream_error_category@2@A ; std::_Error_objects<int>::_Iostream_object
	call	??0_Iostream_error_category@std@@QAE@XZ	; std::_Iostream_error_category::_Iostream_error_category
	push	OFFSET ??__F?_Iostream_object@?$_Error_objects@H@std@@2V_Iostream_error_category@2@A@@YAXXZ ; `dynamic atexit destructor for 'std::_Error_objects<int>::_Iostream_object''
	call	_atexit
	add	esp, 4
	pop	ebp
	ret	0
??__E?_Iostream_object@?$_Error_objects@H@std@@2V_Iostream_error_category@2@A@@YAXXZ ENDP ; `dynamic initializer for 'std::_Error_objects<int>::_Iostream_object''
text$yc	ENDS
; Function compile flags: /Odtp
;	COMDAT ??__F?_Generic_object@?$_Error_objects@H@std@@2V_Generic_error_category@2@A@@YAXXZ
text$yd	SEGMENT
??__F?_Generic_object@?$_Error_objects@H@std@@2V_Generic_error_category@2@A@@YAXXZ PROC ; `dynamic atexit destructor for 'std::_Error_objects<int>::_Generic_object'', COMDAT
	push	ebp
	mov	ebp, esp
	mov	ecx, OFFSET ?_Generic_object@?$_Error_objects@H@std@@2V_Generic_error_category@2@A ; std::_Error_objects<int>::_Generic_object
	call	??1_Generic_error_category@std@@UAE@XZ
	pop	ebp
	ret	0
??__F?_Generic_object@?$_Error_objects@H@std@@2V_Generic_error_category@2@A@@YAXXZ ENDP ; `dynamic atexit destructor for 'std::_Error_objects<int>::_Generic_object''
text$yd	ENDS
; Function compile flags: /Odtp
; File c:\program files (x86)\microsoft visual studio 11.0\vc\include\xmemory0
;	COMDAT ??__E?_Generic_object@?$_Error_objects@H@std@@2V_Generic_error_category@2@A@@YAXXZ
text$yc	SEGMENT
??__E?_Generic_object@?$_Error_objects@H@std@@2V_Generic_error_category@2@A@@YAXXZ PROC ; `dynamic initializer for 'std::_Error_objects<int>::_Generic_object'', COMDAT

; 627  : 		{	// estimate maximum array size

	push	ebp
	mov	ebp, esp
	mov	ecx, OFFSET ?_Generic_object@?$_Error_objects@H@std@@2V_Generic_error_category@2@A ; std::_Error_objects<int>::_Generic_object
	call	??0_Generic_error_category@std@@QAE@XZ	; std::_Generic_error_category::_Generic_error_category
	push	OFFSET ??__F?_Generic_object@?$_Error_objects@H@std@@2V_Generic_error_category@2@A@@YAXXZ ; `dynamic atexit destructor for 'std::_Error_objects<int>::_Generic_object''
	call	_atexit
	add	esp, 4
	pop	ebp
	ret	0
??__E?_Generic_object@?$_Error_objects@H@std@@2V_Generic_error_category@2@A@@YAXXZ ENDP ; `dynamic initializer for 'std::_Error_objects<int>::_Generic_object''
text$yc	ENDS
; Function compile flags: /Odtp
; File c:\program files (x86)\microsoft visual studio 11.0\vc\include\xmemory0
;	COMDAT ??$_Allocate@D@std@@YAPADIPAD@Z
_TEXT	SEGMENT
__Ptr$ = -4						; size = 4
__Count$ = 8						; size = 4
___formal$ = 12						; size = 4
??$_Allocate@D@std@@YAPADIPAD@Z PROC			; std::_Allocate<char>, COMDAT

; 22   : 	{	// allocate storage for _Count elements of type _Ty

	push	ebp
	mov	ebp, esp
	push	ecx

; 23   : 	void *_Ptr = 0;

	mov	DWORD PTR __Ptr$[ebp], 0

; 24   : 
; 25   : 	if (_Count == 0)

	cmp	DWORD PTR __Count$[ebp], 0
	jne	SHORT $LN4@Allocate

; 26   : 		;
; 27   : 	else if (((size_t)(-1) / sizeof (_Ty) < _Count)

	jmp	SHORT $LN3@Allocate
$LN4@Allocate:

; 28   : 		|| (_Ptr = ::operator new(_Count * sizeof (_Ty))) == 0)

	cmp	DWORD PTR __Count$[ebp], -1
	ja	SHORT $LN1@Allocate
	mov	eax, DWORD PTR __Count$[ebp]
	push	eax
	call	??2@YAPAXI@Z				; operator new
	add	esp, 4
	mov	DWORD PTR __Ptr$[ebp], eax
	cmp	DWORD PTR __Ptr$[ebp], 0
	jne	SHORT $LN3@Allocate
$LN1@Allocate:

; 29   : 		_Xbad_alloc();	// report no memory

	call	?_Xbad_alloc@std@@YAXXZ			; std::_Xbad_alloc
$LN3@Allocate:

; 30   : 
; 31   : 	return ((_Ty *)_Ptr);

	mov	eax, DWORD PTR __Ptr$[ebp]
$LN6@Allocate:

; 32   : 	}

	mov	esp, ebp
	pop	ebp
	ret	0
??$_Allocate@D@std@@YAPADIPAD@Z ENDP			; std::_Allocate<char>
_TEXT	ENDS
; Function compile flags: /Odtp
; File c:\program files (x86)\microsoft visual studio 11.0\vc\include\xstddef
;	COMDAT ??$addressof@D@std@@YAPADAAD@Z
_TEXT	SEGMENT
__Val$ = 8						; size = 4
??$addressof@D@std@@YAPADAAD@Z PROC			; std::addressof<char>, COMDAT

; 85   : 	{	// return address of _Val

	push	ebp
	mov	ebp, esp

; 86   : 	return (reinterpret_cast<_Ty *>(
; 87   : 		(&const_cast<char&>(
; 88   : 		reinterpret_cast<const volatile char&>(_Val)))));

	mov	eax, DWORD PTR __Val$[ebp]

; 89   : 	}

	pop	ebp
	ret	0
??$addressof@D@std@@YAPADAAD@Z ENDP			; std::addressof<char>
_TEXT	ENDS
; Function compile flags: /Odtp
; File c:\program files (x86)\microsoft visual studio 11.0\vc\include\xmemory0
;	COMDAT ??$destroy@PAD@?$_Wrap_alloc@V?$allocator@D@std@@@std@@QAEXPAPAD@Z
_TEXT	SEGMENT
_this$ = -4						; size = 4
__Ptr$ = 8						; size = 4
??$destroy@PAD@?$_Wrap_alloc@V?$allocator@D@std@@@std@@QAEXPAPAD@Z PROC ; std::_Wrap_alloc<std::allocator<char> >::destroy<char *>, COMDAT
; _this$ = ecx

; 907  : 		void destroy(_Ty *_Ptr)

	push	ebp
	mov	ebp, esp
	push	ecx
	mov	DWORD PTR _this$[ebp], ecx

; 908  : 		{	// destroy object at _Ptr
; 909  : 		_Mytraits::destroy(*this, _Ptr);

	mov	eax, DWORD PTR __Ptr$[ebp]
	push	eax
	mov	ecx, DWORD PTR _this$[ebp]
	push	ecx
	call	??$destroy@PAD@?$allocator_traits@V?$allocator@D@std@@@std@@SAXAAV?$allocator@D@1@PAPAD@Z ; std::allocator_traits<std::allocator<char> >::destroy<char *>
	add	esp, 8

; 910  : 		}

	mov	esp, ebp
	pop	ebp
	ret	4
??$destroy@PAD@?$_Wrap_alloc@V?$allocator@D@std@@@std@@QAEXPAPAD@Z ENDP ; std::_Wrap_alloc<std::allocator<char> >::destroy<char *>
_TEXT	ENDS
; Function compile flags: /Odtp
; File c:\program files (x86)\microsoft visual studio 11.0\vc\include\xmemory0
;	COMDAT ??$construct@PADAAPAD@?$_Wrap_alloc@V?$allocator@D@std@@@std@@QAEXPAPADAAPAD@Z
_TEXT	SEGMENT
_this$ = -4						; size = 4
__Ptr$ = 8						; size = 4
__V0$ = 12						; size = 4
??$construct@PADAAPAD@?$_Wrap_alloc@V?$allocator@D@std@@@std@@QAEXPAPADAAPAD@Z PROC ; std::_Wrap_alloc<std::allocator<char> >::construct<char *,char * &>, COMDAT
; _this$ = ecx

; 903  : _VARIADIC_EXPAND_0X(_WRAP_ALLOC_CONSTRUCT, , , , )

	push	ebp
	mov	ebp, esp
	push	ecx
	mov	DWORD PTR _this$[ebp], ecx
	mov	eax, DWORD PTR __V0$[ebp]
	push	eax
	call	??$forward@AAPAD@std@@YAAAPADAAPAD@Z	; std::forward<char * &>
	add	esp, 4
	push	eax
	mov	ecx, DWORD PTR __Ptr$[ebp]
	push	ecx
	mov	edx, DWORD PTR _this$[ebp]
	push	edx
	call	??$construct@PADAAPAD@?$allocator_traits@V?$allocator@D@std@@@std@@SAXAAV?$allocator@D@1@PAPADAAPAD@Z ; std::allocator_traits<std::allocator<char> >::construct<char *,char * &>
	add	esp, 12					; 0000000cH
	mov	esp, ebp
	pop	ebp
	ret	8
??$construct@PADAAPAD@?$_Wrap_alloc@V?$allocator@D@std@@@std@@QAEXPAPADAAPAD@Z ENDP ; std::_Wrap_alloc<std::allocator<char> >::construct<char *,char * &>
_TEXT	ENDS
; Function compile flags: /Odtp
; File c:\users\zhitao li\documents\visual studio 2012\projects\freefalcon\campaign\camptask\flight.cpp
_TEXT	SEGMENT
_u$ = 8							; size = 4
_e$ = 12						; size = 4
?CheckValidType@@YAHPAVCampBaseClass@@0@Z PROC		; CheckValidType

; 3151 : {

	push	ebp
	mov	ebp, esp
	push	esi

; 3152 : 	// If enemy is not a flight, GCI is automatic
; 3153 : 	if (!e->IsFlight())

	mov	eax, DWORD PTR _e$[ebp]
	mov	edx, DWORD PTR [eax]
	mov	ecx, DWORD PTR _e$[ebp]
	mov	eax, DWORD PTR [edx+248]
	call	eax
	test	eax, eax
	jne	SHORT $LN13@CheckValid

; 3154 : 		return TRUE;

	mov	eax, 1
	jmp	$LN14@CheckValid
$LN13@CheckValid:

; 3155 : 
; 3156 : 	// If we're not a unit, GCI is automatic
; 3157 : 	if (!u->IsUnit())

	mov	ecx, DWORD PTR _u$[ebp]
	mov	edx, DWORD PTR [ecx]
	mov	ecx, DWORD PTR _u$[ebp]
	mov	eax, DWORD PTR [edx+232]
	call	eax
	test	eax, eax
	jne	SHORT $LN12@CheckValid

; 3158 : 		return TRUE;

	mov	eax, 1
	jmp	$LN14@CheckValid
$LN12@CheckValid:

; 3159 : 
; 3160 : 	// Special case if we're a flight
; 3161 : 	if (u->IsFlight()) {

	mov	ecx, DWORD PTR _u$[ebp]
	mov	edx, DWORD PTR [ecx]
	mov	ecx, DWORD PTR _u$[ebp]
	mov	eax, DWORD PTR [edx+248]
	call	eax
	test	eax, eax
	je	SHORT $LN11@CheckValid

; 3162 : 		// AWACS uses/sets GCI always
; 3163 : 		if (u->GetSType() == STYPE_UNIT_AWACS)

	mov	ecx, DWORD PTR _u$[ebp]
	call	?GetSType@CampBaseClass@@QBEEXZ		; CampBaseClass::GetSType
	movzx	ecx, al
	cmp	ecx, 5
	jne	SHORT $LN10@CheckValid

; 3164 : 			return TRUE;

	mov	eax, 1
	jmp	$LN14@CheckValid
$LN10@CheckValid:

; 3165 : 
; 3166 : 		// Against air enemy, only fighter and fighter.bomber can use GCI
; 3167 : 		if (u->GetSType() != STYPE_UNIT_FIGHTER && u->GetSType() != STYPE_UNIT_FIGHTER_BOMBER)

	mov	ecx, DWORD PTR _u$[ebp]
	call	?GetSType@CampBaseClass@@QBEEXZ		; CampBaseClass::GetSType
	movzx	edx, al
	cmp	edx, 8
	je	SHORT $LN9@CheckValid
	mov	ecx, DWORD PTR _u$[ebp]
	call	?GetSType@CampBaseClass@@QBEEXZ		; CampBaseClass::GetSType
	movzx	eax, al
	cmp	eax, 9
	je	SHORT $LN9@CheckValid

; 3168 : 			return FALSE;

	xor	eax, eax
	jmp	$LN14@CheckValid
$LN9@CheckValid:

; 3169 : 
; 3170 : 	}

	jmp	SHORT $LN8@CheckValid
$LN11@CheckValid:

; 3171 : 	// Only air defense battalions uses/sets GCI
; 3172 : 	else if (u->IsBattalion()) {

	mov	ecx, DWORD PTR _u$[ebp]
	mov	edx, DWORD PTR [ecx]
	mov	ecx, DWORD PTR _u$[ebp]
	mov	eax, DWORD PTR [edx+240]
	call	eax
	test	eax, eax
	je	SHORT $LN7@CheckValid

; 3173 : 		if (u->GetSType() != STYPE_UNIT_AIR_DEFENSE)

	mov	ecx, DWORD PTR _u$[ebp]
	call	?GetSType@CampBaseClass@@QBEEXZ		; CampBaseClass::GetSType
	movzx	ecx, al
	cmp	ecx, 1
	je	SHORT $LN6@CheckValid

; 3174 : 			return FALSE;

	xor	eax, eax
	jmp	$LN14@CheckValid
$LN6@CheckValid:

; 3175 : 	}

	jmp	SHORT $LN8@CheckValid
$LN7@CheckValid:

; 3176 : 	// 2002-02-11 ADDED BY S.G. Only carrier and battleships uses/sets GCI
; 3177 : 	else if (u->IsTaskForce()) {

	mov	edx, DWORD PTR _u$[ebp]
	mov	eax, DWORD PTR [edx]
	mov	ecx, DWORD PTR _u$[ebp]
	mov	edx, DWORD PTR [eax+264]
	call	edx
	test	eax, eax
	je	SHORT $LN8@CheckValid

; 3178 : 		if (u->GetSType() != STYPE_UNIT_BATTLESHIP && u->GetSType() != STYPE_UNIT_CARRIER)

	mov	ecx, DWORD PTR _u$[ebp]
	call	?GetSType@CampBaseClass@@QBEEXZ		; CampBaseClass::GetSType
	movzx	eax, al
	cmp	eax, 2
	je	SHORT $LN8@CheckValid
	mov	ecx, DWORD PTR _u$[ebp]
	call	?GetSType@CampBaseClass@@QBEEXZ		; CampBaseClass::GetSType
	movzx	ecx, al
	cmp	ecx, 3
	je	SHORT $LN8@CheckValid

; 3179 : 			return FALSE;

	xor	eax, eax
	jmp	SHORT $LN14@CheckValid
$LN8@CheckValid:

; 3180 : 	}
; 3181 : 	// If we get here, we're a battalion or a valid flight stype
; 3182 : 
; 3183 : 	// If our moral is broken, no GCI
; 3184 : 	if (((UnitClass *)u)->Broken())

	mov	ecx, DWORD PTR _u$[ebp]
	call	?Broken@UnitClass@@QBEHXZ		; UnitClass::Broken
	test	eax, eax
	je	SHORT $LN2@CheckValid

; 3185 : 		return FALSE;

	xor	eax, eax
	jmp	SHORT $LN14@CheckValid
$LN2@CheckValid:

; 3186 : 
; 3187 : 	// If skill is below the threshold, don't use/set GCI
; 3188 : 	// 80 is cadets, 90 is veteran and 100 is ace.
; 3189 : 	// Cadets have 25% chance, veteran 50% chance and ace 100% chance of using/setting GCI
; 3190 : 	if (TeamInfo[u->GetTeam()] && TeamInfo[u->GetTeam()]->airExperience < 75 + rand() % 20)

	mov	edx, DWORD PTR _u$[ebp]
	mov	eax, DWORD PTR [edx]
	mov	ecx, DWORD PTR _u$[ebp]
	mov	edx, DWORD PTR [eax+116]
	call	edx
	movzx	eax, al
	cmp	DWORD PTR ?TeamInfo@@3PAPAVTeamClass@@A[eax*4], 0
	je	SHORT $LN1@CheckValid
	mov	ecx, DWORD PTR _u$[ebp]
	mov	edx, DWORD PTR [ecx]
	mov	ecx, DWORD PTR _u$[ebp]
	mov	eax, DWORD PTR [edx+116]
	call	eax
	movzx	ecx, al
	mov	edx, DWORD PTR ?TeamInfo@@3PAPAVTeamClass@@A[ecx*4]
	movzx	esi, BYTE PTR [edx+612]
	call	_rand
	cdq
	mov	ecx, 20					; 00000014H
	idiv	ecx
	add	edx, 75					; 0000004bH
	cmp	esi, edx
	jge	SHORT $LN1@CheckValid

; 3191 : 		return FALSE;

	xor	eax, eax
	jmp	SHORT $LN14@CheckValid
$LN1@CheckValid:

; 3192 : 
; 3193 : 	return TRUE;

	mov	eax, 1
$LN14@CheckValid:

; 3194 : }

	pop	esi
	pop	ebp
	ret	0
?CheckValidType@@YAHPAVCampBaseClass@@0@Z ENDP		; CheckValidType
_TEXT	ENDS
; Function compile flags: /Odtp
; File c:\users\zhitao li\documents\visual studio 2012\projects\freefalcon\campaign\camptask\flight.cpp
_TEXT	SEGMENT
_mrs$ = -8						; size = 4
_couldIdent$ = -4					; size = 4
_us$ = 8						; size = 4
_them$ = 12						; size = 4
_d$ = 16						; size = 4
_mt$ = 20						; size = 4
?CanItIdentify@@YAHPAVCampBaseClass@@0MH@Z PROC		; CanItIdentify

; 1566 : {

	push	ebp
	mov	ebp, esp
	sub	esp, 8
	push	esi

; 1567 : 	float mrs;
; 1568 : 	int couldIdent = FALSE;

	mov	DWORD PTR _couldIdent$[ebp], 0

; 1569 : 
; 1570 : 	// Can you identify visually?
; 1571 : 	if (d < GetVisualDetectionRange(mt))

	mov	eax, DWORD PTR _mt$[ebp]
	push	eax
	call	?GetVisualDetectionRange@@YAHH@Z	; GetVisualDetectionRange
	add	esp, 4
	cvtsi2ss xmm0, eax
	comiss	xmm0, DWORD PTR _d$[ebp]
	jbe	SHORT $LN10@CanItIdent

; 1572 : 		return TRUE;

	mov	eax, 1
	jmp	$LN11@CanItIdent
$LN10@CanItIdent:

; 1573 : 
; 1574 : 	// We can only identify ground thing visually
; 1575 : 	if (them->OnGround())

	mov	ecx, DWORD PTR _them$[ebp]
	mov	edx, DWORD PTR [ecx]
	mov	ecx, DWORD PTR _them$[ebp]
	mov	eax, DWORD PTR [edx+148]
	call	eax
	test	eax, eax
	je	SHORT $LN9@CanItIdent

; 1576 : 		return FALSE;

	xor	eax, eax
	jmp	$LN11@CanItIdent
$LN9@CanItIdent:

; 1577 : 
; 1578 : 	if (us->IsUnit()) {

	mov	ecx, DWORD PTR _us$[ebp]
	mov	edx, DWORD PTR [ecx]
	mov	ecx, DWORD PTR _us$[ebp]
	mov	eax, DWORD PTR [edx+232]
	call	eax
	test	eax, eax
	je	SHORT $LN8@CanItIdent

; 1579 : 		if (GetVehicleClassData(((UnitClass *)us)->class_data->VehicleType[0])->Flags & (VEH_HAS_NCTR | VEH_HAS_EXACT_RWR))

	mov	ecx, DWORD PTR _us$[ebp]
	mov	edx, DWORD PTR [ecx+236]
	mov	eax, 2
	imul	eax, 0
	movsx	ecx, WORD PTR [edx+eax+68]
	push	ecx
	call	?GetVehicleClassData@@YAPAUVehicleClassDataType@@H@Z ; GetVehicleClassData
	add	esp, 4
	mov	edx, DWORD PTR [eax+4]
	and	edx, 786432				; 000c0000H
	je	SHORT $LN7@CanItIdent

; 1580 : 			couldIdent = TRUE;

	mov	DWORD PTR _couldIdent$[ebp], 1
$LN7@CanItIdent:

; 1581 : 	}

	jmp	SHORT $LN4@CanItIdent
$LN8@CanItIdent:

; 1582 : 	else if (us->IsObjective()) {

	mov	eax, DWORD PTR _us$[ebp]
	mov	edx, DWORD PTR [eax]
	mov	ecx, DWORD PTR _us$[ebp]
	mov	eax, DWORD PTR [edx+236]
	call	eax
	test	eax, eax
	je	SHORT $LN4@CanItIdent

; 1583 : 		if (((ObjectiveClass *)us)->HasNCTR())

	mov	ecx, DWORD PTR _us$[ebp]
	call	?HasNCTR@ObjectiveClass@@QAEHXZ		; ObjectiveClass::HasNCTR
	test	eax, eax
	je	SHORT $LN4@CanItIdent

; 1584 : 			couldIdent = TRUE;

	mov	DWORD PTR _couldIdent$[ebp], 1
$LN4@CanItIdent:

; 1585 : 	}
; 1586 : 
; 1587 : 	// If we can ident, randomize a bit, and tend to say no against the edge of the envelope
; 1588 : 	if (couldIdent) {

	cmp	DWORD PTR _couldIdent$[ebp], 0
	je	SHORT $LN1@CanItIdent

; 1589 : 		mrs = (float)(us->GetDetectionRange(mt)) * g_fIdentFactor; // 2002-03-07 MODIFIED BY S.G. Don't id at full detection range but at a percentage of it

	mov	ecx, DWORD PTR _mt$[ebp]
	push	ecx
	mov	edx, DWORD PTR _us$[ebp]
	mov	eax, DWORD PTR [edx]
	mov	ecx, DWORD PTR _us$[ebp]
	mov	edx, DWORD PTR [eax+416]
	call	edx
	cvtsi2ss xmm0, eax
	mulss	xmm0, DWORD PTR ?g_fIdentFactor@@3MA
	movss	DWORD PTR _mrs$[ebp], xmm0

; 1590 : 		// If too far, we can't id
; 1591 : 		if (d > mrs)

	movss	xmm0, DWORD PTR _d$[ebp]
	comiss	xmm0, DWORD PTR _mrs$[ebp]
	jbe	SHORT $LN2@CanItIdent

; 1592 : 			return FALSE;

	xor	eax, eax
	jmp	SHORT $LN11@CanItIdent
$LN2@CanItIdent:

; 1593 : 
; 1594 : 		// In 'range', further you are, less chance you have of identifying the target
; 1595 : 		if ((int)((mrs - d) / mrs * 100.0f) > rand() % 100)

	movss	xmm0, DWORD PTR _mrs$[ebp]
	subss	xmm0, DWORD PTR _d$[ebp]
	divss	xmm0, DWORD PTR _mrs$[ebp]
	mulss	xmm0, DWORD PTR __real@42c80000
	cvttss2si esi, xmm0
	call	_rand
	cdq
	mov	ecx, 100				; 00000064H
	idiv	ecx
	cmp	esi, edx
	jle	SHORT $LN1@CanItIdent

; 1596 : 			return TRUE;

	mov	eax, 1
	jmp	SHORT $LN11@CanItIdent
$LN1@CanItIdent:

; 1597 : 	}
; 1598 : 
; 1599 : 	return FALSE;

	xor	eax, eax
$LN11@CanItIdent:

; 1600 : }

	pop	esi
	mov	esp, ebp
	pop	ebp
	ret	0
?CanItIdentify@@YAHPAVCampBaseClass@@0MH@Z ENDP		; CanItIdentify
_TEXT	ENDS
; Function compile flags: /Odtp
; File c:\users\zhitao li\documents\visual studio 2012\projects\freefalcon\campaign\camptask\flight.cpp
;	COMDAT ??__ELastawackWarning@@YAXXZ
text$yc	SEGMENT
??__ELastawackWarning@@YAXXZ PROC			; `dynamic initializer for 'LastawackWarning'', COMDAT

; 145  : long LastawackWarning = SimLibElapsedTime;//me123

	push	ebp
	mov	ebp, esp
	mov	eax, DWORD PTR ?SimLibElapsedTime@@3KA	; SimLibElapsedTime
	mov	DWORD PTR ?LastawackWarning@@3JA, eax	; LastawackWarning
	pop	ebp
	ret	0
??__ELastawackWarning@@YAXXZ ENDP			; `dynamic initializer for 'LastawackWarning''
text$yc	ENDS
; Function compile flags: /Odtp
; File c:\users\zhitao li\documents\visual studio 2012\projects\freefalcon\campaign\camptask\flight.cpp
_TEXT	SEGMENT
_w$ = -4						; size = 4
_flight$ = 8						; size = 4
?GoHome@@YAXPAVFlightClass@@@Z PROC			; GoHome

; 4609 : {

	push	ebp
	mov	ebp, esp
	push	ecx

; 4610 : 	WayPoint	w;
; 4611 : 
; 4612 : 	w = flight->GetCurrentUnitWP();

	mov	ecx, DWORD PTR _flight$[ebp]
	call	?GetCurrentUnitWP@UnitClass@@QBEPAVWayPointClass@@XZ ; UnitClass::GetCurrentUnitWP
	mov	DWORD PTR _w$[ebp], eax

; 4613 : 
; 4614 : 	// RV - Biker - Check if we are already at way home
; 4615 : 	if(w && w->GetWPAction() == WP_LAND){

	cmp	DWORD PTR _w$[ebp], 0
	je	SHORT $LN5@GoHome
	mov	ecx, DWORD PTR _w$[ebp]
	call	?GetWPAction@WayPointClass@@QAEHXZ	; WayPointClass::GetWPAction
	cmp	eax, 7
	jne	SHORT $LN5@GoHome

; 4616 : 		return;

	jmp	SHORT $LN6@GoHome
$LN5@GoHome:

; 4617 : 	}
; 4618 : 
; 4619 : 	//	w = flight->GetCurrentUnitWP();
; 4620 : 	w = flight->GetFirstUnitWP();

	mov	ecx, DWORD PTR _flight$[ebp]
	call	?GetFirstUnitWP@UnitClass@@QAEPAVWayPointClass@@XZ ; UnitClass::GetFirstUnitWP
	mov	DWORD PTR _w$[ebp], eax
$LN4@GoHome:

; 4621 : 	while (w && w->GetWPAction() != WP_LAND){

	cmp	DWORD PTR _w$[ebp], 0
	je	SHORT $LN3@GoHome
	mov	ecx, DWORD PTR _w$[ebp]
	call	?GetWPAction@WayPointClass@@QAEHXZ	; WayPointClass::GetWPAction
	cmp	eax, 7
	je	SHORT $LN3@GoHome

; 4622 : 		w = w->GetNextWP();

	mov	ecx, DWORD PTR _w$[ebp]
	call	?GetNextWP@WayPointClass@@QAEPAV1@XZ	; WayPointClass::GetNextWP
	mov	DWORD PTR _w$[ebp], eax

; 4623 : 	}

	jmp	SHORT $LN4@GoHome
$LN3@GoHome:

; 4624 : 	if (!w){

	cmp	DWORD PTR _w$[ebp], 0
	jne	SHORT $LN2@GoHome

; 4625 : 		w = flight->GetFirstUnitWP();

	mov	ecx, DWORD PTR _flight$[ebp]
	call	?GetFirstUnitWP@UnitClass@@QAEPAVWayPointClass@@XZ ; UnitClass::GetFirstUnitWP
	mov	DWORD PTR _w$[ebp], eax

; 4626 : 	}
; 4627 : 	// RV - Biker - Go to last WP before home base
; 4628 : 	else{

	jmp	SHORT $LN1@GoHome
$LN2@GoHome:

; 4629 : 		w = w->GetPrevWP();

	mov	ecx, DWORD PTR _w$[ebp]
	call	?GetPrevWP@WayPointClass@@QAEPAV1@XZ	; WayPointClass::GetPrevWP
	mov	DWORD PTR _w$[ebp], eax
$LN1@GoHome:

; 4630 : 	}
; 4631 : 
; 4632 : 	flight->SetCurrentUnitWP(w);

	mov	eax, DWORD PTR _w$[ebp]
	push	eax
	mov	ecx, DWORD PTR _flight$[ebp]
	call	?SetCurrentUnitWP@UnitClass@@QAEXPAVWayPointClass@@@Z ; UnitClass::SetCurrentUnitWP
$LN6@GoHome:

; 4633 : }

	mov	esp, ebp
	pop	ebp
	ret	0
?GoHome@@YAXPAVFlightClass@@@Z ENDP			; GoHome
_TEXT	ENDS
; Function compile flags: /Odtp
; File c:\users\zhitao li\documents\visual studio 2012\projects\freefalcon\campaign\camptask\flight.cpp
_TEXT	SEGMENT
_ktmr$ = -12						; size = 4
_rating$ = -8						; size = 4
_pc$ = -4						; size = 4
_flight$ = 8						; size = 4
_pilotSlot$ = 12					; size = 4
_newRating$ = 16					; size = 4
?RatePilot@@YAXPAVFlightClass@@HH@Z PROC		; RatePilot

; 4527 : {

	push	ebp
	mov	ebp, esp
	sub	esp, 12					; 0000000cH

; 4528 : 	PilotClass	*pc;
; 4529 : 	int			rating,ktmr;
; 4530 : 
; 4531 : 	// pc was uninitialized, so if flight was null... crash
; 4532 : 	if (flight)

	cmp	DWORD PTR _flight$[ebp], 0
	je	$LN5@RatePilot

; 4533 : 	{
; 4534 : 		pc = flight->GetPilotData(pilotSlot);

	mov	eax, DWORD PTR _pilotSlot$[ebp]
	push	eax
	mov	ecx, DWORD PTR _flight$[ebp]
	call	?GetPilotData@FlightClass@@QAEPAVPilotClass@@H@Z ; FlightClass::GetPilotData
	mov	DWORD PTR _pc$[ebp], eax

; 4535 : 		if (pc && pc->missions_flown)

	cmp	DWORD PTR _pc$[ebp], 0
	je	$LN5@RatePilot
	mov	ecx, DWORD PTR _pc$[ebp]
	movsx	edx, WORD PTR [ecx+8]
	test	edx, edx
	je	$LN5@RatePilot

; 4536 : 		{
; 4537 : 			ktmr = (pc->aa_kills*2 + pc->ag_kills + pc->as_kills + pc->an_kills*2)/pc->missions_flown;

	mov	eax, DWORD PTR _pc$[ebp]
	movzx	ecx, BYTE PTR [eax+4]
	mov	edx, DWORD PTR _pc$[ebp]
	movzx	eax, BYTE PTR [edx+5]
	lea	ecx, DWORD PTR [eax+ecx*2]
	mov	edx, DWORD PTR _pc$[ebp]
	movzx	eax, BYTE PTR [edx+6]
	add	ecx, eax
	mov	edx, DWORD PTR _pc$[ebp]
	movzx	eax, BYTE PTR [edx+7]
	lea	eax, DWORD PTR [ecx+eax*2]
	mov	ecx, DWORD PTR _pc$[ebp]
	movsx	ecx, WORD PTR [ecx+8]
	cdq
	idiv	ecx
	mov	DWORD PTR _ktmr$[ebp], eax

; 4538 : 			if (ktmr > newRating)

	mov	edx, DWORD PTR _ktmr$[ebp]
	cmp	edx, DWORD PTR _newRating$[ebp]
	jle	SHORT $LN2@RatePilot

; 4539 : 				newRating++;

	mov	eax, DWORD PTR _newRating$[ebp]
	add	eax, 1
	mov	DWORD PTR _newRating$[ebp], eax
$LN2@RatePilot:

; 4540 : 			if (ktmr < newRating && newRating > 0)

	mov	ecx, DWORD PTR _ktmr$[ebp]
	cmp	ecx, DWORD PTR _newRating$[ebp]
	jge	SHORT $LN1@RatePilot
	cmp	DWORD PTR _newRating$[ebp], 0
	jle	SHORT $LN1@RatePilot

; 4541 : 				newRating--;

	mov	edx, DWORD PTR _newRating$[ebp]
	sub	edx, 1
	mov	DWORD PTR _newRating$[ebp], edx
$LN1@RatePilot:

; 4542 : 			rating = pc->GetPilotRating() * (pc->missions_flown - 1);

	mov	ecx, DWORD PTR _pc$[ebp]
	call	?GetPilotRating@PilotClass@@QAEHXZ	; PilotClass::GetPilotRating
	mov	ecx, DWORD PTR _pc$[ebp]
	movsx	edx, WORD PTR [ecx+8]
	sub	edx, 1
	imul	eax, edx
	mov	DWORD PTR _rating$[ebp], eax

; 4543 : 			rating = (rating + newRating) / pc->missions_flown;

	mov	eax, DWORD PTR _rating$[ebp]
	add	eax, DWORD PTR _newRating$[ebp]
	mov	ecx, DWORD PTR _pc$[ebp]
	movsx	ecx, WORD PTR [ecx+8]
	cdq
	idiv	ecx
	mov	DWORD PTR _rating$[ebp], eax

; 4544 : 			pc->SetPilotSR(pc->GetPilotSkill(),rating);

	movzx	edx, BYTE PTR _rating$[ebp]
	push	edx
	mov	ecx, DWORD PTR _pc$[ebp]
	call	?GetPilotSkill@PilotClass@@QAEHXZ	; PilotClass::GetPilotSkill
	push	eax
	mov	ecx, DWORD PTR _pc$[ebp]
	call	?SetPilotSR@PilotClass@@QAEXEE@Z	; PilotClass::SetPilotSR
$LN5@RatePilot:

; 4545 : 		}
; 4546 : 	}
; 4547 : }

	mov	esp, ebp
	pop	ebp
	ret	0
?RatePilot@@YAXPAVFlightClass@@HH@Z ENDP		; RatePilot
_TEXT	ENDS
; Function compile flags: /Odtp
;	COMDAT ??_G_System_error_category@std@@UAEPAXI@Z
_TEXT	SEGMENT
_this$ = -4						; size = 4
___flags$ = 8						; size = 4
??_G_System_error_category@std@@UAEPAXI@Z PROC		; std::_System_error_category::`scalar deleting destructor', COMDAT
; _this$ = ecx
	push	ebp
	mov	ebp, esp
	push	ecx
	mov	DWORD PTR _this$[ebp], ecx
	mov	ecx, DWORD PTR _this$[ebp]
	call	??1_System_error_category@std@@UAE@XZ
	mov	eax, DWORD PTR ___flags$[ebp]
	and	eax, 1
	je	SHORT $LN1@scalar
	mov	ecx, DWORD PTR _this$[ebp]
	push	ecx
	call	??3@YAXPAX@Z				; operator delete
	add	esp, 4
$LN1@scalar:
	mov	eax, DWORD PTR _this$[ebp]
	mov	esp, ebp
	pop	ebp
	ret	4
??_G_System_error_category@std@@UAEPAXI@Z ENDP		; std::_System_error_category::`scalar deleting destructor'
_TEXT	ENDS
; Function compile flags: /Odtp
;	COMDAT ??1_System_error_category@std@@UAE@XZ
_TEXT	SEGMENT
_this$ = -4						; size = 4
??1_System_error_category@std@@UAE@XZ PROC		; std::_System_error_category::~_System_error_category, COMDAT
; _this$ = ecx
	push	ebp
	mov	ebp, esp
	push	ecx
	mov	DWORD PTR _this$[ebp], ecx
	mov	ecx, DWORD PTR _this$[ebp]
	call	??1_Generic_error_category@std@@UAE@XZ
	mov	esp, ebp
	pop	ebp
	ret	0
??1_System_error_category@std@@UAE@XZ ENDP		; std::_System_error_category::~_System_error_category
_TEXT	ENDS
; Function compile flags: /Odtp
; File c:\program files (x86)\microsoft visual studio 11.0\vc\include\system_error
;	COMDAT ?default_error_condition@_System_error_category@std@@UBE?AVerror_condition@2@H@Z
_TEXT	SEGMENT
_this$ = -4						; size = 4
___$ReturnUdt$ = 8					; size = 4
__Errval$ = 12						; size = 4
?default_error_condition@_System_error_category@std@@UBE?AVerror_condition@2@H@Z PROC ; std::_System_error_category::default_error_condition, COMDAT
; _this$ = ecx

; 641  : 		{	// make error_condition for error code (generic if possible)

	push	ebp
	mov	ebp, esp
	push	ecx
	mov	DWORD PTR _this$[ebp], ecx

; 642  : 		if (_Syserror_map(_Errval))

	mov	eax, DWORD PTR __Errval$[ebp]
	push	eax
	call	?_Syserror_map@std@@YAPBDH@Z		; std::_Syserror_map
	add	esp, 4
	test	eax, eax
	je	SHORT $LN2@default_er

; 643  : 			return (error_condition(_Errval, generic_category()));

	call	?generic_category@std@@YAABVerror_category@1@XZ ; std::generic_category
	push	eax
	mov	ecx, DWORD PTR __Errval$[ebp]
	push	ecx
	mov	ecx, DWORD PTR ___$ReturnUdt$[ebp]
	call	??0error_condition@std@@QAE@HABVerror_category@1@@Z ; std::error_condition::error_condition
	mov	eax, DWORD PTR ___$ReturnUdt$[ebp]
	jmp	SHORT $LN3@default_er

; 644  : 		else

	jmp	SHORT $LN3@default_er
$LN2@default_er:

; 645  : 			return (error_condition(_Errval, system_category()));

	call	?system_category@std@@YAABVerror_category@1@XZ ; std::system_category
	push	eax
	mov	edx, DWORD PTR __Errval$[ebp]
	push	edx
	mov	ecx, DWORD PTR ___$ReturnUdt$[ebp]
	call	??0error_condition@std@@QAE@HABVerror_category@1@@Z ; std::error_condition::error_condition
	mov	eax, DWORD PTR ___$ReturnUdt$[ebp]
$LN3@default_er:

; 646  : 		}

	mov	esp, ebp
	pop	ebp
	ret	8
?default_error_condition@_System_error_category@std@@UBE?AVerror_condition@2@H@Z ENDP ; std::_System_error_category::default_error_condition
_TEXT	ENDS
; Function compile flags: /Odtp
; File c:\program files (x86)\microsoft visual studio 11.0\vc\include\system_error
;	COMDAT ?message@_System_error_category@std@@UBE?AV?$basic_string@DU?$char_traits@D@std@@V?$allocator@D@2@@2@H@Z
_TEXT	SEGMENT
_this$ = -16						; size = 4
$T1 = -12						; size = 4
tv69 = -8						; size = 4
__Name$ = -4						; size = 4
___$ReturnUdt$ = 8					; size = 4
__Errcode$ = 12						; size = 4
?message@_System_error_category@std@@UBE?AV?$basic_string@DU?$char_traits@D@std@@V?$allocator@D@2@@2@H@Z PROC ; std::_System_error_category::message, COMDAT
; _this$ = ecx

; 634  : 		{	// convert to name of error

	push	ebp
	mov	ebp, esp
	sub	esp, 16					; 00000010H
	mov	DWORD PTR _this$[ebp], ecx
	mov	DWORD PTR $T1[ebp], 0

; 635  : 		const char *_Name = _Winerror_map(_Errcode);

	mov	eax, DWORD PTR __Errcode$[ebp]
	push	eax
	call	?_Winerror_map@std@@YAPBDH@Z		; std::_Winerror_map
	add	esp, 4
	mov	DWORD PTR __Name$[ebp], eax

; 636  : 		return (string(_Name != 0 ? _Name : "unknown error"));

	cmp	DWORD PTR __Name$[ebp], 0
	je	SHORT $LN3@message
	mov	ecx, DWORD PTR __Name$[ebp]
	mov	DWORD PTR tv69[ebp], ecx
	jmp	SHORT $LN4@message
$LN3@message:
	mov	DWORD PTR tv69[ebp], OFFSET ??_C@_0O@BFJCFAAK@unknown?5error?$AA@
$LN4@message:
	mov	edx, DWORD PTR tv69[ebp]
	push	edx
	mov	ecx, DWORD PTR ___$ReturnUdt$[ebp]
	call	??0?$basic_string@DU?$char_traits@D@std@@V?$allocator@D@2@@std@@QAE@PBD@Z ; std::basic_string<char,std::char_traits<char>,std::allocator<char> >::basic_string<char,std::char_traits<char>,std::allocator<char> >
	mov	eax, DWORD PTR $T1[ebp]
	or	eax, 1
	mov	DWORD PTR $T1[ebp], eax
	mov	eax, DWORD PTR ___$ReturnUdt$[ebp]

; 637  : 		}

	mov	esp, ebp
	pop	ebp
	ret	8
?message@_System_error_category@std@@UBE?AV?$basic_string@DU?$char_traits@D@std@@V?$allocator@D@2@@2@H@Z ENDP ; std::_System_error_category::message
_TEXT	ENDS
; Function compile flags: /Odtp
; File c:\program files (x86)\microsoft visual studio 11.0\vc\include\system_error
;	COMDAT ?name@_System_error_category@std@@UBEPBDXZ
_TEXT	SEGMENT
_this$ = -4						; size = 4
?name@_System_error_category@std@@UBEPBDXZ PROC		; std::_System_error_category::name, COMDAT
; _this$ = ecx

; 629  : 		{	// get name of category

	push	ebp
	mov	ebp, esp
	push	ecx
	mov	DWORD PTR _this$[ebp], ecx

; 630  : 		return ("system");

	mov	eax, OFFSET ??_C@_06FHFOAHML@system?$AA@

; 631  : 		}

	mov	esp, ebp
	pop	ebp
	ret	0
?name@_System_error_category@std@@UBEPBDXZ ENDP		; std::_System_error_category::name
_TEXT	ENDS
; Function compile flags: /Odtp
; File c:\program files (x86)\microsoft visual studio 11.0\vc\include\system_error
;	COMDAT ??0_System_error_category@std@@QAE@XZ
_TEXT	SEGMENT
_this$ = -4						; size = 4
??0_System_error_category@std@@QAE@XZ PROC		; std::_System_error_category::_System_error_category, COMDAT
; _this$ = ecx

; 624  : 	_System_error_category()

	push	ebp
	mov	ebp, esp
	push	ecx
	mov	DWORD PTR _this$[ebp], ecx
	mov	ecx, DWORD PTR _this$[ebp]
	call	??0_Generic_error_category@std@@QAE@XZ	; std::_Generic_error_category::_Generic_error_category
	mov	eax, DWORD PTR _this$[ebp]
	mov	DWORD PTR [eax], OFFSET ??_7_System_error_category@std@@6B@

; 625  : 		{	// default constructor
; 626  : 		}

	mov	eax, DWORD PTR _this$[ebp]
	mov	esp, ebp
	pop	ebp
	ret	0
??0_System_error_category@std@@QAE@XZ ENDP		; std::_System_error_category::_System_error_category
_TEXT	ENDS
; Function compile flags: /Odtp
;	COMDAT ??_G_Iostream_error_category@std@@UAEPAXI@Z
_TEXT	SEGMENT
_this$ = -4						; size = 4
___flags$ = 8						; size = 4
??_G_Iostream_error_category@std@@UAEPAXI@Z PROC	; std::_Iostream_error_category::`scalar deleting destructor', COMDAT
; _this$ = ecx
	push	ebp
	mov	ebp, esp
	push	ecx
	mov	DWORD PTR _this$[ebp], ecx
	mov	ecx, DWORD PTR _this$[ebp]
	call	??1_Iostream_error_category@std@@UAE@XZ
	mov	eax, DWORD PTR ___flags$[ebp]
	and	eax, 1
	je	SHORT $LN1@scalar
	mov	ecx, DWORD PTR _this$[ebp]
	push	ecx
	call	??3@YAXPAX@Z				; operator delete
	add	esp, 4
$LN1@scalar:
	mov	eax, DWORD PTR _this$[ebp]
	mov	esp, ebp
	pop	ebp
	ret	4
??_G_Iostream_error_category@std@@UAEPAXI@Z ENDP	; std::_Iostream_error_category::`scalar deleting destructor'
_TEXT	ENDS
; Function compile flags: /Odtp
;	COMDAT ??1_Iostream_error_category@std@@UAE@XZ
_TEXT	SEGMENT
_this$ = -4						; size = 4
??1_Iostream_error_category@std@@UAE@XZ PROC		; std::_Iostream_error_category::~_Iostream_error_category, COMDAT
; _this$ = ecx
	push	ebp
	mov	ebp, esp
	push	ecx
	mov	DWORD PTR _this$[ebp], ecx
	mov	ecx, DWORD PTR _this$[ebp]
	call	??1_Generic_error_category@std@@UAE@XZ
	mov	esp, ebp
	pop	ebp
	ret	0
??1_Iostream_error_category@std@@UAE@XZ ENDP		; std::_Iostream_error_category::~_Iostream_error_category
_TEXT	ENDS
; Function compile flags: /Odtp
; File c:\program files (x86)\microsoft visual studio 11.0\vc\include\system_error
;	COMDAT ?message@_Iostream_error_category@std@@UBE?AV?$basic_string@DU?$char_traits@D@std@@V?$allocator@D@2@@2@H@Z
_TEXT	SEGMENT
_this$ = -8						; size = 4
$T1 = -4						; size = 4
___$ReturnUdt$ = 8					; size = 4
__Errcode$ = 12						; size = 4
?message@_Iostream_error_category@std@@UBE?AV?$basic_string@DU?$char_traits@D@std@@V?$allocator@D@2@@2@H@Z PROC ; std::_Iostream_error_category::message, COMDAT
; _this$ = ecx

; 611  : 		{	// convert to name of error

	push	ebp
	mov	ebp, esp
	sub	esp, 8
	mov	DWORD PTR _this$[ebp], ecx
	mov	DWORD PTR $T1[ebp], 0

; 612  : 		if (_Errcode == (int)io_errc::stream)

	cmp	DWORD PTR __Errcode$[ebp], 1
	jne	SHORT $LN2@message

; 613  : 			return ("iostream stream error");

	push	OFFSET ??_C@_0BG@PADBLCHM@iostream?5stream?5error?$AA@
	mov	ecx, DWORD PTR ___$ReturnUdt$[ebp]
	call	??0?$basic_string@DU?$char_traits@D@std@@V?$allocator@D@2@@std@@QAE@PBD@Z ; std::basic_string<char,std::char_traits<char>,std::allocator<char> >::basic_string<char,std::char_traits<char>,std::allocator<char> >
	mov	eax, DWORD PTR $T1[ebp]
	or	eax, 1
	mov	DWORD PTR $T1[ebp], eax
	mov	eax, DWORD PTR ___$ReturnUdt$[ebp]
	jmp	SHORT $LN3@message

; 614  : 		else

	jmp	SHORT $LN3@message
$LN2@message:

; 615  : 			return (_Generic_error_category::message(_Errcode));

	mov	ecx, DWORD PTR __Errcode$[ebp]
	push	ecx
	mov	edx, DWORD PTR ___$ReturnUdt$[ebp]
	push	edx
	mov	ecx, DWORD PTR _this$[ebp]
	call	?message@_Generic_error_category@std@@UBE?AV?$basic_string@DU?$char_traits@D@std@@V?$allocator@D@2@@2@H@Z ; std::_Generic_error_category::message
	mov	eax, DWORD PTR $T1[ebp]
	or	eax, 1
	mov	DWORD PTR $T1[ebp], eax
	mov	eax, DWORD PTR ___$ReturnUdt$[ebp]
$LN3@message:

; 616  : 		}

	mov	esp, ebp
	pop	ebp
	ret	8
?message@_Iostream_error_category@std@@UBE?AV?$basic_string@DU?$char_traits@D@std@@V?$allocator@D@2@@2@H@Z ENDP ; std::_Iostream_error_category::message
_TEXT	ENDS
; Function compile flags: /Odtp
; File c:\program files (x86)\microsoft visual studio 11.0\vc\include\system_error
;	COMDAT ?name@_Iostream_error_category@std@@UBEPBDXZ
_TEXT	SEGMENT
_this$ = -4						; size = 4
?name@_Iostream_error_category@std@@UBEPBDXZ PROC	; std::_Iostream_error_category::name, COMDAT
; _this$ = ecx

; 606  : 		{	// get name of category

	push	ebp
	mov	ebp, esp
	push	ecx
	mov	DWORD PTR _this$[ebp], ecx

; 607  : 		return ("iostream");

	mov	eax, OFFSET ??_C@_08LLGCOLLL@iostream?$AA@

; 608  : 		}

	mov	esp, ebp
	pop	ebp
	ret	0
?name@_Iostream_error_category@std@@UBEPBDXZ ENDP	; std::_Iostream_error_category::name
_TEXT	ENDS
; Function compile flags: /Odtp
; File c:\program files (x86)\microsoft visual studio 11.0\vc\include\system_error
;	COMDAT ??0_Iostream_error_category@std@@QAE@XZ
_TEXT	SEGMENT
_this$ = -4						; size = 4
??0_Iostream_error_category@std@@QAE@XZ PROC		; std::_Iostream_error_category::_Iostream_error_category, COMDAT
; _this$ = ecx

; 601  : 	_Iostream_error_category()

	push	ebp
	mov	ebp, esp
	push	ecx
	mov	DWORD PTR _this$[ebp], ecx
	mov	ecx, DWORD PTR _this$[ebp]
	call	??0_Generic_error_category@std@@QAE@XZ	; std::_Generic_error_category::_Generic_error_category
	mov	eax, DWORD PTR _this$[ebp]
	mov	DWORD PTR [eax], OFFSET ??_7_Iostream_error_category@std@@6B@

; 602  : 		{	// default constructor
; 603  : 		}

	mov	eax, DWORD PTR _this$[ebp]
	mov	esp, ebp
	pop	ebp
	ret	0
??0_Iostream_error_category@std@@QAE@XZ ENDP		; std::_Iostream_error_category::_Iostream_error_category
_TEXT	ENDS
; Function compile flags: /Odtp
;	COMDAT ??_G_Generic_error_category@std@@UAEPAXI@Z
_TEXT	SEGMENT
_this$ = -4						; size = 4
___flags$ = 8						; size = 4
??_G_Generic_error_category@std@@UAEPAXI@Z PROC		; std::_Generic_error_category::`scalar deleting destructor', COMDAT
; _this$ = ecx
	push	ebp
	mov	ebp, esp
	push	ecx
	mov	DWORD PTR _this$[ebp], ecx
	mov	ecx, DWORD PTR _this$[ebp]
	call	??1_Generic_error_category@std@@UAE@XZ
	mov	eax, DWORD PTR ___flags$[ebp]
	and	eax, 1
	je	SHORT $LN1@scalar
	mov	ecx, DWORD PTR _this$[ebp]
	push	ecx
	call	??3@YAXPAX@Z				; operator delete
	add	esp, 4
$LN1@scalar:
	mov	eax, DWORD PTR _this$[ebp]
	mov	esp, ebp
	pop	ebp
	ret	4
??_G_Generic_error_category@std@@UAEPAXI@Z ENDP		; std::_Generic_error_category::`scalar deleting destructor'
_TEXT	ENDS
; Function compile flags: /Odtp
;	COMDAT ??1_Generic_error_category@std@@UAE@XZ
_TEXT	SEGMENT
_this$ = -4						; size = 4
??1_Generic_error_category@std@@UAE@XZ PROC		; std::_Generic_error_category::~_Generic_error_category, COMDAT
; _this$ = ecx
	push	ebp
	mov	ebp, esp
	push	ecx
	mov	DWORD PTR _this$[ebp], ecx
	mov	ecx, DWORD PTR _this$[ebp]
	call	??1error_category@std@@UAE@XZ		; std::error_category::~error_category
	mov	esp, ebp
	pop	ebp
	ret	0
??1_Generic_error_category@std@@UAE@XZ ENDP		; std::_Generic_error_category::~_Generic_error_category
_TEXT	ENDS
; Function compile flags: /Odtp
; File c:\program files (x86)\microsoft visual studio 11.0\vc\include\system_error
;	COMDAT ?message@_Generic_error_category@std@@UBE?AV?$basic_string@DU?$char_traits@D@std@@V?$allocator@D@2@@2@H@Z
_TEXT	SEGMENT
_this$ = -16						; size = 4
$T1 = -12						; size = 4
tv69 = -8						; size = 4
__Name$ = -4						; size = 4
___$ReturnUdt$ = 8					; size = 4
__Errcode$ = 12						; size = 4
?message@_Generic_error_category@std@@UBE?AV?$basic_string@DU?$char_traits@D@std@@V?$allocator@D@2@@2@H@Z PROC ; std::_Generic_error_category::message, COMDAT
; _this$ = ecx

; 590  : 		{	// convert to name of error

	push	ebp
	mov	ebp, esp
	sub	esp, 16					; 00000010H
	mov	DWORD PTR _this$[ebp], ecx
	mov	DWORD PTR $T1[ebp], 0

; 591  : 		const char *_Name = _Syserror_map(_Errcode);

	mov	eax, DWORD PTR __Errcode$[ebp]
	push	eax
	call	?_Syserror_map@std@@YAPBDH@Z		; std::_Syserror_map
	add	esp, 4
	mov	DWORD PTR __Name$[ebp], eax

; 592  : 		return (string(_Name != 0 ? _Name : "unknown error"));

	cmp	DWORD PTR __Name$[ebp], 0
	je	SHORT $LN3@message
	mov	ecx, DWORD PTR __Name$[ebp]
	mov	DWORD PTR tv69[ebp], ecx
	jmp	SHORT $LN4@message
$LN3@message:
	mov	DWORD PTR tv69[ebp], OFFSET ??_C@_0O@BFJCFAAK@unknown?5error?$AA@
$LN4@message:
	mov	edx, DWORD PTR tv69[ebp]
	push	edx
	mov	ecx, DWORD PTR ___$ReturnUdt$[ebp]
	call	??0?$basic_string@DU?$char_traits@D@std@@V?$allocator@D@2@@std@@QAE@PBD@Z ; std::basic_string<char,std::char_traits<char>,std::allocator<char> >::basic_string<char,std::char_traits<char>,std::allocator<char> >
	mov	eax, DWORD PTR $T1[ebp]
	or	eax, 1
	mov	DWORD PTR $T1[ebp], eax
	mov	eax, DWORD PTR ___$ReturnUdt$[ebp]

; 593  : 		}

	mov	esp, ebp
	pop	ebp
	ret	8
?message@_Generic_error_category@std@@UBE?AV?$basic_string@DU?$char_traits@D@std@@V?$allocator@D@2@@2@H@Z ENDP ; std::_Generic_error_category::message
_TEXT	ENDS
; Function compile flags: /Odtp
; File c:\program files (x86)\microsoft visual studio 11.0\vc\include\system_error
;	COMDAT ?name@_Generic_error_category@std@@UBEPBDXZ
_TEXT	SEGMENT
_this$ = -4						; size = 4
?name@_Generic_error_category@std@@UBEPBDXZ PROC	; std::_Generic_error_category::name, COMDAT
; _this$ = ecx

; 585  : 		{	// get name of category

	push	ebp
	mov	ebp, esp
	push	ecx
	mov	DWORD PTR _this$[ebp], ecx

; 586  : 		return ("generic");

	mov	eax, OFFSET ??_C@_07DCLBNMLN@generic?$AA@

; 587  : 		}

	mov	esp, ebp
	pop	ebp
	ret	0
?name@_Generic_error_category@std@@UBEPBDXZ ENDP	; std::_Generic_error_category::name
_TEXT	ENDS
; Function compile flags: /Odtp
; File c:\program files (x86)\microsoft visual studio 11.0\vc\include\system_error
;	COMDAT ??0_Generic_error_category@std@@QAE@XZ
_TEXT	SEGMENT
_this$ = -4						; size = 4
??0_Generic_error_category@std@@QAE@XZ PROC		; std::_Generic_error_category::_Generic_error_category, COMDAT
; _this$ = ecx

; 580  : 	_Generic_error_category()

	push	ebp
	mov	ebp, esp
	push	ecx
	mov	DWORD PTR _this$[ebp], ecx
	mov	ecx, DWORD PTR _this$[ebp]
	call	??0error_category@std@@QAE@XZ		; std::error_category::error_category
	mov	eax, DWORD PTR _this$[ebp]
	mov	DWORD PTR [eax], OFFSET ??_7_Generic_error_category@std@@6B@

; 581  : 		{	// default constructor
; 582  : 		}

	mov	eax, DWORD PTR _this$[ebp]
	mov	esp, ebp
	pop	ebp
	ret	0
??0_Generic_error_category@std@@QAE@XZ ENDP		; std::_Generic_error_category::_Generic_error_category
_TEXT	ENDS
; Function compile flags: /Odtp
; File c:\program files (x86)\microsoft visual studio 11.0\vc\include\system_error
;	COMDAT ??8error_condition@std@@QBE_NABV01@@Z
_TEXT	SEGMENT
tv78 = -8						; size = 4
_this$ = -4						; size = 4
__Right$ = 8						; size = 4
??8error_condition@std@@QBE_NABV01@@Z PROC		; std::error_condition::operator==, COMDAT
; _this$ = ecx

; 376  : 		{	// test if *this == _Right

	push	ebp
	mov	ebp, esp
	sub	esp, 8
	push	esi
	mov	DWORD PTR _this$[ebp], ecx

; 377  : 		return (category() == _Right.category()
; 378  : 			&& value() == _Right.value());

	mov	ecx, DWORD PTR __Right$[ebp]
	call	?category@error_condition@std@@QBEABVerror_category@2@XZ ; std::error_condition::category
	push	eax
	mov	ecx, DWORD PTR _this$[ebp]
	call	?category@error_condition@std@@QBEABVerror_category@2@XZ ; std::error_condition::category
	mov	ecx, eax
	call	??8error_category@std@@QBE_NABV01@@Z	; std::error_category::operator==
	movzx	eax, al
	test	eax, eax
	je	SHORT $LN3@operator
	mov	ecx, DWORD PTR _this$[ebp]
	call	?value@error_condition@std@@QBEHXZ	; std::error_condition::value
	mov	esi, eax
	mov	ecx, DWORD PTR __Right$[ebp]
	call	?value@error_condition@std@@QBEHXZ	; std::error_condition::value
	cmp	esi, eax
	jne	SHORT $LN3@operator
	mov	DWORD PTR tv78[ebp], 1
	jmp	SHORT $LN4@operator
$LN3@operator:
	mov	DWORD PTR tv78[ebp], 0
$LN4@operator:
	mov	al, BYTE PTR tv78[ebp]

; 379  : 		}

	pop	esi
	mov	esp, ebp
	pop	ebp
	ret	4
??8error_condition@std@@QBE_NABV01@@Z ENDP		; std::error_condition::operator==
_TEXT	ENDS
; Function compile flags: /Odtp
; File c:\program files (x86)\microsoft visual studio 11.0\vc\include\system_error
;	COMDAT ?category@error_condition@std@@QBEABVerror_category@2@XZ
_TEXT	SEGMENT
_this$ = -4						; size = 4
?category@error_condition@std@@QBEABVerror_category@2@XZ PROC ; std::error_condition::category, COMDAT
; _this$ = ecx

; 354  : 		{	// get category

	push	ebp
	mov	ebp, esp
	push	ecx
	mov	DWORD PTR _this$[ebp], ecx

; 355  : 		return (*_Mycat);

	mov	eax, DWORD PTR _this$[ebp]
	mov	eax, DWORD PTR [eax+4]

; 356  : 		}

	mov	esp, ebp
	pop	ebp
	ret	0
?category@error_condition@std@@QBEABVerror_category@2@XZ ENDP ; std::error_condition::category
_TEXT	ENDS
; Function compile flags: /Odtp
; File c:\program files (x86)\microsoft visual studio 11.0\vc\include\system_error
;	COMDAT ?value@error_condition@std@@QBEHXZ
_TEXT	SEGMENT
_this$ = -4						; size = 4
?value@error_condition@std@@QBEHXZ PROC			; std::error_condition::value, COMDAT
; _this$ = ecx

; 349  : 		{	// get error code

	push	ebp
	mov	ebp, esp
	push	ecx
	mov	DWORD PTR _this$[ebp], ecx

; 350  : 		return (_Myval);

	mov	eax, DWORD PTR _this$[ebp]
	mov	eax, DWORD PTR [eax]

; 351  : 		}

	mov	esp, ebp
	pop	ebp
	ret	0
?value@error_condition@std@@QBEHXZ ENDP			; std::error_condition::value
_TEXT	ENDS
; Function compile flags: /Odtp
; File c:\program files (x86)\microsoft visual studio 11.0\vc\include\system_error
;	COMDAT ??0error_condition@std@@QAE@HABVerror_category@1@@Z
_TEXT	SEGMENT
_this$ = -4						; size = 4
__Val$ = 8						; size = 4
__Cat$ = 12						; size = 4
??0error_condition@std@@QAE@HABVerror_category@1@@Z PROC ; std::error_condition::error_condition, COMDAT
; _this$ = ecx

; 316  : 		{	// construct from error code and category

	push	ebp
	mov	ebp, esp
	push	ecx
	mov	DWORD PTR _this$[ebp], ecx
	mov	eax, DWORD PTR _this$[ebp]
	mov	ecx, DWORD PTR __Val$[ebp]
	mov	DWORD PTR [eax], ecx
	mov	edx, DWORD PTR _this$[ebp]
	mov	eax, DWORD PTR __Cat$[ebp]
	mov	DWORD PTR [edx+4], eax

; 317  : 		}

	mov	eax, DWORD PTR _this$[ebp]
	mov	esp, ebp
	pop	ebp
	ret	8
??0error_condition@std@@QAE@HABVerror_category@1@@Z ENDP ; std::error_condition::error_condition
_TEXT	ENDS
; Function compile flags: /Odtp
; File c:\program files (x86)\microsoft visual studio 11.0\vc\include\system_error
;	COMDAT ?category@error_code@std@@QBEABVerror_category@2@XZ
_TEXT	SEGMENT
_this$ = -4						; size = 4
?category@error_code@std@@QBEABVerror_category@2@XZ PROC ; std::error_code::category, COMDAT
; _this$ = ecx

; 256  : 		{	// get category

	push	ebp
	mov	ebp, esp
	push	ecx
	mov	DWORD PTR _this$[ebp], ecx

; 257  : 		return (*_Mycat);

	mov	eax, DWORD PTR _this$[ebp]
	mov	eax, DWORD PTR [eax+4]

; 258  : 		}

	mov	esp, ebp
	pop	ebp
	ret	0
?category@error_code@std@@QBEABVerror_category@2@XZ ENDP ; std::error_code::category
_TEXT	ENDS
; Function compile flags: /Odtp
; File c:\program files (x86)\microsoft visual studio 11.0\vc\include\system_error
;	COMDAT ?value@error_code@std@@QBEHXZ
_TEXT	SEGMENT
_this$ = -4						; size = 4
?value@error_code@std@@QBEHXZ PROC			; std::error_code::value, COMDAT
; _this$ = ecx

; 251  : 		{	// get error code

	push	ebp
	mov	ebp, esp
	push	ecx
	mov	DWORD PTR _this$[ebp], ecx

; 252  : 		return (_Myval);

	mov	eax, DWORD PTR _this$[ebp]
	mov	eax, DWORD PTR [eax]

; 253  : 		}

	mov	esp, ebp
	pop	ebp
	ret	0
?value@error_code@std@@QBEHXZ ENDP			; std::error_code::value
_TEXT	ENDS
; Function compile flags: /Odtp
;	COMDAT ??_Gerror_category@std@@UAEPAXI@Z
_TEXT	SEGMENT
_this$ = -4						; size = 4
___flags$ = 8						; size = 4
??_Gerror_category@std@@UAEPAXI@Z PROC			; std::error_category::`scalar deleting destructor', COMDAT
; _this$ = ecx
	push	ebp
	mov	ebp, esp
	push	ecx
	mov	DWORD PTR _this$[ebp], ecx
	mov	ecx, DWORD PTR _this$[ebp]
	call	??1error_category@std@@UAE@XZ		; std::error_category::~error_category
	mov	eax, DWORD PTR ___flags$[ebp]
	and	eax, 1
	je	SHORT $LN1@scalar
	mov	ecx, DWORD PTR _this$[ebp]
	push	ecx
	call	??3@YAXPAX@Z				; operator delete
	add	esp, 4
$LN1@scalar:
	mov	eax, DWORD PTR _this$[ebp]
	mov	esp, ebp
	pop	ebp
	ret	4
??_Gerror_category@std@@UAEPAXI@Z ENDP			; std::error_category::`scalar deleting destructor'
_TEXT	ENDS
; Function compile flags: /Odtp
; File c:\program files (x86)\microsoft visual studio 11.0\vc\include\system_error
;	COMDAT ??8error_category@std@@QBE_NABV01@@Z
_TEXT	SEGMENT
_this$ = -8						; size = 4
tv65 = -4						; size = 4
__Right$ = 8						; size = 4
??8error_category@std@@QBE_NABV01@@Z PROC		; std::error_category::operator==, COMDAT
; _this$ = ecx

; 184  : 		{	// compare categories for equality

	push	ebp
	mov	ebp, esp
	sub	esp, 8
	mov	DWORD PTR _this$[ebp], ecx

; 185  : 		return (this == &_Right);

	mov	eax, DWORD PTR _this$[ebp]
	cmp	eax, DWORD PTR __Right$[ebp]
	jne	SHORT $LN3@operator
	mov	DWORD PTR tv65[ebp], 1
	jmp	SHORT $LN4@operator
$LN3@operator:
	mov	DWORD PTR tv65[ebp], 0
$LN4@operator:
	mov	al, BYTE PTR tv65[ebp]

; 186  : 		}

	mov	esp, ebp
	pop	ebp
	ret	4
??8error_category@std@@QBE_NABV01@@Z ENDP		; std::error_category::operator==
_TEXT	ENDS
; Function compile flags: /Odtp
; File c:\program files (x86)\microsoft visual studio 11.0\vc\include\system_error
;	COMDAT ?equivalent@error_category@std@@UBE_NABVerror_code@2@H@Z
_TEXT	SEGMENT
_this$ = -8						; size = 4
tv74 = -4						; size = 4
__Code$ = 8						; size = 4
__Errval$ = 12						; size = 4
?equivalent@error_category@std@@UBE_NABVerror_code@2@H@Z PROC ; std::error_category::equivalent, COMDAT
; _this$ = ecx

; 415  : 	{	// test if conditions same for this category

	push	ebp
	mov	ebp, esp
	sub	esp, 8
	mov	DWORD PTR _this$[ebp], ecx

; 416  : 	return (*this == _Code.category() && _Code.value() == _Errval);

	mov	ecx, DWORD PTR __Code$[ebp]
	call	?category@error_code@std@@QBEABVerror_category@2@XZ ; std::error_code::category
	push	eax
	mov	ecx, DWORD PTR _this$[ebp]
	call	??8error_category@std@@QBE_NABV01@@Z	; std::error_category::operator==
	movzx	eax, al
	test	eax, eax
	je	SHORT $LN3@equivalent
	mov	ecx, DWORD PTR __Code$[ebp]
	call	?value@error_code@std@@QBEHXZ		; std::error_code::value
	cmp	eax, DWORD PTR __Errval$[ebp]
	jne	SHORT $LN3@equivalent
	mov	DWORD PTR tv74[ebp], 1
	jmp	SHORT $LN4@equivalent
$LN3@equivalent:
	mov	DWORD PTR tv74[ebp], 0
$LN4@equivalent:
	mov	al, BYTE PTR tv74[ebp]

; 417  : 	}

	mov	esp, ebp
	pop	ebp
	ret	8
?equivalent@error_category@std@@UBE_NABVerror_code@2@H@Z ENDP ; std::error_category::equivalent
_TEXT	ENDS
; Function compile flags: /Odtp
; File c:\program files (x86)\microsoft visual studio 11.0\vc\include\system_error
;	COMDAT ?equivalent@error_category@std@@UBE_NHABVerror_condition@2@@Z
_TEXT	SEGMENT
$T1 = -12						; size = 8
_this$ = -4						; size = 4
__Errval$ = 8						; size = 4
__Cond$ = 12						; size = 4
?equivalent@error_category@std@@UBE_NHABVerror_condition@2@@Z PROC ; std::error_category::equivalent, COMDAT
; _this$ = ecx

; 408  : 	{	// test if error code same condition

	push	ebp
	mov	ebp, esp
	sub	esp, 12					; 0000000cH
	mov	DWORD PTR _this$[ebp], ecx

; 409  : 	return (default_error_condition(_Errval) == _Cond);

	mov	eax, DWORD PTR __Cond$[ebp]
	push	eax
	mov	ecx, DWORD PTR __Errval$[ebp]
	push	ecx
	lea	edx, DWORD PTR $T1[ebp]
	push	edx
	mov	eax, DWORD PTR _this$[ebp]
	mov	edx, DWORD PTR [eax]
	mov	ecx, DWORD PTR _this$[ebp]
	mov	eax, DWORD PTR [edx+12]
	call	eax
	mov	ecx, eax
	call	??8error_condition@std@@QBE_NABV01@@Z	; std::error_condition::operator==

; 410  : 	}

	mov	esp, ebp
	pop	ebp
	ret	8
?equivalent@error_category@std@@UBE_NHABVerror_condition@2@@Z ENDP ; std::error_category::equivalent
_TEXT	ENDS
; Function compile flags: /Odtp
; File c:\program files (x86)\microsoft visual studio 11.0\vc\include\system_error
;	COMDAT ?default_error_condition@error_category@std@@UBE?AVerror_condition@2@H@Z
_TEXT	SEGMENT
_this$ = -4						; size = 4
___$ReturnUdt$ = 8					; size = 4
__Errval$ = 12						; size = 4
?default_error_condition@error_category@std@@UBE?AVerror_condition@2@H@Z PROC ; std::error_category::default_error_condition, COMDAT
; _this$ = ecx

; 401  : 	{	// make error_condition for error code

	push	ebp
	mov	ebp, esp
	push	ecx
	mov	DWORD PTR _this$[ebp], ecx

; 402  : 	return (error_condition(_Errval, *this));

	mov	eax, DWORD PTR _this$[ebp]
	push	eax
	mov	ecx, DWORD PTR __Errval$[ebp]
	push	ecx
	mov	ecx, DWORD PTR ___$ReturnUdt$[ebp]
	call	??0error_condition@std@@QAE@HABVerror_category@1@@Z ; std::error_condition::error_condition
	mov	eax, DWORD PTR ___$ReturnUdt$[ebp]

; 403  : 	}

	mov	esp, ebp
	pop	ebp
	ret	8
?default_error_condition@error_category@std@@UBE?AVerror_condition@2@H@Z ENDP ; std::error_category::default_error_condition
_TEXT	ENDS
; Function compile flags: /Odtp
; File c:\program files (x86)\microsoft visual studio 11.0\vc\include\system_error
;	COMDAT ??1error_category@std@@UAE@XZ
_TEXT	SEGMENT
_this$ = -4						; size = 4
??1error_category@std@@UAE@XZ PROC			; std::error_category::~error_category, COMDAT
; _this$ = ecx

; 167  : 		{	// destroy the object

	push	ebp
	mov	ebp, esp
	push	ecx
	mov	DWORD PTR _this$[ebp], ecx
	mov	eax, DWORD PTR _this$[ebp]
	mov	DWORD PTR [eax], OFFSET ??_7error_category@std@@6B@

; 168  : 		}

	mov	esp, ebp
	pop	ebp
	ret	0
??1error_category@std@@UAE@XZ ENDP			; std::error_category::~error_category
_TEXT	ENDS
; Function compile flags: /Odtp
; File c:\program files (x86)\microsoft visual studio 11.0\vc\include\system_error
;	COMDAT ??0error_category@std@@QAE@XZ
_TEXT	SEGMENT
_this$ = -4						; size = 4
??0error_category@std@@QAE@XZ PROC			; std::error_category::error_category, COMDAT
; _this$ = ecx

; 162  : 	error_category()

	push	ebp
	mov	ebp, esp
	push	ecx
	mov	DWORD PTR _this$[ebp], ecx
	mov	eax, DWORD PTR _this$[ebp]
	mov	DWORD PTR [eax], OFFSET ??_7error_category@std@@6B@

; 163  : 		{	// default constructor
; 164  : 		}

	mov	eax, DWORD PTR _this$[ebp]
	mov	esp, ebp
	pop	ebp
	ret	0
??0error_category@std@@QAE@XZ ENDP			; std::error_category::error_category
_TEXT	ENDS
; Function compile flags: /Odtp
; File c:\program files (x86)\microsoft visual studio 11.0\vc\include\system_error
;	COMDAT ?system_category@std@@YAABVerror_category@1@XZ
_TEXT	SEGMENT
?system_category@std@@YAABVerror_category@1@XZ PROC	; std::system_category, COMDAT

; 679  : 	{	// get system_category

	push	ebp
	mov	ebp, esp

; 680  : 	return (_Error_objects<int>::_System_object);

	mov	eax, OFFSET ?_System_object@?$_Error_objects@H@std@@2V_System_error_category@2@A ; std::_Error_objects<int>::_System_object

; 681  : 	}

	pop	ebp
	ret	0
?system_category@std@@YAABVerror_category@1@XZ ENDP	; std::system_category
_TEXT	ENDS
; Function compile flags: /Odtp
; File c:\program files (x86)\microsoft visual studio 11.0\vc\include\system_error
;	COMDAT ?generic_category@std@@YAABVerror_category@1@XZ
_TEXT	SEGMENT
?generic_category@std@@YAABVerror_category@1@XZ PROC	; std::generic_category, COMDAT

; 669  : 	{	// get generic_category

	push	ebp
	mov	ebp, esp

; 670  : 	return (_Error_objects<int>::_Generic_object);

	mov	eax, OFFSET ?_Generic_object@?$_Error_objects@H@std@@2V_Generic_error_category@2@A ; std::_Error_objects<int>::_Generic_object

; 671  : 	}

	pop	ebp
	ret	0
?generic_category@std@@YAABVerror_category@1@XZ ENDP	; std::generic_category
_TEXT	ENDS
; Function compile flags: /Odtp
; File c:\program files (x86)\microsoft visual studio 11.0\vc\include\xlocale
;	COMDAT ??0id@locale@std@@QAE@I@Z
_TEXT	SEGMENT
_this$ = -4						; size = 4
__Val$ = 8						; size = 4
??0id@locale@std@@QAE@I@Z PROC				; std::locale::id::id, COMDAT
; _this$ = ecx

; 74   : 			{	// construct with specified stamp value

	push	ebp
	mov	ebp, esp
	push	ecx
	mov	DWORD PTR _this$[ebp], ecx
	mov	eax, DWORD PTR _this$[ebp]
	mov	ecx, DWORD PTR __Val$[ebp]
	mov	DWORD PTR [eax], ecx

; 75   : 			}

	mov	eax, DWORD PTR _this$[ebp]
	mov	esp, ebp
	pop	ebp
	ret	4
??0id@locale@std@@QAE@I@Z ENDP				; std::locale::id::id
_TEXT	ENDS
; Function compile flags: /Odtp
; File c:\users\zhitao li\documents\visual studio 2012\projects\freefalcon\sim\include\simbase.h
;	COMDAT ?GetCampaignObject@SimBaseClass@@QAEPAVCampBaseClass@@XZ
_TEXT	SEGMENT
_this$ = -4						; size = 4
?GetCampaignObject@SimBaseClass@@QAEPAVCampBaseClass@@XZ PROC ; SimBaseClass::GetCampaignObject, COMDAT
; _this$ = ecx

; 212  : 	CampBaseClass *GetCampaignObject (void) { return campaignObject.get(); }

	push	ebp
	mov	ebp, esp
	push	ecx
	mov	DWORD PTR _this$[ebp], ecx
	mov	ecx, DWORD PTR _this$[ebp]
	add	ecx, 144				; 00000090H
	call	?get@?$VuBin@VCampBaseClass@@@@QBEPAVCampBaseClass@@XZ ; VuBin<CampBaseClass>::get
	mov	esp, ebp
	pop	ebp
	ret	0
?GetCampaignObject@SimBaseClass@@QAEPAVCampBaseClass@@XZ ENDP ; SimBaseClass::GetCampaignObject
_TEXT	ENDS
; Function compile flags: /Odtp
; File c:\users\zhitao li\documents\visual studio 2012\projects\freefalcon\sim\include\simbase.h
;	COMDAT ?IsSetFlag@SimBaseClass@@QBEHH@Z
_TEXT	SEGMENT
_this$ = -8						; size = 4
tv68 = -4						; size = 4
_flag$ = 8						; size = 4
?IsSetFlag@SimBaseClass@@QBEHH@Z PROC			; SimBaseClass::IsSetFlag, COMDAT
; _this$ = ecx

; 178  : 	int  IsSetFlag(int flag) const { return ((specialData.flags & flag) ? TRUE : FALSE); }

	push	ebp
	mov	ebp, esp
	sub	esp, 8
	mov	DWORD PTR _this$[ebp], ecx
	mov	eax, DWORD PTR _this$[ebp]
	mov	ecx, DWORD PTR [eax+172]
	and	ecx, DWORD PTR _flag$[ebp]
	je	SHORT $LN3@IsSetFlag
	mov	DWORD PTR tv68[ebp], 1
	jmp	SHORT $LN4@IsSetFlag
$LN3@IsSetFlag:
	mov	DWORD PTR tv68[ebp], 0
$LN4@IsSetFlag:
	mov	eax, DWORD PTR tv68[ebp]
	mov	esp, ebp
	pop	ebp
	ret	4
?IsSetFlag@SimBaseClass@@QBEHH@Z ENDP			; SimBaseClass::IsSetFlag
_TEXT	ENDS
; Function compile flags: /Odtp
; File c:\users\zhitao li\documents\visual studio 2012\projects\freefalcon\falclib\include\falcsess.h
;	COMDAT ?GetGame@FalconSessionEntity@@QAEPAVFalconGameEntity@@XZ
_TEXT	SEGMENT
_this$ = -4						; size = 4
?GetGame@FalconSessionEntity@@QAEPAVFalconGameEntity@@XZ PROC ; FalconSessionEntity::GetGame, COMDAT
; _this$ = ecx

; 154  : 	FalconGameEntity* GetGame (void)              { return (FalconGameEntity*)VuSessionEntity::Game(); }

	push	ebp
	mov	ebp, esp
	push	ecx
	mov	DWORD PTR _this$[ebp], ecx
	mov	ecx, DWORD PTR _this$[ebp]
	call	?Game@VuSessionEntity@@QAEPAVVuGameEntity@@XZ ; VuSessionEntity::Game
	mov	esp, ebp
	pop	ebp
	ret	0
?GetGame@FalconSessionEntity@@QAEPAVFalconGameEntity@@XZ ENDP ; FalconSessionEntity::GetGame
_TEXT	ENDS
; Function compile flags: /Odtp
; File c:\users\zhitao li\documents\visual studio 2012\projects\freefalcon\falclib\include\falcsess.h
;	COMDAT ?GetPlayerEntity@FalconSessionEntity@@QBEPAVFalconEntity@@XZ
_TEXT	SEGMENT
_this$ = -4						; size = 4
?GetPlayerEntity@FalconSessionEntity@@QBEPAVFalconEntity@@XZ PROC ; FalconSessionEntity::GetPlayerEntity, COMDAT
; _this$ = ecx

; 138  : 	FalconEntity* GetPlayerEntity(void) const     { return playerEntityPtr.get(); }

	push	ebp
	mov	ebp, esp
	push	ecx
	mov	DWORD PTR _this$[ebp], ecx
	mov	ecx, DWORD PTR _this$[ebp]
	add	ecx, 484				; 000001e4H
	call	?get@?$VuBin@VFalconEntity@@@@QBEPAVFalconEntity@@XZ ; VuBin<FalconEntity>::get
	mov	esp, ebp
	pop	ebp
	ret	0
?GetPlayerEntity@FalconSessionEntity@@QBEPAVFalconEntity@@XZ ENDP ; FalconSessionEntity::GetPlayerEntity
_TEXT	ENDS
; Function compile flags: /Odtp
; File c:\users\zhitao li\documents\visual studio 2012\projects\freefalcon\campaign\include\squadron.h
;	COMDAT ?SetPilotStatus@SquadronClass@@QAEXHH@Z
_TEXT	SEGMENT
_this$ = -4						; size = 4
_pilot$ = 8						; size = 4
_s$ = 12						; size = 4
?SetPilotStatus@SquadronClass@@QAEXHH@Z PROC		; SquadronClass::SetPilotStatus, COMDAT
; _this$ = ecx

; 151  : 	void SetPilotStatus (int pilot, int s)			{ pilot_data[pilot].pilot_status = (uchar)s; }

	push	ebp
	mov	ebp, esp
	push	ecx
	mov	DWORD PTR _this$[ebp], ecx
	mov	eax, DWORD PTR _pilot$[ebp]
	imul	eax, 10					; 0000000aH
	mov	ecx, DWORD PTR _this$[ebp]
	mov	dl, BYTE PTR _s$[ebp]
	mov	BYTE PTR [ecx+eax+869], dl
	mov	esp, ebp
	pop	ebp
	ret	8
?SetPilotStatus@SquadronClass@@QAEXHH@Z ENDP		; SquadronClass::SetPilotStatus
_TEXT	ENDS
; Function compile flags: /Odtp
; File c:\users\zhitao li\documents\visual studio 2012\projects\freefalcon\campaign\include\squadron.h
;	COMDAT ?GetPilotData@SquadronClass@@QAEPAVPilotClass@@H@Z
_TEXT	SEGMENT
_this$ = -4						; size = 4
_pilot$ = 8						; size = 4
?GetPilotData@SquadronClass@@QAEPAVPilotClass@@H@Z PROC	; SquadronClass::GetPilotData, COMDAT
; _this$ = ecx

; 146  : 	PilotClass* GetPilotData (int pilot)			{ return &pilot_data[pilot]; }

	push	ebp
	mov	ebp, esp
	push	ecx
	mov	DWORD PTR _this$[ebp], ecx
	mov	eax, DWORD PTR _pilot$[ebp]
	imul	eax, 10					; 0000000aH
	mov	ecx, DWORD PTR _this$[ebp]
	lea	eax, DWORD PTR [ecx+eax+866]
	mov	esp, ebp
	pop	ebp
	ret	4
?GetPilotData@SquadronClass@@QAEPAVPilotClass@@H@Z ENDP	; SquadronClass::GetPilotData
_TEXT	ENDS
; Function compile flags: /Odtp
; File c:\users\zhitao li\documents\visual studio 2012\projects\freefalcon\campaign\include\squadron.h
;	COMDAT ?GetPilotID@SquadronClass@@QAEHH@Z
_TEXT	SEGMENT
_this$ = -4						; size = 4
_pilot$ = 8						; size = 4
?GetPilotID@SquadronClass@@QAEHH@Z PROC			; SquadronClass::GetPilotID, COMDAT
; _this$ = ecx

; 145  : 	int GetPilotID (int pilot)						{ return pilot_data[pilot].pilot_id; }

	push	ebp
	mov	ebp, esp
	push	ecx
	mov	DWORD PTR _this$[ebp], ecx
	mov	eax, DWORD PTR _pilot$[ebp]
	imul	eax, 10					; 0000000aH
	mov	ecx, DWORD PTR _this$[ebp]
	movsx	eax, WORD PTR [ecx+eax+866]
	mov	esp, ebp
	pop	ebp
	ret	4
?GetPilotID@SquadronClass@@QAEHH@Z ENDP			; SquadronClass::GetPilotID
_TEXT	ENDS
; Function compile flags: /Odtp
; File c:\users\zhitao li\documents\visual studio 2012\projects\freefalcon\campaign\camptask\flight.cpp
_TEXT	SEGMENT
$T2 = -108						; size = 4
tv287 = -104						; size = 4
$T3 = -100						; size = 4
$T4 = -96						; size = 4
tv159 = -92						; size = 4
_bo$ = -88						; size = 4
_bd$ = -84						; size = 4
_d$ = -80						; size = 4
_pa_wp$ = -76						; size = 4
_oy$ = -72						; size = 2
$T5 = -68						; size = 4
_ox$ = -64						; size = 2
_target_wp$ = -60					; size = 4
_oit$ = -56						; size = 4
_homebase$ = -52					; size = 4
_target$ = -48						; size = 4
_y$ = -44						; size = 2
_x$ = -40						; size = 2
_w$ = -36						; size = 4
_o$ = -32						; size = 4
_pos$ = -28						; size = 12
__$ArrayPad$ = -16					; size = 4
__$EHRec$ = -12						; size = 12
_flight$ = 8						; size = 4
?FindAlternateStrip@@YAPAVObjectiveClass@@PAVFlightClass@@@Z PROC ; FindAlternateStrip

; 4688 : {

	push	ebp
	mov	ebp, esp
	push	-1
	push	__ehhandler$?FindAlternateStrip@@YAPAVObjectiveClass@@PAVFlightClass@@@Z
	mov	eax, DWORD PTR fs:0
	push	eax
	sub	esp, 96					; 00000060H
	mov	eax, DWORD PTR ___security_cookie
	xor	eax, ebp
	mov	DWORD PTR __$ArrayPad$[ebp], eax
	push	esi
	push	eax
	lea	eax, DWORD PTR __$EHRec$[ebp]
	mov	DWORD PTR fs:0, eax

; 4689 : 	Objective		o,bo=NULL;

	mov	DWORD PTR _bo$[ebp], 0

; 4690 : 	CampBaseClass   *homebase = NULL, *target = NULL;	// 2001-10-09 M.N.

	mov	DWORD PTR _homebase$[ebp], 0
	mov	DWORD PTR _target$[ebp], 0

; 4691 : 	GridIndex		x,y,ox,oy;
; 4692 : 	WayPoint		w,pa_wp=NULL,target_wp=NULL;

	mov	DWORD PTR _pa_wp$[ebp], 0
	mov	DWORD PTR _target_wp$[ebp], 0

; 4693 : 	float			d,bd=9999.0F;

	movss	xmm0, DWORD PTR __real@461c3c00
	movss	DWORD PTR _bd$[ebp], xmm0

; 4694 : 	VuGridIterator	*oit;
; 4695 : 
; 4696 : 	w = flight->GetFirstUnitWP();

	mov	ecx, DWORD PTR _flight$[ebp]
	call	?GetFirstUnitWP@UnitClass@@QAEPAVWayPointClass@@XZ ; UnitClass::GetFirstUnitWP
	mov	DWORD PTR _w$[ebp], eax
$LN19@FindAltern:

; 4697 : 	while (w && w->GetWPAction() != WP_POSTASSEMBLE)

	cmp	DWORD PTR _w$[ebp], 0
	je	SHORT $LN18@FindAltern
	mov	ecx, DWORD PTR _w$[ebp]
	call	?GetWPAction@WayPointClass@@QAEHXZ	; WayPointClass::GetWPAction
	cmp	eax, 3
	je	SHORT $LN18@FindAltern

; 4698 : 	{
; 4699 : 		if (w->GetWPAction() == WP_POSTASSEMBLE)

	mov	ecx, DWORD PTR _w$[ebp]
	call	?GetWPAction@WayPointClass@@QAEHXZ	; WayPointClass::GetWPAction
	cmp	eax, 3
	jne	SHORT $LN17@FindAltern

; 4700 : 			pa_wp = w;

	mov	eax, DWORD PTR _w$[ebp]
	mov	DWORD PTR _pa_wp$[ebp], eax
$LN17@FindAltern:

; 4701 : 		if (w->GetWPFlags() & WPF_TARGET)

	mov	ecx, DWORD PTR _w$[ebp]
	call	?GetWPFlags@WayPointClass@@QAEKXZ	; WayPointClass::GetWPFlags
	and	eax, 1
	je	SHORT $LN16@FindAltern

; 4702 : 		{
; 4703 : 			if (w->GetWPTarget())

	mov	ecx, DWORD PTR _w$[ebp]
	call	?GetWPTarget@WayPointClass@@QAEPAVCampBaseClass@@XZ ; WayPointClass::GetWPTarget
	test	eax, eax
	je	SHORT $LN15@FindAltern

; 4704 : 				target = w->GetWPTarget();

	mov	ecx, DWORD PTR _w$[ebp]
	call	?GetWPTarget@WayPointClass@@QAEPAVCampBaseClass@@XZ ; WayPointClass::GetWPTarget
	mov	DWORD PTR _target$[ebp], eax
$LN15@FindAltern:

; 4705 : 			target_wp = w;

	mov	ecx, DWORD PTR _w$[ebp]
	mov	DWORD PTR _target_wp$[ebp], ecx
$LN16@FindAltern:

; 4706 : 		}
; 4707 : 		if (w->GetWPAction() == WP_TAKEOFF)

	mov	ecx, DWORD PTR _w$[ebp]
	call	?GetWPAction@WayPointClass@@QAEHXZ	; WayPointClass::GetWPAction
	cmp	eax, 1
	jne	SHORT $LN14@FindAltern

; 4708 : 			homebase = w->GetWPTarget();

	mov	ecx, DWORD PTR _w$[ebp]
	call	?GetWPTarget@WayPointClass@@QAEPAVCampBaseClass@@XZ ; WayPointClass::GetWPTarget
	mov	DWORD PTR _homebase$[ebp], eax
$LN14@FindAltern:

; 4709 : 		w = w->GetNextWP();

	mov	ecx, DWORD PTR _w$[ebp]
	call	?GetNextWP@WayPointClass@@QAEPAV1@XZ	; WayPointClass::GetNextWP
	mov	DWORD PTR _w$[ebp], eax

; 4710 : 	}

	jmp	SHORT $LN19@FindAltern
$LN18@FindAltern:

; 4711 : 	if (pa_wp){

	cmp	DWORD PTR _pa_wp$[ebp], 0
	je	SHORT $LN13@FindAltern

; 4712 : 		pa_wp->GetWPLocation(&x,&y);

	lea	edx, DWORD PTR _y$[ebp]
	push	edx
	lea	eax, DWORD PTR _x$[ebp]
	push	eax
	mov	ecx, DWORD PTR _pa_wp$[ebp]
	call	?GetWPLocation@WayPointClass@@QBEXPAF0@Z ; WayPointClass::GetWPLocation
	jmp	SHORT $LN10@FindAltern
$LN13@FindAltern:

; 4713 : 	}
; 4714 : 	else if (target_wp){

	cmp	DWORD PTR _target_wp$[ebp], 0
	je	SHORT $LN11@FindAltern

; 4715 : 		target_wp->GetWPLocation(&x,&y);

	lea	ecx, DWORD PTR _y$[ebp]
	push	ecx
	lea	edx, DWORD PTR _x$[ebp]
	push	edx
	mov	ecx, DWORD PTR _target_wp$[ebp]
	call	?GetWPLocation@WayPointClass@@QBEXPAF0@Z ; WayPointClass::GetWPLocation

; 4716 : 	}
; 4717 : 	else{

	jmp	SHORT $LN10@FindAltern
$LN11@FindAltern:

; 4718 : 		flight->GetLocation(&x,&y);

	lea	eax, DWORD PTR _y$[ebp]
	push	eax
	lea	ecx, DWORD PTR _x$[ebp]
	push	ecx
	mov	ecx, DWORD PTR _flight$[ebp]
	call	?GetLocation@FalconEntity@@QBEXPAF0@Z	; FalconEntity::GetLocation
$LN10@FindAltern:

; 4719 : 	}
; 4720 : 
; 4721 : 	/*	if (homebaseID)
; 4722 : 	homebase = (Objective) vuDatabase->Find(homebaseID);
; 4723 : 	*/
; 4724 : 	// sfr: xy order
; 4725 : 	::vector pos;
; 4726 : 	ConvertGridToSim(x, y, &pos);

	lea	edx, DWORD PTR _pos$[ebp]
	push	edx
	movzx	eax, WORD PTR _y$[ebp]
	push	eax
	movzx	ecx, WORD PTR _x$[ebp]
	push	ecx
	call	?ConvertGridToSim@@YAXFFPAUvector@@@Z	; ConvertGridToSim
	add	esp, 12					; 0000000cH

; 4727 : #ifdef VU_GRID_TREE_Y_MAJOR
; 4728 : 	oit = new VuGridIterator(ObjProxList, pos.y, pos.x,(BIG_SCALAR)GridToSim(MAX_AIR_SEARCH*2));

	push	60					; 0000003cH
	call	??2@YAPAXI@Z				; operator new
	add	esp, 4
	mov	DWORD PTR $T4[ebp], eax
	mov	DWORD PTR __$EHRec$[ebp+8], 0
	cmp	DWORD PTR $T4[ebp], 0
	je	SHORT $LN22@FindAltern
	movsx	edx, WORD PTR ?MAX_AIR_SEARCH@@3FA	; MAX_AIR_SEARCH
	shl	edx, 1
	push	edx
	call	?GridToSim@@YAMF@Z			; GridToSim
	fstp	DWORD PTR [esp]
	push	ecx
	movss	xmm0, DWORD PTR _pos$[ebp]
	movss	DWORD PTR [esp], xmm0
	push	ecx
	movss	xmm0, DWORD PTR _pos$[ebp+4]
	movss	DWORD PTR [esp], xmm0
	mov	eax, DWORD PTR ?ObjProxList@@3PAVVuGridTree@@A ; ObjProxList
	push	eax
	mov	ecx, DWORD PTR $T4[ebp]
	call	??0VuGridIterator@@QAE@PAVVuGridTree@@MMM@Z ; VuGridIterator::VuGridIterator
	mov	DWORD PTR tv159[ebp], eax
	jmp	SHORT $LN23@FindAltern
$LN22@FindAltern:
	mov	DWORD PTR tv159[ebp], 0
$LN23@FindAltern:
	mov	ecx, DWORD PTR tv159[ebp]
	mov	DWORD PTR $T3[ebp], ecx
	mov	DWORD PTR __$EHRec$[ebp+8], -1
	mov	edx, DWORD PTR $T3[ebp]
	mov	DWORD PTR _oit$[ebp], edx

; 4729 : #else
; 4730 : 	oit = new VuGridIterator(ObjProxList, pos.x, pos.y,(BIG_SCALAR)GridToSim(MAX_AIR_SEARCH*2));
; 4731 : #endif
; 4732 : 
; 4733 : 	o = (Objective) oit->GetFirst();

	mov	ecx, DWORD PTR _oit$[ebp]
	call	?GetFirst@VuGridIterator@@QAEPAVVuEntity@@XZ ; VuGridIterator::GetFirst
	mov	DWORD PTR _o$[ebp], eax
$LN27@FindAltern:

; 4734 : 	while (o){

	cmp	DWORD PTR _o$[ebp], 0
	je	$LN8@FindAltern

; 4735 : 		if (
; 4736 : 			(o->GetType() == TYPE_AIRBASE || o->GetType() == TYPE_AIRSTRIP) && 
; 4737 : 			o->GetTeam() == flight->GetTeam() && !o->IsNearfront()
; 4738 : 		){

	mov	ecx, DWORD PTR _o$[ebp]
	call	?GetType@CampBaseClass@@QBEEXZ		; CampBaseClass::GetType
	movzx	eax, al
	cmp	eax, 1
	je	SHORT $LN6@FindAltern
	mov	ecx, DWORD PTR _o$[ebp]
	call	?GetType@CampBaseClass@@QBEEXZ		; CampBaseClass::GetType
	movzx	ecx, al
	cmp	ecx, 2
	jne	$LN1@FindAltern
$LN6@FindAltern:
	mov	edx, DWORD PTR _o$[ebp]
	mov	eax, DWORD PTR [edx]
	mov	ecx, DWORD PTR _o$[ebp]
	mov	edx, DWORD PTR [eax+116]
	call	edx
	movzx	esi, al
	mov	eax, DWORD PTR _flight$[ebp]
	mov	edx, DWORD PTR [eax]
	mov	ecx, DWORD PTR _flight$[ebp]
	mov	eax, DWORD PTR [edx+116]
	call	eax
	movzx	ecx, al
	cmp	esi, ecx
	jne	$LN1@FindAltern
	mov	ecx, DWORD PTR _o$[ebp]
	call	?IsNearfront@ObjectiveClass@@QAEHXZ	; ObjectiveClass::IsNearfront
	test	eax, eax
	jne	$LN1@FindAltern

; 4739 : 			// 2002-04-17 MN modified - 
; 4740 : 			// be the alternate airstrip neither a target 
; 4741 : 			// airbase nor the home airbase (airlift have airbases as target)
; 4742 : 			if (
; 4743 : 				target && 
; 4744 : 				(target->GetType() == TYPE_AIRBASE || target->GetType() == TYPE_AIRSTRIP) && 
; 4745 : 				o->GetCampID() == target->GetCampID() || 
; 4746 : 				homebase && o->GetCampID() == homebase->GetCampID()
; 4747 : 			){

	cmp	DWORD PTR _target$[ebp], 0
	je	SHORT $LN3@FindAltern
	mov	ecx, DWORD PTR _target$[ebp]
	call	?GetType@CampBaseClass@@QBEEXZ		; CampBaseClass::GetType
	movzx	edx, al
	cmp	edx, 1
	je	SHORT $LN2@FindAltern
	mov	ecx, DWORD PTR _target$[ebp]
	call	?GetType@CampBaseClass@@QBEEXZ		; CampBaseClass::GetType
	movzx	eax, al
	cmp	eax, 2
	jne	SHORT $LN3@FindAltern
$LN2@FindAltern:
	mov	ecx, DWORD PTR _o$[ebp]
	mov	edx, DWORD PTR [ecx]
	mov	ecx, DWORD PTR _o$[ebp]
	mov	eax, DWORD PTR [edx+112]
	call	eax
	movsx	esi, ax
	mov	ecx, DWORD PTR _target$[ebp]
	mov	edx, DWORD PTR [ecx]
	mov	ecx, DWORD PTR _target$[ebp]
	mov	eax, DWORD PTR [edx+112]
	call	eax
	movsx	ecx, ax
	cmp	esi, ecx
	je	SHORT $LN4@FindAltern
$LN3@FindAltern:
	cmp	DWORD PTR _homebase$[ebp], 0
	je	SHORT $LN5@FindAltern
	mov	edx, DWORD PTR _o$[ebp]
	mov	eax, DWORD PTR [edx]
	mov	ecx, DWORD PTR _o$[ebp]
	mov	edx, DWORD PTR [eax+112]
	call	edx
	movsx	esi, ax
	mov	eax, DWORD PTR _homebase$[ebp]
	mov	edx, DWORD PTR [eax]
	mov	ecx, DWORD PTR _homebase$[ebp]
	mov	eax, DWORD PTR [edx+112]
	call	eax
	movsx	ecx, ax
	cmp	esi, ecx
	jne	SHORT $LN5@FindAltern
$LN4@FindAltern:

; 4748 : 				o = (Objective) oit->GetNext();

	mov	ecx, DWORD PTR _oit$[ebp]
	call	?GetNext@VuGridIterator@@QAEPAVVuEntity@@XZ ; VuGridIterator::GetNext
	mov	DWORD PTR _o$[ebp], eax

; 4749 : 				continue;

	jmp	$LN27@FindAltern
$LN5@FindAltern:

; 4750 : 			}
; 4751 : 
; 4752 : 			o->GetLocation(&ox, &oy);

	lea	edx, DWORD PTR _oy$[ebp]
	push	edx
	lea	eax, DWORD PTR _ox$[ebp]
	push	eax
	mov	ecx, DWORD PTR _o$[ebp]
	call	?GetLocation@FalconEntity@@QBEXPAF0@Z	; FalconEntity::GetLocation

; 4753 : 			d = Distance(x, y, ox, oy);

	movzx	ecx, WORD PTR _oy$[ebp]
	push	ecx
	movzx	edx, WORD PTR _ox$[ebp]
	push	edx
	movzx	eax, WORD PTR _y$[ebp]
	push	eax
	movzx	ecx, WORD PTR _x$[ebp]
	push	ecx
	call	?Distance@@YAMFFFF@Z			; Distance
	add	esp, 16					; 00000010H
	fstp	DWORD PTR _d$[ebp]

; 4754 : 			if (d < bd){

	movss	xmm0, DWORD PTR _bd$[ebp]
	comiss	xmm0, DWORD PTR _d$[ebp]
	jbe	SHORT $LN1@FindAltern

; 4755 : 				bd = d;

	movss	xmm0, DWORD PTR _d$[ebp]
	movss	DWORD PTR _bd$[ebp], xmm0

; 4756 : 				bo = o;

	mov	edx, DWORD PTR _o$[ebp]
	mov	DWORD PTR _bo$[ebp], edx
$LN1@FindAltern:

; 4757 : 			}
; 4758 : 		}
; 4759 : 		o = (Objective) oit->GetNext();

	mov	ecx, DWORD PTR _oit$[ebp]
	call	?GetNext@VuGridIterator@@QAEPAVVuEntity@@XZ ; VuGridIterator::GetNext
	mov	DWORD PTR _o$[ebp], eax

; 4760 : 	}

	jmp	$LN27@FindAltern
$LN8@FindAltern:

; 4761 : 	delete oit;

	mov	eax, DWORD PTR _oit$[ebp]
	mov	DWORD PTR $T2[ebp], eax
	mov	ecx, DWORD PTR $T2[ebp]
	mov	DWORD PTR $T5[ebp], ecx
	cmp	DWORD PTR $T5[ebp], 0
	je	SHORT $LN24@FindAltern
	push	1
	mov	edx, DWORD PTR $T5[ebp]
	mov	eax, DWORD PTR [edx]
	mov	ecx, DWORD PTR $T5[ebp]
	mov	edx, DWORD PTR [eax+8]
	call	edx
	mov	DWORD PTR tv287[ebp], eax
	jmp	SHORT $LN25@FindAltern
$LN24@FindAltern:
	mov	DWORD PTR tv287[ebp], 0
$LN25@FindAltern:

; 4762 : 	return bo;

	mov	eax, DWORD PTR _bo$[ebp]

; 4763 : }

	mov	ecx, DWORD PTR __$EHRec$[ebp]
	mov	DWORD PTR fs:0, ecx
	pop	ecx
	pop	esi
	mov	ecx, DWORD PTR __$ArrayPad$[ebp]
	xor	ecx, ebp
	call	@__security_check_cookie@4
	mov	esp, ebp
	pop	ebp
	ret	0
_TEXT	ENDS
text$x	SEGMENT
__unwindfunclet$?FindAlternateStrip@@YAPAVObjectiveClass@@PAVFlightClass@@@Z$0:
	mov	eax, DWORD PTR $T4[ebp]
	push	eax
	call	??3@YAXPAX@Z				; operator delete
	pop	ecx
	ret	0
__ehhandler$?FindAlternateStrip@@YAPAVObjectiveClass@@PAVFlightClass@@@Z:
	mov	edx, DWORD PTR [esp+8]
	lea	eax, DWORD PTR [edx+12]
	mov	ecx, DWORD PTR [edx-104]
	xor	ecx, eax
	call	@__security_check_cookie@4
	mov	ecx, DWORD PTR [edx-4]
	xor	ecx, eax
	call	@__security_check_cookie@4
	mov	eax, OFFSET __ehfuncinfo$?FindAlternateStrip@@YAPAVObjectiveClass@@PAVFlightClass@@@Z
	jmp	___CxxFrameHandler3
text$x	ENDS
?FindAlternateStrip@@YAPAVObjectiveClass@@PAVFlightClass@@@Z ENDP ; FindAlternateStrip
; Function compile flags: /Odtp
; File c:\users\zhitao li\documents\visual studio 2012\projects\freefalcon\campaign\camptask\flight.cpp
_TEXT	SEGMENT
$T2 = -64						; size = 8
$T3 = -56						; size = 8
$T4 = -48						; size = 4
tv153 = -44						; size = 4
$T5 = -40						; size = 4
tv142 = -36						; size = 4
_e$ = -32						; size = 4
_pack$ = -28						; size = 4
_msg$ = -24						; size = 4
_x$ = -20						; size = 2
_y$ = -16						; size = 2
__$EHRec$ = -12						; size = 12
_flight$ = 8						; size = 4
?AbortFlight@@YAXPAVFlightClass@@@Z PROC		; AbortFlight

; 4636 : {

	push	ebp
	mov	ebp, esp
	push	-1
	push	__ehhandler$?AbortFlight@@YAXPAVFlightClass@@@Z
	mov	eax, DWORD PTR fs:0
	push	eax
	sub	esp, 52					; 00000034H
	mov	eax, DWORD PTR ___security_cookie
	xor	eax, ebp
	push	eax
	lea	eax, DWORD PTR __$EHRec$[ebp]
	mov	DWORD PTR fs:0, eax

; 4637 : 	Unit pack, e;
; 4638 : 	GridIndex x = 0, y = 0;

	xor	eax, eax
	mov	WORD PTR _x$[ebp], ax
	xor	ecx, ecx
	mov	WORD PTR _y$[ebp], cx

; 4639 : 
; 4640 : 	// MonoPrint ("Flight %d aborting. \n",flight->GetCampID());
; 4641 : 
; 4642 : 	flight->GetLocation(&x,&y);

	lea	edx, DWORD PTR _y$[ebp]
	push	edx
	lea	eax, DWORD PTR _x$[ebp]
	push	eax
	mov	ecx, DWORD PTR _flight$[ebp]
	call	?GetLocation@FalconEntity@@QBEXPAF0@Z	; FalconEntity::GetLocation

; 4643 : 
; 4644 : 	// Drop any cargo we're carrying
; 4645 : 	// RV - Biker - Only drop if we are not over water
; 4646 : 	if (flight->Cargo() && GetCover(x, y) != Water){

	mov	ecx, DWORD PTR _flight$[ebp]
	call	?Cargo@UnitClass@@QBEHXZ		; UnitClass::Cargo
	test	eax, eax
	je	SHORT $LN6@AbortFligh
	movzx	ecx, WORD PTR _y$[ebp]
	push	ecx
	movzx	edx, WORD PTR _x$[ebp]
	push	edx
	call	?GetCover@@YA?AW4CoverType@@FF@Z	; GetCover
	add	esp, 8
	test	eax, eax
	je	SHORT $LN6@AbortFligh

; 4647 : 		flight->UnloadUnit();			

	mov	ecx, DWORD PTR _flight$[ebp]
	call	?UnloadUnit@UnitClass@@QAEXXZ		; UnitClass::UnloadUnit
$LN6@AbortFligh:

; 4648 : 	}
; 4649 : 
; 4650 : 	/*
; 4651 : 	// If we've already gotten to our target, and it's past our TOT, don't abort
; 4652 : 	if (((Flight)flight)->eval_flags & FEVAL_GOT_TO_TARGET && flight->GetUnitTOT() < TheCampaign.CurrentTime)
; 4653 : 	return;
; 4654 : 	*/
; 4655 : 
; 4656 : 	// Radio Chatter message
; 4657 : 	FalconRadioChatterMessage *msg = new FalconRadioChatterMessage(flight->Id(), FalconLocalGame);

	push	84					; 00000054H
	call	??2@YAPAXI@Z				; operator new
	add	esp, 4
	mov	DWORD PTR $T5[ebp], eax
	mov	DWORD PTR __$EHRec$[ebp+8], 0
	cmp	DWORD PTR $T5[ebp], 0
	je	SHORT $LN11@AbortFligh
	mov	ecx, OFFSET ?vuLocalSessionEntity@@3V?$VuBin@VVuSessionEntity@@@@A ; vuLocalSessionEntity
	call	??B?$VuBin@VVuSessionEntity@@@@QBE_NXZ	; VuBin<VuSessionEntity>::operator bool
	movzx	eax, al
	test	eax, eax
	je	SHORT $LN9@AbortFligh
	mov	ecx, OFFSET ?vuLocalSessionEntity@@3V?$VuBin@VVuSessionEntity@@@@A ; vuLocalSessionEntity
	call	?get@?$VuBin@VVuSessionEntity@@@@QBEPAVVuSessionEntity@@XZ ; VuBin<VuSessionEntity>::get
	mov	ecx, eax
	call	?GetGame@FalconSessionEntity@@QAEPAVFalconGameEntity@@XZ ; FalconSessionEntity::GetGame
	mov	DWORD PTR tv142[ebp], eax
	jmp	SHORT $LN10@AbortFligh
$LN9@AbortFligh:
	mov	DWORD PTR tv142[ebp], 0
$LN10@AbortFligh:
	push	1
	mov	ecx, DWORD PTR tv142[ebp]
	push	ecx
	lea	edx, DWORD PTR $T3[ebp]
	push	edx
	mov	ecx, DWORD PTR _flight$[ebp]
	call	?Id@VuEntity@@QBE?AVVU_ID@@XZ		; VuEntity::Id
	mov	ecx, DWORD PTR [eax+4]
	push	ecx
	mov	edx, DWORD PTR [eax]
	push	edx
	mov	ecx, DWORD PTR $T5[ebp]
	call	??0FalconRadioChatterMessage@@QAE@VVU_ID@@PAVVuTargetEntity@@E@Z ; FalconRadioChatterMessage::FalconRadioChatterMessage
	mov	DWORD PTR tv153[ebp], eax
	jmp	SHORT $LN12@AbortFligh
$LN11@AbortFligh:
	mov	DWORD PTR tv153[ebp], 0
$LN12@AbortFligh:
	mov	eax, DWORD PTR tv153[ebp]
	mov	DWORD PTR $T4[ebp], eax
	mov	DWORD PTR __$EHRec$[ebp+8], -1
	mov	ecx, DWORD PTR $T4[ebp]
	mov	DWORD PTR _msg$[ebp], ecx

; 4658 : 	msg->dataBlock.from = flight->Id();

	lea	edx, DWORD PTR $T2[ebp]
	push	edx
	mov	ecx, DWORD PTR _flight$[ebp]
	call	?Id@VuEntity@@QBE?AVVU_ID@@XZ		; VuEntity::Id
	mov	ecx, DWORD PTR [eax]
	mov	edx, DWORD PTR [eax+4]
	mov	eax, DWORD PTR _msg$[ebp]
	mov	DWORD PTR [eax+48], ecx
	mov	DWORD PTR [eax+52], edx

; 4659 : 	msg->dataBlock.to = MESSAGE_FOR_TEAM;

	mov	ecx, DWORD PTR _msg$[ebp]
	mov	BYTE PTR [ecx+60], 1

; 4660 : 	msg->dataBlock.voice_id = flight->GetFlightLeadVoiceID();

	mov	ecx, DWORD PTR _flight$[ebp]
	call	?GetFlightLeadVoiceID@FlightClass@@QAEEXZ ; FlightClass::GetFlightLeadVoiceID
	mov	edx, DWORD PTR _msg$[ebp]
	mov	BYTE PTR [edx+61], al

; 4661 : 	msg->dataBlock.message = rcFLIGHTRTB;

	mov	eax, 76					; 0000004cH
	mov	ecx, DWORD PTR _msg$[ebp]
	mov	WORD PTR [ecx+62], ax

; 4662 : 	msg->dataBlock.edata[0] = flight->callsign_id;

	mov	edx, DWORD PTR _flight$[ebp]
	movzx	ax, BYTE PTR [edx+425]
	mov	ecx, 2
	imul	ecx, 0
	mov	edx, DWORD PTR _msg$[ebp]
	mov	WORD PTR [edx+ecx+64], ax

; 4663 : 	msg->dataBlock.edata[1] = flight->GetFlightLeadCallNumber();

	mov	ecx, DWORD PTR _flight$[ebp]
	call	?GetFlightLeadCallNumber@FlightClass@@QAEHXZ ; FlightClass::GetFlightLeadCallNumber
	mov	ecx, 2
	shl	ecx, 0
	mov	edx, DWORD PTR _msg$[ebp]
	mov	WORD PTR [edx+ecx+64], ax

; 4664 : 	FalconSendMessage(msg, FALSE);

	push	0
	mov	eax, DWORD PTR _msg$[ebp]
	push	eax
	call	?FalconSendMessage@@YAXPAVVuMessage@@H@Z ; FalconSendMessage
	add	esp, 8

; 4665 : 
; 4666 : 	if (!flight->Aborted())

	mov	ecx, DWORD PTR _flight$[ebp]
	call	?Aborted@UnitClass@@QBEHXZ		; UnitClass::Aborted
	test	eax, eax
	jne	SHORT $LN5@AbortFligh

; 4667 : 		TheCampaign.MissionEvaluator->RegisterAbort(flight);

	mov	ecx, DWORD PTR _flight$[ebp]
	push	ecx
	mov	ecx, DWORD PTR ?TheCampaign@@3VCampaignClass@@A+324
	call	?RegisterAbort@MissionEvaluationClass@@QAEXPAVFlightClass@@@Z ; MissionEvaluationClass::RegisterAbort
$LN5@AbortFligh:

; 4668 : 
; 4669 : 	flight->SetAborted(1);

	push	1
	mov	ecx, DWORD PTR _flight$[ebp]
	call	?SetAborted@UnitClass@@QAEXH@Z		; UnitClass::SetAborted

; 4670 : 	// If it's a critical component, abort the rest of the Mission Group
; 4671 : 	if (!flight->GetUnitMissionID())

	mov	edx, DWORD PTR _flight$[ebp]
	mov	eax, DWORD PTR [edx]
	mov	ecx, DWORD PTR _flight$[ebp]
	mov	edx, DWORD PTR [eax+688]
	call	edx
	test	eax, eax
	jne	SHORT $LN7@AbortFligh

; 4672 : 	{
; 4673 : 		pack = flight->GetUnitParent();

	mov	eax, DWORD PTR _flight$[ebp]
	mov	edx, DWORD PTR [eax]
	mov	ecx, DWORD PTR _flight$[ebp]
	mov	eax, DWORD PTR [edx+1008]
	call	eax
	mov	DWORD PTR _pack$[ebp], eax

; 4674 : 		if (pack)

	cmp	DWORD PTR _pack$[ebp], 0
	je	SHORT $LN7@AbortFligh

; 4675 : 		{
; 4676 : 			pack->SetAborted(1);

	push	1
	mov	ecx, DWORD PTR _pack$[ebp]
	call	?SetAborted@UnitClass@@QAEXH@Z		; UnitClass::SetAborted

; 4677 : 			e = pack->GetFirstUnitElement();

	mov	ecx, DWORD PTR _pack$[ebp]
	mov	edx, DWORD PTR [ecx]
	mov	ecx, DWORD PTR _pack$[ebp]
	mov	eax, DWORD PTR [edx+956]
	call	eax
	mov	DWORD PTR _e$[ebp], eax
$LN2@AbortFligh:

; 4678 : 			while (e && e->GetUnitMissionID())

	cmp	DWORD PTR _e$[ebp], 0
	je	SHORT $LN7@AbortFligh
	mov	ecx, DWORD PTR _e$[ebp]
	mov	edx, DWORD PTR [ecx]
	mov	ecx, DWORD PTR _e$[ebp]
	mov	eax, DWORD PTR [edx+688]
	call	eax
	test	eax, eax
	je	SHORT $LN7@AbortFligh

; 4679 : 			{
; 4680 : 				AbortFlight((Flight)e);

	mov	ecx, DWORD PTR _e$[ebp]
	push	ecx
	call	?AbortFlight@@YAXPAVFlightClass@@@Z	; AbortFlight
	add	esp, 4

; 4681 : 				e = pack->GetNextUnitElement();

	mov	edx, DWORD PTR _pack$[ebp]
	mov	eax, DWORD PTR [edx]
	mov	ecx, DWORD PTR _pack$[ebp]
	mov	edx, DWORD PTR [eax+960]
	call	edx
	mov	DWORD PTR _e$[ebp], eax

; 4682 : 			}

	jmp	SHORT $LN2@AbortFligh
