; Listing generated by Microsoft (R) Optimizing Compiler Version 17.00.51106.1 

	TITLE	C:\Users\Zhitao Li\Documents\Visual Studio 2012\Projects\Freefalcon\CAMPAIGN\CAMPTASK\Gtm.cpp
	.686P
	.XMM
	include listing.inc
	.model	flat

INCLUDELIB LIBCMT
INCLUDELIB OLDNAMES

PUBLIC	?traps@_Num_base@std@@2_NB			; std::_Num_base::traps
PUBLIC	?round_style@_Num_base@std@@2W4float_round_style@2@B ; std::_Num_base::round_style
PUBLIC	?digits@_Num_base@std@@2HB			; std::_Num_base::digits
PUBLIC	?digits10@_Num_base@std@@2HB			; std::_Num_base::digits10
PUBLIC	?max_digits10@_Num_base@std@@2HB		; std::_Num_base::max_digits10
PUBLIC	?max_exponent@_Num_base@std@@2HB		; std::_Num_base::max_exponent
PUBLIC	?max_exponent10@_Num_base@std@@2HB		; std::_Num_base::max_exponent10
PUBLIC	?min_exponent@_Num_base@std@@2HB		; std::_Num_base::min_exponent
PUBLIC	?min_exponent10@_Num_base@std@@2HB		; std::_Num_base::min_exponent10
PUBLIC	?radix@_Num_base@std@@2HB			; std::_Num_base::radix
PUBLIC	?is_bounded@_Num_int_base@std@@2_NB		; std::_Num_int_base::is_bounded
PUBLIC	?is_exact@_Num_int_base@std@@2_NB		; std::_Num_int_base::is_exact
PUBLIC	?is_integer@_Num_int_base@std@@2_NB		; std::_Num_int_base::is_integer
PUBLIC	?is_modulo@_Num_int_base@std@@2_NB		; std::_Num_int_base::is_modulo
PUBLIC	?is_specialized@_Num_int_base@std@@2_NB		; std::_Num_int_base::is_specialized
PUBLIC	?radix@_Num_int_base@std@@2HB			; std::_Num_int_base::radix
PUBLIC	?has_denorm@_Num_float_base@std@@2W4float_denorm_style@2@B ; std::_Num_float_base::has_denorm
PUBLIC	?has_denorm_loss@_Num_float_base@std@@2_NB	; std::_Num_float_base::has_denorm_loss
PUBLIC	?SIMDIRTYDATA_INTERVAL@FalconEntity@@2KB	; FalconEntity::SIMDIRTYDATA_INTERVAL
PUBLIC	?CMPDIRTYDATA_INTERVAL@FalconEntity@@2KB	; FalconEntity::CMPDIRTYDATA_INTERVAL
PUBLIC	?has_infinity@_Num_float_base@std@@2_NB		; std::_Num_float_base::has_infinity
PUBLIC	?has_quiet_NaN@_Num_float_base@std@@2_NB	; std::_Num_float_base::has_quiet_NaN
PUBLIC	?has_signaling_NaN@_Num_float_base@std@@2_NB	; std::_Num_float_base::has_signaling_NaN
PUBLIC	?is_bounded@_Num_float_base@std@@2_NB		; std::_Num_float_base::is_bounded
PUBLIC	?is_exact@_Num_float_base@std@@2_NB		; std::_Num_float_base::is_exact
PUBLIC	?is_iec559@_Num_float_base@std@@2_NB		; std::_Num_float_base::is_iec559
PUBLIC	?is_integer@_Num_float_base@std@@2_NB		; std::_Num_float_base::is_integer
PUBLIC	?is_modulo@_Num_float_base@std@@2_NB		; std::_Num_float_base::is_modulo
PUBLIC	?is_signed@_Num_float_base@std@@2_NB		; std::_Num_float_base::is_signed
PUBLIC	?is_specialized@_Num_float_base@std@@2_NB	; std::_Num_float_base::is_specialized
PUBLIC	?tinyness_before@_Num_float_base@std@@2_NB	; std::_Num_float_base::tinyness_before
PUBLIC	?traps@_Num_float_base@std@@2_NB		; std::_Num_float_base::traps
PUBLIC	?round_style@_Num_float_base@std@@2W4float_round_style@2@B ; std::_Num_float_base::round_style
PUBLIC	?radix@_Num_float_base@std@@2HB			; std::_Num_float_base::radix
PUBLIC	?is_signed@?$numeric_limits@D@std@@2_NB		; std::numeric_limits<char>::is_signed
PUBLIC	?digits@?$numeric_limits@D@std@@2HB		; std::numeric_limits<char>::digits
PUBLIC	?digits10@?$numeric_limits@D@std@@2HB		; std::numeric_limits<char>::digits10
PUBLIC	?is_signed@?$numeric_limits@_W@std@@2_NB	; std::numeric_limits<wchar_t>::is_signed
PUBLIC	?digits@?$numeric_limits@_W@std@@2HB		; std::numeric_limits<wchar_t>::digits
PUBLIC	?digits10@?$numeric_limits@_W@std@@2HB		; std::numeric_limits<wchar_t>::digits10
PUBLIC	?is_modulo@?$numeric_limits@_N@std@@2_NB	; std::numeric_limits<bool>::is_modulo
PUBLIC	?is_signed@?$numeric_limits@_N@std@@2_NB	; std::numeric_limits<bool>::is_signed
PUBLIC	?digits@?$numeric_limits@_N@std@@2HB		; std::numeric_limits<bool>::digits
PUBLIC	?digits10@?$numeric_limits@_N@std@@2HB		; std::numeric_limits<bool>::digits10
PUBLIC	?is_signed@?$numeric_limits@C@std@@2_NB		; std::numeric_limits<signed char>::is_signed
PUBLIC	?digits@?$numeric_limits@C@std@@2HB		; std::numeric_limits<signed char>::digits
PUBLIC	?digits10@?$numeric_limits@C@std@@2HB		; std::numeric_limits<signed char>::digits10
PUBLIC	?is_signed@?$numeric_limits@E@std@@2_NB		; std::numeric_limits<unsigned char>::is_signed
PUBLIC	?value@?$integral_constant@_N$0A@@std@@2_NB	; std::integral_constant<bool,0>::value
PUBLIC	?digits@?$numeric_limits@E@std@@2HB		; std::numeric_limits<unsigned char>::digits
PUBLIC	?digits10@?$numeric_limits@E@std@@2HB		; std::numeric_limits<unsigned char>::digits10
PUBLIC	?DM@@3MA					; DM
PUBLIC	?IM@@3MA					; IM
PUBLIC	?Assigned@@3HA					; Assigned
PUBLIC	?AssignmentDistance@@3HA			; AssignmentDistance
PUBLIC	?sOffensiveAssigned@@3HA			; sOffensiveAssigned
PUBLIC	?sOffensiveDesired@@3HA				; sOffensiveDesired
PUBLIC	?value@?$integral_constant@_N$00@std@@2_NB	; std::integral_constant<bool,1>::value
PUBLIC	?is_signed@?$numeric_limits@F@std@@2_NB		; std::numeric_limits<short>::is_signed
PUBLIC	?digits@?$numeric_limits@F@std@@2HB		; std::numeric_limits<short>::digits
PUBLIC	?digits10@?$numeric_limits@F@std@@2HB		; std::numeric_limits<short>::digits10
PUBLIC	?is_signed@?$numeric_limits@G@std@@2_NB		; std::numeric_limits<unsigned short>::is_signed
PUBLIC	?digits@?$numeric_limits@G@std@@2HB		; std::numeric_limits<unsigned short>::digits
PUBLIC	?digits10@?$numeric_limits@G@std@@2HB		; std::numeric_limits<unsigned short>::digits10
PUBLIC	?is_signed@?$numeric_limits@H@std@@2_NB		; std::numeric_limits<int>::is_signed
PUBLIC	?value@?$_Sizeof@HU_Nil@std@@U12@U12@U12@U12@U12@U12@@std@@2IB ; std::_Sizeof<int,std::_Nil,std::_Nil,std::_Nil,std::_Nil,std::_Nil,std::_Nil,std::_Nil>::value
PUBLIC	?digits@?$numeric_limits@H@std@@2HB		; std::numeric_limits<int>::digits
PUBLIC	?digits10@?$numeric_limits@H@std@@2HB		; std::numeric_limits<int>::digits10
PUBLIC	?is_signed@?$numeric_limits@I@std@@2_NB		; std::numeric_limits<unsigned int>::is_signed
PUBLIC	?digits@?$numeric_limits@I@std@@2HB		; std::numeric_limits<unsigned int>::digits
PUBLIC	?digits10@?$numeric_limits@I@std@@2HB		; std::numeric_limits<unsigned int>::digits10
PUBLIC	?is_signed@?$numeric_limits@J@std@@2_NB		; std::numeric_limits<long>::is_signed
PUBLIC	?digits@?$numeric_limits@J@std@@2HB		; std::numeric_limits<long>::digits
PUBLIC	?digits10@?$numeric_limits@J@std@@2HB		; std::numeric_limits<long>::digits10
PUBLIC	?is_signed@?$numeric_limits@K@std@@2_NB		; std::numeric_limits<unsigned long>::is_signed
PUBLIC	?digits@?$numeric_limits@K@std@@2HB		; std::numeric_limits<unsigned long>::digits
PUBLIC	?digits10@?$numeric_limits@K@std@@2HB		; std::numeric_limits<unsigned long>::digits10
PUBLIC	?is_signed@?$numeric_limits@_J@std@@2_NB	; std::numeric_limits<__int64>::is_signed
PUBLIC	?digits@?$numeric_limits@_J@std@@2HB		; std::numeric_limits<__int64>::digits
PUBLIC	?digits10@?$numeric_limits@_J@std@@2HB		; std::numeric_limits<__int64>::digits10
PUBLIC	?is_signed@?$numeric_limits@_K@std@@2_NB	; std::numeric_limits<unsigned __int64>::is_signed
PUBLIC	?digits@?$numeric_limits@_K@std@@2HB		; std::numeric_limits<unsigned __int64>::digits
PUBLIC	?digits10@?$numeric_limits@_K@std@@2HB		; std::numeric_limits<unsigned __int64>::digits10
PUBLIC	?digits@?$numeric_limits@M@std@@2HB		; std::numeric_limits<float>::digits
PUBLIC	?digits10@?$numeric_limits@M@std@@2HB		; std::numeric_limits<float>::digits10
PUBLIC	?max_digits10@?$numeric_limits@M@std@@2HB	; std::numeric_limits<float>::max_digits10
PUBLIC	?max_exponent@?$numeric_limits@M@std@@2HB	; std::numeric_limits<float>::max_exponent
PUBLIC	?max_exponent10@?$numeric_limits@M@std@@2HB	; std::numeric_limits<float>::max_exponent10
PUBLIC	?min_exponent@?$numeric_limits@M@std@@2HB	; std::numeric_limits<float>::min_exponent
PUBLIC	?min_exponent10@?$numeric_limits@M@std@@2HB	; std::numeric_limits<float>::min_exponent10
PUBLIC	?value@?$integral_constant@I$0A@@std@@2IB	; std::integral_constant<unsigned int,0>::value
PUBLIC	?digits@?$numeric_limits@N@std@@2HB		; std::numeric_limits<double>::digits
PUBLIC	?digits10@?$numeric_limits@N@std@@2HB		; std::numeric_limits<double>::digits10
PUBLIC	?max_digits10@?$numeric_limits@N@std@@2HB	; std::numeric_limits<double>::max_digits10
PUBLIC	?max_exponent@?$numeric_limits@N@std@@2HB	; std::numeric_limits<double>::max_exponent
PUBLIC	?max_exponent10@?$numeric_limits@N@std@@2HB	; std::numeric_limits<double>::max_exponent10
PUBLIC	?min_exponent@?$numeric_limits@N@std@@2HB	; std::numeric_limits<double>::min_exponent
PUBLIC	?min_exponent10@?$numeric_limits@N@std@@2HB	; std::numeric_limits<double>::min_exponent10
PUBLIC	?digits@?$numeric_limits@O@std@@2HB		; std::numeric_limits<long double>::digits
PUBLIC	?checks@@3HA					; checks
PUBLIC	?digits10@?$numeric_limits@O@std@@2HB		; std::numeric_limits<long double>::digits10
PUBLIC	?runs@@3HA					; runs
PUBLIC	?max_digits10@?$numeric_limits@O@std@@2HB	; std::numeric_limits<long double>::max_digits10
PUBLIC	?max_exponent@?$numeric_limits@O@std@@2HB	; std::numeric_limits<long double>::max_exponent
PUBLIC	?max_exponent10@?$numeric_limits@O@std@@2HB	; std::numeric_limits<long double>::max_exponent10
PUBLIC	?min_exponent@?$numeric_limits@O@std@@2HB	; std::numeric_limits<long double>::min_exponent
PUBLIC	?min_exponent10@?$numeric_limits@O@std@@2HB	; std::numeric_limits<long double>::min_exponent10
PUBLIC	?value@?$_Sizeof@U_Nil@std@@U12@U12@U12@U12@U12@U12@U12@@std@@2IB ; std::_Sizeof<std::_Nil,std::_Nil,std::_Nil,std::_Nil,std::_Nil,std::_Nil,std::_Nil,std::_Nil>::value
PUBLIC	?has_denorm@_Num_base@std@@2W4float_denorm_style@2@B ; std::_Num_base::has_denorm
PUBLIC	?has_denorm_loss@_Num_base@std@@2_NB		; std::_Num_base::has_denorm_loss
PUBLIC	?has_infinity@_Num_base@std@@2_NB		; std::_Num_base::has_infinity
PUBLIC	?has_quiet_NaN@_Num_base@std@@2_NB		; std::_Num_base::has_quiet_NaN
PUBLIC	?has_signaling_NaN@_Num_base@std@@2_NB		; std::_Num_base::has_signaling_NaN
PUBLIC	?is_bounded@_Num_base@std@@2_NB			; std::_Num_base::is_bounded
PUBLIC	?is_exact@_Num_base@std@@2_NB			; std::_Num_base::is_exact
PUBLIC	?is_iec559@_Num_base@std@@2_NB			; std::_Num_base::is_iec559
PUBLIC	?is_integer@_Num_base@std@@2_NB			; std::_Num_base::is_integer
PUBLIC	?is_modulo@_Num_base@std@@2_NB			; std::_Num_base::is_modulo
PUBLIC	?is_signed@_Num_base@std@@2_NB			; std::_Num_base::is_signed
PUBLIC	?is_specialized@_Num_base@std@@2_NB		; std::_Num_base::is_specialized
PUBLIC	?tinyness_before@_Num_base@std@@2_NB		; std::_Num_base::tinyness_before
_BSS	SEGMENT
?DM@@3MA DD	01H DUP (?)				; DM
?IM@@3MA DD	01H DUP (?)				; IM
?Assigned@@3HA DD 01H DUP (?)				; Assigned
?AssignmentDistance@@3HA DD 01H DUP (?)			; AssignmentDistance
?sOffensiveAssigned@@3HA DD 01H DUP (?)			; sOffensiveAssigned
?sOffensiveDesired@@3HA DD 01H DUP (?)			; sOffensiveDesired
?checks@@3HA DD	01H DUP (?)				; checks
?runs@@3HA DD	01H DUP (?)				; runs
_BSS	ENDS
;	COMDAT ?tinyness_before@_Num_base@std@@2_NB
CONST	SEGMENT
?tinyness_before@_Num_base@std@@2_NB DB 00H		; std::_Num_base::tinyness_before
CONST	ENDS
;	COMDAT ?is_specialized@_Num_base@std@@2_NB
CONST	SEGMENT
?is_specialized@_Num_base@std@@2_NB DB 00H		; std::_Num_base::is_specialized
CONST	ENDS
;	COMDAT ?is_signed@_Num_base@std@@2_NB
CONST	SEGMENT
?is_signed@_Num_base@std@@2_NB DB 00H			; std::_Num_base::is_signed
CONST	ENDS
;	COMDAT ?is_modulo@_Num_base@std@@2_NB
CONST	SEGMENT
?is_modulo@_Num_base@std@@2_NB DB 00H			; std::_Num_base::is_modulo
CONST	ENDS
;	COMDAT ?is_integer@_Num_base@std@@2_NB
CONST	SEGMENT
?is_integer@_Num_base@std@@2_NB DB 00H			; std::_Num_base::is_integer
CONST	ENDS
;	COMDAT ?is_iec559@_Num_base@std@@2_NB
CONST	SEGMENT
?is_iec559@_Num_base@std@@2_NB DB 00H			; std::_Num_base::is_iec559
CONST	ENDS
;	COMDAT ?is_exact@_Num_base@std@@2_NB
CONST	SEGMENT
?is_exact@_Num_base@std@@2_NB DB 00H			; std::_Num_base::is_exact
CONST	ENDS
;	COMDAT ?is_bounded@_Num_base@std@@2_NB
CONST	SEGMENT
?is_bounded@_Num_base@std@@2_NB DB 00H			; std::_Num_base::is_bounded
CONST	ENDS
;	COMDAT ?has_signaling_NaN@_Num_base@std@@2_NB
CONST	SEGMENT
?has_signaling_NaN@_Num_base@std@@2_NB DB 00H		; std::_Num_base::has_signaling_NaN
CONST	ENDS
;	COMDAT ?has_quiet_NaN@_Num_base@std@@2_NB
CONST	SEGMENT
?has_quiet_NaN@_Num_base@std@@2_NB DB 00H		; std::_Num_base::has_quiet_NaN
CONST	ENDS
;	COMDAT ?has_infinity@_Num_base@std@@2_NB
CONST	SEGMENT
?has_infinity@_Num_base@std@@2_NB DB 00H		; std::_Num_base::has_infinity
CONST	ENDS
;	COMDAT ?has_denorm_loss@_Num_base@std@@2_NB
CONST	SEGMENT
?has_denorm_loss@_Num_base@std@@2_NB DB 00H		; std::_Num_base::has_denorm_loss
CONST	ENDS
;	COMDAT ?has_denorm@_Num_base@std@@2W4float_denorm_style@2@B
CONST	SEGMENT
?has_denorm@_Num_base@std@@2W4float_denorm_style@2@B DD 00H ; std::_Num_base::has_denorm
CONST	ENDS
;	COMDAT ?value@?$_Sizeof@U_Nil@std@@U12@U12@U12@U12@U12@U12@U12@@std@@2IB
CONST	SEGMENT
?value@?$_Sizeof@U_Nil@std@@U12@U12@U12@U12@U12@U12@U12@@std@@2IB DD 00H ; std::_Sizeof<std::_Nil,std::_Nil,std::_Nil,std::_Nil,std::_Nil,std::_Nil,std::_Nil,std::_Nil>::value
CONST	ENDS
;	COMDAT ?min_exponent10@?$numeric_limits@O@std@@2HB
CONST	SEGMENT
?min_exponent10@?$numeric_limits@O@std@@2HB DD 0fffffecdH ; std::numeric_limits<long double>::min_exponent10
CONST	ENDS
;	COMDAT ?min_exponent@?$numeric_limits@O@std@@2HB
CONST	SEGMENT
?min_exponent@?$numeric_limits@O@std@@2HB DD 0fffffc03H	; std::numeric_limits<long double>::min_exponent
CONST	ENDS
;	COMDAT ?max_exponent10@?$numeric_limits@O@std@@2HB
CONST	SEGMENT
?max_exponent10@?$numeric_limits@O@std@@2HB DD 0134H	; std::numeric_limits<long double>::max_exponent10
CONST	ENDS
;	COMDAT ?max_exponent@?$numeric_limits@O@std@@2HB
CONST	SEGMENT
?max_exponent@?$numeric_limits@O@std@@2HB DD 0400H	; std::numeric_limits<long double>::max_exponent
CONST	ENDS
;	COMDAT ?max_digits10@?$numeric_limits@O@std@@2HB
CONST	SEGMENT
?max_digits10@?$numeric_limits@O@std@@2HB DD 011H	; std::numeric_limits<long double>::max_digits10
CONST	ENDS
;	COMDAT ?digits10@?$numeric_limits@O@std@@2HB
CONST	SEGMENT
?digits10@?$numeric_limits@O@std@@2HB DD 0fH		; std::numeric_limits<long double>::digits10
CONST	ENDS
;	COMDAT ?digits@?$numeric_limits@O@std@@2HB
CONST	SEGMENT
?digits@?$numeric_limits@O@std@@2HB DD 035H		; std::numeric_limits<long double>::digits
CONST	ENDS
;	COMDAT ?min_exponent10@?$numeric_limits@N@std@@2HB
CONST	SEGMENT
?min_exponent10@?$numeric_limits@N@std@@2HB DD 0fffffecdH ; std::numeric_limits<double>::min_exponent10
CONST	ENDS
;	COMDAT ?min_exponent@?$numeric_limits@N@std@@2HB
CONST	SEGMENT
?min_exponent@?$numeric_limits@N@std@@2HB DD 0fffffc03H	; std::numeric_limits<double>::min_exponent
CONST	ENDS
;	COMDAT ?max_exponent10@?$numeric_limits@N@std@@2HB
CONST	SEGMENT
?max_exponent10@?$numeric_limits@N@std@@2HB DD 0134H	; std::numeric_limits<double>::max_exponent10
CONST	ENDS
;	COMDAT ?max_exponent@?$numeric_limits@N@std@@2HB
CONST	SEGMENT
?max_exponent@?$numeric_limits@N@std@@2HB DD 0400H	; std::numeric_limits<double>::max_exponent
CONST	ENDS
;	COMDAT ?max_digits10@?$numeric_limits@N@std@@2HB
CONST	SEGMENT
?max_digits10@?$numeric_limits@N@std@@2HB DD 011H	; std::numeric_limits<double>::max_digits10
CONST	ENDS
;	COMDAT ?digits10@?$numeric_limits@N@std@@2HB
CONST	SEGMENT
?digits10@?$numeric_limits@N@std@@2HB DD 0fH		; std::numeric_limits<double>::digits10
CONST	ENDS
;	COMDAT ?digits@?$numeric_limits@N@std@@2HB
CONST	SEGMENT
?digits@?$numeric_limits@N@std@@2HB DD 035H		; std::numeric_limits<double>::digits
CONST	ENDS
;	COMDAT ?value@?$integral_constant@I$0A@@std@@2IB
CONST	SEGMENT
?value@?$integral_constant@I$0A@@std@@2IB DD 00H	; std::integral_constant<unsigned int,0>::value
CONST	ENDS
;	COMDAT ?min_exponent10@?$numeric_limits@M@std@@2HB
CONST	SEGMENT
?min_exponent10@?$numeric_limits@M@std@@2HB DD 0ffffffdbH ; std::numeric_limits<float>::min_exponent10
CONST	ENDS
;	COMDAT ?min_exponent@?$numeric_limits@M@std@@2HB
CONST	SEGMENT
?min_exponent@?$numeric_limits@M@std@@2HB DD 0ffffff83H	; std::numeric_limits<float>::min_exponent
CONST	ENDS
;	COMDAT ?max_exponent10@?$numeric_limits@M@std@@2HB
CONST	SEGMENT
?max_exponent10@?$numeric_limits@M@std@@2HB DD 026H	; std::numeric_limits<float>::max_exponent10
CONST	ENDS
;	COMDAT ?max_exponent@?$numeric_limits@M@std@@2HB
CONST	SEGMENT
?max_exponent@?$numeric_limits@M@std@@2HB DD 080H	; std::numeric_limits<float>::max_exponent
CONST	ENDS
;	COMDAT ?max_digits10@?$numeric_limits@M@std@@2HB
CONST	SEGMENT
?max_digits10@?$numeric_limits@M@std@@2HB DD 09H	; std::numeric_limits<float>::max_digits10
CONST	ENDS
;	COMDAT ?digits10@?$numeric_limits@M@std@@2HB
CONST	SEGMENT
?digits10@?$numeric_limits@M@std@@2HB DD 06H		; std::numeric_limits<float>::digits10
CONST	ENDS
;	COMDAT ?digits@?$numeric_limits@M@std@@2HB
CONST	SEGMENT
?digits@?$numeric_limits@M@std@@2HB DD 018H		; std::numeric_limits<float>::digits
CONST	ENDS
;	COMDAT ?digits10@?$numeric_limits@_K@std@@2HB
CONST	SEGMENT
?digits10@?$numeric_limits@_K@std@@2HB DD 013H		; std::numeric_limits<unsigned __int64>::digits10
CONST	ENDS
;	COMDAT ?digits@?$numeric_limits@_K@std@@2HB
CONST	SEGMENT
?digits@?$numeric_limits@_K@std@@2HB DD 040H		; std::numeric_limits<unsigned __int64>::digits
CONST	ENDS
;	COMDAT ?is_signed@?$numeric_limits@_K@std@@2_NB
CONST	SEGMENT
?is_signed@?$numeric_limits@_K@std@@2_NB DB 00H		; std::numeric_limits<unsigned __int64>::is_signed
CONST	ENDS
;	COMDAT ?digits10@?$numeric_limits@_J@std@@2HB
CONST	SEGMENT
?digits10@?$numeric_limits@_J@std@@2HB DD 012H		; std::numeric_limits<__int64>::digits10
CONST	ENDS
;	COMDAT ?digits@?$numeric_limits@_J@std@@2HB
CONST	SEGMENT
?digits@?$numeric_limits@_J@std@@2HB DD 03fH		; std::numeric_limits<__int64>::digits
CONST	ENDS
;	COMDAT ?is_signed@?$numeric_limits@_J@std@@2_NB
CONST	SEGMENT
?is_signed@?$numeric_limits@_J@std@@2_NB DB 01H		; std::numeric_limits<__int64>::is_signed
CONST	ENDS
;	COMDAT ?digits10@?$numeric_limits@K@std@@2HB
CONST	SEGMENT
?digits10@?$numeric_limits@K@std@@2HB DD 09H		; std::numeric_limits<unsigned long>::digits10
CONST	ENDS
;	COMDAT ?digits@?$numeric_limits@K@std@@2HB
CONST	SEGMENT
?digits@?$numeric_limits@K@std@@2HB DD 020H		; std::numeric_limits<unsigned long>::digits
CONST	ENDS
;	COMDAT ?is_signed@?$numeric_limits@K@std@@2_NB
CONST	SEGMENT
?is_signed@?$numeric_limits@K@std@@2_NB DB 00H		; std::numeric_limits<unsigned long>::is_signed
CONST	ENDS
;	COMDAT ?digits10@?$numeric_limits@J@std@@2HB
CONST	SEGMENT
?digits10@?$numeric_limits@J@std@@2HB DD 09H		; std::numeric_limits<long>::digits10
CONST	ENDS
;	COMDAT ?digits@?$numeric_limits@J@std@@2HB
CONST	SEGMENT
?digits@?$numeric_limits@J@std@@2HB DD 01fH		; std::numeric_limits<long>::digits
CONST	ENDS
;	COMDAT ?is_signed@?$numeric_limits@J@std@@2_NB
CONST	SEGMENT
?is_signed@?$numeric_limits@J@std@@2_NB DB 01H		; std::numeric_limits<long>::is_signed
CONST	ENDS
;	COMDAT ?digits10@?$numeric_limits@I@std@@2HB
CONST	SEGMENT
?digits10@?$numeric_limits@I@std@@2HB DD 09H		; std::numeric_limits<unsigned int>::digits10
CONST	ENDS
;	COMDAT ?digits@?$numeric_limits@I@std@@2HB
CONST	SEGMENT
?digits@?$numeric_limits@I@std@@2HB DD 020H		; std::numeric_limits<unsigned int>::digits
CONST	ENDS
;	COMDAT ?is_signed@?$numeric_limits@I@std@@2_NB
CONST	SEGMENT
?is_signed@?$numeric_limits@I@std@@2_NB DB 00H		; std::numeric_limits<unsigned int>::is_signed
CONST	ENDS
;	COMDAT ?digits10@?$numeric_limits@H@std@@2HB
CONST	SEGMENT
?digits10@?$numeric_limits@H@std@@2HB DD 09H		; std::numeric_limits<int>::digits10
CONST	ENDS
;	COMDAT ?digits@?$numeric_limits@H@std@@2HB
CONST	SEGMENT
?digits@?$numeric_limits@H@std@@2HB DD 01fH		; std::numeric_limits<int>::digits
CONST	ENDS
;	COMDAT ?value@?$_Sizeof@HU_Nil@std@@U12@U12@U12@U12@U12@U12@@std@@2IB
CONST	SEGMENT
?value@?$_Sizeof@HU_Nil@std@@U12@U12@U12@U12@U12@U12@@std@@2IB DD 01H ; std::_Sizeof<int,std::_Nil,std::_Nil,std::_Nil,std::_Nil,std::_Nil,std::_Nil,std::_Nil>::value
CONST	ENDS
;	COMDAT ?is_signed@?$numeric_limits@H@std@@2_NB
CONST	SEGMENT
?is_signed@?$numeric_limits@H@std@@2_NB DB 01H		; std::numeric_limits<int>::is_signed
CONST	ENDS
;	COMDAT ?digits10@?$numeric_limits@G@std@@2HB
CONST	SEGMENT
?digits10@?$numeric_limits@G@std@@2HB DD 04H		; std::numeric_limits<unsigned short>::digits10
CONST	ENDS
;	COMDAT ?digits@?$numeric_limits@G@std@@2HB
CONST	SEGMENT
?digits@?$numeric_limits@G@std@@2HB DD 010H		; std::numeric_limits<unsigned short>::digits
CONST	ENDS
;	COMDAT ?is_signed@?$numeric_limits@G@std@@2_NB
CONST	SEGMENT
?is_signed@?$numeric_limits@G@std@@2_NB DB 00H		; std::numeric_limits<unsigned short>::is_signed
CONST	ENDS
;	COMDAT ?digits10@?$numeric_limits@F@std@@2HB
CONST	SEGMENT
?digits10@?$numeric_limits@F@std@@2HB DD 04H		; std::numeric_limits<short>::digits10
CONST	ENDS
;	COMDAT ?digits@?$numeric_limits@F@std@@2HB
CONST	SEGMENT
?digits@?$numeric_limits@F@std@@2HB DD 0fH		; std::numeric_limits<short>::digits
CONST	ENDS
;	COMDAT ?is_signed@?$numeric_limits@F@std@@2_NB
CONST	SEGMENT
?is_signed@?$numeric_limits@F@std@@2_NB DB 01H		; std::numeric_limits<short>::is_signed
CONST	ENDS
;	COMDAT ?value@?$integral_constant@_N$00@std@@2_NB
CONST	SEGMENT
?value@?$integral_constant@_N$00@std@@2_NB DB 01H	; std::integral_constant<bool,1>::value
CONST	ENDS
;	COMDAT ?digits10@?$numeric_limits@E@std@@2HB
CONST	SEGMENT
?digits10@?$numeric_limits@E@std@@2HB DD 02H		; std::numeric_limits<unsigned char>::digits10
CONST	ENDS
;	COMDAT ?digits@?$numeric_limits@E@std@@2HB
CONST	SEGMENT
?digits@?$numeric_limits@E@std@@2HB DD 08H		; std::numeric_limits<unsigned char>::digits
CONST	ENDS
;	COMDAT ?value@?$integral_constant@_N$0A@@std@@2_NB
CONST	SEGMENT
?value@?$integral_constant@_N$0A@@std@@2_NB DB 00H	; std::integral_constant<bool,0>::value
CONST	ENDS
;	COMDAT ?is_signed@?$numeric_limits@E@std@@2_NB
CONST	SEGMENT
?is_signed@?$numeric_limits@E@std@@2_NB DB 00H		; std::numeric_limits<unsigned char>::is_signed
CONST	ENDS
;	COMDAT ?digits10@?$numeric_limits@C@std@@2HB
CONST	SEGMENT
?digits10@?$numeric_limits@C@std@@2HB DD 02H		; std::numeric_limits<signed char>::digits10
CONST	ENDS
;	COMDAT ?digits@?$numeric_limits@C@std@@2HB
CONST	SEGMENT
?digits@?$numeric_limits@C@std@@2HB DD 07H		; std::numeric_limits<signed char>::digits
CONST	ENDS
;	COMDAT ?is_signed@?$numeric_limits@C@std@@2_NB
CONST	SEGMENT
?is_signed@?$numeric_limits@C@std@@2_NB DB 01H		; std::numeric_limits<signed char>::is_signed
CONST	ENDS
CONST	SEGMENT
_L_2	DD	03f317218r			; 0.693147
CONST	ENDS
;	COMDAT ?digits10@?$numeric_limits@_N@std@@2HB
CONST	SEGMENT
?digits10@?$numeric_limits@_N@std@@2HB DD 00H		; std::numeric_limits<bool>::digits10
CONST	ENDS
;	COMDAT ?digits@?$numeric_limits@_N@std@@2HB
CONST	SEGMENT
?digits@?$numeric_limits@_N@std@@2HB DD 01H		; std::numeric_limits<bool>::digits
CONST	ENDS
;	COMDAT ?is_signed@?$numeric_limits@_N@std@@2_NB
CONST	SEGMENT
?is_signed@?$numeric_limits@_N@std@@2_NB DB 00H		; std::numeric_limits<bool>::is_signed
CONST	ENDS
;	COMDAT ?is_modulo@?$numeric_limits@_N@std@@2_NB
CONST	SEGMENT
?is_modulo@?$numeric_limits@_N@std@@2_NB DB 00H		; std::numeric_limits<bool>::is_modulo
CONST	ENDS
;	COMDAT ?digits10@?$numeric_limits@_W@std@@2HB
CONST	SEGMENT
?digits10@?$numeric_limits@_W@std@@2HB DD 04H		; std::numeric_limits<wchar_t>::digits10
CONST	ENDS
;	COMDAT ?digits@?$numeric_limits@_W@std@@2HB
CONST	SEGMENT
?digits@?$numeric_limits@_W@std@@2HB DD 010H		; std::numeric_limits<wchar_t>::digits
CONST	ENDS
;	COMDAT ?is_signed@?$numeric_limits@_W@std@@2_NB
CONST	SEGMENT
?is_signed@?$numeric_limits@_W@std@@2_NB DB 00H		; std::numeric_limits<wchar_t>::is_signed
CONST	ENDS
;	COMDAT ?digits10@?$numeric_limits@D@std@@2HB
CONST	SEGMENT
?digits10@?$numeric_limits@D@std@@2HB DD 02H		; std::numeric_limits<char>::digits10
CONST	ENDS
;	COMDAT ?digits@?$numeric_limits@D@std@@2HB
CONST	SEGMENT
?digits@?$numeric_limits@D@std@@2HB DD 07H		; std::numeric_limits<char>::digits
CONST	ENDS
;	COMDAT ?is_signed@?$numeric_limits@D@std@@2_NB
CONST	SEGMENT
?is_signed@?$numeric_limits@D@std@@2_NB DB 01H		; std::numeric_limits<char>::is_signed
CONST	ENDS
;	COMDAT ?radix@_Num_float_base@std@@2HB
CONST	SEGMENT
?radix@_Num_float_base@std@@2HB DD 02H			; std::_Num_float_base::radix
CONST	ENDS
;	COMDAT ?round_style@_Num_float_base@std@@2W4float_round_style@2@B
CONST	SEGMENT
?round_style@_Num_float_base@std@@2W4float_round_style@2@B DD 01H ; std::_Num_float_base::round_style
CONST	ENDS
;	COMDAT ?traps@_Num_float_base@std@@2_NB
CONST	SEGMENT
?traps@_Num_float_base@std@@2_NB DB 00H			; std::_Num_float_base::traps
CONST	ENDS
;	COMDAT ?tinyness_before@_Num_float_base@std@@2_NB
CONST	SEGMENT
?tinyness_before@_Num_float_base@std@@2_NB DB 01H	; std::_Num_float_base::tinyness_before
CONST	ENDS
;	COMDAT ?is_specialized@_Num_float_base@std@@2_NB
CONST	SEGMENT
?is_specialized@_Num_float_base@std@@2_NB DB 01H	; std::_Num_float_base::is_specialized
CONST	ENDS
;	COMDAT ?is_signed@_Num_float_base@std@@2_NB
CONST	SEGMENT
?is_signed@_Num_float_base@std@@2_NB DB 01H		; std::_Num_float_base::is_signed
CONST	ENDS
;	COMDAT ?is_modulo@_Num_float_base@std@@2_NB
CONST	SEGMENT
?is_modulo@_Num_float_base@std@@2_NB DB 00H		; std::_Num_float_base::is_modulo
CONST	ENDS
;	COMDAT ?is_integer@_Num_float_base@std@@2_NB
CONST	SEGMENT
?is_integer@_Num_float_base@std@@2_NB DB 00H		; std::_Num_float_base::is_integer
CONST	ENDS
;	COMDAT ?is_iec559@_Num_float_base@std@@2_NB
CONST	SEGMENT
?is_iec559@_Num_float_base@std@@2_NB DB 01H		; std::_Num_float_base::is_iec559
CONST	ENDS
;	COMDAT ?is_exact@_Num_float_base@std@@2_NB
CONST	SEGMENT
?is_exact@_Num_float_base@std@@2_NB DB 00H		; std::_Num_float_base::is_exact
CONST	ENDS
;	COMDAT ?is_bounded@_Num_float_base@std@@2_NB
CONST	SEGMENT
?is_bounded@_Num_float_base@std@@2_NB DB 01H		; std::_Num_float_base::is_bounded
CONST	ENDS
;	COMDAT ?has_signaling_NaN@_Num_float_base@std@@2_NB
CONST	SEGMENT
?has_signaling_NaN@_Num_float_base@std@@2_NB DB 01H	; std::_Num_float_base::has_signaling_NaN
CONST	ENDS
;	COMDAT ?has_quiet_NaN@_Num_float_base@std@@2_NB
CONST	SEGMENT
?has_quiet_NaN@_Num_float_base@std@@2_NB DB 01H		; std::_Num_float_base::has_quiet_NaN
CONST	ENDS
;	COMDAT ?has_infinity@_Num_float_base@std@@2_NB
CONST	SEGMENT
?has_infinity@_Num_float_base@std@@2_NB DB 01H		; std::_Num_float_base::has_infinity
CONST	ENDS
;	COMDAT ?CMPDIRTYDATA_INTERVAL@FalconEntity@@2KB
CONST	SEGMENT
?CMPDIRTYDATA_INTERVAL@FalconEntity@@2KB DD 0c8H	; FalconEntity::CMPDIRTYDATA_INTERVAL
CONST	ENDS
;	COMDAT ?SIMDIRTYDATA_INTERVAL@FalconEntity@@2KB
CONST	SEGMENT
?SIMDIRTYDATA_INTERVAL@FalconEntity@@2KB DD 0c8H	; FalconEntity::SIMDIRTYDATA_INTERVAL
CONST	ENDS
;	COMDAT ?has_denorm_loss@_Num_float_base@std@@2_NB
CONST	SEGMENT
?has_denorm_loss@_Num_float_base@std@@2_NB DB 01H	; std::_Num_float_base::has_denorm_loss
CONST	ENDS
;	COMDAT ?has_denorm@_Num_float_base@std@@2W4float_denorm_style@2@B
CONST	SEGMENT
?has_denorm@_Num_float_base@std@@2W4float_denorm_style@2@B DD 01H ; std::_Num_float_base::has_denorm
CONST	ENDS
;	COMDAT ?radix@_Num_int_base@std@@2HB
CONST	SEGMENT
?radix@_Num_int_base@std@@2HB DD 02H			; std::_Num_int_base::radix
CONST	ENDS
;	COMDAT ?is_specialized@_Num_int_base@std@@2_NB
CONST	SEGMENT
?is_specialized@_Num_int_base@std@@2_NB DB 01H		; std::_Num_int_base::is_specialized
CONST	ENDS
;	COMDAT ?is_modulo@_Num_int_base@std@@2_NB
CONST	SEGMENT
?is_modulo@_Num_int_base@std@@2_NB DB 01H		; std::_Num_int_base::is_modulo
CONST	ENDS
;	COMDAT ?is_integer@_Num_int_base@std@@2_NB
CONST	SEGMENT
?is_integer@_Num_int_base@std@@2_NB DB 01H		; std::_Num_int_base::is_integer
CONST	ENDS
;	COMDAT ?is_exact@_Num_int_base@std@@2_NB
CONST	SEGMENT
?is_exact@_Num_int_base@std@@2_NB DB 01H		; std::_Num_int_base::is_exact
CONST	ENDS
;	COMDAT ?is_bounded@_Num_int_base@std@@2_NB
CONST	SEGMENT
?is_bounded@_Num_int_base@std@@2_NB DB 01H		; std::_Num_int_base::is_bounded
CONST	ENDS
;	COMDAT ?radix@_Num_base@std@@2HB
CONST	SEGMENT
?radix@_Num_base@std@@2HB DD 00H			; std::_Num_base::radix
CONST	ENDS
;	COMDAT ?min_exponent10@_Num_base@std@@2HB
CONST	SEGMENT
?min_exponent10@_Num_base@std@@2HB DD 00H		; std::_Num_base::min_exponent10
CONST	ENDS
;	COMDAT ?min_exponent@_Num_base@std@@2HB
CONST	SEGMENT
?min_exponent@_Num_base@std@@2HB DD 00H			; std::_Num_base::min_exponent
CONST	ENDS
;	COMDAT ?max_exponent10@_Num_base@std@@2HB
CONST	SEGMENT
?max_exponent10@_Num_base@std@@2HB DD 00H		; std::_Num_base::max_exponent10
CONST	ENDS
;	COMDAT ?max_exponent@_Num_base@std@@2HB
CONST	SEGMENT
?max_exponent@_Num_base@std@@2HB DD 00H			; std::_Num_base::max_exponent
CONST	ENDS
;	COMDAT ?max_digits10@_Num_base@std@@2HB
CONST	SEGMENT
?max_digits10@_Num_base@std@@2HB DD 00H			; std::_Num_base::max_digits10
CONST	ENDS
;	COMDAT ?digits10@_Num_base@std@@2HB
CONST	SEGMENT
?digits10@_Num_base@std@@2HB DD 00H			; std::_Num_base::digits10
CONST	ENDS
;	COMDAT ?digits@_Num_base@std@@2HB
CONST	SEGMENT
?digits@_Num_base@std@@2HB DD 00H			; std::_Num_base::digits
CONST	ENDS
;	COMDAT ?round_style@_Num_base@std@@2W4float_round_style@2@B
CONST	SEGMENT
?round_style@_Num_base@std@@2W4float_round_style@2@B DD 00H ; std::_Num_base::round_style
CONST	ENDS
;	COMDAT ?traps@_Num_base@std@@2_NB
CONST	SEGMENT
?traps@_Num_base@std@@2_NB DB 00H			; std::_Num_base::traps
CONST	ENDS
PUBLIC	??0VU_SESSION_ID@@QAE@K@Z			; VU_SESSION_ID::VU_SESSION_ID
PUBLIC	??8VU_SESSION_ID@@QBEHABV0@@Z			; VU_SESSION_ID::operator==
PUBLIC	??0VU_ID@@QAE@XZ				; VU_ID::VU_ID
PUBLIC	??8VU_ID@@QBE_NABV0@@Z				; VU_ID::operator==
PUBLIC	?Id@VuEntity@@QBE?AVVU_ID@@XZ			; VuEntity::Id
PUBLIC	?OwnerId@VuEntity@@QBE?AVVU_ID@@XZ		; VuEntity::OwnerId
PUBLIC	?Type@VuEntity@@QBEGXZ				; VuEntity::Type
PUBLIC	?EntityType@VuEntity@@QBEPAUVuEntityType@@XZ	; VuEntity::EntityType
PUBLIC	??2@YAPAXIPAX@Z					; operator new
PUBLIC	??3@YAXPAX0@Z					; operator delete
PUBLIC	?length@?$char_traits@D@std@@SAIPBD@Z		; std::char_traits<char>::length
PUBLIC	?copy@?$char_traits@D@std@@SAPADPADPBDI@Z	; std::char_traits<char>::copy
PUBLIC	?move@?$char_traits@D@std@@SAPADPADPBDI@Z	; std::char_traits<char>::move
PUBLIC	?assign@?$char_traits@D@std@@SAXAADABD@Z	; std::char_traits<char>::assign
PUBLIC	??0logic_error@std@@QAE@PBD@Z			; std::logic_error::logic_error
PUBLIC	??1logic_error@std@@UAE@XZ			; std::logic_error::~logic_error
PUBLIC	??0logic_error@std@@QAE@ABV01@@Z		; std::logic_error::logic_error
PUBLIC	??_Glogic_error@std@@UAEPAXI@Z			; std::logic_error::`scalar deleting destructor'
PUBLIC	??0?$allocator@D@std@@QAE@XZ			; std::allocator<char>::allocator<char>
PUBLIC	?deallocate@?$allocator@D@std@@QAEXPADI@Z	; std::allocator<char>::deallocate
PUBLIC	?allocate@?$allocator@D@std@@QAEPADI@Z		; std::allocator<char>::allocate
PUBLIC	?max_size@?$allocator@D@std@@QBEIXZ		; std::allocator<char>::max_size
PUBLIC	?max_size@?$allocator_traits@V?$allocator@D@std@@@std@@SAIABV?$allocator@D@2@@Z ; std::allocator_traits<std::allocator<char> >::max_size
PUBLIC	??0?$_Wrap_alloc@V?$allocator@D@std@@@std@@QAE@XZ ; std::_Wrap_alloc<std::allocator<char> >::_Wrap_alloc<std::allocator<char> >
PUBLIC	?allocate@?$_Wrap_alloc@V?$allocator@D@std@@@std@@QAEPADI@Z ; std::_Wrap_alloc<std::allocator<char> >::allocate
PUBLIC	?deallocate@?$_Wrap_alloc@V?$allocator@D@std@@@std@@QAEXPADI@Z ; std::_Wrap_alloc<std::allocator<char> >::deallocate
PUBLIC	?max_size@?$_Wrap_alloc@V?$allocator@D@std@@@std@@QBEIXZ ; std::_Wrap_alloc<std::allocator<char> >::max_size
PUBLIC	??0?$_String_val@U?$_Simple_types@D@std@@@std@@QAE@XZ ; std::_String_val<std::_Simple_types<char> >::_String_val<std::_Simple_types<char> >
PUBLIC	?_Myptr@?$_String_val@U?$_Simple_types@D@std@@@std@@QAEPADXZ ; std::_String_val<std::_Simple_types<char> >::_Myptr
PUBLIC	?_Myptr@?$_String_val@U?$_Simple_types@D@std@@@std@@QBEPBDXZ ; std::_String_val<std::_Simple_types<char> >::_Myptr
PUBLIC	??0?$_String_alloc@$0A@U?$_String_base_types@DV?$allocator@D@std@@@std@@@std@@QAE@ABV?$allocator@D@1@@Z ; std::_String_alloc<0,std::_String_base_types<char,std::allocator<char> > >::_String_alloc<0,std::_String_base_types<char,std::allocator<char> > >
PUBLIC	?_Getal@?$_String_alloc@$0A@U?$_String_base_types@DV?$allocator@D@std@@@std@@@std@@QBE?AU?$_Wrap_alloc@V?$allocator@D@std@@@2@XZ ; std::_String_alloc<0,std::_String_base_types<char,std::allocator<char> > >::_Getal
PUBLIC	??0?$basic_string@DU?$char_traits@D@std@@V?$allocator@D@2@@std@@QAE@PBD@Z ; std::basic_string<char,std::char_traits<char>,std::allocator<char> >::basic_string<char,std::char_traits<char>,std::allocator<char> >
PUBLIC	??1?$basic_string@DU?$char_traits@D@std@@V?$allocator@D@2@@std@@QAE@XZ ; std::basic_string<char,std::char_traits<char>,std::allocator<char> >::~basic_string<char,std::char_traits<char>,std::allocator<char> >
PUBLIC	?assign@?$basic_string@DU?$char_traits@D@std@@V?$allocator@D@2@@std@@QAEAAV12@ABV12@II@Z ; std::basic_string<char,std::char_traits<char>,std::allocator<char> >::assign
PUBLIC	?assign@?$basic_string@DU?$char_traits@D@std@@V?$allocator@D@2@@std@@QAEAAV12@PBDI@Z ; std::basic_string<char,std::char_traits<char>,std::allocator<char> >::assign
PUBLIC	?assign@?$basic_string@DU?$char_traits@D@std@@V?$allocator@D@2@@std@@QAEAAV12@PBD@Z ; std::basic_string<char,std::char_traits<char>,std::allocator<char> >::assign
PUBLIC	?erase@?$basic_string@DU?$char_traits@D@std@@V?$allocator@D@2@@std@@QAEAAV12@I@Z ; std::basic_string<char,std::char_traits<char>,std::allocator<char> >::erase
PUBLIC	?erase@?$basic_string@DU?$char_traits@D@std@@V?$allocator@D@2@@std@@QAEAAV12@II@Z ; std::basic_string<char,std::char_traits<char>,std::allocator<char> >::erase
PUBLIC	?c_str@?$basic_string@DU?$char_traits@D@std@@V?$allocator@D@2@@std@@QBEPBDXZ ; std::basic_string<char,std::char_traits<char>,std::allocator<char> >::c_str
PUBLIC	?size@?$basic_string@DU?$char_traits@D@std@@V?$allocator@D@2@@std@@QBEIXZ ; std::basic_string<char,std::char_traits<char>,std::allocator<char> >::size
PUBLIC	?max_size@?$basic_string@DU?$char_traits@D@std@@V?$allocator@D@2@@std@@QBEIXZ ; std::basic_string<char,std::char_traits<char>,std::allocator<char> >::max_size
PUBLIC	?_Copy@?$basic_string@DU?$char_traits@D@std@@V?$allocator@D@2@@std@@QAEXII@Z ; std::basic_string<char,std::char_traits<char>,std::allocator<char> >::_Copy
PUBLIC	?_Eos@?$basic_string@DU?$char_traits@D@std@@V?$allocator@D@2@@std@@QAEXI@Z ; std::basic_string<char,std::char_traits<char>,std::allocator<char> >::_Eos
PUBLIC	?_Grow@?$basic_string@DU?$char_traits@D@std@@V?$allocator@D@2@@std@@QAE_NI_N@Z ; std::basic_string<char,std::char_traits<char>,std::allocator<char> >::_Grow
PUBLIC	?_Inside@?$basic_string@DU?$char_traits@D@std@@V?$allocator@D@2@@std@@QAE_NPBD@Z ; std::basic_string<char,std::char_traits<char>,std::allocator<char> >::_Inside
PUBLIC	?_Tidy@?$basic_string@DU?$char_traits@D@std@@V?$allocator@D@2@@std@@QAEX_NI@Z ; std::basic_string<char,std::char_traits<char>,std::allocator<char> >::_Tidy
PUBLIC	?_Xlen@?$basic_string@DU?$char_traits@D@std@@V?$allocator@D@2@@std@@QBEXXZ ; std::basic_string<char,std::char_traits<char>,std::allocator<char> >::_Xlen
PUBLIC	?_Xran@?$basic_string@DU?$char_traits@D@std@@V?$allocator@D@2@@std@@QBEXXZ ; std::basic_string<char,std::char_traits<char>,std::allocator<char> >::_Xran
PUBLIC	??0out_of_range@std@@QAE@ABV?$basic_string@DU?$char_traits@D@std@@V?$allocator@D@2@@1@@Z ; std::out_of_range::out_of_range
PUBLIC	??1out_of_range@std@@UAE@XZ			; std::out_of_range::~out_of_range
PUBLIC	??0out_of_range@std@@QAE@ABV01@@Z		; std::out_of_range::out_of_range
PUBLIC	??_Gout_of_range@std@@UAEPAXI@Z			; std::out_of_range::`scalar deleting destructor'
PUBLIC	??B?$VuBin@VVuSessionEntity@@@@QBE_NXZ		; VuBin<VuSessionEntity>::operator bool
PUBLIC	?get@?$VuBin@VVuSessionEntity@@@@QBEPAVVuSessionEntity@@XZ ; VuBin<VuSessionEntity>::get
PUBLIC	?get@?$VuBin@VVuEntity@@@@QBEPAVVuEntity@@XZ	; VuBin<VuEntity>::get
PUBLIC	?IsSimBase@FalconEntity@@UAE_NXZ		; FalconEntity::IsSimBase
PUBLIC	?IsCampBase@FalconEntity@@UAE_NXZ		; FalconEntity::IsCampBase
PUBLIC	?GetRadarMode@FalconEntity@@UAEHXZ		; FalconEntity::GetRadarMode
PUBLIC	?SetRadarMode@FalconEntity@@UAEXE@Z		; FalconEntity::SetRadarMode
PUBLIC	?ReturnToSearch@FalconEntity@@UAEXXZ		; FalconEntity::ReturnToSearch
PUBLIC	?SetSearchMode@FalconEntity@@UAEXE@Z		; FalconEntity::SetSearchMode
PUBLIC	?CombatClass@FalconEntity@@UAEHXZ		; FalconEntity::CombatClass
PUBLIC	?OnGround@FalconEntity@@UAEHXZ			; FalconEntity::OnGround
PUBLIC	?HasEntity@FalconEntity@@UBEHPAVVuEntity@@@Z	; FalconEntity::HasEntity
PUBLIC	?IsMissile@FalconEntity@@UAEHXZ			; FalconEntity::IsMissile
PUBLIC	?IsLauncher@FalconEntity@@UAEHXZ		; FalconEntity::IsLauncher
PUBLIC	?IsBomb@FalconEntity@@UAEHXZ			; FalconEntity::IsBomb
PUBLIC	?IsGun@FalconEntity@@UAEHXZ			; FalconEntity::IsGun
PUBLIC	?IsMover@FalconEntity@@UAEHXZ			; FalconEntity::IsMover
PUBLIC	?IsVehicle@FalconEntity@@UAEHXZ			; FalconEntity::IsVehicle
PUBLIC	?IsStatic@FalconEntity@@UAEHXZ			; FalconEntity::IsStatic
PUBLIC	?IsHelicopter@FalconEntity@@UAEHXZ		; FalconEntity::IsHelicopter
PUBLIC	?IsEject@FalconEntity@@UAEHXZ			; FalconEntity::IsEject
PUBLIC	?IsAirplane@FalconEntity@@UAEHXZ		; FalconEntity::IsAirplane
PUBLIC	?IsGroundVehicle@FalconEntity@@UAEHXZ		; FalconEntity::IsGroundVehicle
PUBLIC	?IsShip@FalconEntity@@UAEHXZ			; FalconEntity::IsShip
PUBLIC	?IsWeapon@FalconEntity@@UAEHXZ			; FalconEntity::IsWeapon
PUBLIC	?IsExploding@FalconEntity@@UAEHXZ		; FalconEntity::IsExploding
PUBLIC	?IsDead@FalconEntity@@UAEHXZ			; FalconEntity::IsDead
PUBLIC	?IsEmitting@FalconEntity@@UAEHXZ		; FalconEntity::IsEmitting
PUBLIC	?GetMovementType@FalconEntity@@UAE?AW4MoveType@@XZ ; FalconEntity::GetMovementType
PUBLIC	?IsUnit@FalconEntity@@UAEHXZ			; FalconEntity::IsUnit
PUBLIC	?IsObjective@FalconEntity@@UAEHXZ		; FalconEntity::IsObjective
PUBLIC	?IsBattalion@FalconEntity@@UAEHXZ		; FalconEntity::IsBattalion
PUBLIC	?IsBrigade@FalconEntity@@UAEHXZ			; FalconEntity::IsBrigade
PUBLIC	?IsFlight@FalconEntity@@UBEHXZ			; FalconEntity::IsFlight
PUBLIC	?IsSquadron@FalconEntity@@UAEHXZ		; FalconEntity::IsSquadron
PUBLIC	?IsPackage@FalconEntity@@UAEHXZ			; FalconEntity::IsPackage
PUBLIC	?IsTeam@FalconEntity@@UAEHXZ			; FalconEntity::IsTeam
PUBLIC	?IsTaskForce@FalconEntity@@UAEHXZ		; FalconEntity::IsTaskForce
PUBLIC	?IsSPJamming@FalconEntity@@UAEHXZ		; FalconEntity::IsSPJamming
PUBLIC	?IsAreaJamming@FalconEntity@@UAEHXZ		; FalconEntity::IsAreaJamming
PUBLIC	?HasSPJamming@FalconEntity@@UAEHXZ		; FalconEntity::HasSPJamming
PUBLIC	?HasAreaJamming@FalconEntity@@UAEHXZ		; FalconEntity::HasAreaJamming
PUBLIC	?GetRCSFactor@FalconEntity@@UAEMXZ		; FalconEntity::GetRCSFactor
PUBLIC	?GetIRFactor@FalconEntity@@UAEMXZ		; FalconEntity::GetIRFactor
PUBLIC	?SetAQUIREtimer@FalconEntity@@UAEXK@Z		; FalconEntity::SetAQUIREtimer
PUBLIC	?SetSEARCHtimer@FalconEntity@@UAEXK@Z		; FalconEntity::SetSEARCHtimer
PUBLIC	?SetStepSearchMode@FalconEntity@@UAEXE@Z	; FalconEntity::SetStepSearchMode
PUBLIC	?GetAQUIREtimer@FalconEntity@@UAEKXZ		; FalconEntity::GetAQUIREtimer
PUBLIC	?GetSEARCHtimer@FalconEntity@@UAEKXZ		; FalconEntity::GetSEARCHtimer
PUBLIC	?GetUserData@ListElementClass@@QAEPAXXZ		; ListElementClass::GetUserData
PUBLIC	?GetNext@ListElementClass@@QAEPAV1@XZ		; ListElementClass::GetNext
PUBLIC	?GetFirstElement@ListClass@@QAEPAVListElementClass@@XZ ; ListClass::GetFirstElement
PUBLIC	??0InvalidBufferException@@QAE@ABV?$basic_string@DU?$char_traits@D@std@@V?$allocator@D@2@@std@@@Z ; InvalidBufferException::InvalidBufferException
PUBLIC	??1InvalidBufferException@@UAE@XZ		; InvalidBufferException::~InvalidBufferException
PUBLIC	??0InvalidBufferException@@QAE@ABV0@@Z		; InvalidBufferException::InvalidBufferException
PUBLIC	??_GInvalidBufferException@@UAEPAXI@Z		; InvalidBufferException::`scalar deleting destructor'
PUBLIC	?memcpychk@@YAXPAXPAPAEIPAJ@Z			; memcpychk
PUBLIC	?GetDomain@CampBaseClass@@QBEEXZ		; CampBaseClass::GetDomain
PUBLIC	?GetType@CampBaseClass@@QBEEXZ			; CampBaseClass::GetType
PUBLIC	?IsFrontline@ObjectiveClass@@QAEHXZ		; ObjectiveClass::IsFrontline
PUBLIC	?IsSecondline@ObjectiveClass@@QAEHXZ		; ObjectiveClass::IsSecondline
PUBLIC	?IsThirdline@ObjectiveClass@@QAEHXZ		; ObjectiveClass::IsThirdline
PUBLIC	?IsNearfront@ObjectiveClass@@QAEHXZ		; ObjectiveClass::IsNearfront
PUBLIC	?IsBeach@ObjectiveClass@@QAEHXZ			; ObjectiveClass::IsBeach
PUBLIC	?SamSite@ObjectiveClass@@QAEHXZ			; ObjectiveClass::SamSite
PUBLIC	?ArtillerySite@ObjectiveClass@@QAEHXZ		; ObjectiveClass::ArtillerySite
PUBLIC	?CommandoSite@ObjectiveClass@@QAEHXZ		; ObjectiveClass::CommandoSite
PUBLIC	?RadarSite@ObjectiveClass@@QAEHXZ		; ObjectiveClass::RadarSite
PUBLIC	?Abandoned@ObjectiveClass@@QAEHXZ		; ObjectiveClass::Abandoned
PUBLIC	?NeedRepair@ObjectiveClass@@QAEHXZ		; ObjectiveClass::NeedRepair
PUBLIC	?GetObjectiveParent@ObjectiveClass@@QAEPAV1@XZ	; ObjectiveClass::GetObjectiveParent
PUBLIC	?GetObjectivePriority@ObjectiveClass@@QAEFXZ	; ObjectiveClass::GetObjectivePriority
PUBLIC	?GetObjectiveStatus@ObjectiveClass@@QAEEXZ	; ObjectiveClass::GetObjectiveStatus
PUBLIC	?GetGroundAction@TeamClass@@QAEPAUTeamGndActionType@@XZ ; TeamClass::GetGroundAction
PUBLIC	?GetDefensiveAirAction@TeamClass@@QAEPAUTeamAirActionType@@XZ ; TeamClass::GetDefensiveAirAction
PUBLIC	?GetOffensiveAirAction@TeamClass@@QAEPAUTeamAirActionType@@XZ ; TeamClass::GetOffensiveAirAction
PUBLIC	?GetGroundActionType@TeamClass@@QAEEXZ		; TeamClass::GetGroundActionType
PUBLIC	?Assigned@UnitClass@@QBEHXZ			; UnitClass::Assigned
PUBLIC	?Scripted@UnitClass@@QBEHXZ			; UnitClass::Scripted
PUBLIC	?Commando@UnitClass@@QBEHXZ			; UnitClass::Commando
PUBLIC	?Broken@UnitClass@@QBEHXZ			; UnitClass::Broken
PUBLIC	?GetVt@CampManagerClass@@UBEMXZ			; CampManagerClass::GetVt
PUBLIC	?GetKias@CampManagerClass@@UBEMXZ		; CampManagerClass::GetKias
PUBLIC	?Wake@CampManagerClass@@UAEHXZ			; CampManagerClass::Wake
PUBLIC	?Sleep@CampManagerClass@@UAEHXZ			; CampManagerClass::Sleep
PUBLIC	?GetCampID@CampManagerClass@@UAEFXZ		; CampManagerClass::GetCampID
PUBLIC	?GetTeam@CampManagerClass@@UAEEXZ		; CampManagerClass::GetTeam
PUBLIC	?GetCountry@CampManagerClass@@UAEEXZ		; CampManagerClass::GetCountry
PUBLIC	?GetLocation@DivisionClass@@QAEXPAF0@Z		; DivisionClass::GetLocation
PUBLIC	??0GroundTaskingManagerClass@@QAE@GE@Z		; GroundTaskingManagerClass::GroundTaskingManagerClass
PUBLIC	??0GroundTaskingManagerClass@@QAE@PAPAEPAJ@Z	; GroundTaskingManagerClass::GroundTaskingManagerClass
PUBLIC	??0GroundTaskingManagerClass@@QAE@PAU_iobuf@@@Z	; GroundTaskingManagerClass::GroundTaskingManagerClass
PUBLIC	??1GroundTaskingManagerClass@@UAE@XZ		; GroundTaskingManagerClass::~GroundTaskingManagerClass
PUBLIC	?SaveSize@GroundTaskingManagerClass@@UAEHXZ	; GroundTaskingManagerClass::SaveSize
PUBLIC	?Save@GroundTaskingManagerClass@@UAEHPAPAE@Z	; GroundTaskingManagerClass::Save
PUBLIC	?Save@GroundTaskingManagerClass@@UAEHPAU_iobuf@@@Z ; GroundTaskingManagerClass::Save
PUBLIC	?Handle@GroundTaskingManagerClass@@UAEHPAVVuFullUpdateEvent@@@Z ; GroundTaskingManagerClass::Handle
PUBLIC	?DoCalculations@GroundTaskingManagerClass@@UAEXXZ ; GroundTaskingManagerClass::DoCalculations
PUBLIC	?Task@GroundTaskingManagerClass@@UAEHXZ		; GroundTaskingManagerClass::Task
PUBLIC	?Setup@GroundTaskingManagerClass@@QAEXXZ	; GroundTaskingManagerClass::Setup
PUBLIC	?Cleanup@GroundTaskingManagerClass@@QAEXXZ	; GroundTaskingManagerClass::Cleanup
PUBLIC	?GetAddBits@GroundTaskingManagerClass@@QAEHPAVObjectiveClass@@H@Z ; GroundTaskingManagerClass::GetAddBits
PUBLIC	?BuildObjectiveLists@GroundTaskingManagerClass@@QAEHH@Z ; GroundTaskingManagerClass::BuildObjectiveLists
PUBLIC	?CollectGroundAssets@GroundTaskingManagerClass@@QAEHH@Z ; GroundTaskingManagerClass::CollectGroundAssets
PUBLIC	?AddToList@GroundTaskingManagerClass@@QAEXPAVUnitClass@@H@Z ; GroundTaskingManagerClass::AddToList
PUBLIC	?AddToLists@GroundTaskingManagerClass@@QAEXPAVUnitClass@@H@Z ; GroundTaskingManagerClass::AddToLists
PUBLIC	?IsValidObjective@GroundTaskingManagerClass@@QAEHHPAVObjectiveClass@@@Z ; GroundTaskingManagerClass::IsValidObjective
PUBLIC	?AssignUnit@GroundTaskingManagerClass@@QAEHPAVUnitClass@@HPAVObjectiveClass@@H@Z ; GroundTaskingManagerClass::AssignUnit
PUBLIC	?AssignUnits@GroundTaskingManagerClass@@QAEHHH@Z ; GroundTaskingManagerClass::AssignUnits
PUBLIC	?AssignObjective@GroundTaskingManagerClass@@QAEHPAVGndObjDataType@@HH@Z ; GroundTaskingManagerClass::AssignObjective
PUBLIC	?ScoreUnit@GroundTaskingManagerClass@@QAEHPAVUnitScoreNode@@PAVGndObjDataType@@HH@Z ; GroundTaskingManagerClass::ScoreUnit
PUBLIC	?ScoreUnitFast@GroundTaskingManagerClass@@QAEHPAVUnitScoreNode@@PAVGndObjDataType@@HH@Z ; GroundTaskingManagerClass::ScoreUnitFast
PUBLIC	?FinalizeOrders@GroundTaskingManagerClass@@QAEXXZ ; GroundTaskingManagerClass::FinalizeOrders
PUBLIC	?SendGTMMessage@GroundTaskingManagerClass@@QAEXVVU_ID@@FFF0@Z ; GroundTaskingManagerClass::SendGTMMessage
PUBLIC	?RequestEngineer@GroundTaskingManagerClass@@QAEXPAVObjectiveClass@@H@Z ; GroundTaskingManagerClass::RequestEngineer
PUBLIC	?RequestAirDefense@GroundTaskingManagerClass@@QAEXPAVObjectiveClass@@H@Z ; GroundTaskingManagerClass::RequestAirDefense
PUBLIC	??_GGroundTaskingManagerClass@@UAEPAXI@Z	; GroundTaskingManagerClass::`scalar deleting destructor'
PUBLIC	?EncodePrimaryObjectiveList@@YAFEPAPAE@Z	; EncodePrimaryObjectiveList
PUBLIC	?DecodePrimaryObjectiveList@@YAXPAEPAVFalconEntity@@@Z ; DecodePrimaryObjectiveList
PUBLIC	?SendPrimaryObjectiveList@@YAXE@Z		; SendPrimaryObjectiveList
PUBLIC	?SavePrimaryObjectiveList@@YAXPAD@Z		; SavePrimaryObjectiveList
PUBLIC	?LoadPrimaryObjectiveList@@YAHPAD@Z		; LoadPrimaryObjectiveList
PUBLIC	?GetGame@FalconSessionEntity@@QAEPAVFalconGameEntity@@XZ ; FalconSessionEntity::GetGame
PUBLIC	?GetTopPriorityObjectives@@YAHHQAPAD@Z		; GetTopPriorityObjectives
PUBLIC	?ScoreObj@@YAHHHHHHH@Z				; ScoreObj
PUBLIC	??$destroy@PAD@?$_Wrap_alloc@V?$allocator@D@std@@@std@@QAEXPAPAD@Z ; std::_Wrap_alloc<std::allocator<char> >::destroy<char *>
PUBLIC	??$addressof@D@std@@YAPADAAD@Z			; std::addressof<char>
PUBLIC	??$construct@PADAAPAD@?$_Wrap_alloc@V?$allocator@D@std@@@std@@QAEXPAPADAAPAD@Z ; std::_Wrap_alloc<std::allocator<char> >::construct<char *,char * &>
PUBLIC	??$_Allocate@D@std@@YAPADIPAD@Z			; std::_Allocate<char>
PUBLIC	??$destroy@PAD@?$allocator_traits@V?$allocator@D@std@@@std@@SAXAAV?$allocator@D@1@PAPAD@Z ; std::allocator_traits<std::allocator<char> >::destroy<char *>
PUBLIC	??$forward@AAPAD@std@@YAAAPADAAPAD@Z		; std::forward<char * &>
PUBLIC	??$construct@PADAAPAD@?$allocator_traits@V?$allocator@D@std@@@std@@SAXAAV?$allocator@D@1@PAPADAAPAD@Z ; std::allocator_traits<std::allocator<char> >::construct<char *,char * &>
PUBLIC	??$destroy@PAD@?$allocator@D@std@@QAEXPAPAD@Z	; std::allocator<char>::destroy<char *>
PUBLIC	??$construct@PADAAPAD@?$allocator@D@std@@QAEXPAPADAAPAD@Z ; std::allocator<char>::construct<char *,char * &>
PUBLIC	??_7logic_error@std@@6B@			; std::logic_error::`vftable'
PUBLIC	??_7out_of_range@std@@6B@			; std::out_of_range::`vftable'
PUBLIC	??_7InvalidBufferException@@6B@			; InvalidBufferException::`vftable'
PUBLIC	??_C@_0CI@MPKJAHJH@Trying?5to?5write?5?$CFlu?5bytes?5to?5?$CFld@ ; `string'
PUBLIC	__TI4?AVInvalidBufferException@@
PUBLIC	__CTA4?AVInvalidBufferException@@
PUBLIC	??_R0?AVInvalidBufferException@@@8		; InvalidBufferException `RTTI Type Descriptor'
PUBLIC	__CT??_R0?AVInvalidBufferException@@@8??0InvalidBufferException@@QAE@ABV0@@Z12
PUBLIC	??_R0?AVout_of_range@std@@@8			; std::out_of_range `RTTI Type Descriptor'
PUBLIC	__CT??_R0?AVout_of_range@std@@@8??0out_of_range@std@@QAE@ABV01@@Z12
PUBLIC	??_R0?AVlogic_error@std@@@8			; std::logic_error `RTTI Type Descriptor'
PUBLIC	__CT??_R0?AVlogic_error@std@@@8??0logic_error@std@@QAE@ABV01@@Z12
PUBLIC	??_R0?AVexception@std@@@8			; std::exception `RTTI Type Descriptor'
PUBLIC	__CT??_R0?AVexception@std@@@8??0exception@std@@QAE@ABV01@@Z12
PUBLIC	??_7GroundTaskingManagerClass@@6B@		; GroundTaskingManagerClass::`vftable'
PUBLIC	??_C@_02GMLFBBN@wb?$AA@				; `string'
PUBLIC	??_C@_03DPEHCIMJ@pol?$AA@			; `string'
PUBLIC	??_C@_0BA@JFNIOLAK@string?5too?5long?$AA@	; `string'
PUBLIC	??_C@_0BI@CFPLBAOH@invalid?5string?5position?$AA@ ; `string'
PUBLIC	??_R1A@?0A@EA@exception@std@@8			; std::exception::`RTTI Base Class Descriptor at (0,-1,0,64)'
PUBLIC	??_R3exception@std@@8				; std::exception::`RTTI Class Hierarchy Descriptor'
PUBLIC	??_R2exception@std@@8				; std::exception::`RTTI Base Class Array'
PUBLIC	??_R4logic_error@std@@6B@			; std::logic_error::`RTTI Complete Object Locator'
PUBLIC	??_R3logic_error@std@@8				; std::logic_error::`RTTI Class Hierarchy Descriptor'
PUBLIC	??_R2logic_error@std@@8				; std::logic_error::`RTTI Base Class Array'
PUBLIC	??_R1A@?0A@EA@logic_error@std@@8		; std::logic_error::`RTTI Base Class Descriptor at (0,-1,0,64)'
PUBLIC	??_R4out_of_range@std@@6B@			; std::out_of_range::`RTTI Complete Object Locator'
PUBLIC	??_R3out_of_range@std@@8			; std::out_of_range::`RTTI Class Hierarchy Descriptor'
PUBLIC	??_R2out_of_range@std@@8			; std::out_of_range::`RTTI Base Class Array'
PUBLIC	??_R1A@?0A@EA@out_of_range@std@@8		; std::out_of_range::`RTTI Base Class Descriptor at (0,-1,0,64)'
PUBLIC	??_R4InvalidBufferException@@6B@		; InvalidBufferException::`RTTI Complete Object Locator'
PUBLIC	??_R3InvalidBufferException@@8			; InvalidBufferException::`RTTI Class Hierarchy Descriptor'
PUBLIC	??_R2InvalidBufferException@@8			; InvalidBufferException::`RTTI Base Class Array'
PUBLIC	??_R1A@?0A@EA@InvalidBufferException@@8		; InvalidBufferException::`RTTI Base Class Descriptor at (0,-1,0,64)'
PUBLIC	??_R4GroundTaskingManagerClass@@6B@		; GroundTaskingManagerClass::`RTTI Complete Object Locator'
PUBLIC	??_R0?AVGroundTaskingManagerClass@@@8		; GroundTaskingManagerClass `RTTI Type Descriptor'
PUBLIC	??_R3GroundTaskingManagerClass@@8		; GroundTaskingManagerClass::`RTTI Class Hierarchy Descriptor'
PUBLIC	??_R2GroundTaskingManagerClass@@8		; GroundTaskingManagerClass::`RTTI Base Class Array'
PUBLIC	??_R1A@?0A@EA@GroundTaskingManagerClass@@8	; GroundTaskingManagerClass::`RTTI Base Class Descriptor at (0,-1,0,64)'
PUBLIC	??_R1A@?0A@EA@CampManagerClass@@8		; CampManagerClass::`RTTI Base Class Descriptor at (0,-1,0,64)'
PUBLIC	??_R0?AVCampManagerClass@@@8			; CampManagerClass `RTTI Type Descriptor'
PUBLIC	??_R3CampManagerClass@@8			; CampManagerClass::`RTTI Class Hierarchy Descriptor'
PUBLIC	??_R2CampManagerClass@@8			; CampManagerClass::`RTTI Base Class Array'
PUBLIC	??_R1A@?0A@EA@FalconEntity@@8			; FalconEntity::`RTTI Base Class Descriptor at (0,-1,0,64)'
PUBLIC	??_R0?AVFalconEntity@@@8			; FalconEntity `RTTI Type Descriptor'
PUBLIC	??_R3FalconEntity@@8				; FalconEntity::`RTTI Class Hierarchy Descriptor'
PUBLIC	??_R2FalconEntity@@8				; FalconEntity::`RTTI Base Class Array'
PUBLIC	??_R1A@?0A@EA@VuEntity@@8			; VuEntity::`RTTI Base Class Descriptor at (0,-1,0,64)'
PUBLIC	??_R0?AVVuEntity@@@8				; VuEntity `RTTI Type Descriptor'
PUBLIC	??_R3VuEntity@@8				; VuEntity::`RTTI Class Hierarchy Descriptor'
PUBLIC	??_R2VuEntity@@8				; VuEntity::`RTTI Base Class Array'
PUBLIC	__real@00000000
PUBLIC	__real@3e4ccccd
PUBLIC	__real@40000000
PUBLIC	__real@41700000
PUBLIC	__real@42480000
PUBLIC	__real@42c80000
PUBLIC	__real@43480000
PUBLIC	__real@44610000
PUBLIC	__real@7f7fffff
PUBLIC	__real@bf800000
EXTRN	??2@YAPAXI@Z:PROC				; operator new
EXTRN	??3@YAXPAX@Z:PROC				; operator delete
EXTRN	_fread:PROC
EXTRN	_fwrite:PROC
EXTRN	_sprintf:PROC
EXTRN	_rand:PROC
EXTRN	_memcpy:PROC
EXTRN	_memset:PROC
EXTRN	_strlen:PROC
EXTRN	_memmove:PROC
EXTRN	?IsLocal@VuEntity@@QBEEXZ:PROC			; VuEntity::IsLocal
EXTRN	?CustomCollisionCheck@VuEntity@@UAEEPAV1@M@Z:PROC ; VuEntity::CustomCollisionCheck
EXTRN	?TerrainCollisionCheck@VuEntity@@UAEEXZ:PROC	; VuEntity::TerrainCollisionCheck
EXTRN	?IsTarget@VuEntity@@UAEEXZ:PROC			; VuEntity::IsTarget
EXTRN	?IsSession@VuEntity@@UAEEXZ:PROC		; VuEntity::IsSession
EXTRN	?IsGroup@VuEntity@@UAEEXZ:PROC			; VuEntity::IsGroup
EXTRN	?IsGame@VuEntity@@UAEEXZ:PROC			; VuEntity::IsGame
EXTRN	?IsCamera@VuEntity@@UBEEXZ:PROC			; VuEntity::IsCamera
EXTRN	?Handle@VuEntity@@UAEHPAVVuErrorMessage@@@Z:PROC ; VuEntity::Handle
EXTRN	?Handle@VuEntity@@UAEHPAVVuPushRequest@@@Z:PROC	; VuEntity::Handle
EXTRN	?Handle@VuEntity@@UAEHPAVVuPullRequest@@@Z:PROC	; VuEntity::Handle
EXTRN	?Handle@VuEntity@@UAEHPAVVuFullUpdateEvent@@@Z:PROC ; VuEntity::Handle
EXTRN	??0exception@std@@QAE@ABQBD@Z:PROC		; std::exception::exception
EXTRN	??0exception@std@@QAE@ABV01@@Z:PROC		; std::exception::exception
EXTRN	??1exception@std@@UAE@XZ:PROC			; std::exception::~exception
EXTRN	?what@exception@std@@UBEPBDXZ:PROC		; std::exception::what
EXTRN	??_U@YAPAXI@Z:PROC				; operator new[]
EXTRN	?_Xbad_alloc@std@@YAXXZ:PROC			; std::_Xbad_alloc
EXTRN	?_Xlength_error@std@@YAXPBD@Z:PROC		; std::_Xlength_error
EXTRN	?_Xout_of_range@std@@YAXPBD@Z:PROC		; std::_Xout_of_range
EXTRN	??_Elogic_error@std@@UAEPAXI@Z:PROC		; std::logic_error::`vector deleting destructor'
EXTRN	??_Eout_of_range@std@@UAEPAXI@Z:PROC		; std::out_of_range::`vector deleting destructor'
EXTRN	?Find@VuDatabase@@QBEPAVVuEntity@@VVU_ID@@@Z:PROC ; VuDatabase::Find
EXTRN	?Game@VuSessionEntity@@QAEPAVVuGameEntity@@XZ:PROC ; VuSessionEntity::Game
EXTRN	??0VuListIterator@@QAE@PAVVuLinkedList@@@Z:PROC	; VuListIterator::VuListIterator
EXTRN	??1VuListIterator@@UAE@XZ:PROC			; VuListIterator::~VuListIterator
EXTRN	?CleanupData@FalconEntity@@UAEXXZ:PROC		; FalconEntity::CleanupData
EXTRN	?GetDomain@FalconEntity@@UAEEXZ:PROC		; FalconEntity::GetDomain
EXTRN	?GetRadarType@FalconEntity@@UAEHXZ:PROC		; FalconEntity::GetRadarType
EXTRN	?GetDamageModifiers@FalconEntity@@UAEPAEXZ:PROC	; FalconEntity::GetDamageModifiers
EXTRN	?GetLocation@FalconEntity@@QBEXPAF0@Z:PROC	; FalconEntity::GetLocation
EXTRN	?OpenCampFile@@YAPAU_iobuf@@PAD00@Z:PROC	; OpenCampFile
EXTRN	?FalconSendMessage@@YAXPAVVuMessage@@H@Z:PROC	; FalconSendMessage
EXTRN	??_EInvalidBufferException@@UAEPAXI@Z:PROC	; InvalidBufferException::`vector deleting destructor'
EXTRN	?FindObjective@@YAPAVObjectiveClass@@VVU_ID@@@Z:PROC ; FindObjective
EXTRN	?IsPrimary@ObjectiveClass@@QAEHXZ:PROC		; ObjectiveClass::IsPrimary
EXTRN	?IsSecondary@ObjectiveClass@@QAEHXZ:PROC	; ObjectiveClass::IsSecondary
EXTRN	?SetNeedRepair@ObjectiveClass@@QAEXH@Z:PROC	; ObjectiveClass::SetNeedRepair
EXTRN	?GetObjectivePrimary@ObjectiveClass@@QAEPAV1@XZ:PROC ; ObjectiveClass::GetObjectivePrimary
EXTRN	?GetFirstObjective@@YAPAVObjectiveClass@@PAVVuListIterator@@@Z:PROC ; GetFirstObjective
EXTRN	?GetNextObjective@@YAPAVObjectiveClass@@PAVVuListIterator@@@Z:PROC ; GetNextObjective
EXTRN	?SelectGroundAction@TeamClass@@QAEXXZ:PROC	; TeamClass::SelectGroundAction
EXTRN	?GetRoE@@YAHEEH@Z:PROC				; GetRoE
EXTRN	?CloseCampFile@@YAXPAU_iobuf@@@Z:PROC		; CloseCampFile
EXTRN	?ReadCampFile@@YA?AUCampaignData@@PAD0@Z:PROC	; ReadCampFile
EXTRN	?SetAssigned@UnitClass@@QAEXH@Z:PROC		; UnitClass::SetAssigned
EXTRN	?SetOrdered@UnitClass@@QAEXH@Z:PROC		; UnitClass::SetOrdered
EXTRN	?GetTotalVehicles@UnitClass@@QAEHXZ:PROC	; UnitClass::GetTotalVehicles
EXTRN	?KillUnit@UnitClass@@QAEXXZ:PROC		; UnitClass::KillUnit
EXTRN	?GetUnitRoleScore@UnitClass@@QAEHHHH@Z:PROC	; UnitClass::GetUnitRoleScore
EXTRN	?GetFirstUnit@@YAPAVUnitClass@@PAVVuListIterator@@@Z:PROC ; GetFirstUnit
EXTRN	?GetNextUnit@@YAPAVUnitClass@@PAVVuListIterator@@@Z:PROC ; GetNextUnit
EXTRN	?DistSqu@@YAHFFFF@Z:PROC			; DistSqu
EXTRN	?Distance@@YAMFFFF@Z:PROC			; Distance
EXTRN	?DistanceToFront@@YAMFF@Z:PROC			; DistanceToFront
EXTRN	?FindNearestObjective@@YAPAVObjectiveClass@@FFPAM@Z:PROC ; FindNearestObjective
EXTRN	??0CampManagerClass@@QAE@GE@Z:PROC		; CampManagerClass::CampManagerClass
EXTRN	??0CampManagerClass@@QAE@PAPAEPAJ@Z:PROC	; CampManagerClass::CampManagerClass
EXTRN	??0CampManagerClass@@QAE@PAU_iobuf@@@Z:PROC	; CampManagerClass::CampManagerClass
EXTRN	??1CampManagerClass@@UAE@XZ:PROC		; CampManagerClass::~CampManagerClass
EXTRN	?InitData@CampManagerClass@@UAEXXZ:PROC		; CampManagerClass::InitData
EXTRN	?SaveSize@CampManagerClass@@UAEHXZ:PROC		; CampManagerClass::SaveSize
EXTRN	?Save@CampManagerClass@@UAEHPAPAE@Z:PROC	; CampManagerClass::Save
EXTRN	?Save@CampManagerClass@@UAEHPAU_iobuf@@@Z:PROC	; CampManagerClass::Save
EXTRN	?Handle@CampManagerClass@@UAEHPAVVuEvent@@@Z:PROC ; CampManagerClass::Handle
EXTRN	?Handle@CampManagerClass@@UAEHPAVVuPositionUpdateEvent@@@Z:PROC ; CampManagerClass::Handle
EXTRN	?Handle@CampManagerClass@@UAEHPAVVuEntityCollisionEvent@@@Z:PROC ; CampManagerClass::Handle
EXTRN	?Handle@CampManagerClass@@UAEHPAVVuTransferEvent@@@Z:PROC ; CampManagerClass::Handle
EXTRN	?Handle@CampManagerClass@@UAEHPAVVuSessionEvent@@@Z:PROC ; CampManagerClass::Handle
EXTRN	?InsertionCallback@CampManagerClass@@UAEHXZ:PROC ; CampManagerClass::InsertionCallback
EXTRN	?RemovalCallback@CampManagerClass@@UAEHXZ:PROC	; CampManagerClass::RemovalCallback
EXTRN	?FindATMAirbase@AirTaskingManagerClass@@QAEPAVATMAirbaseClass@@VVU_ID@@@Z:PROC ; AirTaskingManagerClass::FindATMAirbase
EXTRN	?GetDivisionByUnit@@YAPAVDivisionClass@@PAVUnitClass@@@Z:PROC ; GetDivisionByUnit
EXTRN	??0UnitScoreNode@@QAE@XZ:PROC			; UnitScoreNode::UnitScoreNode
EXTRN	?Insert@UnitScoreNode@@QAEPAV1@PAV1@H@Z:PROC	; UnitScoreNode::Insert
EXTRN	?Remove@UnitScoreNode@@QAEPAV1@PAV1@@Z:PROC	; UnitScoreNode::Remove
EXTRN	?Purge@UnitScoreNode@@QAEPAV1@XZ:PROC		; UnitScoreNode::Purge
EXTRN	??0GndObjDataType@@QAE@XZ:PROC			; GndObjDataType::GndObjDataType
EXTRN	?Insert@GndObjDataType@@QAEPAV1@PAV1@H@Z:PROC	; GndObjDataType::Insert
EXTRN	?Remove@GndObjDataType@@QAEPAV1@PAV1@@Z:PROC	; GndObjDataType::Remove
EXTRN	?Remove@GndObjDataType@@QAEPAV1@PAVObjectiveClass@@@Z:PROC ; GndObjDataType::Remove
EXTRN	?Purge@GndObjDataType@@QAEPAV1@XZ:PROC		; GndObjDataType::Purge
EXTRN	?Sort@GndObjDataType@@QAEPAV1@H@Z:PROC		; GndObjDataType::Sort
EXTRN	?InsertUnit@GndObjDataType@@QAEXPAVUnitClass@@HH@Z:PROC ; GndObjDataType::InsertUnit
EXTRN	?RemoveUnitFromAll@GndObjDataType@@QAEXPAVUnitClass@@@Z:PROC ; GndObjDataType::RemoveUnitFromAll
EXTRN	?GetPOData@@YAPAUPrimaryObjectiveData@@PAVObjectiveClass@@@Z:PROC ; GetPOData
EXTRN	?GetGroundRole@@YAHH@Z:PROC			; GetGroundRole
EXTRN	?GetGroundOrders@@YAHH@Z:PROC			; GetGroundOrders
EXTRN	??_EGroundTaskingManagerClass@@UAEPAXI@Z:PROC	; GroundTaskingManagerClass::`vector deleting destructor'
EXTRN	??0FalconGndTaskingMessage@@QAE@VVU_ID@@PAVVuTargetEntity@@E@Z:PROC ; FalconGndTaskingMessage::FalconGndTaskingMessage
EXTRN	??0FalconCampDataMessage@@QAE@VVU_ID@@PAVVuTargetEntity@@E@Z:PROC ; FalconCampDataMessage::FalconCampDataMessage
EXTRN	?AddStringToBuffer@@YAXPAD0@Z:PROC		; AddStringToBuffer
EXTRN	?ReadIndexedString@@YAXHPADH@Z:PROC		; ReadIndexedString
EXTRN	?FindUnitSupportRole@@YAHPAVUnitClass@@@Z:PROC	; FindUnitSupportRole
EXTRN	?CostToArrive@@YAMPAVUnitClass@@HFFPAVObjectiveClass@@@Z:PROC ; CostToArrive
EXTRN	@__security_check_cookie@4:PROC
EXTRN	__CxxThrowException@8:PROC
EXTRN	___CxxFrameHandler3:PROC
EXTRN	?vuDatabase@@3PAVVuDatabase@@A:DWORD		; vuDatabase
EXTRN	?vuLocalSessionEntity@@3V?$VuBin@VVuSessionEntity@@@@A:DWORD ; vuLocalSessionEntity
EXTRN	?FalconNullId@@3VVU_ID@@A:QWORD			; FalconNullId
EXTRN	??_7type_info@@6B@:QWORD			; type_info::`vftable'
EXTRN	?AllParentList@@3PAVVuLinkedList@@A:DWORD	; AllParentList
EXTRN	?AllObjList@@3PAVVuLinkedList@@A:DWORD		; AllObjList
EXTRN	?POList@@3PAVFalconPrivateOrderedList@@A:DWORD	; POList
EXTRN	?PODataList@@3PAVListClass@@A:DWORD		; PODataList
EXTRN	?TeamInfo@@3PAPAVTeamClass@@A:BYTE		; TeamInfo
EXTRN	?TheCampaign@@3VCampaignClass@@A:BYTE		; TheCampaign
EXTRN	?MIN_TASK_GROUND@@3FA:WORD			; MIN_TASK_GROUND
EXTRN	?OBJ_GROUND_PATH_MAX_COST@@3FA:WORD		; OBJ_GROUND_PATH_MAX_COST
EXTRN	___security_cookie:DWORD
EXTRN	__fltused:DWORD
_BSS	SEGMENT
_piecewise_construct DB 01H DUP (?)
	ALIGN	4

_allocator_arg DB 01H DUP (?)
_BSS	ENDS
CRT$XCU	SEGMENT
_piecewise_construct$initializer$ DD FLAT:??__Epiecewise_construct@std@@YAXXZ
CRT$XCU	ENDS
;	COMDAT __real@bf800000
CONST	SEGMENT
__real@bf800000 DD 0bf800000r			; -1
CONST	ENDS
;	COMDAT __real@7f7fffff
CONST	SEGMENT
__real@7f7fffff DD 07f7fffffr			; 3.40282e+038
CONST	ENDS
;	COMDAT __real@44610000
CONST	SEGMENT
__real@44610000 DD 044610000r			; 900
CONST	ENDS
;	COMDAT __real@43480000
CONST	SEGMENT
__real@43480000 DD 043480000r			; 200
CONST	ENDS
;	COMDAT __real@42c80000
CONST	SEGMENT
__real@42c80000 DD 042c80000r			; 100
CONST	ENDS
;	COMDAT __real@42480000
CONST	SEGMENT
__real@42480000 DD 042480000r			; 50
CONST	ENDS
;	COMDAT __real@41700000
CONST	SEGMENT
__real@41700000 DD 041700000r			; 15
CONST	ENDS
;	COMDAT __real@40000000
CONST	SEGMENT
__real@40000000 DD 040000000r			; 2
CONST	ENDS
;	COMDAT __real@3e4ccccd
CONST	SEGMENT
__real@3e4ccccd DD 03e4ccccdr			; 0.2
CONST	ENDS
;	COMDAT __real@00000000
CONST	SEGMENT
__real@00000000 DD 000000000r			; 0
CONST	ENDS
;	COMDAT ??_R2VuEntity@@8
rdata$r	SEGMENT
??_R2VuEntity@@8 DD FLAT:??_R1A@?0A@EA@VuEntity@@8	; VuEntity::`RTTI Base Class Array'
rdata$r	ENDS
;	COMDAT ??_R3VuEntity@@8
rdata$r	SEGMENT
??_R3VuEntity@@8 DD 00H					; VuEntity::`RTTI Class Hierarchy Descriptor'
	DD	00H
	DD	01H
	DD	FLAT:??_R2VuEntity@@8
rdata$r	ENDS
;	COMDAT ??_R0?AVVuEntity@@@8
_DATA	SEGMENT
??_R0?AVVuEntity@@@8 DD FLAT:??_7type_info@@6B@		; VuEntity `RTTI Type Descriptor'
	DD	00H
	DB	'.?AVVuEntity@@', 00H
_DATA	ENDS
;	COMDAT ??_R1A@?0A@EA@VuEntity@@8
rdata$r	SEGMENT
??_R1A@?0A@EA@VuEntity@@8 DD FLAT:??_R0?AVVuEntity@@@8	; VuEntity::`RTTI Base Class Descriptor at (0,-1,0,64)'
	DD	00H
	DD	00H
	DD	0ffffffffH
	DD	00H
	DD	040H
	DD	FLAT:??_R3VuEntity@@8
rdata$r	ENDS
;	COMDAT ??_R2FalconEntity@@8
rdata$r	SEGMENT
??_R2FalconEntity@@8 DD FLAT:??_R1A@?0A@EA@FalconEntity@@8 ; FalconEntity::`RTTI Base Class Array'
	DD	FLAT:??_R1A@?0A@EA@VuEntity@@8
rdata$r	ENDS
;	COMDAT ??_R3FalconEntity@@8
rdata$r	SEGMENT
??_R3FalconEntity@@8 DD 00H				; FalconEntity::`RTTI Class Hierarchy Descriptor'
	DD	00H
	DD	02H
	DD	FLAT:??_R2FalconEntity@@8
rdata$r	ENDS
;	COMDAT ??_R0?AVFalconEntity@@@8
_DATA	SEGMENT
??_R0?AVFalconEntity@@@8 DD FLAT:??_7type_info@@6B@	; FalconEntity `RTTI Type Descriptor'
	DD	00H
	DB	'.?AVFalconEntity@@', 00H
_DATA	ENDS
;	COMDAT ??_R1A@?0A@EA@FalconEntity@@8
rdata$r	SEGMENT
??_R1A@?0A@EA@FalconEntity@@8 DD FLAT:??_R0?AVFalconEntity@@@8 ; FalconEntity::`RTTI Base Class Descriptor at (0,-1,0,64)'
	DD	01H
	DD	00H
	DD	0ffffffffH
	DD	00H
	DD	040H
	DD	FLAT:??_R3FalconEntity@@8
rdata$r	ENDS
;	COMDAT ??_R2CampManagerClass@@8
rdata$r	SEGMENT
??_R2CampManagerClass@@8 DD FLAT:??_R1A@?0A@EA@CampManagerClass@@8 ; CampManagerClass::`RTTI Base Class Array'
	DD	FLAT:??_R1A@?0A@EA@FalconEntity@@8
	DD	FLAT:??_R1A@?0A@EA@VuEntity@@8
rdata$r	ENDS
;	COMDAT ??_R3CampManagerClass@@8
rdata$r	SEGMENT
??_R3CampManagerClass@@8 DD 00H				; CampManagerClass::`RTTI Class Hierarchy Descriptor'
	DD	00H
	DD	03H
	DD	FLAT:??_R2CampManagerClass@@8
rdata$r	ENDS
;	COMDAT ??_R0?AVCampManagerClass@@@8
_DATA	SEGMENT
??_R0?AVCampManagerClass@@@8 DD FLAT:??_7type_info@@6B@	; CampManagerClass `RTTI Type Descriptor'
	DD	00H
	DB	'.?AVCampManagerClass@@', 00H
_DATA	ENDS
;	COMDAT ??_R1A@?0A@EA@CampManagerClass@@8
rdata$r	SEGMENT
??_R1A@?0A@EA@CampManagerClass@@8 DD FLAT:??_R0?AVCampManagerClass@@@8 ; CampManagerClass::`RTTI Base Class Descriptor at (0,-1,0,64)'
	DD	02H
	DD	00H
	DD	0ffffffffH
	DD	00H
	DD	040H
	DD	FLAT:??_R3CampManagerClass@@8
rdata$r	ENDS
;	COMDAT ??_R1A@?0A@EA@GroundTaskingManagerClass@@8
rdata$r	SEGMENT
??_R1A@?0A@EA@GroundTaskingManagerClass@@8 DD FLAT:??_R0?AVGroundTaskingManagerClass@@@8 ; GroundTaskingManagerClass::`RTTI Base Class Descriptor at (0,-1,0,64)'
	DD	03H
	DD	00H
	DD	0ffffffffH
	DD	00H
	DD	040H
	DD	FLAT:??_R3GroundTaskingManagerClass@@8
rdata$r	ENDS
;	COMDAT ??_R2GroundTaskingManagerClass@@8
rdata$r	SEGMENT
??_R2GroundTaskingManagerClass@@8 DD FLAT:??_R1A@?0A@EA@GroundTaskingManagerClass@@8 ; GroundTaskingManagerClass::`RTTI Base Class Array'
	DD	FLAT:??_R1A@?0A@EA@CampManagerClass@@8
	DD	FLAT:??_R1A@?0A@EA@FalconEntity@@8
	DD	FLAT:??_R1A@?0A@EA@VuEntity@@8
rdata$r	ENDS
;	COMDAT ??_R3GroundTaskingManagerClass@@8
rdata$r	SEGMENT
??_R3GroundTaskingManagerClass@@8 DD 00H		; GroundTaskingManagerClass::`RTTI Class Hierarchy Descriptor'
	DD	00H
	DD	04H
	DD	FLAT:??_R2GroundTaskingManagerClass@@8
rdata$r	ENDS
;	COMDAT ??_R0?AVGroundTaskingManagerClass@@@8
_DATA	SEGMENT
??_R0?AVGroundTaskingManagerClass@@@8 DD FLAT:??_7type_info@@6B@ ; GroundTaskingManagerClass `RTTI Type Descriptor'
	DD	00H
	DB	'.?AVGroundTaskingManagerClass@@', 00H
_DATA	ENDS
;	COMDAT ??_R4GroundTaskingManagerClass@@6B@
rdata$r	SEGMENT
??_R4GroundTaskingManagerClass@@6B@ DD 00H		; GroundTaskingManagerClass::`RTTI Complete Object Locator'
	DD	00H
	DD	00H
	DD	FLAT:??_R0?AVGroundTaskingManagerClass@@@8
	DD	FLAT:??_R3GroundTaskingManagerClass@@8
rdata$r	ENDS
;	COMDAT ??_R1A@?0A@EA@InvalidBufferException@@8
rdata$r	SEGMENT
??_R1A@?0A@EA@InvalidBufferException@@8 DD FLAT:??_R0?AVInvalidBufferException@@@8 ; InvalidBufferException::`RTTI Base Class Descriptor at (0,-1,0,64)'
	DD	03H
	DD	00H
	DD	0ffffffffH
	DD	00H
	DD	040H
	DD	FLAT:??_R3InvalidBufferException@@8
rdata$r	ENDS
;	COMDAT ??_R2InvalidBufferException@@8
rdata$r	SEGMENT
??_R2InvalidBufferException@@8 DD FLAT:??_R1A@?0A@EA@InvalidBufferException@@8 ; InvalidBufferException::`RTTI Base Class Array'
	DD	FLAT:??_R1A@?0A@EA@out_of_range@std@@8
	DD	FLAT:??_R1A@?0A@EA@logic_error@std@@8
	DD	FLAT:??_R1A@?0A@EA@exception@std@@8
rdata$r	ENDS
;	COMDAT ??_R3InvalidBufferException@@8
rdata$r	SEGMENT
??_R3InvalidBufferException@@8 DD 00H			; InvalidBufferException::`RTTI Class Hierarchy Descriptor'
	DD	00H
	DD	04H
	DD	FLAT:??_R2InvalidBufferException@@8
rdata$r	ENDS
;	COMDAT ??_R4InvalidBufferException@@6B@
rdata$r	SEGMENT
??_R4InvalidBufferException@@6B@ DD 00H			; InvalidBufferException::`RTTI Complete Object Locator'
	DD	00H
	DD	00H
	DD	FLAT:??_R0?AVInvalidBufferException@@@8
	DD	FLAT:??_R3InvalidBufferException@@8
rdata$r	ENDS
;	COMDAT ??_R1A@?0A@EA@out_of_range@std@@8
rdata$r	SEGMENT
??_R1A@?0A@EA@out_of_range@std@@8 DD FLAT:??_R0?AVout_of_range@std@@@8 ; std::out_of_range::`RTTI Base Class Descriptor at (0,-1,0,64)'
	DD	02H
	DD	00H
	DD	0ffffffffH
	DD	00H
	DD	040H
	DD	FLAT:??_R3out_of_range@std@@8
rdata$r	ENDS
;	COMDAT ??_R2out_of_range@std@@8
rdata$r	SEGMENT
??_R2out_of_range@std@@8 DD FLAT:??_R1A@?0A@EA@out_of_range@std@@8 ; std::out_of_range::`RTTI Base Class Array'
	DD	FLAT:??_R1A@?0A@EA@logic_error@std@@8
	DD	FLAT:??_R1A@?0A@EA@exception@std@@8
rdata$r	ENDS
;	COMDAT ??_R3out_of_range@std@@8
rdata$r	SEGMENT
??_R3out_of_range@std@@8 DD 00H				; std::out_of_range::`RTTI Class Hierarchy Descriptor'
	DD	00H
	DD	03H
	DD	FLAT:??_R2out_of_range@std@@8
rdata$r	ENDS
;	COMDAT ??_R4out_of_range@std@@6B@
rdata$r	SEGMENT
??_R4out_of_range@std@@6B@ DD 00H			; std::out_of_range::`RTTI Complete Object Locator'
	DD	00H
	DD	00H
	DD	FLAT:??_R0?AVout_of_range@std@@@8
	DD	FLAT:??_R3out_of_range@std@@8
rdata$r	ENDS
;	COMDAT ??_R1A@?0A@EA@logic_error@std@@8
rdata$r	SEGMENT
??_R1A@?0A@EA@logic_error@std@@8 DD FLAT:??_R0?AVlogic_error@std@@@8 ; std::logic_error::`RTTI Base Class Descriptor at (0,-1,0,64)'
	DD	01H
	DD	00H
	DD	0ffffffffH
	DD	00H
	DD	040H
	DD	FLAT:??_R3logic_error@std@@8
rdata$r	ENDS
;	COMDAT ??_R2logic_error@std@@8
rdata$r	SEGMENT
??_R2logic_error@std@@8 DD FLAT:??_R1A@?0A@EA@logic_error@std@@8 ; std::logic_error::`RTTI Base Class Array'
	DD	FLAT:??_R1A@?0A@EA@exception@std@@8
rdata$r	ENDS
;	COMDAT ??_R3logic_error@std@@8
rdata$r	SEGMENT
??_R3logic_error@std@@8 DD 00H				; std::logic_error::`RTTI Class Hierarchy Descriptor'
	DD	00H
	DD	02H
	DD	FLAT:??_R2logic_error@std@@8
rdata$r	ENDS
;	COMDAT ??_R4logic_error@std@@6B@
rdata$r	SEGMENT
??_R4logic_error@std@@6B@ DD 00H			; std::logic_error::`RTTI Complete Object Locator'
	DD	00H
	DD	00H
	DD	FLAT:??_R0?AVlogic_error@std@@@8
	DD	FLAT:??_R3logic_error@std@@8
rdata$r	ENDS
;	COMDAT ??_R2exception@std@@8
rdata$r	SEGMENT
??_R2exception@std@@8 DD FLAT:??_R1A@?0A@EA@exception@std@@8 ; std::exception::`RTTI Base Class Array'
rdata$r	ENDS
;	COMDAT ??_R3exception@std@@8
rdata$r	SEGMENT
??_R3exception@std@@8 DD 00H				; std::exception::`RTTI Class Hierarchy Descriptor'
	DD	00H
	DD	01H
	DD	FLAT:??_R2exception@std@@8
rdata$r	ENDS
;	COMDAT ??_R1A@?0A@EA@exception@std@@8
rdata$r	SEGMENT
??_R1A@?0A@EA@exception@std@@8 DD FLAT:??_R0?AVexception@std@@@8 ; std::exception::`RTTI Base Class Descriptor at (0,-1,0,64)'
	DD	00H
	DD	00H
	DD	0ffffffffH
	DD	00H
	DD	040H
	DD	FLAT:??_R3exception@std@@8
rdata$r	ENDS
;	COMDAT ??_C@_0BI@CFPLBAOH@invalid?5string?5position?$AA@
CONST	SEGMENT
??_C@_0BI@CFPLBAOH@invalid?5string?5position?$AA@ DB 'invalid string posi'
	DB	'tion', 00H					; `string'
CONST	ENDS
;	COMDAT ??_C@_0BA@JFNIOLAK@string?5too?5long?$AA@
CONST	SEGMENT
??_C@_0BA@JFNIOLAK@string?5too?5long?$AA@ DB 'string too long', 00H ; `string'
CONST	ENDS
;	COMDAT ??_C@_03DPEHCIMJ@pol?$AA@
CONST	SEGMENT
??_C@_03DPEHCIMJ@pol?$AA@ DB 'pol', 00H			; `string'
CONST	ENDS
;	COMDAT ??_C@_02GMLFBBN@wb?$AA@
CONST	SEGMENT
??_C@_02GMLFBBN@wb?$AA@ DB 'wb', 00H			; `string'
CONST	ENDS
;	COMDAT ??_7GroundTaskingManagerClass@@6B@
CONST	SEGMENT
??_7GroundTaskingManagerClass@@6B@ DD FLAT:??_R4GroundTaskingManagerClass@@6B@ ; GroundTaskingManagerClass::`vftable'
	DD	FLAT:?CustomCollisionCheck@VuEntity@@UAEEPAV1@M@Z
	DD	FLAT:?TerrainCollisionCheck@VuEntity@@UAEEXZ
	DD	FLAT:?IsTarget@VuEntity@@UAEEXZ
	DD	FLAT:?IsSession@VuEntity@@UAEEXZ
	DD	FLAT:?IsGroup@VuEntity@@UAEEXZ
	DD	FLAT:?IsGame@VuEntity@@UAEEXZ
	DD	FLAT:?IsCamera@VuEntity@@UBEEXZ
	DD	FLAT:?SaveSize@GroundTaskingManagerClass@@UAEHXZ
	DD	FLAT:?Save@GroundTaskingManagerClass@@UAEHPAU_iobuf@@@Z
	DD	FLAT:?Save@GroundTaskingManagerClass@@UAEHPAPAE@Z
	DD	FLAT:?Handle@CampManagerClass@@UAEHPAVVuSessionEvent@@@Z
	DD	FLAT:?Handle@CampManagerClass@@UAEHPAVVuTransferEvent@@@Z
	DD	FLAT:?Handle@CampManagerClass@@UAEHPAVVuEntityCollisionEvent@@@Z
	DD	FLAT:?Handle@CampManagerClass@@UAEHPAVVuPositionUpdateEvent@@@Z
	DD	FLAT:?Handle@GroundTaskingManagerClass@@UAEHPAVVuFullUpdateEvent@@@Z
	DD	FLAT:?Handle@CampManagerClass@@UAEHPAVVuEvent@@@Z
	DD	FLAT:?Handle@VuEntity@@UAEHPAVVuPullRequest@@@Z
	DD	FLAT:?Handle@VuEntity@@UAEHPAVVuPushRequest@@@Z
	DD	FLAT:?Handle@VuEntity@@UAEHPAVVuErrorMessage@@@Z
	DD	FLAT:??_EGroundTaskingManagerClass@@UAEPAXI@Z
	DD	FLAT:?InsertionCallback@CampManagerClass@@UAEHXZ
	DD	FLAT:?RemovalCallback@CampManagerClass@@UAEHXZ
	DD	FLAT:?InitData@CampManagerClass@@UAEXXZ
	DD	FLAT:?CleanupData@FalconEntity@@UAEXXZ
	DD	FLAT:?IsSimBase@FalconEntity@@UAE_NXZ
	DD	FLAT:?IsCampBase@FalconEntity@@UAE_NXZ
	DD	FLAT:?Wake@CampManagerClass@@UAEHXZ
	DD	FLAT:?Sleep@CampManagerClass@@UAEHXZ
	DD	FLAT:?GetCampID@CampManagerClass@@UAEFXZ
	DD	FLAT:?GetTeam@CampManagerClass@@UAEEXZ
	DD	FLAT:?GetCountry@CampManagerClass@@UAEEXZ
	DD	FLAT:?GetDomain@FalconEntity@@UAEEXZ
	DD	FLAT:?GetRadarMode@FalconEntity@@UAEHXZ
	DD	FLAT:?SetRadarMode@FalconEntity@@UAEXE@Z
	DD	FLAT:?ReturnToSearch@FalconEntity@@UAEXXZ
	DD	FLAT:?SetSearchMode@FalconEntity@@UAEXE@Z
	DD	FLAT:?CombatClass@FalconEntity@@UAEHXZ
	DD	FLAT:?OnGround@FalconEntity@@UAEHXZ
	DD	FLAT:?HasEntity@FalconEntity@@UBEHPAVVuEntity@@@Z
	DD	FLAT:?IsMissile@FalconEntity@@UAEHXZ
	DD	FLAT:?IsLauncher@FalconEntity@@UAEHXZ
	DD	FLAT:?IsBomb@FalconEntity@@UAEHXZ
	DD	FLAT:?IsGun@FalconEntity@@UAEHXZ
	DD	FLAT:?IsMover@FalconEntity@@UAEHXZ
	DD	FLAT:?IsVehicle@FalconEntity@@UAEHXZ
	DD	FLAT:?IsStatic@FalconEntity@@UAEHXZ
	DD	FLAT:?IsHelicopter@FalconEntity@@UAEHXZ
	DD	FLAT:?IsEject@FalconEntity@@UAEHXZ
	DD	FLAT:?IsAirplane@FalconEntity@@UAEHXZ
	DD	FLAT:?IsGroundVehicle@FalconEntity@@UAEHXZ
	DD	FLAT:?IsShip@FalconEntity@@UAEHXZ
	DD	FLAT:?IsWeapon@FalconEntity@@UAEHXZ
	DD	FLAT:?IsExploding@FalconEntity@@UAEHXZ
	DD	FLAT:?IsDead@FalconEntity@@UAEHXZ
	DD	FLAT:?IsEmitting@FalconEntity@@UAEHXZ
	DD	FLAT:?GetVt@CampManagerClass@@UBEMXZ
	DD	FLAT:?GetKias@CampManagerClass@@UBEMXZ
	DD	FLAT:?GetMovementType@FalconEntity@@UAE?AW4MoveType@@XZ
	DD	FLAT:?IsUnit@FalconEntity@@UAEHXZ
	DD	FLAT:?IsObjective@FalconEntity@@UAEHXZ
	DD	FLAT:?IsBattalion@FalconEntity@@UAEHXZ
	DD	FLAT:?IsBrigade@FalconEntity@@UAEHXZ
	DD	FLAT:?IsFlight@FalconEntity@@UBEHXZ
	DD	FLAT:?IsSquadron@FalconEntity@@UAEHXZ
	DD	FLAT:?IsPackage@FalconEntity@@UAEHXZ
	DD	FLAT:?IsTeam@FalconEntity@@UAEHXZ
	DD	FLAT:?IsTaskForce@FalconEntity@@UAEHXZ
	DD	FLAT:?IsSPJamming@FalconEntity@@UAEHXZ
	DD	FLAT:?IsAreaJamming@FalconEntity@@UAEHXZ
	DD	FLAT:?HasSPJamming@FalconEntity@@UAEHXZ
	DD	FLAT:?HasAreaJamming@FalconEntity@@UAEHXZ
	DD	FLAT:?GetRCSFactor@FalconEntity@@UAEMXZ
	DD	FLAT:?GetIRFactor@FalconEntity@@UAEMXZ
	DD	FLAT:?GetRadarType@FalconEntity@@UAEHXZ
	DD	FLAT:?GetDamageModifiers@FalconEntity@@UAEPAEXZ
	DD	FLAT:?SetAQUIREtimer@FalconEntity@@UAEXK@Z
	DD	FLAT:?SetSEARCHtimer@FalconEntity@@UAEXK@Z
	DD	FLAT:?SetStepSearchMode@FalconEntity@@UAEXE@Z
	DD	FLAT:?GetAQUIREtimer@FalconEntity@@UAEKXZ
	DD	FLAT:?GetSEARCHtimer@FalconEntity@@UAEKXZ
	DD	FLAT:?Task@GroundTaskingManagerClass@@UAEHXZ
	DD	FLAT:?DoCalculations@GroundTaskingManagerClass@@UAEXXZ
CONST	ENDS
;	COMDAT __CT??_R0?AVexception@std@@@8??0exception@std@@QAE@ABV01@@Z12
xdata$x	SEGMENT
__CT??_R0?AVexception@std@@@8??0exception@std@@QAE@ABV01@@Z12 DD 00H
	DD	FLAT:??_R0?AVexception@std@@@8
	DD	00H
	DD	0ffffffffH
	ORG $+4
	DD	0cH
	DD	FLAT:??0exception@std@@QAE@ABV01@@Z
xdata$x	ENDS
;	COMDAT ??_R0?AVexception@std@@@8
_DATA	SEGMENT
??_R0?AVexception@std@@@8 DD FLAT:??_7type_info@@6B@	; std::exception `RTTI Type Descriptor'
	DD	00H
	DB	'.?AVexception@std@@', 00H
_DATA	ENDS
;	COMDAT __CT??_R0?AVlogic_error@std@@@8??0logic_error@std@@QAE@ABV01@@Z12
xdata$x	SEGMENT
__CT??_R0?AVlogic_error@std@@@8??0logic_error@std@@QAE@ABV01@@Z12 DD 00H
	DD	FLAT:??_R0?AVlogic_error@std@@@8
	DD	00H
	DD	0ffffffffH
	ORG $+4
	DD	0cH
	DD	FLAT:??0logic_error@std@@QAE@ABV01@@Z
xdata$x	ENDS
;	COMDAT ??_R0?AVlogic_error@std@@@8
_DATA	SEGMENT
??_R0?AVlogic_error@std@@@8 DD FLAT:??_7type_info@@6B@	; std::logic_error `RTTI Type Descriptor'
	DD	00H
	DB	'.?AVlogic_error@std@@', 00H
_DATA	ENDS
;	COMDAT __CT??_R0?AVout_of_range@std@@@8??0out_of_range@std@@QAE@ABV01@@Z12
xdata$x	SEGMENT
__CT??_R0?AVout_of_range@std@@@8??0out_of_range@std@@QAE@ABV01@@Z12 DD 00H
	DD	FLAT:??_R0?AVout_of_range@std@@@8
	DD	00H
	DD	0ffffffffH
	ORG $+4
	DD	0cH
	DD	FLAT:??0out_of_range@std@@QAE@ABV01@@Z
xdata$x	ENDS
;	COMDAT ??_R0?AVout_of_range@std@@@8
_DATA	SEGMENT
??_R0?AVout_of_range@std@@@8 DD FLAT:??_7type_info@@6B@	; std::out_of_range `RTTI Type Descriptor'
	DD	00H
	DB	'.?AVout_of_range@std@@', 00H
_DATA	ENDS
;	COMDAT __CT??_R0?AVInvalidBufferException@@@8??0InvalidBufferException@@QAE@ABV0@@Z12
xdata$x	SEGMENT
__CT??_R0?AVInvalidBufferException@@@8??0InvalidBufferException@@QAE@ABV0@@Z12 DD 00H
	DD	FLAT:??_R0?AVInvalidBufferException@@@8
	DD	00H
	DD	0ffffffffH
	ORG $+4
	DD	0cH
	DD	FLAT:??0InvalidBufferException@@QAE@ABV0@@Z
xdata$x	ENDS
;	COMDAT ??_R0?AVInvalidBufferException@@@8
_DATA	SEGMENT
??_R0?AVInvalidBufferException@@@8 DD FLAT:??_7type_info@@6B@ ; InvalidBufferException `RTTI Type Descriptor'
	DD	00H
	DB	'.?AVInvalidBufferException@@', 00H
_DATA	ENDS
;	COMDAT __CTA4?AVInvalidBufferException@@
xdata$x	SEGMENT
__CTA4?AVInvalidBufferException@@ DD 04H
	DD	FLAT:__CT??_R0?AVInvalidBufferException@@@8??0InvalidBufferException@@QAE@ABV0@@Z12
	DD	FLAT:__CT??_R0?AVout_of_range@std@@@8??0out_of_range@std@@QAE@ABV01@@Z12
	DD	FLAT:__CT??_R0?AVlogic_error@std@@@8??0logic_error@std@@QAE@ABV01@@Z12
	DD	FLAT:__CT??_R0?AVexception@std@@@8??0exception@std@@QAE@ABV01@@Z12
xdata$x	ENDS
;	COMDAT __TI4?AVInvalidBufferException@@
xdata$x	SEGMENT
__TI4?AVInvalidBufferException@@ DD 00H
	DD	FLAT:??1InvalidBufferException@@UAE@XZ
	DD	00H
	DD	FLAT:__CTA4?AVInvalidBufferException@@
xdata$x	ENDS
;	COMDAT ??_C@_0CI@MPKJAHJH@Trying?5to?5write?5?$CFlu?5bytes?5to?5?$CFld@
CONST	SEGMENT
??_C@_0CI@MPKJAHJH@Trying?5to?5write?5?$CFlu?5bytes?5to?5?$CFld@ DB 'Tryi'
	DB	'ng to write %lu bytes to %ld buffer', 00H	; `string'
CONST	ENDS
;	COMDAT ??_7InvalidBufferException@@6B@
CONST	SEGMENT
??_7InvalidBufferException@@6B@ DD FLAT:??_R4InvalidBufferException@@6B@ ; InvalidBufferException::`vftable'
	DD	FLAT:??_EInvalidBufferException@@UAEPAXI@Z
	DD	FLAT:?what@exception@std@@UBEPBDXZ
CONST	ENDS
;	COMDAT ??_7out_of_range@std@@6B@
CONST	SEGMENT
??_7out_of_range@std@@6B@ DD FLAT:??_R4out_of_range@std@@6B@ ; std::out_of_range::`vftable'
	DD	FLAT:??_Eout_of_range@std@@UAEPAXI@Z
	DD	FLAT:?what@exception@std@@UBEPBDXZ
CONST	ENDS
;	COMDAT ??_7logic_error@std@@6B@
CONST	SEGMENT
??_7logic_error@std@@6B@ DD FLAT:??_R4logic_error@std@@6B@ ; std::logic_error::`vftable'
	DD	FLAT:??_Elogic_error@std@@UAEPAXI@Z
	DD	FLAT:?what@exception@std@@UBEPBDXZ
CONST	ENDS
;	COMDAT xdata$x
xdata$x	SEGMENT
__unwindtable$??$construct@PADAAPAD@?$allocator@D@std@@QAEXPAPADAAPAD@Z DD 0ffffffffH
	DD	FLAT:__unwindfunclet$??$construct@PADAAPAD@?$allocator@D@std@@QAEXPAPADAAPAD@Z$0
__ehfuncinfo$??$construct@PADAAPAD@?$allocator@D@std@@QAEXPAPADAAPAD@Z DD 019930522H
	DD	01H
	DD	FLAT:__unwindtable$??$construct@PADAAPAD@?$allocator@D@std@@QAEXPAPADAAPAD@Z
	DD	2 DUP(00H)
	DD	2 DUP(00H)
	DD	00H
	DD	01H
xdata$x	ENDS
xdata$x	SEGMENT
__unwindtable$?SendPrimaryObjectiveList@@YAXE@Z DD 0ffffffffH
	DD	FLAT:__unwindfunclet$?SendPrimaryObjectiveList@@YAXE@Z$0
__unwindtable$?RequestEngineer@GroundTaskingManagerClass@@QAEXPAVObjectiveClass@@H@Z DD 0ffffffffH
	DD	FLAT:__unwindfunclet$?RequestEngineer@GroundTaskingManagerClass@@QAEXPAVObjectiveClass@@H@Z$0
__unwindtable$?SendGTMMessage@GroundTaskingManagerClass@@QAEXVVU_ID@@FFF0@Z DD 0ffffffffH
	DD	FLAT:__unwindfunclet$?SendGTMMessage@GroundTaskingManagerClass@@QAEXVVU_ID@@FFF0@Z$0
__unwindtable$?AddToList@GroundTaskingManagerClass@@QAEXPAVUnitClass@@H@Z DD 0ffffffffH
	DD	FLAT:__unwindfunclet$?AddToList@GroundTaskingManagerClass@@QAEXPAVUnitClass@@H@Z$0
__unwindtable$?CollectGroundAssets@GroundTaskingManagerClass@@QAEHH@Z DD 0ffffffffH
	DD	FLAT:__unwindfunclet$?CollectGroundAssets@GroundTaskingManagerClass@@QAEHH@Z$0
__unwindtable$?DoCalculations@GroundTaskingManagerClass@@UAEXXZ DD 0ffffffffH
	DD	FLAT:__unwindfunclet$?DoCalculations@GroundTaskingManagerClass@@UAEXXZ$0
__unwindtable$??0GroundTaskingManagerClass@@QAE@PAPAEPAJ@Z DD 0ffffffffH
	DD	FLAT:__unwindfunclet$??0GroundTaskingManagerClass@@QAE@PAPAEPAJ@Z$0
__unwindtable$?BuildObjectiveLists@GroundTaskingManagerClass@@QAEHH@Z DD 0ffffffffH
	DD	FLAT:__unwindfunclet$?BuildObjectiveLists@GroundTaskingManagerClass@@QAEHH@Z$0
	DD	00H
	DD	FLAT:__unwindfunclet$?BuildObjectiveLists@GroundTaskingManagerClass@@QAEHH@Z$1
	DD	00H
	DD	FLAT:__unwindfunclet$?BuildObjectiveLists@GroundTaskingManagerClass@@QAEHH@Z$2
__ehfuncinfo$?SendPrimaryObjectiveList@@YAXE@Z DD 019930522H
	DD	01H
	DD	FLAT:__unwindtable$?SendPrimaryObjectiveList@@YAXE@Z
	DD	2 DUP(00H)
	DD	2 DUP(00H)
	DD	00H
	DD	01H
__ehfuncinfo$?RequestEngineer@GroundTaskingManagerClass@@QAEXPAVObjectiveClass@@H@Z DD 019930522H
	DD	01H
	DD	FLAT:__unwindtable$?RequestEngineer@GroundTaskingManagerClass@@QAEXPAVObjectiveClass@@H@Z
	DD	2 DUP(00H)
	DD	2 DUP(00H)
	DD	00H
	DD	01H
__ehfuncinfo$?SendGTMMessage@GroundTaskingManagerClass@@QAEXVVU_ID@@FFF0@Z DD 019930522H
	DD	01H
	DD	FLAT:__unwindtable$?SendGTMMessage@GroundTaskingManagerClass@@QAEXVVU_ID@@FFF0@Z
	DD	2 DUP(00H)
	DD	2 DUP(00H)
	DD	00H
	DD	01H
__ehfuncinfo$?AddToList@GroundTaskingManagerClass@@QAEXPAVUnitClass@@H@Z DD 019930522H
	DD	01H
	DD	FLAT:__unwindtable$?AddToList@GroundTaskingManagerClass@@QAEXPAVUnitClass@@H@Z
	DD	2 DUP(00H)
	DD	2 DUP(00H)
	DD	00H
	DD	01H
__ehfuncinfo$?CollectGroundAssets@GroundTaskingManagerClass@@QAEHH@Z DD 019930522H
	DD	01H
	DD	FLAT:__unwindtable$?CollectGroundAssets@GroundTaskingManagerClass@@QAEHH@Z
	DD	2 DUP(00H)
	DD	2 DUP(00H)
	DD	00H
	DD	01H
__ehfuncinfo$?BuildObjectiveLists@GroundTaskingManagerClass@@QAEHH@Z DD 019930522H
	DD	03H
	DD	FLAT:__unwindtable$?BuildObjectiveLists@GroundTaskingManagerClass@@QAEHH@Z
	DD	2 DUP(00H)
	DD	2 DUP(00H)
	DD	00H
	DD	01H
__ehfuncinfo$?DoCalculations@GroundTaskingManagerClass@@UAEXXZ DD 019930522H
	DD	01H
	DD	FLAT:__unwindtable$?DoCalculations@GroundTaskingManagerClass@@UAEXXZ
	DD	2 DUP(00H)
	DD	2 DUP(00H)
	DD	00H
	DD	01H
__ehfuncinfo$??0GroundTaskingManagerClass@@QAE@PAPAEPAJ@Z DD 019930522H
	DD	01H
	DD	FLAT:__unwindtable$??0GroundTaskingManagerClass@@QAE@PAPAEPAJ@Z
	DD	2 DUP(00H)
	DD	2 DUP(00H)
	DD	00H
	DD	01H
xdata$x	ENDS
;	COMDAT xdata$x
xdata$x	SEGMENT
__unwindtable$?memcpychk@@YAXPAXPAPAEIPAJ@Z DD 0ffffffffH
	DD	FLAT:__unwindfunclet$?memcpychk@@YAXPAXPAPAEIPAJ@Z$0
__ehfuncinfo$?memcpychk@@YAXPAXPAPAEIPAJ@Z DD 019930522H
	DD	01H
	DD	FLAT:__unwindtable$?memcpychk@@YAXPAXPAPAEIPAJ@Z
	DD	2 DUP(00H)
	DD	2 DUP(00H)
	DD	00H
	DD	01H
xdata$x	ENDS
;	COMDAT xdata$x
xdata$x	SEGMENT
__catchsym$?_Copy@?$basic_string@DU?$char_traits@D@std@@V?$allocator@D@2@@std@@QAEXII@Z$5 DD 040H
	DD	00H
	DD	00H
	DD	FLAT:__catch$?_Copy@?$basic_string@DU?$char_traits@D@std@@V?$allocator@D@2@@std@@QAEXII@Z$0
__catchsym$?_Copy@?$basic_string@DU?$char_traits@D@std@@V?$allocator@D@2@@std@@QAEXII@Z$4 DD 040H
	DD	00H
	DD	00H
	DD	FLAT:__catch$?_Copy@?$basic_string@DU?$char_traits@D@std@@V?$allocator@D@2@@std@@QAEXII@Z$1
__unwindtable$?_Copy@?$basic_string@DU?$char_traits@D@std@@V?$allocator@D@2@@std@@QAEXII@Z DD 0ffffffffH
	DD	00H
	DD	0ffffffffH
	DD	00H
	DD	01H
	DD	00H
	DD	01H
	DD	00H
__ehfuncinfo$?_Copy@?$basic_string@DU?$char_traits@D@std@@V?$allocator@D@2@@std@@QAEXII@Z DD 019930522H
	DD	04H
	DD	FLAT:__unwindtable$?_Copy@?$basic_string@DU?$char_traits@D@std@@V?$allocator@D@2@@std@@QAEXII@Z
	DD	02H
	DD	FLAT:__tryblocktable$?_Copy@?$basic_string@DU?$char_traits@D@std@@V?$allocator@D@2@@std@@QAEXII@Z
	DD	2 DUP(00H)
	DD	00H
	DD	01H
__tryblocktable$?_Copy@?$basic_string@DU?$char_traits@D@std@@V?$allocator@D@2@@std@@QAEXII@Z DD 02H
	DD	02H
	DD	03H
	DD	01H
	DD	FLAT:__catchsym$?_Copy@?$basic_string@DU?$char_traits@D@std@@V?$allocator@D@2@@std@@QAEXII@Z$4
	DD	00H
	DD	00H
	DD	03H
	DD	01H
	DD	FLAT:__catchsym$?_Copy@?$basic_string@DU?$char_traits@D@std@@V?$allocator@D@2@@std@@QAEXII@Z$5
xdata$x	ENDS
CRT$XCU	SEGMENT
_allocator_arg$initializer$ DD FLAT:??__Eallocator_arg@std@@YAXXZ
CRT$XCU	ENDS
; Function compile flags: /Odtp
; File c:\program files (x86)\microsoft visual studio 11.0\vc\include\xmemory0
;	COMDAT ??$construct@PADAAPAD@?$allocator@D@std@@QAEXPAPADAAPAD@Z
_TEXT	SEGMENT
$T2 = -28						; size = 4
_this$ = -24						; size = 4
tv73 = -20						; size = 4
$T3 = -16						; size = 4
__$EHRec$ = -12						; size = 12
__Ptr$ = 8						; size = 4
__V0$ = 12						; size = 4
??$construct@PADAAPAD@?$allocator@D@std@@QAEXPAPADAAPAD@Z PROC ; std::allocator<char>::construct<char *,char * &>, COMDAT
; _this$ = ecx

; 617  : _VARIADIC_EXPAND_0X(_ALLOC_MEMBER_CONSTRUCT, , , , )

	push	ebp
	mov	ebp, esp
	push	-1
	push	__ehhandler$??$construct@PADAAPAD@?$allocator@D@std@@QAEXPAPADAAPAD@Z
	mov	eax, DWORD PTR fs:0
	push	eax
	sub	esp, 16					; 00000010H
	mov	eax, DWORD PTR ___security_cookie
	xor	eax, ebp
	push	eax
	lea	eax, DWORD PTR __$EHRec$[ebp]
	mov	DWORD PTR fs:0, eax
	mov	DWORD PTR _this$[ebp], ecx
	mov	eax, DWORD PTR __Ptr$[ebp]
	push	eax
	push	4
	call	??2@YAPAXIPAX@Z				; operator new
	add	esp, 8
	mov	DWORD PTR $T3[ebp], eax
	mov	DWORD PTR __$EHRec$[ebp+8], 0
	cmp	DWORD PTR $T3[ebp], 0
	je	SHORT $LN3@construct
	mov	ecx, DWORD PTR __V0$[ebp]
	push	ecx
	call	??$forward@AAPAD@std@@YAAAPADAAPAD@Z	; std::forward<char * &>
	add	esp, 4
	mov	edx, DWORD PTR $T3[ebp]
	mov	eax, DWORD PTR [eax]
	mov	DWORD PTR [edx], eax
	mov	ecx, DWORD PTR $T3[ebp]
	mov	DWORD PTR tv73[ebp], ecx
	jmp	SHORT $LN4@construct
$LN3@construct:
	mov	DWORD PTR tv73[ebp], 0
$LN4@construct:
	mov	edx, DWORD PTR tv73[ebp]
	mov	DWORD PTR $T2[ebp], edx
	mov	DWORD PTR __$EHRec$[ebp+8], -1
	mov	ecx, DWORD PTR __$EHRec$[ebp]
	mov	DWORD PTR fs:0, ecx
	pop	ecx
	mov	esp, ebp
	pop	ebp
	ret	8
_TEXT	ENDS
;	COMDAT text$x
text$x	SEGMENT
__unwindfunclet$??$construct@PADAAPAD@?$allocator@D@std@@QAEXPAPADAAPAD@Z$0:
	mov	eax, DWORD PTR __Ptr$[ebp]
	push	eax
	mov	eax, DWORD PTR $T3[ebp]
	push	eax
	call	??3@YAXPAX0@Z				; operator delete
	add	esp, 8
	ret	0
__ehhandler$??$construct@PADAAPAD@?$allocator@D@std@@QAEXPAPADAAPAD@Z:
	mov	edx, DWORD PTR [esp+8]
	lea	eax, DWORD PTR [edx+12]
	mov	ecx, DWORD PTR [edx-20]
	xor	ecx, eax
	call	@__security_check_cookie@4
	mov	eax, OFFSET __ehfuncinfo$??$construct@PADAAPAD@?$allocator@D@std@@QAEXPAPADAAPAD@Z
	jmp	___CxxFrameHandler3
text$x	ENDS
??$construct@PADAAPAD@?$allocator@D@std@@QAEXPAPADAAPAD@Z ENDP ; std::allocator<char>::construct<char *,char * &>
; Function compile flags: /Odtp
; File c:\program files (x86)\microsoft visual studio 11.0\vc\include\xmemory0
;	COMDAT ??$destroy@PAD@?$allocator@D@std@@QAEXPAPAD@Z
_TEXT	SEGMENT
_this$ = -4						; size = 4
__Ptr$ = 8						; size = 4
??$destroy@PAD@?$allocator@D@std@@QAEXPAPAD@Z PROC	; std::allocator<char>::destroy<char *>, COMDAT
; _this$ = ecx

; 621  : 		void destroy(_Uty *_Ptr)

	push	ebp
	mov	ebp, esp
	push	ecx
	mov	DWORD PTR _this$[ebp], ecx

; 622  : 		{	// destroy object at _Ptr
; 623  : 		_Ptr->~_Uty();
; 624  : 		}

	mov	esp, ebp
	pop	ebp
	ret	4
??$destroy@PAD@?$allocator@D@std@@QAEXPAPAD@Z ENDP	; std::allocator<char>::destroy<char *>
_TEXT	ENDS
; Function compile flags: /Odtp
; File c:\program files (x86)\microsoft visual studio 11.0\vc\include\xmemory0
;	COMDAT ??$construct@PADAAPAD@?$allocator_traits@V?$allocator@D@std@@@std@@SAXAAV?$allocator@D@1@PAPADAAPAD@Z
_TEXT	SEGMENT
__Al$ = 8						; size = 4
__Ptr$ = 12						; size = 4
__V0$ = 16						; size = 4
??$construct@PADAAPAD@?$allocator_traits@V?$allocator@D@std@@@std@@SAXAAV?$allocator@D@1@PAPADAAPAD@Z PROC ; std::allocator_traits<std::allocator<char> >::construct<char *,char * &>, COMDAT

; 751  : _VARIADIC_EXPAND_0X(_ALLOC_TRAITS_SPECIAL_CONSTRUCT, , , , )

	push	ebp
	mov	ebp, esp
	mov	eax, DWORD PTR __V0$[ebp]
	push	eax
	call	??$forward@AAPAD@std@@YAAAPADAAPAD@Z	; std::forward<char * &>
	add	esp, 4
	push	eax
	mov	ecx, DWORD PTR __Ptr$[ebp]
	push	ecx
	mov	ecx, DWORD PTR __Al$[ebp]
	call	??$construct@PADAAPAD@?$allocator@D@std@@QAEXPAPADAAPAD@Z ; std::allocator<char>::construct<char *,char * &>
	pop	ebp
	ret	0
??$construct@PADAAPAD@?$allocator_traits@V?$allocator@D@std@@@std@@SAXAAV?$allocator@D@1@PAPADAAPAD@Z ENDP ; std::allocator_traits<std::allocator<char> >::construct<char *,char * &>
_TEXT	ENDS
; Function compile flags: /Odtp
; File c:\program files (x86)\microsoft visual studio 11.0\vc\include\type_traits
;	COMDAT ??$forward@AAPAD@std@@YAAAPADAAPAD@Z
_TEXT	SEGMENT
__Arg$ = 8						; size = 4
??$forward@AAPAD@std@@YAAAPADAAPAD@Z PROC		; std::forward<char * &>, COMDAT

; 1775 : 	{	// forward an lvalue

	push	ebp
	mov	ebp, esp

; 1776 : 	return (static_cast<_Ty&&>(_Arg));

	mov	eax, DWORD PTR __Arg$[ebp]

; 1777 : 	}

	pop	ebp
	ret	0
??$forward@AAPAD@std@@YAAAPADAAPAD@Z ENDP		; std::forward<char * &>
_TEXT	ENDS
; Function compile flags: /Odtp
; File c:\program files (x86)\microsoft visual studio 11.0\vc\include\xmemory0
;	COMDAT ??$destroy@PAD@?$allocator_traits@V?$allocator@D@std@@@std@@SAXAAV?$allocator@D@1@PAPAD@Z
_TEXT	SEGMENT
__Al$ = 8						; size = 4
__Ptr$ = 12						; size = 4
??$destroy@PAD@?$allocator_traits@V?$allocator@D@std@@@std@@SAXAAV?$allocator@D@1@PAPAD@Z PROC ; std::allocator_traits<std::allocator<char> >::destroy<char *>, COMDAT

; 755  : 		static void destroy(_Alloc& _Al, _Uty *_Ptr)

	push	ebp
	mov	ebp, esp

; 756  : 		{	// destroy object at _Ptr
; 757  : 		_Al.destroy(_Ptr);

	mov	eax, DWORD PTR __Ptr$[ebp]
	push	eax
	mov	ecx, DWORD PTR __Al$[ebp]
	call	??$destroy@PAD@?$allocator@D@std@@QAEXPAPAD@Z ; std::allocator<char>::destroy<char *>

; 758  : 		}

	pop	ebp
	ret	0
??$destroy@PAD@?$allocator_traits@V?$allocator@D@std@@@std@@SAXAAV?$allocator@D@1@PAPAD@Z ENDP ; std::allocator_traits<std::allocator<char> >::destroy<char *>
_TEXT	ENDS
; Function compile flags: /Odtp
; File c:\program files (x86)\microsoft visual studio 11.0\vc\include\xmemory0
;	COMDAT ??$_Allocate@D@std@@YAPADIPAD@Z
_TEXT	SEGMENT
__Ptr$ = -4						; size = 4
__Count$ = 8						; size = 4
___formal$ = 12						; size = 4
??$_Allocate@D@std@@YAPADIPAD@Z PROC			; std::_Allocate<char>, COMDAT

; 22   : 	{	// allocate storage for _Count elements of type _Ty

	push	ebp
	mov	ebp, esp
	push	ecx

; 23   : 	void *_Ptr = 0;

	mov	DWORD PTR __Ptr$[ebp], 0

; 24   : 
; 25   : 	if (_Count == 0)

	cmp	DWORD PTR __Count$[ebp], 0
	jne	SHORT $LN4@Allocate

; 26   : 		;
; 27   : 	else if (((size_t)(-1) / sizeof (_Ty) < _Count)

	jmp	SHORT $LN3@Allocate
$LN4@Allocate:

; 28   : 		|| (_Ptr = ::operator new(_Count * sizeof (_Ty))) == 0)

	cmp	DWORD PTR __Count$[ebp], -1
	ja	SHORT $LN1@Allocate
	mov	eax, DWORD PTR __Count$[ebp]
	push	eax
	call	??2@YAPAXI@Z				; operator new
	add	esp, 4
	mov	DWORD PTR __Ptr$[ebp], eax
	cmp	DWORD PTR __Ptr$[ebp], 0
	jne	SHORT $LN3@Allocate
$LN1@Allocate:

; 29   : 		_Xbad_alloc();	// report no memory

	call	?_Xbad_alloc@std@@YAXXZ			; std::_Xbad_alloc
$LN3@Allocate:

; 30   : 
; 31   : 	return ((_Ty *)_Ptr);

	mov	eax, DWORD PTR __Ptr$[ebp]
$LN6@Allocate:

; 32   : 	}

	mov	esp, ebp
	pop	ebp
	ret	0
??$_Allocate@D@std@@YAPADIPAD@Z ENDP			; std::_Allocate<char>
_TEXT	ENDS
; Function compile flags: /Odtp
; File c:\program files (x86)\microsoft visual studio 11.0\vc\include\xmemory0
;	COMDAT ??$construct@PADAAPAD@?$_Wrap_alloc@V?$allocator@D@std@@@std@@QAEXPAPADAAPAD@Z
_TEXT	SEGMENT
_this$ = -4						; size = 4
__Ptr$ = 8						; size = 4
__V0$ = 12						; size = 4
??$construct@PADAAPAD@?$_Wrap_alloc@V?$allocator@D@std@@@std@@QAEXPAPADAAPAD@Z PROC ; std::_Wrap_alloc<std::allocator<char> >::construct<char *,char * &>, COMDAT
; _this$ = ecx

; 903  : _VARIADIC_EXPAND_0X(_WRAP_ALLOC_CONSTRUCT, , , , )

	push	ebp
	mov	ebp, esp
	push	ecx
	mov	DWORD PTR _this$[ebp], ecx
	mov	eax, DWORD PTR __V0$[ebp]
	push	eax
	call	??$forward@AAPAD@std@@YAAAPADAAPAD@Z	; std::forward<char * &>
	add	esp, 4
	push	eax
	mov	ecx, DWORD PTR __Ptr$[ebp]
	push	ecx
	mov	edx, DWORD PTR _this$[ebp]
	push	edx
	call	??$construct@PADAAPAD@?$allocator_traits@V?$allocator@D@std@@@std@@SAXAAV?$allocator@D@1@PAPADAAPAD@Z ; std::allocator_traits<std::allocator<char> >::construct<char *,char * &>
	add	esp, 12					; 0000000cH
	mov	esp, ebp
	pop	ebp
	ret	8
??$construct@PADAAPAD@?$_Wrap_alloc@V?$allocator@D@std@@@std@@QAEXPAPADAAPAD@Z ENDP ; std::_Wrap_alloc<std::allocator<char> >::construct<char *,char * &>
_TEXT	ENDS
; Function compile flags: /Odtp
; File c:\program files (x86)\microsoft visual studio 11.0\vc\include\xstddef
;	COMDAT ??$addressof@D@std@@YAPADAAD@Z
_TEXT	SEGMENT
__Val$ = 8						; size = 4
??$addressof@D@std@@YAPADAAD@Z PROC			; std::addressof<char>, COMDAT

; 85   : 	{	// return address of _Val

	push	ebp
	mov	ebp, esp

; 86   : 	return (reinterpret_cast<_Ty *>(
; 87   : 		(&const_cast<char&>(
; 88   : 		reinterpret_cast<const volatile char&>(_Val)))));

	mov	eax, DWORD PTR __Val$[ebp]

; 89   : 	}

	pop	ebp
	ret	0
??$addressof@D@std@@YAPADAAD@Z ENDP			; std::addressof<char>
_TEXT	ENDS
; Function compile flags: /Odtp
; File c:\program files (x86)\microsoft visual studio 11.0\vc\include\xmemory0
;	COMDAT ??$destroy@PAD@?$_Wrap_alloc@V?$allocator@D@std@@@std@@QAEXPAPAD@Z
_TEXT	SEGMENT
_this$ = -4						; size = 4
__Ptr$ = 8						; size = 4
??$destroy@PAD@?$_Wrap_alloc@V?$allocator@D@std@@@std@@QAEXPAPAD@Z PROC ; std::_Wrap_alloc<std::allocator<char> >::destroy<char *>, COMDAT
; _this$ = ecx

; 907  : 		void destroy(_Ty *_Ptr)

	push	ebp
	mov	ebp, esp
	push	ecx
	mov	DWORD PTR _this$[ebp], ecx

; 908  : 		{	// destroy object at _Ptr
; 909  : 		_Mytraits::destroy(*this, _Ptr);

	mov	eax, DWORD PTR __Ptr$[ebp]
	push	eax
	mov	ecx, DWORD PTR _this$[ebp]
	push	ecx
	call	??$destroy@PAD@?$allocator_traits@V?$allocator@D@std@@@std@@SAXAAV?$allocator@D@1@PAPAD@Z ; std::allocator_traits<std::allocator<char> >::destroy<char *>
	add	esp, 8

; 910  : 		}

	mov	esp, ebp
	pop	ebp
	ret	4
??$destroy@PAD@?$_Wrap_alloc@V?$allocator@D@std@@@std@@QAEXPAPAD@Z ENDP ; std::_Wrap_alloc<std::allocator<char> >::destroy<char *>
_TEXT	ENDS
; Function compile flags: /Odtp
; File c:\users\zhitao li\documents\visual studio 2012\projects\freefalcon\campaign\camptask\gtm.cpp
_TEXT	SEGMENT
tv64 = -4						; size = 4
_orders$ = 8						; size = 4
_os$ = 12						; size = 4
_ss$ = 16						; size = 4
_ps$ = 20						; size = 4
_pps$ = 24						; size = 4
_fs$ = 28						; size = 4
?ScoreObj@@YAHHHHHHH@Z PROC				; ScoreObj

; 492  : {

	push	ebp
	mov	ebp, esp
	push	ecx

; 493  : 	switch (orders)

	mov	eax, DWORD PTR _orders$[ebp]
	mov	DWORD PTR tv64[ebp], eax
	mov	ecx, DWORD PTR tv64[ebp]
	sub	ecx, 1
	mov	DWORD PTR tv64[ebp], ecx
	cmp	DWORD PTR tv64[ebp], 10			; 0000000aH
	ja	SHORT $LN3@ScoreObj
	mov	edx, DWORD PTR tv64[ebp]
	movzx	eax, BYTE PTR $LN13@ScoreObj[edx]
	jmp	DWORD PTR $LN14@ScoreObj[eax*4]
$LN8@ScoreObj:

; 494  : 	{
; 495  : 			case GORD_CAPTURE:
; 496  : 			case GORD_SECURE:
; 497  : 			case GORD_ASSAULT:
; 498  : 			case GORD_AIRBORNE:
; 499  : 			case GORD_DEFEND:
; 500  : 			case GORD_RECON:
; 501  : 					return os + ss + ps - fs;

	mov	eax, DWORD PTR _os$[ebp]
	add	eax, DWORD PTR _ss$[ebp]
	add	eax, DWORD PTR _ps$[ebp]
	sub	eax, DWORD PTR _fs$[ebp]
	jmp	SHORT $LN11@ScoreObj

; 502  : 					break;

	jmp	SHORT $LN9@ScoreObj
$LN7@ScoreObj:

; 503  : 			case GORD_SUPPORT:
; 504  : 					return os - fs;

	mov	eax, DWORD PTR _os$[ebp]
	sub	eax, DWORD PTR _fs$[ebp]
	jmp	SHORT $LN11@ScoreObj

; 505  : 					break;

	jmp	SHORT $LN9@ScoreObj
$LN6@ScoreObj:

; 506  : 			case GORD_COMMANDO:
; 507  : 			case GORD_RADAR:
; 508  : 					return os;

	mov	eax, DWORD PTR _os$[ebp]
	jmp	SHORT $LN11@ScoreObj

; 509  : 					break;

	jmp	SHORT $LN9@ScoreObj
$LN5@ScoreObj:

; 510  : 			case GORD_REPAIR:
; 511  : 					return os + ss + ps;

	mov	eax, DWORD PTR _os$[ebp]
	add	eax, DWORD PTR _ss$[ebp]
	add	eax, DWORD PTR _ps$[ebp]
	jmp	SHORT $LN11@ScoreObj

; 512  : 					break;

	jmp	SHORT $LN9@ScoreObj
$LN4@ScoreObj:

; 513  : 			case GORD_AIRDEFENSE:
; 514  : 					return os + ss + ps;

	mov	eax, DWORD PTR _os$[ebp]
	add	eax, DWORD PTR _ss$[ebp]
	add	eax, DWORD PTR _ps$[ebp]
	jmp	SHORT $LN11@ScoreObj

; 515  : 					break;

	jmp	SHORT $LN9@ScoreObj
$LN3@ScoreObj:

; 516  : 			case GORD_RESERVE:
; 517  : 			default:
; 518  : 					// KCK EXPERIMENTAL: Only assign reserve objectives which are near the front
; 519  : 					if (fs > 60 || fs < 20)

	cmp	DWORD PTR _fs$[ebp], 60			; 0000003cH
	jg	SHORT $LN1@ScoreObj
	cmp	DWORD PTR _fs$[ebp], 20			; 00000014H
	jge	SHORT $LN2@ScoreObj
$LN1@ScoreObj:

; 520  : 						return 0;

	xor	eax, eax
	jmp	SHORT $LN11@ScoreObj
$LN2@ScoreObj:

; 521  : 					// END EXPERIMENTAL
; 522  : 					return ss + ps*2 - fs*4;

	mov	ecx, DWORD PTR _ps$[ebp]
	mov	edx, DWORD PTR _ss$[ebp]
	lea	eax, DWORD PTR [edx+ecx*2]
	mov	ecx, DWORD PTR _fs$[ebp]
	shl	ecx, 2
	sub	eax, ecx
	jmp	SHORT $LN11@ScoreObj
$LN9@ScoreObj:

; 523  : 					break;
; 524  : 	}
; 525  : 	return 0;

	xor	eax, eax
$LN11@ScoreObj:

; 526  : }

	mov	esp, ebp
	pop	ebp
	ret	0
	npad	2
$LN14@ScoreObj:
	DD	$LN8@ScoreObj
	DD	$LN6@ScoreObj
	DD	$LN7@ScoreObj
	DD	$LN5@ScoreObj
	DD	$LN4@ScoreObj
$LN13@ScoreObj:
	DB	0
	DB	0
	DB	0
	DB	0
	DB	1
	DB	0
	DB	2
	DB	3
	DB	4
	DB	0
	DB	1
?ScoreObj@@YAHHHHHHH@Z ENDP				; ScoreObj
_TEXT	ENDS
; Function compile flags: /Odtp
; File c:\users\zhitao li\documents\visual studio 2012\projects\freefalcon\campaign\camptask\gtm.cpp
_TEXT	SEGMENT
_i$ = -92						; size = 4
_o$ = -88						; size = 4
_tmp$ = -84						; size = 80
__$ArrayPad$ = -4					; size = 4
_team$ = 8						; size = 4
_buffers$ = 12						; size = 4
?GetTopPriorityObjectives@@YAHHQAPAD@Z PROC		; GetTopPriorityObjectives

; 1113 : {

	push	ebp
	mov	ebp, esp
	sub	esp, 92					; 0000005cH
	mov	eax, DWORD PTR ___security_cookie
	xor	eax, ebp
	mov	DWORD PTR __$ArrayPad$[ebp], eax

; 1114 : 	Objective		o;
; 1115 : 	_TCHAR			tmp[80];
; 1116 : 	int				i;
; 1117 : 
; 1118 : 	for (i=0; i<COLLECTABLE_HP_OBJECTIVES; i++)

	mov	DWORD PTR _i$[ebp], 0
	jmp	SHORT $LN12@GetTopPrio
$LN11@GetTopPrio:
	mov	eax, DWORD PTR _i$[ebp]
	add	eax, 1
	mov	DWORD PTR _i$[ebp], eax
$LN12@GetTopPrio:
	cmp	DWORD PTR _i$[ebp], 5
	jge	SHORT $LN10@GetTopPrio

; 1119 : 		buffers[i][0] = 0;

	mov	ecx, 1
	imul	ecx, 0
	mov	edx, DWORD PTR _i$[ebp]
	mov	eax, DWORD PTR _buffers$[ebp]
	mov	edx, DWORD PTR [eax+edx*4]
	mov	BYTE PTR [ecx+edx], 0
	jmp	SHORT $LN11@GetTopPrio
$LN10@GetTopPrio:

; 1120 : 
; 1121 : 	// JB 010121
; 1122 : 	if (!TeamInfo[team])

	mov	eax, DWORD PTR _team$[ebp]
	cmp	DWORD PTR ?TeamInfo@@3PAPAVTeamClass@@A[eax*4], 0
	jne	SHORT $LN9@GetTopPrio

; 1123 : 		return 0;

	xor	eax, eax
	jmp	$LN13@GetTopPrio
$LN9@GetTopPrio:

; 1124 : 
; 1125 : 	o = (Objective) vuDatabase->Find(TeamInfo[team]->GetDefensiveAirAction()->actionObjective);

	mov	ecx, DWORD PTR _team$[ebp]
	mov	ecx, DWORD PTR ?TeamInfo@@3PAPAVTeamClass@@A[ecx*4]
	call	?GetDefensiveAirAction@TeamClass@@QAEPAUTeamAirActionType@@XZ ; TeamClass::GetDefensiveAirAction
	mov	edx, DWORD PTR [eax+12]
	push	edx
	mov	eax, DWORD PTR [eax+8]
	push	eax
	mov	ecx, DWORD PTR ?vuDatabase@@3PAVVuDatabase@@A ; vuDatabase
	call	?Find@VuDatabase@@QBEPAVVuEntity@@VVU_ID@@@Z ; VuDatabase::Find
	mov	DWORD PTR _o$[ebp], eax

; 1126 : 	if (o && TeamInfo[team]->GetDefensiveAirAction()->actionType == AACTION_DCA)

	cmp	DWORD PTR _o$[ebp], 0
	je	SHORT $LN8@GetTopPrio
	mov	ecx, DWORD PTR _team$[ebp]
	mov	ecx, DWORD PTR ?TeamInfo@@3PAPAVTeamClass@@A[ecx*4]
	call	?GetDefensiveAirAction@TeamClass@@QAEPAUTeamAirActionType@@XZ ; TeamClass::GetDefensiveAirAction
	movzx	edx, BYTE PTR [eax+24]
	cmp	edx, 1
	jne	SHORT $LN8@GetTopPrio

; 1127 : 		o->GetFullName(tmp,79,FALSE);

	push	0
	push	79					; 0000004fH
	lea	eax, DWORD PTR _tmp$[ebp]
	push	eax
	mov	ecx, DWORD PTR _o$[ebp]
	mov	edx, DWORD PTR [ecx]
	mov	ecx, DWORD PTR _o$[ebp]
	mov	eax, DWORD PTR [edx+384]
	call	eax

; 1128 : 	else

	jmp	SHORT $LN7@GetTopPrio
$LN8@GetTopPrio:

; 1129 : 		ReadIndexedString(300, tmp, 10);

	push	10					; 0000000aH
	lea	ecx, DWORD PTR _tmp$[ebp]
	push	ecx
	push	300					; 0000012cH
	call	?ReadIndexedString@@YAXHPADH@Z		; ReadIndexedString
	add	esp, 12					; 0000000cH
$LN7@GetTopPrio:

; 1130 : 	AddStringToBuffer(tmp,buffers[0]);

	mov	edx, 4
	imul	edx, 0
	mov	eax, DWORD PTR _buffers$[ebp]
	mov	ecx, DWORD PTR [eax+edx]
	push	ecx
	lea	edx, DWORD PTR _tmp$[ebp]
	push	edx
	call	?AddStringToBuffer@@YAXPAD0@Z		; AddStringToBuffer
	add	esp, 8

; 1131 : 
; 1132 : 	o = (Objective) vuDatabase->Find(TeamInfo[team]->GetOffensiveAirAction()->actionObjective);

	mov	eax, DWORD PTR _team$[ebp]
	mov	ecx, DWORD PTR ?TeamInfo@@3PAPAVTeamClass@@A[eax*4]
	call	?GetOffensiveAirAction@TeamClass@@QAEPAUTeamAirActionType@@XZ ; TeamClass::GetOffensiveAirAction
	mov	ecx, DWORD PTR [eax+12]
	push	ecx
	mov	edx, DWORD PTR [eax+8]
	push	edx
	mov	ecx, DWORD PTR ?vuDatabase@@3PAVVuDatabase@@A ; vuDatabase
	call	?Find@VuDatabase@@QBEPAVVuEntity@@VVU_ID@@@Z ; VuDatabase::Find
	mov	DWORD PTR _o$[ebp], eax

; 1133 : 	if (o && TeamInfo[team]->GetOffensiveAirAction()->actionType)

	cmp	DWORD PTR _o$[ebp], 0
	je	SHORT $LN6@GetTopPrio
	mov	eax, DWORD PTR _team$[ebp]
	mov	ecx, DWORD PTR ?TeamInfo@@3PAPAVTeamClass@@A[eax*4]
	call	?GetOffensiveAirAction@TeamClass@@QAEPAUTeamAirActionType@@XZ ; TeamClass::GetOffensiveAirAction
	movzx	ecx, BYTE PTR [eax+24]
	test	ecx, ecx
	je	SHORT $LN6@GetTopPrio

; 1134 : 		o->GetFullName(tmp,79,FALSE);

	push	0
	push	79					; 0000004fH
	lea	edx, DWORD PTR _tmp$[ebp]
	push	edx
	mov	eax, DWORD PTR _o$[ebp]
	mov	edx, DWORD PTR [eax]
	mov	ecx, DWORD PTR _o$[ebp]
	mov	eax, DWORD PTR [edx+384]
	call	eax

; 1135 : 	else

	jmp	SHORT $LN5@GetTopPrio
$LN6@GetTopPrio:

; 1136 : 		ReadIndexedString(300, tmp, 10);

	push	10					; 0000000aH
	lea	ecx, DWORD PTR _tmp$[ebp]
	push	ecx
	push	300					; 0000012cH
	call	?ReadIndexedString@@YAXHPADH@Z		; ReadIndexedString
	add	esp, 12					; 0000000cH
$LN5@GetTopPrio:

; 1137 : 	AddStringToBuffer(tmp,buffers[1]);

	mov	edx, 4
	shl	edx, 0
	mov	eax, DWORD PTR _buffers$[ebp]
	mov	ecx, DWORD PTR [eax+edx]
	push	ecx
	lea	edx, DWORD PTR _tmp$[ebp]
	push	edx
	call	?AddStringToBuffer@@YAXPAD0@Z		; AddStringToBuffer
	add	esp, 8

; 1138 : 
; 1139 : 	o = (Objective) vuDatabase->Find(TeamInfo[team]->GetGroundAction()->actionObjective);

	mov	eax, DWORD PTR _team$[ebp]
	mov	ecx, DWORD PTR ?TeamInfo@@3PAPAVTeamClass@@A[eax*4]
	call	?GetGroundAction@TeamClass@@QAEPAUTeamGndActionType@@XZ ; TeamClass::GetGroundAction
	mov	ecx, DWORD PTR [eax+12]
	push	ecx
	mov	edx, DWORD PTR [eax+8]
	push	edx
	mov	ecx, DWORD PTR ?vuDatabase@@3PAVVuDatabase@@A ; vuDatabase
	call	?Find@VuDatabase@@QBEPAVVuEntity@@VVU_ID@@@Z ; VuDatabase::Find
	mov	DWORD PTR _o$[ebp], eax

; 1140 : 	if (o && TeamInfo[team]->GetGroundAction()->actionType < GACTION_MINOROFFENSIVE)

	cmp	DWORD PTR _o$[ebp], 0
	je	SHORT $LN4@GetTopPrio
	mov	eax, DWORD PTR _team$[ebp]
	mov	ecx, DWORD PTR ?TeamInfo@@3PAPAVTeamClass@@A[eax*4]
	call	?GetGroundAction@TeamClass@@QAEPAUTeamGndActionType@@XZ ; TeamClass::GetGroundAction
	movzx	ecx, BYTE PTR [eax+16]
	cmp	ecx, 3
	jge	SHORT $LN4@GetTopPrio

; 1141 : 		o->GetFullName(tmp,79,FALSE);

	push	0
	push	79					; 0000004fH
	lea	edx, DWORD PTR _tmp$[ebp]
	push	edx
	mov	eax, DWORD PTR _o$[ebp]
	mov	edx, DWORD PTR [eax]
	mov	ecx, DWORD PTR _o$[ebp]
	mov	eax, DWORD PTR [edx+384]
	call	eax

; 1142 : 	else

	jmp	SHORT $LN3@GetTopPrio
$LN4@GetTopPrio:

; 1143 : 		ReadIndexedString(300, tmp, 10);

	push	10					; 0000000aH
	lea	ecx, DWORD PTR _tmp$[ebp]
	push	ecx
	push	300					; 0000012cH
	call	?ReadIndexedString@@YAXHPADH@Z		; ReadIndexedString
	add	esp, 12					; 0000000cH
$LN3@GetTopPrio:

; 1144 : 	AddStringToBuffer(tmp,buffers[2]);

	mov	edx, 4
	shl	edx, 1
	mov	eax, DWORD PTR _buffers$[ebp]
	mov	ecx, DWORD PTR [eax+edx]
	push	ecx
	lea	edx, DWORD PTR _tmp$[ebp]
	push	edx
	call	?AddStringToBuffer@@YAXPAD0@Z		; AddStringToBuffer
	add	esp, 8

; 1145 : 
; 1146 : 	o = (Objective) vuDatabase->Find(TeamInfo[team]->GetGroundAction()->actionObjective);

	mov	eax, DWORD PTR _team$[ebp]
	mov	ecx, DWORD PTR ?TeamInfo@@3PAPAVTeamClass@@A[eax*4]
	call	?GetGroundAction@TeamClass@@QAEPAUTeamGndActionType@@XZ ; TeamClass::GetGroundAction
	mov	ecx, DWORD PTR [eax+12]
	push	ecx
	mov	edx, DWORD PTR [eax+8]
	push	edx
	mov	ecx, DWORD PTR ?vuDatabase@@3PAVVuDatabase@@A ; vuDatabase
	call	?Find@VuDatabase@@QBEPAVVuEntity@@VVU_ID@@@Z ; VuDatabase::Find
	mov	DWORD PTR _o$[ebp], eax

; 1147 : 	if (o && TeamInfo[team]->GetGroundAction()->actionType >= GACTION_MINOROFFENSIVE)

	cmp	DWORD PTR _o$[ebp], 0
	je	SHORT $LN2@GetTopPrio
	mov	eax, DWORD PTR _team$[ebp]
	mov	ecx, DWORD PTR ?TeamInfo@@3PAPAVTeamClass@@A[eax*4]
	call	?GetGroundAction@TeamClass@@QAEPAUTeamGndActionType@@XZ ; TeamClass::GetGroundAction
	movzx	ecx, BYTE PTR [eax+16]
	cmp	ecx, 3
	jl	SHORT $LN2@GetTopPrio

; 1148 : 		o->GetFullName(tmp,79,FALSE);

	push	0
	push	79					; 0000004fH
	lea	edx, DWORD PTR _tmp$[ebp]
	push	edx
	mov	eax, DWORD PTR _o$[ebp]
	mov	edx, DWORD PTR [eax]
	mov	ecx, DWORD PTR _o$[ebp]
	mov	eax, DWORD PTR [edx+384]
	call	eax

; 1149 : 	else

	jmp	SHORT $LN1@GetTopPrio
$LN2@GetTopPrio:

; 1150 : 		ReadIndexedString(300, tmp, 10);

	push	10					; 0000000aH
	lea	ecx, DWORD PTR _tmp$[ebp]
	push	ecx
	push	300					; 0000012cH
	call	?ReadIndexedString@@YAXHPADH@Z		; ReadIndexedString
	add	esp, 12					; 0000000cH
$LN1@GetTopPrio:

; 1151 : 	AddStringToBuffer(tmp,buffers[3]);

	mov	edx, 4
	imul	edx, 3
	mov	eax, DWORD PTR _buffers$[ebp]
	mov	ecx, DWORD PTR [eax+edx]
	push	ecx
	lea	edx, DWORD PTR _tmp$[ebp]
	push	edx
	call	?AddStringToBuffer@@YAXPAD0@Z		; AddStringToBuffer
	add	esp, 8

; 1152 : 
; 1153 : 	return 4;

	mov	eax, 4
$LN13@GetTopPrio:

; 1154 : }

	mov	ecx, DWORD PTR __$ArrayPad$[ebp]
	xor	ecx, ebp
	call	@__security_check_cookie@4
	mov	esp, ebp
	pop	ebp
	ret	0
?GetTopPriorityObjectives@@YAHHQAPAD@Z ENDP		; GetTopPriorityObjectives
_TEXT	ENDS
; Function compile flags: /Odtp
; File c:\users\zhitao li\documents\visual studio 2012\projects\freefalcon\falclib\include\falcsess.h
;	COMDAT ?GetGame@FalconSessionEntity@@QAEPAVFalconGameEntity@@XZ
_TEXT	SEGMENT
_this$ = -4						; size = 4
?GetGame@FalconSessionEntity@@QAEPAVFalconGameEntity@@XZ PROC ; FalconSessionEntity::GetGame, COMDAT
; _this$ = ecx

; 154  : 	FalconGameEntity* GetGame (void)              { return (FalconGameEntity*)VuSessionEntity::Game(); }

	push	ebp
	mov	ebp, esp
	push	ecx
	mov	DWORD PTR _this$[ebp], ecx
	mov	ecx, DWORD PTR _this$[ebp]
	call	?Game@VuSessionEntity@@QAEPAVVuGameEntity@@XZ ; VuSessionEntity::Game
	mov	esp, ebp
	pop	ebp
	ret	0
?GetGame@FalconSessionEntity@@QAEPAVFalconGameEntity@@XZ ENDP ; FalconSessionEntity::GetGame
_TEXT	ENDS
; Function compile flags: /Odtp
; File c:\users\zhitao li\documents\visual studio 2012\projects\freefalcon\campaign\camptask\gtm.cpp
_TEXT	SEGMENT
$T1 = -20						; size = 8
_cd$ = -12						; size = 8
$T2 = -4						; size = 4
_scenario$ = 8						; size = 4
?LoadPrimaryObjectiveList@@YAHPAD@Z PROC		; LoadPrimaryObjectiveList

; 1301 : {

	push	ebp
	mov	ebp, esp
	sub	esp, 20					; 00000014H

; 1302 : //	uchar		*data;
; 1303 : 
; 1304 : 	CampaignData  cd = ReadCampFile (scenario, "pol");

	push	OFFSET ??_C@_03DPEHCIMJ@pol?$AA@
	mov	eax, DWORD PTR _scenario$[ebp]
	push	eax
	call	?ReadCampFile@@YA?AUCampaignData@@PAD0@Z ; ReadCampFile
	add	esp, 8
	mov	DWORD PTR $T1[ebp], eax
	mov	DWORD PTR $T1[ebp+4], edx
	mov	ecx, DWORD PTR $T1[ebp]
	mov	DWORD PTR _cd$[ebp], ecx
	mov	edx, DWORD PTR $T1[ebp+4]
	mov	DWORD PTR _cd$[ebp+4], edx

; 1305 : 	if (cd.dataSize == -1){

	cmp	DWORD PTR _cd$[ebp], -1
	jne	SHORT $LN1@LoadPrimar

; 1306 : 		return 0;

	xor	eax, eax
	jmp	SHORT $LN2@LoadPrimar
$LN1@LoadPrimar:

; 1307 : 	}
; 1308 : 	DecodePrimaryObjectiveList((uchar*)cd.data, NULL);

	push	0
	mov	eax, DWORD PTR _cd$[ebp+4]
	push	eax
	call	?DecodePrimaryObjectiveList@@YAXPAEPAVFalconEntity@@@Z ; DecodePrimaryObjectiveList
	add	esp, 8

; 1309 : 	delete cd.data;

	mov	ecx, DWORD PTR _cd$[ebp+4]
	mov	DWORD PTR $T2[ebp], ecx
	mov	edx, DWORD PTR $T2[ebp]
	push	edx
	call	??3@YAXPAX@Z				; operator delete
	add	esp, 4

; 1310 : 	return 1;

	mov	eax, 1
$LN2@LoadPrimar:

; 1311 : }

	mov	esp, ebp
	pop	ebp
	ret	0
?LoadPrimaryObjectiveList@@YAHPAD@Z ENDP		; LoadPrimaryObjectiveList
_TEXT	ENDS
; Function compile flags: /Odtp
; File c:\users\zhitao li\documents\visual studio 2012\projects\freefalcon\campaign\camptask\gtm.cpp
_TEXT	SEGMENT
$T1 = -24						; size = 4
_data$ = -20						; size = 4
_fp$ = -16						; size = 4
_size$ = -12						; size = 2
_team$ = -8						; size = 2
_teammask$ = -1						; size = 1
_scenario$ = 8						; size = 4
?SavePrimaryObjectiveList@@YAXPAD@Z PROC		; SavePrimaryObjectiveList

; 1280 : {

	push	ebp
	mov	ebp, esp
	sub	esp, 24					; 00000018H

; 1281 : 	short				size,team;
; 1282 : 	uchar				*data,teammask=0;

	mov	BYTE PTR _teammask$[ebp], 0

; 1283 : 	FILE				*fp;
; 1284 : 
; 1285 : 	if ((fp = OpenCampFile (scenario, "pol", "wb")) == NULL)

	push	OFFSET ??_C@_02GMLFBBN@wb?$AA@
	push	OFFSET ??_C@_03DPEHCIMJ@pol?$AA@
	mov	eax, DWORD PTR _scenario$[ebp]
	push	eax
	call	?OpenCampFile@@YAPAU_iobuf@@PAD00@Z	; OpenCampFile
	add	esp, 12					; 0000000cH
	mov	DWORD PTR _fp$[ebp], eax
	cmp	DWORD PTR _fp$[ebp], 0
	jne	SHORT $LN5@SavePrimar

; 1286 : 		return;

	jmp	$LN6@SavePrimar
$LN5@SavePrimar:

; 1287 : 
; 1288 : 	for (team=0; team<NUM_TEAMS; team++)

	xor	ecx, ecx
	mov	WORD PTR _team$[ebp], cx
	jmp	SHORT $LN4@SavePrimar
$LN3@SavePrimar:
	mov	dx, WORD PTR _team$[ebp]
	add	dx, 1
	mov	WORD PTR _team$[ebp], dx
$LN4@SavePrimar:
	movsx	eax, WORD PTR _team$[ebp]
	cmp	eax, 8
	jge	SHORT $LN2@SavePrimar

; 1289 : 	{
; 1290 : 		if (TeamInfo[team])

	movsx	ecx, WORD PTR _team$[ebp]
	cmp	DWORD PTR ?TeamInfo@@3PAPAVTeamClass@@A[ecx*4], 0
	je	SHORT $LN1@SavePrimar

; 1291 : 			teammask |= (1 << team);

	movsx	ecx, WORD PTR _team$[ebp]
	mov	edx, 1
	shl	edx, cl
	movzx	eax, BYTE PTR _teammask$[ebp]
	or	eax, edx
	mov	BYTE PTR _teammask$[ebp], al
$LN1@SavePrimar:

; 1292 : 	}

	jmp	SHORT $LN3@SavePrimar
$LN2@SavePrimar:

; 1293 : 
; 1294 : 	size = EncodePrimaryObjectiveList(teammask, &data);

	lea	ecx, DWORD PTR _data$[ebp]
	push	ecx
	movzx	edx, BYTE PTR _teammask$[ebp]
	push	edx
	call	?EncodePrimaryObjectiveList@@YAFEPAPAE@Z ; EncodePrimaryObjectiveList
	add	esp, 8
	mov	WORD PTR _size$[ebp], ax

; 1295 : 	fwrite(data, size, 1, fp);

	mov	eax, DWORD PTR _fp$[ebp]
	push	eax
	push	1
	movsx	ecx, WORD PTR _size$[ebp]
	push	ecx
	mov	edx, DWORD PTR _data$[ebp]
	push	edx
	call	_fwrite
	add	esp, 16					; 00000010H

; 1296 : 	CloseCampFile(fp);

	mov	eax, DWORD PTR _fp$[ebp]
	push	eax
	call	?CloseCampFile@@YAXPAU_iobuf@@@Z	; CloseCampFile
	add	esp, 4

; 1297 : 	delete data;

	mov	ecx, DWORD PTR _data$[ebp]
	mov	DWORD PTR $T1[ebp], ecx
	mov	edx, DWORD PTR $T1[ebp]
	push	edx
	call	??3@YAXPAX@Z				; operator delete
	add	esp, 4
$LN6@SavePrimar:

; 1298 : }

	mov	esp, ebp
	pop	ebp
	ret	0
?SavePrimaryObjectiveList@@YAXPAD@Z ENDP		; SavePrimaryObjectiveList
_TEXT	ENDS
; Function compile flags: /Odtp
; File c:\users\zhitao li\documents\visual studio 2012\projects\freefalcon\campaign\camptask\gtm.cpp
_TEXT	SEGMENT
$T2 = -36						; size = 4
tv134 = -32						; size = 4
$T3 = -28						; size = 4
tv130 = -24						; size = 4
_msg$ = -20						; size = 4
_team$ = -16						; size = 4
__$EHRec$ = -12						; size = 12
_teammask$ = 8						; size = 1
?SendPrimaryObjectiveList@@YAXE@Z PROC			; SendPrimaryObjectiveList

; 1248 : {

	push	ebp
	mov	ebp, esp
	push	-1
	push	__ehhandler$?SendPrimaryObjectiveList@@YAXE@Z
	mov	eax, DWORD PTR fs:0
	push	eax
	sub	esp, 24					; 00000018H
	mov	eax, DWORD PTR ___security_cookie
	xor	eax, ebp
	push	eax
	lea	eax, DWORD PTR __$EHRec$[ebp]
	mov	DWORD PTR fs:0, eax

; 1249 : 	FalconCampDataMessage	*msg;
; 1250 : 	int						team;
; 1251 : 
; 1252 : 	// If we're not specifying a team, send them all
; 1253 : 	if (!teammask)

	movzx	eax, BYTE PTR _teammask$[ebp]
	test	eax, eax
	jne	SHORT $LN5@SendPrimar

; 1254 : 	{
; 1255 : 		for (team=0; team<NUM_TEAMS; team++)

	mov	DWORD PTR _team$[ebp], 0
	jmp	SHORT $LN4@SendPrimar
$LN3@SendPrimar:
	mov	ecx, DWORD PTR _team$[ebp]
	add	ecx, 1
	mov	DWORD PTR _team$[ebp], ecx
$LN4@SendPrimar:
	cmp	DWORD PTR _team$[ebp], 8
	jge	SHORT $LN5@SendPrimar

; 1256 : 		{
; 1257 : 			if (TeamInfo[team])

	mov	edx, DWORD PTR _team$[ebp]
	cmp	DWORD PTR ?TeamInfo@@3PAPAVTeamClass@@A[edx*4], 0
	je	SHORT $LN1@SendPrimar

; 1258 : 				teammask |= (1 << team);

	mov	eax, 1
	mov	ecx, DWORD PTR _team$[ebp]
	shl	eax, cl
	movzx	ecx, BYTE PTR _teammask$[ebp]
	or	ecx, eax
	mov	BYTE PTR _teammask$[ebp], cl
$LN1@SendPrimar:

; 1259 : 		}

	jmp	SHORT $LN3@SendPrimar
$LN5@SendPrimar:

; 1260 : 	}
; 1261 : 
; 1262 : #ifdef DEBUG
; 1263 : 	for (team=0; team<NUM_TEAMS; team++)
; 1264 : 	{
; 1265 : 		if (teammask & (1 << team))
; 1266 : 			ShiAssert (TeamInfo[team]);
; 1267 : 	}
; 1268 : #endif
; 1269 : 
; 1270 : 	msg = new FalconCampDataMessage(FalconNullId,FalconLocalGame,FALSE);

	push	58					; 0000003aH
	call	??2@YAPAXI@Z				; operator new
	add	esp, 4
	mov	DWORD PTR $T3[ebp], eax
	mov	DWORD PTR __$EHRec$[ebp+8], 0
	cmp	DWORD PTR $T3[ebp], 0
	je	SHORT $LN10@SendPrimar
	mov	ecx, OFFSET ?vuLocalSessionEntity@@3V?$VuBin@VVuSessionEntity@@@@A ; vuLocalSessionEntity
	call	??B?$VuBin@VVuSessionEntity@@@@QBE_NXZ	; VuBin<VuSessionEntity>::operator bool
	movzx	edx, al
	test	edx, edx
	je	SHORT $LN8@SendPrimar
	mov	ecx, OFFSET ?vuLocalSessionEntity@@3V?$VuBin@VVuSessionEntity@@@@A ; vuLocalSessionEntity
	call	?get@?$VuBin@VVuSessionEntity@@@@QBEPAVVuSessionEntity@@XZ ; VuBin<VuSessionEntity>::get
	mov	ecx, eax
	call	?GetGame@FalconSessionEntity@@QAEPAVFalconGameEntity@@XZ ; FalconSessionEntity::GetGame
	mov	DWORD PTR tv130[ebp], eax
	jmp	SHORT $LN9@SendPrimar
$LN8@SendPrimar:
	mov	DWORD PTR tv130[ebp], 0
$LN9@SendPrimar:
	push	0
	mov	eax, DWORD PTR tv130[ebp]
	push	eax
	mov	ecx, DWORD PTR ?FalconNullId@@3VVU_ID@@A+4
	push	ecx
	mov	edx, DWORD PTR ?FalconNullId@@3VVU_ID@@A
	push	edx
	mov	ecx, DWORD PTR $T3[ebp]
	call	??0FalconCampDataMessage@@QAE@VVU_ID@@PAVVuTargetEntity@@E@Z ; FalconCampDataMessage::FalconCampDataMessage
	mov	DWORD PTR tv134[ebp], eax
	jmp	SHORT $LN11@SendPrimar
$LN10@SendPrimar:
	mov	DWORD PTR tv134[ebp], 0
$LN11@SendPrimar:
	mov	eax, DWORD PTR tv134[ebp]
	mov	DWORD PTR $T2[ebp], eax
	mov	DWORD PTR __$EHRec$[ebp+8], -1
	mov	ecx, DWORD PTR $T2[ebp]
	mov	DWORD PTR _msg$[ebp], ecx

; 1271 : 
; 1272 : 	msg->dataBlock.type = FalconCampDataMessage::campPriorityData;

	mov	edx, DWORD PTR _msg$[ebp]
	mov	DWORD PTR [edx+48], 1

; 1273 : 	msg->dataBlock.size = EncodePrimaryObjectiveList(teammask, &msg->dataBlock.data);

	mov	eax, DWORD PTR _msg$[ebp]
	add	eax, 54					; 00000036H
	push	eax
	movzx	ecx, BYTE PTR _teammask$[ebp]
	push	ecx
	call	?EncodePrimaryObjectiveList@@YAFEPAPAE@Z ; EncodePrimaryObjectiveList
	add	esp, 8
	mov	edx, DWORD PTR _msg$[ebp]
	mov	WORD PTR [edx+52], ax

; 1274 : 
; 1275 : 	FalconSendMessage(msg,TRUE);

	push	1
	mov	eax, DWORD PTR _msg$[ebp]
	push	eax
	call	?FalconSendMessage@@YAXPAVVuMessage@@H@Z ; FalconSendMessage
	add	esp, 8

; 1276 : }

	mov	ecx, DWORD PTR __$EHRec$[ebp]
	mov	DWORD PTR fs:0, ecx
	pop	ecx
	mov	esp, ebp
	pop	ebp
	ret	0
_TEXT	ENDS
text$x	SEGMENT
__unwindfunclet$?SendPrimaryObjectiveList@@YAXE@Z$0:
	mov	eax, DWORD PTR $T3[ebp]
	push	eax
	call	??3@YAXPAX@Z				; operator delete
	pop	ecx
	ret	0
__ehhandler$?SendPrimaryObjectiveList@@YAXE@Z:
	mov	edx, DWORD PTR [esp+8]
	lea	eax, DWORD PTR [edx+12]
	mov	ecx, DWORD PTR [edx-28]
	xor	ecx, eax
	call	@__security_check_cookie@4
	mov	eax, OFFSET __ehfuncinfo$?SendPrimaryObjectiveList@@YAXE@Z
	jmp	___CxxFrameHandler3
text$x	ENDS
?SendPrimaryObjectiveList@@YAXE@Z ENDP			; SendPrimaryObjectiveList
; Function compile flags: /Odtp
; File c:\users\zhitao li\documents\visual studio 2012\projects\freefalcon\campaign\camptask\gtm.cpp
_TEXT	SEGMENT
_id$ = -32						; size = 8
_po$ = -24						; size = 4
_pod$ = -20						; size = 4
_data$ = -16						; size = 4
_priority$ = -12					; size = 2
_count$ = -8						; size = 2
_teammask$ = -2						; size = 1
_team$ = -1						; size = 1
_datahead$ = 8						; size = 4
_fe$ = 12						; size = 4
?DecodePrimaryObjectiveList@@YAXPAEPAVFalconEntity@@@Z PROC ; DecodePrimaryObjectiveList

; 1209 : {

	push	ebp
	mov	ebp, esp
	sub	esp, 32					; 00000020H

; 1210 : 	short				count,priority;
; 1211 : 	uchar				team,teammask,*data = datahead;

	mov	eax, DWORD PTR _datahead$[ebp]
	mov	DWORD PTR _data$[ebp], eax

; 1212 : 	POData				pod = NULL;

	mov	DWORD PTR _pod$[ebp], 0

; 1213 : 	Objective			po;
; 1214 : 	VU_ID				id;

	lea	ecx, DWORD PTR _id$[ebp]
	call	??0VU_ID@@QAE@XZ			; VU_ID::VU_ID

; 1215 : 
; 1216 : 	ShiAssert (PODataList && PODataList->GetFirstElement())
; 1217 : 
; 1218 : 			memcpy(&teammask, data, sizeof(uchar));								data += sizeof(uchar);

	push	1
	mov	ecx, DWORD PTR _data$[ebp]
	push	ecx
	lea	edx, DWORD PTR _teammask$[ebp]
	push	edx
	call	_memcpy
	add	esp, 12					; 0000000cH
	mov	eax, DWORD PTR _data$[ebp]
	add	eax, 1
	mov	DWORD PTR _data$[ebp], eax

; 1219 : 	memcpy(&count, data, sizeof(short));								data += sizeof(short);

	push	2
	mov	ecx, DWORD PTR _data$[ebp]
	push	ecx
	lea	edx, DWORD PTR _count$[ebp]
	push	edx
	call	_memcpy
	add	esp, 12					; 0000000cH
	mov	eax, DWORD PTR _data$[ebp]
	add	eax, 2
	mov	DWORD PTR _data$[ebp], eax
$LN9@DecodePrim:

; 1220 : 	while (count)

	movsx	ecx, WORD PTR _count$[ebp]
	test	ecx, ecx
	je	$LN8@DecodePrim

; 1221 : 	{
; 1222 : 		memcpy(&id, data, sizeof(VU_ID));								data += sizeof(VU_ID);

	push	8
	mov	edx, DWORD PTR _data$[ebp]
	push	edx
	lea	eax, DWORD PTR _id$[ebp]
	push	eax
	call	_memcpy
	add	esp, 12					; 0000000cH
	mov	ecx, DWORD PTR _data$[ebp]
	add	ecx, 8
	mov	DWORD PTR _data$[ebp], ecx

; 1223 : 		po = (Objective) vuDatabase->Find(id);

	mov	edx, DWORD PTR _id$[ebp+4]
	push	edx
	mov	eax, DWORD PTR _id$[ebp]
	push	eax
	mov	ecx, DWORD PTR ?vuDatabase@@3PAVVuDatabase@@A ; vuDatabase
	call	?Find@VuDatabase@@QBEPAVVuEntity@@VVU_ID@@@Z ; VuDatabase::Find
	mov	DWORD PTR _po$[ebp], eax

; 1224 : 		if (po)

	cmp	DWORD PTR _po$[ebp], 0
	je	SHORT $LN6@DecodePrim

; 1225 : 			pod = GetPOData(po);

	mov	ecx, DWORD PTR _po$[ebp]
	push	ecx
	call	?GetPOData@@YAPAUPrimaryObjectiveData@@PAVObjectiveClass@@@Z ; GetPOData
	add	esp, 4
	mov	DWORD PTR _pod$[ebp], eax
$LN6@DecodePrim:

; 1226 : 		else 
; 1227 : 		{
; 1228 : 			// KCK: Remote machines should have built these thingys.
; 1229 : 			ShiAssert (0);
; 1230 : 		}
; 1231 : 		for (team=0; team<NUM_TEAMS; team++)

	mov	BYTE PTR _team$[ebp], 0
	jmp	SHORT $LN5@DecodePrim
$LN4@DecodePrim:
	mov	dl, BYTE PTR _team$[ebp]
	add	dl, 1
	mov	BYTE PTR _team$[ebp], dl
$LN5@DecodePrim:
	movzx	eax, BYTE PTR _team$[ebp]
	cmp	eax, 8
	jge	SHORT $LN3@DecodePrim

; 1232 : 		{
; 1233 : 			if (teammask & (1 << team))

	movzx	edx, BYTE PTR _teammask$[ebp]
	movzx	ecx, BYTE PTR _team$[ebp]
	mov	eax, 1
	shl	eax, cl
	and	edx, eax
	je	SHORT $LN2@DecodePrim

; 1234 : 			{
; 1235 : 				memcpy(&priority, data, sizeof(short));					data += sizeof(short);

	push	2
	mov	ecx, DWORD PTR _data$[ebp]
	push	ecx
	lea	edx, DWORD PTR _priority$[ebp]
	push	edx
	call	_memcpy
	add	esp, 12					; 0000000cH
	mov	eax, DWORD PTR _data$[ebp]
	add	eax, 2
	mov	DWORD PTR _data$[ebp], eax

; 1236 : 				if (pod)

	cmp	DWORD PTR _pod$[ebp], 0
	je	SHORT $LN2@DecodePrim

; 1237 : 					pod->player_priority[team] = priority;

	movzx	ecx, BYTE PTR _team$[ebp]
	mov	edx, DWORD PTR _pod$[ebp]
	mov	ax, WORD PTR _priority$[ebp]
	mov	WORD PTR [edx+ecx*2+56], ax
$LN2@DecodePrim:

; 1238 : 			}
; 1239 : 		}

	jmp	SHORT $LN4@DecodePrim
$LN3@DecodePrim:

; 1240 : 		count--;

	mov	cx, WORD PTR _count$[ebp]
	sub	cx, 1
	mov	WORD PTR _count$[ebp], cx

; 1241 : 	}

	jmp	$LN9@DecodePrim
$LN8@DecodePrim:

; 1242 : 
; 1243 : 	TheCampaign.Flags &= ~CAMP_NEED_PRIORITIES;

	mov	edx, DWORD PTR ?TheCampaign@@3VCampaignClass@@A+64
	and	edx, -268435457				; efffffffH
	mov	DWORD PTR ?TheCampaign@@3VCampaignClass@@A+64, edx

; 1244 : }

	mov	esp, ebp
	pop	ebp
	ret	0
?DecodePrimaryObjectiveList@@YAXPAEPAVFalconEntity@@@Z ENDP ; DecodePrimaryObjectiveList
_TEXT	ENDS
; Function compile flags: /Odtp
; File c:\users\zhitao li\documents\visual studio 2012\projects\freefalcon\campaign\camptask\gtm.cpp
_TEXT	SEGMENT
$T1 = -36						; size = 4
_datahead$ = -32					; size = 4
_pod$ = -28						; size = 4
_lp$ = -24						; size = 4
_data$ = -20						; size = 4
_teams$ = -16						; size = 2
_size$ = -12						; size = 2
_count$ = -8						; size = 2
_team$ = -4						; size = 2
_teammask$ = 8						; size = 1
_buffer$ = 12						; size = 4
?EncodePrimaryObjectiveList@@YAFEPAPAE@Z PROC		; EncodePrimaryObjectiveList

; 1158 : {

	push	ebp
	mov	ebp, esp
	sub	esp, 36					; 00000024H

; 1159 : 	uchar					*data,*datahead;
; 1160 : 	ListNode				lp;
; 1161 : 	POData					pod;
; 1162 : 	short					size,count=0,team,teams=0;

	xor	eax, eax
	mov	WORD PTR _count$[ebp], ax
	xor	ecx, ecx
	mov	WORD PTR _teams$[ebp], cx

; 1163 : 
; 1164 : 	// 'teammask' determines which team data we're sending. If no such
; 1165 : 	// team exists, there's no reason to send the data. Check for this
; 1166 : 	for (team=0; team<NUM_TEAMS; team++)

	xor	edx, edx
	mov	WORD PTR _team$[ebp], dx
	jmp	SHORT $LN14@EncodePrim
$LN13@EncodePrim:
	mov	ax, WORD PTR _team$[ebp]
	add	ax, 1
	mov	WORD PTR _team$[ebp], ax
$LN14@EncodePrim:
	movsx	ecx, WORD PTR _team$[ebp]
	cmp	ecx, 8
	jge	SHORT $LN12@EncodePrim

; 1167 : 	{
; 1168 : 		if (!TeamInfo[team])

	movsx	edx, WORD PTR _team$[ebp]
	cmp	DWORD PTR ?TeamInfo@@3PAPAVTeamClass@@A[edx*4], 0
	jne	SHORT $LN11@EncodePrim

; 1169 : 			teammask &= ~(1 << team);

	movsx	ecx, WORD PTR _team$[ebp]
	mov	eax, 1
	shl	eax, cl
	not	eax
	movzx	ecx, BYTE PTR _teammask$[ebp]
	and	ecx, eax
	mov	BYTE PTR _teammask$[ebp], cl
	jmp	SHORT $LN10@EncodePrim
$LN11@EncodePrim:

; 1170 : 		else if (teammask & (1 << team))

	movzx	edx, BYTE PTR _teammask$[ebp]
	movsx	ecx, WORD PTR _team$[ebp]
	mov	eax, 1
	shl	eax, cl
	and	edx, eax
	je	SHORT $LN10@EncodePrim

; 1171 : 			teams++;

	mov	cx, WORD PTR _teams$[ebp]
	add	cx, 1
	mov	WORD PTR _teams$[ebp], cx
$LN10@EncodePrim:

; 1172 : 	}

	jmp	SHORT $LN13@EncodePrim
$LN12@EncodePrim:

; 1173 : 
; 1174 : 	// Determine size
; 1175 : 	size = sizeof(uchar) + sizeof(short);

	mov	edx, 3
	mov	WORD PTR _size$[ebp], dx

; 1176 : 	lp = PODataList->GetFirstElement();

	mov	ecx, DWORD PTR ?PODataList@@3PAVListClass@@A ; PODataList
	call	?GetFirstElement@ListClass@@QAEPAVListElementClass@@XZ ; ListClass::GetFirstElement
	mov	DWORD PTR _lp$[ebp], eax
$LN8@EncodePrim:

; 1177 : 	while (lp)

	cmp	DWORD PTR _lp$[ebp], 0
	je	SHORT $LN7@EncodePrim

; 1178 : 	{
; 1179 : 		count++;

	mov	ax, WORD PTR _count$[ebp]
	add	ax, 1
	mov	WORD PTR _count$[ebp], ax

; 1180 : 		lp = lp->GetNext();

	mov	ecx, DWORD PTR _lp$[ebp]
	call	?GetNext@ListElementClass@@QAEPAV1@XZ	; ListElementClass::GetNext
	mov	DWORD PTR _lp$[ebp], eax

; 1181 : 	}

	jmp	SHORT $LN8@EncodePrim
$LN7@EncodePrim:

; 1182 : 	size += count * (sizeof(VU_ID) + sizeof(short)*teams);

	movsx	ecx, WORD PTR _count$[ebp]
	movsx	edx, WORD PTR _teams$[ebp]
	lea	eax, DWORD PTR [edx+edx+8]
	imul	ecx, eax
	movsx	edx, WORD PTR _size$[ebp]
	add	edx, ecx
	mov	WORD PTR _size$[ebp], dx

; 1183 : 
; 1184 : 	// Write the data
; 1185 : 	data = datahead = new uchar[size];

	movsx	eax, WORD PTR _size$[ebp]
	push	eax
	call	??_U@YAPAXI@Z				; operator new[]
	add	esp, 4
	mov	DWORD PTR $T1[ebp], eax
	mov	ecx, DWORD PTR $T1[ebp]
	mov	DWORD PTR _datahead$[ebp], ecx
	mov	edx, DWORD PTR _datahead$[ebp]
	mov	DWORD PTR _data$[ebp], edx

; 1186 : 	memcpy(data, &teammask, sizeof(uchar));								data += sizeof(uchar);

	push	1
	lea	eax, DWORD PTR _teammask$[ebp]
	push	eax
	mov	ecx, DWORD PTR _data$[ebp]
	push	ecx
	call	_memcpy
	add	esp, 12					; 0000000cH
	mov	edx, DWORD PTR _data$[ebp]
	add	edx, 1
	mov	DWORD PTR _data$[ebp], edx

; 1187 : 	memcpy(data, &count, sizeof(short));								data += sizeof(short);

	push	2
	lea	eax, DWORD PTR _count$[ebp]
	push	eax
	mov	ecx, DWORD PTR _data$[ebp]
	push	ecx
	call	_memcpy
	add	esp, 12					; 0000000cH
	mov	edx, DWORD PTR _data$[ebp]
	add	edx, 2
	mov	DWORD PTR _data$[ebp], edx

; 1188 : 	lp = PODataList->GetFirstElement();

	mov	ecx, DWORD PTR ?PODataList@@3PAVListClass@@A ; PODataList
	call	?GetFirstElement@ListClass@@QAEPAVListElementClass@@XZ ; ListClass::GetFirstElement
	mov	DWORD PTR _lp$[ebp], eax
$LN6@EncodePrim:

; 1189 : 	while (lp)

	cmp	DWORD PTR _lp$[ebp], 0
	je	$LN5@EncodePrim

; 1190 : 	{
; 1191 : 		pod = (POData) lp->GetUserData();

	mov	ecx, DWORD PTR _lp$[ebp]
	call	?GetUserData@ListElementClass@@QAEPAXXZ	; ListElementClass::GetUserData
	mov	DWORD PTR _pod$[ebp], eax

; 1192 : 		memcpy(data, &pod->objective, sizeof(VU_ID));					data += sizeof(VU_ID);

	push	8
	mov	eax, DWORD PTR _pod$[ebp]
	push	eax
	mov	ecx, DWORD PTR _data$[ebp]
	push	ecx
	call	_memcpy
	add	esp, 12					; 0000000cH
	mov	edx, DWORD PTR _data$[ebp]
	add	edx, 8
	mov	DWORD PTR _data$[ebp], edx

; 1193 : 		for (team=0; team<NUM_TEAMS; team++)

	xor	eax, eax
	mov	WORD PTR _team$[ebp], ax
	jmp	SHORT $LN4@EncodePrim
$LN3@EncodePrim:
	mov	cx, WORD PTR _team$[ebp]
	add	cx, 1
	mov	WORD PTR _team$[ebp], cx
$LN4@EncodePrim:
	movsx	edx, WORD PTR _team$[ebp]
	cmp	edx, 8
	jge	SHORT $LN2@EncodePrim

; 1194 : 		{
; 1195 : 			if (teammask & (1 << team))

	movzx	eax, BYTE PTR _teammask$[ebp]
	movsx	ecx, WORD PTR _team$[ebp]
	mov	edx, 1
	shl	edx, cl
	and	eax, edx
	je	SHORT $LN1@EncodePrim

; 1196 : 			{
; 1197 : 				memcpy(data, &pod->player_priority[team], sizeof(short));	

	push	2
	movsx	eax, WORD PTR _team$[ebp]
	mov	ecx, DWORD PTR _pod$[ebp]
	lea	edx, DWORD PTR [ecx+eax*2+56]
	push	edx
	mov	eax, DWORD PTR _data$[ebp]
	push	eax
	call	_memcpy
	add	esp, 12					; 0000000cH

; 1198 : 				data += sizeof(short);

	mov	ecx, DWORD PTR _data$[ebp]
	add	ecx, 2
	mov	DWORD PTR _data$[ebp], ecx
$LN1@EncodePrim:

; 1199 : 			}
; 1200 : 		}

	jmp	SHORT $LN3@EncodePrim
$LN2@EncodePrim:

; 1201 : 		lp = lp->GetNext();

	mov	ecx, DWORD PTR _lp$[ebp]
	call	?GetNext@ListElementClass@@QAEPAV1@XZ	; ListElementClass::GetNext
	mov	DWORD PTR _lp$[ebp], eax

; 1202 : 	}

	jmp	$LN6@EncodePrim
$LN5@EncodePrim:

; 1203 : 	*buffer = datahead;

	mov	edx, DWORD PTR _buffer$[ebp]
	mov	eax, DWORD PTR _datahead$[ebp]
	mov	DWORD PTR [edx], eax

; 1204 : 
; 1205 : 	return size;

	mov	ax, WORD PTR _size$[ebp]

; 1206 : }

	mov	esp, ebp
	pop	ebp
	ret	0
?EncodePrimaryObjectiveList@@YAFEPAPAE@Z ENDP		; EncodePrimaryObjectiveList
_TEXT	ENDS
; Function compile flags: /Odtp
;	COMDAT ??_GGroundTaskingManagerClass@@UAEPAXI@Z
_TEXT	SEGMENT
_this$ = -4						; size = 4
___flags$ = 8						; size = 4
??_GGroundTaskingManagerClass@@UAEPAXI@Z PROC		; GroundTaskingManagerClass::`scalar deleting destructor', COMDAT
; _this$ = ecx
	push	ebp
	mov	ebp, esp
	push	ecx
	mov	DWORD PTR _this$[ebp], ecx
	mov	ecx, DWORD PTR _this$[ebp]
	call	??1GroundTaskingManagerClass@@UAE@XZ	; GroundTaskingManagerClass::~GroundTaskingManagerClass
	mov	eax, DWORD PTR ___flags$[ebp]
	and	eax, 1
	je	SHORT $LN1@scalar
	mov	ecx, DWORD PTR _this$[ebp]
	push	ecx
	call	??3@YAXPAX@Z				; operator delete
	add	esp, 4
$LN1@scalar:
	mov	eax, DWORD PTR _this$[ebp]
	mov	esp, ebp
	pop	ebp
	ret	4
??_GGroundTaskingManagerClass@@UAEPAXI@Z ENDP		; GroundTaskingManagerClass::`scalar deleting destructor'
_TEXT	ENDS
; Function compile flags: /Odtp
; File c:\users\zhitao li\documents\visual studio 2012\projects\freefalcon\campaign\camptask\gtm.cpp
_TEXT	SEGMENT
_this$ = -4						; size = 4
_o$ = 8							; size = 4
_division$ = 12						; size = 4
?RequestAirDefense@GroundTaskingManagerClass@@QAEXPAVObjectiveClass@@H@Z PROC ; GroundTaskingManagerClass::RequestAirDefense
; _this$ = ecx

; 1096 : {

	push	ebp
	mov	ebp, esp
	push	ecx
	mov	DWORD PTR _this$[ebp], ecx

; 1097 : }

	mov	esp, ebp
	pop	ebp
	ret	8
?RequestAirDefense@GroundTaskingManagerClass@@QAEXPAVObjectiveClass@@H@Z ENDP ; GroundTaskingManagerClass::RequestAirDefense
_TEXT	ENDS
; Function compile flags: /Odtp
; File c:\users\zhitao li\documents\visual studio 2012\projects\freefalcon\campaign\camptask\gtm.cpp
_TEXT	SEGMENT
_myit$ = -40						; size = 12
$T2 = -28						; size = 8
_this$ = -20						; size = 4
_u$ = -16						; size = 4
__$EHRec$ = -12						; size = 12
_o$ = 8							; size = 4
_division$ = 12						; size = 4
?RequestEngineer@GroundTaskingManagerClass@@QAEXPAVObjectiveClass@@H@Z PROC ; GroundTaskingManagerClass::RequestEngineer
; _this$ = ecx

; 1076 : {

	push	ebp
	mov	ebp, esp
	push	-1
	push	__ehhandler$?RequestEngineer@GroundTaskingManagerClass@@QAEXPAVObjectiveClass@@H@Z
	mov	eax, DWORD PTR fs:0
	push	eax
	sub	esp, 28					; 0000001cH
	mov	eax, DWORD PTR ___security_cookie
	xor	eax, ebp
	push	eax
	lea	eax, DWORD PTR __$EHRec$[ebp]
	mov	DWORD PTR fs:0, eax
	mov	DWORD PTR _this$[ebp], ecx

; 1077 : 	Unit				u;
; 1078 : 	o->SetNeedRepair(1);

	push	1
	mov	ecx, DWORD PTR _o$[ebp]
	call	?SetNeedRepair@ObjectiveClass@@QAEXH@Z	; ObjectiveClass::SetNeedRepair

; 1079 : 
; 1080 : 	VuListIterator	myit(AllParentList);

	mov	eax, DWORD PTR ?AllParentList@@3PAVVuLinkedList@@A ; AllParentList
	push	eax
	lea	ecx, DWORD PTR _myit$[ebp]
	call	??0VuListIterator@@QAE@PAVVuLinkedList@@@Z ; VuListIterator::VuListIterator
	mov	DWORD PTR __$EHRec$[ebp+8], 0

; 1081 : 	u = GetFirstUnit(&myit);

	lea	ecx, DWORD PTR _myit$[ebp]
	push	ecx
	call	?GetFirstUnit@@YAPAVUnitClass@@PAVVuListIterator@@@Z ; GetFirstUnit
	add	esp, 4
	mov	DWORD PTR _u$[ebp], eax
$LN3@RequestEng:

; 1082 : 	while (u)

	cmp	DWORD PTR _u$[ebp], 0
	je	$LN2@RequestEng

; 1083 : 	{
; 1084 : 		if (u->GetTeam() == owner && u->GetDomain() == DOMAIN_LAND && 
; 1085 : 						u->GetUnitNormalRole() == GRO_ENGINEER && u->GetUnitDivision() == division && u->GetUnitOrders() != GORD_REPAIR)

	mov	edx, DWORD PTR _u$[ebp]
	mov	eax, DWORD PTR [edx]
	mov	ecx, DWORD PTR _u$[ebp]
	mov	edx, DWORD PTR [eax+116]
	call	edx
	movzx	eax, al
	mov	ecx, DWORD PTR _this$[ebp]
	movzx	edx, BYTE PTR [ecx+146]
	cmp	eax, edx
	jne	$LN1@RequestEng
	mov	ecx, DWORD PTR _u$[ebp]
	call	?GetDomain@CampBaseClass@@QBEEXZ	; CampBaseClass::GetDomain
	movzx	eax, al
	cmp	eax, 3
	jne	SHORT $LN1@RequestEng
	mov	ecx, DWORD PTR _u$[ebp]
	mov	edx, DWORD PTR [ecx]
	mov	ecx, DWORD PTR _u$[ebp]
	mov	eax, DWORD PTR [edx+668]
	call	eax
	cmp	eax, 7
	jne	SHORT $LN1@RequestEng
	mov	ecx, DWORD PTR _u$[ebp]
	mov	edx, DWORD PTR [ecx]
	mov	ecx, DWORD PTR _u$[ebp]
	mov	eax, DWORD PTR [edx+904]
	call	eax
	cmp	eax, DWORD PTR _division$[ebp]
	jne	SHORT $LN1@RequestEng
	mov	ecx, DWORD PTR _u$[ebp]
	mov	edx, DWORD PTR [ecx]
	mov	ecx, DWORD PTR _u$[ebp]
	mov	eax, DWORD PTR [edx+880]
	call	eax
	cmp	eax, 8
	je	SHORT $LN1@RequestEng

; 1086 : 		{
; 1087 : 			u->SetUnitOrders(GORD_REPAIR,o->Id());

	lea	ecx, DWORD PTR $T2[ebp]
	push	ecx
	mov	ecx, DWORD PTR _o$[ebp]
	call	?Id@VuEntity@@QBE?AVVU_ID@@XZ		; VuEntity::Id
	mov	edx, DWORD PTR [eax+4]
	push	edx
	mov	eax, DWORD PTR [eax]
	push	eax
	push	8
	mov	ecx, DWORD PTR _u$[ebp]
	mov	edx, DWORD PTR [ecx]
	mov	ecx, DWORD PTR _u$[ebp]
	mov	eax, DWORD PTR [edx+828]
	call	eax

; 1088 : 			return;

	mov	DWORD PTR __$EHRec$[ebp+8], -1
	lea	ecx, DWORD PTR _myit$[ebp]
	call	??1VuListIterator@@UAE@XZ		; VuListIterator::~VuListIterator
	jmp	SHORT $LN4@RequestEng
$LN1@RequestEng:

; 1089 : 		}
; 1090 : 		u = GetNextUnit(&myit);

	lea	ecx, DWORD PTR _myit$[ebp]
	push	ecx
	call	?GetNextUnit@@YAPAVUnitClass@@PAVVuListIterator@@@Z ; GetNextUnit
	add	esp, 4
	mov	DWORD PTR _u$[ebp], eax

; 1091 : 	}

	jmp	$LN3@RequestEng
$LN2@RequestEng:

; 1092 : 	// Find the best _free_ engineer to send to this location
; 1093 : }

	mov	DWORD PTR __$EHRec$[ebp+8], -1
	lea	ecx, DWORD PTR _myit$[ebp]
	call	??1VuListIterator@@UAE@XZ		; VuListIterator::~VuListIterator
$LN4@RequestEng:
	mov	ecx, DWORD PTR __$EHRec$[ebp]
	mov	DWORD PTR fs:0, ecx
	pop	ecx
	mov	esp, ebp
	pop	ebp
	ret	8
_TEXT	ENDS
text$x	SEGMENT
__unwindfunclet$?RequestEngineer@GroundTaskingManagerClass@@QAEXPAVObjectiveClass@@H@Z$0:
	lea	ecx, DWORD PTR _myit$[ebp]
	jmp	??1VuListIterator@@UAE@XZ		; VuListIterator::~VuListIterator
__ehhandler$?RequestEngineer@GroundTaskingManagerClass@@QAEXPAVObjectiveClass@@H@Z:
	mov	edx, DWORD PTR [esp+8]
	lea	eax, DWORD PTR [edx+12]
	mov	ecx, DWORD PTR [edx-32]
	xor	ecx, eax
	call	@__security_check_cookie@4
	mov	eax, OFFSET __ehfuncinfo$?RequestEngineer@GroundTaskingManagerClass@@QAEXPAVObjectiveClass@@H@Z
	jmp	___CxxFrameHandler3
text$x	ENDS
?RequestEngineer@GroundTaskingManagerClass@@QAEXPAVObjectiveClass@@H@Z ENDP ; GroundTaskingManagerClass::RequestEngineer
; Function compile flags: /Odtp
; File c:\users\zhitao li\documents\visual studio 2012\projects\freefalcon\campaign\camptask\gtm.cpp
_TEXT	SEGMENT
$T2 = -52						; size = 8
$T3 = -44						; size = 8
$T4 = -36						; size = 4
_target$ = -32						; size = 4
tv95 = -28						; size = 4
$T5 = -24						; size = 4
_this$ = -20						; size = 4
_togtm$ = -16						; size = 4
__$EHRec$ = -12						; size = 12
_from$ = 8						; size = 8
_message$ = 16						; size = 2
_data1$ = 20						; size = 2
_data2$ = 24						; size = 2
_data3$ = 28						; size = 8
?SendGTMMessage@GroundTaskingManagerClass@@QAEXVVU_ID@@FFF0@Z PROC ; GroundTaskingManagerClass::SendGTMMessage
; _this$ = ecx

; 1059 : {

	push	ebp
	mov	ebp, esp
	push	-1
	push	__ehhandler$?SendGTMMessage@GroundTaskingManagerClass@@QAEXVVU_ID@@FFF0@Z
	mov	eax, DWORD PTR fs:0
	push	eax
	sub	esp, 40					; 00000028H
	mov	eax, DWORD PTR ___security_cookie
	xor	eax, ebp
	push	eax
	lea	eax, DWORD PTR __$EHRec$[ebp]
	mov	DWORD PTR fs:0, eax
	mov	DWORD PTR _this$[ebp], ecx

; 1060 : 	VuTargetEntity	*target = (VuTargetEntity*) vuDatabase->Find(OwnerId());

	lea	eax, DWORD PTR $T3[ebp]
	push	eax
	mov	ecx, DWORD PTR _this$[ebp]
	call	?OwnerId@VuEntity@@QBE?AVVU_ID@@XZ	; VuEntity::OwnerId
	mov	ecx, DWORD PTR [eax+4]
	push	ecx
	mov	edx, DWORD PTR [eax]
	push	edx
	mov	ecx, DWORD PTR ?vuDatabase@@3PAVVuDatabase@@A ; vuDatabase
	call	?Find@VuDatabase@@QBEPAVVuEntity@@VVU_ID@@@Z ; VuDatabase::Find
	mov	DWORD PTR _target$[ebp], eax

; 1061 : 	FalconGndTaskingMessage*	togtm = new FalconGndTaskingMessage(Id(), target);

	push	81					; 00000051H
	call	??2@YAPAXI@Z				; operator new
	add	esp, 4
	mov	DWORD PTR $T5[ebp], eax
	mov	DWORD PTR __$EHRec$[ebp+8], 0
	cmp	DWORD PTR $T5[ebp], 0
	je	SHORT $LN4@SendGTMMes
	push	1
	mov	eax, DWORD PTR _target$[ebp]
	push	eax
	lea	ecx, DWORD PTR $T2[ebp]
	push	ecx
	mov	ecx, DWORD PTR _this$[ebp]
	call	?Id@VuEntity@@QBE?AVVU_ID@@XZ		; VuEntity::Id
	mov	edx, DWORD PTR [eax+4]
	push	edx
	mov	eax, DWORD PTR [eax]
	push	eax
	mov	ecx, DWORD PTR $T5[ebp]
	call	??0FalconGndTaskingMessage@@QAE@VVU_ID@@PAVVuTargetEntity@@E@Z ; FalconGndTaskingMessage::FalconGndTaskingMessage
	mov	DWORD PTR tv95[ebp], eax
	jmp	SHORT $LN5@SendGTMMes
$LN4@SendGTMMes:
	mov	DWORD PTR tv95[ebp], 0
$LN5@SendGTMMes:
	mov	ecx, DWORD PTR tv95[ebp]
	mov	DWORD PTR $T4[ebp], ecx
	mov	DWORD PTR __$EHRec$[ebp+8], -1
	mov	edx, DWORD PTR $T4[ebp]
	mov	DWORD PTR _togtm$[ebp], edx

; 1062 : 
; 1063 : 	if (this)

	cmp	DWORD PTR _this$[ebp], 0
	je	SHORT $LN2@SendGTMMes

; 1064 : 	{
; 1065 : 		togtm->dataBlock.from = from;

	mov	eax, DWORD PTR _togtm$[ebp]
	mov	ecx, DWORD PTR _from$[ebp]
	mov	DWORD PTR [eax+48], ecx
	mov	edx, DWORD PTR _from$[ebp+4]
	mov	DWORD PTR [eax+52], edx

; 1066 : 		togtm->dataBlock.team = owner;

	mov	eax, DWORD PTR _togtm$[ebp]
	mov	ecx, DWORD PTR _this$[ebp]
	mov	dl, BYTE PTR [ecx+146]
	mov	BYTE PTR [eax+64], dl

; 1067 : 		togtm->dataBlock.messageType = message;

	movsx	eax, WORD PTR _message$[ebp]
	mov	ecx, DWORD PTR _togtm$[ebp]
	mov	DWORD PTR [ecx+65], eax

; 1068 : 		togtm->dataBlock.data1 = data1;

	mov	edx, DWORD PTR _togtm$[ebp]
	mov	ax, WORD PTR _data1$[ebp]
	mov	WORD PTR [edx+69], ax

; 1069 : 		togtm->dataBlock.data2 = data2;

	mov	ecx, DWORD PTR _togtm$[ebp]
	mov	dx, WORD PTR _data2$[ebp]
	mov	WORD PTR [ecx+71], dx

; 1070 : 		togtm->dataBlock.enemy = data3;

	mov	eax, DWORD PTR _togtm$[ebp]
	mov	ecx, DWORD PTR _data3$[ebp]
	mov	DWORD PTR [eax+73], ecx
	mov	edx, DWORD PTR _data3$[ebp+4]
	mov	DWORD PTR [eax+77], edx

; 1071 : 		FalconSendMessage(togtm,TRUE);

	push	1
	mov	eax, DWORD PTR _togtm$[ebp]
	push	eax
	call	?FalconSendMessage@@YAXPAVVuMessage@@H@Z ; FalconSendMessage
	add	esp, 8
$LN2@SendGTMMes:

; 1072 : 	}
; 1073 : }

	mov	ecx, DWORD PTR __$EHRec$[ebp]
	mov	DWORD PTR fs:0, ecx
	pop	ecx
	mov	esp, ebp
	pop	ebp
	ret	28					; 0000001cH
_TEXT	ENDS
text$x	SEGMENT
__unwindfunclet$?SendGTMMessage@GroundTaskingManagerClass@@QAEXVVU_ID@@FFF0@Z$0:
	mov	eax, DWORD PTR $T5[ebp]
	push	eax
	call	??3@YAXPAX@Z				; operator delete
	pop	ecx
	ret	0
__ehhandler$?SendGTMMessage@GroundTaskingManagerClass@@QAEXVVU_ID@@FFF0@Z:
	mov	edx, DWORD PTR [esp+8]
	lea	eax, DWORD PTR [edx+12]
	mov	ecx, DWORD PTR [edx-44]
	xor	ecx, eax
	call	@__security_check_cookie@4
	mov	eax, OFFSET __ehfuncinfo$?SendGTMMessage@GroundTaskingManagerClass@@QAEXVVU_ID@@FFF0@Z
	jmp	___CxxFrameHandler3
text$x	ENDS
?SendGTMMessage@GroundTaskingManagerClass@@QAEXVVU_ID@@FFF0@Z ENDP ; GroundTaskingManagerClass::SendGTMMessage
; Function compile flags: /Odtp
; File c:\users\zhitao li\documents\visual studio 2012\projects\freefalcon\campaign\camptask\gtm.cpp
_TEXT	SEGMENT
_this$ = -4						; size = 4
?FinalizeOrders@GroundTaskingManagerClass@@QAEXXZ PROC	; GroundTaskingManagerClass::FinalizeOrders
; _this$ = ecx

; 1054 : {

	push	ebp
	mov	ebp, esp
	push	ecx
	mov	DWORD PTR _this$[ebp], ecx

; 1055 : }

	mov	esp, ebp
	pop	ebp
	ret	0
?FinalizeOrders@GroundTaskingManagerClass@@QAEXXZ ENDP	; GroundTaskingManagerClass::FinalizeOrders
_TEXT	ENDS
; Function compile flags: /Odtp
; File c:\users\zhitao li\documents\visual studio 2012\projects\freefalcon\campaign\camptask\gtm.cpp
_TEXT	SEGMENT
_this$ = -24						; size = 4
_score$ = -20						; size = 4
_ox$ = -16						; size = 2
_oy$ = -12						; size = 2
_ux$ = -8						; size = 2
_uy$ = -4						; size = 2
_curu$ = 8						; size = 4
_curo$ = 12						; size = 4
_orders$ = 16						; size = 4
_mode$ = 20						; size = 4
?ScoreUnitFast@GroundTaskingManagerClass@@QAEHPAVUnitScoreNode@@PAVGndObjDataType@@HH@Z PROC ; GroundTaskingManagerClass::ScoreUnitFast
; _this$ = ecx

; 1035 : {

	push	ebp
	mov	ebp, esp
	sub	esp, 24					; 00000018H
	push	esi
	mov	DWORD PTR _this$[ebp], ecx

; 1036 : 	int			score = -32000;

	mov	DWORD PTR _score$[ebp], -32000		; ffff8300H

; 1037 : 	GridIndex	ox,oy,ux,uy;
; 1038 : 
; 1039 : 	curo->obj->GetLocation(&ox,&oy);

	lea	eax, DWORD PTR _oy$[ebp]
	push	eax
	lea	ecx, DWORD PTR _ox$[ebp]
	push	ecx
	mov	edx, DWORD PTR _curo$[ebp]
	mov	ecx, DWORD PTR [edx]
	call	?GetLocation@FalconEntity@@QBEXPAF0@Z	; FalconEntity::GetLocation

; 1040 : 	curu->unit->GetLocation(&ux,&uy);

	lea	eax, DWORD PTR _uy$[ebp]
	push	eax
	lea	ecx, DWORD PTR _ux$[ebp]
	push	ecx
	mov	edx, DWORD PTR _curu$[ebp]
	mov	ecx, DWORD PTR [edx]
	call	?GetLocation@FalconEntity@@QBEXPAF0@Z	; FalconEntity::GetLocation

; 1041 : 	if (mode == GTM_MODE_BEST)

	cmp	DWORD PTR _mode$[ebp], 0
	jne	SHORT $LN3@ScoreUnitF

; 1042 : 	{
; 1043 : 		score = curu->score + 100 - FloatToInt32(Distance(ox,oy,ux,uy))/5;

	mov	eax, DWORD PTR _curu$[ebp]
	mov	esi, DWORD PTR [eax+4]
	add	esi, 100				; 00000064H
	movzx	ecx, WORD PTR _uy$[ebp]
	push	ecx
	movzx	edx, WORD PTR _ux$[ebp]
	push	edx
	movzx	eax, WORD PTR _oy$[ebp]
	push	eax
	movzx	ecx, WORD PTR _ox$[ebp]
	push	ecx
	call	?Distance@@YAMFFFF@Z			; Distance
	add	esp, 12					; 0000000cH
	fstp	DWORD PTR [esp]
	call	?FloatToInt32@@YAHM@Z			; FloatToInt32
	add	esp, 4
	cdq
	mov	ecx, 5
	idiv	ecx
	sub	esi, eax
	mov	DWORD PTR _score$[ebp], esi
	jmp	SHORT $LN1@ScoreUnitF
$LN3@ScoreUnitF:

; 1044 : 	}
; 1045 : 	else if (mode == GTM_MODE_FASTEST)

	cmp	DWORD PTR _mode$[ebp], 1
	jne	SHORT $LN1@ScoreUnitF

; 1046 : 	{
; 1047 : 		score = 50 + curu->score/2 - FloatToInt32(Distance(ox,oy,ux,uy))/2;

	mov	edx, DWORD PTR _curu$[ebp]
	mov	eax, DWORD PTR [edx+4]
	cdq
	sub	eax, edx
	mov	esi, eax
	sar	esi, 1
	add	esi, 50					; 00000032H
	movzx	eax, WORD PTR _uy$[ebp]
	push	eax
	movzx	ecx, WORD PTR _ux$[ebp]
	push	ecx
	movzx	edx, WORD PTR _oy$[ebp]
	push	edx
	movzx	eax, WORD PTR _ox$[ebp]
	push	eax
	call	?Distance@@YAMFFFF@Z			; Distance
	add	esp, 12					; 0000000cH
	fstp	DWORD PTR [esp]
	call	?FloatToInt32@@YAHM@Z			; FloatToInt32
	add	esp, 4
	cdq
	sub	eax, edx
	sar	eax, 1
	sub	esi, eax
	mov	DWORD PTR _score$[ebp], esi
$LN1@ScoreUnitF:

; 1048 : 	}
; 1049 : 
; 1050 : 	return score;

	mov	eax, DWORD PTR _score$[ebp]

; 1051 : }

	pop	esi
	mov	esp, ebp
	pop	ebp
	ret	16					; 00000010H
?ScoreUnitFast@GroundTaskingManagerClass@@QAEHPAVUnitScoreNode@@PAVGndObjDataType@@HH@Z ENDP ; GroundTaskingManagerClass::ScoreUnitFast
_TEXT	ENDS
; Function compile flags: /Odtp
; File c:\users\zhitao li\documents\visual studio 2012\projects\freefalcon\campaign\camptask\gtm.cpp
_TEXT	SEGMENT
_this$ = -36						; size = 4
_cost$ = -32						; size = 4
_d$1 = -28						; size = 4
_div$2 = -24						; size = 4
_score$ = -20						; size = 4
_ox$ = -16						; size = 2
_oy$ = -12						; size = 2
_ux$ = -8						; size = 2
_uy$ = -4						; size = 2
_curu$ = 8						; size = 4
_curo$ = 12						; size = 4
_orders$ = 16						; size = 4
_mode$ = 20						; size = 4
?ScoreUnit@GroundTaskingManagerClass@@QAEHPAVUnitScoreNode@@PAVGndObjDataType@@HH@Z PROC ; GroundTaskingManagerClass::ScoreUnit
; _this$ = ecx

; 984  : {

	push	ebp
	mov	ebp, esp
	sub	esp, 36					; 00000024H
	push	esi
	mov	DWORD PTR _this$[ebp], ecx

; 985  : 	int			score = -32000;

	mov	DWORD PTR _score$[ebp], -32000		; ffff8300H

; 986  : 	GridIndex	ux,uy,ox,oy;
; 987  : 	costtype	cost;
; 988  : 
; 989  : #ifdef KEV_GDEBUG
; 990  : 	ulong	time;
; 991  : 	time = GetTickCount();
; 992  : #endif
; 993  : 
; 994  : 	curu->unit->GetLocation(&ux,&uy);

	lea	eax, DWORD PTR _uy$[ebp]
	push	eax
	lea	ecx, DWORD PTR _ux$[ebp]
	push	ecx
	mov	edx, DWORD PTR _curu$[ebp]
	mov	ecx, DWORD PTR [edx]
	call	?GetLocation@FalconEntity@@QBEXPAF0@Z	; FalconEntity::GetLocation

; 995  : 	cost = CostToArrive (curu->unit, orders, ux, uy, curo->obj);

	mov	eax, DWORD PTR _curo$[ebp]
	mov	ecx, DWORD PTR [eax]
	push	ecx
	movzx	edx, WORD PTR _uy$[ebp]
	push	edx
	movzx	eax, WORD PTR _ux$[ebp]
	push	eax
	mov	ecx, DWORD PTR _orders$[ebp]
	push	ecx
	mov	edx, DWORD PTR _curu$[ebp]
	mov	eax, DWORD PTR [edx]
	push	eax
	call	?CostToArrive@@YAMPAVUnitClass@@HFFPAVObjectiveClass@@@Z ; CostToArrive
	add	esp, 20					; 00000014H
	fstp	DWORD PTR _cost$[ebp]

; 996  : 
; 997  : 	if (cost >= OBJ_GROUND_PATH_MAX_COST)

	movsx	ecx, WORD PTR ?OBJ_GROUND_PATH_MAX_COST@@3FA ; OBJ_GROUND_PATH_MAX_COST
	cvtsi2ss xmm0, ecx
	movss	xmm1, DWORD PTR _cost$[ebp]
	comiss	xmm1, xmm0
	jb	SHORT $LN6@ScoreUnit

; 998  : 	{
; 999  : #ifdef KEV_GDEBUG
; 1000 : 		ScoreTime += GetTickCount() - time;
; 1001 : #endif
; 1002 : 		return score;

	mov	eax, DWORD PTR _score$[ebp]
	jmp	$LN7@ScoreUnit
$LN6@ScoreUnit:

; 1003 : 	}
; 1004 : 
; 1005 : 	if (mode == GTM_MODE_BEST)

	cmp	DWORD PTR _mode$[ebp], 0
	jne	$LN5@ScoreUnit

; 1006 : 	{
; 1007 : 		// Adjust by distance to objective
; 1008 : 		curo->obj->GetLocation(&ox,&oy);

	lea	edx, DWORD PTR _oy$[ebp]
	push	edx
	lea	eax, DWORD PTR _ox$[ebp]
	push	eax
	mov	ecx, DWORD PTR _curo$[ebp]
	mov	ecx, DWORD PTR [ecx]
	call	?GetLocation@FalconEntity@@QBEXPAF0@Z	; FalconEntity::GetLocation

; 1009 : 		score = curu->score + 100 - FloatToInt32(Distance(ox,oy,ux,uy))/5;

	mov	edx, DWORD PTR _curu$[ebp]
	mov	esi, DWORD PTR [edx+4]
	add	esi, 100				; 00000064H
	movzx	eax, WORD PTR _uy$[ebp]
	push	eax
	movzx	ecx, WORD PTR _ux$[ebp]
	push	ecx
	movzx	edx, WORD PTR _oy$[ebp]
	push	edx
	movzx	eax, WORD PTR _ox$[ebp]
	push	eax
	call	?Distance@@YAMFFFF@Z			; Distance
	add	esp, 12					; 0000000cH
	fstp	DWORD PTR [esp]
	call	?FloatToInt32@@YAHM@Z			; FloatToInt32
	add	esp, 4
	cdq
	mov	ecx, 5
	idiv	ecx
	sub	esi, eax
	mov	DWORD PTR _score$[ebp], esi

; 1010 : 		// Adjust by distance from division
; 1011 : 		Division	div;
; 1012 : 		float		d;
; 1013 : 		curo->obj->GetLocation(&ox,&oy);

	lea	edx, DWORD PTR _oy$[ebp]
	push	edx
	lea	eax, DWORD PTR _ox$[ebp]
	push	eax
	mov	ecx, DWORD PTR _curo$[ebp]
	mov	ecx, DWORD PTR [ecx]
	call	?GetLocation@FalconEntity@@QBEXPAF0@Z	; FalconEntity::GetLocation

; 1014 : 		if (div = GetDivisionByUnit(curu->unit))

	mov	edx, DWORD PTR _curu$[ebp]
	mov	eax, DWORD PTR [edx]
	push	eax
	call	?GetDivisionByUnit@@YAPAVDivisionClass@@PAVUnitClass@@@Z ; GetDivisionByUnit
	add	esp, 4
	mov	DWORD PTR _div$2[ebp], eax
	cmp	DWORD PTR _div$2[ebp], 0
	je	SHORT $LN3@ScoreUnit

; 1015 : 		{
; 1016 : 			div->GetLocation(&ux,&uy);

	lea	ecx, DWORD PTR _uy$[ebp]
	push	ecx
	lea	edx, DWORD PTR _ux$[ebp]
	push	edx
	mov	ecx, DWORD PTR _div$2[ebp]
	call	?GetLocation@DivisionClass@@QAEXPAF0@Z	; DivisionClass::GetLocation

; 1017 : 			d = (float) DistSqu(ux,uy,ox,oy);

	movzx	eax, WORD PTR _oy$[ebp]
	push	eax
	movzx	ecx, WORD PTR _ox$[ebp]
	push	ecx
	movzx	edx, WORD PTR _uy$[ebp]
	push	edx
	movzx	eax, WORD PTR _ux$[ebp]
	push	eax
	call	?DistSqu@@YAHFFFF@Z			; DistSqu
	add	esp, 16					; 00000010H
	cvtsi2ss xmm0, eax
	movss	DWORD PTR _d$1[ebp], xmm0

; 1018 : 			if (d > 900.0F)

	movss	xmm0, DWORD PTR _d$1[ebp]
	comiss	xmm0, DWORD PTR __real@44610000
	jbe	SHORT $LN3@ScoreUnit

; 1019 : 				score -= FloatToInt32((d - 900.0F) / 50.0F);

	movss	xmm0, DWORD PTR _d$1[ebp]
	subss	xmm0, DWORD PTR __real@44610000
	divss	xmm0, DWORD PTR __real@42480000
	push	ecx
	movss	DWORD PTR [esp], xmm0
	call	?FloatToInt32@@YAHM@Z			; FloatToInt32
	add	esp, 4
	mov	ecx, DWORD PTR _score$[ebp]
	sub	ecx, eax
	mov	DWORD PTR _score$[ebp], ecx
$LN3@ScoreUnit:

; 1020 : 		}
; 1021 : 	}

	jmp	SHORT $LN1@ScoreUnit
$LN5@ScoreUnit:

; 1022 : 	else if (mode == GTM_MODE_FASTEST)

	cmp	DWORD PTR _mode$[ebp], 1
	jne	SHORT $LN1@ScoreUnit

; 1023 : 	{
; 1024 : 		// Adjust by cost to objective
; 1025 : 		score = FloatToInt32(50 + curu->score/2.0F - cost);

	mov	edx, DWORD PTR _curu$[ebp]
	cvtsi2ss xmm0, DWORD PTR [edx+4]
	divss	xmm0, DWORD PTR __real@40000000
	addss	xmm0, DWORD PTR __real@42480000
	subss	xmm0, DWORD PTR _cost$[ebp]
	push	ecx
	movss	DWORD PTR [esp], xmm0
	call	?FloatToInt32@@YAHM@Z			; FloatToInt32
	add	esp, 4
	mov	DWORD PTR _score$[ebp], eax
$LN1@ScoreUnit:

; 1026 : 	}
; 1027 : 
; 1028 : #ifdef KEV_GDEBUG
; 1029 : 	ScoreTime += GetTickCount() - time;
; 1030 : #endif
; 1031 : 	return score;

	mov	eax, DWORD PTR _score$[ebp]
$LN7@ScoreUnit:

; 1032 : }

	pop	esi
	mov	esp, ebp
	pop	ebp
	ret	16					; 00000010H
?ScoreUnit@GroundTaskingManagerClass@@QAEHPAVUnitScoreNode@@PAVGndObjDataType@@HH@Z ENDP ; GroundTaskingManagerClass::ScoreUnit
_TEXT	ENDS
; Function compile flags: /Odtp
; File c:\users\zhitao li\documents\visual studio 2012\projects\freefalcon\campaign\camptask\gtm.cpp
_TEXT	SEGMENT
_retval$ = -24						; size = 4
_bests$ = -20						; size = 4
_score$ = -16						; size = 4
_this$ = -12						; size = 4
_bestu$ = -8						; size = 4
_curu$ = -4						; size = 4
_curo$ = 8						; size = 4
_orders$ = 12						; size = 4
_mode$ = 16						; size = 4
?AssignObjective@GroundTaskingManagerClass@@QAEHPAVGndObjDataType@@HH@Z PROC ; GroundTaskingManagerClass::AssignObjective
; _this$ = ecx

; 940  : {

	push	ebp
	mov	ebp, esp
	sub	esp, 24					; 00000018H
	mov	DWORD PTR _this$[ebp], ecx

; 941  : 	USNode			curu,bestu;
; 942  : 	int				bests,score,retval=0;

	mov	DWORD PTR _retval$[ebp], 0

; 943  : 
; 944  : #ifdef KEV_GDEBUG
; 945  : 	ulong	time;
; 946  : 	time = GetTickCount();
; 947  : 	runs++;
; 948  : #endif
; 949  : 
; 950  : 	curu = curo->unit_list;

	mov	eax, DWORD PTR _curo$[ebp]
	mov	ecx, DWORD PTR [eax+12]
	mov	DWORD PTR _curu$[ebp], ecx

; 951  : 	bests = -30000;

	mov	DWORD PTR _bests$[ebp], -30000		; ffff8ad0H

; 952  : 	score = 0;

	mov	DWORD PTR _score$[ebp], 0

; 953  : 	bestu = NULL;

	mov	DWORD PTR _bestu$[ebp], 0
$LN4@AssignObje:

; 954  : 	while (curu && curu->distance > bests)

	cmp	DWORD PTR _curu$[ebp], 0
	je	SHORT $LN3@AssignObje
	mov	edx, DWORD PTR _curu$[ebp]
	mov	eax, DWORD PTR [edx+8]
	cmp	eax, DWORD PTR _bests$[ebp]
	jle	SHORT $LN3@AssignObje

; 955  : 	{
; 956  : #ifdef KEV_GDEBUG
; 957  : 		checks++;
; 958  : #endif
; 959  : 		score = ScoreUnit(curu,curo,orders,mode);

	mov	ecx, DWORD PTR _mode$[ebp]
	push	ecx
	mov	edx, DWORD PTR _orders$[ebp]
	push	edx
	mov	eax, DWORD PTR _curo$[ebp]
	push	eax
	mov	ecx, DWORD PTR _curu$[ebp]
	push	ecx
	mov	ecx, DWORD PTR _this$[ebp]
	call	?ScoreUnit@GroundTaskingManagerClass@@QAEHPAVUnitScoreNode@@PAVGndObjDataType@@HH@Z ; GroundTaskingManagerClass::ScoreUnit
	mov	DWORD PTR _score$[ebp], eax

; 960  : 		if (score > bests)

	mov	edx, DWORD PTR _score$[ebp]
	cmp	edx, DWORD PTR _bests$[ebp]
	jle	SHORT $LN2@AssignObje

; 961  : 		{
; 962  : 			bestu = curu;

	mov	eax, DWORD PTR _curu$[ebp]
	mov	DWORD PTR _bestu$[ebp], eax

; 963  : 			bests = score;

	mov	ecx, DWORD PTR _score$[ebp]
	mov	DWORD PTR _bests$[ebp], ecx
$LN2@AssignObje:

; 964  : 		}
; 965  : 		curu = curu->next;

	mov	edx, DWORD PTR _curu$[ebp]
	mov	eax, DWORD PTR [edx+12]
	mov	DWORD PTR _curu$[ebp], eax

; 966  : 	}

	jmp	SHORT $LN4@AssignObje
$LN3@AssignObje:

; 967  : 	if (bestu)

	cmp	DWORD PTR _bestu$[ebp], 0
	je	SHORT $LN1@AssignObje

; 968  : 	{
; 969  : 		// Assign this unit this this objective
; 970  : 		retval = AssignUnit(bestu->unit,orders,curo->obj,bestu->score);

	mov	ecx, DWORD PTR _bestu$[ebp]
	mov	edx, DWORD PTR [ecx+4]
	push	edx
	mov	eax, DWORD PTR _curo$[ebp]
	mov	ecx, DWORD PTR [eax]
	push	ecx
	mov	edx, DWORD PTR _orders$[ebp]
	push	edx
	mov	eax, DWORD PTR _bestu$[ebp]
	mov	ecx, DWORD PTR [eax]
	push	ecx
	mov	ecx, DWORD PTR _this$[ebp]
	call	?AssignUnit@GroundTaskingManagerClass@@QAEHPAVUnitClass@@HPAVObjectiveClass@@H@Z ; GroundTaskingManagerClass::AssignUnit
	mov	DWORD PTR _retval$[ebp], eax

; 971  : 		// Remove unit from the lists
; 972  : 		objList[orders]->RemoveUnitFromAll(bestu->unit);

	mov	edx, DWORD PTR _bestu$[ebp]
	mov	eax, DWORD PTR [edx]
	push	eax
	mov	ecx, DWORD PTR _orders$[ebp]
	mov	edx, DWORD PTR _this$[ebp]
	mov	ecx, DWORD PTR [edx+ecx*4+152]
	call	?RemoveUnitFromAll@GndObjDataType@@QAEXPAVUnitClass@@@Z ; GndObjDataType::RemoveUnitFromAll
$LN1@AssignObje:

; 973  : 		//		canidateList[orders] = canidateList[orders]->Remove(bestu);
; 974  : 	}
; 975  : 
; 976  : 	objList[orders] = objList[orders]->Remove(curo);

	mov	eax, DWORD PTR _curo$[ebp]
	push	eax
	mov	ecx, DWORD PTR _orders$[ebp]
	mov	edx, DWORD PTR _this$[ebp]
	mov	ecx, DWORD PTR [edx+ecx*4+152]
	call	?Remove@GndObjDataType@@QAEPAV1@PAV1@@Z	; GndObjDataType::Remove
	mov	ecx, DWORD PTR _orders$[ebp]
	mov	edx, DWORD PTR _this$[ebp]
	mov	DWORD PTR [edx+ecx*4+152], eax

; 977  : #ifdef KEV_GDEBUG
; 978  : 	PickTime += GetTickCount() - time;
; 979  : #endif
; 980  : 	return retval;

	mov	eax, DWORD PTR _retval$[ebp]

; 981  : }

	mov	esp, ebp
	pop	ebp
	ret	12					; 0000000cH
?AssignObjective@GroundTaskingManagerClass@@QAEHPAVGndObjDataType@@HH@Z ENDP ; GroundTaskingManagerClass::AssignObjective
_TEXT	ENDS
; Function compile flags: /Odtp
; File c:\users\zhitao li\documents\visual studio 2012\projects\freefalcon\campaign\camptask\gtm.cpp
_TEXT	SEGMENT
$T1 = -92						; size = 8
_sortBy$ = -84						; size = 4
_dist$2 = -80						; size = 4
tv328 = -76						; size = 4
_atmbase$3 = -72					; size = 4
_bestn$4 = -68						; size = 4
_bestds$5 = -64						; size = 4
_ds$6 = -60						; size = 4
_po$7 = -56						; size = 4
_ocnt$ = -52						; size = 4
_ucnt$ = -48						; size = 4
_nexto$ = -44						; size = 4
_nextu$ = -40						; size = 4
_curu$ = -36						; size = 4
_curo$ = -32						; size = 4
_this$ = -28						; size = 4
_x$8 = -24						; size = 2
_y$9 = -20						; size = 2
_ox$10 = -16						; size = 2
_oy$11 = -12						; size = 2
_px$12 = -8						; size = 2
_py$13 = -4						; size = 2
_orders$ = 8						; size = 4
_mode$ = 12						; size = 4
?AssignUnits@GroundTaskingManagerClass@@QAEHHH@Z PROC	; GroundTaskingManagerClass::AssignUnits
; _this$ = ecx

; 817  : {

	push	ebp
	mov	ebp, esp
	sub	esp, 92					; 0000005cH
	mov	DWORD PTR _this$[ebp], ecx

; 818  : 	GODNode			curo,nexto;
; 819  : 	USNode			curu,nextu;
; 820  : 	int				ucnt=0,ocnt=0,sortBy = GODN_SORT_BY_PRIORITY;

	mov	DWORD PTR _ucnt$[ebp], 0
	mov	DWORD PTR _ocnt$[ebp], 0
	mov	DWORD PTR _sortBy$[ebp], 1

; 821  : 
; 822  : #ifdef KEV_GDEBUG
; 823  : 	ulong	time,newtime;
; 824  : 	time = GetTickCount();
; 825  : #endif
; 826  : 
; 827  : 	if (!objList[orders] || !canidateList[orders])

	mov	eax, DWORD PTR _orders$[ebp]
	mov	ecx, DWORD PTR _this$[ebp]
	cmp	DWORD PTR [ecx+eax*4+152], 0
	je	SHORT $LN30@AssignUnit
	mov	edx, DWORD PTR _orders$[ebp]
	mov	eax, DWORD PTR _this$[ebp]
	cmp	DWORD PTR [eax+edx*4+200], 0
	jne	SHORT $LN31@AssignUnit
$LN30@AssignUnit:

; 828  : 		return 0;

	xor	eax, eax
	jmp	$LN32@AssignUnit
$LN31@AssignUnit:

; 829  : 
; 830  : 	// Special case for reserve orders - 
; 831  : 	// We're only going to reorder the unit farthest from our primary objective
; 832  : 	if (orders == GORD_RESERVE)		

	cmp	DWORD PTR _orders$[ebp], 0
	jne	$LN26@AssignUnit

; 833  : 	{
; 834  : 		GridIndex		x,y,px=512,py=512;

	mov	ecx, 512				; 00000200H
	mov	WORD PTR _px$12[ebp], cx
	mov	edx, 512				; 00000200H
	mov	WORD PTR _py$13[ebp], dx

; 835  : 		float			ds,bestds=FLT_MAX;

	movss	xmm0, DWORD PTR __real@7f7fffff
	movss	DWORD PTR _bestds$5[ebp], xmm0

; 836  : 		USNode			bestn=NULL;

	mov	DWORD PTR _bestn$4[ebp], 0

; 837  : 		Objective		po = (Objective) vuDatabase->Find(TeamInfo[owner]->GetGroundAction()->actionObjective);

	mov	eax, DWORD PTR _this$[ebp]
	movzx	ecx, BYTE PTR [eax+146]
	mov	ecx, DWORD PTR ?TeamInfo@@3PAPAVTeamClass@@A[ecx*4]
	call	?GetGroundAction@TeamClass@@QAEPAUTeamGndActionType@@XZ ; TeamClass::GetGroundAction
	mov	edx, DWORD PTR [eax+12]
	push	edx
	mov	eax, DWORD PTR [eax+8]
	push	eax
	mov	ecx, DWORD PTR ?vuDatabase@@3PAVVuDatabase@@A ; vuDatabase
	call	?Find@VuDatabase@@QBEPAVVuEntity@@VVU_ID@@@Z ; VuDatabase::Find
	mov	DWORD PTR _po$7[ebp], eax

; 838  : 
; 839  : 		if (po)

	cmp	DWORD PTR _po$7[ebp], 0
	je	SHORT $LN28@AssignUnit

; 840  : 			po->GetLocation(&px,&py);

	lea	ecx, DWORD PTR _py$13[ebp]
	push	ecx
	lea	edx, DWORD PTR _px$12[ebp]
	push	edx
	mov	ecx, DWORD PTR _po$7[ebp]
	call	?GetLocation@FalconEntity@@QBEXPAF0@Z	; FalconEntity::GetLocation
$LN28@AssignUnit:

; 841  : 		nextu = canidateList[orders];

	mov	eax, DWORD PTR _orders$[ebp]
	mov	ecx, DWORD PTR _this$[ebp]
	mov	edx, DWORD PTR [ecx+eax*4+200]
	mov	DWORD PTR _nextu$[ebp], edx
$LN27@AssignUnit:

; 842  : 		while (nextu)

	cmp	DWORD PTR _nextu$[ebp], 0
	je	$LN26@AssignUnit

; 843  : 		{
; 844  : 			curu = nextu;

	mov	eax, DWORD PTR _nextu$[ebp]
	mov	DWORD PTR _curu$[ebp], eax

; 845  : 			nextu = curu->next;

	mov	ecx, DWORD PTR _curu$[ebp]
	mov	edx, DWORD PTR [ecx+12]
	mov	DWORD PTR _nextu$[ebp], edx

; 846  : 			curu->unit->GetLocation(&x,&y);

	lea	eax, DWORD PTR _y$9[ebp]
	push	eax
	lea	ecx, DWORD PTR _x$8[ebp]
	push	ecx
	mov	edx, DWORD PTR _curu$[ebp]
	mov	ecx, DWORD PTR [edx]
	call	?GetLocation@FalconEntity@@QBEXPAF0@Z	; FalconEntity::GetLocation

; 847  : 			ds = (float) DistSqu(x,y,px,py);

	movzx	eax, WORD PTR _py$13[ebp]
	push	eax
	movzx	ecx, WORD PTR _px$12[ebp]
	push	ecx
	movzx	edx, WORD PTR _y$9[ebp]
	push	edx
	movzx	eax, WORD PTR _x$8[ebp]
	push	eax
	call	?DistSqu@@YAHFFFF@Z			; DistSqu
	add	esp, 16					; 00000010H
	cvtsi2ss xmm0, eax
	movss	DWORD PTR _ds$6[ebp], xmm0

; 848  : 			if (ds < bestds)

	movss	xmm0, DWORD PTR _bestds$5[ebp]
	comiss	xmm0, DWORD PTR _ds$6[ebp]
	jbe	SHORT $LN25@AssignUnit

; 849  : 			{
; 850  : 				bestds = ds;

	movss	xmm0, DWORD PTR _ds$6[ebp]
	movss	DWORD PTR _bestds$5[ebp], xmm0

; 851  : 				if (bestn)

	cmp	DWORD PTR _bestn$4[ebp], 0
	je	SHORT $LN24@AssignUnit

; 852  : 					canidateList[orders] = canidateList[orders]->Remove(curu);

	mov	ecx, DWORD PTR _curu$[ebp]
	push	ecx
	mov	edx, DWORD PTR _orders$[ebp]
	mov	eax, DWORD PTR _this$[ebp]
	mov	ecx, DWORD PTR [eax+edx*4+200]
	call	?Remove@UnitScoreNode@@QAEPAV1@PAV1@@Z	; UnitScoreNode::Remove
	mov	ecx, DWORD PTR _orders$[ebp]
	mov	edx, DWORD PTR _this$[ebp]
	mov	DWORD PTR [edx+ecx*4+200], eax
$LN24@AssignUnit:

; 853  : 				bestn = curu;

	mov	eax, DWORD PTR _curu$[ebp]
	mov	DWORD PTR _bestn$4[ebp], eax

; 854  : 			}
; 855  : 			else

	jmp	SHORT $LN23@AssignUnit
$LN25@AssignUnit:

; 856  : 				canidateList[orders] = canidateList[orders]->Remove(curu);

	mov	ecx, DWORD PTR _curu$[ebp]
	push	ecx
	mov	edx, DWORD PTR _orders$[ebp]
	mov	eax, DWORD PTR _this$[ebp]
	mov	ecx, DWORD PTR [eax+edx*4+200]
	call	?Remove@UnitScoreNode@@QAEPAV1@PAV1@@Z	; UnitScoreNode::Remove
	mov	ecx, DWORD PTR _orders$[ebp]
	mov	edx, DWORD PTR _this$[ebp]
	mov	DWORD PTR [edx+ecx*4+200], eax
$LN23@AssignUnit:

; 857  : 		}

	jmp	$LN27@AssignUnit
$LN26@AssignUnit:

; 858  : 	}
; 859  : 
; 860  : 	// Maintain canidate list
; 861  : 	nextu = canidateList[orders];

	mov	eax, DWORD PTR _orders$[ebp]
	mov	ecx, DWORD PTR _this$[ebp]
	mov	edx, DWORD PTR [ecx+eax*4+200]
	mov	DWORD PTR _nextu$[ebp], edx
$LN22@AssignUnit:

; 862  : 	while (nextu)

	cmp	DWORD PTR _nextu$[ebp], 0
	je	SHORT $LN21@AssignUnit

; 863  : 	{
; 864  : 		curu = nextu;

	mov	eax, DWORD PTR _nextu$[ebp]
	mov	DWORD PTR _curu$[ebp], eax

; 865  : 		nextu = curu->next;

	mov	ecx, DWORD PTR _curu$[ebp]
	mov	edx, DWORD PTR [ecx+12]
	mov	DWORD PTR _nextu$[ebp], edx

; 866  : 		if (curu->unit->Assigned())

	mov	eax, DWORD PTR _curu$[ebp]
	mov	ecx, DWORD PTR [eax]
	call	?Assigned@UnitClass@@QBEHXZ		; UnitClass::Assigned
	test	eax, eax
	je	SHORT $LN20@AssignUnit

; 867  : 			canidateList[orders] = canidateList[orders]->Remove(curu);

	mov	ecx, DWORD PTR _curu$[ebp]
	push	ecx
	mov	edx, DWORD PTR _orders$[ebp]
	mov	eax, DWORD PTR _this$[ebp]
	mov	ecx, DWORD PTR [eax+edx*4+200]
	call	?Remove@UnitScoreNode@@QAEPAV1@PAV1@@Z	; UnitScoreNode::Remove
	mov	ecx, DWORD PTR _orders$[ebp]
	mov	edx, DWORD PTR _this$[ebp]
	mov	DWORD PTR [edx+ecx*4+200], eax

; 868  : 		else

	jmp	SHORT $LN19@AssignUnit
$LN20@AssignUnit:

; 869  : 			ucnt++;

	mov	eax, DWORD PTR _ucnt$[ebp]
	add	eax, 1
	mov	DWORD PTR _ucnt$[ebp], eax
$LN19@AssignUnit:

; 870  : 	}

	jmp	SHORT $LN22@AssignUnit
$LN21@AssignUnit:

; 871  : 
; 872  : 	// Set up our lists
; 873  : 	nexto = objList[orders];

	mov	ecx, DWORD PTR _orders$[ebp]
	mov	edx, DWORD PTR _this$[ebp]
	mov	eax, DWORD PTR [edx+ecx*4+152]
	mov	DWORD PTR _nexto$[ebp], eax
$LN35@AssignUnit:

; 874  : 	while (nexto)

	cmp	DWORD PTR _nexto$[ebp], 0
	je	$LN17@AssignUnit

; 875  : 	{
; 876  : 		curo = nexto;

	mov	ecx, DWORD PTR _nexto$[ebp]
	mov	DWORD PTR _curo$[ebp], ecx

; 877  : 		nexto = curo->next;

	mov	edx, DWORD PTR _curo$[ebp]
	mov	eax, DWORD PTR [edx+16]
	mov	DWORD PTR _nexto$[ebp], eax

; 878  : 
; 879  : 		if (orders == GORD_REPAIR) {

	cmp	DWORD PTR _orders$[ebp], 8
	jne	$LN12@AssignUnit

; 880  : 			// RV - Biker - Only repair ABs if they are used by some squadron
; 881  : 			if (curo->obj->GetType() == TYPE_AIRBASE || curo->obj->GetType() == TYPE_AIRSTRIP) {

	mov	ecx, DWORD PTR _curo$[ebp]
	mov	ecx, DWORD PTR [ecx]
	call	?GetType@CampBaseClass@@QBEEXZ		; CampBaseClass::GetType
	movzx	edx, al
	cmp	edx, 1
	je	SHORT $LN14@AssignUnit
	mov	eax, DWORD PTR _curo$[ebp]
	mov	ecx, DWORD PTR [eax]
	call	?GetType@CampBaseClass@@QBEEXZ		; CampBaseClass::GetType
	movzx	ecx, al
	cmp	ecx, 2
	jne	SHORT $LN13@AssignUnit
$LN14@AssignUnit:

; 882  : 				ATMAirbaseClass* atmbase = TeamInfo[curo->obj->GetTeam()]->atm->FindATMAirbase (curo->obj->Id());

	lea	edx, DWORD PTR $T1[ebp]
	push	edx
	mov	eax, DWORD PTR _curo$[ebp]
	mov	ecx, DWORD PTR [eax]
	call	?Id@VuEntity@@QBE?AVVU_ID@@XZ		; VuEntity::Id
	mov	ecx, DWORD PTR [eax+4]
	push	ecx
	mov	edx, DWORD PTR [eax]
	push	edx
	mov	eax, DWORD PTR _curo$[ebp]
	mov	ecx, DWORD PTR [eax]
	mov	edx, DWORD PTR _curo$[ebp]
	mov	eax, DWORD PTR [ecx]
	mov	ecx, DWORD PTR [edx]
	mov	edx, DWORD PTR [eax+116]
	call	edx
	movzx	eax, al
	mov	ecx, DWORD PTR ?TeamInfo@@3PAPAVTeamClass@@A[eax*4]
	mov	ecx, DWORD PTR [ecx+876]
	call	?FindATMAirbase@AirTaskingManagerClass@@QAEPAVATMAirbaseClass@@VVU_ID@@@Z ; AirTaskingManagerClass::FindATMAirbase
	mov	DWORD PTR _atmbase$3[ebp], eax

; 883  : 				
; 884  : 				//Biker - That does not work???
; 885  : 				if (atmbase && atmbase->usage < 1) {

	cmp	DWORD PTR _atmbase$3[ebp], 0
	je	SHORT $LN13@AssignUnit
	mov	edx, DWORD PTR _atmbase$3[ebp]
	movzx	eax, BYTE PTR [edx+40]
	cmp	eax, 1
	jge	SHORT $LN13@AssignUnit

; 886  : 					continue;

	jmp	$LN35@AssignUnit
$LN13@AssignUnit:

; 887  : 				}
; 888  : 			}
; 889  : 
; 890  : 			GridIndex ox = 0, oy = 0;

	xor	ecx, ecx
	mov	WORD PTR _ox$10[ebp], cx
	xor	edx, edx
	mov	WORD PTR _oy$11[ebp], dx

; 891  : 			curo->obj->GetLocation(&ox, &oy);

	lea	eax, DWORD PTR _oy$11[ebp]
	push	eax
	lea	ecx, DWORD PTR _ox$10[ebp]
	push	ecx
	mov	edx, DWORD PTR _curo$[ebp]
	mov	ecx, DWORD PTR [edx]
	call	?GetLocation@FalconEntity@@QBEXPAF0@Z	; FalconEntity::GetLocation

; 892  : 			float dist = DistanceToFront(ox,oy);

	movzx	eax, WORD PTR _oy$11[ebp]
	push	eax
	movzx	ecx, WORD PTR _ox$10[ebp]
	push	ecx
	call	?DistanceToFront@@YAMFF@Z		; DistanceToFront
	add	esp, 8
	fstp	DWORD PTR _dist$2[ebp]

; 893  : 
; 894  : 			// RV - Biker - Do not repair object near front only if it's a bridge
; 895  : 			if (curo->obj->Type() !=  TYPE_BRIDGE && (curo->obj->IsFrontline() || curo->obj->IsSecondline() || curo->obj->IsThirdline() || dist < 15.0f)) {

	mov	edx, DWORD PTR _curo$[ebp]
	mov	ecx, DWORD PTR [edx]
	call	?Type@VuEntity@@QBEGXZ			; VuEntity::Type
	movzx	eax, ax
	cmp	eax, 6
	je	SHORT $LN12@AssignUnit
	mov	ecx, DWORD PTR _curo$[ebp]
	mov	ecx, DWORD PTR [ecx]
	call	?IsFrontline@ObjectiveClass@@QAEHXZ	; ObjectiveClass::IsFrontline
	test	eax, eax
	jne	SHORT $LN11@AssignUnit
	mov	edx, DWORD PTR _curo$[ebp]
	mov	ecx, DWORD PTR [edx]
	call	?IsSecondline@ObjectiveClass@@QAEHXZ	; ObjectiveClass::IsSecondline
	test	eax, eax
	jne	SHORT $LN11@AssignUnit
	mov	eax, DWORD PTR _curo$[ebp]
	mov	ecx, DWORD PTR [eax]
	call	?IsThirdline@ObjectiveClass@@QAEHXZ	; ObjectiveClass::IsThirdline
	test	eax, eax
	jne	SHORT $LN11@AssignUnit
	movss	xmm0, DWORD PTR __real@41700000
	comiss	xmm0, DWORD PTR _dist$2[ebp]
	jbe	SHORT $LN12@AssignUnit
$LN11@AssignUnit:

; 896  : 				continue;

	jmp	$LN35@AssignUnit
$LN12@AssignUnit:

; 897  : 			}
; 898  : 		}
; 899  : 
; 900  : 		if (ocnt <= ucnt)

	mov	ecx, DWORD PTR _ocnt$[ebp]
	cmp	ecx, DWORD PTR _ucnt$[ebp]
	jg	$LN10@AssignUnit

; 901  : 		{
; 902  : 			// Only take one objective per available unit (highest priority first)
; 903  : 			curu = canidateList[orders];

	mov	edx, DWORD PTR _orders$[ebp]
	mov	eax, DWORD PTR _this$[ebp]
	mov	ecx, DWORD PTR [eax+edx*4+200]
	mov	DWORD PTR _curu$[ebp], ecx
$LN9@AssignUnit:

; 904  : 			while (curu)

	cmp	DWORD PTR _curu$[ebp], 0
	je	SHORT $LN8@AssignUnit

; 905  : 			{
; 906  : 				curo->InsertUnit(curu->unit, curu->score, ScoreUnitFast(curu,curo,orders,mode));

	mov	edx, DWORD PTR _mode$[ebp]
	push	edx
	mov	eax, DWORD PTR _orders$[ebp]
	push	eax
	mov	ecx, DWORD PTR _curo$[ebp]
	push	ecx
	mov	edx, DWORD PTR _curu$[ebp]
	push	edx
	mov	ecx, DWORD PTR _this$[ebp]
	call	?ScoreUnitFast@GroundTaskingManagerClass@@QAEHPAVUnitScoreNode@@PAVGndObjDataType@@HH@Z ; GroundTaskingManagerClass::ScoreUnitFast
	push	eax
	mov	eax, DWORD PTR _curu$[ebp]
	mov	ecx, DWORD PTR [eax+4]
	push	ecx
	mov	edx, DWORD PTR _curu$[ebp]
	mov	eax, DWORD PTR [edx]
	push	eax
	mov	ecx, DWORD PTR _curo$[ebp]
	call	?InsertUnit@GndObjDataType@@QAEXPAVUnitClass@@HH@Z ; GndObjDataType::InsertUnit

; 907  : 				curu = curu->next;

	mov	ecx, DWORD PTR _curu$[ebp]
	mov	edx, DWORD PTR [ecx+12]
	mov	DWORD PTR _curu$[ebp], edx

; 908  : 			}

	jmp	SHORT $LN9@AssignUnit
$LN8@AssignUnit:

; 909  : 			if (curo->unit_options > 0)

	mov	eax, DWORD PTR _curo$[ebp]
	cmp	DWORD PTR [eax+8], 0
	jle	SHORT $LN7@AssignUnit

; 910  : 				ocnt++;

	mov	ecx, DWORD PTR _ocnt$[ebp]
	add	ecx, 1
	mov	DWORD PTR _ocnt$[ebp], ecx

; 911  : 			else

	jmp	SHORT $LN6@AssignUnit
$LN7@AssignUnit:

; 912  : 				objList[orders] = objList[orders]->Remove(curo);

	mov	edx, DWORD PTR _curo$[ebp]
	push	edx
	mov	eax, DWORD PTR _orders$[ebp]
	mov	ecx, DWORD PTR _this$[ebp]
	mov	ecx, DWORD PTR [ecx+eax*4+152]
	call	?Remove@GndObjDataType@@QAEPAV1@PAV1@@Z	; GndObjDataType::Remove
	mov	edx, DWORD PTR _orders$[ebp]
	mov	ecx, DWORD PTR _this$[ebp]
	mov	DWORD PTR [ecx+edx*4+152], eax
$LN6@AssignUnit:

; 913  : 		}
; 914  : 		else

	jmp	SHORT $LN5@AssignUnit
$LN10@AssignUnit:

; 915  : 			objList[orders] = objList[orders]->Remove(curo);

	mov	edx, DWORD PTR _curo$[ebp]
	push	edx
	mov	eax, DWORD PTR _orders$[ebp]
	mov	ecx, DWORD PTR _this$[ebp]
	mov	ecx, DWORD PTR [ecx+eax*4+152]
	call	?Remove@GndObjDataType@@QAEPAV1@PAV1@@Z	; GndObjDataType::Remove
	mov	edx, DWORD PTR _orders$[ebp]
	mov	ecx, DWORD PTR _this$[ebp]
	mov	DWORD PTR [ecx+edx*4+152], eax
$LN5@AssignUnit:

; 916  : 	}

	jmp	$LN35@AssignUnit
$LN17@AssignUnit:

; 917  : 
; 918  : 	// Assign each objective
; 919  : 	while (objList[orders]) // && canidateList[orders])

	mov	edx, DWORD PTR _orders$[ebp]
	mov	eax, DWORD PTR _this$[ebp]
	cmp	DWORD PTR [eax+edx*4+152], 0
	je	SHORT $LN3@AssignUnit

; 920  : 	{
; 921  : 		curo = objList[orders] = objList[orders]->Sort(GODN_SORT_BY_OPTIONS);

	push	2
	mov	ecx, DWORD PTR _orders$[ebp]
	mov	edx, DWORD PTR _this$[ebp]
	mov	ecx, DWORD PTR [edx+ecx*4+152]
	call	?Sort@GndObjDataType@@QAEPAV1@H@Z	; GndObjDataType::Sort
	mov	DWORD PTR tv328[ebp], eax
	mov	eax, DWORD PTR _orders$[ebp]
	mov	ecx, DWORD PTR _this$[ebp]
	mov	edx, DWORD PTR tv328[ebp]
	mov	DWORD PTR [ecx+eax*4+152], edx
	mov	eax, DWORD PTR tv328[ebp]
	mov	DWORD PTR _curo$[ebp], eax

; 922  : 		if (curo)

	cmp	DWORD PTR _curo$[ebp], 0
	je	SHORT $LN2@AssignUnit

; 923  : 			AssignObjective(curo, orders, mode);

	mov	ecx, DWORD PTR _mode$[ebp]
	push	ecx
	mov	edx, DWORD PTR _orders$[ebp]
	push	edx
	mov	eax, DWORD PTR _curo$[ebp]
	push	eax
	mov	ecx, DWORD PTR _this$[ebp]
	call	?AssignObjective@GroundTaskingManagerClass@@QAEHPAVGndObjDataType@@HH@Z ; GroundTaskingManagerClass::AssignObjective
$LN2@AssignUnit:

; 924  : 	}

	jmp	SHORT $LN17@AssignUnit
$LN3@AssignUnit:

; 925  : 
; 926  : 	if (canidateList[orders])

	mov	ecx, DWORD PTR _orders$[ebp]
	mov	edx, DWORD PTR _this$[ebp]
	cmp	DWORD PTR [edx+ecx*4+200], 0
	je	SHORT $LN1@AssignUnit

; 927  : 		canidateList[orders] = canidateList[orders]->Purge();

	mov	eax, DWORD PTR _orders$[ebp]
	mov	ecx, DWORD PTR _this$[ebp]
	mov	ecx, DWORD PTR [ecx+eax*4+200]
	call	?Purge@UnitScoreNode@@QAEPAV1@XZ	; UnitScoreNode::Purge
	mov	edx, DWORD PTR _orders$[ebp]
	mov	ecx, DWORD PTR _this$[ebp]
	mov	DWORD PTR [ecx+edx*4+200], eax
$LN1@AssignUnit:

; 928  : 
; 929  : #ifdef KEV_GDEBUG
; 930  : 	newtime = GetTickCount();
; 931  : 	Time[orders] = newtime - time;
; 932  : #endif
; 933  : 
; 934  : 	return 1;

	mov	eax, 1
$LN32@AssignUnit:

; 935  : }

	mov	esp, ebp
	pop	ebp
	ret	8
?AssignUnits@GroundTaskingManagerClass@@QAEHHH@Z ENDP	; GroundTaskingManagerClass::AssignUnits
_TEXT	ENDS
; Function compile flags: /Odtp
; File c:\users\zhitao li\documents\visual studio 2012\projects\freefalcon\campaign\camptask\gtm.cpp
_TEXT	SEGMENT
$T1 = -48						; size = 8
$T2 = -40						; size = 8
$T3 = -32						; size = 8
$T4 = -24						; size = 8
_this$ = -16						; size = 4
_pod$ = -12						; size = 4
_po$ = -8						; size = 4
_so$ = -4						; size = 4
_u$ = 8							; size = 4
_orders$ = 12						; size = 4
_o$ = 16						; size = 4
_score$ = 20						; size = 4
?AssignUnit@GroundTaskingManagerClass@@QAEHPAVUnitClass@@HPAVObjectiveClass@@H@Z PROC ; GroundTaskingManagerClass::AssignUnit
; _this$ = ecx

; 763  : {

	push	ebp
	mov	ebp, esp
	sub	esp, 48					; 00000030H
	push	esi
	mov	DWORD PTR _this$[ebp], ecx

; 764  : 	Objective	so,po;
; 765  : 	POData		pod;
; 766  : 	//	SOData		sod;
; 767  : 
; 768  : 	if (!u || !o)

	cmp	DWORD PTR _u$[ebp], 0
	je	SHORT $LN4@AssignUnit
	cmp	DWORD PTR _o$[ebp], 0
	jne	SHORT $LN5@AssignUnit
$LN4@AssignUnit:

; 769  : 		return 0;

	xor	eax, eax
	jmp	$LN6@AssignUnit
$LN5@AssignUnit:

; 770  : 
; 771  : #ifdef KEV_GDEBUG
; 772  : 	AssignedCount[orders]++;
; 773  : #endif
; 774  : 
; 775  : 	Assigned++;

	mov	eax, DWORD PTR ?Assigned@@3HA		; Assigned
	add	eax, 1
	mov	DWORD PTR ?Assigned@@3HA, eax		; Assigned

; 776  : 
; 777  : 	// Set local data right now...
; 778  : 	u->SetAssigned(1);

	push	1
	mov	ecx, DWORD PTR _u$[ebp]
	call	?SetAssigned@UnitClass@@QAEXH@Z		; UnitClass::SetAssigned

; 779  : 	u->SetOrdered(1);

	push	1
	mov	ecx, DWORD PTR _u$[ebp]
	call	?SetOrdered@UnitClass@@QAEXH@Z		; UnitClass::SetOrdered

; 780  : 	u->SetUnitOrders(orders, o->Id());

	lea	ecx, DWORD PTR $T4[ebp]
	push	ecx
	mov	ecx, DWORD PTR _o$[ebp]
	call	?Id@VuEntity@@QBE?AVVU_ID@@XZ		; VuEntity::Id
	mov	edx, DWORD PTR [eax+4]
	push	edx
	mov	eax, DWORD PTR [eax]
	push	eax
	mov	ecx, DWORD PTR _orders$[ebp]
	push	ecx
	mov	edx, DWORD PTR _u$[ebp]
	mov	eax, DWORD PTR [edx]
	mov	ecx, DWORD PTR _u$[ebp]
	mov	edx, DWORD PTR [eax+828]
	call	edx

; 781  : 
; 782  : 	// Now collect the SO and PO from this objective, if we don't already have them
; 783  : 	po = so = o;

	mov	eax, DWORD PTR _o$[ebp]
	mov	DWORD PTR _so$[ebp], eax
	mov	ecx, DWORD PTR _so$[ebp]
	mov	DWORD PTR _po$[ebp], ecx

; 784  : 	if (!so->IsSecondary() && o->GetObjectiveParent())

	mov	ecx, DWORD PTR _so$[ebp]
	call	?IsSecondary@ObjectiveClass@@QAEHXZ	; ObjectiveClass::IsSecondary
	test	eax, eax
	jne	SHORT $LN3@AssignUnit
	mov	ecx, DWORD PTR _o$[ebp]
	call	?GetObjectiveParent@ObjectiveClass@@QAEPAV1@XZ ; ObjectiveClass::GetObjectiveParent
	test	eax, eax
	je	SHORT $LN3@AssignUnit

; 785  : 		po = so = o->GetObjectiveParent();

	mov	ecx, DWORD PTR _o$[ebp]
	call	?GetObjectiveParent@ObjectiveClass@@QAEPAV1@XZ ; ObjectiveClass::GetObjectiveParent
	mov	DWORD PTR _so$[ebp], eax
	mov	edx, DWORD PTR _so$[ebp]
	mov	DWORD PTR _po$[ebp], edx
$LN3@AssignUnit:

; 786  : 	if (!po->IsPrimary() && so->GetObjectiveParent())

	mov	ecx, DWORD PTR _po$[ebp]
	call	?IsPrimary@ObjectiveClass@@QAEHXZ	; ObjectiveClass::IsPrimary
	test	eax, eax
	jne	SHORT $LN2@AssignUnit
	mov	ecx, DWORD PTR _so$[ebp]
	call	?GetObjectiveParent@ObjectiveClass@@QAEPAV1@XZ ; ObjectiveClass::GetObjectiveParent
	test	eax, eax
	je	SHORT $LN2@AssignUnit

; 787  : 		po = so->GetObjectiveParent();

	mov	ecx, DWORD PTR _so$[ebp]
	call	?GetObjectiveParent@ObjectiveClass@@QAEPAV1@XZ ; ObjectiveClass::GetObjectiveParent
	mov	DWORD PTR _po$[ebp], eax
$LN2@AssignUnit:

; 788  : 	u->SetUnitObjective(o->Id());

	lea	eax, DWORD PTR $T3[ebp]
	push	eax
	mov	ecx, DWORD PTR _o$[ebp]
	call	?Id@VuEntity@@QBE?AVVU_ID@@XZ		; VuEntity::Id
	mov	ecx, DWORD PTR [eax+4]
	push	ecx
	mov	edx, DWORD PTR [eax]
	push	edx
	mov	eax, DWORD PTR _u$[ebp]
	mov	edx, DWORD PTR [eax]
	mov	ecx, DWORD PTR _u$[ebp]
	mov	eax, DWORD PTR [edx+824]
	call	eax

; 789  : 	u->SetUnitSecondaryObj(so->Id());

	lea	ecx, DWORD PTR $T2[ebp]
	push	ecx
	mov	ecx, DWORD PTR _so$[ebp]
	call	?Id@VuEntity@@QBE?AVVU_ID@@XZ		; VuEntity::Id
	mov	edx, DWORD PTR [eax+4]
	push	edx
	mov	eax, DWORD PTR [eax]
	push	eax
	mov	ecx, DWORD PTR _u$[ebp]
	mov	edx, DWORD PTR [ecx]
	mov	ecx, DWORD PTR _u$[ebp]
	mov	eax, DWORD PTR [edx+820]
	call	eax

; 790  : 	u->SetUnitPrimaryObj(po->Id());

	lea	ecx, DWORD PTR $T1[ebp]
	push	ecx
	mov	ecx, DWORD PTR _po$[ebp]
	call	?Id@VuEntity@@QBE?AVVU_ID@@XZ		; VuEntity::Id
	mov	edx, DWORD PTR [eax+4]
	push	edx
	mov	eax, DWORD PTR [eax]
	push	eax
	mov	ecx, DWORD PTR _u$[ebp]
	mov	edx, DWORD PTR [ecx]
	mov	ecx, DWORD PTR _u$[ebp]
	mov	eax, DWORD PTR [edx+816]
	call	eax

; 791  : 
; 792  : 	// Increment unit count for this primary
; 793  : 	pod = GetPOData(po);

	mov	ecx, DWORD PTR _po$[ebp]
	push	ecx
	call	?GetPOData@@YAPAUPrimaryObjectiveData@@PAVObjectiveClass@@@Z ; GetPOData
	add	esp, 4
	mov	DWORD PTR _pod$[ebp], eax

; 794  : 	if (pod)

	cmp	DWORD PTR _pod$[ebp], 0
	je	SHORT $LN1@AssignUnit

; 795  : 		pod->ground_assigned[owner] += u->GetTotalVehicles();

	mov	edx, DWORD PTR _this$[ebp]
	movzx	esi, BYTE PTR [edx+146]
	mov	ecx, DWORD PTR _u$[ebp]
	call	?GetTotalVehicles@UnitClass@@QAEHXZ	; UnitClass::GetTotalVehicles
	mov	ecx, DWORD PTR _pod$[ebp]
	movsx	edx, WORD PTR [ecx+esi*2+24]
	add	edx, eax
	mov	eax, DWORD PTR _this$[ebp]
	movzx	ecx, BYTE PTR [eax+146]
	mov	eax, DWORD PTR _pod$[ebp]
	mov	WORD PTR [eax+ecx*2+24], dx
$LN1@AssignUnit:

; 796  : 	/*	if (so != po)
; 797  : 		{
; 798  : 		sod = GetSOData(so);
; 799  : 		if (sod)
; 800  : 		sod->assigned[owner] += u->GetTotalVehicles();
; 801  : 		}
; 802  : 	 */
; 803  : 
; 804  : #ifdef KEV_GDEBUG
; 805  : 	//	char		name1[128],name2[128];
; 806  : 	//	GridIndex	x,y,ux,uy;
; 807  : 	//	u->GetName(name1,127);
; 808  : 	//	o->GetName(name2,127);
; 809  : 	//	u->GetLocation(&ux,&uy);
; 810  : 	//	o->GetLocation(&x,&y);
; 811  : 	//	MonoPrint("%s (%d) %s -> %s (%d) @ %d,%d - d:%d, s:%d\n",name1,u->GetCampID(),OrderStr[orders],name2,o->GetCampID(),x,y,(int)Distance(ux,uy,x,y),score);
; 812  : #endif
; 813  : 	return 1;

	mov	eax, 1
$LN6@AssignUnit:

; 814  : }

	pop	esi
	mov	esp, ebp
	pop	ebp
	ret	16					; 00000010H
?AssignUnit@GroundTaskingManagerClass@@QAEHPAVUnitClass@@HPAVObjectiveClass@@H@Z ENDP ; GroundTaskingManagerClass::AssignUnit
_TEXT	ENDS
; Function compile flags: /Odtp
; File c:\users\zhitao li\documents\visual studio 2012\projects\freefalcon\campaign\camptask\gtm.cpp
_TEXT	SEGMENT
tv65 = -8						; size = 4
_this$ = -4						; size = 4
_orders$ = 8						; size = 4
_o$ = 12						; size = 4
?IsValidObjective@GroundTaskingManagerClass@@QAEHHPAVObjectiveClass@@@Z PROC ; GroundTaskingManagerClass::IsValidObjective
; _this$ = ecx

; 392  : {

	push	ebp
	mov	ebp, esp
	sub	esp, 8
	push	esi
	mov	DWORD PTR _this$[ebp], ecx

; 393  : 	if (!o)

	cmp	DWORD PTR _o$[ebp], 0
	jne	SHORT $LN27@IsValidObj

; 394  : 		return 0;

	xor	eax, eax
	jmp	$LN28@IsValidObj
$LN27@IsValidObj:

; 395  : 
; 396  : 	switch (orders)

	mov	eax, DWORD PTR _orders$[ebp]
	mov	DWORD PTR tv65[ebp], eax
	mov	ecx, DWORD PTR tv65[ebp]
	sub	ecx, 1
	mov	DWORD PTR tv65[ebp], ecx
	cmp	DWORD PTR tv65[ebp], 10			; 0000000aH
	ja	$LN2@IsValidObj
	mov	edx, DWORD PTR tv65[ebp]
	jmp	DWORD PTR $LN30@IsValidObj[edx*4]
$LN24@IsValidObj:

; 397  : 	{
; 398  : 			case GORD_CAPTURE:
; 399  : 					if (o->IsSecondary() && o->IsNearfront() && GetRoE(owner,o->GetTeam(),ROE_GROUND_CAPTURE) == ROE_ALLOWED)

	mov	ecx, DWORD PTR _o$[ebp]
	call	?IsSecondary@ObjectiveClass@@QAEHXZ	; ObjectiveClass::IsSecondary
	test	eax, eax
	je	SHORT $LN23@IsValidObj
	mov	ecx, DWORD PTR _o$[ebp]
	call	?IsNearfront@ObjectiveClass@@QAEHXZ	; ObjectiveClass::IsNearfront
	test	eax, eax
	je	SHORT $LN23@IsValidObj
	push	3
	mov	eax, DWORD PTR _o$[ebp]
	mov	edx, DWORD PTR [eax]
	mov	ecx, DWORD PTR _o$[ebp]
	mov	eax, DWORD PTR [edx+116]
	call	eax
	movzx	ecx, al
	push	ecx
	mov	edx, DWORD PTR _this$[ebp]
	movzx	eax, BYTE PTR [edx+146]
	push	eax
	call	?GetRoE@@YAHEEH@Z			; GetRoE
	add	esp, 12					; 0000000cH
	cmp	eax, 1
	jne	SHORT $LN23@IsValidObj

; 400  : 						return 1;

	mov	eax, 1
	jmp	$LN28@IsValidObj
$LN23@IsValidObj:

; 401  : 					break;

	jmp	$LN25@IsValidObj
$LN22@IsValidObj:

; 402  : 			case GORD_SECURE:
; 403  : 					if (o->IsSecondary() && owner == o->GetTeam() && (o->IsFrontline() || o->IsSecondline()))

	mov	ecx, DWORD PTR _o$[ebp]
	call	?IsSecondary@ObjectiveClass@@QAEHXZ	; ObjectiveClass::IsSecondary
	test	eax, eax
	je	SHORT $LN21@IsValidObj
	mov	ecx, DWORD PTR _this$[ebp]
	movzx	esi, BYTE PTR [ecx+146]
	mov	edx, DWORD PTR _o$[ebp]
	mov	eax, DWORD PTR [edx]
	mov	ecx, DWORD PTR _o$[ebp]
	mov	edx, DWORD PTR [eax+116]
	call	edx
	movzx	eax, al
	cmp	esi, eax
	jne	SHORT $LN21@IsValidObj
	mov	ecx, DWORD PTR _o$[ebp]
	call	?IsFrontline@ObjectiveClass@@QAEHXZ	; ObjectiveClass::IsFrontline
	test	eax, eax
	jne	SHORT $LN20@IsValidObj
	mov	ecx, DWORD PTR _o$[ebp]
	call	?IsSecondline@ObjectiveClass@@QAEHXZ	; ObjectiveClass::IsSecondline
	test	eax, eax
	je	SHORT $LN21@IsValidObj
$LN20@IsValidObj:

; 404  : 						return 1;

	mov	eax, 1
	jmp	$LN28@IsValidObj
$LN21@IsValidObj:

; 405  : 					break;

	jmp	$LN25@IsValidObj
$LN19@IsValidObj:

; 406  : 			case GORD_ASSAULT:
; 407  : 					if (o->IsSecondary() && !o->IsNearfront() && o->IsBeach() && GetRoE(owner,o->GetTeam(),ROE_GROUND_CAPTURE) == ROE_ALLOWED)

	mov	ecx, DWORD PTR _o$[ebp]
	call	?IsSecondary@ObjectiveClass@@QAEHXZ	; ObjectiveClass::IsSecondary
	test	eax, eax
	je	SHORT $LN18@IsValidObj
	mov	ecx, DWORD PTR _o$[ebp]
	call	?IsNearfront@ObjectiveClass@@QAEHXZ	; ObjectiveClass::IsNearfront
	test	eax, eax
	jne	SHORT $LN18@IsValidObj
	mov	ecx, DWORD PTR _o$[ebp]
	call	?IsBeach@ObjectiveClass@@QAEHXZ		; ObjectiveClass::IsBeach
	test	eax, eax
	je	SHORT $LN18@IsValidObj
	push	3
	mov	ecx, DWORD PTR _o$[ebp]
	mov	edx, DWORD PTR [ecx]
	mov	ecx, DWORD PTR _o$[ebp]
	mov	eax, DWORD PTR [edx+116]
	call	eax
	movzx	ecx, al
	push	ecx
	mov	edx, DWORD PTR _this$[ebp]
	movzx	eax, BYTE PTR [edx+146]
	push	eax
	call	?GetRoE@@YAHEEH@Z			; GetRoE
	add	esp, 12					; 0000000cH
	cmp	eax, 1
	jne	SHORT $LN18@IsValidObj

; 408  : 						return 1;

	mov	eax, 1
	jmp	$LN28@IsValidObj
$LN18@IsValidObj:

; 409  : 					break;

	jmp	$LN25@IsValidObj
$LN17@IsValidObj:

; 410  : 			case GORD_AIRBORNE:
; 411  : 					if (o->IsSecondary() && !o->IsNearfront()  && GetRoE(owner,o->GetTeam(),ROE_GROUND_CAPTURE) == ROE_ALLOWED) //  && !defended)

	mov	ecx, DWORD PTR _o$[ebp]
	call	?IsSecondary@ObjectiveClass@@QAEHXZ	; ObjectiveClass::IsSecondary
	test	eax, eax
	je	SHORT $LN16@IsValidObj
	mov	ecx, DWORD PTR _o$[ebp]
	call	?IsNearfront@ObjectiveClass@@QAEHXZ	; ObjectiveClass::IsNearfront
	test	eax, eax
	jne	SHORT $LN16@IsValidObj
	push	3
	mov	ecx, DWORD PTR _o$[ebp]
	mov	edx, DWORD PTR [ecx]
	mov	ecx, DWORD PTR _o$[ebp]
	mov	eax, DWORD PTR [edx+116]
	call	eax
	movzx	ecx, al
	push	ecx
	mov	edx, DWORD PTR _this$[ebp]
	movzx	eax, BYTE PTR [edx+146]
	push	eax
	call	?GetRoE@@YAHEEH@Z			; GetRoE
	add	esp, 12					; 0000000cH
	cmp	eax, 1
	jne	SHORT $LN16@IsValidObj

; 412  : 						return 1;

	mov	eax, 1
	jmp	$LN28@IsValidObj
$LN16@IsValidObj:

; 413  : 					break;

	jmp	$LN25@IsValidObj
$LN15@IsValidObj:

; 414  : 			case GORD_COMMANDO:
; 415  : 					if (o->CommandoSite() && GetRoE(owner,o->GetTeam(),ROE_GROUND_CAPTURE) == ROE_ALLOWED)

	mov	ecx, DWORD PTR _o$[ebp]
	call	?CommandoSite@ObjectiveClass@@QAEHXZ	; ObjectiveClass::CommandoSite
	test	eax, eax
	je	SHORT $LN14@IsValidObj
	push	3
	mov	ecx, DWORD PTR _o$[ebp]
	mov	edx, DWORD PTR [ecx]
	mov	ecx, DWORD PTR _o$[ebp]
	mov	eax, DWORD PTR [edx+116]
	call	eax
	movzx	ecx, al
	push	ecx
	mov	edx, DWORD PTR _this$[ebp]
	movzx	eax, BYTE PTR [edx+146]
	push	eax
	call	?GetRoE@@YAHEEH@Z			; GetRoE
	add	esp, 12					; 0000000cH
	cmp	eax, 1
	jne	SHORT $LN14@IsValidObj

; 416  : 						return 1;

	mov	eax, 1
	jmp	$LN28@IsValidObj
$LN14@IsValidObj:

; 417  : 					break;

	jmp	$LN25@IsValidObj
$LN13@IsValidObj:

; 418  : 			case GORD_DEFEND:
; 419  : 					if (o->IsSecondary() && o->IsNearfront() && owner == o->GetTeam() && !o->Abandoned())

	mov	ecx, DWORD PTR _o$[ebp]
	call	?IsSecondary@ObjectiveClass@@QAEHXZ	; ObjectiveClass::IsSecondary
	test	eax, eax
	je	SHORT $LN12@IsValidObj
	mov	ecx, DWORD PTR _o$[ebp]
	call	?IsNearfront@ObjectiveClass@@QAEHXZ	; ObjectiveClass::IsNearfront
	test	eax, eax
	je	SHORT $LN12@IsValidObj
	mov	ecx, DWORD PTR _this$[ebp]
	movzx	esi, BYTE PTR [ecx+146]
	mov	edx, DWORD PTR _o$[ebp]
	mov	eax, DWORD PTR [edx]
	mov	ecx, DWORD PTR _o$[ebp]
	mov	edx, DWORD PTR [eax+116]
	call	edx
	movzx	eax, al
	cmp	esi, eax
	jne	SHORT $LN12@IsValidObj
	mov	ecx, DWORD PTR _o$[ebp]
	call	?Abandoned@ObjectiveClass@@QAEHXZ	; ObjectiveClass::Abandoned
	test	eax, eax
	jne	SHORT $LN12@IsValidObj

; 420  : 						return 1;

	mov	eax, 1
	jmp	$LN28@IsValidObj
$LN12@IsValidObj:

; 421  : 					break;

	jmp	$LN25@IsValidObj
$LN11@IsValidObj:

; 422  : 			case GORD_SUPPORT:
; 423  : 					if (owner == o->GetTeam() && o->ArtillerySite())

	mov	ecx, DWORD PTR _this$[ebp]
	movzx	esi, BYTE PTR [ecx+146]
	mov	edx, DWORD PTR _o$[ebp]
	mov	eax, DWORD PTR [edx]
	mov	ecx, DWORD PTR _o$[ebp]
	mov	edx, DWORD PTR [eax+116]
	call	edx
	movzx	eax, al
	cmp	esi, eax
	jne	SHORT $LN10@IsValidObj
	mov	ecx, DWORD PTR _o$[ebp]
	call	?ArtillerySite@ObjectiveClass@@QAEHXZ	; ObjectiveClass::ArtillerySite
	test	eax, eax
	je	SHORT $LN10@IsValidObj

; 424  : 						return 1;

	mov	eax, 1
	jmp	$LN28@IsValidObj
$LN10@IsValidObj:

; 425  : 					break;

	jmp	$LN25@IsValidObj
$LN9@IsValidObj:

; 426  : 			case GORD_REPAIR:
; 427  : 					if (owner == o->GetTeam() && o->NeedRepair() && o->GetObjectiveStatus() < 51)

	mov	ecx, DWORD PTR _this$[ebp]
	movzx	esi, BYTE PTR [ecx+146]
	mov	edx, DWORD PTR _o$[ebp]
	mov	eax, DWORD PTR [edx]
	mov	ecx, DWORD PTR _o$[ebp]
	mov	edx, DWORD PTR [eax+116]
	call	edx
	movzx	eax, al
	cmp	esi, eax
	jne	SHORT $LN8@IsValidObj
	mov	ecx, DWORD PTR _o$[ebp]
	call	?NeedRepair@ObjectiveClass@@QAEHXZ	; ObjectiveClass::NeedRepair
	test	eax, eax
	je	SHORT $LN8@IsValidObj
	mov	ecx, DWORD PTR _o$[ebp]
	call	?GetObjectiveStatus@ObjectiveClass@@QAEEXZ ; ObjectiveClass::GetObjectiveStatus
	movzx	ecx, al
	cmp	ecx, 51					; 00000033H
	jge	SHORT $LN8@IsValidObj

; 428  : 						return 1;

	mov	eax, 1
	jmp	$LN28@IsValidObj
$LN8@IsValidObj:

; 429  : 					break;

	jmp	$LN25@IsValidObj
$LN7@IsValidObj:

; 430  : 			case GORD_AIRDEFENSE:
; 431  : 					if (owner == o->GetTeam() && o->SamSite())

	mov	edx, DWORD PTR _this$[ebp]
	movzx	esi, BYTE PTR [edx+146]
	mov	eax, DWORD PTR _o$[ebp]
	mov	edx, DWORD PTR [eax]
	mov	ecx, DWORD PTR _o$[ebp]
	mov	eax, DWORD PTR [edx+116]
	call	eax
	movzx	ecx, al
	cmp	esi, ecx
	jne	SHORT $LN6@IsValidObj
	mov	ecx, DWORD PTR _o$[ebp]
	call	?SamSite@ObjectiveClass@@QAEHXZ		; ObjectiveClass::SamSite
	test	eax, eax
	je	SHORT $LN6@IsValidObj

; 432  : 						return 1;

	mov	eax, 1
	jmp	SHORT $LN28@IsValidObj
$LN6@IsValidObj:

; 433  : 					break;

	jmp	SHORT $LN25@IsValidObj
$LN5@IsValidObj:

; 434  : 			case GORD_RECON:
; 435  : 					return 0;

	xor	eax, eax
	jmp	SHORT $LN28@IsValidObj

; 436  : 					break;

	jmp	SHORT $LN25@IsValidObj
$LN4@IsValidObj:

; 437  : 			case GORD_RADAR:
; 438  : 					if (owner == o->GetTeam() && o->RadarSite())

	mov	edx, DWORD PTR _this$[ebp]
	movzx	esi, BYTE PTR [edx+146]
	mov	eax, DWORD PTR _o$[ebp]
	mov	edx, DWORD PTR [eax]
	mov	ecx, DWORD PTR _o$[ebp]
	mov	eax, DWORD PTR [edx+116]
	call	eax
	movzx	ecx, al
	cmp	esi, ecx
	jne	SHORT $LN3@IsValidObj
	mov	ecx, DWORD PTR _o$[ebp]
	call	?RadarSite@ObjectiveClass@@QAEHXZ	; ObjectiveClass::RadarSite
	test	eax, eax
	je	SHORT $LN3@IsValidObj

; 439  : 						return 1;

	mov	eax, 1
	jmp	SHORT $LN28@IsValidObj
$LN3@IsValidObj:

; 440  : 					break;

	jmp	SHORT $LN25@IsValidObj
$LN2@IsValidObj:

; 441  : 			case GORD_RESERVE:
; 442  : 			default:
; 443  : 					if (o->IsSecondary() && owner == o->GetTeam() && !o->IsNearfront())

	mov	ecx, DWORD PTR _o$[ebp]
	call	?IsSecondary@ObjectiveClass@@QAEHXZ	; ObjectiveClass::IsSecondary
	test	eax, eax
	je	SHORT $LN25@IsValidObj
	mov	edx, DWORD PTR _this$[ebp]
	movzx	esi, BYTE PTR [edx+146]
	mov	eax, DWORD PTR _o$[ebp]
	mov	edx, DWORD PTR [eax]
	mov	ecx, DWORD PTR _o$[ebp]
	mov	eax, DWORD PTR [edx+116]
	call	eax
	movzx	ecx, al
	cmp	esi, ecx
	jne	SHORT $LN25@IsValidObj
	mov	ecx, DWORD PTR _o$[ebp]
	call	?IsNearfront@ObjectiveClass@@QAEHXZ	; ObjectiveClass::IsNearfront
	test	eax, eax
	jne	SHORT $LN25@IsValidObj

; 444  : 						return 1;

	mov	eax, 1
	jmp	SHORT $LN28@IsValidObj
$LN25@IsValidObj:

; 445  : 					break;
; 446  : 	}
; 447  : 	return 0;

	xor	eax, eax
$LN28@IsValidObj:

; 448  : }

	pop	esi
	mov	esp, ebp
	pop	ebp
	ret	8
$LN30@IsValidObj:
	DD	$LN24@IsValidObj
	DD	$LN22@IsValidObj
	DD	$LN19@IsValidObj
	DD	$LN17@IsValidObj
	DD	$LN15@IsValidObj
	DD	$LN13@IsValidObj
	DD	$LN11@IsValidObj
	DD	$LN9@IsValidObj
	DD	$LN7@IsValidObj
	DD	$LN5@IsValidObj
	DD	$LN4@IsValidObj
?IsValidObjective@GroundTaskingManagerClass@@QAEHHPAVObjectiveClass@@@Z ENDP ; GroundTaskingManagerClass::IsValidObjective
_TEXT	ENDS
; Function compile flags: /Odtp
; File c:\users\zhitao li\documents\visual studio 2012\projects\freefalcon\campaign\camptask\gtm.cpp
_TEXT	SEGMENT
_d$1 = -40						; size = 4
_o$2 = -36						; size = 4
_role$ = -32						; size = 4
_curo$3 = -28						; size = 4
_o$4 = -24						; size = 4
_orders$5 = -20						; size = 4
_this$ = -16						; size = 4
_i$ = -12						; size = 4
_x$6 = -8						; size = 2
_y$7 = -4						; size = 2
_u$ = 8							; size = 4
_to_collect$ = 12					; size = 4
?AddToLists@GroundTaskingManagerClass@@QAEXPAVUnitClass@@H@Z PROC ; GroundTaskingManagerClass::AddToLists
; _this$ = ecx

; 620  : {

	push	ebp
	mov	ebp, esp
	sub	esp, 40					; 00000028H
	mov	DWORD PTR _this$[ebp], ecx

; 621  : 	int i,role;
; 622  : 
; 623  : 	// Units with valid orders are not reassigned
; 624  : 	if (u->GetUnitOrders() != GRO_RESERVE)

	mov	eax, DWORD PTR _u$[ebp]
	mov	edx, DWORD PTR [eax]
	mov	ecx, DWORD PTR _u$[ebp]
	mov	eax, DWORD PTR [edx+880]
	call	eax
	test	eax, eax
	je	$LN24@AddToLists

; 625  : 	{
; 626  : 		int orders = u->GetUnitOrders();

	mov	ecx, DWORD PTR _u$[ebp]
	mov	edx, DWORD PTR [ecx]
	mov	ecx, DWORD PTR _u$[ebp]
	mov	eax, DWORD PTR [edx+880]
	call	eax
	mov	DWORD PTR _orders$5[ebp], eax

; 627  : 		if ((to_collect & (0x01 << orders)) && IsValidObjective(orders,u->GetUnitObjective()))

	mov	edx, 1
	mov	ecx, DWORD PTR _orders$5[ebp]
	shl	edx, cl
	and	edx, DWORD PTR _to_collect$[ebp]
	je	$LN24@AddToLists
	mov	eax, DWORD PTR _u$[ebp]
	mov	edx, DWORD PTR [eax]
	mov	ecx, DWORD PTR _u$[ebp]
	mov	eax, DWORD PTR [edx+864]
	call	eax
	push	eax
	mov	ecx, DWORD PTR _orders$5[ebp]
	push	ecx
	mov	ecx, DWORD PTR _this$[ebp]
	call	?IsValidObjective@GroundTaskingManagerClass@@QAEHHPAVObjectiveClass@@@Z ; GroundTaskingManagerClass::IsValidObjective
	test	eax, eax
	je	$LN24@AddToLists

; 628  : 		{
; 629  : 			Objective	o = u->GetUnitObjective();

	mov	edx, DWORD PTR _u$[ebp]
	mov	eax, DWORD PTR [edx]
	mov	ecx, DWORD PTR _u$[ebp]
	mov	edx, DWORD PTR [eax+864]
	call	edx
	mov	DWORD PTR _o$2[ebp], eax

; 630  : 			GODNode		curo = objList[orders];

	mov	eax, DWORD PTR _orders$5[ebp]
	mov	ecx, DWORD PTR _this$[ebp]
	mov	edx, DWORD PTR [ecx+eax*4+152]
	mov	DWORD PTR _curo$3[ebp], edx
$LN25@AddToLists:

; 631  : 			while (curo)

	cmp	DWORD PTR _curo$3[ebp], 0
	je	SHORT $LN24@AddToLists

; 632  : 			{
; 633  : 				if (curo->obj == o)

	mov	eax, DWORD PTR _curo$3[ebp]
	mov	ecx, DWORD PTR [eax]
	cmp	ecx, DWORD PTR _o$2[ebp]
	jne	SHORT $LN23@AddToLists

; 634  : 				{
; 635  : 					if (orders == GORD_CAPTURE)

	cmp	DWORD PTR _orders$5[ebp], 1
	jne	SHORT $LN22@AddToLists

; 636  : 						sOffensiveAssigned++;

	mov	edx, DWORD PTR ?sOffensiveAssigned@@3HA	; sOffensiveAssigned
	add	edx, 1
	mov	DWORD PTR ?sOffensiveAssigned@@3HA, edx	; sOffensiveAssigned
$LN22@AddToLists:

; 637  : #ifdef KEV_GDEBUG
; 638  : 					UnitCount[orders]++;
; 639  : #endif
; 640  : 					AssignUnit(u,orders,o,999);

	push	999					; 000003e7H
	mov	eax, DWORD PTR _o$2[ebp]
	push	eax
	mov	ecx, DWORD PTR _orders$5[ebp]
	push	ecx
	mov	edx, DWORD PTR _u$[ebp]
	push	edx
	mov	ecx, DWORD PTR _this$[ebp]
	call	?AssignUnit@GroundTaskingManagerClass@@QAEHPAVUnitClass@@HPAVObjectiveClass@@H@Z ; GroundTaskingManagerClass::AssignUnit

; 641  : 					// Their objective is removed from the satisfy list
; 642  : 					if (objList[orders])

	mov	eax, DWORD PTR _orders$5[ebp]
	mov	ecx, DWORD PTR _this$[ebp]
	cmp	DWORD PTR [ecx+eax*4+152], 0
	je	SHORT $LN21@AddToLists

; 643  : 						objList[orders] = objList[orders]->Remove(o);

	mov	edx, DWORD PTR _o$2[ebp]
	push	edx
	mov	eax, DWORD PTR _orders$5[ebp]
	mov	ecx, DWORD PTR _this$[ebp]
	mov	ecx, DWORD PTR [ecx+eax*4+152]
	call	?Remove@GndObjDataType@@QAEPAV1@PAVObjectiveClass@@@Z ; GndObjDataType::Remove
	mov	edx, DWORD PTR _orders$5[ebp]
	mov	ecx, DWORD PTR _this$[ebp]
	mov	DWORD PTR [ecx+edx*4+152], eax
$LN21@AddToLists:

; 644  : 					return;

	jmp	$LN28@AddToLists
$LN23@AddToLists:

; 645  : 				}
; 646  : 				curo = curo->next;

	mov	edx, DWORD PTR _curo$3[ebp]
	mov	eax, DWORD PTR [edx+16]
	mov	DWORD PTR _curo$3[ebp], eax

; 647  : 			}

	jmp	$LN25@AddToLists
$LN24@AddToLists:

; 648  : 		}
; 649  : 	}
; 650  : 
; 651  : 	// Immobile units just do what they do best..
; 652  : 	if (u->GetMovementType() == NoMove)

	mov	ecx, DWORD PTR _u$[ebp]
	mov	edx, DWORD PTR [ecx]
	mov	ecx, DWORD PTR _u$[ebp]
	mov	eax, DWORD PTR [edx+228]
	call	eax
	test	eax, eax
	jne	$LN20@AddToLists

; 653  : 	{
; 654  : 		GridIndex	x,y;
; 655  : 		Objective	o;
; 656  : 		float		d=-1.0F;

	movss	xmm0, DWORD PTR __real@bf800000
	movss	DWORD PTR _d$1[ebp], xmm0

; 657  : 		u->GetLocation(&x,&y);

	lea	ecx, DWORD PTR _y$7[ebp]
	push	ecx
	lea	edx, DWORD PTR _x$6[ebp]
	push	edx
	mov	ecx, DWORD PTR _u$[ebp]
	call	?GetLocation@FalconEntity@@QBEXPAF0@Z	; FalconEntity::GetLocation

; 658  : 		o = FindNearestObjective(x,y,&d);

	lea	eax, DWORD PTR _d$1[ebp]
	push	eax
	movzx	ecx, WORD PTR _y$7[ebp]
	push	ecx
	movzx	edx, WORD PTR _x$6[ebp]
	push	edx
	call	?FindNearestObjective@@YAPAVObjectiveClass@@FFPAM@Z ; FindNearestObjective
	add	esp, 12					; 0000000cH
	mov	DWORD PTR _o$4[ebp], eax

; 659  : 		if (!o || d > 2.0F || GetRoE(o->GetTeam(),owner,ROE_GROUND_FIRE) == ROE_ALLOWED)

	cmp	DWORD PTR _o$4[ebp], 0
	je	SHORT $LN18@AddToLists
	movss	xmm0, DWORD PTR _d$1[ebp]
	comiss	xmm0, DWORD PTR __real@40000000
	ja	SHORT $LN18@AddToLists
	push	1
	mov	eax, DWORD PTR _this$[ebp]
	movzx	ecx, BYTE PTR [eax+146]
	push	ecx
	mov	edx, DWORD PTR _o$4[ebp]
	mov	eax, DWORD PTR [edx]
	mov	ecx, DWORD PTR _o$4[ebp]
	mov	edx, DWORD PTR [eax+116]
	call	edx
	movzx	eax, al
	push	eax
	call	?GetRoE@@YAHEEH@Z			; GetRoE
	add	esp, 12					; 0000000cH
	cmp	eax, 1
	jne	SHORT $LN19@AddToLists
$LN18@AddToLists:

; 660  : 		{
; 661  : 			// Overrun!
; 662  : 			u->KillUnit();

	mov	ecx, DWORD PTR _u$[ebp]
	call	?KillUnit@UnitClass@@QAEXXZ		; UnitClass::KillUnit

; 663  : 			return;

	jmp	$LN28@AddToLists
$LN19@AddToLists:

; 664  : 		}
; 665  : 		i = GetGroundOrders(u->GetUnitNormalRole());

	mov	ecx, DWORD PTR _u$[ebp]
	mov	edx, DWORD PTR [ecx]
	mov	ecx, DWORD PTR _u$[ebp]
	mov	eax, DWORD PTR [edx+668]
	call	eax
	push	eax
	call	?GetGroundOrders@@YAHH@Z		; GetGroundOrders
	add	esp, 4
	mov	DWORD PTR _i$[ebp], eax

; 666  : #ifdef KEV_GDEBUG
; 667  : 		UnitCount[i]++;
; 668  : #endif
; 669  : 		AssignUnit(u,i,o,999);

	push	999					; 000003e7H
	mov	ecx, DWORD PTR _o$4[ebp]
	push	ecx
	mov	edx, DWORD PTR _i$[ebp]
	push	edx
	mov	eax, DWORD PTR _u$[ebp]
	push	eax
	mov	ecx, DWORD PTR _this$[ebp]
	call	?AssignUnit@GroundTaskingManagerClass@@QAEHPAVUnitClass@@HPAVObjectiveClass@@H@Z ; GroundTaskingManagerClass::AssignUnit

; 670  : 		if (objList[i])

	mov	ecx, DWORD PTR _i$[ebp]
	mov	edx, DWORD PTR _this$[ebp]
	cmp	DWORD PTR [edx+ecx*4+152], 0
	je	SHORT $LN17@AddToLists

; 671  : 			objList[i] = objList[i]->Remove(o);

	mov	eax, DWORD PTR _o$4[ebp]
	push	eax
	mov	ecx, DWORD PTR _i$[ebp]
	mov	edx, DWORD PTR _this$[ebp]
	mov	ecx, DWORD PTR [edx+ecx*4+152]
	call	?Remove@GndObjDataType@@QAEPAV1@PAVObjectiveClass@@@Z ; GndObjDataType::Remove
	mov	ecx, DWORD PTR _i$[ebp]
	mov	edx, DWORD PTR _this$[ebp]
	mov	DWORD PTR [edx+ecx*4+152], eax
$LN17@AddToLists:

; 672  : 		return;

	jmp	$LN28@AddToLists
$LN20@AddToLists:

; 673  : 	}
; 674  : 
; 675  : 	// Broken/unsupplied units get tasked as reserve only
; 676  : 	if (u->Broken() || u->GetUnitSupply() < 50)

	mov	ecx, DWORD PTR _u$[ebp]
	call	?Broken@UnitClass@@QBEHXZ		; UnitClass::Broken
	test	eax, eax
	jne	SHORT $LN15@AddToLists
	mov	eax, DWORD PTR _u$[ebp]
	mov	edx, DWORD PTR [eax]
	mov	ecx, DWORD PTR _u$[ebp]
	mov	eax, DWORD PTR [edx+776]
	call	eax
	cmp	eax, 50					; 00000032H
	jge	SHORT $LN16@AddToLists
$LN15@AddToLists:

; 677  : 	{
; 678  : 		AddToList(u, GORD_RESERVE);

	push	0
	mov	ecx, DWORD PTR _u$[ebp]
	push	ecx
	mov	ecx, DWORD PTR _this$[ebp]
	call	?AddToList@GroundTaskingManagerClass@@QAEXPAVUnitClass@@H@Z ; GroundTaskingManagerClass::AddToList

; 679  : 		return;

	jmp	$LN28@AddToLists
$LN16@AddToLists:

; 680  : 	}
; 681  : 
; 682  : 	u->SetUnitOrders(GORD_RESERVE);

	push	0
	mov	edx, DWORD PTR _u$[ebp]
	mov	eax, DWORD PTR [edx]
	mov	ecx, DWORD PTR _u$[ebp]
	mov	edx, DWORD PTR [eax+832]
	call	edx

; 683  : 	u->SetAssigned(0);

	push	0
	mov	ecx, DWORD PTR _u$[ebp]
	call	?SetAssigned@UnitClass@@QAEXH@Z		; UnitClass::SetAssigned

; 684  : 
; 685  : 	// Check for one role units
; 686  : 	role = u->GetUnitNormalRole();

	mov	eax, DWORD PTR _u$[ebp]
	mov	edx, DWORD PTR [eax]
	mov	ecx, DWORD PTR _u$[ebp]
	mov	eax, DWORD PTR [edx+668]
	call	eax
	mov	DWORD PTR _role$[ebp], eax

; 687  : 	if (role == GRO_FIRESUPPORT || role == GRO_AIRDEFENSE || role == GRO_ENGINEER) // KCK: Radar units here?

	cmp	DWORD PTR _role$[ebp], 6
	je	SHORT $LN13@AddToLists
	cmp	DWORD PTR _role$[ebp], 5
	je	SHORT $LN13@AddToLists
	cmp	DWORD PTR _role$[ebp], 7
	jne	SHORT $LN14@AddToLists
$LN13@AddToLists:

; 688  : 	{
; 689  : 		AddToList(u, GetGroundOrders(role));

	mov	ecx, DWORD PTR _role$[ebp]
	push	ecx
	call	?GetGroundOrders@@YAHH@Z		; GetGroundOrders
	add	esp, 4
	push	eax
	mov	edx, DWORD PTR _u$[ebp]
	push	edx
	mov	ecx, DWORD PTR _this$[ebp]
	call	?AddToList@GroundTaskingManagerClass@@QAEXPAVUnitClass@@H@Z ; GroundTaskingManagerClass::AddToList

; 690  : 		AddToList(u, GORD_RESERVE);

	push	0
	mov	eax, DWORD PTR _u$[ebp]
	push	eax
	mov	ecx, DWORD PTR _this$[ebp]
	call	?AddToList@GroundTaskingManagerClass@@QAEXPAVUnitClass@@H@Z ; GroundTaskingManagerClass::AddToList

; 691  : 		return;

	jmp	$LN28@AddToLists
$LN14@AddToLists:

; 692  : 	}
; 693  : 
; 694  : 	// Add it to a list for each type of orders it's capible of performing
; 695  : 	for (i=0; i<GORD_LAST; i++)

	mov	DWORD PTR _i$[ebp], 0
	jmp	SHORT $LN12@AddToLists
$LN11@AddToLists:
	mov	ecx, DWORD PTR _i$[ebp]
	add	ecx, 1
	mov	DWORD PTR _i$[ebp], ecx
$LN12@AddToLists:
	cmp	DWORD PTR _i$[ebp], 12			; 0000000cH
	jge	$LN10@AddToLists

; 696  : 	{
; 697  : 		if (!(to_collect & (0x01 << i)))

	mov	edx, 1
	mov	ecx, DWORD PTR _i$[ebp]
	shl	edx, cl
	and	edx, DWORD PTR _to_collect$[ebp]
	jne	SHORT $LN9@AddToLists

; 698  : 			continue;

	jmp	SHORT $LN11@AddToLists
$LN9@AddToLists:

; 699  : 		if (i == GORD_ASSAULT && u->GetUnitNormalRole() != GRO_ASSAULT)

	cmp	DWORD PTR _i$[ebp], 3
	jne	SHORT $LN8@AddToLists
	mov	eax, DWORD PTR _u$[ebp]
	mov	edx, DWORD PTR [eax]
	mov	ecx, DWORD PTR _u$[ebp]
	mov	eax, DWORD PTR [edx+668]
	call	eax
	cmp	eax, 2
	je	SHORT $LN8@AddToLists

; 700  : 			continue;

	jmp	SHORT $LN11@AddToLists
$LN8@AddToLists:

; 701  : 		if (i == GORD_COMMANDO && !u->Commando())

	cmp	DWORD PTR _i$[ebp], 5
	jne	SHORT $LN7@AddToLists
	mov	ecx, DWORD PTR _u$[ebp]
	call	?Commando@UnitClass@@QBEHXZ		; UnitClass::Commando
	test	eax, eax
	jne	SHORT $LN7@AddToLists

; 702  : 			continue;

	jmp	SHORT $LN11@AddToLists
$LN7@AddToLists:

; 703  : 		if (i == GORD_AIRBORNE && u->GetUnitNormalRole() != GRO_AIRBORNE)

	cmp	DWORD PTR _i$[ebp], 4
	jne	SHORT $LN6@AddToLists
	mov	ecx, DWORD PTR _u$[ebp]
	mov	edx, DWORD PTR [ecx]
	mov	ecx, DWORD PTR _u$[ebp]
	mov	eax, DWORD PTR [edx+668]
	call	eax
	cmp	eax, 3
	je	SHORT $LN6@AddToLists

; 704  : 			continue;

	jmp	SHORT $LN11@AddToLists
$LN6@AddToLists:

; 705  : 		if (i == GORD_SUPPORT || i == GORD_REPAIR || i == GORD_AIRDEFENSE)

	cmp	DWORD PTR _i$[ebp], 7
	je	SHORT $LN4@AddToLists
	cmp	DWORD PTR _i$[ebp], 8
	je	SHORT $LN4@AddToLists
	cmp	DWORD PTR _i$[ebp], 9
	jne	SHORT $LN5@AddToLists
$LN4@AddToLists:

; 706  : 			continue;

	jmp	$LN11@AddToLists
$LN5@AddToLists:

; 707  : 		if (i == GORD_RADAR && u->GetUnitNormalRole() != GRO_RECON)

	cmp	DWORD PTR _i$[ebp], 11			; 0000000bH
	jne	SHORT $LN3@AddToLists
	mov	ecx, DWORD PTR _u$[ebp]
	mov	edx, DWORD PTR [ecx]
	mov	ecx, DWORD PTR _u$[ebp]
	mov	eax, DWORD PTR [edx+668]
	call	eax
	cmp	eax, 8
	je	SHORT $LN3@AddToLists

; 708  : 			continue;

	jmp	$LN11@AddToLists
$LN3@AddToLists:

; 709  : 		if (!i || u->GetUnitRoleScore(GetGroundRole(i), CALC_MAX, 0) > MIN_ALLOWABLE_ROLE_SCORE)

	cmp	DWORD PTR _i$[ebp], 0
	je	SHORT $LN1@AddToLists
	push	0
	push	3
	mov	ecx, DWORD PTR _i$[ebp]
	push	ecx
	call	?GetGroundRole@@YAHH@Z			; GetGroundRole
	add	esp, 4
	push	eax
	mov	ecx, DWORD PTR _u$[ebp]
	call	?GetUnitRoleScore@UnitClass@@QAEHHHH@Z	; UnitClass::GetUnitRoleScore
	cmp	eax, 10					; 0000000aH
	jle	SHORT $LN2@AddToLists
$LN1@AddToLists:

; 710  : 		{
; 711  : 			// Add to canidate list
; 712  : 			AddToList(u, i);

	mov	edx, DWORD PTR _i$[ebp]
	push	edx
	mov	eax, DWORD PTR _u$[ebp]
	push	eax
	mov	ecx, DWORD PTR _this$[ebp]
	call	?AddToList@GroundTaskingManagerClass@@QAEXPAVUnitClass@@H@Z ; GroundTaskingManagerClass::AddToList
$LN2@AddToLists:

; 713  : 		}
; 714  : 	}

	jmp	$LN11@AddToLists
$LN10@AddToLists:
$LN28@AddToLists:

; 715  : }

	mov	esp, ebp
	pop	ebp
	ret	8
?AddToLists@GroundTaskingManagerClass@@QAEXPAVUnitClass@@H@Z ENDP ; GroundTaskingManagerClass::AddToLists
_TEXT	ENDS
; Function compile flags: /Odtp
; File c:\users\zhitao li\documents\visual studio 2012\projects\freefalcon\campaign\camptask\gtm.cpp
_TEXT	SEGMENT
$T2 = -32						; size = 4
tv73 = -28						; size = 4
$T3 = -24						; size = 4
_this$ = -20						; size = 4
_curu$ = -16						; size = 4
__$EHRec$ = -12						; size = 12
_u$ = 8							; size = 4
_orders$ = 12						; size = 4
?AddToList@GroundTaskingManagerClass@@QAEXPAVUnitClass@@H@Z PROC ; GroundTaskingManagerClass::AddToList
; _this$ = ecx

; 603  : {

	push	ebp
	mov	ebp, esp
	push	-1
	push	__ehhandler$?AddToList@GroundTaskingManagerClass@@QAEXPAVUnitClass@@H@Z
	mov	eax, DWORD PTR fs:0
	push	eax
	sub	esp, 20					; 00000014H
	mov	eax, DWORD PTR ___security_cookie
	xor	eax, ebp
	push	eax
	lea	eax, DWORD PTR __$EHRec$[ebp]
	mov	DWORD PTR fs:0, eax
	mov	DWORD PTR _this$[ebp], ecx

; 604  : 	USNode	curu;
; 605  : 
; 606  : 	if (orders == GORD_CAPTURE)

	cmp	DWORD PTR _orders$[ebp], 1
	jne	SHORT $LN2@AddToList

; 607  : 		sOffensiveAssigned++;

	mov	eax, DWORD PTR ?sOffensiveAssigned@@3HA	; sOffensiveAssigned
	add	eax, 1
	mov	DWORD PTR ?sOffensiveAssigned@@3HA, eax	; sOffensiveAssigned
$LN2@AddToList:

; 608  : #ifdef KEV_GDEBUG
; 609  : 	UnitCount[orders]++;
; 610  : #endif
; 611  : 	curu = new UnitScoreNode;

	push	16					; 00000010H
	call	??2@YAPAXI@Z				; operator new
	add	esp, 4
	mov	DWORD PTR $T3[ebp], eax
	mov	DWORD PTR __$EHRec$[ebp+8], 0
	cmp	DWORD PTR $T3[ebp], 0
	je	SHORT $LN5@AddToList
	mov	ecx, DWORD PTR $T3[ebp]
	call	??0UnitScoreNode@@QAE@XZ		; UnitScoreNode::UnitScoreNode
	mov	DWORD PTR tv73[ebp], eax
	jmp	SHORT $LN6@AddToList
$LN5@AddToList:
	mov	DWORD PTR tv73[ebp], 0
$LN6@AddToList:
	mov	ecx, DWORD PTR tv73[ebp]
	mov	DWORD PTR $T2[ebp], ecx
	mov	DWORD PTR __$EHRec$[ebp+8], -1
	mov	edx, DWORD PTR $T2[ebp]
	mov	DWORD PTR _curu$[ebp], edx

; 612  : 	curu->unit = u;

	mov	eax, DWORD PTR _curu$[ebp]
	mov	ecx, DWORD PTR _u$[ebp]
	mov	DWORD PTR [eax], ecx

; 613  : 	curu->score = u->GetUnitRoleScore(GetGroundRole(orders), CALC_MAX, USE_VEH_COUNT | IGNORE_BROKEN);

	push	6
	push	3
	mov	edx, DWORD PTR _orders$[ebp]
	push	edx
	call	?GetGroundRole@@YAHH@Z			; GetGroundRole
	add	esp, 4
	push	eax
	mov	ecx, DWORD PTR _u$[ebp]
	call	?GetUnitRoleScore@UnitClass@@QAEHHHH@Z	; UnitClass::GetUnitRoleScore
	mov	ecx, DWORD PTR _curu$[ebp]
	mov	DWORD PTR [ecx+4], eax

; 614  : 	if (!canidateList[orders])

	mov	edx, DWORD PTR _orders$[ebp]
	mov	eax, DWORD PTR _this$[ebp]
	cmp	DWORD PTR [eax+edx*4+200], 0
	jne	SHORT $LN1@AddToList

; 615  : 		canidateList[orders] = curu;

	mov	ecx, DWORD PTR _orders$[ebp]
	mov	edx, DWORD PTR _this$[ebp]
	mov	eax, DWORD PTR _curu$[ebp]
	mov	DWORD PTR [edx+ecx*4+200], eax
$LN1@AddToList:

; 616  : 	canidateList[orders] = canidateList[orders]->Insert(curu, USN_SORT_BY_SCORE);

	push	1
	mov	ecx, DWORD PTR _curu$[ebp]
	push	ecx
	mov	edx, DWORD PTR _orders$[ebp]
	mov	eax, DWORD PTR _this$[ebp]
	mov	ecx, DWORD PTR [eax+edx*4+200]
	call	?Insert@UnitScoreNode@@QAEPAV1@PAV1@H@Z	; UnitScoreNode::Insert
	mov	ecx, DWORD PTR _orders$[ebp]
	mov	edx, DWORD PTR _this$[ebp]
	mov	DWORD PTR [edx+ecx*4+200], eax

; 617  : }

	mov	ecx, DWORD PTR __$EHRec$[ebp]
	mov	DWORD PTR fs:0, ecx
	pop	ecx
	mov	esp, ebp
	pop	ebp
	ret	8
_TEXT	ENDS
text$x	SEGMENT
__unwindfunclet$?AddToList@GroundTaskingManagerClass@@QAEXPAVUnitClass@@H@Z$0:
	mov	eax, DWORD PTR $T3[ebp]
	push	eax
	call	??3@YAXPAX@Z				; operator delete
	pop	ecx
	ret	0
__ehhandler$?AddToList@GroundTaskingManagerClass@@QAEXPAVUnitClass@@H@Z:
	mov	edx, DWORD PTR [esp+8]
	lea	eax, DWORD PTR [edx+12]
	mov	ecx, DWORD PTR [edx-24]
	xor	ecx, eax
	call	@__security_check_cookie@4
	mov	eax, OFFSET __ehfuncinfo$?AddToList@GroundTaskingManagerClass@@QAEXPAVUnitClass@@H@Z
	jmp	___CxxFrameHandler3
text$x	ENDS
?AddToList@GroundTaskingManagerClass@@QAEXPAVUnitClass@@H@Z ENDP ; GroundTaskingManagerClass::AddToList
; Function compile flags: /Odtp
; File c:\users\zhitao li\documents\visual studio 2012\projects\freefalcon\campaign\camptask\gtm.cpp
_TEXT	SEGMENT
_myit$ = -48						; size = 12
$T2 = -36						; size = 4
_objListBuilt$ = -32					; size = 4
_pu$ = -28						; size = 4
_count$ = -24						; size = 4
_this$ = -20						; size = 4
_u$ = -16						; size = 4
__$EHRec$ = -12						; size = 12
_to_collect$ = 8					; size = 4
?CollectGroundAssets@GroundTaskingManagerClass@@QAEHH@Z PROC ; GroundTaskingManagerClass::CollectGroundAssets
; _this$ = ecx

; 719  : {

	push	ebp
	mov	ebp, esp
	push	-1
	push	__ehhandler$?CollectGroundAssets@GroundTaskingManagerClass@@QAEHH@Z
	mov	eax, DWORD PTR fs:0
	push	eax
	sub	esp, 36					; 00000024H
	mov	eax, DWORD PTR ___security_cookie
	xor	eax, ebp
	push	eax
	lea	eax, DWORD PTR __$EHRec$[ebp]
	mov	DWORD PTR fs:0, eax
	mov	DWORD PTR _this$[ebp], ecx

; 720  : 	Unit			u,pu;
; 721  : 	int				count=0,objListBuilt=0;

	mov	DWORD PTR _count$[ebp], 0
	mov	DWORD PTR _objListBuilt$[ebp], 0

; 722  : 
; 723  : 	// Create the unit lists
; 724  : 	VuListIterator	myit(AllParentList);

	mov	eax, DWORD PTR ?AllParentList@@3PAVVuLinkedList@@A ; AllParentList
	push	eax
	lea	ecx, DWORD PTR _myit$[ebp]
	call	??0VuListIterator@@QAE@PAVVuLinkedList@@@Z ; VuListIterator::VuListIterator
	mov	DWORD PTR __$EHRec$[ebp+8], 0

; 725  : 	u = GetFirstUnit(&myit);

	lea	ecx, DWORD PTR _myit$[ebp]
	push	ecx
	call	?GetFirstUnit@@YAPAVUnitClass@@PAVVuListIterator@@@Z ; GetFirstUnit
	add	esp, 4
	mov	DWORD PTR _u$[ebp], eax
$LN8@CollectGro:

; 726  : 	while (u)

	cmp	DWORD PTR _u$[ebp], 0
	je	$LN7@CollectGro

; 727  : 	{
; 728  : 		if (u->GetTeam() == owner && u->GetDomain() == DOMAIN_LAND && !u->Scripted())

	mov	edx, DWORD PTR _u$[ebp]
	mov	eax, DWORD PTR [edx]
	mov	ecx, DWORD PTR _u$[ebp]
	mov	edx, DWORD PTR [eax+116]
	call	edx
	movzx	eax, al
	mov	ecx, DWORD PTR _this$[ebp]
	movzx	edx, BYTE PTR [ecx+146]
	cmp	eax, edx
	jne	$LN6@CollectGro
	mov	ecx, DWORD PTR _u$[ebp]
	call	?GetDomain@CampBaseClass@@QBEEXZ	; CampBaseClass::GetDomain
	movzx	eax, al
	cmp	eax, 3
	jne	$LN6@CollectGro
	mov	ecx, DWORD PTR _u$[ebp]
	call	?Scripted@UnitClass@@QBEHXZ		; UnitClass::Scripted
	test	eax, eax
	jne	$LN6@CollectGro

; 729  : 		{
; 730  : 			// We've got at least one unit to assign - build our objective lists
; 731  : 			if (!objListBuilt)

	cmp	DWORD PTR _objListBuilt$[ebp], 0
	jne	SHORT $LN5@CollectGro

; 732  : 			{
; 733  : 				Setup();

	mov	ecx, DWORD PTR _this$[ebp]
	call	?Setup@GroundTaskingManagerClass@@QAEXXZ ; GroundTaskingManagerClass::Setup

; 734  : 				BuildObjectiveLists(to_collect);

	mov	ecx, DWORD PTR _to_collect$[ebp]
	push	ecx
	mov	ecx, DWORD PTR _this$[ebp]
	call	?BuildObjectiveLists@GroundTaskingManagerClass@@QAEHH@Z ; GroundTaskingManagerClass::BuildObjectiveLists

; 735  : 				objListBuilt = 1;

	mov	DWORD PTR _objListBuilt$[ebp], 1
$LN5@CollectGro:

; 736  : 			}
; 737  : 			u->RallyUnit(MIN_TASK_GROUND);

	movsx	edx, WORD PTR ?MIN_TASK_GROUND@@3FA	; MIN_TASK_GROUND
	push	edx
	mov	eax, DWORD PTR _u$[ebp]
	mov	edx, DWORD PTR [eax]
	mov	ecx, DWORD PTR _u$[ebp]
	mov	eax, DWORD PTR [edx+940]
	call	eax

; 738  : 			u->UpdateParentStatistics();

	mov	ecx, DWORD PTR _u$[ebp]
	mov	edx, DWORD PTR [ecx]
	mov	ecx, DWORD PTR _u$[ebp]
	mov	eax, DWORD PTR [edx+988]
	call	eax

; 739  : 			// We want to order support battalions individually.
; 740  : 			if (!u->Real() && FindUnitSupportRole(u))

	mov	ecx, DWORD PTR _u$[ebp]
	mov	edx, DWORD PTR [ecx]
	mov	ecx, DWORD PTR _u$[ebp]
	mov	eax, DWORD PTR [edx+508]
	call	eax
	test	eax, eax
	jne	SHORT $LN4@CollectGro
	mov	ecx, DWORD PTR _u$[ebp]
	push	ecx
	call	?FindUnitSupportRole@@YAHPAVUnitClass@@@Z ; FindUnitSupportRole
	add	esp, 4
	test	eax, eax
	je	SHORT $LN4@CollectGro

; 741  : 			{
; 742  : 				pu = u;

	mov	edx, DWORD PTR _u$[ebp]
	mov	DWORD PTR _pu$[ebp], edx

; 743  : 				u = pu->GetFirstUnitElement();

	mov	eax, DWORD PTR _pu$[ebp]
	mov	edx, DWORD PTR [eax]
	mov	ecx, DWORD PTR _pu$[ebp]
	mov	eax, DWORD PTR [edx+956]
	call	eax
	mov	DWORD PTR _u$[ebp], eax
$LN3@CollectGro:

; 744  : 				while (u)

	cmp	DWORD PTR _u$[ebp], 0
	je	SHORT $LN2@CollectGro

; 745  : 				{
; 746  : 					AddToLists(u, to_collect);

	mov	ecx, DWORD PTR _to_collect$[ebp]
	push	ecx
	mov	edx, DWORD PTR _u$[ebp]
	push	edx
	mov	ecx, DWORD PTR _this$[ebp]
	call	?AddToLists@GroundTaskingManagerClass@@QAEXPAVUnitClass@@H@Z ; GroundTaskingManagerClass::AddToLists

; 747  : 					count++;

	mov	eax, DWORD PTR _count$[ebp]
	add	eax, 1
	mov	DWORD PTR _count$[ebp], eax

; 748  : 					u = pu->GetNextUnitElement();

	mov	ecx, DWORD PTR _pu$[ebp]
	mov	edx, DWORD PTR [ecx]
	mov	ecx, DWORD PTR _pu$[ebp]
	mov	eax, DWORD PTR [edx+960]
	call	eax
	mov	DWORD PTR _u$[ebp], eax

; 749  : 				}

	jmp	SHORT $LN3@CollectGro
$LN2@CollectGro:

; 750  : 			}
; 751  : 			else

	jmp	SHORT $LN6@CollectGro
$LN4@CollectGro:

; 752  : 			{
; 753  : 				AddToLists(u, to_collect);

	mov	ecx, DWORD PTR _to_collect$[ebp]
	push	ecx
	mov	edx, DWORD PTR _u$[ebp]
	push	edx
	mov	ecx, DWORD PTR _this$[ebp]
	call	?AddToLists@GroundTaskingManagerClass@@QAEXPAVUnitClass@@H@Z ; GroundTaskingManagerClass::AddToLists

; 754  : 				count++;

	mov	eax, DWORD PTR _count$[ebp]
	add	eax, 1
	mov	DWORD PTR _count$[ebp], eax
$LN6@CollectGro:

; 755  : 			}
; 756  : 		}
; 757  : 		u = GetNextUnit(&myit);

	lea	ecx, DWORD PTR _myit$[ebp]
	push	ecx
	call	?GetNextUnit@@YAPAVUnitClass@@PAVVuListIterator@@@Z ; GetNextUnit
	add	esp, 4
	mov	DWORD PTR _u$[ebp], eax

; 758  : 	}

	jmp	$LN8@CollectGro
$LN7@CollectGro:

; 759  : 	return count;

	mov	edx, DWORD PTR _count$[ebp]
	mov	DWORD PTR $T2[ebp], edx
	mov	DWORD PTR __$EHRec$[ebp+8], -1
	lea	ecx, DWORD PTR _myit$[ebp]
	call	??1VuListIterator@@UAE@XZ		; VuListIterator::~VuListIterator
	mov	eax, DWORD PTR $T2[ebp]

; 760  : }

	mov	ecx, DWORD PTR __$EHRec$[ebp]
	mov	DWORD PTR fs:0, ecx
	pop	ecx
	mov	esp, ebp
	pop	ebp
	ret	4
_TEXT	ENDS
text$x	SEGMENT
__unwindfunclet$?CollectGroundAssets@GroundTaskingManagerClass@@QAEHH@Z$0:
	lea	ecx, DWORD PTR _myit$[ebp]
	jmp	??1VuListIterator@@UAE@XZ		; VuListIterator::~VuListIterator
__ehhandler$?CollectGroundAssets@GroundTaskingManagerClass@@QAEHH@Z:
	mov	edx, DWORD PTR [esp+8]
	lea	eax, DWORD PTR [edx+12]
	mov	ecx, DWORD PTR [edx-40]
	xor	ecx, eax
	call	@__security_check_cookie@4
	mov	eax, OFFSET __ehfuncinfo$?CollectGroundAssets@GroundTaskingManagerClass@@QAEHH@Z
	jmp	___CxxFrameHandler3
text$x	ENDS
?CollectGroundAssets@GroundTaskingManagerClass@@QAEHH@Z ENDP ; GroundTaskingManagerClass::CollectGroundAssets
; Function compile flags: /Odtp
; File c:\users\zhitao li\documents\visual studio 2012\projects\freefalcon\campaign\camptask\gtm.cpp
_TEXT	SEGMENT
_objit$ = -120						; size = 12
$T2 = -108						; size = 8
$T3 = -100						; size = 4
$T4 = -96						; size = 4
$T5 = -92						; size = 4
_pd$6 = -88						; size = 4
tv244 = -84						; size = 4
$T7 = -80						; size = 4
tv171 = -76						; size = 4
$T8 = -72						; size = 4
_pps$ = -68						; size = 4
_fs$ = -64						; size = 4
_ps$ = -60						; size = 4
_add_now$ = -56						; size = 4
_os$ = -52						; size = 4
_ss$ = -48						; size = 4
_so$ = -44						; size = 4
_new_node$9 = -40					; size = 4
_po$ = -36						; size = 4
_this$ = -32						; size = 4
_o$ = -28						; size = 4
_i$10 = -24						; size = 4
_ox$11 = -20						; size = 2
_oy$12 = -16						; size = 2
__$EHRec$ = -12						; size = 12
_to_collect$ = 8					; size = 4
?BuildObjectiveLists@GroundTaskingManagerClass@@QAEHH@Z PROC ; GroundTaskingManagerClass::BuildObjectiveLists
; _this$ = ecx

; 529  : {

	push	ebp
	mov	ebp, esp
	push	-1
	push	__ehhandler$?BuildObjectiveLists@GroundTaskingManagerClass@@QAEHH@Z
	mov	eax, DWORD PTR fs:0
	push	eax
	sub	esp, 108				; 0000006cH
	mov	eax, DWORD PTR ___security_cookie
	xor	eax, ebp
	push	eax
	lea	eax, DWORD PTR __$EHRec$[ebp]
	mov	DWORD PTR fs:0, eax
	mov	DWORD PTR _this$[ebp], ecx

; 530  : 	Objective		o=NULL,so=NULL,po=NULL;

	mov	DWORD PTR _o$[ebp], 0
	mov	DWORD PTR _so$[ebp], 0
	mov	DWORD PTR _po$[ebp], 0

; 531  : 	int				add_now=0,os=0,ss=0,ps=0,pps=0,fs=0;

	mov	DWORD PTR _add_now$[ebp], 0
	mov	DWORD PTR _os$[ebp], 0
	mov	DWORD PTR _ss$[ebp], 0
	mov	DWORD PTR _ps$[ebp], 0
	mov	DWORD PTR _pps$[ebp], 0
	mov	DWORD PTR _fs$[ebp], 0

; 532  : 
; 533  : 	// Create the objective lists
; 534  : 	VuListIterator	objit(AllObjList);

	mov	eax, DWORD PTR ?AllObjList@@3PAVVuLinkedList@@A ; AllObjList
	push	eax
	lea	ecx, DWORD PTR _objit$[ebp]
	call	??0VuListIterator@@QAE@PAVVuLinkedList@@@Z ; VuListIterator::VuListIterator
	mov	DWORD PTR __$EHRec$[ebp+8], 0

; 535  : 	o = GetFirstObjective(&objit);

	lea	ecx, DWORD PTR _objit$[ebp]
	push	ecx
	call	?GetFirstObjective@@YAPAVObjectiveClass@@PAVVuListIterator@@@Z ; GetFirstObjective
	add	esp, 4
	mov	DWORD PTR _o$[ebp], eax
$LN17@BuildObjec:

; 536  : 	while (o)

	cmp	DWORD PTR _o$[ebp], 0
	je	$LN16@BuildObjec

; 537  : 	{
; 538  : 		add_now = GetAddBits(o, to_collect);

	mov	edx, DWORD PTR _to_collect$[ebp]
	push	edx
	mov	eax, DWORD PTR _o$[ebp]
	push	eax
	mov	ecx, DWORD PTR _this$[ebp]
	call	?GetAddBits@GroundTaskingManagerClass@@QAEHPAVObjectiveClass@@H@Z ; GroundTaskingManagerClass::GetAddBits
	mov	DWORD PTR _add_now$[ebp], eax

; 539  : 
; 540  : 		if (add_now)

	cmp	DWORD PTR _add_now$[ebp], 0
	je	$LN5@BuildObjec

; 541  : 		{
; 542  : 			so = po = o;

	mov	ecx, DWORD PTR _o$[ebp]
	mov	DWORD PTR _po$[ebp], ecx
	mov	edx, DWORD PTR _po$[ebp]
	mov	DWORD PTR _so$[ebp], edx

; 543  : 			if (!so->IsSecondary())

	mov	ecx, DWORD PTR _so$[ebp]
	call	?IsSecondary@ObjectiveClass@@QAEHXZ	; ObjectiveClass::IsSecondary
	test	eax, eax
	jne	SHORT $LN14@BuildObjec

; 544  : 				so = o->GetObjectiveParent();

	mov	ecx, DWORD PTR _o$[ebp]
	call	?GetObjectiveParent@ObjectiveClass@@QAEPAV1@XZ ; ObjectiveClass::GetObjectiveParent
	mov	DWORD PTR _so$[ebp], eax
$LN14@BuildObjec:

; 545  : 			if (!so)

	cmp	DWORD PTR _so$[ebp], 0
	jne	SHORT $LN13@BuildObjec

; 546  : 			{
; 547  : 				po = NULL;

	mov	DWORD PTR _po$[ebp], 0

; 548  : 				ps = os = ss = 0;

	mov	DWORD PTR _ss$[ebp], 0
	mov	eax, DWORD PTR _ss$[ebp]
	mov	DWORD PTR _os$[ebp], eax
	mov	ecx, DWORD PTR _os$[ebp]
	mov	DWORD PTR _ps$[ebp], ecx
	jmp	SHORT $LN11@BuildObjec
$LN13@BuildObjec:

; 549  : 			}
; 550  : 			else if (!po->IsPrimary())

	mov	ecx, DWORD PTR _po$[ebp]
	call	?IsPrimary@ObjectiveClass@@QAEHXZ	; ObjectiveClass::IsPrimary
	test	eax, eax
	jne	SHORT $LN11@BuildObjec

; 551  : 				po = so->GetObjectiveParent();

	mov	ecx, DWORD PTR _so$[ebp]
	call	?GetObjectiveParent@ObjectiveClass@@QAEPAV1@XZ ; ObjectiveClass::GetObjectiveParent
	mov	DWORD PTR _po$[ebp], eax
$LN11@BuildObjec:

; 552  : 			os = o->GetObjectivePriority();

	mov	ecx, DWORD PTR _o$[ebp]
	call	?GetObjectivePriority@ObjectiveClass@@QAEFXZ ; ObjectiveClass::GetObjectivePriority
	movsx	edx, ax
	mov	DWORD PTR _os$[ebp], edx

; 553  : 			if (so)

	cmp	DWORD PTR _so$[ebp], 0
	je	SHORT $LN10@BuildObjec

; 554  : 				ss = so->GetObjectivePriority();

	mov	ecx, DWORD PTR _so$[ebp]
	call	?GetObjectivePriority@ObjectiveClass@@QAEFXZ ; ObjectiveClass::GetObjectivePriority
	cwde
	mov	DWORD PTR _ss$[ebp], eax
$LN10@BuildObjec:

; 555  : 			if (po)

	cmp	DWORD PTR _po$[ebp], 0
	je	SHORT $LN9@BuildObjec

; 556  : 			{
; 557  : 				POData pd = GetPOData(po);

	mov	ecx, DWORD PTR _po$[ebp]
	push	ecx
	call	?GetPOData@@YAPAUPrimaryObjectiveData@@PAVObjectiveClass@@@Z ; GetPOData
	add	esp, 4
	mov	DWORD PTR _pd$6[ebp], eax

; 558  : 				pps = pd->ground_priority[owner];

	mov	edx, DWORD PTR _this$[ebp]
	movzx	eax, BYTE PTR [edx+146]
	mov	ecx, DWORD PTR _pd$6[ebp]
	movsx	edx, WORD PTR [ecx+eax*2+8]
	mov	DWORD PTR _pps$[ebp], edx

; 559  : 				ps = po->GetObjectivePriority();

	mov	ecx, DWORD PTR _po$[ebp]
	call	?GetObjectivePriority@ObjectiveClass@@QAEFXZ ; ObjectiveClass::GetObjectivePriority
	cwde
	mov	DWORD PTR _ps$[ebp], eax
$LN9@BuildObjec:

; 560  : 			}
; 561  : 			if (add_now & (COLLECT_RESERVE | COLLECT_CAPTURE | COLLECT_SECURE | COLLECT_ASSAULT | COLLECT_AIRBORNE | COLLECT_DEFEND | GORD_SUPPORT))

	mov	ecx, DWORD PTR _add_now$[ebp]
	and	ecx, 95					; 0000005fH
	je	SHORT $LN8@BuildObjec

; 562  : 			{
; 563  : 				GridIndex		ox,oy;
; 564  : 				o->GetLocation(&ox,&oy);

	lea	edx, DWORD PTR _oy$12[ebp]
	push	edx
	lea	eax, DWORD PTR _ox$11[ebp]
	push	eax
	mov	ecx, DWORD PTR _o$[ebp]
	call	?GetLocation@FalconEntity@@QBEXPAF0@Z	; FalconEntity::GetLocation

; 565  : 				fs = FloatToInt32(DistanceToFront(ox,oy));

	movzx	ecx, WORD PTR _oy$12[ebp]
	push	ecx
	movzx	edx, WORD PTR _ox$11[ebp]
	push	edx
	call	?DistanceToFront@@YAMFF@Z		; DistanceToFront
	add	esp, 4
	fstp	DWORD PTR [esp]
	call	?FloatToInt32@@YAHM@Z			; FloatToInt32
	add	esp, 4
	mov	DWORD PTR _fs$[ebp], eax
$LN8@BuildObjec:

; 566  : 			}
; 567  : 
; 568  : 			// Now insert it in the proper lists
; 569  : 			for (int i=0; i<GORD_LAST; i++)

	mov	DWORD PTR _i$10[ebp], 0
	jmp	SHORT $LN7@BuildObjec
$LN6@BuildObjec:
	mov	eax, DWORD PTR _i$10[ebp]
	add	eax, 1
	mov	DWORD PTR _i$10[ebp], eax
$LN7@BuildObjec:
	cmp	DWORD PTR _i$10[ebp], 12		; 0000000cH
	jge	$LN5@BuildObjec

; 570  : 			{
; 571  : 				if (!(add_now & (0x01 << i)))

	mov	edx, 1
	mov	ecx, DWORD PTR _i$10[ebp]
	shl	edx, cl
	and	edx, DWORD PTR _add_now$[ebp]
	jne	SHORT $LN4@BuildObjec

; 572  : 					continue;

	jmp	SHORT $LN6@BuildObjec
$LN4@BuildObjec:

; 573  : 				if (i == GORD_CAPTURE)

	cmp	DWORD PTR _i$10[ebp], 1
	jne	SHORT $LN3@BuildObjec

; 574  : 					sOffensiveDesired++;

	mov	eax, DWORD PTR ?sOffensiveDesired@@3HA	; sOffensiveDesired
	add	eax, 1
	mov	DWORD PTR ?sOffensiveDesired@@3HA, eax	; sOffensiveDesired
$LN3@BuildObjec:

; 575  : #ifdef KEV_GDEBUG
; 576  : 				ObjCount[i]++;
; 577  : #endif
; 578  : 				GODNode new_node = new GndObjDataType();

	push	20					; 00000014H
	call	??2@YAPAXI@Z				; operator new
	add	esp, 4
	mov	DWORD PTR $T8[ebp], eax
	mov	BYTE PTR __$EHRec$[ebp+8], 1
	cmp	DWORD PTR $T8[ebp], 0
	je	SHORT $LN20@BuildObjec
	mov	ecx, DWORD PTR $T8[ebp]
	call	??0GndObjDataType@@QAE@XZ		; GndObjDataType::GndObjDataType
	mov	DWORD PTR tv171[ebp], eax
	jmp	SHORT $LN21@BuildObjec
$LN20@BuildObjec:
	mov	DWORD PTR tv171[ebp], 0
$LN21@BuildObjec:
	mov	ecx, DWORD PTR tv171[ebp]
	mov	DWORD PTR $T5[ebp], ecx
	mov	BYTE PTR __$EHRec$[ebp+8], 0
	mov	edx, DWORD PTR $T5[ebp]
	mov	DWORD PTR _new_node$9[ebp], edx

; 579  : 				new_node->obj = o;

	mov	eax, DWORD PTR _new_node$9[ebp]
	mov	ecx, DWORD PTR _o$[ebp]
	mov	DWORD PTR [eax], ecx

; 580  : 				new_node->priority_score = ScoreObj(i,os,ss,ps,pps,fs);

	mov	edx, DWORD PTR _fs$[ebp]
	push	edx
	mov	eax, DWORD PTR _pps$[ebp]
	push	eax
	mov	ecx, DWORD PTR _ps$[ebp]
	push	ecx
	mov	edx, DWORD PTR _ss$[ebp]
	push	edx
	mov	eax, DWORD PTR _os$[ebp]
	push	eax
	mov	ecx, DWORD PTR _i$10[ebp]
	push	ecx
	call	?ScoreObj@@YAHHHHHHH@Z			; ScoreObj
	add	esp, 24					; 00000018H
	mov	edx, DWORD PTR _new_node$9[ebp]
	mov	DWORD PTR [edx+4], eax

; 581  : 				if (!objList[i])

	mov	eax, DWORD PTR _i$10[ebp]
	mov	ecx, DWORD PTR _this$[ebp]
	cmp	DWORD PTR [ecx+eax*4+152], 0
	jne	SHORT $LN2@BuildObjec

; 582  : 					objList[i] = new_node;

	mov	edx, DWORD PTR _i$10[ebp]
	mov	eax, DWORD PTR _this$[ebp]
	mov	ecx, DWORD PTR _new_node$9[ebp]
	mov	DWORD PTR [eax+edx*4+152], ecx
$LN2@BuildObjec:

; 583  : 				objList[i] = objList[i]->Insert(new_node,GODN_SORT_BY_PRIORITY);

	push	1
	mov	edx, DWORD PTR _new_node$9[ebp]
	push	edx
	mov	eax, DWORD PTR _i$10[ebp]
	mov	ecx, DWORD PTR _this$[ebp]
	mov	ecx, DWORD PTR [ecx+eax*4+152]
	call	?Insert@GndObjDataType@@QAEPAV1@PAV1@H@Z ; GndObjDataType::Insert
	mov	edx, DWORD PTR _i$10[ebp]
	mov	ecx, DWORD PTR _this$[ebp]
	mov	DWORD PTR [ecx+edx*4+152], eax

; 584  : 				// KCK EXPERIMENTAL: Try adding certain objectives twice!
; 585  : 				if (i == GORD_CAPTURE && TeamInfo[owner]->GetGroundActionType() == GACTION_OFFENSIVE && TeamInfo[owner]->GetGroundAction()->actionObjective == o->GetObjectivePrimary()->Id())

	cmp	DWORD PTR _i$10[ebp], 1
	jne	$LN1@BuildObjec
	mov	edx, DWORD PTR _this$[ebp]
	movzx	eax, BYTE PTR [edx+146]
	mov	ecx, DWORD PTR ?TeamInfo@@3PAPAVTeamClass@@A[eax*4]
	call	?GetGroundActionType@TeamClass@@QAEEXZ	; TeamClass::GetGroundActionType
	movzx	ecx, al
	cmp	ecx, 4
	jne	$LN1@BuildObjec
	lea	edx, DWORD PTR $T2[ebp]
	push	edx
	mov	ecx, DWORD PTR _o$[ebp]
	call	?GetObjectivePrimary@ObjectiveClass@@QAEPAV1@XZ ; ObjectiveClass::GetObjectivePrimary
	mov	ecx, eax
	call	?Id@VuEntity@@QBE?AVVU_ID@@XZ		; VuEntity::Id
	push	eax
	mov	eax, DWORD PTR _this$[ebp]
	movzx	ecx, BYTE PTR [eax+146]
	mov	ecx, DWORD PTR ?TeamInfo@@3PAPAVTeamClass@@A[ecx*4]
	call	?GetGroundAction@TeamClass@@QAEPAUTeamGndActionType@@XZ ; TeamClass::GetGroundAction
	add	eax, 8
	mov	ecx, eax
	call	??8VU_ID@@QBE_NABV0@@Z			; VU_ID::operator==
	movzx	edx, al
	test	edx, edx
	je	$LN1@BuildObjec

; 586  : 				{
; 587  : 					new_node = new GndObjDataType();

	push	20					; 00000014H
	call	??2@YAPAXI@Z				; operator new
	add	esp, 4
	mov	DWORD PTR $T7[ebp], eax
	mov	BYTE PTR __$EHRec$[ebp+8], 2
	cmp	DWORD PTR $T7[ebp], 0
	je	SHORT $LN22@BuildObjec
	mov	ecx, DWORD PTR $T7[ebp]
	call	??0GndObjDataType@@QAE@XZ		; GndObjDataType::GndObjDataType
	mov	DWORD PTR tv244[ebp], eax
	jmp	SHORT $LN23@BuildObjec
$LN22@BuildObjec:
	mov	DWORD PTR tv244[ebp], 0
$LN23@BuildObjec:
	mov	eax, DWORD PTR tv244[ebp]
	mov	DWORD PTR $T4[ebp], eax
	mov	BYTE PTR __$EHRec$[ebp+8], 0
	mov	ecx, DWORD PTR $T4[ebp]
	mov	DWORD PTR _new_node$9[ebp], ecx

; 588  : 					new_node->obj = o;

	mov	edx, DWORD PTR _new_node$9[ebp]
	mov	eax, DWORD PTR _o$[ebp]
	mov	DWORD PTR [edx], eax

; 589  : 					new_node->priority_score = ScoreObj(i,os,ss,ps,pps,fs);

	mov	ecx, DWORD PTR _fs$[ebp]
	push	ecx
	mov	edx, DWORD PTR _pps$[ebp]
	push	edx
	mov	eax, DWORD PTR _ps$[ebp]
	push	eax
	mov	ecx, DWORD PTR _ss$[ebp]
	push	ecx
	mov	edx, DWORD PTR _os$[ebp]
	push	edx
	mov	eax, DWORD PTR _i$10[ebp]
	push	eax
	call	?ScoreObj@@YAHHHHHHH@Z			; ScoreObj
	add	esp, 24					; 00000018H
	mov	ecx, DWORD PTR _new_node$9[ebp]
	mov	DWORD PTR [ecx+4], eax

; 590  : 					objList[i] = objList[i]->Insert(new_node,GODN_SORT_BY_PRIORITY);

	push	1
	mov	edx, DWORD PTR _new_node$9[ebp]
	push	edx
	mov	eax, DWORD PTR _i$10[ebp]
	mov	ecx, DWORD PTR _this$[ebp]
	mov	ecx, DWORD PTR [ecx+eax*4+152]
	call	?Insert@GndObjDataType@@QAEPAV1@PAV1@H@Z ; GndObjDataType::Insert
	mov	edx, DWORD PTR _i$10[ebp]
	mov	ecx, DWORD PTR _this$[ebp]
	mov	DWORD PTR [ecx+edx*4+152], eax
$LN1@BuildObjec:

; 591  : 				}
; 592  : 				// END EXPERIMENTAL
; 593  : 			}

	jmp	$LN6@BuildObjec
$LN5@BuildObjec:

; 594  : 		}
; 595  : 
; 596  : 		o = GetNextObjective(&objit);

	lea	edx, DWORD PTR _objit$[ebp]
	push	edx
	call	?GetNextObjective@@YAPAVObjectiveClass@@PAVVuListIterator@@@Z ; GetNextObjective
	add	esp, 4
	mov	DWORD PTR _o$[ebp], eax

; 597  : 	}

	jmp	$LN17@BuildObjec
$LN16@BuildObjec:

; 598  : 
; 599  : 	return 1;

	mov	DWORD PTR $T3[ebp], 1
	mov	DWORD PTR __$EHRec$[ebp+8], -1
	lea	ecx, DWORD PTR _objit$[ebp]
	call	??1VuListIterator@@UAE@XZ		; VuListIterator::~VuListIterator
	mov	eax, DWORD PTR $T3[ebp]

; 600  : }

	mov	ecx, DWORD PTR __$EHRec$[ebp]
	mov	DWORD PTR fs:0, ecx
	pop	ecx
	mov	esp, ebp
	pop	ebp
	ret	4
_TEXT	ENDS
text$x	SEGMENT
__unwindfunclet$?BuildObjectiveLists@GroundTaskingManagerClass@@QAEHH@Z$0:
	lea	ecx, DWORD PTR _objit$[ebp]
	jmp	??1VuListIterator@@UAE@XZ		; VuListIterator::~VuListIterator
__unwindfunclet$?BuildObjectiveLists@GroundTaskingManagerClass@@QAEHH@Z$1:
	mov	eax, DWORD PTR $T8[ebp]
	push	eax
	call	??3@YAXPAX@Z				; operator delete
	pop	ecx
	ret	0
__unwindfunclet$?BuildObjectiveLists@GroundTaskingManagerClass@@QAEHH@Z$2:
	mov	eax, DWORD PTR $T7[ebp]
	push	eax
	call	??3@YAXPAX@Z				; operator delete
	pop	ecx
	ret	0
__ehhandler$?BuildObjectiveLists@GroundTaskingManagerClass@@QAEHH@Z:
	mov	edx, DWORD PTR [esp+8]
	lea	eax, DWORD PTR [edx+12]
	mov	ecx, DWORD PTR [edx-112]
	xor	ecx, eax
	call	@__security_check_cookie@4
	mov	eax, OFFSET __ehfuncinfo$?BuildObjectiveLists@GroundTaskingManagerClass@@QAEHH@Z
	jmp	___CxxFrameHandler3
text$x	ENDS
?BuildObjectiveLists@GroundTaskingManagerClass@@QAEHH@Z ENDP ; GroundTaskingManagerClass::BuildObjectiveLists
; Function compile flags: /Odtp
; File c:\users\zhitao li\documents\visual studio 2012\projects\freefalcon\campaign\camptask\gtm.cpp
_TEXT	SEGMENT
_this$ = -8						; size = 4
_add_now$ = -4						; size = 4
_o$ = 8							; size = 4
_to_collect$ = 12					; size = 4
?GetAddBits@GroundTaskingManagerClass@@QAEHPAVObjectiveClass@@H@Z PROC ; GroundTaskingManagerClass::GetAddBits
; _this$ = ecx

; 454  : {

	push	ebp
	mov	ebp, esp
	sub	esp, 8
	push	esi
	mov	DWORD PTR _this$[ebp], ecx

; 455  : 	int add_now = to_collect;

	mov	eax, DWORD PTR _to_collect$[ebp]
	mov	DWORD PTR _add_now$[ebp], eax

; 456  : 
; 457  : 	if (!o)

	cmp	DWORD PTR _o$[ebp], 0
	jne	SHORT $LN16@GetAddBits

; 458  : 		return 0;

	xor	eax, eax
	jmp	$LN17@GetAddBits
$LN16@GetAddBits:

; 459  : 
; 460  : 	if (!o->IsSecondary())

	mov	ecx, DWORD PTR _o$[ebp]
	call	?IsSecondary@ObjectiveClass@@QAEHXZ	; ObjectiveClass::IsSecondary
	test	eax, eax
	jne	SHORT $LN15@GetAddBits

; 461  : 		add_now &= ~(COLLECT_RESERVE | COLLECT_CAPTURE | COLLECT_SECURE | COLLECT_ASSAULT | COLLECT_AIRBORNE | COLLECT_DEFEND);

	mov	ecx, DWORD PTR _add_now$[ebp]
	and	ecx, -96				; ffffffa0H
	mov	DWORD PTR _add_now$[ebp], ecx
$LN15@GetAddBits:

; 462  : 	if (o->IsNearfront())

	mov	ecx, DWORD PTR _o$[ebp]
	call	?IsNearfront@ObjectiveClass@@QAEHXZ	; ObjectiveClass::IsNearfront
	test	eax, eax
	je	SHORT $LN14@GetAddBits

; 463  : 		add_now &= ~(COLLECT_RESERVE | COLLECT_ASSAULT | COLLECT_AIRBORNE);

	mov	edx, DWORD PTR _add_now$[ebp]
	and	edx, -26				; ffffffe6H
	mov	DWORD PTR _add_now$[ebp], edx

; 464  : 	else

	jmp	SHORT $LN13@GetAddBits
$LN14@GetAddBits:

; 465  : 		add_now &= ~(COLLECT_CAPTURE | COLLECT_DEFEND);

	mov	eax, DWORD PTR _add_now$[ebp]
	and	eax, -67				; ffffffbdH
	mov	DWORD PTR _add_now$[ebp], eax
$LN13@GetAddBits:

; 466  : 	if (owner != o->GetTeam())

	mov	ecx, DWORD PTR _this$[ebp]
	movzx	esi, BYTE PTR [ecx+146]
	mov	edx, DWORD PTR _o$[ebp]
	mov	eax, DWORD PTR [edx]
	mov	ecx, DWORD PTR _o$[ebp]
	mov	edx, DWORD PTR [eax+116]
	call	edx
	movzx	eax, al
	cmp	esi, eax
	je	SHORT $LN12@GetAddBits

; 467  : 		add_now &= ~(COLLECT_RESERVE | COLLECT_SECURE | COLLECT_DEFEND | COLLECT_SUPPORT | COLLECT_REPAIR | COLLECT_AIRDEFENSE | COLLECT_RADAR);

	mov	ecx, DWORD PTR _add_now$[ebp]
	and	ecx, -3014				; fffff43aH
	mov	DWORD PTR _add_now$[ebp], ecx
$LN12@GetAddBits:

; 468  : 	if (GetRoE(owner,o->GetTeam(),ROE_GROUND_CAPTURE) != ROE_ALLOWED)

	push	3
	mov	edx, DWORD PTR _o$[ebp]
	mov	eax, DWORD PTR [edx]
	mov	ecx, DWORD PTR _o$[ebp]
	mov	edx, DWORD PTR [eax+116]
	call	edx
	movzx	eax, al
	push	eax
	mov	ecx, DWORD PTR _this$[ebp]
	movzx	edx, BYTE PTR [ecx+146]
	push	edx
	call	?GetRoE@@YAHEEH@Z			; GetRoE
	add	esp, 12					; 0000000cH
	cmp	eax, 1
	je	SHORT $LN11@GetAddBits

; 469  : 		add_now &= ~(COLLECT_CAPTURE | COLLECT_ASSAULT | COLLECT_AIRBORNE | COLLECT_COMMANDO);

	mov	eax, DWORD PTR _add_now$[ebp]
	and	eax, -59				; ffffffc5H
	mov	DWORD PTR _add_now$[ebp], eax
$LN11@GetAddBits:

; 470  : 	if (o->Abandoned())

	mov	ecx, DWORD PTR _o$[ebp]
	call	?Abandoned@ObjectiveClass@@QAEHXZ	; ObjectiveClass::Abandoned
	test	eax, eax
	je	SHORT $LN10@GetAddBits

; 471  : 		add_now &= ~COLLECT_DEFEND;

	mov	ecx, DWORD PTR _add_now$[ebp]
	and	ecx, -65				; ffffffbfH
	mov	DWORD PTR _add_now$[ebp], ecx
$LN10@GetAddBits:

; 472  : 	if (!o->IsFrontline() && !o->IsSecondline())

	mov	ecx, DWORD PTR _o$[ebp]
	call	?IsFrontline@ObjectiveClass@@QAEHXZ	; ObjectiveClass::IsFrontline
	test	eax, eax
	jne	SHORT $LN9@GetAddBits
	mov	ecx, DWORD PTR _o$[ebp]
	call	?IsSecondline@ObjectiveClass@@QAEHXZ	; ObjectiveClass::IsSecondline
	test	eax, eax
	jne	SHORT $LN9@GetAddBits

; 473  : 		add_now &= ~(COLLECT_SECURE);

	mov	edx, DWORD PTR _add_now$[ebp]
	and	edx, -5					; fffffffbH
	mov	DWORD PTR _add_now$[ebp], edx
$LN9@GetAddBits:

; 474  : 	if (!o->IsBeach())

	mov	ecx, DWORD PTR _o$[ebp]
	call	?IsBeach@ObjectiveClass@@QAEHXZ		; ObjectiveClass::IsBeach
	test	eax, eax
	jne	SHORT $LN8@GetAddBits

; 475  : 		add_now &= ~(COLLECT_ASSAULT);

	mov	eax, DWORD PTR _add_now$[ebp]
	and	eax, -9					; fffffff7H
	mov	DWORD PTR _add_now$[ebp], eax
$LN8@GetAddBits:

; 476  : 	if (1) // defended

	mov	ecx, 1
	test	ecx, ecx
	je	SHORT $LN7@GetAddBits

; 477  : 		add_now &= ~(COLLECT_AIRBORNE);

	mov	edx, DWORD PTR _add_now$[ebp]
	and	edx, -17				; ffffffefH
	mov	DWORD PTR _add_now$[ebp], edx
$LN7@GetAddBits:

; 478  : 	if (!o->CommandoSite())

	mov	ecx, DWORD PTR _o$[ebp]
	call	?CommandoSite@ObjectiveClass@@QAEHXZ	; ObjectiveClass::CommandoSite
	test	eax, eax
	jne	SHORT $LN6@GetAddBits

; 479  : 		add_now &= ~(COLLECT_COMMANDO);

	mov	eax, DWORD PTR _add_now$[ebp]
	and	eax, -33				; ffffffdfH
	mov	DWORD PTR _add_now$[ebp], eax
$LN6@GetAddBits:

; 480  : 	if (!o->ArtillerySite())

	mov	ecx, DWORD PTR _o$[ebp]
	call	?ArtillerySite@ObjectiveClass@@QAEHXZ	; ObjectiveClass::ArtillerySite
	test	eax, eax
	jne	SHORT $LN5@GetAddBits

; 481  : 		add_now &= ~(COLLECT_SUPPORT);

	mov	ecx, DWORD PTR _add_now$[ebp]
	and	ecx, -129				; ffffff7fH
	mov	DWORD PTR _add_now$[ebp], ecx
$LN5@GetAddBits:

; 482  : 	if (!o->NeedRepair() || o->GetObjectiveStatus() > 50)

	mov	ecx, DWORD PTR _o$[ebp]
	call	?NeedRepair@ObjectiveClass@@QAEHXZ	; ObjectiveClass::NeedRepair
	test	eax, eax
	je	SHORT $LN3@GetAddBits
	mov	ecx, DWORD PTR _o$[ebp]
	call	?GetObjectiveStatus@ObjectiveClass@@QAEEXZ ; ObjectiveClass::GetObjectiveStatus
	movzx	edx, al
	cmp	edx, 50					; 00000032H
	jle	SHORT $LN4@GetAddBits
$LN3@GetAddBits:

; 483  : 		add_now &= ~(COLLECT_REPAIR);

	mov	eax, DWORD PTR _add_now$[ebp]
	and	eax, -257				; fffffeffH
	mov	DWORD PTR _add_now$[ebp], eax
$LN4@GetAddBits:

; 484  : 	if (!o->SamSite())

	mov	ecx, DWORD PTR _o$[ebp]
	call	?SamSite@ObjectiveClass@@QAEHXZ		; ObjectiveClass::SamSite
	test	eax, eax
	jne	SHORT $LN2@GetAddBits

; 485  : 		add_now &= ~(COLLECT_AIRDEFENSE);

	mov	ecx, DWORD PTR _add_now$[ebp]
	and	ecx, -513				; fffffdffH
	mov	DWORD PTR _add_now$[ebp], ecx
$LN2@GetAddBits:

; 486  : 	if (!o->RadarSite())

	mov	ecx, DWORD PTR _o$[ebp]
	call	?RadarSite@ObjectiveClass@@QAEHXZ	; ObjectiveClass::RadarSite
	test	eax, eax
	jne	SHORT $LN1@GetAddBits

; 487  : 		add_now &= ~(COLLECT_RADAR);

	mov	edx, DWORD PTR _add_now$[ebp]
	and	edx, -2049				; fffff7ffH
	mov	DWORD PTR _add_now$[ebp], edx
$LN1@GetAddBits:

; 488  : 	return add_now;

	mov	eax, DWORD PTR _add_now$[ebp]
$LN17@GetAddBits:

; 489  : }

	pop	esi
	mov	esp, ebp
	pop	ebp
	ret	8
?GetAddBits@GroundTaskingManagerClass@@QAEHPAVObjectiveClass@@H@Z ENDP ; GroundTaskingManagerClass::GetAddBits
_TEXT	ENDS
; Function compile flags: /Odtp
; File c:\users\zhitao li\documents\visual studio 2012\projects\freefalcon\campaign\camptask\gtm.cpp
_TEXT	SEGMENT
_this$ = -8						; size = 4
_i$1 = -4						; size = 4
?Cleanup@GroundTaskingManagerClass@@QAEXXZ PROC		; GroundTaskingManagerClass::Cleanup
; _this$ = ecx

; 372  : {

	push	ebp
	mov	ebp, esp
	sub	esp, 8
	mov	DWORD PTR _this$[ebp], ecx

; 373  : 	for (int i=0; i<GORD_LAST; i++)

	mov	DWORD PTR _i$1[ebp], 0
	jmp	SHORT $LN5@Cleanup
$LN4@Cleanup:
	mov	eax, DWORD PTR _i$1[ebp]
	add	eax, 1
	mov	DWORD PTR _i$1[ebp], eax
$LN5@Cleanup:
	cmp	DWORD PTR _i$1[ebp], 12			; 0000000cH
	jge	SHORT $LN3@Cleanup

; 374  : 	{
; 375  : 		if (canidateList[i])

	mov	ecx, DWORD PTR _i$1[ebp]
	mov	edx, DWORD PTR _this$[ebp]
	cmp	DWORD PTR [edx+ecx*4+200], 0
	je	SHORT $LN2@Cleanup

; 376  : 			canidateList[i] = canidateList[i]->Purge();

	mov	eax, DWORD PTR _i$1[ebp]
	mov	ecx, DWORD PTR _this$[ebp]
	mov	ecx, DWORD PTR [ecx+eax*4+200]
	call	?Purge@UnitScoreNode@@QAEPAV1@XZ	; UnitScoreNode::Purge
	mov	edx, DWORD PTR _i$1[ebp]
	mov	ecx, DWORD PTR _this$[ebp]
	mov	DWORD PTR [ecx+edx*4+200], eax
$LN2@Cleanup:

; 377  : 		if (objList[i])

	mov	edx, DWORD PTR _i$1[ebp]
	mov	eax, DWORD PTR _this$[ebp]
	cmp	DWORD PTR [eax+edx*4+152], 0
	je	SHORT $LN1@Cleanup

; 378  : 			objList[i] = objList[i]->Purge();

	mov	ecx, DWORD PTR _i$1[ebp]
	mov	edx, DWORD PTR _this$[ebp]
	mov	ecx, DWORD PTR [edx+ecx*4+152]
	call	?Purge@GndObjDataType@@QAEPAV1@XZ	; GndObjDataType::Purge
	mov	ecx, DWORD PTR _i$1[ebp]
	mov	edx, DWORD PTR _this$[ebp]
	mov	DWORD PTR [edx+ecx*4+152], eax
$LN1@Cleanup:

; 379  : #ifdef KEV_GDEBUG
; 380  : 		ObjCount[i] = 0;
; 381  : 		UnitCount[i] = 0;
; 382  : 		AssignedCount[i] = 0;
; 383  : 		Time[i] = 0;
; 384  : #endif
; 385  : 	}

	jmp	SHORT $LN4@Cleanup
$LN3@Cleanup:

; 386  : 	sOffensiveAssigned = sOffensiveDesired = 0;

	mov	DWORD PTR ?sOffensiveDesired@@3HA, 0	; sOffensiveDesired
	mov	eax, DWORD PTR ?sOffensiveDesired@@3HA	; sOffensiveDesired
	mov	DWORD PTR ?sOffensiveAssigned@@3HA, eax	; sOffensiveAssigned

; 387  : 	Assigned = 0;

	mov	DWORD PTR ?Assigned@@3HA, 0		; Assigned

; 388  : }

	mov	esp, ebp
	pop	ebp
	ret	0
?Cleanup@GroundTaskingManagerClass@@QAEXXZ ENDP		; GroundTaskingManagerClass::Cleanup
_TEXT	ENDS
; Function compile flags: /Odtp
; File c:\users\zhitao li\documents\visual studio 2012\projects\freefalcon\campaign\camptask\gtm.cpp
_TEXT	SEGMENT
_this$ = -8						; size = 4
_i$1 = -4						; size = 4
?Setup@GroundTaskingManagerClass@@QAEXXZ PROC		; GroundTaskingManagerClass::Setup
; _this$ = ecx

; 359  : {

	push	ebp
	mov	ebp, esp
	sub	esp, 8
	mov	DWORD PTR _this$[ebp], ecx

; 360  : 	for (int i=0; i<GORD_LAST; i++)

	mov	DWORD PTR _i$1[ebp], 0
	jmp	SHORT $LN3@Setup
$LN2@Setup:
	mov	eax, DWORD PTR _i$1[ebp]
	add	eax, 1
	mov	DWORD PTR _i$1[ebp], eax
$LN3@Setup:
	cmp	DWORD PTR _i$1[ebp], 12			; 0000000cH
	jge	SHORT $LN1@Setup

; 361  : 	{
; 362  : 		canidateList[i] = NULL;

	mov	ecx, DWORD PTR _i$1[ebp]
	mov	edx, DWORD PTR _this$[ebp]
	mov	DWORD PTR [edx+ecx*4+200], 0

; 363  : 		objList[i] = NULL;

	mov	eax, DWORD PTR _i$1[ebp]
	mov	ecx, DWORD PTR _this$[ebp]
	mov	DWORD PTR [ecx+eax*4+152], 0

; 364  : 	}

	jmp	SHORT $LN2@Setup
$LN1@Setup:

; 365  : #ifdef KEV_GDEBUG
; 366  : 	ScoreTime = PickTime = ListBuildTime;
; 367  : #endif
; 368  : 	Assigned = 0;

	mov	DWORD PTR ?Assigned@@3HA, 0		; Assigned

; 369  : }

	mov	esp, ebp
	pop	ebp
	ret	0
?Setup@GroundTaskingManagerClass@@QAEXXZ ENDP		; GroundTaskingManagerClass::Setup
_TEXT	ENDS
; Function compile flags: /Odtp
; File c:\users\zhitao li\documents\visual studio 2012\projects\freefalcon\campaign\camptask\gtm.cpp
_TEXT	SEGMENT
_count$ = -24						; size = 4
_done$ = -20						; size = 4
tv177 = -16						; size = 4
_action$ = -12						; size = 4
_collect$ = -8						; size = 4
_this$ = -4						; size = 4
?Task@GroundTaskingManagerClass@@UAEHXZ PROC		; GroundTaskingManagerClass::Task
; _this$ = ecx

; 248  : {               

	push	ebp
	mov	ebp, esp
	sub	esp, 24					; 00000018H
	mov	DWORD PTR _this$[ebp], ecx

; 249  : 	int			done = 0;

	mov	DWORD PTR _done$[ebp], 0

; 250  : 	int			count=0,collect;

	mov	DWORD PTR _count$[ebp], 0

; 251  : 	int			action;
; 252  : 
; 253  : 	// Don't do this if we're not active, or not owned by this machine
; 254  : 	if (!(TeamInfo[owner]->flags & TEAM_ACTIVE) || !IsLocal())

	mov	eax, DWORD PTR _this$[ebp]
	movzx	ecx, BYTE PTR [eax+146]
	mov	edx, DWORD PTR ?TeamInfo@@3PAPAVTeamClass@@A[ecx*4]
	movsx	eax, WORD PTR [edx+350]
	and	eax, 1
	je	SHORT $LN15@Task
	mov	ecx, DWORD PTR _this$[ebp]
	call	?IsLocal@VuEntity@@QBEEXZ		; VuEntity::IsLocal
	movzx	ecx, al
	test	ecx, ecx
	jne	SHORT $LN16@Task
$LN15@Task:

; 255  : 		return 0;

	xor	eax, eax
	jmp	$LN17@Task
$LN16@Task:

; 256  : 
; 257  : 	action = TeamInfo[owner]->GetGroundActionType();

	mov	edx, DWORD PTR _this$[ebp]
	movzx	eax, BYTE PTR [edx+146]
	mov	ecx, DWORD PTR ?TeamInfo@@3PAPAVTeamClass@@A[eax*4]
	call	?GetGroundActionType@TeamClass@@QAEEXZ	; TeamClass::GetGroundActionType
	movzx	ecx, al
	mov	DWORD PTR _action$[ebp], ecx

; 258  : 
; 259  : 	// Check for offensive grinding to a halt
; 260  : 	if (action == GACTION_OFFENSIVE && TeamInfo[owner]->GetGroundAction()->actionPoints == 0)

	cmp	DWORD PTR _action$[ebp], 4
	jne	SHORT $LN14@Task
	mov	edx, DWORD PTR _this$[ebp]
	movzx	eax, BYTE PTR [edx+146]
	mov	ecx, DWORD PTR ?TeamInfo@@3PAPAVTeamClass@@A[eax*4]
	call	?GetGroundAction@TeamClass@@QAEPAUTeamGndActionType@@XZ ; TeamClass::GetGroundAction
	movzx	ecx, BYTE PTR [eax+18]
	test	ecx, ecx
	jne	SHORT $LN14@Task

; 261  : 	{
; 262  : 		TeamInfo[owner]->SelectGroundAction();

	mov	edx, DWORD PTR _this$[ebp]
	movzx	eax, BYTE PTR [edx+146]
	mov	ecx, DWORD PTR ?TeamInfo@@3PAPAVTeamClass@@A[eax*4]
	call	?SelectGroundAction@TeamClass@@QAEXXZ	; TeamClass::SelectGroundAction

; 263  : 		action = TeamInfo[owner]->GetGroundActionType();

	mov	ecx, DWORD PTR _this$[ebp]
	movzx	edx, BYTE PTR [ecx+146]
	mov	ecx, DWORD PTR ?TeamInfo@@3PAPAVTeamClass@@A[edx*4]
	call	?GetGroundActionType@TeamClass@@QAEEXZ	; TeamClass::GetGroundActionType
	movzx	eax, al
	mov	DWORD PTR _action$[ebp], eax
$LN14@Task:

; 264  : 	}
; 265  : 
; 266  : #ifdef DEBUG
; 267  : 	ulong	time;//,newtime;
; 268  : 	time = GetTickCount();
; 269  : #endif
; 270  : 
; 271  : 	Cleanup();

	mov	ecx, DWORD PTR _this$[ebp]
	call	?Cleanup@GroundTaskingManagerClass@@QAEXXZ ; GroundTaskingManagerClass::Cleanup

; 272  : 
; 273  : 	// Choose types of orders we can give
; 274  : 	collect = COLLECT_AIRDEFENSE | COLLECT_SUPPORT | COLLECT_REPAIR | COLLECT_RESERVE | COLLECT_DEFEND | COLLECT_RADAR;

	mov	DWORD PTR _collect$[ebp], 3009		; 00000bc1H

; 275  : 	if (action == GACTION_OFFENSIVE)

	cmp	DWORD PTR _action$[ebp], 4
	jne	SHORT $LN13@Task

; 276  : 		collect |= COLLECT_CAPTURE | COLLECT_ASSAULT | COLLECT_AIRBORNE | COLLECT_COMMANDO | COLLECT_SECURE;

	mov	ecx, DWORD PTR _collect$[ebp]
	or	ecx, 62					; 0000003eH
	mov	DWORD PTR _collect$[ebp], ecx
	jmp	SHORT $LN12@Task
$LN13@Task:

; 277  : 	else if (action == GACTION_MINOROFFENSIVE)

	cmp	DWORD PTR _action$[ebp], 3
	jne	SHORT $LN11@Task

; 278  : 		collect |= COLLECT_SECURE;

	mov	edx, DWORD PTR _collect$[ebp]
	or	edx, 4
	mov	DWORD PTR _collect$[ebp], edx
	jmp	SHORT $LN12@Task
$LN11@Task:

; 279  : 	else if (action == GACTION_CONSOLIDATE)

	cmp	DWORD PTR _action$[ebp], 2
	jne	SHORT $LN12@Task

; 280  : 		collect |= COLLECT_SECURE;

	mov	eax, DWORD PTR _collect$[ebp]
	or	eax, 4
	mov	DWORD PTR _collect$[ebp], eax
$LN12@Task:

; 281  : 
; 282  : #ifdef KEV_GDEBUG
; 283  : 	ulong	ltime;
; 284  : 	ltime = GetTickCount();
; 285  : #endif
; 286  : 
; 287  : 	if (CollectGroundAssets(collect))

	mov	ecx, DWORD PTR _collect$[ebp]
	push	ecx
	mov	ecx, DWORD PTR _this$[ebp]
	call	?CollectGroundAssets@GroundTaskingManagerClass@@QAEHH@Z ; GroundTaskingManagerClass::CollectGroundAssets
	test	eax, eax
	je	$LN8@Task

; 288  : 	{
; 289  : #ifdef KEV_GDEBUG
; 290  : 		ListBuildTime = GetTickCount() - ltime;
; 291  : #endif
; 292  : 		// Give orders based on action type
; 293  : 		switch (action)

	mov	edx, DWORD PTR _action$[ebp]
	mov	DWORD PTR tv177[ebp], edx
	cmp	DWORD PTR tv177[ebp], 2
	je	SHORT $LN3@Task
	cmp	DWORD PTR tv177[ebp], 3
	je	SHORT $LN4@Task
	cmp	DWORD PTR tv177[ebp], 4
	je	SHORT $LN5@Task
	jmp	SHORT $LN2@Task
$LN5@Task:

; 294  : 		{
; 295  : 				case GACTION_OFFENSIVE:
; 296  : 						// Full offensive - priorities are offensive, securing, then defense
; 297  : 						AssignUnits (GORD_CAPTURE, GTM_MODE_FASTEST);

	push	1
	push	1
	mov	ecx, DWORD PTR _this$[ebp]
	call	?AssignUnits@GroundTaskingManagerClass@@QAEHHH@Z ; GroundTaskingManagerClass::AssignUnits

; 298  : 						//				if (NavalSuperiority(owner) >= STATE_CONTESTED)
; 299  : 						AssignUnits (GORD_ASSAULT, GTM_MODE_BEST);

	push	0
	push	3
	mov	ecx, DWORD PTR _this$[ebp]
	call	?AssignUnits@GroundTaskingManagerClass@@QAEHHH@Z ; GroundTaskingManagerClass::AssignUnits

; 300  : 						//				if (AirSuperiority(owner) >= STATE_CONTESTED)
; 301  : 						{
; 302  : 							AssignUnits (GORD_AIRBORNE, GTM_MODE_BEST);

	push	0
	push	4
	mov	ecx, DWORD PTR _this$[ebp]
	call	?AssignUnits@GroundTaskingManagerClass@@QAEHHH@Z ; GroundTaskingManagerClass::AssignUnits

; 303  : 							AssignUnits (GORD_COMMANDO, GTM_MODE_BEST);

	push	0
	push	5
	mov	ecx, DWORD PTR _this$[ebp]
	call	?AssignUnits@GroundTaskingManagerClass@@QAEHHH@Z ; GroundTaskingManagerClass::AssignUnits

; 304  : 						}
; 305  : 						AssignUnits (GORD_SECURE, GTM_MODE_FASTEST);

	push	1
	push	2
	mov	ecx, DWORD PTR _this$[ebp]
	call	?AssignUnits@GroundTaskingManagerClass@@QAEHHH@Z ; GroundTaskingManagerClass::AssignUnits

; 306  : 						AssignUnits (GORD_DEFEND, GTM_MODE_BEST);

	push	0
	push	6
	mov	ecx, DWORD PTR _this$[ebp]
	call	?AssignUnits@GroundTaskingManagerClass@@QAEHHH@Z ; GroundTaskingManagerClass::AssignUnits

; 307  : 						break;

	jmp	SHORT $LN6@Task
$LN4@Task:

; 308  : 				case GACTION_MINOROFFENSIVE:
; 309  : 						// Consolidation/Counterattack phase - priorities are securing objectives then defense
; 310  : 						AssignUnits (GORD_SECURE, GTM_MODE_BEST);

	push	0
	push	2
	mov	ecx, DWORD PTR _this$[ebp]
	call	?AssignUnits@GroundTaskingManagerClass@@QAEHHH@Z ; GroundTaskingManagerClass::AssignUnits

; 311  : 						AssignUnits (GORD_DEFEND, GTM_MODE_BEST);

	push	0
	push	6
	mov	ecx, DWORD PTR _this$[ebp]
	call	?AssignUnits@GroundTaskingManagerClass@@QAEHHH@Z ; GroundTaskingManagerClass::AssignUnits
$LN3@Task:

; 312  : 				case GACTION_CONSOLIDATE:	
; 313  : 						// Cautious consolidation phase - priorities are defense, then securing objectives
; 314  : 						AssignUnits (GORD_DEFEND, GTM_MODE_FASTEST);

	push	1
	push	6
	mov	ecx, DWORD PTR _this$[ebp]
	call	?AssignUnits@GroundTaskingManagerClass@@QAEHHH@Z ; GroundTaskingManagerClass::AssignUnits

; 315  : 						AssignUnits (GORD_SECURE, GTM_MODE_BEST);

	push	0
	push	2
	mov	ecx, DWORD PTR _this$[ebp]
	call	?AssignUnits@GroundTaskingManagerClass@@QAEHHH@Z ; GroundTaskingManagerClass::AssignUnits

; 316  : 						break;

	jmp	SHORT $LN6@Task
$LN2@Task:

; 317  : 				case GACTION_DEFENSIVE:
; 318  : 				default:
; 319  : 						// Defensive posture - priorities are defense only
; 320  : 						AssignUnits (GORD_DEFEND, GTM_MODE_FASTEST);

	push	1
	push	6
	mov	ecx, DWORD PTR _this$[ebp]
	call	?AssignUnits@GroundTaskingManagerClass@@QAEHHH@Z ; GroundTaskingManagerClass::AssignUnits
$LN6@Task:

; 321  : 						break;
; 322  : 		}
; 323  : 
; 324  : 		// Now do the things we do all the time:
; 325  : 		AssignUnits (GORD_AIRDEFENSE, GTM_MODE_FASTEST);

	push	1
	push	9
	mov	ecx, DWORD PTR _this$[ebp]
	call	?AssignUnits@GroundTaskingManagerClass@@QAEHHH@Z ; GroundTaskingManagerClass::AssignUnits

; 326  : 		AssignUnits (GORD_SUPPORT, GTM_MODE_FASTEST);

	push	1
	push	7
	mov	ecx, DWORD PTR _this$[ebp]
	call	?AssignUnits@GroundTaskingManagerClass@@QAEHHH@Z ; GroundTaskingManagerClass::AssignUnits

; 327  : 		AssignUnits (GORD_REPAIR, GTM_MODE_FASTEST);

	push	1
	push	8
	mov	ecx, DWORD PTR _this$[ebp]
	call	?AssignUnits@GroundTaskingManagerClass@@QAEHHH@Z ; GroundTaskingManagerClass::AssignUnits

; 328  : 		AssignUnits (GORD_RADAR, GTM_MODE_FASTEST);

	push	1
	push	11					; 0000000bH
	mov	ecx, DWORD PTR _this$[ebp]
	call	?AssignUnits@GroundTaskingManagerClass@@QAEHHH@Z ; GroundTaskingManagerClass::AssignUnits

; 329  : 		AssignUnits (GORD_RESERVE, GTM_MODE_BEST);

	push	0
	push	0
	mov	ecx, DWORD PTR _this$[ebp]
	call	?AssignUnits@GroundTaskingManagerClass@@QAEHHH@Z ; GroundTaskingManagerClass::AssignUnits
$LN8@Task:

; 330  : 	}
; 331  : 
; 332  : 	// Check if our tasking failed to meet at least 50 of our offensive requests
; 333  : 	if (sOffensiveDesired && sOffensiveAssigned < sOffensiveDesired/2)

	cmp	DWORD PTR ?sOffensiveDesired@@3HA, 0	; sOffensiveDesired
	je	SHORT $LN1@Task
	mov	eax, DWORD PTR ?sOffensiveDesired@@3HA	; sOffensiveDesired
	cdq
	sub	eax, edx
	sar	eax, 1
	cmp	DWORD PTR ?sOffensiveAssigned@@3HA, eax	; sOffensiveAssigned
	jge	SHORT $LN1@Task

; 334  : 		TeamInfo[owner]->GetGroundAction()->actionPoints = 0;

	mov	eax, DWORD PTR _this$[ebp]
	movzx	ecx, BYTE PTR [eax+146]
	mov	ecx, DWORD PTR ?TeamInfo@@3PAPAVTeamClass@@A[ecx*4]
	call	?GetGroundAction@TeamClass@@QAEPAUTeamGndActionType@@XZ ; TeamClass::GetGroundAction
	mov	BYTE PTR [eax+18], 0
$LN1@Task:

; 335  : 
; 336  : #ifdef KEV_GDEBUG
; 337  : 	int i;
; 338  : 	MonoPrint("Assigned:     ");
; 339  : 	for (i=0; i<GORD_LAST; i++)
; 340  : 		MonoPrint("%3d  ",AssignedCount[i]);
; 341  : 	MonoPrint("%3d\n",Assigned);
; 342  : 	MonoPrint("Time (s):     ");
; 343  : 	for (i=0; i<GORD_LAST; i++)
; 344  : 		MonoPrint("%3.1f  ",(float)(Time[i]/1000.0F));
; 345  : 	MonoPrint("\n");
; 346  : #endif
; 347  : 
; 348  : 	Cleanup();

	mov	ecx, DWORD PTR _this$[ebp]
	call	?Cleanup@GroundTaskingManagerClass@@QAEXXZ ; GroundTaskingManagerClass::Cleanup

; 349  : 
; 350  : #ifdef KEV_GDEBUG
; 351  : 	newtime = GetTickCount();
; 352  : 	MonoPrint("Ground tasking for team %d: %d ms\n",owner,newtime-time);
; 353  : #endif
; 354  : 
; 355  : 	return Assigned;

	mov	eax, DWORD PTR ?Assigned@@3HA		; Assigned
$LN17@Task:

; 356  : }

	mov	esp, ebp
	pop	ebp
	ret	0
?Task@GroundTaskingManagerClass@@UAEHXZ ENDP		; GroundTaskingManagerClass::Task
_TEXT	ENDS
; Function compile flags: /Odtp
; File c:\users\zhitao li\documents\visual studio 2012\projects\freefalcon\campaign\camptask\gtm.cpp
_TEXT	SEGMENT
_poit$ = -68						; size = 12
_fs$ = -56						; size = 4
_d$ = -52						; size = 4
_i$ = -48						; size = 4
_pd$ = -44						; size = 4
_es$ = -40						; size = 4
_o$ = -36						; size = 4
_score$ = -32						; size = 4
_this$ = -28						; size = 4
_x$ = -24						; size = 2
_y$ = -20						; size = 2
_t$ = -13						; size = 1
__$EHRec$ = -12						; size = 12
?DoCalculations@GroundTaskingManagerClass@@UAEXXZ PROC	; GroundTaskingManagerClass::DoCalculations
; _this$ = ecx

; 165  : {

	push	ebp
	mov	ebp, esp
	push	-1
	push	__ehhandler$?DoCalculations@GroundTaskingManagerClass@@UAEXXZ
	mov	eax, DWORD PTR fs:0
	push	eax
	sub	esp, 56					; 00000038H
	push	esi
	mov	eax, DWORD PTR ___security_cookie
	xor	eax, ebp
	push	eax
	lea	eax, DWORD PTR __$EHRec$[ebp]
	mov	DWORD PTR fs:0, eax
	mov	DWORD PTR _this$[ebp], ecx

; 166  : 	Objective		o;
; 167  : 	int				score,fs,es,i;
; 168  : 	float			d;
; 169  : 	Team			t;
; 170  : 	GridIndex		x,y;
; 171  : 	POData			pd;
; 172  : 
; 173  : 	// Don't do this if we're not active, or not owned by this machine
; 174  : 	if (!(TeamInfo[owner]->flags & TEAM_ACTIVE) || !IsLocal())

	mov	eax, DWORD PTR _this$[ebp]
	movzx	ecx, BYTE PTR [eax+146]
	mov	edx, DWORD PTR ?TeamInfo@@3PAPAVTeamClass@@A[ecx*4]
	movsx	eax, WORD PTR [edx+350]
	and	eax, 1
	je	SHORT $LN20@DoCalculat
	mov	ecx, DWORD PTR _this$[ebp]
	call	?IsLocal@VuEntity@@QBEEXZ		; VuEntity::IsLocal
	movzx	ecx, al
	test	ecx, ecx
	jne	SHORT $LN21@DoCalculat
$LN20@DoCalculat:

; 175  : 		return;

	jmp	$LN22@DoCalculat
$LN21@DoCalculat:

; 176  : 
; 177  : 	topPriority = 0;

	xor	edx, edx
	mov	eax, DWORD PTR _this$[ebp]
	mov	WORD PTR [eax+248], dx

; 178  : 	VuListIterator	poit(POList);

	mov	ecx, DWORD PTR ?POList@@3PAVFalconPrivateOrderedList@@A ; POList
	push	ecx
	lea	ecx, DWORD PTR _poit$[ebp]
	call	??0VuListIterator@@QAE@PAVVuLinkedList@@@Z ; VuListIterator::VuListIterator
	mov	DWORD PTR __$EHRec$[ebp+8], 0

; 179  : 	o = GetFirstObjective(&poit);

	lea	edx, DWORD PTR _poit$[ebp]
	push	edx
	call	?GetFirstObjective@@YAPAVObjectiveClass@@PAVVuListIterator@@@Z ; GetFirstObjective
	add	esp, 4
	mov	DWORD PTR _o$[ebp], eax
$LN19@DoCalculat:

; 180  : 	while (o != NULL)

	cmp	DWORD PTR _o$[ebp], 0
	je	$LN18@DoCalculat

; 181  : 	{
; 182  : 		// Get score for proximity to front
; 183  : 		o->GetLocation(&x,&y);

	lea	eax, DWORD PTR _y$[ebp]
	push	eax
	lea	ecx, DWORD PTR _x$[ebp]
	push	ecx
	mov	ecx, DWORD PTR _o$[ebp]
	call	?GetLocation@FalconEntity@@QBEXPAF0@Z	; FalconEntity::GetLocation

; 184  : 		d = DistanceToFront(x,y);

	movzx	edx, WORD PTR _y$[ebp]
	push	edx
	movzx	eax, WORD PTR _x$[ebp]
	push	eax
	call	?DistanceToFront@@YAMFF@Z		; DistanceToFront
	add	esp, 8
	fstp	DWORD PTR _d$[ebp]

; 185  : 		fs = FloatToInt32((200.0F - d) * 0.2F);

	movss	xmm0, DWORD PTR __real@43480000
	subss	xmm0, DWORD PTR _d$[ebp]
	mulss	xmm0, DWORD PTR __real@3e4ccccd
	push	ecx
	movss	DWORD PTR [esp], xmm0
	call	?FloatToInt32@@YAHM@Z			; FloatToInt32
	add	esp, 4
	mov	DWORD PTR _fs$[ebp], eax

; 186  : 
; 187  : 		t = o->GetTeam();

	mov	ecx, DWORD PTR _o$[ebp]
	mov	edx, DWORD PTR [ecx]
	mov	ecx, DWORD PTR _o$[ebp]
	mov	eax, DWORD PTR [edx+116]
	call	eax
	mov	BYTE PTR _t$[ebp], al

; 188  : 		pd = GetPOData(o);

	mov	ecx, DWORD PTR _o$[ebp]
	push	ecx
	call	?GetPOData@@YAPAUPrimaryObjectiveData@@PAVObjectiveClass@@@Z ; GetPOData
	add	esp, 4
	mov	DWORD PTR _pd$[ebp], eax

; 189  : 		es = 0;

	mov	DWORD PTR _es$[ebp], 0

; 190  : 		// Get score for enemy strength
; 191  : 		if (d < 100.0F)

	movss	xmm0, DWORD PTR __real@42c80000
	comiss	xmm0, DWORD PTR _d$[ebp]
	jbe	$LN11@DoCalculat

; 192  : 		{
; 193  : 			for (i=1; i<NUM_TEAMS; i++)

	mov	DWORD PTR _i$[ebp], 1
	jmp	SHORT $LN16@DoCalculat
$LN15@DoCalculat:
	mov	edx, DWORD PTR _i$[ebp]
	add	edx, 1
	mov	DWORD PTR _i$[ebp], edx
$LN16@DoCalculat:
	cmp	DWORD PTR _i$[ebp], 8
	jge	SHORT $LN14@DoCalculat

; 194  : 			{
; 195  : 				if (GetRoE(owner,i,ROE_GROUND_FIRE))

	push	1
	movzx	eax, BYTE PTR _i$[ebp]
	push	eax
	mov	ecx, DWORD PTR _this$[ebp]
	movzx	edx, BYTE PTR [ecx+146]
	push	edx
	call	?GetRoE@@YAHEEH@Z			; GetRoE
	add	esp, 12					; 0000000cH
	test	eax, eax
	je	SHORT $LN13@DoCalculat

; 196  : 					es += pd->ground_assigned[i]/50;	// 1 assignment pt = 1 vehicle, so 1 enemy strength pt per 50 vehs..

	mov	eax, DWORD PTR _i$[ebp]
	mov	ecx, DWORD PTR _pd$[ebp]
	movsx	eax, WORD PTR [ecx+eax*2+24]
	cdq
	mov	ecx, 50					; 00000032H
	idiv	ecx
	add	eax, DWORD PTR _es$[ebp]
	mov	DWORD PTR _es$[ebp], eax
$LN13@DoCalculat:

; 197  : 			}

	jmp	SHORT $LN15@DoCalculat
$LN14@DoCalculat:

; 198  : 			if (es > 30)

	cmp	DWORD PTR _es$[ebp], 30			; 0000001eH
	jle	SHORT $LN12@DoCalculat

; 199  : 				es = 30;								// Cap enemy strength after 1500 vehicles

	mov	DWORD PTR _es$[ebp], 30			; 0000001eH
$LN12@DoCalculat:

; 200  : 			if (owner != t)

	mov	edx, DWORD PTR _this$[ebp]
	movzx	eax, BYTE PTR [edx+146]
	movzx	ecx, BYTE PTR _t$[ebp]
	cmp	eax, ecx
	je	SHORT $LN11@DoCalculat

; 201  : 				es = -es + (rand()%5) - 2;

	mov	esi, DWORD PTR _es$[ebp]
	neg	esi
	call	_rand
	cdq
	mov	ecx, 5
	idiv	ecx
	lea	edx, DWORD PTR [esi+edx-2]
	mov	DWORD PTR _es$[ebp], edx
$LN11@DoCalculat:

; 202  : 		}
; 203  : 
; 204  : 		score = fs + es + (rand()%5);

	mov	esi, DWORD PTR _fs$[ebp]
	add	esi, DWORD PTR _es$[ebp]
	call	_rand
	cdq
	mov	ecx, 5
	idiv	ecx
	add	esi, edx
	mov	DWORD PTR _score$[ebp], esi

; 205  : 		if (o->GetObjectivePriority() > 95)

	mov	ecx, DWORD PTR _o$[ebp]
	call	?GetObjectivePriority@ObjectiveClass@@QAEFXZ ; ObjectiveClass::GetObjectivePriority
	movsx	edx, ax
	cmp	edx, 95					; 0000005fH
	jle	SHORT $LN10@DoCalculat

; 206  : 			score += 50;

	mov	eax, DWORD PTR _score$[ebp]
	add	eax, 50					; 00000032H
	mov	DWORD PTR _score$[ebp], eax
$LN10@DoCalculat:

; 207  : 		if (o->GetObjectivePriority() > 90)

	mov	ecx, DWORD PTR _o$[ebp]
	call	?GetObjectivePriority@ObjectiveClass@@QAEFXZ ; ObjectiveClass::GetObjectivePriority
	movsx	ecx, ax
	cmp	ecx, 90					; 0000005aH
	jle	SHORT $LN9@DoCalculat

; 208  : 			score += 20;

	mov	edx, DWORD PTR _score$[ebp]
	add	edx, 20					; 00000014H
	mov	DWORD PTR _score$[ebp], edx

; 209  : 		else

	jmp	SHORT $LN8@DoCalculat
$LN9@DoCalculat:

; 210  : 			score += o->GetObjectivePriority() - 80;

	mov	ecx, DWORD PTR _o$[ebp]
	call	?GetObjectivePriority@ObjectiveClass@@QAEFXZ ; ObjectiveClass::GetObjectivePriority
	cwde
	mov	ecx, DWORD PTR _score$[ebp]
	lea	edx, DWORD PTR [ecx+eax-80]
	mov	DWORD PTR _score$[ebp], edx
$LN8@DoCalculat:

; 211  : 
; 212  : 		//		os = (o->GetObjectivePriority()-80)*3;
; 213  : 		//		score = os + fs + es + (rand()%5);
; 214  : 
; 215  : 		if (score < 0)

	cmp	DWORD PTR _score$[ebp], 0
	jge	SHORT $LN7@DoCalculat

; 216  : 			score = 0;

	mov	DWORD PTR _score$[ebp], 0
$LN7@DoCalculat:

; 217  : 		if (score > 100)

	cmp	DWORD PTR _score$[ebp], 100		; 00000064H
	jle	SHORT $LN6@DoCalculat

; 218  : 			score = 100;

	mov	DWORD PTR _score$[ebp], 100		; 00000064H
$LN6@DoCalculat:

; 219  : 		// Minimum of 1 priority if it's owned by us.
; 220  : 		if (!score && t == owner)

	cmp	DWORD PTR _score$[ebp], 0
	jne	SHORT $LN5@DoCalculat
	movzx	eax, BYTE PTR _t$[ebp]
	mov	ecx, DWORD PTR _this$[ebp]
	movzx	edx, BYTE PTR [ecx+146]
	cmp	eax, edx
	jne	SHORT $LN5@DoCalculat

; 221  : 			score = 1;

	mov	DWORD PTR _score$[ebp], 1
$LN5@DoCalculat:

; 222  : 
; 223  : 		// KCK: AI's air and ground priorities are identical for now
; 224  : 		if (!(pd->flags & GTMOBJ_SCRIPTED_PRIORITY))

	mov	eax, DWORD PTR _pd$[ebp]
	movzx	ecx, BYTE PTR [eax+72]
	and	ecx, 2
	jne	SHORT $LN4@DoCalculat

; 225  : 		{
; 226  : 			pd->ground_priority[owner] = score;

	mov	edx, DWORD PTR _this$[ebp]
	movzx	eax, BYTE PTR [edx+146]
	mov	ecx, DWORD PTR _pd$[ebp]
	mov	dx, WORD PTR _score$[ebp]
	mov	WORD PTR [ecx+eax*2+8], dx

; 227  : 			pd->air_priority[owner] = score;

	mov	eax, DWORD PTR _this$[ebp]
	movzx	ecx, BYTE PTR [eax+146]
	mov	edx, DWORD PTR _pd$[ebp]
	mov	ax, WORD PTR _score$[ebp]
	mov	WORD PTR [edx+ecx*2+40], ax
$LN4@DoCalculat:

; 228  : 			// KCK: player_priority only used now if it's >= 0
; 229  : 			//			if (!(pd->flags & GTMOBJ_PLAYER_SET_PRIORITY))
; 230  : 			//				pd->player_priority[owner] = pd->air_priority[owner];
; 231  : 		}
; 232  : 
; 233  : 		if (!GetRoE(owner,t,ROE_GROUND_CAPTURE) && owner != t)

	push	3
	movzx	ecx, BYTE PTR _t$[ebp]
	push	ecx
	mov	edx, DWORD PTR _this$[ebp]
	movzx	eax, BYTE PTR [edx+146]
	push	eax
	call	?GetRoE@@YAHEEH@Z			; GetRoE
	add	esp, 12					; 0000000cH
	test	eax, eax
	jne	SHORT $LN3@DoCalculat
	mov	ecx, DWORD PTR _this$[ebp]
	movzx	edx, BYTE PTR [ecx+146]
	movzx	eax, BYTE PTR _t$[ebp]
	cmp	edx, eax
	je	SHORT $LN3@DoCalculat

; 234  : 			pd->ground_priority[owner] = 0;

	mov	ecx, DWORD PTR _this$[ebp]
	movzx	edx, BYTE PTR [ecx+146]
	xor	eax, eax
	mov	ecx, DWORD PTR _pd$[ebp]
	mov	WORD PTR [ecx+edx*2+8], ax
$LN3@DoCalculat:

; 235  : 		if (!GetRoE(owner,t,ROE_AIR_ATTACK) && owner != t)

	push	8
	movzx	edx, BYTE PTR _t$[ebp]
	push	edx
	mov	eax, DWORD PTR _this$[ebp]
	movzx	ecx, BYTE PTR [eax+146]
	push	ecx
	call	?GetRoE@@YAHEEH@Z			; GetRoE
	add	esp, 12					; 0000000cH
	test	eax, eax
	jne	SHORT $LN2@DoCalculat
	mov	edx, DWORD PTR _this$[ebp]
	movzx	eax, BYTE PTR [edx+146]
	movzx	ecx, BYTE PTR _t$[ebp]
	cmp	eax, ecx
	je	SHORT $LN2@DoCalculat

; 236  : 			pd->air_priority[owner] = 0;

	mov	edx, DWORD PTR _this$[ebp]
	movzx	eax, BYTE PTR [edx+146]
	xor	ecx, ecx
	mov	edx, DWORD PTR _pd$[ebp]
	mov	WORD PTR [edx+eax*2+40], cx
$LN2@DoCalculat:

; 237  : 
; 238  : 		if (score > topPriority)

	mov	eax, DWORD PTR _this$[ebp]
	movsx	ecx, WORD PTR [eax+248]
	cmp	DWORD PTR _score$[ebp], ecx
	jle	SHORT $LN1@DoCalculat

; 239  : 		{
; 240  : 			topPriority = score;

	mov	edx, DWORD PTR _this$[ebp]
	mov	ax, WORD PTR _score$[ebp]
	mov	WORD PTR [edx+248], ax

; 241  : 			priorityObj = o->GetCampID();

	mov	ecx, DWORD PTR _o$[ebp]
	mov	edx, DWORD PTR [ecx]
	mov	ecx, DWORD PTR _o$[ebp]
	mov	eax, DWORD PTR [edx+112]
	call	eax
	mov	ecx, DWORD PTR _this$[ebp]
	mov	WORD PTR [ecx+250], ax
$LN1@DoCalculat:

; 242  : 		}
; 243  : 		o = GetNextObjective(&poit);

	lea	edx, DWORD PTR _poit$[ebp]
	push	edx
	call	?GetNextObjective@@YAPAVObjectiveClass@@PAVVuListIterator@@@Z ; GetNextObjective
	add	esp, 4
	mov	DWORD PTR _o$[ebp], eax

; 244  : 	}

	jmp	$LN19@DoCalculat
$LN18@DoCalculat:

; 245  : }

	mov	DWORD PTR __$EHRec$[ebp+8], -1
	lea	ecx, DWORD PTR _poit$[ebp]
	call	??1VuListIterator@@UAE@XZ		; VuListIterator::~VuListIterator
$LN22@DoCalculat:
	mov	ecx, DWORD PTR __$EHRec$[ebp]
	mov	DWORD PTR fs:0, ecx
	pop	ecx
	pop	esi
	mov	esp, ebp
	pop	ebp
	ret	0
_TEXT	ENDS
text$x	SEGMENT
__unwindfunclet$?DoCalculations@GroundTaskingManagerClass@@UAEXXZ$0:
	lea	ecx, DWORD PTR _poit$[ebp]
	jmp	??1VuListIterator@@UAE@XZ		; VuListIterator::~VuListIterator
__ehhandler$?DoCalculations@GroundTaskingManagerClass@@UAEXXZ:
	mov	edx, DWORD PTR [esp+8]
	lea	eax, DWORD PTR [edx+12]
	mov	ecx, DWORD PTR [edx-64]
	xor	ecx, eax
	call	@__security_check_cookie@4
	mov	eax, OFFSET __ehfuncinfo$?DoCalculations@GroundTaskingManagerClass@@UAEXXZ
	jmp	___CxxFrameHandler3
text$x	ENDS
?DoCalculations@GroundTaskingManagerClass@@UAEXXZ ENDP	; GroundTaskingManagerClass::DoCalculations
; Function compile flags: /Odtp
