; Listing generated by Microsoft (R) Optimizing Compiler Version 17.00.51106.1 

	TITLE	C:\Users\Zhitao Li\Documents\Visual Studio 2012\Projects\Freefalcon\CAMPAIGN\CAMPTASK\Squadron.cpp
	.686P
	.XMM
	include listing.inc
	.model	flat

INCLUDELIB LIBCMT
INCLUDELIB OLDNAMES

PUBLIC	?has_denorm@_Num_base@std@@2W4float_denorm_style@2@B ; std::_Num_base::has_denorm
PUBLIC	?has_denorm_loss@_Num_base@std@@2_NB		; std::_Num_base::has_denorm_loss
PUBLIC	?has_infinity@_Num_base@std@@2_NB		; std::_Num_base::has_infinity
PUBLIC	?has_quiet_NaN@_Num_base@std@@2_NB		; std::_Num_base::has_quiet_NaN
PUBLIC	?skipws@?$_Iosb@H@std@@2W4_Fmtflags@12@B	; std::_Iosb<int>::skipws
PUBLIC	?has_signaling_NaN@_Num_base@std@@2_NB		; std::_Num_base::has_signaling_NaN
PUBLIC	?unitbuf@?$_Iosb@H@std@@2W4_Fmtflags@12@B	; std::_Iosb<int>::unitbuf
PUBLIC	?is_bounded@_Num_base@std@@2_NB			; std::_Num_base::is_bounded
PUBLIC	?uppercase@?$_Iosb@H@std@@2W4_Fmtflags@12@B	; std::_Iosb<int>::uppercase
PUBLIC	?is_exact@_Num_base@std@@2_NB			; std::_Num_base::is_exact
PUBLIC	?showbase@?$_Iosb@H@std@@2W4_Fmtflags@12@B	; std::_Iosb<int>::showbase
PUBLIC	?is_iec559@_Num_base@std@@2_NB			; std::_Num_base::is_iec559
PUBLIC	?showpoint@?$_Iosb@H@std@@2W4_Fmtflags@12@B	; std::_Iosb<int>::showpoint
PUBLIC	?is_integer@_Num_base@std@@2_NB			; std::_Num_base::is_integer
PUBLIC	?showpos@?$_Iosb@H@std@@2W4_Fmtflags@12@B	; std::_Iosb<int>::showpos
PUBLIC	?is_modulo@_Num_base@std@@2_NB			; std::_Num_base::is_modulo
PUBLIC	?left@?$_Iosb@H@std@@2W4_Fmtflags@12@B		; std::_Iosb<int>::left
PUBLIC	?is_signed@_Num_base@std@@2_NB			; std::_Num_base::is_signed
PUBLIC	?right@?$_Iosb@H@std@@2W4_Fmtflags@12@B		; std::_Iosb<int>::right
PUBLIC	?is_specialized@_Num_base@std@@2_NB		; std::_Num_base::is_specialized
PUBLIC	?internal@?$_Iosb@H@std@@2W4_Fmtflags@12@B	; std::_Iosb<int>::internal
PUBLIC	?tinyness_before@_Num_base@std@@2_NB		; std::_Num_base::tinyness_before
PUBLIC	?dec@?$_Iosb@H@std@@2W4_Fmtflags@12@B		; std::_Iosb<int>::dec
PUBLIC	?traps@_Num_base@std@@2_NB			; std::_Num_base::traps
PUBLIC	?oct@?$_Iosb@H@std@@2W4_Fmtflags@12@B		; std::_Iosb<int>::oct
PUBLIC	?round_style@_Num_base@std@@2W4float_round_style@2@B ; std::_Num_base::round_style
PUBLIC	?hex@?$_Iosb@H@std@@2W4_Fmtflags@12@B		; std::_Iosb<int>::hex
PUBLIC	?digits@_Num_base@std@@2HB			; std::_Num_base::digits
PUBLIC	?scientific@?$_Iosb@H@std@@2W4_Fmtflags@12@B	; std::_Iosb<int>::scientific
PUBLIC	?digits10@_Num_base@std@@2HB			; std::_Num_base::digits10
PUBLIC	?fixed@?$_Iosb@H@std@@2W4_Fmtflags@12@B		; std::_Iosb<int>::fixed
PUBLIC	?max_digits10@_Num_base@std@@2HB		; std::_Num_base::max_digits10
PUBLIC	?hexfloat@?$_Iosb@H@std@@2W4_Fmtflags@12@B	; std::_Iosb<int>::hexfloat
PUBLIC	?max_exponent@_Num_base@std@@2HB		; std::_Num_base::max_exponent
PUBLIC	?boolalpha@?$_Iosb@H@std@@2W4_Fmtflags@12@B	; std::_Iosb<int>::boolalpha
PUBLIC	?max_exponent10@_Num_base@std@@2HB		; std::_Num_base::max_exponent10
PUBLIC	?_Stdio@?$_Iosb@H@std@@2W4_Fmtflags@12@B	; std::_Iosb<int>::_Stdio
PUBLIC	?min_exponent@_Num_base@std@@2HB		; std::_Num_base::min_exponent
PUBLIC	?adjustfield@?$_Iosb@H@std@@2W4_Fmtflags@12@B	; std::_Iosb<int>::adjustfield
PUBLIC	?min_exponent10@_Num_base@std@@2HB		; std::_Num_base::min_exponent10
PUBLIC	?basefield@?$_Iosb@H@std@@2W4_Fmtflags@12@B	; std::_Iosb<int>::basefield
PUBLIC	?radix@_Num_base@std@@2HB			; std::_Num_base::radix
PUBLIC	?floatfield@?$_Iosb@H@std@@2W4_Fmtflags@12@B	; std::_Iosb<int>::floatfield
PUBLIC	?goodbit@?$_Iosb@H@std@@2W4_Iostate@12@B	; std::_Iosb<int>::goodbit
PUBLIC	?eofbit@?$_Iosb@H@std@@2W4_Iostate@12@B		; std::_Iosb<int>::eofbit
PUBLIC	?failbit@?$_Iosb@H@std@@2W4_Iostate@12@B	; std::_Iosb<int>::failbit
PUBLIC	?badbit@?$_Iosb@H@std@@2W4_Iostate@12@B		; std::_Iosb<int>::badbit
PUBLIC	?_Hardfail@?$_Iosb@H@std@@2W4_Iostate@12@B	; std::_Iosb<int>::_Hardfail
PUBLIC	?in@?$_Iosb@H@std@@2W4_Openmode@12@B		; std::_Iosb<int>::in
PUBLIC	?out@?$_Iosb@H@std@@2W4_Openmode@12@B		; std::_Iosb<int>::out
PUBLIC	?ate@?$_Iosb@H@std@@2W4_Openmode@12@B		; std::_Iosb<int>::ate
PUBLIC	?is_bounded@_Num_int_base@std@@2_NB		; std::_Num_int_base::is_bounded
PUBLIC	?app@?$_Iosb@H@std@@2W4_Openmode@12@B		; std::_Iosb<int>::app
PUBLIC	?is_exact@_Num_int_base@std@@2_NB		; std::_Num_int_base::is_exact
PUBLIC	?trunc@?$_Iosb@H@std@@2W4_Openmode@12@B		; std::_Iosb<int>::trunc
PUBLIC	?is_integer@_Num_int_base@std@@2_NB		; std::_Num_int_base::is_integer
PUBLIC	?_Nocreate@?$_Iosb@H@std@@2W4_Openmode@12@B	; std::_Iosb<int>::_Nocreate
PUBLIC	?is_modulo@_Num_int_base@std@@2_NB		; std::_Num_int_base::is_modulo
PUBLIC	?_Noreplace@?$_Iosb@H@std@@2W4_Openmode@12@B	; std::_Iosb<int>::_Noreplace
PUBLIC	?is_specialized@_Num_int_base@std@@2_NB		; std::_Num_int_base::is_specialized
PUBLIC	?binary@?$_Iosb@H@std@@2W4_Openmode@12@B	; std::_Iosb<int>::binary
PUBLIC	?radix@_Num_int_base@std@@2HB			; std::_Num_int_base::radix
PUBLIC	?beg@?$_Iosb@H@std@@2W4_Seekdir@12@B		; std::_Iosb<int>::beg
PUBLIC	?cur@?$_Iosb@H@std@@2W4_Seekdir@12@B		; std::_Iosb<int>::cur
PUBLIC	?end@?$_Iosb@H@std@@2W4_Seekdir@12@B		; std::_Iosb<int>::end
PUBLIC	?has_denorm@_Num_float_base@std@@2W4float_denorm_style@2@B ; std::_Num_float_base::has_denorm
PUBLIC	?has_denorm_loss@_Num_float_base@std@@2_NB	; std::_Num_float_base::has_denorm_loss
PUBLIC	?SIMDIRTYDATA_INTERVAL@FalconEntity@@2KB	; FalconEntity::SIMDIRTYDATA_INTERVAL
PUBLIC	?CMPDIRTYDATA_INTERVAL@FalconEntity@@2KB	; FalconEntity::CMPDIRTYDATA_INTERVAL
PUBLIC	?has_infinity@_Num_float_base@std@@2_NB		; std::_Num_float_base::has_infinity
PUBLIC	?has_quiet_NaN@_Num_float_base@std@@2_NB	; std::_Num_float_base::has_quiet_NaN
PUBLIC	?has_signaling_NaN@_Num_float_base@std@@2_NB	; std::_Num_float_base::has_signaling_NaN
PUBLIC	?is_bounded@_Num_float_base@std@@2_NB		; std::_Num_float_base::is_bounded
PUBLIC	?is_exact@_Num_float_base@std@@2_NB		; std::_Num_float_base::is_exact
PUBLIC	?is_iec559@_Num_float_base@std@@2_NB		; std::_Num_float_base::is_iec559
PUBLIC	?is_integer@_Num_float_base@std@@2_NB		; std::_Num_float_base::is_integer
PUBLIC	?is_modulo@_Num_float_base@std@@2_NB		; std::_Num_float_base::is_modulo
PUBLIC	?_Stream_err@failure@ios_base@std@@0W4io_errc@43@B ; std::ios_base::failure::_Stream_err
PUBLIC	?is_signed@_Num_float_base@std@@2_NB		; std::_Num_float_base::is_signed
PUBLIC	?is_specialized@_Num_float_base@std@@2_NB	; std::_Num_float_base::is_specialized
PUBLIC	?tinyness_before@_Num_float_base@std@@2_NB	; std::_Num_float_base::tinyness_before
PUBLIC	?traps@_Num_float_base@std@@2_NB		; std::_Num_float_base::traps
PUBLIC	?round_style@_Num_float_base@std@@2W4float_round_style@2@B ; std::_Num_float_base::round_style
PUBLIC	?radix@_Num_float_base@std@@2HB			; std::_Num_float_base::radix
PUBLIC	?is_signed@?$numeric_limits@D@std@@2_NB		; std::numeric_limits<char>::is_signed
PUBLIC	?digits@?$numeric_limits@D@std@@2HB		; std::numeric_limits<char>::digits
PUBLIC	?digits10@?$numeric_limits@D@std@@2HB		; std::numeric_limits<char>::digits10
PUBLIC	?is_signed@?$numeric_limits@_W@std@@2_NB	; std::numeric_limits<wchar_t>::is_signed
PUBLIC	?digits@?$numeric_limits@_W@std@@2HB		; std::numeric_limits<wchar_t>::digits
PUBLIC	?digits10@?$numeric_limits@_W@std@@2HB		; std::numeric_limits<wchar_t>::digits10
PUBLIC	?is_modulo@?$numeric_limits@_N@std@@2_NB	; std::numeric_limits<bool>::is_modulo
PUBLIC	?is_signed@?$numeric_limits@_N@std@@2_NB	; std::numeric_limits<bool>::is_signed
PUBLIC	?digits@?$numeric_limits@_N@std@@2HB		; std::numeric_limits<bool>::digits
PUBLIC	?digits10@?$numeric_limits@_N@std@@2HB		; std::numeric_limits<bool>::digits10
PUBLIC	?is_signed@?$numeric_limits@C@std@@2_NB		; std::numeric_limits<signed char>::is_signed
PUBLIC	?digits@?$numeric_limits@C@std@@2HB		; std::numeric_limits<signed char>::digits
PUBLIC	?digits10@?$numeric_limits@C@std@@2HB		; std::numeric_limits<signed char>::digits10
PUBLIC	?is_signed@?$numeric_limits@E@std@@2_NB		; std::numeric_limits<unsigned char>::is_signed
PUBLIC	?digits@?$numeric_limits@E@std@@2HB		; std::numeric_limits<unsigned char>::digits
PUBLIC	?digits10@?$numeric_limits@E@std@@2HB		; std::numeric_limits<unsigned char>::digits10
PUBLIC	?is_signed@?$numeric_limits@F@std@@2_NB		; std::numeric_limits<short>::is_signed
PUBLIC	?digits@?$numeric_limits@F@std@@2HB		; std::numeric_limits<short>::digits
PUBLIC	?digits10@?$numeric_limits@F@std@@2HB		; std::numeric_limits<short>::digits10
PUBLIC	?is_signed@?$numeric_limits@G@std@@2_NB		; std::numeric_limits<unsigned short>::is_signed
PUBLIC	?value@?$integral_constant@_N$0A@@std@@2_NB	; std::integral_constant<bool,0>::value
PUBLIC	?digits@?$numeric_limits@G@std@@2HB		; std::numeric_limits<unsigned short>::digits
PUBLIC	?digits10@?$numeric_limits@G@std@@2HB		; std::numeric_limits<unsigned short>::digits10
PUBLIC	?value@?$integral_constant@_N$00@std@@2_NB	; std::integral_constant<bool,1>::value
PUBLIC	?collate@?$_Locbase@H@std@@2HB			; std::_Locbase<int>::collate
PUBLIC	?ctype@?$_Locbase@H@std@@2HB			; std::_Locbase<int>::ctype
PUBLIC	?monetary@?$_Locbase@H@std@@2HB			; std::_Locbase<int>::monetary
PUBLIC	?numeric@?$_Locbase@H@std@@2HB			; std::_Locbase<int>::numeric
PUBLIC	?is_signed@?$numeric_limits@H@std@@2_NB		; std::numeric_limits<int>::is_signed
PUBLIC	?time@?$_Locbase@H@std@@2HB			; std::_Locbase<int>::time
PUBLIC	?value@?$_Sizeof@HU_Nil@std@@U12@U12@U12@U12@U12@U12@@std@@2IB ; std::_Sizeof<int,std::_Nil,std::_Nil,std::_Nil,std::_Nil,std::_Nil,std::_Nil,std::_Nil>::value
PUBLIC	?messages@?$_Locbase@H@std@@2HB			; std::_Locbase<int>::messages
PUBLIC	?all@?$_Locbase@H@std@@2HB			; std::_Locbase<int>::all
PUBLIC	?digits@?$numeric_limits@H@std@@2HB		; std::numeric_limits<int>::digits
PUBLIC	?none@?$_Locbase@H@std@@2HB			; std::_Locbase<int>::none
PUBLIC	?digits10@?$numeric_limits@H@std@@2HB		; std::numeric_limits<int>::digits10
PUBLIC	?is_signed@?$numeric_limits@I@std@@2_NB		; std::numeric_limits<unsigned int>::is_signed
PUBLIC	?digits@?$numeric_limits@I@std@@2HB		; std::numeric_limits<unsigned int>::digits
PUBLIC	?digits10@?$numeric_limits@I@std@@2HB		; std::numeric_limits<unsigned int>::digits10
PUBLIC	?is_signed@?$numeric_limits@J@std@@2_NB		; std::numeric_limits<long>::is_signed
PUBLIC	?digits@?$numeric_limits@J@std@@2HB		; std::numeric_limits<long>::digits
PUBLIC	?digits10@?$numeric_limits@J@std@@2HB		; std::numeric_limits<long>::digits10
PUBLIC	?is_signed@?$numeric_limits@K@std@@2_NB		; std::numeric_limits<unsigned long>::is_signed
PUBLIC	?table_size@?$ctype@D@std@@2IB			; std::ctype<char>::table_size
PUBLIC	?digits@?$numeric_limits@K@std@@2HB		; std::numeric_limits<unsigned long>::digits
PUBLIC	?digits10@?$numeric_limits@K@std@@2HB		; std::numeric_limits<unsigned long>::digits10
PUBLIC	?is_signed@?$numeric_limits@_J@std@@2_NB	; std::numeric_limits<__int64>::is_signed
PUBLIC	?digits@?$numeric_limits@_J@std@@2HB		; std::numeric_limits<__int64>::digits
PUBLIC	?digits10@?$numeric_limits@_J@std@@2HB		; std::numeric_limits<__int64>::digits10
PUBLIC	?is_signed@?$numeric_limits@_K@std@@2_NB	; std::numeric_limits<unsigned __int64>::is_signed
PUBLIC	?digits@?$numeric_limits@_K@std@@2HB		; std::numeric_limits<unsigned __int64>::digits
PUBLIC	?digits10@?$numeric_limits@_K@std@@2HB		; std::numeric_limits<unsigned __int64>::digits10
PUBLIC	?digits@?$numeric_limits@M@std@@2HB		; std::numeric_limits<float>::digits
PUBLIC	?digits10@?$numeric_limits@M@std@@2HB		; std::numeric_limits<float>::digits10
PUBLIC	?max_digits10@?$numeric_limits@M@std@@2HB	; std::numeric_limits<float>::max_digits10
PUBLIC	?max_exponent@?$numeric_limits@M@std@@2HB	; std::numeric_limits<float>::max_exponent
PUBLIC	?max_exponent10@?$numeric_limits@M@std@@2HB	; std::numeric_limits<float>::max_exponent10
PUBLIC	?min_exponent@?$numeric_limits@M@std@@2HB	; std::numeric_limits<float>::min_exponent
PUBLIC	?min_exponent10@?$numeric_limits@M@std@@2HB	; std::numeric_limits<float>::min_exponent10
PUBLIC	?value@?$integral_constant@I$0A@@std@@2IB	; std::integral_constant<unsigned int,0>::value
PUBLIC	?digits@?$numeric_limits@N@std@@2HB		; std::numeric_limits<double>::digits
PUBLIC	?digits10@?$numeric_limits@N@std@@2HB		; std::numeric_limits<double>::digits10
PUBLIC	?max_digits10@?$numeric_limits@N@std@@2HB	; std::numeric_limits<double>::max_digits10
PUBLIC	?max_exponent@?$numeric_limits@N@std@@2HB	; std::numeric_limits<double>::max_exponent
PUBLIC	?max_exponent10@?$numeric_limits@N@std@@2HB	; std::numeric_limits<double>::max_exponent10
PUBLIC	?min_exponent@?$numeric_limits@N@std@@2HB	; std::numeric_limits<double>::min_exponent
PUBLIC	?min_exponent10@?$numeric_limits@N@std@@2HB	; std::numeric_limits<double>::min_exponent10
PUBLIC	?digits@?$numeric_limits@O@std@@2HB		; std::numeric_limits<long double>::digits
PUBLIC	?digits10@?$numeric_limits@O@std@@2HB		; std::numeric_limits<long double>::digits10
PUBLIC	?max_digits10@?$numeric_limits@O@std@@2HB	; std::numeric_limits<long double>::max_digits10
PUBLIC	?max_exponent@?$numeric_limits@O@std@@2HB	; std::numeric_limits<long double>::max_exponent
PUBLIC	?max_exponent10@?$numeric_limits@O@std@@2HB	; std::numeric_limits<long double>::max_exponent10
PUBLIC	?min_exponent@?$numeric_limits@O@std@@2HB	; std::numeric_limits<long double>::min_exponent
PUBLIC	?min_exponent10@?$numeric_limits@O@std@@2HB	; std::numeric_limits<long double>::min_exponent10
PUBLIC	?value@?$_Sizeof@U_Nil@std@@U12@U12@U12@U12@U12@U12@U12@@std@@2IB ; std::_Sizeof<std::_Nil,std::_Nil,std::_Nil,std::_Nil,std::_Nil,std::_Nil,std::_Nil,std::_Nil>::value
;	COMDAT ?value@?$_Sizeof@U_Nil@std@@U12@U12@U12@U12@U12@U12@U12@@std@@2IB
CONST	SEGMENT
?value@?$_Sizeof@U_Nil@std@@U12@U12@U12@U12@U12@U12@U12@@std@@2IB DD 00H ; std::_Sizeof<std::_Nil,std::_Nil,std::_Nil,std::_Nil,std::_Nil,std::_Nil,std::_Nil,std::_Nil>::value
CONST	ENDS
;	COMDAT ?min_exponent10@?$numeric_limits@O@std@@2HB
CONST	SEGMENT
?min_exponent10@?$numeric_limits@O@std@@2HB DD 0fffffecdH ; std::numeric_limits<long double>::min_exponent10
CONST	ENDS
;	COMDAT ?min_exponent@?$numeric_limits@O@std@@2HB
CONST	SEGMENT
?min_exponent@?$numeric_limits@O@std@@2HB DD 0fffffc03H	; std::numeric_limits<long double>::min_exponent
CONST	ENDS
;	COMDAT ?max_exponent10@?$numeric_limits@O@std@@2HB
CONST	SEGMENT
?max_exponent10@?$numeric_limits@O@std@@2HB DD 0134H	; std::numeric_limits<long double>::max_exponent10
CONST	ENDS
;	COMDAT ?max_exponent@?$numeric_limits@O@std@@2HB
CONST	SEGMENT
?max_exponent@?$numeric_limits@O@std@@2HB DD 0400H	; std::numeric_limits<long double>::max_exponent
CONST	ENDS
;	COMDAT ?max_digits10@?$numeric_limits@O@std@@2HB
CONST	SEGMENT
?max_digits10@?$numeric_limits@O@std@@2HB DD 011H	; std::numeric_limits<long double>::max_digits10
CONST	ENDS
;	COMDAT ?digits10@?$numeric_limits@O@std@@2HB
CONST	SEGMENT
?digits10@?$numeric_limits@O@std@@2HB DD 0fH		; std::numeric_limits<long double>::digits10
CONST	ENDS
;	COMDAT ?digits@?$numeric_limits@O@std@@2HB
CONST	SEGMENT
?digits@?$numeric_limits@O@std@@2HB DD 035H		; std::numeric_limits<long double>::digits
CONST	ENDS
;	COMDAT ?min_exponent10@?$numeric_limits@N@std@@2HB
CONST	SEGMENT
?min_exponent10@?$numeric_limits@N@std@@2HB DD 0fffffecdH ; std::numeric_limits<double>::min_exponent10
CONST	ENDS
;	COMDAT ?min_exponent@?$numeric_limits@N@std@@2HB
CONST	SEGMENT
?min_exponent@?$numeric_limits@N@std@@2HB DD 0fffffc03H	; std::numeric_limits<double>::min_exponent
CONST	ENDS
;	COMDAT ?max_exponent10@?$numeric_limits@N@std@@2HB
CONST	SEGMENT
?max_exponent10@?$numeric_limits@N@std@@2HB DD 0134H	; std::numeric_limits<double>::max_exponent10
CONST	ENDS
;	COMDAT ?max_exponent@?$numeric_limits@N@std@@2HB
CONST	SEGMENT
?max_exponent@?$numeric_limits@N@std@@2HB DD 0400H	; std::numeric_limits<double>::max_exponent
CONST	ENDS
;	COMDAT ?max_digits10@?$numeric_limits@N@std@@2HB
CONST	SEGMENT
?max_digits10@?$numeric_limits@N@std@@2HB DD 011H	; std::numeric_limits<double>::max_digits10
CONST	ENDS
;	COMDAT ?digits10@?$numeric_limits@N@std@@2HB
CONST	SEGMENT
?digits10@?$numeric_limits@N@std@@2HB DD 0fH		; std::numeric_limits<double>::digits10
CONST	ENDS
;	COMDAT ?digits@?$numeric_limits@N@std@@2HB
CONST	SEGMENT
?digits@?$numeric_limits@N@std@@2HB DD 035H		; std::numeric_limits<double>::digits
CONST	ENDS
;	COMDAT ?value@?$integral_constant@I$0A@@std@@2IB
CONST	SEGMENT
?value@?$integral_constant@I$0A@@std@@2IB DD 00H	; std::integral_constant<unsigned int,0>::value
CONST	ENDS
;	COMDAT ?min_exponent10@?$numeric_limits@M@std@@2HB
CONST	SEGMENT
?min_exponent10@?$numeric_limits@M@std@@2HB DD 0ffffffdbH ; std::numeric_limits<float>::min_exponent10
CONST	ENDS
;	COMDAT ?min_exponent@?$numeric_limits@M@std@@2HB
CONST	SEGMENT
?min_exponent@?$numeric_limits@M@std@@2HB DD 0ffffff83H	; std::numeric_limits<float>::min_exponent
CONST	ENDS
;	COMDAT ?max_exponent10@?$numeric_limits@M@std@@2HB
CONST	SEGMENT
?max_exponent10@?$numeric_limits@M@std@@2HB DD 026H	; std::numeric_limits<float>::max_exponent10
CONST	ENDS
;	COMDAT ?max_exponent@?$numeric_limits@M@std@@2HB
CONST	SEGMENT
?max_exponent@?$numeric_limits@M@std@@2HB DD 080H	; std::numeric_limits<float>::max_exponent
CONST	ENDS
;	COMDAT ?max_digits10@?$numeric_limits@M@std@@2HB
CONST	SEGMENT
?max_digits10@?$numeric_limits@M@std@@2HB DD 09H	; std::numeric_limits<float>::max_digits10
CONST	ENDS
;	COMDAT ?digits10@?$numeric_limits@M@std@@2HB
CONST	SEGMENT
?digits10@?$numeric_limits@M@std@@2HB DD 06H		; std::numeric_limits<float>::digits10
CONST	ENDS
;	COMDAT ?digits@?$numeric_limits@M@std@@2HB
CONST	SEGMENT
?digits@?$numeric_limits@M@std@@2HB DD 018H		; std::numeric_limits<float>::digits
CONST	ENDS
;	COMDAT ?digits10@?$numeric_limits@_K@std@@2HB
CONST	SEGMENT
?digits10@?$numeric_limits@_K@std@@2HB DD 013H		; std::numeric_limits<unsigned __int64>::digits10
CONST	ENDS
;	COMDAT ?digits@?$numeric_limits@_K@std@@2HB
CONST	SEGMENT
?digits@?$numeric_limits@_K@std@@2HB DD 040H		; std::numeric_limits<unsigned __int64>::digits
CONST	ENDS
;	COMDAT ?is_signed@?$numeric_limits@_K@std@@2_NB
CONST	SEGMENT
?is_signed@?$numeric_limits@_K@std@@2_NB DB 00H		; std::numeric_limits<unsigned __int64>::is_signed
CONST	ENDS
;	COMDAT ?digits10@?$numeric_limits@_J@std@@2HB
CONST	SEGMENT
?digits10@?$numeric_limits@_J@std@@2HB DD 012H		; std::numeric_limits<__int64>::digits10
CONST	ENDS
;	COMDAT ?digits@?$numeric_limits@_J@std@@2HB
CONST	SEGMENT
?digits@?$numeric_limits@_J@std@@2HB DD 03fH		; std::numeric_limits<__int64>::digits
CONST	ENDS
;	COMDAT ?is_signed@?$numeric_limits@_J@std@@2_NB
CONST	SEGMENT
?is_signed@?$numeric_limits@_J@std@@2_NB DB 01H		; std::numeric_limits<__int64>::is_signed
CONST	ENDS
;	COMDAT ?digits10@?$numeric_limits@K@std@@2HB
CONST	SEGMENT
?digits10@?$numeric_limits@K@std@@2HB DD 09H		; std::numeric_limits<unsigned long>::digits10
CONST	ENDS
;	COMDAT ?digits@?$numeric_limits@K@std@@2HB
CONST	SEGMENT
?digits@?$numeric_limits@K@std@@2HB DD 020H		; std::numeric_limits<unsigned long>::digits
CONST	ENDS
;	COMDAT ?table_size@?$ctype@D@std@@2IB
CONST	SEGMENT
?table_size@?$ctype@D@std@@2IB DD 0100H			; std::ctype<char>::table_size
CONST	ENDS
;	COMDAT ?is_signed@?$numeric_limits@K@std@@2_NB
CONST	SEGMENT
?is_signed@?$numeric_limits@K@std@@2_NB DB 00H		; std::numeric_limits<unsigned long>::is_signed
CONST	ENDS
;	COMDAT ?digits10@?$numeric_limits@J@std@@2HB
CONST	SEGMENT
?digits10@?$numeric_limits@J@std@@2HB DD 09H		; std::numeric_limits<long>::digits10
CONST	ENDS
;	COMDAT ?digits@?$numeric_limits@J@std@@2HB
CONST	SEGMENT
?digits@?$numeric_limits@J@std@@2HB DD 01fH		; std::numeric_limits<long>::digits
CONST	ENDS
;	COMDAT ?is_signed@?$numeric_limits@J@std@@2_NB
CONST	SEGMENT
?is_signed@?$numeric_limits@J@std@@2_NB DB 01H		; std::numeric_limits<long>::is_signed
CONST	ENDS
;	COMDAT ?digits10@?$numeric_limits@I@std@@2HB
CONST	SEGMENT
?digits10@?$numeric_limits@I@std@@2HB DD 09H		; std::numeric_limits<unsigned int>::digits10
CONST	ENDS
;	COMDAT ?digits@?$numeric_limits@I@std@@2HB
CONST	SEGMENT
?digits@?$numeric_limits@I@std@@2HB DD 020H		; std::numeric_limits<unsigned int>::digits
CONST	ENDS
;	COMDAT ?is_signed@?$numeric_limits@I@std@@2_NB
CONST	SEGMENT
?is_signed@?$numeric_limits@I@std@@2_NB DB 00H		; std::numeric_limits<unsigned int>::is_signed
CONST	ENDS
;	COMDAT ?digits10@?$numeric_limits@H@std@@2HB
CONST	SEGMENT
?digits10@?$numeric_limits@H@std@@2HB DD 09H		; std::numeric_limits<int>::digits10
CONST	ENDS
;	COMDAT ?none@?$_Locbase@H@std@@2HB
CONST	SEGMENT
?none@?$_Locbase@H@std@@2HB DD 00H			; std::_Locbase<int>::none
CONST	ENDS
;	COMDAT ?digits@?$numeric_limits@H@std@@2HB
CONST	SEGMENT
?digits@?$numeric_limits@H@std@@2HB DD 01fH		; std::numeric_limits<int>::digits
CONST	ENDS
;	COMDAT ?all@?$_Locbase@H@std@@2HB
CONST	SEGMENT
?all@?$_Locbase@H@std@@2HB DD 03fH			; std::_Locbase<int>::all
CONST	ENDS
;	COMDAT ?messages@?$_Locbase@H@std@@2HB
CONST	SEGMENT
?messages@?$_Locbase@H@std@@2HB DD 020H			; std::_Locbase<int>::messages
CONST	ENDS
;	COMDAT ?value@?$_Sizeof@HU_Nil@std@@U12@U12@U12@U12@U12@U12@@std@@2IB
CONST	SEGMENT
?value@?$_Sizeof@HU_Nil@std@@U12@U12@U12@U12@U12@U12@@std@@2IB DD 01H ; std::_Sizeof<int,std::_Nil,std::_Nil,std::_Nil,std::_Nil,std::_Nil,std::_Nil,std::_Nil>::value
CONST	ENDS
;	COMDAT ?time@?$_Locbase@H@std@@2HB
CONST	SEGMENT
?time@?$_Locbase@H@std@@2HB DD 010H			; std::_Locbase<int>::time
CONST	ENDS
;	COMDAT ?is_signed@?$numeric_limits@H@std@@2_NB
CONST	SEGMENT
?is_signed@?$numeric_limits@H@std@@2_NB DB 01H		; std::numeric_limits<int>::is_signed
CONST	ENDS
;	COMDAT ?numeric@?$_Locbase@H@std@@2HB
CONST	SEGMENT
?numeric@?$_Locbase@H@std@@2HB DD 08H			; std::_Locbase<int>::numeric
CONST	ENDS
;	COMDAT ?monetary@?$_Locbase@H@std@@2HB
CONST	SEGMENT
?monetary@?$_Locbase@H@std@@2HB DD 04H			; std::_Locbase<int>::monetary
CONST	ENDS
;	COMDAT ?ctype@?$_Locbase@H@std@@2HB
CONST	SEGMENT
?ctype@?$_Locbase@H@std@@2HB DD 02H			; std::_Locbase<int>::ctype
CONST	ENDS
;	COMDAT ?collate@?$_Locbase@H@std@@2HB
CONST	SEGMENT
?collate@?$_Locbase@H@std@@2HB DD 01H			; std::_Locbase<int>::collate
CONST	ENDS
;	COMDAT ?value@?$integral_constant@_N$00@std@@2_NB
CONST	SEGMENT
?value@?$integral_constant@_N$00@std@@2_NB DB 01H	; std::integral_constant<bool,1>::value
CONST	ENDS
;	COMDAT ?digits10@?$numeric_limits@G@std@@2HB
CONST	SEGMENT
?digits10@?$numeric_limits@G@std@@2HB DD 04H		; std::numeric_limits<unsigned short>::digits10
CONST	ENDS
;	COMDAT ?digits@?$numeric_limits@G@std@@2HB
CONST	SEGMENT
?digits@?$numeric_limits@G@std@@2HB DD 010H		; std::numeric_limits<unsigned short>::digits
CONST	ENDS
;	COMDAT ?value@?$integral_constant@_N$0A@@std@@2_NB
CONST	SEGMENT
?value@?$integral_constant@_N$0A@@std@@2_NB DB 00H	; std::integral_constant<bool,0>::value
CONST	ENDS
;	COMDAT ?is_signed@?$numeric_limits@G@std@@2_NB
CONST	SEGMENT
?is_signed@?$numeric_limits@G@std@@2_NB DB 00H		; std::numeric_limits<unsigned short>::is_signed
CONST	ENDS
;	COMDAT ?digits10@?$numeric_limits@F@std@@2HB
CONST	SEGMENT
?digits10@?$numeric_limits@F@std@@2HB DD 04H		; std::numeric_limits<short>::digits10
CONST	ENDS
;	COMDAT ?digits@?$numeric_limits@F@std@@2HB
CONST	SEGMENT
?digits@?$numeric_limits@F@std@@2HB DD 0fH		; std::numeric_limits<short>::digits
CONST	ENDS
;	COMDAT ?is_signed@?$numeric_limits@F@std@@2_NB
CONST	SEGMENT
?is_signed@?$numeric_limits@F@std@@2_NB DB 01H		; std::numeric_limits<short>::is_signed
CONST	ENDS
CONST	SEGMENT
_L_2	DD	03f317218r			; 0.693147
CONST	ENDS
;	COMDAT ?digits10@?$numeric_limits@E@std@@2HB
CONST	SEGMENT
?digits10@?$numeric_limits@E@std@@2HB DD 02H		; std::numeric_limits<unsigned char>::digits10
CONST	ENDS
;	COMDAT ?digits@?$numeric_limits@E@std@@2HB
CONST	SEGMENT
?digits@?$numeric_limits@E@std@@2HB DD 08H		; std::numeric_limits<unsigned char>::digits
CONST	ENDS
;	COMDAT ?is_signed@?$numeric_limits@E@std@@2_NB
CONST	SEGMENT
?is_signed@?$numeric_limits@E@std@@2_NB DB 00H		; std::numeric_limits<unsigned char>::is_signed
CONST	ENDS
;	COMDAT ?digits10@?$numeric_limits@C@std@@2HB
CONST	SEGMENT
?digits10@?$numeric_limits@C@std@@2HB DD 02H		; std::numeric_limits<signed char>::digits10
CONST	ENDS
;	COMDAT ?digits@?$numeric_limits@C@std@@2HB
CONST	SEGMENT
?digits@?$numeric_limits@C@std@@2HB DD 07H		; std::numeric_limits<signed char>::digits
CONST	ENDS
;	COMDAT ?is_signed@?$numeric_limits@C@std@@2_NB
CONST	SEGMENT
?is_signed@?$numeric_limits@C@std@@2_NB DB 01H		; std::numeric_limits<signed char>::is_signed
CONST	ENDS
;	COMDAT ?digits10@?$numeric_limits@_N@std@@2HB
CONST	SEGMENT
?digits10@?$numeric_limits@_N@std@@2HB DD 00H		; std::numeric_limits<bool>::digits10
CONST	ENDS
;	COMDAT ?digits@?$numeric_limits@_N@std@@2HB
CONST	SEGMENT
?digits@?$numeric_limits@_N@std@@2HB DD 01H		; std::numeric_limits<bool>::digits
CONST	ENDS
;	COMDAT ?is_signed@?$numeric_limits@_N@std@@2_NB
CONST	SEGMENT
?is_signed@?$numeric_limits@_N@std@@2_NB DB 00H		; std::numeric_limits<bool>::is_signed
CONST	ENDS
;	COMDAT ?is_modulo@?$numeric_limits@_N@std@@2_NB
CONST	SEGMENT
?is_modulo@?$numeric_limits@_N@std@@2_NB DB 00H		; std::numeric_limits<bool>::is_modulo
CONST	ENDS
;	COMDAT ?digits10@?$numeric_limits@_W@std@@2HB
CONST	SEGMENT
?digits10@?$numeric_limits@_W@std@@2HB DD 04H		; std::numeric_limits<wchar_t>::digits10
CONST	ENDS
;	COMDAT ?digits@?$numeric_limits@_W@std@@2HB
CONST	SEGMENT
?digits@?$numeric_limits@_W@std@@2HB DD 010H		; std::numeric_limits<wchar_t>::digits
CONST	ENDS
;	COMDAT ?is_signed@?$numeric_limits@_W@std@@2_NB
CONST	SEGMENT
?is_signed@?$numeric_limits@_W@std@@2_NB DB 00H		; std::numeric_limits<wchar_t>::is_signed
CONST	ENDS
;	COMDAT ?digits10@?$numeric_limits@D@std@@2HB
CONST	SEGMENT
?digits10@?$numeric_limits@D@std@@2HB DD 02H		; std::numeric_limits<char>::digits10
CONST	ENDS
;	COMDAT ?digits@?$numeric_limits@D@std@@2HB
CONST	SEGMENT
?digits@?$numeric_limits@D@std@@2HB DD 07H		; std::numeric_limits<char>::digits
CONST	ENDS
;	COMDAT ?is_signed@?$numeric_limits@D@std@@2_NB
CONST	SEGMENT
?is_signed@?$numeric_limits@D@std@@2_NB DB 01H		; std::numeric_limits<char>::is_signed
CONST	ENDS
;	COMDAT ?radix@_Num_float_base@std@@2HB
CONST	SEGMENT
?radix@_Num_float_base@std@@2HB DD 02H			; std::_Num_float_base::radix
CONST	ENDS
;	COMDAT ?round_style@_Num_float_base@std@@2W4float_round_style@2@B
CONST	SEGMENT
?round_style@_Num_float_base@std@@2W4float_round_style@2@B DD 01H ; std::_Num_float_base::round_style
CONST	ENDS
;	COMDAT ?traps@_Num_float_base@std@@2_NB
CONST	SEGMENT
?traps@_Num_float_base@std@@2_NB DB 00H			; std::_Num_float_base::traps
CONST	ENDS
;	COMDAT ?tinyness_before@_Num_float_base@std@@2_NB
CONST	SEGMENT
?tinyness_before@_Num_float_base@std@@2_NB DB 01H	; std::_Num_float_base::tinyness_before
CONST	ENDS
;	COMDAT ?is_specialized@_Num_float_base@std@@2_NB
CONST	SEGMENT
?is_specialized@_Num_float_base@std@@2_NB DB 01H	; std::_Num_float_base::is_specialized
CONST	ENDS
;	COMDAT ?is_signed@_Num_float_base@std@@2_NB
CONST	SEGMENT
?is_signed@_Num_float_base@std@@2_NB DB 01H		; std::_Num_float_base::is_signed
CONST	ENDS
;	COMDAT ?_Stream_err@failure@ios_base@std@@0W4io_errc@43@B
CONST	SEGMENT
?_Stream_err@failure@ios_base@std@@0W4io_errc@43@B DD 01H ; std::ios_base::failure::_Stream_err
CONST	ENDS
;	COMDAT ?is_modulo@_Num_float_base@std@@2_NB
CONST	SEGMENT
?is_modulo@_Num_float_base@std@@2_NB DB 00H		; std::_Num_float_base::is_modulo
CONST	ENDS
;	COMDAT ?is_integer@_Num_float_base@std@@2_NB
CONST	SEGMENT
?is_integer@_Num_float_base@std@@2_NB DB 00H		; std::_Num_float_base::is_integer
CONST	ENDS
;	COMDAT ?is_iec559@_Num_float_base@std@@2_NB
CONST	SEGMENT
?is_iec559@_Num_float_base@std@@2_NB DB 01H		; std::_Num_float_base::is_iec559
CONST	ENDS
;	COMDAT ?is_exact@_Num_float_base@std@@2_NB
CONST	SEGMENT
?is_exact@_Num_float_base@std@@2_NB DB 00H		; std::_Num_float_base::is_exact
CONST	ENDS
;	COMDAT ?is_bounded@_Num_float_base@std@@2_NB
CONST	SEGMENT
?is_bounded@_Num_float_base@std@@2_NB DB 01H		; std::_Num_float_base::is_bounded
CONST	ENDS
;	COMDAT ?has_signaling_NaN@_Num_float_base@std@@2_NB
CONST	SEGMENT
?has_signaling_NaN@_Num_float_base@std@@2_NB DB 01H	; std::_Num_float_base::has_signaling_NaN
CONST	ENDS
;	COMDAT ?has_quiet_NaN@_Num_float_base@std@@2_NB
CONST	SEGMENT
?has_quiet_NaN@_Num_float_base@std@@2_NB DB 01H		; std::_Num_float_base::has_quiet_NaN
CONST	ENDS
;	COMDAT ?has_infinity@_Num_float_base@std@@2_NB
CONST	SEGMENT
?has_infinity@_Num_float_base@std@@2_NB DB 01H		; std::_Num_float_base::has_infinity
CONST	ENDS
;	COMDAT ?CMPDIRTYDATA_INTERVAL@FalconEntity@@2KB
CONST	SEGMENT
?CMPDIRTYDATA_INTERVAL@FalconEntity@@2KB DD 0c8H	; FalconEntity::CMPDIRTYDATA_INTERVAL
CONST	ENDS
;	COMDAT ?SIMDIRTYDATA_INTERVAL@FalconEntity@@2KB
CONST	SEGMENT
?SIMDIRTYDATA_INTERVAL@FalconEntity@@2KB DD 0c8H	; FalconEntity::SIMDIRTYDATA_INTERVAL
CONST	ENDS
;	COMDAT ?has_denorm_loss@_Num_float_base@std@@2_NB
CONST	SEGMENT
?has_denorm_loss@_Num_float_base@std@@2_NB DB 01H	; std::_Num_float_base::has_denorm_loss
CONST	ENDS
;	COMDAT ?has_denorm@_Num_float_base@std@@2W4float_denorm_style@2@B
CONST	SEGMENT
?has_denorm@_Num_float_base@std@@2W4float_denorm_style@2@B DD 01H ; std::_Num_float_base::has_denorm
CONST	ENDS
;	COMDAT ?end@?$_Iosb@H@std@@2W4_Seekdir@12@B
CONST	SEGMENT
?end@?$_Iosb@H@std@@2W4_Seekdir@12@B DD 02H		; std::_Iosb<int>::end
CONST	ENDS
;	COMDAT ?cur@?$_Iosb@H@std@@2W4_Seekdir@12@B
CONST	SEGMENT
?cur@?$_Iosb@H@std@@2W4_Seekdir@12@B DD 01H		; std::_Iosb<int>::cur
CONST	ENDS
;	COMDAT ?beg@?$_Iosb@H@std@@2W4_Seekdir@12@B
CONST	SEGMENT
?beg@?$_Iosb@H@std@@2W4_Seekdir@12@B DD 00H		; std::_Iosb<int>::beg
CONST	ENDS
;	COMDAT ?radix@_Num_int_base@std@@2HB
CONST	SEGMENT
?radix@_Num_int_base@std@@2HB DD 02H			; std::_Num_int_base::radix
CONST	ENDS
;	COMDAT ?binary@?$_Iosb@H@std@@2W4_Openmode@12@B
CONST	SEGMENT
?binary@?$_Iosb@H@std@@2W4_Openmode@12@B DD 020H	; std::_Iosb<int>::binary
CONST	ENDS
;	COMDAT ?is_specialized@_Num_int_base@std@@2_NB
CONST	SEGMENT
?is_specialized@_Num_int_base@std@@2_NB DB 01H		; std::_Num_int_base::is_specialized
CONST	ENDS
;	COMDAT ?_Noreplace@?$_Iosb@H@std@@2W4_Openmode@12@B
CONST	SEGMENT
?_Noreplace@?$_Iosb@H@std@@2W4_Openmode@12@B DD 080H	; std::_Iosb<int>::_Noreplace
CONST	ENDS
;	COMDAT ?is_modulo@_Num_int_base@std@@2_NB
CONST	SEGMENT
?is_modulo@_Num_int_base@std@@2_NB DB 01H		; std::_Num_int_base::is_modulo
CONST	ENDS
;	COMDAT ?_Nocreate@?$_Iosb@H@std@@2W4_Openmode@12@B
CONST	SEGMENT
?_Nocreate@?$_Iosb@H@std@@2W4_Openmode@12@B DD 040H	; std::_Iosb<int>::_Nocreate
CONST	ENDS
;	COMDAT ?is_integer@_Num_int_base@std@@2_NB
CONST	SEGMENT
?is_integer@_Num_int_base@std@@2_NB DB 01H		; std::_Num_int_base::is_integer
CONST	ENDS
;	COMDAT ?trunc@?$_Iosb@H@std@@2W4_Openmode@12@B
CONST	SEGMENT
?trunc@?$_Iosb@H@std@@2W4_Openmode@12@B DD 010H		; std::_Iosb<int>::trunc
CONST	ENDS
;	COMDAT ?is_exact@_Num_int_base@std@@2_NB
CONST	SEGMENT
?is_exact@_Num_int_base@std@@2_NB DB 01H		; std::_Num_int_base::is_exact
CONST	ENDS
;	COMDAT ?app@?$_Iosb@H@std@@2W4_Openmode@12@B
CONST	SEGMENT
?app@?$_Iosb@H@std@@2W4_Openmode@12@B DD 08H		; std::_Iosb<int>::app
CONST	ENDS
;	COMDAT ?is_bounded@_Num_int_base@std@@2_NB
CONST	SEGMENT
?is_bounded@_Num_int_base@std@@2_NB DB 01H		; std::_Num_int_base::is_bounded
CONST	ENDS
;	COMDAT ?ate@?$_Iosb@H@std@@2W4_Openmode@12@B
CONST	SEGMENT
?ate@?$_Iosb@H@std@@2W4_Openmode@12@B DD 04H		; std::_Iosb<int>::ate
CONST	ENDS
;	COMDAT ?out@?$_Iosb@H@std@@2W4_Openmode@12@B
CONST	SEGMENT
?out@?$_Iosb@H@std@@2W4_Openmode@12@B DD 02H		; std::_Iosb<int>::out
CONST	ENDS
;	COMDAT ?in@?$_Iosb@H@std@@2W4_Openmode@12@B
CONST	SEGMENT
?in@?$_Iosb@H@std@@2W4_Openmode@12@B DD 01H		; std::_Iosb<int>::in
CONST	ENDS
;	COMDAT ?_Hardfail@?$_Iosb@H@std@@2W4_Iostate@12@B
CONST	SEGMENT
?_Hardfail@?$_Iosb@H@std@@2W4_Iostate@12@B DD 010H	; std::_Iosb<int>::_Hardfail
CONST	ENDS
;	COMDAT ?badbit@?$_Iosb@H@std@@2W4_Iostate@12@B
CONST	SEGMENT
?badbit@?$_Iosb@H@std@@2W4_Iostate@12@B DD 04H		; std::_Iosb<int>::badbit
CONST	ENDS
;	COMDAT ?failbit@?$_Iosb@H@std@@2W4_Iostate@12@B
CONST	SEGMENT
?failbit@?$_Iosb@H@std@@2W4_Iostate@12@B DD 02H		; std::_Iosb<int>::failbit
CONST	ENDS
;	COMDAT ?eofbit@?$_Iosb@H@std@@2W4_Iostate@12@B
CONST	SEGMENT
?eofbit@?$_Iosb@H@std@@2W4_Iostate@12@B DD 01H		; std::_Iosb<int>::eofbit
CONST	ENDS
;	COMDAT ?goodbit@?$_Iosb@H@std@@2W4_Iostate@12@B
CONST	SEGMENT
?goodbit@?$_Iosb@H@std@@2W4_Iostate@12@B DD 00H		; std::_Iosb<int>::goodbit
CONST	ENDS
;	COMDAT ?floatfield@?$_Iosb@H@std@@2W4_Fmtflags@12@B
CONST	SEGMENT
?floatfield@?$_Iosb@H@std@@2W4_Fmtflags@12@B DD 03000H	; std::_Iosb<int>::floatfield
CONST	ENDS
;	COMDAT ?radix@_Num_base@std@@2HB
CONST	SEGMENT
?radix@_Num_base@std@@2HB DD 00H			; std::_Num_base::radix
CONST	ENDS
;	COMDAT ?basefield@?$_Iosb@H@std@@2W4_Fmtflags@12@B
CONST	SEGMENT
?basefield@?$_Iosb@H@std@@2W4_Fmtflags@12@B DD 0e00H	; std::_Iosb<int>::basefield
CONST	ENDS
;	COMDAT ?min_exponent10@_Num_base@std@@2HB
CONST	SEGMENT
?min_exponent10@_Num_base@std@@2HB DD 00H		; std::_Num_base::min_exponent10
CONST	ENDS
;	COMDAT ?adjustfield@?$_Iosb@H@std@@2W4_Fmtflags@12@B
CONST	SEGMENT
?adjustfield@?$_Iosb@H@std@@2W4_Fmtflags@12@B DD 01c0H	; std::_Iosb<int>::adjustfield
CONST	ENDS
;	COMDAT ?min_exponent@_Num_base@std@@2HB
CONST	SEGMENT
?min_exponent@_Num_base@std@@2HB DD 00H			; std::_Num_base::min_exponent
CONST	ENDS
;	COMDAT ?_Stdio@?$_Iosb@H@std@@2W4_Fmtflags@12@B
CONST	SEGMENT
?_Stdio@?$_Iosb@H@std@@2W4_Fmtflags@12@B DD 08000H	; std::_Iosb<int>::_Stdio
CONST	ENDS
;	COMDAT ?max_exponent10@_Num_base@std@@2HB
CONST	SEGMENT
?max_exponent10@_Num_base@std@@2HB DD 00H		; std::_Num_base::max_exponent10
CONST	ENDS
;	COMDAT ?boolalpha@?$_Iosb@H@std@@2W4_Fmtflags@12@B
CONST	SEGMENT
?boolalpha@?$_Iosb@H@std@@2W4_Fmtflags@12@B DD 04000H	; std::_Iosb<int>::boolalpha
CONST	ENDS
;	COMDAT ?max_exponent@_Num_base@std@@2HB
CONST	SEGMENT
?max_exponent@_Num_base@std@@2HB DD 00H			; std::_Num_base::max_exponent
CONST	ENDS
;	COMDAT ?hexfloat@?$_Iosb@H@std@@2W4_Fmtflags@12@B
CONST	SEGMENT
?hexfloat@?$_Iosb@H@std@@2W4_Fmtflags@12@B DD 03000H	; std::_Iosb<int>::hexfloat
CONST	ENDS
;	COMDAT ?max_digits10@_Num_base@std@@2HB
CONST	SEGMENT
?max_digits10@_Num_base@std@@2HB DD 00H			; std::_Num_base::max_digits10
CONST	ENDS
;	COMDAT ?fixed@?$_Iosb@H@std@@2W4_Fmtflags@12@B
CONST	SEGMENT
?fixed@?$_Iosb@H@std@@2W4_Fmtflags@12@B DD 02000H	; std::_Iosb<int>::fixed
CONST	ENDS
;	COMDAT ?digits10@_Num_base@std@@2HB
CONST	SEGMENT
?digits10@_Num_base@std@@2HB DD 00H			; std::_Num_base::digits10
CONST	ENDS
;	COMDAT ?scientific@?$_Iosb@H@std@@2W4_Fmtflags@12@B
CONST	SEGMENT
?scientific@?$_Iosb@H@std@@2W4_Fmtflags@12@B DD 01000H	; std::_Iosb<int>::scientific
CONST	ENDS
;	COMDAT ?digits@_Num_base@std@@2HB
CONST	SEGMENT
?digits@_Num_base@std@@2HB DD 00H			; std::_Num_base::digits
CONST	ENDS
;	COMDAT ?hex@?$_Iosb@H@std@@2W4_Fmtflags@12@B
CONST	SEGMENT
?hex@?$_Iosb@H@std@@2W4_Fmtflags@12@B DD 0800H		; std::_Iosb<int>::hex
CONST	ENDS
;	COMDAT ?round_style@_Num_base@std@@2W4float_round_style@2@B
CONST	SEGMENT
?round_style@_Num_base@std@@2W4float_round_style@2@B DD 00H ; std::_Num_base::round_style
CONST	ENDS
;	COMDAT ?oct@?$_Iosb@H@std@@2W4_Fmtflags@12@B
CONST	SEGMENT
?oct@?$_Iosb@H@std@@2W4_Fmtflags@12@B DD 0400H		; std::_Iosb<int>::oct
CONST	ENDS
;	COMDAT ?traps@_Num_base@std@@2_NB
CONST	SEGMENT
?traps@_Num_base@std@@2_NB DB 00H			; std::_Num_base::traps
CONST	ENDS
;	COMDAT ?dec@?$_Iosb@H@std@@2W4_Fmtflags@12@B
CONST	SEGMENT
?dec@?$_Iosb@H@std@@2W4_Fmtflags@12@B DD 0200H		; std::_Iosb<int>::dec
CONST	ENDS
;	COMDAT ?tinyness_before@_Num_base@std@@2_NB
CONST	SEGMENT
?tinyness_before@_Num_base@std@@2_NB DB 00H		; std::_Num_base::tinyness_before
CONST	ENDS
;	COMDAT ?internal@?$_Iosb@H@std@@2W4_Fmtflags@12@B
CONST	SEGMENT
?internal@?$_Iosb@H@std@@2W4_Fmtflags@12@B DD 0100H	; std::_Iosb<int>::internal
CONST	ENDS
;	COMDAT ?is_specialized@_Num_base@std@@2_NB
CONST	SEGMENT
?is_specialized@_Num_base@std@@2_NB DB 00H		; std::_Num_base::is_specialized
CONST	ENDS
;	COMDAT ?right@?$_Iosb@H@std@@2W4_Fmtflags@12@B
CONST	SEGMENT
?right@?$_Iosb@H@std@@2W4_Fmtflags@12@B DD 080H		; std::_Iosb<int>::right
CONST	ENDS
;	COMDAT ?is_signed@_Num_base@std@@2_NB
CONST	SEGMENT
?is_signed@_Num_base@std@@2_NB DB 00H			; std::_Num_base::is_signed
CONST	ENDS
;	COMDAT ?left@?$_Iosb@H@std@@2W4_Fmtflags@12@B
CONST	SEGMENT
?left@?$_Iosb@H@std@@2W4_Fmtflags@12@B DD 040H		; std::_Iosb<int>::left
CONST	ENDS
;	COMDAT ?is_modulo@_Num_base@std@@2_NB
CONST	SEGMENT
?is_modulo@_Num_base@std@@2_NB DB 00H			; std::_Num_base::is_modulo
CONST	ENDS
;	COMDAT ?showpos@?$_Iosb@H@std@@2W4_Fmtflags@12@B
CONST	SEGMENT
?showpos@?$_Iosb@H@std@@2W4_Fmtflags@12@B DD 020H	; std::_Iosb<int>::showpos
CONST	ENDS
;	COMDAT ?is_integer@_Num_base@std@@2_NB
CONST	SEGMENT
?is_integer@_Num_base@std@@2_NB DB 00H			; std::_Num_base::is_integer
CONST	ENDS
;	COMDAT ?showpoint@?$_Iosb@H@std@@2W4_Fmtflags@12@B
CONST	SEGMENT
?showpoint@?$_Iosb@H@std@@2W4_Fmtflags@12@B DD 010H	; std::_Iosb<int>::showpoint
CONST	ENDS
;	COMDAT ?is_iec559@_Num_base@std@@2_NB
CONST	SEGMENT
?is_iec559@_Num_base@std@@2_NB DB 00H			; std::_Num_base::is_iec559
CONST	ENDS
;	COMDAT ?showbase@?$_Iosb@H@std@@2W4_Fmtflags@12@B
CONST	SEGMENT
?showbase@?$_Iosb@H@std@@2W4_Fmtflags@12@B DD 08H	; std::_Iosb<int>::showbase
CONST	ENDS
;	COMDAT ?is_exact@_Num_base@std@@2_NB
CONST	SEGMENT
?is_exact@_Num_base@std@@2_NB DB 00H			; std::_Num_base::is_exact
CONST	ENDS
;	COMDAT ?uppercase@?$_Iosb@H@std@@2W4_Fmtflags@12@B
CONST	SEGMENT
?uppercase@?$_Iosb@H@std@@2W4_Fmtflags@12@B DD 04H	; std::_Iosb<int>::uppercase
CONST	ENDS
;	COMDAT ?is_bounded@_Num_base@std@@2_NB
CONST	SEGMENT
?is_bounded@_Num_base@std@@2_NB DB 00H			; std::_Num_base::is_bounded
CONST	ENDS
;	COMDAT ?unitbuf@?$_Iosb@H@std@@2W4_Fmtflags@12@B
CONST	SEGMENT
?unitbuf@?$_Iosb@H@std@@2W4_Fmtflags@12@B DD 02H	; std::_Iosb<int>::unitbuf
CONST	ENDS
;	COMDAT ?has_signaling_NaN@_Num_base@std@@2_NB
CONST	SEGMENT
?has_signaling_NaN@_Num_base@std@@2_NB DB 00H		; std::_Num_base::has_signaling_NaN
CONST	ENDS
;	COMDAT ?skipws@?$_Iosb@H@std@@2W4_Fmtflags@12@B
CONST	SEGMENT
?skipws@?$_Iosb@H@std@@2W4_Fmtflags@12@B DD 01H		; std::_Iosb<int>::skipws
CONST	ENDS
;	COMDAT ?has_quiet_NaN@_Num_base@std@@2_NB
CONST	SEGMENT
?has_quiet_NaN@_Num_base@std@@2_NB DB 00H		; std::_Num_base::has_quiet_NaN
CONST	ENDS
;	COMDAT ?has_infinity@_Num_base@std@@2_NB
CONST	SEGMENT
?has_infinity@_Num_base@std@@2_NB DB 00H		; std::_Num_base::has_infinity
CONST	ENDS
;	COMDAT ?has_denorm_loss@_Num_base@std@@2_NB
CONST	SEGMENT
?has_denorm_loss@_Num_base@std@@2_NB DB 00H		; std::_Num_base::has_denorm_loss
CONST	ENDS
;	COMDAT ?has_denorm@_Num_base@std@@2W4float_denorm_style@2@B
CONST	SEGMENT
?has_denorm@_Num_base@std@@2W4float_denorm_style@2@B DD 00H ; std::_Num_base::has_denorm
CONST	ENDS
PUBLIC	??_H@YGXPAXIHP6EPAX0@Z@Z			; `vector constructor iterator'
PUBLIC	??0VU_SESSION_ID@@QAE@K@Z			; VU_SESSION_ID::VU_SESSION_ID
PUBLIC	??8VU_SESSION_ID@@QBEHABV0@@Z			; VU_SESSION_ID::operator==
PUBLIC	??0VU_ID@@QAE@XZ				; VU_ID::VU_ID
PUBLIC	??8VU_ID@@QBE_NABV0@@Z				; VU_ID::operator==
PUBLIC	?Id@VuEntity@@QBE?AVVU_ID@@XZ			; VuEntity::Id
PUBLIC	?OwnerId@VuEntity@@QBE?AVVU_ID@@XZ		; VuEntity::OwnerId
PUBLIC	?VuState@VuEntity@@QBE?AW4VU_MEM@@XZ		; VuEntity::VuState
PUBLIC	?EntityType@VuEntity@@QBEPAUVuEntityType@@XZ	; VuEntity::EntityType
PUBLIC	??2@YAPAXIPAX@Z					; operator new
PUBLIC	??3@YAXPAX0@Z					; operator delete
PUBLIC	?length@?$char_traits@D@std@@SAIPBD@Z		; std::char_traits<char>::length
PUBLIC	?copy@?$char_traits@D@std@@SAPADPADPBDI@Z	; std::char_traits<char>::copy
PUBLIC	?move@?$char_traits@D@std@@SAPADPADPBDI@Z	; std::char_traits<char>::move
PUBLIC	?assign@?$char_traits@D@std@@SAXAADABD@Z	; std::char_traits<char>::assign
PUBLIC	??0logic_error@std@@QAE@PBD@Z			; std::logic_error::logic_error
PUBLIC	??1logic_error@std@@UAE@XZ			; std::logic_error::~logic_error
PUBLIC	??0logic_error@std@@QAE@ABV01@@Z		; std::logic_error::logic_error
PUBLIC	??_Glogic_error@std@@UAEPAXI@Z			; std::logic_error::`scalar deleting destructor'
PUBLIC	??0?$allocator@D@std@@QAE@XZ			; std::allocator<char>::allocator<char>
PUBLIC	?deallocate@?$allocator@D@std@@QAEXPADI@Z	; std::allocator<char>::deallocate
PUBLIC	?allocate@?$allocator@D@std@@QAEPADI@Z		; std::allocator<char>::allocate
PUBLIC	?max_size@?$allocator@D@std@@QBEIXZ		; std::allocator<char>::max_size
PUBLIC	?max_size@?$allocator_traits@V?$allocator@D@std@@@std@@SAIABV?$allocator@D@2@@Z ; std::allocator_traits<std::allocator<char> >::max_size
PUBLIC	??0?$_Wrap_alloc@V?$allocator@D@std@@@std@@QAE@XZ ; std::_Wrap_alloc<std::allocator<char> >::_Wrap_alloc<std::allocator<char> >
PUBLIC	?allocate@?$_Wrap_alloc@V?$allocator@D@std@@@std@@QAEPADI@Z ; std::_Wrap_alloc<std::allocator<char> >::allocate
PUBLIC	?deallocate@?$_Wrap_alloc@V?$allocator@D@std@@@std@@QAEXPADI@Z ; std::_Wrap_alloc<std::allocator<char> >::deallocate
PUBLIC	?max_size@?$_Wrap_alloc@V?$allocator@D@std@@@std@@QBEIXZ ; std::_Wrap_alloc<std::allocator<char> >::max_size
PUBLIC	??0?$_String_val@U?$_Simple_types@D@std@@@std@@QAE@XZ ; std::_String_val<std::_Simple_types<char> >::_String_val<std::_Simple_types<char> >
PUBLIC	?_Myptr@?$_String_val@U?$_Simple_types@D@std@@@std@@QAEPADXZ ; std::_String_val<std::_Simple_types<char> >::_Myptr
PUBLIC	?_Myptr@?$_String_val@U?$_Simple_types@D@std@@@std@@QBEPBDXZ ; std::_String_val<std::_Simple_types<char> >::_Myptr
PUBLIC	??0?$_String_alloc@$0A@U?$_String_base_types@DV?$allocator@D@std@@@std@@@std@@QAE@ABV?$allocator@D@1@@Z ; std::_String_alloc<0,std::_String_base_types<char,std::allocator<char> > >::_String_alloc<0,std::_String_base_types<char,std::allocator<char> > >
PUBLIC	?_Getal@?$_String_alloc@$0A@U?$_String_base_types@DV?$allocator@D@std@@@std@@@std@@QBE?AU?$_Wrap_alloc@V?$allocator@D@std@@@2@XZ ; std::_String_alloc<0,std::_String_base_types<char,std::allocator<char> > >::_Getal
PUBLIC	??0?$basic_string@DU?$char_traits@D@std@@V?$allocator@D@2@@std@@QAE@PBD@Z ; std::basic_string<char,std::char_traits<char>,std::allocator<char> >::basic_string<char,std::char_traits<char>,std::allocator<char> >
PUBLIC	??1?$basic_string@DU?$char_traits@D@std@@V?$allocator@D@2@@std@@QAE@XZ ; std::basic_string<char,std::char_traits<char>,std::allocator<char> >::~basic_string<char,std::char_traits<char>,std::allocator<char> >
PUBLIC	?assign@?$basic_string@DU?$char_traits@D@std@@V?$allocator@D@2@@std@@QAEAAV12@ABV12@II@Z ; std::basic_string<char,std::char_traits<char>,std::allocator<char> >::assign
PUBLIC	?assign@?$basic_string@DU?$char_traits@D@std@@V?$allocator@D@2@@std@@QAEAAV12@PBDI@Z ; std::basic_string<char,std::char_traits<char>,std::allocator<char> >::assign
PUBLIC	?assign@?$basic_string@DU?$char_traits@D@std@@V?$allocator@D@2@@std@@QAEAAV12@PBD@Z ; std::basic_string<char,std::char_traits<char>,std::allocator<char> >::assign
PUBLIC	?erase@?$basic_string@DU?$char_traits@D@std@@V?$allocator@D@2@@std@@QAEAAV12@I@Z ; std::basic_string<char,std::char_traits<char>,std::allocator<char> >::erase
PUBLIC	?erase@?$basic_string@DU?$char_traits@D@std@@V?$allocator@D@2@@std@@QAEAAV12@II@Z ; std::basic_string<char,std::char_traits<char>,std::allocator<char> >::erase
PUBLIC	?c_str@?$basic_string@DU?$char_traits@D@std@@V?$allocator@D@2@@std@@QBEPBDXZ ; std::basic_string<char,std::char_traits<char>,std::allocator<char> >::c_str
PUBLIC	?size@?$basic_string@DU?$char_traits@D@std@@V?$allocator@D@2@@std@@QBEIXZ ; std::basic_string<char,std::char_traits<char>,std::allocator<char> >::size
PUBLIC	?max_size@?$basic_string@DU?$char_traits@D@std@@V?$allocator@D@2@@std@@QBEIXZ ; std::basic_string<char,std::char_traits<char>,std::allocator<char> >::max_size
PUBLIC	?_Copy@?$basic_string@DU?$char_traits@D@std@@V?$allocator@D@2@@std@@QAEXII@Z ; std::basic_string<char,std::char_traits<char>,std::allocator<char> >::_Copy
PUBLIC	?_Eos@?$basic_string@DU?$char_traits@D@std@@V?$allocator@D@2@@std@@QAEXI@Z ; std::basic_string<char,std::char_traits<char>,std::allocator<char> >::_Eos
PUBLIC	?_Grow@?$basic_string@DU?$char_traits@D@std@@V?$allocator@D@2@@std@@QAE_NI_N@Z ; std::basic_string<char,std::char_traits<char>,std::allocator<char> >::_Grow
PUBLIC	?_Inside@?$basic_string@DU?$char_traits@D@std@@V?$allocator@D@2@@std@@QAE_NPBD@Z ; std::basic_string<char,std::char_traits<char>,std::allocator<char> >::_Inside
PUBLIC	?_Tidy@?$basic_string@DU?$char_traits@D@std@@V?$allocator@D@2@@std@@QAEX_NI@Z ; std::basic_string<char,std::char_traits<char>,std::allocator<char> >::_Tidy
PUBLIC	?_Xlen@?$basic_string@DU?$char_traits@D@std@@V?$allocator@D@2@@std@@QBEXXZ ; std::basic_string<char,std::char_traits<char>,std::allocator<char> >::_Xlen
PUBLIC	?_Xran@?$basic_string@DU?$char_traits@D@std@@V?$allocator@D@2@@std@@QBEXXZ ; std::basic_string<char,std::char_traits<char>,std::allocator<char> >::_Xran
PUBLIC	??0out_of_range@std@@QAE@ABV?$basic_string@DU?$char_traits@D@std@@V?$allocator@D@2@@1@@Z ; std::out_of_range::out_of_range
PUBLIC	??1out_of_range@std@@UAE@XZ			; std::out_of_range::~out_of_range
PUBLIC	??0out_of_range@std@@QAE@ABV01@@Z		; std::out_of_range::out_of_range
PUBLIC	??_Gout_of_range@std@@UAEPAXI@Z			; std::out_of_range::`scalar deleting destructor'
PUBLIC	?get@?$VuBin@VVuSessionEntity@@@@QBEPAVVuSessionEntity@@XZ ; VuBin<VuSessionEntity>::get
PUBLIC	?get@?$VuBin@VVuEntity@@@@QBEPAVVuEntity@@XZ	; VuBin<VuEntity>::get
PUBLIC	?IsSimBase@FalconEntity@@UAE_NXZ		; FalconEntity::IsSimBase
PUBLIC	?GetRadarMode@FalconEntity@@UAEHXZ		; FalconEntity::GetRadarMode
PUBLIC	?SetRadarMode@FalconEntity@@UAEXE@Z		; FalconEntity::SetRadarMode
PUBLIC	?ReturnToSearch@FalconEntity@@UAEXXZ		; FalconEntity::ReturnToSearch
PUBLIC	?SetSearchMode@FalconEntity@@UAEXE@Z		; FalconEntity::SetSearchMode
PUBLIC	?CombatClass@FalconEntity@@UAEHXZ		; FalconEntity::CombatClass
PUBLIC	?IsMissile@FalconEntity@@UAEHXZ			; FalconEntity::IsMissile
PUBLIC	?IsLauncher@FalconEntity@@UAEHXZ		; FalconEntity::IsLauncher
PUBLIC	?IsBomb@FalconEntity@@UAEHXZ			; FalconEntity::IsBomb
PUBLIC	?IsGun@FalconEntity@@UAEHXZ			; FalconEntity::IsGun
PUBLIC	?IsMover@FalconEntity@@UAEHXZ			; FalconEntity::IsMover
PUBLIC	?IsVehicle@FalconEntity@@UAEHXZ			; FalconEntity::IsVehicle
PUBLIC	?IsStatic@FalconEntity@@UAEHXZ			; FalconEntity::IsStatic
PUBLIC	?IsHelicopter@FalconEntity@@UAEHXZ		; FalconEntity::IsHelicopter
PUBLIC	?IsEject@FalconEntity@@UAEHXZ			; FalconEntity::IsEject
PUBLIC	?IsAirplane@FalconEntity@@UAEHXZ		; FalconEntity::IsAirplane
PUBLIC	?IsGroundVehicle@FalconEntity@@UAEHXZ		; FalconEntity::IsGroundVehicle
PUBLIC	?IsShip@FalconEntity@@UAEHXZ			; FalconEntity::IsShip
PUBLIC	?IsWeapon@FalconEntity@@UAEHXZ			; FalconEntity::IsWeapon
PUBLIC	?IsExploding@FalconEntity@@UAEHXZ		; FalconEntity::IsExploding
PUBLIC	?IsDead@FalconEntity@@UAEHXZ			; FalconEntity::IsDead
PUBLIC	?GetMovementType@FalconEntity@@UAE?AW4MoveType@@XZ ; FalconEntity::GetMovementType
PUBLIC	?IsObjective@FalconEntity@@UAEHXZ		; FalconEntity::IsObjective
PUBLIC	?IsBattalion@FalconEntity@@UAEHXZ		; FalconEntity::IsBattalion
PUBLIC	?IsBrigade@FalconEntity@@UAEHXZ			; FalconEntity::IsBrigade
PUBLIC	?IsFlight@FalconEntity@@UBEHXZ			; FalconEntity::IsFlight
PUBLIC	?IsPackage@FalconEntity@@UAEHXZ			; FalconEntity::IsPackage
PUBLIC	?IsTeam@FalconEntity@@UAEHXZ			; FalconEntity::IsTeam
PUBLIC	?IsTaskForce@FalconEntity@@UAEHXZ		; FalconEntity::IsTaskForce
PUBLIC	?IsSPJamming@FalconEntity@@UAEHXZ		; FalconEntity::IsSPJamming
PUBLIC	?IsAreaJamming@FalconEntity@@UAEHXZ		; FalconEntity::IsAreaJamming
PUBLIC	?HasSPJamming@FalconEntity@@UAEHXZ		; FalconEntity::HasSPJamming
PUBLIC	?HasAreaJamming@FalconEntity@@UAEHXZ		; FalconEntity::HasAreaJamming
PUBLIC	?SetAQUIREtimer@FalconEntity@@UAEXK@Z		; FalconEntity::SetAQUIREtimer
PUBLIC	?SetSEARCHtimer@FalconEntity@@UAEXK@Z		; FalconEntity::SetSEARCHtimer
PUBLIC	?SetStepSearchMode@FalconEntity@@UAEXE@Z	; FalconEntity::SetStepSearchMode
PUBLIC	?GetAQUIREtimer@FalconEntity@@UAEKXZ		; FalconEntity::GetAQUIREtimer
PUBLIC	?GetSEARCHtimer@FalconEntity@@UAEKXZ		; FalconEntity::GetSEARCHtimer
PUBLIC	??0InvalidBufferException@@QAE@ABV?$basic_string@DU?$char_traits@D@std@@V?$allocator@D@2@@std@@@Z ; InvalidBufferException::InvalidBufferException
PUBLIC	??1InvalidBufferException@@UAE@XZ		; InvalidBufferException::~InvalidBufferException
PUBLIC	??0InvalidBufferException@@QAE@ABV0@@Z		; InvalidBufferException::InvalidBufferException
PUBLIC	??_GInvalidBufferException@@UAEPAXI@Z		; InvalidBufferException::`scalar deleting destructor'
PUBLIC	?memcpychk@@YAXPAXPAPAEIPAJ@Z			; memcpychk
PUBLIC	?GetCampID@CampBaseClass@@UAEFXZ		; CampBaseClass::GetCampID
PUBLIC	?GetTeam@CampBaseClass@@UAEEXZ			; CampBaseClass::GetTeam
PUBLIC	?GetCountry@CampBaseClass@@UAEEXZ		; CampBaseClass::GetCountry
PUBLIC	?StepRadar@CampBaseClass@@UAEHHHM@Z		; CampBaseClass::StepRadar
PUBLIC	?GetOwner@CampBaseClass@@QAEEXZ			; CampBaseClass::GetOwner
PUBLIC	?GetMissilesFlying@CampBaseClass@@UAEHXZ	; CampBaseClass::GetMissilesFlying
PUBLIC	?IsCampBase@CampBaseClass@@UAE_NXZ		; CampBaseClass::IsCampBase
PUBLIC	?IsEmitting@CampBaseClass@@UAEHXZ		; CampBaseClass::IsEmitting
PUBLIC	?IsAwake@CampBaseClass@@QAEHXZ			; CampBaseClass::IsAwake
PUBLIC	?InPackage@CampBaseClass@@QAEHXZ		; CampBaseClass::InPackage
PUBLIC	?IsAggregate@CampBaseClass@@QAEHXZ		; CampBaseClass::IsAggregate
PUBLIC	?HasEntity@CampBaseClass@@UBEHPAVVuEntity@@@Z	; CampBaseClass::HasEntity
PUBLIC	?GetType@CampBaseClass@@QBEEXZ			; CampBaseClass::GetType
PUBLIC	?GetObjectiveStatus@ObjectiveClass@@QAEEXZ	; ObjectiveClass::GetObjectiveStatus
PUBLIC	?GetTEStartTime@CampaignClass@@QAEKXZ		; CampaignClass::GetTEStartTime
PUBLIC	?GetNameId@UnitClass@@QAEFXZ			; UnitClass::GetNameId
PUBLIC	?CanShootWeapon@UnitClass@@UAEHH@Z		; UnitClass::CanShootWeapon
PUBLIC	?GetDeaggregationPoint@UnitClass@@UAEHHPAPAVCampBaseClass@@@Z ; UnitClass::GetDeaggregationPoint
PUBLIC	?GetUnitDeaggregationData@UnitClass@@UAEPAVUnitDeaggregationData@@XZ ; UnitClass::GetUnitDeaggregationData
PUBLIC	?ShouldDeaggregate@UnitClass@@UAEHXZ		; UnitClass::ShouldDeaggregate
PUBLIC	?ClearDeaggregationData@UnitClass@@UAEXXZ	; UnitClass::ClearDeaggregationData
PUBLIC	?DoCombat@UnitClass@@UAEHXZ			; UnitClass::DoCombat
PUBLIC	?Father@UnitClass@@UBEHXZ			; UnitClass::Father
PUBLIC	?AdjustForSupply@UnitClass@@UAEMXZ		; UnitClass::AdjustForSupply
PUBLIC	?DetectOnMove@UnitClass@@UAEHXZ			; UnitClass::DetectOnMove
PUBLIC	?ChooseTarget@UnitClass@@UAEHXZ			; UnitClass::ChooseTarget
PUBLIC	?CombatTime@UnitClass@@UAEKXZ			; UnitClass::CombatTime
PUBLIC	?GetVehicleDeagData@UnitClass@@UAEHPAVSimInitDataClass@@H@Z ; UnitClass::GetVehicleDeagData
PUBLIC	?IsUnit@UnitClass@@UAEHXZ			; UnitClass::IsUnit
PUBLIC	?IsDead@UnitClass@@UBEHXZ			; UnitClass::IsDead
PUBLIC	?DontPlan@UnitClass@@QBEHXZ			; UnitClass::DontPlan
PUBLIC	?Moving@UnitClass@@QBEHXZ			; UnitClass::Moving
PUBLIC	?SimSetLocation@UnitClass@@UAEXMMM@Z		; UnitClass::SimSetLocation
PUBLIC	?SimSetOrientation@UnitClass@@UAEXMMM@Z		; UnitClass::SimSetOrientation
PUBLIC	?GetRealPosition@UnitClass@@UAEXPAM00@Z		; UnitClass::GetRealPosition
PUBLIC	?SetNumVehicles@UnitClass@@QAEXHH@Z		; UnitClass::SetNumVehicles
PUBLIC	?GetNumVehicles@UnitClass@@QAEHH@Z		; UnitClass::GetNumVehicles
PUBLIC	?GetUnitNameID@UnitClass@@QAEHXZ		; UnitClass::GetUnitNameID
PUBLIC	?SetUnitLastMove@UnitClass@@UAEXK@Z		; UnitClass::SetUnitLastMove
PUBLIC	?SetCombatTime@UnitClass@@UAEXK@Z		; UnitClass::SetCombatTime
PUBLIC	?SetBurntFuel@UnitClass@@UAEXJ@Z		; UnitClass::SetBurntFuel
PUBLIC	?SetUnitMission@UnitClass@@UAEXE@Z		; UnitClass::SetUnitMission
PUBLIC	?SetUnitRole@UnitClass@@UAEXE@Z			; UnitClass::SetUnitRole
PUBLIC	?SetUnitPriority@UnitClass@@UAEXH@Z		; UnitClass::SetUnitPriority
PUBLIC	?SetUnitMissionID@UnitClass@@UAEXH@Z		; UnitClass::SetUnitMissionID
PUBLIC	?SetUnitMissionTarget@UnitClass@@UAEXH@Z	; UnitClass::SetUnitMissionTarget
PUBLIC	?SetUnitTOT@UnitClass@@UAEXK@Z			; UnitClass::SetUnitTOT
PUBLIC	?SetUnitSquadron@UnitClass@@UAEXVVU_ID@@@Z	; UnitClass::SetUnitSquadron
PUBLIC	?SetLoadout@UnitClass@@UAEXPAULoadoutStruct@@H@Z ; UnitClass::SetLoadout
PUBLIC	?GetNumberOfLoadouts@UnitClass@@UAEHXZ		; UnitClass::GetNumberOfLoadouts
PUBLIC	?GetMoveTime@UnitClass@@UAEKXZ			; UnitClass::GetMoveTime
PUBLIC	?GetCombatTime@UnitClass@@UAEKXZ		; UnitClass::GetCombatTime
PUBLIC	?GetAirTargetID@UnitClass@@UAE?AVVU_ID@@XZ	; UnitClass::GetAirTargetID
PUBLIC	?GetAirTarget@UnitClass@@UAEPAVFalconEntity@@XZ	; UnitClass::GetAirTarget
PUBLIC	?GetBurntFuel@UnitClass@@UAEHXZ			; UnitClass::GetBurntFuel
PUBLIC	?GetUnitMission@UnitClass@@UAE?AW4MissionTypeEnum@@XZ ; UnitClass::GetUnitMission
PUBLIC	?GetUnitNormalRole@UnitClass@@UAEHXZ		; UnitClass::GetUnitNormalRole
PUBLIC	?GetUnitCurrentRole@UnitClass@@UBEHXZ		; UnitClass::GetUnitCurrentRole
PUBLIC	?GetUnitPriority@UnitClass@@UAEHXZ		; UnitClass::GetUnitPriority
PUBLIC	?GetUnitMissionTarget@UnitClass@@UAEPAVCampBaseClass@@XZ ; UnitClass::GetUnitMissionTarget
PUBLIC	?GetUnitMissionTargetID@UnitClass@@UAE?AVVU_ID@@XZ ; UnitClass::GetUnitMissionTargetID
PUBLIC	?GetUnitMissionID@UnitClass@@UAEHXZ		; UnitClass::GetUnitMissionID
PUBLIC	?GetUnitTOT@UnitClass@@UAEKXZ			; UnitClass::GetUnitTOT
PUBLIC	?GetUnitSquadron@UnitClass@@UAEPAV1@XZ		; UnitClass::GetUnitSquadron
PUBLIC	?GetUnitSquadronID@UnitClass@@UAE?AVVU_ID@@XZ	; UnitClass::GetUnitSquadronID
PUBLIC	?LoadWeapons@UnitClass@@UAEHPAXPAEW4MoveType@@HHH@Z ; UnitClass::LoadWeapons
PUBLIC	?DumpWeapons@UnitClass@@UAEHXZ			; UnitClass::DumpWeapons
PUBLIC	?ETA@UnitClass@@UAEKXZ				; UnitClass::ETA
PUBLIC	?GetKnownEmitters@UnitClass@@UAEPAVFalconPrivateList@@XZ ; UnitClass::GetKnownEmitters
PUBLIC	?BuildMission@UnitClass@@UAEHPAVMissionRequestClass@@@Z ; UnitClass::BuildMission
PUBLIC	?IncrementTime@UnitClass@@UAEXK@Z		; UnitClass::IncrementTime
PUBLIC	?SetUnitSupply@UnitClass@@UAEXH@Z		; UnitClass::SetUnitSupply
PUBLIC	?SetUnitMorale@UnitClass@@UAEXH@Z		; UnitClass::SetUnitMorale
PUBLIC	?GetUnitSupply@UnitClass@@UAEHXZ		; UnitClass::GetUnitSupply
PUBLIC	?GetUnitMorale@UnitClass@@UAEHXZ		; UnitClass::GetUnitMorale
PUBLIC	?BuildPackage@UnitClass@@UAEHPAVMissionRequestClass@@PAVFalconPrivateList@@@Z ; UnitClass::BuildPackage
PUBLIC	?HandleRequestReceipt@UnitClass@@UAEXHHVVU_ID@@@Z ; UnitClass::HandleRequestReceipt
PUBLIC	?SetUnitAssemblyPoint@UnitClass@@UAEXHFF@Z	; UnitClass::SetUnitAssemblyPoint
PUBLIC	?GetUnitAssemblyPoint@UnitClass@@UAEXHPAF0@Z	; UnitClass::GetUnitAssemblyPoint
PUBLIC	?SetUnitPrimaryObj@UnitClass@@UAEXVVU_ID@@@Z	; UnitClass::SetUnitPrimaryObj
PUBLIC	?SetUnitSecondaryObj@UnitClass@@UAEXVVU_ID@@@Z	; UnitClass::SetUnitSecondaryObj
PUBLIC	?SetUnitObjective@UnitClass@@UAEXVVU_ID@@@Z	; UnitClass::SetUnitObjective
PUBLIC	?SetUnitOrders@UnitClass@@UAEXH@Z		; UnitClass::SetUnitOrders
PUBLIC	?SetUnitOrders@UnitClass@@UAEXHVVU_ID@@@Z	; UnitClass::SetUnitOrders
PUBLIC	?SetUnitFatigue@UnitClass@@UAEXH@Z		; UnitClass::SetUnitFatigue
PUBLIC	?SetUnitMode@UnitClass@@UAEXH@Z			; UnitClass::SetUnitMode
PUBLIC	?SetUnitPosition@UnitClass@@UAEXH@Z		; UnitClass::SetUnitPosition
PUBLIC	?SetUnitDivision@UnitClass@@UAEXH@Z		; UnitClass::SetUnitDivision
PUBLIC	?SetUnitHeading@UnitClass@@UAEXH@Z		; UnitClass::SetUnitHeading
PUBLIC	?GetUnitPrimaryObj@UnitClass@@UAEPAVObjectiveClass@@XZ ; UnitClass::GetUnitPrimaryObj
PUBLIC	?GetUnitSecondaryObj@UnitClass@@UAEPAVObjectiveClass@@XZ ; UnitClass::GetUnitSecondaryObj
PUBLIC	?GetUnitObjective@UnitClass@@UAEPAVObjectiveClass@@XZ ; UnitClass::GetUnitObjective
PUBLIC	?GetUnitPrimaryObjID@UnitClass@@UAE?AVVU_ID@@XZ	; UnitClass::GetUnitPrimaryObjID
PUBLIC	?GetUnitSecondaryObjID@UnitClass@@UAE?AVVU_ID@@XZ ; UnitClass::GetUnitSecondaryObjID
PUBLIC	?GetUnitObjectiveID@UnitClass@@UAE?AVVU_ID@@XZ	; UnitClass::GetUnitObjectiveID
PUBLIC	?GetUnitOrders@UnitClass@@UAEHXZ		; UnitClass::GetUnitOrders
PUBLIC	?GetUnitFatigue@UnitClass@@UAEHXZ		; UnitClass::GetUnitFatigue
PUBLIC	?GetUnitElement@UnitClass@@UAEHXZ		; UnitClass::GetUnitElement
PUBLIC	?GetUnitMode@UnitClass@@UAEHXZ			; UnitClass::GetUnitMode
PUBLIC	?GetUnitPosition@UnitClass@@UAEHXZ		; UnitClass::GetUnitPosition
PUBLIC	?GetUnitDivision@UnitClass@@UAEHXZ		; UnitClass::GetUnitDivision
PUBLIC	?GetUnitHeading@UnitClass@@UAEHXZ		; UnitClass::GetUnitHeading
PUBLIC	?SetUnitNextMove@UnitClass@@UAEXXZ		; UnitClass::SetUnitNextMove
PUBLIC	?ClearUnitPath@UnitClass@@UAEXXZ		; UnitClass::ClearUnitPath
PUBLIC	?GetNextMoveDirection@UnitClass@@UAEHXZ		; UnitClass::GetNextMoveDirection
PUBLIC	?SetUnitCurrentDestination@UnitClass@@UAEXFF@Z	; UnitClass::SetUnitCurrentDestination
PUBLIC	?GetUnitCurrentDestination@UnitClass@@UAEXPAF0@Z ; UnitClass::GetUnitCurrentDestination
PUBLIC	?GetObjMovementType@UnitClass@@UAE?AW4MoveType@@PAVObjectiveClass@@H@Z ; UnitClass::GetObjMovementType
PUBLIC	?CheckForSurrender@UnitClass@@UAEHXZ		; UnitClass::CheckForSurrender
PUBLIC	?BuildMission@UnitClass@@UAEHXZ			; UnitClass::BuildMission
PUBLIC	?RallyUnit@UnitClass@@UAEHH@Z			; UnitClass::RallyUnit
PUBLIC	?GetUnitParent@UnitClass@@UBEPAV1@XZ		; UnitClass::GetUnitParent
PUBLIC	?GetUnitParentID@UnitClass@@UAE?AVVU_ID@@XZ	; UnitClass::GetUnitParentID
PUBLIC	?SetUnitParent@UnitClass@@UAEXPAV1@@Z		; UnitClass::SetUnitParent
PUBLIC	?GetFirstUnitElement@UnitClass@@UBEPAV1@XZ	; UnitClass::GetFirstUnitElement
PUBLIC	?GetNextUnitElement@UnitClass@@UBEPAV1@XZ	; UnitClass::GetNextUnitElement
PUBLIC	?GetUnitElement@UnitClass@@UAEPAV1@H@Z		; UnitClass::GetUnitElement
PUBLIC	?GetUnitElementByID@UnitClass@@UAEPAV1@H@Z	; UnitClass::GetUnitElementByID
PUBLIC	?GetPrevUnitElement@UnitClass@@UAEPAV1@PAV1@@Z	; UnitClass::GetPrevUnitElement
PUBLIC	?AddUnitChild@UnitClass@@UAEXPAV1@@Z		; UnitClass::AddUnitChild
PUBLIC	?RemoveChild@UnitClass@@UAEXVVU_ID@@@Z		; UnitClass::RemoveChild
PUBLIC	?ReorganizeUnit@UnitClass@@UAEXXZ		; UnitClass::ReorganizeUnit
PUBLIC	?UpdateParentStatistics@UnitClass@@UAEHXZ	; UnitClass::UpdateParentStatistics
PUBLIC	?MaxUpdateTime@AirUnitClass@@UBEKXZ		; AirUnitClass::MaxUpdateTime
PUBLIC	?GetVt@AirUnitClass@@UBEMXZ			; AirUnitClass::GetVt
PUBLIC	?GetKias@AirUnitClass@@UBEMXZ			; AirUnitClass::GetKias
PUBLIC	?GetAvailableStores@SquadronClass@@QAEEH@Z	; SquadronClass::GetAvailableStores
PUBLIC	?GetSchedule@SquadronClass@@QAEKH@Z		; SquadronClass::GetSchedule
PUBLIC	?GetRating@SquadronClass@@QAEEH@Z		; SquadronClass::GetRating
PUBLIC	?GetAssigned@SquadronClass@@QAEEXZ		; SquadronClass::GetAssigned
PUBLIC	?SetSchedule@SquadronClass@@QAEXHK@Z		; SquadronClass::SetSchedule
PUBLIC	?ClearSchedule@SquadronClass@@QAEXH@Z		; SquadronClass::ClearSchedule
PUBLIC	?ShiftSchedule@SquadronClass@@QAEXH@Z		; SquadronClass::ShiftSchedule
PUBLIC	?SetHotSpot@SquadronClass@@QAEXVVU_ID@@@Z	; SquadronClass::SetHotSpot
PUBLIC	?SetRating@SquadronClass@@QAEXHE@Z		; SquadronClass::SetRating
PUBLIC	?SetAAKills@SquadronClass@@QAEXF@Z		; SquadronClass::SetAAKills
PUBLIC	?SetAGKills@SquadronClass@@QAEXF@Z		; SquadronClass::SetAGKills
PUBLIC	?SetASKills@SquadronClass@@QAEXF@Z		; SquadronClass::SetASKills
PUBLIC	?SetANKills@SquadronClass@@QAEXF@Z		; SquadronClass::SetANKills
PUBLIC	?SetMissionsFlown@SquadronClass@@QAEXF@Z	; SquadronClass::SetMissionsFlown
PUBLIC	?SetMissionScore@SquadronClass@@QAEXF@Z		; SquadronClass::SetMissionScore
PUBLIC	?SetTotalLosses@SquadronClass@@QAEXE@Z		; SquadronClass::SetTotalLosses
PUBLIC	?SetPilotLosses@SquadronClass@@QAEXE@Z		; SquadronClass::SetPilotLosses
PUBLIC	?SetAssigned@SquadronClass@@QAEXE@Z		; SquadronClass::SetAssigned
PUBLIC	??0SquadronClass@@QAE@G@Z			; SquadronClass::SquadronClass
PUBLIC	??0SquadronClass@@QAE@PAPAEPAJ@Z		; SquadronClass::SquadronClass
PUBLIC	??1SquadronClass@@UAE@XZ			; SquadronClass::~SquadronClass
PUBLIC	?SaveSize@SquadronClass@@UAEHXZ			; SquadronClass::SaveSize
PUBLIC	?Save@SquadronClass@@UAEHPAPAE@Z		; SquadronClass::Save
PUBLIC	?Handle@SquadronClass@@UAEHPAVVuFullUpdateEvent@@@Z ; SquadronClass::Handle
PUBLIC	?Reaction@SquadronClass@@UAEHPAVCampBaseClass@@HM@Z ; SquadronClass::Reaction
PUBLIC	?MoveUnit@SquadronClass@@UAEHK@Z		; SquadronClass::MoveUnit
PUBLIC	?MoveChopperUnit@SquadronClass@@UAEHK@Z		; SquadronClass::MoveChopperUnit
PUBLIC	?Scramble@SquadronClass@@QAEXXZ			; SquadronClass::Scramble
PUBLIC	?ChooseTactic@SquadronClass@@UAEHXZ		; SquadronClass::ChooseTactic
PUBLIC	?CheckTactic@SquadronClass@@UAEHH@Z		; SquadronClass::CheckTactic
PUBLIC	?Real@SquadronClass@@UAEHXZ			; SquadronClass::Real
PUBLIC	?IsSquadron@SquadronClass@@UAEHXZ		; SquadronClass::IsSquadron
PUBLIC	?GetUnitSupplyNeed@SquadronClass@@UAEHH@Z	; SquadronClass::GetUnitSupplyNeed
PUBLIC	?GetUnitFuelNeed@SquadronClass@@UAEHH@Z		; SquadronClass::GetUnitFuelNeed
PUBLIC	?SupplyUnit@SquadronClass@@UAEXHH@Z		; SquadronClass::SupplyUnit
PUBLIC	?MakeSquadronDirty@SquadronClass@@QAEXW4Dirty_Squadron@@W4Dirtyness@@@Z ; SquadronClass::MakeSquadronDirty
PUBLIC	?WriteDirty@SquadronClass@@QAEXPAPAE@Z		; SquadronClass::WriteDirty
PUBLIC	?ReadDirty@SquadronClass@@QAEXPAPAEPAJ@Z	; SquadronClass::ReadDirty
PUBLIC	?UseFuel@SquadronClass@@UAEXJ@Z			; SquadronClass::UseFuel
PUBLIC	?SetSquadronFuel@SquadronClass@@UAEXJ@Z		; SquadronClass::SetSquadronFuel
PUBLIC	?SetUnitSpecialty@SquadronClass@@UAEXH@Z	; SquadronClass::SetUnitSpecialty
PUBLIC	?SetUnitStores@SquadronClass@@UAEXHE@Z		; SquadronClass::SetUnitStores
PUBLIC	?SetUnitAirbase@SquadronClass@@UAEXVVU_ID@@@Z	; SquadronClass::SetUnitAirbase
PUBLIC	?SetLastResupply@SquadronClass@@UAEXH@Z		; SquadronClass::SetLastResupply
PUBLIC	?SetLastResupplyTime@SquadronClass@@UAEXK@Z	; SquadronClass::SetLastResupplyTime
PUBLIC	?GetSquadronFuel@SquadronClass@@UAEJXZ		; SquadronClass::GetSquadronFuel
PUBLIC	?GetUnitSpecialty@SquadronClass@@UAEHXZ		; SquadronClass::GetUnitSpecialty
PUBLIC	?GetUnitStores@SquadronClass@@UAEEH@Z		; SquadronClass::GetUnitStores
PUBLIC	?GetLastResupplyTime@SquadronClass@@UAEKXZ	; SquadronClass::GetLastResupplyTime
PUBLIC	?GetLastResupply@SquadronClass@@UAEHXZ		; SquadronClass::GetLastResupply
PUBLIC	?GetUnitAirbase@SquadronClass@@UAEPAVCampBaseClass@@XZ ; SquadronClass::GetUnitAirbase
PUBLIC	?GetUnitAirbaseID@SquadronClass@@UAE?AVVU_ID@@XZ ; SquadronClass::GetUnitAirbaseID
PUBLIC	?DisposeChildren@SquadronClass@@UAEXXZ		; SquadronClass::DisposeChildren
PUBLIC	?GetPilotData@SquadronClass@@QAEPAVPilotClass@@H@Z ; SquadronClass::GetPilotData
PUBLIC	?NumActivePilots@SquadronClass@@QAEHXZ		; SquadronClass::NumActivePilots
PUBLIC	?InitPilots@SquadronClass@@QAEXXZ		; SquadronClass::InitPilots
PUBLIC	?ReinforcePilots@SquadronClass@@QAEXH@Z		; SquadronClass::ReinforcePilots
PUBLIC	?ScoreKill@SquadronClass@@QAEXHH@Z		; SquadronClass::ScoreKill
PUBLIC	?ShiftSchedule@SquadronClass@@QAEXXZ		; SquadronClass::ShiftSchedule
PUBLIC	?FindAvailableAircraft@SquadronClass@@QAEHPAVMissionRequestClass@@@Z ; SquadronClass::FindAvailableAircraft
PUBLIC	?ScheduleAircraft@SquadronClass@@QAEXPAVFlightClass@@PAVMissionRequestClass@@@Z ; SquadronClass::ScheduleAircraft
PUBLIC	?AssignPilots@SquadronClass@@QAEHPAVFlightClass@@@Z ; SquadronClass::AssignPilots
PUBLIC	?UpdateSquadronStores@SquadronClass@@QAEXQAFQAEHH@Z ; SquadronClass::UpdateSquadronStores
PUBLIC	?ResupplySquadronStores@SquadronClass@@QAEXQAFQAEHH@Z ; SquadronClass::ResupplySquadronStores
PUBLIC	??_GSquadronClass@@UAEPAXI@Z			; SquadronClass::`scalar deleting destructor'
PUBLIC	?NewSquadron@@YAPAVSquadronClass@@H@Z		; NewSquadron
PUBLIC	?get@?$VuBin@VSquadronClass@@@@QBEPAVSquadronClass@@XZ ; VuBin<SquadronClass>::get
PUBLIC	?get@?$VuBin@VFlightClass@@@@QBEPAVFlightClass@@XZ ; VuBin<FlightClass>::get
PUBLIC	?GetPlayerFlight@FalconSessionEntity@@QBEPAVFlightClass@@XZ ; FalconSessionEntity::GetPlayerFlight
PUBLIC	?GetPlayerSquadron@FalconSessionEntity@@QBEPAVSquadronClass@@XZ ; FalconSessionEntity::GetPlayerSquadron
PUBLIC	?GetPilotSlot@FalconSessionEntity@@QBEEXZ	; FalconSessionEntity::GetPilotSlot
PUBLIC	??0id@locale@std@@QAE@I@Z			; std::locale::id::id
PUBLIC	?generic_category@std@@YAABVerror_category@1@XZ	; std::generic_category
PUBLIC	?system_category@std@@YAABVerror_category@1@XZ	; std::system_category
PUBLIC	??0error_category@std@@QAE@XZ			; std::error_category::error_category
PUBLIC	??1error_category@std@@UAE@XZ			; std::error_category::~error_category
PUBLIC	?default_error_condition@error_category@std@@UBE?AVerror_condition@2@H@Z ; std::error_category::default_error_condition
PUBLIC	?equivalent@error_category@std@@UBE_NHABVerror_condition@2@@Z ; std::error_category::equivalent
PUBLIC	?equivalent@error_category@std@@UBE_NABVerror_code@2@H@Z ; std::error_category::equivalent
PUBLIC	??8error_category@std@@QBE_NABV01@@Z		; std::error_category::operator==
PUBLIC	??_Gerror_category@std@@UAEPAXI@Z		; std::error_category::`scalar deleting destructor'
PUBLIC	?value@error_code@std@@QBEHXZ			; std::error_code::value
PUBLIC	?category@error_code@std@@QBEABVerror_category@2@XZ ; std::error_code::category
PUBLIC	??0error_condition@std@@QAE@HABVerror_category@1@@Z ; std::error_condition::error_condition
PUBLIC	?value@error_condition@std@@QBEHXZ		; std::error_condition::value
PUBLIC	?category@error_condition@std@@QBEABVerror_category@2@XZ ; std::error_condition::category
PUBLIC	??8error_condition@std@@QBE_NABV01@@Z		; std::error_condition::operator==
PUBLIC	??0_Generic_error_category@std@@QAE@XZ		; std::_Generic_error_category::_Generic_error_category
PUBLIC	?name@_Generic_error_category@std@@UBEPBDXZ	; std::_Generic_error_category::name
PUBLIC	?message@_Generic_error_category@std@@UBE?AV?$basic_string@DU?$char_traits@D@std@@V?$allocator@D@2@@2@H@Z ; std::_Generic_error_category::message
PUBLIC	??1_Generic_error_category@std@@UAE@XZ		; std::_Generic_error_category::~_Generic_error_category
PUBLIC	??_G_Generic_error_category@std@@UAEPAXI@Z	; std::_Generic_error_category::`scalar deleting destructor'
PUBLIC	??0_Iostream_error_category@std@@QAE@XZ		; std::_Iostream_error_category::_Iostream_error_category
PUBLIC	?name@_Iostream_error_category@std@@UBEPBDXZ	; std::_Iostream_error_category::name
PUBLIC	?message@_Iostream_error_category@std@@UBE?AV?$basic_string@DU?$char_traits@D@std@@V?$allocator@D@2@@2@H@Z ; std::_Iostream_error_category::message
PUBLIC	??1_Iostream_error_category@std@@UAE@XZ		; std::_Iostream_error_category::~_Iostream_error_category
PUBLIC	??_G_Iostream_error_category@std@@UAEPAXI@Z	; std::_Iostream_error_category::`scalar deleting destructor'
PUBLIC	??0_System_error_category@std@@QAE@XZ		; std::_System_error_category::_System_error_category
PUBLIC	?name@_System_error_category@std@@UBEPBDXZ	; std::_System_error_category::name
PUBLIC	?message@_System_error_category@std@@UBE?AV?$basic_string@DU?$char_traits@D@std@@V?$allocator@D@2@@2@H@Z ; std::_System_error_category::message
PUBLIC	?default_error_condition@_System_error_category@std@@UBE?AVerror_condition@2@H@Z ; std::_System_error_category::default_error_condition
PUBLIC	??1_System_error_category@std@@UAE@XZ		; std::_System_error_category::~_System_error_category
PUBLIC	??_G_System_error_category@std@@UAEPAXI@Z	; std::_System_error_category::`scalar deleting destructor'
PUBLIC	??$construct@PADAAPAD@?$_Wrap_alloc@V?$allocator@D@std@@@std@@QAEXPAPADAAPAD@Z ; std::_Wrap_alloc<std::allocator<char> >::construct<char *,char * &>
PUBLIC	??$destroy@PAD@?$_Wrap_alloc@V?$allocator@D@std@@@std@@QAEXPAPAD@Z ; std::_Wrap_alloc<std::allocator<char> >::destroy<char *>
PUBLIC	??$addressof@D@std@@YAPADAAD@Z			; std::addressof<char>
PUBLIC	??$_Allocate@D@std@@YAPADIPAD@Z			; std::_Allocate<char>
PUBLIC	??$forward@AAPAD@std@@YAAAPADAAPAD@Z		; std::forward<char * &>
PUBLIC	??$construct@PADAAPAD@?$allocator_traits@V?$allocator@D@std@@@std@@SAXAAV?$allocator@D@1@PAPADAAPAD@Z ; std::allocator_traits<std::allocator<char> >::construct<char *,char * &>
PUBLIC	??$destroy@PAD@?$allocator_traits@V?$allocator@D@std@@@std@@SAXAAV?$allocator@D@1@PAPAD@Z ; std::allocator_traits<std::allocator<char> >::destroy<char *>
PUBLIC	??$construct@PADAAPAD@?$allocator@D@std@@QAEXPAPADAAPAD@Z ; std::allocator<char>::construct<char *,char * &>
PUBLIC	??$destroy@PAD@?$allocator@D@std@@QAEXPAPAD@Z	; std::allocator<char>::destroy<char *>
PUBLIC	??_7logic_error@std@@6B@			; std::logic_error::`vftable'
PUBLIC	??_7out_of_range@std@@6B@			; std::out_of_range::`vftable'
PUBLIC	??_7InvalidBufferException@@6B@			; InvalidBufferException::`vftable'
PUBLIC	??_C@_0CI@MPKJAHJH@Trying?5to?5write?5?$CFlu?5bytes?5to?5?$CFld@ ; `string'
PUBLIC	__TI4?AVInvalidBufferException@@
PUBLIC	__CTA4?AVInvalidBufferException@@
PUBLIC	??_R0?AVInvalidBufferException@@@8		; InvalidBufferException `RTTI Type Descriptor'
PUBLIC	__CT??_R0?AVInvalidBufferException@@@8??0InvalidBufferException@@QAE@ABV0@@Z12
PUBLIC	??_R0?AVout_of_range@std@@@8			; std::out_of_range `RTTI Type Descriptor'
PUBLIC	__CT??_R0?AVout_of_range@std@@@8??0out_of_range@std@@QAE@ABV01@@Z12
PUBLIC	??_R0?AVlogic_error@std@@@8			; std::logic_error `RTTI Type Descriptor'
PUBLIC	__CT??_R0?AVlogic_error@std@@@8??0logic_error@std@@QAE@ABV01@@Z12
PUBLIC	??_R0?AVexception@std@@@8			; std::exception `RTTI Type Descriptor'
PUBLIC	__CT??_R0?AVexception@std@@@8??0exception@std@@QAE@ABV01@@Z12
PUBLIC	??_7SquadronClass@@6B@				; SquadronClass::`vftable'
PUBLIC	??_7error_category@std@@6B@			; std::error_category::`vftable'
PUBLIC	??_7_Generic_error_category@std@@6B@		; std::_Generic_error_category::`vftable'
PUBLIC	??_C@_07DCLBNMLN@generic?$AA@			; `string'
PUBLIC	??_C@_0O@BFJCFAAK@unknown?5error?$AA@		; `string'
PUBLIC	??_7_Iostream_error_category@std@@6B@		; std::_Iostream_error_category::`vftable'
PUBLIC	??_C@_08LLGCOLLL@iostream?$AA@			; `string'
PUBLIC	??_C@_0BG@PADBLCHM@iostream?5stream?5error?$AA@	; `string'
PUBLIC	??_7_System_error_category@std@@6B@		; std::_System_error_category::`vftable'
PUBLIC	??_C@_06FHFOAHML@system?$AA@			; `string'
PUBLIC	?_Generic_object@?$_Error_objects@H@std@@2V_Generic_error_category@2@A ; std::_Error_objects<int>::_Generic_object
PUBLIC	?_Iostream_object@?$_Error_objects@H@std@@2V_Iostream_error_category@2@A ; std::_Error_objects<int>::_Iostream_object
PUBLIC	?_System_object@?$_Error_objects@H@std@@2V_System_error_category@2@A ; std::_Error_objects<int>::_System_object
PUBLIC	?id@?$num_put@DV?$back_insert_iterator@V?$basic_string@DU?$char_traits@D@std@@V?$allocator@D@2@@std@@@std@@@std@@2V0locale@2@A ; std::num_put<char,std::back_insert_iterator<std::basic_string<char,std::char_traits<char>,std::allocator<char> > > >::id
PUBLIC	?id@?$num_put@_WV?$back_insert_iterator@V?$basic_string@_WU?$char_traits@_W@std@@V?$allocator@_W@2@@std@@@std@@@std@@2V0locale@2@A ; std::num_put<wchar_t,std::back_insert_iterator<std::basic_string<wchar_t,std::char_traits<wchar_t>,std::allocator<wchar_t> > > >::id
PUBLIC	??_C@_0BE@LJCJGFEG@?$CF08x?5SquadronClass?5?$AA@ ; `string'
PUBLIC	?id@?$numpunct@D@std@@2V0locale@2@A		; std::numpunct<char>::id
PUBLIC	?id@?$numpunct@_W@std@@2V0locale@2@A		; std::numpunct<wchar_t>::id
PUBLIC	??_C@_0BI@CFPLBAOH@invalid?5string?5position?$AA@ ; `string'
PUBLIC	??_C@_0BA@JFNIOLAK@string?5too?5long?$AA@	; `string'
PUBLIC	??_R1A@?0A@EA@exception@std@@8			; std::exception::`RTTI Base Class Descriptor at (0,-1,0,64)'
PUBLIC	??_R3exception@std@@8				; std::exception::`RTTI Class Hierarchy Descriptor'
PUBLIC	??_R2exception@std@@8				; std::exception::`RTTI Base Class Array'
PUBLIC	??_R4logic_error@std@@6B@			; std::logic_error::`RTTI Complete Object Locator'
PUBLIC	??_R3logic_error@std@@8				; std::logic_error::`RTTI Class Hierarchy Descriptor'
PUBLIC	??_R2logic_error@std@@8				; std::logic_error::`RTTI Base Class Array'
PUBLIC	??_R1A@?0A@EA@logic_error@std@@8		; std::logic_error::`RTTI Base Class Descriptor at (0,-1,0,64)'
PUBLIC	??_R4out_of_range@std@@6B@			; std::out_of_range::`RTTI Complete Object Locator'
PUBLIC	??_R3out_of_range@std@@8			; std::out_of_range::`RTTI Class Hierarchy Descriptor'
PUBLIC	??_R2out_of_range@std@@8			; std::out_of_range::`RTTI Base Class Array'
PUBLIC	??_R1A@?0A@EA@out_of_range@std@@8		; std::out_of_range::`RTTI Base Class Descriptor at (0,-1,0,64)'
PUBLIC	??_R4InvalidBufferException@@6B@		; InvalidBufferException::`RTTI Complete Object Locator'
PUBLIC	??_R3InvalidBufferException@@8			; InvalidBufferException::`RTTI Class Hierarchy Descriptor'
PUBLIC	??_R2InvalidBufferException@@8			; InvalidBufferException::`RTTI Base Class Array'
PUBLIC	??_R1A@?0A@EA@InvalidBufferException@@8		; InvalidBufferException::`RTTI Base Class Descriptor at (0,-1,0,64)'
PUBLIC	??_R4SquadronClass@@6B@				; SquadronClass::`RTTI Complete Object Locator'
PUBLIC	??_R0?AVSquadronClass@@@8			; SquadronClass `RTTI Type Descriptor'
PUBLIC	??_R3SquadronClass@@8				; SquadronClass::`RTTI Class Hierarchy Descriptor'
PUBLIC	??_R2SquadronClass@@8				; SquadronClass::`RTTI Base Class Array'
PUBLIC	??_R1A@?0A@EA@SquadronClass@@8			; SquadronClass::`RTTI Base Class Descriptor at (0,-1,0,64)'
PUBLIC	??_R1A@?0A@EA@AirUnitClass@@8			; AirUnitClass::`RTTI Base Class Descriptor at (0,-1,0,64)'
PUBLIC	??_R0?AVAirUnitClass@@@8			; AirUnitClass `RTTI Type Descriptor'
PUBLIC	??_R3AirUnitClass@@8				; AirUnitClass::`RTTI Class Hierarchy Descriptor'
PUBLIC	??_R2AirUnitClass@@8				; AirUnitClass::`RTTI Base Class Array'
PUBLIC	??_R1A@?0A@EA@UnitClass@@8			; UnitClass::`RTTI Base Class Descriptor at (0,-1,0,64)'
PUBLIC	??_R0?AVUnitClass@@@8				; UnitClass `RTTI Type Descriptor'
PUBLIC	??_R3UnitClass@@8				; UnitClass::`RTTI Class Hierarchy Descriptor'
PUBLIC	??_R2UnitClass@@8				; UnitClass::`RTTI Base Class Array'
PUBLIC	??_R1A@?0A@EA@CampBaseClass@@8			; CampBaseClass::`RTTI Base Class Descriptor at (0,-1,0,64)'
PUBLIC	??_R0?AVCampBaseClass@@@8			; CampBaseClass `RTTI Type Descriptor'
PUBLIC	??_R3CampBaseClass@@8				; CampBaseClass::`RTTI Class Hierarchy Descriptor'
PUBLIC	??_R2CampBaseClass@@8				; CampBaseClass::`RTTI Base Class Array'
PUBLIC	??_R1A@?0A@EA@FalconEntity@@8			; FalconEntity::`RTTI Base Class Descriptor at (0,-1,0,64)'
PUBLIC	??_R0?AVFalconEntity@@@8			; FalconEntity `RTTI Type Descriptor'
PUBLIC	??_R3FalconEntity@@8				; FalconEntity::`RTTI Class Hierarchy Descriptor'
PUBLIC	??_R2FalconEntity@@8				; FalconEntity::`RTTI Base Class Array'
PUBLIC	??_R1A@?0A@EA@VuEntity@@8			; VuEntity::`RTTI Base Class Descriptor at (0,-1,0,64)'
PUBLIC	??_R0?AVVuEntity@@@8				; VuEntity `RTTI Type Descriptor'
PUBLIC	??_R3VuEntity@@8				; VuEntity::`RTTI Class Hierarchy Descriptor'
PUBLIC	??_R2VuEntity@@8				; VuEntity::`RTTI Base Class Array'
PUBLIC	??_R4error_category@std@@6B@			; std::error_category::`RTTI Complete Object Locator'
PUBLIC	??_R0?AVerror_category@std@@@8			; std::error_category `RTTI Type Descriptor'
PUBLIC	??_R3error_category@std@@8			; std::error_category::`RTTI Class Hierarchy Descriptor'
PUBLIC	??_R2error_category@std@@8			; std::error_category::`RTTI Base Class Array'
PUBLIC	??_R1A@?0A@EA@error_category@std@@8		; std::error_category::`RTTI Base Class Descriptor at (0,-1,0,64)'
PUBLIC	??_R4_Generic_error_category@std@@6B@		; std::_Generic_error_category::`RTTI Complete Object Locator'
PUBLIC	??_R0?AV_Generic_error_category@std@@@8		; std::_Generic_error_category `RTTI Type Descriptor'
PUBLIC	??_R3_Generic_error_category@std@@8		; std::_Generic_error_category::`RTTI Class Hierarchy Descriptor'
PUBLIC	??_R2_Generic_error_category@std@@8		; std::_Generic_error_category::`RTTI Base Class Array'
PUBLIC	??_R1A@?0A@EA@_Generic_error_category@std@@8	; std::_Generic_error_category::`RTTI Base Class Descriptor at (0,-1,0,64)'
PUBLIC	??_R4_Iostream_error_category@std@@6B@		; std::_Iostream_error_category::`RTTI Complete Object Locator'
PUBLIC	??_R0?AV_Iostream_error_category@std@@@8	; std::_Iostream_error_category `RTTI Type Descriptor'
PUBLIC	??_R3_Iostream_error_category@std@@8		; std::_Iostream_error_category::`RTTI Class Hierarchy Descriptor'
PUBLIC	??_R2_Iostream_error_category@std@@8		; std::_Iostream_error_category::`RTTI Base Class Array'
PUBLIC	??_R1A@?0A@EA@_Iostream_error_category@std@@8	; std::_Iostream_error_category::`RTTI Base Class Descriptor at (0,-1,0,64)'
PUBLIC	??_R4_System_error_category@std@@6B@		; std::_System_error_category::`RTTI Complete Object Locator'
PUBLIC	??_R0?AV_System_error_category@std@@@8		; std::_System_error_category `RTTI Type Descriptor'
PUBLIC	??_R3_System_error_category@std@@8		; std::_System_error_category::`RTTI Class Hierarchy Descriptor'
PUBLIC	??_R2_System_error_category@std@@8		; std::_System_error_category::`RTTI Base Class Array'
PUBLIC	??_R1A@?0A@EA@_System_error_category@std@@8	; std::_System_error_category::`RTTI Base Class Descriptor at (0,-1,0,64)'
PUBLIC	__real@3f17ac60
PUBLIC	__real@3f400000
PUBLIC	__real@3f693e32
PUBLIC	__real@3f800000
PUBLIC	__real@40000000
PUBLIC	__real@41f00000
PUBLIC	__real@42393988
PUBLIC	__real@42c80000
PUBLIC	__real@4479c000
PUBLIC	__real@4bf792e8
PUBLIC	__xmm@41f00000000000000000000000000000
EXTRN	__purecall:PROC
EXTRN	??2@YAPAXI@Z:PROC				; operator new
EXTRN	??3@YAXPAX@Z:PROC				; operator delete
EXTRN	_atexit:PROC
EXTRN	___report_rangecheckfailure:PROC
EXTRN	_fflush:PROC
EXTRN	_fprintf:PROC
EXTRN	_sprintf:PROC
EXTRN	_rand:PROC
EXTRN	_memcpy:PROC
EXTRN	_memset:PROC
EXTRN	_strlen:PROC
EXTRN	_memmove:PROC
EXTRN	__imp__PostMessageA@16:PROC
EXTRN	?SetPosition@VuEntity@@QAEXMMM@Z:PROC		; VuEntity::SetPosition
EXTRN	?IsLocal@VuEntity@@QBEEXZ:PROC			; VuEntity::IsLocal
EXTRN	?CustomCollisionCheck@VuEntity@@UAEEPAV1@M@Z:PROC ; VuEntity::CustomCollisionCheck
EXTRN	?TerrainCollisionCheck@VuEntity@@UAEEXZ:PROC	; VuEntity::TerrainCollisionCheck
EXTRN	?IsTarget@VuEntity@@UAEEXZ:PROC			; VuEntity::IsTarget
EXTRN	?IsSession@VuEntity@@UAEEXZ:PROC		; VuEntity::IsSession
EXTRN	?IsGroup@VuEntity@@UAEEXZ:PROC			; VuEntity::IsGroup
EXTRN	?IsGame@VuEntity@@UAEEXZ:PROC			; VuEntity::IsGame
EXTRN	?IsCamera@VuEntity@@UBEEXZ:PROC			; VuEntity::IsCamera
EXTRN	?Handle@VuEntity@@UAEHPAVVuErrorMessage@@@Z:PROC ; VuEntity::Handle
EXTRN	?Handle@VuEntity@@UAEHPAVVuPushRequest@@@Z:PROC	; VuEntity::Handle
EXTRN	?Handle@VuEntity@@UAEHPAVVuPullRequest@@@Z:PROC	; VuEntity::Handle
EXTRN	?InsertionCallback@VuEntity@@MAEHXZ:PROC	; VuEntity::InsertionCallback
EXTRN	??0exception@std@@QAE@ABQBD@Z:PROC		; std::exception::exception
EXTRN	??0exception@std@@QAE@ABV01@@Z:PROC		; std::exception::exception
EXTRN	??1exception@std@@UAE@XZ:PROC			; std::exception::~exception
EXTRN	?what@exception@std@@UBEPBDXZ:PROC		; std::exception::what
EXTRN	??_U@YAPAXI@Z:PROC				; operator new[]
EXTRN	?_Xbad_alloc@std@@YAXXZ:PROC			; std::_Xbad_alloc
EXTRN	?_Xlength_error@std@@YAXPBD@Z:PROC		; std::_Xlength_error
EXTRN	?_Xout_of_range@std@@YAXPBD@Z:PROC		; std::_Xout_of_range
EXTRN	??_Elogic_error@std@@UAEPAXI@Z:PROC		; std::logic_error::`vector deleting destructor'
EXTRN	??_Eout_of_range@std@@UAEPAXI@Z:PROC		; std::out_of_range::`vector deleting destructor'
EXTRN	?Find@VuCollection@@QBE_NPAVVuEntity@@@Z:PROC	; VuCollection::Find
EXTRN	?Find@VuDatabase@@QBEPAVVuEntity@@VVU_ID@@@Z:PROC ; VuDatabase::Find
EXTRN	??0VuListIterator@@QAE@PAVVuLinkedList@@@Z:PROC	; VuListIterator::VuListIterator
EXTRN	??1VuListIterator@@UAE@XZ:PROC			; VuListIterator::~VuListIterator
EXTRN	?GetFirst@VuListIterator@@QAEPAVVuEntity@@XZ:PROC ; VuListIterator::GetFirst
EXTRN	?GetNext@VuListIterator@@QAEPAVVuEntity@@XZ:PROC ; VuListIterator::GetNext
EXTRN	?Save@FalconEntity@@UAEHPAU_iobuf@@@Z:PROC	; FalconEntity::Save
EXTRN	?CleanupData@FalconEntity@@UAEXXZ:PROC		; FalconEntity::CleanupData
EXTRN	?RemovalCallback@FalconEntity@@UAEHXZ:PROC	; FalconEntity::RemovalCallback
EXTRN	?GetDomain@FalconEntity@@UAEEXZ:PROC		; FalconEntity::GetDomain
EXTRN	?GetLocation@FalconEntity@@QBEXPAF0@Z:PROC	; FalconEntity::GetLocation
EXTRN	?MakeDirty@FalconEntity@@QAEXW4Dirty_Class@@W4Dirtyness@@@Z:PROC ; FalconEntity::MakeDirty
EXTRN	?Camp_GetCurrentTime@@YAKXZ:PROC		; Camp_GetCurrentTime
EXTRN	?FalconSendMessage@@YAXPAVVuMessage@@H@Z:PROC	; FalconSendMessage
EXTRN	??0MissionRequestClass@@QAE@XZ:PROC		; MissionRequestClass::MissionRequestClass
EXTRN	??1MissionRequestClass@@QAE@XZ:PROC		; MissionRequestClass::~MissionRequestClass
EXTRN	?RequestMission@MissionRequestClass@@QAEHXZ:PROC ; MissionRequestClass::RequestMission
EXTRN	??_EInvalidBufferException@@UAEPAXI@Z:PROC	; InvalidBufferException::`vector deleting destructor'
EXTRN	?GetIdFromNamespace@@YAKAAVIdNamespace@@@Z:PROC	; GetIdFromNamespace
EXTRN	?GetTeam@@YAEE@Z:PROC				; GetTeam
EXTRN	?SetOwner@CampBaseClass@@UAEXE@Z:PROC		; CampBaseClass::SetOwner
EXTRN	?MakeCampBaseDirty@CampBaseClass@@QAEXW4Dirty_Campaign_Base@@W4Dirtyness@@@Z:PROC ; CampBaseClass::MakeCampBaseDirty
EXTRN	?InitData@CampBaseClass@@UAEXXZ:PROC		; CampBaseClass::InitData
EXTRN	?Handle@CampBaseClass@@UAEHPAVVuEvent@@@Z:PROC	; CampBaseClass::Handle
EXTRN	?Handle@CampBaseClass@@UAEHPAVVuPositionUpdateEvent@@@Z:PROC ; CampBaseClass::Handle
EXTRN	?Handle@CampBaseClass@@UAEHPAVVuEntityCollisionEvent@@@Z:PROC ; CampBaseClass::Handle
EXTRN	?Handle@CampBaseClass@@UAEHPAVVuTransferEvent@@@Z:PROC ; CampBaseClass::Handle
EXTRN	?Handle@CampBaseClass@@UAEHPAVVuSessionEvent@@@Z:PROC ; CampBaseClass::Handle
EXTRN	?SetLocation@CampBaseClass@@QAEXFF@Z:PROC	; CampBaseClass::SetLocation
EXTRN	?GetAdjustedDataRate@ObjectiveClass@@QAEFXZ:PROC ; ObjectiveClass::GetAdjustedDataRate
EXTRN	?GetVehicleClassData@@YAPAUVehicleClassDataType@@H@Z:PROC ; GetVehicleClassData
EXTRN	?SetRoster@UnitClass@@QAEXJ@Z:PROC		; UnitClass::SetRoster
EXTRN	?SendDeaggregateData@UnitClass@@UAEXPAVVuTargetEntity@@@Z:PROC ; UnitClass::SendDeaggregateData
EXTRN	?RecordCurrentState@UnitClass@@UAEHPAVFalconSessionEntity@@H@Z:PROC ; UnitClass::RecordCurrentState
EXTRN	?Deaggregate@UnitClass@@UAEHPAVFalconSessionEntity@@@Z:PROC ; UnitClass::Deaggregate
EXTRN	?Reaggregate@UnitClass@@UAEHPAVFalconSessionEntity@@@Z:PROC ; UnitClass::Reaggregate
EXTRN	?TransferOwnership@UnitClass@@UAEHPAVFalconSessionEntity@@@Z:PROC ; UnitClass::TransferOwnership
EXTRN	?Wake@UnitClass@@UAEHXZ:PROC			; UnitClass::Wake
EXTRN	?Sleep@UnitClass@@UAEHXZ:PROC			; UnitClass::Sleep
EXTRN	?InsertInSimLists@UnitClass@@UAEXMM@Z:PROC	; UnitClass::InsertInSimLists
EXTRN	?RemoveFromSimLists@UnitClass@@UAEXXZ:PROC	; UnitClass::RemoveFromSimLists
EXTRN	?DeaggregateFromData@UnitClass@@UAEXPAEJ@Z:PROC	; UnitClass::DeaggregateFromData
EXTRN	?ReaggregateFromData@UnitClass@@UAEXPAEJ@Z:PROC	; UnitClass::ReaggregateFromData
EXTRN	?TransferOwnershipFromData@UnitClass@@UAEXPAEJ@Z:PROC ; UnitClass::TransferOwnershipFromData
EXTRN	?ResetPlayerStatus@UnitClass@@UAEHXZ:PROC	; UnitClass::ResetPlayerStatus
EXTRN	?ApplyDamage@UnitClass@@UAEHPAVFalconCampWeaponsFire@@E@Z:PROC ; UnitClass::ApplyDamage
EXTRN	?ApplyDamage@UnitClass@@UAEHW4DamageDataType@@PAHHF@Z:PROC ; UnitClass::ApplyDamage
EXTRN	?DecodeDamageData@UnitClass@@UAEHPAEPAV1@PAVFalconDeathMessage@@@Z:PROC ; UnitClass::DecodeDamageData
EXTRN	?CollectWeapons@UnitClass@@UAEHPAEW4MoveType@@QAFQAEH@Z:PROC ; UnitClass::CollectWeapons
EXTRN	?GetDamageModifiers@UnitClass@@UAEPAEXZ:PROC	; UnitClass::GetDamageModifiers
EXTRN	?GetName@UnitClass@@UAEPADPADHH@Z:PROC		; UnitClass::GetName
EXTRN	?GetFullName@UnitClass@@UAEPADPADHH@Z:PROC	; UnitClass::GetFullName
EXTRN	?GetDivisionName@UnitClass@@UAEPADPADHH@Z:PROC	; UnitClass::GetDivisionName
EXTRN	?GetHitChance@UnitClass@@UAEHHH@Z:PROC		; UnitClass::GetHitChance
EXTRN	?GetAproxHitChance@UnitClass@@UAEHHH@Z:PROC	; UnitClass::GetAproxHitChance
EXTRN	?GetCombatStrength@UnitClass@@UAEHHH@Z:PROC	; UnitClass::GetCombatStrength
EXTRN	?GetAproxCombatStrength@UnitClass@@UAEHHH@Z:PROC ; UnitClass::GetAproxCombatStrength
EXTRN	?GetWeaponRange@UnitClass@@UAEHHPAVFalconEntity@@@Z:PROC ; UnitClass::GetWeaponRange
EXTRN	?GetAproxWeaponRange@UnitClass@@UAEHH@Z:PROC	; UnitClass::GetAproxWeaponRange
EXTRN	?GetDetectionRange@UnitClass@@UAEHH@Z:PROC	; UnitClass::GetDetectionRange
EXTRN	?GetElectronicDetectionRange@UnitClass@@UAEHH@Z:PROC ; UnitClass::GetElectronicDetectionRange
EXTRN	?CanDetect@UnitClass@@UAEHPAVFalconEntity@@@Z:PROC ; UnitClass::CanDetect
EXTRN	?GetComponentLocation@UnitClass@@UAEXPAF0H@Z:PROC ; UnitClass::GetComponentLocation
EXTRN	?GetComponentAltitude@UnitClass@@UAEHH@Z:PROC	; UnitClass::GetComponentAltitude
EXTRN	?GetRCSFactor@UnitClass@@UAEMXZ:PROC		; UnitClass::GetRCSFactor
EXTRN	?GetIRFactor@UnitClass@@UAEMXZ:PROC		; UnitClass::GetIRFactor
EXTRN	?GetNumberOfArcs@UnitClass@@UAEHXZ:PROC		; UnitClass::GetNumberOfArcs
EXTRN	?GetArcRatio@UnitClass@@UAEMH@Z:PROC		; UnitClass::GetArcRatio
EXTRN	?GetArcRange@UnitClass@@UAEMH@Z:PROC		; UnitClass::GetArcRange
EXTRN	?GetArcAngle@UnitClass@@UAEXHPAM0@Z:PROC	; UnitClass::GetArcAngle
EXTRN	?GetRadarType@UnitClass@@UAEHXZ:PROC		; UnitClass::GetRadarType
EXTRN	?SetParent@UnitClass@@QAEXH@Z:PROC		; UnitClass::SetParent
EXTRN	?SetPilots@UnitClass@@QAEXH@Z:PROC		; UnitClass::SetPilots
EXTRN	?GetUnitClassData@UnitClass@@QAEPAUUnitClassDataType@@XZ:PROC ; UnitClass::GetUnitClassData
EXTRN	?GetBestVehicleWeapon@UnitClass@@UAEHHPAEW4MoveType@@HPAH@Z:PROC ; UnitClass::GetBestVehicleWeapon
EXTRN	?GetVehicleHitChance@UnitClass@@UAEHHW4MoveType@@HH@Z:PROC ; UnitClass::GetVehicleHitChance
EXTRN	?GetVehicleCombatStrength@UnitClass@@UAEHHW4MoveType@@H@Z:PROC ; UnitClass::GetVehicleCombatStrength
EXTRN	?GetVehicleRange@UnitClass@@UAEHHHPAVFalconEntity@@@Z:PROC ; UnitClass::GetVehicleRange
EXTRN	?GetUnitWeaponId@UnitClass@@UAEHHH@Z:PROC	; UnitClass::GetUnitWeaponId
EXTRN	?GetUnitWeaponCount@UnitClass@@UAEHHH@Z:PROC	; UnitClass::GetUnitWeaponCount
EXTRN	?GetVehicleID@UnitClass@@QAEFH@Z:PROC		; UnitClass::GetVehicleID
EXTRN	?GetTotalVehicles@UnitClass@@QAEHXZ:PROC	; UnitClass::GetTotalVehicles
EXTRN	?GetUnitRange@UnitClass@@QAEHXZ:PROC		; UnitClass::GetUnitRange
EXTRN	?BuildElements@UnitClass@@QAEXXZ:PROC		; UnitClass::BuildElements
EXTRN	?KillUnit@UnitClass@@QAEXXZ:PROC		; UnitClass::KillUnit
EXTRN	?DistanceToFront@@YAMFF@Z:PROC			; DistanceToFront
EXTRN	?FindEntity@@YAPAVCampBaseClass@@VVU_ID@@@Z:PROC ; FindEntity
EXTRN	?GetRoE@@YAHEEH@Z:PROC				; GetRoE
EXTRN	?GetEnemyTeam@@YAEE@Z:PROC			; GetEnemyTeam
EXTRN	??0AirUnitClass@@QAE@GK@Z:PROC			; AirUnitClass::AirUnitClass
EXTRN	??0AirUnitClass@@QAE@PAPAEPAJ@Z:PROC		; AirUnitClass::AirUnitClass
EXTRN	??1AirUnitClass@@UAE@XZ:PROC			; AirUnitClass::~AirUnitClass
EXTRN	?SaveSize@AirUnitClass@@UAEHXZ:PROC		; AirUnitClass::SaveSize
EXTRN	?Save@AirUnitClass@@UAEHPAPAE@Z:PROC		; AirUnitClass::Save
EXTRN	?Handle@AirUnitClass@@UAEHPAVVuFullUpdateEvent@@@Z:PROC ; AirUnitClass::Handle
EXTRN	?GetMovementType@AirUnitClass@@UAE?AW4MoveType@@XZ:PROC ; AirUnitClass::GetMovementType
EXTRN	?GetUnitSpeed@AirUnitClass@@UBEHXZ:PROC		; AirUnitClass::GetUnitSpeed
EXTRN	?IsHelicopter@AirUnitClass@@UBEHXZ:PROC		; AirUnitClass::IsHelicopter
EXTRN	?OnGround@AirUnitClass@@UAEHXZ:PROC		; AirUnitClass::OnGround
EXTRN	??0PilotClass@@QAE@XZ:PROC			; PilotClass::PilotClass
EXTRN	?ResetStats@PilotClass@@QAEXE@Z:PROC		; PilotClass::ResetStats
EXTRN	?GetAvailablePilot@@YAHHHH@Z:PROC		; GetAvailablePilot
EXTRN	?GetCallsignID@@YAXPAE0H@Z:PROC			; GetCallsignID
EXTRN	?SetCallsignID@@YAXHH@Z:PROC			; SetCallsignID
EXTRN	?MakeFlightDirty@FlightClass@@QAEXW4Dirty_Flight@@W4Dirtyness@@@Z:PROC ; FlightClass::MakeFlightDirty
EXTRN	?RegroupFlight@@YAHPAVFlightClass@@@Z:PROC	; RegroupFlight
EXTRN	??_ESquadronClass@@UAEPAXI@Z:PROC		; SquadronClass::`vector deleting destructor'
EXTRN	?FindATMAirbase@AirTaskingManagerClass@@QAEPAVATMAirbaseClass@@VVU_ID@@@Z:PROC ; AirTaskingManagerClass::FindATMAirbase
EXTRN	?AddToAirbaseList@AirTaskingManagerClass@@QAEPAVATMAirbaseClass@@PAVCampBaseClass@@@Z:PROC ; AirTaskingManagerClass::AddToAirbaseList
EXTRN	??0FalconFlightPlanMessage@@QAE@VVU_ID@@PAVVuTargetEntity@@E@Z:PROC ; FalconFlightPlanMessage::FalconFlightPlanMessage
EXTRN	??_Eerror_category@std@@UAEPAXI@Z:PROC		; std::error_category::`vector deleting destructor'
EXTRN	?_Syserror_map@std@@YAPBDH@Z:PROC		; std::_Syserror_map
EXTRN	?_Winerror_map@std@@YAPBDH@Z:PROC		; std::_Winerror_map
EXTRN	??_E_Generic_error_category@std@@UAEPAXI@Z:PROC	; std::_Generic_error_category::`vector deleting destructor'
EXTRN	??_E_Iostream_error_category@std@@UAEPAXI@Z:PROC ; std::_Iostream_error_category::`vector deleting destructor'
EXTRN	??_E_System_error_category@std@@UAEPAXI@Z:PROC	; std::_System_error_category::`vector deleting destructor'
EXTRN	?AssignUISquadronID@@YAEF@Z:PROC		; AssignUISquadronID
EXTRN	?PreMissionEval@MissionEvaluationClass@@QAEHPAVFlightClass@@E@Z:PROC ; MissionEvaluationClass::PreMissionEval
EXTRN	?UI_Refresh@@YAXXZ:PROC				; UI_Refresh
EXTRN	@__security_check_cookie@4:PROC
EXTRN	__CxxThrowException@8:PROC
EXTRN	___CxxFrameHandler3:PROC
EXTRN	_memset:PROC
EXTRN	?vuDatabase@@3PAVVuDatabase@@A:DWORD		; vuDatabase
EXTRN	?vuLocalSessionEntity@@3V?$VuBin@VVuSessionEntity@@@@A:DWORD ; vuLocalSessionEntity
EXTRN	?FalconNullId@@3VVU_ID@@A:QWORD			; FalconNullId
EXTRN	?SimLibElapsedTime@@3KA:DWORD			; SimLibElapsedTime
EXTRN	?WeaponDataTable@@3PAUWeaponClassDataType@@A:DWORD ; WeaponDataTable
EXTRN	?SquadronStoresDataTable@@3PAUSquadronStoresDataType@@A:DWORD ; SquadronStoresDataTable
EXTRN	?DDP@@3PAUDirtyDataClassType@@A:DWORD		; DDP
EXTRN	?Falcon4ClassTable@@3PAUFalcon4EntityClassType@@A:DWORD ; Falcon4ClassTable
EXTRN	?MissionData@@3PAUMissionDataType@@A:BYTE	; MissionData
EXTRN	??_7type_info@@6B@:QWORD			; type_info::`vftable'
EXTRN	?NonVolatileNS@@3VIdNamespace@@A:BYTE		; NonVolatileNS
EXTRN	?AllAirList@@3PAVVuLinkedList@@A:DWORD		; AllAirList
EXTRN	?AllObjList@@3PAVVuLinkedList@@A:DWORD		; AllObjList
EXTRN	?TheCampaign@@3VCampaignClass@@A:BYTE		; TheCampaign
EXTRN	?gCampDataVersion@@3HA:DWORD			; gCampDataVersion
EXTRN	?TeamInfo@@3PAPAVTeamClass@@A:BYTE		; TeamInfo
EXTRN	?MIN_PLAN_AIR@@3FA:WORD				; MIN_PLAN_AIR
EXTRN	?AIR_UPDATE_CHECK_INTERVAL@@3FA:WORD		; AIR_UPDATE_CHECK_INTERVAL
EXTRN	?AIRCRAFT_TURNAROUND_TIME_MINUTES@@3FA:WORD	; AIRCRAFT_TURNAROUND_TIME_MINUTES
EXTRN	?MIN_RESUPPLY@@3FA:WORD				; MIN_RESUPPLY
EXTRN	?FalconDisplay@@3VFalconDisplayConfiguration@@A:BYTE ; FalconDisplay
EXTRN	?g_npercentage_available_aircraft@@3HA:DWORD	; g_npercentage_available_aircraft
EXTRN	?g_nminimum_available_aircraft@@3HA:DWORD	; g_nminimum_available_aircraft
EXTRN	?doUI@@3HA:DWORD				; doUI
EXTRN	?gCurrentFlightID@@3VVU_ID@@A:QWORD		; gCurrentFlightID
EXTRN	?g_nRelocationWait@@3HA:DWORD			; g_nRelocationWait
EXTRN	?g_nAirbaseReloc@@3HA:DWORD			; g_nAirbaseReloc
EXTRN	?g_bHelosReloc@@3_NA:BYTE			; g_bHelosReloc
EXTRN	?save_log@@3PAU_iobuf@@A:DWORD			; save_log
EXTRN	?load_log@@3PAU_iobuf@@A:DWORD			; load_log
EXTRN	?start_save_stream@@3HA:DWORD			; start_save_stream
EXTRN	?start_load_stream@@3HA:DWORD			; start_load_stream
EXTRN	?g_bEnableABRelocation@@3_NA:BYTE		; g_bEnableABRelocation
EXTRN	?g_bScramble@@3_NA:BYTE				; g_bScramble
EXTRN	___security_cookie:DWORD
EXTRN	__fltused:DWORD
_BSS	SEGMENT
_piecewise_construct DB 01H DUP (?)
_allocator_arg DB 01H DUP (?)
_BSS	ENDS
;	COMDAT ?_Generic_object@?$_Error_objects@H@std@@2V_Generic_error_category@2@A
_BSS	SEGMENT
?_Generic_object@?$_Error_objects@H@std@@2V_Generic_error_category@2@A DD 01H DUP (?) ; std::_Error_objects<int>::_Generic_object
_BSS	ENDS
;	COMDAT ?_Iostream_object@?$_Error_objects@H@std@@2V_Iostream_error_category@2@A
_BSS	SEGMENT
?_Iostream_object@?$_Error_objects@H@std@@2V_Iostream_error_category@2@A DD 01H DUP (?) ; std::_Error_objects<int>::_Iostream_object
_BSS	ENDS
;	COMDAT ?_System_object@?$_Error_objects@H@std@@2V_System_error_category@2@A
_BSS	SEGMENT
?_System_object@?$_Error_objects@H@std@@2V_System_error_category@2@A DD 01H DUP (?) ; std::_Error_objects<int>::_System_object
_BSS	ENDS
;	COMDAT ?id@?$num_put@DV?$back_insert_iterator@V?$basic_string@DU?$char_traits@D@std@@V?$allocator@D@2@@std@@@std@@@std@@2V0locale@2@A
_BSS	SEGMENT
?id@?$num_put@DV?$back_insert_iterator@V?$basic_string@DU?$char_traits@D@std@@V?$allocator@D@2@@std@@@std@@@std@@2V0locale@2@A DD 01H DUP (?) ; std::num_put<char,std::back_insert_iterator<std::basic_string<char,std::char_traits<char>,std::allocator<char> > > >::id
_BSS	ENDS
;	COMDAT ?id@?$num_put@_WV?$back_insert_iterator@V?$basic_string@_WU?$char_traits@_W@std@@V?$allocator@_W@2@@std@@@std@@@std@@2V0locale@2@A
_BSS	SEGMENT
?id@?$num_put@_WV?$back_insert_iterator@V?$basic_string@_WU?$char_traits@_W@std@@V?$allocator@_W@2@@std@@@std@@@std@@2V0locale@2@A DD 01H DUP (?) ; std::num_put<wchar_t,std::back_insert_iterator<std::basic_string<wchar_t,std::char_traits<wchar_t>,std::allocator<wchar_t> > > >::id
_BSS	ENDS
;	COMDAT ?id@?$numpunct@D@std@@2V0locale@2@A
_BSS	SEGMENT
?id@?$numpunct@D@std@@2V0locale@2@A DD 01H DUP (?)	; std::numpunct<char>::id
_BSS	ENDS
;	COMDAT ?id@?$numpunct@_W@std@@2V0locale@2@A
_BSS	SEGMENT
?id@?$numpunct@_W@std@@2V0locale@2@A DD 01H DUP (?)	; std::numpunct<wchar_t>::id
_BSS	ENDS
CRT$XCU	SEGMENT
_piecewise_construct$initializer$ DD FLAT:??__Epiecewise_construct@std@@YAXXZ
CRT$XCU	ENDS
;	COMDAT __xmm@41f00000000000000000000000000000
CONST	SEGMENT
__xmm@41f00000000000000000000000000000 DB 00H, 00H, 00H, 00H, 00H, 00H, 00H
	DB	00H, 00H, 00H, 00H, 00H, 00H, 00H, 0f0H, 'A'
CONST	ENDS
;	COMDAT __real@4bf792e8
CONST	SEGMENT
__real@4bf792e8 DD 04bf792e8r			; 3.245e+007
CONST	ENDS
;	COMDAT __real@4479c000
CONST	SEGMENT
__real@4479c000 DD 04479c000r			; 999
CONST	ENDS
;	COMDAT __real@42c80000
CONST	SEGMENT
__real@42c80000 DD 042c80000r			; 100
CONST	ENDS
;	COMDAT __real@42393988
CONST	SEGMENT
__real@42393988 DD 042393988r			; 46.3062
CONST	ENDS
;	COMDAT __real@41f00000
CONST	SEGMENT
__real@41f00000 DD 041f00000r			; 30
CONST	ENDS
;	COMDAT __real@40000000
CONST	SEGMENT
__real@40000000 DD 040000000r			; 2
CONST	ENDS
;	COMDAT __real@3f800000
CONST	SEGMENT
__real@3f800000 DD 03f800000r			; 1
CONST	ENDS
;	COMDAT __real@3f693e32
CONST	SEGMENT
__real@3f693e32 DD 03f693e32r			; 0.911105
CONST	ENDS
;	COMDAT __real@3f400000
CONST	SEGMENT
__real@3f400000 DD 03f400000r			; 0.75
CONST	ENDS
;	COMDAT __real@3f17ac60
CONST	SEGMENT
__real@3f17ac60 DD 03f17ac60r			; 0.592474
CONST	ENDS
;	COMDAT ??_R1A@?0A@EA@_System_error_category@std@@8
rdata$r	SEGMENT
??_R1A@?0A@EA@_System_error_category@std@@8 DD FLAT:??_R0?AV_System_error_category@std@@@8 ; std::_System_error_category::`RTTI Base Class Descriptor at (0,-1,0,64)'
	DD	02H
	DD	00H
	DD	0ffffffffH
	DD	00H
	DD	040H
	DD	FLAT:??_R3_System_error_category@std@@8
rdata$r	ENDS
;	COMDAT ??_R2_System_error_category@std@@8
rdata$r	SEGMENT
??_R2_System_error_category@std@@8 DD FLAT:??_R1A@?0A@EA@_System_error_category@std@@8 ; std::_System_error_category::`RTTI Base Class Array'
	DD	FLAT:??_R1A@?0A@EA@_Generic_error_category@std@@8
	DD	FLAT:??_R1A@?0A@EA@error_category@std@@8
rdata$r	ENDS
;	COMDAT ??_R3_System_error_category@std@@8
rdata$r	SEGMENT
??_R3_System_error_category@std@@8 DD 00H		; std::_System_error_category::`RTTI Class Hierarchy Descriptor'
	DD	00H
	DD	03H
	DD	FLAT:??_R2_System_error_category@std@@8
rdata$r	ENDS
;	COMDAT ??_R0?AV_System_error_category@std@@@8
_DATA	SEGMENT
??_R0?AV_System_error_category@std@@@8 DD FLAT:??_7type_info@@6B@ ; std::_System_error_category `RTTI Type Descriptor'
	DD	00H
	DB	'.?AV_System_error_category@std@@', 00H
_DATA	ENDS
;	COMDAT ??_R4_System_error_category@std@@6B@
rdata$r	SEGMENT
??_R4_System_error_category@std@@6B@ DD 00H		; std::_System_error_category::`RTTI Complete Object Locator'
	DD	00H
	DD	00H
	DD	FLAT:??_R0?AV_System_error_category@std@@@8
	DD	FLAT:??_R3_System_error_category@std@@8
rdata$r	ENDS
;	COMDAT ??_R1A@?0A@EA@_Iostream_error_category@std@@8
rdata$r	SEGMENT
??_R1A@?0A@EA@_Iostream_error_category@std@@8 DD FLAT:??_R0?AV_Iostream_error_category@std@@@8 ; std::_Iostream_error_category::`RTTI Base Class Descriptor at (0,-1,0,64)'
	DD	02H
	DD	00H
	DD	0ffffffffH
	DD	00H
	DD	040H
	DD	FLAT:??_R3_Iostream_error_category@std@@8
rdata$r	ENDS
;	COMDAT ??_R2_Iostream_error_category@std@@8
rdata$r	SEGMENT
??_R2_Iostream_error_category@std@@8 DD FLAT:??_R1A@?0A@EA@_Iostream_error_category@std@@8 ; std::_Iostream_error_category::`RTTI Base Class Array'
	DD	FLAT:??_R1A@?0A@EA@_Generic_error_category@std@@8
	DD	FLAT:??_R1A@?0A@EA@error_category@std@@8
rdata$r	ENDS
;	COMDAT ??_R3_Iostream_error_category@std@@8
rdata$r	SEGMENT
??_R3_Iostream_error_category@std@@8 DD 00H		; std::_Iostream_error_category::`RTTI Class Hierarchy Descriptor'
	DD	00H
	DD	03H
	DD	FLAT:??_R2_Iostream_error_category@std@@8
rdata$r	ENDS
;	COMDAT ??_R0?AV_Iostream_error_category@std@@@8
_DATA	SEGMENT
??_R0?AV_Iostream_error_category@std@@@8 DD FLAT:??_7type_info@@6B@ ; std::_Iostream_error_category `RTTI Type Descriptor'
	DD	00H
	DB	'.?AV_Iostream_error_category@std@@', 00H
_DATA	ENDS
;	COMDAT ??_R4_Iostream_error_category@std@@6B@
rdata$r	SEGMENT
??_R4_Iostream_error_category@std@@6B@ DD 00H		; std::_Iostream_error_category::`RTTI Complete Object Locator'
	DD	00H
	DD	00H
	DD	FLAT:??_R0?AV_Iostream_error_category@std@@@8
	DD	FLAT:??_R3_Iostream_error_category@std@@8
rdata$r	ENDS
;	COMDAT ??_R1A@?0A@EA@_Generic_error_category@std@@8
rdata$r	SEGMENT
??_R1A@?0A@EA@_Generic_error_category@std@@8 DD FLAT:??_R0?AV_Generic_error_category@std@@@8 ; std::_Generic_error_category::`RTTI Base Class Descriptor at (0,-1,0,64)'
	DD	01H
	DD	00H
	DD	0ffffffffH
	DD	00H
	DD	040H
	DD	FLAT:??_R3_Generic_error_category@std@@8
rdata$r	ENDS
;	COMDAT ??_R2_Generic_error_category@std@@8
rdata$r	SEGMENT
??_R2_Generic_error_category@std@@8 DD FLAT:??_R1A@?0A@EA@_Generic_error_category@std@@8 ; std::_Generic_error_category::`RTTI Base Class Array'
	DD	FLAT:??_R1A@?0A@EA@error_category@std@@8
rdata$r	ENDS
;	COMDAT ??_R3_Generic_error_category@std@@8
rdata$r	SEGMENT
??_R3_Generic_error_category@std@@8 DD 00H		; std::_Generic_error_category::`RTTI Class Hierarchy Descriptor'
	DD	00H
	DD	02H
	DD	FLAT:??_R2_Generic_error_category@std@@8
rdata$r	ENDS
;	COMDAT ??_R0?AV_Generic_error_category@std@@@8
_DATA	SEGMENT
??_R0?AV_Generic_error_category@std@@@8 DD FLAT:??_7type_info@@6B@ ; std::_Generic_error_category `RTTI Type Descriptor'
	DD	00H
	DB	'.?AV_Generic_error_category@std@@', 00H
_DATA	ENDS
;	COMDAT ??_R4_Generic_error_category@std@@6B@
rdata$r	SEGMENT
??_R4_Generic_error_category@std@@6B@ DD 00H		; std::_Generic_error_category::`RTTI Complete Object Locator'
	DD	00H
	DD	00H
	DD	FLAT:??_R0?AV_Generic_error_category@std@@@8
	DD	FLAT:??_R3_Generic_error_category@std@@8
rdata$r	ENDS
;	COMDAT ??_R1A@?0A@EA@error_category@std@@8
rdata$r	SEGMENT
??_R1A@?0A@EA@error_category@std@@8 DD FLAT:??_R0?AVerror_category@std@@@8 ; std::error_category::`RTTI Base Class Descriptor at (0,-1,0,64)'
	DD	00H
	DD	00H
	DD	0ffffffffH
	DD	00H
	DD	040H
	DD	FLAT:??_R3error_category@std@@8
rdata$r	ENDS
;	COMDAT ??_R2error_category@std@@8
rdata$r	SEGMENT
??_R2error_category@std@@8 DD FLAT:??_R1A@?0A@EA@error_category@std@@8 ; std::error_category::`RTTI Base Class Array'
rdata$r	ENDS
;	COMDAT ??_R3error_category@std@@8
rdata$r	SEGMENT
??_R3error_category@std@@8 DD 00H			; std::error_category::`RTTI Class Hierarchy Descriptor'
	DD	00H
	DD	01H
	DD	FLAT:??_R2error_category@std@@8
rdata$r	ENDS
;	COMDAT ??_R0?AVerror_category@std@@@8
_DATA	SEGMENT
??_R0?AVerror_category@std@@@8 DD FLAT:??_7type_info@@6B@ ; std::error_category `RTTI Type Descriptor'
	DD	00H
	DB	'.?AVerror_category@std@@', 00H
_DATA	ENDS
;	COMDAT ??_R4error_category@std@@6B@
rdata$r	SEGMENT
??_R4error_category@std@@6B@ DD 00H			; std::error_category::`RTTI Complete Object Locator'
	DD	00H
	DD	00H
	DD	FLAT:??_R0?AVerror_category@std@@@8
	DD	FLAT:??_R3error_category@std@@8
rdata$r	ENDS
;	COMDAT ??_R2VuEntity@@8
rdata$r	SEGMENT
??_R2VuEntity@@8 DD FLAT:??_R1A@?0A@EA@VuEntity@@8	; VuEntity::`RTTI Base Class Array'
rdata$r	ENDS
;	COMDAT ??_R3VuEntity@@8
rdata$r	SEGMENT
??_R3VuEntity@@8 DD 00H					; VuEntity::`RTTI Class Hierarchy Descriptor'
	DD	00H
	DD	01H
	DD	FLAT:??_R2VuEntity@@8
rdata$r	ENDS
;	COMDAT ??_R0?AVVuEntity@@@8
_DATA	SEGMENT
??_R0?AVVuEntity@@@8 DD FLAT:??_7type_info@@6B@		; VuEntity `RTTI Type Descriptor'
	DD	00H
	DB	'.?AVVuEntity@@', 00H
_DATA	ENDS
;	COMDAT ??_R1A@?0A@EA@VuEntity@@8
rdata$r	SEGMENT
??_R1A@?0A@EA@VuEntity@@8 DD FLAT:??_R0?AVVuEntity@@@8	; VuEntity::`RTTI Base Class Descriptor at (0,-1,0,64)'
	DD	00H
	DD	00H
	DD	0ffffffffH
	DD	00H
	DD	040H
	DD	FLAT:??_R3VuEntity@@8
rdata$r	ENDS
;	COMDAT ??_R2FalconEntity@@8
rdata$r	SEGMENT
??_R2FalconEntity@@8 DD FLAT:??_R1A@?0A@EA@FalconEntity@@8 ; FalconEntity::`RTTI Base Class Array'
	DD	FLAT:??_R1A@?0A@EA@VuEntity@@8
rdata$r	ENDS
;	COMDAT ??_R3FalconEntity@@8
rdata$r	SEGMENT
??_R3FalconEntity@@8 DD 00H				; FalconEntity::`RTTI Class Hierarchy Descriptor'
	DD	00H
	DD	02H
	DD	FLAT:??_R2FalconEntity@@8
rdata$r	ENDS
;	COMDAT ??_R0?AVFalconEntity@@@8
_DATA	SEGMENT
??_R0?AVFalconEntity@@@8 DD FLAT:??_7type_info@@6B@	; FalconEntity `RTTI Type Descriptor'
	DD	00H
	DB	'.?AVFalconEntity@@', 00H
_DATA	ENDS
;	COMDAT ??_R1A@?0A@EA@FalconEntity@@8
rdata$r	SEGMENT
??_R1A@?0A@EA@FalconEntity@@8 DD FLAT:??_R0?AVFalconEntity@@@8 ; FalconEntity::`RTTI Base Class Descriptor at (0,-1,0,64)'
	DD	01H
	DD	00H
	DD	0ffffffffH
	DD	00H
	DD	040H
	DD	FLAT:??_R3FalconEntity@@8
rdata$r	ENDS
;	COMDAT ??_R2CampBaseClass@@8
rdata$r	SEGMENT
??_R2CampBaseClass@@8 DD FLAT:??_R1A@?0A@EA@CampBaseClass@@8 ; CampBaseClass::`RTTI Base Class Array'
	DD	FLAT:??_R1A@?0A@EA@FalconEntity@@8
	DD	FLAT:??_R1A@?0A@EA@VuEntity@@8
rdata$r	ENDS
;	COMDAT ??_R3CampBaseClass@@8
rdata$r	SEGMENT
??_R3CampBaseClass@@8 DD 00H				; CampBaseClass::`RTTI Class Hierarchy Descriptor'
	DD	00H
	DD	03H
	DD	FLAT:??_R2CampBaseClass@@8
rdata$r	ENDS
;	COMDAT ??_R0?AVCampBaseClass@@@8
_DATA	SEGMENT
??_R0?AVCampBaseClass@@@8 DD FLAT:??_7type_info@@6B@	; CampBaseClass `RTTI Type Descriptor'
	DD	00H
	DB	'.?AVCampBaseClass@@', 00H
_DATA	ENDS
;	COMDAT ??_R1A@?0A@EA@CampBaseClass@@8
rdata$r	SEGMENT
??_R1A@?0A@EA@CampBaseClass@@8 DD FLAT:??_R0?AVCampBaseClass@@@8 ; CampBaseClass::`RTTI Base Class Descriptor at (0,-1,0,64)'
	DD	02H
	DD	00H
	DD	0ffffffffH
	DD	00H
	DD	040H
	DD	FLAT:??_R3CampBaseClass@@8
rdata$r	ENDS
;	COMDAT ??_R2UnitClass@@8
rdata$r	SEGMENT
??_R2UnitClass@@8 DD FLAT:??_R1A@?0A@EA@UnitClass@@8	; UnitClass::`RTTI Base Class Array'
	DD	FLAT:??_R1A@?0A@EA@CampBaseClass@@8
	DD	FLAT:??_R1A@?0A@EA@FalconEntity@@8
	DD	FLAT:??_R1A@?0A@EA@VuEntity@@8
rdata$r	ENDS
;	COMDAT ??_R3UnitClass@@8
rdata$r	SEGMENT
??_R3UnitClass@@8 DD 00H				; UnitClass::`RTTI Class Hierarchy Descriptor'
	DD	00H
	DD	04H
	DD	FLAT:??_R2UnitClass@@8
rdata$r	ENDS
;	COMDAT ??_R0?AVUnitClass@@@8
_DATA	SEGMENT
??_R0?AVUnitClass@@@8 DD FLAT:??_7type_info@@6B@	; UnitClass `RTTI Type Descriptor'
	DD	00H
	DB	'.?AVUnitClass@@', 00H
_DATA	ENDS
;	COMDAT ??_R1A@?0A@EA@UnitClass@@8
rdata$r	SEGMENT
??_R1A@?0A@EA@UnitClass@@8 DD FLAT:??_R0?AVUnitClass@@@8 ; UnitClass::`RTTI Base Class Descriptor at (0,-1,0,64)'
	DD	03H
	DD	00H
	DD	0ffffffffH
	DD	00H
	DD	040H
	DD	FLAT:??_R3UnitClass@@8
rdata$r	ENDS
;	COMDAT ??_R2AirUnitClass@@8
rdata$r	SEGMENT
??_R2AirUnitClass@@8 DD FLAT:??_R1A@?0A@EA@AirUnitClass@@8 ; AirUnitClass::`RTTI Base Class Array'
	DD	FLAT:??_R1A@?0A@EA@UnitClass@@8
	DD	FLAT:??_R1A@?0A@EA@CampBaseClass@@8
	DD	FLAT:??_R1A@?0A@EA@FalconEntity@@8
	DD	FLAT:??_R1A@?0A@EA@VuEntity@@8
rdata$r	ENDS
;	COMDAT ??_R3AirUnitClass@@8
rdata$r	SEGMENT
??_R3AirUnitClass@@8 DD 00H				; AirUnitClass::`RTTI Class Hierarchy Descriptor'
	DD	00H
	DD	05H
	DD	FLAT:??_R2AirUnitClass@@8
rdata$r	ENDS
;	COMDAT ??_R0?AVAirUnitClass@@@8
_DATA	SEGMENT
??_R0?AVAirUnitClass@@@8 DD FLAT:??_7type_info@@6B@	; AirUnitClass `RTTI Type Descriptor'
	DD	00H
	DB	'.?AVAirUnitClass@@', 00H
_DATA	ENDS
;	COMDAT ??_R1A@?0A@EA@AirUnitClass@@8
rdata$r	SEGMENT
??_R1A@?0A@EA@AirUnitClass@@8 DD FLAT:??_R0?AVAirUnitClass@@@8 ; AirUnitClass::`RTTI Base Class Descriptor at (0,-1,0,64)'
	DD	04H
	DD	00H
	DD	0ffffffffH
	DD	00H
	DD	040H
	DD	FLAT:??_R3AirUnitClass@@8
rdata$r	ENDS
;	COMDAT ??_R1A@?0A@EA@SquadronClass@@8
rdata$r	SEGMENT
??_R1A@?0A@EA@SquadronClass@@8 DD FLAT:??_R0?AVSquadronClass@@@8 ; SquadronClass::`RTTI Base Class Descriptor at (0,-1,0,64)'
	DD	05H
	DD	00H
	DD	0ffffffffH
	DD	00H
	DD	040H
	DD	FLAT:??_R3SquadronClass@@8
rdata$r	ENDS
;	COMDAT ??_R2SquadronClass@@8
rdata$r	SEGMENT
??_R2SquadronClass@@8 DD FLAT:??_R1A@?0A@EA@SquadronClass@@8 ; SquadronClass::`RTTI Base Class Array'
	DD	FLAT:??_R1A@?0A@EA@AirUnitClass@@8
	DD	FLAT:??_R1A@?0A@EA@UnitClass@@8
	DD	FLAT:??_R1A@?0A@EA@CampBaseClass@@8
	DD	FLAT:??_R1A@?0A@EA@FalconEntity@@8
	DD	FLAT:??_R1A@?0A@EA@VuEntity@@8
rdata$r	ENDS
;	COMDAT ??_R3SquadronClass@@8
rdata$r	SEGMENT
??_R3SquadronClass@@8 DD 00H				; SquadronClass::`RTTI Class Hierarchy Descriptor'
	DD	00H
	DD	06H
	DD	FLAT:??_R2SquadronClass@@8
rdata$r	ENDS
;	COMDAT ??_R0?AVSquadronClass@@@8
_DATA	SEGMENT
??_R0?AVSquadronClass@@@8 DD FLAT:??_7type_info@@6B@	; SquadronClass `RTTI Type Descriptor'
	DD	00H
	DB	'.?AVSquadronClass@@', 00H
_DATA	ENDS
;	COMDAT ??_R4SquadronClass@@6B@
rdata$r	SEGMENT
??_R4SquadronClass@@6B@ DD 00H				; SquadronClass::`RTTI Complete Object Locator'
	DD	00H
	DD	00H
	DD	FLAT:??_R0?AVSquadronClass@@@8
	DD	FLAT:??_R3SquadronClass@@8
rdata$r	ENDS
;	COMDAT ??_R1A@?0A@EA@InvalidBufferException@@8
rdata$r	SEGMENT
??_R1A@?0A@EA@InvalidBufferException@@8 DD FLAT:??_R0?AVInvalidBufferException@@@8 ; InvalidBufferException::`RTTI Base Class Descriptor at (0,-1,0,64)'
	DD	03H
	DD	00H
	DD	0ffffffffH
	DD	00H
	DD	040H
	DD	FLAT:??_R3InvalidBufferException@@8
rdata$r	ENDS
;	COMDAT ??_R2InvalidBufferException@@8
rdata$r	SEGMENT
??_R2InvalidBufferException@@8 DD FLAT:??_R1A@?0A@EA@InvalidBufferException@@8 ; InvalidBufferException::`RTTI Base Class Array'
	DD	FLAT:??_R1A@?0A@EA@out_of_range@std@@8
	DD	FLAT:??_R1A@?0A@EA@logic_error@std@@8
	DD	FLAT:??_R1A@?0A@EA@exception@std@@8
rdata$r	ENDS
;	COMDAT ??_R3InvalidBufferException@@8
rdata$r	SEGMENT
??_R3InvalidBufferException@@8 DD 00H			; InvalidBufferException::`RTTI Class Hierarchy Descriptor'
	DD	00H
	DD	04H
	DD	FLAT:??_R2InvalidBufferException@@8
rdata$r	ENDS
;	COMDAT ??_R4InvalidBufferException@@6B@
rdata$r	SEGMENT
??_R4InvalidBufferException@@6B@ DD 00H			; InvalidBufferException::`RTTI Complete Object Locator'
	DD	00H
	DD	00H
	DD	FLAT:??_R0?AVInvalidBufferException@@@8
	DD	FLAT:??_R3InvalidBufferException@@8
rdata$r	ENDS
;	COMDAT ??_R1A@?0A@EA@out_of_range@std@@8
rdata$r	SEGMENT
??_R1A@?0A@EA@out_of_range@std@@8 DD FLAT:??_R0?AVout_of_range@std@@@8 ; std::out_of_range::`RTTI Base Class Descriptor at (0,-1,0,64)'
	DD	02H
	DD	00H
	DD	0ffffffffH
	DD	00H
	DD	040H
	DD	FLAT:??_R3out_of_range@std@@8
rdata$r	ENDS
;	COMDAT ??_R2out_of_range@std@@8
rdata$r	SEGMENT
??_R2out_of_range@std@@8 DD FLAT:??_R1A@?0A@EA@out_of_range@std@@8 ; std::out_of_range::`RTTI Base Class Array'
	DD	FLAT:??_R1A@?0A@EA@logic_error@std@@8
	DD	FLAT:??_R1A@?0A@EA@exception@std@@8
rdata$r	ENDS
;	COMDAT ??_R3out_of_range@std@@8
rdata$r	SEGMENT
??_R3out_of_range@std@@8 DD 00H				; std::out_of_range::`RTTI Class Hierarchy Descriptor'
	DD	00H
	DD	03H
	DD	FLAT:??_R2out_of_range@std@@8
rdata$r	ENDS
;	COMDAT ??_R4out_of_range@std@@6B@
rdata$r	SEGMENT
??_R4out_of_range@std@@6B@ DD 00H			; std::out_of_range::`RTTI Complete Object Locator'
	DD	00H
	DD	00H
	DD	FLAT:??_R0?AVout_of_range@std@@@8
	DD	FLAT:??_R3out_of_range@std@@8
rdata$r	ENDS
;	COMDAT ??_R1A@?0A@EA@logic_error@std@@8
rdata$r	SEGMENT
??_R1A@?0A@EA@logic_error@std@@8 DD FLAT:??_R0?AVlogic_error@std@@@8 ; std::logic_error::`RTTI Base Class Descriptor at (0,-1,0,64)'
	DD	01H
	DD	00H
	DD	0ffffffffH
	DD	00H
	DD	040H
	DD	FLAT:??_R3logic_error@std@@8
rdata$r	ENDS
;	COMDAT ??_R2logic_error@std@@8
rdata$r	SEGMENT
??_R2logic_error@std@@8 DD FLAT:??_R1A@?0A@EA@logic_error@std@@8 ; std::logic_error::`RTTI Base Class Array'
	DD	FLAT:??_R1A@?0A@EA@exception@std@@8
rdata$r	ENDS
;	COMDAT ??_R3logic_error@std@@8
rdata$r	SEGMENT
??_R3logic_error@std@@8 DD 00H				; std::logic_error::`RTTI Class Hierarchy Descriptor'
	DD	00H
	DD	02H
	DD	FLAT:??_R2logic_error@std@@8
rdata$r	ENDS
;	COMDAT ??_R4logic_error@std@@6B@
rdata$r	SEGMENT
??_R4logic_error@std@@6B@ DD 00H			; std::logic_error::`RTTI Complete Object Locator'
	DD	00H
	DD	00H
	DD	FLAT:??_R0?AVlogic_error@std@@@8
	DD	FLAT:??_R3logic_error@std@@8
rdata$r	ENDS
;	COMDAT ??_R2exception@std@@8
rdata$r	SEGMENT
??_R2exception@std@@8 DD FLAT:??_R1A@?0A@EA@exception@std@@8 ; std::exception::`RTTI Base Class Array'
rdata$r	ENDS
;	COMDAT ??_R3exception@std@@8
rdata$r	SEGMENT
??_R3exception@std@@8 DD 00H				; std::exception::`RTTI Class Hierarchy Descriptor'
	DD	00H
	DD	01H
	DD	FLAT:??_R2exception@std@@8
rdata$r	ENDS
;	COMDAT ??_R1A@?0A@EA@exception@std@@8
rdata$r	SEGMENT
??_R1A@?0A@EA@exception@std@@8 DD FLAT:??_R0?AVexception@std@@@8 ; std::exception::`RTTI Base Class Descriptor at (0,-1,0,64)'
	DD	00H
	DD	00H
	DD	0ffffffffH
	DD	00H
	DD	040H
	DD	FLAT:??_R3exception@std@@8
rdata$r	ENDS
;	COMDAT ??_C@_0BA@JFNIOLAK@string?5too?5long?$AA@
CONST	SEGMENT
??_C@_0BA@JFNIOLAK@string?5too?5long?$AA@ DB 'string too long', 00H ; `string'
CONST	ENDS
;	COMDAT ??_C@_0BI@CFPLBAOH@invalid?5string?5position?$AA@
CONST	SEGMENT
??_C@_0BI@CFPLBAOH@invalid?5string?5position?$AA@ DB 'invalid string posi'
	DB	'tion', 00H					; `string'
CONST	ENDS
;	COMDAT ??_C@_0BE@LJCJGFEG@?$CF08x?5SquadronClass?5?$AA@
CONST	SEGMENT
??_C@_0BE@LJCJGFEG@?$CF08x?5SquadronClass?5?$AA@ DB '%08x SquadronClass ', 00H ; `string'
CONST	ENDS
;	COMDAT ??_C@_06FHFOAHML@system?$AA@
CONST	SEGMENT
??_C@_06FHFOAHML@system?$AA@ DB 'system', 00H		; `string'
CONST	ENDS
;	COMDAT ??_7_System_error_category@std@@6B@
CONST	SEGMENT
??_7_System_error_category@std@@6B@ DD FLAT:??_R4_System_error_category@std@@6B@ ; std::_System_error_category::`vftable'
	DD	FLAT:??_E_System_error_category@std@@UAEPAXI@Z
	DD	FLAT:?name@_System_error_category@std@@UBEPBDXZ
	DD	FLAT:?message@_System_error_category@std@@UBE?AV?$basic_string@DU?$char_traits@D@std@@V?$allocator@D@2@@2@H@Z
	DD	FLAT:?default_error_condition@_System_error_category@std@@UBE?AVerror_condition@2@H@Z
	DD	FLAT:?equivalent@error_category@std@@UBE_NABVerror_code@2@H@Z
	DD	FLAT:?equivalent@error_category@std@@UBE_NHABVerror_condition@2@@Z
CONST	ENDS
;	COMDAT ??_C@_0BG@PADBLCHM@iostream?5stream?5error?$AA@
CONST	SEGMENT
??_C@_0BG@PADBLCHM@iostream?5stream?5error?$AA@ DB 'iostream stream error'
	DB	00H						; `string'
CONST	ENDS
;	COMDAT ??_C@_08LLGCOLLL@iostream?$AA@
CONST	SEGMENT
??_C@_08LLGCOLLL@iostream?$AA@ DB 'iostream', 00H	; `string'
CONST	ENDS
;	COMDAT ??_7_Iostream_error_category@std@@6B@
CONST	SEGMENT
??_7_Iostream_error_category@std@@6B@ DD FLAT:??_R4_Iostream_error_category@std@@6B@ ; std::_Iostream_error_category::`vftable'
	DD	FLAT:??_E_Iostream_error_category@std@@UAEPAXI@Z
	DD	FLAT:?name@_Iostream_error_category@std@@UBEPBDXZ
	DD	FLAT:?message@_Iostream_error_category@std@@UBE?AV?$basic_string@DU?$char_traits@D@std@@V?$allocator@D@2@@2@H@Z
	DD	FLAT:?default_error_condition@error_category@std@@UBE?AVerror_condition@2@H@Z
	DD	FLAT:?equivalent@error_category@std@@UBE_NABVerror_code@2@H@Z
	DD	FLAT:?equivalent@error_category@std@@UBE_NHABVerror_condition@2@@Z
CONST	ENDS
;	COMDAT ??_C@_0O@BFJCFAAK@unknown?5error?$AA@
CONST	SEGMENT
??_C@_0O@BFJCFAAK@unknown?5error?$AA@ DB 'unknown error', 00H ; `string'
CONST	ENDS
;	COMDAT ??_C@_07DCLBNMLN@generic?$AA@
CONST	SEGMENT
??_C@_07DCLBNMLN@generic?$AA@ DB 'generic', 00H		; `string'
CONST	ENDS
;	COMDAT ??_7_Generic_error_category@std@@6B@
CONST	SEGMENT
??_7_Generic_error_category@std@@6B@ DD FLAT:??_R4_Generic_error_category@std@@6B@ ; std::_Generic_error_category::`vftable'
	DD	FLAT:??_E_Generic_error_category@std@@UAEPAXI@Z
	DD	FLAT:?name@_Generic_error_category@std@@UBEPBDXZ
	DD	FLAT:?message@_Generic_error_category@std@@UBE?AV?$basic_string@DU?$char_traits@D@std@@V?$allocator@D@2@@2@H@Z
	DD	FLAT:?default_error_condition@error_category@std@@UBE?AVerror_condition@2@H@Z
	DD	FLAT:?equivalent@error_category@std@@UBE_NABVerror_code@2@H@Z
	DD	FLAT:?equivalent@error_category@std@@UBE_NHABVerror_condition@2@@Z
CONST	ENDS
;	COMDAT ??_7error_category@std@@6B@
CONST	SEGMENT
??_7error_category@std@@6B@ DD FLAT:??_R4error_category@std@@6B@ ; std::error_category::`vftable'
	DD	FLAT:??_Eerror_category@std@@UAEPAXI@Z
	DD	FLAT:__purecall
	DD	FLAT:__purecall
	DD	FLAT:?default_error_condition@error_category@std@@UBE?AVerror_condition@2@H@Z
	DD	FLAT:?equivalent@error_category@std@@UBE_NABVerror_code@2@H@Z
	DD	FLAT:?equivalent@error_category@std@@UBE_NHABVerror_condition@2@@Z
CONST	ENDS
;	COMDAT ??_7SquadronClass@@6B@
CONST	SEGMENT
??_7SquadronClass@@6B@ DD FLAT:??_R4SquadronClass@@6B@	; SquadronClass::`vftable'
	DD	FLAT:?CustomCollisionCheck@VuEntity@@UAEEPAV1@M@Z
	DD	FLAT:?TerrainCollisionCheck@VuEntity@@UAEEXZ
	DD	FLAT:?IsTarget@VuEntity@@UAEEXZ
	DD	FLAT:?IsSession@VuEntity@@UAEEXZ
	DD	FLAT:?IsGroup@VuEntity@@UAEEXZ
	DD	FLAT:?IsGame@VuEntity@@UAEEXZ
	DD	FLAT:?IsCamera@VuEntity@@UBEEXZ
	DD	FLAT:?SaveSize@SquadronClass@@UAEHXZ
	DD	FLAT:?Save@FalconEntity@@UAEHPAU_iobuf@@@Z
	DD	FLAT:?Save@SquadronClass@@UAEHPAPAE@Z
	DD	FLAT:?Handle@CampBaseClass@@UAEHPAVVuSessionEvent@@@Z
	DD	FLAT:?Handle@CampBaseClass@@UAEHPAVVuTransferEvent@@@Z
	DD	FLAT:?Handle@CampBaseClass@@UAEHPAVVuEntityCollisionEvent@@@Z
	DD	FLAT:?Handle@CampBaseClass@@UAEHPAVVuPositionUpdateEvent@@@Z
	DD	FLAT:?Handle@SquadronClass@@UAEHPAVVuFullUpdateEvent@@@Z
	DD	FLAT:?Handle@CampBaseClass@@UAEHPAVVuEvent@@@Z
	DD	FLAT:?Handle@VuEntity@@UAEHPAVVuPullRequest@@@Z
	DD	FLAT:?Handle@VuEntity@@UAEHPAVVuPushRequest@@@Z
	DD	FLAT:?Handle@VuEntity@@UAEHPAVVuErrorMessage@@@Z
	DD	FLAT:??_ESquadronClass@@UAEPAXI@Z
	DD	FLAT:?InsertionCallback@VuEntity@@MAEHXZ
	DD	FLAT:?RemovalCallback@FalconEntity@@UAEHXZ
	DD	FLAT:?InitData@CampBaseClass@@UAEXXZ
	DD	FLAT:?CleanupData@FalconEntity@@UAEXXZ
	DD	FLAT:?IsSimBase@FalconEntity@@UAE_NXZ
	DD	FLAT:?IsCampBase@CampBaseClass@@UAE_NXZ
	DD	FLAT:?Wake@UnitClass@@UAEHXZ
	DD	FLAT:?Sleep@UnitClass@@UAEHXZ
	DD	FLAT:?GetCampID@CampBaseClass@@UAEFXZ
	DD	FLAT:?GetTeam@CampBaseClass@@UAEEXZ
	DD	FLAT:?GetCountry@CampBaseClass@@UAEEXZ
	DD	FLAT:?GetDomain@FalconEntity@@UAEEXZ
	DD	FLAT:?GetRadarMode@FalconEntity@@UAEHXZ
	DD	FLAT:?SetRadarMode@FalconEntity@@UAEXE@Z
	DD	FLAT:?ReturnToSearch@FalconEntity@@UAEXXZ
	DD	FLAT:?SetSearchMode@FalconEntity@@UAEXE@Z
	DD	FLAT:?CombatClass@FalconEntity@@UAEHXZ
	DD	FLAT:?OnGround@AirUnitClass@@UAEHXZ
	DD	FLAT:?HasEntity@CampBaseClass@@UBEHPAVVuEntity@@@Z
	DD	FLAT:?IsMissile@FalconEntity@@UAEHXZ
	DD	FLAT:?IsLauncher@FalconEntity@@UAEHXZ
	DD	FLAT:?IsBomb@FalconEntity@@UAEHXZ
	DD	FLAT:?IsGun@FalconEntity@@UAEHXZ
	DD	FLAT:?IsMover@FalconEntity@@UAEHXZ
	DD	FLAT:?IsVehicle@FalconEntity@@UAEHXZ
	DD	FLAT:?IsStatic@FalconEntity@@UAEHXZ
	DD	FLAT:?IsHelicopter@FalconEntity@@UAEHXZ
	DD	FLAT:?IsEject@FalconEntity@@UAEHXZ
	DD	FLAT:?IsAirplane@FalconEntity@@UAEHXZ
	DD	FLAT:?IsGroundVehicle@FalconEntity@@UAEHXZ
	DD	FLAT:?IsShip@FalconEntity@@UAEHXZ
	DD	FLAT:?IsWeapon@FalconEntity@@UAEHXZ
	DD	FLAT:?IsExploding@FalconEntity@@UAEHXZ
	DD	FLAT:?IsDead@FalconEntity@@UAEHXZ
	DD	FLAT:?IsEmitting@CampBaseClass@@UAEHXZ
	DD	FLAT:?GetVt@AirUnitClass@@UBEMXZ
	DD	FLAT:?GetKias@AirUnitClass@@UBEMXZ
	DD	FLAT:?GetMovementType@AirUnitClass@@UAE?AW4MoveType@@XZ
	DD	FLAT:?IsUnit@UnitClass@@UAEHXZ
	DD	FLAT:?IsObjective@FalconEntity@@UAEHXZ
	DD	FLAT:?IsBattalion@FalconEntity@@UAEHXZ
	DD	FLAT:?IsBrigade@FalconEntity@@UAEHXZ
	DD	FLAT:?IsFlight@FalconEntity@@UBEHXZ
	DD	FLAT:?IsSquadron@SquadronClass@@UAEHXZ
	DD	FLAT:?IsPackage@FalconEntity@@UAEHXZ
	DD	FLAT:?IsTeam@FalconEntity@@UAEHXZ
	DD	FLAT:?IsTaskForce@FalconEntity@@UAEHXZ
	DD	FLAT:?IsSPJamming@FalconEntity@@UAEHXZ
	DD	FLAT:?IsAreaJamming@FalconEntity@@UAEHXZ
	DD	FLAT:?HasSPJamming@FalconEntity@@UAEHXZ
	DD	FLAT:?HasAreaJamming@FalconEntity@@UAEHXZ
	DD	FLAT:?GetRCSFactor@UnitClass@@UAEMXZ
	DD	FLAT:?GetIRFactor@UnitClass@@UAEMXZ
	DD	FLAT:?GetRadarType@UnitClass@@UAEHXZ
	DD	FLAT:?GetDamageModifiers@UnitClass@@UAEPAEXZ
	DD	FLAT:?SetAQUIREtimer@FalconEntity@@UAEXK@Z
	DD	FLAT:?SetSEARCHtimer@FalconEntity@@UAEXK@Z
	DD	FLAT:?SetStepSearchMode@FalconEntity@@UAEXE@Z
	DD	FLAT:?GetAQUIREtimer@FalconEntity@@UAEKXZ
	DD	FLAT:?GetSEARCHtimer@FalconEntity@@UAEKXZ
	DD	FLAT:?SetOwner@CampBaseClass@@UAEXE@Z
	DD	FLAT:?SendDeaggregateData@UnitClass@@UAEXPAVVuTargetEntity@@@Z
	DD	FLAT:?RecordCurrentState@UnitClass@@UAEHPAVFalconSessionEntity@@H@Z
	DD	FLAT:?Deaggregate@UnitClass@@UAEHPAVFalconSessionEntity@@@Z
	DD	FLAT:?Reaggregate@UnitClass@@UAEHPAVFalconSessionEntity@@@Z
	DD	FLAT:?TransferOwnership@UnitClass@@UAEHPAVFalconSessionEntity@@@Z
	DD	FLAT:?InsertInSimLists@UnitClass@@UAEXMM@Z
	DD	FLAT:?RemoveFromSimLists@UnitClass@@UAEXXZ
	DD	FLAT:?DeaggregateFromData@UnitClass@@UAEXPAEJ@Z
	DD	FLAT:?ReaggregateFromData@UnitClass@@UAEXPAEJ@Z
	DD	FLAT:?TransferOwnershipFromData@UnitClass@@UAEXPAEJ@Z
	DD	FLAT:?ApplyDamage@UnitClass@@UAEHW4DamageDataType@@PAHHF@Z
	DD	FLAT:?ApplyDamage@UnitClass@@UAEHPAVFalconCampWeaponsFire@@E@Z
	DD	FLAT:?DecodeDamageData@UnitClass@@UAEHPAEPAV1@PAVFalconDeathMessage@@@Z
	DD	FLAT:?CollectWeapons@UnitClass@@UAEHPAEW4MoveType@@QAFQAEH@Z
	DD	FLAT:?GetName@UnitClass@@UAEPADPADHH@Z
	DD	FLAT:?GetFullName@UnitClass@@UAEPADPADHH@Z
	DD	FLAT:?GetDivisionName@UnitClass@@UAEPADPADHH@Z
	DD	FLAT:?GetHitChance@UnitClass@@UAEHHH@Z
	DD	FLAT:?GetAproxHitChance@UnitClass@@UAEHHH@Z
	DD	FLAT:?GetCombatStrength@UnitClass@@UAEHHH@Z
	DD	FLAT:?GetAproxCombatStrength@UnitClass@@UAEHHH@Z
	DD	FLAT:?GetWeaponRange@UnitClass@@UAEHHPAVFalconEntity@@@Z
	DD	FLAT:?GetAproxWeaponRange@UnitClass@@UAEHH@Z
	DD	FLAT:?GetDetectionRange@UnitClass@@UAEHH@Z
	DD	FLAT:?GetElectronicDetectionRange@UnitClass@@UAEHH@Z
	DD	FLAT:?CanDetect@UnitClass@@UAEHPAVFalconEntity@@@Z
	DD	FLAT:?StepRadar@CampBaseClass@@UAEHHHM@Z
	DD	FLAT:?GetNumberOfArcs@UnitClass@@UAEHXZ
	DD	FLAT:?GetArcRatio@UnitClass@@UAEMH@Z
	DD	FLAT:?GetArcRange@UnitClass@@UAEMH@Z
	DD	FLAT:?GetArcAngle@UnitClass@@UAEXHPAM0@Z
	DD	FLAT:?GetMissilesFlying@CampBaseClass@@UAEHXZ
	DD	FLAT:?ResetPlayerStatus@UnitClass@@UAEHXZ
	DD	FLAT:?GetComponentLocation@UnitClass@@UAEXPAF0H@Z
	DD	FLAT:?GetComponentAltitude@UnitClass@@UAEHH@Z
	DD	FLAT:?CanShootWeapon@UnitClass@@UAEHH@Z
	DD	FLAT:?GetDeaggregationPoint@UnitClass@@UAEHHPAPAVCampBaseClass@@@Z
	DD	FLAT:?GetUnitDeaggregationData@UnitClass@@UAEPAVUnitDeaggregationData@@XZ
	DD	FLAT:?ShouldDeaggregate@UnitClass@@UAEHXZ
	DD	FLAT:?ClearDeaggregationData@UnitClass@@UAEXXZ
	DD	FLAT:?Reaction@SquadronClass@@UAEHPAVCampBaseClass@@HM@Z
	DD	FLAT:?MoveUnit@SquadronClass@@UAEHK@Z
	DD	FLAT:?DoCombat@UnitClass@@UAEHXZ
	DD	FLAT:?ChooseTactic@SquadronClass@@UAEHXZ
	DD	FLAT:?CheckTactic@SquadronClass@@UAEHH@Z
	DD	FLAT:?Father@UnitClass@@UBEHXZ
	DD	FLAT:?Real@SquadronClass@@UAEHXZ
	DD	FLAT:?AdjustForSupply@UnitClass@@UAEMXZ
	DD	FLAT:?GetUnitSpeed@AirUnitClass@@UBEHXZ
	DD	FLAT:?DetectOnMove@UnitClass@@UAEHXZ
	DD	FLAT:?ChooseTarget@UnitClass@@UAEHXZ
	DD	FLAT:?MaxUpdateTime@AirUnitClass@@UBEKXZ
	DD	FLAT:?CombatTime@UnitClass@@UAEKXZ
	DD	FLAT:?GetUnitSupplyNeed@SquadronClass@@UAEHH@Z
	DD	FLAT:?GetUnitFuelNeed@SquadronClass@@UAEHH@Z
	DD	FLAT:?SupplyUnit@SquadronClass@@UAEXHH@Z
	DD	FLAT:?GetVehicleDeagData@UnitClass@@UAEHPAVSimInitDataClass@@H@Z
	DD	FLAT:?IsDead@UnitClass@@UBEHXZ
	DD	FLAT:?SimSetLocation@UnitClass@@UAEXMMM@Z
	DD	FLAT:?SimSetOrientation@UnitClass@@UAEXMMM@Z
	DD	FLAT:?GetRealPosition@UnitClass@@UAEXPAM00@Z
	DD	FLAT:?GetBestVehicleWeapon@UnitClass@@UAEHHPAEW4MoveType@@HPAH@Z
	DD	FLAT:?GetVehicleHitChance@UnitClass@@UAEHHW4MoveType@@HH@Z
	DD	FLAT:?GetVehicleCombatStrength@UnitClass@@UAEHHW4MoveType@@H@Z
	DD	FLAT:?GetVehicleRange@UnitClass@@UAEHHHPAVFalconEntity@@@Z
	DD	FLAT:?GetUnitWeaponId@UnitClass@@UAEHHH@Z
	DD	FLAT:?GetUnitWeaponCount@UnitClass@@UAEHHH@Z
	DD	FLAT:?SetUnitLastMove@UnitClass@@UAEXK@Z
	DD	FLAT:?SetCombatTime@UnitClass@@UAEXK@Z
	DD	FLAT:?SetBurntFuel@UnitClass@@UAEXJ@Z
	DD	FLAT:?SetUnitMission@UnitClass@@UAEXE@Z
	DD	FLAT:?SetUnitRole@UnitClass@@UAEXE@Z
	DD	FLAT:?SetUnitPriority@UnitClass@@UAEXH@Z
	DD	FLAT:?SetUnitMissionID@UnitClass@@UAEXH@Z
	DD	FLAT:?SetUnitMissionTarget@UnitClass@@UAEXH@Z
	DD	FLAT:?SetUnitTOT@UnitClass@@UAEXK@Z
	DD	FLAT:?SetUnitSquadron@UnitClass@@UAEXVVU_ID@@@Z
	DD	FLAT:?SetUnitAirbase@SquadronClass@@UAEXVVU_ID@@@Z
	DD	FLAT:?SetLoadout@UnitClass@@UAEXPAULoadoutStruct@@H@Z
	DD	FLAT:?GetNumberOfLoadouts@UnitClass@@UAEHXZ
	DD	FLAT:?GetMoveTime@UnitClass@@UAEKXZ
	DD	FLAT:?GetCombatTime@UnitClass@@UAEKXZ
	DD	FLAT:?GetAirTargetID@UnitClass@@UAE?AVVU_ID@@XZ
	DD	FLAT:?GetAirTarget@UnitClass@@UAEPAVFalconEntity@@XZ
	DD	FLAT:?GetBurntFuel@UnitClass@@UAEHXZ
	DD	FLAT:?GetUnitMission@UnitClass@@UAE?AW4MissionTypeEnum@@XZ
	DD	FLAT:?GetUnitNormalRole@UnitClass@@UAEHXZ
	DD	FLAT:?GetUnitCurrentRole@UnitClass@@UBEHXZ
	DD	FLAT:?GetUnitPriority@UnitClass@@UAEHXZ
	DD	FLAT:?GetUnitMissionTarget@UnitClass@@UAEPAVCampBaseClass@@XZ
	DD	FLAT:?GetUnitMissionTargetID@UnitClass@@UAE?AVVU_ID@@XZ
	DD	FLAT:?GetUnitMissionID@UnitClass@@UAEHXZ
	DD	FLAT:?GetUnitTOT@UnitClass@@UAEKXZ
	DD	FLAT:?GetUnitSquadron@UnitClass@@UAEPAV1@XZ
	DD	FLAT:?GetUnitSquadronID@UnitClass@@UAE?AVVU_ID@@XZ
	DD	FLAT:?GetUnitAirbase@SquadronClass@@UAEPAVCampBaseClass@@XZ
	DD	FLAT:?GetUnitAirbaseID@SquadronClass@@UAE?AVVU_ID@@XZ
	DD	FLAT:?LoadWeapons@UnitClass@@UAEHPAXPAEW4MoveType@@HHH@Z
	DD	FLAT:?DumpWeapons@UnitClass@@UAEHXZ
	DD	FLAT:?ETA@UnitClass@@UAEKXZ
	DD	FLAT:?GetKnownEmitters@UnitClass@@UAEPAVFalconPrivateList@@XZ
	DD	FLAT:?BuildMission@UnitClass@@UAEHXZ
	DD	FLAT:?BuildMission@UnitClass@@UAEHPAVMissionRequestClass@@@Z
	DD	FLAT:?IncrementTime@UnitClass@@UAEXK@Z
	DD	FLAT:?UseFuel@SquadronClass@@UAEXJ@Z
	DD	FLAT:?SetUnitSpecialty@SquadronClass@@UAEXH@Z
	DD	FLAT:?SetUnitSupply@UnitClass@@UAEXH@Z
	DD	FLAT:?SetUnitMorale@UnitClass@@UAEXH@Z
	DD	FLAT:?SetSquadronFuel@SquadronClass@@UAEXJ@Z
	DD	FLAT:?SetUnitStores@SquadronClass@@UAEXHE@Z
	DD	FLAT:?SetLastResupply@SquadronClass@@UAEXH@Z
	DD	FLAT:?SetLastResupplyTime@SquadronClass@@UAEXK@Z
	DD	FLAT:?GetUnitSpecialty@SquadronClass@@UAEHXZ
	DD	FLAT:?GetUnitSupply@UnitClass@@UAEHXZ
	DD	FLAT:?GetUnitMorale@UnitClass@@UAEHXZ
	DD	FLAT:?GetSquadronFuel@SquadronClass@@UAEJXZ
	DD	FLAT:?GetUnitStores@SquadronClass@@UAEEH@Z
	DD	FLAT:?GetLastResupplyTime@SquadronClass@@UAEKXZ
	DD	FLAT:?GetLastResupply@SquadronClass@@UAEHXZ
	DD	FLAT:?BuildPackage@UnitClass@@UAEHPAVMissionRequestClass@@PAVFalconPrivateList@@@Z
	DD	FLAT:?HandleRequestReceipt@UnitClass@@UAEXHHVVU_ID@@@Z
	DD	FLAT:?SetUnitAssemblyPoint@UnitClass@@UAEXHFF@Z
	DD	FLAT:?GetUnitAssemblyPoint@UnitClass@@UAEXHPAF0@Z
	DD	FLAT:?SetUnitPrimaryObj@UnitClass@@UAEXVVU_ID@@@Z
	DD	FLAT:?SetUnitSecondaryObj@UnitClass@@UAEXVVU_ID@@@Z
	DD	FLAT:?SetUnitObjective@UnitClass@@UAEXVVU_ID@@@Z
	DD	FLAT:?SetUnitOrders@UnitClass@@UAEXHVVU_ID@@@Z
	DD	FLAT:?SetUnitOrders@UnitClass@@UAEXH@Z
	DD	FLAT:?SetUnitFatigue@UnitClass@@UAEXH@Z
	DD	FLAT:?SetUnitMode@UnitClass@@UAEXH@Z
	DD	FLAT:?SetUnitPosition@UnitClass@@UAEXH@Z
	DD	FLAT:?SetUnitDivision@UnitClass@@UAEXH@Z
	DD	FLAT:?SetUnitHeading@UnitClass@@UAEXH@Z
	DD	FLAT:?GetUnitPrimaryObj@UnitClass@@UAEPAVObjectiveClass@@XZ
	DD	FLAT:?GetUnitSecondaryObj@UnitClass@@UAEPAVObjectiveClass@@XZ
	DD	FLAT:?GetUnitObjective@UnitClass@@UAEPAVObjectiveClass@@XZ
	DD	FLAT:?GetUnitPrimaryObjID@UnitClass@@UAE?AVVU_ID@@XZ
	DD	FLAT:?GetUnitSecondaryObjID@UnitClass@@UAE?AVVU_ID@@XZ
	DD	FLAT:?GetUnitObjectiveID@UnitClass@@UAE?AVVU_ID@@XZ
	DD	FLAT:?GetUnitOrders@UnitClass@@UAEHXZ
	DD	FLAT:?GetUnitFatigue@UnitClass@@UAEHXZ
	DD	FLAT:?GetUnitElement@UnitClass@@UAEPAV1@H@Z
	DD	FLAT:?GetUnitElement@UnitClass@@UAEHXZ
	DD	FLAT:?GetUnitMode@UnitClass@@UAEHXZ
	DD	FLAT:?GetUnitPosition@UnitClass@@UAEHXZ
	DD	FLAT:?GetUnitDivision@UnitClass@@UAEHXZ
	DD	FLAT:?GetUnitHeading@UnitClass@@UAEHXZ
	DD	FLAT:?SetUnitNextMove@UnitClass@@UAEXXZ
	DD	FLAT:?ClearUnitPath@UnitClass@@UAEXXZ
	DD	FLAT:?GetNextMoveDirection@UnitClass@@UAEHXZ
	DD	FLAT:?SetUnitCurrentDestination@UnitClass@@UAEXFF@Z
	DD	FLAT:?GetUnitCurrentDestination@UnitClass@@UAEXPAF0@Z
	DD	FLAT:?GetObjMovementType@UnitClass@@UAE?AW4MoveType@@PAVObjectiveClass@@H@Z
	DD	FLAT:?CheckForSurrender@UnitClass@@UAEHXZ
	DD	FLAT:?RallyUnit@UnitClass@@UAEHH@Z
	DD	FLAT:?GetUnitParent@UnitClass@@UBEPAV1@XZ
	DD	FLAT:?GetUnitParentID@UnitClass@@UAE?AVVU_ID@@XZ
	DD	FLAT:?SetUnitParent@UnitClass@@UAEXPAV1@@Z
	DD	FLAT:?GetFirstUnitElement@UnitClass@@UBEPAV1@XZ
	DD	FLAT:?GetNextUnitElement@UnitClass@@UBEPAV1@XZ
	DD	FLAT:?GetUnitElementByID@UnitClass@@UAEPAV1@H@Z
	DD	FLAT:?GetPrevUnitElement@UnitClass@@UAEPAV1@PAV1@@Z
	DD	FLAT:?AddUnitChild@UnitClass@@UAEXPAV1@@Z
	DD	FLAT:?DisposeChildren@SquadronClass@@UAEXXZ
	DD	FLAT:?RemoveChild@UnitClass@@UAEXVVU_ID@@@Z
	DD	FLAT:?ReorganizeUnit@UnitClass@@UAEXXZ
	DD	FLAT:?UpdateParentStatistics@UnitClass@@UAEHXZ
	DD	FLAT:?IsHelicopter@AirUnitClass@@UBEHXZ
	DD	FLAT:?MoveChopperUnit@SquadronClass@@UAEHK@Z
CONST	ENDS
;	COMDAT __CT??_R0?AVexception@std@@@8??0exception@std@@QAE@ABV01@@Z12
xdata$x	SEGMENT
__CT??_R0?AVexception@std@@@8??0exception@std@@QAE@ABV01@@Z12 DD 00H
	DD	FLAT:??_R0?AVexception@std@@@8
	DD	00H
	DD	0ffffffffH
	ORG $+4
	DD	0cH
	DD	FLAT:??0exception@std@@QAE@ABV01@@Z
xdata$x	ENDS
;	COMDAT ??_R0?AVexception@std@@@8
_DATA	SEGMENT
??_R0?AVexception@std@@@8 DD FLAT:??_7type_info@@6B@	; std::exception `RTTI Type Descriptor'
	DD	00H
	DB	'.?AVexception@std@@', 00H
_DATA	ENDS
;	COMDAT __CT??_R0?AVlogic_error@std@@@8??0logic_error@std@@QAE@ABV01@@Z12
xdata$x	SEGMENT
__CT??_R0?AVlogic_error@std@@@8??0logic_error@std@@QAE@ABV01@@Z12 DD 00H
	DD	FLAT:??_R0?AVlogic_error@std@@@8
	DD	00H
	DD	0ffffffffH
	ORG $+4
	DD	0cH
	DD	FLAT:??0logic_error@std@@QAE@ABV01@@Z
xdata$x	ENDS
;	COMDAT ??_R0?AVlogic_error@std@@@8
_DATA	SEGMENT
??_R0?AVlogic_error@std@@@8 DD FLAT:??_7type_info@@6B@	; std::logic_error `RTTI Type Descriptor'
	DD	00H
	DB	'.?AVlogic_error@std@@', 00H
_DATA	ENDS
;	COMDAT __CT??_R0?AVout_of_range@std@@@8??0out_of_range@std@@QAE@ABV01@@Z12
xdata$x	SEGMENT
__CT??_R0?AVout_of_range@std@@@8??0out_of_range@std@@QAE@ABV01@@Z12 DD 00H
	DD	FLAT:??_R0?AVout_of_range@std@@@8
	DD	00H
	DD	0ffffffffH
	ORG $+4
	DD	0cH
	DD	FLAT:??0out_of_range@std@@QAE@ABV01@@Z
xdata$x	ENDS
;	COMDAT ??_R0?AVout_of_range@std@@@8
_DATA	SEGMENT
??_R0?AVout_of_range@std@@@8 DD FLAT:??_7type_info@@6B@	; std::out_of_range `RTTI Type Descriptor'
	DD	00H
	DB	'.?AVout_of_range@std@@', 00H
_DATA	ENDS
;	COMDAT __CT??_R0?AVInvalidBufferException@@@8??0InvalidBufferException@@QAE@ABV0@@Z12
xdata$x	SEGMENT
__CT??_R0?AVInvalidBufferException@@@8??0InvalidBufferException@@QAE@ABV0@@Z12 DD 00H
	DD	FLAT:??_R0?AVInvalidBufferException@@@8
	DD	00H
	DD	0ffffffffH
	ORG $+4
	DD	0cH
	DD	FLAT:??0InvalidBufferException@@QAE@ABV0@@Z
xdata$x	ENDS
;	COMDAT ??_R0?AVInvalidBufferException@@@8
_DATA	SEGMENT
??_R0?AVInvalidBufferException@@@8 DD FLAT:??_7type_info@@6B@ ; InvalidBufferException `RTTI Type Descriptor'
	DD	00H
	DB	'.?AVInvalidBufferException@@', 00H
_DATA	ENDS
;	COMDAT __CTA4?AVInvalidBufferException@@
xdata$x	SEGMENT
__CTA4?AVInvalidBufferException@@ DD 04H
	DD	FLAT:__CT??_R0?AVInvalidBufferException@@@8??0InvalidBufferException@@QAE@ABV0@@Z12
	DD	FLAT:__CT??_R0?AVout_of_range@std@@@8??0out_of_range@std@@QAE@ABV01@@Z12
	DD	FLAT:__CT??_R0?AVlogic_error@std@@@8??0logic_error@std@@QAE@ABV01@@Z12
	DD	FLAT:__CT??_R0?AVexception@std@@@8??0exception@std@@QAE@ABV01@@Z12
xdata$x	ENDS
;	COMDAT __TI4?AVInvalidBufferException@@
xdata$x	SEGMENT
__TI4?AVInvalidBufferException@@ DD 00H
	DD	FLAT:??1InvalidBufferException@@UAE@XZ
	DD	00H
	DD	FLAT:__CTA4?AVInvalidBufferException@@
xdata$x	ENDS
;	COMDAT ??_C@_0CI@MPKJAHJH@Trying?5to?5write?5?$CFlu?5bytes?5to?5?$CFld@
CONST	SEGMENT
??_C@_0CI@MPKJAHJH@Trying?5to?5write?5?$CFlu?5bytes?5to?5?$CFld@ DB 'Tryi'
	DB	'ng to write %lu bytes to %ld buffer', 00H	; `string'
CONST	ENDS
;	COMDAT ??_7InvalidBufferException@@6B@
CONST	SEGMENT
??_7InvalidBufferException@@6B@ DD FLAT:??_R4InvalidBufferException@@6B@ ; InvalidBufferException::`vftable'
	DD	FLAT:??_EInvalidBufferException@@UAEPAXI@Z
	DD	FLAT:?what@exception@std@@UBEPBDXZ
CONST	ENDS
;	COMDAT ??_7out_of_range@std@@6B@
CONST	SEGMENT
??_7out_of_range@std@@6B@ DD FLAT:??_R4out_of_range@std@@6B@ ; std::out_of_range::`vftable'
	DD	FLAT:??_Eout_of_range@std@@UAEPAXI@Z
	DD	FLAT:?what@exception@std@@UBEPBDXZ
CONST	ENDS
;	COMDAT ??_7logic_error@std@@6B@
CONST	SEGMENT
??_7logic_error@std@@6B@ DD FLAT:??_R4logic_error@std@@6B@ ; std::logic_error::`vftable'
	DD	FLAT:??_Elogic_error@std@@UAEPAXI@Z
	DD	FLAT:?what@exception@std@@UBEPBDXZ
CONST	ENDS
;	COMDAT xdata$x
xdata$x	SEGMENT
__unwindtable$??$construct@PADAAPAD@?$allocator@D@std@@QAEXPAPADAAPAD@Z DD 0ffffffffH
	DD	FLAT:__unwindfunclet$??$construct@PADAAPAD@?$allocator@D@std@@QAEXPAPADAAPAD@Z$0
__ehfuncinfo$??$construct@PADAAPAD@?$allocator@D@std@@QAEXPAPADAAPAD@Z DD 019930522H
	DD	01H
	DD	FLAT:__unwindtable$??$construct@PADAAPAD@?$allocator@D@std@@QAEXPAPADAAPAD@Z
	DD	2 DUP(00H)
	DD	2 DUP(00H)
	DD	00H
	DD	01H
xdata$x	ENDS
xdata$x	SEGMENT
__unwindtable$?NewSquadron@@YAPAVSquadronClass@@H@Z DD 0ffffffffH
	DD	FLAT:__unwindfunclet$?NewSquadron@@YAPAVSquadronClass@@H@Z$0
__unwindtable$?ResupplySquadronStores@SquadronClass@@QAEXQAFQAEHH@Z DD 0ffffffffH
	DD	FLAT:__unwindfunclet$?ResupplySquadronStores@SquadronClass@@QAEXQAFQAEHH@Z$0
__unwindtable$?UpdateSquadronStores@SquadronClass@@QAEXQAFQAEHH@Z DD 0ffffffffH
	DD	FLAT:__unwindfunclet$?UpdateSquadronStores@SquadronClass@@QAEXQAFQAEHH@Z$0
__unwindtable$?DisposeChildren@SquadronClass@@UAEXXZ DD 0ffffffffH
	DD	FLAT:__unwindfunclet$?DisposeChildren@SquadronClass@@UAEXXZ$0
__unwindtable$?Scramble@SquadronClass@@QAEXXZ DD 0ffffffffH
	DD	FLAT:__unwindfunclet$?Scramble@SquadronClass@@QAEXXZ$0
__unwindtable$?MoveChopperUnit@SquadronClass@@UAEHK@Z DD 0ffffffffH
	DD	FLAT:__unwindfunclet$?MoveChopperUnit@SquadronClass@@UAEHK@Z$0
__unwindtable$??1SquadronClass@@UAE@XZ DD 0ffffffffH
	DD	FLAT:__unwindfunclet$??1SquadronClass@@UAE@XZ$0
__unwindtable$??0SquadronClass@@QAE@PAPAEPAJ@Z DD 0ffffffffH
	DD	FLAT:__unwindfunclet$??0SquadronClass@@QAE@PAPAEPAJ@Z$0
__unwindtable$??0SquadronClass@@QAE@G@Z DD 0ffffffffH
	DD	FLAT:__unwindfunclet$??0SquadronClass@@QAE@G@Z$0
__unwindtable$?MoveUnit@SquadronClass@@UAEHK@Z DD 0ffffffffH
	DD	FLAT:__unwindfunclet$?MoveUnit@SquadronClass@@UAEHK@Z$0
	DD	0ffffffffH
	DD	FLAT:__unwindfunclet$?MoveUnit@SquadronClass@@UAEHK@Z$1
__ehfuncinfo$?NewSquadron@@YAPAVSquadronClass@@H@Z DD 019930522H
	DD	01H
	DD	FLAT:__unwindtable$?NewSquadron@@YAPAVSquadronClass@@H@Z
	DD	2 DUP(00H)
	DD	2 DUP(00H)
	DD	00H
	DD	01H
__ehfuncinfo$?ResupplySquadronStores@SquadronClass@@QAEXQAFQAEHH@Z DD 019930522H
	DD	01H
	DD	FLAT:__unwindtable$?ResupplySquadronStores@SquadronClass@@QAEXQAFQAEHH@Z
	DD	2 DUP(00H)
	DD	2 DUP(00H)
	DD	00H
	DD	01H
__ehfuncinfo$?UpdateSquadronStores@SquadronClass@@QAEXQAFQAEHH@Z DD 019930522H
	DD	01H
	DD	FLAT:__unwindtable$?UpdateSquadronStores@SquadronClass@@QAEXQAFQAEHH@Z
	DD	2 DUP(00H)
	DD	2 DUP(00H)
	DD	00H
	DD	01H
__ehfuncinfo$?DisposeChildren@SquadronClass@@UAEXXZ DD 019930522H
	DD	01H
	DD	FLAT:__unwindtable$?DisposeChildren@SquadronClass@@UAEXXZ
	DD	2 DUP(00H)
	DD	2 DUP(00H)
	DD	00H
	DD	01H
__ehfuncinfo$?Scramble@SquadronClass@@QAEXXZ DD 019930522H
	DD	01H
	DD	FLAT:__unwindtable$?Scramble@SquadronClass@@QAEXXZ
	DD	2 DUP(00H)
	DD	2 DUP(00H)
	DD	00H
	DD	01H
__ehfuncinfo$?MoveChopperUnit@SquadronClass@@UAEHK@Z DD 019930522H
	DD	01H
	DD	FLAT:__unwindtable$?MoveChopperUnit@SquadronClass@@UAEHK@Z
	DD	2 DUP(00H)
	DD	2 DUP(00H)
	DD	00H
	DD	01H
__ehfuncinfo$?MoveUnit@SquadronClass@@UAEHK@Z DD 019930522H
	DD	02H
	DD	FLAT:__unwindtable$?MoveUnit@SquadronClass@@UAEHK@Z
	DD	2 DUP(00H)
	DD	2 DUP(00H)
	DD	00H
	DD	01H
__ehfuncinfo$??1SquadronClass@@UAE@XZ DD 019930522H
	DD	01H
	DD	FLAT:__unwindtable$??1SquadronClass@@UAE@XZ
	DD	2 DUP(00H)
	DD	2 DUP(00H)
	DD	00H
	DD	01H
__ehfuncinfo$??0SquadronClass@@QAE@PAPAEPAJ@Z DD 019930522H
	DD	01H
	DD	FLAT:__unwindtable$??0SquadronClass@@QAE@PAPAEPAJ@Z
	DD	2 DUP(00H)
	DD	2 DUP(00H)
	DD	00H
	DD	01H
__ehfuncinfo$??0SquadronClass@@QAE@G@Z DD 019930522H
	DD	01H
	DD	FLAT:__unwindtable$??0SquadronClass@@QAE@G@Z
	DD	2 DUP(00H)
	DD	2 DUP(00H)
	DD	00H
	DD	01H
xdata$x	ENDS
;	COMDAT xdata$x
xdata$x	SEGMENT
__unwindtable$?memcpychk@@YAXPAXPAPAEIPAJ@Z DD 0ffffffffH
	DD	FLAT:__unwindfunclet$?memcpychk@@YAXPAXPAPAEIPAJ@Z$0
__ehfuncinfo$?memcpychk@@YAXPAXPAPAEIPAJ@Z DD 019930522H
	DD	01H
	DD	FLAT:__unwindtable$?memcpychk@@YAXPAXPAPAEIPAJ@Z
	DD	2 DUP(00H)
	DD	2 DUP(00H)
	DD	00H
	DD	01H
xdata$x	ENDS
;	COMDAT xdata$x
xdata$x	SEGMENT
__catchsym$?_Copy@?$basic_string@DU?$char_traits@D@std@@V?$allocator@D@2@@std@@QAEXII@Z$5 DD 040H
	DD	00H
	DD	00H
	DD	FLAT:__catch$?_Copy@?$basic_string@DU?$char_traits@D@std@@V?$allocator@D@2@@std@@QAEXII@Z$0
__catchsym$?_Copy@?$basic_string@DU?$char_traits@D@std@@V?$allocator@D@2@@std@@QAEXII@Z$4 DD 040H
	DD	00H
	DD	00H
	DD	FLAT:__catch$?_Copy@?$basic_string@DU?$char_traits@D@std@@V?$allocator@D@2@@std@@QAEXII@Z$1
__unwindtable$?_Copy@?$basic_string@DU?$char_traits@D@std@@V?$allocator@D@2@@std@@QAEXII@Z DD 0ffffffffH
	DD	00H
	DD	0ffffffffH
	DD	00H
	DD	01H
	DD	00H
	DD	01H
	DD	00H
__ehfuncinfo$?_Copy@?$basic_string@DU?$char_traits@D@std@@V?$allocator@D@2@@std@@QAEXII@Z DD 019930522H
	DD	04H
	DD	FLAT:__unwindtable$?_Copy@?$basic_string@DU?$char_traits@D@std@@V?$allocator@D@2@@std@@QAEXII@Z
	DD	02H
	DD	FLAT:__tryblocktable$?_Copy@?$basic_string@DU?$char_traits@D@std@@V?$allocator@D@2@@std@@QAEXII@Z
	DD	2 DUP(00H)
	DD	00H
	DD	01H
__tryblocktable$?_Copy@?$basic_string@DU?$char_traits@D@std@@V?$allocator@D@2@@std@@QAEXII@Z DD 02H
	DD	02H
	DD	03H
	DD	01H
	DD	FLAT:__catchsym$?_Copy@?$basic_string@DU?$char_traits@D@std@@V?$allocator@D@2@@std@@QAEXII@Z$4
	DD	00H
	DD	00H
	DD	03H
	DD	01H
	DD	FLAT:__catchsym$?_Copy@?$basic_string@DU?$char_traits@D@std@@V?$allocator@D@2@@std@@QAEXII@Z$5
xdata$x	ENDS
CRT$XCU	SEGMENT
_allocator_arg$initializer$ DD FLAT:??__Eallocator_arg@std@@YAXXZ
CRT$XCU	ENDS
;	COMDAT CRT$XCU
CRT$XCU	SEGMENT
?_Generic_object$initializer$@?$_Error_objects@H@std@@2P6AXXZA DD FLAT:??__E?_Generic_object@?$_Error_objects@H@std@@2V_Generic_error_category@2@A@@YAXXZ ; std::_Error_objects<int>::_Generic_object$initializer$
CRT$XCU	ENDS
;	COMDAT CRT$XCU
CRT$XCU	SEGMENT
?_Iostream_object$initializer$@?$_Error_objects@H@std@@2P6AXXZA DD FLAT:??__E?_Iostream_object@?$_Error_objects@H@std@@2V_Iostream_error_category@2@A@@YAXXZ ; std::_Error_objects<int>::_Iostream_object$initializer$
CRT$XCU	ENDS
;	COMDAT CRT$XCU
CRT$XCU	SEGMENT
?_System_object$initializer$@?$_Error_objects@H@std@@2P6AXXZA DD FLAT:??__E?_System_object@?$_Error_objects@H@std@@2V_System_error_category@2@A@@YAXXZ ; std::_Error_objects<int>::_System_object$initializer$
CRT$XCU	ENDS
;	COMDAT CRT$XCU
CRT$XCU	SEGMENT
?id$initializer$@?$num_put@DV?$back_insert_iterator@V?$basic_string@DU?$char_traits@D@std@@V?$allocator@D@2@@std@@@std@@@std@@2P6AXXZA DD FLAT:??__E?id@?$num_put@DV?$back_insert_iterator@V?$basic_string@DU?$char_traits@D@std@@V?$allocator@D@2@@std@@@std@@@std@@2V0locale@2@A@@YAXXZ ; std::num_put<char,std::back_insert_iterator<std::basic_string<char,std::char_traits<char>,std::allocator<char> > > >::id$initializer$
CRT$XCU	ENDS
;	COMDAT CRT$XCU
CRT$XCU	SEGMENT
?id$initializer$@?$num_put@_WV?$back_insert_iterator@V?$basic_string@_WU?$char_traits@_W@std@@V?$allocator@_W@2@@std@@@std@@@std@@2P6AXXZA DD FLAT:??__E?id@?$num_put@_WV?$back_insert_iterator@V?$basic_string@_WU?$char_traits@_W@std@@V?$allocator@_W@2@@std@@@std@@@std@@2V0locale@2@A@@YAXXZ ; std::num_put<wchar_t,std::back_insert_iterator<std::basic_string<wchar_t,std::char_traits<wchar_t>,std::allocator<wchar_t> > > >::id$initializer$
CRT$XCU	ENDS
;	COMDAT CRT$XCU
CRT$XCU	SEGMENT
?id$initializer$@?$numpunct@D@std@@2P6AXXZA DD FLAT:??__E?id@?$numpunct@D@std@@2V0locale@2@A@@YAXXZ ; std::numpunct<char>::id$initializer$
CRT$XCU	ENDS
;	COMDAT CRT$XCU
CRT$XCU	SEGMENT
?id$initializer$@?$numpunct@_W@std@@2P6AXXZA DD FLAT:??__E?id@?$numpunct@_W@std@@2V0locale@2@A@@YAXXZ ; std::numpunct<wchar_t>::id$initializer$
CRT$XCU	ENDS
; Function compile flags: /Odtp
; File c:\program files (x86)\microsoft visual studio 11.0\vc\include\xmemory0
;	COMDAT ??$destroy@PAD@?$allocator@D@std@@QAEXPAPAD@Z
_TEXT	SEGMENT
_this$ = -4						; size = 4
__Ptr$ = 8						; size = 4
??$destroy@PAD@?$allocator@D@std@@QAEXPAPAD@Z PROC	; std::allocator<char>::destroy<char *>, COMDAT
; _this$ = ecx

; 621  : 		void destroy(_Uty *_Ptr)

	push	ebp
	mov	ebp, esp
	push	ecx
	mov	DWORD PTR _this$[ebp], ecx

; 622  : 		{	// destroy object at _Ptr
; 623  : 		_Ptr->~_Uty();
; 624  : 		}

	mov	esp, ebp
	pop	ebp
	ret	4
??$destroy@PAD@?$allocator@D@std@@QAEXPAPAD@Z ENDP	; std::allocator<char>::destroy<char *>
_TEXT	ENDS
; Function compile flags: /Odtp
; File c:\program files (x86)\microsoft visual studio 11.0\vc\include\xmemory0
;	COMDAT ??$construct@PADAAPAD@?$allocator@D@std@@QAEXPAPADAAPAD@Z
_TEXT	SEGMENT
$T2 = -28						; size = 4
_this$ = -24						; size = 4
tv73 = -20						; size = 4
$T3 = -16						; size = 4
__$EHRec$ = -12						; size = 12
__Ptr$ = 8						; size = 4
__V0$ = 12						; size = 4
??$construct@PADAAPAD@?$allocator@D@std@@QAEXPAPADAAPAD@Z PROC ; std::allocator<char>::construct<char *,char * &>, COMDAT
; _this$ = ecx

; 617  : _VARIADIC_EXPAND_0X(_ALLOC_MEMBER_CONSTRUCT, , , , )

	push	ebp
	mov	ebp, esp
	push	-1
	push	__ehhandler$??$construct@PADAAPAD@?$allocator@D@std@@QAEXPAPADAAPAD@Z
	mov	eax, DWORD PTR fs:0
	push	eax
	sub	esp, 16					; 00000010H
	mov	eax, DWORD PTR ___security_cookie
	xor	eax, ebp
	push	eax
	lea	eax, DWORD PTR __$EHRec$[ebp]
	mov	DWORD PTR fs:0, eax
	mov	DWORD PTR _this$[ebp], ecx
	mov	eax, DWORD PTR __Ptr$[ebp]
	push	eax
	push	4
	call	??2@YAPAXIPAX@Z				; operator new
	add	esp, 8
	mov	DWORD PTR $T3[ebp], eax
	mov	DWORD PTR __$EHRec$[ebp+8], 0
	cmp	DWORD PTR $T3[ebp], 0
	je	SHORT $LN3@construct
	mov	ecx, DWORD PTR __V0$[ebp]
	push	ecx
	call	??$forward@AAPAD@std@@YAAAPADAAPAD@Z	; std::forward<char * &>
	add	esp, 4
	mov	edx, DWORD PTR $T3[ebp]
	mov	eax, DWORD PTR [eax]
	mov	DWORD PTR [edx], eax
	mov	ecx, DWORD PTR $T3[ebp]
	mov	DWORD PTR tv73[ebp], ecx
	jmp	SHORT $LN4@construct
$LN3@construct:
	mov	DWORD PTR tv73[ebp], 0
$LN4@construct:
	mov	edx, DWORD PTR tv73[ebp]
	mov	DWORD PTR $T2[ebp], edx
	mov	DWORD PTR __$EHRec$[ebp+8], -1
	mov	ecx, DWORD PTR __$EHRec$[ebp]
	mov	DWORD PTR fs:0, ecx
	pop	ecx
	mov	esp, ebp
	pop	ebp
	ret	8
_TEXT	ENDS
;	COMDAT text$x
text$x	SEGMENT
__unwindfunclet$??$construct@PADAAPAD@?$allocator@D@std@@QAEXPAPADAAPAD@Z$0:
	mov	eax, DWORD PTR __Ptr$[ebp]
	push	eax
	mov	eax, DWORD PTR $T3[ebp]
	push	eax
	call	??3@YAXPAX0@Z				; operator delete
	add	esp, 8
	ret	0
__ehhandler$??$construct@PADAAPAD@?$allocator@D@std@@QAEXPAPADAAPAD@Z:
	mov	edx, DWORD PTR [esp+8]
	lea	eax, DWORD PTR [edx+12]
	mov	ecx, DWORD PTR [edx-20]
	xor	ecx, eax
	call	@__security_check_cookie@4
	mov	eax, OFFSET __ehfuncinfo$??$construct@PADAAPAD@?$allocator@D@std@@QAEXPAPADAAPAD@Z
	jmp	___CxxFrameHandler3
text$x	ENDS
??$construct@PADAAPAD@?$allocator@D@std@@QAEXPAPADAAPAD@Z ENDP ; std::allocator<char>::construct<char *,char * &>
; Function compile flags: /Odtp
; File c:\program files (x86)\microsoft visual studio 11.0\vc\include\xlocnum
;	COMDAT ??__E?id@?$numpunct@_W@std@@2V0locale@2@A@@YAXXZ
text$yc	SEGMENT
??__E?id@?$numpunct@_W@std@@2V0locale@2@A@@YAXXZ PROC	; `dynamic initializer for 'std::numpunct<wchar_t>::id'', COMDAT

; 155  : 		void _Getvals(wchar_t, const lconv *_Ptr, _Locinfo::_Cvtvec)

	push	ebp
	mov	ebp, esp
	push	0
	mov	ecx, OFFSET ?id@?$numpunct@_W@std@@2V0locale@2@A ; std::numpunct<wchar_t>::id
	call	??0id@locale@std@@QAE@I@Z		; std::locale::id::id
	pop	ebp
	ret	0
??__E?id@?$numpunct@_W@std@@2V0locale@2@A@@YAXXZ ENDP	; `dynamic initializer for 'std::numpunct<wchar_t>::id''
text$yc	ENDS
; Function compile flags: /Odtp
; File c:\program files (x86)\microsoft visual studio 11.0\vc\include\xlocnum
;	COMDAT ??__E?id@?$numpunct@D@std@@2V0locale@2@A@@YAXXZ
text$yc	SEGMENT
??__E?id@?$numpunct@D@std@@2V0locale@2@A@@YAXXZ PROC	; `dynamic initializer for 'std::numpunct<char>::id'', COMDAT

; 155  : 		void _Getvals(wchar_t, const lconv *_Ptr, _Locinfo::_Cvtvec)

	push	ebp
	mov	ebp, esp
	push	0
	mov	ecx, OFFSET ?id@?$numpunct@D@std@@2V0locale@2@A ; std::numpunct<char>::id
	call	??0id@locale@std@@QAE@I@Z		; std::locale::id::id
	pop	ebp
	ret	0
??__E?id@?$numpunct@D@std@@2V0locale@2@A@@YAXXZ ENDP	; `dynamic initializer for 'std::numpunct<char>::id''
text$yc	ENDS
; Function compile flags: /Odtp
; File c:\program files (x86)\microsoft visual studio 11.0\vc\include\xlocnum
;	COMDAT ??__E?id@?$num_put@_WV?$back_insert_iterator@V?$basic_string@_WU?$char_traits@_W@std@@V?$allocator@_W@2@@std@@@std@@@std@@2V0locale@2@A@@YAXXZ
text$yc	SEGMENT
??__E?id@?$num_put@_WV?$back_insert_iterator@V?$basic_string@_WU?$char_traits@_W@std@@V?$allocator@_W@2@@std@@@std@@@std@@2V0locale@2@A@@YAXXZ PROC ; `dynamic initializer for 'std::num_put<wchar_t,std::back_insert_iterator<std::basic_string<wchar_t,std::char_traits<wchar_t>,std::allocator<wchar_t> > > >::id'', COMDAT

; 155  : 		void _Getvals(wchar_t, const lconv *_Ptr, _Locinfo::_Cvtvec)

	push	ebp
	mov	ebp, esp
	push	0
	mov	ecx, OFFSET ?id@?$num_put@_WV?$back_insert_iterator@V?$basic_string@_WU?$char_traits@_W@std@@V?$allocator@_W@2@@std@@@std@@@std@@2V0locale@2@A ; std::num_put<wchar_t,std::back_insert_iterator<std::basic_string<wchar_t,std::char_traits<wchar_t>,std::allocator<wchar_t> > > >::id
	call	??0id@locale@std@@QAE@I@Z		; std::locale::id::id
	pop	ebp
	ret	0
??__E?id@?$num_put@_WV?$back_insert_iterator@V?$basic_string@_WU?$char_traits@_W@std@@V?$allocator@_W@2@@std@@@std@@@std@@2V0locale@2@A@@YAXXZ ENDP ; `dynamic initializer for 'std::num_put<wchar_t,std::back_insert_iterator<std::basic_string<wchar_t,std::char_traits<wchar_t>,std::allocator<wchar_t> > > >::id''
text$yc	ENDS
; Function compile flags: /Odtp
; File c:\program files (x86)\microsoft visual studio 11.0\vc\include\xlocnum
;	COMDAT ??__E?id@?$num_put@DV?$back_insert_iterator@V?$basic_string@DU?$char_traits@D@std@@V?$allocator@D@2@@std@@@std@@@std@@2V0locale@2@A@@YAXXZ
text$yc	SEGMENT
??__E?id@?$num_put@DV?$back_insert_iterator@V?$basic_string@DU?$char_traits@D@std@@V?$allocator@D@2@@std@@@std@@@std@@2V0locale@2@A@@YAXXZ PROC ; `dynamic initializer for 'std::num_put<char,std::back_insert_iterator<std::basic_string<char,std::char_traits<char>,std::allocator<char> > > >::id'', COMDAT

; 155  : 		void _Getvals(wchar_t, const lconv *_Ptr, _Locinfo::_Cvtvec)

	push	ebp
	mov	ebp, esp
	push	0
	mov	ecx, OFFSET ?id@?$num_put@DV?$back_insert_iterator@V?$basic_string@DU?$char_traits@D@std@@V?$allocator@D@2@@std@@@std@@@std@@2V0locale@2@A ; std::num_put<char,std::back_insert_iterator<std::basic_string<char,std::char_traits<char>,std::allocator<char> > > >::id
	call	??0id@locale@std@@QAE@I@Z		; std::locale::id::id
	pop	ebp
	ret	0
??__E?id@?$num_put@DV?$back_insert_iterator@V?$basic_string@DU?$char_traits@D@std@@V?$allocator@D@2@@std@@@std@@@std@@2V0locale@2@A@@YAXXZ ENDP ; `dynamic initializer for 'std::num_put<char,std::back_insert_iterator<std::basic_string<char,std::char_traits<char>,std::allocator<char> > > >::id''
text$yc	ENDS
; Function compile flags: /Odtp
; File c:\program files (x86)\microsoft visual studio 11.0\vc\include\xmemory0
;	COMDAT ??$destroy@PAD@?$allocator_traits@V?$allocator@D@std@@@std@@SAXAAV?$allocator@D@1@PAPAD@Z
_TEXT	SEGMENT
__Al$ = 8						; size = 4
__Ptr$ = 12						; size = 4
??$destroy@PAD@?$allocator_traits@V?$allocator@D@std@@@std@@SAXAAV?$allocator@D@1@PAPAD@Z PROC ; std::allocator_traits<std::allocator<char> >::destroy<char *>, COMDAT

; 755  : 		static void destroy(_Alloc& _Al, _Uty *_Ptr)

	push	ebp
	mov	ebp, esp

; 756  : 		{	// destroy object at _Ptr
; 757  : 		_Al.destroy(_Ptr);

	mov	eax, DWORD PTR __Ptr$[ebp]
	push	eax
	mov	ecx, DWORD PTR __Al$[ebp]
	call	??$destroy@PAD@?$allocator@D@std@@QAEXPAPAD@Z ; std::allocator<char>::destroy<char *>

; 758  : 		}

	pop	ebp
	ret	0
??$destroy@PAD@?$allocator_traits@V?$allocator@D@std@@@std@@SAXAAV?$allocator@D@1@PAPAD@Z ENDP ; std::allocator_traits<std::allocator<char> >::destroy<char *>
_TEXT	ENDS
; Function compile flags: /Odtp
; File c:\program files (x86)\microsoft visual studio 11.0\vc\include\xmemory0
;	COMDAT ??$construct@PADAAPAD@?$allocator_traits@V?$allocator@D@std@@@std@@SAXAAV?$allocator@D@1@PAPADAAPAD@Z
_TEXT	SEGMENT
__Al$ = 8						; size = 4
__Ptr$ = 12						; size = 4
__V0$ = 16						; size = 4
??$construct@PADAAPAD@?$allocator_traits@V?$allocator@D@std@@@std@@SAXAAV?$allocator@D@1@PAPADAAPAD@Z PROC ; std::allocator_traits<std::allocator<char> >::construct<char *,char * &>, COMDAT

; 751  : _VARIADIC_EXPAND_0X(_ALLOC_TRAITS_SPECIAL_CONSTRUCT, , , , )

	push	ebp
	mov	ebp, esp
	mov	eax, DWORD PTR __V0$[ebp]
	push	eax
	call	??$forward@AAPAD@std@@YAAAPADAAPAD@Z	; std::forward<char * &>
	add	esp, 4
	push	eax
	mov	ecx, DWORD PTR __Ptr$[ebp]
	push	ecx
	mov	ecx, DWORD PTR __Al$[ebp]
	call	??$construct@PADAAPAD@?$allocator@D@std@@QAEXPAPADAAPAD@Z ; std::allocator<char>::construct<char *,char * &>
	pop	ebp
	ret	0
??$construct@PADAAPAD@?$allocator_traits@V?$allocator@D@std@@@std@@SAXAAV?$allocator@D@1@PAPADAAPAD@Z ENDP ; std::allocator_traits<std::allocator<char> >::construct<char *,char * &>
_TEXT	ENDS
; Function compile flags: /Odtp
; File c:\program files (x86)\microsoft visual studio 11.0\vc\include\type_traits
;	COMDAT ??$forward@AAPAD@std@@YAAAPADAAPAD@Z
_TEXT	SEGMENT
__Arg$ = 8						; size = 4
??$forward@AAPAD@std@@YAAAPADAAPAD@Z PROC		; std::forward<char * &>, COMDAT

; 1775 : 	{	// forward an lvalue

	push	ebp
	mov	ebp, esp

; 1776 : 	return (static_cast<_Ty&&>(_Arg));

	mov	eax, DWORD PTR __Arg$[ebp]

; 1777 : 	}

	pop	ebp
	ret	0
??$forward@AAPAD@std@@YAAAPADAAPAD@Z ENDP		; std::forward<char * &>
_TEXT	ENDS
; Function compile flags: /Odtp
;	COMDAT ??__F?_System_object@?$_Error_objects@H@std@@2V_System_error_category@2@A@@YAXXZ
text$yd	SEGMENT
??__F?_System_object@?$_Error_objects@H@std@@2V_System_error_category@2@A@@YAXXZ PROC ; `dynamic atexit destructor for 'std::_Error_objects<int>::_System_object'', COMDAT
	push	ebp
	mov	ebp, esp
	mov	ecx, OFFSET ?_System_object@?$_Error_objects@H@std@@2V_System_error_category@2@A ; std::_Error_objects<int>::_System_object
	call	??1_System_error_category@std@@UAE@XZ
	pop	ebp
	ret	0
??__F?_System_object@?$_Error_objects@H@std@@2V_System_error_category@2@A@@YAXXZ ENDP ; `dynamic atexit destructor for 'std::_Error_objects<int>::_System_object''
text$yd	ENDS
; Function compile flags: /Odtp
; File c:\program files (x86)\microsoft visual studio 11.0\vc\include\xmemory0
;	COMDAT ??__E?_System_object@?$_Error_objects@H@std@@2V_System_error_category@2@A@@YAXXZ
text$yc	SEGMENT
??__E?_System_object@?$_Error_objects@H@std@@2V_System_error_category@2@A@@YAXXZ PROC ; `dynamic initializer for 'std::_Error_objects<int>::_System_object'', COMDAT

; 627  : 		{	// estimate maximum array size

	push	ebp
	mov	ebp, esp
	mov	ecx, OFFSET ?_System_object@?$_Error_objects@H@std@@2V_System_error_category@2@A ; std::_Error_objects<int>::_System_object
	call	??0_System_error_category@std@@QAE@XZ	; std::_System_error_category::_System_error_category
	push	OFFSET ??__F?_System_object@?$_Error_objects@H@std@@2V_System_error_category@2@A@@YAXXZ ; `dynamic atexit destructor for 'std::_Error_objects<int>::_System_object''
	call	_atexit
	add	esp, 4
	pop	ebp
	ret	0
??__E?_System_object@?$_Error_objects@H@std@@2V_System_error_category@2@A@@YAXXZ ENDP ; `dynamic initializer for 'std::_Error_objects<int>::_System_object''
text$yc	ENDS
; Function compile flags: /Odtp
;	COMDAT ??__F?_Iostream_object@?$_Error_objects@H@std@@2V_Iostream_error_category@2@A@@YAXXZ
text$yd	SEGMENT
??__F?_Iostream_object@?$_Error_objects@H@std@@2V_Iostream_error_category@2@A@@YAXXZ PROC ; `dynamic atexit destructor for 'std::_Error_objects<int>::_Iostream_object'', COMDAT
	push	ebp
	mov	ebp, esp
	mov	ecx, OFFSET ?_Iostream_object@?$_Error_objects@H@std@@2V_Iostream_error_category@2@A ; std::_Error_objects<int>::_Iostream_object
	call	??1_Iostream_error_category@std@@UAE@XZ
	pop	ebp
	ret	0
??__F?_Iostream_object@?$_Error_objects@H@std@@2V_Iostream_error_category@2@A@@YAXXZ ENDP ; `dynamic atexit destructor for 'std::_Error_objects<int>::_Iostream_object''
text$yd	ENDS
; Function compile flags: /Odtp
; File c:\program files (x86)\microsoft visual studio 11.0\vc\include\xmemory0
;	COMDAT ??__E?_Iostream_object@?$_Error_objects@H@std@@2V_Iostream_error_category@2@A@@YAXXZ
text$yc	SEGMENT
??__E?_Iostream_object@?$_Error_objects@H@std@@2V_Iostream_error_category@2@A@@YAXXZ PROC ; `dynamic initializer for 'std::_Error_objects<int>::_Iostream_object'', COMDAT

; 627  : 		{	// estimate maximum array size

	push	ebp
	mov	ebp, esp
	mov	ecx, OFFSET ?_Iostream_object@?$_Error_objects@H@std@@2V_Iostream_error_category@2@A ; std::_Error_objects<int>::_Iostream_object
	call	??0_Iostream_error_category@std@@QAE@XZ	; std::_Iostream_error_category::_Iostream_error_category
	push	OFFSET ??__F?_Iostream_object@?$_Error_objects@H@std@@2V_Iostream_error_category@2@A@@YAXXZ ; `dynamic atexit destructor for 'std::_Error_objects<int>::_Iostream_object''
	call	_atexit
	add	esp, 4
	pop	ebp
	ret	0
??__E?_Iostream_object@?$_Error_objects@H@std@@2V_Iostream_error_category@2@A@@YAXXZ ENDP ; `dynamic initializer for 'std::_Error_objects<int>::_Iostream_object''
text$yc	ENDS
; Function compile flags: /Odtp
;	COMDAT ??__F?_Generic_object@?$_Error_objects@H@std@@2V_Generic_error_category@2@A@@YAXXZ
text$yd	SEGMENT
??__F?_Generic_object@?$_Error_objects@H@std@@2V_Generic_error_category@2@A@@YAXXZ PROC ; `dynamic atexit destructor for 'std::_Error_objects<int>::_Generic_object'', COMDAT
	push	ebp
	mov	ebp, esp
	mov	ecx, OFFSET ?_Generic_object@?$_Error_objects@H@std@@2V_Generic_error_category@2@A ; std::_Error_objects<int>::_Generic_object
	call	??1_Generic_error_category@std@@UAE@XZ
	pop	ebp
	ret	0
??__F?_Generic_object@?$_Error_objects@H@std@@2V_Generic_error_category@2@A@@YAXXZ ENDP ; `dynamic atexit destructor for 'std::_Error_objects<int>::_Generic_object''
text$yd	ENDS
; Function compile flags: /Odtp
; File c:\program files (x86)\microsoft visual studio 11.0\vc\include\xmemory0
;	COMDAT ??__E?_Generic_object@?$_Error_objects@H@std@@2V_Generic_error_category@2@A@@YAXXZ
text$yc	SEGMENT
??__E?_Generic_object@?$_Error_objects@H@std@@2V_Generic_error_category@2@A@@YAXXZ PROC ; `dynamic initializer for 'std::_Error_objects<int>::_Generic_object'', COMDAT

; 627  : 		{	// estimate maximum array size

	push	ebp
	mov	ebp, esp
	mov	ecx, OFFSET ?_Generic_object@?$_Error_objects@H@std@@2V_Generic_error_category@2@A ; std::_Error_objects<int>::_Generic_object
	call	??0_Generic_error_category@std@@QAE@XZ	; std::_Generic_error_category::_Generic_error_category
	push	OFFSET ??__F?_Generic_object@?$_Error_objects@H@std@@2V_Generic_error_category@2@A@@YAXXZ ; `dynamic atexit destructor for 'std::_Error_objects<int>::_Generic_object''
	call	_atexit
	add	esp, 4
	pop	ebp
	ret	0
??__E?_Generic_object@?$_Error_objects@H@std@@2V_Generic_error_category@2@A@@YAXXZ ENDP ; `dynamic initializer for 'std::_Error_objects<int>::_Generic_object''
text$yc	ENDS
; Function compile flags: /Odtp
; File c:\program files (x86)\microsoft visual studio 11.0\vc\include\xmemory0
;	COMDAT ??$_Allocate@D@std@@YAPADIPAD@Z
_TEXT	SEGMENT
__Ptr$ = -4						; size = 4
__Count$ = 8						; size = 4
___formal$ = 12						; size = 4
??$_Allocate@D@std@@YAPADIPAD@Z PROC			; std::_Allocate<char>, COMDAT

; 22   : 	{	// allocate storage for _Count elements of type _Ty

	push	ebp
	mov	ebp, esp
	push	ecx

; 23   : 	void *_Ptr = 0;

	mov	DWORD PTR __Ptr$[ebp], 0

; 24   : 
; 25   : 	if (_Count == 0)

	cmp	DWORD PTR __Count$[ebp], 0
	jne	SHORT $LN4@Allocate

; 26   : 		;
; 27   : 	else if (((size_t)(-1) / sizeof (_Ty) < _Count)

	jmp	SHORT $LN3@Allocate
$LN4@Allocate:

; 28   : 		|| (_Ptr = ::operator new(_Count * sizeof (_Ty))) == 0)

	cmp	DWORD PTR __Count$[ebp], -1
	ja	SHORT $LN1@Allocate
	mov	eax, DWORD PTR __Count$[ebp]
	push	eax
	call	??2@YAPAXI@Z				; operator new
	add	esp, 4
	mov	DWORD PTR __Ptr$[ebp], eax
	cmp	DWORD PTR __Ptr$[ebp], 0
	jne	SHORT $LN3@Allocate
$LN1@Allocate:

; 29   : 		_Xbad_alloc();	// report no memory

	call	?_Xbad_alloc@std@@YAXXZ			; std::_Xbad_alloc
$LN3@Allocate:

; 30   : 
; 31   : 	return ((_Ty *)_Ptr);

	mov	eax, DWORD PTR __Ptr$[ebp]
$LN6@Allocate:

; 32   : 	}

	mov	esp, ebp
	pop	ebp
	ret	0
??$_Allocate@D@std@@YAPADIPAD@Z ENDP			; std::_Allocate<char>
_TEXT	ENDS
; Function compile flags: /Odtp
; File c:\program files (x86)\microsoft visual studio 11.0\vc\include\xstddef
;	COMDAT ??$addressof@D@std@@YAPADAAD@Z
_TEXT	SEGMENT
__Val$ = 8						; size = 4
??$addressof@D@std@@YAPADAAD@Z PROC			; std::addressof<char>, COMDAT

; 85   : 	{	// return address of _Val

	push	ebp
	mov	ebp, esp

; 86   : 	return (reinterpret_cast<_Ty *>(
; 87   : 		(&const_cast<char&>(
; 88   : 		reinterpret_cast<const volatile char&>(_Val)))));

	mov	eax, DWORD PTR __Val$[ebp]

; 89   : 	}

	pop	ebp
	ret	0
??$addressof@D@std@@YAPADAAD@Z ENDP			; std::addressof<char>
_TEXT	ENDS
; Function compile flags: /Odtp
; File c:\program files (x86)\microsoft visual studio 11.0\vc\include\xmemory0
;	COMDAT ??$destroy@PAD@?$_Wrap_alloc@V?$allocator@D@std@@@std@@QAEXPAPAD@Z
_TEXT	SEGMENT
_this$ = -4						; size = 4
__Ptr$ = 8						; size = 4
??$destroy@PAD@?$_Wrap_alloc@V?$allocator@D@std@@@std@@QAEXPAPAD@Z PROC ; std::_Wrap_alloc<std::allocator<char> >::destroy<char *>, COMDAT
; _this$ = ecx

; 907  : 		void destroy(_Ty *_Ptr)

	push	ebp
	mov	ebp, esp
	push	ecx
	mov	DWORD PTR _this$[ebp], ecx

; 908  : 		{	// destroy object at _Ptr
; 909  : 		_Mytraits::destroy(*this, _Ptr);

	mov	eax, DWORD PTR __Ptr$[ebp]
	push	eax
	mov	ecx, DWORD PTR _this$[ebp]
	push	ecx
	call	??$destroy@PAD@?$allocator_traits@V?$allocator@D@std@@@std@@SAXAAV?$allocator@D@1@PAPAD@Z ; std::allocator_traits<std::allocator<char> >::destroy<char *>
	add	esp, 8

; 910  : 		}

	mov	esp, ebp
	pop	ebp
	ret	4
??$destroy@PAD@?$_Wrap_alloc@V?$allocator@D@std@@@std@@QAEXPAPAD@Z ENDP ; std::_Wrap_alloc<std::allocator<char> >::destroy<char *>
_TEXT	ENDS
; Function compile flags: /Odtp
; File c:\program files (x86)\microsoft visual studio 11.0\vc\include\xmemory0
;	COMDAT ??$construct@PADAAPAD@?$_Wrap_alloc@V?$allocator@D@std@@@std@@QAEXPAPADAAPAD@Z
_TEXT	SEGMENT
_this$ = -4						; size = 4
__Ptr$ = 8						; size = 4
__V0$ = 12						; size = 4
??$construct@PADAAPAD@?$_Wrap_alloc@V?$allocator@D@std@@@std@@QAEXPAPADAAPAD@Z PROC ; std::_Wrap_alloc<std::allocator<char> >::construct<char *,char * &>, COMDAT
; _this$ = ecx

; 903  : _VARIADIC_EXPAND_0X(_WRAP_ALLOC_CONSTRUCT, , , , )

	push	ebp
	mov	ebp, esp
	push	ecx
	mov	DWORD PTR _this$[ebp], ecx
	mov	eax, DWORD PTR __V0$[ebp]
	push	eax
	call	??$forward@AAPAD@std@@YAAAPADAAPAD@Z	; std::forward<char * &>
	add	esp, 4
	push	eax
	mov	ecx, DWORD PTR __Ptr$[ebp]
	push	ecx
	mov	edx, DWORD PTR _this$[ebp]
	push	edx
	call	??$construct@PADAAPAD@?$allocator_traits@V?$allocator@D@std@@@std@@SAXAAV?$allocator@D@1@PAPADAAPAD@Z ; std::allocator_traits<std::allocator<char> >::construct<char *,char * &>
	add	esp, 12					; 0000000cH
	mov	esp, ebp
	pop	ebp
	ret	8
??$construct@PADAAPAD@?$_Wrap_alloc@V?$allocator@D@std@@@std@@QAEXPAPADAAPAD@Z ENDP ; std::_Wrap_alloc<std::allocator<char> >::construct<char *,char * &>
_TEXT	ENDS
; Function compile flags: /Odtp
;	COMDAT ??_G_System_error_category@std@@UAEPAXI@Z
_TEXT	SEGMENT
_this$ = -4						; size = 4
___flags$ = 8						; size = 4
??_G_System_error_category@std@@UAEPAXI@Z PROC		; std::_System_error_category::`scalar deleting destructor', COMDAT
; _this$ = ecx
	push	ebp
	mov	ebp, esp
	push	ecx
	mov	DWORD PTR _this$[ebp], ecx
	mov	ecx, DWORD PTR _this$[ebp]
	call	??1_System_error_category@std@@UAE@XZ
	mov	eax, DWORD PTR ___flags$[ebp]
	and	eax, 1
	je	SHORT $LN1@scalar
	mov	ecx, DWORD PTR _this$[ebp]
	push	ecx
	call	??3@YAXPAX@Z				; operator delete
	add	esp, 4
$LN1@scalar:
	mov	eax, DWORD PTR _this$[ebp]
	mov	esp, ebp
	pop	ebp
	ret	4
??_G_System_error_category@std@@UAEPAXI@Z ENDP		; std::_System_error_category::`scalar deleting destructor'
_TEXT	ENDS
; Function compile flags: /Odtp
;	COMDAT ??1_System_error_category@std@@UAE@XZ
_TEXT	SEGMENT
_this$ = -4						; size = 4
??1_System_error_category@std@@UAE@XZ PROC		; std::_System_error_category::~_System_error_category, COMDAT
; _this$ = ecx
	push	ebp
	mov	ebp, esp
	push	ecx
	mov	DWORD PTR _this$[ebp], ecx
	mov	ecx, DWORD PTR _this$[ebp]
	call	??1_Generic_error_category@std@@UAE@XZ
	mov	esp, ebp
	pop	ebp
	ret	0
??1_System_error_category@std@@UAE@XZ ENDP		; std::_System_error_category::~_System_error_category
_TEXT	ENDS
; Function compile flags: /Odtp
; File c:\program files (x86)\microsoft visual studio 11.0\vc\include\system_error
;	COMDAT ?default_error_condition@_System_error_category@std@@UBE?AVerror_condition@2@H@Z
_TEXT	SEGMENT
_this$ = -4						; size = 4
___$ReturnUdt$ = 8					; size = 4
__Errval$ = 12						; size = 4
?default_error_condition@_System_error_category@std@@UBE?AVerror_condition@2@H@Z PROC ; std::_System_error_category::default_error_condition, COMDAT
; _this$ = ecx

; 641  : 		{	// make error_condition for error code (generic if possible)

	push	ebp
	mov	ebp, esp
	push	ecx
	mov	DWORD PTR _this$[ebp], ecx

; 642  : 		if (_Syserror_map(_Errval))

	mov	eax, DWORD PTR __Errval$[ebp]
	push	eax
	call	?_Syserror_map@std@@YAPBDH@Z		; std::_Syserror_map
	add	esp, 4
	test	eax, eax
	je	SHORT $LN2@default_er

; 643  : 			return (error_condition(_Errval, generic_category()));

	call	?generic_category@std@@YAABVerror_category@1@XZ ; std::generic_category
	push	eax
	mov	ecx, DWORD PTR __Errval$[ebp]
	push	ecx
	mov	ecx, DWORD PTR ___$ReturnUdt$[ebp]
	call	??0error_condition@std@@QAE@HABVerror_category@1@@Z ; std::error_condition::error_condition
	mov	eax, DWORD PTR ___$ReturnUdt$[ebp]
	jmp	SHORT $LN3@default_er

; 644  : 		else

	jmp	SHORT $LN3@default_er
$LN2@default_er:

; 645  : 			return (error_condition(_Errval, system_category()));

	call	?system_category@std@@YAABVerror_category@1@XZ ; std::system_category
	push	eax
	mov	edx, DWORD PTR __Errval$[ebp]
	push	edx
	mov	ecx, DWORD PTR ___$ReturnUdt$[ebp]
	call	??0error_condition@std@@QAE@HABVerror_category@1@@Z ; std::error_condition::error_condition
	mov	eax, DWORD PTR ___$ReturnUdt$[ebp]
$LN3@default_er:

; 646  : 		}

	mov	esp, ebp
	pop	ebp
	ret	8
?default_error_condition@_System_error_category@std@@UBE?AVerror_condition@2@H@Z ENDP ; std::_System_error_category::default_error_condition
_TEXT	ENDS
; Function compile flags: /Odtp
; File c:\program files (x86)\microsoft visual studio 11.0\vc\include\system_error
;	COMDAT ?message@_System_error_category@std@@UBE?AV?$basic_string@DU?$char_traits@D@std@@V?$allocator@D@2@@2@H@Z
_TEXT	SEGMENT
_this$ = -16						; size = 4
$T1 = -12						; size = 4
tv69 = -8						; size = 4
__Name$ = -4						; size = 4
___$ReturnUdt$ = 8					; size = 4
__Errcode$ = 12						; size = 4
?message@_System_error_category@std@@UBE?AV?$basic_string@DU?$char_traits@D@std@@V?$allocator@D@2@@2@H@Z PROC ; std::_System_error_category::message, COMDAT
; _this$ = ecx

; 634  : 		{	// convert to name of error

	push	ebp
	mov	ebp, esp
	sub	esp, 16					; 00000010H
	mov	DWORD PTR _this$[ebp], ecx
	mov	DWORD PTR $T1[ebp], 0

; 635  : 		const char *_Name = _Winerror_map(_Errcode);

	mov	eax, DWORD PTR __Errcode$[ebp]
	push	eax
	call	?_Winerror_map@std@@YAPBDH@Z		; std::_Winerror_map
	add	esp, 4
	mov	DWORD PTR __Name$[ebp], eax

; 636  : 		return (string(_Name != 0 ? _Name : "unknown error"));

	cmp	DWORD PTR __Name$[ebp], 0
	je	SHORT $LN3@message
	mov	ecx, DWORD PTR __Name$[ebp]
	mov	DWORD PTR tv69[ebp], ecx
	jmp	SHORT $LN4@message
$LN3@message:
	mov	DWORD PTR tv69[ebp], OFFSET ??_C@_0O@BFJCFAAK@unknown?5error?$AA@
$LN4@message:
	mov	edx, DWORD PTR tv69[ebp]
	push	edx
	mov	ecx, DWORD PTR ___$ReturnUdt$[ebp]
	call	??0?$basic_string@DU?$char_traits@D@std@@V?$allocator@D@2@@std@@QAE@PBD@Z ; std::basic_string<char,std::char_traits<char>,std::allocator<char> >::basic_string<char,std::char_traits<char>,std::allocator<char> >
	mov	eax, DWORD PTR $T1[ebp]
	or	eax, 1
	mov	DWORD PTR $T1[ebp], eax
	mov	eax, DWORD PTR ___$ReturnUdt$[ebp]

; 637  : 		}

	mov	esp, ebp
	pop	ebp
	ret	8
?message@_System_error_category@std@@UBE?AV?$basic_string@DU?$char_traits@D@std@@V?$allocator@D@2@@2@H@Z ENDP ; std::_System_error_category::message
_TEXT	ENDS
; Function compile flags: /Odtp
; File c:\program files (x86)\microsoft visual studio 11.0\vc\include\system_error
;	COMDAT ?name@_System_error_category@std@@UBEPBDXZ
_TEXT	SEGMENT
_this$ = -4						; size = 4
?name@_System_error_category@std@@UBEPBDXZ PROC		; std::_System_error_category::name, COMDAT
; _this$ = ecx

; 629  : 		{	// get name of category

	push	ebp
	mov	ebp, esp
	push	ecx
	mov	DWORD PTR _this$[ebp], ecx

; 630  : 		return ("system");

	mov	eax, OFFSET ??_C@_06FHFOAHML@system?$AA@

; 631  : 		}

	mov	esp, ebp
	pop	ebp
	ret	0
?name@_System_error_category@std@@UBEPBDXZ ENDP		; std::_System_error_category::name
_TEXT	ENDS
; Function compile flags: /Odtp
; File c:\program files (x86)\microsoft visual studio 11.0\vc\include\system_error
;	COMDAT ??0_System_error_category@std@@QAE@XZ
_TEXT	SEGMENT
_this$ = -4						; size = 4
??0_System_error_category@std@@QAE@XZ PROC		; std::_System_error_category::_System_error_category, COMDAT
; _this$ = ecx

; 624  : 	_System_error_category()

	push	ebp
	mov	ebp, esp
	push	ecx
	mov	DWORD PTR _this$[ebp], ecx
	mov	ecx, DWORD PTR _this$[ebp]
	call	??0_Generic_error_category@std@@QAE@XZ	; std::_Generic_error_category::_Generic_error_category
	mov	eax, DWORD PTR _this$[ebp]
	mov	DWORD PTR [eax], OFFSET ??_7_System_error_category@std@@6B@

; 625  : 		{	// default constructor
; 626  : 		}

	mov	eax, DWORD PTR _this$[ebp]
	mov	esp, ebp
	pop	ebp
	ret	0
??0_System_error_category@std@@QAE@XZ ENDP		; std::_System_error_category::_System_error_category
_TEXT	ENDS
; Function compile flags: /Odtp
;	COMDAT ??_G_Iostream_error_category@std@@UAEPAXI@Z
_TEXT	SEGMENT
_this$ = -4						; size = 4
___flags$ = 8						; size = 4
??_G_Iostream_error_category@std@@UAEPAXI@Z PROC	; std::_Iostream_error_category::`scalar deleting destructor', COMDAT
; _this$ = ecx
	push	ebp
	mov	ebp, esp
	push	ecx
	mov	DWORD PTR _this$[ebp], ecx
	mov	ecx, DWORD PTR _this$[ebp]
	call	??1_Iostream_error_category@std@@UAE@XZ
	mov	eax, DWORD PTR ___flags$[ebp]
	and	eax, 1
	je	SHORT $LN1@scalar
	mov	ecx, DWORD PTR _this$[ebp]
	push	ecx
	call	??3@YAXPAX@Z				; operator delete
	add	esp, 4
$LN1@scalar:
	mov	eax, DWORD PTR _this$[ebp]
	mov	esp, ebp
	pop	ebp
	ret	4
??_G_Iostream_error_category@std@@UAEPAXI@Z ENDP	; std::_Iostream_error_category::`scalar deleting destructor'
_TEXT	ENDS
; Function compile flags: /Odtp
;	COMDAT ??1_Iostream_error_category@std@@UAE@XZ
_TEXT	SEGMENT
_this$ = -4						; size = 4
??1_Iostream_error_category@std@@UAE@XZ PROC		; std::_Iostream_error_category::~_Iostream_error_category, COMDAT
; _this$ = ecx
	push	ebp
	mov	ebp, esp
	push	ecx
	mov	DWORD PTR _this$[ebp], ecx
	mov	ecx, DWORD PTR _this$[ebp]
	call	??1_Generic_error_category@std@@UAE@XZ
	mov	esp, ebp
	pop	ebp
	ret	0
??1_Iostream_error_category@std@@UAE@XZ ENDP		; std::_Iostream_error_category::~_Iostream_error_category
_TEXT	ENDS
; Function compile flags: /Odtp
; File c:\program files (x86)\microsoft visual studio 11.0\vc\include\system_error
;	COMDAT ?message@_Iostream_error_category@std@@UBE?AV?$basic_string@DU?$char_traits@D@std@@V?$allocator@D@2@@2@H@Z
_TEXT	SEGMENT
_this$ = -8						; size = 4
$T1 = -4						; size = 4
___$ReturnUdt$ = 8					; size = 4
__Errcode$ = 12						; size = 4
?message@_Iostream_error_category@std@@UBE?AV?$basic_string@DU?$char_traits@D@std@@V?$allocator@D@2@@2@H@Z PROC ; std::_Iostream_error_category::message, COMDAT
; _this$ = ecx

; 611  : 		{	// convert to name of error

	push	ebp
	mov	ebp, esp
	sub	esp, 8
	mov	DWORD PTR _this$[ebp], ecx
	mov	DWORD PTR $T1[ebp], 0

; 612  : 		if (_Errcode == (int)io_errc::stream)

	cmp	DWORD PTR __Errcode$[ebp], 1
	jne	SHORT $LN2@message

; 613  : 			return ("iostream stream error");

	push	OFFSET ??_C@_0BG@PADBLCHM@iostream?5stream?5error?$AA@
	mov	ecx, DWORD PTR ___$ReturnUdt$[ebp]
	call	??0?$basic_string@DU?$char_traits@D@std@@V?$allocator@D@2@@std@@QAE@PBD@Z ; std::basic_string<char,std::char_traits<char>,std::allocator<char> >::basic_string<char,std::char_traits<char>,std::allocator<char> >
	mov	eax, DWORD PTR $T1[ebp]
	or	eax, 1
	mov	DWORD PTR $T1[ebp], eax
	mov	eax, DWORD PTR ___$ReturnUdt$[ebp]
	jmp	SHORT $LN3@message

; 614  : 		else

	jmp	SHORT $LN3@message
$LN2@message:

; 615  : 			return (_Generic_error_category::message(_Errcode));

	mov	ecx, DWORD PTR __Errcode$[ebp]
	push	ecx
	mov	edx, DWORD PTR ___$ReturnUdt$[ebp]
	push	edx
	mov	ecx, DWORD PTR _this$[ebp]
	call	?message@_Generic_error_category@std@@UBE?AV?$basic_string@DU?$char_traits@D@std@@V?$allocator@D@2@@2@H@Z ; std::_Generic_error_category::message
	mov	eax, DWORD PTR $T1[ebp]
	or	eax, 1
	mov	DWORD PTR $T1[ebp], eax
	mov	eax, DWORD PTR ___$ReturnUdt$[ebp]
$LN3@message:

; 616  : 		}

	mov	esp, ebp
	pop	ebp
	ret	8
?message@_Iostream_error_category@std@@UBE?AV?$basic_string@DU?$char_traits@D@std@@V?$allocator@D@2@@2@H@Z ENDP ; std::_Iostream_error_category::message
_TEXT	ENDS
; Function compile flags: /Odtp
; File c:\program files (x86)\microsoft visual studio 11.0\vc\include\system_error
;	COMDAT ?name@_Iostream_error_category@std@@UBEPBDXZ
_TEXT	SEGMENT
_this$ = -4						; size = 4
?name@_Iostream_error_category@std@@UBEPBDXZ PROC	; std::_Iostream_error_category::name, COMDAT
; _this$ = ecx

; 606  : 		{	// get name of category

	push	ebp
	mov	ebp, esp
	push	ecx
	mov	DWORD PTR _this$[ebp], ecx

; 607  : 		return ("iostream");

	mov	eax, OFFSET ??_C@_08LLGCOLLL@iostream?$AA@

; 608  : 		}

	mov	esp, ebp
	pop	ebp
	ret	0
?name@_Iostream_error_category@std@@UBEPBDXZ ENDP	; std::_Iostream_error_category::name
_TEXT	ENDS
; Function compile flags: /Odtp
; File c:\program files (x86)\microsoft visual studio 11.0\vc\include\system_error
;	COMDAT ??0_Iostream_error_category@std@@QAE@XZ
_TEXT	SEGMENT
_this$ = -4						; size = 4
??0_Iostream_error_category@std@@QAE@XZ PROC		; std::_Iostream_error_category::_Iostream_error_category, COMDAT
; _this$ = ecx

; 601  : 	_Iostream_error_category()

	push	ebp
	mov	ebp, esp
	push	ecx
	mov	DWORD PTR _this$[ebp], ecx
	mov	ecx, DWORD PTR _this$[ebp]
	call	??0_Generic_error_category@std@@QAE@XZ	; std::_Generic_error_category::_Generic_error_category
	mov	eax, DWORD PTR _this$[ebp]
	mov	DWORD PTR [eax], OFFSET ??_7_Iostream_error_category@std@@6B@

; 602  : 		{	// default constructor
; 603  : 		}

	mov	eax, DWORD PTR _this$[ebp]
	mov	esp, ebp
	pop	ebp
	ret	0
??0_Iostream_error_category@std@@QAE@XZ ENDP		; std::_Iostream_error_category::_Iostream_error_category
_TEXT	ENDS
; Function compile flags: /Odtp
;	COMDAT ??_G_Generic_error_category@std@@UAEPAXI@Z
_TEXT	SEGMENT
_this$ = -4						; size = 4
___flags$ = 8						; size = 4
??_G_Generic_error_category@std@@UAEPAXI@Z PROC		; std::_Generic_error_category::`scalar deleting destructor', COMDAT
; _this$ = ecx
	push	ebp
	mov	ebp, esp
	push	ecx
	mov	DWORD PTR _this$[ebp], ecx
	mov	ecx, DWORD PTR _this$[ebp]
	call	??1_Generic_error_category@std@@UAE@XZ
	mov	eax, DWORD PTR ___flags$[ebp]
	and	eax, 1
	je	SHORT $LN1@scalar
	mov	ecx, DWORD PTR _this$[ebp]
	push	ecx
	call	??3@YAXPAX@Z				; operator delete
	add	esp, 4
$LN1@scalar:
	mov	eax, DWORD PTR _this$[ebp]
	mov	esp, ebp
	pop	ebp
	ret	4
??_G_Generic_error_category@std@@UAEPAXI@Z ENDP		; std::_Generic_error_category::`scalar deleting destructor'
_TEXT	ENDS
; Function compile flags: /Odtp
;	COMDAT ??1_Generic_error_category@std@@UAE@XZ
_TEXT	SEGMENT
_this$ = -4						; size = 4
??1_Generic_error_category@std@@UAE@XZ PROC		; std::_Generic_error_category::~_Generic_error_category, COMDAT
; _this$ = ecx
	push	ebp
	mov	ebp, esp
	push	ecx
	mov	DWORD PTR _this$[ebp], ecx
	mov	ecx, DWORD PTR _this$[ebp]
	call	??1error_category@std@@UAE@XZ		; std::error_category::~error_category
	mov	esp, ebp
	pop	ebp
	ret	0
??1_Generic_error_category@std@@UAE@XZ ENDP		; std::_Generic_error_category::~_Generic_error_category
_TEXT	ENDS
; Function compile flags: /Odtp
; File c:\program files (x86)\microsoft visual studio 11.0\vc\include\system_error
;	COMDAT ?message@_Generic_error_category@std@@UBE?AV?$basic_string@DU?$char_traits@D@std@@V?$allocator@D@2@@2@H@Z
_TEXT	SEGMENT
_this$ = -16						; size = 4
$T1 = -12						; size = 4
tv69 = -8						; size = 4
__Name$ = -4						; size = 4
___$ReturnUdt$ = 8					; size = 4
__Errcode$ = 12						; size = 4
?message@_Generic_error_category@std@@UBE?AV?$basic_string@DU?$char_traits@D@std@@V?$allocator@D@2@@2@H@Z PROC ; std::_Generic_error_category::message, COMDAT
; _this$ = ecx

; 590  : 		{	// convert to name of error

	push	ebp
	mov	ebp, esp
	sub	esp, 16					; 00000010H
	mov	DWORD PTR _this$[ebp], ecx
	mov	DWORD PTR $T1[ebp], 0

; 591  : 		const char *_Name = _Syserror_map(_Errcode);

	mov	eax, DWORD PTR __Errcode$[ebp]
	push	eax
	call	?_Syserror_map@std@@YAPBDH@Z		; std::_Syserror_map
	add	esp, 4
	mov	DWORD PTR __Name$[ebp], eax

; 592  : 		return (string(_Name != 0 ? _Name : "unknown error"));

	cmp	DWORD PTR __Name$[ebp], 0
	je	SHORT $LN3@message
	mov	ecx, DWORD PTR __Name$[ebp]
	mov	DWORD PTR tv69[ebp], ecx
	jmp	SHORT $LN4@message
$LN3@message:
	mov	DWORD PTR tv69[ebp], OFFSET ??_C@_0O@BFJCFAAK@unknown?5error?$AA@
$LN4@message:
	mov	edx, DWORD PTR tv69[ebp]
	push	edx
	mov	ecx, DWORD PTR ___$ReturnUdt$[ebp]
	call	??0?$basic_string@DU?$char_traits@D@std@@V?$allocator@D@2@@std@@QAE@PBD@Z ; std::basic_string<char,std::char_traits<char>,std::allocator<char> >::basic_string<char,std::char_traits<char>,std::allocator<char> >
	mov	eax, DWORD PTR $T1[ebp]
	or	eax, 1
	mov	DWORD PTR $T1[ebp], eax
	mov	eax, DWORD PTR ___$ReturnUdt$[ebp]

; 593  : 		}

	mov	esp, ebp
	pop	ebp
	ret	8
?message@_Generic_error_category@std@@UBE?AV?$basic_string@DU?$char_traits@D@std@@V?$allocator@D@2@@2@H@Z ENDP ; std::_Generic_error_category::message
_TEXT	ENDS
; Function compile flags: /Odtp
; File c:\program files (x86)\microsoft visual studio 11.0\vc\include\system_error
;	COMDAT ?name@_Generic_error_category@std@@UBEPBDXZ
_TEXT	SEGMENT
_this$ = -4						; size = 4
?name@_Generic_error_category@std@@UBEPBDXZ PROC	; std::_Generic_error_category::name, COMDAT
; _this$ = ecx

; 585  : 		{	// get name of category

	push	ebp
	mov	ebp, esp
	push	ecx
	mov	DWORD PTR _this$[ebp], ecx

; 586  : 		return ("generic");

	mov	eax, OFFSET ??_C@_07DCLBNMLN@generic?$AA@

; 587  : 		}

	mov	esp, ebp
	pop	ebp
	ret	0
?name@_Generic_error_category@std@@UBEPBDXZ ENDP	; std::_Generic_error_category::name
_TEXT	ENDS
; Function compile flags: /Odtp
; File c:\program files (x86)\microsoft visual studio 11.0\vc\include\system_error
;	COMDAT ??0_Generic_error_category@std@@QAE@XZ
_TEXT	SEGMENT
_this$ = -4						; size = 4
??0_Generic_error_category@std@@QAE@XZ PROC		; std::_Generic_error_category::_Generic_error_category, COMDAT
; _this$ = ecx

; 580  : 	_Generic_error_category()

	push	ebp
	mov	ebp, esp
	push	ecx
	mov	DWORD PTR _this$[ebp], ecx
	mov	ecx, DWORD PTR _this$[ebp]
	call	??0error_category@std@@QAE@XZ		; std::error_category::error_category
	mov	eax, DWORD PTR _this$[ebp]
	mov	DWORD PTR [eax], OFFSET ??_7_Generic_error_category@std@@6B@

; 581  : 		{	// default constructor
; 582  : 		}

	mov	eax, DWORD PTR _this$[ebp]
	mov	esp, ebp
	pop	ebp
	ret	0
??0_Generic_error_category@std@@QAE@XZ ENDP		; std::_Generic_error_category::_Generic_error_category
_TEXT	ENDS
; Function compile flags: /Odtp
; File c:\program files (x86)\microsoft visual studio 11.0\vc\include\system_error
;	COMDAT ??8error_condition@std@@QBE_NABV01@@Z
_TEXT	SEGMENT
tv78 = -8						; size = 4
_this$ = -4						; size = 4
__Right$ = 8						; size = 4
??8error_condition@std@@QBE_NABV01@@Z PROC		; std::error_condition::operator==, COMDAT
; _this$ = ecx

; 376  : 		{	// test if *this == _Right

	push	ebp
	mov	ebp, esp
	sub	esp, 8
	push	esi
	mov	DWORD PTR _this$[ebp], ecx

; 377  : 		return (category() == _Right.category()
; 378  : 			&& value() == _Right.value());

	mov	ecx, DWORD PTR __Right$[ebp]
	call	?category@error_condition@std@@QBEABVerror_category@2@XZ ; std::error_condition::category
	push	eax
	mov	ecx, DWORD PTR _this$[ebp]
	call	?category@error_condition@std@@QBEABVerror_category@2@XZ ; std::error_condition::category
	mov	ecx, eax
	call	??8error_category@std@@QBE_NABV01@@Z	; std::error_category::operator==
	movzx	eax, al
	test	eax, eax
	je	SHORT $LN3@operator
	mov	ecx, DWORD PTR _this$[ebp]
	call	?value@error_condition@std@@QBEHXZ	; std::error_condition::value
	mov	esi, eax
	mov	ecx, DWORD PTR __Right$[ebp]
	call	?value@error_condition@std@@QBEHXZ	; std::error_condition::value
	cmp	esi, eax
	jne	SHORT $LN3@operator
	mov	DWORD PTR tv78[ebp], 1
	jmp	SHORT $LN4@operator
$LN3@operator:
	mov	DWORD PTR tv78[ebp], 0
$LN4@operator:
	mov	al, BYTE PTR tv78[ebp]

; 379  : 		}

	pop	esi
	mov	esp, ebp
	pop	ebp
	ret	4
??8error_condition@std@@QBE_NABV01@@Z ENDP		; std::error_condition::operator==
_TEXT	ENDS
; Function compile flags: /Odtp
; File c:\program files (x86)\microsoft visual studio 11.0\vc\include\system_error
;	COMDAT ?category@error_condition@std@@QBEABVerror_category@2@XZ
_TEXT	SEGMENT
_this$ = -4						; size = 4
?category@error_condition@std@@QBEABVerror_category@2@XZ PROC ; std::error_condition::category, COMDAT
; _this$ = ecx

; 354  : 		{	// get category

	push	ebp
	mov	ebp, esp
	push	ecx
	mov	DWORD PTR _this$[ebp], ecx

; 355  : 		return (*_Mycat);

	mov	eax, DWORD PTR _this$[ebp]
	mov	eax, DWORD PTR [eax+4]

; 356  : 		}

	mov	esp, ebp
	pop	ebp
	ret	0
?category@error_condition@std@@QBEABVerror_category@2@XZ ENDP ; std::error_condition::category
_TEXT	ENDS
; Function compile flags: /Odtp
; File c:\program files (x86)\microsoft visual studio 11.0\vc\include\system_error
;	COMDAT ?value@error_condition@std@@QBEHXZ
_TEXT	SEGMENT
_this$ = -4						; size = 4
?value@error_condition@std@@QBEHXZ PROC			; std::error_condition::value, COMDAT
; _this$ = ecx

; 349  : 		{	// get error code

	push	ebp
	mov	ebp, esp
	push	ecx
	mov	DWORD PTR _this$[ebp], ecx

; 350  : 		return (_Myval);

	mov	eax, DWORD PTR _this$[ebp]
	mov	eax, DWORD PTR [eax]

; 351  : 		}

	mov	esp, ebp
	pop	ebp
	ret	0
?value@error_condition@std@@QBEHXZ ENDP			; std::error_condition::value
_TEXT	ENDS
; Function compile flags: /Odtp
; File c:\program files (x86)\microsoft visual studio 11.0\vc\include\system_error
;	COMDAT ??0error_condition@std@@QAE@HABVerror_category@1@@Z
_TEXT	SEGMENT
_this$ = -4						; size = 4
__Val$ = 8						; size = 4
__Cat$ = 12						; size = 4
??0error_condition@std@@QAE@HABVerror_category@1@@Z PROC ; std::error_condition::error_condition, COMDAT
; _this$ = ecx

; 316  : 		{	// construct from error code and category

	push	ebp
	mov	ebp, esp
	push	ecx
	mov	DWORD PTR _this$[ebp], ecx
	mov	eax, DWORD PTR _this$[ebp]
	mov	ecx, DWORD PTR __Val$[ebp]
	mov	DWORD PTR [eax], ecx
	mov	edx, DWORD PTR _this$[ebp]
	mov	eax, DWORD PTR __Cat$[ebp]
	mov	DWORD PTR [edx+4], eax

; 317  : 		}

	mov	eax, DWORD PTR _this$[ebp]
	mov	esp, ebp
	pop	ebp
	ret	8
??0error_condition@std@@QAE@HABVerror_category@1@@Z ENDP ; std::error_condition::error_condition
_TEXT	ENDS
; Function compile flags: /Odtp
; File c:\program files (x86)\microsoft visual studio 11.0\vc\include\system_error
;	COMDAT ?category@error_code@std@@QBEABVerror_category@2@XZ
_TEXT	SEGMENT
_this$ = -4						; size = 4
?category@error_code@std@@QBEABVerror_category@2@XZ PROC ; std::error_code::category, COMDAT
; _this$ = ecx

; 256  : 		{	// get category

	push	ebp
	mov	ebp, esp
	push	ecx
	mov	DWORD PTR _this$[ebp], ecx

; 257  : 		return (*_Mycat);

	mov	eax, DWORD PTR _this$[ebp]
	mov	eax, DWORD PTR [eax+4]

; 258  : 		}

	mov	esp, ebp
	pop	ebp
	ret	0
?category@error_code@std@@QBEABVerror_category@2@XZ ENDP ; std::error_code::category
_TEXT	ENDS
; Function compile flags: /Odtp
; File c:\program files (x86)\microsoft visual studio 11.0\vc\include\system_error
;	COMDAT ?value@error_code@std@@QBEHXZ
_TEXT	SEGMENT
_this$ = -4						; size = 4
?value@error_code@std@@QBEHXZ PROC			; std::error_code::value, COMDAT
; _this$ = ecx

; 251  : 		{	// get error code

	push	ebp
	mov	ebp, esp
	push	ecx
	mov	DWORD PTR _this$[ebp], ecx

; 252  : 		return (_Myval);

	mov	eax, DWORD PTR _this$[ebp]
	mov	eax, DWORD PTR [eax]

; 253  : 		}

	mov	esp, ebp
	pop	ebp
	ret	0
?value@error_code@std@@QBEHXZ ENDP			; std::error_code::value
_TEXT	ENDS
; Function compile flags: /Odtp
;	COMDAT ??_Gerror_category@std@@UAEPAXI@Z
_TEXT	SEGMENT
_this$ = -4						; size = 4
___flags$ = 8						; size = 4
??_Gerror_category@std@@UAEPAXI@Z PROC			; std::error_category::`scalar deleting destructor', COMDAT
; _this$ = ecx
	push	ebp
	mov	ebp, esp
	push	ecx
	mov	DWORD PTR _this$[ebp], ecx
	mov	ecx, DWORD PTR _this$[ebp]
	call	??1error_category@std@@UAE@XZ		; std::error_category::~error_category
	mov	eax, DWORD PTR ___flags$[ebp]
	and	eax, 1
	je	SHORT $LN1@scalar
	mov	ecx, DWORD PTR _this$[ebp]
	push	ecx
	call	??3@YAXPAX@Z				; operator delete
	add	esp, 4
$LN1@scalar:
	mov	eax, DWORD PTR _this$[ebp]
	mov	esp, ebp
	pop	ebp
	ret	4
??_Gerror_category@std@@UAEPAXI@Z ENDP			; std::error_category::`scalar deleting destructor'
_TEXT	ENDS
; Function compile flags: /Odtp
; File c:\program files (x86)\microsoft visual studio 11.0\vc\include\system_error
;	COMDAT ??8error_category@std@@QBE_NABV01@@Z
_TEXT	SEGMENT
_this$ = -8						; size = 4
tv65 = -4						; size = 4
__Right$ = 8						; size = 4
??8error_category@std@@QBE_NABV01@@Z PROC		; std::error_category::operator==, COMDAT
; _this$ = ecx

; 184  : 		{	// compare categories for equality

	push	ebp
	mov	ebp, esp
	sub	esp, 8
	mov	DWORD PTR _this$[ebp], ecx

; 185  : 		return (this == &_Right);

	mov	eax, DWORD PTR _this$[ebp]
	cmp	eax, DWORD PTR __Right$[ebp]
	jne	SHORT $LN3@operator
	mov	DWORD PTR tv65[ebp], 1
	jmp	SHORT $LN4@operator
$LN3@operator:
	mov	DWORD PTR tv65[ebp], 0
$LN4@operator:
	mov	al, BYTE PTR tv65[ebp]

; 186  : 		}

	mov	esp, ebp
	pop	ebp
	ret	4
??8error_category@std@@QBE_NABV01@@Z ENDP		; std::error_category::operator==
_TEXT	ENDS
; Function compile flags: /Odtp
; File c:\program files (x86)\microsoft visual studio 11.0\vc\include\system_error
;	COMDAT ?equivalent@error_category@std@@UBE_NABVerror_code@2@H@Z
_TEXT	SEGMENT
_this$ = -8						; size = 4
tv74 = -4						; size = 4
__Code$ = 8						; size = 4
__Errval$ = 12						; size = 4
?equivalent@error_category@std@@UBE_NABVerror_code@2@H@Z PROC ; std::error_category::equivalent, COMDAT
; _this$ = ecx

; 415  : 	{	// test if conditions same for this category

	push	ebp
	mov	ebp, esp
	sub	esp, 8
	mov	DWORD PTR _this$[ebp], ecx

; 416  : 	return (*this == _Code.category() && _Code.value() == _Errval);

	mov	ecx, DWORD PTR __Code$[ebp]
	call	?category@error_code@std@@QBEABVerror_category@2@XZ ; std::error_code::category
	push	eax
	mov	ecx, DWORD PTR _this$[ebp]
	call	??8error_category@std@@QBE_NABV01@@Z	; std::error_category::operator==
	movzx	eax, al
	test	eax, eax
	je	SHORT $LN3@equivalent
	mov	ecx, DWORD PTR __Code$[ebp]
	call	?value@error_code@std@@QBEHXZ		; std::error_code::value
	cmp	eax, DWORD PTR __Errval$[ebp]
	jne	SHORT $LN3@equivalent
	mov	DWORD PTR tv74[ebp], 1
	jmp	SHORT $LN4@equivalent
$LN3@equivalent:
	mov	DWORD PTR tv74[ebp], 0
$LN4@equivalent:
	mov	al, BYTE PTR tv74[ebp]

; 417  : 	}

	mov	esp, ebp
	pop	ebp
	ret	8
?equivalent@error_category@std@@UBE_NABVerror_code@2@H@Z ENDP ; std::error_category::equivalent
_TEXT	ENDS
; Function compile flags: /Odtp
; File c:\program files (x86)\microsoft visual studio 11.0\vc\include\system_error
;	COMDAT ?equivalent@error_category@std@@UBE_NHABVerror_condition@2@@Z
_TEXT	SEGMENT
$T1 = -12						; size = 8
_this$ = -4						; size = 4
__Errval$ = 8						; size = 4
__Cond$ = 12						; size = 4
?equivalent@error_category@std@@UBE_NHABVerror_condition@2@@Z PROC ; std::error_category::equivalent, COMDAT
; _this$ = ecx

; 408  : 	{	// test if error code same condition

	push	ebp
	mov	ebp, esp
	sub	esp, 12					; 0000000cH
	mov	DWORD PTR _this$[ebp], ecx

; 409  : 	return (default_error_condition(_Errval) == _Cond);

	mov	eax, DWORD PTR __Cond$[ebp]
	push	eax
	mov	ecx, DWORD PTR __Errval$[ebp]
	push	ecx
	lea	edx, DWORD PTR $T1[ebp]
	push	edx
	mov	eax, DWORD PTR _this$[ebp]
	mov	edx, DWORD PTR [eax]
	mov	ecx, DWORD PTR _this$[ebp]
	mov	eax, DWORD PTR [edx+12]
	call	eax
	mov	ecx, eax
	call	??8error_condition@std@@QBE_NABV01@@Z	; std::error_condition::operator==

; 410  : 	}

	mov	esp, ebp
	pop	ebp
	ret	8
?equivalent@error_category@std@@UBE_NHABVerror_condition@2@@Z ENDP ; std::error_category::equivalent
_TEXT	ENDS
; Function compile flags: /Odtp
; File c:\program files (x86)\microsoft visual studio 11.0\vc\include\system_error
;	COMDAT ?default_error_condition@error_category@std@@UBE?AVerror_condition@2@H@Z
_TEXT	SEGMENT
_this$ = -4						; size = 4
___$ReturnUdt$ = 8					; size = 4
__Errval$ = 12						; size = 4
?default_error_condition@error_category@std@@UBE?AVerror_condition@2@H@Z PROC ; std::error_category::default_error_condition, COMDAT
; _this$ = ecx

; 401  : 	{	// make error_condition for error code

	push	ebp
	mov	ebp, esp
	push	ecx
	mov	DWORD PTR _this$[ebp], ecx

; 402  : 	return (error_condition(_Errval, *this));

	mov	eax, DWORD PTR _this$[ebp]
	push	eax
	mov	ecx, DWORD PTR __Errval$[ebp]
	push	ecx
	mov	ecx, DWORD PTR ___$ReturnUdt$[ebp]
	call	??0error_condition@std@@QAE@HABVerror_category@1@@Z ; std::error_condition::error_condition
	mov	eax, DWORD PTR ___$ReturnUdt$[ebp]

; 403  : 	}

	mov	esp, ebp
	pop	ebp
	ret	8
?default_error_condition@error_category@std@@UBE?AVerror_condition@2@H@Z ENDP ; std::error_category::default_error_condition
_TEXT	ENDS
; Function compile flags: /Odtp
; File c:\program files (x86)\microsoft visual studio 11.0\vc\include\system_error
;	COMDAT ??1error_category@std@@UAE@XZ
_TEXT	SEGMENT
_this$ = -4						; size = 4
??1error_category@std@@UAE@XZ PROC			; std::error_category::~error_category, COMDAT
; _this$ = ecx

; 167  : 		{	// destroy the object

	push	ebp
	mov	ebp, esp
	push	ecx
	mov	DWORD PTR _this$[ebp], ecx
	mov	eax, DWORD PTR _this$[ebp]
	mov	DWORD PTR [eax], OFFSET ??_7error_category@std@@6B@

; 168  : 		}

	mov	esp, ebp
	pop	ebp
	ret	0
??1error_category@std@@UAE@XZ ENDP			; std::error_category::~error_category
_TEXT	ENDS
; Function compile flags: /Odtp
; File c:\program files (x86)\microsoft visual studio 11.0\vc\include\system_error
;	COMDAT ??0error_category@std@@QAE@XZ
_TEXT	SEGMENT
_this$ = -4						; size = 4
??0error_category@std@@QAE@XZ PROC			; std::error_category::error_category, COMDAT
; _this$ = ecx

; 162  : 	error_category()

	push	ebp
	mov	ebp, esp
	push	ecx
	mov	DWORD PTR _this$[ebp], ecx
	mov	eax, DWORD PTR _this$[ebp]
	mov	DWORD PTR [eax], OFFSET ??_7error_category@std@@6B@

; 163  : 		{	// default constructor
; 164  : 		}

	mov	eax, DWORD PTR _this$[ebp]
	mov	esp, ebp
	pop	ebp
	ret	0
??0error_category@std@@QAE@XZ ENDP			; std::error_category::error_category
_TEXT	ENDS
; Function compile flags: /Odtp
; File c:\program files (x86)\microsoft visual studio 11.0\vc\include\system_error
;	COMDAT ?system_category@std@@YAABVerror_category@1@XZ
_TEXT	SEGMENT
?system_category@std@@YAABVerror_category@1@XZ PROC	; std::system_category, COMDAT

; 679  : 	{	// get system_category

	push	ebp
	mov	ebp, esp

; 680  : 	return (_Error_objects<int>::_System_object);

	mov	eax, OFFSET ?_System_object@?$_Error_objects@H@std@@2V_System_error_category@2@A ; std::_Error_objects<int>::_System_object

; 681  : 	}

	pop	ebp
	ret	0
?system_category@std@@YAABVerror_category@1@XZ ENDP	; std::system_category
_TEXT	ENDS
; Function compile flags: /Odtp
; File c:\program files (x86)\microsoft visual studio 11.0\vc\include\system_error
;	COMDAT ?generic_category@std@@YAABVerror_category@1@XZ
_TEXT	SEGMENT
?generic_category@std@@YAABVerror_category@1@XZ PROC	; std::generic_category, COMDAT

; 669  : 	{	// get generic_category

	push	ebp
	mov	ebp, esp

; 670  : 	return (_Error_objects<int>::_Generic_object);

	mov	eax, OFFSET ?_Generic_object@?$_Error_objects@H@std@@2V_Generic_error_category@2@A ; std::_Error_objects<int>::_Generic_object

; 671  : 	}

	pop	ebp
	ret	0
?generic_category@std@@YAABVerror_category@1@XZ ENDP	; std::generic_category
_TEXT	ENDS
; Function compile flags: /Odtp
; File c:\program files (x86)\microsoft visual studio 11.0\vc\include\xlocale
;	COMDAT ??0id@locale@std@@QAE@I@Z
_TEXT	SEGMENT
_this$ = -4						; size = 4
__Val$ = 8						; size = 4
??0id@locale@std@@QAE@I@Z PROC				; std::locale::id::id, COMDAT
; _this$ = ecx

; 74   : 			{	// construct with specified stamp value

	push	ebp
	mov	ebp, esp
	push	ecx
	mov	DWORD PTR _this$[ebp], ecx
	mov	eax, DWORD PTR _this$[ebp]
	mov	ecx, DWORD PTR __Val$[ebp]
	mov	DWORD PTR [eax], ecx

; 75   : 			}

	mov	eax, DWORD PTR _this$[ebp]
	mov	esp, ebp
	pop	ebp
	ret	4
??0id@locale@std@@QAE@I@Z ENDP				; std::locale::id::id
_TEXT	ENDS
; Function compile flags: /Odtp
; File c:\users\zhitao li\documents\visual studio 2012\projects\freefalcon\falclib\include\falcsess.h
;	COMDAT ?GetPilotSlot@FalconSessionEntity@@QBEEXZ
_TEXT	SEGMENT
_this$ = -4						; size = 4
?GetPilotSlot@FalconSessionEntity@@QBEEXZ PROC		; FalconSessionEntity::GetPilotSlot, COMDAT
; _this$ = ecx

; 146  : 	uchar GetPilotSlot (void) const               { return pilotSlot; }

	push	ebp
	mov	ebp, esp
	push	ecx
	mov	DWORD PTR _this$[ebp], ecx
	mov	eax, DWORD PTR _this$[ebp]
	mov	al, BYTE PTR [eax+512]
	mov	esp, ebp
	pop	ebp
	ret	0
?GetPilotSlot@FalconSessionEntity@@QBEEXZ ENDP		; FalconSessionEntity::GetPilotSlot
_TEXT	ENDS
; Function compile flags: /Odtp
; File c:\users\zhitao li\documents\visual studio 2012\projects\freefalcon\falclib\include\falcsess.h
;	COMDAT ?GetPlayerSquadron@FalconSessionEntity@@QBEPAVSquadronClass@@XZ
_TEXT	SEGMENT
_this$ = -4						; size = 4
?GetPlayerSquadron@FalconSessionEntity@@QBEPAVSquadronClass@@XZ PROC ; FalconSessionEntity::GetPlayerSquadron, COMDAT
; _this$ = ecx

; 140  : 	SquadronClass* GetPlayerSquadron(void)	const { return playerSquadronPtr.get(); }

	push	ebp
	mov	ebp, esp
	push	ecx
	mov	DWORD PTR _this$[ebp], ecx
	mov	ecx, DWORD PTR _this$[ebp]
	add	ecx, 476				; 000001dcH
	call	?get@?$VuBin@VSquadronClass@@@@QBEPAVSquadronClass@@XZ ; VuBin<SquadronClass>::get
	mov	esp, ebp
	pop	ebp
	ret	0
?GetPlayerSquadron@FalconSessionEntity@@QBEPAVSquadronClass@@XZ ENDP ; FalconSessionEntity::GetPlayerSquadron
_TEXT	ENDS
; Function compile flags: /Odtp
; File c:\users\zhitao li\documents\visual studio 2012\projects\freefalcon\falclib\include\falcsess.h
;	COMDAT ?GetPlayerFlight@FalconSessionEntity@@QBEPAVFlightClass@@XZ
_TEXT	SEGMENT
_this$ = -4						; size = 4
?GetPlayerFlight@FalconSessionEntity@@QBEPAVFlightClass@@XZ PROC ; FalconSessionEntity::GetPlayerFlight, COMDAT
; _this$ = ecx

; 139  : 	FlightClass* GetPlayerFlight(void) const      { return playerFlightPtr.get(); }

	push	ebp
	mov	ebp, esp
	push	ecx
	mov	DWORD PTR _this$[ebp], ecx
	mov	ecx, DWORD PTR _this$[ebp]
	add	ecx, 480				; 000001e0H
	call	?get@?$VuBin@VFlightClass@@@@QBEPAVFlightClass@@XZ ; VuBin<FlightClass>::get
	mov	esp, ebp
	pop	ebp
	ret	0
?GetPlayerFlight@FalconSessionEntity@@QBEPAVFlightClass@@XZ ENDP ; FalconSessionEntity::GetPlayerFlight
_TEXT	ENDS
; Function compile flags: /Odtp
; File c:\users\zhitao li\documents\visual studio 2012\projects\freefalcon\vu2\include\vu_templates.h
;	COMDAT ?get@?$VuBin@VFlightClass@@@@QBEPAVFlightClass@@XZ
_TEXT	SEGMENT
_this$ = -4						; size = 4
?get@?$VuBin@VFlightClass@@@@QBEPAVFlightClass@@XZ PROC	; VuBin<FlightClass>::get, COMDAT
; _this$ = ecx

; 55   : 	E *get() const{

	push	ebp
	mov	ebp, esp
	push	ecx
	mov	DWORD PTR _this$[ebp], ecx

; 56   : 		return e;

	mov	eax, DWORD PTR _this$[ebp]
	mov	eax, DWORD PTR [eax]

; 57   : 	}

	mov	esp, ebp
	pop	ebp
	ret	0
?get@?$VuBin@VFlightClass@@@@QBEPAVFlightClass@@XZ ENDP	; VuBin<FlightClass>::get
_TEXT	ENDS
; Function compile flags: /Odtp
; File c:\users\zhitao li\documents\visual studio 2012\projects\freefalcon\vu2\include\vu_templates.h
;	COMDAT ?get@?$VuBin@VSquadronClass@@@@QBEPAVSquadronClass@@XZ
_TEXT	SEGMENT
_this$ = -4						; size = 4
?get@?$VuBin@VSquadronClass@@@@QBEPAVSquadronClass@@XZ PROC ; VuBin<SquadronClass>::get, COMDAT
; _this$ = ecx

; 55   : 	E *get() const{

	push	ebp
	mov	ebp, esp
	push	ecx
	mov	DWORD PTR _this$[ebp], ecx

; 56   : 		return e;

	mov	eax, DWORD PTR _this$[ebp]
	mov	eax, DWORD PTR [eax]

; 57   : 	}

	mov	esp, ebp
	pop	ebp
	ret	0
?get@?$VuBin@VSquadronClass@@@@QBEPAVSquadronClass@@XZ ENDP ; VuBin<SquadronClass>::get
_TEXT	ENDS
; Function compile flags: /Odtp
; File c:\users\zhitao li\documents\visual studio 2012\projects\freefalcon\campaign\camptask\squadron.cpp
_TEXT	SEGMENT
_new_squadron$ = -28					; size = 4
$T2 = -24						; size = 4
tv72 = -20						; size = 4
$T3 = -16						; size = 4
__$EHRec$ = -12						; size = 12
_type$ = 8						; size = 4
?NewSquadron@@YAPAVSquadronClass@@H@Z PROC		; NewSquadron

; 130  : {

	push	ebp
	mov	ebp, esp
	push	-1
	push	__ehhandler$?NewSquadron@@YAPAVSquadronClass@@H@Z
	mov	eax, DWORD PTR fs:0
	push	eax
	sub	esp, 16					; 00000010H
	mov	eax, DWORD PTR ___security_cookie
	xor	eax, ebp
	push	eax
	lea	eax, DWORD PTR __$EHRec$[ebp]
	mov	DWORD PTR fs:0, eax

; 131  : 	SquadronClass	*new_squadron;
; 132  : 	/*VuEnterCriticalSection();
; 133  : 	lastVolatileId = vuAssignmentId;
; 134  : 	vuAssignmentId = lastNonVolatileId;
; 135  : 	vuLowWrapNumber = FIRST_NON_VOLATILE_VU_ID_NUMBER;
; 136  : 	vuHighWrapNumber = LAST_NON_VOLATILE_VU_ID_NUMBER;*/
; 137  : 	new_squadron = new SquadronClass (type);

	push	1476					; 000005c4H
	call	??2@YAPAXI@Z				; operator new
	add	esp, 4
	mov	DWORD PTR $T3[ebp], eax
	mov	DWORD PTR __$EHRec$[ebp+8], 0
	cmp	DWORD PTR $T3[ebp], 0
	je	SHORT $LN3@NewSquadro
	movzx	eax, WORD PTR _type$[ebp]
	push	eax
	mov	ecx, DWORD PTR $T3[ebp]
	call	??0SquadronClass@@QAE@G@Z		; SquadronClass::SquadronClass
	mov	DWORD PTR tv72[ebp], eax
	jmp	SHORT $LN4@NewSquadro
$LN3@NewSquadro:
	mov	DWORD PTR tv72[ebp], 0
$LN4@NewSquadro:
	mov	ecx, DWORD PTR tv72[ebp]
	mov	DWORD PTR $T2[ebp], ecx
	mov	DWORD PTR __$EHRec$[ebp+8], -1
	mov	edx, DWORD PTR $T2[ebp]
	mov	DWORD PTR _new_squadron$[ebp], edx

; 138  : 	/*lastNonVolatileId = vuAssignmentId;
; 139  : 	vuAssignmentId = lastVolatileId;
; 140  : 	vuLowWrapNumber = FIRST_VOLATILE_VU_ID_NUMBER;
; 141  : 	vuHighWrapNumber = LAST_VOLATILE_VU_ID_NUMBER;
; 142  : 	VuExitCriticalSection();*/
; 143  : 	return new_squadron;

	mov	eax, DWORD PTR _new_squadron$[ebp]

; 144  : }

	mov	ecx, DWORD PTR __$EHRec$[ebp]
	mov	DWORD PTR fs:0, ecx
	pop	ecx
	mov	esp, ebp
	pop	ebp
	ret	0
_TEXT	ENDS
text$x	SEGMENT
__unwindfunclet$?NewSquadron@@YAPAVSquadronClass@@H@Z$0:
	mov	eax, DWORD PTR $T3[ebp]
	push	eax
	call	??3@YAXPAX@Z				; operator delete
	pop	ecx
	ret	0
__ehhandler$?NewSquadron@@YAPAVSquadronClass@@H@Z:
	mov	edx, DWORD PTR [esp+8]
	lea	eax, DWORD PTR [edx+12]
	mov	ecx, DWORD PTR [edx-20]
	xor	ecx, eax
	call	@__security_check_cookie@4
	mov	eax, OFFSET __ehfuncinfo$?NewSquadron@@YAPAVSquadronClass@@H@Z
	jmp	___CxxFrameHandler3
text$x	ENDS
?NewSquadron@@YAPAVSquadronClass@@H@Z ENDP		; NewSquadron
; Function compile flags: /Odtp
;	COMDAT ??_GSquadronClass@@UAEPAXI@Z
_TEXT	SEGMENT
_this$ = -4						; size = 4
___flags$ = 8						; size = 4
??_GSquadronClass@@UAEPAXI@Z PROC			; SquadronClass::`scalar deleting destructor', COMDAT
; _this$ = ecx
	push	ebp
	mov	ebp, esp
	push	ecx
	mov	DWORD PTR _this$[ebp], ecx
	mov	ecx, DWORD PTR _this$[ebp]
	call	??1SquadronClass@@UAE@XZ		; SquadronClass::~SquadronClass
	mov	eax, DWORD PTR ___flags$[ebp]
	and	eax, 1
	je	SHORT $LN1@scalar
	mov	ecx, DWORD PTR _this$[ebp]
	push	ecx
	call	??3@YAXPAX@Z				; operator delete
	add	esp, 4
$LN1@scalar:
	mov	eax, DWORD PTR _this$[ebp]
	mov	esp, ebp
	pop	ebp
	ret	4
??_GSquadronClass@@UAEPAXI@Z ENDP			; SquadronClass::`scalar deleting destructor'
_TEXT	ENDS
; Function compile flags: /Odtp
; File c:\users\zhitao li\documents\visual studio 2012\projects\freefalcon\campaign\camptask\squadron.cpp
_TEXT	SEGMENT
$T2 = -212						; size = 8
$T3 = -204						; size = 8
_target$4 = -196					; size = 4
$T5 = -192						; size = 4
$T6 = -188						; size = 4
tv257 = -184						; size = 4
$T7 = -180						; size = 4
_done$ = -176						; size = 4
_f$ = -172						; size = 4
_msg$8 = -168						; size = 4
_n$ = -164						; size = 4
_j$ = -160						; size = 4
_this$ = -156						; size = 4
_buffer$9 = -152					; size = 4
_i$ = -148						; size = 4
_weapsarray$ = -144					; size = 64
_weaparray$ = -80					; size = 64
__$ArrayPad$ = -16					; size = 4
__$EHRec$ = -12						; size = 12
_weapon$ = 8						; size = 4
_weapons$ = 12						; size = 4
_lbsfuel$ = 16						; size = 4
_planes$ = 20						; size = 4
?ResupplySquadronStores@SquadronClass@@QAEXQAFQAEHH@Z PROC ; SquadronClass::ResupplySquadronStores
; _this$ = ecx

; 1228 : {

	push	ebp
	mov	ebp, esp
	push	-1
	push	__ehhandler$?ResupplySquadronStores@SquadronClass@@QAEXQAFQAEHH@Z
	mov	eax, DWORD PTR fs:0
	push	eax
	sub	esp, 200				; 000000c8H
	mov	eax, DWORD PTR ___security_cookie
	xor	eax, ebp
	mov	DWORD PTR __$ArrayPad$[ebp], eax
	push	esi
	push	eax
	lea	eax, DWORD PTR __$EHRec$[ebp]
	mov	DWORD PTR fs:0, eax
	mov	DWORD PTR _this$[ebp], ecx

; 1229 : 	int			i,j,n,done=0;

	mov	DWORD PTR _done$[ebp], 0

; 1230 : 	long		f;
; 1231 : 	int			weaparray[HARDPOINT_MAX] = {0};

	mov	DWORD PTR _weaparray$[ebp], 0
	push	60					; 0000003cH
	push	0
	lea	eax, DWORD PTR _weaparray$[ebp+4]
	push	eax
	call	_memset
	add	esp, 12					; 0000000cH

; 1232 : 	int			weapsarray[HARDPOINT_MAX] = {0};

	mov	DWORD PTR _weapsarray$[ebp], 0
	push	60					; 0000003cH
	push	0
	lea	ecx, DWORD PTR _weapsarray$[ebp+4]
	push	ecx
	call	_memset
	add	esp, 12					; 0000000cH

; 1233 : 
; 1234 : 	// Consolidate the weapons (we need to do this to minimize rounding errors)
; 1235 : 	for (i=0; i<HARDPOINT_MAX; i++)

	mov	DWORD PTR _i$[ebp], 0
	jmp	SHORT $LN18@ResupplySq
$LN17@ResupplySq:
	mov	edx, DWORD PTR _i$[ebp]
	add	edx, 1
	mov	DWORD PTR _i$[ebp], edx
$LN18@ResupplySq:
	cmp	DWORD PTR _i$[ebp], 16			; 00000010H
	jge	$LN16@ResupplySq

; 1236 : 	{
; 1237 : 		if (!(WeaponDataTable[weapon[i]].Flags & WEAP_INFINITE_MASK))

	mov	eax, DWORD PTR _i$[ebp]
	mov	ecx, DWORD PTR _weapon$[ebp]
	movsx	edx, WORD PTR [ecx+eax*2]
	imul	edx, 60					; 0000003cH
	mov	eax, DWORD PTR ?WeaponDataTable@@3PAUWeaponClassDataType@@A ; WeaponDataTable
	movzx	ecx, WORD PTR [eax+edx+10]
	and	ecx, 7
	jne	$LN15@ResupplySq

; 1238 : 		{
; 1239 : 			for (j=0,done=0; j<HARDPOINT_MAX && !done; j++)

	mov	DWORD PTR _j$[ebp], 0
	mov	DWORD PTR _done$[ebp], 0
	jmp	SHORT $LN14@ResupplySq
$LN13@ResupplySq:
	mov	edx, DWORD PTR _j$[ebp]
	add	edx, 1
	mov	DWORD PTR _j$[ebp], edx
$LN14@ResupplySq:
	cmp	DWORD PTR _j$[ebp], 16			; 00000010H
	jge	SHORT $LN15@ResupplySq
	cmp	DWORD PTR _done$[ebp], 0
	jne	SHORT $LN15@ResupplySq

; 1240 : 			{
; 1241 : 				if (weapon[i] == weaparray[j] || !weaparray[j])

	mov	eax, DWORD PTR _i$[ebp]
	mov	ecx, DWORD PTR _weapon$[ebp]
	movsx	edx, WORD PTR [ecx+eax*2]
	mov	eax, DWORD PTR _j$[ebp]
	cmp	edx, DWORD PTR _weaparray$[ebp+eax*4]
	je	SHORT $LN10@ResupplySq
	mov	ecx, DWORD PTR _j$[ebp]
	cmp	DWORD PTR _weaparray$[ebp+ecx*4], 0
	jne	SHORT $LN11@ResupplySq
$LN10@ResupplySq:

; 1242 : 				{
; 1243 : 					weaparray[j] = weapon[i];

	mov	edx, DWORD PTR _i$[ebp]
	mov	eax, DWORD PTR _weapon$[ebp]
	movsx	ecx, WORD PTR [eax+edx*2]
	mov	edx, DWORD PTR _j$[ebp]
	mov	DWORD PTR _weaparray$[ebp+edx*4], ecx

; 1244 : 					weapsarray[j] += weapons[i] * planes;

	mov	eax, DWORD PTR _weapons$[ebp]
	add	eax, DWORD PTR _i$[ebp]
	movzx	ecx, BYTE PTR [eax]
	imul	ecx, DWORD PTR _planes$[ebp]
	mov	edx, DWORD PTR _j$[ebp]
	add	ecx, DWORD PTR _weapsarray$[ebp+edx*4]
	mov	eax, DWORD PTR _j$[ebp]
	mov	DWORD PTR _weapsarray$[ebp+eax*4], ecx

; 1245 : 					done = 1;

	mov	DWORD PTR _done$[ebp], 1
$LN11@ResupplySq:

; 1246 : 				}
; 1247 : 			}

	jmp	$LN13@ResupplySq
$LN15@ResupplySq:

; 1248 : 		}
; 1249 : 	}

	jmp	$LN17@ResupplySq
$LN16@ResupplySq:

; 1250 : 
; 1251 : 	// M.N. add the weapsarray and fuel brought back to the airbase to the current unit stores again
; 1252 : 
; 1253 : 	// Record the stuff
; 1254 : 	for (i=0; i<HARDPOINT_MAX && weaparray[i]; i++)

	mov	DWORD PTR _i$[ebp], 0
	jmp	SHORT $LN9@ResupplySq
$LN8@ResupplySq:
	mov	ecx, DWORD PTR _i$[ebp]
	add	ecx, 1
	mov	DWORD PTR _i$[ebp], ecx
$LN9@ResupplySq:
	cmp	DWORD PTR _i$[ebp], 16			; 00000010H
	jge	$LN7@ResupplySq
	mov	edx, DWORD PTR _i$[ebp]
	cmp	DWORD PTR _weaparray$[ebp+edx*4], 0
	je	$LN7@ResupplySq

; 1255 : 	{	
; 1256 : 		// One 'supply point' is worth four weapons (or 1, if we're loading less than 4)	
; 1257 : 		if (weapsarray[i] > 0)

	mov	eax, DWORD PTR _i$[ebp]
	cmp	DWORD PTR _weapsarray$[ebp+eax*4], 0
	jle	SHORT $LN6@ResupplySq

; 1258 : 			n = GetUnitStores(weaparray[i]) + ((weapsarray[i]+3)/4);

	mov	ecx, DWORD PTR _i$[ebp]
	mov	edx, DWORD PTR _weaparray$[ebp+ecx*4]
	push	edx
	mov	eax, DWORD PTR _this$[ebp]
	mov	edx, DWORD PTR [eax]
	mov	ecx, DWORD PTR _this$[ebp]
	mov	eax, DWORD PTR [edx+788]
	call	eax
	movzx	ecx, al
	mov	edx, DWORD PTR _i$[ebp]
	mov	eax, DWORD PTR _weapsarray$[ebp+edx*4]
	add	eax, 3
	cdq
	and	edx, 3
	add	eax, edx
	sar	eax, 2
	add	ecx, eax
	mov	DWORD PTR _n$[ebp], ecx

; 1259 : 		else

	jmp	SHORT $LN5@ResupplySq
$LN6@ResupplySq:

; 1260 : 			n = GetUnitStores(weaparray[i]) + ((weapsarray[i]-3)/4);

	mov	eax, DWORD PTR _i$[ebp]
	mov	ecx, DWORD PTR _weaparray$[ebp+eax*4]
	push	ecx
	mov	edx, DWORD PTR _this$[ebp]
	mov	eax, DWORD PTR [edx]
	mov	ecx, DWORD PTR _this$[ebp]
	mov	edx, DWORD PTR [eax+788]
	call	edx
	movzx	ecx, al
	mov	edx, DWORD PTR _i$[ebp]
	mov	eax, DWORD PTR _weapsarray$[ebp+edx*4]
	sub	eax, 3
	cdq
	and	edx, 3
	add	eax, edx
	sar	eax, 2
	add	ecx, eax
	mov	DWORD PTR _n$[ebp], ecx
$LN5@ResupplySq:

; 1261 : 		if (n < 0)

	cmp	DWORD PTR _n$[ebp], 0
	jge	SHORT $LN4@ResupplySq

; 1262 : 			n = 0;

	mov	DWORD PTR _n$[ebp], 0
$LN4@ResupplySq:

; 1263 : 		if (n > 255)

	cmp	DWORD PTR _n$[ebp], 255			; 000000ffH
	jle	SHORT $LN3@ResupplySq

; 1264 : 			n = 255;

	mov	DWORD PTR _n$[ebp], 255			; 000000ffH
$LN3@ResupplySq:

; 1265 : 		SetUnitStores(weaparray[i], n);

	movzx	eax, BYTE PTR _n$[ebp]
	push	eax
	mov	ecx, DWORD PTR _i$[ebp]
	mov	edx, DWORD PTR _weaparray$[ebp+ecx*4]
	push	edx
	mov	eax, DWORD PTR _this$[ebp]
	mov	edx, DWORD PTR [eax]
	mov	ecx, DWORD PTR _this$[ebp]
	mov	eax, DWORD PTR [edx+760]
	call	eax

; 1266 : 	}

	jmp	$LN8@ResupplySq
$LN7@ResupplySq:

; 1267 : 	f = GetSquadronFuel() + ((lbsfuel * planes) / 100);

	mov	ecx, DWORD PTR _this$[ebp]
	mov	edx, DWORD PTR [ecx]
	mov	ecx, DWORD PTR _this$[ebp]
	mov	eax, DWORD PTR [edx+784]
	call	eax
	mov	ecx, eax
	mov	eax, DWORD PTR _lbsfuel$[ebp]
	imul	eax, DWORD PTR _planes$[ebp]
	cdq
	mov	esi, 100				; 00000064H
	idiv	esi
	add	ecx, eax
	mov	DWORD PTR _f$[ebp], ecx

; 1268 : 	if (f < 0)

	jns	SHORT $LN2@ResupplySq

; 1269 : 		f = 0;

	mov	DWORD PTR _f$[ebp], 0
$LN2@ResupplySq:

; 1270 : 	SetSquadronFuel(f);

	mov	edx, DWORD PTR _f$[ebp]
	push	edx
	mov	eax, DWORD PTR _this$[ebp]
	mov	edx, DWORD PTR [eax]
	mov	ecx, DWORD PTR _this$[ebp]
	mov	eax, DWORD PTR [edx+756]
	call	eax

; 1271 : 
; 1272 : 	if (!IsLocal())

	mov	ecx, DWORD PTR _this$[ebp]
	call	?IsLocal@VuEntity@@QBEEXZ		; VuEntity::IsLocal
	movzx	ecx, al
	test	ecx, ecx
	jne	$LN19@ResupplySq

; 1273 : 	{
; 1274 : 		// Send a message to host notifying him of the changes to the squadron's weapon loads
; 1275 : 		VuSessionEntity				*target = (VuSessionEntity*) vuDatabase->Find(OwnerId());

	lea	edx, DWORD PTR $T3[ebp]
	push	edx
	mov	ecx, DWORD PTR _this$[ebp]
	call	?OwnerId@VuEntity@@QBE?AVVU_ID@@XZ	; VuEntity::OwnerId
	mov	ecx, DWORD PTR [eax+4]
	push	ecx
	mov	edx, DWORD PTR [eax]
	push	edx
	mov	ecx, DWORD PTR ?vuDatabase@@3PAVVuDatabase@@A ; vuDatabase
	call	?Find@VuDatabase@@QBEPAVVuEntity@@VVU_ID@@@Z ; VuDatabase::Find
	mov	DWORD PTR _target$4[ebp], eax

; 1276 : 		FalconFlightPlanMessage		*msg = new FalconFlightPlanMessage(Id(), target);

	push	57					; 00000039H
	call	??2@YAPAXI@Z				; operator new
	add	esp, 4
	mov	DWORD PTR $T7[ebp], eax
	mov	DWORD PTR __$EHRec$[ebp+8], 0
	cmp	DWORD PTR $T7[ebp], 0
	je	SHORT $LN21@ResupplySq
	push	1
	mov	eax, DWORD PTR _target$4[ebp]
	push	eax
	lea	ecx, DWORD PTR $T2[ebp]
	push	ecx
	mov	ecx, DWORD PTR _this$[ebp]
	call	?Id@VuEntity@@QBE?AVVU_ID@@XZ		; VuEntity::Id
	mov	edx, DWORD PTR [eax+4]
	push	edx
	mov	eax, DWORD PTR [eax]
	push	eax
	mov	ecx, DWORD PTR $T7[ebp]
	call	??0FalconFlightPlanMessage@@QAE@VVU_ID@@PAVVuTargetEntity@@E@Z ; FalconFlightPlanMessage::FalconFlightPlanMessage
	mov	DWORD PTR tv257[ebp], eax
	jmp	SHORT $LN22@ResupplySq
$LN21@ResupplySq:
	mov	DWORD PTR tv257[ebp], 0
$LN22@ResupplySq:
	mov	ecx, DWORD PTR tv257[ebp]
	mov	DWORD PTR $T5[ebp], ecx
	mov	DWORD PTR __$EHRec$[ebp+8], -1
	mov	edx, DWORD PTR $T5[ebp]
	mov	DWORD PTR _msg$8[ebp], edx

; 1277 : 		uchar						*buffer;
; 1278 : 
; 1279 : 		msg->dataBlock.type = FalconFlightPlanMessage::squadronStores;

	mov	eax, DWORD PTR _msg$8[ebp]
	mov	BYTE PTR [eax+48], 2

; 1280 : 		msg->dataBlock.size = HARDPOINT_MAX + HARDPOINT_MAX * sizeof(short) + sizeof(long)*2;

	mov	ecx, DWORD PTR _msg$8[ebp]
	mov	DWORD PTR [ecx+49], 56			; 00000038H

; 1281 : 		msg->dataBlock.data = buffer = new uchar[msg->dataBlock.size];

	mov	edx, DWORD PTR _msg$8[ebp]
	mov	eax, DWORD PTR [edx+49]
	push	eax
	call	??_U@YAPAXI@Z				; operator new[]
	add	esp, 4
	mov	DWORD PTR $T6[ebp], eax
	mov	ecx, DWORD PTR $T6[ebp]
	mov	DWORD PTR _buffer$9[ebp], ecx
	mov	edx, DWORD PTR _msg$8[ebp]
	mov	eax, DWORD PTR _buffer$9[ebp]
	mov	DWORD PTR [edx+53], eax

; 1282 : 		memcpy(buffer,weapon,HARDPOINT_MAX * sizeof(short));		buffer += HARDPOINT_MAX * sizeof(short);

	push	32					; 00000020H
	mov	ecx, DWORD PTR _weapon$[ebp]
	push	ecx
	mov	edx, DWORD PTR _buffer$9[ebp]
	push	edx
	call	_memcpy
	add	esp, 12					; 0000000cH
	mov	eax, DWORD PTR _buffer$9[ebp]
	add	eax, 32					; 00000020H
	mov	DWORD PTR _buffer$9[ebp], eax

; 1283 : 		memcpy(buffer,weapons,HARDPOINT_MAX);		buffer += HARDPOINT_MAX;

	push	16					; 00000010H
	mov	ecx, DWORD PTR _weapons$[ebp]
	push	ecx
	mov	edx, DWORD PTR _buffer$9[ebp]
	push	edx
	call	_memcpy
	add	esp, 12					; 0000000cH
	mov	eax, DWORD PTR _buffer$9[ebp]
	add	eax, 16					; 00000010H
	mov	DWORD PTR _buffer$9[ebp], eax

; 1284 : 		memcpy(buffer,&lbsfuel,sizeof(long));		buffer += sizeof(long);

	push	4
	lea	ecx, DWORD PTR _lbsfuel$[ebp]
	push	ecx
	mov	edx, DWORD PTR _buffer$9[ebp]
	push	edx
	call	_memcpy
	add	esp, 12					; 0000000cH
	mov	eax, DWORD PTR _buffer$9[ebp]
	add	eax, 4
	mov	DWORD PTR _buffer$9[ebp], eax

; 1285 : 		memcpy(buffer,&planes,sizeof(long));		buffer += sizeof(long);

	push	4
	lea	ecx, DWORD PTR _planes$[ebp]
	push	ecx
	mov	edx, DWORD PTR _buffer$9[ebp]
	push	edx
	call	_memcpy
	add	esp, 12					; 0000000cH
	mov	eax, DWORD PTR _buffer$9[ebp]
	add	eax, 4
	mov	DWORD PTR _buffer$9[ebp], eax

; 1286 : 		FalconSendMessage(msg, TRUE);		

	push	1
	mov	ecx, DWORD PTR _msg$8[ebp]
	push	ecx
	call	?FalconSendMessage@@YAXPAVVuMessage@@H@Z ; FalconSendMessage
	add	esp, 8
$LN19@ResupplySq:

; 1287 : 	}
; 1288 : }

	mov	ecx, DWORD PTR __$EHRec$[ebp]
	mov	DWORD PTR fs:0, ecx
	pop	ecx
	pop	esi
	mov	ecx, DWORD PTR __$ArrayPad$[ebp]
	xor	ecx, ebp
	call	@__security_check_cookie@4
	mov	esp, ebp
	pop	ebp
	ret	16					; 00000010H
_TEXT	ENDS
text$x	SEGMENT
__unwindfunclet$?ResupplySquadronStores@SquadronClass@@QAEXQAFQAEHH@Z$0:
	mov	eax, DWORD PTR $T7[ebp]
	push	eax
	call	??3@YAXPAX@Z				; operator delete
	pop	ecx
	ret	0
__ehhandler$?ResupplySquadronStores@SquadronClass@@QAEXQAFQAEHH@Z:
	mov	edx, DWORD PTR [esp+8]
	lea	eax, DWORD PTR [edx+12]
	mov	ecx, DWORD PTR [edx-208]
	xor	ecx, eax
	call	@__security_check_cookie@4
	mov	ecx, DWORD PTR [edx-4]
	xor	ecx, eax
	call	@__security_check_cookie@4
	mov	eax, OFFSET __ehfuncinfo$?ResupplySquadronStores@SquadronClass@@QAEXQAFQAEHH@Z
	jmp	___CxxFrameHandler3
text$x	ENDS
?ResupplySquadronStores@SquadronClass@@QAEXQAFQAEHH@Z ENDP ; SquadronClass::ResupplySquadronStores
; Function compile flags: /Odtp
; File c:\users\zhitao li\documents\visual studio 2012\projects\freefalcon\campaign\camptask\squadron.cpp
_TEXT	SEGMENT
$T2 = -212						; size = 8
$T3 = -204						; size = 8
_target$4 = -196					; size = 4
$T5 = -192						; size = 4
$T6 = -188						; size = 4
tv257 = -184						; size = 4
$T7 = -180						; size = 4
_done$ = -176						; size = 4
_f$ = -172						; size = 4
_msg$8 = -168						; size = 4
_n$ = -164						; size = 4
_j$ = -160						; size = 4
_this$ = -156						; size = 4
_buffer$9 = -152					; size = 4
_i$ = -148						; size = 4
_weapsarray$ = -144					; size = 64
_weaparray$ = -80					; size = 64
__$ArrayPad$ = -16					; size = 4
__$EHRec$ = -12						; size = 12
_weapon$ = 8						; size = 4
_weapons$ = 12						; size = 4
_lbsfuel$ = 16						; size = 4
_planes$ = 20						; size = 4
?UpdateSquadronStores@SquadronClass@@QAEXQAFQAEHH@Z PROC ; SquadronClass::UpdateSquadronStores
; _this$ = ecx

; 1163 : ){

	push	ebp
	mov	ebp, esp
	push	-1
	push	__ehhandler$?UpdateSquadronStores@SquadronClass@@QAEXQAFQAEHH@Z
	mov	eax, DWORD PTR fs:0
	push	eax
	sub	esp, 200				; 000000c8H
	mov	eax, DWORD PTR ___security_cookie
	xor	eax, ebp
	mov	DWORD PTR __$ArrayPad$[ebp], eax
	push	esi
	push	eax
	lea	eax, DWORD PTR __$EHRec$[ebp]
	mov	DWORD PTR fs:0, eax
	mov	DWORD PTR _this$[ebp], ecx

; 1164 : 	int			i,j,n,done=0;

	mov	DWORD PTR _done$[ebp], 0

; 1165 : 	long		f;
; 1166 : 	int			weaparray[HARDPOINT_MAX] = {0};

	mov	DWORD PTR _weaparray$[ebp], 0
	push	60					; 0000003cH
	push	0
	lea	eax, DWORD PTR _weaparray$[ebp+4]
	push	eax
	call	_memset
	add	esp, 12					; 0000000cH

; 1167 : 	int			weapsarray[HARDPOINT_MAX] = {0};

	mov	DWORD PTR _weapsarray$[ebp], 0
	push	60					; 0000003cH
	push	0
	lea	ecx, DWORD PTR _weapsarray$[ebp+4]
	push	ecx
	call	_memset
	add	esp, 12					; 0000000cH

; 1168 : 
; 1169 : 	// Consolidate the weapons (we need to do this to minimize rounding errors)
; 1170 : 	for (i=0; i<HARDPOINT_MAX; i++)

	mov	DWORD PTR _i$[ebp], 0
	jmp	SHORT $LN18@UpdateSqua
$LN17@UpdateSqua:
	mov	edx, DWORD PTR _i$[ebp]
	add	edx, 1
	mov	DWORD PTR _i$[ebp], edx
$LN18@UpdateSqua:
	cmp	DWORD PTR _i$[ebp], 16			; 00000010H
	jge	$LN16@UpdateSqua

; 1171 : 	{
; 1172 : 		if (!(WeaponDataTable[weapon[i]].Flags & WEAP_INFINITE_MASK))

	mov	eax, DWORD PTR _i$[ebp]
	mov	ecx, DWORD PTR _weapon$[ebp]
	movsx	edx, WORD PTR [ecx+eax*2]
	imul	edx, 60					; 0000003cH
	mov	eax, DWORD PTR ?WeaponDataTable@@3PAUWeaponClassDataType@@A ; WeaponDataTable
	movzx	ecx, WORD PTR [eax+edx+10]
	and	ecx, 7
	jne	$LN15@UpdateSqua

; 1173 : 		{
; 1174 : 			for (j=0,done=0; j<HARDPOINT_MAX && !done; j++)

	mov	DWORD PTR _j$[ebp], 0
	mov	DWORD PTR _done$[ebp], 0
	jmp	SHORT $LN14@UpdateSqua
$LN13@UpdateSqua:
	mov	edx, DWORD PTR _j$[ebp]
	add	edx, 1
	mov	DWORD PTR _j$[ebp], edx
$LN14@UpdateSqua:
	cmp	DWORD PTR _j$[ebp], 16			; 00000010H
	jge	SHORT $LN15@UpdateSqua
	cmp	DWORD PTR _done$[ebp], 0
	jne	SHORT $LN15@UpdateSqua

; 1175 : 			{
; 1176 : 				if (weapon[i] == weaparray[j] || !weaparray[j])

	mov	eax, DWORD PTR _i$[ebp]
	mov	ecx, DWORD PTR _weapon$[ebp]
	movsx	edx, WORD PTR [ecx+eax*2]
	mov	eax, DWORD PTR _j$[ebp]
	cmp	edx, DWORD PTR _weaparray$[ebp+eax*4]
	je	SHORT $LN10@UpdateSqua
	mov	ecx, DWORD PTR _j$[ebp]
	cmp	DWORD PTR _weaparray$[ebp+ecx*4], 0
	jne	SHORT $LN11@UpdateSqua
$LN10@UpdateSqua:

; 1177 : 				{
; 1178 : 					weaparray[j] = weapon[i];

	mov	edx, DWORD PTR _i$[ebp]
	mov	eax, DWORD PTR _weapon$[ebp]
	movsx	ecx, WORD PTR [eax+edx*2]
	mov	edx, DWORD PTR _j$[ebp]
	mov	DWORD PTR _weaparray$[ebp+edx*4], ecx

; 1179 : 					weapsarray[j] += weapons[i] * planes;

	mov	eax, DWORD PTR _weapons$[ebp]
	add	eax, DWORD PTR _i$[ebp]
	movzx	ecx, BYTE PTR [eax]
	imul	ecx, DWORD PTR _planes$[ebp]
	mov	edx, DWORD PTR _j$[ebp]
	add	ecx, DWORD PTR _weapsarray$[ebp+edx*4]
	mov	eax, DWORD PTR _j$[ebp]
	mov	DWORD PTR _weapsarray$[ebp+eax*4], ecx

; 1180 : 					done = 1;

	mov	DWORD PTR _done$[ebp], 1
$LN11@UpdateSqua:

; 1181 : 				}
; 1182 : 			}

	jmp	$LN13@UpdateSqua
$LN15@UpdateSqua:

; 1183 : 		}
; 1184 : 	}

	jmp	$LN17@UpdateSqua
$LN16@UpdateSqua:

; 1185 : 
; 1186 : 	// Record the stuff
; 1187 : 	for (i=0; i<HARDPOINT_MAX && weaparray[i]; i++)

	mov	DWORD PTR _i$[ebp], 0
	jmp	SHORT $LN9@UpdateSqua
$LN8@UpdateSqua:
	mov	ecx, DWORD PTR _i$[ebp]
	add	ecx, 1
	mov	DWORD PTR _i$[ebp], ecx
$LN9@UpdateSqua:
	cmp	DWORD PTR _i$[ebp], 16			; 00000010H
	jge	$LN7@UpdateSqua
	mov	edx, DWORD PTR _i$[ebp]
	cmp	DWORD PTR _weaparray$[ebp+edx*4], 0
	je	$LN7@UpdateSqua

; 1188 : 	{	
; 1189 : 		// One 'supply point' is worth four weapons (or 1, if we're loading less than 4)	
; 1190 : 		if (weapsarray[i] > 0)

	mov	eax, DWORD PTR _i$[ebp]
	cmp	DWORD PTR _weapsarray$[ebp+eax*4], 0
	jle	SHORT $LN6@UpdateSqua

; 1191 : 			n = GetUnitStores(weaparray[i]) - ((weapsarray[i]+3)/4);

	mov	ecx, DWORD PTR _i$[ebp]
	mov	edx, DWORD PTR _weaparray$[ebp+ecx*4]
	push	edx
	mov	eax, DWORD PTR _this$[ebp]
	mov	edx, DWORD PTR [eax]
	mov	ecx, DWORD PTR _this$[ebp]
	mov	eax, DWORD PTR [edx+788]
	call	eax
	movzx	ecx, al
	mov	edx, DWORD PTR _i$[ebp]
	mov	eax, DWORD PTR _weapsarray$[ebp+edx*4]
	add	eax, 3
	cdq
	and	edx, 3
	add	eax, edx
	sar	eax, 2
	sub	ecx, eax
	mov	DWORD PTR _n$[ebp], ecx

; 1192 : 		else

	jmp	SHORT $LN5@UpdateSqua
$LN6@UpdateSqua:

; 1193 : 			n = GetUnitStores(weaparray[i]) - ((weapsarray[i]-3)/4);

	mov	eax, DWORD PTR _i$[ebp]
	mov	ecx, DWORD PTR _weaparray$[ebp+eax*4]
	push	ecx
	mov	edx, DWORD PTR _this$[ebp]
	mov	eax, DWORD PTR [edx]
	mov	ecx, DWORD PTR _this$[ebp]
	mov	edx, DWORD PTR [eax+788]
	call	edx
	movzx	ecx, al
	mov	edx, DWORD PTR _i$[ebp]
	mov	eax, DWORD PTR _weapsarray$[ebp+edx*4]
	sub	eax, 3
	cdq
	and	edx, 3
	add	eax, edx
	sar	eax, 2
	sub	ecx, eax
	mov	DWORD PTR _n$[ebp], ecx
$LN5@UpdateSqua:

; 1194 : 		if (n < 0)

	cmp	DWORD PTR _n$[ebp], 0
	jge	SHORT $LN4@UpdateSqua

; 1195 : 			n = 0;

	mov	DWORD PTR _n$[ebp], 0
$LN4@UpdateSqua:

; 1196 : 		if (n > 255)

	cmp	DWORD PTR _n$[ebp], 255			; 000000ffH
	jle	SHORT $LN3@UpdateSqua

; 1197 : 			n = 255;

	mov	DWORD PTR _n$[ebp], 255			; 000000ffH
$LN3@UpdateSqua:

; 1198 : 		SetUnitStores(weaparray[i], n);

	movzx	eax, BYTE PTR _n$[ebp]
	push	eax
	mov	ecx, DWORD PTR _i$[ebp]
	mov	edx, DWORD PTR _weaparray$[ebp+ecx*4]
	push	edx
	mov	eax, DWORD PTR _this$[ebp]
	mov	edx, DWORD PTR [eax]
	mov	ecx, DWORD PTR _this$[ebp]
	mov	eax, DWORD PTR [edx+760]
	call	eax

; 1199 : 	}

	jmp	$LN8@UpdateSqua
$LN7@UpdateSqua:

; 1200 : 	f = GetSquadronFuel() - ((lbsfuel * planes) / 100);

	mov	ecx, DWORD PTR _this$[ebp]
	mov	edx, DWORD PTR [ecx]
	mov	ecx, DWORD PTR _this$[ebp]
	mov	eax, DWORD PTR [edx+784]
	call	eax
	mov	ecx, eax
	mov	eax, DWORD PTR _lbsfuel$[ebp]
	imul	eax, DWORD PTR _planes$[ebp]
	cdq
	mov	esi, 100				; 00000064H
	idiv	esi
	sub	ecx, eax
	mov	DWORD PTR _f$[ebp], ecx

; 1201 : 	if (f < 0)

	jns	SHORT $LN2@UpdateSqua

; 1202 : 		f = 0;

	mov	DWORD PTR _f$[ebp], 0
$LN2@UpdateSqua:

; 1203 : 	SetSquadronFuel(f);

	mov	edx, DWORD PTR _f$[ebp]
	push	edx
	mov	eax, DWORD PTR _this$[ebp]
	mov	edx, DWORD PTR [eax]
	mov	ecx, DWORD PTR _this$[ebp]
	mov	eax, DWORD PTR [edx+756]
	call	eax

; 1204 : 
; 1205 : 	if (!IsLocal())

	mov	ecx, DWORD PTR _this$[ebp]
	call	?IsLocal@VuEntity@@QBEEXZ		; VuEntity::IsLocal
	movzx	ecx, al
	test	ecx, ecx
	jne	$LN19@UpdateSqua

; 1206 : 	{
; 1207 : 		// Send a message to host notifying him of the changes to the squadron's weapon loads
; 1208 : 		VuSessionEntity				*target = (VuSessionEntity*) vuDatabase->Find(OwnerId());

	lea	edx, DWORD PTR $T3[ebp]
	push	edx
	mov	ecx, DWORD PTR _this$[ebp]
	call	?OwnerId@VuEntity@@QBE?AVVU_ID@@XZ	; VuEntity::OwnerId
	mov	ecx, DWORD PTR [eax+4]
	push	ecx
	mov	edx, DWORD PTR [eax]
	push	edx
	mov	ecx, DWORD PTR ?vuDatabase@@3PAVVuDatabase@@A ; vuDatabase
	call	?Find@VuDatabase@@QBEPAVVuEntity@@VVU_ID@@@Z ; VuDatabase::Find
	mov	DWORD PTR _target$4[ebp], eax

; 1209 : 		FalconFlightPlanMessage		*msg = new FalconFlightPlanMessage(Id(), target);

	push	57					; 00000039H
	call	??2@YAPAXI@Z				; operator new
	add	esp, 4
	mov	DWORD PTR $T7[ebp], eax
	mov	DWORD PTR __$EHRec$[ebp+8], 0
	cmp	DWORD PTR $T7[ebp], 0
	je	SHORT $LN21@UpdateSqua
	push	1
	mov	eax, DWORD PTR _target$4[ebp]
	push	eax
	lea	ecx, DWORD PTR $T2[ebp]
	push	ecx
	mov	ecx, DWORD PTR _this$[ebp]
	call	?Id@VuEntity@@QBE?AVVU_ID@@XZ		; VuEntity::Id
	mov	edx, DWORD PTR [eax+4]
	push	edx
	mov	eax, DWORD PTR [eax]
	push	eax
	mov	ecx, DWORD PTR $T7[ebp]
	call	??0FalconFlightPlanMessage@@QAE@VVU_ID@@PAVVuTargetEntity@@E@Z ; FalconFlightPlanMessage::FalconFlightPlanMessage
	mov	DWORD PTR tv257[ebp], eax
	jmp	SHORT $LN22@UpdateSqua
$LN21@UpdateSqua:
	mov	DWORD PTR tv257[ebp], 0
$LN22@UpdateSqua:
	mov	ecx, DWORD PTR tv257[ebp]
	mov	DWORD PTR $T5[ebp], ecx
	mov	DWORD PTR __$EHRec$[ebp+8], -1
	mov	edx, DWORD PTR $T5[ebp]
	mov	DWORD PTR _msg$8[ebp], edx

; 1210 : 		uchar						*buffer;
; 1211 : 
; 1212 : 		msg->dataBlock.type = FalconFlightPlanMessage::squadronStores;

	mov	eax, DWORD PTR _msg$8[ebp]
	mov	BYTE PTR [eax+48], 2

; 1213 : 		msg->dataBlock.size = HARDPOINT_MAX + HARDPOINT_MAX * sizeof(short) + sizeof(long)*2;

	mov	ecx, DWORD PTR _msg$8[ebp]
	mov	DWORD PTR [ecx+49], 56			; 00000038H

; 1214 : 		msg->dataBlock.data = buffer = new uchar[msg->dataBlock.size];

	mov	edx, DWORD PTR _msg$8[ebp]
	mov	eax, DWORD PTR [edx+49]
	push	eax
	call	??_U@YAPAXI@Z				; operator new[]
	add	esp, 4
	mov	DWORD PTR $T6[ebp], eax
	mov	ecx, DWORD PTR $T6[ebp]
	mov	DWORD PTR _buffer$9[ebp], ecx
	mov	edx, DWORD PTR _msg$8[ebp]
	mov	eax, DWORD PTR _buffer$9[ebp]
	mov	DWORD PTR [edx+53], eax

; 1215 : 		memcpy(buffer,weapon,HARDPOINT_MAX * sizeof(short));		buffer += HARDPOINT_MAX * sizeof(short);

	push	32					; 00000020H
	mov	ecx, DWORD PTR _weapon$[ebp]
	push	ecx
	mov	edx, DWORD PTR _buffer$9[ebp]
	push	edx
	call	_memcpy
	add	esp, 12					; 0000000cH
	mov	eax, DWORD PTR _buffer$9[ebp]
	add	eax, 32					; 00000020H
	mov	DWORD PTR _buffer$9[ebp], eax

; 1216 : 		memcpy(buffer,weapons,HARDPOINT_MAX);		buffer += HARDPOINT_MAX;

	push	16					; 00000010H
	mov	ecx, DWORD PTR _weapons$[ebp]
	push	ecx
	mov	edx, DWORD PTR _buffer$9[ebp]
	push	edx
	call	_memcpy
	add	esp, 12					; 0000000cH
	mov	eax, DWORD PTR _buffer$9[ebp]
	add	eax, 16					; 00000010H
	mov	DWORD PTR _buffer$9[ebp], eax

; 1217 : 		memcpy(buffer,&lbsfuel,sizeof(long));		buffer += sizeof(long);

	push	4
	lea	ecx, DWORD PTR _lbsfuel$[ebp]
	push	ecx
	mov	edx, DWORD PTR _buffer$9[ebp]
	push	edx
	call	_memcpy
	add	esp, 12					; 0000000cH
	mov	eax, DWORD PTR _buffer$9[ebp]
	add	eax, 4
	mov	DWORD PTR _buffer$9[ebp], eax

; 1218 : 		memcpy(buffer,&planes,sizeof(long));		buffer += sizeof(long);

	push	4
	lea	ecx, DWORD PTR _planes$[ebp]
	push	ecx
	mov	edx, DWORD PTR _buffer$9[ebp]
	push	edx
	call	_memcpy
	add	esp, 12					; 0000000cH
	mov	eax, DWORD PTR _buffer$9[ebp]
	add	eax, 4
	mov	DWORD PTR _buffer$9[ebp], eax

; 1219 : 		FalconSendMessage(msg, TRUE);		

	push	1
	mov	ecx, DWORD PTR _msg$8[ebp]
	push	ecx
	call	?FalconSendMessage@@YAXPAVVuMessage@@H@Z ; FalconSendMessage
	add	esp, 8
$LN19@UpdateSqua:

; 1220 : 	}
; 1221 : }

	mov	ecx, DWORD PTR __$EHRec$[ebp]
	mov	DWORD PTR fs:0, ecx
	pop	ecx
	pop	esi
	mov	ecx, DWORD PTR __$ArrayPad$[ebp]
	xor	ecx, ebp
	call	@__security_check_cookie@4
	mov	esp, ebp
	pop	ebp
	ret	16					; 00000010H
_TEXT	ENDS
text$x	SEGMENT
__unwindfunclet$?UpdateSquadronStores@SquadronClass@@QAEXQAFQAEHH@Z$0:
	mov	eax, DWORD PTR $T7[ebp]
	push	eax
	call	??3@YAXPAX@Z				; operator delete
	pop	ecx
	ret	0
__ehhandler$?UpdateSquadronStores@SquadronClass@@QAEXQAFQAEHH@Z:
	mov	edx, DWORD PTR [esp+8]
	lea	eax, DWORD PTR [edx+12]
	mov	ecx, DWORD PTR [edx-208]
	xor	ecx, eax
	call	@__security_check_cookie@4
	mov	ecx, DWORD PTR [edx-4]
	xor	ecx, eax
	call	@__security_check_cookie@4
	mov	eax, OFFSET __ehfuncinfo$?UpdateSquadronStores@SquadronClass@@QAEXQAFQAEHH@Z
	jmp	___CxxFrameHandler3
text$x	ENDS
?UpdateSquadronStores@SquadronClass@@QAEXQAFQAEHH@Z ENDP ; SquadronClass::UpdateSquadronStores
; Function compile flags: /Odtp
; File c:\users\zhitao li\documents\visual studio 2012\projects\freefalcon\campaign\camptask\squadron.cpp
_TEXT	SEGMENT
$T1 = -24						; size = 8
_this$ = -16						; size = 4
_got$ = -12						; size = 4
_plane$ = -8						; size = 4
_pilot$ = -4						; size = 4
_fl$ = 8						; size = 4
?AssignPilots@SquadronClass@@QAEHPAVFlightClass@@@Z PROC ; SquadronClass::AssignPilots
; _this$ = ecx

; 1106 : {

	push	ebp
	mov	ebp, esp
	sub	esp, 24					; 00000018H
	mov	DWORD PTR _this$[ebp], ecx

; 1107 : 	int		plane,pilot,got;
; 1108 : 
; 1109 : 	for (plane=0; plane<PILOTS_PER_FLIGHT; plane++)

	mov	DWORD PTR _plane$[ebp], 0
	jmp	SHORT $LN17@AssignPilo
$LN16@AssignPilo:
	mov	eax, DWORD PTR _plane$[ebp]
	add	eax, 1
	mov	DWORD PTR _plane$[ebp], eax
$LN17@AssignPilo:
	cmp	DWORD PTR _plane$[ebp], 4
	jge	$LN15@AssignPilo

; 1110 : 	{
; 1111 : 		got = FALSE;

	mov	DWORD PTR _got$[ebp], 0

; 1112 : 		if (fl->plane_stats[plane] == AIRCRAFT_AVAILABLE && fl->pilots[plane] == NO_PILOT)

	mov	ecx, DWORD PTR _fl$[ebp]
	add	ecx, DWORD PTR _plane$[ebp]
	movzx	edx, BYTE PTR [ecx+416]
	cmp	edx, 4
	jne	$LN14@AssignPilo
	mov	eax, DWORD PTR _fl$[ebp]
	add	eax, DWORD PTR _plane$[ebp]
	movzx	ecx, BYTE PTR [eax+412]
	cmp	ecx, 255				; 000000ffH
	jne	$LN14@AssignPilo

; 1113 : 		{
; 1114 : 			if (!plane)

	cmp	DWORD PTR _plane$[ebp], 0
	jne	$LN13@AssignPilo

; 1115 : 			{
; 1116 : 				// Commander goes in first slot
; 1117 : 				for (pilot=0; pilot<PILOTS_PER_SQUADRON/3 && !got; pilot++)

	mov	DWORD PTR _pilot$[ebp], 0
	jmp	SHORT $LN12@AssignPilo
$LN11@AssignPilo:
	mov	edx, DWORD PTR _pilot$[ebp]
	add	edx, 1
	mov	DWORD PTR _pilot$[ebp], edx
$LN12@AssignPilo:
	cmp	DWORD PTR _pilot$[ebp], 16		; 00000010H
	jge	SHORT $LN13@AssignPilo
	cmp	DWORD PTR _got$[ebp], 0
	jne	SHORT $LN13@AssignPilo

; 1118 : 				{
; 1119 : 					if (GetPilotData(pilot)->pilot_status == PILOT_AVAILABLE)

	mov	eax, DWORD PTR _pilot$[ebp]
	push	eax
	mov	ecx, DWORD PTR _this$[ebp]
	call	?GetPilotData@SquadronClass@@QAEPAVPilotClass@@H@Z ; SquadronClass::GetPilotData
	movzx	ecx, BYTE PTR [eax+3]
	test	ecx, ecx
	jne	SHORT $LN9@AssignPilo

; 1120 : 					{
; 1121 : 						fl->pilots[plane] = pilot;

	mov	edx, DWORD PTR _fl$[ebp]
	add	edx, DWORD PTR _plane$[ebp]
	mov	al, BYTE PTR _pilot$[ebp]
	mov	BYTE PTR [edx+412], al

; 1122 : 						GetPilotData(pilot)->pilot_status = PILOT_IN_USE;

	mov	ecx, DWORD PTR _pilot$[ebp]
	push	ecx
	mov	ecx, DWORD PTR _this$[ebp]
	call	?GetPilotData@SquadronClass@@QAEPAVPilotClass@@H@Z ; SquadronClass::GetPilotData
	mov	BYTE PTR [eax+3], 4

; 1123 : 						got = TRUE;

	mov	DWORD PTR _got$[ebp], 1

; 1124 : 						fl->MakeFlightDirty (DIRTY_PILOTS, DDP[121].priority);

	mov	edx, 4
	imul	edx, 121				; 00000079H
	mov	eax, DWORD PTR ?DDP@@3PAUDirtyDataClassType@@A ; DDP
	mov	ecx, DWORD PTR [eax+edx]
	push	ecx
	push	16					; 00000010H
	mov	ecx, DWORD PTR _fl$[ebp]
	call	?MakeFlightDirty@FlightClass@@QAEXW4Dirty_Flight@@W4Dirtyness@@@Z ; FlightClass::MakeFlightDirty

; 1125 : 						//	fl->MakeFlightDirty (DIRTY_PILOTS, SEND_RELIABLE);
; 1126 : 						fl->MakeFlightDirty (DIRTY_PLANE_STATS, DDP[122].priority);

	mov	edx, 4
	imul	edx, 122				; 0000007aH
	mov	eax, DWORD PTR ?DDP@@3PAUDirtyDataClassType@@A ; DDP
	mov	ecx, DWORD PTR [eax+edx]
	push	ecx
	push	8
	mov	ecx, DWORD PTR _fl$[ebp]
	call	?MakeFlightDirty@FlightClass@@QAEXW4Dirty_Flight@@W4Dirtyness@@@Z ; FlightClass::MakeFlightDirty
$LN9@AssignPilo:

; 1127 : 						//  fl->MakeFlightDirty (DIRTY_PLANE_STATS, SEND_RELIABLE);
; 1128 : 					}
; 1129 : 				}

	jmp	$LN11@AssignPilo
$LN13@AssignPilo:

; 1130 : 			}
; 1131 : 			if (!got)

	cmp	DWORD PTR _got$[ebp], 0
	jne	$LN8@AssignPilo

; 1132 : 			{
; 1133 : 				// Now Wingmen
; 1134 : 				for (pilot=PILOTS_PER_SQUADRON-1; pilot>=0 && !got; pilot--)

	mov	DWORD PTR _pilot$[ebp], 47		; 0000002fH
	jmp	SHORT $LN7@AssignPilo
$LN6@AssignPilo:
	mov	edx, DWORD PTR _pilot$[ebp]
	sub	edx, 1
	mov	DWORD PTR _pilot$[ebp], edx
$LN7@AssignPilo:
	cmp	DWORD PTR _pilot$[ebp], 0
	jl	SHORT $LN8@AssignPilo
	cmp	DWORD PTR _got$[ebp], 0
	jne	SHORT $LN8@AssignPilo

; 1135 : 				{
; 1136 : 					if (GetPilotData(pilot)->pilot_status == PILOT_AVAILABLE)

	mov	eax, DWORD PTR _pilot$[ebp]
	push	eax
	mov	ecx, DWORD PTR _this$[ebp]
	call	?GetPilotData@SquadronClass@@QAEPAVPilotClass@@H@Z ; SquadronClass::GetPilotData
	movzx	ecx, BYTE PTR [eax+3]
	test	ecx, ecx
	jne	SHORT $LN4@AssignPilo

; 1137 : 					{
; 1138 : 						fl->pilots[plane] = pilot;

	mov	edx, DWORD PTR _fl$[ebp]
	add	edx, DWORD PTR _plane$[ebp]
	mov	al, BYTE PTR _pilot$[ebp]
	mov	BYTE PTR [edx+412], al

; 1139 : 						GetPilotData(pilot)->pilot_status = PILOT_IN_USE;

	mov	ecx, DWORD PTR _pilot$[ebp]
	push	ecx
	mov	ecx, DWORD PTR _this$[ebp]
	call	?GetPilotData@SquadronClass@@QAEPAVPilotClass@@H@Z ; SquadronClass::GetPilotData
	mov	BYTE PTR [eax+3], 4

; 1140 : 						got = TRUE;

	mov	DWORD PTR _got$[ebp], 1

; 1141 : 						fl->MakeFlightDirty (DIRTY_PILOTS, DDP[123].priority);

	mov	edx, 4
	imul	edx, 123				; 0000007bH
	mov	eax, DWORD PTR ?DDP@@3PAUDirtyDataClassType@@A ; DDP
	mov	ecx, DWORD PTR [eax+edx]
	push	ecx
	push	16					; 00000010H
	mov	ecx, DWORD PTR _fl$[ebp]
	call	?MakeFlightDirty@FlightClass@@QAEXW4Dirty_Flight@@W4Dirtyness@@@Z ; FlightClass::MakeFlightDirty

; 1142 : 						//	fl->MakeFlightDirty (DIRTY_PILOTS, SEND_RELIABLE);
; 1143 : 						fl->MakeFlightDirty (DIRTY_PLANE_STATS, DDP[124].priority);

	mov	edx, 4
	imul	edx, 124				; 0000007cH
	mov	eax, DWORD PTR ?DDP@@3PAUDirtyDataClassType@@A ; DDP
	mov	ecx, DWORD PTR [eax+edx]
	push	ecx
	push	8
	mov	ecx, DWORD PTR _fl$[ebp]
	call	?MakeFlightDirty@FlightClass@@QAEXW4Dirty_Flight@@W4Dirtyness@@@Z ; FlightClass::MakeFlightDirty
$LN4@AssignPilo:

; 1144 : 						//	fl->MakeFlightDirty (DIRTY_PLANE_STATS, SEND_RELIABLE);
; 1145 : 					}
; 1146 : 				}

	jmp	$LN6@AssignPilo
$LN8@AssignPilo:

; 1147 : 			}
; 1148 : 			if (fl->pilots[plane] == NO_PILOT)

	mov	edx, DWORD PTR _fl$[ebp]
	add	edx, DWORD PTR _plane$[ebp]
	movzx	eax, BYTE PTR [edx+412]
	cmp	eax, 255				; 000000ffH
	jne	SHORT $LN14@AssignPilo

; 1149 : 				return FALSE;

	xor	eax, eax
	jmp	$LN18@AssignPilo
$LN14@AssignPilo:

; 1150 : 		}
; 1151 : 	}

	jmp	$LN16@AssignPilo
$LN15@AssignPilo:

; 1152 : 	fl->SetPilots(TRUE);

	push	1
	mov	ecx, DWORD PTR _fl$[ebp]
	call	?SetPilots@UnitClass@@QAEXH@Z		; UnitClass::SetPilots

; 1153 : 	if (doUI && FalconLocalSession->GetPlayerFlight() && (fl->Id() == gCurrentFlightID || fl->InPackage()))

	cmp	DWORD PTR ?doUI@@3HA, 0			; doUI
	je	SHORT $LN2@AssignPilo
	mov	ecx, OFFSET ?vuLocalSessionEntity@@3V?$VuBin@VVuSessionEntity@@@@A ; vuLocalSessionEntity
	call	?get@?$VuBin@VVuSessionEntity@@@@QBEPAVVuSessionEntity@@XZ ; VuBin<VuSessionEntity>::get
	mov	ecx, eax
	call	?GetPlayerFlight@FalconSessionEntity@@QBEPAVFlightClass@@XZ ; FalconSessionEntity::GetPlayerFlight
	test	eax, eax
	je	SHORT $LN2@AssignPilo
	push	OFFSET ?gCurrentFlightID@@3VVU_ID@@A	; gCurrentFlightID
	lea	ecx, DWORD PTR $T1[ebp]
	push	ecx
	mov	ecx, DWORD PTR _fl$[ebp]
	call	?Id@VuEntity@@QBE?AVVU_ID@@XZ		; VuEntity::Id
	mov	ecx, eax
	call	??8VU_ID@@QBE_NABV0@@Z			; VU_ID::operator==
	movzx	edx, al
	test	edx, edx
	jne	SHORT $LN1@AssignPilo
	mov	ecx, DWORD PTR _fl$[ebp]
	call	?InPackage@CampBaseClass@@QAEHXZ	; CampBaseClass::InPackage
	test	eax, eax
	je	SHORT $LN2@AssignPilo
$LN1@AssignPilo:

; 1154 : 	{
; 1155 : 		TheCampaign.MissionEvaluator->PreMissionEval(FalconLocalSession->GetPlayerFlight(),FalconLocalSession->GetPilotSlot());

	mov	ecx, OFFSET ?vuLocalSessionEntity@@3V?$VuBin@VVuSessionEntity@@@@A ; vuLocalSessionEntity
	call	?get@?$VuBin@VVuSessionEntity@@@@QBEPAVVuSessionEntity@@XZ ; VuBin<VuSessionEntity>::get
	mov	ecx, eax
	call	?GetPilotSlot@FalconSessionEntity@@QBEEXZ ; FalconSessionEntity::GetPilotSlot
	movzx	eax, al
	push	eax
	mov	ecx, OFFSET ?vuLocalSessionEntity@@3V?$VuBin@VVuSessionEntity@@@@A ; vuLocalSessionEntity
	call	?get@?$VuBin@VVuSessionEntity@@@@QBEPAVVuSessionEntity@@XZ ; VuBin<VuSessionEntity>::get
	mov	ecx, eax
	call	?GetPlayerFlight@FalconSessionEntity@@QBEPAVFlightClass@@XZ ; FalconSessionEntity::GetPlayerFlight
	push	eax
	mov	ecx, DWORD PTR ?TheCampaign@@3VCampaignClass@@A+324
	call	?PreMissionEval@MissionEvaluationClass@@QAEHPAVFlightClass@@E@Z ; MissionEvaluationClass::PreMissionEval

; 1156 : 		UI_Refresh();

	call	?UI_Refresh@@YAXXZ			; UI_Refresh
$LN2@AssignPilo:

; 1157 : 	}
; 1158 : 	return TRUE;

	mov	eax, 1
$LN18@AssignPilo:

; 1159 : }

	mov	esp, ebp
	pop	ebp
	ret	4
?AssignPilots@SquadronClass@@QAEHPAVFlightClass@@@Z ENDP ; SquadronClass::AssignPilots
_TEXT	ENDS
; Function compile flags: /Odtp
; File c:\users\zhitao li\documents\visual studio 2012\projects\freefalcon\campaign\camptask\squadron.cpp
_TEXT	SEGMENT
$T1 = -52						; size = 8
_want_alert$ = -44					; size = 4
_vc$ = -40						; size = 4
_role$ = -36						; size = 4
_finalBlock$2 = -32					; size = 4
_nr$ = -28						; size = 4
_j$ = -24						; size = 4
_sn$ = -20						; size = 4
_this$ = -16						; size = 4
_nv$ = -12						; size = 4
_got$ = -8						; size = 4
_i$ = -4						; size = 4
_fl$ = 8						; size = 4
_mis$ = 12						; size = 4
?ScheduleAircraft@SquadronClass@@QAEXPAVFlightClass@@PAVMissionRequestClass@@@Z PROC ; SquadronClass::ScheduleAircraft
; _this$ = ecx

; 1008 : void SquadronClass::ScheduleAircraft (Flight fl, MissionRequest mis){

	push	ebp
	mov	ebp, esp
	sub	esp, 52					; 00000034H
	push	esi
	mov	DWORD PTR _this$[ebp], ecx

; 1009 : 
; 1010 : 	int		i,j,sn,nv,nr,role,got=0;

	mov	DWORD PTR _got$[ebp], 0

; 1011 : 	//TJL 10/30/03
; 1012 : 	int want_alert = 0;

	mov	DWORD PTR _want_alert$[ebp], 0

; 1013 : 	VehicleClassDataType *vc;
; 1014 : 
; 1015 : 	role = MissionData[mis->mission].skill;

	mov	eax, DWORD PTR _mis$[ebp]
	movzx	ecx, BYTE PTR [eax+60]
	shl	ecx, 5
	movzx	edx, BYTE PTR ?MissionData@@3PAUMissionDataType@@A[ecx+2]
	mov	DWORD PTR _role$[ebp], edx

; 1016 : 	if (MissionData[mis->mission].flags & AMIS_DONT_USE_AC)

	mov	eax, DWORD PTR _mis$[ebp]
	movzx	ecx, BYTE PTR [eax+60]
	shl	ecx, 5
	mov	edx, DWORD PTR ?MissionData@@3PAUMissionDataType@@A[ecx+28]
	and	edx, 4194304				; 00400000H
	je	$LN30@ScheduleAi

; 1017 : 	{
; 1018 : 		// Just fill up our slots sequentially
; 1019 : 		for (i=0; i<VEHICLE_GROUPS_PER_UNIT; i++)

	mov	DWORD PTR _i$[ebp], 0
	jmp	SHORT $LN29@ScheduleAi
$LN28@ScheduleAi:
	mov	eax, DWORD PTR _i$[ebp]
	add	eax, 1
	mov	DWORD PTR _i$[ebp], eax
$LN29@ScheduleAi:
	cmp	DWORD PTR _i$[ebp], 16			; 00000010H
	jge	SHORT $LN27@ScheduleAi

; 1020 : 		{
; 1021 : 			if (mis->aircraft < 12)

	mov	ecx, DWORD PTR _mis$[ebp]
	movzx	edx, BYTE PTR [ecx+61]
	cmp	edx, 12					; 0000000cH
	jge	SHORT $LN26@ScheduleAi

; 1022 : 				nv = 2;

	mov	DWORD PTR _nv$[ebp], 2

; 1023 : 			else

	jmp	SHORT $LN25@ScheduleAi
$LN26@ScheduleAi:

; 1024 : 				nv = 3;

	mov	DWORD PTR _nv$[ebp], 3
$LN25@ScheduleAi:

; 1025 : 			if (nv + got > mis->aircraft)

	mov	eax, DWORD PTR _nv$[ebp]
	add	eax, DWORD PTR _got$[ebp]
	mov	ecx, DWORD PTR _mis$[ebp]
	movzx	edx, BYTE PTR [ecx+61]
	cmp	eax, edx
	jle	SHORT $LN24@ScheduleAi

; 1026 : 				nv = mis->aircraft-got;

	mov	eax, DWORD PTR _mis$[ebp]
	movzx	ecx, BYTE PTR [eax+61]
	sub	ecx, DWORD PTR _got$[ebp]
	mov	DWORD PTR _nv$[ebp], ecx
$LN24@ScheduleAi:

; 1027 : 			fl->SetNumVehicles(i,nv);

	mov	edx, DWORD PTR _nv$[ebp]
	push	edx
	mov	eax, DWORD PTR _i$[ebp]
	push	eax
	mov	ecx, DWORD PTR _fl$[ebp]
	call	?SetNumVehicles@UnitClass@@QAEXHH@Z	; UnitClass::SetNumVehicles

; 1028 : 			got += nv;

	mov	ecx, DWORD PTR _got$[ebp]
	add	ecx, DWORD PTR _nv$[ebp]
	mov	DWORD PTR _got$[ebp], ecx

; 1029 : 		}

	jmp	SHORT $LN28@ScheduleAi
$LN27@ScheduleAi:

; 1030 : 		memset(fl->slots,255,PILOTS_PER_FLIGHT);

	push	4
	push	255					; 000000ffH
	mov	edx, DWORD PTR _fl$[ebp]
	add	edx, 408				; 00000198H
	push	edx
	call	_memset
	add	esp, 12					; 0000000cH

; 1031 : 		// Fake got for pilot assignments
; 1032 : 		if (got > 4)

	cmp	DWORD PTR _got$[ebp], 4
	jle	SHORT $LN23@ScheduleAi

; 1033 : 			got = 4;

	mov	DWORD PTR _got$[ebp], 4
$LN23@ScheduleAi:

; 1034 : 	}
; 1035 : 	else

	jmp	$LN11@ScheduleAi
$LN30@ScheduleAi:

; 1036 : 	{
; 1037 : 		// schedule the aircraft
; 1038 : 		for (sn=0; sn<PILOTS_PER_FLIGHT; sn++)

	mov	DWORD PTR _sn$[ebp], 0
	jmp	SHORT $LN21@ScheduleAi
$LN20@ScheduleAi:
	mov	eax, DWORD PTR _sn$[ebp]
	add	eax, 1
	mov	DWORD PTR _sn$[ebp], eax
$LN21@ScheduleAi:
	cmp	DWORD PTR _sn$[ebp], 4
	jge	SHORT $LN19@ScheduleAi

; 1039 : 		{
; 1040 : 			if (mis->slots[sn] < VEHICLE_GROUPS_PER_UNIT)

	mov	ecx, DWORD PTR _mis$[ebp]
	add	ecx, DWORD PTR _sn$[ebp]
	movzx	edx, BYTE PTR [ecx+67]
	cmp	edx, 16					; 00000010H
	jge	SHORT $LN14@ScheduleAi

; 1041 : 			{
; 1042 : 				// KCK: Add turn-around time to final block to determine when
; 1043 : 				// aircraft will be available next
; 1044 : 				int	finalBlock = mis->final_block + (AIRCRAFT_TURNAROUND_TIME_MINUTES / MIN_PLAN_AIR);

	mov	eax, DWORD PTR _mis$[ebp]
	movzx	ecx, BYTE PTR [eax+66]
	movsx	eax, WORD PTR ?AIRCRAFT_TURNAROUND_TIME_MINUTES@@3FA ; AIRCRAFT_TURNAROUND_TIME_MINUTES
	movsx	esi, WORD PTR ?MIN_PLAN_AIR@@3FA	; MIN_PLAN_AIR
	cdq
	idiv	esi
	add	ecx, eax
	mov	DWORD PTR _finalBlock$2[ebp], ecx

; 1045 : 				if (finalBlock >= ATM_MAX_CYCLES)

	cmp	DWORD PTR _finalBlock$2[ebp], 32	; 00000020H
	jl	SHORT $LN17@ScheduleAi

; 1046 : 					finalBlock = ATM_MAX_CYCLES;

	mov	DWORD PTR _finalBlock$2[ebp], 32	; 00000020H
$LN17@ScheduleAi:

; 1047 : 				for (j=mis->start_block; j<=mis->final_block; j++)

	mov	edx, DWORD PTR _mis$[ebp]
	movzx	eax, BYTE PTR [edx+65]
	mov	DWORD PTR _j$[ebp], eax
	jmp	SHORT $LN16@ScheduleAi
$LN15@ScheduleAi:
	mov	ecx, DWORD PTR _j$[ebp]
	add	ecx, 1
	mov	DWORD PTR _j$[ebp], ecx
$LN16@ScheduleAi:
	mov	edx, DWORD PTR _mis$[ebp]
	movzx	eax, BYTE PTR [edx+66]
	cmp	DWORD PTR _j$[ebp], eax
	jg	SHORT $LN14@ScheduleAi

; 1048 : 					SetSchedule(mis->slots[sn], (1 << j));

	mov	edx, 1
	mov	ecx, DWORD PTR _j$[ebp]
	shl	edx, cl
	push	edx
	mov	eax, DWORD PTR _mis$[ebp]
	add	eax, DWORD PTR _sn$[ebp]
	movzx	ecx, BYTE PTR [eax+67]
	push	ecx
	mov	ecx, DWORD PTR _this$[ebp]
	call	?SetSchedule@SquadronClass@@QAEXHK@Z	; SquadronClass::SetSchedule
	jmp	SHORT $LN15@ScheduleAi
$LN14@ScheduleAi:

; 1049 : 			}
; 1050 : 		}

	jmp	$LN20@ScheduleAi
$LN19@ScheduleAi:

; 1051 : 
; 1052 : 		fl->SetRoster(0);

	push	0
	mov	ecx, DWORD PTR _fl$[ebp]
	call	?SetRoster@UnitClass@@QAEXJ@Z		; UnitClass::SetRoster

; 1053 : 		for (i=0; i<PILOTS_PER_FLIGHT; i++)

	mov	DWORD PTR _i$[ebp], 0
	jmp	SHORT $LN13@ScheduleAi
$LN12@ScheduleAi:
	mov	edx, DWORD PTR _i$[ebp]
	add	edx, 1
	mov	DWORD PTR _i$[ebp], edx
$LN13@ScheduleAi:
	cmp	DWORD PTR _i$[ebp], 4
	jge	$LN11@ScheduleAi

; 1054 : 		{
; 1055 : 			if (mis->slots[i] < VEHICLE_GROUPS_PER_UNIT)

	mov	eax, DWORD PTR _mis$[ebp]
	add	eax, DWORD PTR _i$[ebp]
	movzx	ecx, BYTE PTR [eax+67]
	cmp	ecx, 16					; 00000010H
	jge	$LN10@ScheduleAi

; 1056 : 			{
; 1057 : 				nv = GetNumVehicles(mis->slots[i]);

	mov	edx, DWORD PTR _mis$[ebp]
	add	edx, DWORD PTR _i$[ebp]
	movzx	eax, BYTE PTR [edx+67]
	push	eax
	mov	ecx, DWORD PTR _this$[ebp]
	call	?GetNumVehicles@UnitClass@@QAEHH@Z	; UnitClass::GetNumVehicles
	mov	DWORD PTR _nv$[ebp], eax

; 1058 : 				if (nv+got > mis->aircraft)

	mov	ecx, DWORD PTR _nv$[ebp]
	add	ecx, DWORD PTR _got$[ebp]
	mov	edx, DWORD PTR _mis$[ebp]
	movzx	eax, BYTE PTR [edx+61]
	cmp	ecx, eax
	jle	SHORT $LN9@ScheduleAi

; 1059 : 					nv = mis->aircraft-got;

	mov	ecx, DWORD PTR _mis$[ebp]
	movzx	edx, BYTE PTR [ecx+61]
	sub	edx, DWORD PTR _got$[ebp]
	mov	DWORD PTR _nv$[ebp], edx
$LN9@ScheduleAi:

; 1060 : 				got += nv;

	mov	eax, DWORD PTR _got$[ebp]
	add	eax, DWORD PTR _nv$[ebp]
	mov	DWORD PTR _got$[ebp], eax

; 1061 : 				fl->slots[i] = mis->slots[i];

	mov	ecx, DWORD PTR _fl$[ebp]
	add	ecx, DWORD PTR _i$[ebp]
	mov	edx, DWORD PTR _mis$[ebp]
	add	edx, DWORD PTR _i$[ebp]
	mov	al, BYTE PTR [edx+67]
	mov	BYTE PTR [ecx+408], al

; 1062 : 				// KCK NOTE: doing this is safe, since flight isn't inserted yet.
; 1063 : 				fl->SetNumVehicles(fl->slots[i], nv);

	mov	ecx, DWORD PTR _nv$[ebp]
	push	ecx
	mov	edx, DWORD PTR _fl$[ebp]
	add	edx, DWORD PTR _i$[ebp]
	movzx	eax, BYTE PTR [edx+408]
	push	eax
	mov	ecx, DWORD PTR _fl$[ebp]
	call	?SetNumVehicles@UnitClass@@QAEXHH@Z	; UnitClass::SetNumVehicles

; 1064 : 				SetAssigned (GetAssigned() + nv);

	mov	ecx, DWORD PTR _this$[ebp]
	call	?GetAssigned@SquadronClass@@QAEEXZ	; SquadronClass::GetAssigned
	movzx	ecx, al
	add	ecx, DWORD PTR _nv$[ebp]
	push	ecx
	mov	ecx, DWORD PTR _this$[ebp]
	call	?SetAssigned@SquadronClass@@QAEXE@Z	; SquadronClass::SetAssigned

; 1065 : 				// Lower score for this role, to prevent repicks of same mission
; 1066 : 				// KCK NOTE: this is local only - other machines will not get this data
; 1067 : 				nr = FloatToInt32(0.75F * GetRating(role)) + 1;

	mov	edx, DWORD PTR _role$[ebp]
	push	edx
	mov	ecx, DWORD PTR _this$[ebp]
	call	?GetRating@SquadronClass@@QAEEH@Z	; SquadronClass::GetRating
	movzx	eax, al
	cvtsi2ss xmm0, eax
	mulss	xmm0, DWORD PTR __real@3f400000
	push	ecx
	movss	DWORD PTR [esp], xmm0
	call	?FloatToInt32@@YAHM@Z			; FloatToInt32
	add	esp, 4
	add	eax, 1
	mov	DWORD PTR _nr$[ebp], eax

; 1068 : 				if (nr < 1)

	cmp	DWORD PTR _nr$[ebp], 1
	jge	SHORT $LN8@ScheduleAi

; 1069 : 					nr = 1;

	mov	DWORD PTR _nr$[ebp], 1
$LN8@ScheduleAi:

; 1070 : 				SetRating(role, nr);

	movzx	ecx, BYTE PTR _nr$[ebp]
	push	ecx
	mov	edx, DWORD PTR _role$[ebp]
	push	edx
	mov	ecx, DWORD PTR _this$[ebp]
	call	?SetRating@SquadronClass@@QAEXHE@Z	; SquadronClass::SetRating
$LN10@ScheduleAi:

; 1071 : 			}
; 1072 : 		}

	jmp	$LN12@ScheduleAi
$LN11@ScheduleAi:

; 1073 : 	}
; 1074 : 
; 1075 : 	// Set aircraft availablity bits
; 1076 : 	for (i=0; i<PILOTS_PER_FLIGHT; i++)

	mov	DWORD PTR _i$[ebp], 0
	jmp	SHORT $LN7@ScheduleAi
$LN6@ScheduleAi:
	mov	eax, DWORD PTR _i$[ebp]
	add	eax, 1
	mov	DWORD PTR _i$[ebp], eax
$LN7@ScheduleAi:
	cmp	DWORD PTR _i$[ebp], 4
	jge	SHORT $LN5@ScheduleAi

; 1077 : 	{
; 1078 : 		if (i<got)

	mov	ecx, DWORD PTR _i$[ebp]
	cmp	ecx, DWORD PTR _got$[ebp]
	jge	SHORT $LN4@ScheduleAi

; 1079 : 			fl->plane_stats[i] = AIRCRAFT_AVAILABLE;

	mov	edx, DWORD PTR _fl$[ebp]
	add	edx, DWORD PTR _i$[ebp]
	mov	BYTE PTR [edx+416], 4

; 1080 : 		else

	jmp	SHORT $LN3@ScheduleAi
$LN4@ScheduleAi:

; 1081 : 			fl->plane_stats[i] = AIRCRAFT_NOT_ASSIGNED;

	mov	eax, DWORD PTR _fl$[ebp]
	add	eax, DWORD PTR _i$[ebp]
	mov	BYTE PTR [eax+416], 0
$LN3@ScheduleAi:

; 1082 : 		//fl->MakeFlightDirty (DIRTY_PLANE_STATS, DDP[120].priority);
; 1083 : 		fl->MakeFlightDirty (DIRTY_PLANE_STATS, SEND_RELIABLE);

	push	1048576					; 00100000H
	push	8
	mov	ecx, DWORD PTR _fl$[ebp]
	call	?MakeFlightDirty@FlightClass@@QAEXW4Dirty_Flight@@W4Dirtyness@@@Z ; FlightClass::MakeFlightDirty

; 1084 : 		fl->pilots[i] = NO_PILOT;

	mov	ecx, DWORD PTR _fl$[ebp]
	add	ecx, DWORD PTR _i$[ebp]
	mov	BYTE PTR [ecx+412], 255			; 000000ffH

; 1085 : 	}

	jmp	SHORT $LN6@ScheduleAi
$LN5@ScheduleAi:

; 1086 : 	fl->last_player_slot = PILOTS_PER_FLIGHT;

	mov	edx, DWORD PTR _fl$[ebp]
	mov	BYTE PTR [edx+424], 4

; 1087 : 
; 1088 : 	// Large flights (i.e.: transport 'copters) only use 4 pilots
; 1089 : 	if (got > PILOTS_PER_FLIGHT)

	cmp	DWORD PTR _got$[ebp], 4
	jle	SHORT $LN2@ScheduleAi

; 1090 : 		got = PILOTS_PER_FLIGHT;

	mov	DWORD PTR _got$[ebp], 4
$LN2@ScheduleAi:

; 1091 : 
; 1092 : 	// Find and fill an empty takeoff slot at this airbase
; 1093 : 	fl->SetUnitAirbase(GetUnitAirbaseID());

	lea	eax, DWORD PTR $T1[ebp]
	push	eax
	mov	ecx, DWORD PTR _this$[ebp]
	mov	edx, DWORD PTR [ecx]
	mov	ecx, DWORD PTR _this$[ebp]
	mov	eax, DWORD PTR [edx+708]
	call	eax
	mov	ecx, DWORD PTR [eax+4]
	push	ecx
	mov	edx, DWORD PTR [eax]
	push	edx
	mov	eax, DWORD PTR _fl$[ebp]
	mov	edx, DWORD PTR [eax]
	mov	ecx, DWORD PTR _fl$[ebp]
	mov	eax, DWORD PTR [edx+632]
	call	eax

; 1094 : 	
; 1095 : 	// Name this flight
; 1096 : 	vc = GetVehicleClassData(fl->GetVehicleID(0));

	push	0
	mov	ecx, DWORD PTR _fl$[ebp]
	call	?GetVehicleID@UnitClass@@QAEFH@Z	; UnitClass::GetVehicleID
	movsx	ecx, ax
	push	ecx
	call	?GetVehicleClassData@@YAPAUVehicleClassDataType@@H@Z ; GetVehicleClassData
	add	esp, 4
	mov	DWORD PTR _vc$[ebp], eax

; 1097 : 	fl->callsign_id = vc->CallsignIndex;

	mov	edx, DWORD PTR _fl$[ebp]
	mov	eax, DWORD PTR _vc$[ebp]
	mov	cl, BYTE PTR [eax+64]
	mov	BYTE PTR [edx+425], cl

; 1098 : 	GetCallsignID(&fl->callsign_id,&fl->callsign_num,vc->CallsignSlots);

	mov	edx, DWORD PTR _vc$[ebp]
	movzx	eax, BYTE PTR [edx+65]
	push	eax
	mov	ecx, DWORD PTR _fl$[ebp]
	add	ecx, 426				; 000001aaH
	push	ecx
	mov	edx, DWORD PTR _fl$[ebp]
	add	edx, 425				; 000001a9H
	push	edx
	call	?GetCallsignID@@YAXPAE0H@Z		; GetCallsignID
	add	esp, 12					; 0000000cH

; 1099 : 	if (fl->callsign_num)

	mov	eax, DWORD PTR _fl$[ebp]
	movzx	ecx, BYTE PTR [eax+426]
	test	ecx, ecx
	je	SHORT $LN1@ScheduleAi

; 1100 : 		SetCallsignID(fl->callsign_id,fl->callsign_num);

	mov	edx, DWORD PTR _fl$[ebp]
	movzx	eax, BYTE PTR [edx+426]
	push	eax
	mov	ecx, DWORD PTR _fl$[ebp]
	movzx	edx, BYTE PTR [ecx+425]
	push	edx
	call	?SetCallsignID@@YAXHH@Z			; SetCallsignID
	add	esp, 8
$LN1@ScheduleAi:

; 1101 : }

	pop	esi
	mov	esp, ebp
	pop	ebp
	ret	8
?ScheduleAircraft@SquadronClass@@QAEXPAVFlightClass@@PAVMissionRequestClass@@@Z ENDP ; SquadronClass::ScheduleAircraft
_TEXT	ENDS
; Function compile flags: /Odtp
; File c:\users\zhitao li\documents\visual studio 2012\projects\freefalcon\campaign\camptask\squadron.cpp
_TEXT	SEGMENT
$T1 = -52						; size = 4
_ls$ = -48						; size = 4
_snum$ = -44						; size = 4
_cb$ = -40						; size = 4
_got$ = -36						; size = 4
_tav$ = -32						; size = 4
_this$ = -28						; size = 4
_i$ = -24						; size = 4
_free$ = -20						; size = 16
__$ArrayPad$ = -4					; size = 4
_mis$ = 8						; size = 4
?FindAvailableAircraft@SquadronClass@@QAEHPAVMissionRequestClass@@@Z PROC ; SquadronClass::FindAvailableAircraft
; _this$ = ecx

; 952  : {

	push	ebp
	mov	ebp, esp
	sub	esp, 52					; 00000034H
	mov	eax, DWORD PTR ___security_cookie
	xor	eax, ebp
	mov	DWORD PTR __$ArrayPad$[ebp], eax
	mov	DWORD PTR _this$[ebp], ecx

; 953  : 	int		cb,i,got=0,snum=0,tav,ls;

	mov	DWORD PTR _got$[ebp], 0
	mov	DWORD PTR _snum$[ebp], 0

; 954  : 	uchar	free[VEHICLE_GROUPS_PER_UNIT] = {0};

	mov	BYTE PTR _free$[ebp], 0
	xor	eax, eax
	mov	DWORD PTR _free$[ebp+1], eax
	mov	DWORD PTR _free$[ebp+5], eax
	mov	DWORD PTR _free$[ebp+9], eax
	mov	WORD PTR _free$[ebp+13], ax
	mov	BYTE PTR _free$[ebp+15], al

; 955  : 
; 956  : 	if (mis->start_block >= ATM_MAX_CYCLES)

	mov	ecx, DWORD PTR _mis$[ebp]
	movzx	edx, BYTE PTR [ecx+65]
	cmp	edx, 32					; 00000020H
	jl	SHORT $LN19@FindAvaila

; 957  : 		return 0;

	xor	eax, eax
	jmp	$LN20@FindAvaila
$LN19@FindAvaila:

; 958  : 	if (mis->flags & REQF_USERESERVES)

	mov	eax, DWORD PTR _mis$[ebp]
	mov	ecx, DWORD PTR [eax+44]
	and	ecx, 1
	je	SHORT $LN18@FindAvaila

; 959  : 		tav = GetTotalVehicles();							// Use any available aircraft

	mov	ecx, DWORD PTR _this$[ebp]
	call	?GetTotalVehicles@UnitClass@@QAEHXZ	; UnitClass::GetTotalVehicles
	mov	DWORD PTR _tav$[ebp], eax

; 960  : 	//sfr: WTF are those FloatToInt32??? we dont need that
; 961  : 	else if ((int)(GetTotalVehicles() * g_npercentage_available_aircraft/100.0f) >

	jmp	SHORT $LN15@FindAvaila
$LN18@FindAvaila:

; 962  : 		g_nminimum_available_aircraft){

	mov	ecx, DWORD PTR _this$[ebp]
	call	?GetTotalVehicles@UnitClass@@QAEHXZ	; UnitClass::GetTotalVehicles
	imul	eax, DWORD PTR ?g_npercentage_available_aircraft@@3HA ; g_npercentage_available_aircraft
	cvtsi2ss xmm0, eax
	divss	xmm0, DWORD PTR __real@42c80000
	cvttss2si edx, xmm0
	cmp	edx, DWORD PTR ?g_nminimum_available_aircraft@@3HA ; g_nminimum_available_aircraft
	jle	SHORT $LN16@FindAvaila

; 963  : 		tav = (int)(GetTotalVehicles() * g_npercentage_available_aircraft/100.0f);		// Save 1/4 as reserve

	mov	ecx, DWORD PTR _this$[ebp]
	call	?GetTotalVehicles@UnitClass@@QAEHXZ	; UnitClass::GetTotalVehicles
	imul	eax, DWORD PTR ?g_npercentage_available_aircraft@@3HA ; g_npercentage_available_aircraft
	cvtsi2ss xmm0, eax
	divss	xmm0, DWORD PTR __real@42c80000
	cvttss2si eax, xmm0
	mov	DWORD PTR _tav$[ebp], eax
	jmp	SHORT $LN15@FindAvaila
$LN16@FindAvaila:

; 964  : 	}
; 965  : 	else tav = g_nminimum_available_aircraft; // JPO fixup.

	mov	ecx, DWORD PTR ?g_nminimum_available_aircraft@@3HA ; g_nminimum_available_aircraft
	mov	DWORD PTR _tav$[ebp], ecx
$LN15@FindAvaila:

; 966  : 	// Mark our last allowed slot (so we don't assign reserve aircraft
; 967  : 	for (i=0;i<VEHICLE_GROUPS_PER_UNIT && tav>0; i++)

	mov	DWORD PTR _i$[ebp], 0
	jmp	SHORT $LN14@FindAvaila
$LN13@FindAvaila:
	mov	edx, DWORD PTR _i$[ebp]
	add	edx, 1
	mov	DWORD PTR _i$[ebp], edx
$LN14@FindAvaila:
	cmp	DWORD PTR _i$[ebp], 16			; 00000010H
	jge	SHORT $LN12@FindAvaila
	cmp	DWORD PTR _tav$[ebp], 0
	jle	SHORT $LN12@FindAvaila

; 968  : 		tav -= GetNumVehicles(i);

	mov	eax, DWORD PTR _i$[ebp]
	push	eax
	mov	ecx, DWORD PTR _this$[ebp]
	call	?GetNumVehicles@UnitClass@@QAEHH@Z	; UnitClass::GetNumVehicles
	mov	ecx, DWORD PTR _tav$[ebp]
	sub	ecx, eax
	mov	DWORD PTR _tav$[ebp], ecx
	jmp	SHORT $LN13@FindAvaila
$LN12@FindAvaila:

; 969  : 	ls = i;

	mov	edx, DWORD PTR _i$[ebp]
	mov	DWORD PTR _ls$[ebp], edx

; 970  : 	memset(free,1,ls);

	mov	eax, DWORD PTR _ls$[ebp]
	push	eax
	push	1
	lea	ecx, DWORD PTR _free$[ebp]
	push	ecx
	call	_memset
	add	esp, 12					; 0000000cH

; 971  : 
; 972  : 	// find all free slots
; 973  : 	for (cb=mis->start_block; cb<=mis->final_block; cb++)

	mov	edx, DWORD PTR _mis$[ebp]
	movzx	eax, BYTE PTR [edx+65]
	mov	DWORD PTR _cb$[ebp], eax
	jmp	SHORT $LN11@FindAvaila
$LN10@FindAvaila:
	mov	ecx, DWORD PTR _cb$[ebp]
	add	ecx, 1
	mov	DWORD PTR _cb$[ebp], ecx
$LN11@FindAvaila:
	mov	edx, DWORD PTR _mis$[ebp]
	movzx	eax, BYTE PTR [edx+66]
	cmp	DWORD PTR _cb$[ebp], eax
	jg	SHORT $LN9@FindAvaila

; 974  : 	{
; 975  : 		for (i=0;i<ls; i++)

	mov	DWORD PTR _i$[ebp], 0
	jmp	SHORT $LN8@FindAvaila
$LN7@FindAvaila:
	mov	ecx, DWORD PTR _i$[ebp]
	add	ecx, 1
	mov	DWORD PTR _i$[ebp], ecx
$LN8@FindAvaila:
	mov	edx, DWORD PTR _i$[ebp]
	cmp	edx, DWORD PTR _ls$[ebp]
	jge	SHORT $LN6@FindAvaila

; 976  : 		{
; 977  : 			if (GetSchedule(i) & (1 << cb))

	mov	eax, DWORD PTR _i$[ebp]
	push	eax
	mov	ecx, DWORD PTR _this$[ebp]
	call	?GetSchedule@SquadronClass@@QAEKH@Z	; SquadronClass::GetSchedule
	mov	edx, 1
	mov	ecx, DWORD PTR _cb$[ebp]
	shl	edx, cl
	and	eax, edx
	je	SHORT $LN5@FindAvaila

; 978  : 				free[i] = 0;

	mov	eax, DWORD PTR _i$[ebp]
	mov	DWORD PTR $T1[ebp], eax
	cmp	DWORD PTR $T1[ebp], 16			; 00000010H
	jae	SHORT $LN22@FindAvaila
	jmp	SHORT $LN23@FindAvaila
$LN22@FindAvaila:
	call	___report_rangecheckfailure
$LN23@FindAvaila:
	mov	ecx, DWORD PTR $T1[ebp]
	mov	BYTE PTR _free$[ebp+ecx], 0
$LN5@FindAvaila:

; 979  : 		}

	jmp	SHORT $LN7@FindAvaila
$LN6@FindAvaila:

; 980  : 	}

	jmp	SHORT $LN10@FindAvaila
$LN9@FindAvaila:

; 981  : 
; 982  : 	// now collect the rest of our aircraft (regardless of match)
; 983  : 	for (i=0; i<ls && got < mis->aircraft; i++)

	mov	DWORD PTR _i$[ebp], 0
	jmp	SHORT $LN4@FindAvaila
$LN3@FindAvaila:
	mov	edx, DWORD PTR _i$[ebp]
	add	edx, 1
	mov	DWORD PTR _i$[ebp], edx
$LN4@FindAvaila:
	mov	eax, DWORD PTR _i$[ebp]
	cmp	eax, DWORD PTR _ls$[ebp]
	jge	SHORT $LN2@FindAvaila
	mov	ecx, DWORD PTR _mis$[ebp]
	movzx	edx, BYTE PTR [ecx+61]
	cmp	DWORD PTR _got$[ebp], edx
	jge	SHORT $LN2@FindAvaila

; 984  : 	{
; 985  : 		if (free[i] && GetNumVehicles(i))

	mov	eax, DWORD PTR _i$[ebp]
	movzx	ecx, BYTE PTR _free$[ebp+eax]
	test	ecx, ecx
	je	SHORT $LN1@FindAvaila
	mov	edx, DWORD PTR _i$[ebp]
	push	edx
	mov	ecx, DWORD PTR _this$[ebp]
	call	?GetNumVehicles@UnitClass@@QAEHH@Z	; UnitClass::GetNumVehicles
	test	eax, eax
	je	SHORT $LN1@FindAvaila

; 986  : 		{
; 987  : 			mis->slots[snum] = i;

	mov	eax, DWORD PTR _mis$[ebp]
	add	eax, DWORD PTR _snum$[ebp]
	mov	cl, BYTE PTR _i$[ebp]
	mov	BYTE PTR [eax+67], cl

; 988  : 			got += GetNumVehicles(i);

	mov	edx, DWORD PTR _i$[ebp]
	push	edx
	mov	ecx, DWORD PTR _this$[ebp]
	call	?GetNumVehicles@UnitClass@@QAEHH@Z	; UnitClass::GetNumVehicles
	add	eax, DWORD PTR _got$[ebp]
	mov	DWORD PTR _got$[ebp], eax

; 989  : 			snum++;

	mov	eax, DWORD PTR _snum$[ebp]
	add	eax, 1
	mov	DWORD PTR _snum$[ebp], eax
$LN1@FindAvaila:

; 990  : 		}
; 991  : 	}

	jmp	SHORT $LN3@FindAvaila
$LN2@FindAvaila:

; 992  : 
; 993  : #ifdef DEBUG
; 994  : 	for (i=0; i<PILOTS_PER_FLIGHT; i++)
; 995  : 	{
; 996  : 		for (ls=0; ls<PILOTS_PER_FLIGHT; ls++)
; 997  : 		{
; 998  : 			ShiAssert (i == ls || mis->slots[i] == 255 || mis->slots[ls] != mis->slots[i]);
; 999  : 		}
; 1000 : 	}
; 1001 : 	ShiAssert (!got || mis->slots[0] != 255);
; 1002 : #endif
; 1003 : 
; 1004 : 	return got;

	mov	eax, DWORD PTR _got$[ebp]
$LN20@FindAvaila:

; 1005 : }

	mov	ecx, DWORD PTR __$ArrayPad$[ebp]
	xor	ecx, ebp
	call	@__security_check_cookie@4
	mov	esp, ebp
	pop	ebp
	ret	4
?FindAvailableAircraft@SquadronClass@@QAEHPAVMissionRequestClass@@@Z ENDP ; SquadronClass::FindAvailableAircraft
_TEXT	ENDS
; Function compile flags: /Odtp
; File c:\users\zhitao li\documents\visual studio 2012\projects\freefalcon\campaign\camptask\squadron.cpp
_TEXT	SEGMENT
_this$ = -8						; size = 4
_i$ = -4						; size = 4
?ShiftSchedule@SquadronClass@@QAEXXZ PROC		; SquadronClass::ShiftSchedule
; _this$ = ecx

; 938  : {

	push	ebp
	mov	ebp, esp
	sub	esp, 8
	mov	DWORD PTR _this$[ebp], ecx

; 939  : 	int		i;
; 940  : 	
; 941  : 	for (i=0; i<VEHICLE_GROUPS_PER_UNIT; i++)

	mov	DWORD PTR _i$[ebp], 0
	jmp	SHORT $LN5@ShiftSched
$LN4@ShiftSched:
	mov	eax, DWORD PTR _i$[ebp]
	add	eax, 1
	mov	DWORD PTR _i$[ebp], eax
$LN5@ShiftSched:
	cmp	DWORD PTR _i$[ebp], 16			; 00000010H
	jge	SHORT $LN6@ShiftSched

; 942  : 	{
; 943  : 		if (!GetNumVehicles(i))

	mov	ecx, DWORD PTR _i$[ebp]
	push	ecx
	mov	ecx, DWORD PTR _this$[ebp]
	call	?GetNumVehicles@UnitClass@@QAEHH@Z	; UnitClass::GetNumVehicles
	test	eax, eax
	jne	SHORT $LN2@ShiftSched

; 944  : 			SetSchedule(i, 0xFFFFFFFF);			// Nothing here, set as used.

	push	-1
	mov	edx, DWORD PTR _i$[ebp]
	push	edx
	mov	ecx, DWORD PTR _this$[ebp]
	call	?SetSchedule@SquadronClass@@QAEXHK@Z	; SquadronClass::SetSchedule

; 945  : 		else

	jmp	SHORT $LN1@ShiftSched
$LN2@ShiftSched:

; 946  : 			ShiftSchedule(i);					// [i] = sq->schedule[i] >> 1;

	mov	eax, DWORD PTR _i$[ebp]
	push	eax
	mov	ecx, DWORD PTR _this$[ebp]
	call	?ShiftSchedule@SquadronClass@@QAEXH@Z	; SquadronClass::ShiftSchedule
$LN1@ShiftSched:

; 947  : 	}

	jmp	SHORT $LN4@ShiftSched
$LN6@ShiftSched:

; 948  : }

	mov	esp, ebp
	pop	ebp
	ret	0
?ShiftSchedule@SquadronClass@@QAEXXZ ENDP		; SquadronClass::ShiftSchedule
_TEXT	ENDS
; Function compile flags: /Odtp
; File c:\users\zhitao li\documents\visual studio 2012\projects\freefalcon\campaign\camptask\squadron.cpp
_TEXT	SEGMENT
tv64 = -8						; size = 4
_this$ = -4						; size = 4
_pilot$ = 8						; size = 4
_killtype$ = 12						; size = 4
?ScoreKill@SquadronClass@@QAEXHH@Z PROC			; SquadronClass::ScoreKill
; _this$ = ecx

; 876  : 	{

	push	ebp
	mov	ebp, esp
	sub	esp, 8
	mov	DWORD PTR _this$[ebp], ecx

; 877  : 	switch (killtype)

	mov	eax, DWORD PTR _killtype$[ebp]
	mov	DWORD PTR tv64[ebp], eax
	cmp	DWORD PTR tv64[ebp], 5
	ja	$LN8@ScoreKill
	mov	ecx, DWORD PTR tv64[ebp]
	jmp	DWORD PTR $LN10@ScoreKill[ecx*4]
$LN5@ScoreKill:

; 878  : 		{
; 879  : 		case ASTAT_AAKILL:
; 880  : 		case ASTAT_PKILL:
; 881  : 			pilot_data[pilot].aa_kills++;

	mov	edx, DWORD PTR _pilot$[ebp]
	imul	edx, 10					; 0000000aH
	mov	eax, DWORD PTR _this$[ebp]
	mov	cl, BYTE PTR [eax+edx+870]
	add	cl, 1
	mov	edx, DWORD PTR _pilot$[ebp]
	imul	edx, 10					; 0000000aH
	mov	eax, DWORD PTR _this$[ebp]
	mov	BYTE PTR [eax+edx+870], cl

; 882  : 			aa_kills++;

	mov	ecx, DWORD PTR _this$[ebp]
	mov	dx, WORD PTR [ecx+1444]
	add	dx, 1
	mov	eax, DWORD PTR _this$[ebp]
	mov	WORD PTR [eax+1444], dx

; 883  : 			break;

	jmp	$LN8@ScoreKill
$LN4@ScoreKill:

; 884  : 		case ASTAT_AGKILL:
; 885  : 			pilot_data[pilot].ag_kills++;

	mov	ecx, DWORD PTR _pilot$[ebp]
	imul	ecx, 10					; 0000000aH
	mov	edx, DWORD PTR _this$[ebp]
	mov	al, BYTE PTR [edx+ecx+871]
	add	al, 1
	mov	ecx, DWORD PTR _pilot$[ebp]
	imul	ecx, 10					; 0000000aH
	mov	edx, DWORD PTR _this$[ebp]
	mov	BYTE PTR [edx+ecx+871], al

; 886  : 			ag_kills++;

	mov	eax, DWORD PTR _this$[ebp]
	mov	cx, WORD PTR [eax+1446]
	add	cx, 1
	mov	edx, DWORD PTR _this$[ebp]
	mov	WORD PTR [edx+1446], cx

; 887  : 			break;

	jmp	SHORT $LN8@ScoreKill
$LN3@ScoreKill:

; 888  : 		case ASTAT_ASKILL:
; 889  : 			pilot_data[pilot].as_kills++;

	mov	eax, DWORD PTR _pilot$[ebp]
	imul	eax, 10					; 0000000aH
	mov	ecx, DWORD PTR _this$[ebp]
	mov	dl, BYTE PTR [ecx+eax+872]
	add	dl, 1
	mov	eax, DWORD PTR _pilot$[ebp]
	imul	eax, 10					; 0000000aH
	mov	ecx, DWORD PTR _this$[ebp]
	mov	BYTE PTR [ecx+eax+872], dl

; 890  : 			as_kills++;

	mov	edx, DWORD PTR _this$[ebp]
	mov	ax, WORD PTR [edx+1448]
	add	ax, 1
	mov	ecx, DWORD PTR _this$[ebp]
	mov	WORD PTR [ecx+1448], ax

; 891  : 			break;

	jmp	SHORT $LN8@ScoreKill
$LN2@ScoreKill:

; 892  : 		case ASTAT_ANKILL:
; 893  : 			pilot_data[pilot].an_kills++;

	mov	edx, DWORD PTR _pilot$[ebp]
	imul	edx, 10					; 0000000aH
	mov	eax, DWORD PTR _this$[ebp]
	mov	cl, BYTE PTR [eax+edx+873]
	add	cl, 1
	mov	edx, DWORD PTR _pilot$[ebp]
	imul	edx, 10					; 0000000aH
	mov	eax, DWORD PTR _this$[ebp]
	mov	BYTE PTR [eax+edx+873], cl

; 894  : 			an_kills++;

	mov	ecx, DWORD PTR _this$[ebp]
	mov	dx, WORD PTR [ecx+1450]
	add	dx, 1
	mov	eax, DWORD PTR _this$[ebp]
	mov	WORD PTR [eax+1450], dx
$LN8@ScoreKill:

; 895  : 			break;
; 896  : 		default:
; 897  : 			return;
; 898  : 			break;
; 899  : 		}
; 900  : 	}

	mov	esp, ebp
	pop	ebp
	ret	8
	npad	3
$LN10@ScoreKill:
	DD	$LN5@ScoreKill
	DD	$LN4@ScoreKill
	DD	$LN3@ScoreKill
	DD	$LN2@ScoreKill
	DD	$LN8@ScoreKill
	DD	$LN5@ScoreKill
?ScoreKill@SquadronClass@@QAEXHH@Z ENDP			; SquadronClass::ScoreKill
_TEXT	ENDS
; Function compile flags: /Odtp
; File c:\users\zhitao li\documents\visual studio 2012\projects\freefalcon\campaign\camptask\squadron.cpp
_TEXT	SEGMENT
_added$ = -16						; size = 4
_result$ = -12						; size = 4
_i$ = -8						; size = 4
_this$ = -4						; size = 4
_max_new_pilots$ = 8					; size = 4
?ReinforcePilots@SquadronClass@@QAEXH@Z PROC		; SquadronClass::ReinforcePilots
; _this$ = ecx

; 838  : 	{

	push	ebp
	mov	ebp, esp
	sub	esp, 16					; 00000010H
	push	esi
	mov	DWORD PTR _this$[ebp], ecx

; 839  : 	int		i,added=0,result;

	mov	DWORD PTR _added$[ebp], 0

; 840  : 
; 841  : 	for (i=0; i<PILOTS_PER_SQUADRON; i++)

	mov	DWORD PTR _i$[ebp], 0
	jmp	SHORT $LN17@ReinforceP
$LN16@ReinforceP:
	mov	eax, DWORD PTR _i$[ebp]
	add	eax, 1
	mov	DWORD PTR _i$[ebp], eax
$LN17@ReinforceP:
	cmp	DWORD PTR _i$[ebp], 48			; 00000030H
	jge	$LN18@ReinforceP

; 842  : 		{
; 843  : 		if (pilot_data[i].pilot_id == 1 && (pilot_data[i].pilot_status == PILOT_MIA || pilot_data[i].pilot_status == PILOT_KIA))

	mov	ecx, DWORD PTR _i$[ebp]
	imul	ecx, 10					; 0000000aH
	mov	edx, DWORD PTR _this$[ebp]
	movsx	eax, WORD PTR [edx+ecx+866]
	cmp	eax, 1
	jne	SHORT $LN14@ReinforceP
	mov	ecx, DWORD PTR _i$[ebp]
	imul	ecx, 10					; 0000000aH
	mov	edx, DWORD PTR _this$[ebp]
	movzx	eax, BYTE PTR [edx+ecx+869]
	cmp	eax, 2
	je	SHORT $LN13@ReinforceP
	mov	ecx, DWORD PTR _i$[ebp]
	imul	ecx, 10					; 0000000aH
	mov	edx, DWORD PTR _this$[ebp]
	movzx	eax, BYTE PTR [edx+ecx+869]
	cmp	eax, 1
