; Listing generated by Microsoft (R) Optimizing Compiler Version 17.00.51106.1 

	TITLE	C:\Users\Zhitao Li\Documents\Visual Studio 2012\Projects\Freefalcon\SIM\hdigi\h_Gengage.cpp
	.686P
	.XMM
	include listing.inc
	.model	flat

INCLUDELIB LIBCMT
INCLUDELIB OLDNAMES

PUBLIC	?traps@_Num_base@std@@2_NB			; std::_Num_base::traps
PUBLIC	?round_style@_Num_base@std@@2W4float_round_style@2@B ; std::_Num_base::round_style
PUBLIC	?digits@_Num_base@std@@2HB			; std::_Num_base::digits
PUBLIC	?digits10@_Num_base@std@@2HB			; std::_Num_base::digits10
PUBLIC	?max_digits10@_Num_base@std@@2HB		; std::_Num_base::max_digits10
PUBLIC	?max_exponent@_Num_base@std@@2HB		; std::_Num_base::max_exponent
PUBLIC	?max_exponent10@_Num_base@std@@2HB		; std::_Num_base::max_exponent10
PUBLIC	?min_exponent@_Num_base@std@@2HB		; std::_Num_base::min_exponent
PUBLIC	?min_exponent10@_Num_base@std@@2HB		; std::_Num_base::min_exponent10
PUBLIC	?radix@_Num_base@std@@2HB			; std::_Num_base::radix
PUBLIC	?table_size@?$ctype@D@std@@2IB			; std::ctype<char>::table_size
PUBLIC	?is_bounded@_Num_int_base@std@@2_NB		; std::_Num_int_base::is_bounded
PUBLIC	?is_exact@_Num_int_base@std@@2_NB		; std::_Num_int_base::is_exact
PUBLIC	?is_integer@_Num_int_base@std@@2_NB		; std::_Num_int_base::is_integer
PUBLIC	?is_modulo@_Num_int_base@std@@2_NB		; std::_Num_int_base::is_modulo
PUBLIC	?is_specialized@_Num_int_base@std@@2_NB		; std::_Num_int_base::is_specialized
PUBLIC	?radix@_Num_int_base@std@@2HB			; std::_Num_int_base::radix
PUBLIC	?has_denorm@_Num_float_base@std@@2W4float_denorm_style@2@B ; std::_Num_float_base::has_denorm
PUBLIC	?has_denorm_loss@_Num_float_base@std@@2_NB	; std::_Num_float_base::has_denorm_loss
PUBLIC	?SIMDIRTYDATA_INTERVAL@FalconEntity@@2KB	; FalconEntity::SIMDIRTYDATA_INTERVAL
PUBLIC	?CMPDIRTYDATA_INTERVAL@FalconEntity@@2KB	; FalconEntity::CMPDIRTYDATA_INTERVAL
PUBLIC	?has_infinity@_Num_float_base@std@@2_NB		; std::_Num_float_base::has_infinity
PUBLIC	?has_quiet_NaN@_Num_float_base@std@@2_NB	; std::_Num_float_base::has_quiet_NaN
PUBLIC	?has_signaling_NaN@_Num_float_base@std@@2_NB	; std::_Num_float_base::has_signaling_NaN
PUBLIC	?is_bounded@_Num_float_base@std@@2_NB		; std::_Num_float_base::is_bounded
PUBLIC	?is_exact@_Num_float_base@std@@2_NB		; std::_Num_float_base::is_exact
PUBLIC	?is_iec559@_Num_float_base@std@@2_NB		; std::_Num_float_base::is_iec559
PUBLIC	?is_integer@_Num_float_base@std@@2_NB		; std::_Num_float_base::is_integer
PUBLIC	?is_modulo@_Num_float_base@std@@2_NB		; std::_Num_float_base::is_modulo
PUBLIC	?is_signed@_Num_float_base@std@@2_NB		; std::_Num_float_base::is_signed
PUBLIC	?is_specialized@_Num_float_base@std@@2_NB	; std::_Num_float_base::is_specialized
PUBLIC	?tinyness_before@_Num_float_base@std@@2_NB	; std::_Num_float_base::tinyness_before
PUBLIC	?traps@_Num_float_base@std@@2_NB		; std::_Num_float_base::traps
PUBLIC	?round_style@_Num_float_base@std@@2W4float_round_style@2@B ; std::_Num_float_base::round_style
PUBLIC	?radix@_Num_float_base@std@@2HB			; std::_Num_float_base::radix
PUBLIC	?is_signed@?$numeric_limits@D@std@@2_NB		; std::numeric_limits<char>::is_signed
PUBLIC	?digits@?$numeric_limits@D@std@@2HB		; std::numeric_limits<char>::digits
PUBLIC	?digits10@?$numeric_limits@D@std@@2HB		; std::numeric_limits<char>::digits10
PUBLIC	?is_signed@?$numeric_limits@_W@std@@2_NB	; std::numeric_limits<wchar_t>::is_signed
PUBLIC	?digits@?$numeric_limits@_W@std@@2HB		; std::numeric_limits<wchar_t>::digits
PUBLIC	?digits10@?$numeric_limits@_W@std@@2HB		; std::numeric_limits<wchar_t>::digits10
PUBLIC	?is_modulo@?$numeric_limits@_N@std@@2_NB	; std::numeric_limits<bool>::is_modulo
PUBLIC	?is_signed@?$numeric_limits@_N@std@@2_NB	; std::numeric_limits<bool>::is_signed
PUBLIC	?digits@?$numeric_limits@_N@std@@2HB		; std::numeric_limits<bool>::digits
PUBLIC	?digits10@?$numeric_limits@_N@std@@2HB		; std::numeric_limits<bool>::digits10
PUBLIC	?is_signed@?$numeric_limits@C@std@@2_NB		; std::numeric_limits<signed char>::is_signed
PUBLIC	?digits@?$numeric_limits@C@std@@2HB		; std::numeric_limits<signed char>::digits
PUBLIC	?digits10@?$numeric_limits@C@std@@2HB		; std::numeric_limits<signed char>::digits10
PUBLIC	?is_signed@?$numeric_limits@E@std@@2_NB		; std::numeric_limits<unsigned char>::is_signed
PUBLIC	?value@?$integral_constant@_N$0A@@std@@2_NB	; std::integral_constant<bool,0>::value
PUBLIC	?digits@?$numeric_limits@E@std@@2HB		; std::numeric_limits<unsigned char>::digits
PUBLIC	?digits10@?$numeric_limits@E@std@@2HB		; std::numeric_limits<unsigned char>::digits10
PUBLIC	?value@?$integral_constant@_N$00@std@@2_NB	; std::integral_constant<bool,1>::value
PUBLIC	?is_signed@?$numeric_limits@F@std@@2_NB		; std::numeric_limits<short>::is_signed
PUBLIC	?digits@?$numeric_limits@F@std@@2HB		; std::numeric_limits<short>::digits
PUBLIC	?digits10@?$numeric_limits@F@std@@2HB		; std::numeric_limits<short>::digits10
PUBLIC	?is_signed@?$numeric_limits@G@std@@2_NB		; std::numeric_limits<unsigned short>::is_signed
PUBLIC	?digits@?$numeric_limits@G@std@@2HB		; std::numeric_limits<unsigned short>::digits
PUBLIC	?digits10@?$numeric_limits@G@std@@2HB		; std::numeric_limits<unsigned short>::digits10
PUBLIC	?is_signed@?$numeric_limits@H@std@@2_NB		; std::numeric_limits<int>::is_signed
PUBLIC	?value@?$_Sizeof@HU_Nil@std@@U12@U12@U12@U12@U12@U12@@std@@2IB ; std::_Sizeof<int,std::_Nil,std::_Nil,std::_Nil,std::_Nil,std::_Nil,std::_Nil,std::_Nil>::value
PUBLIC	?digits@?$numeric_limits@H@std@@2HB		; std::numeric_limits<int>::digits
PUBLIC	?digits10@?$numeric_limits@H@std@@2HB		; std::numeric_limits<int>::digits10
PUBLIC	?is_signed@?$numeric_limits@I@std@@2_NB		; std::numeric_limits<unsigned int>::is_signed
PUBLIC	?digits@?$numeric_limits@I@std@@2HB		; std::numeric_limits<unsigned int>::digits
PUBLIC	?digits10@?$numeric_limits@I@std@@2HB		; std::numeric_limits<unsigned int>::digits10
PUBLIC	?is_signed@?$numeric_limits@J@std@@2_NB		; std::numeric_limits<long>::is_signed
PUBLIC	?digits@?$numeric_limits@J@std@@2HB		; std::numeric_limits<long>::digits
PUBLIC	?digits10@?$numeric_limits@J@std@@2HB		; std::numeric_limits<long>::digits10
PUBLIC	?skipws@?$_Iosb@H@std@@2W4_Fmtflags@12@B	; std::_Iosb<int>::skipws
PUBLIC	?unitbuf@?$_Iosb@H@std@@2W4_Fmtflags@12@B	; std::_Iosb<int>::unitbuf
PUBLIC	?uppercase@?$_Iosb@H@std@@2W4_Fmtflags@12@B	; std::_Iosb<int>::uppercase
PUBLIC	?showbase@?$_Iosb@H@std@@2W4_Fmtflags@12@B	; std::_Iosb<int>::showbase
PUBLIC	?is_signed@?$numeric_limits@K@std@@2_NB		; std::numeric_limits<unsigned long>::is_signed
PUBLIC	?showpoint@?$_Iosb@H@std@@2W4_Fmtflags@12@B	; std::_Iosb<int>::showpoint
PUBLIC	?digits@?$numeric_limits@K@std@@2HB		; std::numeric_limits<unsigned long>::digits
PUBLIC	?showpos@?$_Iosb@H@std@@2W4_Fmtflags@12@B	; std::_Iosb<int>::showpos
PUBLIC	?digits10@?$numeric_limits@K@std@@2HB		; std::numeric_limits<unsigned long>::digits10
PUBLIC	?left@?$_Iosb@H@std@@2W4_Fmtflags@12@B		; std::_Iosb<int>::left
PUBLIC	?right@?$_Iosb@H@std@@2W4_Fmtflags@12@B		; std::_Iosb<int>::right
PUBLIC	?internal@?$_Iosb@H@std@@2W4_Fmtflags@12@B	; std::_Iosb<int>::internal
PUBLIC	?dec@?$_Iosb@H@std@@2W4_Fmtflags@12@B		; std::_Iosb<int>::dec
PUBLIC	?oct@?$_Iosb@H@std@@2W4_Fmtflags@12@B		; std::_Iosb<int>::oct
PUBLIC	?hex@?$_Iosb@H@std@@2W4_Fmtflags@12@B		; std::_Iosb<int>::hex
PUBLIC	?scientific@?$_Iosb@H@std@@2W4_Fmtflags@12@B	; std::_Iosb<int>::scientific
PUBLIC	?fixed@?$_Iosb@H@std@@2W4_Fmtflags@12@B		; std::_Iosb<int>::fixed
PUBLIC	?hexfloat@?$_Iosb@H@std@@2W4_Fmtflags@12@B	; std::_Iosb<int>::hexfloat
PUBLIC	?boolalpha@?$_Iosb@H@std@@2W4_Fmtflags@12@B	; std::_Iosb<int>::boolalpha
PUBLIC	?is_signed@?$numeric_limits@_J@std@@2_NB	; std::numeric_limits<__int64>::is_signed
PUBLIC	?_Stdio@?$_Iosb@H@std@@2W4_Fmtflags@12@B	; std::_Iosb<int>::_Stdio
PUBLIC	?adjustfield@?$_Iosb@H@std@@2W4_Fmtflags@12@B	; std::_Iosb<int>::adjustfield
PUBLIC	?digits@?$numeric_limits@_J@std@@2HB		; std::numeric_limits<__int64>::digits
PUBLIC	?basefield@?$_Iosb@H@std@@2W4_Fmtflags@12@B	; std::_Iosb<int>::basefield
PUBLIC	?digits10@?$numeric_limits@_J@std@@2HB		; std::numeric_limits<__int64>::digits10
PUBLIC	?floatfield@?$_Iosb@H@std@@2W4_Fmtflags@12@B	; std::_Iosb<int>::floatfield
PUBLIC	?goodbit@?$_Iosb@H@std@@2W4_Iostate@12@B	; std::_Iosb<int>::goodbit
PUBLIC	?eofbit@?$_Iosb@H@std@@2W4_Iostate@12@B		; std::_Iosb<int>::eofbit
PUBLIC	?failbit@?$_Iosb@H@std@@2W4_Iostate@12@B	; std::_Iosb<int>::failbit
PUBLIC	?badbit@?$_Iosb@H@std@@2W4_Iostate@12@B		; std::_Iosb<int>::badbit
PUBLIC	?_Hardfail@?$_Iosb@H@std@@2W4_Iostate@12@B	; std::_Iosb<int>::_Hardfail
PUBLIC	?in@?$_Iosb@H@std@@2W4_Openmode@12@B		; std::_Iosb<int>::in
PUBLIC	?out@?$_Iosb@H@std@@2W4_Openmode@12@B		; std::_Iosb<int>::out
PUBLIC	?ate@?$_Iosb@H@std@@2W4_Openmode@12@B		; std::_Iosb<int>::ate
PUBLIC	?is_signed@?$numeric_limits@_K@std@@2_NB	; std::numeric_limits<unsigned __int64>::is_signed
PUBLIC	?app@?$_Iosb@H@std@@2W4_Openmode@12@B		; std::_Iosb<int>::app
PUBLIC	?digits@?$numeric_limits@_K@std@@2HB		; std::numeric_limits<unsigned __int64>::digits
PUBLIC	?trunc@?$_Iosb@H@std@@2W4_Openmode@12@B		; std::_Iosb<int>::trunc
PUBLIC	?digits10@?$numeric_limits@_K@std@@2HB		; std::numeric_limits<unsigned __int64>::digits10
PUBLIC	?_Nocreate@?$_Iosb@H@std@@2W4_Openmode@12@B	; std::_Iosb<int>::_Nocreate
PUBLIC	?_Noreplace@?$_Iosb@H@std@@2W4_Openmode@12@B	; std::_Iosb<int>::_Noreplace
PUBLIC	?binary@?$_Iosb@H@std@@2W4_Openmode@12@B	; std::_Iosb<int>::binary
PUBLIC	?beg@?$_Iosb@H@std@@2W4_Seekdir@12@B		; std::_Iosb<int>::beg
PUBLIC	?cur@?$_Iosb@H@std@@2W4_Seekdir@12@B		; std::_Iosb<int>::cur
PUBLIC	?end@?$_Iosb@H@std@@2W4_Seekdir@12@B		; std::_Iosb<int>::end
PUBLIC	?digits@?$numeric_limits@M@std@@2HB		; std::numeric_limits<float>::digits
PUBLIC	?digits10@?$numeric_limits@M@std@@2HB		; std::numeric_limits<float>::digits10
PUBLIC	?max_digits10@?$numeric_limits@M@std@@2HB	; std::numeric_limits<float>::max_digits10
PUBLIC	?max_exponent@?$numeric_limits@M@std@@2HB	; std::numeric_limits<float>::max_exponent
PUBLIC	?max_exponent10@?$numeric_limits@M@std@@2HB	; std::numeric_limits<float>::max_exponent10
PUBLIC	?_Stream_err@failure@ios_base@std@@0W4io_errc@43@B ; std::ios_base::failure::_Stream_err
PUBLIC	?min_exponent@?$numeric_limits@M@std@@2HB	; std::numeric_limits<float>::min_exponent
PUBLIC	?min_exponent10@?$numeric_limits@M@std@@2HB	; std::numeric_limits<float>::min_exponent10
PUBLIC	?value@?$integral_constant@I$0A@@std@@2IB	; std::integral_constant<unsigned int,0>::value
PUBLIC	?digits@?$numeric_limits@N@std@@2HB		; std::numeric_limits<double>::digits
PUBLIC	?digits10@?$numeric_limits@N@std@@2HB		; std::numeric_limits<double>::digits10
PUBLIC	?max_digits10@?$numeric_limits@N@std@@2HB	; std::numeric_limits<double>::max_digits10
PUBLIC	?max_exponent@?$numeric_limits@N@std@@2HB	; std::numeric_limits<double>::max_exponent
PUBLIC	?max_exponent10@?$numeric_limits@N@std@@2HB	; std::numeric_limits<double>::max_exponent10
PUBLIC	?min_exponent@?$numeric_limits@N@std@@2HB	; std::numeric_limits<double>::min_exponent
PUBLIC	?min_exponent10@?$numeric_limits@N@std@@2HB	; std::numeric_limits<double>::min_exponent10
PUBLIC	?digits@?$numeric_limits@O@std@@2HB		; std::numeric_limits<long double>::digits
PUBLIC	?digits10@?$numeric_limits@O@std@@2HB		; std::numeric_limits<long double>::digits10
PUBLIC	?max_digits10@?$numeric_limits@O@std@@2HB	; std::numeric_limits<long double>::max_digits10
PUBLIC	?max_exponent@?$numeric_limits@O@std@@2HB	; std::numeric_limits<long double>::max_exponent
PUBLIC	?max_exponent10@?$numeric_limits@O@std@@2HB	; std::numeric_limits<long double>::max_exponent10
PUBLIC	?min_exponent@?$numeric_limits@O@std@@2HB	; std::numeric_limits<long double>::min_exponent
PUBLIC	?min_exponent10@?$numeric_limits@O@std@@2HB	; std::numeric_limits<long double>::min_exponent10
PUBLIC	?value@?$_Sizeof@U_Nil@std@@U12@U12@U12@U12@U12@U12@U12@@std@@2IB ; std::_Sizeof<std::_Nil,std::_Nil,std::_Nil,std::_Nil,std::_Nil,std::_Nil,std::_Nil,std::_Nil>::value
PUBLIC	?collate@?$_Locbase@H@std@@2HB			; std::_Locbase<int>::collate
PUBLIC	?ctype@?$_Locbase@H@std@@2HB			; std::_Locbase<int>::ctype
PUBLIC	?monetary@?$_Locbase@H@std@@2HB			; std::_Locbase<int>::monetary
PUBLIC	?numeric@?$_Locbase@H@std@@2HB			; std::_Locbase<int>::numeric
PUBLIC	?time@?$_Locbase@H@std@@2HB			; std::_Locbase<int>::time
PUBLIC	?messages@?$_Locbase@H@std@@2HB			; std::_Locbase<int>::messages
PUBLIC	?all@?$_Locbase@H@std@@2HB			; std::_Locbase<int>::all
PUBLIC	?none@?$_Locbase@H@std@@2HB			; std::_Locbase<int>::none
PUBLIC	?has_denorm@_Num_base@std@@2W4float_denorm_style@2@B ; std::_Num_base::has_denorm
PUBLIC	?has_denorm_loss@_Num_base@std@@2_NB		; std::_Num_base::has_denorm_loss
PUBLIC	?has_infinity@_Num_base@std@@2_NB		; std::_Num_base::has_infinity
PUBLIC	?has_quiet_NaN@_Num_base@std@@2_NB		; std::_Num_base::has_quiet_NaN
PUBLIC	?has_signaling_NaN@_Num_base@std@@2_NB		; std::_Num_base::has_signaling_NaN
PUBLIC	?is_bounded@_Num_base@std@@2_NB			; std::_Num_base::is_bounded
PUBLIC	?is_exact@_Num_base@std@@2_NB			; std::_Num_base::is_exact
PUBLIC	?is_iec559@_Num_base@std@@2_NB			; std::_Num_base::is_iec559
PUBLIC	?is_integer@_Num_base@std@@2_NB			; std::_Num_base::is_integer
PUBLIC	?is_modulo@_Num_base@std@@2_NB			; std::_Num_base::is_modulo
PUBLIC	?is_signed@_Num_base@std@@2_NB			; std::_Num_base::is_signed
PUBLIC	?is_specialized@_Num_base@std@@2_NB		; std::_Num_base::is_specialized
PUBLIC	?tinyness_before@_Num_base@std@@2_NB		; std::_Num_base::tinyness_before
;	COMDAT ?tinyness_before@_Num_base@std@@2_NB
CONST	SEGMENT
?tinyness_before@_Num_base@std@@2_NB DB 00H		; std::_Num_base::tinyness_before
CONST	ENDS
;	COMDAT ?is_specialized@_Num_base@std@@2_NB
CONST	SEGMENT
?is_specialized@_Num_base@std@@2_NB DB 00H		; std::_Num_base::is_specialized
CONST	ENDS
;	COMDAT ?is_signed@_Num_base@std@@2_NB
CONST	SEGMENT
?is_signed@_Num_base@std@@2_NB DB 00H			; std::_Num_base::is_signed
CONST	ENDS
;	COMDAT ?is_modulo@_Num_base@std@@2_NB
CONST	SEGMENT
?is_modulo@_Num_base@std@@2_NB DB 00H			; std::_Num_base::is_modulo
CONST	ENDS
;	COMDAT ?is_integer@_Num_base@std@@2_NB
CONST	SEGMENT
?is_integer@_Num_base@std@@2_NB DB 00H			; std::_Num_base::is_integer
CONST	ENDS
;	COMDAT ?is_iec559@_Num_base@std@@2_NB
CONST	SEGMENT
?is_iec559@_Num_base@std@@2_NB DB 00H			; std::_Num_base::is_iec559
CONST	ENDS
;	COMDAT ?is_exact@_Num_base@std@@2_NB
CONST	SEGMENT
?is_exact@_Num_base@std@@2_NB DB 00H			; std::_Num_base::is_exact
CONST	ENDS
;	COMDAT ?is_bounded@_Num_base@std@@2_NB
CONST	SEGMENT
?is_bounded@_Num_base@std@@2_NB DB 00H			; std::_Num_base::is_bounded
CONST	ENDS
;	COMDAT ?has_signaling_NaN@_Num_base@std@@2_NB
CONST	SEGMENT
?has_signaling_NaN@_Num_base@std@@2_NB DB 00H		; std::_Num_base::has_signaling_NaN
CONST	ENDS
;	COMDAT ?has_quiet_NaN@_Num_base@std@@2_NB
CONST	SEGMENT
?has_quiet_NaN@_Num_base@std@@2_NB DB 00H		; std::_Num_base::has_quiet_NaN
CONST	ENDS
;	COMDAT ?has_infinity@_Num_base@std@@2_NB
CONST	SEGMENT
?has_infinity@_Num_base@std@@2_NB DB 00H		; std::_Num_base::has_infinity
CONST	ENDS
;	COMDAT ?has_denorm_loss@_Num_base@std@@2_NB
CONST	SEGMENT
?has_denorm_loss@_Num_base@std@@2_NB DB 00H		; std::_Num_base::has_denorm_loss
CONST	ENDS
;	COMDAT ?has_denorm@_Num_base@std@@2W4float_denorm_style@2@B
CONST	SEGMENT
?has_denorm@_Num_base@std@@2W4float_denorm_style@2@B DD 00H ; std::_Num_base::has_denorm
CONST	ENDS
;	COMDAT ?none@?$_Locbase@H@std@@2HB
CONST	SEGMENT
?none@?$_Locbase@H@std@@2HB DD 00H			; std::_Locbase<int>::none
CONST	ENDS
;	COMDAT ?all@?$_Locbase@H@std@@2HB
CONST	SEGMENT
?all@?$_Locbase@H@std@@2HB DD 03fH			; std::_Locbase<int>::all
CONST	ENDS
;	COMDAT ?messages@?$_Locbase@H@std@@2HB
CONST	SEGMENT
?messages@?$_Locbase@H@std@@2HB DD 020H			; std::_Locbase<int>::messages
CONST	ENDS
;	COMDAT ?time@?$_Locbase@H@std@@2HB
CONST	SEGMENT
?time@?$_Locbase@H@std@@2HB DD 010H			; std::_Locbase<int>::time
CONST	ENDS
;	COMDAT ?numeric@?$_Locbase@H@std@@2HB
CONST	SEGMENT
?numeric@?$_Locbase@H@std@@2HB DD 08H			; std::_Locbase<int>::numeric
CONST	ENDS
;	COMDAT ?monetary@?$_Locbase@H@std@@2HB
CONST	SEGMENT
?monetary@?$_Locbase@H@std@@2HB DD 04H			; std::_Locbase<int>::monetary
CONST	ENDS
;	COMDAT ?ctype@?$_Locbase@H@std@@2HB
CONST	SEGMENT
?ctype@?$_Locbase@H@std@@2HB DD 02H			; std::_Locbase<int>::ctype
CONST	ENDS
;	COMDAT ?collate@?$_Locbase@H@std@@2HB
CONST	SEGMENT
?collate@?$_Locbase@H@std@@2HB DD 01H			; std::_Locbase<int>::collate
CONST	ENDS
;	COMDAT ?value@?$_Sizeof@U_Nil@std@@U12@U12@U12@U12@U12@U12@U12@@std@@2IB
CONST	SEGMENT
?value@?$_Sizeof@U_Nil@std@@U12@U12@U12@U12@U12@U12@U12@@std@@2IB DD 00H ; std::_Sizeof<std::_Nil,std::_Nil,std::_Nil,std::_Nil,std::_Nil,std::_Nil,std::_Nil,std::_Nil>::value
CONST	ENDS
;	COMDAT ?min_exponent10@?$numeric_limits@O@std@@2HB
CONST	SEGMENT
?min_exponent10@?$numeric_limits@O@std@@2HB DD 0fffffecdH ; std::numeric_limits<long double>::min_exponent10
CONST	ENDS
;	COMDAT ?min_exponent@?$numeric_limits@O@std@@2HB
CONST	SEGMENT
?min_exponent@?$numeric_limits@O@std@@2HB DD 0fffffc03H	; std::numeric_limits<long double>::min_exponent
CONST	ENDS
;	COMDAT ?max_exponent10@?$numeric_limits@O@std@@2HB
CONST	SEGMENT
?max_exponent10@?$numeric_limits@O@std@@2HB DD 0134H	; std::numeric_limits<long double>::max_exponent10
CONST	ENDS
;	COMDAT ?max_exponent@?$numeric_limits@O@std@@2HB
CONST	SEGMENT
?max_exponent@?$numeric_limits@O@std@@2HB DD 0400H	; std::numeric_limits<long double>::max_exponent
CONST	ENDS
;	COMDAT ?max_digits10@?$numeric_limits@O@std@@2HB
CONST	SEGMENT
?max_digits10@?$numeric_limits@O@std@@2HB DD 011H	; std::numeric_limits<long double>::max_digits10
CONST	ENDS
;	COMDAT ?digits10@?$numeric_limits@O@std@@2HB
CONST	SEGMENT
?digits10@?$numeric_limits@O@std@@2HB DD 0fH		; std::numeric_limits<long double>::digits10
CONST	ENDS
;	COMDAT ?digits@?$numeric_limits@O@std@@2HB
CONST	SEGMENT
?digits@?$numeric_limits@O@std@@2HB DD 035H		; std::numeric_limits<long double>::digits
CONST	ENDS
;	COMDAT ?min_exponent10@?$numeric_limits@N@std@@2HB
CONST	SEGMENT
?min_exponent10@?$numeric_limits@N@std@@2HB DD 0fffffecdH ; std::numeric_limits<double>::min_exponent10
CONST	ENDS
;	COMDAT ?min_exponent@?$numeric_limits@N@std@@2HB
CONST	SEGMENT
?min_exponent@?$numeric_limits@N@std@@2HB DD 0fffffc03H	; std::numeric_limits<double>::min_exponent
CONST	ENDS
;	COMDAT ?max_exponent10@?$numeric_limits@N@std@@2HB
CONST	SEGMENT
?max_exponent10@?$numeric_limits@N@std@@2HB DD 0134H	; std::numeric_limits<double>::max_exponent10
CONST	ENDS
;	COMDAT ?max_exponent@?$numeric_limits@N@std@@2HB
CONST	SEGMENT
?max_exponent@?$numeric_limits@N@std@@2HB DD 0400H	; std::numeric_limits<double>::max_exponent
CONST	ENDS
;	COMDAT ?max_digits10@?$numeric_limits@N@std@@2HB
CONST	SEGMENT
?max_digits10@?$numeric_limits@N@std@@2HB DD 011H	; std::numeric_limits<double>::max_digits10
CONST	ENDS
;	COMDAT ?digits10@?$numeric_limits@N@std@@2HB
CONST	SEGMENT
?digits10@?$numeric_limits@N@std@@2HB DD 0fH		; std::numeric_limits<double>::digits10
CONST	ENDS
;	COMDAT ?digits@?$numeric_limits@N@std@@2HB
CONST	SEGMENT
?digits@?$numeric_limits@N@std@@2HB DD 035H		; std::numeric_limits<double>::digits
CONST	ENDS
;	COMDAT ?value@?$integral_constant@I$0A@@std@@2IB
CONST	SEGMENT
?value@?$integral_constant@I$0A@@std@@2IB DD 00H	; std::integral_constant<unsigned int,0>::value
CONST	ENDS
;	COMDAT ?min_exponent10@?$numeric_limits@M@std@@2HB
CONST	SEGMENT
?min_exponent10@?$numeric_limits@M@std@@2HB DD 0ffffffdbH ; std::numeric_limits<float>::min_exponent10
CONST	ENDS
;	COMDAT ?min_exponent@?$numeric_limits@M@std@@2HB
CONST	SEGMENT
?min_exponent@?$numeric_limits@M@std@@2HB DD 0ffffff83H	; std::numeric_limits<float>::min_exponent
CONST	ENDS
;	COMDAT ?_Stream_err@failure@ios_base@std@@0W4io_errc@43@B
CONST	SEGMENT
?_Stream_err@failure@ios_base@std@@0W4io_errc@43@B DD 01H ; std::ios_base::failure::_Stream_err
CONST	ENDS
;	COMDAT ?max_exponent10@?$numeric_limits@M@std@@2HB
CONST	SEGMENT
?max_exponent10@?$numeric_limits@M@std@@2HB DD 026H	; std::numeric_limits<float>::max_exponent10
CONST	ENDS
;	COMDAT ?max_exponent@?$numeric_limits@M@std@@2HB
CONST	SEGMENT
?max_exponent@?$numeric_limits@M@std@@2HB DD 080H	; std::numeric_limits<float>::max_exponent
CONST	ENDS
;	COMDAT ?max_digits10@?$numeric_limits@M@std@@2HB
CONST	SEGMENT
?max_digits10@?$numeric_limits@M@std@@2HB DD 09H	; std::numeric_limits<float>::max_digits10
CONST	ENDS
;	COMDAT ?digits10@?$numeric_limits@M@std@@2HB
CONST	SEGMENT
?digits10@?$numeric_limits@M@std@@2HB DD 06H		; std::numeric_limits<float>::digits10
CONST	ENDS
;	COMDAT ?digits@?$numeric_limits@M@std@@2HB
CONST	SEGMENT
?digits@?$numeric_limits@M@std@@2HB DD 018H		; std::numeric_limits<float>::digits
CONST	ENDS
;	COMDAT ?end@?$_Iosb@H@std@@2W4_Seekdir@12@B
CONST	SEGMENT
?end@?$_Iosb@H@std@@2W4_Seekdir@12@B DD 02H		; std::_Iosb<int>::end
CONST	ENDS
;	COMDAT ?cur@?$_Iosb@H@std@@2W4_Seekdir@12@B
CONST	SEGMENT
?cur@?$_Iosb@H@std@@2W4_Seekdir@12@B DD 01H		; std::_Iosb<int>::cur
CONST	ENDS
;	COMDAT ?beg@?$_Iosb@H@std@@2W4_Seekdir@12@B
CONST	SEGMENT
?beg@?$_Iosb@H@std@@2W4_Seekdir@12@B DD 00H		; std::_Iosb<int>::beg
CONST	ENDS
;	COMDAT ?binary@?$_Iosb@H@std@@2W4_Openmode@12@B
CONST	SEGMENT
?binary@?$_Iosb@H@std@@2W4_Openmode@12@B DD 020H	; std::_Iosb<int>::binary
CONST	ENDS
;	COMDAT ?_Noreplace@?$_Iosb@H@std@@2W4_Openmode@12@B
CONST	SEGMENT
?_Noreplace@?$_Iosb@H@std@@2W4_Openmode@12@B DD 080H	; std::_Iosb<int>::_Noreplace
CONST	ENDS
;	COMDAT ?_Nocreate@?$_Iosb@H@std@@2W4_Openmode@12@B
CONST	SEGMENT
?_Nocreate@?$_Iosb@H@std@@2W4_Openmode@12@B DD 040H	; std::_Iosb<int>::_Nocreate
CONST	ENDS
;	COMDAT ?digits10@?$numeric_limits@_K@std@@2HB
CONST	SEGMENT
?digits10@?$numeric_limits@_K@std@@2HB DD 013H		; std::numeric_limits<unsigned __int64>::digits10
CONST	ENDS
;	COMDAT ?trunc@?$_Iosb@H@std@@2W4_Openmode@12@B
CONST	SEGMENT
?trunc@?$_Iosb@H@std@@2W4_Openmode@12@B DD 010H		; std::_Iosb<int>::trunc
CONST	ENDS
;	COMDAT ?digits@?$numeric_limits@_K@std@@2HB
CONST	SEGMENT
?digits@?$numeric_limits@_K@std@@2HB DD 040H		; std::numeric_limits<unsigned __int64>::digits
CONST	ENDS
;	COMDAT ?app@?$_Iosb@H@std@@2W4_Openmode@12@B
CONST	SEGMENT
?app@?$_Iosb@H@std@@2W4_Openmode@12@B DD 08H		; std::_Iosb<int>::app
CONST	ENDS
;	COMDAT ?is_signed@?$numeric_limits@_K@std@@2_NB
CONST	SEGMENT
?is_signed@?$numeric_limits@_K@std@@2_NB DB 00H		; std::numeric_limits<unsigned __int64>::is_signed
CONST	ENDS
;	COMDAT ?ate@?$_Iosb@H@std@@2W4_Openmode@12@B
CONST	SEGMENT
?ate@?$_Iosb@H@std@@2W4_Openmode@12@B DD 04H		; std::_Iosb<int>::ate
CONST	ENDS
;	COMDAT ?out@?$_Iosb@H@std@@2W4_Openmode@12@B
CONST	SEGMENT
?out@?$_Iosb@H@std@@2W4_Openmode@12@B DD 02H		; std::_Iosb<int>::out
CONST	ENDS
;	COMDAT ?in@?$_Iosb@H@std@@2W4_Openmode@12@B
CONST	SEGMENT
?in@?$_Iosb@H@std@@2W4_Openmode@12@B DD 01H		; std::_Iosb<int>::in
CONST	ENDS
;	COMDAT ?_Hardfail@?$_Iosb@H@std@@2W4_Iostate@12@B
CONST	SEGMENT
?_Hardfail@?$_Iosb@H@std@@2W4_Iostate@12@B DD 010H	; std::_Iosb<int>::_Hardfail
CONST	ENDS
;	COMDAT ?badbit@?$_Iosb@H@std@@2W4_Iostate@12@B
CONST	SEGMENT
?badbit@?$_Iosb@H@std@@2W4_Iostate@12@B DD 04H		; std::_Iosb<int>::badbit
CONST	ENDS
;	COMDAT ?failbit@?$_Iosb@H@std@@2W4_Iostate@12@B
CONST	SEGMENT
?failbit@?$_Iosb@H@std@@2W4_Iostate@12@B DD 02H		; std::_Iosb<int>::failbit
CONST	ENDS
;	COMDAT ?eofbit@?$_Iosb@H@std@@2W4_Iostate@12@B
CONST	SEGMENT
?eofbit@?$_Iosb@H@std@@2W4_Iostate@12@B DD 01H		; std::_Iosb<int>::eofbit
CONST	ENDS
;	COMDAT ?goodbit@?$_Iosb@H@std@@2W4_Iostate@12@B
CONST	SEGMENT
?goodbit@?$_Iosb@H@std@@2W4_Iostate@12@B DD 00H		; std::_Iosb<int>::goodbit
CONST	ENDS
;	COMDAT ?floatfield@?$_Iosb@H@std@@2W4_Fmtflags@12@B
CONST	SEGMENT
?floatfield@?$_Iosb@H@std@@2W4_Fmtflags@12@B DD 03000H	; std::_Iosb<int>::floatfield
CONST	ENDS
;	COMDAT ?digits10@?$numeric_limits@_J@std@@2HB
CONST	SEGMENT
?digits10@?$numeric_limits@_J@std@@2HB DD 012H		; std::numeric_limits<__int64>::digits10
CONST	ENDS
;	COMDAT ?basefield@?$_Iosb@H@std@@2W4_Fmtflags@12@B
CONST	SEGMENT
?basefield@?$_Iosb@H@std@@2W4_Fmtflags@12@B DD 0e00H	; std::_Iosb<int>::basefield
CONST	ENDS
;	COMDAT ?digits@?$numeric_limits@_J@std@@2HB
CONST	SEGMENT
?digits@?$numeric_limits@_J@std@@2HB DD 03fH		; std::numeric_limits<__int64>::digits
CONST	ENDS
;	COMDAT ?adjustfield@?$_Iosb@H@std@@2W4_Fmtflags@12@B
CONST	SEGMENT
?adjustfield@?$_Iosb@H@std@@2W4_Fmtflags@12@B DD 01c0H	; std::_Iosb<int>::adjustfield
CONST	ENDS
;	COMDAT ?_Stdio@?$_Iosb@H@std@@2W4_Fmtflags@12@B
CONST	SEGMENT
?_Stdio@?$_Iosb@H@std@@2W4_Fmtflags@12@B DD 08000H	; std::_Iosb<int>::_Stdio
CONST	ENDS
;	COMDAT ?is_signed@?$numeric_limits@_J@std@@2_NB
CONST	SEGMENT
?is_signed@?$numeric_limits@_J@std@@2_NB DB 01H		; std::numeric_limits<__int64>::is_signed
CONST	ENDS
;	COMDAT ?boolalpha@?$_Iosb@H@std@@2W4_Fmtflags@12@B
CONST	SEGMENT
?boolalpha@?$_Iosb@H@std@@2W4_Fmtflags@12@B DD 04000H	; std::_Iosb<int>::boolalpha
CONST	ENDS
;	COMDAT ?hexfloat@?$_Iosb@H@std@@2W4_Fmtflags@12@B
CONST	SEGMENT
?hexfloat@?$_Iosb@H@std@@2W4_Fmtflags@12@B DD 03000H	; std::_Iosb<int>::hexfloat
CONST	ENDS
;	COMDAT ?fixed@?$_Iosb@H@std@@2W4_Fmtflags@12@B
CONST	SEGMENT
?fixed@?$_Iosb@H@std@@2W4_Fmtflags@12@B DD 02000H	; std::_Iosb<int>::fixed
CONST	ENDS
;	COMDAT ?scientific@?$_Iosb@H@std@@2W4_Fmtflags@12@B
CONST	SEGMENT
?scientific@?$_Iosb@H@std@@2W4_Fmtflags@12@B DD 01000H	; std::_Iosb<int>::scientific
CONST	ENDS
;	COMDAT ?hex@?$_Iosb@H@std@@2W4_Fmtflags@12@B
CONST	SEGMENT
?hex@?$_Iosb@H@std@@2W4_Fmtflags@12@B DD 0800H		; std::_Iosb<int>::hex
CONST	ENDS
;	COMDAT ?oct@?$_Iosb@H@std@@2W4_Fmtflags@12@B
CONST	SEGMENT
?oct@?$_Iosb@H@std@@2W4_Fmtflags@12@B DD 0400H		; std::_Iosb<int>::oct
CONST	ENDS
;	COMDAT ?dec@?$_Iosb@H@std@@2W4_Fmtflags@12@B
CONST	SEGMENT
?dec@?$_Iosb@H@std@@2W4_Fmtflags@12@B DD 0200H		; std::_Iosb<int>::dec
CONST	ENDS
;	COMDAT ?internal@?$_Iosb@H@std@@2W4_Fmtflags@12@B
CONST	SEGMENT
?internal@?$_Iosb@H@std@@2W4_Fmtflags@12@B DD 0100H	; std::_Iosb<int>::internal
CONST	ENDS
;	COMDAT ?right@?$_Iosb@H@std@@2W4_Fmtflags@12@B
CONST	SEGMENT
?right@?$_Iosb@H@std@@2W4_Fmtflags@12@B DD 080H		; std::_Iosb<int>::right
CONST	ENDS
;	COMDAT ?left@?$_Iosb@H@std@@2W4_Fmtflags@12@B
CONST	SEGMENT
?left@?$_Iosb@H@std@@2W4_Fmtflags@12@B DD 040H		; std::_Iosb<int>::left
CONST	ENDS
;	COMDAT ?digits10@?$numeric_limits@K@std@@2HB
CONST	SEGMENT
?digits10@?$numeric_limits@K@std@@2HB DD 09H		; std::numeric_limits<unsigned long>::digits10
CONST	ENDS
;	COMDAT ?showpos@?$_Iosb@H@std@@2W4_Fmtflags@12@B
CONST	SEGMENT
?showpos@?$_Iosb@H@std@@2W4_Fmtflags@12@B DD 020H	; std::_Iosb<int>::showpos
CONST	ENDS
;	COMDAT ?digits@?$numeric_limits@K@std@@2HB
CONST	SEGMENT
?digits@?$numeric_limits@K@std@@2HB DD 020H		; std::numeric_limits<unsigned long>::digits
CONST	ENDS
;	COMDAT ?showpoint@?$_Iosb@H@std@@2W4_Fmtflags@12@B
CONST	SEGMENT
?showpoint@?$_Iosb@H@std@@2W4_Fmtflags@12@B DD 010H	; std::_Iosb<int>::showpoint
CONST	ENDS
;	COMDAT ?is_signed@?$numeric_limits@K@std@@2_NB
CONST	SEGMENT
?is_signed@?$numeric_limits@K@std@@2_NB DB 00H		; std::numeric_limits<unsigned long>::is_signed
CONST	ENDS
;	COMDAT ?showbase@?$_Iosb@H@std@@2W4_Fmtflags@12@B
CONST	SEGMENT
?showbase@?$_Iosb@H@std@@2W4_Fmtflags@12@B DD 08H	; std::_Iosb<int>::showbase
CONST	ENDS
;	COMDAT ?uppercase@?$_Iosb@H@std@@2W4_Fmtflags@12@B
CONST	SEGMENT
?uppercase@?$_Iosb@H@std@@2W4_Fmtflags@12@B DD 04H	; std::_Iosb<int>::uppercase
CONST	ENDS
;	COMDAT ?unitbuf@?$_Iosb@H@std@@2W4_Fmtflags@12@B
CONST	SEGMENT
?unitbuf@?$_Iosb@H@std@@2W4_Fmtflags@12@B DD 02H	; std::_Iosb<int>::unitbuf
CONST	ENDS
;	COMDAT ?skipws@?$_Iosb@H@std@@2W4_Fmtflags@12@B
CONST	SEGMENT
?skipws@?$_Iosb@H@std@@2W4_Fmtflags@12@B DD 01H		; std::_Iosb<int>::skipws
CONST	ENDS
;	COMDAT ?digits10@?$numeric_limits@J@std@@2HB
CONST	SEGMENT
?digits10@?$numeric_limits@J@std@@2HB DD 09H		; std::numeric_limits<long>::digits10
CONST	ENDS
;	COMDAT ?digits@?$numeric_limits@J@std@@2HB
CONST	SEGMENT
?digits@?$numeric_limits@J@std@@2HB DD 01fH		; std::numeric_limits<long>::digits
CONST	ENDS
;	COMDAT ?is_signed@?$numeric_limits@J@std@@2_NB
CONST	SEGMENT
?is_signed@?$numeric_limits@J@std@@2_NB DB 01H		; std::numeric_limits<long>::is_signed
CONST	ENDS
;	COMDAT ?digits10@?$numeric_limits@I@std@@2HB
CONST	SEGMENT
?digits10@?$numeric_limits@I@std@@2HB DD 09H		; std::numeric_limits<unsigned int>::digits10
CONST	ENDS
;	COMDAT ?digits@?$numeric_limits@I@std@@2HB
CONST	SEGMENT
?digits@?$numeric_limits@I@std@@2HB DD 020H		; std::numeric_limits<unsigned int>::digits
CONST	ENDS
;	COMDAT ?is_signed@?$numeric_limits@I@std@@2_NB
CONST	SEGMENT
?is_signed@?$numeric_limits@I@std@@2_NB DB 00H		; std::numeric_limits<unsigned int>::is_signed
CONST	ENDS
;	COMDAT ?digits10@?$numeric_limits@H@std@@2HB
CONST	SEGMENT
?digits10@?$numeric_limits@H@std@@2HB DD 09H		; std::numeric_limits<int>::digits10
CONST	ENDS
;	COMDAT ?digits@?$numeric_limits@H@std@@2HB
CONST	SEGMENT
?digits@?$numeric_limits@H@std@@2HB DD 01fH		; std::numeric_limits<int>::digits
CONST	ENDS
;	COMDAT ?value@?$_Sizeof@HU_Nil@std@@U12@U12@U12@U12@U12@U12@@std@@2IB
CONST	SEGMENT
?value@?$_Sizeof@HU_Nil@std@@U12@U12@U12@U12@U12@U12@@std@@2IB DD 01H ; std::_Sizeof<int,std::_Nil,std::_Nil,std::_Nil,std::_Nil,std::_Nil,std::_Nil,std::_Nil>::value
CONST	ENDS
;	COMDAT ?is_signed@?$numeric_limits@H@std@@2_NB
CONST	SEGMENT
?is_signed@?$numeric_limits@H@std@@2_NB DB 01H		; std::numeric_limits<int>::is_signed
CONST	ENDS
;	COMDAT ?digits10@?$numeric_limits@G@std@@2HB
CONST	SEGMENT
?digits10@?$numeric_limits@G@std@@2HB DD 04H		; std::numeric_limits<unsigned short>::digits10
CONST	ENDS
;	COMDAT ?digits@?$numeric_limits@G@std@@2HB
CONST	SEGMENT
?digits@?$numeric_limits@G@std@@2HB DD 010H		; std::numeric_limits<unsigned short>::digits
CONST	ENDS
;	COMDAT ?is_signed@?$numeric_limits@G@std@@2_NB
CONST	SEGMENT
?is_signed@?$numeric_limits@G@std@@2_NB DB 00H		; std::numeric_limits<unsigned short>::is_signed
CONST	ENDS
;	COMDAT ?digits10@?$numeric_limits@F@std@@2HB
CONST	SEGMENT
?digits10@?$numeric_limits@F@std@@2HB DD 04H		; std::numeric_limits<short>::digits10
CONST	ENDS
;	COMDAT ?digits@?$numeric_limits@F@std@@2HB
CONST	SEGMENT
?digits@?$numeric_limits@F@std@@2HB DD 0fH		; std::numeric_limits<short>::digits
CONST	ENDS
;	COMDAT ?is_signed@?$numeric_limits@F@std@@2_NB
CONST	SEGMENT
?is_signed@?$numeric_limits@F@std@@2_NB DB 01H		; std::numeric_limits<short>::is_signed
CONST	ENDS
;	COMDAT ?value@?$integral_constant@_N$00@std@@2_NB
CONST	SEGMENT
?value@?$integral_constant@_N$00@std@@2_NB DB 01H	; std::integral_constant<bool,1>::value
CONST	ENDS
;	COMDAT ?digits10@?$numeric_limits@E@std@@2HB
CONST	SEGMENT
?digits10@?$numeric_limits@E@std@@2HB DD 02H		; std::numeric_limits<unsigned char>::digits10
CONST	ENDS
;	COMDAT ?digits@?$numeric_limits@E@std@@2HB
CONST	SEGMENT
?digits@?$numeric_limits@E@std@@2HB DD 08H		; std::numeric_limits<unsigned char>::digits
CONST	ENDS
;	COMDAT ?value@?$integral_constant@_N$0A@@std@@2_NB
CONST	SEGMENT
?value@?$integral_constant@_N$0A@@std@@2_NB DB 00H	; std::integral_constant<bool,0>::value
CONST	ENDS
;	COMDAT ?is_signed@?$numeric_limits@E@std@@2_NB
CONST	SEGMENT
?is_signed@?$numeric_limits@E@std@@2_NB DB 00H		; std::numeric_limits<unsigned char>::is_signed
CONST	ENDS
;	COMDAT ?digits10@?$numeric_limits@C@std@@2HB
CONST	SEGMENT
?digits10@?$numeric_limits@C@std@@2HB DD 02H		; std::numeric_limits<signed char>::digits10
CONST	ENDS
;	COMDAT ?digits@?$numeric_limits@C@std@@2HB
CONST	SEGMENT
?digits@?$numeric_limits@C@std@@2HB DD 07H		; std::numeric_limits<signed char>::digits
CONST	ENDS
;	COMDAT ?is_signed@?$numeric_limits@C@std@@2_NB
CONST	SEGMENT
?is_signed@?$numeric_limits@C@std@@2_NB DB 01H		; std::numeric_limits<signed char>::is_signed
CONST	ENDS
;	COMDAT ?digits10@?$numeric_limits@_N@std@@2HB
CONST	SEGMENT
?digits10@?$numeric_limits@_N@std@@2HB DD 00H		; std::numeric_limits<bool>::digits10
CONST	ENDS
;	COMDAT ?digits@?$numeric_limits@_N@std@@2HB
CONST	SEGMENT
?digits@?$numeric_limits@_N@std@@2HB DD 01H		; std::numeric_limits<bool>::digits
CONST	ENDS
;	COMDAT ?is_signed@?$numeric_limits@_N@std@@2_NB
CONST	SEGMENT
?is_signed@?$numeric_limits@_N@std@@2_NB DB 00H		; std::numeric_limits<bool>::is_signed
CONST	ENDS
;	COMDAT ?is_modulo@?$numeric_limits@_N@std@@2_NB
CONST	SEGMENT
?is_modulo@?$numeric_limits@_N@std@@2_NB DB 00H		; std::numeric_limits<bool>::is_modulo
CONST	ENDS
;	COMDAT ?digits10@?$numeric_limits@_W@std@@2HB
CONST	SEGMENT
?digits10@?$numeric_limits@_W@std@@2HB DD 04H		; std::numeric_limits<wchar_t>::digits10
CONST	ENDS
;	COMDAT ?digits@?$numeric_limits@_W@std@@2HB
CONST	SEGMENT
?digits@?$numeric_limits@_W@std@@2HB DD 010H		; std::numeric_limits<wchar_t>::digits
CONST	ENDS
_DATA	SEGMENT
_matrix44_ident DD 03f800000r			; 1
	DD	000000000r			; 0
	DD	000000000r			; 0
	DD	000000000r			; 0
	DD	000000000r			; 0
	DD	03f800000r			; 1
	DD	000000000r			; 0
	DD	000000000r			; 0
	DD	000000000r			; 0
	DD	000000000r			; 0
	DD	03f800000r			; 1
	DD	000000000r			; 0
	DD	000000000r			; 0
	DD	000000000r			; 0
	DD	000000000r			; 0
	DD	03f800000r			; 1
_cloudPntList DD 0c5bcc000r			; -6040
	DD	0c4070000r			; -540
	DD	0c694ac00r			; -19030
	DD	0c6de1c00r			; -28430
	DD	0c4dfc000r			; -1790
	DD	046dcc800r			; 28260
	DD	047104200r			; 36930
	DD	045732000r			; 3890
	DD	04744ea00r			; 50410
	DD	045336000r			; 2870
	DD	0c4d48000r			; -1700
	DD	04736da00r			; 46810
	DD	0c763ee00r			; -58350
	DD	0c4d48000r			; -1700
	DD	0c64c1000r			; -13060
	DD	046f2bc00r			; 31070
	DD	045480000r			; 3200
	DD	0c7293800r			; -43320
	DD	0c7bdc400r			; -97160
	DD	0c4d48000r			; -1700
	DD	04576e000r			; 3950
	DD	0c792e000r			; -75200
	DD	0c4bb8000r			; -1500
	DD	047957400r			; 76520
	DD	04759ee00r			; 55790
	DD	0c5a1e000r			; -5180
	DD	0c7a24e00r			; -83100
	DD	0c7473800r			; -51000
	DD	0c3a00000r			; -320
	DD	0c7829100r			; -66850
	DD	047733400r			; 62260
	DD	0c3a00000r			; -320
	DD	047708200r			; 61570
	DD	0c7710e00r			; -61710
	DD	0c550c000r			; -3340
	DD	046fb7c00r			; 32190
	DD	0c7719a00r			; -61850
	DD	0c7483200r			; -51250
	DD	047543a00r			; 54330
	DD	0c5bcc000r			; -6040
	DD	0c7495400r			; -51540
	DD	0c694ac00r			; -19030
	DD	0c6a7a800r			; -21460
	DD	0c74b0200r			; -51970
	DD	0468e8000r			; 18240
	DD	047298800r			; 43400
	DD	0c74bf200r			; -52210
	DD	046bc7000r			; 24120
	DD	0c749f400r			; -51700
	DD	0c74bc000r			; -52160
	DD	046948400r			; 19010
	DD	0c605e800r			; -8570
	DD	0c7488200r			; -51330
	DD	0c74ca600r			; -52390
	DD	04731bc00r			; 45500
	DD	0c7509800r			; -53400
	DD	0c6725800r			; -15510
	DD	0c7719a00r			; -61850
	DD	0c7483200r			; -51250
	DD	047543a00r			; 54330
	DD	047553400r			; 54580
	DD	0c74ddc00r			; -52700
	DD	0479a5600r			; 79020
	DD	047a7e400r			; 85960
	DD	0c74c5600r			; -52310
	DD	0477d4800r			; 64840
	DD	0c7c44500r			; -100490
	DD	0c74d1400r			; -52500
	DD	047ac2600r			; 88140
	DD	0c7a1ae00r			; -82780
	DD	0c749ea00r			; -51690
	DD	0c7bce300r			; -96710
	DD	0c6126800r			; -9370
	DD	0c7495400r			; -51540
	DD	043cd0000r			; 410
	DD	0c6a7a800r			; -21460
	DD	0c74a8a00r			; -51850
	DD	0473fae00r			; 49070
	DD	0457c8000r			; 4040
	DD	0c74e4a00r			; -52810
	DD	047871e00r			; 69180
	DD	0c6cbc000r			; -26080
	DD	0c74bc000r			; -52160
	DD	046984400r			; 19490
	DD	0452fa000r			; 2810
	DD	0c7488200r			; -51330
	DD	0c7081800r			; -34840
	DD	0c7719a00r			; -61850
	DD	0c749d600r			; -51670
	DD	047b17600r			; 90860
	DD	047553400r			; 54580
	DD	0c74ddc00r			; -52700
	DD	0479a5600r			; 79020
	DD	047a7e400r			; 85960
	DD	0c74c5600r			; -52310
	DD	0477d4800r			; 64840
	DD	0c7c44500r			; -100490
	DD	0c74d1400r			; -52500
	DD	047ac2600r			; 88140
	DD	047c04e00r			; 98460
	DD	0c74d1400r			; -52500
	DD	0c732a200r			; -45730
	DD	0467b9000r			; 16100
	DD	0c7487800r			; -51320
	DD	0c749a400r			; -51620
	DD	047636c00r			; 58220
	DD	0c74e0400r			; -52740
	DD	0c760b000r			; -57520
	DD	0c6126800r			; -9370
	DD	0c4070000r			; -540
	DD	043cd0000r			; 410
	DD	0c4e60000r			; -1840
	DD	0c6a30c00r			; -20870
	DD	0470a6600r			; 35430
	DD	0c7230c00r			; -41740
	DD	046924000r			; 18720
	DD	04797d600r			; 77740
	DD	0460d9000r			; 9060
	DD	0c616c800r			; -9650
	DD	0c7921300r			; -74790
_lightningPosList DD 041300000r			; 11
	DD	000000000r			; 0
	DD	040e00000r			; 7
	DD	040a00000r			; 5
	DD	041100000r			; 9
	DD	041000000r			; 8
	DD	041000000r			; 8
	DD	041600000r			; 14
	DD	041800000r			; 16
	DD	041a00000r			; 20
	DD	041200000r			; 10
	DD	041c00000r			; 24
	DD	041300000r			; 11
	DD	041d80000r			; 27
	DD	040c00000r			; 6
	DD	041f00000r			; 30
	DD	040e00000r			; 7
	DD	042040000r			; 33
	DD	03f800000r			; 1
	DD	042180000r			; 38
	DD	040a00000r			; 5
	DD	042280000r			; 42
	DD	040a00000r			; 5
	DD	042340000r			; 45
	DD	041400000r			; 12
	DD	042400000r			; 48
	DD	041a00000r			; 20
	DD	042500000r			; 52
	DD	041a00000r			; 20
	DD	042680000r			; 58
	DD	041b80000r			; 23
	DD	042740000r			; 61
	DD	041b00000r			; 22
	DD	0427c0000r			; 63
	DD	041b00000r			; 22
	DD	042840000r			; 66
	DD	041c80000r			; 25
	DD	042880000r			; 68
	DD	041a00000r			; 20
	DD	0428c0000r			; 70
	DD	041c00000r			; 24
	DD	042960000r			; 75
	DD	041c00000r			; 24
	DD	0429a0000r			; 77
	DD	041f80000r			; 31
	DD	042a00000r			; 80
	DD	041f80000r			; 31
	DD	042a60000r			; 83
	DD	042040000r			; 33
	DD	042b00000r			; 88
	DD	041f80000r			; 31
	DD	042b80000r			; 92
	DD	0423c0000r			; 47
	DD	042ce0000r			; 103
	DD	042380000r			; 46
	DD	042d20000r			; 105
	DD	0423c0000r			; 47
	DD	042d60000r			; 107
	DD	042340000r			; 45
	DD	042e00000r			; 112
	DD	042400000r			; 48
	DD	042e40000r			; 114
	DD	042380000r			; 46
	DD	042ea0000r			; 117
	DD	0422c0000r			; 43
	DD	043000000r			; 128
_matrix33_ident DD 03f800000r			; 1
	DD	000000000r			; 0
	DD	000000000r			; 0
	DD	000000000r			; 0
	DD	03f800000r			; 1
	DD	000000000r			; 0
	DD	000000000r			; 0
	DD	000000000r			; 0
	DD	03f800000r			; 1
_DATA	ENDS
;	COMDAT ?is_signed@?$numeric_limits@_W@std@@2_NB
CONST	SEGMENT
?is_signed@?$numeric_limits@_W@std@@2_NB DB 00H		; std::numeric_limits<wchar_t>::is_signed
CONST	ENDS
;	COMDAT ?digits10@?$numeric_limits@D@std@@2HB
CONST	SEGMENT
?digits10@?$numeric_limits@D@std@@2HB DD 02H		; std::numeric_limits<char>::digits10
CONST	ENDS
;	COMDAT ?digits@?$numeric_limits@D@std@@2HB
CONST	SEGMENT
?digits@?$numeric_limits@D@std@@2HB DD 07H		; std::numeric_limits<char>::digits
CONST	ENDS
;	COMDAT ?is_signed@?$numeric_limits@D@std@@2_NB
CONST	SEGMENT
?is_signed@?$numeric_limits@D@std@@2_NB DB 01H		; std::numeric_limits<char>::is_signed
CONST	ENDS
;	COMDAT ?radix@_Num_float_base@std@@2HB
CONST	SEGMENT
?radix@_Num_float_base@std@@2HB DD 02H			; std::_Num_float_base::radix
CONST	ENDS
;	COMDAT ?round_style@_Num_float_base@std@@2W4float_round_style@2@B
CONST	SEGMENT
?round_style@_Num_float_base@std@@2W4float_round_style@2@B DD 01H ; std::_Num_float_base::round_style
CONST	ENDS
;	COMDAT ?traps@_Num_float_base@std@@2_NB
CONST	SEGMENT
?traps@_Num_float_base@std@@2_NB DB 00H			; std::_Num_float_base::traps
CONST	ENDS
;	COMDAT ?tinyness_before@_Num_float_base@std@@2_NB
CONST	SEGMENT
?tinyness_before@_Num_float_base@std@@2_NB DB 01H	; std::_Num_float_base::tinyness_before
CONST	ENDS
;	COMDAT ?is_specialized@_Num_float_base@std@@2_NB
CONST	SEGMENT
?is_specialized@_Num_float_base@std@@2_NB DB 01H	; std::_Num_float_base::is_specialized
CONST	ENDS
;	COMDAT ?is_signed@_Num_float_base@std@@2_NB
CONST	SEGMENT
?is_signed@_Num_float_base@std@@2_NB DB 01H		; std::_Num_float_base::is_signed
CONST	ENDS
;	COMDAT ?is_modulo@_Num_float_base@std@@2_NB
CONST	SEGMENT
?is_modulo@_Num_float_base@std@@2_NB DB 00H		; std::_Num_float_base::is_modulo
CONST	ENDS
;	COMDAT ?is_integer@_Num_float_base@std@@2_NB
CONST	SEGMENT
?is_integer@_Num_float_base@std@@2_NB DB 00H		; std::_Num_float_base::is_integer
CONST	ENDS
;	COMDAT ?is_iec559@_Num_float_base@std@@2_NB
CONST	SEGMENT
?is_iec559@_Num_float_base@std@@2_NB DB 01H		; std::_Num_float_base::is_iec559
CONST	ENDS
;	COMDAT ?is_exact@_Num_float_base@std@@2_NB
CONST	SEGMENT
?is_exact@_Num_float_base@std@@2_NB DB 00H		; std::_Num_float_base::is_exact
CONST	ENDS
;	COMDAT ?is_bounded@_Num_float_base@std@@2_NB
CONST	SEGMENT
?is_bounded@_Num_float_base@std@@2_NB DB 01H		; std::_Num_float_base::is_bounded
CONST	ENDS
;	COMDAT ?has_signaling_NaN@_Num_float_base@std@@2_NB
CONST	SEGMENT
?has_signaling_NaN@_Num_float_base@std@@2_NB DB 01H	; std::_Num_float_base::has_signaling_NaN
CONST	ENDS
;	COMDAT ?has_quiet_NaN@_Num_float_base@std@@2_NB
CONST	SEGMENT
?has_quiet_NaN@_Num_float_base@std@@2_NB DB 01H		; std::_Num_float_base::has_quiet_NaN
CONST	ENDS
;	COMDAT ?has_infinity@_Num_float_base@std@@2_NB
CONST	SEGMENT
?has_infinity@_Num_float_base@std@@2_NB DB 01H		; std::_Num_float_base::has_infinity
CONST	ENDS
;	COMDAT ?CMPDIRTYDATA_INTERVAL@FalconEntity@@2KB
CONST	SEGMENT
?CMPDIRTYDATA_INTERVAL@FalconEntity@@2KB DD 0c8H	; FalconEntity::CMPDIRTYDATA_INTERVAL
CONST	ENDS
;	COMDAT ?SIMDIRTYDATA_INTERVAL@FalconEntity@@2KB
CONST	SEGMENT
?SIMDIRTYDATA_INTERVAL@FalconEntity@@2KB DD 0c8H	; FalconEntity::SIMDIRTYDATA_INTERVAL
CONST	ENDS
;	COMDAT ?has_denorm_loss@_Num_float_base@std@@2_NB
CONST	SEGMENT
?has_denorm_loss@_Num_float_base@std@@2_NB DB 01H	; std::_Num_float_base::has_denorm_loss
CONST	ENDS
;	COMDAT ?has_denorm@_Num_float_base@std@@2W4float_denorm_style@2@B
CONST	SEGMENT
?has_denorm@_Num_float_base@std@@2W4float_denorm_style@2@B DD 01H ; std::_Num_float_base::has_denorm
CONST	ENDS
;	COMDAT ?radix@_Num_int_base@std@@2HB
CONST	SEGMENT
?radix@_Num_int_base@std@@2HB DD 02H			; std::_Num_int_base::radix
CONST	ENDS
;	COMDAT ?is_specialized@_Num_int_base@std@@2_NB
CONST	SEGMENT
?is_specialized@_Num_int_base@std@@2_NB DB 01H		; std::_Num_int_base::is_specialized
CONST	ENDS
;	COMDAT ?is_modulo@_Num_int_base@std@@2_NB
CONST	SEGMENT
?is_modulo@_Num_int_base@std@@2_NB DB 01H		; std::_Num_int_base::is_modulo
CONST	ENDS
;	COMDAT ?is_integer@_Num_int_base@std@@2_NB
CONST	SEGMENT
?is_integer@_Num_int_base@std@@2_NB DB 01H		; std::_Num_int_base::is_integer
CONST	ENDS
;	COMDAT ?is_exact@_Num_int_base@std@@2_NB
CONST	SEGMENT
?is_exact@_Num_int_base@std@@2_NB DB 01H		; std::_Num_int_base::is_exact
CONST	ENDS
;	COMDAT ?is_bounded@_Num_int_base@std@@2_NB
CONST	SEGMENT
?is_bounded@_Num_int_base@std@@2_NB DB 01H		; std::_Num_int_base::is_bounded
CONST	ENDS
;	COMDAT ?table_size@?$ctype@D@std@@2IB
CONST	SEGMENT
?table_size@?$ctype@D@std@@2IB DD 0100H			; std::ctype<char>::table_size
CONST	ENDS
;	COMDAT ?radix@_Num_base@std@@2HB
CONST	SEGMENT
?radix@_Num_base@std@@2HB DD 00H			; std::_Num_base::radix
CONST	ENDS
;	COMDAT ?min_exponent10@_Num_base@std@@2HB
CONST	SEGMENT
?min_exponent10@_Num_base@std@@2HB DD 00H		; std::_Num_base::min_exponent10
CONST	ENDS
;	COMDAT ?min_exponent@_Num_base@std@@2HB
CONST	SEGMENT
?min_exponent@_Num_base@std@@2HB DD 00H			; std::_Num_base::min_exponent
CONST	ENDS
;	COMDAT ?max_exponent10@_Num_base@std@@2HB
CONST	SEGMENT
?max_exponent10@_Num_base@std@@2HB DD 00H		; std::_Num_base::max_exponent10
CONST	ENDS
;	COMDAT ?max_exponent@_Num_base@std@@2HB
CONST	SEGMENT
?max_exponent@_Num_base@std@@2HB DD 00H			; std::_Num_base::max_exponent
CONST	ENDS
CONST	SEGMENT
_NEAR_CLIP DD	03f800000r			; 1
_L_2	DD	03f317218r			; 0.693147
CONST	ENDS
;	COMDAT ?max_digits10@_Num_base@std@@2HB
CONST	SEGMENT
?max_digits10@_Num_base@std@@2HB DD 00H			; std::_Num_base::max_digits10
CONST	ENDS
;	COMDAT ?digits10@_Num_base@std@@2HB
CONST	SEGMENT
?digits10@_Num_base@std@@2HB DD 00H			; std::_Num_base::digits10
CONST	ENDS
;	COMDAT ?digits@_Num_base@std@@2HB
CONST	SEGMENT
?digits@_Num_base@std@@2HB DD 00H			; std::_Num_base::digits
CONST	ENDS
;	COMDAT ?round_style@_Num_base@std@@2W4float_round_style@2@B
CONST	SEGMENT
?round_style@_Num_base@std@@2W4float_round_style@2@B DD 00H ; std::_Num_base::round_style
CONST	ENDS
;	COMDAT ?traps@_Num_base@std@@2_NB
CONST	SEGMENT
?traps@_Num_base@std@@2_NB DB 00H			; std::_Num_base::traps
CONST	ENDS
PUBLIC	_fabsf
PUBLIC	_acosf
PUBLIC	_atanf
PUBLIC	?acos@@YAMM@Z					; acos
PUBLIC	?atan@@YAMM@Z					; atan
PUBLIC	?fabs@@YAMM@Z					; fabs
PUBLIC	?XPos@VuEntity@@QBEMXZ				; VuEntity::XPos
PUBLIC	?YPos@VuEntity@@QBEMXZ				; VuEntity::YPos
PUBLIC	?ZPos@VuEntity@@QBEMXZ				; VuEntity::ZPos
PUBLIC	?XDelta@VuEntity@@QBEMXZ			; VuEntity::XDelta
PUBLIC	?YDelta@VuEntity@@QBEMXZ			; VuEntity::YDelta
PUBLIC	?ZDelta@VuEntity@@QBEMXZ			; VuEntity::ZDelta
PUBLIC	?Yaw@VuEntity@@QBEMXZ				; VuEntity::Yaw
PUBLIC	?Pitch@VuEntity@@QBEMXZ				; VuEntity::Pitch
PUBLIC	??2@YAPAXIPAX@Z					; operator new
PUBLIC	??3@YAXPAX0@Z					; operator delete
PUBLIC	?length@?$char_traits@D@std@@SAIPBD@Z		; std::char_traits<char>::length
PUBLIC	?copy@?$char_traits@D@std@@SAPADPADPBDI@Z	; std::char_traits<char>::copy
PUBLIC	?move@?$char_traits@D@std@@SAPADPADPBDI@Z	; std::char_traits<char>::move
PUBLIC	?assign@?$char_traits@D@std@@SAXAADABD@Z	; std::char_traits<char>::assign
PUBLIC	??0?$allocator@D@std@@QAE@XZ			; std::allocator<char>::allocator<char>
PUBLIC	?deallocate@?$allocator@D@std@@QAEXPADI@Z	; std::allocator<char>::deallocate
PUBLIC	?allocate@?$allocator@D@std@@QAEPADI@Z		; std::allocator<char>::allocate
PUBLIC	?max_size@?$allocator@D@std@@QBEIXZ		; std::allocator<char>::max_size
PUBLIC	?max_size@?$allocator_traits@V?$allocator@D@std@@@std@@SAIABV?$allocator@D@2@@Z ; std::allocator_traits<std::allocator<char> >::max_size
PUBLIC	??0?$_Wrap_alloc@V?$allocator@D@std@@@std@@QAE@XZ ; std::_Wrap_alloc<std::allocator<char> >::_Wrap_alloc<std::allocator<char> >
PUBLIC	?allocate@?$_Wrap_alloc@V?$allocator@D@std@@@std@@QAEPADI@Z ; std::_Wrap_alloc<std::allocator<char> >::allocate
PUBLIC	?deallocate@?$_Wrap_alloc@V?$allocator@D@std@@@std@@QAEXPADI@Z ; std::_Wrap_alloc<std::allocator<char> >::deallocate
PUBLIC	?max_size@?$_Wrap_alloc@V?$allocator@D@std@@@std@@QBEIXZ ; std::_Wrap_alloc<std::allocator<char> >::max_size
PUBLIC	??0?$_String_val@U?$_Simple_types@D@std@@@std@@QAE@XZ ; std::_String_val<std::_Simple_types<char> >::_String_val<std::_Simple_types<char> >
PUBLIC	?_Myptr@?$_String_val@U?$_Simple_types@D@std@@@std@@QAEPADXZ ; std::_String_val<std::_Simple_types<char> >::_Myptr
PUBLIC	?_Myptr@?$_String_val@U?$_Simple_types@D@std@@@std@@QBEPBDXZ ; std::_String_val<std::_Simple_types<char> >::_Myptr
PUBLIC	??0?$_String_alloc@$0A@U?$_String_base_types@DV?$allocator@D@std@@@std@@@std@@QAE@ABV?$allocator@D@1@@Z ; std::_String_alloc<0,std::_String_base_types<char,std::allocator<char> > >::_String_alloc<0,std::_String_base_types<char,std::allocator<char> > >
PUBLIC	?_Getal@?$_String_alloc@$0A@U?$_String_base_types@DV?$allocator@D@std@@@std@@@std@@QBE?AU?$_Wrap_alloc@V?$allocator@D@std@@@2@XZ ; std::_String_alloc<0,std::_String_base_types<char,std::allocator<char> > >::_Getal
PUBLIC	??0?$basic_string@DU?$char_traits@D@std@@V?$allocator@D@2@@std@@QAE@PBD@Z ; std::basic_string<char,std::char_traits<char>,std::allocator<char> >::basic_string<char,std::char_traits<char>,std::allocator<char> >
PUBLIC	?assign@?$basic_string@DU?$char_traits@D@std@@V?$allocator@D@2@@std@@QAEAAV12@ABV12@II@Z ; std::basic_string<char,std::char_traits<char>,std::allocator<char> >::assign
PUBLIC	?assign@?$basic_string@DU?$char_traits@D@std@@V?$allocator@D@2@@std@@QAEAAV12@PBDI@Z ; std::basic_string<char,std::char_traits<char>,std::allocator<char> >::assign
PUBLIC	?assign@?$basic_string@DU?$char_traits@D@std@@V?$allocator@D@2@@std@@QAEAAV12@PBD@Z ; std::basic_string<char,std::char_traits<char>,std::allocator<char> >::assign
PUBLIC	?erase@?$basic_string@DU?$char_traits@D@std@@V?$allocator@D@2@@std@@QAEAAV12@I@Z ; std::basic_string<char,std::char_traits<char>,std::allocator<char> >::erase
PUBLIC	?erase@?$basic_string@DU?$char_traits@D@std@@V?$allocator@D@2@@std@@QAEAAV12@II@Z ; std::basic_string<char,std::char_traits<char>,std::allocator<char> >::erase
PUBLIC	?size@?$basic_string@DU?$char_traits@D@std@@V?$allocator@D@2@@std@@QBEIXZ ; std::basic_string<char,std::char_traits<char>,std::allocator<char> >::size
PUBLIC	?max_size@?$basic_string@DU?$char_traits@D@std@@V?$allocator@D@2@@std@@QBEIXZ ; std::basic_string<char,std::char_traits<char>,std::allocator<char> >::max_size
PUBLIC	?_Copy@?$basic_string@DU?$char_traits@D@std@@V?$allocator@D@2@@std@@QAEXII@Z ; std::basic_string<char,std::char_traits<char>,std::allocator<char> >::_Copy
PUBLIC	?_Eos@?$basic_string@DU?$char_traits@D@std@@V?$allocator@D@2@@std@@QAEXI@Z ; std::basic_string<char,std::char_traits<char>,std::allocator<char> >::_Eos
PUBLIC	?_Grow@?$basic_string@DU?$char_traits@D@std@@V?$allocator@D@2@@std@@QAE_NI_N@Z ; std::basic_string<char,std::char_traits<char>,std::allocator<char> >::_Grow
PUBLIC	?_Inside@?$basic_string@DU?$char_traits@D@std@@V?$allocator@D@2@@std@@QAE_NPBD@Z ; std::basic_string<char,std::char_traits<char>,std::allocator<char> >::_Inside
PUBLIC	?_Tidy@?$basic_string@DU?$char_traits@D@std@@V?$allocator@D@2@@std@@QAEX_NI@Z ; std::basic_string<char,std::char_traits<char>,std::allocator<char> >::_Tidy
PUBLIC	?_Xlen@?$basic_string@DU?$char_traits@D@std@@V?$allocator@D@2@@std@@QBEXXZ ; std::basic_string<char,std::char_traits<char>,std::allocator<char> >::_Xlen
PUBLIC	?_Xran@?$basic_string@DU?$char_traits@D@std@@V?$allocator@D@2@@std@@QBEXXZ ; std::basic_string<char,std::char_traits<char>,std::allocator<char> >::_Xran
PUBLIC	?IsSim@FalconEntity@@QAEHXZ			; FalconEntity::IsSim
PUBLIC	?mlSinCos@@YAXPAUmlTrig@@M@Z			; mlSinCos
PUBLIC	?checked_atan2@@YANNN@Z				; checked_atan2
PUBLIC	?get@?$VuBin@VFalconEntity@@@@QBEPAVFalconEntity@@XZ ; VuBin<FalconEntity>::get
PUBLIC	??7?$VuBin@VSimWeaponClass@@@@QBE_NXZ		; VuBin<SimWeaponClass>::operator!
PUBLIC	??B?$VuBin@VSimWeaponClass@@@@QBE_NXZ		; VuBin<SimWeaponClass>::operator bool
PUBLIC	??C?$VuBin@VSimWeaponClass@@@@QBEPAVSimWeaponClass@@XZ ; VuBin<SimWeaponClass>::operator->
PUBLIC	?GunsEngage@HeliBrain@@QAEXXZ			; HeliBrain::GunsEngage
PUBLIC	?GunsAutoTrack@HeliBrain@@QAEMMMMPAMM@Z		; HeliBrain::GunsAutoTrack
PUBLIC	?FineGunsTrack@HeliBrain@@QAEXMPAM@Z		; HeliBrain::FineGunsTrack
PUBLIC	?CoarseGunsTrack@HeliBrain@@QAEXMMPAM@Z		; HeliBrain::CoarseGunsTrack
PUBLIC	?WeaponSelection@HeliBrain@@QAEXXZ		; HeliBrain::WeaponSelection
PUBLIC	?FireControl@HeliBrain@@QAEXXZ			; HeliBrain::FireControl
PUBLIC	?GunsEngageCheck@HeliBrain@@QAEXXZ		; HeliBrain::GunsEngageCheck
PUBLIC	?SetFlag@HeliBrain@@QAEXH@Z			; HeliBrain::SetFlag
PUBLIC	?ClearFlag@HeliBrain@@QAEXH@Z			; HeliBrain::ClearFlag
PUBLIC	?BaseData@SimObjectType@@QAEPAVFalconEntity@@XZ	; SimObjectType::BaseData
PUBLIC	??0id@locale@std@@QAE@I@Z			; std::locale::id::id
PUBLIC	?generic_category@std@@YAABVerror_category@1@XZ	; std::generic_category
PUBLIC	?system_category@std@@YAABVerror_category@1@XZ	; std::system_category
PUBLIC	??0error_category@std@@QAE@XZ			; std::error_category::error_category
PUBLIC	??1error_category@std@@UAE@XZ			; std::error_category::~error_category
PUBLIC	?default_error_condition@error_category@std@@UBE?AVerror_condition@2@H@Z ; std::error_category::default_error_condition
PUBLIC	?equivalent@error_category@std@@UBE_NHABVerror_condition@2@@Z ; std::error_category::equivalent
PUBLIC	?equivalent@error_category@std@@UBE_NABVerror_code@2@H@Z ; std::error_category::equivalent
PUBLIC	??8error_category@std@@QBE_NABV01@@Z		; std::error_category::operator==
PUBLIC	??_Gerror_category@std@@UAEPAXI@Z		; std::error_category::`scalar deleting destructor'
PUBLIC	?value@error_code@std@@QBEHXZ			; std::error_code::value
PUBLIC	?category@error_code@std@@QBEABVerror_category@2@XZ ; std::error_code::category
PUBLIC	??0error_condition@std@@QAE@HABVerror_category@1@@Z ; std::error_condition::error_condition
PUBLIC	?value@error_condition@std@@QBEHXZ		; std::error_condition::value
PUBLIC	?category@error_condition@std@@QBEABVerror_category@2@XZ ; std::error_condition::category
PUBLIC	??8error_condition@std@@QBE_NABV01@@Z		; std::error_condition::operator==
PUBLIC	??0_Generic_error_category@std@@QAE@XZ		; std::_Generic_error_category::_Generic_error_category
PUBLIC	?name@_Generic_error_category@std@@UBEPBDXZ	; std::_Generic_error_category::name
PUBLIC	?message@_Generic_error_category@std@@UBE?AV?$basic_string@DU?$char_traits@D@std@@V?$allocator@D@2@@2@H@Z ; std::_Generic_error_category::message
PUBLIC	??1_Generic_error_category@std@@UAE@XZ		; std::_Generic_error_category::~_Generic_error_category
PUBLIC	??_G_Generic_error_category@std@@UAEPAXI@Z	; std::_Generic_error_category::`scalar deleting destructor'
PUBLIC	??0_Iostream_error_category@std@@QAE@XZ		; std::_Iostream_error_category::_Iostream_error_category
PUBLIC	?name@_Iostream_error_category@std@@UBEPBDXZ	; std::_Iostream_error_category::name
PUBLIC	?message@_Iostream_error_category@std@@UBE?AV?$basic_string@DU?$char_traits@D@std@@V?$allocator@D@2@@2@H@Z ; std::_Iostream_error_category::message
PUBLIC	??1_Iostream_error_category@std@@UAE@XZ		; std::_Iostream_error_category::~_Iostream_error_category
PUBLIC	??_G_Iostream_error_category@std@@UAEPAXI@Z	; std::_Iostream_error_category::`scalar deleting destructor'
PUBLIC	??0_System_error_category@std@@QAE@XZ		; std::_System_error_category::_System_error_category
PUBLIC	?name@_System_error_category@std@@UBEPBDXZ	; std::_System_error_category::name
PUBLIC	?message@_System_error_category@std@@UBE?AV?$basic_string@DU?$char_traits@D@std@@V?$allocator@D@2@@2@H@Z ; std::_System_error_category::message
PUBLIC	?default_error_condition@_System_error_category@std@@UBE?AVerror_condition@2@H@Z ; std::_System_error_category::default_error_condition
PUBLIC	??1_System_error_category@std@@UAE@XZ		; std::_System_error_category::~_System_error_category
PUBLIC	??_G_System_error_category@std@@UAEPAXI@Z	; std::_System_error_category::`scalar deleting destructor'
PUBLIC	?GetPosition@DrawableObject@@QAEXPAUTpoint@@@Z	; DrawableObject::GetPosition
PUBLIC	?GetMasterMode@FireControlComputer@@QAE?AW4FCCMasterMode@1@XZ ; FireControlComputer::GetMasterMode
PUBLIC	?GetCurrentWeaponHardpoint@SMSBaseClass@@QAEHXZ	; SMSBaseClass::GetCurrentWeaponHardpoint
PUBLIC	?NumHardpoints@SMSBaseClass@@QAEHXZ		; SMSBaseClass::NumHardpoints
PUBLIC	?CurHardpoint@SMSBaseClass@@QAEHXZ		; SMSBaseClass::CurHardpoint
PUBLIC	?SetMasterArm@SMSBaseClass@@QAEXW4MasterArmState@1@@Z ; SMSBaseClass::SetMasterArm
PUBLIC	?GenerateFastRandom@@YAJXZ			; GenerateFastRandom
PUBLIC	?PRANDFloat@@YAMXZ				; PRANDFloat
PUBLIC	??$construct@PADAAPAD@?$_Wrap_alloc@V?$allocator@D@std@@@std@@QAEXPAPADAAPAD@Z ; std::_Wrap_alloc<std::allocator<char> >::construct<char *,char * &>
PUBLIC	??$destroy@PAD@?$_Wrap_alloc@V?$allocator@D@std@@@std@@QAEXPAPAD@Z ; std::_Wrap_alloc<std::allocator<char> >::destroy<char *>
PUBLIC	??$addressof@D@std@@YAPADAAD@Z			; std::addressof<char>
PUBLIC	??$_Allocate@D@std@@YAPADIPAD@Z			; std::_Allocate<char>
PUBLIC	??$forward@AAPAD@std@@YAAAPADAAPAD@Z		; std::forward<char * &>
PUBLIC	??$construct@PADAAPAD@?$allocator_traits@V?$allocator@D@std@@@std@@SAXAAV?$allocator@D@1@PAPADAAPAD@Z ; std::allocator_traits<std::allocator<char> >::construct<char *,char * &>
PUBLIC	??$destroy@PAD@?$allocator_traits@V?$allocator@D@std@@@std@@SAXAAV?$allocator@D@1@PAPAD@Z ; std::allocator_traits<std::allocator<char> >::destroy<char *>
PUBLIC	??$construct@PADAAPAD@?$allocator@D@std@@QAEXPAPADAAPAD@Z ; std::allocator<char>::construct<char *,char * &>
PUBLIC	??$destroy@PAD@?$allocator@D@std@@QAEXPAPAD@Z	; std::allocator<char>::destroy<char *>
PUBLIC	??_7error_category@std@@6B@			; std::error_category::`vftable'
PUBLIC	??_7_Generic_error_category@std@@6B@		; std::_Generic_error_category::`vftable'
PUBLIC	??_C@_07DCLBNMLN@generic?$AA@			; `string'
PUBLIC	??_C@_0O@BFJCFAAK@unknown?5error?$AA@		; `string'
PUBLIC	??_7_Iostream_error_category@std@@6B@		; std::_Iostream_error_category::`vftable'
PUBLIC	??_C@_08LLGCOLLL@iostream?$AA@			; `string'
PUBLIC	??_C@_0BG@PADBLCHM@iostream?5stream?5error?$AA@	; `string'
PUBLIC	??_7_System_error_category@std@@6B@		; std::_System_error_category::`vftable'
PUBLIC	??_C@_06FHFOAHML@system?$AA@			; `string'
PUBLIC	?_Generic_object@?$_Error_objects@H@std@@2V_Generic_error_category@2@A ; std::_Error_objects<int>::_Generic_object
PUBLIC	?_Iostream_object@?$_Error_objects@H@std@@2V_Iostream_error_category@2@A ; std::_Error_objects<int>::_Iostream_object
PUBLIC	?_System_object@?$_Error_objects@H@std@@2V_System_error_category@2@A ; std::_Error_objects<int>::_System_object
PUBLIC	?id@?$num_put@DV?$back_insert_iterator@V?$basic_string@DU?$char_traits@D@std@@V?$allocator@D@2@@std@@@std@@@std@@2V0locale@2@A ; std::num_put<char,std::back_insert_iterator<std::basic_string<char,std::char_traits<char>,std::allocator<char> > > >::id
PUBLIC	?id@?$num_put@_WV?$back_insert_iterator@V?$basic_string@_WU?$char_traits@_W@std@@V?$allocator@_W@2@@std@@@std@@@std@@2V0locale@2@A ; std::num_put<wchar_t,std::back_insert_iterator<std::basic_string<wchar_t,std::char_traits<wchar_t>,std::allocator<wchar_t> > > >::id
PUBLIC	?LastRandom@?1??GenerateFastRandom@@YAJXZ@4JA	; `GenerateFastRandom'::`2'::LastRandom
PUBLIC	?id@?$numpunct@D@std@@2V0locale@2@A		; std::numpunct<char>::id
PUBLIC	?id@?$numpunct@_W@std@@2V0locale@2@A		; std::numpunct<wchar_t>::id
PUBLIC	??_C@_0BI@CFPLBAOH@invalid?5string?5position?$AA@ ; `string'
PUBLIC	??_C@_0BA@JFNIOLAK@string?5too?5long?$AA@	; `string'
PUBLIC	??_R4error_category@std@@6B@			; std::error_category::`RTTI Complete Object Locator'
PUBLIC	??_R0?AVerror_category@std@@@8			; std::error_category `RTTI Type Descriptor'
PUBLIC	??_R3error_category@std@@8			; std::error_category::`RTTI Class Hierarchy Descriptor'
PUBLIC	??_R2error_category@std@@8			; std::error_category::`RTTI Base Class Array'
PUBLIC	??_R1A@?0A@EA@error_category@std@@8		; std::error_category::`RTTI Base Class Descriptor at (0,-1,0,64)'
PUBLIC	??_R4_Generic_error_category@std@@6B@		; std::_Generic_error_category::`RTTI Complete Object Locator'
PUBLIC	??_R0?AV_Generic_error_category@std@@@8		; std::_Generic_error_category `RTTI Type Descriptor'
PUBLIC	??_R3_Generic_error_category@std@@8		; std::_Generic_error_category::`RTTI Class Hierarchy Descriptor'
PUBLIC	??_R2_Generic_error_category@std@@8		; std::_Generic_error_category::`RTTI Base Class Array'
PUBLIC	??_R1A@?0A@EA@_Generic_error_category@std@@8	; std::_Generic_error_category::`RTTI Base Class Descriptor at (0,-1,0,64)'
PUBLIC	??_R4_Iostream_error_category@std@@6B@		; std::_Iostream_error_category::`RTTI Complete Object Locator'
PUBLIC	??_R0?AV_Iostream_error_category@std@@@8	; std::_Iostream_error_category `RTTI Type Descriptor'
PUBLIC	??_R3_Iostream_error_category@std@@8		; std::_Iostream_error_category::`RTTI Class Hierarchy Descriptor'
PUBLIC	??_R2_Iostream_error_category@std@@8		; std::_Iostream_error_category::`RTTI Base Class Array'
PUBLIC	??_R1A@?0A@EA@_Iostream_error_category@std@@8	; std::_Iostream_error_category::`RTTI Base Class Descriptor at (0,-1,0,64)'
PUBLIC	??_R4_System_error_category@std@@6B@		; std::_System_error_category::`RTTI Complete Object Locator'
PUBLIC	??_R0?AV_System_error_category@std@@@8		; std::_System_error_category `RTTI Type Descriptor'
PUBLIC	??_R3_System_error_category@std@@8		; std::_System_error_category::`RTTI Class Hierarchy Descriptor'
PUBLIC	??_R2_System_error_category@std@@8		; std::_System_error_category::`RTTI Base Class Array'
PUBLIC	??_R1A@?0A@EA@_System_error_category@std@@8	; std::_System_error_category::`RTTI Base Class Descriptor at (0,-1,0,64)'
PUBLIC	__real@00000000
PUBLIC	__real@0000000000000000
PUBLIC	__real@3d99999a
PUBLIC	__real@3dcccccd
PUBLIC	__real@3e4ccccd
PUBLIC	__real@3e800000
PUBLIC	__real@3f5f66f1
PUBLIC	__real@3f800000
PUBLIC	__real@3fc90fd9
PUBLIC	__real@3ff0000000000000
PUBLIC	__real@3ff921fb54442d18
PUBLIC	__real@40000000
PUBLIC	__real@400921fb54442d18
PUBLIC	__real@4016cbe3
PUBLIC	__real@40490fd9
PUBLIC	__real@40800000
PUBLIC	__real@40a00000
PUBLIC	__real@40bb580000000000
PUBLIC	__real@40c90fd9
PUBLIC	__real@41700000
PUBLIC	__real@4180b53f
PUBLIC	__real@41a00000
PUBLIC	__real@42c80000
PUBLIC	__real@43480000
PUBLIC	__real@43960000
PUBLIC	__real@43fa0000
PUBLIC	__real@447a0000
PUBLIC	__real@44fa0000
PUBLIC	__real@451c4000
PUBLIC	__real@453b8000
PUBLIC	__real@455ac000
PUBLIC	__real@45bb8000
PUBLIC	__real@45dac000
PUBLIC	__real@463b8000
PUBLIC	__real@466a6000
PUBLIC	__real@46bb8000
PUBLIC	__real@46fa0000
PUBLIC	__real@477a0000
PUBLIC	__real@477fff00
PUBLIC	__real@8000000000000000
PUBLIC	__real@bf800000
PUBLIC	__real@bfc90fd9
PUBLIC	__real@bff921fb54442d18
PUBLIC	__real@c0490fd9
PUBLIC	__real@c59c4000
PUBLIC	__real@c61c4000
PUBLIC	__xmm@80000000800000008000000080000000
EXTRN	__purecall:PROC
EXTRN	??2@YAPAXI@Z:PROC				; operator new
EXTRN	??3@YAXPAX@Z:PROC				; operator delete
EXTRN	_atexit:PROC
EXTRN	_acos:PROC
EXTRN	_atan:PROC
EXTRN	_fabs:PROC
EXTRN	_memcpy:PROC
EXTRN	_strlen:PROC
EXTRN	_memmove:PROC
EXTRN	?_Xbad_alloc@std@@YAXXZ:PROC			; std::_Xbad_alloc
EXTRN	?_Xlength_error@std@@YAXPBD@Z:PROC		; std::_Xlength_error
EXTRN	?_Xout_of_range@std@@YAXPBD@Z:PROC		; std::_Xout_of_range
EXTRN	?CalcRelGeom@@YAXPAVSimBaseClass@@PAVSimObjectType@@QAY02MM@Z:PROC ; CalcRelGeom
EXTRN	?UnSetFlag@SimBaseClass@@QAEXH@Z:PROC		; SimBaseClass::UnSetFlag
EXTRN	?SetTarget@SimMoverClass@@QAEXPAVSimObjectType@@@Z:PROC ; SimMoverClass::SetTarget
EXTRN	?SendFireMessage@SimVehicleClass@@QAEXPAVSimWeaponClass@@HHPAVSimObjectType@@VVU_ID@@@Z:PROC ; SimVehicleClass::SendFireMessage
EXTRN	?AddMode@HeliBrain@@QAEXW4DigiMode@1@@Z:PROC	; HeliBrain::AddMode
EXTRN	?MachHold@HeliBrain@@QAEXMMH@Z:PROC		; HeliBrain::MachHold
EXTRN	?LevelTurn@HeliBrain@@QAEXMMH@Z:PROC		; HeliBrain::LevelTurn
EXTRN	?SelectNextWaypoint@HeliBrain@@QAEXXZ:PROC	; HeliBrain::SelectNextWaypoint
EXTRN	?AutoTrack@HeliBrain@@QAEMM@Z:PROC		; HeliBrain::AutoTrack
EXTRN	?Release@SimObjectType@@QAEXXZ:PROC		; SimObjectType::Release
EXTRN	??_Eerror_category@std@@UAEPAXI@Z:PROC		; std::error_category::`vector deleting destructor'
EXTRN	?_Syserror_map@std@@YAPBDH@Z:PROC		; std::_Syserror_map
EXTRN	?_Winerror_map@std@@YAPBDH@Z:PROC		; std::_Winerror_map
EXTRN	??_E_Generic_error_category@std@@UAEPAXI@Z:PROC	; std::_Generic_error_category::`vector deleting destructor'
EXTRN	??_E_Iostream_error_category@std@@UAEPAXI@Z:PROC ; std::_Iostream_error_category::`vector deleting destructor'
EXTRN	??_E_System_error_category@std@@UAEPAXI@Z:PROC	; std::_System_error_category::`vector deleting destructor'
EXTRN	?GetRMax@MissileClass@@QAEMMMMMM@Z:PROC		; MissileClass::GetRMax
EXTRN	?SetMasterMode@FireControlComputer@@QAEXW4FCCMasterMode@1@@Z:PROC ; FireControlComputer::SetMasterMode
EXTRN	?SetTarget@FireControlComputer@@QAEXPAVSimObjectType@@@Z:PROC ; FireControlComputer::SetTarget
EXTRN	?SetAAMasterModeForCurrentWeapon@FireControlComputer@@QAEXXZ:PROC ; FireControlComputer::SetAAMasterModeForCurrentWeapon
EXTRN	?SetAGMasterModeForCurrentWeapon@FireControlComputer@@QAEXXZ:PROC ; FireControlComputer::SetAGMasterModeForCurrentWeapon
EXTRN	?FindWeaponClass@SMSClass@@QAEHW4WeaponClass@@H@Z:PROC ; SMSClass::FindWeaponClass
EXTRN	?LaunchMissile@SMSClass@@QAEHXZ:PROC		; SMSClass::LaunchMissile
EXTRN	?LaunchRocket@SMSClass@@QAEHXZ:PROC		; SMSClass::LaunchRocket
EXTRN	@__security_check_cookie@4:PROC
EXTRN	__CxxThrowException@8:PROC
EXTRN	___CxxFrameHandler3:PROC
EXTRN	?FalconNullId@@3VVU_ID@@A:QWORD			; FalconNullId
EXTRN	?SimLibMajorFrameTime@@3MA:DWORD		; SimLibMajorFrameTime
EXTRN	?SimLibElapsedTime@@3KA:DWORD			; SimLibElapsedTime
EXTRN	??_7type_info@@6B@:QWORD			; type_info::`vftable'
EXTRN	___security_cookie:DWORD
EXTRN	__fltused:DWORD
_BSS	SEGMENT
_piecewise_construct DB 01H DUP (?)
_allocator_arg DB 01H DUP (?)
_BSS	ENDS
;	COMDAT ?_Generic_object@?$_Error_objects@H@std@@2V_Generic_error_category@2@A
_BSS	SEGMENT
?_Generic_object@?$_Error_objects@H@std@@2V_Generic_error_category@2@A DD 01H DUP (?) ; std::_Error_objects<int>::_Generic_object
_BSS	ENDS
;	COMDAT ?_Iostream_object@?$_Error_objects@H@std@@2V_Iostream_error_category@2@A
_BSS	SEGMENT
?_Iostream_object@?$_Error_objects@H@std@@2V_Iostream_error_category@2@A DD 01H DUP (?) ; std::_Error_objects<int>::_Iostream_object
_BSS	ENDS
;	COMDAT ?_System_object@?$_Error_objects@H@std@@2V_System_error_category@2@A
_BSS	SEGMENT
?_System_object@?$_Error_objects@H@std@@2V_System_error_category@2@A DD 01H DUP (?) ; std::_Error_objects<int>::_System_object
_BSS	ENDS
;	COMDAT ?id@?$num_put@DV?$back_insert_iterator@V?$basic_string@DU?$char_traits@D@std@@V?$allocator@D@2@@std@@@std@@@std@@2V0locale@2@A
_BSS	SEGMENT
?id@?$num_put@DV?$back_insert_iterator@V?$basic_string@DU?$char_traits@D@std@@V?$allocator@D@2@@std@@@std@@@std@@2V0locale@2@A DD 01H DUP (?) ; std::num_put<char,std::back_insert_iterator<std::basic_string<char,std::char_traits<char>,std::allocator<char> > > >::id
_BSS	ENDS
;	COMDAT ?id@?$num_put@_WV?$back_insert_iterator@V?$basic_string@_WU?$char_traits@_W@std@@V?$allocator@_W@2@@std@@@std@@@std@@2V0locale@2@A
_BSS	SEGMENT
?id@?$num_put@_WV?$back_insert_iterator@V?$basic_string@_WU?$char_traits@_W@std@@V?$allocator@_W@2@@std@@@std@@@std@@2V0locale@2@A DD 01H DUP (?) ; std::num_put<wchar_t,std::back_insert_iterator<std::basic_string<wchar_t,std::char_traits<wchar_t>,std::allocator<wchar_t> > > >::id
_BSS	ENDS
;	COMDAT ?LastRandom@?1??GenerateFastRandom@@YAJXZ@4JA
_BSS	SEGMENT
?LastRandom@?1??GenerateFastRandom@@YAJXZ@4JA DD 01H DUP (?) ; `GenerateFastRandom'::`2'::LastRandom
_BSS	ENDS
;	COMDAT ?id@?$numpunct@D@std@@2V0locale@2@A
_BSS	SEGMENT
?id@?$numpunct@D@std@@2V0locale@2@A DD 01H DUP (?)	; std::numpunct<char>::id
_BSS	ENDS
;	COMDAT ?id@?$numpunct@_W@std@@2V0locale@2@A
_BSS	SEGMENT
?id@?$numpunct@_W@std@@2V0locale@2@A DD 01H DUP (?)	; std::numpunct<wchar_t>::id
_BSS	ENDS
CRT$XCU	SEGMENT
_piecewise_construct$initializer$ DD FLAT:??__Epiecewise_construct@std@@YAXXZ
CRT$XCU	ENDS
;	COMDAT __xmm@80000000800000008000000080000000
CONST	SEGMENT
__xmm@80000000800000008000000080000000 DB 00H, 00H, 00H, 080H, 00H, 00H, 00H
	DB	080H, 00H, 00H, 00H, 080H, 00H, 00H, 00H, 080H
CONST	ENDS
;	COMDAT __real@c61c4000
CONST	SEGMENT
__real@c61c4000 DD 0c61c4000r			; -10000
CONST	ENDS
;	COMDAT __real@c59c4000
CONST	SEGMENT
__real@c59c4000 DD 0c59c4000r			; -5000
CONST	ENDS
;	COMDAT __real@c0490fd9
CONST	SEGMENT
__real@c0490fd9 DD 0c0490fd9r			; -3.14159
CONST	ENDS
;	COMDAT __real@bff921fb54442d18
CONST	SEGMENT
__real@bff921fb54442d18 DQ 0bff921fb54442d18r	; -1.5708
CONST	ENDS
;	COMDAT __real@bfc90fd9
CONST	SEGMENT
__real@bfc90fd9 DD 0bfc90fd9r			; -1.5708
CONST	ENDS
;	COMDAT __real@bf800000
CONST	SEGMENT
__real@bf800000 DD 0bf800000r			; -1
CONST	ENDS
;	COMDAT __real@8000000000000000
CONST	SEGMENT
__real@8000000000000000 DQ 08000000000000000r	; -0
CONST	ENDS
;	COMDAT __real@477fff00
CONST	SEGMENT
__real@477fff00 DD 0477fff00r			; 65535
CONST	ENDS
;	COMDAT __real@477a0000
CONST	SEGMENT
__real@477a0000 DD 0477a0000r			; 64000
CONST	ENDS
;	COMDAT __real@46fa0000
CONST	SEGMENT
__real@46fa0000 DD 046fa0000r			; 32000
CONST	ENDS
;	COMDAT __real@46bb8000
CONST	SEGMENT
__real@46bb8000 DD 046bb8000r			; 24000
CONST	ENDS
;	COMDAT __real@466a6000
CONST	SEGMENT
__real@466a6000 DD 0466a6000r			; 15000
CONST	ENDS
;	COMDAT __real@463b8000
CONST	SEGMENT
__real@463b8000 DD 0463b8000r			; 12000
CONST	ENDS
;	COMDAT __real@45dac000
CONST	SEGMENT
__real@45dac000 DD 045dac000r			; 7000
CONST	ENDS
;	COMDAT __real@45bb8000
CONST	SEGMENT
__real@45bb8000 DD 045bb8000r			; 6000
CONST	ENDS
;	COMDAT __real@455ac000
CONST	SEGMENT
__real@455ac000 DD 0455ac000r			; 3500
CONST	ENDS
;	COMDAT __real@453b8000
CONST	SEGMENT
__real@453b8000 DD 0453b8000r			; 3000
CONST	ENDS
;	COMDAT __real@451c4000
CONST	SEGMENT
__real@451c4000 DD 0451c4000r			; 2500
CONST	ENDS
;	COMDAT __real@44fa0000
CONST	SEGMENT
__real@44fa0000 DD 044fa0000r			; 2000
CONST	ENDS
;	COMDAT __real@447a0000
CONST	SEGMENT
__real@447a0000 DD 0447a0000r			; 1000
CONST	ENDS
;	COMDAT __real@43fa0000
CONST	SEGMENT
__real@43fa0000 DD 043fa0000r			; 500
CONST	ENDS
;	COMDAT __real@43960000
CONST	SEGMENT
__real@43960000 DD 043960000r			; 300
CONST	ENDS
;	COMDAT __real@43480000
CONST	SEGMENT
__real@43480000 DD 043480000r			; 200
CONST	ENDS
;	COMDAT __real@42c80000
CONST	SEGMENT
__real@42c80000 DD 042c80000r			; 100
CONST	ENDS
;	COMDAT __real@41a00000
CONST	SEGMENT
__real@41a00000 DD 041a00000r			; 20
CONST	ENDS
;	COMDAT __real@4180b53f
CONST	SEGMENT
__real@4180b53f DD 04180b53fr			; 16.0885
CONST	ENDS
;	COMDAT __real@41700000
CONST	SEGMENT
__real@41700000 DD 041700000r			; 15
CONST	ENDS
;	COMDAT __real@40c90fd9
CONST	SEGMENT
__real@40c90fd9 DD 040c90fd9r			; 6.28318
CONST	ENDS
;	COMDAT __real@40bb580000000000
CONST	SEGMENT
__real@40bb580000000000 DQ 040bb580000000000r	; 7000
CONST	ENDS
;	COMDAT __real@40a00000
CONST	SEGMENT
__real@40a00000 DD 040a00000r			; 5
CONST	ENDS
;	COMDAT __real@40800000
CONST	SEGMENT
__real@40800000 DD 040800000r			; 4
CONST	ENDS
;	COMDAT __real@40490fd9
CONST	SEGMENT
__real@40490fd9 DD 040490fd9r			; 3.14159
CONST	ENDS
;	COMDAT __real@4016cbe3
CONST	SEGMENT
__real@4016cbe3 DD 04016cbe3r			; 2.35619
CONST	ENDS
;	COMDAT __real@400921fb54442d18
CONST	SEGMENT
__real@400921fb54442d18 DQ 0400921fb54442d18r	; 3.14159
CONST	ENDS
;	COMDAT __real@40000000
CONST	SEGMENT
__real@40000000 DD 040000000r			; 2
CONST	ENDS
;	COMDAT __real@3ff921fb54442d18
CONST	SEGMENT
__real@3ff921fb54442d18 DQ 03ff921fb54442d18r	; 1.5708
CONST	ENDS
;	COMDAT __real@3ff0000000000000
CONST	SEGMENT
__real@3ff0000000000000 DQ 03ff0000000000000r	; 1
CONST	ENDS
;	COMDAT __real@3fc90fd9
CONST	SEGMENT
__real@3fc90fd9 DD 03fc90fd9r			; 1.5708
CONST	ENDS
;	COMDAT __real@3f800000
CONST	SEGMENT
__real@3f800000 DD 03f800000r			; 1
CONST	ENDS
;	COMDAT __real@3f5f66f1
CONST	SEGMENT
__real@3f5f66f1 DD 03f5f66f1r			; 0.872665
CONST	ENDS
;	COMDAT __real@3e800000
CONST	SEGMENT
__real@3e800000 DD 03e800000r			; 0.25
CONST	ENDS
;	COMDAT __real@3e4ccccd
CONST	SEGMENT
__real@3e4ccccd DD 03e4ccccdr			; 0.2
CONST	ENDS
;	COMDAT __real@3dcccccd
CONST	SEGMENT
__real@3dcccccd DD 03dcccccdr			; 0.1
CONST	ENDS
;	COMDAT __real@3d99999a
CONST	SEGMENT
__real@3d99999a DD 03d99999ar			; 0.075
CONST	ENDS
;	COMDAT __real@0000000000000000
CONST	SEGMENT
__real@0000000000000000 DQ 00000000000000000r	; 0
CONST	ENDS
;	COMDAT __real@00000000
CONST	SEGMENT
__real@00000000 DD 000000000r			; 0
CONST	ENDS
;	COMDAT ??_R1A@?0A@EA@_System_error_category@std@@8
rdata$r	SEGMENT
??_R1A@?0A@EA@_System_error_category@std@@8 DD FLAT:??_R0?AV_System_error_category@std@@@8 ; std::_System_error_category::`RTTI Base Class Descriptor at (0,-1,0,64)'
	DD	02H
	DD	00H
	DD	0ffffffffH
	DD	00H
	DD	040H
	DD	FLAT:??_R3_System_error_category@std@@8
rdata$r	ENDS
;	COMDAT ??_R2_System_error_category@std@@8
rdata$r	SEGMENT
??_R2_System_error_category@std@@8 DD FLAT:??_R1A@?0A@EA@_System_error_category@std@@8 ; std::_System_error_category::`RTTI Base Class Array'
	DD	FLAT:??_R1A@?0A@EA@_Generic_error_category@std@@8
	DD	FLAT:??_R1A@?0A@EA@error_category@std@@8
rdata$r	ENDS
;	COMDAT ??_R3_System_error_category@std@@8
rdata$r	SEGMENT
??_R3_System_error_category@std@@8 DD 00H		; std::_System_error_category::`RTTI Class Hierarchy Descriptor'
	DD	00H
	DD	03H
	DD	FLAT:??_R2_System_error_category@std@@8
rdata$r	ENDS
;	COMDAT ??_R0?AV_System_error_category@std@@@8
_DATA	SEGMENT
??_R0?AV_System_error_category@std@@@8 DD FLAT:??_7type_info@@6B@ ; std::_System_error_category `RTTI Type Descriptor'
	DD	00H
	DB	'.?AV_System_error_category@std@@', 00H
_DATA	ENDS
;	COMDAT ??_R4_System_error_category@std@@6B@
rdata$r	SEGMENT
??_R4_System_error_category@std@@6B@ DD 00H		; std::_System_error_category::`RTTI Complete Object Locator'
	DD	00H
	DD	00H
	DD	FLAT:??_R0?AV_System_error_category@std@@@8
	DD	FLAT:??_R3_System_error_category@std@@8
rdata$r	ENDS
;	COMDAT ??_R1A@?0A@EA@_Iostream_error_category@std@@8
rdata$r	SEGMENT
??_R1A@?0A@EA@_Iostream_error_category@std@@8 DD FLAT:??_R0?AV_Iostream_error_category@std@@@8 ; std::_Iostream_error_category::`RTTI Base Class Descriptor at (0,-1,0,64)'
	DD	02H
	DD	00H
	DD	0ffffffffH
	DD	00H
	DD	040H
	DD	FLAT:??_R3_Iostream_error_category@std@@8
rdata$r	ENDS
;	COMDAT ??_R2_Iostream_error_category@std@@8
rdata$r	SEGMENT
??_R2_Iostream_error_category@std@@8 DD FLAT:??_R1A@?0A@EA@_Iostream_error_category@std@@8 ; std::_Iostream_error_category::`RTTI Base Class Array'
	DD	FLAT:??_R1A@?0A@EA@_Generic_error_category@std@@8
	DD	FLAT:??_R1A@?0A@EA@error_category@std@@8
rdata$r	ENDS
;	COMDAT ??_R3_Iostream_error_category@std@@8
rdata$r	SEGMENT
??_R3_Iostream_error_category@std@@8 DD 00H		; std::_Iostream_error_category::`RTTI Class Hierarchy Descriptor'
	DD	00H
	DD	03H
	DD	FLAT:??_R2_Iostream_error_category@std@@8
rdata$r	ENDS
;	COMDAT ??_R0?AV_Iostream_error_category@std@@@8
_DATA	SEGMENT
??_R0?AV_Iostream_error_category@std@@@8 DD FLAT:??_7type_info@@6B@ ; std::_Iostream_error_category `RTTI Type Descriptor'
	DD	00H
	DB	'.?AV_Iostream_error_category@std@@', 00H
_DATA	ENDS
;	COMDAT ??_R4_Iostream_error_category@std@@6B@
rdata$r	SEGMENT
??_R4_Iostream_error_category@std@@6B@ DD 00H		; std::_Iostream_error_category::`RTTI Complete Object Locator'
	DD	00H
	DD	00H
	DD	FLAT:??_R0?AV_Iostream_error_category@std@@@8
	DD	FLAT:??_R3_Iostream_error_category@std@@8
rdata$r	ENDS
;	COMDAT ??_R1A@?0A@EA@_Generic_error_category@std@@8
rdata$r	SEGMENT
??_R1A@?0A@EA@_Generic_error_category@std@@8 DD FLAT:??_R0?AV_Generic_error_category@std@@@8 ; std::_Generic_error_category::`RTTI Base Class Descriptor at (0,-1,0,64)'
	DD	01H
	DD	00H
	DD	0ffffffffH
	DD	00H
	DD	040H
	DD	FLAT:??_R3_Generic_error_category@std@@8
rdata$r	ENDS
;	COMDAT ??_R2_Generic_error_category@std@@8
rdata$r	SEGMENT
??_R2_Generic_error_category@std@@8 DD FLAT:??_R1A@?0A@EA@_Generic_error_category@std@@8 ; std::_Generic_error_category::`RTTI Base Class Array'
	DD	FLAT:??_R1A@?0A@EA@error_category@std@@8
rdata$r	ENDS
;	COMDAT ??_R3_Generic_error_category@std@@8
rdata$r	SEGMENT
??_R3_Generic_error_category@std@@8 DD 00H		; std::_Generic_error_category::`RTTI Class Hierarchy Descriptor'
	DD	00H
	DD	02H
	DD	FLAT:??_R2_Generic_error_category@std@@8
rdata$r	ENDS
;	COMDAT ??_R0?AV_Generic_error_category@std@@@8
_DATA	SEGMENT
??_R0?AV_Generic_error_category@std@@@8 DD FLAT:??_7type_info@@6B@ ; std::_Generic_error_category `RTTI Type Descriptor'
	DD	00H
	DB	'.?AV_Generic_error_category@std@@', 00H
_DATA	ENDS
;	COMDAT ??_R4_Generic_error_category@std@@6B@
rdata$r	SEGMENT
??_R4_Generic_error_category@std@@6B@ DD 00H		; std::_Generic_error_category::`RTTI Complete Object Locator'
	DD	00H
	DD	00H
	DD	FLAT:??_R0?AV_Generic_error_category@std@@@8
	DD	FLAT:??_R3_Generic_error_category@std@@8
rdata$r	ENDS
;	COMDAT ??_R1A@?0A@EA@error_category@std@@8
rdata$r	SEGMENT
??_R1A@?0A@EA@error_category@std@@8 DD FLAT:??_R0?AVerror_category@std@@@8 ; std::error_category::`RTTI Base Class Descriptor at (0,-1,0,64)'
	DD	00H
	DD	00H
	DD	0ffffffffH
	DD	00H
	DD	040H
	DD	FLAT:??_R3error_category@std@@8
rdata$r	ENDS
;	COMDAT ??_R2error_category@std@@8
rdata$r	SEGMENT
??_R2error_category@std@@8 DD FLAT:??_R1A@?0A@EA@error_category@std@@8 ; std::error_category::`RTTI Base Class Array'
rdata$r	ENDS
;	COMDAT ??_R3error_category@std@@8
rdata$r	SEGMENT
??_R3error_category@std@@8 DD 00H			; std::error_category::`RTTI Class Hierarchy Descriptor'
	DD	00H
	DD	01H
	DD	FLAT:??_R2error_category@std@@8
rdata$r	ENDS
;	COMDAT ??_R0?AVerror_category@std@@@8
_DATA	SEGMENT
??_R0?AVerror_category@std@@@8 DD FLAT:??_7type_info@@6B@ ; std::error_category `RTTI Type Descriptor'
	DD	00H
	DB	'.?AVerror_category@std@@', 00H
_DATA	ENDS
;	COMDAT ??_R4error_category@std@@6B@
rdata$r	SEGMENT
??_R4error_category@std@@6B@ DD 00H			; std::error_category::`RTTI Complete Object Locator'
	DD	00H
	DD	00H
	DD	FLAT:??_R0?AVerror_category@std@@@8
	DD	FLAT:??_R3error_category@std@@8
rdata$r	ENDS
;	COMDAT ??_C@_0BA@JFNIOLAK@string?5too?5long?$AA@
CONST	SEGMENT
??_C@_0BA@JFNIOLAK@string?5too?5long?$AA@ DB 'string too long', 00H ; `string'
CONST	ENDS
;	COMDAT ??_C@_0BI@CFPLBAOH@invalid?5string?5position?$AA@
CONST	SEGMENT
??_C@_0BI@CFPLBAOH@invalid?5string?5position?$AA@ DB 'invalid string posi'
	DB	'tion', 00H					; `string'
CONST	ENDS
;	COMDAT ??_C@_06FHFOAHML@system?$AA@
CONST	SEGMENT
??_C@_06FHFOAHML@system?$AA@ DB 'system', 00H		; `string'
CONST	ENDS
;	COMDAT ??_7_System_error_category@std@@6B@
CONST	SEGMENT
??_7_System_error_category@std@@6B@ DD FLAT:??_R4_System_error_category@std@@6B@ ; std::_System_error_category::`vftable'
	DD	FLAT:??_E_System_error_category@std@@UAEPAXI@Z
	DD	FLAT:?name@_System_error_category@std@@UBEPBDXZ
	DD	FLAT:?message@_System_error_category@std@@UBE?AV?$basic_string@DU?$char_traits@D@std@@V?$allocator@D@2@@2@H@Z
	DD	FLAT:?default_error_condition@_System_error_category@std@@UBE?AVerror_condition@2@H@Z
	DD	FLAT:?equivalent@error_category@std@@UBE_NABVerror_code@2@H@Z
	DD	FLAT:?equivalent@error_category@std@@UBE_NHABVerror_condition@2@@Z
CONST	ENDS
;	COMDAT ??_C@_0BG@PADBLCHM@iostream?5stream?5error?$AA@
CONST	SEGMENT
??_C@_0BG@PADBLCHM@iostream?5stream?5error?$AA@ DB 'iostream stream error'
	DB	00H						; `string'
CONST	ENDS
;	COMDAT ??_C@_08LLGCOLLL@iostream?$AA@
CONST	SEGMENT
??_C@_08LLGCOLLL@iostream?$AA@ DB 'iostream', 00H	; `string'
CONST	ENDS
;	COMDAT ??_7_Iostream_error_category@std@@6B@
CONST	SEGMENT
??_7_Iostream_error_category@std@@6B@ DD FLAT:??_R4_Iostream_error_category@std@@6B@ ; std::_Iostream_error_category::`vftable'
	DD	FLAT:??_E_Iostream_error_category@std@@UAEPAXI@Z
	DD	FLAT:?name@_Iostream_error_category@std@@UBEPBDXZ
	DD	FLAT:?message@_Iostream_error_category@std@@UBE?AV?$basic_string@DU?$char_traits@D@std@@V?$allocator@D@2@@2@H@Z
	DD	FLAT:?default_error_condition@error_category@std@@UBE?AVerror_condition@2@H@Z
	DD	FLAT:?equivalent@error_category@std@@UBE_NABVerror_code@2@H@Z
	DD	FLAT:?equivalent@error_category@std@@UBE_NHABVerror_condition@2@@Z
CONST	ENDS
;	COMDAT ??_C@_0O@BFJCFAAK@unknown?5error?$AA@
CONST	SEGMENT
??_C@_0O@BFJCFAAK@unknown?5error?$AA@ DB 'unknown error', 00H ; `string'
CONST	ENDS
;	COMDAT ??_C@_07DCLBNMLN@generic?$AA@
CONST	SEGMENT
??_C@_07DCLBNMLN@generic?$AA@ DB 'generic', 00H		; `string'
CONST	ENDS
;	COMDAT ??_7_Generic_error_category@std@@6B@
CONST	SEGMENT
??_7_Generic_error_category@std@@6B@ DD FLAT:??_R4_Generic_error_category@std@@6B@ ; std::_Generic_error_category::`vftable'
	DD	FLAT:??_E_Generic_error_category@std@@UAEPAXI@Z
	DD	FLAT:?name@_Generic_error_category@std@@UBEPBDXZ
	DD	FLAT:?message@_Generic_error_category@std@@UBE?AV?$basic_string@DU?$char_traits@D@std@@V?$allocator@D@2@@2@H@Z
	DD	FLAT:?default_error_condition@error_category@std@@UBE?AVerror_condition@2@H@Z
	DD	FLAT:?equivalent@error_category@std@@UBE_NABVerror_code@2@H@Z
	DD	FLAT:?equivalent@error_category@std@@UBE_NHABVerror_condition@2@@Z
CONST	ENDS
;	COMDAT ??_7error_category@std@@6B@
CONST	SEGMENT
??_7error_category@std@@6B@ DD FLAT:??_R4error_category@std@@6B@ ; std::error_category::`vftable'
	DD	FLAT:??_Eerror_category@std@@UAEPAXI@Z
	DD	FLAT:__purecall
	DD	FLAT:__purecall
	DD	FLAT:?default_error_condition@error_category@std@@UBE?AVerror_condition@2@H@Z
	DD	FLAT:?equivalent@error_category@std@@UBE_NABVerror_code@2@H@Z
	DD	FLAT:?equivalent@error_category@std@@UBE_NHABVerror_condition@2@@Z
CONST	ENDS
;	COMDAT xdata$x
xdata$x	SEGMENT
__unwindtable$??$construct@PADAAPAD@?$allocator@D@std@@QAEXPAPADAAPAD@Z DD 0ffffffffH
	DD	FLAT:__unwindfunclet$??$construct@PADAAPAD@?$allocator@D@std@@QAEXPAPADAAPAD@Z$0
__ehfuncinfo$??$construct@PADAAPAD@?$allocator@D@std@@QAEXPAPADAAPAD@Z DD 019930522H
	DD	01H
	DD	FLAT:__unwindtable$??$construct@PADAAPAD@?$allocator@D@std@@QAEXPAPADAAPAD@Z
	DD	2 DUP(00H)
	DD	2 DUP(00H)
	DD	00H
	DD	01H
xdata$x	ENDS
;	COMDAT xdata$x
xdata$x	SEGMENT
__catchsym$?_Copy@?$basic_string@DU?$char_traits@D@std@@V?$allocator@D@2@@std@@QAEXII@Z$5 DD 040H
	DD	00H
	DD	00H
	DD	FLAT:__catch$?_Copy@?$basic_string@DU?$char_traits@D@std@@V?$allocator@D@2@@std@@QAEXII@Z$0
__catchsym$?_Copy@?$basic_string@DU?$char_traits@D@std@@V?$allocator@D@2@@std@@QAEXII@Z$4 DD 040H
	DD	00H
	DD	00H
	DD	FLAT:__catch$?_Copy@?$basic_string@DU?$char_traits@D@std@@V?$allocator@D@2@@std@@QAEXII@Z$1
__unwindtable$?_Copy@?$basic_string@DU?$char_traits@D@std@@V?$allocator@D@2@@std@@QAEXII@Z DD 0ffffffffH
	DD	00H
	DD	0ffffffffH
	DD	00H
	DD	01H
	DD	00H
	DD	01H
	DD	00H
__ehfuncinfo$?_Copy@?$basic_string@DU?$char_traits@D@std@@V?$allocator@D@2@@std@@QAEXII@Z DD 019930522H
	DD	04H
	DD	FLAT:__unwindtable$?_Copy@?$basic_string@DU?$char_traits@D@std@@V?$allocator@D@2@@std@@QAEXII@Z
	DD	02H
	DD	FLAT:__tryblocktable$?_Copy@?$basic_string@DU?$char_traits@D@std@@V?$allocator@D@2@@std@@QAEXII@Z
	DD	2 DUP(00H)
	DD	00H
	DD	01H
__tryblocktable$?_Copy@?$basic_string@DU?$char_traits@D@std@@V?$allocator@D@2@@std@@QAEXII@Z DD 02H
	DD	02H
	DD	03H
	DD	01H
	DD	FLAT:__catchsym$?_Copy@?$basic_string@DU?$char_traits@D@std@@V?$allocator@D@2@@std@@QAEXII@Z$4
	DD	00H
	DD	00H
	DD	03H
	DD	01H
	DD	FLAT:__catchsym$?_Copy@?$basic_string@DU?$char_traits@D@std@@V?$allocator@D@2@@std@@QAEXII@Z$5
xdata$x	ENDS
CRT$XCU	SEGMENT
_allocator_arg$initializer$ DD FLAT:??__Eallocator_arg@std@@YAXXZ
CRT$XCU	ENDS
;	COMDAT CRT$XCU
CRT$XCU	SEGMENT
?_Generic_object$initializer$@?$_Error_objects@H@std@@2P6AXXZA DD FLAT:??__E?_Generic_object@?$_Error_objects@H@std@@2V_Generic_error_category@2@A@@YAXXZ ; std::_Error_objects<int>::_Generic_object$initializer$
CRT$XCU	ENDS
;	COMDAT CRT$XCU
CRT$XCU	SEGMENT
?_Iostream_object$initializer$@?$_Error_objects@H@std@@2P6AXXZA DD FLAT:??__E?_Iostream_object@?$_Error_objects@H@std@@2V_Iostream_error_category@2@A@@YAXXZ ; std::_Error_objects<int>::_Iostream_object$initializer$
CRT$XCU	ENDS
;	COMDAT CRT$XCU
CRT$XCU	SEGMENT
?_System_object$initializer$@?$_Error_objects@H@std@@2P6AXXZA DD FLAT:??__E?_System_object@?$_Error_objects@H@std@@2V_System_error_category@2@A@@YAXXZ ; std::_Error_objects<int>::_System_object$initializer$
CRT$XCU	ENDS
;	COMDAT CRT$XCU
CRT$XCU	SEGMENT
?id$initializer$@?$num_put@DV?$back_insert_iterator@V?$basic_string@DU?$char_traits@D@std@@V?$allocator@D@2@@std@@@std@@@std@@2P6AXXZA DD FLAT:??__E?id@?$num_put@DV?$back_insert_iterator@V?$basic_string@DU?$char_traits@D@std@@V?$allocator@D@2@@std@@@std@@@std@@2V0locale@2@A@@YAXXZ ; std::num_put<char,std::back_insert_iterator<std::basic_string<char,std::char_traits<char>,std::allocator<char> > > >::id$initializer$
CRT$XCU	ENDS
;	COMDAT CRT$XCU
CRT$XCU	SEGMENT
?id$initializer$@?$num_put@_WV?$back_insert_iterator@V?$basic_string@_WU?$char_traits@_W@std@@V?$allocator@_W@2@@std@@@std@@@std@@2P6AXXZA DD FLAT:??__E?id@?$num_put@_WV?$back_insert_iterator@V?$basic_string@_WU?$char_traits@_W@std@@V?$allocator@_W@2@@std@@@std@@@std@@2V0locale@2@A@@YAXXZ ; std::num_put<wchar_t,std::back_insert_iterator<std::basic_string<wchar_t,std::char_traits<wchar_t>,std::allocator<wchar_t> > > >::id$initializer$
CRT$XCU	ENDS
;	COMDAT CRT$XCU
CRT$XCU	SEGMENT
?id$initializer$@?$numpunct@D@std@@2P6AXXZA DD FLAT:??__E?id@?$numpunct@D@std@@2V0locale@2@A@@YAXXZ ; std::numpunct<char>::id$initializer$
CRT$XCU	ENDS
;	COMDAT CRT$XCU
CRT$XCU	SEGMENT
?id$initializer$@?$numpunct@_W@std@@2P6AXXZA DD FLAT:??__E?id@?$numpunct@_W@std@@2V0locale@2@A@@YAXXZ ; std::numpunct<wchar_t>::id$initializer$
CRT$XCU	ENDS
; Function compile flags: /Odtp
; File c:\program files (x86)\microsoft visual studio 11.0\vc\include\xmemory0
;	COMDAT ??$destroy@PAD@?$allocator@D@std@@QAEXPAPAD@Z
_TEXT	SEGMENT
_this$ = -4						; size = 4
__Ptr$ = 8						; size = 4
??$destroy@PAD@?$allocator@D@std@@QAEXPAPAD@Z PROC	; std::allocator<char>::destroy<char *>, COMDAT
; _this$ = ecx

; 621  : 		void destroy(_Uty *_Ptr)

	push	ebp
	mov	ebp, esp
	push	ecx
	mov	DWORD PTR _this$[ebp], ecx

; 622  : 		{	// destroy object at _Ptr
; 623  : 		_Ptr->~_Uty();
; 624  : 		}

	mov	esp, ebp
	pop	ebp
	ret	4
??$destroy@PAD@?$allocator@D@std@@QAEXPAPAD@Z ENDP	; std::allocator<char>::destroy<char *>
_TEXT	ENDS
; Function compile flags: /Odtp
; File c:\program files (x86)\microsoft visual studio 11.0\vc\include\xmemory0
;	COMDAT ??$construct@PADAAPAD@?$allocator@D@std@@QAEXPAPADAAPAD@Z
_TEXT	SEGMENT
$T2 = -28						; size = 4
_this$ = -24						; size = 4
tv73 = -20						; size = 4
$T3 = -16						; size = 4
__$EHRec$ = -12						; size = 12
__Ptr$ = 8						; size = 4
__V0$ = 12						; size = 4
??$construct@PADAAPAD@?$allocator@D@std@@QAEXPAPADAAPAD@Z PROC ; std::allocator<char>::construct<char *,char * &>, COMDAT
; _this$ = ecx

; 617  : _VARIADIC_EXPAND_0X(_ALLOC_MEMBER_CONSTRUCT, , , , )

	push	ebp
	mov	ebp, esp
	push	-1
	push	__ehhandler$??$construct@PADAAPAD@?$allocator@D@std@@QAEXPAPADAAPAD@Z
	mov	eax, DWORD PTR fs:0
	push	eax
	sub	esp, 16					; 00000010H
	mov	eax, DWORD PTR ___security_cookie
	xor	eax, ebp
	push	eax
	lea	eax, DWORD PTR __$EHRec$[ebp]
	mov	DWORD PTR fs:0, eax
	mov	DWORD PTR _this$[ebp], ecx
	mov	eax, DWORD PTR __Ptr$[ebp]
	push	eax
	push	4
	call	??2@YAPAXIPAX@Z				; operator new
	add	esp, 8
	mov	DWORD PTR $T3[ebp], eax
	mov	DWORD PTR __$EHRec$[ebp+8], 0
	cmp	DWORD PTR $T3[ebp], 0
	je	SHORT $LN3@construct
	mov	ecx, DWORD PTR __V0$[ebp]
	push	ecx
	call	??$forward@AAPAD@std@@YAAAPADAAPAD@Z	; std::forward<char * &>
	add	esp, 4
	mov	edx, DWORD PTR $T3[ebp]
	mov	eax, DWORD PTR [eax]
	mov	DWORD PTR [edx], eax
	mov	ecx, DWORD PTR $T3[ebp]
	mov	DWORD PTR tv73[ebp], ecx
	jmp	SHORT $LN4@construct
$LN3@construct:
	mov	DWORD PTR tv73[ebp], 0
$LN4@construct:
	mov	edx, DWORD PTR tv73[ebp]
	mov	DWORD PTR $T2[ebp], edx
	mov	DWORD PTR __$EHRec$[ebp+8], -1
	mov	ecx, DWORD PTR __$EHRec$[ebp]
	mov	DWORD PTR fs:0, ecx
	pop	ecx
	mov	esp, ebp
	pop	ebp
	ret	8
_TEXT	ENDS
;	COMDAT text$x
text$x	SEGMENT
__unwindfunclet$??$construct@PADAAPAD@?$allocator@D@std@@QAEXPAPADAAPAD@Z$0:
	mov	eax, DWORD PTR __Ptr$[ebp]
	push	eax
	mov	eax, DWORD PTR $T3[ebp]
	push	eax
	call	??3@YAXPAX0@Z				; operator delete
	add	esp, 8
	ret	0
__ehhandler$??$construct@PADAAPAD@?$allocator@D@std@@QAEXPAPADAAPAD@Z:
	mov	edx, DWORD PTR [esp+8]
	lea	eax, DWORD PTR [edx+12]
	mov	ecx, DWORD PTR [edx-20]
	xor	ecx, eax
	call	@__security_check_cookie@4
	mov	eax, OFFSET __ehfuncinfo$??$construct@PADAAPAD@?$allocator@D@std@@QAEXPAPADAAPAD@Z
	jmp	___CxxFrameHandler3
text$x	ENDS
??$construct@PADAAPAD@?$allocator@D@std@@QAEXPAPADAAPAD@Z ENDP ; std::allocator<char>::construct<char *,char * &>
; Function compile flags: /Odtp
; File c:\program files (x86)\microsoft visual studio 11.0\vc\include\xlocnum
;	COMDAT ??__E?id@?$numpunct@_W@std@@2V0locale@2@A@@YAXXZ
text$yc	SEGMENT
??__E?id@?$numpunct@_W@std@@2V0locale@2@A@@YAXXZ PROC	; `dynamic initializer for 'std::numpunct<wchar_t>::id'', COMDAT

; 155  : 		void _Getvals(wchar_t, const lconv *_Ptr, _Locinfo::_Cvtvec)

	push	ebp
	mov	ebp, esp
	push	0
	mov	ecx, OFFSET ?id@?$numpunct@_W@std@@2V0locale@2@A ; std::numpunct<wchar_t>::id
	call	??0id@locale@std@@QAE@I@Z		; std::locale::id::id
	pop	ebp
	ret	0
??__E?id@?$numpunct@_W@std@@2V0locale@2@A@@YAXXZ ENDP	; `dynamic initializer for 'std::numpunct<wchar_t>::id''
text$yc	ENDS
; Function compile flags: /Odtp
; File c:\program files (x86)\microsoft visual studio 11.0\vc\include\xlocnum
;	COMDAT ??__E?id@?$numpunct@D@std@@2V0locale@2@A@@YAXXZ
text$yc	SEGMENT
??__E?id@?$numpunct@D@std@@2V0locale@2@A@@YAXXZ PROC	; `dynamic initializer for 'std::numpunct<char>::id'', COMDAT

; 155  : 		void _Getvals(wchar_t, const lconv *_Ptr, _Locinfo::_Cvtvec)

	push	ebp
	mov	ebp, esp
	push	0
	mov	ecx, OFFSET ?id@?$numpunct@D@std@@2V0locale@2@A ; std::numpunct<char>::id
	call	??0id@locale@std@@QAE@I@Z		; std::locale::id::id
	pop	ebp
	ret	0
??__E?id@?$numpunct@D@std@@2V0locale@2@A@@YAXXZ ENDP	; `dynamic initializer for 'std::numpunct<char>::id''
text$yc	ENDS
; Function compile flags: /Odtp
; File c:\program files (x86)\microsoft visual studio 11.0\vc\include\xlocnum
;	COMDAT ??__E?id@?$num_put@_WV?$back_insert_iterator@V?$basic_string@_WU?$char_traits@_W@std@@V?$allocator@_W@2@@std@@@std@@@std@@2V0locale@2@A@@YAXXZ
text$yc	SEGMENT
??__E?id@?$num_put@_WV?$back_insert_iterator@V?$basic_string@_WU?$char_traits@_W@std@@V?$allocator@_W@2@@std@@@std@@@std@@2V0locale@2@A@@YAXXZ PROC ; `dynamic initializer for 'std::num_put<wchar_t,std::back_insert_iterator<std::basic_string<wchar_t,std::char_traits<wchar_t>,std::allocator<wchar_t> > > >::id'', COMDAT

; 155  : 		void _Getvals(wchar_t, const lconv *_Ptr, _Locinfo::_Cvtvec)

	push	ebp
	mov	ebp, esp
	push	0
	mov	ecx, OFFSET ?id@?$num_put@_WV?$back_insert_iterator@V?$basic_string@_WU?$char_traits@_W@std@@V?$allocator@_W@2@@std@@@std@@@std@@2V0locale@2@A ; std::num_put<wchar_t,std::back_insert_iterator<std::basic_string<wchar_t,std::char_traits<wchar_t>,std::allocator<wchar_t> > > >::id
	call	??0id@locale@std@@QAE@I@Z		; std::locale::id::id
	pop	ebp
	ret	0
??__E?id@?$num_put@_WV?$back_insert_iterator@V?$basic_string@_WU?$char_traits@_W@std@@V?$allocator@_W@2@@std@@@std@@@std@@2V0locale@2@A@@YAXXZ ENDP ; `dynamic initializer for 'std::num_put<wchar_t,std::back_insert_iterator<std::basic_string<wchar_t,std::char_traits<wchar_t>,std::allocator<wchar_t> > > >::id''
text$yc	ENDS
; Function compile flags: /Odtp
; File c:\program files (x86)\microsoft visual studio 11.0\vc\include\xlocnum
;	COMDAT ??__E?id@?$num_put@DV?$back_insert_iterator@V?$basic_string@DU?$char_traits@D@std@@V?$allocator@D@2@@std@@@std@@@std@@2V0locale@2@A@@YAXXZ
text$yc	SEGMENT
??__E?id@?$num_put@DV?$back_insert_iterator@V?$basic_string@DU?$char_traits@D@std@@V?$allocator@D@2@@std@@@std@@@std@@2V0locale@2@A@@YAXXZ PROC ; `dynamic initializer for 'std::num_put<char,std::back_insert_iterator<std::basic_string<char,std::char_traits<char>,std::allocator<char> > > >::id'', COMDAT

; 155  : 		void _Getvals(wchar_t, const lconv *_Ptr, _Locinfo::_Cvtvec)

	push	ebp
	mov	ebp, esp
	push	0
	mov	ecx, OFFSET ?id@?$num_put@DV?$back_insert_iterator@V?$basic_string@DU?$char_traits@D@std@@V?$allocator@D@2@@std@@@std@@@std@@2V0locale@2@A ; std::num_put<char,std::back_insert_iterator<std::basic_string<char,std::char_traits<char>,std::allocator<char> > > >::id
	call	??0id@locale@std@@QAE@I@Z		; std::locale::id::id
	pop	ebp
	ret	0
??__E?id@?$num_put@DV?$back_insert_iterator@V?$basic_string@DU?$char_traits@D@std@@V?$allocator@D@2@@std@@@std@@@std@@2V0locale@2@A@@YAXXZ ENDP ; `dynamic initializer for 'std::num_put<char,std::back_insert_iterator<std::basic_string<char,std::char_traits<char>,std::allocator<char> > > >::id''
text$yc	ENDS
; Function compile flags: /Odtp
; File c:\program files (x86)\microsoft visual studio 11.0\vc\include\xmemory0
;	COMDAT ??$destroy@PAD@?$allocator_traits@V?$allocator@D@std@@@std@@SAXAAV?$allocator@D@1@PAPAD@Z
_TEXT	SEGMENT
__Al$ = 8						; size = 4
__Ptr$ = 12						; size = 4
??$destroy@PAD@?$allocator_traits@V?$allocator@D@std@@@std@@SAXAAV?$allocator@D@1@PAPAD@Z PROC ; std::allocator_traits<std::allocator<char> >::destroy<char *>, COMDAT

; 755  : 		static void destroy(_Alloc& _Al, _Uty *_Ptr)

	push	ebp
	mov	ebp, esp

; 756  : 		{	// destroy object at _Ptr
; 757  : 		_Al.destroy(_Ptr);

	mov	eax, DWORD PTR __Ptr$[ebp]
	push	eax
	mov	ecx, DWORD PTR __Al$[ebp]
	call	??$destroy@PAD@?$allocator@D@std@@QAEXPAPAD@Z ; std::allocator<char>::destroy<char *>

; 758  : 		}

	pop	ebp
	ret	0
??$destroy@PAD@?$allocator_traits@V?$allocator@D@std@@@std@@SAXAAV?$allocator@D@1@PAPAD@Z ENDP ; std::allocator_traits<std::allocator<char> >::destroy<char *>
_TEXT	ENDS
; Function compile flags: /Odtp
; File c:\program files (x86)\microsoft visual studio 11.0\vc\include\xmemory0
;	COMDAT ??$construct@PADAAPAD@?$allocator_traits@V?$allocator@D@std@@@std@@SAXAAV?$allocator@D@1@PAPADAAPAD@Z
_TEXT	SEGMENT
__Al$ = 8						; size = 4
__Ptr$ = 12						; size = 4
__V0$ = 16						; size = 4
??$construct@PADAAPAD@?$allocator_traits@V?$allocator@D@std@@@std@@SAXAAV?$allocator@D@1@PAPADAAPAD@Z PROC ; std::allocator_traits<std::allocator<char> >::construct<char *,char * &>, COMDAT

; 751  : _VARIADIC_EXPAND_0X(_ALLOC_TRAITS_SPECIAL_CONSTRUCT, , , , )

	push	ebp
	mov	ebp, esp
	mov	eax, DWORD PTR __V0$[ebp]
	push	eax
	call	??$forward@AAPAD@std@@YAAAPADAAPAD@Z	; std::forward<char * &>
	add	esp, 4
	push	eax
	mov	ecx, DWORD PTR __Ptr$[ebp]
	push	ecx
	mov	ecx, DWORD PTR __Al$[ebp]
	call	??$construct@PADAAPAD@?$allocator@D@std@@QAEXPAPADAAPAD@Z ; std::allocator<char>::construct<char *,char * &>
	pop	ebp
	ret	0
??$construct@PADAAPAD@?$allocator_traits@V?$allocator@D@std@@@std@@SAXAAV?$allocator@D@1@PAPADAAPAD@Z ENDP ; std::allocator_traits<std::allocator<char> >::construct<char *,char * &>
_TEXT	ENDS
; Function compile flags: /Odtp
; File c:\program files (x86)\microsoft visual studio 11.0\vc\include\type_traits
;	COMDAT ??$forward@AAPAD@std@@YAAAPADAAPAD@Z
_TEXT	SEGMENT
__Arg$ = 8						; size = 4
??$forward@AAPAD@std@@YAAAPADAAPAD@Z PROC		; std::forward<char * &>, COMDAT

; 1775 : 	{	// forward an lvalue

	push	ebp
	mov	ebp, esp

; 1776 : 	return (static_cast<_Ty&&>(_Arg));

	mov	eax, DWORD PTR __Arg$[ebp]

; 1777 : 	}

	pop	ebp
	ret	0
??$forward@AAPAD@std@@YAAAPADAAPAD@Z ENDP		; std::forward<char * &>
_TEXT	ENDS
; Function compile flags: /Odtp
;	COMDAT ??__F?_System_object@?$_Error_objects@H@std@@2V_System_error_category@2@A@@YAXXZ
text$yd	SEGMENT
??__F?_System_object@?$_Error_objects@H@std@@2V_System_error_category@2@A@@YAXXZ PROC ; `dynamic atexit destructor for 'std::_Error_objects<int>::_System_object'', COMDAT
	push	ebp
	mov	ebp, esp
	mov	ecx, OFFSET ?_System_object@?$_Error_objects@H@std@@2V_System_error_category@2@A ; std::_Error_objects<int>::_System_object
	call	??1_System_error_category@std@@UAE@XZ
	pop	ebp
	ret	0
??__F?_System_object@?$_Error_objects@H@std@@2V_System_error_category@2@A@@YAXXZ ENDP ; `dynamic atexit destructor for 'std::_Error_objects<int>::_System_object''
text$yd	ENDS
; Function compile flags: /Odtp
; File c:\program files (x86)\microsoft visual studio 11.0\vc\include\xmemory0
;	COMDAT ??__E?_System_object@?$_Error_objects@H@std@@2V_System_error_category@2@A@@YAXXZ
text$yc	SEGMENT
??__E?_System_object@?$_Error_objects@H@std@@2V_System_error_category@2@A@@YAXXZ PROC ; `dynamic initializer for 'std::_Error_objects<int>::_System_object'', COMDAT

; 627  : 		{	// estimate maximum array size

	push	ebp
	mov	ebp, esp
	mov	ecx, OFFSET ?_System_object@?$_Error_objects@H@std@@2V_System_error_category@2@A ; std::_Error_objects<int>::_System_object
	call	??0_System_error_category@std@@QAE@XZ	; std::_System_error_category::_System_error_category
	push	OFFSET ??__F?_System_object@?$_Error_objects@H@std@@2V_System_error_category@2@A@@YAXXZ ; `dynamic atexit destructor for 'std::_Error_objects<int>::_System_object''
	call	_atexit
	add	esp, 4
	pop	ebp
	ret	0
??__E?_System_object@?$_Error_objects@H@std@@2V_System_error_category@2@A@@YAXXZ ENDP ; `dynamic initializer for 'std::_Error_objects<int>::_System_object''
text$yc	ENDS
; Function compile flags: /Odtp
;	COMDAT ??__F?_Iostream_object@?$_Error_objects@H@std@@2V_Iostream_error_category@2@A@@YAXXZ
text$yd	SEGMENT
??__F?_Iostream_object@?$_Error_objects@H@std@@2V_Iostream_error_category@2@A@@YAXXZ PROC ; `dynamic atexit destructor for 'std::_Error_objects<int>::_Iostream_object'', COMDAT
	push	ebp
	mov	ebp, esp
	mov	ecx, OFFSET ?_Iostream_object@?$_Error_objects@H@std@@2V_Iostream_error_category@2@A ; std::_Error_objects<int>::_Iostream_object
	call	??1_Iostream_error_category@std@@UAE@XZ
	pop	ebp
	ret	0
??__F?_Iostream_object@?$_Error_objects@H@std@@2V_Iostream_error_category@2@A@@YAXXZ ENDP ; `dynamic atexit destructor for 'std::_Error_objects<int>::_Iostream_object''
text$yd	ENDS
; Function compile flags: /Odtp
; File c:\program files (x86)\microsoft visual studio 11.0\vc\include\xmemory0
;	COMDAT ??__E?_Iostream_object@?$_Error_objects@H@std@@2V_Iostream_error_category@2@A@@YAXXZ
text$yc	SEGMENT
??__E?_Iostream_object@?$_Error_objects@H@std@@2V_Iostream_error_category@2@A@@YAXXZ PROC ; `dynamic initializer for 'std::_Error_objects<int>::_Iostream_object'', COMDAT

; 627  : 		{	// estimate maximum array size

	push	ebp
	mov	ebp, esp
	mov	ecx, OFFSET ?_Iostream_object@?$_Error_objects@H@std@@2V_Iostream_error_category@2@A ; std::_Error_objects<int>::_Iostream_object
	call	??0_Iostream_error_category@std@@QAE@XZ	; std::_Iostream_error_category::_Iostream_error_category
	push	OFFSET ??__F?_Iostream_object@?$_Error_objects@H@std@@2V_Iostream_error_category@2@A@@YAXXZ ; `dynamic atexit destructor for 'std::_Error_objects<int>::_Iostream_object''
	call	_atexit
	add	esp, 4
	pop	ebp
	ret	0
??__E?_Iostream_object@?$_Error_objects@H@std@@2V_Iostream_error_category@2@A@@YAXXZ ENDP ; `dynamic initializer for 'std::_Error_objects<int>::_Iostream_object''
text$yc	ENDS
; Function compile flags: /Odtp
;	COMDAT ??__F?_Generic_object@?$_Error_objects@H@std@@2V_Generic_error_category@2@A@@YAXXZ
text$yd	SEGMENT
??__F?_Generic_object@?$_Error_objects@H@std@@2V_Generic_error_category@2@A@@YAXXZ PROC ; `dynamic atexit destructor for 'std::_Error_objects<int>::_Generic_object'', COMDAT
	push	ebp
	mov	ebp, esp
	mov	ecx, OFFSET ?_Generic_object@?$_Error_objects@H@std@@2V_Generic_error_category@2@A ; std::_Error_objects<int>::_Generic_object
	call	??1_Generic_error_category@std@@UAE@XZ
	pop	ebp
	ret	0
??__F?_Generic_object@?$_Error_objects@H@std@@2V_Generic_error_category@2@A@@YAXXZ ENDP ; `dynamic atexit destructor for 'std::_Error_objects<int>::_Generic_object''
text$yd	ENDS
; Function compile flags: /Odtp
; File c:\program files (x86)\microsoft visual studio 11.0\vc\include\xmemory0
;	COMDAT ??__E?_Generic_object@?$_Error_objects@H@std@@2V_Generic_error_category@2@A@@YAXXZ
text$yc	SEGMENT
??__E?_Generic_object@?$_Error_objects@H@std@@2V_Generic_error_category@2@A@@YAXXZ PROC ; `dynamic initializer for 'std::_Error_objects<int>::_Generic_object'', COMDAT

; 627  : 		{	// estimate maximum array size

	push	ebp
	mov	ebp, esp
	mov	ecx, OFFSET ?_Generic_object@?$_Error_objects@H@std@@2V_Generic_error_category@2@A ; std::_Error_objects<int>::_Generic_object
	call	??0_Generic_error_category@std@@QAE@XZ	; std::_Generic_error_category::_Generic_error_category
	push	OFFSET ??__F?_Generic_object@?$_Error_objects@H@std@@2V_Generic_error_category@2@A@@YAXXZ ; `dynamic atexit destructor for 'std::_Error_objects<int>::_Generic_object''
	call	_atexit
	add	esp, 4
	pop	ebp
	ret	0
??__E?_Generic_object@?$_Error_objects@H@std@@2V_Generic_error_category@2@A@@YAXXZ ENDP ; `dynamic initializer for 'std::_Error_objects<int>::_Generic_object''
text$yc	ENDS
; Function compile flags: /Odtp
; File c:\program files (x86)\microsoft visual studio 11.0\vc\include\xmemory0
;	COMDAT ??$_Allocate@D@std@@YAPADIPAD@Z
_TEXT	SEGMENT
__Ptr$ = -4						; size = 4
__Count$ = 8						; size = 4
___formal$ = 12						; size = 4
??$_Allocate@D@std@@YAPADIPAD@Z PROC			; std::_Allocate<char>, COMDAT

; 22   : 	{	// allocate storage for _Count elements of type _Ty

	push	ebp
	mov	ebp, esp
	push	ecx

; 23   : 	void *_Ptr = 0;

	mov	DWORD PTR __Ptr$[ebp], 0

; 24   : 
; 25   : 	if (_Count == 0)

	cmp	DWORD PTR __Count$[ebp], 0
	jne	SHORT $LN4@Allocate

; 26   : 		;
; 27   : 	else if (((size_t)(-1) / sizeof (_Ty) < _Count)

	jmp	SHORT $LN3@Allocate
$LN4@Allocate:

; 28   : 		|| (_Ptr = ::operator new(_Count * sizeof (_Ty))) == 0)

	cmp	DWORD PTR __Count$[ebp], -1
	ja	SHORT $LN1@Allocate
	mov	eax, DWORD PTR __Count$[ebp]
	push	eax
	call	??2@YAPAXI@Z				; operator new
	add	esp, 4
	mov	DWORD PTR __Ptr$[ebp], eax
	cmp	DWORD PTR __Ptr$[ebp], 0
	jne	SHORT $LN3@Allocate
$LN1@Allocate:

; 29   : 		_Xbad_alloc();	// report no memory

	call	?_Xbad_alloc@std@@YAXXZ			; std::_Xbad_alloc
$LN3@Allocate:

; 30   : 
; 31   : 	return ((_Ty *)_Ptr);

	mov	eax, DWORD PTR __Ptr$[ebp]
$LN6@Allocate:

; 32   : 	}

	mov	esp, ebp
	pop	ebp
	ret	0
??$_Allocate@D@std@@YAPADIPAD@Z ENDP			; std::_Allocate<char>
_TEXT	ENDS
; Function compile flags: /Odtp
; File c:\program files (x86)\microsoft visual studio 11.0\vc\include\xstddef
;	COMDAT ??$addressof@D@std@@YAPADAAD@Z
_TEXT	SEGMENT
__Val$ = 8						; size = 4
??$addressof@D@std@@YAPADAAD@Z PROC			; std::addressof<char>, COMDAT

; 85   : 	{	// return address of _Val

	push	ebp
	mov	ebp, esp

; 86   : 	return (reinterpret_cast<_Ty *>(
; 87   : 		(&const_cast<char&>(
; 88   : 		reinterpret_cast<const volatile char&>(_Val)))));

	mov	eax, DWORD PTR __Val$[ebp]

; 89   : 	}

	pop	ebp
	ret	0
??$addressof@D@std@@YAPADAAD@Z ENDP			; std::addressof<char>
_TEXT	ENDS
; Function compile flags: /Odtp
; File c:\program files (x86)\microsoft visual studio 11.0\vc\include\xmemory0
;	COMDAT ??$destroy@PAD@?$_Wrap_alloc@V?$allocator@D@std@@@std@@QAEXPAPAD@Z
_TEXT	SEGMENT
_this$ = -4						; size = 4
__Ptr$ = 8						; size = 4
??$destroy@PAD@?$_Wrap_alloc@V?$allocator@D@std@@@std@@QAEXPAPAD@Z PROC ; std::_Wrap_alloc<std::allocator<char> >::destroy<char *>, COMDAT
; _this$ = ecx

; 907  : 		void destroy(_Ty *_Ptr)

	push	ebp
	mov	ebp, esp
	push	ecx
	mov	DWORD PTR _this$[ebp], ecx

; 908  : 		{	// destroy object at _Ptr
; 909  : 		_Mytraits::destroy(*this, _Ptr);

	mov	eax, DWORD PTR __Ptr$[ebp]
	push	eax
	mov	ecx, DWORD PTR _this$[ebp]
	push	ecx
	call	??$destroy@PAD@?$allocator_traits@V?$allocator@D@std@@@std@@SAXAAV?$allocator@D@1@PAPAD@Z ; std::allocator_traits<std::allocator<char> >::destroy<char *>
	add	esp, 8

; 910  : 		}

	mov	esp, ebp
	pop	ebp
	ret	4
??$destroy@PAD@?$_Wrap_alloc@V?$allocator@D@std@@@std@@QAEXPAPAD@Z ENDP ; std::_Wrap_alloc<std::allocator<char> >::destroy<char *>
_TEXT	ENDS
; Function compile flags: /Odtp
; File c:\program files (x86)\microsoft visual studio 11.0\vc\include\xmemory0
;	COMDAT ??$construct@PADAAPAD@?$_Wrap_alloc@V?$allocator@D@std@@@std@@QAEXPAPADAAPAD@Z
_TEXT	SEGMENT
_this$ = -4						; size = 4
__Ptr$ = 8						; size = 4
__V0$ = 12						; size = 4
??$construct@PADAAPAD@?$_Wrap_alloc@V?$allocator@D@std@@@std@@QAEXPAPADAAPAD@Z PROC ; std::_Wrap_alloc<std::allocator<char> >::construct<char *,char * &>, COMDAT
; _this$ = ecx

; 903  : _VARIADIC_EXPAND_0X(_WRAP_ALLOC_CONSTRUCT, , , , )

	push	ebp
	mov	ebp, esp
	push	ecx
	mov	DWORD PTR _this$[ebp], ecx
	mov	eax, DWORD PTR __V0$[ebp]
	push	eax
	call	??$forward@AAPAD@std@@YAAAPADAAPAD@Z	; std::forward<char * &>
	add	esp, 4
	push	eax
	mov	ecx, DWORD PTR __Ptr$[ebp]
	push	ecx
	mov	edx, DWORD PTR _this$[ebp]
	push	edx
	call	??$construct@PADAAPAD@?$allocator_traits@V?$allocator@D@std@@@std@@SAXAAV?$allocator@D@1@PAPADAAPAD@Z ; std::allocator_traits<std::allocator<char> >::construct<char *,char * &>
	add	esp, 12					; 0000000cH
	mov	esp, ebp
	pop	ebp
	ret	8
??$construct@PADAAPAD@?$_Wrap_alloc@V?$allocator@D@std@@@std@@QAEXPAPADAAPAD@Z ENDP ; std::_Wrap_alloc<std::allocator<char> >::construct<char *,char * &>
_TEXT	ENDS
; Function compile flags: /Odtp
; File c:\users\zhitao li\documents\visual studio 2012\projects\freefalcon\falclib\include\fakerand.h
;	COMDAT ?PRANDFloat@@YAMXZ
_TEXT	SEGMENT
tv75 = -8						; size = 4
_x$ = -4						; size = 4
?PRANDFloat@@YAMXZ PROC					; PRANDFloat, COMDAT

; 143  : {

	push	ebp
	mov	ebp, esp
	sub	esp, 8

; 144  : //	return NRAND;
; 145  : 	float	x=	(float)(GenerateFastRandom()&0xffff);

	call	?GenerateFastRandom@@YAJXZ		; GenerateFastRandom
	and	eax, 65535				; 0000ffffH
	cvtsi2ss xmm0, eax
	movss	DWORD PTR _x$[ebp], xmm0

; 146  : 	return( 1 - 2 * x / 65535.0f);

	movss	xmm0, DWORD PTR __real@40000000
	mulss	xmm0, DWORD PTR _x$[ebp]
	divss	xmm0, DWORD PTR __real@477fff00
	movss	xmm1, DWORD PTR __real@3f800000
	subss	xmm1, xmm0
	movss	DWORD PTR tv75[ebp], xmm1
	fld	DWORD PTR tv75[ebp]

; 147  : }

	mov	esp, ebp
	pop	ebp
	ret	0
?PRANDFloat@@YAMXZ ENDP					; PRANDFloat
_TEXT	ENDS
; Function compile flags: /Odtp
; File c:\users\zhitao li\documents\visual studio 2012\projects\freefalcon\falclib\include\fakerand.h
;	COMDAT ?GenerateFastRandom@@YAJXZ
_TEXT	SEGMENT
_FastRandom$ = -4					; size = 4
?GenerateFastRandom@@YAJXZ PROC				; GenerateFastRandom, COMDAT

; 108  : {

	push	ebp
	mov	ebp, esp
	push	ecx

; 109  : 	static long LastRandom;
; 110  : 	long	FastRandom;														// The Random Variable
; 111  : 	_asm {	
; 112  : 			push	edx

	push	edx

; 113  : 			push	eax

	push	eax

; 114  : 			RDTSC

	rdtsc

; 115  : 			add	DWORD PTR FastRandom,edx

	add	DWORD PTR _FastRandom$[ebp], edx

; 116  : 			xor	DWORD PTR FastRandom,eax

	xor	DWORD PTR _FastRandom$[ebp], eax

; 117  : 			mov	eax, DWORD PTR LastRandom

	mov	eax, DWORD PTR ?LastRandom@?1??GenerateFastRandom@@YAJXZ@4JA ; `GenerateFastRandom'::`2'::LastRandom

; 118  : 			add	DWORD PTR FastRandom,eax

	add	DWORD PTR _FastRandom$[ebp], eax

; 119  : 			add	DWORD PTR LastRandom,edx

	add	DWORD PTR ?LastRandom@?1??GenerateFastRandom@@YAJXZ@4JA, edx ; `GenerateFastRandom'::`2'::LastRandom

; 120  : 			pop	eax

	pop	eax

; 121  : 			pop	edx

	pop	edx

; 122  : 	}
; 123  : 	return(FastRandom);

	mov	eax, DWORD PTR _FastRandom$[ebp]

; 124  : }

	mov	esp, ebp
	pop	ebp
	ret	0
?GenerateFastRandom@@YAJXZ ENDP				; GenerateFastRandom
_TEXT	ENDS
; Function compile flags: /Odtp
; File c:\users\zhitao li\documents\visual studio 2012\projects\freefalcon\sim\include\sms.h
;	COMDAT ?SetMasterArm@SMSBaseClass@@QAEXW4MasterArmState@1@@Z
_TEXT	SEGMENT
_this$ = -4						; size = 4
_newState$ = 8						; size = 4
?SetMasterArm@SMSBaseClass@@QAEXW4MasterArmState@1@@Z PROC ; SMSBaseClass::SetMasterArm, COMDAT
; _this$ = ecx

; 93   : 	void SetMasterArm (MasterArmState newState) {masterArm = newState;};

	push	ebp
	mov	ebp, esp
	push	ecx
	mov	DWORD PTR _this$[ebp], ecx
	mov	eax, DWORD PTR _this$[ebp]
	mov	ecx, DWORD PTR _newState$[ebp]
	mov	DWORD PTR [eax+8], ecx
	mov	esp, ebp
	pop	ebp
	ret	4
?SetMasterArm@SMSBaseClass@@QAEXW4MasterArmState@1@@Z ENDP ; SMSBaseClass::SetMasterArm
_TEXT	ENDS
; Function compile flags: /Odtp
; File c:\users\zhitao li\documents\visual studio 2012\projects\freefalcon\sim\include\sms.h
;	COMDAT ?CurHardpoint@SMSBaseClass@@QAEHXZ
_TEXT	SEGMENT
_this$ = -4						; size = 4
?CurHardpoint@SMSBaseClass@@QAEHXZ PROC			; SMSBaseClass::CurHardpoint, COMDAT
; _this$ = ecx

; 88   : 	int CurHardpoint (void) {return curHardpoint;};

	push	ebp
	mov	ebp, esp
	push	ecx
	mov	DWORD PTR _this$[ebp], ecx
	mov	eax, DWORD PTR _this$[ebp]
	mov	eax, DWORD PTR [eax+44]
	mov	esp, ebp
	pop	ebp
	ret	0
?CurHardpoint@SMSBaseClass@@QAEHXZ ENDP			; SMSBaseClass::CurHardpoint
_TEXT	ENDS
; Function compile flags: /Odtp
; File c:\users\zhitao li\documents\visual studio 2012\projects\freefalcon\sim\include\sms.h
;	COMDAT ?NumHardpoints@SMSBaseClass@@QAEHXZ
_TEXT	SEGMENT
_this$ = -4						; size = 4
?NumHardpoints@SMSBaseClass@@QAEHXZ PROC		; SMSBaseClass::NumHardpoints, COMDAT
; _this$ = ecx

; 87   : 	int NumHardpoints (void) {return numHardpoints;};

	push	ebp
	mov	ebp, esp
	push	ecx
	mov	DWORD PTR _this$[ebp], ecx
	mov	eax, DWORD PTR _this$[ebp]
	mov	eax, DWORD PTR [eax+40]
	mov	esp, ebp
	pop	ebp
	ret	0
?NumHardpoints@SMSBaseClass@@QAEHXZ ENDP		; SMSBaseClass::NumHardpoints
_TEXT	ENDS
; Function compile flags: /Odtp
; File c:\users\zhitao li\documents\visual studio 2012\projects\freefalcon\sim\include\sms.h
;	COMDAT ?GetCurrentWeaponHardpoint@SMSBaseClass@@QAEHXZ
_TEXT	SEGMENT
_this$ = -4						; size = 4
?GetCurrentWeaponHardpoint@SMSBaseClass@@QAEHXZ PROC	; SMSBaseClass::GetCurrentWeaponHardpoint, COMDAT
; _this$ = ecx

; 79   : 	int GetCurrentWeaponHardpoint (void)			{ return curHardpoint; };

	push	ebp
	mov	ebp, esp
	push	ecx
	mov	DWORD PTR _this$[ebp], ecx
	mov	eax, DWORD PTR _this$[ebp]
	mov	eax, DWORD PTR [eax+44]
	mov	esp, ebp
	pop	ebp
	ret	0
?GetCurrentWeaponHardpoint@SMSBaseClass@@QAEHXZ ENDP	; SMSBaseClass::GetCurrentWeaponHardpoint
_TEXT	ENDS
; Function compile flags: /Odtp
; File c:\users\zhitao li\documents\visual studio 2012\projects\freefalcon\sim\include\fcc.h
;	COMDAT ?GetMasterMode@FireControlComputer@@QAE?AW4FCCMasterMode@1@XZ
_TEXT	SEGMENT
_this$ = -4						; size = 4
?GetMasterMode@FireControlComputer@@QAE?AW4FCCMasterMode@1@XZ PROC ; FireControlComputer::GetMasterMode, COMDAT
; _this$ = ecx

; 276  : 	FCCMasterMode GetMasterMode (void) {return (masterMode);};

	push	ebp
	mov	ebp, esp
	push	ecx
	mov	DWORD PTR _this$[ebp], ecx
	mov	eax, DWORD PTR _this$[ebp]
	mov	eax, DWORD PTR [eax+144]
	mov	esp, ebp
	pop	ebp
	ret	0
?GetMasterMode@FireControlComputer@@QAE?AW4FCCMasterMode@1@XZ ENDP ; FireControlComputer::GetMasterMode
_TEXT	ENDS
; Function compile flags: /Odtp
; File c:\users\zhitao li\documents\visual studio 2012\projects\freefalcon\graphics\include\drawobj.h
;	COMDAT ?GetPosition@DrawableObject@@QAEXPAUTpoint@@@Z
_TEXT	SEGMENT
_this$ = -4						; size = 4
_pos$ = 8						; size = 4
?GetPosition@DrawableObject@@QAEXPAUTpoint@@@Z PROC	; DrawableObject::GetPosition, COMDAT
; _this$ = ecx

; 28   : 	void GetPosition(Tpoint* pos){ *pos = position; }

	push	ebp
	mov	ebp, esp
	push	ecx
	mov	DWORD PTR _this$[ebp], ecx
	mov	eax, DWORD PTR _this$[ebp]
	add	eax, 4
	mov	ecx, DWORD PTR _pos$[ebp]
	mov	edx, DWORD PTR [eax]
	mov	DWORD PTR [ecx], edx
	mov	edx, DWORD PTR [eax+4]
	mov	DWORD PTR [ecx+4], edx
	mov	eax, DWORD PTR [eax+8]
	mov	DWORD PTR [ecx+8], eax
	mov	esp, ebp
	pop	ebp
	ret	4
?GetPosition@DrawableObject@@QAEXPAUTpoint@@@Z ENDP	; DrawableObject::GetPosition
_TEXT	ENDS
; Function compile flags: /Odtp
;	COMDAT ??_G_System_error_category@std@@UAEPAXI@Z
_TEXT	SEGMENT
_this$ = -4						; size = 4
___flags$ = 8						; size = 4
??_G_System_error_category@std@@UAEPAXI@Z PROC		; std::_System_error_category::`scalar deleting destructor', COMDAT
; _this$ = ecx
	push	ebp
	mov	ebp, esp
	push	ecx
	mov	DWORD PTR _this$[ebp], ecx
	mov	ecx, DWORD PTR _this$[ebp]
	call	??1_System_error_category@std@@UAE@XZ
	mov	eax, DWORD PTR ___flags$[ebp]
	and	eax, 1
	je	SHORT $LN1@scalar
	mov	ecx, DWORD PTR _this$[ebp]
	push	ecx
	call	??3@YAXPAX@Z				; operator delete
	add	esp, 4
$LN1@scalar:
	mov	eax, DWORD PTR _this$[ebp]
	mov	esp, ebp
	pop	ebp
	ret	4
??_G_System_error_category@std@@UAEPAXI@Z ENDP		; std::_System_error_category::`scalar deleting destructor'
_TEXT	ENDS
; Function compile flags: /Odtp
;	COMDAT ??1_System_error_category@std@@UAE@XZ
_TEXT	SEGMENT
_this$ = -4						; size = 4
??1_System_error_category@std@@UAE@XZ PROC		; std::_System_error_category::~_System_error_category, COMDAT
; _this$ = ecx
	push	ebp
	mov	ebp, esp
	push	ecx
	mov	DWORD PTR _this$[ebp], ecx
	mov	ecx, DWORD PTR _this$[ebp]
	call	??1_Generic_error_category@std@@UAE@XZ
	mov	esp, ebp
	pop	ebp
	ret	0
??1_System_error_category@std@@UAE@XZ ENDP		; std::_System_error_category::~_System_error_category
_TEXT	ENDS
; Function compile flags: /Odtp
; File c:\program files (x86)\microsoft visual studio 11.0\vc\include\system_error
;	COMDAT ?default_error_condition@_System_error_category@std@@UBE?AVerror_condition@2@H@Z
_TEXT	SEGMENT
_this$ = -4						; size = 4
___$ReturnUdt$ = 8					; size = 4
__Errval$ = 12						; size = 4
?default_error_condition@_System_error_category@std@@UBE?AVerror_condition@2@H@Z PROC ; std::_System_error_category::default_error_condition, COMDAT
; _this$ = ecx

; 641  : 		{	// make error_condition for error code (generic if possible)

	push	ebp
	mov	ebp, esp
	push	ecx
	mov	DWORD PTR _this$[ebp], ecx

; 642  : 		if (_Syserror_map(_Errval))

	mov	eax, DWORD PTR __Errval$[ebp]
	push	eax
	call	?_Syserror_map@std@@YAPBDH@Z		; std::_Syserror_map
	add	esp, 4
	test	eax, eax
	je	SHORT $LN2@default_er

; 643  : 			return (error_condition(_Errval, generic_category()));

	call	?generic_category@std@@YAABVerror_category@1@XZ ; std::generic_category
	push	eax
	mov	ecx, DWORD PTR __Errval$[ebp]
	push	ecx
	mov	ecx, DWORD PTR ___$ReturnUdt$[ebp]
	call	??0error_condition@std@@QAE@HABVerror_category@1@@Z ; std::error_condition::error_condition
	mov	eax, DWORD PTR ___$ReturnUdt$[ebp]
	jmp	SHORT $LN3@default_er

; 644  : 		else

	jmp	SHORT $LN3@default_er
$LN2@default_er:

; 645  : 			return (error_condition(_Errval, system_category()));

	call	?system_category@std@@YAABVerror_category@1@XZ ; std::system_category
	push	eax
	mov	edx, DWORD PTR __Errval$[ebp]
	push	edx
	mov	ecx, DWORD PTR ___$ReturnUdt$[ebp]
	call	??0error_condition@std@@QAE@HABVerror_category@1@@Z ; std::error_condition::error_condition
	mov	eax, DWORD PTR ___$ReturnUdt$[ebp]
$LN3@default_er:

; 646  : 		}

	mov	esp, ebp
	pop	ebp
	ret	8
?default_error_condition@_System_error_category@std@@UBE?AVerror_condition@2@H@Z ENDP ; std::_System_error_category::default_error_condition
_TEXT	ENDS
; Function compile flags: /Odtp
; File c:\program files (x86)\microsoft visual studio 11.0\vc\include\system_error
;	COMDAT ?message@_System_error_category@std@@UBE?AV?$basic_string@DU?$char_traits@D@std@@V?$allocator@D@2@@2@H@Z
_TEXT	SEGMENT
_this$ = -16						; size = 4
$T1 = -12						; size = 4
tv69 = -8						; size = 4
__Name$ = -4						; size = 4
___$ReturnUdt$ = 8					; size = 4
__Errcode$ = 12						; size = 4
?message@_System_error_category@std@@UBE?AV?$basic_string@DU?$char_traits@D@std@@V?$allocator@D@2@@2@H@Z PROC ; std::_System_error_category::message, COMDAT
; _this$ = ecx

; 634  : 		{	// convert to name of error

	push	ebp
	mov	ebp, esp
	sub	esp, 16					; 00000010H
	mov	DWORD PTR _this$[ebp], ecx
	mov	DWORD PTR $T1[ebp], 0

; 635  : 		const char *_Name = _Winerror_map(_Errcode);

	mov	eax, DWORD PTR __Errcode$[ebp]
	push	eax
	call	?_Winerror_map@std@@YAPBDH@Z		; std::_Winerror_map
	add	esp, 4
	mov	DWORD PTR __Name$[ebp], eax

; 636  : 		return (string(_Name != 0 ? _Name : "unknown error"));

	cmp	DWORD PTR __Name$[ebp], 0
	je	SHORT $LN3@message
	mov	ecx, DWORD PTR __Name$[ebp]
	mov	DWORD PTR tv69[ebp], ecx
	jmp	SHORT $LN4@message
$LN3@message:
	mov	DWORD PTR tv69[ebp], OFFSET ??_C@_0O@BFJCFAAK@unknown?5error?$AA@
$LN4@message:
	mov	edx, DWORD PTR tv69[ebp]
	push	edx
	mov	ecx, DWORD PTR ___$ReturnUdt$[ebp]
	call	??0?$basic_string@DU?$char_traits@D@std@@V?$allocator@D@2@@std@@QAE@PBD@Z ; std::basic_string<char,std::char_traits<char>,std::allocator<char> >::basic_string<char,std::char_traits<char>,std::allocator<char> >
	mov	eax, DWORD PTR $T1[ebp]
	or	eax, 1
	mov	DWORD PTR $T1[ebp], eax
	mov	eax, DWORD PTR ___$ReturnUdt$[ebp]

; 637  : 		}

	mov	esp, ebp
	pop	ebp
	ret	8
?message@_System_error_category@std@@UBE?AV?$basic_string@DU?$char_traits@D@std@@V?$allocator@D@2@@2@H@Z ENDP ; std::_System_error_category::message
_TEXT	ENDS
; Function compile flags: /Odtp
; File c:\program files (x86)\microsoft visual studio 11.0\vc\include\system_error
;	COMDAT ?name@_System_error_category@std@@UBEPBDXZ
_TEXT	SEGMENT
_this$ = -4						; size = 4
?name@_System_error_category@std@@UBEPBDXZ PROC		; std::_System_error_category::name, COMDAT
; _this$ = ecx

; 629  : 		{	// get name of category

	push	ebp
	mov	ebp, esp
	push	ecx
	mov	DWORD PTR _this$[ebp], ecx

; 630  : 		return ("system");

	mov	eax, OFFSET ??_C@_06FHFOAHML@system?$AA@

; 631  : 		}

	mov	esp, ebp
	pop	ebp
	ret	0
?name@_System_error_category@std@@UBEPBDXZ ENDP		; std::_System_error_category::name
_TEXT	ENDS
; Function compile flags: /Odtp
; File c:\program files (x86)\microsoft visual studio 11.0\vc\include\system_error
;	COMDAT ??0_System_error_category@std@@QAE@XZ
_TEXT	SEGMENT
_this$ = -4						; size = 4
??0_System_error_category@std@@QAE@XZ PROC		; std::_System_error_category::_System_error_category, COMDAT
; _this$ = ecx

; 624  : 	_System_error_category()

	push	ebp
	mov	ebp, esp
	push	ecx
	mov	DWORD PTR _this$[ebp], ecx
	mov	ecx, DWORD PTR _this$[ebp]
	call	??0_Generic_error_category@std@@QAE@XZ	; std::_Generic_error_category::_Generic_error_category
	mov	eax, DWORD PTR _this$[ebp]
	mov	DWORD PTR [eax], OFFSET ??_7_System_error_category@std@@6B@

; 625  : 		{	// default constructor
; 626  : 		}

	mov	eax, DWORD PTR _this$[ebp]
	mov	esp, ebp
	pop	ebp
	ret	0
??0_System_error_category@std@@QAE@XZ ENDP		; std::_System_error_category::_System_error_category
_TEXT	ENDS
; Function compile flags: /Odtp
;	COMDAT ??_G_Iostream_error_category@std@@UAEPAXI@Z
_TEXT	SEGMENT
_this$ = -4						; size = 4
___flags$ = 8						; size = 4
??_G_Iostream_error_category@std@@UAEPAXI@Z PROC	; std::_Iostream_error_category::`scalar deleting destructor', COMDAT
; _this$ = ecx
	push	ebp
	mov	ebp, esp
	push	ecx
	mov	DWORD PTR _this$[ebp], ecx
	mov	ecx, DWORD PTR _this$[ebp]
	call	??1_Iostream_error_category@std@@UAE@XZ
	mov	eax, DWORD PTR ___flags$[ebp]
	and	eax, 1
	je	SHORT $LN1@scalar
	mov	ecx, DWORD PTR _this$[ebp]
	push	ecx
	call	??3@YAXPAX@Z				; operator delete
	add	esp, 4
$LN1@scalar:
	mov	eax, DWORD PTR _this$[ebp]
	mov	esp, ebp
	pop	ebp
	ret	4
??_G_Iostream_error_category@std@@UAEPAXI@Z ENDP	; std::_Iostream_error_category::`scalar deleting destructor'
_TEXT	ENDS
; Function compile flags: /Odtp
;	COMDAT ??1_Iostream_error_category@std@@UAE@XZ
_TEXT	SEGMENT
_this$ = -4						; size = 4
??1_Iostream_error_category@std@@UAE@XZ PROC		; std::_Iostream_error_category::~_Iostream_error_category, COMDAT
; _this$ = ecx
	push	ebp
	mov	ebp, esp
	push	ecx
	mov	DWORD PTR _this$[ebp], ecx
	mov	ecx, DWORD PTR _this$[ebp]
	call	??1_Generic_error_category@std@@UAE@XZ
	mov	esp, ebp
	pop	ebp
	ret	0
??1_Iostream_error_category@std@@UAE@XZ ENDP		; std::_Iostream_error_category::~_Iostream_error_category
_TEXT	ENDS
; Function compile flags: /Odtp
; File c:\program files (x86)\microsoft visual studio 11.0\vc\include\system_error
;	COMDAT ?message@_Iostream_error_category@std@@UBE?AV?$basic_string@DU?$char_traits@D@std@@V?$allocator@D@2@@2@H@Z
_TEXT	SEGMENT
_this$ = -8						; size = 4
$T1 = -4						; size = 4
___$ReturnUdt$ = 8					; size = 4
__Errcode$ = 12						; size = 4
?message@_Iostream_error_category@std@@UBE?AV?$basic_string@DU?$char_traits@D@std@@V?$allocator@D@2@@2@H@Z PROC ; std::_Iostream_error_category::message, COMDAT
; _this$ = ecx

; 611  : 		{	// convert to name of error

	push	ebp
	mov	ebp, esp
	sub	esp, 8
	mov	DWORD PTR _this$[ebp], ecx
	mov	DWORD PTR $T1[ebp], 0

; 612  : 		if (_Errcode == (int)io_errc::stream)

	cmp	DWORD PTR __Errcode$[ebp], 1
	jne	SHORT $LN2@message

; 613  : 			return ("iostream stream error");

	push	OFFSET ??_C@_0BG@PADBLCHM@iostream?5stream?5error?$AA@
	mov	ecx, DWORD PTR ___$ReturnUdt$[ebp]
	call	??0?$basic_string@DU?$char_traits@D@std@@V?$allocator@D@2@@std@@QAE@PBD@Z ; std::basic_string<char,std::char_traits<char>,std::allocator<char> >::basic_string<char,std::char_traits<char>,std::allocator<char> >
	mov	eax, DWORD PTR $T1[ebp]
	or	eax, 1
	mov	DWORD PTR $T1[ebp], eax
	mov	eax, DWORD PTR ___$ReturnUdt$[ebp]
	jmp	SHORT $LN3@message

; 614  : 		else

	jmp	SHORT $LN3@message
$LN2@message:

; 615  : 			return (_Generic_error_category::message(_Errcode));

	mov	ecx, DWORD PTR __Errcode$[ebp]
	push	ecx
	mov	edx, DWORD PTR ___$ReturnUdt$[ebp]
	push	edx
	mov	ecx, DWORD PTR _this$[ebp]
	call	?message@_Generic_error_category@std@@UBE?AV?$basic_string@DU?$char_traits@D@std@@V?$allocator@D@2@@2@H@Z ; std::_Generic_error_category::message
	mov	eax, DWORD PTR $T1[ebp]
	or	eax, 1
	mov	DWORD PTR $T1[ebp], eax
	mov	eax, DWORD PTR ___$ReturnUdt$[ebp]
$LN3@message:

; 616  : 		}

	mov	esp, ebp
	pop	ebp
	ret	8
?message@_Iostream_error_category@std@@UBE?AV?$basic_string@DU?$char_traits@D@std@@V?$allocator@D@2@@2@H@Z ENDP ; std::_Iostream_error_category::message
_TEXT	ENDS
; Function compile flags: /Odtp
; File c:\program files (x86)\microsoft visual studio 11.0\vc\include\system_error
;	COMDAT ?name@_Iostream_error_category@std@@UBEPBDXZ
_TEXT	SEGMENT
_this$ = -4						; size = 4
?name@_Iostream_error_category@std@@UBEPBDXZ PROC	; std::_Iostream_error_category::name, COMDAT
; _this$ = ecx

; 606  : 		{	// get name of category

	push	ebp
	mov	ebp, esp
	push	ecx
	mov	DWORD PTR _this$[ebp], ecx

; 607  : 		return ("iostream");

	mov	eax, OFFSET ??_C@_08LLGCOLLL@iostream?$AA@

; 608  : 		}

	mov	esp, ebp
	pop	ebp
	ret	0
?name@_Iostream_error_category@std@@UBEPBDXZ ENDP	; std::_Iostream_error_category::name
_TEXT	ENDS
; Function compile flags: /Odtp
; File c:\program files (x86)\microsoft visual studio 11.0\vc\include\system_error
;	COMDAT ??0_Iostream_error_category@std@@QAE@XZ
_TEXT	SEGMENT
_this$ = -4						; size = 4
??0_Iostream_error_category@std@@QAE@XZ PROC		; std::_Iostream_error_category::_Iostream_error_category, COMDAT
; _this$ = ecx

; 601  : 	_Iostream_error_category()

	push	ebp
	mov	ebp, esp
	push	ecx
	mov	DWORD PTR _this$[ebp], ecx
	mov	ecx, DWORD PTR _this$[ebp]
	call	??0_Generic_error_category@std@@QAE@XZ	; std::_Generic_error_category::_Generic_error_category
	mov	eax, DWORD PTR _this$[ebp]
	mov	DWORD PTR [eax], OFFSET ??_7_Iostream_error_category@std@@6B@

; 602  : 		{	// default constructor
; 603  : 		}

	mov	eax, DWORD PTR _this$[ebp]
	mov	esp, ebp
	pop	ebp
	ret	0
??0_Iostream_error_category@std@@QAE@XZ ENDP		; std::_Iostream_error_category::_Iostream_error_category
_TEXT	ENDS
; Function compile flags: /Odtp
;	COMDAT ??_G_Generic_error_category@std@@UAEPAXI@Z
_TEXT	SEGMENT
_this$ = -4						; size = 4
___flags$ = 8						; size = 4
??_G_Generic_error_category@std@@UAEPAXI@Z PROC		; std::_Generic_error_category::`scalar deleting destructor', COMDAT
; _this$ = ecx
	push	ebp
	mov	ebp, esp
	push	ecx
	mov	DWORD PTR _this$[ebp], ecx
	mov	ecx, DWORD PTR _this$[ebp]
	call	??1_Generic_error_category@std@@UAE@XZ
	mov	eax, DWORD PTR ___flags$[ebp]
	and	eax, 1
	je	SHORT $LN1@scalar
	mov	ecx, DWORD PTR _this$[ebp]
	push	ecx
	call	??3@YAXPAX@Z				; operator delete
	add	esp, 4
$LN1@scalar:
	mov	eax, DWORD PTR _this$[ebp]
	mov	esp, ebp
	pop	ebp
	ret	4
??_G_Generic_error_category@std@@UAEPAXI@Z ENDP		; std::_Generic_error_category::`scalar deleting destructor'
_TEXT	ENDS
; Function compile flags: /Odtp
;	COMDAT ??1_Generic_error_category@std@@UAE@XZ
_TEXT	SEGMENT
_this$ = -4						; size = 4
??1_Generic_error_category@std@@UAE@XZ PROC		; std::_Generic_error_category::~_Generic_error_category, COMDAT
; _this$ = ecx
	push	ebp
	mov	ebp, esp
	push	ecx
	mov	DWORD PTR _this$[ebp], ecx
	mov	ecx, DWORD PTR _this$[ebp]
	call	??1error_category@std@@UAE@XZ		; std::error_category::~error_category
	mov	esp, ebp
	pop	ebp
	ret	0
??1_Generic_error_category@std@@UAE@XZ ENDP		; std::_Generic_error_category::~_Generic_error_category
_TEXT	ENDS
; Function compile flags: /Odtp
; File c:\program files (x86)\microsoft visual studio 11.0\vc\include\system_error
;	COMDAT ?message@_Generic_error_category@std@@UBE?AV?$basic_string@DU?$char_traits@D@std@@V?$allocator@D@2@@2@H@Z
_TEXT	SEGMENT
_this$ = -16						; size = 4
$T1 = -12						; size = 4
tv69 = -8						; size = 4
__Name$ = -4						; size = 4
___$ReturnUdt$ = 8					; size = 4
__Errcode$ = 12						; size = 4
?message@_Generic_error_category@std@@UBE?AV?$basic_string@DU?$char_traits@D@std@@V?$allocator@D@2@@2@H@Z PROC ; std::_Generic_error_category::message, COMDAT
; _this$ = ecx

; 590  : 		{	// convert to name of error

	push	ebp
	mov	ebp, esp
	sub	esp, 16					; 00000010H
	mov	DWORD PTR _this$[ebp], ecx
	mov	DWORD PTR $T1[ebp], 0

; 591  : 		const char *_Name = _Syserror_map(_Errcode);

	mov	eax, DWORD PTR __Errcode$[ebp]
	push	eax
	call	?_Syserror_map@std@@YAPBDH@Z		; std::_Syserror_map
	add	esp, 4
	mov	DWORD PTR __Name$[ebp], eax

; 592  : 		return (string(_Name != 0 ? _Name : "unknown error"));

	cmp	DWORD PTR __Name$[ebp], 0
	je	SHORT $LN3@message
	mov	ecx, DWORD PTR __Name$[ebp]
	mov	DWORD PTR tv69[ebp], ecx
	jmp	SHORT $LN4@message
$LN3@message:
	mov	DWORD PTR tv69[ebp], OFFSET ??_C@_0O@BFJCFAAK@unknown?5error?$AA@
$LN4@message:
	mov	edx, DWORD PTR tv69[ebp]
	push	edx
	mov	ecx, DWORD PTR ___$ReturnUdt$[ebp]
	call	??0?$basic_string@DU?$char_traits@D@std@@V?$allocator@D@2@@std@@QAE@PBD@Z ; std::basic_string<char,std::char_traits<char>,std::allocator<char> >::basic_string<char,std::char_traits<char>,std::allocator<char> >
	mov	eax, DWORD PTR $T1[ebp]
	or	eax, 1
	mov	DWORD PTR $T1[ebp], eax
	mov	eax, DWORD PTR ___$ReturnUdt$[ebp]

; 593  : 		}

	mov	esp, ebp
	pop	ebp
	ret	8
?message@_Generic_error_category@std@@UBE?AV?$basic_string@DU?$char_traits@D@std@@V?$allocator@D@2@@2@H@Z ENDP ; std::_Generic_error_category::message
_TEXT	ENDS
; Function compile flags: /Odtp
; File c:\program files (x86)\microsoft visual studio 11.0\vc\include\system_error
;	COMDAT ?name@_Generic_error_category@std@@UBEPBDXZ
_TEXT	SEGMENT
_this$ = -4						; size = 4
?name@_Generic_error_category@std@@UBEPBDXZ PROC	; std::_Generic_error_category::name, COMDAT
; _this$ = ecx

; 585  : 		{	// get name of category

	push	ebp
	mov	ebp, esp
	push	ecx
	mov	DWORD PTR _this$[ebp], ecx

; 586  : 		return ("generic");

	mov	eax, OFFSET ??_C@_07DCLBNMLN@generic?$AA@

; 587  : 		}

	mov	esp, ebp
	pop	ebp
	ret	0
?name@_Generic_error_category@std@@UBEPBDXZ ENDP	; std::_Generic_error_category::name
_TEXT	ENDS
; Function compile flags: /Odtp
; File c:\program files (x86)\microsoft visual studio 11.0\vc\include\system_error
;	COMDAT ??0_Generic_error_category@std@@QAE@XZ
_TEXT	SEGMENT
_this$ = -4						; size = 4
??0_Generic_error_category@std@@QAE@XZ PROC		; std::_Generic_error_category::_Generic_error_category, COMDAT
; _this$ = ecx

; 580  : 	_Generic_error_category()

	push	ebp
	mov	ebp, esp
	push	ecx
	mov	DWORD PTR _this$[ebp], ecx
	mov	ecx, DWORD PTR _this$[ebp]
	call	??0error_category@std@@QAE@XZ		; std::error_category::error_category
	mov	eax, DWORD PTR _this$[ebp]
	mov	DWORD PTR [eax], OFFSET ??_7_Generic_error_category@std@@6B@

; 581  : 		{	// default constructor
; 582  : 		}

	mov	eax, DWORD PTR _this$[ebp]
	mov	esp, ebp
	pop	ebp
	ret	0
??0_Generic_error_category@std@@QAE@XZ ENDP		; std::_Generic_error_category::_Generic_error_category
_TEXT	ENDS
; Function compile flags: /Odtp
; File c:\program files (x86)\microsoft visual studio 11.0\vc\include\system_error
;	COMDAT ??8error_condition@std@@QBE_NABV01@@Z
_TEXT	SEGMENT
tv78 = -8						; size = 4
_this$ = -4						; size = 4
__Right$ = 8						; size = 4
??8error_condition@std@@QBE_NABV01@@Z PROC		; std::error_condition::operator==, COMDAT
; _this$ = ecx

; 376  : 		{	// test if *this == _Right

	push	ebp
	mov	ebp, esp
	sub	esp, 8
	push	esi
	mov	DWORD PTR _this$[ebp], ecx

; 377  : 		return (category() == _Right.category()
; 378  : 			&& value() == _Right.value());

	mov	ecx, DWORD PTR __Right$[ebp]
	call	?category@error_condition@std@@QBEABVerror_category@2@XZ ; std::error_condition::category
	push	eax
	mov	ecx, DWORD PTR _this$[ebp]
	call	?category@error_condition@std@@QBEABVerror_category@2@XZ ; std::error_condition::category
	mov	ecx, eax
	call	??8error_category@std@@QBE_NABV01@@Z	; std::error_category::operator==
	movzx	eax, al
	test	eax, eax
	je	SHORT $LN3@operator
	mov	ecx, DWORD PTR _this$[ebp]
	call	?value@error_condition@std@@QBEHXZ	; std::error_condition::value
	mov	esi, eax
	mov	ecx, DWORD PTR __Right$[ebp]
	call	?value@error_condition@std@@QBEHXZ	; std::error_condition::value
	cmp	esi, eax
	jne	SHORT $LN3@operator
	mov	DWORD PTR tv78[ebp], 1
	jmp	SHORT $LN4@operator
$LN3@operator:
	mov	DWORD PTR tv78[ebp], 0
$LN4@operator:
	mov	al, BYTE PTR tv78[ebp]

; 379  : 		}

	pop	esi
	mov	esp, ebp
	pop	ebp
	ret	4
??8error_condition@std@@QBE_NABV01@@Z ENDP		; std::error_condition::operator==
_TEXT	ENDS
; Function compile flags: /Odtp
; File c:\program files (x86)\microsoft visual studio 11.0\vc\include\system_error
;	COMDAT ?category@error_condition@std@@QBEABVerror_category@2@XZ
_TEXT	SEGMENT
_this$ = -4						; size = 4
?category@error_condition@std@@QBEABVerror_category@2@XZ PROC ; std::error_condition::category, COMDAT
; _this$ = ecx

; 354  : 		{	// get category

	push	ebp
	mov	ebp, esp
	push	ecx
	mov	DWORD PTR _this$[ebp], ecx

; 355  : 		return (*_Mycat);

	mov	eax, DWORD PTR _this$[ebp]
	mov	eax, DWORD PTR [eax+4]

; 356  : 		}

	mov	esp, ebp
	pop	ebp
	ret	0
?category@error_condition@std@@QBEABVerror_category@2@XZ ENDP ; std::error_condition::category
_TEXT	ENDS
; Function compile flags: /Odtp
; File c:\program files (x86)\microsoft visual studio 11.0\vc\include\system_error
;	COMDAT ?value@error_condition@std@@QBEHXZ
_TEXT	SEGMENT
_this$ = -4						; size = 4
?value@error_condition@std@@QBEHXZ PROC			; std::error_condition::value, COMDAT
; _this$ = ecx

; 349  : 		{	// get error code

	push	ebp
	mov	ebp, esp
	push	ecx
	mov	DWORD PTR _this$[ebp], ecx

; 350  : 		return (_Myval);

	mov	eax, DWORD PTR _this$[ebp]
	mov	eax, DWORD PTR [eax]

; 351  : 		}

	mov	esp, ebp
	pop	ebp
	ret	0
?value@error_condition@std@@QBEHXZ ENDP			; std::error_condition::value
_TEXT	ENDS
; Function compile flags: /Odtp
; File c:\program files (x86)\microsoft visual studio 11.0\vc\include\system_error
;	COMDAT ??0error_condition@std@@QAE@HABVerror_category@1@@Z
_TEXT	SEGMENT
_this$ = -4						; size = 4
__Val$ = 8						; size = 4
__Cat$ = 12						; size = 4
??0error_condition@std@@QAE@HABVerror_category@1@@Z PROC ; std::error_condition::error_condition, COMDAT
; _this$ = ecx

; 316  : 		{	// construct from error code and category

	push	ebp
	mov	ebp, esp
	push	ecx
	mov	DWORD PTR _this$[ebp], ecx
	mov	eax, DWORD PTR _this$[ebp]
	mov	ecx, DWORD PTR __Val$[ebp]
	mov	DWORD PTR [eax], ecx
	mov	edx, DWORD PTR _this$[ebp]
	mov	eax, DWORD PTR __Cat$[ebp]
	mov	DWORD PTR [edx+4], eax

; 317  : 		}

	mov	eax, DWORD PTR _this$[ebp]
	mov	esp, ebp
	pop	ebp
	ret	8
??0error_condition@std@@QAE@HABVerror_category@1@@Z ENDP ; std::error_condition::error_condition
_TEXT	ENDS
; Function compile flags: /Odtp
; File c:\program files (x86)\microsoft visual studio 11.0\vc\include\system_error
;	COMDAT ?category@error_code@std@@QBEABVerror_category@2@XZ
_TEXT	SEGMENT
_this$ = -4						; size = 4
?category@error_code@std@@QBEABVerror_category@2@XZ PROC ; std::error_code::category, COMDAT
; _this$ = ecx

; 256  : 		{	// get category

	push	ebp
	mov	ebp, esp
	push	ecx
	mov	DWORD PTR _this$[ebp], ecx

; 257  : 		return (*_Mycat);

	mov	eax, DWORD PTR _this$[ebp]
	mov	eax, DWORD PTR [eax+4]

; 258  : 		}

	mov	esp, ebp
	pop	ebp
	ret	0
?category@error_code@std@@QBEABVerror_category@2@XZ ENDP ; std::error_code::category
_TEXT	ENDS
; Function compile flags: /Odtp
; File c:\program files (x86)\microsoft visual studio 11.0\vc\include\system_error
;	COMDAT ?value@error_code@std@@QBEHXZ
_TEXT	SEGMENT
_this$ = -4						; size = 4
?value@error_code@std@@QBEHXZ PROC			; std::error_code::value, COMDAT
; _this$ = ecx

; 251  : 		{	// get error code

	push	ebp
	mov	ebp, esp
	push	ecx
	mov	DWORD PTR _this$[ebp], ecx

; 252  : 		return (_Myval);

	mov	eax, DWORD PTR _this$[ebp]
	mov	eax, DWORD PTR [eax]

; 253  : 		}

	mov	esp, ebp
	pop	ebp
	ret	0
?value@error_code@std@@QBEHXZ ENDP			; std::error_code::value
_TEXT	ENDS
; Function compile flags: /Odtp
;	COMDAT ??_Gerror_category@std@@UAEPAXI@Z
_TEXT	SEGMENT
_this$ = -4						; size = 4
___flags$ = 8						; size = 4
??_Gerror_category@std@@UAEPAXI@Z PROC			; std::error_category::`scalar deleting destructor', COMDAT
; _this$ = ecx
	push	ebp
	mov	ebp, esp
	push	ecx
	mov	DWORD PTR _this$[ebp], ecx
	mov	ecx, DWORD PTR _this$[ebp]
	call	??1error_category@std@@UAE@XZ		; std::error_category::~error_category
	mov	eax, DWORD PTR ___flags$[ebp]
	and	eax, 1
	je	SHORT $LN1@scalar
	mov	ecx, DWORD PTR _this$[ebp]
	push	ecx
	call	??3@YAXPAX@Z				; operator delete
	add	esp, 4
$LN1@scalar:
	mov	eax, DWORD PTR _this$[ebp]
	mov	esp, ebp
	pop	ebp
	ret	4
??_Gerror_category@std@@UAEPAXI@Z ENDP			; std::error_category::`scalar deleting destructor'
_TEXT	ENDS
; Function compile flags: /Odtp
; File c:\program files (x86)\microsoft visual studio 11.0\vc\include\system_error
;	COMDAT ??8error_category@std@@QBE_NABV01@@Z
_TEXT	SEGMENT
_this$ = -8						; size = 4
tv65 = -4						; size = 4
__Right$ = 8						; size = 4
??8error_category@std@@QBE_NABV01@@Z PROC		; std::error_category::operator==, COMDAT
; _this$ = ecx

; 184  : 		{	// compare categories for equality

	push	ebp
	mov	ebp, esp
	sub	esp, 8
	mov	DWORD PTR _this$[ebp], ecx

; 185  : 		return (this == &_Right);

	mov	eax, DWORD PTR _this$[ebp]
	cmp	eax, DWORD PTR __Right$[ebp]
	jne	SHORT $LN3@operator
	mov	DWORD PTR tv65[ebp], 1
	jmp	SHORT $LN4@operator
$LN3@operator:
	mov	DWORD PTR tv65[ebp], 0
$LN4@operator:
	mov	al, BYTE PTR tv65[ebp]

; 186  : 		}

	mov	esp, ebp
	pop	ebp
	ret	4
??8error_category@std@@QBE_NABV01@@Z ENDP		; std::error_category::operator==
_TEXT	ENDS
; Function compile flags: /Odtp
; File c:\program files (x86)\microsoft visual studio 11.0\vc\include\system_error
;	COMDAT ?equivalent@error_category@std@@UBE_NABVerror_code@2@H@Z
_TEXT	SEGMENT
_this$ = -8						; size = 4
tv74 = -4						; size = 4
__Code$ = 8						; size = 4
__Errval$ = 12						; size = 4
?equivalent@error_category@std@@UBE_NABVerror_code@2@H@Z PROC ; std::error_category::equivalent, COMDAT
; _this$ = ecx

; 415  : 	{	// test if conditions same for this category

	push	ebp
	mov	ebp, esp
	sub	esp, 8
	mov	DWORD PTR _this$[ebp], ecx

; 416  : 	return (*this == _Code.category() && _Code.value() == _Errval);

	mov	ecx, DWORD PTR __Code$[ebp]
	call	?category@error_code@std@@QBEABVerror_category@2@XZ ; std::error_code::category
	push	eax
	mov	ecx, DWORD PTR _this$[ebp]
	call	??8error_category@std@@QBE_NABV01@@Z	; std::error_category::operator==
	movzx	eax, al
	test	eax, eax
	je	SHORT $LN3@equivalent
	mov	ecx, DWORD PTR __Code$[ebp]
	call	?value@error_code@std@@QBEHXZ		; std::error_code::value
	cmp	eax, DWORD PTR __Errval$[ebp]
	jne	SHORT $LN3@equivalent
	mov	DWORD PTR tv74[ebp], 1
	jmp	SHORT $LN4@equivalent
$LN3@equivalent:
	mov	DWORD PTR tv74[ebp], 0
$LN4@equivalent:
	mov	al, BYTE PTR tv74[ebp]

; 417  : 	}

	mov	esp, ebp
	pop	ebp
	ret	8
?equivalent@error_category@std@@UBE_NABVerror_code@2@H@Z ENDP ; std::error_category::equivalent
_TEXT	ENDS
; Function compile flags: /Odtp
; File c:\program files (x86)\microsoft visual studio 11.0\vc\include\system_error
;	COMDAT ?equivalent@error_category@std@@UBE_NHABVerror_condition@2@@Z
_TEXT	SEGMENT
$T1 = -12						; size = 8
_this$ = -4						; size = 4
__Errval$ = 8						; size = 4
__Cond$ = 12						; size = 4
?equivalent@error_category@std@@UBE_NHABVerror_condition@2@@Z PROC ; std::error_category::equivalent, COMDAT
; _this$ = ecx

; 408  : 	{	// test if error code same condition

	push	ebp
	mov	ebp, esp
	sub	esp, 12					; 0000000cH
	mov	DWORD PTR _this$[ebp], ecx

; 409  : 	return (default_error_condition(_Errval) == _Cond);

	mov	eax, DWORD PTR __Cond$[ebp]
	push	eax
	mov	ecx, DWORD PTR __Errval$[ebp]
	push	ecx
	lea	edx, DWORD PTR $T1[ebp]
	push	edx
	mov	eax, DWORD PTR _this$[ebp]
	mov	edx, DWORD PTR [eax]
	mov	ecx, DWORD PTR _this$[ebp]
	mov	eax, DWORD PTR [edx+12]
	call	eax
	mov	ecx, eax
	call	??8error_condition@std@@QBE_NABV01@@Z	; std::error_condition::operator==

; 410  : 	}

	mov	esp, ebp
	pop	ebp
	ret	8
?equivalent@error_category@std@@UBE_NHABVerror_condition@2@@Z ENDP ; std::error_category::equivalent
_TEXT	ENDS
; Function compile flags: /Odtp
; File c:\program files (x86)\microsoft visual studio 11.0\vc\include\system_error
;	COMDAT ?default_error_condition@error_category@std@@UBE?AVerror_condition@2@H@Z
_TEXT	SEGMENT
_this$ = -4						; size = 4
___$ReturnUdt$ = 8					; size = 4
__Errval$ = 12						; size = 4
?default_error_condition@error_category@std@@UBE?AVerror_condition@2@H@Z PROC ; std::error_category::default_error_condition, COMDAT
; _this$ = ecx

; 401  : 	{	// make error_condition for error code

	push	ebp
	mov	ebp, esp
	push	ecx
	mov	DWORD PTR _this$[ebp], ecx

; 402  : 	return (error_condition(_Errval, *this));

	mov	eax, DWORD PTR _this$[ebp]
	push	eax
	mov	ecx, DWORD PTR __Errval$[ebp]
	push	ecx
	mov	ecx, DWORD PTR ___$ReturnUdt$[ebp]
	call	??0error_condition@std@@QAE@HABVerror_category@1@@Z ; std::error_condition::error_condition
	mov	eax, DWORD PTR ___$ReturnUdt$[ebp]

; 403  : 	}

	mov	esp, ebp
	pop	ebp
	ret	8
?default_error_condition@error_category@std@@UBE?AVerror_condition@2@H@Z ENDP ; std::error_category::default_error_condition
_TEXT	ENDS
; Function compile flags: /Odtp
; File c:\program files (x86)\microsoft visual studio 11.0\vc\include\system_error
;	COMDAT ??1error_category@std@@UAE@XZ
_TEXT	SEGMENT
_this$ = -4						; size = 4
??1error_category@std@@UAE@XZ PROC			; std::error_category::~error_category, COMDAT
; _this$ = ecx

; 167  : 		{	// destroy the object

	push	ebp
	mov	ebp, esp
	push	ecx
	mov	DWORD PTR _this$[ebp], ecx
	mov	eax, DWORD PTR _this$[ebp]
	mov	DWORD PTR [eax], OFFSET ??_7error_category@std@@6B@

; 168  : 		}

	mov	esp, ebp
	pop	ebp
	ret	0
??1error_category@std@@UAE@XZ ENDP			; std::error_category::~error_category
_TEXT	ENDS
; Function compile flags: /Odtp
; File c:\program files (x86)\microsoft visual studio 11.0\vc\include\system_error
;	COMDAT ??0error_category@std@@QAE@XZ
_TEXT	SEGMENT
_this$ = -4						; size = 4
??0error_category@std@@QAE@XZ PROC			; std::error_category::error_category, COMDAT
; _this$ = ecx

; 162  : 	error_category()

	push	ebp
	mov	ebp, esp
	push	ecx
	mov	DWORD PTR _this$[ebp], ecx
	mov	eax, DWORD PTR _this$[ebp]
	mov	DWORD PTR [eax], OFFSET ??_7error_category@std@@6B@

; 163  : 		{	// default constructor
; 164  : 		}

	mov	eax, DWORD PTR _this$[ebp]
	mov	esp, ebp
	pop	ebp
	ret	0
??0error_category@std@@QAE@XZ ENDP			; std::error_category::error_category
_TEXT	ENDS
; Function compile flags: /Odtp
; File c:\program files (x86)\microsoft visual studio 11.0\vc\include\system_error
;	COMDAT ?system_category@std@@YAABVerror_category@1@XZ
_TEXT	SEGMENT
?system_category@std@@YAABVerror_category@1@XZ PROC	; std::system_category, COMDAT

; 679  : 	{	// get system_category

	push	ebp
	mov	ebp, esp

; 680  : 	return (_Error_objects<int>::_System_object);

	mov	eax, OFFSET ?_System_object@?$_Error_objects@H@std@@2V_System_error_category@2@A ; std::_Error_objects<int>::_System_object

; 681  : 	}

	pop	ebp
	ret	0
?system_category@std@@YAABVerror_category@1@XZ ENDP	; std::system_category
_TEXT	ENDS
; Function compile flags: /Odtp
; File c:\program files (x86)\microsoft visual studio 11.0\vc\include\system_error
;	COMDAT ?generic_category@std@@YAABVerror_category@1@XZ
_TEXT	SEGMENT
?generic_category@std@@YAABVerror_category@1@XZ PROC	; std::generic_category, COMDAT

; 669  : 	{	// get generic_category

	push	ebp
	mov	ebp, esp

; 670  : 	return (_Error_objects<int>::_Generic_object);

	mov	eax, OFFSET ?_Generic_object@?$_Error_objects@H@std@@2V_Generic_error_category@2@A ; std::_Error_objects<int>::_Generic_object

; 671  : 	}

	pop	ebp
	ret	0
?generic_category@std@@YAABVerror_category@1@XZ ENDP	; std::generic_category
_TEXT	ENDS
; Function compile flags: /Odtp
; File c:\program files (x86)\microsoft visual studio 11.0\vc\include\xlocale
;	COMDAT ??0id@locale@std@@QAE@I@Z
_TEXT	SEGMENT
_this$ = -4						; size = 4
__Val$ = 8						; size = 4
??0id@locale@std@@QAE@I@Z PROC				; std::locale::id::id, COMDAT
; _this$ = ecx

; 74   : 			{	// construct with specified stamp value

	push	ebp
	mov	ebp, esp
	push	ecx
	mov	DWORD PTR _this$[ebp], ecx
	mov	eax, DWORD PTR _this$[ebp]
	mov	ecx, DWORD PTR __Val$[ebp]
	mov	DWORD PTR [eax], ecx

; 75   : 			}

	mov	eax, DWORD PTR _this$[ebp]
	mov	esp, ebp
	pop	ebp
	ret	4
??0id@locale@std@@QAE@I@Z ENDP				; std::locale::id::id
_TEXT	ENDS
; Function compile flags: /Odtp
; File c:\users\zhitao li\documents\visual studio 2012\projects\freefalcon\sim\include\object.h
;	COMDAT ?BaseData@SimObjectType@@QAEPAVFalconEntity@@XZ
_TEXT	SEGMENT
_this$ = -4						; size = 4
?BaseData@SimObjectType@@QAEPAVFalconEntity@@XZ PROC	; SimObjectType::BaseData, COMDAT
; _this$ = ecx

; 92   : 	FalconEntity* BaseData(void) { return baseData.get(); };

	push	ebp
	mov	ebp, esp
	push	ecx
	mov	DWORD PTR _this$[ebp], ecx
	mov	ecx, DWORD PTR _this$[ebp]
	call	?get@?$VuBin@VFalconEntity@@@@QBEPAVFalconEntity@@XZ ; VuBin<FalconEntity>::get
	mov	esp, ebp
	pop	ebp
	ret	0
?BaseData@SimObjectType@@QAEPAVFalconEntity@@XZ ENDP	; SimObjectType::BaseData
_TEXT	ENDS
; Function compile flags: /Odtp
; File c:\users\zhitao li\documents\visual studio 2012\projects\freefalcon\sim\include\hdigi.h
;	COMDAT ?ClearFlag@HeliBrain@@QAEXH@Z
_TEXT	SEGMENT
_this$ = -4						; size = 4
_val$ = 8						; size = 4
?ClearFlag@HeliBrain@@QAEXH@Z PROC			; HeliBrain::ClearFlag, COMDAT
; _this$ = ecx

; 207  : 		void ClearFlag (int val) {flags &= ~val;};

	push	ebp
	mov	ebp, esp
	push	ecx
	mov	DWORD PTR _this$[ebp], ecx
	mov	eax, DWORD PTR _val$[ebp]
	not	eax
	mov	ecx, DWORD PTR _this$[ebp]
	and	eax, DWORD PTR [ecx+204]
	mov	edx, DWORD PTR _this$[ebp]
	mov	DWORD PTR [edx+204], eax
	mov	esp, ebp
	pop	ebp
	ret	4
?ClearFlag@HeliBrain@@QAEXH@Z ENDP			; HeliBrain::ClearFlag
_TEXT	ENDS
; Function compile flags: /Odtp
; File c:\users\zhitao li\documents\visual studio 2012\projects\freefalcon\sim\include\hdigi.h
;	COMDAT ?SetFlag@HeliBrain@@QAEXH@Z
_TEXT	SEGMENT
_this$ = -4						; size = 4
_val$ = 8						; size = 4
?SetFlag@HeliBrain@@QAEXH@Z PROC			; HeliBrain::SetFlag, COMDAT
; _this$ = ecx

; 206  : 		void SetFlag (int val) {flags |= val;};

	push	ebp
	mov	ebp, esp
	push	ecx
	mov	DWORD PTR _this$[ebp], ecx
	mov	eax, DWORD PTR _this$[ebp]
	mov	ecx, DWORD PTR [eax+204]
	or	ecx, DWORD PTR _val$[ebp]
	mov	edx, DWORD PTR _this$[ebp]
	mov	DWORD PTR [edx+204], ecx
	mov	esp, ebp
	pop	ebp
	ret	4
?SetFlag@HeliBrain@@QAEXH@Z ENDP			; HeliBrain::SetFlag
_TEXT	ENDS
; Function compile flags: /Odtp
; File c:\users\zhitao li\documents\visual studio 2012\projects\freefalcon\sim\hdigi\h_gengage.cpp
_TEXT	SEGMENT
_rx$ = -80						; size = 4
tv507 = -76						; size = 4
tv488 = -72						; size = 4
tv553 = -68						; size = 4
tv483 = -64						; size = 4
tv479 = -60						; size = 4
tv551 = -56						; size = 4
tv474 = -52						; size = 4
tv470 = -48						; size = 4
tv549 = -44						; size = 4
tv465 = -40						; size = 4
tv371 = -36						; size = 4
_yft$ = -32						; size = 4
_xft$ = -28						; size = 4
_zft$ = -24						; size = 4
_hasAaWeapons$ = -20					; size = 4
_hasAgWeapons$ = -16					; size = 4
_i$1 = -12						; size = 4
_theObject$ = -8					; size = 4
_this$ = -4						; size = 4
?GunsEngageCheck@HeliBrain@@QAEXXZ PROC			; HeliBrain::GunsEngageCheck
; _this$ = ecx

; 26   : {

	push	ebp
	mov	ebp, esp
	sub	esp, 80					; 00000050H
	push	esi
	mov	DWORD PTR _this$[ebp], ecx

; 27   : 	SimVehicleClass *theObject;
; 28   : 
; 29   : 	// OutputDebugString("Entering Guns Engange Check\n");
; 30   : 	ClearFlag (MslFireFlag | GunFireFlag);

	push	3
	mov	ecx, DWORD PTR _this$[ebp]
	call	?ClearFlag@HeliBrain@@QAEXH@Z		; HeliBrain::ClearFlag

; 31   : 
; 32   : 	// no target
; 33   : 	if (!targetPtr) {

	mov	eax, DWORD PTR _this$[ebp]
	cmp	DWORD PTR [eax+192], 0
	jne	SHORT $LN30@GunsEngage

; 34   : 		if (curMode == GunsEngageMode) {

	mov	ecx, DWORD PTR _this$[ebp]
	cmp	DWORD PTR [ecx+36], 8
	jne	SHORT $LN29@GunsEngage

; 35   : 			ClearFlag (MslFireFlag | GunFireFlag);

	push	3
	mov	ecx, DWORD PTR _this$[ebp]
	call	?ClearFlag@HeliBrain@@QAEXH@Z		; HeliBrain::ClearFlag
$LN29@GunsEngage:

; 36   : 			//MonoPrint("HELO BRAIN Exiting Guns Engange\n");
; 37   : 		}
; 38   : 		return;

	jmp	$LN31@GunsEngage
$LN30@GunsEngage:

; 39   : 	}
; 40   : 
; 41   : 	// RV - Biker - Abbort if damaged
; 42   : 	if (self->pctStrength < 1.0) {

	mov	edx, DWORD PTR _this$[ebp]
	mov	eax, DWORD PTR [edx+4]
	cvtss2sd xmm0, DWORD PTR [eax+292]
	movsd	xmm1, QWORD PTR __real@3ff0000000000000
	comisd	xmm1, xmm0
	jbe	SHORT $LN28@GunsEngage

; 43   : 		if (curMode == GunsEngageMode) {

	mov	ecx, DWORD PTR _this$[ebp]
	cmp	DWORD PTR [ecx+36], 8
	jne	SHORT $LN27@GunsEngage

; 44   : 			ClearFlag (MslFireFlag | GunFireFlag);

	push	3
	mov	ecx, DWORD PTR _this$[ebp]
	call	?ClearFlag@HeliBrain@@QAEXH@Z		; HeliBrain::ClearFlag

; 45   : 			SelectNextWaypoint();

	mov	ecx, DWORD PTR _this$[ebp]
	call	?SelectNextWaypoint@HeliBrain@@QAEXXZ	; HeliBrain::SelectNextWaypoint
$LN27@GunsEngage:

; 46   : 		}
; 47   : 		return;

	jmp	$LN31@GunsEngage
$LN28@GunsEngage:

; 48   : 	}
; 49   : 
; 50   : 	WeaponSelection();

	mov	ecx, DWORD PTR _this$[ebp]
	call	?WeaponSelection@HeliBrain@@QAEXXZ	; HeliBrain::WeaponSelection

; 51   : 
; 52   : 	// RV - Biker - Check if we do have AG weapons
; 53   : 	int hasAgWeapons = 0;

	mov	DWORD PTR _hasAgWeapons$[ebp], 0

; 54   : 	int hasAaWeapons = 0;

	mov	DWORD PTR _hasAaWeapons$[ebp], 0

; 55   : 
; 56   : 	if (self->Guns) {

	mov	edx, DWORD PTR _this$[ebp]
	mov	eax, DWORD PTR [edx+4]
	cmp	DWORD PTR [eax+764], 0
	je	SHORT $LN26@GunsEngage

; 57   : 		hasAgWeapons = hasAgWeapons + self->Guns->numRoundsRemaining;

	mov	ecx, DWORD PTR _this$[ebp]
	mov	edx, DWORD PTR [ecx+4]
	mov	eax, DWORD PTR [edx+764]
	mov	ecx, DWORD PTR _hasAgWeapons$[ebp]
	add	ecx, DWORD PTR [eax+808]
	mov	DWORD PTR _hasAgWeapons$[ebp], ecx
$LN26@GunsEngage:

; 58   : 	}
; 59   : 
; 60   : 	for (int i=1; i<self->Sms->NumHardpoints(); i++) {

	mov	DWORD PTR _i$1[ebp], 1
	jmp	SHORT $LN25@GunsEngage
$LN24@GunsEngage:
	mov	edx, DWORD PTR _i$1[ebp]
	add	edx, 1
	mov	DWORD PTR _i$1[ebp], edx
$LN25@GunsEngage:
	mov	eax, DWORD PTR _this$[ebp]
	mov	ecx, DWORD PTR [eax+4]
	mov	ecx, DWORD PTR [ecx+760]
	call	?NumHardpoints@SMSBaseClass@@QAEHXZ	; SMSBaseClass::NumHardpoints
	cmp	DWORD PTR _i$1[ebp], eax
	jge	$LN23@GunsEngage

; 61   : 		if (self->Sms->hardPoint[i]->GetWeaponType() != wtAim9 && self->Sms->hardPoint[i]->GetWeaponType() != wtAim120)

	mov	edx, DWORD PTR _this$[ebp]
	mov	eax, DWORD PTR [edx+4]
	mov	ecx, DWORD PTR [eax+760]
	mov	edx, DWORD PTR [ecx+4]
	mov	eax, DWORD PTR _i$1[ebp]
	mov	ecx, DWORD PTR [edx+eax*4]
	mov	edx, DWORD PTR _this$[ebp]
	mov	eax, DWORD PTR [edx+4]
	mov	edx, DWORD PTR [eax+760]
	mov	eax, DWORD PTR [edx+4]
	mov	edx, DWORD PTR _i$1[ebp]
	mov	esi, DWORD PTR [ecx]
	mov	ecx, DWORD PTR [eax+edx*4]
	mov	eax, DWORD PTR [esi+156]
	call	eax
	cmp	eax, 1
	je	SHORT $LN22@GunsEngage
	mov	ecx, DWORD PTR _this$[ebp]
	mov	edx, DWORD PTR [ecx+4]
	mov	eax, DWORD PTR [edx+760]
	mov	ecx, DWORD PTR [eax+4]
	mov	edx, DWORD PTR _i$1[ebp]
	mov	eax, DWORD PTR [ecx+edx*4]
	mov	ecx, DWORD PTR _this$[ebp]
	mov	edx, DWORD PTR [ecx+4]
	mov	ecx, DWORD PTR [edx+760]
	mov	edx, DWORD PTR [ecx+4]
	mov	ecx, DWORD PTR _i$1[ebp]
	mov	eax, DWORD PTR [eax]
	mov	ecx, DWORD PTR [edx+ecx*4]
	mov	edx, DWORD PTR [eax+156]
	call	edx
	cmp	eax, 2
	je	SHORT $LN22@GunsEngage

; 62   : 			hasAgWeapons = hasAgWeapons + self->Sms->hardPoint[i]->weaponCount;

	mov	eax, DWORD PTR _this$[ebp]
	mov	ecx, DWORD PTR [eax+4]
	mov	edx, DWORD PTR [ecx+760]
	mov	eax, DWORD PTR [edx+4]
	mov	ecx, DWORD PTR _i$1[ebp]
	mov	edx, DWORD PTR [eax+ecx*4]
	movsx	eax, WORD PTR [edx+10]
	add	eax, DWORD PTR _hasAgWeapons$[ebp]
	mov	DWORD PTR _hasAgWeapons$[ebp], eax

; 63   : 		else

	jmp	SHORT $LN21@GunsEngage
$LN22@GunsEngage:

; 64   : 			hasAaWeapons = hasAaWeapons + self->Sms->hardPoint[i]->weaponCount;

	mov	ecx, DWORD PTR _this$[ebp]
	mov	edx, DWORD PTR [ecx+4]
	mov	eax, DWORD PTR [edx+760]
	mov	ecx, DWORD PTR [eax+4]
	mov	edx, DWORD PTR _i$1[ebp]
	mov	eax, DWORD PTR [ecx+edx*4]
	movsx	ecx, WORD PTR [eax+10]
	add	ecx, DWORD PTR _hasAaWeapons$[ebp]
	mov	DWORD PTR _hasAaWeapons$[ebp], ecx
$LN21@GunsEngage:

; 65   : 	}

	jmp	$LN24@GunsEngage
$LN23@GunsEngage:

; 66   : 
; 67   : 	// we're likely dealing with stale data for target, update range and ata
; 68   : 	float xft, yft, zft;
; 69   : 	float rx;
; 70   : 	theObject = (SimVehicleClass *)targetPtr->BaseData();

	mov	edx, DWORD PTR _this$[ebp]
	mov	ecx, DWORD PTR [edx+192]
	call	?BaseData@SimObjectType@@QAEPAVFalconEntity@@XZ ; SimObjectType::BaseData
	mov	DWORD PTR _theObject$[ebp], eax

; 71   : 
; 72   : 	xft = theObject->XPos() - self->XPos();

	mov	ecx, DWORD PTR _theObject$[ebp]
	call	?XPos@VuEntity@@QBEMXZ			; VuEntity::XPos
	fstp	DWORD PTR tv465[ebp]
	movss	xmm0, DWORD PTR tv465[ebp]
	mov	eax, DWORD PTR _this$[ebp]
	mov	ecx, DWORD PTR [eax+4]
	movss	DWORD PTR tv549[ebp], xmm0
	call	?XPos@VuEntity@@QBEMXZ			; VuEntity::XPos
	fstp	DWORD PTR tv470[ebp]
	movss	xmm0, DWORD PTR tv549[ebp]
	subss	xmm0, DWORD PTR tv470[ebp]
	movss	DWORD PTR _xft$[ebp], xmm0

; 73   : 	yft = theObject->YPos() - self->YPos();

	mov	ecx, DWORD PTR _theObject$[ebp]
	call	?YPos@VuEntity@@QBEMXZ			; VuEntity::YPos
	fstp	DWORD PTR tv474[ebp]
	movss	xmm0, DWORD PTR tv474[ebp]
	mov	ecx, DWORD PTR _this$[ebp]
	mov	ecx, DWORD PTR [ecx+4]
	movss	DWORD PTR tv551[ebp], xmm0
	call	?YPos@VuEntity@@QBEMXZ			; VuEntity::YPos
	fstp	DWORD PTR tv479[ebp]
	movss	xmm0, DWORD PTR tv551[ebp]
	subss	xmm0, DWORD PTR tv479[ebp]
	movss	DWORD PTR _yft$[ebp], xmm0

; 74   : 	zft = theObject->ZPos() - self->ZPos();

	mov	ecx, DWORD PTR _theObject$[ebp]
	call	?ZPos@VuEntity@@QBEMXZ			; VuEntity::ZPos
	fstp	DWORD PTR tv483[ebp]
	movss	xmm0, DWORD PTR tv483[ebp]
	mov	edx, DWORD PTR _this$[ebp]
	mov	ecx, DWORD PTR [edx+4]
	movss	DWORD PTR tv553[ebp], xmm0
	call	?ZPos@VuEntity@@QBEMXZ			; VuEntity::ZPos
	fstp	DWORD PTR tv488[ebp]
	movss	xmm0, DWORD PTR tv553[ebp]
	subss	xmm0, DWORD PTR tv488[ebp]
	movss	DWORD PTR _zft$[ebp], xmm0

; 75   : 
; 76   : 	if (!theObject->OnGround() && hasAaWeapons == 0) {

	mov	eax, DWORD PTR _theObject$[ebp]
	mov	edx, DWORD PTR [eax]
	mov	ecx, DWORD PTR _theObject$[ebp]
	mov	eax, DWORD PTR [edx+148]
	call	eax
	test	eax, eax
	jne	SHORT $LN16@GunsEngage
	cmp	DWORD PTR _hasAaWeapons$[ebp], 0
	jne	SHORT $LN16@GunsEngage

; 77   : 		if (curMode == GunsEngageMode) {

	mov	ecx, DWORD PTR _this$[ebp]
	cmp	DWORD PTR [ecx+36], 8
	jne	SHORT $LN19@GunsEngage

; 78   : 			if (mslCheckTimer > 5.0f) {

	mov	edx, DWORD PTR _this$[ebp]
	movss	xmm0, DWORD PTR [edx+96]
	comiss	xmm0, DWORD PTR __real@40a00000
	jbe	SHORT $LN18@GunsEngage

; 79   : 				ClearFlag (MslFireFlag | GunFireFlag);

	push	3
	mov	ecx, DWORD PTR _this$[ebp]
	call	?ClearFlag@HeliBrain@@QAEXH@Z		; HeliBrain::ClearFlag

; 80   : 				if (hasAgWeapons == 0)

	cmp	DWORD PTR _hasAgWeapons$[ebp], 0
	jne	SHORT $LN17@GunsEngage

; 81   : 					SelectNextWaypoint();

	mov	ecx, DWORD PTR _this$[ebp]
	call	?SelectNextWaypoint@HeliBrain@@QAEXXZ	; HeliBrain::SelectNextWaypoint
$LN17@GunsEngage:

; 82   : 				return;

	jmp	$LN31@GunsEngage
$LN18@GunsEngage:

; 83   : 			}
; 84   : 		}
; 85   : 		else {

	jmp	SHORT $LN16@GunsEngage
$LN19@GunsEngage:

; 86   : 			return;

	jmp	$LN31@GunsEngage
$LN16@GunsEngage:

; 87   : 		}
; 88   : 	}
; 89   : 
; 90   : 	if (theObject->OnGround() && hasAgWeapons == 0) {

	mov	eax, DWORD PTR _theObject$[ebp]
	mov	edx, DWORD PTR [eax]
	mov	ecx, DWORD PTR _theObject$[ebp]
	mov	eax, DWORD PTR [edx+148]
	call	eax
	test	eax, eax
	je	SHORT $LN11@GunsEngage
	cmp	DWORD PTR _hasAgWeapons$[ebp], 0
	jne	SHORT $LN11@GunsEngage

; 91   : 		if (curMode == GunsEngageMode) {

	mov	ecx, DWORD PTR _this$[ebp]
	cmp	DWORD PTR [ecx+36], 8
	jne	SHORT $LN14@GunsEngage

; 92   : 			if (mslCheckTimer > 5.0f) {

	mov	edx, DWORD PTR _this$[ebp]
	movss	xmm0, DWORD PTR [edx+96]
	comiss	xmm0, DWORD PTR __real@40a00000
	jbe	SHORT $LN13@GunsEngage

; 93   : 				ClearFlag (MslFireFlag | GunFireFlag);

	push	3
	mov	ecx, DWORD PTR _this$[ebp]
	call	?ClearFlag@HeliBrain@@QAEXH@Z		; HeliBrain::ClearFlag

; 94   : 				if (hasAaWeapons == 0)

	cmp	DWORD PTR _hasAaWeapons$[ebp], 0
	jne	SHORT $LN12@GunsEngage

; 95   : 					SelectNextWaypoint();

	mov	ecx, DWORD PTR _this$[ebp]
	call	?SelectNextWaypoint@HeliBrain@@QAEXXZ	; HeliBrain::SelectNextWaypoint
$LN12@GunsEngage:

; 96   : 				return;

	jmp	$LN31@GunsEngage
$LN13@GunsEngage:

; 97   : 			}
; 98   : 		}
; 99   : 		else {

	jmp	SHORT $LN11@GunsEngage
$LN14@GunsEngage:

; 100  : 			return;

	jmp	$LN31@GunsEngage
$LN11@GunsEngage:

; 101  : 		}
; 102  : 	}
; 103  : 
; 104  : 	// RV - Biker - Don't attack AC or chopper which are 5000 ft above us or are above 10000 ft in general
; 105  : 	if (!theObject->OnGround()){

	mov	eax, DWORD PTR _theObject$[ebp]
	mov	edx, DWORD PTR [eax]
	mov	ecx, DWORD PTR _theObject$[ebp]
	mov	eax, DWORD PTR [edx+148]
	call	eax
	test	eax, eax
	jne	SHORT $LN6@GunsEngage

; 106  : 		if(theObject->ZPos() < -10000.0f || zft < -5000.0f) {

	mov	ecx, DWORD PTR _theObject$[ebp]
	call	?ZPos@VuEntity@@QBEMXZ			; VuEntity::ZPos
	fstp	DWORD PTR tv507[ebp]
	movss	xmm0, DWORD PTR __real@c61c4000
	comiss	xmm0, DWORD PTR tv507[ebp]
	ja	SHORT $LN8@GunsEngage
	movss	xmm0, DWORD PTR __real@c59c4000
	comiss	xmm0, DWORD PTR _zft$[ebp]
	jbe	SHORT $LN9@GunsEngage
$LN8@GunsEngage:

; 107  : 			targetPtr->Release();

	mov	ecx, DWORD PTR _this$[ebp]
	mov	ecx, DWORD PTR [ecx+192]
	call	?Release@SimObjectType@@QAEXXZ		; SimObjectType::Release

; 108  : 			targetPtr = NULL;

	mov	edx, DWORD PTR _this$[ebp]
	mov	DWORD PTR [edx+192], 0

; 109  : 			targetData = NULL;

	mov	eax, DWORD PTR _this$[ebp]
	mov	DWORD PTR [eax+200], 0

; 110  : 
; 111  : 			if (curMode == GunsEngageMode) {

	mov	ecx, DWORD PTR _this$[ebp]
	cmp	DWORD PTR [ecx+36], 8
	jne	SHORT $LN7@GunsEngage

; 112  : 				ClearFlag (MslFireFlag | GunFireFlag);

	push	3
	mov	ecx, DWORD PTR _this$[ebp]
	call	?ClearFlag@HeliBrain@@QAEXH@Z		; HeliBrain::ClearFlag
$LN7@GunsEngage:

; 113  : 			}
; 114  : 			return;

	jmp	$LN31@GunsEngage

; 115  : 		}
; 116  : 		else {

	jmp	SHORT $LN6@GunsEngage
$LN9@GunsEngage:

; 117  : 			// Never discard this target
; 118  : 			self->nextTargetUpdate = SimLibElapsedTime + 5;

	mov	edx, DWORD PTR ?SimLibElapsedTime@@3KA	; SimLibElapsedTime
	add	edx, 5
	mov	eax, DWORD PTR _this$[ebp]
	mov	ecx, DWORD PTR [eax+4]
	mov	DWORD PTR [ecx+704], edx
$LN6@GunsEngage:

; 119  : 		}
; 120  : 	}
; 121  : 
; 122  : 	
; 123  : 
; 124  : 	rx = self->dmx[0][0]*xft + self->dmx[0][1]*yft + self->dmx[0][2]*zft;

	mov	edx, DWORD PTR _this$[ebp]
	mov	eax, DWORD PTR [edx+4]
	mov	ecx, 12					; 0000000cH
	imul	ecx, 0
	lea	edx, DWORD PTR [eax+ecx+296]
	mov	eax, 4
	imul	eax, 0
	movss	xmm0, DWORD PTR [edx+eax]
	mulss	xmm0, DWORD PTR _xft$[ebp]
	mov	ecx, DWORD PTR _this$[ebp]
	mov	edx, DWORD PTR [ecx+4]
	mov	eax, 12					; 0000000cH
	imul	eax, 0
	lea	ecx, DWORD PTR [edx+eax+296]
	mov	edx, 4
	shl	edx, 0
	movss	xmm1, DWORD PTR [ecx+edx]
	mulss	xmm1, DWORD PTR _yft$[ebp]
	addss	xmm0, xmm1
	mov	eax, DWORD PTR _this$[ebp]
	mov	ecx, DWORD PTR [eax+4]
	mov	edx, 12					; 0000000cH
	imul	edx, 0
	lea	eax, DWORD PTR [ecx+edx+296]
	mov	ecx, 4
	shl	ecx, 1
	movss	xmm1, DWORD PTR [eax+ecx]
	mulss	xmm1, DWORD PTR _zft$[ebp]
	addss	xmm0, xmm1
	movss	DWORD PTR _rx$[ebp], xmm0

; 125  : 
; 126  : 	targetData->range = (float)sqrt(xft*xft + yft*yft + zft*zft);

	movss	xmm0, DWORD PTR _xft$[ebp]
	mulss	xmm0, DWORD PTR _xft$[ebp]
	movss	xmm1, DWORD PTR _yft$[ebp]
	mulss	xmm1, DWORD PTR _yft$[ebp]
	addss	xmm0, xmm1
	movss	xmm1, DWORD PTR _zft$[ebp]
	mulss	xmm1, DWORD PTR _zft$[ebp]
	addss	xmm0, xmm1
	push	ecx
	movss	DWORD PTR [esp], xmm0
	call	?SqrtSSE@@YAMM@Z			; SqrtSSE
	add	esp, 4
	mov	edx, DWORD PTR _this$[ebp]
	mov	eax, DWORD PTR [edx+200]
	fstp	DWORD PTR [eax+44]

; 127  : 	targetData->range = max (targetData->range, 1.0F);

	mov	ecx, DWORD PTR _this$[ebp]
	mov	edx, DWORD PTR [ecx+200]
	movss	xmm0, DWORD PTR [edx+44]
	comiss	xmm0, DWORD PTR __real@3f800000
	jbe	SHORT $LN33@GunsEngage
	mov	eax, DWORD PTR _this$[ebp]
	mov	ecx, DWORD PTR [eax+200]
	movss	xmm0, DWORD PTR [ecx+44]
	movss	DWORD PTR tv371[ebp], xmm0
	jmp	SHORT $LN34@GunsEngage
$LN33@GunsEngage:
	movss	xmm0, DWORD PTR __real@3f800000
	movss	DWORD PTR tv371[ebp], xmm0
$LN34@GunsEngage:
	mov	edx, DWORD PTR _this$[ebp]
	mov	eax, DWORD PTR [edx+200]
	movss	xmm0, DWORD PTR tv371[ebp]
	movss	DWORD PTR [eax+44], xmm0

; 128  : 	// targetData->ata =  (float)acos(rx/targetData->range);
; 129  : 
; 130  : 	// entry 
; 131  : 	if (curMode != GunsEngageMode) {

	mov	ecx, DWORD PTR _this$[ebp]
	cmp	DWORD PTR [ecx+36], 8
	je	SHORT $LN5@GunsEngage

; 132  : 		if (targetData->range <= GUN_MAX_RANGE * 8.0f) {

	mov	edx, DWORD PTR _this$[ebp]
	mov	eax, DWORD PTR [edx+200]
	movss	xmm0, DWORD PTR __real@477a0000
	comiss	xmm0, DWORD PTR [eax+44]
	jb	SHORT $LN4@GunsEngage

; 133  : 			// MonoPrint("HELO BRAIN Entering Guns Engange\n");
; 134  : 			mslCheckTimer = 0.0f;

	mov	ecx, DWORD PTR _this$[ebp]
	movss	xmm0, DWORD PTR __real@00000000
	movss	DWORD PTR [ecx+96], xmm0

; 135  : 			AddMode(GunsEngageMode);

	push	8
	mov	ecx, DWORD PTR _this$[ebp]
	call	?AddMode@HeliBrain@@QAEXW4DigiMode@1@@Z	; HeliBrain::AddMode
$LN4@GunsEngage:

; 136  : 		}
; 137  : 	}

	jmp	SHORT $LN1@GunsEngage
$LN5@GunsEngage:

; 138  :    
; 139  : 	// exit 
; 140  : 	else if (targetData->range >= GUN_MAX_RANGE * 8.0f) {

	mov	edx, DWORD PTR _this$[ebp]
	mov	eax, DWORD PTR [edx+200]
	movss	xmm0, DWORD PTR [eax+44]
	comiss	xmm0, DWORD PTR __real@477a0000
	jb	SHORT $LN2@GunsEngage

; 141  : 		// MonoPrint("HELO BRAIN Exiting Guns Engange\n");
; 142  : 	}
; 143  : 	// Already in, so stay there
; 144  : 	else {

	jmp	SHORT $LN1@GunsEngage
$LN2@GunsEngage:

; 145  : 		AddMode(GunsEngageMode);

	push	8
	mov	ecx, DWORD PTR _this$[ebp]
	call	?AddMode@HeliBrain@@QAEXW4DigiMode@1@@Z	; HeliBrain::AddMode
$LN1@GunsEngage:
$LN31@GunsEngage:

; 146  : 	}
; 147  : }

	pop	esi
	mov	esp, ebp
	pop	ebp
	ret	0
?GunsEngageCheck@HeliBrain@@QAEXXZ ENDP			; HeliBrain::GunsEngageCheck
_TEXT	ENDS
; Function compile flags: /Odtp
; File c:\users\zhitao li\documents\visual studio 2012\projects\freefalcon\sim\hdigi\h_gengage.cpp
_TEXT	SEGMENT
tv451 = -104						; size = 8
_az$ = -96						; size = 4
_el$ = -92						; size = 4
tv474 = -88						; size = 4
tv537 = -84						; size = 4
tv469 = -80						; size = 4
tv464 = -76						; size = 4
tv535 = -72						; size = 4
_zft$ = -68						; size = 4
tv456 = -64						; size = 4
tv533 = -60						; size = 4
tv445 = -56						; size = 4
tv531 = -52						; size = 4
tv440 = -48						; size = 4
tv436 = -44						; size = 4
tv529 = -40						; size = 4
tv431 = -36						; size = 4
tv427 = -32						; size = 4
tv527 = -28						; size = 4
tv422 = -24						; size = 4
tv296 = -20						; size = 4
_yft$ = -16						; size = 4
_xft$ = -12						; size = 4
_theObject$ = -8					; size = 4
_this$ = -4						; size = 4
?FireControl@HeliBrain@@QAEXXZ PROC			; HeliBrain::FireControl
; _this$ = ecx

; 393  : {

	push	ebp
	mov	ebp, esp
	sub	esp, 104				; 00000068H
	push	esi
	mov	DWORD PTR _this$[ebp], ecx

; 394  :    	SimVehicleClass *theObject;
; 395  : 
; 396  :    	theObject = (SimVehicleClass *)targetPtr->BaseData();

	mov	eax, DWORD PTR _this$[ebp]
	mov	ecx, DWORD PTR [eax+192]
	call	?BaseData@SimObjectType@@QAEPAVFalconEntity@@XZ ; SimObjectType::BaseData
	mov	DWORD PTR _theObject$[ebp], eax

; 397  : 
; 398  :    	if (targetData->ata > 50.0f * DTR)

	mov	ecx, DWORD PTR _this$[ebp]
	mov	edx, DWORD PTR [ecx+200]
	movss	xmm0, DWORD PTR [edx]
	comiss	xmm0, DWORD PTR __real@3f5f66f1
	jbe	SHORT $LN20@FireContro

; 399  :    		return;

	jmp	$LN21@FireContro
$LN20@FireContro:

; 400  : 
; 401  : 	// edg: this stuff is all kludged together -- I just can't seem to
; 402  : 	// get AG missiles to hit ground objects, but if they're close enough
; 403  : 	// it looks OK -- probably should be fixed.
; 404  : 	/*
; 405  : 	** Should work now....
; 406  :    	if ( theObject->OnGround() )
; 407  :    	{
; 408  : 	   if ( targetData->range < 1000.0f ||
; 409  : 	   		targetData->range > 10000.0f)
; 410  : 	   		return;
; 411  :    	}
; 412  :    	else
; 413  :    	{
; 414  :    		if ( targetData->range < self->FCC->missileRneMin ||
; 415  :        		 targetData->range > self->FCC->missileRneMax  )
; 416  : 		   {
; 417  : 			   return;
; 418  : 		   }
; 419  :    	}
; 420  : 
; 421  :    	if ( targetData->range < self->FCC->missileRneMin ||
; 422  :        	 targetData->range > self->FCC->missileRneMax  )
; 423  : 	{
; 424  : 	   return;
; 425  : 	}
; 426  : 	*/
; 427  : 
; 428  :    if (self->FCC->GetMasterMode() == FireControlComputer::Missile ||
; 429  : 	   self->FCC->GetMasterMode() == FireControlComputer::AirGroundMissile )

	mov	eax, DWORD PTR _this$[ebp]
	mov	ecx, DWORD PTR [eax+4]
	mov	ecx, DWORD PTR [ecx+756]
	call	?GetMasterMode@FireControlComputer@@QAE?AW4FCCMasterMode@1@XZ ; FireControlComputer::GetMasterMode
	cmp	eax, 2
	je	SHORT $LN18@FireContro
	mov	edx, DWORD PTR _this$[ebp]
	mov	eax, DWORD PTR [edx+4]
	mov	ecx, DWORD PTR [eax+756]
	call	?GetMasterMode@FireControlComputer@@QAE?AW4FCCMasterMode@1@XZ ; FireControlComputer::GetMasterMode
	cmp	eax, 6
	jne	SHORT $LN19@FireContro
$LN18@FireContro:

; 430  :    {
; 431  :    		if (targetData->range < 2000.0f || targetData->range > maxWpnRange)

	mov	ecx, DWORD PTR _this$[ebp]
	mov	edx, DWORD PTR [ecx+200]
	movss	xmm0, DWORD PTR __real@44fa0000
	comiss	xmm0, DWORD PTR [edx+44]
	ja	SHORT $LN16@FireContro
	mov	eax, DWORD PTR _this$[ebp]
	mov	ecx, DWORD PTR [eax+200]
	mov	edx, DWORD PTR _this$[ebp]
	movss	xmm0, DWORD PTR [ecx+44]
	comiss	xmm0, DWORD PTR [edx+100]
	jbe	SHORT $LN17@FireContro
$LN16@FireContro:

; 432  :    			return;

	jmp	$LN21@FireContro
$LN17@FireContro:

; 433  :    }
; 434  : // 2001-07-06 ADDED BY S.G. SO ROCKETS WORKS
; 435  :    else //if ( self->FCC->GetMasterMode() == FireControlComputer::AirGroundBomb &&

	jmp	SHORT $LN10@FireContro
$LN19@FireContro:

; 436  : 		//	 self->FCC->GetSubMode() == FireControlComputer::RCKT )
; 437  :    if (self->FCC->GetMasterMode() == FireControlComputer::AirGroundRocket) // MLR 4/3/2004 - 

	mov	eax, DWORD PTR _this$[ebp]
	mov	ecx, DWORD PTR [eax+4]
	mov	ecx, DWORD PTR [ecx+756]
	call	?GetMasterMode@FireControlComputer@@QAE?AW4FCCMasterMode@1@XZ ; FireControlComputer::GetMasterMode
	cmp	eax, 13					; 0000000dH
	jne	SHORT $LN14@FireContro

; 438  :    {
; 439  : 	   if (targetData->range < 1000.0f || targetData->range > maxWpnRange)

	mov	edx, DWORD PTR _this$[ebp]
	mov	eax, DWORD PTR [edx+200]
	movss	xmm0, DWORD PTR __real@447a0000
	comiss	xmm0, DWORD PTR [eax+44]
	ja	SHORT $LN12@FireContro
	mov	ecx, DWORD PTR _this$[ebp]
	mov	edx, DWORD PTR [ecx+200]
	mov	eax, DWORD PTR _this$[ebp]
	movss	xmm0, DWORD PTR [edx+44]
	comiss	xmm0, DWORD PTR [eax+100]
	jbe	SHORT $LN13@FireContro
$LN12@FireContro:

; 440  : 		   return;

	jmp	$LN21@FireContro
$LN13@FireContro:

; 441  :    }
; 442  : // END OF ADDED SECTION
; 443  : 	else {

	jmp	SHORT $LN10@FireContro
$LN14@FireContro:

; 444  : 	   if (targetData->range < 1000.0f || targetData->range > 6000.0f)

	mov	ecx, DWORD PTR _this$[ebp]
	mov	edx, DWORD PTR [ecx+200]
	movss	xmm0, DWORD PTR __real@447a0000
	comiss	xmm0, DWORD PTR [edx+44]
	ja	SHORT $LN9@FireContro
	mov	eax, DWORD PTR _this$[ebp]
	mov	ecx, DWORD PTR [eax+200]
	movss	xmm0, DWORD PTR [ecx+44]
	comiss	xmm0, DWORD PTR __real@45bb8000
	jbe	SHORT $LN10@FireContro
$LN9@FireContro:

; 445  :    			return;

	jmp	$LN21@FireContro
$LN10@FireContro:

; 446  : 	}
; 447  : 
; 448  :    	curMissile->SetTarget(targetPtr);

	mov	edx, DWORD PTR _this$[ebp]
	mov	eax, DWORD PTR [edx+192]
	push	eax
	mov	ecx, DWORD PTR _this$[ebp]
	mov	ecx, DWORD PTR [ecx+76]
	call	?SetTarget@SimMoverClass@@QAEXPAVSimObjectType@@@Z ; SimMoverClass::SetTarget

; 449  : 	self->FCC->SetTarget( targetPtr );

	mov	edx, DWORD PTR _this$[ebp]
	mov	eax, DWORD PTR [edx+192]
	push	eax
	mov	ecx, DWORD PTR _this$[ebp]
	mov	edx, DWORD PTR [ecx+4]
	mov	ecx, DWORD PTR [edx+756]
	call	?SetTarget@FireControlComputer@@QAEXPAVSimObjectType@@@Z ; FireControlComputer::SetTarget

; 450  : 
; 451  : 	float xft, yft, zft, az, el;
; 452  : 
; 453  : #ifdef DEBUG
; 454  : 	if ( theObject->IsAirplane() )
; 455  : 		MonoPrint( "HELO BRAIN Firing Missile at Air Unit\n" );
; 456  : 	else if ( theObject->IsHelicopter() )
; 457  : 		MonoPrint( "HELO BRAIN Firing Missile at Helo Unit\n" );
; 458  : 	else if ( theObject->IsGroundVehicle() )
; 459  : 		MonoPrint( "HELO BRAIN Firing Missile at Ground Unit\n" );
; 460  : 	else
; 461  : 	{
; 462  : 		MonoPrint( "HELO BRAIN Firing Missile at unknown target\n" );
; 463  : 		if (theObject->IsAirplane())
; 464  : 			MonoPrint("Airplane");
; 465  : 		if (theObject->IsAwake())
; 466  : 			MonoPrint("Awake");
; 467  : 		if (theObject->IsBattalion())
; 468  : 			MonoPrint("Battalion");
; 469  : 		if (theObject->IsBomb())
; 470  : 			MonoPrint("Bomb");
; 471  : 		if (theObject->IsBrigade())
; 472  : 			MonoPrint("Brigade");
; 473  : 		if (theObject->IsCamera())
; 474  : 			MonoPrint("Camera");
; 475  : 		if (theObject->IsCampaign())
; 476  : 			MonoPrint("CampaignObject");
; 477  : 		if (theObject->IsCollidable())
; 478  : 			MonoPrint("Collidable");
; 479  : 		if (theObject->IsDead())
; 480  : 			MonoPrint("Dead");
; 481  : 		if (theObject->IsDying())
; 482  : 			MonoPrint("Dying");
; 483  : 		if (theObject->IsEmitting())
; 484  : 			MonoPrint("Emitting");
; 485  : 		if (theObject->IsExploding())
; 486  : 			MonoPrint("Exploding");
; 487  : 		if (theObject->IsFiring())
; 488  : 			MonoPrint("Firing");
; 489  : 		if (theObject->IsFlight())
; 490  : 			MonoPrint("Flight");
; 491  : 		if (theObject->IsGroup())
; 492  : 			MonoPrint("Group");
; 493  : 		if (theObject->IsAreaJamming())
; 494  : 			MonoPrint("AreaJamming");
; 495  : 		if (theObject->IsLocal())
; 496  : 			MonoPrint("Local");
; 497  : 		if (theObject->IsMissile())
; 498  : 			MonoPrint("Missile");
; 499  : 		if (theObject->IsMover())
; 500  : 			MonoPrint("Mover");
; 501  : 		if (theObject->IsPackage())
; 502  : 			MonoPrint("Package");
; 503  : 		if (theObject->IsPersistant())
; 504  : 			MonoPrint("Persistant");
; 505  : 		if (theObject->IsPersistent())
; 506  : 			MonoPrint("Persistent");
; 507  : 		if (theObject->IsPlayer())
; 508  : 			MonoPrint("Player");
; 509  : 		if (theObject->IsPrivate())
; 510  : 			MonoPrint("Private");
; 511  : 		if (theObject->IsSim())
; 512  : 			MonoPrint("SimObject");
; 513  : 		if (theObject->IsSquadron())
; 514  : 			MonoPrint("Squadron");
; 515  : 		if (theObject->IsUnit())
; 516  : 			MonoPrint("Unit");
; 517  : 		if (theObject->IsVehicle())
; 518  : 			MonoPrint("Vehicle");
; 519  : 		if (theObject->IsWeapon())
; 520  : 			MonoPrint("Weapon");
; 521  : 		if (theObject->OnGround())
; 522  : 			MonoPrint("OnGround");
; 523  : 		int g=((CampBaseClass*)theObject)->NumberOfComponents();
; 524  : 		MonoPrint("Number Of Elements: %d targetPtr: %08x BaseDataPointer: %08x",g,targetPtr,theObject);
; 525  : 	}
; 526  : 
; 527  : 	if (theObject->IsSim()) {
; 528  : 		Falcon4EntityClassType	*classPtr = (Falcon4EntityClassType*)theObject->EntityType();
; 529  : 		//MonoPrint("Name: %s",((VehicleClassDataType*)(classPtr->dataPtr))->Name);
; 530  : 	}
; 531  : #endif	
; 532  : 	// edg: get real az & el.  Since we don't update targets every frame
; 533  : 	// anymore, we should get a current val for more accuracy
; 534  : 	xft = theObject->XPos() - self->XPos();

	mov	ecx, DWORD PTR _theObject$[ebp]
	call	?XPos@VuEntity@@QBEMXZ			; VuEntity::XPos
	fstp	DWORD PTR tv422[ebp]
	movss	xmm0, DWORD PTR tv422[ebp]
	mov	eax, DWORD PTR _this$[ebp]
	mov	ecx, DWORD PTR [eax+4]
	movss	DWORD PTR tv527[ebp], xmm0
	call	?XPos@VuEntity@@QBEMXZ			; VuEntity::XPos
	fstp	DWORD PTR tv427[ebp]
	movss	xmm0, DWORD PTR tv527[ebp]
	subss	xmm0, DWORD PTR tv427[ebp]
	movss	DWORD PTR _xft$[ebp], xmm0

; 535  : 	yft = theObject->YPos() - self->YPos();

	mov	ecx, DWORD PTR _theObject$[ebp]
	call	?YPos@VuEntity@@QBEMXZ			; VuEntity::YPos
	fstp	DWORD PTR tv431[ebp]
	movss	xmm0, DWORD PTR tv431[ebp]
	mov	ecx, DWORD PTR _this$[ebp]
	mov	ecx, DWORD PTR [ecx+4]
	movss	DWORD PTR tv529[ebp], xmm0
	call	?YPos@VuEntity@@QBEMXZ			; VuEntity::YPos
	fstp	DWORD PTR tv436[ebp]
	movss	xmm0, DWORD PTR tv529[ebp]
	subss	xmm0, DWORD PTR tv436[ebp]
	movss	DWORD PTR _yft$[ebp], xmm0

; 536  : 	zft = theObject->ZPos() - self->ZPos();

	mov	ecx, DWORD PTR _theObject$[ebp]
	call	?ZPos@VuEntity@@QBEMXZ			; VuEntity::ZPos
	fstp	DWORD PTR tv440[ebp]
	movss	xmm0, DWORD PTR tv440[ebp]
	mov	edx, DWORD PTR _this$[ebp]
	mov	ecx, DWORD PTR [edx+4]
	movss	DWORD PTR tv531[ebp], xmm0
	call	?ZPos@VuEntity@@QBEMXZ			; VuEntity::ZPos
	fstp	DWORD PTR tv445[ebp]
	movss	xmm0, DWORD PTR tv531[ebp]
	subss	xmm0, DWORD PTR tv445[ebp]
	movss	DWORD PTR _zft$[ebp], xmm0

; 537  : 
; 538  : 	// az and el are relative from vehicles orientation so subtract
; 539  : 	// out yaw and pitch
; 540  : 	az = (float)atan2(yft,xft) - self->Yaw();

	cvtss2sd xmm0, DWORD PTR _xft$[ebp]
	sub	esp, 8
	movsd	QWORD PTR [esp], xmm0
	cvtss2sd xmm0, DWORD PTR _yft$[ebp]
	sub	esp, 8
	movsd	QWORD PTR [esp], xmm0
	call	?checked_atan2@@YANNN@Z			; checked_atan2
	add	esp, 16					; 00000010H
	fstp	QWORD PTR tv451[ebp]
	movsd	xmm0, QWORD PTR tv451[ebp]
	cvtsd2ss xmm0, xmm0
	mov	eax, DWORD PTR _this$[ebp]
	mov	ecx, DWORD PTR [eax+4]
	movss	DWORD PTR tv533[ebp], xmm0
	call	?Yaw@VuEntity@@QBEMXZ			; VuEntity::Yaw
	fstp	DWORD PTR tv456[ebp]
	movss	xmm0, DWORD PTR tv533[ebp]
	subss	xmm0, DWORD PTR tv456[ebp]
	movss	DWORD PTR _az$[ebp], xmm0

; 541  : 	el = (float)atan(-zft/(float)sqrt(xft*xft + yft*yft + 0.1F)) - self->Pitch();

	movss	xmm0, DWORD PTR _zft$[ebp]
	xorps	xmm0, DWORD PTR __xmm@80000000800000008000000080000000
	movss	xmm1, DWORD PTR _xft$[ebp]
	mulss	xmm1, DWORD PTR _xft$[ebp]
	movss	xmm2, DWORD PTR _yft$[ebp]
	mulss	xmm2, DWORD PTR _yft$[ebp]
	addss	xmm1, xmm2
	addss	xmm1, DWORD PTR __real@3dcccccd
	push	ecx
	movss	DWORD PTR [esp], xmm1
	movss	DWORD PTR tv535[ebp], xmm0
	call	?SqrtSSE@@YAMM@Z			; SqrtSSE
	add	esp, 4
	fstp	DWORD PTR tv464[ebp]
	movss	xmm0, DWORD PTR tv535[ebp]
	divss	xmm0, DWORD PTR tv464[ebp]
	push	ecx
	movss	DWORD PTR [esp], xmm0
	call	?atan@@YAMM@Z				; atan
	add	esp, 4
	fstp	DWORD PTR tv469[ebp]
	movss	xmm0, DWORD PTR tv469[ebp]
	mov	ecx, DWORD PTR _this$[ebp]
	mov	ecx, DWORD PTR [ecx+4]
	movss	DWORD PTR tv537[ebp], xmm0
	call	?Pitch@VuEntity@@QBEMXZ			; VuEntity::Pitch
	fstp	DWORD PTR tv474[ebp]
	movss	xmm0, DWORD PTR tv537[ebp]
	subss	xmm0, DWORD PTR tv474[ebp]
	movss	DWORD PTR _el$[ebp], xmm0

; 542  : 
; 543  : 	self->Sms->SetMasterArm(SMSBaseClass::Arm);	// M.N. This prevented helicopters from firing their missiles

	push	2
	mov	edx, DWORD PTR _this$[ebp]
	mov	eax, DWORD PTR [edx+4]
	mov	ecx, DWORD PTR [eax+760]
	call	?SetMasterArm@SMSBaseClass@@QAEXW4MasterArmState@1@@Z ; SMSBaseClass::SetMasterArm

; 544  : 
; 545  : 	if (curMissile->targetPtr)

	mov	ecx, DWORD PTR _this$[ebp]
	mov	edx, DWORD PTR [ecx+76]
	cmp	DWORD PTR [edx+656], 0
	je	SHORT $LN8@FireContro

; 546  : 		CalcRelGeom(self, curMissile->targetPtr, NULL, 1.0F / SimLibMajorFrameTime);

	movss	xmm0, DWORD PTR __real@3f800000
	divss	xmm0, DWORD PTR ?SimLibMajorFrameTime@@3MA
	push	ecx
	movss	DWORD PTR [esp], xmm0
	push	0
	mov	eax, DWORD PTR _this$[ebp]
	mov	ecx, DWORD PTR [eax+76]
	mov	edx, DWORD PTR [ecx+656]
	push	edx
	mov	eax, DWORD PTR _this$[ebp]
	mov	ecx, DWORD PTR [eax+4]
	push	ecx
	call	?CalcRelGeom@@YAXPAVSimBaseClass@@PAVSimObjectType@@QAY02MM@Z ; CalcRelGeom
	add	esp, 16					; 00000010H
$LN8@FireContro:

; 547  : 
; 548  : 	// SetFlag(MslFireFlag);
; 549  : 	if ( self->Sms->curWeapon )

	mov	edx, DWORD PTR _this$[ebp]
	mov	eax, DWORD PTR [edx+4]
	mov	ecx, DWORD PTR [eax+760]
	add	ecx, 164				; 000000a4H
	call	??B?$VuBin@VSimWeaponClass@@@@QBE_NXZ	; VuBin<SimWeaponClass>::operator bool
	movzx	ecx, al
	test	ecx, ecx
	je	$LN1@FireContro

; 550  : 	{
; 551  : 	   if (self->FCC->GetMasterMode() == FireControlComputer::Missile ||
; 552  : 		   self->FCC->GetMasterMode() == FireControlComputer::AirGroundMissile )

	mov	edx, DWORD PTR _this$[ebp]
	mov	eax, DWORD PTR [edx+4]
	mov	ecx, DWORD PTR [eax+756]
	call	?GetMasterMode@FireControlComputer@@QAE?AW4FCCMasterMode@1@XZ ; FireControlComputer::GetMasterMode
	cmp	eax, 2
	je	SHORT $LN5@FireContro
	mov	ecx, DWORD PTR _this$[ebp]
	mov	edx, DWORD PTR [ecx+4]
	mov	ecx, DWORD PTR [edx+756]
	call	?GetMasterMode@FireControlComputer@@QAE?AW4FCCMasterMode@1@XZ ; FireControlComputer::GetMasterMode
	cmp	eax, 6
	jne	$LN6@FireContro
$LN5@FireContro:

; 553  : 	   {
; 554  : 			 // rotate the missile on hardpoint towards target
; 555  : 			 self->Sms->hardPoint[self->Sms->CurHardpoint()]->SetSubRotation(self->Sms->curWpnNum, az, el);

	mov	eax, DWORD PTR _this$[ebp]
	mov	ecx, DWORD PTR [eax+4]
	mov	esi, DWORD PTR [ecx+760]
	mov	edx, DWORD PTR _this$[ebp]
	mov	eax, DWORD PTR [edx+4]
	mov	ecx, DWORD PTR [eax+760]
	call	?CurHardpoint@SMSBaseClass@@QAEHXZ	; SMSBaseClass::CurHardpoint
	mov	ecx, DWORD PTR [esi+4]
	mov	edx, DWORD PTR [ecx+eax*4]
	mov	DWORD PTR tv296[ebp], edx
	push	ecx
	movss	xmm0, DWORD PTR _el$[ebp]
	movss	DWORD PTR [esp], xmm0
	push	ecx
	movss	xmm0, DWORD PTR _az$[ebp]
	movss	DWORD PTR [esp], xmm0
	mov	eax, DWORD PTR _this$[ebp]
	mov	ecx, DWORD PTR [eax+4]
	mov	edx, DWORD PTR [ecx+760]
	mov	eax, DWORD PTR [edx+136]
	push	eax
	mov	ecx, DWORD PTR tv296[ebp]
	mov	edx, DWORD PTR [ecx]
	mov	ecx, DWORD PTR tv296[ebp]
	mov	eax, DWORD PTR [edx+28]
	call	eax

; 556  : 
; 557  : 			 if (self->Sms->LaunchMissile())

	mov	ecx, DWORD PTR _this$[ebp]
	mov	edx, DWORD PTR [ecx+4]
	mov	ecx, DWORD PTR [edx+760]
	call	?LaunchMissile@SMSClass@@QAEHXZ		; SMSClass::LaunchMissile
	test	eax, eax
	je	SHORT $LN4@FireContro

; 558  : 			 {
; 559  : 				self->SendFireMessage ((SimWeaponClass*)curMissile, FalconWeaponsFire::SRM, TRUE, targetPtr);

	mov	eax, DWORD PTR ?FalconNullId@@3VVU_ID@@A+4
	push	eax
	mov	ecx, DWORD PTR ?FalconNullId@@3VVU_ID@@A
	push	ecx
	mov	edx, DWORD PTR _this$[ebp]
	mov	eax, DWORD PTR [edx+192]
	push	eax
	push	1
	push	2
	mov	ecx, DWORD PTR _this$[ebp]
	mov	edx, DWORD PTR [ecx+76]
	push	edx
	mov	eax, DWORD PTR _this$[ebp]
	mov	ecx, DWORD PTR [eax+4]
	call	?SendFireMessage@SimVehicleClass@@QAEXPAVSimWeaponClass@@HHPAVSimObjectType@@VVU_ID@@@Z ; SimVehicleClass::SendFireMessage
$LN4@FireContro:

; 560  : 				// MLR 1/25/2004 - we'll just let the missile engine sound suffice
; 561  : 			   	//F4SoundFXSetPos( SFX_MISSILE1, 0, self->XPos(), self->YPos(), self->ZPos(), 1.0f , 0 , self->XDelta(),self->YDelta(),self->ZDelta());
; 562  : 			 }
; 563  : 	   } 
; 564  :        else //if (self->FCC->GetMasterMode() == FireControlComputer::AirGroundBomb &&

	jmp	SHORT $LN1@FireContro
$LN6@FireContro:

; 565  :          	 //  self->FCC->GetSubMode() == FireControlComputer::RCKT)
; 566  : 	   if (self->FCC->GetMasterMode() == FireControlComputer::AirGroundRocket) // MLR 4/3/2004 - 

	mov	ecx, DWORD PTR _this$[ebp]
	mov	edx, DWORD PTR [ecx+4]
	mov	ecx, DWORD PTR [edx+756]
	call	?GetMasterMode@FireControlComputer@@QAE?AW4FCCMasterMode@1@XZ ; FireControlComputer::GetMasterMode
	cmp	eax, 13					; 0000000dH
	jne	SHORT $LN1@FireContro

; 567  :        {
; 568  : 			// rotate the missile on hardpoint towards target
; 569  : 			self->Sms->curWpnNum = 0;

	mov	eax, DWORD PTR _this$[ebp]
	mov	ecx, DWORD PTR [eax+4]
	mov	edx, DWORD PTR [ecx+760]
	mov	DWORD PTR [edx+136], 0

; 570  : 
; 571  : 			// This just causes the rockets to fly all over the place
; 572  : 			//self->Sms->hardPoint[self->Sms->CurHardpoint()]->SetSubRotation(0, az, el); 
; 573  : 
; 574  : 		 	if (self->Sms->LaunchRocket())

	mov	eax, DWORD PTR _this$[ebp]
	mov	ecx, DWORD PTR [eax+4]
	mov	ecx, DWORD PTR [ecx+760]
	call	?LaunchRocket@SMSClass@@QAEHXZ		; SMSClass::LaunchRocket
	test	eax, eax
	je	SHORT $LN1@FireContro

; 575  : 		 	{
; 576  : 		    	// Play the sound
; 577  : 				// MLR 1/25/2004 - we'll just let the missile engine sound suffice
; 578  : 		    	//F4SoundFXSetPos( SFX_MISSILE3, TRUE, self->XPos(), self->YPos(), self->ZPos(), 1.0f , 0 , self->XDelta(),self->YDelta(),self->ZDelta());
; 579  : 
; 580  : 		    	// Drop a message
; 581  : 		    	self->SendFireMessage (curMissile, FalconWeaponsFire::Rocket, TRUE, targetPtr);

	mov	edx, DWORD PTR ?FalconNullId@@3VVU_ID@@A+4
	push	edx
	mov	eax, DWORD PTR ?FalconNullId@@3VVU_ID@@A
	push	eax
	mov	ecx, DWORD PTR _this$[ebp]
	mov	edx, DWORD PTR [ecx+192]
	push	edx
	push	1
	push	6
	mov	eax, DWORD PTR _this$[ebp]
	mov	ecx, DWORD PTR [eax+76]
	push	ecx
	mov	edx, DWORD PTR _this$[ebp]
	mov	ecx, DWORD PTR [edx+4]
	call	?SendFireMessage@SimVehicleClass@@QAEXPAVSimWeaponClass@@HHPAVSimObjectType@@VVU_ID@@@Z ; SimVehicleClass::SendFireMessage
$LN1@FireContro:
$LN21@FireContro:

; 582  : 		 	}
; 583  :        }
; 584  :    }
; 585  : }

	pop	esi
	mov	esp, ebp
	pop	ebp
	ret	0
?FireControl@HeliBrain@@QAEXXZ ENDP			; HeliBrain::FireControl
_TEXT	ENDS
; Function compile flags: /Odtp
; File c:\users\zhitao li\documents\visual studio 2012\projects\freefalcon\sim\hdigi\h_gengage.cpp
_TEXT	SEGMENT
tv353 = -24						; size = 4
tv250 = -20						; size = 4
tv210 = -16						; size = 4
tv190 = -12						; size = 4
_target$ = -8						; size = 4
_this$ = -4						; size = 4
?WeaponSelection@HeliBrain@@QAEXXZ PROC			; HeliBrain::WeaponSelection
; _this$ = ecx

; 885  : {

	push	ebp
	mov	ebp, esp
	sub	esp, 24					; 00000018H
	mov	DWORD PTR _this$[ebp], ecx

; 886  :     SimVehicleClass *target=NULL;

	mov	DWORD PTR _target$[ebp], 0

; 887  : 
; 888  : 	if (targetPtr) {

	mov	eax, DWORD PTR _this$[ebp]
	cmp	DWORD PTR [eax+192], 0
	je	$LN3@WeaponSele

; 889  :     	target = (SimVehicleClass *)targetPtr->BaseData();

	mov	ecx, DWORD PTR _this$[ebp]
	mov	ecx, DWORD PTR [ecx+192]
	call	?BaseData@SimObjectType@@QAEPAVFalconEntity@@XZ ; SimObjectType::BaseData
	mov	DWORD PTR _target$[ebp], eax

; 890  : 	
; 891  : 		if (target->OnGround()) {

	mov	edx, DWORD PTR _target$[ebp]
	mov	eax, DWORD PTR [edx]
	mov	ecx, DWORD PTR _target$[ebp]
	mov	edx, DWORD PTR [eax+148]
	call	edx
	test	eax, eax
	je	SHORT $LN12@WeaponSele

; 892  : 			// would be nice to pick weapons based on what the target is
; 893  : 			if(!self->Sms->FindWeaponClass(wcAgmWpn))

	push	1
	push	6
	mov	eax, DWORD PTR _this$[ebp]
	mov	ecx, DWORD PTR [eax+4]
	mov	ecx, DWORD PTR [ecx+760]
	call	?FindWeaponClass@SMSClass@@QAEHW4WeaponClass@@H@Z ; SMSClass::FindWeaponClass
	test	eax, eax
	jne	SHORT $LN11@WeaponSele

; 894  : 				self->Sms->FindWeaponClass(wcRocketWpn);

	push	1
	push	1
	mov	edx, DWORD PTR _this$[ebp]
	mov	eax, DWORD PTR [edx+4]
	mov	ecx, DWORD PTR [eax+760]
	call	?FindWeaponClass@SMSClass@@QAEHW4WeaponClass@@H@Z ; SMSClass::FindWeaponClass
$LN11@WeaponSele:

; 895  : 			// self->Sms->FindWeaponClass(wcGunWpn);
; 896  : 		}
; 897  : 		else {

	jmp	SHORT $LN10@WeaponSele
$LN12@WeaponSele:

; 898  : 			// airborne
; 899  : 			self->Sms->FindWeaponClass(wcAimWpn);

	push	1
	push	0
	mov	ecx, DWORD PTR _this$[ebp]
	mov	edx, DWORD PTR [ecx+4]
	mov	ecx, DWORD PTR [edx+760]
	call	?FindWeaponClass@SMSClass@@QAEHW4WeaponClass@@H@Z ; SMSClass::FindWeaponClass
$LN10@WeaponSele:

; 900  : 			//self->Sms->FindWeaponClass(wcGunWpn);
; 901  : 		}
; 902  : 
; 903  : 		maxWpnRange=6000;

	mov	eax, DWORD PTR _this$[ebp]
	movss	xmm0, DWORD PTR __real@45bb8000
	movss	DWORD PTR [eax+100], xmm0

; 904  : 
; 905  : 		if(self->Sms->curWeapon) {

	mov	ecx, DWORD PTR _this$[ebp]
	mov	edx, DWORD PTR [ecx+4]
	mov	ecx, DWORD PTR [edx+760]
	add	ecx, 164				; 000000a4H
	call	??B?$VuBin@VSimWeaponClass@@@@QBE_NXZ	; VuBin<SimWeaponClass>::operator bool
	movzx	eax, al
	test	eax, eax
	je	$LN3@WeaponSele

; 906  : 			anyWeapons = TRUE;

	mov	ecx, DWORD PTR _this$[ebp]
	mov	DWORD PTR [ecx+104], 1

; 907  : 			curMissile = self->Sms->GetCurrentWeapon();

	mov	edx, DWORD PTR _this$[ebp]
	mov	eax, DWORD PTR [edx+4]
	mov	ecx, DWORD PTR [eax+760]
	mov	edx, DWORD PTR _this$[ebp]
	mov	eax, DWORD PTR [edx+4]
	mov	edx, DWORD PTR [ecx]
	mov	ecx, DWORD PTR [eax+760]
	mov	eax, DWORD PTR [edx+12]
	call	eax
	mov	ecx, DWORD PTR _this$[ebp]
	mov	DWORD PTR [ecx+76], eax

; 908  :  			curMissileStation = self->Sms->GetCurrentWeaponHardpoint();

	mov	edx, DWORD PTR _this$[ebp]
	mov	eax, DWORD PTR [edx+4]
	mov	ecx, DWORD PTR [eax+760]
	call	?GetCurrentWeaponHardpoint@SMSBaseClass@@QAEHXZ ; SMSBaseClass::GetCurrentWeaponHardpoint
	mov	ecx, DWORD PTR _this$[ebp]
	mov	DWORD PTR [ecx+80], eax

; 909  :  			curMissileNum = 0; // wtf, who cares?

	mov	edx, DWORD PTR _this$[ebp]
	mov	DWORD PTR [edx+84], 0

; 910  : 
; 911  : 			if (target->OnGround())

	mov	eax, DWORD PTR _target$[ebp]
	mov	edx, DWORD PTR [eax]
	mov	ecx, DWORD PTR _target$[ebp]
	mov	eax, DWORD PTR [edx+148]
	call	eax
	test	eax, eax
	je	SHORT $LN8@WeaponSele

; 912  : 				self->FCC->SetAGMasterModeForCurrentWeapon();

	mov	ecx, DWORD PTR _this$[ebp]
	mov	edx, DWORD PTR [ecx+4]
	mov	ecx, DWORD PTR [edx+756]
	call	?SetAGMasterModeForCurrentWeapon@FireControlComputer@@QAEXXZ ; FireControlComputer::SetAGMasterModeForCurrentWeapon

; 913  : 			else

	jmp	SHORT $LN7@WeaponSele
$LN8@WeaponSele:

; 914  : 				self->FCC->SetAAMasterModeForCurrentWeapon();

	mov	eax, DWORD PTR _this$[ebp]
	mov	ecx, DWORD PTR [eax+4]
	mov	ecx, DWORD PTR [ecx+756]
	call	?SetAAMasterModeForCurrentWeapon@FireControlComputer@@QAEXXZ ; FireControlComputer::SetAAMasterModeForCurrentWeapon
$LN7@WeaponSele:

; 915  : 
; 916  : 			if(self->Sms->curWeapon->IsMissile())

	mov	edx, DWORD PTR _this$[ebp]
	mov	eax, DWORD PTR [edx+4]
	mov	ecx, DWORD PTR [eax+760]
	add	ecx, 164				; 000000a4H
	call	??C?$VuBin@VSimWeaponClass@@@@QBEPAVSimWeaponClass@@XZ ; VuBin<SimWeaponClass>::operator->
	mov	DWORD PTR tv190[ebp], eax
	mov	ecx, DWORD PTR tv190[ebp]
	mov	edx, DWORD PTR [ecx]
	mov	ecx, DWORD PTR tv190[ebp]
	mov	eax, DWORD PTR [edx+156]
	call	eax
	test	eax, eax
	je	$LN6@WeaponSele

; 917  : 			{
; 918  : 				maxWpnRange = ((MissileClass *)curMissile)->GetRMax(-self->ZPos(),
; 919  : 									self->GetVt(),
; 920  : 									targetData->az,
; 921  : 				    				targetPtr->BaseData()->GetVt(),
; 922  : 									targetData->ataFrom);

	mov	ecx, DWORD PTR _this$[ebp]
	mov	ecx, DWORD PTR [ecx+192]
	call	?BaseData@SimObjectType@@QAEPAVFalconEntity@@XZ ; SimObjectType::BaseData
	mov	DWORD PTR tv210[ebp], eax
	mov	edx, DWORD PTR _this$[ebp]
	mov	eax, DWORD PTR [edx+200]
	push	ecx
	movss	xmm0, DWORD PTR [eax+4]
	movss	DWORD PTR [esp], xmm0
	mov	ecx, DWORD PTR tv210[ebp]
	mov	edx, DWORD PTR [ecx]
	mov	ecx, DWORD PTR tv210[ebp]
	mov	eax, DWORD PTR [edx+220]
	call	eax
	push	ecx
	fstp	DWORD PTR [esp]
	mov	ecx, DWORD PTR _this$[ebp]
	mov	edx, DWORD PTR [ecx+200]
	push	ecx
	movss	xmm0, DWORD PTR [edx+16]
	movss	DWORD PTR [esp], xmm0
	mov	eax, DWORD PTR _this$[ebp]
	mov	ecx, DWORD PTR _this$[ebp]
	mov	edx, DWORD PTR [ecx+4]
	mov	edx, DWORD PTR [edx]
	mov	ecx, DWORD PTR [eax+4]
	mov	eax, DWORD PTR [edx+220]
	call	eax
	push	ecx
	fstp	DWORD PTR [esp]
	mov	ecx, DWORD PTR _this$[ebp]
	mov	ecx, DWORD PTR [ecx+4]
	call	?ZPos@VuEntity@@QBEMXZ			; VuEntity::ZPos
	fstp	DWORD PTR tv353[ebp]
	movss	xmm0, DWORD PTR tv353[ebp]
	xorps	xmm0, DWORD PTR __xmm@80000000800000008000000080000000
	push	ecx
	movss	DWORD PTR [esp], xmm0
	mov	edx, DWORD PTR _this$[ebp]
	mov	ecx, DWORD PTR [edx+76]
	call	?GetRMax@MissileClass@@QAEMMMMMM@Z	; MissileClass::GetRMax
	mov	eax, DWORD PTR _this$[ebp]
	fstp	DWORD PTR [eax+100]

; 923  : 			}
; 924  : 			else {

	jmp	SHORT $LN3@WeaponSele
$LN6@WeaponSele:

; 925  : 				if(self->Sms->curWeapon->IsLauncher()) {

	mov	ecx, DWORD PTR _this$[ebp]
	mov	edx, DWORD PTR [ecx+4]
	mov	ecx, DWORD PTR [edx+760]
	add	ecx, 164				; 000000a4H
	call	??C?$VuBin@VSimWeaponClass@@@@QBEPAVSimWeaponClass@@XZ ; VuBin<SimWeaponClass>::operator->
	mov	DWORD PTR tv250[ebp], eax
	mov	eax, DWORD PTR tv250[ebp]
	mov	edx, DWORD PTR [eax]
	mov	ecx, DWORD PTR tv250[ebp]
	mov	eax, DWORD PTR [edx+160]
	call	eax
	test	eax, eax
	je	SHORT $LN4@WeaponSele

; 926  : 					// the FCC has a rocket missile pointer, we need access to it though...
; 927  : 					maxWpnRange = 6000;

	mov	ecx, DWORD PTR _this$[ebp]
	movss	xmm0, DWORD PTR __real@45bb8000
	movss	DWORD PTR [ecx+100], xmm0

; 928  : 				}
; 929  : 				else {

	jmp	SHORT $LN3@WeaponSele
$LN4@WeaponSele:

; 930  : 					maxWpnRange = 6000;

	mov	edx, DWORD PTR _this$[ebp]
	movss	xmm0, DWORD PTR __real@45bb8000
	movss	DWORD PTR [edx+100], xmm0
$LN3@WeaponSele:

; 931  : 				}
; 932  : 			}
; 933  : 		}
; 934  : 	}
; 935  : 
; 936  : 	if( lastRange > maxWpnRange || 
; 937  : 		!self->Sms->curWeapon  ||
; 938  : 		!targetPtr)

	mov	eax, DWORD PTR _this$[ebp]
	mov	ecx, DWORD PTR _this$[ebp]
	movss	xmm0, DWORD PTR [eax+56]
	comiss	xmm0, DWORD PTR [ecx+100]
	ja	SHORT $LN1@WeaponSele
	mov	edx, DWORD PTR _this$[ebp]
	mov	eax, DWORD PTR [edx+4]
	mov	ecx, DWORD PTR [eax+760]
	add	ecx, 164				; 000000a4H
	call	??7?$VuBin@VSimWeaponClass@@@@QBE_NXZ	; VuBin<SimWeaponClass>::operator!
	movzx	ecx, al
	test	ecx, ecx
	jne	SHORT $LN1@WeaponSele
	mov	edx, DWORD PTR _this$[ebp]
	cmp	DWORD PTR [edx+192], 0
	jne	SHORT $LN2@WeaponSele
$LN1@WeaponSele:

; 939  : 	{
; 940  : 		self->FCC->SetMasterMode(FireControlComputer::Nav);

	push	4
	mov	eax, DWORD PTR _this$[ebp]
	mov	ecx, DWORD PTR [eax+4]
	mov	ecx, DWORD PTR [ecx+756]
	call	?SetMasterMode@FireControlComputer@@QAEXW4FCCMasterMode@1@@Z ; FireControlComputer::SetMasterMode

; 941  :    		curMissile = NULL;

	mov	edx, DWORD PTR _this$[ebp]
	mov	DWORD PTR [edx+76], 0

; 942  :    		curMissileStation = -1;

	mov	eax, DWORD PTR _this$[ebp]
	mov	DWORD PTR [eax+80], -1

; 943  :    		curMissileNum     = -1;

	mov	ecx, DWORD PTR _this$[ebp]
	mov	DWORD PTR [ecx+84], -1
$LN2@WeaponSele:

; 944  : 	}
; 945  : }

	mov	esp, ebp
	pop	ebp
	ret	0
?WeaponSelection@HeliBrain@@QAEXXZ ENDP			; HeliBrain::WeaponSelection
_TEXT	ENDS
; Function compile flags: /Odtp
; File c:\users\zhitao li\documents\visual studio 2012\projects\freefalcon\sim\hdigi\h_gengage.cpp
_TEXT	SEGMENT
_this$ = -4						; size = 4
___formal$ = 8						; size = 4
___formal$ = 12						; size = 4
___formal$ = 16						; size = 4
?CoarseGunsTrack@HeliBrain@@QAEXMMPAM@Z PROC		; HeliBrain::CoarseGunsTrack
; _this$ = ecx

; 380  : {

	push	ebp
	mov	ebp, esp
	push	ecx
	mov	DWORD PTR _this$[ebp], ecx

; 381  : }

	mov	esp, ebp
	pop	ebp
	ret	12					; 0000000cH
?CoarseGunsTrack@HeliBrain@@QAEXMMPAM@Z ENDP		; HeliBrain::CoarseGunsTrack
_TEXT	ENDS
; Function compile flags: /Odtp
; File c:\users\zhitao li\documents\visual studio 2012\projects\freefalcon\sim\hdigi\h_gengage.cpp
_TEXT	SEGMENT
_this$ = -4						; size = 4
___formal$ = 8						; size = 4
___formal$ = 12						; size = 4
?FineGunsTrack@HeliBrain@@QAEXMPAM@Z PROC		; HeliBrain::FineGunsTrack
; _this$ = ecx

; 384  : {

	push	ebp
	mov	ebp, esp
	push	ecx
	mov	DWORD PTR _this$[ebp], ecx

; 385  : }

	mov	esp, ebp
	pop	ebp
	ret	8
?FineGunsTrack@HeliBrain@@QAEXMPAM@Z ENDP		; HeliBrain::FineGunsTrack
_TEXT	ENDS
; Function compile flags: /Odtp
; File c:\users\zhitao li\documents\visual studio 2012\projects\freefalcon\sim\hdigi\h_gengage.cpp
_TEXT	SEGMENT
_this$ = -4						; size = 4
___formal$ = 8						; size = 4
___formal$ = 12						; size = 4
___formal$ = 16						; size = 4
___formal$ = 20						; size = 4
___formal$ = 24						; size = 4
?GunsAutoTrack@HeliBrain@@QAEMMMMPAMM@Z PROC		; HeliBrain::GunsAutoTrack
; _this$ = ecx

; 388  : {

	push	ebp
	mov	ebp, esp
	push	ecx
	mov	DWORD PTR _this$[ebp], ecx

; 389  : 	return (0.0f);

	fldz

; 390  : }

	mov	esp, ebp
	pop	ebp
	ret	20					; 00000014H
?GunsAutoTrack@HeliBrain@@QAEMMMMPAMM@Z ENDP		; HeliBrain::GunsAutoTrack
_TEXT	ENDS
; Function compile flags: /Odtp
; File c:\users\zhitao li\documents\visual studio 2012\projects\freefalcon\sim\hdigi\h_gengage.cpp
_TEXT	SEGMENT
tv1121 = -316						; size = 8
_pedalLoad$ = -308					; size = 4
tv839 = -304						; size = 4
tv1045 = -300						; size = 4
tv1280 = -296						; size = 4
tv1284 = -292						; size = 4
tv988 = -288						; size = 4
tv843 = -284						; size = 4
tv962 = -280						; size = 4
tv886 = -276						; size = 4
tv1187 = -272						; size = 4
tv1282 = -268						; size = 4
tv1126 = -264						; size = 4
_az$1 = -260						; size = 4
tv1302 = -256						; size = 4
tv972 = -252						; size = 4
tv1114 = -248						; size = 4
tv930 = -244						; size = 4
tv1108 = -240						; size = 4
tv881 = -236						; size = 4
tv1102 = -232						; size = 4
tv858 = -228						; size = 4
tv1298 = -224						; size = 4
tv1290 = -220						; size = 4
tv1300 = -216						; size = 4
tv1039 = -212						; size = 4
tv1096 = -208						; size = 4
_el$2 = -204						; size = 4
tv1090 = -200						; size = 4
tv1288 = -196						; size = 4
tv1296 = -192						; size = 4
tv967 = -188						; size = 4
tv1084 = -184						; size = 4
_ataerror$ = -180					; size = 4
tv1078 = -176						; size = 4
tv834 = -172						; size = 4
tv1294 = -168						; size = 4
tv1286 = -164						; size = 4
tv1069 = -160						; size = 4
tv877 = -156						; size = 4
tv1063 = -152						; size = 4
tv863 = -148						; size = 4
tv1292 = -144						; size = 4
tv848 = -140						; size = 4
tv1057 = -136						; size = 4
tv1051 = -132						; size = 4
_rx$ = -128						; size = 4
_elerr$ = -124						; size = 4
tv734 = -120						; size = 4
_rz$ = -116						; size = 4
tv741 = -112						; size = 4
tv657 = -108						; size = 4
tv296 = -104						; size = 4
tv742 = -100						; size = 4
tv698 = -96						; size = 4
_psi$3 = -92						; size = 8
_tha$4 = -84						; size = 8
_wpY$ = -76						; size = 4
_rollDir$ = -72						; size = 4
_wpX$ = -68						; size = 4
_wpZ$ = -64						; size = 4
_tof$5 = -60						; size = 4
_alt$ = -56						; size = 4
_desSpeed$ = -52					; size = 4
_desHeading$ = -48					; size = 4
_zft$ = -44						; size = 4
_xft$ = -40						; size = 4
_rng$ = -36						; size = 4
_rollLoad$ = -32					; size = 4
_yft$ = -28						; size = 4
_theObject$ = -24					; size = 4
_this$ = -20						; size = 4
_pos$6 = -16						; size = 12
__$ArrayPad$ = -4					; size = 4
?GunsEngage@HeliBrain@@QAEXXZ PROC			; HeliBrain::GunsEngage
; _this$ = ecx

; 150  : {

	push	ebp
	mov	ebp, esp
	sub	esp, 316				; 0000013cH
	mov	eax, DWORD PTR ___security_cookie
	xor	eax, ebp
	mov	DWORD PTR __$ArrayPad$[ebp], eax
	mov	DWORD PTR _this$[ebp], ecx

; 151  : 	float rng, desHeading;
; 152  : 	float rollLoad;
; 153  : 	float rollDir;
; 154  : 	float pedalLoad;
; 155  : 	float elerr;
; 156  : 	float rz;
; 157  : 	float desSpeed;
; 158  : 	float wpX, wpY, wpZ;
; 159  : 	float alt;
; 160  : 	float ataerror;
; 161  :     SimVehicleClass *theObject;
; 162  : 
; 163  : 	ClearFlag (MslFireFlag | GunFireFlag);

	push	3
	mov	ecx, DWORD PTR _this$[ebp]
	call	?ClearFlag@HeliBrain@@QAEXH@Z		; HeliBrain::ClearFlag

; 164  : 	mslCheckTimer += SimLibMajorFrameTime;

	mov	eax, DWORD PTR _this$[ebp]
	movss	xmm0, DWORD PTR [eax+96]
	addss	xmm0, DWORD PTR ?SimLibMajorFrameTime@@3MA
	mov	ecx, DWORD PTR _this$[ebp]
	movss	DWORD PTR [ecx+96], xmm0

; 165  : 
; 166  : 	if (targetPtr == NULL) {

	mov	edx, DWORD PTR _this$[ebp]
	cmp	DWORD PTR [edx+192], 0
	jne	SHORT $LN36@GunsEngage

; 167  :       	return;

	jmp	$LN37@GunsEngage
$LN36@GunsEngage:

; 168  :    	}
; 169  : 
; 170  : 	if (self->OnGround()) {

	mov	eax, DWORD PTR _this$[ebp]
	mov	ecx, DWORD PTR [eax+4]
	mov	edx, DWORD PTR _this$[ebp]
	mov	eax, DWORD PTR [ecx]
	mov	ecx, DWORD PTR [edx+4]
	mov	edx, DWORD PTR [eax+148]
	call	edx
	test	eax, eax
	je	SHORT $LN35@GunsEngage

; 171  : 		self->UnSetFlag(ON_GROUND);

	push	128					; 00000080H
	mov	eax, DWORD PTR _this$[ebp]
	mov	ecx, DWORD PTR [eax+4]
	call	?UnSetFlag@SimBaseClass@@QAEXH@Z	; SimBaseClass::UnSetFlag
$LN35@GunsEngage:

; 172  : 	}
; 173  : 
; 174  : 	WeaponSelection();

	mov	ecx, DWORD PTR _this$[ebp]
	call	?WeaponSelection@HeliBrain@@QAEXXZ	; HeliBrain::WeaponSelection

; 175  : 
; 176  : 	if (self->pctStrength < 1.0) {

	mov	ecx, DWORD PTR _this$[ebp]
	mov	edx, DWORD PTR [ecx+4]
	cvtss2sd xmm0, DWORD PTR [edx+292]
	movsd	xmm1, QWORD PTR __real@3ff0000000000000
	comisd	xmm1, xmm0
	jbe	SHORT $LN34@GunsEngage

; 177  : 		return;

	jmp	$LN37@GunsEngage
$LN34@GunsEngage:

; 178  : 	}
; 179  : 
; 180  : 	// we're likely dealing with stale data for target, update range and ata
; 181  :     float xft, yft, zft;
; 182  :     float rx;
; 183  : 
; 184  :     theObject = (SimVehicleClass *)targetPtr->BaseData();

	mov	eax, DWORD PTR _this$[ebp]
	mov	ecx, DWORD PTR [eax+192]
	call	?BaseData@SimObjectType@@QAEPAVFalconEntity@@XZ ; SimObjectType::BaseData
	mov	DWORD PTR _theObject$[ebp], eax

; 185  : 
; 186  :     xft = theObject->XPos() - self->XPos();

	mov	ecx, DWORD PTR _theObject$[ebp]
	call	?XPos@VuEntity@@QBEMXZ			; VuEntity::XPos
	fstp	DWORD PTR tv834[ebp]
	movss	xmm0, DWORD PTR tv834[ebp]
	mov	ecx, DWORD PTR _this$[ebp]
	mov	ecx, DWORD PTR [ecx+4]
	movss	DWORD PTR tv1280[ebp], xmm0
	call	?XPos@VuEntity@@QBEMXZ			; VuEntity::XPos
	fstp	DWORD PTR tv839[ebp]
	movss	xmm0, DWORD PTR tv1280[ebp]
	subss	xmm0, DWORD PTR tv839[ebp]
	movss	DWORD PTR _xft$[ebp], xmm0

; 187  :     yft = theObject->YPos() - self->YPos();

	mov	ecx, DWORD PTR _theObject$[ebp]
	call	?YPos@VuEntity@@QBEMXZ			; VuEntity::YPos
	fstp	DWORD PTR tv843[ebp]
	movss	xmm0, DWORD PTR tv843[ebp]
	mov	edx, DWORD PTR _this$[ebp]
	mov	ecx, DWORD PTR [edx+4]
	movss	DWORD PTR tv1282[ebp], xmm0
	call	?YPos@VuEntity@@QBEMXZ			; VuEntity::YPos
	fstp	DWORD PTR tv848[ebp]
	movss	xmm0, DWORD PTR tv1282[ebp]
	subss	xmm0, DWORD PTR tv848[ebp]
	movss	DWORD PTR _yft$[ebp], xmm0

; 188  : 
; 189  : 	// error for airplanes
; 190  : 	if (theObject->IsAirplane() && !theObject->OnGround()) {

	mov	eax, DWORD PTR _theObject$[ebp]
	mov	edx, DWORD PTR [eax]
	mov	ecx, DWORD PTR _theObject$[ebp]
	mov	eax, DWORD PTR [edx+192]
	call	eax
	test	eax, eax
	je	SHORT $LN33@GunsEngage
	mov	ecx, DWORD PTR _theObject$[ebp]
	mov	edx, DWORD PTR [ecx]
	mov	ecx, DWORD PTR _theObject$[ebp]
	mov	eax, DWORD PTR [edx+148]
	call	eax
	test	eax, eax
	jne	SHORT $LN33@GunsEngage

; 191  : 		xft += PRANDFloat() * 2500.0f;

	call	?PRANDFloat@@YAMXZ			; PRANDFloat
	fstp	DWORD PTR tv858[ebp]
	movss	xmm0, DWORD PTR tv858[ebp]
	mulss	xmm0, DWORD PTR __real@451c4000
	addss	xmm0, DWORD PTR _xft$[ebp]
	movss	DWORD PTR _xft$[ebp], xmm0

; 192  : 		yft += PRANDFloat() * 2500.0f;

	call	?PRANDFloat@@YAMXZ			; PRANDFloat
	fstp	DWORD PTR tv863[ebp]
	movss	xmm0, DWORD PTR tv863[ebp]
	mulss	xmm0, DWORD PTR __real@451c4000
	addss	xmm0, DWORD PTR _yft$[ebp]
	movss	DWORD PTR _yft$[ebp], xmm0
$LN33@GunsEngage:

; 193  : 	}
; 194  : 
; 195  : 	if (theObject->IsSim() && theObject->OnGround() && theObject->drawPointer) {

	mov	ecx, DWORD PTR _theObject$[ebp]
	call	?IsSim@FalconEntity@@QAEHXZ		; FalconEntity::IsSim
	test	eax, eax
	je	SHORT $LN32@GunsEngage
	mov	ecx, DWORD PTR _theObject$[ebp]
	mov	edx, DWORD PTR [ecx]
	mov	ecx, DWORD PTR _theObject$[ebp]
	mov	eax, DWORD PTR [edx+148]
	call	eax
	test	eax, eax
	je	SHORT $LN32@GunsEngage
	mov	ecx, DWORD PTR _theObject$[ebp]
	cmp	DWORD PTR [ecx+332], 0
	je	SHORT $LN32@GunsEngage

; 196  : 		Tpoint pos;
; 197  : 		theObject->drawPointer->GetPosition( &pos );

	lea	edx, DWORD PTR _pos$6[ebp]
	push	edx
	mov	eax, DWORD PTR _theObject$[ebp]
	mov	ecx, DWORD PTR [eax+332]
	call	?GetPosition@DrawableObject@@QAEXPAUTpoint@@@Z ; DrawableObject::GetPosition

; 198  :     	zft = pos.z - 20.0f - self->ZPos();

	movss	xmm0, DWORD PTR _pos$6[ebp+8]
	subss	xmm0, DWORD PTR __real@41a00000
	mov	ecx, DWORD PTR _this$[ebp]
	mov	ecx, DWORD PTR [ecx+4]
	movss	DWORD PTR tv1284[ebp], xmm0
	call	?ZPos@VuEntity@@QBEMXZ			; VuEntity::ZPos
	fstp	DWORD PTR tv877[ebp]
	movss	xmm0, DWORD PTR tv1284[ebp]
	subss	xmm0, DWORD PTR tv877[ebp]
	movss	DWORD PTR _zft$[ebp], xmm0

; 199  : 	}
; 200  : 	else {

	jmp	SHORT $LN31@GunsEngage
$LN32@GunsEngage:

; 201  :     	zft = theObject->ZPos() - self->ZPos();

	mov	ecx, DWORD PTR _theObject$[ebp]
	call	?ZPos@VuEntity@@QBEMXZ			; VuEntity::ZPos
	fstp	DWORD PTR tv881[ebp]
	movss	xmm0, DWORD PTR tv881[ebp]
	mov	edx, DWORD PTR _this$[ebp]
	mov	ecx, DWORD PTR [edx+4]
	movss	DWORD PTR tv1286[ebp], xmm0
	call	?ZPos@VuEntity@@QBEMXZ			; VuEntity::ZPos
	fstp	DWORD PTR tv886[ebp]
	movss	xmm0, DWORD PTR tv1286[ebp]
	subss	xmm0, DWORD PTR tv886[ebp]
	movss	DWORD PTR _zft$[ebp], xmm0
$LN31@GunsEngage:

; 202  : 	}
; 203  : 
; 204  :     rx = self->dmx[0][0]*xft + self->dmx[0][1]*yft + self->dmx[0][2]*zft;

	mov	eax, DWORD PTR _this$[ebp]
	mov	ecx, DWORD PTR [eax+4]
	mov	edx, 12					; 0000000cH
	imul	edx, 0
	lea	eax, DWORD PTR [ecx+edx+296]
	mov	ecx, 4
	imul	ecx, 0
	movss	xmm0, DWORD PTR [eax+ecx]
	mulss	xmm0, DWORD PTR _xft$[ebp]
	mov	edx, DWORD PTR _this$[ebp]
	mov	eax, DWORD PTR [edx+4]
	mov	ecx, 12					; 0000000cH
	imul	ecx, 0
	lea	edx, DWORD PTR [eax+ecx+296]
	mov	eax, 4
	shl	eax, 0
	movss	xmm1, DWORD PTR [edx+eax]
	mulss	xmm1, DWORD PTR _yft$[ebp]
	addss	xmm0, xmm1
	mov	ecx, DWORD PTR _this$[ebp]
	mov	edx, DWORD PTR [ecx+4]
	mov	eax, 12					; 0000000cH
	imul	eax, 0
	lea	ecx, DWORD PTR [edx+eax+296]
	mov	edx, 4
	shl	edx, 1
	movss	xmm1, DWORD PTR [ecx+edx]
	mulss	xmm1, DWORD PTR _zft$[ebp]
	addss	xmm0, xmm1
	movss	DWORD PTR _rx$[ebp], xmm0

; 205  : 
; 206  :     targetData->range = (float)sqrt(xft*xft + yft*yft + zft*zft);

	movss	xmm0, DWORD PTR _xft$[ebp]
	mulss	xmm0, DWORD PTR _xft$[ebp]
	movss	xmm1, DWORD PTR _yft$[ebp]
	mulss	xmm1, DWORD PTR _yft$[ebp]
	addss	xmm0, xmm1
	movss	xmm1, DWORD PTR _zft$[ebp]
	mulss	xmm1, DWORD PTR _zft$[ebp]
	addss	xmm0, xmm1
	push	ecx
	movss	DWORD PTR [esp], xmm0
	call	?SqrtSSE@@YAMM@Z			; SqrtSSE
	add	esp, 4
	mov	eax, DWORD PTR _this$[ebp]
	mov	ecx, DWORD PTR [eax+200]
	fstp	DWORD PTR [ecx+44]

; 207  :     targetData->range = max (targetData->range, 1.0F);

	mov	edx, DWORD PTR _this$[ebp]
	mov	eax, DWORD PTR [edx+200]
	movss	xmm0, DWORD PTR [eax+44]
	comiss	xmm0, DWORD PTR __real@3f800000
	jbe	SHORT $LN39@GunsEngage
	mov	ecx, DWORD PTR _this$[ebp]
	mov	edx, DWORD PTR [ecx+200]
	movss	xmm0, DWORD PTR [edx+44]
	movss	DWORD PTR tv296[ebp], xmm0
	jmp	SHORT $LN40@GunsEngage
$LN39@GunsEngage:
	movss	xmm0, DWORD PTR __real@3f800000
	movss	DWORD PTR tv296[ebp], xmm0
$LN40@GunsEngage:
	mov	eax, DWORD PTR _this$[ebp]
	mov	ecx, DWORD PTR [eax+200]
	movss	xmm0, DWORD PTR tv296[ebp]
	movss	DWORD PTR [ecx+44], xmm0

; 208  :     targetData->ata =  (float)acos(rx/targetData->range);

	mov	edx, DWORD PTR _this$[ebp]
	mov	eax, DWORD PTR [edx+200]
	movss	xmm0, DWORD PTR _rx$[ebp]
	divss	xmm0, DWORD PTR [eax+44]
	push	ecx
	movss	DWORD PTR [esp], xmm0
	call	?acos@@YAMM@Z				; acos
	add	esp, 4
	mov	ecx, DWORD PTR _this$[ebp]
	mov	edx, DWORD PTR [ecx+200]
	fstp	DWORD PTR [edx]

; 209  : 
; 210  : 	// if target is beyond shootable parameters, just track it
; 211  :     if (targetData->range >= GUN_MAX_RANGE * 4.0f ||
; 212  :         targetData->ata >= GUN_MAX_ATA * 1.5f )

	mov	eax, DWORD PTR _this$[ebp]
	mov	ecx, DWORD PTR [eax+200]
	movss	xmm0, DWORD PTR [ecx+44]
	comiss	xmm0, DWORD PTR __real@46fa0000
	jae	SHORT $LN29@GunsEngage
	mov	edx, DWORD PTR _this$[ebp]
	mov	eax, DWORD PTR [edx+200]
	movss	xmm0, DWORD PTR [eax]
	comiss	xmm0, DWORD PTR __real@4016cbe3
	jb	SHORT $LN30@GunsEngage
$LN29@GunsEngage:

; 213  :     {
; 214  : 		trackX = theObject->XPos();

	mov	ecx, DWORD PTR _theObject$[ebp]
	call	?XPos@VuEntity@@QBEMXZ			; VuEntity::XPos
	mov	ecx, DWORD PTR _this$[ebp]
	fstp	DWORD PTR [ecx+148]

; 215  : 		trackY = theObject->YPos();

	mov	ecx, DWORD PTR _theObject$[ebp]
	call	?YPos@VuEntity@@QBEMXZ			; VuEntity::YPos
	mov	edx, DWORD PTR _this$[ebp]
	fstp	DWORD PTR [edx+152]

; 216  : 		trackZ = theObject->ZPos() - 500.0f;

	mov	ecx, DWORD PTR _theObject$[ebp]
	call	?ZPos@VuEntity@@QBEMXZ			; VuEntity::ZPos
	fstp	DWORD PTR tv930[ebp]
	movss	xmm0, DWORD PTR tv930[ebp]
	subss	xmm0, DWORD PTR __real@43fa0000
	mov	eax, DWORD PTR _this$[ebp]
	movss	DWORD PTR [eax+156], xmm0

; 217  : 		AutoTrack( 1.0f );

	push	ecx
	movss	xmm0, DWORD PTR __real@3f800000
	movss	DWORD PTR [esp], xmm0
	mov	ecx, DWORD PTR _this$[ebp]
	call	?AutoTrack@HeliBrain@@QAEMM@Z		; HeliBrain::AutoTrack
	fstp	ST(0)

; 218  : 		return;

	jmp	$LN37@GunsEngage
$LN30@GunsEngage:

; 219  :     }
; 220  : 
; 221  : 	// fire error more strict with range....
; 222  : 	// 2001-07-05 MODIFIED BY S.G. ataerror is an angle!
; 223  : 	//ataerror = (INIT_GUN_VEL - targetData->range)/INIT_GUN_VEL * 80.0f;
; 224  : 	if (targetData->range < INIT_GUN_VEL)

	mov	ecx, DWORD PTR _this$[ebp]
	mov	edx, DWORD PTR [ecx+200]
	movss	xmm0, DWORD PTR __real@45dac000
	comiss	xmm0, DWORD PTR [edx+44]
	jbe	SHORT $LN28@GunsEngage

; 225  : 		ataerror = (float)acos((double)(INIT_GUN_VEL - targetData->range)/INIT_GUN_VEL);

	mov	eax, DWORD PTR _this$[ebp]
	mov	ecx, DWORD PTR [eax+200]
	movss	xmm0, DWORD PTR __real@45dac000
	subss	xmm0, DWORD PTR [ecx+44]
	cvtss2sd xmm0, xmm0
	divsd	xmm0, QWORD PTR __real@40bb580000000000
	sub	esp, 8
	movsd	QWORD PTR [esp], xmm0
	call	_acos
	add	esp, 8
	fstp	DWORD PTR _ataerror$[ebp]
$LN28@GunsEngage:

; 226  : 
; 227  : 	// 2001-07-06 MODIDIED BY S.G. WE DON'T WANT THE ROCKETS TO FIRE ONE PER 15 SECONDS! LAUNCH AT FRAME SPEED (JUST LIKE FOR PLANES)
; 228  : 	//if ( mslCheckTimer > 15.0f )
; 229  : 	//if ( mslCheckTimer > 15.0f || (mslCheckTimer > 0.25f && self->FCC->GetMasterMode() == FireControlComputer::AirGroundBomb && self->FCC->GetSubMode() == FireControlComputer::RCKT))
; 230  : 	if ( mslCheckTimer > 15.0f || (mslCheckTimer > 0.25f && self->FCC->GetMasterMode() == FireControlComputer::AirGroundRocket))

	mov	edx, DWORD PTR _this$[ebp]
	movss	xmm0, DWORD PTR [edx+96]
	comiss	xmm0, DWORD PTR __real@41700000
	ja	SHORT $LN26@GunsEngage
	mov	eax, DWORD PTR _this$[ebp]
	movss	xmm0, DWORD PTR [eax+96]
	comiss	xmm0, DWORD PTR __real@3e800000
	jbe	SHORT $LN27@GunsEngage
	mov	ecx, DWORD PTR _this$[ebp]
	mov	edx, DWORD PTR [ecx+4]
	mov	ecx, DWORD PTR [edx+756]
	call	?GetMasterMode@FireControlComputer@@QAE?AW4FCCMasterMode@1@XZ ; FireControlComputer::GetMasterMode
	cmp	eax, 13					; 0000000dH
	jne	SHORT $LN27@GunsEngage
$LN26@GunsEngage:

; 231  : 	{
; 232  : 		WeaponSelection();

	mov	ecx, DWORD PTR _this$[ebp]
	call	?WeaponSelection@HeliBrain@@QAEXXZ	; HeliBrain::WeaponSelection

; 233  : 
; 234  : 		if (curMissile) {

	mov	eax, DWORD PTR _this$[ebp]
	cmp	DWORD PTR [eax+76], 0
	je	SHORT $LN25@GunsEngage

; 235  : 			FireControl();

	mov	ecx, DWORD PTR _this$[ebp]
	call	?FireControl@HeliBrain@@QAEXXZ		; HeliBrain::FireControl
$LN25@GunsEngage:

; 236  : 		}
; 237  : 		mslCheckTimer = 0.0f;

	mov	ecx, DWORD PTR _this$[ebp]
	movss	xmm0, DWORD PTR __real@00000000
	movss	DWORD PTR [ecx+96], xmm0
	jmp	$LN23@GunsEngage
$LN27@GunsEngage:

; 238  : 	}
; 239  : 	// should we fire?
; 240  : 	// 2001-07-05 MODIFIED BY S.G. CHANGE THE ORDER
; 241  : 	//else if ( mslCheckTimer < 4.0f && targetData->ata < ataerror * DTR && targetData->range < INIT_GUN_VEL)
; 242  : 	else if ( mslCheckTimer < 4.0f && targetData->range < INIT_GUN_VEL && targetData->ata < ataerror)

	mov	edx, DWORD PTR _this$[ebp]
	movss	xmm0, DWORD PTR __real@40800000
	comiss	xmm0, DWORD PTR [edx+96]
	jbe	$LN23@GunsEngage
	mov	eax, DWORD PTR _this$[ebp]
	mov	ecx, DWORD PTR [eax+200]
	movss	xmm0, DWORD PTR __real@45dac000
	comiss	xmm0, DWORD PTR [ecx+44]
	jbe	$LN23@GunsEngage
	mov	edx, DWORD PTR _this$[ebp]
	mov	eax, DWORD PTR [edx+200]
	movss	xmm0, DWORD PTR _ataerror$[ebp]
	comiss	xmm0, DWORD PTR [eax]
	jbe	$LN23@GunsEngage

; 243  : 	{
; 244  : 		float tof;
; 245  : 		float az, el;
; 246  : 		mlTrig tha, psi;
; 247  : 
; 248  : 		SetFlag(GunFireFlag);

	push	1
	mov	ecx, DWORD PTR _this$[ebp]
	call	?SetFlag@HeliBrain@@QAEXH@Z		; HeliBrain::SetFlag

; 249  : 		// MonoPrint ("HELO Digi Firing %8ld   %4d -> %4d\n", SimLibElapsedTime,
; 250  : 		//    self->Id().num_, targetPtr->BaseData()->Id().num_);
; 251  : 
; 252  :       	// Guess TOF
; 253  :       	tof = targetData->range / 3000.0f;

	mov	ecx, DWORD PTR _this$[ebp]
	mov	edx, DWORD PTR [ecx+200]
	movss	xmm0, DWORD PTR [edx+44]
	divss	xmm0, DWORD PTR __real@453b8000
	movss	DWORD PTR _tof$5[ebp], xmm0

; 254  : 
; 255  : 	  	// now get vector to where we're aiming
; 256  :       	xft += theObject->XDelta() * tof;

	mov	ecx, DWORD PTR _theObject$[ebp]
	call	?XDelta@VuEntity@@QBEMXZ		; VuEntity::XDelta
	fstp	DWORD PTR tv962[ebp]
	movss	xmm0, DWORD PTR tv962[ebp]
	mulss	xmm0, DWORD PTR _tof$5[ebp]
	addss	xmm0, DWORD PTR _xft$[ebp]
	movss	DWORD PTR _xft$[ebp], xmm0

; 257  :       	yft += theObject->YDelta() * tof;

	mov	ecx, DWORD PTR _theObject$[ebp]
	call	?YDelta@VuEntity@@QBEMXZ		; VuEntity::YDelta
	fstp	DWORD PTR tv967[ebp]
	movss	xmm0, DWORD PTR tv967[ebp]
	mulss	xmm0, DWORD PTR _tof$5[ebp]
	addss	xmm0, DWORD PTR _yft$[ebp]
	movss	DWORD PTR _yft$[ebp], xmm0

; 258  :       	zft += theObject->ZDelta() * tof;

	mov	ecx, DWORD PTR _theObject$[ebp]
	call	?ZDelta@VuEntity@@QBEMXZ		; VuEntity::ZDelta
	fstp	DWORD PTR tv972[ebp]
	movss	xmm0, DWORD PTR tv972[ebp]
	mulss	xmm0, DWORD PTR _tof$5[ebp]
	addss	xmm0, DWORD PTR _zft$[ebp]
	movss	DWORD PTR _zft$[ebp], xmm0

; 259  : 
; 260  :       	// Correct for gravity
; 261  :       	//zft += 0.5F * GRAVITY * tof * tof;
; 262  :       	// RV - Biker - Do it the right way!!!
; 263  :       	zft -= 0.5F * GRAVITY * tof * tof;

	movss	xmm0, DWORD PTR __real@4180b53f
	mulss	xmm0, DWORD PTR _tof$5[ebp]
	mulss	xmm0, DWORD PTR _tof$5[ebp]
	movss	xmm1, DWORD PTR _zft$[ebp]
	subss	xmm1, xmm0
	movss	DWORD PTR _zft$[ebp], xmm1

; 264  : 
; 265  :       	az = (float)atan2(yft,xft);

	cvtss2sd xmm0, DWORD PTR _xft$[ebp]
	sub	esp, 8
	movsd	QWORD PTR [esp], xmm0
	cvtss2sd xmm0, DWORD PTR _yft$[ebp]
	sub	esp, 8
	movsd	QWORD PTR [esp], xmm0
	call	?checked_atan2@@YANNN@Z			; checked_atan2
	add	esp, 16					; 00000010H
	fstp	DWORD PTR _az$1[ebp]

; 266  :       	el = (float)atan(-zft/(float)sqrt(xft*xft + yft*yft +0.1F));

	movss	xmm0, DWORD PTR _zft$[ebp]
	xorps	xmm0, DWORD PTR __xmm@80000000800000008000000080000000
	movss	xmm1, DWORD PTR _xft$[ebp]
	mulss	xmm1, DWORD PTR _xft$[ebp]
	movss	xmm2, DWORD PTR _yft$[ebp]
	mulss	xmm2, DWORD PTR _yft$[ebp]
	addss	xmm1, xmm2
	addss	xmm1, DWORD PTR __real@3dcccccd
	push	ecx
	movss	DWORD PTR [esp], xmm1
	movss	DWORD PTR tv1288[ebp], xmm0
	call	?SqrtSSE@@YAMM@Z			; SqrtSSE
	add	esp, 4
	fstp	DWORD PTR tv988[ebp]
	movss	xmm0, DWORD PTR tv1288[ebp]
	divss	xmm0, DWORD PTR tv988[ebp]
	push	ecx
	movss	DWORD PTR [esp], xmm0
	call	?atan@@YAMM@Z				; atan
	add	esp, 4
	fstp	DWORD PTR _el$2[ebp]

; 267  : 
; 268  :    		mlSinCos (&tha, el);

	push	ecx
	movss	xmm0, DWORD PTR _el$2[ebp]
	movss	DWORD PTR [esp], xmm0
	lea	eax, DWORD PTR _tha$4[ebp]
	push	eax
	call	?mlSinCos@@YAXPAUmlTrig@@M@Z		; mlSinCos

; 269  :    		mlSinCos (&psi, az);

	add	esp, 4
	movss	xmm0, DWORD PTR _az$1[ebp]
	movss	DWORD PTR [esp], xmm0
	lea	ecx, DWORD PTR _psi$3[ebp]
	push	ecx
	call	?mlSinCos@@YAXPAUmlTrig@@M@Z		; mlSinCos
	add	esp, 8

; 270  : 
; 271  :       	self->gunDmx[0][0] = psi.cos*tha.cos;

	movss	xmm0, DWORD PTR _psi$3[ebp+4]
	mulss	xmm0, DWORD PTR _tha$4[ebp+4]
	mov	edx, DWORD PTR _this$[ebp]
	mov	eax, DWORD PTR [edx+4]
	mov	ecx, 12					; 0000000cH
	imul	ecx, 0
	lea	edx, DWORD PTR [eax+ecx+772]
	mov	eax, 4
	imul	eax, 0
	movss	DWORD PTR [edx+eax], xmm0

; 272  :       	self->gunDmx[0][1] = psi.sin*tha.cos;

	movss	xmm0, DWORD PTR _psi$3[ebp]
	mulss	xmm0, DWORD PTR _tha$4[ebp+4]
	mov	ecx, DWORD PTR _this$[ebp]
	mov	edx, DWORD PTR [ecx+4]
	mov	eax, 12					; 0000000cH
	imul	eax, 0
	lea	ecx, DWORD PTR [edx+eax+772]
	mov	edx, 4
	shl	edx, 0
	movss	DWORD PTR [ecx+edx], xmm0

; 273  :       	self->gunDmx[0][2] = -tha.sin;

	movss	xmm0, DWORD PTR _tha$4[ebp]
	xorps	xmm0, DWORD PTR __xmm@80000000800000008000000080000000
	mov	eax, DWORD PTR _this$[ebp]
	mov	ecx, DWORD PTR [eax+4]
	mov	edx, 12					; 0000000cH
	imul	edx, 0
	lea	eax, DWORD PTR [ecx+edx+772]
	mov	ecx, 4
	shl	ecx, 1
	movss	DWORD PTR [eax+ecx], xmm0

; 274  : 
; 275  :       	self->gunDmx[1][0] = -psi.sin;

	movss	xmm0, DWORD PTR _psi$3[ebp]
	xorps	xmm0, DWORD PTR __xmm@80000000800000008000000080000000
	mov	edx, DWORD PTR _this$[ebp]
	mov	eax, DWORD PTR [edx+4]
	mov	ecx, 12					; 0000000cH
	shl	ecx, 0
	lea	edx, DWORD PTR [eax+ecx+772]
	mov	eax, 4
	imul	eax, 0
	movss	DWORD PTR [edx+eax], xmm0

; 276  :       	self->gunDmx[1][1] = psi.cos;

	mov	ecx, DWORD PTR _this$[ebp]
	mov	edx, DWORD PTR [ecx+4]
	mov	eax, 12					; 0000000cH
	shl	eax, 0
	lea	ecx, DWORD PTR [edx+eax+772]
	mov	edx, 4
	shl	edx, 0
	movss	xmm0, DWORD PTR _psi$3[ebp+4]
	movss	DWORD PTR [ecx+edx], xmm0

; 277  :       	self->gunDmx[1][2] = 0.0f;

	mov	eax, DWORD PTR _this$[ebp]
	mov	ecx, DWORD PTR [eax+4]
	mov	edx, 12					; 0000000cH
	shl	edx, 0
	lea	eax, DWORD PTR [ecx+edx+772]
	mov	ecx, 4
	shl	ecx, 1
	movss	xmm0, DWORD PTR __real@00000000
	movss	DWORD PTR [eax+ecx], xmm0

; 278  : 
; 279  :       	self->gunDmx[2][0] = psi.cos*tha.sin;

	movss	xmm0, DWORD PTR _psi$3[ebp+4]
	mulss	xmm0, DWORD PTR _tha$4[ebp]
	mov	edx, DWORD PTR _this$[ebp]
	mov	eax, DWORD PTR [edx+4]
	mov	ecx, 12					; 0000000cH
	shl	ecx, 1
	lea	edx, DWORD PTR [eax+ecx+772]
	mov	eax, 4
	imul	eax, 0
	movss	DWORD PTR [edx+eax], xmm0

; 280  :       	self->gunDmx[2][1] = psi.sin*tha.sin;

	movss	xmm0, DWORD PTR _psi$3[ebp]
	mulss	xmm0, DWORD PTR _tha$4[ebp]
	mov	ecx, DWORD PTR _this$[ebp]
	mov	edx, DWORD PTR [ecx+4]
	mov	eax, 12					; 0000000cH
	shl	eax, 1
	lea	ecx, DWORD PTR [edx+eax+772]
	mov	edx, 4
	shl	edx, 0
	movss	DWORD PTR [ecx+edx], xmm0

; 281  :       	self->gunDmx[2][2] = tha.cos;

	mov	eax, DWORD PTR _this$[ebp]
	mov	ecx, DWORD PTR [eax+4]
	mov	edx, 12					; 0000000cH
	shl	edx, 1
	lea	eax, DWORD PTR [ecx+edx+772]
	mov	ecx, 4
	shl	ecx, 1
	movss	xmm0, DWORD PTR _tha$4[ebp+4]
	movss	DWORD PTR [eax+ecx], xmm0
$LN23@GunsEngage:

; 282  : 	}
; 283  : 
; 284  : 	// position of target
; 285  : 	// Project ahead target leadTof number of bullet times of flight
; 286  : 	wpX = targetPtr->BaseData()->XPos() + targetPtr->BaseData()->XDelta() * SimLibMajorFrameTime;

	mov	edx, DWORD PTR _this$[ebp]
	mov	ecx, DWORD PTR [edx+192]
	call	?BaseData@SimObjectType@@QAEPAVFalconEntity@@XZ ; SimObjectType::BaseData
	mov	ecx, eax
	call	?XPos@VuEntity@@QBEMXZ			; VuEntity::XPos
	fstp	DWORD PTR tv1039[ebp]
	movss	xmm0, DWORD PTR tv1039[ebp]
	mov	eax, DWORD PTR _this$[ebp]
	mov	ecx, DWORD PTR [eax+192]
	movss	DWORD PTR tv1290[ebp], xmm0
	call	?BaseData@SimObjectType@@QAEPAVFalconEntity@@XZ ; SimObjectType::BaseData
	mov	ecx, eax
	call	?XDelta@VuEntity@@QBEMXZ		; VuEntity::XDelta
	fstp	DWORD PTR tv1045[ebp]
	movss	xmm0, DWORD PTR tv1045[ebp]
	mulss	xmm0, DWORD PTR ?SimLibMajorFrameTime@@3MA
	movss	xmm1, DWORD PTR tv1290[ebp]
	addss	xmm1, xmm0
	movss	DWORD PTR _wpX$[ebp], xmm1

; 287  : 	wpY = targetPtr->BaseData()->YPos() + targetPtr->BaseData()->YDelta() * SimLibMajorFrameTime;

	mov	ecx, DWORD PTR _this$[ebp]
	mov	ecx, DWORD PTR [ecx+192]
	call	?BaseData@SimObjectType@@QAEPAVFalconEntity@@XZ ; SimObjectType::BaseData
	mov	ecx, eax
	call	?YPos@VuEntity@@QBEMXZ			; VuEntity::YPos
	fstp	DWORD PTR tv1051[ebp]
	movss	xmm0, DWORD PTR tv1051[ebp]
	mov	edx, DWORD PTR _this$[ebp]
	mov	ecx, DWORD PTR [edx+192]
	movss	DWORD PTR tv1292[ebp], xmm0
	call	?BaseData@SimObjectType@@QAEPAVFalconEntity@@XZ ; SimObjectType::BaseData
	mov	ecx, eax
	call	?YDelta@VuEntity@@QBEMXZ		; VuEntity::YDelta
	fstp	DWORD PTR tv1057[ebp]
	movss	xmm0, DWORD PTR tv1057[ebp]
	mulss	xmm0, DWORD PTR ?SimLibMajorFrameTime@@3MA
	movss	xmm1, DWORD PTR tv1292[ebp]
	addss	xmm1, xmm0
	movss	DWORD PTR _wpY$[ebp], xmm1

; 288  : 	wpZ = targetPtr->BaseData()->ZPos() + targetPtr->BaseData()->ZDelta() * SimLibMajorFrameTime;

	mov	eax, DWORD PTR _this$[ebp]
	mov	ecx, DWORD PTR [eax+192]
	call	?BaseData@SimObjectType@@QAEPAVFalconEntity@@XZ ; SimObjectType::BaseData
	mov	ecx, eax
	call	?ZPos@VuEntity@@QBEMXZ			; VuEntity::ZPos
	fstp	DWORD PTR tv1063[ebp]
	movss	xmm0, DWORD PTR tv1063[ebp]
	mov	ecx, DWORD PTR _this$[ebp]
	mov	ecx, DWORD PTR [ecx+192]
	movss	DWORD PTR tv1294[ebp], xmm0
	call	?BaseData@SimObjectType@@QAEPAVFalconEntity@@XZ ; SimObjectType::BaseData
	mov	ecx, eax
	call	?ZDelta@VuEntity@@QBEMXZ		; VuEntity::ZDelta
	fstp	DWORD PTR tv1069[ebp]
	movss	xmm0, DWORD PTR tv1069[ebp]
	mulss	xmm0, DWORD PTR ?SimLibMajorFrameTime@@3MA
	movss	xmm1, DWORD PTR tv1294[ebp]
	addss	xmm1, xmm0
	movss	DWORD PTR _wpZ$[ebp], xmm1

; 289  : 
; 290  : 	desSpeed = 0.0f;

	movss	xmm0, DWORD PTR __real@00000000
	movss	DWORD PTR _desSpeed$[ebp], xmm0

; 291  : 	rollDir = 0.0f;

	movss	xmm0, DWORD PTR __real@00000000
	movss	DWORD PTR _rollDir$[ebp], xmm0

; 292  : 	rollLoad = 0.0f;

	movss	xmm0, DWORD PTR __real@00000000
	movss	DWORD PTR _rollLoad$[ebp], xmm0

; 293  : 	pedalLoad = 0.0f;

	movss	xmm0, DWORD PTR __real@00000000
	movss	DWORD PTR _pedalLoad$[ebp], xmm0

; 294  : 
; 295  : 	// Range to target
; 296  : 	rng = (wpX - self->XPos()) * (wpX - self->XPos()) + (wpY - self->YPos()) *	(wpY - self->YPos());

	mov	edx, DWORD PTR _this$[ebp]
	mov	ecx, DWORD PTR [edx+4]
	call	?XPos@VuEntity@@QBEMXZ			; VuEntity::XPos
	fstp	DWORD PTR tv1078[ebp]
	movss	xmm0, DWORD PTR _wpX$[ebp]
	subss	xmm0, DWORD PTR tv1078[ebp]
	mov	eax, DWORD PTR _this$[ebp]
	mov	ecx, DWORD PTR [eax+4]
	movss	DWORD PTR tv1296[ebp], xmm0
	call	?XPos@VuEntity@@QBEMXZ			; VuEntity::XPos
	fstp	DWORD PTR tv1084[ebp]
	movss	xmm0, DWORD PTR _wpX$[ebp]
	subss	xmm0, DWORD PTR tv1084[ebp]
	movss	xmm1, DWORD PTR tv1296[ebp]
	mulss	xmm1, xmm0
	mov	ecx, DWORD PTR _this$[ebp]
	mov	ecx, DWORD PTR [ecx+4]
	movss	DWORD PTR tv1298[ebp], xmm1
	call	?YPos@VuEntity@@QBEMXZ			; VuEntity::YPos
	fstp	DWORD PTR tv1090[ebp]
	movss	xmm0, DWORD PTR _wpY$[ebp]
	subss	xmm0, DWORD PTR tv1090[ebp]
	mov	edx, DWORD PTR _this$[ebp]
	mov	ecx, DWORD PTR [edx+4]
	movss	DWORD PTR tv1300[ebp], xmm0
	call	?YPos@VuEntity@@QBEMXZ			; VuEntity::YPos
	fstp	DWORD PTR tv1096[ebp]
	movss	xmm0, DWORD PTR _wpY$[ebp]
	subss	xmm0, DWORD PTR tv1096[ebp]
	movss	xmm1, DWORD PTR tv1300[ebp]
	mulss	xmm1, xmm0
	movss	xmm0, DWORD PTR tv1298[ebp]
	addss	xmm0, xmm1
	movss	DWORD PTR _rng$[ebp], xmm0

; 297  : 	rz = wpZ - self->ZPos();

	mov	eax, DWORD PTR _this$[ebp]
	mov	ecx, DWORD PTR [eax+4]
	call	?ZPos@VuEntity@@QBEMXZ			; VuEntity::ZPos
	fstp	DWORD PTR tv1102[ebp]
	movss	xmm0, DWORD PTR _wpZ$[ebp]
	subss	xmm0, DWORD PTR tv1102[ebp]
	movss	DWORD PTR _rz$[ebp], xmm0

; 298  : 
; 299  : 	// Heading error for current waypoint
; 300  : 	desHeading = (float)atan2 ( wpY - self->YPos(), wpX - self->XPos()) - self->Yaw();

	mov	ecx, DWORD PTR _this$[ebp]
	mov	ecx, DWORD PTR [ecx+4]
	call	?XPos@VuEntity@@QBEMXZ			; VuEntity::XPos
	fstp	DWORD PTR tv1108[ebp]
	movss	xmm0, DWORD PTR _wpX$[ebp]
	subss	xmm0, DWORD PTR tv1108[ebp]
	cvtss2sd xmm0, xmm0
	sub	esp, 8
	movsd	QWORD PTR [esp], xmm0
	mov	edx, DWORD PTR _this$[ebp]
	mov	ecx, DWORD PTR [edx+4]
	call	?YPos@VuEntity@@QBEMXZ			; VuEntity::YPos
	fstp	DWORD PTR tv1114[ebp]
	movss	xmm0, DWORD PTR _wpY$[ebp]
	subss	xmm0, DWORD PTR tv1114[ebp]
	cvtss2sd xmm0, xmm0
	sub	esp, 8
	movsd	QWORD PTR [esp], xmm0
	call	?checked_atan2@@YANNN@Z			; checked_atan2
	add	esp, 16					; 00000010H
	fstp	QWORD PTR tv1121[ebp]
	movsd	xmm0, QWORD PTR tv1121[ebp]
	cvtsd2ss xmm0, xmm0
	mov	eax, DWORD PTR _this$[ebp]
	mov	ecx, DWORD PTR [eax+4]
	movss	DWORD PTR tv1302[ebp], xmm0
	call	?Yaw@VuEntity@@QBEMXZ			; VuEntity::Yaw
	fstp	DWORD PTR tv1126[ebp]
	movss	xmm0, DWORD PTR tv1302[ebp]
	subss	xmm0, DWORD PTR tv1126[ebp]
	movss	DWORD PTR _desHeading$[ebp], xmm0

; 301  : 	if (desHeading > 180.0F * DTR)

	movss	xmm0, DWORD PTR _desHeading$[ebp]
	comiss	xmm0, DWORD PTR __real@40490fd9
	jbe	SHORT $LN22@GunsEngage

; 302  : 		desHeading -= 360.0F * DTR;

	movss	xmm0, DWORD PTR _desHeading$[ebp]
	subss	xmm0, DWORD PTR __real@40c90fd9
	movss	DWORD PTR _desHeading$[ebp], xmm0
	jmp	SHORT $LN20@GunsEngage
$LN22@GunsEngage:

; 303  : 	else if (desHeading < -180.0F * DTR)

	movss	xmm0, DWORD PTR __real@c0490fd9
	comiss	xmm0, DWORD PTR _desHeading$[ebp]
	jbe	SHORT $LN20@GunsEngage

; 304  : 		desHeading += 360.0F * DTR;

	movss	xmm0, DWORD PTR _desHeading$[ebp]
	addss	xmm0, DWORD PTR __real@40c90fd9
	movss	DWORD PTR _desHeading$[ebp], xmm0
$LN20@GunsEngage:

; 305  : 
; 306  : 	// rollLoad is normalized (0-1) factor of how far off-heading we are to target
; 307  : 	rollLoad = desHeading / (90.0F * DTR);

	movss	xmm0, DWORD PTR _desHeading$[ebp]
	divss	xmm0, DWORD PTR __real@3fc90fd9
	movss	DWORD PTR _rollLoad$[ebp], xmm0

; 308  : 	if (rollLoad < 0.0F)

	movss	xmm0, DWORD PTR __real@00000000
	comiss	xmm0, DWORD PTR _rollLoad$[ebp]
	jbe	SHORT $LN19@GunsEngage

; 309  : 		rollLoad = -rollLoad;

	movss	xmm0, DWORD PTR _rollLoad$[ebp]
	xorps	xmm0, DWORD PTR __xmm@80000000800000008000000080000000
	movss	DWORD PTR _rollLoad$[ebp], xmm0
$LN19@GunsEngage:

; 310  : 	rollLoad = min( rollLoad, 1.0F );

	movss	xmm0, DWORD PTR __real@3f800000
	comiss	xmm0, DWORD PTR _rollLoad$[ebp]
	jbe	SHORT $LN41@GunsEngage
	movss	xmm0, DWORD PTR _rollLoad$[ebp]
	movss	DWORD PTR tv657[ebp], xmm0
	jmp	SHORT $LN42@GunsEngage
$LN41@GunsEngage:
	movss	xmm0, DWORD PTR __real@3f800000
	movss	DWORD PTR tv657[ebp], xmm0
$LN42@GunsEngage:
	movss	xmm0, DWORD PTR tv657[ebp]
	movss	DWORD PTR _rollLoad$[ebp], xmm0

; 311  : 	if ( desHeading > 0.0f )

	movss	xmm0, DWORD PTR _desHeading$[ebp]
	comiss	xmm0, DWORD PTR __real@00000000
	jbe	SHORT $LN18@GunsEngage

; 312  : 		rollDir = 1.0f;

	movss	xmm0, DWORD PTR __real@3f800000
	movss	DWORD PTR _rollDir$[ebp], xmm0

; 313  : 	else

	jmp	SHORT $LN17@GunsEngage
$LN18@GunsEngage:

; 314  : 		rollDir = -1.0f;

	movss	xmm0, DWORD PTR __real@bf800000
	movss	DWORD PTR _rollDir$[ebp], xmm0
$LN17@GunsEngage:

; 315  : 
; 316  : 	//MonoPrint ("%8.2f %8.2f\n", desHeading * RTD, desLoad);
; 317  : 
; 318  : 	rng = (float)sqrt( rng );

	push	ecx
	movss	xmm0, DWORD PTR _rng$[ebp]
	movss	DWORD PTR [esp], xmm0
	call	?SqrtSSE@@YAMM@Z			; SqrtSSE
	add	esp, 4
	fstp	DWORD PTR _rng$[ebp]

; 319  : 	if (rng != 0.0f) {

	movss	xmm0, DWORD PTR _rng$[ebp]
	ucomiss	xmm0, DWORD PTR __real@00000000
	lahf
	test	ah, 68					; 00000044H
	jnp	SHORT $LN16@GunsEngage

; 320  : 		elerr = (float)atan (rz/rng);

	movss	xmm0, DWORD PTR _rz$[ebp]
	divss	xmm0, DWORD PTR _rng$[ebp]
	push	ecx
	movss	DWORD PTR [esp], xmm0
	call	?atan@@YAMM@Z				; atan
	add	esp, 4
	fstp	DWORD PTR _elerr$[ebp]

; 321  : 	}
; 322  : 	else {

	jmp	SHORT $LN13@GunsEngage
$LN16@GunsEngage:

; 323  : 		if ( rz < 0.0 )

	cvtss2sd xmm0, DWORD PTR _rz$[ebp]
	movsd	xmm1, QWORD PTR __real@0000000000000000
	comisd	xmm1, xmm0
	jbe	SHORT $LN14@GunsEngage

; 324  : 			elerr = -90.0f * DTR;

	movss	xmm0, DWORD PTR __real@bfc90fd9
	movss	DWORD PTR _elerr$[ebp], xmm0

; 325  : 		else

	jmp	SHORT $LN13@GunsEngage
$LN14@GunsEngage:

; 326  : 			elerr = 90.0f * DTR;

	movss	xmm0, DWORD PTR __real@3fc90fd9
	movss	DWORD PTR _elerr$[ebp], xmm0
$LN13@GunsEngage:

; 327  : 	}
; 328  : 
; 329  : 	// 2001-07-06 MODIFIED BY S.G. SO CHOPPERS STOPS WHEN IN FIRING PARAMETER
; 330  : 	// ideally we want to be at about 6000ft away in x and y
; 331  : 	//desSpeed = min( 1.0f, (float)fabs( rng - 6000.0f ) * 0.01f );
; 332  : 	//
; 333  : 	//if ( desSpeed < 0.2f )
; 334  : 	//	desSpeed = elerr / MAX_HELI_PITCH;
; 335  : 
; 336  : 	// Defaults to full speed ahead
; 337  : 	desSpeed = 1.0f;

	movss	xmm0, DWORD PTR __real@3f800000
	movss	DWORD PTR _desSpeed$[ebp], xmm0

; 338  : 
; 339  : 	// Ground missiles
; 340  : 	// TJL 11/15/03 Hellfires/AGMs between 3 to 5 miles
; 341  : 	if (self->FCC->GetMasterMode() == FireControlComputer::Missile || self->FCC->GetMasterMode() == FireControlComputer::AirGroundMissile ) {

	mov	ecx, DWORD PTR _this$[ebp]
	mov	edx, DWORD PTR [ecx+4]
	mov	ecx, DWORD PTR [edx+756]
	call	?GetMasterMode@FireControlComputer@@QAE?AW4FCCMasterMode@1@XZ ; FireControlComputer::GetMasterMode
	cmp	eax, 2
	je	SHORT $LN11@GunsEngage
	mov	eax, DWORD PTR _this$[ebp]
	mov	ecx, DWORD PTR [eax+4]
	mov	ecx, DWORD PTR [ecx+756]
	call	?GetMasterMode@FireControlComputer@@QAE?AW4FCCMasterMode@1@XZ ; FireControlComputer::GetMasterMode
	cmp	eax, 6
	jne	SHORT $LN12@GunsEngage
$LN11@GunsEngage:

; 342  : 		//if ( targetData->range >= 2000.0f && targetData->range <= 12000.0F)
; 343  : 		if ( targetData->range >= 12000.0f && targetData->range <= 24000.0F)

	mov	edx, DWORD PTR _this$[ebp]
	mov	eax, DWORD PTR [edx+200]
	movss	xmm0, DWORD PTR [eax+44]
	comiss	xmm0, DWORD PTR __real@463b8000
	jb	SHORT $LN10@GunsEngage
	mov	ecx, DWORD PTR _this$[ebp]
	mov	edx, DWORD PTR [ecx+200]
	movss	xmm0, DWORD PTR __real@46bb8000
	comiss	xmm0, DWORD PTR [edx+44]
	jb	SHORT $LN10@GunsEngage

; 344  : 			desSpeed = 0.0f;

	movss	xmm0, DWORD PTR __real@00000000
	movss	DWORD PTR _desSpeed$[ebp], xmm0
$LN10@GunsEngage:

; 345  : 	}
; 346  : 	// Rockets
; 347  : 	//TJL 11/15/03 Rockets have max range of 3 miles
; 348  : 	else //if ( self->FCC->GetMasterMode() == FireControlComputer::AirGroundBomb && self->FCC->GetSubMode() == FireControlComputer::RCKT ) {

	jmp	SHORT $LN7@GunsEngage
$LN12@GunsEngage:

; 349  : 		if ( self->FCC->GetMasterMode() == FireControlComputer::AirGroundRocket) { // MLR 4/3/2004 - 

	mov	eax, DWORD PTR _this$[ebp]
	mov	ecx, DWORD PTR [eax+4]
	mov	ecx, DWORD PTR [ecx+756]
	call	?GetMasterMode@FireControlComputer@@QAE?AW4FCCMasterMode@1@XZ ; FireControlComputer::GetMasterMode
	cmp	eax, 13					; 0000000dH
	jne	SHORT $LN7@GunsEngage

; 350  : 		//if ( targetData->range >= 1000.0f && targetData->range <= 10000.0F)
; 351  : 		if ( targetData->range >= 6000.0f && targetData->range <= 15000.0F)

	mov	edx, DWORD PTR _this$[ebp]
	mov	eax, DWORD PTR [edx+200]
	movss	xmm0, DWORD PTR [eax+44]
	comiss	xmm0, DWORD PTR __real@45bb8000
	jb	SHORT $LN7@GunsEngage
	mov	ecx, DWORD PTR _this$[ebp]
	mov	edx, DWORD PTR [ecx+200]
	movss	xmm0, DWORD PTR __real@466a6000
	comiss	xmm0, DWORD PTR [edx+44]
	jb	SHORT $LN7@GunsEngage

; 352  : 			desSpeed = 0.0f;

	movss	xmm0, DWORD PTR __real@00000000
	movss	DWORD PTR _desSpeed$[ebp], xmm0
$LN7@GunsEngage:

; 353  : 	}
; 354  : 
; 355  : 	//sprintf( debugbuf, "heading=%.3f, rollLoad=%.3f dir=%.3f, desSpeed=%.3f, elerr=%.3f\n",  desHeading * RTD, rollLoad, rollDir, desSpeed, elerr );
; 356  : 	//OutputDebugString( debugbuf );
; 357  : 
; 358  : 	if (targetPtr->BaseData()->OnGround()) {

	mov	eax, DWORD PTR _this$[ebp]
	mov	ecx, DWORD PTR [eax+192]
	call	?BaseData@SimObjectType@@QAEPAVFalconEntity@@XZ ; SimObjectType::BaseData
	mov	DWORD PTR tv698[ebp], eax
	mov	ecx, DWORD PTR tv698[ebp]
	mov	edx, DWORD PTR [ecx]
	mov	ecx, DWORD PTR tv698[ebp]
	mov	eax, DWORD PTR [edx+148]
	call	eax
	test	eax, eax
	je	SHORT $LN6@GunsEngage

; 359  : 		if (desSpeed > 0.2f && rng < 6000.0f) {

	movss	xmm0, DWORD PTR _desSpeed$[ebp]
	comiss	xmm0, DWORD PTR __real@3e4ccccd
	jbe	SHORT $LN5@GunsEngage
	movss	xmm0, DWORD PTR __real@45bb8000
	comiss	xmm0, DWORD PTR _rng$[ebp]
	jbe	SHORT $LN5@GunsEngage

; 360  : 			rollLoad = 0.0f;

	movss	xmm0, DWORD PTR __real@00000000
	movss	DWORD PTR _rollLoad$[ebp], xmm0
$LN5@GunsEngage:

; 361  : 		}
; 362  : 		alt = wpZ - 200.0f - (rng * 0.075f);

	movss	xmm0, DWORD PTR _wpZ$[ebp]
	subss	xmm0, DWORD PTR __real@43480000
	movss	xmm1, DWORD PTR _rng$[ebp]
	mulss	xmm1, DWORD PTR __real@3d99999a
	subss	xmm0, xmm1
	movss	DWORD PTR _alt$[ebp], xmm0

; 363  : 	}
; 364  : 	else {

	jmp	$LN1@GunsEngage
$LN6@GunsEngage:

; 365  : 		if (fabs(desSpeed) > 0.2f && rng < 6000.0f) {

	push	ecx
	movss	xmm0, DWORD PTR _desSpeed$[ebp]
	movss	DWORD PTR [esp], xmm0
	call	?fabs@@YAMM@Z				; fabs
	add	esp, 4
	fstp	DWORD PTR tv1187[ebp]
	movss	xmm0, DWORD PTR tv1187[ebp]
	comiss	xmm0, DWORD PTR __real@3e4ccccd
	jbe	SHORT $LN3@GunsEngage
	movss	xmm0, DWORD PTR __real@45bb8000
	comiss	xmm0, DWORD PTR _rng$[ebp]
	jbe	SHORT $LN3@GunsEngage

; 366  : 			rollLoad = 0.0f;

	movss	xmm0, DWORD PTR __real@00000000
	movss	DWORD PTR _rollLoad$[ebp], xmm0
$LN3@GunsEngage:

; 367  : 		}
; 368  : 
; 369  : 		if (rng < 1000.0f)

	movss	xmm0, DWORD PTR __real@447a0000
	comiss	xmm0, DWORD PTR _rng$[ebp]
	jbe	SHORT $LN2@GunsEngage

; 370  : 			alt = wpZ + (1000.0f - rng) * 0.2f;

	movss	xmm0, DWORD PTR __real@447a0000
	subss	xmm0, DWORD PTR _rng$[ebp]
	mulss	xmm0, DWORD PTR __real@3e4ccccd
	addss	xmm0, DWORD PTR _wpZ$[ebp]
	movss	DWORD PTR _alt$[ebp], xmm0

; 371  : 		else

	jmp	SHORT $LN1@GunsEngage
$LN2@GunsEngage:

; 372  : 			alt = wpZ - 100.0f - (rng - 1000.0f) * 0.2f;

	movss	xmm0, DWORD PTR _wpZ$[ebp]
	subss	xmm0, DWORD PTR __real@42c80000
	movss	xmm1, DWORD PTR _rng$[ebp]
	subss	xmm1, DWORD PTR __real@447a0000
	mulss	xmm1, DWORD PTR __real@3e4ccccd
	subss	xmm0, xmm1
	movss	DWORD PTR _alt$[ebp], xmm0
$LN1@GunsEngage:

; 373  : 	}
; 374  : 
; 375  : 	LevelTurn (rollLoad, rollDir, TRUE);

	push	1
	push	ecx
	movss	xmm0, DWORD PTR _rollDir$[ebp]
	movss	DWORD PTR [esp], xmm0
	push	ecx
	movss	xmm0, DWORD PTR _rollLoad$[ebp]
	movss	DWORD PTR [esp], xmm0
	mov	ecx, DWORD PTR _this$[ebp]
	call	?LevelTurn@HeliBrain@@QAEXMMH@Z		; HeliBrain::LevelTurn

; 376  : 	MachHold(desSpeed, min(max(300.0f, -alt), 3500.0f), TRUE);

	movss	xmm0, DWORD PTR _alt$[ebp]
	xorps	xmm0, DWORD PTR __xmm@80000000800000008000000080000000
	movss	xmm1, DWORD PTR __real@43960000
	comiss	xmm1, xmm0
	jbe	SHORT $LN43@GunsEngage
	movss	xmm0, DWORD PTR __real@43960000
	movss	DWORD PTR tv734[ebp], xmm0
	jmp	SHORT $LN44@GunsEngage
$LN43@GunsEngage:
	movss	xmm0, DWORD PTR _alt$[ebp]
	xorps	xmm0, DWORD PTR __xmm@80000000800000008000000080000000
	movss	DWORD PTR tv734[ebp], xmm0
$LN44@GunsEngage:
	movss	xmm0, DWORD PTR __real@455ac000
	comiss	xmm0, DWORD PTR tv734[ebp]
	jbe	SHORT $LN47@GunsEngage
	movss	xmm0, DWORD PTR _alt$[ebp]
	xorps	xmm0, DWORD PTR __xmm@80000000800000008000000080000000
	movss	xmm1, DWORD PTR __real@43960000
	comiss	xmm1, xmm0
	jbe	SHORT $LN45@GunsEngage
	movss	xmm0, DWORD PTR __real@43960000
	movss	DWORD PTR tv741[ebp], xmm0
	jmp	SHORT $LN46@GunsEngage
$LN45@GunsEngage:
	movss	xmm0, DWORD PTR _alt$[ebp]
	xorps	xmm0, DWORD PTR __xmm@80000000800000008000000080000000
	movss	DWORD PTR tv741[ebp], xmm0
$LN46@GunsEngage:
	movss	xmm0, DWORD PTR tv741[ebp]
	movss	DWORD PTR tv742[ebp], xmm0
	jmp	SHORT $LN48@GunsEngage
$LN47@GunsEngage:
	movss	xmm0, DWORD PTR __real@455ac000
	movss	DWORD PTR tv742[ebp], xmm0
$LN48@GunsEngage:
	push	1
	push	ecx
	movss	xmm0, DWORD PTR tv742[ebp]
	movss	DWORD PTR [esp], xmm0
	push	ecx
	movss	xmm0, DWORD PTR _desSpeed$[ebp]
	movss	DWORD PTR [esp], xmm0
	mov	ecx, DWORD PTR _this$[ebp]
	call	?MachHold@HeliBrain@@QAEXMMH@Z		; HeliBrain::MachHold
$LN37@GunsEngage:

; 377  : }

	mov	ecx, DWORD PTR __$ArrayPad$[ebp]
	xor	ecx, ebp
	call	@__security_check_cookie@4
	mov	esp, ebp
	pop	ebp
	ret	0
?GunsEngage@HeliBrain@@QAEXXZ ENDP			; HeliBrain::GunsEngage
_TEXT	ENDS
; Function compile flags: /Odtp
; File c:\users\zhitao li\documents\visual studio 2012\projects\freefalcon\vu2\include\vu_templates.h
;	COMDAT ??C?$VuBin@VSimWeaponClass@@@@QBEPAVSimWeaponClass@@XZ
_TEXT	SEGMENT
_this$ = -4						; size = 4
??C?$VuBin@VSimWeaponClass@@@@QBEPAVSimWeaponClass@@XZ PROC ; VuBin<SimWeaponClass>::operator->, COMDAT
; _this$ = ecx

; 50   : 	E *operator->() const {

	push	ebp
	mov	ebp, esp
	push	ecx
	mov	DWORD PTR _this$[ebp], ecx

; 51   : 		return e;

	mov	eax, DWORD PTR _this$[ebp]
	mov	eax, DWORD PTR [eax]

; 52   : 	}

	mov	esp, ebp
	pop	ebp
	ret	0
??C?$VuBin@VSimWeaponClass@@@@QBEPAVSimWeaponClass@@XZ ENDP ; VuBin<SimWeaponClass>::operator->
_TEXT	ENDS
; Function compile flags: /Odtp
; File c:\users\zhitao li\documents\visual studio 2012\projects\freefalcon\vu2\include\vu_templates.h
;	COMDAT ??B?$VuBin@VSimWeaponClass@@@@QBE_NXZ
_TEXT	SEGMENT
_this$ = -8						; size = 4
tv66 = -4						; size = 4
??B?$VuBin@VSimWeaponClass@@@@QBE_NXZ PROC		; VuBin<SimWeaponClass>::operator bool, COMDAT
; _this$ = ecx

; 40   : 	operator bool() const{

	push	ebp
	mov	ebp, esp
	sub	esp, 8
	mov	DWORD PTR _this$[ebp], ecx

; 41   : 		return e != NULL;

	mov	eax, DWORD PTR _this$[ebp]
	cmp	DWORD PTR [eax], 0
	je	SHORT $LN3@operator
	mov	DWORD PTR tv66[ebp], 1
	jmp	SHORT $LN4@operator
$LN3@operator:
	mov	DWORD PTR tv66[ebp], 0
$LN4@operator:
	mov	al, BYTE PTR tv66[ebp]

; 42   : 	}

	mov	esp, ebp
	pop	ebp
	ret	0
??B?$VuBin@VSimWeaponClass@@@@QBE_NXZ ENDP		; VuBin<SimWeaponClass>::operator bool
_TEXT	ENDS
; Function compile flags: /Odtp
; File c:\users\zhitao li\documents\visual studio 2012\projects\freefalcon\vu2\include\vu_templates.h
;	COMDAT ??7?$VuBin@VSimWeaponClass@@@@QBE_NXZ
_TEXT	SEGMENT
_this$ = -8						; size = 4
tv66 = -4						; size = 4
??7?$VuBin@VSimWeaponClass@@@@QBE_NXZ PROC		; VuBin<SimWeaponClass>::operator!, COMDAT
; _this$ = ecx

; 37   : 	bool operator!() const{

	push	ebp
	mov	ebp, esp
	sub	esp, 8
	mov	DWORD PTR _this$[ebp], ecx

; 38   : 		return e == NULL;

	mov	eax, DWORD PTR _this$[ebp]
	cmp	DWORD PTR [eax], 0
	jne	SHORT $LN3@operator
	mov	DWORD PTR tv66[ebp], 1
	jmp	SHORT $LN4@operator
$LN3@operator:
	mov	DWORD PTR tv66[ebp], 0
$LN4@operator:
	mov	al, BYTE PTR tv66[ebp]

; 39   : 	}

	mov	esp, ebp
	pop	ebp
	ret	0
??7?$VuBin@VSimWeaponClass@@@@QBE_NXZ ENDP		; VuBin<SimWeaponClass>::operator!
_TEXT	ENDS
; Function compile flags: /Odtp
; File c:\users\zhitao li\documents\visual studio 2012\projects\freefalcon\vu2\include\vu_templates.h
;	COMDAT ?get@?$VuBin@VFalconEntity@@@@QBEPAVFalconEntity@@XZ
_TEXT	SEGMENT
_this$ = -4						; size = 4
?get@?$VuBin@VFalconEntity@@@@QBEPAVFalconEntity@@XZ PROC ; VuBin<FalconEntity>::get, COMDAT
; _this$ = ecx

; 55   : 	E *get() const{

	push	ebp
	mov	ebp, esp
	push	ecx
	mov	DWORD PTR _this$[ebp], ecx

; 56   : 		return e;

	mov	eax, DWORD PTR _this$[ebp]
	mov	eax, DWORD PTR [eax]

; 57   : 	}

	mov	esp, ebp
	pop	ebp
	ret	0
?get@?$VuBin@VFalconEntity@@@@QBEPAVFalconEntity@@XZ ENDP ; VuBin<FalconEntity>::get
_TEXT	ENDS
; Function compile flags: /Odtp
; File c:\users\zhitao li\documents\visual studio 2012\projects\freefalcon\falclib\include\mltrig.h
;	COMDAT ?checked_atan2@@YANNN@Z
_TEXT	SEGMENT
_z$ = -8						; size = 8
_y$ = 8							; size = 8
_x$ = 16						; size = 8
?checked_atan2@@YANNN@Z PROC				; checked_atan2, COMDAT

; 46   : {

	push	ebp
	mov	ebp, esp
	sub	esp, 8

; 47   : 	double z;
; 48   : 	
; 49   : 	if (x == -0.0)

	movsd	xmm0, QWORD PTR _x$[ebp]
	ucomisd	xmm0, QWORD PTR __real@8000000000000000
	lahf
	test	ah, 68					; 00000044H
	jp	SHORT $LN8@checked_at

; 50   : 		x = 0.0;

	movsd	xmm0, QWORD PTR __real@0000000000000000
	movsd	QWORD PTR _x$[ebp], xmm0
$LN8@checked_at:

; 51   : 	
; 52   : 	if (x != 0)

	movsd	xmm0, QWORD PTR _x$[ebp]
	ucomisd	xmm0, QWORD PTR __real@0000000000000000
	lahf
	test	ah, 68					; 00000044H
	jnp	SHORT $LN7@checked_at

; 53   : 		z = atan(y / x);

	movsd	xmm0, QWORD PTR _y$[ebp]
	divsd	xmm0, QWORD PTR _x$[ebp]
	sub	esp, 8
	movsd	QWORD PTR [esp], xmm0
	call	_atan
	add	esp, 8
	fstp	QWORD PTR _z$[ebp]
	jmp	SHORT $LN4@checked_at
$LN7@checked_at:

; 54   : 	else if (y > 0)

	movsd	xmm0, QWORD PTR _y$[ebp]
	comisd	xmm0, QWORD PTR __real@0000000000000000
	jbe	SHORT $LN5@checked_at

; 55   : 		z = HALF_DPI;

	movsd	xmm0, QWORD PTR __real@3ff921fb54442d18
	movsd	QWORD PTR _z$[ebp], xmm0

; 56   : 	else

	jmp	SHORT $LN4@checked_at
$LN5@checked_at:

; 57   : 		z = -HALF_DPI;

	movsd	xmm0, QWORD PTR __real@bff921fb54442d18
	movsd	QWORD PTR _z$[ebp], xmm0
$LN4@checked_at:

; 58   : 
; 59   : 	if (x < 0)

	movsd	xmm0, QWORD PTR __real@0000000000000000
	comisd	xmm0, QWORD PTR _x$[ebp]
	jbe	SHORT $LN1@checked_at

; 60   : 	{
; 61   : 		if (y < 0)

	movsd	xmm0, QWORD PTR __real@0000000000000000
	comisd	xmm0, QWORD PTR _y$[ebp]
	jbe	SHORT $LN2@checked_at

; 62   : 			z -= DPI;

	movsd	xmm0, QWORD PTR _z$[ebp]
	subsd	xmm0, QWORD PTR __real@400921fb54442d18
	movsd	QWORD PTR _z$[ebp], xmm0

; 63   : 		else

	jmp	SHORT $LN1@checked_at
$LN2@checked_at:

; 64   : 			z += DPI;

	movsd	xmm0, QWORD PTR _z$[ebp]
	addsd	xmm0, QWORD PTR __real@400921fb54442d18
	movsd	QWORD PTR _z$[ebp], xmm0
$LN1@checked_at:

; 65   : 	}
; 66   : 
; 67   : 	return z;

	fld	QWORD PTR _z$[ebp]

; 68   : }

	mov	esp, ebp
	pop	ebp
	ret	0
?checked_atan2@@YANNN@Z ENDP				; checked_atan2
_TEXT	ENDS
; Function compile flags: /Odtp
; File c:\users\zhitao li\documents\visual studio 2012\projects\freefalcon\falclib\include\mltrig.h
;	COMDAT ?mlSinCos@@YAXPAUmlTrig@@M@Z
_TEXT	SEGMENT
_trig$ = 8						; size = 4
_angle$ = 12						; size = 4
?mlSinCos@@YAXPAUmlTrig@@M@Z PROC			; mlSinCos, COMDAT

; 12   : {

	push	ebp
	mov	ebp, esp

; 13   : #if defined(_MSC_VER)
; 14   : 	__asm 
; 15   : 	{
; 16   : 		__asm	mov     ecx, trig;

	mov	ecx, DWORD PTR _trig$[ebp]

; 17   : 		__asm	fld     dword ptr [angle];

	fld	DWORD PTR _angle$[ebp]

; 18   : 		__asm	fsincos;

	fsincos

; 19   : 		__asm	fstp    dword ptr [ecx]trig.cos;

	fstp	DWORD PTR [ecx+4]

; 20   : 		__asm	fstp    dword ptr [ecx]trig.sin;

	fstp	DWORD PTR [ecx]

; 21   : 	}
; 22   : #else
; 23   : 	trig->sin = (Float32)sin(angle);
; 24   : 	trig->cos = (Float32)cos(angle);
; 25   : #endif
; 26   : }

	pop	ebp
	ret	0
?mlSinCos@@YAXPAUmlTrig@@M@Z ENDP			; mlSinCos
_TEXT	ENDS
; Function compile flags: /Odtp
; File c:\users\zhitao li\documents\visual studio 2012\projects\freefalcon\falclib\include\falcent.h
;	COMDAT ?IsSim@FalconEntity@@QAEHXZ
_TEXT	SEGMENT
_this$ = -8						; size = 4
tv68 = -4						; size = 4
?IsSim@FalconEntity@@QAEHXZ PROC			; FalconEntity::IsSim, COMDAT
; _this$ = ecx

; 103  : 		{return (falconType & FalconSimEntity) ? TRUE : FALSE;};

	push	ebp
	mov	ebp, esp
	sub	esp, 8
	mov	DWORD PTR _this$[ebp], ecx
	mov	eax, DWORD PTR _this$[ebp]
	movsx	ecx, BYTE PTR [eax+137]
	and	ecx, 2
	je	SHORT $LN3@IsSim
	mov	DWORD PTR tv68[ebp], 1
	jmp	SHORT $LN4@IsSim
$LN3@IsSim:
	mov	DWORD PTR tv68[ebp], 0
$LN4@IsSim:
	mov	eax, DWORD PTR tv68[ebp]
	mov	esp, ebp
	pop	ebp
	ret	0
?IsSim@FalconEntity@@QAEHXZ ENDP			; FalconEntity::IsSim
_TEXT	ENDS
; Function compile flags: /Odtp
; File c:\program files (x86)\microsoft visual studio 11.0\vc\include\xstring
;	COMDAT ?_Xran@?$basic_string@DU?$char_traits@D@std@@V?$allocator@D@2@@std@@QBEXXZ
_TEXT	SEGMENT
_this$ = -4						; size = 4
?_Xran@?$basic_string@DU?$char_traits@D@std@@V?$allocator@D@2@@std@@QBEXXZ PROC ; std::basic_string<char,std::char_traits<char>,std::allocator<char> >::_Xran, COMDAT
; _this$ = ecx

; 2275 : 		{	// report an out_of_range error

	push	ebp
	mov	ebp, esp
	push	ecx
	mov	DWORD PTR _this$[ebp], ecx

; 2276 : 		_Xout_of_range("invalid string position");

	push	OFFSET ??_C@_0BI@CFPLBAOH@invalid?5string?5position?$AA@
	call	?_Xout_of_range@std@@YAXPBD@Z		; std::_Xout_of_range
$LN2@Xran:

; 2277 : 		}

	mov	esp, ebp
	pop	ebp
	ret	0
?_Xran@?$basic_string@DU?$char_traits@D@std@@V?$allocator@D@2@@std@@QBEXXZ ENDP ; std::basic_string<char,std::char_traits<char>,std::allocator<char> >::_Xran
_TEXT	ENDS
; Function compile flags: /Odtp
; File c:\program files (x86)\microsoft visual studio 11.0\vc\include\xstring
;	COMDAT ?_Xlen@?$basic_string@DU?$char_traits@D@std@@V?$allocator@D@2@@std@@QBEXXZ
_TEXT	SEGMENT
_this$ = -4						; size = 4
?_Xlen@?$basic_string@DU?$char_traits@D@std@@V?$allocator@D@2@@std@@QBEXXZ PROC ; std::basic_string<char,std::char_traits<char>,std::allocator<char> >::_Xlen, COMDAT
; _this$ = ecx

; 2270 : 		{	// report a length_error

	push	ebp
	mov	ebp, esp
	push	ecx
	mov	DWORD PTR _this$[ebp], ecx

; 2271 : 		_Xlength_error("string too long");

	push	OFFSET ??_C@_0BA@JFNIOLAK@string?5too?5long?$AA@
	call	?_Xlength_error@std@@YAXPBD@Z		; std::_Xlength_error
$LN2@Xlen:

; 2272 : 		}

	mov	esp, ebp
	pop	ebp
	ret	0
?_Xlen@?$basic_string@DU?$char_traits@D@std@@V?$allocator@D@2@@std@@QBEXXZ ENDP ; std::basic_string<char,std::char_traits<char>,std::allocator<char> >::_Xlen
_TEXT	ENDS
; Function compile flags: /Odtp
; File c:\program files (x86)\microsoft visual studio 11.0\vc\include\xstring
;	COMDAT ?_Tidy@?$basic_string@DU?$char_traits@D@std@@V?$allocator@D@2@@std@@QAEX_NI@Z
_TEXT	SEGMENT
__Ptr$1 = -12						; size = 4
_this$ = -8						; size = 4
$T2 = -2						; size = 1
$T3 = -1						; size = 1
__Built$ = 8						; size = 1
__Newsize$ = 12						; size = 4
?_Tidy@?$basic_string@DU?$char_traits@D@std@@V?$allocator@D@2@@std@@QAEX_NI@Z PROC ; std::basic_string<char,std::char_traits<char>,std::allocator<char> >::_Tidy, COMDAT
; _this$ = ecx

; 2253 : 		{	// initialize buffer, deallocating any storage

	push	ebp
	mov	ebp, esp
	sub	esp, 12					; 0000000cH
	mov	DWORD PTR _this$[ebp], ecx

; 2254 : 		if (!_Built)

	movzx	eax, BYTE PTR __Built$[ebp]
	test	eax, eax
	jne	SHORT $LN4@Tidy
	jmp	SHORT $LN3@Tidy
$LN4@Tidy:

; 2255 : 			;
; 2256 : 		else if (this->_BUF_SIZE <= this->_Myres)

	mov	ecx, DWORD PTR _this$[ebp]
	cmp	DWORD PTR [ecx+20], 16			; 00000010H
	jb	SHORT $LN3@Tidy

; 2257 : 			{	// copy any leftovers to small buffer and deallocate
; 2258 : 			pointer _Ptr = this->_Bx._Ptr;

	mov	edx, DWORD PTR _this$[ebp]
	mov	eax, DWORD PTR [edx]
	mov	DWORD PTR __Ptr$1[ebp], eax

; 2259 : 			this->_Getal().destroy(&this->_Bx._Ptr);

	mov	ecx, DWORD PTR _this$[ebp]
	push	ecx
	lea	edx, DWORD PTR $T3[ebp]
	push	edx
	mov	ecx, DWORD PTR _this$[ebp]
	call	?_Getal@?$_String_alloc@$0A@U?$_String_base_types@DV?$allocator@D@std@@@std@@@std@@QBE?AU?$_Wrap_alloc@V?$allocator@D@std@@@2@XZ ; std::_String_alloc<0,std::_String_base_types<char,std::allocator<char> > >::_Getal
	mov	ecx, eax
	call	??$destroy@PAD@?$_Wrap_alloc@V?$allocator@D@std@@@std@@QAEXPAPAD@Z ; std::_Wrap_alloc<std::allocator<char> >::destroy<char *>

; 2260 : 			if (0 < _Newsize)

	cmp	DWORD PTR __Newsize$[ebp], 0
	jbe	SHORT $LN1@Tidy

; 2261 : 				_Traits::copy(this->_Bx._Buf,
; 2262 : 					_STD addressof(*_Ptr), _Newsize);

	mov	eax, DWORD PTR __Newsize$[ebp]
	push	eax
	mov	ecx, DWORD PTR __Ptr$1[ebp]
	push	ecx
	call	??$addressof@D@std@@YAPADAAD@Z		; std::addressof<char>
	add	esp, 4
	push	eax
	mov	edx, DWORD PTR _this$[ebp]
	push	edx
	call	?copy@?$char_traits@D@std@@SAPADPADPBDI@Z ; std::char_traits<char>::copy
	add	esp, 12					; 0000000cH
$LN1@Tidy:

; 2263 : 			this->_Getal().deallocate(_Ptr, this->_Myres + 1);

	mov	eax, DWORD PTR _this$[ebp]
	mov	ecx, DWORD PTR [eax+20]
	add	ecx, 1
	push	ecx
	mov	edx, DWORD PTR __Ptr$1[ebp]
	push	edx
	lea	eax, DWORD PTR $T2[ebp]
	push	eax
	mov	ecx, DWORD PTR _this$[ebp]
	call	?_Getal@?$_String_alloc@$0A@U?$_String_base_types@DV?$allocator@D@std@@@std@@@std@@QBE?AU?$_Wrap_alloc@V?$allocator@D@std@@@2@XZ ; std::_String_alloc<0,std::_String_base_types<char,std::allocator<char> > >::_Getal
	mov	ecx, eax
	call	?deallocate@?$_Wrap_alloc@V?$allocator@D@std@@@std@@QAEXPADI@Z ; std::_Wrap_alloc<std::allocator<char> >::deallocate
$LN3@Tidy:

; 2264 : 			}
; 2265 : 		this->_Myres = this->_BUF_SIZE - 1;

	mov	ecx, DWORD PTR _this$[ebp]
	mov	DWORD PTR [ecx+20], 15			; 0000000fH

; 2266 : 		_Eos(_Newsize);

	mov	edx, DWORD PTR __Newsize$[ebp]
	push	edx
	mov	ecx, DWORD PTR _this$[ebp]
	call	?_Eos@?$basic_string@DU?$char_traits@D@std@@V?$allocator@D@2@@std@@QAEXI@Z ; std::basic_string<char,std::char_traits<char>,std::allocator<char> >::_Eos

; 2267 : 		}

	mov	esp, ebp
	pop	ebp
	ret	8
?_Tidy@?$basic_string@DU?$char_traits@D@std@@V?$allocator@D@2@@std@@QAEX_NI@Z ENDP ; std::basic_string<char,std::char_traits<char>,std::allocator<char> >::_Tidy
_TEXT	ENDS
; Function compile flags: /Odtp
; File c:\program files (x86)\microsoft visual studio 11.0\vc\include\xstring
;	COMDAT ?_Inside@?$basic_string@DU?$char_traits@D@std@@V?$allocator@D@2@@std@@QAE_NPBD@Z
_TEXT	SEGMENT
_this$ = -4						; size = 4
__Ptr$ = 8						; size = 4
?_Inside@?$basic_string@DU?$char_traits@D@std@@V?$allocator@D@2@@std@@QAE_NPBD@Z PROC ; std::basic_string<char,std::char_traits<char>,std::allocator<char> >::_Inside, COMDAT
; _this$ = ecx

; 2237 : 		{	// test if _Ptr points inside string

	push	ebp
	mov	ebp, esp
	push	ecx
	mov	DWORD PTR _this$[ebp], ecx

; 2238 : 		if (_Ptr == 0 || _Ptr < this->_Myptr()
; 2239 : 			|| this->_Myptr() + this->_Mysize <= _Ptr)

	cmp	DWORD PTR __Ptr$[ebp], 0
	je	SHORT $LN2@Inside
	mov	ecx, DWORD PTR _this$[ebp]
	call	?_Myptr@?$_String_val@U?$_Simple_types@D@std@@@std@@QAEPADXZ ; std::_String_val<std::_Simple_types<char> >::_Myptr
	cmp	DWORD PTR __Ptr$[ebp], eax
	jb	SHORT $LN2@Inside
	mov	ecx, DWORD PTR _this$[ebp]
	call	?_Myptr@?$_String_val@U?$_Simple_types@D@std@@@std@@QAEPADXZ ; std::_String_val<std::_Simple_types<char> >::_Myptr
	mov	ecx, DWORD PTR _this$[ebp]
	add	eax, DWORD PTR [ecx+16]
	cmp	eax, DWORD PTR __Ptr$[ebp]
	ja	SHORT $LN3@Inside
$LN2@Inside:

; 2240 : 			return (false);	// don't ask

	xor	al, al
	jmp	SHORT $LN4@Inside

; 2241 : 		else

	jmp	SHORT $LN4@Inside
$LN3@Inside:

; 2242 : 			return (true);

	mov	al, 1
$LN4@Inside:

; 2243 : 		}

	mov	esp, ebp
	pop	ebp
	ret	4
?_Inside@?$basic_string@DU?$char_traits@D@std@@V?$allocator@D@2@@std@@QAE_NPBD@Z ENDP ; std::basic_string<char,std::char_traits<char>,std::allocator<char> >::_Inside
_TEXT	ENDS
; Function compile flags: /Odtp
; File c:\program files (x86)\microsoft visual studio 11.0\vc\include\xstring
;	COMDAT ?_Grow@?$basic_string@DU?$char_traits@D@std@@V?$allocator@D@2@@std@@QAE_NI_N@Z
_TEXT	SEGMENT
tv136 = -12						; size = 4
tv129 = -8						; size = 4
_this$ = -4						; size = 4
__Newsize$ = 8						; size = 4
__Trim$ = 12						; size = 1
?_Grow@?$basic_string@DU?$char_traits@D@std@@V?$allocator@D@2@@std@@QAE_NI_N@Z PROC ; std::basic_string<char,std::char_traits<char>,std::allocator<char> >::_Grow, COMDAT
; _this$ = ecx

; 2223 : 		{	// ensure buffer is big enough, trim to size if _Trim is true

	push	ebp
	mov	ebp, esp
	sub	esp, 12					; 0000000cH
	mov	DWORD PTR _this$[ebp], ecx

; 2224 : 		if (max_size() < _Newsize)

	mov	ecx, DWORD PTR _this$[ebp]
	call	?max_size@?$basic_string@DU?$char_traits@D@std@@V?$allocator@D@2@@std@@QBEIXZ ; std::basic_string<char,std::char_traits<char>,std::allocator<char> >::max_size
	cmp	eax, DWORD PTR __Newsize$[ebp]
	jae	SHORT $LN6@Grow

; 2225 : 			_Xlen();	// result too long

	mov	ecx, DWORD PTR _this$[ebp]
	call	?_Xlen@?$basic_string@DU?$char_traits@D@std@@V?$allocator@D@2@@std@@QBEXXZ ; std::basic_string<char,std::char_traits<char>,std::allocator<char> >::_Xlen
$LN6@Grow:

; 2226 : 		if (this->_Myres < _Newsize)

	mov	eax, DWORD PTR _this$[ebp]
	mov	ecx, DWORD PTR [eax+20]
	cmp	ecx, DWORD PTR __Newsize$[ebp]
	jae	SHORT $LN5@Grow

; 2227 : 			_Copy(_Newsize, this->_Mysize);	// reallocate to grow

	mov	edx, DWORD PTR _this$[ebp]
	mov	eax, DWORD PTR [edx+16]
	push	eax
	mov	ecx, DWORD PTR __Newsize$[ebp]
	push	ecx
	mov	ecx, DWORD PTR _this$[ebp]
	call	?_Copy@?$basic_string@DU?$char_traits@D@std@@V?$allocator@D@2@@std@@QAEXII@Z ; std::basic_string<char,std::char_traits<char>,std::allocator<char> >::_Copy
	jmp	SHORT $LN4@Grow
$LN5@Grow:

; 2228 : 		else if (_Trim && _Newsize < this->_BUF_SIZE)

	movzx	edx, BYTE PTR __Trim$[ebp]
	test	edx, edx
	je	SHORT $LN3@Grow
	cmp	DWORD PTR __Newsize$[ebp], 16		; 00000010H
	jae	SHORT $LN3@Grow

; 2229 : 			_Tidy(true,	// copy and deallocate if trimming to small string
; 2230 : 				_Newsize < this->_Mysize ? _Newsize : this->_Mysize);

	mov	eax, DWORD PTR _this$[ebp]
	mov	ecx, DWORD PTR __Newsize$[ebp]
	cmp	ecx, DWORD PTR [eax+16]
	jae	SHORT $LN9@Grow
	mov	edx, DWORD PTR __Newsize$[ebp]
	mov	DWORD PTR tv129[ebp], edx
	jmp	SHORT $LN10@Grow
$LN9@Grow:
	mov	eax, DWORD PTR _this$[ebp]
	mov	ecx, DWORD PTR [eax+16]
	mov	DWORD PTR tv129[ebp], ecx
$LN10@Grow:
	mov	edx, DWORD PTR tv129[ebp]
	push	edx
	push	1
	mov	ecx, DWORD PTR _this$[ebp]
	call	?_Tidy@?$basic_string@DU?$char_traits@D@std@@V?$allocator@D@2@@std@@QAEX_NI@Z ; std::basic_string<char,std::char_traits<char>,std::allocator<char> >::_Tidy
	jmp	SHORT $LN4@Grow
$LN3@Grow:

; 2231 : 		else if (_Newsize == 0)

	cmp	DWORD PTR __Newsize$[ebp], 0
	jne	SHORT $LN4@Grow

; 2232 : 			_Eos(0);	// new size is zero, just null terminate

	push	0
	mov	ecx, DWORD PTR _this$[ebp]
	call	?_Eos@?$basic_string@DU?$char_traits@D@std@@V?$allocator@D@2@@std@@QAEXI@Z ; std::basic_string<char,std::char_traits<char>,std::allocator<char> >::_Eos
$LN4@Grow:

; 2233 : 		return (0 < _Newsize);	// return true only if more work to do

	cmp	DWORD PTR __Newsize$[ebp], 0
	jbe	SHORT $LN11@Grow
	mov	DWORD PTR tv136[ebp], 1
	jmp	SHORT $LN12@Grow
$LN11@Grow:
	mov	DWORD PTR tv136[ebp], 0
$LN12@Grow:
	mov	al, BYTE PTR tv136[ebp]
$LN8@Grow:

; 2234 : 		}

	mov	esp, ebp
	pop	ebp
	ret	8
?_Grow@?$basic_string@DU?$char_traits@D@std@@V?$allocator@D@2@@std@@QAE_NI_N@Z ENDP ; std::basic_string<char,std::char_traits<char>,std::allocator<char> >::_Grow
_TEXT	ENDS
; Function compile flags: /Odtp
; File c:\program files (x86)\microsoft visual studio 11.0\vc\include\xstring
;	COMDAT ?_Eos@?$basic_string@DU?$char_traits@D@std@@V?$allocator@D@2@@std@@QAEXI@Z
_TEXT	SEGMENT
_this$ = -8						; size = 4
$T1 = -1						; size = 1
__Newsize$ = 8						; size = 4
?_Eos@?$basic_string@DU?$char_traits@D@std@@V?$allocator@D@2@@std@@QAEXI@Z PROC ; std::basic_string<char,std::char_traits<char>,std::allocator<char> >::_Eos, COMDAT
; _this$ = ecx

; 2217 : 		{	// set new length and null terminator

	push	ebp
	mov	ebp, esp
	sub	esp, 8
	mov	DWORD PTR _this$[ebp], ecx

; 2218 : 		_Traits::assign(this->_Myptr()[this->_Mysize = _Newsize], _Elem());

	mov	BYTE PTR $T1[ebp], 0
	mov	eax, DWORD PTR _this$[ebp]
	mov	ecx, DWORD PTR __Newsize$[ebp]
	mov	DWORD PTR [eax+16], ecx
	lea	edx, DWORD PTR $T1[ebp]
	push	edx
	mov	ecx, DWORD PTR _this$[ebp]
	call	?_Myptr@?$_String_val@U?$_Simple_types@D@std@@@std@@QAEPADXZ ; std::_String_val<std::_Simple_types<char> >::_Myptr
	add	eax, DWORD PTR __Newsize$[ebp]
	push	eax
	call	?assign@?$char_traits@D@std@@SAXAADABD@Z ; std::char_traits<char>::assign
	add	esp, 8

; 2219 : 		}

	mov	esp, ebp
	pop	ebp
	ret	4
?_Eos@?$basic_string@DU?$char_traits@D@std@@V?$allocator@D@2@@std@@QAEXI@Z ENDP ; std::basic_string<char,std::char_traits<char>,std::allocator<char> >::_Eos
_TEXT	ENDS
; Function compile flags: /Odtp
; File c:\program files (x86)\microsoft visual studio 11.0\vc\include\xstring
;	COMDAT ?_Copy@?$basic_string@DU?$char_traits@D@std@@V?$allocator@D@2@@std@@QAEXII@Z
_TEXT	SEGMENT
tv205 = -48						; size = 4
tv204 = -44						; size = 4
tv203 = -40						; size = 4
tv202 = -36						; size = 4
__Ptr$ = -32						; size = 4
__Newres$ = -28						; size = 4
_this$ = -24						; size = 4
$T2 = -19						; size = 1
$T3 = -18						; size = 1
$T4 = -17						; size = 1
__$EHRec$ = -16						; size = 16
__Newsize$ = 8						; size = 4
__Oldlen$ = 12						; size = 4
?_Copy@?$basic_string@DU?$char_traits@D@std@@V?$allocator@D@2@@std@@QAEXII@Z PROC ; std::basic_string<char,std::char_traits<char>,std::allocator<char> >::_Copy, COMDAT
; _this$ = ecx

; 2182 : 		{	// copy _Oldlen elements to newly allocated buffer

	push	ebp
	mov	ebp, esp
	push	-1
	push	__ehhandler$?_Copy@?$basic_string@DU?$char_traits@D@std@@V?$allocator@D@2@@std@@QAEXII@Z
	mov	eax, DWORD PTR fs:0
	push	eax
	push	ecx
	sub	esp, 32					; 00000020H
	push	ebx
	push	esi
	push	edi
	mov	eax, DWORD PTR ___security_cookie
	xor	eax, ebp
	push	eax
	lea	eax, DWORD PTR __$EHRec$[ebp+4]
	mov	DWORD PTR fs:0, eax
	mov	DWORD PTR __$EHRec$[ebp], esp
	mov	DWORD PTR _this$[ebp], ecx

; 2183 : 		size_type _Newres = _Newsize | this->_ALLOC_MASK;

	mov	eax, DWORD PTR __Newsize$[ebp]
	or	eax, 15					; 0000000fH
	mov	DWORD PTR __Newres$[ebp], eax

; 2184 : 		if (max_size() < _Newres)

	mov	ecx, DWORD PTR _this$[ebp]
	call	?max_size@?$basic_string@DU?$char_traits@D@std@@V?$allocator@D@2@@std@@QBEIXZ ; std::basic_string<char,std::char_traits<char>,std::allocator<char> >::max_size
	cmp	eax, DWORD PTR __Newres$[ebp]
	jae	SHORT $LN9@Copy

; 2185 : 			_Newres = _Newsize;	// undo roundup if too big

	mov	ecx, DWORD PTR __Newsize$[ebp]
	mov	DWORD PTR __Newres$[ebp], ecx
	jmp	SHORT $LN8@Copy
$LN9@Copy:

; 2186 : 		else if (this->_Myres / 2 <= _Newres / 3)

	mov	eax, DWORD PTR __Newres$[ebp]
	xor	edx, edx
	mov	ecx, 3
	div	ecx
	mov	edx, DWORD PTR _this$[ebp]
	mov	ecx, DWORD PTR [edx+20]
	shr	ecx, 1
	cmp	ecx, eax
	ja	SHORT $LN7@Copy
	jmp	SHORT $LN8@Copy
$LN7@Copy:

; 2187 : 			;
; 2188 : 		else if (this->_Myres <= max_size() - this->_Myres / 2)

	mov	edx, DWORD PTR _this$[ebp]
	mov	esi, DWORD PTR [edx+20]
	shr	esi, 1
	mov	ecx, DWORD PTR _this$[ebp]
	call	?max_size@?$basic_string@DU?$char_traits@D@std@@V?$allocator@D@2@@std@@QBEIXZ ; std::basic_string<char,std::char_traits<char>,std::allocator<char> >::max_size
	sub	eax, esi
	mov	ecx, DWORD PTR _this$[ebp]
	cmp	DWORD PTR [ecx+20], eax
	ja	SHORT $LN5@Copy

; 2189 : 			_Newres = this->_Myres
; 2190 : 				+ this->_Myres / 2;	// grow exponentially if possible

	mov	edx, DWORD PTR _this$[ebp]
	mov	eax, DWORD PTR [edx+20]
	shr	eax, 1
	mov	ecx, DWORD PTR _this$[ebp]
	add	eax, DWORD PTR [ecx+20]
	mov	DWORD PTR __Newres$[ebp], eax

; 2191 : 		else

	jmp	SHORT $LN8@Copy
$LN5@Copy:

; 2192 : 			_Newres = max_size();	// settle for max_size()

	mov	ecx, DWORD PTR _this$[ebp]
	call	?max_size@?$basic_string@DU?$char_traits@D@std@@V?$allocator@D@2@@std@@QBEIXZ ; std::basic_string<char,std::char_traits<char>,std::allocator<char> >::max_size
	mov	DWORD PTR __Newres$[ebp], eax
$LN8@Copy:

; 2193 : 
; 2194 : 		_Elem *_Ptr;
; 2195 : 		_TRY_BEGIN

	mov	DWORD PTR __$EHRec$[ebp+12], 0

; 2196 : 			_Ptr = this->_Getal().allocate(_Newres + 1);

	lea	edx, DWORD PTR $T4[ebp]
	push	edx
	mov	ecx, DWORD PTR _this$[ebp]
	call	?_Getal@?$_String_alloc@$0A@U?$_String_base_types@DV?$allocator@D@std@@@std@@@std@@QBE?AU?$_Wrap_alloc@V?$allocator@D@std@@@2@XZ ; std::_String_alloc<0,std::_String_base_types<char,std::allocator<char> > >::_Getal
	mov	DWORD PTR tv202[ebp], eax
	mov	eax, DWORD PTR __Newres$[ebp]
	add	eax, 1
	push	eax
	mov	ecx, DWORD PTR tv202[ebp]
	call	?allocate@?$_Wrap_alloc@V?$allocator@D@std@@@std@@QAEPADI@Z ; std::_Wrap_alloc<std::allocator<char> >::allocate
	mov	DWORD PTR tv203[ebp], eax
	mov	ecx, DWORD PTR tv203[ebp]
	mov	DWORD PTR __Ptr$[ebp], ecx
	jmp	SHORT $LN12@Copy
__catch$?_Copy@?$basic_string@DU?$char_traits@D@std@@V?$allocator@D@2@@std@@QAEXII@Z$0:

; 2197 : 		_CATCH_ALL

	mov	DWORD PTR __$EHRec$[ebp], esp

; 2198 : 			_Newres = _Newsize;	// allocation failed, undo roundup and retry

	mov	edx, DWORD PTR __Newsize$[ebp]
	mov	DWORD PTR __Newres$[ebp], edx

; 2199 : 			_TRY_BEGIN

	mov	BYTE PTR __$EHRec$[ebp+12], 2

; 2200 : 				_Ptr = this->_Getal().allocate(_Newres + 1);

	lea	eax, DWORD PTR $T3[ebp]
	push	eax
	mov	ecx, DWORD PTR _this$[ebp]
	call	?_Getal@?$_String_alloc@$0A@U?$_String_base_types@DV?$allocator@D@std@@@std@@@std@@QBE?AU?$_Wrap_alloc@V?$allocator@D@std@@@2@XZ ; std::_String_alloc<0,std::_String_base_types<char,std::allocator<char> > >::_Getal
	mov	DWORD PTR tv204[ebp], eax
	mov	ecx, DWORD PTR __Newres$[ebp]
	add	ecx, 1
	push	ecx
	mov	ecx, DWORD PTR tv204[ebp]
	call	?allocate@?$_Wrap_alloc@V?$allocator@D@std@@@std@@QAEPADI@Z ; std::_Wrap_alloc<std::allocator<char> >::allocate
	mov	DWORD PTR tv205[ebp], eax
	mov	edx, DWORD PTR tv205[ebp]
	mov	DWORD PTR __Ptr$[ebp], edx
	jmp	SHORT $LN14@Copy
__catch$?_Copy@?$basic_string@DU?$char_traits@D@std@@V?$allocator@D@2@@std@@QAEXII@Z$1:

; 2201 : 			_CATCH_ALL
; 2202 : 			_Tidy(true);	// failed again, discard storage and reraise

	push	0
	push	1
	mov	ecx, DWORD PTR _this$[ebp]
	call	?_Tidy@?$basic_string@DU?$char_traits@D@std@@V?$allocator@D@2@@std@@QAEX_NI@Z ; std::basic_string<char,std::char_traits<char>,std::allocator<char> >::_Tidy

; 2203 : 			_RERAISE;

	push	0
	push	0
	call	__CxxThrowException@8

; 2204 : 			_CATCH_END

	mov	eax, $LN17@Copy
	ret	0
$LN14@Copy:
	mov	DWORD PTR __$EHRec$[ebp+12], 1
	jmp	SHORT __tryend$?_Copy@?$basic_string@DU?$char_traits@D@std@@V?$allocator@D@2@@std@@QAEXII@Z$2
$LN17@Copy:
	mov	DWORD PTR __$EHRec$[ebp+12], 1
__tryend$?_Copy@?$basic_string@DU?$char_traits@D@std@@V?$allocator@D@2@@std@@QAEXII@Z$2:

; 2205 : 		_CATCH_END

	mov	eax, $LN19@Copy
	ret	0
$LN12@Copy:
	mov	DWORD PTR __$EHRec$[ebp+12], -1
	jmp	SHORT __tryend$?_Copy@?$basic_string@DU?$char_traits@D@std@@V?$allocator@D@2@@std@@QAEXII@Z$3
$LN19@Copy:
	mov	DWORD PTR __$EHRec$[ebp+12], -1
__tryend$?_Copy@?$basic_string@DU?$char_traits@D@std@@V?$allocator@D@2@@std@@QAEXII@Z$3:

; 2206 : 
; 2207 : 		if (0 < _Oldlen)

	cmp	DWORD PTR __Oldlen$[ebp], 0
	jbe	SHORT $LN1@Copy

; 2208 : 			_Traits::copy(_Ptr, this->_Myptr(),
; 2209 : 				_Oldlen);	// copy existing elements

	mov	eax, DWORD PTR __Oldlen$[ebp]
	push	eax
	mov	ecx, DWORD PTR _this$[ebp]
	call	?_Myptr@?$_String_val@U?$_Simple_types@D@std@@@std@@QAEPADXZ ; std::_String_val<std::_Simple_types<char> >::_Myptr
	push	eax
	mov	ecx, DWORD PTR __Ptr$[ebp]
	push	ecx
	call	?copy@?$char_traits@D@std@@SAPADPADPBDI@Z ; std::char_traits<char>::copy
	add	esp, 12					; 0000000cH
$LN1@Copy:

; 2210 : 		_Tidy(true);

	push	0
	push	1
	mov	ecx, DWORD PTR _this$[ebp]
	call	?_Tidy@?$basic_string@DU?$char_traits@D@std@@V?$allocator@D@2@@std@@QAEX_NI@Z ; std::basic_string<char,std::char_traits<char>,std::allocator<char> >::_Tidy

; 2211 : 		this->_Getal().construct(&this->_Bx._Ptr, _Ptr);

	lea	edx, DWORD PTR __Ptr$[ebp]
	push	edx
	mov	eax, DWORD PTR _this$[ebp]
	push	eax
	lea	ecx, DWORD PTR $T2[ebp]
	push	ecx
	mov	ecx, DWORD PTR _this$[ebp]
	call	?_Getal@?$_String_alloc@$0A@U?$_String_base_types@DV?$allocator@D@std@@@std@@@std@@QBE?AU?$_Wrap_alloc@V?$allocator@D@std@@@2@XZ ; std::_String_alloc<0,std::_String_base_types<char,std::allocator<char> > >::_Getal
	mov	ecx, eax
	call	??$construct@PADAAPAD@?$_Wrap_alloc@V?$allocator@D@std@@@std@@QAEXPAPADAAPAD@Z ; std::_Wrap_alloc<std::allocator<char> >::construct<char *,char * &>

; 2212 : 		this->_Myres = _Newres;

	mov	edx, DWORD PTR _this$[ebp]
	mov	eax, DWORD PTR __Newres$[ebp]
	mov	DWORD PTR [edx+20], eax

; 2213 : 		_Eos(_Oldlen);

	mov	ecx, DWORD PTR __Oldlen$[ebp]
	push	ecx
	mov	ecx, DWORD PTR _this$[ebp]
	call	?_Eos@?$basic_string@DU?$char_traits@D@std@@V?$allocator@D@2@@std@@QAEXI@Z ; std::basic_string<char,std::char_traits<char>,std::allocator<char> >::_Eos
$LN11@Copy:

; 2214 : 		}

	mov	ecx, DWORD PTR __$EHRec$[ebp+4]
	mov	DWORD PTR fs:0, ecx
	pop	ecx
	pop	edi
	pop	esi
	pop	ebx
	mov	esp, ebp
	pop	ebp
	ret	8
_TEXT	ENDS
;	COMDAT text$x
text$x	SEGMENT
__ehhandler$?_Copy@?$basic_string@DU?$char_traits@D@std@@V?$allocator@D@2@@std@@QAEXII@Z:
	mov	edx, DWORD PTR [esp+8]
	lea	eax, DWORD PTR [edx+12]
	mov	ecx, DWORD PTR [edx-52]
	xor	ecx, eax
	call	@__security_check_cookie@4
	mov	eax, OFFSET __ehfuncinfo$?_Copy@?$basic_string@DU?$char_traits@D@std@@V?$allocator@D@2@@std@@QAEXII@Z
	jmp	___CxxFrameHandler3
text$x	ENDS
?_Copy@?$basic_string@DU?$char_traits@D@std@@V?$allocator@D@2@@std@@QAEXII@Z ENDP ; std::basic_string<char,std::char_traits<char>,std::allocator<char> >::_Copy
; Function compile flags: /Odtp
; File c:\program files (x86)\microsoft visual studio 11.0\vc\include\xstring
;	COMDAT ?max_size@?$basic_string@DU?$char_traits@D@std@@V?$allocator@D@2@@std@@QBEIXZ
_TEXT	SEGMENT
_this$ = -16						; size = 4
tv75 = -12						; size = 4
__Num$ = -8						; size = 4
$T1 = -1						; size = 1
?max_size@?$basic_string@DU?$char_traits@D@std@@V?$allocator@D@2@@std@@QBEIXZ PROC ; std::basic_string<char,std::char_traits<char>,std::allocator<char> >::max_size, COMDAT
; _this$ = ecx

; 1737 : 		{	// return maximum possible length of sequence

	push	ebp
	mov	ebp, esp
	sub	esp, 16					; 00000010H
	mov	DWORD PTR _this$[ebp], ecx

; 1738 : 		size_type _Num = this->_Getal().max_size();

	lea	eax, DWORD PTR $T1[ebp]
	push	eax
	mov	ecx, DWORD PTR _this$[ebp]
	call	?_Getal@?$_String_alloc@$0A@U?$_String_base_types@DV?$allocator@D@std@@@std@@@std@@QBE?AU?$_Wrap_alloc@V?$allocator@D@std@@@2@XZ ; std::_String_alloc<0,std::_String_base_types<char,std::allocator<char> > >::_Getal
	mov	ecx, eax
	call	?max_size@?$_Wrap_alloc@V?$allocator@D@std@@@std@@QBEIXZ ; std::_Wrap_alloc<std::allocator<char> >::max_size
	mov	DWORD PTR __Num$[ebp], eax

; 1739 : 		return (_Num <= 1 ? 1 : _Num - 1);

	cmp	DWORD PTR __Num$[ebp], 1
	ja	SHORT $LN3@max_size
	mov	DWORD PTR tv75[ebp], 1
	jmp	SHORT $LN4@max_size
$LN3@max_size:
	mov	ecx, DWORD PTR __Num$[ebp]
	sub	ecx, 1
	mov	DWORD PTR tv75[ebp], ecx
$LN4@max_size:
	mov	eax, DWORD PTR tv75[ebp]

; 1740 : 		}

	mov	esp, ebp
	pop	ebp
	ret	0
?max_size@?$basic_string@DU?$char_traits@D@std@@V?$allocator@D@2@@std@@QBEIXZ ENDP ; std::basic_string<char,std::char_traits<char>,std::allocator<char> >::max_size
_TEXT	ENDS
; Function compile flags: /Odtp
; File c:\program files (x86)\microsoft visual studio 11.0\vc\include\xstring
;	COMDAT ?size@?$basic_string@DU?$char_traits@D@std@@V?$allocator@D@2@@std@@QBEIXZ
_TEXT	SEGMENT
_this$ = -4						; size = 4
?size@?$basic_string@DU?$char_traits@D@std@@V?$allocator@D@2@@std@@QBEIXZ PROC ; std::basic_string<char,std::char_traits<char>,std::allocator<char> >::size, COMDAT
; _this$ = ecx

; 1732 : 		{	// return length of sequence

	push	ebp
	mov	ebp, esp
	push	ecx
	mov	DWORD PTR _this$[ebp], ecx

; 1733 : 		return (this->_Mysize);

	mov	eax, DWORD PTR _this$[ebp]
	mov	eax, DWORD PTR [eax+16]

; 1734 : 		}

	mov	esp, ebp
	pop	ebp
	ret	0
?size@?$basic_string@DU?$char_traits@D@std@@V?$allocator@D@2@@std@@QBEIXZ ENDP ; std::basic_string<char,std::char_traits<char>,std::allocator<char> >::size
_TEXT	ENDS
; Function compile flags: /Odtp
; File c:\program files (x86)\microsoft visual studio 11.0\vc\include\xstring
;	COMDAT ?erase@?$basic_string@DU?$char_traits@D@std@@V?$allocator@D@2@@std@@QAEAAV12@II@Z
_TEXT	SEGMENT
__Newsize$1 = -12					; size = 4
__Ptr$2 = -8						; size = 4
_this$ = -4						; size = 4
__Off$ = 8						; size = 4
__Count$ = 12						; size = 4
?erase@?$basic_string@DU?$char_traits@D@std@@V?$allocator@D@2@@std@@QAEAAV12@II@Z PROC ; std::basic_string<char,std::char_traits<char>,std::allocator<char> >::erase, COMDAT
; _this$ = ecx

; 1317 : 		{	// erase elements [_Off, _Off + _Count)

	push	ebp
	mov	ebp, esp
	sub	esp, 12					; 0000000cH
	mov	DWORD PTR _this$[ebp], ecx

; 1318 : 		if (this->_Mysize < _Off)

	mov	eax, DWORD PTR _this$[ebp]
	mov	ecx, DWORD PTR [eax+16]
	cmp	ecx, DWORD PTR __Off$[ebp]
	jae	SHORT $LN4@erase

; 1319 : 			_Xran();	// _Off off end

	mov	ecx, DWORD PTR _this$[ebp]
	call	?_Xran@?$basic_string@DU?$char_traits@D@std@@V?$allocator@D@2@@std@@QBEXXZ ; std::basic_string<char,std::char_traits<char>,std::allocator<char> >::_Xran
$LN4@erase:

; 1320 : 		if (this->_Mysize - _Off <= _Count)

	mov	edx, DWORD PTR _this$[ebp]
	mov	eax, DWORD PTR [edx+16]
	sub	eax, DWORD PTR __Off$[ebp]
	cmp	eax, DWORD PTR __Count$[ebp]
	ja	SHORT $LN3@erase

; 1321 : 			_Eos(_Off);	// erase elements [_Off, ...)

	mov	ecx, DWORD PTR __Off$[ebp]
	push	ecx
	mov	ecx, DWORD PTR _this$[ebp]
	call	?_Eos@?$basic_string@DU?$char_traits@D@std@@V?$allocator@D@2@@std@@QAEXI@Z ; std::basic_string<char,std::char_traits<char>,std::allocator<char> >::_Eos
	jmp	SHORT $LN2@erase
$LN3@erase:

; 1322 : 		else if (0 < _Count)

	cmp	DWORD PTR __Count$[ebp], 0
	jbe	SHORT $LN2@erase

; 1323 : 			{	// move elements down
; 1324 : 			value_type *_Ptr = this->_Myptr() + _Off;

	mov	ecx, DWORD PTR _this$[ebp]
	call	?_Myptr@?$_String_val@U?$_Simple_types@D@std@@@std@@QAEPADXZ ; std::_String_val<std::_Simple_types<char> >::_Myptr
	add	eax, DWORD PTR __Off$[ebp]
	mov	DWORD PTR __Ptr$2[ebp], eax

; 1325 : 			size_type _Newsize = this->_Mysize - _Count;

	mov	edx, DWORD PTR _this$[ebp]
	mov	eax, DWORD PTR [edx+16]
	sub	eax, DWORD PTR __Count$[ebp]
	mov	DWORD PTR __Newsize$1[ebp], eax

; 1326 : 			_Traits::move(_Ptr, _Ptr + _Count, _Newsize - _Off);

	mov	ecx, DWORD PTR __Newsize$1[ebp]
	sub	ecx, DWORD PTR __Off$[ebp]
	push	ecx
	mov	edx, DWORD PTR __Ptr$2[ebp]
	add	edx, DWORD PTR __Count$[ebp]
	push	edx
	mov	eax, DWORD PTR __Ptr$2[ebp]
	push	eax
	call	?move@?$char_traits@D@std@@SAPADPADPBDI@Z ; std::char_traits<char>::move
	add	esp, 12					; 0000000cH

; 1327 : 			_Eos(_Newsize);

	mov	ecx, DWORD PTR __Newsize$1[ebp]
	push	ecx
	mov	ecx, DWORD PTR _this$[ebp]
	call	?_Eos@?$basic_string@DU?$char_traits@D@std@@V?$allocator@D@2@@std@@QAEXI@Z ; std::basic_string<char,std::char_traits<char>,std::allocator<char> >::_Eos
$LN2@erase:

; 1328 : 			}
; 1329 : 		return (*this);

	mov	eax, DWORD PTR _this$[ebp]
$LN6@erase:

; 1330 : 		}

	mov	esp, ebp
	pop	ebp
	ret	8
?erase@?$basic_string@DU?$char_traits@D@std@@V?$allocator@D@2@@std@@QAEAAV12@II@Z ENDP ; std::basic_string<char,std::char_traits<char>,std::allocator<char> >::erase
_TEXT	ENDS
; Function compile flags: /Odtp
; File c:\program files (x86)\microsoft visual studio 11.0\vc\include\xstring
;	COMDAT ?erase@?$basic_string@DU?$char_traits@D@std@@V?$allocator@D@2@@std@@QAEAAV12@I@Z
_TEXT	SEGMENT
_this$ = -4						; size = 4
__Off$ = 8						; size = 4
?erase@?$basic_string@DU?$char_traits@D@std@@V?$allocator@D@2@@std@@QAEAAV12@I@Z PROC ; std::basic_string<char,std::char_traits<char>,std::allocator<char> >::erase, COMDAT
; _this$ = ecx

; 1309 : 		{	// erase elements [_Off, ...)

	push	ebp
	mov	ebp, esp
	push	ecx
	mov	DWORD PTR _this$[ebp], ecx

; 1310 : 		if (this->_Mysize < _Off)

	mov	eax, DWORD PTR _this$[ebp]
	mov	ecx, DWORD PTR [eax+16]
	cmp	ecx, DWORD PTR __Off$[ebp]
	jae	SHORT $LN1@erase

; 1311 : 			_Xran();	// _Off off end

	mov	ecx, DWORD PTR _this$[ebp]
	call	?_Xran@?$basic_string@DU?$char_traits@D@std@@V?$allocator@D@2@@std@@QBEXXZ ; std::basic_string<char,std::char_traits<char>,std::allocator<char> >::_Xran
$LN1@erase:

; 1312 : 		_Eos(_Off);

	mov	edx, DWORD PTR __Off$[ebp]
	push	edx
	mov	ecx, DWORD PTR _this$[ebp]
	call	?_Eos@?$basic_string@DU?$char_traits@D@std@@V?$allocator@D@2@@std@@QAEXI@Z ; std::basic_string<char,std::char_traits<char>,std::allocator<char> >::_Eos

; 1313 : 		return (*this);

	mov	eax, DWORD PTR _this$[ebp]
$LN3@erase:

; 1314 : 		}

	mov	esp, ebp
	pop	ebp
	ret	4
?erase@?$basic_string@DU?$char_traits@D@std@@V?$allocator@D@2@@std@@QAEAAV12@I@Z ENDP ; std::basic_string<char,std::char_traits<char>,std::allocator<char> >::erase
_TEXT	ENDS
; Function compile flags: /Odtp
; File c:\program files (x86)\microsoft visual studio 11.0\vc\include\xstring
;	COMDAT ?assign@?$basic_string@DU?$char_traits@D@std@@V?$allocator@D@2@@std@@QAEAAV12@PBD@Z
_TEXT	SEGMENT
_this$ = -4						; size = 4
__Ptr$ = 8						; size = 4
?assign@?$basic_string@DU?$char_traits@D@std@@V?$allocator@D@2@@std@@QAEAAV12@PBD@Z PROC ; std::basic_string<char,std::char_traits<char>,std::allocator<char> >::assign, COMDAT
; _this$ = ecx

; 1142 : 		{	// assign [_Ptr, <null>)

	push	ebp
	mov	ebp, esp
	push	ecx
	mov	DWORD PTR _this$[ebp], ecx

; 1143 : 		_DEBUG_POINTER(_Ptr);
; 1144 : 		return (assign(_Ptr, _Traits::length(_Ptr)));

	mov	eax, DWORD PTR __Ptr$[ebp]
	push	eax
	call	?length@?$char_traits@D@std@@SAIPBD@Z	; std::char_traits<char>::length
	add	esp, 4
	push	eax
	mov	ecx, DWORD PTR __Ptr$[ebp]
	push	ecx
	mov	ecx, DWORD PTR _this$[ebp]
	call	?assign@?$basic_string@DU?$char_traits@D@std@@V?$allocator@D@2@@std@@QAEAAV12@PBDI@Z ; std::basic_string<char,std::char_traits<char>,std::allocator<char> >::assign

; 1145 : 		}

	mov	esp, ebp
	pop	ebp
	ret	4
?assign@?$basic_string@DU?$char_traits@D@std@@V?$allocator@D@2@@std@@QAEAAV12@PBD@Z ENDP ; std::basic_string<char,std::char_traits<char>,std::allocator<char> >::assign
_TEXT	ENDS
; Function compile flags: /Odtp
; File c:\program files (x86)\microsoft visual studio 11.0\vc\include\xstring
;	COMDAT ?assign@?$basic_string@DU?$char_traits@D@std@@V?$allocator@D@2@@std@@QAEAAV12@PBDI@Z
_TEXT	SEGMENT
_this$ = -4						; size = 4
__Ptr$ = 8						; size = 4
__Count$ = 12						; size = 4
?assign@?$basic_string@DU?$char_traits@D@std@@V?$allocator@D@2@@std@@QAEAAV12@PBDI@Z PROC ; std::basic_string<char,std::char_traits<char>,std::allocator<char> >::assign, COMDAT
; _this$ = ecx

; 1123 : 		{	// assign [_Ptr, _Ptr + _Count)

	push	ebp
	mov	ebp, esp
	push	ecx
	mov	DWORD PTR _this$[ebp], ecx

; 1124 :  #if _ITERATOR_DEBUG_LEVEL == 2
; 1125 : 		if (_Count != 0)
; 1126 : 			_DEBUG_POINTER(_Ptr);
; 1127 :  #endif /* _ITERATOR_DEBUG_LEVEL == 2 */
; 1128 : 
; 1129 : 		if (_Inside(_Ptr))

	mov	eax, DWORD PTR __Ptr$[ebp]
	push	eax
	mov	ecx, DWORD PTR _this$[ebp]
	call	?_Inside@?$basic_string@DU?$char_traits@D@std@@V?$allocator@D@2@@std@@QAE_NPBD@Z ; std::basic_string<char,std::char_traits<char>,std::allocator<char> >::_Inside
	movzx	ecx, al
	test	ecx, ecx
	je	SHORT $LN2@assign

; 1130 : 			return (assign(*this,
; 1131 : 				_Ptr - this->_Myptr(), _Count));	// substring

	mov	edx, DWORD PTR __Count$[ebp]
	push	edx
	mov	ecx, DWORD PTR _this$[ebp]
	call	?_Myptr@?$_String_val@U?$_Simple_types@D@std@@@std@@QAEPADXZ ; std::_String_val<std::_Simple_types<char> >::_Myptr
	mov	ecx, DWORD PTR __Ptr$[ebp]
	sub	ecx, eax
	push	ecx
	mov	edx, DWORD PTR _this$[ebp]
	push	edx
	mov	ecx, DWORD PTR _this$[ebp]
	call	?assign@?$basic_string@DU?$char_traits@D@std@@V?$allocator@D@2@@std@@QAEAAV12@ABV12@II@Z ; std::basic_string<char,std::char_traits<char>,std::allocator<char> >::assign
	jmp	SHORT $LN3@assign
$LN2@assign:

; 1132 : 
; 1133 : 		if (_Grow(_Count))

	push	0
	mov	eax, DWORD PTR __Count$[ebp]
	push	eax
	mov	ecx, DWORD PTR _this$[ebp]
	call	?_Grow@?$basic_string@DU?$char_traits@D@std@@V?$allocator@D@2@@std@@QAE_NI_N@Z ; std::basic_string<char,std::char_traits<char>,std::allocator<char> >::_Grow
	movzx	ecx, al
	test	ecx, ecx
	je	SHORT $LN1@assign

; 1134 : 			{	// make room and assign new stuff
; 1135 : 			_Traits::copy(this->_Myptr(), _Ptr, _Count);

	mov	edx, DWORD PTR __Count$[ebp]
	push	edx
	mov	eax, DWORD PTR __Ptr$[ebp]
	push	eax
	mov	ecx, DWORD PTR _this$[ebp]
	call	?_Myptr@?$_String_val@U?$_Simple_types@D@std@@@std@@QAEPADXZ ; std::_String_val<std::_Simple_types<char> >::_Myptr
	push	eax
	call	?copy@?$char_traits@D@std@@SAPADPADPBDI@Z ; std::char_traits<char>::copy
	add	esp, 12					; 0000000cH

; 1136 : 			_Eos(_Count);

	mov	ecx, DWORD PTR __Count$[ebp]
	push	ecx
	mov	ecx, DWORD PTR _this$[ebp]
	call	?_Eos@?$basic_string@DU?$char_traits@D@std@@V?$allocator@D@2@@std@@QAEXI@Z ; std::basic_string<char,std::char_traits<char>,std::allocator<char> >::_Eos
$LN1@assign:

; 1137 : 			}
; 1138 : 		return (*this);

	mov	eax, DWORD PTR _this$[ebp]
$LN3@assign:

; 1139 : 		}

	mov	esp, ebp
	pop	ebp
	ret	8
?assign@?$basic_string@DU?$char_traits@D@std@@V?$allocator@D@2@@std@@QAEAAV12@PBDI@Z ENDP ; std::basic_string<char,std::char_traits<char>,std::allocator<char> >::assign
_TEXT	ENDS
; Function compile flags: /Odtp
; File c:\program files (x86)\microsoft visual studio 11.0\vc\include\xstring
;	COMDAT ?assign@?$basic_string@DU?$char_traits@D@std@@V?$allocator@D@2@@std@@QAEAAV12@ABV12@II@Z
_TEXT	SEGMENT
__Num$ = -8						; size = 4
_this$ = -4						; size = 4
__Right$ = 8						; size = 4
__Roff$ = 12						; size = 4
__Count$ = 16						; size = 4
?assign@?$basic_string@DU?$char_traits@D@std@@V?$allocator@D@2@@std@@QAEAAV12@ABV12@II@Z PROC ; std::basic_string<char,std::char_traits<char>,std::allocator<char> >::assign, COMDAT
; _this$ = ecx

; 1104 : 		{	// assign _Right [_Roff, _Roff + _Count)

	push	ebp
	mov	ebp, esp
	sub	esp, 8
	mov	DWORD PTR _this$[ebp], ecx

; 1105 : 		if (_Right.size() < _Roff)

	mov	ecx, DWORD PTR __Right$[ebp]
	call	?size@?$basic_string@DU?$char_traits@D@std@@V?$allocator@D@2@@std@@QBEIXZ ; std::basic_string<char,std::char_traits<char>,std::allocator<char> >::size
	cmp	eax, DWORD PTR __Roff$[ebp]
	jae	SHORT $LN5@assign

; 1106 : 			_Xran();	// _Roff off end

	mov	ecx, DWORD PTR _this$[ebp]
	call	?_Xran@?$basic_string@DU?$char_traits@D@std@@V?$allocator@D@2@@std@@QBEXXZ ; std::basic_string<char,std::char_traits<char>,std::allocator<char> >::_Xran
$LN5@assign:

; 1107 : 		size_type _Num = _Right.size() - _Roff;

	mov	ecx, DWORD PTR __Right$[ebp]
	call	?size@?$basic_string@DU?$char_traits@D@std@@V?$allocator@D@2@@std@@QBEIXZ ; std::basic_string<char,std::char_traits<char>,std::allocator<char> >::size
	sub	eax, DWORD PTR __Roff$[ebp]
	mov	DWORD PTR __Num$[ebp], eax

; 1108 : 		if (_Count < _Num)

	mov	eax, DWORD PTR __Count$[ebp]
	cmp	eax, DWORD PTR __Num$[ebp]
	jae	SHORT $LN4@assign

; 1109 : 			_Num = _Count;	// trim _Num to size

	mov	ecx, DWORD PTR __Count$[ebp]
	mov	DWORD PTR __Num$[ebp], ecx
$LN4@assign:

; 1110 : 
; 1111 : 		if (this == &_Right)

	mov	edx, DWORD PTR _this$[ebp]
	cmp	edx, DWORD PTR __Right$[ebp]
	jne	SHORT $LN3@assign

; 1112 : 			erase((size_type)(_Roff + _Num)), erase(0, _Roff);	// substring

	mov	eax, DWORD PTR __Roff$[ebp]
	add	eax, DWORD PTR __Num$[ebp]
	push	eax
	mov	ecx, DWORD PTR _this$[ebp]
	call	?erase@?$basic_string@DU?$char_traits@D@std@@V?$allocator@D@2@@std@@QAEAAV12@I@Z ; std::basic_string<char,std::char_traits<char>,std::allocator<char> >::erase
	mov	ecx, DWORD PTR __Roff$[ebp]
	push	ecx
	push	0
	mov	ecx, DWORD PTR _this$[ebp]
	call	?erase@?$basic_string@DU?$char_traits@D@std@@V?$allocator@D@2@@std@@QAEAAV12@II@Z ; std::basic_string<char,std::char_traits<char>,std::allocator<char> >::erase
	jmp	SHORT $LN2@assign
$LN3@assign:

; 1113 : 		else if (_Grow(_Num))

	push	0
	mov	edx, DWORD PTR __Num$[ebp]
	push	edx
	mov	ecx, DWORD PTR _this$[ebp]
	call	?_Grow@?$basic_string@DU?$char_traits@D@std@@V?$allocator@D@2@@std@@QAE_NI_N@Z ; std::basic_string<char,std::char_traits<char>,std::allocator<char> >::_Grow
	movzx	eax, al
	test	eax, eax
	je	SHORT $LN2@assign

; 1114 : 			{	// make room and assign new stuff
; 1115 : 			_Traits::copy(this->_Myptr(),
; 1116 : 				_Right._Myptr() + _Roff, _Num);

	mov	ecx, DWORD PTR __Num$[ebp]
	push	ecx
	mov	ecx, DWORD PTR __Right$[ebp]
	call	?_Myptr@?$_String_val@U?$_Simple_types@D@std@@@std@@QBEPBDXZ ; std::_String_val<std::_Simple_types<char> >::_Myptr
	add	eax, DWORD PTR __Roff$[ebp]
	push	eax
	mov	ecx, DWORD PTR _this$[ebp]
	call	?_Myptr@?$_String_val@U?$_Simple_types@D@std@@@std@@QAEPADXZ ; std::_String_val<std::_Simple_types<char> >::_Myptr
	push	eax
	call	?copy@?$char_traits@D@std@@SAPADPADPBDI@Z ; std::char_traits<char>::copy
	add	esp, 12					; 0000000cH

; 1117 : 			_Eos(_Num);

	mov	edx, DWORD PTR __Num$[ebp]
	push	edx
	mov	ecx, DWORD PTR _this$[ebp]
	call	?_Eos@?$basic_string@DU?$char_traits@D@std@@V?$allocator@D@2@@std@@QAEXI@Z ; std::basic_string<char,std::char_traits<char>,std::allocator<char> >::_Eos
$LN2@assign:

; 1118 : 			}
; 1119 : 		return (*this);

	mov	eax, DWORD PTR _this$[ebp]
$LN7@assign:

; 1120 : 		}

	mov	esp, ebp
	pop	ebp
	ret	12					; 0000000cH
?assign@?$basic_string@DU?$char_traits@D@std@@V?$allocator@D@2@@std@@QAEAAV12@ABV12@II@Z ENDP ; std::basic_string<char,std::char_traits<char>,std::allocator<char> >::assign
_TEXT	ENDS
; Function compile flags: /Odtp
; File c:\program files (x86)\microsoft visual studio 11.0\vc\include\xstring
;	COMDAT ??0?$basic_string@DU?$char_traits@D@std@@V?$allocator@D@2@@std@@QAE@PBD@Z
_TEXT	SEGMENT
_this$ = -8						; size = 4
$T1 = -1						; size = 1
__Ptr$ = 8						; size = 4
??0?$basic_string@DU?$char_traits@D@std@@V?$allocator@D@2@@std@@QAE@PBD@Z PROC ; std::basic_string<char,std::char_traits<char>,std::allocator<char> >::basic_string<char,std::char_traits<char>,std::allocator<char> >, COMDAT
; _this$ = ecx

; 791  : 		{	// construct from [_Ptr, <null>)

	push	ebp
	mov	ebp, esp
	sub	esp, 8
	mov	DWORD PTR _this$[ebp], ecx
	lea	ecx, DWORD PTR $T1[ebp]
	call	??0?$allocator@D@std@@QAE@XZ		; std::allocator<char>::allocator<char>
	push	eax
	mov	ecx, DWORD PTR _this$[ebp]
	call	??0?$_String_alloc@$0A@U?$_String_base_types@DV?$allocator@D@std@@@std@@@std@@QAE@ABV?$allocator@D@1@@Z ; std::_String_alloc<0,std::_String_base_types<char,std::allocator<char> > >::_String_alloc<0,std::_String_base_types<char,std::allocator<char> > >

; 792  : 		_Tidy();

	push	0
	push	0
	mov	ecx, DWORD PTR _this$[ebp]
	call	?_Tidy@?$basic_string@DU?$char_traits@D@std@@V?$allocator@D@2@@std@@QAEX_NI@Z ; std::basic_string<char,std::char_traits<char>,std::allocator<char> >::_Tidy

; 793  : 		assign(_Ptr);

	mov	eax, DWORD PTR __Ptr$[ebp]
	push	eax
	mov	ecx, DWORD PTR _this$[ebp]
	call	?assign@?$basic_string@DU?$char_traits@D@std@@V?$allocator@D@2@@std@@QAEAAV12@PBD@Z ; std::basic_string<char,std::char_traits<char>,std::allocator<char> >::assign

; 794  : 		}

	mov	eax, DWORD PTR _this$[ebp]
	mov	esp, ebp
	pop	ebp
	ret	4
??0?$basic_string@DU?$char_traits@D@std@@V?$allocator@D@2@@std@@QAE@PBD@Z ENDP ; std::basic_string<char,std::char_traits<char>,std::allocator<char> >::basic_string<char,std::char_traits<char>,std::allocator<char> >
_TEXT	ENDS
; Function compile flags: /Odtp
; File c:\program files (x86)\microsoft visual studio 11.0\vc\include\xstring
;	COMDAT ?_Getal@?$_String_alloc@$0A@U?$_String_base_types@DV?$allocator@D@std@@@std@@@std@@QBE?AU?$_Wrap_alloc@V?$allocator@D@std@@@2@XZ
_TEXT	SEGMENT
_this$ = -4						; size = 4
___$ReturnUdt$ = 8					; size = 4
?_Getal@?$_String_alloc@$0A@U?$_String_base_types@DV?$allocator@D@std@@@std@@@std@@QBE?AU?$_Wrap_alloc@V?$allocator@D@std@@@2@XZ PROC ; std::_String_alloc<0,std::_String_base_types<char,std::allocator<char> > >::_Getal, COMDAT
; _this$ = ecx

; 688  : 		{	// get reference to allocator

	push	ebp
	mov	ebp, esp
	push	ecx
	mov	DWORD PTR _this$[ebp], ecx

; 689  : 		return (_Alty());

	mov	ecx, DWORD PTR ___$ReturnUdt$[ebp]
	call	??0?$_Wrap_alloc@V?$allocator@D@std@@@std@@QAE@XZ ; std::_Wrap_alloc<std::allocator<char> >::_Wrap_alloc<std::allocator<char> >
	mov	eax, DWORD PTR ___$ReturnUdt$[ebp]

; 690  : 		}

	mov	esp, ebp
	pop	ebp
	ret	4
?_Getal@?$_String_alloc@$0A@U?$_String_base_types@DV?$allocator@D@std@@@std@@@std@@QBE?AU?$_Wrap_alloc@V?$allocator@D@std@@@2@XZ ENDP ; std::_String_alloc<0,std::_String_base_types<char,std::allocator<char> > >::_Getal
_TEXT	ENDS
; Function compile flags: /Odtp
; File c:\program files (x86)\microsoft visual studio 11.0\vc\include\xstring
;	COMDAT ??0?$_String_alloc@$0A@U?$_String_base_types@DV?$allocator@D@std@@@std@@@std@@QAE@ABV?$allocator@D@1@@Z
_TEXT	SEGMENT
_this$ = -4						; size = 4
___formal$ = 8						; size = 4
??0?$_String_alloc@$0A@U?$_String_base_types@DV?$allocator@D@std@@@std@@@std@@QAE@ABV?$allocator@D@1@@Z PROC ; std::_String_alloc<0,std::_String_base_types<char,std::allocator<char> > >::_String_alloc<0,std::_String_base_types<char,std::allocator<char> > >, COMDAT
; _this$ = ecx

; 635  : 	_String_alloc(const _Alloc& = _Alloc())

	push	ebp
	mov	ebp, esp
	push	ecx
	mov	DWORD PTR _this$[ebp], ecx
	mov	ecx, DWORD PTR _this$[ebp]
	call	??0?$_String_val@U?$_Simple_types@D@std@@@std@@QAE@XZ ; std::_String_val<std::_Simple_types<char> >::_String_val<std::_Simple_types<char> >

; 636  : 		{	// construct allocator from _Al
; 637  : 		}

	mov	eax, DWORD PTR _this$[ebp]
	mov	esp, ebp
	pop	ebp
	ret	4
??0?$_String_alloc@$0A@U?$_String_base_types@DV?$allocator@D@std@@@std@@@std@@QAE@ABV?$allocator@D@1@@Z ENDP ; std::_String_alloc<0,std::_String_base_types<char,std::allocator<char> > >::_String_alloc<0,std::_String_base_types<char,std::allocator<char> > >
_TEXT	ENDS
; Function compile flags: /Odtp
; File c:\program files (x86)\microsoft visual studio 11.0\vc\include\xstring
;	COMDAT ?_Myptr@?$_String_val@U?$_Simple_types@D@std@@@std@@QBEPBDXZ
_TEXT	SEGMENT
tv72 = -8						; size = 4
_this$ = -4						; size = 4
?_Myptr@?$_String_val@U?$_Simple_types@D@std@@@std@@QBEPBDXZ PROC ; std::_String_val<std::_Simple_types<char> >::_Myptr, COMDAT
; _this$ = ecx

; 521  : 		{	// determine current pointer to buffer for nonmutable string

	push	ebp
	mov	ebp, esp
	sub	esp, 8
	mov	DWORD PTR _this$[ebp], ecx

; 522  : 		return (this->_BUF_SIZE <= this->_Myres
; 523  : 			? _STD addressof(*this->_Bx._Ptr)
; 524  : 			: this->_Bx._Buf);

	mov	eax, DWORD PTR _this$[ebp]
	cmp	DWORD PTR [eax+20], 16			; 00000010H
	jb	SHORT $LN3@Myptr
	mov	ecx, DWORD PTR _this$[ebp]
	mov	edx, DWORD PTR [ecx]
	push	edx
	call	??$addressof@D@std@@YAPADAAD@Z		; std::addressof<char>
	add	esp, 4
	mov	DWORD PTR tv72[ebp], eax
	jmp	SHORT $LN4@Myptr
$LN3@Myptr:
	mov	eax, DWORD PTR _this$[ebp]
	mov	DWORD PTR tv72[ebp], eax
$LN4@Myptr:
	mov	eax, DWORD PTR tv72[ebp]

; 525  : 		}

	mov	esp, ebp
	pop	ebp
	ret	0
?_Myptr@?$_String_val@U?$_Simple_types@D@std@@@std@@QBEPBDXZ ENDP ; std::_String_val<std::_Simple_types<char> >::_Myptr
_TEXT	ENDS
; Function compile flags: /Odtp
; File c:\program files (x86)\microsoft visual studio 11.0\vc\include\xstring
;	COMDAT ?_Myptr@?$_String_val@U?$_Simple_types@D@std@@@std@@QAEPADXZ
_TEXT	SEGMENT
tv72 = -8						; size = 4
_this$ = -4						; size = 4
?_Myptr@?$_String_val@U?$_Simple_types@D@std@@@std@@QAEPADXZ PROC ; std::_String_val<std::_Simple_types<char> >::_Myptr, COMDAT
; _this$ = ecx

; 514  : 		{	// determine current pointer to buffer for mutable string

	push	ebp
	mov	ebp, esp
	sub	esp, 8
	mov	DWORD PTR _this$[ebp], ecx

; 515  : 		return (this->_BUF_SIZE <= this->_Myres
; 516  : 			? _STD addressof(*this->_Bx._Ptr)
; 517  : 			: this->_Bx._Buf);

	mov	eax, DWORD PTR _this$[ebp]
	cmp	DWORD PTR [eax+20], 16			; 00000010H
	jb	SHORT $LN3@Myptr
	mov	ecx, DWORD PTR _this$[ebp]
	mov	edx, DWORD PTR [ecx]
	push	edx
	call	??$addressof@D@std@@YAPADAAD@Z		; std::addressof<char>
	add	esp, 4
	mov	DWORD PTR tv72[ebp], eax
	jmp	SHORT $LN4@Myptr
$LN3@Myptr:
	mov	eax, DWORD PTR _this$[ebp]
	mov	DWORD PTR tv72[ebp], eax
$LN4@Myptr:
	mov	eax, DWORD PTR tv72[ebp]

; 518  : 		}

	mov	esp, ebp
	pop	ebp
	ret	0
?_Myptr@?$_String_val@U?$_Simple_types@D@std@@@std@@QAEPADXZ ENDP ; std::_String_val<std::_Simple_types<char> >::_Myptr
_TEXT	ENDS
; Function compile flags: /Odtp
; File c:\program files (x86)\microsoft visual studio 11.0\vc\include\xstring
;	COMDAT ??0?$_String_val@U?$_Simple_types@D@std@@@std@@QAE@XZ
_TEXT	SEGMENT
_this$ = -4						; size = 4
??0?$_String_val@U?$_Simple_types@D@std@@@std@@QAE@XZ PROC ; std::_String_val<std::_Simple_types<char> >::_String_val<std::_Simple_types<char> >, COMDAT
; _this$ = ecx

; 496  : 	_String_val()

	push	ebp
	mov	ebp, esp
	push	ecx
	mov	DWORD PTR _this$[ebp], ecx

; 497  : 		{	// initialize values
; 498  : 		_Mysize = 0;

	mov	eax, DWORD PTR _this$[ebp]
	mov	DWORD PTR [eax+16], 0

; 499  : 		_Myres = 0;

	mov	ecx, DWORD PTR _this$[ebp]
	mov	DWORD PTR [ecx+20], 0

; 500  : 		}

	mov	eax, DWORD PTR _this$[ebp]
	mov	esp, ebp
	pop	ebp
	ret	0
??0?$_String_val@U?$_Simple_types@D@std@@@std@@QAE@XZ ENDP ; std::_String_val<std::_Simple_types<char> >::_String_val<std::_Simple_types<char> >
_TEXT	ENDS
; Function compile flags: /Odtp
; File c:\program files (x86)\microsoft visual studio 11.0\vc\include\xmemory0
;	COMDAT ?max_size@?$_Wrap_alloc@V?$allocator@D@std@@@std@@QBEIXZ
_TEXT	SEGMENT
_this$ = -4						; size = 4
?max_size@?$_Wrap_alloc@V?$allocator@D@std@@@std@@QBEIXZ PROC ; std::_Wrap_alloc<std::allocator<char> >::max_size, COMDAT
; _this$ = ecx

; 913  : 		{	// get maximum size

	push	ebp
	mov	ebp, esp
	push	ecx
	mov	DWORD PTR _this$[ebp], ecx

; 914  : 		return (_Mytraits::max_size(*this));

	mov	eax, DWORD PTR _this$[ebp]
	push	eax
	call	?max_size@?$allocator_traits@V?$allocator@D@std@@@std@@SAIABV?$allocator@D@2@@Z ; std::allocator_traits<std::allocator<char> >::max_size
	add	esp, 4

; 915  : 		}

	mov	esp, ebp
	pop	ebp
	ret	0
?max_size@?$_Wrap_alloc@V?$allocator@D@std@@@std@@QBEIXZ ENDP ; std::_Wrap_alloc<std::allocator<char> >::max_size
_TEXT	ENDS
; Function compile flags: /Odtp
; File c:\program files (x86)\microsoft visual studio 11.0\vc\include\xmemory0
;	COMDAT ?deallocate@?$_Wrap_alloc@V?$allocator@D@std@@@std@@QAEXPADI@Z
_TEXT	SEGMENT
_this$ = -4						; size = 4
__Ptr$ = 8						; size = 4
__Count$ = 12						; size = 4
?deallocate@?$_Wrap_alloc@V?$allocator@D@std@@@std@@QAEXPADI@Z PROC ; std::_Wrap_alloc<std::allocator<char> >::deallocate, COMDAT
; _this$ = ecx

; 886  : 		{	// deallocate object at _Ptr, ignore size

	push	ebp
	mov	ebp, esp
	push	ecx
	mov	DWORD PTR _this$[ebp], ecx

; 887  : 		_Mybase::deallocate(_Ptr, _Count);

	mov	eax, DWORD PTR __Count$[ebp]
	push	eax
	mov	ecx, DWORD PTR __Ptr$[ebp]
	push	ecx
	mov	ecx, DWORD PTR _this$[ebp]
	call	?deallocate@?$allocator@D@std@@QAEXPADI@Z ; std::allocator<char>::deallocate

; 888  : 		}

	mov	esp, ebp
	pop	ebp
	ret	8
?deallocate@?$_Wrap_alloc@V?$allocator@D@std@@@std@@QAEXPADI@Z ENDP ; std::_Wrap_alloc<std::allocator<char> >::deallocate
_TEXT	ENDS
; Function compile flags: /Odtp
; File c:\program files (x86)\microsoft visual studio 11.0\vc\include\xmemory0
;	COMDAT ?allocate@?$_Wrap_alloc@V?$allocator@D@std@@@std@@QAEPADI@Z
_TEXT	SEGMENT
_this$ = -4						; size = 4
__Count$ = 8						; size = 4
?allocate@?$_Wrap_alloc@V?$allocator@D@std@@@std@@QAEPADI@Z PROC ; std::_Wrap_alloc<std::allocator<char> >::allocate, COMDAT
; _this$ = ecx

; 875  : 		{	// allocate array of _Count elements

	push	ebp
	mov	ebp, esp
	push	ecx
	mov	DWORD PTR _this$[ebp], ecx

; 876  : 		return (_Mybase::allocate(_Count));

	mov	eax, DWORD PTR __Count$[ebp]
	push	eax
	mov	ecx, DWORD PTR _this$[ebp]
	call	?allocate@?$allocator@D@std@@QAEPADI@Z	; std::allocator<char>::allocate

; 877  : 		}

	mov	esp, ebp
	pop	ebp
	ret	4
?allocate@?$_Wrap_alloc@V?$allocator@D@std@@@std@@QAEPADI@Z ENDP ; std::_Wrap_alloc<std::allocator<char> >::allocate
_TEXT	ENDS
; Function compile flags: /Odtp
; File c:\program files (x86)\microsoft visual studio 11.0\vc\include\xmemory0
;	COMDAT ??0?$_Wrap_alloc@V?$allocator@D@std@@@std@@QAE@XZ
_TEXT	SEGMENT
_this$ = -4						; size = 4
??0?$_Wrap_alloc@V?$allocator@D@std@@@std@@QAE@XZ PROC	; std::_Wrap_alloc<std::allocator<char> >::_Wrap_alloc<std::allocator<char> >, COMDAT
; _this$ = ecx

; 830  : 		{	// construct default allocator (do nothing)

	push	ebp
	mov	ebp, esp
	push	ecx
	mov	DWORD PTR _this$[ebp], ecx
	mov	ecx, DWORD PTR _this$[ebp]
	call	??0?$allocator@D@std@@QAE@XZ		; std::allocator<char>::allocator<char>

; 831  : 		}

	mov	eax, DWORD PTR _this$[ebp]
	mov	esp, ebp
	pop	ebp
	ret	0
??0?$_Wrap_alloc@V?$allocator@D@std@@@std@@QAE@XZ ENDP	; std::_Wrap_alloc<std::allocator<char> >::_Wrap_alloc<std::allocator<char> >
_TEXT	ENDS
; Function compile flags: /Odtp
; File c:\program files (x86)\microsoft visual studio 11.0\vc\include\xmemory0
;	COMDAT ?max_size@?$allocator_traits@V?$allocator@D@std@@@std@@SAIABV?$allocator@D@2@@Z
_TEXT	SEGMENT
__Al$ = 8						; size = 4
?max_size@?$allocator_traits@V?$allocator@D@std@@@std@@SAIABV?$allocator@D@2@@Z PROC ; std::allocator_traits<std::allocator<char> >::max_size, COMDAT

; 761  : 		{	// get maximum size

	push	ebp
	mov	ebp, esp

; 762  : 		return (_Al.max_size());

	mov	ecx, DWORD PTR __Al$[ebp]
	call	?max_size@?$allocator@D@std@@QBEIXZ	; std::allocator<char>::max_size

; 763  : 		}

	pop	ebp
	ret	0
?max_size@?$allocator_traits@V?$allocator@D@std@@@std@@SAIABV?$allocator@D@2@@Z ENDP ; std::allocator_traits<std::allocator<char> >::max_size
_TEXT	ENDS
; Function compile flags: /Odtp
; File c:\program files (x86)\microsoft visual studio 11.0\vc\include\xmemory0
;	COMDAT ?max_size@?$allocator@D@std@@QBEIXZ
_TEXT	SEGMENT
_this$ = -4						; size = 4
?max_size@?$allocator@D@std@@QBEIXZ PROC		; std::allocator<char>::max_size, COMDAT
; _this$ = ecx

; 627  : 		{	// estimate maximum array size

	push	ebp
	mov	ebp, esp
	push	ecx
	mov	DWORD PTR _this$[ebp], ecx

; 628  : 		return ((size_t)(-1) / sizeof (_Ty));

	or	eax, -1

; 629  : 		}

	mov	esp, ebp
	pop	ebp
	ret	0
?max_size@?$allocator@D@std@@QBEIXZ ENDP		; std::allocator<char>::max_size
_TEXT	ENDS
; Function compile flags: /Odtp
; File c:\program files (x86)\microsoft visual studio 11.0\vc\include\xmemory0
;	COMDAT ?allocate@?$allocator@D@std@@QAEPADI@Z
_TEXT	SEGMENT
_this$ = -4						; size = 4
__Count$ = 8						; size = 4
?allocate@?$allocator@D@std@@QAEPADI@Z PROC		; std::allocator<char>::allocate, COMDAT
; _this$ = ecx

; 590  : 		{	// allocate array of _Count elements

	push	ebp
	mov	ebp, esp
	push	ecx
	mov	DWORD PTR _this$[ebp], ecx

; 591  : 		return (_Allocate(_Count, (pointer)0));

	push	0
	mov	eax, DWORD PTR __Count$[ebp]
	push	eax
	call	??$_Allocate@D@std@@YAPADIPAD@Z		; std::_Allocate<char>
	add	esp, 8

; 592  : 		}

	mov	esp, ebp
	pop	ebp
	ret	4
?allocate@?$allocator@D@std@@QAEPADI@Z ENDP		; std::allocator<char>::allocate
_TEXT	ENDS
; Function compile flags: /Odtp
; File c:\program files (x86)\microsoft visual studio 11.0\vc\include\xmemory0
;	COMDAT ?deallocate@?$allocator@D@std@@QAEXPADI@Z
_TEXT	SEGMENT
_this$ = -4						; size = 4
__Ptr$ = 8						; size = 4
___formal$ = 12						; size = 4
?deallocate@?$allocator@D@std@@QAEXPADI@Z PROC		; std::allocator<char>::deallocate, COMDAT
; _this$ = ecx

; 585  : 		{	// deallocate object at _Ptr, ignore size

	push	ebp
	mov	ebp, esp
	push	ecx
	mov	DWORD PTR _this$[ebp], ecx

; 586  : 		::operator delete(_Ptr);

	mov	eax, DWORD PTR __Ptr$[ebp]
	push	eax
	call	??3@YAXPAX@Z				; operator delete
	add	esp, 4

; 587  : 		}

	mov	esp, ebp
	pop	ebp
	ret	8
?deallocate@?$allocator@D@std@@QAEXPADI@Z ENDP		; std::allocator<char>::deallocate
_TEXT	ENDS
; Function compile flags: /Odtp
; File c:\program files (x86)\microsoft visual studio 11.0\vc\include\xmemory0
;	COMDAT ??0?$allocator@D@std@@QAE@XZ
_TEXT	SEGMENT
_this$ = -4						; size = 4
??0?$allocator@D@std@@QAE@XZ PROC			; std::allocator<char>::allocator<char>, COMDAT
; _this$ = ecx

; 565  : 	allocator() _THROW0()

	push	ebp
	mov	ebp, esp
	push	ecx
	mov	DWORD PTR _this$[ebp], ecx

; 566  : 		{	// construct default allocator (do nothing)
; 567  : 		}

	mov	eax, DWORD PTR _this$[ebp]
	mov	esp, ebp
	pop	ebp
	ret	0
??0?$allocator@D@std@@QAE@XZ ENDP			; std::allocator<char>::allocator<char>
_TEXT	ENDS
; Function compile flags: /Odtp
; File c:\program files (x86)\microsoft visual studio 11.0\vc\include\xutility
;	COMDAT ??__Eallocator_arg@std@@YAXXZ
text$yc	SEGMENT
$T1 = -1						; size = 1
??__Eallocator_arg@std@@YAXXZ PROC			; std::`dynamic initializer for 'allocator_arg'', COMDAT

; 3644 : const allocator_arg_t allocator_arg = allocator_arg_t();

	push	ebp
	mov	ebp, esp
	push	ecx
	xor	eax, eax
	mov	BYTE PTR $T1[ebp], al
	mov	esp, ebp
	pop	ebp
	ret	0
??__Eallocator_arg@std@@YAXXZ ENDP			; std::`dynamic initializer for 'allocator_arg''
text$yc	ENDS
; Function compile flags: /Odtp
; File c:\program files (x86)\microsoft visual studio 11.0\vc\include\utility
;	COMDAT ??__Epiecewise_construct@std@@YAXXZ
text$yc	SEGMENT
$T1 = -1						; size = 1
??__Epiecewise_construct@std@@YAXXZ PROC		; std::`dynamic initializer for 'piecewise_construct'', COMDAT

; 65   : 	piecewise_construct_t();

	push	ebp
	mov	ebp, esp
	push	ecx
	xor	eax, eax
	mov	BYTE PTR $T1[ebp], al
	mov	esp, ebp
	pop	ebp
	ret	0
??__Epiecewise_construct@std@@YAXXZ ENDP		; std::`dynamic initializer for 'piecewise_construct''
text$yc	ENDS
; Function compile flags: /Odtp
; File c:\program files (x86)\microsoft visual studio 11.0\vc\include\iosfwd
;	COMDAT ?assign@?$char_traits@D@std@@SAXAADABD@Z
_TEXT	SEGMENT
__Left$ = 8						; size = 4
__Right$ = 12						; size = 4
?assign@?$char_traits@D@std@@SAXAADABD@Z PROC		; std::char_traits<char>::assign, COMDAT

; 563  : 		{	// assign an element

	push	ebp
	mov	ebp, esp

; 564  : 		_Left = _Right;

	mov	eax, DWORD PTR __Left$[ebp]
	mov	ecx, DWORD PTR __Right$[ebp]
	mov	dl, BYTE PTR [ecx]
	mov	BYTE PTR [eax], dl

; 565  : 		}

	pop	ebp
	ret	0
?assign@?$char_traits@D@std@@SAXAADABD@Z ENDP		; std::char_traits<char>::assign
_TEXT	ENDS
; Function compile flags: /Odtp
; File c:\program files (x86)\microsoft visual studio 11.0\vc\include\iosfwd
;	COMDAT ?move@?$char_traits@D@std@@SAPADPADPBDI@Z
_TEXT	SEGMENT
tv69 = -4						; size = 4
__First1$ = 8						; size = 4
__First2$ = 12						; size = 4
__Count$ = 16						; size = 4
?move@?$char_traits@D@std@@SAPADPADPBDI@Z PROC		; std::char_traits<char>::move, COMDAT

; 551  : 		{	// copy [_First2, _First2 + _Count) to [_First1, ...)

	push	ebp
	mov	ebp, esp
	push	ecx

; 552  : 		return (_Count == 0 ? _First1
; 553  : 			: (_Elem *)_CSTD memmove(_First1, _First2, _Count));

	cmp	DWORD PTR __Count$[ebp], 0
	jne	SHORT $LN3@move
	mov	eax, DWORD PTR __First1$[ebp]
	mov	DWORD PTR tv69[ebp], eax
	jmp	SHORT $LN4@move
$LN3@move:
	mov	ecx, DWORD PTR __Count$[ebp]
	push	ecx
	mov	edx, DWORD PTR __First2$[ebp]
	push	edx
	mov	eax, DWORD PTR __First1$[ebp]
	push	eax
	call	_memmove
	add	esp, 12					; 0000000cH
	mov	DWORD PTR tv69[ebp], eax
$LN4@move:
	mov	eax, DWORD PTR tv69[ebp]

; 554  : 		}

	mov	esp, ebp
	pop	ebp
	ret	0
?move@?$char_traits@D@std@@SAPADPADPBDI@Z ENDP		; std::char_traits<char>::move
_TEXT	ENDS
; Function compile flags: /Odtp
; File c:\program files (x86)\microsoft visual studio 11.0\vc\include\iosfwd
;	COMDAT ?copy@?$char_traits@D@std@@SAPADPADPBDI@Z
_TEXT	SEGMENT
tv69 = -4						; size = 4
__First1$ = 8						; size = 4
__First2$ = 12						; size = 4
__Count$ = 16						; size = 4
?copy@?$char_traits@D@std@@SAPADPADPBDI@Z PROC		; std::char_traits<char>::copy, COMDAT

; 528  : 		{	// copy [_First2, _First2 + _Count) to [_First1, ...)

	push	ebp
	mov	ebp, esp
	push	ecx

; 529  : 		return (_Count == 0 ? _First1
; 530  : 			: (_Elem *)_CSTD memcpy(_First1, _First2, _Count));

	cmp	DWORD PTR __Count$[ebp], 0
	jne	SHORT $LN3@copy
	mov	eax, DWORD PTR __First1$[ebp]
	mov	DWORD PTR tv69[ebp], eax
	jmp	SHORT $LN4@copy
$LN3@copy:
	mov	ecx, DWORD PTR __Count$[ebp]
	push	ecx
	mov	edx, DWORD PTR __First2$[ebp]
	push	edx
	mov	eax, DWORD PTR __First1$[ebp]
	push	eax
	call	_memcpy
	add	esp, 12					; 0000000cH
	mov	DWORD PTR tv69[ebp], eax
$LN4@copy:
	mov	eax, DWORD PTR tv69[ebp]

; 531  : 		}

	mov	esp, ebp
	pop	ebp
	ret	0
?copy@?$char_traits@D@std@@SAPADPADPBDI@Z ENDP		; std::char_traits<char>::copy
_TEXT	ENDS
; Function compile flags: /Odtp
; File c:\program files (x86)\microsoft visual studio 11.0\vc\include\iosfwd
;	COMDAT ?length@?$char_traits@D@std@@SAIPBD@Z
_TEXT	SEGMENT
tv68 = -4						; size = 4
__First$ = 8						; size = 4
?length@?$char_traits@D@std@@SAIPBD@Z PROC		; std::char_traits<char>::length, COMDAT

; 521  : 		{	// find length of null-terminated string

	push	ebp
	mov	ebp, esp
	push	ecx

; 522  : 		return (*_First == 0 ? 0
; 523  : 			: _CSTD strlen(_First));

	mov	eax, DWORD PTR __First$[ebp]
	movsx	ecx, BYTE PTR [eax]
	test	ecx, ecx
	jne	SHORT $LN3@length
	mov	DWORD PTR tv68[ebp], 0
	jmp	SHORT $LN4@length
$LN3@length:
	mov	edx, DWORD PTR __First$[ebp]
	push	edx
	call	_strlen
	add	esp, 4
	mov	DWORD PTR tv68[ebp], eax
$LN4@length:
	mov	eax, DWORD PTR tv68[ebp]

; 524  : 		}

	mov	esp, ebp
	pop	ebp
	ret	0
?length@?$char_traits@D@std@@SAIPBD@Z ENDP		; std::char_traits<char>::length
_TEXT	ENDS
; Function compile flags: /Odtp
; File c:\program files (x86)\microsoft visual studio 11.0\vc\include\new
;	COMDAT ??3@YAXPAX0@Z
_TEXT	SEGMENT
___formal$ = 8						; size = 4
___formal$ = 12						; size = 4
??3@YAXPAX0@Z PROC					; operator delete, COMDAT

; 64   : 	{	// delete if placement new fails

	push	ebp
	mov	ebp, esp

; 65   : 	}

	pop	ebp
	ret	0
??3@YAXPAX0@Z ENDP					; operator delete
_TEXT	ENDS
; Function compile flags: /Odtp
; File c:\program files (x86)\microsoft visual studio 11.0\vc\include\new
;	COMDAT ??2@YAPAXIPAX@Z
_TEXT	SEGMENT
___formal$ = 8						; size = 4
__Where$ = 12						; size = 4
??2@YAPAXIPAX@Z PROC					; operator new, COMDAT

; 59   : 	{	// construct array with placement at _Where

	push	ebp
	mov	ebp, esp

; 60   : 	return (_Where);

	mov	eax, DWORD PTR __Where$[ebp]

; 61   : 	}

	pop	ebp
	ret	0
??2@YAPAXIPAX@Z ENDP					; operator new
_TEXT	ENDS
; Function compile flags: /Odtp
; File c:\users\zhitao li\documents\visual studio 2012\projects\freefalcon\vu2\include\vuentity.h
;	COMDAT ?Pitch@VuEntity@@QBEMXZ
_TEXT	SEGMENT
_this$ = -4						; size = 4
?Pitch@VuEntity@@QBEMXZ PROC				; VuEntity::Pitch, COMDAT
; _this$ = ecx

; 165  : 	SM_SCALAR Pitch() const { return orient_.pitch_; }

	push	ebp
	mov	ebp, esp
	push	ecx
	mov	DWORD PTR _this$[ebp], ecx
	mov	eax, DWORD PTR _this$[ebp]
	fld	DWORD PTR [eax+64]
	mov	esp, ebp
	pop	ebp
	ret	0
?Pitch@VuEntity@@QBEMXZ ENDP				; VuEntity::Pitch
_TEXT	ENDS
; Function compile flags: /Odtp
; File c:\users\zhitao li\documents\visual studio 2012\projects\freefalcon\vu2\include\vuentity.h
;	COMDAT ?Yaw@VuEntity@@QBEMXZ
_TEXT	SEGMENT
_this$ = -4						; size = 4
?Yaw@VuEntity@@QBEMXZ PROC				; VuEntity::Yaw, COMDAT
; _this$ = ecx

; 164  : 	SM_SCALAR Yaw() const { return orient_.yaw_; }

	push	ebp
	mov	ebp, esp
	push	ecx
	mov	DWORD PTR _this$[ebp], ecx
	mov	eax, DWORD PTR _this$[ebp]
	fld	DWORD PTR [eax+60]
	mov	esp, ebp
	pop	ebp
	ret	0
?Yaw@VuEntity@@QBEMXZ ENDP				; VuEntity::Yaw
_TEXT	ENDS
; Function compile flags: /Odtp
; File c:\users\zhitao li\documents\visual studio 2012\projects\freefalcon\vu2\include\vuentity.h
;	COMDAT ?ZDelta@VuEntity@@QBEMXZ
_TEXT	SEGMENT
_this$ = -4						; size = 4
?ZDelta@VuEntity@@QBEMXZ PROC				; VuEntity::ZDelta, COMDAT
; _this$ = ecx

; 163  : 	SM_SCALAR ZDelta() const { return pos_.dz_; }

	push	ebp
	mov	ebp, esp
	push	ecx
	mov	DWORD PTR _this$[ebp], ecx
	mov	eax, DWORD PTR _this$[ebp]
	fld	DWORD PTR [eax+56]
	mov	esp, ebp
	pop	ebp
	ret	0
?ZDelta@VuEntity@@QBEMXZ ENDP				; VuEntity::ZDelta
_TEXT	ENDS
; Function compile flags: /Odtp
; File c:\users\zhitao li\documents\visual studio 2012\projects\freefalcon\vu2\include\vuentity.h
;	COMDAT ?YDelta@VuEntity@@QBEMXZ
_TEXT	SEGMENT
_this$ = -4						; size = 4
?YDelta@VuEntity@@QBEMXZ PROC				; VuEntity::YDelta, COMDAT
; _this$ = ecx

; 162  : 	SM_SCALAR YDelta() const { return pos_.dy_; }

	push	ebp
	mov	ebp, esp
	push	ecx
	mov	DWORD PTR _this$[ebp], ecx
	mov	eax, DWORD PTR _this$[ebp]
	fld	DWORD PTR [eax+52]
	mov	esp, ebp
	pop	ebp
	ret	0
?YDelta@VuEntity@@QBEMXZ ENDP				; VuEntity::YDelta
_TEXT	ENDS
; Function compile flags: /Odtp
; File c:\users\zhitao li\documents\visual studio 2012\projects\freefalcon\vu2\include\vuentity.h
;	COMDAT ?XDelta@VuEntity@@QBEMXZ
_TEXT	SEGMENT
_this$ = -4						; size = 4
?XDelta@VuEntity@@QBEMXZ PROC				; VuEntity::XDelta, COMDAT
; _this$ = ecx

; 161  : 	SM_SCALAR XDelta() const { return pos_.dx_; }

	push	ebp
	mov	ebp, esp
	push	ecx
	mov	DWORD PTR _this$[ebp], ecx
	mov	eax, DWORD PTR _this$[ebp]
	fld	DWORD PTR [eax+48]
	mov	esp, ebp
	pop	ebp
	ret	0
?XDelta@VuEntity@@QBEMXZ ENDP				; VuEntity::XDelta
_TEXT	ENDS
; Function compile flags: /Odtp
; File c:\users\zhitao li\documents\visual studio 2012\projects\freefalcon\vu2\include\vuentity.h
;	COMDAT ?ZPos@VuEntity@@QBEMXZ
_TEXT	SEGMENT
_this$ = -4						; size = 4
?ZPos@VuEntity@@QBEMXZ PROC				; VuEntity::ZPos, COMDAT
; _this$ = ecx

; 160  : 	BIG_SCALAR ZPos()	const { return pos_.z_; }

	push	ebp
	mov	ebp, esp
	push	ecx
	mov	DWORD PTR _this$[ebp], ecx
	mov	eax, DWORD PTR _this$[ebp]
	fld	DWORD PTR [eax+44]
	mov	esp, ebp
	pop	ebp
	ret	0
?ZPos@VuEntity@@QBEMXZ ENDP				; VuEntity::ZPos
_TEXT	ENDS
; Function compile flags: /Odtp
; File c:\users\zhitao li\documents\visual studio 2012\projects\freefalcon\vu2\include\vuentity.h
;	COMDAT ?YPos@VuEntity@@QBEMXZ
_TEXT	SEGMENT
_this$ = -4						; size = 4
?YPos@VuEntity@@QBEMXZ PROC				; VuEntity::YPos, COMDAT
; _this$ = ecx

; 159  : 	BIG_SCALAR YPos()	const { return pos_.y_; }

	push	ebp
	mov	ebp, esp
	push	ecx
	mov	DWORD PTR _this$[ebp], ecx
	mov	eax, DWORD PTR _this$[ebp]
	fld	DWORD PTR [eax+40]
	mov	esp, ebp
	pop	ebp
	ret	0
?YPos@VuEntity@@QBEMXZ ENDP				; VuEntity::YPos
_TEXT	ENDS
; Function compile flags: /Odtp
; File c:\users\zhitao li\documents\visual studio 2012\projects\freefalcon\vu2\include\vuentity.h
;	COMDAT ?XPos@VuEntity@@QBEMXZ
_TEXT	SEGMENT
_this$ = -4						; size = 4
?XPos@VuEntity@@QBEMXZ PROC				; VuEntity::XPos, COMDAT
; _this$ = ecx

; 158  : 	BIG_SCALAR XPos() const { return pos_.x_; }

	push	ebp
	mov	ebp, esp
	push	ecx
	mov	DWORD PTR _this$[ebp], ecx
	mov	eax, DWORD PTR _this$[ebp]
	fld	DWORD PTR [eax+36]
	mov	esp, ebp
	pop	ebp
	ret	0
?XPos@VuEntity@@QBEMXZ ENDP				; VuEntity::XPos
_TEXT	ENDS
; Function compile flags: /Odtp
; File c:\users\zhitao li\documents\visual studio 2012\projects\freefalcon\mathlib\math.h
_TEXT	SEGMENT
_x$ = 8							; size = 4
?SqrtSSE@@YAMM@Z PROC					; SqrtSSE

; 91   : static inline float SqrtSSE(float x){ 

	push	ebp
	mov	ebp, esp

; 92   :     __asm 
; 93   :     { 
; 94   :         sqrtss xmm0,x 

	sqrtss	xmm0, DWORD PTR _x$[ebp]

; 95   :         movss x,xmm0 

	movss	XMMWORD PTR _x$[ebp], xmm0

; 96   :     } 
; 97   : 
; 98   :     return x; 

	fld	DWORD PTR _x$[ebp]

; 99   : } 

	pop	ebp
	ret	0
?SqrtSSE@@YAMM@Z ENDP					; SqrtSSE
_TEXT	ENDS
; Function compile flags: /Odtp
; File c:\program files (x86)\microsoft visual studio 11.0\vc\include\math.h
;	COMDAT ?fabs@@YAMM@Z
_TEXT	SEGMENT
__X$ = 8						; size = 4
?fabs@@YAMM@Z PROC					; fabs, COMDAT

; 517  :         {return (fabsf(_X)); }

	push	ebp
	mov	ebp, esp
	push	ecx
	movss	xmm0, DWORD PTR __X$[ebp]
	movss	DWORD PTR [esp], xmm0
	call	_fabsf
	add	esp, 4
	pop	ebp
	ret	0
?fabs@@YAMM@Z ENDP					; fabs
_TEXT	ENDS
; Function compile flags: /Odtp
; File c:\program files (x86)\microsoft visual studio 11.0\vc\include\math.h
;	COMDAT ?atan@@YAMM@Z
_TEXT	SEGMENT
__X$ = 8						; size = 4
?atan@@YAMM@Z PROC					; atan, COMDAT

; 505  :         {return (atanf(_X)); }

	push	ebp
	mov	ebp, esp
	push	ecx
	movss	xmm0, DWORD PTR __X$[ebp]
	movss	DWORD PTR [esp], xmm0
	call	_atanf
	add	esp, 4
	pop	ebp
	ret	0
?atan@@YAMM@Z ENDP					; atan
_TEXT	ENDS
; Function compile flags: /Odtp
; File c:\program files (x86)\microsoft visual studio 11.0\vc\include\math.h
;	COMDAT ?acos@@YAMM@Z
_TEXT	SEGMENT
__X$ = 8						; size = 4
?acos@@YAMM@Z PROC					; acos, COMDAT

; 501  :         {return (acosf(_X)); }

	push	ebp
	mov	ebp, esp
	push	ecx
	movss	xmm0, DWORD PTR __X$[ebp]
	movss	DWORD PTR [esp], xmm0
	call	_acosf
	add	esp, 4
	pop	ebp
	ret	0
?acos@@YAMM@Z ENDP					; acos
_TEXT	ENDS
; Function compile flags: /Odtp
; File c:\program files (x86)\microsoft visual studio 11.0\vc\include\math.h
;	COMDAT _atanf
_TEXT	SEGMENT
tv74 = -12						; size = 8
tv76 = -4						; size = 4
__X$ = 8						; size = 4
_atanf	PROC						; COMDAT

; 404  :         {return ((float)atan((double)_X)); }

	push	ebp
	mov	ebp, esp
	sub	esp, 12					; 0000000cH
	cvtss2sd xmm0, DWORD PTR __X$[ebp]
	sub	esp, 8
	movsd	QWORD PTR [esp], xmm0
	call	_atan
	add	esp, 8
	fstp	QWORD PTR tv74[ebp]
	movsd	xmm0, QWORD PTR tv74[ebp]
	cvtsd2ss xmm0, xmm0
	movss	DWORD PTR tv76[ebp], xmm0
	fld	DWORD PTR tv76[ebp]
	mov	esp, ebp
	pop	ebp
	ret	0
_atanf	ENDP
_TEXT	ENDS
; Function compile flags: /Odtp
; File c:\program files (x86)\microsoft visual studio 11.0\vc\include\math.h
;	COMDAT _acosf
_TEXT	SEGMENT
tv74 = -12						; size = 8
tv76 = -4						; size = 4
__X$ = 8						; size = 4
_acosf	PROC						; COMDAT

; 400  :         {return ((float)acos((double)_X)); }

	push	ebp
	mov	ebp, esp
	sub	esp, 12					; 0000000cH
	cvtss2sd xmm0, DWORD PTR __X$[ebp]
	sub	esp, 8
	movsd	QWORD PTR [esp], xmm0
	call	_acos
	add	esp, 8
	fstp	QWORD PTR tv74[ebp]
	movsd	xmm0, QWORD PTR tv74[ebp]
	cvtsd2ss xmm0, xmm0
	movss	DWORD PTR tv76[ebp], xmm0
	fld	DWORD PTR tv76[ebp]
	mov	esp, ebp
	pop	ebp
	ret	0
_acosf	ENDP
_TEXT	ENDS
; Function compile flags: /Odtp
; File c:\program files (x86)\microsoft visual studio 11.0\vc\include\math.h
;	COMDAT _fabsf
_TEXT	SEGMENT
tv74 = -12						; size = 8
tv76 = -4						; size = 4
__X$ = 8						; size = 4
_fabsf	PROC						; COMDAT

; 392  :         {return ((float)fabs((double)_X)); }

	push	ebp
	mov	ebp, esp
	sub	esp, 12					; 0000000cH
	cvtss2sd xmm0, DWORD PTR __X$[ebp]
	sub	esp, 8
	movsd	QWORD PTR [esp], xmm0
	call	_fabs
	add	esp, 8
	fstp	QWORD PTR tv74[ebp]
	movsd	xmm0, QWORD PTR tv74[ebp]
	cvtsd2ss xmm0, xmm0
	movss	DWORD PTR tv76[ebp], xmm0
	fld	DWORD PTR tv76[ebp]
	mov	esp, ebp
	pop	ebp
	ret	0
_fabsf	ENDP
_TEXT	ENDS
END
