; Listing generated by Microsoft (R) Optimizing Compiler Version 17.00.51106.1 

	TITLE	C:\Users\Zhitao Li\Documents\Visual Studio 2012\Projects\Freefalcon\SIM\ICP\IcpMiscFuncs.cpp
	.686P
	.XMM
	include listing.inc
	.model	flat

INCLUDELIB LIBCMT
INCLUDELIB OLDNAMES

PUBLIC	?traps@_Num_base@std@@2_NB			; std::_Num_base::traps
PUBLIC	?round_style@_Num_base@std@@2W4float_round_style@2@B ; std::_Num_base::round_style
PUBLIC	?digits@_Num_base@std@@2HB			; std::_Num_base::digits
PUBLIC	?digits10@_Num_base@std@@2HB			; std::_Num_base::digits10
PUBLIC	?max_digits10@_Num_base@std@@2HB		; std::_Num_base::max_digits10
PUBLIC	?max_exponent@_Num_base@std@@2HB		; std::_Num_base::max_exponent
PUBLIC	?max_exponent10@_Num_base@std@@2HB		; std::_Num_base::max_exponent10
PUBLIC	?min_exponent@_Num_base@std@@2HB		; std::_Num_base::min_exponent
PUBLIC	?min_exponent10@_Num_base@std@@2HB		; std::_Num_base::min_exponent10
PUBLIC	?radix@_Num_base@std@@2HB			; std::_Num_base::radix
PUBLIC	?is_bounded@_Num_int_base@std@@2_NB		; std::_Num_int_base::is_bounded
PUBLIC	?is_exact@_Num_int_base@std@@2_NB		; std::_Num_int_base::is_exact
PUBLIC	?is_integer@_Num_int_base@std@@2_NB		; std::_Num_int_base::is_integer
PUBLIC	?is_modulo@_Num_int_base@std@@2_NB		; std::_Num_int_base::is_modulo
PUBLIC	?is_specialized@_Num_int_base@std@@2_NB		; std::_Num_int_base::is_specialized
PUBLIC	?radix@_Num_int_base@std@@2HB			; std::_Num_int_base::radix
PUBLIC	?has_denorm@_Num_float_base@std@@2W4float_denorm_style@2@B ; std::_Num_float_base::has_denorm
PUBLIC	?has_denorm_loss@_Num_float_base@std@@2_NB	; std::_Num_float_base::has_denorm_loss
PUBLIC	?SIMDIRTYDATA_INTERVAL@FalconEntity@@2KB	; FalconEntity::SIMDIRTYDATA_INTERVAL
PUBLIC	?CMPDIRTYDATA_INTERVAL@FalconEntity@@2KB	; FalconEntity::CMPDIRTYDATA_INTERVAL
PUBLIC	?has_infinity@_Num_float_base@std@@2_NB		; std::_Num_float_base::has_infinity
PUBLIC	?has_quiet_NaN@_Num_float_base@std@@2_NB	; std::_Num_float_base::has_quiet_NaN
PUBLIC	?has_signaling_NaN@_Num_float_base@std@@2_NB	; std::_Num_float_base::has_signaling_NaN
PUBLIC	?is_bounded@_Num_float_base@std@@2_NB		; std::_Num_float_base::is_bounded
PUBLIC	?is_exact@_Num_float_base@std@@2_NB		; std::_Num_float_base::is_exact
PUBLIC	?is_iec559@_Num_float_base@std@@2_NB		; std::_Num_float_base::is_iec559
PUBLIC	?is_integer@_Num_float_base@std@@2_NB		; std::_Num_float_base::is_integer
PUBLIC	?is_modulo@_Num_float_base@std@@2_NB		; std::_Num_float_base::is_modulo
PUBLIC	?is_signed@_Num_float_base@std@@2_NB		; std::_Num_float_base::is_signed
PUBLIC	?is_specialized@_Num_float_base@std@@2_NB	; std::_Num_float_base::is_specialized
PUBLIC	?tinyness_before@_Num_float_base@std@@2_NB	; std::_Num_float_base::tinyness_before
PUBLIC	?traps@_Num_float_base@std@@2_NB		; std::_Num_float_base::traps
PUBLIC	?round_style@_Num_float_base@std@@2W4float_round_style@2@B ; std::_Num_float_base::round_style
PUBLIC	?radix@_Num_float_base@std@@2HB			; std::_Num_float_base::radix
PUBLIC	?is_signed@?$numeric_limits@D@std@@2_NB		; std::numeric_limits<char>::is_signed
PUBLIC	?digits@?$numeric_limits@D@std@@2HB		; std::numeric_limits<char>::digits
PUBLIC	?digits10@?$numeric_limits@D@std@@2HB		; std::numeric_limits<char>::digits10
PUBLIC	?is_signed@?$numeric_limits@_W@std@@2_NB	; std::numeric_limits<wchar_t>::is_signed
PUBLIC	?digits@?$numeric_limits@_W@std@@2HB		; std::numeric_limits<wchar_t>::digits
PUBLIC	?digits10@?$numeric_limits@_W@std@@2HB		; std::numeric_limits<wchar_t>::digits10
PUBLIC	?skipws@?$_Iosb@H@std@@2W4_Fmtflags@12@B	; std::_Iosb<int>::skipws
PUBLIC	?unitbuf@?$_Iosb@H@std@@2W4_Fmtflags@12@B	; std::_Iosb<int>::unitbuf
PUBLIC	?uppercase@?$_Iosb@H@std@@2W4_Fmtflags@12@B	; std::_Iosb<int>::uppercase
PUBLIC	?showbase@?$_Iosb@H@std@@2W4_Fmtflags@12@B	; std::_Iosb<int>::showbase
PUBLIC	?showpoint@?$_Iosb@H@std@@2W4_Fmtflags@12@B	; std::_Iosb<int>::showpoint
PUBLIC	?showpos@?$_Iosb@H@std@@2W4_Fmtflags@12@B	; std::_Iosb<int>::showpos
PUBLIC	?is_modulo@?$numeric_limits@_N@std@@2_NB	; std::numeric_limits<bool>::is_modulo
PUBLIC	?left@?$_Iosb@H@std@@2W4_Fmtflags@12@B		; std::_Iosb<int>::left
PUBLIC	?is_signed@?$numeric_limits@_N@std@@2_NB	; std::numeric_limits<bool>::is_signed
PUBLIC	?right@?$_Iosb@H@std@@2W4_Fmtflags@12@B		; std::_Iosb<int>::right
PUBLIC	?digits@?$numeric_limits@_N@std@@2HB		; std::numeric_limits<bool>::digits
PUBLIC	?internal@?$_Iosb@H@std@@2W4_Fmtflags@12@B	; std::_Iosb<int>::internal
PUBLIC	?dec@?$_Iosb@H@std@@2W4_Fmtflags@12@B		; std::_Iosb<int>::dec
PUBLIC	?digits10@?$numeric_limits@_N@std@@2HB		; std::numeric_limits<bool>::digits10
PUBLIC	?oct@?$_Iosb@H@std@@2W4_Fmtflags@12@B		; std::_Iosb<int>::oct
PUBLIC	?hex@?$_Iosb@H@std@@2W4_Fmtflags@12@B		; std::_Iosb<int>::hex
PUBLIC	?scientific@?$_Iosb@H@std@@2W4_Fmtflags@12@B	; std::_Iosb<int>::scientific
PUBLIC	?fixed@?$_Iosb@H@std@@2W4_Fmtflags@12@B		; std::_Iosb<int>::fixed
PUBLIC	?hexfloat@?$_Iosb@H@std@@2W4_Fmtflags@12@B	; std::_Iosb<int>::hexfloat
PUBLIC	?boolalpha@?$_Iosb@H@std@@2W4_Fmtflags@12@B	; std::_Iosb<int>::boolalpha
PUBLIC	?_Stdio@?$_Iosb@H@std@@2W4_Fmtflags@12@B	; std::_Iosb<int>::_Stdio
PUBLIC	?adjustfield@?$_Iosb@H@std@@2W4_Fmtflags@12@B	; std::_Iosb<int>::adjustfield
PUBLIC	?basefield@?$_Iosb@H@std@@2W4_Fmtflags@12@B	; std::_Iosb<int>::basefield
PUBLIC	?floatfield@?$_Iosb@H@std@@2W4_Fmtflags@12@B	; std::_Iosb<int>::floatfield
PUBLIC	?is_signed@?$numeric_limits@C@std@@2_NB		; std::numeric_limits<signed char>::is_signed
PUBLIC	?digits@?$numeric_limits@C@std@@2HB		; std::numeric_limits<signed char>::digits
PUBLIC	?goodbit@?$_Iosb@H@std@@2W4_Iostate@12@B	; std::_Iosb<int>::goodbit
PUBLIC	?digits10@?$numeric_limits@C@std@@2HB		; std::numeric_limits<signed char>::digits10
PUBLIC	?eofbit@?$_Iosb@H@std@@2W4_Iostate@12@B		; std::_Iosb<int>::eofbit
PUBLIC	?failbit@?$_Iosb@H@std@@2W4_Iostate@12@B	; std::_Iosb<int>::failbit
PUBLIC	?badbit@?$_Iosb@H@std@@2W4_Iostate@12@B		; std::_Iosb<int>::badbit
PUBLIC	?_Hardfail@?$_Iosb@H@std@@2W4_Iostate@12@B	; std::_Iosb<int>::_Hardfail
PUBLIC	?in@?$_Iosb@H@std@@2W4_Openmode@12@B		; std::_Iosb<int>::in
PUBLIC	?out@?$_Iosb@H@std@@2W4_Openmode@12@B		; std::_Iosb<int>::out
PUBLIC	?ate@?$_Iosb@H@std@@2W4_Openmode@12@B		; std::_Iosb<int>::ate
PUBLIC	?app@?$_Iosb@H@std@@2W4_Openmode@12@B		; std::_Iosb<int>::app
PUBLIC	?trunc@?$_Iosb@H@std@@2W4_Openmode@12@B		; std::_Iosb<int>::trunc
PUBLIC	?is_signed@?$numeric_limits@E@std@@2_NB		; std::numeric_limits<unsigned char>::is_signed
PUBLIC	?_Nocreate@?$_Iosb@H@std@@2W4_Openmode@12@B	; std::_Iosb<int>::_Nocreate
PUBLIC	?value@?$integral_constant@_N$0A@@std@@2_NB	; std::integral_constant<bool,0>::value
PUBLIC	?digits@?$numeric_limits@E@std@@2HB		; std::numeric_limits<unsigned char>::digits
PUBLIC	?_Noreplace@?$_Iosb@H@std@@2W4_Openmode@12@B	; std::_Iosb<int>::_Noreplace
PUBLIC	?digits10@?$numeric_limits@E@std@@2HB		; std::numeric_limits<unsigned char>::digits10
PUBLIC	?binary@?$_Iosb@H@std@@2W4_Openmode@12@B	; std::_Iosb<int>::binary
PUBLIC	?beg@?$_Iosb@H@std@@2W4_Seekdir@12@B		; std::_Iosb<int>::beg
PUBLIC	?cur@?$_Iosb@H@std@@2W4_Seekdir@12@B		; std::_Iosb<int>::cur
PUBLIC	?value@?$integral_constant@_N$00@std@@2_NB	; std::integral_constant<bool,1>::value
PUBLIC	?end@?$_Iosb@H@std@@2W4_Seekdir@12@B		; std::_Iosb<int>::end
PUBLIC	?is_signed@?$numeric_limits@F@std@@2_NB		; std::numeric_limits<short>::is_signed
PUBLIC	?digits@?$numeric_limits@F@std@@2HB		; std::numeric_limits<short>::digits
PUBLIC	?digits10@?$numeric_limits@F@std@@2HB		; std::numeric_limits<short>::digits10
PUBLIC	?_Stream_err@failure@ios_base@std@@0W4io_errc@43@B ; std::ios_base::failure::_Stream_err
PUBLIC	?is_signed@?$numeric_limits@G@std@@2_NB		; std::numeric_limits<unsigned short>::is_signed
PUBLIC	?digits@?$numeric_limits@G@std@@2HB		; std::numeric_limits<unsigned short>::digits
PUBLIC	?digits10@?$numeric_limits@G@std@@2HB		; std::numeric_limits<unsigned short>::digits10
PUBLIC	?is_signed@?$numeric_limits@H@std@@2_NB		; std::numeric_limits<int>::is_signed
PUBLIC	?value@?$_Sizeof@HU_Nil@std@@U12@U12@U12@U12@U12@U12@@std@@2IB ; std::_Sizeof<int,std::_Nil,std::_Nil,std::_Nil,std::_Nil,std::_Nil,std::_Nil,std::_Nil>::value
PUBLIC	?digits@?$numeric_limits@H@std@@2HB		; std::numeric_limits<int>::digits
PUBLIC	?digits10@?$numeric_limits@H@std@@2HB		; std::numeric_limits<int>::digits10
PUBLIC	?is_signed@?$numeric_limits@I@std@@2_NB		; std::numeric_limits<unsigned int>::is_signed
PUBLIC	?digits@?$numeric_limits@I@std@@2HB		; std::numeric_limits<unsigned int>::digits
PUBLIC	?digits10@?$numeric_limits@I@std@@2HB		; std::numeric_limits<unsigned int>::digits10
PUBLIC	?is_signed@?$numeric_limits@J@std@@2_NB		; std::numeric_limits<long>::is_signed
PUBLIC	?digits@?$numeric_limits@J@std@@2HB		; std::numeric_limits<long>::digits
PUBLIC	?digits10@?$numeric_limits@J@std@@2HB		; std::numeric_limits<long>::digits10
PUBLIC	?is_signed@?$numeric_limits@K@std@@2_NB		; std::numeric_limits<unsigned long>::is_signed
PUBLIC	?digits@?$numeric_limits@K@std@@2HB		; std::numeric_limits<unsigned long>::digits
PUBLIC	?digits10@?$numeric_limits@K@std@@2HB		; std::numeric_limits<unsigned long>::digits10
PUBLIC	?is_signed@?$numeric_limits@_J@std@@2_NB	; std::numeric_limits<__int64>::is_signed
PUBLIC	?digits@?$numeric_limits@_J@std@@2HB		; std::numeric_limits<__int64>::digits
PUBLIC	?digits10@?$numeric_limits@_J@std@@2HB		; std::numeric_limits<__int64>::digits10
PUBLIC	?is_signed@?$numeric_limits@_K@std@@2_NB	; std::numeric_limits<unsigned __int64>::is_signed
PUBLIC	?digits@?$numeric_limits@_K@std@@2HB		; std::numeric_limits<unsigned __int64>::digits
PUBLIC	?digits10@?$numeric_limits@_K@std@@2HB		; std::numeric_limits<unsigned __int64>::digits10
PUBLIC	?collate@?$_Locbase@H@std@@2HB			; std::_Locbase<int>::collate
PUBLIC	?digits@?$numeric_limits@M@std@@2HB		; std::numeric_limits<float>::digits
PUBLIC	?ctype@?$_Locbase@H@std@@2HB			; std::_Locbase<int>::ctype
PUBLIC	?monetary@?$_Locbase@H@std@@2HB			; std::_Locbase<int>::monetary
PUBLIC	?digits10@?$numeric_limits@M@std@@2HB		; std::numeric_limits<float>::digits10
PUBLIC	?numeric@?$_Locbase@H@std@@2HB			; std::_Locbase<int>::numeric
PUBLIC	?max_digits10@?$numeric_limits@M@std@@2HB	; std::numeric_limits<float>::max_digits10
PUBLIC	?time@?$_Locbase@H@std@@2HB			; std::_Locbase<int>::time
PUBLIC	?messages@?$_Locbase@H@std@@2HB			; std::_Locbase<int>::messages
PUBLIC	?max_exponent@?$numeric_limits@M@std@@2HB	; std::numeric_limits<float>::max_exponent
PUBLIC	?all@?$_Locbase@H@std@@2HB			; std::_Locbase<int>::all
PUBLIC	?none@?$_Locbase@H@std@@2HB			; std::_Locbase<int>::none
PUBLIC	?max_exponent10@?$numeric_limits@M@std@@2HB	; std::numeric_limits<float>::max_exponent10
PUBLIC	?min_exponent@?$numeric_limits@M@std@@2HB	; std::numeric_limits<float>::min_exponent
PUBLIC	?min_exponent10@?$numeric_limits@M@std@@2HB	; std::numeric_limits<float>::min_exponent10
PUBLIC	?value@?$integral_constant@I$0A@@std@@2IB	; std::integral_constant<unsigned int,0>::value
PUBLIC	?digits@?$numeric_limits@N@std@@2HB		; std::numeric_limits<double>::digits
PUBLIC	?digits10@?$numeric_limits@N@std@@2HB		; std::numeric_limits<double>::digits10
PUBLIC	?max_digits10@?$numeric_limits@N@std@@2HB	; std::numeric_limits<double>::max_digits10
PUBLIC	?max_exponent@?$numeric_limits@N@std@@2HB	; std::numeric_limits<double>::max_exponent
PUBLIC	?max_exponent10@?$numeric_limits@N@std@@2HB	; std::numeric_limits<double>::max_exponent10
PUBLIC	?min_exponent@?$numeric_limits@N@std@@2HB	; std::numeric_limits<double>::min_exponent
PUBLIC	?min_exponent10@?$numeric_limits@N@std@@2HB	; std::numeric_limits<double>::min_exponent10
PUBLIC	?digits@?$numeric_limits@O@std@@2HB		; std::numeric_limits<long double>::digits
PUBLIC	?digits10@?$numeric_limits@O@std@@2HB		; std::numeric_limits<long double>::digits10
PUBLIC	?max_digits10@?$numeric_limits@O@std@@2HB	; std::numeric_limits<long double>::max_digits10
PUBLIC	?max_exponent@?$numeric_limits@O@std@@2HB	; std::numeric_limits<long double>::max_exponent
PUBLIC	?max_exponent10@?$numeric_limits@O@std@@2HB	; std::numeric_limits<long double>::max_exponent10
PUBLIC	?min_exponent@?$numeric_limits@O@std@@2HB	; std::numeric_limits<long double>::min_exponent
PUBLIC	?table_size@?$ctype@D@std@@2IB			; std::ctype<char>::table_size
PUBLIC	?min_exponent10@?$numeric_limits@O@std@@2HB	; std::numeric_limits<long double>::min_exponent10
PUBLIC	?value@?$_Sizeof@U_Nil@std@@U12@U12@U12@U12@U12@U12@U12@@std@@2IB ; std::_Sizeof<std::_Nil,std::_Nil,std::_Nil,std::_Nil,std::_Nil,std::_Nil,std::_Nil,std::_Nil>::value
PUBLIC	?has_denorm@_Num_base@std@@2W4float_denorm_style@2@B ; std::_Num_base::has_denorm
PUBLIC	?has_denorm_loss@_Num_base@std@@2_NB		; std::_Num_base::has_denorm_loss
PUBLIC	?has_infinity@_Num_base@std@@2_NB		; std::_Num_base::has_infinity
PUBLIC	?has_quiet_NaN@_Num_base@std@@2_NB		; std::_Num_base::has_quiet_NaN
PUBLIC	?has_signaling_NaN@_Num_base@std@@2_NB		; std::_Num_base::has_signaling_NaN
PUBLIC	?is_bounded@_Num_base@std@@2_NB			; std::_Num_base::is_bounded
PUBLIC	?is_exact@_Num_base@std@@2_NB			; std::_Num_base::is_exact
PUBLIC	?is_iec559@_Num_base@std@@2_NB			; std::_Num_base::is_iec559
PUBLIC	?is_integer@_Num_base@std@@2_NB			; std::_Num_base::is_integer
PUBLIC	?is_modulo@_Num_base@std@@2_NB			; std::_Num_base::is_modulo
PUBLIC	?is_signed@_Num_base@std@@2_NB			; std::_Num_base::is_signed
PUBLIC	?is_specialized@_Num_base@std@@2_NB		; std::_Num_base::is_specialized
PUBLIC	?tinyness_before@_Num_base@std@@2_NB		; std::_Num_base::tinyness_before
;	COMDAT ?tinyness_before@_Num_base@std@@2_NB
CONST	SEGMENT
?tinyness_before@_Num_base@std@@2_NB DB 00H		; std::_Num_base::tinyness_before
CONST	ENDS
;	COMDAT ?is_specialized@_Num_base@std@@2_NB
CONST	SEGMENT
?is_specialized@_Num_base@std@@2_NB DB 00H		; std::_Num_base::is_specialized
CONST	ENDS
;	COMDAT ?is_signed@_Num_base@std@@2_NB
CONST	SEGMENT
?is_signed@_Num_base@std@@2_NB DB 00H			; std::_Num_base::is_signed
CONST	ENDS
;	COMDAT ?is_modulo@_Num_base@std@@2_NB
CONST	SEGMENT
?is_modulo@_Num_base@std@@2_NB DB 00H			; std::_Num_base::is_modulo
CONST	ENDS
;	COMDAT ?is_integer@_Num_base@std@@2_NB
CONST	SEGMENT
?is_integer@_Num_base@std@@2_NB DB 00H			; std::_Num_base::is_integer
CONST	ENDS
;	COMDAT ?is_iec559@_Num_base@std@@2_NB
CONST	SEGMENT
?is_iec559@_Num_base@std@@2_NB DB 00H			; std::_Num_base::is_iec559
CONST	ENDS
;	COMDAT ?is_exact@_Num_base@std@@2_NB
CONST	SEGMENT
?is_exact@_Num_base@std@@2_NB DB 00H			; std::_Num_base::is_exact
CONST	ENDS
;	COMDAT ?is_bounded@_Num_base@std@@2_NB
CONST	SEGMENT
?is_bounded@_Num_base@std@@2_NB DB 00H			; std::_Num_base::is_bounded
CONST	ENDS
;	COMDAT ?has_signaling_NaN@_Num_base@std@@2_NB
CONST	SEGMENT
?has_signaling_NaN@_Num_base@std@@2_NB DB 00H		; std::_Num_base::has_signaling_NaN
CONST	ENDS
;	COMDAT ?has_quiet_NaN@_Num_base@std@@2_NB
CONST	SEGMENT
?has_quiet_NaN@_Num_base@std@@2_NB DB 00H		; std::_Num_base::has_quiet_NaN
CONST	ENDS
;	COMDAT ?has_infinity@_Num_base@std@@2_NB
CONST	SEGMENT
?has_infinity@_Num_base@std@@2_NB DB 00H		; std::_Num_base::has_infinity
CONST	ENDS
;	COMDAT ?has_denorm_loss@_Num_base@std@@2_NB
CONST	SEGMENT
?has_denorm_loss@_Num_base@std@@2_NB DB 00H		; std::_Num_base::has_denorm_loss
CONST	ENDS
;	COMDAT ?has_denorm@_Num_base@std@@2W4float_denorm_style@2@B
CONST	SEGMENT
?has_denorm@_Num_base@std@@2W4float_denorm_style@2@B DD 00H ; std::_Num_base::has_denorm
CONST	ENDS
;	COMDAT ?value@?$_Sizeof@U_Nil@std@@U12@U12@U12@U12@U12@U12@U12@@std@@2IB
CONST	SEGMENT
?value@?$_Sizeof@U_Nil@std@@U12@U12@U12@U12@U12@U12@U12@@std@@2IB DD 00H ; std::_Sizeof<std::_Nil,std::_Nil,std::_Nil,std::_Nil,std::_Nil,std::_Nil,std::_Nil,std::_Nil>::value
CONST	ENDS
;	COMDAT ?min_exponent10@?$numeric_limits@O@std@@2HB
CONST	SEGMENT
?min_exponent10@?$numeric_limits@O@std@@2HB DD 0fffffecdH ; std::numeric_limits<long double>::min_exponent10
CONST	ENDS
;	COMDAT ?table_size@?$ctype@D@std@@2IB
CONST	SEGMENT
?table_size@?$ctype@D@std@@2IB DD 0100H			; std::ctype<char>::table_size
CONST	ENDS
;	COMDAT ?min_exponent@?$numeric_limits@O@std@@2HB
CONST	SEGMENT
?min_exponent@?$numeric_limits@O@std@@2HB DD 0fffffc03H	; std::numeric_limits<long double>::min_exponent
CONST	ENDS
;	COMDAT ?max_exponent10@?$numeric_limits@O@std@@2HB
CONST	SEGMENT
?max_exponent10@?$numeric_limits@O@std@@2HB DD 0134H	; std::numeric_limits<long double>::max_exponent10
CONST	ENDS
;	COMDAT ?max_exponent@?$numeric_limits@O@std@@2HB
CONST	SEGMENT
?max_exponent@?$numeric_limits@O@std@@2HB DD 0400H	; std::numeric_limits<long double>::max_exponent
CONST	ENDS
;	COMDAT ?max_digits10@?$numeric_limits@O@std@@2HB
CONST	SEGMENT
?max_digits10@?$numeric_limits@O@std@@2HB DD 011H	; std::numeric_limits<long double>::max_digits10
CONST	ENDS
;	COMDAT ?digits10@?$numeric_limits@O@std@@2HB
CONST	SEGMENT
?digits10@?$numeric_limits@O@std@@2HB DD 0fH		; std::numeric_limits<long double>::digits10
CONST	ENDS
;	COMDAT ?digits@?$numeric_limits@O@std@@2HB
CONST	SEGMENT
?digits@?$numeric_limits@O@std@@2HB DD 035H		; std::numeric_limits<long double>::digits
CONST	ENDS
;	COMDAT ?min_exponent10@?$numeric_limits@N@std@@2HB
CONST	SEGMENT
?min_exponent10@?$numeric_limits@N@std@@2HB DD 0fffffecdH ; std::numeric_limits<double>::min_exponent10
CONST	ENDS
;	COMDAT ?min_exponent@?$numeric_limits@N@std@@2HB
CONST	SEGMENT
?min_exponent@?$numeric_limits@N@std@@2HB DD 0fffffc03H	; std::numeric_limits<double>::min_exponent
CONST	ENDS
;	COMDAT ?max_exponent10@?$numeric_limits@N@std@@2HB
CONST	SEGMENT
?max_exponent10@?$numeric_limits@N@std@@2HB DD 0134H	; std::numeric_limits<double>::max_exponent10
CONST	ENDS
;	COMDAT ?max_exponent@?$numeric_limits@N@std@@2HB
CONST	SEGMENT
?max_exponent@?$numeric_limits@N@std@@2HB DD 0400H	; std::numeric_limits<double>::max_exponent
CONST	ENDS
_DATA	SEGMENT
_cloudPntList DD 0c5bcc000r			; -6040
	DD	0c4070000r			; -540
	DD	0c694ac00r			; -19030
	DD	0c6de1c00r			; -28430
	DD	0c4dfc000r			; -1790
	DD	046dcc800r			; 28260
	DD	047104200r			; 36930
	DD	045732000r			; 3890
	DD	04744ea00r			; 50410
	DD	045336000r			; 2870
	DD	0c4d48000r			; -1700
	DD	04736da00r			; 46810
	DD	0c763ee00r			; -58350
	DD	0c4d48000r			; -1700
	DD	0c64c1000r			; -13060
	DD	046f2bc00r			; 31070
	DD	045480000r			; 3200
	DD	0c7293800r			; -43320
	DD	0c7bdc400r			; -97160
	DD	0c4d48000r			; -1700
	DD	04576e000r			; 3950
	DD	0c792e000r			; -75200
	DD	0c4bb8000r			; -1500
	DD	047957400r			; 76520
	DD	04759ee00r			; 55790
	DD	0c5a1e000r			; -5180
	DD	0c7a24e00r			; -83100
	DD	0c7473800r			; -51000
	DD	0c3a00000r			; -320
	DD	0c7829100r			; -66850
	DD	047733400r			; 62260
	DD	0c3a00000r			; -320
	DD	047708200r			; 61570
	DD	0c7710e00r			; -61710
	DD	0c550c000r			; -3340
	DD	046fb7c00r			; 32190
	DD	0c7719a00r			; -61850
	DD	0c7483200r			; -51250
	DD	047543a00r			; 54330
	DD	0c5bcc000r			; -6040
	DD	0c7495400r			; -51540
	DD	0c694ac00r			; -19030
	DD	0c6a7a800r			; -21460
	DD	0c74b0200r			; -51970
	DD	0468e8000r			; 18240
	DD	047298800r			; 43400
	DD	0c74bf200r			; -52210
	DD	046bc7000r			; 24120
	DD	0c749f400r			; -51700
	DD	0c74bc000r			; -52160
	DD	046948400r			; 19010
	DD	0c605e800r			; -8570
	DD	0c7488200r			; -51330
	DD	0c74ca600r			; -52390
	DD	04731bc00r			; 45500
	DD	0c7509800r			; -53400
	DD	0c6725800r			; -15510
	DD	0c7719a00r			; -61850
	DD	0c7483200r			; -51250
	DD	047543a00r			; 54330
	DD	047553400r			; 54580
	DD	0c74ddc00r			; -52700
	DD	0479a5600r			; 79020
	DD	047a7e400r			; 85960
	DD	0c74c5600r			; -52310
	DD	0477d4800r			; 64840
	DD	0c7c44500r			; -100490
	DD	0c74d1400r			; -52500
	DD	047ac2600r			; 88140
	DD	0c7a1ae00r			; -82780
	DD	0c749ea00r			; -51690
	DD	0c7bce300r			; -96710
	DD	0c6126800r			; -9370
	DD	0c7495400r			; -51540
	DD	043cd0000r			; 410
	DD	0c6a7a800r			; -21460
	DD	0c74a8a00r			; -51850
	DD	0473fae00r			; 49070
	DD	0457c8000r			; 4040
	DD	0c74e4a00r			; -52810
	DD	047871e00r			; 69180
	DD	0c6cbc000r			; -26080
	DD	0c74bc000r			; -52160
	DD	046984400r			; 19490
	DD	0452fa000r			; 2810
	DD	0c7488200r			; -51330
	DD	0c7081800r			; -34840
	DD	0c7719a00r			; -61850
	DD	0c749d600r			; -51670
	DD	047b17600r			; 90860
	DD	047553400r			; 54580
	DD	0c74ddc00r			; -52700
	DD	0479a5600r			; 79020
	DD	047a7e400r			; 85960
	DD	0c74c5600r			; -52310
	DD	0477d4800r			; 64840
	DD	0c7c44500r			; -100490
	DD	0c74d1400r			; -52500
	DD	047ac2600r			; 88140
	DD	047c04e00r			; 98460
	DD	0c74d1400r			; -52500
	DD	0c732a200r			; -45730
	DD	0467b9000r			; 16100
	DD	0c7487800r			; -51320
	DD	0c749a400r			; -51620
	DD	047636c00r			; 58220
	DD	0c74e0400r			; -52740
	DD	0c760b000r			; -57520
	DD	0c6126800r			; -9370
	DD	0c4070000r			; -540
	DD	043cd0000r			; 410
	DD	0c4e60000r			; -1840
	DD	0c6a30c00r			; -20870
	DD	0470a6600r			; 35430
	DD	0c7230c00r			; -41740
	DD	046924000r			; 18720
	DD	04797d600r			; 77740
	DD	0460d9000r			; 9060
	DD	0c616c800r			; -9650
	DD	0c7921300r			; -74790
_lightningPosList DD 041300000r			; 11
	DD	000000000r			; 0
	DD	040e00000r			; 7
	DD	040a00000r			; 5
	DD	041100000r			; 9
	DD	041000000r			; 8
	DD	041000000r			; 8
	DD	041600000r			; 14
	DD	041800000r			; 16
	DD	041a00000r			; 20
	DD	041200000r			; 10
	DD	041c00000r			; 24
	DD	041300000r			; 11
	DD	041d80000r			; 27
	DD	040c00000r			; 6
	DD	041f00000r			; 30
	DD	040e00000r			; 7
	DD	042040000r			; 33
	DD	03f800000r			; 1
	DD	042180000r			; 38
	DD	040a00000r			; 5
	DD	042280000r			; 42
	DD	040a00000r			; 5
	DD	042340000r			; 45
	DD	041400000r			; 12
	DD	042400000r			; 48
	DD	041a00000r			; 20
	DD	042500000r			; 52
	DD	041a00000r			; 20
	DD	042680000r			; 58
	DD	041b80000r			; 23
	DD	042740000r			; 61
	DD	041b00000r			; 22
	DD	0427c0000r			; 63
	DD	041b00000r			; 22
	DD	042840000r			; 66
	DD	041c80000r			; 25
	DD	042880000r			; 68
	DD	041a00000r			; 20
	DD	0428c0000r			; 70
	DD	041c00000r			; 24
	DD	042960000r			; 75
	DD	041c00000r			; 24
	DD	0429a0000r			; 77
	DD	041f80000r			; 31
	DD	042a00000r			; 80
	DD	041f80000r			; 31
	DD	042a60000r			; 83
	DD	042040000r			; 33
	DD	042b00000r			; 88
	DD	041f80000r			; 31
	DD	042b80000r			; 92
	DD	0423c0000r			; 47
	DD	042ce0000r			; 103
	DD	042380000r			; 46
	DD	042d20000r			; 105
	DD	0423c0000r			; 47
	DD	042d60000r			; 107
	DD	042340000r			; 45
	DD	042e00000r			; 112
	DD	042400000r			; 48
	DD	042e40000r			; 114
	DD	042380000r			; 46
	DD	042ea0000r			; 117
	DD	0422c0000r			; 43
	DD	043000000r			; 128
_DATA	ENDS
;	COMDAT ?max_digits10@?$numeric_limits@N@std@@2HB
CONST	SEGMENT
?max_digits10@?$numeric_limits@N@std@@2HB DD 011H	; std::numeric_limits<double>::max_digits10
CONST	ENDS
;	COMDAT ?digits10@?$numeric_limits@N@std@@2HB
CONST	SEGMENT
?digits10@?$numeric_limits@N@std@@2HB DD 0fH		; std::numeric_limits<double>::digits10
CONST	ENDS
;	COMDAT ?digits@?$numeric_limits@N@std@@2HB
CONST	SEGMENT
?digits@?$numeric_limits@N@std@@2HB DD 035H		; std::numeric_limits<double>::digits
CONST	ENDS
;	COMDAT ?value@?$integral_constant@I$0A@@std@@2IB
CONST	SEGMENT
?value@?$integral_constant@I$0A@@std@@2IB DD 00H	; std::integral_constant<unsigned int,0>::value
CONST	ENDS
;	COMDAT ?min_exponent10@?$numeric_limits@M@std@@2HB
CONST	SEGMENT
?min_exponent10@?$numeric_limits@M@std@@2HB DD 0ffffffdbH ; std::numeric_limits<float>::min_exponent10
CONST	ENDS
;	COMDAT ?min_exponent@?$numeric_limits@M@std@@2HB
CONST	SEGMENT
?min_exponent@?$numeric_limits@M@std@@2HB DD 0ffffff83H	; std::numeric_limits<float>::min_exponent
CONST	ENDS
;	COMDAT ?max_exponent10@?$numeric_limits@M@std@@2HB
CONST	SEGMENT
?max_exponent10@?$numeric_limits@M@std@@2HB DD 026H	; std::numeric_limits<float>::max_exponent10
CONST	ENDS
;	COMDAT ?none@?$_Locbase@H@std@@2HB
CONST	SEGMENT
?none@?$_Locbase@H@std@@2HB DD 00H			; std::_Locbase<int>::none
CONST	ENDS
;	COMDAT ?all@?$_Locbase@H@std@@2HB
CONST	SEGMENT
?all@?$_Locbase@H@std@@2HB DD 03fH			; std::_Locbase<int>::all
CONST	ENDS
;	COMDAT ?max_exponent@?$numeric_limits@M@std@@2HB
CONST	SEGMENT
?max_exponent@?$numeric_limits@M@std@@2HB DD 080H	; std::numeric_limits<float>::max_exponent
CONST	ENDS
;	COMDAT ?messages@?$_Locbase@H@std@@2HB
CONST	SEGMENT
?messages@?$_Locbase@H@std@@2HB DD 020H			; std::_Locbase<int>::messages
CONST	ENDS
;	COMDAT ?time@?$_Locbase@H@std@@2HB
CONST	SEGMENT
?time@?$_Locbase@H@std@@2HB DD 010H			; std::_Locbase<int>::time
CONST	ENDS
;	COMDAT ?max_digits10@?$numeric_limits@M@std@@2HB
CONST	SEGMENT
?max_digits10@?$numeric_limits@M@std@@2HB DD 09H	; std::numeric_limits<float>::max_digits10
CONST	ENDS
;	COMDAT ?numeric@?$_Locbase@H@std@@2HB
CONST	SEGMENT
?numeric@?$_Locbase@H@std@@2HB DD 08H			; std::_Locbase<int>::numeric
CONST	ENDS
;	COMDAT ?digits10@?$numeric_limits@M@std@@2HB
CONST	SEGMENT
?digits10@?$numeric_limits@M@std@@2HB DD 06H		; std::numeric_limits<float>::digits10
CONST	ENDS
;	COMDAT ?monetary@?$_Locbase@H@std@@2HB
CONST	SEGMENT
?monetary@?$_Locbase@H@std@@2HB DD 04H			; std::_Locbase<int>::monetary
CONST	ENDS
;	COMDAT ?ctype@?$_Locbase@H@std@@2HB
CONST	SEGMENT
?ctype@?$_Locbase@H@std@@2HB DD 02H			; std::_Locbase<int>::ctype
CONST	ENDS
;	COMDAT ?digits@?$numeric_limits@M@std@@2HB
CONST	SEGMENT
?digits@?$numeric_limits@M@std@@2HB DD 018H		; std::numeric_limits<float>::digits
CONST	ENDS
;	COMDAT ?collate@?$_Locbase@H@std@@2HB
CONST	SEGMENT
?collate@?$_Locbase@H@std@@2HB DD 01H			; std::_Locbase<int>::collate
CONST	ENDS
;	COMDAT ?digits10@?$numeric_limits@_K@std@@2HB
CONST	SEGMENT
?digits10@?$numeric_limits@_K@std@@2HB DD 013H		; std::numeric_limits<unsigned __int64>::digits10
CONST	ENDS
;	COMDAT ?digits@?$numeric_limits@_K@std@@2HB
CONST	SEGMENT
?digits@?$numeric_limits@_K@std@@2HB DD 040H		; std::numeric_limits<unsigned __int64>::digits
CONST	ENDS
;	COMDAT ?is_signed@?$numeric_limits@_K@std@@2_NB
CONST	SEGMENT
?is_signed@?$numeric_limits@_K@std@@2_NB DB 00H		; std::numeric_limits<unsigned __int64>::is_signed
CONST	ENDS
;	COMDAT ?digits10@?$numeric_limits@_J@std@@2HB
CONST	SEGMENT
?digits10@?$numeric_limits@_J@std@@2HB DD 012H		; std::numeric_limits<__int64>::digits10
CONST	ENDS
;	COMDAT ?digits@?$numeric_limits@_J@std@@2HB
CONST	SEGMENT
?digits@?$numeric_limits@_J@std@@2HB DD 03fH		; std::numeric_limits<__int64>::digits
CONST	ENDS
;	COMDAT ?is_signed@?$numeric_limits@_J@std@@2_NB
CONST	SEGMENT
?is_signed@?$numeric_limits@_J@std@@2_NB DB 01H		; std::numeric_limits<__int64>::is_signed
CONST	ENDS
;	COMDAT ?digits10@?$numeric_limits@K@std@@2HB
CONST	SEGMENT
?digits10@?$numeric_limits@K@std@@2HB DD 09H		; std::numeric_limits<unsigned long>::digits10
CONST	ENDS
;	COMDAT ?digits@?$numeric_limits@K@std@@2HB
CONST	SEGMENT
?digits@?$numeric_limits@K@std@@2HB DD 020H		; std::numeric_limits<unsigned long>::digits
CONST	ENDS
;	COMDAT ?is_signed@?$numeric_limits@K@std@@2_NB
CONST	SEGMENT
?is_signed@?$numeric_limits@K@std@@2_NB DB 00H		; std::numeric_limits<unsigned long>::is_signed
CONST	ENDS
;	COMDAT ?digits10@?$numeric_limits@J@std@@2HB
CONST	SEGMENT
?digits10@?$numeric_limits@J@std@@2HB DD 09H		; std::numeric_limits<long>::digits10
CONST	ENDS
;	COMDAT ?digits@?$numeric_limits@J@std@@2HB
CONST	SEGMENT
?digits@?$numeric_limits@J@std@@2HB DD 01fH		; std::numeric_limits<long>::digits
CONST	ENDS
;	COMDAT ?is_signed@?$numeric_limits@J@std@@2_NB
CONST	SEGMENT
?is_signed@?$numeric_limits@J@std@@2_NB DB 01H		; std::numeric_limits<long>::is_signed
CONST	ENDS
;	COMDAT ?digits10@?$numeric_limits@I@std@@2HB
CONST	SEGMENT
?digits10@?$numeric_limits@I@std@@2HB DD 09H		; std::numeric_limits<unsigned int>::digits10
CONST	ENDS
;	COMDAT ?digits@?$numeric_limits@I@std@@2HB
CONST	SEGMENT
?digits@?$numeric_limits@I@std@@2HB DD 020H		; std::numeric_limits<unsigned int>::digits
CONST	ENDS
;	COMDAT ?is_signed@?$numeric_limits@I@std@@2_NB
CONST	SEGMENT
?is_signed@?$numeric_limits@I@std@@2_NB DB 00H		; std::numeric_limits<unsigned int>::is_signed
CONST	ENDS
;	COMDAT ?digits10@?$numeric_limits@H@std@@2HB
CONST	SEGMENT
?digits10@?$numeric_limits@H@std@@2HB DD 09H		; std::numeric_limits<int>::digits10
CONST	ENDS
;	COMDAT ?digits@?$numeric_limits@H@std@@2HB
CONST	SEGMENT
?digits@?$numeric_limits@H@std@@2HB DD 01fH		; std::numeric_limits<int>::digits
CONST	ENDS
;	COMDAT ?value@?$_Sizeof@HU_Nil@std@@U12@U12@U12@U12@U12@U12@@std@@2IB
CONST	SEGMENT
?value@?$_Sizeof@HU_Nil@std@@U12@U12@U12@U12@U12@U12@@std@@2IB DD 01H ; std::_Sizeof<int,std::_Nil,std::_Nil,std::_Nil,std::_Nil,std::_Nil,std::_Nil,std::_Nil>::value
CONST	ENDS
;	COMDAT ?is_signed@?$numeric_limits@H@std@@2_NB
CONST	SEGMENT
?is_signed@?$numeric_limits@H@std@@2_NB DB 01H		; std::numeric_limits<int>::is_signed
CONST	ENDS
;	COMDAT ?digits10@?$numeric_limits@G@std@@2HB
CONST	SEGMENT
?digits10@?$numeric_limits@G@std@@2HB DD 04H		; std::numeric_limits<unsigned short>::digits10
CONST	ENDS
;	COMDAT ?digits@?$numeric_limits@G@std@@2HB
CONST	SEGMENT
?digits@?$numeric_limits@G@std@@2HB DD 010H		; std::numeric_limits<unsigned short>::digits
CONST	ENDS
;	COMDAT ?is_signed@?$numeric_limits@G@std@@2_NB
CONST	SEGMENT
?is_signed@?$numeric_limits@G@std@@2_NB DB 00H		; std::numeric_limits<unsigned short>::is_signed
CONST	ENDS
;	COMDAT ?_Stream_err@failure@ios_base@std@@0W4io_errc@43@B
CONST	SEGMENT
?_Stream_err@failure@ios_base@std@@0W4io_errc@43@B DD 01H ; std::ios_base::failure::_Stream_err
CONST	ENDS
;	COMDAT ?digits10@?$numeric_limits@F@std@@2HB
CONST	SEGMENT
?digits10@?$numeric_limits@F@std@@2HB DD 04H		; std::numeric_limits<short>::digits10
CONST	ENDS
;	COMDAT ?digits@?$numeric_limits@F@std@@2HB
CONST	SEGMENT
?digits@?$numeric_limits@F@std@@2HB DD 0fH		; std::numeric_limits<short>::digits
CONST	ENDS
;	COMDAT ?is_signed@?$numeric_limits@F@std@@2_NB
CONST	SEGMENT
?is_signed@?$numeric_limits@F@std@@2_NB DB 01H		; std::numeric_limits<short>::is_signed
CONST	ENDS
;	COMDAT ?end@?$_Iosb@H@std@@2W4_Seekdir@12@B
CONST	SEGMENT
?end@?$_Iosb@H@std@@2W4_Seekdir@12@B DD 02H		; std::_Iosb<int>::end
CONST	ENDS
;	COMDAT ?value@?$integral_constant@_N$00@std@@2_NB
CONST	SEGMENT
?value@?$integral_constant@_N$00@std@@2_NB DB 01H	; std::integral_constant<bool,1>::value
CONST	ENDS
;	COMDAT ?cur@?$_Iosb@H@std@@2W4_Seekdir@12@B
CONST	SEGMENT
?cur@?$_Iosb@H@std@@2W4_Seekdir@12@B DD 01H		; std::_Iosb<int>::cur
CONST	ENDS
;	COMDAT ?beg@?$_Iosb@H@std@@2W4_Seekdir@12@B
CONST	SEGMENT
?beg@?$_Iosb@H@std@@2W4_Seekdir@12@B DD 00H		; std::_Iosb<int>::beg
CONST	ENDS
;	COMDAT ?binary@?$_Iosb@H@std@@2W4_Openmode@12@B
CONST	SEGMENT
?binary@?$_Iosb@H@std@@2W4_Openmode@12@B DD 020H	; std::_Iosb<int>::binary
CONST	ENDS
;	COMDAT ?digits10@?$numeric_limits@E@std@@2HB
CONST	SEGMENT
?digits10@?$numeric_limits@E@std@@2HB DD 02H		; std::numeric_limits<unsigned char>::digits10
CONST	ENDS
;	COMDAT ?_Noreplace@?$_Iosb@H@std@@2W4_Openmode@12@B
CONST	SEGMENT
?_Noreplace@?$_Iosb@H@std@@2W4_Openmode@12@B DD 080H	; std::_Iosb<int>::_Noreplace
CONST	ENDS
;	COMDAT ?digits@?$numeric_limits@E@std@@2HB
CONST	SEGMENT
?digits@?$numeric_limits@E@std@@2HB DD 08H		; std::numeric_limits<unsigned char>::digits
CONST	ENDS
;	COMDAT ?value@?$integral_constant@_N$0A@@std@@2_NB
CONST	SEGMENT
?value@?$integral_constant@_N$0A@@std@@2_NB DB 00H	; std::integral_constant<bool,0>::value
CONST	ENDS
;	COMDAT ?_Nocreate@?$_Iosb@H@std@@2W4_Openmode@12@B
CONST	SEGMENT
?_Nocreate@?$_Iosb@H@std@@2W4_Openmode@12@B DD 040H	; std::_Iosb<int>::_Nocreate
CONST	ENDS
;	COMDAT ?is_signed@?$numeric_limits@E@std@@2_NB
CONST	SEGMENT
?is_signed@?$numeric_limits@E@std@@2_NB DB 00H		; std::numeric_limits<unsigned char>::is_signed
CONST	ENDS
;	COMDAT ?trunc@?$_Iosb@H@std@@2W4_Openmode@12@B
CONST	SEGMENT
?trunc@?$_Iosb@H@std@@2W4_Openmode@12@B DD 010H		; std::_Iosb<int>::trunc
CONST	ENDS
;	COMDAT ?app@?$_Iosb@H@std@@2W4_Openmode@12@B
CONST	SEGMENT
?app@?$_Iosb@H@std@@2W4_Openmode@12@B DD 08H		; std::_Iosb<int>::app
CONST	ENDS
;	COMDAT ?ate@?$_Iosb@H@std@@2W4_Openmode@12@B
CONST	SEGMENT
?ate@?$_Iosb@H@std@@2W4_Openmode@12@B DD 04H		; std::_Iosb<int>::ate
CONST	ENDS
;	COMDAT ?out@?$_Iosb@H@std@@2W4_Openmode@12@B
CONST	SEGMENT
?out@?$_Iosb@H@std@@2W4_Openmode@12@B DD 02H		; std::_Iosb<int>::out
CONST	ENDS
;	COMDAT ?in@?$_Iosb@H@std@@2W4_Openmode@12@B
CONST	SEGMENT
?in@?$_Iosb@H@std@@2W4_Openmode@12@B DD 01H		; std::_Iosb<int>::in
CONST	ENDS
;	COMDAT ?_Hardfail@?$_Iosb@H@std@@2W4_Iostate@12@B
CONST	SEGMENT
?_Hardfail@?$_Iosb@H@std@@2W4_Iostate@12@B DD 010H	; std::_Iosb<int>::_Hardfail
CONST	ENDS
;	COMDAT ?badbit@?$_Iosb@H@std@@2W4_Iostate@12@B
CONST	SEGMENT
?badbit@?$_Iosb@H@std@@2W4_Iostate@12@B DD 04H		; std::_Iosb<int>::badbit
CONST	ENDS
;	COMDAT ?failbit@?$_Iosb@H@std@@2W4_Iostate@12@B
CONST	SEGMENT
?failbit@?$_Iosb@H@std@@2W4_Iostate@12@B DD 02H		; std::_Iosb<int>::failbit
CONST	ENDS
;	COMDAT ?eofbit@?$_Iosb@H@std@@2W4_Iostate@12@B
CONST	SEGMENT
?eofbit@?$_Iosb@H@std@@2W4_Iostate@12@B DD 01H		; std::_Iosb<int>::eofbit
CONST	ENDS
;	COMDAT ?digits10@?$numeric_limits@C@std@@2HB
CONST	SEGMENT
?digits10@?$numeric_limits@C@std@@2HB DD 02H		; std::numeric_limits<signed char>::digits10
CONST	ENDS
;	COMDAT ?goodbit@?$_Iosb@H@std@@2W4_Iostate@12@B
CONST	SEGMENT
?goodbit@?$_Iosb@H@std@@2W4_Iostate@12@B DD 00H		; std::_Iosb<int>::goodbit
CONST	ENDS
;	COMDAT ?digits@?$numeric_limits@C@std@@2HB
CONST	SEGMENT
?digits@?$numeric_limits@C@std@@2HB DD 07H		; std::numeric_limits<signed char>::digits
CONST	ENDS
;	COMDAT ?is_signed@?$numeric_limits@C@std@@2_NB
CONST	SEGMENT
?is_signed@?$numeric_limits@C@std@@2_NB DB 01H		; std::numeric_limits<signed char>::is_signed
CONST	ENDS
;	COMDAT ?floatfield@?$_Iosb@H@std@@2W4_Fmtflags@12@B
CONST	SEGMENT
?floatfield@?$_Iosb@H@std@@2W4_Fmtflags@12@B DD 03000H	; std::_Iosb<int>::floatfield
CONST	ENDS
;	COMDAT ?basefield@?$_Iosb@H@std@@2W4_Fmtflags@12@B
CONST	SEGMENT
?basefield@?$_Iosb@H@std@@2W4_Fmtflags@12@B DD 0e00H	; std::_Iosb<int>::basefield
CONST	ENDS
;	COMDAT ?adjustfield@?$_Iosb@H@std@@2W4_Fmtflags@12@B
CONST	SEGMENT
?adjustfield@?$_Iosb@H@std@@2W4_Fmtflags@12@B DD 01c0H	; std::_Iosb<int>::adjustfield
CONST	ENDS
CONST	SEGMENT
_L_2	DD	03f317218r			; 0.693147
_NEAR_CLIP DD	03f800000r			; 1
CONST	ENDS
;	COMDAT ?_Stdio@?$_Iosb@H@std@@2W4_Fmtflags@12@B
CONST	SEGMENT
?_Stdio@?$_Iosb@H@std@@2W4_Fmtflags@12@B DD 08000H	; std::_Iosb<int>::_Stdio
CONST	ENDS
;	COMDAT ?boolalpha@?$_Iosb@H@std@@2W4_Fmtflags@12@B
CONST	SEGMENT
?boolalpha@?$_Iosb@H@std@@2W4_Fmtflags@12@B DD 04000H	; std::_Iosb<int>::boolalpha
CONST	ENDS
;	COMDAT ?hexfloat@?$_Iosb@H@std@@2W4_Fmtflags@12@B
CONST	SEGMENT
?hexfloat@?$_Iosb@H@std@@2W4_Fmtflags@12@B DD 03000H	; std::_Iosb<int>::hexfloat
CONST	ENDS
;	COMDAT ?fixed@?$_Iosb@H@std@@2W4_Fmtflags@12@B
CONST	SEGMENT
?fixed@?$_Iosb@H@std@@2W4_Fmtflags@12@B DD 02000H	; std::_Iosb<int>::fixed
CONST	ENDS
;	COMDAT ?scientific@?$_Iosb@H@std@@2W4_Fmtflags@12@B
CONST	SEGMENT
?scientific@?$_Iosb@H@std@@2W4_Fmtflags@12@B DD 01000H	; std::_Iosb<int>::scientific
CONST	ENDS
;	COMDAT ?hex@?$_Iosb@H@std@@2W4_Fmtflags@12@B
CONST	SEGMENT
?hex@?$_Iosb@H@std@@2W4_Fmtflags@12@B DD 0800H		; std::_Iosb<int>::hex
CONST	ENDS
;	COMDAT ?oct@?$_Iosb@H@std@@2W4_Fmtflags@12@B
CONST	SEGMENT
?oct@?$_Iosb@H@std@@2W4_Fmtflags@12@B DD 0400H		; std::_Iosb<int>::oct
CONST	ENDS
;	COMDAT ?digits10@?$numeric_limits@_N@std@@2HB
CONST	SEGMENT
?digits10@?$numeric_limits@_N@std@@2HB DD 00H		; std::numeric_limits<bool>::digits10
CONST	ENDS
;	COMDAT ?dec@?$_Iosb@H@std@@2W4_Fmtflags@12@B
CONST	SEGMENT
?dec@?$_Iosb@H@std@@2W4_Fmtflags@12@B DD 0200H		; std::_Iosb<int>::dec
CONST	ENDS
;	COMDAT ?internal@?$_Iosb@H@std@@2W4_Fmtflags@12@B
CONST	SEGMENT
?internal@?$_Iosb@H@std@@2W4_Fmtflags@12@B DD 0100H	; std::_Iosb<int>::internal
CONST	ENDS
;	COMDAT ?digits@?$numeric_limits@_N@std@@2HB
CONST	SEGMENT
?digits@?$numeric_limits@_N@std@@2HB DD 01H		; std::numeric_limits<bool>::digits
CONST	ENDS
;	COMDAT ?right@?$_Iosb@H@std@@2W4_Fmtflags@12@B
CONST	SEGMENT
?right@?$_Iosb@H@std@@2W4_Fmtflags@12@B DD 080H		; std::_Iosb<int>::right
CONST	ENDS
;	COMDAT ?is_signed@?$numeric_limits@_N@std@@2_NB
CONST	SEGMENT
?is_signed@?$numeric_limits@_N@std@@2_NB DB 00H		; std::numeric_limits<bool>::is_signed
CONST	ENDS
;	COMDAT ?left@?$_Iosb@H@std@@2W4_Fmtflags@12@B
CONST	SEGMENT
?left@?$_Iosb@H@std@@2W4_Fmtflags@12@B DD 040H		; std::_Iosb<int>::left
CONST	ENDS
;	COMDAT ?is_modulo@?$numeric_limits@_N@std@@2_NB
CONST	SEGMENT
?is_modulo@?$numeric_limits@_N@std@@2_NB DB 00H		; std::numeric_limits<bool>::is_modulo
CONST	ENDS
;	COMDAT ?showpos@?$_Iosb@H@std@@2W4_Fmtflags@12@B
CONST	SEGMENT
?showpos@?$_Iosb@H@std@@2W4_Fmtflags@12@B DD 020H	; std::_Iosb<int>::showpos
CONST	ENDS
;	COMDAT ?showpoint@?$_Iosb@H@std@@2W4_Fmtflags@12@B
CONST	SEGMENT
?showpoint@?$_Iosb@H@std@@2W4_Fmtflags@12@B DD 010H	; std::_Iosb<int>::showpoint
CONST	ENDS
;	COMDAT ?showbase@?$_Iosb@H@std@@2W4_Fmtflags@12@B
CONST	SEGMENT
?showbase@?$_Iosb@H@std@@2W4_Fmtflags@12@B DD 08H	; std::_Iosb<int>::showbase
CONST	ENDS
;	COMDAT ?uppercase@?$_Iosb@H@std@@2W4_Fmtflags@12@B
CONST	SEGMENT
?uppercase@?$_Iosb@H@std@@2W4_Fmtflags@12@B DD 04H	; std::_Iosb<int>::uppercase
CONST	ENDS
;	COMDAT ?unitbuf@?$_Iosb@H@std@@2W4_Fmtflags@12@B
CONST	SEGMENT
?unitbuf@?$_Iosb@H@std@@2W4_Fmtflags@12@B DD 02H	; std::_Iosb<int>::unitbuf
CONST	ENDS
;	COMDAT ?skipws@?$_Iosb@H@std@@2W4_Fmtflags@12@B
CONST	SEGMENT
?skipws@?$_Iosb@H@std@@2W4_Fmtflags@12@B DD 01H		; std::_Iosb<int>::skipws
CONST	ENDS
;	COMDAT ?digits10@?$numeric_limits@_W@std@@2HB
CONST	SEGMENT
?digits10@?$numeric_limits@_W@std@@2HB DD 04H		; std::numeric_limits<wchar_t>::digits10
CONST	ENDS
;	COMDAT ?digits@?$numeric_limits@_W@std@@2HB
CONST	SEGMENT
?digits@?$numeric_limits@_W@std@@2HB DD 010H		; std::numeric_limits<wchar_t>::digits
CONST	ENDS
;	COMDAT ?is_signed@?$numeric_limits@_W@std@@2_NB
CONST	SEGMENT
?is_signed@?$numeric_limits@_W@std@@2_NB DB 00H		; std::numeric_limits<wchar_t>::is_signed
CONST	ENDS
;	COMDAT ?digits10@?$numeric_limits@D@std@@2HB
CONST	SEGMENT
?digits10@?$numeric_limits@D@std@@2HB DD 02H		; std::numeric_limits<char>::digits10
CONST	ENDS
;	COMDAT ?digits@?$numeric_limits@D@std@@2HB
CONST	SEGMENT
?digits@?$numeric_limits@D@std@@2HB DD 07H		; std::numeric_limits<char>::digits
CONST	ENDS
;	COMDAT ?is_signed@?$numeric_limits@D@std@@2_NB
CONST	SEGMENT
?is_signed@?$numeric_limits@D@std@@2_NB DB 01H		; std::numeric_limits<char>::is_signed
CONST	ENDS
;	COMDAT ?radix@_Num_float_base@std@@2HB
CONST	SEGMENT
?radix@_Num_float_base@std@@2HB DD 02H			; std::_Num_float_base::radix
CONST	ENDS
;	COMDAT ?round_style@_Num_float_base@std@@2W4float_round_style@2@B
CONST	SEGMENT
?round_style@_Num_float_base@std@@2W4float_round_style@2@B DD 01H ; std::_Num_float_base::round_style
CONST	ENDS
;	COMDAT ?traps@_Num_float_base@std@@2_NB
CONST	SEGMENT
?traps@_Num_float_base@std@@2_NB DB 00H			; std::_Num_float_base::traps
CONST	ENDS
;	COMDAT ?tinyness_before@_Num_float_base@std@@2_NB
CONST	SEGMENT
?tinyness_before@_Num_float_base@std@@2_NB DB 01H	; std::_Num_float_base::tinyness_before
CONST	ENDS
;	COMDAT ?is_specialized@_Num_float_base@std@@2_NB
CONST	SEGMENT
?is_specialized@_Num_float_base@std@@2_NB DB 01H	; std::_Num_float_base::is_specialized
CONST	ENDS
;	COMDAT ?is_signed@_Num_float_base@std@@2_NB
CONST	SEGMENT
?is_signed@_Num_float_base@std@@2_NB DB 01H		; std::_Num_float_base::is_signed
CONST	ENDS
;	COMDAT ?is_modulo@_Num_float_base@std@@2_NB
CONST	SEGMENT
?is_modulo@_Num_float_base@std@@2_NB DB 00H		; std::_Num_float_base::is_modulo
CONST	ENDS
;	COMDAT ?is_integer@_Num_float_base@std@@2_NB
CONST	SEGMENT
?is_integer@_Num_float_base@std@@2_NB DB 00H		; std::_Num_float_base::is_integer
CONST	ENDS
;	COMDAT ?is_iec559@_Num_float_base@std@@2_NB
CONST	SEGMENT
?is_iec559@_Num_float_base@std@@2_NB DB 01H		; std::_Num_float_base::is_iec559
CONST	ENDS
;	COMDAT ?is_exact@_Num_float_base@std@@2_NB
CONST	SEGMENT
?is_exact@_Num_float_base@std@@2_NB DB 00H		; std::_Num_float_base::is_exact
CONST	ENDS
;	COMDAT ?is_bounded@_Num_float_base@std@@2_NB
CONST	SEGMENT
?is_bounded@_Num_float_base@std@@2_NB DB 01H		; std::_Num_float_base::is_bounded
CONST	ENDS
;	COMDAT ?has_signaling_NaN@_Num_float_base@std@@2_NB
CONST	SEGMENT
?has_signaling_NaN@_Num_float_base@std@@2_NB DB 01H	; std::_Num_float_base::has_signaling_NaN
CONST	ENDS
;	COMDAT ?has_quiet_NaN@_Num_float_base@std@@2_NB
CONST	SEGMENT
?has_quiet_NaN@_Num_float_base@std@@2_NB DB 01H		; std::_Num_float_base::has_quiet_NaN
CONST	ENDS
;	COMDAT ?has_infinity@_Num_float_base@std@@2_NB
CONST	SEGMENT
?has_infinity@_Num_float_base@std@@2_NB DB 01H		; std::_Num_float_base::has_infinity
CONST	ENDS
;	COMDAT ?CMPDIRTYDATA_INTERVAL@FalconEntity@@2KB
CONST	SEGMENT
?CMPDIRTYDATA_INTERVAL@FalconEntity@@2KB DD 0c8H	; FalconEntity::CMPDIRTYDATA_INTERVAL
CONST	ENDS
;	COMDAT ?SIMDIRTYDATA_INTERVAL@FalconEntity@@2KB
CONST	SEGMENT
?SIMDIRTYDATA_INTERVAL@FalconEntity@@2KB DD 0c8H	; FalconEntity::SIMDIRTYDATA_INTERVAL
CONST	ENDS
;	COMDAT ?has_denorm_loss@_Num_float_base@std@@2_NB
CONST	SEGMENT
?has_denorm_loss@_Num_float_base@std@@2_NB DB 01H	; std::_Num_float_base::has_denorm_loss
CONST	ENDS
;	COMDAT ?has_denorm@_Num_float_base@std@@2W4float_denorm_style@2@B
CONST	SEGMENT
?has_denorm@_Num_float_base@std@@2W4float_denorm_style@2@B DD 01H ; std::_Num_float_base::has_denorm
CONST	ENDS
;	COMDAT ?radix@_Num_int_base@std@@2HB
CONST	SEGMENT
?radix@_Num_int_base@std@@2HB DD 02H			; std::_Num_int_base::radix
CONST	ENDS
;	COMDAT ?is_specialized@_Num_int_base@std@@2_NB
CONST	SEGMENT
?is_specialized@_Num_int_base@std@@2_NB DB 01H		; std::_Num_int_base::is_specialized
CONST	ENDS
;	COMDAT ?is_modulo@_Num_int_base@std@@2_NB
CONST	SEGMENT
?is_modulo@_Num_int_base@std@@2_NB DB 01H		; std::_Num_int_base::is_modulo
CONST	ENDS
;	COMDAT ?is_integer@_Num_int_base@std@@2_NB
CONST	SEGMENT
?is_integer@_Num_int_base@std@@2_NB DB 01H		; std::_Num_int_base::is_integer
CONST	ENDS
;	COMDAT ?is_exact@_Num_int_base@std@@2_NB
CONST	SEGMENT
?is_exact@_Num_int_base@std@@2_NB DB 01H		; std::_Num_int_base::is_exact
CONST	ENDS
;	COMDAT ?is_bounded@_Num_int_base@std@@2_NB
CONST	SEGMENT
?is_bounded@_Num_int_base@std@@2_NB DB 01H		; std::_Num_int_base::is_bounded
CONST	ENDS
;	COMDAT ?radix@_Num_base@std@@2HB
CONST	SEGMENT
?radix@_Num_base@std@@2HB DD 00H			; std::_Num_base::radix
CONST	ENDS
;	COMDAT ?min_exponent10@_Num_base@std@@2HB
CONST	SEGMENT
?min_exponent10@_Num_base@std@@2HB DD 00H		; std::_Num_base::min_exponent10
CONST	ENDS
;	COMDAT ?min_exponent@_Num_base@std@@2HB
CONST	SEGMENT
?min_exponent@_Num_base@std@@2HB DD 00H			; std::_Num_base::min_exponent
CONST	ENDS
;	COMDAT ?max_exponent10@_Num_base@std@@2HB
CONST	SEGMENT
?max_exponent10@_Num_base@std@@2HB DD 00H		; std::_Num_base::max_exponent10
CONST	ENDS
;	COMDAT ?max_exponent@_Num_base@std@@2HB
CONST	SEGMENT
?max_exponent@_Num_base@std@@2HB DD 00H			; std::_Num_base::max_exponent
CONST	ENDS
;	COMDAT ?max_digits10@_Num_base@std@@2HB
CONST	SEGMENT
?max_digits10@_Num_base@std@@2HB DD 00H			; std::_Num_base::max_digits10
CONST	ENDS
;	COMDAT ?digits10@_Num_base@std@@2HB
CONST	SEGMENT
?digits10@_Num_base@std@@2HB DD 00H			; std::_Num_base::digits10
CONST	ENDS
;	COMDAT ?digits@_Num_base@std@@2HB
CONST	SEGMENT
?digits@_Num_base@std@@2HB DD 00H			; std::_Num_base::digits
CONST	ENDS
;	COMDAT ?round_style@_Num_base@std@@2W4float_round_style@2@B
CONST	SEGMENT
?round_style@_Num_base@std@@2W4float_round_style@2@B DD 00H ; std::_Num_base::round_style
CONST	ENDS
;	COMDAT ?traps@_Num_base@std@@2_NB
CONST	SEGMENT
?traps@_Num_base@std@@2_NB DB 00H			; std::_Num_base::traps
CONST	ENDS
PUBLIC	_fabsf
PUBLIC	_cosf
PUBLIC	?cos@@YAMM@Z					; cos
PUBLIC	?fabs@@YAMM@Z					; fabs
PUBLIC	?XPos@VuEntity@@QBEMXZ				; VuEntity::XPos
PUBLIC	?YPos@VuEntity@@QBEMXZ				; VuEntity::YPos
PUBLIC	?ZPos@VuEntity@@QBEMXZ				; VuEntity::ZPos
PUBLIC	??2@YAPAXIPAX@Z					; operator new
PUBLIC	??3@YAXPAX0@Z					; operator delete
PUBLIC	?length@?$char_traits@D@std@@SAIPBD@Z		; std::char_traits<char>::length
PUBLIC	?copy@?$char_traits@D@std@@SAPADPADPBDI@Z	; std::char_traits<char>::copy
PUBLIC	?move@?$char_traits@D@std@@SAPADPADPBDI@Z	; std::char_traits<char>::move
PUBLIC	?assign@?$char_traits@D@std@@SAXAADABD@Z	; std::char_traits<char>::assign
PUBLIC	??0?$allocator@D@std@@QAE@XZ			; std::allocator<char>::allocator<char>
PUBLIC	?deallocate@?$allocator@D@std@@QAEXPADI@Z	; std::allocator<char>::deallocate
PUBLIC	?allocate@?$allocator@D@std@@QAEPADI@Z		; std::allocator<char>::allocate
PUBLIC	?max_size@?$allocator@D@std@@QBEIXZ		; std::allocator<char>::max_size
PUBLIC	?max_size@?$allocator_traits@V?$allocator@D@std@@@std@@SAIABV?$allocator@D@2@@Z ; std::allocator_traits<std::allocator<char> >::max_size
PUBLIC	??0?$_Wrap_alloc@V?$allocator@D@std@@@std@@QAE@XZ ; std::_Wrap_alloc<std::allocator<char> >::_Wrap_alloc<std::allocator<char> >
PUBLIC	?allocate@?$_Wrap_alloc@V?$allocator@D@std@@@std@@QAEPADI@Z ; std::_Wrap_alloc<std::allocator<char> >::allocate
PUBLIC	?deallocate@?$_Wrap_alloc@V?$allocator@D@std@@@std@@QAEXPADI@Z ; std::_Wrap_alloc<std::allocator<char> >::deallocate
PUBLIC	?max_size@?$_Wrap_alloc@V?$allocator@D@std@@@std@@QBEIXZ ; std::_Wrap_alloc<std::allocator<char> >::max_size
PUBLIC	??0?$_String_val@U?$_Simple_types@D@std@@@std@@QAE@XZ ; std::_String_val<std::_Simple_types<char> >::_String_val<std::_Simple_types<char> >
PUBLIC	?_Myptr@?$_String_val@U?$_Simple_types@D@std@@@std@@QAEPADXZ ; std::_String_val<std::_Simple_types<char> >::_Myptr
PUBLIC	?_Myptr@?$_String_val@U?$_Simple_types@D@std@@@std@@QBEPBDXZ ; std::_String_val<std::_Simple_types<char> >::_Myptr
PUBLIC	??0?$_String_alloc@$0A@U?$_String_base_types@DV?$allocator@D@std@@@std@@@std@@QAE@ABV?$allocator@D@1@@Z ; std::_String_alloc<0,std::_String_base_types<char,std::allocator<char> > >::_String_alloc<0,std::_String_base_types<char,std::allocator<char> > >
PUBLIC	?_Getal@?$_String_alloc@$0A@U?$_String_base_types@DV?$allocator@D@std@@@std@@@std@@QBE?AU?$_Wrap_alloc@V?$allocator@D@std@@@2@XZ ; std::_String_alloc<0,std::_String_base_types<char,std::allocator<char> > >::_Getal
PUBLIC	??0?$basic_string@DU?$char_traits@D@std@@V?$allocator@D@2@@std@@QAE@PBD@Z ; std::basic_string<char,std::char_traits<char>,std::allocator<char> >::basic_string<char,std::char_traits<char>,std::allocator<char> >
PUBLIC	?assign@?$basic_string@DU?$char_traits@D@std@@V?$allocator@D@2@@std@@QAEAAV12@ABV12@II@Z ; std::basic_string<char,std::char_traits<char>,std::allocator<char> >::assign
PUBLIC	?assign@?$basic_string@DU?$char_traits@D@std@@V?$allocator@D@2@@std@@QAEAAV12@PBDI@Z ; std::basic_string<char,std::char_traits<char>,std::allocator<char> >::assign
PUBLIC	?assign@?$basic_string@DU?$char_traits@D@std@@V?$allocator@D@2@@std@@QAEAAV12@PBD@Z ; std::basic_string<char,std::char_traits<char>,std::allocator<char> >::assign
PUBLIC	?erase@?$basic_string@DU?$char_traits@D@std@@V?$allocator@D@2@@std@@QAEAAV12@I@Z ; std::basic_string<char,std::char_traits<char>,std::allocator<char> >::erase
PUBLIC	?erase@?$basic_string@DU?$char_traits@D@std@@V?$allocator@D@2@@std@@QAEAAV12@II@Z ; std::basic_string<char,std::char_traits<char>,std::allocator<char> >::erase
PUBLIC	?size@?$basic_string@DU?$char_traits@D@std@@V?$allocator@D@2@@std@@QBEIXZ ; std::basic_string<char,std::char_traits<char>,std::allocator<char> >::size
PUBLIC	?max_size@?$basic_string@DU?$char_traits@D@std@@V?$allocator@D@2@@std@@QBEIXZ ; std::basic_string<char,std::char_traits<char>,std::allocator<char> >::max_size
PUBLIC	?_Copy@?$basic_string@DU?$char_traits@D@std@@V?$allocator@D@2@@std@@QAEXII@Z ; std::basic_string<char,std::char_traits<char>,std::allocator<char> >::_Copy
PUBLIC	?_Eos@?$basic_string@DU?$char_traits@D@std@@V?$allocator@D@2@@std@@QAEXI@Z ; std::basic_string<char,std::char_traits<char>,std::allocator<char> >::_Eos
PUBLIC	?_Grow@?$basic_string@DU?$char_traits@D@std@@V?$allocator@D@2@@std@@QAE_NI_N@Z ; std::basic_string<char,std::char_traits<char>,std::allocator<char> >::_Grow
PUBLIC	?_Inside@?$basic_string@DU?$char_traits@D@std@@V?$allocator@D@2@@std@@QAE_NPBD@Z ; std::basic_string<char,std::char_traits<char>,std::allocator<char> >::_Inside
PUBLIC	?_Tidy@?$basic_string@DU?$char_traits@D@std@@V?$allocator@D@2@@std@@QAEX_NI@Z ; std::basic_string<char,std::char_traits<char>,std::allocator<char> >::_Tidy
PUBLIC	?_Xlen@?$basic_string@DU?$char_traits@D@std@@V?$allocator@D@2@@std@@QBEXXZ ; std::basic_string<char,std::char_traits<char>,std::allocator<char> >::_Xlen
PUBLIC	?_Xran@?$basic_string@DU?$char_traits@D@std@@V?$allocator@D@2@@std@@QBEXXZ ; std::basic_string<char,std::char_traits<char>,std::allocator<char> >::_Xran
PUBLIC	?CheckAutoSTPT@ICPClass@@QAEXXZ			; ICPClass::CheckAutoSTPT
PUBLIC	?StepCruise@ICPClass@@QAEXXZ			; ICPClass::StepCruise
PUBLIC	?FindEDR@ICPClass@@QAEXJPAD@Z			; ICPClass::FindEDR
PUBLIC	?InitStuff@ICPClass@@QAEXXZ			; ICPClass::InitStuff
PUBLIC	?ClearStrings@ICPClass@@QAEXXZ			; ICPClass::ClearStrings
PUBLIC	?ClearFlags@ICPClass@@QAEXXZ			; ICPClass::ClearFlags
PUBLIC	?HandleManualInput@ICPClass@@QAEXH@Z		; ICPClass::HandleManualInput
PUBLIC	?ClearInput@ICPClass@@QAEXXZ			; ICPClass::ClearInput
PUBLIC	?CheckMode@ICPClass@@QAEHXZ			; ICPClass::CheckMode
PUBLIC	?PushedSame@ICPClass@@QAEXH@Z			; ICPClass::PushedSame
PUBLIC	?ManualInput@ICPClass@@QAEHXZ			; ICPClass::ManualInput
PUBLIC	?MakeInverted@ICPClass@@QAEXHHH@Z		; ICPClass::MakeInverted
PUBLIC	?FillDEDMatrix@ICPClass@@QAEXHHPADH@Z		; ICPClass::FillDEDMatrix
PUBLIC	?LeaveCNI@ICPClass@@QAEXXZ			; ICPClass::LeaveCNI
PUBLIC	?ClearDigits@ICPClass@@QAEXXZ			; ICPClass::ClearDigits
PUBLIC	?ClearInverted@ICPClass@@QAEXHHH@Z		; ICPClass::ClearInverted
PUBLIC	?ClearString@ICPClass@@QAEXXZ			; ICPClass::ClearString
PUBLIC	?CheckDigits@ICPClass@@QAEXXZ			; ICPClass::CheckDigits
PUBLIC	?ResetSubPages@ICPClass@@QAEXXZ			; ICPClass::ResetSubPages
PUBLIC	?ResetInput@ICPClass@@QAEXXZ			; ICPClass::ResetInput
PUBLIC	?CheckBackupPages@ICPClass@@QAEHXZ		; ICPClass::CheckBackupPages
PUBLIC	?LeaveCNIPage@ICPClass@@QAEXXZ			; ICPClass::LeaveCNIPage
PUBLIC	?GetWind@ICPClass@@QAEXXZ			; ICPClass::GetWind
PUBLIC	?AddSTPT@ICPClass@@QAEXHH@Z			; ICPClass::AddSTPT
PUBLIC	?EWSOnOff@ICPClass@@QAEXXZ			; ICPClass::EWSOnOff
PUBLIC	?StepEWSProg@ICPClass@@QAEXH@Z			; ICPClass::StepEWSProg
PUBLIC	?ShowFlareIndex@ICPClass@@QAEXHH@Z		; ICPClass::ShowFlareIndex
PUBLIC	?ShowChaffIndex@ICPClass@@QAEXHH@Z		; ICPClass::ShowChaffIndex
PUBLIC	?AddUp@ICPClass@@QAEHXZ				; ICPClass::AddUp
PUBLIC	?AddUpFloat@ICPClass@@QAEMXZ			; ICPClass::AddUpFloat
PUBLIC	?AddUpLong@ICPClass@@QAEJXZ			; ICPClass::AddUpLong
PUBLIC	?FillPFLMatrix@ICPClass@@QAEXHHPADH@Z		; ICPClass::FillPFLMatrix
PUBLIC	?ClearPFLLines@ICPClass@@QAEXXZ			; ICPClass::ClearPFLLines
PUBLIC	?SetICPFlag@ICPClass@@QAEXH@Z			; ICPClass::SetICPFlag
PUBLIC	?ClearICPFlag@ICPClass@@QAEXH@Z			; ICPClass::ClearICPFlag
PUBLIC	?IsICPSet@ICPClass@@QAEHH@Z			; ICPClass::IsICPSet
PUBLIC	?SetIFFFlag@ICPClass@@QAEXH@Z			; ICPClass::SetIFFFlag
PUBLIC	?IsIFFSet@ICPClass@@QAEHH@Z			; ICPClass::IsIFFSet
PUBLIC	?FillIFFString@ICPClass@@QAEXPAD@Z		; ICPClass::FillIFFString
PUBLIC	?GetNumScans@ICPClass@@QAEMXZ			; ICPClass::GetNumScans
PUBLIC	?GetINSInfo@ICPClass@@QAEXXZ			; ICPClass::GetINSInfo
PUBLIC	?EWSPGM@AircraftClass@@QAE?AW4EWSPGMSwitch@1@XZ	; AircraftClass::EWSPGM
PUBLIC	?GetMasterMode@FireControlComputer@@QAE?AW4FCCMasterMode@1@XZ ; FireControlComputer::GetMasterMode
PUBLIC	??0id@locale@std@@QAE@I@Z			; std::locale::id::id
PUBLIC	?generic_category@std@@YAABVerror_category@1@XZ	; std::generic_category
PUBLIC	?system_category@std@@YAABVerror_category@1@XZ	; std::system_category
PUBLIC	??0error_category@std@@QAE@XZ			; std::error_category::error_category
PUBLIC	??1error_category@std@@UAE@XZ			; std::error_category::~error_category
PUBLIC	?default_error_condition@error_category@std@@UBE?AVerror_condition@2@H@Z ; std::error_category::default_error_condition
PUBLIC	?equivalent@error_category@std@@UBE_NHABVerror_condition@2@@Z ; std::error_category::equivalent
PUBLIC	?equivalent@error_category@std@@UBE_NABVerror_code@2@H@Z ; std::error_category::equivalent
PUBLIC	??8error_category@std@@QBE_NABV01@@Z		; std::error_category::operator==
PUBLIC	??_Gerror_category@std@@UAEPAXI@Z		; std::error_category::`scalar deleting destructor'
PUBLIC	?value@error_code@std@@QBEHXZ			; std::error_code::value
PUBLIC	?category@error_code@std@@QBEABVerror_category@2@XZ ; std::error_code::category
PUBLIC	??0error_condition@std@@QAE@HABVerror_category@1@@Z ; std::error_condition::error_condition
PUBLIC	?value@error_condition@std@@QBEHXZ		; std::error_condition::value
PUBLIC	?category@error_condition@std@@QBEABVerror_category@2@XZ ; std::error_condition::category
PUBLIC	??8error_condition@std@@QBE_NABV01@@Z		; std::error_condition::operator==
PUBLIC	??0_Generic_error_category@std@@QAE@XZ		; std::_Generic_error_category::_Generic_error_category
PUBLIC	?name@_Generic_error_category@std@@UBEPBDXZ	; std::_Generic_error_category::name
PUBLIC	?message@_Generic_error_category@std@@UBE?AV?$basic_string@DU?$char_traits@D@std@@V?$allocator@D@2@@2@H@Z ; std::_Generic_error_category::message
PUBLIC	??1_Generic_error_category@std@@UAE@XZ		; std::_Generic_error_category::~_Generic_error_category
PUBLIC	??_G_Generic_error_category@std@@UAEPAXI@Z	; std::_Generic_error_category::`scalar deleting destructor'
PUBLIC	??0_Iostream_error_category@std@@QAE@XZ		; std::_Iostream_error_category::_Iostream_error_category
PUBLIC	?name@_Iostream_error_category@std@@UBEPBDXZ	; std::_Iostream_error_category::name
PUBLIC	?message@_Iostream_error_category@std@@UBE?AV?$basic_string@DU?$char_traits@D@std@@V?$allocator@D@2@@2@H@Z ; std::_Iostream_error_category::message
PUBLIC	??1_Iostream_error_category@std@@UAE@XZ		; std::_Iostream_error_category::~_Iostream_error_category
PUBLIC	??_G_Iostream_error_category@std@@UAEPAXI@Z	; std::_Iostream_error_category::`scalar deleting destructor'
PUBLIC	??0_System_error_category@std@@QAE@XZ		; std::_System_error_category::_System_error_category
PUBLIC	?name@_System_error_category@std@@UBEPBDXZ	; std::_System_error_category::name
PUBLIC	?message@_System_error_category@std@@UBE?AV?$basic_string@DU?$char_traits@D@std@@V?$allocator@D@2@@2@H@Z ; std::_System_error_category::message
PUBLIC	?default_error_condition@_System_error_category@std@@UBE?AVerror_condition@2@H@Z ; std::_System_error_category::default_error_condition
PUBLIC	??1_System_error_category@std@@UAE@XZ		; std::_System_error_category::~_System_error_category
PUBLIC	??_G_System_error_category@std@@UAEPAXI@Z	; std::_System_error_category::`scalar deleting destructor'
PUBLIC	??$construct@PADAAPAD@?$_Wrap_alloc@V?$allocator@D@std@@@std@@QAEXPAPADAAPAD@Z ; std::_Wrap_alloc<std::allocator<char> >::construct<char *,char * &>
PUBLIC	??$destroy@PAD@?$_Wrap_alloc@V?$allocator@D@std@@@std@@QAEXPAPAD@Z ; std::_Wrap_alloc<std::allocator<char> >::destroy<char *>
PUBLIC	??$addressof@D@std@@YAPADAAD@Z			; std::addressof<char>
PUBLIC	??$_Allocate@D@std@@YAPADIPAD@Z			; std::_Allocate<char>
PUBLIC	??$forward@AAPAD@std@@YAAAPADAAPAD@Z		; std::forward<char * &>
PUBLIC	??$construct@PADAAPAD@?$allocator_traits@V?$allocator@D@std@@@std@@SAXAAV?$allocator@D@1@PAPADAAPAD@Z ; std::allocator_traits<std::allocator<char> >::construct<char *,char * &>
PUBLIC	??$destroy@PAD@?$allocator_traits@V?$allocator@D@std@@@std@@SAXAAV?$allocator@D@1@PAPAD@Z ; std::allocator_traits<std::allocator<char> >::destroy<char *>
PUBLIC	??$construct@PADAAPAD@?$allocator@D@std@@QAEXPAPADAAPAD@Z ; std::allocator<char>::construct<char *,char * &>
PUBLIC	??$destroy@PAD@?$allocator@D@std@@QAEXPAPAD@Z	; std::allocator<char>::destroy<char *>
PUBLIC	??_C@_00CNPNBAHC@?$AA@				; `string'
PUBLIC	??_7error_category@std@@6B@			; std::error_category::`vftable'
PUBLIC	??_7_Generic_error_category@std@@6B@		; std::_Generic_error_category::`vftable'
PUBLIC	??_C@_07DCLBNMLN@generic?$AA@			; `string'
PUBLIC	??_C@_0O@BFJCFAAK@unknown?5error?$AA@		; `string'
PUBLIC	??_7_Iostream_error_category@std@@6B@		; std::_Iostream_error_category::`vftable'
PUBLIC	??_C@_08LLGCOLLL@iostream?$AA@			; `string'
PUBLIC	??_C@_0BG@PADBLCHM@iostream?5stream?5error?$AA@	; `string'
PUBLIC	??_7_System_error_category@std@@6B@		; std::_System_error_category::`vftable'
PUBLIC	??_C@_06FHFOAHML@system?$AA@			; `string'
PUBLIC	?_Generic_object@?$_Error_objects@H@std@@2V_Generic_error_category@2@A ; std::_Error_objects<int>::_Generic_object
PUBLIC	?_Iostream_object@?$_Error_objects@H@std@@2V_Iostream_error_category@2@A ; std::_Error_objects<int>::_Iostream_object
PUBLIC	?_System_object@?$_Error_objects@H@std@@2V_System_error_category@2@A ; std::_Error_objects<int>::_System_object
PUBLIC	??_C@_02DPKJAMEF@?$CFd?$AA@			; `string'
PUBLIC	?id@?$num_put@DV?$back_insert_iterator@V?$basic_string@DU?$char_traits@D@std@@V?$allocator@D@2@@std@@@std@@@std@@2V0locale@2@A ; std::num_put<char,std::back_insert_iterator<std::basic_string<char,std::char_traits<char>,std::allocator<char> > > >::id
PUBLIC	?id@?$num_put@_WV?$back_insert_iterator@V?$basic_string@_WU?$char_traits@_W@std@@V?$allocator@_W@2@@std@@@std@@@std@@2V0locale@2@A ; std::num_put<wchar_t,std::back_insert_iterator<std::basic_string<wchar_t,std::char_traits<wchar_t>,std::allocator<wchar_t> > > >::id
PUBLIC	??_C@_03EBJOKFHF@?5?$CFd?$AA@			; `string'
PUBLIC	??_C@_01KHDNNMEB@?$AB?$AA@			; `string'
PUBLIC	??_C@_08HPPJPGGP@00?300?300?$AA@		; `string'
PUBLIC	??_C@_03GPCJOALC@?$CF2d?$AA@			; `string'
PUBLIC	??_C@_0M@IOIDFALE@?$CF2s?3?$CF2s?3?$CF2s?$AA@	; `string'
PUBLIC	??_C@_0N@BKKDFEMH@?$CF3d?$CK0?$CF2?42f?8?6?$AA@	; `string'
PUBLIC	??_C@_0M@MLGOFDIL@?$CF3d?$CK?$CF2?42f?8?6?$AA@	; `string'
PUBLIC	??_C@_04COHIKBOA@?$CFdFT?$AA@			; `string'
PUBLIC	??_C@_06GIKPDGKC@?$CF3?41f?$CK?$AA@		; `string'
PUBLIC	?id@?$numpunct@D@std@@2V0locale@2@A		; std::numpunct<char>::id
PUBLIC	?id@?$numpunct@_W@std@@2V0locale@2@A		; std::numpunct<wchar_t>::id
PUBLIC	??_C@_0BI@CFPLBAOH@invalid?5string?5position?$AA@ ; `string'
PUBLIC	??_C@_0BA@JFNIOLAK@string?5too?5long?$AA@	; `string'
PUBLIC	??_R4error_category@std@@6B@			; std::error_category::`RTTI Complete Object Locator'
PUBLIC	??_R0?AVerror_category@std@@@8			; std::error_category `RTTI Type Descriptor'
PUBLIC	??_R3error_category@std@@8			; std::error_category::`RTTI Class Hierarchy Descriptor'
PUBLIC	??_R2error_category@std@@8			; std::error_category::`RTTI Base Class Array'
PUBLIC	??_R1A@?0A@EA@error_category@std@@8		; std::error_category::`RTTI Base Class Descriptor at (0,-1,0,64)'
PUBLIC	??_R4_Generic_error_category@std@@6B@		; std::_Generic_error_category::`RTTI Complete Object Locator'
PUBLIC	??_R0?AV_Generic_error_category@std@@@8		; std::_Generic_error_category `RTTI Type Descriptor'
PUBLIC	??_R3_Generic_error_category@std@@8		; std::_Generic_error_category::`RTTI Class Hierarchy Descriptor'
PUBLIC	??_R2_Generic_error_category@std@@8		; std::_Generic_error_category::`RTTI Base Class Array'
PUBLIC	??_R1A@?0A@EA@_Generic_error_category@std@@8	; std::_Generic_error_category::`RTTI Base Class Descriptor at (0,-1,0,64)'
PUBLIC	??_R4_Iostream_error_category@std@@6B@		; std::_Iostream_error_category::`RTTI Complete Object Locator'
PUBLIC	??_R0?AV_Iostream_error_category@std@@@8	; std::_Iostream_error_category `RTTI Type Descriptor'
PUBLIC	??_R3_Iostream_error_category@std@@8		; std::_Iostream_error_category::`RTTI Class Hierarchy Descriptor'
PUBLIC	??_R2_Iostream_error_category@std@@8		; std::_Iostream_error_category::`RTTI Base Class Array'
PUBLIC	??_R1A@?0A@EA@_Iostream_error_category@std@@8	; std::_Iostream_error_category::`RTTI Base Class Descriptor at (0,-1,0,64)'
PUBLIC	??_R4_System_error_category@std@@6B@		; std::_System_error_category::`RTTI Complete Object Locator'
PUBLIC	??_R0?AV_System_error_category@std@@@8		; std::_System_error_category `RTTI Type Descriptor'
PUBLIC	??_R3_System_error_category@std@@8		; std::_System_error_category::`RTTI Class Hierarchy Descriptor'
PUBLIC	??_R2_System_error_category@std@@8		; std::_System_error_category::`RTTI Base Class Array'
PUBLIC	??_R1A@?0A@EA@_System_error_category@std@@8	; std::_System_error_category::`RTTI Base Class Descriptor at (0,-1,0,64)'
PUBLIC	__real@00000000
PUBLIC	__real@392c987a
PUBLIC	__real@3c8efa34
PUBLIC	__real@3e800000
PUBLIC	__real@3f000000
PUBLIC	__real@3f17ac60
PUBLIC	__real@3f800000
PUBLIC	__real@40000000
PUBLIC	__real@40400000
PUBLIC	__real@40800000
PUBLIC	__real@40c90fdb
PUBLIC	__real@41200000
PUBLIC	__real@420c0000
PUBLIC	__real@42652ee1
PUBLIC	__real@42700000
PUBLIC	__real@45be3840
PUBLIC	__real@4b9fa682
PUBLIC	__xmm@41f00000000000000000000000000000
PUBLIC	__xmm@80000000800000008000000080000000
EXTRN	__purecall:PROC
EXTRN	??2@YAPAXI@Z:PROC				; operator new
EXTRN	??3@YAXPAX@Z:PROC				; operator delete
EXTRN	_atexit:PROC
EXTRN	_memcpy:PROC
EXTRN	_memset:PROC
EXTRN	_strlen:PROC
EXTRN	_memmove:PROC
EXTRN	_sprintf:PROC
EXTRN	_cos:PROC
EXTRN	_fabs:PROC
EXTRN	?_Xbad_alloc@std@@YAXXZ:PROC			; std::_Xbad_alloc
EXTRN	?_Xlength_error@std@@YAXPBD@Z:PROC		; std::_Xlength_error
EXTRN	?_Xout_of_range@std@@YAXPBD@Z:PROC		; std::_Xout_of_range
EXTRN	?ExecCOMM1Mode@ICPClass@@QAEXXZ:PROC		; ICPClass::ExecCOMM1Mode
EXTRN	?ExecCOMM2Mode@ICPClass@@QAEXXZ:PROC		; ICPClass::ExecCOMM2Mode
EXTRN	?ExecIFFMode@ICPClass@@QAEXXZ:PROC		; ICPClass::ExecIFFMode
EXTRN	?ExecLISTMode@ICPClass@@QAEXXZ:PROC		; ICPClass::ExecLISTMode
EXTRN	?CNISwitch@ICPClass@@QAEXH@Z:PROC		; ICPClass::CNISwitch
EXTRN	?ExecCNIMode@ICPClass@@QAEXXZ:PROC		; ICPClass::ExecCNIMode
EXTRN	?PNUpdateSTPTMode@ICPClass@@QAEXHH@Z:PROC	; ICPClass::PNUpdateSTPTMode
EXTRN	?GetLocation@WayPointClass@@QBEXPAM00@Z:PROC	; WayPointClass::GetLocation
EXTRN	?GetPlayerAircraft@SimulationDriver@@QBEPAVAircraftClass@@XZ:PROC ; SimulationDriver::GetPlayerAircraft
EXTRN	?SetStptMode@FireControlComputer@@QAEXW4FCCStptMode@1@@Z:PROC ; FireControlComputer::SetStptMode
EXTRN	??_Eerror_category@std@@UAEPAXI@Z:PROC		; std::error_category::`vector deleting destructor'
EXTRN	?_Syserror_map@std@@YAPBDH@Z:PROC		; std::_Syserror_map
EXTRN	?_Winerror_map@std@@YAPBDH@Z:PROC		; std::_Winerror_map
EXTRN	??_E_Generic_error_category@std@@UAEPAXI@Z:PROC	; std::_Generic_error_category::`vector deleting destructor'
EXTRN	??_E_Iostream_error_category@std@@UAEPAXI@Z:PROC ; std::_Iostream_error_category::`vector deleting destructor'
EXTRN	??_E_System_error_category@std@@UAEPAXI@Z:PROC	; std::_System_error_category::`vector deleting destructor'
EXTRN	?WindSpeedInFeetPerSecond@WeatherClass@@QAEMPBUTpoint@@@Z:PROC ; WeatherClass::WindSpeedInFeetPerSecond
EXTRN	?WindHeadingAt@WeatherClass@@QAEMPBUTpoint@@@Z:PROC ; WeatherClass::WindHeadingAt
EXTRN	@__security_check_cookie@4:PROC
EXTRN	__CxxThrowException@8:PROC
EXTRN	___CxxFrameHandler3:PROC
EXTRN	??_7type_info@@6B@:QWORD			; type_info::`vftable'
EXTRN	?SimDriver@@3VSimulationDriver@@A:BYTE		; SimDriver
EXTRN	?FALCON_ORIGIN_LAT@@3MA:DWORD			; FALCON_ORIGIN_LAT
EXTRN	?FALCON_ORIGIN_LONG@@3MA:DWORD			; FALCON_ORIGIN_LONG
EXTRN	?realWeather@@3PAVRealWeather@@A:DWORD		; realWeather
EXTRN	?cockpitFlightData@@3VFlightData@@A:BYTE	; cockpitFlightData
EXTRN	?g_bIFF@@3_NA:BYTE				; g_bIFF
EXTRN	___security_cookie:DWORD
EXTRN	__fltused:DWORD
_BSS	SEGMENT
_piecewise_construct DB 01H DUP (?)
_allocator_arg DB 01H DUP (?)
_BSS	ENDS
;	COMDAT ?_Generic_object@?$_Error_objects@H@std@@2V_Generic_error_category@2@A
_BSS	SEGMENT
?_Generic_object@?$_Error_objects@H@std@@2V_Generic_error_category@2@A DD 01H DUP (?) ; std::_Error_objects<int>::_Generic_object
_BSS	ENDS
;	COMDAT ?_Iostream_object@?$_Error_objects@H@std@@2V_Iostream_error_category@2@A
_BSS	SEGMENT
?_Iostream_object@?$_Error_objects@H@std@@2V_Iostream_error_category@2@A DD 01H DUP (?) ; std::_Error_objects<int>::_Iostream_object
_BSS	ENDS
;	COMDAT ?_System_object@?$_Error_objects@H@std@@2V_System_error_category@2@A
_BSS	SEGMENT
?_System_object@?$_Error_objects@H@std@@2V_System_error_category@2@A DD 01H DUP (?) ; std::_Error_objects<int>::_System_object
_BSS	ENDS
;	COMDAT ?id@?$num_put@DV?$back_insert_iterator@V?$basic_string@DU?$char_traits@D@std@@V?$allocator@D@2@@std@@@std@@@std@@2V0locale@2@A
_BSS	SEGMENT
?id@?$num_put@DV?$back_insert_iterator@V?$basic_string@DU?$char_traits@D@std@@V?$allocator@D@2@@std@@@std@@@std@@2V0locale@2@A DD 01H DUP (?) ; std::num_put<char,std::back_insert_iterator<std::basic_string<char,std::char_traits<char>,std::allocator<char> > > >::id
_BSS	ENDS
;	COMDAT ?id@?$num_put@_WV?$back_insert_iterator@V?$basic_string@_WU?$char_traits@_W@std@@V?$allocator@_W@2@@std@@@std@@@std@@2V0locale@2@A
_BSS	SEGMENT
?id@?$num_put@_WV?$back_insert_iterator@V?$basic_string@_WU?$char_traits@_W@std@@V?$allocator@_W@2@@std@@@std@@@std@@2V0locale@2@A DD 01H DUP (?) ; std::num_put<wchar_t,std::back_insert_iterator<std::basic_string<wchar_t,std::char_traits<wchar_t>,std::allocator<wchar_t> > > >::id
_BSS	ENDS
;	COMDAT ?id@?$numpunct@D@std@@2V0locale@2@A
_BSS	SEGMENT
?id@?$numpunct@D@std@@2V0locale@2@A DD 01H DUP (?)	; std::numpunct<char>::id
_BSS	ENDS
;	COMDAT ?id@?$numpunct@_W@std@@2V0locale@2@A
_BSS	SEGMENT
?id@?$numpunct@_W@std@@2V0locale@2@A DD 01H DUP (?)	; std::numpunct<wchar_t>::id
_BSS	ENDS
CRT$XCU	SEGMENT
_piecewise_construct$initializer$ DD FLAT:??__Epiecewise_construct@std@@YAXXZ
CRT$XCU	ENDS
;	COMDAT __xmm@80000000800000008000000080000000
CONST	SEGMENT
__xmm@80000000800000008000000080000000 DB 00H, 00H, 00H, 080H, 00H, 00H, 00H
	DB	080H, 00H, 00H, 00H, 080H, 00H, 00H, 00H, 080H
CONST	ENDS
;	COMDAT __xmm@41f00000000000000000000000000000
CONST	SEGMENT
__xmm@41f00000000000000000000000000000 DB 00H, 00H, 00H, 00H, 00H, 00H, 00H
	DB	00H, 00H, 00H, 00H, 00H, 00H, 00H, 0f0H, 'A'
CONST	ENDS
;	COMDAT __real@4b9fa682
CONST	SEGMENT
__real@4b9fa682 DD 04b9fa682r			; 2.09257e+007
CONST	ENDS
;	COMDAT __real@45be3840
CONST	SEGMENT
__real@45be3840 DD 045be3840r			; 6087.03
CONST	ENDS
;	COMDAT __real@42700000
CONST	SEGMENT
__real@42700000 DD 042700000r			; 60
CONST	ENDS
;	COMDAT __real@42652ee1
CONST	SEGMENT
__real@42652ee1 DD 042652ee1r			; 57.2958
CONST	ENDS
;	COMDAT __real@420c0000
CONST	SEGMENT
__real@420c0000 DD 0420c0000r			; 35
CONST	ENDS
;	COMDAT __real@41200000
CONST	SEGMENT
__real@41200000 DD 041200000r			; 10
CONST	ENDS
;	COMDAT __real@40c90fdb
CONST	SEGMENT
__real@40c90fdb DD 040c90fdbr			; 6.28319
CONST	ENDS
;	COMDAT __real@40800000
CONST	SEGMENT
__real@40800000 DD 040800000r			; 4
CONST	ENDS
;	COMDAT __real@40400000
CONST	SEGMENT
__real@40400000 DD 040400000r			; 3
CONST	ENDS
;	COMDAT __real@40000000
CONST	SEGMENT
__real@40000000 DD 040000000r			; 2
CONST	ENDS
;	COMDAT __real@3f800000
CONST	SEGMENT
__real@3f800000 DD 03f800000r			; 1
CONST	ENDS
;	COMDAT __real@3f17ac60
CONST	SEGMENT
__real@3f17ac60 DD 03f17ac60r			; 0.592474
CONST	ENDS
;	COMDAT __real@3f000000
CONST	SEGMENT
__real@3f000000 DD 03f000000r			; 0.5
CONST	ENDS
;	COMDAT __real@3e800000
CONST	SEGMENT
__real@3e800000 DD 03e800000r			; 0.25
CONST	ENDS
;	COMDAT __real@3c8efa34
CONST	SEGMENT
__real@3c8efa34 DD 03c8efa34r			; 0.0174533
CONST	ENDS
;	COMDAT __real@392c987a
CONST	SEGMENT
__real@392c987a DD 0392c987ar			; 0.0001646
CONST	ENDS
;	COMDAT __real@00000000
CONST	SEGMENT
__real@00000000 DD 000000000r			; 0
CONST	ENDS
;	COMDAT ??_R1A@?0A@EA@_System_error_category@std@@8
rdata$r	SEGMENT
??_R1A@?0A@EA@_System_error_category@std@@8 DD FLAT:??_R0?AV_System_error_category@std@@@8 ; std::_System_error_category::`RTTI Base Class Descriptor at (0,-1,0,64)'
	DD	02H
	DD	00H
	DD	0ffffffffH
	DD	00H
	DD	040H
	DD	FLAT:??_R3_System_error_category@std@@8
rdata$r	ENDS
;	COMDAT ??_R2_System_error_category@std@@8
rdata$r	SEGMENT
??_R2_System_error_category@std@@8 DD FLAT:??_R1A@?0A@EA@_System_error_category@std@@8 ; std::_System_error_category::`RTTI Base Class Array'
	DD	FLAT:??_R1A@?0A@EA@_Generic_error_category@std@@8
	DD	FLAT:??_R1A@?0A@EA@error_category@std@@8
rdata$r	ENDS
;	COMDAT ??_R3_System_error_category@std@@8
rdata$r	SEGMENT
??_R3_System_error_category@std@@8 DD 00H		; std::_System_error_category::`RTTI Class Hierarchy Descriptor'
	DD	00H
	DD	03H
	DD	FLAT:??_R2_System_error_category@std@@8
rdata$r	ENDS
;	COMDAT ??_R0?AV_System_error_category@std@@@8
_DATA	SEGMENT
??_R0?AV_System_error_category@std@@@8 DD FLAT:??_7type_info@@6B@ ; std::_System_error_category `RTTI Type Descriptor'
	DD	00H
	DB	'.?AV_System_error_category@std@@', 00H
_DATA	ENDS
;	COMDAT ??_R4_System_error_category@std@@6B@
rdata$r	SEGMENT
??_R4_System_error_category@std@@6B@ DD 00H		; std::_System_error_category::`RTTI Complete Object Locator'
	DD	00H
	DD	00H
	DD	FLAT:??_R0?AV_System_error_category@std@@@8
	DD	FLAT:??_R3_System_error_category@std@@8
rdata$r	ENDS
;	COMDAT ??_R1A@?0A@EA@_Iostream_error_category@std@@8
rdata$r	SEGMENT
??_R1A@?0A@EA@_Iostream_error_category@std@@8 DD FLAT:??_R0?AV_Iostream_error_category@std@@@8 ; std::_Iostream_error_category::`RTTI Base Class Descriptor at (0,-1,0,64)'
	DD	02H
	DD	00H
	DD	0ffffffffH
	DD	00H
	DD	040H
	DD	FLAT:??_R3_Iostream_error_category@std@@8
rdata$r	ENDS
;	COMDAT ??_R2_Iostream_error_category@std@@8
rdata$r	SEGMENT
??_R2_Iostream_error_category@std@@8 DD FLAT:??_R1A@?0A@EA@_Iostream_error_category@std@@8 ; std::_Iostream_error_category::`RTTI Base Class Array'
	DD	FLAT:??_R1A@?0A@EA@_Generic_error_category@std@@8
	DD	FLAT:??_R1A@?0A@EA@error_category@std@@8
rdata$r	ENDS
;	COMDAT ??_R3_Iostream_error_category@std@@8
rdata$r	SEGMENT
??_R3_Iostream_error_category@std@@8 DD 00H		; std::_Iostream_error_category::`RTTI Class Hierarchy Descriptor'
	DD	00H
	DD	03H
	DD	FLAT:??_R2_Iostream_error_category@std@@8
rdata$r	ENDS
;	COMDAT ??_R0?AV_Iostream_error_category@std@@@8
_DATA	SEGMENT
??_R0?AV_Iostream_error_category@std@@@8 DD FLAT:??_7type_info@@6B@ ; std::_Iostream_error_category `RTTI Type Descriptor'
	DD	00H
	DB	'.?AV_Iostream_error_category@std@@', 00H
_DATA	ENDS
;	COMDAT ??_R4_Iostream_error_category@std@@6B@
rdata$r	SEGMENT
??_R4_Iostream_error_category@std@@6B@ DD 00H		; std::_Iostream_error_category::`RTTI Complete Object Locator'
	DD	00H
	DD	00H
	DD	FLAT:??_R0?AV_Iostream_error_category@std@@@8
	DD	FLAT:??_R3_Iostream_error_category@std@@8
rdata$r	ENDS
;	COMDAT ??_R1A@?0A@EA@_Generic_error_category@std@@8
rdata$r	SEGMENT
??_R1A@?0A@EA@_Generic_error_category@std@@8 DD FLAT:??_R0?AV_Generic_error_category@std@@@8 ; std::_Generic_error_category::`RTTI Base Class Descriptor at (0,-1,0,64)'
	DD	01H
	DD	00H
	DD	0ffffffffH
	DD	00H
	DD	040H
	DD	FLAT:??_R3_Generic_error_category@std@@8
rdata$r	ENDS
;	COMDAT ??_R2_Generic_error_category@std@@8
rdata$r	SEGMENT
??_R2_Generic_error_category@std@@8 DD FLAT:??_R1A@?0A@EA@_Generic_error_category@std@@8 ; std::_Generic_error_category::`RTTI Base Class Array'
	DD	FLAT:??_R1A@?0A@EA@error_category@std@@8
rdata$r	ENDS
;	COMDAT ??_R3_Generic_error_category@std@@8
rdata$r	SEGMENT
??_R3_Generic_error_category@std@@8 DD 00H		; std::_Generic_error_category::`RTTI Class Hierarchy Descriptor'
	DD	00H
	DD	02H
	DD	FLAT:??_R2_Generic_error_category@std@@8
rdata$r	ENDS
;	COMDAT ??_R0?AV_Generic_error_category@std@@@8
_DATA	SEGMENT
??_R0?AV_Generic_error_category@std@@@8 DD FLAT:??_7type_info@@6B@ ; std::_Generic_error_category `RTTI Type Descriptor'
	DD	00H
	DB	'.?AV_Generic_error_category@std@@', 00H
_DATA	ENDS
;	COMDAT ??_R4_Generic_error_category@std@@6B@
rdata$r	SEGMENT
??_R4_Generic_error_category@std@@6B@ DD 00H		; std::_Generic_error_category::`RTTI Complete Object Locator'
	DD	00H
	DD	00H
	DD	FLAT:??_R0?AV_Generic_error_category@std@@@8
	DD	FLAT:??_R3_Generic_error_category@std@@8
rdata$r	ENDS
;	COMDAT ??_R1A@?0A@EA@error_category@std@@8
rdata$r	SEGMENT
??_R1A@?0A@EA@error_category@std@@8 DD FLAT:??_R0?AVerror_category@std@@@8 ; std::error_category::`RTTI Base Class Descriptor at (0,-1,0,64)'
	DD	00H
	DD	00H
	DD	0ffffffffH
	DD	00H
	DD	040H
	DD	FLAT:??_R3error_category@std@@8
rdata$r	ENDS
;	COMDAT ??_R2error_category@std@@8
rdata$r	SEGMENT
??_R2error_category@std@@8 DD FLAT:??_R1A@?0A@EA@error_category@std@@8 ; std::error_category::`RTTI Base Class Array'
rdata$r	ENDS
;	COMDAT ??_R3error_category@std@@8
rdata$r	SEGMENT
??_R3error_category@std@@8 DD 00H			; std::error_category::`RTTI Class Hierarchy Descriptor'
	DD	00H
	DD	01H
	DD	FLAT:??_R2error_category@std@@8
rdata$r	ENDS
;	COMDAT ??_R0?AVerror_category@std@@@8
_DATA	SEGMENT
??_R0?AVerror_category@std@@@8 DD FLAT:??_7type_info@@6B@ ; std::error_category `RTTI Type Descriptor'
	DD	00H
	DB	'.?AVerror_category@std@@', 00H
_DATA	ENDS
;	COMDAT ??_R4error_category@std@@6B@
rdata$r	SEGMENT
??_R4error_category@std@@6B@ DD 00H			; std::error_category::`RTTI Complete Object Locator'
	DD	00H
	DD	00H
	DD	FLAT:??_R0?AVerror_category@std@@@8
	DD	FLAT:??_R3error_category@std@@8
rdata$r	ENDS
;	COMDAT ??_C@_0BA@JFNIOLAK@string?5too?5long?$AA@
CONST	SEGMENT
??_C@_0BA@JFNIOLAK@string?5too?5long?$AA@ DB 'string too long', 00H ; `string'
CONST	ENDS
;	COMDAT ??_C@_0BI@CFPLBAOH@invalid?5string?5position?$AA@
CONST	SEGMENT
??_C@_0BI@CFPLBAOH@invalid?5string?5position?$AA@ DB 'invalid string posi'
	DB	'tion', 00H					; `string'
CONST	ENDS
;	COMDAT ??_C@_06GIKPDGKC@?$CF3?41f?$CK?$AA@
CONST	SEGMENT
??_C@_06GIKPDGKC@?$CF3?41f?$CK?$AA@ DB '%3.1f*', 00H	; `string'
CONST	ENDS
;	COMDAT ??_C@_04COHIKBOA@?$CFdFT?$AA@
CONST	SEGMENT
??_C@_04COHIKBOA@?$CFdFT?$AA@ DB '%dFT', 00H		; `string'
CONST	ENDS
;	COMDAT ??_C@_0M@MLGOFDIL@?$CF3d?$CK?$CF2?42f?8?6?$AA@
CONST	SEGMENT
??_C@_0M@MLGOFDIL@?$CF3d?$CK?$CF2?42f?8?6?$AA@ DB '%3d*%2.2f''', 0aH, 00H ; `string'
CONST	ENDS
;	COMDAT ??_C@_0N@BKKDFEMH@?$CF3d?$CK0?$CF2?42f?8?6?$AA@
CONST	SEGMENT
??_C@_0N@BKKDFEMH@?$CF3d?$CK0?$CF2?42f?8?6?$AA@ DB '%3d*0%2.2f''', 0aH, 00H ; `string'
CONST	ENDS
;	COMDAT ??_C@_0M@IOIDFALE@?$CF2s?3?$CF2s?3?$CF2s?$AA@
CONST	SEGMENT
??_C@_0M@IOIDFALE@?$CF2s?3?$CF2s?3?$CF2s?$AA@ DB '%2s:%2s:%2s', 00H ; `string'
CONST	ENDS
;	COMDAT ??_C@_03GPCJOALC@?$CF2d?$AA@
CONST	SEGMENT
??_C@_03GPCJOALC@?$CF2d?$AA@ DB '%2d', 00H		; `string'
CONST	ENDS
;	COMDAT ??_C@_08HPPJPGGP@00?300?300?$AA@
CONST	SEGMENT
??_C@_08HPPJPGGP@00?300?300?$AA@ DB '00:00:00', 00H	; `string'
CONST	ENDS
;	COMDAT ??_C@_01KHDNNMEB@?$AB?$AA@
CONST	SEGMENT
??_C@_01KHDNNMEB@?$AB?$AA@ DB 01H, 00H			; `string'
CONST	ENDS
;	COMDAT ??_C@_03EBJOKFHF@?5?$CFd?$AA@
CONST	SEGMENT
??_C@_03EBJOKFHF@?5?$CFd?$AA@ DB ' %d', 00H		; `string'
CONST	ENDS
;	COMDAT ??_C@_02DPKJAMEF@?$CFd?$AA@
CONST	SEGMENT
??_C@_02DPKJAMEF@?$CFd?$AA@ DB '%d', 00H		; `string'
CONST	ENDS
;	COMDAT ??_C@_06FHFOAHML@system?$AA@
CONST	SEGMENT
??_C@_06FHFOAHML@system?$AA@ DB 'system', 00H		; `string'
CONST	ENDS
;	COMDAT ??_7_System_error_category@std@@6B@
CONST	SEGMENT
??_7_System_error_category@std@@6B@ DD FLAT:??_R4_System_error_category@std@@6B@ ; std::_System_error_category::`vftable'
	DD	FLAT:??_E_System_error_category@std@@UAEPAXI@Z
	DD	FLAT:?name@_System_error_category@std@@UBEPBDXZ
	DD	FLAT:?message@_System_error_category@std@@UBE?AV?$basic_string@DU?$char_traits@D@std@@V?$allocator@D@2@@2@H@Z
	DD	FLAT:?default_error_condition@_System_error_category@std@@UBE?AVerror_condition@2@H@Z
	DD	FLAT:?equivalent@error_category@std@@UBE_NABVerror_code@2@H@Z
	DD	FLAT:?equivalent@error_category@std@@UBE_NHABVerror_condition@2@@Z
CONST	ENDS
;	COMDAT ??_C@_0BG@PADBLCHM@iostream?5stream?5error?$AA@
CONST	SEGMENT
??_C@_0BG@PADBLCHM@iostream?5stream?5error?$AA@ DB 'iostream stream error'
	DB	00H						; `string'
CONST	ENDS
;	COMDAT ??_C@_08LLGCOLLL@iostream?$AA@
CONST	SEGMENT
??_C@_08LLGCOLLL@iostream?$AA@ DB 'iostream', 00H	; `string'
CONST	ENDS
;	COMDAT ??_7_Iostream_error_category@std@@6B@
CONST	SEGMENT
??_7_Iostream_error_category@std@@6B@ DD FLAT:??_R4_Iostream_error_category@std@@6B@ ; std::_Iostream_error_category::`vftable'
	DD	FLAT:??_E_Iostream_error_category@std@@UAEPAXI@Z
	DD	FLAT:?name@_Iostream_error_category@std@@UBEPBDXZ
	DD	FLAT:?message@_Iostream_error_category@std@@UBE?AV?$basic_string@DU?$char_traits@D@std@@V?$allocator@D@2@@2@H@Z
	DD	FLAT:?default_error_condition@error_category@std@@UBE?AVerror_condition@2@H@Z
	DD	FLAT:?equivalent@error_category@std@@UBE_NABVerror_code@2@H@Z
	DD	FLAT:?equivalent@error_category@std@@UBE_NHABVerror_condition@2@@Z
CONST	ENDS
;	COMDAT ??_C@_0O@BFJCFAAK@unknown?5error?$AA@
CONST	SEGMENT
??_C@_0O@BFJCFAAK@unknown?5error?$AA@ DB 'unknown error', 00H ; `string'
CONST	ENDS
;	COMDAT ??_C@_07DCLBNMLN@generic?$AA@
CONST	SEGMENT
??_C@_07DCLBNMLN@generic?$AA@ DB 'generic', 00H		; `string'
CONST	ENDS
;	COMDAT ??_7_Generic_error_category@std@@6B@
CONST	SEGMENT
??_7_Generic_error_category@std@@6B@ DD FLAT:??_R4_Generic_error_category@std@@6B@ ; std::_Generic_error_category::`vftable'
	DD	FLAT:??_E_Generic_error_category@std@@UAEPAXI@Z
	DD	FLAT:?name@_Generic_error_category@std@@UBEPBDXZ
	DD	FLAT:?message@_Generic_error_category@std@@UBE?AV?$basic_string@DU?$char_traits@D@std@@V?$allocator@D@2@@2@H@Z
	DD	FLAT:?default_error_condition@error_category@std@@UBE?AVerror_condition@2@H@Z
	DD	FLAT:?equivalent@error_category@std@@UBE_NABVerror_code@2@H@Z
	DD	FLAT:?equivalent@error_category@std@@UBE_NHABVerror_condition@2@@Z
CONST	ENDS
;	COMDAT ??_7error_category@std@@6B@
CONST	SEGMENT
??_7error_category@std@@6B@ DD FLAT:??_R4error_category@std@@6B@ ; std::error_category::`vftable'
	DD	FLAT:??_Eerror_category@std@@UAEPAXI@Z
	DD	FLAT:__purecall
	DD	FLAT:__purecall
	DD	FLAT:?default_error_condition@error_category@std@@UBE?AVerror_condition@2@H@Z
	DD	FLAT:?equivalent@error_category@std@@UBE_NABVerror_code@2@H@Z
	DD	FLAT:?equivalent@error_category@std@@UBE_NHABVerror_condition@2@@Z
CONST	ENDS
;	COMDAT ??_C@_00CNPNBAHC@?$AA@
CONST	SEGMENT
??_C@_00CNPNBAHC@?$AA@ DB 00H				; `string'
CONST	ENDS
;	COMDAT xdata$x
xdata$x	SEGMENT
__unwindtable$??$construct@PADAAPAD@?$allocator@D@std@@QAEXPAPADAAPAD@Z DD 0ffffffffH
	DD	FLAT:__unwindfunclet$??$construct@PADAAPAD@?$allocator@D@std@@QAEXPAPADAAPAD@Z$0
__ehfuncinfo$??$construct@PADAAPAD@?$allocator@D@std@@QAEXPAPADAAPAD@Z DD 019930522H
	DD	01H
	DD	FLAT:__unwindtable$??$construct@PADAAPAD@?$allocator@D@std@@QAEXPAPADAAPAD@Z
	DD	2 DUP(00H)
	DD	2 DUP(00H)
	DD	00H
	DD	01H
xdata$x	ENDS
;	COMDAT xdata$x
xdata$x	SEGMENT
__catchsym$?_Copy@?$basic_string@DU?$char_traits@D@std@@V?$allocator@D@2@@std@@QAEXII@Z$5 DD 040H
	DD	00H
	DD	00H
	DD	FLAT:__catch$?_Copy@?$basic_string@DU?$char_traits@D@std@@V?$allocator@D@2@@std@@QAEXII@Z$0
__catchsym$?_Copy@?$basic_string@DU?$char_traits@D@std@@V?$allocator@D@2@@std@@QAEXII@Z$4 DD 040H
	DD	00H
	DD	00H
	DD	FLAT:__catch$?_Copy@?$basic_string@DU?$char_traits@D@std@@V?$allocator@D@2@@std@@QAEXII@Z$1
__unwindtable$?_Copy@?$basic_string@DU?$char_traits@D@std@@V?$allocator@D@2@@std@@QAEXII@Z DD 0ffffffffH
	DD	00H
	DD	0ffffffffH
	DD	00H
	DD	01H
	DD	00H
	DD	01H
	DD	00H
__ehfuncinfo$?_Copy@?$basic_string@DU?$char_traits@D@std@@V?$allocator@D@2@@std@@QAEXII@Z DD 019930522H
	DD	04H
	DD	FLAT:__unwindtable$?_Copy@?$basic_string@DU?$char_traits@D@std@@V?$allocator@D@2@@std@@QAEXII@Z
	DD	02H
	DD	FLAT:__tryblocktable$?_Copy@?$basic_string@DU?$char_traits@D@std@@V?$allocator@D@2@@std@@QAEXII@Z
	DD	2 DUP(00H)
	DD	00H
	DD	01H
__tryblocktable$?_Copy@?$basic_string@DU?$char_traits@D@std@@V?$allocator@D@2@@std@@QAEXII@Z DD 02H
	DD	02H
	DD	03H
	DD	01H
	DD	FLAT:__catchsym$?_Copy@?$basic_string@DU?$char_traits@D@std@@V?$allocator@D@2@@std@@QAEXII@Z$4
	DD	00H
	DD	00H
	DD	03H
	DD	01H
	DD	FLAT:__catchsym$?_Copy@?$basic_string@DU?$char_traits@D@std@@V?$allocator@D@2@@std@@QAEXII@Z$5
xdata$x	ENDS
CRT$XCU	SEGMENT
_allocator_arg$initializer$ DD FLAT:??__Eallocator_arg@std@@YAXXZ
CRT$XCU	ENDS
;	COMDAT CRT$XCU
CRT$XCU	SEGMENT
?_Generic_object$initializer$@?$_Error_objects@H@std@@2P6AXXZA DD FLAT:??__E?_Generic_object@?$_Error_objects@H@std@@2V_Generic_error_category@2@A@@YAXXZ ; std::_Error_objects<int>::_Generic_object$initializer$
CRT$XCU	ENDS
;	COMDAT CRT$XCU
CRT$XCU	SEGMENT
?_Iostream_object$initializer$@?$_Error_objects@H@std@@2P6AXXZA DD FLAT:??__E?_Iostream_object@?$_Error_objects@H@std@@2V_Iostream_error_category@2@A@@YAXXZ ; std::_Error_objects<int>::_Iostream_object$initializer$
CRT$XCU	ENDS
;	COMDAT CRT$XCU
CRT$XCU	SEGMENT
?_System_object$initializer$@?$_Error_objects@H@std@@2P6AXXZA DD FLAT:??__E?_System_object@?$_Error_objects@H@std@@2V_System_error_category@2@A@@YAXXZ ; std::_Error_objects<int>::_System_object$initializer$
CRT$XCU	ENDS
;	COMDAT CRT$XCU
CRT$XCU	SEGMENT
?id$initializer$@?$num_put@DV?$back_insert_iterator@V?$basic_string@DU?$char_traits@D@std@@V?$allocator@D@2@@std@@@std@@@std@@2P6AXXZA DD FLAT:??__E?id@?$num_put@DV?$back_insert_iterator@V?$basic_string@DU?$char_traits@D@std@@V?$allocator@D@2@@std@@@std@@@std@@2V0locale@2@A@@YAXXZ ; std::num_put<char,std::back_insert_iterator<std::basic_string<char,std::char_traits<char>,std::allocator<char> > > >::id$initializer$
CRT$XCU	ENDS
;	COMDAT CRT$XCU
CRT$XCU	SEGMENT
?id$initializer$@?$num_put@_WV?$back_insert_iterator@V?$basic_string@_WU?$char_traits@_W@std@@V?$allocator@_W@2@@std@@@std@@@std@@2P6AXXZA DD FLAT:??__E?id@?$num_put@_WV?$back_insert_iterator@V?$basic_string@_WU?$char_traits@_W@std@@V?$allocator@_W@2@@std@@@std@@@std@@2V0locale@2@A@@YAXXZ ; std::num_put<wchar_t,std::back_insert_iterator<std::basic_string<wchar_t,std::char_traits<wchar_t>,std::allocator<wchar_t> > > >::id$initializer$
CRT$XCU	ENDS
;	COMDAT CRT$XCU
CRT$XCU	SEGMENT
?id$initializer$@?$numpunct@D@std@@2P6AXXZA DD FLAT:??__E?id@?$numpunct@D@std@@2V0locale@2@A@@YAXXZ ; std::numpunct<char>::id$initializer$
CRT$XCU	ENDS
;	COMDAT CRT$XCU
CRT$XCU	SEGMENT
?id$initializer$@?$numpunct@_W@std@@2P6AXXZA DD FLAT:??__E?id@?$numpunct@_W@std@@2V0locale@2@A@@YAXXZ ; std::numpunct<wchar_t>::id$initializer$
CRT$XCU	ENDS
; Function compile flags: /Odtp
; File c:\program files (x86)\microsoft visual studio 11.0\vc\include\xmemory0
;	COMDAT ??$destroy@PAD@?$allocator@D@std@@QAEXPAPAD@Z
_TEXT	SEGMENT
_this$ = -4						; size = 4
__Ptr$ = 8						; size = 4
??$destroy@PAD@?$allocator@D@std@@QAEXPAPAD@Z PROC	; std::allocator<char>::destroy<char *>, COMDAT
; _this$ = ecx

; 621  : 		void destroy(_Uty *_Ptr)

	push	ebp
	mov	ebp, esp
	push	ecx
	mov	DWORD PTR _this$[ebp], ecx

; 622  : 		{	// destroy object at _Ptr
; 623  : 		_Ptr->~_Uty();
; 624  : 		}

	mov	esp, ebp
	pop	ebp
	ret	4
??$destroy@PAD@?$allocator@D@std@@QAEXPAPAD@Z ENDP	; std::allocator<char>::destroy<char *>
_TEXT	ENDS
; Function compile flags: /Odtp
; File c:\program files (x86)\microsoft visual studio 11.0\vc\include\xmemory0
;	COMDAT ??$construct@PADAAPAD@?$allocator@D@std@@QAEXPAPADAAPAD@Z
_TEXT	SEGMENT
$T2 = -28						; size = 4
_this$ = -24						; size = 4
tv73 = -20						; size = 4
$T3 = -16						; size = 4
__$EHRec$ = -12						; size = 12
__Ptr$ = 8						; size = 4
__V0$ = 12						; size = 4
??$construct@PADAAPAD@?$allocator@D@std@@QAEXPAPADAAPAD@Z PROC ; std::allocator<char>::construct<char *,char * &>, COMDAT
; _this$ = ecx

; 617  : _VARIADIC_EXPAND_0X(_ALLOC_MEMBER_CONSTRUCT, , , , )

	push	ebp
	mov	ebp, esp
	push	-1
	push	__ehhandler$??$construct@PADAAPAD@?$allocator@D@std@@QAEXPAPADAAPAD@Z
	mov	eax, DWORD PTR fs:0
	push	eax
	sub	esp, 16					; 00000010H
	mov	eax, DWORD PTR ___security_cookie
	xor	eax, ebp
	push	eax
	lea	eax, DWORD PTR __$EHRec$[ebp]
	mov	DWORD PTR fs:0, eax
	mov	DWORD PTR _this$[ebp], ecx
	mov	eax, DWORD PTR __Ptr$[ebp]
	push	eax
	push	4
	call	??2@YAPAXIPAX@Z				; operator new
	add	esp, 8
	mov	DWORD PTR $T3[ebp], eax
	mov	DWORD PTR __$EHRec$[ebp+8], 0
	cmp	DWORD PTR $T3[ebp], 0
	je	SHORT $LN3@construct
	mov	ecx, DWORD PTR __V0$[ebp]
	push	ecx
	call	??$forward@AAPAD@std@@YAAAPADAAPAD@Z	; std::forward<char * &>
	add	esp, 4
	mov	edx, DWORD PTR $T3[ebp]
	mov	eax, DWORD PTR [eax]
	mov	DWORD PTR [edx], eax
	mov	ecx, DWORD PTR $T3[ebp]
	mov	DWORD PTR tv73[ebp], ecx
	jmp	SHORT $LN4@construct
$LN3@construct:
	mov	DWORD PTR tv73[ebp], 0
$LN4@construct:
	mov	edx, DWORD PTR tv73[ebp]
	mov	DWORD PTR $T2[ebp], edx
	mov	DWORD PTR __$EHRec$[ebp+8], -1
	mov	ecx, DWORD PTR __$EHRec$[ebp]
	mov	DWORD PTR fs:0, ecx
	pop	ecx
	mov	esp, ebp
	pop	ebp
	ret	8
_TEXT	ENDS
;	COMDAT text$x
text$x	SEGMENT
__unwindfunclet$??$construct@PADAAPAD@?$allocator@D@std@@QAEXPAPADAAPAD@Z$0:
	mov	eax, DWORD PTR __Ptr$[ebp]
	push	eax
	mov	eax, DWORD PTR $T3[ebp]
	push	eax
	call	??3@YAXPAX0@Z				; operator delete
	add	esp, 8
	ret	0
__ehhandler$??$construct@PADAAPAD@?$allocator@D@std@@QAEXPAPADAAPAD@Z:
	mov	edx, DWORD PTR [esp+8]
	lea	eax, DWORD PTR [edx+12]
	mov	ecx, DWORD PTR [edx-20]
	xor	ecx, eax
	call	@__security_check_cookie@4
	mov	eax, OFFSET __ehfuncinfo$??$construct@PADAAPAD@?$allocator@D@std@@QAEXPAPADAAPAD@Z
	jmp	___CxxFrameHandler3
text$x	ENDS
??$construct@PADAAPAD@?$allocator@D@std@@QAEXPAPADAAPAD@Z ENDP ; std::allocator<char>::construct<char *,char * &>
; Function compile flags: /Odtp
; File c:\program files (x86)\microsoft visual studio 11.0\vc\include\xlocnum
;	COMDAT ??__E?id@?$numpunct@_W@std@@2V0locale@2@A@@YAXXZ
text$yc	SEGMENT
??__E?id@?$numpunct@_W@std@@2V0locale@2@A@@YAXXZ PROC	; `dynamic initializer for 'std::numpunct<wchar_t>::id'', COMDAT

; 155  : 		void _Getvals(wchar_t, const lconv *_Ptr, _Locinfo::_Cvtvec)

	push	ebp
	mov	ebp, esp
	push	0
	mov	ecx, OFFSET ?id@?$numpunct@_W@std@@2V0locale@2@A ; std::numpunct<wchar_t>::id
	call	??0id@locale@std@@QAE@I@Z		; std::locale::id::id
	pop	ebp
	ret	0
??__E?id@?$numpunct@_W@std@@2V0locale@2@A@@YAXXZ ENDP	; `dynamic initializer for 'std::numpunct<wchar_t>::id''
text$yc	ENDS
; Function compile flags: /Odtp
; File c:\program files (x86)\microsoft visual studio 11.0\vc\include\xlocnum
;	COMDAT ??__E?id@?$numpunct@D@std@@2V0locale@2@A@@YAXXZ
text$yc	SEGMENT
??__E?id@?$numpunct@D@std@@2V0locale@2@A@@YAXXZ PROC	; `dynamic initializer for 'std::numpunct<char>::id'', COMDAT

; 155  : 		void _Getvals(wchar_t, const lconv *_Ptr, _Locinfo::_Cvtvec)

	push	ebp
	mov	ebp, esp
	push	0
	mov	ecx, OFFSET ?id@?$numpunct@D@std@@2V0locale@2@A ; std::numpunct<char>::id
	call	??0id@locale@std@@QAE@I@Z		; std::locale::id::id
	pop	ebp
	ret	0
??__E?id@?$numpunct@D@std@@2V0locale@2@A@@YAXXZ ENDP	; `dynamic initializer for 'std::numpunct<char>::id''
text$yc	ENDS
; Function compile flags: /Odtp
; File c:\program files (x86)\microsoft visual studio 11.0\vc\include\xlocnum
;	COMDAT ??__E?id@?$num_put@_WV?$back_insert_iterator@V?$basic_string@_WU?$char_traits@_W@std@@V?$allocator@_W@2@@std@@@std@@@std@@2V0locale@2@A@@YAXXZ
text$yc	SEGMENT
??__E?id@?$num_put@_WV?$back_insert_iterator@V?$basic_string@_WU?$char_traits@_W@std@@V?$allocator@_W@2@@std@@@std@@@std@@2V0locale@2@A@@YAXXZ PROC ; `dynamic initializer for 'std::num_put<wchar_t,std::back_insert_iterator<std::basic_string<wchar_t,std::char_traits<wchar_t>,std::allocator<wchar_t> > > >::id'', COMDAT

; 155  : 		void _Getvals(wchar_t, const lconv *_Ptr, _Locinfo::_Cvtvec)

	push	ebp
	mov	ebp, esp
	push	0
	mov	ecx, OFFSET ?id@?$num_put@_WV?$back_insert_iterator@V?$basic_string@_WU?$char_traits@_W@std@@V?$allocator@_W@2@@std@@@std@@@std@@2V0locale@2@A ; std::num_put<wchar_t,std::back_insert_iterator<std::basic_string<wchar_t,std::char_traits<wchar_t>,std::allocator<wchar_t> > > >::id
	call	??0id@locale@std@@QAE@I@Z		; std::locale::id::id
	pop	ebp
	ret	0
??__E?id@?$num_put@_WV?$back_insert_iterator@V?$basic_string@_WU?$char_traits@_W@std@@V?$allocator@_W@2@@std@@@std@@@std@@2V0locale@2@A@@YAXXZ ENDP ; `dynamic initializer for 'std::num_put<wchar_t,std::back_insert_iterator<std::basic_string<wchar_t,std::char_traits<wchar_t>,std::allocator<wchar_t> > > >::id''
text$yc	ENDS
; Function compile flags: /Odtp
; File c:\program files (x86)\microsoft visual studio 11.0\vc\include\xlocnum
;	COMDAT ??__E?id@?$num_put@DV?$back_insert_iterator@V?$basic_string@DU?$char_traits@D@std@@V?$allocator@D@2@@std@@@std@@@std@@2V0locale@2@A@@YAXXZ
text$yc	SEGMENT
??__E?id@?$num_put@DV?$back_insert_iterator@V?$basic_string@DU?$char_traits@D@std@@V?$allocator@D@2@@std@@@std@@@std@@2V0locale@2@A@@YAXXZ PROC ; `dynamic initializer for 'std::num_put<char,std::back_insert_iterator<std::basic_string<char,std::char_traits<char>,std::allocator<char> > > >::id'', COMDAT

; 155  : 		void _Getvals(wchar_t, const lconv *_Ptr, _Locinfo::_Cvtvec)

	push	ebp
	mov	ebp, esp
	push	0
	mov	ecx, OFFSET ?id@?$num_put@DV?$back_insert_iterator@V?$basic_string@DU?$char_traits@D@std@@V?$allocator@D@2@@std@@@std@@@std@@2V0locale@2@A ; std::num_put<char,std::back_insert_iterator<std::basic_string<char,std::char_traits<char>,std::allocator<char> > > >::id
	call	??0id@locale@std@@QAE@I@Z		; std::locale::id::id
	pop	ebp
	ret	0
??__E?id@?$num_put@DV?$back_insert_iterator@V?$basic_string@DU?$char_traits@D@std@@V?$allocator@D@2@@std@@@std@@@std@@2V0locale@2@A@@YAXXZ ENDP ; `dynamic initializer for 'std::num_put<char,std::back_insert_iterator<std::basic_string<char,std::char_traits<char>,std::allocator<char> > > >::id''
text$yc	ENDS
; Function compile flags: /Odtp
; File c:\program files (x86)\microsoft visual studio 11.0\vc\include\xmemory0
;	COMDAT ??$destroy@PAD@?$allocator_traits@V?$allocator@D@std@@@std@@SAXAAV?$allocator@D@1@PAPAD@Z
_TEXT	SEGMENT
__Al$ = 8						; size = 4
__Ptr$ = 12						; size = 4
??$destroy@PAD@?$allocator_traits@V?$allocator@D@std@@@std@@SAXAAV?$allocator@D@1@PAPAD@Z PROC ; std::allocator_traits<std::allocator<char> >::destroy<char *>, COMDAT

; 755  : 		static void destroy(_Alloc& _Al, _Uty *_Ptr)

	push	ebp
	mov	ebp, esp

; 756  : 		{	// destroy object at _Ptr
; 757  : 		_Al.destroy(_Ptr);

	mov	eax, DWORD PTR __Ptr$[ebp]
	push	eax
	mov	ecx, DWORD PTR __Al$[ebp]
	call	??$destroy@PAD@?$allocator@D@std@@QAEXPAPAD@Z ; std::allocator<char>::destroy<char *>

; 758  : 		}

	pop	ebp
	ret	0
??$destroy@PAD@?$allocator_traits@V?$allocator@D@std@@@std@@SAXAAV?$allocator@D@1@PAPAD@Z ENDP ; std::allocator_traits<std::allocator<char> >::destroy<char *>
_TEXT	ENDS
; Function compile flags: /Odtp
; File c:\program files (x86)\microsoft visual studio 11.0\vc\include\xmemory0
;	COMDAT ??$construct@PADAAPAD@?$allocator_traits@V?$allocator@D@std@@@std@@SAXAAV?$allocator@D@1@PAPADAAPAD@Z
_TEXT	SEGMENT
__Al$ = 8						; size = 4
__Ptr$ = 12						; size = 4
__V0$ = 16						; size = 4
??$construct@PADAAPAD@?$allocator_traits@V?$allocator@D@std@@@std@@SAXAAV?$allocator@D@1@PAPADAAPAD@Z PROC ; std::allocator_traits<std::allocator<char> >::construct<char *,char * &>, COMDAT

; 751  : _VARIADIC_EXPAND_0X(_ALLOC_TRAITS_SPECIAL_CONSTRUCT, , , , )

	push	ebp
	mov	ebp, esp
	mov	eax, DWORD PTR __V0$[ebp]
	push	eax
	call	??$forward@AAPAD@std@@YAAAPADAAPAD@Z	; std::forward<char * &>
	add	esp, 4
	push	eax
	mov	ecx, DWORD PTR __Ptr$[ebp]
	push	ecx
	mov	ecx, DWORD PTR __Al$[ebp]
	call	??$construct@PADAAPAD@?$allocator@D@std@@QAEXPAPADAAPAD@Z ; std::allocator<char>::construct<char *,char * &>
	pop	ebp
	ret	0
??$construct@PADAAPAD@?$allocator_traits@V?$allocator@D@std@@@std@@SAXAAV?$allocator@D@1@PAPADAAPAD@Z ENDP ; std::allocator_traits<std::allocator<char> >::construct<char *,char * &>
_TEXT	ENDS
; Function compile flags: /Odtp
; File c:\program files (x86)\microsoft visual studio 11.0\vc\include\type_traits
;	COMDAT ??$forward@AAPAD@std@@YAAAPADAAPAD@Z
_TEXT	SEGMENT
__Arg$ = 8						; size = 4
??$forward@AAPAD@std@@YAAAPADAAPAD@Z PROC		; std::forward<char * &>, COMDAT

; 1775 : 	{	// forward an lvalue

	push	ebp
	mov	ebp, esp

; 1776 : 	return (static_cast<_Ty&&>(_Arg));

	mov	eax, DWORD PTR __Arg$[ebp]

; 1777 : 	}

	pop	ebp
	ret	0
??$forward@AAPAD@std@@YAAAPADAAPAD@Z ENDP		; std::forward<char * &>
_TEXT	ENDS
; Function compile flags: /Odtp
;	COMDAT ??__F?_System_object@?$_Error_objects@H@std@@2V_System_error_category@2@A@@YAXXZ
text$yd	SEGMENT
??__F?_System_object@?$_Error_objects@H@std@@2V_System_error_category@2@A@@YAXXZ PROC ; `dynamic atexit destructor for 'std::_Error_objects<int>::_System_object'', COMDAT
	push	ebp
	mov	ebp, esp
	mov	ecx, OFFSET ?_System_object@?$_Error_objects@H@std@@2V_System_error_category@2@A ; std::_Error_objects<int>::_System_object
	call	??1_System_error_category@std@@UAE@XZ
	pop	ebp
	ret	0
??__F?_System_object@?$_Error_objects@H@std@@2V_System_error_category@2@A@@YAXXZ ENDP ; `dynamic atexit destructor for 'std::_Error_objects<int>::_System_object''
text$yd	ENDS
; Function compile flags: /Odtp
; File c:\program files (x86)\microsoft visual studio 11.0\vc\include\xmemory0
;	COMDAT ??__E?_System_object@?$_Error_objects@H@std@@2V_System_error_category@2@A@@YAXXZ
text$yc	SEGMENT
??__E?_System_object@?$_Error_objects@H@std@@2V_System_error_category@2@A@@YAXXZ PROC ; `dynamic initializer for 'std::_Error_objects<int>::_System_object'', COMDAT

; 627  : 		{	// estimate maximum array size

	push	ebp
	mov	ebp, esp
	mov	ecx, OFFSET ?_System_object@?$_Error_objects@H@std@@2V_System_error_category@2@A ; std::_Error_objects<int>::_System_object
	call	??0_System_error_category@std@@QAE@XZ	; std::_System_error_category::_System_error_category
	push	OFFSET ??__F?_System_object@?$_Error_objects@H@std@@2V_System_error_category@2@A@@YAXXZ ; `dynamic atexit destructor for 'std::_Error_objects<int>::_System_object''
	call	_atexit
	add	esp, 4
	pop	ebp
	ret	0
??__E?_System_object@?$_Error_objects@H@std@@2V_System_error_category@2@A@@YAXXZ ENDP ; `dynamic initializer for 'std::_Error_objects<int>::_System_object''
text$yc	ENDS
; Function compile flags: /Odtp
;	COMDAT ??__F?_Iostream_object@?$_Error_objects@H@std@@2V_Iostream_error_category@2@A@@YAXXZ
text$yd	SEGMENT
??__F?_Iostream_object@?$_Error_objects@H@std@@2V_Iostream_error_category@2@A@@YAXXZ PROC ; `dynamic atexit destructor for 'std::_Error_objects<int>::_Iostream_object'', COMDAT
	push	ebp
	mov	ebp, esp
	mov	ecx, OFFSET ?_Iostream_object@?$_Error_objects@H@std@@2V_Iostream_error_category@2@A ; std::_Error_objects<int>::_Iostream_object
	call	??1_Iostream_error_category@std@@UAE@XZ
	pop	ebp
	ret	0
??__F?_Iostream_object@?$_Error_objects@H@std@@2V_Iostream_error_category@2@A@@YAXXZ ENDP ; `dynamic atexit destructor for 'std::_Error_objects<int>::_Iostream_object''
text$yd	ENDS
; Function compile flags: /Odtp
; File c:\program files (x86)\microsoft visual studio 11.0\vc\include\xmemory0
;	COMDAT ??__E?_Iostream_object@?$_Error_objects@H@std@@2V_Iostream_error_category@2@A@@YAXXZ
text$yc	SEGMENT
??__E?_Iostream_object@?$_Error_objects@H@std@@2V_Iostream_error_category@2@A@@YAXXZ PROC ; `dynamic initializer for 'std::_Error_objects<int>::_Iostream_object'', COMDAT

; 627  : 		{	// estimate maximum array size

	push	ebp
	mov	ebp, esp
	mov	ecx, OFFSET ?_Iostream_object@?$_Error_objects@H@std@@2V_Iostream_error_category@2@A ; std::_Error_objects<int>::_Iostream_object
	call	??0_Iostream_error_category@std@@QAE@XZ	; std::_Iostream_error_category::_Iostream_error_category
	push	OFFSET ??__F?_Iostream_object@?$_Error_objects@H@std@@2V_Iostream_error_category@2@A@@YAXXZ ; `dynamic atexit destructor for 'std::_Error_objects<int>::_Iostream_object''
	call	_atexit
	add	esp, 4
	pop	ebp
	ret	0
??__E?_Iostream_object@?$_Error_objects@H@std@@2V_Iostream_error_category@2@A@@YAXXZ ENDP ; `dynamic initializer for 'std::_Error_objects<int>::_Iostream_object''
text$yc	ENDS
; Function compile flags: /Odtp
;	COMDAT ??__F?_Generic_object@?$_Error_objects@H@std@@2V_Generic_error_category@2@A@@YAXXZ
text$yd	SEGMENT
??__F?_Generic_object@?$_Error_objects@H@std@@2V_Generic_error_category@2@A@@YAXXZ PROC ; `dynamic atexit destructor for 'std::_Error_objects<int>::_Generic_object'', COMDAT
	push	ebp
	mov	ebp, esp
	mov	ecx, OFFSET ?_Generic_object@?$_Error_objects@H@std@@2V_Generic_error_category@2@A ; std::_Error_objects<int>::_Generic_object
	call	??1_Generic_error_category@std@@UAE@XZ
	pop	ebp
	ret	0
??__F?_Generic_object@?$_Error_objects@H@std@@2V_Generic_error_category@2@A@@YAXXZ ENDP ; `dynamic atexit destructor for 'std::_Error_objects<int>::_Generic_object''
text$yd	ENDS
; Function compile flags: /Odtp
; File c:\program files (x86)\microsoft visual studio 11.0\vc\include\xmemory0
;	COMDAT ??__E?_Generic_object@?$_Error_objects@H@std@@2V_Generic_error_category@2@A@@YAXXZ
text$yc	SEGMENT
??__E?_Generic_object@?$_Error_objects@H@std@@2V_Generic_error_category@2@A@@YAXXZ PROC ; `dynamic initializer for 'std::_Error_objects<int>::_Generic_object'', COMDAT

; 627  : 		{	// estimate maximum array size

	push	ebp
	mov	ebp, esp
	mov	ecx, OFFSET ?_Generic_object@?$_Error_objects@H@std@@2V_Generic_error_category@2@A ; std::_Error_objects<int>::_Generic_object
	call	??0_Generic_error_category@std@@QAE@XZ	; std::_Generic_error_category::_Generic_error_category
	push	OFFSET ??__F?_Generic_object@?$_Error_objects@H@std@@2V_Generic_error_category@2@A@@YAXXZ ; `dynamic atexit destructor for 'std::_Error_objects<int>::_Generic_object''
	call	_atexit
	add	esp, 4
	pop	ebp
	ret	0
??__E?_Generic_object@?$_Error_objects@H@std@@2V_Generic_error_category@2@A@@YAXXZ ENDP ; `dynamic initializer for 'std::_Error_objects<int>::_Generic_object''
text$yc	ENDS
; Function compile flags: /Odtp
; File c:\program files (x86)\microsoft visual studio 11.0\vc\include\xmemory0
;	COMDAT ??$_Allocate@D@std@@YAPADIPAD@Z
_TEXT	SEGMENT
__Ptr$ = -4						; size = 4
__Count$ = 8						; size = 4
___formal$ = 12						; size = 4
??$_Allocate@D@std@@YAPADIPAD@Z PROC			; std::_Allocate<char>, COMDAT

; 22   : 	{	// allocate storage for _Count elements of type _Ty

	push	ebp
	mov	ebp, esp
	push	ecx

; 23   : 	void *_Ptr = 0;

	mov	DWORD PTR __Ptr$[ebp], 0

; 24   : 
; 25   : 	if (_Count == 0)

	cmp	DWORD PTR __Count$[ebp], 0
	jne	SHORT $LN4@Allocate

; 26   : 		;
; 27   : 	else if (((size_t)(-1) / sizeof (_Ty) < _Count)

	jmp	SHORT $LN3@Allocate
$LN4@Allocate:

; 28   : 		|| (_Ptr = ::operator new(_Count * sizeof (_Ty))) == 0)

	cmp	DWORD PTR __Count$[ebp], -1
	ja	SHORT $LN1@Allocate
	mov	eax, DWORD PTR __Count$[ebp]
	push	eax
	call	??2@YAPAXI@Z				; operator new
	add	esp, 4
	mov	DWORD PTR __Ptr$[ebp], eax
	cmp	DWORD PTR __Ptr$[ebp], 0
	jne	SHORT $LN3@Allocate
$LN1@Allocate:

; 29   : 		_Xbad_alloc();	// report no memory

	call	?_Xbad_alloc@std@@YAXXZ			; std::_Xbad_alloc
$LN3@Allocate:

; 30   : 
; 31   : 	return ((_Ty *)_Ptr);

	mov	eax, DWORD PTR __Ptr$[ebp]
$LN6@Allocate:

; 32   : 	}

	mov	esp, ebp
	pop	ebp
	ret	0
??$_Allocate@D@std@@YAPADIPAD@Z ENDP			; std::_Allocate<char>
_TEXT	ENDS
; Function compile flags: /Odtp
; File c:\program files (x86)\microsoft visual studio 11.0\vc\include\xstddef
;	COMDAT ??$addressof@D@std@@YAPADAAD@Z
_TEXT	SEGMENT
__Val$ = 8						; size = 4
??$addressof@D@std@@YAPADAAD@Z PROC			; std::addressof<char>, COMDAT

; 85   : 	{	// return address of _Val

	push	ebp
	mov	ebp, esp

; 86   : 	return (reinterpret_cast<_Ty *>(
; 87   : 		(&const_cast<char&>(
; 88   : 		reinterpret_cast<const volatile char&>(_Val)))));

	mov	eax, DWORD PTR __Val$[ebp]

; 89   : 	}

	pop	ebp
	ret	0
??$addressof@D@std@@YAPADAAD@Z ENDP			; std::addressof<char>
_TEXT	ENDS
; Function compile flags: /Odtp
; File c:\program files (x86)\microsoft visual studio 11.0\vc\include\xmemory0
;	COMDAT ??$destroy@PAD@?$_Wrap_alloc@V?$allocator@D@std@@@std@@QAEXPAPAD@Z
_TEXT	SEGMENT
_this$ = -4						; size = 4
__Ptr$ = 8						; size = 4
??$destroy@PAD@?$_Wrap_alloc@V?$allocator@D@std@@@std@@QAEXPAPAD@Z PROC ; std::_Wrap_alloc<std::allocator<char> >::destroy<char *>, COMDAT
; _this$ = ecx

; 907  : 		void destroy(_Ty *_Ptr)

	push	ebp
	mov	ebp, esp
	push	ecx
	mov	DWORD PTR _this$[ebp], ecx

; 908  : 		{	// destroy object at _Ptr
; 909  : 		_Mytraits::destroy(*this, _Ptr);

	mov	eax, DWORD PTR __Ptr$[ebp]
	push	eax
	mov	ecx, DWORD PTR _this$[ebp]
	push	ecx
	call	??$destroy@PAD@?$allocator_traits@V?$allocator@D@std@@@std@@SAXAAV?$allocator@D@1@PAPAD@Z ; std::allocator_traits<std::allocator<char> >::destroy<char *>
	add	esp, 8

; 910  : 		}

	mov	esp, ebp
	pop	ebp
	ret	4
??$destroy@PAD@?$_Wrap_alloc@V?$allocator@D@std@@@std@@QAEXPAPAD@Z ENDP ; std::_Wrap_alloc<std::allocator<char> >::destroy<char *>
_TEXT	ENDS
; Function compile flags: /Odtp
; File c:\program files (x86)\microsoft visual studio 11.0\vc\include\xmemory0
;	COMDAT ??$construct@PADAAPAD@?$_Wrap_alloc@V?$allocator@D@std@@@std@@QAEXPAPADAAPAD@Z
_TEXT	SEGMENT
_this$ = -4						; size = 4
__Ptr$ = 8						; size = 4
__V0$ = 12						; size = 4
??$construct@PADAAPAD@?$_Wrap_alloc@V?$allocator@D@std@@@std@@QAEXPAPADAAPAD@Z PROC ; std::_Wrap_alloc<std::allocator<char> >::construct<char *,char * &>, COMDAT
; _this$ = ecx

; 903  : _VARIADIC_EXPAND_0X(_WRAP_ALLOC_CONSTRUCT, , , , )

	push	ebp
	mov	ebp, esp
	push	ecx
	mov	DWORD PTR _this$[ebp], ecx
	mov	eax, DWORD PTR __V0$[ebp]
	push	eax
	call	??$forward@AAPAD@std@@YAAAPADAAPAD@Z	; std::forward<char * &>
	add	esp, 4
	push	eax
	mov	ecx, DWORD PTR __Ptr$[ebp]
	push	ecx
	mov	edx, DWORD PTR _this$[ebp]
	push	edx
	call	??$construct@PADAAPAD@?$allocator_traits@V?$allocator@D@std@@@std@@SAXAAV?$allocator@D@1@PAPADAAPAD@Z ; std::allocator_traits<std::allocator<char> >::construct<char *,char * &>
	add	esp, 12					; 0000000cH
	mov	esp, ebp
	pop	ebp
	ret	8
??$construct@PADAAPAD@?$_Wrap_alloc@V?$allocator@D@std@@@std@@QAEXPAPADAAPAD@Z ENDP ; std::_Wrap_alloc<std::allocator<char> >::construct<char *,char * &>
_TEXT	ENDS
; Function compile flags: /Odtp
;	COMDAT ??_G_System_error_category@std@@UAEPAXI@Z
_TEXT	SEGMENT
_this$ = -4						; size = 4
___flags$ = 8						; size = 4
??_G_System_error_category@std@@UAEPAXI@Z PROC		; std::_System_error_category::`scalar deleting destructor', COMDAT
; _this$ = ecx
	push	ebp
	mov	ebp, esp
	push	ecx
	mov	DWORD PTR _this$[ebp], ecx
	mov	ecx, DWORD PTR _this$[ebp]
	call	??1_System_error_category@std@@UAE@XZ
	mov	eax, DWORD PTR ___flags$[ebp]
	and	eax, 1
	je	SHORT $LN1@scalar
	mov	ecx, DWORD PTR _this$[ebp]
	push	ecx
	call	??3@YAXPAX@Z				; operator delete
	add	esp, 4
$LN1@scalar:
	mov	eax, DWORD PTR _this$[ebp]
	mov	esp, ebp
	pop	ebp
	ret	4
??_G_System_error_category@std@@UAEPAXI@Z ENDP		; std::_System_error_category::`scalar deleting destructor'
_TEXT	ENDS
; Function compile flags: /Odtp
;	COMDAT ??1_System_error_category@std@@UAE@XZ
_TEXT	SEGMENT
_this$ = -4						; size = 4
??1_System_error_category@std@@UAE@XZ PROC		; std::_System_error_category::~_System_error_category, COMDAT
; _this$ = ecx
	push	ebp
	mov	ebp, esp
	push	ecx
	mov	DWORD PTR _this$[ebp], ecx
	mov	ecx, DWORD PTR _this$[ebp]
	call	??1_Generic_error_category@std@@UAE@XZ
	mov	esp, ebp
	pop	ebp
	ret	0
??1_System_error_category@std@@UAE@XZ ENDP		; std::_System_error_category::~_System_error_category
_TEXT	ENDS
; Function compile flags: /Odtp
; File c:\program files (x86)\microsoft visual studio 11.0\vc\include\system_error
;	COMDAT ?default_error_condition@_System_error_category@std@@UBE?AVerror_condition@2@H@Z
_TEXT	SEGMENT
_this$ = -4						; size = 4
___$ReturnUdt$ = 8					; size = 4
__Errval$ = 12						; size = 4
?default_error_condition@_System_error_category@std@@UBE?AVerror_condition@2@H@Z PROC ; std::_System_error_category::default_error_condition, COMDAT
; _this$ = ecx

; 641  : 		{	// make error_condition for error code (generic if possible)

	push	ebp
	mov	ebp, esp
	push	ecx
	mov	DWORD PTR _this$[ebp], ecx

; 642  : 		if (_Syserror_map(_Errval))

	mov	eax, DWORD PTR __Errval$[ebp]
	push	eax
	call	?_Syserror_map@std@@YAPBDH@Z		; std::_Syserror_map
	add	esp, 4
	test	eax, eax
	je	SHORT $LN2@default_er

; 643  : 			return (error_condition(_Errval, generic_category()));

	call	?generic_category@std@@YAABVerror_category@1@XZ ; std::generic_category
	push	eax
	mov	ecx, DWORD PTR __Errval$[ebp]
	push	ecx
	mov	ecx, DWORD PTR ___$ReturnUdt$[ebp]
	call	??0error_condition@std@@QAE@HABVerror_category@1@@Z ; std::error_condition::error_condition
	mov	eax, DWORD PTR ___$ReturnUdt$[ebp]
	jmp	SHORT $LN3@default_er

; 644  : 		else

	jmp	SHORT $LN3@default_er
$LN2@default_er:

; 645  : 			return (error_condition(_Errval, system_category()));

	call	?system_category@std@@YAABVerror_category@1@XZ ; std::system_category
	push	eax
	mov	edx, DWORD PTR __Errval$[ebp]
	push	edx
	mov	ecx, DWORD PTR ___$ReturnUdt$[ebp]
	call	??0error_condition@std@@QAE@HABVerror_category@1@@Z ; std::error_condition::error_condition
	mov	eax, DWORD PTR ___$ReturnUdt$[ebp]
$LN3@default_er:

; 646  : 		}

	mov	esp, ebp
	pop	ebp
	ret	8
?default_error_condition@_System_error_category@std@@UBE?AVerror_condition@2@H@Z ENDP ; std::_System_error_category::default_error_condition
_TEXT	ENDS
; Function compile flags: /Odtp
; File c:\program files (x86)\microsoft visual studio 11.0\vc\include\system_error
;	COMDAT ?message@_System_error_category@std@@UBE?AV?$basic_string@DU?$char_traits@D@std@@V?$allocator@D@2@@2@H@Z
_TEXT	SEGMENT
_this$ = -16						; size = 4
$T1 = -12						; size = 4
tv69 = -8						; size = 4
__Name$ = -4						; size = 4
___$ReturnUdt$ = 8					; size = 4
__Errcode$ = 12						; size = 4
?message@_System_error_category@std@@UBE?AV?$basic_string@DU?$char_traits@D@std@@V?$allocator@D@2@@2@H@Z PROC ; std::_System_error_category::message, COMDAT
; _this$ = ecx

; 634  : 		{	// convert to name of error

	push	ebp
	mov	ebp, esp
	sub	esp, 16					; 00000010H
	mov	DWORD PTR _this$[ebp], ecx
	mov	DWORD PTR $T1[ebp], 0

; 635  : 		const char *_Name = _Winerror_map(_Errcode);

	mov	eax, DWORD PTR __Errcode$[ebp]
	push	eax
	call	?_Winerror_map@std@@YAPBDH@Z		; std::_Winerror_map
	add	esp, 4
	mov	DWORD PTR __Name$[ebp], eax

; 636  : 		return (string(_Name != 0 ? _Name : "unknown error"));

	cmp	DWORD PTR __Name$[ebp], 0
	je	SHORT $LN3@message
	mov	ecx, DWORD PTR __Name$[ebp]
	mov	DWORD PTR tv69[ebp], ecx
	jmp	SHORT $LN4@message
$LN3@message:
	mov	DWORD PTR tv69[ebp], OFFSET ??_C@_0O@BFJCFAAK@unknown?5error?$AA@
$LN4@message:
	mov	edx, DWORD PTR tv69[ebp]
	push	edx
	mov	ecx, DWORD PTR ___$ReturnUdt$[ebp]
	call	??0?$basic_string@DU?$char_traits@D@std@@V?$allocator@D@2@@std@@QAE@PBD@Z ; std::basic_string<char,std::char_traits<char>,std::allocator<char> >::basic_string<char,std::char_traits<char>,std::allocator<char> >
	mov	eax, DWORD PTR $T1[ebp]
	or	eax, 1
	mov	DWORD PTR $T1[ebp], eax
	mov	eax, DWORD PTR ___$ReturnUdt$[ebp]

; 637  : 		}

	mov	esp, ebp
	pop	ebp
	ret	8
?message@_System_error_category@std@@UBE?AV?$basic_string@DU?$char_traits@D@std@@V?$allocator@D@2@@2@H@Z ENDP ; std::_System_error_category::message
_TEXT	ENDS
; Function compile flags: /Odtp
; File c:\program files (x86)\microsoft visual studio 11.0\vc\include\system_error
;	COMDAT ?name@_System_error_category@std@@UBEPBDXZ
_TEXT	SEGMENT
_this$ = -4						; size = 4
?name@_System_error_category@std@@UBEPBDXZ PROC		; std::_System_error_category::name, COMDAT
; _this$ = ecx

; 629  : 		{	// get name of category

	push	ebp
	mov	ebp, esp
	push	ecx
	mov	DWORD PTR _this$[ebp], ecx

; 630  : 		return ("system");

	mov	eax, OFFSET ??_C@_06FHFOAHML@system?$AA@

; 631  : 		}

	mov	esp, ebp
	pop	ebp
	ret	0
?name@_System_error_category@std@@UBEPBDXZ ENDP		; std::_System_error_category::name
_TEXT	ENDS
; Function compile flags: /Odtp
; File c:\program files (x86)\microsoft visual studio 11.0\vc\include\system_error
;	COMDAT ??0_System_error_category@std@@QAE@XZ
_TEXT	SEGMENT
_this$ = -4						; size = 4
??0_System_error_category@std@@QAE@XZ PROC		; std::_System_error_category::_System_error_category, COMDAT
; _this$ = ecx

; 624  : 	_System_error_category()

	push	ebp
	mov	ebp, esp
	push	ecx
	mov	DWORD PTR _this$[ebp], ecx
	mov	ecx, DWORD PTR _this$[ebp]
	call	??0_Generic_error_category@std@@QAE@XZ	; std::_Generic_error_category::_Generic_error_category
	mov	eax, DWORD PTR _this$[ebp]
	mov	DWORD PTR [eax], OFFSET ??_7_System_error_category@std@@6B@

; 625  : 		{	// default constructor
; 626  : 		}

	mov	eax, DWORD PTR _this$[ebp]
	mov	esp, ebp
	pop	ebp
	ret	0
??0_System_error_category@std@@QAE@XZ ENDP		; std::_System_error_category::_System_error_category
_TEXT	ENDS
; Function compile flags: /Odtp
;	COMDAT ??_G_Iostream_error_category@std@@UAEPAXI@Z
_TEXT	SEGMENT
_this$ = -4						; size = 4
___flags$ = 8						; size = 4
??_G_Iostream_error_category@std@@UAEPAXI@Z PROC	; std::_Iostream_error_category::`scalar deleting destructor', COMDAT
; _this$ = ecx
	push	ebp
	mov	ebp, esp
	push	ecx
	mov	DWORD PTR _this$[ebp], ecx
	mov	ecx, DWORD PTR _this$[ebp]
	call	??1_Iostream_error_category@std@@UAE@XZ
	mov	eax, DWORD PTR ___flags$[ebp]
	and	eax, 1
	je	SHORT $LN1@scalar
	mov	ecx, DWORD PTR _this$[ebp]
	push	ecx
	call	??3@YAXPAX@Z				; operator delete
	add	esp, 4
$LN1@scalar:
	mov	eax, DWORD PTR _this$[ebp]
	mov	esp, ebp
	pop	ebp
	ret	4
??_G_Iostream_error_category@std@@UAEPAXI@Z ENDP	; std::_Iostream_error_category::`scalar deleting destructor'
_TEXT	ENDS
; Function compile flags: /Odtp
;	COMDAT ??1_Iostream_error_category@std@@UAE@XZ
_TEXT	SEGMENT
_this$ = -4						; size = 4
??1_Iostream_error_category@std@@UAE@XZ PROC		; std::_Iostream_error_category::~_Iostream_error_category, COMDAT
; _this$ = ecx
	push	ebp
	mov	ebp, esp
	push	ecx
	mov	DWORD PTR _this$[ebp], ecx
	mov	ecx, DWORD PTR _this$[ebp]
	call	??1_Generic_error_category@std@@UAE@XZ
	mov	esp, ebp
	pop	ebp
	ret	0
??1_Iostream_error_category@std@@UAE@XZ ENDP		; std::_Iostream_error_category::~_Iostream_error_category
_TEXT	ENDS
; Function compile flags: /Odtp
; File c:\program files (x86)\microsoft visual studio 11.0\vc\include\system_error
;	COMDAT ?message@_Iostream_error_category@std@@UBE?AV?$basic_string@DU?$char_traits@D@std@@V?$allocator@D@2@@2@H@Z
_TEXT	SEGMENT
_this$ = -8						; size = 4
$T1 = -4						; size = 4
___$ReturnUdt$ = 8					; size = 4
__Errcode$ = 12						; size = 4
?message@_Iostream_error_category@std@@UBE?AV?$basic_string@DU?$char_traits@D@std@@V?$allocator@D@2@@2@H@Z PROC ; std::_Iostream_error_category::message, COMDAT
; _this$ = ecx

; 611  : 		{	// convert to name of error

	push	ebp
	mov	ebp, esp
	sub	esp, 8
	mov	DWORD PTR _this$[ebp], ecx
	mov	DWORD PTR $T1[ebp], 0

; 612  : 		if (_Errcode == (int)io_errc::stream)

	cmp	DWORD PTR __Errcode$[ebp], 1
	jne	SHORT $LN2@message

; 613  : 			return ("iostream stream error");

	push	OFFSET ??_C@_0BG@PADBLCHM@iostream?5stream?5error?$AA@
	mov	ecx, DWORD PTR ___$ReturnUdt$[ebp]
	call	??0?$basic_string@DU?$char_traits@D@std@@V?$allocator@D@2@@std@@QAE@PBD@Z ; std::basic_string<char,std::char_traits<char>,std::allocator<char> >::basic_string<char,std::char_traits<char>,std::allocator<char> >
	mov	eax, DWORD PTR $T1[ebp]
	or	eax, 1
	mov	DWORD PTR $T1[ebp], eax
	mov	eax, DWORD PTR ___$ReturnUdt$[ebp]
	jmp	SHORT $LN3@message

; 614  : 		else

	jmp	SHORT $LN3@message
$LN2@message:

; 615  : 			return (_Generic_error_category::message(_Errcode));

	mov	ecx, DWORD PTR __Errcode$[ebp]
	push	ecx
	mov	edx, DWORD PTR ___$ReturnUdt$[ebp]
	push	edx
	mov	ecx, DWORD PTR _this$[ebp]
	call	?message@_Generic_error_category@std@@UBE?AV?$basic_string@DU?$char_traits@D@std@@V?$allocator@D@2@@2@H@Z ; std::_Generic_error_category::message
	mov	eax, DWORD PTR $T1[ebp]
	or	eax, 1
	mov	DWORD PTR $T1[ebp], eax
	mov	eax, DWORD PTR ___$ReturnUdt$[ebp]
$LN3@message:

; 616  : 		}

	mov	esp, ebp
	pop	ebp
	ret	8
?message@_Iostream_error_category@std@@UBE?AV?$basic_string@DU?$char_traits@D@std@@V?$allocator@D@2@@2@H@Z ENDP ; std::_Iostream_error_category::message
_TEXT	ENDS
; Function compile flags: /Odtp
; File c:\program files (x86)\microsoft visual studio 11.0\vc\include\system_error
;	COMDAT ?name@_Iostream_error_category@std@@UBEPBDXZ
_TEXT	SEGMENT
_this$ = -4						; size = 4
?name@_Iostream_error_category@std@@UBEPBDXZ PROC	; std::_Iostream_error_category::name, COMDAT
; _this$ = ecx

; 606  : 		{	// get name of category

	push	ebp
	mov	ebp, esp
	push	ecx
	mov	DWORD PTR _this$[ebp], ecx

; 607  : 		return ("iostream");

	mov	eax, OFFSET ??_C@_08LLGCOLLL@iostream?$AA@

; 608  : 		}

	mov	esp, ebp
	pop	ebp
	ret	0
?name@_Iostream_error_category@std@@UBEPBDXZ ENDP	; std::_Iostream_error_category::name
_TEXT	ENDS
; Function compile flags: /Odtp
; File c:\program files (x86)\microsoft visual studio 11.0\vc\include\system_error
;	COMDAT ??0_Iostream_error_category@std@@QAE@XZ
_TEXT	SEGMENT
_this$ = -4						; size = 4
??0_Iostream_error_category@std@@QAE@XZ PROC		; std::_Iostream_error_category::_Iostream_error_category, COMDAT
; _this$ = ecx

; 601  : 	_Iostream_error_category()

	push	ebp
	mov	ebp, esp
	push	ecx
	mov	DWORD PTR _this$[ebp], ecx
	mov	ecx, DWORD PTR _this$[ebp]
	call	??0_Generic_error_category@std@@QAE@XZ	; std::_Generic_error_category::_Generic_error_category
	mov	eax, DWORD PTR _this$[ebp]
	mov	DWORD PTR [eax], OFFSET ??_7_Iostream_error_category@std@@6B@

; 602  : 		{	// default constructor
; 603  : 		}

	mov	eax, DWORD PTR _this$[ebp]
	mov	esp, ebp
	pop	ebp
	ret	0
??0_Iostream_error_category@std@@QAE@XZ ENDP		; std::_Iostream_error_category::_Iostream_error_category
_TEXT	ENDS
; Function compile flags: /Odtp
;	COMDAT ??_G_Generic_error_category@std@@UAEPAXI@Z
_TEXT	SEGMENT
_this$ = -4						; size = 4
___flags$ = 8						; size = 4
??_G_Generic_error_category@std@@UAEPAXI@Z PROC		; std::_Generic_error_category::`scalar deleting destructor', COMDAT
; _this$ = ecx
	push	ebp
	mov	ebp, esp
	push	ecx
	mov	DWORD PTR _this$[ebp], ecx
	mov	ecx, DWORD PTR _this$[ebp]
	call	??1_Generic_error_category@std@@UAE@XZ
	mov	eax, DWORD PTR ___flags$[ebp]
	and	eax, 1
	je	SHORT $LN1@scalar
	mov	ecx, DWORD PTR _this$[ebp]
	push	ecx
	call	??3@YAXPAX@Z				; operator delete
	add	esp, 4
$LN1@scalar:
	mov	eax, DWORD PTR _this$[ebp]
	mov	esp, ebp
	pop	ebp
	ret	4
??_G_Generic_error_category@std@@UAEPAXI@Z ENDP		; std::_Generic_error_category::`scalar deleting destructor'
_TEXT	ENDS
; Function compile flags: /Odtp
;	COMDAT ??1_Generic_error_category@std@@UAE@XZ
_TEXT	SEGMENT
_this$ = -4						; size = 4
??1_Generic_error_category@std@@UAE@XZ PROC		; std::_Generic_error_category::~_Generic_error_category, COMDAT
; _this$ = ecx
	push	ebp
	mov	ebp, esp
	push	ecx
	mov	DWORD PTR _this$[ebp], ecx
	mov	ecx, DWORD PTR _this$[ebp]
	call	??1error_category@std@@UAE@XZ		; std::error_category::~error_category
	mov	esp, ebp
	pop	ebp
	ret	0
??1_Generic_error_category@std@@UAE@XZ ENDP		; std::_Generic_error_category::~_Generic_error_category
_TEXT	ENDS
; Function compile flags: /Odtp
; File c:\program files (x86)\microsoft visual studio 11.0\vc\include\system_error
;	COMDAT ?message@_Generic_error_category@std@@UBE?AV?$basic_string@DU?$char_traits@D@std@@V?$allocator@D@2@@2@H@Z
_TEXT	SEGMENT
_this$ = -16						; size = 4
$T1 = -12						; size = 4
tv69 = -8						; size = 4
__Name$ = -4						; size = 4
___$ReturnUdt$ = 8					; size = 4
__Errcode$ = 12						; size = 4
?message@_Generic_error_category@std@@UBE?AV?$basic_string@DU?$char_traits@D@std@@V?$allocator@D@2@@2@H@Z PROC ; std::_Generic_error_category::message, COMDAT
; _this$ = ecx

; 590  : 		{	// convert to name of error

	push	ebp
	mov	ebp, esp
	sub	esp, 16					; 00000010H
	mov	DWORD PTR _this$[ebp], ecx
	mov	DWORD PTR $T1[ebp], 0

; 591  : 		const char *_Name = _Syserror_map(_Errcode);

	mov	eax, DWORD PTR __Errcode$[ebp]
	push	eax
	call	?_Syserror_map@std@@YAPBDH@Z		; std::_Syserror_map
	add	esp, 4
	mov	DWORD PTR __Name$[ebp], eax

; 592  : 		return (string(_Name != 0 ? _Name : "unknown error"));

	cmp	DWORD PTR __Name$[ebp], 0
	je	SHORT $LN3@message
	mov	ecx, DWORD PTR __Name$[ebp]
	mov	DWORD PTR tv69[ebp], ecx
	jmp	SHORT $LN4@message
$LN3@message:
	mov	DWORD PTR tv69[ebp], OFFSET ??_C@_0O@BFJCFAAK@unknown?5error?$AA@
$LN4@message:
	mov	edx, DWORD PTR tv69[ebp]
	push	edx
	mov	ecx, DWORD PTR ___$ReturnUdt$[ebp]
	call	??0?$basic_string@DU?$char_traits@D@std@@V?$allocator@D@2@@std@@QAE@PBD@Z ; std::basic_string<char,std::char_traits<char>,std::allocator<char> >::basic_string<char,std::char_traits<char>,std::allocator<char> >
	mov	eax, DWORD PTR $T1[ebp]
	or	eax, 1
	mov	DWORD PTR $T1[ebp], eax
	mov	eax, DWORD PTR ___$ReturnUdt$[ebp]

; 593  : 		}

	mov	esp, ebp
	pop	ebp
	ret	8
?message@_Generic_error_category@std@@UBE?AV?$basic_string@DU?$char_traits@D@std@@V?$allocator@D@2@@2@H@Z ENDP ; std::_Generic_error_category::message
_TEXT	ENDS
; Function compile flags: /Odtp
; File c:\program files (x86)\microsoft visual studio 11.0\vc\include\system_error
;	COMDAT ?name@_Generic_error_category@std@@UBEPBDXZ
_TEXT	SEGMENT
_this$ = -4						; size = 4
?name@_Generic_error_category@std@@UBEPBDXZ PROC	; std::_Generic_error_category::name, COMDAT
; _this$ = ecx

; 585  : 		{	// get name of category

	push	ebp
	mov	ebp, esp
	push	ecx
	mov	DWORD PTR _this$[ebp], ecx

; 586  : 		return ("generic");

	mov	eax, OFFSET ??_C@_07DCLBNMLN@generic?$AA@

; 587  : 		}

	mov	esp, ebp
	pop	ebp
	ret	0
?name@_Generic_error_category@std@@UBEPBDXZ ENDP	; std::_Generic_error_category::name
_TEXT	ENDS
; Function compile flags: /Odtp
; File c:\program files (x86)\microsoft visual studio 11.0\vc\include\system_error
;	COMDAT ??0_Generic_error_category@std@@QAE@XZ
_TEXT	SEGMENT
_this$ = -4						; size = 4
??0_Generic_error_category@std@@QAE@XZ PROC		; std::_Generic_error_category::_Generic_error_category, COMDAT
; _this$ = ecx

; 580  : 	_Generic_error_category()

	push	ebp
	mov	ebp, esp
	push	ecx
	mov	DWORD PTR _this$[ebp], ecx
	mov	ecx, DWORD PTR _this$[ebp]
	call	??0error_category@std@@QAE@XZ		; std::error_category::error_category
	mov	eax, DWORD PTR _this$[ebp]
	mov	DWORD PTR [eax], OFFSET ??_7_Generic_error_category@std@@6B@

; 581  : 		{	// default constructor
; 582  : 		}

	mov	eax, DWORD PTR _this$[ebp]
	mov	esp, ebp
	pop	ebp
	ret	0
??0_Generic_error_category@std@@QAE@XZ ENDP		; std::_Generic_error_category::_Generic_error_category
_TEXT	ENDS
; Function compile flags: /Odtp
; File c:\program files (x86)\microsoft visual studio 11.0\vc\include\system_error
;	COMDAT ??8error_condition@std@@QBE_NABV01@@Z
_TEXT	SEGMENT
tv78 = -8						; size = 4
_this$ = -4						; size = 4
__Right$ = 8						; size = 4
??8error_condition@std@@QBE_NABV01@@Z PROC		; std::error_condition::operator==, COMDAT
; _this$ = ecx

; 376  : 		{	// test if *this == _Right

	push	ebp
	mov	ebp, esp
	sub	esp, 8
	push	esi
	mov	DWORD PTR _this$[ebp], ecx

; 377  : 		return (category() == _Right.category()
; 378  : 			&& value() == _Right.value());

	mov	ecx, DWORD PTR __Right$[ebp]
	call	?category@error_condition@std@@QBEABVerror_category@2@XZ ; std::error_condition::category
	push	eax
	mov	ecx, DWORD PTR _this$[ebp]
	call	?category@error_condition@std@@QBEABVerror_category@2@XZ ; std::error_condition::category
	mov	ecx, eax
	call	??8error_category@std@@QBE_NABV01@@Z	; std::error_category::operator==
	movzx	eax, al
	test	eax, eax
	je	SHORT $LN3@operator
	mov	ecx, DWORD PTR _this$[ebp]
	call	?value@error_condition@std@@QBEHXZ	; std::error_condition::value
	mov	esi, eax
	mov	ecx, DWORD PTR __Right$[ebp]
	call	?value@error_condition@std@@QBEHXZ	; std::error_condition::value
	cmp	esi, eax
	jne	SHORT $LN3@operator
	mov	DWORD PTR tv78[ebp], 1
	jmp	SHORT $LN4@operator
$LN3@operator:
	mov	DWORD PTR tv78[ebp], 0
$LN4@operator:
	mov	al, BYTE PTR tv78[ebp]

; 379  : 		}

	pop	esi
	mov	esp, ebp
	pop	ebp
	ret	4
??8error_condition@std@@QBE_NABV01@@Z ENDP		; std::error_condition::operator==
_TEXT	ENDS
; Function compile flags: /Odtp
; File c:\program files (x86)\microsoft visual studio 11.0\vc\include\system_error
;	COMDAT ?category@error_condition@std@@QBEABVerror_category@2@XZ
_TEXT	SEGMENT
_this$ = -4						; size = 4
?category@error_condition@std@@QBEABVerror_category@2@XZ PROC ; std::error_condition::category, COMDAT
; _this$ = ecx

; 354  : 		{	// get category

	push	ebp
	mov	ebp, esp
	push	ecx
	mov	DWORD PTR _this$[ebp], ecx

; 355  : 		return (*_Mycat);

	mov	eax, DWORD PTR _this$[ebp]
	mov	eax, DWORD PTR [eax+4]

; 356  : 		}

	mov	esp, ebp
	pop	ebp
	ret	0
?category@error_condition@std@@QBEABVerror_category@2@XZ ENDP ; std::error_condition::category
_TEXT	ENDS
; Function compile flags: /Odtp
; File c:\program files (x86)\microsoft visual studio 11.0\vc\include\system_error
;	COMDAT ?value@error_condition@std@@QBEHXZ
_TEXT	SEGMENT
_this$ = -4						; size = 4
?value@error_condition@std@@QBEHXZ PROC			; std::error_condition::value, COMDAT
; _this$ = ecx

; 349  : 		{	// get error code

	push	ebp
	mov	ebp, esp
	push	ecx
	mov	DWORD PTR _this$[ebp], ecx

; 350  : 		return (_Myval);

	mov	eax, DWORD PTR _this$[ebp]
	mov	eax, DWORD PTR [eax]

; 351  : 		}

	mov	esp, ebp
	pop	ebp
	ret	0
?value@error_condition@std@@QBEHXZ ENDP			; std::error_condition::value
_TEXT	ENDS
; Function compile flags: /Odtp
; File c:\program files (x86)\microsoft visual studio 11.0\vc\include\system_error
;	COMDAT ??0error_condition@std@@QAE@HABVerror_category@1@@Z
_TEXT	SEGMENT
_this$ = -4						; size = 4
__Val$ = 8						; size = 4
__Cat$ = 12						; size = 4
??0error_condition@std@@QAE@HABVerror_category@1@@Z PROC ; std::error_condition::error_condition, COMDAT
; _this$ = ecx

; 316  : 		{	// construct from error code and category

	push	ebp
	mov	ebp, esp
	push	ecx
	mov	DWORD PTR _this$[ebp], ecx
	mov	eax, DWORD PTR _this$[ebp]
	mov	ecx, DWORD PTR __Val$[ebp]
	mov	DWORD PTR [eax], ecx
	mov	edx, DWORD PTR _this$[ebp]
	mov	eax, DWORD PTR __Cat$[ebp]
	mov	DWORD PTR [edx+4], eax

; 317  : 		}

	mov	eax, DWORD PTR _this$[ebp]
	mov	esp, ebp
	pop	ebp
	ret	8
??0error_condition@std@@QAE@HABVerror_category@1@@Z ENDP ; std::error_condition::error_condition
_TEXT	ENDS
; Function compile flags: /Odtp
; File c:\program files (x86)\microsoft visual studio 11.0\vc\include\system_error
;	COMDAT ?category@error_code@std@@QBEABVerror_category@2@XZ
_TEXT	SEGMENT
_this$ = -4						; size = 4
?category@error_code@std@@QBEABVerror_category@2@XZ PROC ; std::error_code::category, COMDAT
; _this$ = ecx

; 256  : 		{	// get category

	push	ebp
	mov	ebp, esp
	push	ecx
	mov	DWORD PTR _this$[ebp], ecx

; 257  : 		return (*_Mycat);

	mov	eax, DWORD PTR _this$[ebp]
	mov	eax, DWORD PTR [eax+4]

; 258  : 		}

	mov	esp, ebp
	pop	ebp
	ret	0
?category@error_code@std@@QBEABVerror_category@2@XZ ENDP ; std::error_code::category
_TEXT	ENDS
; Function compile flags: /Odtp
; File c:\program files (x86)\microsoft visual studio 11.0\vc\include\system_error
;	COMDAT ?value@error_code@std@@QBEHXZ
_TEXT	SEGMENT
_this$ = -4						; size = 4
?value@error_code@std@@QBEHXZ PROC			; std::error_code::value, COMDAT
; _this$ = ecx

; 251  : 		{	// get error code

	push	ebp
	mov	ebp, esp
	push	ecx
	mov	DWORD PTR _this$[ebp], ecx

; 252  : 		return (_Myval);

	mov	eax, DWORD PTR _this$[ebp]
	mov	eax, DWORD PTR [eax]

; 253  : 		}

	mov	esp, ebp
	pop	ebp
	ret	0
?value@error_code@std@@QBEHXZ ENDP			; std::error_code::value
_TEXT	ENDS
; Function compile flags: /Odtp
;	COMDAT ??_Gerror_category@std@@UAEPAXI@Z
_TEXT	SEGMENT
_this$ = -4						; size = 4
___flags$ = 8						; size = 4
??_Gerror_category@std@@UAEPAXI@Z PROC			; std::error_category::`scalar deleting destructor', COMDAT
; _this$ = ecx
	push	ebp
	mov	ebp, esp
	push	ecx
	mov	DWORD PTR _this$[ebp], ecx
	mov	ecx, DWORD PTR _this$[ebp]
	call	??1error_category@std@@UAE@XZ		; std::error_category::~error_category
	mov	eax, DWORD PTR ___flags$[ebp]
	and	eax, 1
	je	SHORT $LN1@scalar
	mov	ecx, DWORD PTR _this$[ebp]
	push	ecx
	call	??3@YAXPAX@Z				; operator delete
	add	esp, 4
$LN1@scalar:
	mov	eax, DWORD PTR _this$[ebp]
	mov	esp, ebp
	pop	ebp
	ret	4
??_Gerror_category@std@@UAEPAXI@Z ENDP			; std::error_category::`scalar deleting destructor'
_TEXT	ENDS
; Function compile flags: /Odtp
; File c:\program files (x86)\microsoft visual studio 11.0\vc\include\system_error
;	COMDAT ??8error_category@std@@QBE_NABV01@@Z
_TEXT	SEGMENT
_this$ = -8						; size = 4
tv65 = -4						; size = 4
__Right$ = 8						; size = 4
??8error_category@std@@QBE_NABV01@@Z PROC		; std::error_category::operator==, COMDAT
; _this$ = ecx

; 184  : 		{	// compare categories for equality

	push	ebp
	mov	ebp, esp
	sub	esp, 8
	mov	DWORD PTR _this$[ebp], ecx

; 185  : 		return (this == &_Right);

	mov	eax, DWORD PTR _this$[ebp]
	cmp	eax, DWORD PTR __Right$[ebp]
	jne	SHORT $LN3@operator
	mov	DWORD PTR tv65[ebp], 1
	jmp	SHORT $LN4@operator
$LN3@operator:
	mov	DWORD PTR tv65[ebp], 0
$LN4@operator:
	mov	al, BYTE PTR tv65[ebp]

; 186  : 		}

	mov	esp, ebp
	pop	ebp
	ret	4
??8error_category@std@@QBE_NABV01@@Z ENDP		; std::error_category::operator==
_TEXT	ENDS
; Function compile flags: /Odtp
; File c:\program files (x86)\microsoft visual studio 11.0\vc\include\system_error
;	COMDAT ?equivalent@error_category@std@@UBE_NABVerror_code@2@H@Z
_TEXT	SEGMENT
_this$ = -8						; size = 4
tv74 = -4						; size = 4
__Code$ = 8						; size = 4
__Errval$ = 12						; size = 4
?equivalent@error_category@std@@UBE_NABVerror_code@2@H@Z PROC ; std::error_category::equivalent, COMDAT
; _this$ = ecx

; 415  : 	{	// test if conditions same for this category

	push	ebp
	mov	ebp, esp
	sub	esp, 8
	mov	DWORD PTR _this$[ebp], ecx

; 416  : 	return (*this == _Code.category() && _Code.value() == _Errval);

	mov	ecx, DWORD PTR __Code$[ebp]
	call	?category@error_code@std@@QBEABVerror_category@2@XZ ; std::error_code::category
	push	eax
	mov	ecx, DWORD PTR _this$[ebp]
	call	??8error_category@std@@QBE_NABV01@@Z	; std::error_category::operator==
	movzx	eax, al
	test	eax, eax
	je	SHORT $LN3@equivalent
	mov	ecx, DWORD PTR __Code$[ebp]
	call	?value@error_code@std@@QBEHXZ		; std::error_code::value
	cmp	eax, DWORD PTR __Errval$[ebp]
	jne	SHORT $LN3@equivalent
	mov	DWORD PTR tv74[ebp], 1
	jmp	SHORT $LN4@equivalent
$LN3@equivalent:
	mov	DWORD PTR tv74[ebp], 0
$LN4@equivalent:
	mov	al, BYTE PTR tv74[ebp]

; 417  : 	}

	mov	esp, ebp
	pop	ebp
	ret	8
?equivalent@error_category@std@@UBE_NABVerror_code@2@H@Z ENDP ; std::error_category::equivalent
_TEXT	ENDS
; Function compile flags: /Odtp
; File c:\program files (x86)\microsoft visual studio 11.0\vc\include\system_error
;	COMDAT ?equivalent@error_category@std@@UBE_NHABVerror_condition@2@@Z
_TEXT	SEGMENT
$T1 = -12						; size = 8
_this$ = -4						; size = 4
__Errval$ = 8						; size = 4
__Cond$ = 12						; size = 4
?equivalent@error_category@std@@UBE_NHABVerror_condition@2@@Z PROC ; std::error_category::equivalent, COMDAT
; _this$ = ecx

; 408  : 	{	// test if error code same condition

	push	ebp
	mov	ebp, esp
	sub	esp, 12					; 0000000cH
	mov	DWORD PTR _this$[ebp], ecx

; 409  : 	return (default_error_condition(_Errval) == _Cond);

	mov	eax, DWORD PTR __Cond$[ebp]
	push	eax
	mov	ecx, DWORD PTR __Errval$[ebp]
	push	ecx
	lea	edx, DWORD PTR $T1[ebp]
	push	edx
	mov	eax, DWORD PTR _this$[ebp]
	mov	edx, DWORD PTR [eax]
	mov	ecx, DWORD PTR _this$[ebp]
	mov	eax, DWORD PTR [edx+12]
	call	eax
	mov	ecx, eax
	call	??8error_condition@std@@QBE_NABV01@@Z	; std::error_condition::operator==

; 410  : 	}

	mov	esp, ebp
	pop	ebp
	ret	8
?equivalent@error_category@std@@UBE_NHABVerror_condition@2@@Z ENDP ; std::error_category::equivalent
_TEXT	ENDS
; Function compile flags: /Odtp
; File c:\program files (x86)\microsoft visual studio 11.0\vc\include\system_error
;	COMDAT ?default_error_condition@error_category@std@@UBE?AVerror_condition@2@H@Z
_TEXT	SEGMENT
_this$ = -4						; size = 4
___$ReturnUdt$ = 8					; size = 4
__Errval$ = 12						; size = 4
?default_error_condition@error_category@std@@UBE?AVerror_condition@2@H@Z PROC ; std::error_category::default_error_condition, COMDAT
; _this$ = ecx

; 401  : 	{	// make error_condition for error code

	push	ebp
	mov	ebp, esp
	push	ecx
	mov	DWORD PTR _this$[ebp], ecx

; 402  : 	return (error_condition(_Errval, *this));

	mov	eax, DWORD PTR _this$[ebp]
	push	eax
	mov	ecx, DWORD PTR __Errval$[ebp]
	push	ecx
	mov	ecx, DWORD PTR ___$ReturnUdt$[ebp]
	call	??0error_condition@std@@QAE@HABVerror_category@1@@Z ; std::error_condition::error_condition
	mov	eax, DWORD PTR ___$ReturnUdt$[ebp]

; 403  : 	}

	mov	esp, ebp
	pop	ebp
	ret	8
?default_error_condition@error_category@std@@UBE?AVerror_condition@2@H@Z ENDP ; std::error_category::default_error_condition
_TEXT	ENDS
; Function compile flags: /Odtp
; File c:\program files (x86)\microsoft visual studio 11.0\vc\include\system_error
;	COMDAT ??1error_category@std@@UAE@XZ
_TEXT	SEGMENT
_this$ = -4						; size = 4
??1error_category@std@@UAE@XZ PROC			; std::error_category::~error_category, COMDAT
; _this$ = ecx

; 167  : 		{	// destroy the object

	push	ebp
	mov	ebp, esp
	push	ecx
	mov	DWORD PTR _this$[ebp], ecx
	mov	eax, DWORD PTR _this$[ebp]
	mov	DWORD PTR [eax], OFFSET ??_7error_category@std@@6B@

; 168  : 		}

	mov	esp, ebp
	pop	ebp
	ret	0
??1error_category@std@@UAE@XZ ENDP			; std::error_category::~error_category
_TEXT	ENDS
; Function compile flags: /Odtp
; File c:\program files (x86)\microsoft visual studio 11.0\vc\include\system_error
;	COMDAT ??0error_category@std@@QAE@XZ
_TEXT	SEGMENT
_this$ = -4						; size = 4
??0error_category@std@@QAE@XZ PROC			; std::error_category::error_category, COMDAT
; _this$ = ecx

; 162  : 	error_category()

	push	ebp
	mov	ebp, esp
	push	ecx
	mov	DWORD PTR _this$[ebp], ecx
	mov	eax, DWORD PTR _this$[ebp]
	mov	DWORD PTR [eax], OFFSET ??_7error_category@std@@6B@

; 163  : 		{	// default constructor
; 164  : 		}

	mov	eax, DWORD PTR _this$[ebp]
	mov	esp, ebp
	pop	ebp
	ret	0
??0error_category@std@@QAE@XZ ENDP			; std::error_category::error_category
_TEXT	ENDS
; Function compile flags: /Odtp
; File c:\program files (x86)\microsoft visual studio 11.0\vc\include\system_error
;	COMDAT ?system_category@std@@YAABVerror_category@1@XZ
_TEXT	SEGMENT
?system_category@std@@YAABVerror_category@1@XZ PROC	; std::system_category, COMDAT

; 679  : 	{	// get system_category

	push	ebp
	mov	ebp, esp

; 680  : 	return (_Error_objects<int>::_System_object);

	mov	eax, OFFSET ?_System_object@?$_Error_objects@H@std@@2V_System_error_category@2@A ; std::_Error_objects<int>::_System_object

; 681  : 	}

	pop	ebp
	ret	0
?system_category@std@@YAABVerror_category@1@XZ ENDP	; std::system_category
_TEXT	ENDS
; Function compile flags: /Odtp
; File c:\program files (x86)\microsoft visual studio 11.0\vc\include\system_error
;	COMDAT ?generic_category@std@@YAABVerror_category@1@XZ
_TEXT	SEGMENT
?generic_category@std@@YAABVerror_category@1@XZ PROC	; std::generic_category, COMDAT

; 669  : 	{	// get generic_category

	push	ebp
	mov	ebp, esp

; 670  : 	return (_Error_objects<int>::_Generic_object);

	mov	eax, OFFSET ?_Generic_object@?$_Error_objects@H@std@@2V_Generic_error_category@2@A ; std::_Error_objects<int>::_Generic_object

; 671  : 	}

	pop	ebp
	ret	0
?generic_category@std@@YAABVerror_category@1@XZ ENDP	; std::generic_category
_TEXT	ENDS
; Function compile flags: /Odtp
; File c:\program files (x86)\microsoft visual studio 11.0\vc\include\xlocale
;	COMDAT ??0id@locale@std@@QAE@I@Z
_TEXT	SEGMENT
_this$ = -4						; size = 4
__Val$ = 8						; size = 4
??0id@locale@std@@QAE@I@Z PROC				; std::locale::id::id, COMDAT
; _this$ = ecx

; 74   : 			{	// construct with specified stamp value

	push	ebp
	mov	ebp, esp
	push	ecx
	mov	DWORD PTR _this$[ebp], ecx
	mov	eax, DWORD PTR _this$[ebp]
	mov	ecx, DWORD PTR __Val$[ebp]
	mov	DWORD PTR [eax], ecx

; 75   : 			}

	mov	eax, DWORD PTR _this$[ebp]
	mov	esp, ebp
	pop	ebp
	ret	4
??0id@locale@std@@QAE@I@Z ENDP				; std::locale::id::id
_TEXT	ENDS
; Function compile flags: /Odtp
; File c:\users\zhitao li\documents\visual studio 2012\projects\freefalcon\sim\include\fcc.h
;	COMDAT ?GetMasterMode@FireControlComputer@@QAE?AW4FCCMasterMode@1@XZ
_TEXT	SEGMENT
_this$ = -4						; size = 4
?GetMasterMode@FireControlComputer@@QAE?AW4FCCMasterMode@1@XZ PROC ; FireControlComputer::GetMasterMode, COMDAT
; _this$ = ecx

; 276  : 	FCCMasterMode GetMasterMode (void) {return (masterMode);};

	push	ebp
	mov	ebp, esp
	push	ecx
	mov	DWORD PTR _this$[ebp], ecx
	mov	eax, DWORD PTR _this$[ebp]
	mov	eax, DWORD PTR [eax+144]
	mov	esp, ebp
	pop	ebp
	ret	0
?GetMasterMode@FireControlComputer@@QAE?AW4FCCMasterMode@1@XZ ENDP ; FireControlComputer::GetMasterMode
_TEXT	ENDS
; Function compile flags: /Odtp
; File c:\users\zhitao li\documents\visual studio 2012\projects\freefalcon\sim\include\aircrft.h
;	COMDAT ?EWSPGM@AircraftClass@@QAE?AW4EWSPGMSwitch@1@XZ
_TEXT	SEGMENT
_this$ = -4						; size = 4
?EWSPGM@AircraftClass@@QAE?AW4EWSPGMSwitch@1@XZ PROC	; AircraftClass::EWSPGM, COMDAT
; _this$ = ecx

; 543  : 	EWSPGMSwitch EWSPGM() { return EWSPgm; };

	push	ebp
	mov	ebp, esp
	push	ecx
	mov	DWORD PTR _this$[ebp], ecx
	mov	eax, DWORD PTR _this$[ebp]
	mov	eax, DWORD PTR [eax+1496]
	mov	esp, ebp
	pop	ebp
	ret	0
?EWSPGM@AircraftClass@@QAE?AW4EWSPGMSwitch@1@XZ ENDP	; AircraftClass::EWSPGM
_TEXT	ENDS
; Function compile flags: /Odtp
; File c:\users\zhitao li\documents\visual studio 2012\projects\freefalcon\sim\icp\icpmiscfuncs.cpp
_TEXT	SEGMENT
tv257 = -16						; size = 4
tv243 = -12						; size = 4
_yaw$ = -8						; size = 4
_this$ = -4						; size = 4
?GetINSInfo@ICPClass@@QAEXXZ PROC			; ICPClass::GetINSInfo
; _this$ = ecx

; 960  : {

	push	ebp
	mov	ebp, esp
	sub	esp, 16					; 00000010H
	mov	DWORD PTR _this$[ebp], ecx

; 961  : 	latitude	= (FALCON_ORIGIN_LAT * FT_PER_DEGREE + cockpitFlightData.x) / EARTH_RADIUS_FT;

	movss	xmm0, DWORD PTR ?FALCON_ORIGIN_LAT@@3MA
	mulss	xmm0, DWORD PTR __real@45be3840
	mulss	xmm0, DWORD PTR __real@42700000
	addss	xmm0, DWORD PTR ?cockpitFlightData@@3VFlightData@@A
	divss	xmm0, DWORD PTR __real@4b9fa682
	mov	eax, DWORD PTR _this$[ebp]
	movss	DWORD PTR [eax+304], xmm0

; 962  : 	cosLatitude = (float)cos(latitude);

	mov	ecx, DWORD PTR _this$[ebp]
	push	ecx
	movss	xmm0, DWORD PTR [ecx+304]
	movss	DWORD PTR [esp], xmm0
	call	?cos@@YAMM@Z				; cos
	add	esp, 4
	mov	edx, DWORD PTR _this$[ebp]
	fstp	DWORD PTR [edx+308]

; 963  : 	longitude	= ((FALCON_ORIGIN_LONG * DTR * EARTH_RADIUS_FT * cosLatitude) + cockpitFlightData.y) / (EARTH_RADIUS_FT * cosLatitude);

	movss	xmm0, DWORD PTR ?FALCON_ORIGIN_LONG@@3MA
	mulss	xmm0, DWORD PTR __real@3c8efa34
	mulss	xmm0, DWORD PTR __real@4b9fa682
	mov	eax, DWORD PTR _this$[ebp]
	mulss	xmm0, DWORD PTR [eax+308]
	addss	xmm0, DWORD PTR ?cockpitFlightData@@3VFlightData@@A+4
	mov	ecx, DWORD PTR _this$[ebp]
	movss	xmm1, DWORD PTR __real@4b9fa682
	mulss	xmm1, DWORD PTR [ecx+308]
	divss	xmm0, xmm1
	mov	edx, DWORD PTR _this$[ebp]
	movss	DWORD PTR [edx+312], xmm0

; 964  : 
; 965  : 	latitude	*= RTD;

	mov	eax, DWORD PTR _this$[ebp]
	movss	xmm0, DWORD PTR [eax+304]
	mulss	xmm0, DWORD PTR __real@42652ee1
	mov	ecx, DWORD PTR _this$[ebp]
	movss	DWORD PTR [ecx+304], xmm0

; 966  : 	longitude	*= RTD;

	mov	edx, DWORD PTR _this$[ebp]
	movss	xmm0, DWORD PTR [edx+312]
	mulss	xmm0, DWORD PTR __real@42652ee1
	mov	eax, DWORD PTR _this$[ebp]
	movss	DWORD PTR [eax+312], xmm0

; 967  : 
; 968  : 	StartLat = latitude;

	mov	ecx, DWORD PTR _this$[ebp]
	mov	edx, DWORD PTR _this$[ebp]
	mov	eax, DWORD PTR [edx+304]
	mov	DWORD PTR [ecx+1636], eax

; 969  : 	StartLong = longitude;

	mov	ecx, DWORD PTR _this$[ebp]
	mov	edx, DWORD PTR _this$[ebp]
	mov	eax, DWORD PTR [edx+312]
	mov	DWORD PTR [ecx+1640], eax

; 970  : 	
; 971  : 	latDeg	= FloatToInt32(latitude);

	mov	ecx, DWORD PTR _this$[ebp]
	push	ecx
	movss	xmm0, DWORD PTR [ecx+304]
	movss	DWORD PTR [esp], xmm0
	call	?FloatToInt32@@YAHM@Z			; FloatToInt32
	add	esp, 4
	mov	edx, DWORD PTR _this$[ebp]
	mov	DWORD PTR [edx+316], eax

; 972  : 	latMin	= (float)fabs(latitude - latDeg) * DEG_TO_MIN;

	mov	eax, DWORD PTR _this$[ebp]
	cvtsi2ss xmm0, DWORD PTR [eax+316]
	mov	ecx, DWORD PTR _this$[ebp]
	movss	xmm1, DWORD PTR [ecx+304]
	subss	xmm1, xmm0
	push	ecx
	movss	DWORD PTR [esp], xmm1
	call	?fabs@@YAMM@Z				; fabs
	add	esp, 4
	fstp	DWORD PTR tv243[ebp]
	movss	xmm0, DWORD PTR tv243[ebp]
	mulss	xmm0, DWORD PTR __real@42700000
	mov	edx, DWORD PTR _this$[ebp]
	movss	DWORD PTR [edx+328], xmm0

; 973  : 	longDeg		= FloatToInt32(longitude);

	mov	eax, DWORD PTR _this$[ebp]
	push	ecx
	movss	xmm0, DWORD PTR [eax+312]
	movss	DWORD PTR [esp], xmm0
	call	?FloatToInt32@@YAHM@Z			; FloatToInt32
	add	esp, 4
	mov	ecx, DWORD PTR _this$[ebp]
	mov	DWORD PTR [ecx+320], eax

; 974  : 	longMin		= (float)fabs(longitude - longDeg) * DEG_TO_MIN;

	mov	edx, DWORD PTR _this$[ebp]
	cvtsi2ss xmm0, DWORD PTR [edx+320]
	mov	eax, DWORD PTR _this$[ebp]
	movss	xmm1, DWORD PTR [eax+312]
	subss	xmm1, xmm0
	push	ecx
	movss	DWORD PTR [esp], xmm1
	call	?fabs@@YAMM@Z				; fabs
	add	esp, 4
	fstp	DWORD PTR tv257[ebp]
	movss	xmm0, DWORD PTR tv257[ebp]
	mulss	xmm0, DWORD PTR __real@42700000
	mov	ecx, DWORD PTR _this$[ebp]
	movss	DWORD PTR [ecx+332], xmm0

; 975  : 	
; 976  : 	// format lat/long here
; 977  : 	if(latMin < 10.0F) 

	mov	edx, DWORD PTR _this$[ebp]
	movss	xmm0, DWORD PTR __real@41200000
	comiss	xmm0, DWORD PTR [edx+328]
	jbe	SHORT $LN5@GetINSInfo

; 978  : 		sprintf(INSLat, "%3d*0%2.2f\'\n", latDeg, latMin);

	mov	eax, DWORD PTR _this$[ebp]
	cvtss2sd xmm0, DWORD PTR [eax+328]
	sub	esp, 8
	movsd	QWORD PTR [esp], xmm0
	mov	ecx, DWORD PTR _this$[ebp]
	mov	edx, DWORD PTR [ecx+316]
	push	edx
	push	OFFSET ??_C@_0N@BKKDFEMH@?$CF3d?$CK0?$CF2?42f?8?6?$AA@
	mov	eax, DWORD PTR _this$[ebp]
	add	eax, 1584				; 00000630H
	push	eax
	call	_sprintf
	add	esp, 20					; 00000014H

; 979  : 	else 

	jmp	SHORT $LN4@GetINSInfo
$LN5@GetINSInfo:

; 980  : 		sprintf(INSLat, "%3d*%2.2f\'\n", latDeg, latMin);	

	mov	ecx, DWORD PTR _this$[ebp]
	cvtss2sd xmm0, DWORD PTR [ecx+328]
	sub	esp, 8
	movsd	QWORD PTR [esp], xmm0
	mov	edx, DWORD PTR _this$[ebp]
	mov	eax, DWORD PTR [edx+316]
	push	eax
	push	OFFSET ??_C@_0M@MLGOFDIL@?$CF3d?$CK?$CF2?42f?8?6?$AA@
	mov	ecx, DWORD PTR _this$[ebp]
	add	ecx, 1584				; 00000630H
	push	ecx
	call	_sprintf
	add	esp, 20					; 00000014H
$LN4@GetINSInfo:

; 981  : 
; 982  : 	if(longMin < 10.0F) 

	mov	edx, DWORD PTR _this$[ebp]
	movss	xmm0, DWORD PTR __real@41200000
	comiss	xmm0, DWORD PTR [edx+332]
	jbe	SHORT $LN3@GetINSInfo

; 983  : 		sprintf(INSLong, "%3d*0%2.2f\'\n", longDeg, longMin);

	mov	eax, DWORD PTR _this$[ebp]
	cvtss2sd xmm0, DWORD PTR [eax+332]
	sub	esp, 8
	movsd	QWORD PTR [esp], xmm0
	mov	ecx, DWORD PTR _this$[ebp]
	mov	edx, DWORD PTR [ecx+320]
	push	edx
	push	OFFSET ??_C@_0N@BKKDFEMH@?$CF3d?$CK0?$CF2?42f?8?6?$AA@
	mov	eax, DWORD PTR _this$[ebp]
	add	eax, 1564				; 0000061cH
	push	eax
	call	_sprintf
	add	esp, 20					; 00000014H

; 984  : 	else 

	jmp	SHORT $LN2@GetINSInfo
$LN3@GetINSInfo:

; 985  : 		sprintf(INSLong, "%3d*%2.2f\'\n", longDeg, longMin);

	mov	ecx, DWORD PTR _this$[ebp]
	cvtss2sd xmm0, DWORD PTR [ecx+332]
	sub	esp, 8
	movsd	QWORD PTR [esp], xmm0
	mov	edx, DWORD PTR _this$[ebp]
	mov	eax, DWORD PTR [edx+320]
	push	eax
	push	OFFSET ??_C@_0M@MLGOFDIL@?$CF3d?$CK?$CF2?42f?8?6?$AA@
	mov	ecx, DWORD PTR _this$[ebp]
	add	ecx, 1564				; 0000061cH
	push	ecx
	call	_sprintf
	add	esp, 20					; 00000014H
$LN2@GetINSInfo:

; 986  : 
; 987  : 	sprintf(altStr, "%dFT", (long)-cockpitFlightData.z);

	movss	xmm0, DWORD PTR ?cockpitFlightData@@3VFlightData@@A+8
	xorps	xmm0, DWORD PTR __xmm@80000000800000008000000080000000
	cvttss2si edx, xmm0
	push	edx
	push	OFFSET ??_C@_04COHIKBOA@?$CFdFT?$AA@
	mov	eax, DWORD PTR _this$[ebp]
	add	eax, 1604				; 00000644H
	push	eax
	call	_sprintf
	add	esp, 12					; 0000000cH

; 988  : 
; 989  : 	float yaw = cockpitFlightData.yaw;

	movss	xmm0, DWORD PTR ?cockpitFlightData@@3VFlightData@@A+44
	movss	DWORD PTR _yaw$[ebp], xmm0

; 990  : 	if(yaw < 0.0F)

	movss	xmm0, DWORD PTR __real@00000000
	comiss	xmm0, DWORD PTR _yaw$[ebp]
	jbe	SHORT $LN1@GetINSInfo

; 991  : 		yaw += 2 * PI;

	movss	xmm0, DWORD PTR _yaw$[ebp]
	addss	xmm0, DWORD PTR __real@40c90fdb
	movss	DWORD PTR _yaw$[ebp], xmm0
$LN1@GetINSInfo:

; 992  : 	sprintf(INSHead, "%3.1f*", yaw * RTD);

	movss	xmm0, DWORD PTR _yaw$[ebp]
	mulss	xmm0, DWORD PTR __real@42652ee1
	cvtss2sd xmm0, xmm0
	sub	esp, 8
	movsd	QWORD PTR [esp], xmm0
	push	OFFSET ??_C@_06GIKPDGKC@?$CF3?41f?$CK?$AA@
	mov	ecx, DWORD PTR _this$[ebp]
	add	ecx, 1614				; 0000064eH
	push	ecx
	call	_sprintf
	add	esp, 16					; 00000010H

; 993  : 	INSHead[3] = '.';

	mov	edx, 1
	imul	edx, 3
	mov	eax, DWORD PTR _this$[ebp]
	mov	BYTE PTR [eax+edx+1614], 46		; 0000002eH

; 994  : }

	mov	esp, ebp
	pop	ebp
	ret	0
?GetINSInfo@ICPClass@@QAEXXZ ENDP			; ICPClass::GetINSInfo
_TEXT	ENDS
; Function compile flags: /Odtp
; File c:\users\zhitao li\documents\visual studio 2012\projects\freefalcon\sim\icp\icpmiscfuncs.cpp
_TEXT	SEGMENT
_this$ = -8						; size = 4
_num$ = -4						; size = 4
?GetNumScans@ICPClass@@QAEMXZ PROC			; ICPClass::GetNumScans
; _this$ = ecx

; 942  : {

	push	ebp
	mov	ebp, esp
	sub	esp, 8
	mov	DWORD PTR _this$[ebp], ecx

; 943  : 	float num = 0.0F;

	movss	xmm0, DWORD PTR __real@00000000
	movss	DWORD PTR _num$[ebp], xmm0

; 944  : 	if(IsIFFSet(ICPClass::MODE_4))

	push	8
	mov	ecx, DWORD PTR _this$[ebp]
	call	?IsIFFSet@ICPClass@@QAEHH@Z		; ICPClass::IsIFFSet
	test	eax, eax
	je	SHORT $LN5@GetNumScan

; 945  : 		num++;

	movss	xmm0, DWORD PTR _num$[ebp]
	addss	xmm0, DWORD PTR __real@3f800000
	movss	DWORD PTR _num$[ebp], xmm0
$LN5@GetNumScan:

; 946  : 	if(IsIFFSet(ICPClass::MODE_3))

	push	4
	mov	ecx, DWORD PTR _this$[ebp]
	call	?IsIFFSet@ICPClass@@QAEHH@Z		; ICPClass::IsIFFSet
	test	eax, eax
	je	SHORT $LN4@GetNumScan

; 947  : 		num++;

	movss	xmm0, DWORD PTR _num$[ebp]
	addss	xmm0, DWORD PTR __real@3f800000
	movss	DWORD PTR _num$[ebp], xmm0
$LN4@GetNumScan:

; 948  : 	if(IsIFFSet(ICPClass::MODE_2))

	push	2
	mov	ecx, DWORD PTR _this$[ebp]
	call	?IsIFFSet@ICPClass@@QAEHH@Z		; ICPClass::IsIFFSet
	test	eax, eax
	je	SHORT $LN3@GetNumScan

; 949  : 		num++;

	movss	xmm0, DWORD PTR _num$[ebp]
	addss	xmm0, DWORD PTR __real@3f800000
	movss	DWORD PTR _num$[ebp], xmm0
$LN3@GetNumScan:

; 950  : 	if(IsIFFSet(ICPClass::MODE_1))

	push	1
	mov	ecx, DWORD PTR _this$[ebp]
	call	?IsIFFSet@ICPClass@@QAEHH@Z		; ICPClass::IsIFFSet
	test	eax, eax
	je	SHORT $LN2@GetNumScan

; 951  : 		num++;

	movss	xmm0, DWORD PTR _num$[ebp]
	addss	xmm0, DWORD PTR __real@3f800000
	movss	DWORD PTR _num$[ebp], xmm0
$LN2@GetNumScan:

; 952  : 	if(IsIFFSet(ICPClass::MODE_C))

	push	128					; 00000080H
	mov	ecx, DWORD PTR _this$[ebp]
	call	?IsIFFSet@ICPClass@@QAEHH@Z		; ICPClass::IsIFFSet
	test	eax, eax
	je	SHORT $LN1@GetNumScan

; 953  : 		num++;

	movss	xmm0, DWORD PTR _num$[ebp]
	addss	xmm0, DWORD PTR __real@3f800000
	movss	DWORD PTR _num$[ebp], xmm0
$LN1@GetNumScan:

; 954  : 
; 955  : 	ShiAssert(num < 6.0F);
; 956  : 	return num;

	fld	DWORD PTR _num$[ebp]

; 957  : }

	mov	esp, ebp
	pop	ebp
	ret	0
?GetNumScans@ICPClass@@QAEMXZ ENDP			; ICPClass::GetNumScans
_TEXT	ENDS
; Function compile flags: /Odtp
; File c:\users\zhitao li\documents\visual studio 2012\projects\freefalcon\sim\icp\icpmiscfuncs.cpp
_TEXT	SEGMENT
_this$ = -4						; size = 4
_string$ = 8						; size = 4
?FillIFFString@ICPClass@@QAEXPAD@Z PROC			; ICPClass::FillIFFString
; _this$ = ecx

; 909  : {

	push	ebp
	mov	ebp, esp
	push	ecx
	mov	DWORD PTR _this$[ebp], ecx

; 910  : 	//clear it first, in case there's something unwanted
; 911  : 	sprintf(string,"");

	push	OFFSET ??_C@_00CNPNBAHC@?$AA@
	mov	eax, DWORD PTR _string$[ebp]
	push	eax
	call	_sprintf
	add	esp, 8

; 912  : 	string[0] = 'M';

	mov	ecx, 1
	imul	ecx, 0
	mov	edx, DWORD PTR _string$[ebp]
	mov	BYTE PTR [edx+ecx], 77			; 0000004dH

; 913  : 	//highest modes first
; 914  : 	if(IsIFFSet(ICPClass::MODE_4))

	push	8
	mov	ecx, DWORD PTR _this$[ebp]
	call	?IsIFFSet@ICPClass@@QAEHH@Z		; ICPClass::IsIFFSet
	test	eax, eax
	je	SHORT $LN10@FillIFFStr

; 915  : 		string[1] = '4';

	mov	eax, 1
	shl	eax, 0
	mov	ecx, DWORD PTR _string$[ebp]
	mov	BYTE PTR [ecx+eax], 52			; 00000034H

; 916  : 	else

	jmp	SHORT $LN9@FillIFFStr
$LN10@FillIFFStr:

; 917  : 		string[1] = ' ';

	mov	edx, 1
	shl	edx, 0
	mov	eax, DWORD PTR _string$[ebp]
	mov	BYTE PTR [eax+edx], 32			; 00000020H
$LN9@FillIFFStr:

; 918  : 
; 919  : 	if(IsIFFSet(ICPClass::MODE_3))

	push	4
	mov	ecx, DWORD PTR _this$[ebp]
	call	?IsIFFSet@ICPClass@@QAEHH@Z		; ICPClass::IsIFFSet
	test	eax, eax
	je	SHORT $LN8@FillIFFStr

; 920  : 		string[2] = '3';

	mov	ecx, 1
	shl	ecx, 1
	mov	edx, DWORD PTR _string$[ebp]
	mov	BYTE PTR [edx+ecx], 51			; 00000033H

; 921  : 	else

	jmp	SHORT $LN7@FillIFFStr
$LN8@FillIFFStr:

; 922  : 		string[2] = ' ';

	mov	eax, 1
	shl	eax, 1
	mov	ecx, DWORD PTR _string$[ebp]
	mov	BYTE PTR [ecx+eax], 32			; 00000020H
$LN7@FillIFFStr:

; 923  : 
; 924  : 	if(IsIFFSet(ICPClass::MODE_2))

	push	2
	mov	ecx, DWORD PTR _this$[ebp]
	call	?IsIFFSet@ICPClass@@QAEHH@Z		; ICPClass::IsIFFSet
	test	eax, eax
	je	SHORT $LN6@FillIFFStr

; 925  : 		string[3] = '2';

	mov	edx, 1
	imul	edx, 3
	mov	eax, DWORD PTR _string$[ebp]
	mov	BYTE PTR [eax+edx], 50			; 00000032H

; 926  : 	else

	jmp	SHORT $LN5@FillIFFStr
$LN6@FillIFFStr:

; 927  : 		string[3] = ' ';

	mov	ecx, 1
	imul	ecx, 3
	mov	edx, DWORD PTR _string$[ebp]
	mov	BYTE PTR [edx+ecx], 32			; 00000020H
$LN5@FillIFFStr:

; 928  : 
; 929  : 	if(IsIFFSet(ICPClass::MODE_1))

	push	1
	mov	ecx, DWORD PTR _this$[ebp]
	call	?IsIFFSet@ICPClass@@QAEHH@Z		; ICPClass::IsIFFSet
	test	eax, eax
	je	SHORT $LN4@FillIFFStr

; 930  : 		string[4] = '1';

	mov	eax, 1
	shl	eax, 2
	mov	ecx, DWORD PTR _string$[ebp]
	mov	BYTE PTR [ecx+eax], 49			; 00000031H

; 931  : 	else

	jmp	SHORT $LN3@FillIFFStr
$LN4@FillIFFStr:

; 932  : 		string[4] = ' ';

	mov	edx, 1
	shl	edx, 2
	mov	eax, DWORD PTR _string$[ebp]
	mov	BYTE PTR [eax+edx], 32			; 00000020H
$LN3@FillIFFStr:

; 933  : 
; 934  : 	if(IsIFFSet(ICPClass::MODE_C))

	push	128					; 00000080H
	mov	ecx, DWORD PTR _this$[ebp]
	call	?IsIFFSet@ICPClass@@QAEHH@Z		; ICPClass::IsIFFSet
	test	eax, eax
	je	SHORT $LN2@FillIFFStr

; 935  : 		string[5] = 'C';

	mov	ecx, 1
	imul	ecx, 5
	mov	edx, DWORD PTR _string$[ebp]
	mov	BYTE PTR [edx+ecx], 67			; 00000043H

; 936  : 	else

	jmp	SHORT $LN1@FillIFFStr
$LN2@FillIFFStr:

; 937  : 		string[5] = ' ';

	mov	eax, 1
	imul	eax, 5
	mov	ecx, DWORD PTR _string$[ebp]
	mov	BYTE PTR [ecx+eax], 32			; 00000020H
$LN1@FillIFFStr:

; 938  : 
; 939  : 	string[6] = '\0';

	mov	edx, 1
	imul	edx, 6
	mov	eax, DWORD PTR _string$[ebp]
	mov	BYTE PTR [eax+edx], 0

; 940  : }

	mov	esp, ebp
	pop	ebp
	ret	4
?FillIFFString@ICPClass@@QAEXPAD@Z ENDP			; ICPClass::FillIFFString
_TEXT	ENDS
; Function compile flags: /Odtp
; File c:\users\zhitao li\documents\visual studio 2012\projects\freefalcon\sim\include\icp.h
;	COMDAT ?IsIFFSet@ICPClass@@QAEHH@Z
_TEXT	SEGMENT
_this$ = -8						; size = 4
tv67 = -4						; size = 4
_testFlag$ = 8						; size = 4
?IsIFFSet@ICPClass@@QAEHH@Z PROC			; ICPClass::IsIFFSet, COMDAT
; _this$ = ecx

; 516  : 	int IsIFFSet (int testFlag) {return IFFModes & testFlag ? 1 : 0;};

	push	ebp
	mov	ebp, esp
	sub	esp, 8
	mov	DWORD PTR _this$[ebp], ecx
	mov	eax, DWORD PTR _this$[ebp]
	mov	ecx, DWORD PTR [eax+1540]
	and	ecx, DWORD PTR _testFlag$[ebp]
	je	SHORT $LN3@IsIFFSet
	mov	DWORD PTR tv67[ebp], 1
	jmp	SHORT $LN4@IsIFFSet
$LN3@IsIFFSet:
	mov	DWORD PTR tv67[ebp], 0
$LN4@IsIFFSet:
	mov	eax, DWORD PTR tv67[ebp]
	mov	esp, ebp
	pop	ebp
	ret	4
?IsIFFSet@ICPClass@@QAEHH@Z ENDP			; ICPClass::IsIFFSet
_TEXT	ENDS
; Function compile flags: /Odtp
; File c:\users\zhitao li\documents\visual studio 2012\projects\freefalcon\sim\include\icp.h
;	COMDAT ?SetIFFFlag@ICPClass@@QAEXH@Z
_TEXT	SEGMENT
_this$ = -4						; size = 4
_newFlag$ = 8						; size = 4
?SetIFFFlag@ICPClass@@QAEXH@Z PROC			; ICPClass::SetIFFFlag, COMDAT
; _this$ = ecx

; 514  : 	void SetIFFFlag (int newFlag) {IFFModes |= newFlag;};

	push	ebp
	mov	ebp, esp
	push	ecx
	mov	DWORD PTR _this$[ebp], ecx
	mov	eax, DWORD PTR _this$[ebp]
	mov	ecx, DWORD PTR [eax+1540]
	or	ecx, DWORD PTR _newFlag$[ebp]
	mov	edx, DWORD PTR _this$[ebp]
	mov	DWORD PTR [edx+1540], ecx
	mov	esp, ebp
	pop	ebp
	ret	4
?SetIFFFlag@ICPClass@@QAEXH@Z ENDP			; ICPClass::SetIFFFlag
_TEXT	ENDS
; Function compile flags: /Odtp
; File c:\users\zhitao li\documents\visual studio 2012\projects\freefalcon\sim\include\icp.h
;	COMDAT ?IsICPSet@ICPClass@@QAEHH@Z
_TEXT	SEGMENT
_this$ = -8						; size = 4
tv67 = -4						; size = 4
_testFlag$ = 8						; size = 4
?IsICPSet@ICPClass@@QAEHH@Z PROC			; ICPClass::IsICPSet, COMDAT
; _this$ = ecx

; 499  : 	int IsICPSet (int testFlag) {return ICPModeFlags & testFlag ? 1 : 0;};

	push	ebp
	mov	ebp, esp
	sub	esp, 8
	mov	DWORD PTR _this$[ebp], ecx
	mov	eax, DWORD PTR _this$[ebp]
	mov	ecx, DWORD PTR [eax+1376]
	and	ecx, DWORD PTR _testFlag$[ebp]
	je	SHORT $LN3@IsICPSet
	mov	DWORD PTR tv67[ebp], 1
	jmp	SHORT $LN4@IsICPSet
$LN3@IsICPSet:
	mov	DWORD PTR tv67[ebp], 0
$LN4@IsICPSet:
	mov	eax, DWORD PTR tv67[ebp]
	mov	esp, ebp
	pop	ebp
	ret	4
?IsICPSet@ICPClass@@QAEHH@Z ENDP			; ICPClass::IsICPSet
_TEXT	ENDS
; Function compile flags: /Odtp
; File c:\users\zhitao li\documents\visual studio 2012\projects\freefalcon\sim\include\icp.h
;	COMDAT ?ClearICPFlag@ICPClass@@QAEXH@Z
_TEXT	SEGMENT
_this$ = -4						; size = 4
_newFlag$ = 8						; size = 4
?ClearICPFlag@ICPClass@@QAEXH@Z PROC			; ICPClass::ClearICPFlag, COMDAT
; _this$ = ecx

; 498  : 	void ClearICPFlag (int newFlag) {ICPModeFlags &= ~newFlag;};

	push	ebp
	mov	ebp, esp
	push	ecx
	mov	DWORD PTR _this$[ebp], ecx
	mov	eax, DWORD PTR _newFlag$[ebp]
	not	eax
	mov	ecx, DWORD PTR _this$[ebp]
	and	eax, DWORD PTR [ecx+1376]
	mov	edx, DWORD PTR _this$[ebp]
	mov	DWORD PTR [edx+1376], eax
	mov	esp, ebp
	pop	ebp
	ret	4
?ClearICPFlag@ICPClass@@QAEXH@Z ENDP			; ICPClass::ClearICPFlag
_TEXT	ENDS
; Function compile flags: /Odtp
; File c:\users\zhitao li\documents\visual studio 2012\projects\freefalcon\sim\include\icp.h
;	COMDAT ?SetICPFlag@ICPClass@@QAEXH@Z
_TEXT	SEGMENT
_this$ = -4						; size = 4
_newFlag$ = 8						; size = 4
?SetICPFlag@ICPClass@@QAEXH@Z PROC			; ICPClass::SetICPFlag, COMDAT
; _this$ = ecx

; 497  : 	void SetICPFlag (int newFlag) {ICPModeFlags |= newFlag;};

	push	ebp
	mov	ebp, esp
	push	ecx
	mov	DWORD PTR _this$[ebp], ecx
	mov	eax, DWORD PTR _this$[ebp]
	mov	ecx, DWORD PTR [eax+1376]
	or	ecx, DWORD PTR _newFlag$[ebp]
	mov	edx, DWORD PTR _this$[ebp]
	mov	DWORD PTR [edx+1376], ecx
	mov	esp, ebp
	pop	ebp
	ret	4
?SetICPFlag@ICPClass@@QAEXH@Z ENDP			; ICPClass::SetICPFlag
_TEXT	ENDS
; Function compile flags: /Odtp
; File c:\users\zhitao li\documents\visual studio 2012\projects\freefalcon\sim\icp\icpmiscfuncs.cpp
_TEXT	SEGMENT
_this$ = -8						; size = 4
_i$1 = -4						; size = 4
?ClearPFLLines@ICPClass@@QAEXXZ PROC			; ICPClass::ClearPFLLines
; _this$ = ecx

; 839  : {

	push	ebp
	mov	ebp, esp
	sub	esp, 8
	mov	DWORD PTR _this$[ebp], ecx

; 840  : 	for(int i = 0; i < 5; i++)

	mov	DWORD PTR _i$1[ebp], 0
	jmp	SHORT $LN3@ClearPFLLi
$LN2@ClearPFLLi:
	mov	eax, DWORD PTR _i$1[ebp]
	add	eax, 1
	mov	DWORD PTR _i$1[ebp], eax
$LN3@ClearPFLLi:
	cmp	DWORD PTR _i$1[ebp], 5
	jge	SHORT $LN4@ClearPFLLi

; 841  : 	{
; 842  : 		memset(PFLLines[i], ' ', MAX_PFL_LEN - 1);

	push	25					; 00000019H
	push	32					; 00000020H
	mov	ecx, DWORD PTR _i$1[ebp]
	imul	ecx, 26					; 0000001aH
	mov	edx, DWORD PTR _this$[ebp]
	lea	eax, DWORD PTR [edx+ecx+1084]
	push	eax
	call	_memset
	add	esp, 12					; 0000000cH

; 843  : 		PFLLines[i][MAX_PFL_LEN - 1] = '\0';

	mov	ecx, DWORD PTR _i$1[ebp]
	imul	ecx, 26					; 0000001aH
	mov	edx, DWORD PTR _this$[ebp]
	lea	eax, DWORD PTR [edx+ecx+1084]
	mov	ecx, 1
	imul	ecx, 25					; 00000019H
	mov	BYTE PTR [eax+ecx], 0

; 844  : 		memset(PFLInvert[i], ' ',MAX_PFL_LEN - 1);

	push	25					; 00000019H
	push	32					; 00000020H
	mov	edx, DWORD PTR _i$1[ebp]
	imul	edx, 26					; 0000001aH
	mov	eax, DWORD PTR _this$[ebp]
	lea	ecx, DWORD PTR [eax+edx+1214]
	push	ecx
	call	_memset
	add	esp, 12					; 0000000cH

; 845  : 		PFLInvert[i][MAX_PFL_LEN - 1] = '\0';

	mov	edx, DWORD PTR _i$1[ebp]
	imul	edx, 26					; 0000001aH
	mov	eax, DWORD PTR _this$[ebp]
	lea	ecx, DWORD PTR [eax+edx+1214]
	mov	edx, 1
	imul	edx, 25					; 00000019H
	mov	BYTE PTR [ecx+edx], 0

; 846  : 	}

	jmp	$LN2@ClearPFLLi
$LN4@ClearPFLLi:

; 847  : }

	mov	esp, ebp
	pop	ebp
	ret	0
?ClearPFLLines@ICPClass@@QAEXXZ ENDP			; ICPClass::ClearPFLLines
_TEXT	ENDS
; Function compile flags: /Odtp
; File c:\users\zhitao li\documents\visual studio 2012\projects\freefalcon\sim\icp\icpmiscfuncs.cpp
_TEXT	SEGMENT
_this$ = -8						; size = 4
_i$1 = -4						; size = 4
_Line$ = 8						; size = 4
_Pos$ = 12						; size = 4
_str$ = 16						; size = 4
_Inverted$ = 20						; size = 4
?FillPFLMatrix@ICPClass@@QAEXHHPADH@Z PROC		; ICPClass::FillPFLMatrix
; _this$ = ecx

; 849  : {

	push	ebp
	mov	ebp, esp
	sub	esp, 8
	mov	DWORD PTR _this$[ebp], ecx

; 850  : 	ShiAssert(Line >=0 && Line < 5);
; 851  : 	ShiAssert(Pos >=0 && Pos+strlen(str) < MAX_PFL_LEN);
; 852  : 
; 853  : 	for(int i = 0; str[i] != '\0'; i++)

	mov	DWORD PTR _i$1[ebp], 0
	jmp	SHORT $LN3@FillPFLMat
$LN2@FillPFLMat:
	mov	eax, DWORD PTR _i$1[ebp]
	add	eax, 1
	mov	DWORD PTR _i$1[ebp], eax
$LN3@FillPFLMat:
	mov	ecx, DWORD PTR _str$[ebp]
	add	ecx, DWORD PTR _i$1[ebp]
	movsx	edx, BYTE PTR [ecx]
	test	edx, edx
	je	SHORT $LN4@FillPFLMat

; 854  : 	{
; 855  : 		PFLLines[Line][Pos + i] = str[i];

	mov	eax, DWORD PTR _Line$[ebp]
	imul	eax, 26					; 0000001aH
	mov	ecx, DWORD PTR _this$[ebp]
	lea	edx, DWORD PTR [ecx+eax+1084]
	mov	eax, DWORD PTR _Pos$[ebp]
	add	eax, DWORD PTR _i$1[ebp]
	mov	ecx, DWORD PTR _str$[ebp]
	add	ecx, DWORD PTR _i$1[ebp]
	mov	cl, BYTE PTR [ecx]
	mov	BYTE PTR [edx+eax], cl

; 856  : 		PFLInvert[Line][Pos + i] = Inverted;

	mov	edx, DWORD PTR _Line$[ebp]
	imul	edx, 26					; 0000001aH
	mov	eax, DWORD PTR _this$[ebp]
	lea	ecx, DWORD PTR [eax+edx+1214]
	mov	edx, DWORD PTR _Pos$[ebp]
	add	edx, DWORD PTR _i$1[ebp]
	mov	al, BYTE PTR _Inverted$[ebp]
	mov	BYTE PTR [ecx+edx], al

; 857  : 	}

	jmp	SHORT $LN2@FillPFLMat
$LN4@FillPFLMat:

; 858  : }

	mov	esp, ebp
	pop	ebp
	ret	16					; 00000010H
?FillPFLMatrix@ICPClass@@QAEXHHPADH@Z ENDP		; ICPClass::FillPFLMatrix
_TEXT	ENDS
; Function compile flags: /Odtp
; File c:\users\zhitao li\documents\visual studio 2012\projects\freefalcon\sim\icp\icpmiscfuncs.cpp
_TEXT	SEGMENT
_this$ = -8						; size = 4
_var$ = -4						; size = 4
?AddUpLong@ICPClass@@QAEJXZ PROC			; ICPClass::AddUpLong
; _this$ = ecx

; 612  : {

	push	ebp
	mov	ebp, esp
	sub	esp, 8
	mov	DWORD PTR _this$[ebp], ecx

; 613  : 	long var = 0;

	mov	DWORD PTR _var$[ebp], 0

; 614  : 	CheckDigits();

	mov	ecx, DWORD PTR _this$[ebp]
	call	?CheckDigits@ICPClass@@QAEXXZ		; ICPClass::CheckDigits

; 615  : 	var += Input_Digit7;

	mov	eax, DWORD PTR _this$[ebp]
	mov	ecx, DWORD PTR _var$[ebp]
	add	ecx, DWORD PTR [eax+1436]
	mov	DWORD PTR _var$[ebp], ecx

; 616  : 	var += Input_Digit6*10;

	mov	edx, DWORD PTR _this$[ebp]
	mov	eax, DWORD PTR [edx+1432]
	imul	eax, 10					; 0000000aH
	add	eax, DWORD PTR _var$[ebp]
	mov	DWORD PTR _var$[ebp], eax

; 617  : 	var += Input_Digit5*100;

	mov	ecx, DWORD PTR _this$[ebp]
	mov	edx, DWORD PTR [ecx+1428]
	imul	edx, 100				; 00000064H
	add	edx, DWORD PTR _var$[ebp]
	mov	DWORD PTR _var$[ebp], edx

; 618  : 	var += Input_Digit4*1000;

	mov	eax, DWORD PTR _this$[ebp]
	mov	ecx, DWORD PTR [eax+1424]
	imul	ecx, 1000				; 000003e8H
	add	ecx, DWORD PTR _var$[ebp]
	mov	DWORD PTR _var$[ebp], ecx

; 619  : 	var += Input_Digit3*10000;

	mov	edx, DWORD PTR _this$[ebp]
	mov	eax, DWORD PTR [edx+1420]
	imul	eax, 10000				; 00002710H
	add	eax, DWORD PTR _var$[ebp]
	mov	DWORD PTR _var$[ebp], eax

; 620  : 	var += Input_Digit2*100000;

	mov	ecx, DWORD PTR _this$[ebp]
	mov	edx, DWORD PTR [ecx+1416]
	imul	edx, 100000				; 000186a0H
	add	edx, DWORD PTR _var$[ebp]
	mov	DWORD PTR _var$[ebp], edx

; 621  : 	var += Input_Digit1*1000000;

	mov	eax, DWORD PTR _this$[ebp]
	mov	ecx, DWORD PTR [eax+1412]
	imul	ecx, 1000000				; 000f4240H
	add	ecx, DWORD PTR _var$[ebp]
	mov	DWORD PTR _var$[ebp], ecx

; 622  : 	return var;

	mov	eax, DWORD PTR _var$[ebp]

; 623  : }

	mov	esp, ebp
	pop	ebp
	ret	0
?AddUpLong@ICPClass@@QAEJXZ ENDP			; ICPClass::AddUpLong
_TEXT	ENDS
; Function compile flags: /Odtp
; File c:\users\zhitao li\documents\visual studio 2012\projects\freefalcon\sim\icp\icpmiscfuncs.cpp
_TEXT	SEGMENT
tv196 = -92						; size = 8
tv185 = -84						; size = 8
tv174 = -76						; size = 8
tv163 = -68						; size = 8
tv152 = -60						; size = 8
tv141 = -52						; size = 8
tv130 = -44						; size = 8
tv193 = -36						; size = 4
tv182 = -32						; size = 4
tv171 = -28						; size = 4
tv160 = -24						; size = 4
tv149 = -20						; size = 4
tv138 = -16						; size = 4
tv94 = -12						; size = 4
_this$ = -8						; size = 4
_var$ = -4						; size = 4
?AddUpFloat@ICPClass@@QAEMXZ PROC			; ICPClass::AddUpFloat
; _this$ = ecx

; 599  : {

	push	ebp
	mov	ebp, esp
	sub	esp, 92					; 0000005cH
	mov	DWORD PTR _this$[ebp], ecx

; 600  : 	float var = 0;

	movss	xmm0, DWORD PTR __real@00000000
	movss	DWORD PTR _var$[ebp], xmm0

; 601  : 	CheckDigits();

	mov	ecx, DWORD PTR _this$[ebp]
	call	?CheckDigits@ICPClass@@QAEXXZ		; ICPClass::CheckDigits

; 602  : 	var += Input_Digit7;

	mov	eax, DWORD PTR _this$[ebp]
	mov	ecx, DWORD PTR [eax+1436]
	mov	DWORD PTR tv94[ebp], ecx
	cvtsi2sd xmm0, DWORD PTR tv94[ebp]
	mov	edx, DWORD PTR tv94[ebp]
	shr	edx, 31					; 0000001fH
	addsd	xmm0, QWORD PTR __xmm@41f00000000000000000000000000000[edx*8]
	movsd	QWORD PTR tv130[ebp], xmm0
	cvtsd2ss xmm0, QWORD PTR tv130[ebp]
	addss	xmm0, DWORD PTR _var$[ebp]
	movss	DWORD PTR _var$[ebp], xmm0

; 603  : 	var += Input_Digit6*10;

	mov	eax, DWORD PTR _this$[ebp]
	mov	ecx, DWORD PTR [eax+1432]
	imul	ecx, 10					; 0000000aH
	mov	DWORD PTR tv138[ebp], ecx
	cvtsi2sd xmm0, DWORD PTR tv138[ebp]
	mov	edx, DWORD PTR tv138[ebp]
	shr	edx, 31					; 0000001fH
	addsd	xmm0, QWORD PTR __xmm@41f00000000000000000000000000000[edx*8]
	movsd	QWORD PTR tv141[ebp], xmm0
	cvtsd2ss xmm0, QWORD PTR tv141[ebp]
	addss	xmm0, DWORD PTR _var$[ebp]
	movss	DWORD PTR _var$[ebp], xmm0

; 604  : 	var += Input_Digit5*100;

	mov	eax, DWORD PTR _this$[ebp]
	mov	ecx, DWORD PTR [eax+1428]
	imul	ecx, 100				; 00000064H
	mov	DWORD PTR tv149[ebp], ecx
	cvtsi2sd xmm0, DWORD PTR tv149[ebp]
	mov	edx, DWORD PTR tv149[ebp]
	shr	edx, 31					; 0000001fH
	addsd	xmm0, QWORD PTR __xmm@41f00000000000000000000000000000[edx*8]
	movsd	QWORD PTR tv152[ebp], xmm0
	cvtsd2ss xmm0, QWORD PTR tv152[ebp]
	addss	xmm0, DWORD PTR _var$[ebp]
	movss	DWORD PTR _var$[ebp], xmm0

; 605  : 	var += Input_Digit4*1000;

	mov	eax, DWORD PTR _this$[ebp]
	mov	ecx, DWORD PTR [eax+1424]
	imul	ecx, 1000				; 000003e8H
	mov	DWORD PTR tv160[ebp], ecx
	cvtsi2sd xmm0, DWORD PTR tv160[ebp]
	mov	edx, DWORD PTR tv160[ebp]
	shr	edx, 31					; 0000001fH
	addsd	xmm0, QWORD PTR __xmm@41f00000000000000000000000000000[edx*8]
	movsd	QWORD PTR tv163[ebp], xmm0
	cvtsd2ss xmm0, QWORD PTR tv163[ebp]
	addss	xmm0, DWORD PTR _var$[ebp]
	movss	DWORD PTR _var$[ebp], xmm0

; 606  : 	var += Input_Digit3*10000;

	mov	eax, DWORD PTR _this$[ebp]
	mov	ecx, DWORD PTR [eax+1420]
	imul	ecx, 10000				; 00002710H
	mov	DWORD PTR tv171[ebp], ecx
	cvtsi2sd xmm0, DWORD PTR tv171[ebp]
	mov	edx, DWORD PTR tv171[ebp]
	shr	edx, 31					; 0000001fH
	addsd	xmm0, QWORD PTR __xmm@41f00000000000000000000000000000[edx*8]
	movsd	QWORD PTR tv174[ebp], xmm0
	cvtsd2ss xmm0, QWORD PTR tv174[ebp]
	addss	xmm0, DWORD PTR _var$[ebp]
	movss	DWORD PTR _var$[ebp], xmm0

; 607  : 	var += Input_Digit2*100000;

	mov	eax, DWORD PTR _this$[ebp]
	mov	ecx, DWORD PTR [eax+1416]
	imul	ecx, 100000				; 000186a0H
	mov	DWORD PTR tv182[ebp], ecx
	cvtsi2sd xmm0, DWORD PTR tv182[ebp]
	mov	edx, DWORD PTR tv182[ebp]
	shr	edx, 31					; 0000001fH
	addsd	xmm0, QWORD PTR __xmm@41f00000000000000000000000000000[edx*8]
	movsd	QWORD PTR tv185[ebp], xmm0
	cvtsd2ss xmm0, QWORD PTR tv185[ebp]
	addss	xmm0, DWORD PTR _var$[ebp]
	movss	DWORD PTR _var$[ebp], xmm0

; 608  : 	var += Input_Digit1*1000000;

	mov	eax, DWORD PTR _this$[ebp]
	mov	ecx, DWORD PTR [eax+1412]
	imul	ecx, 1000000				; 000f4240H
	mov	DWORD PTR tv193[ebp], ecx
	cvtsi2sd xmm0, DWORD PTR tv193[ebp]
	mov	edx, DWORD PTR tv193[ebp]
	shr	edx, 31					; 0000001fH
	addsd	xmm0, QWORD PTR __xmm@41f00000000000000000000000000000[edx*8]
	movsd	QWORD PTR tv196[ebp], xmm0
	cvtsd2ss xmm0, QWORD PTR tv196[ebp]
	addss	xmm0, DWORD PTR _var$[ebp]
	movss	DWORD PTR _var$[ebp], xmm0

; 609  : 	return var;

	fld	DWORD PTR _var$[ebp]

; 610  : }

	mov	esp, ebp
	pop	ebp
	ret	0
?AddUpFloat@ICPClass@@QAEMXZ ENDP			; ICPClass::AddUpFloat
_TEXT	ENDS
; Function compile flags: /Odtp
; File c:\users\zhitao li\documents\visual studio 2012\projects\freefalcon\sim\icp\icpmiscfuncs.cpp
_TEXT	SEGMENT
_this$ = -8						; size = 4
_var$ = -4						; size = 4
?AddUp@ICPClass@@QAEHXZ PROC				; ICPClass::AddUp
; _this$ = ecx

; 586  : {

	push	ebp
	mov	ebp, esp
	sub	esp, 8
	mov	DWORD PTR _this$[ebp], ecx

; 587  : 	int var = 0;

	mov	DWORD PTR _var$[ebp], 0

; 588  : 	CheckDigits();

	mov	ecx, DWORD PTR _this$[ebp]
	call	?CheckDigits@ICPClass@@QAEXXZ		; ICPClass::CheckDigits

; 589  : 	var += Input_Digit7;

	mov	eax, DWORD PTR _this$[ebp]
	mov	ecx, DWORD PTR _var$[ebp]
	add	ecx, DWORD PTR [eax+1436]
	mov	DWORD PTR _var$[ebp], ecx

; 590  : 	var += Input_Digit6*10;

	mov	edx, DWORD PTR _this$[ebp]
	mov	eax, DWORD PTR [edx+1432]
	imul	eax, 10					; 0000000aH
	add	eax, DWORD PTR _var$[ebp]
	mov	DWORD PTR _var$[ebp], eax

; 591  : 	var += Input_Digit5*100;

	mov	ecx, DWORD PTR _this$[ebp]
	mov	edx, DWORD PTR [ecx+1428]
	imul	edx, 100				; 00000064H
	add	edx, DWORD PTR _var$[ebp]
	mov	DWORD PTR _var$[ebp], edx

; 592  : 	var += Input_Digit4*1000;

	mov	eax, DWORD PTR _this$[ebp]
	mov	ecx, DWORD PTR [eax+1424]
	imul	ecx, 1000				; 000003e8H
	add	ecx, DWORD PTR _var$[ebp]
	mov	DWORD PTR _var$[ebp], ecx

; 593  : 	var += Input_Digit3*10000;

	mov	edx, DWORD PTR _this$[ebp]
	mov	eax, DWORD PTR [edx+1420]
	imul	eax, 10000				; 00002710H
	add	eax, DWORD PTR _var$[ebp]
	mov	DWORD PTR _var$[ebp], eax

; 594  : 	var += Input_Digit2*100000;

	mov	ecx, DWORD PTR _this$[ebp]
	mov	edx, DWORD PTR [ecx+1416]
	imul	edx, 100000				; 000186a0H
	add	edx, DWORD PTR _var$[ebp]
	mov	DWORD PTR _var$[ebp], edx

; 595  : 	var += Input_Digit1*1000000;

	mov	eax, DWORD PTR _this$[ebp]
	mov	ecx, DWORD PTR [eax+1412]
	imul	ecx, 1000000				; 000f4240H
	add	ecx, DWORD PTR _var$[ebp]
	mov	DWORD PTR _var$[ebp], ecx

; 596  : 	return var;

	mov	eax, DWORD PTR _var$[ebp]

; 597  : }

	mov	esp, ebp
	pop	ebp
	ret	0
?AddUp@ICPClass@@QAEHXZ ENDP				; ICPClass::AddUp
_TEXT	ENDS
; Function compile flags: /Odtp
; File c:\users\zhitao li\documents\visual studio 2012\projects\freefalcon\sim\icp\icpmiscfuncs.cpp
_TEXT	SEGMENT
_this$ = -4						; size = 4
_Line$ = 8						; size = 4
_Pos$ = 12						; size = 4
?ShowChaffIndex@ICPClass@@QAEXHH@Z PROC			; ICPClass::ShowChaffIndex
; _this$ = ecx

; 903  : {

	push	ebp
	mov	ebp, esp
	push	ecx
	mov	DWORD PTR _this$[ebp], ecx

; 904  : 	sprintf(tempstr," %d", CPI + 1);

	mov	eax, DWORD PTR _this$[ebp]
	mov	ecx, DWORD PTR [eax+660]
	add	ecx, 1
	push	ecx
	push	OFFSET ??_C@_03EBJOKFHF@?5?$CFd?$AA@
	mov	edx, DWORD PTR _this$[ebp]
	add	edx, 1024				; 00000400H
	push	edx
	call	_sprintf
	add	esp, 12					; 0000000cH

; 905  : 	FillDEDMatrix(Line,Pos,tempstr);

	push	0
	mov	eax, DWORD PTR _this$[ebp]
	add	eax, 1024				; 00000400H
	push	eax
	mov	ecx, DWORD PTR _Pos$[ebp]
	push	ecx
	mov	edx, DWORD PTR _Line$[ebp]
	push	edx
	mov	ecx, DWORD PTR _this$[ebp]
	call	?FillDEDMatrix@ICPClass@@QAEXHHPADH@Z	; ICPClass::FillDEDMatrix

; 906  : 	FillDEDMatrix(Line,Pos + 2,"\x01");

	push	0
	push	OFFSET ??_C@_01KHDNNMEB@?$AB?$AA@
	mov	eax, DWORD PTR _Pos$[ebp]
	add	eax, 2
	push	eax
	mov	ecx, DWORD PTR _Line$[ebp]
	push	ecx
	mov	ecx, DWORD PTR _this$[ebp]
	call	?FillDEDMatrix@ICPClass@@QAEXHHPADH@Z	; ICPClass::FillDEDMatrix

; 907  : }

	mov	esp, ebp
	pop	ebp
	ret	8
?ShowChaffIndex@ICPClass@@QAEXHH@Z ENDP			; ICPClass::ShowChaffIndex
_TEXT	ENDS
; Function compile flags: /Odtp
; File c:\users\zhitao li\documents\visual studio 2012\projects\freefalcon\sim\icp\icpmiscfuncs.cpp
_TEXT	SEGMENT
_this$ = -4						; size = 4
_Line$ = 8						; size = 4
_Pos$ = 12						; size = 4
?ShowFlareIndex@ICPClass@@QAEXHH@Z PROC			; ICPClass::ShowFlareIndex
; _this$ = ecx

; 897  : {

	push	ebp
	mov	ebp, esp
	push	ecx
	mov	DWORD PTR _this$[ebp], ecx

; 898  : 	sprintf(tempstr," %d", FPI + 1);

	mov	eax, DWORD PTR _this$[ebp]
	mov	ecx, DWORD PTR [eax+664]
	add	ecx, 1
	push	ecx
	push	OFFSET ??_C@_03EBJOKFHF@?5?$CFd?$AA@
	mov	edx, DWORD PTR _this$[ebp]
	add	edx, 1024				; 00000400H
	push	edx
	call	_sprintf
	add	esp, 12					; 0000000cH

; 899  : 	FillDEDMatrix(Line,Pos,tempstr);

	push	0
	mov	eax, DWORD PTR _this$[ebp]
	add	eax, 1024				; 00000400H
	push	eax
	mov	ecx, DWORD PTR _Pos$[ebp]
	push	ecx
	mov	edx, DWORD PTR _Line$[ebp]
	push	edx
	mov	ecx, DWORD PTR _this$[ebp]
	call	?FillDEDMatrix@ICPClass@@QAEXHHPADH@Z	; ICPClass::FillDEDMatrix

; 900  : 	FillDEDMatrix(Line,Pos + 2,"\x01");

	push	0
	push	OFFSET ??_C@_01KHDNNMEB@?$AB?$AA@
	mov	eax, DWORD PTR _Pos$[ebp]
	add	eax, 2
	push	eax
	mov	ecx, DWORD PTR _Line$[ebp]
	push	ecx
	mov	ecx, DWORD PTR _this$[ebp]
	call	?FillDEDMatrix@ICPClass@@QAEXHHPADH@Z	; ICPClass::FillDEDMatrix

; 901  : }

	mov	esp, ebp
	pop	ebp
	ret	8
?ShowFlareIndex@ICPClass@@QAEXHH@Z ENDP			; ICPClass::ShowFlareIndex
_TEXT	ENDS
; Function compile flags: /Odtp
; File c:\users\zhitao li\documents\visual studio 2012\projects\freefalcon\sim\icp\icpmiscfuncs.cpp
_TEXT	SEGMENT
_this$ = -4						; size = 4
_mode$ = 8						; size = 4
?StepEWSProg@ICPClass@@QAEXH@Z PROC			; ICPClass::StepEWSProg
; _this$ = ecx

; 860  : {

	push	ebp
	mov	ebp, esp
	push	ecx
	mov	DWORD PTR _this$[ebp], ecx

; 861  : 	if(mode == NEXT_BUTTON)

	cmp	DWORD PTR _mode$[ebp], 14		; 0000000eH
	jne	$LN16@StepEWSPro

; 862  : 	{
; 863  : 		if(PGMChaff)

	mov	eax, DWORD PTR _this$[ebp]
	movzx	ecx, BYTE PTR [eax+481]
	test	ecx, ecx
	je	SHORT $LN15@StepEWSPro

; 864  : 		{
; 865  : 			if(CPI < 3)

	mov	edx, DWORD PTR _this$[ebp]
	cmp	DWORD PTR [edx+660], 3
	jge	SHORT $LN14@StepEWSPro

; 866  : 				CPI++;

	mov	eax, DWORD PTR _this$[ebp]
	mov	ecx, DWORD PTR [eax+660]
	add	ecx, 1
	mov	edx, DWORD PTR _this$[ebp]
	mov	DWORD PTR [edx+660], ecx

; 867  : 			else

	jmp	SHORT $LN13@StepEWSPro
$LN14@StepEWSPro:

; 868  : 				CPI = 0;

	mov	eax, DWORD PTR _this$[ebp]
	mov	DWORD PTR [eax+660], 0
$LN13@StepEWSPro:
	jmp	SHORT $LN12@StepEWSPro
$LN15@StepEWSPro:

; 869  : 		}
; 870  : 		else if(PGMFlare)

	mov	ecx, DWORD PTR _this$[ebp]
	movzx	edx, BYTE PTR [ecx+482]
	test	edx, edx
	je	SHORT $LN12@StepEWSPro

; 871  : 		{
; 872  : 			if(FPI < 3)

	mov	eax, DWORD PTR _this$[ebp]
	cmp	DWORD PTR [eax+664], 3
	jge	SHORT $LN10@StepEWSPro

; 873  : 				FPI++;

	mov	ecx, DWORD PTR _this$[ebp]
	mov	edx, DWORD PTR [ecx+664]
	add	edx, 1
	mov	eax, DWORD PTR _this$[ebp]
	mov	DWORD PTR [eax+664], edx

; 874  : 			else

	jmp	SHORT $LN12@StepEWSPro
$LN10@StepEWSPro:

; 875  : 				FPI = 0;

	mov	ecx, DWORD PTR _this$[ebp]
	mov	DWORD PTR [ecx+664], 0
$LN12@StepEWSPro:

; 876  : 		}
; 877  : 	}
; 878  : 	else

	jmp	SHORT $LN17@StepEWSPro
$LN16@StepEWSPro:

; 879  : 	{
; 880  : 		if(PGMChaff)

	mov	edx, DWORD PTR _this$[ebp]
	movzx	eax, BYTE PTR [edx+481]
	test	eax, eax
	je	SHORT $LN7@StepEWSPro

; 881  : 		{
; 882  : 			if(CPI > 0)

	mov	ecx, DWORD PTR _this$[ebp]
	cmp	DWORD PTR [ecx+660], 0
	jle	SHORT $LN6@StepEWSPro

; 883  : 				CPI--;

	mov	edx, DWORD PTR _this$[ebp]
	mov	eax, DWORD PTR [edx+660]
	sub	eax, 1
	mov	ecx, DWORD PTR _this$[ebp]
	mov	DWORD PTR [ecx+660], eax

; 884  : 			else

	jmp	SHORT $LN5@StepEWSPro
$LN6@StepEWSPro:

; 885  : 				CPI = 3;

	mov	edx, DWORD PTR _this$[ebp]
	mov	DWORD PTR [edx+660], 3
$LN5@StepEWSPro:
	jmp	SHORT $LN17@StepEWSPro
$LN7@StepEWSPro:

; 886  : 		}
; 887  : 		else if(PGMFlare)

	mov	eax, DWORD PTR _this$[ebp]
	movzx	ecx, BYTE PTR [eax+482]
	test	ecx, ecx
	je	SHORT $LN17@StepEWSPro

; 888  : 		{
; 889  : 			if(FPI > 0)

	mov	edx, DWORD PTR _this$[ebp]
	cmp	DWORD PTR [edx+664], 0
	jle	SHORT $LN2@StepEWSPro

; 890  : 				FPI--;

	mov	eax, DWORD PTR _this$[ebp]
	mov	ecx, DWORD PTR [eax+664]
	sub	ecx, 1
	mov	edx, DWORD PTR _this$[ebp]
	mov	DWORD PTR [edx+664], ecx

; 891  : 			else

	jmp	SHORT $LN17@StepEWSPro
$LN2@StepEWSPro:

; 892  : 				FPI = 3;

	mov	eax, DWORD PTR _this$[ebp]
	mov	DWORD PTR [eax+664], 3
$LN17@StepEWSPro:

; 893  : 		}
; 894  : 	}
; 895  : }

	mov	esp, ebp
	pop	ebp
	ret	4
?StepEWSProg@ICPClass@@QAEXH@Z ENDP			; ICPClass::StepEWSProg
_TEXT	ENDS
; Function compile flags: /Odtp
; File c:\users\zhitao li\documents\visual studio 2012\projects\freefalcon\sim\icp\icpmiscfuncs.cpp
_TEXT	SEGMENT
_this$ = -4						; size = 4
?EWSOnOff@ICPClass@@QAEXXZ PROC				; ICPClass::EWSOnOff
; _this$ = ecx

; 540  : {

	push	ebp
	mov	ebp, esp
	push	ecx
	mov	DWORD PTR _this$[ebp], ecx

; 541  : 	if(IsICPSet(ICPClass::EDIT_JAMMER))		

	push	65536					; 00010000H
	mov	ecx, DWORD PTR _this$[ebp]
	call	?IsICPSet@ICPClass@@QAEHH@Z		; ICPClass::IsICPSet
	test	eax, eax
	je	SHORT $LN7@EWSOnOff

; 542  : 	{
; 543  : 		if(EWS_JAMMER_ON)

	mov	eax, DWORD PTR _this$[ebp]
	movzx	ecx, BYTE PTR [eax+483]
	test	ecx, ecx
	je	SHORT $LN6@EWSOnOff

; 544  : 			EWS_JAMMER_ON = FALSE;

	mov	edx, DWORD PTR _this$[ebp]
	mov	BYTE PTR [edx+483], 0

; 545  : 		else

	jmp	SHORT $LN5@EWSOnOff
$LN6@EWSOnOff:

; 546  : 			EWS_JAMMER_ON = TRUE;

	mov	eax, DWORD PTR _this$[ebp]
	mov	BYTE PTR [eax+483], 1
$LN5@EWSOnOff:
	jmp	SHORT $LN8@EWSOnOff
$LN7@EWSOnOff:

; 547  : 	}
; 548  : 	else if(IsICPSet(ICPClass::EWS_EDIT_BINGO))

	push	131072					; 00020000H
	mov	ecx, DWORD PTR _this$[ebp]
	call	?IsICPSet@ICPClass@@QAEHH@Z		; ICPClass::IsICPSet
	test	eax, eax
	je	SHORT $LN8@EWSOnOff

; 549  : 	{
; 550  : 		if(EWS_BINGO_ON)

	mov	ecx, DWORD PTR _this$[ebp]
	movzx	edx, BYTE PTR [ecx+484]
	test	edx, edx
	je	SHORT $LN2@EWSOnOff

; 551  : 			EWS_BINGO_ON = FALSE;

	mov	eax, DWORD PTR _this$[ebp]
	mov	BYTE PTR [eax+484], 0

; 552  : 		else

	jmp	SHORT $LN8@EWSOnOff
$LN2@EWSOnOff:

; 553  : 			EWS_BINGO_ON = TRUE;

	mov	ecx, DWORD PTR _this$[ebp]
	mov	BYTE PTR [ecx+484], 1
$LN8@EWSOnOff:

; 554  : 	}
; 555  : }

	mov	esp, ebp
	pop	ebp
	ret	0
?EWSOnOff@ICPClass@@QAEXXZ ENDP				; ICPClass::EWSOnOff
_TEXT	ENDS
; Function compile flags: /Odtp
; File c:\users\zhitao li\documents\visual studio 2012\projects\freefalcon\sim\icp\icpmiscfuncs.cpp
_TEXT	SEGMENT
_this$ = -4						; size = 4
_Line$ = 8						; size = 4
_Pos$ = 12						; size = 4
?AddSTPT@ICPClass@@QAEXHH@Z PROC			; ICPClass::AddSTPT
; _this$ = ecx

; 433  : {

	push	ebp
	mov	ebp, esp
	push	ecx
	mov	DWORD PTR _this$[ebp], ecx

; 434  : 	if(mWPIndex + 1 > 9)

	mov	eax, DWORD PTR _this$[ebp]
	mov	ecx, DWORD PTR [eax+256]
	add	ecx, 1
	cmp	ecx, 9
	jle	SHORT $LN2@AddSTPT

; 435  : 		sprintf(tempstr, "%d",mWPIndex + 1);

	mov	edx, DWORD PTR _this$[ebp]
	mov	eax, DWORD PTR [edx+256]
	add	eax, 1
	push	eax
	push	OFFSET ??_C@_02DPKJAMEF@?$CFd?$AA@
	mov	ecx, DWORD PTR _this$[ebp]
	add	ecx, 1024				; 00000400H
	push	ecx
	call	_sprintf
	add	esp, 12					; 0000000cH

; 436  : 	else

	jmp	SHORT $LN1@AddSTPT
$LN2@AddSTPT:

; 437  : 		sprintf(tempstr," %d",mWPIndex + 1);

	mov	edx, DWORD PTR _this$[ebp]
	mov	eax, DWORD PTR [edx+256]
	add	eax, 1
	push	eax
	push	OFFSET ??_C@_03EBJOKFHF@?5?$CFd?$AA@
	mov	ecx, DWORD PTR _this$[ebp]
	add	ecx, 1024				; 00000400H
	push	ecx
	call	_sprintf
	add	esp, 12					; 0000000cH
$LN1@AddSTPT:

; 438  : 	FillDEDMatrix(Line,Pos,tempstr);

	push	0
	mov	edx, DWORD PTR _this$[ebp]
	add	edx, 1024				; 00000400H
	push	edx
	mov	eax, DWORD PTR _Pos$[ebp]
	push	eax
	mov	ecx, DWORD PTR _Line$[ebp]
	push	ecx
	mov	ecx, DWORD PTR _this$[ebp]
	call	?FillDEDMatrix@ICPClass@@QAEXHHPADH@Z	; ICPClass::FillDEDMatrix

; 439  : 	FillDEDMatrix(Line,Pos + 2,"\x01");

	push	0
	push	OFFSET ??_C@_01KHDNNMEB@?$AB?$AA@
	mov	edx, DWORD PTR _Pos$[ebp]
	add	edx, 2
	push	edx
	mov	eax, DWORD PTR _Line$[ebp]
	push	eax
	mov	ecx, DWORD PTR _this$[ebp]
	call	?FillDEDMatrix@ICPClass@@QAEXHHPADH@Z	; ICPClass::FillDEDMatrix

; 440  : }

	mov	esp, ebp
	pop	ebp
	ret	8
?AddSTPT@ICPClass@@QAEXHH@Z ENDP			; ICPClass::AddSTPT
_TEXT	ENDS
; Function compile flags: /Odtp
; File c:\users\zhitao li\documents\visual studio 2012\projects\freefalcon\sim\icp\icpmiscfuncs.cpp
_TEXT	SEGMENT
tv183 = -32						; size = 4
tv166 = -28						; size = 4
_playerAC$ = -24					; size = 4
_this$ = -20						; size = 4
_pos$ = -16						; size = 12
__$ArrayPad$ = -4					; size = 4
?GetWind@ICPClass@@QAEXXZ PROC				; ICPClass::GetWind
; _this$ = ecx

; 413  : {

	push	ebp
	mov	ebp, esp
	sub	esp, 32					; 00000020H
	mov	eax, DWORD PTR ___security_cookie
	xor	eax, ebp
	mov	DWORD PTR __$ArrayPad$[ebp], eax
	mov	DWORD PTR _this$[ebp], ecx

; 414  : 	AircraftClass *playerAC = SimDriver.GetPlayerAircraft();

	mov	ecx, OFFSET ?SimDriver@@3VSimulationDriver@@A ; SimDriver
	call	?GetPlayerAircraft@SimulationDriver@@QBEPAVAircraftClass@@XZ ; SimulationDriver::GetPlayerAircraft
	mov	DWORD PTR _playerAC$[ebp], eax

; 415  : 	Tpoint			pos;
; 416  : 	pos.x = playerAC->XPos();

	mov	ecx, DWORD PTR _playerAC$[ebp]
	call	?XPos@VuEntity@@QBEMXZ			; VuEntity::XPos
	fstp	DWORD PTR _pos$[ebp]

; 417  : 	pos.y =playerAC->YPos();

	mov	ecx, DWORD PTR _playerAC$[ebp]
	call	?YPos@VuEntity@@QBEMXZ			; VuEntity::YPos
	fstp	DWORD PTR _pos$[ebp+4]

; 418  : 	pos.z = playerAC->ZPos();

	mov	ecx, DWORD PTR _playerAC$[ebp]
	call	?ZPos@VuEntity@@QBEMXZ			; VuEntity::ZPos
	fstp	DWORD PTR _pos$[ebp+8]

; 419  : 
; 420  : 	heading	= FloatToInt32(((WeatherClass*)realWeather)->WindHeadingAt(&pos) * RTD);

	lea	eax, DWORD PTR _pos$[ebp]
	push	eax
	mov	ecx, DWORD PTR ?realWeather@@3PAVRealWeather@@A ; realWeather
	call	?WindHeadingAt@WeatherClass@@QAEMPBUTpoint@@@Z ; WeatherClass::WindHeadingAt
	fstp	DWORD PTR tv166[ebp]
	movss	xmm0, DWORD PTR tv166[ebp]
	mulss	xmm0, DWORD PTR __real@42652ee1
	push	ecx
	movss	DWORD PTR [esp], xmm0
	call	?FloatToInt32@@YAHM@Z			; FloatToInt32
	add	esp, 4
	mov	ecx, DWORD PTR _this$[ebp]
	mov	DWORD PTR [ecx+324], eax

; 421  : 	if(heading <= 0) 

	mov	edx, DWORD PTR _this$[ebp]
	cmp	DWORD PTR [edx+324], 0
	jg	SHORT $LN4@GetWind

; 422  : 		heading += 180;

	mov	eax, DWORD PTR _this$[ebp]
	mov	ecx, DWORD PTR [eax+324]
	add	ecx, 180				; 000000b4H
	mov	edx, DWORD PTR _this$[ebp]
	mov	DWORD PTR [edx+324], ecx
	jmp	SHORT $LN2@GetWind
$LN4@GetWind:

; 423  : 	else if(heading > 0) 

	mov	eax, DWORD PTR _this$[ebp]
	cmp	DWORD PTR [eax+324], 0
	jle	SHORT $LN2@GetWind

; 424  : 		heading -= 180;				

	mov	ecx, DWORD PTR _this$[ebp]
	mov	edx, DWORD PTR [ecx+324]
	sub	edx, 180				; 000000b4H
	mov	eax, DWORD PTR _this$[ebp]
	mov	DWORD PTR [eax+324], edx
$LN2@GetWind:

; 425  : 	if(heading < 0)

	mov	ecx, DWORD PTR _this$[ebp]
	cmp	DWORD PTR [ecx+324], 0
	jge	SHORT $LN1@GetWind

; 426  : 		heading = 360 + heading;

	mov	edx, DWORD PTR _this$[ebp]
	mov	eax, DWORD PTR [edx+324]
	add	eax, 360				; 00000168H
	mov	ecx, DWORD PTR _this$[ebp]
	mov	DWORD PTR [ecx+324], eax
$LN1@GetWind:

; 427  : 
; 428  : 
; 429  : 			windSpeed	= ((WeatherClass*)realWeather)->WindSpeedInFeetPerSecond(&pos) * FTPSEC_TO_KNOTS;

	lea	edx, DWORD PTR _pos$[ebp]
	push	edx
	mov	ecx, DWORD PTR ?realWeather@@3PAVRealWeather@@A ; realWeather
	call	?WindSpeedInFeetPerSecond@WeatherClass@@QAEMPBUTpoint@@@Z ; WeatherClass::WindSpeedInFeetPerSecond
	fstp	DWORD PTR tv183[ebp]
	movss	xmm0, DWORD PTR tv183[ebp]
	mulss	xmm0, DWORD PTR __real@3f17ac60
	mov	eax, DWORD PTR _this$[ebp]
	movss	DWORD PTR [eax+432], xmm0

; 430  : 
; 431  : }

	mov	ecx, DWORD PTR __$ArrayPad$[ebp]
	xor	ecx, ebp
	call	@__security_check_cookie@4
	mov	esp, ebp
	pop	ebp
	ret	0
?GetWind@ICPClass@@QAEXXZ ENDP				; ICPClass::GetWind
_TEXT	ENDS
; Function compile flags: /Odtp
; File c:\users\zhitao li\documents\visual studio 2012\projects\freefalcon\sim\icp\icpmiscfuncs.cpp
_TEXT	SEGMENT
_this$ = -4						; size = 4
?LeaveCNIPage@ICPClass@@QAEXXZ PROC			; ICPClass::LeaveCNIPage
; _this$ = ecx

; 832  : {

	push	ebp
	mov	ebp, esp
	push	ecx
	mov	DWORD PTR _this$[ebp], ecx

; 833  : 	ClearICPFlag(ICPClass::EDIT_STPT);

	push	1048576					; 00100000H
	mov	ecx, DWORD PTR _this$[ebp]
	call	?ClearICPFlag@ICPClass@@QAEXH@Z		; ICPClass::ClearICPFlag

; 834  : 	ClearICPFlag(ICPClass::EDIT_VHF);

	push	262144					; 00040000H
	mov	ecx, DWORD PTR _this$[ebp]
	call	?ClearICPFlag@ICPClass@@QAEXH@Z		; ICPClass::ClearICPFlag

; 835  : 	ClearICPFlag(ICPClass::EDIT_UHF);

	push	524288					; 00080000H
	mov	ecx, DWORD PTR _this$[ebp]
	call	?ClearICPFlag@ICPClass@@QAEXH@Z		; ICPClass::ClearICPFlag

; 836  : }

	mov	esp, ebp
	pop	ebp
	ret	0
?LeaveCNIPage@ICPClass@@QAEXXZ ENDP			; ICPClass::LeaveCNIPage
_TEXT	ENDS
; Function compile flags: /Odtp
; File c:\users\zhitao li\documents\visual studio 2012\projects\freefalcon\sim\icp\icpmiscfuncs.cpp
_TEXT	SEGMENT
_this$ = -4						; size = 4
?CheckBackupPages@ICPClass@@QAEHXZ PROC			; ICPClass::CheckBackupPages
; _this$ = ecx

; 822  : {

	push	ebp
	mov	ebp, esp
	push	ecx
	mov	DWORD PTR _this$[ebp], ecx

; 823  : 	if(IsICPSet(ICPClass::MODE_CNI) || IsICPSet(ICPClass::MODE_IFF) ||
; 824  : 		IsICPSet(ICPClass::MODE_COMM1) || IsICPSet(ICPClass::MODE_COMM2))

	push	128					; 00000080H
	mov	ecx, DWORD PTR _this$[ebp]
	call	?IsICPSet@ICPClass@@QAEHH@Z		; ICPClass::IsICPSet
	test	eax, eax
	jne	SHORT $LN2@CheckBacku
	push	16					; 00000010H
	mov	ecx, DWORD PTR _this$[ebp]
	call	?IsICPSet@ICPClass@@QAEHH@Z		; ICPClass::IsICPSet
	test	eax, eax
	jne	SHORT $LN2@CheckBacku
	push	32					; 00000020H
	mov	ecx, DWORD PTR _this$[ebp]
	call	?IsICPSet@ICPClass@@QAEHH@Z		; ICPClass::IsICPSet
	test	eax, eax
	jne	SHORT $LN2@CheckBacku
	push	64					; 00000040H
	mov	ecx, DWORD PTR _this$[ebp]
	call	?IsICPSet@ICPClass@@QAEHH@Z		; ICPClass::IsICPSet
	test	eax, eax
	je	SHORT $LN3@CheckBacku
$LN2@CheckBacku:

; 825  : 		return TRUE;

	mov	eax, 1
	jmp	SHORT $LN4@CheckBacku

; 826  : 	else

	jmp	SHORT $LN1@CheckBacku
$LN3@CheckBacku:

; 827  : 		return FALSE;

	xor	eax, eax
	jmp	SHORT $LN4@CheckBacku
$LN1@CheckBacku:

; 828  : 
; 829  : 	return FALSE;

	xor	eax, eax
$LN4@CheckBacku:

; 830  : }

	mov	esp, ebp
	pop	ebp
	ret	0
?CheckBackupPages@ICPClass@@QAEHXZ ENDP			; ICPClass::CheckBackupPages
_TEXT	ENDS
; Function compile flags: /Odtp
; File c:\users\zhitao li\documents\visual studio 2012\projects\freefalcon\sim\icp\icpmiscfuncs.cpp
_TEXT	SEGMENT
_this$ = -4						; size = 4
?ResetInput@ICPClass@@QAEXXZ PROC			; ICPClass::ResetInput
; _this$ = ecx

; 813  : {

	push	ebp
	mov	ebp, esp
	push	ecx
	mov	DWORD PTR _this$[ebp], ecx

; 814  : 	ClearDigits();

	mov	ecx, DWORD PTR _this$[ebp]
	call	?ClearDigits@ICPClass@@QAEXXZ		; ICPClass::ClearDigits

; 815  : 	ClearStrings();

	mov	ecx, DWORD PTR _this$[ebp]
	call	?ClearStrings@ICPClass@@QAEXXZ		; ICPClass::ClearStrings

; 816  : 	Manual_Input = FALSE;

	mov	eax, DWORD PTR _this$[ebp]
	mov	BYTE PTR [eax+732], 0

; 817  : 	MadeInput = FALSE;

	mov	ecx, DWORD PTR _this$[ebp]
	mov	BYTE PTR [ecx+1500], 0

; 818  : 	InputsMade = 0;

	mov	edx, DWORD PTR _this$[ebp]
	mov	DWORD PTR [edx+744], 0

; 819  : 	CNISwitch(DOWN_MODE);

	push	29					; 0000001dH
	mov	ecx, DWORD PTR _this$[ebp]
	call	?CNISwitch@ICPClass@@QAEXH@Z		; ICPClass::CNISwitch

; 820  : }

	mov	esp, ebp
	pop	ebp
	ret	0
?ResetInput@ICPClass@@QAEXXZ ENDP			; ICPClass::ResetInput
_TEXT	ENDS
; Function compile flags: /Odtp
; File c:\users\zhitao li\documents\visual studio 2012\projects\freefalcon\sim\icp\icpmiscfuncs.cpp
_TEXT	SEGMENT
_this$ = -4						; size = 4
?ResetSubPages@ICPClass@@QAEXXZ PROC			; ICPClass::ResetSubPages
; _this$ = ecx

; 574  : {

	push	ebp
	mov	ebp, esp
	push	ecx
	mov	DWORD PTR _this$[ebp], ecx

; 575  : 	//Dest Stuff
; 576  : 	OA1 = FALSE;

	mov	eax, DWORD PTR _this$[ebp]
	mov	BYTE PTR [eax+429], 0

; 577  : 	OA2 = FALSE;

	mov	ecx, DWORD PTR _this$[ebp]
	mov	BYTE PTR [ecx+430], 0

; 578  : 	OA_RNG = TRUE;

	mov	edx, DWORD PTR _this$[ebp]
	mov	BYTE PTR [edx+668], 1

; 579  : 
; 580  : 	//EWS Stuff
; 581  : 	EWSMain = TRUE;

	mov	eax, DWORD PTR _this$[ebp]
	mov	BYTE PTR [eax+480], 1

; 582  : 	PGMChaff = FALSE;

	mov	ecx, DWORD PTR _this$[ebp]
	mov	BYTE PTR [ecx+481], 0

; 583  : 	PGMFlare = FALSE;

	mov	edx, DWORD PTR _this$[ebp]
	mov	BYTE PTR [edx+482], 0

; 584  : }

	mov	esp, ebp
	pop	ebp
	ret	0
?ResetSubPages@ICPClass@@QAEXXZ ENDP			; ICPClass::ResetSubPages
_TEXT	ENDS
; Function compile flags: /Odtp
; File c:\users\zhitao li\documents\visual studio 2012\projects\freefalcon\sim\icp\icpmiscfuncs.cpp
_TEXT	SEGMENT
_this$ = -4						; size = 4
?CheckDigits@ICPClass@@QAEXXZ PROC			; ICPClass::CheckDigits
; _this$ = ecx

; 557  : {

	push	ebp
	mov	ebp, esp
	push	ecx
	mov	DWORD PTR _this$[ebp], ecx

; 558  : 	if(Input_Digit1 > 10)

	mov	eax, DWORD PTR _this$[ebp]
	cmp	DWORD PTR [eax+1412], 10		; 0000000aH
	jbe	SHORT $LN7@CheckDigit

; 559  : 		Input_Digit1 = 0;

	mov	ecx, DWORD PTR _this$[ebp]
	mov	DWORD PTR [ecx+1412], 0
$LN7@CheckDigit:

; 560  : 	if(Input_Digit2 > 10)

	mov	edx, DWORD PTR _this$[ebp]
	cmp	DWORD PTR [edx+1416], 10		; 0000000aH
	jbe	SHORT $LN6@CheckDigit

; 561  : 		Input_Digit2 = 0;

	mov	eax, DWORD PTR _this$[ebp]
	mov	DWORD PTR [eax+1416], 0
$LN6@CheckDigit:

; 562  : 	if(Input_Digit3 > 10)

	mov	ecx, DWORD PTR _this$[ebp]
	cmp	DWORD PTR [ecx+1420], 10		; 0000000aH
	jbe	SHORT $LN5@CheckDigit

; 563  : 		Input_Digit3 = 0;

	mov	edx, DWORD PTR _this$[ebp]
	mov	DWORD PTR [edx+1420], 0
$LN5@CheckDigit:

; 564  : 	if(Input_Digit4 > 10)

	mov	eax, DWORD PTR _this$[ebp]
	cmp	DWORD PTR [eax+1424], 10		; 0000000aH
	jbe	SHORT $LN4@CheckDigit

; 565  : 		Input_Digit4 = 0;

	mov	ecx, DWORD PTR _this$[ebp]
	mov	DWORD PTR [ecx+1424], 0
$LN4@CheckDigit:

; 566  : 	if(Input_Digit5 > 10)

	mov	edx, DWORD PTR _this$[ebp]
	cmp	DWORD PTR [edx+1428], 10		; 0000000aH
	jbe	SHORT $LN3@CheckDigit

; 567  : 		Input_Digit5 = 0;

	mov	eax, DWORD PTR _this$[ebp]
	mov	DWORD PTR [eax+1428], 0
$LN3@CheckDigit:

; 568  : 	if(Input_Digit6 > 10)

	mov	ecx, DWORD PTR _this$[ebp]
	cmp	DWORD PTR [ecx+1432], 10		; 0000000aH
	jbe	SHORT $LN2@CheckDigit

; 569  : 		Input_Digit6 = 0;

	mov	edx, DWORD PTR _this$[ebp]
	mov	DWORD PTR [edx+1432], 0
$LN2@CheckDigit:

; 570  : 	if(Input_Digit7 > 10)

	mov	eax, DWORD PTR _this$[ebp]
	cmp	DWORD PTR [eax+1436], 10		; 0000000aH
	jbe	SHORT $LN8@CheckDigit

; 571  : 		Input_Digit7 = 0;

	mov	ecx, DWORD PTR _this$[ebp]
	mov	DWORD PTR [ecx+1436], 0
$LN8@CheckDigit:

; 572  : }

	mov	esp, ebp
	pop	ebp
	ret	0
?CheckDigits@ICPClass@@QAEXXZ ENDP			; ICPClass::CheckDigits
_TEXT	ENDS
; Function compile flags: /Odtp
; File c:\users\zhitao li\documents\visual studio 2012\projects\freefalcon\sim\icp\icpmiscfuncs.cpp
_TEXT	SEGMENT
_this$ = -4						; size = 4
?ClearString@ICPClass@@QAEXXZ PROC			; ICPClass::ClearString
; _this$ = ecx

; 535  : {

	push	ebp
	mov	ebp, esp
	push	ecx
	mov	DWORD PTR _this$[ebp], ecx

; 536  : 	memset(InputString, ' ', 15);

	push	15					; 0000000fH
	push	32					; 00000020H
	mov	eax, DWORD PTR _this$[ebp]
	add	eax, 1064				; 00000428H
	push	eax
	call	_memset
	add	esp, 12					; 0000000cH

; 537  : 	InputString[15] = '\0';

	mov	ecx, 1
	imul	ecx, 15					; 0000000fH
	mov	edx, DWORD PTR _this$[ebp]
	mov	BYTE PTR [edx+ecx+1064], 0

; 538  : }

	mov	esp, ebp
	pop	ebp
	ret	0
?ClearString@ICPClass@@QAEXXZ ENDP			; ICPClass::ClearString
_TEXT	ENDS
; Function compile flags: /Odtp
; File c:\users\zhitao li\documents\visual studio 2012\projects\freefalcon\sim\icp\icpmiscfuncs.cpp
_TEXT	SEGMENT
_this$ = -8						; size = 4
_i$1 = -4						; size = 4
_Line$ = 8						; size = 4
_Start$ = 12						; size = 4
_End$ = 16						; size = 4
?ClearInverted@ICPClass@@QAEXHHH@Z PROC			; ICPClass::ClearInverted
; _this$ = ecx

; 457  : {

	push	ebp
	mov	ebp, esp
	sub	esp, 8
	mov	DWORD PTR _this$[ebp], ecx

; 458  : 	for(int i= Start; i < End; i++)

	mov	eax, DWORD PTR _Start$[ebp]
	mov	DWORD PTR _i$1[ebp], eax
	jmp	SHORT $LN3@ClearInver
$LN2@ClearInver:
	mov	ecx, DWORD PTR _i$1[ebp]
	add	ecx, 1
	mov	DWORD PTR _i$1[ebp], ecx
$LN3@ClearInver:
	mov	edx, DWORD PTR _i$1[ebp]
	cmp	edx, DWORD PTR _End$[ebp]
	jge	SHORT $LN4@ClearInver

; 459  : 			Invert[Line][i] = 0;

	mov	eax, DWORD PTR _Line$[ebp]
	imul	eax, 26					; 0000001aH
	mov	ecx, DWORD PTR _this$[ebp]
	lea	edx, DWORD PTR [ecx+eax+894]
	mov	eax, DWORD PTR _i$1[ebp]
	mov	BYTE PTR [edx+eax], 0
	jmp	SHORT $LN2@ClearInver
$LN4@ClearInver:

; 460  : }

	mov	esp, ebp
	pop	ebp
	ret	12					; 0000000cH
?ClearInverted@ICPClass@@QAEXHHH@Z ENDP			; ICPClass::ClearInverted
_TEXT	ENDS
; Function compile flags: /Odtp
; File c:\users\zhitao li\documents\visual studio 2012\projects\freefalcon\sim\icp\icpmiscfuncs.cpp
_TEXT	SEGMENT
_this$ = -4						; size = 4
?ClearDigits@ICPClass@@QAEXXZ PROC			; ICPClass::ClearDigits
; _this$ = ecx

; 496  : {

	push	ebp
	mov	ebp, esp
	push	ecx
	mov	DWORD PTR _this$[ebp], ecx

; 497  : 	Input_Digit1 = 25;

	mov	eax, DWORD PTR _this$[ebp]
	mov	DWORD PTR [eax+1412], 25		; 00000019H

; 498  : 	Input_Digit2 = 25;

	mov	ecx, DWORD PTR _this$[ebp]
	mov	DWORD PTR [ecx+1416], 25		; 00000019H

; 499  : 	Input_Digit3 = 25;

	mov	edx, DWORD PTR _this$[ebp]
	mov	DWORD PTR [edx+1420], 25		; 00000019H

; 500  : 	Input_Digit4 = 25;

	mov	eax, DWORD PTR _this$[ebp]
	mov	DWORD PTR [eax+1424], 25		; 00000019H

; 501  : 	Input_Digit5 = 25;

	mov	ecx, DWORD PTR _this$[ebp]
	mov	DWORD PTR [ecx+1428], 25		; 00000019H

; 502  : 	Input_Digit6 = 25;

	mov	edx, DWORD PTR _this$[ebp]
	mov	DWORD PTR [edx+1432], 25		; 00000019H

; 503  : 	Input_Digit7 = 25;

	mov	eax, DWORD PTR _this$[ebp]
	mov	DWORD PTR [eax+1436], 25		; 00000019H

; 504  : }

	mov	esp, ebp
	pop	ebp
	ret	0
?ClearDigits@ICPClass@@QAEXXZ ENDP			; ICPClass::ClearDigits
_TEXT	ENDS
; Function compile flags: /Odtp
; File c:\users\zhitao li\documents\visual studio 2012\projects\freefalcon\sim\icp\icpmiscfuncs.cpp
_TEXT	SEGMENT
_this$ = -4						; size = 4
?LeaveCNI@ICPClass@@QAEXXZ PROC				; ICPClass::LeaveCNI
; _this$ = ecx

; 489  : {

	push	ebp
	mov	ebp, esp
	push	ecx
	mov	DWORD PTR _this$[ebp], ecx

; 490  : 	ClearICPFlag(ICPClass::MODE_CNI);

	push	128					; 00000080H
	mov	ecx, DWORD PTR _this$[ebp]
	call	?ClearICPFlag@ICPClass@@QAEXH@Z		; ICPClass::ClearICPFlag

; 491  : 	ClearICPFlag(ICPClass::EDIT_STPT);

	push	1048576					; 00100000H
	mov	ecx, DWORD PTR _this$[ebp]
	call	?ClearICPFlag@ICPClass@@QAEXH@Z		; ICPClass::ClearICPFlag

; 492  : 	ClearICPFlag(ICPClass::EDIT_VHF);

	push	262144					; 00040000H
	mov	ecx, DWORD PTR _this$[ebp]
	call	?ClearICPFlag@ICPClass@@QAEXH@Z		; ICPClass::ClearICPFlag

; 493  : 	ClearICPFlag(ICPClass::EDIT_UHF);

	push	524288					; 00080000H
	mov	ecx, DWORD PTR _this$[ebp]
	call	?ClearICPFlag@ICPClass@@QAEXH@Z		; ICPClass::ClearICPFlag

; 494  : }

	mov	esp, ebp
	pop	ebp
	ret	0
?LeaveCNI@ICPClass@@QAEXXZ ENDP				; ICPClass::LeaveCNI
_TEXT	ENDS
; Function compile flags: /Odtp
; File c:\users\zhitao li\documents\visual studio 2012\projects\freefalcon\sim\icp\icpmiscfuncs.cpp
_TEXT	SEGMENT
_this$ = -8						; size = 4
_i$1 = -4						; size = 4
_Line$ = 8						; size = 4
_Pos$ = 12						; size = 4
_str$ = 16						; size = 4
_Inverted$ = 20						; size = 4
?FillDEDMatrix@ICPClass@@QAEXHHPADH@Z PROC		; ICPClass::FillDEDMatrix
; _this$ = ecx

; 402  : {

	push	ebp
	mov	ebp, esp
	sub	esp, 8
	mov	DWORD PTR _this$[ebp], ecx

; 403  : 	ShiAssert(Line >=0 && Line < 5);
; 404  : 	ShiAssert(Pos >=0 && Pos+strlen(str) <= MAX_DED_LEN);
; 405  : 
; 406  : 	for(int i = 0; str[i] != '\0'; i++)

	mov	DWORD PTR _i$1[ebp], 0
	jmp	SHORT $LN3@FillDEDMat
$LN2@FillDEDMat:
	mov	eax, DWORD PTR _i$1[ebp]
	add	eax, 1
	mov	DWORD PTR _i$1[ebp], eax
$LN3@FillDEDMat:
	mov	ecx, DWORD PTR _str$[ebp]
	add	ecx, DWORD PTR _i$1[ebp]
	movsx	edx, BYTE PTR [ecx]
	test	edx, edx
	je	SHORT $LN4@FillDEDMat

; 407  : 	{
; 408  : 		DEDLines[Line][Pos + i] = str[i];

	mov	eax, DWORD PTR _Line$[ebp]
	imul	eax, 26					; 0000001aH
	mov	ecx, DWORD PTR _this$[ebp]
	lea	edx, DWORD PTR [ecx+eax+764]
	mov	eax, DWORD PTR _Pos$[ebp]
	add	eax, DWORD PTR _i$1[ebp]
	mov	ecx, DWORD PTR _str$[ebp]
	add	ecx, DWORD PTR _i$1[ebp]
	mov	cl, BYTE PTR [ecx]
	mov	BYTE PTR [edx+eax], cl

; 409  : 		Invert[Line][Pos + i] = Inverted;

	mov	edx, DWORD PTR _Line$[ebp]
	imul	edx, 26					; 0000001aH
	mov	eax, DWORD PTR _this$[ebp]
	lea	ecx, DWORD PTR [eax+edx+894]
	mov	edx, DWORD PTR _Pos$[ebp]
	add	edx, DWORD PTR _i$1[ebp]
	mov	al, BYTE PTR _Inverted$[ebp]
	mov	BYTE PTR [ecx+edx], al

; 410  : 	}

	jmp	SHORT $LN2@FillDEDMat
$LN4@FillDEDMat:

; 411  : }

	mov	esp, ebp
	pop	ebp
	ret	16					; 00000010H
?FillDEDMatrix@ICPClass@@QAEXHHPADH@Z ENDP		; ICPClass::FillDEDMatrix
_TEXT	ENDS
; Function compile flags: /Odtp
; File c:\users\zhitao li\documents\visual studio 2012\projects\freefalcon\sim\icp\icpmiscfuncs.cpp
_TEXT	SEGMENT
_this$ = -8						; size = 4
_i$1 = -4						; size = 4
_Line$ = 8						; size = 4
_Start$ = 12						; size = 4
_End$ = 16						; size = 4
?MakeInverted@ICPClass@@QAEXHHH@Z PROC			; ICPClass::MakeInverted
; _this$ = ecx

; 442  : {

	push	ebp
	mov	ebp, esp
	sub	esp, 8
	mov	DWORD PTR _this$[ebp], ecx

; 443  : 	for(int i= Start; i < End; i++)

	mov	eax, DWORD PTR _Start$[ebp]
	mov	DWORD PTR _i$1[ebp], eax
	jmp	SHORT $LN3@MakeInvert
$LN2@MakeInvert:
	mov	ecx, DWORD PTR _i$1[ebp]
	add	ecx, 1
	mov	DWORD PTR _i$1[ebp], ecx
$LN3@MakeInvert:
	mov	edx, DWORD PTR _i$1[ebp]
	cmp	edx, DWORD PTR _End$[ebp]
	jge	SHORT $LN4@MakeInvert

; 444  : 			Invert[Line][i] = 2;

	mov	eax, DWORD PTR _Line$[ebp]
	imul	eax, 26					; 0000001aH
	mov	ecx, DWORD PTR _this$[ebp]
	lea	edx, DWORD PTR [ecx+eax+894]
	mov	eax, DWORD PTR _i$1[ebp]
	mov	BYTE PTR [edx+eax], 2
	jmp	SHORT $LN2@MakeInvert
$LN4@MakeInvert:

; 445  : }

	mov	esp, ebp
	pop	ebp
	ret	12					; 0000000cH
?MakeInverted@ICPClass@@QAEXHHH@Z ENDP			; ICPClass::MakeInverted
_TEXT	ENDS
; Function compile flags: /Odtp
; File c:\users\zhitao li\documents\visual studio 2012\projects\freefalcon\sim\icp\icpmiscfuncs.cpp
_TEXT	SEGMENT
_this$ = -4						; size = 4
?ManualInput@ICPClass@@QAEHXZ PROC			; ICPClass::ManualInput
; _this$ = ecx

; 68   : {

	push	ebp
	mov	ebp, esp
	push	ecx
	mov	DWORD PTR _this$[ebp], ecx

; 69   : 	if(Manual_Input)

	mov	eax, DWORD PTR _this$[ebp]
	movzx	ecx, BYTE PTR [eax+732]
	test	ecx, ecx
	je	SHORT $LN27@ManualInpu

; 70   : 		return TRUE;

	mov	eax, 1
	jmp	$LN1@ManualInpu
$LN27@ManualInpu:

; 71   : 	if((IsICPSet(ICPClass::MODE_CNI) && mICPSecondaryMode == ONE_BUTTON &&
; 72   : 		ILSPageSel == 0) ||
; 73   : 		(IsICPSet(ICPClass::MODE_CNI) && mICPSecondaryMode == TWO_BUTTON) ||
; 74   : 		(IsICPSet(ICPClass::MODE_CNI) && mICPSecondaryMode == FOUR_BUTTON)||
; 75   : 		(IsICPSet(ICPClass::MODE_LIST) && mICPSecondaryMode == ONE_BUTTON) ||
; 76   : 		(IsICPSet(ICPClass::EDIT_LAT)) || (IsICPSet(ICPClass::EDIT_LONG)) ||
; 77   : 		(IsICPSet(ICPClass::FLARE_BINGO)) || (IsICPSet(ICPClass::CHAFF_BINGO)) ||
; 78   : 		(BQ || BI || SQ || SI || OA1 || OA2) ||
; 79   : 		(IsICPSet(ICPClass::MODE_LIST) && mICPSecondaryMode == TWO_BUTTON) ||
; 80   : 		(IsICPSet(ICPClass::MODE_LIST) && mICPSecondaryMode == THREE_BUTTON) ||
; 81   : 		(IsICPSet(ICPClass::MODE_LIST) && mICPSecondaryMode == FIFE_BUTTON) ||
; 82   : 		(IsICPSet(ICPClass::MODE_LIST) && mICPSecondaryMode == NINE_BUTTON) ||
; 83   : 		(IsICPSet(ICPClass::MODE_LIST) && mICPSecondaryMode == 100) || //INTG
; 84   : 		(IsICPSet(ICPClass::MODE_LIST) && mICPSecondaryMode == SIX_BUTTON) || //INS
; 85   : 		IsICPSet(ICPClass::MODE_IFF) || (IsICPSet(ICPClass::MISC_MODE) && 
; 86   : 			mICPSecondaryMode == FIFE_BUTTON))

	push	128					; 00000080H
	mov	ecx, DWORD PTR _this$[ebp]
	call	?IsICPSet@ICPClass@@QAEHH@Z		; ICPClass::IsICPSet
	test	eax, eax
	je	SHORT $LN24@ManualInpu
	mov	edx, DWORD PTR _this$[ebp]
	cmp	DWORD PTR [edx+12], 4
	jne	SHORT $LN24@ManualInpu
	mov	eax, DWORD PTR _this$[ebp]
	cmp	DWORD PTR [eax+296], 0
	je	$LN25@ManualInpu
$LN24@ManualInpu:
	push	128					; 00000080H
	mov	ecx, DWORD PTR _this$[ebp]
	call	?IsICPSet@ICPClass@@QAEHH@Z		; ICPClass::IsICPSet
	test	eax, eax
	je	SHORT $LN23@ManualInpu
	mov	ecx, DWORD PTR _this$[ebp]
	cmp	DWORD PTR [ecx+12], 9
	je	$LN25@ManualInpu
$LN23@ManualInpu:
	push	128					; 00000080H
	mov	ecx, DWORD PTR _this$[ebp]
	call	?IsICPSet@ICPClass@@QAEHH@Z		; ICPClass::IsICPSet
	test	eax, eax
	je	SHORT $LN22@ManualInpu
	mov	edx, DWORD PTR _this$[ebp]
	cmp	DWORD PTR [edx+12], 1
	je	$LN25@ManualInpu
$LN22@ManualInpu:
	push	4
	mov	ecx, DWORD PTR _this$[ebp]
	call	?IsICPSet@ICPClass@@QAEHH@Z		; ICPClass::IsICPSet
	test	eax, eax
	je	SHORT $LN21@ManualInpu
	mov	eax, DWORD PTR _this$[ebp]
	cmp	DWORD PTR [eax+12], 4
	je	$LN25@ManualInpu
$LN21@ManualInpu:
	push	16384					; 00004000H
	mov	ecx, DWORD PTR _this$[ebp]
	call	?IsICPSet@ICPClass@@QAEHH@Z		; ICPClass::IsICPSet
	test	eax, eax
	jne	$LN25@ManualInpu
	push	32768					; 00008000H
	mov	ecx, DWORD PTR _this$[ebp]
	call	?IsICPSet@ICPClass@@QAEHH@Z		; ICPClass::IsICPSet
	test	eax, eax
	jne	$LN25@ManualInpu
	push	2048					; 00000800H
	mov	ecx, DWORD PTR _this$[ebp]
	call	?IsICPSet@ICPClass@@QAEHH@Z		; ICPClass::IsICPSet
	test	eax, eax
	jne	$LN25@ManualInpu
	push	1024					; 00000400H
	mov	ecx, DWORD PTR _this$[ebp]
	call	?IsICPSet@ICPClass@@QAEHH@Z		; ICPClass::IsICPSet
	test	eax, eax
	jne	$LN25@ManualInpu
	mov	ecx, DWORD PTR _this$[ebp]
	movzx	edx, BYTE PTR [ecx+496]
	test	edx, edx
	jne	$LN25@ManualInpu
	mov	eax, DWORD PTR _this$[ebp]
	movzx	ecx, BYTE PTR [eax+497]
	test	ecx, ecx
	jne	$LN25@ManualInpu
	mov	edx, DWORD PTR _this$[ebp]
	movzx	eax, BYTE PTR [edx+498]
	test	eax, eax
	jne	$LN25@ManualInpu
	mov	ecx, DWORD PTR _this$[ebp]
	movzx	edx, BYTE PTR [ecx+499]
	test	edx, edx
	jne	$LN25@ManualInpu
	mov	eax, DWORD PTR _this$[ebp]
	movzx	ecx, BYTE PTR [eax+429]
	test	ecx, ecx
	jne	$LN25@ManualInpu
	mov	edx, DWORD PTR _this$[ebp]
	movzx	eax, BYTE PTR [edx+430]
	test	eax, eax
	jne	$LN25@ManualInpu
	push	4
	mov	ecx, DWORD PTR _this$[ebp]
	call	?IsICPSet@ICPClass@@QAEHH@Z		; ICPClass::IsICPSet
	test	eax, eax
	je	SHORT $LN20@ManualInpu
	mov	ecx, DWORD PTR _this$[ebp]
	cmp	DWORD PTR [ecx+12], 9
	je	$LN25@ManualInpu
$LN20@ManualInpu:
	push	4
	mov	ecx, DWORD PTR _this$[ebp]
	call	?IsICPSet@ICPClass@@QAEHH@Z		; ICPClass::IsICPSet
	test	eax, eax
	je	SHORT $LN19@ManualInpu
	mov	edx, DWORD PTR _this$[ebp]
	cmp	DWORD PTR [edx+12], 22			; 00000016H
	je	$LN25@ManualInpu
$LN19@ManualInpu:
	push	4
	mov	ecx, DWORD PTR _this$[ebp]
	call	?IsICPSet@ICPClass@@QAEHH@Z		; ICPClass::IsICPSet
	test	eax, eax
	je	SHORT $LN18@ManualInpu
	mov	eax, DWORD PTR _this$[ebp]
	cmp	DWORD PTR [eax+12], 5
	je	SHORT $LN25@ManualInpu
$LN18@ManualInpu:
	push	4
	mov	ecx, DWORD PTR _this$[ebp]
	call	?IsICPSet@ICPClass@@QAEHH@Z		; ICPClass::IsICPSet
	test	eax, eax
	je	SHORT $LN17@ManualInpu
	mov	ecx, DWORD PTR _this$[ebp]
	cmp	DWORD PTR [ecx+12], 25			; 00000019H
	je	SHORT $LN25@ManualInpu
$LN17@ManualInpu:
	push	4
	mov	ecx, DWORD PTR _this$[ebp]
	call	?IsICPSet@ICPClass@@QAEHH@Z		; ICPClass::IsICPSet
	test	eax, eax
	je	SHORT $LN16@ManualInpu
	mov	edx, DWORD PTR _this$[ebp]
	cmp	DWORD PTR [edx+12], 100			; 00000064H
	je	SHORT $LN25@ManualInpu
$LN16@ManualInpu:
	push	4
	mov	ecx, DWORD PTR _this$[ebp]
	call	?IsICPSet@ICPClass@@QAEHH@Z		; ICPClass::IsICPSet
	test	eax, eax
	je	SHORT $LN15@ManualInpu
	mov	eax, DWORD PTR _this$[ebp]
	cmp	DWORD PTR [eax+12], 23			; 00000017H
	je	SHORT $LN25@ManualInpu
$LN15@ManualInpu:
	push	16					; 00000010H
	mov	ecx, DWORD PTR _this$[ebp]
	call	?IsICPSet@ICPClass@@QAEHH@Z		; ICPClass::IsICPSet
	test	eax, eax
	jne	SHORT $LN25@ManualInpu
	push	8
	mov	ecx, DWORD PTR _this$[ebp]
	call	?IsICPSet@ICPClass@@QAEHH@Z		; ICPClass::IsICPSet
	test	eax, eax
	je	$LN26@ManualInpu
	mov	ecx, DWORD PTR _this$[ebp]
	cmp	DWORD PTR [ecx+12], 5
	jne	$LN26@ManualInpu
$LN25@ManualInpu:

; 87   : 	{
; 88   : 		if(OA1 && OA_BRG)

	mov	edx, DWORD PTR _this$[ebp]
	movzx	eax, BYTE PTR [edx+429]
	test	eax, eax
	je	SHORT $LN14@ManualInpu
	mov	ecx, DWORD PTR _this$[ebp]
	movzx	edx, BYTE PTR [ecx+669]
	test	edx, edx
	je	SHORT $LN14@ManualInpu

; 89   : 			tempvar1 = fOA_BRG;

	mov	eax, DWORD PTR _this$[ebp]
	mov	ecx, DWORD PTR _this$[ebp]
	mov	edx, DWORD PTR [ecx+688]
	mov	DWORD PTR [eax+740], edx
	jmp	SHORT $LN12@ManualInpu
$LN14@ManualInpu:

; 90   : 		else if(OA2 && OA_BRG)

	mov	eax, DWORD PTR _this$[ebp]
	movzx	ecx, BYTE PTR [eax+430]
	test	ecx, ecx
	je	SHORT $LN12@ManualInpu
	mov	edx, DWORD PTR _this$[ebp]
	movzx	eax, BYTE PTR [edx+669]
	test	eax, eax
	je	SHORT $LN12@ManualInpu

; 91   : 			tempvar1 = fOA_BRG2;

	mov	ecx, DWORD PTR _this$[ebp]
	mov	edx, DWORD PTR _this$[ebp]
	mov	eax, DWORD PTR [edx+692]
	mov	DWORD PTR [ecx+740], eax
$LN12@ManualInpu:

; 92   : 		if(VIP_BRG)

	mov	ecx, DWORD PTR _this$[ebp]
	movzx	edx, BYTE PTR [ecx+697]
	test	edx, edx
	je	SHORT $LN11@ManualInpu

; 93   : 			tempvar1 = fVIP_BRG;

	mov	eax, DWORD PTR _this$[ebp]
	mov	ecx, DWORD PTR _this$[ebp]
	mov	edx, DWORD PTR [ecx+708]
	mov	DWORD PTR [eax+740], edx
$LN11@ManualInpu:

; 94   : 		if(VRP_BRG)

	mov	eax, DWORD PTR _this$[ebp]
	movzx	ecx, BYTE PTR [eax+713]
	test	ecx, ecx
	je	SHORT $LN10@ManualInpu

; 95   : 			tempvar1 = VRP_BRG;

	mov	edx, DWORD PTR _this$[ebp]
	movzx	eax, BYTE PTR [edx+713]
	cvtsi2ss xmm0, eax
	mov	ecx, DWORD PTR _this$[ebp]
	movss	DWORD PTR [ecx+740], xmm0
$LN10@ManualInpu:

; 96   : 		if(PGMChaff)

	mov	edx, DWORD PTR _this$[ebp]
	movzx	eax, BYTE PTR [edx+481]
	test	eax, eax
	je	SHORT $LN6@ManualInpu

; 97   : 		{
; 98   : 			if(BI)

	mov	ecx, DWORD PTR _this$[ebp]
	movzx	edx, BYTE PTR [ecx+497]
	test	edx, edx
	je	SHORT $LN8@ManualInpu

; 99   : 				tempvar1 = fCHAFF_BI[CPI];

	mov	eax, DWORD PTR _this$[ebp]
	mov	ecx, DWORD PTR [eax+660]
	mov	edx, DWORD PTR _this$[ebp]
	mov	eax, DWORD PTR _this$[ebp]
	mov	ecx, DWORD PTR [eax+ecx*4+580]
	mov	DWORD PTR [edx+740], ecx
	jmp	SHORT $LN6@ManualInpu
$LN8@ManualInpu:

; 100  : 			else if(SI)

	mov	edx, DWORD PTR _this$[ebp]
	movzx	eax, BYTE PTR [edx+499]
	test	eax, eax
	je	SHORT $LN6@ManualInpu

; 101  : 				tempvar1 = fCHAFF_SI[CPI];

	mov	ecx, DWORD PTR _this$[ebp]
	mov	edx, DWORD PTR [ecx+660]
	mov	eax, DWORD PTR _this$[ebp]
	mov	ecx, DWORD PTR _this$[ebp]
	mov	edx, DWORD PTR [ecx+edx*4+600]
	mov	DWORD PTR [eax+740], edx
$LN6@ManualInpu:

; 102  : 		}
; 103  : 		if(PGMFlare)

	mov	eax, DWORD PTR _this$[ebp]
	movzx	ecx, BYTE PTR [eax+482]
	test	ecx, ecx
	je	SHORT $LN2@ManualInpu

; 104  : 		{
; 105  : 			if(BI)

	mov	edx, DWORD PTR _this$[ebp]
	movzx	eax, BYTE PTR [edx+497]
	test	eax, eax
	je	SHORT $LN4@ManualInpu

; 106  : 				tempvar1 = fFLARE_BI[FPI];

	mov	ecx, DWORD PTR _this$[ebp]
	mov	edx, DWORD PTR [ecx+664]
	mov	eax, DWORD PTR _this$[ebp]
	mov	ecx, DWORD PTR _this$[ebp]
	mov	edx, DWORD PTR [ecx+edx*4+620]
	mov	DWORD PTR [eax+740], edx
	jmp	SHORT $LN2@ManualInpu
$LN4@ManualInpu:

; 107  : 			else if(SI)

	mov	eax, DWORD PTR _this$[ebp]
	movzx	ecx, BYTE PTR [eax+499]
	test	ecx, ecx
	je	SHORT $LN2@ManualInpu

; 108  : 				tempvar1 = fFLARE_SI[FPI];

	mov	edx, DWORD PTR _this$[ebp]
	mov	eax, DWORD PTR [edx+664]
	mov	ecx, DWORD PTR _this$[ebp]
	mov	edx, DWORD PTR _this$[ebp]
	mov	eax, DWORD PTR [edx+eax*4+640]
	mov	DWORD PTR [ecx+740], eax
$LN2@ManualInpu:

; 109  : 		}
; 110  : 
; 111  : 		return TRUE;

	mov	eax, 1
	jmp	SHORT $LN1@ManualInpu

; 112  : 	}
; 113  : 	else

	jmp	SHORT $LN1@ManualInpu
$LN26@ManualInpu:

; 114  : 		return FALSE;

	xor	eax, eax
$LN1@ManualInpu:

; 115  : }

	mov	esp, ebp
	pop	ebp
	ret	0
?ManualInput@ICPClass@@QAEHXZ ENDP			; ICPClass::ManualInput
_TEXT	ENDS
; Function compile flags: /Odtp
; File c:\users\zhitao li\documents\visual studio 2012\projects\freefalcon\sim\icp\icpmiscfuncs.cpp
_TEXT	SEGMENT
tv78 = -12						; size = 4
_playerAC$ = -8						; size = 4
_this$ = -4						; size = 4
_LastMode$ = 8						; size = 4
?PushedSame@ICPClass@@QAEXH@Z PROC			; ICPClass::PushedSame
; _this$ = ecx

; 17   : {

	push	ebp
	mov	ebp, esp
	sub	esp, 12					; 0000000cH
	mov	DWORD PTR _this$[ebp], ecx

; 18   : 	AircraftClass *playerAC = SimDriver.GetPlayerAircraft();

	mov	ecx, OFFSET ?SimDriver@@3VSimulationDriver@@A ; SimDriver
	call	?GetPlayerAircraft@SimulationDriver@@QBEPAVAircraftClass@@XZ ; SimulationDriver::GetPlayerAircraft
	mov	DWORD PTR _playerAC$[ebp], eax

; 19   : 	ClearStrings();

	mov	ecx, DWORD PTR _this$[ebp]
	call	?ClearStrings@ICPClass@@QAEXXZ		; ICPClass::ClearStrings

; 20   : 	ClearFlags();

	mov	ecx, DWORD PTR _this$[ebp]
	call	?ClearFlags@ICPClass@@QAEXXZ		; ICPClass::ClearFlags

; 21   : 	ResetSubPages();

	mov	ecx, DWORD PTR _this$[ebp]
	call	?ResetSubPages@ICPClass@@QAEXXZ		; ICPClass::ResetSubPages

; 22   : 	Manual_Input = FALSE;

	mov	eax, DWORD PTR _this$[ebp]
	mov	BYTE PTR [eax+732], 0

; 23   : 	ClearCount = 0;

	mov	ecx, DWORD PTR _this$[ebp]
	mov	DWORD PTR [ecx+1488], 0

; 24   : 	InputsMade = 0;

	mov	edx, DWORD PTR _this$[ebp]
	mov	DWORD PTR [edx+744], 0

; 25   : 	MadeInput = FALSE;

	mov	eax, DWORD PTR _this$[ebp]
	mov	BYTE PTR [eax+1500], 0

; 26   : 	playerAC->FCC->SetStptMode(FireControlComputer::FCCWaypoint);

	push	0
	mov	ecx, DWORD PTR _playerAC$[ebp]
	mov	ecx, DWORD PTR [ecx+936]
	call	?SetStptMode@FireControlComputer@@QAEXW4FCCStptMode@1@@Z ; FireControlComputer::SetStptMode

; 27   : 	playerAC->FCC->waypointStepCmd = 127;

	mov	edx, DWORD PTR _playerAC$[ebp]
	mov	eax, DWORD PTR [edx+936]
	mov	BYTE PTR [eax+194], 127			; 0000007fH

; 28   : 	switch (LastMode)

	mov	ecx, DWORD PTR _LastMode$[ebp]
	mov	DWORD PTR tv78[ebp], ecx
	cmp	DWORD PTR tv78[ebp], 27			; 0000001bH
	ja	$LN10@PushedSame
	mov	edx, DWORD PTR tv78[ebp]
	movzx	eax, BYTE PTR $LN12@PushedSame[edx]
	jmp	DWORD PTR $LN13@PushedSame[eax*4]
$LN7@PushedSame:

; 29   : 	{
; 30   : 	case NONE_MODE:
; 31   : 		mICPTertiaryMode = CNI_MODE;

	mov	ecx, DWORD PTR _this$[ebp]
	mov	DWORD PTR [ecx+16], 27			; 0000001bH

; 32   : 		SetICPFlag(ICPClass::MODE_CNI);

	push	128					; 00000080H
	mov	ecx, DWORD PTR _this$[ebp]
	call	?SetICPFlag@ICPClass@@QAEXH@Z		; ICPClass::SetICPFlag

; 33   : 		SetICPFlag(ICPClass::EDIT_STPT);

	push	1048576					; 00100000H
	mov	ecx, DWORD PTR _this$[ebp]
	call	?SetICPFlag@ICPClass@@QAEXH@Z		; ICPClass::SetICPFlag

; 34   : 		ExecCNIMode();

	mov	ecx, DWORD PTR _this$[ebp]
	call	?ExecCNIMode@ICPClass@@QAEXXZ		; ICPClass::ExecCNIMode

; 35   : 		break;

	jmp	$LN10@PushedSame
$LN6@PushedSame:

; 36   : 	case CNI_MODE:
; 37   : 		mICPTertiaryMode = CNI_MODE;

	mov	edx, DWORD PTR _this$[ebp]
	mov	DWORD PTR [edx+16], 27			; 0000001bH

; 38   : 		SetICPFlag(ICPClass::MODE_CNI);

	push	128					; 00000080H
	mov	ecx, DWORD PTR _this$[ebp]
	call	?SetICPFlag@ICPClass@@QAEXH@Z		; ICPClass::SetICPFlag

; 39   : 		SetICPFlag(ICPClass::EDIT_STPT);

	push	1048576					; 00100000H
	mov	ecx, DWORD PTR _this$[ebp]
	call	?SetICPFlag@ICPClass@@QAEXH@Z		; ICPClass::SetICPFlag

; 40   : 		ExecCNIMode();

	mov	ecx, DWORD PTR _this$[ebp]
	call	?ExecCNIMode@ICPClass@@QAEXXZ		; ICPClass::ExecCNIMode

; 41   : 		break;

	jmp	$LN10@PushedSame
$LN5@PushedSame:

; 42   : 	case COMM1_MODE:
; 43   : 		mICPTertiaryMode = COMM1_MODE;

	mov	eax, DWORD PTR _this$[ebp]
	mov	DWORD PTR [eax+16], 6

; 44   : 		SetICPFlag(ICPClass::MODE_COMM1);

	push	32					; 00000020H
	mov	ecx, DWORD PTR _this$[ebp]
	call	?SetICPFlag@ICPClass@@QAEXH@Z		; ICPClass::SetICPFlag

; 45   : 		ExecCOMM1Mode();

	mov	ecx, DWORD PTR _this$[ebp]
	call	?ExecCOMM1Mode@ICPClass@@QAEXXZ		; ICPClass::ExecCOMM1Mode

; 46   : 		break;

	jmp	SHORT $LN10@PushedSame
$LN4@PushedSame:

; 47   : 	case COMM2_MODE:
; 48   : 		mICPTertiaryMode = COMM2_MODE;

	mov	ecx, DWORD PTR _this$[ebp]
	mov	DWORD PTR [ecx+16], 7

; 49   : 		SetICPFlag(ICPClass::MODE_COMM2);

	push	64					; 00000040H
	mov	ecx, DWORD PTR _this$[ebp]
	call	?SetICPFlag@ICPClass@@QAEXH@Z		; ICPClass::SetICPFlag

; 50   : 		ExecCOMM2Mode();

	mov	ecx, DWORD PTR _this$[ebp]
	call	?ExecCOMM2Mode@ICPClass@@QAEXXZ		; ICPClass::ExecCOMM2Mode

; 51   : 		break;

	jmp	SHORT $LN10@PushedSame
$LN3@PushedSame:

; 52   : 	case LIST_MODE:
; 53   : 		mICPTertiaryMode = LIST_MODE;

	mov	edx, DWORD PTR _this$[ebp]
	mov	DWORD PTR [edx+16], 21			; 00000015H

; 54   : 		SetICPFlag(ICPClass::MODE_LIST);

	push	4
	mov	ecx, DWORD PTR _this$[ebp]
	call	?SetICPFlag@ICPClass@@QAEXH@Z		; ICPClass::SetICPFlag

; 55   : 		mICPSecondaryMode = 0;

	mov	eax, DWORD PTR _this$[ebp]
	mov	DWORD PTR [eax+12], 0

; 56   : 		ExecLISTMode();

	mov	ecx, DWORD PTR _this$[ebp]
	call	?ExecLISTMode@ICPClass@@QAEXXZ		; ICPClass::ExecLISTMode

; 57   : 		break;

	jmp	SHORT $LN10@PushedSame
$LN2@PushedSame:

; 58   : 	case IFF_MODE:
; 59   : 		mICPTertiaryMode = IFF_MODE;

	mov	ecx, DWORD PTR _this$[ebp]
	mov	DWORD PTR [ecx+16], 20			; 00000014H

; 60   : 		SetICPFlag(ICPClass::MODE_IFF);

	push	16					; 00000010H
	mov	ecx, DWORD PTR _this$[ebp]
	call	?SetICPFlag@ICPClass@@QAEXH@Z		; ICPClass::SetICPFlag

; 61   : 		ExecIFFMode();

	mov	ecx, DWORD PTR _this$[ebp]
	call	?ExecIFFMode@ICPClass@@QAEXXZ		; ICPClass::ExecIFFMode
$LN10@PushedSame:

; 62   : 		break;
; 63   : 	default:
; 64   : 		break;
; 65   : 	}
; 66   : }

	mov	esp, ebp
	pop	ebp
	ret	4
	npad	3
$LN13@PushedSame:
	DD	$LN7@PushedSame
	DD	$LN5@PushedSame
	DD	$LN4@PushedSame
	DD	$LN2@PushedSame
	DD	$LN3@PushedSame
	DD	$LN6@PushedSame
	DD	$LN10@PushedSame
$LN12@PushedSame:
	DB	0
	DB	6
	DB	6
	DB	6
	DB	6
	DB	6
	DB	1
	DB	2
	DB	6
	DB	6
	DB	6
	DB	6
	DB	6
	DB	6
	DB	6
	DB	6
	DB	6
	DB	6
	DB	6
	DB	6
	DB	3
	DB	4
	DB	6
	DB	6
	DB	6
	DB	6
	DB	6
	DB	5
?PushedSame@ICPClass@@QAEXH@Z ENDP			; ICPClass::PushedSame
_TEXT	ENDS
; Function compile flags: /Odtp
; File c:\users\zhitao li\documents\visual studio 2012\projects\freefalcon\sim\icp\icpmiscfuncs.cpp
_TEXT	SEGMENT
_playerAC$ = -8						; size = 4
_this$ = -4						; size = 4
?CheckMode@ICPClass@@QAEHXZ PROC			; ICPClass::CheckMode
; _this$ = ecx

; 117  : {

	push	ebp
	mov	ebp, esp
	sub	esp, 8
	mov	DWORD PTR _this$[ebp], ecx

; 118  : 	AircraftClass *playerAC = SimDriver.GetPlayerAircraft();

	mov	ecx, OFFSET ?SimDriver@@3VSimulationDriver@@A ; SimDriver
	call	?GetPlayerAircraft@SimulationDriver@@QBEPAVAircraftClass@@XZ ; SimulationDriver::GetPlayerAircraft
	mov	DWORD PTR _playerAC$[ebp], eax

; 119  : 	if((IsICPSet(ICPClass::MODE_CNI) && mICPSecondaryMode == FIFE_BUTTON) && !IsICPSet(ICPClass::BLOCK_MODE))

	push	128					; 00000080H
	mov	ecx, DWORD PTR _this$[ebp]
	call	?IsICPSet@ICPClass@@QAEHH@Z		; ICPClass::IsICPSet
	test	eax, eax
	je	SHORT $LN12@CheckMode
	mov	eax, DWORD PTR _this$[ebp]
	cmp	DWORD PTR [eax+12], 5
	jne	SHORT $LN12@CheckMode
	push	512					; 00000200H
	mov	ecx, DWORD PTR _this$[ebp]
	call	?IsICPSet@ICPClass@@QAEHH@Z		; ICPClass::IsICPSet
	test	eax, eax
	jne	SHORT $LN12@CheckMode

; 120  : 	{
; 121  : 		StepCruise();

	mov	ecx, DWORD PTR _this$[ebp]
	call	?StepCruise@ICPClass@@QAEXXZ		; ICPClass::StepCruise

; 122  : 		return TRUE;

	mov	eax, 1
	jmp	$LN13@CheckMode
$LN12@CheckMode:

; 123  : 	}
; 124  : 	if(IsICPSet(ICPClass::MODE_LIST) && mICPSecondaryMode == EWS_MODE && !EWSMain)

	push	4
	mov	ecx, DWORD PTR _this$[ebp]
	call	?IsICPSet@ICPClass@@QAEHH@Z		; ICPClass::IsICPSet
	test	eax, eax
	je	SHORT $LN11@CheckMode
	mov	ecx, DWORD PTR _this$[ebp]
	cmp	DWORD PTR [ecx+12], 55			; 00000037H
	jne	SHORT $LN11@CheckMode
	mov	edx, DWORD PTR _this$[ebp]
	movzx	eax, BYTE PTR [edx+480]
	test	eax, eax
	jne	SHORT $LN11@CheckMode

; 125  : 	{
; 126  : 		//you can only change progs if you're in STBY
; 127  : 		if(playerAC && 
; 128  : 			playerAC->EWSPGM() != AircraftClass::EWSPGMSwitch::Stby)

	cmp	DWORD PTR _playerAC$[ebp], 0
	je	SHORT $LN11@CheckMode
	mov	ecx, DWORD PTR _playerAC$[ebp]
	call	?EWSPGM@AircraftClass@@QAE?AW4EWSPGMSwitch@1@XZ ; AircraftClass::EWSPGM
	cmp	eax, 1
	je	SHORT $LN11@CheckMode

; 129  : 			return TRUE;

	mov	eax, 1
	jmp	$LN13@CheckMode
$LN11@CheckMode:

; 130  : 	}
; 131  : 	
; 132  : 	if(!g_bIFF)

	movzx	ecx, BYTE PTR ?g_bIFF@@3_NA		; g_bIFF
	test	ecx, ecx
	jne	$LN9@CheckMode

; 133  : 	{
; 134  : 		//Don't do anything for now when in COMM (temporary)/IFF/DLINK/FACK/MARK/INTG mode
; 135  : 		if(IsICPSet(ICPClass::MODE_COMM1) || IsICPSet(ICPClass::MODE_COMM2) ||
; 136  : 			IsICPSet(ICPClass::MODE_IFF) || IsICPSet(ICPClass::MODE_DLINK) ||
; 137  : 			IsICPSet(ICPClass::MODE_FACK) || IsICPSet(ICPClass::BLOCK_MODE) ||
; 138  : 			(IsICPSet(ICPClass::MODE_LIST) && mICPSecondaryMode == 100) ||	//INTG
; 139  : 			mICPSecondaryMode == MARK_MODE)

	push	32					; 00000020H
	mov	ecx, DWORD PTR _this$[ebp]
	call	?IsICPSet@ICPClass@@QAEHH@Z		; ICPClass::IsICPSet
	test	eax, eax
	jne	SHORT $LN7@CheckMode
	push	64					; 00000040H
	mov	ecx, DWORD PTR _this$[ebp]
	call	?IsICPSet@ICPClass@@QAEHH@Z		; ICPClass::IsICPSet
	test	eax, eax
	jne	SHORT $LN7@CheckMode
	push	16					; 00000010H
	mov	ecx, DWORD PTR _this$[ebp]
	call	?IsICPSet@ICPClass@@QAEHH@Z		; ICPClass::IsICPSet
	test	eax, eax
	jne	SHORT $LN7@CheckMode
	push	256					; 00000100H
	mov	ecx, DWORD PTR _this$[ebp]
	call	?IsICPSet@ICPClass@@QAEHH@Z		; ICPClass::IsICPSet
	test	eax, eax
	jne	SHORT $LN7@CheckMode
	push	8192					; 00002000H
	mov	ecx, DWORD PTR _this$[ebp]
	call	?IsICPSet@ICPClass@@QAEHH@Z		; ICPClass::IsICPSet
	test	eax, eax
	jne	SHORT $LN7@CheckMode
	push	512					; 00000200H
	mov	ecx, DWORD PTR _this$[ebp]
	call	?IsICPSet@ICPClass@@QAEHH@Z		; ICPClass::IsICPSet
	test	eax, eax
	jne	SHORT $LN7@CheckMode
	push	4
	mov	ecx, DWORD PTR _this$[ebp]
	call	?IsICPSet@ICPClass@@QAEHH@Z		; ICPClass::IsICPSet
	test	eax, eax
	je	SHORT $LN6@CheckMode
	mov	edx, DWORD PTR _this$[ebp]
	cmp	DWORD PTR [edx+12], 100			; 00000064H
	je	SHORT $LN7@CheckMode
$LN6@CheckMode:
	mov	eax, DWORD PTR _this$[ebp]
	cmp	DWORD PTR [eax+12], 3
	jne	SHORT $LN8@CheckMode
$LN7@CheckMode:

; 140  : 			return TRUE;

	mov	eax, 1
	jmp	SHORT $LN13@CheckMode

; 141  : 		else

	jmp	SHORT $LN5@CheckMode
$LN8@CheckMode:

; 142  : 			return FALSE;

	xor	eax, eax
	jmp	SHORT $LN13@CheckMode
$LN5@CheckMode:

; 143  : 	}
; 144  : 	else

	jmp	SHORT $LN13@CheckMode
$LN9@CheckMode:

; 145  : 	{
; 146  : 		//Don't do anything for now when in COMM (temporary)/IFF/DLINK/FACK/MARK/INTG mode
; 147  : 		if(IsICPSet(ICPClass::MODE_COMM1) || IsICPSet(ICPClass::MODE_COMM2) ||
; 148  : 			IsICPSet(ICPClass::MODE_DLINK) || IsICPSet(ICPClass::MODE_FACK) || 
; 149  : 			IsICPSet(ICPClass::BLOCK_MODE) ||
; 150  : 			mICPSecondaryMode == MARK_MODE)

	push	32					; 00000020H
	mov	ecx, DWORD PTR _this$[ebp]
	call	?IsICPSet@ICPClass@@QAEHH@Z		; ICPClass::IsICPSet
	test	eax, eax
	jne	SHORT $LN2@CheckMode
	push	64					; 00000040H
	mov	ecx, DWORD PTR _this$[ebp]
	call	?IsICPSet@ICPClass@@QAEHH@Z		; ICPClass::IsICPSet
	test	eax, eax
	jne	SHORT $LN2@CheckMode
	push	256					; 00000100H
	mov	ecx, DWORD PTR _this$[ebp]
	call	?IsICPSet@ICPClass@@QAEHH@Z		; ICPClass::IsICPSet
	test	eax, eax
	jne	SHORT $LN2@CheckMode
	push	8192					; 00002000H
	mov	ecx, DWORD PTR _this$[ebp]
	call	?IsICPSet@ICPClass@@QAEHH@Z		; ICPClass::IsICPSet
	test	eax, eax
	jne	SHORT $LN2@CheckMode
	push	512					; 00000200H
	mov	ecx, DWORD PTR _this$[ebp]
	call	?IsICPSet@ICPClass@@QAEHH@Z		; ICPClass::IsICPSet
	test	eax, eax
	jne	SHORT $LN2@CheckMode
	mov	ecx, DWORD PTR _this$[ebp]
	cmp	DWORD PTR [ecx+12], 3
	jne	SHORT $LN3@CheckMode
$LN2@CheckMode:

; 151  : 			return TRUE;

	mov	eax, 1
	jmp	SHORT $LN13@CheckMode

; 152  : 		else

	jmp	SHORT $LN13@CheckMode
$LN3@CheckMode:

; 153  : 			return FALSE;

	xor	eax, eax
$LN13@CheckMode:

; 154  : 	}
; 155  : }

	mov	esp, ebp
	pop	ebp
	ret	0
?CheckMode@ICPClass@@QAEHXZ ENDP			; ICPClass::CheckMode
_TEXT	ENDS
; Function compile flags: /Odtp
; File c:\users\zhitao li\documents\visual studio 2012\projects\freefalcon\sim\icp\icpmiscfuncs.cpp
_TEXT	SEGMENT
_this$ = -4						; size = 4
?ClearInput@ICPClass@@QAEXXZ PROC			; ICPClass::ClearInput
; _this$ = ecx

; 301  : {

	push	ebp
	mov	ebp, esp
	push	ecx
	mov	DWORD PTR _this$[ebp], ecx

; 302  : 	//Have we blocked our input?
; 303  : 	if(IsICPSet(ICPClass::BLOCK_MODE))

	push	512					; 00000200H
	mov	ecx, DWORD PTR _this$[ebp]
	call	?IsICPSet@ICPClass@@QAEHH@Z		; ICPClass::IsICPSet
	test	eax, eax
	je	$LN34@ClearInput

; 304  : 	{
; 305  : 		//Clear all our input flags
; 306  : 		ClearICPFlag(ICPClass::BLOCK_MODE);

	push	512					; 00000200H
	mov	ecx, DWORD PTR _this$[ebp]
	call	?ClearICPFlag@ICPClass@@QAEXH@Z		; ICPClass::ClearICPFlag

; 307  : 		ClearICPFlag(ICPClass::FLASH_FLAG);

	push	4096					; 00001000H
	mov	ecx, DWORD PTR _this$[ebp]
	call	?ClearICPFlag@ICPClass@@QAEXH@Z		; ICPClass::ClearICPFlag

; 308  : 		*tempstr = NULL;

	mov	eax, 1
	imul	eax, 0
	mov	ecx, DWORD PTR _this$[ebp]
	mov	BYTE PTR [ecx+eax+1024], 0

; 309  : 		InputsMade = 0;

	mov	edx, DWORD PTR _this$[ebp]
	mov	DWORD PTR [edx+744], 0

; 310  : 		ClearCount = 0;

	mov	eax, DWORD PTR _this$[ebp]
	mov	DWORD PTR [eax+1488], 0

; 311  : 		MadeInput = FALSE;

	mov	ecx, DWORD PTR _this$[ebp]
	mov	BYTE PTR [ecx+1500], 0

; 312  : 		ClearDigits();

	mov	ecx, DWORD PTR _this$[ebp]
	call	?ClearDigits@ICPClass@@QAEXXZ		; ICPClass::ClearDigits

; 313  : 		ClearStrings();

	mov	ecx, DWORD PTR _this$[ebp]
	call	?ClearStrings@ICPClass@@QAEXXZ		; ICPClass::ClearStrings

; 314  : 		ClearString();

	mov	ecx, DWORD PTR _this$[ebp]
	call	?ClearString@ICPClass@@QAEXXZ		; ICPClass::ClearString

; 315  : 		Manual_Input = FALSE;

	mov	edx, DWORD PTR _this$[ebp]
	mov	BYTE PTR [edx+732], 0

; 316  : 		if(OA_BRG)

	mov	eax, DWORD PTR _this$[ebp]
	movzx	ecx, BYTE PTR [eax+669]
	test	ecx, ecx
	je	SHORT $LN31@ClearInput

; 317  : 		{
; 318  : 			if(OA1)

	mov	edx, DWORD PTR _this$[ebp]
	movzx	eax, BYTE PTR [edx+429]
	test	eax, eax
	je	SHORT $LN32@ClearInput

; 319  : 				fOA_BRG = tempvar1;

	mov	ecx, DWORD PTR _this$[ebp]
	mov	edx, DWORD PTR _this$[ebp]
	mov	eax, DWORD PTR [edx+740]
	mov	DWORD PTR [ecx+688], eax

; 320  : 			else

	jmp	SHORT $LN31@ClearInput
$LN32@ClearInput:

; 321  : 				fOA_BRG2 = tempvar1;

	mov	ecx, DWORD PTR _this$[ebp]
	mov	edx, DWORD PTR _this$[ebp]
	mov	eax, DWORD PTR [edx+740]
	mov	DWORD PTR [ecx+692], eax
$LN31@ClearInput:

; 322  : 		}
; 323  : 		if(VIP_BRG || VRP_BRG)

	mov	ecx, DWORD PTR _this$[ebp]
	movzx	edx, BYTE PTR [ecx+697]
	test	edx, edx
	jne	SHORT $LN29@ClearInput
	mov	eax, DWORD PTR _this$[ebp]
	movzx	ecx, BYTE PTR [eax+713]
	test	ecx, ecx
	je	SHORT $LN27@ClearInput
$LN29@ClearInput:

; 324  : 		{
; 325  : 			if(VIP_BRG)

	mov	edx, DWORD PTR _this$[ebp]
	movzx	eax, BYTE PTR [edx+697]
	test	eax, eax
	je	SHORT $LN28@ClearInput

; 326  : 				fVIP_BRG = tempvar1;

	mov	ecx, DWORD PTR _this$[ebp]
	mov	edx, DWORD PTR _this$[ebp]
	mov	eax, DWORD PTR [edx+740]
	mov	DWORD PTR [ecx+708], eax

; 327  : 			else

	jmp	SHORT $LN27@ClearInput
$LN28@ClearInput:

; 328  : 				fVRP_BRG = tempvar1;

	mov	ecx, DWORD PTR _this$[ebp]
	mov	edx, DWORD PTR _this$[ebp]
	mov	eax, DWORD PTR [edx+740]
	mov	DWORD PTR [ecx+724], eax
$LN27@ClearInput:

; 329  : 		}
; 330  : 		if(PGMChaff)

	mov	ecx, DWORD PTR _this$[ebp]
	movzx	edx, BYTE PTR [ecx+481]
	test	edx, edx
	je	SHORT $LN23@ClearInput

; 331  : 		{
; 332  : 			if(BI)

	mov	eax, DWORD PTR _this$[ebp]
	movzx	ecx, BYTE PTR [eax+497]
	test	ecx, ecx
	je	SHORT $LN25@ClearInput

; 333  : 				fCHAFF_BI[CPI] = tempvar1;

	mov	edx, DWORD PTR _this$[ebp]
	mov	eax, DWORD PTR [edx+660]
	mov	ecx, DWORD PTR _this$[ebp]
	mov	edx, DWORD PTR _this$[ebp]
	mov	edx, DWORD PTR [edx+740]
	mov	DWORD PTR [ecx+eax*4+580], edx
	jmp	SHORT $LN23@ClearInput
$LN25@ClearInput:

; 334  : 			else if(SI)

	mov	eax, DWORD PTR _this$[ebp]
	movzx	ecx, BYTE PTR [eax+499]
	test	ecx, ecx
	je	SHORT $LN23@ClearInput

; 335  : 				fCHAFF_SI[CPI] = tempvar1;

	mov	edx, DWORD PTR _this$[ebp]
	mov	eax, DWORD PTR [edx+660]
	mov	ecx, DWORD PTR _this$[ebp]
	mov	edx, DWORD PTR _this$[ebp]
	mov	edx, DWORD PTR [edx+740]
	mov	DWORD PTR [ecx+eax*4+600], edx
$LN23@ClearInput:

; 336  : 		}
; 337  : 		if(PGMFlare)

	mov	eax, DWORD PTR _this$[ebp]
	movzx	ecx, BYTE PTR [eax+482]
	test	ecx, ecx
	je	SHORT $LN19@ClearInput

; 338  : 		{
; 339  : 			if(BI)

	mov	edx, DWORD PTR _this$[ebp]
	movzx	eax, BYTE PTR [edx+497]
	test	eax, eax
	je	SHORT $LN21@ClearInput

; 340  : 				fFLARE_BI[FPI] = tempvar1;

	mov	ecx, DWORD PTR _this$[ebp]
	mov	edx, DWORD PTR [ecx+664]
	mov	eax, DWORD PTR _this$[ebp]
	mov	ecx, DWORD PTR _this$[ebp]
	mov	ecx, DWORD PTR [ecx+740]
	mov	DWORD PTR [eax+edx*4+620], ecx
	jmp	SHORT $LN19@ClearInput
$LN21@ClearInput:

; 341  : 			else if (SI)

	mov	edx, DWORD PTR _this$[ebp]
	movzx	eax, BYTE PTR [edx+499]
	test	eax, eax
	je	SHORT $LN19@ClearInput

; 342  : 				fFLARE_SI[FPI] = tempvar1;

	mov	ecx, DWORD PTR _this$[ebp]
	mov	edx, DWORD PTR [ecx+664]
	mov	eax, DWORD PTR _this$[ebp]
	mov	ecx, DWORD PTR _this$[ebp]
	mov	ecx, DWORD PTR [ecx+740]
	mov	DWORD PTR [eax+edx*4+640], ecx
$LN19@ClearInput:

; 343  : 		}
; 344  : 		return;

	jmp	$LN35@ClearInput
$LN34@ClearInput:

; 345  : 	}
; 346  : 	
; 347  : 	ClearCount ++;

	mov	edx, DWORD PTR _this$[ebp]
	mov	eax, DWORD PTR [edx+1488]
	add	eax, 1
	mov	ecx, DWORD PTR _this$[ebp]
	mov	DWORD PTR [ecx+1488], eax

; 348  : 
; 349  : 	if(ClearCount == 2 || InputsMade == 1)

	mov	edx, DWORD PTR _this$[ebp]
	cmp	DWORD PTR [edx+1488], 2
	je	SHORT $LN17@ClearInput
	mov	eax, DWORD PTR _this$[ebp]
	cmp	DWORD PTR [eax+744], 1
	jne	$LN18@ClearInput
$LN17@ClearInput:

; 350  : 	{
; 351  : 		//Clear it all here, unset flags
; 352  : 		ClearCount = 0;

	mov	ecx, DWORD PTR _this$[ebp]
	mov	DWORD PTR [ecx+1488], 0

; 353  : 		ClearICPFlag(ICPClass::BLOCK_MODE);

	push	512					; 00000200H
	mov	ecx, DWORD PTR _this$[ebp]
	call	?ClearICPFlag@ICPClass@@QAEXH@Z		; ICPClass::ClearICPFlag

; 354  : 		ClearICPFlag(ICPClass::FLASH_FLAG);

	push	4096					; 00001000H
	mov	ecx, DWORD PTR _this$[ebp]
	call	?ClearICPFlag@ICPClass@@QAEXH@Z		; ICPClass::ClearICPFlag

; 355  : 		ClearString();

	mov	ecx, DWORD PTR _this$[ebp]
	call	?ClearString@ICPClass@@QAEXXZ		; ICPClass::ClearString

; 356  : 		ClearStrings();

	mov	ecx, DWORD PTR _this$[ebp]
	call	?ClearStrings@ICPClass@@QAEXXZ		; ICPClass::ClearStrings

; 357  : 		ClearDigits();

	mov	ecx, DWORD PTR _this$[ebp]
	call	?ClearDigits@ICPClass@@QAEXXZ		; ICPClass::ClearDigits

; 358  : 		Manual_Input = FALSE;

	mov	edx, DWORD PTR _this$[ebp]
	mov	BYTE PTR [edx+732], 0

; 359  : 		MadeInput = FALSE;

	mov	eax, DWORD PTR _this$[ebp]
	mov	BYTE PTR [eax+1500], 0

; 360  : 		InputsMade = 0;

	mov	ecx, DWORD PTR _this$[ebp]
	mov	DWORD PTR [ecx+744], 0

; 361  : 		if(OA_BRG)

	mov	edx, DWORD PTR _this$[ebp]
	movzx	eax, BYTE PTR [edx+669]
	test	eax, eax
	je	SHORT $LN14@ClearInput

; 362  : 		{
; 363  : 			if(OA1)

	mov	ecx, DWORD PTR _this$[ebp]
	movzx	edx, BYTE PTR [ecx+429]
	test	edx, edx
	je	SHORT $LN15@ClearInput

; 364  : 				fOA_BRG = tempvar1;

	mov	eax, DWORD PTR _this$[ebp]
	mov	ecx, DWORD PTR _this$[ebp]
	mov	edx, DWORD PTR [ecx+740]
	mov	DWORD PTR [eax+688], edx

; 365  : 			else

	jmp	SHORT $LN14@ClearInput
$LN15@ClearInput:

; 366  : 				fOA_BRG2 = tempvar1;

	mov	eax, DWORD PTR _this$[ebp]
	mov	ecx, DWORD PTR _this$[ebp]
	mov	edx, DWORD PTR [ecx+740]
	mov	DWORD PTR [eax+692], edx
$LN14@ClearInput:

; 367  : 		}
; 368  : 		if(VIP_BRG || VRP_BRG)

	mov	eax, DWORD PTR _this$[ebp]
	movzx	ecx, BYTE PTR [eax+697]
	test	ecx, ecx
	jne	SHORT $LN12@ClearInput
	mov	edx, DWORD PTR _this$[ebp]
	movzx	eax, BYTE PTR [edx+713]
	test	eax, eax
	je	SHORT $LN10@ClearInput
$LN12@ClearInput:

; 369  : 		{
; 370  : 			if(VIP_BRG)

	mov	ecx, DWORD PTR _this$[ebp]
	movzx	edx, BYTE PTR [ecx+697]
	test	edx, edx
	je	SHORT $LN11@ClearInput

; 371  : 				fVIP_BRG = tempvar1;

	mov	eax, DWORD PTR _this$[ebp]
	mov	ecx, DWORD PTR _this$[ebp]
	mov	edx, DWORD PTR [ecx+740]
	mov	DWORD PTR [eax+708], edx

; 372  : 			else

	jmp	SHORT $LN10@ClearInput
$LN11@ClearInput:

; 373  : 				fVRP_BRG = tempvar1;

	mov	eax, DWORD PTR _this$[ebp]
	mov	ecx, DWORD PTR _this$[ebp]
	mov	edx, DWORD PTR [ecx+740]
	mov	DWORD PTR [eax+724], edx
$LN10@ClearInput:

; 374  : 		}
; 375  : 		if(PGMChaff)

	mov	eax, DWORD PTR _this$[ebp]
	movzx	ecx, BYTE PTR [eax+481]
	test	ecx, ecx
	je	SHORT $LN6@ClearInput

; 376  : 		{
; 377  : 			if(BI)

	mov	edx, DWORD PTR _this$[ebp]
	movzx	eax, BYTE PTR [edx+497]
	test	eax, eax
	je	SHORT $LN8@ClearInput

; 378  : 				fCHAFF_BI[CPI] = tempvar1;

	mov	ecx, DWORD PTR _this$[ebp]
	mov	edx, DWORD PTR [ecx+660]
	mov	eax, DWORD PTR _this$[ebp]
	mov	ecx, DWORD PTR _this$[ebp]
	mov	ecx, DWORD PTR [ecx+740]
	mov	DWORD PTR [eax+edx*4+580], ecx
	jmp	SHORT $LN6@ClearInput
$LN8@ClearInput:

; 379  : 			else if(SI)

	mov	edx, DWORD PTR _this$[ebp]
	movzx	eax, BYTE PTR [edx+499]
	test	eax, eax
	je	SHORT $LN6@ClearInput

; 380  : 				fCHAFF_SI[CPI] = tempvar1;

	mov	ecx, DWORD PTR _this$[ebp]
	mov	edx, DWORD PTR [ecx+660]
	mov	eax, DWORD PTR _this$[ebp]
	mov	ecx, DWORD PTR _this$[ebp]
	mov	ecx, DWORD PTR [ecx+740]
	mov	DWORD PTR [eax+edx*4+600], ecx
$LN6@ClearInput:

; 381  : 		}
; 382  : 		if(PGMFlare)

	mov	edx, DWORD PTR _this$[ebp]
	movzx	eax, BYTE PTR [edx+482]
	test	eax, eax
	je	SHORT $LN2@ClearInput

; 383  : 		{
; 384  : 			if(BI)

	mov	ecx, DWORD PTR _this$[ebp]
	movzx	edx, BYTE PTR [ecx+497]
	test	edx, edx
	je	SHORT $LN4@ClearInput

; 385  : 				fFLARE_BI[FPI] = tempvar1;

	mov	eax, DWORD PTR _this$[ebp]
	mov	ecx, DWORD PTR [eax+664]
	mov	edx, DWORD PTR _this$[ebp]
	mov	eax, DWORD PTR _this$[ebp]
	mov	eax, DWORD PTR [eax+740]
	mov	DWORD PTR [edx+ecx*4+620], eax
	jmp	SHORT $LN2@ClearInput
$LN4@ClearInput:

; 386  : 			else if (SI)

	mov	ecx, DWORD PTR _this$[ebp]
	movzx	edx, BYTE PTR [ecx+499]
	test	edx, edx
	je	SHORT $LN2@ClearInput

; 387  : 				fFLARE_SI[FPI] = tempvar1;

	mov	eax, DWORD PTR _this$[ebp]
	mov	ecx, DWORD PTR [eax+664]
	mov	edx, DWORD PTR _this$[ebp]
	mov	eax, DWORD PTR _this$[ebp]
	mov	eax, DWORD PTR [eax+740]
	mov	DWORD PTR [edx+ecx*4+640], eax
$LN2@ClearInput:

; 388  : 		}
; 389  : 	}
; 390  : 	else

	jmp	$LN1@ClearInput
$LN18@ClearInput:

; 391  : 	{
; 392  : 		Input_Digit7 = Input_Digit6;

	mov	ecx, DWORD PTR _this$[ebp]
	mov	edx, DWORD PTR _this$[ebp]
	mov	eax, DWORD PTR [edx+1432]
	mov	DWORD PTR [ecx+1436], eax

; 393  : 		Input_Digit6 = Input_Digit5;

	mov	ecx, DWORD PTR _this$[ebp]
	mov	edx, DWORD PTR _this$[ebp]
	mov	eax, DWORD PTR [edx+1428]
	mov	DWORD PTR [ecx+1432], eax

; 394  : 		Input_Digit5 = Input_Digit4;

	mov	ecx, DWORD PTR _this$[ebp]
	mov	edx, DWORD PTR _this$[ebp]
	mov	eax, DWORD PTR [edx+1424]
	mov	DWORD PTR [ecx+1428], eax

; 395  : 		Input_Digit4 = Input_Digit3;

	mov	ecx, DWORD PTR _this$[ebp]
	mov	edx, DWORD PTR _this$[ebp]
	mov	eax, DWORD PTR [edx+1420]
	mov	DWORD PTR [ecx+1424], eax

; 396  : 		Input_Digit3 = Input_Digit2;

	mov	ecx, DWORD PTR _this$[ebp]
	mov	edx, DWORD PTR _this$[ebp]
	mov	eax, DWORD PTR [edx+1416]
	mov	DWORD PTR [ecx+1420], eax

; 397  : 		Input_Digit2 = Input_Digit1;

	mov	ecx, DWORD PTR _this$[ebp]
	mov	edx, DWORD PTR _this$[ebp]
	mov	eax, DWORD PTR [edx+1412]
	mov	DWORD PTR [ecx+1416], eax

; 398  : 		InputsMade --;

	mov	ecx, DWORD PTR _this$[ebp]
	mov	edx, DWORD PTR [ecx+744]
	sub	edx, 1
	mov	eax, DWORD PTR _this$[ebp]
	mov	DWORD PTR [eax+744], edx
$LN1@ClearInput:
$LN35@ClearInput:

; 399  : 	}
; 400  : }

	mov	esp, ebp
	pop	ebp
	ret	0
?ClearInput@ICPClass@@QAEXXZ ENDP			; ICPClass::ClearInput
_TEXT	ENDS
; Function compile flags: /Odtp
; File c:\users\zhitao li\documents\visual studio 2012\projects\freefalcon\sim\icp\icpmiscfuncs.cpp
_TEXT	SEGMENT
tv260 = -8						; size = 4
_this$ = -4						; size = 4
_button$ = 8						; size = 4
?HandleManualInput@ICPClass@@QAEXH@Z PROC		; ICPClass::HandleManualInput
; _this$ = ecx

; 157  : {

	push	ebp
	mov	ebp, esp
	sub	esp, 8
	mov	DWORD PTR _this$[ebp], ecx

; 158  : 	//If we blocked our input, return
; 159  : 	if(IsICPSet(ICPClass::BLOCK_MODE))

	push	512					; 00000200H
	mov	ecx, DWORD PTR _this$[ebp]
	call	?IsICPSet@ICPClass@@QAEHH@Z		; ICPClass::IsICPSet
	test	eax, eax
	je	SHORT $LN44@HandleManu

; 160  : 		return;

	jmp	$LN45@HandleManu
$LN44@HandleManu:

; 161  : 
; 162  : 	if(InputsMade == PossibleInputs)

	mov	eax, DWORD PTR _this$[ebp]
	mov	ecx, DWORD PTR _this$[ebp]
	mov	edx, DWORD PTR [eax+744]
	cmp	edx, DWORD PTR [ecx+748]
	jne	SHORT $LN43@HandleManu

; 163  : 		return;

	jmp	$LN45@HandleManu
$LN43@HandleManu:

; 164  : 
; 165  : 	//Only shift our Input if we have something != 0
; 166  : 	if(MadeInput)

	mov	eax, DWORD PTR _this$[ebp]
	movzx	ecx, BYTE PTR [eax+1500]
	test	ecx, ecx
	je	$LN42@HandleManu

; 167  : 	{
; 168  : 		if(Input_Digit2 < 10)

	mov	edx, DWORD PTR _this$[ebp]
	cmp	DWORD PTR [edx+1416], 10		; 0000000aH
	jae	SHORT $LN41@HandleManu

; 169  : 			Input_Digit1 = Input_Digit2;

	mov	eax, DWORD PTR _this$[ebp]
	mov	ecx, DWORD PTR _this$[ebp]
	mov	edx, DWORD PTR [ecx+1416]
	mov	DWORD PTR [eax+1412], edx
$LN41@HandleManu:

; 170  : 		if(Input_Digit3 < 10)

	mov	eax, DWORD PTR _this$[ebp]
	cmp	DWORD PTR [eax+1420], 10		; 0000000aH
	jae	SHORT $LN40@HandleManu

; 171  : 			Input_Digit2 = Input_Digit3;

	mov	ecx, DWORD PTR _this$[ebp]
	mov	edx, DWORD PTR _this$[ebp]
	mov	eax, DWORD PTR [edx+1420]
	mov	DWORD PTR [ecx+1416], eax
$LN40@HandleManu:

; 172  : 		if(Input_Digit4 < 10)

	mov	ecx, DWORD PTR _this$[ebp]
	cmp	DWORD PTR [ecx+1424], 10		; 0000000aH
	jae	SHORT $LN39@HandleManu

; 173  : 			Input_Digit3 = Input_Digit4;

	mov	edx, DWORD PTR _this$[ebp]
	mov	eax, DWORD PTR _this$[ebp]
	mov	ecx, DWORD PTR [eax+1424]
	mov	DWORD PTR [edx+1420], ecx
$LN39@HandleManu:

; 174  : 		if(Input_Digit5 < 10)

	mov	edx, DWORD PTR _this$[ebp]
	cmp	DWORD PTR [edx+1428], 10		; 0000000aH
	jae	SHORT $LN38@HandleManu

; 175  : 			Input_Digit4 = Input_Digit5;

	mov	eax, DWORD PTR _this$[ebp]
	mov	ecx, DWORD PTR _this$[ebp]
	mov	edx, DWORD PTR [ecx+1428]
	mov	DWORD PTR [eax+1424], edx
$LN38@HandleManu:

; 176  : 		if(Input_Digit6 < 10)

	mov	eax, DWORD PTR _this$[ebp]
	cmp	DWORD PTR [eax+1432], 10		; 0000000aH
	jae	SHORT $LN37@HandleManu

; 177  : 			Input_Digit5 = Input_Digit6;

	mov	ecx, DWORD PTR _this$[ebp]
	mov	edx, DWORD PTR _this$[ebp]
	mov	eax, DWORD PTR [edx+1432]
	mov	DWORD PTR [ecx+1428], eax
$LN37@HandleManu:

; 178  : 		if(Input_Digit7 < 10)

	mov	ecx, DWORD PTR _this$[ebp]
	cmp	DWORD PTR [ecx+1436], 10		; 0000000aH
	jae	SHORT $LN36@HandleManu

; 179  : 			Input_Digit6 = Input_Digit7;

	mov	edx, DWORD PTR _this$[ebp]
	mov	eax, DWORD PTR _this$[ebp]
	mov	ecx, DWORD PTR [eax+1436]
	mov	DWORD PTR [edx+1432], ecx
$LN36@HandleManu:

; 180  : 	}
; 181  : 	else if(IsICPSet(ICPClass::MODE_CNI) && mICPSecondaryMode == ONE_BUTTON ||

	jmp	$LN35@HandleManu
$LN42@HandleManu:

; 182  : 		IsICPSet(ICPClass::MODE_CNI) && mICPSecondaryMode == TWO_BUTTON ||
; 183  : 		(BQ || BI || SQ || SI || OA1 ||OA2 || EDITMSLFLOOR) ||
; 184  : 		IsICPSet(ICPClass::MODE_LIST) && mICPSecondaryMode == ONE_BUTTON ||
; 185  : 		IsICPSet(ICPClass::MODE_LIST) && mICPSecondaryMode == TWO_BUTTON ||
; 186  : 		IsICPSet(ICPClass::MODE_LIST) && mICPSecondaryMode == THREE_BUTTON || 
; 187  : 		IsICPSet(ICPClass::MODE_LIST) && mICPSecondaryMode == FIFE_BUTTON ||
; 188  : 		IsICPSet(ICPClass::MODE_LIST) && mICPSecondaryMode == NINE_BUTTON ||
; 189  : 		IsICPSet(ICPClass::MODE_LIST) && mICPSecondaryMode == 100 ||  //INTG
; 190  : 		(IsICPSet(ICPClass::MODE_LIST) && mICPSecondaryMode == SIX_BUTTON) || //INS
; 191  : 		IsICPSet(ICPClass::MODE_IFF) || (IsICPSet(ICPClass::MISC_MODE) && 
; 192  : 		mICPSecondaryMode == FIFE_BUTTON))	

	push	128					; 00000080H
	mov	ecx, DWORD PTR _this$[ebp]
	call	?IsICPSet@ICPClass@@QAEHH@Z		; ICPClass::IsICPSet
	test	eax, eax
	je	SHORT $LN32@HandleManu
	mov	edx, DWORD PTR _this$[ebp]
	cmp	DWORD PTR [edx+12], 4
	je	$LN33@HandleManu
$LN32@HandleManu:
	push	128					; 00000080H
	mov	ecx, DWORD PTR _this$[ebp]
	call	?IsICPSet@ICPClass@@QAEHH@Z		; ICPClass::IsICPSet
	test	eax, eax
	je	SHORT $LN31@HandleManu
	mov	eax, DWORD PTR _this$[ebp]
	cmp	DWORD PTR [eax+12], 9
	je	$LN33@HandleManu
$LN31@HandleManu:
	mov	ecx, DWORD PTR _this$[ebp]
	movzx	edx, BYTE PTR [ecx+496]
	test	edx, edx
	jne	$LN33@HandleManu
	mov	eax, DWORD PTR _this$[ebp]
	movzx	ecx, BYTE PTR [eax+497]
	test	ecx, ecx
	jne	$LN33@HandleManu
	mov	edx, DWORD PTR _this$[ebp]
	movzx	eax, BYTE PTR [edx+498]
	test	eax, eax
	jne	$LN33@HandleManu
	mov	ecx, DWORD PTR _this$[ebp]
	movzx	edx, BYTE PTR [ecx+499]
	test	edx, edx
	jne	$LN33@HandleManu
	mov	eax, DWORD PTR _this$[ebp]
	movzx	ecx, BYTE PTR [eax+429]
	test	ecx, ecx
	jne	$LN33@HandleManu
	mov	edx, DWORD PTR _this$[ebp]
	movzx	eax, BYTE PTR [edx+430]
	test	eax, eax
	jne	$LN33@HandleManu
	mov	ecx, DWORD PTR _this$[ebp]
	movzx	edx, BYTE PTR [ecx+1528]
	test	edx, edx
	jne	$LN33@HandleManu
	push	4
	mov	ecx, DWORD PTR _this$[ebp]
	call	?IsICPSet@ICPClass@@QAEHH@Z		; ICPClass::IsICPSet
	test	eax, eax
	je	SHORT $LN30@HandleManu
	mov	eax, DWORD PTR _this$[ebp]
	cmp	DWORD PTR [eax+12], 4
	je	$LN33@HandleManu
$LN30@HandleManu:
	push	4
	mov	ecx, DWORD PTR _this$[ebp]
	call	?IsICPSet@ICPClass@@QAEHH@Z		; ICPClass::IsICPSet
	test	eax, eax
	je	SHORT $LN29@HandleManu
	mov	ecx, DWORD PTR _this$[ebp]
	cmp	DWORD PTR [ecx+12], 9
	je	$LN33@HandleManu
$LN29@HandleManu:
	push	4
	mov	ecx, DWORD PTR _this$[ebp]
	call	?IsICPSet@ICPClass@@QAEHH@Z		; ICPClass::IsICPSet
	test	eax, eax
	je	SHORT $LN28@HandleManu
	mov	edx, DWORD PTR _this$[ebp]
	cmp	DWORD PTR [edx+12], 22			; 00000016H
	je	$LN33@HandleManu
$LN28@HandleManu:
	push	4
	mov	ecx, DWORD PTR _this$[ebp]
	call	?IsICPSet@ICPClass@@QAEHH@Z		; ICPClass::IsICPSet
	test	eax, eax
	je	SHORT $LN27@HandleManu
	mov	eax, DWORD PTR _this$[ebp]
	cmp	DWORD PTR [eax+12], 5
	je	SHORT $LN33@HandleManu
$LN27@HandleManu:
	push	4
	mov	ecx, DWORD PTR _this$[ebp]
	call	?IsICPSet@ICPClass@@QAEHH@Z		; ICPClass::IsICPSet
	test	eax, eax
	je	SHORT $LN26@HandleManu
	mov	ecx, DWORD PTR _this$[ebp]
	cmp	DWORD PTR [ecx+12], 25			; 00000019H
	je	SHORT $LN33@HandleManu
$LN26@HandleManu:
	push	4
	mov	ecx, DWORD PTR _this$[ebp]
	call	?IsICPSet@ICPClass@@QAEHH@Z		; ICPClass::IsICPSet
	test	eax, eax
	je	SHORT $LN25@HandleManu
	mov	edx, DWORD PTR _this$[ebp]
	cmp	DWORD PTR [edx+12], 100			; 00000064H
	je	SHORT $LN33@HandleManu
$LN25@HandleManu:
	push	4
	mov	ecx, DWORD PTR _this$[ebp]
	call	?IsICPSet@ICPClass@@QAEHH@Z		; ICPClass::IsICPSet
	test	eax, eax
	je	SHORT $LN24@HandleManu
	mov	eax, DWORD PTR _this$[ebp]
	cmp	DWORD PTR [eax+12], 23			; 00000017H
	je	SHORT $LN33@HandleManu
$LN24@HandleManu:
	push	16					; 00000010H
	mov	ecx, DWORD PTR _this$[ebp]
	call	?IsICPSet@ICPClass@@QAEHH@Z		; ICPClass::IsICPSet
	test	eax, eax
	jne	SHORT $LN33@HandleManu
	push	8
	mov	ecx, DWORD PTR _this$[ebp]
	call	?IsICPSet@ICPClass@@QAEHH@Z		; ICPClass::IsICPSet
	test	eax, eax
	je	SHORT $LN34@HandleManu
	mov	ecx, DWORD PTR _this$[ebp]
	cmp	DWORD PTR [ecx+12], 5
	jne	SHORT $LN34@HandleManu
$LN33@HandleManu:

; 193  : 	{
; 194  : 		Manual_Input = TRUE;

	mov	edx, DWORD PTR _this$[ebp]
	mov	BYTE PTR [edx+732], 1
	jmp	$LN35@HandleManu
$LN34@HandleManu:

; 195  : 	}
; 196  : 	else if(IsICPSet(ICPClass::MODE_CNI) && mICPSecondaryMode == FOUR_BUTTON)

	push	128					; 00000080H
	mov	ecx, DWORD PTR _this$[ebp]
	call	?IsICPSet@ICPClass@@QAEHH@Z		; ICPClass::IsICPSet
	test	eax, eax
	je	SHORT $LN22@HandleManu
	mov	eax, DWORD PTR _this$[ebp]
	cmp	DWORD PTR [eax+12], 1
	jne	SHORT $LN22@HandleManu

; 197  : 	{
; 198  : 		ClearFlags();

	mov	ecx, DWORD PTR _this$[ebp]
	call	?ClearFlags@ICPClass@@QAEXXZ		; ICPClass::ClearFlags

; 199  : 		ClearStrings();

	mov	ecx, DWORD PTR _this$[ebp]
	call	?ClearStrings@ICPClass@@QAEXXZ		; ICPClass::ClearStrings

; 200  : 		SetICPFlag(ICPClass::MODE_LIST);

	push	4
	mov	ecx, DWORD PTR _this$[ebp]
	call	?SetICPFlag@ICPClass@@QAEXH@Z		; ICPClass::SetICPFlag

; 201  : 		Manual_Input = TRUE;

	mov	ecx, DWORD PTR _this$[ebp]
	mov	BYTE PTR [ecx+732], 1

; 202  : 		mICPSecondaryMode = ONE_BUTTON;

	mov	edx, DWORD PTR _this$[ebp]
	mov	DWORD PTR [edx+12], 4

; 203  : 		SetICPFlag(ICPClass::EDIT_LAT);

	push	16384					; 00004000H
	mov	ecx, DWORD PTR _this$[ebp]
	call	?SetICPFlag@ICPClass@@QAEXH@Z		; ICPClass::SetICPFlag
	jmp	SHORT $LN35@HandleManu
$LN22@HandleManu:

; 204  : 	}
; 205  : 	else if(IsICPSet(ICPClass::EDIT_LAT))

	push	16384					; 00004000H
	mov	ecx, DWORD PTR _this$[ebp]
	call	?IsICPSet@ICPClass@@QAEHH@Z		; ICPClass::IsICPSet
	test	eax, eax
	je	SHORT $LN20@HandleManu

; 206  : 		Manual_Input = TRUE;

	mov	eax, DWORD PTR _this$[ebp]
	mov	BYTE PTR [eax+732], 1
	jmp	SHORT $LN35@HandleManu
$LN20@HandleManu:

; 207  : 
; 208  : 	else if(IsICPSet(ICPClass::EDIT_LONG))

	push	32768					; 00008000H
	mov	ecx, DWORD PTR _this$[ebp]
	call	?IsICPSet@ICPClass@@QAEHH@Z		; ICPClass::IsICPSet
	test	eax, eax
	je	SHORT $LN18@HandleManu

; 209  : 		Manual_Input = TRUE;

	mov	ecx, DWORD PTR _this$[ebp]
	mov	BYTE PTR [ecx+732], 1
	jmp	SHORT $LN35@HandleManu
$LN18@HandleManu:

; 210  : 
; 211  : 	else if(IsICPSet(ICPClass::CHAFF_BINGO))

	push	1024					; 00000400H
	mov	ecx, DWORD PTR _this$[ebp]
	call	?IsICPSet@ICPClass@@QAEHH@Z		; ICPClass::IsICPSet
	test	eax, eax
	je	SHORT $LN16@HandleManu

; 212  : 		Manual_Input = TRUE;

	mov	edx, DWORD PTR _this$[ebp]
	mov	BYTE PTR [edx+732], 1
	jmp	SHORT $LN35@HandleManu
$LN16@HandleManu:

; 213  : 
; 214  : 	else if(IsICPSet(ICPClass::FLARE_BINGO))

	push	2048					; 00000800H
	mov	ecx, DWORD PTR _this$[ebp]
	call	?IsICPSet@ICPClass@@QAEHH@Z		; ICPClass::IsICPSet
	test	eax, eax
	je	SHORT $LN35@HandleManu

; 215  : 		Manual_Input = TRUE;

	mov	eax, DWORD PTR _this$[ebp]
	mov	BYTE PTR [eax+732], 1
$LN35@HandleManu:

; 216  : 	
; 217  : 	InputsMade ++;

	mov	ecx, DWORD PTR _this$[ebp]
	mov	edx, DWORD PTR [ecx+744]
	add	edx, 1
	mov	eax, DWORD PTR _this$[ebp]
	mov	DWORD PTR [eax+744], edx

; 218  : 	if(ClearCount > 0)

	mov	ecx, DWORD PTR _this$[ebp]
	cmp	DWORD PTR [ecx+1488], 0
	jle	SHORT $LN13@HandleManu

; 219  : 		ClearCount --;

	mov	edx, DWORD PTR _this$[ebp]
	mov	eax, DWORD PTR [edx+1488]
	sub	eax, 1
	mov	ecx, DWORD PTR _this$[ebp]
	mov	DWORD PTR [ecx+1488], eax
$LN13@HandleManu:

; 220  : 
; 221  : 	switch(button)

	mov	edx, DWORD PTR _button$[ebp]
	mov	DWORD PTR tv260[ebp], edx
	mov	eax, DWORD PTR tv260[ebp]
	sub	eax, 1
	mov	DWORD PTR tv260[ebp], eax
	cmp	DWORD PTR tv260[ebp], 25		; 00000019H
	ja	$LN45@HandleManu
	mov	ecx, DWORD PTR tv260[ebp]
	movzx	edx, BYTE PTR $LN47@HandleManu[ecx]
	jmp	DWORD PTR $LN48@HandleManu[edx*4]
$LN10@HandleManu:

; 222  : 	{
; 223  : 	case ONE_BUTTON:
; 224  : 			MadeInput = TRUE;

	mov	eax, DWORD PTR _this$[ebp]
	mov	BYTE PTR [eax+1500], 1

; 225  : 			Input_Digit7 = 1;

	mov	ecx, DWORD PTR _this$[ebp]
	mov	DWORD PTR [ecx+1436], 1

; 226  : 		break;

	jmp	$LN45@HandleManu
$LN9@HandleManu:

; 227  : 	case TWO_BUTTON:
; 228  : 			MadeInput = TRUE;

	mov	edx, DWORD PTR _this$[ebp]
	mov	BYTE PTR [edx+1500], 1

; 229  : 			Input_Digit7 = 2;

	mov	eax, DWORD PTR _this$[ebp]
	mov	DWORD PTR [eax+1436], 2

; 230  : 		break;

	jmp	$LN45@HandleManu
$LN8@HandleManu:

; 231  : 	case THREE_BUTTON:
; 232  : 			MadeInput = TRUE;

	mov	ecx, DWORD PTR _this$[ebp]
	mov	BYTE PTR [ecx+1500], 1

; 233  : 			Input_Digit7 = 3;

	mov	edx, DWORD PTR _this$[ebp]
	mov	DWORD PTR [edx+1436], 3

; 234  : 		break;

	jmp	$LN45@HandleManu
$LN7@HandleManu:

; 235  : 	case FOUR_BUTTON:
; 236  : 			MadeInput = TRUE;

	mov	eax, DWORD PTR _this$[ebp]
	mov	BYTE PTR [eax+1500], 1

; 237  : 			Input_Digit7 = 4;

	mov	ecx, DWORD PTR _this$[ebp]
	mov	DWORD PTR [ecx+1436], 4

; 238  : 		break;

	jmp	$LN45@HandleManu
$LN6@HandleManu:

; 239  : 	case FIFE_BUTTON:
; 240  : 			MadeInput = TRUE;

	mov	edx, DWORD PTR _this$[ebp]
	mov	BYTE PTR [edx+1500], 1

; 241  : 			Input_Digit7 = 5;

	mov	eax, DWORD PTR _this$[ebp]
	mov	DWORD PTR [eax+1436], 5

; 242  : 		break;

	jmp	SHORT $LN45@HandleManu
$LN5@HandleManu:

; 243  : 	case SIX_BUTTON:
; 244  : 			MadeInput = TRUE;

	mov	ecx, DWORD PTR _this$[ebp]
	mov	BYTE PTR [ecx+1500], 1

; 245  : 			Input_Digit7 = 6;

	mov	edx, DWORD PTR _this$[ebp]
	mov	DWORD PTR [edx+1436], 6

; 246  : 		break;

	jmp	SHORT $LN45@HandleManu
$LN4@HandleManu:

; 247  : 	case SEVEN_BUTTON:
; 248  : 			MadeInput = TRUE;

	mov	eax, DWORD PTR _this$[ebp]
	mov	BYTE PTR [eax+1500], 1

; 249  : 			Input_Digit7 = 7;

	mov	ecx, DWORD PTR _this$[ebp]
	mov	DWORD PTR [ecx+1436], 7

; 250  : 		break;

	jmp	SHORT $LN45@HandleManu
$LN3@HandleManu:

; 251  : 	case EIGHT_BUTTON:
; 252  : 			MadeInput = TRUE;

	mov	edx, DWORD PTR _this$[ebp]
	mov	BYTE PTR [edx+1500], 1

; 253  : 			Input_Digit7 = 8;

	mov	eax, DWORD PTR _this$[ebp]
	mov	DWORD PTR [eax+1436], 8

; 254  : 		break;

	jmp	SHORT $LN45@HandleManu
$LN2@HandleManu:

; 255  : 	case NINE_BUTTON:
; 256  : 			MadeInput = TRUE;

	mov	ecx, DWORD PTR _this$[ebp]
	mov	BYTE PTR [ecx+1500], 1

; 257  : 			Input_Digit7 = 9;

	mov	edx, DWORD PTR _this$[ebp]
	mov	DWORD PTR [edx+1436], 9

; 258  : 		break;

	jmp	SHORT $LN45@HandleManu
$LN1@HandleManu:

; 259  : 	case ZERO_BUTTON:
; 260  : 			Input_Digit7 = 0;

	mov	eax, DWORD PTR _this$[ebp]
	mov	DWORD PTR [eax+1436], 0
$LN45@HandleManu:

; 261  : 		break;
; 262  : 	}
; 263  : }

	mov	esp, ebp
	pop	ebp
	ret	4
	npad	1
$LN48@HandleManu:
	DD	$LN7@HandleManu
	DD	$LN4@HandleManu
	DD	$LN10@HandleManu
	DD	$LN6@HandleManu
	DD	$LN9@HandleManu
	DD	$LN8@HandleManu
	DD	$LN5@HandleManu
	DD	$LN3@HandleManu
	DD	$LN2@HandleManu
	DD	$LN1@HandleManu
	DD	$LN45@HandleManu
$LN47@HandleManu:
	DB	0
	DB	10					; 0000000aH
	DB	1
	DB	2
	DB	3
	DB	10					; 0000000aH
	DB	10					; 0000000aH
	DB	10					; 0000000aH
	DB	4
	DB	10					; 0000000aH
	DB	10					; 0000000aH
	DB	10					; 0000000aH
	DB	10					; 0000000aH
	DB	10					; 0000000aH
	DB	10					; 0000000aH
	DB	10					; 0000000aH
	DB	10					; 0000000aH
	DB	10					; 0000000aH
	DB	10					; 0000000aH
	DB	10					; 0000000aH
	DB	10					; 0000000aH
	DB	5
	DB	6
	DB	7
	DB	8
	DB	9
?HandleManualInput@ICPClass@@QAEXH@Z ENDP		; ICPClass::HandleManualInput
_TEXT	ENDS
; Function compile flags: /Odtp
; File c:\users\zhitao li\documents\visual studio 2012\projects\freefalcon\sim\icp\icpmiscfuncs.cpp
_TEXT	SEGMENT
_this$ = -4						; size = 4
?ClearFlags@ICPClass@@QAEXXZ PROC			; ICPClass::ClearFlags
; _this$ = ecx

; 265  : {

	push	ebp
	mov	ebp, esp
	push	ecx
	mov	DWORD PTR _this$[ebp], ecx

; 266  : 	ICPModeFlags = 0;

	mov	eax, DWORD PTR _this$[ebp]
	mov	DWORD PTR [eax+1376], 0

; 267  : 	BQ = FALSE;

	mov	ecx, DWORD PTR _this$[ebp]
	mov	BYTE PTR [ecx+496], 0

; 268  : 	BI = FALSE; 

	mov	edx, DWORD PTR _this$[ebp]
	mov	BYTE PTR [edx+497], 0

; 269  : 	SQ = FALSE;

	mov	eax, DWORD PTR _this$[ebp]
	mov	BYTE PTR [eax+498], 0

; 270  : 	SI = FALSE;

	mov	ecx, DWORD PTR _this$[ebp]
	mov	BYTE PTR [ecx+499], 0

; 271  : 	OA1 = FALSE;

	mov	edx, DWORD PTR _this$[ebp]
	mov	BYTE PTR [edx+429], 0

; 272  : 	OA2 = FALSE;

	mov	eax, DWORD PTR _this$[ebp]
	mov	BYTE PTR [eax+430], 0

; 273  : 	OA_RNG = FALSE;

	mov	ecx, DWORD PTR _this$[ebp]
	mov	BYTE PTR [ecx+668], 0

; 274  : 	OA_BRG = FALSE;

	mov	edx, DWORD PTR _this$[ebp]
	mov	BYTE PTR [edx+669], 0

; 275  : 	OA_ALT = FALSE;

	mov	eax, DWORD PTR _this$[ebp]
	mov	BYTE PTR [eax+670], 0

; 276  : 	Manual_Input = FALSE;

	mov	ecx, DWORD PTR _this$[ebp]
	mov	BYTE PTR [ecx+732], 0

; 277  : 	MadeInput = FALSE;

	mov	edx, DWORD PTR _this$[ebp]
	mov	BYTE PTR [edx+1500], 0

; 278  : 	VIP_RNG = FALSE;

	mov	eax, DWORD PTR _this$[ebp]
	mov	BYTE PTR [eax+696], 0

; 279  : 	VIP_BRG = FALSE;

	mov	ecx, DWORD PTR _this$[ebp]
	mov	BYTE PTR [ecx+697], 0

; 280  : 	VIP_ALT = FALSE;

	mov	edx, DWORD PTR _this$[ebp]
	mov	BYTE PTR [edx+698], 0

; 281  : 	VRP_RNG = FALSE;

	mov	eax, DWORD PTR _this$[ebp]
	mov	BYTE PTR [eax+712], 0

; 282  : 	VRP_BRG = FALSE;

	mov	ecx, DWORD PTR _this$[ebp]
	mov	BYTE PTR [ecx+713], 0

; 283  : 	VRP_ALT = FALSE;

	mov	edx, DWORD PTR _this$[ebp]
	mov	BYTE PTR [edx+714], 0

; 284  : 			
; 285  : 	//Reset our Input Variables
; 286  : 	Input_Digit1 = 25;

	mov	eax, DWORD PTR _this$[ebp]
	mov	DWORD PTR [eax+1412], 25		; 00000019H

; 287  : 	Input_Digit2 = 25;

	mov	ecx, DWORD PTR _this$[ebp]
	mov	DWORD PTR [ecx+1416], 25		; 00000019H

; 288  : 	Input_Digit3 = 25;

	mov	edx, DWORD PTR _this$[ebp]
	mov	DWORD PTR [edx+1420], 25		; 00000019H

; 289  : 	Input_Digit4 = 25;

	mov	eax, DWORD PTR _this$[ebp]
	mov	DWORD PTR [eax+1424], 25		; 00000019H

; 290  : 	Input_Digit5 = 25;

	mov	ecx, DWORD PTR _this$[ebp]
	mov	DWORD PTR [ecx+1428], 25		; 00000019H

; 291  : 	Input_Digit6 = 25;

	mov	edx, DWORD PTR _this$[ebp]
	mov	DWORD PTR [edx+1432], 25		; 00000019H

; 292  : 	Input_Digit7 = 25;

	mov	eax, DWORD PTR _this$[ebp]
	mov	DWORD PTR [eax+1436], 25		; 00000019H

; 293  : 
; 294  : 	ClearCount = 0;

	mov	ecx, DWORD PTR _this$[ebp]
	mov	DWORD PTR [ecx+1488], 0

; 295  : 
; 296  : 	//Clear our secondary mode, used for later input
; 297  : 	mICPSecondaryMode = NONE_MODE;

	mov	edx, DWORD PTR _this$[ebp]
	mov	DWORD PTR [edx+12], 0

; 298  : 	mpSecondaryExclusiveButton = NULL;

	mov	eax, DWORD PTR _this$[ebp]
	mov	DWORD PTR [eax+240], 0

; 299  : }

	mov	esp, ebp
	pop	ebp
	ret	0
?ClearFlags@ICPClass@@QAEXXZ ENDP			; ICPClass::ClearFlags
_TEXT	ENDS
; Function compile flags: /Odtp
; File c:\users\zhitao li\documents\visual studio 2012\projects\freefalcon\sim\icp\icpmiscfuncs.cpp
_TEXT	SEGMENT
_this$ = -8						; size = 4
_i$1 = -4						; size = 4
?ClearStrings@ICPClass@@QAEXXZ PROC			; ICPClass::ClearStrings
; _this$ = ecx

; 447  : {

	push	ebp
	mov	ebp, esp
	sub	esp, 8
	mov	DWORD PTR _this$[ebp], ecx

; 448  : 	for(int i = 0; i < 5; i++)

	mov	DWORD PTR _i$1[ebp], 0
	jmp	SHORT $LN3@ClearStrin
$LN2@ClearStrin:
	mov	eax, DWORD PTR _i$1[ebp]
	add	eax, 1
	mov	DWORD PTR _i$1[ebp], eax
$LN3@ClearStrin:
	cmp	DWORD PTR _i$1[ebp], 5
	jge	SHORT $LN4@ClearStrin

; 449  : 	{
; 450  : 		memset(DEDLines[i], ' ', MAX_DED_LEN - 1);

	push	25					; 00000019H
	push	32					; 00000020H
	mov	ecx, DWORD PTR _i$1[ebp]
	imul	ecx, 26					; 0000001aH
	mov	edx, DWORD PTR _this$[ebp]
	lea	eax, DWORD PTR [edx+ecx+764]
	push	eax
	call	_memset
	add	esp, 12					; 0000000cH

; 451  : 		DEDLines[i][MAX_DED_LEN - 1] = '\0';

	mov	ecx, DWORD PTR _i$1[ebp]
	imul	ecx, 26					; 0000001aH
	mov	edx, DWORD PTR _this$[ebp]
	lea	eax, DWORD PTR [edx+ecx+764]
	mov	ecx, 1
	imul	ecx, 25					; 00000019H
	mov	BYTE PTR [eax+ecx], 0

; 452  : 		memset(Invert[i], ' ',MAX_DED_LEN - 1);

	push	25					; 00000019H
	push	32					; 00000020H
	mov	edx, DWORD PTR _i$1[ebp]
	imul	edx, 26					; 0000001aH
	mov	eax, DWORD PTR _this$[ebp]
	lea	ecx, DWORD PTR [eax+edx+894]
	push	ecx
	call	_memset
	add	esp, 12					; 0000000cH

; 453  : 		Invert[i][MAX_DED_LEN - 1] = '\0';

	mov	edx, DWORD PTR _i$1[ebp]
	imul	edx, 26					; 0000001aH
	mov	eax, DWORD PTR _this$[ebp]
	lea	ecx, DWORD PTR [eax+edx+894]
	mov	edx, 1
	imul	edx, 25					; 00000019H
	mov	BYTE PTR [ecx+edx], 0

; 454  : 	}

	jmp	$LN2@ClearStrin
$LN4@ClearStrin:

; 455  : }

	mov	esp, ebp
	pop	ebp
	ret	0
?ClearStrings@ICPClass@@QAEXXZ ENDP			; ICPClass::ClearStrings
_TEXT	ENDS
; Function compile flags: /Odtp
; File c:\users\zhitao li\documents\visual studio 2012\projects\freefalcon\sim\icp\icpmiscfuncs.cpp
_TEXT	SEGMENT
_this$ = -4						; size = 4
?InitStuff@ICPClass@@QAEXXZ PROC			; ICPClass::InitStuff
; _this$ = ecx

; 644  : {

	push	ebp
	mov	ebp, esp
	push	ecx
	mov	DWORD PTR _this$[ebp], ecx

; 645  : 	//Init our matrixes
; 646  : 	ClearStrings();

	mov	ecx, DWORD PTR _this$[ebp]
	call	?ClearStrings@ICPClass@@QAEXXZ		; ICPClass::ClearStrings

; 647  : 	//Clear our Flags
; 648  : 	ClearFlags();

	mov	ecx, DWORD PTR _this$[ebp]
	call	?ClearFlags@ICPClass@@QAEXXZ		; ICPClass::ClearFlags

; 649  : 	//Init our InputString
; 650  : 	ClearString();

	mov	ecx, DWORD PTR _this$[ebp]
	call	?ClearString@ICPClass@@QAEXXZ		; ICPClass::ClearString

; 651  : 	//Init our Input Digits
; 652  : 	ClearDigits();

	mov	ecx, DWORD PTR _this$[ebp]
	call	?ClearDigits@ICPClass@@QAEXXZ		; ICPClass::ClearDigits

; 653  : 	//Init our input variables
; 654  : 	Manual_Input = FALSE;

	mov	eax, DWORD PTR _this$[ebp]
	mov	BYTE PTR [eax+732], 0

; 655  : 	InputsMade = 0;

	mov	ecx, DWORD PTR _this$[ebp]
	mov	DWORD PTR [ecx+744], 0

; 656  : 	IsSelected = FALSE;

	mov	edx, DWORD PTR _this$[ebp]
	mov	BYTE PTR [edx+731], 0

; 657  : 	//Init Cruise page
; 658  : 	Cruise_TOS = TRUE;

	mov	eax, DWORD PTR _this$[ebp]
	mov	BYTE PTR [eax+439], 1

; 659  : 	Cruise_RNG = FALSE;

	mov	ecx, DWORD PTR _this$[ebp]
	mov	BYTE PTR [ecx+436], 0

; 660  : 	Cruise_HOME = FALSE;

	mov	edx, DWORD PTR _this$[ebp]
	mov	BYTE PTR [edx+437], 0

; 661  : 	Cruise_EDR = FALSE;

	mov	eax, DWORD PTR _this$[ebp]
	mov	BYTE PTR [eax+438], 0

; 662  : 	HomeWP = 1;

	mov	ecx, DWORD PTR _this$[ebp]
	mov	DWORD PTR [ecx+440], 1

; 663  : 	RangeWP = 1;

	mov	edx, DWORD PTR _this$[ebp]
	mov	DWORD PTR [edx+444], 1

; 664  : 	TOSWP = 1;

	mov	eax, DWORD PTR _this$[ebp]
	mov	DWORD PTR [eax+448], 1

; 665  : 	CruiseMode = 0;

	mov	ecx, DWORD PTR _this$[ebp]
	mov	DWORD PTR [ecx+452], 0

; 666  : 	//Time page
; 667  : 	Difference = 0;

	mov	edx, DWORD PTR _this$[ebp]
	mov	DWORD PTR [edx+464], 0

; 668  : 	running = FALSE;

	mov	eax, DWORD PTR _this$[ebp]
	mov	BYTE PTR [eax+456], 0

; 669  : 	stopped = FALSE;

	mov	ecx, DWORD PTR _this$[ebp]
	mov	BYTE PTR [ecx+457], 0

; 670  : 	//Comm page
; 671  : 	WhichRadio = 0;

	mov	edx, DWORD PTR _this$[ebp]
	mov	DWORD PTR [edx+1496], 0

; 672  : 	CurrChannel = 0;

	mov	eax, DWORD PTR _this$[ebp]
	mov	DWORD PTR [eax+1396], 0

; 673  : 	PREUHF = 4;

	mov	ecx, DWORD PTR _this$[ebp]
	movss	xmm0, DWORD PTR __real@40800000
	movss	DWORD PTR [ecx+1344], xmm0

; 674  : 	PREVHF = 4;

	mov	edx, DWORD PTR _this$[ebp]
	movss	xmm0, DWORD PTR __real@40800000
	movss	DWORD PTR [edx+1348], xmm0

; 675  : 	//CNI page
; 676  : 	SetICPFlag(ICPClass::MODE_CNI);

	push	128					; 00000080H
	mov	ecx, DWORD PTR _this$[ebp]
	call	?SetICPFlag@ICPClass@@QAEXH@Z		; ICPClass::SetICPFlag

; 677  : 	SetICPFlag(ICPClass::EDIT_STPT);

	push	1048576					; 00100000H
	mov	ecx, DWORD PTR _this$[ebp]
	call	?SetICPFlag@ICPClass@@QAEXH@Z		; ICPClass::SetICPFlag

; 678  : 	ShowWind = FALSE;

	mov	eax, DWORD PTR _this$[ebp]
	mov	BYTE PTR [eax+428], 0

; 679  : 	//Dest page
; 680  : 	OA_RNG = FALSE;

	mov	ecx, DWORD PTR _this$[ebp]
	mov	BYTE PTR [ecx+668], 0

; 681  : 	OA_BRG = FALSE;

	mov	edx, DWORD PTR _this$[ebp]
	mov	BYTE PTR [edx+669], 0

; 682  : 	OA_ALT = FALSE;

	mov	eax, DWORD PTR _this$[ebp]
	mov	BYTE PTR [eax+670], 0

; 683  : 	iOA_RNG = 0; 

	mov	ecx, DWORD PTR _this$[ebp]
	mov	DWORD PTR [ecx+672], 0

; 684  : 	fOA_BRG = 0;

	mov	edx, DWORD PTR _this$[ebp]
	movss	xmm0, DWORD PTR __real@00000000
	movss	DWORD PTR [edx+688], xmm0

; 685  : 	iOA_ALT = 0;

	mov	eax, DWORD PTR _this$[ebp]
	mov	DWORD PTR [eax+676], 0

; 686  : 	iOA_RNG2 = 0; 

	mov	ecx, DWORD PTR _this$[ebp]
	mov	DWORD PTR [ecx+680], 0

; 687  : 	fOA_BRG2 = 0;

	mov	edx, DWORD PTR _this$[ebp]
	movss	xmm0, DWORD PTR __real@00000000
	movss	DWORD PTR [edx+692], xmm0

; 688  : 	iOA_ALT2 = 0;

	mov	eax, DWORD PTR _this$[ebp]
	mov	DWORD PTR [eax+684], 0

; 689  : 	//EWS stuff
; 690  : 	ChaffBingo = 10;

	mov	ecx, DWORD PTR _this$[ebp]
	mov	DWORD PTR [ecx+492], 10			; 0000000aH

; 691  : 	FlareBingo = 10;

	mov	edx, DWORD PTR _this$[ebp]
	mov	DWORD PTR [edx+488], 10			; 0000000aH

; 692  : 	EWS_JAMMER_ON = TRUE;

	mov	eax, DWORD PTR _this$[ebp]
	mov	BYTE PTR [eax+483], 1

; 693  : 	EWS_BINGO_ON = TRUE;

	mov	ecx, DWORD PTR _this$[ebp]
	mov	BYTE PTR [ecx+484], 1

; 694  : 	BQ = FALSE;

	mov	edx, DWORD PTR _this$[ebp]
	mov	BYTE PTR [edx+496], 0

; 695  : 	BI = FALSE;

	mov	eax, DWORD PTR _this$[ebp]
	mov	BYTE PTR [eax+497], 0

; 696  : 	SQ = FALSE;

	mov	ecx, DWORD PTR _this$[ebp]
	mov	BYTE PTR [ecx+498], 0

; 697  : 	SI = FALSE;

	mov	edx, DWORD PTR _this$[ebp]
	mov	BYTE PTR [edx+499], 0

; 698  : 	//Prog 1, optimised for High-Med Alt Sams
; 699  : 	iCHAFF_BQ[0] = 3;

	mov	eax, 4
	imul	eax, 0
	mov	ecx, DWORD PTR _this$[ebp]
	mov	DWORD PTR [ecx+eax+500], 3

; 700  : 	fCHAFF_BI[0] = 0.5F;

	mov	edx, 4
	imul	edx, 0
	mov	eax, DWORD PTR _this$[ebp]
	movss	xmm0, DWORD PTR __real@3f000000
	movss	DWORD PTR [eax+edx+580], xmm0

; 701  : 	iCHAFF_SQ[0] = 3;

	mov	ecx, 4
	imul	ecx, 0
	mov	edx, DWORD PTR _this$[ebp]
	mov	DWORD PTR [edx+ecx+520], 3

; 702  : 	fCHAFF_SI[0] = 2.0F;

	mov	eax, 4
	imul	eax, 0
	mov	ecx, DWORD PTR _this$[ebp]
	movss	xmm0, DWORD PTR __real@40000000
	movss	DWORD PTR [ecx+eax+600], xmm0

; 703  : 	iFLARE_BQ[0] = 0;

	mov	edx, 4
	imul	edx, 0
	mov	eax, DWORD PTR _this$[ebp]
	mov	DWORD PTR [eax+edx+540], 0

; 704  : 	fFLARE_BI[0] = 0.0F;

	mov	ecx, 4
	imul	ecx, 0
	mov	edx, DWORD PTR _this$[ebp]
	movss	xmm0, DWORD PTR __real@00000000
	movss	DWORD PTR [edx+ecx+620], xmm0

; 705  : 	iFLARE_SQ[0] = 0;

	mov	eax, 4
	imul	eax, 0
	mov	ecx, DWORD PTR _this$[ebp]
	mov	DWORD PTR [ecx+eax+560], 0

; 706  : 	fFLARE_SI[0] = 0.0F;

	mov	edx, 4
	imul	edx, 0
	mov	eax, DWORD PTR _this$[ebp]
	movss	xmm0, DWORD PTR __real@00000000
	movss	DWORD PTR [eax+edx+640], xmm0

; 707  : 	//Prog 2, optimised for Merge
; 708  : 	iCHAFF_BQ[1] = 1;

	mov	ecx, 4
	shl	ecx, 0
	mov	edx, DWORD PTR _this$[ebp]
	mov	DWORD PTR [edx+ecx+500], 1

; 709  : 	fCHAFF_BI[1] = 0.5F;

	mov	eax, 4
	shl	eax, 0
	mov	ecx, DWORD PTR _this$[ebp]
	movss	xmm0, DWORD PTR __real@3f000000
	movss	DWORD PTR [ecx+eax+580], xmm0

; 710  : 	iCHAFF_SQ[1] = 3;

	mov	edx, 4
	shl	edx, 0
	mov	eax, DWORD PTR _this$[ebp]
	mov	DWORD PTR [eax+edx+520], 3

; 711  : 	fCHAFF_SI[1] = 3.0F;

	mov	ecx, 4
	shl	ecx, 0
	mov	edx, DWORD PTR _this$[ebp]
	movss	xmm0, DWORD PTR __real@40400000
	movss	DWORD PTR [edx+ecx+600], xmm0

; 712  : 	iFLARE_BQ[1] = 4;

	mov	eax, 4
	shl	eax, 0
	mov	ecx, DWORD PTR _this$[ebp]
	mov	DWORD PTR [ecx+eax+540], 4

; 713  : 	fFLARE_BI[1] = 0.25F;

	mov	edx, 4
	shl	edx, 0
	mov	eax, DWORD PTR _this$[ebp]
	movss	xmm0, DWORD PTR __real@3e800000
	movss	DWORD PTR [eax+edx+620], xmm0

; 714  : 	iFLARE_SQ[1] = 2;

	mov	ecx, 4
	shl	ecx, 0
	mov	edx, DWORD PTR _this$[ebp]
	mov	DWORD PTR [edx+ecx+560], 2

; 715  : 	fFLARE_SI[1] = 1.0F;

	mov	eax, 4
	shl	eax, 0
	mov	ecx, DWORD PTR _this$[ebp]
	movss	xmm0, DWORD PTR __real@3f800000
	movss	DWORD PTR [ecx+eax+640], xmm0

; 716  : 	//Prog 3, optimised for Pop-Up, Chaff only
; 717  : 	iCHAFF_BQ[2] = 2;

	mov	edx, 4
	shl	edx, 1
	mov	eax, DWORD PTR _this$[ebp]
	mov	DWORD PTR [eax+edx+500], 2

; 718  : 	fCHAFF_BI[2] = 0.5F;

	mov	ecx, 4
	shl	ecx, 1
	mov	edx, DWORD PTR _this$[ebp]
	movss	xmm0, DWORD PTR __real@3f000000
	movss	DWORD PTR [edx+ecx+580], xmm0

; 719  : 	iCHAFF_SQ[2] = 4;

	mov	eax, 4
	shl	eax, 1
	mov	ecx, DWORD PTR _this$[ebp]
	mov	DWORD PTR [ecx+eax+520], 4

; 720  : 	fCHAFF_SI[2] = 3.0F;

	mov	edx, 4
	shl	edx, 1
	mov	eax, DWORD PTR _this$[ebp]
	movss	xmm0, DWORD PTR __real@40400000
	movss	DWORD PTR [eax+edx+600], xmm0

; 721  : 	iFLARE_BQ[2] = 0;

	mov	ecx, 4
	shl	ecx, 1
	mov	edx, DWORD PTR _this$[ebp]
	mov	DWORD PTR [edx+ecx+540], 0

; 722  : 	fFLARE_BI[2] = 0.0F;

	mov	eax, 4
	shl	eax, 1
	mov	ecx, DWORD PTR _this$[ebp]
	movss	xmm0, DWORD PTR __real@00000000
	movss	DWORD PTR [ecx+eax+620], xmm0

; 723  : 	iFLARE_SQ[2] = 0;

	mov	edx, 4
	shl	edx, 1
	mov	eax, DWORD PTR _this$[ebp]
	mov	DWORD PTR [eax+edx+560], 0

; 724  : 	fFLARE_SI[2] = 0.0F;

	mov	ecx, 4
	shl	ecx, 1
	mov	edx, DWORD PTR _this$[ebp]
	movss	xmm0, DWORD PTR __real@00000000
	movss	DWORD PTR [edx+ecx+640], xmm0

; 725  : 	//Prog 3, optimised for Pop-Up, Flare only
; 726  : 	iCHAFF_BQ[3] = 2;

	mov	eax, 4
	imul	eax, 3
	mov	ecx, DWORD PTR _this$[ebp]
	mov	DWORD PTR [ecx+eax+500], 2

; 727  : 	fCHAFF_BI[3] = 0.5F;

	mov	edx, 4
	imul	edx, 3
	mov	eax, DWORD PTR _this$[ebp]
	movss	xmm0, DWORD PTR __real@3f000000
	movss	DWORD PTR [eax+edx+580], xmm0

; 728  : 	iCHAFF_SQ[3] = 4;

	mov	ecx, 4
	imul	ecx, 3
	mov	edx, DWORD PTR _this$[ebp]
	mov	DWORD PTR [edx+ecx+520], 4

; 729  : 	fCHAFF_SI[3] = 3.0F;

	mov	eax, 4
	imul	eax, 3
	mov	ecx, DWORD PTR _this$[ebp]
	movss	xmm0, DWORD PTR __real@40400000
	movss	DWORD PTR [ecx+eax+600], xmm0

; 730  : 	iFLARE_BQ[3] = 2;

	mov	edx, 4
	imul	edx, 3
	mov	eax, DWORD PTR _this$[ebp]
	mov	DWORD PTR [eax+edx+540], 2

; 731  : 	fFLARE_BI[3] = 0.5F;

	mov	ecx, 4
	imul	ecx, 3
	mov	edx, DWORD PTR _this$[ebp]
	movss	xmm0, DWORD PTR __real@3f000000
	movss	DWORD PTR [edx+ecx+620], xmm0

; 732  : 	iFLARE_SQ[3] = 3;

	mov	eax, 4
	imul	eax, 3
	mov	ecx, DWORD PTR _this$[ebp]
	mov	DWORD PTR [ecx+eax+560], 3

; 733  : 	fFLARE_SI[3] = 3.0F;

	mov	edx, 4
	imul	edx, 3
	mov	eax, DWORD PTR _this$[ebp]
	movss	xmm0, DWORD PTR __real@40400000
	movss	DWORD PTR [eax+edx+640], xmm0

; 734  : 
; 735  : 	CPI = 0;

	mov	ecx, DWORD PTR _this$[ebp]
	mov	DWORD PTR [ecx+660], 0

; 736  : 	FPI = 0;

	mov	edx, DWORD PTR _this$[ebp]
	mov	DWORD PTR [edx+664], 0

; 737  : 
