; Listing generated by Microsoft (R) Optimizing Compiler Version 17.00.51106.1 

	TITLE	C:\Users\Zhitao Li\Documents\Visual Studio 2012\Projects\Freefalcon\SIM\ICP\ScratchPad.cpp
	.686P
	.XMM
	include listing.inc
	.model	flat

INCLUDELIB LIBCMT
INCLUDELIB OLDNAMES

PUBLIC	?traps@_Num_base@std@@2_NB			; std::_Num_base::traps
PUBLIC	?round_style@_Num_base@std@@2W4float_round_style@2@B ; std::_Num_base::round_style
PUBLIC	?digits@_Num_base@std@@2HB			; std::_Num_base::digits
PUBLIC	?digits10@_Num_base@std@@2HB			; std::_Num_base::digits10
PUBLIC	?max_digits10@_Num_base@std@@2HB		; std::_Num_base::max_digits10
PUBLIC	?max_exponent@_Num_base@std@@2HB		; std::_Num_base::max_exponent
PUBLIC	?max_exponent10@_Num_base@std@@2HB		; std::_Num_base::max_exponent10
PUBLIC	?min_exponent@_Num_base@std@@2HB		; std::_Num_base::min_exponent
PUBLIC	?min_exponent10@_Num_base@std@@2HB		; std::_Num_base::min_exponent10
PUBLIC	?radix@_Num_base@std@@2HB			; std::_Num_base::radix
PUBLIC	?is_bounded@_Num_int_base@std@@2_NB		; std::_Num_int_base::is_bounded
PUBLIC	?is_exact@_Num_int_base@std@@2_NB		; std::_Num_int_base::is_exact
PUBLIC	?is_integer@_Num_int_base@std@@2_NB		; std::_Num_int_base::is_integer
PUBLIC	?is_modulo@_Num_int_base@std@@2_NB		; std::_Num_int_base::is_modulo
PUBLIC	?is_specialized@_Num_int_base@std@@2_NB		; std::_Num_int_base::is_specialized
PUBLIC	?radix@_Num_int_base@std@@2HB			; std::_Num_int_base::radix
PUBLIC	?has_denorm@_Num_float_base@std@@2W4float_denorm_style@2@B ; std::_Num_float_base::has_denorm
PUBLIC	?has_denorm_loss@_Num_float_base@std@@2_NB	; std::_Num_float_base::has_denorm_loss
PUBLIC	?SIMDIRTYDATA_INTERVAL@FalconEntity@@2KB	; FalconEntity::SIMDIRTYDATA_INTERVAL
PUBLIC	?CMPDIRTYDATA_INTERVAL@FalconEntity@@2KB	; FalconEntity::CMPDIRTYDATA_INTERVAL
PUBLIC	?has_infinity@_Num_float_base@std@@2_NB		; std::_Num_float_base::has_infinity
PUBLIC	?has_quiet_NaN@_Num_float_base@std@@2_NB	; std::_Num_float_base::has_quiet_NaN
PUBLIC	?has_signaling_NaN@_Num_float_base@std@@2_NB	; std::_Num_float_base::has_signaling_NaN
PUBLIC	?is_bounded@_Num_float_base@std@@2_NB		; std::_Num_float_base::is_bounded
PUBLIC	?is_exact@_Num_float_base@std@@2_NB		; std::_Num_float_base::is_exact
PUBLIC	?is_iec559@_Num_float_base@std@@2_NB		; std::_Num_float_base::is_iec559
PUBLIC	?is_integer@_Num_float_base@std@@2_NB		; std::_Num_float_base::is_integer
PUBLIC	?is_modulo@_Num_float_base@std@@2_NB		; std::_Num_float_base::is_modulo
PUBLIC	?is_signed@_Num_float_base@std@@2_NB		; std::_Num_float_base::is_signed
PUBLIC	?is_specialized@_Num_float_base@std@@2_NB	; std::_Num_float_base::is_specialized
PUBLIC	?tinyness_before@_Num_float_base@std@@2_NB	; std::_Num_float_base::tinyness_before
PUBLIC	?traps@_Num_float_base@std@@2_NB		; std::_Num_float_base::traps
PUBLIC	?round_style@_Num_float_base@std@@2W4float_round_style@2@B ; std::_Num_float_base::round_style
PUBLIC	?radix@_Num_float_base@std@@2HB			; std::_Num_float_base::radix
PUBLIC	?is_signed@?$numeric_limits@D@std@@2_NB		; std::numeric_limits<char>::is_signed
PUBLIC	?digits@?$numeric_limits@D@std@@2HB		; std::numeric_limits<char>::digits
PUBLIC	?digits10@?$numeric_limits@D@std@@2HB		; std::numeric_limits<char>::digits10
PUBLIC	?is_signed@?$numeric_limits@_W@std@@2_NB	; std::numeric_limits<wchar_t>::is_signed
PUBLIC	?digits@?$numeric_limits@_W@std@@2HB		; std::numeric_limits<wchar_t>::digits
PUBLIC	?digits10@?$numeric_limits@_W@std@@2HB		; std::numeric_limits<wchar_t>::digits10
PUBLIC	?is_modulo@?$numeric_limits@_N@std@@2_NB	; std::numeric_limits<bool>::is_modulo
PUBLIC	?is_signed@?$numeric_limits@_N@std@@2_NB	; std::numeric_limits<bool>::is_signed
PUBLIC	?digits@?$numeric_limits@_N@std@@2HB		; std::numeric_limits<bool>::digits
PUBLIC	?digits10@?$numeric_limits@_N@std@@2HB		; std::numeric_limits<bool>::digits10
PUBLIC	?is_signed@?$numeric_limits@C@std@@2_NB		; std::numeric_limits<signed char>::is_signed
PUBLIC	?digits@?$numeric_limits@C@std@@2HB		; std::numeric_limits<signed char>::digits
PUBLIC	?digits10@?$numeric_limits@C@std@@2HB		; std::numeric_limits<signed char>::digits10
PUBLIC	?is_signed@?$numeric_limits@E@std@@2_NB		; std::numeric_limits<unsigned char>::is_signed
PUBLIC	?value@?$integral_constant@_N$0A@@std@@2_NB	; std::integral_constant<bool,0>::value
PUBLIC	?digits@?$numeric_limits@E@std@@2HB		; std::numeric_limits<unsigned char>::digits
PUBLIC	?digits10@?$numeric_limits@E@std@@2HB		; std::numeric_limits<unsigned char>::digits10
PUBLIC	?value@?$integral_constant@_N$00@std@@2_NB	; std::integral_constant<bool,1>::value
PUBLIC	?is_signed@?$numeric_limits@F@std@@2_NB		; std::numeric_limits<short>::is_signed
PUBLIC	?digits@?$numeric_limits@F@std@@2HB		; std::numeric_limits<short>::digits
PUBLIC	?digits10@?$numeric_limits@F@std@@2HB		; std::numeric_limits<short>::digits10
PUBLIC	?is_signed@?$numeric_limits@G@std@@2_NB		; std::numeric_limits<unsigned short>::is_signed
PUBLIC	?digits@?$numeric_limits@G@std@@2HB		; std::numeric_limits<unsigned short>::digits
PUBLIC	?digits10@?$numeric_limits@G@std@@2HB		; std::numeric_limits<unsigned short>::digits10
PUBLIC	?is_signed@?$numeric_limits@H@std@@2_NB		; std::numeric_limits<int>::is_signed
PUBLIC	?value@?$_Sizeof@HU_Nil@std@@U12@U12@U12@U12@U12@U12@@std@@2IB ; std::_Sizeof<int,std::_Nil,std::_Nil,std::_Nil,std::_Nil,std::_Nil,std::_Nil,std::_Nil>::value
PUBLIC	?digits@?$numeric_limits@H@std@@2HB		; std::numeric_limits<int>::digits
PUBLIC	?digits10@?$numeric_limits@H@std@@2HB		; std::numeric_limits<int>::digits10
PUBLIC	?is_signed@?$numeric_limits@I@std@@2_NB		; std::numeric_limits<unsigned int>::is_signed
PUBLIC	?digits@?$numeric_limits@I@std@@2HB		; std::numeric_limits<unsigned int>::digits
PUBLIC	?skipws@?$_Iosb@H@std@@2W4_Fmtflags@12@B	; std::_Iosb<int>::skipws
PUBLIC	?digits10@?$numeric_limits@I@std@@2HB		; std::numeric_limits<unsigned int>::digits10
PUBLIC	?unitbuf@?$_Iosb@H@std@@2W4_Fmtflags@12@B	; std::_Iosb<int>::unitbuf
PUBLIC	?uppercase@?$_Iosb@H@std@@2W4_Fmtflags@12@B	; std::_Iosb<int>::uppercase
PUBLIC	?showbase@?$_Iosb@H@std@@2W4_Fmtflags@12@B	; std::_Iosb<int>::showbase
PUBLIC	?showpoint@?$_Iosb@H@std@@2W4_Fmtflags@12@B	; std::_Iosb<int>::showpoint
PUBLIC	?showpos@?$_Iosb@H@std@@2W4_Fmtflags@12@B	; std::_Iosb<int>::showpos
PUBLIC	?left@?$_Iosb@H@std@@2W4_Fmtflags@12@B		; std::_Iosb<int>::left
PUBLIC	?right@?$_Iosb@H@std@@2W4_Fmtflags@12@B		; std::_Iosb<int>::right
PUBLIC	?internal@?$_Iosb@H@std@@2W4_Fmtflags@12@B	; std::_Iosb<int>::internal
PUBLIC	?dec@?$_Iosb@H@std@@2W4_Fmtflags@12@B		; std::_Iosb<int>::dec
PUBLIC	?oct@?$_Iosb@H@std@@2W4_Fmtflags@12@B		; std::_Iosb<int>::oct
PUBLIC	?is_signed@?$numeric_limits@J@std@@2_NB		; std::numeric_limits<long>::is_signed
PUBLIC	?hex@?$_Iosb@H@std@@2W4_Fmtflags@12@B		; std::_Iosb<int>::hex
PUBLIC	?scientific@?$_Iosb@H@std@@2W4_Fmtflags@12@B	; std::_Iosb<int>::scientific
PUBLIC	?digits@?$numeric_limits@J@std@@2HB		; std::numeric_limits<long>::digits
PUBLIC	?fixed@?$_Iosb@H@std@@2W4_Fmtflags@12@B		; std::_Iosb<int>::fixed
PUBLIC	?digits10@?$numeric_limits@J@std@@2HB		; std::numeric_limits<long>::digits10
PUBLIC	?hexfloat@?$_Iosb@H@std@@2W4_Fmtflags@12@B	; std::_Iosb<int>::hexfloat
PUBLIC	?boolalpha@?$_Iosb@H@std@@2W4_Fmtflags@12@B	; std::_Iosb<int>::boolalpha
PUBLIC	?_Stdio@?$_Iosb@H@std@@2W4_Fmtflags@12@B	; std::_Iosb<int>::_Stdio
PUBLIC	?adjustfield@?$_Iosb@H@std@@2W4_Fmtflags@12@B	; std::_Iosb<int>::adjustfield
PUBLIC	?basefield@?$_Iosb@H@std@@2W4_Fmtflags@12@B	; std::_Iosb<int>::basefield
PUBLIC	?floatfield@?$_Iosb@H@std@@2W4_Fmtflags@12@B	; std::_Iosb<int>::floatfield
PUBLIC	?goodbit@?$_Iosb@H@std@@2W4_Iostate@12@B	; std::_Iosb<int>::goodbit
PUBLIC	?eofbit@?$_Iosb@H@std@@2W4_Iostate@12@B		; std::_Iosb<int>::eofbit
PUBLIC	?failbit@?$_Iosb@H@std@@2W4_Iostate@12@B	; std::_Iosb<int>::failbit
PUBLIC	?is_signed@?$numeric_limits@K@std@@2_NB		; std::numeric_limits<unsigned long>::is_signed
PUBLIC	?badbit@?$_Iosb@H@std@@2W4_Iostate@12@B		; std::_Iosb<int>::badbit
PUBLIC	?digits@?$numeric_limits@K@std@@2HB		; std::numeric_limits<unsigned long>::digits
PUBLIC	?_Hardfail@?$_Iosb@H@std@@2W4_Iostate@12@B	; std::_Iosb<int>::_Hardfail
PUBLIC	?digits10@?$numeric_limits@K@std@@2HB		; std::numeric_limits<unsigned long>::digits10
PUBLIC	?in@?$_Iosb@H@std@@2W4_Openmode@12@B		; std::_Iosb<int>::in
PUBLIC	?out@?$_Iosb@H@std@@2W4_Openmode@12@B		; std::_Iosb<int>::out
PUBLIC	?ate@?$_Iosb@H@std@@2W4_Openmode@12@B		; std::_Iosb<int>::ate
PUBLIC	?app@?$_Iosb@H@std@@2W4_Openmode@12@B		; std::_Iosb<int>::app
PUBLIC	?trunc@?$_Iosb@H@std@@2W4_Openmode@12@B		; std::_Iosb<int>::trunc
PUBLIC	?_Nocreate@?$_Iosb@H@std@@2W4_Openmode@12@B	; std::_Iosb<int>::_Nocreate
PUBLIC	?_Noreplace@?$_Iosb@H@std@@2W4_Openmode@12@B	; std::_Iosb<int>::_Noreplace
PUBLIC	?binary@?$_Iosb@H@std@@2W4_Openmode@12@B	; std::_Iosb<int>::binary
PUBLIC	?beg@?$_Iosb@H@std@@2W4_Seekdir@12@B		; std::_Iosb<int>::beg
PUBLIC	?cur@?$_Iosb@H@std@@2W4_Seekdir@12@B		; std::_Iosb<int>::cur
PUBLIC	?is_signed@?$numeric_limits@_J@std@@2_NB	; std::numeric_limits<__int64>::is_signed
PUBLIC	?end@?$_Iosb@H@std@@2W4_Seekdir@12@B		; std::_Iosb<int>::end
PUBLIC	?digits@?$numeric_limits@_J@std@@2HB		; std::numeric_limits<__int64>::digits
PUBLIC	?digits10@?$numeric_limits@_J@std@@2HB		; std::numeric_limits<__int64>::digits10
PUBLIC	?_Stream_err@failure@ios_base@std@@0W4io_errc@43@B ; std::ios_base::failure::_Stream_err
PUBLIC	?is_signed@?$numeric_limits@_K@std@@2_NB	; std::numeric_limits<unsigned __int64>::is_signed
PUBLIC	?digits@?$numeric_limits@_K@std@@2HB		; std::numeric_limits<unsigned __int64>::digits
PUBLIC	?digits10@?$numeric_limits@_K@std@@2HB		; std::numeric_limits<unsigned __int64>::digits10
PUBLIC	?digits@?$numeric_limits@M@std@@2HB		; std::numeric_limits<float>::digits
PUBLIC	?digits10@?$numeric_limits@M@std@@2HB		; std::numeric_limits<float>::digits10
PUBLIC	?max_digits10@?$numeric_limits@M@std@@2HB	; std::numeric_limits<float>::max_digits10
PUBLIC	?max_exponent@?$numeric_limits@M@std@@2HB	; std::numeric_limits<float>::max_exponent
PUBLIC	?max_exponent10@?$numeric_limits@M@std@@2HB	; std::numeric_limits<float>::max_exponent10
PUBLIC	?min_exponent@?$numeric_limits@M@std@@2HB	; std::numeric_limits<float>::min_exponent
PUBLIC	?min_exponent10@?$numeric_limits@M@std@@2HB	; std::numeric_limits<float>::min_exponent10
PUBLIC	?value@?$integral_constant@I$0A@@std@@2IB	; std::integral_constant<unsigned int,0>::value
PUBLIC	?digits@?$numeric_limits@N@std@@2HB		; std::numeric_limits<double>::digits
PUBLIC	?digits10@?$numeric_limits@N@std@@2HB		; std::numeric_limits<double>::digits10
PUBLIC	?max_digits10@?$numeric_limits@N@std@@2HB	; std::numeric_limits<double>::max_digits10
PUBLIC	?max_exponent@?$numeric_limits@N@std@@2HB	; std::numeric_limits<double>::max_exponent
PUBLIC	?max_exponent10@?$numeric_limits@N@std@@2HB	; std::numeric_limits<double>::max_exponent10
PUBLIC	?min_exponent@?$numeric_limits@N@std@@2HB	; std::numeric_limits<double>::min_exponent
PUBLIC	?min_exponent10@?$numeric_limits@N@std@@2HB	; std::numeric_limits<double>::min_exponent10
PUBLIC	?digits@?$numeric_limits@O@std@@2HB		; std::numeric_limits<long double>::digits
PUBLIC	?digits10@?$numeric_limits@O@std@@2HB		; std::numeric_limits<long double>::digits10
PUBLIC	?max_digits10@?$numeric_limits@O@std@@2HB	; std::numeric_limits<long double>::max_digits10
PUBLIC	?max_exponent@?$numeric_limits@O@std@@2HB	; std::numeric_limits<long double>::max_exponent
PUBLIC	?max_exponent10@?$numeric_limits@O@std@@2HB	; std::numeric_limits<long double>::max_exponent10
PUBLIC	?min_exponent@?$numeric_limits@O@std@@2HB	; std::numeric_limits<long double>::min_exponent
PUBLIC	?min_exponent10@?$numeric_limits@O@std@@2HB	; std::numeric_limits<long double>::min_exponent10
PUBLIC	?collate@?$_Locbase@H@std@@2HB			; std::_Locbase<int>::collate
PUBLIC	?ctype@?$_Locbase@H@std@@2HB			; std::_Locbase<int>::ctype
PUBLIC	?monetary@?$_Locbase@H@std@@2HB			; std::_Locbase<int>::monetary
PUBLIC	?numeric@?$_Locbase@H@std@@2HB			; std::_Locbase<int>::numeric
PUBLIC	?time@?$_Locbase@H@std@@2HB			; std::_Locbase<int>::time
PUBLIC	?value@?$_Sizeof@U_Nil@std@@U12@U12@U12@U12@U12@U12@U12@@std@@2IB ; std::_Sizeof<std::_Nil,std::_Nil,std::_Nil,std::_Nil,std::_Nil,std::_Nil,std::_Nil,std::_Nil>::value
PUBLIC	?messages@?$_Locbase@H@std@@2HB			; std::_Locbase<int>::messages
PUBLIC	?all@?$_Locbase@H@std@@2HB			; std::_Locbase<int>::all
PUBLIC	?none@?$_Locbase@H@std@@2HB			; std::_Locbase<int>::none
PUBLIC	?has_denorm@_Num_base@std@@2W4float_denorm_style@2@B ; std::_Num_base::has_denorm
PUBLIC	?has_denorm_loss@_Num_base@std@@2_NB		; std::_Num_base::has_denorm_loss
PUBLIC	?has_infinity@_Num_base@std@@2_NB		; std::_Num_base::has_infinity
PUBLIC	?has_quiet_NaN@_Num_base@std@@2_NB		; std::_Num_base::has_quiet_NaN
PUBLIC	?has_signaling_NaN@_Num_base@std@@2_NB		; std::_Num_base::has_signaling_NaN
PUBLIC	?is_bounded@_Num_base@std@@2_NB			; std::_Num_base::is_bounded
PUBLIC	?is_exact@_Num_base@std@@2_NB			; std::_Num_base::is_exact
PUBLIC	?is_iec559@_Num_base@std@@2_NB			; std::_Num_base::is_iec559
PUBLIC	?is_integer@_Num_base@std@@2_NB			; std::_Num_base::is_integer
PUBLIC	?is_modulo@_Num_base@std@@2_NB			; std::_Num_base::is_modulo
PUBLIC	?table_size@?$ctype@D@std@@2IB			; std::ctype<char>::table_size
PUBLIC	?is_signed@_Num_base@std@@2_NB			; std::_Num_base::is_signed
PUBLIC	?is_specialized@_Num_base@std@@2_NB		; std::_Num_base::is_specialized
PUBLIC	?tinyness_before@_Num_base@std@@2_NB		; std::_Num_base::tinyness_before
;	COMDAT ?tinyness_before@_Num_base@std@@2_NB
CONST	SEGMENT
?tinyness_before@_Num_base@std@@2_NB DB 00H		; std::_Num_base::tinyness_before
CONST	ENDS
;	COMDAT ?is_specialized@_Num_base@std@@2_NB
CONST	SEGMENT
?is_specialized@_Num_base@std@@2_NB DB 00H		; std::_Num_base::is_specialized
CONST	ENDS
;	COMDAT ?is_signed@_Num_base@std@@2_NB
CONST	SEGMENT
?is_signed@_Num_base@std@@2_NB DB 00H			; std::_Num_base::is_signed
CONST	ENDS
;	COMDAT ?table_size@?$ctype@D@std@@2IB
CONST	SEGMENT
?table_size@?$ctype@D@std@@2IB DD 0100H			; std::ctype<char>::table_size
CONST	ENDS
;	COMDAT ?is_modulo@_Num_base@std@@2_NB
CONST	SEGMENT
?is_modulo@_Num_base@std@@2_NB DB 00H			; std::_Num_base::is_modulo
CONST	ENDS
;	COMDAT ?is_integer@_Num_base@std@@2_NB
CONST	SEGMENT
?is_integer@_Num_base@std@@2_NB DB 00H			; std::_Num_base::is_integer
CONST	ENDS
;	COMDAT ?is_iec559@_Num_base@std@@2_NB
CONST	SEGMENT
?is_iec559@_Num_base@std@@2_NB DB 00H			; std::_Num_base::is_iec559
CONST	ENDS
;	COMDAT ?is_exact@_Num_base@std@@2_NB
CONST	SEGMENT
?is_exact@_Num_base@std@@2_NB DB 00H			; std::_Num_base::is_exact
CONST	ENDS
;	COMDAT ?is_bounded@_Num_base@std@@2_NB
CONST	SEGMENT
?is_bounded@_Num_base@std@@2_NB DB 00H			; std::_Num_base::is_bounded
CONST	ENDS
;	COMDAT ?has_signaling_NaN@_Num_base@std@@2_NB
CONST	SEGMENT
?has_signaling_NaN@_Num_base@std@@2_NB DB 00H		; std::_Num_base::has_signaling_NaN
CONST	ENDS
;	COMDAT ?has_quiet_NaN@_Num_base@std@@2_NB
CONST	SEGMENT
?has_quiet_NaN@_Num_base@std@@2_NB DB 00H		; std::_Num_base::has_quiet_NaN
CONST	ENDS
;	COMDAT ?has_infinity@_Num_base@std@@2_NB
CONST	SEGMENT
?has_infinity@_Num_base@std@@2_NB DB 00H		; std::_Num_base::has_infinity
CONST	ENDS
;	COMDAT ?has_denorm_loss@_Num_base@std@@2_NB
CONST	SEGMENT
?has_denorm_loss@_Num_base@std@@2_NB DB 00H		; std::_Num_base::has_denorm_loss
CONST	ENDS
;	COMDAT ?has_denorm@_Num_base@std@@2W4float_denorm_style@2@B
CONST	SEGMENT
?has_denorm@_Num_base@std@@2W4float_denorm_style@2@B DD 00H ; std::_Num_base::has_denorm
CONST	ENDS
;	COMDAT ?none@?$_Locbase@H@std@@2HB
CONST	SEGMENT
?none@?$_Locbase@H@std@@2HB DD 00H			; std::_Locbase<int>::none
CONST	ENDS
;	COMDAT ?all@?$_Locbase@H@std@@2HB
CONST	SEGMENT
?all@?$_Locbase@H@std@@2HB DD 03fH			; std::_Locbase<int>::all
CONST	ENDS
;	COMDAT ?messages@?$_Locbase@H@std@@2HB
CONST	SEGMENT
?messages@?$_Locbase@H@std@@2HB DD 020H			; std::_Locbase<int>::messages
CONST	ENDS
;	COMDAT ?value@?$_Sizeof@U_Nil@std@@U12@U12@U12@U12@U12@U12@U12@@std@@2IB
CONST	SEGMENT
?value@?$_Sizeof@U_Nil@std@@U12@U12@U12@U12@U12@U12@U12@@std@@2IB DD 00H ; std::_Sizeof<std::_Nil,std::_Nil,std::_Nil,std::_Nil,std::_Nil,std::_Nil,std::_Nil,std::_Nil>::value
CONST	ENDS
;	COMDAT ?time@?$_Locbase@H@std@@2HB
CONST	SEGMENT
?time@?$_Locbase@H@std@@2HB DD 010H			; std::_Locbase<int>::time
CONST	ENDS
;	COMDAT ?numeric@?$_Locbase@H@std@@2HB
CONST	SEGMENT
?numeric@?$_Locbase@H@std@@2HB DD 08H			; std::_Locbase<int>::numeric
CONST	ENDS
;	COMDAT ?monetary@?$_Locbase@H@std@@2HB
CONST	SEGMENT
?monetary@?$_Locbase@H@std@@2HB DD 04H			; std::_Locbase<int>::monetary
CONST	ENDS
;	COMDAT ?ctype@?$_Locbase@H@std@@2HB
CONST	SEGMENT
?ctype@?$_Locbase@H@std@@2HB DD 02H			; std::_Locbase<int>::ctype
CONST	ENDS
;	COMDAT ?collate@?$_Locbase@H@std@@2HB
CONST	SEGMENT
?collate@?$_Locbase@H@std@@2HB DD 01H			; std::_Locbase<int>::collate
CONST	ENDS
;	COMDAT ?min_exponent10@?$numeric_limits@O@std@@2HB
CONST	SEGMENT
?min_exponent10@?$numeric_limits@O@std@@2HB DD 0fffffecdH ; std::numeric_limits<long double>::min_exponent10
CONST	ENDS
;	COMDAT ?min_exponent@?$numeric_limits@O@std@@2HB
CONST	SEGMENT
?min_exponent@?$numeric_limits@O@std@@2HB DD 0fffffc03H	; std::numeric_limits<long double>::min_exponent
CONST	ENDS
;	COMDAT ?max_exponent10@?$numeric_limits@O@std@@2HB
CONST	SEGMENT
?max_exponent10@?$numeric_limits@O@std@@2HB DD 0134H	; std::numeric_limits<long double>::max_exponent10
CONST	ENDS
;	COMDAT ?max_exponent@?$numeric_limits@O@std@@2HB
CONST	SEGMENT
?max_exponent@?$numeric_limits@O@std@@2HB DD 0400H	; std::numeric_limits<long double>::max_exponent
CONST	ENDS
;	COMDAT ?max_digits10@?$numeric_limits@O@std@@2HB
CONST	SEGMENT
?max_digits10@?$numeric_limits@O@std@@2HB DD 011H	; std::numeric_limits<long double>::max_digits10
CONST	ENDS
;	COMDAT ?digits10@?$numeric_limits@O@std@@2HB
CONST	SEGMENT
?digits10@?$numeric_limits@O@std@@2HB DD 0fH		; std::numeric_limits<long double>::digits10
CONST	ENDS
;	COMDAT ?digits@?$numeric_limits@O@std@@2HB
CONST	SEGMENT
?digits@?$numeric_limits@O@std@@2HB DD 035H		; std::numeric_limits<long double>::digits
CONST	ENDS
;	COMDAT ?min_exponent10@?$numeric_limits@N@std@@2HB
CONST	SEGMENT
?min_exponent10@?$numeric_limits@N@std@@2HB DD 0fffffecdH ; std::numeric_limits<double>::min_exponent10
CONST	ENDS
;	COMDAT ?min_exponent@?$numeric_limits@N@std@@2HB
CONST	SEGMENT
?min_exponent@?$numeric_limits@N@std@@2HB DD 0fffffc03H	; std::numeric_limits<double>::min_exponent
CONST	ENDS
;	COMDAT ?max_exponent10@?$numeric_limits@N@std@@2HB
CONST	SEGMENT
?max_exponent10@?$numeric_limits@N@std@@2HB DD 0134H	; std::numeric_limits<double>::max_exponent10
CONST	ENDS
;	COMDAT ?max_exponent@?$numeric_limits@N@std@@2HB
CONST	SEGMENT
?max_exponent@?$numeric_limits@N@std@@2HB DD 0400H	; std::numeric_limits<double>::max_exponent
CONST	ENDS
;	COMDAT ?max_digits10@?$numeric_limits@N@std@@2HB
CONST	SEGMENT
?max_digits10@?$numeric_limits@N@std@@2HB DD 011H	; std::numeric_limits<double>::max_digits10
CONST	ENDS
;	COMDAT ?digits10@?$numeric_limits@N@std@@2HB
CONST	SEGMENT
?digits10@?$numeric_limits@N@std@@2HB DD 0fH		; std::numeric_limits<double>::digits10
CONST	ENDS
;	COMDAT ?digits@?$numeric_limits@N@std@@2HB
CONST	SEGMENT
?digits@?$numeric_limits@N@std@@2HB DD 035H		; std::numeric_limits<double>::digits
CONST	ENDS
;	COMDAT ?value@?$integral_constant@I$0A@@std@@2IB
CONST	SEGMENT
?value@?$integral_constant@I$0A@@std@@2IB DD 00H	; std::integral_constant<unsigned int,0>::value
CONST	ENDS
;	COMDAT ?min_exponent10@?$numeric_limits@M@std@@2HB
CONST	SEGMENT
?min_exponent10@?$numeric_limits@M@std@@2HB DD 0ffffffdbH ; std::numeric_limits<float>::min_exponent10
CONST	ENDS
;	COMDAT ?min_exponent@?$numeric_limits@M@std@@2HB
CONST	SEGMENT
?min_exponent@?$numeric_limits@M@std@@2HB DD 0ffffff83H	; std::numeric_limits<float>::min_exponent
CONST	ENDS
;	COMDAT ?max_exponent10@?$numeric_limits@M@std@@2HB
CONST	SEGMENT
?max_exponent10@?$numeric_limits@M@std@@2HB DD 026H	; std::numeric_limits<float>::max_exponent10
CONST	ENDS
;	COMDAT ?max_exponent@?$numeric_limits@M@std@@2HB
CONST	SEGMENT
?max_exponent@?$numeric_limits@M@std@@2HB DD 080H	; std::numeric_limits<float>::max_exponent
CONST	ENDS
;	COMDAT ?max_digits10@?$numeric_limits@M@std@@2HB
CONST	SEGMENT
?max_digits10@?$numeric_limits@M@std@@2HB DD 09H	; std::numeric_limits<float>::max_digits10
CONST	ENDS
;	COMDAT ?digits10@?$numeric_limits@M@std@@2HB
CONST	SEGMENT
?digits10@?$numeric_limits@M@std@@2HB DD 06H		; std::numeric_limits<float>::digits10
CONST	ENDS
;	COMDAT ?digits@?$numeric_limits@M@std@@2HB
CONST	SEGMENT
?digits@?$numeric_limits@M@std@@2HB DD 018H		; std::numeric_limits<float>::digits
CONST	ENDS
;	COMDAT ?digits10@?$numeric_limits@_K@std@@2HB
CONST	SEGMENT
?digits10@?$numeric_limits@_K@std@@2HB DD 013H		; std::numeric_limits<unsigned __int64>::digits10
CONST	ENDS
;	COMDAT ?digits@?$numeric_limits@_K@std@@2HB
CONST	SEGMENT
?digits@?$numeric_limits@_K@std@@2HB DD 040H		; std::numeric_limits<unsigned __int64>::digits
CONST	ENDS
;	COMDAT ?is_signed@?$numeric_limits@_K@std@@2_NB
CONST	SEGMENT
?is_signed@?$numeric_limits@_K@std@@2_NB DB 00H		; std::numeric_limits<unsigned __int64>::is_signed
CONST	ENDS
;	COMDAT ?_Stream_err@failure@ios_base@std@@0W4io_errc@43@B
CONST	SEGMENT
?_Stream_err@failure@ios_base@std@@0W4io_errc@43@B DD 01H ; std::ios_base::failure::_Stream_err
CONST	ENDS
;	COMDAT ?digits10@?$numeric_limits@_J@std@@2HB
CONST	SEGMENT
?digits10@?$numeric_limits@_J@std@@2HB DD 012H		; std::numeric_limits<__int64>::digits10
CONST	ENDS
;	COMDAT ?digits@?$numeric_limits@_J@std@@2HB
CONST	SEGMENT
?digits@?$numeric_limits@_J@std@@2HB DD 03fH		; std::numeric_limits<__int64>::digits
CONST	ENDS
;	COMDAT ?end@?$_Iosb@H@std@@2W4_Seekdir@12@B
CONST	SEGMENT
?end@?$_Iosb@H@std@@2W4_Seekdir@12@B DD 02H		; std::_Iosb<int>::end
CONST	ENDS
;	COMDAT ?is_signed@?$numeric_limits@_J@std@@2_NB
CONST	SEGMENT
?is_signed@?$numeric_limits@_J@std@@2_NB DB 01H		; std::numeric_limits<__int64>::is_signed
CONST	ENDS
;	COMDAT ?cur@?$_Iosb@H@std@@2W4_Seekdir@12@B
CONST	SEGMENT
?cur@?$_Iosb@H@std@@2W4_Seekdir@12@B DD 01H		; std::_Iosb<int>::cur
CONST	ENDS
;	COMDAT ?beg@?$_Iosb@H@std@@2W4_Seekdir@12@B
CONST	SEGMENT
?beg@?$_Iosb@H@std@@2W4_Seekdir@12@B DD 00H		; std::_Iosb<int>::beg
CONST	ENDS
;	COMDAT ?binary@?$_Iosb@H@std@@2W4_Openmode@12@B
CONST	SEGMENT
?binary@?$_Iosb@H@std@@2W4_Openmode@12@B DD 020H	; std::_Iosb<int>::binary
CONST	ENDS
;	COMDAT ?_Noreplace@?$_Iosb@H@std@@2W4_Openmode@12@B
CONST	SEGMENT
?_Noreplace@?$_Iosb@H@std@@2W4_Openmode@12@B DD 080H	; std::_Iosb<int>::_Noreplace
CONST	ENDS
;	COMDAT ?_Nocreate@?$_Iosb@H@std@@2W4_Openmode@12@B
CONST	SEGMENT
?_Nocreate@?$_Iosb@H@std@@2W4_Openmode@12@B DD 040H	; std::_Iosb<int>::_Nocreate
CONST	ENDS
;	COMDAT ?trunc@?$_Iosb@H@std@@2W4_Openmode@12@B
CONST	SEGMENT
?trunc@?$_Iosb@H@std@@2W4_Openmode@12@B DD 010H		; std::_Iosb<int>::trunc
CONST	ENDS
;	COMDAT ?app@?$_Iosb@H@std@@2W4_Openmode@12@B
CONST	SEGMENT
?app@?$_Iosb@H@std@@2W4_Openmode@12@B DD 08H		; std::_Iosb<int>::app
CONST	ENDS
;	COMDAT ?ate@?$_Iosb@H@std@@2W4_Openmode@12@B
CONST	SEGMENT
?ate@?$_Iosb@H@std@@2W4_Openmode@12@B DD 04H		; std::_Iosb<int>::ate
CONST	ENDS
;	COMDAT ?out@?$_Iosb@H@std@@2W4_Openmode@12@B
CONST	SEGMENT
?out@?$_Iosb@H@std@@2W4_Openmode@12@B DD 02H		; std::_Iosb<int>::out
CONST	ENDS
;	COMDAT ?in@?$_Iosb@H@std@@2W4_Openmode@12@B
CONST	SEGMENT
?in@?$_Iosb@H@std@@2W4_Openmode@12@B DD 01H		; std::_Iosb<int>::in
CONST	ENDS
;	COMDAT ?digits10@?$numeric_limits@K@std@@2HB
CONST	SEGMENT
?digits10@?$numeric_limits@K@std@@2HB DD 09H		; std::numeric_limits<unsigned long>::digits10
CONST	ENDS
;	COMDAT ?_Hardfail@?$_Iosb@H@std@@2W4_Iostate@12@B
CONST	SEGMENT
?_Hardfail@?$_Iosb@H@std@@2W4_Iostate@12@B DD 010H	; std::_Iosb<int>::_Hardfail
CONST	ENDS
;	COMDAT ?digits@?$numeric_limits@K@std@@2HB
CONST	SEGMENT
?digits@?$numeric_limits@K@std@@2HB DD 020H		; std::numeric_limits<unsigned long>::digits
CONST	ENDS
;	COMDAT ?badbit@?$_Iosb@H@std@@2W4_Iostate@12@B
CONST	SEGMENT
?badbit@?$_Iosb@H@std@@2W4_Iostate@12@B DD 04H		; std::_Iosb<int>::badbit
CONST	ENDS
;	COMDAT ?is_signed@?$numeric_limits@K@std@@2_NB
CONST	SEGMENT
?is_signed@?$numeric_limits@K@std@@2_NB DB 00H		; std::numeric_limits<unsigned long>::is_signed
CONST	ENDS
;	COMDAT ?failbit@?$_Iosb@H@std@@2W4_Iostate@12@B
CONST	SEGMENT
?failbit@?$_Iosb@H@std@@2W4_Iostate@12@B DD 02H		; std::_Iosb<int>::failbit
CONST	ENDS
;	COMDAT ?eofbit@?$_Iosb@H@std@@2W4_Iostate@12@B
CONST	SEGMENT
?eofbit@?$_Iosb@H@std@@2W4_Iostate@12@B DD 01H		; std::_Iosb<int>::eofbit
CONST	ENDS
;	COMDAT ?goodbit@?$_Iosb@H@std@@2W4_Iostate@12@B
CONST	SEGMENT
?goodbit@?$_Iosb@H@std@@2W4_Iostate@12@B DD 00H		; std::_Iosb<int>::goodbit
CONST	ENDS
;	COMDAT ?floatfield@?$_Iosb@H@std@@2W4_Fmtflags@12@B
CONST	SEGMENT
?floatfield@?$_Iosb@H@std@@2W4_Fmtflags@12@B DD 03000H	; std::_Iosb<int>::floatfield
CONST	ENDS
;	COMDAT ?basefield@?$_Iosb@H@std@@2W4_Fmtflags@12@B
CONST	SEGMENT
?basefield@?$_Iosb@H@std@@2W4_Fmtflags@12@B DD 0e00H	; std::_Iosb<int>::basefield
CONST	ENDS
;	COMDAT ?adjustfield@?$_Iosb@H@std@@2W4_Fmtflags@12@B
CONST	SEGMENT
?adjustfield@?$_Iosb@H@std@@2W4_Fmtflags@12@B DD 01c0H	; std::_Iosb<int>::adjustfield
CONST	ENDS
;	COMDAT ?_Stdio@?$_Iosb@H@std@@2W4_Fmtflags@12@B
CONST	SEGMENT
?_Stdio@?$_Iosb@H@std@@2W4_Fmtflags@12@B DD 08000H	; std::_Iosb<int>::_Stdio
CONST	ENDS
;	COMDAT ?boolalpha@?$_Iosb@H@std@@2W4_Fmtflags@12@B
CONST	SEGMENT
?boolalpha@?$_Iosb@H@std@@2W4_Fmtflags@12@B DD 04000H	; std::_Iosb<int>::boolalpha
CONST	ENDS
;	COMDAT ?hexfloat@?$_Iosb@H@std@@2W4_Fmtflags@12@B
CONST	SEGMENT
?hexfloat@?$_Iosb@H@std@@2W4_Fmtflags@12@B DD 03000H	; std::_Iosb<int>::hexfloat
CONST	ENDS
;	COMDAT ?digits10@?$numeric_limits@J@std@@2HB
CONST	SEGMENT
?digits10@?$numeric_limits@J@std@@2HB DD 09H		; std::numeric_limits<long>::digits10
CONST	ENDS
;	COMDAT ?fixed@?$_Iosb@H@std@@2W4_Fmtflags@12@B
CONST	SEGMENT
?fixed@?$_Iosb@H@std@@2W4_Fmtflags@12@B DD 02000H	; std::_Iosb<int>::fixed
CONST	ENDS
;	COMDAT ?digits@?$numeric_limits@J@std@@2HB
CONST	SEGMENT
?digits@?$numeric_limits@J@std@@2HB DD 01fH		; std::numeric_limits<long>::digits
CONST	ENDS
;	COMDAT ?scientific@?$_Iosb@H@std@@2W4_Fmtflags@12@B
CONST	SEGMENT
?scientific@?$_Iosb@H@std@@2W4_Fmtflags@12@B DD 01000H	; std::_Iosb<int>::scientific
CONST	ENDS
;	COMDAT ?hex@?$_Iosb@H@std@@2W4_Fmtflags@12@B
CONST	SEGMENT
?hex@?$_Iosb@H@std@@2W4_Fmtflags@12@B DD 0800H		; std::_Iosb<int>::hex
CONST	ENDS
;	COMDAT ?is_signed@?$numeric_limits@J@std@@2_NB
CONST	SEGMENT
?is_signed@?$numeric_limits@J@std@@2_NB DB 01H		; std::numeric_limits<long>::is_signed
CONST	ENDS
;	COMDAT ?oct@?$_Iosb@H@std@@2W4_Fmtflags@12@B
CONST	SEGMENT
?oct@?$_Iosb@H@std@@2W4_Fmtflags@12@B DD 0400H		; std::_Iosb<int>::oct
CONST	ENDS
;	COMDAT ?dec@?$_Iosb@H@std@@2W4_Fmtflags@12@B
CONST	SEGMENT
?dec@?$_Iosb@H@std@@2W4_Fmtflags@12@B DD 0200H		; std::_Iosb<int>::dec
CONST	ENDS
;	COMDAT ?internal@?$_Iosb@H@std@@2W4_Fmtflags@12@B
CONST	SEGMENT
?internal@?$_Iosb@H@std@@2W4_Fmtflags@12@B DD 0100H	; std::_Iosb<int>::internal
CONST	ENDS
;	COMDAT ?right@?$_Iosb@H@std@@2W4_Fmtflags@12@B
CONST	SEGMENT
?right@?$_Iosb@H@std@@2W4_Fmtflags@12@B DD 080H		; std::_Iosb<int>::right
CONST	ENDS
;	COMDAT ?left@?$_Iosb@H@std@@2W4_Fmtflags@12@B
CONST	SEGMENT
?left@?$_Iosb@H@std@@2W4_Fmtflags@12@B DD 040H		; std::_Iosb<int>::left
CONST	ENDS
;	COMDAT ?showpos@?$_Iosb@H@std@@2W4_Fmtflags@12@B
CONST	SEGMENT
?showpos@?$_Iosb@H@std@@2W4_Fmtflags@12@B DD 020H	; std::_Iosb<int>::showpos
CONST	ENDS
;	COMDAT ?showpoint@?$_Iosb@H@std@@2W4_Fmtflags@12@B
CONST	SEGMENT
?showpoint@?$_Iosb@H@std@@2W4_Fmtflags@12@B DD 010H	; std::_Iosb<int>::showpoint
CONST	ENDS
;	COMDAT ?showbase@?$_Iosb@H@std@@2W4_Fmtflags@12@B
CONST	SEGMENT
?showbase@?$_Iosb@H@std@@2W4_Fmtflags@12@B DD 08H	; std::_Iosb<int>::showbase
CONST	ENDS
;	COMDAT ?uppercase@?$_Iosb@H@std@@2W4_Fmtflags@12@B
CONST	SEGMENT
?uppercase@?$_Iosb@H@std@@2W4_Fmtflags@12@B DD 04H	; std::_Iosb<int>::uppercase
CONST	ENDS
;	COMDAT ?unitbuf@?$_Iosb@H@std@@2W4_Fmtflags@12@B
CONST	SEGMENT
?unitbuf@?$_Iosb@H@std@@2W4_Fmtflags@12@B DD 02H	; std::_Iosb<int>::unitbuf
CONST	ENDS
;	COMDAT ?digits10@?$numeric_limits@I@std@@2HB
CONST	SEGMENT
?digits10@?$numeric_limits@I@std@@2HB DD 09H		; std::numeric_limits<unsigned int>::digits10
CONST	ENDS
;	COMDAT ?skipws@?$_Iosb@H@std@@2W4_Fmtflags@12@B
CONST	SEGMENT
?skipws@?$_Iosb@H@std@@2W4_Fmtflags@12@B DD 01H		; std::_Iosb<int>::skipws
CONST	ENDS
;	COMDAT ?digits@?$numeric_limits@I@std@@2HB
CONST	SEGMENT
?digits@?$numeric_limits@I@std@@2HB DD 020H		; std::numeric_limits<unsigned int>::digits
CONST	ENDS
;	COMDAT ?is_signed@?$numeric_limits@I@std@@2_NB
CONST	SEGMENT
?is_signed@?$numeric_limits@I@std@@2_NB DB 00H		; std::numeric_limits<unsigned int>::is_signed
CONST	ENDS
;	COMDAT ?digits10@?$numeric_limits@H@std@@2HB
CONST	SEGMENT
?digits10@?$numeric_limits@H@std@@2HB DD 09H		; std::numeric_limits<int>::digits10
CONST	ENDS
;	COMDAT ?digits@?$numeric_limits@H@std@@2HB
CONST	SEGMENT
?digits@?$numeric_limits@H@std@@2HB DD 01fH		; std::numeric_limits<int>::digits
CONST	ENDS
;	COMDAT ?value@?$_Sizeof@HU_Nil@std@@U12@U12@U12@U12@U12@U12@@std@@2IB
CONST	SEGMENT
?value@?$_Sizeof@HU_Nil@std@@U12@U12@U12@U12@U12@U12@@std@@2IB DD 01H ; std::_Sizeof<int,std::_Nil,std::_Nil,std::_Nil,std::_Nil,std::_Nil,std::_Nil,std::_Nil>::value
CONST	ENDS
;	COMDAT ?is_signed@?$numeric_limits@H@std@@2_NB
CONST	SEGMENT
?is_signed@?$numeric_limits@H@std@@2_NB DB 01H		; std::numeric_limits<int>::is_signed
CONST	ENDS
;	COMDAT ?digits10@?$numeric_limits@G@std@@2HB
CONST	SEGMENT
?digits10@?$numeric_limits@G@std@@2HB DD 04H		; std::numeric_limits<unsigned short>::digits10
CONST	ENDS
;	COMDAT ?digits@?$numeric_limits@G@std@@2HB
CONST	SEGMENT
?digits@?$numeric_limits@G@std@@2HB DD 010H		; std::numeric_limits<unsigned short>::digits
CONST	ENDS
;	COMDAT ?is_signed@?$numeric_limits@G@std@@2_NB
CONST	SEGMENT
?is_signed@?$numeric_limits@G@std@@2_NB DB 00H		; std::numeric_limits<unsigned short>::is_signed
CONST	ENDS
;	COMDAT ?digits10@?$numeric_limits@F@std@@2HB
CONST	SEGMENT
?digits10@?$numeric_limits@F@std@@2HB DD 04H		; std::numeric_limits<short>::digits10
CONST	ENDS
;	COMDAT ?digits@?$numeric_limits@F@std@@2HB
CONST	SEGMENT
?digits@?$numeric_limits@F@std@@2HB DD 0fH		; std::numeric_limits<short>::digits
CONST	ENDS
;	COMDAT ?is_signed@?$numeric_limits@F@std@@2_NB
CONST	SEGMENT
?is_signed@?$numeric_limits@F@std@@2_NB DB 01H		; std::numeric_limits<short>::is_signed
CONST	ENDS
;	COMDAT ?value@?$integral_constant@_N$00@std@@2_NB
CONST	SEGMENT
?value@?$integral_constant@_N$00@std@@2_NB DB 01H	; std::integral_constant<bool,1>::value
CONST	ENDS
;	COMDAT ?digits10@?$numeric_limits@E@std@@2HB
CONST	SEGMENT
?digits10@?$numeric_limits@E@std@@2HB DD 02H		; std::numeric_limits<unsigned char>::digits10
CONST	ENDS
;	COMDAT ?digits@?$numeric_limits@E@std@@2HB
CONST	SEGMENT
?digits@?$numeric_limits@E@std@@2HB DD 08H		; std::numeric_limits<unsigned char>::digits
CONST	ENDS
;	COMDAT ?value@?$integral_constant@_N$0A@@std@@2_NB
CONST	SEGMENT
?value@?$integral_constant@_N$0A@@std@@2_NB DB 00H	; std::integral_constant<bool,0>::value
CONST	ENDS
;	COMDAT ?is_signed@?$numeric_limits@E@std@@2_NB
CONST	SEGMENT
?is_signed@?$numeric_limits@E@std@@2_NB DB 00H		; std::numeric_limits<unsigned char>::is_signed
CONST	ENDS
;	COMDAT ?digits10@?$numeric_limits@C@std@@2HB
CONST	SEGMENT
?digits10@?$numeric_limits@C@std@@2HB DD 02H		; std::numeric_limits<signed char>::digits10
CONST	ENDS
;	COMDAT ?digits@?$numeric_limits@C@std@@2HB
CONST	SEGMENT
?digits@?$numeric_limits@C@std@@2HB DD 07H		; std::numeric_limits<signed char>::digits
CONST	ENDS
;	COMDAT ?is_signed@?$numeric_limits@C@std@@2_NB
CONST	SEGMENT
?is_signed@?$numeric_limits@C@std@@2_NB DB 01H		; std::numeric_limits<signed char>::is_signed
CONST	ENDS
CONST	SEGMENT
_L_2	DD	03f317218r			; 0.693147
CONST	ENDS
;	COMDAT ?digits10@?$numeric_limits@_N@std@@2HB
CONST	SEGMENT
?digits10@?$numeric_limits@_N@std@@2HB DD 00H		; std::numeric_limits<bool>::digits10
CONST	ENDS
;	COMDAT ?digits@?$numeric_limits@_N@std@@2HB
CONST	SEGMENT
?digits@?$numeric_limits@_N@std@@2HB DD 01H		; std::numeric_limits<bool>::digits
CONST	ENDS
;	COMDAT ?is_signed@?$numeric_limits@_N@std@@2_NB
CONST	SEGMENT
?is_signed@?$numeric_limits@_N@std@@2_NB DB 00H		; std::numeric_limits<bool>::is_signed
CONST	ENDS
;	COMDAT ?is_modulo@?$numeric_limits@_N@std@@2_NB
CONST	SEGMENT
?is_modulo@?$numeric_limits@_N@std@@2_NB DB 00H		; std::numeric_limits<bool>::is_modulo
CONST	ENDS
;	COMDAT ?digits10@?$numeric_limits@_W@std@@2HB
CONST	SEGMENT
?digits10@?$numeric_limits@_W@std@@2HB DD 04H		; std::numeric_limits<wchar_t>::digits10
CONST	ENDS
;	COMDAT ?digits@?$numeric_limits@_W@std@@2HB
CONST	SEGMENT
?digits@?$numeric_limits@_W@std@@2HB DD 010H		; std::numeric_limits<wchar_t>::digits
CONST	ENDS
;	COMDAT ?is_signed@?$numeric_limits@_W@std@@2_NB
CONST	SEGMENT
?is_signed@?$numeric_limits@_W@std@@2_NB DB 00H		; std::numeric_limits<wchar_t>::is_signed
CONST	ENDS
;	COMDAT ?digits10@?$numeric_limits@D@std@@2HB
CONST	SEGMENT
?digits10@?$numeric_limits@D@std@@2HB DD 02H		; std::numeric_limits<char>::digits10
CONST	ENDS
;	COMDAT ?digits@?$numeric_limits@D@std@@2HB
CONST	SEGMENT
?digits@?$numeric_limits@D@std@@2HB DD 07H		; std::numeric_limits<char>::digits
CONST	ENDS
;	COMDAT ?is_signed@?$numeric_limits@D@std@@2_NB
CONST	SEGMENT
?is_signed@?$numeric_limits@D@std@@2_NB DB 01H		; std::numeric_limits<char>::is_signed
CONST	ENDS
;	COMDAT ?radix@_Num_float_base@std@@2HB
CONST	SEGMENT
?radix@_Num_float_base@std@@2HB DD 02H			; std::_Num_float_base::radix
CONST	ENDS
;	COMDAT ?round_style@_Num_float_base@std@@2W4float_round_style@2@B
CONST	SEGMENT
?round_style@_Num_float_base@std@@2W4float_round_style@2@B DD 01H ; std::_Num_float_base::round_style
CONST	ENDS
;	COMDAT ?traps@_Num_float_base@std@@2_NB
CONST	SEGMENT
?traps@_Num_float_base@std@@2_NB DB 00H			; std::_Num_float_base::traps
CONST	ENDS
;	COMDAT ?tinyness_before@_Num_float_base@std@@2_NB
CONST	SEGMENT
?tinyness_before@_Num_float_base@std@@2_NB DB 01H	; std::_Num_float_base::tinyness_before
CONST	ENDS
;	COMDAT ?is_specialized@_Num_float_base@std@@2_NB
CONST	SEGMENT
?is_specialized@_Num_float_base@std@@2_NB DB 01H	; std::_Num_float_base::is_specialized
CONST	ENDS
;	COMDAT ?is_signed@_Num_float_base@std@@2_NB
CONST	SEGMENT
?is_signed@_Num_float_base@std@@2_NB DB 01H		; std::_Num_float_base::is_signed
CONST	ENDS
;	COMDAT ?is_modulo@_Num_float_base@std@@2_NB
CONST	SEGMENT
?is_modulo@_Num_float_base@std@@2_NB DB 00H		; std::_Num_float_base::is_modulo
CONST	ENDS
;	COMDAT ?is_integer@_Num_float_base@std@@2_NB
CONST	SEGMENT
?is_integer@_Num_float_base@std@@2_NB DB 00H		; std::_Num_float_base::is_integer
CONST	ENDS
;	COMDAT ?is_iec559@_Num_float_base@std@@2_NB
CONST	SEGMENT
?is_iec559@_Num_float_base@std@@2_NB DB 01H		; std::_Num_float_base::is_iec559
CONST	ENDS
;	COMDAT ?is_exact@_Num_float_base@std@@2_NB
CONST	SEGMENT
?is_exact@_Num_float_base@std@@2_NB DB 00H		; std::_Num_float_base::is_exact
CONST	ENDS
;	COMDAT ?is_bounded@_Num_float_base@std@@2_NB
CONST	SEGMENT
?is_bounded@_Num_float_base@std@@2_NB DB 01H		; std::_Num_float_base::is_bounded
CONST	ENDS
;	COMDAT ?has_signaling_NaN@_Num_float_base@std@@2_NB
CONST	SEGMENT
?has_signaling_NaN@_Num_float_base@std@@2_NB DB 01H	; std::_Num_float_base::has_signaling_NaN
CONST	ENDS
;	COMDAT ?has_quiet_NaN@_Num_float_base@std@@2_NB
CONST	SEGMENT
?has_quiet_NaN@_Num_float_base@std@@2_NB DB 01H		; std::_Num_float_base::has_quiet_NaN
CONST	ENDS
;	COMDAT ?has_infinity@_Num_float_base@std@@2_NB
CONST	SEGMENT
?has_infinity@_Num_float_base@std@@2_NB DB 01H		; std::_Num_float_base::has_infinity
CONST	ENDS
;	COMDAT ?CMPDIRTYDATA_INTERVAL@FalconEntity@@2KB
CONST	SEGMENT
?CMPDIRTYDATA_INTERVAL@FalconEntity@@2KB DD 0c8H	; FalconEntity::CMPDIRTYDATA_INTERVAL
CONST	ENDS
;	COMDAT ?SIMDIRTYDATA_INTERVAL@FalconEntity@@2KB
CONST	SEGMENT
?SIMDIRTYDATA_INTERVAL@FalconEntity@@2KB DD 0c8H	; FalconEntity::SIMDIRTYDATA_INTERVAL
CONST	ENDS
;	COMDAT ?has_denorm_loss@_Num_float_base@std@@2_NB
CONST	SEGMENT
?has_denorm_loss@_Num_float_base@std@@2_NB DB 01H	; std::_Num_float_base::has_denorm_loss
CONST	ENDS
;	COMDAT ?has_denorm@_Num_float_base@std@@2W4float_denorm_style@2@B
CONST	SEGMENT
?has_denorm@_Num_float_base@std@@2W4float_denorm_style@2@B DD 01H ; std::_Num_float_base::has_denorm
CONST	ENDS
;	COMDAT ?radix@_Num_int_base@std@@2HB
CONST	SEGMENT
?radix@_Num_int_base@std@@2HB DD 02H			; std::_Num_int_base::radix
CONST	ENDS
;	COMDAT ?is_specialized@_Num_int_base@std@@2_NB
CONST	SEGMENT
?is_specialized@_Num_int_base@std@@2_NB DB 01H		; std::_Num_int_base::is_specialized
CONST	ENDS
;	COMDAT ?is_modulo@_Num_int_base@std@@2_NB
CONST	SEGMENT
?is_modulo@_Num_int_base@std@@2_NB DB 01H		; std::_Num_int_base::is_modulo
CONST	ENDS
;	COMDAT ?is_integer@_Num_int_base@std@@2_NB
CONST	SEGMENT
?is_integer@_Num_int_base@std@@2_NB DB 01H		; std::_Num_int_base::is_integer
CONST	ENDS
;	COMDAT ?is_exact@_Num_int_base@std@@2_NB
CONST	SEGMENT
?is_exact@_Num_int_base@std@@2_NB DB 01H		; std::_Num_int_base::is_exact
CONST	ENDS
;	COMDAT ?is_bounded@_Num_int_base@std@@2_NB
CONST	SEGMENT
?is_bounded@_Num_int_base@std@@2_NB DB 01H		; std::_Num_int_base::is_bounded
CONST	ENDS
;	COMDAT ?radix@_Num_base@std@@2HB
CONST	SEGMENT
?radix@_Num_base@std@@2HB DD 00H			; std::_Num_base::radix
CONST	ENDS
;	COMDAT ?min_exponent10@_Num_base@std@@2HB
CONST	SEGMENT
?min_exponent10@_Num_base@std@@2HB DD 00H		; std::_Num_base::min_exponent10
CONST	ENDS
;	COMDAT ?min_exponent@_Num_base@std@@2HB
CONST	SEGMENT
?min_exponent@_Num_base@std@@2HB DD 00H			; std::_Num_base::min_exponent
CONST	ENDS
;	COMDAT ?max_exponent10@_Num_base@std@@2HB
CONST	SEGMENT
?max_exponent10@_Num_base@std@@2HB DD 00H		; std::_Num_base::max_exponent10
CONST	ENDS
;	COMDAT ?max_exponent@_Num_base@std@@2HB
CONST	SEGMENT
?max_exponent@_Num_base@std@@2HB DD 00H			; std::_Num_base::max_exponent
CONST	ENDS
;	COMDAT ?max_digits10@_Num_base@std@@2HB
CONST	SEGMENT
?max_digits10@_Num_base@std@@2HB DD 00H			; std::_Num_base::max_digits10
CONST	ENDS
;	COMDAT ?digits10@_Num_base@std@@2HB
CONST	SEGMENT
?digits10@_Num_base@std@@2HB DD 00H			; std::_Num_base::digits10
CONST	ENDS
;	COMDAT ?digits@_Num_base@std@@2HB
CONST	SEGMENT
?digits@_Num_base@std@@2HB DD 00H			; std::_Num_base::digits
CONST	ENDS
;	COMDAT ?round_style@_Num_base@std@@2W4float_round_style@2@B
CONST	SEGMENT
?round_style@_Num_base@std@@2W4float_round_style@2@B DD 00H ; std::_Num_base::round_style
CONST	ENDS
;	COMDAT ?traps@_Num_base@std@@2_NB
CONST	SEGMENT
?traps@_Num_base@std@@2_NB DB 00H			; std::_Num_base::traps
CONST	ENDS
PUBLIC	??2@YAPAXIPAX@Z					; operator new
PUBLIC	??3@YAXPAX0@Z					; operator delete
PUBLIC	?length@?$char_traits@D@std@@SAIPBD@Z		; std::char_traits<char>::length
PUBLIC	?copy@?$char_traits@D@std@@SAPADPADPBDI@Z	; std::char_traits<char>::copy
PUBLIC	?move@?$char_traits@D@std@@SAPADPADPBDI@Z	; std::char_traits<char>::move
PUBLIC	?assign@?$char_traits@D@std@@SAXAADABD@Z	; std::char_traits<char>::assign
PUBLIC	??0?$allocator@D@std@@QAE@XZ			; std::allocator<char>::allocator<char>
PUBLIC	?deallocate@?$allocator@D@std@@QAEXPADI@Z	; std::allocator<char>::deallocate
PUBLIC	?allocate@?$allocator@D@std@@QAEPADI@Z		; std::allocator<char>::allocate
PUBLIC	?max_size@?$allocator@D@std@@QBEIXZ		; std::allocator<char>::max_size
PUBLIC	?max_size@?$allocator_traits@V?$allocator@D@std@@@std@@SAIABV?$allocator@D@2@@Z ; std::allocator_traits<std::allocator<char> >::max_size
PUBLIC	??0?$_Wrap_alloc@V?$allocator@D@std@@@std@@QAE@XZ ; std::_Wrap_alloc<std::allocator<char> >::_Wrap_alloc<std::allocator<char> >
PUBLIC	?allocate@?$_Wrap_alloc@V?$allocator@D@std@@@std@@QAEPADI@Z ; std::_Wrap_alloc<std::allocator<char> >::allocate
PUBLIC	?deallocate@?$_Wrap_alloc@V?$allocator@D@std@@@std@@QAEXPADI@Z ; std::_Wrap_alloc<std::allocator<char> >::deallocate
PUBLIC	?max_size@?$_Wrap_alloc@V?$allocator@D@std@@@std@@QBEIXZ ; std::_Wrap_alloc<std::allocator<char> >::max_size
PUBLIC	??0?$_String_val@U?$_Simple_types@D@std@@@std@@QAE@XZ ; std::_String_val<std::_Simple_types<char> >::_String_val<std::_Simple_types<char> >
PUBLIC	?_Myptr@?$_String_val@U?$_Simple_types@D@std@@@std@@QAEPADXZ ; std::_String_val<std::_Simple_types<char> >::_Myptr
PUBLIC	?_Myptr@?$_String_val@U?$_Simple_types@D@std@@@std@@QBEPBDXZ ; std::_String_val<std::_Simple_types<char> >::_Myptr
PUBLIC	??0?$_String_alloc@$0A@U?$_String_base_types@DV?$allocator@D@std@@@std@@@std@@QAE@ABV?$allocator@D@1@@Z ; std::_String_alloc<0,std::_String_base_types<char,std::allocator<char> > >::_String_alloc<0,std::_String_base_types<char,std::allocator<char> > >
PUBLIC	?_Getal@?$_String_alloc@$0A@U?$_String_base_types@DV?$allocator@D@std@@@std@@@std@@QBE?AU?$_Wrap_alloc@V?$allocator@D@std@@@2@XZ ; std::_String_alloc<0,std::_String_base_types<char,std::allocator<char> > >::_Getal
PUBLIC	??0?$basic_string@DU?$char_traits@D@std@@V?$allocator@D@2@@std@@QAE@PBD@Z ; std::basic_string<char,std::char_traits<char>,std::allocator<char> >::basic_string<char,std::char_traits<char>,std::allocator<char> >
PUBLIC	?assign@?$basic_string@DU?$char_traits@D@std@@V?$allocator@D@2@@std@@QAEAAV12@ABV12@II@Z ; std::basic_string<char,std::char_traits<char>,std::allocator<char> >::assign
PUBLIC	?assign@?$basic_string@DU?$char_traits@D@std@@V?$allocator@D@2@@std@@QAEAAV12@PBDI@Z ; std::basic_string<char,std::char_traits<char>,std::allocator<char> >::assign
PUBLIC	?assign@?$basic_string@DU?$char_traits@D@std@@V?$allocator@D@2@@std@@QAEAAV12@PBD@Z ; std::basic_string<char,std::char_traits<char>,std::allocator<char> >::assign
PUBLIC	?erase@?$basic_string@DU?$char_traits@D@std@@V?$allocator@D@2@@std@@QAEAAV12@I@Z ; std::basic_string<char,std::char_traits<char>,std::allocator<char> >::erase
PUBLIC	?erase@?$basic_string@DU?$char_traits@D@std@@V?$allocator@D@2@@std@@QAEAAV12@II@Z ; std::basic_string<char,std::char_traits<char>,std::allocator<char> >::erase
PUBLIC	?size@?$basic_string@DU?$char_traits@D@std@@V?$allocator@D@2@@std@@QBEIXZ ; std::basic_string<char,std::char_traits<char>,std::allocator<char> >::size
PUBLIC	?max_size@?$basic_string@DU?$char_traits@D@std@@V?$allocator@D@2@@std@@QBEIXZ ; std::basic_string<char,std::char_traits<char>,std::allocator<char> >::max_size
PUBLIC	?_Copy@?$basic_string@DU?$char_traits@D@std@@V?$allocator@D@2@@std@@QAEXII@Z ; std::basic_string<char,std::char_traits<char>,std::allocator<char> >::_Copy
PUBLIC	?_Eos@?$basic_string@DU?$char_traits@D@std@@V?$allocator@D@2@@std@@QAEXI@Z ; std::basic_string<char,std::char_traits<char>,std::allocator<char> >::_Eos
PUBLIC	?_Grow@?$basic_string@DU?$char_traits@D@std@@V?$allocator@D@2@@std@@QAE_NI_N@Z ; std::basic_string<char,std::char_traits<char>,std::allocator<char> >::_Grow
PUBLIC	?_Inside@?$basic_string@DU?$char_traits@D@std@@V?$allocator@D@2@@std@@QAE_NPBD@Z ; std::basic_string<char,std::char_traits<char>,std::allocator<char> >::_Inside
PUBLIC	?_Tidy@?$basic_string@DU?$char_traits@D@std@@V?$allocator@D@2@@std@@QAEX_NI@Z ; std::basic_string<char,std::char_traits<char>,std::allocator<char> >::_Tidy
PUBLIC	?_Xlen@?$basic_string@DU?$char_traits@D@std@@V?$allocator@D@2@@std@@QBEXXZ ; std::basic_string<char,std::char_traits<char>,std::allocator<char> >::_Xlen
PUBLIC	?_Xran@?$basic_string@DU?$char_traits@D@std@@V?$allocator@D@2@@std@@QBEXXZ ; std::basic_string<char,std::char_traits<char>,std::allocator<char> >::_Xran
PUBLIC	?ScratchPad@ICPClass@@QAEXHHH@Z			; ICPClass::ScratchPad
PUBLIC	?IsICPSet@ICPClass@@QAEHH@Z			; ICPClass::IsICPSet
PUBLIC	?GetBingoFuel@AircraftClass@@QAEMXZ		; AircraftClass::GetBingoFuel
PUBLIC	??0id@locale@std@@QAE@I@Z			; std::locale::id::id
PUBLIC	?generic_category@std@@YAABVerror_category@1@XZ	; std::generic_category
PUBLIC	?system_category@std@@YAABVerror_category@1@XZ	; std::system_category
PUBLIC	??0error_category@std@@QAE@XZ			; std::error_category::error_category
PUBLIC	??1error_category@std@@UAE@XZ			; std::error_category::~error_category
PUBLIC	?default_error_condition@error_category@std@@UBE?AVerror_condition@2@H@Z ; std::error_category::default_error_condition
PUBLIC	?equivalent@error_category@std@@UBE_NHABVerror_condition@2@@Z ; std::error_category::equivalent
PUBLIC	?equivalent@error_category@std@@UBE_NABVerror_code@2@H@Z ; std::error_category::equivalent
PUBLIC	??8error_category@std@@QBE_NABV01@@Z		; std::error_category::operator==
PUBLIC	??_Gerror_category@std@@UAEPAXI@Z		; std::error_category::`scalar deleting destructor'
PUBLIC	?value@error_code@std@@QBEHXZ			; std::error_code::value
PUBLIC	?category@error_code@std@@QBEABVerror_category@2@XZ ; std::error_code::category
PUBLIC	??0error_condition@std@@QAE@HABVerror_category@1@@Z ; std::error_condition::error_condition
PUBLIC	?value@error_condition@std@@QBEHXZ		; std::error_condition::value
PUBLIC	?category@error_condition@std@@QBEABVerror_category@2@XZ ; std::error_condition::category
PUBLIC	??8error_condition@std@@QBE_NABV01@@Z		; std::error_condition::operator==
PUBLIC	??0_Generic_error_category@std@@QAE@XZ		; std::_Generic_error_category::_Generic_error_category
PUBLIC	?name@_Generic_error_category@std@@UBEPBDXZ	; std::_Generic_error_category::name
PUBLIC	?message@_Generic_error_category@std@@UBE?AV?$basic_string@DU?$char_traits@D@std@@V?$allocator@D@2@@2@H@Z ; std::_Generic_error_category::message
PUBLIC	??1_Generic_error_category@std@@UAE@XZ		; std::_Generic_error_category::~_Generic_error_category
PUBLIC	??_G_Generic_error_category@std@@UAEPAXI@Z	; std::_Generic_error_category::`scalar deleting destructor'
PUBLIC	??0_Iostream_error_category@std@@QAE@XZ		; std::_Iostream_error_category::_Iostream_error_category
PUBLIC	?name@_Iostream_error_category@std@@UBEPBDXZ	; std::_Iostream_error_category::name
PUBLIC	?message@_Iostream_error_category@std@@UBE?AV?$basic_string@DU?$char_traits@D@std@@V?$allocator@D@2@@2@H@Z ; std::_Iostream_error_category::message
PUBLIC	??1_Iostream_error_category@std@@UAE@XZ		; std::_Iostream_error_category::~_Iostream_error_category
PUBLIC	??_G_Iostream_error_category@std@@UAEPAXI@Z	; std::_Iostream_error_category::`scalar deleting destructor'
PUBLIC	??0_System_error_category@std@@QAE@XZ		; std::_System_error_category::_System_error_category
PUBLIC	?name@_System_error_category@std@@UBEPBDXZ	; std::_System_error_category::name
PUBLIC	?message@_System_error_category@std@@UBE?AV?$basic_string@DU?$char_traits@D@std@@V?$allocator@D@2@@2@H@Z ; std::_System_error_category::message
PUBLIC	?default_error_condition@_System_error_category@std@@UBE?AVerror_condition@2@H@Z ; std::_System_error_category::default_error_condition
PUBLIC	??1_System_error_category@std@@UAE@XZ		; std::_System_error_category::~_System_error_category
PUBLIC	??_G_System_error_category@std@@UAEPAXI@Z	; std::_System_error_category::`scalar deleting destructor'
PUBLIC	??$construct@PADAAPAD@?$_Wrap_alloc@V?$allocator@D@std@@@std@@QAEXPAPADAAPAD@Z ; std::_Wrap_alloc<std::allocator<char> >::construct<char *,char * &>
PUBLIC	??$destroy@PAD@?$_Wrap_alloc@V?$allocator@D@std@@@std@@QAEXPAPAD@Z ; std::_Wrap_alloc<std::allocator<char> >::destroy<char *>
PUBLIC	??$addressof@D@std@@YAPADAAD@Z			; std::addressof<char>
PUBLIC	??$_Allocate@D@std@@YAPADIPAD@Z			; std::_Allocate<char>
PUBLIC	??$forward@AAPAD@std@@YAAAPADAAPAD@Z		; std::forward<char * &>
PUBLIC	??$construct@PADAAPAD@?$allocator_traits@V?$allocator@D@std@@@std@@SAXAAV?$allocator@D@1@PAPADAAPAD@Z ; std::allocator_traits<std::allocator<char> >::construct<char *,char * &>
PUBLIC	??$destroy@PAD@?$allocator_traits@V?$allocator@D@std@@@std@@SAXAAV?$allocator@D@1@PAPAD@Z ; std::allocator_traits<std::allocator<char> >::destroy<char *>
PUBLIC	??$construct@PADAAPAD@?$allocator@D@std@@QAEXPAPADAAPAD@Z ; std::allocator<char>::construct<char *,char * &>
PUBLIC	??$destroy@PAD@?$allocator@D@std@@QAEXPAPAD@Z	; std::allocator<char>::destroy<char *>
PUBLIC	??_C@_00CNPNBAHC@?$AA@				; `string'
PUBLIC	??_7error_category@std@@6B@			; std::error_category::`vftable'
PUBLIC	??_7_Generic_error_category@std@@6B@		; std::_Generic_error_category::`vftable'
PUBLIC	??_C@_07DCLBNMLN@generic?$AA@			; `string'
PUBLIC	??_C@_0O@BFJCFAAK@unknown?5error?$AA@		; `string'
PUBLIC	??_7_Iostream_error_category@std@@6B@		; std::_Iostream_error_category::`vftable'
PUBLIC	??_C@_08LLGCOLLL@iostream?$AA@			; `string'
PUBLIC	??_C@_0BG@PADBLCHM@iostream?5stream?5error?$AA@	; `string'
PUBLIC	??_7_System_error_category@std@@6B@		; std::_System_error_category::`vftable'
PUBLIC	??_C@_06FHFOAHML@system?$AA@			; `string'
PUBLIC	?_Generic_object@?$_Error_objects@H@std@@2V_Generic_error_category@2@A ; std::_Error_objects<int>::_Generic_object
PUBLIC	?_Iostream_object@?$_Error_objects@H@std@@2V_Iostream_error_category@2@A ; std::_Error_objects<int>::_Iostream_object
PUBLIC	?_System_object@?$_Error_objects@H@std@@2V_System_error_category@2@A ; std::_Error_objects<int>::_System_object
PUBLIC	??_C@_02DPKJAMEF@?$CFd?$AA@			; `string'
PUBLIC	?id@?$num_put@DV?$back_insert_iterator@V?$basic_string@DU?$char_traits@D@std@@V?$allocator@D@2@@std@@@std@@@std@@2V0locale@2@A ; std::num_put<char,std::back_insert_iterator<std::basic_string<char,std::char_traits<char>,std::allocator<char> > > >::id
PUBLIC	?id@?$num_put@_WV?$back_insert_iterator@V?$basic_string@_WU?$char_traits@_W@std@@V?$allocator@_W@2@@std@@@std@@@std@@2V0locale@2@A ; std::num_put<wchar_t,std::back_insert_iterator<std::basic_string<wchar_t,std::char_traits<wchar_t>,std::allocator<wchar_t> > > >::id
PUBLIC	??_C@_06KFLHOMKJ@?5?$CFdLBS?$AA@		; `string'
PUBLIC	??_C@_05EGKEKLOI@?$CFdLBS?$AA@			; `string'
PUBLIC	??_C@_04COHIKBOA@?$CFdFT?$AA@			; `string'
PUBLIC	??_C@_04EFBICKBP@?$CF?93d?$AA@			; `string'
PUBLIC	??_C@_07MMCPJPJA@?$CF?9d?$CFsFT?$AA@		; `string'
PUBLIC	??_C@_07JKMKOOFG@?$CF3?40fFT?$AA@		; `string'
PUBLIC	??_C@_03CEOELEEM@A?9A?$AA@			; `string'
PUBLIC	??_C@_03HCLOBDMK@A?9G?$AA@			; `string'
PUBLIC	??_C@_01GBGANLPD@0?$AA@				; `string'
PUBLIC	??_C@_05KHKKLCAB@?$CF2?40d?$AA@			; `string'
PUBLIC	??_C@_05JHNKGONK@?$CF2?43f?$AA@			; `string'
PUBLIC	??_C@_05OAAKMINB@?$CF1?40d?$AA@			; `string'
PUBLIC	??_C@_05KLHICNFN@?$CF3?42f?$AA@			; `string'
PUBLIC	??_C@_06NNABEIOP@?$CF3?41f?8?$AA@		; `string'
PUBLIC	??_C@_01IMBAIPIC@?$AC?$AA@			; `string'
PUBLIC	?id@?$numpunct@D@std@@2V0locale@2@A		; std::numpunct<char>::id
PUBLIC	?id@?$numpunct@_W@std@@2V0locale@2@A		; std::numpunct<wchar_t>::id
PUBLIC	??_C@_0BI@CFPLBAOH@invalid?5string?5position?$AA@ ; `string'
PUBLIC	??_C@_0BA@JFNIOLAK@string?5too?5long?$AA@	; `string'
PUBLIC	??_R4error_category@std@@6B@			; std::error_category::`RTTI Complete Object Locator'
PUBLIC	??_R0?AVerror_category@std@@@8			; std::error_category `RTTI Type Descriptor'
PUBLIC	??_R3error_category@std@@8			; std::error_category::`RTTI Class Hierarchy Descriptor'
PUBLIC	??_R2error_category@std@@8			; std::error_category::`RTTI Base Class Array'
PUBLIC	??_R1A@?0A@EA@error_category@std@@8		; std::error_category::`RTTI Base Class Descriptor at (0,-1,0,64)'
PUBLIC	??_R4_Generic_error_category@std@@6B@		; std::_Generic_error_category::`RTTI Complete Object Locator'
PUBLIC	??_R0?AV_Generic_error_category@std@@@8		; std::_Generic_error_category `RTTI Type Descriptor'
PUBLIC	??_R3_Generic_error_category@std@@8		; std::_Generic_error_category::`RTTI Class Hierarchy Descriptor'
PUBLIC	??_R2_Generic_error_category@std@@8		; std::_Generic_error_category::`RTTI Base Class Array'
PUBLIC	??_R1A@?0A@EA@_Generic_error_category@std@@8	; std::_Generic_error_category::`RTTI Base Class Descriptor at (0,-1,0,64)'
PUBLIC	??_R4_Iostream_error_category@std@@6B@		; std::_Iostream_error_category::`RTTI Complete Object Locator'
PUBLIC	??_R0?AV_Iostream_error_category@std@@@8	; std::_Iostream_error_category `RTTI Type Descriptor'
PUBLIC	??_R3_Iostream_error_category@std@@8		; std::_Iostream_error_category::`RTTI Class Hierarchy Descriptor'
PUBLIC	??_R2_Iostream_error_category@std@@8		; std::_Iostream_error_category::`RTTI Base Class Array'
PUBLIC	??_R1A@?0A@EA@_Iostream_error_category@std@@8	; std::_Iostream_error_category::`RTTI Base Class Descriptor at (0,-1,0,64)'
PUBLIC	??_R4_System_error_category@std@@6B@		; std::_System_error_category::`RTTI Complete Object Locator'
PUBLIC	??_R0?AV_System_error_category@std@@@8		; std::_System_error_category `RTTI Type Descriptor'
PUBLIC	??_R3_System_error_category@std@@8		; std::_System_error_category::`RTTI Class Hierarchy Descriptor'
PUBLIC	??_R2_System_error_category@std@@8		; std::_System_error_category::`RTTI Base Class Array'
PUBLIC	??_R1A@?0A@EA@_System_error_category@std@@8	; std::_System_error_category::`RTTI Base Class Descriptor at (0,-1,0,64)'
EXTRN	__purecall:PROC
EXTRN	??2@YAPAXI@Z:PROC				; operator new
EXTRN	??3@YAXPAX@Z:PROC				; operator delete
EXTRN	_atexit:PROC
EXTRN	_memcpy:PROC
EXTRN	_strlen:PROC
EXTRN	_memmove:PROC
EXTRN	_sprintf:PROC
EXTRN	?_Xbad_alloc@std@@YAXXZ:PROC			; std::_Xbad_alloc
EXTRN	?_Xlength_error@std@@YAXPBD@Z:PROC		; std::_Xlength_error
EXTRN	?_Xout_of_range@std@@YAXPBD@Z:PROC		; std::_Xout_of_range
EXTRN	?MakeInverted@ICPClass@@QAEXHHH@Z:PROC		; ICPClass::MakeInverted
EXTRN	?FillDEDMatrix@ICPClass@@QAEXHHPADH@Z:PROC	; ICPClass::FillDEDMatrix
EXTRN	?ClearInverted@ICPClass@@QAEXHHH@Z:PROC		; ICPClass::ClearInverted
EXTRN	?ClearString@ICPClass@@QAEXXZ:PROC		; ICPClass::ClearString
EXTRN	?GetPlayerAircraft@SimulationDriver@@QBEPAVAircraftClass@@XZ:PROC ; SimulationDriver::GetPlayerAircraft
EXTRN	??_Eerror_category@std@@UAEPAXI@Z:PROC		; std::error_category::`vector deleting destructor'
EXTRN	?_Syserror_map@std@@YAPBDH@Z:PROC		; std::_Syserror_map
EXTRN	?_Winerror_map@std@@YAPBDH@Z:PROC		; std::_Winerror_map
EXTRN	??_E_Generic_error_category@std@@UAEPAXI@Z:PROC	; std::_Generic_error_category::`vector deleting destructor'
EXTRN	??_E_Iostream_error_category@std@@UAEPAXI@Z:PROC ; std::_Iostream_error_category::`vector deleting destructor'
EXTRN	??_E_System_error_category@std@@UAEPAXI@Z:PROC	; std::_System_error_category::`vector deleting destructor'
EXTRN	@__security_check_cookie@4:PROC
EXTRN	__CxxThrowException@8:PROC
EXTRN	___CxxFrameHandler3:PROC
EXTRN	__ftol2_sse:PROC
EXTRN	??_7type_info@@6B@:QWORD			; type_info::`vftable'
EXTRN	?SimDriver@@3VSimulationDriver@@A:BYTE		; SimDriver
EXTRN	?TheHud@@3PAVHudClass@@A:DWORD			; TheHud
EXTRN	___security_cookie:DWORD
EXTRN	__fltused:DWORD
_BSS	SEGMENT
_piecewise_construct DB 01H DUP (?)
_allocator_arg DB 01H DUP (?)
_BSS	ENDS
;	COMDAT ?_Generic_object@?$_Error_objects@H@std@@2V_Generic_error_category@2@A
_BSS	SEGMENT
?_Generic_object@?$_Error_objects@H@std@@2V_Generic_error_category@2@A DD 01H DUP (?) ; std::_Error_objects<int>::_Generic_object
_BSS	ENDS
;	COMDAT ?_Iostream_object@?$_Error_objects@H@std@@2V_Iostream_error_category@2@A
_BSS	SEGMENT
?_Iostream_object@?$_Error_objects@H@std@@2V_Iostream_error_category@2@A DD 01H DUP (?) ; std::_Error_objects<int>::_Iostream_object
_BSS	ENDS
;	COMDAT ?_System_object@?$_Error_objects@H@std@@2V_System_error_category@2@A
_BSS	SEGMENT
?_System_object@?$_Error_objects@H@std@@2V_System_error_category@2@A DD 01H DUP (?) ; std::_Error_objects<int>::_System_object
_BSS	ENDS
;	COMDAT ?id@?$num_put@DV?$back_insert_iterator@V?$basic_string@DU?$char_traits@D@std@@V?$allocator@D@2@@std@@@std@@@std@@2V0locale@2@A
_BSS	SEGMENT
?id@?$num_put@DV?$back_insert_iterator@V?$basic_string@DU?$char_traits@D@std@@V?$allocator@D@2@@std@@@std@@@std@@2V0locale@2@A DD 01H DUP (?) ; std::num_put<char,std::back_insert_iterator<std::basic_string<char,std::char_traits<char>,std::allocator<char> > > >::id
_BSS	ENDS
;	COMDAT ?id@?$num_put@_WV?$back_insert_iterator@V?$basic_string@_WU?$char_traits@_W@std@@V?$allocator@_W@2@@std@@@std@@@std@@2V0locale@2@A
_BSS	SEGMENT
?id@?$num_put@_WV?$back_insert_iterator@V?$basic_string@_WU?$char_traits@_W@std@@V?$allocator@_W@2@@std@@@std@@@std@@2V0locale@2@A DD 01H DUP (?) ; std::num_put<wchar_t,std::back_insert_iterator<std::basic_string<wchar_t,std::char_traits<wchar_t>,std::allocator<wchar_t> > > >::id
_BSS	ENDS
;	COMDAT ?id@?$numpunct@D@std@@2V0locale@2@A
_BSS	SEGMENT
?id@?$numpunct@D@std@@2V0locale@2@A DD 01H DUP (?)	; std::numpunct<char>::id
_BSS	ENDS
;	COMDAT ?id@?$numpunct@_W@std@@2V0locale@2@A
_BSS	SEGMENT
?id@?$numpunct@_W@std@@2V0locale@2@A DD 01H DUP (?)	; std::numpunct<wchar_t>::id
_BSS	ENDS
CRT$XCU	SEGMENT
_piecewise_construct$initializer$ DD FLAT:??__Epiecewise_construct@std@@YAXXZ
CRT$XCU	ENDS
;	COMDAT ??_R1A@?0A@EA@_System_error_category@std@@8
rdata$r	SEGMENT
??_R1A@?0A@EA@_System_error_category@std@@8 DD FLAT:??_R0?AV_System_error_category@std@@@8 ; std::_System_error_category::`RTTI Base Class Descriptor at (0,-1,0,64)'
	DD	02H
	DD	00H
	DD	0ffffffffH
	DD	00H
	DD	040H
	DD	FLAT:??_R3_System_error_category@std@@8
rdata$r	ENDS
;	COMDAT ??_R2_System_error_category@std@@8
rdata$r	SEGMENT
??_R2_System_error_category@std@@8 DD FLAT:??_R1A@?0A@EA@_System_error_category@std@@8 ; std::_System_error_category::`RTTI Base Class Array'
	DD	FLAT:??_R1A@?0A@EA@_Generic_error_category@std@@8
	DD	FLAT:??_R1A@?0A@EA@error_category@std@@8
rdata$r	ENDS
;	COMDAT ??_R3_System_error_category@std@@8
rdata$r	SEGMENT
??_R3_System_error_category@std@@8 DD 00H		; std::_System_error_category::`RTTI Class Hierarchy Descriptor'
	DD	00H
	DD	03H
	DD	FLAT:??_R2_System_error_category@std@@8
rdata$r	ENDS
;	COMDAT ??_R0?AV_System_error_category@std@@@8
_DATA	SEGMENT
??_R0?AV_System_error_category@std@@@8 DD FLAT:??_7type_info@@6B@ ; std::_System_error_category `RTTI Type Descriptor'
	DD	00H
	DB	'.?AV_System_error_category@std@@', 00H
_DATA	ENDS
;	COMDAT ??_R4_System_error_category@std@@6B@
rdata$r	SEGMENT
??_R4_System_error_category@std@@6B@ DD 00H		; std::_System_error_category::`RTTI Complete Object Locator'
	DD	00H
	DD	00H
	DD	FLAT:??_R0?AV_System_error_category@std@@@8
	DD	FLAT:??_R3_System_error_category@std@@8
rdata$r	ENDS
;	COMDAT ??_R1A@?0A@EA@_Iostream_error_category@std@@8
rdata$r	SEGMENT
??_R1A@?0A@EA@_Iostream_error_category@std@@8 DD FLAT:??_R0?AV_Iostream_error_category@std@@@8 ; std::_Iostream_error_category::`RTTI Base Class Descriptor at (0,-1,0,64)'
	DD	02H
	DD	00H
	DD	0ffffffffH
	DD	00H
	DD	040H
	DD	FLAT:??_R3_Iostream_error_category@std@@8
rdata$r	ENDS
;	COMDAT ??_R2_Iostream_error_category@std@@8
rdata$r	SEGMENT
??_R2_Iostream_error_category@std@@8 DD FLAT:??_R1A@?0A@EA@_Iostream_error_category@std@@8 ; std::_Iostream_error_category::`RTTI Base Class Array'
	DD	FLAT:??_R1A@?0A@EA@_Generic_error_category@std@@8
	DD	FLAT:??_R1A@?0A@EA@error_category@std@@8
rdata$r	ENDS
;	COMDAT ??_R3_Iostream_error_category@std@@8
rdata$r	SEGMENT
??_R3_Iostream_error_category@std@@8 DD 00H		; std::_Iostream_error_category::`RTTI Class Hierarchy Descriptor'
	DD	00H
	DD	03H
	DD	FLAT:??_R2_Iostream_error_category@std@@8
rdata$r	ENDS
;	COMDAT ??_R0?AV_Iostream_error_category@std@@@8
_DATA	SEGMENT
??_R0?AV_Iostream_error_category@std@@@8 DD FLAT:??_7type_info@@6B@ ; std::_Iostream_error_category `RTTI Type Descriptor'
	DD	00H
	DB	'.?AV_Iostream_error_category@std@@', 00H
_DATA	ENDS
;	COMDAT ??_R4_Iostream_error_category@std@@6B@
rdata$r	SEGMENT
??_R4_Iostream_error_category@std@@6B@ DD 00H		; std::_Iostream_error_category::`RTTI Complete Object Locator'
	DD	00H
	DD	00H
	DD	FLAT:??_R0?AV_Iostream_error_category@std@@@8
	DD	FLAT:??_R3_Iostream_error_category@std@@8
rdata$r	ENDS
;	COMDAT ??_R1A@?0A@EA@_Generic_error_category@std@@8
rdata$r	SEGMENT
??_R1A@?0A@EA@_Generic_error_category@std@@8 DD FLAT:??_R0?AV_Generic_error_category@std@@@8 ; std::_Generic_error_category::`RTTI Base Class Descriptor at (0,-1,0,64)'
	DD	01H
	DD	00H
	DD	0ffffffffH
	DD	00H
	DD	040H
	DD	FLAT:??_R3_Generic_error_category@std@@8
rdata$r	ENDS
;	COMDAT ??_R2_Generic_error_category@std@@8
rdata$r	SEGMENT
??_R2_Generic_error_category@std@@8 DD FLAT:??_R1A@?0A@EA@_Generic_error_category@std@@8 ; std::_Generic_error_category::`RTTI Base Class Array'
	DD	FLAT:??_R1A@?0A@EA@error_category@std@@8
rdata$r	ENDS
;	COMDAT ??_R3_Generic_error_category@std@@8
rdata$r	SEGMENT
??_R3_Generic_error_category@std@@8 DD 00H		; std::_Generic_error_category::`RTTI Class Hierarchy Descriptor'
	DD	00H
	DD	02H
	DD	FLAT:??_R2_Generic_error_category@std@@8
rdata$r	ENDS
;	COMDAT ??_R0?AV_Generic_error_category@std@@@8
_DATA	SEGMENT
??_R0?AV_Generic_error_category@std@@@8 DD FLAT:??_7type_info@@6B@ ; std::_Generic_error_category `RTTI Type Descriptor'
	DD	00H
	DB	'.?AV_Generic_error_category@std@@', 00H
_DATA	ENDS
;	COMDAT ??_R4_Generic_error_category@std@@6B@
rdata$r	SEGMENT
??_R4_Generic_error_category@std@@6B@ DD 00H		; std::_Generic_error_category::`RTTI Complete Object Locator'
	DD	00H
	DD	00H
	DD	FLAT:??_R0?AV_Generic_error_category@std@@@8
	DD	FLAT:??_R3_Generic_error_category@std@@8
rdata$r	ENDS
;	COMDAT ??_R1A@?0A@EA@error_category@std@@8
rdata$r	SEGMENT
??_R1A@?0A@EA@error_category@std@@8 DD FLAT:??_R0?AVerror_category@std@@@8 ; std::error_category::`RTTI Base Class Descriptor at (0,-1,0,64)'
	DD	00H
	DD	00H
	DD	0ffffffffH
	DD	00H
	DD	040H
	DD	FLAT:??_R3error_category@std@@8
rdata$r	ENDS
;	COMDAT ??_R2error_category@std@@8
rdata$r	SEGMENT
??_R2error_category@std@@8 DD FLAT:??_R1A@?0A@EA@error_category@std@@8 ; std::error_category::`RTTI Base Class Array'
rdata$r	ENDS
;	COMDAT ??_R3error_category@std@@8
rdata$r	SEGMENT
??_R3error_category@std@@8 DD 00H			; std::error_category::`RTTI Class Hierarchy Descriptor'
	DD	00H
	DD	01H
	DD	FLAT:??_R2error_category@std@@8
rdata$r	ENDS
;	COMDAT ??_R0?AVerror_category@std@@@8
_DATA	SEGMENT
??_R0?AVerror_category@std@@@8 DD FLAT:??_7type_info@@6B@ ; std::error_category `RTTI Type Descriptor'
	DD	00H
	DB	'.?AVerror_category@std@@', 00H
_DATA	ENDS
;	COMDAT ??_R4error_category@std@@6B@
rdata$r	SEGMENT
??_R4error_category@std@@6B@ DD 00H			; std::error_category::`RTTI Complete Object Locator'
	DD	00H
	DD	00H
	DD	FLAT:??_R0?AVerror_category@std@@@8
	DD	FLAT:??_R3error_category@std@@8
rdata$r	ENDS
;	COMDAT ??_C@_0BA@JFNIOLAK@string?5too?5long?$AA@
CONST	SEGMENT
??_C@_0BA@JFNIOLAK@string?5too?5long?$AA@ DB 'string too long', 00H ; `string'
CONST	ENDS
;	COMDAT ??_C@_0BI@CFPLBAOH@invalid?5string?5position?$AA@
CONST	SEGMENT
??_C@_0BI@CFPLBAOH@invalid?5string?5position?$AA@ DB 'invalid string posi'
	DB	'tion', 00H					; `string'
CONST	ENDS
;	COMDAT ??_C@_01IMBAIPIC@?$AC?$AA@
CONST	SEGMENT
??_C@_01IMBAIPIC@?$AC?$AA@ DB 02H, 00H			; `string'
CONST	ENDS
;	COMDAT ??_C@_06NNABEIOP@?$CF3?41f?8?$AA@
CONST	SEGMENT
??_C@_06NNABEIOP@?$CF3?41f?8?$AA@ DB '%3.1f''', 00H	; `string'
CONST	ENDS
;	COMDAT ??_C@_05KLHICNFN@?$CF3?42f?$AA@
CONST	SEGMENT
??_C@_05KLHICNFN@?$CF3?42f?$AA@ DB '%3.2f', 00H		; `string'
CONST	ENDS
;	COMDAT ??_C@_05OAAKMINB@?$CF1?40d?$AA@
CONST	SEGMENT
??_C@_05OAAKMINB@?$CF1?40d?$AA@ DB '%1.0d', 00H		; `string'
CONST	ENDS
;	COMDAT ??_C@_05JHNKGONK@?$CF2?43f?$AA@
CONST	SEGMENT
??_C@_05JHNKGONK@?$CF2?43f?$AA@ DB '%2.3f', 00H		; `string'
CONST	ENDS
;	COMDAT ??_C@_05KHKKLCAB@?$CF2?40d?$AA@
CONST	SEGMENT
??_C@_05KHKKLCAB@?$CF2?40d?$AA@ DB '%2.0d', 00H		; `string'
CONST	ENDS
;	COMDAT ??_C@_01GBGANLPD@0?$AA@
CONST	SEGMENT
??_C@_01GBGANLPD@0?$AA@ DB '0', 00H			; `string'
CONST	ENDS
;	COMDAT ??_C@_03HCLOBDMK@A?9G?$AA@
CONST	SEGMENT
??_C@_03HCLOBDMK@A?9G?$AA@ DB 'A-G', 00H		; `string'
CONST	ENDS
;	COMDAT ??_C@_03CEOELEEM@A?9A?$AA@
CONST	SEGMENT
??_C@_03CEOELEEM@A?9A?$AA@ DB 'A-A', 00H		; `string'
CONST	ENDS
;	COMDAT ??_C@_07JKMKOOFG@?$CF3?40fFT?$AA@
CONST	SEGMENT
??_C@_07JKMKOOFG@?$CF3?40fFT?$AA@ DB '%3.0fFT', 00H	; `string'
CONST	ENDS
;	COMDAT ??_C@_07MMCPJPJA@?$CF?9d?$CFsFT?$AA@
CONST	SEGMENT
??_C@_07MMCPJPJA@?$CF?9d?$CFsFT?$AA@ DB '%-d%sFT', 00H	; `string'
CONST	ENDS
;	COMDAT ??_C@_04EFBICKBP@?$CF?93d?$AA@
CONST	SEGMENT
??_C@_04EFBICKBP@?$CF?93d?$AA@ DB '%-3d', 00H		; `string'
CONST	ENDS
;	COMDAT ??_C@_04COHIKBOA@?$CFdFT?$AA@
CONST	SEGMENT
??_C@_04COHIKBOA@?$CFdFT?$AA@ DB '%dFT', 00H		; `string'
CONST	ENDS
;	COMDAT ??_C@_05EGKEKLOI@?$CFdLBS?$AA@
CONST	SEGMENT
??_C@_05EGKEKLOI@?$CFdLBS?$AA@ DB '%dLBS', 00H		; `string'
CONST	ENDS
;	COMDAT ??_C@_06KFLHOMKJ@?5?$CFdLBS?$AA@
CONST	SEGMENT
??_C@_06KFLHOMKJ@?5?$CFdLBS?$AA@ DB ' %dLBS', 00H	; `string'
CONST	ENDS
;	COMDAT ??_C@_02DPKJAMEF@?$CFd?$AA@
CONST	SEGMENT
??_C@_02DPKJAMEF@?$CFd?$AA@ DB '%d', 00H		; `string'
CONST	ENDS
;	COMDAT ??_C@_06FHFOAHML@system?$AA@
CONST	SEGMENT
??_C@_06FHFOAHML@system?$AA@ DB 'system', 00H		; `string'
CONST	ENDS
;	COMDAT ??_7_System_error_category@std@@6B@
CONST	SEGMENT
??_7_System_error_category@std@@6B@ DD FLAT:??_R4_System_error_category@std@@6B@ ; std::_System_error_category::`vftable'
	DD	FLAT:??_E_System_error_category@std@@UAEPAXI@Z
	DD	FLAT:?name@_System_error_category@std@@UBEPBDXZ
	DD	FLAT:?message@_System_error_category@std@@UBE?AV?$basic_string@DU?$char_traits@D@std@@V?$allocator@D@2@@2@H@Z
	DD	FLAT:?default_error_condition@_System_error_category@std@@UBE?AVerror_condition@2@H@Z
	DD	FLAT:?equivalent@error_category@std@@UBE_NABVerror_code@2@H@Z
	DD	FLAT:?equivalent@error_category@std@@UBE_NHABVerror_condition@2@@Z
CONST	ENDS
;	COMDAT ??_C@_0BG@PADBLCHM@iostream?5stream?5error?$AA@
CONST	SEGMENT
??_C@_0BG@PADBLCHM@iostream?5stream?5error?$AA@ DB 'iostream stream error'
	DB	00H						; `string'
CONST	ENDS
;	COMDAT ??_C@_08LLGCOLLL@iostream?$AA@
CONST	SEGMENT
??_C@_08LLGCOLLL@iostream?$AA@ DB 'iostream', 00H	; `string'
CONST	ENDS
;	COMDAT ??_7_Iostream_error_category@std@@6B@
CONST	SEGMENT
??_7_Iostream_error_category@std@@6B@ DD FLAT:??_R4_Iostream_error_category@std@@6B@ ; std::_Iostream_error_category::`vftable'
	DD	FLAT:??_E_Iostream_error_category@std@@UAEPAXI@Z
	DD	FLAT:?name@_Iostream_error_category@std@@UBEPBDXZ
	DD	FLAT:?message@_Iostream_error_category@std@@UBE?AV?$basic_string@DU?$char_traits@D@std@@V?$allocator@D@2@@2@H@Z
	DD	FLAT:?default_error_condition@error_category@std@@UBE?AVerror_condition@2@H@Z
	DD	FLAT:?equivalent@error_category@std@@UBE_NABVerror_code@2@H@Z
	DD	FLAT:?equivalent@error_category@std@@UBE_NHABVerror_condition@2@@Z
CONST	ENDS
;	COMDAT ??_C@_0O@BFJCFAAK@unknown?5error?$AA@
CONST	SEGMENT
??_C@_0O@BFJCFAAK@unknown?5error?$AA@ DB 'unknown error', 00H ; `string'
CONST	ENDS
;	COMDAT ??_C@_07DCLBNMLN@generic?$AA@
CONST	SEGMENT
??_C@_07DCLBNMLN@generic?$AA@ DB 'generic', 00H		; `string'
CONST	ENDS
;	COMDAT ??_7_Generic_error_category@std@@6B@
CONST	SEGMENT
??_7_Generic_error_category@std@@6B@ DD FLAT:??_R4_Generic_error_category@std@@6B@ ; std::_Generic_error_category::`vftable'
	DD	FLAT:??_E_Generic_error_category@std@@UAEPAXI@Z
	DD	FLAT:?name@_Generic_error_category@std@@UBEPBDXZ
	DD	FLAT:?message@_Generic_error_category@std@@UBE?AV?$basic_string@DU?$char_traits@D@std@@V?$allocator@D@2@@2@H@Z
	DD	FLAT:?default_error_condition@error_category@std@@UBE?AVerror_condition@2@H@Z
	DD	FLAT:?equivalent@error_category@std@@UBE_NABVerror_code@2@H@Z
	DD	FLAT:?equivalent@error_category@std@@UBE_NHABVerror_condition@2@@Z
CONST	ENDS
;	COMDAT ??_7error_category@std@@6B@
CONST	SEGMENT
??_7error_category@std@@6B@ DD FLAT:??_R4error_category@std@@6B@ ; std::error_category::`vftable'
	DD	FLAT:??_Eerror_category@std@@UAEPAXI@Z
	DD	FLAT:__purecall
	DD	FLAT:__purecall
	DD	FLAT:?default_error_condition@error_category@std@@UBE?AVerror_condition@2@H@Z
	DD	FLAT:?equivalent@error_category@std@@UBE_NABVerror_code@2@H@Z
	DD	FLAT:?equivalent@error_category@std@@UBE_NHABVerror_condition@2@@Z
CONST	ENDS
;	COMDAT ??_C@_00CNPNBAHC@?$AA@
CONST	SEGMENT
??_C@_00CNPNBAHC@?$AA@ DB 00H				; `string'
CONST	ENDS
;	COMDAT xdata$x
xdata$x	SEGMENT
__unwindtable$??$construct@PADAAPAD@?$allocator@D@std@@QAEXPAPADAAPAD@Z DD 0ffffffffH
	DD	FLAT:__unwindfunclet$??$construct@PADAAPAD@?$allocator@D@std@@QAEXPAPADAAPAD@Z$0
__ehfuncinfo$??$construct@PADAAPAD@?$allocator@D@std@@QAEXPAPADAAPAD@Z DD 019930522H
	DD	01H
	DD	FLAT:__unwindtable$??$construct@PADAAPAD@?$allocator@D@std@@QAEXPAPADAAPAD@Z
	DD	2 DUP(00H)
	DD	2 DUP(00H)
	DD	00H
	DD	01H
xdata$x	ENDS
;	COMDAT xdata$x
xdata$x	SEGMENT
__catchsym$?_Copy@?$basic_string@DU?$char_traits@D@std@@V?$allocator@D@2@@std@@QAEXII@Z$5 DD 040H
	DD	00H
	DD	00H
	DD	FLAT:__catch$?_Copy@?$basic_string@DU?$char_traits@D@std@@V?$allocator@D@2@@std@@QAEXII@Z$0
__catchsym$?_Copy@?$basic_string@DU?$char_traits@D@std@@V?$allocator@D@2@@std@@QAEXII@Z$4 DD 040H
	DD	00H
	DD	00H
	DD	FLAT:__catch$?_Copy@?$basic_string@DU?$char_traits@D@std@@V?$allocator@D@2@@std@@QAEXII@Z$1
__unwindtable$?_Copy@?$basic_string@DU?$char_traits@D@std@@V?$allocator@D@2@@std@@QAEXII@Z DD 0ffffffffH
	DD	00H
	DD	0ffffffffH
	DD	00H
	DD	01H
	DD	00H
	DD	01H
	DD	00H
__ehfuncinfo$?_Copy@?$basic_string@DU?$char_traits@D@std@@V?$allocator@D@2@@std@@QAEXII@Z DD 019930522H
	DD	04H
	DD	FLAT:__unwindtable$?_Copy@?$basic_string@DU?$char_traits@D@std@@V?$allocator@D@2@@std@@QAEXII@Z
	DD	02H
	DD	FLAT:__tryblocktable$?_Copy@?$basic_string@DU?$char_traits@D@std@@V?$allocator@D@2@@std@@QAEXII@Z
	DD	2 DUP(00H)
	DD	00H
	DD	01H
__tryblocktable$?_Copy@?$basic_string@DU?$char_traits@D@std@@V?$allocator@D@2@@std@@QAEXII@Z DD 02H
	DD	02H
	DD	03H
	DD	01H
	DD	FLAT:__catchsym$?_Copy@?$basic_string@DU?$char_traits@D@std@@V?$allocator@D@2@@std@@QAEXII@Z$4
	DD	00H
	DD	00H
	DD	03H
	DD	01H
	DD	FLAT:__catchsym$?_Copy@?$basic_string@DU?$char_traits@D@std@@V?$allocator@D@2@@std@@QAEXII@Z$5
xdata$x	ENDS
CRT$XCU	SEGMENT
_allocator_arg$initializer$ DD FLAT:??__Eallocator_arg@std@@YAXXZ
CRT$XCU	ENDS
;	COMDAT CRT$XCU
CRT$XCU	SEGMENT
?_Generic_object$initializer$@?$_Error_objects@H@std@@2P6AXXZA DD FLAT:??__E?_Generic_object@?$_Error_objects@H@std@@2V_Generic_error_category@2@A@@YAXXZ ; std::_Error_objects<int>::_Generic_object$initializer$
CRT$XCU	ENDS
;	COMDAT CRT$XCU
CRT$XCU	SEGMENT
?_Iostream_object$initializer$@?$_Error_objects@H@std@@2P6AXXZA DD FLAT:??__E?_Iostream_object@?$_Error_objects@H@std@@2V_Iostream_error_category@2@A@@YAXXZ ; std::_Error_objects<int>::_Iostream_object$initializer$
CRT$XCU	ENDS
;	COMDAT CRT$XCU
CRT$XCU	SEGMENT
?_System_object$initializer$@?$_Error_objects@H@std@@2P6AXXZA DD FLAT:??__E?_System_object@?$_Error_objects@H@std@@2V_System_error_category@2@A@@YAXXZ ; std::_Error_objects<int>::_System_object$initializer$
CRT$XCU	ENDS
;	COMDAT CRT$XCU
CRT$XCU	SEGMENT
?id$initializer$@?$num_put@DV?$back_insert_iterator@V?$basic_string@DU?$char_traits@D@std@@V?$allocator@D@2@@std@@@std@@@std@@2P6AXXZA DD FLAT:??__E?id@?$num_put@DV?$back_insert_iterator@V?$basic_string@DU?$char_traits@D@std@@V?$allocator@D@2@@std@@@std@@@std@@2V0locale@2@A@@YAXXZ ; std::num_put<char,std::back_insert_iterator<std::basic_string<char,std::char_traits<char>,std::allocator<char> > > >::id$initializer$
CRT$XCU	ENDS
;	COMDAT CRT$XCU
CRT$XCU	SEGMENT
?id$initializer$@?$num_put@_WV?$back_insert_iterator@V?$basic_string@_WU?$char_traits@_W@std@@V?$allocator@_W@2@@std@@@std@@@std@@2P6AXXZA DD FLAT:??__E?id@?$num_put@_WV?$back_insert_iterator@V?$basic_string@_WU?$char_traits@_W@std@@V?$allocator@_W@2@@std@@@std@@@std@@2V0locale@2@A@@YAXXZ ; std::num_put<wchar_t,std::back_insert_iterator<std::basic_string<wchar_t,std::char_traits<wchar_t>,std::allocator<wchar_t> > > >::id$initializer$
CRT$XCU	ENDS
;	COMDAT CRT$XCU
CRT$XCU	SEGMENT
?id$initializer$@?$numpunct@D@std@@2P6AXXZA DD FLAT:??__E?id@?$numpunct@D@std@@2V0locale@2@A@@YAXXZ ; std::numpunct<char>::id$initializer$
CRT$XCU	ENDS
;	COMDAT CRT$XCU
CRT$XCU	SEGMENT
?id$initializer$@?$numpunct@_W@std@@2P6AXXZA DD FLAT:??__E?id@?$numpunct@_W@std@@2V0locale@2@A@@YAXXZ ; std::numpunct<wchar_t>::id$initializer$
CRT$XCU	ENDS
; Function compile flags: /Odtp
; File c:\program files (x86)\microsoft visual studio 11.0\vc\include\xmemory0
;	COMDAT ??$destroy@PAD@?$allocator@D@std@@QAEXPAPAD@Z
_TEXT	SEGMENT
_this$ = -4						; size = 4
__Ptr$ = 8						; size = 4
??$destroy@PAD@?$allocator@D@std@@QAEXPAPAD@Z PROC	; std::allocator<char>::destroy<char *>, COMDAT
; _this$ = ecx

; 621  : 		void destroy(_Uty *_Ptr)

	push	ebp
	mov	ebp, esp
	push	ecx
	mov	DWORD PTR _this$[ebp], ecx

; 622  : 		{	// destroy object at _Ptr
; 623  : 		_Ptr->~_Uty();
; 624  : 		}

	mov	esp, ebp
	pop	ebp
	ret	4
??$destroy@PAD@?$allocator@D@std@@QAEXPAPAD@Z ENDP	; std::allocator<char>::destroy<char *>
_TEXT	ENDS
; Function compile flags: /Odtp
; File c:\program files (x86)\microsoft visual studio 11.0\vc\include\xmemory0
;	COMDAT ??$construct@PADAAPAD@?$allocator@D@std@@QAEXPAPADAAPAD@Z
_TEXT	SEGMENT
$T2 = -28						; size = 4
_this$ = -24						; size = 4
tv73 = -20						; size = 4
$T3 = -16						; size = 4
__$EHRec$ = -12						; size = 12
__Ptr$ = 8						; size = 4
__V0$ = 12						; size = 4
??$construct@PADAAPAD@?$allocator@D@std@@QAEXPAPADAAPAD@Z PROC ; std::allocator<char>::construct<char *,char * &>, COMDAT
; _this$ = ecx

; 617  : _VARIADIC_EXPAND_0X(_ALLOC_MEMBER_CONSTRUCT, , , , )

	push	ebp
	mov	ebp, esp
	push	-1
	push	__ehhandler$??$construct@PADAAPAD@?$allocator@D@std@@QAEXPAPADAAPAD@Z
	mov	eax, DWORD PTR fs:0
	push	eax
	sub	esp, 16					; 00000010H
	mov	eax, DWORD PTR ___security_cookie
	xor	eax, ebp
	push	eax
	lea	eax, DWORD PTR __$EHRec$[ebp]
	mov	DWORD PTR fs:0, eax
	mov	DWORD PTR _this$[ebp], ecx
	mov	eax, DWORD PTR __Ptr$[ebp]
	push	eax
	push	4
	call	??2@YAPAXIPAX@Z				; operator new
	add	esp, 8
	mov	DWORD PTR $T3[ebp], eax
	mov	DWORD PTR __$EHRec$[ebp+8], 0
	cmp	DWORD PTR $T3[ebp], 0
	je	SHORT $LN3@construct
	mov	ecx, DWORD PTR __V0$[ebp]
	push	ecx
	call	??$forward@AAPAD@std@@YAAAPADAAPAD@Z	; std::forward<char * &>
	add	esp, 4
	mov	edx, DWORD PTR $T3[ebp]
	mov	eax, DWORD PTR [eax]
	mov	DWORD PTR [edx], eax
	mov	ecx, DWORD PTR $T3[ebp]
	mov	DWORD PTR tv73[ebp], ecx
	jmp	SHORT $LN4@construct
$LN3@construct:
	mov	DWORD PTR tv73[ebp], 0
$LN4@construct:
	mov	edx, DWORD PTR tv73[ebp]
	mov	DWORD PTR $T2[ebp], edx
	mov	DWORD PTR __$EHRec$[ebp+8], -1
	mov	ecx, DWORD PTR __$EHRec$[ebp]
	mov	DWORD PTR fs:0, ecx
	pop	ecx
	mov	esp, ebp
	pop	ebp
	ret	8
_TEXT	ENDS
;	COMDAT text$x
text$x	SEGMENT
__unwindfunclet$??$construct@PADAAPAD@?$allocator@D@std@@QAEXPAPADAAPAD@Z$0:
	mov	eax, DWORD PTR __Ptr$[ebp]
	push	eax
	mov	eax, DWORD PTR $T3[ebp]
	push	eax
	call	??3@YAXPAX0@Z				; operator delete
	add	esp, 8
	ret	0
__ehhandler$??$construct@PADAAPAD@?$allocator@D@std@@QAEXPAPADAAPAD@Z:
	mov	edx, DWORD PTR [esp+8]
	lea	eax, DWORD PTR [edx+12]
	mov	ecx, DWORD PTR [edx-20]
	xor	ecx, eax
	call	@__security_check_cookie@4
	mov	eax, OFFSET __ehfuncinfo$??$construct@PADAAPAD@?$allocator@D@std@@QAEXPAPADAAPAD@Z
	jmp	___CxxFrameHandler3
text$x	ENDS
??$construct@PADAAPAD@?$allocator@D@std@@QAEXPAPADAAPAD@Z ENDP ; std::allocator<char>::construct<char *,char * &>
; Function compile flags: /Odtp
; File c:\program files (x86)\microsoft visual studio 11.0\vc\include\xlocnum
;	COMDAT ??__E?id@?$numpunct@_W@std@@2V0locale@2@A@@YAXXZ
text$yc	SEGMENT
??__E?id@?$numpunct@_W@std@@2V0locale@2@A@@YAXXZ PROC	; `dynamic initializer for 'std::numpunct<wchar_t>::id'', COMDAT

; 155  : 		void _Getvals(wchar_t, const lconv *_Ptr, _Locinfo::_Cvtvec)

	push	ebp
	mov	ebp, esp
	push	0
	mov	ecx, OFFSET ?id@?$numpunct@_W@std@@2V0locale@2@A ; std::numpunct<wchar_t>::id
	call	??0id@locale@std@@QAE@I@Z		; std::locale::id::id
	pop	ebp
	ret	0
??__E?id@?$numpunct@_W@std@@2V0locale@2@A@@YAXXZ ENDP	; `dynamic initializer for 'std::numpunct<wchar_t>::id''
text$yc	ENDS
; Function compile flags: /Odtp
; File c:\program files (x86)\microsoft visual studio 11.0\vc\include\xlocnum
;	COMDAT ??__E?id@?$numpunct@D@std@@2V0locale@2@A@@YAXXZ
text$yc	SEGMENT
??__E?id@?$numpunct@D@std@@2V0locale@2@A@@YAXXZ PROC	; `dynamic initializer for 'std::numpunct<char>::id'', COMDAT

; 155  : 		void _Getvals(wchar_t, const lconv *_Ptr, _Locinfo::_Cvtvec)

	push	ebp
	mov	ebp, esp
	push	0
	mov	ecx, OFFSET ?id@?$numpunct@D@std@@2V0locale@2@A ; std::numpunct<char>::id
	call	??0id@locale@std@@QAE@I@Z		; std::locale::id::id
	pop	ebp
	ret	0
??__E?id@?$numpunct@D@std@@2V0locale@2@A@@YAXXZ ENDP	; `dynamic initializer for 'std::numpunct<char>::id''
text$yc	ENDS
; Function compile flags: /Odtp
; File c:\program files (x86)\microsoft visual studio 11.0\vc\include\xlocnum
;	COMDAT ??__E?id@?$num_put@_WV?$back_insert_iterator@V?$basic_string@_WU?$char_traits@_W@std@@V?$allocator@_W@2@@std@@@std@@@std@@2V0locale@2@A@@YAXXZ
text$yc	SEGMENT
??__E?id@?$num_put@_WV?$back_insert_iterator@V?$basic_string@_WU?$char_traits@_W@std@@V?$allocator@_W@2@@std@@@std@@@std@@2V0locale@2@A@@YAXXZ PROC ; `dynamic initializer for 'std::num_put<wchar_t,std::back_insert_iterator<std::basic_string<wchar_t,std::char_traits<wchar_t>,std::allocator<wchar_t> > > >::id'', COMDAT

; 155  : 		void _Getvals(wchar_t, const lconv *_Ptr, _Locinfo::_Cvtvec)

	push	ebp
	mov	ebp, esp
	push	0
	mov	ecx, OFFSET ?id@?$num_put@_WV?$back_insert_iterator@V?$basic_string@_WU?$char_traits@_W@std@@V?$allocator@_W@2@@std@@@std@@@std@@2V0locale@2@A ; std::num_put<wchar_t,std::back_insert_iterator<std::basic_string<wchar_t,std::char_traits<wchar_t>,std::allocator<wchar_t> > > >::id
	call	??0id@locale@std@@QAE@I@Z		; std::locale::id::id
	pop	ebp
	ret	0
??__E?id@?$num_put@_WV?$back_insert_iterator@V?$basic_string@_WU?$char_traits@_W@std@@V?$allocator@_W@2@@std@@@std@@@std@@2V0locale@2@A@@YAXXZ ENDP ; `dynamic initializer for 'std::num_put<wchar_t,std::back_insert_iterator<std::basic_string<wchar_t,std::char_traits<wchar_t>,std::allocator<wchar_t> > > >::id''
text$yc	ENDS
; Function compile flags: /Odtp
; File c:\program files (x86)\microsoft visual studio 11.0\vc\include\xlocnum
;	COMDAT ??__E?id@?$num_put@DV?$back_insert_iterator@V?$basic_string@DU?$char_traits@D@std@@V?$allocator@D@2@@std@@@std@@@std@@2V0locale@2@A@@YAXXZ
text$yc	SEGMENT
??__E?id@?$num_put@DV?$back_insert_iterator@V?$basic_string@DU?$char_traits@D@std@@V?$allocator@D@2@@std@@@std@@@std@@2V0locale@2@A@@YAXXZ PROC ; `dynamic initializer for 'std::num_put<char,std::back_insert_iterator<std::basic_string<char,std::char_traits<char>,std::allocator<char> > > >::id'', COMDAT

; 155  : 		void _Getvals(wchar_t, const lconv *_Ptr, _Locinfo::_Cvtvec)

	push	ebp
	mov	ebp, esp
	push	0
	mov	ecx, OFFSET ?id@?$num_put@DV?$back_insert_iterator@V?$basic_string@DU?$char_traits@D@std@@V?$allocator@D@2@@std@@@std@@@std@@2V0locale@2@A ; std::num_put<char,std::back_insert_iterator<std::basic_string<char,std::char_traits<char>,std::allocator<char> > > >::id
	call	??0id@locale@std@@QAE@I@Z		; std::locale::id::id
	pop	ebp
	ret	0
??__E?id@?$num_put@DV?$back_insert_iterator@V?$basic_string@DU?$char_traits@D@std@@V?$allocator@D@2@@std@@@std@@@std@@2V0locale@2@A@@YAXXZ ENDP ; `dynamic initializer for 'std::num_put<char,std::back_insert_iterator<std::basic_string<char,std::char_traits<char>,std::allocator<char> > > >::id''
text$yc	ENDS
; Function compile flags: /Odtp
; File c:\program files (x86)\microsoft visual studio 11.0\vc\include\xmemory0
;	COMDAT ??$destroy@PAD@?$allocator_traits@V?$allocator@D@std@@@std@@SAXAAV?$allocator@D@1@PAPAD@Z
_TEXT	SEGMENT
__Al$ = 8						; size = 4
__Ptr$ = 12						; size = 4
??$destroy@PAD@?$allocator_traits@V?$allocator@D@std@@@std@@SAXAAV?$allocator@D@1@PAPAD@Z PROC ; std::allocator_traits<std::allocator<char> >::destroy<char *>, COMDAT

; 755  : 		static void destroy(_Alloc& _Al, _Uty *_Ptr)

	push	ebp
	mov	ebp, esp

; 756  : 		{	// destroy object at _Ptr
; 757  : 		_Al.destroy(_Ptr);

	mov	eax, DWORD PTR __Ptr$[ebp]
	push	eax
	mov	ecx, DWORD PTR __Al$[ebp]
	call	??$destroy@PAD@?$allocator@D@std@@QAEXPAPAD@Z ; std::allocator<char>::destroy<char *>

; 758  : 		}

	pop	ebp
	ret	0
??$destroy@PAD@?$allocator_traits@V?$allocator@D@std@@@std@@SAXAAV?$allocator@D@1@PAPAD@Z ENDP ; std::allocator_traits<std::allocator<char> >::destroy<char *>
_TEXT	ENDS
; Function compile flags: /Odtp
; File c:\program files (x86)\microsoft visual studio 11.0\vc\include\xmemory0
;	COMDAT ??$construct@PADAAPAD@?$allocator_traits@V?$allocator@D@std@@@std@@SAXAAV?$allocator@D@1@PAPADAAPAD@Z
_TEXT	SEGMENT
__Al$ = 8						; size = 4
__Ptr$ = 12						; size = 4
__V0$ = 16						; size = 4
??$construct@PADAAPAD@?$allocator_traits@V?$allocator@D@std@@@std@@SAXAAV?$allocator@D@1@PAPADAAPAD@Z PROC ; std::allocator_traits<std::allocator<char> >::construct<char *,char * &>, COMDAT

; 751  : _VARIADIC_EXPAND_0X(_ALLOC_TRAITS_SPECIAL_CONSTRUCT, , , , )

	push	ebp
	mov	ebp, esp
	mov	eax, DWORD PTR __V0$[ebp]
	push	eax
	call	??$forward@AAPAD@std@@YAAAPADAAPAD@Z	; std::forward<char * &>
	add	esp, 4
	push	eax
	mov	ecx, DWORD PTR __Ptr$[ebp]
	push	ecx
	mov	ecx, DWORD PTR __Al$[ebp]
	call	??$construct@PADAAPAD@?$allocator@D@std@@QAEXPAPADAAPAD@Z ; std::allocator<char>::construct<char *,char * &>
	pop	ebp
	ret	0
??$construct@PADAAPAD@?$allocator_traits@V?$allocator@D@std@@@std@@SAXAAV?$allocator@D@1@PAPADAAPAD@Z ENDP ; std::allocator_traits<std::allocator<char> >::construct<char *,char * &>
_TEXT	ENDS
; Function compile flags: /Odtp
; File c:\program files (x86)\microsoft visual studio 11.0\vc\include\type_traits
;	COMDAT ??$forward@AAPAD@std@@YAAAPADAAPAD@Z
_TEXT	SEGMENT
__Arg$ = 8						; size = 4
??$forward@AAPAD@std@@YAAAPADAAPAD@Z PROC		; std::forward<char * &>, COMDAT

; 1775 : 	{	// forward an lvalue

	push	ebp
	mov	ebp, esp

; 1776 : 	return (static_cast<_Ty&&>(_Arg));

	mov	eax, DWORD PTR __Arg$[ebp]

; 1777 : 	}

	pop	ebp
	ret	0
??$forward@AAPAD@std@@YAAAPADAAPAD@Z ENDP		; std::forward<char * &>
_TEXT	ENDS
; Function compile flags: /Odtp
;	COMDAT ??__F?_System_object@?$_Error_objects@H@std@@2V_System_error_category@2@A@@YAXXZ
text$yd	SEGMENT
??__F?_System_object@?$_Error_objects@H@std@@2V_System_error_category@2@A@@YAXXZ PROC ; `dynamic atexit destructor for 'std::_Error_objects<int>::_System_object'', COMDAT
	push	ebp
	mov	ebp, esp
	mov	ecx, OFFSET ?_System_object@?$_Error_objects@H@std@@2V_System_error_category@2@A ; std::_Error_objects<int>::_System_object
	call	??1_System_error_category@std@@UAE@XZ
	pop	ebp
	ret	0
??__F?_System_object@?$_Error_objects@H@std@@2V_System_error_category@2@A@@YAXXZ ENDP ; `dynamic atexit destructor for 'std::_Error_objects<int>::_System_object''
text$yd	ENDS
; Function compile flags: /Odtp
; File c:\program files (x86)\microsoft visual studio 11.0\vc\include\xmemory0
;	COMDAT ??__E?_System_object@?$_Error_objects@H@std@@2V_System_error_category@2@A@@YAXXZ
text$yc	SEGMENT
??__E?_System_object@?$_Error_objects@H@std@@2V_System_error_category@2@A@@YAXXZ PROC ; `dynamic initializer for 'std::_Error_objects<int>::_System_object'', COMDAT

; 627  : 		{	// estimate maximum array size

	push	ebp
	mov	ebp, esp
	mov	ecx, OFFSET ?_System_object@?$_Error_objects@H@std@@2V_System_error_category@2@A ; std::_Error_objects<int>::_System_object
	call	??0_System_error_category@std@@QAE@XZ	; std::_System_error_category::_System_error_category
	push	OFFSET ??__F?_System_object@?$_Error_objects@H@std@@2V_System_error_category@2@A@@YAXXZ ; `dynamic atexit destructor for 'std::_Error_objects<int>::_System_object''
	call	_atexit
	add	esp, 4
	pop	ebp
	ret	0
??__E?_System_object@?$_Error_objects@H@std@@2V_System_error_category@2@A@@YAXXZ ENDP ; `dynamic initializer for 'std::_Error_objects<int>::_System_object''
text$yc	ENDS
; Function compile flags: /Odtp
;	COMDAT ??__F?_Iostream_object@?$_Error_objects@H@std@@2V_Iostream_error_category@2@A@@YAXXZ
text$yd	SEGMENT
??__F?_Iostream_object@?$_Error_objects@H@std@@2V_Iostream_error_category@2@A@@YAXXZ PROC ; `dynamic atexit destructor for 'std::_Error_objects<int>::_Iostream_object'', COMDAT
	push	ebp
	mov	ebp, esp
	mov	ecx, OFFSET ?_Iostream_object@?$_Error_objects@H@std@@2V_Iostream_error_category@2@A ; std::_Error_objects<int>::_Iostream_object
	call	??1_Iostream_error_category@std@@UAE@XZ
	pop	ebp
	ret	0
??__F?_Iostream_object@?$_Error_objects@H@std@@2V_Iostream_error_category@2@A@@YAXXZ ENDP ; `dynamic atexit destructor for 'std::_Error_objects<int>::_Iostream_object''
text$yd	ENDS
; Function compile flags: /Odtp
; File c:\program files (x86)\microsoft visual studio 11.0\vc\include\xmemory0
;	COMDAT ??__E?_Iostream_object@?$_Error_objects@H@std@@2V_Iostream_error_category@2@A@@YAXXZ
text$yc	SEGMENT
??__E?_Iostream_object@?$_Error_objects@H@std@@2V_Iostream_error_category@2@A@@YAXXZ PROC ; `dynamic initializer for 'std::_Error_objects<int>::_Iostream_object'', COMDAT

; 627  : 		{	// estimate maximum array size

	push	ebp
	mov	ebp, esp
	mov	ecx, OFFSET ?_Iostream_object@?$_Error_objects@H@std@@2V_Iostream_error_category@2@A ; std::_Error_objects<int>::_Iostream_object
	call	??0_Iostream_error_category@std@@QAE@XZ	; std::_Iostream_error_category::_Iostream_error_category
	push	OFFSET ??__F?_Iostream_object@?$_Error_objects@H@std@@2V_Iostream_error_category@2@A@@YAXXZ ; `dynamic atexit destructor for 'std::_Error_objects<int>::_Iostream_object''
	call	_atexit
	add	esp, 4
	pop	ebp
	ret	0
??__E?_Iostream_object@?$_Error_objects@H@std@@2V_Iostream_error_category@2@A@@YAXXZ ENDP ; `dynamic initializer for 'std::_Error_objects<int>::_Iostream_object''
text$yc	ENDS
; Function compile flags: /Odtp
;	COMDAT ??__F?_Generic_object@?$_Error_objects@H@std@@2V_Generic_error_category@2@A@@YAXXZ
text$yd	SEGMENT
??__F?_Generic_object@?$_Error_objects@H@std@@2V_Generic_error_category@2@A@@YAXXZ PROC ; `dynamic atexit destructor for 'std::_Error_objects<int>::_Generic_object'', COMDAT
	push	ebp
	mov	ebp, esp
	mov	ecx, OFFSET ?_Generic_object@?$_Error_objects@H@std@@2V_Generic_error_category@2@A ; std::_Error_objects<int>::_Generic_object
	call	??1_Generic_error_category@std@@UAE@XZ
	pop	ebp
	ret	0
??__F?_Generic_object@?$_Error_objects@H@std@@2V_Generic_error_category@2@A@@YAXXZ ENDP ; `dynamic atexit destructor for 'std::_Error_objects<int>::_Generic_object''
text$yd	ENDS
; Function compile flags: /Odtp
; File c:\program files (x86)\microsoft visual studio 11.0\vc\include\xmemory0
;	COMDAT ??__E?_Generic_object@?$_Error_objects@H@std@@2V_Generic_error_category@2@A@@YAXXZ
text$yc	SEGMENT
??__E?_Generic_object@?$_Error_objects@H@std@@2V_Generic_error_category@2@A@@YAXXZ PROC ; `dynamic initializer for 'std::_Error_objects<int>::_Generic_object'', COMDAT

; 627  : 		{	// estimate maximum array size

	push	ebp
	mov	ebp, esp
	mov	ecx, OFFSET ?_Generic_object@?$_Error_objects@H@std@@2V_Generic_error_category@2@A ; std::_Error_objects<int>::_Generic_object
	call	??0_Generic_error_category@std@@QAE@XZ	; std::_Generic_error_category::_Generic_error_category
	push	OFFSET ??__F?_Generic_object@?$_Error_objects@H@std@@2V_Generic_error_category@2@A@@YAXXZ ; `dynamic atexit destructor for 'std::_Error_objects<int>::_Generic_object''
	call	_atexit
	add	esp, 4
	pop	ebp
	ret	0
??__E?_Generic_object@?$_Error_objects@H@std@@2V_Generic_error_category@2@A@@YAXXZ ENDP ; `dynamic initializer for 'std::_Error_objects<int>::_Generic_object''
text$yc	ENDS
; Function compile flags: /Odtp
; File c:\program files (x86)\microsoft visual studio 11.0\vc\include\xmemory0
;	COMDAT ??$_Allocate@D@std@@YAPADIPAD@Z
_TEXT	SEGMENT
__Ptr$ = -4						; size = 4
__Count$ = 8						; size = 4
___formal$ = 12						; size = 4
??$_Allocate@D@std@@YAPADIPAD@Z PROC			; std::_Allocate<char>, COMDAT

; 22   : 	{	// allocate storage for _Count elements of type _Ty

	push	ebp
	mov	ebp, esp
	push	ecx

; 23   : 	void *_Ptr = 0;

	mov	DWORD PTR __Ptr$[ebp], 0

; 24   : 
; 25   : 	if (_Count == 0)

	cmp	DWORD PTR __Count$[ebp], 0
	jne	SHORT $LN4@Allocate

; 26   : 		;
; 27   : 	else if (((size_t)(-1) / sizeof (_Ty) < _Count)

	jmp	SHORT $LN3@Allocate
$LN4@Allocate:

; 28   : 		|| (_Ptr = ::operator new(_Count * sizeof (_Ty))) == 0)

	cmp	DWORD PTR __Count$[ebp], -1
	ja	SHORT $LN1@Allocate
	mov	eax, DWORD PTR __Count$[ebp]
	push	eax
	call	??2@YAPAXI@Z				; operator new
	add	esp, 4
	mov	DWORD PTR __Ptr$[ebp], eax
	cmp	DWORD PTR __Ptr$[ebp], 0
	jne	SHORT $LN3@Allocate
$LN1@Allocate:

; 29   : 		_Xbad_alloc();	// report no memory

	call	?_Xbad_alloc@std@@YAXXZ			; std::_Xbad_alloc
$LN3@Allocate:

; 30   : 
; 31   : 	return ((_Ty *)_Ptr);

	mov	eax, DWORD PTR __Ptr$[ebp]
$LN6@Allocate:

; 32   : 	}

	mov	esp, ebp
	pop	ebp
	ret	0
??$_Allocate@D@std@@YAPADIPAD@Z ENDP			; std::_Allocate<char>
_TEXT	ENDS
; Function compile flags: /Odtp
; File c:\program files (x86)\microsoft visual studio 11.0\vc\include\xstddef
;	COMDAT ??$addressof@D@std@@YAPADAAD@Z
_TEXT	SEGMENT
__Val$ = 8						; size = 4
??$addressof@D@std@@YAPADAAD@Z PROC			; std::addressof<char>, COMDAT

; 85   : 	{	// return address of _Val

	push	ebp
	mov	ebp, esp

; 86   : 	return (reinterpret_cast<_Ty *>(
; 87   : 		(&const_cast<char&>(
; 88   : 		reinterpret_cast<const volatile char&>(_Val)))));

	mov	eax, DWORD PTR __Val$[ebp]

; 89   : 	}

	pop	ebp
	ret	0
??$addressof@D@std@@YAPADAAD@Z ENDP			; std::addressof<char>
_TEXT	ENDS
; Function compile flags: /Odtp
; File c:\program files (x86)\microsoft visual studio 11.0\vc\include\xmemory0
;	COMDAT ??$destroy@PAD@?$_Wrap_alloc@V?$allocator@D@std@@@std@@QAEXPAPAD@Z
_TEXT	SEGMENT
_this$ = -4						; size = 4
__Ptr$ = 8						; size = 4
??$destroy@PAD@?$_Wrap_alloc@V?$allocator@D@std@@@std@@QAEXPAPAD@Z PROC ; std::_Wrap_alloc<std::allocator<char> >::destroy<char *>, COMDAT
; _this$ = ecx

; 907  : 		void destroy(_Ty *_Ptr)

	push	ebp
	mov	ebp, esp
	push	ecx
	mov	DWORD PTR _this$[ebp], ecx

; 908  : 		{	// destroy object at _Ptr
; 909  : 		_Mytraits::destroy(*this, _Ptr);

	mov	eax, DWORD PTR __Ptr$[ebp]
	push	eax
	mov	ecx, DWORD PTR _this$[ebp]
	push	ecx
	call	??$destroy@PAD@?$allocator_traits@V?$allocator@D@std@@@std@@SAXAAV?$allocator@D@1@PAPAD@Z ; std::allocator_traits<std::allocator<char> >::destroy<char *>
	add	esp, 8

; 910  : 		}

	mov	esp, ebp
	pop	ebp
	ret	4
??$destroy@PAD@?$_Wrap_alloc@V?$allocator@D@std@@@std@@QAEXPAPAD@Z ENDP ; std::_Wrap_alloc<std::allocator<char> >::destroy<char *>
_TEXT	ENDS
; Function compile flags: /Odtp
; File c:\program files (x86)\microsoft visual studio 11.0\vc\include\xmemory0
;	COMDAT ??$construct@PADAAPAD@?$_Wrap_alloc@V?$allocator@D@std@@@std@@QAEXPAPADAAPAD@Z
_TEXT	SEGMENT
_this$ = -4						; size = 4
__Ptr$ = 8						; size = 4
__V0$ = 12						; size = 4
??$construct@PADAAPAD@?$_Wrap_alloc@V?$allocator@D@std@@@std@@QAEXPAPADAAPAD@Z PROC ; std::_Wrap_alloc<std::allocator<char> >::construct<char *,char * &>, COMDAT
; _this$ = ecx

; 903  : _VARIADIC_EXPAND_0X(_WRAP_ALLOC_CONSTRUCT, , , , )

	push	ebp
	mov	ebp, esp
	push	ecx
	mov	DWORD PTR _this$[ebp], ecx
	mov	eax, DWORD PTR __V0$[ebp]
	push	eax
	call	??$forward@AAPAD@std@@YAAAPADAAPAD@Z	; std::forward<char * &>
	add	esp, 4
	push	eax
	mov	ecx, DWORD PTR __Ptr$[ebp]
	push	ecx
	mov	edx, DWORD PTR _this$[ebp]
	push	edx
	call	??$construct@PADAAPAD@?$allocator_traits@V?$allocator@D@std@@@std@@SAXAAV?$allocator@D@1@PAPADAAPAD@Z ; std::allocator_traits<std::allocator<char> >::construct<char *,char * &>
	add	esp, 12					; 0000000cH
	mov	esp, ebp
	pop	ebp
	ret	8
??$construct@PADAAPAD@?$_Wrap_alloc@V?$allocator@D@std@@@std@@QAEXPAPADAAPAD@Z ENDP ; std::_Wrap_alloc<std::allocator<char> >::construct<char *,char * &>
_TEXT	ENDS
; Function compile flags: /Odtp
;	COMDAT ??_G_System_error_category@std@@UAEPAXI@Z
_TEXT	SEGMENT
_this$ = -4						; size = 4
___flags$ = 8						; size = 4
??_G_System_error_category@std@@UAEPAXI@Z PROC		; std::_System_error_category::`scalar deleting destructor', COMDAT
; _this$ = ecx
	push	ebp
	mov	ebp, esp
	push	ecx
	mov	DWORD PTR _this$[ebp], ecx
	mov	ecx, DWORD PTR _this$[ebp]
	call	??1_System_error_category@std@@UAE@XZ
	mov	eax, DWORD PTR ___flags$[ebp]
	and	eax, 1
	je	SHORT $LN1@scalar
	mov	ecx, DWORD PTR _this$[ebp]
	push	ecx
	call	??3@YAXPAX@Z				; operator delete
	add	esp, 4
$LN1@scalar:
	mov	eax, DWORD PTR _this$[ebp]
	mov	esp, ebp
	pop	ebp
	ret	4
??_G_System_error_category@std@@UAEPAXI@Z ENDP		; std::_System_error_category::`scalar deleting destructor'
_TEXT	ENDS
; Function compile flags: /Odtp
;	COMDAT ??1_System_error_category@std@@UAE@XZ
_TEXT	SEGMENT
_this$ = -4						; size = 4
??1_System_error_category@std@@UAE@XZ PROC		; std::_System_error_category::~_System_error_category, COMDAT
; _this$ = ecx
	push	ebp
	mov	ebp, esp
	push	ecx
	mov	DWORD PTR _this$[ebp], ecx
	mov	ecx, DWORD PTR _this$[ebp]
	call	??1_Generic_error_category@std@@UAE@XZ
	mov	esp, ebp
	pop	ebp
	ret	0
??1_System_error_category@std@@UAE@XZ ENDP		; std::_System_error_category::~_System_error_category
_TEXT	ENDS
; Function compile flags: /Odtp
; File c:\program files (x86)\microsoft visual studio 11.0\vc\include\system_error
;	COMDAT ?default_error_condition@_System_error_category@std@@UBE?AVerror_condition@2@H@Z
_TEXT	SEGMENT
_this$ = -4						; size = 4
___$ReturnUdt$ = 8					; size = 4
__Errval$ = 12						; size = 4
?default_error_condition@_System_error_category@std@@UBE?AVerror_condition@2@H@Z PROC ; std::_System_error_category::default_error_condition, COMDAT
; _this$ = ecx

; 641  : 		{	// make error_condition for error code (generic if possible)

	push	ebp
	mov	ebp, esp
	push	ecx
	mov	DWORD PTR _this$[ebp], ecx

; 642  : 		if (_Syserror_map(_Errval))

	mov	eax, DWORD PTR __Errval$[ebp]
	push	eax
	call	?_Syserror_map@std@@YAPBDH@Z		; std::_Syserror_map
	add	esp, 4
	test	eax, eax
	je	SHORT $LN2@default_er

; 643  : 			return (error_condition(_Errval, generic_category()));

	call	?generic_category@std@@YAABVerror_category@1@XZ ; std::generic_category
	push	eax
	mov	ecx, DWORD PTR __Errval$[ebp]
	push	ecx
	mov	ecx, DWORD PTR ___$ReturnUdt$[ebp]
	call	??0error_condition@std@@QAE@HABVerror_category@1@@Z ; std::error_condition::error_condition
	mov	eax, DWORD PTR ___$ReturnUdt$[ebp]
	jmp	SHORT $LN3@default_er

; 644  : 		else

	jmp	SHORT $LN3@default_er
$LN2@default_er:

; 645  : 			return (error_condition(_Errval, system_category()));

	call	?system_category@std@@YAABVerror_category@1@XZ ; std::system_category
	push	eax
	mov	edx, DWORD PTR __Errval$[ebp]
	push	edx
	mov	ecx, DWORD PTR ___$ReturnUdt$[ebp]
	call	??0error_condition@std@@QAE@HABVerror_category@1@@Z ; std::error_condition::error_condition
	mov	eax, DWORD PTR ___$ReturnUdt$[ebp]
$LN3@default_er:

; 646  : 		}

	mov	esp, ebp
	pop	ebp
	ret	8
?default_error_condition@_System_error_category@std@@UBE?AVerror_condition@2@H@Z ENDP ; std::_System_error_category::default_error_condition
_TEXT	ENDS
; Function compile flags: /Odtp
; File c:\program files (x86)\microsoft visual studio 11.0\vc\include\system_error
;	COMDAT ?message@_System_error_category@std@@UBE?AV?$basic_string@DU?$char_traits@D@std@@V?$allocator@D@2@@2@H@Z
_TEXT	SEGMENT
_this$ = -16						; size = 4
$T1 = -12						; size = 4
tv69 = -8						; size = 4
__Name$ = -4						; size = 4
___$ReturnUdt$ = 8					; size = 4
__Errcode$ = 12						; size = 4
?message@_System_error_category@std@@UBE?AV?$basic_string@DU?$char_traits@D@std@@V?$allocator@D@2@@2@H@Z PROC ; std::_System_error_category::message, COMDAT
; _this$ = ecx

; 634  : 		{	// convert to name of error

	push	ebp
	mov	ebp, esp
	sub	esp, 16					; 00000010H
	mov	DWORD PTR _this$[ebp], ecx
	mov	DWORD PTR $T1[ebp], 0

; 635  : 		const char *_Name = _Winerror_map(_Errcode);

	mov	eax, DWORD PTR __Errcode$[ebp]
	push	eax
	call	?_Winerror_map@std@@YAPBDH@Z		; std::_Winerror_map
	add	esp, 4
	mov	DWORD PTR __Name$[ebp], eax

; 636  : 		return (string(_Name != 0 ? _Name : "unknown error"));

	cmp	DWORD PTR __Name$[ebp], 0
	je	SHORT $LN3@message
	mov	ecx, DWORD PTR __Name$[ebp]
	mov	DWORD PTR tv69[ebp], ecx
	jmp	SHORT $LN4@message
$LN3@message:
	mov	DWORD PTR tv69[ebp], OFFSET ??_C@_0O@BFJCFAAK@unknown?5error?$AA@
$LN4@message:
	mov	edx, DWORD PTR tv69[ebp]
	push	edx
	mov	ecx, DWORD PTR ___$ReturnUdt$[ebp]
	call	??0?$basic_string@DU?$char_traits@D@std@@V?$allocator@D@2@@std@@QAE@PBD@Z ; std::basic_string<char,std::char_traits<char>,std::allocator<char> >::basic_string<char,std::char_traits<char>,std::allocator<char> >
	mov	eax, DWORD PTR $T1[ebp]
	or	eax, 1
	mov	DWORD PTR $T1[ebp], eax
	mov	eax, DWORD PTR ___$ReturnUdt$[ebp]

; 637  : 		}

	mov	esp, ebp
	pop	ebp
	ret	8
?message@_System_error_category@std@@UBE?AV?$basic_string@DU?$char_traits@D@std@@V?$allocator@D@2@@2@H@Z ENDP ; std::_System_error_category::message
_TEXT	ENDS
; Function compile flags: /Odtp
; File c:\program files (x86)\microsoft visual studio 11.0\vc\include\system_error
;	COMDAT ?name@_System_error_category@std@@UBEPBDXZ
_TEXT	SEGMENT
_this$ = -4						; size = 4
?name@_System_error_category@std@@UBEPBDXZ PROC		; std::_System_error_category::name, COMDAT
; _this$ = ecx

; 629  : 		{	// get name of category

	push	ebp
	mov	ebp, esp
	push	ecx
	mov	DWORD PTR _this$[ebp], ecx

; 630  : 		return ("system");

	mov	eax, OFFSET ??_C@_06FHFOAHML@system?$AA@

; 631  : 		}

	mov	esp, ebp
	pop	ebp
	ret	0
?name@_System_error_category@std@@UBEPBDXZ ENDP		; std::_System_error_category::name
_TEXT	ENDS
; Function compile flags: /Odtp
; File c:\program files (x86)\microsoft visual studio 11.0\vc\include\system_error
;	COMDAT ??0_System_error_category@std@@QAE@XZ
_TEXT	SEGMENT
_this$ = -4						; size = 4
??0_System_error_category@std@@QAE@XZ PROC		; std::_System_error_category::_System_error_category, COMDAT
; _this$ = ecx

; 624  : 	_System_error_category()

	push	ebp
	mov	ebp, esp
	push	ecx
	mov	DWORD PTR _this$[ebp], ecx
	mov	ecx, DWORD PTR _this$[ebp]
	call	??0_Generic_error_category@std@@QAE@XZ	; std::_Generic_error_category::_Generic_error_category
	mov	eax, DWORD PTR _this$[ebp]
	mov	DWORD PTR [eax], OFFSET ??_7_System_error_category@std@@6B@

; 625  : 		{	// default constructor
; 626  : 		}

	mov	eax, DWORD PTR _this$[ebp]
	mov	esp, ebp
	pop	ebp
	ret	0
??0_System_error_category@std@@QAE@XZ ENDP		; std::_System_error_category::_System_error_category
_TEXT	ENDS
; Function compile flags: /Odtp
;	COMDAT ??_G_Iostream_error_category@std@@UAEPAXI@Z
_TEXT	SEGMENT
_this$ = -4						; size = 4
___flags$ = 8						; size = 4
??_G_Iostream_error_category@std@@UAEPAXI@Z PROC	; std::_Iostream_error_category::`scalar deleting destructor', COMDAT
; _this$ = ecx
	push	ebp
	mov	ebp, esp
	push	ecx
	mov	DWORD PTR _this$[ebp], ecx
	mov	ecx, DWORD PTR _this$[ebp]
	call	??1_Iostream_error_category@std@@UAE@XZ
	mov	eax, DWORD PTR ___flags$[ebp]
	and	eax, 1
	je	SHORT $LN1@scalar
	mov	ecx, DWORD PTR _this$[ebp]
	push	ecx
	call	??3@YAXPAX@Z				; operator delete
	add	esp, 4
$LN1@scalar:
	mov	eax, DWORD PTR _this$[ebp]
	mov	esp, ebp
	pop	ebp
	ret	4
??_G_Iostream_error_category@std@@UAEPAXI@Z ENDP	; std::_Iostream_error_category::`scalar deleting destructor'
_TEXT	ENDS
; Function compile flags: /Odtp
;	COMDAT ??1_Iostream_error_category@std@@UAE@XZ
_TEXT	SEGMENT
_this$ = -4						; size = 4
??1_Iostream_error_category@std@@UAE@XZ PROC		; std::_Iostream_error_category::~_Iostream_error_category, COMDAT
; _this$ = ecx
	push	ebp
	mov	ebp, esp
	push	ecx
	mov	DWORD PTR _this$[ebp], ecx
	mov	ecx, DWORD PTR _this$[ebp]
	call	??1_Generic_error_category@std@@UAE@XZ
	mov	esp, ebp
	pop	ebp
	ret	0
??1_Iostream_error_category@std@@UAE@XZ ENDP		; std::_Iostream_error_category::~_Iostream_error_category
_TEXT	ENDS
; Function compile flags: /Odtp
; File c:\program files (x86)\microsoft visual studio 11.0\vc\include\system_error
;	COMDAT ?message@_Iostream_error_category@std@@UBE?AV?$basic_string@DU?$char_traits@D@std@@V?$allocator@D@2@@2@H@Z
_TEXT	SEGMENT
_this$ = -8						; size = 4
$T1 = -4						; size = 4
___$ReturnUdt$ = 8					; size = 4
__Errcode$ = 12						; size = 4
?message@_Iostream_error_category@std@@UBE?AV?$basic_string@DU?$char_traits@D@std@@V?$allocator@D@2@@2@H@Z PROC ; std::_Iostream_error_category::message, COMDAT
; _this$ = ecx

; 611  : 		{	// convert to name of error

	push	ebp
	mov	ebp, esp
	sub	esp, 8
	mov	DWORD PTR _this$[ebp], ecx
	mov	DWORD PTR $T1[ebp], 0

; 612  : 		if (_Errcode == (int)io_errc::stream)

	cmp	DWORD PTR __Errcode$[ebp], 1
	jne	SHORT $LN2@message

; 613  : 			return ("iostream stream error");

	push	OFFSET ??_C@_0BG@PADBLCHM@iostream?5stream?5error?$AA@
	mov	ecx, DWORD PTR ___$ReturnUdt$[ebp]
	call	??0?$basic_string@DU?$char_traits@D@std@@V?$allocator@D@2@@std@@QAE@PBD@Z ; std::basic_string<char,std::char_traits<char>,std::allocator<char> >::basic_string<char,std::char_traits<char>,std::allocator<char> >
	mov	eax, DWORD PTR $T1[ebp]
	or	eax, 1
	mov	DWORD PTR $T1[ebp], eax
	mov	eax, DWORD PTR ___$ReturnUdt$[ebp]
	jmp	SHORT $LN3@message

; 614  : 		else

	jmp	SHORT $LN3@message
$LN2@message:

; 615  : 			return (_Generic_error_category::message(_Errcode));

	mov	ecx, DWORD PTR __Errcode$[ebp]
	push	ecx
	mov	edx, DWORD PTR ___$ReturnUdt$[ebp]
	push	edx
	mov	ecx, DWORD PTR _this$[ebp]
	call	?message@_Generic_error_category@std@@UBE?AV?$basic_string@DU?$char_traits@D@std@@V?$allocator@D@2@@2@H@Z ; std::_Generic_error_category::message
	mov	eax, DWORD PTR $T1[ebp]
	or	eax, 1
	mov	DWORD PTR $T1[ebp], eax
	mov	eax, DWORD PTR ___$ReturnUdt$[ebp]
$LN3@message:

; 616  : 		}

	mov	esp, ebp
	pop	ebp
	ret	8
?message@_Iostream_error_category@std@@UBE?AV?$basic_string@DU?$char_traits@D@std@@V?$allocator@D@2@@2@H@Z ENDP ; std::_Iostream_error_category::message
_TEXT	ENDS
; Function compile flags: /Odtp
; File c:\program files (x86)\microsoft visual studio 11.0\vc\include\system_error
;	COMDAT ?name@_Iostream_error_category@std@@UBEPBDXZ
_TEXT	SEGMENT
_this$ = -4						; size = 4
?name@_Iostream_error_category@std@@UBEPBDXZ PROC	; std::_Iostream_error_category::name, COMDAT
; _this$ = ecx

; 606  : 		{	// get name of category

	push	ebp
	mov	ebp, esp
	push	ecx
	mov	DWORD PTR _this$[ebp], ecx

; 607  : 		return ("iostream");

	mov	eax, OFFSET ??_C@_08LLGCOLLL@iostream?$AA@

; 608  : 		}

	mov	esp, ebp
	pop	ebp
	ret	0
?name@_Iostream_error_category@std@@UBEPBDXZ ENDP	; std::_Iostream_error_category::name
_TEXT	ENDS
; Function compile flags: /Odtp
; File c:\program files (x86)\microsoft visual studio 11.0\vc\include\system_error
;	COMDAT ??0_Iostream_error_category@std@@QAE@XZ
_TEXT	SEGMENT
_this$ = -4						; size = 4
??0_Iostream_error_category@std@@QAE@XZ PROC		; std::_Iostream_error_category::_Iostream_error_category, COMDAT
; _this$ = ecx

; 601  : 	_Iostream_error_category()

	push	ebp
	mov	ebp, esp
	push	ecx
	mov	DWORD PTR _this$[ebp], ecx
	mov	ecx, DWORD PTR _this$[ebp]
	call	??0_Generic_error_category@std@@QAE@XZ	; std::_Generic_error_category::_Generic_error_category
	mov	eax, DWORD PTR _this$[ebp]
	mov	DWORD PTR [eax], OFFSET ??_7_Iostream_error_category@std@@6B@

; 602  : 		{	// default constructor
; 603  : 		}

	mov	eax, DWORD PTR _this$[ebp]
	mov	esp, ebp
	pop	ebp
	ret	0
??0_Iostream_error_category@std@@QAE@XZ ENDP		; std::_Iostream_error_category::_Iostream_error_category
_TEXT	ENDS
; Function compile flags: /Odtp
;	COMDAT ??_G_Generic_error_category@std@@UAEPAXI@Z
_TEXT	SEGMENT
_this$ = -4						; size = 4
___flags$ = 8						; size = 4
??_G_Generic_error_category@std@@UAEPAXI@Z PROC		; std::_Generic_error_category::`scalar deleting destructor', COMDAT
; _this$ = ecx
	push	ebp
	mov	ebp, esp
	push	ecx
	mov	DWORD PTR _this$[ebp], ecx
	mov	ecx, DWORD PTR _this$[ebp]
	call	??1_Generic_error_category@std@@UAE@XZ
	mov	eax, DWORD PTR ___flags$[ebp]
	and	eax, 1
	je	SHORT $LN1@scalar
	mov	ecx, DWORD PTR _this$[ebp]
	push	ecx
	call	??3@YAXPAX@Z				; operator delete
	add	esp, 4
$LN1@scalar:
	mov	eax, DWORD PTR _this$[ebp]
	mov	esp, ebp
	pop	ebp
	ret	4
??_G_Generic_error_category@std@@UAEPAXI@Z ENDP		; std::_Generic_error_category::`scalar deleting destructor'
_TEXT	ENDS
; Function compile flags: /Odtp
;	COMDAT ??1_Generic_error_category@std@@UAE@XZ
_TEXT	SEGMENT
_this$ = -4						; size = 4
??1_Generic_error_category@std@@UAE@XZ PROC		; std::_Generic_error_category::~_Generic_error_category, COMDAT
; _this$ = ecx
	push	ebp
	mov	ebp, esp
	push	ecx
	mov	DWORD PTR _this$[ebp], ecx
	mov	ecx, DWORD PTR _this$[ebp]
	call	??1error_category@std@@UAE@XZ		; std::error_category::~error_category
	mov	esp, ebp
	pop	ebp
	ret	0
??1_Generic_error_category@std@@UAE@XZ ENDP		; std::_Generic_error_category::~_Generic_error_category
_TEXT	ENDS
; Function compile flags: /Odtp
; File c:\program files (x86)\microsoft visual studio 11.0\vc\include\system_error
;	COMDAT ?message@_Generic_error_category@std@@UBE?AV?$basic_string@DU?$char_traits@D@std@@V?$allocator@D@2@@2@H@Z
_TEXT	SEGMENT
_this$ = -16						; size = 4
$T1 = -12						; size = 4
tv69 = -8						; size = 4
__Name$ = -4						; size = 4
___$ReturnUdt$ = 8					; size = 4
__Errcode$ = 12						; size = 4
?message@_Generic_error_category@std@@UBE?AV?$basic_string@DU?$char_traits@D@std@@V?$allocator@D@2@@2@H@Z PROC ; std::_Generic_error_category::message, COMDAT
; _this$ = ecx

; 590  : 		{	// convert to name of error

	push	ebp
	mov	ebp, esp
	sub	esp, 16					; 00000010H
	mov	DWORD PTR _this$[ebp], ecx
	mov	DWORD PTR $T1[ebp], 0

; 591  : 		const char *_Name = _Syserror_map(_Errcode);

	mov	eax, DWORD PTR __Errcode$[ebp]
	push	eax
	call	?_Syserror_map@std@@YAPBDH@Z		; std::_Syserror_map
	add	esp, 4
	mov	DWORD PTR __Name$[ebp], eax

; 592  : 		return (string(_Name != 0 ? _Name : "unknown error"));

	cmp	DWORD PTR __Name$[ebp], 0
	je	SHORT $LN3@message
	mov	ecx, DWORD PTR __Name$[ebp]
	mov	DWORD PTR tv69[ebp], ecx
	jmp	SHORT $LN4@message
$LN3@message:
	mov	DWORD PTR tv69[ebp], OFFSET ??_C@_0O@BFJCFAAK@unknown?5error?$AA@
$LN4@message:
	mov	edx, DWORD PTR tv69[ebp]
	push	edx
	mov	ecx, DWORD PTR ___$ReturnUdt$[ebp]
	call	??0?$basic_string@DU?$char_traits@D@std@@V?$allocator@D@2@@std@@QAE@PBD@Z ; std::basic_string<char,std::char_traits<char>,std::allocator<char> >::basic_string<char,std::char_traits<char>,std::allocator<char> >
	mov	eax, DWORD PTR $T1[ebp]
	or	eax, 1
	mov	DWORD PTR $T1[ebp], eax
	mov	eax, DWORD PTR ___$ReturnUdt$[ebp]

; 593  : 		}

	mov	esp, ebp
	pop	ebp
	ret	8
?message@_Generic_error_category@std@@UBE?AV?$basic_string@DU?$char_traits@D@std@@V?$allocator@D@2@@2@H@Z ENDP ; std::_Generic_error_category::message
_TEXT	ENDS
; Function compile flags: /Odtp
; File c:\program files (x86)\microsoft visual studio 11.0\vc\include\system_error
;	COMDAT ?name@_Generic_error_category@std@@UBEPBDXZ
_TEXT	SEGMENT
_this$ = -4						; size = 4
?name@_Generic_error_category@std@@UBEPBDXZ PROC	; std::_Generic_error_category::name, COMDAT
; _this$ = ecx

; 585  : 		{	// get name of category

	push	ebp
	mov	ebp, esp
	push	ecx
	mov	DWORD PTR _this$[ebp], ecx

; 586  : 		return ("generic");

	mov	eax, OFFSET ??_C@_07DCLBNMLN@generic?$AA@

; 587  : 		}

	mov	esp, ebp
	pop	ebp
	ret	0
?name@_Generic_error_category@std@@UBEPBDXZ ENDP	; std::_Generic_error_category::name
_TEXT	ENDS
; Function compile flags: /Odtp
; File c:\program files (x86)\microsoft visual studio 11.0\vc\include\system_error
;	COMDAT ??0_Generic_error_category@std@@QAE@XZ
_TEXT	SEGMENT
_this$ = -4						; size = 4
??0_Generic_error_category@std@@QAE@XZ PROC		; std::_Generic_error_category::_Generic_error_category, COMDAT
; _this$ = ecx

; 580  : 	_Generic_error_category()

	push	ebp
	mov	ebp, esp
	push	ecx
	mov	DWORD PTR _this$[ebp], ecx
	mov	ecx, DWORD PTR _this$[ebp]
	call	??0error_category@std@@QAE@XZ		; std::error_category::error_category
	mov	eax, DWORD PTR _this$[ebp]
	mov	DWORD PTR [eax], OFFSET ??_7_Generic_error_category@std@@6B@

; 581  : 		{	// default constructor
; 582  : 		}

	mov	eax, DWORD PTR _this$[ebp]
	mov	esp, ebp
	pop	ebp
	ret	0
??0_Generic_error_category@std@@QAE@XZ ENDP		; std::_Generic_error_category::_Generic_error_category
_TEXT	ENDS
; Function compile flags: /Odtp
; File c:\program files (x86)\microsoft visual studio 11.0\vc\include\system_error
;	COMDAT ??8error_condition@std@@QBE_NABV01@@Z
_TEXT	SEGMENT
tv78 = -8						; size = 4
_this$ = -4						; size = 4
__Right$ = 8						; size = 4
??8error_condition@std@@QBE_NABV01@@Z PROC		; std::error_condition::operator==, COMDAT
; _this$ = ecx

; 376  : 		{	// test if *this == _Right

	push	ebp
	mov	ebp, esp
	sub	esp, 8
	push	esi
	mov	DWORD PTR _this$[ebp], ecx

; 377  : 		return (category() == _Right.category()
; 378  : 			&& value() == _Right.value());

	mov	ecx, DWORD PTR __Right$[ebp]
	call	?category@error_condition@std@@QBEABVerror_category@2@XZ ; std::error_condition::category
	push	eax
	mov	ecx, DWORD PTR _this$[ebp]
	call	?category@error_condition@std@@QBEABVerror_category@2@XZ ; std::error_condition::category
	mov	ecx, eax
	call	??8error_category@std@@QBE_NABV01@@Z	; std::error_category::operator==
	movzx	eax, al
	test	eax, eax
	je	SHORT $LN3@operator
	mov	ecx, DWORD PTR _this$[ebp]
	call	?value@error_condition@std@@QBEHXZ	; std::error_condition::value
	mov	esi, eax
	mov	ecx, DWORD PTR __Right$[ebp]
	call	?value@error_condition@std@@QBEHXZ	; std::error_condition::value
	cmp	esi, eax
	jne	SHORT $LN3@operator
	mov	DWORD PTR tv78[ebp], 1
	jmp	SHORT $LN4@operator
$LN3@operator:
	mov	DWORD PTR tv78[ebp], 0
$LN4@operator:
	mov	al, BYTE PTR tv78[ebp]

; 379  : 		}

	pop	esi
	mov	esp, ebp
	pop	ebp
	ret	4
??8error_condition@std@@QBE_NABV01@@Z ENDP		; std::error_condition::operator==
_TEXT	ENDS
; Function compile flags: /Odtp
; File c:\program files (x86)\microsoft visual studio 11.0\vc\include\system_error
;	COMDAT ?category@error_condition@std@@QBEABVerror_category@2@XZ
_TEXT	SEGMENT
_this$ = -4						; size = 4
?category@error_condition@std@@QBEABVerror_category@2@XZ PROC ; std::error_condition::category, COMDAT
; _this$ = ecx

; 354  : 		{	// get category

	push	ebp
	mov	ebp, esp
	push	ecx
	mov	DWORD PTR _this$[ebp], ecx

; 355  : 		return (*_Mycat);

	mov	eax, DWORD PTR _this$[ebp]
	mov	eax, DWORD PTR [eax+4]

; 356  : 		}

	mov	esp, ebp
	pop	ebp
	ret	0
?category@error_condition@std@@QBEABVerror_category@2@XZ ENDP ; std::error_condition::category
_TEXT	ENDS
; Function compile flags: /Odtp
; File c:\program files (x86)\microsoft visual studio 11.0\vc\include\system_error
;	COMDAT ?value@error_condition@std@@QBEHXZ
_TEXT	SEGMENT
_this$ = -4						; size = 4
?value@error_condition@std@@QBEHXZ PROC			; std::error_condition::value, COMDAT
; _this$ = ecx

; 349  : 		{	// get error code

	push	ebp
	mov	ebp, esp
	push	ecx
	mov	DWORD PTR _this$[ebp], ecx

; 350  : 		return (_Myval);

	mov	eax, DWORD PTR _this$[ebp]
	mov	eax, DWORD PTR [eax]

; 351  : 		}

	mov	esp, ebp
	pop	ebp
	ret	0
?value@error_condition@std@@QBEHXZ ENDP			; std::error_condition::value
_TEXT	ENDS
; Function compile flags: /Odtp
; File c:\program files (x86)\microsoft visual studio 11.0\vc\include\system_error
;	COMDAT ??0error_condition@std@@QAE@HABVerror_category@1@@Z
_TEXT	SEGMENT
_this$ = -4						; size = 4
__Val$ = 8						; size = 4
__Cat$ = 12						; size = 4
??0error_condition@std@@QAE@HABVerror_category@1@@Z PROC ; std::error_condition::error_condition, COMDAT
; _this$ = ecx

; 316  : 		{	// construct from error code and category

	push	ebp
	mov	ebp, esp
	push	ecx
	mov	DWORD PTR _this$[ebp], ecx
	mov	eax, DWORD PTR _this$[ebp]
	mov	ecx, DWORD PTR __Val$[ebp]
	mov	DWORD PTR [eax], ecx
	mov	edx, DWORD PTR _this$[ebp]
	mov	eax, DWORD PTR __Cat$[ebp]
	mov	DWORD PTR [edx+4], eax

; 317  : 		}

	mov	eax, DWORD PTR _this$[ebp]
	mov	esp, ebp
	pop	ebp
	ret	8
??0error_condition@std@@QAE@HABVerror_category@1@@Z ENDP ; std::error_condition::error_condition
_TEXT	ENDS
; Function compile flags: /Odtp
; File c:\program files (x86)\microsoft visual studio 11.0\vc\include\system_error
;	COMDAT ?category@error_code@std@@QBEABVerror_category@2@XZ
_TEXT	SEGMENT
_this$ = -4						; size = 4
?category@error_code@std@@QBEABVerror_category@2@XZ PROC ; std::error_code::category, COMDAT
; _this$ = ecx

; 256  : 		{	// get category

	push	ebp
	mov	ebp, esp
	push	ecx
	mov	DWORD PTR _this$[ebp], ecx

; 257  : 		return (*_Mycat);

	mov	eax, DWORD PTR _this$[ebp]
	mov	eax, DWORD PTR [eax+4]

; 258  : 		}

	mov	esp, ebp
	pop	ebp
	ret	0
?category@error_code@std@@QBEABVerror_category@2@XZ ENDP ; std::error_code::category
_TEXT	ENDS
; Function compile flags: /Odtp
; File c:\program files (x86)\microsoft visual studio 11.0\vc\include\system_error
;	COMDAT ?value@error_code@std@@QBEHXZ
_TEXT	SEGMENT
_this$ = -4						; size = 4
?value@error_code@std@@QBEHXZ PROC			; std::error_code::value, COMDAT
; _this$ = ecx

; 251  : 		{	// get error code

	push	ebp
	mov	ebp, esp
	push	ecx
	mov	DWORD PTR _this$[ebp], ecx

; 252  : 		return (_Myval);

	mov	eax, DWORD PTR _this$[ebp]
	mov	eax, DWORD PTR [eax]

; 253  : 		}

	mov	esp, ebp
	pop	ebp
	ret	0
?value@error_code@std@@QBEHXZ ENDP			; std::error_code::value
_TEXT	ENDS
; Function compile flags: /Odtp
;	COMDAT ??_Gerror_category@std@@UAEPAXI@Z
_TEXT	SEGMENT
_this$ = -4						; size = 4
___flags$ = 8						; size = 4
??_Gerror_category@std@@UAEPAXI@Z PROC			; std::error_category::`scalar deleting destructor', COMDAT
; _this$ = ecx
	push	ebp
	mov	ebp, esp
	push	ecx
	mov	DWORD PTR _this$[ebp], ecx
	mov	ecx, DWORD PTR _this$[ebp]
	call	??1error_category@std@@UAE@XZ		; std::error_category::~error_category
	mov	eax, DWORD PTR ___flags$[ebp]
	and	eax, 1
	je	SHORT $LN1@scalar
	mov	ecx, DWORD PTR _this$[ebp]
	push	ecx
	call	??3@YAXPAX@Z				; operator delete
	add	esp, 4
$LN1@scalar:
	mov	eax, DWORD PTR _this$[ebp]
	mov	esp, ebp
	pop	ebp
	ret	4
??_Gerror_category@std@@UAEPAXI@Z ENDP			; std::error_category::`scalar deleting destructor'
_TEXT	ENDS
; Function compile flags: /Odtp
; File c:\program files (x86)\microsoft visual studio 11.0\vc\include\system_error
;	COMDAT ??8error_category@std@@QBE_NABV01@@Z
_TEXT	SEGMENT
_this$ = -8						; size = 4
tv65 = -4						; size = 4
__Right$ = 8						; size = 4
??8error_category@std@@QBE_NABV01@@Z PROC		; std::error_category::operator==, COMDAT
; _this$ = ecx

; 184  : 		{	// compare categories for equality

	push	ebp
	mov	ebp, esp
	sub	esp, 8
	mov	DWORD PTR _this$[ebp], ecx

; 185  : 		return (this == &_Right);

	mov	eax, DWORD PTR _this$[ebp]
	cmp	eax, DWORD PTR __Right$[ebp]
	jne	SHORT $LN3@operator
	mov	DWORD PTR tv65[ebp], 1
	jmp	SHORT $LN4@operator
$LN3@operator:
	mov	DWORD PTR tv65[ebp], 0
$LN4@operator:
	mov	al, BYTE PTR tv65[ebp]

; 186  : 		}

	mov	esp, ebp
	pop	ebp
	ret	4
??8error_category@std@@QBE_NABV01@@Z ENDP		; std::error_category::operator==
_TEXT	ENDS
; Function compile flags: /Odtp
; File c:\program files (x86)\microsoft visual studio 11.0\vc\include\system_error
;	COMDAT ?equivalent@error_category@std@@UBE_NABVerror_code@2@H@Z
_TEXT	SEGMENT
_this$ = -8						; size = 4
tv74 = -4						; size = 4
__Code$ = 8						; size = 4
__Errval$ = 12						; size = 4
?equivalent@error_category@std@@UBE_NABVerror_code@2@H@Z PROC ; std::error_category::equivalent, COMDAT
; _this$ = ecx

; 415  : 	{	// test if conditions same for this category

	push	ebp
	mov	ebp, esp
	sub	esp, 8
	mov	DWORD PTR _this$[ebp], ecx

; 416  : 	return (*this == _Code.category() && _Code.value() == _Errval);

	mov	ecx, DWORD PTR __Code$[ebp]
	call	?category@error_code@std@@QBEABVerror_category@2@XZ ; std::error_code::category
	push	eax
	mov	ecx, DWORD PTR _this$[ebp]
	call	??8error_category@std@@QBE_NABV01@@Z	; std::error_category::operator==
	movzx	eax, al
	test	eax, eax
	je	SHORT $LN3@equivalent
	mov	ecx, DWORD PTR __Code$[ebp]
	call	?value@error_code@std@@QBEHXZ		; std::error_code::value
	cmp	eax, DWORD PTR __Errval$[ebp]
	jne	SHORT $LN3@equivalent
	mov	DWORD PTR tv74[ebp], 1
	jmp	SHORT $LN4@equivalent
$LN3@equivalent:
	mov	DWORD PTR tv74[ebp], 0
$LN4@equivalent:
	mov	al, BYTE PTR tv74[ebp]

; 417  : 	}

	mov	esp, ebp
	pop	ebp
	ret	8
?equivalent@error_category@std@@UBE_NABVerror_code@2@H@Z ENDP ; std::error_category::equivalent
_TEXT	ENDS
; Function compile flags: /Odtp
; File c:\program files (x86)\microsoft visual studio 11.0\vc\include\system_error
;	COMDAT ?equivalent@error_category@std@@UBE_NHABVerror_condition@2@@Z
_TEXT	SEGMENT
$T1 = -12						; size = 8
_this$ = -4						; size = 4
__Errval$ = 8						; size = 4
__Cond$ = 12						; size = 4
?equivalent@error_category@std@@UBE_NHABVerror_condition@2@@Z PROC ; std::error_category::equivalent, COMDAT
; _this$ = ecx

; 408  : 	{	// test if error code same condition

	push	ebp
	mov	ebp, esp
	sub	esp, 12					; 0000000cH
	mov	DWORD PTR _this$[ebp], ecx

; 409  : 	return (default_error_condition(_Errval) == _Cond);

	mov	eax, DWORD PTR __Cond$[ebp]
	push	eax
	mov	ecx, DWORD PTR __Errval$[ebp]
	push	ecx
	lea	edx, DWORD PTR $T1[ebp]
	push	edx
	mov	eax, DWORD PTR _this$[ebp]
	mov	edx, DWORD PTR [eax]
	mov	ecx, DWORD PTR _this$[ebp]
	mov	eax, DWORD PTR [edx+12]
	call	eax
	mov	ecx, eax
	call	??8error_condition@std@@QBE_NABV01@@Z	; std::error_condition::operator==

; 410  : 	}

	mov	esp, ebp
	pop	ebp
	ret	8
?equivalent@error_category@std@@UBE_NHABVerror_condition@2@@Z ENDP ; std::error_category::equivalent
_TEXT	ENDS
; Function compile flags: /Odtp
; File c:\program files (x86)\microsoft visual studio 11.0\vc\include\system_error
;	COMDAT ?default_error_condition@error_category@std@@UBE?AVerror_condition@2@H@Z
_TEXT	SEGMENT
_this$ = -4						; size = 4
___$ReturnUdt$ = 8					; size = 4
__Errval$ = 12						; size = 4
?default_error_condition@error_category@std@@UBE?AVerror_condition@2@H@Z PROC ; std::error_category::default_error_condition, COMDAT
; _this$ = ecx

; 401  : 	{	// make error_condition for error code

	push	ebp
	mov	ebp, esp
	push	ecx
	mov	DWORD PTR _this$[ebp], ecx

; 402  : 	return (error_condition(_Errval, *this));

	mov	eax, DWORD PTR _this$[ebp]
	push	eax
	mov	ecx, DWORD PTR __Errval$[ebp]
	push	ecx
	mov	ecx, DWORD PTR ___$ReturnUdt$[ebp]
	call	??0error_condition@std@@QAE@HABVerror_category@1@@Z ; std::error_condition::error_condition
	mov	eax, DWORD PTR ___$ReturnUdt$[ebp]

; 403  : 	}

	mov	esp, ebp
	pop	ebp
	ret	8
?default_error_condition@error_category@std@@UBE?AVerror_condition@2@H@Z ENDP ; std::error_category::default_error_condition
_TEXT	ENDS
; Function compile flags: /Odtp
; File c:\program files (x86)\microsoft visual studio 11.0\vc\include\system_error
;	COMDAT ??1error_category@std@@UAE@XZ
_TEXT	SEGMENT
_this$ = -4						; size = 4
??1error_category@std@@UAE@XZ PROC			; std::error_category::~error_category, COMDAT
; _this$ = ecx

; 167  : 		{	// destroy the object

	push	ebp
	mov	ebp, esp
	push	ecx
	mov	DWORD PTR _this$[ebp], ecx
	mov	eax, DWORD PTR _this$[ebp]
	mov	DWORD PTR [eax], OFFSET ??_7error_category@std@@6B@

; 168  : 		}

	mov	esp, ebp
	pop	ebp
	ret	0
??1error_category@std@@UAE@XZ ENDP			; std::error_category::~error_category
_TEXT	ENDS
; Function compile flags: /Odtp
; File c:\program files (x86)\microsoft visual studio 11.0\vc\include\system_error
;	COMDAT ??0error_category@std@@QAE@XZ
_TEXT	SEGMENT
_this$ = -4						; size = 4
??0error_category@std@@QAE@XZ PROC			; std::error_category::error_category, COMDAT
; _this$ = ecx

; 162  : 	error_category()

	push	ebp
	mov	ebp, esp
	push	ecx
	mov	DWORD PTR _this$[ebp], ecx
	mov	eax, DWORD PTR _this$[ebp]
	mov	DWORD PTR [eax], OFFSET ??_7error_category@std@@6B@

; 163  : 		{	// default constructor
; 164  : 		}

	mov	eax, DWORD PTR _this$[ebp]
	mov	esp, ebp
	pop	ebp
	ret	0
??0error_category@std@@QAE@XZ ENDP			; std::error_category::error_category
_TEXT	ENDS
; Function compile flags: /Odtp
; File c:\program files (x86)\microsoft visual studio 11.0\vc\include\system_error
;	COMDAT ?system_category@std@@YAABVerror_category@1@XZ
_TEXT	SEGMENT
?system_category@std@@YAABVerror_category@1@XZ PROC	; std::system_category, COMDAT

; 679  : 	{	// get system_category

	push	ebp
	mov	ebp, esp

; 680  : 	return (_Error_objects<int>::_System_object);

	mov	eax, OFFSET ?_System_object@?$_Error_objects@H@std@@2V_System_error_category@2@A ; std::_Error_objects<int>::_System_object

; 681  : 	}

	pop	ebp
	ret	0
?system_category@std@@YAABVerror_category@1@XZ ENDP	; std::system_category
_TEXT	ENDS
; Function compile flags: /Odtp
; File c:\program files (x86)\microsoft visual studio 11.0\vc\include\system_error
;	COMDAT ?generic_category@std@@YAABVerror_category@1@XZ
_TEXT	SEGMENT
?generic_category@std@@YAABVerror_category@1@XZ PROC	; std::generic_category, COMDAT

; 669  : 	{	// get generic_category

	push	ebp
	mov	ebp, esp

; 670  : 	return (_Error_objects<int>::_Generic_object);

	mov	eax, OFFSET ?_Generic_object@?$_Error_objects@H@std@@2V_Generic_error_category@2@A ; std::_Error_objects<int>::_Generic_object

; 671  : 	}

	pop	ebp
	ret	0
?generic_category@std@@YAABVerror_category@1@XZ ENDP	; std::generic_category
_TEXT	ENDS
; Function compile flags: /Odtp
; File c:\program files (x86)\microsoft visual studio 11.0\vc\include\xlocale
;	COMDAT ??0id@locale@std@@QAE@I@Z
_TEXT	SEGMENT
_this$ = -4						; size = 4
__Val$ = 8						; size = 4
??0id@locale@std@@QAE@I@Z PROC				; std::locale::id::id, COMDAT
; _this$ = ecx

; 74   : 			{	// construct with specified stamp value

	push	ebp
	mov	ebp, esp
	push	ecx
	mov	DWORD PTR _this$[ebp], ecx
	mov	eax, DWORD PTR _this$[ebp]
	mov	ecx, DWORD PTR __Val$[ebp]
	mov	DWORD PTR [eax], ecx

; 75   : 			}

	mov	eax, DWORD PTR _this$[ebp]
	mov	esp, ebp
	pop	ebp
	ret	4
??0id@locale@std@@QAE@I@Z ENDP				; std::locale::id::id
_TEXT	ENDS
; Function compile flags: /Odtp
; File c:\users\zhitao li\documents\visual studio 2012\projects\freefalcon\sim\include\aircrft.h
;	COMDAT ?GetBingoFuel@AircraftClass@@QAEMXZ
_TEXT	SEGMENT
_this$ = -4						; size = 4
?GetBingoFuel@AircraftClass@@QAEMXZ PROC		; AircraftClass::GetBingoFuel, COMDAT
; _this$ = ecx

; 404  : 	float GetBingoFuel (void){return bingoFuel;};//me123

	push	ebp
	mov	ebp, esp
	push	ecx
	mov	DWORD PTR _this$[ebp], ecx
	mov	eax, DWORD PTR _this$[ebp]
	fld	DWORD PTR [eax+984]
	mov	esp, ebp
	pop	ebp
	ret	0
?GetBingoFuel@AircraftClass@@QAEMXZ ENDP		; AircraftClass::GetBingoFuel
_TEXT	ENDS
; Function compile flags: /Odtp
; File c:\users\zhitao li\documents\visual studio 2012\projects\freefalcon\sim\include\icp.h
;	COMDAT ?IsICPSet@ICPClass@@QAEHH@Z
_TEXT	SEGMENT
_this$ = -8						; size = 4
tv67 = -4						; size = 4
_testFlag$ = 8						; size = 4
?IsICPSet@ICPClass@@QAEHH@Z PROC			; ICPClass::IsICPSet, COMDAT
; _this$ = ecx

; 499  : 	int IsICPSet (int testFlag) {return ICPModeFlags & testFlag ? 1 : 0;};

	push	ebp
	mov	ebp, esp
	sub	esp, 8
	mov	DWORD PTR _this$[ebp], ecx
	mov	eax, DWORD PTR _this$[ebp]
	mov	ecx, DWORD PTR [eax+1376]
	and	ecx, DWORD PTR _testFlag$[ebp]
	je	SHORT $LN3@IsICPSet
	mov	DWORD PTR tv67[ebp], 1
	jmp	SHORT $LN4@IsICPSet
$LN3@IsICPSet:
	mov	DWORD PTR tv67[ebp], 0
$LN4@IsICPSet:
	mov	eax, DWORD PTR tv67[ebp]
	mov	esp, ebp
	pop	ebp
	ret	4
?IsICPSet@ICPClass@@QAEHH@Z ENDP			; ICPClass::IsICPSet
_TEXT	ENDS
; Function compile flags: /Odtp
; File c:\users\zhitao li\documents\visual studio 2012\projects\freefalcon\sim\icp\scratchpad.cpp
_TEXT	SEGMENT
_playerAC$ = -32					; size = 4
_alt1$1 = -28						; size = 4
_alt$2 = -24						; size = 4
_alt2$3 = -20						; size = 4
_this$ = -16						; size = 4
_tmpstr$4 = -12						; size = 5
__$ArrayPad$ = -4					; size = 4
_Line$ = 8						; size = 4
_Start$ = 12						; size = 4
_End$ = 16						; size = 4
?ScratchPad@ICPClass@@QAEXHHH@Z PROC			; ICPClass::ScratchPad
; _this$ = ecx

; 14   : {

	push	ebp
	mov	ebp, esp
	sub	esp, 32					; 00000020H
	mov	eax, DWORD PTR ___security_cookie
	xor	eax, ebp
	mov	DWORD PTR __$ArrayPad$[ebp], eax
	mov	DWORD PTR _this$[ebp], ecx

; 15   : 	AircraftClass *playerAC = SimDriver.GetPlayerAircraft();

	mov	ecx, OFFSET ?SimDriver@@3VSimulationDriver@@A ; SimDriver
	call	?GetPlayerAircraft@SimulationDriver@@QBEPAVAircraftClass@@XZ ; SimulationDriver::GetPlayerAircraft
	mov	DWORD PTR _playerAC$[ebp], eax

; 16   : 	//ILS page
; 17   : 	if(IsICPSet(ICPClass::MODE_CNI) && mICPSecondaryMode == ONE_BUTTON)

	push	128					; 00000080H
	mov	ecx, DWORD PTR _this$[ebp]
	call	?IsICPSet@ICPClass@@QAEHH@Z		; ICPClass::IsICPSet
	test	eax, eax
	je	$LN365@ScratchPad
	mov	eax, DWORD PTR _this$[ebp]
	cmp	DWORD PTR [eax+12], 4
	jne	$LN365@ScratchPad

; 18   : 	{
; 19   : 		if(Manual_Input)

	mov	ecx, DWORD PTR _this$[ebp]
	movzx	edx, BYTE PTR [ecx+732]
	test	edx, edx
	je	$LN364@ScratchPad

; 20   : 		{
; 21   : 			if(Input_Digit7 < 10)

	mov	eax, DWORD PTR _this$[ebp]
	cmp	DWORD PTR [eax+1436], 10		; 0000000aH
	jae	SHORT $LN363@ScratchPad

; 22   : 				InputString[2] = '0' + Input_Digit7;

	mov	ecx, DWORD PTR _this$[ebp]
	mov	edx, DWORD PTR [ecx+1436]
	add	edx, 48					; 00000030H
	mov	eax, 1
	shl	eax, 1
	mov	ecx, DWORD PTR _this$[ebp]
	mov	BYTE PTR [ecx+eax+1064], dl

; 23   : 			else

	jmp	SHORT $LN362@ScratchPad
$LN363@ScratchPad:

; 24   : 				InputString[2] = ' ';

	mov	edx, 1
	shl	edx, 1
	mov	eax, DWORD PTR _this$[ebp]
	mov	BYTE PTR [eax+edx+1064], 32		; 00000020H
$LN362@ScratchPad:

; 25   : 			if(Input_Digit6 < 10)

	mov	ecx, DWORD PTR _this$[ebp]
	cmp	DWORD PTR [ecx+1432], 10		; 0000000aH
	jae	SHORT $LN361@ScratchPad

; 26   : 				InputString[1] = '0' + Input_Digit6;

	mov	edx, DWORD PTR _this$[ebp]
	mov	eax, DWORD PTR [edx+1432]
	add	eax, 48					; 00000030H
	mov	ecx, 1
	shl	ecx, 0
	mov	edx, DWORD PTR _this$[ebp]
	mov	BYTE PTR [edx+ecx+1064], al

; 27   : 			else 

	jmp	SHORT $LN360@ScratchPad
$LN361@ScratchPad:

; 28   : 				InputString[1] = ' ';

	mov	eax, 1
	shl	eax, 0
	mov	ecx, DWORD PTR _this$[ebp]
	mov	BYTE PTR [ecx+eax+1064], 32		; 00000020H
$LN360@ScratchPad:

; 29   : 			if(Input_Digit5 < 10)

	mov	edx, DWORD PTR _this$[ebp]
	cmp	DWORD PTR [edx+1428], 10		; 0000000aH
	jae	SHORT $LN359@ScratchPad

; 30   : 				InputString[0] = '0' + Input_Digit5;

	mov	eax, DWORD PTR _this$[ebp]
	mov	ecx, DWORD PTR [eax+1428]
	add	ecx, 48					; 00000030H
	mov	edx, 1
	imul	edx, 0
	mov	eax, DWORD PTR _this$[ebp]
	mov	BYTE PTR [eax+edx+1064], cl

; 31   : 			else

	jmp	SHORT $LN358@ScratchPad
$LN359@ScratchPad:

; 32   : 				InputString[0] = ' ';

	mov	ecx, 1
	imul	ecx, 0
	mov	edx, DWORD PTR _this$[ebp]
	mov	BYTE PTR [edx+ecx+1064], 32		; 00000020H
$LN358@ScratchPad:

; 33   : 			InputString[3] = '\0';

	mov	eax, 1
	imul	eax, 3
	mov	ecx, DWORD PTR _this$[ebp]
	mov	BYTE PTR [ecx+eax+1064], 0

; 34   : 		}
; 35   : 		else

	jmp	SHORT $LN357@ScratchPad
$LN364@ScratchPad:

; 36   : 		{
; 37   : 			ClearString();

	mov	ecx, DWORD PTR _this$[ebp]
	call	?ClearString@ICPClass@@QAEXXZ		; ICPClass::ClearString

; 38   : 			InputString[3] = '\0';

	mov	edx, 1
	imul	edx, 3
	mov	eax, DWORD PTR _this$[ebp]
	mov	BYTE PTR [eax+edx+1064], 0
$LN357@ScratchPad:

; 39   : 		}

	jmp	$LN8@ScratchPad
$LN365@ScratchPad:

; 40   : 	}
; 41   : 	//Bingo Page
; 42   : 	else if(IsICPSet(ICPClass::MODE_LIST) && mICPSecondaryMode == TWO_BUTTON)

	push	4
	mov	ecx, DWORD PTR _this$[ebp]
	call	?IsICPSet@ICPClass@@QAEHH@Z		; ICPClass::IsICPSet
	test	eax, eax
	je	$LN355@ScratchPad
	mov	ecx, DWORD PTR _this$[ebp]
	cmp	DWORD PTR [ecx+12], 9
	jne	$LN355@ScratchPad

; 43   : 	{
; 44   : 		if(!Manual_Input)

	mov	edx, DWORD PTR _this$[ebp]
	movzx	eax, BYTE PTR [edx+732]
	test	eax, eax
	jne	SHORT $LN354@ScratchPad

; 45   : 		{
; 46   : 			level = (long)((AircraftClass*)(playerAC))->GetBingoFuel();

	mov	ecx, DWORD PTR _playerAC$[ebp]
	call	?GetBingoFuel@AircraftClass@@QAEMXZ	; AircraftClass::GetBingoFuel
	call	__ftol2_sse
	mov	ecx, DWORD PTR _this$[ebp]
	mov	DWORD PTR [ecx+1520], eax

; 47   : 			if(level < 10000)

	mov	edx, DWORD PTR _this$[ebp]
	cmp	DWORD PTR [edx+1520], 10000		; 00002710H
	jge	SHORT $LN353@ScratchPad

; 48   : 				sprintf(InputString," %dLBS",level);

	mov	eax, DWORD PTR _this$[ebp]
	mov	ecx, DWORD PTR [eax+1520]
	push	ecx
	push	OFFSET ??_C@_06KFLHOMKJ@?5?$CFdLBS?$AA@
	mov	edx, DWORD PTR _this$[ebp]
	add	edx, 1064				; 00000428H
	push	edx
	call	_sprintf
	add	esp, 12					; 0000000cH

; 49   : 			else 

	jmp	SHORT $LN352@ScratchPad
$LN353@ScratchPad:

; 50   : 				sprintf(InputString,"%dLBS",level);

	mov	eax, DWORD PTR _this$[ebp]
	mov	ecx, DWORD PTR [eax+1520]
	push	ecx
	push	OFFSET ??_C@_05EGKEKLOI@?$CFdLBS?$AA@
	mov	edx, DWORD PTR _this$[ebp]
	add	edx, 1064				; 00000428H
	push	edx
	call	_sprintf
	add	esp, 12					; 0000000cH
$LN352@ScratchPad:

; 51   : 		}
; 52   : 		else

	jmp	$LN341@ScratchPad
$LN354@ScratchPad:

; 53   : 		{
; 54   : 			InputString[5] = 'L';

	mov	eax, 1
	imul	eax, 5
	mov	ecx, DWORD PTR _this$[ebp]
	mov	BYTE PTR [ecx+eax+1064], 76		; 0000004cH

; 55   : 			InputString[6] = 'B';

	mov	edx, 1
	imul	edx, 6
	mov	eax, DWORD PTR _this$[ebp]
	mov	BYTE PTR [eax+edx+1064], 66		; 00000042H

; 56   : 			InputString[7] = 'S';

	mov	ecx, 1
	imul	ecx, 7
	mov	edx, DWORD PTR _this$[ebp]
	mov	BYTE PTR [edx+ecx+1064], 83		; 00000053H

; 57   : 			if(Input_Digit7 < 10)

	mov	eax, DWORD PTR _this$[ebp]
	cmp	DWORD PTR [eax+1436], 10		; 0000000aH
	jae	SHORT $LN350@ScratchPad

; 58   : 				InputString[4] = '0' + Input_Digit7;

	mov	ecx, DWORD PTR _this$[ebp]
	mov	edx, DWORD PTR [ecx+1436]
	add	edx, 48					; 00000030H
	mov	eax, 1
	shl	eax, 2
	mov	ecx, DWORD PTR _this$[ebp]
	mov	BYTE PTR [ecx+eax+1064], dl

; 59   : 			else

	jmp	SHORT $LN349@ScratchPad
$LN350@ScratchPad:

; 60   : 				InputString[4] = ' ';

	mov	edx, 1
	shl	edx, 2
	mov	eax, DWORD PTR _this$[ebp]
	mov	BYTE PTR [eax+edx+1064], 32		; 00000020H
$LN349@ScratchPad:

; 61   : 			if(Input_Digit6 < 10)

	mov	ecx, DWORD PTR _this$[ebp]
	cmp	DWORD PTR [ecx+1432], 10		; 0000000aH
	jae	SHORT $LN348@ScratchPad

; 62   : 				InputString[3] = '0' + Input_Digit6;

	mov	edx, DWORD PTR _this$[ebp]
	mov	eax, DWORD PTR [edx+1432]
	add	eax, 48					; 00000030H
	mov	ecx, 1
	imul	ecx, 3
	mov	edx, DWORD PTR _this$[ebp]
	mov	BYTE PTR [edx+ecx+1064], al

; 63   : 			else 

	jmp	SHORT $LN347@ScratchPad
$LN348@ScratchPad:

; 64   : 				InputString[3] = ' ';

	mov	eax, 1
	imul	eax, 3
	mov	ecx, DWORD PTR _this$[ebp]
	mov	BYTE PTR [ecx+eax+1064], 32		; 00000020H
$LN347@ScratchPad:

; 65   : 			if(Input_Digit5 < 10)

	mov	edx, DWORD PTR _this$[ebp]
	cmp	DWORD PTR [edx+1428], 10		; 0000000aH
	jae	SHORT $LN346@ScratchPad

; 66   : 				InputString[2] = '0' + Input_Digit5;

	mov	eax, DWORD PTR _this$[ebp]
	mov	ecx, DWORD PTR [eax+1428]
	add	ecx, 48					; 00000030H
	mov	edx, 1
	shl	edx, 1
	mov	eax, DWORD PTR _this$[ebp]
	mov	BYTE PTR [eax+edx+1064], cl

; 67   : 			else

	jmp	SHORT $LN345@ScratchPad
$LN346@ScratchPad:

; 68   : 				InputString[2] = ' ';

	mov	ecx, 1
	shl	ecx, 1
	mov	edx, DWORD PTR _this$[ebp]
	mov	BYTE PTR [edx+ecx+1064], 32		; 00000020H
$LN345@ScratchPad:

; 69   : 			if(Input_Digit4 < 10)

	mov	eax, DWORD PTR _this$[ebp]
	cmp	DWORD PTR [eax+1424], 10		; 0000000aH
	jae	SHORT $LN344@ScratchPad

; 70   : 				InputString[1] = '0' + Input_Digit4;

	mov	ecx, DWORD PTR _this$[ebp]
	mov	edx, DWORD PTR [ecx+1424]
	add	edx, 48					; 00000030H
	mov	eax, 1
	shl	eax, 0
	mov	ecx, DWORD PTR _this$[ebp]
	mov	BYTE PTR [ecx+eax+1064], dl

; 71   : 			else

	jmp	SHORT $LN343@ScratchPad
$LN344@ScratchPad:

; 72   : 				InputString[1] = ' ';

	mov	edx, 1
	shl	edx, 0
	mov	eax, DWORD PTR _this$[ebp]
	mov	BYTE PTR [eax+edx+1064], 32		; 00000020H
$LN343@ScratchPad:

; 73   : 			if(Input_Digit3 < 10)

	mov	ecx, DWORD PTR _this$[ebp]
	cmp	DWORD PTR [ecx+1420], 10		; 0000000aH
	jae	SHORT $LN342@ScratchPad

; 74   : 				InputString[0] = '0' + Input_Digit3;

	mov	edx, DWORD PTR _this$[ebp]
	mov	eax, DWORD PTR [edx+1420]
	add	eax, 48					; 00000030H
	mov	ecx, 1
	imul	ecx, 0
	mov	edx, DWORD PTR _this$[ebp]
	mov	BYTE PTR [edx+ecx+1064], al

; 75   : 			else

	jmp	SHORT $LN341@ScratchPad
$LN342@ScratchPad:

; 76   : 				InputString[0] = ' ';

	mov	eax, 1
	imul	eax, 0
	mov	ecx, DWORD PTR _this$[ebp]
	mov	BYTE PTR [ecx+eax+1064], 32		; 00000020H
$LN341@ScratchPad:

; 77   : 		}
; 78   : 		InputString[8] = '\0';

	mov	edx, 1
	shl	edx, 3
	mov	eax, DWORD PTR _this$[ebp]
	mov	BYTE PTR [eax+edx+1064], 0
	jmp	$LN8@ScratchPad
$LN355@ScratchPad:

; 79   : 	}
; 80   : 	else if(IsICPSet(ICPClass::MODE_CNI) && mICPSecondaryMode == TWO_BUTTON)

	push	128					; 00000080H
	mov	ecx, DWORD PTR _this$[ebp]
	call	?IsICPSet@ICPClass@@QAEHH@Z		; ICPClass::IsICPSet
	test	eax, eax
	je	$LN339@ScratchPad
	mov	ecx, DWORD PTR _this$[ebp]
	cmp	DWORD PTR [ecx+12], 9
	jne	$LN339@ScratchPad

; 81   : 	{
; 82   : 		if(!Manual_Input)

	mov	edx, DWORD PTR _this$[ebp]
	movzx	eax, BYTE PTR [edx+732]
	test	eax, eax
	jne	$LN338@ScratchPad

; 83   : 		{
; 84   : 			if(EDITMSLFLOOR)

	mov	ecx, DWORD PTR _this$[ebp]
	movzx	edx, BYTE PTR [ecx+1528]
	test	edx, edx
	je	SHORT $LN337@ScratchPad

; 85   : 				sprintf(InputString,"%dFT",TheHud->MSLFloor);

	mov	eax, DWORD PTR ?TheHud@@3PAVHudClass@@A	; TheHud
	mov	ecx, DWORD PTR [eax+5008]
	push	ecx
	push	OFFSET ??_C@_04COHIKBOA@?$CFdFT?$AA@
	mov	edx, DWORD PTR _this$[ebp]
	add	edx, 1064				; 00000428H
	push	edx
	call	_sprintf
	add	esp, 12					; 0000000cH
	jmp	$LN325@ScratchPad
$LN337@ScratchPad:

; 86   : 			else if(TFADV)

	mov	eax, DWORD PTR _this$[ebp]
	movzx	ecx, BYTE PTR [eax+1529]
	test	ecx, ecx
	je	SHORT $LN335@ScratchPad

; 87   : 				sprintf(InputString,"%dFT",TheHud->TFAdv);

	mov	edx, DWORD PTR ?TheHud@@3PAVHudClass@@A	; TheHud
	mov	eax, DWORD PTR [edx+5012]
	push	eax
	push	OFFSET ??_C@_04COHIKBOA@?$CFdFT?$AA@
	mov	ecx, DWORD PTR _this$[ebp]
	add	ecx, 1064				; 00000428H
	push	ecx
	call	_sprintf
	add	esp, 12					; 0000000cH

; 88   : 			else

	jmp	$LN325@ScratchPad
$LN335@ScratchPad:

; 89   : 			{
; 90   : 				if(EDITMSLFLOOR);

	mov	edx, DWORD PTR _this$[ebp]
	movzx	eax, BYTE PTR [edx+1528]
	test	eax, eax
	je	SHORT $LN333@ScratchPad
	jmp	$LN325@ScratchPad
$LN333@ScratchPad:

; 91   : 				else if(TFADV);

	mov	ecx, DWORD PTR _this$[ebp]
	movzx	edx, BYTE PTR [ecx+1529]
	test	edx, edx
	je	SHORT $LN331@ScratchPad

; 92   : 				else

	jmp	$LN325@ScratchPad
$LN331@ScratchPad:

; 93   : 				{
; 94   : 					long	alt;
; 95   : 					int	alt1, alt2;
; 96   : 					char	tmpstr[5] = "";

	mov	al, BYTE PTR ??_C@_00CNPNBAHC@?$AA@
	mov	BYTE PTR _tmpstr$4[ebp], al
	xor	ecx, ecx
	mov	DWORD PTR _tmpstr$4[ebp+1], ecx

; 97   : 					alt = (long)TheHud->lowAltWarning;

	mov	edx, DWORD PTR ?TheHud@@3PAVHudClass@@A	; TheHud
	cvttss2si eax, DWORD PTR [edx+4960]
	mov	DWORD PTR _alt$2[ebp], eax

; 98   : 
; 99   : 					alt1 = (int) alt / 1000;

	mov	eax, DWORD PTR _alt$2[ebp]
	cdq
	mov	ecx, 1000				; 000003e8H
	idiv	ecx
	mov	DWORD PTR _alt1$1[ebp], eax

; 100  : 					alt2 = (int) alt % 1000;

	mov	eax, DWORD PTR _alt$2[ebp]
	cdq
	mov	ecx, 1000				; 000003e8H
	idiv	ecx
	mov	DWORD PTR _alt2$3[ebp], edx

; 101  : 
; 102  : 					if(alt1) 

	cmp	DWORD PTR _alt1$1[ebp], 0
	je	SHORT $LN329@ScratchPad

; 103  : 					{
; 104  : 						sprintf(tmpstr, "%-3d", alt2);

	mov	edx, DWORD PTR _alt2$3[ebp]
	push	edx
	push	OFFSET ??_C@_04EFBICKBP@?$CF?93d?$AA@
	lea	eax, DWORD PTR _tmpstr$4[ebp]
	push	eax
	call	_sprintf
	add	esp, 12					; 0000000cH

; 105  : 						if(alt2 < 100) 

	cmp	DWORD PTR _alt2$3[ebp], 100		; 00000064H
	jge	SHORT $LN328@ScratchPad

; 106  : 							tmpstr[0] = '0';

	mov	ecx, 1
	imul	ecx, 0
	mov	BYTE PTR _tmpstr$4[ebp+ecx], 48		; 00000030H
$LN328@ScratchPad:

; 107  : 						if(alt2 < 10)

	cmp	DWORD PTR _alt2$3[ebp], 10		; 0000000aH
	jge	SHORT $LN327@ScratchPad

; 108  : 							tmpstr[1] = '0';

	mov	edx, 1
	shl	edx, 0
	mov	BYTE PTR _tmpstr$4[ebp+edx], 48		; 00000030H
$LN327@ScratchPad:

; 109  : 						if(alt2 < 1)

	cmp	DWORD PTR _alt2$3[ebp], 1
	jge	SHORT $LN326@ScratchPad

; 110  : 							tmpstr[2] = '0';

	mov	eax, 1
	shl	eax, 1
	mov	BYTE PTR _tmpstr$4[ebp+eax], 48		; 00000030H
$LN326@ScratchPad:

; 111  : 						sprintf(InputString, "%-d%sFT", alt1, tmpstr);

	lea	ecx, DWORD PTR _tmpstr$4[ebp]
	push	ecx
	mov	edx, DWORD PTR _alt1$1[ebp]
	push	edx
	push	OFFSET ??_C@_07MMCPJPJA@?$CF?9d?$CFsFT?$AA@
	mov	eax, DWORD PTR _this$[ebp]
	add	eax, 1064				; 00000428H
	push	eax
	call	_sprintf
	add	esp, 16					; 00000010H

; 112  : 					} 
; 113  : 					else

	jmp	SHORT $LN325@ScratchPad
$LN329@ScratchPad:

; 114  : 						sprintf(InputString, "%dFT", alt2);

	mov	ecx, DWORD PTR _alt2$3[ebp]
	push	ecx
	push	OFFSET ??_C@_04COHIKBOA@?$CFdFT?$AA@
	mov	edx, DWORD PTR _this$[ebp]
	add	edx, 1064				; 00000428H
	push	edx
	call	_sprintf
	add	esp, 12					; 0000000cH
$LN325@ScratchPad:

; 115  : 				}
; 116  : 			}
; 117  : 		}
; 118  : 		else

	jmp	$LN314@ScratchPad
$LN338@ScratchPad:

; 119  : 		{
; 120  : 			InputString[7] = '\0';

	mov	eax, 1
	imul	eax, 7
	mov	ecx, DWORD PTR _this$[ebp]
	mov	BYTE PTR [ecx+eax+1064], 0

; 121  : 			InputString[6] = 'T';

	mov	edx, 1
	imul	edx, 6
	mov	eax, DWORD PTR _this$[ebp]
	mov	BYTE PTR [eax+edx+1064], 84		; 00000054H

; 122  : 			InputString[5] = 'F';

	mov	ecx, 1
	imul	ecx, 5
	mov	edx, DWORD PTR _this$[ebp]
	mov	BYTE PTR [edx+ecx+1064], 70		; 00000046H

; 123  : 			if(Input_Digit7 < 10)

	mov	eax, DWORD PTR _this$[ebp]
	cmp	DWORD PTR [eax+1436], 10		; 0000000aH
	jae	SHORT $LN323@ScratchPad

; 124  : 				InputString[4] = '0' + Input_Digit7;

	mov	ecx, DWORD PTR _this$[ebp]
	mov	edx, DWORD PTR [ecx+1436]
	add	edx, 48					; 00000030H
	mov	eax, 1
	shl	eax, 2
	mov	ecx, DWORD PTR _this$[ebp]
	mov	BYTE PTR [ecx+eax+1064], dl

; 125  : 			else

	jmp	SHORT $LN322@ScratchPad
$LN323@ScratchPad:

; 126  : 				InputString[4] = ' ';

	mov	edx, 1
	shl	edx, 2
	mov	eax, DWORD PTR _this$[ebp]
	mov	BYTE PTR [eax+edx+1064], 32		; 00000020H
$LN322@ScratchPad:

; 127  : 			if(Input_Digit6 < 10)

	mov	ecx, DWORD PTR _this$[ebp]
	cmp	DWORD PTR [ecx+1432], 10		; 0000000aH
	jae	SHORT $LN321@ScratchPad

; 128  : 				InputString[3] = '0' + Input_Digit6;

	mov	edx, DWORD PTR _this$[ebp]
	mov	eax, DWORD PTR [edx+1432]
	add	eax, 48					; 00000030H
	mov	ecx, 1
	imul	ecx, 3
	mov	edx, DWORD PTR _this$[ebp]
	mov	BYTE PTR [edx+ecx+1064], al

; 129  : 			else 

	jmp	SHORT $LN320@ScratchPad
$LN321@ScratchPad:

; 130  : 				InputString[3] = ' ';

	mov	eax, 1
	imul	eax, 3
	mov	ecx, DWORD PTR _this$[ebp]
	mov	BYTE PTR [ecx+eax+1064], 32		; 00000020H
$LN320@ScratchPad:

; 131  : 			if(Input_Digit5 < 10)

	mov	edx, DWORD PTR _this$[ebp]
	cmp	DWORD PTR [edx+1428], 10		; 0000000aH
	jae	SHORT $LN319@ScratchPad

; 132  : 				InputString[2] = '0' + Input_Digit5;

	mov	eax, DWORD PTR _this$[ebp]
	mov	ecx, DWORD PTR [eax+1428]
	add	ecx, 48					; 00000030H
	mov	edx, 1
	shl	edx, 1
	mov	eax, DWORD PTR _this$[ebp]
	mov	BYTE PTR [eax+edx+1064], cl

; 133  : 			else

	jmp	SHORT $LN318@ScratchPad
$LN319@ScratchPad:

; 134  : 				InputString[2] = ' ';

	mov	ecx, 1
	shl	ecx, 1
	mov	edx, DWORD PTR _this$[ebp]
	mov	BYTE PTR [edx+ecx+1064], 32		; 00000020H
$LN318@ScratchPad:

; 135  : 			if(Input_Digit4 < 10)

	mov	eax, DWORD PTR _this$[ebp]
	cmp	DWORD PTR [eax+1424], 10		; 0000000aH
	jae	SHORT $LN317@ScratchPad

; 136  : 				InputString[1] = '0' + Input_Digit4;

	mov	ecx, DWORD PTR _this$[ebp]
	mov	edx, DWORD PTR [ecx+1424]
	add	edx, 48					; 00000030H
	mov	eax, 1
	shl	eax, 0
	mov	ecx, DWORD PTR _this$[ebp]
	mov	BYTE PTR [ecx+eax+1064], dl

; 137  : 			else

	jmp	SHORT $LN316@ScratchPad
$LN317@ScratchPad:

; 138  : 				InputString[1] = ' ';

	mov	edx, 1
	shl	edx, 0
	mov	eax, DWORD PTR _this$[ebp]
	mov	BYTE PTR [eax+edx+1064], 32		; 00000020H
$LN316@ScratchPad:

; 139  : 			if(Input_Digit3 < 10)

	mov	ecx, DWORD PTR _this$[ebp]
	cmp	DWORD PTR [ecx+1420], 10		; 0000000aH
	jae	SHORT $LN315@ScratchPad

; 140  : 				InputString[0] = '0' + Input_Digit3;

	mov	edx, DWORD PTR _this$[ebp]
	mov	eax, DWORD PTR [edx+1420]
	add	eax, 48					; 00000030H
	mov	ecx, 1
	imul	ecx, 0
	mov	edx, DWORD PTR _this$[ebp]
	mov	BYTE PTR [edx+ecx+1064], al

; 141  : 			else

	jmp	SHORT $LN314@ScratchPad
$LN315@ScratchPad:

; 142  : 				InputString[0] = ' ';

	mov	eax, 1
	imul	eax, 0
	mov	ecx, DWORD PTR _this$[ebp]
	mov	BYTE PTR [ecx+eax+1064], 32		; 00000020H
$LN314@ScratchPad:

; 143  : 		}

	jmp	$LN8@ScratchPad
$LN339@ScratchPad:

; 144  : 	}
; 145  : 	else if((IsICPSet(ICPClass::EDIT_LAT) || IsICPSet(ICPClass::EDIT_LONG)) && Manual_Input)

	push	16384					; 00004000H
	mov	ecx, DWORD PTR _this$[ebp]
	call	?IsICPSet@ICPClass@@QAEHH@Z		; ICPClass::IsICPSet
	test	eax, eax
	jne	SHORT $LN311@ScratchPad
	push	32768					; 00008000H
	mov	ecx, DWORD PTR _this$[ebp]
	call	?IsICPSet@ICPClass@@QAEHH@Z		; ICPClass::IsICPSet
	test	eax, eax
	je	$LN312@ScratchPad
$LN311@ScratchPad:
	mov	edx, DWORD PTR _this$[ebp]
	movzx	eax, BYTE PTR [edx+732]
	test	eax, eax
	je	$LN312@ScratchPad

; 146  : 	{
; 147  : 		InputString[10] = '\0';

	mov	ecx, 1
	imul	ecx, 10					; 0000000aH
	mov	edx, DWORD PTR _this$[ebp]
	mov	BYTE PTR [edx+ecx+1064], 0

; 148  : 		InputString[9] = '\'';

	mov	eax, 1
	imul	eax, 9
	mov	ecx, DWORD PTR _this$[ebp]
	mov	BYTE PTR [ecx+eax+1064], 39		; 00000027H

; 149  : 		if(Input_Digit7 < 10)

	mov	edx, DWORD PTR _this$[ebp]
	cmp	DWORD PTR [edx+1436], 10		; 0000000aH
	jae	SHORT $LN310@ScratchPad

; 150  : 			InputString[8] = '0' + Input_Digit7;

	mov	eax, DWORD PTR _this$[ebp]
	mov	ecx, DWORD PTR [eax+1436]
	add	ecx, 48					; 00000030H
	mov	edx, 1
	shl	edx, 3
	mov	eax, DWORD PTR _this$[ebp]
	mov	BYTE PTR [eax+edx+1064], cl

; 151  : 		else

	jmp	SHORT $LN309@ScratchPad
$LN310@ScratchPad:

; 152  : 			InputString[8] = '0';

	mov	ecx, 1
	shl	ecx, 3
	mov	edx, DWORD PTR _this$[ebp]
	mov	BYTE PTR [edx+ecx+1064], 48		; 00000030H
$LN309@ScratchPad:

; 153  : 		if(Input_Digit6 < 10)

	mov	eax, DWORD PTR _this$[ebp]
	cmp	DWORD PTR [eax+1432], 10		; 0000000aH
	jae	SHORT $LN308@ScratchPad

; 154  : 			InputString[7] = '0' + Input_Digit6;

	mov	ecx, DWORD PTR _this$[ebp]
	mov	edx, DWORD PTR [ecx+1432]
	add	edx, 48					; 00000030H
	mov	eax, 1
	imul	eax, 7
	mov	ecx, DWORD PTR _this$[ebp]
	mov	BYTE PTR [ecx+eax+1064], dl

; 155  : 		else 

	jmp	SHORT $LN307@ScratchPad
$LN308@ScratchPad:

; 156  : 			InputString[7] = '0';

	mov	edx, 1
	imul	edx, 7
	mov	eax, DWORD PTR _this$[ebp]
	mov	BYTE PTR [eax+edx+1064], 48		; 00000030H
$LN307@ScratchPad:

; 157  : 		InputString[6] = '.';

	mov	ecx, 1
	imul	ecx, 6
	mov	edx, DWORD PTR _this$[ebp]
	mov	BYTE PTR [edx+ecx+1064], 46		; 0000002eH

; 158  : 		if(Input_Digit5 < 10)

	mov	eax, DWORD PTR _this$[ebp]
	cmp	DWORD PTR [eax+1428], 10		; 0000000aH
	jae	SHORT $LN306@ScratchPad

; 159  : 			InputString[5] = '0' + Input_Digit5;

	mov	ecx, DWORD PTR _this$[ebp]
	mov	edx, DWORD PTR [ecx+1428]
	add	edx, 48					; 00000030H
	mov	eax, 1
	imul	eax, 5
	mov	ecx, DWORD PTR _this$[ebp]
	mov	BYTE PTR [ecx+eax+1064], dl

; 160  : 		else

	jmp	SHORT $LN305@ScratchPad
$LN306@ScratchPad:

; 161  : 			InputString[5] = '0';

	mov	edx, 1
	imul	edx, 5
	mov	eax, DWORD PTR _this$[ebp]
	mov	BYTE PTR [eax+edx+1064], 48		; 00000030H
$LN305@ScratchPad:

; 162  : 		if(Input_Digit4 < 10)

	mov	ecx, DWORD PTR _this$[ebp]
	cmp	DWORD PTR [ecx+1424], 10		; 0000000aH
	jae	SHORT $LN304@ScratchPad

; 163  : 			InputString[4] = '0' + Input_Digit4;

	mov	edx, DWORD PTR _this$[ebp]
	mov	eax, DWORD PTR [edx+1424]
	add	eax, 48					; 00000030H
	mov	ecx, 1
	shl	ecx, 2
	mov	edx, DWORD PTR _this$[ebp]
	mov	BYTE PTR [edx+ecx+1064], al

; 164  : 		else

	jmp	SHORT $LN303@ScratchPad
$LN304@ScratchPad:

; 165  : 			InputString[4] = '0';

	mov	eax, 1
	shl	eax, 2
	mov	ecx, DWORD PTR _this$[ebp]
	mov	BYTE PTR [ecx+eax+1064], 48		; 00000030H
$LN303@ScratchPad:

; 166  : 		InputString[3] = '*'; //this is a  symbol

	mov	edx, 1
	imul	edx, 3
	mov	eax, DWORD PTR _this$[ebp]
	mov	BYTE PTR [eax+edx+1064], 42		; 0000002aH

; 167  : 		if(Input_Digit3 < 10)

	mov	ecx, DWORD PTR _this$[ebp]
	cmp	DWORD PTR [ecx+1420], 10		; 0000000aH
	jae	SHORT $LN302@ScratchPad

; 168  : 			InputString[2] = '0' + Input_Digit3;

	mov	edx, DWORD PTR _this$[ebp]
	mov	eax, DWORD PTR [edx+1420]
	add	eax, 48					; 00000030H
	mov	ecx, 1
	shl	ecx, 1
	mov	edx, DWORD PTR _this$[ebp]
	mov	BYTE PTR [edx+ecx+1064], al

; 169  : 		else

	jmp	SHORT $LN301@ScratchPad
$LN302@ScratchPad:

; 170  : 			InputString[2] = '0';

	mov	eax, 1
	shl	eax, 1
	mov	ecx, DWORD PTR _this$[ebp]
	mov	BYTE PTR [ecx+eax+1064], 48		; 00000030H
$LN301@ScratchPad:

; 171  : 		if(Input_Digit2 < 10)

	mov	edx, DWORD PTR _this$[ebp]
	cmp	DWORD PTR [edx+1416], 10		; 0000000aH
	jae	SHORT $LN300@ScratchPad

; 172  : 			InputString[1] = '0' + Input_Digit2;

	mov	eax, DWORD PTR _this$[ebp]
	mov	ecx, DWORD PTR [eax+1416]
	add	ecx, 48					; 00000030H
	mov	edx, 1
	shl	edx, 0
	mov	eax, DWORD PTR _this$[ebp]
	mov	BYTE PTR [eax+edx+1064], cl

; 173  : 		else

	jmp	SHORT $LN299@ScratchPad
$LN300@ScratchPad:

; 174  : 			InputString[1] = '0';

	mov	ecx, 1
	shl	ecx, 0
	mov	edx, DWORD PTR _this$[ebp]
	mov	BYTE PTR [edx+ecx+1064], 48		; 00000030H
$LN299@ScratchPad:

; 175  : 		if(IsICPSet(ICPClass::EDIT_LAT) && Manual_Input)

	push	16384					; 00004000H
	mov	ecx, DWORD PTR _this$[ebp]
	call	?IsICPSet@ICPClass@@QAEHH@Z		; ICPClass::IsICPSet
	test	eax, eax
	je	SHORT $LN298@ScratchPad
	mov	eax, DWORD PTR _this$[ebp]
	movzx	ecx, BYTE PTR [eax+732]
	test	ecx, ecx
	je	SHORT $LN298@ScratchPad

; 176  : 		{
; 177  : 			if(Input_Digit1 < 10)

	mov	edx, DWORD PTR _this$[ebp]
	cmp	DWORD PTR [edx+1412], 10		; 0000000aH
	jae	SHORT $LN297@ScratchPad

; 178  : 				InputString[0] = '0' + Input_Digit1;

	mov	eax, DWORD PTR _this$[ebp]
	mov	ecx, DWORD PTR [eax+1412]
	add	ecx, 48					; 00000030H
	mov	edx, 1
	imul	edx, 0
	mov	eax, DWORD PTR _this$[ebp]
	mov	BYTE PTR [eax+edx+1064], cl

; 179  : 			else

	jmp	SHORT $LN296@ScratchPad
$LN297@ScratchPad:

; 180  : 				InputString[0] = '0';

	mov	ecx, 1
	imul	ecx, 0
	mov	edx, DWORD PTR _this$[ebp]
	mov	BYTE PTR [edx+ecx+1064], 48		; 00000030H
$LN296@ScratchPad:

; 181  : 		}
; 182  : 		else

	jmp	SHORT $LN295@ScratchPad
$LN298@ScratchPad:

; 183  : 			InputString[0] = ' ';

	mov	eax, 1
	imul	eax, 0
	mov	ecx, DWORD PTR _this$[ebp]
	mov	BYTE PTR [ecx+eax+1064], 32		; 00000020H
$LN295@ScratchPad:
	jmp	$LN8@ScratchPad
$LN312@ScratchPad:

; 184  : 	}
; 185  : 	else if(IsICPSet(ICPClass::MODE_LIST) && mICPSecondaryMode == FIFE_BUTTON)

	push	4
	mov	ecx, DWORD PTR _this$[ebp]
	call	?IsICPSet@ICPClass@@QAEHH@Z		; ICPClass::IsICPSet
	test	eax, eax
	je	$LN293@ScratchPad
	mov	edx, DWORD PTR _this$[ebp]
	cmp	DWORD PTR [edx+12], 5
	jne	$LN293@ScratchPad

; 186  : 	{
; 187  : 		if(Manual_Input)

	mov	eax, DWORD PTR _this$[ebp]
	movzx	ecx, BYTE PTR [eax+732]
	test	ecx, ecx
	je	$LN292@ScratchPad

; 188  : 		{
; 189  : 			InputString[5] = '\0';

	mov	edx, 1
	imul	edx, 5
	mov	eax, DWORD PTR _this$[ebp]
	mov	BYTE PTR [eax+edx+1064], 0

; 190  : 			InputString[3] = 'F';

	mov	ecx, 1
	imul	ecx, 3
	mov	edx, DWORD PTR _this$[ebp]
	mov	BYTE PTR [edx+ecx+1064], 70		; 00000046H

; 191  : 			InputString[4] = 'T';

	mov	eax, 1
	shl	eax, 2
	mov	ecx, DWORD PTR _this$[ebp]
	mov	BYTE PTR [ecx+eax+1064], 84		; 00000054H

; 192  : 			if(Input_Digit7 < 10)

	mov	edx, DWORD PTR _this$[ebp]
	cmp	DWORD PTR [edx+1436], 10		; 0000000aH
	jae	SHORT $LN291@ScratchPad

; 193  : 				InputString[2] = '0' + Input_Digit7;

	mov	eax, DWORD PTR _this$[ebp]
	mov	ecx, DWORD PTR [eax+1436]
	add	ecx, 48					; 00000030H
	mov	edx, 1
	shl	edx, 1
	mov	eax, DWORD PTR _this$[ebp]
	mov	BYTE PTR [eax+edx+1064], cl

; 194  : 			else

	jmp	SHORT $LN290@ScratchPad
$LN291@ScratchPad:

; 195  : 				InputString[2] = ' ';

	mov	ecx, 1
	shl	ecx, 1
	mov	edx, DWORD PTR _this$[ebp]
	mov	BYTE PTR [edx+ecx+1064], 32		; 00000020H
$LN290@ScratchPad:

; 196  : 			if(Input_Digit6 < 10)

	mov	eax, DWORD PTR _this$[ebp]
	cmp	DWORD PTR [eax+1432], 10		; 0000000aH
	jae	SHORT $LN289@ScratchPad

; 197  : 				InputString[1] = '0' + Input_Digit6;

	mov	ecx, DWORD PTR _this$[ebp]
	mov	edx, DWORD PTR [ecx+1432]
	add	edx, 48					; 00000030H
	mov	eax, 1
	shl	eax, 0
	mov	ecx, DWORD PTR _this$[ebp]
	mov	BYTE PTR [ecx+eax+1064], dl

; 198  : 			else 

	jmp	SHORT $LN288@ScratchPad
$LN289@ScratchPad:

; 199  : 				InputString[1] = ' ';

	mov	edx, 1
	shl	edx, 0
	mov	eax, DWORD PTR _this$[ebp]
	mov	BYTE PTR [eax+edx+1064], 32		; 00000020H
$LN288@ScratchPad:

; 200  : 			if(Input_Digit5 < 10)

	mov	ecx, DWORD PTR _this$[ebp]
	cmp	DWORD PTR [ecx+1428], 10		; 0000000aH
	jae	SHORT $LN287@ScratchPad

; 201  : 				InputString[0] = '0' + Input_Digit5;

	mov	edx, DWORD PTR _this$[ebp]
	mov	eax, DWORD PTR [edx+1428]
	add	eax, 48					; 00000030H
	mov	ecx, 1
	imul	ecx, 0
	mov	edx, DWORD PTR _this$[ebp]
	mov	BYTE PTR [edx+ecx+1064], al

; 202  : 			else

	jmp	SHORT $LN286@ScratchPad
$LN287@ScratchPad:

; 203  : 				InputString[0] = ' ';

	mov	eax, 1
	imul	eax, 0
	mov	ecx, DWORD PTR _this$[ebp]
	mov	BYTE PTR [ecx+eax+1064], 32		; 00000020H
$LN286@ScratchPad:

; 204  : 			
; 205  : 		}
; 206  : 		else

	jmp	SHORT $LN285@ScratchPad
$LN292@ScratchPad:

; 207  : 			sprintf(InputString,"%3.0fFT",ManualWSpan);

	mov	edx, DWORD PTR _this$[ebp]
	cvtss2sd xmm0, DWORD PTR [edx+1508]
	sub	esp, 8
	movsd	QWORD PTR [esp], xmm0
	push	OFFSET ??_C@_07JKMKOOFG@?$CF3?40fFT?$AA@
	mov	eax, DWORD PTR _this$[ebp]
	add	eax, 1064				; 00000428H
	push	eax
	call	_sprintf
	add	esp, 16					; 00000010H
$LN285@ScratchPad:
	jmp	$LN8@ScratchPad
$LN293@ScratchPad:

; 208  : 	}
; 209  : 	//INS page
; 210  : 	else if(IsICPSet(ICPClass::MODE_LIST) && mICPSecondaryMode == SIX_BUTTON && Manual_Input)

	push	4
	mov	ecx, DWORD PTR _this$[ebp]
	call	?IsICPSet@ICPClass@@QAEHH@Z		; ICPClass::IsICPSet
	test	eax, eax
	je	$LN283@ScratchPad
	mov	ecx, DWORD PTR _this$[ebp]
	cmp	DWORD PTR [ecx+12], 23			; 00000017H
	jne	$LN283@ScratchPad
	mov	edx, DWORD PTR _this$[ebp]
	movzx	eax, BYTE PTR [edx+732]
	test	eax, eax
	je	$LN283@ScratchPad

; 211  : 	{
; 212  : 		if(INSLine == 0)

	mov	ecx, DWORD PTR _this$[ebp]
	cmp	DWORD PTR [ecx+1560], 0
	jne	$LN282@ScratchPad

; 213  : 		{
; 214  : 			//LAT String
; 215  : 			InputString[10] = '\0';

	mov	edx, 1
	imul	edx, 10					; 0000000aH
	mov	eax, DWORD PTR _this$[ebp]
	mov	BYTE PTR [eax+edx+1064], 0

; 216  : 			InputString[9] = '\'';

	mov	ecx, 1
	imul	ecx, 9
	mov	edx, DWORD PTR _this$[ebp]
	mov	BYTE PTR [edx+ecx+1064], 39		; 00000027H

; 217  : 			if(Input_Digit7 < 10)

	mov	eax, DWORD PTR _this$[ebp]
	cmp	DWORD PTR [eax+1436], 10		; 0000000aH
	jae	SHORT $LN281@ScratchPad

; 218  : 				InputString[8] = '0' + Input_Digit7;

	mov	ecx, DWORD PTR _this$[ebp]
	mov	edx, DWORD PTR [ecx+1436]
	add	edx, 48					; 00000030H
	mov	eax, 1
	shl	eax, 3
	mov	ecx, DWORD PTR _this$[ebp]
	mov	BYTE PTR [ecx+eax+1064], dl

; 219  : 			else

	jmp	SHORT $LN280@ScratchPad
$LN281@ScratchPad:

; 220  : 				InputString[8] = '0';

	mov	edx, 1
	shl	edx, 3
	mov	eax, DWORD PTR _this$[ebp]
	mov	BYTE PTR [eax+edx+1064], 48		; 00000030H
$LN280@ScratchPad:

; 221  : 			if(Input_Digit6 < 10)

	mov	ecx, DWORD PTR _this$[ebp]
	cmp	DWORD PTR [ecx+1432], 10		; 0000000aH
	jae	SHORT $LN279@ScratchPad

; 222  : 				InputString[7] = '0' + Input_Digit6;

	mov	edx, DWORD PTR _this$[ebp]
	mov	eax, DWORD PTR [edx+1432]
	add	eax, 48					; 00000030H
	mov	ecx, 1
	imul	ecx, 7
	mov	edx, DWORD PTR _this$[ebp]
	mov	BYTE PTR [edx+ecx+1064], al

; 223  : 			else 

	jmp	SHORT $LN278@ScratchPad
$LN279@ScratchPad:

; 224  : 				InputString[7] = '0';

	mov	eax, 1
	imul	eax, 7
	mov	ecx, DWORD PTR _this$[ebp]
	mov	BYTE PTR [ecx+eax+1064], 48		; 00000030H
$LN278@ScratchPad:

; 225  : 			InputString[6] = '.';

	mov	edx, 1
	imul	edx, 6
	mov	eax, DWORD PTR _this$[ebp]
	mov	BYTE PTR [eax+edx+1064], 46		; 0000002eH

; 226  : 			if(Input_Digit5 < 10)

	mov	ecx, DWORD PTR _this$[ebp]
	cmp	DWORD PTR [ecx+1428], 10		; 0000000aH
	jae	SHORT $LN277@ScratchPad

; 227  : 				InputString[5] = '0' + Input_Digit5;		

	mov	edx, DWORD PTR _this$[ebp]
	mov	eax, DWORD PTR [edx+1428]
	add	eax, 48					; 00000030H
	mov	ecx, 1
	imul	ecx, 5
	mov	edx, DWORD PTR _this$[ebp]
	mov	BYTE PTR [edx+ecx+1064], al

; 228  : 			else

	jmp	SHORT $LN276@ScratchPad
$LN277@ScratchPad:

; 229  : 				InputString[5] = '0';

	mov	eax, 1
	imul	eax, 5
	mov	ecx, DWORD PTR _this$[ebp]
	mov	BYTE PTR [ecx+eax+1064], 48		; 00000030H
$LN276@ScratchPad:

; 230  : 			if(Input_Digit4 < 10)

	mov	edx, DWORD PTR _this$[ebp]
	cmp	DWORD PTR [edx+1424], 10		; 0000000aH
	jae	SHORT $LN275@ScratchPad

; 231  : 				InputString[4] = '0' + Input_Digit4;

	mov	eax, DWORD PTR _this$[ebp]
	mov	ecx, DWORD PTR [eax+1424]
	add	ecx, 48					; 00000030H
	mov	edx, 1
	shl	edx, 2
	mov	eax, DWORD PTR _this$[ebp]
	mov	BYTE PTR [eax+edx+1064], cl

; 232  : 			else

	jmp	SHORT $LN274@ScratchPad
$LN275@ScratchPad:

; 233  : 				InputString[4] = '0';

	mov	ecx, 1
	shl	ecx, 2
	mov	edx, DWORD PTR _this$[ebp]
	mov	BYTE PTR [edx+ecx+1064], 48		; 00000030H
$LN274@ScratchPad:

; 234  : 			InputString[3] = '*'; //this is a  symbol

	mov	eax, 1
	imul	eax, 3
	mov	ecx, DWORD PTR _this$[ebp]
	mov	BYTE PTR [ecx+eax+1064], 42		; 0000002aH

; 235  : 			if(Input_Digit3 < 10)

	mov	edx, DWORD PTR _this$[ebp]
	cmp	DWORD PTR [edx+1420], 10		; 0000000aH
	jae	SHORT $LN273@ScratchPad

; 236  : 				InputString[2] = '0' + Input_Digit3;

	mov	eax, DWORD PTR _this$[ebp]
	mov	ecx, DWORD PTR [eax+1420]
	add	ecx, 48					; 00000030H
	mov	edx, 1
	shl	edx, 1
	mov	eax, DWORD PTR _this$[ebp]
	mov	BYTE PTR [eax+edx+1064], cl

; 237  : 			else

	jmp	SHORT $LN272@ScratchPad
$LN273@ScratchPad:

; 238  : 				InputString[2] = '0';

	mov	ecx, 1
	shl	ecx, 1
	mov	edx, DWORD PTR _this$[ebp]
	mov	BYTE PTR [edx+ecx+1064], 48		; 00000030H
$LN272@ScratchPad:

; 239  : 			if(Input_Digit2 < 10)

	mov	eax, DWORD PTR _this$[ebp]
	cmp	DWORD PTR [eax+1416], 10		; 0000000aH
	jae	SHORT $LN271@ScratchPad

; 240  : 				InputString[1] = '0' + Input_Digit2;

	mov	ecx, DWORD PTR _this$[ebp]
	mov	edx, DWORD PTR [ecx+1416]
	add	edx, 48					; 00000030H
	mov	eax, 1
	shl	eax, 0
	mov	ecx, DWORD PTR _this$[ebp]
	mov	BYTE PTR [ecx+eax+1064], dl

; 241  : 			else

	jmp	SHORT $LN270@ScratchPad
$LN271@ScratchPad:

; 242  : 				InputString[1] = '0';

	mov	edx, 1
	shl	edx, 0
	mov	eax, DWORD PTR _this$[ebp]
	mov	BYTE PTR [eax+edx+1064], 48		; 00000030H
$LN270@ScratchPad:
	jmp	$LN232@ScratchPad
$LN282@ScratchPad:

; 243  : 		}
; 244  : 		else if(INSLine == 1)

	mov	ecx, DWORD PTR _this$[ebp]
	cmp	DWORD PTR [ecx+1560], 1
	jne	$LN268@ScratchPad

; 245  : 		{
; 246  : 			//LONG String
; 247  : 			InputString[10] = '\0';

	mov	edx, 1
	imul	edx, 10					; 0000000aH
	mov	eax, DWORD PTR _this$[ebp]
	mov	BYTE PTR [eax+edx+1064], 0

; 248  : 			InputString[9] = '\'';

	mov	ecx, 1
	imul	ecx, 9
	mov	edx, DWORD PTR _this$[ebp]
	mov	BYTE PTR [edx+ecx+1064], 39		; 00000027H

; 249  : 			if(Input_Digit7 < 10)

	mov	eax, DWORD PTR _this$[ebp]
	cmp	DWORD PTR [eax+1436], 10		; 0000000aH
	jae	SHORT $LN267@ScratchPad

; 250  : 				InputString[8] = '0' + Input_Digit7;

	mov	ecx, DWORD PTR _this$[ebp]
	mov	edx, DWORD PTR [ecx+1436]
	add	edx, 48					; 00000030H
	mov	eax, 1
	shl	eax, 3
	mov	ecx, DWORD PTR _this$[ebp]
	mov	BYTE PTR [ecx+eax+1064], dl

; 251  : 			else

	jmp	SHORT $LN266@ScratchPad
$LN267@ScratchPad:

; 252  : 				InputString[8] = '0';

	mov	edx, 1
	shl	edx, 3
	mov	eax, DWORD PTR _this$[ebp]
	mov	BYTE PTR [eax+edx+1064], 48		; 00000030H
$LN266@ScratchPad:

; 253  : 			if(Input_Digit6 < 10)

	mov	ecx, DWORD PTR _this$[ebp]
	cmp	DWORD PTR [ecx+1432], 10		; 0000000aH
	jae	SHORT $LN265@ScratchPad

; 254  : 				InputString[7] = '0' + Input_Digit6;

	mov	edx, DWORD PTR _this$[ebp]
	mov	eax, DWORD PTR [edx+1432]
	add	eax, 48					; 00000030H
	mov	ecx, 1
	imul	ecx, 7
	mov	edx, DWORD PTR _this$[ebp]
	mov	BYTE PTR [edx+ecx+1064], al

; 255  : 			else 

	jmp	SHORT $LN264@ScratchPad
$LN265@ScratchPad:

; 256  : 				InputString[7] = '0';

	mov	eax, 1
	imul	eax, 7
	mov	ecx, DWORD PTR _this$[ebp]
	mov	BYTE PTR [ecx+eax+1064], 48		; 00000030H
$LN264@ScratchPad:

; 257  : 			InputString[6] = '.';

	mov	edx, 1
	imul	edx, 6
	mov	eax, DWORD PTR _this$[ebp]
	mov	BYTE PTR [eax+edx+1064], 46		; 0000002eH

; 258  : 			if(Input_Digit5 < 10)

	mov	ecx, DWORD PTR _this$[ebp]
	cmp	DWORD PTR [ecx+1428], 10		; 0000000aH
	jae	SHORT $LN263@ScratchPad

; 259  : 				InputString[5] = '0' + Input_Digit5;

	mov	edx, DWORD PTR _this$[ebp]
	mov	eax, DWORD PTR [edx+1428]
	add	eax, 48					; 00000030H
	mov	ecx, 1
	imul	ecx, 5
	mov	edx, DWORD PTR _this$[ebp]
	mov	BYTE PTR [edx+ecx+1064], al

; 260  : 			else

	jmp	SHORT $LN262@ScratchPad
$LN263@ScratchPad:

; 261  : 				InputString[5] = '0';

	mov	eax, 1
	imul	eax, 5
	mov	ecx, DWORD PTR _this$[ebp]
	mov	BYTE PTR [ecx+eax+1064], 48		; 00000030H
$LN262@ScratchPad:

; 262  : 			if(Input_Digit4 < 10)

	mov	edx, DWORD PTR _this$[ebp]
	cmp	DWORD PTR [edx+1424], 10		; 0000000aH
	jae	SHORT $LN261@ScratchPad

; 263  : 				InputString[4] = '0' + Input_Digit4;

	mov	eax, DWORD PTR _this$[ebp]
	mov	ecx, DWORD PTR [eax+1424]
	add	ecx, 48					; 00000030H
	mov	edx, 1
	shl	edx, 2
	mov	eax, DWORD PTR _this$[ebp]
	mov	BYTE PTR [eax+edx+1064], cl

; 264  : 			else

	jmp	SHORT $LN260@ScratchPad
$LN261@ScratchPad:

; 265  : 				InputString[4] = '0';

	mov	ecx, 1
	shl	ecx, 2
	mov	edx, DWORD PTR _this$[ebp]
	mov	BYTE PTR [edx+ecx+1064], 48		; 00000030H
$LN260@ScratchPad:

; 266  : 			InputString[3] = '*'; //this is a  symbol

	mov	eax, 1
	imul	eax, 3
	mov	ecx, DWORD PTR _this$[ebp]
	mov	BYTE PTR [ecx+eax+1064], 42		; 0000002aH

; 267  : 			if(Input_Digit3 < 10)

	mov	edx, DWORD PTR _this$[ebp]
	cmp	DWORD PTR [edx+1420], 10		; 0000000aH
	jae	SHORT $LN259@ScratchPad

; 268  : 				InputString[2] = '0' + Input_Digit3;

	mov	eax, DWORD PTR _this$[ebp]
	mov	ecx, DWORD PTR [eax+1420]
	add	ecx, 48					; 00000030H
	mov	edx, 1
	shl	edx, 1
	mov	eax, DWORD PTR _this$[ebp]
	mov	BYTE PTR [eax+edx+1064], cl

; 269  : 			else

	jmp	SHORT $LN258@ScratchPad
$LN259@ScratchPad:

; 270  : 				InputString[2] = '0';

	mov	ecx, 1
	shl	ecx, 1
	mov	edx, DWORD PTR _this$[ebp]
	mov	BYTE PTR [edx+ecx+1064], 48		; 00000030H
$LN258@ScratchPad:

; 271  : 			if(Input_Digit2 < 10)

	mov	eax, DWORD PTR _this$[ebp]
	cmp	DWORD PTR [eax+1416], 10		; 0000000aH
	jae	SHORT $LN257@ScratchPad

; 272  : 				InputString[1] = '0' + Input_Digit2;

	mov	ecx, DWORD PTR _this$[ebp]
	mov	edx, DWORD PTR [ecx+1416]
	add	edx, 48					; 00000030H
	mov	eax, 1
	shl	eax, 0
	mov	ecx, DWORD PTR _this$[ebp]
	mov	BYTE PTR [ecx+eax+1064], dl

; 273  : 			else

	jmp	SHORT $LN256@ScratchPad
$LN257@ScratchPad:

; 274  : 				InputString[1] = '0';

	mov	edx, 1
	shl	edx, 0
	mov	eax, DWORD PTR _this$[ebp]
	mov	BYTE PTR [eax+edx+1064], 48		; 00000030H
$LN256@ScratchPad:

; 275  : 			if(Input_Digit1 < 10)

	mov	ecx, DWORD PTR _this$[ebp]
	cmp	DWORD PTR [ecx+1412], 10		; 0000000aH
	jae	SHORT $LN255@ScratchPad

; 276  : 				InputString[0] = '0' + Input_Digit1;

	mov	edx, DWORD PTR _this$[ebp]
	mov	eax, DWORD PTR [edx+1412]
	add	eax, 48					; 00000030H
	mov	ecx, 1
	imul	ecx, 0
	mov	edx, DWORD PTR _this$[ebp]
	mov	BYTE PTR [edx+ecx+1064], al

; 277  : 			else

	jmp	SHORT $LN254@ScratchPad
$LN255@ScratchPad:

; 278  : 				InputString[0] = '0';

	mov	eax, 1
	imul	eax, 0
	mov	ecx, DWORD PTR _this$[ebp]
	mov	BYTE PTR [ecx+eax+1064], 48		; 00000030H
$LN254@ScratchPad:
	jmp	$LN232@ScratchPad
$LN268@ScratchPad:

; 279  : 		}
; 280  : 		else if(INSLine == 2)

	mov	edx, DWORD PTR _this$[ebp]
	cmp	DWORD PTR [edx+1560], 2
	jne	$LN252@ScratchPad

; 281  : 		{
; 282  : 			//ALT String
; 283  : 			InputString[7] = '\0';

	mov	eax, 1
	imul	eax, 7
	mov	ecx, DWORD PTR _this$[ebp]
	mov	BYTE PTR [ecx+eax+1064], 0

; 284  : 			InputString[6] = 'T';

	mov	edx, 1
	imul	edx, 6
	mov	eax, DWORD PTR _this$[ebp]
	mov	BYTE PTR [eax+edx+1064], 84		; 00000054H

; 285  : 			InputString[5] = 'F';

	mov	ecx, 1
	imul	ecx, 5
	mov	edx, DWORD PTR _this$[ebp]
	mov	BYTE PTR [edx+ecx+1064], 70		; 00000046H

; 286  : 			if(Input_Digit7 < 10)

	mov	eax, DWORD PTR _this$[ebp]
	cmp	DWORD PTR [eax+1436], 10		; 0000000aH
	jae	SHORT $LN251@ScratchPad

; 287  : 				InputString[4] = '0' + Input_Digit7;

	mov	ecx, DWORD PTR _this$[ebp]
	mov	edx, DWORD PTR [ecx+1436]
	add	edx, 48					; 00000030H
	mov	eax, 1
	shl	eax, 2
	mov	ecx, DWORD PTR _this$[ebp]
	mov	BYTE PTR [ecx+eax+1064], dl

; 288  : 			else

	jmp	SHORT $LN250@ScratchPad
$LN251@ScratchPad:

; 289  : 				InputString[4] = ' ';

	mov	edx, 1
	shl	edx, 2
	mov	eax, DWORD PTR _this$[ebp]
	mov	BYTE PTR [eax+edx+1064], 32		; 00000020H
$LN250@ScratchPad:

; 290  : 			if(Input_Digit6 < 10)

	mov	ecx, DWORD PTR _this$[ebp]
	cmp	DWORD PTR [ecx+1432], 10		; 0000000aH
	jae	SHORT $LN249@ScratchPad

; 291  : 				InputString[3] = '0' + Input_Digit6;

	mov	edx, DWORD PTR _this$[ebp]
	mov	eax, DWORD PTR [edx+1432]
	add	eax, 48					; 00000030H
	mov	ecx, 1
	imul	ecx, 3
	mov	edx, DWORD PTR _this$[ebp]
	mov	BYTE PTR [edx+ecx+1064], al

; 292  : 			else 

	jmp	SHORT $LN248@ScratchPad
$LN249@ScratchPad:

; 293  : 				InputString[3] = ' ';

	mov	eax, 1
	imul	eax, 3
	mov	ecx, DWORD PTR _this$[ebp]
	mov	BYTE PTR [ecx+eax+1064], 32		; 00000020H
$LN248@ScratchPad:

; 294  : 			if(Input_Digit5 < 10)

	mov	edx, DWORD PTR _this$[ebp]
	cmp	DWORD PTR [edx+1428], 10		; 0000000aH
	jae	SHORT $LN247@ScratchPad

; 295  : 				InputString[2] = '0' + Input_Digit5;

	mov	eax, DWORD PTR _this$[ebp]
	mov	ecx, DWORD PTR [eax+1428]
	add	ecx, 48					; 00000030H
	mov	edx, 1
	shl	edx, 1
	mov	eax, DWORD PTR _this$[ebp]
	mov	BYTE PTR [eax+edx+1064], cl

; 296  : 			else

	jmp	SHORT $LN246@ScratchPad
$LN247@ScratchPad:

; 297  : 				InputString[2] = ' ';

	mov	ecx, 1
	shl	ecx, 1
	mov	edx, DWORD PTR _this$[ebp]
	mov	BYTE PTR [edx+ecx+1064], 32		; 00000020H
$LN246@ScratchPad:

; 298  : 			if(Input_Digit4 < 10)

	mov	eax, DWORD PTR _this$[ebp]
	cmp	DWORD PTR [eax+1424], 10		; 0000000aH
	jae	SHORT $LN245@ScratchPad

; 299  : 				InputString[1] = '0' + Input_Digit4;

	mov	ecx, DWORD PTR _this$[ebp]
	mov	edx, DWORD PTR [ecx+1424]
	add	edx, 48					; 00000030H
	mov	eax, 1
	shl	eax, 0
	mov	ecx, DWORD PTR _this$[ebp]
	mov	BYTE PTR [ecx+eax+1064], dl

; 300  : 			else

	jmp	SHORT $LN244@ScratchPad
$LN245@ScratchPad:

; 301  : 				InputString[1] = ' ';

	mov	edx, 1
	shl	edx, 0
	mov	eax, DWORD PTR _this$[ebp]
	mov	BYTE PTR [eax+edx+1064], 32		; 00000020H
$LN244@ScratchPad:

; 302  : 			if(Input_Digit3 < 10)

	mov	ecx, DWORD PTR _this$[ebp]
	cmp	DWORD PTR [ecx+1420], 10		; 0000000aH
	jae	SHORT $LN243@ScratchPad

; 303  : 				InputString[0] = '0' + Input_Digit3;

	mov	edx, DWORD PTR _this$[ebp]
	mov	eax, DWORD PTR [edx+1420]
	add	eax, 48					; 00000030H
	mov	ecx, 1
	imul	ecx, 0
	mov	edx, DWORD PTR _this$[ebp]
	mov	BYTE PTR [edx+ecx+1064], al

; 304  : 			else

	jmp	SHORT $LN242@ScratchPad
$LN243@ScratchPad:

; 305  : 				InputString[0] = ' ';

	mov	eax, 1
	imul	eax, 0
	mov	ecx, DWORD PTR _this$[ebp]
	mov	BYTE PTR [ecx+eax+1064], 32		; 00000020H
$LN242@ScratchPad:
	jmp	$LN232@ScratchPad
$LN252@ScratchPad:

; 306  : 		}
; 307  : 		else if(INSLine == 3)

	mov	edx, DWORD PTR _this$[ebp]
	cmp	DWORD PTR [edx+1560], 3
	jne	$LN232@ScratchPad

; 308  : 		{
; 309  : 			//THDG String
; 310  : 			InputString[6] = '\0';

	mov	eax, 1
	imul	eax, 6
	mov	ecx, DWORD PTR _this$[ebp]
	mov	BYTE PTR [ecx+eax+1064], 0

; 311  : 			InputString[5] = '*';

	mov	edx, 1
	imul	edx, 5
	mov	eax, DWORD PTR _this$[ebp]
	mov	BYTE PTR [eax+edx+1064], 42		; 0000002aH

; 312  : 			if(Input_Digit7 < 10)

	mov	ecx, DWORD PTR _this$[ebp]
	cmp	DWORD PTR [ecx+1436], 10		; 0000000aH
	jae	SHORT $LN239@ScratchPad

; 313  : 				InputString[4] = '0' + Input_Digit7;

	mov	edx, DWORD PTR _this$[ebp]
	mov	eax, DWORD PTR [edx+1436]
	add	eax, 48					; 00000030H
	mov	ecx, 1
	shl	ecx, 2
	mov	edx, DWORD PTR _this$[ebp]
	mov	BYTE PTR [edx+ecx+1064], al

; 314  : 			else

	jmp	SHORT $LN238@ScratchPad
$LN239@ScratchPad:

; 315  : 				InputString[4] = ' ';

	mov	eax, 1
	shl	eax, 2
	mov	ecx, DWORD PTR _this$[ebp]
	mov	BYTE PTR [ecx+eax+1064], 32		; 00000020H
$LN238@ScratchPad:

; 316  : 			InputString[3] = '.';

	mov	edx, 1
	imul	edx, 3
	mov	eax, DWORD PTR _this$[ebp]
	mov	BYTE PTR [eax+edx+1064], 46		; 0000002eH

; 317  : 			if(Input_Digit6 < 10)

	mov	ecx, DWORD PTR _this$[ebp]
	cmp	DWORD PTR [ecx+1432], 10		; 0000000aH
	jae	SHORT $LN237@ScratchPad

; 318  : 				InputString[2] = '0' + Input_Digit6;

	mov	edx, DWORD PTR _this$[ebp]
	mov	eax, DWORD PTR [edx+1432]
	add	eax, 48					; 00000030H
	mov	ecx, 1
	shl	ecx, 1
	mov	edx, DWORD PTR _this$[ebp]
	mov	BYTE PTR [edx+ecx+1064], al

; 319  : 			else

	jmp	SHORT $LN236@ScratchPad
$LN237@ScratchPad:

; 320  : 				InputString[2] = ' ';

	mov	eax, 1
	shl	eax, 1
	mov	ecx, DWORD PTR _this$[ebp]
	mov	BYTE PTR [ecx+eax+1064], 32		; 00000020H
$LN236@ScratchPad:

; 321  : 			if(Input_Digit5 < 10)

	mov	edx, DWORD PTR _this$[ebp]
	cmp	DWORD PTR [edx+1428], 10		; 0000000aH
	jae	SHORT $LN235@ScratchPad

; 322  : 				InputString[1] = '0' + Input_Digit5;

	mov	eax, DWORD PTR _this$[ebp]
	mov	ecx, DWORD PTR [eax+1428]
	add	ecx, 48					; 00000030H
	mov	edx, 1
	shl	edx, 0
	mov	eax, DWORD PTR _this$[ebp]
	mov	BYTE PTR [eax+edx+1064], cl

; 323  : 			else 

	jmp	SHORT $LN234@ScratchPad
$LN235@ScratchPad:

; 324  : 				InputString[1] = ' ';

	mov	ecx, 1
	shl	ecx, 0
	mov	edx, DWORD PTR _this$[ebp]
	mov	BYTE PTR [edx+ecx+1064], 32		; 00000020H
$LN234@ScratchPad:

; 325  : 			if(Input_Digit4 < 10)

	mov	eax, DWORD PTR _this$[ebp]
	cmp	DWORD PTR [eax+1424], 10		; 0000000aH
	jae	SHORT $LN233@ScratchPad

; 326  : 				InputString[0] = '0' + Input_Digit4;

	mov	ecx, DWORD PTR _this$[ebp]
	mov	edx, DWORD PTR [ecx+1424]
	add	edx, 48					; 00000030H
	mov	eax, 1
	imul	eax, 0
	mov	ecx, DWORD PTR _this$[ebp]
	mov	BYTE PTR [ecx+eax+1064], dl

; 327  : 			else

	jmp	SHORT $LN232@ScratchPad
$LN233@ScratchPad:

; 328  : 				InputString[0] = ' ';

	mov	edx, 1
	imul	edx, 0
	mov	eax, DWORD PTR _this$[ebp]
	mov	BYTE PTR [eax+edx+1064], 32		; 00000020H
$LN232@ScratchPad:

; 329  : 		}
; 330  : 	}

	jmp	$LN8@ScratchPad
$LN283@ScratchPad:

; 331  : 	else if(IsICPSet(ICPClass::CHAFF_BINGO))

	push	1024					; 00000400H
	mov	ecx, DWORD PTR _this$[ebp]
	call	?IsICPSet@ICPClass@@QAEHH@Z		; ICPClass::IsICPSet
	test	eax, eax
	je	$LN230@ScratchPad

; 332  : 	{
; 333  : 		if(Manual_Input)

	mov	ecx, DWORD PTR _this$[ebp]
	movzx	edx, BYTE PTR [ecx+732]
	test	edx, edx
	je	$LN229@ScratchPad

; 334  : 		{
; 335  : 			if(Input_Digit7 < 10)

	mov	eax, DWORD PTR _this$[ebp]
	cmp	DWORD PTR [eax+1436], 10		; 0000000aH
	jae	SHORT $LN228@ScratchPad

; 336  : 				InputString[1] = '0' + Input_Digit7;

	mov	ecx, DWORD PTR _this$[ebp]
	mov	edx, DWORD PTR [ecx+1436]
	add	edx, 48					; 00000030H
	mov	eax, 1
	shl	eax, 0
	mov	ecx, DWORD PTR _this$[ebp]
	mov	BYTE PTR [ecx+eax+1064], dl

; 337  : 			else

	jmp	SHORT $LN227@ScratchPad
$LN228@ScratchPad:

; 338  : 				InputString[1] = '0';

	mov	edx, 1
	shl	edx, 0
	mov	eax, DWORD PTR _this$[ebp]
	mov	BYTE PTR [eax+edx+1064], 48		; 00000030H
$LN227@ScratchPad:

; 339  : 			if(Input_Digit6 < 10)

	mov	ecx, DWORD PTR _this$[ebp]
	cmp	DWORD PTR [ecx+1432], 10		; 0000000aH
	jae	SHORT $LN226@ScratchPad

; 340  : 				InputString[0] = '0' + Input_Digit6;

	mov	edx, DWORD PTR _this$[ebp]
	mov	eax, DWORD PTR [edx+1432]
	add	eax, 48					; 00000030H
	mov	ecx, 1
	imul	ecx, 0
	mov	edx, DWORD PTR _this$[ebp]
	mov	BYTE PTR [edx+ecx+1064], al

; 341  : 			else

	jmp	SHORT $LN225@ScratchPad
$LN226@ScratchPad:

; 342  : 				InputString[0] = ' ';

	mov	eax, 1
	imul	eax, 0
	mov	ecx, DWORD PTR _this$[ebp]
	mov	BYTE PTR [ecx+eax+1064], 32		; 00000020H
$LN225@ScratchPad:

; 343  : 			InputString[2] = '\0';

	mov	edx, 1
	shl	edx, 1
	mov	eax, DWORD PTR _this$[ebp]
	mov	BYTE PTR [eax+edx+1064], 0

; 344  : 		}
; 345  : 		else

	jmp	SHORT $LN224@ScratchPad
$LN229@ScratchPad:

; 346  : 			sprintf(InputString,"%d",ChaffBingo);

	mov	ecx, DWORD PTR _this$[ebp]
	mov	edx, DWORD PTR [ecx+492]
	push	edx
	push	OFFSET ??_C@_02DPKJAMEF@?$CFd?$AA@
	mov	eax, DWORD PTR _this$[ebp]
	add	eax, 1064				; 00000428H
	push	eax
	call	_sprintf
	add	esp, 12					; 0000000cH
$LN224@ScratchPad:
	jmp	$LN8@ScratchPad
$LN230@ScratchPad:

; 347  : 	}
; 348  : 	else if(IsICPSet(ICPClass::FLARE_BINGO))

	push	2048					; 00000800H
	mov	ecx, DWORD PTR _this$[ebp]
	call	?IsICPSet@ICPClass@@QAEHH@Z		; ICPClass::IsICPSet
	test	eax, eax
	je	$LN222@ScratchPad

; 349  : 	{
; 350  : 		if(Manual_Input)

	mov	ecx, DWORD PTR _this$[ebp]
	movzx	edx, BYTE PTR [ecx+732]
	test	edx, edx
	je	$LN221@ScratchPad

; 351  : 		{
; 352  : 			if(Input_Digit7 < 10)

	mov	eax, DWORD PTR _this$[ebp]
	cmp	DWORD PTR [eax+1436], 10		; 0000000aH
	jae	SHORT $LN220@ScratchPad

; 353  : 				InputString[1] = '0' + Input_Digit7;

	mov	ecx, DWORD PTR _this$[ebp]
	mov	edx, DWORD PTR [ecx+1436]
	add	edx, 48					; 00000030H
	mov	eax, 1
	shl	eax, 0
	mov	ecx, DWORD PTR _this$[ebp]
	mov	BYTE PTR [ecx+eax+1064], dl

; 354  : 			else

	jmp	SHORT $LN219@ScratchPad
$LN220@ScratchPad:

; 355  : 				InputString[1] = ' ';

	mov	edx, 1
	shl	edx, 0
	mov	eax, DWORD PTR _this$[ebp]
	mov	BYTE PTR [eax+edx+1064], 32		; 00000020H
$LN219@ScratchPad:

; 356  : 			if(Input_Digit6 < 10)

	mov	ecx, DWORD PTR _this$[ebp]
	cmp	DWORD PTR [ecx+1432], 10		; 0000000aH
	jae	SHORT $LN218@ScratchPad

; 357  : 				InputString[0] = '0' + Input_Digit6;

	mov	edx, DWORD PTR _this$[ebp]
	mov	eax, DWORD PTR [edx+1432]
	add	eax, 48					; 00000030H
	mov	ecx, 1
	imul	ecx, 0
	mov	edx, DWORD PTR _this$[ebp]
	mov	BYTE PTR [edx+ecx+1064], al

; 358  : 			else

	jmp	SHORT $LN217@ScratchPad
$LN218@ScratchPad:

; 359  : 				InputString[0] = ' ';

	mov	eax, 1
	imul	eax, 0
	mov	ecx, DWORD PTR _this$[ebp]
	mov	BYTE PTR [ecx+eax+1064], 32		; 00000020H
$LN217@ScratchPad:

; 360  : 			InputString[2] = '\0';

	mov	edx, 1
	shl	edx, 1
	mov	eax, DWORD PTR _this$[ebp]
	mov	BYTE PTR [eax+edx+1064], 0

; 361  : 		}
; 362  : 		else

	jmp	SHORT $LN216@ScratchPad
$LN221@ScratchPad:

; 363  : 			sprintf(InputString,"%d",FlareBingo);

	mov	ecx, DWORD PTR _this$[ebp]
	mov	edx, DWORD PTR [ecx+488]
	push	edx
	push	OFFSET ??_C@_02DPKJAMEF@?$CFd?$AA@
	mov	eax, DWORD PTR _this$[ebp]
	add	eax, 1064				; 00000428H
	push	eax
	call	_sprintf
	add	esp, 12					; 0000000cH
$LN216@ScratchPad:
	jmp	$LN8@ScratchPad
$LN222@ScratchPad:

; 364  : 	}
; 365  : 	else if(IsICPSet(ICPClass::MODE_LIST) && mICPSecondaryMode == EIGHT_BUTTON)

	push	4
	mov	ecx, DWORD PTR _this$[ebp]
	call	?IsICPSet@ICPClass@@QAEHH@Z		; ICPClass::IsICPSet
	test	eax, eax
	je	$LN214@ScratchPad
	mov	ecx, DWORD PTR _this$[ebp]
	cmp	DWORD PTR [ecx+12], 24			; 00000018H
	jne	$LN214@ScratchPad

; 366  : 	{
; 367  : 		if(IN_AA)

	mov	edx, DWORD PTR _this$[ebp]
	movzx	eax, BYTE PTR [edx+729]
	test	eax, eax
	je	SHORT $LN213@ScratchPad

; 368  : 		{
; 369  : 			sprintf(InputString,"A-A");

	push	OFFSET ??_C@_03CEOELEEM@A?9A?$AA@
	mov	ecx, DWORD PTR _this$[ebp]
	add	ecx, 1064				; 00000428H
	push	ecx
	call	_sprintf
	add	esp, 8

; 370  : 			if(mICPPrimaryMode == AA_MODE)

	mov	edx, DWORD PTR _this$[ebp]
	cmp	DWORD PTR [edx+8], 11			; 0000000bH
	jne	SHORT $LN212@ScratchPad

; 371  : 				IsSelected = TRUE;

	mov	eax, DWORD PTR _this$[ebp]
	mov	BYTE PTR [eax+731], 1

; 372  : 			else

	jmp	SHORT $LN211@ScratchPad
$LN212@ScratchPad:

; 373  : 				IsSelected = FALSE;

	mov	ecx, DWORD PTR _this$[ebp]
	mov	BYTE PTR [ecx+731], 0
$LN211@ScratchPad:
	jmp	SHORT $LN207@ScratchPad
$LN213@ScratchPad:

; 374  : 		}
; 375  : 		else if(IN_AG)

	mov	edx, DWORD PTR _this$[ebp]
	movzx	eax, BYTE PTR [edx+728]
	test	eax, eax
	je	SHORT $LN207@ScratchPad

; 376  : 		{
; 377  : 			sprintf(InputString,"A-G");

	push	OFFSET ??_C@_03HCLOBDMK@A?9G?$AA@
	mov	ecx, DWORD PTR _this$[ebp]
	add	ecx, 1064				; 00000428H
	push	ecx
	call	_sprintf
	add	esp, 8

; 378  : 			if(mICPPrimaryMode == AG_MODE)

	mov	edx, DWORD PTR _this$[ebp]
	cmp	DWORD PTR [edx+8], 12			; 0000000cH
	jne	SHORT $LN208@ScratchPad

; 379  : 				IsSelected = TRUE;

	mov	eax, DWORD PTR _this$[ebp]
	mov	BYTE PTR [eax+731], 1

; 380  : 			else

	jmp	SHORT $LN207@ScratchPad
$LN208@ScratchPad:

; 381  : 				IsSelected = FALSE;

	mov	ecx, DWORD PTR _this$[ebp]
	mov	BYTE PTR [ecx+731], 0
$LN207@ScratchPad:

; 382  : 		}
; 383  : 	}

	jmp	$LN8@ScratchPad
$LN214@ScratchPad:

; 384  : 	else if(BQ)

	mov	edx, DWORD PTR _this$[ebp]
	movzx	eax, BYTE PTR [edx+496]
	test	eax, eax
	je	$LN205@ScratchPad

; 385  : 	{
; 386  : 		if(Manual_Input)

	mov	ecx, DWORD PTR _this$[ebp]
	movzx	edx, BYTE PTR [ecx+732]
	test	edx, edx
	je	$LN204@ScratchPad

; 387  : 		{
; 388  : 			if(Input_Digit7 < 10)

	mov	eax, DWORD PTR _this$[ebp]
	cmp	DWORD PTR [eax+1436], 10		; 0000000aH
	jae	SHORT $LN203@ScratchPad

; 389  : 				InputString[1] = '0' + Input_Digit7;

	mov	ecx, DWORD PTR _this$[ebp]
	mov	edx, DWORD PTR [ecx+1436]
	add	edx, 48					; 00000030H
	mov	eax, 1
	shl	eax, 0
	mov	ecx, DWORD PTR _this$[ebp]
	mov	BYTE PTR [ecx+eax+1064], dl

; 390  : 			else

	jmp	SHORT $LN202@ScratchPad
$LN203@ScratchPad:

; 391  : 				InputString[1] = ' ';

	mov	edx, 1
	shl	edx, 0
	mov	eax, DWORD PTR _this$[ebp]
	mov	BYTE PTR [eax+edx+1064], 32		; 00000020H
$LN202@ScratchPad:

; 392  : 			if(Input_Digit6 < 10)

	mov	ecx, DWORD PTR _this$[ebp]
	cmp	DWORD PTR [ecx+1432], 10		; 0000000aH
	jae	SHORT $LN201@ScratchPad

; 393  : 				InputString[0] = '0' + Input_Digit6;

	mov	edx, DWORD PTR _this$[ebp]
	mov	eax, DWORD PTR [edx+1432]
	add	eax, 48					; 00000030H
	mov	ecx, 1
	imul	ecx, 0
	mov	edx, DWORD PTR _this$[ebp]
	mov	BYTE PTR [edx+ecx+1064], al

; 394  : 			else

	jmp	SHORT $LN200@ScratchPad
$LN201@ScratchPad:

; 395  : 				InputString[0] = ' ';

	mov	eax, 1
	imul	eax, 0
	mov	ecx, DWORD PTR _this$[ebp]
	mov	BYTE PTR [ecx+eax+1064], 32		; 00000020H
$LN200@ScratchPad:

; 396  : 			InputString[2] = '\0';

	mov	edx, 1
	shl	edx, 1
	mov	eax, DWORD PTR _this$[ebp]
	mov	BYTE PTR [eax+edx+1064], 0

; 397  : 		}
; 398  : 		else

	jmp	$LN192@ScratchPad
$LN204@ScratchPad:

; 399  : 		{
; 400  : 			if(PGMChaff)

	mov	ecx, DWORD PTR _this$[ebp]
	movzx	edx, BYTE PTR [ecx+481]
	test	edx, edx
	je	SHORT $LN198@ScratchPad

; 401  : 			{
; 402  : 				if(iCHAFF_BQ[CPI] <= 0)

	mov	eax, DWORD PTR _this$[ebp]
	mov	ecx, DWORD PTR [eax+660]
	mov	edx, DWORD PTR _this$[ebp]
	cmp	DWORD PTR [edx+ecx*4+500], 0
	ja	SHORT $LN197@ScratchPad

; 403  : 					sprintf(InputString,"0");

	push	OFFSET ??_C@_01GBGANLPD@0?$AA@
	mov	eax, DWORD PTR _this$[ebp]
	add	eax, 1064				; 00000428H
	push	eax
	call	_sprintf
	add	esp, 8

; 404  : 				else

	jmp	SHORT $LN196@ScratchPad
$LN197@ScratchPad:

; 405  : 					sprintf(InputString,"%2.0d",iCHAFF_BQ[CPI]);

	mov	ecx, DWORD PTR _this$[ebp]
	mov	edx, DWORD PTR [ecx+660]
	mov	eax, DWORD PTR _this$[ebp]
	mov	ecx, DWORD PTR [eax+edx*4+500]
	push	ecx
	push	OFFSET ??_C@_05KHKKLCAB@?$CF2?40d?$AA@
	mov	edx, DWORD PTR _this$[ebp]
	add	edx, 1064				; 00000428H
	push	edx
	call	_sprintf
	add	esp, 12					; 0000000cH
$LN196@ScratchPad:
	jmp	SHORT $LN192@ScratchPad
$LN198@ScratchPad:

; 406  : 			}
; 407  : 			else if(PGMFlare)

	mov	eax, DWORD PTR _this$[ebp]
	movzx	ecx, BYTE PTR [eax+482]
	test	ecx, ecx
	je	SHORT $LN192@ScratchPad

; 408  : 			{
; 409  : 				if(iFLARE_BQ[FPI] <= 0)

	mov	edx, DWORD PTR _this$[ebp]
	mov	eax, DWORD PTR [edx+664]
	mov	ecx, DWORD PTR _this$[ebp]
	cmp	DWORD PTR [ecx+eax*4+540], 0
	ja	SHORT $LN193@ScratchPad

; 410  : 					sprintf(InputString,"0");

	push	OFFSET ??_C@_01GBGANLPD@0?$AA@
	mov	edx, DWORD PTR _this$[ebp]
	add	edx, 1064				; 00000428H
	push	edx
	call	_sprintf
	add	esp, 8

; 411  : 				else

	jmp	SHORT $LN192@ScratchPad
$LN193@ScratchPad:

; 412  : 					sprintf(InputString,"%2.0d",iFLARE_BQ[FPI]);

	mov	eax, DWORD PTR _this$[ebp]
	mov	ecx, DWORD PTR [eax+664]
	mov	edx, DWORD PTR _this$[ebp]
	mov	eax, DWORD PTR [edx+ecx*4+540]
	push	eax
	push	OFFSET ??_C@_05KHKKLCAB@?$CF2?40d?$AA@
	mov	ecx, DWORD PTR _this$[ebp]
	add	ecx, 1064				; 00000428H
	push	ecx
	call	_sprintf
	add	esp, 12					; 0000000cH
$LN192@ScratchPad:

; 413  : 			}
; 414  : 		}

	jmp	$LN8@ScratchPad
$LN205@ScratchPad:

; 415  : 	}
; 416  : 	else if(BI)

	mov	edx, DWORD PTR _this$[ebp]
	movzx	eax, BYTE PTR [edx+497]
	test	eax, eax
	je	$LN190@ScratchPad

; 417  : 	{
; 418  : 		if(Manual_Input)

	mov	ecx, DWORD PTR _this$[ebp]
	movzx	edx, BYTE PTR [ecx+732]
	test	edx, edx
	je	$LN189@ScratchPad

; 419  : 		{
; 420  : 			if(Input_Digit7 < 10)

	mov	eax, DWORD PTR _this$[ebp]
	cmp	DWORD PTR [eax+1436], 10		; 0000000aH
	jae	SHORT $LN188@ScratchPad

; 421  : 				InputString[5] = '0' + Input_Digit7;

	mov	ecx, DWORD PTR _this$[ebp]
	mov	edx, DWORD PTR [ecx+1436]
	add	edx, 48					; 00000030H
	mov	eax, 1
	imul	eax, 5
	mov	ecx, DWORD PTR _this$[ebp]
	mov	BYTE PTR [ecx+eax+1064], dl

; 422  : 			else

	jmp	SHORT $LN187@ScratchPad
$LN188@ScratchPad:

; 423  : 				InputString[5] = ' ';

	mov	edx, 1
	imul	edx, 5
	mov	eax, DWORD PTR _this$[ebp]
	mov	BYTE PTR [eax+edx+1064], 32		; 00000020H
$LN187@ScratchPad:

; 424  : 			if(Input_Digit6 < 10)

	mov	ecx, DWORD PTR _this$[ebp]
	cmp	DWORD PTR [ecx+1432], 10		; 0000000aH
	jae	SHORT $LN186@ScratchPad

; 425  : 				InputString[4] = '0' + Input_Digit6;

	mov	edx, DWORD PTR _this$[ebp]
	mov	eax, DWORD PTR [edx+1432]
	add	eax, 48					; 00000030H
	mov	ecx, 1
	shl	ecx, 2
	mov	edx, DWORD PTR _this$[ebp]
	mov	BYTE PTR [edx+ecx+1064], al

; 426  : 			else 

	jmp	SHORT $LN185@ScratchPad
$LN186@ScratchPad:

; 427  : 				InputString[4] = ' ';

	mov	eax, 1
	shl	eax, 2
	mov	ecx, DWORD PTR _this$[ebp]
	mov	BYTE PTR [ecx+eax+1064], 32		; 00000020H
$LN185@ScratchPad:

; 428  : 			if(Input_Digit5 < 10)

	mov	edx, DWORD PTR _this$[ebp]
	cmp	DWORD PTR [edx+1428], 10		; 0000000aH
	jae	SHORT $LN184@ScratchPad

; 429  : 				InputString[3] = '0' + Input_Digit5;

	mov	eax, DWORD PTR _this$[ebp]
	mov	ecx, DWORD PTR [eax+1428]
	add	ecx, 48					; 00000030H
	mov	edx, 1
	imul	edx, 3
	mov	eax, DWORD PTR _this$[ebp]
	mov	BYTE PTR [eax+edx+1064], cl

; 430  : 			else

	jmp	SHORT $LN183@ScratchPad
$LN184@ScratchPad:

; 431  : 				InputString[3] = ' ';

	mov	ecx, 1
	imul	ecx, 3
	mov	edx, DWORD PTR _this$[ebp]
	mov	BYTE PTR [edx+ecx+1064], 32		; 00000020H
$LN183@ScratchPad:

; 432  : 			InputString[2] = '.';

	mov	eax, 1
	shl	eax, 1
	mov	ecx, DWORD PTR _this$[ebp]
	mov	BYTE PTR [ecx+eax+1064], 46		; 0000002eH

; 433  : 			if(Input_Digit4 < 10)

	mov	edx, DWORD PTR _this$[ebp]
	cmp	DWORD PTR [edx+1424], 10		; 0000000aH
	jae	SHORT $LN182@ScratchPad

; 434  : 				InputString[1] = '0' + Input_Digit4;

	mov	eax, DWORD PTR _this$[ebp]
	mov	ecx, DWORD PTR [eax+1424]
	add	ecx, 48					; 00000030H
	mov	edx, 1
	shl	edx, 0
	mov	eax, DWORD PTR _this$[ebp]
	mov	BYTE PTR [eax+edx+1064], cl

; 435  : 			else

	jmp	SHORT $LN181@ScratchPad
$LN182@ScratchPad:

; 436  : 				InputString[1] = ' ';

	mov	ecx, 1
	shl	ecx, 0
	mov	edx, DWORD PTR _this$[ebp]
	mov	BYTE PTR [edx+ecx+1064], 32		; 00000020H
$LN181@ScratchPad:

; 437  : 			if(Input_Digit3 < 10)

	mov	eax, DWORD PTR _this$[ebp]
	cmp	DWORD PTR [eax+1420], 10		; 0000000aH
	jae	SHORT $LN180@ScratchPad

; 438  : 				InputString[0] = '0' + Input_Digit3;

	mov	ecx, DWORD PTR _this$[ebp]
	mov	edx, DWORD PTR [ecx+1420]
	add	edx, 48					; 00000030H
	mov	eax, 1
	imul	eax, 0
	mov	ecx, DWORD PTR _this$[ebp]
	mov	BYTE PTR [ecx+eax+1064], dl

; 439  : 			else

	jmp	SHORT $LN179@ScratchPad
$LN180@ScratchPad:

; 440  : 				InputString[0] = ' ';

	mov	edx, 1
	imul	edx, 0
	mov	eax, DWORD PTR _this$[ebp]
	mov	BYTE PTR [eax+edx+1064], 32		; 00000020H
$LN179@ScratchPad:

; 441  : 			InputString[6] = '\0';

	mov	ecx, 1
	imul	ecx, 6
	mov	edx, DWORD PTR _this$[ebp]
	mov	BYTE PTR [edx+ecx+1064], 0

; 442  : 		}
; 443  : 		else

	jmp	$LN175@ScratchPad
$LN189@ScratchPad:

; 444  : 		{
; 445  : 			if(PGMChaff)

	mov	eax, DWORD PTR _this$[ebp]
	movzx	ecx, BYTE PTR [eax+481]
	test	ecx, ecx
	je	SHORT $LN177@ScratchPad

; 446  : 				sprintf(InputString,"%2.3f",fCHAFF_BI[CPI]);

	mov	edx, DWORD PTR _this$[ebp]
	mov	eax, DWORD PTR [edx+660]
	mov	ecx, DWORD PTR _this$[ebp]
	cvtss2sd xmm0, DWORD PTR [ecx+eax*4+580]
	sub	esp, 8
	movsd	QWORD PTR [esp], xmm0
	push	OFFSET ??_C@_05JHNKGONK@?$CF2?43f?$AA@
	mov	edx, DWORD PTR _this$[ebp]
	add	edx, 1064				; 00000428H
	push	edx
	call	_sprintf
	add	esp, 16					; 00000010H
	jmp	SHORT $LN175@ScratchPad
$LN177@ScratchPad:

; 447  : 			else if(PGMFlare)

	mov	eax, DWORD PTR _this$[ebp]
	movzx	ecx, BYTE PTR [eax+482]
	test	ecx, ecx
	je	SHORT $LN175@ScratchPad

; 448  : 				sprintf(InputString,"%2.3f",fFLARE_BI[FPI]);

	mov	edx, DWORD PTR _this$[ebp]
	mov	eax, DWORD PTR [edx+664]
	mov	ecx, DWORD PTR _this$[ebp]
	cvtss2sd xmm0, DWORD PTR [ecx+eax*4+620]
	sub	esp, 8
	movsd	QWORD PTR [esp], xmm0
	push	OFFSET ??_C@_05JHNKGONK@?$CF2?43f?$AA@
	mov	edx, DWORD PTR _this$[ebp]
	add	edx, 1064				; 00000428H
	push	edx
	call	_sprintf
	add	esp, 16					; 00000010H
$LN175@ScratchPad:

; 449  : 		}

	jmp	$LN8@ScratchPad
$LN190@ScratchPad:

; 450  : 	}
; 451  : 	else if(SQ)

	mov	eax, DWORD PTR _this$[ebp]
	movzx	ecx, BYTE PTR [eax+498]
	test	ecx, ecx
	je	$LN173@ScratchPad

; 452  : 	{
; 453  : 		if(Manual_Input)

	mov	edx, DWORD PTR _this$[ebp]
	movzx	eax, BYTE PTR [edx+732]
	test	eax, eax
	je	$LN172@ScratchPad

; 454  : 		{
; 455  : 			if(Input_Digit7 < 10)

	mov	ecx, DWORD PTR _this$[ebp]
	cmp	DWORD PTR [ecx+1436], 10		; 0000000aH
	jae	SHORT $LN171@ScratchPad

; 456  : 				InputString[1] = '0' + Input_Digit7;

	mov	edx, DWORD PTR _this$[ebp]
	mov	eax, DWORD PTR [edx+1436]
	add	eax, 48					; 00000030H
	mov	ecx, 1
	shl	ecx, 0
	mov	edx, DWORD PTR _this$[ebp]
	mov	BYTE PTR [edx+ecx+1064], al

; 457  : 			else

	jmp	SHORT $LN170@ScratchPad
$LN171@ScratchPad:

; 458  : 				InputString[1] = ' ';

	mov	eax, 1
	shl	eax, 0
	mov	ecx, DWORD PTR _this$[ebp]
	mov	BYTE PTR [ecx+eax+1064], 32		; 00000020H
$LN170@ScratchPad:

; 459  : 			if(Input_Digit6 < 10)

	mov	edx, DWORD PTR _this$[ebp]
	cmp	DWORD PTR [edx+1432], 10		; 0000000aH
	jae	SHORT $LN169@ScratchPad

; 460  : 				InputString[0] = '0' + Input_Digit6;

	mov	eax, DWORD PTR _this$[ebp]
	mov	ecx, DWORD PTR [eax+1432]
	add	ecx, 48					; 00000030H
	mov	edx, 1
	imul	edx, 0
	mov	eax, DWORD PTR _this$[ebp]
	mov	BYTE PTR [eax+edx+1064], cl

; 461  : 			else

	jmp	SHORT $LN168@ScratchPad
$LN169@ScratchPad:

; 462  : 				InputString[0] = ' ';

	mov	ecx, 1
	imul	ecx, 0
	mov	edx, DWORD PTR _this$[ebp]
	mov	BYTE PTR [edx+ecx+1064], 32		; 00000020H
$LN168@ScratchPad:

; 463  : 			InputString[2] = '\0';

	mov	eax, 1
	shl	eax, 1
	mov	ecx, DWORD PTR _this$[ebp]
	mov	BYTE PTR [ecx+eax+1064], 0

; 464  : 		}
; 465  : 		else

	jmp	$LN156@ScratchPad
$LN172@ScratchPad:

; 466  : 		{
; 467  : 			if(PGMChaff)

	mov	edx, DWORD PTR _this$[ebp]
	movzx	eax, BYTE PTR [edx+481]
	test	eax, eax
	je	$LN166@ScratchPad

; 468  : 			{
; 469  : 				if(iCHAFF_SQ[CPI] <= 0)

	mov	ecx, DWORD PTR _this$[ebp]
	mov	edx, DWORD PTR [ecx+660]
	mov	eax, DWORD PTR _this$[ebp]
	cmp	DWORD PTR [eax+edx*4+520], 0
	ja	SHORT $LN165@ScratchPad

; 470  : 					sprintf(InputString,"0");

	push	OFFSET ??_C@_01GBGANLPD@0?$AA@
	mov	ecx, DWORD PTR _this$[ebp]
	add	ecx, 1064				; 00000428H
	push	ecx
	call	_sprintf
	add	esp, 8

; 471  : 				else

	jmp	SHORT $LN162@ScratchPad
$LN165@ScratchPad:

; 472  : 				{
; 473  : 					if(iCHAFF_SQ[FPI] < 10)

	mov	edx, DWORD PTR _this$[ebp]
	mov	eax, DWORD PTR [edx+664]
	mov	ecx, DWORD PTR _this$[ebp]
	cmp	DWORD PTR [ecx+eax*4+520], 10		; 0000000aH
	jae	SHORT $LN163@ScratchPad

; 474  : 						sprintf(InputString,"%1.0d",iCHAFF_SQ[CPI]);

	mov	edx, DWORD PTR _this$[ebp]
	mov	eax, DWORD PTR [edx+660]
	mov	ecx, DWORD PTR _this$[ebp]
	mov	edx, DWORD PTR [ecx+eax*4+520]
	push	edx
	push	OFFSET ??_C@_05OAAKMINB@?$CF1?40d?$AA@
	mov	eax, DWORD PTR _this$[ebp]
	add	eax, 1064				; 00000428H
	push	eax
	call	_sprintf
	add	esp, 12					; 0000000cH

; 475  : 					else

	jmp	SHORT $LN162@ScratchPad
$LN163@ScratchPad:

; 476  : 						sprintf(InputString,"%2.0d",iCHAFF_SQ[CPI]);

	mov	ecx, DWORD PTR _this$[ebp]
	mov	edx, DWORD PTR [ecx+660]
	mov	eax, DWORD PTR _this$[ebp]
	mov	ecx, DWORD PTR [eax+edx*4+520]
	push	ecx
	push	OFFSET ??_C@_05KHKKLCAB@?$CF2?40d?$AA@
	mov	edx, DWORD PTR _this$[ebp]
	add	edx, 1064				; 00000428H
	push	edx
	call	_sprintf
	add	esp, 12					; 0000000cH
$LN162@ScratchPad:

; 477  : 				}

	jmp	$LN156@ScratchPad
$LN166@ScratchPad:

; 478  : 			}
; 479  : 			else if(PGMFlare)

	mov	eax, DWORD PTR _this$[ebp]
	movzx	ecx, BYTE PTR [eax+482]
	test	ecx, ecx
	je	$LN156@ScratchPad

; 480  : 			{
; 481  : 				if(iFLARE_SQ[FPI] <= 0)

	mov	edx, DWORD PTR _this$[ebp]
	mov	eax, DWORD PTR [edx+664]
	mov	ecx, DWORD PTR _this$[ebp]
	cmp	DWORD PTR [ecx+eax*4+560], 0
	ja	SHORT $LN159@ScratchPad

; 482  : 					sprintf(InputString,"0");

	push	OFFSET ??_C@_01GBGANLPD@0?$AA@
	mov	edx, DWORD PTR _this$[ebp]
	add	edx, 1064				; 00000428H
	push	edx
	call	_sprintf
	add	esp, 8

; 483  : 				else

	jmp	SHORT $LN156@ScratchPad
$LN159@ScratchPad:

; 484  : 				{
; 485  : 					if(iFLARE_SQ[FPI] < 10)

	mov	eax, DWORD PTR _this$[ebp]
	mov	ecx, DWORD PTR [eax+664]
	mov	edx, DWORD PTR _this$[ebp]
	cmp	DWORD PTR [edx+ecx*4+560], 10		; 0000000aH
	jae	SHORT $LN157@ScratchPad

; 486  : 						sprintf(InputString,"%1.0d",iFLARE_SQ[FPI]);

	mov	eax, DWORD PTR _this$[ebp]
	mov	ecx, DWORD PTR [eax+664]
	mov	edx, DWORD PTR _this$[ebp]
	mov	eax, DWORD PTR [edx+ecx*4+560]
	push	eax
	push	OFFSET ??_C@_05OAAKMINB@?$CF1?40d?$AA@
	mov	ecx, DWORD PTR _this$[ebp]
	add	ecx, 1064				; 00000428H
	push	ecx
	call	_sprintf
	add	esp, 12					; 0000000cH

; 487  : 					else

	jmp	SHORT $LN156@ScratchPad
$LN157@ScratchPad:

; 488  : 						sprintf(InputString,"%2.0d",iFLARE_SQ[FPI]);

	mov	edx, DWORD PTR _this$[ebp]
	mov	eax, DWORD PTR [edx+664]
	mov	ecx, DWORD PTR _this$[ebp]
	mov	edx, DWORD PTR [ecx+eax*4+560]
	push	edx
	push	OFFSET ??_C@_05KHKKLCAB@?$CF2?40d?$AA@
	mov	eax, DWORD PTR _this$[ebp]
	add	eax, 1064				; 00000428H
	push	eax
	call	_sprintf
	add	esp, 12					; 0000000cH
$LN156@ScratchPad:

; 489  : 				}
; 490  : 			}
; 491  : 		}

	jmp	$LN8@ScratchPad
$LN173@ScratchPad:

; 492  : 	}
; 493  : 	else if(SI)

	mov	ecx, DWORD PTR _this$[ebp]
	movzx	edx, BYTE PTR [ecx+499]
	test	edx, edx
	je	$LN154@ScratchPad

; 494  : 	{
; 495  : 		if(Manual_Input)

	mov	eax, DWORD PTR _this$[ebp]
	movzx	ecx, BYTE PTR [eax+732]
	test	ecx, ecx
	je	$LN153@ScratchPad

; 496  : 		{
; 497  : 			if(Input_Digit7 < 10)

	mov	edx, DWORD PTR _this$[ebp]
	cmp	DWORD PTR [edx+1436], 10		; 0000000aH
	jae	SHORT $LN152@ScratchPad

; 498  : 				InputString[5] = '0' + Input_Digit7;

	mov	eax, DWORD PTR _this$[ebp]
	mov	ecx, DWORD PTR [eax+1436]
	add	ecx, 48					; 00000030H
	mov	edx, 1
	imul	edx, 5
	mov	eax, DWORD PTR _this$[ebp]
	mov	BYTE PTR [eax+edx+1064], cl

; 499  : 			else

	jmp	SHORT $LN151@ScratchPad
$LN152@ScratchPad:

; 500  : 				InputString[5] = ' ';

	mov	ecx, 1
	imul	ecx, 5
	mov	edx, DWORD PTR _this$[ebp]
	mov	BYTE PTR [edx+ecx+1064], 32		; 00000020H
$LN151@ScratchPad:

; 501  : 			if(Input_Digit6 < 10)

	mov	eax, DWORD PTR _this$[ebp]
	cmp	DWORD PTR [eax+1432], 10		; 0000000aH
	jae	SHORT $LN150@ScratchPad

; 502  : 				InputString[4] = '0' + Input_Digit6;

	mov	ecx, DWORD PTR _this$[ebp]
	mov	edx, DWORD PTR [ecx+1432]
	add	edx, 48					; 00000030H
	mov	eax, 1
	shl	eax, 2
	mov	ecx, DWORD PTR _this$[ebp]
	mov	BYTE PTR [ecx+eax+1064], dl

; 503  : 			else 

	jmp	SHORT $LN149@ScratchPad
$LN150@ScratchPad:

; 504  : 				InputString[4] = ' ';

	mov	edx, 1
	shl	edx, 2
	mov	eax, DWORD PTR _this$[ebp]
	mov	BYTE PTR [eax+edx+1064], 32		; 00000020H
$LN149@ScratchPad:

; 505  : 			InputString[3] = '.';

	mov	ecx, 1
	imul	ecx, 3
	mov	edx, DWORD PTR _this$[ebp]
	mov	BYTE PTR [edx+ecx+1064], 46		; 0000002eH

; 506  : 			if(Input_Digit5 < 10)

	mov	eax, DWORD PTR _this$[ebp]
	cmp	DWORD PTR [eax+1428], 10		; 0000000aH
	jae	SHORT $LN148@ScratchPad

; 507  : 				InputString[2] = '0' + Input_Digit5;

	mov	ecx, DWORD PTR _this$[ebp]
	mov	edx, DWORD PTR [ecx+1428]
	add	edx, 48					; 00000030H
	mov	eax, 1
	shl	eax, 1
	mov	ecx, DWORD PTR _this$[ebp]
	mov	BYTE PTR [ecx+eax+1064], dl

; 508  : 			else

	jmp	SHORT $LN147@ScratchPad
$LN148@ScratchPad:

; 509  : 				InputString[2] = ' ';

	mov	edx, 1
	shl	edx, 1
	mov	eax, DWORD PTR _this$[ebp]
	mov	BYTE PTR [eax+edx+1064], 32		; 00000020H
$LN147@ScratchPad:

; 510  : 			if(Input_Digit4 < 10)

	mov	ecx, DWORD PTR _this$[ebp]
	cmp	DWORD PTR [ecx+1424], 10		; 0000000aH
	jae	SHORT $LN146@ScratchPad

; 511  : 				InputString[1] = '0' + Input_Digit4;

	mov	edx, DWORD PTR _this$[ebp]
	mov	eax, DWORD PTR [edx+1424]
	add	eax, 48					; 00000030H
	mov	ecx, 1
	shl	ecx, 0
	mov	edx, DWORD PTR _this$[ebp]
	mov	BYTE PTR [edx+ecx+1064], al

; 512  : 			else

	jmp	SHORT $LN145@ScratchPad
$LN146@ScratchPad:

; 513  : 				InputString[1] = ' ';

	mov	eax, 1
	shl	eax, 0
	mov	ecx, DWORD PTR _this$[ebp]
	mov	BYTE PTR [ecx+eax+1064], 32		; 00000020H
$LN145@ScratchPad:

; 514  : 			if(Input_Digit3 < 10)

	mov	edx, DWORD PTR _this$[ebp]
	cmp	DWORD PTR [edx+1420], 10		; 0000000aH
	jae	SHORT $LN144@ScratchPad

; 515  : 				InputString[0] = '0' + Input_Digit3;

	mov	eax, DWORD PTR _this$[ebp]
	mov	ecx, DWORD PTR [eax+1420]
	add	ecx, 48					; 00000030H
	mov	edx, 1
	imul	edx, 0
	mov	eax, DWORD PTR _this$[ebp]
	mov	BYTE PTR [eax+edx+1064], cl

; 516  : 			else

	jmp	SHORT $LN143@ScratchPad
$LN144@ScratchPad:

; 517  : 				InputString[0] = ' ';

	mov	ecx, 1
	imul	ecx, 0
	mov	edx, DWORD PTR _this$[ebp]
	mov	BYTE PTR [edx+ecx+1064], 32		; 00000020H
$LN143@ScratchPad:

; 518  : 			InputString[6] = '\0';

	mov	eax, 1
	imul	eax, 6
	mov	ecx, DWORD PTR _this$[ebp]
	mov	BYTE PTR [ecx+eax+1064], 0

; 519  : 		}
; 520  : 		else

	jmp	$LN139@ScratchPad
$LN153@ScratchPad:

; 521  : 		{
; 522  : 			if(PGMChaff)

	mov	edx, DWORD PTR _this$[ebp]
	movzx	eax, BYTE PTR [edx+481]
	test	eax, eax
	je	SHORT $LN141@ScratchPad

; 523  : 				sprintf(InputString,"%3.2f",fCHAFF_SI[CPI]);

	mov	ecx, DWORD PTR _this$[ebp]
	mov	edx, DWORD PTR [ecx+660]
	mov	eax, DWORD PTR _this$[ebp]
	cvtss2sd xmm0, DWORD PTR [eax+edx*4+600]
	sub	esp, 8
	movsd	QWORD PTR [esp], xmm0
	push	OFFSET ??_C@_05KLHICNFN@?$CF3?42f?$AA@
	mov	ecx, DWORD PTR _this$[ebp]
	add	ecx, 1064				; 00000428H
	push	ecx
	call	_sprintf
	add	esp, 16					; 00000010H
	jmp	SHORT $LN139@ScratchPad
$LN141@ScratchPad:

; 524  : 			else if(PGMFlare)

	mov	edx, DWORD PTR _this$[ebp]
	movzx	eax, BYTE PTR [edx+482]
	test	eax, eax
	je	SHORT $LN139@ScratchPad

; 525  : 				sprintf(InputString,"%3.2f",fFLARE_SI[FPI]);

	mov	ecx, DWORD PTR _this$[ebp]
	mov	edx, DWORD PTR [ecx+664]
	mov	eax, DWORD PTR _this$[ebp]
	cvtss2sd xmm0, DWORD PTR [eax+edx*4+640]
	sub	esp, 8
	movsd	QWORD PTR [esp], xmm0
	push	OFFSET ??_C@_05KLHICNFN@?$CF3?42f?$AA@
	mov	ecx, DWORD PTR _this$[ebp]
	add	ecx, 1064				; 00000428H
	push	ecx
	call	_sprintf
	add	esp, 16					; 00000010H
$LN139@ScratchPad:

; 526  : 		}

	jmp	$LN8@ScratchPad
$LN154@ScratchPad:

; 527  : 	}
; 528  : 	else if(OA1 || OA2)

	mov	edx, DWORD PTR _this$[ebp]
	movzx	eax, BYTE PTR [edx+429]
	test	eax, eax
	jne	SHORT $LN136@ScratchPad
	mov	ecx, DWORD PTR _this$[ebp]
	movzx	edx, BYTE PTR [ecx+430]
	test	edx, edx
	je	$LN137@ScratchPad
$LN136@ScratchPad:

; 529  : 	{
; 530  : 		if(Manual_Input)

	mov	eax, DWORD PTR _this$[ebp]
	movzx	ecx, BYTE PTR [eax+732]
	test	ecx, ecx
	je	$LN135@ScratchPad

; 531  : 		{
; 532  : 			if(OA_RNG || OA_ALT)

	mov	edx, DWORD PTR _this$[ebp]
	movzx	eax, BYTE PTR [edx+668]
	test	eax, eax
	jne	SHORT $LN133@ScratchPad
	mov	ecx, DWORD PTR _this$[ebp]
	movzx	edx, BYTE PTR [ecx+670]
	test	edx, edx
	je	$LN134@ScratchPad
$LN133@ScratchPad:

; 533  : 			{
; 534  : 				InputString[7] = 'T';

	mov	eax, 1
	imul	eax, 7
	mov	ecx, DWORD PTR _this$[ebp]
	mov	BYTE PTR [ecx+eax+1064], 84		; 00000054H

; 535  : 				InputString[6] = 'F';

	mov	edx, 1
	imul	edx, 6
	mov	eax, DWORD PTR _this$[ebp]
	mov	BYTE PTR [eax+edx+1064], 70		; 00000046H

; 536  : 				if(Input_Digit7 < 10)

	mov	ecx, DWORD PTR _this$[ebp]
	cmp	DWORD PTR [ecx+1436], 10		; 0000000aH
	jae	SHORT $LN132@ScratchPad

; 537  : 					InputString[5] = '0' + Input_Digit7;

	mov	edx, DWORD PTR _this$[ebp]
	mov	eax, DWORD PTR [edx+1436]
	add	eax, 48					; 00000030H
	mov	ecx, 1
	imul	ecx, 5
	mov	edx, DWORD PTR _this$[ebp]
	mov	BYTE PTR [edx+ecx+1064], al

; 538  : 				else

	jmp	SHORT $LN131@ScratchPad
$LN132@ScratchPad:

; 539  : 					InputString[5] = ' ';

	mov	eax, 1
	imul	eax, 5
	mov	ecx, DWORD PTR _this$[ebp]
	mov	BYTE PTR [ecx+eax+1064], 32		; 00000020H
$LN131@ScratchPad:

; 540  : 				if(Input_Digit6 < 10)

	mov	edx, DWORD PTR _this$[ebp]
	cmp	DWORD PTR [edx+1432], 10		; 0000000aH
	jae	SHORT $LN130@ScratchPad

; 541  : 					InputString[4] = '0' + Input_Digit6;

	mov	eax, DWORD PTR _this$[ebp]
	mov	ecx, DWORD PTR [eax+1432]
	add	ecx, 48					; 00000030H
	mov	edx, 1
	shl	edx, 2
	mov	eax, DWORD PTR _this$[ebp]
	mov	BYTE PTR [eax+edx+1064], cl

; 542  : 				else 

	jmp	SHORT $LN129@ScratchPad
$LN130@ScratchPad:

; 543  : 					InputString[4] = ' ';

	mov	ecx, 1
	shl	ecx, 2
	mov	edx, DWORD PTR _this$[ebp]
	mov	BYTE PTR [edx+ecx+1064], 32		; 00000020H
$LN129@ScratchPad:

; 544  : 				if(Input_Digit5 < 10)

	mov	eax, DWORD PTR _this$[ebp]
	cmp	DWORD PTR [eax+1428], 10		; 0000000aH
	jae	SHORT $LN128@ScratchPad

; 545  : 					InputString[3] = '0' + Input_Digit5;

	mov	ecx, DWORD PTR _this$[ebp]
	mov	edx, DWORD PTR [ecx+1428]
	add	edx, 48					; 00000030H
	mov	eax, 1
	imul	eax, 3
	mov	ecx, DWORD PTR _this$[ebp]
	mov	BYTE PTR [ecx+eax+1064], dl

; 546  : 				else

	jmp	SHORT $LN127@ScratchPad
$LN128@ScratchPad:

; 547  : 					InputString[3] = ' ';

	mov	edx, 1
	imul	edx, 3
	mov	eax, DWORD PTR _this$[ebp]
	mov	BYTE PTR [eax+edx+1064], 32		; 00000020H
$LN127@ScratchPad:

; 548  : 				if(Input_Digit4 < 10)

	mov	ecx, DWORD PTR _this$[ebp]
	cmp	DWORD PTR [ecx+1424], 10		; 0000000aH
	jae	SHORT $LN126@ScratchPad

; 549  : 					InputString[2] = '0' + Input_Digit4;

	mov	edx, DWORD PTR _this$[ebp]
	mov	eax, DWORD PTR [edx+1424]
	add	eax, 48					; 00000030H
	mov	ecx, 1
	shl	ecx, 1
	mov	edx, DWORD PTR _this$[ebp]
	mov	BYTE PTR [edx+ecx+1064], al

; 550  : 				else

	jmp	SHORT $LN125@ScratchPad
$LN126@ScratchPad:

; 551  : 					InputString[2] = ' ';

	mov	eax, 1
	shl	eax, 1
	mov	ecx, DWORD PTR _this$[ebp]
	mov	BYTE PTR [ecx+eax+1064], 32		; 00000020H
$LN125@ScratchPad:

; 552  : 				if(Input_Digit3 < 10)

	mov	edx, DWORD PTR _this$[ebp]
	cmp	DWORD PTR [edx+1420], 10		; 0000000aH
	jae	SHORT $LN124@ScratchPad

; 553  : 					InputString[1] = '0' + Input_Digit3;

	mov	eax, DWORD PTR _this$[ebp]
	mov	ecx, DWORD PTR [eax+1420]
	add	ecx, 48					; 00000030H
	mov	edx, 1
	shl	edx, 0
	mov	eax, DWORD PTR _this$[ebp]
	mov	BYTE PTR [eax+edx+1064], cl

; 554  : 				else

	jmp	SHORT $LN123@ScratchPad
$LN124@ScratchPad:

; 555  : 					InputString[1] = ' ';

	mov	ecx, 1
	shl	ecx, 0
	mov	edx, DWORD PTR _this$[ebp]
	mov	BYTE PTR [edx+ecx+1064], 32		; 00000020H
$LN123@ScratchPad:

; 556  : 				if(Input_Digit2 < 10)

	mov	eax, DWORD PTR _this$[ebp]
	cmp	DWORD PTR [eax+1416], 10		; 0000000aH
	jae	SHORT $LN122@ScratchPad

; 557  : 					InputString[0] = '0' + Input_Digit2;

	mov	ecx, DWORD PTR _this$[ebp]
	mov	edx, DWORD PTR [ecx+1416]
	add	edx, 48					; 00000030H
	mov	eax, 1
	imul	eax, 0
	mov	ecx, DWORD PTR _this$[ebp]
	mov	BYTE PTR [ecx+eax+1064], dl

; 558  : 				else

	jmp	SHORT $LN121@ScratchPad
$LN122@ScratchPad:

; 559  : 					InputString[0] = ' ';

	mov	edx, 1
	imul	edx, 0
	mov	eax, DWORD PTR _this$[ebp]
	mov	BYTE PTR [eax+edx+1064], 32		; 00000020H
$LN121@ScratchPad:

; 560  : 				InputString[8] = '\0';

	mov	ecx, 1
	shl	ecx, 3
	mov	edx, DWORD PTR _this$[ebp]
	mov	BYTE PTR [edx+ecx+1064], 0
	jmp	$LN119@ScratchPad
$LN134@ScratchPad:

; 561  : 			}
; 562  : 			else if(OA_BRG)

	mov	eax, DWORD PTR _this$[ebp]
	movzx	ecx, BYTE PTR [eax+669]
	test	ecx, ecx
	je	$LN119@ScratchPad

; 563  : 			{
; 564  : 				InputString[5] = '\'';

	mov	edx, 1
	imul	edx, 5
	mov	eax, DWORD PTR _this$[ebp]
	mov	BYTE PTR [eax+edx+1064], 39		; 00000027H

; 565  : 				if(Input_Digit7 < 10)

	mov	ecx, DWORD PTR _this$[ebp]
	cmp	DWORD PTR [ecx+1436], 10		; 0000000aH
	jae	SHORT $LN118@ScratchPad

; 566  : 					InputString[4] = '0' + Input_Digit7;

	mov	edx, DWORD PTR _this$[ebp]
	mov	eax, DWORD PTR [edx+1436]
	add	eax, 48					; 00000030H
	mov	ecx, 1
	shl	ecx, 2
	mov	edx, DWORD PTR _this$[ebp]
	mov	BYTE PTR [edx+ecx+1064], al

; 567  : 				else

	jmp	SHORT $LN117@ScratchPad
$LN118@ScratchPad:

; 568  : 					InputString[4] = ' ';

	mov	eax, 1
	shl	eax, 2
	mov	ecx, DWORD PTR _this$[ebp]
	mov	BYTE PTR [ecx+eax+1064], 32		; 00000020H
$LN117@ScratchPad:

; 569  : 				InputString[3] = '.';

	mov	edx, 1
	imul	edx, 3
	mov	eax, DWORD PTR _this$[ebp]
	mov	BYTE PTR [eax+edx+1064], 46		; 0000002eH

; 570  : 				if(Input_Digit6 < 10)

	mov	ecx, DWORD PTR _this$[ebp]
	cmp	DWORD PTR [ecx+1432], 10		; 0000000aH
	jae	SHORT $LN116@ScratchPad

; 571  : 					InputString[2] = '0' + Input_Digit6;

	mov	edx, DWORD PTR _this$[ebp]
	mov	eax, DWORD PTR [edx+1432]
	add	eax, 48					; 00000030H
	mov	ecx, 1
	shl	ecx, 1
	mov	edx, DWORD PTR _this$[ebp]
	mov	BYTE PTR [edx+ecx+1064], al

; 572  : 				else 

	jmp	SHORT $LN115@ScratchPad
$LN116@ScratchPad:

; 573  : 					InputString[2] = ' ';

	mov	eax, 1
	shl	eax, 1
	mov	ecx, DWORD PTR _this$[ebp]
	mov	BYTE PTR [ecx+eax+1064], 32		; 00000020H
$LN115@ScratchPad:

; 574  : 				if(Input_Digit5 < 10)

	mov	edx, DWORD PTR _this$[ebp]
	cmp	DWORD PTR [edx+1428], 10		; 0000000aH
	jae	SHORT $LN114@ScratchPad

; 575  : 					InputString[1] = '0' + Input_Digit5;

	mov	eax, DWORD PTR _this$[ebp]
	mov	ecx, DWORD PTR [eax+1428]
	add	ecx, 48					; 00000030H
	mov	edx, 1
	shl	edx, 0
	mov	eax, DWORD PTR _this$[ebp]
	mov	BYTE PTR [eax+edx+1064], cl

; 576  : 				else

	jmp	SHORT $LN113@ScratchPad
$LN114@ScratchPad:

; 577  : 					InputString[1] = ' ';

	mov	ecx, 1
	shl	ecx, 0
	mov	edx, DWORD PTR _this$[ebp]
	mov	BYTE PTR [edx+ecx+1064], 32		; 00000020H
$LN113@ScratchPad:

; 578  : 				if(Input_Digit4 < 10)

	mov	eax, DWORD PTR _this$[ebp]
	cmp	DWORD PTR [eax+1424], 10		; 0000000aH
	jae	SHORT $LN112@ScratchPad

; 579  : 					InputString[0] = '0' + Input_Digit4;

	mov	ecx, DWORD PTR _this$[ebp]
	mov	edx, DWORD PTR [ecx+1424]
	add	edx, 48					; 00000030H
	mov	eax, 1
	imul	eax, 0
	mov	ecx, DWORD PTR _this$[ebp]
	mov	BYTE PTR [ecx+eax+1064], dl

; 580  : 				else

	jmp	SHORT $LN111@ScratchPad
$LN112@ScratchPad:

; 581  : 					InputString[0] = ' ';

	mov	edx, 1
	imul	edx, 0
	mov	eax, DWORD PTR _this$[ebp]
	mov	BYTE PTR [eax+edx+1064], 32		; 00000020H
$LN111@ScratchPad:

; 582  : 				InputString[6] = '\0';

	mov	ecx, 1
	imul	ecx, 6
	mov	edx, DWORD PTR _this$[ebp]
	mov	BYTE PTR [edx+ecx+1064], 0
$LN119@ScratchPad:

; 583  : 			}
; 584  : 		}
; 585  : 		else

	jmp	$LN101@ScratchPad
$LN135@ScratchPad:

; 586  : 		{
; 587  : 			if(OA1)

	mov	eax, DWORD PTR _this$[ebp]
	movzx	ecx, BYTE PTR [eax+429]
	test	ecx, ecx
	je	$LN109@ScratchPad

; 588  : 			{
; 589  : 				if(OA_RNG)

	mov	edx, DWORD PTR _this$[ebp]
	movzx	eax, BYTE PTR [edx+668]
	test	eax, eax
	je	SHORT $LN108@ScratchPad

; 590  : 					sprintf(InputString,"%dFT", iOA_RNG);

	mov	ecx, DWORD PTR _this$[ebp]
	mov	edx, DWORD PTR [ecx+672]
	push	edx
	push	OFFSET ??_C@_04COHIKBOA@?$CFdFT?$AA@
	mov	eax, DWORD PTR _this$[ebp]
	add	eax, 1064				; 00000428H
	push	eax
	call	_sprintf
	add	esp, 12					; 0000000cH
$LN108@ScratchPad:

; 591  : 				if(OA_BRG)

	mov	ecx, DWORD PTR _this$[ebp]
	movzx	edx, BYTE PTR [ecx+669]
	test	edx, edx
	je	SHORT $LN107@ScratchPad

; 592  : 					sprintf(InputString,"%3.1f'",fOA_BRG);

	mov	eax, DWORD PTR _this$[ebp]
	cvtss2sd xmm0, DWORD PTR [eax+688]
	sub	esp, 8
	movsd	QWORD PTR [esp], xmm0
	push	OFFSET ??_C@_06NNABEIOP@?$CF3?41f?8?$AA@
	mov	ecx, DWORD PTR _this$[ebp]
	add	ecx, 1064				; 00000428H
	push	ecx
	call	_sprintf
	add	esp, 16					; 00000010H
$LN107@ScratchPad:

; 593  : 				if(OA_ALT)

	mov	edx, DWORD PTR _this$[ebp]
	movzx	eax, BYTE PTR [edx+670]
	test	eax, eax
	je	SHORT $LN106@ScratchPad

; 594  : 					sprintf(InputString,"%dFT",iOA_ALT);

	mov	ecx, DWORD PTR _this$[ebp]
	mov	edx, DWORD PTR [ecx+676]
	push	edx
	push	OFFSET ??_C@_04COHIKBOA@?$CFdFT?$AA@
	mov	eax, DWORD PTR _this$[ebp]
	add	eax, 1064				; 00000428H
	push	eax
	call	_sprintf
	add	esp, 12					; 0000000cH
$LN106@ScratchPad:

; 595  : 			}

	jmp	$LN101@ScratchPad
$LN109@ScratchPad:

; 596  : 			else if(OA2)

	mov	ecx, DWORD PTR _this$[ebp]
	movzx	edx, BYTE PTR [ecx+430]
	test	edx, edx
	je	$LN101@ScratchPad

; 597  : 			{
; 598  : 				if(OA_RNG)

	mov	eax, DWORD PTR _this$[ebp]
	movzx	ecx, BYTE PTR [eax+668]
	test	ecx, ecx
	je	SHORT $LN103@ScratchPad

; 599  : 					sprintf(InputString,"%dFT", iOA_RNG2);

	mov	edx, DWORD PTR _this$[ebp]
	mov	eax, DWORD PTR [edx+680]
	push	eax
	push	OFFSET ??_C@_04COHIKBOA@?$CFdFT?$AA@
	mov	ecx, DWORD PTR _this$[ebp]
	add	ecx, 1064				; 00000428H
	push	ecx
	call	_sprintf
	add	esp, 12					; 0000000cH
$LN103@ScratchPad:

; 600  : 				if(OA_BRG)

	mov	edx, DWORD PTR _this$[ebp]
	movzx	eax, BYTE PTR [edx+669]
	test	eax, eax
	je	SHORT $LN102@ScratchPad

; 601  : 					sprintf(InputString,"%3.1f'",fOA_BRG2);

	mov	ecx, DWORD PTR _this$[ebp]
	cvtss2sd xmm0, DWORD PTR [ecx+692]
	sub	esp, 8
	movsd	QWORD PTR [esp], xmm0
	push	OFFSET ??_C@_06NNABEIOP@?$CF3?41f?8?$AA@
	mov	edx, DWORD PTR _this$[ebp]
	add	edx, 1064				; 00000428H
	push	edx
	call	_sprintf
	add	esp, 16					; 00000010H
$LN102@ScratchPad:

; 602  : 				if(OA_ALT)

	mov	eax, DWORD PTR _this$[ebp]
	movzx	ecx, BYTE PTR [eax+670]
	test	ecx, ecx
	je	SHORT $LN101@ScratchPad

; 603  : 					sprintf(InputString,"%dFT",iOA_ALT2);

	mov	edx, DWORD PTR _this$[ebp]
	mov	eax, DWORD PTR [edx+684]
	push	eax
	push	OFFSET ??_C@_04COHIKBOA@?$CFdFT?$AA@
	mov	ecx, DWORD PTR _this$[ebp]
	add	ecx, 1064				; 00000428H
	push	ecx
	call	_sprintf
	add	esp, 12					; 0000000cH
$LN101@ScratchPad:

; 604  : 			}
; 605  : 		}
; 606  : 	}
; 607  : 	//VIP and VRP
; 608  : 	else if(IsICPSet(ICPClass::MODE_LIST) && mICPSecondaryMode == THREE_BUTTON  ||

	jmp	$LN8@ScratchPad
$LN137@ScratchPad:

; 609  : 		IsICPSet(ICPClass::MODE_LIST) && mICPSecondaryMode == NINE_BUTTON)	

	push	4
	mov	ecx, DWORD PTR _this$[ebp]
	call	?IsICPSet@ICPClass@@QAEHH@Z		; ICPClass::IsICPSet
	test	eax, eax
	je	SHORT $LN97@ScratchPad
	mov	edx, DWORD PTR _this$[ebp]
	cmp	DWORD PTR [edx+12], 22			; 00000016H
	je	SHORT $LN98@ScratchPad
$LN97@ScratchPad:
	push	4
	mov	ecx, DWORD PTR _this$[ebp]
	call	?IsICPSet@ICPClass@@QAEHH@Z		; ICPClass::IsICPSet
	test	eax, eax
	je	$LN99@ScratchPad
	mov	eax, DWORD PTR _this$[ebp]
	cmp	DWORD PTR [eax+12], 25			; 00000019H
	jne	$LN99@ScratchPad
$LN98@ScratchPad:

; 610  : 	{
; 611  : 		if(Manual_Input)

	mov	ecx, DWORD PTR _this$[ebp]
	movzx	edx, BYTE PTR [ecx+732]
	test	edx, edx
	je	$LN96@ScratchPad

; 612  : 		{
; 613  : 			if(VIP_RNG || VRP_RNG)

	mov	eax, DWORD PTR _this$[ebp]
	movzx	ecx, BYTE PTR [eax+696]
	test	ecx, ecx
	jne	SHORT $LN94@ScratchPad
	mov	edx, DWORD PTR _this$[ebp]
	movzx	eax, BYTE PTR [edx+712]
	test	eax, eax
	je	$LN95@ScratchPad
$LN94@ScratchPad:

; 614  : 			{
; 615  : 				InputString[7] = 'T';

	mov	ecx, 1
	imul	ecx, 7
	mov	edx, DWORD PTR _this$[ebp]
	mov	BYTE PTR [edx+ecx+1064], 84		; 00000054H

; 616  : 				InputString[6] = 'F';

	mov	eax, 1
	imul	eax, 6
	mov	ecx, DWORD PTR _this$[ebp]
	mov	BYTE PTR [ecx+eax+1064], 70		; 00000046H

; 617  : 				if(Input_Digit7 < 10)

	mov	edx, DWORD PTR _this$[ebp]
	cmp	DWORD PTR [edx+1436], 10		; 0000000aH
	jae	SHORT $LN93@ScratchPad

; 618  : 					InputString[5] = '0' + Input_Digit7;

	mov	eax, DWORD PTR _this$[ebp]
	mov	ecx, DWORD PTR [eax+1436]
	add	ecx, 48					; 00000030H
	mov	edx, 1
	imul	edx, 5
	mov	eax, DWORD PTR _this$[ebp]
	mov	BYTE PTR [eax+edx+1064], cl

; 619  : 				else

	jmp	SHORT $LN92@ScratchPad
$LN93@ScratchPad:

; 620  : 					InputString[5] = ' ';

	mov	ecx, 1
	imul	ecx, 5
	mov	edx, DWORD PTR _this$[ebp]
	mov	BYTE PTR [edx+ecx+1064], 32		; 00000020H
$LN92@ScratchPad:

; 621  : 				if(Input_Digit6 < 10)

	mov	eax, DWORD PTR _this$[ebp]
	cmp	DWORD PTR [eax+1432], 10		; 0000000aH
	jae	SHORT $LN91@ScratchPad

; 622  : 					InputString[4] = '0' + Input_Digit6;

	mov	ecx, DWORD PTR _this$[ebp]
	mov	edx, DWORD PTR [ecx+1432]
	add	edx, 48					; 00000030H
	mov	eax, 1
	shl	eax, 2
	mov	ecx, DWORD PTR _this$[ebp]
	mov	BYTE PTR [ecx+eax+1064], dl

; 623  : 				else 

	jmp	SHORT $LN90@ScratchPad
$LN91@ScratchPad:

; 624  : 					InputString[4] = ' ';

	mov	edx, 1
	shl	edx, 2
	mov	eax, DWORD PTR _this$[ebp]
	mov	BYTE PTR [eax+edx+1064], 32		; 00000020H
$LN90@ScratchPad:

; 625  : 				if(Input_Digit5 < 10)

	mov	ecx, DWORD PTR _this$[ebp]
	cmp	DWORD PTR [ecx+1428], 10		; 0000000aH
	jae	SHORT $LN89@ScratchPad

; 626  : 					InputString[3] = '0' + Input_Digit5;

	mov	edx, DWORD PTR _this$[ebp]
	mov	eax, DWORD PTR [edx+1428]
	add	eax, 48					; 00000030H
	mov	ecx, 1
	imul	ecx, 3
	mov	edx, DWORD PTR _this$[ebp]
	mov	BYTE PTR [edx+ecx+1064], al

; 627  : 				else

	jmp	SHORT $LN88@ScratchPad
$LN89@ScratchPad:

; 628  : 					InputString[3] = ' ';

	mov	eax, 1
	imul	eax, 3
	mov	ecx, DWORD PTR _this$[ebp]
	mov	BYTE PTR [ecx+eax+1064], 32		; 00000020H
$LN88@ScratchPad:

; 629  : 				if(Input_Digit4 < 10)

	mov	edx, DWORD PTR _this$[ebp]
	cmp	DWORD PTR [edx+1424], 10		; 0000000aH
	jae	SHORT $LN87@ScratchPad

; 630  : 					InputString[2] = '0' + Input_Digit4;

	mov	eax, DWORD PTR _this$[ebp]
	mov	ecx, DWORD PTR [eax+1424]
	add	ecx, 48					; 00000030H
	mov	edx, 1
	shl	edx, 1
	mov	eax, DWORD PTR _this$[ebp]
	mov	BYTE PTR [eax+edx+1064], cl

; 631  : 				else

	jmp	SHORT $LN86@ScratchPad
$LN87@ScratchPad:

; 632  : 					InputString[2] = ' ';

	mov	ecx, 1
	shl	ecx, 1
	mov	edx, DWORD PTR _this$[ebp]
	mov	BYTE PTR [edx+ecx+1064], 32		; 00000020H
$LN86@ScratchPad:

; 633  : 				if(Input_Digit3 < 10)

	mov	eax, DWORD PTR _this$[ebp]
	cmp	DWORD PTR [eax+1420], 10		; 0000000aH
	jae	SHORT $LN85@ScratchPad

; 634  : 					InputString[1] = '0' + Input_Digit3;

	mov	ecx, DWORD PTR _this$[ebp]
	mov	edx, DWORD PTR [ecx+1420]
	add	edx, 48					; 00000030H
	mov	eax, 1
	shl	eax, 0
	mov	ecx, DWORD PTR _this$[ebp]
	mov	BYTE PTR [ecx+eax+1064], dl

; 635  : 				else

	jmp	SHORT $LN84@ScratchPad
$LN85@ScratchPad:

; 636  : 					InputString[1] = ' ';

	mov	edx, 1
	shl	edx, 0
	mov	eax, DWORD PTR _this$[ebp]
	mov	BYTE PTR [eax+edx+1064], 32		; 00000020H
$LN84@ScratchPad:

; 637  : 				if(Input_Digit2 < 10)

	mov	ecx, DWORD PTR _this$[ebp]
	cmp	DWORD PTR [ecx+1416], 10		; 0000000aH
	jae	SHORT $LN83@ScratchPad

; 638  : 					InputString[0] = '0' + Input_Digit2;

	mov	edx, DWORD PTR _this$[ebp]
	mov	eax, DWORD PTR [edx+1416]
	add	eax, 48					; 00000030H
	mov	ecx, 1
	imul	ecx, 0
	mov	edx, DWORD PTR _this$[ebp]
	mov	BYTE PTR [edx+ecx+1064], al

; 639  : 				else

	jmp	SHORT $LN82@ScratchPad
$LN83@ScratchPad:

; 640  : 					InputString[0] = ' ';

	mov	eax, 1
	imul	eax, 0
	mov	ecx, DWORD PTR _this$[ebp]
	mov	BYTE PTR [ecx+eax+1064], 32		; 00000020H
$LN82@ScratchPad:

; 641  : 				InputString[8] = '\0';

	mov	edx, 1
	shl	edx, 3
	mov	eax, DWORD PTR _this$[ebp]
	mov	BYTE PTR [eax+edx+1064], 0
	jmp	$LN69@ScratchPad
$LN95@ScratchPad:

; 642  : 			}
; 643  : 			else if(VIP_BRG || VRP_BRG)

	mov	ecx, DWORD PTR _this$[ebp]
	movzx	edx, BYTE PTR [ecx+697]
	test	edx, edx
	jne	SHORT $LN79@ScratchPad
	mov	eax, DWORD PTR _this$[ebp]
	movzx	ecx, BYTE PTR [eax+713]
	test	ecx, ecx
	je	$LN80@ScratchPad
$LN79@ScratchPad:

; 644  : 			{
; 645  : 				InputString[5] = '\'';

	mov	edx, 1
	imul	edx, 5
	mov	eax, DWORD PTR _this$[ebp]
	mov	BYTE PTR [eax+edx+1064], 39		; 00000027H

; 646  : 				if(Input_Digit7 < 10)

	mov	ecx, DWORD PTR _this$[ebp]
	cmp	DWORD PTR [ecx+1436], 10		; 0000000aH
	jae	SHORT $LN78@ScratchPad

; 647  : 					InputString[4] = '0' + Input_Digit7;

	mov	edx, DWORD PTR _this$[ebp]
	mov	eax, DWORD PTR [edx+1436]
	add	eax, 48					; 00000030H
	mov	ecx, 1
	shl	ecx, 2
	mov	edx, DWORD PTR _this$[ebp]
	mov	BYTE PTR [edx+ecx+1064], al

; 648  : 				else

	jmp	SHORT $LN77@ScratchPad
$LN78@ScratchPad:

; 649  : 					InputString[4] = ' ';

	mov	eax, 1
	shl	eax, 2
	mov	ecx, DWORD PTR _this$[ebp]
	mov	BYTE PTR [ecx+eax+1064], 32		; 00000020H
$LN77@ScratchPad:

; 650  : 				InputString[3] = '.';

	mov	edx, 1
	imul	edx, 3
	mov	eax, DWORD PTR _this$[ebp]
	mov	BYTE PTR [eax+edx+1064], 46		; 0000002eH

; 651  : 				if(Input_Digit6 < 10)

	mov	ecx, DWORD PTR _this$[ebp]
	cmp	DWORD PTR [ecx+1432], 10		; 0000000aH
	jae	SHORT $LN76@ScratchPad

; 652  : 					InputString[2] = '0' + Input_Digit6;

	mov	edx, DWORD PTR _this$[ebp]
	mov	eax, DWORD PTR [edx+1432]
	add	eax, 48					; 00000030H
	mov	ecx, 1
	shl	ecx, 1
	mov	edx, DWORD PTR _this$[ebp]
	mov	BYTE PTR [edx+ecx+1064], al

; 653  : 				else 

	jmp	SHORT $LN75@ScratchPad
$LN76@ScratchPad:

; 654  : 					InputString[2] = ' ';

	mov	eax, 1
	shl	eax, 1
	mov	ecx, DWORD PTR _this$[ebp]
	mov	BYTE PTR [ecx+eax+1064], 32		; 00000020H
$LN75@ScratchPad:

; 655  : 				if(Input_Digit5 < 10)

	mov	edx, DWORD PTR _this$[ebp]
	cmp	DWORD PTR [edx+1428], 10		; 0000000aH
	jae	SHORT $LN74@ScratchPad

; 656  : 					InputString[1] = '0' + Input_Digit5;

	mov	eax, DWORD PTR _this$[ebp]
	mov	ecx, DWORD PTR [eax+1428]
	add	ecx, 48					; 00000030H
	mov	edx, 1
	shl	edx, 0
	mov	eax, DWORD PTR _this$[ebp]
	mov	BYTE PTR [eax+edx+1064], cl

; 657  : 				else

	jmp	SHORT $LN73@ScratchPad
$LN74@ScratchPad:

; 658  : 					InputString[1] = ' ';

	mov	ecx, 1
	shl	ecx, 0
	mov	edx, DWORD PTR _this$[ebp]
	mov	BYTE PTR [edx+ecx+1064], 32		; 00000020H
$LN73@ScratchPad:

; 659  : 				if(Input_Digit4 < 10)

	mov	eax, DWORD PTR _this$[ebp]
	cmp	DWORD PTR [eax+1424], 10		; 0000000aH
	jae	SHORT $LN72@ScratchPad

; 660  : 					InputString[0] = '0' + Input_Digit4;

	mov	ecx, DWORD PTR _this$[ebp]
	mov	edx, DWORD PTR [ecx+1424]
	add	edx, 48					; 00000030H
	mov	eax, 1
	imul	eax, 0
	mov	ecx, DWORD PTR _this$[ebp]
	mov	BYTE PTR [ecx+eax+1064], dl

; 661  : 				else

	jmp	SHORT $LN71@ScratchPad
$LN72@ScratchPad:

; 662  : 					InputString[0] = ' ';

	mov	edx, 1
	imul	edx, 0
	mov	eax, DWORD PTR _this$[ebp]
	mov	BYTE PTR [eax+edx+1064], 32		; 00000020H
$LN71@ScratchPad:

; 663  : 				InputString[6] = '\0';

	mov	ecx, 1
	imul	ecx, 6
	mov	edx, DWORD PTR _this$[ebp]
	mov	BYTE PTR [edx+ecx+1064], 0
	jmp	$LN69@ScratchPad
$LN80@ScratchPad:

; 664  : 			}
; 665  : 			else if(VIP_ALT || VRP_ALT)

	mov	eax, DWORD PTR _this$[ebp]
	movzx	ecx, BYTE PTR [eax+698]
	test	ecx, ecx
	jne	SHORT $LN68@ScratchPad
	mov	edx, DWORD PTR _this$[ebp]
	movzx	eax, BYTE PTR [edx+714]
	test	eax, eax
	je	$LN69@ScratchPad
$LN68@ScratchPad:

; 666  : 			{
; 667  : 				InputString[7] = 'T';

	mov	ecx, 1
	imul	ecx, 7
	mov	edx, DWORD PTR _this$[ebp]
	mov	BYTE PTR [edx+ecx+1064], 84		; 00000054H

; 668  : 				InputString[6] = 'F';

	mov	eax, 1
	imul	eax, 6
	mov	ecx, DWORD PTR _this$[ebp]
	mov	BYTE PTR [ecx+eax+1064], 70		; 00000046H

; 669  : 				if(Input_Digit7 < 10)

	mov	edx, DWORD PTR _this$[ebp]
	cmp	DWORD PTR [edx+1436], 10		; 0000000aH
	jae	SHORT $LN67@ScratchPad

; 670  : 					InputString[5] = '0' + Input_Digit7;

	mov	eax, DWORD PTR _this$[ebp]
	mov	ecx, DWORD PTR [eax+1436]
	add	ecx, 48					; 00000030H
	mov	edx, 1
	imul	edx, 5
	mov	eax, DWORD PTR _this$[ebp]
	mov	BYTE PTR [eax+edx+1064], cl

; 671  : 				else

	jmp	SHORT $LN66@ScratchPad
$LN67@ScratchPad:

; 672  : 					InputString[5] = ' ';

	mov	ecx, 1
	imul	ecx, 5
	mov	edx, DWORD PTR _this$[ebp]
	mov	BYTE PTR [edx+ecx+1064], 32		; 00000020H
$LN66@ScratchPad:

; 673  : 				if(Input_Digit6 < 10)

	mov	eax, DWORD PTR _this$[ebp]
	cmp	DWORD PTR [eax+1432], 10		; 0000000aH
	jae	SHORT $LN65@ScratchPad

; 674  : 					InputString[4] = '0' + Input_Digit6;

	mov	ecx, DWORD PTR _this$[ebp]
	mov	edx, DWORD PTR [ecx+1432]
	add	edx, 48					; 00000030H
	mov	eax, 1
	shl	eax, 2
	mov	ecx, DWORD PTR _this$[ebp]
	mov	BYTE PTR [ecx+eax+1064], dl

; 675  : 				else 

	jmp	SHORT $LN64@ScratchPad
$LN65@ScratchPad:

; 676  : 					InputString[4] = ' ';

	mov	edx, 1
	shl	edx, 2
	mov	eax, DWORD PTR _this$[ebp]
	mov	BYTE PTR [eax+edx+1064], 32		; 00000020H
$LN64@ScratchPad:

; 677  : 				if(Input_Digit5 < 10)

	mov	ecx, DWORD PTR _this$[ebp]
	cmp	DWORD PTR [ecx+1428], 10		; 0000000aH
	jae	SHORT $LN63@ScratchPad

; 678  : 					InputString[3] = '0' + Input_Digit5;

	mov	edx, DWORD PTR _this$[ebp]
	mov	eax, DWORD PTR [edx+1428]
	add	eax, 48					; 00000030H
	mov	ecx, 1
	imul	ecx, 3
	mov	edx, DWORD PTR _this$[ebp]
	mov	BYTE PTR [edx+ecx+1064], al

; 679  : 				else

	jmp	SHORT $LN62@ScratchPad
$LN63@ScratchPad:

; 680  : 					InputString[3] = ' ';

	mov	eax, 1
	imul	eax, 3
	mov	ecx, DWORD PTR _this$[ebp]
	mov	BYTE PTR [ecx+eax+1064], 32		; 00000020H
$LN62@ScratchPad:

; 681  : 				if(Input_Digit4 < 10)

	mov	edx, DWORD PTR _this$[ebp]
	cmp	DWORD PTR [edx+1424], 10		; 0000000aH
	jae	SHORT $LN61@ScratchPad

; 682  : 					InputString[2] = '0' + Input_Digit4;

	mov	eax, DWORD PTR _this$[ebp]
	mov	ecx, DWORD PTR [eax+1424]
	add	ecx, 48					; 00000030H
	mov	edx, 1
	shl	edx, 1
	mov	eax, DWORD PTR _this$[ebp]
	mov	BYTE PTR [eax+edx+1064], cl

; 683  : 				else

	jmp	SHORT $LN60@ScratchPad
$LN61@ScratchPad:

; 684  : 					InputString[2] = ' ';

	mov	ecx, 1
	shl	ecx, 1
	mov	edx, DWORD PTR _this$[ebp]
	mov	BYTE PTR [edx+ecx+1064], 32		; 00000020H
$LN60@ScratchPad:

; 685  : 				if(Input_Digit3 < 10)

	mov	eax, DWORD PTR _this$[ebp]
	cmp	DWORD PTR [eax+1420], 10		; 0000000aH
	jae	SHORT $LN59@ScratchPad

; 686  : 					InputString[1] = '0' + Input_Digit3;

	mov	ecx, DWORD PTR _this$[ebp]
	mov	edx, DWORD PTR [ecx+1420]
	add	edx, 48					; 00000030H
	mov	eax, 1
	shl	eax, 0
	mov	ecx, DWORD PTR _this$[ebp]
	mov	BYTE PTR [ecx+eax+1064], dl

; 687  : 				else

	jmp	SHORT $LN58@ScratchPad
$LN59@ScratchPad:

; 688  : 					InputString[1] = ' ';

	mov	edx, 1
	shl	edx, 0
	mov	eax, DWORD PTR _this$[ebp]
	mov	BYTE PTR [eax+edx+1064], 32		; 00000020H
$LN58@ScratchPad:

; 689  : 				if(Input_Digit2 < 10)

	mov	ecx, DWORD PTR _this$[ebp]
	cmp	DWORD PTR [ecx+1416], 10		; 0000000aH
	jae	SHORT $LN57@ScratchPad

; 690  : 					InputString[0] = '0' + Input_Digit2;

	mov	edx, DWORD PTR _this$[ebp]
	mov	eax, DWORD PTR [edx+1416]
	add	eax, 48					; 00000030H
	mov	ecx, 1
	imul	ecx, 0
	mov	edx, DWORD PTR _this$[ebp]
	mov	BYTE PTR [edx+ecx+1064], al

; 691  : 				else

	jmp	SHORT $LN56@ScratchPad
$LN57@ScratchPad:

; 692  : 					InputString[0] = ' ';

	mov	eax, 1
	imul	eax, 0
	mov	ecx, DWORD PTR _this$[ebp]
	mov	BYTE PTR [ecx+eax+1064], 32		; 00000020H
$LN56@ScratchPad:

; 693  : 				InputString[8] = '\0';

	mov	edx, 1
	shl	edx, 3
	mov	eax, DWORD PTR _this$[ebp]
	mov	BYTE PTR [eax+edx+1064], 0
$LN69@ScratchPad:

; 694  : 			}
; 695  : 
; 696  : 		}
; 697  : 		else

	jmp	$LN46@ScratchPad
$LN96@ScratchPad:

; 698  : 		{
; 699  : 			//VIP
; 700  : 			if(mICPSecondaryMode == THREE_BUTTON)

	mov	ecx, DWORD PTR _this$[ebp]
	cmp	DWORD PTR [ecx+12], 22			; 00000016H
	jne	$LN54@ScratchPad

; 701  : 			{
; 702  : 				if(VIP_RNG)

	mov	edx, DWORD PTR _this$[ebp]
	movzx	eax, BYTE PTR [edx+696]
	test	eax, eax
	je	SHORT $LN53@ScratchPad

; 703  : 					sprintf(InputString,"%dFT", iVIP_RNG);

	mov	ecx, DWORD PTR _this$[ebp]
	mov	edx, DWORD PTR [ecx+700]
	push	edx
	push	OFFSET ??_C@_04COHIKBOA@?$CFdFT?$AA@
	mov	eax, DWORD PTR _this$[ebp]
	add	eax, 1064				; 00000428H
	push	eax
	call	_sprintf
	add	esp, 12					; 0000000cH
$LN53@ScratchPad:

; 704  : 				if(VIP_BRG)

	mov	ecx, DWORD PTR _this$[ebp]
	movzx	edx, BYTE PTR [ecx+697]
	test	edx, edx
	je	SHORT $LN52@ScratchPad

; 705  : 					sprintf(InputString,"%3.1f'",fVIP_BRG);

	mov	eax, DWORD PTR _this$[ebp]
	cvtss2sd xmm0, DWORD PTR [eax+708]
	sub	esp, 8
	movsd	QWORD PTR [esp], xmm0
	push	OFFSET ??_C@_06NNABEIOP@?$CF3?41f?8?$AA@
	mov	ecx, DWORD PTR _this$[ebp]
	add	ecx, 1064				; 00000428H
	push	ecx
	call	_sprintf
	add	esp, 16					; 00000010H
$LN52@ScratchPad:

; 706  : 				if(VIP_ALT)

	mov	edx, DWORD PTR _this$[ebp]
	movzx	eax, BYTE PTR [edx+698]
	test	eax, eax
	je	SHORT $LN51@ScratchPad

; 707  : 					sprintf(InputString,"%dFT",iVIP_ALT);

	mov	ecx, DWORD PTR _this$[ebp]
	mov	edx, DWORD PTR [ecx+704]
	push	edx
	push	OFFSET ??_C@_04COHIKBOA@?$CFdFT?$AA@
	mov	eax, DWORD PTR _this$[ebp]
	add	eax, 1064				; 00000428H
	push	eax
	call	_sprintf
	add	esp, 12					; 0000000cH
$LN51@ScratchPad:

; 708  : 			}

	jmp	$LN46@ScratchPad
$LN54@ScratchPad:

; 709  : 			else if(mICPSecondaryMode == NINE_BUTTON)

	mov	ecx, DWORD PTR _this$[ebp]
	cmp	DWORD PTR [ecx+12], 25			; 00000019H
	jne	$LN46@ScratchPad

; 710  : 			{
; 711  : 				if(VRP_RNG)

	mov	edx, DWORD PTR _this$[ebp]
	movzx	eax, BYTE PTR [edx+712]
	test	eax, eax
	je	SHORT $LN48@ScratchPad

; 712  : 					sprintf(InputString,"%dFT", iVRP_RNG);

	mov	ecx, DWORD PTR _this$[ebp]
	mov	edx, DWORD PTR [ecx+716]
	push	edx
	push	OFFSET ??_C@_04COHIKBOA@?$CFdFT?$AA@
	mov	eax, DWORD PTR _this$[ebp]
	add	eax, 1064				; 00000428H
	push	eax
	call	_sprintf
	add	esp, 12					; 0000000cH
$LN48@ScratchPad:

; 713  : 				if(VRP_BRG)

	mov	ecx, DWORD PTR _this$[ebp]
	movzx	edx, BYTE PTR [ecx+713]
	test	edx, edx
	je	SHORT $LN47@ScratchPad

; 714  : 					sprintf(InputString,"%3.1f'",fVRP_BRG);

	mov	eax, DWORD PTR _this$[ebp]
	cvtss2sd xmm0, DWORD PTR [eax+724]
	sub	esp, 8
	movsd	QWORD PTR [esp], xmm0
	push	OFFSET ??_C@_06NNABEIOP@?$CF3?41f?8?$AA@
	mov	ecx, DWORD PTR _this$[ebp]
	add	ecx, 1064				; 00000428H
	push	ecx
	call	_sprintf
	add	esp, 16					; 00000010H
$LN47@ScratchPad:

; 715  : 				if(VRP_ALT)

	mov	edx, DWORD PTR _this$[ebp]
	movzx	eax, BYTE PTR [edx+714]
	test	eax, eax
	je	SHORT $LN46@ScratchPad

; 716  : 					sprintf(InputString,"%dFT",iVRP_ALT);

	mov	ecx, DWORD PTR _this$[ebp]
	mov	edx, DWORD PTR [ecx+720]
	push	edx
	push	OFFSET ??_C@_04COHIKBOA@?$CFdFT?$AA@
	mov	eax, DWORD PTR _this$[ebp]
	add	eax, 1064				; 00000428H
	push	eax
	call	_sprintf
	add	esp, 12					; 0000000cH
$LN46@ScratchPad:

; 717  : 			}
; 718  : 		}
; 719  : 	}
; 720  : 	else if((IsICPSet(ICPClass::MODE_LIST) && mICPSecondaryMode == 100) ||

	jmp	$LN8@ScratchPad
$LN99@ScratchPad:

; 721  : 		IsICPSet(ICPClass::MODE_IFF)) //INTG and IFF

	push	4
	mov	ecx, DWORD PTR _this$[ebp]
	call	?IsICPSet@ICPClass@@QAEHH@Z		; ICPClass::IsICPSet
	test	eax, eax
	je	SHORT $LN42@ScratchPad
	mov	ecx, DWORD PTR _this$[ebp]
	cmp	DWORD PTR [ecx+12], 100			; 00000064H
	je	SHORT $LN43@ScratchPad
$LN42@ScratchPad:
	push	16					; 00000010H
	mov	ecx, DWORD PTR _this$[ebp]
	call	?IsICPSet@ICPClass@@QAEHH@Z		; ICPClass::IsICPSet
	test	eax, eax
	je	$LN44@ScratchPad
$LN43@ScratchPad:

; 722  : 	{
; 723  : 		if(Input_Digit7 < 10)

	mov	edx, DWORD PTR _this$[ebp]
	cmp	DWORD PTR [edx+1436], 10		; 0000000aH
	jae	SHORT $LN41@ScratchPad

; 724  : 			InputString[4] = '0' + Input_Digit7;

	mov	eax, DWORD PTR _this$[ebp]
	mov	ecx, DWORD PTR [eax+1436]
	add	ecx, 48					; 00000030H
	mov	edx, 1
	shl	edx, 2
	mov	eax, DWORD PTR _this$[ebp]
	mov	BYTE PTR [eax+edx+1064], cl

; 725  : 		else

	jmp	SHORT $LN40@ScratchPad
$LN41@ScratchPad:

; 726  : 			InputString[4] = ' ';

	mov	ecx, 1
	shl	ecx, 2
	mov	edx, DWORD PTR _this$[ebp]
	mov	BYTE PTR [edx+ecx+1064], 32		; 00000020H
$LN40@ScratchPad:

; 727  : 		if(Input_Digit6 < 10)

	mov	eax, DWORD PTR _this$[ebp]
	cmp	DWORD PTR [eax+1432], 10		; 0000000aH
	jae	SHORT $LN39@ScratchPad

; 728  : 			InputString[3] = '0' + Input_Digit6;

	mov	ecx, DWORD PTR _this$[ebp]
	mov	edx, DWORD PTR [ecx+1432]
	add	edx, 48					; 00000030H
	mov	eax, 1
	imul	eax, 3
	mov	ecx, DWORD PTR _this$[ebp]
	mov	BYTE PTR [ecx+eax+1064], dl

; 729  : 		else 

	jmp	SHORT $LN38@ScratchPad
$LN39@ScratchPad:

; 730  : 			InputString[3] = ' ';

	mov	edx, 1
	imul	edx, 3
	mov	eax, DWORD PTR _this$[ebp]
	mov	BYTE PTR [eax+edx+1064], 32		; 00000020H
$LN38@ScratchPad:

; 731  : 		if(Input_Digit5 < 10)

	mov	ecx, DWORD PTR _this$[ebp]
	cmp	DWORD PTR [ecx+1428], 10		; 0000000aH
	jae	SHORT $LN37@ScratchPad

; 732  : 			InputString[2] = '0' + Input_Digit5;

	mov	edx, DWORD PTR _this$[ebp]
	mov	eax, DWORD PTR [edx+1428]
	add	eax, 48					; 00000030H
	mov	ecx, 1
	shl	ecx, 1
	mov	edx, DWORD PTR _this$[ebp]
	mov	BYTE PTR [edx+ecx+1064], al

; 733  : 		else

	jmp	SHORT $LN36@ScratchPad
$LN37@ScratchPad:

; 734  : 			InputString[2] = ' ';

	mov	eax, 1
	shl	eax, 1
	mov	ecx, DWORD PTR _this$[ebp]
	mov	BYTE PTR [ecx+eax+1064], 32		; 00000020H
$LN36@ScratchPad:

; 735  : 		if(Input_Digit4 < 10)

	mov	edx, DWORD PTR _this$[ebp]
	cmp	DWORD PTR [edx+1424], 10		; 0000000aH
	jae	SHORT $LN35@ScratchPad

; 736  : 			InputString[1] = '0' + Input_Digit4;

	mov	eax, DWORD PTR _this$[ebp]
	mov	ecx, DWORD PTR [eax+1424]
	add	ecx, 48					; 00000030H
	mov	edx, 1
	shl	edx, 0
	mov	eax, DWORD PTR _this$[ebp]
	mov	BYTE PTR [eax+edx+1064], cl

; 737  : 		else

	jmp	SHORT $LN34@ScratchPad
$LN35@ScratchPad:

; 738  : 			InputString[1] = ' ';

	mov	ecx, 1
	shl	ecx, 0
	mov	edx, DWORD PTR _this$[ebp]
	mov	BYTE PTR [edx+ecx+1064], 32		; 00000020H
$LN34@ScratchPad:

; 739  : 		if(Input_Digit3 < 10)

	mov	eax, DWORD PTR _this$[ebp]
	cmp	DWORD PTR [eax+1420], 10		; 0000000aH
	jae	SHORT $LN33@ScratchPad

; 740  : 			InputString[0] = '0' + Input_Digit3;

	mov	ecx, DWORD PTR _this$[ebp]
	mov	edx, DWORD PTR [ecx+1420]
	add	edx, 48					; 00000030H
	mov	eax, 1
	imul	eax, 0
	mov	ecx, DWORD PTR _this$[ebp]
	mov	BYTE PTR [ecx+eax+1064], dl

; 741  : 		else

	jmp	SHORT $LN32@ScratchPad
$LN33@ScratchPad:

; 742  : 			InputString[0] = ' ';

	mov	edx, 1
	imul	edx, 0
	mov	eax, DWORD PTR _this$[ebp]
	mov	BYTE PTR [eax+edx+1064], 32		; 00000020H
$LN32@ScratchPad:

; 743  : 		InputString[5] = '\0';

	mov	ecx, 1
	imul	ecx, 5
	mov	edx, DWORD PTR _this$[ebp]
	mov	BYTE PTR [edx+ecx+1064], 0
	jmp	$LN8@ScratchPad
$LN44@ScratchPad:

; 744  : 	}
; 745  : 	//Laser Page
; 746  : 	else if(IsICPSet(ICPClass::MISC_MODE) && mICPSecondaryMode == FIFE_BUTTON)

	push	8
	mov	ecx, DWORD PTR _this$[ebp]
	call	?IsICPSet@ICPClass@@QAEHH@Z		; ICPClass::IsICPSet
	test	eax, eax
	je	$LN30@ScratchPad
	mov	eax, DWORD PTR _this$[ebp]
	cmp	DWORD PTR [eax+12], 5
	jne	$LN30@ScratchPad

; 747  : 	{
; 748  : 		if(LaserLine == 1)

	mov	ecx, DWORD PTR _this$[ebp]
	cmp	DWORD PTR [ecx+1660], 1
	jne	$LN29@ScratchPad

; 749  : 		{
; 750  : 			if(Manual_Input)

	mov	edx, DWORD PTR _this$[ebp]
	movzx	eax, BYTE PTR [edx+732]
	test	eax, eax
	je	$LN28@ScratchPad

; 751  : 			{
; 752  : 				if(Input_Digit7 < 10)

	mov	ecx, DWORD PTR _this$[ebp]
	cmp	DWORD PTR [ecx+1436], 10		; 0000000aH
	jae	SHORT $LN27@ScratchPad

; 753  : 					InputString[3] = '0' + Input_Digit7;

	mov	edx, DWORD PTR _this$[ebp]
	mov	eax, DWORD PTR [edx+1436]
	add	eax, 48					; 00000030H
	mov	ecx, 1
	imul	ecx, 3
	mov	edx, DWORD PTR _this$[ebp]
	mov	BYTE PTR [edx+ecx+1064], al

; 754  : 				else

	jmp	SHORT $LN26@ScratchPad
$LN27@ScratchPad:

; 755  : 					InputString[3] = ' ';

	mov	eax, 1
	imul	eax, 3
	mov	ecx, DWORD PTR _this$[ebp]
	mov	BYTE PTR [ecx+eax+1064], 32		; 00000020H
$LN26@ScratchPad:

; 756  : 				if(Input_Digit6 < 10)

	mov	edx, DWORD PTR _this$[ebp]
	cmp	DWORD PTR [edx+1432], 10		; 0000000aH
	jae	SHORT $LN25@ScratchPad

; 757  : 					InputString[2] = '0' + Input_Digit6;

	mov	eax, DWORD PTR _this$[ebp]
	mov	ecx, DWORD PTR [eax+1432]
	add	ecx, 48					; 00000030H
	mov	edx, 1
	shl	edx, 1
	mov	eax, DWORD PTR _this$[ebp]
	mov	BYTE PTR [eax+edx+1064], cl

; 758  : 				else 

	jmp	SHORT $LN24@ScratchPad
$LN25@ScratchPad:

; 759  : 					InputString[2] = ' ';

	mov	ecx, 1
	shl	ecx, 1
	mov	edx, DWORD PTR _this$[ebp]
	mov	BYTE PTR [edx+ecx+1064], 32		; 00000020H
$LN24@ScratchPad:

; 760  : 				if(Input_Digit5 < 10)

	mov	eax, DWORD PTR _this$[ebp]
	cmp	DWORD PTR [eax+1428], 10		; 0000000aH
	jae	SHORT $LN23@ScratchPad

; 761  : 					InputString[1] = '0' + Input_Digit5;

	mov	ecx, DWORD PTR _this$[ebp]
	mov	edx, DWORD PTR [ecx+1428]
	add	edx, 48					; 00000030H
	mov	eax, 1
	shl	eax, 0
	mov	ecx, DWORD PTR _this$[ebp]
	mov	BYTE PTR [ecx+eax+1064], dl

; 762  : 				else

	jmp	SHORT $LN22@ScratchPad
$LN23@ScratchPad:

; 763  : 					InputString[1] = ' ';

	mov	edx, 1
	shl	edx, 0
	mov	eax, DWORD PTR _this$[ebp]
	mov	BYTE PTR [eax+edx+1064], 32		; 00000020H
$LN22@ScratchPad:

; 764  : 				if(Input_Digit4 < 10)

	mov	ecx, DWORD PTR _this$[ebp]
	cmp	DWORD PTR [ecx+1424], 10		; 0000000aH
	jae	SHORT $LN21@ScratchPad

; 765  : 					InputString[0] = '0' + Input_Digit4;

	mov	edx, DWORD PTR _this$[ebp]
	mov	eax, DWORD PTR [edx+1424]
	add	eax, 48					; 00000030H
	mov	ecx, 1
	imul	ecx, 0
	mov	edx, DWORD PTR _this$[ebp]
	mov	BYTE PTR [edx+ecx+1064], al

; 766  : 				else

	jmp	SHORT $LN20@ScratchPad
$LN21@ScratchPad:

; 767  : 					InputString[0] = ' ';

	mov	eax, 1
	imul	eax, 0
	mov	ecx, DWORD PTR _this$[ebp]
	mov	BYTE PTR [ecx+eax+1064], 32		; 00000020H
$LN20@ScratchPad:

; 768  : 				InputString[4] = '\0';

	mov	edx, 1
	shl	edx, 2
	mov	eax, DWORD PTR _this$[ebp]
	mov	BYTE PTR [eax+edx+1064], 0

; 769  : 			}
; 770  : 			else

	jmp	SHORT $LN19@ScratchPad
$LN28@ScratchPad:

; 771  : 			{
; 772  : 				sprintf(InputString, "%d", LaserCode);

	mov	ecx, DWORD PTR _this$[ebp]
	mov	edx, DWORD PTR [ecx+1664]
	push	edx
	push	OFFSET ??_C@_02DPKJAMEF@?$CFd?$AA@
	mov	eax, DWORD PTR _this$[ebp]
	add	eax, 1064				; 00000428H
	push	eax
	call	_sprintf
	add	esp, 12					; 0000000cH
$LN19@ScratchPad:

; 773  : 			}

	jmp	$LN9@ScratchPad
$LN29@ScratchPad:

; 774  : 		}
; 775  : 		else if(LaserLine == 2)

	mov	ecx, DWORD PTR _this$[ebp]
	cmp	DWORD PTR [ecx+1660], 2
	jne	$LN9@ScratchPad

; 776  : 		{
; 777  : 			if(Manual_Input)

	mov	edx, DWORD PTR _this$[ebp]
	movzx	eax, BYTE PTR [edx+732]
	test	eax, eax
	je	$LN16@ScratchPad

; 778  : 			{
; 779  : 				if(Input_Digit7 < 10)

	mov	ecx, DWORD PTR _this$[ebp]
	cmp	DWORD PTR [ecx+1436], 10		; 0000000aH
	jae	SHORT $LN15@ScratchPad

; 780  : 					InputString[2] = '0' + Input_Digit7;

	mov	edx, DWORD PTR _this$[ebp]
	mov	eax, DWORD PTR [edx+1436]
	add	eax, 48					; 00000030H
	mov	ecx, 1
	shl	ecx, 1
	mov	edx, DWORD PTR _this$[ebp]
	mov	BYTE PTR [edx+ecx+1064], al

; 781  : 				else

	jmp	SHORT $LN14@ScratchPad
$LN15@ScratchPad:

; 782  : 					InputString[2] = ' ';

	mov	eax, 1
	shl	eax, 1
	mov	ecx, DWORD PTR _this$[ebp]
	mov	BYTE PTR [ecx+eax+1064], 32		; 00000020H
$LN14@ScratchPad:

; 783  : 				if(Input_Digit6 < 10)

	mov	edx, DWORD PTR _this$[ebp]
	cmp	DWORD PTR [edx+1432], 10		; 0000000aH
	jae	SHORT $LN13@ScratchPad

; 784  : 					InputString[1] = '0' + Input_Digit6;

	mov	eax, DWORD PTR _this$[ebp]
	mov	ecx, DWORD PTR [eax+1432]
	add	ecx, 48					; 00000030H
	mov	edx, 1
	shl	edx, 0
	mov	eax, DWORD PTR _this$[ebp]
	mov	BYTE PTR [eax+edx+1064], cl

; 785  : 				else 

	jmp	SHORT $LN12@ScratchPad
$LN13@ScratchPad:

; 786  : 					InputString[1] = ' ';

	mov	ecx, 1
	shl	ecx, 0
	mov	edx, DWORD PTR _this$[ebp]
	mov	BYTE PTR [edx+ecx+1064], 32		; 00000020H
$LN12@ScratchPad:

; 787  : 				if(Input_Digit5 < 10)

	mov	eax, DWORD PTR _this$[ebp]
	cmp	DWORD PTR [eax+1428], 10		; 0000000aH
	jae	SHORT $LN11@ScratchPad

; 788  : 					InputString[0] = '0' + Input_Digit5;

	mov	ecx, DWORD PTR _this$[ebp]
	mov	edx, DWORD PTR [ecx+1428]
	add	edx, 48					; 00000030H
	mov	eax, 1
	imul	eax, 0
	mov	ecx, DWORD PTR _this$[ebp]
	mov	BYTE PTR [ecx+eax+1064], dl

; 789  : 				else

	jmp	SHORT $LN10@ScratchPad
$LN11@ScratchPad:

; 790  : 					InputString[0] = ' ';

	mov	edx, 1
	imul	edx, 0
	mov	eax, DWORD PTR _this$[ebp]
	mov	BYTE PTR [eax+edx+1064], 32		; 00000020H
$LN10@ScratchPad:

; 791  : 				InputString[3] = '\0';

	mov	ecx, 1
	imul	ecx, 3
	mov	edx, DWORD PTR _this$[ebp]
	mov	BYTE PTR [edx+ecx+1064], 0

; 792  : 			}
; 793  : 			else

	jmp	SHORT $LN9@ScratchPad
$LN16@ScratchPad:

; 794  : 			{
; 795  : 				sprintf(InputString, "%d", LaserTime);

	mov	eax, DWORD PTR _this$[ebp]
	mov	ecx, DWORD PTR [eax+1656]
	push	ecx
	push	OFFSET ??_C@_02DPKJAMEF@?$CFd?$AA@
	mov	edx, DWORD PTR _this$[ebp]
	add	edx, 1064				; 00000428H
	push	edx
	call	_sprintf
	add	esp, 12					; 0000000cH
$LN9@ScratchPad:

; 796  : 			}
; 797  : 		}
; 798  : 	}
; 799  : 	else

	jmp	SHORT $LN8@ScratchPad
$LN30@ScratchPad:

; 800  : 		ClearString();

	mov	ecx, DWORD PTR _this$[ebp]
	call	?ClearString@ICPClass@@QAEXXZ		; ICPClass::ClearString
$LN8@ScratchPad:

; 801  : 
; 802  : 	if(IsICPSet(ICPClass::FLASH_FLAG))

	push	4096					; 00001000H
	mov	ecx, DWORD PTR _this$[ebp]
	call	?IsICPSet@ICPClass@@QAEHH@Z		; ICPClass::IsICPSet
	test	eax, eax
	je	$LN7@ScratchPad

; 803  : 	{
; 804  : 		if(flash)

	mov	eax, DWORD PTR _this$[ebp]
	cmp	DWORD PTR [eax+752], 0
	je	SHORT $LN6@ScratchPad

; 805  : 		{
; 806  : 			//Visible
; 807  : 			FillDEDMatrix(Line, Start+1,InputString);

	push	0
	mov	ecx, DWORD PTR _this$[ebp]
	add	ecx, 1064				; 00000428H
	push	ecx
	mov	edx, DWORD PTR _Start$[ebp]
	add	edx, 1
	push	edx
	mov	eax, DWORD PTR _Line$[ebp]
	push	eax
	mov	ecx, DWORD PTR _this$[ebp]
	call	?FillDEDMatrix@ICPClass@@QAEXHHPADH@Z	; ICPClass::FillDEDMatrix

; 808  : 			FillDEDMatrix(Line,Start,"\x02",2);

	push	2
	push	OFFSET ??_C@_01IMBAIPIC@?$AC?$AA@
	mov	ecx, DWORD PTR _Start$[ebp]
	push	ecx
	mov	edx, DWORD PTR _Line$[ebp]
	push	edx
	mov	ecx, DWORD PTR _this$[ebp]
	call	?FillDEDMatrix@ICPClass@@QAEXHHPADH@Z	; ICPClass::FillDEDMatrix

; 809  : 			FillDEDMatrix(Line,End,"\x02",2);

	push	2
	push	OFFSET ??_C@_01IMBAIPIC@?$AC?$AA@
	mov	eax, DWORD PTR _End$[ebp]
	push	eax
	mov	ecx, DWORD PTR _Line$[ebp]
	push	ecx
	mov	ecx, DWORD PTR _this$[ebp]
	call	?FillDEDMatrix@ICPClass@@QAEXHHPADH@Z	; ICPClass::FillDEDMatrix

; 810  : 			MakeInverted(Line, Start+1, End);

	mov	edx, DWORD PTR _End$[ebp]
	push	edx
	mov	eax, DWORD PTR _Start$[ebp]
	add	eax, 1
	push	eax
	mov	ecx, DWORD PTR _Line$[ebp]
	push	ecx
	mov	ecx, DWORD PTR _this$[ebp]
	call	?MakeInverted@ICPClass@@QAEXHHH@Z	; ICPClass::MakeInverted

; 811  : 		}
; 812  : 		else

	jmp	$LN5@ScratchPad
$LN6@ScratchPad:

; 813  : 		{
; 814  : 			//Don't draw anything
; 815  : 			ClearString();

	mov	ecx, DWORD PTR _this$[ebp]
	call	?ClearString@ICPClass@@QAEXXZ		; ICPClass::ClearString

; 816  : 			//Limit our string lenght
; 817  : 			InputString[End - (Start+1)] = '\0';

	mov	edx, DWORD PTR _Start$[ebp]
	add	edx, 1
	mov	eax, DWORD PTR _End$[ebp]
	sub	eax, edx
	mov	ecx, DWORD PTR _this$[ebp]
	mov	BYTE PTR [ecx+eax+1064], 0

; 818  : 			FillDEDMatrix(Line, Start+1, InputString);

	push	0
	mov	edx, DWORD PTR _this$[ebp]
	add	edx, 1064				; 00000428H
	push	edx
	mov	eax, DWORD PTR _Start$[ebp]
	add	eax, 1
	push	eax
	mov	ecx, DWORD PTR _Line$[ebp]
	push	ecx
	mov	ecx, DWORD PTR _this$[ebp]
	call	?FillDEDMatrix@ICPClass@@QAEXHHPADH@Z	; ICPClass::FillDEDMatrix

; 819  : 			FillDEDMatrix(Line,Start,"\x02",2);

	push	2
	push	OFFSET ??_C@_01IMBAIPIC@?$AC?$AA@
	mov	edx, DWORD PTR _Start$[ebp]
	push	edx
	mov	eax, DWORD PTR _Line$[ebp]
	push	eax
	mov	ecx, DWORD PTR _this$[ebp]
	call	?FillDEDMatrix@ICPClass@@QAEXHHPADH@Z	; ICPClass::FillDEDMatrix

; 820  : 			FillDEDMatrix(Line,End,"\x02",2);

	push	2
	push	OFFSET ??_C@_01IMBAIPIC@?$AC?$AA@
	mov	ecx, DWORD PTR _End$[ebp]
	push	ecx
	mov	edx, DWORD PTR _Line$[ebp]
	push	edx
	mov	ecx, DWORD PTR _this$[ebp]
	call	?FillDEDMatrix@ICPClass@@QAEXHHPADH@Z	; ICPClass::FillDEDMatrix

; 821  : 			ClearInverted(Line, Start+1, End);

	mov	eax, DWORD PTR _End$[ebp]
	push	eax
	mov	ecx, DWORD PTR _Start$[ebp]
	add	ecx, 1
	push	ecx
	mov	edx, DWORD PTR _Line$[ebp]
	push	edx
	mov	ecx, DWORD PTR _this$[ebp]
	call	?ClearInverted@ICPClass@@QAEXHHH@Z	; ICPClass::ClearInverted
$LN5@ScratchPad:

; 822  : 		}
; 823  : 	}
; 824  : 	else

	jmp	$LN1@ScratchPad
$LN7@ScratchPad:

; 825  : 	{
; 826  : 		FillDEDMatrix(Line, (End - strlen(InputString)), InputString);

	push	0
	mov	eax, DWORD PTR _this$[ebp]
	add	eax, 1064				; 00000428H
	push	eax
	mov	ecx, DWORD PTR _this$[ebp]
	add	ecx, 1064				; 00000428H
	push	ecx
	call	_strlen
	add	esp, 4
	mov	edx, DWORD PTR _End$[ebp]
	sub	edx, eax
	push	edx
	mov	eax, DWORD PTR _Line$[ebp]
	push	eax
	mov	ecx, DWORD PTR _this$[ebp]
	call	?FillDEDMatrix@ICPClass@@QAEXHHPADH@Z	; ICPClass::FillDEDMatrix

; 827  : 		FillDEDMatrix(Line,Start,"\x02",2);

	push	2
	push	OFFSET ??_C@_01IMBAIPIC@?$AC?$AA@
	mov	ecx, DWORD PTR _Start$[ebp]
	push	ecx
	mov	edx, DWORD PTR _Line$[ebp]
	push	edx
	mov	ecx, DWORD PTR _this$[ebp]
	call	?FillDEDMatrix@ICPClass@@QAEXHHPADH@Z	; ICPClass::FillDEDMatrix

; 828  : 		FillDEDMatrix(Line,End,"\x02",2);

	push	2
	push	OFFSET ??_C@_01IMBAIPIC@?$AC?$AA@
	mov	eax, DWORD PTR _End$[ebp]
	push	eax
	mov	ecx, DWORD PTR _Line$[ebp]
	push	ecx
	mov	ecx, DWORD PTR _this$[ebp]
	call	?FillDEDMatrix@ICPClass@@QAEXHHPADH@Z	; ICPClass::FillDEDMatrix

; 829  : 		if(Manual_Input ||  IsSelected)

	mov	edx, DWORD PTR _this$[ebp]
	movzx	eax, BYTE PTR [edx+732]
	test	eax, eax
	jne	SHORT $LN2@ScratchPad
	mov	ecx, DWORD PTR _this$[ebp]
	movzx	edx, BYTE PTR [ecx+731]
	test	edx, edx
	je	SHORT $LN3@ScratchPad
$LN2@ScratchPad:

; 830  : 		{
; 831  : 			MakeInverted(Line, Start, End);

	mov	eax, DWORD PTR _End$[ebp]
	push	eax
	mov	ecx, DWORD PTR _Start$[ebp]
	push	ecx
	mov	edx, DWORD PTR _Line$[ebp]
	push	edx
	mov	ecx, DWORD PTR _this$[ebp]
	call	?MakeInverted@ICPClass@@QAEXHHH@Z	; ICPClass::MakeInverted

; 832  : 		}
; 833  : 		else

	jmp	SHORT $LN1@ScratchPad
$LN3@ScratchPad:

; 834  : 			ClearInverted(Line, Start+1, End-1);

	mov	eax, DWORD PTR _End$[ebp]
	sub	eax, 1
	push	eax
	mov	ecx, DWORD PTR _Start$[ebp]
	add	ecx, 1
	push	ecx
	mov	edx, DWORD PTR _Line$[ebp]
	push	edx
	mov	ecx, DWORD PTR _this$[ebp]
	call	?ClearInverted@ICPClass@@QAEXHHH@Z	; ICPClass::ClearInverted
$LN1@ScratchPad:

; 835  : 	}
; 836  : }

	mov	ecx, DWORD PTR __$ArrayPad$[ebp]
	xor	ecx, ebp
	call	@__security_check_cookie@4
	mov	esp, ebp
	pop	ebp
	ret	12					; 0000000cH
?ScratchPad@ICPClass@@QAEXHHH@Z ENDP			; ICPClass::ScratchPad
_TEXT	ENDS
; Function compile flags: /Odtp
; File c:\program files (x86)\microsoft visual studio 11.0\vc\include\xstring
;	COMDAT ?_Xran@?$basic_string@DU?$char_traits@D@std@@V?$allocator@D@2@@std@@QBEXXZ
_TEXT	SEGMENT
_this$ = -4						; size = 4
?_Xran@?$basic_string@DU?$char_traits@D@std@@V?$allocator@D@2@@std@@QBEXXZ PROC ; std::basic_string<char,std::char_traits<char>,std::allocator<char> >::_Xran, COMDAT
; _this$ = ecx

; 2275 : 		{	// report an out_of_range error

	push	ebp
	mov	ebp, esp
	push	ecx
	mov	DWORD PTR _this$[ebp], ecx

; 2276 : 		_Xout_of_range("invalid string position");

	push	OFFSET ??_C@_0BI@CFPLBAOH@invalid?5string?5position?$AA@
	call	?_Xout_of_range@std@@YAXPBD@Z		; std::_Xout_of_range
$LN2@Xran:

; 2277 : 		}

	mov	esp, ebp
	pop	ebp
	ret	0
?_Xran@?$basic_string@DU?$char_traits@D@std@@V?$allocator@D@2@@std@@QBEXXZ ENDP ; std::basic_string<char,std::char_traits<char>,std::allocator<char> >::_Xran
_TEXT	ENDS
; Function compile flags: /Odtp
; File c:\program files (x86)\microsoft visual studio 11.0\vc\include\xstring
;	COMDAT ?_Xlen@?$basic_string@DU?$char_traits@D@std@@V?$allocator@D@2@@std@@QBEXXZ
_TEXT	SEGMENT
_this$ = -4						; size = 4
?_Xlen@?$basic_string@DU?$char_traits@D@std@@V?$allocator@D@2@@std@@QBEXXZ PROC ; std::basic_string<char,std::char_traits<char>,std::allocator<char> >::_Xlen, COMDAT
; _this$ = ecx

; 2270 : 		{	// report a length_error

	push	ebp
	mov	ebp, esp
	push	ecx
	mov	DWORD PTR _this$[ebp], ecx

; 2271 : 		_Xlength_error("string too long");

	push	OFFSET ??_C@_0BA@JFNIOLAK@string?5too?5long?$AA@
	call	?_Xlength_error@std@@YAXPBD@Z		; std::_Xlength_error
$LN2@Xlen:

; 2272 : 		}

	mov	esp, ebp
	pop	ebp
	ret	0
?_Xlen@?$basic_string@DU?$char_traits@D@std@@V?$allocator@D@2@@std@@QBEXXZ ENDP ; std::basic_string<char,std::char_traits<char>,std::allocator<char> >::_Xlen
_TEXT	ENDS
; Function compile flags: /Odtp
; File c:\program files (x86)\microsoft visual studio 11.0\vc\include\xstring
;	COMDAT ?_Tidy@?$basic_string@DU?$char_traits@D@std@@V?$allocator@D@2@@std@@QAEX_NI@Z
_TEXT	SEGMENT
__Ptr$1 = -12						; size = 4
_this$ = -8						; size = 4
$T2 = -2						; size = 1
$T3 = -1						; size = 1
__Built$ = 8						; size = 1
__Newsize$ = 12						; size = 4
?_Tidy@?$basic_string@DU?$char_traits@D@std@@V?$allocator@D@2@@std@@QAEX_NI@Z PROC ; std::basic_string<char,std::char_traits<char>,std::allocator<char> >::_Tidy, COMDAT
; _this$ = ecx

; 2253 : 		{	// initialize buffer, deallocating any storage

	push	ebp
	mov	ebp, esp
	sub	esp, 12					; 0000000cH
	mov	DWORD PTR _this$[ebp], ecx

; 2254 : 		if (!_Built)

	movzx	eax, BYTE PTR __Built$[ebp]
	test	eax, eax
	jne	SHORT $LN4@Tidy
	jmp	SHORT $LN3@Tidy
$LN4@Tidy:

; 2255 : 			;
; 2256 : 		else if (this->_BUF_SIZE <= this->_Myres)

	mov	ecx, DWORD PTR _this$[ebp]
	cmp	DWORD PTR [ecx+20], 16			; 00000010H
	jb	SHORT $LN3@Tidy

; 2257 : 			{	// copy any leftovers to small buffer and deallocate
; 2258 : 			pointer _Ptr = this->_Bx._Ptr;

	mov	edx, DWORD PTR _this$[ebp]
	mov	eax, DWORD PTR [edx]
	mov	DWORD PTR __Ptr$1[ebp], eax

; 2259 : 			this->_Getal().destroy(&this->_Bx._Ptr);

	mov	ecx, DWORD PTR _this$[ebp]
	push	ecx
	lea	edx, DWORD PTR $T3[ebp]
	push	edx
	mov	ecx, DWORD PTR _this$[ebp]
	call	?_Getal@?$_String_alloc@$0A@U?$_String_base_types@DV?$allocator@D@std@@@std@@@std@@QBE?AU?$_Wrap_alloc@V?$allocator@D@std@@@2@XZ ; std::_String_alloc<0,std::_String_base_types<char,std::allocator<char> > >::_Getal
	mov	ecx, eax
	call	??$destroy@PAD@?$_Wrap_alloc@V?$allocator@D@std@@@std@@QAEXPAPAD@Z ; std::_Wrap_alloc<std::allocator<char> >::destroy<char *>

; 2260 : 			if (0 < _Newsize)

	cmp	DWORD PTR __Newsize$[ebp], 0
	jbe	SHORT $LN1@Tidy

; 2261 : 				_Traits::copy(this->_Bx._Buf,
; 2262 : 					_STD addressof(*_Ptr), _Newsize);

	mov	eax, DWORD PTR __Newsize$[ebp]
	push	eax
	mov	ecx, DWORD PTR __Ptr$1[ebp]
	push	ecx
	call	??$addressof@D@std@@YAPADAAD@Z		; std::addressof<char>
	add	esp, 4
	push	eax
	mov	edx, DWORD PTR _this$[ebp]
	push	edx
	call	?copy@?$char_traits@D@std@@SAPADPADPBDI@Z ; std::char_traits<char>::copy
	add	esp, 12					; 0000000cH
$LN1@Tidy:

; 2263 : 			this->_Getal().deallocate(_Ptr, this->_Myres + 1);

	mov	eax, DWORD PTR _this$[ebp]
	mov	ecx, DWORD PTR [eax+20]
	add	ecx, 1
	push	ecx
	mov	edx, DWORD PTR __Ptr$1[ebp]
	push	edx
	lea	eax, DWORD PTR $T2[ebp]
	push	eax
	mov	ecx, DWORD PTR _this$[ebp]
	call	?_Getal@?$_String_alloc@$0A@U?$_String_base_types@DV?$allocator@D@std@@@std@@@std@@QBE?AU?$_Wrap_alloc@V?$allocator@D@std@@@2@XZ ; std::_String_alloc<0,std::_String_base_types<char,std::allocator<char> > >::_Getal
	mov	ecx, eax
	call	?deallocate@?$_Wrap_alloc@V?$allocator@D@std@@@std@@QAEXPADI@Z ; std::_Wrap_alloc<std::allocator<char> >::deallocate
$LN3@Tidy:

; 2264 : 			}
; 2265 : 		this->_Myres = this->_BUF_SIZE - 1;

	mov	ecx, DWORD PTR _this$[ebp]
	mov	DWORD PTR [ecx+20], 15			; 0000000fH

; 2266 : 		_Eos(_Newsize);

	mov	edx, DWORD PTR __Newsize$[ebp]
	push	edx
	mov	ecx, DWORD PTR _this$[ebp]
	call	?_Eos@?$basic_string@DU?$char_traits@D@std@@V?$allocator@D@2@@std@@QAEXI@Z ; std::basic_string<char,std::char_traits<char>,std::allocator<char> >::_Eos

; 2267 : 		}

	mov	esp, ebp
	pop	ebp
	ret	8
?_Tidy@?$basic_string@DU?$char_traits@D@std@@V?$allocator@D@2@@std@@QAEX_NI@Z ENDP ; std::basic_string<char,std::char_traits<char>,std::allocator<char> >::_Tidy
_TEXT	ENDS
; Function compile flags: /Odtp
; File c:\program files (x86)\microsoft visual studio 11.0\vc\include\xstring
;	COMDAT ?_Inside@?$basic_string@DU?$char_traits@D@std@@V?$allocator@D@2@@std@@QAE_NPBD@Z
_TEXT	SEGMENT
_this$ = -4						; size = 4
__Ptr$ = 8						; size = 4
?_Inside@?$basic_string@DU?$char_traits@D@std@@V?$allocator@D@2@@std@@QAE_NPBD@Z PROC ; std::basic_string<char,std::char_traits<char>,std::allocator<char> >::_Inside, COMDAT
; _this$ = ecx

; 2237 : 		{	// test if _Ptr points inside string

	push	ebp
	mov	ebp, esp
	push	ecx
	mov	DWORD PTR _this$[ebp], ecx

; 2238 : 		if (_Ptr == 0 || _Ptr < this->_Myptr()
; 2239 : 			|| this->_Myptr() + this->_Mysize <= _Ptr)

	cmp	DWORD PTR __Ptr$[ebp], 0
	je	SHORT $LN2@Inside
	mov	ecx, DWORD PTR _this$[ebp]
	call	?_Myptr@?$_String_val@U?$_Simple_types@D@std@@@std@@QAEPADXZ ; std::_String_val<std::_Simple_types<char> >::_Myptr
	cmp	DWORD PTR __Ptr$[ebp], eax
	jb	SHORT $LN2@Inside
	mov	ecx, DWORD PTR _this$[ebp]
	call	?_Myptr@?$_String_val@U?$_Simple_types@D@std@@@std@@QAEPADXZ ; std::_String_val<std::_Simple_types<char> >::_Myptr
	mov	ecx, DWORD PTR _this$[ebp]
	add	eax, DWORD PTR [ecx+16]
	cmp	eax, DWORD PTR __Ptr$[ebp]
	ja	SHORT $LN3@Inside
$LN2@Inside:

; 2240 : 			return (false);	// don't ask

	xor	al, al
	jmp	SHORT $LN4@Inside

; 2241 : 		else

	jmp	SHORT $LN4@Inside
$LN3@Inside:

; 2242 : 			return (true);

	mov	al, 1
$LN4@Inside:

; 2243 : 		}

	mov	esp, ebp
	pop	ebp
	ret	4
?_Inside@?$basic_string@DU?$char_traits@D@std@@V?$allocator@D@2@@std@@QAE_NPBD@Z ENDP ; std::basic_string<char,std::char_traits<char>,std::allocator<char> >::_Inside
_TEXT	ENDS
; Function compile flags: /Odtp
; File c:\program files (x86)\microsoft visual studio 11.0\vc\include\xstring
;	COMDAT ?_Grow@?$basic_string@DU?$char_traits@D@std@@V?$allocator@D@2@@std@@QAE_NI_N@Z
_TEXT	SEGMENT
tv136 = -12						; size = 4
tv129 = -8						; size = 4
_this$ = -4						; size = 4
__Newsize$ = 8						; size = 4
__Trim$ = 12						; size = 1
?_Grow@?$basic_string@DU?$char_traits@D@std@@V?$allocator@D@2@@std@@QAE_NI_N@Z PROC ; std::basic_string<char,std::char_traits<char>,std::allocator<char> >::_Grow, COMDAT
; _this$ = ecx

; 2223 : 		{	// ensure buffer is big enough, trim to size if _Trim is true

	push	ebp
	mov	ebp, esp
	sub	esp, 12					; 0000000cH
	mov	DWORD PTR _this$[ebp], ecx

; 2224 : 		if (max_size() < _Newsize)

	mov	ecx, DWORD PTR _this$[ebp]
	call	?max_size@?$basic_string@DU?$char_traits@D@std@@V?$allocator@D@2@@std@@QBEIXZ ; std::basic_string<char,std::char_traits<char>,std::allocator<char> >::max_size
	cmp	eax, DWORD PTR __Newsize$[ebp]
	jae	SHORT $LN6@Grow

; 2225 : 			_Xlen();	// result too long

	mov	ecx, DWORD PTR _this$[ebp]
	call	?_Xlen@?$basic_string@DU?$char_traits@D@std@@V?$allocator@D@2@@std@@QBEXXZ ; std::basic_string<char,std::char_traits<char>,std::allocator<char> >::_Xlen
$LN6@Grow:

; 2226 : 		if (this->_Myres < _Newsize)

	mov	eax, DWORD PTR _this$[ebp]
	mov	ecx, DWORD PTR [eax+20]
	cmp	ecx, DWORD PTR __Newsize$[ebp]
	jae	SHORT $LN5@Grow

; 2227 : 			_Copy(_Newsize, this->_Mysize);	// reallocate to grow

	mov	edx, DWORD PTR _this$[ebp]
	mov	eax, DWORD PTR [edx+16]
	push	eax
	mov	ecx, DWORD PTR __Newsize$[ebp]
	push	ecx
	mov	ecx, DWORD PTR _this$[ebp]
	call	?_Copy@?$basic_string@DU?$char_traits@D@std@@V?$allocator@D@2@@std@@QAEXII@Z ; std::basic_string<char,std::char_traits<char>,std::allocator<char> >::_Copy
	jmp	SHORT $LN4@Grow
$LN5@Grow:

; 2228 : 		else if (_Trim && _Newsize < this->_BUF_SIZE)

	movzx	edx, BYTE PTR __Trim$[ebp]
	test	edx, edx
	je	SHORT $LN3@Grow
	cmp	DWORD PTR __Newsize$[ebp], 16		; 00000010H
	jae	SHORT $LN3@Grow

; 2229 : 			_Tidy(true,	// copy and deallocate if trimming to small string
; 2230 : 				_Newsize < this->_Mysize ? _Newsize : this->_Mysize);

	mov	eax, DWORD PTR _this$[ebp]
	mov	ecx, DWORD PTR __Newsize$[ebp]
	cmp	ecx, DWORD PTR [eax+16]
	jae	SHORT $LN9@Grow
	mov	edx, DWORD PTR __Newsize$[ebp]
	mov	DWORD PTR tv129[ebp], edx
	jmp	SHORT $LN10@Grow
$LN9@Grow:
	mov	eax, DWORD PTR _this$[ebp]
	mov	ecx, DWORD PTR [eax+16]
	mov	DWORD PTR tv129[ebp], ecx
$LN10@Grow:
	mov	edx, DWORD PTR tv129[ebp]
	push	edx
	push	1
	mov	ecx, DWORD PTR _this$[ebp]
	call	?_Tidy@?$basic_string@DU?$char_traits@D@std@@V?$allocator@D@2@@std@@QAEX_NI@Z ; std::basic_string<char,std::char_traits<char>,std::allocator<char> >::_Tidy
	jmp	SHORT $LN4@Grow
$LN3@Grow:

; 2231 : 		else if (_Newsize == 0)

	cmp	DWORD PTR __Newsize$[ebp], 0
	jne	SHORT $LN4@Grow

; 2232 : 			_Eos(0);	// new size is zero, just null terminate

	push	0
	mov	ecx, DWORD PTR _this$[ebp]
	call	?_Eos@?$basic_string@DU?$char_traits@D@std@@V?$allocator@D@2@@std@@QAEXI@Z ; std::basic_string<char,std::char_traits<char>,std::allocator<char> >::_Eos
$LN4@Grow:

; 2233 : 		return (0 < _Newsize);	// return true only if more work to do

	cmp	DWORD PTR __Newsize$[ebp], 0
	jbe	SHORT $LN11@Grow
	mov	DWORD PTR tv136[ebp], 1
	jmp	SHORT $LN12@Grow
$LN11@Grow:
	mov	DWORD PTR tv136[ebp], 0
$LN12@Grow:
	mov	al, BYTE PTR tv136[ebp]
$LN8@Grow:

; 2234 : 		}

	mov	esp, ebp
	pop	ebp
	ret	8
?_Grow@?$basic_string@DU?$char_traits@D@std@@V?$allocator@D@2@@std@@QAE_NI_N@Z ENDP ; std::basic_string<char,std::char_traits<char>,std::allocator<char> >::_Grow
_TEXT	ENDS
; Function compile flags: /Odtp
; File c:\program files (x86)\microsoft visual studio 11.0\vc\include\xstring
;	COMDAT ?_Eos@?$basic_string@DU?$char_traits@D@std@@V?$allocator@D@2@@std@@QAEXI@Z
_TEXT	SEGMENT
_this$ = -8						; size = 4
$T1 = -1						; size = 1
__Newsize$ = 8						; size = 4
?_Eos@?$basic_string@DU?$char_traits@D@std@@V?$allocator@D@2@@std@@QAEXI@Z PROC ; std::basic_string<char,std::char_traits<char>,std::allocator<char> >::_Eos, COMDAT
; _this$ = ecx

; 2217 : 		{	// set new length and null terminator

	push	ebp
	mov	ebp, esp
	sub	esp, 8
	mov	DWORD PTR _this$[ebp], ecx

; 2218 : 		_Traits::assign(this->_Myptr()[this->_Mysize = _Newsize], _Elem());

	mov	BYTE PTR $T1[ebp], 0
	mov	eax, DWORD PTR _this$[ebp]
	mov	ecx, DWORD PTR __Newsize$[ebp]
	mov	DWORD PTR [eax+16], ecx
	lea	edx, DWORD PTR $T1[ebp]
	push	edx
	mov	ecx, DWORD PTR _this$[ebp]
	call	?_Myptr@?$_String_val@U?$_Simple_types@D@std@@@std@@QAEPADXZ ; std::_String_val<std::_Simple_types<char> >::_Myptr
	add	eax, DWORD PTR __Newsize$[ebp]
	push	eax
	call	?assign@?$char_traits@D@std@@SAXAADABD@Z ; std::char_traits<char>::assign
	add	esp, 8

; 2219 : 		}

	mov	esp, ebp
	pop	ebp
	ret	4
?_Eos@?$basic_string@DU?$char_traits@D@std@@V?$allocator@D@2@@std@@QAEXI@Z ENDP ; std::basic_string<char,std::char_traits<char>,std::allocator<char> >::_Eos
_TEXT	ENDS
; Function compile flags: /Odtp
; File c:\program files (x86)\microsoft visual studio 11.0\vc\include\xstring
;	COMDAT ?_Copy@?$basic_string@DU?$char_traits@D@std@@V?$allocator@D@2@@std@@QAEXII@Z
_TEXT	SEGMENT
tv205 = -48						; size = 4
tv204 = -44						; size = 4
tv203 = -40						; size = 4
tv202 = -36						; size = 4
__Ptr$ = -32						; size = 4
__Newres$ = -28						; size = 4
_this$ = -24						; size = 4
$T2 = -19						; size = 1
$T3 = -18						; size = 1
$T4 = -17						; size = 1
__$EHRec$ = -16						; size = 16
__Newsize$ = 8						; size = 4
__Oldlen$ = 12						; size = 4
?_Copy@?$basic_string@DU?$char_traits@D@std@@V?$allocator@D@2@@std@@QAEXII@Z PROC ; std::basic_string<char,std::char_traits<char>,std::allocator<char> >::_Copy, COMDAT
; _this$ = ecx

; 2182 : 		{	// copy _Oldlen elements to newly allocated buffer

	push	ebp
	mov	ebp, esp
	push	-1
	push	__ehhandler$?_Copy@?$basic_string@DU?$char_traits@D@std@@V?$allocator@D@2@@std@@QAEXII@Z
	mov	eax, DWORD PTR fs:0
	push	eax
	push	ecx
	sub	esp, 32					; 00000020H
	push	ebx
	push	esi
	push	edi
	mov	eax, DWORD PTR ___security_cookie
	xor	eax, ebp
	push	eax
	lea	eax, DWORD PTR __$EHRec$[ebp+4]
	mov	DWORD PTR fs:0, eax
	mov	DWORD PTR __$EHRec$[ebp], esp
	mov	DWORD PTR _this$[ebp], ecx

; 2183 : 		size_type _Newres = _Newsize | this->_ALLOC_MASK;

	mov	eax, DWORD PTR __Newsize$[ebp]
	or	eax, 15					; 0000000fH
	mov	DWORD PTR __Newres$[ebp], eax

; 2184 : 		if (max_size() < _Newres)

	mov	ecx, DWORD PTR _this$[ebp]
	call	?max_size@?$basic_string@DU?$char_traits@D@std@@V?$allocator@D@2@@std@@QBEIXZ ; std::basic_string<char,std::char_traits<char>,std::allocator<char> >::max_size
	cmp	eax, DWORD PTR __Newres$[ebp]
	jae	SHORT $LN9@Copy

; 2185 : 			_Newres = _Newsize;	// undo roundup if too big

	mov	ecx, DWORD PTR __Newsize$[ebp]
	mov	DWORD PTR __Newres$[ebp], ecx
	jmp	SHORT $LN8@Copy
$LN9@Copy:

; 2186 : 		else if (this->_Myres / 2 <= _Newres / 3)

	mov	eax, DWORD PTR __Newres$[ebp]
	xor	edx, edx
	mov	ecx, 3
	div	ecx
	mov	edx, DWORD PTR _this$[ebp]
	mov	ecx, DWORD PTR [edx+20]
	shr	ecx, 1
	cmp	ecx, eax
	ja	SHORT $LN7@Copy
	jmp	SHORT $LN8@Copy
$LN7@Copy:

; 2187 : 			;
; 2188 : 		else if (this->_Myres <= max_size() - this->_Myres / 2)

	mov	edx, DWORD PTR _this$[ebp]
	mov	esi, DWORD PTR [edx+20]
	shr	esi, 1
	mov	ecx, DWORD PTR _this$[ebp]
	call	?max_size@?$basic_string@DU?$char_traits@D@std@@V?$allocator@D@2@@std@@QBEIXZ ; std::basic_string<char,std::char_traits<char>,std::allocator<char> >::max_size
	sub	eax, esi
	mov	ecx, DWORD PTR _this$[ebp]
	cmp	DWORD PTR [ecx+20], eax
	ja	SHORT $LN5@Copy

; 2189 : 			_Newres = this->_Myres
; 2190 : 				+ this->_Myres / 2;	// grow exponentially if possible

	mov	edx, DWORD PTR _this$[ebp]
	mov	eax, DWORD PTR [edx+20]
	shr	eax, 1
	mov	ecx, DWORD PTR _this$[ebp]
	add	eax, DWORD PTR [ecx+20]
	mov	DWORD PTR __Newres$[ebp], eax

; 2191 : 		else

	jmp	SHORT $LN8@Copy
$LN5@Copy:

; 2192 : 			_Newres = max_size();	// settle for max_size()

	mov	ecx, DWORD PTR _this$[ebp]
	call	?max_size@?$basic_string@DU?$char_traits@D@std@@V?$allocator@D@2@@std@@QBEIXZ ; std::basic_string<char,std::char_traits<char>,std::allocator<char> >::max_size
	mov	DWORD PTR __Newres$[ebp], eax
$LN8@Copy:

; 2193 : 
; 2194 : 		_Elem *_Ptr;
; 2195 : 		_TRY_BEGIN

	mov	DWORD PTR __$EHRec$[ebp+12], 0

; 2196 : 			_Ptr = this->_Getal().allocate(_Newres + 1);

	lea	edx, DWORD PTR $T4[ebp]
	push	edx
	mov	ecx, DWORD PTR _this$[ebp]
	call	?_Getal@?$_String_alloc@$0A@U?$_String_base_types@DV?$allocator@D@std@@@std@@@std@@QBE?AU?$_Wrap_alloc@V?$allocator@D@std@@@2@XZ ; std::_String_alloc<0,std::_String_base_types<char,std::allocator<char> > >::_Getal
	mov	DWORD PTR tv202[ebp], eax
	mov	eax, DWORD PTR __Newres$[ebp]
	add	eax, 1
	push	eax
	mov	ecx, DWORD PTR tv202[ebp]
	call	?allocate@?$_Wrap_alloc@V?$allocator@D@std@@@std@@QAEPADI@Z ; std::_Wrap_alloc<std::allocator<char> >::allocate
	mov	DWORD PTR tv203[ebp], eax
	mov	ecx, DWORD PTR tv203[ebp]
	mov	DWORD PTR __Ptr$[ebp], ecx
	jmp	SHORT $LN12@Copy
__catch$?_Copy@?$basic_string@DU?$char_traits@D@std@@V?$allocator@D@2@@std@@QAEXII@Z$0:

; 2197 : 		_CATCH_ALL

	mov	DWORD PTR __$EHRec$[ebp], esp

; 2198 : 			_Newres = _Newsize;	// allocation failed, undo roundup and retry

	mov	edx, DWORD PTR __Newsize$[ebp]
	mov	DWORD PTR __Newres$[ebp], edx

; 2199 : 			_TRY_BEGIN

	mov	BYTE PTR __$EHRec$[ebp+12], 2

; 2200 : 				_Ptr = this->_Getal().allocate(_Newres + 1);

	lea	eax, DWORD PTR $T3[ebp]
	push	eax
	mov	ecx, DWORD PTR _this$[ebp]
	call	?_Getal@?$_String_alloc@$0A@U?$_String_base_types@DV?$allocator@D@std@@@std@@@std@@QBE?AU?$_Wrap_alloc@V?$allocator@D@std@@@2@XZ ; std::_String_alloc<0,std::_String_base_types<char,std::allocator<char> > >::_Getal
	mov	DWORD PTR tv204[ebp], eax
	mov	ecx, DWORD PTR __Newres$[ebp]
	add	ecx, 1
	push	ecx
	mov	ecx, DWORD PTR tv204[ebp]
	call	?allocate@?$_Wrap_alloc@V?$allocator@D@std@@@std@@QAEPADI@Z ; std::_Wrap_alloc<std::allocator<char> >::allocate
	mov	DWORD PTR tv205[ebp], eax
	mov	edx, DWORD PTR tv205[ebp]
	mov	DWORD PTR __Ptr$[ebp], edx
	jmp	SHORT $LN14@Copy
__catch$?_Copy@?$basic_string@DU?$char_traits@D@std@@V?$allocator@D@2@@std@@QAEXII@Z$1:

; 2201 : 			_CATCH_ALL
; 2202 : 			_Tidy(true);	// failed again, discard storage and reraise

	push	0
	push	1
	mov	ecx, DWORD PTR _this$[ebp]
	call	?_Tidy@?$basic_string@DU?$char_traits@D@std@@V?$allocator@D@2@@std@@QAEX_NI@Z ; std::basic_string<char,std::char_traits<char>,std::allocator<char> >::_Tidy

; 2203 : 			_RERAISE;

	push	0
	push	0
	call	__CxxThrowException@8

; 2204 : 			_CATCH_END

	mov	eax, $LN17@Copy
	ret	0
$LN14@Copy:
	mov	DWORD PTR __$EHRec$[ebp+12], 1
	jmp	SHORT __tryend$?_Copy@?$basic_string@DU?$char_traits@D@std@@V?$allocator@D@2@@std@@QAEXII@Z$2
$LN17@Copy:
	mov	DWORD PTR __$EHRec$[ebp+12], 1
__tryend$?_Copy@?$basic_string@DU?$char_traits@D@std@@V?$allocator@D@2@@std@@QAEXII@Z$2:

; 2205 : 		_CATCH_END

	mov	eax, $LN19@Copy
	ret	0
$LN12@Copy:
	mov	DWORD PTR __$EHRec$[ebp+12], -1
	jmp	SHORT __tryend$?_Copy@?$basic_string@DU?$char_traits@D@std@@V?$allocator@D@2@@std@@QAEXII@Z$3
$LN19@Copy:
	mov	DWORD PTR __$EHRec$[ebp+12], -1
__tryend$?_Copy@?$basic_string@DU?$char_traits@D@std@@V?$allocator@D@2@@std@@QAEXII@Z$3:

; 2206 : 
; 2207 : 		if (0 < _Oldlen)

	cmp	DWORD PTR __Oldlen$[ebp], 0
	jbe	SHORT $LN1@Copy

; 2208 : 			_Traits::copy(_Ptr, this->_Myptr(),
; 2209 : 				_Oldlen);	// copy existing elements

	mov	eax, DWORD PTR __Oldlen$[ebp]
	push	eax
	mov	ecx, DWORD PTR _this$[ebp]
	call	?_Myptr@?$_String_val@U?$_Simple_types@D@std@@@std@@QAEPADXZ ; std::_String_val<std::_Simple_types<char> >::_Myptr
	push	eax
	mov	ecx, DWORD PTR __Ptr$[ebp]
	push	ecx
	call	?copy@?$char_traits@D@std@@SAPADPADPBDI@Z ; std::char_traits<char>::copy
	add	esp, 12					; 0000000cH
$LN1@Copy:

; 2210 : 		_Tidy(true);

	push	0
	push	1
	mov	ecx, DWORD PTR _this$[ebp]
	call	?_Tidy@?$basic_string@DU?$char_traits@D@std@@V?$allocator@D@2@@std@@QAEX_NI@Z ; std::basic_string<char,std::char_traits<char>,std::allocator<char> >::_Tidy

; 2211 : 		this->_Getal().construct(&this->_Bx._Ptr, _Ptr);

	lea	edx, DWORD PTR __Ptr$[ebp]
	push	edx
	mov	eax, DWORD PTR _this$[ebp]
	push	eax
	lea	ecx, DWORD PTR $T2[ebp]
	push	ecx
	mov	ecx, DWORD PTR _this$[ebp]
	call	?_Getal@?$_String_alloc@$0A@U?$_String_base_types@DV?$allocator@D@std@@@std@@@std@@QBE?AU?$_Wrap_alloc@V?$allocator@D@std@@@2@XZ ; std::_String_alloc<0,std::_String_base_types<char,std::allocator<char> > >::_Getal
	mov	ecx, eax
	call	??$construct@PADAAPAD@?$_Wrap_alloc@V?$allocator@D@std@@@std@@QAEXPAPADAAPAD@Z ; std::_Wrap_alloc<std::allocator<char> >::construct<char *,char * &>

; 2212 : 		this->_Myres = _Newres;

	mov	edx, DWORD PTR _this$[ebp]
	mov	eax, DWORD PTR __Newres$[ebp]
	mov	DWORD PTR [edx+20], eax

; 2213 : 		_Eos(_Oldlen);

	mov	ecx, DWORD PTR __Oldlen$[ebp]
	push	ecx
	mov	ecx, DWORD PTR _this$[ebp]
	call	?_Eos@?$basic_string@DU?$char_traits@D@std@@V?$allocator@D@2@@std@@QAEXI@Z ; std::basic_string<char,std::char_traits<char>,std::allocator<char> >::_Eos
$LN11@Copy:

; 2214 : 		}

	mov	ecx, DWORD PTR __$EHRec$[ebp+4]
	mov	DWORD PTR fs:0, ecx
	pop	ecx
	pop	edi
	pop	esi
	pop	ebx
	mov	esp, ebp
	pop	ebp
	ret	8
_TEXT	ENDS
;	COMDAT text$x
text$x	SEGMENT
__ehhandler$?_Copy@?$basic_string@DU?$char_traits@D@std@@V?$allocator@D@2@@std@@QAEXII@Z:
	mov	edx, DWORD PTR [esp+8]
	lea	eax, DWORD PTR [edx+12]
	mov	ecx, DWORD PTR [edx-52]
	xor	ecx, eax
	call	@__security_check_cookie@4
	mov	eax, OFFSET __ehfuncinfo$?_Copy@?$basic_string@DU?$char_traits@D@std@@V?$allocator@D@2@@std@@QAEXII@Z
	jmp	___CxxFrameHandler3
text$x	ENDS
?_Copy@?$basic_string@DU?$char_traits@D@std@@V?$allocator@D@2@@std@@QAEXII@Z ENDP ; std::basic_string<char,std::char_traits<char>,std::allocator<char> >::_Copy
; Function compile flags: /Odtp
; File c:\program files (x86)\microsoft visual studio 11.0\vc\include\xstring
;	COMDAT ?max_size@?$basic_string@DU?$char_traits@D@std@@V?$allocator@D@2@@std@@QBEIXZ
_TEXT	SEGMENT
_this$ = -16						; size = 4
tv75 = -12						; size = 4
__Num$ = -8						; size = 4
$T1 = -1						; size = 1
?max_size@?$basic_string@DU?$char_traits@D@std@@V?$allocator@D@2@@std@@QBEIXZ PROC ; std::basic_string<char,std::char_traits<char>,std::allocator<char> >::max_size, COMDAT
; _this$ = ecx

; 1737 : 		{	// return maximum possible length of sequence

	push	ebp
	mov	ebp, esp
	sub	esp, 16					; 00000010H
	mov	DWORD PTR _this$[ebp], ecx

; 1738 : 		size_type _Num = this->_Getal().max_size();

	lea	eax, DWORD PTR $T1[ebp]
	push	eax
	mov	ecx, DWORD PTR _this$[ebp]
	call	?_Getal@?$_String_alloc@$0A@U?$_String_base_types@DV?$allocator@D@std@@@std@@@std@@QBE?AU?$_Wrap_alloc@V?$allocator@D@std@@@2@XZ ; std::_String_alloc<0,std::_String_base_types<char,std::allocator<char> > >::_Getal
	mov	ecx, eax
	call	?max_size@?$_Wrap_alloc@V?$allocator@D@std@@@std@@QBEIXZ ; std::_Wrap_alloc<std::allocator<char> >::max_size
	mov	DWORD PTR __Num$[ebp], eax

; 1739 : 		return (_Num <= 1 ? 1 : _Num - 1);

	cmp	DWORD PTR __Num$[ebp], 1
	ja	SHORT $LN3@max_size
	mov	DWORD PTR tv75[ebp], 1
	jmp	SHORT $LN4@max_size
$LN3@max_size:
	mov	ecx, DWORD PTR __Num$[ebp]
	sub	ecx, 1
	mov	DWORD PTR tv75[ebp], ecx
$LN4@max_size:
	mov	eax, DWORD PTR tv75[ebp]

; 1740 : 		}

	mov	esp, ebp
	pop	ebp
	ret	0
?max_size@?$basic_string@DU?$char_traits@D@std@@V?$allocator@D@2@@std@@QBEIXZ ENDP ; std::basic_string<char,std::char_traits<char>,std::allocator<char> >::max_size
_TEXT	ENDS
; Function compile flags: /Odtp
; File c:\program files (x86)\microsoft visual studio 11.0\vc\include\xstring
;	COMDAT ?size@?$basic_string@DU?$char_traits@D@std@@V?$allocator@D@2@@std@@QBEIXZ
_TEXT	SEGMENT
_this$ = -4						; size = 4
?size@?$basic_string@DU?$char_traits@D@std@@V?$allocator@D@2@@std@@QBEIXZ PROC ; std::basic_string<char,std::char_traits<char>,std::allocator<char> >::size, COMDAT
; _this$ = ecx

; 1732 : 		{	// return length of sequence

	push	ebp
	mov	ebp, esp
	push	ecx
	mov	DWORD PTR _this$[ebp], ecx

; 1733 : 		return (this->_Mysize);

	mov	eax, DWORD PTR _this$[ebp]
	mov	eax, DWORD PTR [eax+16]

; 1734 : 		}

	mov	esp, ebp
	pop	ebp
	ret	0
?size@?$basic_string@DU?$char_traits@D@std@@V?$allocator@D@2@@std@@QBEIXZ ENDP ; std::basic_string<char,std::char_traits<char>,std::allocator<char> >::size
_TEXT	ENDS
; Function compile flags: /Odtp
; File c:\program files (x86)\microsoft visual studio 11.0\vc\include\xstring
;	COMDAT ?erase@?$basic_string@DU?$char_traits@D@std@@V?$allocator@D@2@@std@@QAEAAV12@II@Z
_TEXT	SEGMENT
__Newsize$1 = -12					; size = 4
__Ptr$2 = -8						; size = 4
_this$ = -4						; size = 4
__Off$ = 8						; size = 4
__Count$ = 12						; size = 4
?erase@?$basic_string@DU?$char_traits@D@std@@V?$allocator@D@2@@std@@QAEAAV12@II@Z PROC ; std::basic_string<char,std::char_traits<char>,std::allocator<char> >::erase, COMDAT
; _this$ = ecx

; 1317 : 		{	// erase elements [_Off, _Off + _Count)

	push	ebp
	mov	ebp, esp
	sub	esp, 12					; 0000000cH
	mov	DWORD PTR _this$[ebp], ecx

; 1318 : 		if (this->_Mysize < _Off)

	mov	eax, DWORD PTR _this$[ebp]
	mov	ecx, DWORD PTR [eax+16]
	cmp	ecx, DWORD PTR __Off$[ebp]
	jae	SHORT $LN4@erase

; 1319 : 			_Xran();	// _Off off end

	mov	ecx, DWORD PTR _this$[ebp]
	call	?_Xran@?$basic_string@DU?$char_traits@D@std@@V?$allocator@D@2@@std@@QBEXXZ ; std::basic_string<char,std::char_traits<char>,std::allocator<char> >::_Xran
$LN4@erase:

; 1320 : 		if (this->_Mysize - _Off <= _Count)

	mov	edx, DWORD PTR _this$[ebp]
	mov	eax, DWORD PTR [edx+16]
	sub	eax, DWORD PTR __Off$[ebp]
	cmp	eax, DWORD PTR __Count$[ebp]
	ja	SHORT $LN3@erase

; 1321 : 			_Eos(_Off);	// erase elements [_Off, ...)

	mov	ecx, DWORD PTR __Off$[ebp]
	push	ecx
	mov	ecx, DWORD PTR _this$[ebp]
	call	?_Eos@?$basic_string@DU?$char_traits@D@std@@V?$allocator@D@2@@std@@QAEXI@Z ; std::basic_string<char,std::char_traits<char>,std::allocator<char> >::_Eos
	jmp	SHORT $LN2@erase
$LN3@erase:

; 1322 : 		else if (0 < _Count)

	cmp	DWORD PTR __Count$[ebp], 0
	jbe	SHORT $LN2@erase

; 1323 : 			{	// move elements down
; 1324 : 			value_type *_Ptr = this->_Myptr() + _Off;

	mov	ecx, DWORD PTR _this$[ebp]
	call	?_Myptr@?$_String_val@U?$_Simple_types@D@std@@@std@@QAEPADXZ ; std::_String_val<std::_Simple_types<char> >::_Myptr
	add	eax, DWORD PTR __Off$[ebp]
	mov	DWORD PTR __Ptr$2[ebp], eax

; 1325 : 			size_type _Newsize = this->_Mysize - _Count;

	mov	edx, DWORD PTR _this$[ebp]
	mov	eax, DWORD PTR [edx+16]
	sub	eax, DWORD PTR __Count$[ebp]
	mov	DWORD PTR __Newsize$1[ebp], eax

; 1326 : 			_Traits::move(_Ptr, _Ptr + _Count, _Newsize - _Off);

	mov	ecx, DWORD PTR __Newsize$1[ebp]
	sub	ecx, DWORD PTR __Off$[ebp]
	push	ecx
	mov	edx, DWORD PTR __Ptr$2[ebp]
	add	edx, DWORD PTR __Count$[ebp]
	push	edx
	mov	eax, DWORD PTR __Ptr$2[ebp]
	push	eax
	call	?move@?$char_traits@D@std@@SAPADPADPBDI@Z ; std::char_traits<char>::move
	add	esp, 12					; 0000000cH

; 1327 : 			_Eos(_Newsize);

	mov	ecx, DWORD PTR __Newsize$1[ebp]
	push	ecx
	mov	ecx, DWORD PTR _this$[ebp]
	call	?_Eos@?$basic_string@DU?$char_traits@D@std@@V?$allocator@D@2@@std@@QAEXI@Z ; std::basic_string<char,std::char_traits<char>,std::allocator<char> >::_Eos
$LN2@erase:

; 1328 : 			}
; 1329 : 		return (*this);

	mov	eax, DWORD PTR _this$[ebp]
$LN6@erase:

; 1330 : 		}

	mov	esp, ebp
	pop	ebp
	ret	8
?erase@?$basic_string@DU?$char_traits@D@std@@V?$allocator@D@2@@std@@QAEAAV12@II@Z ENDP ; std::basic_string<char,std::char_traits<char>,std::allocator<char> >::erase
_TEXT	ENDS
; Function compile flags: /Odtp
; File c:\program files (x86)\microsoft visual studio 11.0\vc\include\xstring
;	COMDAT ?erase@?$basic_string@DU?$char_traits@D@std@@V?$allocator@D@2@@std@@QAEAAV12@I@Z
_TEXT	SEGMENT
_this$ = -4						; size = 4
__Off$ = 8						; size = 4
?erase@?$basic_string@DU?$char_traits@D@std@@V?$allocator@D@2@@std@@QAEAAV12@I@Z PROC ; std::basic_string<char,std::char_traits<char>,std::allocator<char> >::erase, COMDAT
; _this$ = ecx

; 1309 : 		{	// erase elements [_Off, ...)

	push	ebp
	mov	ebp, esp
	push	ecx
	mov	DWORD PTR _this$[ebp], ecx

; 1310 : 		if (this->_Mysize < _Off)

	mov	eax, DWORD PTR _this$[ebp]
	mov	ecx, DWORD PTR [eax+16]
	cmp	ecx, DWORD PTR __Off$[ebp]
	jae	SHORT $LN1@erase

; 1311 : 			_Xran();	// _Off off end

	mov	ecx, DWORD PTR _this$[ebp]
	call	?_Xran@?$basic_string@DU?$char_traits@D@std@@V?$allocator@D@2@@std@@QBEXXZ ; std::basic_string<char,std::char_traits<char>,std::allocator<char> >::_Xran
$LN1@erase:

; 1312 : 		_Eos(_Off);

	mov	edx, DWORD PTR __Off$[ebp]
	push	edx
	mov	ecx, DWORD PTR _this$[ebp]
	call	?_Eos@?$basic_string@DU?$char_traits@D@std@@V?$allocator@D@2@@std@@QAEXI@Z ; std::basic_string<char,std::char_traits<char>,std::allocator<char> >::_Eos

; 1313 : 		return (*this);

	mov	eax, DWORD PTR _this$[ebp]
$LN3@erase:

; 1314 : 		}

	mov	esp, ebp
	pop	ebp
	ret	4
?erase@?$basic_string@DU?$char_traits@D@std@@V?$allocator@D@2@@std@@QAEAAV12@I@Z ENDP ; std::basic_string<char,std::char_traits<char>,std::allocator<char> >::erase
_TEXT	ENDS
; Function compile flags: /Odtp
; File c:\program files (x86)\microsoft visual studio 11.0\vc\include\xstring
;	COMDAT ?assign@?$basic_string@DU?$char_traits@D@std@@V?$allocator@D@2@@std@@QAEAAV12@PBD@Z
_TEXT	SEGMENT
_this$ = -4						; size = 4
__Ptr$ = 8						; size = 4
?assign@?$basic_string@DU?$char_traits@D@std@@V?$allocator@D@2@@std@@QAEAAV12@PBD@Z PROC ; std::basic_string<char,std::char_traits<char>,std::allocator<char> >::assign, COMDAT
; _this$ = ecx

; 1142 : 		{	// assign [_Ptr, <null>)

	push	ebp
	mov	ebp, esp
	push	ecx
	mov	DWORD PTR _this$[ebp], ecx

; 1143 : 		_DEBUG_POINTER(_Ptr);
; 1144 : 		return (assign(_Ptr, _Traits::length(_Ptr)));

	mov	eax, DWORD PTR __Ptr$[ebp]
	push	eax
	call	?length@?$char_traits@D@std@@SAIPBD@Z	; std::char_traits<char>::length
	add	esp, 4
	push	eax
	mov	ecx, DWORD PTR __Ptr$[ebp]
	push	ecx
	mov	ecx, DWORD PTR _this$[ebp]
	call	?assign@?$basic_string@DU?$char_traits@D@std@@V?$allocator@D@2@@std@@QAEAAV12@PBDI@Z ; std::basic_string<char,std::char_traits<char>,std::allocator<char> >::assign

; 1145 : 		}

	mov	esp, ebp
	pop	ebp
	ret	4
?assign@?$basic_string@DU?$char_traits@D@std@@V?$allocator@D@2@@std@@QAEAAV12@PBD@Z ENDP ; std::basic_string<char,std::char_traits<char>,std::allocator<char> >::assign
_TEXT	ENDS
; Function compile flags: /Odtp
; File c:\program files (x86)\microsoft visual studio 11.0\vc\include\xstring
;	COMDAT ?assign@?$basic_string@DU?$char_traits@D@std@@V?$allocator@D@2@@std@@QAEAAV12@PBDI@Z
_TEXT	SEGMENT
_this$ = -4						; size = 4
__Ptr$ = 8						; size = 4
__Count$ = 12						; size = 4
?assign@?$basic_string@DU?$char_traits@D@std@@V?$allocator@D@2@@std@@QAEAAV12@PBDI@Z PROC ; std::basic_string<char,std::char_traits<char>,std::allocator<char> >::assign, COMDAT
; _this$ = ecx

; 1123 : 		{	// assign [_Ptr, _Ptr + _Count)

	push	ebp
	mov	ebp, esp
	push	ecx
	mov	DWORD PTR _this$[ebp], ecx

; 1124 :  #if _ITERATOR_DEBUG_LEVEL == 2
; 1125 : 		if (_Count != 0)
; 1126 : 			_DEBUG_POINTER(_Ptr);
; 1127 :  #endif /* _ITERATOR_DEBUG_LEVEL == 2 */
; 1128 : 
; 1129 : 		if (_Inside(_Ptr))

	mov	eax, DWORD PTR __Ptr$[ebp]
	push	eax
	mov	ecx, DWORD PTR _this$[ebp]
	call	?_Inside@?$basic_string@DU?$char_traits@D@std@@V?$allocator@D@2@@std@@QAE_NPBD@Z ; std::basic_string<char,std::char_traits<char>,std::allocator<char> >::_Inside
	movzx	ecx, al
	test	ecx, ecx
	je	SHORT $LN2@assign

; 1130 : 			return (assign(*this,
; 1131 : 				_Ptr - this->_Myptr(), _Count));	// substring

	mov	edx, DWORD PTR __Count$[ebp]
	push	edx
	mov	ecx, DWORD PTR _this$[ebp]
	call	?_Myptr@?$_String_val@U?$_Simple_types@D@std@@@std@@QAEPADXZ ; std::_String_val<std::_Simple_types<char> >::_Myptr
	mov	ecx, DWORD PTR __Ptr$[ebp]
	sub	ecx, eax
	push	ecx
	mov	edx, DWORD PTR _this$[ebp]
	push	edx
	mov	ecx, DWORD PTR _this$[ebp]
	call	?assign@?$basic_string@DU?$char_traits@D@std@@V?$allocator@D@2@@std@@QAEAAV12@ABV12@II@Z ; std::basic_string<char,std::char_traits<char>,std::allocator<char> >::assign
	jmp	SHORT $LN3@assign
$LN2@assign:

; 1132 : 
; 1133 : 		if (_Grow(_Count))

	push	0
	mov	eax, DWORD PTR __Count$[ebp]
	push	eax
	mov	ecx, DWORD PTR _this$[ebp]
	call	?_Grow@?$basic_string@DU?$char_traits@D@std@@V?$allocator@D@2@@std@@QAE_NI_N@Z ; std::basic_string<char,std::char_traits<char>,std::allocator<char> >::_Grow
	movzx	ecx, al
	test	ecx, ecx
	je	SHORT $LN1@assign

; 1134 : 			{	// make room and assign new stuff
; 1135 : 			_Traits::copy(this->_Myptr(), _Ptr, _Count);

	mov	edx, DWORD PTR __Count$[ebp]
	push	edx
	mov	eax, DWORD PTR __Ptr$[ebp]
	push	eax
	mov	ecx, DWORD PTR _this$[ebp]
	call	?_Myptr@?$_String_val@U?$_Simple_types@D@std@@@std@@QAEPADXZ ; std::_String_val<std::_Simple_types<char> >::_Myptr
	push	eax
	call	?copy@?$char_traits@D@std@@SAPADPADPBDI@Z ; std::char_traits<char>::copy
	add	esp, 12					; 0000000cH

; 1136 : 			_Eos(_Count);

	mov	ecx, DWORD PTR __Count$[ebp]
	push	ecx
	mov	ecx, DWORD PTR _this$[ebp]
	call	?_Eos@?$basic_string@DU?$char_traits@D@std@@V?$allocator@D@2@@std@@QAEXI@Z ; std::basic_string<char,std::char_traits<char>,std::allocator<char> >::_Eos
$LN1@assign:

; 1137 : 			}
; 1138 : 		return (*this);

	mov	eax, DWORD PTR _this$[ebp]
$LN3@assign:

; 1139 : 		}

	mov	esp, ebp
	pop	ebp
	ret	8
?assign@?$basic_string@DU?$char_traits@D@std@@V?$allocator@D@2@@std@@QAEAAV12@PBDI@Z ENDP ; std::basic_string<char,std::char_traits<char>,std::allocator<char> >::assign
_TEXT	ENDS
; Function compile flags: /Odtp
; File c:\program files (x86)\microsoft visual studio 11.0\vc\include\xstring
;	COMDAT ?assign@?$basic_string@DU?$char_traits@D@std@@V?$allocator@D@2@@std@@QAEAAV12@ABV12@II@Z
_TEXT	SEGMENT
__Num$ = -8						; size = 4
_this$ = -4						; size = 4
__Right$ = 8						; size = 4
__Roff$ = 12						; size = 4
__Count$ = 16						; size = 4
?assign@?$basic_string@DU?$char_traits@D@std@@V?$allocator@D@2@@std@@QAEAAV12@ABV12@II@Z PROC ; std::basic_string<char,std::char_traits<char>,std::allocator<char> >::assign, COMDAT
; _this$ = ecx

; 1104 : 		{	// assign _Right [_Roff, _Roff + _Count)

	push	ebp
	mov	ebp, esp
	sub	esp, 8
	mov	DWORD PTR _this$[ebp], ecx

; 1105 : 		if (_Right.size() < _Roff)

	mov	ecx, DWORD PTR __Right$[ebp]
	call	?size@?$basic_string@DU?$char_traits@D@std@@V?$allocator@D@2@@std@@QBEIXZ ; std::basic_string<char,std::char_traits<char>,std::allocator<char> >::size
	cmp	eax, DWORD PTR __Roff$[ebp]
	jae	SHORT $LN5@assign

; 1106 : 			_Xran();	// _Roff off end

	mov	ecx, DWORD PTR _this$[ebp]
	call	?_Xran@?$basic_string@DU?$char_traits@D@std@@V?$allocator@D@2@@std@@QBEXXZ ; std::basic_string<char,std::char_traits<char>,std::allocator<char> >::_Xran
$LN5@assign:

; 1107 : 		size_type _Num = _Right.size() - _Roff;

	mov	ecx, DWORD PTR __Right$[ebp]
	call	?size@?$basic_string@DU?$char_traits@D@std@@V?$allocator@D@2@@std@@QBEIXZ ; std::basic_string<char,std::char_traits<char>,std::allocator<char> >::size
	sub	eax, DWORD PTR __Roff$[ebp]
	mov	DWORD PTR __Num$[ebp], eax

; 1108 : 		if (_Count < _Num)

	mov	eax, DWORD PTR __Count$[ebp]
	cmp	eax, DWORD PTR __Num$[ebp]
	jae	SHORT $LN4@assign

; 1109 : 			_Num = _Count;	// trim _Num to size

	mov	ecx, DWORD PTR __Count$[ebp]
	mov	DWORD PTR __Num$[ebp], ecx
$LN4@assign:

; 1110 : 
; 1111 : 		if (this == &_Right)

	mov	edx, DWORD PTR _this$[ebp]
	cmp	edx, DWORD PTR __Right$[ebp]
	jne	SHORT $LN3@assign

; 1112 : 			erase((size_type)(_Roff + _Num)), erase(0, _Roff);	// substring

	mov	eax, DWORD PTR __Roff$[ebp]
	add	eax, DWORD PTR __Num$[ebp]
	push	eax
	mov	ecx, DWORD PTR _this$[ebp]
	call	?erase@?$basic_string@DU?$char_traits@D@std@@V?$allocator@D@2@@std@@QAEAAV12@I@Z ; std::basic_string<char,std::char_traits<char>,std::allocator<char> >::erase
	mov	ecx, DWORD PTR __Roff$[ebp]
	push	ecx
	push	0
	mov	ecx, DWORD PTR _this$[ebp]
	call	?erase@?$basic_string@DU?$char_traits@D@std@@V?$allocator@D@2@@std@@QAEAAV12@II@Z ; std::basic_string<char,std::char_traits<char>,std::allocator<char> >::erase
	jmp	SHORT $LN2@assign
$LN3@assign:

; 1113 : 		else if (_Grow(_Num))

	push	0
	mov	edx, DWORD PTR __Num$[ebp]
	push	edx
	mov	ecx, DWORD PTR _this$[ebp]
	call	?_Grow@?$basic_string@DU?$char_traits@D@std@@V?$allocator@D@2@@std@@QAE_NI_N@Z ; std::basic_string<char,std::char_traits<char>,std::allocator<char> >::_Grow
	movzx	eax, al
	test	eax, eax
	je	SHORT $LN2@assign

; 1114 : 			{	// make room and assign new stuff
; 1115 : 			_Traits::copy(this->_Myptr(),
; 1116 : 				_Right._Myptr() + _Roff, _Num);

	mov	ecx, DWORD PTR __Num$[ebp]
	push	ecx
	mov	ecx, DWORD PTR __Right$[ebp]
	call	?_Myptr@?$_String_val@U?$_Simple_types@D@std@@@std@@QBEPBDXZ ; std::_String_val<std::_Simple_types<char> >::_Myptr
	add	eax, DWORD PTR __Roff$[ebp]
	push	eax
	mov	ecx, DWORD PTR _this$[ebp]
	call	?_Myptr@?$_String_val@U?$_Simple_types@D@std@@@std@@QAEPADXZ ; std::_String_val<std::_Simple_types<char> >::_Myptr
	push	eax
	call	?copy@?$char_traits@D@std@@SAPADPADPBDI@Z ; std::char_traits<char>::copy
	add	esp, 12					; 0000000cH

; 1117 : 			_Eos(_Num);

	mov	edx, DWORD PTR __Num$[ebp]
	push	edx
	mov	ecx, DWORD PTR _this$[ebp]
	call	?_Eos@?$basic_string@DU?$char_traits@D@std@@V?$allocator@D@2@@std@@QAEXI@Z ; std::basic_string<char,std::char_traits<char>,std::allocator<char> >::_Eos
$LN2@assign:

; 1118 : 			}
; 1119 : 		return (*this);

	mov	eax, DWORD PTR _this$[ebp]
$LN7@assign:

; 1120 : 		}

	mov	esp, ebp
	pop	ebp
	ret	12					; 0000000cH
?assign@?$basic_string@DU?$char_traits@D@std@@V?$allocator@D@2@@std@@QAEAAV12@ABV12@II@Z ENDP ; std::basic_string<char,std::char_traits<char>,std::allocator<char> >::assign
_TEXT	ENDS
; Function compile flags: /Odtp
; File c:\program files (x86)\microsoft visual studio 11.0\vc\include\xstring
;	COMDAT ??0?$basic_string@DU?$char_traits@D@std@@V?$allocator@D@2@@std@@QAE@PBD@Z
_TEXT	SEGMENT
_this$ = -8						; size = 4
$T1 = -1						; size = 1
__Ptr$ = 8						; size = 4
??0?$basic_string@DU?$char_traits@D@std@@V?$allocator@D@2@@std@@QAE@PBD@Z PROC ; std::basic_string<char,std::char_traits<char>,std::allocator<char> >::basic_string<char,std::char_traits<char>,std::allocator<char> >, COMDAT
; _this$ = ecx

; 791  : 		{	// construct from [_Ptr, <null>)

	push	ebp
	mov	ebp, esp
	sub	esp, 8
	mov	DWORD PTR _this$[ebp], ecx
	lea	ecx, DWORD PTR $T1[ebp]
	call	??0?$allocator@D@std@@QAE@XZ		; std::allocator<char>::allocator<char>
	push	eax
	mov	ecx, DWORD PTR _this$[ebp]
	call	??0?$_String_alloc@$0A@U?$_String_base_types@DV?$allocator@D@std@@@std@@@std@@QAE@ABV?$allocator@D@1@@Z ; std::_String_alloc<0,std::_String_base_types<char,std::allocator<char> > >::_String_alloc<0,std::_String_base_types<char,std::allocator<char> > >

; 792  : 		_Tidy();

	push	0
	push	0
	mov	ecx, DWORD PTR _this$[ebp]
	call	?_Tidy@?$basic_string@DU?$char_traits@D@std@@V?$allocator@D@2@@std@@QAEX_NI@Z ; std::basic_string<char,std::char_traits<char>,std::allocator<char> >::_Tidy

; 793  : 		assign(_Ptr);

	mov	eax, DWORD PTR __Ptr$[ebp]
	push	eax
	mov	ecx, DWORD PTR _this$[ebp]
	call	?assign@?$basic_string@DU?$char_traits@D@std@@V?$allocator@D@2@@std@@QAEAAV12@PBD@Z ; std::basic_string<char,std::char_traits<char>,std::allocator<char> >::assign

; 794  : 		}

	mov	eax, DWORD PTR _this$[ebp]
	mov	esp, ebp
	pop	ebp
	ret	4
??0?$basic_string@DU?$char_traits@D@std@@V?$allocator@D@2@@std@@QAE@PBD@Z ENDP ; std::basic_string<char,std::char_traits<char>,std::allocator<char> >::basic_string<char,std::char_traits<char>,std::allocator<char> >
_TEXT	ENDS
; Function compile flags: /Odtp
; File c:\program files (x86)\microsoft visual studio 11.0\vc\include\xstring
;	COMDAT ?_Getal@?$_String_alloc@$0A@U?$_String_base_types@DV?$allocator@D@std@@@std@@@std@@QBE?AU?$_Wrap_alloc@V?$allocator@D@std@@@2@XZ
_TEXT	SEGMENT
_this$ = -4						; size = 4
___$ReturnUdt$ = 8					; size = 4
?_Getal@?$_String_alloc@$0A@U?$_String_base_types@DV?$allocator@D@std@@@std@@@std@@QBE?AU?$_Wrap_alloc@V?$allocator@D@std@@@2@XZ PROC ; std::_String_alloc<0,std::_String_base_types<char,std::allocator<char> > >::_Getal, COMDAT
; _this$ = ecx

; 688  : 		{	// get reference to allocator

	push	ebp
	mov	ebp, esp
	push	ecx
	mov	DWORD PTR _this$[ebp], ecx

; 689  : 		return (_Alty());

	mov	ecx, DWORD PTR ___$ReturnUdt$[ebp]
	call	??0?$_Wrap_alloc@V?$allocator@D@std@@@std@@QAE@XZ ; std::_Wrap_alloc<std::allocator<char> >::_Wrap_alloc<std::allocator<char> >
	mov	eax, DWORD PTR ___$ReturnUdt$[ebp]

; 690  : 		}

	mov	esp, ebp
	pop	ebp
	ret	4
?_Getal@?$_String_alloc@$0A@U?$_String_base_types@DV?$allocator@D@std@@@std@@@std@@QBE?AU?$_Wrap_alloc@V?$allocator@D@std@@@2@XZ ENDP ; std::_String_alloc<0,std::_String_base_types<char,std::allocator<char> > >::_Getal
_TEXT	ENDS
; Function compile flags: /Odtp
; File c:\program files (x86)\microsoft visual studio 11.0\vc\include\xstring
;	COMDAT ??0?$_String_alloc@$0A@U?$_String_base_types@DV?$allocator@D@std@@@std@@@std@@QAE@ABV?$allocator@D@1@@Z
_TEXT	SEGMENT
_this$ = -4						; size = 4
___formal$ = 8						; size = 4
??0?$_String_alloc@$0A@U?$_String_base_types@DV?$allocator@D@std@@@std@@@std@@QAE@ABV?$allocator@D@1@@Z PROC ; std::_String_alloc<0,std::_String_base_types<char,std::allocator<char> > >::_String_alloc<0,std::_String_base_types<char,std::allocator<char> > >, COMDAT
; _this$ = ecx

; 635  : 	_String_alloc(const _Alloc& = _Alloc())

	push	ebp
	mov	ebp, esp
	push	ecx
	mov	DWORD PTR _this$[ebp], ecx
	mov	ecx, DWORD PTR _this$[ebp]
	call	??0?$_String_val@U?$_Simple_types@D@std@@@std@@QAE@XZ ; std::_String_val<std::_Simple_types<char> >::_String_val<std::_Simple_types<char> >

; 636  : 		{	// construct allocator from _Al
; 637  : 		}

	mov	eax, DWORD PTR _this$[ebp]
	mov	esp, ebp
	pop	ebp
	ret	4
??0?$_String_alloc@$0A@U?$_String_base_types@DV?$allocator@D@std@@@std@@@std@@QAE@ABV?$allocator@D@1@@Z ENDP ; std::_String_alloc<0,std::_String_base_types<char,std::allocator<char> > >::_String_alloc<0,std::_String_base_types<char,std::allocator<char> > >
_TEXT	ENDS
; Function compile flags: /Odtp
; File c:\program files (x86)\microsoft visual studio 11.0\vc\include\xstring
;	COMDAT ?_Myptr@?$_String_val@U?$_Simple_types@D@std@@@std@@QBEPBDXZ
_TEXT	SEGMENT
tv72 = -8						; size = 4
_this$ = -4						; size = 4
?_Myptr@?$_String_val@U?$_Simple_types@D@std@@@std@@QBEPBDXZ PROC ; std::_String_val<std::_Simple_types<char> >::_Myptr, COMDAT
; _this$ = ecx

; 521  : 		{	// determine current pointer to buffer for nonmutable string

	push	ebp
	mov	ebp, esp
	sub	esp, 8
	mov	DWORD PTR _this$[ebp], ecx

; 522  : 		return (this->_BUF_SIZE <= this->_Myres
; 523  : 			? _STD addressof(*this->_Bx._Ptr)
; 524  : 			: this->_Bx._Buf);

	mov	eax, DWORD PTR _this$[ebp]
	cmp	DWORD PTR [eax+20], 16			; 00000010H
	jb	SHORT $LN3@Myptr
	mov	ecx, DWORD PTR _this$[ebp]
	mov	edx, DWORD PTR [ecx]
	push	edx
	call	??$addressof@D@std@@YAPADAAD@Z		; std::addressof<char>
	add	esp, 4
	mov	DWORD PTR tv72[ebp], eax
	jmp	SHORT $LN4@Myptr
$LN3@Myptr:
	mov	eax, DWORD PTR _this$[ebp]
	mov	DWORD PTR tv72[ebp], eax
$LN4@Myptr:
	mov	eax, DWORD PTR tv72[ebp]

; 525  : 		}

	mov	esp, ebp
	pop	ebp
	ret	0
?_Myptr@?$_String_val@U?$_Simple_types@D@std@@@std@@QBEPBDXZ ENDP ; std::_String_val<std::_Simple_types<char> >::_Myptr
_TEXT	ENDS
; Function compile flags: /Odtp
; File c:\program files (x86)\microsoft visual studio 11.0\vc\include\xstring
;	COMDAT ?_Myptr@?$_String_val@U?$_Simple_types@D@std@@@std@@QAEPADXZ
_TEXT	SEGMENT
tv72 = -8						; size = 4
_this$ = -4						; size = 4
?_Myptr@?$_String_val@U?$_Simple_types@D@std@@@std@@QAEPADXZ PROC ; std::_String_val<std::_Simple_types<char> >::_Myptr, COMDAT
; _this$ = ecx

; 514  : 		{	// determine current pointer to buffer for mutable string

	push	ebp
	mov	ebp, esp
	sub	esp, 8
	mov	DWORD PTR _this$[ebp], ecx

; 515  : 		return (this->_BUF_SIZE <= this->_Myres
; 516  : 			? _STD addressof(*this->_Bx._Ptr)
; 517  : 			: this->_Bx._Buf);

	mov	eax, DWORD PTR _this$[ebp]
	cmp	DWORD PTR [eax+20], 16			; 00000010H
	jb	SHORT $LN3@Myptr
	mov	ecx, DWORD PTR _this$[ebp]
	mov	edx, DWORD PTR [ecx]
	push	edx
	call	??$addressof@D@std@@YAPADAAD@Z		; std::addressof<char>
	add	esp, 4
	mov	DWORD PTR tv72[ebp], eax
	jmp	SHORT $LN4@Myptr
$LN3@Myptr:
	mov	eax, DWORD PTR _this$[ebp]
	mov	DWORD PTR tv72[ebp], eax
$LN4@Myptr:
	mov	eax, DWORD PTR tv72[ebp]

; 518  : 		}

	mov	esp, ebp
	pop	ebp
	ret	0
?_Myptr@?$_String_val@U?$_Simple_types@D@std@@@std@@QAEPADXZ ENDP ; std::_String_val<std::_Simple_types<char> >::_Myptr
_TEXT	ENDS
; Function compile flags: /Odtp
; File c:\program files (x86)\microsoft visual studio 11.0\vc\include\xstring
;	COMDAT ??0?$_String_val@U?$_Simple_types@D@std@@@std@@QAE@XZ
_TEXT	SEGMENT
_this$ = -4						; size = 4
??0?$_String_val@U?$_Simple_types@D@std@@@std@@QAE@XZ PROC ; std::_String_val<std::_Simple_types<char> >::_String_val<std::_Simple_types<char> >, COMDAT
; _this$ = ecx

; 496  : 	_String_val()

	push	ebp
	mov	ebp, esp
	push	ecx
	mov	DWORD PTR _this$[ebp], ecx

; 497  : 		{	// initialize values
; 498  : 		_Mysize = 0;

	mov	eax, DWORD PTR _this$[ebp]
	mov	DWORD PTR [eax+16], 0

; 499  : 		_Myres = 0;

	mov	ecx, DWORD PTR _this$[ebp]
	mov	DWORD PTR [ecx+20], 0

; 500  : 		}

	mov	eax, DWORD PTR _this$[ebp]
	mov	esp, ebp
	pop	ebp
	ret	0
??0?$_String_val@U?$_Simple_types@D@std@@@std@@QAE@XZ ENDP ; std::_String_val<std::_Simple_types<char> >::_String_val<std::_Simple_types<char> >
_TEXT	ENDS
; Function compile flags: /Odtp
; File c:\program files (x86)\microsoft visual studio 11.0\vc\include\xmemory0
;	COMDAT ?max_size@?$_Wrap_alloc@V?$allocator@D@std@@@std@@QBEIXZ
_TEXT	SEGMENT
_this$ = -4						; size = 4
?max_size@?$_Wrap_alloc@V?$allocator@D@std@@@std@@QBEIXZ PROC ; std::_Wrap_alloc<std::allocator<char> >::max_size, COMDAT
; _this$ = ecx

; 913  : 		{	// get maximum size

	push	ebp
	mov	ebp, esp
	push	ecx
	mov	DWORD PTR _this$[ebp], ecx

; 914  : 		return (_Mytraits::max_size(*this));

	mov	eax, DWORD PTR _this$[ebp]
	push	eax
	call	?max_size@?$allocator_traits@V?$allocator@D@std@@@std@@SAIABV?$allocator@D@2@@Z ; std::allocator_traits<std::allocator<char> >::max_size
	add	esp, 4

; 915  : 		}

	mov	esp, ebp
	pop	ebp
	ret	0
?max_size@?$_Wrap_alloc@V?$allocator@D@std@@@std@@QBEIXZ ENDP ; std::_Wrap_alloc<std::allocator<char> >::max_size
_TEXT	ENDS
; Function compile flags: /Odtp
; File c:\program files (x86)\microsoft visual studio 11.0\vc\include\xmemory0
;	COMDAT ?deallocate@?$_Wrap_alloc@V?$allocator@D@std@@@std@@QAEXPADI@Z
_TEXT	SEGMENT
_this$ = -4						; size = 4
__Ptr$ = 8						; size = 4
__Count$ = 12						; size = 4
?deallocate@?$_Wrap_alloc@V?$allocator@D@std@@@std@@QAEXPADI@Z PROC ; std::_Wrap_alloc<std::allocator<char> >::deallocate, COMDAT
; _this$ = ecx

; 886  : 		{	// deallocate object at _Ptr, ignore size

	push	ebp
	mov	ebp, esp
	push	ecx
	mov	DWORD PTR _this$[ebp], ecx

; 887  : 		_Mybase::deallocate(_Ptr, _Count);

	mov	eax, DWORD PTR __Count$[ebp]
	push	eax
	mov	ecx, DWORD PTR __Ptr$[ebp]
	push	ecx
	mov	ecx, DWORD PTR _this$[ebp]
	call	?deallocate@?$allocator@D@std@@QAEXPADI@Z ; std::allocator<char>::deallocate

; 888  : 		}

	mov	esp, ebp
	pop	ebp
	ret	8
?deallocate@?$_Wrap_alloc@V?$allocator@D@std@@@std@@QAEXPADI@Z ENDP ; std::_Wrap_alloc<std::allocator<char> >::deallocate
_TEXT	ENDS
; Function compile flags: /Odtp
; File c:\program files (x86)\microsoft visual studio 11.0\vc\include\xmemory0
;	COMDAT ?allocate@?$_Wrap_alloc@V?$allocator@D@std@@@std@@QAEPADI@Z
_TEXT	SEGMENT
_this$ = -4						; size = 4
__Count$ = 8						; size = 4
?allocate@?$_Wrap_alloc@V?$allocator@D@std@@@std@@QAEPADI@Z PROC ; std::_Wrap_alloc<std::allocator<char> >::allocate, COMDAT
; _this$ = ecx

; 875  : 		{	// allocate array of _Count elements

	push	ebp
	mov	ebp, esp
	push	ecx
	mov	DWORD PTR _this$[ebp], ecx

; 876  : 		return (_Mybase::allocate(_Count));

	mov	eax, DWORD PTR __Count$[ebp]
	push	eax
	mov	ecx, DWORD PTR _this$[ebp]
	call	?allocate@?$allocator@D@std@@QAEPADI@Z	; std::allocator<char>::allocate

; 877  : 		}

	mov	esp, ebp
	pop	ebp
	ret	4
?allocate@?$_Wrap_alloc@V?$allocator@D@std@@@std@@QAEPADI@Z ENDP ; std::_Wrap_alloc<std::allocator<char> >::allocate
_TEXT	ENDS
; Function compile flags: /Odtp
; File c:\program files (x86)\microsoft visual studio 11.0\vc\include\xmemory0
;	COMDAT ??0?$_Wrap_alloc@V?$allocator@D@std@@@std@@QAE@XZ
_TEXT	SEGMENT
_this$ = -4						; size = 4
??0?$_Wrap_alloc@V?$allocator@D@std@@@std@@QAE@XZ PROC	; std::_Wrap_alloc<std::allocator<char> >::_Wrap_alloc<std::allocator<char> >, COMDAT
; _this$ = ecx

; 830  : 		{	// construct default allocator (do nothing)

	push	ebp
	mov	ebp, esp
	push	ecx
	mov	DWORD PTR _this$[ebp], ecx
	mov	ecx, DWORD PTR _this$[ebp]
	call	??0?$allocator@D@std@@QAE@XZ		; std::allocator<char>::allocator<char>

; 831  : 		}

	mov	eax, DWORD PTR _this$[ebp]
	mov	esp, ebp
	pop	ebp
	ret	0
??0?$_Wrap_alloc@V?$allocator@D@std@@@std@@QAE@XZ ENDP	; std::_Wrap_alloc<std::allocator<char> >::_Wrap_alloc<std::allocator<char> >
_TEXT	ENDS
; Function compile flags: /Odtp
; File c:\program files (x86)\microsoft visual studio 11.0\vc\include\xmemory0
;	COMDAT ?max_size@?$allocator_traits@V?$allocator@D@std@@@std@@SAIABV?$allocator@D@2@@Z
_TEXT	SEGMENT
__Al$ = 8						; size = 4
?max_size@?$allocator_traits@V?$allocator@D@std@@@std@@SAIABV?$allocator@D@2@@Z PROC ; std::allocator_traits<std::allocator<char> >::max_size, COMDAT

; 761  : 		{	// get maximum size

	push	ebp
	mov	ebp, esp

; 762  : 		return (_Al.max_size());

	mov	ecx, DWORD PTR __Al$[ebp]
	call	?max_size@?$allocator@D@std@@QBEIXZ	; std::allocator<char>::max_size

; 763  : 		}

	pop	ebp
	ret	0
?max_size@?$allocator_traits@V?$allocator@D@std@@@std@@SAIABV?$allocator@D@2@@Z ENDP ; std::allocator_traits<std::allocator<char> >::max_size
_TEXT	ENDS
; Function compile flags: /Odtp
; File c:\program files (x86)\microsoft visual studio 11.0\vc\include\xmemory0
;	COMDAT ?max_size@?$allocator@D@std@@QBEIXZ
_TEXT	SEGMENT
_this$ = -4						; size = 4
?max_size@?$allocator@D@std@@QBEIXZ PROC		; std::allocator<char>::max_size, COMDAT
; _this$ = ecx

; 627  : 		{	// estimate maximum array size

	push	ebp
	mov	ebp, esp
	push	ecx
	mov	DWORD PTR _this$[ebp], ecx

; 628  : 		return ((size_t)(-1) / sizeof (_Ty));

	or	eax, -1

; 629  : 		}

	mov	esp, ebp
	pop	ebp
	ret	0
?max_size@?$allocator@D@std@@QBEIXZ ENDP		; std::allocator<char>::max_size
_TEXT	ENDS
; Function compile flags: /Odtp
; File c:\program files (x86)\microsoft visual studio 11.0\vc\include\xmemory0
;	COMDAT ?allocate@?$allocator@D@std@@QAEPADI@Z
_TEXT	SEGMENT
_this$ = -4						; size = 4
__Count$ = 8						; size = 4
?allocate@?$allocator@D@std@@QAEPADI@Z PROC		; std::allocator<char>::allocate, COMDAT
; _this$ = ecx

; 590  : 		{	// allocate array of _Count elements

	push	ebp
	mov	ebp, esp
	push	ecx
	mov	DWORD PTR _this$[ebp], ecx

; 591  : 		return (_Allocate(_Count, (pointer)0));

	push	0
	mov	eax, DWORD PTR __Count$[ebp]
	push	eax
	call	??$_Allocate@D@std@@YAPADIPAD@Z		; std::_Allocate<char>
	add	esp, 8

; 592  : 		}

	mov	esp, ebp
	pop	ebp
	ret	4
?allocate@?$allocator@D@std@@QAEPADI@Z ENDP		; std::allocator<char>::allocate
_TEXT	ENDS
; Function compile flags: /Odtp
; File c:\program files (x86)\microsoft visual studio 11.0\vc\include\xmemory0
;	COMDAT ?deallocate@?$allocator@D@std@@QAEXPADI@Z
_TEXT	SEGMENT
_this$ = -4						; size = 4
__Ptr$ = 8						; size = 4
___formal$ = 12						; size = 4
?deallocate@?$allocator@D@std@@QAEXPADI@Z PROC		; std::allocator<char>::deallocate, COMDAT
; _this$ = ecx

; 585  : 		{	// deallocate object at _Ptr, ignore size

	push	ebp
	mov	ebp, esp
	push	ecx
	mov	DWORD PTR _this$[ebp], ecx

; 586  : 		::operator delete(_Ptr);

	mov	eax, DWORD PTR __Ptr$[ebp]
	push	eax
	call	??3@YAXPAX@Z				; operator delete
	add	esp, 4

; 587  : 		}

	mov	esp, ebp
	pop	ebp
	ret	8
?deallocate@?$allocator@D@std@@QAEXPADI@Z ENDP		; std::allocator<char>::deallocate
_TEXT	ENDS
; Function compile flags: /Odtp
; File c:\program files (x86)\microsoft visual studio 11.0\vc\include\xmemory0
;	COMDAT ??0?$allocator@D@std@@QAE@XZ
_TEXT	SEGMENT
_this$ = -4						; size = 4
??0?$allocator@D@std@@QAE@XZ PROC			; std::allocator<char>::allocator<char>, COMDAT
; _this$ = ecx

; 565  : 	allocator() _THROW0()

	push	ebp
	mov	ebp, esp
	push	ecx
	mov	DWORD PTR _this$[ebp], ecx

; 566  : 		{	// construct default allocator (do nothing)
; 567  : 		}

	mov	eax, DWORD PTR _this$[ebp]
	mov	esp, ebp
	pop	ebp
	ret	0
??0?$allocator@D@std@@QAE@XZ ENDP			; std::allocator<char>::allocator<char>
_TEXT	ENDS
; Function compile flags: /Odtp
; File c:\program files (x86)\microsoft visual studio 11.0\vc\include\xutility
;	COMDAT ??__Eallocator_arg@std@@YAXXZ
text$yc	SEGMENT
$T1 = -1						; size = 1
??__Eallocator_arg@std@@YAXXZ PROC			; std::`dynamic initializer for 'allocator_arg'', COMDAT

; 3644 : const allocator_arg_t allocator_arg = allocator_arg_t();

	push	ebp
	mov	ebp, esp
	push	ecx
	xor	eax, eax
	mov	BYTE PTR $T1[ebp], al
	mov	esp, ebp
	pop	ebp
	ret	0
??__Eallocator_arg@std@@YAXXZ ENDP			; std::`dynamic initializer for 'allocator_arg''
text$yc	ENDS
; Function compile flags: /Odtp
; File c:\program files (x86)\microsoft visual studio 11.0\vc\include\utility
;	COMDAT ??__Epiecewise_construct@std@@YAXXZ
text$yc	SEGMENT
$T1 = -1						; size = 1
??__Epiecewise_construct@std@@YAXXZ PROC		; std::`dynamic initializer for 'piecewise_construct'', COMDAT

; 65   : 	piecewise_construct_t();

	push	ebp
	mov	ebp, esp
	push	ecx
	xor	eax, eax
	mov	BYTE PTR $T1[ebp], al
	mov	esp, ebp
	pop	ebp
	ret	0
??__Epiecewise_construct@std@@YAXXZ ENDP		; std::`dynamic initializer for 'piecewise_construct''
text$yc	ENDS
; Function compile flags: /Odtp
; File c:\program files (x86)\microsoft visual studio 11.0\vc\include\iosfwd
;	COMDAT ?assign@?$char_traits@D@std@@SAXAADABD@Z
_TEXT	SEGMENT
__Left$ = 8						; size = 4
__Right$ = 12						; size = 4
?assign@?$char_traits@D@std@@SAXAADABD@Z PROC		; std::char_traits<char>::assign, COMDAT

; 563  : 		{	// assign an element

	push	ebp
	mov	ebp, esp

; 564  : 		_Left = _Right;

	mov	eax, DWORD PTR __Left$[ebp]
	mov	ecx, DWORD PTR __Right$[ebp]
	mov	dl, BYTE PTR [ecx]
	mov	BYTE PTR [eax], dl

; 565  : 		}

	pop	ebp
	ret	0
?assign@?$char_traits@D@std@@SAXAADABD@Z ENDP		; std::char_traits<char>::assign
_TEXT	ENDS
; Function compile flags: /Odtp
; File c:\program files (x86)\microsoft visual studio 11.0\vc\include\iosfwd
;	COMDAT ?move@?$char_traits@D@std@@SAPADPADPBDI@Z
_TEXT	SEGMENT
tv69 = -4						; size = 4
__First1$ = 8						; size = 4
__First2$ = 12						; size = 4
__Count$ = 16						; size = 4
?move@?$char_traits@D@std@@SAPADPADPBDI@Z PROC		; std::char_traits<char>::move, COMDAT

; 551  : 		{	// copy [_First2, _First2 + _Count) to [_First1, ...)

	push	ebp
	mov	ebp, esp
	push	ecx

; 552  : 		return (_Count == 0 ? _First1
; 553  : 			: (_Elem *)_CSTD memmove(_First1, _First2, _Count));

	cmp	DWORD PTR __Count$[ebp], 0
	jne	SHORT $LN3@move
	mov	eax, DWORD PTR __First1$[ebp]
	mov	DWORD PTR tv69[ebp], eax
	jmp	SHORT $LN4@move
$LN3@move:
	mov	ecx, DWORD PTR __Count$[ebp]
	push	ecx
	mov	edx, DWORD PTR __First2$[ebp]
	push	edx
	mov	eax, DWORD PTR __First1$[ebp]
	push	eax
	call	_memmove
	add	esp, 12					; 0000000cH
	mov	DWORD PTR tv69[ebp], eax
$LN4@move:
	mov	eax, DWORD PTR tv69[ebp]

; 554  : 		}

	mov	esp, ebp
	pop	ebp
	ret	0
?move@?$char_traits@D@std@@SAPADPADPBDI@Z ENDP		; std::char_traits<char>::move
_TEXT	ENDS
; Function compile flags: /Odtp
; File c:\program files (x86)\microsoft visual studio 11.0\vc\include\iosfwd
;	COMDAT ?copy@?$char_traits@D@std@@SAPADPADPBDI@Z
_TEXT	SEGMENT
tv69 = -4						; size = 4
__First1$ = 8						; size = 4
__First2$ = 12						; size = 4
__Count$ = 16						; size = 4
?copy@?$char_traits@D@std@@SAPADPADPBDI@Z PROC		; std::char_traits<char>::copy, COMDAT

; 528  : 		{	// copy [_First2, _First2 + _Count) to [_First1, ...)

	push	ebp
	mov	ebp, esp
	push	ecx

; 529  : 		return (_Count == 0 ? _First1
; 530  : 			: (_Elem *)_CSTD memcpy(_First1, _First2, _Count));

	cmp	DWORD PTR __Count$[ebp], 0
	jne	SHORT $LN3@copy
	mov	eax, DWORD PTR __First1$[ebp]
	mov	DWORD PTR tv69[ebp], eax
	jmp	SHORT $LN4@copy
$LN3@copy:
	mov	ecx, DWORD PTR __Count$[ebp]
	push	ecx
	mov	edx, DWORD PTR __First2$[ebp]
	push	edx
	mov	eax, DWORD PTR __First1$[ebp]
	push	eax
	call	_memcpy
	add	esp, 12					; 0000000cH
	mov	DWORD PTR tv69[ebp], eax
$LN4@copy:
	mov	eax, DWORD PTR tv69[ebp]

; 531  : 		}

	mov	esp, ebp
	pop	ebp
	ret	0
?copy@?$char_traits@D@std@@SAPADPADPBDI@Z ENDP		; std::char_traits<char>::copy
_TEXT	ENDS
; Function compile flags: /Odtp
; File c:\program files (x86)\microsoft visual studio 11.0\vc\include\iosfwd
;	COMDAT ?length@?$char_traits@D@std@@SAIPBD@Z
_TEXT	SEGMENT
tv68 = -4						; size = 4
__First$ = 8						; size = 4
?length@?$char_traits@D@std@@SAIPBD@Z PROC		; std::char_traits<char>::length, COMDAT

; 521  : 		{	// find length of null-terminated string

	push	ebp
	mov	ebp, esp
	push	ecx

; 522  : 		return (*_First == 0 ? 0
; 523  : 			: _CSTD strlen(_First));

	mov	eax, DWORD PTR __First$[ebp]
	movsx	ecx, BYTE PTR [eax]
	test	ecx, ecx
	jne	SHORT $LN3@length
	mov	DWORD PTR tv68[ebp], 0
	jmp	SHORT $LN4@length
$LN3@length:
	mov	edx, DWORD PTR __First$[ebp]
	push	edx
	call	_strlen
	add	esp, 4
	mov	DWORD PTR tv68[ebp], eax
$LN4@length:
	mov	eax, DWORD PTR tv68[ebp]

; 524  : 		}

	mov	esp, ebp
	pop	ebp
	ret	0
?length@?$char_traits@D@std@@SAIPBD@Z ENDP		; std::char_traits<char>::length
_TEXT	ENDS
; Function compile flags: /Odtp
; File c:\program files (x86)\microsoft visual studio 11.0\vc\include\new
;	COMDAT ??3@YAXPAX0@Z
_TEXT	SEGMENT
___formal$ = 8						; size = 4
___formal$ = 12						; size = 4
??3@YAXPAX0@Z PROC					; operator delete, COMDAT

; 64   : 	{	// delete if placement new fails

	push	ebp
	mov	ebp, esp

; 65   : 	}

	pop	ebp
	ret	0
??3@YAXPAX0@Z ENDP					; operator delete
_TEXT	ENDS
; Function compile flags: /Odtp
; File c:\program files (x86)\microsoft visual studio 11.0\vc\include\new
;	COMDAT ??2@YAPAXIPAX@Z
_TEXT	SEGMENT
___formal$ = 8						; size = 4
__Where$ = 12						; size = 4
??2@YAPAXIPAX@Z PROC					; operator new, COMDAT

; 59   : 	{	// construct array with placement at _Where

	push	ebp
	mov	ebp, esp

; 60   : 	return (_Where);

	mov	eax, DWORD PTR __Where$[ebp]

; 61   : 	}

	pop	ebp
	ret	0
??2@YAPAXIPAX@Z ENDP					; operator new
_TEXT	ENDS
END
